
tests/part2-test1.elf:     file format elf32-littlearm


Disassembly of section .text:

00008000 <__code_start__>:
    8000:	e3a0d302 	mov	sp, #134217728	; 0x8000000
    8004:	e3a0b000 	mov	fp, #0
    8008:	eb0005c3 	bl	971c <_cstart>
    800c:	eb0005da 	bl	977c <rpi_reboot>

00008010 <test1>:
    8010:	e92d4070 	push	{r4, r5, r6, lr}
    8014:	e59f6054 	ldr	r6, [pc, #84]	; 8070 <test1+0x60>
    8018:	e59f5054 	ldr	r5, [pc, #84]	; 8074 <test1+0x64>
    801c:	e3a00004 	mov	r0, #4
    8020:	e1a01006 	mov	r1, r6
    8024:	e1a02005 	mov	r2, r5
    8028:	e3a03009 	mov	r3, #9
    802c:	eb00012a 	bl	84dc <ckalloc>
    8030:	e1a04000 	mov	r4, r0
    8034:	e59f003c 	ldr	r0, [pc, #60]	; 8078 <test1+0x68>
    8038:	eb000438 	bl	9120 <printk>
    803c:	e59f0038 	ldr	r0, [pc, #56]	; 807c <test1+0x6c>
    8040:	e1a01004 	mov	r1, r4
    8044:	eb000435 	bl	9120 <printk>
    8048:	e1a00004 	mov	r0, r4
    804c:	e3a01000 	mov	r1, #0
    8050:	e3a02004 	mov	r2, #4
    8054:	eb000429 	bl	9100 <memset>
    8058:	e1a00004 	mov	r0, r4
    805c:	e1a01006 	mov	r1, r6
    8060:	e1a02005 	mov	r2, r5
    8064:	e3a0300c 	mov	r3, #12
    8068:	eb0000e7 	bl	840c <ckfree>
    806c:	e8bd8070 	pop	{r4, r5, r6, pc}
    8070:	00009d00 	andeq	r9, r0, r0, lsl #26
    8074:	00009cf0 	strdeq	r9, [r0], -r0
    8078:	00009d14 	andeq	r9, r0, r4, lsl sp
    807c:	00009d1c 	andeq	r9, r0, ip, lsl sp

00008080 <notmain>:
    8080:	e92d4008 	push	{r3, lr}
    8084:	e59f0094 	ldr	r0, [pc, #148]	; 8120 <notmain+0xa0>
    8088:	eb000424 	bl	9120 <printk>
    808c:	e3a00601 	mov	r0, #1048576	; 0x100000
    8090:	eb0006ad 	bl	9b4c <kmalloc_init_set_start>
    8094:	e3a00601 	mov	r0, #1048576	; 0x100000
    8098:	eb0006bf 	bl	9b9c <kmalloc>
    809c:	e3a01601 	mov	r1, #1048576	; 0x100000
    80a0:	eb0000b7 	bl	8384 <ck_init>
    80a4:	ebffffd9 	bl	8010 <test1>
    80a8:	eb000196 	bl	8708 <ck_heap_errors>
    80ac:	e3500000 	cmp	r0, #0
    80b0:	0a000006 	beq	80d0 <notmain+0x50>
    80b4:	eb000434 	bl	918c <rpi_reset_putc>
    80b8:	e59f0064 	ldr	r0, [pc, #100]	; 8124 <notmain+0xa4>
    80bc:	e59f1064 	ldr	r1, [pc, #100]	; 8128 <notmain+0xa8>
    80c0:	e59f2064 	ldr	r2, [pc, #100]	; 812c <notmain+0xac>
    80c4:	e3a0301c 	mov	r3, #28
    80c8:	eb000414 	bl	9120 <printk>
    80cc:	eb000588 	bl	96f4 <clean_reboot>
    80d0:	e59f0058 	ldr	r0, [pc, #88]	; 8130 <notmain+0xb0>
    80d4:	eb000411 	bl	9120 <printk>
    80d8:	e59f0054 	ldr	r0, [pc, #84]	; 8134 <notmain+0xb4>
    80dc:	eb00040f 	bl	9120 <printk>
    80e0:	e3a00001 	mov	r0, #1
    80e4:	eb000361 	bl	8e70 <ck_find_leaks>
    80e8:	e3500000 	cmp	r0, #0
    80ec:	0a000006 	beq	810c <notmain+0x8c>
    80f0:	eb000425 	bl	918c <rpi_reset_putc>
    80f4:	e59f003c 	ldr	r0, [pc, #60]	; 8138 <notmain+0xb8>
    80f8:	e59f1028 	ldr	r1, [pc, #40]	; 8128 <notmain+0xa8>
    80fc:	e59f2028 	ldr	r2, [pc, #40]	; 812c <notmain+0xac>
    8100:	e3a03021 	mov	r3, #33	; 0x21
    8104:	eb000405 	bl	9120 <printk>
    8108:	eb000579 	bl	96f4 <clean_reboot>
    810c:	e59f001c 	ldr	r0, [pc, #28]	; 8130 <notmain+0xb0>
    8110:	eb000402 	bl	9120 <printk>
    8114:	e59f0020 	ldr	r0, [pc, #32]	; 813c <notmain+0xbc>
    8118:	eb000400 	bl	9120 <printk>
    811c:	e8bd8008 	pop	{r3, pc}
    8120:	00009d30 	andeq	r9, r0, r0, lsr sp
    8124:	00009d3c 	andeq	r9, r0, ip, lsr sp
    8128:	00009d00 	andeq	r9, r0, r0, lsl #26
    812c:	00009cf8 	strdeq	r9, [r0], -r8
    8130:	00009d14 	andeq	r9, r0, r4, lsl sp
    8134:	0000a4e0 	andeq	sl, r0, r0, ror #9
    8138:	00009d60 	andeq	r9, r0, r0, ror #26
    813c:	0000a52c 	andeq	sl, r0, ip, lsr #10

00008140 <check_mem>:
    8140:	e92d41f0 	push	{r4, r5, r6, r7, r8, lr}
    8144:	e1a05000 	mov	r5, r0
    8148:	e3a03000 	mov	r3, #0
    814c:	ea000030 	b	8214 <check_mem+0xd4>
    8150:	e0814003 	add	r4, r1, r3
    8154:	e7d1c003 	ldrb	ip, [r1, r3]
    8158:	e35c00fe 	cmp	ip, #254	; 0xfe
    815c:	0a00002b 	beq	8210 <check_mem+0xd0>
    8160:	e28570b8 	add	r7, r5, #184	; 0xb8
    8164:	e0678004 	rsb	r8, r7, r4
    8168:	e59f60b4 	ldr	r6, [pc, #180]	; 8224 <check_mem+0xe4>
    816c:	e1a00006 	mov	r0, r6
    8170:	eb0003ea 	bl	9120 <printk>
    8174:	e59f00ac 	ldr	r0, [pc, #172]	; 8228 <check_mem+0xe8>
    8178:	eb0003e8 	bl	9120 <printk>
    817c:	e59f00a8 	ldr	r0, [pc, #168]	; 822c <check_mem+0xec>
    8180:	e1a01007 	mov	r1, r7
    8184:	e1a02008 	mov	r2, r8
    8188:	eb0003e4 	bl	9120 <printk>
    818c:	e1a00006 	mov	r0, r6
    8190:	eb0003e2 	bl	9120 <printk>
    8194:	e59f0094 	ldr	r0, [pc, #148]	; 8230 <check_mem+0xf0>
    8198:	e5951000 	ldr	r1, [r5]
    819c:	eb0003df 	bl	9120 <printk>
    81a0:	e5953010 	ldr	r3, [r5, #16]
    81a4:	e3530000 	cmp	r3, #0
    81a8:	0a000006 	beq	81c8 <check_mem+0x88>
    81ac:	e1a00006 	mov	r0, r6
    81b0:	eb0003da 	bl	9120 <printk>
    81b4:	e59f0078 	ldr	r0, [pc, #120]	; 8234 <check_mem+0xf4>
    81b8:	e5951010 	ldr	r1, [r5, #16]
    81bc:	e5952014 	ldr	r2, [r5, #20]
    81c0:	e5953018 	ldr	r3, [r5, #24]
    81c4:	eb0003d5 	bl	9120 <printk>
    81c8:	e5953008 	ldr	r3, [r5, #8]
    81cc:	e353000c 	cmp	r3, #12
    81d0:	1a000009 	bne	81fc <check_mem+0xbc>
    81d4:	e595301c 	ldr	r3, [r5, #28]
    81d8:	e3530000 	cmp	r3, #0
    81dc:	0a000006 	beq	81fc <check_mem+0xbc>
    81e0:	e59f003c 	ldr	r0, [pc, #60]	; 8224 <check_mem+0xe4>
    81e4:	eb0003cd 	bl	9120 <printk>
    81e8:	e59f0048 	ldr	r0, [pc, #72]	; 8238 <check_mem+0xf8>
    81ec:	e595101c 	ldr	r1, [r5, #28]
    81f0:	e5952020 	ldr	r2, [r5, #32]
    81f4:	e5953024 	ldr	r3, [r5, #36]	; 0x24
    81f8:	eb0003c8 	bl	9120 <printk>
    81fc:	e59f0038 	ldr	r0, [pc, #56]	; 823c <check_mem+0xfc>
    8200:	e5d41000 	ldrb	r1, [r4]
    8204:	eb0003c5 	bl	9120 <printk>
    8208:	e3a00000 	mov	r0, #0
    820c:	e8bd81f0 	pop	{r4, r5, r6, r7, r8, pc}
    8210:	e2833001 	add	r3, r3, #1
    8214:	e1530002 	cmp	r3, r2
    8218:	3affffcc 	bcc	8150 <check_mem+0x10>
    821c:	e3a00001 	mov	r0, #1
    8220:	e8bd81f0 	pop	{r4, r5, r6, r7, r8, pc}
    8224:	00009d14 	andeq	r9, r0, r4, lsl sp
    8228:	00009dd8 	ldrdeq	r9, [r0], -r8
    822c:	00009de0 	andeq	r9, r0, r0, ror #27
    8230:	00009e04 	andeq	r9, r0, r4, lsl #28
    8234:	00009e10 	andeq	r9, r0, r0, lsl lr
    8238:	00009e30 	andeq	r9, r0, r0, lsr lr
    823c:	00009e4c 	andeq	r9, r0, ip, asr #28

00008240 <mark_mem>:
    8240:	e92d4008 	push	{r3, lr}
    8244:	e1a02001 	mov	r2, r1
    8248:	e3a010fe 	mov	r1, #254	; 0xfe
    824c:	eb0003ab 	bl	9100 <memset>
    8250:	e8bd8008 	pop	{r3, pc}

00008254 <hdr_cksum>:
    8254:	e92d41f0 	push	{r4, r5, r6, r7, r8, lr}
    8258:	e1a04000 	mov	r4, r0
    825c:	e590800c 	ldr	r8, [r0, #12]
    8260:	e5907028 	ldr	r7, [r0, #40]	; 0x28
    8264:	e590602c 	ldr	r6, [r0, #44]	; 0x2c
    8268:	e1d053b4 	ldrh	r5, [r0, #52]	; 0x34
    826c:	e3a03000 	mov	r3, #0
    8270:	e580300c 	str	r3, [r0, #12]
    8274:	e5803028 	str	r3, [r0, #40]	; 0x28
    8278:	e580302c 	str	r3, [r0, #44]	; 0x2c
    827c:	e1c033b4 	strh	r3, [r0, #52]	; 0x34
    8280:	e3a01038 	mov	r1, #56	; 0x38
    8284:	eb000361 	bl	9010 <fast_hash>
    8288:	e584800c 	str	r8, [r4, #12]
    828c:	e5847028 	str	r7, [r4, #40]	; 0x28
    8290:	e584602c 	str	r6, [r4, #44]	; 0x2c
    8294:	e1c453b4 	strh	r5, [r4, #52]	; 0x34
    8298:	e8bd81f0 	pop	{r4, r5, r6, r7, r8, pc}

0000829c <check_hdr>:
    829c:	e92d4010 	push	{r4, lr}
    82a0:	e1a04000 	mov	r4, r0
    82a4:	ebffffea 	bl	8254 <hdr_cksum>
    82a8:	e594300c 	ldr	r3, [r4, #12]
    82ac:	e1530000 	cmp	r3, r0
    82b0:	0a000006 	beq	82d0 <check_hdr+0x34>
    82b4:	eb0003b4 	bl	918c <rpi_reset_putc>
    82b8:	e59f0044 	ldr	r0, [pc, #68]	; 8304 <check_hdr+0x68>
    82bc:	e59f1044 	ldr	r1, [pc, #68]	; 8308 <check_hdr+0x6c>
    82c0:	e59f2044 	ldr	r2, [pc, #68]	; 830c <check_hdr+0x70>
    82c4:	e3a0302f 	mov	r3, #47	; 0x2f
    82c8:	eb000394 	bl	9120 <printk>
    82cc:	eb000508 	bl	96f4 <clean_reboot>
    82d0:	e5943008 	ldr	r3, [r4, #8]
    82d4:	e243300b 	sub	r3, r3, #11
    82d8:	e3530001 	cmp	r3, #1
    82dc:	9a000006 	bls	82fc <check_hdr+0x60>
    82e0:	eb0003a9 	bl	918c <rpi_reset_putc>
    82e4:	e59f0024 	ldr	r0, [pc, #36]	; 8310 <check_hdr+0x74>
    82e8:	e59f1018 	ldr	r1, [pc, #24]	; 8308 <check_hdr+0x6c>
    82ec:	e59f2018 	ldr	r2, [pc, #24]	; 830c <check_hdr+0x70>
    82f0:	e3a03030 	mov	r3, #48	; 0x30
    82f4:	eb000389 	bl	9120 <printk>
    82f8:	eb0004fd 	bl	96f4 <clean_reboot>
    82fc:	e3a00001 	mov	r0, #1
    8300:	e8bd8010 	pop	{r4, pc}
    8304:	00009e58 	andeq	r9, r0, r8, asr lr
    8308:	00009e84 	andeq	r9, r0, r4, lsl #29
    830c:	00009d88 	andeq	r9, r0, r8, lsl #27
    8310:	00009e90 	muleq	r0, r0, lr

00008314 <check_block>:
    8314:	e92d4010 	push	{r4, lr}
    8318:	e1a04000 	mov	r4, r0
    831c:	ebffffde 	bl	829c <check_hdr>
    8320:	e3500000 	cmp	r0, #0
    8324:	0a000010 	beq	836c <check_block+0x58>
    8328:	e1a00004 	mov	r0, r4
    832c:	e2841038 	add	r1, r4, #56	; 0x38
    8330:	e3a02080 	mov	r2, #128	; 0x80
    8334:	ebffff81 	bl	8140 <check_mem>
    8338:	e3500000 	cmp	r0, #0
    833c:	0a00000c 	beq	8374 <check_block+0x60>
    8340:	e28410b8 	add	r1, r4, #184	; 0xb8
    8344:	e5943000 	ldr	r3, [r4]
    8348:	e5942004 	ldr	r2, [r4, #4]
    834c:	e1a00004 	mov	r0, r4
    8350:	e0811003 	add	r1, r1, r3
    8354:	e2822080 	add	r2, r2, #128	; 0x80
    8358:	ebffff78 	bl	8140 <check_mem>
    835c:	e3500000 	cmp	r0, #0
    8360:	0a000005 	beq	837c <check_block+0x68>
    8364:	e3a00001 	mov	r0, #1
    8368:	e8bd8010 	pop	{r4, pc}
    836c:	e3a00000 	mov	r0, #0
    8370:	e8bd8010 	pop	{r4, pc}
    8374:	e3a00000 	mov	r0, #0
    8378:	e8bd8010 	pop	{r4, pc}
    837c:	e3a00000 	mov	r0, #0
    8380:	e8bd8010 	pop	{r4, pc}

00008384 <ck_init>:
    8384:	e92d4038 	push	{r3, r4, r5, lr}
    8388:	e1a04000 	mov	r4, r0
    838c:	e1a05001 	mov	r5, r1
    8390:	e59f3060 	ldr	r3, [pc, #96]	; 83f8 <ck_init+0x74>
    8394:	e5933000 	ldr	r3, [r3]
    8398:	e3130007 	tst	r3, #7
    839c:	0a000006 	beq	83bc <ck_init+0x38>
    83a0:	eb000379 	bl	918c <rpi_reset_putc>
    83a4:	e59f0050 	ldr	r0, [pc, #80]	; 83fc <ck_init+0x78>
    83a8:	e59f1050 	ldr	r1, [pc, #80]	; 8400 <ck_init+0x7c>
    83ac:	e59f2050 	ldr	r2, [pc, #80]	; 8404 <ck_init+0x80>
    83b0:	e3a0300d 	mov	r3, #13
    83b4:	eb000359 	bl	9120 <printk>
    83b8:	eb0004cd 	bl	96f4 <clean_reboot>
    83bc:	e59f0044 	ldr	r0, [pc, #68]	; 8408 <ck_init+0x84>
    83c0:	e3a01038 	mov	r1, #56	; 0x38
    83c4:	e3a02080 	mov	r2, #128	; 0x80
    83c8:	eb000354 	bl	9120 <printk>
    83cc:	e59f3024 	ldr	r3, [pc, #36]	; 83f8 <ck_init+0x74>
    83d0:	e5834000 	str	r4, [r3]
    83d4:	e5834004 	str	r4, [r3, #4]
    83d8:	e0845005 	add	r5, r4, r5
    83dc:	e5835008 	str	r5, [r3, #8]
    83e0:	e583400c 	str	r4, [r3, #12]
    83e4:	e5834010 	str	r4, [r3, #16]
    83e8:	e3a02000 	mov	r2, #0
    83ec:	e5832014 	str	r2, [r3, #20]
    83f0:	e5832018 	str	r2, [r3, #24]
    83f4:	e8bd8038 	pop	{r3, r4, r5, pc}
    83f8:	0000a7e8 	andeq	sl, r0, r8, ror #15
    83fc:	00009ecc 	andeq	r9, r0, ip, asr #29
    8400:	00009e84 	andeq	r9, r0, r4, lsl #29
    8404:	00009d94 	muleq	r0, r4, sp
    8408:	00009ef4 	strdeq	r9, [r0], -r4

0000840c <ckfree>:
    840c:	e92d41f0 	push	{r4, r5, r6, r7, r8, lr}
    8410:	e1a04000 	mov	r4, r0
    8414:	e1a08001 	mov	r8, r1
    8418:	e1a07002 	mov	r7, r2
    841c:	e1a06003 	mov	r6, r3
    8420:	e59f009c 	ldr	r0, [pc, #156]	; 84c4 <ckfree+0xb8>
    8424:	e5900004 	ldr	r0, [r0, #4]
    8428:	e3500000 	cmp	r0, #0
    842c:	1a000006 	bne	844c <ckfree+0x40>
    8430:	eb000355 	bl	918c <rpi_reset_putc>
    8434:	e59f008c 	ldr	r0, [pc, #140]	; 84c8 <ckfree+0xbc>
    8438:	e59f108c 	ldr	r1, [pc, #140]	; 84cc <ckfree+0xc0>
    843c:	e59f208c 	ldr	r2, [pc, #140]	; 84d0 <ckfree+0xc4>
    8440:	e3a0305a 	mov	r3, #90	; 0x5a
    8444:	eb000335 	bl	9120 <printk>
    8448:	eb0004a9 	bl	96f4 <clean_reboot>
    844c:	e59f0080 	ldr	r0, [pc, #128]	; 84d4 <ckfree+0xc8>
    8450:	eb000332 	bl	9120 <printk>
    8454:	e59f007c 	ldr	r0, [pc, #124]	; 84d8 <ckfree+0xcc>
    8458:	e1a01004 	mov	r1, r4
    845c:	eb00032f 	bl	9120 <printk>
    8460:	e24450b8 	sub	r5, r4, #184	; 0xb8
    8464:	e1a00005 	mov	r0, r5
    8468:	ebffffa9 	bl	8314 <check_block>
    846c:	e3500000 	cmp	r0, #0
    8470:	08bd81f0 	popeq	{r4, r5, r6, r7, r8, pc}
    8474:	e51430b0 	ldr	r3, [r4, #-176]	; 0xb0
    8478:	e353000c 	cmp	r3, #12
    847c:	08bd81f0 	popeq	{r4, r5, r6, r7, r8, pc}
    8480:	e3a0300c 	mov	r3, #12
    8484:	e50430b0 	str	r3, [r4, #-176]	; 0xb0
    8488:	e1a00004 	mov	r0, r4
    848c:	e51410b8 	ldr	r1, [r4, #-184]	; 0xb8
    8490:	ebffff6a 	bl	8240 <mark_mem>
    8494:	e504809c 	str	r8, [r4, #-156]	; 0x9c
    8498:	e5047098 	str	r7, [r4, #-152]	; 0x98
    849c:	e5046094 	str	r6, [r4, #-148]	; 0x94
    84a0:	e51420b8 	ldr	r2, [r4, #-184]	; 0xb8
    84a4:	e59f3018 	ldr	r3, [pc, #24]	; 84c4 <ckfree+0xb8>
    84a8:	e5931014 	ldr	r1, [r3, #20]
    84ac:	e0812002 	add	r2, r1, r2
    84b0:	e5832014 	str	r2, [r3, #20]
    84b4:	e1a00005 	mov	r0, r5
    84b8:	ebffff65 	bl	8254 <hdr_cksum>
    84bc:	e50400ac 	str	r0, [r4, #-172]	; 0xac
    84c0:	e8bd81f0 	pop	{r4, r5, r6, r7, r8, pc}
    84c4:	0000a7e8 	andeq	sl, r0, r8, ror #15
    84c8:	00009f10 	andeq	r9, r0, r0, lsl pc
    84cc:	00009e84 	andeq	r9, r0, r4, lsl #29
    84d0:	00009d9c 	muleq	r0, ip, sp
    84d4:	00009d14 	andeq	r9, r0, r4, lsl sp
    84d8:	00009f44 	andeq	r9, r0, r4, asr #30

000084dc <ckalloc>:
    84dc:	e92d43f0 	push	{r4, r5, r6, r7, r8, r9, lr}
    84e0:	e24dd00c 	sub	sp, sp, #12
    84e4:	e1a05000 	mov	r5, r0
    84e8:	e1a09001 	mov	r9, r1
    84ec:	e1a08002 	mov	r8, r2
    84f0:	e1a07003 	mov	r7, r3
    84f4:	e59f31d4 	ldr	r3, [pc, #468]	; 86d0 <ckalloc+0x1f4>
    84f8:	e5933004 	ldr	r3, [r3, #4]
    84fc:	e3530000 	cmp	r3, #0
    8500:	1a000006 	bne	8520 <ckalloc+0x44>
    8504:	eb000320 	bl	918c <rpi_reset_putc>
    8508:	e59f01c4 	ldr	r0, [pc, #452]	; 86d4 <ckalloc+0x1f8>
    850c:	e59f11c4 	ldr	r1, [pc, #452]	; 86d8 <ckalloc+0x1fc>
    8510:	e59f21c4 	ldr	r2, [pc, #452]	; 86dc <ckalloc+0x200>
    8514:	e3a03078 	mov	r3, #120	; 0x78
    8518:	eb000300 	bl	9120 <printk>
    851c:	eb000474 	bl	96f4 <clean_reboot>
    8520:	e59f01b8 	ldr	r0, [pc, #440]	; 86e0 <ckalloc+0x204>
    8524:	eb0002fd 	bl	9120 <printk>
    8528:	e59f01b4 	ldr	r0, [pc, #436]	; 86e4 <ckalloc+0x208>
    852c:	e1a01005 	mov	r1, r5
    8530:	eb0002fa 	bl	9120 <printk>
    8534:	e2852007 	add	r2, r5, #7
    8538:	e3c22007 	bic	r2, r2, #7
    853c:	e2826f4e 	add	r6, r2, #312	; 0x138
    8540:	e1560005 	cmp	r6, r5
    8544:	2a00000c 	bcs	857c <ckalloc+0xa0>
    8548:	e59f0198 	ldr	r0, [pc, #408]	; 86e8 <ckalloc+0x20c>
    854c:	eb0002f3 	bl	9120 <printk>
    8550:	e59f0194 	ldr	r0, [pc, #404]	; 86ec <ckalloc+0x210>
    8554:	e1a01005 	mov	r1, r5
    8558:	eb0002f0 	bl	9120 <printk>
    855c:	eb00030a 	bl	918c <rpi_reset_putc>
    8560:	e58d5000 	str	r5, [sp]
    8564:	e59f0184 	ldr	r0, [pc, #388]	; 86f0 <ckalloc+0x214>
    8568:	e59f1168 	ldr	r1, [pc, #360]	; 86d8 <ckalloc+0x1fc>
    856c:	e59f2168 	ldr	r2, [pc, #360]	; 86dc <ckalloc+0x200>
    8570:	e3a03080 	mov	r3, #128	; 0x80
    8574:	eb0002e9 	bl	9120 <printk>
    8578:	eb00045d 	bl	96f4 <clean_reboot>
    857c:	e59f314c 	ldr	r3, [pc, #332]	; 86d0 <ckalloc+0x1f4>
    8580:	e5934004 	ldr	r4, [r3, #4]
    8584:	e084c006 	add	ip, r4, r6
    8588:	e5933008 	ldr	r3, [r3, #8]
    858c:	e15c0003 	cmp	ip, r3
    8590:	3a000014 	bcc	85e8 <ckalloc+0x10c>
    8594:	e59f014c 	ldr	r0, [pc, #332]	; 86e8 <ckalloc+0x20c>
    8598:	eb0002e0 	bl	9120 <printk>
    859c:	e59f412c 	ldr	r4, [pc, #300]	; 86d0 <ckalloc+0x1f4>
    85a0:	e5941008 	ldr	r1, [r4, #8]
    85a4:	e5943004 	ldr	r3, [r4, #4]
    85a8:	e59f0144 	ldr	r0, [pc, #324]	; 86f4 <ckalloc+0x218>
    85ac:	e0631001 	rsb	r1, r3, r1
    85b0:	e1a02006 	mov	r2, r6
    85b4:	eb0002d9 	bl	9120 <printk>
    85b8:	eb0002f3 	bl	918c <rpi_reset_putc>
    85bc:	e5942008 	ldr	r2, [r4, #8]
    85c0:	e5943004 	ldr	r3, [r4, #4]
    85c4:	e0633002 	rsb	r3, r3, r2
    85c8:	e58d3000 	str	r3, [sp]
    85cc:	e58d6004 	str	r6, [sp, #4]
    85d0:	e59f0120 	ldr	r0, [pc, #288]	; 86f8 <ckalloc+0x21c>
    85d4:	e59f10fc 	ldr	r1, [pc, #252]	; 86d8 <ckalloc+0x1fc>
    85d8:	e59f20fc 	ldr	r2, [pc, #252]	; 86dc <ckalloc+0x200>
    85dc:	e3a03084 	mov	r3, #132	; 0x84
    85e0:	eb0002ce 	bl	9120 <printk>
    85e4:	eb000442 	bl	96f4 <clean_reboot>
    85e8:	e59f00e0 	ldr	r0, [pc, #224]	; 86d0 <ckalloc+0x1f4>
    85ec:	e580c004 	str	ip, [r0, #4]
    85f0:	e5845000 	str	r5, [r4]
    85f4:	e0652002 	rsb	r2, r5, r2
    85f8:	e5842004 	str	r2, [r4, #4]
    85fc:	e3a0300b 	mov	r3, #11
    8600:	e5843008 	str	r3, [r4, #8]
    8604:	e5903018 	ldr	r3, [r0, #24]
    8608:	e0833005 	add	r3, r3, r5
    860c:	e5803018 	str	r3, [r0, #24]
    8610:	e580c010 	str	ip, [r0, #16]
    8614:	e5849010 	str	r9, [r4, #16]
    8618:	e5848014 	str	r8, [r4, #20]
    861c:	e5847018 	str	r7, [r4, #24]
    8620:	e1a00004 	mov	r0, r4
    8624:	ebffff0a 	bl	8254 <hdr_cksum>
    8628:	e584000c 	str	r0, [r4, #12]
    862c:	e2840038 	add	r0, r4, #56	; 0x38
    8630:	e3a01080 	mov	r1, #128	; 0x80
    8634:	ebffff01 	bl	8240 <mark_mem>
    8638:	e28470b8 	add	r7, r4, #184	; 0xb8
    863c:	e5940000 	ldr	r0, [r4]
    8640:	e5941004 	ldr	r1, [r4, #4]
    8644:	e0870000 	add	r0, r7, r0
    8648:	e2811080 	add	r1, r1, #128	; 0x80
    864c:	ebfffefb 	bl	8240 <mark_mem>
    8650:	e1a00004 	mov	r0, r4
    8654:	ebffff10 	bl	829c <check_hdr>
    8658:	e3500000 	cmp	r0, #0
    865c:	1a000006 	bne	867c <ckalloc+0x1a0>
    8660:	eb0002c9 	bl	918c <rpi_reset_putc>
    8664:	e59f0090 	ldr	r0, [pc, #144]	; 86fc <ckalloc+0x220>
    8668:	e59f1068 	ldr	r1, [pc, #104]	; 86d8 <ckalloc+0x1fc>
    866c:	e59f2068 	ldr	r2, [pc, #104]	; 86dc <ckalloc+0x200>
    8670:	e3a0309b 	mov	r3, #155	; 0x9b
    8674:	eb0002a9 	bl	9120 <printk>
    8678:	eb00041d 	bl	96f4 <clean_reboot>
    867c:	e1a00004 	mov	r0, r4
    8680:	ebffff23 	bl	8314 <check_block>
    8684:	e3500000 	cmp	r0, #0
    8688:	1a000006 	bne	86a8 <ckalloc+0x1cc>
    868c:	eb0002be 	bl	918c <rpi_reset_putc>
    8690:	e59f0068 	ldr	r0, [pc, #104]	; 8700 <ckalloc+0x224>
    8694:	e59f103c 	ldr	r1, [pc, #60]	; 86d8 <ckalloc+0x1fc>
    8698:	e59f203c 	ldr	r2, [pc, #60]	; 86dc <ckalloc+0x200>
    869c:	e3a0309c 	mov	r3, #156	; 0x9c
    86a0:	eb00029e 	bl	9120 <printk>
    86a4:	eb000412 	bl	96f4 <clean_reboot>
    86a8:	e59f0030 	ldr	r0, [pc, #48]	; 86e0 <ckalloc+0x204>
    86ac:	eb00029b 	bl	9120 <printk>
    86b0:	e59f004c 	ldr	r0, [pc, #76]	; 8704 <ckalloc+0x228>
    86b4:	e1a01005 	mov	r1, r5
    86b8:	e1a02006 	mov	r2, r6
    86bc:	e1a03007 	mov	r3, r7
    86c0:	eb000296 	bl	9120 <printk>
    86c4:	e1a00007 	mov	r0, r7
    86c8:	e28dd00c 	add	sp, sp, #12
    86cc:	e8bd83f0 	pop	{r4, r5, r6, r7, r8, r9, pc}
    86d0:	0000a7e8 	andeq	sl, r0, r8, ror #15
    86d4:	00009f10 	andeq	r9, r0, r0, lsl pc
    86d8:	00009e84 	andeq	r9, r0, r4, lsl #29
    86dc:	00009da4 	andeq	r9, r0, r4, lsr #27
    86e0:	00009d14 	andeq	r9, r0, r4, lsl sp
    86e4:	00009f50 	andeq	r9, r0, r0, asr pc
    86e8:	00009f68 	andeq	r9, r0, r8, ror #30
    86ec:	00009f74 	andeq	r9, r0, r4, ror pc
    86f0:	00009f9c 	muleq	r0, ip, pc	; <UNPREDICTABLE>
    86f4:	00009fd4 	ldrdeq	r9, [r0], -r4
    86f8:	0000a000 	andeq	sl, r0, r0
    86fc:	0000a03c 	andeq	sl, r0, ip, lsr r0
    8700:	0000a05c 	andeq	sl, r0, ip, asr r0
    8704:	0000a07c 	andeq	sl, r0, ip, ror r0

00008708 <ck_heap_errors>:
    8708:	e92d43f8 	push	{r3, r4, r5, r6, r7, r8, r9, lr}
    870c:	e59f413c 	ldr	r4, [pc, #316]	; 8850 <ck_heap_errors+0x148>
    8710:	e5943004 	ldr	r3, [r4, #4]
    8714:	e5946000 	ldr	r6, [r4]
    8718:	e0666003 	rsb	r6, r6, r3
    871c:	e5945008 	ldr	r5, [r4, #8]
    8720:	e0635005 	rsb	r5, r3, r5
    8724:	e59f0128 	ldr	r0, [pc, #296]	; 8854 <ck_heap_errors+0x14c>
    8728:	eb00027c 	bl	9120 <printk>
    872c:	e59f0124 	ldr	r0, [pc, #292]	; 8858 <ck_heap_errors+0x150>
    8730:	e1a01006 	mov	r1, r6
    8734:	e1a02005 	mov	r2, r5
    8738:	eb000278 	bl	9120 <printk>
    873c:	e5944000 	ldr	r4, [r4]
    8740:	e3a05000 	mov	r5, #0
    8744:	e1a06005 	mov	r6, r5
    8748:	e59f7100 	ldr	r7, [pc, #256]	; 8850 <ck_heap_errors+0x148>
    874c:	e59f9100 	ldr	r9, [pc, #256]	; 8854 <ck_heap_errors+0x14c>
    8750:	e59f8104 	ldr	r8, [pc, #260]	; 885c <ck_heap_errors+0x154>
    8754:	ea00002a 	b	8804 <ck_heap_errors+0xfc>
    8758:	e1540003 	cmp	r4, r3
    875c:	3a000006 	bcc	877c <ck_heap_errors+0x74>
    8760:	eb000289 	bl	918c <rpi_reset_putc>
    8764:	e59f00f4 	ldr	r0, [pc, #244]	; 8860 <ck_heap_errors+0x158>
    8768:	e59f10f4 	ldr	r1, [pc, #244]	; 8864 <ck_heap_errors+0x15c>
    876c:	e59f20f4 	ldr	r2, [pc, #244]	; 8868 <ck_heap_errors+0x160>
    8770:	e3a030af 	mov	r3, #175	; 0xaf
    8774:	eb000269 	bl	9120 <printk>
    8778:	eb0003dd 	bl	96f4 <clean_reboot>
    877c:	e1a00004 	mov	r0, r4
    8780:	ebfffec5 	bl	829c <check_hdr>
    8784:	e3500000 	cmp	r0, #0
    8788:	1a000005 	bne	87a4 <ck_heap_errors+0x9c>
    878c:	e59f00c0 	ldr	r0, [pc, #192]	; 8854 <ck_heap_errors+0x14c>
    8790:	eb000262 	bl	9120 <printk>
    8794:	e59f00d0 	ldr	r0, [pc, #208]	; 886c <ck_heap_errors+0x164>
    8798:	eb000260 	bl	9120 <printk>
    879c:	e2866001 	add	r6, r6, #1
    87a0:	ea00001a 	b	8810 <ck_heap_errors+0x108>
    87a4:	e1a00004 	mov	r0, r4
    87a8:	ebfffed9 	bl	8314 <check_block>
    87ac:	e3500000 	cmp	r0, #0
    87b0:	02866001 	addeq	r6, r6, #1
    87b4:	e5943008 	ldr	r3, [r4, #8]
    87b8:	e353000c 	cmp	r3, #12
    87bc:	1a00000a 	bne	87ec <ck_heap_errors+0xe4>
    87c0:	e1a00004 	mov	r0, r4
    87c4:	e28410b8 	add	r1, r4, #184	; 0xb8
    87c8:	e5942000 	ldr	r2, [r4]
    87cc:	ebfffe5b 	bl	8140 <check_mem>
    87d0:	e3500000 	cmp	r0, #0
    87d4:	1a000004 	bne	87ec <ck_heap_errors+0xe4>
    87d8:	e1a00009 	mov	r0, r9
    87dc:	eb00024f 	bl	9120 <printk>
    87e0:	e1a00008 	mov	r0, r8
    87e4:	eb00024d 	bl	9120 <printk>
    87e8:	e2866001 	add	r6, r6, #1
    87ec:	e5942000 	ldr	r2, [r4]
    87f0:	e5943004 	ldr	r3, [r4, #4]
    87f4:	e0823003 	add	r3, r2, r3
    87f8:	e2833f4e 	add	r3, r3, #312	; 0x138
    87fc:	e0844003 	add	r4, r4, r3
    8800:	e2855001 	add	r5, r5, #1
    8804:	e5973004 	ldr	r3, [r7, #4]
    8808:	e1530004 	cmp	r3, r4
    880c:	1affffd1 	bne	8758 <ck_heap_errors+0x50>
    8810:	e3560000 	cmp	r6, #0
    8814:	0a000006 	beq	8834 <ck_heap_errors+0x12c>
    8818:	e59f0034 	ldr	r0, [pc, #52]	; 8854 <ck_heap_errors+0x14c>
    881c:	eb00023f 	bl	9120 <printk>
    8820:	e59f0048 	ldr	r0, [pc, #72]	; 8870 <ck_heap_errors+0x168>
    8824:	e1a01005 	mov	r1, r5
    8828:	e1a02006 	mov	r2, r6
    882c:	eb00023b 	bl	9120 <printk>
    8830:	ea000004 	b	8848 <ck_heap_errors+0x140>
    8834:	e59f0018 	ldr	r0, [pc, #24]	; 8854 <ck_heap_errors+0x14c>
    8838:	eb000238 	bl	9120 <printk>
    883c:	e59f0030 	ldr	r0, [pc, #48]	; 8874 <ck_heap_errors+0x16c>
    8840:	e1a01005 	mov	r1, r5
    8844:	eb000235 	bl	9120 <printk>
    8848:	e1a00006 	mov	r0, r6
    884c:	e8bd83f8 	pop	{r3, r4, r5, r6, r7, r8, r9, pc}
    8850:	0000a7e8 	andeq	sl, r0, r8, ror #15
    8854:	00009d14 	andeq	r9, r0, r4, lsl sp
    8858:	0000a0ac 	andeq	sl, r0, ip, lsr #1
    885c:	0000a11c 	andeq	sl, r0, ip, lsl r1
    8860:	0000a0e4 	andeq	sl, r0, r4, ror #1
    8864:	00009e84 	andeq	r9, r0, r4, lsl #29
    8868:	00009dac 	andeq	r9, r0, ip, lsr #27
    886c:	0000a108 	andeq	sl, r0, r8, lsl #2
    8870:	0000a138 	andeq	sl, r0, r8, lsr r1
    8874:	0000a160 	andeq	sl, r0, r0, ror #2

00008878 <ck_first_hdr>:
    8878:	e92d4010 	push	{r4, lr}
    887c:	e59f3034 	ldr	r3, [pc, #52]	; 88b8 <ck_first_hdr+0x40>
    8880:	e5934000 	ldr	r4, [r3]
    8884:	e1a00004 	mov	r0, r4
    8888:	ebfffe83 	bl	829c <check_hdr>
    888c:	e3500000 	cmp	r0, #0
    8890:	1a000006 	bne	88b0 <ck_first_hdr+0x38>
    8894:	eb00023c 	bl	918c <rpi_reset_putc>
    8898:	e59f001c 	ldr	r0, [pc, #28]	; 88bc <ck_first_hdr+0x44>
    889c:	e59f101c 	ldr	r1, [pc, #28]	; 88c0 <ck_first_hdr+0x48>
    88a0:	e59f201c 	ldr	r2, [pc, #28]	; 88c4 <ck_first_hdr+0x4c>
    88a4:	e3a030d2 	mov	r3, #210	; 0xd2
    88a8:	eb00021c 	bl	9120 <printk>
    88ac:	eb000390 	bl	96f4 <clean_reboot>
    88b0:	e1a00004 	mov	r0, r4
    88b4:	e8bd8010 	pop	{r4, pc}
    88b8:	0000a7e8 	andeq	sl, r0, r8, ror #15
    88bc:	0000a190 	muleq	r0, r0, r1
    88c0:	00009e84 	andeq	r9, r0, r4, lsl #29
    88c4:	00009dbc 			; <UNDEFINED> instruction: 0x00009dbc

000088c8 <ck_next_hdr>:
    88c8:	e92d4010 	push	{r4, lr}
    88cc:	e5904000 	ldr	r4, [r0]
    88d0:	e5903004 	ldr	r3, [r0, #4]
    88d4:	e0844003 	add	r4, r4, r3
    88d8:	e2844f4e 	add	r4, r4, #312	; 0x138
    88dc:	e0804004 	add	r4, r0, r4
    88e0:	e59f3064 	ldr	r3, [pc, #100]	; 894c <ck_next_hdr+0x84>
    88e4:	e5933004 	ldr	r3, [r3, #4]
    88e8:	e1540003 	cmp	r4, r3
    88ec:	0a000012 	beq	893c <ck_next_hdr+0x74>
    88f0:	3a000006 	bcc	8910 <ck_next_hdr+0x48>
    88f4:	eb000224 	bl	918c <rpi_reset_putc>
    88f8:	e59f0050 	ldr	r0, [pc, #80]	; 8950 <ck_next_hdr+0x88>
    88fc:	e59f1050 	ldr	r1, [pc, #80]	; 8954 <ck_next_hdr+0x8c>
    8900:	e59f2050 	ldr	r2, [pc, #80]	; 8958 <ck_next_hdr+0x90>
    8904:	e3a030e1 	mov	r3, #225	; 0xe1
    8908:	eb000204 	bl	9120 <printk>
    890c:	eb000378 	bl	96f4 <clean_reboot>
    8910:	e1a00004 	mov	r0, r4
    8914:	ebfffe60 	bl	829c <check_hdr>
    8918:	e3500000 	cmp	r0, #0
    891c:	1a000008 	bne	8944 <ck_next_hdr+0x7c>
    8920:	eb000219 	bl	918c <rpi_reset_putc>
    8924:	e59f0030 	ldr	r0, [pc, #48]	; 895c <ck_next_hdr+0x94>
    8928:	e59f1024 	ldr	r1, [pc, #36]	; 8954 <ck_next_hdr+0x8c>
    892c:	e59f2024 	ldr	r2, [pc, #36]	; 8958 <ck_next_hdr+0x90>
    8930:	e3a030e2 	mov	r3, #226	; 0xe2
    8934:	eb0001f9 	bl	9120 <printk>
    8938:	eb00036d 	bl	96f4 <clean_reboot>
    893c:	e3a00000 	mov	r0, #0
    8940:	e8bd8010 	pop	{r4, pc}
    8944:	e1a00004 	mov	r0, r4
    8948:	e8bd8010 	pop	{r4, pc}
    894c:	0000a7e8 	andeq	sl, r0, r8, ror #15
    8950:	0000a1b4 			; <UNDEFINED> instruction: 0x0000a1b4
    8954:	00009e84 	andeq	r9, r0, r4, lsl #29
    8958:	00009dcc 	andeq	r9, r0, ip, asr #27
    895c:	0000a1e0 	andeq	sl, r0, r0, ror #3

00008960 <heap_info>:
    8960:	e1a0c000 	mov	ip, r0
    8964:	e59f300c 	ldr	r3, [pc, #12]	; 8978 <heap_info+0x18>
    8968:	e893000f 	ldm	r3, {r0, r1, r2, r3}
    896c:	e88c000f 	stm	ip, {r0, r1, r2, r3}
    8970:	e1a0000c 	mov	r0, ip
    8974:	e12fff1e 	bx	lr
    8978:	0000a7f4 	strdeq	sl, [r0], -r4

0000897c <in_heap>:
    897c:	e59f3030 	ldr	r3, [pc, #48]	; 89b4 <in_heap+0x38>
    8980:	e5933000 	ldr	r3, [r3]
    8984:	e1530000 	cmp	r3, r0
    8988:	8a000005 	bhi	89a4 <in_heap+0x28>
    898c:	e59f3020 	ldr	r3, [pc, #32]	; 89b4 <in_heap+0x38>
    8990:	e5933004 	ldr	r3, [r3, #4]
    8994:	e1530000 	cmp	r3, r0
    8998:	2a000003 	bcs	89ac <in_heap+0x30>
    899c:	e3a00000 	mov	r0, #0
    89a0:	e12fff1e 	bx	lr
    89a4:	e3a00000 	mov	r0, #0
    89a8:	e12fff1e 	bx	lr
    89ac:	e3a00001 	mov	r0, #1
    89b0:	e12fff1e 	bx	lr
    89b4:	0000a804 	andeq	sl, r0, r4, lsl #16

000089b8 <is_ptr>:
    89b8:	e92d4010 	push	{r4, lr}
    89bc:	e1a04000 	mov	r4, r0
    89c0:	ebffffed 	bl	897c <in_heap>
    89c4:	e3500000 	cmp	r0, #0
    89c8:	0a000016 	beq	8a28 <is_ptr+0x70>
    89cc:	ebffffa9 	bl	8878 <ck_first_hdr>
    89d0:	ea000011 	b	8a1c <is_ptr+0x64>
    89d4:	e28030b8 	add	r3, r0, #184	; 0xb8
    89d8:	e1530004 	cmp	r3, r4
    89dc:	1a000003 	bne	89f0 <is_ptr+0x38>
    89e0:	e5903028 	ldr	r3, [r0, #40]	; 0x28
    89e4:	e2833001 	add	r3, r3, #1
    89e8:	e5803028 	str	r3, [r0, #40]	; 0x28
    89ec:	e8bd8010 	pop	{r4, pc}
    89f0:	e1540003 	cmp	r4, r3
    89f4:	9a000007 	bls	8a18 <is_ptr+0x60>
    89f8:	e5902000 	ldr	r2, [r0]
    89fc:	e0833002 	add	r3, r3, r2
    8a00:	e1530004 	cmp	r3, r4
    8a04:	3a000003 	bcc	8a18 <is_ptr+0x60>
    8a08:	e590302c 	ldr	r3, [r0, #44]	; 0x2c
    8a0c:	e2833001 	add	r3, r3, #1
    8a10:	e580302c 	str	r3, [r0, #44]	; 0x2c
    8a14:	e8bd8010 	pop	{r4, pc}
    8a18:	ebffffaa 	bl	88c8 <ck_next_hdr>
    8a1c:	e3500000 	cmp	r0, #0
    8a20:	1affffeb 	bne	89d4 <is_ptr+0x1c>
    8a24:	e8bd8010 	pop	{r4, pc}
    8a28:	e3a00000 	mov	r0, #0
    8a2c:	e8bd8010 	pop	{r4, pc}

00008a30 <sweep_leak>:
    8a30:	e92d4ff8 	push	{r3, r4, r5, r6, r7, r8, r9, sl, fp, lr}
    8a34:	e1a09000 	mov	r9, r0
    8a38:	e59f0100 	ldr	r0, [pc, #256]	; 8b40 <sweep_leak+0x110>
    8a3c:	eb0001b7 	bl	9120 <printk>
    8a40:	e59f00fc 	ldr	r0, [pc, #252]	; 8b44 <sweep_leak+0x114>
    8a44:	eb0001b5 	bl	9120 <printk>
    8a48:	ebffff8a 	bl	8878 <ck_first_hdr>
    8a4c:	e1a04000 	mov	r4, r0
    8a50:	e3a06000 	mov	r6, #0
    8a54:	e1a07006 	mov	r7, r6
    8a58:	e1a05006 	mov	r5, r6
    8a5c:	e1a08006 	mov	r8, r6
    8a60:	e59fa0e0 	ldr	sl, [pc, #224]	; 8b48 <sweep_leak+0x118>
    8a64:	e59fb0e0 	ldr	fp, [pc, #224]	; 8b4c <sweep_leak+0x11c>
    8a68:	ea00001c 	b	8ae0 <sweep_leak+0xb0>
    8a6c:	e5943008 	ldr	r3, [r4, #8]
    8a70:	e353000b 	cmp	r3, #11
    8a74:	1a000015 	bne	8ad0 <sweep_leak+0xa0>
    8a78:	e1d433b4 	ldrh	r3, [r4, #52]	; 0x34
    8a7c:	e3530000 	cmp	r3, #0
    8a80:	1a000006 	bne	8aa0 <sweep_leak+0x70>
    8a84:	e1a0000a 	mov	r0, sl
    8a88:	eb0001a4 	bl	9120 <printk>
    8a8c:	e1a0000b 	mov	r0, fp
    8a90:	e28410b8 	add	r1, r4, #184	; 0xb8
    8a94:	eb0001a1 	bl	9120 <printk>
    8a98:	e2877001 	add	r7, r7, #1
    8a9c:	ea00000b 	b	8ad0 <sweep_leak+0xa0>
    8aa0:	e1c483b4 	strh	r8, [r4, #52]	; 0x34
    8aa4:	e3590000 	cmp	r9, #0
    8aa8:	0a000008 	beq	8ad0 <sweep_leak+0xa0>
    8aac:	e5943028 	ldr	r3, [r4, #40]	; 0x28
    8ab0:	e3530000 	cmp	r3, #0
    8ab4:	1a000005 	bne	8ad0 <sweep_leak+0xa0>
    8ab8:	e1a0000a 	mov	r0, sl
    8abc:	eb000197 	bl	9120 <printk>
    8ac0:	e59f0088 	ldr	r0, [pc, #136]	; 8b50 <sweep_leak+0x120>
    8ac4:	e28410b8 	add	r1, r4, #184	; 0xb8
    8ac8:	eb000194 	bl	9120 <printk>
    8acc:	e2866001 	add	r6, r6, #1
    8ad0:	e2855001 	add	r5, r5, #1
    8ad4:	e1a00004 	mov	r0, r4
    8ad8:	ebffff7a 	bl	88c8 <ck_next_hdr>
    8adc:	e1a04000 	mov	r4, r0
    8ae0:	e3540000 	cmp	r4, #0
    8ae4:	1affffe0 	bne	8a6c <sweep_leak+0x3c>
    8ae8:	e59f0058 	ldr	r0, [pc, #88]	; 8b48 <sweep_leak+0x118>
    8aec:	eb00018b 	bl	9120 <printk>
    8af0:	e59f005c 	ldr	r0, [pc, #92]	; 8b54 <sweep_leak+0x124>
    8af4:	e1a01005 	mov	r1, r5
    8af8:	eb000188 	bl	9120 <printk>
    8afc:	e1973006 	orrs	r3, r7, r6
    8b00:	1a000004 	bne	8b18 <sweep_leak+0xe8>
    8b04:	e59f003c 	ldr	r0, [pc, #60]	; 8b48 <sweep_leak+0x118>
    8b08:	eb000184 	bl	9120 <printk>
    8b0c:	e59f0044 	ldr	r0, [pc, #68]	; 8b58 <sweep_leak+0x128>
    8b10:	eb000182 	bl	9120 <printk>
    8b14:	ea000005 	b	8b30 <sweep_leak+0x100>
    8b18:	e59f0028 	ldr	r0, [pc, #40]	; 8b48 <sweep_leak+0x118>
    8b1c:	eb00017f 	bl	9120 <printk>
    8b20:	e59f0034 	ldr	r0, [pc, #52]	; 8b5c <sweep_leak+0x12c>
    8b24:	e1a01007 	mov	r1, r7
    8b28:	e1a02006 	mov	r2, r6
    8b2c:	eb00017b 	bl	9120 <printk>
    8b30:	e59f0028 	ldr	r0, [pc, #40]	; 8b60 <sweep_leak+0x130>
    8b34:	eb000179 	bl	9120 <printk>
    8b38:	e0870006 	add	r0, r7, r6
    8b3c:	e8bd8ff8 	pop	{r3, r4, r5, r6, r7, r8, r9, sl, fp, pc}
    8b40:	0000a258 	andeq	sl, r0, r8, asr r2
    8b44:	0000a294 	muleq	r0, r4, r2
    8b48:	00009d14 	andeq	r9, r0, r4, lsl sp
    8b4c:	0000a2ac 	andeq	sl, r0, ip, lsr #5
    8b50:	0000a2cc 	andeq	sl, r0, ip, asr #5
    8b54:	0000a304 	andeq	sl, r0, r4, lsl #6
    8b58:	0000a31c 	andeq	sl, r0, ip, lsl r3
    8b5c:	0000a33c 	andeq	sl, r0, ip, lsr r3
    8b60:	0000a368 	andeq	sl, r0, r8, ror #6

00008b64 <mark>:
    8b64:	e92d4070 	push	{r4, r5, r6, lr}
    8b68:	e1a04000 	mov	r4, r0
    8b6c:	e1a05001 	mov	r5, r1
    8b70:	e1500001 	cmp	r0, r1
    8b74:	3a000006 	bcc	8b94 <mark+0x30>
    8b78:	eb000183 	bl	918c <rpi_reset_putc>
    8b7c:	e59f00c4 	ldr	r0, [pc, #196]	; 8c48 <mark+0xe4>
    8b80:	e59f10c4 	ldr	r1, [pc, #196]	; 8c4c <mark+0xe8>
    8b84:	e59f20c4 	ldr	r2, [pc, #196]	; 8c50 <mark+0xec>
    8b88:	e3a0305b 	mov	r3, #91	; 0x5b
    8b8c:	eb000163 	bl	9120 <printk>
    8b90:	eb0002d7 	bl	96f4 <clean_reboot>
    8b94:	e3100003 	tst	r0, #3
    8b98:	0a000006 	beq	8bb8 <mark+0x54>
    8b9c:	eb00017a 	bl	918c <rpi_reset_putc>
    8ba0:	e59f00ac 	ldr	r0, [pc, #172]	; 8c54 <mark+0xf0>
    8ba4:	e59f10a0 	ldr	r1, [pc, #160]	; 8c4c <mark+0xe8>
    8ba8:	e59f20a0 	ldr	r2, [pc, #160]	; 8c50 <mark+0xec>
    8bac:	e3a0305d 	mov	r3, #93	; 0x5d
    8bb0:	eb00015a 	bl	9120 <printk>
    8bb4:	eb0002ce 	bl	96f4 <clean_reboot>
    8bb8:	e3110003 	tst	r1, #3
    8bbc:	0a00001d 	beq	8c38 <mark+0xd4>
    8bc0:	eb000171 	bl	918c <rpi_reset_putc>
    8bc4:	e59f008c 	ldr	r0, [pc, #140]	; 8c58 <mark+0xf4>
    8bc8:	e59f107c 	ldr	r1, [pc, #124]	; 8c4c <mark+0xe8>
    8bcc:	e59f207c 	ldr	r2, [pc, #124]	; 8c50 <mark+0xec>
    8bd0:	e3a0305e 	mov	r3, #94	; 0x5e
    8bd4:	eb000151 	bl	9120 <printk>
    8bd8:	eb0002c5 	bl	96f4 <clean_reboot>
    8bdc:	e5940000 	ldr	r0, [r4]
    8be0:	ebffff74 	bl	89b8 <is_ptr>
    8be4:	e2503000 	subs	r3, r0, #0
    8be8:	0a000010 	beq	8c30 <mark+0xcc>
    8bec:	e5940000 	ldr	r0, [r4]
    8bf0:	e28320b8 	add	r2, r3, #184	; 0xb8
    8bf4:	e1500002 	cmp	r0, r2
    8bf8:	05931028 	ldreq	r1, [r3, #40]	; 0x28
    8bfc:	02811001 	addeq	r1, r1, #1
    8c00:	05831028 	streq	r1, [r3, #40]	; 0x28
    8c04:	1593102c 	ldrne	r1, [r3, #44]	; 0x2c
    8c08:	12811001 	addne	r1, r1, #1
    8c0c:	1583102c 	strne	r1, [r3, #44]	; 0x2c
    8c10:	e1d303b4 	ldrh	r0, [r3, #52]	; 0x34
    8c14:	e3500000 	cmp	r0, #0
    8c18:	1a000004 	bne	8c30 <mark+0xcc>
    8c1c:	e1c363b4 	strh	r6, [r3, #52]	; 0x34
    8c20:	e5931000 	ldr	r1, [r3]
    8c24:	e1a00002 	mov	r0, r2
    8c28:	e0821001 	add	r1, r2, r1
    8c2c:	ebffffcc 	bl	8b64 <mark>
    8c30:	e2844004 	add	r4, r4, #4
    8c34:	ea000000 	b	8c3c <mark+0xd8>
    8c38:	e3a06001 	mov	r6, #1
    8c3c:	e1540005 	cmp	r4, r5
    8c40:	1affffe5 	bne	8bdc <mark+0x78>
    8c44:	e8bd8070 	pop	{r4, r5, r6, pc}
    8c48:	0000a3a4 	andeq	sl, r0, r4, lsr #7
    8c4c:	0000a3b8 			; <UNDEFINED> instruction: 0x0000a3b8
    8c50:	0000a204 	andeq	sl, r0, r4, lsl #4
    8c54:	0000a3c0 	andeq	sl, r0, r0, asr #7
    8c58:	0000a3e0 	andeq	sl, r0, r0, ror #7

00008c5c <mark_all>:
    8c5c:	e92d4010 	push	{r4, lr}
    8c60:	e24dd050 	sub	sp, sp, #80	; 0x50
    8c64:	ebffff03 	bl	8878 <ck_first_hdr>
    8c68:	e3a04000 	mov	r4, #0
    8c6c:	ea000003 	b	8c80 <mark_all+0x24>
    8c70:	e580402c 	str	r4, [r0, #44]	; 0x2c
    8c74:	e5804028 	str	r4, [r0, #40]	; 0x28
    8c78:	e1c043b4 	strh	r4, [r0, #52]	; 0x34
    8c7c:	ebffff11 	bl	88c8 <ck_next_hdr>
    8c80:	e3500000 	cmp	r0, #0
    8c84:	1afffff9 	bne	8c70 <mark_all+0x14>
    8c88:	e28d4040 	add	r4, sp, #64	; 0x40
    8c8c:	e1a00004 	mov	r0, r4
    8c90:	ebffff32 	bl	8960 <heap_info>
    8c94:	e59fc094 	ldr	ip, [pc, #148]	; 8d30 <mark_all+0xd4>
    8c98:	e894000f 	ldm	r4, {r0, r1, r2, r3}
    8c9c:	e88c000f 	stm	ip, {r0, r1, r2, r3}
    8ca0:	e1a0400d 	mov	r4, sp
    8ca4:	e1a0000d 	mov	r0, sp
    8ca8:	eb0000d6 	bl	9008 <dump_regs>
    8cac:	e59d3000 	ldr	r3, [sp]
    8cb0:	e1530004 	cmp	r3, r4
    8cb4:	0a00000b 	beq	8ce8 <mark_all+0x8c>
    8cb8:	eb000133 	bl	918c <rpi_reset_putc>
    8cbc:	e59f0070 	ldr	r0, [pc, #112]	; 8d34 <mark_all+0xd8>
    8cc0:	e59f1070 	ldr	r1, [pc, #112]	; 8d38 <mark_all+0xdc>
    8cc4:	e59f2070 	ldr	r2, [pc, #112]	; 8d3c <mark_all+0xe0>
    8cc8:	e3a030df 	mov	r3, #223	; 0xdf
    8ccc:	eb000113 	bl	9120 <printk>
    8cd0:	eb000287 	bl	96f4 <clean_reboot>
    8cd4:	e28d0050 	add	r0, sp, #80	; 0x50
    8cd8:	e0802103 	add	r2, r0, r3, lsl #2
    8cdc:	e5021050 	str	r1, [r2, #-80]	; 0x50
    8ce0:	e2833001 	add	r3, r3, #1
    8ce4:	ea000001 	b	8cf0 <mark_all+0x94>
    8ce8:	e3a03000 	mov	r3, #0
    8cec:	e1a01003 	mov	r1, r3
    8cf0:	e3530003 	cmp	r3, #3
    8cf4:	dafffff6 	ble	8cd4 <mark_all+0x78>
    8cf8:	e28d0010 	add	r0, sp, #16
    8cfc:	e28d1038 	add	r1, sp, #56	; 0x38
    8d00:	ebffff97 	bl	8b64 <mark>
    8d04:	e59d0034 	ldr	r0, [sp, #52]	; 0x34
    8d08:	e3a01302 	mov	r1, #134217728	; 0x8000000
    8d0c:	ebffff94 	bl	8b64 <mark>
    8d10:	e59f0028 	ldr	r0, [pc, #40]	; 8d40 <mark_all+0xe4>
    8d14:	e59f1028 	ldr	r1, [pc, #40]	; 8d44 <mark_all+0xe8>
    8d18:	ebffff91 	bl	8b64 <mark>
    8d1c:	e59f0024 	ldr	r0, [pc, #36]	; 8d48 <mark_all+0xec>
    8d20:	e59f1024 	ldr	r1, [pc, #36]	; 8d4c <mark_all+0xf0>
    8d24:	ebffff8e 	bl	8b64 <mark>
    8d28:	e28dd050 	add	sp, sp, #80	; 0x50
    8d2c:	e8bd8010 	pop	{r4, pc}
    8d30:	0000a804 	andeq	sl, r0, r4, lsl #16
    8d34:	0000a400 	andeq	sl, r0, r0, lsl #8
    8d38:	0000a3b8 			; <UNDEFINED> instruction: 0x0000a3b8
    8d3c:	0000a20c 	andeq	sl, r0, ip, lsl #4
    8d40:	0000a7e8 	andeq	sl, r0, r8, ror #15
    8d44:	0000ac18 	andeq	sl, r0, r8, lsl ip
    8d48:	00009ce0 	andeq	r9, r0, r0, ror #25
    8d4c:	00009cf0 	strdeq	r9, [r0], -r0

00008d50 <sweep_free>:
    8d50:	e92d4ff0 	push	{r4, r5, r6, r7, r8, r9, sl, fp, lr}
    8d54:	e24dd014 	sub	sp, sp, #20
    8d58:	e59f00e8 	ldr	r0, [pc, #232]	; 8e48 <sweep_free+0xf8>
    8d5c:	eb0000ef 	bl	9120 <printk>
    8d60:	e59f00e4 	ldr	r0, [pc, #228]	; 8e4c <sweep_free+0xfc>
    8d64:	eb0000ed 	bl	9120 <printk>
    8d68:	ebfffec2 	bl	8878 <ck_first_hdr>
    8d6c:	e1a04000 	mov	r4, r0
    8d70:	e3a06000 	mov	r6, #0
    8d74:	e1a08006 	mov	r8, r6
    8d78:	e1a05006 	mov	r5, r6
    8d7c:	e59fb0cc 	ldr	fp, [pc, #204]	; 8e50 <sweep_free+0x100>
    8d80:	e59fa0cc 	ldr	sl, [pc, #204]	; 8e54 <sweep_free+0x104>
    8d84:	e59f90cc 	ldr	r9, [pc, #204]	; 8e58 <sweep_free+0x108>
    8d88:	ea000017 	b	8dec <sweep_free+0x9c>
    8d8c:	e5943008 	ldr	r3, [r4, #8]
    8d90:	e353000b 	cmp	r3, #11
    8d94:	1a000010 	bne	8ddc <sweep_free+0x8c>
    8d98:	e1d433b4 	ldrh	r3, [r4, #52]	; 0x34
    8d9c:	e3530000 	cmp	r3, #0
    8da0:	1a00000d 	bne	8ddc <sweep_free+0x8c>
    8da4:	e1a07004 	mov	r7, r4
    8da8:	e49730b8 	ldr	r3, [r7], #184	; 0xb8
    8dac:	e0866003 	add	r6, r6, r3
    8db0:	e2888001 	add	r8, r8, #1
    8db4:	e1a0000b 	mov	r0, fp
    8db8:	eb0000d8 	bl	9120 <printk>
    8dbc:	e1a0000a 	mov	r0, sl
    8dc0:	e1a01007 	mov	r1, r7
    8dc4:	eb0000d5 	bl	9120 <printk>
    8dc8:	e1a00007 	mov	r0, r7
    8dcc:	e1a01009 	mov	r1, r9
    8dd0:	e59f2084 	ldr	r2, [pc, #132]	; 8e5c <sweep_free+0x10c>
    8dd4:	e59f3084 	ldr	r3, [pc, #132]	; 8e60 <sweep_free+0x110>
    8dd8:	ebfffd8b 	bl	840c <ckfree>
    8ddc:	e2855001 	add	r5, r5, #1
    8de0:	e1a00004 	mov	r0, r4
    8de4:	ebfffeb7 	bl	88c8 <ck_next_hdr>
    8de8:	e1a04000 	mov	r4, r0
    8dec:	e3540000 	cmp	r4, #0
    8df0:	1affffe5 	bne	8d8c <sweep_free+0x3c>
    8df4:	e59f4054 	ldr	r4, [pc, #84]	; 8e50 <sweep_free+0x100>
    8df8:	e1a00004 	mov	r0, r4
    8dfc:	eb0000c7 	bl	9120 <printk>
    8e00:	e59f005c 	ldr	r0, [pc, #92]	; 8e64 <sweep_free+0x114>
    8e04:	e1a01005 	mov	r1, r5
    8e08:	e1a02008 	mov	r2, r8
    8e0c:	e1a03006 	mov	r3, r6
    8e10:	eb0000c2 	bl	9120 <printk>
    8e14:	e1a0000d 	mov	r0, sp
    8e18:	ebfffed0 	bl	8960 <heap_info>
    8e1c:	e1a00004 	mov	r0, r4
    8e20:	eb0000be 	bl	9120 <printk>
    8e24:	e59f003c 	ldr	r0, [pc, #60]	; 8e68 <sweep_free+0x118>
    8e28:	e59d100c 	ldr	r1, [sp, #12]
    8e2c:	e59d2008 	ldr	r2, [sp, #8]
    8e30:	eb0000ba 	bl	9120 <printk>
    8e34:	e59f0030 	ldr	r0, [pc, #48]	; 8e6c <sweep_free+0x11c>
    8e38:	eb0000b8 	bl	9120 <printk>
    8e3c:	e1a00006 	mov	r0, r6
    8e40:	e28dd014 	add	sp, sp, #20
    8e44:	e8bd8ff0 	pop	{r4, r5, r6, r7, r8, r9, sl, fp, pc}
    8e48:	0000a258 	andeq	sl, r0, r8, asr r2
    8e4c:	0000a430 	andeq	sl, r0, r0, lsr r4
    8e50:	00009d14 	andeq	r9, r0, r4, lsl sp
    8e54:	0000a440 	andeq	sl, r0, r0, asr #8
    8e58:	0000a3b8 			; <UNDEFINED> instruction: 0x0000a3b8
    8e5c:	0000a218 	andeq	sl, r0, r8, lsl r2
    8e60:	0000013a 	andeq	r0, r0, sl, lsr r1
    8e64:	0000a454 	andeq	sl, r0, r4, asr r4
    8e68:	0000a480 	andeq	sl, r0, r0, lsl #9
    8e6c:	0000a368 	andeq	sl, r0, r8, ror #6

00008e70 <ck_find_leaks>:
    8e70:	e92d4010 	push	{r4, lr}
    8e74:	e1a04000 	mov	r4, r0
    8e78:	ebffff77 	bl	8c5c <mark_all>
    8e7c:	e1a00004 	mov	r0, r4
    8e80:	ebfffeea 	bl	8a30 <sweep_leak>
    8e84:	e8bd8010 	pop	{r4, pc}

00008e88 <check_no_leak>:
    8e88:	e92d4008 	push	{r3, lr}
    8e8c:	ebfffe1d 	bl	8708 <ck_heap_errors>
    8e90:	e3500000 	cmp	r0, #0
    8e94:	0a000006 	beq	8eb4 <check_no_leak+0x2c>
    8e98:	eb0000bb 	bl	918c <rpi_reset_putc>
    8e9c:	e59f0060 	ldr	r0, [pc, #96]	; 8f04 <check_no_leak+0x7c>
    8ea0:	e59f1060 	ldr	r1, [pc, #96]	; 8f08 <check_no_leak+0x80>
    8ea4:	e59f2060 	ldr	r2, [pc, #96]	; 8f0c <check_no_leak+0x84>
    8ea8:	e59f3060 	ldr	r3, [pc, #96]	; 8f10 <check_no_leak+0x88>
    8eac:	eb00009b 	bl	9120 <printk>
    8eb0:	eb00020f 	bl	96f4 <clean_reboot>
    8eb4:	e59f0058 	ldr	r0, [pc, #88]	; 8f14 <check_no_leak+0x8c>
    8eb8:	eb000098 	bl	9120 <printk>
    8ebc:	e59f0054 	ldr	r0, [pc, #84]	; 8f18 <check_no_leak+0x90>
    8ec0:	eb000096 	bl	9120 <printk>
    8ec4:	e3a00001 	mov	r0, #1
    8ec8:	ebffffe8 	bl	8e70 <ck_find_leaks>
    8ecc:	e3500000 	cmp	r0, #0
    8ed0:	0a000006 	beq	8ef0 <check_no_leak+0x68>
    8ed4:	eb0000ac 	bl	918c <rpi_reset_putc>
    8ed8:	e59f003c 	ldr	r0, [pc, #60]	; 8f1c <check_no_leak+0x94>
    8edc:	e59f1024 	ldr	r1, [pc, #36]	; 8f08 <check_no_leak+0x80>
    8ee0:	e59f2024 	ldr	r2, [pc, #36]	; 8f0c <check_no_leak+0x84>
    8ee4:	e59f3034 	ldr	r3, [pc, #52]	; 8f20 <check_no_leak+0x98>
    8ee8:	eb00008c 	bl	9120 <printk>
    8eec:	eb000200 	bl	96f4 <clean_reboot>
    8ef0:	e59f001c 	ldr	r0, [pc, #28]	; 8f14 <check_no_leak+0x8c>
    8ef4:	eb000089 	bl	9120 <printk>
    8ef8:	e59f0024 	ldr	r0, [pc, #36]	; 8f24 <check_no_leak+0x9c>
    8efc:	eb000087 	bl	9120 <printk>
    8f00:	e8bd8008 	pop	{r3, pc}
    8f04:	0000a4b4 			; <UNDEFINED> instruction: 0x0000a4b4
    8f08:	0000a3b8 			; <UNDEFINED> instruction: 0x0000a3b8
    8f0c:	0000a224 	andeq	sl, r0, r4, lsr #4
    8f10:	00000109 	andeq	r0, r0, r9, lsl #2
    8f14:	00009d14 	andeq	r9, r0, r4, lsl sp
    8f18:	0000a4dc 	ldrdeq	sl, [r0], -ip
    8f1c:	0000a4fc 	strdeq	sl, [r0], -ip
    8f20:	0000010d 	andeq	r0, r0, sp, lsl #2
    8f24:	0000a528 	andeq	sl, r0, r8, lsr #10

00008f28 <check_should_leak>:
    8f28:	e92d4010 	push	{r4, lr}
    8f2c:	ebfffdf5 	bl	8708 <ck_heap_errors>
    8f30:	e3500000 	cmp	r0, #0
    8f34:	0a000006 	beq	8f54 <check_should_leak+0x2c>
    8f38:	eb000093 	bl	918c <rpi_reset_putc>
    8f3c:	e59f0068 	ldr	r0, [pc, #104]	; 8fac <check_should_leak+0x84>
    8f40:	e59f1068 	ldr	r1, [pc, #104]	; 8fb0 <check_should_leak+0x88>
    8f44:	e59f2068 	ldr	r2, [pc, #104]	; 8fb4 <check_should_leak+0x8c>
    8f48:	e59f3068 	ldr	r3, [pc, #104]	; 8fb8 <check_should_leak+0x90>
    8f4c:	eb000073 	bl	9120 <printk>
    8f50:	eb0001e7 	bl	96f4 <clean_reboot>
    8f54:	e59f0060 	ldr	r0, [pc, #96]	; 8fbc <check_should_leak+0x94>
    8f58:	eb000070 	bl	9120 <printk>
    8f5c:	e59f005c 	ldr	r0, [pc, #92]	; 8fc0 <check_should_leak+0x98>
    8f60:	eb00006e 	bl	9120 <printk>
    8f64:	e3a00001 	mov	r0, #1
    8f68:	ebffffc0 	bl	8e70 <ck_find_leaks>
    8f6c:	e2504000 	subs	r4, r0, #0
    8f70:	1a000006 	bne	8f90 <check_should_leak+0x68>
    8f74:	eb000084 	bl	918c <rpi_reset_putc>
    8f78:	e59f0044 	ldr	r0, [pc, #68]	; 8fc4 <check_should_leak+0x9c>
    8f7c:	e59f102c 	ldr	r1, [pc, #44]	; 8fb0 <check_should_leak+0x88>
    8f80:	e59f202c 	ldr	r2, [pc, #44]	; 8fb4 <check_should_leak+0x8c>
    8f84:	e3a03e12 	mov	r3, #288	; 0x120
    8f88:	eb000064 	bl	9120 <printk>
    8f8c:	eb0001d8 	bl	96f4 <clean_reboot>
    8f90:	e59f0024 	ldr	r0, [pc, #36]	; 8fbc <check_should_leak+0x94>
    8f94:	eb000061 	bl	9120 <printk>
    8f98:	e59f0028 	ldr	r0, [pc, #40]	; 8fc8 <check_should_leak+0xa0>
    8f9c:	e1a01004 	mov	r1, r4
    8fa0:	eb00005e 	bl	9120 <printk>
    8fa4:	e1a00004 	mov	r0, r4
    8fa8:	e8bd8010 	pop	{r4, pc}
    8fac:	0000a4b4 			; <UNDEFINED> instruction: 0x0000a4b4
    8fb0:	0000a3b8 			; <UNDEFINED> instruction: 0x0000a3b8
    8fb4:	0000a234 	andeq	sl, r0, r4, lsr r2
    8fb8:	0000011a 	andeq	r0, r0, sl, lsl r1
    8fbc:	00009d14 	andeq	r9, r0, r4, lsl sp
    8fc0:	0000a4dc 	ldrdeq	sl, [r0], -ip
    8fc4:	0000a540 	andeq	sl, r0, r0, asr #10
    8fc8:	0000a568 	andeq	sl, r0, r8, ror #10

00008fcc <implement_this>:
    8fcc:	e92d4008 	push	{r3, lr}
    8fd0:	eb00006d 	bl	918c <rpi_reset_putc>
    8fd4:	e59f0010 	ldr	r0, [pc, #16]	; 8fec <implement_this+0x20>
    8fd8:	e59f1010 	ldr	r1, [pc, #16]	; 8ff0 <implement_this+0x24>
    8fdc:	e59f2010 	ldr	r2, [pc, #16]	; 8ff4 <implement_this+0x28>
    8fe0:	e3a03f4a 	mov	r3, #296	; 0x128
    8fe4:	eb00004d 	bl	9120 <printk>
    8fe8:	eb0001c1 	bl	96f4 <clean_reboot>
    8fec:	0000a588 	andeq	sl, r0, r8, lsl #11
    8ff0:	0000a3b8 			; <UNDEFINED> instruction: 0x0000a3b8
    8ff4:	0000a248 	andeq	sl, r0, r8, asr #4

00008ff8 <ck_gc>:
    8ff8:	e92d4008 	push	{r3, lr}
    8ffc:	ebffff16 	bl	8c5c <mark_all>
    9000:	ebffff52 	bl	8d50 <sweep_free>
    9004:	e8bd8008 	pop	{r3, pc}

00009008 <dump_regs>:
    9008:	e8807fff 	stm	r0, {r0, r1, r2, r3, r4, r5, r6, r7, r8, r9, sl, fp, ip, sp, lr}
    900c:	e12fff1e 	bx	lr

00009010 <fast_hash>:
    9010:	e52d4004 	push	{r4}		; (str r4, [sp, #-4]!)
    9014:	e1a02001 	mov	r2, r1
    9018:	e1a03000 	mov	r3, r0
    901c:	e3500000 	cmp	r0, #0
    9020:	13510000 	cmpne	r1, #0
    9024:	da000032 	ble	90f4 <fast_hash+0xe4>
    9028:	e2014003 	and	r4, r1, #3
    902c:	e1a01141 	asr	r1, r1, #2
    9030:	ea00000b 	b	9064 <fast_hash+0x54>
    9034:	e5d3c001 	ldrb	ip, [r3, #1]
    9038:	e5d30000 	ldrb	r0, [r3]
    903c:	e080040c 	add	r0, r0, ip, lsl #8
    9040:	e0800002 	add	r0, r0, r2
    9044:	e5d3c003 	ldrb	ip, [r3, #3]
    9048:	e5d32002 	ldrb	r2, [r3, #2]
    904c:	e082240c 	add	r2, r2, ip, lsl #8
    9050:	e0202582 	eor	r2, r0, r2, lsl #11
    9054:	e0222800 	eor	r2, r2, r0, lsl #16
    9058:	e2833004 	add	r3, r3, #4
    905c:	e08225a2 	add	r2, r2, r2, lsr #11
    9060:	e2411001 	sub	r1, r1, #1
    9064:	e3510000 	cmp	r1, #0
    9068:	cafffff1 	bgt	9034 <fast_hash+0x24>
    906c:	e3540002 	cmp	r4, #2
    9070:	0a00000d 	beq	90ac <fast_hash+0x9c>
    9074:	e3540003 	cmp	r4, #3
    9078:	0a000002 	beq	9088 <fast_hash+0x78>
    907c:	e3540001 	cmp	r4, #1
    9080:	1a000014 	bne	90d8 <fast_hash+0xc8>
    9084:	ea00000f 	b	90c8 <fast_hash+0xb8>
    9088:	e5d30001 	ldrb	r0, [r3, #1]
    908c:	e5d31000 	ldrb	r1, [r3]
    9090:	e0811400 	add	r1, r1, r0, lsl #8
    9094:	e0812002 	add	r2, r1, r2
    9098:	e0222802 	eor	r2, r2, r2, lsl #16
    909c:	e1d330d2 	ldrsb	r3, [r3, #2]
    90a0:	e0222903 	eor	r2, r2, r3, lsl #18
    90a4:	e08225a2 	add	r2, r2, r2, lsr #11
    90a8:	ea00000a 	b	90d8 <fast_hash+0xc8>
    90ac:	e5d31001 	ldrb	r1, [r3, #1]
    90b0:	e5d33000 	ldrb	r3, [r3]
    90b4:	e0833401 	add	r3, r3, r1, lsl #8
    90b8:	e0832002 	add	r2, r3, r2
    90bc:	e0222582 	eor	r2, r2, r2, lsl #11
    90c0:	e08228a2 	add	r2, r2, r2, lsr #17
    90c4:	ea000003 	b	90d8 <fast_hash+0xc8>
    90c8:	e1d330d0 	ldrsb	r3, [r3]
    90cc:	e0832002 	add	r2, r3, r2
    90d0:	e0222502 	eor	r2, r2, r2, lsl #10
    90d4:	e08220a2 	add	r2, r2, r2, lsr #1
    90d8:	e0220182 	eor	r0, r2, r2, lsl #3
    90dc:	e08002a0 	add	r0, r0, r0, lsr #5
    90e0:	e0200200 	eor	r0, r0, r0, lsl #4
    90e4:	e08008a0 	add	r0, r0, r0, lsr #17
    90e8:	e0200c80 	eor	r0, r0, r0, lsl #25
    90ec:	e0800320 	add	r0, r0, r0, lsr #6
    90f0:	ea000000 	b	90f8 <fast_hash+0xe8>
    90f4:	e3a00000 	mov	r0, #0
    90f8:	e49d4004 	pop	{r4}		; (ldr r4, [sp], #4)
    90fc:	e12fff1e 	bx	lr

00009100 <memset>:
    9100:	e0802002 	add	r2, r0, r2
    9104:	e1a03000 	mov	r3, r0
    9108:	ea000001 	b	9114 <memset+0x14>
    910c:	e5c31000 	strb	r1, [r3]
    9110:	e2833001 	add	r3, r3, #1
    9114:	e1530002 	cmp	r3, r2
    9118:	3afffffb 	bcc	910c <memset+0xc>
    911c:	e12fff1e 	bx	lr

00009120 <printk>:
    9120:	e92d000f 	push	{r0, r1, r2, r3}
    9124:	e92d4030 	push	{r4, r5, lr}
    9128:	e24dd00c 	sub	sp, sp, #12
    912c:	e28d301c 	add	r3, sp, #28
    9130:	e58d3004 	str	r3, [sp, #4]
    9134:	e59f4034 	ldr	r4, [pc, #52]	; 9170 <printk+0x50>
    9138:	e1a00004 	mov	r0, r4
    913c:	e3a01b01 	mov	r1, #1024	; 0x400
    9140:	e59d2018 	ldr	r2, [sp, #24]
    9144:	eb0000c8 	bl	946c <va_printk>
    9148:	e1a05000 	mov	r5, r0
    914c:	e59f3020 	ldr	r3, [pc, #32]	; 9174 <printk+0x54>
    9150:	e5933000 	ldr	r3, [r3]
    9154:	e1a00004 	mov	r0, r4
    9158:	e12fff33 	blx	r3
    915c:	e1a00005 	mov	r0, r5
    9160:	e28dd00c 	add	sp, sp, #12
    9164:	e8bd4030 	pop	{r4, r5, lr}
    9168:	e28dd010 	add	sp, sp, #16
    916c:	e12fff1e 	bx	lr
    9170:	0000a814 	andeq	sl, r0, r4, lsl r8
    9174:	00009ce4 	andeq	r9, r0, r4, ror #25

00009178 <internal_putchar>:
    9178:	e92d4010 	push	{r4, lr}
    917c:	e1a04000 	mov	r4, r0
    9180:	eb000212 	bl	99d0 <uart_putc>
    9184:	e1a00004 	mov	r0, r4
    9188:	e8bd8010 	pop	{r4, pc}

0000918c <rpi_reset_putc>:
    918c:	e59f2008 	ldr	r2, [pc, #8]	; 919c <rpi_reset_putc+0x10>
    9190:	e59f3008 	ldr	r3, [pc, #8]	; 91a0 <rpi_reset_putc+0x14>
    9194:	e5832000 	str	r2, [r3]
    9198:	e12fff1e 	bx	lr
    919c:	00009178 	andeq	r9, r0, r8, ror r1
    91a0:	00009ce0 	andeq	r9, r0, r0, ror #25

000091a4 <rpi_set_putc>:
    91a4:	e59f3004 	ldr	r3, [pc, #4]	; 91b0 <rpi_set_putc+0xc>
    91a8:	e5830000 	str	r0, [r3]
    91ac:	e12fff1e 	bx	lr
    91b0:	00009ce0 	andeq	r9, r0, r0, ror #25

000091b4 <internal_putk>:
    91b4:	e92d4038 	push	{r3, r4, r5, lr}
    91b8:	e1a04000 	mov	r4, r0
    91bc:	e59f5020 	ldr	r5, [pc, #32]	; 91e4 <internal_putk+0x30>
    91c0:	ea000002 	b	91d0 <internal_putk+0x1c>
    91c4:	e5953000 	ldr	r3, [r5]
    91c8:	e12fff33 	blx	r3
    91cc:	e2844001 	add	r4, r4, #1
    91d0:	e5d40000 	ldrb	r0, [r4]
    91d4:	e3500000 	cmp	r0, #0
    91d8:	1afffff9 	bne	91c4 <internal_putk+0x10>
    91dc:	e3a00001 	mov	r0, #1
    91e0:	e8bd8038 	pop	{r3, r4, r5, pc}
    91e4:	00009ce0 	andeq	r9, r0, r0, ror #25

000091e8 <isdigit>:
    91e8:	e2400030 	sub	r0, r0, #48	; 0x30
    91ec:	e3500009 	cmp	r0, #9
    91f0:	83a00000 	movhi	r0, #0
    91f4:	93a00001 	movls	r0, #1
    91f8:	e12fff1e 	bx	lr

000091fc <pad>:
    91fc:	e0611000 	rsb	r1, r1, r0
    9200:	e3a03020 	mov	r3, #32
    9204:	ea000002 	b	9214 <pad+0x18>
    9208:	e5c03000 	strb	r3, [r0]
    920c:	e2811001 	add	r1, r1, #1
    9210:	e2800001 	add	r0, r0, #1
    9214:	e1510002 	cmp	r1, r2
    9218:	bafffffa 	blt	9208 <pad+0xc>
    921c:	e3a03000 	mov	r3, #0
    9220:	e5c03000 	strb	r3, [r0]
    9224:	e12fff1e 	bx	lr

00009228 <reverse>:
    9228:	e063c002 	rsb	ip, r3, r2
    922c:	e28cc001 	add	ip, ip, #1
    9230:	e15c0001 	cmp	ip, r1
    9234:	c061100c 	rsbgt	r1, r1, ip
    9238:	c0833001 	addgt	r3, r3, r1
    923c:	e2422001 	sub	r2, r2, #1
    9240:	e1a01000 	mov	r1, r0
    9244:	ea000002 	b	9254 <reverse+0x2c>
    9248:	e452c001 	ldrb	ip, [r2], #-1
    924c:	e5c1c000 	strb	ip, [r1]
    9250:	e2811001 	add	r1, r1, #1
    9254:	e1520003 	cmp	r2, r3
    9258:	2afffffa 	bcs	9248 <reverse+0x20>
    925c:	e3a03000 	mov	r3, #0
    9260:	e5c13000 	strb	r3, [r1]
    9264:	e12fff1e 	bx	lr

00009268 <emit>:
    9268:	e92d41f0 	push	{r4, r5, r6, r7, r8, lr}
    926c:	e24dd040 	sub	sp, sp, #64	; 0x40
    9270:	e1a05001 	mov	r5, r1
    9274:	e1a04002 	mov	r4, r2
    9278:	e59d2058 	ldr	r2, [sp, #88]	; 0x58
    927c:	e1520004 	cmp	r2, r4
    9280:	c2442001 	subgt	r2, r4, #1
    9284:	e1a0c003 	mov	ip, r3
    9288:	e2400002 	sub	r0, r0, #2
    928c:	e350000e 	cmp	r0, #14
    9290:	979ff100 	ldrls	pc, [pc, r0, lsl #2]
    9294:	ea000048 	b	93bc <emit+0x154>
    9298:	00009394 	muleq	r0, r4, r3
    929c:	000093bc 			; <UNDEFINED> instruction: 0x000093bc
    92a0:	000093bc 			; <UNDEFINED> instruction: 0x000093bc
    92a4:	000093bc 			; <UNDEFINED> instruction: 0x000093bc
    92a8:	000093bc 			; <UNDEFINED> instruction: 0x000093bc
    92ac:	000093bc 			; <UNDEFINED> instruction: 0x000093bc
    92b0:	00009388 	andeq	r9, r0, r8, lsl #7
    92b4:	000093bc 			; <UNDEFINED> instruction: 0x000093bc
    92b8:	000092d4 	ldrdeq	r9, [r0], -r4
    92bc:	000093bc 			; <UNDEFINED> instruction: 0x000093bc
    92c0:	000093bc 			; <UNDEFINED> instruction: 0x000093bc
    92c4:	000093bc 			; <UNDEFINED> instruction: 0x000093bc
    92c8:	000093bc 			; <UNDEFINED> instruction: 0x000093bc
    92cc:	000093bc 			; <UNDEFINED> instruction: 0x000093bc
    92d0:	00009348 	andeq	r9, r0, r8, asr #6
    92d4:	e59d105c 	ldr	r1, [sp, #92]	; 0x5c
    92d8:	e2911000 	adds	r1, r1, #0
    92dc:	13a01001 	movne	r1, #1
    92e0:	e0111fa3 	ands	r1, r1, r3, lsr #31
    92e4:	1263c000 	rsbne	ip, r3, #0
    92e8:	13a08001 	movne	r8, #1
    92ec:	03a08000 	moveq	r8, #0
    92f0:	e1a0100d 	mov	r1, sp
    92f4:	e59f7100 	ldr	r7, [pc, #256]	; 93fc <emit+0x194>
    92f8:	e59f6100 	ldr	r6, [pc, #256]	; 9400 <emit+0x198>
    92fc:	ea000000 	b	9304 <emit+0x9c>
    9300:	e1a01000 	mov	r1, r0
    9304:	e2810001 	add	r0, r1, #1
    9308:	e083ec97 	umull	lr, r3, r7, ip
    930c:	e1a031a3 	lsr	r3, r3, #3
    9310:	e1a0e003 	mov	lr, r3
    9314:	e0833103 	add	r3, r3, r3, lsl #2
    9318:	e1a03083 	lsl	r3, r3, #1
    931c:	e063300c 	rsb	r3, r3, ip
    9320:	e7d63003 	ldrb	r3, [r6, r3]
    9324:	e5c13000 	strb	r3, [r1]
    9328:	e1a0c00e 	mov	ip, lr
    932c:	e35e0000 	cmp	lr, #0
    9330:	1afffff2 	bne	9300 <emit+0x98>
    9334:	e3580000 	cmp	r8, #0
    9338:	12810002 	addne	r0, r1, #2
    933c:	13a0302d 	movne	r3, #45	; 0x2d
    9340:	15c13001 	strbne	r3, [r1, #1]
    9344:	ea000023 	b	93d8 <emit+0x170>
    9348:	e1a0300d 	mov	r3, sp
    934c:	e59fe0b0 	ldr	lr, [pc, #176]	; 9404 <emit+0x19c>
    9350:	ea000000 	b	9358 <emit+0xf0>
    9354:	e1a03000 	mov	r3, r0
    9358:	e2830001 	add	r0, r3, #1
    935c:	e20c100f 	and	r1, ip, #15
    9360:	e7de1001 	ldrb	r1, [lr, r1]
    9364:	e5c31000 	strb	r1, [r3]
    9368:	e1b0c22c 	lsrs	ip, ip, #4
    936c:	1afffff8 	bne	9354 <emit+0xec>
    9370:	e3a01078 	mov	r1, #120	; 0x78
    9374:	e5c31001 	strb	r1, [r3, #1]
    9378:	e2830003 	add	r0, r3, #3
    937c:	e3a01030 	mov	r1, #48	; 0x30
    9380:	e5c31002 	strb	r1, [r3, #2]
    9384:	ea000013 	b	93d8 <emit+0x170>
    9388:	e5cd3000 	strb	r3, [sp]
    938c:	e28d0001 	add	r0, sp, #1
    9390:	ea000010 	b	93d8 <emit+0x170>
    9394:	e1a0300d 	mov	r3, sp
    9398:	e59fe068 	ldr	lr, [pc, #104]	; 9408 <emit+0x1a0>
    939c:	e2830001 	add	r0, r3, #1
    93a0:	e20c1001 	and	r1, ip, #1
    93a4:	e7de1001 	ldrb	r1, [lr, r1]
    93a8:	e5c31000 	strb	r1, [r3]
    93ac:	e1a03000 	mov	r3, r0
    93b0:	e1b0c0ac 	lsrs	ip, ip, #1
    93b4:	1afffff8 	bne	939c <emit+0x134>
    93b8:	ea000006 	b	93d8 <emit+0x170>
    93bc:	ebffff72 	bl	918c <rpi_reset_putc>
    93c0:	e59f0044 	ldr	r0, [pc, #68]	; 940c <emit+0x1a4>
    93c4:	e59f1044 	ldr	r1, [pc, #68]	; 9410 <emit+0x1a8>
    93c8:	e59f2044 	ldr	r2, [pc, #68]	; 9414 <emit+0x1ac>
    93cc:	e3a03077 	mov	r3, #119	; 0x77
    93d0:	ebffff52 	bl	9120 <printk>
    93d4:	eb0000c6 	bl	96f4 <clean_reboot>
    93d8:	e1a0100d 	mov	r1, sp
    93dc:	ebffff86 	bl	91fc <pad>
    93e0:	e1a02000 	mov	r2, r0
    93e4:	e1a00005 	mov	r0, r5
    93e8:	e1a01004 	mov	r1, r4
    93ec:	e1a0300d 	mov	r3, sp
    93f0:	ebffff8c 	bl	9228 <reverse>
    93f4:	e28dd040 	add	sp, sp, #64	; 0x40
    93f8:	e8bd81f0 	pop	{r4, r5, r6, r7, r8, pc}
    93fc:	cccccccd 	stclgt	12, cr12, [ip], {205}	; 0xcd
    9400:	0000a604 	andeq	sl, r0, r4, lsl #12
    9404:	0000a610 	andeq	sl, r0, r0, lsl r6
    9408:	0000a624 	andeq	sl, r0, r4, lsr #12
    940c:	0000a5dc 	ldrdeq	sl, [r0], -ip
    9410:	0000a5f0 	strdeq	sl, [r0], -r0
    9414:	0000a5b8 			; <UNDEFINED> instruction: 0x0000a5b8

00009418 <rpi_set_output>:
    9418:	e92d4008 	push	{r3, lr}
    941c:	e3500000 	cmp	r0, #0
    9420:	1a000006 	bne	9440 <rpi_set_output+0x28>
    9424:	ebffff58 	bl	918c <rpi_reset_putc>
    9428:	e59f0028 	ldr	r0, [pc, #40]	; 9458 <rpi_set_output+0x40>
    942c:	e59f1028 	ldr	r1, [pc, #40]	; 945c <rpi_set_output+0x44>
    9430:	e59f2028 	ldr	r2, [pc, #40]	; 9460 <rpi_set_output+0x48>
    9434:	e3a03020 	mov	r3, #32
    9438:	ebffff38 	bl	9120 <printk>
    943c:	eb0000ac 	bl	96f4 <clean_reboot>
    9440:	e59f301c 	ldr	r3, [pc, #28]	; 9464 <rpi_set_output+0x4c>
    9444:	e5830000 	str	r0, [r3]
    9448:	e3510000 	cmp	r1, #0
    944c:	159f3014 	ldrne	r3, [pc, #20]	; 9468 <rpi_set_output+0x50>
    9450:	15831000 	strne	r1, [r3]
    9454:	e8bd8008 	pop	{r3, pc}
    9458:	0000a628 	andeq	sl, r0, r8, lsr #12
    945c:	0000a5f0 	strdeq	sl, [r0], -r0
    9460:	0000a5c0 	andeq	sl, r0, r0, asr #11
    9464:	00009ce0 	andeq	r9, r0, r0, ror #25
    9468:	00009ce4 	andeq	r9, r0, r4, ror #25

0000946c <va_printk>:
    946c:	e92d4ff0 	push	{r4, r5, r6, r7, r8, r9, sl, fp, lr}
    9470:	e24dd08c 	sub	sp, sp, #140	; 0x8c
    9474:	e1a0a000 	mov	sl, r0
    9478:	e1a09003 	mov	r9, r3
    947c:	e2411001 	sub	r1, r1, #1
    9480:	e0808001 	add	r8, r0, r1
    9484:	e3a03000 	mov	r3, #0
    9488:	e5c03000 	strb	r3, [r0]
    948c:	e1a04000 	mov	r4, r0
    9490:	e1a0b003 	mov	fp, r3
    9494:	ea000086 	b	96b4 <va_printk+0x248>
    9498:	e3530025 	cmp	r3, #37	; 0x25
    949c:	12822001 	addne	r2, r2, #1
    94a0:	15c43000 	strbne	r3, [r4]
    94a4:	12844001 	addne	r4, r4, #1
    94a8:	1a000081 	bne	96b4 <va_printk+0x248>
    94ac:	e5d21001 	ldrb	r1, [r2, #1]
    94b0:	e3510025 	cmp	r1, #37	; 0x25
    94b4:	05c43000 	strbeq	r3, [r4]
    94b8:	02822002 	addeq	r2, r2, #2
    94bc:	02844001 	addeq	r4, r4, #1
    94c0:	0a00007b 	beq	96b4 <va_printk+0x248>
    94c4:	e2826001 	add	r6, r2, #1
    94c8:	e1a0700b 	mov	r7, fp
    94cc:	ea000004 	b	94e4 <va_printk+0x78>
    94d0:	e0877107 	add	r7, r7, r7, lsl #2
    94d4:	e1a07087 	lsl	r7, r7, #1
    94d8:	e0877005 	add	r7, r7, r5
    94dc:	e2477030 	sub	r7, r7, #48	; 0x30
    94e0:	e2866001 	add	r6, r6, #1
    94e4:	e5d65000 	ldrb	r5, [r6]
    94e8:	e1a00005 	mov	r0, r5
    94ec:	ebffff3d 	bl	91e8 <isdigit>
    94f0:	e3500000 	cmp	r0, #0
    94f4:	1afffff5 	bne	94d0 <va_printk+0x64>
    94f8:	e357001f 	cmp	r7, #31
    94fc:	9a000006 	bls	951c <va_printk+0xb0>
    9500:	ebffff21 	bl	918c <rpi_reset_putc>
    9504:	e59f01d4 	ldr	r0, [pc, #468]	; 96e0 <va_printk+0x274>
    9508:	e59f11d4 	ldr	r1, [pc, #468]	; 96e4 <va_printk+0x278>
    950c:	e59f21d4 	ldr	r2, [pc, #468]	; 96e8 <va_printk+0x27c>
    9510:	e3a03094 	mov	r3, #148	; 0x94
    9514:	ebffff01 	bl	9120 <printk>
    9518:	eb000075 	bl	96f4 <clean_reboot>
    951c:	e2455062 	sub	r5, r5, #98	; 0x62
    9520:	e3550016 	cmp	r5, #22
    9524:	979ff105 	ldrls	pc, [pc, r5, lsl #2]
    9528:	ea00004e 	b	9668 <va_printk+0x1fc>
    952c:	00009614 	andeq	r9, r0, r4, lsl r6
    9530:	00009644 	andeq	r9, r0, r4, asr #12
    9534:	000095a4 	andeq	r9, r0, r4, lsr #11
    9538:	00009668 	andeq	r9, r0, r8, ror #12
    953c:	00009588 	andeq	r9, r0, r8, lsl #11
    9540:	00009668 	andeq	r9, r0, r8, ror #12
    9544:	00009668 	andeq	r9, r0, r8, ror #12
    9548:	00009668 	andeq	r9, r0, r8, ror #12
    954c:	00009668 	andeq	r9, r0, r8, ror #12
    9550:	00009668 	andeq	r9, r0, r8, ror #12
    9554:	00009668 	andeq	r9, r0, r8, ror #12
    9558:	00009668 	andeq	r9, r0, r8, ror #12
    955c:	00009668 	andeq	r9, r0, r8, ror #12
    9560:	00009668 	andeq	r9, r0, r8, ror #12
    9564:	000095f0 	strdeq	r9, [r0], -r0
    9568:	00009668 	andeq	r9, r0, r8, ror #12
    956c:	00009668 	andeq	r9, r0, r8, ror #12
    9570:	00009638 	andeq	r9, r0, r8, lsr r6
    9574:	00009668 	andeq	r9, r0, r8, ror #12
    9578:	000095cc 	andeq	r9, r0, ip, asr #11
    957c:	00009668 	andeq	r9, r0, r8, ror #12
    9580:	00009668 	andeq	r9, r0, r8, ror #12
    9584:	000095f0 	strdeq	r9, [r0], -r0
    9588:	ebfffeff 	bl	918c <rpi_reset_putc>
    958c:	e59f0158 	ldr	r0, [pc, #344]	; 96ec <va_printk+0x280>
    9590:	e59f114c 	ldr	r1, [pc, #332]	; 96e4 <va_printk+0x278>
    9594:	e59f214c 	ldr	r2, [pc, #332]	; 96e8 <va_printk+0x27c>
    9598:	e3a0309a 	mov	r3, #154	; 0x9a
    959c:	ebfffedf 	bl	9120 <printk>
    95a0:	eb000053 	bl	96f4 <clean_reboot>
    95a4:	e5993000 	ldr	r3, [r9]
    95a8:	e2899004 	add	r9, r9, #4
    95ac:	e58d7000 	str	r7, [sp]
    95b0:	e3a02001 	mov	r2, #1
    95b4:	e58d2004 	str	r2, [sp, #4]
    95b8:	e3a0000a 	mov	r0, #10
    95bc:	e28d1008 	add	r1, sp, #8
    95c0:	e3a02080 	mov	r2, #128	; 0x80
    95c4:	ebffff27 	bl	9268 <emit>
    95c8:	ea00002f 	b	968c <va_printk+0x220>
    95cc:	e5993000 	ldr	r3, [r9]
    95d0:	e2899004 	add	r9, r9, #4
    95d4:	e58d7000 	str	r7, [sp]
    95d8:	e58db004 	str	fp, [sp, #4]
    95dc:	e3a0000a 	mov	r0, #10
    95e0:	e28d1008 	add	r1, sp, #8
    95e4:	e3a02080 	mov	r2, #128	; 0x80
    95e8:	ebffff1e 	bl	9268 <emit>
    95ec:	ea000026 	b	968c <va_printk+0x220>
    95f0:	e5993000 	ldr	r3, [r9]
    95f4:	e2899004 	add	r9, r9, #4
    95f8:	e58d7000 	str	r7, [sp]
    95fc:	e58db004 	str	fp, [sp, #4]
    9600:	e3a00010 	mov	r0, #16
    9604:	e28d1008 	add	r1, sp, #8
    9608:	e3a02080 	mov	r2, #128	; 0x80
    960c:	ebffff15 	bl	9268 <emit>
    9610:	ea00001d 	b	968c <va_printk+0x220>
    9614:	e5993000 	ldr	r3, [r9]
    9618:	e2899004 	add	r9, r9, #4
    961c:	e58d7000 	str	r7, [sp]
    9620:	e58db004 	str	fp, [sp, #4]
    9624:	e3a00002 	mov	r0, #2
    9628:	e28d1008 	add	r1, sp, #8
    962c:	e3a02080 	mov	r2, #128	; 0x80
    9630:	ebffff0c 	bl	9268 <emit>
    9634:	ea000014 	b	968c <va_printk+0x220>
    9638:	e5990000 	ldr	r0, [r9]
    963c:	e2899004 	add	r9, r9, #4
    9640:	ea000011 	b	968c <va_printk+0x220>
    9644:	e5993000 	ldr	r3, [r9]
    9648:	e2899004 	add	r9, r9, #4
    964c:	e58d7000 	str	r7, [sp]
    9650:	e58db004 	str	fp, [sp, #4]
    9654:	e3a00008 	mov	r0, #8
    9658:	e08d1000 	add	r1, sp, r0
    965c:	e3a02080 	mov	r2, #128	; 0x80
    9660:	ebffff00 	bl	9268 <emit>
    9664:	ea000008 	b	968c <va_printk+0x220>
    9668:	ebfffec7 	bl	918c <rpi_reset_putc>
    966c:	e5d63000 	ldrb	r3, [r6]
    9670:	e58d3000 	str	r3, [sp]
    9674:	e59f0074 	ldr	r0, [pc, #116]	; 96f0 <va_printk+0x284>
    9678:	e59f1064 	ldr	r1, [pc, #100]	; 96e4 <va_printk+0x278>
    967c:	e59f2064 	ldr	r2, [pc, #100]	; 96e8 <va_printk+0x27c>
    9680:	e3a030bb 	mov	r3, #187	; 0xbb
    9684:	ebfffea5 	bl	9120 <printk>
    9688:	eb000019 	bl	96f4 <clean_reboot>
    968c:	e2862001 	add	r2, r6, #1
    9690:	ea000002 	b	96a0 <va_printk+0x234>
    9694:	e2800001 	add	r0, r0, #1
    9698:	e5c43000 	strb	r3, [r4]
    969c:	e2844001 	add	r4, r4, #1
    96a0:	e1540008 	cmp	r4, r8
    96a4:	2a000002 	bcs	96b4 <va_printk+0x248>
    96a8:	e5d03000 	ldrb	r3, [r0]
    96ac:	e3530000 	cmp	r3, #0
    96b0:	1afffff7 	bne	9694 <va_printk+0x228>
    96b4:	e5d23000 	ldrb	r3, [r2]
    96b8:	e3530000 	cmp	r3, #0
    96bc:	0a000001 	beq	96c8 <va_printk+0x25c>
    96c0:	e1540008 	cmp	r4, r8
    96c4:	3affff73 	bcc	9498 <va_printk+0x2c>
    96c8:	e2840001 	add	r0, r4, #1
    96cc:	e3a03000 	mov	r3, #0
    96d0:	e5c43000 	strb	r3, [r4]
    96d4:	e06a0000 	rsb	r0, sl, r0
    96d8:	e28dd08c 	add	sp, sp, #140	; 0x8c
    96dc:	e8bd8ff0 	pop	{r4, r5, r6, r7, r8, r9, sl, fp, pc}
    96e0:	0000a640 	andeq	sl, r0, r0, asr #12
    96e4:	0000a5f0 	strdeq	sl, [r0], -r0
    96e8:	0000a5d0 	ldrdeq	sl, [r0], -r0
    96ec:	0000a65c 	andeq	sl, r0, ip, asr r6
    96f0:	0000a684 	andeq	sl, r0, r4, lsl #13

000096f4 <clean_reboot>:
    96f4:	e92d4008 	push	{r3, lr}
    96f8:	e59f3014 	ldr	r3, [pc, #20]	; 9714 <clean_reboot+0x20>
    96fc:	e5933000 	ldr	r3, [r3]
    9700:	e59f0010 	ldr	r0, [pc, #16]	; 9718 <clean_reboot+0x24>
    9704:	e12fff33 	blx	r3
    9708:	e3a00064 	mov	r0, #100	; 0x64
    970c:	eb000044 	bl	9824 <delay_ms>
    9710:	eb000019 	bl	977c <rpi_reboot>
    9714:	00009ce4 	andeq	r9, r0, r4, ror #25
    9718:	0000a6bc 			; <UNDEFINED> instruction: 0x0000a6bc

0000971c <_cstart>:
    971c:	e92d4008 	push	{r3, lr}
    9720:	e59f3020 	ldr	r3, [pc, #32]	; 9748 <_cstart+0x2c>
    9724:	e59f2020 	ldr	r2, [pc, #32]	; 974c <_cstart+0x30>
    9728:	e3a01000 	mov	r1, #0
    972c:	ea000001 	b	9738 <_cstart+0x1c>
    9730:	e5831000 	str	r1, [r3]
    9734:	e2833004 	add	r3, r3, #4
    9738:	e1530002 	cmp	r3, r2
    973c:	3afffffb 	bcc	9730 <_cstart+0x14>
    9740:	ebfffa4e 	bl	8080 <notmain>
    9744:	ebffffea 	bl	96f4 <clean_reboot>
    9748:	0000a7e8 	andeq	sl, r0, r8, ror #15
    974c:	0000ac18 	andeq	sl, r0, r8, lsl ip

00009750 <at_user_level>:
    9750:	e10f0000 	mrs	r0, CPSR
    9754:	e200001f 	and	r0, r0, #31
    9758:	e3500010 	cmp	r0, #16
    975c:	13a00000 	movne	r0, #0
    9760:	03a00001 	moveq	r0, #1
    9764:	e12fff1e 	bx	lr

00009768 <set_user_level>:
    9768:	e10f3000 	mrs	r3, CPSR
    976c:	e3c3301f 	bic	r3, r3, #31
    9770:	e3833010 	orr	r3, r3, #16
    9774:	e129f003 	msr	CPSR_fc, r3
    9778:	e12fff1e 	bx	lr

0000977c <rpi_reboot>:
    977c:	e92d4008 	push	{r3, lr}
    9780:	ebfffff2 	bl	9750 <at_user_level>
    9784:	e3500000 	cmp	r0, #0
    9788:	0a000000 	beq	9790 <rpi_reboot+0x14>
    978c:	ebfffff5 	bl	9768 <set_user_level>
    9790:	e3a0001e 	mov	r0, #30
    9794:	eb000022 	bl	9824 <delay_ms>
    9798:	e59f0014 	ldr	r0, [pc, #20]	; 97b4 <rpi_reboot+0x38>
    979c:	e59f1014 	ldr	r1, [pc, #20]	; 97b8 <rpi_reboot+0x3c>
    97a0:	eb00002b 	bl	9854 <PUT32>
    97a4:	e59f0010 	ldr	r0, [pc, #16]	; 97bc <rpi_reboot+0x40>
    97a8:	e59f1010 	ldr	r1, [pc, #16]	; 97c0 <rpi_reboot+0x44>
    97ac:	eb000028 	bl	9854 <PUT32>
    97b0:	eafffffe 	b	97b0 <rpi_reboot+0x34>
    97b4:	20100024 	andscs	r0, r0, r4, lsr #32
    97b8:	5a000001 	bpl	97c4 <delay_cycles>
    97bc:	2010001c 	andscs	r0, r0, ip, lsl r0
    97c0:	5a000020 	bpl	9848 <delay_sec+0x10>

000097c4 <delay_cycles>:
    97c4:	ea000001 	b	97d0 <delay_cycles+0xc>
    97c8:	e2811000 	add	r1, r1, #0
    97cc:	e1a00003 	mov	r0, r3
    97d0:	e2403001 	sub	r3, r0, #1
    97d4:	e3500000 	cmp	r0, #0
    97d8:	1afffffa 	bne	97c8 <delay_cycles+0x4>
    97dc:	e12fff1e 	bx	lr

000097e0 <timer_get_usec_raw>:
    97e0:	e92d4008 	push	{r3, lr}
    97e4:	e59f0004 	ldr	r0, [pc, #4]	; 97f0 <timer_get_usec_raw+0x10>
    97e8:	eb000025 	bl	9884 <GET32>
    97ec:	e8bd8008 	pop	{r3, pc}
    97f0:	20003004 	andcs	r3, r0, r4

000097f4 <timer_get_usec>:
    97f4:	e92d4008 	push	{r3, lr}
    97f8:	ebfffff8 	bl	97e0 <timer_get_usec_raw>
    97fc:	e8bd8008 	pop	{r3, pc}

00009800 <delay_us>:
    9800:	e92d4038 	push	{r3, r4, r5, lr}
    9804:	e1a05000 	mov	r5, r0
    9808:	ebfffff9 	bl	97f4 <timer_get_usec>
    980c:	e1a04000 	mov	r4, r0
    9810:	ebfffff7 	bl	97f4 <timer_get_usec>
    9814:	e0640000 	rsb	r0, r4, r0
    9818:	e1500005 	cmp	r0, r5
    981c:	3afffffb 	bcc	9810 <delay_us+0x10>
    9820:	e8bd8038 	pop	{r3, r4, r5, pc}

00009824 <delay_ms>:
    9824:	e92d4008 	push	{r3, lr}
    9828:	e3a03ffa 	mov	r3, #1000	; 0x3e8
    982c:	e0000093 	mul	r0, r3, r0
    9830:	ebfffff2 	bl	9800 <delay_us>
    9834:	e8bd8008 	pop	{r3, pc}

00009838 <delay_sec>:
    9838:	e92d4008 	push	{r3, lr}
    983c:	e3a03ffa 	mov	r3, #1000	; 0x3e8
    9840:	e0000093 	mul	r0, r3, r0
    9844:	ebfffff6 	bl	9824 <delay_ms>
    9848:	e8bd8008 	pop	{r3, pc}

0000984c <put32>:
    984c:	e5801000 	str	r1, [r0]
    9850:	e12fff1e 	bx	lr

00009854 <PUT32>:
    9854:	e5801000 	str	r1, [r0]
    9858:	e12fff1e 	bx	lr

0000985c <put16>:
    985c:	e1c010b0 	strh	r1, [r0]
    9860:	e12fff1e 	bx	lr

00009864 <PUT16>:
    9864:	e1c010b0 	strh	r1, [r0]
    9868:	e12fff1e 	bx	lr

0000986c <put8>:
    986c:	e5c01000 	strb	r1, [r0]
    9870:	e12fff1e 	bx	lr

00009874 <PUT8>:
    9874:	e5c01000 	strb	r1, [r0]
    9878:	e12fff1e 	bx	lr

0000987c <get32>:
    987c:	e5900000 	ldr	r0, [r0]
    9880:	e12fff1e 	bx	lr

00009884 <GET32>:
    9884:	e5900000 	ldr	r0, [r0]
    9888:	e12fff1e 	bx	lr

0000988c <GETPC>:
    988c:	e1a0000e 	mov	r0, lr
    9890:	e12fff1e 	bx	lr

00009894 <dummy>:
    9894:	e12fff1e 	bx	lr

00009898 <or_in32>:
    9898:	e92d4070 	push	{r4, r5, r6, lr}
    989c:	e1a04000 	mov	r4, r0
    98a0:	e1a05001 	mov	r5, r1
    98a4:	ebfffff4 	bl	987c <get32>
    98a8:	e1801005 	orr	r1, r0, r5
    98ac:	e1a00004 	mov	r0, r4
    98b0:	ebffffe5 	bl	984c <put32>
    98b4:	e8bd8070 	pop	{r4, r5, r6, pc}

000098b8 <uart_init>:
    98b8:	e92d4010 	push	{r4, lr}
    98bc:	e3a01002 	mov	r1, #2
    98c0:	e3a0000e 	mov	r0, #14
    98c4:	eb000051 	bl	9a10 <gpio_set_function>
    98c8:	e3a01002 	mov	r1, #2
    98cc:	e3a0000f 	mov	r0, #15
    98d0:	eb00004e 	bl	9a10 <gpio_set_function>
    98d4:	eb0000fa 	bl	9cc4 <dev_barrier>
    98d8:	e3a01001 	mov	r1, #1
    98dc:	e59f0064 	ldr	r0, [pc, #100]	; 9948 <uart_init+0x90>
    98e0:	ebffffec 	bl	9898 <or_in32>
    98e4:	eb0000f6 	bl	9cc4 <dev_barrier>
    98e8:	e59f405c 	ldr	r4, [pc, #92]	; 994c <uart_init+0x94>
    98ec:	e3a01000 	mov	r1, #0
    98f0:	e1a00004 	mov	r0, r4
    98f4:	ebffffd4 	bl	984c <put32>
    98f8:	e3a01000 	mov	r1, #0
    98fc:	e59f004c 	ldr	r0, [pc, #76]	; 9950 <uart_init+0x98>
    9900:	ebffffd1 	bl	984c <put32>
    9904:	e3a01003 	mov	r1, #3
    9908:	e59f0044 	ldr	r0, [pc, #68]	; 9954 <uart_init+0x9c>
    990c:	ebffffce 	bl	984c <put32>
    9910:	e3a01000 	mov	r1, #0
    9914:	e59f003c 	ldr	r0, [pc, #60]	; 9958 <uart_init+0xa0>
    9918:	ebffffcb 	bl	984c <put32>
    991c:	e3a010c7 	mov	r1, #199	; 0xc7
    9920:	e59f0034 	ldr	r0, [pc, #52]	; 995c <uart_init+0xa4>
    9924:	ebffffc8 	bl	984c <put32>
    9928:	e59f1030 	ldr	r1, [pc, #48]	; 9960 <uart_init+0xa8>
    992c:	e59f0030 	ldr	r0, [pc, #48]	; 9964 <uart_init+0xac>
    9930:	ebffffc5 	bl	984c <put32>
    9934:	e3a01003 	mov	r1, #3
    9938:	e1a00004 	mov	r0, r4
    993c:	ebffffc2 	bl	984c <put32>
    9940:	eb0000df 	bl	9cc4 <dev_barrier>
    9944:	e8bd8010 	pop	{r4, pc}
    9948:	20215004 	eorcs	r5, r1, r4
    994c:	20215060 	eorcs	r5, r1, r0, rrx
    9950:	20215044 	eorcs	r5, r1, r4, asr #32
    9954:	2021504c 	eorcs	r5, r1, ip, asr #32
    9958:	20215050 	eorcs	r5, r1, r0, asr r0
    995c:	20215048 	eorcs	r5, r1, r8, asr #32
    9960:	0000010e 	andeq	r0, r0, lr, lsl #2
    9964:	20215068 	eorcs	r5, r1, r8, rrx

00009968 <uart_can_getc>:
    9968:	e92d4010 	push	{r4, lr}
    996c:	e59f0008 	ldr	r0, [pc, #8]	; 997c <uart_can_getc+0x14>
    9970:	ebffffc1 	bl	987c <get32>
    9974:	e2000001 	and	r0, r0, #1
    9978:	e8bd8010 	pop	{r4, pc}
    997c:	20215064 	eorcs	r5, r1, r4, rrx

00009980 <uart_can_putc>:
    9980:	e92d4010 	push	{r4, lr}
    9984:	e59f0010 	ldr	r0, [pc, #16]	; 999c <uart_can_putc+0x1c>
    9988:	ebffffbb 	bl	987c <get32>
    998c:	e3100002 	tst	r0, #2
    9990:	13a00001 	movne	r0, #1
    9994:	03a00000 	moveq	r0, #0
    9998:	e8bd8010 	pop	{r4, pc}
    999c:	20215064 	eorcs	r5, r1, r4, rrx

000099a0 <uart_getc>:
    99a0:	e92d4010 	push	{r4, lr}
    99a4:	eb0000c6 	bl	9cc4 <dev_barrier>
    99a8:	ebffffee 	bl	9968 <uart_can_getc>
    99ac:	e3500000 	cmp	r0, #0
    99b0:	0afffffc 	beq	99a8 <uart_getc+0x8>
    99b4:	e59f0010 	ldr	r0, [pc, #16]	; 99cc <uart_getc+0x2c>
    99b8:	ebffffaf 	bl	987c <get32>
    99bc:	e6ef4070 	uxtb	r4, r0
    99c0:	eb0000bf 	bl	9cc4 <dev_barrier>
    99c4:	e1a00004 	mov	r0, r4
    99c8:	e8bd8010 	pop	{r4, pc}
    99cc:	20215040 	eorcs	r5, r1, r0, asr #32

000099d0 <uart_putc>:
    99d0:	e92d4010 	push	{r4, lr}
    99d4:	e1a04000 	mov	r4, r0
    99d8:	eb0000b9 	bl	9cc4 <dev_barrier>
    99dc:	ebffffe7 	bl	9980 <uart_can_putc>
    99e0:	e3500000 	cmp	r0, #0
    99e4:	0afffffc 	beq	99dc <uart_putc+0xc>
    99e8:	e6ef1074 	uxtb	r1, r4
    99ec:	e59f0008 	ldr	r0, [pc, #8]	; 99fc <uart_putc+0x2c>
    99f0:	ebffff95 	bl	984c <put32>
    99f4:	eb0000b2 	bl	9cc4 <dev_barrier>
    99f8:	e8bd8010 	pop	{r4, pc}
    99fc:	20215040 	eorcs	r5, r1, r0, asr #32

00009a00 <uart_has_data>:
    9a00:	e92d4010 	push	{r4, lr}
    9a04:	eb0000ae 	bl	9cc4 <dev_barrier>
    9a08:	ebffffd6 	bl	9968 <uart_can_getc>
    9a0c:	e8bd8010 	pop	{r4, pc}

00009a10 <gpio_set_function>:
    9a10:	e350001f 	cmp	r0, #31
    9a14:	812fff1e 	bxhi	lr
    9a18:	e3d13007 	bics	r3, r1, #7
    9a1c:	112fff1e 	bxne	lr
    9a20:	e92d4070 	push	{r4, r5, r6, lr}
    9a24:	e1a05001 	mov	r5, r1
    9a28:	e59f3044 	ldr	r3, [pc, #68]	; 9a74 <gpio_set_function+0x64>
    9a2c:	e0832093 	umull	r2, r3, r3, r0
    9a30:	e1a031a3 	lsr	r3, r3, #3
    9a34:	e1a06003 	mov	r6, r3
    9a38:	e0833103 	add	r3, r3, r3, lsl #2
    9a3c:	e1a02083 	lsl	r2, r3, #1
    9a40:	e0403002 	sub	r3, r0, r2
    9a44:	e0834083 	add	r4, r3, r3, lsl #1
    9a48:	e2866302 	add	r6, r6, #134217728	; 0x8000000
    9a4c:	e2866702 	add	r6, r6, #524288	; 0x80000
    9a50:	e1a06106 	lsl	r6, r6, #2
    9a54:	e1a00006 	mov	r0, r6
    9a58:	ebffff89 	bl	9884 <GET32>
    9a5c:	e3a01007 	mov	r1, #7
    9a60:	e1c01411 	bic	r1, r0, r1, lsl r4
    9a64:	e1811415 	orr	r1, r1, r5, lsl r4
    9a68:	e1a00006 	mov	r0, r6
    9a6c:	ebffff78 	bl	9854 <PUT32>
    9a70:	e8bd8070 	pop	{r4, r5, r6, pc}
    9a74:	cccccccd 	stclgt	12, cr12, [ip], {205}	; 0xcd

00009a78 <gpio_set_output>:
    9a78:	e92d4010 	push	{r4, lr}
    9a7c:	e3a01001 	mov	r1, #1
    9a80:	ebffffe2 	bl	9a10 <gpio_set_function>
    9a84:	e8bd8010 	pop	{r4, pc}

00009a88 <gpio_set_on>:
    9a88:	e350001f 	cmp	r0, #31
    9a8c:	812fff1e 	bxhi	lr
    9a90:	e92d4010 	push	{r4, lr}
    9a94:	e3a01001 	mov	r1, #1
    9a98:	e1a01011 	lsl	r1, r1, r0
    9a9c:	e59f0004 	ldr	r0, [pc, #4]	; 9aa8 <gpio_set_on+0x20>
    9aa0:	ebffff6b 	bl	9854 <PUT32>
    9aa4:	e8bd8010 	pop	{r4, pc}
    9aa8:	2020001c 	eorcs	r0, r0, ip, lsl r0

00009aac <gpio_set_off>:
    9aac:	e350001f 	cmp	r0, #31
    9ab0:	812fff1e 	bxhi	lr
    9ab4:	e92d4010 	push	{r4, lr}
    9ab8:	e3a01001 	mov	r1, #1
    9abc:	e1a01011 	lsl	r1, r1, r0
    9ac0:	e59f0004 	ldr	r0, [pc, #4]	; 9acc <gpio_set_off+0x20>
    9ac4:	ebffff62 	bl	9854 <PUT32>
    9ac8:	e8bd8010 	pop	{r4, pc}
    9acc:	20200028 	eorcs	r0, r0, r8, lsr #32

00009ad0 <gpio_set_input>:
    9ad0:	e92d4010 	push	{r4, lr}
    9ad4:	e3a01000 	mov	r1, #0
    9ad8:	ebffffcc 	bl	9a10 <gpio_set_function>
    9adc:	e8bd8010 	pop	{r4, pc}

00009ae0 <gpio_write>:
    9ae0:	e92d4010 	push	{r4, lr}
    9ae4:	e3510000 	cmp	r1, #0
    9ae8:	1a000001 	bne	9af4 <gpio_write+0x14>
    9aec:	ebffffee 	bl	9aac <gpio_set_off>
    9af0:	e8bd8010 	pop	{r4, pc}
    9af4:	ebffffe3 	bl	9a88 <gpio_set_on>
    9af8:	e8bd8010 	pop	{r4, pc}

00009afc <gpio_read>:
    9afc:	e350001f 	cmp	r0, #31
    9b00:	8a000007 	bhi	9b24 <gpio_read+0x28>
    9b04:	e92d4010 	push	{r4, lr}
    9b08:	e200401f 	and	r4, r0, #31
    9b0c:	e59f3018 	ldr	r3, [pc, #24]	; 9b2c <gpio_read+0x30>
    9b10:	e08302a0 	add	r0, r3, r0, lsr #5
    9b14:	ebffff5a 	bl	9884 <GET32>
    9b18:	e1a00430 	lsr	r0, r0, r4
    9b1c:	e2000001 	and	r0, r0, #1
    9b20:	e8bd8010 	pop	{r4, pc}
    9b24:	e3e00000 	mvn	r0, #0
    9b28:	e12fff1e 	bx	lr
    9b2c:	20200034 	eorcs	r0, r0, r4, lsr r0

00009b30 <kmalloc_heap_end>:
    9b30:	e59f3004 	ldr	r3, [pc, #4]	; 9b3c <kmalloc_heap_end+0xc>
    9b34:	e5930000 	ldr	r0, [r3]
    9b38:	e12fff1e 	bx	lr
    9b3c:	00009ce8 	andeq	r9, r0, r8, ror #25

00009b40 <kmalloc_heap_start>:
    9b40:	e59f0000 	ldr	r0, [pc]	; 9b48 <kmalloc_heap_start+0x8>
    9b44:	e12fff1e 	bx	lr
    9b48:	0000ac18 	andeq	sl, r0, r8, lsl ip

00009b4c <kmalloc_init_set_start>:
    9b4c:	e59f3038 	ldr	r3, [pc, #56]	; 9b8c <kmalloc_init_set_start+0x40>
    9b50:	e5933000 	ldr	r3, [r3]
    9b54:	e1500003 	cmp	r0, r3
    9b58:	9a000003 	bls	9b6c <kmalloc_init_set_start+0x20>
    9b5c:	e59f3028 	ldr	r3, [pc, #40]	; 9b8c <kmalloc_init_set_start+0x40>
    9b60:	e5830000 	str	r0, [r3]
    9b64:	e5830004 	str	r0, [r3, #4]
    9b68:	e12fff1e 	bx	lr
    9b6c:	e92d4010 	push	{r4, lr}
    9b70:	ebfffd85 	bl	918c <rpi_reset_putc>
    9b74:	e3a03016 	mov	r3, #22
    9b78:	e59f2010 	ldr	r2, [pc, #16]	; 9b90 <kmalloc_init_set_start+0x44>
    9b7c:	e59f1010 	ldr	r1, [pc, #16]	; 9b94 <kmalloc_init_set_start+0x48>
    9b80:	e59f0010 	ldr	r0, [pc, #16]	; 9b98 <kmalloc_init_set_start+0x4c>
    9b84:	ebfffd65 	bl	9120 <printk>
    9b88:	ebfffed9 	bl	96f4 <clean_reboot>
    9b8c:	00009ce8 	andeq	r9, r0, r8, ror #25
    9b90:	0000a6c8 	andeq	sl, r0, r8, asr #13
    9b94:	0000a6f8 	strdeq	sl, [r0], -r8
    9b98:	0000a704 	andeq	sl, r0, r4, lsl #14

00009b9c <kmalloc>:
    9b9c:	e92d4010 	push	{r4, lr}
    9ba0:	e3500000 	cmp	r0, #0
    9ba4:	0a00000a 	beq	9bd4 <kmalloc+0x38>
    9ba8:	e2802007 	add	r2, r0, #7
    9bac:	e3c22007 	bic	r2, r2, #7
    9bb0:	e59f3038 	ldr	r3, [pc, #56]	; 9bf0 <kmalloc+0x54>
    9bb4:	e5934000 	ldr	r4, [r3]
    9bb8:	e0841002 	add	r1, r4, r2
    9bbc:	e5831000 	str	r1, [r3]
    9bc0:	e3a01000 	mov	r1, #0
    9bc4:	e1a00004 	mov	r0, r4
    9bc8:	ebfffd4c 	bl	9100 <memset>
    9bcc:	e1a00004 	mov	r0, r4
    9bd0:	e8bd8010 	pop	{r4, pc}
    9bd4:	ebfffd6c 	bl	918c <rpi_reset_putc>
    9bd8:	e3a0301b 	mov	r3, #27
    9bdc:	e59f2010 	ldr	r2, [pc, #16]	; 9bf4 <kmalloc+0x58>
    9be0:	e59f1010 	ldr	r1, [pc, #16]	; 9bf8 <kmalloc+0x5c>
    9be4:	e59f0010 	ldr	r0, [pc, #16]	; 9bfc <kmalloc+0x60>
    9be8:	ebfffd4c 	bl	9120 <printk>
    9bec:	ebfffec0 	bl	96f4 <clean_reboot>
    9bf0:	00009ce8 	andeq	r9, r0, r8, ror #25
    9bf4:	0000a6e0 	andeq	sl, r0, r0, ror #13
    9bf8:	0000a6f8 	strdeq	sl, [r0], -r8
    9bfc:	0000a720 	andeq	sl, r0, r0, lsr #14

00009c00 <kmalloc_init>:
    9c00:	e12fff1e 	bx	lr

00009c04 <kmalloc_heap_ptr>:
    9c04:	e92d4010 	push	{r4, lr}
    9c08:	ebffffcc 	bl	9b40 <kmalloc_heap_start>
    9c0c:	e8bd8010 	pop	{r4, pc}

00009c10 <kmalloc_aligned>:
    9c10:	e92d4010 	push	{r4, lr}
    9c14:	e2613000 	rsb	r3, r1, #0
    9c18:	e1d12003 	bics	r2, r1, r3
    9c1c:	1a00000b 	bne	9c50 <kmalloc_aligned+0x40>
    9c20:	e59f2060 	ldr	r2, [pc, #96]	; 9c88 <kmalloc_aligned+0x78>
    9c24:	e5922000 	ldr	r2, [r2]
    9c28:	e0812002 	add	r2, r1, r2
    9c2c:	e2422001 	sub	r2, r2, #1
    9c30:	e0033002 	and	r3, r3, r2
    9c34:	e2411001 	sub	r1, r1, #1
    9c38:	e1130001 	tst	r3, r1
    9c3c:	1a00000a 	bne	9c6c <kmalloc_aligned+0x5c>
    9c40:	e59f2040 	ldr	r2, [pc, #64]	; 9c88 <kmalloc_aligned+0x78>
    9c44:	e5823000 	str	r3, [r2]
    9c48:	ebffffd3 	bl	9b9c <kmalloc>
    9c4c:	e8bd8010 	pop	{r4, pc}
    9c50:	ebfffd4d 	bl	918c <rpi_reset_putc>
    9c54:	e3a0302a 	mov	r3, #42	; 0x2a
    9c58:	e59f202c 	ldr	r2, [pc, #44]	; 9c8c <kmalloc_aligned+0x7c>
    9c5c:	e59f102c 	ldr	r1, [pc, #44]	; 9c90 <kmalloc_aligned+0x80>
    9c60:	e59f002c 	ldr	r0, [pc, #44]	; 9c94 <kmalloc_aligned+0x84>
    9c64:	ebfffd2d 	bl	9120 <printk>
    9c68:	ebfffea1 	bl	96f4 <clean_reboot>
    9c6c:	ebfffd46 	bl	918c <rpi_reset_putc>
    9c70:	e3a03030 	mov	r3, #48	; 0x30
    9c74:	e59f2010 	ldr	r2, [pc, #16]	; 9c8c <kmalloc_aligned+0x7c>
    9c78:	e59f1010 	ldr	r1, [pc, #16]	; 9c90 <kmalloc_aligned+0x80>
    9c7c:	e59f0014 	ldr	r0, [pc, #20]	; 9c98 <kmalloc_aligned+0x88>
    9c80:	ebfffd26 	bl	9120 <printk>
    9c84:	ebfffe9a 	bl	96f4 <clean_reboot>
    9c88:	00009ce8 	andeq	r9, r0, r8, ror #25
    9c8c:	0000a6e8 	andeq	sl, r0, r8, ror #13
    9c90:	0000a6f8 	strdeq	sl, [r0], -r8
    9c94:	0000a734 	andeq	sl, r0, r4, lsr r7
    9c98:	0000a794 	muleq	r0, r4, r7

00009c9c <kfree>:
    9c9c:	e12fff1e 	bx	lr

00009ca0 <kfree_all>:
    9ca0:	e59f3008 	ldr	r3, [pc, #8]	; 9cb0 <kfree_all+0x10>
    9ca4:	e5932004 	ldr	r2, [r3, #4]
    9ca8:	e5832000 	str	r2, [r3]
    9cac:	e12fff1e 	bx	lr
    9cb0:	00009ce8 	andeq	r9, r0, r8, ror #25

00009cb4 <kfree_after>:
    9cb4:	e59f3004 	ldr	r3, [pc, #4]	; 9cc0 <kfree_after+0xc>
    9cb8:	e5830000 	str	r0, [r3]
    9cbc:	e12fff1e 	bx	lr
    9cc0:	00009ce8 	andeq	r9, r0, r8, ror #25

00009cc4 <dev_barrier>:
    9cc4:	ea000002 	b	9cd4 <dsb>

00009cc8 <dmb>:
    9cc8:	e3a00000 	mov	r0, #0
    9ccc:	ee070fba 	mcr	15, 0, r0, cr7, cr10, {5}
    9cd0:	e12fff1e 	bx	lr

00009cd4 <dsb>:
    9cd4:	ee070f9a 	mcr	15, 0, r0, cr7, cr10, {4}
    9cd8:	e12fff1e 	bx	lr

00009cdc <__code_end__>:
    9cdc:	00000000 	andeq	r0, r0, r0

Disassembly of section .data:

00009ce0 <__data_start__>:
    9ce0:	00009178 	andeq	r9, r0, r8, ror r1

00009ce4 <putk>:
    9ce4:	000091b4 			; <UNDEFINED> instruction: 0x000091b4

00009ce8 <heap>:
    9ce8:	0000ac18 	andeq	sl, r0, r8, lsl ip

00009cec <heap_start>:
    9cec:	0000ac18 	andeq	sl, r0, r8, lsl ip

Disassembly of section .rodata:

00009cf0 <__FUNCTION__.4202>:
    9cf0:	74736574 	ldrbtvc	r6, [r3], #-1396	; 0x574
    9cf4:	00000031 	andeq	r0, r0, r1, lsr r0

00009cf8 <__FUNCTION__.4207>:
    9cf8:	6d746f6e 	ldclvs	15, cr6, [r4, #-440]!	; 0xfffffe48
    9cfc:	006e6961 	rsbeq	r6, lr, r1, ror #18
    9d00:	74736574 	ldrbtvc	r6, [r3], #-1396	; 0x574
    9d04:	61702f73 	cmnvs	r0, r3, ror pc
    9d08:	2d327472 	cfldrscs	mvf7, [r2, #-456]!	; 0xfffffe38
    9d0c:	74736574 	ldrbtvc	r6, [r3], #-1396	; 0x574
    9d10:	00632e31 	rsbeq	r2, r3, r1, lsr lr
    9d14:	43415254 	movtmi	r5, #4692	; 0x1254
    9d18:	00003a45 	andeq	r3, r0, r5, asr #20
    9d1c:	6f6c6c61 	svcvs	0x006c6c61
    9d20:	65722063 	ldrbvs	r2, [r2, #-99]!	; 0x63
    9d24:	6e727574 	mrcvs	5, 3, r7, cr2, cr4, {3}
    9d28:	25206465 	strcs	r6, [r0, #-1125]!	; 0x465
    9d2c:	00000a70 	andeq	r0, r0, r0, ror sl
    9d30:	74204347 	strtvc	r4, [r0], #-839	; 0x347
    9d34:	31747365 	cmncc	r4, r5, ror #6
    9d38:	0000000a 	andeq	r0, r0, sl
    9d3c:	494e4150 	stmdbmi	lr, {r4, r6, r8, lr}^
    9d40:	73253a43 	teqvc	r5, #274432	; 0x43000
    9d44:	3a73253a 	bcc	1cd3234 <__bss_end__+0x1cc861c>
    9d48:	693a6425 	ldmdbvs	sl!, {r0, r2, r5, sl, sp, lr}
    9d4c:	6c61766e 	stclvs	6, cr7, [r1], #-440	; 0xfffffe48
    9d50:	65206469 	strvs	r6, [r0, #-1129]!	; 0x469
    9d54:	726f7272 	rsbvc	r7, pc, #536870919	; 0x20000007
    9d58:	0a0a2121 	beq	2921e4 <__bss_end__+0x2875cc>
    9d5c:	00000000 	andeq	r0, r0, r0
    9d60:	494e4150 	stmdbmi	lr, {r4, r6, r8, lr}^
    9d64:	73253a43 	teqvc	r5, #274432	; 0x43000
    9d68:	3a73253a 	bcc	1cd3258 <__bss_end__+0x1cc8640>
    9d6c:	733a6425 	teqvc	sl, #620756992	; 0x25000000
    9d70:	6c756f68 	ldclvs	15, cr6, [r5], #-416	; 0xfffffe60
    9d74:	61682064 	cmnvs	r8, r4, rrx
    9d78:	6e206576 	mcrvs	5, 1, r6, cr0, cr6, {3}
    9d7c:	656c206f 	strbvs	r2, [ip, #-111]!	; 0x6f
    9d80:	21736b61 	cmncs	r3, r1, ror #22
    9d84:	00000a0a 	andeq	r0, r0, sl, lsl #20

00009d88 <__FUNCTION__.4278>:
    9d88:	63656863 	cmnvs	r5, #6488064	; 0x630000
    9d8c:	64685f6b 	strbtvs	r5, [r8], #-3947	; 0xf6b
    9d90:	00000072 	andeq	r0, r0, r2, ror r0

00009d94 <__FUNCTION__.4265>:
    9d94:	695f6b63 	ldmdbvs	pc, {r0, r1, r5, r6, r8, r9, fp, sp, lr}^	; <UNPREDICTABLE>
    9d98:	0074696e 	rsbseq	r6, r4, lr, ror #18

00009d9c <__FUNCTION__.4304>:
    9d9c:	72666b63 	rsbvc	r6, r6, #101376	; 0x18c00
    9da0:	00006565 	andeq	r6, r0, r5, ror #10

00009da4 <__FUNCTION__.4313>:
    9da4:	6c616b63 	stclvs	11, cr6, [r1], #-396	; 0xfffffe74
    9da8:	00636f6c 	rsbeq	r6, r3, ip, ror #30

00009dac <__FUNCTION__.4324>:
    9dac:	685f6b63 	ldmdavs	pc, {r0, r1, r5, r6, r8, r9, fp, sp, lr}^	; <UNPREDICTABLE>
    9db0:	5f706165 	svcpl	0x00706165
    9db4:	6f727265 	svcvs	0x00727265
    9db8:	00007372 	andeq	r7, r0, r2, ror r3

00009dbc <__FUNCTION__.4333>:
    9dbc:	665f6b63 	ldrbvs	r6, [pc], -r3, ror #22
    9dc0:	74737269 	ldrbtvc	r7, [r3], #-617	; 0x269
    9dc4:	7264685f 	rsbvc	r6, r4, #6225920	; 0x5f0000
    9dc8:	00000000 	andeq	r0, r0, r0

00009dcc <__FUNCTION__.4338>:
    9dcc:	6e5f6b63 	vnmlavs.f64	d22, d15, d19
    9dd0:	5f747865 	svcpl	0x00747865
    9dd4:	00726468 	rsbseq	r6, r2, r8, ror #8
    9dd8:	4f525245 	svcmi	0x00525245
    9ddc:	00003a52 	andeq	r3, r0, r2, asr sl
    9de0:	636f6c62 	cmnvs	pc, #25088	; 0x6200
    9de4:	7025206b 	eorvc	r2, r5, fp, rrx
    9de8:	726f6320 	rsbvc	r6, pc, #32, 6	; 0x80000000
    9dec:	74707572 	ldrbtvc	r7, [r0], #-1394	; 0x572
    9df0:	61206465 	teqvs	r0, r5, ror #8
    9df4:	666f2074 			; <UNDEFINED> instruction: 0x666f2074
    9df8:	74657366 	strbtvc	r7, [r5], #-870	; 0x366
    9dfc:	0a642520 	beq	1913284 <__bss_end__+0x190866c>
    9e00:	00000000 	andeq	r0, r0, r0
    9e04:	79626e09 	stmdbvc	r2!, {r0, r3, r9, sl, fp, sp, lr}^
    9e08:	3d736574 	cfldr64cc	mvdx6, [r3, #-464]!	; 0xfffffe30
    9e0c:	000a6425 	andeq	r6, sl, r5, lsr #8
    9e10:	6f6c4209 	svcvs	0x006c4209
    9e14:	61206b63 	teqvs	r0, r3, ror #22
    9e18:	636f6c6c 	cmnvs	pc, #108, 24	; 0x6c00
    9e1c:	64657461 	strbtvs	r7, [r5], #-1121	; 0x461
    9e20:	3a746120 	bcc	1d222a8 <__bss_end__+0x1d17690>
    9e24:	3a732520 	bcc	1cd32ac <__bss_end__+0x1cc8694>
    9e28:	253a7325 	ldrcs	r7, [sl, #-805]!	; 0x325
    9e2c:	00000a64 	andeq	r0, r0, r4, ror #20
    9e30:	6f6c4209 	svcvs	0x006c4209
    9e34:	66206b63 	strtvs	r6, [r0], -r3, ror #22
    9e38:	64656572 	strbtvs	r6, [r5], #-1394	; 0x572
    9e3c:	3a746120 	bcc	1d222c4 <__bss_end__+0x1d176ac>
    9e40:	3a732520 	bcc	1cd32c8 <__bss_end__+0x1cc86b0>
    9e44:	253a7325 	ldrcs	r7, [sl, #-805]!	; 0x325
    9e48:	00000a64 	andeq	r0, r0, r4, ror #20
    9e4c:	5d695b70 	vstmdbpl	r9!, {d21-<overflow reg d76>}
    9e50:	7825203a 	stmdavc	r5!, {r1, r3, r4, r5, sp}
    9e54:	0000000a 	andeq	r0, r0, sl
    9e58:	494e4150 	stmdbmi	lr, {r4, r6, r8, lr}^
    9e5c:	73253a43 	teqvc	r5, #274432	; 0x43000
    9e60:	3a73253a 	bcc	1cd3350 <__bss_end__+0x1cc8738>
    9e64:	683a6425 	ldmdavs	sl!, {r0, r2, r5, sl, sp, lr}
    9e68:	635f7264 	cmpvs	pc, #100, 4	; 0x40000006
    9e6c:	6d75736b 	ldclvs	3, cr7, [r5, #-428]!	; 0xfffffe54
    9e70:	6c61765f 	stclvs	6, cr7, [r1], #-380	; 0xfffffe84
    9e74:	203d3d20 	eorscs	r3, sp, r0, lsr #26
    9e78:	633e2d68 	teqvs	lr, #104, 26	; 0x1a00
    9e7c:	6d75736b 	ldclvs	3, cr7, [r5, #-428]!	; 0xfffffe54
    9e80:	0000000a 	andeq	r0, r0, sl
    9e84:	6c616b63 	stclvs	11, cr6, [r1], #-396	; 0xfffffe74
    9e88:	2e636f6c 	cdpcs	15, 6, cr6, cr3, cr12, {3}
    9e8c:	00000063 	andeq	r0, r0, r3, rrx
    9e90:	494e4150 	stmdbmi	lr, {r4, r6, r8, lr}^
    9e94:	73253a43 	teqvc	r5, #274432	; 0x43000
    9e98:	3a73253a 	bcc	1cd3388 <__bss_end__+0x1cc8770>
    9e9c:	683a6425 	ldmdavs	sl!, {r0, r2, r5, sl, sp, lr}
    9ea0:	74733e2d 	ldrbtvc	r3, [r3], #-3629	; 0xe2d
    9ea4:	20657461 	rsbcs	r7, r5, r1, ror #8
    9ea8:	41203d3d 	teqmi	r0, sp, lsr sp
    9eac:	434f4c4c 	movtmi	r4, #64588	; 0xfc4c
    9eb0:	7c204445 	cfstrsvc	mvf4, [r0], #-276	; 0xfffffeec
    9eb4:	2d68207c 	stclcs	0, cr2, [r8, #-496]!	; 0xfffffe10
    9eb8:	6174733e 	cmnvs	r4, lr, lsr r3
    9ebc:	3d206574 	cfstr32cc	mvfx6, [r0, #-464]!	; 0xfffffe30
    9ec0:	5246203d 	subpl	r2, r6, #61	; 0x3d
    9ec4:	0a444545 	beq	111b3e0 <__bss_end__+0x11107c8>
    9ec8:	00000000 	andeq	r0, r0, r0
    9ecc:	494e4150 	stmdbmi	lr, {r4, r6, r8, lr}^
    9ed0:	73253a43 	teqvc	r5, #274432	; 0x43000
    9ed4:	3a73253a 	bcc	1cd33c4 <__bss_end__+0x1cc87ac>
    9ed8:	613a6425 	teqvs	sl, r5, lsr #8
    9edc:	6e67696c 	cdpvs	9, 6, cr6, cr7, cr12, {3}
    9ee0:	68286465 	stmdavs	r8!, {r0, r2, r5, r6, sl, sp, lr}
    9ee4:	5f706165 	svcpl	0x00706165
    9ee8:	72617473 	rsbvc	r7, r1, #1929379840	; 0x73000000
    9eec:	38202c74 	stmdacc	r0!, {r2, r4, r5, r6, sl, fp, sp}
    9ef0:	00000a29 	andeq	r0, r0, r9, lsr #20
    9ef4:	657a6973 	ldrbvs	r6, [sl, #-2419]!	; 0x973
    9ef8:	6820666f 	stmdavs	r0!, {r0, r1, r2, r3, r5, r6, r9, sl, sp, lr}
    9efc:	253d7264 	ldrcs	r7, [sp, #-612]!	; 0x264
    9f00:	72202c64 	eorvc	r2, r0, #100, 24	; 0x6400
    9f04:	6f7a6465 	svcvs	0x007a6465
    9f08:	253d656e 	ldrcs	r6, [sp, #-1390]!	; 0x56e
    9f0c:	00000a64 	andeq	r0, r0, r4, ror #20
    9f10:	4f525245 	svcmi	0x00525245
    9f14:	73253a52 	teqvc	r5, #335872	; 0x52000
    9f18:	3a73253a 	bcc	1cd3408 <__bss_end__+0x1cc87f0>
    9f1c:	203a6425 	eorscs	r6, sl, r5, lsr #8
    9f20:	534c4146 	movtpl	r4, #49478	; 0xc146
    9f24:	683c2845 	ldmdavs	ip!, {r0, r2, r6, fp, sp}
    9f28:	3e706165 	rpwccsz	f6, f0, f5
    9f2c:	6e203a29 	vmulvs.f32	s6, s0, s19
    9f30:	6920746f 	stmdbvs	r0!, {r0, r1, r2, r3, r5, r6, sl, ip, sp, lr}
    9f34:	6974696e 	ldmdbvs	r4!, {r1, r2, r3, r5, r6, r8, fp, sp, lr}^
    9f38:	7a696c61 	bvc	1a650c4 <__bss_end__+0x1a5a4ac>
    9f3c:	0a3f6465 	beq	fe30d8 <__bss_end__+0xfd84c0>
    9f40:	00000000 	andeq	r0, r0, r0
    9f44:	65657266 	strbvs	r7, [r5, #-614]!	; 0x266
    9f48:	20676e69 	rsbcs	r6, r7, r9, ror #28
    9f4c:	000a7025 	andeq	r7, sl, r5, lsr #32
    9f50:	6f6c6c61 	svcvs	0x006c6c61
    9f54:	69746163 	ldmdbvs	r4!, {r0, r1, r5, r6, r8, sp, lr}^
    9f58:	2520676e 	strcs	r6, [r0, #-1902]!	; 0x76e
    9f5c:	79622064 	stmdbvc	r2!, {r2, r5, r6, sp}^
    9f60:	0a736574 	beq	1ce3538 <__bss_end__+0x1cd8920>
    9f64:	00000000 	andeq	r0, r0, r0
    9f68:	43415254 	movtmi	r5, #4692	; 0x1254
    9f6c:	52453a45 	subpl	r3, r5, #282624	; 0x45000
    9f70:	00524f52 	subseq	r4, r2, r2, asr pc
    9f74:	657a6973 	ldrbvs	r6, [sl, #-2419]!	; 0x973
    9f78:	65766f20 	ldrbvs	r6, [r6, #-3872]!	; 0xf20
    9f7c:	6f6c6672 	svcvs	0x006c6672
    9f80:	3a646577 	bcc	1923564 <__bss_end__+0x191894c>
    9f84:	20642520 	rsbcs	r2, r4, r0, lsr #10
    9f88:	65747962 	ldrbvs	r7, [r4, #-2402]!	; 0x962
    9f8c:	73692073 	cmnvc	r9, #115	; 0x73
    9f90:	6f6f7420 	svcvs	0x006f7420
    9f94:	72616c20 	rsbvc	r6, r1, #32, 24	; 0x2000
    9f98:	000a6567 	andeq	r6, sl, r7, ror #10
    9f9c:	494e4150 	stmdbmi	lr, {r4, r6, r8, lr}^
    9fa0:	73253a43 	teqvc	r5, #274432	; 0x43000
    9fa4:	3a73253a 	bcc	1cd3494 <__bss_end__+0x1cc887c>
    9fa8:	733a6425 	teqvc	sl, #620756992	; 0x25000000
    9fac:	20657a69 	rsbcs	r7, r5, r9, ror #20
    9fb0:	7265766f 	rsbvc	r7, r5, #116391936	; 0x6f00000
    9fb4:	776f6c66 	strbvc	r6, [pc, -r6, ror #24]!
    9fb8:	203a6465 	eorscs	r6, sl, r5, ror #8
    9fbc:	62206425 	eorvs	r6, r0, #620756992	; 0x25000000
    9fc0:	73657479 	cmnvc	r5, #2030043136	; 0x79000000
    9fc4:	20736920 	rsbscs	r6, r3, r0, lsr #18
    9fc8:	206f6f74 	rsbcs	r6, pc, r4, ror pc	; <UNPREDICTABLE>
    9fcc:	6772616c 	ldrbvs	r6, [r2, -ip, ror #2]!
    9fd0:	000a0a65 	andeq	r0, sl, r5, ror #20
    9fd4:	2074756f 	rsbscs	r7, r4, pc, ror #10
    9fd8:	6d20666f 	stcvs	6, cr6, [r0, #-444]!	; 0xfffffe44
    9fdc:	726f6d65 	rsbvc	r6, pc, #6464	; 0x1940
    9fe0:	20202179 	eorcs	r2, r0, r9, ror r1
    9fe4:	65766168 	ldrbvs	r6, [r6, #-360]!	; 0x168
    9fe8:	6c6e6f20 	stclvs	15, cr6, [lr], #-128	; 0xffffff80
    9fec:	64252079 	strtvs	r2, [r5], #-121	; 0x79
    9ff0:	66656c20 	strbtvs	r6, [r5], -r0, lsr #24
    9ff4:	6e202c74 	mcrvs	12, 1, r2, cr0, cr4, {3}
    9ff8:	20646565 	rsbcs	r6, r4, r5, ror #10
    9ffc:	000a6425 	andeq	r6, sl, r5, lsr #8
    a000:	494e4150 	stmdbmi	lr, {r4, r6, r8, lr}^
    a004:	73253a43 	teqvc	r5, #274432	; 0x43000
    a008:	3a73253a 	bcc	1cd34f8 <__bss_end__+0x1cc88e0>
    a00c:	6f3a6425 	svcvs	0x003a6425
    a010:	6f207475 	svcvs	0x00207475
    a014:	656d2066 	strbvs	r2, [sp, #-102]!	; 0x66
    a018:	79726f6d 	ldmdbvc	r2!, {r0, r2, r3, r5, r6, r8, r9, sl, fp, sp, lr}^
    a01c:	68202021 	stmdavs	r0!, {r0, r5, sp}
    a020:	20657661 	rsbcs	r7, r5, r1, ror #12
    a024:	796c6e6f 	stmdbvc	ip!, {r0, r1, r2, r3, r5, r6, r9, sl, fp, sp, lr}^
    a028:	20642520 	rsbcs	r2, r4, r0, lsr #10
    a02c:	7466656c 	strbtvc	r6, [r6], #-1388	; 0x56c
    a030:	656e202c 	strbvs	r2, [lr, #-44]!	; 0x2c
    a034:	25206465 	strcs	r6, [r0, #-1125]!	; 0x465
    a038:	000a0a64 	andeq	r0, sl, r4, ror #20
    a03c:	494e4150 	stmdbmi	lr, {r4, r6, r8, lr}^
    a040:	73253a43 	teqvc	r5, #274432	; 0x43000
    a044:	3a73253a 	bcc	1cd3534 <__bss_end__+0x1cc891c>
    a048:	633a6425 	teqvs	sl, #620756992	; 0x25000000
    a04c:	6b636568 	blvs	18e35f4 <__bss_end__+0x18d89dc>
    a050:	7264685f 	rsbvc	r6, r4, #6225920	; 0x5f0000
    a054:	0a296828 	beq	a640fc <__bss_end__+0xa594e4>
    a058:	00000000 	andeq	r0, r0, r0
    a05c:	494e4150 	stmdbmi	lr, {r4, r6, r8, lr}^
    a060:	73253a43 	teqvc	r5, #274432	; 0x43000
    a064:	3a73253a 	bcc	1cd3554 <__bss_end__+0x1cc893c>
    a068:	633a6425 	teqvs	sl, #620756992	; 0x25000000
    a06c:	6b636568 	blvs	18e3614 <__bss_end__+0x18d89fc>
    a070:	6f6c625f 	svcvs	0x006c625f
    a074:	68286b63 	stmdavs	r8!, {r0, r1, r5, r6, r8, r9, fp, sp, lr}
    a078:	00000a29 	andeq	r0, r0, r9, lsr #20
    a07c:	6c616b63 	stclvs	11, cr6, [r1], #-396	; 0xfffffe74
    a080:	3a636f6c 	bcc	18e5e38 <__bss_end__+0x18db220>
    a084:	6f6c6c61 	svcvs	0x006c6c61
    a088:	65746163 	ldrbvs	r6, [r4, #-355]!	; 0x163
    a08c:	64252064 	strtvs	r2, [r5], #-100	; 0x64
    a090:	74796220 	ldrbtvc	r6, [r9], #-544	; 0x220
    a094:	202c7365 	eorcs	r7, ip, r5, ror #6
    a098:	746f7428 	strbtvc	r7, [pc], #-1064	; a0a0 <__FUNCTION__.4338+0x2d4>
    a09c:	253d6c61 	ldrcs	r6, [sp, #-3169]!	; 0xc61
    a0a0:	202c2964 	eorcs	r2, ip, r4, ror #18
    a0a4:	3d727470 	cfldrdcc	mvd7, [r2, #-448]!	; 0xfffffe40
    a0a8:	000a7025 	andeq	r7, sl, r5, lsr #32
    a0ac:	6e696f67 	cdpvs	15, 6, cr6, cr9, cr7, {3}
    a0b0:	6f742067 	svcvs	0x00742067
    a0b4:	65686320 	strbvs	r6, [r8, #-800]!	; 0x320
    a0b8:	68206b63 	stmdavs	r0!, {r0, r1, r5, r6, r8, r9, fp, sp, lr}
    a0bc:	3a706165 	bcc	1c22658 <__bss_end__+0x1c17a40>
    a0c0:	20642520 	rsbcs	r2, r4, r0, lsr #10
    a0c4:	65747962 	ldrbvs	r7, [r4, #-2402]!	; 0x962
    a0c8:	6c612073 	stclvs	0, cr2, [r1], #-460	; 0xfffffe34
    a0cc:	61636f6c 	cmnvs	r3, ip, ror #30
    a0d0:	2c646574 	cfstr64cs	mvdx6, [r4], #-464	; 0xfffffe30
    a0d4:	20642520 	rsbcs	r2, r4, r0, lsr #10
    a0d8:	65747962 	ldrbvs	r7, [r4, #-2402]!	; 0x962
    a0dc:	656c2073 	strbvs	r2, [ip, #-115]!	; 0x73
    a0e0:	000a7466 	andeq	r7, sl, r6, ror #8
    a0e4:	494e4150 	stmdbmi	lr, {r4, r6, r8, lr}^
    a0e8:	73253a43 	teqvc	r5, #274432	; 0x43000
    a0ec:	3a73253a 	bcc	1cd35dc <__bss_end__+0x1cc89c4>
    a0f0:	633a6425 	teqvs	sl, #620756992	; 0x25000000
    a0f4:	6b636568 	blvs	18e369c <__bss_end__+0x18d8a84>
    a0f8:	7274705f 	rsbsvc	r7, r4, #95	; 0x5f
    a0fc:	68203c20 	stmdavs	r0!, {r5, sl, fp, ip, sp}
    a100:	0a706165 	beq	1c2269c <__bss_end__+0x1c17a84>
    a104:	00000000 	andeq	r0, r0, r0
    a108:	64616568 	strbtvs	r6, [r1], #-1384	; 0x568
    a10c:	69207265 	stmdbvs	r0!, {r0, r2, r5, r6, r9, ip, sp, lr}
    a110:	6f632073 	svcvs	0x00632073
    a114:	70757272 	rsbsvc	r7, r5, r2, ror r2
    a118:	00646574 	rsbeq	r6, r4, r4, ror r5
    a11c:	6f725709 	svcvs	0x00725709
    a120:	62206574 	eorvs	r6, r0, #116, 10	; 0x1d000000
    a124:	6b636f6c 	blvs	18e5edc <__bss_end__+0x18db2c4>
    a128:	74666120 	strbtvc	r6, [r6], #-288	; 0x120
    a12c:	66207265 	strtvs	r7, [r0], -r5, ror #4
    a130:	21656572 	smccs	22098	; 0x5652
    a134:	0000000a 	andeq	r0, r0, sl
    a138:	63656863 	cmnvs	r5, #6488064	; 0x630000
    a13c:	2064656b 	rsbcs	r6, r4, fp, ror #10
    a140:	62206425 	eorvs	r6, r0, #620756992	; 0x25000000
    a144:	6b636f6c 	blvs	18e5efc <__bss_end__+0x18db2e4>
    a148:	64202c73 	strtvs	r2, [r0], #-3187	; 0xc73
    a14c:	63657465 	cmnvs	r5, #1694498816	; 0x65000000
    a150:	20646574 	rsbcs	r6, r4, r4, ror r5
    a154:	65206425 	strvs	r6, [r0, #-1061]!	; 0x425
    a158:	726f7272 	rsbvc	r7, pc, #536870919	; 0x20000007
    a15c:	00000a73 	andeq	r0, r0, r3, ror sl
    a160:	43435553 	movtmi	r5, #13651	; 0x3553
    a164:	3a535345 	bcc	14dee80 <__bss_end__+0x14d4268>
    a168:	65686320 	strbvs	r6, [r8, #-800]!	; 0x320
    a16c:	64656b63 	strbtvs	r6, [r5], #-2915	; 0xb63
    a170:	20642520 	rsbcs	r2, r4, r0, lsr #10
    a174:	636f6c62 	cmnvs	pc, #25088	; 0x6200
    a178:	202c736b 	eorcs	r7, ip, fp, ror #6
    a17c:	65746564 	ldrbvs	r6, [r4, #-1380]!	; 0x564
    a180:	64657463 	strbtvs	r7, [r5], #-1123	; 0x463
    a184:	206f6e20 	rsbcs	r6, pc, r0, lsr #28
    a188:	6f727265 	svcvs	0x00727265
    a18c:	000a7372 	andeq	r7, sl, r2, ror r3
    a190:	494e4150 	stmdbmi	lr, {r4, r6, r8, lr}^
    a194:	73253a43 	teqvc	r5, #274432	; 0x43000
    a198:	3a73253a 	bcc	1cd3688 <__bss_end__+0x1cc8a70>
    a19c:	633a6425 	teqvs	sl, #620756992	; 0x25000000
    a1a0:	6b636568 	blvs	18e3748 <__bss_end__+0x18d8b30>
    a1a4:	7264685f 	rsbvc	r6, r4, #6225920	; 0x5f0000
    a1a8:	72756328 	rsbsvc	r6, r5, #40, 6	; 0xa0000000
    a1ac:	64685f72 	strbtvs	r5, [r8], #-3954	; 0xf72
    a1b0:	000a2972 	andeq	r2, sl, r2, ror r9
    a1b4:	494e4150 	stmdbmi	lr, {r4, r6, r8, lr}^
    a1b8:	73253a43 	teqvc	r5, #274432	; 0x43000
    a1bc:	3a73253a 	bcc	1cd36ac <__bss_end__+0x1cc8a94>
    a1c0:	283a6425 	ldmdacs	sl!, {r0, r2, r5, sl, sp, lr}
    a1c4:	746e6975 	strbtvc	r6, [lr], #-2421	; 0x975
    a1c8:	2a745f38 	bcs	1d21eb0 <__bss_end__+0x1d17298>
    a1cc:	78656e29 	stmdavc	r5!, {r0, r3, r5, r9, sl, fp, sp, lr}^
    a1d0:	64685f74 	strbtvs	r5, [r8], #-3956	; 0xf74
    a1d4:	203c2072 	eorscs	r2, ip, r2, ror r0
    a1d8:	70616568 	rsbvc	r6, r1, r8, ror #10
    a1dc:	0000000a 	andeq	r0, r0, sl
    a1e0:	494e4150 	stmdbmi	lr, {r4, r6, r8, lr}^
    a1e4:	73253a43 	teqvc	r5, #274432	; 0x43000
    a1e8:	3a73253a 	bcc	1cd36d8 <__bss_end__+0x1cc8ac0>
    a1ec:	633a6425 	teqvs	sl, #620756992	; 0x25000000
    a1f0:	6b636568 	blvs	18e3798 <__bss_end__+0x18d8b80>
    a1f4:	7264685f 	rsbvc	r6, r4, #6225920	; 0x5f0000
    a1f8:	78656e28 	stmdavc	r5!, {r3, r5, r9, sl, fp, sp, lr}^
    a1fc:	64685f74 	strbtvs	r5, [r8], #-3956	; 0xf74
    a200:	000a2972 	andeq	r2, sl, r2, ror r9

0000a204 <__FUNCTION__.4279>:
    a204:	6b72616d 	blvs	1ca27c0 <__bss_end__+0x1c97ba8>
    a208:	00000000 	andeq	r0, r0, r0

0000a20c <__FUNCTION__.4307>:
    a20c:	6b72616d 	blvs	1ca27c8 <__bss_end__+0x1c97bb0>
    a210:	6c6c615f 	stfvse	f6, [ip], #-380	; 0xfffffe84
    a214:	00000000 	andeq	r0, r0, r0

0000a218 <__FUNCTION__.4345>:
    a218:	65657773 	strbvs	r7, [r5, #-1907]!	; 0x773
    a21c:	72665f70 	rsbvc	r5, r6, #112, 30	; 0x1c0
    a220:	00006565 	andeq	r6, r0, r5, ror #10

0000a224 <__FUNCTION__.4327>:
    a224:	63656863 	cmnvs	r5, #6488064	; 0x630000
    a228:	6f6e5f6b 	svcvs	0x006e5f6b
    a22c:	61656c5f 	cmnvs	r5, pc, asr ip
    a230:	0000006b 	andeq	r0, r0, fp, rrx

0000a234 <__FUNCTION__.4331>:
    a234:	63656863 	cmnvs	r5, #6488064	; 0x630000
    a238:	68735f6b 	ldmdavs	r3!, {r0, r1, r3, r5, r6, r8, r9, sl, fp, ip, lr}^
    a23c:	646c756f 	strbtvs	r7, [ip], #-1391	; 0x56f
    a240:	61656c5f 	cmnvs	r5, pc, asr ip
    a244:	0000006b 	andeq	r0, r0, fp, rrx

0000a248 <__FUNCTION__.4336>:
    a248:	6c706d69 	ldclvs	13, cr6, [r0], #-420	; 0xfffffe5c
    a24c:	6e656d65 	cdpvs	13, 6, cr6, cr5, cr5, {3}
    a250:	68745f74 	ldmdavs	r4!, {r2, r4, r5, r6, r8, r9, sl, fp, ip, lr}^
    a254:	00007369 	andeq	r7, r0, r9, ror #6
    a258:	2d2d2d2d 	stccs	13, cr2, [sp, #-180]!	; 0xffffff4c
    a25c:	2d2d2d2d 	stccs	13, cr2, [sp, #-180]!	; 0xffffff4c
    a260:	2d2d2d2d 	stccs	13, cr2, [sp, #-180]!	; 0xffffff4c
    a264:	2d2d2d2d 	stccs	13, cr2, [sp, #-180]!	; 0xffffff4c
    a268:	2d2d2d2d 	stccs	13, cr2, [sp, #-180]!	; 0xffffff4c
    a26c:	2d2d2d2d 	stccs	13, cr2, [sp, #-180]!	; 0xffffff4c
    a270:	2d2d2d2d 	stccs	13, cr2, [sp, #-180]!	; 0xffffff4c
    a274:	2d2d2d2d 	stccs	13, cr2, [sp, #-180]!	; 0xffffff4c
    a278:	2d2d2d2d 	stccs	13, cr2, [sp, #-180]!	; 0xffffff4c
    a27c:	2d2d2d2d 	stccs	13, cr2, [sp, #-180]!	; 0xffffff4c
    a280:	2d2d2d2d 	stccs	13, cr2, [sp, #-180]!	; 0xffffff4c
    a284:	2d2d2d2d 	stccs	13, cr2, [sp, #-180]!	; 0xffffff4c
    a288:	2d2d2d2d 	stccs	13, cr2, [sp, #-180]!	; 0xffffff4c
    a28c:	2d2d2d2d 	stccs	13, cr2, [sp, #-180]!	; 0xffffff4c
    a290:	00000a2d 	andeq	r0, r0, sp, lsr #20
    a294:	63656863 	cmnvs	r5, #6488064	; 0x630000
    a298:	676e696b 	strbvs	r6, [lr, -fp, ror #18]!
    a29c:	726f6620 	rsbvc	r6, pc, #32, 12	; 0x2000000
    a2a0:	61656c20 	cmnvs	r5, r0, lsr #24
    a2a4:	0a3a736b 	beq	ea7058 <__bss_end__+0xe9c440>
    a2a8:	00000000 	andeq	r0, r0, r0
    a2ac:	4f525245 	svcmi	0x00525245
    a2b0:	43473a52 	movtmi	r3, #31314	; 0x7a52
    a2b4:	4645443a 			; <UNDEFINED> instruction: 0x4645443a
    a2b8:	54494e49 	strbpl	r4, [r9], #-3657	; 0xe49
    a2bc:	454c2045 	strbmi	r2, [ip, #-69]	; 0x45
    a2c0:	6f204b41 	svcvs	0x00204b41
    a2c4:	78252066 	stmdavc	r5!, {r1, r2, r5, r6, sp}
    a2c8:	0000000a 	andeq	r0, r0, sl
    a2cc:	4f525245 	svcmi	0x00525245
    a2d0:	43473a52 	movtmi	r3, #31314	; 0x7a52
    a2d4:	59414d3a 	stmdbpl	r1, {r1, r3, r4, r5, r8, sl, fp, lr}^
    a2d8:	4c204542 	cfstr32mi	mvfx4, [r0], #-264	; 0xfffffef8
    a2dc:	204b4145 	subcs	r4, fp, r5, asr #2
    a2e0:	2520666f 	strcs	r6, [r0, #-1647]!	; 0x66f
    a2e4:	6e282078 	mcrvs	0, 1, r2, cr8, cr8, {3}
    a2e8:	6f70206f 	svcvs	0x0070206f
    a2ec:	65746e69 	ldrbvs	r6, [r4, #-3689]!	; 0xe69
    a2f0:	6f742072 	svcvs	0x00742072
    a2f4:	65687420 	strbvs	r7, [r8, #-1056]!	; 0x420
    a2f8:	61747320 	cmnvs	r4, r0, lsr #6
    a2fc:	0a297472 	beq	a674cc <__bss_end__+0xa5c8b4>
    a300:	00000000 	andeq	r0, r0, r0
    a304:	3a434709 	bcc	10dbf30 <__bss_end__+0x10d1318>
    a308:	63656843 	cmnvs	r5, #4390912	; 0x430000
    a30c:	2064656b 	rsbcs	r6, r4, fp, ror #10
    a310:	62206425 	eorvs	r6, r0, #620756992	; 0x25000000
    a314:	6b636f6c 	blvs	18e60cc <__bss_end__+0x18db4b4>
    a318:	000a2e73 	andeq	r2, sl, r3, ror lr
    a31c:	43470909 	movtmi	r0, #30985	; 0x7909
    a320:	4355533a 	cmpmi	r5, #-402653184	; 0xe8000000
    a324:	53534543 	cmppl	r3, #281018368	; 0x10c00000
    a328:	6f4e203a 	svcvs	0x004e203a
    a32c:	61656c20 	cmnvs	r5, r0, lsr #24
    a330:	6620736b 	strtvs	r7, [r0], -fp, ror #6
    a334:	646e756f 	strbtvs	r7, [lr], #-1391	; 0x56f
    a338:	00000a21 	andeq	r0, r0, r1, lsr #20
    a33c:	43470909 	movtmi	r0, #30985	; 0x7909
    a340:	5252453a 	subspl	r4, r2, #243269632	; 0xe800000
    a344:	3a53524f 	bcc	14dec88 <__bss_end__+0x14d4070>
    a348:	20642520 	rsbcs	r2, r4, r0, lsr #10
    a34c:	6f727265 	svcvs	0x00727265
    a350:	202c7372 	eorcs	r7, ip, r2, ror r3
    a354:	6d206425 	cfstrsvs	mvf6, [r0, #-148]!	; 0xffffff6c
    a358:	65627961 	strbvs	r7, [r2, #-2401]!	; 0x961
    a35c:	7272655f 	rsbsvc	r6, r2, #398458880	; 0x17c00000
    a360:	0a73726f 	beq	1ce6d24 <__bss_end__+0x1cdc10c>
    a364:	00000000 	andeq	r0, r0, r0
    a368:	2d2d2d2d 	stccs	13, cr2, [sp, #-180]!	; 0xffffff4c
    a36c:	2d2d2d2d 	stccs	13, cr2, [sp, #-180]!	; 0xffffff4c
    a370:	2d2d2d2d 	stccs	13, cr2, [sp, #-180]!	; 0xffffff4c
    a374:	2d2d2d2d 	stccs	13, cr2, [sp, #-180]!	; 0xffffff4c
    a378:	2d2d2d2d 	stccs	13, cr2, [sp, #-180]!	; 0xffffff4c
    a37c:	2d2d2d2d 	stccs	13, cr2, [sp, #-180]!	; 0xffffff4c
    a380:	2d2d2d2d 	stccs	13, cr2, [sp, #-180]!	; 0xffffff4c
    a384:	2d2d2d2d 	stccs	13, cr2, [sp, #-180]!	; 0xffffff4c
    a388:	2d2d2d2d 	stccs	13, cr2, [sp, #-180]!	; 0xffffff4c
    a38c:	2d2d2d2d 	stccs	13, cr2, [sp, #-180]!	; 0xffffff4c
    a390:	2d2d2d2d 	stccs	13, cr2, [sp, #-180]!	; 0xffffff4c
    a394:	2d2d2d2d 	stccs	13, cr2, [sp, #-180]!	; 0xffffff4c
    a398:	2d2d2d2d 	stccs	13, cr2, [sp, #-180]!	; 0xffffff4c
    a39c:	2d2d2d2d 	stccs	13, cr2, [sp, #-180]!	; 0xffffff4c
    a3a0:	000a2d2d 	andeq	r2, sl, sp, lsr #26
    a3a4:	494e4150 	stmdbmi	lr, {r4, r6, r8, lr}^
    a3a8:	73253a43 	teqvc	r5, #274432	; 0x43000
    a3ac:	3a73253a 	bcc	1cd389c <__bss_end__+0x1cc8c84>
    a3b0:	703a6425 	eorsvc	r6, sl, r5, lsr #8
    a3b4:	000a653c 	andeq	r6, sl, ip, lsr r5
    a3b8:	672d6b63 	strvs	r6, [sp, -r3, ror #22]!
    a3bc:	00632e63 	rsbeq	r2, r3, r3, ror #28
    a3c0:	494e4150 	stmdbmi	lr, {r4, r6, r8, lr}^
    a3c4:	73253a43 	teqvc	r5, #274432	; 0x43000
    a3c8:	3a73253a 	bcc	1cd38b8 <__bss_end__+0x1cc8ca0>
    a3cc:	613a6425 	teqvs	sl, r5, lsr #8
    a3d0:	6e67696c 	cdpvs	9, 6, cr6, cr7, cr12, {3}
    a3d4:	70286465 	eorvc	r6, r8, r5, ror #8
    a3d8:	0a29342c 	beq	a57490 <__bss_end__+0xa4c878>
    a3dc:	00000000 	andeq	r0, r0, r0
    a3e0:	494e4150 	stmdbmi	lr, {r4, r6, r8, lr}^
    a3e4:	73253a43 	teqvc	r5, #274432	; 0x43000
    a3e8:	3a73253a 	bcc	1cd38d8 <__bss_end__+0x1cc8cc0>
    a3ec:	613a6425 	teqvs	sl, r5, lsr #8
    a3f0:	6e67696c 	cdpvs	9, 6, cr6, cr7, cr12, {3}
    a3f4:	65286465 	strvs	r6, [r8, #-1125]!	; 0x465
    a3f8:	0a29342c 	beq	a574b0 <__bss_end__+0xa4c898>
    a3fc:	00000000 	andeq	r0, r0, r0
    a400:	494e4150 	stmdbmi	lr, {r4, r6, r8, lr}^
    a404:	73253a43 	teqvc	r5, #274432	; 0x43000
    a408:	3a73253a 	bcc	1cd38f8 <__bss_end__+0x1cc8ce0>
    a40c:	723a6425 	eorsvc	r6, sl, #620756992	; 0x25000000
    a410:	5b736765 	blpl	1ce41ac <__bss_end__+0x1cd9594>
    a414:	3d205d30 	stccc	13, cr5, [r0, #-192]!	; 0xffffff40
    a418:	7528203d 	strvc	r2, [r8, #-61]!	; 0x3d
    a41c:	33746e69 	cmncc	r4, #1680	; 0x690
    a420:	29745f32 	ldmdbcs	r4!, {r1, r4, r5, r8, r9, sl, fp, ip, lr}^
    a424:	67657226 	strbvs	r7, [r5, -r6, lsr #4]!
    a428:	5d305b73 	fldmdbxpl	r0!, {d5-d61}	;@ Deprecated
    a42c:	0000000a 	andeq	r0, r0, sl
    a430:	706d6f63 	rsbvc	r6, sp, r3, ror #30
    a434:	69746361 	ldmdbvs	r4!, {r0, r5, r6, r8, r9, sp, lr}^
    a438:	0a3a676e 	beq	ea41f8 <__bss_end__+0xe995e0>
    a43c:	00000000 	andeq	r0, r0, r0
    a440:	463a4347 	ldrtmi	r4, [sl], -r7, asr #6
    a444:	69454552 	stmdbvs	r5, {r1, r4, r6, r8, sl, lr}^
    a448:	7020676e 	eorvc	r6, r0, lr, ror #14
    a44c:	253d7274 	ldrcs	r7, [sp, #-628]!	; 0x274
    a450:	00000a78 	andeq	r0, r0, r8, ror sl
    a454:	3a434709 	bcc	10dc080 <__bss_end__+0x10d1468>
    a458:	63656843 	cmnvs	r5, #4390912	; 0x430000
    a45c:	2064656b 	rsbcs	r6, r4, fp, ror #10
    a460:	62206425 	eorvs	r6, r0, #620756992	; 0x25000000
    a464:	6b636f6c 	blvs	18e621c <__bss_end__+0x18db604>
    a468:	66202c73 			; <UNDEFINED> instruction: 0x66202c73
    a46c:	64656572 	strbtvs	r6, [r5], #-1394	; 0x572
    a470:	2c642520 	cfstr64cs	mvdx2, [r4], #-128	; 0xffffff80
    a474:	20642520 	rsbcs	r2, r4, r0, lsr #10
    a478:	65747962 	ldrbvs	r7, [r4, #-2402]!	; 0x962
    a47c:	00000a73 	andeq	r0, r0, r3, ror sl
    a480:	3a434709 	bcc	10dc0ac <__bss_end__+0x10d1494>
    a484:	61746f74 	cmnvs	r4, r4, ror pc
    a488:	6c61206c 	stclvs	0, cr2, [r1], #-432	; 0xfffffe50
    a48c:	61636f6c 	cmnvs	r3, ip, ror #30
    a490:	20646574 	rsbcs	r6, r4, r4, ror r5
    a494:	6425203d 	strtvs	r2, [r5], #-61	; 0x3d
    a498:	6f74202c 	svcvs	0x0074202c
    a49c:	206c6174 	rsbcs	r6, ip, r4, ror r1
    a4a0:	6c616564 	cfstr64vs	mvdx6, [r1], #-400	; 0xfffffe70
    a4a4:	61636f6c 	cmnvs	r3, ip, ror #30
    a4a8:	20646574 	rsbcs	r6, r4, r4, ror r5
    a4ac:	6425203d 	strtvs	r2, [r5], #-61	; 0x3d
    a4b0:	0000000a 	andeq	r0, r0, sl
    a4b4:	494e4150 	stmdbmi	lr, {r4, r6, r8, lr}^
    a4b8:	73253a43 	teqvc	r5, #274432	; 0x43000
    a4bc:	3a73253a 	bcc	1cd39ac <__bss_end__+0x1cc8d94>
    a4c0:	473a6425 	ldrmi	r6, [sl, -r5, lsr #8]!
    a4c4:	69203a43 	stmdbvs	r0!, {r0, r1, r6, r9, fp, ip, sp}
    a4c8:	6c61766e 	stclvs	6, cr7, [r1], #-440	; 0xfffffe48
    a4cc:	65206469 	strvs	r6, [r0, #-1129]!	; 0x469
    a4d0:	726f7272 	rsbvc	r7, pc, #536870919	; 0x20000007
    a4d4:	0a0a2121 	beq	292960 <__bss_end__+0x287d48>
    a4d8:	00000000 	andeq	r0, r0, r0
    a4dc:	203a4347 	eorscs	r4, sl, r7, asr #6
    a4e0:	43435553 	movtmi	r5, #13651	; 0x3553
    a4e4:	20535345 	subscs	r5, r3, r5, asr #6
    a4e8:	70616568 	rsbvc	r6, r1, r8, ror #10
    a4ec:	65686320 	strbvs	r6, [r8, #-800]!	; 0x320
    a4f0:	64656b63 	strbtvs	r6, [r5], #-2915	; 0xb63
    a4f4:	74756f20 	ldrbtvc	r6, [r5], #-3872	; 0xf20
    a4f8:	0000000a 	andeq	r0, r0, sl
    a4fc:	494e4150 	stmdbmi	lr, {r4, r6, r8, lr}^
    a500:	73253a43 	teqvc	r5, #274432	; 0x43000
    a504:	3a73253a 	bcc	1cd39f4 <__bss_end__+0x1cc8ddc>
    a508:	473a6425 	ldrmi	r6, [sl, -r5, lsr #8]!
    a50c:	73203a43 	teqvc	r0, #274432	; 0x43000
    a510:	6c756f68 	ldclvs	15, cr6, [r5], #-416	; 0xfffffe60
    a514:	61682064 	cmnvs	r8, r4, rrx
    a518:	6e206576 	mcrvs	5, 1, r6, cr0, cr6, {3}
    a51c:	656c206f 	strbvs	r2, [ip, #-111]!	; 0x6f
    a520:	21736b61 	cmncs	r3, r1, ror #22
    a524:	00000a0a 	andeq	r0, r0, sl, lsl #20
    a528:	203a4347 	eorscs	r4, sl, r7, asr #6
    a52c:	43435553 	movtmi	r5, #13651	; 0x3553
    a530:	3a535345 	bcc	14df24c <__bss_end__+0x14d4634>
    a534:	206f6e20 	rsbcs	r6, pc, r0, lsr #28
    a538:	6b61656c 	blvs	1863af0 <__bss_end__+0x1858ed8>
    a53c:	000a2173 	andeq	r2, sl, r3, ror r1
    a540:	494e4150 	stmdbmi	lr, {r4, r6, r8, lr}^
    a544:	73253a43 	teqvc	r5, #274432	; 0x43000
    a548:	3a73253a 	bcc	1cd3a38 <__bss_end__+0x1cc8e20>
    a54c:	473a6425 	ldrmi	r6, [sl, -r5, lsr #8]!
    a550:	73203a43 	teqvc	r0, #274432	; 0x43000
    a554:	6c756f68 	ldclvs	15, cr6, [r5], #-416	; 0xfffffe60
    a558:	61682064 	cmnvs	r8, r4, rrx
    a55c:	6c206576 	cfstr32vs	mvfx6, [r0], #-472	; 0xfffffe28
    a560:	736b6165 	cmnvc	fp, #1073741849	; 0x40000019
    a564:	000a0a21 	andeq	r0, sl, r1, lsr #20
    a568:	203a4347 	eorscs	r4, sl, r7, asr #6
    a56c:	43435553 	movtmi	r5, #13651	; 0x3553
    a570:	3a535345 	bcc	14df28c <__bss_end__+0x14d4674>
    a574:	756f6620 	strbvc	r6, [pc, #-1568]!	; 9f5c <__FUNCTION__.4338+0x190>
    a578:	2520646e 	strcs	r6, [r0, #-1134]!	; 0x46e
    a57c:	656c2064 	strbvs	r2, [ip, #-100]!	; 0x64
    a580:	21736b61 	cmncs	r3, r1, ror #22
    a584:	0000000a 	andeq	r0, r0, sl
    a588:	494e4150 	stmdbmi	lr, {r4, r6, r8, lr}^
    a58c:	73253a43 	teqvc	r5, #274432	; 0x43000
    a590:	3a73253a 	bcc	1cd3a80 <__bss_end__+0x1cc8e68>
    a594:	643a6425 	ldrtvs	r6, [sl], #-1061	; 0x425
    a598:	6e206469 	cdpvs	4, 2, cr6, cr0, cr9, {3}
    a59c:	6920746f 	stmdbvs	r0!, {r0, r1, r2, r3, r5, r6, sl, ip, sp, lr}
    a5a0:	656c706d 	strbvs	r7, [ip, #-109]!	; 0x6d
    a5a4:	746e656d 	strbtvc	r6, [lr], #-1389	; 0x56d
    a5a8:	6d756420 	cfldrdvs	mvd6, [r5, #-128]!	; 0xffffff80
    a5ac:	65725f70 	ldrbvs	r5, [r2, #-3952]!	; 0xf70
    a5b0:	0a217367 	beq	867354 <__bss_end__+0x85c73c>
    a5b4:	0000000a 	andeq	r0, r0, sl

0000a5b8 <__FUNCTION__.4245>:
    a5b8:	74696d65 	strbtvc	r6, [r9], #-3429	; 0xd65
    a5bc:	00000000 	andeq	r0, r0, r0

0000a5c0 <__FUNCTION__.4193>:
    a5c0:	5f697072 	svcpl	0x00697072
    a5c4:	5f746573 	svcpl	0x00746573
    a5c8:	7074756f 	rsbsvc	r7, r4, pc, ror #10
    a5cc:	00007475 	andeq	r7, r0, r5, ror r4

0000a5d0 <__FUNCTION__.4267>:
    a5d0:	705f6176 	subsvc	r6, pc, r6, ror r1	; <UNPREDICTABLE>
    a5d4:	746e6972 	strbtvc	r6, [lr], #-2418	; 0x972
    a5d8:	0000006b 	andeq	r0, r0, fp, rrx
    a5dc:	494e4150 	stmdbmi	lr, {r4, r6, r8, lr}^
    a5e0:	73253a43 	teqvc	r5, #274432	; 0x43000
    a5e4:	3a73253a 	bcc	1cd3ad4 <__bss_end__+0x1cc8ebc>
    a5e8:	303a6425 	eorscc	r6, sl, r5, lsr #8
    a5ec:	0000000a 	andeq	r0, r0, sl
    a5f0:	6362696c 	cmnvs	r2, #108, 18	; 0x1b0000
    a5f4:	2d61762f 	stclcs	6, cr7, [r1, #-188]!	; 0xffffff44
    a5f8:	6e697270 	mcrvs	2, 3, r7, cr9, cr0, {3}
    a5fc:	632e6b74 	teqvs	lr, #116, 22	; 0x1d000
    a600:	00000000 	andeq	r0, r0, r0
    a604:	33323130 	teqcc	r2, #48, 2
    a608:	37363534 			; <UNDEFINED> instruction: 0x37363534
    a60c:	00003938 	andeq	r3, r0, r8, lsr r9
    a610:	33323130 	teqcc	r2, #48, 2
    a614:	37363534 			; <UNDEFINED> instruction: 0x37363534
    a618:	62613938 	rsbvs	r3, r1, #56, 18	; 0xe0000
    a61c:	66656463 	strbtvs	r6, [r5], -r3, ror #8
    a620:	00000000 	andeq	r0, r0, r0
    a624:	00003130 	andeq	r3, r0, r0, lsr r1
    a628:	494e4150 	stmdbmi	lr, {r4, r6, r8, lr}^
    a62c:	73253a43 	teqvc	r5, #274432	; 0x43000
    a630:	3a73253a 	bcc	1cd3b20 <__bss_end__+0x1cc8f08>
    a634:	703a6425 	eorsvc	r6, sl, r5, lsr #8
    a638:	5f637475 	svcpl	0x00637475
    a63c:	000a7066 	andeq	r7, sl, r6, rrx
    a640:	494e4150 	stmdbmi	lr, {r4, r6, r8, lr}^
    a644:	73253a43 	teqvc	r5, #274432	; 0x43000
    a648:	3a73253a 	bcc	1cd3b38 <__bss_end__+0x1cc8f20>
    a64c:	773a6425 	ldrvc	r6, [sl, -r5, lsr #8]!
    a650:	68746469 	ldmdavs	r4!, {r0, r3, r5, r6, sl, sp, lr}^
    a654:	33203c20 	teqcc	r0, #32, 24	; 0x2000
    a658:	00000a32 	andeq	r0, r0, r2, lsr sl
    a65c:	494e4150 	stmdbmi	lr, {r4, r6, r8, lr}^
    a660:	73253a43 	teqvc	r5, #274432	; 0x43000
    a664:	3a73253a 	bcc	1cd3b54 <__bss_end__+0x1cc8f3c>
    a668:	663a6425 	ldrtvs	r6, [sl], -r5, lsr #8
    a66c:	74616f6c 	strbtvc	r6, [r1], #-3948	; 0xf6c
    a670:	746f6e20 	strbtvc	r6, [pc], #-3616	; a678 <__FUNCTION__.4267+0xa8>
    a674:	616e6520 	cmnvs	lr, r0, lsr #10
    a678:	64656c62 	strbtvs	r6, [r5], #-3170	; 0xc62
    a67c:	0a212121 	beq	852b08 <__bss_end__+0x847ef0>
    a680:	00000000 	andeq	r0, r0, r0
    a684:	494e4150 	stmdbmi	lr, {r4, r6, r8, lr}^
    a688:	73253a43 	teqvc	r5, #274432	; 0x43000
    a68c:	3a73253a 	bcc	1cd3b7c <__bss_end__+0x1cc8f64>
    a690:	703a6425 	eorsvc	r6, sl, r5, lsr #8
    a694:	746e6972 	strbtvc	r6, [lr], #-2418	; 0x972
    a698:	6e203a6b 	vnmulvs.f32	s6, s0, s23
    a69c:	6820746f 	stmdavs	r0!, {r0, r1, r2, r3, r5, r6, sl, ip, sp, lr}
    a6a0:	6c646e61 	stclvs	14, cr6, [r4], #-388	; 0xfffffe7c
    a6a4:	20676e69 	rsbcs	r6, r7, r9, ror #28
    a6a8:	63657073 	cmnvs	r5, #115	; 0x73
    a6ac:	65696669 	strbvs	r6, [r9, #-1641]!	; 0x669
    a6b0:	25272072 	strcs	r2, [r7, #-114]!	; 0x72
    a6b4:	0a0a2763 	beq	294448 <__bss_end__+0x289830>
    a6b8:	00000000 	andeq	r0, r0, r0
    a6bc:	454e4f44 	strbmi	r4, [lr, #-3908]	; 0xf44
    a6c0:	0a212121 	beq	852b4c <__bss_end__+0x847f34>
    a6c4:	00000000 	andeq	r0, r0, r0

0000a6c8 <__FUNCTION__.4237>:
    a6c8:	6c616d6b 	stclvs	13, cr6, [r1], #-428	; 0xfffffe54
    a6cc:	5f636f6c 	svcpl	0x00636f6c
    a6d0:	74696e69 	strbtvc	r6, [r9], #-3689	; 0xe69
    a6d4:	7465735f 	strbtvc	r7, [r5], #-863	; 0x35f
    a6d8:	6174735f 	cmnvs	r4, pc, asr r3
    a6dc:	00007472 	andeq	r7, r0, r2, ror r4

0000a6e0 <__FUNCTION__.4241>:
    a6e0:	6c616d6b 	stclvs	13, cr6, [r1], #-428	; 0xfffffe54
    a6e4:	00636f6c 	rsbeq	r6, r3, ip, ror #30

0000a6e8 <__FUNCTION__.4253>:
    a6e8:	6c616d6b 	stclvs	13, cr6, [r1], #-428	; 0xfffffe54
    a6ec:	5f636f6c 	svcpl	0x00636f6c
    a6f0:	67696c61 	strbvs	r6, [r9, -r1, ror #24]!
    a6f4:	0064656e 	rsbeq	r6, r4, lr, ror #10
    a6f8:	6c616d6b 	stclvs	13, cr6, [r1], #-428	; 0xfffffe54
    a6fc:	2e636f6c 	cdpcs	15, 6, cr6, cr3, cr12, {3}
    a700:	00000063 	andeq	r0, r0, r3, rrx
    a704:	494e4150 	stmdbmi	lr, {r4, r6, r8, lr}^
    a708:	73253a43 	teqvc	r5, #274432	; 0x43000
    a70c:	3a73253a 	bcc	1cd3bfc <__bss_end__+0x1cc8fe4>
    a710:	613a6425 	teqvs	sl, r5, lsr #8
    a714:	20726464 	rsbscs	r6, r2, r4, ror #8
    a718:	6568203e 	strbvs	r2, [r8, #-62]!	; 0x3e
    a71c:	000a7061 	andeq	r7, sl, r1, rrx
    a720:	494e4150 	stmdbmi	lr, {r4, r6, r8, lr}^
    a724:	73253a43 	teqvc	r5, #274432	; 0x43000
    a728:	3a73253a 	bcc	1cd3c18 <__bss_end__+0x1cc9000>
    a72c:	733a6425 	teqvc	sl, #620756992	; 0x25000000
    a730:	00000a7a 	andeq	r0, r0, sl, ror sl
    a734:	4f525245 	svcmi	0x00525245
    a738:	73253a52 	teqvc	r5, #335872	; 0x52000
    a73c:	3a73253a 	bcc	1cd3c2c <__bss_end__+0x1cc9014>
    a740:	203a6425 	eorscs	r6, sl, r5, lsr #8
    a744:	534c4146 	movtpl	r4, #49478	; 0xc146
    a748:	283c2845 	ldmdacs	ip!, {r0, r2, r6, fp, sp}
    a74c:	6c612828 	stclvs	8, cr2, [r1], #-160	; 0xffffff60
    a750:	6d6e6769 	stclvs	7, cr6, [lr, #-420]!	; 0xfffffe5c
    a754:	29746e65 	ldmdbcs	r4!, {r0, r2, r5, r6, r9, sl, fp, sp, lr}^
    a758:	61282d26 	teqvs	r8, r6, lsr #26
    a75c:	6e67696c 	cdpvs	9, 6, cr6, cr7, cr12, {3}
    a760:	746e656d 	strbtvc	r6, [lr], #-1389	; 0x56d
    a764:	3d202929 	stccc	9, cr2, [r0, #-164]!	; 0xffffff5c
    a768:	6128203d 	teqvs	r8, sp, lsr r0
    a76c:	6e67696c 	cdpvs	9, 6, cr6, cr7, cr12, {3}
    a770:	746e656d 	strbtvc	r6, [lr], #-1389	; 0x56d
    a774:	293e2929 	ldmdbcs	lr!, {r0, r3, r5, r8, fp, sp}
    a778:	7361203a 	cmnvc	r1, #58	; 0x3a
    a77c:	696d7573 	stmdbvs	sp!, {r0, r1, r4, r5, r6, r8, sl, ip, sp, lr}^
    a780:	7020676e 	eorvc	r6, r0, lr, ror #14
    a784:	7265776f 	rsbvc	r7, r5, #29097984	; 0x1bc0000
    a788:	20666f20 	rsbcs	r6, r6, r0, lsr #30
    a78c:	0a6f7774 	beq	1be8564 <__bss_end__+0x1bdd94c>
    a790:	00000000 	andeq	r0, r0, r0
    a794:	4f525245 	svcmi	0x00525245
    a798:	73253a52 	teqvc	r5, #335872	; 0x52000
    a79c:	3a73253a 	bcc	1cd3c8c <__bss_end__+0x1cc9074>
    a7a0:	203a6425 	eorscs	r6, sl, r5, lsr #8
    a7a4:	534c4146 	movtpl	r4, #49478	; 0xc146
    a7a8:	283c2845 	ldmdacs	ip!, {r0, r2, r6, fp, sp}
    a7ac:	29682828 	stmdbcs	r8!, {r3, r5, fp, sp}^
    a7b0:	28202620 	stmdacs	r0!, {r5, r9, sl, sp}
    a7b4:	70797428 	rsbsvc	r7, r9, r8, lsr #8
    a7b8:	28666f65 	stmdacs	r6!, {r0, r2, r5, r6, r8, r9, sl, fp, sp, lr}^
    a7bc:	28292968 	stmdacs	r9!, {r3, r5, r6, r8, fp, sp}
    a7c0:	67696c61 	strbvs	r6, [r9, -r1, ror #24]!
    a7c4:	6e656d6e 	cdpvs	13, 6, cr6, cr5, cr14, {3}
    a7c8:	2d202974 	stccs	9, cr2, [r0, #-464]!	; 0xfffffe30
    a7cc:	29293120 	stmdbcs	r9!, {r5, r8, ip, sp}
    a7d0:	203d3d20 	eorscs	r3, sp, r0, lsr #26
    a7d4:	293e2930 	ldmdbcs	lr!, {r4, r5, r8, fp, sp}
    a7d8:	6d69203a 	stclvs	0, cr2, [r9, #-232]!	; 0xffffff18
    a7dc:	73736f70 	cmnvc	r3, #112, 30	; 0x1c0
    a7e0:	656c6269 	strbvs	r6, [ip, #-617]!	; 0x269
    a7e4:	0000000a 	andeq	r0, r0, sl

Disassembly of section .bss:

0000a7e8 <__bss_start__>:
    a7e8:	00000000 	andeq	r0, r0, r0

0000a7ec <heap>:
    a7ec:	00000000 	andeq	r0, r0, r0

0000a7f0 <heap_end>:
    a7f0:	00000000 	andeq	r0, r0, r0

0000a7f4 <my_info>:
	...

0000a804 <info>:
	...

0000a814 <buf.4185>:
	...

Disassembly of section .ARM.attributes:

00000000 <.ARM.attributes>:
   0:	00002a41 	andeq	r2, r0, r1, asr #20
   4:	61656100 	cmnvs	r5, r0, lsl #2
   8:	01006962 	tsteq	r0, r2, ror #18
   c:	00000020 	andeq	r0, r0, r0, lsr #32
  10:	4b5a3605 	blmi	168d82c <__bss_end__+0x1682c14>
  14:	08070600 	stmdaeq	r7, {r9, sl}
  18:	12010901 	andne	r0, r1, #16384	; 0x4000
  1c:	15011404 	strne	r1, [r1, #-1028]	; 0x404
  20:	18031701 	stmdane	r3, {r0, r8, r9, sl, ip}
  24:	22011a01 	andcs	r1, r1, #4096	; 0x1000
  28:	Address 0x0000000000000028 is out of bounds.


Disassembly of section .comment:

00000000 <.comment>:
   0:	3a434347 	bcc	10d0d24 <__bss_end__+0x10c610c>
   4:	4e472820 	cdpmi	8, 4, cr2, cr7, cr0, {1}
   8:	34202955 	strtcc	r2, [r0], #-2389	; 0x955
   c:	332e382e 	teqcc	lr, #3014656	; 0x2e0000
  10:	43434700 	movtmi	r4, #14080	; 0x3700
  14:	3128203a 	teqcc	r8, sl, lsr r0
  18:	2e363a35 	mrccs	10, 1, r3, cr6, cr5, {1}
  1c:	2b312e33 	blcs	c4b8f0 <__bss_end__+0xc40cd8>
  20:	326e7673 	rsbcc	r7, lr, #120586240	; 0x7300000
  24:	33303335 	teqcc	r0, #-738197504	; 0xd4000000
  28:	62312d39 	eorsvs	r2, r1, #3648	; 0xe40
  2c:	646c6975 	strbtvs	r6, [ip], #-2421	; 0x975
  30:	36202931 			; <UNDEFINED> instruction: 0x36202931
  34:	312e332e 	teqcc	lr, lr, lsr #6
  38:	31303220 	teqcc	r0, r0, lsr #4
  3c:	32363037 	eorscc	r3, r6, #55	; 0x37
  40:	Address 0x0000000000000040 is out of bounds.


Disassembly of section .debug_info:

00000000 <.debug_info>:
       0:	000003f7 	strdeq	r0, [r0], -r7
       4:	00000004 	andeq	r0, r0, r4
       8:	01040000 	mrseq	r0, (UNDEF: 4)
       c:	00000007 	andeq	r0, r0, r7
      10:	00013c01 	andeq	r3, r1, r1, lsl #24
      14:	00006600 	andeq	r6, r0, r0, lsl #12
      18:	00801000 	addeq	r1, r0, r0
      1c:	00013000 	andeq	r3, r1, r0
      20:	00000000 	andeq	r0, r0, r0
      24:	05040200 	streq	r0, [r4, #-512]	; 0x200
      28:	00746e69 	rsbseq	r6, r4, r9, ror #28
      2c:	00000003 	andeq	r0, r0, r3
      30:	37d40200 	ldrbcc	r0, [r4, r0, lsl #4]
      34:	04000000 	streq	r0, [r0], #-0
      38:	015a0704 	cmpeq	sl, r4, lsl #14
      3c:	01040000 	mrseq	r0, (UNDEF: 4)
      40:	0000dd06 	andeq	sp, r0, r6, lsl #26
      44:	05020400 	streq	r0, [r2, #-1024]	; 0x400
      48:	00000185 	andeq	r0, r0, r5, lsl #3
      4c:	75050404 	strvc	r0, [r5, #-1028]	; 0x404
      50:	04000001 	streq	r0, [r0], #-1
      54:	01700508 	cmneq	r0, r8, lsl #10
      58:	01040000 	mrseq	r0, (UNDEF: 4)
      5c:	0000db08 	andeq	sp, r0, r8, lsl #22
      60:	07020400 	streq	r0, [r2, -r0, lsl #8]
      64:	000000f6 	strdeq	r0, [r0], -r6
      68:	00018f03 	andeq	r8, r1, r3, lsl #30
      6c:	73340300 	teqvc	r4, #0, 6
      70:	04000000 	streq	r0, [r0], #-0
      74:	01550704 	cmpeq	r5, r4, lsl #14
      78:	08040000 	stmdaeq	r4, {}	; <UNPREDICTABLE>
      7c:	00015007 	andeq	r5, r1, r7
      80:	07040400 	streq	r0, [r4, -r0, lsl #8]
      84:	00000167 	andeq	r0, r0, r7, ror #2
      88:	04060405 	streq	r0, [r6], #-1029	; 0x405
      8c:	00000090 	muleq	r0, r0, r0
      90:	e4080104 	str	r0, [r8], #-260	; 0x104
      94:	06000000 	streq	r0, [r0], -r0
      98:	00009d04 	andeq	r9, r0, r4, lsl #26
      9c:	00900700 	addseq	r0, r0, r0, lsl #14
      a0:	90080000 	andls	r0, r8, r0
      a4:	b2000000 	andlt	r0, r0, #0
      a8:	09000000 	stmdbeq	r0, {}	; <UNPREDICTABLE>
      ac:	00000081 	andeq	r0, r0, r1, lsl #1
      b0:	af0a0007 	svcge	0x000a0007
      b4:	01000001 	tsteq	r0, r1
      b8:	00801008 	addeq	r1, r0, r8
      bc:	00007000 	andeq	r7, r0, r0
      c0:	7b9c0100 	blvc	fe7004c8 <__bss_end__+0xfe6f58b0>
      c4:	0b000001 	bleq	d0 <__code_start__-0x7f30>
      c8:	09010070 	stmdbeq	r1, {r4, r5, r6}
      cc:	0000008a 	andeq	r0, r0, sl, lsl #1
      d0:	00000000 	andeq	r0, r0, r0
      d4:	0001270c 	andeq	r2, r1, ip, lsl #14
      d8:	00018b00 	andeq	r8, r1, r0, lsl #22
      dc:	f0030500 			; <UNDEFINED> instruction: 0xf0030500
      e0:	0d00009c 	stceq	0, cr0, [r0, #-624]	; 0xfffffd90
      e4:	00008030 	andeq	r8, r0, r0, lsr r0
      e8:	0000031b 	andeq	r0, r0, fp, lsl r3
      ec:	00000107 	andeq	r0, r0, r7, lsl #2
      f0:	0153010e 	cmpeq	r3, lr, lsl #2
      f4:	52010e39 	andpl	r0, r1, #912	; 0x390
      f8:	0e007502 	cfsh32eq	mvfx7, mvfx0, #2
      fc:	76025101 	strvc	r5, [r2], -r1, lsl #2
     100:	50010e00 	andpl	r0, r1, r0, lsl #28
     104:	0d003401 	cfstrseq	mvf3, [r0, #-4]
     108:	0000803c 	andeq	r8, r0, ip, lsr r0
     10c:	0000033f 	andeq	r0, r0, pc, lsr r3
     110:	0000011e 	andeq	r0, r0, lr, lsl r1
     114:	0550010e 	ldrbeq	r0, [r0, #-270]	; 0x10e
     118:	009d1403 	addseq	r1, sp, r3, lsl #8
     11c:	480d0000 	stmdami	sp, {}	; <UNPREDICTABLE>
     120:	3f000080 	svccc	0x00000080
     124:	3b000003 	blcc	138 <__code_start__-0x7ec8>
     128:	0e000001 	cdpeq	0, 0, cr0, cr0, cr1, {0}
     12c:	74025101 	strvc	r5, [r2], #-257	; 0x101
     130:	50010e00 	andpl	r0, r1, r0, lsl #28
     134:	9d1c0305 	ldcls	3, cr0, [ip, #-20]	; 0xffffffec
     138:	0d000000 	stceq	0, cr0, [r0, #-0]
     13c:	00008058 	andeq	r8, r0, r8, asr r0
     140:	00000355 	andeq	r0, r0, r5, asr r3
     144:	00000159 	andeq	r0, r0, r9, asr r1
     148:	0152010e 	cmpeq	r2, lr, lsl #2
     14c:	51010e34 	tstpl	r1, r4, lsr lr
     150:	010e3001 	tsteq	lr, r1
     154:	00740250 	rsbseq	r0, r4, r0, asr r2
     158:	806c0f00 	rsbhi	r0, ip, r0, lsl #30
     15c:	03740000 	cmneq	r4, #0
     160:	010e0000 	mrseq	r0, (UNDEF: 14)
     164:	0e3c0153 	mrceq	1, 1, r0, cr12, cr3, {2}
     168:	75025201 	strvc	r5, [r2, #-513]	; 0x201
     16c:	51010e00 	tstpl	r1, r0, lsl #28
     170:	0e007602 	cfmadd32eq	mvax0, mvfx7, mvfx0, mvfx2
     174:	74025001 	strvc	r5, [r2], #-1
     178:	08000000 	stmdaeq	r0, {}	; <UNPREDICTABLE>
     17c:	00000090 	muleq	r0, r0, r0
     180:	0000018b 	andeq	r0, r0, fp, lsl #3
     184:	00008109 	andeq	r8, r0, r9, lsl #2
     188:	07000500 	streq	r0, [r0, -r0, lsl #10]
     18c:	0000017b 	andeq	r0, r0, fp, ror r1
     190:	0000c40a 	andeq	ip, r0, sl, lsl #8
     194:	800f0100 	andhi	r0, pc, r0, lsl #2
     198:	c0000080 	andgt	r0, r0, r0, lsl #1
     19c:	01000000 	mrseq	r0, (UNDEF: 0)
     1a0:	0003169c 	muleq	r3, ip, r6
     1a4:	006e1000 	rsbeq	r1, lr, r0
     1a8:	00371401 	eorseq	r1, r7, r1, lsl #8
     1ac:	00000000 	andeq	r0, r0, r0
     1b0:	270c0010 	smladcs	ip, r0, r0, r0
     1b4:	16000001 	strne	r0, [r0], -r1
     1b8:	05000003 	streq	r0, [r0, #-3]
     1bc:	009cf803 	addseq	pc, ip, r3, lsl #16
     1c0:	808c0d00 	addhi	r0, ip, r0, lsl #26
     1c4:	033f0000 	teqeq	pc, #0
     1c8:	01d80000 	bicseq	r0, r8, r0
     1cc:	010e0000 	mrseq	r0, (UNDEF: 14)
     1d0:	30030550 	andcc	r0, r3, r0, asr r5
     1d4:	0000009d 	muleq	r0, sp, r0
     1d8:	0080940d 	addeq	r9, r0, sp, lsl #8
     1dc:	00039400 	andeq	r9, r3, r0, lsl #8
     1e0:	0001ed00 	andeq	lr, r1, r0, lsl #26
     1e4:	50010e00 	andpl	r0, r1, r0, lsl #28
     1e8:	24404003 	strbcs	r4, [r0], #-3
     1ec:	809c0d00 	addshi	r0, ip, r0, lsl #26
     1f0:	03a50000 			; <UNDEFINED> instruction: 0x03a50000
     1f4:	02020000 	andeq	r0, r2, #0
     1f8:	010e0000 	mrseq	r0, (UNDEF: 14)
     1fc:	40400350 	submi	r0, r0, r0, asr r3
     200:	a40d0024 	strge	r0, [sp], #-36	; 0x24
     204:	ba000080 	blt	40c <__code_start__-0x7bf4>
     208:	17000003 	strne	r0, [r0, -r3]
     20c:	0e000002 	cdpeq	0, 0, cr0, cr0, cr2, {0}
     210:	40035101 	andmi	r5, r3, r1, lsl #2
     214:	11002440 	tstne	r0, r0, asr #8
     218:	000080a8 	andeq	r8, r0, r8, lsr #1
     21c:	000000b2 	strheq	r0, [r0], -r2
     220:	0080ac11 	addeq	sl, r0, r1, lsl ip
     224:	0003d000 	andeq	sp, r3, r0
     228:	80b81100 	adcshi	r1, r8, r0, lsl #2
     22c:	03db0000 	bicseq	r0, fp, #0
     230:	cc0d0000 	stcgt	0, cr0, [sp], {-0}
     234:	3f000080 	svccc	0x00000080
     238:	60000003 	andvs	r0, r0, r3
     23c:	0e000002 	cdpeq	0, 0, cr0, cr0, cr2, {0}
     240:	4c015301 	stcmi	3, cr5, [r1], {1}
     244:	0552010e 	ldrbeq	r0, [r2, #-270]	; 0x10e
     248:	009cf803 	addseq	pc, ip, r3, lsl #16
     24c:	51010e00 	tstpl	r1, r0, lsl #28
     250:	9d000305 	stcls	3, cr0, [r0, #-20]	; 0xffffffec
     254:	010e0000 	mrseq	r0, (UNDEF: 14)
     258:	3c030550 	cfstr32cc	mvfx0, [r3], {80}	; 0x50
     25c:	0000009d 	muleq	r0, sp, r0
     260:	0080d011 	addeq	sp, r0, r1, lsl r0
     264:	0003e200 	andeq	lr, r3, r0, lsl #4
     268:	80d80d00 	sbcshi	r0, r8, r0, lsl #26
     26c:	033f0000 	teqeq	pc, #0
     270:	02800000 	addeq	r0, r0, #0
     274:	010e0000 	mrseq	r0, (UNDEF: 14)
     278:	14030550 	strne	r0, [r3], #-1360	; 0x550
     27c:	0000009d 	muleq	r0, sp, r0
     280:	0080e00d 	addeq	lr, r0, sp
     284:	00033f00 	andeq	r3, r3, r0, lsl #30
     288:	00029700 	andeq	r9, r2, r0, lsl #14
     28c:	50010e00 	andpl	r0, r1, r0, lsl #28
     290:	a4e00305 	strbtge	r0, [r0], #773	; 0x305
     294:	0d000000 	stceq	0, cr0, [r0, #-0]
     298:	000080e8 	andeq	r8, r0, r8, ror #1
     29c:	000003e9 	andeq	r0, r0, r9, ror #7
     2a0:	000002aa 	andeq	r0, r0, sl, lsr #5
     2a4:	0150010e 	cmpeq	r0, lr, lsl #2
     2a8:	f4110031 			; <UNDEFINED> instruction: 0xf4110031
     2ac:	db000080 	blle	4b4 <__code_start__-0x7b4c>
     2b0:	0d000003 	stceq	0, cr0, [r0, #-12]
     2b4:	00008108 	andeq	r8, r0, r8, lsl #2
     2b8:	0000033f 	andeq	r0, r0, pc, lsr r3
     2bc:	000002e2 	andeq	r0, r0, r2, ror #5
     2c0:	0253010e 	subseq	r0, r3, #-2147483645	; 0x80000003
     2c4:	010e2108 	tsteq	lr, r8, lsl #2
     2c8:	f8030552 			; <UNDEFINED> instruction: 0xf8030552
     2cc:	0e00009c 	mcreq	0, 0, r0, cr0, cr12, {4}
     2d0:	03055101 	movweq	r5, #20737	; 0x5101
     2d4:	00009d00 	andeq	r9, r0, r0, lsl #26
     2d8:	0550010e 	ldrbeq	r0, [r0, #-270]	; 0x10e
     2dc:	009d6003 	addseq	r6, sp, r3
     2e0:	0c110000 	ldceq	0, cr0, [r1], {-0}
     2e4:	e2000081 	and	r0, r0, #129	; 0x81
     2e8:	0d000003 	stceq	0, cr0, [r0, #-12]
     2ec:	00008114 	andeq	r8, r0, r4, lsl r1
     2f0:	0000033f 	andeq	r0, r0, pc, lsr r3
     2f4:	00000302 	andeq	r0, r0, r2, lsl #6
     2f8:	0550010e 	ldrbeq	r0, [r0, #-270]	; 0x10e
     2fc:	009d1403 	addseq	r1, sp, r3, lsl #8
     300:	1c0f0000 	stcne	0, cr0, [pc], {-0}
     304:	3f000081 	svccc	0x00000081
     308:	0e000003 	cdpeq	0, 0, cr0, cr0, cr3, {0}
     30c:	03055001 	movweq	r5, #20481	; 0x5001
     310:	0000a52c 	andeq	sl, r0, ip, lsr #10
     314:	a2070000 	andge	r0, r7, #0
     318:	12000000 	andne	r0, r0, #0
     31c:	0000005e 	andeq	r0, r0, lr, asr r0
     320:	00881104 	addeq	r1, r8, r4, lsl #2
     324:	033f0000 	teqeq	pc, #0
     328:	68130000 	ldmdavs	r3, {}	; <UNPREDICTABLE>
     32c:	13000000 	movwne	r0, #0
     330:	00000097 	muleq	r0, r7, r0
     334:	00009713 	andeq	r9, r0, r3, lsl r7
     338:	00371300 	eorseq	r1, r7, r0, lsl #6
     33c:	12000000 	andne	r0, r0, #0
     340:	0000050f 	andeq	r0, r0, pc, lsl #10
     344:	00252905 	eoreq	r2, r5, r5, lsl #18
     348:	03550000 	cmpeq	r5, #0
     34c:	97130000 	ldrls	r0, [r3, -r0]
     350:	14000000 	strne	r0, [r0], #-0
     354:	01201200 	teqeq	r0, r0, lsl #4
     358:	1b060000 	blne	180360 <__bss_end__+0x175748>
     35c:	00000088 	andeq	r0, r0, r8, lsl #1
     360:	00000374 	andeq	r0, r0, r4, ror r3
     364:	00008813 	andeq	r8, r0, r3, lsl r8
     368:	00251300 	eoreq	r1, r5, r0, lsl #6
     36c:	2c130000 	ldccs	0, cr0, [r3], {-0}
     370:	00000000 	andeq	r0, r0, r0
     374:	00017e15 	andeq	r7, r1, r5, lsl lr
     378:	94120400 	ldrls	r0, [r2], #-1024	; 0x400
     37c:	13000003 	movwne	r0, #3
     380:	00000088 	andeq	r0, r0, r8, lsl #1
     384:	00009713 	andeq	r9, r0, r3, lsl r7
     388:	00971300 	addseq	r1, r7, r0, lsl #6
     38c:	37130000 	ldrcc	r0, [r3, -r0]
     390:	00000000 	andeq	r0, r0, r0
     394:	00019815 	andeq	r9, r1, r5, lsl r8
     398:	a5720500 	ldrbge	r0, [r2, #-1280]!	; 0x500
     39c:	13000003 	movwne	r0, #3
     3a0:	00000037 	andeq	r0, r0, r7, lsr r0
     3a4:	01091200 	mrseq	r1, R9_fiq
     3a8:	6c050000 	stcvs	0, cr0, [r5], {-0}
     3ac:	00000088 	andeq	r0, r0, r8, lsl #1
     3b0:	000003ba 			; <UNDEFINED> instruction: 0x000003ba
     3b4:	00003713 	andeq	r3, r0, r3, lsl r7
     3b8:	34150000 	ldrcc	r0, [r5], #-0
     3bc:	04000001 	streq	r0, [r0], #-1
     3c0:	0003d00b 	andeq	sp, r3, fp
     3c4:	00881300 	addeq	r1, r8, r0, lsl #6
     3c8:	37130000 	ldrcc	r0, [r3, -r0]
     3cc:	00000000 	andeq	r0, r0, r0
     3d0:	0000cc16 	andeq	ip, r0, r6, lsl ip
     3d4:	251e0400 	ldrcs	r0, [lr, #-1024]	; 0x400
     3d8:	17000000 	strne	r0, [r0, -r0]
     3dc:	00000111 	andeq	r0, r0, r1, lsl r1
     3e0:	e9171e05 	ldmdb	r7, {r0, r2, r9, sl, fp, ip}
     3e4:	05000000 	streq	r0, [r0, #-0]
     3e8:	00b61865 	adcseq	r1, r6, r5, ror #16
     3ec:	2b040000 	blcs	1003f4 <__bss_end__+0xf57dc>
     3f0:	00000037 	andeq	r0, r0, r7, lsr r0
     3f4:	00002513 	andeq	r2, r0, r3, lsl r5
     3f8:	78000000 	stmdavc	r0, {}	; <UNPREDICTABLE>
     3fc:	04000010 	streq	r0, [r0], #-16
     400:	00013f00 	andeq	r3, r1, r0, lsl #30
     404:	07010400 	streq	r0, [r1, -r0, lsl #8]
     408:	01000000 	mrseq	r0, (UNDEF: 0)
     40c:	00000263 	andeq	r0, r0, r3, ror #4
     410:	00000066 	andeq	r0, r0, r6, rrx
     414:	00008140 	andeq	r8, r0, r0, asr #2
     418:	0000083c 	andeq	r0, r0, ip, lsr r8
     41c:	00000173 	andeq	r0, r0, r3, ror r1
     420:	69050402 	stmdbvs	r5, {r1, sl}
     424:	0300746e 	movweq	r7, #1134	; 0x46e
     428:	00000000 	andeq	r0, r0, r0
     42c:	0037d403 	eorseq	sp, r7, r3, lsl #8
     430:	04040000 	streq	r0, [r4], #-0
     434:	00015a07 	andeq	r5, r1, r7, lsl #20
     438:	06010400 	streq	r0, [r1], -r0, lsl #8
     43c:	000000dd 	ldrdeq	r0, [r0], -sp
     440:	85050204 	strhi	r0, [r5, #-516]	; 0x204
     444:	04000001 	streq	r0, [r0], #-1
     448:	01750504 	cmneq	r5, r4, lsl #10
     44c:	08040000 	stmdaeq	r4, {}	; <UNPREDICTABLE>
     450:	00017005 	andeq	r7, r1, r5
     454:	03600300 	cmneq	r0, #0, 6
     458:	2e040000 	cdpcs	0, 0, cr0, cr4, cr0, {0}
     45c:	00000065 	andeq	r0, r0, r5, rrx
     460:	db080104 	blle	200878 <__bss_end__+0x1f5c60>
     464:	03000000 	movweq	r0, #0
     468:	0000021c 	andeq	r0, r0, ip, lsl r2
     46c:	00773104 	rsbseq	r3, r7, r4, lsl #2
     470:	02040000 	andeq	r0, r4, #0
     474:	0000f607 	andeq	pc, r0, r7, lsl #12
     478:	018f0300 	orreq	r0, pc, r0, lsl #6
     47c:	34040000 	strcc	r0, [r4], #-0
     480:	00000089 	andeq	r0, r0, r9, lsl #1
     484:	55070404 	strpl	r0, [r7, #-1028]	; 0x404
     488:	04000001 	streq	r0, [r0], #-1
     48c:	01500708 	cmpeq	r0, r8, lsl #14
     490:	04040000 	streq	r0, [r4], #-0
     494:	00016707 	andeq	r6, r1, r7, lsl #14
     498:	06040500 	streq	r0, [r4], -r0, lsl #10
     49c:	0000a604 	andeq	sl, r0, r4, lsl #12
     4a0:	08010400 	stmdaeq	r1, {sl}
     4a4:	000000e4 	andeq	r0, r0, r4, ror #1
     4a8:	00b30406 	adcseq	r0, r3, r6, lsl #8
     4ac:	a6070000 	strge	r0, [r7], -r0
     4b0:	08000000 	stmdaeq	r0, {}	; <UNPREDICTABLE>
     4b4:	000000a6 	andeq	r0, r0, r6, lsr #1
     4b8:	000000c8 	andeq	r0, r0, r8, asr #1
     4bc:	00009709 	andeq	r9, r0, r9, lsl #14
     4c0:	0a000700 	beq	20c8 <__code_start__-0x5f38>
     4c4:	dd270201 	sfmle	f0, 4, [r7, #-4]!
     4c8:	0b000000 	bleq	4d0 <__code_start__-0x7b30>
     4cc:	000001fe 	strdeq	r0, [r0], -lr
     4d0:	01f80b0b 	mvnseq	r0, fp, lsl #22
     4d4:	000c0000 	andeq	r0, ip, r0
     4d8:	29020c0c 	stmdbcs	r2, {r2, r3, sl, fp}
     4dc:	0000010a 	andeq	r0, r0, sl, lsl #2
     4e0:	0008f00d 	andeq	pc, r8, sp
     4e4:	ad2a0200 	sfmge	f0, 4, [sl, #-0]
     4e8:	00000000 	andeq	r0, r0, r0
     4ec:	000bba0d 	andeq	fp, fp, sp, lsl #20
     4f0:	ad2b0200 	sfmge	f0, 4, [fp, #-0]
     4f4:	04000000 	streq	r0, [r0], #-0
     4f8:	00033e0d 	andeq	r3, r3, sp, lsl #28
     4fc:	372c0200 	strcc	r0, [ip, -r0, lsl #4]!
     500:	08000000 	stmdaeq	r0, {}	; <UNPREDICTABLE>
     504:	02cb0300 	sbceq	r0, fp, #0, 6
     508:	2d020000 	stccs	0, cr0, [r2, #-0]
     50c:	000000dd 	ldrdeq	r0, [r0], -sp
     510:	0003970e 	andeq	r9, r3, lr, lsl #14
     514:	30023800 	andcc	r3, r2, r0, lsl #16
     518:	0000019a 	muleq	r0, sl, r1
     51c:	00029f0d 	andeq	r9, r2, sp, lsl #30
     520:	7e310200 	cdpvc	2, 3, cr0, cr1, cr0, {0}
     524:	00000000 	andeq	r0, r0, r0
     528:	00037d0d 	andeq	r7, r3, sp, lsl #26
     52c:	7e320200 	cdpvc	2, 3, cr0, cr2, cr0, {0}
     530:	04000000 	streq	r0, [r0], #-0
     534:	00077b0d 	andeq	r7, r7, sp, lsl #22
     538:	7e330200 	cdpvc	2, 3, cr0, cr3, cr0, {0}
     53c:	08000000 	stmdaeq	r0, {}	; <UNPREDICTABLE>
     540:	0002990d 	andeq	r9, r2, sp, lsl #18
     544:	7e370200 	cdpvc	2, 3, cr0, cr7, cr0, {0}
     548:	0c000000 	stceq	0, cr0, [r0], {-0}
     54c:	0002790d 	andeq	r7, r2, sp, lsl #18
     550:	0a390200 	beq	e40d58 <__bss_end__+0xe36140>
     554:	10000001 	andne	r0, r0, r1
     558:	0002ac0d 	andeq	sl, r2, sp, lsl #24
     55c:	0a3a0200 	beq	e80d64 <__bss_end__+0xe7614c>
     560:	1c000001 	stcne	0, cr0, [r0], {1}
     564:	0003720d 	andeq	r7, r3, sp, lsl #4
     568:	7e3e0200 	cdpvc	2, 3, cr0, cr14, cr0, {0}
     56c:	28000000 	stmdacs	r0, {}	; <UNPREDICTABLE>
     570:	0003170d 	andeq	r1, r3, sp, lsl #14
     574:	7e3f0200 	cdpvc	2, 3, cr0, cr15, cr0, {0}
     578:	2c000000 	stccs	0, cr0, [r0], {-0}
     57c:	0001cf0d 	andeq	ip, r1, sp, lsl #30
     580:	9a420200 	bls	1080d88 <__bss_end__+0x1076170>
     584:	30000001 	andcc	r0, r0, r1
     588:	0001d80d 	andeq	sp, r1, sp, lsl #16
     58c:	6c450200 	sfmvs	f0, 2, [r5], {-0}
     590:	34000000 	strcc	r0, [r0], #-0
     594:	15040600 	strne	r0, [r4, #-1536]	; 0x600
     598:	03000001 	movweq	r0, #1
     59c:	00000368 	andeq	r0, r0, r8, ror #6
     5a0:	01154602 	tsteq	r5, r2, lsl #12
     5a4:	020a0000 	andeq	r0, sl, #0
     5a8:	01d04902 	bicseq	r4, r0, r2, lsl #18
     5ac:	010b0000 	mrseq	r0, (UNDEF: 11)
     5b0:	fe000003 	cdp2	0, 0, cr0, cr0, cr3, {0}
     5b4:	028d0b01 	addeq	r0, sp, #1024	; 0x400
     5b8:	01800000 	orreq	r0, r0, r0
     5bc:	0002350b 	andeq	r3, r2, fp, lsl #10
     5c0:	0b01b800 	bleq	6e5c8 <__bss_end__+0x639b0>
     5c4:	00000225 	andeq	r0, r0, r5, lsr #4
     5c8:	0e0002b8 	mcreq	2, 0, r0, cr0, cr8, {5}
     5cc:	000002c1 	andeq	r0, r0, r1, asr #5
     5d0:	0d9b0210 	lfmeq	f0, 4, [fp, #64]	; 0x40
     5d4:	0d000002 	stceq	0, cr0, [r0, #-8]
     5d8:	00000d5b 	andeq	r0, r0, fp, asr sp
     5dc:	009e9d02 	addseq	r9, lr, r2, lsl #26
     5e0:	0d000000 	stceq	0, cr0, [r0, #-0]
     5e4:	00000d6e 	andeq	r0, r0, lr, ror #26
     5e8:	009e9f02 	addseq	r9, lr, r2, lsl #30
     5ec:	0d040000 	stceq	0, cr0, [r4, #-0]
     5f0:	000001b5 			; <UNDEFINED> instruction: 0x000001b5
     5f4:	0037a202 	eorseq	sl, r7, r2, lsl #4
     5f8:	0d080000 	stceq	0, cr0, [r8, #-0]
     5fc:	00000323 	andeq	r0, r0, r3, lsr #6
     600:	0037a402 	eorseq	sl, r7, r2, lsl #8
     604:	000c0000 	andeq	r0, ip, r0
     608:	0001ee0f 	andeq	lr, r1, pc, lsl #28
     60c:	9e570200 	cdpls	2, 5, cr0, cr7, cr0, {0}
     610:	03000000 	movweq	r0, #0
     614:	00000227 	andeq	r0, r0, r7, lsr #4
     618:	02006810 	andeq	r6, r0, #16, 16	; 0x100000
     61c:	00022757 	andeq	r2, r2, r7, asr r7
     620:	04060000 	streq	r0, [r6], #-0
     624:	000001a0 	andeq	r0, r0, r0, lsr #3
     628:	0002b50f 	andeq	fp, r2, pc, lsl #10
     62c:	9e590200 	cdpls	2, 5, cr0, cr9, cr0, {0}
     630:	03000000 	movweq	r0, #0
     634:	00000247 	andeq	r0, r0, r7, asr #4
     638:	02006810 	andeq	r6, r0, #16, 16	; 0x100000
     63c:	00022759 	andeq	r2, r2, r9, asr r7
     640:	df0f0000 	svcle	0x000f0000
     644:	02000002 	andeq	r0, r0, #2
     648:	00009e5b 	andeq	r9, r0, fp, asr lr
     64c:	02610300 	rsbeq	r0, r1, #0, 6
     650:	68100000 	ldmdavs	r0, {}	; <UNPREDICTABLE>
     654:	275b0200 	ldrbcs	r0, [fp, -r0, lsl #4]
     658:	00000002 	andeq	r0, r0, r2
     65c:	0003450f 	andeq	r4, r3, pc, lsl #10
     660:	375d0200 	ldrbcc	r0, [sp, -r0, lsl #4]
     664:	03000000 	movweq	r0, #0
     668:	0000027b 	andeq	r0, r0, fp, ror r2
     66c:	02006810 	andeq	r6, r0, #16, 16	; 0x100000
     670:	0002275d 	andeq	r2, r2, sp, asr r7
     674:	060f0000 	streq	r0, [pc], -r0
     678:	02000002 	andeq	r0, r0, #2
     67c:	0002275f 	andeq	r2, r2, pc, asr r7
     680:	02970300 	addseq	r0, r7, #0, 6
     684:	df110000 	svcle	0x00110000
     688:	02000001 	andeq	r0, r0, #1
     68c:	00009e5f 	andeq	r9, r0, pc, asr lr
     690:	4b0f0000 	blmi	3c0698 <__bss_end__+0x3b5a80>
     694:	02000002 	andeq	r0, r0, #2
     698:	00003763 	andeq	r3, r0, r3, ror #14
     69c:	02b10300 	adcseq	r0, r1, #0, 6
     6a0:	68100000 	ldmdavs	r0, {}	; <UNPREDICTABLE>
     6a4:	27630200 	strbcs	r0, [r3, -r0, lsl #4]!
     6a8:	00000002 	andeq	r0, r0, r2
     6ac:	0002f112 	andeq	pc, r2, r2, lsl r1	; <UNPREDICTABLE>
     6b0:	03830200 	orreq	r0, r3, #0, 4
     6b4:	000002d0 	ldrdeq	r0, [r0], -r0	; <UNPREDICTABLE>
     6b8:	02006810 	andeq	r6, r0, #16, 16	; 0x100000
     6bc:	00022783 	andeq	r2, r2, r3, lsl #15
     6c0:	006c1300 	rsbeq	r1, ip, r0, lsl #6
     6c4:	02d08502 	sbcseq	r8, r0, #8388608	; 0x800000
     6c8:	06000000 	streq	r0, [r0], -r0
     6cc:	00010a04 	andeq	r0, r1, r4, lsl #20
     6d0:	038d1400 	orreq	r1, sp, #0, 8
     6d4:	34010000 	strcc	r0, [r1], #-0
     6d8:	00000025 	andeq	r0, r0, r5, lsr #32
     6dc:	00008140 	andeq	r8, r0, r0, asr #2
     6e0:	00000100 	andeq	r0, r0, r0, lsl #2
     6e4:	045a9c01 	ldrbeq	r9, [sl], #-3073	; 0xc01
     6e8:	68150000 	ldmdavs	r5, {}	; <UNPREDICTABLE>
     6ec:	27340100 	ldrcs	r0, [r4, -r0, lsl #2]!
     6f0:	1e000002 	cdpne	0, 0, cr0, cr0, cr2, {0}
     6f4:	15000000 	strne	r0, [r0, #-0]
     6f8:	34010070 	strcc	r0, [r1], #-112	; 0x70
     6fc:	000000a0 	andeq	r0, r0, r0, lsr #1
     700:	00000052 	andeq	r0, r0, r2, asr r0
     704:	00034b16 	andeq	r4, r3, r6, lsl fp
     708:	37340100 	ldrcc	r0, [r4, -r0, lsl #2]!
     70c:	7e000000 	cdpvc	0, 0, cr0, cr0, cr0, {0}
     710:	17000000 	strne	r0, [r0, -r0]
     714:	35010069 	strcc	r0, [r1, #-105]	; 0x69
     718:	00000025 	andeq	r0, r0, r5, lsr #32
     71c:	000000aa 	andeq	r0, r0, sl, lsr #1
     720:	00816018 	addeq	r6, r1, r8, lsl r0
     724:	0000b000 	andeq	fp, r0, r0
     728:	01dd1900 	bicseq	r1, sp, r0, lsl #18
     72c:	38010000 	stmdacc	r1, {}	; <UNPREDICTABLE>
     730:	000000a0 	andeq	r0, r0, r0, lsr #1
     734:	671a5701 	ldrvs	r5, [sl, -r1, lsl #14]
     738:	01000009 	tsteq	r0, r9
     73c:	00002539 	andeq	r2, r0, r9, lsr r5
     740:	0000d400 	andeq	sp, r0, r0, lsl #8
     744:	02b11b00 	adcseq	r1, r1, #0, 22
     748:	818c0000 	orrhi	r0, ip, r0
     74c:	00700000 	rsbseq	r0, r0, r0
     750:	3a010000 	bcc	40758 <__bss_end__+0x35b40>
     754:	000003f7 	strdeq	r0, [r0], -r7
     758:	0002bd1c 	andeq	fp, r2, ip, lsl sp
     75c:	0000e700 	andeq	lr, r0, r0, lsl #14
     760:	818c1800 	orrhi	r1, ip, r0, lsl #16
     764:	00700000 	rsbseq	r0, r0, r0
     768:	c61d0000 	ldrgt	r0, [sp], -r0
     76c:	fa000002 	blx	77c <__code_start__-0x7884>
     770:	1e000000 	cdpne	0, 0, cr0, cr0, cr0, {0}
     774:	00008194 	muleq	r0, r4, r1
     778:	00001017 	andeq	r1, r0, r7, lsl r0
     77c:	0000038c 	andeq	r0, r0, ip, lsl #7
     780:	0250011f 	subseq	r0, r0, #-1073741817	; 0xc0000007
     784:	1e000076 	mcrne	0, 0, r0, cr0, cr6, {3}
     788:	000081a0 	andeq	r8, r0, r0, lsr #3
     78c:	00001017 	andeq	r1, r0, r7, lsl r0
     790:	000003a3 	andeq	r0, r0, r3, lsr #7
     794:	0550011f 	ldrbeq	r0, [r0, #-287]	; 0x11f
     798:	009e0403 	addseq	r0, lr, r3, lsl #8
     79c:	b41e0000 	ldrlt	r0, [lr], #-0
     7a0:	17000081 	strne	r0, [r0, -r1, lsl #1]
     7a4:	b7000010 	smladlt	r0, r0, r0, r0
     7a8:	1f000003 	svcne	0x00000003
     7ac:	76025001 	strvc	r5, [r2], -r1
     7b0:	c81e0000 	ldmdagt	lr, {}	; <UNPREDICTABLE>
     7b4:	17000081 	strne	r0, [r0, -r1, lsl #1]
     7b8:	ce000010 	mcrgt	0, 0, r0, cr0, cr0, {0}
     7bc:	1f000003 	svcne	0x00000003
     7c0:	03055001 	movweq	r5, #20481	; 0x5001
     7c4:	00009e10 	andeq	r9, r0, r0, lsl lr
     7c8:	81e81e00 	mvnhi	r1, r0, lsl #28
     7cc:	10170000 	andsne	r0, r7, r0
     7d0:	03e20000 	mvneq	r0, #0
     7d4:	011f0000 	tsteq	pc, r0
     7d8:	00760250 	rsbseq	r0, r6, r0, asr r2
     7dc:	81fc2000 	mvnshi	r2, r0
     7e0:	10170000 	andsne	r0, r7, r0
     7e4:	011f0000 	tsteq	pc, r0
     7e8:	30030550 	andcc	r0, r3, r0, asr r5
     7ec:	0000009e 	muleq	r0, lr, r0
     7f0:	741e0000 	ldrvc	r0, [lr], #-0
     7f4:	17000081 	strne	r0, [r0, -r1, lsl #1]
     7f8:	0b000010 	bleq	840 <__code_start__-0x77c0>
     7fc:	1f000004 	svcne	0x00000004
     800:	76025001 	strvc	r5, [r2], -r1
     804:	7c1e0000 	ldcvc	0, cr0, [lr], {-0}
     808:	17000081 	strne	r0, [r0, -r1, lsl #1]
     80c:	22000010 	andcs	r0, r0, #16
     810:	1f000004 	svcne	0x00000004
     814:	03055001 	movweq	r5, #20481	; 0x5001
     818:	00009dd8 	ldrdeq	r9, [r0], -r8
     81c:	818c1e00 	orrhi	r1, ip, r0, lsl #28
     820:	10170000 	andsne	r0, r7, r0
     824:	04450000 	strbeq	r0, [r5], #-0
     828:	011f0000 	tsteq	pc, r0
     82c:	00780252 	rsbseq	r0, r8, r2, asr r2
     830:	0251011f 	subseq	r0, r1, #-1073741817	; 0xc0000007
     834:	011f0077 	tsteq	pc, r7, ror r0	; <UNPREDICTABLE>
     838:	e0030550 	and	r0, r3, r0, asr r5
     83c:	0000009d 	muleq	r0, sp, r0
     840:	00820820 	addeq	r0, r2, r0, lsr #16
     844:	00101700 	andseq	r1, r0, r0, lsl #14
     848:	50011f00 	andpl	r1, r1, r0, lsl #30
     84c:	9e4c0305 	cdpls	3, 4, cr0, cr12, cr5, {0}
     850:	00000000 	andeq	r0, r0, r0
     854:	030a2100 	movweq	r2, #41216	; 0xa100
     858:	42010000 	andmi	r0, r1, #0
     85c:	00008240 	andeq	r8, r0, r0, asr #4
     860:	00000014 	andeq	r0, r0, r4, lsl r0
     864:	04aa9c01 	strteq	r9, [sl], #3073	; 0xc01
     868:	70150000 	andsvc	r0, r5, r0
     86c:	9e420100 	dvflss	f0, f2, f0
     870:	1c000000 	stcne	0, cr0, [r0], {-0}
     874:	16000001 	strne	r0, [r0], -r1
     878:	0000034b 	andeq	r0, r0, fp, asr #6
     87c:	00374201 	eorseq	r4, r7, r1, lsl #4
     880:	013d0000 	teqeq	sp, r0
     884:	50200000 	eorpl	r0, r0, r0
     888:	2d000082 	stccs	0, cr0, [r0, #-520]	; 0xfffffdf8
     88c:	1f000010 	svcne	0x00000010
     890:	f3035201 	vhsub.u8	d5, d3, d1
     894:	011f5101 	tsteq	pc, r1, lsl #2
     898:	fe080251 	mcr2	2, 0, r0, cr8, cr1, {2}
     89c:	0350011f 	cmpeq	r0, #-1073741817	; 0xc0000007
     8a0:	005001f3 	ldrsheq	r0, [r0], #-19	; 0xffffffed
     8a4:	02831400 	addeq	r1, r3, #0, 8
     8a8:	19010000 	stmdbne	r1, {}	; <UNPREDICTABLE>
     8ac:	0000007e 	andeq	r0, r0, lr, ror r0
     8b0:	00008254 	andeq	r8, r0, r4, asr r2
     8b4:	00000048 	andeq	r0, r0, r8, asr #32
     8b8:	052e9c01 	streq	r9, [lr, #-3073]!	; 0xc01
     8bc:	68150000 	ldmdavs	r5, {}	; <UNPREDICTABLE>
     8c0:	27190100 	ldrcs	r0, [r9, -r0, lsl #2]
     8c4:	69000002 	stmdbvs	r0, {r1}
     8c8:	19000001 	stmdbne	r0, {r0}
     8cc:	00000295 	muleq	r0, r5, r2
     8d0:	00371a01 	eorseq	r1, r7, r1, lsl #20
     8d4:	58010000 	stmdapl	r1, {}	; <UNPREDICTABLE>
     8d8:	00036e19 	andeq	r6, r3, r9, lsl lr
     8dc:	371b0100 	ldrcc	r0, [fp, -r0, lsl #2]
     8e0:	01000000 	mrseq	r0, (UNDEF: 0)
     8e4:	03131957 	tsteq	r3, #1425408	; 0x15c000
     8e8:	1c010000 	stcne	0, cr0, [r1], {-0}
     8ec:	00000037 	andeq	r0, r0, r7, lsr r0
     8f0:	d4195601 	ldrle	r5, [r9], #-1537	; 0x601
     8f4:	01000001 	tsteq	r0, r1
     8f8:	0000371d 	andeq	r3, r0, sp, lsl r7
     8fc:	00750700 	rsbseq	r0, r5, r0, lsl #14
     900:	1affff0a 	bne	530 <__code_start__-0x7ad0>
     904:	0299199f 	addseq	r1, r9, #2605056	; 0x27c000
     908:	22010000 	andcs	r0, r1, #0
     90c:	0000007e 	andeq	r0, r0, lr, ror r0
     910:	88205001 	stmdahi	r0!, {r0, ip, lr}
     914:	4c000082 	stcmi	0, cr0, [r0], {130}	; 0x82
     918:	1f000010 	svcne	0x00000010
     91c:	08025101 	stmdaeq	r2, {r0, r8, ip, lr}
     920:	50011f38 	andpl	r1, r1, r8, lsr pc
     924:	00007402 	andeq	r7, r0, r2, lsl #8
     928:	02d51400 	sbcseq	r1, r5, #0, 8
     92c:	2b010000 	blcs	40934 <__bss_end__+0x35d1c>
     930:	00000025 	andeq	r0, r0, r5, lsr #32
     934:	0000829c 	muleq	r0, ip, r2
     938:	00000078 	andeq	r0, r0, r8, ror r0
     93c:	06099c01 	streq	r9, [r9], -r1, lsl #24
     940:	68150000 	ldmdavs	r5, {}	; <UNPREDICTABLE>
     944:	272b0100 	strcs	r0, [fp, -r0, lsl #2]!
     948:	87000002 	strhi	r0, [r0, -r2]
     94c:	1a000001 	bne	958 <__code_start__-0x76a8>
     950:	00000352 	andeq	r0, r0, r2, asr r3
     954:	007e2c01 	rsbseq	r2, lr, r1, lsl #24
     958:	01a50000 			; <UNDEFINED> instruction: 0x01a50000
     95c:	27220000 	strcs	r0, [r2, -r0]!
     960:	19000001 	stmdbne	r0, {r0}
     964:	05000006 	streq	r0, [r0, #-6]
     968:	009d8803 	addseq	r8, sp, r3, lsl #16
     96c:	82a81e00 	adchi	r1, r8, #0, 28
     970:	04aa0000 	strteq	r0, [sl], #0
     974:	05860000 	streq	r0, [r6]
     978:	011f0000 	tsteq	pc, r0
     97c:	00740250 	rsbseq	r0, r4, r0, asr r2
     980:	82b82300 	adcshi	r2, r8, #0, 6
     984:	106d0000 	rsbne	r0, sp, r0
     988:	cc1e0000 	ldcgt	0, cr0, [lr], {-0}
     98c:	17000082 	strne	r0, [r0, -r2, lsl #1]
     990:	be000010 	mcrlt	0, 0, r0, cr0, cr0, {0}
     994:	1f000005 	svcne	0x00000005
     998:	08025301 	stmdaeq	r2, {r0, r8, r9, ip, lr}
     99c:	52011f2f 	andpl	r1, r1, #47, 30	; 0xbc
     9a0:	9d880305 	stcls	3, cr0, [r8, #20]
     9a4:	011f0000 	tsteq	pc, r0
     9a8:	84030551 	strhi	r0, [r3], #-1361	; 0x551
     9ac:	1f00009e 	svcne	0x0000009e
     9b0:	03055001 	movweq	r5, #20481	; 0x5001
     9b4:	00009e58 	andeq	r9, r0, r8, asr lr
     9b8:	82d02300 	sbcshi	r2, r0, #0, 6
     9bc:	10740000 	rsbsne	r0, r4, r0
     9c0:	e4230000 	strt	r0, [r3], #-0
     9c4:	6d000082 	stcvs	0, cr0, [r0, #-520]	; 0xfffffdf8
     9c8:	1e000010 	mcrne	0, 0, r0, cr0, cr0, {0}
     9cc:	000082f8 	strdeq	r8, [r0], -r8	; <UNPREDICTABLE>
     9d0:	00001017 	andeq	r1, r0, r7, lsl r0
     9d4:	000005ff 	strdeq	r0, [r0], -pc	; <UNPREDICTABLE>
     9d8:	0253011f 	subseq	r0, r3, #-1073741817	; 0xc0000007
     9dc:	011f3008 	tsteq	pc, r8
     9e0:	88030552 	stmdahi	r3, {r1, r4, r6, r8, sl}
     9e4:	1f00009d 	svcne	0x0000009d
     9e8:	03055101 	movweq	r5, #20737	; 0x5101
     9ec:	00009e84 	andeq	r9, r0, r4, lsl #29
     9f0:	0550011f 	ldrbeq	r0, [r0, #-287]	; 0x11f
     9f4:	009e9003 	addseq	r9, lr, r3
     9f8:	fc230000 	stc2	0, cr0, [r3], #-0
     9fc:	74000082 	strvc	r0, [r0], #-130	; 0x82
     a00:	00000010 	andeq	r0, r0, r0, lsl r0
     a04:	0000a608 	andeq	sl, r0, r8, lsl #12
     a08:	00061900 	andeq	r1, r6, r0, lsl #18
     a0c:	00970900 	addseq	r0, r7, r0, lsl #18
     a10:	00090000 	andeq	r0, r9, r0
     a14:	00060907 	andeq	r0, r6, r7, lsl #18
     a18:	03321400 	teqeq	r2, #0, 8
     a1c:	4c010000 	stcmi	0, cr0, [r1], {-0}
     a20:	00000025 	andeq	r0, r0, r5, lsr #32
     a24:	00008314 	andeq	r8, r0, r4, lsl r3
     a28:	00000070 	andeq	r0, r0, r0, ror r0
     a2c:	06c39c01 	strbeq	r9, [r3], r1, lsl #24
     a30:	68150000 	ldmdavs	r5, {}	; <UNPREDICTABLE>
     a34:	274c0100 	strbcs	r0, [ip, -r0, lsl #2]
     a38:	ce000002 	cdpgt	0, 0, cr0, cr0, cr2, {0}
     a3c:	1b000001 	blne	a48 <__code_start__-0x75b8>
     a40:	00000247 	andeq	r0, r0, r7, asr #4
     a44:	00008340 	andeq	r8, r0, r0, asr #6
     a48:	00000008 	andeq	r0, r0, r8
     a4c:	06615001 	strbteq	r5, [r1], -r1
     a50:	571c0000 	ldrpl	r0, [ip, -r0]
     a54:	ec000002 	stc	0, cr0, [r0], {2}
     a58:	00000001 	andeq	r0, r0, r1
     a5c:	0002611b 	andeq	r6, r2, fp, lsl r1
     a60:	00834800 	addeq	r4, r3, r0, lsl #16
     a64:	00000400 	andeq	r0, r0, r0, lsl #8
     a68:	7e500100 	rdfvcs	f0, f0, f0
     a6c:	1c000006 	stcne	0, cr0, [r0], {6}
     a70:	00000271 	andeq	r0, r0, r1, ror r2
     a74:	0000020a 	andeq	r0, r0, sl, lsl #4
     a78:	83201e00 	teqhi	r0, #0, 28
     a7c:	052e0000 	streq	r0, [lr, #-0]!
     a80:	06920000 	ldreq	r0, [r2], r0
     a84:	011f0000 	tsteq	pc, r0
     a88:	00740250 	rsbseq	r0, r4, r0, asr r2
     a8c:	83381e00 	teqhi	r8, #0, 28
     a90:	02d60000 	sbcseq	r0, r6, #0
     a94:	06b20000 	ldrteq	r0, [r2], r0
     a98:	011f0000 	tsteq	pc, r0
     a9c:	80080252 	andhi	r0, r8, r2, asr r2
     aa0:	0251011f 	subseq	r0, r1, #-1073741817	; 0xc0000007
     aa4:	011f3874 	tsteq	pc, r4, ror r8	; <UNPREDICTABLE>
     aa8:	00740250 	rsbseq	r0, r4, r0, asr r2
     aac:	835c2000 	cmphi	ip, #0
     ab0:	02d60000 	sbcseq	r0, r6, #0
     ab4:	011f0000 	tsteq	pc, r0
     ab8:	00740250 	rsbseq	r0, r4, r0, asr r2
     abc:	34240000 	strtcc	r0, [r4], #-0
     ac0:	01000001 	tsteq	r0, r1
     ac4:	0083840c 	addeq	r8, r3, ip, lsl #8
     ac8:	00008800 	andeq	r8, r0, r0, lsl #16
     acc:	639c0100 	orrsvs	r0, ip, #0, 2
     ad0:	16000007 	strne	r0, [r0], -r7
     ad4:	00000d60 	andeq	r0, r0, r0, ror #26
     ad8:	009e0c01 	addseq	r0, lr, r1, lsl #24
     adc:	02280000 	eoreq	r0, r8, #0
     ae0:	6e150000 	cdpvs	0, 1, cr0, cr5, cr0, {0}
     ae4:	370c0100 	strcc	r0, [ip, -r0, lsl #2]
     ae8:	5c000000 	stcpl	0, cr0, [r0], {-0}
     aec:	22000002 	andcs	r0, r0, #2
     af0:	00000127 	andeq	r0, r0, r7, lsr #2
     af4:	00000763 	andeq	r0, r0, r3, ror #14
     af8:	9d940305 	ldcls	3, cr0, [r4, #20]
     afc:	a4230000 	strtge	r0, [r3], #-0
     b00:	6d000083 	stcvs	0, cr0, [r0, #-524]	; 0xfffffdf4
     b04:	1e000010 	mcrne	0, 0, r0, cr0, cr0, {0}
     b08:	000083b8 			; <UNDEFINED> instruction: 0x000083b8
     b0c:	00001017 	andeq	r1, r0, r7, lsl r0
     b10:	0000073a 	andeq	r0, r0, sl, lsr r7
     b14:	0153011f 	cmpeq	r3, pc, lsl r1
     b18:	52011f3d 	andpl	r1, r1, #61, 30	; 0xf4
     b1c:	9d940305 	ldcls	3, cr0, [r4, #20]
     b20:	011f0000 	tsteq	pc, r0
     b24:	84030551 	strhi	r0, [r3], #-1361	; 0x551
     b28:	1f00009e 	svcne	0x0000009e
     b2c:	03055001 	movweq	r5, #20481	; 0x5001
     b30:	00009ecc 	andeq	r9, r0, ip, asr #29
     b34:	83bc2300 			; <UNDEFINED> instruction: 0x83bc2300
     b38:	10740000 	rsbsne	r0, r4, r0
     b3c:	cc200000 	stcgt	0, cr0, [r0], #-0
     b40:	17000083 	strne	r0, [r0, -r3, lsl #1]
     b44:	1f000010 	svcne	0x00000010
     b48:	08025201 	stmdaeq	r2, {r0, r9, ip, lr}
     b4c:	51011f80 	smlabbpl	r1, r0, pc, r1	; <UNPREDICTABLE>
     b50:	1f380802 	svcne	0x00380802
     b54:	03055001 	movweq	r5, #20481	; 0x5001
     b58:	00009ef4 	strdeq	r9, [r0], -r4
     b5c:	b8070000 	stmdalt	r7, {}	; <UNPREDICTABLE>
     b60:	24000000 	strcs	r0, [r0], #-0
     b64:	0000017e 	andeq	r0, r0, lr, ror r1
     b68:	840c5801 	strhi	r5, [ip], #-2049	; 0x801
     b6c:	00d00000 	sbcseq	r0, r0, r0
     b70:	9c010000 	stcls	0, cr0, [r1], {-0}
     b74:	00000883 	andeq	r0, r0, r3, lsl #17
     b78:	0001df16 	andeq	sp, r1, r6, lsl pc
     b7c:	9e580100 	rdflse	f0, f0, f0
     b80:	9e000000 	cdpls	0, 0, cr0, cr0, cr0, {0}
     b84:	16000002 	strne	r0, [r0], -r2
     b88:	000008f0 	strdeq	r0, [r0], -r0	; <UNPREDICTABLE>
     b8c:	00ad5801 	adceq	r5, sp, r1, lsl #16
     b90:	02bc0000 	adcseq	r0, ip, #0
     b94:	ba160000 	blt	580b9c <__bss_end__+0x575f84>
     b98:	0100000b 	tsteq	r0, fp
     b9c:	0000ad58 	andeq	sl, r0, r8, asr sp
     ba0:	0002f000 	andeq	pc, r2, r0
     ba4:	033e1600 	teqeq	lr, #0, 12
     ba8:	58010000 	stmdapl	r1, {}	; <UNPREDICTABLE>
     bac:	00000037 	andeq	r0, r0, r7, lsr r0
     bb0:	00000324 	andeq	r0, r0, r4, lsr #6
     bb4:	01006817 	tsteq	r0, r7, lsl r8
     bb8:	00022759 	andeq	r2, r2, r9, asr r7
     bbc:	00035800 	andeq	r5, r3, r0, lsl #16
     bc0:	01272200 	teqeq	r7, r0, lsl #4
     bc4:	08930000 	ldmeq	r3, {}	; <UNPREDICTABLE>
     bc8:	03050000 	movweq	r0, #20480	; 0x5000
     bcc:	00009d9c 	muleq	r0, ip, sp
     bd0:	00843423 	addeq	r3, r4, r3, lsr #8
     bd4:	00106d00 	andseq	r6, r0, r0, lsl #26
     bd8:	84481e00 	strbhi	r1, [r8], #-3584	; 0xe00
     bdc:	10170000 	andsne	r0, r7, r0
     be0:	080d0000 	stmdaeq	sp, {}	; <UNPREDICTABLE>
     be4:	011f0000 	tsteq	pc, r0
     be8:	5a080253 	bpl	20153c <__bss_end__+0x1f6924>
     bec:	0552011f 	ldrbeq	r0, [r2, #-287]	; 0x11f
     bf0:	009d9c03 	addseq	r9, sp, r3, lsl #24
     bf4:	51011f00 	tstpl	r1, r0, lsl #30
     bf8:	9e840305 	cdpls	3, 8, cr0, cr4, cr5, {0}
     bfc:	011f0000 	tsteq	pc, r0
     c00:	10030550 	andne	r0, r3, r0, asr r5
     c04:	0000009f 	muleq	r0, pc, r0	; <UNPREDICTABLE>
     c08:	00844c23 	addeq	r4, r4, r3, lsr #24
     c0c:	00107400 	andseq	r7, r0, r0, lsl #8
     c10:	84541e00 	ldrbhi	r1, [r4], #-3584	; 0xe00
     c14:	10170000 	andsne	r0, r7, r0
     c18:	082d0000 	stmdaeq	sp!, {}	; <UNPREDICTABLE>
     c1c:	011f0000 	tsteq	pc, r0
     c20:	14030550 	strne	r0, [r3], #-1360	; 0x550
     c24:	0000009d 	muleq	r0, sp, r0
     c28:	0084601e 	addeq	r6, r4, lr, lsl r0
     c2c:	00101700 	andseq	r1, r0, r0, lsl #14
     c30:	00084a00 	andeq	r4, r8, r0, lsl #20
     c34:	51011f00 	tstpl	r1, r0, lsl #30
     c38:	1f007402 	svcne	0x00007402
     c3c:	03055001 	movweq	r5, #20481	; 0x5001
     c40:	00009f44 	andeq	r9, r0, r4, asr #30
     c44:	846c1e00 	strbthi	r1, [ip], #-3584	; 0xe00
     c48:	061e0000 	ldreq	r0, [lr], -r0
     c4c:	085e0000 	ldmdaeq	lr, {}^	; <UNPREDICTABLE>
     c50:	011f0000 	tsteq	pc, r0
     c54:	00750250 	rsbseq	r0, r5, r0, asr r2
     c58:	84941e00 	ldrhi	r1, [r4], #3584	; 0xe00
     c5c:	045a0000 	ldrbeq	r0, [sl], #-0
     c60:	08720000 	ldmdaeq	r2!, {}^	; <UNPREDICTABLE>
     c64:	011f0000 	tsteq	pc, r0
     c68:	00740250 	rsbseq	r0, r4, r0, asr r2
     c6c:	84bc2000 	ldrthi	r2, [ip], #0
     c70:	04aa0000 	strteq	r0, [sl], #0
     c74:	011f0000 	tsteq	pc, r0
     c78:	00750250 	rsbseq	r0, r5, r0, asr r2
     c7c:	a6080000 	strge	r0, [r8], -r0
     c80:	93000000 	movwls	r0, #0
     c84:	09000008 	stmdbeq	r0, {r3}
     c88:	00000097 	muleq	r0, r7, r0
     c8c:	83070006 	movwhi	r0, #28678	; 0x7006
     c90:	25000008 	strcs	r0, [r0, #-8]
     c94:	0000005e 	andeq	r0, r0, lr, asr r0
     c98:	009e7401 	addseq	r7, lr, r1, lsl #8
     c9c:	84dc0000 	ldrbhi	r0, [ip], #0
     ca0:	022c0000 	eoreq	r0, ip, #0
     ca4:	9c010000 	stcls	0, cr0, [r1], {-0}
     ca8:	00000bf9 	strdeq	r0, [r0], -r9
     cac:	00034b16 	andeq	r4, r3, r6, lsl fp
     cb0:	7e740100 	rpwvcs	f0, f4, f0
     cb4:	6c000000 	stcvs	0, cr0, [r0], {-0}
     cb8:	16000003 	strne	r0, [r0], -r3
     cbc:	000008f0 	strdeq	r0, [r0], -r0	; <UNPREDICTABLE>
     cc0:	00ad7401 	adceq	r7, sp, r1, lsl #8
     cc4:	03ae0000 			; <UNDEFINED> instruction: 0x03ae0000
     cc8:	ba160000 	blt	580cd0 <__bss_end__+0x5760b8>
     ccc:	0100000b 	tsteq	r0, fp
     cd0:	0000ad74 	andeq	sl, r0, r4, ror sp
     cd4:	0003f000 	andeq	pc, r3, r0
     cd8:	033e1600 	teqeq	lr, #0, 12
     cdc:	74010000 	strvc	r0, [r1], #-0
     ce0:	00000037 	andeq	r0, r0, r7, lsr r0
     ce4:	00000432 	andeq	r0, r0, r2, lsr r4
     ce8:	01006817 	tsteq	r0, r7, lsl r8
     cec:	00022775 	andeq	r2, r2, r5, ror r7
     cf0:	00045e00 	andeq	r5, r4, r0, lsl #28
     cf4:	74701700 	ldrbtvc	r1, [r0], #-1792	; 0x700
     cf8:	76010072 			; <UNDEFINED> instruction: 0x76010072
     cfc:	0000009e 	muleq	r0, lr, r0
     d00:	0000048b 	andeq	r0, r0, fp, lsl #9
     d04:	00012722 	andeq	r2, r1, r2, lsr #14
     d08:	000bf900 	andeq	pc, fp, r0, lsl #18
     d0c:	a4030500 	strge	r0, [r3], #-1280	; 0x500
     d10:	1700009d 			; <UNDEFINED> instruction: 0x1700009d
     d14:	00746f74 	rsbseq	r6, r4, r4, ror pc
     d18:	00377b01 	eorseq	r7, r7, r1, lsl #22
     d1c:	049f0000 	ldreq	r0, [pc], #0	; d24 <__code_start__-0x72dc>
     d20:	6e170000 	cdpvs	0, 1, cr0, cr7, cr0, {0}
     d24:	377c0100 	ldrbcc	r0, [ip, -r0, lsl #2]!
     d28:	05000000 	streq	r0, [r0, #-0]
     d2c:	1b000005 	blne	d48 <__code_start__-0x72b8>
     d30:	00000247 	andeq	r0, r0, r7, asr #4
     d34:	00008638 	andeq	r8, r0, r8, lsr r6
     d38:	00000008 	andeq	r0, r0, r8
     d3c:	09519701 	ldmdbeq	r1, {r0, r8, r9, sl, ip, pc}^
     d40:	571c0000 	ldrpl	r0, [ip, -r0]
     d44:	2e000002 	cdpcs	0, 0, cr0, cr0, cr2, {0}
     d48:	00000005 	andeq	r0, r0, r5
     d4c:	0002611b 	andeq	r6, r2, fp, lsl r1
     d50:	00864000 	addeq	r4, r6, r0
     d54:	00000400 	andeq	r0, r0, r0, lsl #8
     d58:	6e970100 	fmlvss	f0, f7, f0
     d5c:	1c000009 	stcne	0, cr0, [r0], {9}
     d60:	00000271 	andeq	r0, r0, r1, ror r2
     d64:	0000054f 	andeq	r0, r0, pc, asr #10
     d68:	85082300 	strhi	r2, [r8, #-768]	; 0x300
     d6c:	106d0000 	rsbne	r0, sp, r0
     d70:	1c1e0000 	ldcne	0, cr0, [lr], {-0}
     d74:	17000085 	strne	r0, [r0, -r5, lsl #1]
     d78:	a6000010 			; <UNDEFINED> instruction: 0xa6000010
     d7c:	1f000009 	svcne	0x00000009
     d80:	08025301 	stmdaeq	r2, {r0, r8, r9, ip, lr}
     d84:	52011f78 	andpl	r1, r1, #120, 30	; 0x1e0
     d88:	9da40305 	stcls	3, cr0, [r4, #20]!
     d8c:	011f0000 	tsteq	pc, r0
     d90:	84030551 	strhi	r0, [r3], #-1361	; 0x551
     d94:	1f00009e 	svcne	0x0000009e
     d98:	03055001 	movweq	r5, #20481	; 0x5001
     d9c:	00009f10 	andeq	r9, r0, r0, lsl pc
     da0:	85202300 	strhi	r2, [r0, #-768]!	; 0x300
     da4:	10740000 	rsbsne	r0, r4, r0
     da8:	281e0000 	ldmdacs	lr, {}	; <UNPREDICTABLE>
     dac:	17000085 	strne	r0, [r0, -r5, lsl #1]
     db0:	c6000010 			; <UNDEFINED> instruction: 0xc6000010
     db4:	1f000009 	svcne	0x00000009
     db8:	03055001 	movweq	r5, #20481	; 0x5001
     dbc:	00009d14 	andeq	r9, r0, r4, lsl sp
     dc0:	85341e00 	ldrhi	r1, [r4, #-3584]!	; 0xe00
     dc4:	10170000 	andsne	r0, r7, r0
     dc8:	09e30000 	stmibeq	r3!, {}^	; <UNPREDICTABLE>
     dcc:	011f0000 	tsteq	pc, r0
     dd0:	00750251 	rsbseq	r0, r5, r1, asr r2
     dd4:	0550011f 	ldrbeq	r0, [r0, #-287]	; 0x11f
     dd8:	009f5003 	addseq	r5, pc, r3
     ddc:	501e0000 	andspl	r0, lr, r0
     de0:	17000085 	strne	r0, [r0, -r5, lsl #1]
     de4:	fa000010 	blx	e2c <__code_start__-0x71d4>
     de8:	1f000009 	svcne	0x00000009
     dec:	03055001 	movweq	r5, #20481	; 0x5001
     df0:	00009f68 	andeq	r9, r0, r8, ror #30
     df4:	855c1e00 	ldrbhi	r1, [ip, #-3584]	; 0xe00
     df8:	10170000 	andsne	r0, r7, r0
     dfc:	0a170000 	beq	5c0e04 <__bss_end__+0x5b61ec>
     e00:	011f0000 	tsteq	pc, r0
     e04:	00750251 	rsbseq	r0, r5, r1, asr r2
     e08:	0550011f 	ldrbeq	r0, [r0, #-287]	; 0x11f
     e0c:	009f7403 	addseq	r7, pc, r3, lsl #8
     e10:	60230000 	eorvs	r0, r3, r0
     e14:	6d000085 	stcvs	0, cr0, [r0, #-532]	; 0xfffffdec
     e18:	1e000010 	mcrne	0, 0, r0, cr0, cr0, {0}
     e1c:	00008578 	andeq	r8, r0, r8, ror r5
     e20:	00001017 	andeq	r1, r0, r7, lsl r0
     e24:	00000a56 	andeq	r0, r0, r6, asr sl
     e28:	0253011f 	subseq	r0, r3, #-1073741817	; 0xc0000007
     e2c:	011f8008 	tsteq	pc, r8
     e30:	a4030552 	strge	r0, [r3], #-1362	; 0x552
     e34:	1f00009d 	svcne	0x0000009d
     e38:	03055101 	movweq	r5, #20737	; 0x5101
     e3c:	00009e84 	andeq	r9, r0, r4, lsl #29
     e40:	0550011f 	ldrbeq	r0, [r0, #-287]	; 0x11f
     e44:	009f9c03 	addseq	r9, pc, r3, lsl #24
     e48:	7d021f00 	stcvc	15, cr1, [r2, #-0]
     e4c:	00750200 	rsbseq	r0, r5, r0, lsl #4
     e50:	857c2300 	ldrbhi	r2, [ip, #-768]!	; 0x300
     e54:	10740000 	rsbsne	r0, r4, r0
     e58:	9c1e0000 	ldcls	0, cr0, [lr], {-0}
     e5c:	17000085 	strne	r0, [r0, -r5, lsl #1]
     e60:	76000010 			; <UNDEFINED> instruction: 0x76000010
     e64:	1f00000a 	svcne	0x0000000a
     e68:	03055001 	movweq	r5, #20481	; 0x5001
     e6c:	00009f68 	andeq	r9, r0, r8, ror #30
     e70:	85b81e00 	ldrhi	r1, [r8, #3584]!	; 0xe00
     e74:	10170000 	andsne	r0, r7, r0
     e78:	0a930000 	beq	fe4c0e80 <__bss_end__+0xfe4b6268>
     e7c:	011f0000 	tsteq	pc, r0
     e80:	00760252 	rsbseq	r0, r6, r2, asr r2
     e84:	0550011f 	ldrbeq	r0, [r0, #-287]	; 0x11f
     e88:	009fd403 	addseq	sp, pc, r3, lsl #8
     e8c:	bc230000 	stclt	0, cr0, [r3], #-0
     e90:	6d000085 	stcvs	0, cr0, [r0, #-532]	; 0xfffffdec
     e94:	1e000010 	mcrne	0, 0, r0, cr0, cr0, {0}
     e98:	000085e4 	andeq	r8, r0, r4, ror #11
     e9c:	00001017 	andeq	r1, r0, r7, lsl r0
     ea0:	00000ad2 	ldrdeq	r0, [r0], -r2
     ea4:	0253011f 	subseq	r0, r3, #-1073741817	; 0xc0000007
     ea8:	011f8408 	tsteq	pc, r8, lsl #8
     eac:	a4030552 	strge	r0, [r3], #-1362	; 0x552
     eb0:	1f00009d 	svcne	0x0000009d
     eb4:	03055101 	movweq	r5, #20737	; 0x5101
     eb8:	00009e84 	andeq	r9, r0, r4, lsl #29
     ebc:	0550011f 	ldrbeq	r0, [r0, #-287]	; 0x11f
     ec0:	00a00003 	adceq	r0, r0, r3
     ec4:	7d021f00 	stcvc	15, cr1, [r2, #-0]
     ec8:	00760204 	rsbseq	r0, r6, r4, lsl #4
     ecc:	85e82300 	strbhi	r2, [r8, #768]!	; 0x300
     ed0:	10740000 	rsbsne	r0, r4, r0
     ed4:	281e0000 	ldmdacs	lr, {}	; <UNPREDICTABLE>
     ed8:	aa000086 	bge	10f8 <__code_start__-0x6f08>
     edc:	ef000004 	svc	0x00000004
     ee0:	1f00000a 	svcne	0x0000000a
     ee4:	74025001 	strvc	r5, [r2], #-1
     ee8:	381e0000 	ldmdacc	lr, {}	; <UNPREDICTABLE>
     eec:	5a000086 	bpl	110c <__code_start__-0x6ef4>
     ef0:	09000004 	stmdbeq	r0, {r2}
     ef4:	1f00000b 	svcne	0x0000000b
     ef8:	08025101 	stmdaeq	r2, {r0, r8, ip, lr}
     efc:	50011f80 	andpl	r1, r1, r0, lsl #31
     f00:	00387402 	eorseq	r7, r8, r2, lsl #8
     f04:	00865023 	addeq	r5, r6, r3, lsr #32
     f08:	00045a00 	andeq	r5, r4, r0, lsl #20
     f0c:	86581e00 	ldrbhi	r1, [r8], -r0, lsl #28
     f10:	052e0000 	streq	r0, [lr, #-0]!
     f14:	0b260000 	bleq	980f1c <__bss_end__+0x976304>
     f18:	011f0000 	tsteq	pc, r0
     f1c:	00740250 	rsbseq	r0, r4, r0, asr r2
     f20:	86642300 	strbthi	r2, [r4], -r0, lsl #6
     f24:	106d0000 	rsbne	r0, sp, r0
     f28:	781e0000 	ldmdavc	lr, {}	; <UNPREDICTABLE>
     f2c:	17000086 	strne	r0, [r0, -r6, lsl #1]
     f30:	5e000010 	mcrpl	0, 0, r0, cr0, cr0, {0}
     f34:	1f00000b 	svcne	0x0000000b
     f38:	08025301 	stmdaeq	r2, {r0, r8, r9, ip, lr}
     f3c:	52011f9b 	andpl	r1, r1, #620	; 0x26c
     f40:	9da40305 	stcls	3, cr0, [r4, #20]!
     f44:	011f0000 	tsteq	pc, r0
     f48:	84030551 	strhi	r0, [r3], #-1361	; 0x551
     f4c:	1f00009e 	svcne	0x0000009e
     f50:	03055001 	movweq	r5, #20481	; 0x5001
     f54:	0000a03c 	andeq	sl, r0, ip, lsr r0
     f58:	867c2300 	ldrbthi	r2, [ip], -r0, lsl #6
     f5c:	10740000 	rsbsne	r0, r4, r0
     f60:	841e0000 	ldrhi	r0, [lr], #-0
     f64:	1e000086 	cdpne	0, 0, cr0, cr0, cr6, {4}
     f68:	7b000006 	blvc	f88 <__code_start__-0x7078>
     f6c:	1f00000b 	svcne	0x0000000b
     f70:	74025001 	strvc	r5, [r2], #-1
     f74:	90230000 	eorls	r0, r3, r0
     f78:	6d000086 	stcvs	0, cr0, [r0, #-536]	; 0xfffffde8
     f7c:	1e000010 	mcrne	0, 0, r0, cr0, cr0, {0}
     f80:	000086a4 	andeq	r8, r0, r4, lsr #13
     f84:	00001017 	andeq	r1, r0, r7, lsl r0
     f88:	00000bb3 			; <UNDEFINED> instruction: 0x00000bb3
     f8c:	0253011f 	subseq	r0, r3, #-1073741817	; 0xc0000007
     f90:	011f9c08 	tsteq	pc, r8, lsl #24
     f94:	a4030552 	strge	r0, [r3], #-1362	; 0x552
     f98:	1f00009d 	svcne	0x0000009d
     f9c:	03055101 	movweq	r5, #20737	; 0x5101
     fa0:	00009e84 	andeq	r9, r0, r4, lsl #29
     fa4:	0550011f 	ldrbeq	r0, [r0, #-287]	; 0x11f
     fa8:	00a05c03 	adceq	r5, r0, r3, lsl #24
     fac:	a8230000 	stmdage	r3!, {}	; <UNPREDICTABLE>
     fb0:	74000086 	strvc	r0, [r0], #-134	; 0x86
     fb4:	1e000010 	mcrne	0, 0, r0, cr0, cr0, {0}
     fb8:	000086b0 			; <UNDEFINED> instruction: 0x000086b0
     fbc:	00001017 	andeq	r1, r0, r7, lsl r0
     fc0:	00000bd3 	ldrdeq	r0, [r0], -r3
     fc4:	0550011f 	ldrbeq	r0, [r0, #-287]	; 0x11f
     fc8:	009d1403 	addseq	r1, sp, r3, lsl #8
     fcc:	c4200000 	strtgt	r0, [r0], #-0
     fd0:	17000086 	strne	r0, [r0, -r6, lsl #1]
     fd4:	1f000010 	svcne	0x00000010
     fd8:	77025301 	strvc	r5, [r2, -r1, lsl #6]
     fdc:	52011f00 	andpl	r1, r1, #0, 30
     fe0:	1f007602 	svcne	0x00007602
     fe4:	75025101 	strvc	r5, [r2, #-257]	; 0x101
     fe8:	50011f00 	andpl	r1, r1, r0, lsl #30
     fec:	a07c0305 	rsbsge	r0, ip, r5, lsl #6
     ff0:	00000000 	andeq	r0, r0, r0
     ff4:	0000b807 	andeq	fp, r0, r7, lsl #16
     ff8:	00cc2500 	sbceq	r2, ip, r0, lsl #10
     ffc:	a4010000 	strge	r0, [r1], #-0
    1000:	00000025 	andeq	r0, r0, r5, lsr #32
    1004:	00008708 	andeq	r8, r0, r8, lsl #14
    1008:	00000170 	andeq	r0, r0, r0, ror r1
    100c:	0df89c01 	ldcleq	12, cr9, [r8, #4]!
    1010:	2a1a0000 	bcs	681018 <__bss_end__+0x676400>
    1014:	01000003 	tsteq	r0, r3
    1018:	000037a5 	andeq	r3, r0, r5, lsr #15
    101c:	00057000 	andeq	r7, r5, r0
    1020:	03881a00 	orreq	r1, r8, #0, 20
    1024:	a6010000 	strge	r0, [r1], -r0
    1028:	00000037 	andeq	r0, r0, r7, lsr r0
    102c:	00000583 	andeq	r0, r0, r3, lsl #11
    1030:	0002e91a 	andeq	lr, r2, sl, lsl r9
    1034:	37aa0100 	strcc	r0, [sl, r0, lsl #2]!
    1038:	96000000 	strls	r0, [r0], -r0
    103c:	1a000005 	bne	1058 <__code_start__-0x6fa8>
    1040:	000002fb 	strdeq	r0, [r0], -fp
    1044:	0037ab01 	eorseq	sl, r7, r1, lsl #22
    1048:	05b50000 	ldreq	r0, [r5, #0]!
    104c:	59190000 	ldmdbpl	r9, {}	; <UNPREDICTABLE>
    1050:	01000002 	tsteq	r0, r2
    1054:	000df8ad 	andeq	pc, sp, sp, lsr #17
    1058:	22540100 	subscs	r0, r4, #0, 2
    105c:	00000127 	andeq	r0, r0, r7, lsr #2
    1060:	00000e0e 	andeq	r0, r0, lr, lsl #28
    1064:	9dac0305 	stcls	3, cr0, [ip, #20]!
    1068:	00260000 	eoreq	r0, r6, r0
    106c:	59000000 	stmdbpl	r0, {}	; <UNPREDICTABLE>
    1070:	1700000d 	strne	r0, [r0, -sp]
    1074:	b0010068 	andlt	r0, r1, r8, rrx
    1078:	00000227 	andeq	r0, r0, r7, lsr #4
    107c:	000005d4 	ldrdeq	r0, [r0], -r4
    1080:	00876423 	addeq	r6, r7, r3, lsr #8
    1084:	00106d00 	andseq	r6, r0, r0, lsl #26
    1088:	87781e00 	ldrbhi	r1, [r8, -r0, lsl #28]!
    108c:	10170000 	andsne	r0, r7, r0
    1090:	0cbd0000 	ldceq	0, cr0, [sp]
    1094:	011f0000 	tsteq	pc, r0
    1098:	af080253 	svcge	0x00080253
    109c:	0552011f 	ldrbeq	r0, [r2, #-287]	; 0x11f
    10a0:	009dac03 	addseq	sl, sp, r3, lsl #24
    10a4:	51011f00 	tstpl	r1, r0, lsl #30
    10a8:	9e840305 	cdpls	3, 8, cr0, cr4, cr5, {0}
    10ac:	011f0000 	tsteq	pc, r0
    10b0:	e4030550 	str	r0, [r3], #-1360	; 0x550
    10b4:	000000a0 	andeq	r0, r0, r0, lsr #1
    10b8:	00877c23 	addeq	r7, r7, r3, lsr #24
    10bc:	00107400 	andseq	r7, r0, r0, lsl #8
    10c0:	87841e00 	strhi	r1, [r4, r0, lsl #28]
    10c4:	052e0000 	streq	r0, [lr, #-0]!
    10c8:	0cda0000 	ldcleq	0, cr0, [sl], {0}
    10cc:	011f0000 	tsteq	pc, r0
    10d0:	00740250 	rsbseq	r0, r4, r0, asr r2
    10d4:	87941e00 	ldrhi	r1, [r4, r0, lsl #28]
    10d8:	10170000 	andsne	r0, r7, r0
    10dc:	0cee0000 	stcleq	0, cr0, [lr]
    10e0:	011f0000 	tsteq	pc, r0
    10e4:	00790250 	rsbseq	r0, r9, r0, asr r2
    10e8:	879c1e00 	ldrhi	r1, [ip, r0, lsl #28]
    10ec:	10170000 	andsne	r0, r7, r0
    10f0:	0d050000 	stceq	0, cr0, [r5, #-0]
    10f4:	011f0000 	tsteq	pc, r0
    10f8:	08030550 	stmdaeq	r3, {r4, r6, r8, sl}
    10fc:	000000a1 	andeq	r0, r0, r1, lsr #1
    1100:	0087ac1e 	addeq	sl, r7, lr, lsl ip
    1104:	00061e00 	andeq	r1, r6, r0, lsl #28
    1108:	000d1900 	andeq	r1, sp, r0, lsl #18
    110c:	50011f00 	andpl	r1, r1, r0, lsl #30
    1110:	00007402 	andeq	r7, r0, r2, lsl #8
    1114:	0087d01e 	addeq	sp, r7, lr, lsl r0
    1118:	0002d600 	andeq	sp, r2, r0, lsl #12
    111c:	000d3400 	andeq	r3, sp, r0, lsl #8
    1120:	51011f00 	tstpl	r1, r0, lsl #30
    1124:	01b87403 			; <UNDEFINED> instruction: 0x01b87403
    1128:	0250011f 	subseq	r0, r0, #-1073741817	; 0xc0000007
    112c:	1e000074 	mcrne	0, 0, r0, cr0, cr4, {3}
    1130:	000087e0 	andeq	r8, r0, r0, ror #15
    1134:	00001017 	andeq	r1, r0, r7, lsl r0
    1138:	00000d48 	andeq	r0, r0, r8, asr #26
    113c:	0250011f 	subseq	r0, r0, #-1073741817	; 0xc0000007
    1140:	20000079 	andcs	r0, r0, r9, ror r0
    1144:	000087e8 	andeq	r8, r0, r8, ror #15
    1148:	00001017 	andeq	r1, r0, r7, lsl r0
    114c:	0250011f 	subseq	r0, r0, #-1073741817	; 0xc0000007
    1150:	00000078 	andeq	r0, r0, r8, ror r0
    1154:	00872c1e 	addeq	r2, r7, lr, lsl ip
    1158:	00101700 	andseq	r1, r0, r0, lsl #14
    115c:	000d7000 	andeq	r7, sp, r0
    1160:	50011f00 	andpl	r1, r1, r0, lsl #30
    1164:	9d140305 	ldcls	3, cr0, [r4, #-20]	; 0xffffffec
    1168:	1e000000 	cdpne	0, 0, cr0, cr0, cr0, {0}
    116c:	0000873c 	andeq	r8, r0, ip, lsr r7
    1170:	00001017 	andeq	r1, r0, r7, lsl r0
    1174:	00000d93 	muleq	r0, r3, sp
    1178:	0252011f 	subseq	r0, r2, #-1073741817	; 0xc0000007
    117c:	011f0075 	tsteq	pc, r5, ror r0	; <UNPREDICTABLE>
    1180:	00760251 	rsbseq	r0, r6, r1, asr r2
    1184:	0550011f 	ldrbeq	r0, [r0, #-287]	; 0x11f
    1188:	00a0ac03 	adceq	sl, r0, r3, lsl #24
    118c:	201e0000 	andscs	r0, lr, r0
    1190:	17000088 	strne	r0, [r0, -r8, lsl #1]
    1194:	a7000010 	smladge	r0, r0, r0, r0
    1198:	1f00000d 	svcne	0x0000000d
    119c:	79025001 	stmdbvc	r2, {r0, ip, lr}
    11a0:	301e0000 	andscc	r0, lr, r0
    11a4:	17000088 	strne	r0, [r0, -r8, lsl #1]
    11a8:	ca000010 	bgt	11f0 <__code_start__-0x6e10>
    11ac:	1f00000d 	svcne	0x0000000d
    11b0:	76025201 	strvc	r5, [r2], -r1, lsl #4
    11b4:	51011f00 	tstpl	r1, r0, lsl #30
    11b8:	1f007502 	svcne	0x00007502
    11bc:	03055001 	movweq	r5, #20481	; 0x5001
    11c0:	0000a138 	andeq	sl, r0, r8, lsr r1
    11c4:	883c1e00 	ldmdahi	ip!, {r9, sl, fp, ip}
    11c8:	10170000 	andsne	r0, r7, r0
    11cc:	0dde0000 	ldcleq	0, cr0, [lr]
    11d0:	011f0000 	tsteq	pc, r0
    11d4:	00790250 	rsbseq	r0, r9, r0, asr r2
    11d8:	88482000 	stmdahi	r8, {sp}^
    11dc:	10170000 	andsne	r0, r7, r0
    11e0:	011f0000 	tsteq	pc, r0
    11e4:	00750251 	rsbseq	r0, r5, r1, asr r2
    11e8:	0550011f 	ldrbeq	r0, [r0, #-287]	; 0x11f
    11ec:	00a16003 	adceq	r6, r1, r3
    11f0:	06000000 	streq	r0, [r0], -r0
    11f4:	00005a04 	andeq	r5, r0, r4, lsl #20
    11f8:	00a60800 	adceq	r0, r6, r0, lsl #16
    11fc:	0e0e0000 	cdpeq	0, 0, cr0, cr14, cr0, {0}
    1200:	97090000 	strls	r0, [r9, -r0]
    1204:	0e000000 	cdpeq	0, 0, cr0, cr0, cr0, {0}
    1208:	0dfe0700 	ldcleq	7, cr0, [lr]
    120c:	c2250000 	eorgt	r0, r5, #0
    1210:	01000001 	tsteq	r0, r1
    1214:	000227ce 	andeq	r2, r2, lr, asr #15
    1218:	00887800 	addeq	r7, r8, r0, lsl #16
    121c:	00005000 	andeq	r5, r0, r0
    1220:	9e9c0100 	fmllse	f0, f4, f0
    1224:	1900000e 	stmdbne	r0, {r1, r2, r3}
    1228:	00000242 	andeq	r0, r0, r2, asr #4
    122c:	0227cf01 	eoreq	ip, r7, #1, 30
    1230:	54010000 	strpl	r0, [r1], #-0
    1234:	00012722 	andeq	r2, r1, r2, lsr #14
    1238:	000eae00 	andeq	sl, lr, r0, lsl #28
    123c:	bc030500 	cfstr32lt	mvfx0, [r3], {-0}
    1240:	1e00009d 	mcrne	0, 0, r0, cr0, cr13, {4}
    1244:	0000888c 	andeq	r8, r0, ip, lsl #17
    1248:	0000052e 	andeq	r0, r0, lr, lsr #10
    124c:	00000e5c 	andeq	r0, r0, ip, asr lr
    1250:	0250011f 	subseq	r0, r0, #-1073741817	; 0xc0000007
    1254:	23000074 	movwcs	r0, #116	; 0x74
    1258:	00008898 	muleq	r0, r8, r8
    125c:	0000106d 	andeq	r1, r0, sp, rrx
    1260:	0088ac1e 	addeq	sl, r8, lr, lsl ip
    1264:	00101700 	andseq	r1, r0, r0, lsl #14
    1268:	000e9400 	andeq	r9, lr, r0, lsl #8
    126c:	53011f00 	movwpl	r1, #7936	; 0x1f00
    1270:	1fd20802 	svcne	0x00d20802
    1274:	03055201 	movweq	r5, #20993	; 0x5201
    1278:	00009dbc 			; <UNDEFINED> instruction: 0x00009dbc
    127c:	0551011f 	ldrbeq	r0, [r1, #-287]	; 0x11f
    1280:	009e8403 	addseq	r8, lr, r3, lsl #8
    1284:	50011f00 	andpl	r1, r1, r0, lsl #30
    1288:	a1900305 	orrsge	r0, r0, r5, lsl #6
    128c:	23000000 	movwcs	r0, #0
    1290:	000088b0 			; <UNDEFINED> instruction: 0x000088b0
    1294:	00001074 	andeq	r1, r0, r4, ror r0
    1298:	00a60800 	adceq	r0, r6, r0, lsl #16
    129c:	0eae0000 	cdpeq	0, 10, cr0, cr14, cr0, {0}
    12a0:	97090000 	strls	r0, [r9, -r0]
    12a4:	0c000000 	stceq	0, cr0, [r0], {-0}
    12a8:	0e9e0700 	cdpeq	7, 9, cr0, cr14, cr0, {0}
    12ac:	6d250000 	stcvs	0, cr0, [r5, #-0]
    12b0:	01000002 	tsteq	r0, r2
    12b4:	000227d7 	ldrdeq	r2, [r2], -r7
    12b8:	0088c800 	addeq	ip, r8, r0, lsl #16
    12bc:	00009800 	andeq	r9, r0, r0, lsl #16
    12c0:	a99c0100 	ldmibge	ip, {r8}
    12c4:	1500000f 	strne	r0, [r0, #-15]
    12c8:	d7010070 	smlsdxle	r1, r0, r0, r0
    12cc:	00000227 	andeq	r0, r0, r7, lsr #4
    12d0:	000005e7 	andeq	r0, r0, r7, ror #11
    12d4:	00027019 	andeq	r7, r2, r9, lsl r0
    12d8:	27d80100 	ldrbcs	r0, [r8, r0, lsl #2]
    12dc:	01000002 	tsteq	r0, r2
    12e0:	01272254 	teqeq	r7, r4, asr r2
    12e4:	0fb90000 	svceq	0x00b90000
    12e8:	03050000 	movweq	r0, #20480	; 0x5000
    12ec:	00009dcc 	andeq	r9, r0, ip, asr #27
    12f0:	0002971b 	andeq	r9, r2, fp, lsl r7
    12f4:	0088cc00 	addeq	ip, r8, r0, lsl #24
    12f8:	00001000 	andeq	r1, r0, r0
    12fc:	12d80100 	sbcsne	r0, r8, #0, 2
    1300:	1c00000f 	stcne	0, cr0, [r0], {15}
    1304:	000002a7 	andeq	r0, r0, r7, lsr #5
    1308:	0000063a 	andeq	r0, r0, sl, lsr r6
    130c:	88f82300 	ldmhi	r8!, {r8, r9, sp}^
    1310:	106d0000 	rsbne	r0, sp, r0
    1314:	0c1e0000 	ldceq	0, cr0, [lr], {-0}
    1318:	17000089 	strne	r0, [r0, -r9, lsl #1]
    131c:	4a000010 	bmi	1364 <__code_start__-0x6c9c>
    1320:	1f00000f 	svcne	0x0000000f
    1324:	08025301 	stmdaeq	r2, {r0, r8, r9, ip, lr}
    1328:	52011fe1 	andpl	r1, r1, #900	; 0x384
    132c:	9dcc0305 	stclls	3, cr0, [ip, #20]
    1330:	011f0000 	tsteq	pc, r0
    1334:	84030551 	strhi	r0, [r3], #-1361	; 0x551
    1338:	1f00009e 	svcne	0x0000009e
    133c:	03055001 	movweq	r5, #20481	; 0x5001
    1340:	0000a1b4 			; <UNDEFINED> instruction: 0x0000a1b4
    1344:	89102300 	ldmdbhi	r0, {r8, r9, sp}
    1348:	10740000 	rsbsne	r0, r4, r0
    134c:	181e0000 	ldmdane	lr, {}	; <UNPREDICTABLE>
    1350:	2e000089 	cdpcs	0, 0, cr0, cr0, cr9, {4}
    1354:	67000005 	strvs	r0, [r0, -r5]
    1358:	1f00000f 	svcne	0x0000000f
    135c:	74025001 	strvc	r5, [r2], #-1
    1360:	24230000 	strtcs	r0, [r3], #-0
    1364:	6d000089 	stcvs	0, cr0, [r0, #-548]	; 0xfffffddc
    1368:	1e000010 	mcrne	0, 0, r0, cr0, cr0, {0}
    136c:	00008938 	andeq	r8, r0, r8, lsr r9
    1370:	00001017 	andeq	r1, r0, r7, lsl r0
    1374:	00000f9f 	muleq	r0, pc, pc	; <UNPREDICTABLE>
    1378:	0253011f 	subseq	r0, r3, #-1073741817	; 0xc0000007
    137c:	011fe208 	tsteq	pc, r8, lsl #4
    1380:	cc030552 	cfstr32gt	mvfx0, [r3], {82}	; 0x52
    1384:	1f00009d 	svcne	0x0000009d
    1388:	03055101 	movweq	r5, #20737	; 0x5101
    138c:	00009e84 	andeq	r9, r0, r4, lsl #29
    1390:	0550011f 	ldrbeq	r0, [r0, #-287]	; 0x11f
    1394:	00a1e003 	adceq	lr, r1, r3
    1398:	3c230000 	stccc	0, cr0, [r3], #-0
    139c:	74000089 	strvc	r0, [r0], #-137	; 0x89
    13a0:	00000010 	andeq	r0, r0, r0, lsl r0
    13a4:	0000a608 	andeq	sl, r0, r8, lsl #12
    13a8:	000fb900 	andeq	fp, pc, r0, lsl #18
    13ac:	00970900 	addseq	r0, r7, r0, lsl #18
    13b0:	000b0000 	andeq	r0, fp, r0
    13b4:	000fa907 	andeq	sl, pc, r7, lsl #18
    13b8:	02c12700 	sbceq	r2, r1, #0, 14
    13bc:	e6010000 	str	r0, [r1], -r0
    13c0:	000001d0 	ldrdeq	r0, [r0], -r0	; <UNPREDICTABLE>
    13c4:	00008960 	andeq	r8, r0, r0, ror #18
    13c8:	0000001c 	andeq	r0, r0, ip, lsl r0
    13cc:	26199c01 	ldrcs	r9, [r9], -r1, lsl #24
    13d0:	01000004 	tsteq	r0, r4
    13d4:	000df808 	andeq	pc, sp, r8, lsl #16
    13d8:	ec030500 	cfstr32	mvfx0, [r3], {-0}
    13dc:	190000a7 	stmdbne	r0, {r0, r1, r2, r5, r7}
    13e0:	00000d6e 	andeq	r0, r0, lr, ror #26
    13e4:	0df80801 	ldcleq	8, cr0, [r8, #4]!
    13e8:	03050000 	movweq	r0, #20480	; 0x5000
    13ec:	0000a7f0 	strdeq	sl, [r0], -r0
    13f0:	000d5b19 	andeq	r5, sp, r9, lsl fp
    13f4:	f8080100 			; <UNDEFINED> instruction: 0xf8080100
    13f8:	0500000d 	streq	r0, [r0, #-13]
    13fc:	00a7e803 	adceq	lr, r7, r3, lsl #16
    1400:	02141900 	andseq	r1, r4, #0, 18
    1404:	0a010000 	beq	4140c <__bss_end__+0x367f4>
    1408:	000001d0 	ldrdeq	r0, [r0], -r0	; <UNPREDICTABLE>
    140c:	a7f40305 	ldrbge	r0, [r4, r5, lsl #6]!
    1410:	0f280000 	svceq	0x00280000
    1414:	05000005 	streq	r0, [r0, #-5]
    1418:	00002529 	andeq	r2, r0, r9, lsr #10
    141c:	00102d00 	andseq	r2, r0, r0, lsl #26
    1420:	00ad2900 	adceq	r2, sp, r0, lsl #18
    1424:	002a0000 	eoreq	r0, sl, r0
    1428:	00012028 	andeq	r2, r1, r8, lsr #32
    142c:	9e1b0600 	cfmsub32ls	mvax0, mvfx0, mvfx11, mvfx0
    1430:	4c000000 	stcmi	0, cr0, [r0], {-0}
    1434:	29000010 	stmdbcs	r0, {r4}
    1438:	0000009e 	muleq	r0, lr, r0
    143c:	00002529 	andeq	r2, r0, r9, lsr #10
    1440:	002c2900 	eoreq	r2, ip, r0, lsl #18
    1444:	28000000 	stmdacs	r0, {}	; <UNPREDICTABLE>
    1448:	000001e4 	andeq	r0, r0, r4, ror #3
    144c:	007e0507 	rsbseq	r0, lr, r7, lsl #10
    1450:	10660000 	rsbne	r0, r6, r0
    1454:	66290000 	strtvs	r0, [r9], -r0
    1458:	29000010 	stmdbcs	r0, {r4}
    145c:	00000025 	andeq	r0, r0, r5, lsr #32
    1460:	6c040600 	stcvs	6, cr0, [r4], {-0}
    1464:	2b000010 	blcs	14ac <__code_start__-0x6b54>
    1468:	0001112c 	andeq	r1, r1, ip, lsr #2
    146c:	2c1e0500 	cfldr32cs	mvfx0, [lr], {-0}
    1470:	000000e9 	andeq	r0, r0, r9, ror #1
    1474:	6d006505 	cfstr32vs	mvfx6, [r0, #-20]	; 0xffffffec
    1478:	0400000d 	streq	r0, [r0], #-13
    147c:	0003a000 	andeq	sl, r3, r0
    1480:	07010400 	streq	r0, [r1, -r0, lsl #8]
    1484:	01000000 	mrseq	r0, (UNDEF: 0)
    1488:	00000462 	andeq	r0, r0, r2, ror #8
    148c:	00000066 	andeq	r0, r0, r6, rrx
    1490:	0000897c 	andeq	r8, r0, ip, ror r9
    1494:	0000068c 	andeq	r0, r0, ip, lsl #13
    1498:	0000045b 	andeq	r0, r0, fp, asr r4
    149c:	69050402 	stmdbvs	r5, {r1, sl}
    14a0:	0300746e 	movweq	r7, #1134	; 0x46e
    14a4:	015a0704 	cmpeq	sl, r4, lsl #14
    14a8:	01030000 	mrseq	r0, (UNDEF: 3)
    14ac:	0000dd06 	andeq	sp, r0, r6, lsl #26
    14b0:	05020300 	streq	r0, [r2, #-768]	; 0x300
    14b4:	00000185 	andeq	r0, r0, r5, lsl #3
    14b8:	75050403 	strvc	r0, [r5, #-1027]	; 0x403
    14bc:	03000001 	movweq	r0, #1
    14c0:	01700508 	cmneq	r0, r8, lsl #10
    14c4:	01030000 	mrseq	r0, (UNDEF: 3)
    14c8:	0000db08 	andeq	sp, r0, r8, lsl #22
    14cc:	021c0400 	andseq	r0, ip, #0, 8
    14d0:	31020000 	mrscc	r0, (UNDEF: 2)
    14d4:	00000061 	andeq	r0, r0, r1, rrx
    14d8:	f6070203 			; <UNDEFINED> instruction: 0xf6070203
    14dc:	04000000 	streq	r0, [r0], #-0
    14e0:	0000018f 	andeq	r0, r0, pc, lsl #3
    14e4:	00733402 	rsbseq	r3, r3, r2, lsl #8
    14e8:	04030000 	streq	r0, [r3], #-0
    14ec:	00015507 	andeq	r5, r1, r7, lsl #10
    14f0:	07080300 	streq	r0, [r8, -r0, lsl #6]
    14f4:	00000150 	andeq	r0, r0, r0, asr r1
    14f8:	67070403 	strvs	r0, [r7, -r3, lsl #8]
    14fc:	05000001 	streq	r0, [r0, #-1]
    1500:	08010304 	stmdaeq	r1, {r2, r8, r9}
    1504:	000000e4 	andeq	r0, r0, r4, ror #1
    1508:	00970406 	addseq	r0, r7, r6, lsl #8
    150c:	8a070000 	bhi	1c1514 <__bss_end__+0x1b68fc>
    1510:	08000000 	stmdaeq	r0, {}	; <UNPREDICTABLE>
    1514:	b1270301 	teqlt	r7, r1, lsl #6
    1518:	09000000 	stmdbeq	r0, {}	; <UNPREDICTABLE>
    151c:	000001fe 	strdeq	r0, [r0], -lr
    1520:	01f8090b 	mvnseq	r0, fp, lsl #18
    1524:	000c0000 	andeq	r0, ip, r0
    1528:	29030c0a 	stmdbcs	r3, {r1, r3, sl, fp}
    152c:	000000de 	ldrdeq	r0, [r0], -lr
    1530:	0008f00b 	andeq	pc, r8, fp
    1534:	912a0300 	teqls	sl, r0, lsl #6
    1538:	00000000 	andeq	r0, r0, r0
    153c:	000bba0b 	andeq	fp, fp, fp, lsl #20
    1540:	912b0300 	teqls	fp, r0, lsl #6
    1544:	04000000 	streq	r0, [r0], #-0
    1548:	00033e0b 	andeq	r3, r3, fp, lsl #28
    154c:	2c2c0300 	stccs	3, cr0, [ip], #-0
    1550:	08000000 	stmdaeq	r0, {}	; <UNPREDICTABLE>
    1554:	02cb0400 	sbceq	r0, fp, #0, 8
    1558:	2d030000 	stccs	0, cr0, [r3, #-0]
    155c:	000000b1 	strheq	r0, [r0], -r1
    1560:	0003970c 	andeq	r9, r3, ip, lsl #14
    1564:	30033800 	andcc	r3, r3, r0, lsl #16
    1568:	0000016e 	andeq	r0, r0, lr, ror #2
    156c:	00029f0b 	andeq	r9, r2, fp, lsl #30
    1570:	68310300 	ldmdavs	r1!, {r8, r9}
    1574:	00000000 	andeq	r0, r0, r0
    1578:	00037d0b 	andeq	r7, r3, fp, lsl #26
    157c:	68320300 	ldmdavs	r2!, {r8, r9}
    1580:	04000000 	streq	r0, [r0], #-0
    1584:	00077b0b 	andeq	r7, r7, fp, lsl #22
    1588:	68330300 	ldmdavs	r3!, {r8, r9}
    158c:	08000000 	stmdaeq	r0, {}	; <UNPREDICTABLE>
    1590:	0002990b 	andeq	r9, r2, fp, lsl #18
    1594:	68370300 	ldmdavs	r7!, {r8, r9}
    1598:	0c000000 	stceq	0, cr0, [r0], {-0}
    159c:	0002790b 	andeq	r7, r2, fp, lsl #18
    15a0:	de390300 	cdple	3, 3, cr0, cr9, cr0, {0}
    15a4:	10000000 	andne	r0, r0, r0
    15a8:	0002ac0b 	andeq	sl, r2, fp, lsl #24
    15ac:	de3a0300 	cdple	3, 3, cr0, cr10, cr0, {0}
    15b0:	1c000000 	stcne	0, cr0, [r0], {-0}
    15b4:	0003720b 	andeq	r7, r3, fp, lsl #4
    15b8:	683e0300 	ldmdavs	lr!, {r8, r9}
    15bc:	28000000 	stmdacs	r0, {}	; <UNPREDICTABLE>
    15c0:	0003170b 	andeq	r1, r3, fp, lsl #14
    15c4:	683f0300 	ldmdavs	pc!, {r8, r9}	; <UNPREDICTABLE>
    15c8:	2c000000 	stccs	0, cr0, [r0], {-0}
    15cc:	0001cf0b 	andeq	ip, r1, fp, lsl #30
    15d0:	6e420300 	cdpvs	3, 4, cr0, cr2, cr0, {0}
    15d4:	30000001 	andcc	r0, r0, r1
    15d8:	0001d80b 	andeq	sp, r1, fp, lsl #16
    15dc:	56450300 	strbpl	r0, [r5], -r0, lsl #6
    15e0:	34000000 	strcc	r0, [r0], #-0
    15e4:	e9040600 	stmdb	r4, {r9, sl}
    15e8:	04000000 	streq	r0, [r0], #-0
    15ec:	00000368 	andeq	r0, r0, r8, ror #6
    15f0:	00e94603 	rsceq	r4, r9, r3, lsl #12
    15f4:	02080000 	andeq	r0, r8, #0
    15f8:	01a44903 			; <UNDEFINED> instruction: 0x01a44903
    15fc:	01090000 	mrseq	r0, (UNDEF: 9)
    1600:	fe000003 	cdp2	0, 0, cr0, cr0, cr3, {0}
    1604:	028d0901 	addeq	r0, sp, #16384	; 0x4000
    1608:	01800000 	orreq	r0, r0, r0
    160c:	00023509 	andeq	r3, r2, r9, lsl #10
    1610:	0901b800 	stmdbeq	r1, {fp, ip, sp, pc}
    1614:	00000225 	andeq	r0, r0, r5, lsr #4
    1618:	0c0002b8 	sfmeq	f0, 4, [r0], {184}	; 0xb8
    161c:	000002c1 	andeq	r0, r0, r1, asr #5
    1620:	e19b0310 	orrs	r0, fp, r0, lsl r3
    1624:	0b000001 	bleq	1630 <__code_start__-0x69d0>
    1628:	00000d5b 	andeq	r0, r0, fp, asr sp
    162c:	00889d03 	addeq	r9, r8, r3, lsl #26
    1630:	0b000000 	bleq	1638 <__code_start__-0x69c8>
    1634:	00000d6e 	andeq	r0, r0, lr, ror #26
    1638:	00889f03 	addeq	r9, r8, r3, lsl #30
    163c:	0b040000 	bleq	101644 <__bss_end__+0xf6a2c>
    1640:	000001b5 			; <UNDEFINED> instruction: 0x000001b5
    1644:	002ca203 	eoreq	sl, ip, r3, lsl #4
    1648:	0b080000 	bleq	201650 <__bss_end__+0x1f6a38>
    164c:	00000323 	andeq	r0, r0, r3, lsr #6
    1650:	002ca403 	eoreq	sl, ip, r3, lsl #8
    1654:	000c0000 	andeq	r0, ip, r0
    1658:	0001ee0d 	andeq	lr, r1, sp, lsl #28
    165c:	88570300 	ldmdahi	r7, {r8, r9}^
    1660:	03000000 	movweq	r0, #0
    1664:	000001fb 	strdeq	r0, [r0], -fp
    1668:	0300680e 	movweq	r6, #2062	; 0x80e
    166c:	0001fb57 	andeq	pc, r1, r7, asr fp	; <UNPREDICTABLE>
    1670:	04060000 	streq	r0, [r6], #-0
    1674:	00000174 	andeq	r0, r0, r4, ror r1
    1678:	0002b50d 	andeq	fp, r2, sp, lsl #10
    167c:	88590300 	ldmdahi	r9, {r8, r9}^
    1680:	03000000 	movweq	r0, #0
    1684:	0000021b 	andeq	r0, r0, fp, lsl r2
    1688:	0300680e 	movweq	r6, #2062	; 0x80e
    168c:	0001fb59 	andeq	pc, r1, r9, asr fp	; <UNPREDICTABLE>
    1690:	230f0000 	movwcs	r0, #61440	; 0xf000
    1694:	01000004 	tsteq	r0, r4
    1698:	0000251c 	andeq	r2, r0, ip, lsl r5
    169c:	00897c00 	addeq	r7, r9, r0, lsl #24
    16a0:	00003c00 	andeq	r3, r0, r0, lsl #24
    16a4:	429c0100 	addsmi	r0, ip, #0, 2
    16a8:	10000002 	andne	r0, r0, r2
    16ac:	1c010070 	stcne	0, cr0, [r1], {112}	; 0x70
    16b0:	00000088 	andeq	r0, r0, r8, lsl #1
    16b4:	0000068d 	andeq	r0, r0, sp, lsl #13
    16b8:	04800f00 	streq	r0, [r0], #3840	; 0xf00
    16bc:	33010000 	movwcc	r0, #4096	; 0x1000
    16c0:	000001fb 	strdeq	r0, [r0], -fp
    16c4:	000089b8 			; <UNDEFINED> instruction: 0x000089b8
    16c8:	00000078 	andeq	r0, r0, r8, ror r0
    16cc:	02ad9c01 	adceq	r9, sp, #256	; 0x100
    16d0:	df110000 	svcle	0x00110000
    16d4:	01000001 	tsteq	r0, r1
    16d8:	00006833 	andeq	r6, r0, r3, lsr r8
    16dc:	0006e000 	andeq	lr, r6, r0
    16e0:	00701200 	rsbseq	r1, r0, r0, lsl #4
    16e4:	00883401 	addeq	r3, r8, r1, lsl #8
    16e8:	06fe0000 	ldrbteq	r0, [lr], r0
    16ec:	42130000 	andsmi	r0, r3, #0
    16f0:	01000002 	tsteq	r0, r2
    16f4:	0001fb39 	andeq	pc, r1, r9, lsr fp	; <UNPREDICTABLE>
    16f8:	00071c00 	andeq	r1, r7, r0, lsl #24
    16fc:	89c41400 	stmibhi	r4, {sl, ip}^
    1700:	021b0000 	andseq	r0, fp, #0
    1704:	029a0000 	addseq	r0, sl, #0
    1708:	01150000 	tsteq	r5, r0
    170c:	00740250 	rsbseq	r0, r4, r0, asr r2
    1710:	89d01600 	ldmibhi	r0, {r9, sl, ip}^
    1714:	0ce40000 	stcleq	0, cr0, [r4]
    1718:	1c160000 	ldcne	0, cr0, [r6], {-0}
    171c:	ef00008a 	svc	0x0000008a
    1720:	0000000c 	andeq	r0, r0, ip
    1724:	0004180f 	andeq	r1, r4, pc, lsl #16
    1728:	2c7e0100 	ldfcse	f0, [lr], #-0
    172c:	30000000 	andcc	r0, r0, r0
    1730:	3400008a 	strcc	r0, [r0], #-138	; 0x8a
    1734:	01000001 	tsteq	r0, r1
    1738:	0004649c 	muleq	r4, ip, r4
    173c:	03a81100 			; <UNDEFINED> instruction: 0x03a81100
    1740:	7e010000 	cdpvc	0, 0, cr0, cr1, cr0, {0}
    1744:	00000025 	andeq	r0, r0, r5, lsr #32
    1748:	0000073a 	andeq	r0, r0, sl, lsr r7
    174c:	00048713 	andeq	r8, r4, r3, lsl r7
    1750:	2c7f0100 	ldfcse	f0, [pc], #-0	; 1758 <__code_start__-0x68a8>
    1754:	58000000 	stmdapl	r0, {}	; <UNPREDICTABLE>
    1758:	13000007 	movwne	r0, #7
    175c:	000003f1 	strdeq	r0, [r0], -r1
    1760:	002c7f01 	eoreq	r7, ip, r1, lsl #30
    1764:	07770000 	ldrbeq	r0, [r7, -r0]!
    1768:	eb130000 	bl	4c1770 <__bss_end__+0x4b6b58>
    176c:	01000003 	tsteq	r0, r3
    1770:	00002c7f 	andeq	r2, r0, pc, ror ip
    1774:	00079600 	andeq	r9, r7, r0, lsl #12
    1778:	02421300 	subeq	r1, r2, #0, 6
    177c:	83010000 	movwhi	r0, #4096	; 0x1000
    1780:	000001fb 	strdeq	r0, [r0], -fp
    1784:	000007b5 			; <UNDEFINED> instruction: 0x000007b5
    1788:	008a4014 	addeq	r4, sl, r4, lsl r0
    178c:	000d0400 	andeq	r0, sp, r0, lsl #8
    1790:	00032800 	andeq	r2, r3, r0, lsl #16
    1794:	50011500 	andpl	r1, r1, r0, lsl #10
    1798:	a2580305 	subsge	r0, r8, #335544320	; 0x14000000
    179c:	14000000 	strne	r0, [r0], #-0
    17a0:	00008a48 	andeq	r8, r0, r8, asr #20
    17a4:	00000d04 	andeq	r0, r0, r4, lsl #26
    17a8:	0000033f 	andeq	r0, r0, pc, lsr r3
    17ac:	05500115 	ldrbeq	r0, [r0, #-277]	; 0x115
    17b0:	00a29403 	adceq	r9, r2, r3, lsl #8
    17b4:	4c160000 	ldcmi	0, cr0, [r6], {-0}
    17b8:	e400008a 	str	r0, [r0], #-138	; 0x8a
    17bc:	1400000c 	strne	r0, [r0], #-12
    17c0:	00008a8c 	andeq	r8, r0, ip, lsl #21
    17c4:	00000d04 	andeq	r0, r0, r4, lsl #26
    17c8:	0000035c 	andeq	r0, r0, ip, asr r3
    17cc:	02500115 	subseq	r0, r0, #1073741829	; 0x40000005
    17d0:	1400007a 	strne	r0, [r0], #-122	; 0x7a
    17d4:	00008a98 	muleq	r0, r8, sl
    17d8:	00000d04 	andeq	r0, r0, r4, lsl #26
    17dc:	00000377 	andeq	r0, r0, r7, ror r3
    17e0:	03510115 	cmpeq	r1, #1073741829	; 0x40000005
    17e4:	1501b874 	strne	fp, [r1, #-2164]	; 0x874
    17e8:	7b025001 	blvc	957f4 <__bss_end__+0x8abdc>
    17ec:	c0140000 	andsgt	r0, r4, r0
    17f0:	0400008a 	streq	r0, [r0], #-138	; 0x8a
    17f4:	8b00000d 	blhi	1830 <__code_start__-0x67d0>
    17f8:	15000003 	strne	r0, [r0, #-3]
    17fc:	7a025001 	bvc	95808 <__bss_end__+0x8abf0>
    1800:	cc140000 	ldcgt	0, cr0, [r4], {-0}
    1804:	0400008a 	streq	r0, [r0], #-138	; 0x8a
    1808:	a900000d 	stmdbge	r0, {r0, r2, r3}
    180c:	15000003 	strne	r0, [r0, #-3]
    1810:	74035101 	strvc	r5, [r3], #-257	; 0x101
    1814:	011501b8 			; <UNDEFINED> instruction: 0x011501b8
    1818:	cc030550 	cfstr32gt	mvfx0, [r3], {80}	; 0x50
    181c:	000000a2 	andeq	r0, r0, r2, lsr #1
    1820:	008adc14 	addeq	sp, sl, r4, lsl ip
    1824:	000cef00 	andeq	lr, ip, r0, lsl #30
    1828:	0003bd00 	andeq	fp, r3, r0, lsl #26
    182c:	50011500 	andpl	r1, r1, r0, lsl #10
    1830:	00007402 	andeq	r7, r0, r2, lsl #8
    1834:	008af014 	addeq	pc, sl, r4, lsl r0	; <UNPREDICTABLE>
    1838:	000d0400 	andeq	r0, sp, r0, lsl #8
    183c:	0003d100 	andeq	sp, r3, r0, lsl #2
    1840:	50011500 	andpl	r1, r1, r0, lsl #10
    1844:	00007a02 	andeq	r7, r0, r2, lsl #20
    1848:	008afc14 	addeq	pc, sl, r4, lsl ip	; <UNPREDICTABLE>
    184c:	000d0400 	andeq	r0, sp, r0, lsl #8
    1850:	0003ee00 	andeq	lr, r3, r0, lsl #28
    1854:	51011500 	tstpl	r1, r0, lsl #10
    1858:	15007502 	strne	r7, [r0, #-1282]	; 0x502
    185c:	03055001 	movweq	r5, #20481	; 0x5001
    1860:	0000a304 	andeq	sl, r0, r4, lsl #6
    1864:	8b0c1400 	blhi	30686c <__bss_end__+0x2fbc54>
    1868:	0d040000 	stceq	0, cr0, [r4, #-0]
    186c:	04020000 	streq	r0, [r2], #-0
    1870:	01150000 	tsteq	r5, r0
    1874:	007a0250 	rsbseq	r0, sl, r0, asr r2
    1878:	8b141400 	blhi	506880 <__bss_end__+0x4fbc68>
    187c:	0d040000 	stceq	0, cr0, [r4, #-0]
    1880:	04190000 	ldreq	r0, [r9], #-0
    1884:	01150000 	tsteq	r5, r0
    1888:	1c030550 	cfstr32ne	mvfx0, [r3], {80}	; 0x50
    188c:	000000a3 	andeq	r0, r0, r3, lsr #1
    1890:	008b2014 	addeq	r2, fp, r4, lsl r0
    1894:	000d0400 	andeq	r0, sp, r0, lsl #8
    1898:	00042d00 	andeq	r2, r4, r0, lsl #26
    189c:	50011500 	andpl	r1, r1, r0, lsl #10
    18a0:	00007a02 	andeq	r7, r0, r2, lsl #20
    18a4:	008b3014 	addeq	r3, fp, r4, lsl r0
    18a8:	000d0400 	andeq	r0, sp, r0, lsl #8
    18ac:	00045000 	andeq	r5, r4, r0
    18b0:	52011500 	andpl	r1, r1, #0, 10
    18b4:	15007602 	strne	r7, [r0, #-1538]	; 0x602
    18b8:	77025101 	strvc	r5, [r2, -r1, lsl #2]
    18bc:	50011500 	andpl	r1, r1, r0, lsl #10
    18c0:	a33c0305 	teqge	ip, #335544320	; 0x14000000
    18c4:	17000000 	strne	r0, [r0, -r0]
    18c8:	00008b38 	andeq	r8, r0, r8, lsr fp
    18cc:	00000d04 	andeq	r0, r0, r4, lsl #26
    18d0:	05500115 	ldrbeq	r0, [r0, #-277]	; 0x115
    18d4:	00a36803 	adceq	r6, r3, r3, lsl #16
    18d8:	18000000 	stmdane	r0, {}	; <UNPREDICTABLE>
    18dc:	000001d8 	ldrdeq	r0, [r0], -r8
    18e0:	8b645a01 	blhi	19180ec <__bss_end__+0x190d4d4>
    18e4:	00f80000 	rscseq	r0, r8, r0
    18e8:	9c010000 	stcls	0, cr0, [r1], {-0}
    18ec:	000005a1 	andeq	r0, r0, r1, lsr #11
    18f0:	01007010 	tsteq	r0, r0, lsl r0
    18f4:	0005a15a 	andeq	sl, r5, sl, asr r1
    18f8:	0007ff00 	andeq	pc, r7, r0, lsl #30
    18fc:	00651000 	rsbeq	r1, r5, r0
    1900:	05a15a01 	streq	r5, [r1, #2561]!	; 0xa01
    1904:	08700000 	ldmdaeq	r0!, {}^	; <UNPREDICTABLE>
    1908:	27190000 	ldrcs	r0, [r9, -r0]
    190c:	b7000001 	strlt	r0, [r0, -r1]
    1910:	05000005 	streq	r0, [r0, #-5]
    1914:	00a20403 	adceq	r0, r2, r3, lsl #8
    1918:	6e651a00 	vmulvs.f32	s3, s10, s0
    191c:	60010064 	andvs	r0, r1, r4, rrx
    1920:	00000068 	andeq	r0, r0, r8, rrx
    1924:	00042b13 	andeq	r2, r4, r3, lsl fp
    1928:	a1610100 	cmnge	r1, r0, lsl #2
    192c:	d0000005 	andle	r0, r0, r5
    1930:	13000008 	movwne	r0, #8
    1934:	00000242 	andeq	r0, r0, r2, asr #4
    1938:	01fb6201 	mvnseq	r6, r1, lsl #4
    193c:	08ee0000 	stmiaeq	lr!, {}^	; <UNPREDICTABLE>
    1940:	7c160000 	ldcvc	0, cr0, [r6], {-0}
    1944:	1a00008b 	bne	1b78 <__code_start__-0x6488>
    1948:	1400000d 	strne	r0, [r0], #-13
    194c:	00008b90 	muleq	r0, r0, fp
    1950:	00000d04 	andeq	r0, r0, r4, lsl #26
    1954:	00000503 	andeq	r0, r0, r3, lsl #10
    1958:	02530115 	subseq	r0, r3, #1073741829	; 0x40000005
    195c:	01155b08 	tsteq	r5, r8, lsl #22
    1960:	04030552 	streq	r0, [r3], #-1362	; 0x552
    1964:	150000a2 	strne	r0, [r0, #-162]	; 0xa2
    1968:	03055101 	movweq	r5, #20737	; 0x5101
    196c:	0000a3b8 			; <UNDEFINED> instruction: 0x0000a3b8
    1970:	05500115 	ldrbeq	r0, [r0, #-277]	; 0x115
    1974:	00a3a403 	adceq	sl, r3, r3, lsl #8
    1978:	94160000 	ldrls	r0, [r6], #-0
    197c:	2100008b 	smlabbcs	r0, fp, r0, r0
    1980:	1600000d 	strne	r0, [r0], -sp
    1984:	00008ba0 	andeq	r8, r0, r0, lsr #23
    1988:	00000d1a 	andeq	r0, r0, sl, lsl sp
    198c:	008bb414 	addeq	fp, fp, r4, lsl r4
    1990:	000d0400 	andeq	r0, sp, r0, lsl #8
    1994:	00054400 	andeq	r4, r5, r0, lsl #8
    1998:	53011500 	movwpl	r1, #5376	; 0x1500
    199c:	155d0802 	ldrbne	r0, [sp, #-2050]	; 0x802
    19a0:	03055201 	movweq	r5, #20993	; 0x5201
    19a4:	0000a204 	andeq	sl, r0, r4, lsl #4
    19a8:	05510115 	ldrbeq	r0, [r1, #-277]	; 0x115
    19ac:	00a3b803 	adceq	fp, r3, r3, lsl #16
    19b0:	50011500 	andpl	r1, r1, r0, lsl #10
    19b4:	a3c00305 	bicge	r0, r0, #335544320	; 0x14000000
    19b8:	16000000 	strne	r0, [r0], -r0
    19bc:	00008bb8 			; <UNDEFINED> instruction: 0x00008bb8
    19c0:	00000d21 	andeq	r0, r0, r1, lsr #26
    19c4:	008bc416 	addeq	ip, fp, r6, lsl r4
    19c8:	000d1a00 	andeq	r1, sp, r0, lsl #20
    19cc:	8bd81400 	blhi	ff6069d4 <__bss_end__+0xff5fbdbc>
    19d0:	0d040000 	stceq	0, cr0, [r4, #-0]
    19d4:	05850000 	streq	r0, [r5]
    19d8:	01150000 	tsteq	r5, r0
    19dc:	5e080253 	mcrpl	2, 0, r0, cr8, cr3, {2}
    19e0:	05520115 	ldrbeq	r0, [r2, #-277]	; 0x115
    19e4:	00a20403 	adceq	r0, r2, r3, lsl #8
    19e8:	51011500 	tstpl	r1, r0, lsl #10
    19ec:	a3b80305 			; <UNDEFINED> instruction: 0xa3b80305
    19f0:	01150000 	tsteq	r5, r0
    19f4:	e0030550 	and	r0, r3, r0, asr r5
    19f8:	000000a3 	andeq	r0, r0, r3, lsr #1
    19fc:	008bdc16 	addeq	sp, fp, r6, lsl ip
    1a00:	000d2100 	andeq	r2, sp, r0, lsl #2
    1a04:	8be41600 	blhi	ff90720c <__bss_end__+0xff8fc5f4>
    1a08:	02420000 	subeq	r0, r2, #0
    1a0c:	30160000 	andscc	r0, r6, r0
    1a10:	6400008c 	strvs	r0, [r0], #-140	; 0x8c
    1a14:	00000004 	andeq	r0, r0, r4
    1a18:	00680406 	rsbeq	r0, r8, r6, lsl #8
    1a1c:	8a1b0000 	bhi	6c1a24 <__bss_end__+0x6b6e0c>
    1a20:	b7000000 	strlt	r0, [r0, -r0]
    1a24:	1c000005 	stcne	0, cr0, [r0], {5}
    1a28:	00000081 	andeq	r0, r0, r1, lsl #1
    1a2c:	a7070004 	strge	r0, [r7, -r4]
    1a30:	18000005 	stmdane	r0, {r0, r2}
    1a34:	00000477 	andeq	r0, r0, r7, ror r4
    1a38:	8c5cca01 	mrrchi	10, 0, ip, ip, cr1	; <UNPREDICTABLE>
    1a3c:	00f40000 	rscseq	r0, r4, r0
    1a40:	9c010000 	stcls	0, cr0, [r1], {-0}
    1a44:	00000726 	andeq	r0, r0, r6, lsr #14
    1a48:	0100691d 	tsteq	r0, sp, lsl r9
    1a4c:	0001a4d3 	ldrdeq	sl, [r1], -r3
    1a50:	68910200 	ldmvs	r1, {r9}
    1a54:	0004561e 	andeq	r5, r4, lr, lsl r6
    1a58:	26dc0100 	ldrbcs	r0, [ip], r0, lsl #2
    1a5c:	03000007 	movweq	r0, #7
    1a60:	197fa891 	ldmdbne	pc!, {r0, r4, r7, fp, sp, pc}^	; <UNPREDICTABLE>
    1a64:	00000127 	andeq	r0, r0, r7, lsr #2
    1a68:	00000746 	andeq	r0, r0, r6, asr #14
    1a6c:	a20c0305 	andge	r0, ip, #335544320	; 0x14000000
    1a70:	9e1f0000 	cdpls	0, 1, cr0, cr15, cr0, {0}
    1a74:	01000003 	tsteq	r0, r3
    1a78:	0005a1ec 	andeq	sl, r5, ip, ror #3
    1a7c:	00000000 	andeq	r0, r0, r0
    1a80:	03fe2008 	mvnseq	r2, #8
    1a84:	f0010000 			; <UNDEFINED> instruction: 0xf0010000
    1a88:	00000068 	andeq	r0, r0, r8, rrx
    1a8c:	00040c20 	andeq	r0, r4, r0, lsr #24
    1a90:	68f00100 	ldmvs	r0!, {r8}^
    1a94:	20000000 	andcs	r0, r0, r0
    1a98:	00000442 	andeq	r0, r0, r2, asr #8
    1a9c:	0068f301 	rsbeq	pc, r8, r1, lsl #6
    1aa0:	6a200000 	bvs	801aa8 <__bss_end__+0x7f6e90>
    1aa4:	01000004 	tsteq	r0, r4
    1aa8:	000068f3 	strdeq	r6, [r0], -r3
    1aac:	8c642100 	stfhie	f2, [r4], #-0
    1ab0:	00240000 	eoreq	r0, r4, r0
    1ab4:	06630000 	strbteq	r0, [r3], -r0
    1ab8:	68120000 	ldmdavs	r2, {}	; <UNPREDICTABLE>
    1abc:	fbcd0100 	blx	ff341ec6 <__bss_end__+0xff3372ae>
    1ac0:	0c000001 	stceq	0, cr0, [r0], {1}
    1ac4:	16000009 	strne	r0, [r0], -r9
    1ac8:	00008c68 	andeq	r8, r0, r8, ror #24
    1acc:	00000ce4 	andeq	r0, r0, r4, ror #25
    1ad0:	008c8016 	addeq	r8, ip, r6, lsl r0
    1ad4:	000cef00 	andeq	lr, ip, r0, lsl #30
    1ad8:	18220000 	stmdane	r2!, {}	; <UNPREDICTABLE>
    1adc:	7a000000 	bvc	1ae4 <__code_start__-0x651c>
    1ae0:	12000006 	andne	r0, r0, #6
    1ae4:	e1010069 	tst	r1, r9, rrx
    1ae8:	00000025 	andeq	r0, r0, r5, lsr #32
    1aec:	0000092a 	andeq	r0, r0, sl, lsr #18
    1af0:	8c941400 	cfldrshi	mvf1, [r4], {0}
    1af4:	0d280000 	stceq	0, cr0, [r8, #-0]
    1af8:	068e0000 	streq	r0, [lr], r0
    1afc:	01150000 	tsteq	r5, r0
    1b00:	00740250 	rsbseq	r0, r4, r0, asr r2
    1b04:	8cac1400 	cfstrshi	mvf1, [ip]
    1b08:	0d330000 	ldceq	0, cr0, [r3, #-0]
    1b0c:	06a20000 	strteq	r0, [r2], r0
    1b10:	01150000 	tsteq	r5, r0
    1b14:	00740250 	rsbseq	r0, r4, r0, asr r2
    1b18:	8cbc1600 	ldchi	6, cr1, [ip]
    1b1c:	0d1a0000 	ldceq	0, cr0, [sl, #-0]
    1b20:	d0140000 	andsle	r0, r4, r0
    1b24:	0400008c 	streq	r0, [r0], #-140	; 0x8c
    1b28:	da00000d 	ble	1b64 <__code_start__-0x649c>
    1b2c:	15000006 	strne	r0, [r0, #-6]
    1b30:	08025301 	stmdaeq	r2, {r0, r8, r9, ip, lr}
    1b34:	520115df 	andpl	r1, r1, #935329792	; 0x37c00000
    1b38:	a20c0305 	andge	r0, ip, #335544320	; 0x14000000
    1b3c:	01150000 	tsteq	r5, r0
    1b40:	b8030551 	stmdalt	r3, {r0, r4, r6, r8, sl}
    1b44:	150000a3 	strne	r0, [r0, #-163]	; 0xa3
    1b48:	03055001 	movweq	r5, #20481	; 0x5001
    1b4c:	0000a400 	andeq	sl, r0, r0, lsl #8
    1b50:	8cd41600 	ldclhi	6, cr1, [r4], {0}
    1b54:	0d210000 	stceq	0, cr0, [r1, #-0]
    1b58:	04140000 	ldreq	r0, [r4], #-0
    1b5c:	6400008d 	strvs	r0, [r0], #-141	; 0x8d
    1b60:	fe000004 	cdp2	0, 0, cr0, cr0, cr4, {0}
    1b64:	15000006 	strne	r0, [r0, #-6]
    1b68:	91025101 	tstls	r2, r1, lsl #2
    1b6c:	50011558 	andpl	r1, r1, r8, asr r5
    1b70:	7fb09103 	svcvc	0x00b09103
    1b74:	8d101400 	cfldrshi	mvf1, [r0, #-0]
    1b78:	04640000 	strbteq	r0, [r4], #-0
    1b7c:	07130000 	ldreq	r0, [r3, -r0]
    1b80:	01150000 	tsteq	r5, r0
    1b84:	47400351 	smlsldmi	r0, r0, r1, r3	; <UNPREDICTABLE>
    1b88:	1c160024 	ldcne	0, cr0, [r6], {36}	; 0x24
    1b8c:	6400008d 	strvs	r0, [r0], #-141	; 0x8d
    1b90:	16000004 	strne	r0, [r0], -r4
    1b94:	00008d28 	andeq	r8, r0, r8, lsr #26
    1b98:	00000464 	andeq	r0, r0, r4, ror #8
    1b9c:	00681b00 	rsbeq	r1, r8, r0, lsl #22
    1ba0:	07360000 	ldreq	r0, [r6, -r0]!
    1ba4:	811c0000 	tsthi	ip, r0
    1ba8:	0f000000 	svceq	0x00000000
    1bac:	008a1b00 	addeq	r1, sl, r0, lsl #22
    1bb0:	07460000 	strbeq	r0, [r6, -r0]
    1bb4:	811c0000 	tsthi	ip, r0
    1bb8:	08000000 	stmdaeq	r0, {}	; <UNPREDICTABLE>
    1bbc:	07360700 	ldreq	r0, [r6, -r0, lsl #14]!
    1bc0:	e0230000 	eor	r0, r3, r0
    1bc4:	01000003 	tsteq	r0, r3
    1bc8:	002c012d 	eoreq	r0, ip, sp, lsr #2
    1bcc:	8d500000 	ldclhi	0, cr0, [r0, #-0]
    1bd0:	01200000 	teqeq	r0, r0
    1bd4:	9c010000 	stcls	0, cr0, [r1], {-0}
    1bd8:	00000918 	andeq	r0, r0, r8, lsl r9
    1bdc:	00048724 	andeq	r8, r4, r4, lsr #14
    1be0:	012e0100 	teqeq	lr, r0, lsl #2
    1be4:	0000002c 	andeq	r0, r0, ip, lsr #32
    1be8:	00000948 	andeq	r0, r0, r8, asr #18
    1bec:	00045b24 	andeq	r5, r4, r4, lsr #22
    1bf0:	012e0100 	teqeq	lr, r0, lsl #2
    1bf4:	0000002c 	andeq	r0, r0, ip, lsr #32
    1bf8:	00000967 	andeq	r0, r0, r7, ror #18
    1bfc:	0001b524 	andeq	fp, r1, r4, lsr #10
    1c00:	012e0100 	teqeq	lr, r0, lsl #2
    1c04:	0000002c 	andeq	r0, r0, ip, lsr #32
    1c08:	00000986 	andeq	r0, r0, r6, lsl #19
    1c0c:	00024224 	andeq	r4, r2, r4, lsr #4
    1c10:	01320100 	teqeq	r2, r0, lsl #2
    1c14:	000001fb 	strdeq	r0, [r0], -fp
    1c18:	000009b0 			; <UNDEFINED> instruction: 0x000009b0
    1c1c:	00012719 	andeq	r2, r1, r9, lsl r7
    1c20:	00092800 	andeq	r2, r9, r0, lsl #16
    1c24:	18030500 	stmdane	r3, {r8, sl}
    1c28:	250000a2 	strcs	r0, [r0, #-162]	; 0xa2
    1c2c:	000002c6 	andeq	r0, r0, r6, asr #5
    1c30:	a4014801 	strge	r4, [r1], #-2049	; 0x801
    1c34:	02000001 	andeq	r0, r0, #1
    1c38:	30224891 	mlacc	r2, r1, r8, r4
    1c3c:	2f000000 	svccs	0x00000000
    1c40:	26000008 	strcs	r0, [r0], -r8
    1c44:	00727470 	rsbseq	r7, r2, r0, ror r4
    1c48:	88013801 	stmdahi	r1, {r0, fp, ip, sp}
    1c4c:	01000000 	mrseq	r0, (UNDEF: 0)
    1c50:	8dbc1457 	cfldrshi	mvf1, [ip, #348]!	; 0x15c
    1c54:	0d040000 	stceq	0, cr0, [r4, #-0]
    1c58:	07ee0000 	strbeq	r0, [lr, r0]!
    1c5c:	01150000 	tsteq	r5, r0
    1c60:	007b0250 	rsbseq	r0, fp, r0, asr r2
    1c64:	8dc81400 	cfstrdhi	mvd1, [r8]
    1c68:	0d040000 	stceq	0, cr0, [r4, #-0]
    1c6c:	08080000 	stmdaeq	r8, {}	; <UNPREDICTABLE>
    1c70:	01150000 	tsteq	r5, r0
    1c74:	00770251 	rsbseq	r0, r7, r1, asr r2
    1c78:	02500115 	subseq	r0, r0, #1073741829	; 0x40000005
    1c7c:	1700007a 	smlsdxne	r0, sl, r0, r0
    1c80:	00008ddc 	ldrdeq	r8, [r0], -ip
    1c84:	00000d45 	andeq	r0, r0, r5, asr #26
    1c88:	03530115 	cmpeq	r3, #1073741829	; 0x40000005
    1c8c:	15013a0a 	strne	r3, [r1, #-2570]	; 0xa0a
    1c90:	03055201 	movweq	r5, #20993	; 0x5201
    1c94:	0000a218 	andeq	sl, r0, r8, lsl r2
    1c98:	02510115 	subseq	r0, r1, #1073741829	; 0x40000005
    1c9c:	01150079 	tsteq	r5, r9, ror r0
    1ca0:	00770250 	rsbseq	r0, r7, r0, asr r2
    1ca4:	60140000 	andsvs	r0, r4, r0
    1ca8:	0400008d 	streq	r0, [r0], #-141	; 0x8d
    1cac:	4600000d 	strmi	r0, [r0], -sp
    1cb0:	15000008 	strne	r0, [r0, #-8]
    1cb4:	03055001 	movweq	r5, #20481	; 0x5001
    1cb8:	0000a258 	andeq	sl, r0, r8, asr r2
    1cbc:	8d681400 	cfstrdhi	mvd1, [r8, #-0]
    1cc0:	0d040000 	stceq	0, cr0, [r4, #-0]
    1cc4:	085d0000 	ldmdaeq	sp, {}^	; <UNPREDICTABLE>
    1cc8:	01150000 	tsteq	r5, r0
    1ccc:	30030550 	andcc	r0, r3, r0, asr r5
    1cd0:	000000a4 	andeq	r0, r0, r4, lsr #1
    1cd4:	008d6c16 	addeq	r6, sp, r6, lsl ip
    1cd8:	000ce400 	andeq	lr, ip, r0, lsl #8
    1cdc:	8de81400 	cfstrdhi	mvd1, [r8]
    1ce0:	0cef0000 	stcleq	0, cr0, [pc]	; 1ce8 <__code_start__-0x6318>
    1ce4:	087a0000 	ldmdaeq	sl!, {}^	; <UNPREDICTABLE>
    1ce8:	01150000 	tsteq	r5, r0
    1cec:	00740250 	rsbseq	r0, r4, r0, asr r2
    1cf0:	8e001400 	cfcpyshi	mvf1, mvf0
    1cf4:	0d040000 	stceq	0, cr0, [r4, #-0]
    1cf8:	088e0000 	stmeq	lr, {}	; <UNPREDICTABLE>
    1cfc:	01150000 	tsteq	r5, r0
    1d00:	00740250 	rsbseq	r0, r4, r0, asr r2
    1d04:	8e141400 	cfmulshi	mvf1, mvf4, mvf0
    1d08:	0d040000 	stceq	0, cr0, [r4, #-0]
    1d0c:	08b70000 	ldmeq	r7!, {}	; <UNPREDICTABLE>
    1d10:	01150000 	tsteq	r5, r0
    1d14:	00760253 	rsbseq	r0, r6, r3, asr r2
    1d18:	02520115 	subseq	r0, r2, #1073741829	; 0x40000005
    1d1c:	01150078 	tsteq	r5, r8, ror r0
    1d20:	00750251 	rsbseq	r0, r5, r1, asr r2
    1d24:	05500115 	ldrbeq	r0, [r0, #-277]	; 0x115
    1d28:	00a45403 	adceq	r5, r4, r3, lsl #8
    1d2c:	1c140000 	ldcne	0, cr0, [r4], {-0}
    1d30:	2800008e 	stmdacs	r0, {r1, r2, r3, r7}
    1d34:	cb00000d 	blgt	1d70 <__code_start__-0x6290>
    1d38:	15000008 	strne	r0, [r0, #-8]
    1d3c:	7d025001 	stcvc	0, cr5, [r2, #-4]
    1d40:	24140000 	ldrcs	r0, [r4], #-0
    1d44:	0400008e 	streq	r0, [r0], #-142	; 0x8e
    1d48:	df00000d 	svcle	0x0000000d
    1d4c:	15000008 	strne	r0, [r0, #-8]
    1d50:	74025001 	strvc	r5, [r2], #-1
    1d54:	34140000 	ldrcc	r0, [r4], #-0
    1d58:	0400008e 	streq	r0, [r0], #-142	; 0x8e
    1d5c:	0400000d 	streq	r0, [r0], #-13
    1d60:	15000009 	strne	r0, [r0, #-9]
    1d64:	91035201 	tstls	r3, r1, lsl #4
    1d68:	01150648 	tsteq	r5, r8, asr #12
    1d6c:	4c910351 	ldcmi	3, cr0, [r1], {81}	; 0x51
    1d70:	50011506 	andpl	r1, r1, r6, lsl #10
    1d74:	a4800305 	strge	r0, [r0], #773	; 0x305
    1d78:	17000000 	strne	r0, [r0, -r0]
    1d7c:	00008e3c 	andeq	r8, r0, ip, lsr lr
    1d80:	00000d04 	andeq	r0, r0, r4, lsl #26
    1d84:	05500115 	ldrbeq	r0, [r0, #-277]	; 0x115
    1d88:	00a36803 	adceq	r6, r3, r3, lsl #16
    1d8c:	1b000000 	blne	1d94 <__code_start__-0x626c>
    1d90:	0000008a 	andeq	r0, r0, sl, lsl #1
    1d94:	00000928 	andeq	r0, r0, r8, lsr #18
    1d98:	0000811c 	andeq	r8, r0, ip, lsl r1
    1d9c:	07000a00 	streq	r0, [r0, -r0, lsl #20]
    1da0:	00000918 	andeq	r0, r0, r8, lsl r9
    1da4:	0000b627 	andeq	fp, r0, r7, lsr #12
    1da8:	2cfd0100 	ldfcse	f0, [sp]
    1dac:	70000000 	andvc	r0, r0, r0
    1db0:	1800008e 	stmdane	r0, {r1, r2, r3, r7}
    1db4:	01000000 	mrseq	r0, (UNDEF: 0)
    1db8:	00096f9c 	muleq	r9, ip, pc	; <UNPREDICTABLE>
    1dbc:	03a81100 			; <UNDEFINED> instruction: 0x03a81100
    1dc0:	fd010000 	stc2	0, cr0, [r1, #-0]
    1dc4:	00000025 	andeq	r0, r0, r5, lsr #32
    1dc8:	000009d9 	ldrdeq	r0, [r0], -r9
    1dcc:	008e7c16 	addeq	r7, lr, r6, lsl ip
    1dd0:	0005bc00 	andeq	fp, r5, r0, lsl #24
    1dd4:	8e841700 	cdphi	7, 8, cr1, cr4, cr0, {0}
    1dd8:	02ad0000 	adceq	r0, sp, #0
    1ddc:	01150000 	tsteq	r5, r0
    1de0:	00740250 	rsbseq	r0, r4, r0, asr r2
    1de4:	cb280000 	blgt	a01dec <__bss_end__+0x9f71d4>
    1de8:	01000003 	tsteq	r0, r3
    1dec:	8e880103 	rmfhie	f0, f0, f3
    1df0:	00a00000 	adceq	r0, r0, r0
    1df4:	9c010000 	stcls	0, cr0, [r1], {-0}
    1df8:	00000a8d 	andeq	r0, r0, sp, lsl #21
    1dfc:	00012719 	andeq	r2, r1, r9, lsl r7
    1e00:	000a9d00 	andeq	r9, sl, r0, lsl #26
    1e04:	24030500 	strcs	r0, [r3], #-1280	; 0x500
    1e08:	160000a2 	strne	r0, [r0], -r2, lsr #1
    1e0c:	00008e90 	muleq	r0, r0, lr
    1e10:	00000d65 	andeq	r0, r0, r5, ror #26
    1e14:	008e9c16 	addeq	r9, lr, r6, lsl ip
    1e18:	000d1a00 	andeq	r1, sp, r0, lsl #20
    1e1c:	8eb01400 	cdphi	4, 11, cr1, cr0, cr0, {0}
    1e20:	0d040000 	stceq	0, cr0, [r4, #-0]
    1e24:	09d60000 	ldmibeq	r6, {}^	; <UNPREDICTABLE>
    1e28:	01150000 	tsteq	r5, r0
    1e2c:	090a0353 	stmdbeq	sl, {r0, r1, r4, r6, r8, r9}
    1e30:	52011501 	andpl	r1, r1, #4194304	; 0x400000
    1e34:	a2240305 	eorge	r0, r4, #335544320	; 0x14000000
    1e38:	01150000 	tsteq	r5, r0
    1e3c:	b8030551 	stmdalt	r3, {r0, r4, r6, r8, sl}
    1e40:	150000a3 	strne	r0, [r0, #-163]	; 0xa3
    1e44:	03055001 	movweq	r5, #20481	; 0x5001
    1e48:	0000a4b4 			; <UNDEFINED> instruction: 0x0000a4b4
    1e4c:	8eb41600 	cdphi	6, 11, cr1, cr4, cr0, {0}
    1e50:	0d210000 	stceq	0, cr0, [r1, #-0]
    1e54:	bc140000 	ldclt	0, cr0, [r4], {-0}
    1e58:	0400008e 	streq	r0, [r0], #-142	; 0x8e
    1e5c:	f600000d 			; <UNDEFINED> instruction: 0xf600000d
    1e60:	15000009 	strne	r0, [r0, #-9]
    1e64:	03055001 	movweq	r5, #20481	; 0x5001
    1e68:	00009d14 	andeq	r9, r0, r4, lsl sp
    1e6c:	8ec41400 	cdphi	4, 12, cr1, cr4, cr0, {0}
    1e70:	0d040000 	stceq	0, cr0, [r4, #-0]
    1e74:	0a0d0000 	beq	341e7c <__bss_end__+0x337264>
    1e78:	01150000 	tsteq	r5, r0
    1e7c:	dc030550 	cfstr32le	mvfx0, [r3], {80}	; 0x50
    1e80:	000000a4 	andeq	r0, r0, r4, lsr #1
    1e84:	008ecc14 	addeq	ip, lr, r4, lsl ip
    1e88:	00092d00 	andeq	r2, r9, r0, lsl #26
    1e8c:	000a2000 	andeq	r2, sl, r0
    1e90:	50011500 	andpl	r1, r1, r0, lsl #10
    1e94:	16003101 	strne	r3, [r0], -r1, lsl #2
    1e98:	00008ed8 	ldrdeq	r8, [r0], -r8	; <UNPREDICTABLE>
    1e9c:	00000d1a 	andeq	r0, r0, sl, lsl sp
    1ea0:	008eec14 	addeq	lr, lr, r4, lsl ip
    1ea4:	000d0400 	andeq	r0, sp, r0, lsl #8
    1ea8:	000a5900 	andeq	r5, sl, r0, lsl #18
    1eac:	53011500 	movwpl	r1, #5376	; 0x1500
    1eb0:	010d0a03 	tsteq	sp, r3, lsl #20
    1eb4:	05520115 	ldrbeq	r0, [r2, #-277]	; 0x115
    1eb8:	00a22403 	adceq	r2, r2, r3, lsl #8
    1ebc:	51011500 	tstpl	r1, r0, lsl #10
    1ec0:	a3b80305 			; <UNDEFINED> instruction: 0xa3b80305
    1ec4:	01150000 	tsteq	r5, r0
    1ec8:	fc030550 	stc2	5, cr0, [r3], {80}	; 0x50
    1ecc:	000000a4 	andeq	r0, r0, r4, lsr #1
    1ed0:	008ef016 	addeq	pc, lr, r6, lsl r0	; <UNPREDICTABLE>
    1ed4:	000d2100 	andeq	r2, sp, r0, lsl #2
    1ed8:	8ef81400 	cdphi	4, 15, cr1, cr8, cr0, {0}
    1edc:	0d040000 	stceq	0, cr0, [r4, #-0]
    1ee0:	0a790000 	beq	1e41ee8 <__bss_end__+0x1e372d0>
    1ee4:	01150000 	tsteq	r5, r0
    1ee8:	14030550 	strne	r0, [r3], #-1360	; 0x550
    1eec:	0000009d 	muleq	r0, sp, r0
    1ef0:	008f0017 	addeq	r0, pc, r7, lsl r0	; <UNPREDICTABLE>
    1ef4:	000d0400 	andeq	r0, sp, r0, lsl #8
    1ef8:	50011500 	andpl	r1, r1, r0, lsl #10
    1efc:	a5280305 	strge	r0, [r8, #-773]!	; 0x305
    1f00:	00000000 	andeq	r0, r0, r0
    1f04:	00008a1b 	andeq	r8, r0, fp, lsl sl
    1f08:	000a9d00 	andeq	r9, sl, r0, lsl #26
    1f0c:	00811c00 	addeq	r1, r1, r0, lsl #24
    1f10:	000d0000 	andeq	r0, sp, r0
    1f14:	000a8d07 	andeq	r8, sl, r7, lsl #26
    1f18:	04302900 	ldrteq	r2, [r0], #-2304	; 0x900
    1f1c:	14010000 	strne	r0, [r1], #-0
    1f20:	00002c01 	andeq	r2, r0, r1, lsl #24
    1f24:	008f2800 	addeq	r2, pc, r0, lsl #16
    1f28:	0000a400 	andeq	sl, r0, r0, lsl #8
    1f2c:	da9c0100 	ble	fe702334 <__bss_end__+0xfe6f771c>
    1f30:	1900000b 	stmdbne	r0, {r0, r1, r3}
    1f34:	00000127 	andeq	r0, r0, r7, lsr #2
    1f38:	00000bea 	andeq	r0, r0, sl, ror #23
    1f3c:	a2340305 	eorsge	r0, r4, #335544320	; 0x14000000
    1f40:	d9240000 	stmdble	r4!, {}	; <UNPREDICTABLE>
    1f44:	01000003 	tsteq	r0, r3
    1f48:	002c011e 	eoreq	r0, ip, lr, lsl r1
    1f4c:	09f70000 	ldmibeq	r7!, {}^	; <UNPREDICTABLE>
    1f50:	30160000 	andscc	r0, r6, r0
    1f54:	6500008f 	strvs	r0, [r0, #-143]	; 0x8f
    1f58:	1600000d 	strne	r0, [r0], -sp
    1f5c:	00008f3c 	andeq	r8, r0, ip, lsr pc
    1f60:	00000d1a 	andeq	r0, r0, sl, lsl sp
    1f64:	008f5014 	addeq	r5, pc, r4, lsl r0	; <UNPREDICTABLE>
    1f68:	000d0400 	andeq	r0, sp, r0, lsl #8
    1f6c:	000b1d00 	andeq	r1, fp, r0, lsl #26
    1f70:	53011500 	movwpl	r1, #5376	; 0x1500
    1f74:	011a0a03 	tsteq	sl, r3, lsl #20
    1f78:	05520115 	ldrbeq	r0, [r2, #-277]	; 0x115
    1f7c:	00a23403 	adceq	r3, r2, r3, lsl #8
    1f80:	51011500 	tstpl	r1, r0, lsl #10
    1f84:	a3b80305 			; <UNDEFINED> instruction: 0xa3b80305
    1f88:	01150000 	tsteq	r5, r0
    1f8c:	b4030550 	strlt	r0, [r3], #-1360	; 0x550
    1f90:	000000a4 	andeq	r0, r0, r4, lsr #1
    1f94:	008f5416 	addeq	r5, pc, r6, lsl r4	; <UNPREDICTABLE>
    1f98:	000d2100 	andeq	r2, sp, r0, lsl #2
    1f9c:	8f5c1400 	svchi	0x005c1400
    1fa0:	0d040000 	stceq	0, cr0, [r4, #-0]
    1fa4:	0b3d0000 	bleq	f41fac <__bss_end__+0xf37394>
    1fa8:	01150000 	tsteq	r5, r0
    1fac:	14030550 	strne	r0, [r3], #-1360	; 0x550
    1fb0:	0000009d 	muleq	r0, sp, r0
    1fb4:	008f6414 	addeq	r6, pc, r4, lsl r4	; <UNPREDICTABLE>
    1fb8:	000d0400 	andeq	r0, sp, r0, lsl #8
    1fbc:	000b5400 	andeq	r5, fp, r0, lsl #8
    1fc0:	50011500 	andpl	r1, r1, r0, lsl #10
    1fc4:	a4dc0305 	ldrbge	r0, [ip], #773	; 0x305
    1fc8:	14000000 	strne	r0, [r0], #-0
    1fcc:	00008f6c 	andeq	r8, r0, ip, ror #30
    1fd0:	0000092d 	andeq	r0, r0, sp, lsr #18
    1fd4:	00000b67 	andeq	r0, r0, r7, ror #22
    1fd8:	01500115 	cmpeq	r0, r5, lsl r1
    1fdc:	78160031 	ldmdavc	r6, {r0, r4, r5}
    1fe0:	1a00008f 	bne	2224 <__code_start__-0x5ddc>
    1fe4:	1400000d 	strne	r0, [r0], #-13
    1fe8:	00008f8c 	andeq	r8, r0, ip, lsl #31
    1fec:	00000d04 	andeq	r0, r0, r4, lsl #26
    1ff0:	00000ba0 	andeq	r0, r0, r0, lsr #23
    1ff4:	03530115 	cmpeq	r3, #1073741829	; 0x40000005
    1ff8:	1501200a 	strne	r2, [r1, #-10]
    1ffc:	03055201 	movweq	r5, #20993	; 0x5201
    2000:	0000a234 	andeq	sl, r0, r4, lsr r2
    2004:	05510115 	ldrbeq	r0, [r1, #-277]	; 0x115
    2008:	00a3b803 	adceq	fp, r3, r3, lsl #16
    200c:	50011500 	andpl	r1, r1, r0, lsl #10
    2010:	a5400305 	strbge	r0, [r0, #-773]	; 0x305
    2014:	16000000 	strne	r0, [r0], -r0
    2018:	00008f90 	muleq	r0, r0, pc	; <UNPREDICTABLE>
    201c:	00000d21 	andeq	r0, r0, r1, lsr #26
    2020:	008f9814 	addeq	r9, pc, r4, lsl r8	; <UNPREDICTABLE>
    2024:	000d0400 	andeq	r0, sp, r0, lsl #8
    2028:	000bc000 	andeq	ip, fp, r0
    202c:	50011500 	andpl	r1, r1, r0, lsl #10
    2030:	9d140305 	ldcls	3, cr0, [r4, #-20]	; 0xffffffec
    2034:	17000000 	strne	r0, [r0, -r0]
    2038:	00008fa4 	andeq	r8, r0, r4, lsr #31
    203c:	00000d04 	andeq	r0, r0, r4, lsl #26
    2040:	02510115 	subseq	r0, r1, #1073741829	; 0x40000005
    2044:	01150074 	tsteq	r5, r4, ror r0
    2048:	68030550 	stmdavs	r3, {r4, r6, r8, sl}
    204c:	000000a5 	andeq	r0, r0, r5, lsr #1
    2050:	008a1b00 	addeq	r1, sl, r0, lsl #22
    2054:	0bea0000 	bleq	ffa8205c <__bss_end__+0xffa77444>
    2058:	811c0000 	tsthi	ip, r0
    205c:	11000000 	mrsne	r0, (UNDEF: 0)
    2060:	0bda0700 	bleq	ff683c68 <__bss_end__+0xff679050>
    2064:	bc280000 	stclt	0, cr0, [r8], #-0
    2068:	01000003 	tsteq	r0, r3
    206c:	8fcc0127 	svchi	0x00cc0127
    2070:	002c0000 	eoreq	r0, ip, r0
    2074:	9c010000 	stcls	0, cr0, [r1], {-0}
    2078:	00000c57 	andeq	r0, r0, r7, asr ip
    207c:	00012719 	andeq	r2, r1, r9, lsl r7
    2080:	000c6700 	andeq	r6, ip, r0, lsl #14
    2084:	48030500 	stmdami	r3, {r8, sl}
    2088:	160000a2 	strne	r0, [r0], -r2, lsr #1
    208c:	00008fd4 	ldrdeq	r8, [r0], -r4
    2090:	00000d1a 	andeq	r0, r0, sl, lsl sp
    2094:	008fe814 	addeq	lr, pc, r4, lsl r8	; <UNPREDICTABLE>
    2098:	000d0400 	andeq	r0, sp, r0, lsl #8
    209c:	000c4d00 	andeq	r4, ip, r0, lsl #26
    20a0:	53011500 	movwpl	r1, #5376	; 0x1500
    20a4:	01280a03 	teqeq	r8, r3, lsl #20
    20a8:	05520115 	ldrbeq	r0, [r2, #-277]	; 0x115
    20ac:	00a24803 	adceq	r4, r2, r3, lsl #16
    20b0:	51011500 	tstpl	r1, r0, lsl #10
    20b4:	a3b80305 			; <UNDEFINED> instruction: 0xa3b80305
    20b8:	01150000 	tsteq	r5, r0
    20bc:	88030550 	stmdahi	r3, {r4, r6, r8, sl}
    20c0:	000000a5 	andeq	r0, r0, r5, lsr #1
    20c4:	008fec16 	addeq	lr, pc, r6, lsl ip	; <UNPREDICTABLE>
    20c8:	000d2100 	andeq	r2, sp, r0, lsl #2
    20cc:	8a1b0000 	bhi	6c20d4 <__bss_end__+0x6b74bc>
    20d0:	67000000 	strvs	r0, [r0, -r0]
    20d4:	1c00000c 	stcne	0, cr0, [r0], {12}
    20d8:	00000081 	andeq	r0, r0, r1, lsl #1
    20dc:	5707000e 	strpl	r0, [r7, -lr]
    20e0:	2900000c 	stmdbcs	r0, {r2, r3}
    20e4:	000003f8 	strdeq	r0, [r0], -r8
    20e8:	2c014f01 	stccs	15, cr4, [r1], {1}
    20ec:	f8000000 			; <UNDEFINED> instruction: 0xf8000000
    20f0:	1000008f 	andne	r0, r0, pc, lsl #1
    20f4:	01000000 	mrseq	r0, (UNDEF: 0)
    20f8:	000ca79c 	muleq	ip, ip, r7
    20fc:	034b2500 	movteq	r2, #46336	; 0xb500
    2100:	51010000 	mrspl	r0, (UNDEF: 1)
    2104:	00002c01 	andeq	r2, r0, r1, lsl #24
    2108:	16500100 	ldrbne	r0, [r0], -r0, lsl #2
    210c:	00009000 	andeq	r9, r0, r0
    2110:	000005bc 			; <UNDEFINED> instruction: 0x000005bc
    2114:	00900416 	addseq	r0, r0, r6, lsl r4
    2118:	00074b00 	andeq	r4, r7, r0, lsl #22
    211c:	c61e0000 	ldrgt	r0, [lr], -r0
    2120:	01000002 	tsteq	r0, r2
    2124:	0001a414 	andeq	sl, r1, r4, lsl r4
    2128:	04030500 	streq	r0, [r3], #-1280	; 0x500
    212c:	200000a8 	andcs	r0, r0, r8, lsr #1
    2130:	000003fe 	strdeq	r0, [r0], -lr
    2134:	0068f001 	rsbeq	pc, r8, r1
    2138:	0c200000 	stceq	0, cr0, [r0], #-0
    213c:	01000004 	tsteq	r0, r4
    2140:	000068f0 	strdeq	r6, [r0], -r0
    2144:	04422000 	strbeq	r2, [r2], #-0
    2148:	f3010000 	vhadd.u8	d0, d1, d0
    214c:	00000068 	andeq	r0, r0, r8, rrx
    2150:	00046a20 	andeq	r6, r4, r0, lsr #20
    2154:	68f30100 	ldmvs	r3!, {r8}^
    2158:	2a000000 	bcs	2160 <__code_start__-0x5ea0>
    215c:	000001c2 	andeq	r0, r0, r2, asr #3
    2160:	01fb9403 	mvnseq	r9, r3, lsl #8
    2164:	6d2b0000 	stcvs	0, cr0, [fp, #-0]
    2168:	03000002 	movweq	r0, #2
    216c:	0001fb96 	muleq	r1, r6, fp
    2170:	000d0400 	andeq	r0, sp, r0, lsl #8
    2174:	01fb2c00 	mvnseq	r2, r0, lsl #24
    2178:	2b000000 	blcs	2180 <__code_start__-0x5e80>
    217c:	0000050f 	andeq	r0, r0, pc, lsl #10
    2180:	00252904 	eoreq	r2, r5, r4, lsl #18
    2184:	0d1a0000 	ldceq	0, cr0, [sl, #-0]
    2188:	912c0000 	teqls	ip, r0
    218c:	2d000000 	stccs	0, cr0, [r0, #-0]
    2190:	01112e00 	tsteq	r1, r0, lsl #28
    2194:	1e040000 	cdpne	0, 0, cr0, cr4, cr0, {0}
    2198:	0000e92e 	andeq	lr, r0, lr, lsr #18
    219c:	2a650400 	bcs	19431a4 <__bss_end__+0x193858c>
    21a0:	000002c1 	andeq	r0, r0, r1, asr #5
    21a4:	01a4a703 			; <UNDEFINED> instruction: 0x01a4a703
    21a8:	512f0000 	teqpl	pc, r0
    21ac:	01000004 	tsteq	r0, r4
    21b0:	000d45c7 	andeq	r4, sp, r7, asr #11
    21b4:	05a12c00 	streq	r2, [r1, #3072]!	; 0xc00
    21b8:	002d0000 	eoreq	r0, sp, r0
    21bc:	00017e2f 	andeq	r7, r1, pc, lsr #28
    21c0:	65120500 	ldrvs	r0, [r2, #-1280]	; 0x500
    21c4:	2c00000d 	stccs	0, cr0, [r0], {13}
    21c8:	00000088 	andeq	r0, r0, r8, lsl #1
    21cc:	0000912c 	andeq	r9, r0, ip, lsr #2
    21d0:	00912c00 	addseq	r2, r1, r0, lsl #24
    21d4:	2c2c0000 	stccs	0, cr0, [ip], #-0
    21d8:	00000000 	andeq	r0, r0, r0
    21dc:	0000cc2a 	andeq	ip, r0, sl, lsr #24
    21e0:	251e0500 	ldrcs	r0, [lr, #-1280]	; 0x500
    21e4:	00000000 	andeq	r0, r0, r0
    21e8:	00000112 	andeq	r0, r0, r2, lsl r1
    21ec:	065b0004 	ldrbeq	r0, [fp], -r4
    21f0:	01040000 	mrseq	r0, (UNDEF: 4)
    21f4:	00000007 	andeq	r0, r0, r7
    21f8:	00048f01 	andeq	r8, r4, r1, lsl #30
    21fc:	00049b00 	andeq	r9, r4, r0, lsl #22
    2200:	00901000 	addseq	r1, r0, r0
    2204:	0000f000 	andeq	pc, r0, r0
    2208:	00067a00 	andeq	r7, r6, r0, lsl #20
    220c:	05040200 	streq	r0, [r4, #-512]	; 0x200
    2210:	00746e69 	rsbseq	r6, r4, r9, ror #28
    2214:	5a070403 	bpl	1c3228 <__bss_end__+0x1b8610>
    2218:	03000001 	movweq	r0, #1
    221c:	00dd0601 	sbcseq	r0, sp, r1, lsl #12
    2220:	02030000 	andeq	r0, r3, #0
    2224:	00018505 	andeq	r8, r1, r5, lsl #10
    2228:	05040300 	streq	r0, [r4, #-768]	; 0x300
    222c:	00000175 	andeq	r0, r0, r5, ror r1
    2230:	70050803 	andvc	r0, r5, r3, lsl #16
    2234:	04000001 	streq	r0, [r0], #-1
    2238:	00000360 	andeq	r0, r0, r0, ror #6
    223c:	005a2e02 	subseq	r2, sl, r2, lsl #28
    2240:	01030000 	mrseq	r0, (UNDEF: 3)
    2244:	0000db08 	andeq	sp, r0, r8, lsl #22
    2248:	07020300 	streq	r0, [r2, -r0, lsl #6]
    224c:	000000f6 	strdeq	r0, [r0], -r6
    2250:	00018f04 	andeq	r8, r1, r4, lsl #30
    2254:	73340200 	teqvc	r4, #0, 4
    2258:	03000000 	movweq	r0, #0
    225c:	01550704 	cmpeq	r5, r4, lsl #14
    2260:	08030000 	stmdaeq	r3, {}	; <UNPREDICTABLE>
    2264:	00015007 	andeq	r5, r1, r7
    2268:	07040300 	streq	r0, [r4, -r0, lsl #6]
    226c:	00000167 	andeq	r0, r0, r7, ror #2
    2270:	e4080103 	str	r0, [r8], #-259	; 0x103
    2274:	05000000 	streq	r0, [r0, #-0]
    2278:	00009504 	andeq	r9, r0, r4, lsl #10
    227c:	00880600 	addeq	r0, r8, r0, lsl #12
    2280:	e4070000 	str	r0, [r7], #-0
    2284:	01000001 	tsteq	r0, r1
    2288:	0000680f 	andeq	r6, r0, pc, lsl #16
    228c:	00901000 	addseq	r1, r0, r0
    2290:	0000f000 	andeq	pc, r0, r0
    2294:	0e9c0100 	fmleqe	f0, f4, f0
    2298:	08000001 	stmdaeq	r0, {r0}
    229c:	00000bcf 	andeq	r0, r0, pc, asr #23
    22a0:	010e0f01 	tsteq	lr, r1, lsl #30
    22a4:	0a2b0000 	beq	ac22ac <__bss_end__+0xab7694>
    22a8:	6c090000 	stcvs	0, cr0, [r9], {-0}
    22ac:	01006e65 	tsteq	r0, r5, ror #28
    22b0:	0000250f 	andeq	r2, r0, pc, lsl #10
    22b4:	000a6500 	andeq	r6, sl, r0, lsl #10
    22b8:	0bd00a00 	bleq	ff404ac0 <__bss_end__+0xff3f9ea8>
    22bc:	10010000 	andne	r0, r1, r0
    22c0:	0000008f 	andeq	r0, r0, pc, lsl #1
    22c4:	00000aa4 	andeq	r0, r0, r4, lsr #21
    22c8:	0001e90a 	andeq	lr, r1, sl, lsl #18
    22cc:	68110100 	ldmdavs	r1, {r8}
    22d0:	e3000000 	movw	r0, #0
    22d4:	0b00000a 	bleq	2304 <__code_start__-0x5cfc>
    22d8:	00706d74 	rsbseq	r6, r0, r4, ror sp
    22dc:	00681101 	rsbeq	r1, r8, r1, lsl #2
    22e0:	0b2d0000 	bleq	b422e8 <__bss_end__+0xb376d0>
    22e4:	720b0000 	andvc	r0, fp, #0
    22e8:	01006d65 	tsteq	r0, r5, ror #26
    22ec:	00002512 	andeq	r2, r0, r2, lsl r5
    22f0:	000b7800 	andeq	r7, fp, r0, lsl #16
    22f4:	04050000 	streq	r0, [r5], #-0
    22f8:	00000114 	andeq	r0, r0, r4, lsl r1
    22fc:	00db000c 	sbcseq	r0, fp, ip
    2300:	00040000 	andeq	r0, r4, r0
    2304:	000006ff 	strdeq	r0, [r0], -pc	; <UNPREDICTABLE>
    2308:	00070104 	andeq	r0, r7, r4, lsl #2
    230c:	e1010000 	mrs	r0, (UNDEF: 1)
    2310:	9b000004 	blls	2328 <__code_start__-0x5cd8>
    2314:	00000004 	andeq	r0, r0, r4
    2318:	20000091 	mulcs	r0, r1, r0
    231c:	5c000000 	stcpl	0, cr0, [r0], {-0}
    2320:	02000007 	andeq	r0, r0, #7
    2324:	00dd0601 	sbcseq	r0, sp, r1, lsl #12
    2328:	01020000 	mrseq	r0, (UNDEF: 2)
    232c:	0000db08 	andeq	sp, r0, r8, lsl #22
    2330:	05020200 	streq	r0, [r2, #-512]	; 0x200
    2334:	00000185 	andeq	r0, r0, r5, lsl #3
    2338:	f6070202 			; <UNDEFINED> instruction: 0xf6070202
    233c:	03000000 	movweq	r0, #0
    2340:	6e690504 	cdpvs	5, 6, cr0, cr9, cr4, {0}
    2344:	04020074 	streq	r0, [r2], #-116	; 0x74
    2348:	00015a07 	andeq	r5, r1, r7, lsl #20
    234c:	05080200 	streq	r0, [r8, #-512]	; 0x200
    2350:	00000170 	andeq	r0, r0, r0, ror r1
    2354:	50070802 	andpl	r0, r7, r2, lsl #16
    2358:	02000001 	andeq	r0, r0, #1
    235c:	01750504 	cmneq	r5, r4, lsl #10
    2360:	04020000 	streq	r0, [r2], #-0
    2364:	00016707 	andeq	r6, r1, r7, lsl #14
    2368:	02040400 	andeq	r0, r4, #0, 8
    236c:	01550704 	cmpeq	r5, r4, lsl #14
    2370:	04050000 	streq	r0, [r5], #-0
    2374:	0000007a 	andeq	r0, r0, sl, ror r0
    2378:	e4080102 	str	r0, [r8], #-258	; 0x102
    237c:	06000000 	streq	r0, [r0], -r0
    2380:	00000000 	andeq	r0, r0, r0
    2384:	0048d402 	subeq	sp, r8, r2, lsl #8
    2388:	20070000 	andcs	r0, r7, r0
    238c:	03000001 	movweq	r0, #1
    2390:	00006b1b 	andeq	r6, r0, fp, lsl fp
    2394:	00910000 	addseq	r0, r1, r0
    2398:	00002000 	andeq	r2, r0, r0
    239c:	089c0100 	ldmeq	ip, {r8}
    23a0:	0100705f 	qaddeq	r7, pc, r0	; <UNPREDICTABLE>
    23a4:	00006b03 	andeq	r6, r0, r3, lsl #22
    23a8:	08500100 	ldmdaeq	r0, {r8}^
    23ac:	03010063 	movweq	r0, #4195	; 0x1063
    23b0:	00000041 	andeq	r0, r0, r1, asr #32
    23b4:	6e095101 	adfvse	f5, f1, f1
    23b8:	81030100 	mrshi	r0, (UNDEF: 19)
    23bc:	8b000000 	blhi	23c4 <__code_start__-0x5c3c>
    23c0:	0a00000b 	beq	23f4 <__code_start__-0x5c0c>
    23c4:	04010070 	streq	r0, [r1], #-112	; 0x70
    23c8:	00000074 	andeq	r0, r0, r4, ror r0
    23cc:	00000bac 	andeq	r0, r0, ip, lsr #23
    23d0:	0100650b 	tsteq	r0, fp, lsl #10
    23d4:	00007404 	andeq	r7, r0, r4, lsl #8
    23d8:	00520100 	subseq	r0, r2, r0, lsl #2
    23dc:	00019100 	andeq	r9, r1, r0, lsl #2
    23e0:	9c000400 	cfstrsls	mvf0, [r0], {-0}
    23e4:	04000007 	streq	r0, [r0], #-7
    23e8:	00000701 	andeq	r0, r0, r1, lsl #14
    23ec:	04fe0100 	ldrbteq	r0, [lr], #256	; 0x100
    23f0:	049b0000 	ldreq	r0, [fp], #0
    23f4:	91200000 	teqls	r0, r0
    23f8:	00580000 	subseq	r0, r8, r0
    23fc:	084c0000 	stmdaeq	ip, {}^	; <UNPREDICTABLE>
    2400:	ef020000 	svc	0x00020000
    2404:	02000004 	andeq	r0, r0, #4
    2408:	00003028 	andeq	r3, r0, r8, lsr #32
    240c:	05160300 	ldreq	r0, [r6, #-768]	; 0x300
    2410:	03040000 	movweq	r0, #16384	; 0x4000
    2414:	00004700 	andeq	r4, r0, r0, lsl #14
    2418:	05200400 	streq	r0, [r0, #-1024]!	; 0x400
    241c:	00470000 	subeq	r0, r7, r0
    2420:	00000000 	andeq	r0, r0, r0
    2424:	18020405 	stmdane	r2, {r0, r2, sl}
    2428:	02000005 	andeq	r0, r0, #5
    242c:	00002562 	andeq	r2, r0, r2, ror #10
    2430:	05040600 	streq	r0, [r4, #-1536]	; 0x600
    2434:	00746e69 	rsbseq	r6, r4, r9, ror #28
    2438:	5a070407 	bpl	1c345c <__bss_end__+0x1b8844>
    243c:	07000001 	streq	r0, [r0, -r1]
    2440:	00dd0601 	sbcseq	r0, sp, r1, lsl #12
    2444:	02070000 	andeq	r0, r7, #0
    2448:	00018505 	andeq	r8, r1, r5, lsl #10
    244c:	05040700 	streq	r0, [r4, #-1792]	; 0x700
    2450:	00000175 	andeq	r0, r0, r5, ror r1
    2454:	70050807 	andvc	r0, r5, r7, lsl #16
    2458:	07000001 	streq	r0, [r0, -r1]
    245c:	00db0801 	sbcseq	r0, fp, r1, lsl #16
    2460:	02070000 	andeq	r0, r7, #0
    2464:	0000f607 	andeq	pc, r0, r7, lsl #12
    2468:	07040700 	streq	r0, [r4, -r0, lsl #14]
    246c:	00000155 	andeq	r0, r0, r5, asr r1
    2470:	50070807 	andpl	r0, r7, r7, lsl #16
    2474:	07000001 	streq	r0, [r0, -r1]
    2478:	01670704 	cmneq	r7, r4, lsl #14
    247c:	04080000 	streq	r0, [r8], #-0
    2480:	000000a7 	andeq	r0, r0, r7, lsr #1
    2484:	e4080107 	str	r0, [r8], #-263	; 0x107
    2488:	08000000 	stmdaeq	r0, {}	; <UNPREDICTABLE>
    248c:	0000b404 	andeq	fp, r0, r4, lsl #8
    2490:	00a70900 	adceq	r0, r7, r0, lsl #18
    2494:	0f0a0000 	svceq	0x000a0000
    2498:	01000005 	tsteq	r0, r5
    249c:	00005406 	andeq	r5, r0, r6, lsl #8
    24a0:	00912000 	addseq	r2, r1, r0
    24a4:	00005800 	andeq	r5, r0, r0, lsl #16
    24a8:	439c0100 	orrsmi	r0, ip, #0, 2
    24ac:	0b000001 	bleq	24b8 <__code_start__-0x5b48>
    24b0:	00746d66 	rsbseq	r6, r4, r6, ror #26
    24b4:	00ae0601 	adceq	r0, lr, r1, lsl #12
    24b8:	91020000 	mrsls	r0, (UNDEF: 2)
    24bc:	620d0c70 	andvs	r0, sp, #112, 24	; 0x7000
    24c0:	01006675 	tsteq	r0, r5, ror r6
    24c4:	00014308 	andeq	r4, r1, r8, lsl #6
    24c8:	14030500 	strne	r0, [r3], #-1280	; 0x500
    24cc:	0e0000a8 	cdpeq	0, 0, cr0, cr0, cr8, {5}
    24d0:	000007c7 	andeq	r0, r0, r7, asr #15
    24d4:	00490901 	subeq	r0, r9, r1, lsl #18
    24d8:	91020000 	mrsls	r0, (UNDEF: 2)
    24dc:	7a730f5c 	bvc	1cc6254 <__bss_end__+0x1cbb63c>
    24e0:	540c0100 	strpl	r0, [ip], #-256	; 0x100
    24e4:	d7000000 	strle	r0, [r0, -r0]
    24e8:	1000000b 	andne	r0, r0, fp
    24ec:	00009148 	andeq	r9, r0, r8, asr #2
    24f0:	00000174 	andeq	r0, r0, r4, ror r1
    24f4:	00000136 	andeq	r0, r0, r6, lsr r1
    24f8:	02530111 	subseq	r0, r3, #1073741828	; 0x40000004
    24fc:	01114c91 			; <UNDEFINED> instruction: 0x01114c91
    2500:	48910352 	ldmmi	r1, {r1, r4, r6, r8, r9}
    2504:	51011106 	tstpl	r1, r6, lsl #2
    2508:	04000a03 	streq	r0, [r0], #-2563	; 0xa03
    250c:	02500111 	subseq	r0, r0, #1073741828	; 0x40000004
    2510:	12000074 	andne	r0, r0, #116	; 0x74
    2514:	0000915c 	andeq	r9, r0, ip, asr r1
    2518:	02500111 	subseq	r0, r0, #1073741828	; 0x40000004
    251c:	00000074 	andeq	r0, r0, r4, ror r0
    2520:	0000a713 	andeq	sl, r0, r3, lsl r7
    2524:	00015400 	andeq	r5, r1, r0, lsl #8
    2528:	009a1400 	addseq	r1, sl, r0, lsl #8
    252c:	03ff0000 	mvnseq	r0, #0
    2530:	00541500 	subseq	r1, r4, r0, lsl #10
    2534:	01630000 	cmneq	r3, r0
    2538:	ae160000 	cdpge	0, 1, cr0, cr6, cr0, {0}
    253c:	00000000 	andeq	r0, r0, r0
    2540:	00057d17 	andeq	r7, r5, r7, lsl sp
    2544:	6e220400 	cdpvs	4, 2, cr0, cr2, cr0, {0}
    2548:	08000001 	stmdaeq	r0, {r0}
    254c:	00015404 	andeq	r5, r1, r4, lsl #8
    2550:	050c1800 	streq	r1, [ip, #-2048]	; 0x800
    2554:	02050000 	andeq	r0, r5, #0
    2558:	00000054 	andeq	r0, r0, r4, asr r0
    255c:	0000a116 	andeq	sl, r0, r6, lsl r1
    2560:	00541600 	subseq	r1, r4, r0, lsl #12
    2564:	ae160000 	cdpge	0, 1, cr0, cr6, cr0, {0}
    2568:	16000000 	strne	r0, [r0], -r0
    256c:	00000049 	andeq	r0, r0, r9, asr #32
    2570:	01130000 	tsteq	r3, r0
    2574:	00040000 	andeq	r0, r4, r0
    2578:	000008cd 	andeq	r0, r0, sp, asr #17
    257c:	00070104 	andeq	r0, r7, r4, lsl #2
    2580:	4c010000 	stcmi	0, cr0, [r1], {-0}
    2584:	9b000005 	blls	25a0 <__code_start__-0x5a60>
    2588:	78000004 	stmdavc	r0, {r2}
    258c:	3c000091 	stccc	0, cr0, [r0], {145}	; 0x91
    2590:	5c000000 	stcpl	0, cr0, [r0], {-0}
    2594:	02000009 	andeq	r0, r0, #9
    2598:	6e690504 	cdpvs	5, 6, cr0, cr9, cr4, {0}
    259c:	04030074 	streq	r0, [r3], #-116	; 0x74
    25a0:	00015a07 	andeq	r5, r1, r7, lsl #20
    25a4:	06010300 	streq	r0, [r1], -r0, lsl #6
    25a8:	000000dd 	ldrdeq	r0, [r0], -sp
    25ac:	85050203 	strhi	r0, [r5, #-515]	; 0x203
    25b0:	03000001 	movweq	r0, #1
    25b4:	01750504 	cmneq	r5, r4, lsl #10
    25b8:	08030000 	stmdaeq	r3, {}	; <UNPREDICTABLE>
    25bc:	00017005 	andeq	r7, r1, r5
    25c0:	08010300 	stmdaeq	r1, {r8, r9}
    25c4:	000000db 	ldrdeq	r0, [r0], -fp
    25c8:	f6070203 			; <UNDEFINED> instruction: 0xf6070203
    25cc:	03000000 	movweq	r0, #0
    25d0:	01550704 	cmpeq	r5, r4, lsl #14
    25d4:	08030000 	stmdaeq	r3, {}	; <UNPREDICTABLE>
    25d8:	00015007 	andeq	r5, r1, r7
    25dc:	07040300 	streq	r0, [r4, -r0, lsl #6]
    25e0:	00000167 	andeq	r0, r0, r7, ror #2
    25e4:	e4080103 	str	r0, [r8], #-259	; 0x103
    25e8:	04000000 	streq	r0, [r0], #-0
    25ec:	0000052f 	andeq	r0, r0, pc, lsr #10
    25f0:	00250301 	eoreq	r0, r5, r1, lsl #6
    25f4:	91780000 	cmnls	r8, r0
    25f8:	00140000 	andseq	r0, r4, r0
    25fc:	9c010000 	stcls	0, cr0, [r1], {-0}
    2600:	000000b0 	strheq	r0, [r0], -r0	; <UNPREDICTABLE>
    2604:	01006305 	tsteq	r0, r5, lsl #6
    2608:	00002503 	andeq	r2, r0, r3, lsl #10
    260c:	000c0000 	andeq	r0, ip, r0
    2610:	91840600 	orrls	r0, r4, r0, lsl #12
    2614:	01090000 	mrseq	r0, (UNDEF: 9)
    2618:	01070000 	mrseq	r0, (UNDEF: 7)
    261c:	00740250 	rsbseq	r0, r4, r0, asr r2
    2620:	11080000 	mrsne	r0, (UNDEF: 8)
    2624:	01000001 	tsteq	r0, r1
    2628:	00918c08 	addseq	r8, r1, r8, lsl #24
    262c:	00001800 	andeq	r1, r0, r0, lsl #16
    2630:	099c0100 	ldmibeq	ip, {r8}
    2634:	0000055b 	andeq	r0, r0, fp, asr r5
    2638:	91a40b01 			; <UNDEFINED> instruction: 0x91a40b01
    263c:	00100000 	andseq	r0, r0, r0
    2640:	9c010000 	stcls	0, cr0, [r1], {-0}
    2644:	000000e3 	andeq	r0, r0, r3, ror #1
    2648:	0070660a 	rsbseq	r6, r0, sl, lsl #12
    264c:	00f20b01 	rscseq	r0, r2, r1, lsl #22
    2650:	50010000 	andpl	r0, r1, r0
    2654:	00250b00 	eoreq	r0, r5, r0, lsl #22
    2658:	00f20000 	rscseq	r0, r2, r0
    265c:	250c0000 	strcs	r0, [ip, #-0]
    2660:	00000000 	andeq	r0, r0, r0
    2664:	00e3040d 	rsceq	r0, r3, sp, lsl #8
    2668:	400e0000 	andmi	r0, lr, r0
    266c:	01000005 	tsteq	r0, r5
    2670:	0000f206 	andeq	pc, r0, r6, lsl #4
    2674:	e0030500 	and	r0, r3, r0, lsl #10
    2678:	0f00009c 	svceq	0x0000009c
    267c:	00000525 	andeq	r0, r0, r5, lsr #10
    2680:	2c0c3c02 	stccs	12, cr3, [ip], {2}
    2684:	00000000 	andeq	r0, r0, r0
    2688:	0000ee00 	andeq	lr, r0, r0, lsl #28
    268c:	b5000400 	strlt	r0, [r0, #-1024]	; 0x400
    2690:	04000009 	streq	r0, [r0], #-9
    2694:	00000701 	andeq	r0, r0, r1, lsl #14
    2698:	05680100 	strbeq	r0, [r8, #-256]!	; 0x100
    269c:	049b0000 	ldreq	r0, [fp], #0
    26a0:	91b40000 			; <UNDEFINED> instruction: 0x91b40000
    26a4:	00340000 	eorseq	r0, r4, r0
    26a8:	09f40000 	ldmibeq	r4!, {}^	; <UNPREDICTABLE>
    26ac:	04020000 	streq	r0, [r2], #-0
    26b0:	746e6905 	strbtvc	r6, [lr], #-2309	; 0x905
    26b4:	07040300 	streq	r0, [r4, -r0, lsl #6]
    26b8:	0000015a 	andeq	r0, r0, sl, asr r1
    26bc:	dd060103 	stfles	f0, [r6, #-12]
    26c0:	03000000 	movweq	r0, #0
    26c4:	01850502 	orreq	r0, r5, r2, lsl #10
    26c8:	04030000 	streq	r0, [r3], #-0
    26cc:	00017505 	andeq	r7, r1, r5, lsl #10
    26d0:	05080300 	streq	r0, [r8, #-768]	; 0x300
    26d4:	00000170 	andeq	r0, r0, r0, ror r1
    26d8:	db080103 	blle	202aec <__bss_end__+0x1f7ed4>
    26dc:	03000000 	movweq	r0, #0
    26e0:	00f60702 	rscseq	r0, r6, r2, lsl #14
    26e4:	04030000 	streq	r0, [r3], #-0
    26e8:	00015507 	andeq	r5, r1, r7, lsl #10
    26ec:	07080300 	streq	r0, [r8, -r0, lsl #6]
    26f0:	00000150 	andeq	r0, r0, r0, asr r1
    26f4:	67070403 	strvs	r0, [r7, -r3, lsl #8]
    26f8:	03000001 	movweq	r0, #1
    26fc:	00e40801 	rsceq	r0, r4, r1, lsl #16
    2700:	04040000 	streq	r0, [r4], #-0
    2704:	0000007f 	andeq	r0, r0, pc, ror r0
    2708:	00007205 	andeq	r7, r0, r5, lsl #4
    270c:	05740600 	ldrbeq	r0, [r4, #-1536]!	; 0x600
    2710:	04010000 	streq	r0, [r1], #-0
    2714:	00000025 	andeq	r0, r0, r5, lsr #32
    2718:	000091b4 			; <UNDEFINED> instruction: 0x000091b4
    271c:	00000034 	andeq	r0, r0, r4, lsr r0
    2720:	00ab9c01 	adceq	r9, fp, r1, lsl #24
    2724:	70070000 	andvc	r0, r7, r0
    2728:	79040100 	stmdbvc	r4, {r8}
    272c:	1e000000 	cdpne	0, 0, cr0, cr0, cr0, {0}
    2730:	0000000c 	andeq	r0, r0, ip
    2734:	00002508 	andeq	r2, r0, r8, lsl #10
    2738:	0000ba00 	andeq	fp, r0, r0, lsl #20
    273c:	00250900 	eoreq	r0, r5, r0, lsl #18
    2740:	0a000000 	beq	2748 <__code_start__-0x58b8>
    2744:	00000540 	andeq	r0, r0, r0, asr #10
    2748:	00c51d02 	sbceq	r1, r5, r2, lsl #26
    274c:	04040000 	streq	r0, [r4], #-0
    2750:	000000ab 	andeq	r0, r0, fp, lsr #1
    2754:	00002508 	andeq	r2, r0, r8, lsl #10
    2758:	0000da00 	andeq	sp, r0, r0, lsl #20
    275c:	00790900 	rsbseq	r0, r9, r0, lsl #18
    2760:	0b000000 	bleq	2768 <__code_start__-0x5898>
    2764:	0000057d 	andeq	r0, r0, sp, ror r5
    2768:	00eb0c01 	rsceq	r0, fp, r1, lsl #24
    276c:	03050000 	movweq	r0, #20480	; 0x5000
    2770:	00009ce4 	andeq	r9, r0, r4, ror #25
    2774:	00cb0404 	sbceq	r0, fp, r4, lsl #8
    2778:	81000000 	mrshi	r0, (UNDEF: 0)
    277c:	04000006 	streq	r0, [r0], #-6
    2780:	000a4e00 	andeq	r4, sl, r0, lsl #28
    2784:	07010400 	streq	r0, [r1, -r0, lsl #8]
    2788:	01000000 	mrseq	r0, (UNDEF: 0)
    278c:	000005a9 	andeq	r0, r0, r9, lsr #11
    2790:	0000049b 	muleq	r0, fp, r4
    2794:	000091e8 	andeq	r9, r0, r8, ror #3
    2798:	0000050c 	andeq	r0, r0, ip, lsl #10
    279c:	00000a98 	muleq	r0, r8, sl
    27a0:	69050402 	stmdbvs	r5, {r1, sl}
    27a4:	0300746e 	movweq	r7, #1134	; 0x46e
    27a8:	015a0704 	cmpeq	sl, r4, lsl #14
    27ac:	01030000 	mrseq	r0, (UNDEF: 3)
    27b0:	0000dd06 	andeq	sp, r0, r6, lsl #26
    27b4:	05020300 	streq	r0, [r2, #-768]	; 0x300
    27b8:	00000185 	andeq	r0, r0, r5, lsl #3
    27bc:	75050403 	strvc	r0, [r5, #-1027]	; 0x403
    27c0:	03000001 	movweq	r0, #1
    27c4:	01700508 	cmneq	r0, r8, lsl #10
    27c8:	01030000 	mrseq	r0, (UNDEF: 3)
    27cc:	0000db08 	andeq	sp, r0, r8, lsl #22
    27d0:	07020300 	streq	r0, [r2, -r0, lsl #6]
    27d4:	000000f6 	strdeq	r0, [r0], -r6
    27d8:	55070403 	strpl	r0, [r7, #-1027]	; 0x403
    27dc:	03000001 	movweq	r0, #1
    27e0:	01500708 	cmpeq	r0, r8, lsl #14
    27e4:	04030000 	streq	r0, [r3], #-0
    27e8:	00016707 	andeq	r6, r1, r7, lsl #14
    27ec:	05040400 	streq	r0, [r4, #-1024]	; 0x400
    27f0:	00007a04 	andeq	r7, r0, r4, lsl #20
    27f4:	08010300 	stmdaeq	r1, {r8, r9}
    27f8:	000000e4 	andeq	r0, r0, r4, ror #1
    27fc:	00870405 	addeq	r0, r7, r5, lsl #8
    2800:	7a060000 	bvc	182808 <__bss_end__+0x177bf0>
    2804:	07000000 	streq	r0, [r0, -r0]
    2808:	000004ef 	andeq	r0, r0, pc, ror #9
    280c:	00972802 	addseq	r2, r7, r2, lsl #16
    2810:	16080000 	strne	r0, [r8], -r0
    2814:	04000005 	streq	r0, [r0], #-5
    2818:	00ae0004 	adceq	r0, lr, r4
    281c:	20090000 	andcs	r0, r9, r0
    2820:	72000005 	andvc	r0, r0, #5
    2824:	00000000 	andeq	r0, r0, r0
    2828:	05180700 	ldreq	r0, [r8, #-1792]	; 0x700
    282c:	62020000 	andvs	r0, r2, #0
    2830:	0000008c 	andeq	r0, r0, ip, lsl #1
    2834:	0005900a 	andeq	r9, r5, sl
    2838:	25270100 	strcs	r0, [r7, #-256]!	; 0x100
    283c:	e8000000 	stmda	r0, {}	; <UNPREDICTABLE>
    2840:	14000091 	strne	r0, [r0], #-145	; 0x91
    2844:	01000000 	mrseq	r0, (UNDEF: 0)
    2848:	0000e09c 	muleq	r0, ip, r0
    284c:	00630b00 	rsbeq	r0, r3, r0, lsl #22
    2850:	00252701 	eoreq	r2, r5, r1, lsl #14
    2854:	0c3c0000 	ldceq	0, cr0, [ip], #-0
    2858:	0c000000 	stceq	0, cr0, [r0], {-0}
    285c:	00646170 	rsbeq	r6, r4, r0, ror r1
    2860:	00742e01 	rsbseq	r2, r4, r1, lsl #28
    2864:	91fc0000 	mvnsls	r0, r0
    2868:	002c0000 	eoreq	r0, ip, r0
    286c:	9c010000 	stcls	0, cr0, [r1], {-0}
    2870:	00000130 	andeq	r0, r0, r0, lsr r1
    2874:	0100700b 	tsteq	r0, fp
    2878:	0000742e 	andeq	r7, r0, lr, lsr #8
    287c:	000c6a00 	andeq	r6, ip, r0, lsl #20
    2880:	07a50d00 	streq	r0, [r5, r0, lsl #26]!
    2884:	2e010000 	cdpcs	0, 0, cr0, cr1, cr0, {0}
    2888:	00000074 	andeq	r0, r0, r4, ror r0
    288c:	00000c95 	muleq	r0, r5, ip
    2890:	0005c90e 	andeq	ip, r5, lr, lsl #18
    2894:	252e0100 	strcs	r0, [lr, #-256]!	; 0x100
    2898:	01000000 	mrseq	r0, (UNDEF: 0)
    289c:	656c0f52 	strbvs	r0, [ip, #-3922]!	; 0xf52
    28a0:	2f01006e 	svccs	0x0001006e
    28a4:	00000025 	andeq	r0, r0, r5, lsr #32
    28a8:	0a005101 	beq	16cb4 <__bss_end__+0xc09c>
    28ac:	00000588 	andeq	r0, r0, r8, lsl #11
    28b0:	00743701 	rsbseq	r3, r4, r1, lsl #14
    28b4:	92280000 	eorls	r0, r8, #0
    28b8:	00400000 	subeq	r0, r0, r0
    28bc:	9c010000 	stcls	0, cr0, [r1], {-0}
    28c0:	0000019c 	muleq	r0, ip, r1
    28c4:	7473640b 	ldrbtvc	r6, [r3], #-1035	; 0x40b
    28c8:	74370100 	ldrtvc	r0, [r7], #-256	; 0x100
    28cc:	b6000000 	strlt	r0, [r0], -r0
    28d0:	0b00000c 	bleq	2908 <__code_start__-0x56f8>
    28d4:	3701006e 	strcc	r0, [r1, -lr, rrx]
    28d8:	00000025 	andeq	r0, r0, r5, lsr #32
    28dc:	00000cee 	andeq	r0, r0, lr, ror #25
    28e0:	0100700b 	tsteq	r0, fp
    28e4:	00007437 	andeq	r7, r0, r7, lsr r4
    28e8:	000d0f00 	andeq	r0, sp, r0, lsl #30
    28ec:	0d600d00 	stcleq	13, cr0, [r0, #-0]
    28f0:	37010000 	strcc	r0, [r1, -r0]
    28f4:	00000074 	andeq	r0, r0, r4, ror r0
    28f8:	00000d45 	andeq	r0, r0, r5, asr #26
    28fc:	6e656c10 	mcrvs	12, 3, r6, cr5, cr0, {0}
    2900:	25390100 	ldrcs	r0, [r9, #-256]!	; 0x100
    2904:	63000000 	movwvs	r0, #0
    2908:	0f00000d 	svceq	0x0000000d
    290c:	3d010073 	stccc	0, cr0, [r1, #-460]	; 0xfffffe34
    2910:	00000074 	andeq	r0, r0, r4, ror r0
    2914:	0a005001 	beq	16920 <__bss_end__+0xbd08>
    2918:	000005d7 	ldrdeq	r0, [r0], -r7
    291c:	00744701 	rsbseq	r4, r4, r1, lsl #14
    2920:	92680000 	rsbls	r0, r8, #0
    2924:	01b00000 	movseq	r0, r0
    2928:	9c010000 	stcls	0, cr0, [r1], {-0}
    292c:	000002d3 	ldrdeq	r0, [r0], -r3
    2930:	0007a50d 	andeq	sl, r7, sp, lsl #10
    2934:	2c470100 	stfcse	f0, [r7], {-0}
    2938:	8a000000 	bhi	2940 <__code_start__-0x56c0>
    293c:	0b00000d 	bleq	2978 <__code_start__-0x5688>
    2940:	00747364 	rsbseq	r7, r4, r4, ror #6
    2944:	00744701 	rsbseq	r4, r4, r1, lsl #14
    2948:	0db80000 	ldceq	0, cr0, [r8]
    294c:	6e0b0000 	cdpvs	0, 0, cr0, cr11, cr0, {0}
    2950:	25470100 	strbcs	r0, [r7, #-256]	; 0x100
    2954:	26000000 	strcs	r0, [r0], -r0
    2958:	0b00000e 	bleq	2998 <__code_start__-0x5668>
    295c:	006c6176 	rsbeq	r6, ip, r6, ror r1
    2960:	00254701 	eoreq	r4, r5, r1, lsl #14
    2964:	0e520000 	cdpeq	0, 5, cr0, cr2, cr0, {0}
    2968:	c90d0000 	stmdbgt	sp, {}	; <UNPREDICTABLE>
    296c:	01000005 	tsteq	r0, r5
    2970:	00002547 	andeq	r2, r0, r7, asr #10
    2974:	000ed100 	andeq	sp, lr, r0, lsl #2
    2978:	05a00e00 	streq	r0, [r0, #3584]!	; 0xe00
    297c:	47010000 	strmi	r0, [r1, -r0]
    2980:	00000025 	andeq	r0, r0, r5, lsr #32
    2984:	0f049102 	svceq	0x00049102
    2988:	00667562 	rsbeq	r7, r6, r2, ror #10
    298c:	02d34c01 	sbcseq	r4, r3, #256	; 0x100
    2990:	91030000 	mrsls	r0, (UNDEF: 3)
    2994:	70107fa8 	andsvc	r7, r0, r8, lsr #31
    2998:	744c0100 	strbvc	r0, [ip], #-256	; 0x100
    299c:	fb000000 	blx	29a6 <__code_start__-0x565a>
    29a0:	1000000e 	andne	r0, r0, lr
    29a4:	4d010075 	stcmi	0, cr0, [r1, #-468]	; 0xfffffe2c
    29a8:	0000002c 	andeq	r0, r0, ip, lsr #32
    29ac:	00000fc3 	andeq	r0, r0, r3, asr #31
    29b0:	00012711 	andeq	r2, r1, r1, lsl r7
    29b4:	0002f300 	andeq	pc, r2, r0, lsl #6
    29b8:	b8030500 	stmdalt	r3, {r8, sl}
    29bc:	120000a5 	andne	r0, r0, #165	; 0xa5
    29c0:	000092d4 	ldrdeq	r9, [r0], -r4
    29c4:	00000074 	andeq	r0, r0, r4, ror r0
    29c8:	00000261 	andeq	r0, r0, r1, ror #4
    29cc:	00058213 	andeq	r8, r5, r3, lsl r2
    29d0:	2c520100 	ldfcse	f0, [r2], {-0}
    29d4:	86000000 	strhi	r0, [r0], -r0
    29d8:	00000010 	andeq	r0, r0, r0, lsl r0
    29dc:	0093c014 	addseq	ip, r3, r4, lsl r0
    29e0:	00066000 	andeq	r6, r6, r0
    29e4:	93d41500 	bicsls	r1, r4, #0, 10
    29e8:	06670000 	strbteq	r0, [r7], -r0
    29ec:	02990000 	addseq	r0, r9, #0
    29f0:	01160000 	tsteq	r6, r0
    29f4:	77080253 	smlsdvc	r8, r3, r2, r0
    29f8:	05520116 	ldrbeq	r0, [r2, #-278]	; 0x116
    29fc:	00a5b803 	adceq	fp, r5, r3, lsl #16
    2a00:	51011600 	tstpl	r1, r0, lsl #12
    2a04:	a5f00305 	ldrbge	r0, [r0, #773]!	; 0x305
    2a08:	01160000 	tsteq	r6, r0
    2a0c:	dc030550 	cfstr32le	mvfx0, [r3], {80}	; 0x50
    2a10:	000000a5 	andeq	r0, r0, r5, lsr #1
    2a14:	0093d814 	addseq	sp, r3, r4, lsl r8
    2a18:	00067d00 	andeq	r7, r6, r0, lsl #26
    2a1c:	93e01500 	mvnls	r1, #0, 10
    2a20:	00e00000 	rsceq	r0, r0, r0
    2a24:	02b60000 	adcseq	r0, r6, #0
    2a28:	01160000 	tsteq	r6, r0
    2a2c:	007d0251 	rsbseq	r0, sp, r1, asr r2
    2a30:	93f41700 	mvnsls	r1, #0, 14
    2a34:	01300000 	teqeq	r0, r0
    2a38:	01160000 	tsteq	r6, r0
    2a3c:	007d0253 	rsbseq	r0, sp, r3, asr r2
    2a40:	02510116 	subseq	r0, r1, #-2147483643	; 0x80000005
    2a44:	01160074 	tsteq	r6, r4, ror r0
    2a48:	00750250 	rsbseq	r0, r5, r0, asr r2
    2a4c:	7a180000 	bvc	602a54 <__bss_end__+0x5f7e3c>
    2a50:	e3000000 	movw	r0, #0
    2a54:	19000002 	stmdbne	r0, {r1}
    2a58:	0000006b 	andeq	r0, r0, fp, rrx
    2a5c:	7a18003f 	bvc	602b60 <__bss_end__+0x5f7f48>
    2a60:	f3000000 	vhadd.u8	d0, d0, d0
    2a64:	19000002 	stmdbne	r0, {r1}
    2a68:	0000006b 	andeq	r0, r0, fp, rrx
    2a6c:	e3060004 	movw	r0, #24580	; 0x6004
    2a70:	1a000002 	bne	2a80 <__code_start__-0x5580>
    2a74:	000005ba 			; <UNDEFINED> instruction: 0x000005ba
    2a78:	94181f01 	ldrls	r1, [r8], #-3841	; 0xf01
    2a7c:	00540000 	subseq	r0, r4, r0
    2a80:	9c010000 	stcls	0, cr0, [r1], {-0}
    2a84:	0000037c 	andeq	r0, r0, ip, ror r3
    2a88:	0005cf0d 	andeq	ip, r5, sp, lsl #30
    2a8c:	8b1f0100 	blhi	7c2e94 <__bss_end__+0x7b827c>
    2a90:	b2000003 	andlt	r0, r0, #3
    2a94:	0d000010 	stceq	0, cr0, [r0, #-64]	; 0xffffffc0
    2a98:	00000598 	muleq	r0, r8, r5
    2a9c:	03a01f01 	moveq	r1, #1, 30
    2aa0:	10de0000 	sbcsne	r0, lr, r0
    2aa4:	27110000 	ldrcs	r0, [r1, -r0]
    2aa8:	b6000001 	strlt	r0, [r0], -r1
    2aac:	05000003 	streq	r0, [r0, #-3]
    2ab0:	00a5c003 	adceq	ip, r5, r3
    2ab4:	94281400 	strtls	r1, [r8], #-1024	; 0x400
    2ab8:	06600000 	strbteq	r0, [r0], -r0
    2abc:	3c150000 	ldccc	0, cr0, [r5], {-0}
    2ac0:	67000094 			; <UNDEFINED> instruction: 0x67000094
    2ac4:	72000006 	andvc	r0, r0, #6
    2ac8:	16000003 	strne	r0, [r0], -r3
    2acc:	08025301 	stmdaeq	r2, {r0, r8, r9, ip, lr}
    2ad0:	52011620 	andpl	r1, r1, #32, 12	; 0x2000000
    2ad4:	a5c00305 	strbge	r0, [r0, #773]	; 0x305
    2ad8:	01160000 	tsteq	r6, r0
    2adc:	f0030551 			; <UNDEFINED> instruction: 0xf0030551
    2ae0:	160000a5 	strne	r0, [r0], -r5, lsr #1
    2ae4:	03055001 	movweq	r5, #20481	; 0x5001
    2ae8:	0000a628 	andeq	sl, r0, r8, lsr #12
    2aec:	94401400 	strbls	r1, [r0], #-1024	; 0x400
    2af0:	067d0000 	ldrbteq	r0, [sp], -r0
    2af4:	1b000000 	blne	2afc <__code_start__-0x5504>
    2af8:	00000025 	andeq	r0, r0, r5, lsr #32
    2afc:	0000038b 	andeq	r0, r0, fp, lsl #7
    2b00:	0000251c 	andeq	r2, r0, ip, lsl r5
    2b04:	04050000 	streq	r0, [r5], #-0
    2b08:	0000037c 	andeq	r0, r0, ip, ror r3
    2b0c:	0000251b 	andeq	r2, r0, fp, lsl r5
    2b10:	0003a000 	andeq	sl, r3, r0
    2b14:	00811c00 	addeq	r1, r1, r0, lsl #24
    2b18:	05000000 	streq	r0, [r0, #-0]
    2b1c:	00039104 	andeq	r9, r3, r4, lsl #2
    2b20:	007a1800 	rsbseq	r1, sl, r0, lsl #16
    2b24:	03b60000 			; <UNDEFINED> instruction: 0x03b60000
    2b28:	6b190000 	blvs	642b30 <__bss_end__+0x637f18>
    2b2c:	0e000000 	cdpeq	0, 0, cr0, cr0, cr0, {0}
    2b30:	03a60600 			; <UNDEFINED> instruction: 0x03a60600
    2b34:	0c1d0000 	ldceq	0, cr0, [sp], {-0}
    2b38:	01000005 	tsteq	r0, r5
    2b3c:	0000257f 	andeq	r2, r0, pc, ror r5
    2b40:	00946c00 	addseq	r6, r4, r0, lsl #24
    2b44:	00028800 	andeq	r8, r2, r0, lsl #16
    2b48:	259c0100 	ldrcs	r0, [ip, #256]	; 0x100
    2b4c:	0b000006 	bleq	2b6c <__code_start__-0x5494>
    2b50:	00667562 	rsbeq	r7, r6, r2, ror #10
    2b54:	00747f01 	rsbseq	r7, r4, r1, lsl #30
    2b58:	110a0000 	mrsne	r0, (UNDEF: 10)
    2b5c:	6e0b0000 	cdpvs	0, 0, cr0, cr11, cr0, {0}
    2b60:	257f0100 	ldrbcs	r0, [pc, #-256]!	; 2a68 <__code_start__-0x5598>
    2b64:	36000000 	strcc	r0, [r0], -r0
    2b68:	0b000011 	bleq	2bb4 <__code_start__-0x544c>
    2b6c:	00746d66 	rsbseq	r6, r4, r6, ror #26
    2b70:	00817f01 	addeq	r7, r1, r1, lsl #30
    2b74:	11640000 	cmnne	r4, r0
    2b78:	c70d0000 	strgt	r0, [sp, -r0]
    2b7c:	01000007 	tsteq	r0, r7
    2b80:	0000ae7f 	andeq	sl, r0, pc, ror lr
    2b84:	00119800 	andseq	r9, r1, r0, lsl #16
    2b88:	00701000 	rsbseq	r1, r0, r0
    2b8c:	00748001 	rsbseq	r8, r4, r1
    2b90:	11ab0000 			; <UNDEFINED> instruction: 0x11ab0000
    2b94:	65100000 	ldrvs	r0, [r0, #-0]
    2b98:	74800100 	strvc	r0, [r0], #256	; 0x100
    2b9c:	29000000 	stmdbcs	r0, {}	; <UNPREDICTABLE>
    2ba0:	11000012 	tstne	r0, r2, lsl r0
    2ba4:	00000127 	andeq	r0, r0, r7, lsr #2
    2ba8:	00000635 	andeq	r0, r0, r5, lsr r6
    2bac:	a5d00305 	ldrbge	r0, [r0, #773]	; 0x305
    2bb0:	481e0000 	ldmdami	lr, {}	; <UNPREDICTABLE>
    2bb4:	10000000 	andne	r0, r0, r0
    2bb8:	8d010073 	stchi	0, cr0, [r1, #-460]	; 0xfffffe34
    2bbc:	00000074 	andeq	r0, r0, r4, ror r0
    2bc0:	00001250 	andeq	r1, r0, r0, asr r2
    2bc4:	6d756e0f 	ldclvs	14, cr6, [r5, #-60]!	; 0xffffffc4
    2bc8:	3a8d0100 	bcc	fe342fd0 <__bss_end__+0xfe3383b8>
    2bcc:	03000006 	movweq	r0, #6
    2bd0:	137ed891 	cmnne	lr, #9502720	; 0x910000
    2bd4:	000005c9 	andeq	r0, r0, r9, asr #11
    2bd8:	002c8e01 	eoreq	r8, ip, r1, lsl #28
    2bdc:	12a50000 	adcne	r0, r5, #0
    2be0:	f0150000 			; <UNDEFINED> instruction: 0xf0150000
    2be4:	b9000094 	stmdblt	r0, {r2, r4, r7}
    2be8:	7b000000 	blvc	2bf0 <__code_start__-0x5410>
    2bec:	16000004 	strne	r0, [r0], -r4
    2bf0:	75025001 	strvc	r5, [r2, #-1]
    2bf4:	04140000 	ldreq	r0, [r4], #-0
    2bf8:	60000095 	mulvs	r0, r5, r0
    2bfc:	15000006 	strne	r0, [r0, #-6]
    2c00:	00009518 	andeq	r9, r0, r8, lsl r5
    2c04:	00000667 	andeq	r0, r0, r7, ror #12
    2c08:	000004b3 			; <UNDEFINED> instruction: 0x000004b3
    2c0c:	02530116 	subseq	r0, r3, #-2147483643	; 0x80000005
    2c10:	01169408 	tsteq	r6, r8, lsl #8
    2c14:	d0030552 	andle	r0, r3, r2, asr r5
    2c18:	160000a5 	strne	r0, [r0], -r5, lsr #1
    2c1c:	03055101 	movweq	r5, #20737	; 0x5101
    2c20:	0000a5f0 	strdeq	sl, [r0], -r0
    2c24:	05500116 	ldrbeq	r0, [r0, #-278]	; 0x116
    2c28:	00a64003 	adceq	r4, r6, r3
    2c2c:	1c140000 	ldcne	0, cr0, [r4], {-0}
    2c30:	7d000095 	stcvc	0, cr0, [r0, #-596]	; 0xfffffdac
    2c34:	14000006 	strne	r0, [r0], #-6
    2c38:	0000958c 	andeq	r9, r0, ip, lsl #11
    2c3c:	00000660 	andeq	r0, r0, r0, ror #12
    2c40:	0095a015 	addseq	sl, r5, r5, lsl r0
    2c44:	00066700 	andeq	r6, r6, r0, lsl #14
    2c48:	0004f400 	andeq	pc, r4, r0, lsl #8
    2c4c:	53011600 	movwpl	r1, #5632	; 0x1600
    2c50:	169a0802 	ldrne	r0, [sl], r2, lsl #16
    2c54:	03055201 	movweq	r5, #20993	; 0x5201
    2c58:	0000a5d0 	ldrdeq	sl, [r0], -r0
    2c5c:	05510116 	ldrbeq	r0, [r1, #-278]	; 0x116
    2c60:	00a5f003 	adceq	pc, r5, r3
    2c64:	50011600 	andpl	r1, r1, r0, lsl #12
    2c68:	a65c0305 	ldrbge	r0, [ip], -r5, lsl #6
    2c6c:	14000000 	strne	r0, [r0], #-0
    2c70:	000095a4 	andeq	r9, r0, r4, lsr #11
    2c74:	0000067d 	andeq	r0, r0, sp, ror r6
    2c78:	0095c815 	addseq	ip, r5, r5, lsl r8
    2c7c:	00019c00 	andeq	r9, r1, r0, lsl #24
    2c80:	00052a00 	andeq	r2, r5, r0, lsl #20
    2c84:	52011600 	andpl	r1, r1, #0, 12
    2c88:	16800802 	strne	r0, [r0], r2, lsl #16
    2c8c:	91035101 	tstls	r3, r1, lsl #2
    2c90:	01167ed0 			; <UNDEFINED> instruction: 0x01167ed0
    2c94:	163a0150 			; <UNDEFINED> instruction: 0x163a0150
    2c98:	01047d02 	tsteq	r4, r2, lsl #26
    2c9c:	7d021631 	stcvc	6, cr1, [r2, #-196]	; 0xffffff3c
    2ca0:	00770200 	rsbseq	r0, r7, r0, lsl #4
    2ca4:	95ec1500 	strbls	r1, [ip, #1280]!	; 0x500
    2ca8:	019c0000 	orrseq	r0, ip, r0
    2cac:	05580000 	ldrbeq	r0, [r8, #-0]
    2cb0:	01160000 	tsteq	r6, r0
    2cb4:	80080252 	andhi	r0, r8, r2, asr r2
    2cb8:	03510116 	cmpeq	r1, #-2147483643	; 0x80000005
    2cbc:	167ed091 			; <UNDEFINED> instruction: 0x167ed091
    2cc0:	3a015001 	bcc	56ccc <__bss_end__+0x4c0b4>
    2cc4:	047d0216 	ldrbteq	r0, [sp], #-534	; 0x216
    2cc8:	16007b02 	strne	r7, [r0], -r2, lsl #22
    2ccc:	02007d02 	andeq	r7, r0, #2, 26	; 0x80
    2cd0:	15000077 	strne	r0, [r0, #-119]	; 0x77
    2cd4:	00009610 	andeq	r9, r0, r0, lsl r6
    2cd8:	0000019c 	muleq	r0, ip, r1
    2cdc:	00000586 	andeq	r0, r0, r6, lsl #11
    2ce0:	02520116 	subseq	r0, r2, #-2147483643	; 0x80000005
    2ce4:	01168008 	tsteq	r6, r8
    2ce8:	d0910351 	addsle	r0, r1, r1, asr r3
    2cec:	5001167e 	andpl	r1, r1, lr, ror r6
    2cf0:	02164001 	andseq	r4, r6, #1
    2cf4:	7b02047d 	blvc	83ef0 <__bss_end__+0x792d8>
    2cf8:	7d021600 	stcvc	6, cr1, [r2, #-0]
    2cfc:	00770200 	rsbseq	r0, r7, r0, lsl #4
    2d00:	96341500 	ldrtls	r1, [r4], -r0, lsl #10
    2d04:	019c0000 	orrseq	r0, ip, r0
    2d08:	05b40000 	ldreq	r0, [r4, #0]!
    2d0c:	01160000 	tsteq	r6, r0
    2d10:	80080252 	andhi	r0, r8, r2, asr r2
    2d14:	03510116 	cmpeq	r1, #-2147483643	; 0x80000005
    2d18:	167ed091 			; <UNDEFINED> instruction: 0x167ed091
    2d1c:	32015001 	andcc	r5, r1, #1
    2d20:	047d0216 	ldrbteq	r0, [sp], #-534	; 0x216
    2d24:	16007b02 	strne	r7, [r0], -r2, lsl #22
    2d28:	02007d02 	andeq	r7, r0, #2, 26	; 0x80
    2d2c:	15000077 	strne	r0, [r0, #-119]	; 0x77
    2d30:	00009664 	andeq	r9, r0, r4, ror #12
    2d34:	0000019c 	muleq	r0, ip, r1
    2d38:	000005e2 	andeq	r0, r0, r2, ror #11
    2d3c:	02520116 	subseq	r0, r2, #-2147483643	; 0x80000005
    2d40:	01168008 	tsteq	r6, r8
    2d44:	d0910351 	addsle	r0, r1, r1, asr r3
    2d48:	5001167e 	andpl	r1, r1, lr, ror r6
    2d4c:	02163801 	andseq	r3, r6, #65536	; 0x10000
    2d50:	7b02047d 	blvc	83f4c <__bss_end__+0x79334>
    2d54:	7d021600 	stcvc	6, cr1, [r2, #-0]
    2d58:	00770200 	rsbseq	r0, r7, r0, lsl #4
    2d5c:	966c1400 	strbtls	r1, [ip], -r0, lsl #8
    2d60:	06600000 	strbteq	r0, [r0], -r0
    2d64:	88150000 	ldmdahi	r5, {}	; <UNPREDICTABLE>
    2d68:	67000096 			; <UNDEFINED> instruction: 0x67000096
    2d6c:	1a000006 	bne	2d8c <__code_start__-0x5274>
    2d70:	16000006 	strne	r0, [r0], -r6
    2d74:	08025301 	stmdaeq	r2, {r0, r8, r9, ip, lr}
    2d78:	520116bb 	andpl	r1, r1, #196083712	; 0xbb00000
    2d7c:	a5d00305 	ldrbge	r0, [r0, #773]	; 0x305
    2d80:	01160000 	tsteq	r6, r0
    2d84:	f0030551 			; <UNDEFINED> instruction: 0xf0030551
    2d88:	160000a5 	strne	r0, [r0], -r5, lsr #1
    2d8c:	03055001 	movweq	r5, #20481	; 0x5001
    2d90:	0000a684 	andeq	sl, r0, r4, lsl #13
    2d94:	968c1400 	strls	r1, [ip], r0, lsl #8
    2d98:	067d0000 	ldrbteq	r0, [sp], -r0
    2d9c:	00000000 	andeq	r0, r0, r0
    2da0:	00007a18 	andeq	r7, r0, r8, lsl sl
    2da4:	00063500 	andeq	r3, r6, r0, lsl #10
    2da8:	006b1900 	rsbeq	r1, fp, r0, lsl #18
    2dac:	00090000 	andeq	r0, r9, r0
    2db0:	00062506 	andeq	r2, r6, r6, lsl #10
    2db4:	007a1800 	rsbseq	r1, sl, r0, lsl #16
    2db8:	064a0000 	strbeq	r0, [sl], -r0
    2dbc:	6b190000 	blvs	642dc4 <__bss_end__+0x6381ac>
    2dc0:	7f000000 	svcvc	0x00000000
    2dc4:	05401f00 	strbeq	r1, [r0, #-3840]	; 0xf00
    2dc8:	1d030000 	stcne	0, cr0, [r3, #-0]
    2dcc:	0000038b 	andeq	r0, r0, fp, lsl #7
    2dd0:	00057d1f 	andeq	r7, r5, pc, lsl sp
    2dd4:	a0220300 	eorge	r0, r2, r0, lsl #6
    2dd8:	20000003 	andcs	r0, r0, r3
    2ddc:	00000111 	andeq	r0, r0, r1, lsl r1
    2de0:	0f211e03 	svceq	0x00211e03
    2de4:	03000005 	movweq	r0, #5
    2de8:	00002529 	andeq	r2, r0, r9, lsr #10
    2dec:	00067d00 	andeq	r7, r6, r0, lsl #26
    2df0:	00811c00 	addeq	r1, r1, r0, lsl #24
    2df4:	00220000 	eoreq	r0, r2, r0
    2df8:	0000e920 	andeq	lr, r0, r0, lsr #18
    2dfc:	00650300 	rsbeq	r0, r5, r0, lsl #6
    2e00:	000000ff 	strdeq	r0, [r0], -pc	; <UNPREDICTABLE>
    2e04:	0c2a0004 	stceq	0, cr0, [sl], #-16
    2e08:	01040000 	mrseq	r0, (UNDEF: 4)
    2e0c:	00000007 	andeq	r0, r0, r7
    2e10:	0005dc01 	andeq	sp, r5, r1, lsl #24
    2e14:	00049b00 	andeq	r9, r4, r0, lsl #22
    2e18:	0096f400 	addseq	pc, r6, r0, lsl #8
    2e1c:	00002800 	andeq	r2, r0, r0, lsl #16
    2e20:	000c8700 	andeq	r8, ip, r0, lsl #14
    2e24:	05040200 	streq	r0, [r4, #-512]	; 0x200
    2e28:	00746e69 	rsbseq	r6, r4, r9, ror #28
    2e2c:	5a070403 	bpl	1c3e40 <__bss_end__+0x1b9228>
    2e30:	03000001 	movweq	r0, #1
    2e34:	00dd0601 	sbcseq	r0, sp, r1, lsl #12
    2e38:	02030000 	andeq	r0, r3, #0
    2e3c:	00018505 	andeq	r8, r1, r5, lsl #10
    2e40:	05040300 	streq	r0, [r4, #-768]	; 0x300
    2e44:	00000175 	andeq	r0, r0, r5, ror r1
    2e48:	70050803 	andvc	r0, r5, r3, lsl #16
    2e4c:	03000001 	movweq	r0, #1
    2e50:	00db0801 	sbcseq	r0, fp, r1, lsl #16
    2e54:	02030000 	andeq	r0, r3, #0
    2e58:	0000f607 	andeq	pc, r0, r7, lsl #12
    2e5c:	07040300 	streq	r0, [r4, -r0, lsl #6]
    2e60:	00000155 	andeq	r0, r0, r5, asr r1
    2e64:	50070803 	andpl	r0, r7, r3, lsl #16
    2e68:	03000001 	movweq	r0, #1
    2e6c:	01670704 	cmneq	r7, r4, lsl #14
    2e70:	01030000 	mrseq	r0, (UNDEF: 3)
    2e74:	0000e408 	andeq	lr, r0, r8, lsl #8
    2e78:	7f040400 	svcvc	0x00040400
    2e7c:	05000000 	streq	r0, [r0, #-0]
    2e80:	00000072 	andeq	r0, r0, r2, ror r0
    2e84:	0000e906 	andeq	lr, r0, r6, lsl #18
    2e88:	f4040100 	vst4.8	{d0,d2,d4,d6}, [r4], r0
    2e8c:	28000096 	stmdacs	r0, {r1, r2, r4, r7}
    2e90:	01000000 	mrseq	r0, (UNDEF: 0)
    2e94:	0000ca9c 	muleq	r0, ip, sl
    2e98:	97080700 	strls	r0, [r8, -r0, lsl #14]
    2e9c:	00ac0000 	adceq	r0, ip, r0
    2ea0:	01080000 	mrseq	r0, (UNDEF: 8)
    2ea4:	bc030550 	cfstr32lt	mvfx0, [r3], {80}	; 0x50
    2ea8:	000000a6 	andeq	r0, r0, r6, lsr #1
    2eac:	00971009 	addseq	r1, r7, r9
    2eb0:	0000ea00 	andeq	lr, r0, r0, lsl #20
    2eb4:	0000c000 	andeq	ip, r0, r0
    2eb8:	50010800 	andpl	r0, r1, r0, lsl #16
    2ebc:	00640802 	rsbeq	r0, r4, r2, lsl #16
    2ec0:	0097140a 	addseq	r1, r7, sl, lsl #8
    2ec4:	0000fb00 	andeq	pc, r0, r0, lsl #22
    2ec8:	250b0000 	strcs	r0, [fp, #-0]
    2ecc:	d9000000 	stmdble	r0, {}	; <UNPREDICTABLE>
    2ed0:	0c000000 	stceq	0, cr0, [r0], {-0}
    2ed4:	00000079 	andeq	r0, r0, r9, ror r0
    2ed8:	057d0d00 	ldrbeq	r0, [sp, #-3328]!	; 0xd00
    2edc:	22020000 	andcs	r0, r2, #0
    2ee0:	000000e4 	andeq	r0, r0, r4, ror #1
    2ee4:	00ca0404 	sbceq	r0, sl, r4, lsl #8
    2ee8:	000e0000 	andeq	r0, lr, r0
    2eec:	02000006 	andeq	r0, r0, #6
    2ef0:	0000fb4f 	andeq	pc, r0, pc, asr #22
    2ef4:	002c0c00 	eoreq	r0, ip, r0, lsl #24
    2ef8:	0f000000 	svceq	0x00000000
    2efc:	000005f5 	strdeq	r0, [r0], -r5
    2f00:	ff006202 			; <UNDEFINED> instruction: 0xff006202
    2f04:	04000000 	streq	r0, [r0], #-0
    2f08:	000cf400 	andeq	pc, ip, r0, lsl #8
    2f0c:	07010400 	streq	r0, [r1, -r0, lsl #8]
    2f10:	01000000 	mrseq	r0, (UNDEF: 0)
    2f14:	00000619 	andeq	r0, r0, r9, lsl r6
    2f18:	0000049b 	muleq	r0, fp, r4
    2f1c:	0000971c 	andeq	r9, r0, ip, lsl r7
    2f20:	00000034 	andeq	r0, r0, r4, lsr r0
    2f24:	00000d27 	andeq	r0, r0, r7, lsr #26
    2f28:	69050402 	stmdbvs	r5, {r1, sl}
    2f2c:	0300746e 	movweq	r7, #1134	; 0x46e
    2f30:	015a0704 	cmpeq	sl, r4, lsl #14
    2f34:	01030000 	mrseq	r0, (UNDEF: 3)
    2f38:	0000dd06 	andeq	sp, r0, r6, lsl #26
    2f3c:	05020300 	streq	r0, [r2, #-768]	; 0x300
    2f40:	00000185 	andeq	r0, r0, r5, lsl #3
    2f44:	75050403 	strvc	r0, [r5, #-1027]	; 0x403
    2f48:	03000001 	movweq	r0, #1
    2f4c:	01700508 	cmneq	r0, r8, lsl #10
    2f50:	01030000 	mrseq	r0, (UNDEF: 3)
    2f54:	0000db08 	andeq	sp, r0, r8, lsl #22
    2f58:	07020300 	streq	r0, [r2, -r0, lsl #6]
    2f5c:	000000f6 	strdeq	r0, [r0], -r6
    2f60:	55070403 	strpl	r0, [r7, #-1027]	; 0x403
    2f64:	03000001 	movweq	r0, #1
    2f68:	01500708 	cmpeq	r0, r8, lsl #14
    2f6c:	04030000 	streq	r0, [r3], #-0
    2f70:	00016707 	andeq	r6, r1, r7, lsl #14
    2f74:	08010300 	stmdaeq	r1, {r8, r9}
    2f78:	000000e4 	andeq	r0, r0, r4, ror #1
    2f7c:	00061104 	andeq	r1, r6, r4, lsl #2
    2f80:	1c0d0100 	stfnes	f0, [sp], {-0}
    2f84:	34000097 	strcc	r0, [r0], #-151	; 0x97
    2f88:	01000000 	mrseq	r0, (UNDEF: 0)
    2f8c:	0000d89c 	muleq	r0, ip, r8
    2f90:	03fe0500 	mvnseq	r0, #0, 10
    2f94:	0e010000 	cdpeq	0, 0, cr0, cr1, cr0, {0}
    2f98:	00000025 	andeq	r0, r0, r5, lsr #32
    2f9c:	00040c05 	andeq	r0, r4, r5, lsl #24
    2fa0:	250e0100 	strcs	r0, [lr, #-256]	; 0x100
    2fa4:	06000000 	streq	r0, [r0], -r0
    2fa8:	000000c4 	andeq	r0, r0, r4, asr #1
    2fac:	62070f01 	andvs	r0, r7, #1, 30
    2fb0:	01007373 	tsteq	r0, r3, ror r3
    2fb4:	0000d811 	andeq	sp, r0, r1, lsl r8
    2fb8:	0012cf00 	andseq	ip, r2, r0, lsl #30
    2fbc:	06090800 	streq	r0, [r9], -r0, lsl #16
    2fc0:	12010000 	andne	r0, r1, #0
    2fc4:	000000d8 	ldrdeq	r0, [r0], -r8
    2fc8:	00974409 	addseq	r4, r7, r9, lsl #8
    2fcc:	0000f400 	andeq	pc, r0, r0, lsl #8
    2fd0:	97480900 	strbls	r0, [r8, -r0, lsl #18]
    2fd4:	00fb0000 	rscseq	r0, fp, r0
    2fd8:	0a000000 	beq	2fe0 <__code_start__-0x5020>
    2fdc:	00002504 	andeq	r2, r0, r4, lsl #10
    2fe0:	03fe0500 	mvnseq	r0, #0, 10
    2fe4:	0e010000 	cdpeq	0, 0, cr0, cr1, cr0, {0}
    2fe8:	00000025 	andeq	r0, r0, r5, lsr #32
    2fec:	00040c05 	andeq	r0, r4, r5, lsl #24
    2ff0:	250e0100 	strcs	r0, [lr, #-256]	; 0x100
    2ff4:	06000000 	streq	r0, [r0], -r0
    2ff8:	000000c4 	andeq	r0, r0, r4, asr #1
    2ffc:	e906d702 	stmdb	r6, {r1, r8, r9, sl, ip, lr, pc}
    3000:	02000000 	andeq	r0, r0, #0
    3004:	01ad0065 			; <UNDEFINED> instruction: 0x01ad0065
    3008:	00040000 	andeq	r0, r4, r0
    300c:	00000d88 	andeq	r0, r0, r8, lsl #27
    3010:	00070104 	andeq	r0, r7, r4, lsl #2
    3014:	3a010000 	bcc	4301c <__bss_end__+0x38404>
    3018:	9b000006 	blls	3038 <__code_start__-0x4fc8>
    301c:	60000004 	andvs	r0, r0, r4
    3020:	00000000 	andeq	r0, r0, r0
    3024:	ce000000 	cdpgt	0, 0, cr0, cr0, cr0, {0}
    3028:	0200000d 	andeq	r0, r0, #13
    302c:	6e690504 	cdpvs	5, 6, cr0, cr9, cr4, {0}
    3030:	04030074 	streq	r0, [r3], #-116	; 0x74
    3034:	00015a07 	andeq	r5, r1, r7, lsl #20
    3038:	06010300 	streq	r0, [r1], -r0, lsl #6
    303c:	000000dd 	ldrdeq	r0, [r0], -sp
    3040:	85050203 	strhi	r0, [r5, #-515]	; 0x203
    3044:	03000001 	movweq	r0, #1
    3048:	01750504 	cmneq	r5, r4, lsl #10
    304c:	08030000 	stmdaeq	r3, {}	; <UNPREDICTABLE>
    3050:	00017005 	andeq	r7, r1, r5
    3054:	08010300 	stmdaeq	r1, {r8, r9}
    3058:	000000db 	ldrdeq	r0, [r0], -fp
    305c:	f6070203 			; <UNDEFINED> instruction: 0xf6070203
    3060:	03000000 	movweq	r0, #0
    3064:	01550704 	cmpeq	r5, r4, lsl #14
    3068:	08030000 	stmdaeq	r3, {}	; <UNPREDICTABLE>
    306c:	00015007 	andeq	r5, r1, r7
    3070:	07040300 	streq	r0, [r4, -r0, lsl #6]
    3074:	00000167 	andeq	r0, r0, r7, ror #2
    3078:	e4080103 	str	r0, [r8], #-259	; 0x103
    307c:	04000000 	streq	r0, [r0], #-0
    3080:	0000062c 	andeq	r0, r0, ip, lsr #12
    3084:	00250e01 	eoreq	r0, r5, r1, lsl #28
    3088:	97500000 	ldrbls	r0, [r0, -r0]
    308c:	00180000 	andseq	r0, r8, r0
    3090:	9c010000 	stcls	0, cr0, [r1], {-0}
    3094:	000000a2 	andeq	r0, r0, r2, lsr #1
    3098:	00069705 	andeq	r9, r6, r5, lsl #14
    309c:	2c0f0100 	stfcss	f0, [pc], {-0}
    30a0:	ef000000 	svc	0x00000000
    30a4:	00000012 	andeq	r0, r0, r2, lsl r0
    30a8:	00066e06 	andeq	r6, r6, r6, lsl #28
    30ac:	68170100 	ldmdavs	r7, {r8}
    30b0:	14000097 	strne	r0, [r0], #-151	; 0x97
    30b4:	01000000 	mrseq	r0, (UNDEF: 0)
    30b8:	0000c79c 	muleq	r0, ip, r7
    30bc:	06970500 	ldreq	r0, [r7], r0, lsl #10
    30c0:	18010000 	stmdane	r1, {}	; <UNPREDICTABLE>
    30c4:	0000002c 	andeq	r0, r0, ip, lsr #32
    30c8:	0000130e 	andeq	r1, r0, lr, lsl #6
    30cc:	05f50600 	ldrbeq	r0, [r5, #1536]!	; 0x600
    30d0:	1f010000 	svcne	0x00010000
    30d4:	0000977c 	andeq	r9, r0, ip, ror r7
    30d8:	00000048 	andeq	r0, r0, r8, asr #32
    30dc:	01779c01 	cmneq	r7, r1, lsl #24
    30e0:	8f070000 	svchi	0x00070000
    30e4:	01000006 	tsteq	r0, r6
    30e8:	0001772a 	andeq	r7, r1, sl, lsr #14
    30ec:	10001c00 	andne	r1, r0, r0, lsl #24
    30f0:	06660720 	strbteq	r0, [r6], -r0, lsr #14
    30f4:	2b010000 	blcs	430fc <__bss_end__+0x384e4>
    30f8:	00000177 	andeq	r0, r0, r7, ror r1
    30fc:	20100024 	andscs	r0, r0, r4, lsr #32
    3100:	00068307 	andeq	r8, r6, r7, lsl #6
    3104:	772c0100 	strvc	r0, [ip, -r0, lsl #2]!
    3108:	00000001 	andeq	r0, r0, r1
    310c:	085a0000 	ldmdaeq	sl, {}^	; <UNPREDICTABLE>
    3110:	0000064d 	andeq	r0, r0, sp, asr #12
    3114:	01772d01 	cmneq	r7, r1, lsl #26
    3118:	09200000 	stmdbeq	r0!, {}	; <UNPREDICTABLE>
    311c:	00009784 	andeq	r9, r0, r4, lsl #15
    3120:	00000079 	andeq	r0, r0, r9, ror r0
    3124:	00979009 	addseq	r9, r7, r9
    3128:	0000a200 	andeq	sl, r0, r0, lsl #4
    312c:	97980a00 	ldrls	r0, [r8, r0, lsl #20]
    3130:	018d0000 	orreq	r0, sp, r0
    3134:	013a0000 	teqeq	sl, r0
    3138:	010b0000 	mrseq	r0, (UNDEF: 11)
    313c:	004e0150 	subeq	r0, lr, r0, asr r1
    3140:	0097a40a 	addseq	sl, r7, sl, lsl #8
    3144:	00019e00 	andeq	r9, r1, r0, lsl #28
    3148:	00015a00 	andeq	r5, r1, r0, lsl #20
    314c:	51010b00 	tstpl	r1, r0, lsl #22
    3150:	00010c05 	andeq	r0, r1, r5, lsl #24
    3154:	010b5a00 	tsteq	fp, r0, lsl #20
    3158:	240c0550 	strcs	r0, [ip], #-1360	; 0x550
    315c:	00201000 	eoreq	r1, r0, r0
    3160:	0097b00c 	addseq	fp, r7, ip
    3164:	00019e00 	andeq	r9, r1, r0, lsl #28
    3168:	51010b00 	tstpl	r1, r0, lsl #22
    316c:	00200c05 	eoreq	r0, r0, r5, lsl #24
    3170:	010b5a00 	tsteq	fp, r0, lsl #20
    3174:	1c0c0550 	cfstr32ne	mvfx0, [ip], {80}	; 0x50
    3178:	00201000 	eoreq	r1, r0, r0
    317c:	00250d00 	eoreq	r0, r5, r0, lsl #26
    3180:	2f080000 	svccs	0x00080000
    3184:	01000006 	tsteq	r0, r6
    3188:	0001880d 	andeq	r8, r1, sp, lsl #16
    318c:	2c0d1000 	stccs	0, cr1, [sp], {-0}
    3190:	0e000000 	cdpeq	0, 0, cr0, cr0, cr0, {0}
    3194:	00000600 	andeq	r0, r0, r0, lsl #12
    3198:	019e4f02 	orrseq	r4, lr, r2, lsl #30
    319c:	2c0f0000 	stccs	0, cr0, [pc], {-0}
    31a0:	00000000 	andeq	r0, r0, r0
    31a4:	00067d10 	andeq	r7, r6, r0, lsl sp
    31a8:	0f9b0200 	svceq	0x009b0200
    31ac:	0000002c 	andeq	r0, r0, ip, lsr #32
    31b0:	00002c0f 	andeq	r2, r0, pc, lsl #24
    31b4:	d8000000 	stmdale	r0, {}	; <UNPREDICTABLE>
    31b8:	04000001 	streq	r0, [r0], #-1
    31bc:	000e7600 	andeq	r7, lr, r0, lsl #12
    31c0:	07010400 	streq	r0, [r1, -r0, lsl #8]
    31c4:	01000000 	mrseq	r0, (UNDEF: 0)
    31c8:	000006b9 			; <UNDEFINED> instruction: 0x000006b9
    31cc:	0000049b 	muleq	r0, fp, r4
    31d0:	000097c4 	andeq	r9, r0, r4, asr #15
    31d4:	00000088 	andeq	r0, r0, r8, lsl #1
    31d8:	00000e74 	andeq	r0, r0, r4, ror lr
    31dc:	69050402 	stmdbvs	r5, {r1, sl}
    31e0:	0300746e 	movweq	r7, #1134	; 0x46e
    31e4:	015a0704 	cmpeq	sl, r4, lsl #14
    31e8:	01030000 	mrseq	r0, (UNDEF: 3)
    31ec:	0000dd06 	andeq	sp, r0, r6, lsl #26
    31f0:	05020300 	streq	r0, [r2, #-768]	; 0x300
    31f4:	00000185 	andeq	r0, r0, r5, lsl #3
    31f8:	75050403 	strvc	r0, [r5, #-1027]	; 0x403
    31fc:	03000001 	movweq	r0, #1
    3200:	01700508 	cmneq	r0, r8, lsl #10
    3204:	01030000 	mrseq	r0, (UNDEF: 3)
    3208:	0000db08 	andeq	sp, r0, r8, lsl #22
    320c:	07020300 	streq	r0, [r2, -r0, lsl #6]
    3210:	000000f6 	strdeq	r0, [r0], -r6
    3214:	55070403 	strpl	r0, [r7, #-1027]	; 0x403
    3218:	03000001 	movweq	r0, #1
    321c:	01500708 	cmpeq	r0, r8, lsl #14
    3220:	04030000 	streq	r0, [r3], #-0
    3224:	00016707 	andeq	r6, r1, r7, lsl #14
    3228:	08010300 	stmdaeq	r1, {r8, r9}
    322c:	000000e4 	andeq	r0, r0, r4, ror #1
    3230:	0006d704 	andeq	sp, r6, r4, lsl #14
    3234:	c4050100 	strgt	r0, [r5], #-256	; 0x100
    3238:	1c000097 	stcne	0, cr0, [r0], {151}	; 0x97
    323c:	01000000 	mrseq	r0, (UNDEF: 0)
    3240:	00009e9c 	muleq	r0, ip, lr
    3244:	06d10500 	ldrbeq	r0, [r1], r0, lsl #10
    3248:	05010000 	streq	r0, [r1, #-0]
    324c:	0000002c 	andeq	r0, r0, ip, lsr #32
    3250:	00001338 	andeq	r1, r0, r8, lsr r3
    3254:	069c0600 	ldreq	r0, [ip], r0, lsl #12
    3258:	11010000 	mrsne	r0, (UNDEF: 1)
    325c:	0000002c 	andeq	r0, r0, ip, lsr #32
    3260:	000097e0 	andeq	r9, r0, r0, ror #15
    3264:	00000014 	andeq	r0, r0, r4, lsl r0
    3268:	00cb9c01 	sbceq	r9, fp, r1, lsl #24
    326c:	ec070000 	stc	0, cr0, [r7], {-0}
    3270:	ca000097 	bgt	34d4 <__code_start__-0x4b2c>
    3274:	08000001 	stmdaeq	r0, {r0}
    3278:	0c055001 	stceq	0, cr5, [r5], {1}
    327c:	20003004 	andcs	r3, r0, r4
    3280:	ed060000 	stc	0, cr0, [r6, #-0]
    3284:	01000006 	tsteq	r0, r6
    3288:	00002c16 	andeq	r2, r0, r6, lsl ip
    328c:	0097f400 	addseq	pc, r7, r0, lsl #8
    3290:	00000c00 	andeq	r0, r0, r0, lsl #24
    3294:	f99c0100 			; <UNDEFINED> instruction: 0xf99c0100
    3298:	09000000 	stmdbeq	r0, {}	; <UNPREDICTABLE>
    329c:	1a010075 	bne	43478 <__bss_end__+0x38860>
    32a0:	0000002c 	andeq	r0, r0, ip, lsr #32
    32a4:	fc0a5001 	stc2	0, cr5, [sl], {1}
    32a8:	9e000097 	mcrls	0, 0, r0, cr0, cr7, {4}
    32ac:	00000000 	andeq	r0, r0, r0
    32b0:	0006e404 	andeq	lr, r6, r4, lsl #8
    32b4:	001f0100 	andseq	r0, pc, r0, lsl #2
    32b8:	24000098 	strcs	r0, [r0], #-152	; 0x98
    32bc:	01000000 	mrseq	r0, (UNDEF: 0)
    32c0:	0001579c 	muleq	r1, ip, r7
    32c4:	73750b00 	cmnvc	r5, #0, 22
    32c8:	2c1f0100 	ldfcss	f0, [pc], {-0}
    32cc:	6c000000 	stcvs	0, cr0, [r0], {-0}
    32d0:	09000013 	stmdbeq	r0, {r0, r1, r4}
    32d4:	01006272 	tsteq	r0, r2, ror r2
    32d8:	00002c20 	andeq	r2, r0, r0, lsr #24
    32dc:	0c540100 	ldfeqe	f0, [r4], {-0}
    32e0:	00009810 	andeq	r9, r0, r0, lsl r8
    32e4:	00000010 	andeq	r0, r0, r0, lsl r0
    32e8:	0000014d 	andeq	r0, r0, sp, asr #2
    32ec:	0061720d 	rsbeq	r7, r1, sp, lsl #4
    32f0:	002c2201 	eoreq	r2, ip, r1, lsl #4
    32f4:	138a0000 	orrne	r0, sl, #0
    32f8:	140a0000 	strne	r0, [sl], #-0
    32fc:	cb000098 	blgt	3564 <__code_start__-0x4a9c>
    3300:	00000000 	andeq	r0, r0, r0
    3304:	00980c0a 	addseq	r0, r8, sl, lsl #24
    3308:	0000cb00 	andeq	ip, r0, r0, lsl #22
    330c:	00040000 	andeq	r0, r4, r0
    3310:	01000006 	tsteq	r0, r6
    3314:	00982428 	addseq	r2, r8, r8, lsr #8
    3318:	00001400 	andeq	r1, r0, r0, lsl #8
    331c:	909c0100 	addsls	r0, ip, r0, lsl #2
    3320:	0b000001 	bleq	332c <__code_start__-0x4cd4>
    3324:	0100736d 	tsteq	r0, sp, ror #6
    3328:	00002c28 	andeq	r2, r0, r8, lsr #24
    332c:	00139d00 	andseq	r9, r3, r0, lsl #26
    3330:	98340700 	ldmdals	r4!, {r8, r9, sl}
    3334:	00f90000 	rscseq	r0, r9, r0
    3338:	01080000 	mrseq	r0, (UNDEF: 8)
    333c:	01f30750 	mvnseq	r0, r0, asr r7
    3340:	03e80a50 	mvneq	r0, #80, 20	; 0x50000
    3344:	0400001e 	streq	r0, [r0], #-30
    3348:	000006af 	andeq	r0, r0, pc, lsr #13
    334c:	98382b01 	ldmdals	r8!, {r0, r8, r9, fp, sp}
    3350:	00140000 	andseq	r0, r4, r0
    3354:	9c010000 	stcls	0, cr0, [r1], {-0}
    3358:	000001ca 	andeq	r0, r0, sl, asr #3
    335c:	6365730b 	cmnvs	r5, #738197504	; 0x2c000000
    3360:	2c2b0100 	stfcss	f0, [fp], #-0
    3364:	be000000 	cdplt	0, 0, cr0, cr0, cr0, {0}
    3368:	07000013 	smladeq	r0, r3, r0, r0
    336c:	00009848 	andeq	r9, r0, r8, asr #16
    3370:	00000157 	andeq	r0, r0, r7, asr r1
    3374:	07500108 	ldrbeq	r0, [r0, -r8, lsl #2]
    3378:	0a5001f3 	beq	1403b4c <__bss_end__+0x13f8f34>
    337c:	001e03e8 	andseq	r0, lr, r8, ror #7
    3380:	06cb0e00 	strbeq	r0, [fp], r0, lsl #28
    3384:	a7020000 	strge	r0, [r2, -r0]
    3388:	0000002c 	andeq	r0, r0, ip, lsr #32
    338c:	00002c0f 	andeq	r2, r0, pc, lsl #24
    3390:	c5000000 	strgt	r0, [r0, #-0]
    3394:	0400000c 	streq	r0, [r0], #-12
    3398:	000f5900 	andeq	r5, pc, r0, lsl #18
    339c:	a4010400 	strge	r0, [r1], #-1024	; 0x400
    33a0:	0c00000a 	stceq	0, cr0, [r0], {10}
    33a4:	000007fb 	strdeq	r0, [r0], -fp
    33a8:	00000816 	andeq	r0, r0, r6, lsl r8
    33ac:	00009898 	muleq	r0, r8, r8
    33b0:	00000178 	andeq	r0, r0, r8, ror r1
    33b4:	00000f24 	andeq	r0, r0, r4, lsr #30
    33b8:	69050402 	stmdbvs	r5, {r1, sl}
    33bc:	0300746e 	movweq	r7, #1134	; 0x46e
    33c0:	015a0704 	cmpeq	sl, r4, lsl #14
    33c4:	2c040000 	stccs	0, cr0, [r4], {-0}
    33c8:	03000000 	movweq	r0, #0
    33cc:	00dd0601 	sbcseq	r0, sp, r1, lsl #12
    33d0:	02030000 	andeq	r0, r3, #0
    33d4:	00018505 	andeq	r8, r1, r5, lsl #10
    33d8:	05040300 	streq	r0, [r4, #-768]	; 0x300
    33dc:	00000175 	andeq	r0, r0, r5, ror r1
    33e0:	70050803 	andvc	r0, r5, r3, lsl #16
    33e4:	03000001 	movweq	r0, #1
    33e8:	00db0801 	sbcseq	r0, fp, r1, lsl #16
    33ec:	02030000 	andeq	r0, r3, #0
    33f0:	0000f607 	andeq	pc, r0, r7, lsl #12
    33f4:	07040300 	streq	r0, [r4, -r0, lsl #6]
    33f8:	00000155 	andeq	r0, r0, r5, asr r1
    33fc:	50070803 	andpl	r0, r7, r3, lsl #16
    3400:	05000001 	streq	r0, [r0, #-1]
    3404:	000009b9 			; <UNDEFINED> instruction: 0x000009b9
    3408:	00250702 	eoreq	r0, r5, r2, lsl #14
    340c:	a3050000 	movwge	r0, #20480	; 0x5000
    3410:	03000009 	movweq	r0, #9
    3414:	0000462c 	andeq	r4, r0, ip, lsr #12
    3418:	0a7f0500 	beq	1fc4820 <__bss_end__+0x1fb9c08>
    341c:	72030000 	andvc	r0, r3, #0
    3420:	00000046 	andeq	r0, r0, r6, asr #32
    3424:	00094706 	andeq	r4, r9, r6, lsl #14
    3428:	01650400 	cmneq	r5, r0, lsl #8
    342c:	0000002c 	andeq	r0, r0, ip, lsr #32
    3430:	a6030407 	strge	r0, [r3], -r7, lsl #8
    3434:	000000bc 	strheq	r0, [r0], -ip
    3438:	00093208 	andeq	r3, r9, r8, lsl #4
    343c:	91a80300 			; <UNDEFINED> instruction: 0x91a80300
    3440:	08000000 	stmdaeq	r0, {}	; <UNPREDICTABLE>
    3444:	000008ce 	andeq	r0, r0, lr, asr #17
    3448:	00bca903 	adcseq	sl, ip, r3, lsl #18
    344c:	09000000 	stmdbeq	r0, {}	; <UNPREDICTABLE>
    3450:	00000054 	andeq	r0, r0, r4, asr r0
    3454:	000000cc 	andeq	r0, r0, ip, asr #1
    3458:	0000cc0a 	andeq	ip, r0, sl, lsl #24
    345c:	03000300 	movweq	r0, #768	; 0x300
    3460:	01670704 	cmneq	r7, r4, lsl #14
    3464:	080b0000 	stmdaeq	fp, {}	; <UNPREDICTABLE>
    3468:	00f4a303 	rscseq	sl, r4, r3, lsl #6
    346c:	640c0000 	strvs	r0, [ip], #-0
    3470:	0300000a 	movweq	r0, #10
    3474:	000025a5 	andeq	r2, r0, r5, lsr #11
    3478:	6c0c0000 	stcvs	0, cr0, [ip], {-0}
    347c:	0300000a 	movweq	r0, #10
    3480:	00009daa 	andeq	r9, r0, sl, lsr #27
    3484:	05000400 	streq	r0, [r0, #-1024]	; 0x400
    3488:	000009f7 	strdeq	r0, [r0], -r7
    348c:	00d3ab03 	sbcseq	sl, r3, r3, lsl #22
    3490:	97050000 	strls	r0, [r5, -r0]
    3494:	03000008 	movweq	r0, #8
    3498:	000070af 	andeq	r7, r0, pc, lsr #1
    349c:	0e040d00 	cdpeq	13, 0, cr0, cr4, cr0, {0}
    34a0:	00011204 	andeq	r1, r1, r4, lsl #4
    34a4:	08010300 	stmdaeq	r1, {r8, r9}
    34a8:	000000e4 	andeq	r0, r0, r4, ror #1
    34ac:	0001120f 	andeq	r1, r1, pc, lsl #4
    34b0:	0b210500 	bleq	8448b8 <__bss_end__+0x839ca0>
    34b4:	16050000 	strne	r0, [r5], -r0
    34b8:	00000062 	andeq	r0, r0, r2, rrx
    34bc:	0008a810 	andeq	sl, r8, r0, lsl r8
    34c0:	2d051800 	stccs	8, cr1, [r5, #-0]
    34c4:	0000017c 	andeq	r0, r0, ip, ror r1
    34c8:	000a180c 	andeq	r1, sl, ip, lsl #16
    34cc:	7c2f0500 	cfstr32vc	mvfx0, [pc], #-0	; 34d4 <__code_start__-0x4b2c>
    34d0:	00000001 	andeq	r0, r0, r1
    34d4:	006b5f11 	rsbeq	r5, fp, r1, lsl pc
    34d8:	00253005 	eoreq	r3, r5, r5
    34dc:	0c040000 	stceq	0, cr0, [r4], {-0}
    34e0:	00000a4f 	andeq	r0, r0, pc, asr #20
    34e4:	00253005 	eoreq	r3, r5, r5
    34e8:	0c080000 	stceq	0, cr0, [r8], {-0}
    34ec:	00000883 	andeq	r0, r0, r3, lsl #17
    34f0:	00253005 	eoreq	r3, r5, r5
    34f4:	0c0c0000 	stceq	0, cr0, [ip], {-0}
    34f8:	00000b68 	andeq	r0, r0, r8, ror #22
    34fc:	00253005 	eoreq	r3, r5, r5
    3500:	11100000 	tstne	r0, r0
    3504:	0500785f 	streq	r7, [r0, #-2143]	; 0x85f
    3508:	00018231 	andeq	r8, r1, r1, lsr r2
    350c:	0e001400 	cfcpyseq	mvf1, mvf0
    3510:	00012904 	andeq	r2, r1, r4, lsl #18
    3514:	011e0900 	tsteq	lr, r0, lsl #18
    3518:	01920000 	orrseq	r0, r2, r0
    351c:	cc0a0000 	stcgt	0, cr0, [sl], {-0}
    3520:	00000000 	andeq	r0, r0, r0
    3524:	08c91000 	stmiaeq	r9, {ip}^
    3528:	05240000 	streq	r0, [r4, #-0]!
    352c:	00020b35 	andeq	r0, r2, r5, lsr fp
    3530:	07810c00 	streq	r0, [r1, r0, lsl #24]
    3534:	37050000 	strcc	r0, [r5, -r0]
    3538:	00000025 	andeq	r0, r0, r5, lsr #32
    353c:	0a870c00 	beq	fe1c6544 <__bss_end__+0xfe1bb92c>
    3540:	38050000 	stmdacc	r5, {}	; <UNPREDICTABLE>
    3544:	00000025 	andeq	r0, r0, r5, lsr #32
    3548:	07af0c04 	streq	r0, [pc, r4, lsl #24]!
    354c:	39050000 	stmdbcc	r5, {}	; <UNPREDICTABLE>
    3550:	00000025 	andeq	r0, r0, r5, lsr #32
    3554:	0c580c08 	mrrceq	12, 0, r0, r8, cr8
    3558:	3a050000 	bcc	143560 <__bss_end__+0x138948>
    355c:	00000025 	andeq	r0, r0, r5, lsr #32
    3560:	09870c0c 	stmibeq	r7, {r2, r3, sl, fp}
    3564:	3b050000 	blcc	14356c <__bss_end__+0x138954>
    3568:	00000025 	andeq	r0, r0, r5, lsr #32
    356c:	095c0c10 	ldmdbeq	ip, {r4, sl, fp}^
    3570:	3c050000 	stccc	0, cr0, [r5], {-0}
    3574:	00000025 	andeq	r0, r0, r5, lsr #32
    3578:	0b6d0c14 	bleq	1b465d0 <__bss_end__+0x1b3b9b8>
    357c:	3d050000 	stccc	0, cr0, [r5, #-0]
    3580:	00000025 	andeq	r0, r0, r5, lsr #32
    3584:	09d90c18 	ldmibeq	r9, {r3, r4, sl, fp}^
    3588:	3e050000 	cdpcc	0, 0, cr0, cr5, cr0, {0}
    358c:	00000025 	andeq	r0, r0, r5, lsr #32
    3590:	0c1f0c1c 	ldceq	12, cr0, [pc], {28}
    3594:	3f050000 	svccc	0x00050000
    3598:	00000025 	andeq	r0, r0, r5, lsr #32
    359c:	be120020 	cdplt	0, 1, cr0, cr2, cr0, {1}
    35a0:	08000007 	stmdaeq	r0, {r0, r1, r2}
    35a4:	4b480501 	blmi	12049b0 <__bss_end__+0x11f9d98>
    35a8:	0c000002 	stceq	0, cr0, [r0], {2}
    35ac:	0000086a 	andeq	r0, r0, sl, ror #16
    35b0:	024b4905 	subeq	r4, fp, #81920	; 0x14000
    35b4:	0c000000 	stceq	0, cr0, [r0], {-0}
    35b8:	000006fc 	strdeq	r0, [r0], -ip
    35bc:	024b4a05 	subeq	r4, fp, #20480	; 0x5000
    35c0:	13800000 	orrne	r0, r0, #0
    35c4:	00000b13 	andeq	r0, r0, r3, lsl fp
    35c8:	011e4c05 	tsteq	lr, r5, lsl #24
    35cc:	01000000 	mrseq	r0, (UNDEF: 0)
    35d0:	0007e313 	andeq	lr, r7, r3, lsl r3
    35d4:	1e4f0500 	cdpne	5, 4, cr0, cr15, cr0, {0}
    35d8:	04000001 	streq	r0, [r0], #-1
    35dc:	0a090001 	beq	2435e8 <__bss_end__+0x2389d0>
    35e0:	5b000001 	blpl	35ec <__code_start__-0x4a14>
    35e4:	0a000002 	beq	35f4 <__code_start__-0x4a0c>
    35e8:	000000cc 	andeq	r0, r0, ip, asr #1
    35ec:	9012001f 	andsls	r0, r2, pc, lsl r0
    35f0:	90000009 	andls	r0, r0, r9
    35f4:	995b0501 	ldmdbls	fp, {r0, r8, sl}^
    35f8:	0c000002 	stceq	0, cr0, [r0], {2}
    35fc:	00000a18 	andeq	r0, r0, r8, lsl sl
    3600:	02995c05 	addseq	r5, r9, #1280	; 0x500
    3604:	0c000000 	stceq	0, cr0, [r0], {-0}
    3608:	00000a30 	andeq	r0, r0, r0, lsr sl
    360c:	00255d05 	eoreq	r5, r5, r5, lsl #26
    3610:	0c040000 	stceq	0, cr0, [r4], {-0}
    3614:	0000087e 	andeq	r0, r0, lr, ror r8
    3618:	029f5f05 	addseq	r5, pc, #5, 30
    361c:	0c080000 	stceq	0, cr0, [r8], {-0}
    3620:	000007be 			; <UNDEFINED> instruction: 0x000007be
    3624:	020b6005 	andeq	r6, fp, #5
    3628:	00880000 	addeq	r0, r8, r0
    362c:	025b040e 	subseq	r0, fp, #234881024	; 0xe000000
    3630:	af090000 	svcge	0x00090000
    3634:	af000002 	svcge	0x00000002
    3638:	0a000002 	beq	3648 <__code_start__-0x49b8>
    363c:	000000cc 	andeq	r0, r0, ip, asr #1
    3640:	040e001f 	streq	r0, [lr], #-31
    3644:	000002b5 			; <UNDEFINED> instruction: 0x000002b5
    3648:	09e31014 	stmibeq	r3!, {r2, r4, ip}^
    364c:	05080000 	streq	r0, [r8, #-0]
    3650:	0002db73 	andeq	sp, r2, r3, ror fp
    3654:	07a40c00 	streq	r0, [r4, r0, lsl #24]!
    3658:	74050000 	strvc	r0, [r5], #-0
    365c:	000002db 	ldrdeq	r0, [r0], -fp
    3660:	07080c00 	streq	r0, [r8, -r0, lsl #24]
    3664:	75050000 	strvc	r0, [r5, #-0]
    3668:	00000025 	andeq	r0, r0, r5, lsr #32
    366c:	040e0004 	streq	r0, [lr], #-4
    3670:	00000054 	andeq	r0, r0, r4, asr r0
    3674:	000a0210 	andeq	r0, sl, r0, lsl r2
    3678:	b3056800 	movwlt	r6, #22528	; 0x5800
    367c:	0000040b 	andeq	r0, r0, fp, lsl #8
    3680:	00705f11 	rsbseq	r5, r0, r1, lsl pc
    3684:	02dbb405 	sbcseq	fp, fp, #83886080	; 0x5000000
    3688:	11000000 	mrsne	r0, (UNDEF: 0)
    368c:	0500725f 	streq	r7, [r0, #-607]	; 0x25f
    3690:	000025b5 			; <UNDEFINED> instruction: 0x000025b5
    3694:	5f110400 	svcpl	0x00110400
    3698:	b6050077 			; <UNDEFINED> instruction: 0xb6050077
    369c:	00000025 	andeq	r0, r0, r5, lsr #32
    36a0:	07dc0c08 	ldrbeq	r0, [ip, r8, lsl #24]
    36a4:	b7050000 	strlt	r0, [r5, -r0]
    36a8:	0000003f 	andeq	r0, r0, pc, lsr r0
    36ac:	08ef0c0c 	stmiaeq	pc!, {r2, r3, sl, fp}^	; <UNPREDICTABLE>
    36b0:	b8050000 	stmdalt	r5, {}	; <UNPREDICTABLE>
    36b4:	0000003f 	andeq	r0, r0, pc, lsr r0
    36b8:	625f110e 	subsvs	r1, pc, #-2147483645	; 0x80000003
    36bc:	b9050066 	stmdblt	r5, {r1, r2, r5, r6}
    36c0:	000002b6 			; <UNDEFINED> instruction: 0x000002b6
    36c4:	074b0c10 	smlaldeq	r0, fp, r0, ip
    36c8:	ba050000 	blt	1436d0 <__bss_end__+0x138ab8>
    36cc:	00000025 	andeq	r0, r0, r5, lsr #32
    36d0:	07cc0c18 	bfieq	r0, r8, (invalid: 24:12)
    36d4:	c1050000 	mrsgt	r0, (UNDEF: 5)
    36d8:	0000010a 	andeq	r0, r0, sl, lsl #2
    36dc:	0c7f0c1c 	ldcleq	12, cr0, [pc], #-112	; 3674 <__code_start__-0x498c>
    36e0:	c3050000 	movwgt	r0, #20480	; 0x5000
    36e4:	00000566 	andeq	r0, r0, r6, ror #10
    36e8:	0c990c20 	ldceq	12, cr0, [r9], {32}
    36ec:	c5050000 	strgt	r0, [r5, #-0]
    36f0:	00000590 	muleq	r0, r0, r5
    36f4:	0a740c24 	beq	1d0678c <__bss_end__+0x1cfbb74>
    36f8:	c8050000 	stmdagt	r5, {}	; <UNPREDICTABLE>
    36fc:	000005b4 			; <UNDEFINED> instruction: 0x000005b4
    3700:	0c390c28 	ldceq	12, cr0, [r9], #-160	; 0xffffff60
    3704:	c9050000 	stmdbgt	r5, {}	; <UNPREDICTABLE>
    3708:	000005ce 	andeq	r0, r0, lr, asr #11
    370c:	755f112c 	ldrbvc	r1, [pc, #-300]	; 35e8 <__code_start__-0x4a18>
    3710:	cc050062 	stcgt	0, cr0, [r5], {98}	; 0x62
    3714:	000002b6 			; <UNDEFINED> instruction: 0x000002b6
    3718:	755f1130 	ldrbvc	r1, [pc, #-304]	; 35f0 <__code_start__-0x4a10>
    371c:	cd050070 	stcgt	0, cr0, [r5, #-448]	; 0xfffffe40
    3720:	000002db 	ldrdeq	r0, [r0], -fp
    3724:	755f1138 	ldrbvc	r1, [pc, #-312]	; 35f4 <__code_start__-0x4a0c>
    3728:	ce050072 	mcrgt	0, 0, r0, cr5, cr2, {3}
    372c:	00000025 	andeq	r0, r0, r5, lsr #32
    3730:	078f0c3c 			; <UNDEFINED> instruction: 0x078f0c3c
    3734:	d1050000 	mrsle	r0, (UNDEF: 5)
    3738:	000005d4 	ldrdeq	r0, [r0], -r4
    373c:	0be40c40 	bleq	ff906844 <__bss_end__+0xff8fbc2c>
    3740:	d2050000 	andle	r0, r5, #0
    3744:	000005e4 	andeq	r0, r0, r4, ror #11
    3748:	6c5f1143 	ldfvse	f1, [pc], {67}	; 0x43
    374c:	d5050062 	strle	r0, [r5, #-98]	; 0x62
    3750:	000002b6 			; <UNDEFINED> instruction: 0x000002b6
    3754:	07f20c44 	ldrbeq	r0, [r2, r4, asr #24]!
    3758:	d8050000 	stmdale	r5, {}	; <UNPREDICTABLE>
    375c:	00000025 	andeq	r0, r0, r5, lsr #32
    3760:	09660c4c 	stmdbeq	r6!, {r2, r3, r6, sl, fp}^
    3764:	d9050000 	stmdble	r5, {}	; <UNPREDICTABLE>
    3768:	0000007b 	andeq	r0, r0, fp, ror r0
    376c:	0bcf0c50 	bleq	ff3c68b4 <__bss_end__+0xff3bbc9c>
    3770:	dc050000 	stcle	0, cr0, [r5], {-0}
    3774:	00000429 	andeq	r0, r0, r9, lsr #8
    3778:	094e0c54 	stmdbeq	lr, {r2, r4, r6, sl, fp}^
    377c:	e0050000 	and	r0, r5, r0
    3780:	000000ff 	strdeq	r0, [r0], -pc	; <UNPREDICTABLE>
    3784:	0a0a0c58 	beq	2868ec <__bss_end__+0x27bcd4>
    3788:	e2050000 	and	r0, r5, #0
    378c:	000000f4 	strdeq	r0, [r0], -r4
    3790:	09540c5c 	ldmdbeq	r4, {r2, r3, r4, r6, sl, fp}^
    3794:	e3050000 	movw	r0, #20480	; 0x5000
    3798:	00000025 	andeq	r0, r0, r5, lsr #32
    379c:	25150064 	ldrcs	r0, [r5, #-100]	; 0x64
    37a0:	29000000 	stmdbcs	r0, {}	; <UNPREDICTABLE>
    37a4:	16000004 	strne	r0, [r0], -r4
    37a8:	00000429 	andeq	r0, r0, r9, lsr #8
    37ac:	00010a16 	andeq	r0, r1, r6, lsl sl
    37b0:	010c1600 	tsteq	ip, r0, lsl #12
    37b4:	25160000 	ldrcs	r0, [r6, #-0]
    37b8:	00000000 	andeq	r0, r0, r0
    37bc:	0434040e 	ldrteq	r0, [r4], #-1038	; 0x40e
    37c0:	290f0000 	stmdbcs	pc, {}	; <UNPREDICTABLE>
    37c4:	17000004 	strne	r0, [r0, -r4]
    37c8:	00000a57 	andeq	r0, r0, r7, asr sl
    37cc:	38050428 	stmdacc	r5, {r3, r5, sl}
    37d0:	00056602 	andeq	r6, r5, r2, lsl #12
    37d4:	09d21800 	ldmibeq	r2, {fp, ip}^
    37d8:	3a050000 	bcc	1437e0 <__bss_end__+0x138bc8>
    37dc:	00002502 	andeq	r2, r0, r2, lsl #10
    37e0:	eb180000 	bl	6037e8 <__bss_end__+0x5f8bd0>
    37e4:	05000007 	streq	r0, [r0, #-7]
    37e8:	063b023f 			; <UNDEFINED> instruction: 0x063b023f
    37ec:	18040000 	stmdane	r4, {}	; <UNPREDICTABLE>
    37f0:	000008df 	ldrdeq	r0, [r0], -pc	; <UNPREDICTABLE>
    37f4:	3b023f05 	blcc	93410 <__bss_end__+0x887f8>
    37f8:	08000006 	stmdaeq	r0, {r1, r2}
    37fc:	0008a018 	andeq	sl, r8, r8, lsl r0
    3800:	023f0500 	eorseq	r0, pc, #0, 10
    3804:	0000063b 	andeq	r0, r0, fp, lsr r6
    3808:	0a2b180c 	beq	ac9840 <__bss_end__+0xabec28>
    380c:	41050000 	mrsmi	r0, (UNDEF: 5)
    3810:	00002502 	andeq	r2, r0, r2, lsl #10
    3814:	16181000 	ldrne	r1, [r8], -r0
    3818:	05000007 	streq	r0, [r0, #-7]
    381c:	081d0242 	ldmdaeq	sp, {r1, r6, r9}
    3820:	18140000 	ldmdane	r4, {}	; <UNPREDICTABLE>
    3824:	00000b49 	andeq	r0, r0, r9, asr #22
    3828:	25024405 	strcs	r4, [r2, #-1029]	; 0x405
    382c:	30000000 	andcc	r0, r0, r0
    3830:	000a3518 	andeq	r3, sl, r8, lsl r5
    3834:	02450500 	subeq	r0, r5, #0, 10
    3838:	0000058a 	andeq	r0, r0, sl, lsl #11
    383c:	09981834 	ldmibeq	r8, {r2, r4, r5, fp, ip}
    3840:	47050000 	strmi	r0, [r5, -r0]
    3844:	00002502 	andeq	r2, r0, r2, lsl #10
    3848:	45183800 	ldrmi	r3, [r8, #-2048]	; 0x800
    384c:	0500000a 	streq	r0, [r0, #-10]
    3850:	08380249 	ldmdaeq	r8!, {r0, r3, r6, r9}
    3854:	183c0000 	ldmdane	ip!, {}	; <UNPREDICTABLE>
    3858:	0000092a 	andeq	r0, r0, sl, lsr #18
    385c:	7c024c05 	stcvc	12, cr4, [r2], {5}
    3860:	40000001 	andmi	r0, r0, r1
    3864:	0008bf18 	andeq	fp, r8, r8, lsl pc
    3868:	024d0500 	subeq	r0, sp, #0, 10
    386c:	00000025 	andeq	r0, r0, r5, lsr #32
    3870:	0c531844 	mrrceq	8, 4, r1, r3, cr4
    3874:	4e050000 	cdpmi	0, 0, cr0, cr5, cr0, {0}
    3878:	00017c02 	andeq	r7, r1, r2, lsl #24
    387c:	af184800 	svcge	0x00184800
    3880:	05000009 	streq	r0, [r0, #-9]
    3884:	083e024f 	ldmdaeq	lr!, {r0, r1, r2, r3, r6, r9}
    3888:	184c0000 	stmdane	ip, {}^	; <UNPREDICTABLE>
    388c:	000008e7 	andeq	r0, r0, r7, ror #17
    3890:	25025205 	strcs	r5, [r2, #-517]	; 0x205
    3894:	50000000 	andpl	r0, r0, r0
    3898:	00080e18 	andeq	r0, r8, r8, lsl lr
    389c:	02530500 	subseq	r0, r3, #0, 10
    38a0:	0000010c 	andeq	r0, r0, ip, lsl #2
    38a4:	09cb1854 	stmibeq	fp, {r2, r4, r6, fp, ip}^
    38a8:	76050000 	strvc	r0, [r5], -r0
    38ac:	0007fb02 	andeq	pc, r7, r2, lsl #22
    38b0:	90195800 	andsls	r5, r9, r0, lsl #16
    38b4:	05000009 	streq	r0, [r0, #-9]
    38b8:	0299027a 	addseq	r0, r9, #-1610612729	; 0xa0000007
    38bc:	01480000 	mrseq	r0, (UNDEF: 72)
    38c0:	0008fc19 	andeq	pc, r8, r9, lsl ip	; <UNPREDICTABLE>
    38c4:	027b0500 	rsbseq	r0, fp, #0, 10
    38c8:	0000025b 	andeq	r0, r0, fp, asr r2
    38cc:	b519014c 	ldrlt	r0, [r9, #-332]	; 0x14c
    38d0:	0500000b 	streq	r0, [r0, #-11]
    38d4:	084f027f 	stmdaeq	pc, {r0, r1, r2, r3, r4, r5, r6, r9}^	; <UNPREDICTABLE>
    38d8:	02dc0000 	sbcseq	r0, ip, #0
    38dc:	0007d419 	andeq	sp, r7, r9, lsl r4
    38e0:	02840500 	addeq	r0, r4, #0, 10
    38e4:	00000600 	andeq	r0, r0, r0, lsl #12
    38e8:	b91902e0 	ldmdblt	r9, {r5, r6, r7, r9}
    38ec:	05000007 	streq	r0, [r0, #-7]
    38f0:	085b0285 	ldmdaeq	fp, {r0, r2, r7, r9}^
    38f4:	02ec0000 	rsceq	r0, ip, #0
    38f8:	0b040e00 	bleq	107100 <__bss_end__+0xfc4e8>
    38fc:	15000004 	strne	r0, [r0, #-4]
    3900:	00000025 	andeq	r0, r0, r5, lsr #32
    3904:	0000058a 	andeq	r0, r0, sl, lsl #11
    3908:	00042916 	andeq	r2, r4, r6, lsl r9
    390c:	010a1600 	tsteq	sl, r0, lsl #12
    3910:	8a160000 	bhi	583918 <__bss_end__+0x578d00>
    3914:	16000005 	strne	r0, [r0], -r5
    3918:	00000025 	andeq	r0, r0, r5, lsr #32
    391c:	19040e00 	stmdbne	r4, {r9, sl, fp}
    3920:	0e000001 	cdpeq	0, 0, cr0, cr0, cr1, {0}
    3924:	00056c04 	andeq	r6, r5, r4, lsl #24
    3928:	00861500 	addeq	r1, r6, r0, lsl #10
    392c:	05b40000 	ldreq	r0, [r4, #0]!
    3930:	29160000 	ldmdbcs	r6, {}	; <UNPREDICTABLE>
    3934:	16000004 	strne	r0, [r0], -r4
    3938:	0000010a 	andeq	r0, r0, sl, lsl #2
    393c:	00008616 	andeq	r8, r0, r6, lsl r6
    3940:	00251600 	eoreq	r1, r5, r0, lsl #12
    3944:	0e000000 	cdpeq	0, 0, cr0, cr0, cr0, {0}
    3948:	00059604 	andeq	r9, r5, r4, lsl #12
    394c:	00251500 	eoreq	r1, r5, r0, lsl #10
    3950:	05ce0000 	strbeq	r0, [lr]
    3954:	29160000 	ldmdbcs	r6, {}	; <UNPREDICTABLE>
    3958:	16000004 	strne	r0, [r0], -r4
    395c:	0000010a 	andeq	r0, r0, sl, lsl #2
    3960:	ba040e00 	blt	107168 <__bss_end__+0xfc550>
    3964:	09000005 	stmdbeq	r0, {r0, r2}
    3968:	00000054 	andeq	r0, r0, r4, asr r0
    396c:	000005e4 	andeq	r0, r0, r4, ror #11
    3970:	0000cc0a 	andeq	ip, r0, sl, lsl #24
    3974:	09000200 	stmdbeq	r0, {r9}
    3978:	00000054 	andeq	r0, r0, r4, asr r0
    397c:	000005f4 	strdeq	r0, [r0], -r4
    3980:	0000cc0a 	andeq	ip, r0, sl, lsl #24
    3984:	06000000 	streq	r0, [r0], -r0
    3988:	000009f0 	strdeq	r0, [r0], -r0	; <UNPREDICTABLE>
    398c:	e1011d05 	tst	r1, r5, lsl #26
    3990:	1a000002 	bne	39a0 <__code_start__-0x4660>
    3994:	00000b77 	andeq	r0, r0, r7, ror fp
    3998:	0121050c 	teqeq	r1, ip, lsl #10
    399c:	00000635 	andeq	r0, r0, r5, lsr r6
    39a0:	000a1818 	andeq	r1, sl, r8, lsl r8
    39a4:	01230500 	teqeq	r3, r0, lsl #10
    39a8:	00000635 	andeq	r0, r0, r5, lsr r6
    39ac:	08f51800 	ldmeq	r5!, {fp, ip}^
    39b0:	24050000 	strcs	r0, [r5], #-0
    39b4:	00002501 	andeq	r2, r0, r1, lsl #10
    39b8:	ea180400 	b	6049c0 <__bss_end__+0x5f9da8>
    39bc:	05000009 	streq	r0, [r0, #-9]
    39c0:	063b0125 	ldrteq	r0, [fp], -r5, lsr #2
    39c4:	00080000 	andeq	r0, r8, r0
    39c8:	0600040e 	streq	r0, [r0], -lr, lsl #8
    39cc:	040e0000 	streq	r0, [lr], #-0
    39d0:	000005f4 	strdeq	r0, [r0], -r4
    39d4:	00070e1a 	andeq	r0, r7, sl, lsl lr
    39d8:	3d050e00 	stccc	14, cr0, [r5, #-0]
    39dc:	00067601 	andeq	r7, r6, r1, lsl #12
    39e0:	0a5e1800 	beq	17899e8 <__bss_end__+0x177edd0>
    39e4:	3e050000 	cdpcc	0, 0, cr0, cr5, cr0, {0}
    39e8:	00067601 	andeq	r7, r6, r1, lsl #12
    39ec:	98180000 	ldmdals	r8, {}	; <UNPREDICTABLE>
    39f0:	0500000a 	streq	r0, [r0, #-10]
    39f4:	0676013f 			; <UNDEFINED> instruction: 0x0676013f
    39f8:	18060000 	stmdane	r6, {}	; <UNPREDICTABLE>
    39fc:	00000b1c 	andeq	r0, r0, ip, lsl fp
    3a00:	5b014005 	blpl	53a1c <__bss_end__+0x48e04>
    3a04:	0c000000 	stceq	0, cr0, [r0], {-0}
    3a08:	005b0900 	subseq	r0, fp, r0, lsl #18
    3a0c:	06860000 	streq	r0, [r6], r0
    3a10:	cc0a0000 	stcgt	0, cr0, [sl], {-0}
    3a14:	02000000 	andeq	r0, r0, #0
    3a18:	05d01b00 	ldrbeq	r1, [r0, #2816]	; 0xb00
    3a1c:	07870257 			; <UNDEFINED> instruction: 0x07870257
    3a20:	5b180000 	blpl	603a28 <__bss_end__+0x5f8e10>
    3a24:	0500000b 	streq	r0, [r0, #-11]
    3a28:	002c0259 	eoreq	r0, ip, r9, asr r2
    3a2c:	18000000 	stmdane	r0, {}	; <UNPREDICTABLE>
    3a30:	00000b06 	andeq	r0, r0, r6, lsl #22
    3a34:	0c025a05 	stceq	10, cr5, [r2], {5}
    3a38:	04000001 	streq	r0, [r0], #-1
    3a3c:	00091118 	andeq	r1, r9, r8, lsl r1
    3a40:	025b0500 	subseq	r0, fp, #0, 10
    3a44:	00000787 	andeq	r0, r0, r7, lsl #15
    3a48:	0c2a1808 	stceq	8, cr1, [sl], #-32	; 0xffffffe0
    3a4c:	5c050000 	stcpl	0, cr0, [r5], {-0}
    3a50:	00019202 	andeq	r9, r1, r2, lsl #4
    3a54:	b0182400 	andslt	r2, r8, r0, lsl #8
    3a58:	05000008 	streq	r0, [r0, #-8]
    3a5c:	0025025d 	eoreq	r0, r5, sp, asr r2
    3a60:	18480000 	stmdane	r8, {}^	; <UNPREDICTABLE>
    3a64:	00000a13 	andeq	r0, r0, r3, lsl sl
    3a68:	69025e05 	stmdbvs	r2, {r0, r2, r9, sl, fp, ip, lr}
    3a6c:	50000000 	andpl	r0, r0, r0
    3a70:	000c4018 	andeq	r4, ip, r8, lsl r0
    3a74:	025f0500 	subseq	r0, pc, #0, 10
    3a78:	00000641 	andeq	r0, r0, r1, asr #12
    3a7c:	0a1e1858 	beq	789be4 <__bss_end__+0x77efcc>
    3a80:	60050000 	andvs	r0, r5, r0
    3a84:	0000f402 	andeq	pc, r0, r2, lsl #8
    3a88:	45186800 	ldrmi	r6, [r8, #-2048]	; 0x800
    3a8c:	0500000c 	streq	r0, [r0, #-12]
    3a90:	00f40261 	rscseq	r0, r4, r1, ror #4
    3a94:	18700000 	ldmdane	r0!, {}^	; <UNPREDICTABLE>
    3a98:	00000773 	andeq	r0, r0, r3, ror r7
    3a9c:	f4026205 	vst1.8	{d6-d9}, [r2], r5
    3aa0:	78000000 	stmdavc	r0, {}	; <UNPREDICTABLE>
    3aa4:	000b9718 	andeq	r9, fp, r8, lsl r7
    3aa8:	02630500 	rsbeq	r0, r3, #0, 10
    3aac:	00000797 	muleq	r0, r7, r7
    3ab0:	09051880 	stmdbeq	r5, {r7, fp, ip}
    3ab4:	64050000 	strvs	r0, [r5], #-0
    3ab8:	0007a702 	andeq	sl, r7, r2, lsl #14
    3abc:	29188800 	ldmdbcs	r8, {fp, pc}
    3ac0:	0500000b 	streq	r0, [r0, #-11]
    3ac4:	00250265 	eoreq	r0, r5, r5, ror #4
    3ac8:	18a00000 	stmiane	r0!, {}	; <UNPREDICTABLE>
    3acc:	0000085c 	andeq	r0, r0, ip, asr r8
    3ad0:	f4026605 	vst1.8	{d6-d8}, [r2], r5
    3ad4:	a4000000 	strge	r0, [r0], #-0
    3ad8:	00076418 	andeq	r6, r7, r8, lsl r4
    3adc:	02670500 	rsbeq	r0, r7, #0, 10
    3ae0:	000000f4 	strdeq	r0, [r0], -r4
    3ae4:	084b18ac 	stmdaeq	fp, {r2, r3, r5, r7, fp, ip}^
    3ae8:	68050000 	stmdavs	r5, {}	; <UNPREDICTABLE>
    3aec:	0000f402 	andeq	pc, r0, r2, lsl #8
    3af0:	2b18b400 	blcs	630af8 <__bss_end__+0x625ee0>
    3af4:	05000007 	streq	r0, [r0, #-7]
    3af8:	00f40269 	rscseq	r0, r4, r9, ror #4
    3afc:	18bc0000 	ldmne	ip!, {}	; <UNPREDICTABLE>
    3b00:	0000073a 	andeq	r0, r0, sl, lsr r7
    3b04:	f4026a05 	vst1.8	{d6-d7}, [r2], r5
    3b08:	c4000000 	strgt	r0, [r0], #-0
    3b0c:	0009d018 	andeq	sp, r9, r8, lsl r0
    3b10:	026b0500 	rsbeq	r0, fp, #0, 10
    3b14:	00000025 	andeq	r0, r0, r5, lsr #32
    3b18:	120900cc 	andne	r0, r9, #204	; 0xcc
    3b1c:	97000001 	strls	r0, [r0, -r1]
    3b20:	0a000007 	beq	3b44 <__code_start__-0x44bc>
    3b24:	000000cc 	andeq	r0, r0, ip, asr #1
    3b28:	12090019 	andne	r0, r9, #25
    3b2c:	a7000001 	strge	r0, [r0, -r1]
    3b30:	0a000007 	beq	3b54 <__code_start__-0x44ac>
    3b34:	000000cc 	andeq	r0, r0, ip, asr #1
    3b38:	12090007 	andne	r0, r9, #7
    3b3c:	b7000001 	strlt	r0, [r0, -r1]
    3b40:	0a000007 	beq	3b64 <__code_start__-0x449c>
    3b44:	000000cc 	andeq	r0, r0, ip, asr #1
    3b48:	f01b0017 			; <UNDEFINED> instruction: 0xf01b0017
    3b4c:	db027005 	blle	9fb68 <__bss_end__+0x94f50>
    3b50:	18000007 	stmdane	r0, {r0, r1, r2}
    3b54:	00000980 	andeq	r0, r0, r0, lsl #19
    3b58:	db027305 	blle	a0774 <__bss_end__+0x95b5c>
    3b5c:	00000007 	andeq	r0, r0, r7
    3b60:	000b8e18 	andeq	r8, fp, r8, lsl lr
    3b64:	02740500 	rsbseq	r0, r4, #0, 10
    3b68:	000007eb 	andeq	r0, r0, fp, ror #15
    3b6c:	db090078 	blle	243d54 <__bss_end__+0x23913c>
    3b70:	eb000002 	bl	3b80 <__code_start__-0x4480>
    3b74:	0a000007 	beq	3b98 <__code_start__-0x4468>
    3b78:	000000cc 	andeq	r0, r0, ip, asr #1
    3b7c:	2c09001d 	stccs	0, cr0, [r9], {29}
    3b80:	fb000000 	blx	3b8a <__code_start__-0x4476>
    3b84:	0a000007 	beq	3ba8 <__code_start__-0x4458>
    3b88:	000000cc 	andeq	r0, r0, ip, asr #1
    3b8c:	f01c001d 			; <UNDEFINED> instruction: 0xf01c001d
    3b90:	1d025505 	cfstr32ne	mvfx5, [r2, #-20]	; 0xffffffec
    3b94:	1d000008 	stcne	0, cr0, [r0, #-32]	; 0xffffffe0
    3b98:	00000a57 	andeq	r0, r0, r7, asr sl
    3b9c:	86026c05 	strhi	r6, [r2], -r5, lsl #24
    3ba0:	1d000006 	stcne	0, cr0, [r0, #-24]	; 0xffffffe8
    3ba4:	00000bea 	andeq	r0, r0, sl, ror #23
    3ba8:	b7027505 	strlt	r7, [r2, -r5, lsl #10]
    3bac:	00000007 	andeq	r0, r0, r7
    3bb0:	00011209 	andeq	r1, r1, r9, lsl #4
    3bb4:	00082d00 	andeq	r2, r8, r0, lsl #26
    3bb8:	00cc0a00 	sbceq	r0, ip, r0, lsl #20
    3bbc:	00180000 	andseq	r0, r8, r0
    3bc0:	0008381e 	andeq	r3, r8, lr, lsl r8
    3bc4:	04291600 	strteq	r1, [r9], #-1536	; 0x600
    3bc8:	0e000000 	cdpeq	0, 0, cr0, cr0, cr0, {0}
    3bcc:	00082d04 	andeq	r2, r8, r4, lsl #26
    3bd0:	7c040e00 	stcvc	14, cr0, [r4], {-0}
    3bd4:	1e000001 	cdpne	0, 0, cr0, cr0, cr1, {0}
    3bd8:	0000084f 	andeq	r0, r0, pc, asr #16
    3bdc:	00002516 	andeq	r2, r0, r6, lsl r5
    3be0:	040e0000 	streq	r0, [lr], #-0
    3be4:	00000855 	andeq	r0, r0, r5, asr r8
    3be8:	0844040e 	stmdaeq	r4, {r1, r2, r3, sl}^
    3bec:	f4090000 	vst4.8	{d0-d3}, [r9], r0
    3bf0:	6b000005 	blvs	3c0c <__code_start__-0x43f4>
    3bf4:	0a000008 	beq	3c1c <__code_start__-0x43e4>
    3bf8:	000000cc 	andeq	r0, r0, ip, asr #1
    3bfc:	3d1f0002 	ldccc	0, cr0, [pc, #-8]	; 3bfc <__code_start__-0x4404>
    3c00:	0500000b 	streq	r0, [r0, #-11]
    3c04:	042902fd 	strteq	r0, [r9], #-765	; 0x2fd
    3c08:	361f0000 	ldrcc	r0, [pc], -r0
    3c0c:	0500000b 	streq	r0, [r0, #-11]
    3c10:	042f02fe 	strteq	r0, [pc], #-766	; 3c18 <__code_start__-0x43e8>
    3c14:	25150000 	ldrcs	r0, [r5, #-0]
    3c18:	92000000 	andls	r0, r0, #0
    3c1c:	16000008 	strne	r0, [r0], -r8
    3c20:	00000025 	andeq	r0, r0, r5, lsr #32
    3c24:	05402000 	strbeq	r2, [r0, #-0]
    3c28:	1d060000 	stcne	0, cr0, [r6, #-0]
    3c2c:	0000089d 	muleq	r0, sp, r8
    3c30:	0883040e 	stmeq	r3, {r1, r2, r3, sl}
    3c34:	25150000 	ldrcs	r0, [r5, #-0]
    3c38:	b2000000 	andlt	r0, r0, #0
    3c3c:	16000008 	strne	r0, [r0], -r8
    3c40:	0000058a 	andeq	r0, r0, sl, lsl #11
    3c44:	057d2000 	ldrbeq	r2, [sp, #-0]!
    3c48:	22060000 	andcs	r0, r6, #0
    3c4c:	000008bd 			; <UNDEFINED> instruction: 0x000008bd
    3c50:	08a3040e 	stmiaeq	r3!, {r1, r2, r3, sl}
    3c54:	01210000 	teqeq	r1, r0
    3c58:	00000054 	andeq	r0, r0, r4, asr r0
    3c5c:	09000c08 	stmdbeq	r0, {r3, sl, fp}
    3c60:	54220000 	strtpl	r0, [r2], #-0
    3c64:	00000007 	andeq	r0, r0, r7
    3c68:	000b7d22 	andeq	r7, fp, r2, lsr #26
    3c6c:	d5220100 	strle	r0, [r2, #-256]!	; 0x100
    3c70:	0400000b 	streq	r0, [r0], #-11
    3c74:	00079522 	andeq	r9, r7, r2, lsr #10
    3c78:	38220500 	stmdacc	r2!, {r8, sl}
    3c7c:	06000009 	streq	r0, [r0], -r9
    3c80:	000bf222 	andeq	pc, fp, r2, lsr #4
    3c84:	01220700 	teqeq	r2, r0, lsl #14
    3c88:	0300000c 	movweq	r0, #12
    3c8c:	000c1022 	andeq	r1, ip, r2, lsr #32
    3c90:	10000200 	andne	r0, r0, r0, lsl #4
    3c94:	00000802 	andeq	r0, r0, r2, lsl #16
    3c98:	9006072c 	andls	r0, r6, ip, lsr #14
    3c9c:	11000009 	tstne	r0, r9
    3ca0:	07006f69 	streq	r6, [r0, -r9, ror #30]
    3ca4:	00003309 	andeq	r3, r0, r9, lsl #6
    3ca8:	69110000 	ldmdbvs	r1, {}	; <UNPREDICTABLE>
    3cac:	07007265 	streq	r7, [r0, -r5, ror #4]
    3cb0:	0000330a 	andeq	r3, r0, sl, lsl #6
    3cb4:	69110400 	ldmdbvs	r1, {sl}
    3cb8:	07007269 	streq	r7, [r0, -r9, ror #4]
    3cbc:	00003311 	andeq	r3, r0, r1, lsl r3
    3cc0:	6c110800 	ldcvs	8, cr0, [r1], {-0}
    3cc4:	07007263 	streq	r7, [r0, -r3, ror #4]
    3cc8:	00003313 	andeq	r3, r0, r3, lsl r3
    3ccc:	6d110c00 	ldcvs	12, cr0, [r1, #-0]
    3cd0:	07007263 	streq	r7, [r0, -r3, ror #4]
    3cd4:	00003314 	andeq	r3, r0, r4, lsl r3
    3cd8:	6c111000 	ldcvs	0, cr1, [r1], {-0}
    3cdc:	07007273 	smlsdxeq	r0, r3, r2, r7
    3ce0:	00003315 	andeq	r3, r0, r5, lsl r3
    3ce4:	6d111400 	cfldrsvs	mvf1, [r1, #-0]
    3ce8:	07007273 	smlsdxeq	r0, r3, r2, r7
    3cec:	00003316 	andeq	r3, r0, r6, lsl r3
    3cf0:	900c1800 	andls	r1, ip, r0, lsl #16
    3cf4:	0700000a 	streq	r0, [r0, -sl]
    3cf8:	00003317 	andeq	r3, r0, r7, lsl r3
    3cfc:	aa0c1c00 	bge	30ad04 <__bss_end__+0x3000ec>
    3d00:	07000007 	streq	r0, [r0, -r7]
    3d04:	0000331b 	andeq	r3, r0, fp, lsl r3
    3d08:	8a0c2000 	bhi	30bd10 <__bss_end__+0x3010f8>
    3d0c:	07000007 	streq	r0, [r0, -r7]
    3d10:	0000331d 	andeq	r3, r0, sp, lsl r3
    3d14:	7a0c2400 	bvc	30cd1c <__bss_end__+0x302104>
    3d18:	0700000a 	streq	r0, [r0, -sl]
    3d1c:	0000331e 	andeq	r3, r0, lr, lsl r3
    3d20:	23002800 	movwcs	r2, #2048	; 0x800
    3d24:	00000872 	andeq	r0, r0, r2, ror r8
    3d28:	09a50701 	stmibeq	r5!, {r0, r8, r9, sl}
    3d2c:	50040000 	andpl	r0, r4, r0
    3d30:	040e2021 	streq	r2, [lr], #-33	; 0x21
    3d34:	00000033 	andeq	r0, r0, r3, lsr r0
    3d38:	00099f0f 	andeq	r9, r9, pc, lsl #30
    3d3c:	09aa2300 	stmibeq	sl!, {r8, r9, sp}
    3d40:	28010000 	stmdacs	r1, {}	; <UNPREDICTABLE>
    3d44:	000009bf 			; <UNDEFINED> instruction: 0x000009bf
    3d48:	20215040 	eorcs	r5, r1, r0, asr #32
    3d4c:	0900040e 	stmdbeq	r0, {r1, r2, r3, sl}
    3d50:	b90f0000 	stmdblt	pc, {}	; <UNPREDICTABLE>
    3d54:	24000009 	strcs	r0, [r0], #-9
    3d58:	00000bc7 	andeq	r0, r0, r7, asr #23
    3d5c:	0025a701 	eoreq	sl, r5, r1, lsl #14
    3d60:	9a000000 	bls	3d68 <__code_start__-0x4298>
    3d64:	00100000 	andseq	r0, r0, r0
    3d68:	9c010000 	stcls	0, cr0, [r1], {-0}
    3d6c:	000009f0 	strdeq	r0, [r0], -r0	; <UNPREDICTABLE>
    3d70:	009a0825 	addseq	r0, sl, r5, lsr #16
    3d74:	000c9c00 	andeq	r9, ip, r0, lsl #24
    3d78:	9a0c2500 	bls	30d180 <__bss_end__+0x302568>
    3d7c:	0ad20000 	beq	ff483d84 <__bss_end__+0xff47916c>
    3d80:	26000000 	strcs	r0, [r0], -r0
    3d84:	00000525 	andeq	r0, r0, r5, lsr #10
    3d88:	99d09f01 	ldmibls	r0, {r0, r8, r9, sl, fp, ip, pc}^
    3d8c:	00300000 	eorseq	r0, r0, r0
    3d90:	9c010000 	stcls	0, cr0, [r1], {-0}
    3d94:	00000a4e 	andeq	r0, r0, lr, asr #20
    3d98:	01006327 	tsteq	r0, r7, lsr #6
    3d9c:	00002c9f 	muleq	r0, pc, ip	; <UNPREDICTABLE>
    3da0:	0013df00 	andseq	sp, r3, r0, lsl #30
    3da4:	99dc2500 	ldmibls	ip, {r8, sl, sp}^
    3da8:	0c9c0000 	ldceq	0, cr0, [ip], {0}
    3dac:	e0250000 	eor	r0, r5, r0
    3db0:	a5000099 	strge	r0, [r0, #-153]	; 0x99
    3db4:	2800000a 	stmdacs	r0, {r1, r3}
    3db8:	000099f4 	strdeq	r9, [r0], -r4
    3dbc:	00000ca7 	andeq	r0, r0, r7, lsr #25
    3dc0:	00000a44 	andeq	r0, r0, r4, asr #20
    3dc4:	05500129 	ldrbeq	r0, [r0, #-297]	; 0x129
    3dc8:	2150400c 	cmpcs	r0, ip
    3dcc:	51012920 	tstpl	r1, r0, lsr #18
    3dd0:	08007405 	stmdaeq	r0, {r0, r2, sl, ip, sp, lr}
    3dd4:	25001aff 	strcs	r1, [r0, #-2815]	; 0xaff
    3dd8:	000099f8 	strdeq	r9, [r0], -r8
    3ddc:	00000c9c 	muleq	r0, ip, ip
    3de0:	08d52400 	ldmeq	r5, {sl, sp}^
    3de4:	97010000 	strls	r0, [r1, -r0]
    3de8:	00000025 	andeq	r0, r0, r5, lsr #32
    3dec:	000099a0 	andeq	r9, r0, r0, lsr #19
    3df0:	00000030 	andeq	r0, r0, r0, lsr r0
    3df4:	0aa59c01 	beq	fe96ae00 <__bss_end__+0xfe9601e8>
    3df8:	632a0000 	teqvs	sl, #0
    3dfc:	259b0100 	ldrcs	r0, [fp, #256]	; 0x100
    3e00:	01000000 	mrseq	r0, (UNDEF: 0)
    3e04:	99a82554 	stmibls	r8!, {r2, r4, r6, r8, sl, sp}
    3e08:	0c9c0000 	ldceq	0, cr0, [ip], {0}
    3e0c:	ac250000 	stcge	0, cr0, [r5], #-0
    3e10:	d2000099 	andle	r0, r0, #153	; 0x99
    3e14:	2800000a 	stmdacs	r0, {r1, r3}
    3e18:	000099bc 			; <UNDEFINED> instruction: 0x000099bc
    3e1c:	00000cb2 			; <UNDEFINED> instruction: 0x00000cb2
    3e20:	00000a9b 	muleq	r0, fp, sl
    3e24:	05500129 	ldrbeq	r0, [r0, #-297]	; 0x129
    3e28:	2150400c 	cmpcs	r0, ip
    3e2c:	c4250020 	strtgt	r0, [r5], #-32
    3e30:	9c000099 	stcls	0, cr0, [r0], {153}	; 0x99
    3e34:	0000000c 	andeq	r0, r0, ip
    3e38:	00088924 	andeq	r8, r8, r4, lsr #18
    3e3c:	25880100 	strcs	r0, [r8, #256]	; 0x100
    3e40:	80000000 	andhi	r0, r0, r0
    3e44:	20000099 	mulcs	r0, r9, r0
    3e48:	01000000 	mrseq	r0, (UNDEF: 0)
    3e4c:	000ad29c 	muleq	sl, ip, r2
    3e50:	998c2b00 	stmibls	ip, {r8, r9, fp, sp}
    3e54:	0cb20000 	ldceq	0, cr0, [r2]
    3e58:	01290000 	teqeq	r9, r0
    3e5c:	640c0550 	strvs	r0, [ip], #-1360	; 0x550
    3e60:	00202150 	eoreq	r2, r0, r0, asr r1
    3e64:	0ba72400 	bleq	fe9cce6c <__bss_end__+0xfe9c2254>
    3e68:	7f010000 	svcvc	0x00010000
    3e6c:	00000025 	andeq	r0, r0, r5, lsr #32
    3e70:	00009968 	andeq	r9, r0, r8, ror #18
    3e74:	00000018 	andeq	r0, r0, r8, lsl r0
    3e78:	0aff9c01 	beq	fffeae84 <__bss_end__+0xfffe026c>
    3e7c:	742b0000 	strtvc	r0, [fp], #-0
    3e80:	b2000099 	andlt	r0, r0, #153	; 0x99
    3e84:	2900000c 	stmdbcs	r0, {r2, r3}
    3e88:	0c055001 	stceq	0, cr5, [r5], {1}
    3e8c:	20215064 	eorcs	r5, r1, r4, rrx
    3e90:	21260000 	teqcs	r6, r0
    3e94:	01000007 	tsteq	r0, r7
    3e98:	0098b83a 	addseq	fp, r8, sl, lsr r8
    3e9c:	0000b000 	andeq	fp, r0, r0
    3ea0:	3d9c0100 	ldfccs	f0, [ip]
    3ea4:	2800000c 	stmdacs	r0, {r2, r3}
    3ea8:	000098c8 	andeq	r9, r0, r8, asr #17
    3eac:	00000cbd 			; <UNDEFINED> instruction: 0x00000cbd
    3eb0:	00000b2c 	andeq	r0, r0, ip, lsr #22
    3eb4:	01500129 	cmpeq	r0, r9, lsr #2
    3eb8:	5101293e 	tstpl	r1, lr, lsr r9
    3ebc:	28003201 	stmdacs	r0, {r0, r9, ip, sp}
    3ec0:	000098d4 	ldrdeq	r9, [r0], -r4
    3ec4:	00000cbd 			; <UNDEFINED> instruction: 0x00000cbd
    3ec8:	00000b44 	andeq	r0, r0, r4, asr #22
    3ecc:	01500129 	cmpeq	r0, r9, lsr #2
    3ed0:	5101293f 	tstpl	r1, pc, lsr r9
    3ed4:	25003201 	strcs	r3, [r0, #-513]	; 0x201
    3ed8:	000098d8 	ldrdeq	r9, [r0], -r8
    3edc:	00000c9c 	muleq	r0, ip, ip
    3ee0:	0098e428 	addseq	lr, r8, r8, lsr #8
    3ee4:	000c3d00 	andeq	r3, ip, r0, lsl #26
    3ee8:	000b6900 	andeq	r6, fp, r0, lsl #18
    3eec:	50012900 	andpl	r2, r1, r0, lsl #18
    3ef0:	50040c05 	andpl	r0, r4, r5, lsl #24
    3ef4:	01292021 	teqeq	r9, r1, lsr #32
    3ef8:	00310151 	eorseq	r0, r1, r1, asr r1
    3efc:	0098e825 	addseq	lr, r8, r5, lsr #16
    3f00:	000c9c00 	andeq	r9, ip, r0, lsl #24
    3f04:	98f82800 	ldmls	r8!, {fp, sp}^
    3f08:	0ca70000 	stceq	0, cr0, [r7]
    3f0c:	0b8b0000 	bleq	fe2c3f14 <__bss_end__+0xfe2b92fc>
    3f10:	01290000 	teqeq	r9, r0
    3f14:	00740250 	rsbseq	r0, r4, r0, asr r2
    3f18:	01510129 	cmpeq	r1, r9, lsr #2
    3f1c:	04280030 	strteq	r0, [r8], #-48	; 0x30
    3f20:	a7000099 			; <UNDEFINED> instruction: 0xa7000099
    3f24:	a700000c 	strge	r0, [r0, -ip]
    3f28:	2900000b 	stmdbcs	r0, {r0, r1, r3}
    3f2c:	0c055001 	stceq	0, cr5, [r5], {1}
    3f30:	20215044 	eorcs	r5, r1, r4, asr #32
    3f34:	01510129 	cmpeq	r1, r9, lsr #2
    3f38:	10280030 	eorne	r0, r8, r0, lsr r0
    3f3c:	a7000099 			; <UNDEFINED> instruction: 0xa7000099
    3f40:	c300000c 	movwgt	r0, #12
    3f44:	2900000b 	stmdbcs	r0, {r0, r1, r3}
    3f48:	0c055001 	stceq	0, cr5, [r5], {1}
    3f4c:	2021504c 	eorcs	r5, r1, ip, asr #32
    3f50:	01510129 	cmpeq	r1, r9, lsr #2
    3f54:	1c280033 	stcne	0, cr0, [r8], #-204	; 0xffffff34
    3f58:	a7000099 			; <UNDEFINED> instruction: 0xa7000099
    3f5c:	df00000c 	svcle	0x0000000c
    3f60:	2900000b 	stmdbcs	r0, {r0, r1, r3}
    3f64:	0c055001 	stceq	0, cr5, [r5], {1}
    3f68:	20215050 	eorcs	r5, r1, r0, asr r0
    3f6c:	01510129 	cmpeq	r1, r9, lsr #2
    3f70:	28280030 	stmdacs	r8!, {r4, r5}
    3f74:	a7000099 			; <UNDEFINED> instruction: 0xa7000099
    3f78:	fc00000c 	stc2	0, cr0, [r0], {12}
    3f7c:	2900000b 	stmdbcs	r0, {r0, r1, r3}
    3f80:	0c055001 	stceq	0, cr5, [r5], {1}
    3f84:	20215048 	eorcs	r5, r1, r8, asr #32
    3f88:	02510129 	subseq	r0, r1, #1073741834	; 0x4000000a
    3f8c:	2800c708 	stmdacs	r0, {r3, r8, r9, sl, lr, pc}
    3f90:	00009934 	andeq	r9, r0, r4, lsr r9
    3f94:	00000ca7 	andeq	r0, r0, r7, lsr #25
    3f98:	00000c1a 	andeq	r0, r0, sl, lsl ip
    3f9c:	05500129 	ldrbeq	r0, [r0, #-297]	; 0x129
    3fa0:	2150680c 	cmpcs	r0, ip, lsl #16
    3fa4:	51012920 	tstpl	r1, r0, lsr #18
    3fa8:	010e0a03 	tsteq	lr, r3, lsl #20
    3fac:	99402800 	stmdbls	r0, {fp, sp}^
    3fb0:	0ca70000 	stceq	0, cr0, [r7]
    3fb4:	0c330000 	ldceq	0, cr0, [r3], #-0
    3fb8:	01290000 	teqeq	r9, r0
    3fbc:	00740250 	rsbseq	r0, r4, r0, asr r2
    3fc0:	01510129 	cmpeq	r1, r9, lsr #2
    3fc4:	44250033 	strtmi	r0, [r5], #-51	; 0x33
    3fc8:	9c000099 	stcls	0, cr0, [r0], {153}	; 0x99
    3fcc:	0000000c 	andeq	r0, r0, ip
    3fd0:	000bbf2c 	andeq	fp, fp, ip, lsr #30
    3fd4:	982d0100 	stmdals	sp!, {r8}
    3fd8:	20000098 	mulcs	r0, r8, r0
    3fdc:	01000000 	mrseq	r0, (UNDEF: 0)
    3fe0:	000c959c 	muleq	ip, ip, r5
    3fe4:	01df2d00 	bicseq	r2, pc, r0, lsl #26
    3fe8:	2d010000 	stccs	0, cr0, [r1, #-0]
    3fec:	00000c95 	muleq	r0, r5, ip
    3ff0:	000013fd 	strdeq	r1, [r0], -sp
    3ff4:	6c617627 	stclvs	6, cr7, [r1], #-156	; 0xffffff64
    3ff8:	2c2d0100 	stfcss	f0, [sp], #-0
    3ffc:	1b000000 	blne	4004 <__code_start__-0x3ffc>
    4000:	28000014 	stmdacs	r0, {r2, r4}
    4004:	000098a8 	andeq	r9, r0, r8, lsr #17
    4008:	00000cb2 			; <UNDEFINED> instruction: 0x00000cb2
    400c:	00000c84 	andeq	r0, r0, r4, lsl #25
    4010:	02500129 	subseq	r0, r0, #1073741834	; 0x4000000a
    4014:	2b000074 	blcs	41ec <__code_start__-0x3e14>
    4018:	000098b4 			; <UNDEFINED> instruction: 0x000098b4
    401c:	00000ca7 	andeq	r0, r0, r7, lsr #25
    4020:	02500129 	subseq	r0, r0, #1073741834	; 0x4000000a
    4024:	00000074 	andeq	r0, r0, r4, ror r0
    4028:	0c9b040e 	cfldrseq	mvf0, [fp], {14}
    402c:	2f2e0000 	svccs	0x002e0000
    4030:	0000091e 	andeq	r0, r0, lr, lsl r9
    4034:	0000091e 	andeq	r0, r0, lr, lsl r9
    4038:	9e2f8906 	cdpls	9, 2, cr8, cr15, cr6, {0}
    403c:	9e00000a 	cdpls	0, 0, cr0, cr0, cr10, {0}
    4040:	0600000a 	streq	r0, [r0], -sl
    4044:	0ba12f9c 	bleq	fe84febc <__bss_end__+0xfe8452a4>
    4048:	0ba10000 	bleq	fe844050 <__bss_end__+0xfe839438>
    404c:	a8060000 	stmdage	r6, {}	; <UNPREDICTABLE>
    4050:	00096e2f 	andeq	r6, r9, pc, lsr #28
    4054:	00096e00 	andeq	r6, r9, r0, lsl #28
    4058:	00190800 	andseq	r0, r9, r0, lsl #16
    405c:	00000b70 	andeq	r0, r0, r0, ror fp
    4060:	11cd0004 	bicne	r0, sp, r4
    4064:	01040000 	mrseq	r0, (UNDEF: 4)
    4068:	00000aa4 	andeq	r0, r0, r4, lsr #21
    406c:	000c740c 	andeq	r7, ip, ip, lsl #8
    4070:	00081600 	andeq	r1, r8, r0, lsl #12
    4074:	009a1000 	addseq	r1, sl, r0
    4078:	00012000 	andeq	r2, r1, r0
    407c:	00107000 	andseq	r7, r0, r0
    4080:	05040200 	streq	r0, [r4, #-512]	; 0x200
    4084:	00746e69 	rsbseq	r6, r4, r9, ror #28
    4088:	5a070403 	bpl	1c509c <__bss_end__+0x1ba484>
    408c:	04000001 	streq	r0, [r0], #-1
    4090:	0000002c 	andeq	r0, r0, ip, lsr #32
    4094:	dd060103 	stfles	f0, [r6, #-12]
    4098:	03000000 	movweq	r0, #0
    409c:	01850502 	orreq	r0, r5, r2, lsl #10
    40a0:	04030000 	streq	r0, [r3], #-0
    40a4:	00017505 	andeq	r7, r1, r5, lsl #10
    40a8:	05080300 	streq	r0, [r8, #-768]	; 0x300
    40ac:	00000170 	andeq	r0, r0, r0, ror r1
    40b0:	db080103 	blle	2044c4 <__bss_end__+0x1f98ac>
    40b4:	03000000 	movweq	r0, #0
    40b8:	00f60702 	rscseq	r0, r6, r2, lsl #14
    40bc:	04030000 	streq	r0, [r3], #-0
    40c0:	00015507 	andeq	r5, r1, r7, lsl #10
    40c4:	07080300 	streq	r0, [r8, -r0, lsl #6]
    40c8:	00000150 	andeq	r0, r0, r0, asr r1
    40cc:	0009b905 	andeq	fp, r9, r5, lsl #18
    40d0:	25070200 	strcs	r0, [r7, #-512]	; 0x200
    40d4:	05000000 	streq	r0, [r0, #-0]
    40d8:	000009a3 	andeq	r0, r0, r3, lsr #19
    40dc:	00462c03 	subeq	r2, r6, r3, lsl #24
    40e0:	7f050000 	svcvc	0x00050000
    40e4:	0300000a 	movweq	r0, #10
    40e8:	00004672 	andeq	r4, r0, r2, ror r6
    40ec:	09470600 	stmdbeq	r7, {r9, sl}^
    40f0:	65040000 	strvs	r0, [r4, #-0]
    40f4:	00002c01 	andeq	r2, r0, r1, lsl #24
    40f8:	03040700 	movweq	r0, #18176	; 0x4700
    40fc:	0000bca6 	andeq	fp, r0, r6, lsr #25
    4100:	09320800 	ldmdbeq	r2!, {fp}
    4104:	a8030000 	stmdage	r3, {}	; <UNPREDICTABLE>
    4108:	00000091 	muleq	r0, r1, r0
    410c:	0008ce08 	andeq	ip, r8, r8, lsl #28
    4110:	bca90300 	stclt	3, cr0, [r9]
    4114:	00000000 	andeq	r0, r0, r0
    4118:	00005409 	andeq	r5, r0, r9, lsl #8
    411c:	0000cc00 	andeq	ip, r0, r0, lsl #24
    4120:	00cc0a00 	sbceq	r0, ip, r0, lsl #20
    4124:	00030000 	andeq	r0, r3, r0
    4128:	67070403 	strvs	r0, [r7, -r3, lsl #8]
    412c:	0b000001 	bleq	4138 <__code_start__-0x3ec8>
    4130:	f4a30308 	vld4.8	{d0[0],d1[0],d2[0],d3[0]}, [r3], r8
    4134:	0c000000 	stceq	0, cr0, [r0], {-0}
    4138:	00000a64 	andeq	r0, r0, r4, ror #20
    413c:	0025a503 	eoreq	sl, r5, r3, lsl #10
    4140:	0c000000 	stceq	0, cr0, [r0], {-0}
    4144:	00000a6c 	andeq	r0, r0, ip, ror #20
    4148:	009daa03 	addseq	sl, sp, r3, lsl #20
    414c:	00040000 	andeq	r0, r4, r0
    4150:	0009f705 	andeq	pc, r9, r5, lsl #14
    4154:	d3ab0300 			; <UNDEFINED> instruction: 0xd3ab0300
    4158:	05000000 	streq	r0, [r0, #-0]
    415c:	00000897 	muleq	r0, r7, r8
    4160:	0070af03 	rsbseq	sl, r0, r3, lsl #30
    4164:	040d0000 	streq	r0, [sp], #-0
    4168:	0112040e 	tsteq	r2, lr, lsl #8
    416c:	01030000 	mrseq	r0, (UNDEF: 3)
    4170:	0000e408 	andeq	lr, r0, r8, lsl #8
    4174:	01120400 	tsteq	r2, r0, lsl #8
    4178:	21050000 	mrscs	r0, (UNDEF: 5)
    417c:	0500000b 	streq	r0, [r0, #-11]
    4180:	00006216 	andeq	r6, r0, r6, lsl r2
    4184:	08a80f00 	stmiaeq	r8!, {r8, r9, sl, fp}
    4188:	05180000 	ldreq	r0, [r8, #-0]
    418c:	00017c2d 	andeq	r7, r1, sp, lsr #24
    4190:	0a180c00 	beq	607198 <__bss_end__+0x5fc580>
    4194:	2f050000 	svccs	0x00050000
    4198:	0000017c 	andeq	r0, r0, ip, ror r1
    419c:	6b5f1000 	blvs	17c81a4 <__bss_end__+0x17bd58c>
    41a0:	25300500 	ldrcs	r0, [r0, #-1280]!	; 0x500
    41a4:	04000000 	streq	r0, [r0], #-0
    41a8:	000a4f0c 	andeq	r4, sl, ip, lsl #30
    41ac:	25300500 	ldrcs	r0, [r0, #-1280]!	; 0x500
    41b0:	08000000 	stmdaeq	r0, {}	; <UNPREDICTABLE>
    41b4:	0008830c 	andeq	r8, r8, ip, lsl #6
    41b8:	25300500 	ldrcs	r0, [r0, #-1280]!	; 0x500
    41bc:	0c000000 	stceq	0, cr0, [r0], {-0}
    41c0:	000b680c 	andeq	r6, fp, ip, lsl #16
    41c4:	25300500 	ldrcs	r0, [r0, #-1280]!	; 0x500
    41c8:	10000000 	andne	r0, r0, r0
    41cc:	00785f10 	rsbseq	r5, r8, r0, lsl pc
    41d0:	01823105 	orreq	r3, r2, r5, lsl #2
    41d4:	00140000 	andseq	r0, r4, r0
    41d8:	0129040e 	teqeq	r9, lr, lsl #8
    41dc:	1e090000 	cdpne	0, 0, cr0, cr9, cr0, {0}
    41e0:	92000001 	andls	r0, r0, #1
    41e4:	0a000001 	beq	41f0 <__code_start__-0x3e10>
    41e8:	000000cc 	andeq	r0, r0, ip, asr #1
    41ec:	c90f0000 	stmdbgt	pc, {}	; <UNPREDICTABLE>
    41f0:	24000008 	strcs	r0, [r0], #-8
    41f4:	020b3505 	andeq	r3, fp, #20971520	; 0x1400000
    41f8:	810c0000 	mrshi	r0, (UNDEF: 12)
    41fc:	05000007 	streq	r0, [r0, #-7]
    4200:	00002537 	andeq	r2, r0, r7, lsr r5
    4204:	870c0000 	strhi	r0, [ip, -r0]
    4208:	0500000a 	streq	r0, [r0, #-10]
    420c:	00002538 	andeq	r2, r0, r8, lsr r5
    4210:	af0c0400 	svcge	0x000c0400
    4214:	05000007 	streq	r0, [r0, #-7]
    4218:	00002539 	andeq	r2, r0, r9, lsr r5
    421c:	580c0800 	stmdapl	ip, {fp}
    4220:	0500000c 	streq	r0, [r0, #-12]
    4224:	0000253a 	andeq	r2, r0, sl, lsr r5
    4228:	870c0c00 	strhi	r0, [ip, -r0, lsl #24]
    422c:	05000009 	streq	r0, [r0, #-9]
    4230:	0000253b 	andeq	r2, r0, fp, lsr r5
    4234:	5c0c1000 	stcpl	0, cr1, [ip], {-0}
    4238:	05000009 	streq	r0, [r0, #-9]
    423c:	0000253c 	andeq	r2, r0, ip, lsr r5
    4240:	6d0c1400 	cfstrsvs	mvf1, [ip, #-0]
    4244:	0500000b 	streq	r0, [r0, #-11]
    4248:	0000253d 	andeq	r2, r0, sp, lsr r5
    424c:	d90c1800 	stmdble	ip, {fp, ip}
    4250:	05000009 	streq	r0, [r0, #-9]
    4254:	0000253e 	andeq	r2, r0, lr, lsr r5
    4258:	1f0c1c00 	svcne	0x000c1c00
    425c:	0500000c 	streq	r0, [r0, #-12]
    4260:	0000253f 	andeq	r2, r0, pc, lsr r5
    4264:	11002000 	mrsne	r2, (UNDEF: 0)
    4268:	000007be 			; <UNDEFINED> instruction: 0x000007be
    426c:	48050108 	stmdami	r5, {r3, r8}
    4270:	0000024b 	andeq	r0, r0, fp, asr #4
    4274:	00086a0c 	andeq	r6, r8, ip, lsl #20
    4278:	4b490500 	blmi	1245680 <__bss_end__+0x123aa68>
    427c:	00000002 	andeq	r0, r0, r2
    4280:	0006fc0c 	andeq	pc, r6, ip, lsl #24
    4284:	4b4a0500 	blmi	128568c <__bss_end__+0x127aa74>
    4288:	80000002 	andhi	r0, r0, r2
    428c:	000b1312 	andeq	r1, fp, r2, lsl r3
    4290:	1e4c0500 	cdpne	5, 4, cr0, cr12, cr0, {0}
    4294:	00000001 	andeq	r0, r0, r1
    4298:	07e31201 	strbeq	r1, [r3, r1, lsl #4]!
    429c:	4f050000 	svcmi	0x00050000
    42a0:	0000011e 	andeq	r0, r0, lr, lsl r1
    42a4:	09000104 	stmdbeq	r0, {r2, r8}
    42a8:	0000010a 	andeq	r0, r0, sl, lsl #2
    42ac:	0000025b 	andeq	r0, r0, fp, asr r2
    42b0:	0000cc0a 	andeq	ip, r0, sl, lsl #24
    42b4:	11001f00 	tstne	r0, r0, lsl #30
    42b8:	00000990 	muleq	r0, r0, r9
    42bc:	5b050190 	blpl	144904 <__bss_end__+0x139cec>
    42c0:	00000299 	muleq	r0, r9, r2
    42c4:	000a180c 	andeq	r1, sl, ip, lsl #16
    42c8:	995c0500 	ldmdbls	ip, {r8, sl}^
    42cc:	00000002 	andeq	r0, r0, r2
    42d0:	000a300c 	andeq	r3, sl, ip
    42d4:	255d0500 	ldrbcs	r0, [sp, #-1280]	; 0x500
    42d8:	04000000 	streq	r0, [r0], #-0
    42dc:	00087e0c 	andeq	r7, r8, ip, lsl #28
    42e0:	9f5f0500 	svcls	0x005f0500
    42e4:	08000002 	stmdaeq	r0, {r1}
    42e8:	0007be0c 	andeq	fp, r7, ip, lsl #28
    42ec:	0b600500 	bleq	18056f4 <__bss_end__+0x17faadc>
    42f0:	88000002 	stmdahi	r0, {r1}
    42f4:	5b040e00 	blpl	107afc <__bss_end__+0xfcee4>
    42f8:	09000002 	stmdbeq	r0, {r1}
    42fc:	000002af 	andeq	r0, r0, pc, lsr #5
    4300:	000002af 	andeq	r0, r0, pc, lsr #5
    4304:	0000cc0a 	andeq	ip, r0, sl, lsl #24
    4308:	0e001f00 	cdpeq	15, 0, cr1, cr0, cr0, {0}
    430c:	0002b504 	andeq	fp, r2, r4, lsl #10
    4310:	e30f1300 	movw	r1, #62208	; 0xf300
    4314:	08000009 	stmdaeq	r0, {r0, r3}
    4318:	02db7305 	sbcseq	r7, fp, #335544320	; 0x14000000
    431c:	a40c0000 	strge	r0, [ip], #-0
    4320:	05000007 	streq	r0, [r0, #-7]
    4324:	0002db74 	andeq	sp, r2, r4, ror fp
    4328:	080c0000 	stmdaeq	ip, {}	; <UNPREDICTABLE>
    432c:	05000007 	streq	r0, [r0, #-7]
    4330:	00002575 	andeq	r2, r0, r5, ror r5
    4334:	0e000400 	cfcpyseq	mvf0, mvf0
    4338:	00005404 	andeq	r5, r0, r4, lsl #8
    433c:	0a020f00 	beq	87f44 <__bss_end__+0x7d32c>
    4340:	05680000 	strbeq	r0, [r8, #-0]!
    4344:	00040bb3 			; <UNDEFINED> instruction: 0x00040bb3
    4348:	705f1000 	subsvc	r1, pc, r0
    434c:	dbb40500 	blle	fed05754 <__bss_end__+0xfecfab3c>
    4350:	00000002 	andeq	r0, r0, r2
    4354:	00725f10 	rsbseq	r5, r2, r0, lsl pc
    4358:	0025b505 	eoreq	fp, r5, r5, lsl #10
    435c:	10040000 	andne	r0, r4, r0
    4360:	0500775f 	streq	r7, [r0, #-1887]	; 0x75f
    4364:	000025b6 			; <UNDEFINED> instruction: 0x000025b6
    4368:	dc0c0800 	stcle	8, cr0, [ip], {-0}
    436c:	05000007 	streq	r0, [r0, #-7]
    4370:	00003fb7 			; <UNDEFINED> instruction: 0x00003fb7
    4374:	ef0c0c00 	svc	0x000c0c00
    4378:	05000008 	streq	r0, [r0, #-8]
    437c:	00003fb8 			; <UNDEFINED> instruction: 0x00003fb8
    4380:	5f100e00 	svcpl	0x00100e00
    4384:	05006662 	streq	r6, [r0, #-1634]	; 0x662
    4388:	0002b6b9 			; <UNDEFINED> instruction: 0x0002b6b9
    438c:	4b0c1000 	blmi	308394 <__bss_end__+0x2fd77c>
    4390:	05000007 	streq	r0, [r0, #-7]
    4394:	000025ba 			; <UNDEFINED> instruction: 0x000025ba
    4398:	cc0c1800 	stcgt	8, cr1, [ip], {-0}
    439c:	05000007 	streq	r0, [r0, #-7]
    43a0:	00010ac1 	andeq	r0, r1, r1, asr #21
    43a4:	7f0c1c00 	svcvc	0x000c1c00
    43a8:	0500000c 	streq	r0, [r0, #-12]
    43ac:	000566c3 	andeq	r6, r5, r3, asr #13
    43b0:	990c2000 	stmdbls	ip, {sp}
    43b4:	0500000c 	streq	r0, [r0, #-12]
    43b8:	000590c5 	andeq	r9, r5, r5, asr #1
    43bc:	740c2400 	strvc	r2, [ip], #-1024	; 0x400
    43c0:	0500000a 	streq	r0, [r0, #-10]
    43c4:	0005b4c8 	andeq	fp, r5, r8, asr #9
    43c8:	390c2800 	stmdbcc	ip, {fp, sp}
    43cc:	0500000c 	streq	r0, [r0, #-12]
    43d0:	0005cec9 	andeq	ip, r5, r9, asr #29
    43d4:	5f102c00 	svcpl	0x00102c00
    43d8:	05006275 	streq	r6, [r0, #-629]	; 0x275
    43dc:	0002b6cc 	andeq	fp, r2, ip, asr #13
    43e0:	5f103000 	svcpl	0x00103000
    43e4:	05007075 	streq	r7, [r0, #-117]	; 0x75
    43e8:	0002dbcd 	andeq	sp, r2, sp, asr #23
    43ec:	5f103800 	svcpl	0x00103800
    43f0:	05007275 	streq	r7, [r0, #-629]	; 0x275
    43f4:	000025ce 	andeq	r2, r0, lr, asr #11
    43f8:	8f0c3c00 	svchi	0x000c3c00
    43fc:	05000007 	streq	r0, [r0, #-7]
    4400:	0005d4d1 	ldrdeq	sp, [r5], -r1
    4404:	e40c4000 	str	r4, [ip], #-0
    4408:	0500000b 	streq	r0, [r0, #-11]
    440c:	0005e4d2 	ldrdeq	lr, [r5], -r2
    4410:	5f104300 	svcpl	0x00104300
    4414:	0500626c 	streq	r6, [r0, #-620]	; 0x26c
    4418:	0002b6d5 	ldrdeq	fp, [r2], -r5
    441c:	f20c4400 	vshl.s8	d4, d0, d12
    4420:	05000007 	streq	r0, [r0, #-7]
    4424:	000025d8 	ldrdeq	r2, [r0], -r8
    4428:	660c4c00 	strvs	r4, [ip], -r0, lsl #24
    442c:	05000009 	streq	r0, [r0, #-9]
    4430:	00007bd9 	ldrdeq	r7, [r0], -r9
    4434:	cf0c5000 	svcgt	0x000c5000
    4438:	0500000b 	streq	r0, [r0, #-11]
    443c:	000429dc 	ldrdeq	r2, [r4], -ip
    4440:	4e0c5400 	cfcpysmi	mvf5, mvf12
    4444:	05000009 	streq	r0, [r0, #-9]
    4448:	0000ffe0 	andeq	pc, r0, r0, ror #31
    444c:	0a0c5800 	beq	31a454 <__bss_end__+0x30f83c>
    4450:	0500000a 	streq	r0, [r0, #-10]
    4454:	0000f4e2 	andeq	pc, r0, r2, ror #9
    4458:	540c5c00 	strpl	r5, [ip], #-3072	; 0xc00
    445c:	05000009 	streq	r0, [r0, #-9]
    4460:	000025e3 	andeq	r2, r0, r3, ror #11
    4464:	14006400 	strne	r6, [r0], #-1024	; 0x400
    4468:	00000025 	andeq	r0, r0, r5, lsr #32
    446c:	00000429 	andeq	r0, r0, r9, lsr #8
    4470:	00042915 	andeq	r2, r4, r5, lsl r9
    4474:	010a1500 	tsteq	sl, r0, lsl #10
    4478:	0c150000 	ldceq	0, cr0, [r5], {-0}
    447c:	15000001 	strne	r0, [r0, #-1]
    4480:	00000025 	andeq	r0, r0, r5, lsr #32
    4484:	34040e00 	strcc	r0, [r4], #-3584	; 0xe00
    4488:	04000004 	streq	r0, [r0], #-4
    448c:	00000429 	andeq	r0, r0, r9, lsr #8
    4490:	000a5716 	andeq	r5, sl, r6, lsl r7
    4494:	05042800 	streq	r2, [r4, #-2048]	; 0x800
    4498:	05660238 	strbeq	r0, [r6, #-568]!	; 0x238
    449c:	d2170000 	andsle	r0, r7, #0
    44a0:	05000009 	streq	r0, [r0, #-9]
    44a4:	0025023a 	eoreq	r0, r5, sl, lsr r2
    44a8:	17000000 	strne	r0, [r0, -r0]
    44ac:	000007eb 	andeq	r0, r0, fp, ror #15
    44b0:	3b023f05 	blcc	940cc <__bss_end__+0x894b4>
    44b4:	04000006 	streq	r0, [r0], #-6
    44b8:	0008df17 	andeq	sp, r8, r7, lsl pc
    44bc:	023f0500 	eorseq	r0, pc, #0, 10
    44c0:	0000063b 	andeq	r0, r0, fp, lsr r6
    44c4:	08a01708 	stmiaeq	r0!, {r3, r8, r9, sl, ip}
    44c8:	3f050000 	svccc	0x00050000
    44cc:	00063b02 	andeq	r3, r6, r2, lsl #22
    44d0:	2b170c00 	blcs	5c74d8 <__bss_end__+0x5bc8c0>
    44d4:	0500000a 	streq	r0, [r0, #-10]
    44d8:	00250241 	eoreq	r0, r5, r1, asr #4
    44dc:	17100000 	ldrne	r0, [r0, -r0]
    44e0:	00000716 	andeq	r0, r0, r6, lsl r7
    44e4:	1d024205 	sfmne	f4, 4, [r2, #-20]	; 0xffffffec
    44e8:	14000008 	strne	r0, [r0], #-8
    44ec:	000b4917 	andeq	r4, fp, r7, lsl r9
    44f0:	02440500 	subeq	r0, r4, #0, 10
    44f4:	00000025 	andeq	r0, r0, r5, lsr #32
    44f8:	0a351730 	beq	d4a1c0 <__bss_end__+0xd3f5a8>
    44fc:	45050000 	strmi	r0, [r5, #-0]
    4500:	00058a02 	andeq	r8, r5, r2, lsl #20
    4504:	98173400 	ldmdals	r7, {sl, ip, sp}
    4508:	05000009 	streq	r0, [r0, #-9]
    450c:	00250247 	eoreq	r0, r5, r7, asr #4
    4510:	17380000 	ldrne	r0, [r8, -r0]!
    4514:	00000a45 	andeq	r0, r0, r5, asr #20
    4518:	38024905 	stmdacc	r2, {r0, r2, r8, fp, lr}
    451c:	3c000008 	stccc	0, cr0, [r0], {8}
    4520:	00092a17 	andeq	r2, r9, r7, lsl sl
    4524:	024c0500 	subeq	r0, ip, #0, 10
    4528:	0000017c 	andeq	r0, r0, ip, ror r1
    452c:	08bf1740 	ldmeq	pc!, {r6, r8, r9, sl, ip}	; <UNPREDICTABLE>
    4530:	4d050000 	stcmi	0, cr0, [r5, #-0]
    4534:	00002502 	andeq	r2, r0, r2, lsl #10
    4538:	53174400 	tstpl	r7, #0, 8
    453c:	0500000c 	streq	r0, [r0, #-12]
    4540:	017c024e 	cmneq	ip, lr, asr #4
    4544:	17480000 	strbne	r0, [r8, -r0]
    4548:	000009af 	andeq	r0, r0, pc, lsr #19
    454c:	3e024f05 	cdpcc	15, 0, cr4, cr2, cr5, {0}
    4550:	4c000008 	stcmi	0, cr0, [r0], {8}
    4554:	0008e717 	andeq	lr, r8, r7, lsl r7
    4558:	02520500 	subseq	r0, r2, #0, 10
    455c:	00000025 	andeq	r0, r0, r5, lsr #32
    4560:	080e1750 	stmdaeq	lr, {r4, r6, r8, r9, sl, ip}
    4564:	53050000 	movwpl	r0, #20480	; 0x5000
    4568:	00010c02 	andeq	r0, r1, r2, lsl #24
    456c:	cb175400 	blgt	5d9574 <__bss_end__+0x5ce95c>
    4570:	05000009 	streq	r0, [r0, #-9]
    4574:	07fb0276 			; <UNDEFINED> instruction: 0x07fb0276
    4578:	18580000 	ldmdane	r8, {}^	; <UNPREDICTABLE>
    457c:	00000990 	muleq	r0, r0, r9
    4580:	99027a05 	stmdbls	r2, {r0, r2, r9, fp, ip, sp, lr}
    4584:	48000002 	stmdami	r0, {r1}
    4588:	08fc1801 	ldmeq	ip!, {r0, fp, ip}^
    458c:	7b050000 	blvc	144594 <__bss_end__+0x13997c>
    4590:	00025b02 	andeq	r5, r2, r2, lsl #22
    4594:	18014c00 	stmdane	r1, {sl, fp, lr}
    4598:	00000bb5 			; <UNDEFINED> instruction: 0x00000bb5
    459c:	4f027f05 	svcmi	0x00027f05
    45a0:	dc000008 	stcle	0, cr0, [r0], {8}
    45a4:	07d41802 	ldrbeq	r1, [r4, r2, lsl #16]
    45a8:	84050000 	strhi	r0, [r5], #-0
    45ac:	00060002 	andeq	r0, r6, r2
    45b0:	1802e000 	stmdane	r2, {sp, lr, pc}
    45b4:	000007b9 			; <UNDEFINED> instruction: 0x000007b9
    45b8:	5b028505 	blpl	a59d4 <__bss_end__+0x9adbc>
    45bc:	ec000008 	stc	0, cr0, [r0], {8}
    45c0:	040e0002 	streq	r0, [lr], #-2
    45c4:	0000040b 	andeq	r0, r0, fp, lsl #8
    45c8:	00002514 	andeq	r2, r0, r4, lsl r5
    45cc:	00058a00 	andeq	r8, r5, r0, lsl #20
    45d0:	04291500 	strteq	r1, [r9], #-1280	; 0x500
    45d4:	0a150000 	beq	5445dc <__bss_end__+0x5399c4>
    45d8:	15000001 	strne	r0, [r0, #-1]
    45dc:	0000058a 	andeq	r0, r0, sl, lsl #11
    45e0:	00002515 	andeq	r2, r0, r5, lsl r5
    45e4:	040e0000 	streq	r0, [lr], #-0
    45e8:	00000119 	andeq	r0, r0, r9, lsl r1
    45ec:	056c040e 	strbeq	r0, [ip, #-1038]!	; 0x40e
    45f0:	86140000 	ldrhi	r0, [r4], -r0
    45f4:	b4000000 	strlt	r0, [r0], #-0
    45f8:	15000005 	strne	r0, [r0, #-5]
    45fc:	00000429 	andeq	r0, r0, r9, lsr #8
    4600:	00010a15 	andeq	r0, r1, r5, lsl sl
    4604:	00861500 	addeq	r1, r6, r0, lsl #10
    4608:	25150000 	ldrcs	r0, [r5, #-0]
    460c:	00000000 	andeq	r0, r0, r0
    4610:	0596040e 	ldreq	r0, [r6, #1038]	; 0x40e
    4614:	25140000 	ldrcs	r0, [r4, #-0]
    4618:	ce000000 	cdpgt	0, 0, cr0, cr0, cr0, {0}
    461c:	15000005 	strne	r0, [r0, #-5]
    4620:	00000429 	andeq	r0, r0, r9, lsr #8
    4624:	00010a15 	andeq	r0, r1, r5, lsl sl
    4628:	040e0000 	streq	r0, [lr], #-0
    462c:	000005ba 			; <UNDEFINED> instruction: 0x000005ba
    4630:	00005409 	andeq	r5, r0, r9, lsl #8
    4634:	0005e400 	andeq	lr, r5, r0, lsl #8
    4638:	00cc0a00 	sbceq	r0, ip, r0, lsl #20
    463c:	00020000 	andeq	r0, r2, r0
    4640:	00005409 	andeq	r5, r0, r9, lsl #8
    4644:	0005f400 	andeq	pc, r5, r0, lsl #8
    4648:	00cc0a00 	sbceq	r0, ip, r0, lsl #20
    464c:	00000000 	andeq	r0, r0, r0
    4650:	0009f006 	andeq	pc, r9, r6
    4654:	011d0500 	tsteq	sp, r0, lsl #10
    4658:	000002e1 	andeq	r0, r0, r1, ror #5
    465c:	000b7719 	andeq	r7, fp, r9, lsl r7
    4660:	21050c00 	tstcs	r5, r0, lsl #24
    4664:	00063501 	andeq	r3, r6, r1, lsl #10
    4668:	0a181700 	beq	60a270 <__bss_end__+0x5ff658>
    466c:	23050000 	movwcs	r0, #20480	; 0x5000
    4670:	00063501 	andeq	r3, r6, r1, lsl #10
    4674:	f5170000 			; <UNDEFINED> instruction: 0xf5170000
    4678:	05000008 	streq	r0, [r0, #-8]
    467c:	00250124 	eoreq	r0, r5, r4, lsr #2
    4680:	17040000 	strne	r0, [r4, -r0]
    4684:	000009ea 	andeq	r0, r0, sl, ror #19
    4688:	3b012505 	blcc	4daa4 <__bss_end__+0x42e8c>
    468c:	08000006 	stmdaeq	r0, {r1, r2}
    4690:	00040e00 	andeq	r0, r4, r0, lsl #28
    4694:	0e000006 	cdpeq	0, 0, cr0, cr0, cr6, {0}
    4698:	0005f404 	andeq	pc, r5, r4, lsl #8
    469c:	070e1900 	streq	r1, [lr, -r0, lsl #18]
    46a0:	050e0000 	streq	r0, [lr, #-0]
    46a4:	0676013d 			; <UNDEFINED> instruction: 0x0676013d
    46a8:	5e170000 	cdppl	0, 1, cr0, cr7, cr0, {0}
    46ac:	0500000a 	streq	r0, [r0, #-10]
    46b0:	0676013e 			; <UNDEFINED> instruction: 0x0676013e
    46b4:	17000000 	strne	r0, [r0, -r0]
    46b8:	00000a98 	muleq	r0, r8, sl
    46bc:	76013f05 	strvc	r3, [r1], -r5, lsl #30
    46c0:	06000006 	streq	r0, [r0], -r6
    46c4:	000b1c17 	andeq	r1, fp, r7, lsl ip
    46c8:	01400500 	cmpeq	r0, r0, lsl #10
    46cc:	0000005b 	andeq	r0, r0, fp, asr r0
    46d0:	5b09000c 	blpl	244708 <__bss_end__+0x239af0>
    46d4:	86000000 	strhi	r0, [r0], -r0
    46d8:	0a000006 	beq	46f8 <__code_start__-0x3908>
    46dc:	000000cc 	andeq	r0, r0, ip, asr #1
    46e0:	d01a0002 	andsle	r0, sl, r2
    46e4:	87025705 	strhi	r5, [r2, -r5, lsl #14]
    46e8:	17000007 	strne	r0, [r0, -r7]
    46ec:	00000b5b 	andeq	r0, r0, fp, asr fp
    46f0:	2c025905 	stccs	9, cr5, [r2], {5}
    46f4:	00000000 	andeq	r0, r0, r0
    46f8:	000b0617 	andeq	r0, fp, r7, lsl r6
    46fc:	025a0500 	subseq	r0, sl, #0, 10
    4700:	0000010c 	andeq	r0, r0, ip, lsl #2
    4704:	09111704 	ldmdbeq	r1, {r2, r8, r9, sl, ip}
    4708:	5b050000 	blpl	144710 <__bss_end__+0x139af8>
    470c:	00078702 	andeq	r8, r7, r2, lsl #14
    4710:	2a170800 	bcs	5c6718 <__bss_end__+0x5bbb00>
    4714:	0500000c 	streq	r0, [r0, #-12]
    4718:	0192025c 	orrseq	r0, r2, ip, asr r2
    471c:	17240000 	strne	r0, [r4, -r0]!
    4720:	000008b0 			; <UNDEFINED> instruction: 0x000008b0
    4724:	25025d05 	strcs	r5, [r2, #-3333]	; 0xd05
    4728:	48000000 	stmdami	r0, {}	; <UNPREDICTABLE>
    472c:	000a1317 	andeq	r1, sl, r7, lsl r3
    4730:	025e0500 	subseq	r0, lr, #0, 10
    4734:	00000069 	andeq	r0, r0, r9, rrx
    4738:	0c401750 	mcrreq	7, 5, r1, r0, cr0
    473c:	5f050000 	svcpl	0x00050000
    4740:	00064102 	andeq	r4, r6, r2, lsl #2
    4744:	1e175800 	cdpne	8, 1, cr5, cr7, cr0, {0}
    4748:	0500000a 	streq	r0, [r0, #-10]
    474c:	00f40260 	rscseq	r0, r4, r0, ror #4
    4750:	17680000 	strbne	r0, [r8, -r0]!
    4754:	00000c45 	andeq	r0, r0, r5, asr #24
    4758:	f4026105 	vst4.8	{d6,d8,d10,d12}, [r2], r5
    475c:	70000000 	andvc	r0, r0, r0
    4760:	00077317 	andeq	r7, r7, r7, lsl r3
    4764:	02620500 	rsbeq	r0, r2, #0, 10
    4768:	000000f4 	strdeq	r0, [r0], -r4
    476c:	0b971778 	bleq	fe5ca554 <__bss_end__+0xfe5bf93c>
    4770:	63050000 	movwvs	r0, #20480	; 0x5000
    4774:	00079702 	andeq	r9, r7, r2, lsl #14
    4778:	05178000 	ldreq	r8, [r7, #-0]
    477c:	05000009 	streq	r0, [r0, #-9]
    4780:	07a70264 	streq	r0, [r7, r4, ror #4]!
    4784:	17880000 	strne	r0, [r8, r0]
    4788:	00000b29 	andeq	r0, r0, r9, lsr #22
    478c:	25026505 	strcs	r6, [r2, #-1285]	; 0x505
    4790:	a0000000 	andge	r0, r0, r0
    4794:	00085c17 	andeq	r5, r8, r7, lsl ip
    4798:	02660500 	rsbeq	r0, r6, #0, 10
    479c:	000000f4 	strdeq	r0, [r0], -r4
    47a0:	076417a4 	strbeq	r1, [r4, -r4, lsr #15]!
    47a4:	67050000 	strvs	r0, [r5, -r0]
    47a8:	0000f402 	andeq	pc, r0, r2, lsl #8
    47ac:	4b17ac00 	blmi	5ef7b4 <__bss_end__+0x5e4b9c>
    47b0:	05000008 	streq	r0, [r0, #-8]
    47b4:	00f40268 	rscseq	r0, r4, r8, ror #4
    47b8:	17b40000 	ldrne	r0, [r4, r0]!
    47bc:	0000072b 	andeq	r0, r0, fp, lsr #14
    47c0:	f4026905 	vst2.8	{d6,d8}, [r2], r5
    47c4:	bc000000 	stclt	0, cr0, [r0], {-0}
    47c8:	00073a17 	andeq	r3, r7, r7, lsl sl
    47cc:	026a0500 	rsbeq	r0, sl, #0, 10
    47d0:	000000f4 	strdeq	r0, [r0], -r4
    47d4:	09d017c4 	ldmibeq	r0, {r2, r6, r7, r8, r9, sl, ip}^
    47d8:	6b050000 	blvs	1447e0 <__bss_end__+0x139bc8>
    47dc:	00002502 	andeq	r2, r0, r2, lsl #10
    47e0:	0900cc00 	stmdbeq	r0, {sl, fp, lr, pc}
    47e4:	00000112 	andeq	r0, r0, r2, lsl r1
    47e8:	00000797 	muleq	r0, r7, r7
    47ec:	0000cc0a 	andeq	ip, r0, sl, lsl #24
    47f0:	09001900 	stmdbeq	r0, {r8, fp, ip}
    47f4:	00000112 	andeq	r0, r0, r2, lsl r1
    47f8:	000007a7 	andeq	r0, r0, r7, lsr #15
    47fc:	0000cc0a 	andeq	ip, r0, sl, lsl #24
    4800:	09000700 	stmdbeq	r0, {r8, r9, sl}
    4804:	00000112 	andeq	r0, r0, r2, lsl r1
    4808:	000007b7 			; <UNDEFINED> instruction: 0x000007b7
    480c:	0000cc0a 	andeq	ip, r0, sl, lsl #24
    4810:	1a001700 	bne	a418 <__FUNCTION__.4336+0x1d0>
    4814:	027005f0 	rsbseq	r0, r0, #240, 10	; 0x3c000000
    4818:	000007db 	ldrdeq	r0, [r0], -fp
    481c:	00098017 	andeq	r8, r9, r7, lsl r0
    4820:	02730500 	rsbseq	r0, r3, #0, 10
    4824:	000007db 	ldrdeq	r0, [r0], -fp
    4828:	0b8e1700 	bleq	fe38a430 <__bss_end__+0xfe37f818>
    482c:	74050000 	strvc	r0, [r5], #-0
    4830:	0007eb02 	andeq	lr, r7, r2, lsl #22
    4834:	09007800 	stmdbeq	r0, {fp, ip, sp, lr}
    4838:	000002db 	ldrdeq	r0, [r0], -fp
    483c:	000007eb 	andeq	r0, r0, fp, ror #15
    4840:	0000cc0a 	andeq	ip, r0, sl, lsl #24
    4844:	09001d00 	stmdbeq	r0, {r8, sl, fp, ip}
    4848:	0000002c 	andeq	r0, r0, ip, lsr #32
    484c:	000007fb 	strdeq	r0, [r0], -fp
    4850:	0000cc0a 	andeq	ip, r0, sl, lsl #24
    4854:	1b001d00 	blne	bc5c <__bss_end__+0x1044>
    4858:	025505f0 	subseq	r0, r5, #240, 10	; 0x3c000000
    485c:	0000081d 	andeq	r0, r0, sp, lsl r8
    4860:	000a571c 	andeq	r5, sl, ip, lsl r7
    4864:	026c0500 	rsbeq	r0, ip, #0, 10
    4868:	00000686 	andeq	r0, r0, r6, lsl #13
    486c:	000bea1c 	andeq	lr, fp, ip, lsl sl
    4870:	02750500 	rsbseq	r0, r5, #0, 10
    4874:	000007b7 			; <UNDEFINED> instruction: 0x000007b7
    4878:	01120900 	tsteq	r2, r0, lsl #18
    487c:	082d0000 	stmdaeq	sp!, {}	; <UNPREDICTABLE>
    4880:	cc0a0000 	stcgt	0, cr0, [sl], {-0}
    4884:	18000000 	stmdane	r0, {}	; <UNPREDICTABLE>
    4888:	08381d00 	ldmdaeq	r8!, {r8, sl, fp, ip}
    488c:	29150000 	ldmdbcs	r5, {}	; <UNPREDICTABLE>
    4890:	00000004 	andeq	r0, r0, r4
    4894:	082d040e 	stmdaeq	sp!, {r1, r2, r3, sl}
    4898:	040e0000 	streq	r0, [lr], #-0
    489c:	0000017c 	andeq	r0, r0, ip, ror r1
    48a0:	00084f1d 	andeq	r4, r8, sp, lsl pc
    48a4:	00251500 	eoreq	r1, r5, r0, lsl #10
    48a8:	0e000000 	cdpeq	0, 0, cr0, cr0, cr0, {0}
    48ac:	00085504 	andeq	r5, r8, r4, lsl #10
    48b0:	44040e00 	strmi	r0, [r4], #-3584	; 0xe00
    48b4:	09000008 	stmdbeq	r0, {r3}
    48b8:	000005f4 	strdeq	r0, [r0], -r4
    48bc:	0000086b 	andeq	r0, r0, fp, ror #16
    48c0:	0000cc0a 	andeq	ip, r0, sl, lsl #24
    48c4:	1e000200 	cdpne	2, 0, cr0, cr0, cr0, {0}
    48c8:	00000b3d 	andeq	r0, r0, sp, lsr fp
    48cc:	2902fd05 	stmdbcs	r2, {r0, r2, r8, sl, fp, ip, sp, lr, pc}
    48d0:	1e000004 	cdpne	0, 0, cr0, cr0, cr4, {0}
    48d4:	00000b36 	andeq	r0, r0, r6, lsr fp
    48d8:	2f02fe05 	svccs	0x0002fe05
    48dc:	14000004 	strne	r0, [r0], #-4
    48e0:	00000025 	andeq	r0, r0, r5, lsr #32
    48e4:	00000892 	muleq	r0, r2, r8
    48e8:	00002515 	andeq	r2, r0, r5, lsl r5
    48ec:	401f0000 	andsmi	r0, pc, r0
    48f0:	06000005 	streq	r0, [r0], -r5
    48f4:	00089d1d 	andeq	r9, r8, sp, lsl sp
    48f8:	83040e00 	movwhi	r0, #19968	; 0x4e00
    48fc:	14000008 	strne	r0, [r0], #-8
    4900:	00000025 	andeq	r0, r0, r5, lsr #32
    4904:	000008b2 			; <UNDEFINED> instruction: 0x000008b2
    4908:	00058a15 	andeq	r8, r5, r5, lsl sl
    490c:	7d1f0000 	ldcvc	0, cr0, [pc, #-0]	; 4914 <__code_start__-0x36ec>
    4910:	06000005 	streq	r0, [r0], -r5
    4914:	0008bd22 	andeq	fp, r8, r2, lsr #26
    4918:	a3040e00 	movwge	r0, #19968	; 0x4e00
    491c:	20000008 	andcs	r0, r0, r8
    4920:	00005401 	andeq	r5, r0, r1, lsl #8
    4924:	000c0700 	andeq	r0, ip, r0, lsl #14
    4928:	21000009 	tstcs	r0, r9
    492c:	00000754 	andeq	r0, r0, r4, asr r7
    4930:	0b7d2100 	bleq	1f4cd38 <__bss_end__+0x1f42120>
    4934:	21010000 	mrscs	r0, (UNDEF: 1)
    4938:	00000bd5 	ldrdeq	r0, [r0], -r5
    493c:	07952104 	ldreq	r2, [r5, r4, lsl #2]
    4940:	21050000 	mrscs	r0, (UNDEF: 5)
    4944:	00000938 	andeq	r0, r0, r8, lsr r9
    4948:	0bf22106 	bleq	ffc8cd68 <__bss_end__+0xffc82150>
    494c:	21070000 	mrscs	r0, (UNDEF: 7)
    4950:	00000c01 	andeq	r0, r0, r1, lsl #24
    4954:	0c102103 	ldfeqs	f2, [r0], {3}
    4958:	00020000 	andeq	r0, r2, r0
    495c:	000ccf05 	andeq	ip, ip, r5, lsl #30
    4960:	c3150700 	tstgt	r5, #0, 14
    4964:	22000008 	andcs	r0, r0, #8
    4968:	00000ca0 	andeq	r0, r0, r0, lsr #25
    496c:	00331d01 	eorseq	r1, r3, r1, lsl #26
    4970:	001c0000 	andseq	r0, ip, r0
    4974:	db222020 	blle	88c9fc <__bss_end__+0x881de4>
    4978:	0100000c 	tsteq	r0, ip
    497c:	0000331e 	andeq	r3, r0, lr, lsl r3
    4980:	20002800 	andcs	r2, r0, r0, lsl #16
    4984:	0caa2220 	sfmeq	f2, 4, [sl], #128	; 0x80
    4988:	1f010000 	svcne	0x00010000
    498c:	00000033 	andeq	r0, r0, r3, lsr r0
    4990:	20200034 	eorcs	r0, r0, r4, lsr r0
    4994:	000c7b23 	andeq	r7, ip, r3, lsr #22
    4998:	25560100 	ldrbcs	r0, [r6, #-256]	; 0x100
    499c:	fc000000 	stc2	0, cr0, [r0], {-0}
    49a0:	3400009a 	strcc	r0, [r0], #-154	; 0x9a
    49a4:	01000000 	mrseq	r0, (UNDEF: 0)
    49a8:	0009989c 	muleq	r9, ip, r8
    49ac:	69702400 	ldmdbvs	r0!, {sl, sp}^
    49b0:	5601006e 	strpl	r0, [r1], -lr, rrx
    49b4:	0000002c 	andeq	r0, r0, ip, lsr #32
    49b8:	00001439 	andeq	r1, r0, r9, lsr r4
    49bc:	000c6f25 	andeq	r6, ip, r5, lsr #30
    49c0:	2c590100 	ldfcse	f0, [r9], {-0}
    49c4:	73000000 	movwvc	r0, #0
    49c8:	26000014 			; <UNDEFINED> instruction: 0x26000014
    49cc:	0066666f 	rsbeq	r6, r6, pc, ror #12
    49d0:	002c5a01 	eoreq	r5, ip, r1, lsl #20
    49d4:	14b10000 	ldrtne	r0, [r1], #0
    49d8:	18270000 	stmdane	r7!, {}	; <UNPREDICTABLE>
    49dc:	5d00009b 	stcpl	0, cr0, [r0, #-620]	; 0xfffffd94
    49e0:	2800000b 	stmdacs	r0, {r0, r1, r3}
    49e4:	f30b5001 	vhadd.u8	d5, d11, d1
    49e8:	25355001 	ldrcs	r5, [r5, #-1]!
    49ec:	8080b423 	addhi	fp, r0, r3, lsr #8
    49f0:	00000281 	andeq	r0, r0, r1, lsl #5
    49f4:	000c9529 	andeq	r9, ip, r9, lsr #10
    49f8:	e04f0100 	sub	r0, pc, r0, lsl #2
    49fc:	1c00009a 	stcne	0, cr0, [r0], {154}	; 0x9a
    4a00:	01000000 	mrseq	r0, (UNDEF: 0)
    4a04:	0009e89c 	muleq	r9, ip, r8
    4a08:	69702400 	ldmdbvs	r0!, {sl, sp}^
    4a0c:	4f01006e 	svcmi	0x0001006e
    4a10:	0000002c 	andeq	r0, r0, ip, lsr #32
    4a14:	000014c4 	andeq	r1, r0, r4, asr #9
    4a18:	01007624 	tsteq	r0, r4, lsr #12
    4a1c:	00002c4f 	andeq	r2, r0, pc, asr #24
    4a20:	0014fe00 	andseq	pc, r4, r0, lsl #28
    4a24:	9af02a00 	bls	ffc0f22c <__bss_end__+0xffc04614>
    4a28:	0a230000 	beq	8c4a30 <__bss_end__+0x8b9e18>
    4a2c:	09de0000 	ldmibeq	lr, {}^	; <UNPREDICTABLE>
    4a30:	01280000 	teqeq	r8, r0
    4a34:	01f30350 	mvnseq	r0, r0, asr r3
    4a38:	f82b0050 			; <UNDEFINED> instruction: 0xf82b0050
    4a3c:	6400009a 	strvs	r0, [r0], #-154	; 0x9a
    4a40:	0000000a 	andeq	r0, r0, sl
    4a44:	000cb429 	andeq	fp, ip, r9, lsr #8
    4a48:	d04a0100 	suble	r0, sl, r0, lsl #2
    4a4c:	1000009a 	mulne	r0, sl, r0
    4a50:	01000000 	mrseq	r0, (UNDEF: 0)
    4a54:	000a239c 	muleq	sl, ip, r3
    4a58:	69702400 	ldmdbvs	r0!, {sl, sp}^
    4a5c:	4a01006e 	bmi	44c1c <__bss_end__+0x3a004>
    4a60:	0000002c 	andeq	r0, r0, ip, lsr #32
    4a64:	00001538 	andeq	r1, r0, r8, lsr r5
    4a68:	009adc27 	addseq	sp, sl, r7, lsr #24
    4a6c:	000ae000 	andeq	lr, sl, r0
    4a70:	50012800 	andpl	r2, r1, r0, lsl #16
    4a74:	5001f303 	andpl	pc, r1, r3, lsl #6
    4a78:	01510128 	cmpeq	r1, r8, lsr #2
    4a7c:	29000030 	stmdbcs	r0, {r4, r5}
    4a80:	00000c62 	andeq	r0, r0, r2, ror #24
    4a84:	9aac4301 	bls	feb15690 <__bss_end__+0xfeb0aa78>
    4a88:	00240000 	eoreq	r0, r4, r0
    4a8c:	9c010000 	stcls	0, cr0, [r1], {-0}
    4a90:	00000a64 	andeq	r0, r0, r4, ror #20
    4a94:	6e697024 	cdpvs	0, 6, cr7, cr9, cr4, {1}
    4a98:	2c430100 	stfcse	f0, [r3], {-0}
    4a9c:	59000000 	stmdbpl	r0, {}	; <UNPREDICTABLE>
    4aa0:	27000015 	smladcs	r0, r5, r0, r0
    4aa4:	00009ac8 	andeq	r9, r0, r8, asr #21
    4aa8:	00000b68 	andeq	r0, r0, r8, ror #22
    4aac:	05500128 	ldrbeq	r0, [r0, #-296]	; 0x128
    4ab0:	2000280c 	andcs	r2, r0, ip, lsl #16
    4ab4:	51012820 	tstpl	r1, r0, lsr #16
    4ab8:	01f33105 	mvnseq	r3, r5, lsl #2
    4abc:	00002450 	andeq	r2, r0, r0, asr r4
    4ac0:	000cc329 	andeq	ip, ip, r9, lsr #6
    4ac4:	883c0100 	ldmdahi	ip!, {r8}
    4ac8:	2400009a 	strcs	r0, [r0], #-154	; 0x9a
    4acc:	01000000 	mrseq	r0, (UNDEF: 0)
    4ad0:	000aa59c 	muleq	sl, ip, r5
    4ad4:	69702400 	ldmdbvs	r0!, {sl, sp}^
    4ad8:	3c01006e 	stccc	0, cr0, [r1], {110}	; 0x6e
    4adc:	0000002c 	andeq	r0, r0, ip, lsr #32
    4ae0:	0000157a 	andeq	r1, r0, sl, ror r5
    4ae4:	009aa427 	addseq	sl, sl, r7, lsr #8
    4ae8:	000b6800 	andeq	r6, fp, r0, lsl #16
    4aec:	50012800 	andpl	r2, r1, r0, lsl #16
    4af0:	001c0c05 	andseq	r0, ip, r5, lsl #24
    4af4:	01282020 	teqeq	r8, r0, lsr #32
    4af8:	f3310551 	vqrshl.u64	q0, <illegal reg q0.5>, <illegal reg q0.5>
    4afc:	00245001 	eoreq	r5, r4, r1
    4b00:	0c852900 	stceq	9, cr2, [r5], {0}
    4b04:	37010000 	strcc	r0, [r1, -r0]
    4b08:	00009a78 	andeq	r9, r0, r8, ror sl
    4b0c:	00000010 	andeq	r0, r0, r0, lsl r0
    4b10:	0ae09c01 	beq	ff82bb1c <__bss_end__+0xff820f04>
    4b14:	70240000 	eorvc	r0, r4, r0
    4b18:	01006e69 	tsteq	r0, r9, ror #28
    4b1c:	00002c37 	andeq	r2, r0, r7, lsr ip
    4b20:	00159b00 	andseq	r9, r5, r0, lsl #22
    4b24:	9a842700 	bls	fe10e72c <__bss_end__+0xfe103b14>
    4b28:	0ae00000 	beq	ff804b30 <__bss_end__+0xff7f9f18>
    4b2c:	01280000 	teqeq	r8, r0
    4b30:	01f30350 	mvnseq	r0, r0, asr r3
    4b34:	51012850 	tstpl	r1, r0, asr r8
    4b38:	00003101 	andeq	r3, r0, r1, lsl #2
    4b3c:	00096e29 	andeq	r6, r9, r9, lsr #28
    4b40:	10280100 	eorne	r0, r8, r0, lsl #2
    4b44:	6800009a 	stmdavs	r0, {r1, r3, r4, r7}
    4b48:	01000000 	mrseq	r0, (UNDEF: 0)
    4b4c:	000b5d9c 	muleq	fp, ip, sp
    4b50:	69702400 	ldmdbvs	r0!, {sl, sp}^
    4b54:	2801006e 	stmdacs	r1, {r1, r2, r3, r5, r6}
    4b58:	0000002c 	andeq	r0, r0, ip, lsr #32
    4b5c:	000015bc 			; <UNDEFINED> instruction: 0x000015bc
    4b60:	000bba2c 	andeq	fp, fp, ip, lsr #20
    4b64:	00280100 	eoreq	r0, r8, r0, lsl #2
    4b68:	dd000009 	stcle	0, cr0, [r0, #-36]	; 0xffffffdc
    4b6c:	2d000015 	stccs	0, cr0, [r0, #-84]	; 0xffffffac
    4b70:	0066666f 	rsbeq	r6, r6, pc, ror #12
    4b74:	002c2d01 	eoreq	r2, ip, r1, lsl #26
    4b78:	54010000 	strpl	r0, [r1], #-0
    4b7c:	0100672d 	tsteq	r0, sp, lsr #14
    4b80:	00002c2f 	andeq	r2, r0, pc, lsr #24
    4b84:	26560100 	ldrbcs	r0, [r6], -r0, lsl #2
    4b88:	31010076 	tstcc	r1, r6, ror r0
    4b8c:	0000002c 	andeq	r0, r0, ip, lsr #32
    4b90:	000015fe 	strdeq	r1, [r0], -lr
    4b94:	009a5c2a 	addseq	r5, sl, sl, lsr #24
    4b98:	000b5d00 	andeq	r5, fp, r0, lsl #26
    4b9c:	000b4c00 	andeq	r4, fp, r0, lsl #24
    4ba0:	50012800 	andpl	r2, r1, r0, lsl #16
    4ba4:	00007602 	andeq	r7, r0, r2, lsl #12
    4ba8:	009a7027 	addseq	r7, sl, r7, lsr #32
    4bac:	000b6800 	andeq	r6, fp, r0, lsl #16
    4bb0:	50012800 	andpl	r2, r1, r0, lsl #16
    4bb4:	00007602 	andeq	r7, r0, r2, lsl #12
    4bb8:	06cb2e00 	strbeq	r2, [fp], r0, lsl #28
    4bbc:	06cb0000 	strbeq	r0, [fp], r0
    4bc0:	a7060000 	strge	r0, [r6, -r0]
    4bc4:	00067d2e 	andeq	r7, r6, lr, lsr #26
    4bc8:	00067d00 	andeq	r7, r6, r0, lsl #26
    4bcc:	009b0600 	addseq	r0, fp, r0, lsl #12
    4bd0:	00000c24 	andeq	r0, r0, r4, lsr #24
    4bd4:	143b0004 	ldrtne	r0, [fp], #-4
    4bd8:	01040000 	mrseq	r0, (UNDEF: 4)
    4bdc:	00000aa4 	andeq	r0, r0, r4, lsr #21
    4be0:	000ce50c 	andeq	lr, ip, ip, lsl #10
    4be4:	00081600 	andeq	r1, r8, r0, lsl #12
    4be8:	009b3000 	addseq	r3, fp, r0
    4bec:	00019400 	andeq	r9, r1, r0, lsl #8
    4bf0:	00119f00 	andseq	r9, r1, r0, lsl #30
    4bf4:	05040200 	streq	r0, [r4, #-512]	; 0x200
    4bf8:	00746e69 	rsbseq	r6, r4, r9, ror #28
    4bfc:	5a070403 	bpl	1c5c10 <__bss_end__+0x1baff8>
    4c00:	03000001 	movweq	r0, #1
    4c04:	00dd0601 	sbcseq	r0, sp, r1, lsl #12
    4c08:	02030000 	andeq	r0, r3, #0
    4c0c:	00018505 	andeq	r8, r1, r5, lsl #10
    4c10:	05040300 	streq	r0, [r4, #-768]	; 0x300
    4c14:	00000175 	andeq	r0, r0, r5, ror r1
    4c18:	70050803 	andvc	r0, r5, r3, lsl #16
    4c1c:	03000001 	movweq	r0, #1
    4c20:	00db0801 	sbcseq	r0, fp, r1, lsl #16
    4c24:	02030000 	andeq	r0, r3, #0
    4c28:	0000f607 	andeq	pc, r0, r7, lsl #12
    4c2c:	07040300 	streq	r0, [r4, -r0, lsl #6]
    4c30:	00000155 	andeq	r0, r0, r5, asr r1
    4c34:	50070803 	andpl	r0, r7, r3, lsl #16
    4c38:	04000001 	streq	r0, [r0], #-1
    4c3c:	000009b9 			; <UNDEFINED> instruction: 0x000009b9
    4c40:	00250702 	eoreq	r0, r5, r2, lsl #14
    4c44:	a3040000 	movwge	r0, #16384	; 0x4000
    4c48:	03000009 	movweq	r0, #9
    4c4c:	0000412c 	andeq	r4, r0, ip, lsr #2
    4c50:	0a7f0400 	beq	1fc5c58 <__bss_end__+0x1fbb040>
    4c54:	72030000 	andvc	r0, r3, #0
    4c58:	00000041 	andeq	r0, r0, r1, asr #32
    4c5c:	00094705 	andeq	r4, r9, r5, lsl #14
    4c60:	01650400 	cmneq	r5, r0, lsl #8
    4c64:	0000002c 	andeq	r0, r0, ip, lsr #32
    4c68:	a6030406 	strge	r0, [r3], -r6, lsl #8
    4c6c:	000000b7 	strheq	r0, [r0], -r7
    4c70:	00093207 	andeq	r3, r9, r7, lsl #4
    4c74:	8ca80300 	stchi	3, cr0, [r8]
    4c78:	07000000 	streq	r0, [r0, -r0]
    4c7c:	000008ce 	andeq	r0, r0, lr, asr #17
    4c80:	00b7a903 	adcseq	sl, r7, r3, lsl #18
    4c84:	08000000 	stmdaeq	r0, {}	; <UNPREDICTABLE>
    4c88:	0000004f 	andeq	r0, r0, pc, asr #32
    4c8c:	000000c7 	andeq	r0, r0, r7, asr #1
    4c90:	0000c709 	andeq	ip, r0, r9, lsl #14
    4c94:	03000300 	movweq	r0, #768	; 0x300
    4c98:	01670704 	cmneq	r7, r4, lsl #14
    4c9c:	080a0000 	stmdaeq	sl, {}	; <UNPREDICTABLE>
    4ca0:	00efa303 	rsceq	sl, pc, r3, lsl #6
    4ca4:	640b0000 	strvs	r0, [fp], #-0
    4ca8:	0300000a 	movweq	r0, #10
    4cac:	000025a5 	andeq	r2, r0, r5, lsr #11
    4cb0:	6c0b0000 	stcvs	0, cr0, [fp], {-0}
    4cb4:	0300000a 	movweq	r0, #10
    4cb8:	000098aa 	andeq	r9, r0, sl, lsr #17
    4cbc:	04000400 	streq	r0, [r0], #-1024	; 0x400
    4cc0:	000009f7 	strdeq	r0, [r0], -r7
    4cc4:	00ceab03 	sbceq	sl, lr, r3, lsl #22
    4cc8:	97040000 	strls	r0, [r4, -r0]
    4ccc:	03000008 	movweq	r0, #8
    4cd0:	00006baf 	andeq	r6, r0, pc, lsr #23
    4cd4:	0d040c00 	stceq	12, cr0, [r4, #-0]
    4cd8:	00010d04 	andeq	r0, r1, r4, lsl #26
    4cdc:	08010300 	stmdaeq	r1, {r8, r9}
    4ce0:	000000e4 	andeq	r0, r0, r4, ror #1
    4ce4:	00010d0e 	andeq	r0, r1, lr, lsl #26
    4ce8:	0b210400 	bleq	845cf0 <__bss_end__+0x83b0d8>
    4cec:	16050000 	strne	r0, [r5], -r0
    4cf0:	0000005d 	andeq	r0, r0, sp, asr r0
    4cf4:	0008a80f 	andeq	sl, r8, pc, lsl #16
    4cf8:	2d051800 	stccs	8, cr1, [r5, #-0]
    4cfc:	00000177 	andeq	r0, r0, r7, ror r1
    4d00:	000a180b 	andeq	r1, sl, fp, lsl #16
    4d04:	772f0500 	strvc	r0, [pc, -r0, lsl #10]!
    4d08:	00000001 	andeq	r0, r0, r1
    4d0c:	006b5f10 	rsbeq	r5, fp, r0, lsl pc
    4d10:	00253005 	eoreq	r3, r5, r5
    4d14:	0b040000 	bleq	104d1c <__bss_end__+0xfa104>
    4d18:	00000a4f 	andeq	r0, r0, pc, asr #20
    4d1c:	00253005 	eoreq	r3, r5, r5
    4d20:	0b080000 	bleq	204d28 <__bss_end__+0x1fa110>
    4d24:	00000883 	andeq	r0, r0, r3, lsl #17
    4d28:	00253005 	eoreq	r3, r5, r5
    4d2c:	0b0c0000 	bleq	304d34 <__bss_end__+0x2fa11c>
    4d30:	00000b68 	andeq	r0, r0, r8, ror #22
    4d34:	00253005 	eoreq	r3, r5, r5
    4d38:	10100000 	andsne	r0, r0, r0
    4d3c:	0500785f 	streq	r7, [r0, #-2143]	; 0x85f
    4d40:	00017d31 	andeq	r7, r1, r1, lsr sp
    4d44:	0d001400 	cfstrseq	mvf1, [r0, #-0]
    4d48:	00012404 	andeq	r2, r1, r4, lsl #8
    4d4c:	01190800 	tsteq	r9, r0, lsl #16
    4d50:	018d0000 	orreq	r0, sp, r0
    4d54:	c7090000 	strgt	r0, [r9, -r0]
    4d58:	00000000 	andeq	r0, r0, r0
    4d5c:	08c90f00 	stmiaeq	r9, {r8, r9, sl, fp}^
    4d60:	05240000 	streq	r0, [r4, #-0]!
    4d64:	00020635 	andeq	r0, r2, r5, lsr r6
    4d68:	07810b00 	streq	r0, [r1, r0, lsl #22]
    4d6c:	37050000 	strcc	r0, [r5, -r0]
    4d70:	00000025 	andeq	r0, r0, r5, lsr #32
    4d74:	0a870b00 	beq	fe1c797c <__bss_end__+0xfe1bcd64>
    4d78:	38050000 	stmdacc	r5, {}	; <UNPREDICTABLE>
    4d7c:	00000025 	andeq	r0, r0, r5, lsr #32
    4d80:	07af0b04 	streq	r0, [pc, r4, lsl #22]!
    4d84:	39050000 	stmdbcc	r5, {}	; <UNPREDICTABLE>
    4d88:	00000025 	andeq	r0, r0, r5, lsr #32
    4d8c:	0c580b08 	mrrceq	11, 0, r0, r8, cr8
    4d90:	3a050000 	bcc	144d98 <__bss_end__+0x13a180>
    4d94:	00000025 	andeq	r0, r0, r5, lsr #32
    4d98:	09870b0c 	stmibeq	r7, {r2, r3, r8, r9, fp}
    4d9c:	3b050000 	blcc	144da4 <__bss_end__+0x13a18c>
    4da0:	00000025 	andeq	r0, r0, r5, lsr #32
    4da4:	095c0b10 	ldmdbeq	ip, {r4, r8, r9, fp}^
    4da8:	3c050000 	stccc	0, cr0, [r5], {-0}
    4dac:	00000025 	andeq	r0, r0, r5, lsr #32
    4db0:	0b6d0b14 	bleq	1b47a08 <__bss_end__+0x1b3cdf0>
    4db4:	3d050000 	stccc	0, cr0, [r5, #-0]
    4db8:	00000025 	andeq	r0, r0, r5, lsr #32
    4dbc:	09d90b18 	ldmibeq	r9, {r3, r4, r8, r9, fp}^
    4dc0:	3e050000 	cdpcc	0, 0, cr0, cr5, cr0, {0}
    4dc4:	00000025 	andeq	r0, r0, r5, lsr #32
    4dc8:	0c1f0b1c 	ldceq	11, cr0, [pc], {28}
    4dcc:	3f050000 	svccc	0x00050000
    4dd0:	00000025 	andeq	r0, r0, r5, lsr #32
    4dd4:	be110020 	cdplt	0, 1, cr0, cr1, cr0, {1}
    4dd8:	08000007 	stmdaeq	r0, {r0, r1, r2}
    4ddc:	46480501 	strbmi	r0, [r8], -r1, lsl #10
    4de0:	0b000002 	bleq	4df0 <__code_start__-0x3210>
    4de4:	0000086a 	andeq	r0, r0, sl, ror #16
    4de8:	02464905 	subeq	r4, r6, #81920	; 0x14000
    4dec:	0b000000 	bleq	4df4 <__code_start__-0x320c>
    4df0:	000006fc 	strdeq	r0, [r0], -ip
    4df4:	02464a05 	subeq	r4, r6, #20480	; 0x5000
    4df8:	12800000 	addne	r0, r0, #0
    4dfc:	00000b13 	andeq	r0, r0, r3, lsl fp
    4e00:	01194c05 	tsteq	r9, r5, lsl #24
    4e04:	01000000 	mrseq	r0, (UNDEF: 0)
    4e08:	0007e312 	andeq	lr, r7, r2, lsl r3
    4e0c:	194f0500 	stmdbne	pc, {r8, sl}^	; <UNPREDICTABLE>
    4e10:	04000001 	streq	r0, [r0], #-1
    4e14:	05080001 	streq	r0, [r8, #-1]
    4e18:	56000001 	strpl	r0, [r0], -r1
    4e1c:	09000002 	stmdbeq	r0, {r1}
    4e20:	000000c7 	andeq	r0, r0, r7, asr #1
    4e24:	9011001f 	andsls	r0, r1, pc, lsl r0
    4e28:	90000009 	andls	r0, r0, r9
    4e2c:	945b0501 	ldrbls	r0, [fp], #-1281	; 0x501
    4e30:	0b000002 	bleq	4e40 <__code_start__-0x31c0>
    4e34:	00000a18 	andeq	r0, r0, r8, lsl sl
    4e38:	02945c05 	addseq	r5, r4, #1280	; 0x500
    4e3c:	0b000000 	bleq	4e44 <__code_start__-0x31bc>
    4e40:	00000a30 	andeq	r0, r0, r0, lsr sl
    4e44:	00255d05 	eoreq	r5, r5, r5, lsl #26
    4e48:	0b040000 	bleq	104e50 <__bss_end__+0xfa238>
    4e4c:	0000087e 	andeq	r0, r0, lr, ror r8
    4e50:	029a5f05 	addseq	r5, sl, #5, 30
    4e54:	0b080000 	bleq	204e5c <__bss_end__+0x1fa244>
    4e58:	000007be 			; <UNDEFINED> instruction: 0x000007be
    4e5c:	02066005 	andeq	r6, r6, #5
    4e60:	00880000 	addeq	r0, r8, r0
    4e64:	0256040d 	subseq	r0, r6, #218103808	; 0xd000000
    4e68:	aa080000 	bge	204e70 <__bss_end__+0x1fa258>
    4e6c:	aa000002 	bge	4e7c <__code_start__-0x3184>
    4e70:	09000002 	stmdbeq	r0, {r1}
    4e74:	000000c7 	andeq	r0, r0, r7, asr #1
    4e78:	040d001f 	streq	r0, [sp], #-31
    4e7c:	000002b0 			; <UNDEFINED> instruction: 0x000002b0
    4e80:	09e30f13 	stmibeq	r3!, {r0, r1, r4, r8, r9, sl, fp}^
    4e84:	05080000 	streq	r0, [r8, #-0]
    4e88:	0002d673 	andeq	sp, r2, r3, ror r6
    4e8c:	07a40b00 	streq	r0, [r4, r0, lsl #22]!
    4e90:	74050000 	strvc	r0, [r5], #-0
    4e94:	000002d6 	ldrdeq	r0, [r0], -r6
    4e98:	07080b00 	streq	r0, [r8, -r0, lsl #22]
    4e9c:	75050000 	strvc	r0, [r5, #-0]
    4ea0:	00000025 	andeq	r0, r0, r5, lsr #32
    4ea4:	040d0004 	streq	r0, [sp], #-4
    4ea8:	0000004f 	andeq	r0, r0, pc, asr #32
    4eac:	000a020f 	andeq	r0, sl, pc, lsl #4
    4eb0:	b3056800 	movwlt	r6, #22528	; 0x5800
    4eb4:	00000406 	andeq	r0, r0, r6, lsl #8
    4eb8:	00705f10 	rsbseq	r5, r0, r0, lsl pc
    4ebc:	02d6b405 	sbcseq	fp, r6, #83886080	; 0x5000000
    4ec0:	10000000 	andne	r0, r0, r0
    4ec4:	0500725f 	streq	r7, [r0, #-607]	; 0x25f
    4ec8:	000025b5 			; <UNDEFINED> instruction: 0x000025b5
    4ecc:	5f100400 	svcpl	0x00100400
    4ed0:	b6050077 			; <UNDEFINED> instruction: 0xb6050077
    4ed4:	00000025 	andeq	r0, r0, r5, lsr #32
    4ed8:	07dc0b08 	ldrbeq	r0, [ip, r8, lsl #22]
    4edc:	b7050000 	strlt	r0, [r5, -r0]
    4ee0:	0000003a 	andeq	r0, r0, sl, lsr r0
    4ee4:	08ef0b0c 	stmiaeq	pc!, {r2, r3, r8, r9, fp}^	; <UNPREDICTABLE>
    4ee8:	b8050000 	stmdalt	r5, {}	; <UNPREDICTABLE>
    4eec:	0000003a 	andeq	r0, r0, sl, lsr r0
    4ef0:	625f100e 	subsvs	r1, pc, #14
    4ef4:	b9050066 	stmdblt	r5, {r1, r2, r5, r6}
    4ef8:	000002b1 			; <UNDEFINED> instruction: 0x000002b1
    4efc:	074b0b10 	smlaldeq	r0, fp, r0, fp
    4f00:	ba050000 	blt	144f08 <__bss_end__+0x13a2f0>
    4f04:	00000025 	andeq	r0, r0, r5, lsr #32
    4f08:	07cc0b18 	bfieq	r0, r8, (invalid: 22:12)
    4f0c:	c1050000 	mrsgt	r0, (UNDEF: 5)
    4f10:	00000105 	andeq	r0, r0, r5, lsl #2
    4f14:	0c7f0b1c 	ldcleq	11, cr0, [pc], #-112	; 4eac <__code_start__-0x3154>
    4f18:	c3050000 	movwgt	r0, #20480	; 0x5000
    4f1c:	00000561 	andeq	r0, r0, r1, ror #10
    4f20:	0c990b20 	vldmiaeq	r9, {d0-d15}
    4f24:	c5050000 	strgt	r0, [r5, #-0]
    4f28:	0000058b 	andeq	r0, r0, fp, lsl #11
    4f2c:	0a740b24 	beq	1d07bc4 <__bss_end__+0x1cfcfac>
    4f30:	c8050000 	stmdagt	r5, {}	; <UNPREDICTABLE>
    4f34:	000005af 	andeq	r0, r0, pc, lsr #11
    4f38:	0c390b28 	ldceq	11, cr0, [r9], #-160	; 0xffffff60
    4f3c:	c9050000 	stmdbgt	r5, {}	; <UNPREDICTABLE>
    4f40:	000005c9 	andeq	r0, r0, r9, asr #11
    4f44:	755f102c 	ldrbvc	r1, [pc, #-44]	; 4f20 <__code_start__-0x30e0>
    4f48:	cc050062 	stcgt	0, cr0, [r5], {98}	; 0x62
    4f4c:	000002b1 			; <UNDEFINED> instruction: 0x000002b1
    4f50:	755f1030 	ldrbvc	r1, [pc, #-48]	; 4f28 <__code_start__-0x30d8>
    4f54:	cd050070 	stcgt	0, cr0, [r5, #-448]	; 0xfffffe40
    4f58:	000002d6 	ldrdeq	r0, [r0], -r6
    4f5c:	755f1038 	ldrbvc	r1, [pc, #-56]	; 4f2c <__code_start__-0x30d4>
    4f60:	ce050072 	mcrgt	0, 0, r0, cr5, cr2, {3}
    4f64:	00000025 	andeq	r0, r0, r5, lsr #32
    4f68:	078f0b3c 			; <UNDEFINED> instruction: 0x078f0b3c
    4f6c:	d1050000 	mrsle	r0, (UNDEF: 5)
    4f70:	000005cf 	andeq	r0, r0, pc, asr #11
    4f74:	0be40b40 	bleq	ff907c7c <__bss_end__+0xff8fd064>
    4f78:	d2050000 	andle	r0, r5, #0
    4f7c:	000005df 	ldrdeq	r0, [r0], -pc	; <UNPREDICTABLE>
    4f80:	6c5f1043 	mrrcvs	0, 4, r1, pc, cr3	; <UNPREDICTABLE>
    4f84:	d5050062 	strle	r0, [r5, #-98]	; 0x62
    4f88:	000002b1 			; <UNDEFINED> instruction: 0x000002b1
    4f8c:	07f20b44 	ldrbeq	r0, [r2, r4, asr #22]!
    4f90:	d8050000 	stmdale	r5, {}	; <UNPREDICTABLE>
    4f94:	00000025 	andeq	r0, r0, r5, lsr #32
    4f98:	09660b4c 	stmdbeq	r6!, {r2, r3, r6, r8, r9, fp}^
    4f9c:	d9050000 	stmdble	r5, {}	; <UNPREDICTABLE>
    4fa0:	00000076 	andeq	r0, r0, r6, ror r0
    4fa4:	0bcf0b50 	bleq	ff3c7cec <__bss_end__+0xff3bd0d4>
    4fa8:	dc050000 	stcle	0, cr0, [r5], {-0}
    4fac:	00000424 	andeq	r0, r0, r4, lsr #8
    4fb0:	094e0b54 	stmdbeq	lr, {r2, r4, r6, r8, r9, fp}^
    4fb4:	e0050000 	and	r0, r5, r0
    4fb8:	000000fa 	strdeq	r0, [r0], -sl
    4fbc:	0a0a0b58 	beq	287d24 <__bss_end__+0x27d10c>
    4fc0:	e2050000 	and	r0, r5, #0
    4fc4:	000000ef 	andeq	r0, r0, pc, ror #1
    4fc8:	09540b5c 	ldmdbeq	r4, {r2, r3, r4, r6, r8, r9, fp}^
    4fcc:	e3050000 	movw	r0, #20480	; 0x5000
    4fd0:	00000025 	andeq	r0, r0, r5, lsr #32
    4fd4:	25140064 	ldrcs	r0, [r4, #-100]	; 0x64
    4fd8:	24000000 	strcs	r0, [r0], #-0
    4fdc:	15000004 	strne	r0, [r0, #-4]
    4fe0:	00000424 	andeq	r0, r0, r4, lsr #8
    4fe4:	00010515 	andeq	r0, r1, r5, lsl r5
    4fe8:	01071500 	tsteq	r7, r0, lsl #10
    4fec:	25150000 	ldrcs	r0, [r5, #-0]
    4ff0:	00000000 	andeq	r0, r0, r0
    4ff4:	042f040d 	strteq	r0, [pc], #-1037	; 4ffc <__code_start__-0x3004>
    4ff8:	240e0000 	strcs	r0, [lr], #-0
    4ffc:	16000004 	strne	r0, [r0], -r4
    5000:	00000a57 	andeq	r0, r0, r7, asr sl
    5004:	38050428 	stmdacc	r5, {r3, r5, sl}
    5008:	00056102 	andeq	r6, r5, r2, lsl #2
    500c:	09d21700 	ldmibeq	r2, {r8, r9, sl, ip}^
    5010:	3a050000 	bcc	145018 <__bss_end__+0x13a400>
    5014:	00002502 	andeq	r2, r0, r2, lsl #10
    5018:	eb170000 	bl	5c5020 <__bss_end__+0x5ba408>
    501c:	05000007 	streq	r0, [r0, #-7]
    5020:	0636023f 			; <UNDEFINED> instruction: 0x0636023f
    5024:	17040000 	strne	r0, [r4, -r0]
    5028:	000008df 	ldrdeq	r0, [r0], -pc	; <UNPREDICTABLE>
    502c:	36023f05 	strcc	r3, [r2], -r5, lsl #30
    5030:	08000006 	stmdaeq	r0, {r1, r2}
    5034:	0008a017 	andeq	sl, r8, r7, lsl r0
    5038:	023f0500 	eorseq	r0, pc, #0, 10
    503c:	00000636 	andeq	r0, r0, r6, lsr r6
    5040:	0a2b170c 	beq	acac78 <__bss_end__+0xac0060>
    5044:	41050000 	mrsmi	r0, (UNDEF: 5)
    5048:	00002502 	andeq	r2, r0, r2, lsl #10
    504c:	16171000 	ldrne	r1, [r7], -r0
    5050:	05000007 	streq	r0, [r0, #-7]
    5054:	08180242 	ldmdaeq	r8, {r1, r6, r9}
    5058:	17140000 	ldrne	r0, [r4, -r0]
    505c:	00000b49 	andeq	r0, r0, r9, asr #22
    5060:	25024405 	strcs	r4, [r2, #-1029]	; 0x405
    5064:	30000000 	andcc	r0, r0, r0
    5068:	000a3517 	andeq	r3, sl, r7, lsl r5
    506c:	02450500 	subeq	r0, r5, #0, 10
    5070:	00000585 	andeq	r0, r0, r5, lsl #11
    5074:	09981734 	ldmibeq	r8, {r2, r4, r5, r8, r9, sl, ip}
    5078:	47050000 	strmi	r0, [r5, -r0]
    507c:	00002502 	andeq	r2, r0, r2, lsl #10
    5080:	45173800 	ldrmi	r3, [r7, #-2048]	; 0x800
    5084:	0500000a 	streq	r0, [r0, #-10]
    5088:	08330249 	ldmdaeq	r3!, {r0, r3, r6, r9}
    508c:	173c0000 	ldrne	r0, [ip, -r0]!
    5090:	0000092a 	andeq	r0, r0, sl, lsr #18
    5094:	77024c05 	strvc	r4, [r2, -r5, lsl #24]
    5098:	40000001 	andmi	r0, r0, r1
    509c:	0008bf17 	andeq	fp, r8, r7, lsl pc
    50a0:	024d0500 	subeq	r0, sp, #0, 10
    50a4:	00000025 	andeq	r0, r0, r5, lsr #32
    50a8:	0c531744 	mrrceq	7, 4, r1, r3, cr4
    50ac:	4e050000 	cdpmi	0, 0, cr0, cr5, cr0, {0}
    50b0:	00017702 	andeq	r7, r1, r2, lsl #14
    50b4:	af174800 	svcge	0x00174800
    50b8:	05000009 	streq	r0, [r0, #-9]
    50bc:	0839024f 	ldmdaeq	r9!, {r0, r1, r2, r3, r6, r9}
    50c0:	174c0000 	strbne	r0, [ip, -r0]
    50c4:	000008e7 	andeq	r0, r0, r7, ror #17
    50c8:	25025205 	strcs	r5, [r2, #-517]	; 0x205
    50cc:	50000000 	andpl	r0, r0, r0
    50d0:	00080e17 	andeq	r0, r8, r7, lsl lr
    50d4:	02530500 	subseq	r0, r3, #0, 10
    50d8:	00000107 	andeq	r0, r0, r7, lsl #2
    50dc:	09cb1754 	stmibeq	fp, {r2, r4, r6, r8, r9, sl, ip}^
    50e0:	76050000 	strvc	r0, [r5], -r0
    50e4:	0007f602 	andeq	pc, r7, r2, lsl #12
    50e8:	90185800 	andsls	r5, r8, r0, lsl #16
    50ec:	05000009 	streq	r0, [r0, #-9]
    50f0:	0294027a 	addseq	r0, r4, #-1610612729	; 0xa0000007
    50f4:	01480000 	mrseq	r0, (UNDEF: 72)
    50f8:	0008fc18 	andeq	pc, r8, r8, lsl ip	; <UNPREDICTABLE>
    50fc:	027b0500 	rsbseq	r0, fp, #0, 10
    5100:	00000256 	andeq	r0, r0, r6, asr r2
    5104:	b518014c 	ldrlt	r0, [r8, #-332]	; 0x14c
    5108:	0500000b 	streq	r0, [r0, #-11]
    510c:	084a027f 	stmdaeq	sl, {r0, r1, r2, r3, r4, r5, r6, r9}^
    5110:	02dc0000 	sbcseq	r0, ip, #0
    5114:	0007d418 	andeq	sp, r7, r8, lsl r4
    5118:	02840500 	addeq	r0, r4, #0, 10
    511c:	000005fb 	strdeq	r0, [r0], -fp
    5120:	b91802e0 	ldmdblt	r8, {r5, r6, r7, r9}
    5124:	05000007 	streq	r0, [r0, #-7]
    5128:	08560285 	ldmdaeq	r6, {r0, r2, r7, r9}^
    512c:	02ec0000 	rsceq	r0, ip, #0
    5130:	06040d00 	streq	r0, [r4], -r0, lsl #26
    5134:	14000004 	strne	r0, [r0], #-4
    5138:	00000025 	andeq	r0, r0, r5, lsr #32
    513c:	00000585 	andeq	r0, r0, r5, lsl #11
    5140:	00042415 	andeq	r2, r4, r5, lsl r4
    5144:	01051500 	tsteq	r5, r0, lsl #10
    5148:	85150000 	ldrhi	r0, [r5, #-0]
    514c:	15000005 	strne	r0, [r0, #-5]
    5150:	00000025 	andeq	r0, r0, r5, lsr #32
    5154:	14040d00 	strne	r0, [r4], #-3328	; 0xd00
    5158:	0d000001 	stceq	0, cr0, [r0, #-4]
    515c:	00056704 	andeq	r6, r5, r4, lsl #14
    5160:	00811400 	addeq	r1, r1, r0, lsl #8
    5164:	05af0000 	streq	r0, [pc, #0]!	; 516c <__code_start__-0x2e94>
    5168:	24150000 	ldrcs	r0, [r5], #-0
    516c:	15000004 	strne	r0, [r0, #-4]
    5170:	00000105 	andeq	r0, r0, r5, lsl #2
    5174:	00008115 	andeq	r8, r0, r5, lsl r1
    5178:	00251500 	eoreq	r1, r5, r0, lsl #10
    517c:	0d000000 	stceq	0, cr0, [r0, #-0]
    5180:	00059104 	andeq	r9, r5, r4, lsl #2
    5184:	00251400 	eoreq	r1, r5, r0, lsl #8
    5188:	05c90000 	strbeq	r0, [r9]
    518c:	24150000 	ldrcs	r0, [r5], #-0
    5190:	15000004 	strne	r0, [r0, #-4]
    5194:	00000105 	andeq	r0, r0, r5, lsl #2
    5198:	b5040d00 	strlt	r0, [r4, #-3328]	; 0xd00
    519c:	08000005 	stmdaeq	r0, {r0, r2}
    51a0:	0000004f 	andeq	r0, r0, pc, asr #32
    51a4:	000005df 	ldrdeq	r0, [r0], -pc	; <UNPREDICTABLE>
    51a8:	0000c709 	andeq	ip, r0, r9, lsl #14
    51ac:	08000200 	stmdaeq	r0, {r9}
    51b0:	0000004f 	andeq	r0, r0, pc, asr #32
    51b4:	000005ef 	andeq	r0, r0, pc, ror #11
    51b8:	0000c709 	andeq	ip, r0, r9, lsl #14
    51bc:	05000000 	streq	r0, [r0, #-0]
    51c0:	000009f0 	strdeq	r0, [r0], -r0	; <UNPREDICTABLE>
    51c4:	dc011d05 	stcle	13, cr1, [r1], {5}
    51c8:	19000002 	stmdbne	r0, {r1}
    51cc:	00000b77 	andeq	r0, r0, r7, ror fp
    51d0:	0121050c 	teqeq	r1, ip, lsl #10
    51d4:	00000630 	andeq	r0, r0, r0, lsr r6
    51d8:	000a1817 	andeq	r1, sl, r7, lsl r8
    51dc:	01230500 	teqeq	r3, r0, lsl #10
    51e0:	00000630 	andeq	r0, r0, r0, lsr r6
    51e4:	08f51700 	ldmeq	r5!, {r8, r9, sl, ip}^
    51e8:	24050000 	strcs	r0, [r5], #-0
    51ec:	00002501 	andeq	r2, r0, r1, lsl #10
    51f0:	ea170400 	b	5c61f8 <__bss_end__+0x5bb5e0>
    51f4:	05000009 	streq	r0, [r0, #-9]
    51f8:	06360125 	ldrteq	r0, [r6], -r5, lsr #2
    51fc:	00080000 	andeq	r0, r8, r0
    5200:	05fb040d 	ldrbeq	r0, [fp, #1037]!	; 0x40d
    5204:	040d0000 	streq	r0, [sp], #-0
    5208:	000005ef 	andeq	r0, r0, pc, ror #11
    520c:	00070e19 	andeq	r0, r7, r9, lsl lr
    5210:	3d050e00 	stccc	14, cr0, [r5, #-0]
    5214:	00067101 	andeq	r7, r6, r1, lsl #2
    5218:	0a5e1700 	beq	178ae20 <__bss_end__+0x1780208>
    521c:	3e050000 	cdpcc	0, 0, cr0, cr5, cr0, {0}
    5220:	00067101 	andeq	r7, r6, r1, lsl #2
    5224:	98170000 	ldmdals	r7, {}	; <UNPREDICTABLE>
    5228:	0500000a 	streq	r0, [r0, #-10]
    522c:	0671013f 			; <UNDEFINED> instruction: 0x0671013f
    5230:	17060000 	strne	r0, [r6, -r0]
    5234:	00000b1c 	andeq	r0, r0, ip, lsl fp
    5238:	56014005 	strpl	r4, [r1], -r5
    523c:	0c000000 	stceq	0, cr0, [r0], {-0}
    5240:	00560800 	subseq	r0, r6, r0, lsl #16
    5244:	06810000 	streq	r0, [r1], r0
    5248:	c7090000 	strgt	r0, [r9, -r0]
    524c:	02000000 	andeq	r0, r0, #0
    5250:	05d01a00 	ldrbeq	r1, [r0, #2560]	; 0xa00
    5254:	07820257 			; <UNDEFINED> instruction: 0x07820257
    5258:	5b170000 	blpl	5c5260 <__bss_end__+0x5ba648>
    525c:	0500000b 	streq	r0, [r0, #-11]
    5260:	002c0259 	eoreq	r0, ip, r9, asr r2
    5264:	17000000 	strne	r0, [r0, -r0]
    5268:	00000b06 	andeq	r0, r0, r6, lsl #22
    526c:	07025a05 	streq	r5, [r2, -r5, lsl #20]
    5270:	04000001 	streq	r0, [r0], #-1
    5274:	00091117 	andeq	r1, r9, r7, lsl r1
    5278:	025b0500 	subseq	r0, fp, #0, 10
    527c:	00000782 	andeq	r0, r0, r2, lsl #15
    5280:	0c2a1708 	stceq	7, cr1, [sl], #-32	; 0xffffffe0
    5284:	5c050000 	stcpl	0, cr0, [r5], {-0}
    5288:	00018d02 	andeq	r8, r1, r2, lsl #26
    528c:	b0172400 	andslt	r2, r7, r0, lsl #8
    5290:	05000008 	streq	r0, [r0, #-8]
    5294:	0025025d 	eoreq	r0, r5, sp, asr r2
    5298:	17480000 	strbne	r0, [r8, -r0]
    529c:	00000a13 	andeq	r0, r0, r3, lsl sl
    52a0:	64025e05 	strvs	r5, [r2], #-3589	; 0xe05
    52a4:	50000000 	andpl	r0, r0, r0
    52a8:	000c4017 	andeq	r4, ip, r7, lsl r0
    52ac:	025f0500 	subseq	r0, pc, #0, 10
    52b0:	0000063c 	andeq	r0, r0, ip, lsr r6
    52b4:	0a1e1758 	beq	78b01c <__bss_end__+0x780404>
    52b8:	60050000 	andvs	r0, r5, r0
    52bc:	0000ef02 	andeq	lr, r0, r2, lsl #30
    52c0:	45176800 	ldrmi	r6, [r7, #-2048]	; 0x800
    52c4:	0500000c 	streq	r0, [r0, #-12]
    52c8:	00ef0261 	rsceq	r0, pc, r1, ror #4
    52cc:	17700000 	ldrbne	r0, [r0, -r0]!
    52d0:	00000773 	andeq	r0, r0, r3, ror r7
    52d4:	ef026205 	svc	0x00026205
    52d8:	78000000 	stmdavc	r0, {}	; <UNPREDICTABLE>
    52dc:	000b9717 	andeq	r9, fp, r7, lsl r7
    52e0:	02630500 	rsbeq	r0, r3, #0, 10
    52e4:	00000792 	muleq	r0, r2, r7
    52e8:	09051780 	stmdbeq	r5, {r7, r8, r9, sl, ip}
    52ec:	64050000 	strvs	r0, [r5], #-0
    52f0:	0007a202 	andeq	sl, r7, r2, lsl #4
    52f4:	29178800 	ldmdbcs	r7, {fp, pc}
    52f8:	0500000b 	streq	r0, [r0, #-11]
    52fc:	00250265 	eoreq	r0, r5, r5, ror #4
    5300:	17a00000 	strne	r0, [r0, r0]!
    5304:	0000085c 	andeq	r0, r0, ip, asr r8
    5308:	ef026605 	svc	0x00026605
    530c:	a4000000 	strge	r0, [r0], #-0
    5310:	00076417 	andeq	r6, r7, r7, lsl r4
    5314:	02670500 	rsbeq	r0, r7, #0, 10
    5318:	000000ef 	andeq	r0, r0, pc, ror #1
    531c:	084b17ac 	stmdaeq	fp, {r2, r3, r5, r7, r8, r9, sl, ip}^
    5320:	68050000 	stmdavs	r5, {}	; <UNPREDICTABLE>
    5324:	0000ef02 	andeq	lr, r0, r2, lsl #30
    5328:	2b17b400 	blcs	5f2330 <__bss_end__+0x5e7718>
    532c:	05000007 	streq	r0, [r0, #-7]
    5330:	00ef0269 	rsceq	r0, pc, r9, ror #4
    5334:	17bc0000 	ldrne	r0, [ip, r0]!
    5338:	0000073a 	andeq	r0, r0, sl, lsr r7
    533c:	ef026a05 	svc	0x00026a05
    5340:	c4000000 	strgt	r0, [r0], #-0
    5344:	0009d017 	andeq	sp, r9, r7, lsl r0
    5348:	026b0500 	rsbeq	r0, fp, #0, 10
    534c:	00000025 	andeq	r0, r0, r5, lsr #32
    5350:	0d0800cc 	stceq	0, cr0, [r8, #-816]	; 0xfffffcd0
    5354:	92000001 	andls	r0, r0, #1
    5358:	09000007 	stmdbeq	r0, {r0, r1, r2}
    535c:	000000c7 	andeq	r0, r0, r7, asr #1
    5360:	0d080019 	stceq	0, cr0, [r8, #-100]	; 0xffffff9c
    5364:	a2000001 	andge	r0, r0, #1
    5368:	09000007 	stmdbeq	r0, {r0, r1, r2}
    536c:	000000c7 	andeq	r0, r0, r7, asr #1
    5370:	0d080007 	stceq	0, cr0, [r8, #-28]	; 0xffffffe4
    5374:	b2000001 	andlt	r0, r0, #1
    5378:	09000007 	stmdbeq	r0, {r0, r1, r2}
    537c:	000000c7 	andeq	r0, r0, r7, asr #1
    5380:	f01a0017 			; <UNDEFINED> instruction: 0xf01a0017
    5384:	d6027005 	strle	r7, [r2], -r5
    5388:	17000007 	strne	r0, [r0, -r7]
    538c:	00000980 	andeq	r0, r0, r0, lsl #19
    5390:	d6027305 	strle	r7, [r2], -r5, lsl #6
    5394:	00000007 	andeq	r0, r0, r7
    5398:	000b8e17 	andeq	r8, fp, r7, lsl lr
    539c:	02740500 	rsbseq	r0, r4, #0, 10
    53a0:	000007e6 	andeq	r0, r0, r6, ror #15
    53a4:	d6080078 			; <UNDEFINED> instruction: 0xd6080078
    53a8:	e6000002 	str	r0, [r0], -r2
    53ac:	09000007 	stmdbeq	r0, {r0, r1, r2}
    53b0:	000000c7 	andeq	r0, r0, r7, asr #1
    53b4:	2c08001d 	stccs	0, cr0, [r8], {29}
    53b8:	f6000000 			; <UNDEFINED> instruction: 0xf6000000
    53bc:	09000007 	stmdbeq	r0, {r0, r1, r2}
    53c0:	000000c7 	andeq	r0, r0, r7, asr #1
    53c4:	f01b001d 			; <UNDEFINED> instruction: 0xf01b001d
    53c8:	18025505 	stmdane	r2, {r0, r2, r8, sl, ip, lr}
    53cc:	1c000008 	stcne	0, cr0, [r0], {8}
    53d0:	00000a57 	andeq	r0, r0, r7, asr sl
    53d4:	81026c05 	tsthi	r2, r5, lsl #24
    53d8:	1c000006 	stcne	0, cr0, [r0], {6}
    53dc:	00000bea 	andeq	r0, r0, sl, ror #23
    53e0:	b2027505 	andlt	r7, r2, #20971520	; 0x1400000
    53e4:	00000007 	andeq	r0, r0, r7
    53e8:	00010d08 	andeq	r0, r1, r8, lsl #26
    53ec:	00082800 	andeq	r2, r8, r0, lsl #16
    53f0:	00c70900 	sbceq	r0, r7, r0, lsl #18
    53f4:	00180000 	andseq	r0, r8, r0
    53f8:	0008331d 	andeq	r3, r8, sp, lsl r3
    53fc:	04241500 	strteq	r1, [r4], #-1280	; 0x500
    5400:	0d000000 	stceq	0, cr0, [r0, #-0]
    5404:	00082804 	andeq	r2, r8, r4, lsl #16
    5408:	77040d00 	strvc	r0, [r4, -r0, lsl #26]
    540c:	1d000001 	stcne	0, cr0, [r0, #-4]
    5410:	0000084a 	andeq	r0, r0, sl, asr #16
    5414:	00002515 	andeq	r2, r0, r5, lsl r5
    5418:	040d0000 	streq	r0, [sp], #-0
    541c:	00000850 	andeq	r0, r0, r0, asr r8
    5420:	083f040d 	ldmdaeq	pc!, {r0, r2, r3, sl}	; <UNPREDICTABLE>
    5424:	ef080000 	svc	0x00080000
    5428:	66000005 	strvs	r0, [r0], -r5
    542c:	09000008 	stmdbeq	r0, {r3}
    5430:	000000c7 	andeq	r0, r0, r7, asr #1
    5434:	3d1e0002 	ldccc	0, cr0, [lr, #-8]
    5438:	0500000b 	streq	r0, [r0, #-11]
    543c:	042402fd 	strteq	r0, [r4], #-765	; 0x2fd
    5440:	361e0000 	ldrcc	r0, [lr], -r0
    5444:	0500000b 	streq	r0, [r0, #-11]
    5448:	042a02fe 	strteq	r0, [sl], #-766	; 0x2fe
    544c:	25140000 	ldrcs	r0, [r4, #-0]
    5450:	8d000000 	stchi	0, cr0, [r0, #-0]
    5454:	15000008 	strne	r0, [r0, #-8]
    5458:	00000025 	andeq	r0, r0, r5, lsr #32
    545c:	05401f00 	strbeq	r1, [r0, #-3840]	; 0xf00
    5460:	1d060000 	stcne	0, cr0, [r6, #-0]
    5464:	00000898 	muleq	r0, r8, r8
    5468:	087e040d 	ldmdaeq	lr!, {r0, r2, r3, sl}^
    546c:	25140000 	ldrcs	r0, [r4, #-0]
    5470:	ad000000 	stcge	0, cr0, [r0, #-0]
    5474:	15000008 	strne	r0, [r0, #-8]
    5478:	00000585 	andeq	r0, r0, r5, lsl #11
    547c:	057d1f00 	ldrbeq	r1, [sp, #-3840]!	; 0xf00
    5480:	22060000 	andcs	r0, r6, #0
    5484:	000008b8 			; <UNDEFINED> instruction: 0x000008b8
    5488:	089e040d 	ldmeq	lr, {r0, r2, r3, sl}
    548c:	08030000 	stmdaeq	r3, {}	; <UNPREDICTABLE>
    5490:	000d0c04 	andeq	r0, sp, r4, lsl #24
    5494:	0d441f00 	stcleq	15, cr1, [r4, #-0]
    5498:	0d010000 	stceq	0, cr0, [r1, #-0]
    549c:	0000010d 	andeq	r0, r0, sp, lsl #2
    54a0:	00042620 	andeq	r2, r4, r0, lsr #12
    54a4:	070e0100 	streq	r0, [lr, -r0, lsl #2]
    54a8:	05000001 	streq	r0, [r0, #-1]
    54ac:	009ce803 	addseq	lr, ip, r3, lsl #16
    54b0:	0d5b2000 	ldcleq	0, cr2, [fp, #-0]
    54b4:	0f010000 	svceq	0x00010000
    54b8:	00000107 	andeq	r0, r0, r7, lsl #2
    54bc:	9cec0305 	stclls	3, cr0, [ip], #20
    54c0:	1d210000 	stcne	0, cr0, [r1, #-0]
    54c4:	0100000d 	tsteq	r0, sp
    54c8:	009cb438 	addseq	fp, ip, r8, lsr r4
    54cc:	00001000 	andeq	r1, r0, r0
    54d0:	139c0100 	orrsne	r0, ip, #0, 2
    54d4:	22000009 	andcs	r0, r0, #9
    54d8:	38010070 	stmdacc	r1, {r4, r5, r6}
    54dc:	00000105 	andeq	r0, r0, r5, lsl #2
    54e0:	23005001 	movwcs	r5, #1
    54e4:	00000d13 	andeq	r0, r0, r3, lsl sp
    54e8:	9ca03701 	stcls	7, cr3, [r0], #4
    54ec:	00140000 	andseq	r0, r4, r0
    54f0:	9c010000 	stcls	0, cr0, [r1], {-0}
    54f4:	00017f21 	andeq	r7, r1, r1, lsr #30
    54f8:	9c360100 	ldflss	f0, [r6], #-0
    54fc:	0400009c 	streq	r0, [r0], #-156	; 0x9c
    5500:	01000000 	mrseq	r0, (UNDEF: 0)
    5504:	0009459c 	muleq	r9, ip, r5
    5508:	00702200 	rsbseq	r2, r0, r0, lsl #4
    550c:	01053601 	tsteq	r5, r1, lsl #12
    5510:	50010000 	andpl	r0, r1, r0
    5514:	0cfc2400 	cfldrdeq	mvd2, [ip]
    5518:	29010000 	stmdbcs	r1, {}	; <UNPREDICTABLE>
    551c:	00000105 	andeq	r0, r0, r5, lsl #2
    5520:	00009c10 	andeq	r9, r0, r0, lsl ip
    5524:	0000008c 	andeq	r0, r0, ip, lsl #1
    5528:	0a309c01 	beq	c2c534 <__bss_end__+0xc2191c>
    552c:	4b250000 	blmi	945534 <__bss_end__+0x93a91c>
    5530:	01000003 	tsteq	r0, r3
    5534:	00002c29 	andeq	r2, r0, r9, lsr #24
    5538:	00162f00 	andseq	r2, r6, r0, lsl #30
    553c:	0d3a2500 	cfldr32eq	mvfx2, [sl, #-0]
    5540:	29010000 	stmdbcs	r1, {}	; <UNPREDICTABLE>
    5544:	0000002c 	andeq	r0, r0, ip, lsr #32
    5548:	00001682 	andeq	r1, r0, r2, lsl #13
    554c:	00012726 	andeq	r2, r1, r6, lsr #14
    5550:	000a4000 	andeq	r4, sl, r0
    5554:	e8030500 	stmda	r3, {r8, sl}
    5558:	270000a6 	strcs	r0, [r0, -r6, lsr #1]
    555c:	2e010068 	cdpcs	0, 0, cr0, cr1, cr8, {3}
    5560:	0000002c 	andeq	r0, r0, ip, lsr #32
    5564:	000016c9 	andeq	r1, r0, r9, asr #13
    5568:	009c4c28 	addseq	r4, ip, r8, lsr #24
    556c:	000a7900 	andeq	r7, sl, r0, lsl #18
    5570:	0009ad00 	andeq	sl, r9, r0, lsl #26
    5574:	50012900 	andpl	r2, r1, r0, lsl #18
    5578:	5001f303 	andpl	pc, r1, r3, lsl #6
    557c:	9c542a00 	mrrcls	10, 0, r2, r4, cr0
    5580:	0bfb0000 	bleq	ffec5588 <__bss_end__+0xffeba970>
    5584:	68280000 	stmdavs	r8!, {}	; <UNPREDICTABLE>
    5588:	0600009c 			; <UNDEFINED> instruction: 0x0600009c
    558c:	e500000c 	str	r0, [r0, #-12]
    5590:	29000009 	stmdbcs	r0, {r0, r3}
    5594:	03055001 	movweq	r5, #20481	; 0x5001
    5598:	0000a734 	andeq	sl, r0, r4, lsr r7
    559c:	05510129 	ldrbeq	r0, [r1, #-297]	; 0x129
    55a0:	00a6f803 	adceq	pc, r6, r3, lsl #16
    55a4:	52012900 	andpl	r2, r1, #0, 18
    55a8:	a6e80305 	strbtge	r0, [r8], r5, lsl #6
    55ac:	01290000 	teqeq	r9, r0
    55b0:	2a080253 	bcs	205f04 <__bss_end__+0x1fb2ec>
    55b4:	9c6c2a00 	stclls	10, cr2, [ip], #-0
    55b8:	0c110000 	ldceq	0, cr0, [r1], {-0}
    55bc:	702a0000 	eorvc	r0, sl, r0
    55c0:	fb00009c 	blx	583a <__code_start__-0x27c6>
    55c4:	2800000b 	stmdacs	r0, {r0, r1, r3}
    55c8:	00009c84 	andeq	r9, r0, r4, lsl #25
    55cc:	00000c06 	andeq	r0, r0, r6, lsl #24
    55d0:	00000a26 	andeq	r0, r0, r6, lsr #20
    55d4:	05500129 	ldrbeq	r0, [r0, #-297]	; 0x129
    55d8:	00a79403 	adceq	r9, r7, r3, lsl #8
    55dc:	51012900 	tstpl	r1, r0, lsl #18
    55e0:	a6f80305 	ldrbtge	r0, [r8], r5, lsl #6
    55e4:	01290000 	teqeq	r9, r0
    55e8:	e8030552 	stmda	r3, {r1, r4, r6, r8, sl}
    55ec:	290000a6 	stmdbcs	r0, {r1, r2, r5, r7}
    55f0:	08025301 	stmdaeq	r2, {r0, r8, r9, ip, lr}
    55f4:	882a0030 	stmdahi	sl!, {r4, r5}
    55f8:	1100009c 	swpne	r0, ip, [r0]	; <UNPREDICTABLE>
    55fc:	0000000c 	andeq	r0, r0, ip
    5600:	00011408 	andeq	r1, r1, r8, lsl #8
    5604:	000a4000 	andeq	r4, sl, r0
    5608:	00c70900 	sbceq	r0, r7, r0, lsl #18
    560c:	000f0000 	andeq	r0, pc, r0
    5610:	000a300e 	andeq	r3, sl, lr
    5614:	0d292400 	cfstrseq	mvf2, [r9, #-0]
    5618:	25010000 	strcs	r0, [r1, #-0]
    561c:	00000105 	andeq	r0, r0, r5, lsl #2
    5620:	00009c04 	andeq	r9, r0, r4, lsl #24
    5624:	0000000c 	andeq	r0, r0, ip
    5628:	0a689c01 	beq	1a2c634 <__bss_end__+0x1a21a1c>
    562c:	0c2a0000 	stceq	0, cr0, [sl], #-0
    5630:	d100009c 	swple	r0, ip, [r0]	; <UNPREDICTABLE>
    5634:	0000000b 	andeq	r0, r0, fp
    5638:	000cef23 	andeq	lr, ip, r3, lsr #30
    563c:	00240100 	eoreq	r0, r4, r0, lsl #2
    5640:	0400009c 	streq	r0, [r0], #-156	; 0x9c
    5644:	01000000 	mrseq	r0, (UNDEF: 0)
    5648:	0109249c 			; <UNDEFINED> instruction: 0x0109249c
    564c:	1a010000 	bne	45654 <__bss_end__+0x3aa3c>
    5650:	00000105 	andeq	r0, r0, r5, lsl #2
    5654:	00009b9c 	muleq	r0, ip, fp
    5658:	00000064 	andeq	r0, r0, r4, rrx
    565c:	0b249c01 	bleq	92c668 <__bss_end__+0x921a50>
    5660:	732b0000 	teqvc	fp, #0
    5664:	1a01007a 	bne	45854 <__bss_end__+0x3ac3c>
    5668:	0000002c 	andeq	r0, r0, ip, lsr #32
    566c:	00001701 	andeq	r1, r0, r1, lsl #14
    5670:	00012726 	andeq	r2, r1, r6, lsr #14
    5674:	000b3400 	andeq	r3, fp, r0, lsl #8
    5678:	e0030500 	and	r0, r3, r0, lsl #10
    567c:	2c0000a6 	stccs	0, cr0, [r0], {166}	; 0xa6
    5680:	000001df 	ldrdeq	r0, [r0], -pc	; <UNPREDICTABLE>
    5684:	01051e01 	tsteq	r5, r1, lsl #28
    5688:	174b0000 	strbne	r0, [fp, -r0]
    568c:	cc280000 	stcgt	0, cr0, [r8], #-0
    5690:	1c00009b 	stcne	0, cr0, [r0], {155}	; 0x9b
    5694:	e300000c 	movw	r0, #12
    5698:	2900000a 	stmdbcs	r0, {r1, r3}
    569c:	74025001 	strvc	r5, [r2], #-1
    56a0:	51012900 	tstpl	r1, r0, lsl #18
    56a4:	01293001 	teqeq	r9, r1
    56a8:	01f30852 	mvnseq	r0, r2, asr r8
    56ac:	09072350 	stmdbeq	r7, {r4, r6, r8, r9, sp}
    56b0:	2a001af8 	bcs	c298 <__bss_end__+0x1680>
    56b4:	00009bd8 	ldrdeq	r9, [r0], -r8
    56b8:	00000bfb 	strdeq	r0, [r0], -fp
    56bc:	009bec28 	addseq	lr, fp, r8, lsr #24
    56c0:	000c0600 	andeq	r0, ip, r0, lsl #12
    56c4:	000b1a00 	andeq	r1, fp, r0, lsl #20
    56c8:	50012900 	andpl	r2, r1, r0, lsl #18
    56cc:	a7200305 	strge	r0, [r0, -r5, lsl #6]!
    56d0:	01290000 	teqeq	r9, r0
    56d4:	f8030551 			; <UNDEFINED> instruction: 0xf8030551
    56d8:	290000a6 	stmdbcs	r0, {r1, r2, r5, r7}
    56dc:	03055201 	movweq	r5, #20993	; 0x5201
    56e0:	0000a6e0 	andeq	sl, r0, r0, ror #13
    56e4:	01530129 	cmpeq	r3, r9, lsr #2
    56e8:	f02a004b 			; <UNDEFINED> instruction: 0xf02a004b
    56ec:	1100009b 	swpne	r0, fp, [r0]	; <UNPREDICTABLE>
    56f0:	0000000c 	andeq	r0, r0, ip
    56f4:	00011408 	andeq	r1, r1, r8, lsl #8
    56f8:	000b3400 	andeq	r3, fp, r0, lsl #8
    56fc:	00c70900 	sbceq	r0, r7, r0, lsl #18
    5700:	00070000 	andeq	r0, r7, r0
    5704:	000b240e 	andeq	r2, fp, lr, lsl #8
    5708:	01982100 	orrseq	r2, r8, r0, lsl #2
    570c:	14010000 	strne	r0, [r1], #-0
    5710:	00009b4c 	andeq	r9, r0, ip, asr #22
    5714:	00000050 	andeq	r0, r0, r0, asr r0
    5718:	0bbc9c01 	bleq	fef2c724 <__bss_end__+0xfef21b0c>
    571c:	de250000 	cdple	0, 2, cr0, cr5, cr0, {0}
    5720:	01000001 	tsteq	r0, r1
    5724:	00002c14 	andeq	r2, r0, r4, lsl ip
    5728:	00175e00 	andseq	r5, r7, r0, lsl #28
    572c:	01df2c00 	bicseq	r2, pc, r0, lsl #24
    5730:	15010000 	strne	r0, [r1, #-0]
    5734:	00000107 	andeq	r0, r0, r7, lsl #2
    5738:	0000177f 	andeq	r1, r0, pc, ror r7
    573c:	00012726 	andeq	r2, r1, r6, lsr #14
    5740:	000bcc00 	andeq	ip, fp, r0, lsl #24
    5744:	c8030500 	stmdagt	r3, {r8, sl}
    5748:	2a0000a6 	bcs	59e8 <__code_start__-0x2618>
    574c:	00009b74 	andeq	r9, r0, r4, ror fp
    5750:	00000bfb 	strdeq	r0, [r0], -fp
    5754:	009b8828 	addseq	r8, fp, r8, lsr #16
    5758:	000c0600 	andeq	r0, ip, r0, lsl #12
    575c:	000bb200 	andeq	fp, fp, r0, lsl #4
    5760:	50012900 	andpl	r2, r1, r0, lsl #18
    5764:	a7040305 	strge	r0, [r4, -r5, lsl #6]
    5768:	01290000 	teqeq	r9, r0
    576c:	f8030551 			; <UNDEFINED> instruction: 0xf8030551
    5770:	290000a6 	stmdbcs	r0, {r1, r2, r5, r7}
    5774:	03055201 	movweq	r5, #20993	; 0x5201
    5778:	0000a6c8 	andeq	sl, r0, r8, asr #13
    577c:	01530129 	cmpeq	r3, r9, lsr #2
    5780:	8c2a0046 	stchi	0, cr0, [sl], #-280	; 0xfffffee8
    5784:	1100009b 	swpne	r0, fp, [r0]	; <UNPREDICTABLE>
    5788:	0000000c 	andeq	r0, r0, ip
    578c:	00011408 	andeq	r1, r1, r8, lsl #8
    5790:	000bcc00 	andeq	ip, fp, r0, lsl #24
    5794:	00c70900 	sbceq	r0, r7, r0, lsl #18
    5798:	00160000 	andseq	r0, r6, r0
    579c:	000bbc0e 	andeq	fp, fp, lr, lsl #24
    57a0:	0d532d00 	ldcleq	13, cr2, [r3, #-0]
    57a4:	12010000 	andne	r0, r1, #0
    57a8:	00000105 	andeq	r0, r0, r5, lsl #2
    57ac:	00009b40 	andeq	r9, r0, r0, asr #22
    57b0:	0000000c 	andeq	r0, r0, ip
    57b4:	662d9c01 	strtvs	r9, [sp], -r1, lsl #24
    57b8:	0100000d 	tsteq	r0, sp
    57bc:	00010511 	andeq	r0, r1, r1, lsl r5
    57c0:	009b3000 	addseq	r3, fp, r0
    57c4:	00001000 	andeq	r1, r0, r0
    57c8:	2e9c0100 	fmlcse	f0, f4, f0
    57cc:	00000111 	andeq	r0, r0, r1, lsl r1
    57d0:	00000111 	andeq	r0, r0, r1, lsl r1
    57d4:	0f2e1e06 	svceq	0x002e1e06
    57d8:	0f000005 	svceq	0x00000005
    57dc:	06000005 	streq	r0, [r0], -r5
    57e0:	00e92e29 	rsceq	r2, r9, r9, lsr #28
    57e4:	00e90000 	rsceq	r0, r9, r0
    57e8:	65060000 	strvs	r0, [r6, #-0]
    57ec:	0001202e 	andeq	r2, r1, lr, lsr #32
    57f0:	00012000 	andeq	r2, r1, r0
    57f4:	00190700 	andseq	r0, r9, r0, lsl #14

Disassembly of section .debug_abbrev:

00000000 <.debug_abbrev>:
       0:	25011101 	strcs	r1, [r1, #-257]	; 0x101
       4:	030b130e 	movweq	r1, #45838	; 0xb30e
       8:	110e1b0e 	tstne	lr, lr, lsl #22
       c:	10061201 	andne	r1, r6, r1, lsl #4
      10:	02000017 	andeq	r0, r0, #23
      14:	0b0b0024 	bleq	2c00ac <__bss_end__+0x2b5494>
      18:	08030b3e 	stmdaeq	r3, {r1, r2, r3, r4, r5, r8, r9, fp}
      1c:	16030000 	strne	r0, [r3], -r0
      20:	3a0e0300 	bcc	380c28 <__bss_end__+0x376010>
      24:	490b3b0b 	stmdbmi	fp, {r0, r1, r3, r8, r9, fp, ip, sp}
      28:	04000013 	streq	r0, [r0], #-19
      2c:	0b0b0024 	bleq	2c00c4 <__bss_end__+0x2b54ac>
      30:	0e030b3e 	vmoveq.16	d3[0], r0
      34:	0f050000 	svceq	0x00050000
      38:	000b0b00 	andeq	r0, fp, r0, lsl #22
      3c:	000f0600 	andeq	r0, pc, r0, lsl #12
      40:	13490b0b 	movtne	r0, #39691	; 0x9b0b
      44:	26070000 	strcs	r0, [r7], -r0
      48:	00134900 	andseq	r4, r3, r0, lsl #18
      4c:	01010800 	tsteq	r1, r0, lsl #16
      50:	13011349 	movwne	r1, #4937	; 0x1349
      54:	21090000 	mrscs	r0, (UNDEF: 9)
      58:	2f134900 	svccs	0x00134900
      5c:	0a00000b 	beq	90 <__code_start__-0x7f70>
      60:	193f012e 	ldmdbne	pc!, {r1, r2, r3, r5, r8}	; <UNPREDICTABLE>
      64:	0b3a0e03 	bleq	e83878 <__bss_end__+0xe78c60>
      68:	19270b3b 	stmdbne	r7!, {r0, r1, r3, r4, r5, r8, r9, fp}
      6c:	06120111 			; <UNDEFINED> instruction: 0x06120111
      70:	42971840 	addsmi	r1, r7, #64, 16	; 0x400000
      74:	00130119 	andseq	r0, r3, r9, lsl r1
      78:	00340b00 	eorseq	r0, r4, r0, lsl #22
      7c:	0b3a0803 	bleq	e82090 <__bss_end__+0xe77478>
      80:	13490b3b 	movtne	r0, #39739	; 0x9b3b
      84:	00001702 	andeq	r1, r0, r2, lsl #14
      88:	0300340c 	movweq	r3, #1036	; 0x40c
      8c:	3413490e 	ldrcc	r4, [r3], #-2318	; 0x90e
      90:	00180219 	andseq	r0, r8, r9, lsl r2
      94:	82890d00 	addhi	r0, r9, #0, 26
      98:	01110101 	tsteq	r1, r1, lsl #2
      9c:	13011331 	movwne	r1, #4913	; 0x1331
      a0:	8a0e0000 	bhi	3800a8 <__bss_end__+0x375490>
      a4:	02000182 	andeq	r0, r0, #-2147483616	; 0x80000020
      a8:	18429118 	stmdane	r2, {r3, r4, r8, ip, pc}^
      ac:	890f0000 	stmdbhi	pc, {}	; <UNPREDICTABLE>
      b0:	11010182 	smlabbne	r1, r2, r1, r0
      b4:	00133101 	andseq	r3, r3, r1, lsl #2
      b8:	00341000 	eorseq	r1, r4, r0
      bc:	0b3a0803 	bleq	e820d0 <__bss_end__+0xe774b8>
      c0:	13490b3b 	movtne	r0, #39739	; 0x9b3b
      c4:	0000061c 	andeq	r0, r0, ip, lsl r6
      c8:	01828911 	orreq	r8, r2, r1, lsl r9
      cc:	31011100 	mrscc	r1, (UNDEF: 17)
      d0:	12000013 	andne	r0, r0, #19
      d4:	193f012e 	ldmdbne	pc!, {r1, r2, r3, r5, r8}	; <UNPREDICTABLE>
      d8:	0b3a0e03 	bleq	e838ec <__bss_end__+0xe78cd4>
      dc:	19270b3b 	stmdbne	r7!, {r0, r1, r3, r4, r5, r8, r9, fp}
      e0:	193c1349 	ldmdbne	ip!, {r0, r3, r6, r8, r9, ip}
      e4:	00001301 	andeq	r1, r0, r1, lsl #6
      e8:	49000513 	stmdbmi	r0, {r0, r1, r4, r8, sl}
      ec:	14000013 	strne	r0, [r0], #-19
      f0:	00000018 	andeq	r0, r0, r8, lsl r0
      f4:	3f012e15 	svccc	0x00012e15
      f8:	3a0e0319 	bcc	380d64 <__bss_end__+0x37614c>
      fc:	270b3b0b 	strcs	r3, [fp, -fp, lsl #22]
     100:	01193c19 	tsteq	r9, r9, lsl ip
     104:	16000013 			; <UNDEFINED> instruction: 0x16000013
     108:	193f002e 	ldmdbne	pc!, {r1, r2, r3, r5}	; <UNPREDICTABLE>
     10c:	0b3a0e03 	bleq	e83920 <__bss_end__+0xe78d08>
     110:	19270b3b 	stmdbne	r7!, {r0, r1, r3, r4, r5, r8, r9, fp}
     114:	193c1349 	ldmdbne	ip!, {r0, r3, r6, r8, r9, ip}
     118:	2e170000 	cdpcs	0, 1, cr0, cr7, cr0, {0}
     11c:	03193f00 	tsteq	r9, #0, 30
     120:	3b0b3a0e 	blcc	2ce960 <__bss_end__+0x2c3d48>
     124:	3c19270b 	ldccc	7, cr2, [r9], {11}
     128:	18000019 	stmdane	r0, {r0, r3, r4}
     12c:	193f012e 	ldmdbne	pc!, {r1, r2, r3, r5, r8}	; <UNPREDICTABLE>
     130:	0b3a0e03 	bleq	e83944 <__bss_end__+0xe78d2c>
     134:	19270b3b 	stmdbne	r7!, {r0, r1, r3, r4, r5, r8, r9, fp}
     138:	193c1349 	ldmdbne	ip!, {r0, r3, r6, r8, r9, ip}
     13c:	01000000 	mrseq	r0, (UNDEF: 0)
     140:	0e250111 	mcreq	1, 1, r0, cr5, cr1, {0}
     144:	0e030b13 	vmoveq.32	d3[0], r0
     148:	01110e1b 	tsteq	r1, fp, lsl lr
     14c:	17100612 			; <UNDEFINED> instruction: 0x17100612
     150:	24020000 	strcs	r0, [r2], #-0
     154:	3e0b0b00 	vmlacc.f64	d0, d11, d0
     158:	0008030b 	andeq	r0, r8, fp, lsl #6
     15c:	00160300 	andseq	r0, r6, r0, lsl #6
     160:	0b3a0e03 	bleq	e83974 <__bss_end__+0xe78d5c>
     164:	13490b3b 	movtne	r0, #39739	; 0x9b3b
     168:	24040000 	strcs	r0, [r4], #-0
     16c:	3e0b0b00 	vmlacc.f64	d0, d11, d0
     170:	000e030b 	andeq	r0, lr, fp, lsl #6
     174:	000f0500 	andeq	r0, pc, r0, lsl #10
     178:	00000b0b 	andeq	r0, r0, fp, lsl #22
     17c:	0b000f06 	bleq	3d9c <__code_start__-0x4264>
     180:	0013490b 	andseq	r4, r3, fp, lsl #18
     184:	00260700 	eoreq	r0, r6, r0, lsl #14
     188:	00001349 	andeq	r1, r0, r9, asr #6
     18c:	49010108 	stmdbmi	r1, {r3, r8}
     190:	00130113 	andseq	r0, r3, r3, lsl r1
     194:	00210900 	eoreq	r0, r1, r0, lsl #18
     198:	0b2f1349 	bleq	bc4ec4 <__bss_end__+0xbba2ac>
     19c:	040a0000 	streq	r0, [sl], #-0
     1a0:	3a0b0b01 	bcc	2c2dac <__bss_end__+0x2b8194>
     1a4:	010b3b0b 	tsteq	fp, fp, lsl #22
     1a8:	0b000013 	bleq	1fc <__code_start__-0x7e04>
     1ac:	0e030028 	cdpeq	0, 0, cr0, cr3, cr8, {1}
     1b0:	00000d1c 	andeq	r0, r0, ip, lsl sp
     1b4:	0b01130c 	bleq	44dec <__bss_end__+0x3a1d4>
     1b8:	3b0b3a0b 	blcc	2ce9ec <__bss_end__+0x2c3dd4>
     1bc:	0013010b 	andseq	r0, r3, fp, lsl #2
     1c0:	000d0d00 	andeq	r0, sp, r0, lsl #26
     1c4:	0b3a0e03 	bleq	e839d8 <__bss_end__+0xe78dc0>
     1c8:	13490b3b 	movtne	r0, #39739	; 0x9b3b
     1cc:	00000b38 	andeq	r0, r0, r8, lsr fp
     1d0:	0301130e 	movweq	r1, #4878	; 0x130e
     1d4:	3a0b0b0e 	bcc	2c2e14 <__bss_end__+0x2b81fc>
     1d8:	010b3b0b 	tsteq	fp, fp, lsl #22
     1dc:	0f000013 	svceq	0x00000013
     1e0:	0e03012e 	adfeqsp	f0, f3, #0.5
     1e4:	0b3b0b3a 	bleq	ec2ed4 <__bss_end__+0xeb82bc>
     1e8:	13491927 	movtne	r1, #39207	; 0x9927
     1ec:	13010b20 	movwne	r0, #6944	; 0x1b20
     1f0:	05100000 	ldreq	r0, [r0, #-0]
     1f4:	3a080300 	bcc	200dfc <__bss_end__+0x1f61e4>
     1f8:	490b3b0b 	stmdbmi	fp, {r0, r1, r3, r8, r9, fp, ip, sp}
     1fc:	11000013 	tstne	r0, r3, lsl r0
     200:	0e030005 	cdpeq	0, 0, cr0, cr3, cr5, {0}
     204:	0b3b0b3a 	bleq	ec2ef4 <__bss_end__+0xeb82dc>
     208:	00001349 	andeq	r1, r0, r9, asr #6
     20c:	03012e12 	movweq	r2, #7698	; 0x1e12
     210:	3b0b3a0e 	blcc	2cea50 <__bss_end__+0x2c3e38>
     214:	2019270b 	andscs	r2, r9, fp, lsl #14
     218:	0013010b 	andseq	r0, r3, fp, lsl #2
     21c:	00341300 	eorseq	r1, r4, r0, lsl #6
     220:	0b3a0803 	bleq	e82234 <__bss_end__+0xe7761c>
     224:	13490b3b 	movtne	r0, #39739	; 0x9b3b
     228:	2e140000 	cdpcs	0, 1, cr0, cr4, cr0, {0}
     22c:	3a0e0301 	bcc	380e38 <__bss_end__+0x376220>
     230:	270b3b0b 	strcs	r3, [fp, -fp, lsl #22]
     234:	11134919 	tstne	r3, r9, lsl r9
     238:	40061201 	andmi	r1, r6, r1, lsl #4
     23c:	19429718 	stmdbne	r2, {r3, r4, r8, r9, sl, ip, pc}^
     240:	00001301 	andeq	r1, r0, r1, lsl #6
     244:	03000515 	movweq	r0, #1301	; 0x515
     248:	3b0b3a08 	blcc	2cea70 <__bss_end__+0x2c3e58>
     24c:	0213490b 	andseq	r4, r3, #180224	; 0x2c000
     250:	16000017 			; <UNDEFINED> instruction: 0x16000017
     254:	0e030005 	cdpeq	0, 0, cr0, cr3, cr5, {0}
     258:	0b3b0b3a 	bleq	ec2f48 <__bss_end__+0xeb8330>
     25c:	17021349 	strne	r1, [r2, -r9, asr #6]
     260:	34170000 	ldrcc	r0, [r7], #-0
     264:	3a080300 	bcc	200e6c <__bss_end__+0x1f6254>
     268:	490b3b0b 	stmdbmi	fp, {r0, r1, r3, r8, r9, fp, ip, sp}
     26c:	00170213 	andseq	r0, r7, r3, lsl r2
     270:	010b1800 	tsteq	fp, r0, lsl #16
     274:	06120111 			; <UNDEFINED> instruction: 0x06120111
     278:	34190000 	ldrcc	r0, [r9], #-0
     27c:	3a0e0300 	bcc	380e84 <__bss_end__+0x37626c>
     280:	490b3b0b 	stmdbmi	fp, {r0, r1, r3, r8, r9, fp, ip, sp}
     284:	00180213 	andseq	r0, r8, r3, lsl r2
     288:	00341a00 	eorseq	r1, r4, r0, lsl #20
     28c:	0b3a0e03 	bleq	e83aa0 <__bss_end__+0xe78e88>
     290:	13490b3b 	movtne	r0, #39739	; 0x9b3b
     294:	00001702 	andeq	r1, r0, r2, lsl #14
     298:	31011d1b 	tstcc	r1, fp, lsl sp
     29c:	12011113 	andne	r1, r1, #-1073741820	; 0xc0000004
     2a0:	590b5806 	stmdbpl	fp, {r1, r2, fp, ip, lr}
     2a4:	0013010b 	andseq	r0, r3, fp, lsl #2
     2a8:	00051c00 	andeq	r1, r5, r0, lsl #24
     2ac:	17021331 	smladxne	r2, r1, r3, r1
     2b0:	341d0000 	ldrcc	r0, [sp], #-0
     2b4:	02133100 	andseq	r3, r3, #0, 2
     2b8:	1e000017 	mcrne	0, 0, r0, cr0, cr7, {0}
     2bc:	01018289 	smlabbeq	r1, r9, r2, r8
     2c0:	13310111 	teqne	r1, #1073741828	; 0x40000004
     2c4:	00001301 	andeq	r1, r0, r1, lsl #6
     2c8:	01828a1f 	orreq	r8, r2, pc, lsl sl
     2cc:	91180200 	tstls	r8, r0, lsl #4
     2d0:	00001842 	andeq	r1, r0, r2, asr #16
     2d4:	01828920 	orreq	r8, r2, r0, lsr #18
     2d8:	31011101 	tstcc	r1, r1, lsl #2
     2dc:	21000013 	tstcs	r0, r3, lsl r0
     2e0:	0e03012e 	adfeqsp	f0, f3, #0.5
     2e4:	0b3b0b3a 	bleq	ec2fd4 <__bss_end__+0xeb83bc>
     2e8:	01111927 	tsteq	r1, r7, lsr #18
     2ec:	18400612 	stmdane	r0, {r1, r4, r9, sl}^
     2f0:	01194297 			; <UNDEFINED> instruction: 0x01194297
     2f4:	22000013 	andcs	r0, r0, #19
     2f8:	0e030034 	mcreq	0, 0, r0, cr3, cr4, {1}
     2fc:	19341349 	ldmdbne	r4!, {r0, r3, r6, r8, r9, ip}
     300:	00001802 	andeq	r1, r0, r2, lsl #16
     304:	01828923 	orreq	r8, r2, r3, lsr #18
     308:	31011100 	mrscc	r1, (UNDEF: 17)
     30c:	24000013 	strcs	r0, [r0], #-19
     310:	193f012e 	ldmdbne	pc!, {r1, r2, r3, r5, r8}	; <UNPREDICTABLE>
     314:	0b3a0e03 	bleq	e83b28 <__bss_end__+0xe78f10>
     318:	19270b3b 	stmdbne	r7!, {r0, r1, r3, r4, r5, r8, r9, fp}
     31c:	06120111 			; <UNDEFINED> instruction: 0x06120111
     320:	42971840 	addsmi	r1, r7, #64, 16	; 0x400000
     324:	00130119 	andseq	r0, r3, r9, lsl r1
     328:	012e2500 	teqeq	lr, r0, lsl #10
     32c:	0e03193f 	mcreq	9, 0, r1, cr3, cr15, {1}
     330:	0b3b0b3a 	bleq	ec3020 <__bss_end__+0xeb8408>
     334:	13491927 	movtne	r1, #39207	; 0x9927
     338:	06120111 			; <UNDEFINED> instruction: 0x06120111
     33c:	42971840 	addsmi	r1, r7, #64, 16	; 0x400000
     340:	00130119 	andseq	r0, r3, r9, lsl r1
     344:	010b2600 	tsteq	fp, r0, lsl #12
     348:	13011755 	movwne	r1, #5973	; 0x1755
     34c:	2e270000 	cdpcs	0, 2, cr0, cr7, cr0, {0}
     350:	03193f00 	tsteq	r9, #0, 30
     354:	3b0b3a0e 	blcc	2ceb94 <__bss_end__+0x2c3f7c>
     358:	4919270b 	ldmdbmi	r9, {r0, r1, r3, r8, r9, sl, sp}
     35c:	12011113 	andne	r1, r1, #-1073741820	; 0xc0000004
     360:	97184006 	ldrls	r4, [r8, -r6]
     364:	00001942 	andeq	r1, r0, r2, asr #18
     368:	3f012e28 	svccc	0x00012e28
     36c:	3a0e0319 	bcc	380fd8 <__bss_end__+0x3763c0>
     370:	270b3b0b 	strcs	r3, [fp, -fp, lsl #22]
     374:	3c134919 	ldccc	9, cr4, [r3], {25}
     378:	00130119 	andseq	r0, r3, r9, lsl r1
     37c:	00052900 	andeq	r2, r5, r0, lsl #18
     380:	00001349 	andeq	r1, r0, r9, asr #6
     384:	0000182a 	andeq	r1, r0, sl, lsr #16
     388:	00262b00 	eoreq	r2, r6, r0, lsl #22
     38c:	2e2c0000 	cdpcs	0, 2, cr0, cr12, cr0, {0}
     390:	03193f00 	tsteq	r9, #0, 30
     394:	3b0b3a0e 	blcc	2cebd4 <__bss_end__+0x2c3fbc>
     398:	3c19270b 	ldccc	7, cr2, [r9], {11}
     39c:	00000019 	andeq	r0, r0, r9, lsl r0
     3a0:	25011101 	strcs	r1, [r1, #-257]	; 0x101
     3a4:	030b130e 	movweq	r1, #45838	; 0xb30e
     3a8:	110e1b0e 	tstne	lr, lr, lsl #22
     3ac:	10061201 	andne	r1, r6, r1, lsl #4
     3b0:	02000017 	andeq	r0, r0, #23
     3b4:	0b0b0024 	bleq	2c044c <__bss_end__+0x2b5834>
     3b8:	08030b3e 	stmdaeq	r3, {r1, r2, r3, r4, r5, r8, r9, fp}
     3bc:	24030000 	strcs	r0, [r3], #-0
     3c0:	3e0b0b00 	vmlacc.f64	d0, d11, d0
     3c4:	000e030b 	andeq	r0, lr, fp, lsl #6
     3c8:	00160400 	andseq	r0, r6, r0, lsl #8
     3cc:	0b3a0e03 	bleq	e83be0 <__bss_end__+0xe78fc8>
     3d0:	13490b3b 	movtne	r0, #39739	; 0x9b3b
     3d4:	0f050000 	svceq	0x00050000
     3d8:	000b0b00 	andeq	r0, fp, r0, lsl #22
     3dc:	000f0600 	andeq	r0, pc, r0, lsl #12
     3e0:	13490b0b 	movtne	r0, #39691	; 0x9b0b
     3e4:	26070000 	strcs	r0, [r7], -r0
     3e8:	00134900 	andseq	r4, r3, r0, lsl #18
     3ec:	01040800 	tsteq	r4, r0, lsl #16
     3f0:	0b3a0b0b 	bleq	e83024 <__bss_end__+0xe7840c>
     3f4:	13010b3b 	movwne	r0, #6971	; 0x1b3b
     3f8:	28090000 	stmdacs	r9, {}	; <UNPREDICTABLE>
     3fc:	1c0e0300 	stcne	3, cr0, [lr], {-0}
     400:	0a00000d 	beq	43c <__code_start__-0x7bc4>
     404:	0b0b0113 	bleq	2c0858 <__bss_end__+0x2b5c40>
     408:	0b3b0b3a 	bleq	ec30f8 <__bss_end__+0xeb84e0>
     40c:	00001301 	andeq	r1, r0, r1, lsl #6
     410:	03000d0b 	movweq	r0, #3339	; 0xd0b
     414:	3b0b3a0e 	blcc	2cec54 <__bss_end__+0x2c403c>
     418:	3813490b 	ldmdacc	r3, {r0, r1, r3, r8, fp, lr}
     41c:	0c00000b 	stceq	0, cr0, [r0], {11}
     420:	0e030113 	mcreq	1, 0, r0, cr3, cr3, {0}
     424:	0b3a0b0b 	bleq	e83058 <__bss_end__+0xe78440>
     428:	13010b3b 	movwne	r0, #6971	; 0x1b3b
     42c:	2e0d0000 	cdpcs	0, 0, cr0, cr13, cr0, {0}
     430:	3a0e0301 	bcc	38103c <__bss_end__+0x376424>
     434:	270b3b0b 	strcs	r3, [fp, -fp, lsl #22]
     438:	20134919 	andscs	r4, r3, r9, lsl r9
     43c:	0013010b 	andseq	r0, r3, fp, lsl #2
     440:	00050e00 	andeq	r0, r5, r0, lsl #28
     444:	0b3a0803 	bleq	e82458 <__bss_end__+0xe77840>
     448:	13490b3b 	movtne	r0, #39739	; 0x9b3b
     44c:	2e0f0000 	cdpcs	0, 0, cr0, cr15, cr0, {0}
     450:	3a0e0301 	bcc	38105c <__bss_end__+0x376444>
     454:	270b3b0b 	strcs	r3, [fp, -fp, lsl #22]
     458:	11134919 	tstne	r3, r9, lsl r9
     45c:	40061201 	andmi	r1, r6, r1, lsl #4
     460:	19429718 	stmdbne	r2, {r3, r4, r8, r9, sl, ip, pc}^
     464:	00001301 	andeq	r1, r0, r1, lsl #6
     468:	03000510 	movweq	r0, #1296	; 0x510
     46c:	3b0b3a08 	blcc	2cec94 <__bss_end__+0x2c407c>
     470:	0213490b 	andseq	r4, r3, #180224	; 0x2c000
     474:	11000017 	tstne	r0, r7, lsl r0
     478:	0e030005 	cdpeq	0, 0, cr0, cr3, cr5, {0}
     47c:	0b3b0b3a 	bleq	ec316c <__bss_end__+0xeb8554>
     480:	17021349 	strne	r1, [r2, -r9, asr #6]
     484:	34120000 	ldrcc	r0, [r2], #-0
     488:	3a080300 	bcc	201090 <__bss_end__+0x1f6478>
     48c:	490b3b0b 	stmdbmi	fp, {r0, r1, r3, r8, r9, fp, ip, sp}
     490:	00170213 	andseq	r0, r7, r3, lsl r2
     494:	00341300 	eorseq	r1, r4, r0, lsl #6
     498:	0b3a0e03 	bleq	e83cac <__bss_end__+0xe79094>
     49c:	13490b3b 	movtne	r0, #39739	; 0x9b3b
     4a0:	00001702 	andeq	r1, r0, r2, lsl #14
     4a4:	01828914 	orreq	r8, r2, r4, lsl r9
     4a8:	31011101 	tstcc	r1, r1, lsl #2
     4ac:	00130113 	andseq	r0, r3, r3, lsl r1
     4b0:	828a1500 	addhi	r1, sl, #0, 10
     4b4:	18020001 	stmdane	r2, {r0}
     4b8:	00184291 	mulseq	r8, r1, r2
     4bc:	82891600 	addhi	r1, r9, #0, 12
     4c0:	01110001 	tsteq	r1, r1
     4c4:	00001331 	andeq	r1, r0, r1, lsr r3
     4c8:	01828917 	orreq	r8, r2, r7, lsl r9
     4cc:	31011101 	tstcc	r1, r1, lsl #2
     4d0:	18000013 	stmdane	r0, {r0, r1, r4}
     4d4:	0e03012e 	adfeqsp	f0, f3, #0.5
     4d8:	0b3b0b3a 	bleq	ec31c8 <__bss_end__+0xeb85b0>
     4dc:	01111927 	tsteq	r1, r7, lsr #18
     4e0:	18400612 	stmdane	r0, {r1, r4, r9, sl}^
     4e4:	01194297 			; <UNDEFINED> instruction: 0x01194297
     4e8:	19000013 	stmdbne	r0, {r0, r1, r4}
     4ec:	0e030034 	mcreq	0, 0, r0, cr3, cr4, {1}
     4f0:	19341349 	ldmdbne	r4!, {r0, r3, r6, r8, r9, ip}
     4f4:	00001802 	andeq	r1, r0, r2, lsl #16
     4f8:	0300341a 	movweq	r3, #1050	; 0x41a
     4fc:	3b0b3a08 	blcc	2ced24 <__bss_end__+0x2c410c>
     500:	0013490b 	andseq	r4, r3, fp, lsl #18
     504:	01011b00 	tsteq	r1, r0, lsl #22
     508:	13011349 	movwne	r1, #4937	; 0x1349
     50c:	211c0000 	tstcs	ip, r0
     510:	2f134900 	svccs	0x00134900
     514:	1d00000b 	stcne	0, cr0, [r0, #-44]	; 0xffffffd4
     518:	08030034 	stmdaeq	r3, {r2, r4, r5}
     51c:	0b3b0b3a 	bleq	ec320c <__bss_end__+0xeb85f4>
     520:	18021349 	stmdane	r2, {r0, r3, r6, r8, r9, ip}
     524:	341e0000 	ldrcc	r0, [lr], #-0
     528:	3a0e0300 	bcc	381130 <__bss_end__+0x376518>
     52c:	490b3b0b 	stmdbmi	fp, {r0, r1, r3, r8, r9, fp, ip, sp}
     530:	00180213 	andseq	r0, r8, r3, lsl r2
     534:	00341f00 	eorseq	r1, r4, r0, lsl #30
     538:	0b3a0e03 	bleq	e83d4c <__bss_end__+0xe79134>
     53c:	13490b3b 	movtne	r0, #39739	; 0x9b3b
     540:	0000061c 	andeq	r0, r0, ip, lsl r6
     544:	03003420 	movweq	r3, #1056	; 0x420
     548:	3b0b3a0e 	blcc	2ced88 <__bss_end__+0x2c4170>
     54c:	3f13490b 	svccc	0x0013490b
     550:	00193c19 	andseq	r3, r9, r9, lsl ip
     554:	010b2100 	mrseq	r2, (UNDEF: 27)
     558:	06120111 			; <UNDEFINED> instruction: 0x06120111
     55c:	00001301 	andeq	r1, r0, r1, lsl #6
     560:	55010b22 	strpl	r0, [r1, #-2850]	; 0xb22
     564:	00130117 	andseq	r0, r3, r7, lsl r1
     568:	012e2300 	teqeq	lr, r0, lsl #6
     56c:	0b3a0e03 	bleq	e83d80 <__bss_end__+0xe79168>
     570:	1927053b 	stmdbne	r7!, {r0, r1, r3, r4, r5, r8, sl}
     574:	01111349 	tsteq	r1, r9, asr #6
     578:	18400612 	stmdane	r0, {r1, r4, r9, sl}^
     57c:	01194297 			; <UNDEFINED> instruction: 0x01194297
     580:	24000013 	strcs	r0, [r0], #-19
     584:	0e030034 	mcreq	0, 0, r0, cr3, cr4, {1}
     588:	053b0b3a 	ldreq	r0, [fp, #-2874]!	; 0xb3a
     58c:	17021349 	strne	r1, [r2, -r9, asr #6]
     590:	34250000 	strtcc	r0, [r5], #-0
     594:	3a0e0300 	bcc	38119c <__bss_end__+0x376584>
     598:	49053b0b 	stmdbmi	r5, {r0, r1, r3, r8, r9, fp, ip, sp}
     59c:	00180213 	andseq	r0, r8, r3, lsl r2
     5a0:	00342600 	eorseq	r2, r4, r0, lsl #12
     5a4:	0b3a0803 	bleq	e825b8 <__bss_end__+0xe779a0>
     5a8:	1349053b 	movtne	r0, #38203	; 0x953b
     5ac:	00001802 	andeq	r1, r0, r2, lsl #16
     5b0:	3f012e27 	svccc	0x00012e27
     5b4:	3a0e0319 	bcc	381220 <__bss_end__+0x376608>
     5b8:	270b3b0b 	strcs	r3, [fp, -fp, lsl #22]
     5bc:	11134919 	tstne	r3, r9, lsl r9
     5c0:	40061201 	andmi	r1, r6, r1, lsl #4
     5c4:	19429718 	stmdbne	r2, {r3, r4, r8, r9, sl, ip, pc}^
     5c8:	00001301 	andeq	r1, r0, r1, lsl #6
     5cc:	3f012e28 	svccc	0x00012e28
     5d0:	3a0e0319 	bcc	38123c <__bss_end__+0x376624>
     5d4:	27053b0b 	strcs	r3, [r5, -fp, lsl #22]
     5d8:	12011119 	andne	r1, r1, #1073741830	; 0x40000006
     5dc:	97184006 	ldrls	r4, [r8, -r6]
     5e0:	13011942 	movwne	r1, #6466	; 0x1942
     5e4:	2e290000 	cdpcs	0, 2, cr0, cr9, cr0, {0}
     5e8:	03193f01 	tsteq	r9, #1, 30
     5ec:	3b0b3a0e 	blcc	2cee2c <__bss_end__+0x2c4214>
     5f0:	49192705 	ldmdbmi	r9, {r0, r2, r8, r9, sl, sp}
     5f4:	12011113 	andne	r1, r1, #-1073741820	; 0xc0000004
     5f8:	97184006 	ldrls	r4, [r8, -r6]
     5fc:	13011942 	movwne	r1, #6466	; 0x1942
     600:	2e2a0000 	cdpcs	0, 2, cr0, cr10, cr0, {0}
     604:	03193f00 	tsteq	r9, #0, 30
     608:	3b0b3a0e 	blcc	2cee48 <__bss_end__+0x2c4230>
     60c:	4919270b 	ldmdbmi	r9, {r0, r1, r3, r8, r9, sl, sp}
     610:	00193c13 	andseq	r3, r9, r3, lsl ip
     614:	012e2b00 	teqeq	lr, r0, lsl #22
     618:	0e03193f 	mcreq	9, 0, r1, cr3, cr15, {1}
     61c:	0b3b0b3a 	bleq	ec330c <__bss_end__+0xeb86f4>
     620:	13491927 	movtne	r1, #39207	; 0x9927
     624:	1301193c 	movwne	r1, #6460	; 0x193c
     628:	052c0000 	streq	r0, [ip, #-0]!
     62c:	00134900 	andseq	r4, r3, r0, lsl #18
     630:	00182d00 	andseq	r2, r8, r0, lsl #26
     634:	2e2e0000 	cdpcs	0, 2, cr0, cr14, cr0, {0}
     638:	03193f00 	tsteq	r9, #0, 30
     63c:	3b0b3a0e 	blcc	2cee7c <__bss_end__+0x2c4264>
     640:	3c19270b 	ldccc	7, cr2, [r9], {11}
     644:	2f000019 	svccs	0x00000019
     648:	193f012e 	ldmdbne	pc!, {r1, r2, r3, r5, r8}	; <UNPREDICTABLE>
     64c:	0b3a0e03 	bleq	e83e60 <__bss_end__+0xe79248>
     650:	19270b3b 	stmdbne	r7!, {r0, r1, r3, r4, r5, r8, r9, fp}
     654:	1301193c 	movwne	r1, #6460	; 0x193c
     658:	01000000 	mrseq	r0, (UNDEF: 0)
     65c:	0e250111 	mcreq	1, 1, r0, cr5, cr1, {0}
     660:	0e030b13 	vmoveq.32	d3[0], r0
     664:	01110e1b 	tsteq	r1, fp, lsl lr
     668:	17100612 			; <UNDEFINED> instruction: 0x17100612
     66c:	24020000 	strcs	r0, [r2], #-0
     670:	3e0b0b00 	vmlacc.f64	d0, d11, d0
     674:	0008030b 	andeq	r0, r8, fp, lsl #6
     678:	00240300 	eoreq	r0, r4, r0, lsl #6
     67c:	0b3e0b0b 	bleq	f832b0 <__bss_end__+0xf78698>
     680:	00000e03 	andeq	r0, r0, r3, lsl #28
     684:	03001604 	movweq	r1, #1540	; 0x604
     688:	3b0b3a0e 	blcc	2ceec8 <__bss_end__+0x2c42b0>
     68c:	0013490b 	andseq	r4, r3, fp, lsl #18
     690:	000f0500 	andeq	r0, pc, r0, lsl #10
     694:	13490b0b 	movtne	r0, #39691	; 0x9b0b
     698:	26060000 	strcs	r0, [r6], -r0
     69c:	00134900 	andseq	r4, r3, r0, lsl #18
     6a0:	012e0700 	teqeq	lr, r0, lsl #14
     6a4:	0e03193f 	mcreq	9, 0, r1, cr3, cr15, {1}
     6a8:	0b3b0b3a 	bleq	ec3398 <__bss_end__+0xeb8780>
     6ac:	13491927 	movtne	r1, #39207	; 0x9927
     6b0:	06120111 			; <UNDEFINED> instruction: 0x06120111
     6b4:	42971840 	addsmi	r1, r7, #64, 16	; 0x400000
     6b8:	00130119 	andseq	r0, r3, r9, lsl r1
     6bc:	00050800 	andeq	r0, r5, r0, lsl #16
     6c0:	0b3a0e03 	bleq	e83ed4 <__bss_end__+0xe792bc>
     6c4:	13490b3b 	movtne	r0, #39739	; 0x9b3b
     6c8:	00001702 	andeq	r1, r0, r2, lsl #14
     6cc:	03000509 	movweq	r0, #1289	; 0x509
     6d0:	3b0b3a08 	blcc	2ceef8 <__bss_end__+0x2c42e0>
     6d4:	0213490b 	andseq	r4, r3, #180224	; 0x2c000
     6d8:	0a000017 	beq	73c <__code_start__-0x78c4>
     6dc:	0e030034 	mcreq	0, 0, r0, cr3, cr4, {1}
     6e0:	0b3b0b3a 	bleq	ec33d0 <__bss_end__+0xeb87b8>
     6e4:	17021349 	strne	r1, [r2, -r9, asr #6]
     6e8:	340b0000 	strcc	r0, [fp], #-0
     6ec:	3a080300 	bcc	2012f4 <__bss_end__+0x1f66dc>
     6f0:	490b3b0b 	stmdbmi	fp, {r0, r1, r3, r8, r9, fp, ip, sp}
     6f4:	00170213 	andseq	r0, r7, r3, lsl r2
     6f8:	00260c00 	eoreq	r0, r6, r0, lsl #24
     6fc:	01000000 	mrseq	r0, (UNDEF: 0)
     700:	0e250111 	mcreq	1, 1, r0, cr5, cr1, {0}
     704:	0e030b13 	vmoveq.32	d3[0], r0
     708:	01110e1b 	tsteq	r1, fp, lsl lr
     70c:	17100612 			; <UNDEFINED> instruction: 0x17100612
     710:	24020000 	strcs	r0, [r2], #-0
     714:	3e0b0b00 	vmlacc.f64	d0, d11, d0
     718:	000e030b 	andeq	r0, lr, fp, lsl #6
     71c:	00240300 	eoreq	r0, r4, r0, lsl #6
     720:	0b3e0b0b 	bleq	f83354 <__bss_end__+0xf7873c>
     724:	00000803 	andeq	r0, r0, r3, lsl #16
     728:	0b000f04 	bleq	4340 <__code_start__-0x3cc0>
     72c:	0500000b 	streq	r0, [r0, #-11]
     730:	0b0b000f 	bleq	2c0774 <__bss_end__+0x2b5b5c>
     734:	00001349 	andeq	r1, r0, r9, asr #6
     738:	03001606 	movweq	r1, #1542	; 0x606
     73c:	3b0b3a0e 	blcc	2cef7c <__bss_end__+0x2c4364>
     740:	0013490b 	andseq	r4, r3, fp, lsl #18
     744:	012e0700 	teqeq	lr, r0, lsl #14
     748:	0e03193f 	mcreq	9, 0, r1, cr3, cr15, {1}
     74c:	0b3b0b3a 	bleq	ec343c <__bss_end__+0xeb8824>
     750:	13491927 	movtne	r1, #39207	; 0x9927
     754:	06120111 			; <UNDEFINED> instruction: 0x06120111
     758:	42971840 	addsmi	r1, r7, #64, 16	; 0x400000
     75c:	08000019 	stmdaeq	r0, {r0, r3, r4}
     760:	08030005 	stmdaeq	r3, {r0, r2}
     764:	0b3b0b3a 	bleq	ec3454 <__bss_end__+0xeb883c>
     768:	18021349 	stmdane	r2, {r0, r3, r6, r8, r9, ip}
     76c:	05090000 	streq	r0, [r9, #-0]
     770:	3a080300 	bcc	201378 <__bss_end__+0x1f6760>
     774:	490b3b0b 	stmdbmi	fp, {r0, r1, r3, r8, r9, fp, ip, sp}
     778:	00170213 	andseq	r0, r7, r3, lsl r2
     77c:	00340a00 	eorseq	r0, r4, r0, lsl #20
     780:	0b3a0803 	bleq	e82794 <__bss_end__+0xe77b7c>
     784:	13490b3b 	movtne	r0, #39739	; 0x9b3b
     788:	00001702 	andeq	r1, r0, r2, lsl #14
     78c:	0300340b 	movweq	r3, #1035	; 0x40b
     790:	3b0b3a08 	blcc	2cefb8 <__bss_end__+0x2c43a0>
     794:	0213490b 	andseq	r4, r3, #180224	; 0x2c000
     798:	00000018 	andeq	r0, r0, r8, lsl r0
     79c:	25011101 	strcs	r1, [r1, #-257]	; 0x101
     7a0:	030b130e 	movweq	r1, #45838	; 0xb30e
     7a4:	110e1b0e 	tstne	lr, lr, lsl #22
     7a8:	10061201 	andne	r1, r6, r1, lsl #4
     7ac:	02000017 	andeq	r0, r0, #23
     7b0:	0e030016 	mcreq	0, 0, r0, cr3, cr6, {0}
     7b4:	0b3b0b3a 	bleq	ec34a4 <__bss_end__+0xeb888c>
     7b8:	00001349 	andeq	r1, r0, r9, asr #6
     7bc:	03011303 	movweq	r1, #4867	; 0x1303
     7c0:	3a0b0b0e 	bcc	2c3400 <__bss_end__+0x2b87e8>
     7c4:	010b3b0b 	tsteq	fp, fp, lsl #22
     7c8:	04000013 	streq	r0, [r0], #-19
     7cc:	0e03000d 	cdpeq	0, 0, cr0, cr3, cr13, {0}
     7d0:	0b381349 	bleq	e054fc <__bss_end__+0xdfa8e4>
     7d4:	00001934 	andeq	r1, r0, r4, lsr r9
     7d8:	0b000f05 	bleq	43f4 <__code_start__-0x3c0c>
     7dc:	0600000b 	streq	r0, [r0], -fp
     7e0:	0b0b0024 	bleq	2c0878 <__bss_end__+0x2b5c60>
     7e4:	08030b3e 	stmdaeq	r3, {r1, r2, r3, r4, r5, r8, r9, fp}
     7e8:	24070000 	strcs	r0, [r7], #-0
     7ec:	3e0b0b00 	vmlacc.f64	d0, d11, d0
     7f0:	000e030b 	andeq	r0, lr, fp, lsl #6
     7f4:	000f0800 	andeq	r0, pc, r0, lsl #16
     7f8:	13490b0b 	movtne	r0, #39691	; 0x9b0b
     7fc:	26090000 	strcs	r0, [r9], -r0
     800:	00134900 	andseq	r4, r3, r0, lsl #18
     804:	012e0a00 	teqeq	lr, r0, lsl #20
     808:	0e03193f 	mcreq	9, 0, r1, cr3, cr15, {1}
     80c:	0b3b0b3a 	bleq	ec34fc <__bss_end__+0xeb88e4>
     810:	13491927 	movtne	r1, #39207	; 0x9927
     814:	06120111 			; <UNDEFINED> instruction: 0x06120111
     818:	42971840 	addsmi	r1, r7, #64, 16	; 0x400000
     81c:	00130119 	andseq	r0, r3, r9, lsl r1
     820:	00050b00 	andeq	r0, r5, r0, lsl #22
     824:	0b3a0803 	bleq	e82838 <__bss_end__+0xe77c20>
     828:	13490b3b 	movtne	r0, #39739	; 0x9b3b
     82c:	00001802 	andeq	r1, r0, r2, lsl #16
     830:	0000180c 	andeq	r1, r0, ip, lsl #16
     834:	00340d00 	eorseq	r0, r4, r0, lsl #26
     838:	0b3a0803 	bleq	e8284c <__bss_end__+0xe77c34>
     83c:	13490b3b 	movtne	r0, #39739	; 0x9b3b
     840:	00001802 	andeq	r1, r0, r2, lsl #16
     844:	0300340e 	movweq	r3, #1038	; 0x40e
     848:	3b0b3a0e 	blcc	2cf088 <__bss_end__+0x2c4470>
     84c:	0213490b 	andseq	r4, r3, #180224	; 0x2c000
     850:	0f000018 	svceq	0x00000018
     854:	08030034 	stmdaeq	r3, {r2, r4, r5}
     858:	0b3b0b3a 	bleq	ec3548 <__bss_end__+0xeb8930>
     85c:	17021349 	strne	r1, [r2, -r9, asr #6]
     860:	89100000 	ldmdbhi	r0, {}	; <UNPREDICTABLE>
     864:	11010182 	smlabbne	r1, r2, r1, r0
     868:	01133101 	tsteq	r3, r1, lsl #2
     86c:	11000013 	tstne	r0, r3, lsl r0
     870:	0001828a 	andeq	r8, r1, sl, lsl #5
     874:	42911802 	addsmi	r1, r1, #131072	; 0x20000
     878:	12000018 	andne	r0, r0, #24
     87c:	01018289 	smlabbeq	r1, r9, r2, r8
     880:	00000111 	andeq	r0, r0, r1, lsl r1
     884:	49010113 	stmdbmi	r1, {r0, r1, r4, r8}
     888:	00130113 	andseq	r0, r3, r3, lsl r1
     88c:	00211400 	eoreq	r1, r1, r0, lsl #8
     890:	052f1349 	streq	r1, [pc, #-841]!	; 54f <__code_start__-0x7ab1>
     894:	15150000 	ldrne	r0, [r5, #-0]
     898:	49192701 	ldmdbmi	r9, {r0, r8, r9, sl, sp}
     89c:	00130113 	andseq	r0, r3, r3, lsl r1
     8a0:	00051600 	andeq	r1, r5, r0, lsl #12
     8a4:	00001349 	andeq	r1, r0, r9, asr #6
     8a8:	03003417 	movweq	r3, #1047	; 0x417
     8ac:	3b0b3a0e 	blcc	2cf0ec <__bss_end__+0x2c44d4>
     8b0:	3f13490b 	svccc	0x0013490b
     8b4:	00193c19 	andseq	r3, r9, r9, lsl ip
     8b8:	012e1800 	teqeq	lr, r0, lsl #16
     8bc:	0e03193f 	mcreq	9, 0, r1, cr3, cr15, {1}
     8c0:	0b3b0b3a 	bleq	ec35b0 <__bss_end__+0xeb8998>
     8c4:	13491927 	movtne	r1, #39207	; 0x9927
     8c8:	0000193c 	andeq	r1, r0, ip, lsr r9
     8cc:	01110100 	tsteq	r1, r0, lsl #2
     8d0:	0b130e25 	bleq	4c416c <__bss_end__+0x4b9554>
     8d4:	0e1b0e03 	cdpeq	14, 1, cr0, cr11, cr3, {0}
     8d8:	06120111 			; <UNDEFINED> instruction: 0x06120111
     8dc:	00001710 	andeq	r1, r0, r0, lsl r7
     8e0:	0b002402 	bleq	98f0 <uart_init+0x38>
     8e4:	030b3e0b 	movweq	r3, #48651	; 0xbe0b
     8e8:	03000008 	movweq	r0, #8
     8ec:	0b0b0024 	bleq	2c0984 <__bss_end__+0x2b5d6c>
     8f0:	0e030b3e 	vmoveq.16	d3[0], r0
     8f4:	2e040000 	cdpcs	0, 0, cr0, cr4, cr0, {0}
     8f8:	3a0e0301 	bcc	381504 <__bss_end__+0x3768ec>
     8fc:	270b3b0b 	strcs	r3, [fp, -fp, lsl #22]
     900:	11134919 	tstne	r3, r9, lsl r9
     904:	40061201 	andmi	r1, r6, r1, lsl #4
     908:	19429718 	stmdbne	r2, {r3, r4, r8, r9, sl, ip, pc}^
     90c:	00001301 	andeq	r1, r0, r1, lsl #6
     910:	03000505 	movweq	r0, #1285	; 0x505
     914:	3b0b3a08 	blcc	2cf13c <__bss_end__+0x2c4524>
     918:	0213490b 	andseq	r4, r3, #180224	; 0x2c000
     91c:	06000017 			; <UNDEFINED> instruction: 0x06000017
     920:	01018289 	smlabbeq	r1, r9, r2, r8
     924:	13310111 	teqne	r1, #1073741828	; 0x40000004
     928:	8a070000 	bhi	1c0930 <__bss_end__+0x1b5d18>
     92c:	02000182 	andeq	r0, r0, #-2147483616	; 0x80000020
     930:	18429118 	stmdane	r2, {r3, r4, r8, ip, pc}^
     934:	2e080000 	cdpcs	0, 0, cr0, cr8, cr0, {0}
     938:	03193f00 	tsteq	r9, #0, 30
     93c:	3b0b3a0e 	blcc	2cf17c <__bss_end__+0x2c4564>
     940:	1119270b 	tstne	r9, fp, lsl #14
     944:	40061201 	andmi	r1, r6, r1, lsl #4
     948:	19429718 	stmdbne	r2, {r3, r4, r8, r9, sl, ip, pc}^
     94c:	2e090000 	cdpcs	0, 0, cr0, cr9, cr0, {0}
     950:	03193f01 	tsteq	r9, #1, 30
     954:	3b0b3a0e 	blcc	2cf194 <__bss_end__+0x2c457c>
     958:	1119270b 	tstne	r9, fp, lsl #14
     95c:	40061201 	andmi	r1, r6, r1, lsl #4
     960:	19429718 	stmdbne	r2, {r3, r4, r8, r9, sl, ip, pc}^
     964:	00001301 	andeq	r1, r0, r1, lsl #6
     968:	0300050a 	movweq	r0, #1290	; 0x50a
     96c:	3b0b3a08 	blcc	2cf194 <__bss_end__+0x2c457c>
     970:	0213490b 	andseq	r4, r3, #180224	; 0x2c000
     974:	0b000018 	bleq	9dc <__code_start__-0x7624>
     978:	19270115 	stmdbne	r7!, {r0, r2, r4, r8}
     97c:	13011349 	movwne	r1, #4937	; 0x1349
     980:	050c0000 	streq	r0, [ip, #-0]
     984:	00134900 	andseq	r4, r3, r0, lsl #18
     988:	000f0d00 	andeq	r0, pc, r0, lsl #26
     98c:	13490b0b 	movtne	r0, #39691	; 0x9b0b
     990:	340e0000 	strcc	r0, [lr], #-0
     994:	3a0e0300 	bcc	38159c <__bss_end__+0x376984>
     998:	490b3b0b 	stmdbmi	fp, {r0, r1, r3, r8, r9, fp, ip, sp}
     99c:	02193f13 	andseq	r3, r9, #19, 30	; 0x4c
     9a0:	0f000018 	svceq	0x00000018
     9a4:	193f012e 	ldmdbne	pc!, {r1, r2, r3, r5, r8}	; <UNPREDICTABLE>
     9a8:	0b3a0e03 	bleq	e841bc <__bss_end__+0xe795a4>
     9ac:	19270b3b 	stmdbne	r7!, {r0, r1, r3, r4, r5, r8, r9, fp}
     9b0:	0000193c 	andeq	r1, r0, ip, lsr r9
     9b4:	01110100 	tsteq	r1, r0, lsl #2
     9b8:	0b130e25 	bleq	4c4254 <__bss_end__+0x4b963c>
     9bc:	0e1b0e03 	cdpeq	14, 1, cr0, cr11, cr3, {0}
     9c0:	06120111 			; <UNDEFINED> instruction: 0x06120111
     9c4:	00001710 	andeq	r1, r0, r0, lsl r7
     9c8:	0b002402 	bleq	99d8 <uart_putc+0x8>
     9cc:	030b3e0b 	movweq	r3, #48651	; 0xbe0b
     9d0:	03000008 	movweq	r0, #8
     9d4:	0b0b0024 	bleq	2c0a6c <__bss_end__+0x2b5e54>
     9d8:	0e030b3e 	vmoveq.16	d3[0], r0
     9dc:	0f040000 	svceq	0x00040000
     9e0:	490b0b00 	stmdbmi	fp, {r8, r9, fp}
     9e4:	05000013 	streq	r0, [r0, #-19]
     9e8:	13490026 	movtne	r0, #36902	; 0x9026
     9ec:	2e060000 	cdpcs	0, 0, cr0, cr6, cr0, {0}
     9f0:	03193f01 	tsteq	r9, #1, 30
     9f4:	3b0b3a0e 	blcc	2cf234 <__bss_end__+0x2c461c>
     9f8:	4919270b 	ldmdbmi	r9, {r0, r1, r3, r8, r9, sl, sp}
     9fc:	12011113 	andne	r1, r1, #-1073741820	; 0xc0000004
     a00:	96184006 	ldrls	r4, [r8], -r6
     a04:	13011942 	movwne	r1, #6466	; 0x1942
     a08:	05070000 	streq	r0, [r7, #-0]
     a0c:	3a080300 	bcc	201614 <__bss_end__+0x1f69fc>
     a10:	490b3b0b 	stmdbmi	fp, {r0, r1, r3, r8, r9, fp, ip, sp}
     a14:	00170213 	andseq	r0, r7, r3, lsl r2
     a18:	01150800 	tsteq	r5, r0, lsl #16
     a1c:	13491927 	movtne	r1, #39207	; 0x9927
     a20:	00001301 	andeq	r1, r0, r1, lsl #6
     a24:	49000509 	stmdbmi	r0, {r0, r3, r8, sl}
     a28:	0a000013 	beq	a7c <__code_start__-0x7584>
     a2c:	0e030034 	mcreq	0, 0, r0, cr3, cr4, {1}
     a30:	0b3b0b3a 	bleq	ec3720 <__bss_end__+0xeb8b08>
     a34:	193f1349 	ldmdbne	pc!, {r0, r3, r6, r8, r9, ip}	; <UNPREDICTABLE>
     a38:	0000193c 	andeq	r1, r0, ip, lsr r9
     a3c:	0300340b 	movweq	r3, #1035	; 0x40b
     a40:	3b0b3a0e 	blcc	2cf280 <__bss_end__+0x2c4668>
     a44:	3f13490b 	svccc	0x0013490b
     a48:	00180219 	andseq	r0, r8, r9, lsl r2
     a4c:	11010000 	mrsne	r0, (UNDEF: 1)
     a50:	130e2501 	movwne	r2, #58625	; 0xe501
     a54:	1b0e030b 	blne	381688 <__bss_end__+0x376a70>
     a58:	1201110e 	andne	r1, r1, #-2147483645	; 0x80000003
     a5c:	00171006 	andseq	r1, r7, r6
     a60:	00240200 	eoreq	r0, r4, r0, lsl #4
     a64:	0b3e0b0b 	bleq	f83698 <__bss_end__+0xf78a80>
     a68:	00000803 	andeq	r0, r0, r3, lsl #16
     a6c:	0b002403 	bleq	9a80 <gpio_set_output+0x8>
     a70:	030b3e0b 	movweq	r3, #48651	; 0xbe0b
     a74:	0400000e 	streq	r0, [r0], #-14
     a78:	0b0b000f 	bleq	2c0abc <__bss_end__+0x2b5ea4>
     a7c:	0f050000 	svceq	0x00050000
     a80:	490b0b00 	stmdbmi	fp, {r8, r9, fp}
     a84:	06000013 			; <UNDEFINED> instruction: 0x06000013
     a88:	13490026 	movtne	r0, #36902	; 0x9026
     a8c:	16070000 	strne	r0, [r7], -r0
     a90:	3a0e0300 	bcc	381698 <__bss_end__+0x376a80>
     a94:	490b3b0b 	stmdbmi	fp, {r0, r1, r3, r8, r9, fp, ip, sp}
     a98:	08000013 	stmdaeq	r0, {r0, r1, r4}
     a9c:	0e030113 	mcreq	1, 0, r0, cr3, cr3, {0}
     aa0:	0b3a0b0b 	bleq	e836d4 <__bss_end__+0xe78abc>
     aa4:	13010b3b 	movwne	r0, #6971	; 0x1b3b
     aa8:	0d090000 	stceq	0, cr0, [r9, #-0]
     aac:	490e0300 	stmdbmi	lr, {r8, r9}
     ab0:	340b3813 	strcc	r3, [fp], #-2067	; 0x813
     ab4:	0a000019 	beq	b20 <__code_start__-0x74e0>
     ab8:	0e03012e 	adfeqsp	f0, f3, #0.5
     abc:	0b3b0b3a 	bleq	ec37ac <__bss_end__+0xeb8b94>
     ac0:	13491927 	movtne	r1, #39207	; 0x9927
     ac4:	06120111 			; <UNDEFINED> instruction: 0x06120111
     ac8:	42971840 	addsmi	r1, r7, #64, 16	; 0x400000
     acc:	00130119 	andseq	r0, r3, r9, lsl r1
     ad0:	00050b00 	andeq	r0, r5, r0, lsl #22
     ad4:	0b3a0803 	bleq	e82ae8 <__bss_end__+0xe77ed0>
     ad8:	13490b3b 	movtne	r0, #39739	; 0x9b3b
     adc:	00001702 	andeq	r1, r0, r2, lsl #14
     ae0:	03012e0c 	movweq	r2, #7692	; 0x1e0c
     ae4:	3b0b3a08 	blcc	2cf30c <__bss_end__+0x2c46f4>
     ae8:	4919270b 	ldmdbmi	r9, {r0, r1, r3, r8, r9, sl, sp}
     aec:	12011113 	andne	r1, r1, #-1073741820	; 0xc0000004
     af0:	97184006 	ldrls	r4, [r8, -r6]
     af4:	13011942 	movwne	r1, #6466	; 0x1942
     af8:	050d0000 	streq	r0, [sp, #-0]
     afc:	3a0e0300 	bcc	381704 <__bss_end__+0x376aec>
     b00:	490b3b0b 	stmdbmi	fp, {r0, r1, r3, r8, r9, fp, ip, sp}
     b04:	00170213 	andseq	r0, r7, r3, lsl r2
     b08:	00050e00 	andeq	r0, r5, r0, lsl #28
     b0c:	0b3a0e03 	bleq	e84320 <__bss_end__+0xe79708>
     b10:	13490b3b 	movtne	r0, #39739	; 0x9b3b
     b14:	00001802 	andeq	r1, r0, r2, lsl #16
     b18:	0300340f 	movweq	r3, #1039	; 0x40f
     b1c:	3b0b3a08 	blcc	2cf344 <__bss_end__+0x2c472c>
     b20:	0213490b 	andseq	r4, r3, #180224	; 0x2c000
     b24:	10000018 	andne	r0, r0, r8, lsl r0
     b28:	08030034 	stmdaeq	r3, {r2, r4, r5}
     b2c:	0b3b0b3a 	bleq	ec381c <__bss_end__+0xeb8c04>
     b30:	17021349 	strne	r1, [r2, -r9, asr #6]
     b34:	34110000 	ldrcc	r0, [r1], #-0
     b38:	490e0300 	stmdbmi	lr, {r8, r9}
     b3c:	02193413 	andseq	r3, r9, #318767104	; 0x13000000
     b40:	12000018 	andne	r0, r0, #24
     b44:	0111010b 	tsteq	r1, fp, lsl #2
     b48:	13010612 	movwne	r0, #5650	; 0x1612
     b4c:	34130000 	ldrcc	r0, [r3], #-0
     b50:	3a0e0300 	bcc	381758 <__bss_end__+0x376b40>
     b54:	490b3b0b 	stmdbmi	fp, {r0, r1, r3, r8, r9, fp, ip, sp}
     b58:	00170213 	andseq	r0, r7, r3, lsl r2
     b5c:	82891400 	addhi	r1, r9, #0, 8
     b60:	01110001 	tsteq	r1, r1
     b64:	00001331 	andeq	r1, r0, r1, lsr r3
     b68:	01828915 	orreq	r8, r2, r5, lsl r9
     b6c:	31011101 	tstcc	r1, r1, lsl #2
     b70:	00130113 	andseq	r0, r3, r3, lsl r1
     b74:	828a1600 	addhi	r1, sl, #0, 12
     b78:	18020001 	stmdane	r2, {r0}
     b7c:	00184291 	mulseq	r8, r1, r2
     b80:	82891700 	addhi	r1, r9, #0, 14
     b84:	01110101 	tsteq	r1, r1, lsl #2
     b88:	00001331 	andeq	r1, r0, r1, lsr r3
     b8c:	49010118 	stmdbmi	r1, {r3, r4, r8}
     b90:	00130113 	andseq	r0, r3, r3, lsl r1
     b94:	00211900 	eoreq	r1, r1, r0, lsl #18
     b98:	0b2f1349 	bleq	bc58c4 <__bss_end__+0xbbacac>
     b9c:	2e1a0000 	cdpcs	0, 1, cr0, cr10, cr0, {0}
     ba0:	03193f01 	tsteq	r9, #1, 30
     ba4:	3b0b3a0e 	blcc	2cf3e4 <__bss_end__+0x2c47cc>
     ba8:	1119270b 	tstne	r9, fp, lsl #14
     bac:	40061201 	andmi	r1, r6, r1, lsl #4
     bb0:	19429718 	stmdbne	r2, {r3, r4, r8, r9, sl, ip, pc}^
     bb4:	00001301 	andeq	r1, r0, r1, lsl #6
     bb8:	2701151b 	smladcs	r1, fp, r5, r1
     bbc:	01134919 	tsteq	r3, r9, lsl r9
     bc0:	1c000013 	stcne	0, cr0, [r0], {19}
     bc4:	13490005 	movtne	r0, #36869	; 0x9005
     bc8:	2e1d0000 	cdpcs	0, 1, cr0, cr13, cr0, {0}
     bcc:	03193f01 	tsteq	r9, #1, 30
     bd0:	3b0b3a0e 	blcc	2cf410 <__bss_end__+0x2c47f8>
     bd4:	4919270b 	ldmdbmi	r9, {r0, r1, r3, r8, r9, sl, sp}
     bd8:	12011113 	andne	r1, r1, #-1073741820	; 0xc0000004
     bdc:	97184006 	ldrls	r4, [r8, -r6]
     be0:	13011942 	movwne	r1, #6466	; 0x1942
     be4:	0b1e0000 	bleq	780bec <__bss_end__+0x775fd4>
     be8:	00175501 	andseq	r5, r7, r1, lsl #10
     bec:	00341f00 	eorseq	r1, r4, r0, lsl #30
     bf0:	0b3a0e03 	bleq	e84404 <__bss_end__+0xe797ec>
     bf4:	13490b3b 	movtne	r0, #39739	; 0x9b3b
     bf8:	193c193f 	ldmdbne	ip!, {r0, r1, r2, r3, r4, r5, r8, fp, ip}
     bfc:	2e200000 	cdpcs	0, 2, cr0, cr0, cr0, {0}
     c00:	03193f00 	tsteq	r9, #0, 30
     c04:	3b0b3a0e 	blcc	2cf444 <__bss_end__+0x2c482c>
     c08:	3c19270b 	ldccc	7, cr2, [r9], {11}
     c0c:	21000019 	tstcs	r0, r9, lsl r0
     c10:	193f012e 	ldmdbne	pc!, {r1, r2, r3, r5, r8}	; <UNPREDICTABLE>
     c14:	0b3a0e03 	bleq	e84428 <__bss_end__+0xe79810>
     c18:	19270b3b 	stmdbne	r7!, {r0, r1, r3, r4, r5, r8, r9, fp}
     c1c:	193c1349 	ldmdbne	ip!, {r0, r3, r6, r8, r9, ip}
     c20:	00001301 	andeq	r1, r0, r1, lsl #6
     c24:	00001822 	andeq	r1, r0, r2, lsr #16
     c28:	11010000 	mrsne	r0, (UNDEF: 1)
     c2c:	130e2501 	movwne	r2, #58625	; 0xe501
     c30:	1b0e030b 	blne	381864 <__bss_end__+0x376c4c>
     c34:	1201110e 	andne	r1, r1, #-2147483645	; 0x80000003
     c38:	00171006 	andseq	r1, r7, r6
     c3c:	00240200 	eoreq	r0, r4, r0, lsl #4
     c40:	0b3e0b0b 	bleq	f83874 <__bss_end__+0xf78c5c>
     c44:	00000803 	andeq	r0, r0, r3, lsl #16
     c48:	0b002403 	bleq	9c5c <kmalloc_aligned+0x4c>
     c4c:	030b3e0b 	movweq	r3, #48651	; 0xbe0b
     c50:	0400000e 	streq	r0, [r0], #-14
     c54:	0b0b000f 	bleq	2c0c98 <__bss_end__+0x2b6080>
     c58:	00001349 	andeq	r1, r0, r9, asr #6
     c5c:	49002605 	stmdbmi	r0, {r0, r2, r9, sl, sp}
     c60:	06000013 			; <UNDEFINED> instruction: 0x06000013
     c64:	193f012e 	ldmdbne	pc!, {r1, r2, r3, r5, r8}	; <UNPREDICTABLE>
     c68:	0b3a0e03 	bleq	e8447c <__bss_end__+0xe79864>
     c6c:	19270b3b 	stmdbne	r7!, {r0, r1, r3, r4, r5, r8, r9, fp}
     c70:	06120111 			; <UNDEFINED> instruction: 0x06120111
     c74:	42971840 	addsmi	r1, r7, #64, 16	; 0x400000
     c78:	00130119 	andseq	r0, r3, r9, lsl r1
     c7c:	82890700 	addhi	r0, r9, #0, 14
     c80:	01110101 	tsteq	r1, r1, lsl #2
     c84:	00001301 	andeq	r1, r0, r1, lsl #6
     c88:	01828a08 	orreq	r8, r2, r8, lsl #20
     c8c:	91180200 	tstls	r8, r0, lsl #4
     c90:	00001842 	andeq	r1, r0, r2, asr #16
     c94:	01828909 	orreq	r8, r2, r9, lsl #18
     c98:	31011101 	tstcc	r1, r1, lsl #2
     c9c:	00130113 	andseq	r0, r3, r3, lsl r1
     ca0:	82890a00 	addhi	r0, r9, #0, 20
     ca4:	01110001 	tsteq	r1, r1
     ca8:	00001331 	andeq	r1, r0, r1, lsr r3
     cac:	2701150b 	strcs	r1, [r1, -fp, lsl #10]
     cb0:	01134919 	tsteq	r3, r9, lsl r9
     cb4:	0c000013 	stceq	0, cr0, [r0], {19}
     cb8:	13490005 	movtne	r0, #36869	; 0x9005
     cbc:	340d0000 	strcc	r0, [sp], #-0
     cc0:	3a0e0300 	bcc	3818c8 <__bss_end__+0x376cb0>
     cc4:	490b3b0b 	stmdbmi	fp, {r0, r1, r3, r8, r9, fp, ip, sp}
     cc8:	3c193f13 	ldccc	15, cr3, [r9], {19}
     ccc:	0e000019 	mcreq	0, 0, r0, cr0, cr9, {0}
     cd0:	193f012e 	ldmdbne	pc!, {r1, r2, r3, r5, r8}	; <UNPREDICTABLE>
     cd4:	0b3a0e03 	bleq	e844e8 <__bss_end__+0xe798d0>
     cd8:	19270b3b 	stmdbne	r7!, {r0, r1, r3, r4, r5, r8, r9, fp}
     cdc:	1301193c 	movwne	r1, #6460	; 0x193c
     ce0:	2e0f0000 	cdpcs	0, 0, cr0, cr15, cr0, {0}
     ce4:	03193f00 	tsteq	r9, #0, 30
     ce8:	3b0b3a0e 	blcc	2cf528 <__bss_end__+0x2c4910>
     cec:	3c19270b 	ldccc	7, cr2, [r9], {11}
     cf0:	00000019 	andeq	r0, r0, r9, lsl r0
     cf4:	25011101 	strcs	r1, [r1, #-257]	; 0x101
     cf8:	030b130e 	movweq	r1, #45838	; 0xb30e
     cfc:	110e1b0e 	tstne	lr, lr, lsl #22
     d00:	10061201 	andne	r1, r6, r1, lsl #4
     d04:	02000017 	andeq	r0, r0, #23
     d08:	0b0b0024 	bleq	2c0da0 <__bss_end__+0x2b6188>
     d0c:	08030b3e 	stmdaeq	r3, {r1, r2, r3, r4, r5, r8, r9, fp}
     d10:	24030000 	strcs	r0, [r3], #-0
     d14:	3e0b0b00 	vmlacc.f64	d0, d11, d0
     d18:	000e030b 	andeq	r0, lr, fp, lsl #6
     d1c:	012e0400 	teqeq	lr, r0, lsl #8
     d20:	0e03193f 	mcreq	9, 0, r1, cr3, cr15, {1}
     d24:	0b3b0b3a 	bleq	ec3a14 <__bss_end__+0xeb8dfc>
     d28:	06120111 			; <UNDEFINED> instruction: 0x06120111
     d2c:	42971840 	addsmi	r1, r7, #64, 16	; 0x400000
     d30:	00130119 	andseq	r0, r3, r9, lsl r1
     d34:	00340500 	eorseq	r0, r4, r0, lsl #10
     d38:	0b3a0e03 	bleq	e8454c <__bss_end__+0xe79934>
     d3c:	13490b3b 	movtne	r0, #39739	; 0x9b3b
     d40:	193c193f 	ldmdbne	ip!, {r0, r1, r2, r3, r4, r5, r8, fp, ip}
     d44:	2e060000 	cdpcs	0, 0, cr0, cr6, cr0, {0}
     d48:	03193f00 	tsteq	r9, #0, 30
     d4c:	3b0b3a0e 	blcc	2cf58c <__bss_end__+0x2c4974>
     d50:	3c19270b 	ldccc	7, cr2, [r9], {11}
     d54:	07000019 	smladeq	r0, r9, r0, r0
     d58:	08030034 	stmdaeq	r3, {r2, r4, r5}
     d5c:	0b3b0b3a 	bleq	ec3a4c <__bss_end__+0xeb8e34>
     d60:	17021349 	strne	r1, [r2, -r9, asr #6]
     d64:	34080000 	strcc	r0, [r8], #-0
     d68:	3a0e0300 	bcc	381970 <__bss_end__+0x376d58>
     d6c:	490b3b0b 	stmdbmi	fp, {r0, r1, r3, r8, r9, fp, ip, sp}
     d70:	09000013 	stmdbeq	r0, {r0, r1, r4}
     d74:	00018289 	andeq	r8, r1, r9, lsl #5
     d78:	13310111 	teqne	r1, #1073741828	; 0x40000004
     d7c:	0f0a0000 	svceq	0x000a0000
     d80:	490b0b00 	stmdbmi	fp, {r8, r9, fp}
     d84:	00000013 	andeq	r0, r0, r3, lsl r0
     d88:	25011101 	strcs	r1, [r1, #-257]	; 0x101
     d8c:	030b130e 	movweq	r1, #45838	; 0xb30e
     d90:	550e1b0e 	strpl	r1, [lr, #-2830]	; 0xb0e
     d94:	10011117 	andne	r1, r1, r7, lsl r1
     d98:	02000017 	andeq	r0, r0, #23
     d9c:	0b0b0024 	bleq	2c0e34 <__bss_end__+0x2b621c>
     da0:	08030b3e 	stmdaeq	r3, {r1, r2, r3, r4, r5, r8, r9, fp}
     da4:	24030000 	strcs	r0, [r3], #-0
     da8:	3e0b0b00 	vmlacc.f64	d0, d11, d0
     dac:	000e030b 	andeq	r0, lr, fp, lsl #6
     db0:	012e0400 	teqeq	lr, r0, lsl #8
     db4:	0e03193f 	mcreq	9, 0, r1, cr3, cr15, {1}
     db8:	0b3b0b3a 	bleq	ec3aa8 <__bss_end__+0xeb8e90>
     dbc:	13491927 	movtne	r1, #39207	; 0x9927
     dc0:	06120111 			; <UNDEFINED> instruction: 0x06120111
     dc4:	42971840 	addsmi	r1, r7, #64, 16	; 0x400000
     dc8:	00130119 	andseq	r0, r3, r9, lsl r1
     dcc:	00340500 	eorseq	r0, r4, r0, lsl #10
     dd0:	0b3a0e03 	bleq	e845e4 <__bss_end__+0xe799cc>
     dd4:	13490b3b 	movtne	r0, #39739	; 0x9b3b
     dd8:	00001702 	andeq	r1, r0, r2, lsl #14
     ddc:	3f012e06 	svccc	0x00012e06
     de0:	3a0e0319 	bcc	381a4c <__bss_end__+0x376e34>
     de4:	270b3b0b 	strcs	r3, [fp, -fp, lsl #22]
     de8:	12011119 	andne	r1, r1, #1073741830	; 0x40000006
     dec:	97184006 	ldrls	r4, [r8, -r6]
     df0:	13011942 	movwne	r1, #6466	; 0x1942
     df4:	34070000 	strcc	r0, [r7], #-0
     df8:	3a0e0300 	bcc	381a00 <__bss_end__+0x376de8>
     dfc:	490b3b0b 	stmdbmi	fp, {r0, r1, r3, r8, r9, fp, ip, sp}
     e00:	00061c13 	andeq	r1, r6, r3, lsl ip
     e04:	00340800 	eorseq	r0, r4, r0, lsl #16
     e08:	0b3a0e03 	bleq	e8461c <__bss_end__+0xe79a04>
     e0c:	13490b3b 	movtne	r0, #39739	; 0x9b3b
     e10:	00000b1c 	andeq	r0, r0, ip, lsl fp
     e14:	01828909 	orreq	r8, r2, r9, lsl #18
     e18:	31011100 	mrscc	r1, (UNDEF: 17)
     e1c:	0a000013 	beq	e70 <__code_start__-0x7190>
     e20:	01018289 	smlabbeq	r1, r9, r2, r8
     e24:	13310111 	teqne	r1, #1073741828	; 0x40000004
     e28:	00001301 	andeq	r1, r0, r1, lsl #6
     e2c:	01828a0b 	orreq	r8, r2, fp, lsl #20
     e30:	91180200 	tstls	r8, r0, lsl #4
     e34:	00001842 	andeq	r1, r0, r2, asr #16
     e38:	0182890c 	orreq	r8, r2, ip, lsl #18
     e3c:	31011101 	tstcc	r1, r1, lsl #2
     e40:	0d000013 	stceq	0, cr0, [r0, #-76]	; 0xffffffb4
     e44:	13490026 	movtne	r0, #36902	; 0x9026
     e48:	2e0e0000 	cdpcs	0, 0, cr0, cr14, cr0, {0}
     e4c:	03193f01 	tsteq	r9, #1, 30
     e50:	3b0b3a0e 	blcc	2cf690 <__bss_end__+0x2c4a78>
     e54:	3c19270b 	ldccc	7, cr2, [r9], {11}
     e58:	00130119 	andseq	r0, r3, r9, lsl r1
     e5c:	00050f00 	andeq	r0, r5, r0, lsl #30
     e60:	00001349 	andeq	r1, r0, r9, asr #6
     e64:	3f012e10 	svccc	0x00012e10
     e68:	3a0e0319 	bcc	381ad4 <__bss_end__+0x376ebc>
     e6c:	270b3b0b 	strcs	r3, [fp, -fp, lsl #22]
     e70:	00193c19 	andseq	r3, r9, r9, lsl ip
     e74:	11010000 	mrsne	r0, (UNDEF: 1)
     e78:	130e2501 	movwne	r2, #58625	; 0xe501
     e7c:	1b0e030b 	blne	381ab0 <__bss_end__+0x376e98>
     e80:	1201110e 	andne	r1, r1, #-2147483645	; 0x80000003
     e84:	00171006 	andseq	r1, r7, r6
     e88:	00240200 	eoreq	r0, r4, r0, lsl #4
     e8c:	0b3e0b0b 	bleq	f83ac0 <__bss_end__+0xf78ea8>
     e90:	00000803 	andeq	r0, r0, r3, lsl #16
     e94:	0b002403 	bleq	9ea8 <__FUNCTION__.4338+0xdc>
     e98:	030b3e0b 	movweq	r3, #48651	; 0xbe0b
     e9c:	0400000e 	streq	r0, [r0], #-14
     ea0:	193f012e 	ldmdbne	pc!, {r1, r2, r3, r5, r8}	; <UNPREDICTABLE>
     ea4:	0b3a0e03 	bleq	e846b8 <__bss_end__+0xe79aa0>
     ea8:	19270b3b 	stmdbne	r7!, {r0, r1, r3, r4, r5, r8, r9, fp}
     eac:	06120111 			; <UNDEFINED> instruction: 0x06120111
     eb0:	42971840 	addsmi	r1, r7, #64, 16	; 0x400000
     eb4:	00130119 	andseq	r0, r3, r9, lsl r1
     eb8:	00050500 	andeq	r0, r5, r0, lsl #10
     ebc:	0b3a0e03 	bleq	e846d0 <__bss_end__+0xe79ab8>
     ec0:	13490b3b 	movtne	r0, #39739	; 0x9b3b
     ec4:	00001702 	andeq	r1, r0, r2, lsl #14
     ec8:	3f012e06 	svccc	0x00012e06
     ecc:	3a0e0319 	bcc	381b38 <__bss_end__+0x376f20>
     ed0:	270b3b0b 	strcs	r3, [fp, -fp, lsl #22]
     ed4:	11134919 	tstne	r3, r9, lsl r9
     ed8:	40061201 	andmi	r1, r6, r1, lsl #4
     edc:	19429718 	stmdbne	r2, {r3, r4, r8, r9, sl, ip, pc}^
     ee0:	00001301 	andeq	r1, r0, r1, lsl #6
     ee4:	01828907 	orreq	r8, r2, r7, lsl #18
     ee8:	31011101 	tstcc	r1, r1, lsl #2
     eec:	08000013 	stmdaeq	r0, {r0, r1, r4}
     ef0:	0001828a 	andeq	r8, r1, sl, lsl #5
     ef4:	42911802 	addsmi	r1, r1, #131072	; 0x20000
     ef8:	09000018 	stmdbeq	r0, {r3, r4}
     efc:	08030034 	stmdaeq	r3, {r2, r4, r5}
     f00:	0b3b0b3a 	bleq	ec3bf0 <__bss_end__+0xeb8fd8>
     f04:	18021349 	stmdane	r2, {r0, r3, r6, r8, r9, ip}
     f08:	890a0000 	stmdbhi	sl, {}	; <UNPREDICTABLE>
     f0c:	11000182 	smlabbne	r0, r2, r1, r0
     f10:	00133101 	andseq	r3, r3, r1, lsl #2
     f14:	00050b00 	andeq	r0, r5, r0, lsl #22
     f18:	0b3a0803 	bleq	e82f2c <__bss_end__+0xe78314>
     f1c:	13490b3b 	movtne	r0, #39739	; 0x9b3b
     f20:	00001702 	andeq	r1, r0, r2, lsl #14
     f24:	11010b0c 	tstne	r1, ip, lsl #22
     f28:	01061201 	tsteq	r6, r1, lsl #4
     f2c:	0d000013 	stceq	0, cr0, [r0, #-76]	; 0xffffffb4
     f30:	08030034 	stmdaeq	r3, {r2, r4, r5}
     f34:	0b3b0b3a 	bleq	ec3c24 <__bss_end__+0xeb900c>
     f38:	17021349 	strne	r1, [r2, -r9, asr #6]
     f3c:	2e0e0000 	cdpcs	0, 0, cr0, cr14, cr0, {0}
     f40:	03193f01 	tsteq	r9, #1, 30
     f44:	3b0b3a0e 	blcc	2cf784 <__bss_end__+0x2c4b6c>
     f48:	4919270b 	ldmdbmi	r9, {r0, r1, r3, r8, r9, sl, sp}
     f4c:	00193c13 	andseq	r3, r9, r3, lsl ip
     f50:	00050f00 	andeq	r0, r5, r0, lsl #30
     f54:	00001349 	andeq	r1, r0, r9, asr #6
     f58:	01110100 	tsteq	r1, r0, lsl #2
     f5c:	0b130e25 	bleq	4c47f8 <__bss_end__+0x4b9be0>
     f60:	0e1b0e03 	cdpeq	14, 1, cr0, cr11, cr3, {0}
     f64:	06120111 			; <UNDEFINED> instruction: 0x06120111
     f68:	00001710 	andeq	r1, r0, r0, lsl r7
     f6c:	0b002402 	bleq	9f7c <__FUNCTION__.4338+0x1b0>
     f70:	030b3e0b 	movweq	r3, #48651	; 0xbe0b
     f74:	03000008 	movweq	r0, #8
     f78:	0b0b0024 	bleq	2c1010 <__bss_end__+0x2b63f8>
     f7c:	0e030b3e 	vmoveq.16	d3[0], r0
     f80:	35040000 	strcc	r0, [r4, #-0]
     f84:	00134900 	andseq	r4, r3, r0, lsl #18
     f88:	00160500 	andseq	r0, r6, r0, lsl #10
     f8c:	0b3a0e03 	bleq	e847a0 <__bss_end__+0xe79b88>
     f90:	13490b3b 	movtne	r0, #39739	; 0x9b3b
     f94:	16060000 	strne	r0, [r6], -r0
     f98:	3a0e0300 	bcc	381ba0 <__bss_end__+0x376f88>
     f9c:	49053b0b 	stmdbmi	r5, {r0, r1, r3, r8, r9, fp, ip, sp}
     fa0:	07000013 	smladeq	r0, r3, r0, r0
     fa4:	0b0b0117 	bleq	2c1408 <__bss_end__+0x2b67f0>
     fa8:	0b3b0b3a 	bleq	ec3c98 <__bss_end__+0xeb9080>
     fac:	00001301 	andeq	r1, r0, r1, lsl #6
     fb0:	03000d08 	movweq	r0, #3336	; 0xd08
     fb4:	3b0b3a0e 	blcc	2cf7f4 <__bss_end__+0x2c4bdc>
     fb8:	0013490b 	andseq	r4, r3, fp, lsl #18
     fbc:	01010900 	tsteq	r1, r0, lsl #18
     fc0:	13011349 	movwne	r1, #4937	; 0x1349
     fc4:	210a0000 	mrscs	r0, (UNDEF: 10)
     fc8:	2f134900 	svccs	0x00134900
     fcc:	0b00000b 	bleq	1000 <__code_start__-0x7000>
     fd0:	0b0b0113 	bleq	2c1424 <__bss_end__+0x2b680c>
     fd4:	0b3b0b3a 	bleq	ec3cc4 <__bss_end__+0xeb90ac>
     fd8:	00001301 	andeq	r1, r0, r1, lsl #6
     fdc:	03000d0c 	movweq	r0, #3340	; 0xd0c
     fe0:	3b0b3a0e 	blcc	2cf820 <__bss_end__+0x2c4c08>
     fe4:	3813490b 	ldmdacc	r3, {r0, r1, r3, r8, fp, lr}
     fe8:	0d00000b 	stceq	0, cr0, [r0, #-44]	; 0xffffffd4
     fec:	0b0b000f 	bleq	2c1030 <__bss_end__+0x2b6418>
     ff0:	0f0e0000 	svceq	0x000e0000
     ff4:	490b0b00 	stmdbmi	fp, {r8, r9, fp}
     ff8:	0f000013 	svceq	0x00000013
     ffc:	13490026 	movtne	r0, #36902	; 0x9026
    1000:	13100000 	tstne	r0, #0
    1004:	0b0e0301 	bleq	381c10 <__bss_end__+0x376ff8>
    1008:	3b0b3a0b 	blcc	2cf83c <__bss_end__+0x2c4c24>
    100c:	0013010b 	andseq	r0, r3, fp, lsl #2
    1010:	000d1100 	andeq	r1, sp, r0, lsl #2
    1014:	0b3a0803 	bleq	e83028 <__bss_end__+0xe78410>
    1018:	13490b3b 	movtne	r0, #39739	; 0x9b3b
    101c:	00000b38 	andeq	r0, r0, r8, lsr fp
    1020:	03011312 	movweq	r1, #4882	; 0x1312
    1024:	3a050b0e 	bcc	143c64 <__bss_end__+0x13904c>
    1028:	010b3b0b 	tsteq	fp, fp, lsl #22
    102c:	13000013 	movwne	r0, #19
    1030:	0e03000d 	cdpeq	0, 0, cr0, cr3, cr13, {0}
    1034:	0b3b0b3a 	bleq	ec3d24 <__bss_end__+0xeb910c>
    1038:	05381349 	ldreq	r1, [r8, #-841]!	; 0x349
    103c:	15140000 	ldrne	r0, [r4, #-0]
    1040:	00192700 	andseq	r2, r9, r0, lsl #14
    1044:	01151500 	tsteq	r5, r0, lsl #10
    1048:	13491927 	movtne	r1, #39207	; 0x9927
    104c:	00001301 	andeq	r1, r0, r1, lsl #6
    1050:	49000516 	stmdbmi	r0, {r1, r2, r4, r8, sl}
    1054:	17000013 	smladne	r0, r3, r0, r0
    1058:	0e030113 	mcreq	1, 0, r0, cr3, cr3, {0}
    105c:	0b3a050b 	bleq	e82490 <__bss_end__+0xe77878>
    1060:	1301053b 	movwne	r0, #5435	; 0x153b
    1064:	0d180000 	ldceq	0, cr0, [r8, #-0]
    1068:	3a0e0300 	bcc	381c70 <__bss_end__+0x377058>
    106c:	49053b0b 	stmdbmi	r5, {r0, r1, r3, r8, r9, fp, ip, sp}
    1070:	000b3813 	andeq	r3, fp, r3, lsl r8
    1074:	000d1900 	andeq	r1, sp, r0, lsl #18
    1078:	0b3a0e03 	bleq	e8488c <__bss_end__+0xe79c74>
    107c:	1349053b 	movtne	r0, #38203	; 0x953b
    1080:	00000538 	andeq	r0, r0, r8, lsr r5
    1084:	0301131a 	movweq	r1, #4890	; 0x131a
    1088:	3a0b0b0e 	bcc	2c3cc8 <__bss_end__+0x2b90b0>
    108c:	01053b0b 	tsteq	r5, fp, lsl #22
    1090:	1b000013 	blne	10e4 <__code_start__-0x6f1c>
    1094:	0b0b0113 	bleq	2c14e8 <__bss_end__+0x2b68d0>
    1098:	053b0b3a 	ldreq	r0, [fp, #-2874]!	; 0xb3a
    109c:	00001301 	andeq	r1, r0, r1, lsl #6
    10a0:	0b01171c 	bleq	46d18 <__bss_end__+0x3c100>
    10a4:	3b0b3a0b 	blcc	2cf8d8 <__bss_end__+0x2c4cc0>
    10a8:	00130105 	andseq	r0, r3, r5, lsl #2
    10ac:	000d1d00 	andeq	r1, sp, r0, lsl #26
    10b0:	0b3a0e03 	bleq	e848c4 <__bss_end__+0xe79cac>
    10b4:	1349053b 	movtne	r0, #38203	; 0x953b
    10b8:	151e0000 	ldrne	r0, [lr, #-0]
    10bc:	01192701 	tsteq	r9, r1, lsl #14
    10c0:	1f000013 	svcne	0x00000013
    10c4:	0e030034 	mcreq	0, 0, r0, cr3, cr4, {1}
    10c8:	053b0b3a 	ldreq	r0, [fp, #-2874]!	; 0xb3a
    10cc:	193f1349 	ldmdbne	pc!, {r0, r3, r6, r8, r9, ip}	; <UNPREDICTABLE>
    10d0:	0000193c 	andeq	r1, r0, ip, lsr r9
    10d4:	03003420 	movweq	r3, #1056	; 0x420
    10d8:	3b0b3a0e 	blcc	2cf918 <__bss_end__+0x2c4d00>
    10dc:	3f13490b 	svccc	0x0013490b
    10e0:	00193c19 	andseq	r3, r9, r9, lsl ip
    10e4:	01042100 	mrseq	r2, (UNDEF: 20)
    10e8:	13490b0b 	movtne	r0, #39691	; 0x9b0b
    10ec:	0b3b0b3a 	bleq	ec3ddc <__bss_end__+0xeb91c4>
    10f0:	00001301 	andeq	r1, r0, r1, lsl #6
    10f4:	03002822 	movweq	r2, #2082	; 0x822
    10f8:	000b1c0e 	andeq	r1, fp, lr, lsl #24
    10fc:	00342300 	eorseq	r2, r4, r0, lsl #6
    1100:	0b3a0e03 	bleq	e84914 <__bss_end__+0xe79cfc>
    1104:	13490b3b 	movtne	r0, #39739	; 0x9b3b
    1108:	0000061c 	andeq	r0, r0, ip, lsl r6
    110c:	3f012e24 	svccc	0x00012e24
    1110:	3a0e0319 	bcc	381d7c <__bss_end__+0x377164>
    1114:	270b3b0b 	strcs	r3, [fp, -fp, lsl #22]
    1118:	11134919 	tstne	r3, r9, lsl r9
    111c:	40061201 	andmi	r1, r6, r1, lsl #4
    1120:	19429718 	stmdbne	r2, {r3, r4, r8, r9, sl, ip, pc}^
    1124:	00001301 	andeq	r1, r0, r1, lsl #6
    1128:	01828925 	orreq	r8, r2, r5, lsr #18
    112c:	31011100 	mrscc	r1, (UNDEF: 17)
    1130:	26000013 			; <UNDEFINED> instruction: 0x26000013
    1134:	193f012e 	ldmdbne	pc!, {r1, r2, r3, r5, r8}	; <UNPREDICTABLE>
    1138:	0b3a0e03 	bleq	e8494c <__bss_end__+0xe79d34>
    113c:	19270b3b 	stmdbne	r7!, {r0, r1, r3, r4, r5, r8, r9, fp}
    1140:	06120111 			; <UNDEFINED> instruction: 0x06120111
    1144:	42971840 	addsmi	r1, r7, #64, 16	; 0x400000
    1148:	00130119 	andseq	r0, r3, r9, lsl r1
    114c:	00052700 	andeq	r2, r5, r0, lsl #14
    1150:	0b3a0803 	bleq	e83164 <__bss_end__+0xe7854c>
    1154:	13490b3b 	movtne	r0, #39739	; 0x9b3b
    1158:	00001702 	andeq	r1, r0, r2, lsl #14
    115c:	01828928 	orreq	r8, r2, r8, lsr #18
    1160:	31011101 	tstcc	r1, r1, lsl #2
    1164:	00130113 	andseq	r0, r3, r3, lsl r1
    1168:	828a2900 	addhi	r2, sl, #0, 18
    116c:	18020001 	stmdane	r2, {r0}
    1170:	00184291 	mulseq	r8, r1, r2
    1174:	00342a00 	eorseq	r2, r4, r0, lsl #20
    1178:	0b3a0803 	bleq	e8318c <__bss_end__+0xe78574>
    117c:	13490b3b 	movtne	r0, #39739	; 0x9b3b
    1180:	00001802 	andeq	r1, r0, r2, lsl #16
    1184:	0182892b 	orreq	r8, r2, fp, lsr #18
    1188:	31011101 	tstcc	r1, r1, lsl #2
    118c:	2c000013 	stccs	0, cr0, [r0], {19}
    1190:	0e03012e 	adfeqsp	f0, f3, #0.5
    1194:	0b3b0b3a 	bleq	ec3e84 <__bss_end__+0xeb926c>
    1198:	01111927 	tsteq	r1, r7, lsr #18
    119c:	18400612 	stmdane	r0, {r1, r4, r9, sl}^
    11a0:	01194297 			; <UNDEFINED> instruction: 0x01194297
    11a4:	2d000013 	stccs	0, cr0, [r0, #-76]	; 0xffffffb4
    11a8:	0e030005 	cdpeq	0, 0, cr0, cr3, cr5, {0}
    11ac:	0b3b0b3a 	bleq	ec3e9c <__bss_end__+0xeb9284>
    11b0:	17021349 	strne	r1, [r2, -r9, asr #6]
    11b4:	352e0000 	strcc	r0, [lr, #-0]!
    11b8:	2f000000 	svccs	0x00000000
    11bc:	193f002e 	ldmdbne	pc!, {r1, r2, r3, r5}	; <UNPREDICTABLE>
    11c0:	0e6e193c 	mcreq	9, 3, r1, cr14, cr12, {1}
    11c4:	0b3a0e03 	bleq	e849d8 <__bss_end__+0xe79dc0>
    11c8:	00000b3b 	andeq	r0, r0, fp, lsr fp
    11cc:	01110100 	tsteq	r1, r0, lsl #2
    11d0:	0b130e25 	bleq	4c4a6c <__bss_end__+0x4b9e54>
    11d4:	0e1b0e03 	cdpeq	14, 1, cr0, cr11, cr3, {0}
    11d8:	06120111 			; <UNDEFINED> instruction: 0x06120111
    11dc:	00001710 	andeq	r1, r0, r0, lsl r7
    11e0:	0b002402 	bleq	a1f0 <__FUNCTION__.4338+0x424>
    11e4:	030b3e0b 	movweq	r3, #48651	; 0xbe0b
    11e8:	03000008 	movweq	r0, #8
    11ec:	0b0b0024 	bleq	2c1284 <__bss_end__+0x2b666c>
    11f0:	0e030b3e 	vmoveq.16	d3[0], r0
    11f4:	26040000 	strcs	r0, [r4], -r0
    11f8:	00134900 	andseq	r4, r3, r0, lsl #18
    11fc:	00160500 	andseq	r0, r6, r0, lsl #10
    1200:	0b3a0e03 	bleq	e84a14 <__bss_end__+0xe79dfc>
    1204:	13490b3b 	movtne	r0, #39739	; 0x9b3b
    1208:	16060000 	strne	r0, [r6], -r0
    120c:	3a0e0300 	bcc	381e14 <__bss_end__+0x3771fc>
    1210:	49053b0b 	stmdbmi	r5, {r0, r1, r3, r8, r9, fp, ip, sp}
    1214:	07000013 	smladeq	r0, r3, r0, r0
    1218:	0b0b0117 	bleq	2c167c <__bss_end__+0x2b6a64>
    121c:	0b3b0b3a 	bleq	ec3f0c <__bss_end__+0xeb92f4>
    1220:	00001301 	andeq	r1, r0, r1, lsl #6
    1224:	03000d08 	movweq	r0, #3336	; 0xd08
    1228:	3b0b3a0e 	blcc	2cfa68 <__bss_end__+0x2c4e50>
    122c:	0013490b 	andseq	r4, r3, fp, lsl #18
    1230:	01010900 	tsteq	r1, r0, lsl #18
    1234:	13011349 	movwne	r1, #4937	; 0x1349
    1238:	210a0000 	mrscs	r0, (UNDEF: 10)
    123c:	2f134900 	svccs	0x00134900
    1240:	0b00000b 	bleq	1274 <__code_start__-0x6d8c>
    1244:	0b0b0113 	bleq	2c1698 <__bss_end__+0x2b6a80>
    1248:	0b3b0b3a 	bleq	ec3f38 <__bss_end__+0xeb9320>
    124c:	00001301 	andeq	r1, r0, r1, lsl #6
    1250:	03000d0c 	movweq	r0, #3340	; 0xd0c
    1254:	3b0b3a0e 	blcc	2cfa94 <__bss_end__+0x2c4e7c>
    1258:	3813490b 	ldmdacc	r3, {r0, r1, r3, r8, fp, lr}
    125c:	0d00000b 	stceq	0, cr0, [r0, #-44]	; 0xffffffd4
    1260:	0b0b000f 	bleq	2c12a4 <__bss_end__+0x2b668c>
    1264:	0f0e0000 	svceq	0x000e0000
    1268:	490b0b00 	stmdbmi	fp, {r8, r9, fp}
    126c:	0f000013 	svceq	0x00000013
    1270:	0e030113 	mcreq	1, 0, r0, cr3, cr3, {0}
    1274:	0b3a0b0b 	bleq	e83ea8 <__bss_end__+0xe79290>
    1278:	13010b3b 	movwne	r0, #6971	; 0x1b3b
    127c:	0d100000 	ldceq	0, cr0, [r0, #-0]
    1280:	3a080300 	bcc	201e88 <__bss_end__+0x1f7270>
    1284:	490b3b0b 	stmdbmi	fp, {r0, r1, r3, r8, r9, fp, ip, sp}
    1288:	000b3813 	andeq	r3, fp, r3, lsl r8
    128c:	01131100 	tsteq	r3, r0, lsl #2
    1290:	050b0e03 	streq	r0, [fp, #-3587]	; 0xe03
    1294:	0b3b0b3a 	bleq	ec3f84 <__bss_end__+0xeb936c>
    1298:	00001301 	andeq	r1, r0, r1, lsl #6
    129c:	03000d12 	movweq	r0, #3346	; 0xd12
    12a0:	3b0b3a0e 	blcc	2cfae0 <__bss_end__+0x2c4ec8>
    12a4:	3813490b 	ldmdacc	r3, {r0, r1, r3, r8, fp, lr}
    12a8:	13000005 	movwne	r0, #5
    12ac:	19270015 	stmdbne	r7!, {r0, r2, r4}
    12b0:	15140000 	ldrne	r0, [r4, #-0]
    12b4:	49192701 	ldmdbmi	r9, {r0, r8, r9, sl, sp}
    12b8:	00130113 	andseq	r0, r3, r3, lsl r1
    12bc:	00051500 	andeq	r1, r5, r0, lsl #10
    12c0:	00001349 	andeq	r1, r0, r9, asr #6
    12c4:	03011316 	movweq	r1, #4886	; 0x1316
    12c8:	3a050b0e 	bcc	143f08 <__bss_end__+0x1392f0>
    12cc:	01053b0b 	tsteq	r5, fp, lsl #22
    12d0:	17000013 	smladne	r0, r3, r0, r0
    12d4:	0e03000d 	cdpeq	0, 0, cr0, cr3, cr13, {0}
    12d8:	053b0b3a 	ldreq	r0, [fp, #-2874]!	; 0xb3a
    12dc:	0b381349 	bleq	e06008 <__bss_end__+0xdfb3f0>
    12e0:	0d180000 	ldceq	0, cr0, [r8, #-0]
    12e4:	3a0e0300 	bcc	381eec <__bss_end__+0x3772d4>
    12e8:	49053b0b 	stmdbmi	r5, {r0, r1, r3, r8, r9, fp, ip, sp}
    12ec:	00053813 	andeq	r3, r5, r3, lsl r8
    12f0:	01131900 	tsteq	r3, r0, lsl #18
    12f4:	0b0b0e03 	bleq	2c4b08 <__bss_end__+0x2b9ef0>
    12f8:	053b0b3a 	ldreq	r0, [fp, #-2874]!	; 0xb3a
    12fc:	00001301 	andeq	r1, r0, r1, lsl #6
    1300:	0b01131a 	bleq	45f70 <__bss_end__+0x3b358>
    1304:	3b0b3a0b 	blcc	2cfb38 <__bss_end__+0x2c4f20>
    1308:	00130105 	andseq	r0, r3, r5, lsl #2
    130c:	01171b00 	tsteq	r7, r0, lsl #22
    1310:	0b3a0b0b 	bleq	e83f44 <__bss_end__+0xe7932c>
    1314:	1301053b 	movwne	r0, #5435	; 0x153b
    1318:	0d1c0000 	ldceq	0, cr0, [ip, #-0]
    131c:	3a0e0300 	bcc	381f24 <__bss_end__+0x37730c>
    1320:	49053b0b 	stmdbmi	r5, {r0, r1, r3, r8, r9, fp, ip, sp}
    1324:	1d000013 	stcne	0, cr0, [r0, #-76]	; 0xffffffb4
    1328:	19270115 	stmdbne	r7!, {r0, r2, r4, r8}
    132c:	00001301 	andeq	r1, r0, r1, lsl #6
    1330:	0300341e 	movweq	r3, #1054	; 0x41e
    1334:	3b0b3a0e 	blcc	2cfb74 <__bss_end__+0x2c4f5c>
    1338:	3f134905 	svccc	0x00134905
    133c:	00193c19 	andseq	r3, r9, r9, lsl ip
    1340:	00341f00 	eorseq	r1, r4, r0, lsl #30
    1344:	0b3a0e03 	bleq	e84b58 <__bss_end__+0xe79f40>
    1348:	13490b3b 	movtne	r0, #39739	; 0x9b3b
    134c:	193c193f 	ldmdbne	ip!, {r0, r1, r2, r3, r4, r5, r8, fp, ip}
    1350:	04200000 	strteq	r0, [r0], #-0
    1354:	490b0b01 	stmdbmi	fp, {r0, r8, r9, fp}
    1358:	3b0b3a13 	blcc	2cfbac <__bss_end__+0x2c4f94>
    135c:	0013010b 	andseq	r0, r3, fp, lsl #2
    1360:	00282100 	eoreq	r2, r8, r0, lsl #2
    1364:	0b1c0e03 	bleq	704b78 <__bss_end__+0x6f9f60>
    1368:	34220000 	strtcc	r0, [r2], #-0
    136c:	3a0e0300 	bcc	381f74 <__bss_end__+0x37735c>
    1370:	490b3b0b 	stmdbmi	fp, {r0, r1, r3, r8, r9, fp, ip, sp}
    1374:	00061c13 	andeq	r1, r6, r3, lsl ip
    1378:	012e2300 	teqeq	lr, r0, lsl #6
    137c:	0e03193f 	mcreq	9, 0, r1, cr3, cr15, {1}
    1380:	0b3b0b3a 	bleq	ec4070 <__bss_end__+0xeb9458>
    1384:	13491927 	movtne	r1, #39207	; 0x9927
    1388:	06120111 			; <UNDEFINED> instruction: 0x06120111
    138c:	42971840 	addsmi	r1, r7, #64, 16	; 0x400000
    1390:	00130119 	andseq	r0, r3, r9, lsl r1
    1394:	00052400 	andeq	r2, r5, r0, lsl #8
    1398:	0b3a0803 	bleq	e833ac <__bss_end__+0xe78794>
    139c:	13490b3b 	movtne	r0, #39739	; 0x9b3b
    13a0:	00001702 	andeq	r1, r0, r2, lsl #14
    13a4:	03003425 	movweq	r3, #1061	; 0x425
    13a8:	3b0b3a0e 	blcc	2cfbe8 <__bss_end__+0x2c4fd0>
    13ac:	0213490b 	andseq	r4, r3, #180224	; 0x2c000
    13b0:	26000017 			; <UNDEFINED> instruction: 0x26000017
    13b4:	08030034 	stmdaeq	r3, {r2, r4, r5}
    13b8:	0b3b0b3a 	bleq	ec40a8 <__bss_end__+0xeb9490>
    13bc:	17021349 	strne	r1, [r2, -r9, asr #6]
    13c0:	89270000 	stmdbhi	r7!, {}	; <UNPREDICTABLE>
    13c4:	11010182 	smlabbne	r1, r2, r1, r0
    13c8:	00133101 	andseq	r3, r3, r1, lsl #2
    13cc:	828a2800 	addhi	r2, sl, #0, 16
    13d0:	18020001 	stmdane	r2, {r0}
    13d4:	00184291 	mulseq	r8, r1, r2
    13d8:	012e2900 	teqeq	lr, r0, lsl #18
    13dc:	0e03193f 	mcreq	9, 0, r1, cr3, cr15, {1}
    13e0:	0b3b0b3a 	bleq	ec40d0 <__bss_end__+0xeb94b8>
    13e4:	01111927 	tsteq	r1, r7, lsr #18
    13e8:	18400612 	stmdane	r0, {r1, r4, r9, sl}^
    13ec:	01194297 			; <UNDEFINED> instruction: 0x01194297
    13f0:	2a000013 	bcs	1444 <__code_start__-0x6bbc>
    13f4:	01018289 	smlabbeq	r1, r9, r2, r8
    13f8:	13310111 	teqne	r1, #1073741828	; 0x40000004
    13fc:	00001301 	andeq	r1, r0, r1, lsl #6
    1400:	0182892b 	orreq	r8, r2, fp, lsr #18
    1404:	31011100 	mrscc	r1, (UNDEF: 17)
    1408:	2c000013 	stccs	0, cr0, [r0], {19}
    140c:	0e030005 	cdpeq	0, 0, cr0, cr3, cr5, {0}
    1410:	0b3b0b3a 	bleq	ec4100 <__bss_end__+0xeb94e8>
    1414:	17021349 	strne	r1, [r2, -r9, asr #6]
    1418:	342d0000 	strtcc	r0, [sp], #-0
    141c:	3a080300 	bcc	202024 <__bss_end__+0x1f740c>
    1420:	490b3b0b 	stmdbmi	fp, {r0, r1, r3, r8, r9, fp, ip, sp}
    1424:	00180213 	andseq	r0, r8, r3, lsl r2
    1428:	002e2e00 	eoreq	r2, lr, r0, lsl #28
    142c:	193c193f 	ldmdbne	ip!, {r0, r1, r2, r3, r4, r5, r8, fp, ip}
    1430:	0e030e6e 	cdpeq	14, 0, cr0, cr3, cr14, {3}
    1434:	0b3b0b3a 	bleq	ec4124 <__bss_end__+0xeb950c>
    1438:	01000000 	mrseq	r0, (UNDEF: 0)
    143c:	0e250111 	mcreq	1, 1, r0, cr5, cr1, {0}
    1440:	0e030b13 	vmoveq.32	d3[0], r0
    1444:	01110e1b 	tsteq	r1, fp, lsl lr
    1448:	17100612 			; <UNDEFINED> instruction: 0x17100612
    144c:	24020000 	strcs	r0, [r2], #-0
    1450:	3e0b0b00 	vmlacc.f64	d0, d11, d0
    1454:	0008030b 	andeq	r0, r8, fp, lsl #6
    1458:	00240300 	eoreq	r0, r4, r0, lsl #6
    145c:	0b3e0b0b 	bleq	f84090 <__bss_end__+0xf79478>
    1460:	00000e03 	andeq	r0, r0, r3, lsl #28
    1464:	03001604 	movweq	r1, #1540	; 0x604
    1468:	3b0b3a0e 	blcc	2cfca8 <__bss_end__+0x2c5090>
    146c:	0013490b 	andseq	r4, r3, fp, lsl #18
    1470:	00160500 	andseq	r0, r6, r0, lsl #10
    1474:	0b3a0e03 	bleq	e84c88 <__bss_end__+0xe7a070>
    1478:	1349053b 	movtne	r0, #38203	; 0x953b
    147c:	17060000 	strne	r0, [r6, -r0]
    1480:	3a0b0b01 	bcc	2c408c <__bss_end__+0x2b9474>
    1484:	010b3b0b 	tsteq	fp, fp, lsl #22
    1488:	07000013 	smladeq	r0, r3, r0, r0
    148c:	0e03000d 	cdpeq	0, 0, cr0, cr3, cr13, {0}
    1490:	0b3b0b3a 	bleq	ec4180 <__bss_end__+0xeb9568>
    1494:	00001349 	andeq	r1, r0, r9, asr #6
    1498:	49010108 	stmdbmi	r1, {r3, r8}
    149c:	00130113 	andseq	r0, r3, r3, lsl r1
    14a0:	00210900 	eoreq	r0, r1, r0, lsl #18
    14a4:	0b2f1349 	bleq	bc61d0 <__bss_end__+0xbbb5b8>
    14a8:	130a0000 	movwne	r0, #40960	; 0xa000
    14ac:	3a0b0b01 	bcc	2c40b8 <__bss_end__+0x2b94a0>
    14b0:	010b3b0b 	tsteq	fp, fp, lsl #22
    14b4:	0b000013 	bleq	1508 <__code_start__-0x6af8>
    14b8:	0e03000d 	cdpeq	0, 0, cr0, cr3, cr13, {0}
    14bc:	0b3b0b3a 	bleq	ec41ac <__bss_end__+0xeb9594>
    14c0:	0b381349 	bleq	e061ec <__bss_end__+0xdfb5d4>
    14c4:	0f0c0000 	svceq	0x000c0000
    14c8:	000b0b00 	andeq	r0, fp, r0, lsl #22
    14cc:	000f0d00 	andeq	r0, pc, r0, lsl #26
    14d0:	13490b0b 	movtne	r0, #39691	; 0x9b0b
    14d4:	260e0000 	strcs	r0, [lr], -r0
    14d8:	00134900 	andseq	r4, r3, r0, lsl #18
    14dc:	01130f00 	tsteq	r3, r0, lsl #30
    14e0:	0b0b0e03 	bleq	2c4cf4 <__bss_end__+0x2ba0dc>
    14e4:	0b3b0b3a 	bleq	ec41d4 <__bss_end__+0xeb95bc>
    14e8:	00001301 	andeq	r1, r0, r1, lsl #6
    14ec:	03000d10 	movweq	r0, #3344	; 0xd10
    14f0:	3b0b3a08 	blcc	2cfd18 <__bss_end__+0x2c5100>
    14f4:	3813490b 	ldmdacc	r3, {r0, r1, r3, r8, fp, lr}
    14f8:	1100000b 	tstne	r0, fp
    14fc:	0e030113 	mcreq	1, 0, r0, cr3, cr3, {0}
    1500:	0b3a050b 	bleq	e82934 <__bss_end__+0xe77d1c>
    1504:	13010b3b 	movwne	r0, #6971	; 0x1b3b
    1508:	0d120000 	ldceq	0, cr0, [r2, #-0]
    150c:	3a0e0300 	bcc	382114 <__bss_end__+0x3774fc>
    1510:	490b3b0b 	stmdbmi	fp, {r0, r1, r3, r8, r9, fp, ip, sp}
    1514:	00053813 	andeq	r3, r5, r3, lsl r8
    1518:	00151300 	andseq	r1, r5, r0, lsl #6
    151c:	00001927 	andeq	r1, r0, r7, lsr #18
    1520:	27011514 	smladcs	r1, r4, r5, r1
    1524:	01134919 	tsteq	r3, r9, lsl r9
    1528:	15000013 	strne	r0, [r0, #-19]
    152c:	13490005 	movtne	r0, #36869	; 0x9005
    1530:	13160000 	tstne	r6, #0
    1534:	0b0e0301 	bleq	382140 <__bss_end__+0x377528>
    1538:	3b0b3a05 	blcc	2cfd54 <__bss_end__+0x2c513c>
    153c:	00130105 	andseq	r0, r3, r5, lsl #2
    1540:	000d1700 	andeq	r1, sp, r0, lsl #14
    1544:	0b3a0e03 	bleq	e84d58 <__bss_end__+0xe7a140>
    1548:	1349053b 	movtne	r0, #38203	; 0x953b
    154c:	00000b38 	andeq	r0, r0, r8, lsr fp
    1550:	03000d18 	movweq	r0, #3352	; 0xd18
    1554:	3b0b3a0e 	blcc	2cfd94 <__bss_end__+0x2c517c>
    1558:	38134905 	ldmdacc	r3, {r0, r2, r8, fp, lr}
    155c:	19000005 	stmdbne	r0, {r0, r2}
    1560:	0e030113 	mcreq	1, 0, r0, cr3, cr3, {0}
    1564:	0b3a0b0b 	bleq	e84198 <__bss_end__+0xe79580>
    1568:	1301053b 	movwne	r0, #5435	; 0x153b
    156c:	131a0000 	tstne	sl, #0
    1570:	3a0b0b01 	bcc	2c417c <__bss_end__+0x2b9564>
    1574:	01053b0b 	tsteq	r5, fp, lsl #22
    1578:	1b000013 	blne	15cc <__code_start__-0x6a34>
    157c:	0b0b0117 	bleq	2c19e0 <__bss_end__+0x2b6dc8>
    1580:	053b0b3a 	ldreq	r0, [fp, #-2874]!	; 0xb3a
    1584:	00001301 	andeq	r1, r0, r1, lsl #6
    1588:	03000d1c 	movweq	r0, #3356	; 0xd1c
    158c:	3b0b3a0e 	blcc	2cfdcc <__bss_end__+0x2c51b4>
    1590:	00134905 	andseq	r4, r3, r5, lsl #18
    1594:	01151d00 	tsteq	r5, r0, lsl #26
    1598:	13011927 	movwne	r1, #6439	; 0x1927
    159c:	341e0000 	ldrcc	r0, [lr], #-0
    15a0:	3a0e0300 	bcc	3821a8 <__bss_end__+0x377590>
    15a4:	49053b0b 	stmdbmi	r5, {r0, r1, r3, r8, r9, fp, ip, sp}
    15a8:	3c193f13 	ldccc	15, cr3, [r9], {19}
    15ac:	1f000019 	svcne	0x00000019
    15b0:	0e030034 	mcreq	0, 0, r0, cr3, cr4, {1}
    15b4:	0b3b0b3a 	bleq	ec42a4 <__bss_end__+0xeb968c>
    15b8:	193f1349 	ldmdbne	pc!, {r0, r3, r6, r8, r9, ip}	; <UNPREDICTABLE>
    15bc:	0000193c 	andeq	r1, r0, ip, lsr r9
    15c0:	03003420 	movweq	r3, #1056	; 0x420
    15c4:	3b0b3a0e 	blcc	2cfe04 <__bss_end__+0x2c51ec>
    15c8:	0213490b 	andseq	r4, r3, #180224	; 0x2c000
    15cc:	21000018 	tstcs	r0, r8, lsl r0
    15d0:	193f012e 	ldmdbne	pc!, {r1, r2, r3, r5, r8}	; <UNPREDICTABLE>
    15d4:	0b3a0e03 	bleq	e84de8 <__bss_end__+0xe7a1d0>
    15d8:	19270b3b 	stmdbne	r7!, {r0, r1, r3, r4, r5, r8, r9, fp}
    15dc:	06120111 			; <UNDEFINED> instruction: 0x06120111
    15e0:	42971840 	addsmi	r1, r7, #64, 16	; 0x400000
    15e4:	00130119 	andseq	r0, r3, r9, lsl r1
    15e8:	00052200 	andeq	r2, r5, r0, lsl #4
    15ec:	0b3a0803 	bleq	e83600 <__bss_end__+0xe789e8>
    15f0:	13490b3b 	movtne	r0, #39739	; 0x9b3b
    15f4:	00001802 	andeq	r1, r0, r2, lsl #16
    15f8:	3f002e23 	svccc	0x00002e23
    15fc:	3a0e0319 	bcc	382268 <__bss_end__+0x377650>
    1600:	270b3b0b 	strcs	r3, [fp, -fp, lsl #22]
    1604:	12011119 	andne	r1, r1, #1073741830	; 0x40000006
    1608:	97184006 	ldrls	r4, [r8, -r6]
    160c:	00001942 	andeq	r1, r0, r2, asr #18
    1610:	3f012e24 	svccc	0x00012e24
    1614:	3a0e0319 	bcc	382280 <__bss_end__+0x377668>
    1618:	270b3b0b 	strcs	r3, [fp, -fp, lsl #22]
    161c:	11134919 	tstne	r3, r9, lsl r9
    1620:	40061201 	andmi	r1, r6, r1, lsl #4
    1624:	19429718 	stmdbne	r2, {r3, r4, r8, r9, sl, ip, pc}^
    1628:	00001301 	andeq	r1, r0, r1, lsl #6
    162c:	03000525 	movweq	r0, #1317	; 0x525
    1630:	3b0b3a0e 	blcc	2cfe70 <__bss_end__+0x2c5258>
    1634:	0213490b 	andseq	r4, r3, #180224	; 0x2c000
    1638:	26000017 			; <UNDEFINED> instruction: 0x26000017
    163c:	0e030034 	mcreq	0, 0, r0, cr3, cr4, {1}
    1640:	19341349 	ldmdbne	r4!, {r0, r3, r6, r8, r9, ip}
    1644:	00001802 	andeq	r1, r0, r2, lsl #16
    1648:	03003427 	movweq	r3, #1063	; 0x427
    164c:	3b0b3a08 	blcc	2cfe74 <__bss_end__+0x2c525c>
    1650:	0213490b 	andseq	r4, r3, #180224	; 0x2c000
    1654:	28000017 	stmdacs	r0, {r0, r1, r2, r4}
    1658:	01018289 	smlabbeq	r1, r9, r2, r8
    165c:	13310111 	teqne	r1, #1073741828	; 0x40000004
    1660:	00001301 	andeq	r1, r0, r1, lsl #6
    1664:	01828a29 	orreq	r8, r2, r9, lsr #20
    1668:	91180200 	tstls	r8, r0, lsl #4
    166c:	00001842 	andeq	r1, r0, r2, asr #16
    1670:	0182892a 	orreq	r8, r2, sl, lsr #18
    1674:	31011100 	mrscc	r1, (UNDEF: 17)
    1678:	2b000013 	blcs	16cc <__code_start__-0x6934>
    167c:	08030005 	stmdaeq	r3, {r0, r2}
    1680:	0b3b0b3a 	bleq	ec4370 <__bss_end__+0xeb9758>
    1684:	17021349 	strne	r1, [r2, -r9, asr #6]
    1688:	342c0000 	strtcc	r0, [ip], #-0
    168c:	3a0e0300 	bcc	382294 <__bss_end__+0x37767c>
    1690:	490b3b0b 	stmdbmi	fp, {r0, r1, r3, r8, r9, fp, ip, sp}
    1694:	00170213 	andseq	r0, r7, r3, lsl r2
    1698:	002e2d00 	eoreq	r2, lr, r0, lsl #26
    169c:	0e03193f 	mcreq	9, 0, r1, cr3, cr15, {1}
    16a0:	0b3b0b3a 	bleq	ec4390 <__bss_end__+0xeb9778>
    16a4:	13491927 	movtne	r1, #39207	; 0x9927
    16a8:	06120111 			; <UNDEFINED> instruction: 0x06120111
    16ac:	42971840 	addsmi	r1, r7, #64, 16	; 0x400000
    16b0:	2e000019 	mcrcs	0, 0, r0, cr0, cr9, {0}
    16b4:	193f002e 	ldmdbne	pc!, {r1, r2, r3, r5}	; <UNPREDICTABLE>
    16b8:	0e6e193c 	mcreq	9, 3, r1, cr14, cr12, {1}
    16bc:	0b3a0e03 	bleq	e84ed0 <__bss_end__+0xe7a2b8>
    16c0:	00000b3b 	andeq	r0, r0, fp, lsr fp
	...

Disassembly of section .debug_loc:

00000000 <.debug_loc>:
       0:	00000024 	andeq	r0, r0, r4, lsr #32
       4:	00000028 	andeq	r0, r0, r8, lsr #32
       8:	28500001 	ldmdacs	r0, {r0}^
       c:	70000000 	andvc	r0, r0, r0
      10:	01000000 	mrseq	r0, (UNDEF: 0)
      14:	00005400 	andeq	r5, r0, r0, lsl #8
	...
      20:	00300000 	eorseq	r0, r0, r0
      24:	00010000 	andeq	r0, r1, r0
      28:	00003050 	andeq	r3, r0, r0, asr r0
      2c:	0000d000 	andeq	sp, r0, r0
      30:	55000100 	strpl	r0, [r0, #-256]	; 0x100
      34:	000000d0 	ldrdeq	r0, [r0], -r0	; <UNPREDICTABLE>
      38:	000000e0 	andeq	r0, r0, r0, ror #1
      3c:	e0500001 	subs	r0, r0, r1
      40:	00000000 	andeq	r0, r0, r0
      44:	01000001 	tsteq	r0, r1
      48:	00005500 	andeq	r5, r0, r0, lsl #10
	...
      54:	00330000 	eorseq	r0, r3, r0
      58:	00010000 	andeq	r0, r1, r0
      5c:	00003351 	andeq	r3, r0, r1, asr r3
      60:	0000d000 	andeq	sp, r0, r0
      64:	f3000400 	vshl.u8	d0, d0, d0
      68:	d09f5101 	addsle	r5, pc, r1, lsl #2
      6c:	00000000 	andeq	r0, r0, r0
      70:	01000001 	tsteq	r0, r1
      74:	00005100 	andeq	r5, r0, r0, lsl #2
	...
      80:	00330000 	eorseq	r0, r3, r0
      84:	00010000 	andeq	r0, r1, r0
      88:	00003352 	andeq	r3, r0, r2, asr r3
      8c:	0000d000 	andeq	sp, r0, r0
      90:	f3000400 	vshl.u8	d0, d0, d0
      94:	d09f5201 	addsle	r5, pc, r1, lsl #4
      98:	00000000 	andeq	r0, r0, r0
      9c:	01000001 	tsteq	r0, r1
      a0:	00005200 	andeq	r5, r0, r0, lsl #4
      a4:	00000000 	andeq	r0, r0, r0
      a8:	00080000 	andeq	r0, r8, r0
      ac:	00100000 	andseq	r0, r0, r0
      b0:	00020000 	andeq	r0, r2, r0
      b4:	00109f30 	andseq	r9, r0, r0, lsr pc
      b8:	00330000 	eorseq	r0, r3, r0
      bc:	00010000 	andeq	r0, r1, r0
      c0:	0000d053 	andeq	sp, r0, r3, asr r0
      c4:	00010000 	andeq	r0, r1, r0
      c8:	53000100 	movwpl	r0, #256	; 0x100
	...
      d4:	00000028 	andeq	r0, r0, r8, lsr #32
      d8:	000000d0 	ldrdeq	r0, [r0], -r0	; <UNPREDICTABLE>
      dc:	00580001 	subseq	r0, r8, r1
      e0:	00000000 	andeq	r0, r0, r0
      e4:	4c000000 	stcmi	0, cr0, [r0], {-0}
      e8:	d0000000 	andle	r0, r0, r0
      ec:	01000000 	mrseq	r0, (UNDEF: 0)
      f0:	00005500 	andeq	r5, r0, r0, lsl #10
      f4:	00000000 	andeq	r0, r0, r0
      f8:	00600000 	rsbeq	r0, r0, r0
      fc:	00880000 	addeq	r0, r8, r0
     100:	00030000 	andeq	r0, r3, r0
     104:	889f1075 	ldmhi	pc, {r0, r2, r4, r5, r6, ip}	; <UNPREDICTABLE>
     108:	d0000000 	andle	r0, r0, r0
     10c:	03000000 	movweq	r0, #0
     110:	9f1c7500 	svcls	0x001c7500
	...
     11c:	00000100 	andeq	r0, r0, r0, lsl #2
     120:	0000010f 	andeq	r0, r0, pc, lsl #2
     124:	0f500001 	svceq	0x00500001
     128:	14000001 	strne	r0, [r0], #-1
     12c:	04000001 	streq	r0, [r0], #-1
     130:	5001f300 	andpl	pc, r1, r0, lsl #6
     134:	0000009f 	muleq	r0, pc, r0	; <UNPREDICTABLE>
     138:	00000000 	andeq	r0, r0, r0
     13c:	00010000 	andeq	r0, r1, r0
     140:	00010c00 	andeq	r0, r1, r0, lsl #24
     144:	51000100 	mrspl	r0, (UNDEF: 16)
     148:	0000010c 	andeq	r0, r0, ip, lsl #2
     14c:	0000010f 	andeq	r0, r0, pc, lsl #2
     150:	0f520001 	svceq	0x00520001
     154:	14000001 	strne	r0, [r0], #-1
     158:	04000001 	streq	r0, [r0], #-1
     15c:	5101f300 	mrspl	pc, SP_irq	; <UNPREDICTABLE>
     160:	0000009f 	muleq	r0, pc, r0	; <UNPREDICTABLE>
     164:	00000000 	andeq	r0, r0, r0
     168:	00011400 	andeq	r1, r1, r0, lsl #8
     16c:	00014700 	andeq	r4, r1, r0, lsl #14
     170:	50000100 	andpl	r0, r0, r0, lsl #2
     174:	00000147 	andeq	r0, r0, r7, asr #2
     178:	0000015c 	andeq	r0, r0, ip, asr r1
     17c:	00540001 	subseq	r0, r4, r1
     180:	00000000 	andeq	r0, r0, r0
     184:	5c000000 	stcpl	0, cr0, [r0], {-0}
     188:	67000001 	strvs	r0, [r0, -r1]
     18c:	01000001 	tsteq	r0, r1
     190:	01675000 	cmneq	r7, r0
     194:	01d40000 	bicseq	r0, r4, r0
     198:	00010000 	andeq	r0, r1, r0
     19c:	00000054 	andeq	r0, r0, r4, asr r0
     1a0:	00000000 	andeq	r0, r0, r0
     1a4:	00016800 	andeq	r6, r1, r0, lsl #16
     1a8:	00017700 	andeq	r7, r1, r0, lsl #14
     1ac:	50000100 	andpl	r0, r0, r0, lsl #2
     1b0:	00000190 	muleq	r0, r0, r1
     1b4:	000001a3 	andeq	r0, r0, r3, lsr #3
     1b8:	bc500001 	mrrclt	0, 0, r0, r0, cr1	; <UNPREDICTABLE>
     1bc:	c0000001 	andgt	r0, r0, r1
     1c0:	01000001 	tsteq	r0, r1
     1c4:	00005000 	andeq	r5, r0, r0
     1c8:	00000000 	andeq	r0, r0, r0
     1cc:	01d40000 	bicseq	r0, r4, r0
     1d0:	01df0000 	bicseq	r0, pc, r0
     1d4:	00010000 	andeq	r0, r1, r0
     1d8:	0001df50 	andeq	sp, r1, r0, asr pc
     1dc:	00024400 	andeq	r4, r2, r0, lsl #8
     1e0:	54000100 	strpl	r0, [r0], #-256	; 0x100
	...
     1ec:	00000200 	andeq	r0, r0, r0, lsl #4
     1f0:	0000022c 	andeq	r0, r0, ip, lsr #4
     1f4:	3c540001 	mrrccc	0, 0, r0, r4, cr1
     1f8:	44000002 	strmi	r0, [r0], #-2
     1fc:	01000002 	tsteq	r0, r2
     200:	00005400 	andeq	r5, r0, r0, lsl #8
     204:	00000000 	andeq	r0, r0, r0
     208:	02080000 	andeq	r0, r8, #0
     20c:	022c0000 	eoreq	r0, ip, #0
     210:	00010000 	andeq	r0, r1, r0
     214:	00023c54 	andeq	r3, r2, r4, asr ip
     218:	00024400 	andeq	r4, r2, r0, lsl #8
     21c:	54000100 	strpl	r0, [r0], #-256	; 0x100
	...
     228:	00000244 	andeq	r0, r0, r4, asr #4
     22c:	00000263 	andeq	r0, r0, r3, ror #4
     230:	63500001 	cmpvs	r0, #1
     234:	7c000002 	stcvc	0, cr0, [r0], {2}
     238:	01000002 	tsteq	r0, r2
     23c:	027c5400 	rsbseq	r5, ip, #0, 8
     240:	02800000 	addeq	r0, r0, #0
     244:	00010000 	andeq	r0, r1, r0
     248:	00028050 	andeq	r8, r2, r0, asr r0
     24c:	0002cc00 	andeq	ip, r2, r0, lsl #24
     250:	54000100 	strpl	r0, [r0], #-256	; 0x100
	...
     25c:	00000244 	andeq	r0, r0, r4, asr #4
     260:	00000263 	andeq	r0, r0, r3, ror #4
     264:	63510001 	cmpvs	r1, #1
     268:	7c000002 	stcvc	0, cr0, [r0], {2}
     26c:	01000002 	tsteq	r0, r2
     270:	027c5500 	rsbseq	r5, ip, #0, 10
     274:	02840000 	addeq	r0, r4, #0
     278:	00010000 	andeq	r0, r1, r0
     27c:	00028451 	andeq	r8, r2, r1, asr r4
     280:	00029c00 	andeq	r9, r2, r0, lsl #24
     284:	55000100 	strpl	r0, [r0, #-256]	; 0x100
     288:	0000029c 	muleq	r0, ip, r2
     28c:	000002cc 	andeq	r0, r0, ip, asr #5
     290:	01f30004 	mvnseq	r0, r4
     294:	00009f51 	andeq	r9, r0, r1, asr pc
     298:	00000000 	andeq	r0, r0, r0
     29c:	02cc0000 	sbceq	r0, ip, #0
     2a0:	02e40000 	rsceq	r0, r4, #0
     2a4:	00010000 	andeq	r0, r1, r0
     2a8:	0002e450 	andeq	lr, r2, r0, asr r4
     2ac:	00039c00 	andeq	r9, r3, r0, lsl #24
     2b0:	54000100 	strpl	r0, [r0], #-256	; 0x100
	...
     2bc:	000002cc 	andeq	r0, r0, ip, asr #5
     2c0:	000002f3 	strdeq	r0, [r0], -r3
     2c4:	f3510001 	vhadd.u16	d16, d1, d1
     2c8:	0c000002 	stceq	0, cr0, [r0], {2}
     2cc:	01000003 	tsteq	r0, r3
     2d0:	030c5800 	movweq	r5, #51200	; 0xc800
     2d4:	03130000 	tsteq	r3, #0
     2d8:	00010000 	andeq	r0, r1, r0
     2dc:	00031351 	andeq	r1, r3, r1, asr r3
     2e0:	00039c00 	andeq	r9, r3, r0, lsl #24
     2e4:	58000100 	stmdapl	r0, {r8}
	...
     2f0:	000002cc 	andeq	r0, r0, ip, asr #5
     2f4:	000002f3 	strdeq	r0, [r0], -r3
     2f8:	f3520001 	vhadd.u16	d16, d2, d1
     2fc:	0c000002 	stceq	0, cr0, [r0], {2}
     300:	01000003 	tsteq	r0, r3
     304:	030c5700 	movweq	r5, #50944	; 0xc700
     308:	03130000 	tsteq	r3, #0
     30c:	00010000 	andeq	r0, r1, r0
     310:	00031352 	andeq	r1, r3, r2, asr r3
     314:	00039c00 	andeq	r9, r3, r0, lsl #24
     318:	57000100 	strpl	r0, [r0, -r0, lsl #2]
	...
     324:	000002cc 	andeq	r0, r0, ip, asr #5
     328:	000002f3 	strdeq	r0, [r0], -r3
     32c:	f3530001 	vhadd.u16	d16, d3, d1
     330:	0c000002 	stceq	0, cr0, [r0], {2}
     334:	01000003 	tsteq	r0, r3
     338:	030c5600 	movweq	r5, #50688	; 0xc600
     33c:	03130000 	tsteq	r3, #0
     340:	00010000 	andeq	r0, r1, r0
     344:	00031353 	andeq	r1, r3, r3, asr r3
     348:	00039c00 	andeq	r9, r3, r0, lsl #24
     34c:	56000100 	strpl	r0, [r0], -r0, lsl #2
	...
     358:	000002e0 	andeq	r0, r0, r0, ror #5
     35c:	00000324 	andeq	r0, r0, r4, lsr #6
     360:	9f300002 	svcls	0x00300002
	...
     36c:	0000039c 	muleq	r0, ip, r3
     370:	000003c7 	andeq	r0, r0, r7, asr #7
     374:	c7500001 	ldrbgt	r0, [r0, -r1]
     378:	e0000003 	and	r0, r0, r3
     37c:	01000003 	tsteq	r0, r3
     380:	03e05500 	mvneq	r5, #0, 10
     384:	03e40000 	mvneq	r0, #0
     388:	00010000 	andeq	r0, r1, r0
     38c:	0003e450 	andeq	lr, r3, r0, asr r4
     390:	00059000 	andeq	r9, r5, r0
     394:	55000100 	strpl	r0, [r0, #-256]	; 0x100
     398:	00000590 	muleq	r0, r0, r5
     39c:	000005c8 	andeq	r0, r0, r8, asr #11
     3a0:	01f30004 	mvnseq	r0, r4
     3a4:	00009f50 	andeq	r9, r0, r0, asr pc
     3a8:	00000000 	andeq	r0, r0, r0
     3ac:	039c0000 	orrseq	r0, ip, #0
     3b0:	03c70000 	biceq	r0, r7, #0
     3b4:	00010000 	andeq	r0, r1, r0
     3b8:	0003c751 	andeq	ip, r3, r1, asr r7
     3bc:	0003e000 	andeq	lr, r3, r0
     3c0:	59000100 	stmdbpl	r0, {r8}
     3c4:	000003e0 	andeq	r0, r0, r0, ror #7
     3c8:	000003e7 	andeq	r0, r0, r7, ror #7
     3cc:	e7510001 	ldrb	r0, [r1, -r1]
     3d0:	90000003 	andls	r0, r0, r3
     3d4:	01000005 	tsteq	r0, r5
     3d8:	05905900 	ldreq	r5, [r0, #2304]	; 0x900
     3dc:	05c80000 	strbeq	r0, [r8]
     3e0:	00040000 	andeq	r0, r4, r0
     3e4:	9f5101f3 	svcls	0x005101f3
	...
     3f0:	0000039c 	muleq	r0, ip, r3
     3f4:	000003c7 	andeq	r0, r0, r7, asr #7
     3f8:	c7520001 	ldrbgt	r0, [r2, -r1]
     3fc:	e0000003 	and	r0, r0, r3
     400:	01000003 	tsteq	r0, r3
     404:	03e05800 	mvneq	r5, #0, 16
     408:	03e70000 	mvneq	r0, #0
     40c:	00010000 	andeq	r0, r1, r0
     410:	0003e752 	andeq	lr, r3, r2, asr r7
     414:	00059000 	andeq	r9, r5, r0
     418:	58000100 	stmdapl	r0, {r8}
     41c:	00000590 	muleq	r0, r0, r5
     420:	000005c8 	andeq	r0, r0, r8, asr #11
     424:	01f30004 	mvnseq	r0, r4
     428:	00009f52 	andeq	r9, r0, r2, asr pc
     42c:	00000000 	andeq	r0, r0, r0
     430:	039c0000 	orrseq	r0, ip, #0
     434:	03b80000 			; <UNDEFINED> instruction: 0x03b80000
     438:	00010000 	andeq	r0, r1, r0
     43c:	0003b853 	andeq	fp, r3, r3, asr r8
     440:	0004fc00 	andeq	pc, r4, r0, lsl #24
     444:	57000100 	strpl	r0, [r0, -r0, lsl #2]
     448:	000004fc 	strdeq	r0, [r0], -ip
     44c:	000005c8 	andeq	r0, r0, r8, asr #11
     450:	01f30004 	mvnseq	r0, r4
     454:	00009f53 	andeq	r9, r0, r3, asr pc
     458:	00000000 	andeq	r0, r0, r0
     45c:	03b40000 			; <UNDEFINED> instruction: 0x03b40000
     460:	04a80000 	strteq	r0, [r8], #0
     464:	00020000 	andeq	r0, r2, r0
     468:	04a89f30 	strteq	r9, [r8], #3888	; 0xf30
     46c:	05900000 	ldreq	r0, [r0]
     470:	00010000 	andeq	r0, r1, r0
     474:	00059054 	andeq	r9, r5, r4, asr r0
     478:	0005c800 	andeq	ip, r5, r0, lsl #16
     47c:	70000400 	andvc	r0, r0, r0, lsl #8
     480:	009f7ec8 	addseq	r7, pc, r8, asr #29
     484:	00000000 	andeq	r0, r0, r0
     488:	b4000000 	strlt	r0, [r0], #-0
     48c:	10000003 	andne	r0, r0, r3
     490:	02000005 	andeq	r0, r0, #5
     494:	009f3000 	addseq	r3, pc, r0
     498:	00000000 	andeq	r0, r0, r0
     49c:	fc000000 	stc2	0, cr0, [r0], {-0}
     4a0:	0f000003 	svceq	0x00000003
     4a4:	01000004 	tsteq	r0, r4
     4a8:	040f5200 	streq	r5, [pc], #-512	; 4b0 <__code_start__-0x7b50>
     4ac:	043c0000 	ldrteq	r0, [ip], #-0
     4b0:	00040000 	andeq	r0, r4, r0
     4b4:	9f7dc876 	svcls	0x007dc876
     4b8:	0000043c 	andeq	r0, r0, ip, lsr r4
     4bc:	0000045b 	andeq	r0, r0, fp, asr r4
     4c0:	5b520001 	blpl	14804cc <__bss_end__+0x14758b4>
     4c4:	a8000004 	stmdage	r0, {r2}
     4c8:	04000004 	streq	r0, [r0], #-4
     4cc:	7dc87600 	stclvc	6, cr7, [r8]
     4d0:	0004a89f 	muleq	r4, pc, r8	; <UNPREDICTABLE>
     4d4:	0004b800 	andeq	fp, r4, r0, lsl #16
     4d8:	52000100 	andpl	r0, r0, #0, 2
     4dc:	000004b8 			; <UNDEFINED> instruction: 0x000004b8
     4e0:	00000590 	muleq	r0, r0, r5
     4e4:	c8760004 	ldmdagt	r6!, {r2}^
     4e8:	05909f7d 	ldreq	r9, [r0, #3965]	; 0xf7d
     4ec:	05c80000 	strbeq	r0, [r8]
     4f0:	00090000 	andeq	r0, r9, r0
     4f4:	235001f3 	cmpcs	r0, #-1073741764	; 0xc000003c
     4f8:	1af80907 	bne	ffe0291c <__bss_end__+0xffdf7d04>
     4fc:	0000009f 	muleq	r0, pc, r0	; <UNPREDICTABLE>
     500:	00000000 	andeq	r0, r0, r0
     504:	00040000 	andeq	r0, r4, r0
     508:	00059000 	andeq	r9, r5, r0
     50c:	56000100 	strpl	r0, [r0], -r0, lsl #2
     510:	00000590 	muleq	r0, r0, r5
     514:	000005c8 	andeq	r0, r0, r8, asr #11
     518:	01f3000c 	mvnseq	r0, ip
     51c:	09072350 	stmdbeq	r7, {r4, r6, r8, r9, sp}
     520:	b8231af8 	stmdalt	r3!, {r3, r4, r5, r6, r7, r9, fp, ip}
     524:	00009f02 	andeq	r9, r0, r2, lsl #30
     528:	00000000 	andeq	r0, r0, r0
     52c:	04f80000 	ldrbteq	r0, [r8], #0
     530:	05900000 	ldreq	r0, [r0]
     534:	00010000 	andeq	r0, r1, r0
     538:	00059054 	andeq	r9, r5, r4, asr r0
     53c:	0005c800 	andeq	ip, r5, r0, lsl #16
     540:	70000400 	andvc	r0, r0, r0, lsl #8
     544:	009f7ec8 	addseq	r7, pc, r8, asr #29
	...
     550:	90000005 	andls	r0, r0, r5
     554:	01000005 	tsteq	r0, r5
     558:	05905400 	ldreq	r5, [r0, #1024]	; 0x400
     55c:	05c80000 	strbeq	r0, [r8]
     560:	00040000 	andeq	r0, r4, r0
     564:	9f7ec870 	svcls	0x007ec870
	...
     570:	000005dc 	ldrdeq	r0, [r0], -ip
     574:	00000608 	andeq	r0, r0, r8, lsl #12
     578:	00560001 	subseq	r0, r6, r1
     57c:	00000000 	andeq	r0, r0, r0
     580:	e4000000 	str	r0, [r0], #-0
     584:	04000005 	streq	r0, [r0], #-5
     588:	01000006 	tsteq	r0, r6
     58c:	00005500 	andeq	r5, r0, r0, lsl #10
     590:	00000000 	andeq	r0, r0, r0
     594:	05fc0000 	ldrbeq	r0, [ip, #0]!
     598:	06180000 	ldreq	r0, [r8], -r0
     59c:	00020000 	andeq	r0, r2, r0
     5a0:	06189f30 	sasxeq	r9, r8, r0
     5a4:	07380000 	ldreq	r0, [r8, -r0]!
     5a8:	00010000 	andeq	r0, r1, r0
     5ac:	00000056 	andeq	r0, r0, r6, asr r0
     5b0:	00000000 	andeq	r0, r0, r0
     5b4:	0005fc00 	andeq	pc, r5, r0, lsl #24
     5b8:	00061800 	andeq	r1, r6, r0, lsl #16
     5bc:	30000200 	andcc	r0, r0, r0, lsl #4
     5c0:	0006189f 	muleq	r6, pc, r8	; <UNPREDICTABLE>
     5c4:	00073800 	andeq	r3, r7, r0, lsl #16
     5c8:	55000100 	strpl	r0, [r0, #-256]	; 0x100
	...
     5d4:	0000063c 	andeq	r0, r0, ip, lsr r6
     5d8:	000006c0 	andeq	r0, r0, r0, asr #13
     5dc:	00540001 	subseq	r0, r4, r1
     5e0:	00000000 	andeq	r0, r0, r0
     5e4:	88000000 	stmdahi	r0, {}	; <UNPREDICTABLE>
     5e8:	b7000007 	strlt	r0, [r0, -r7]
     5ec:	01000007 	tsteq	r0, r7
     5f0:	07b75000 	ldreq	r5, [r7, r0]!
     5f4:	07d00000 	ldrbeq	r0, [r0, r0]
     5f8:	00040000 	andeq	r0, r4, r0
     5fc:	9f5001f3 	svcls	0x005001f3
     600:	000007d0 	ldrdeq	r0, [r0], -r0	; <UNPREDICTABLE>
     604:	000007d4 	ldrdeq	r0, [r0], -r4
     608:	d4500001 	ldrble	r0, [r0], #-1
     60c:	fc000007 	stc2	0, cr0, [r0], {7}
     610:	04000007 	streq	r0, [r0], #-7
     614:	5001f300 	andpl	pc, r1, r0, lsl #6
     618:	0007fc9f 	muleq	r7, pc, ip	; <UNPREDICTABLE>
     61c:	00080000 	andeq	r0, r8, r0
     620:	50000100 	andpl	r0, r0, r0, lsl #2
     624:	00000800 	andeq	r0, r0, r0, lsl #16
     628:	00000820 	andeq	r0, r0, r0, lsr #16
     62c:	01f30004 	mvnseq	r0, r4
     630:	00009f50 	andeq	r9, r0, r0, asr pc
     634:	00000000 	andeq	r0, r0, r0
     638:	078c0000 	streq	r0, [ip, r0]
     63c:	07b70000 	ldreq	r0, [r7, r0]!
     640:	00010000 	andeq	r0, r1, r0
     644:	0007b750 	andeq	fp, r7, r0, asr r7
     648:	0007d000 	andeq	sp, r7, r0
     64c:	f3000400 	vshl.u8	d0, d0, d0
     650:	d09f5001 	addsle	r5, pc, r1
     654:	d4000007 	strle	r0, [r0], #-7
     658:	01000007 	tsteq	r0, r7
     65c:	07d45000 	ldrbeq	r5, [r4, r0]
     660:	07fc0000 	ldrbeq	r0, [ip, r0]!
     664:	00040000 	andeq	r0, r4, r0
     668:	9f5001f3 	svcls	0x005001f3
     66c:	000007fc 	strdeq	r0, [r0], -ip
     670:	00000800 	andeq	r0, r0, r0, lsl #16
     674:	00500001 	subseq	r0, r0, r1
     678:	20000008 	andcs	r0, r0, r8
     67c:	04000008 	streq	r0, [r0], #-8
     680:	5001f300 	andpl	pc, r1, r0, lsl #6
     684:	0000009f 	muleq	r0, pc, r0	; <UNPREDICTABLE>
	...
     690:	00002400 	andeq	r2, r0, r0, lsl #8
     694:	50000100 	andpl	r0, r0, r0, lsl #2
     698:	00000024 	andeq	r0, r0, r4, lsr #32
     69c:	00000028 	andeq	r0, r0, r8, lsr #32
     6a0:	01f30004 	mvnseq	r0, r4
     6a4:	00289f50 	eoreq	r9, r8, r0, asr pc
     6a8:	002c0000 	eoreq	r0, ip, r0
     6ac:	00010000 	andeq	r0, r1, r0
     6b0:	00002c50 	andeq	r2, r0, r0, asr ip
     6b4:	00003000 	andeq	r3, r0, r0
     6b8:	f3000400 	vshl.u8	d0, d0, d0
     6bc:	309f5001 	addscc	r5, pc, r1
     6c0:	34000000 	strcc	r0, [r0], #-0
     6c4:	01000000 	mrseq	r0, (UNDEF: 0)
     6c8:	00345000 	eorseq	r5, r4, r0
     6cc:	003c0000 	eorseq	r0, ip, r0
     6d0:	00040000 	andeq	r0, r4, r0
     6d4:	9f5001f3 	svcls	0x005001f3
	...
     6e0:	0000003c 	andeq	r0, r0, ip, lsr r0
     6e4:	00000047 	andeq	r0, r0, r7, asr #32
     6e8:	47500001 	ldrbmi	r0, [r0, -r1]
     6ec:	b4000000 	strlt	r0, [r0], #-0
     6f0:	01000000 	mrseq	r0, (UNDEF: 0)
     6f4:	00005400 	andeq	r5, r0, r0, lsl #8
     6f8:	00000000 	andeq	r0, r0, r0
     6fc:	00440000 	subeq	r0, r4, r0
     700:	00470000 	subeq	r0, r7, r0
     704:	00010000 	andeq	r0, r1, r0
     708:	00004750 	andeq	r4, r0, r0, asr r7
     70c:	0000b400 	andeq	fp, r0, r0, lsl #8
     710:	54000100 	strpl	r0, [r0], #-256	; 0x100
	...
     71c:	00000054 	andeq	r0, r0, r4, asr r0
     720:	0000009f 	muleq	r0, pc, r0	; <UNPREDICTABLE>
     724:	a0500001 	subsge	r0, r0, r1
     728:	ac000000 	stcge	0, cr0, [r0], {-0}
     72c:	01000000 	mrseq	r0, (UNDEF: 0)
     730:	00005000 	andeq	r5, r0, r0
     734:	00000000 	andeq	r0, r0, r0
     738:	00b40000 	adcseq	r0, r4, r0
     73c:	00c00000 	sbceq	r0, r0, r0
     740:	00010000 	andeq	r0, r1, r0
     744:	0000c050 	andeq	ip, r0, r0, asr r0
     748:	0001e800 	andeq	lr, r1, r0, lsl #16
     74c:	59000100 	stmdbpl	r0, {r8}
	...
     758:	000000bc 	strheq	r0, [r0], -ip
     75c:	000000f0 	strdeq	r0, [r0], -r0	; <UNPREDICTABLE>
     760:	9f300002 	svcls	0x00300002
     764:	000000f0 	strdeq	r0, [r0], -r0	; <UNPREDICTABLE>
     768:	000001e8 	andeq	r0, r0, r8, ror #3
     76c:	00550001 	subseq	r0, r5, r1
     770:	00000000 	andeq	r0, r0, r0
     774:	bc000000 	stclt	0, cr0, [r0], {-0}
     778:	f0000000 			; <UNDEFINED> instruction: 0xf0000000
     77c:	02000000 	andeq	r0, r0, #0
     780:	f09f3000 			; <UNDEFINED> instruction: 0xf09f3000
     784:	e8000000 	stmda	r0, {}	; <UNPREDICTABLE>
     788:	01000001 	tsteq	r0, r1
     78c:	00005700 	andeq	r5, r0, r0, lsl #14
     790:	00000000 	andeq	r0, r0, r0
     794:	00bc0000 	adcseq	r0, ip, r0
     798:	00f00000 	rscseq	r0, r0, r0
     79c:	00020000 	andeq	r0, r2, r0
     7a0:	00f09f30 	rscseq	r9, r0, r0, lsr pc
     7a4:	01e80000 	mvneq	r0, r0
     7a8:	00010000 	andeq	r0, r1, r0
     7ac:	00000056 	andeq	r0, r0, r6, asr r0
     7b0:	00000000 	andeq	r0, r0, r0
     7b4:	0000d400 	andeq	sp, r0, r0, lsl #8
     7b8:	00010c00 	andeq	r0, r1, r0, lsl #24
     7bc:	50000100 	andpl	r0, r0, r0, lsl #2
     7c0:	0000010c 	andeq	r0, r0, ip, lsl #2
     7c4:	00000124 	andeq	r0, r0, r4, lsr #2
     7c8:	24540001 	ldrbcs	r0, [r4], #-1
     7cc:	40000001 	andmi	r0, r0, r1
     7d0:	01000001 	tsteq	r0, r1
     7d4:	01405000 	mrseq	r5, (UNDEF: 64)
     7d8:	01640000 	cmneq	r4, r0
     7dc:	00010000 	andeq	r0, r1, r0
     7e0:	00016454 	andeq	r6, r1, r4, asr r4
     7e4:	00017000 	andeq	r7, r1, r0
     7e8:	50000100 	andpl	r0, r0, r0, lsl #2
     7ec:	00000170 	andeq	r0, r0, r0, ror r1
     7f0:	000001e8 	andeq	r0, r0, r8, ror #3
     7f4:	00540001 	subseq	r0, r4, r1
     7f8:	00000000 	andeq	r0, r0, r0
     7fc:	e8000000 	stmda	r0, {}	; <UNPREDICTABLE>
     800:	ff000001 			; <UNDEFINED> instruction: 0xff000001
     804:	01000001 	tsteq	r0, r1
     808:	01ff5000 	mvnseq	r5, r0
     80c:	02180000 	andseq	r0, r8, #0
     810:	00010000 	andeq	r0, r1, r0
     814:	00021854 	andeq	r1, r2, r4, asr r8
     818:	00022300 	andeq	r2, r2, r0, lsl #6
     81c:	50000100 	andpl	r0, r0, r0, lsl #2
     820:	00000223 	andeq	r0, r0, r3, lsr #4
     824:	0000023c 	andeq	r0, r0, ip, lsr r2
     828:	3c540001 	mrrccc	0, 0, r0, r4, cr1
     82c:	47000002 	strmi	r0, [r0, -r2]
     830:	01000002 	tsteq	r0, r2
     834:	02475000 	subeq	r5, r7, #0
     838:	02600000 	rsbeq	r0, r0, #0
     83c:	00010000 	andeq	r0, r1, r0
     840:	00026054 	andeq	r6, r2, r4, asr r0
     844:	0002bc00 	andeq	fp, r2, r0, lsl #24
     848:	f3000400 	vshl.u8	d0, d0, d0
     84c:	bc9f5001 	ldclt	0, cr5, [pc], {1}
     850:	c0000002 	andgt	r0, r0, r2
     854:	01000002 	tsteq	r0, r2
     858:	02c05000 	sbceq	r5, r0, #0
     85c:	02e00000 	rsceq	r0, r0, #0
     860:	00040000 	andeq	r0, r4, r0
     864:	9f5001f3 	svcls	0x005001f3
	...
     870:	000001e8 	andeq	r0, r0, r8, ror #3
     874:	000001ff 	strdeq	r0, [r0], -pc	; <UNPREDICTABLE>
     878:	ff510001 			; <UNDEFINED> instruction: 0xff510001
     87c:	18000001 	stmdane	r0, {r0}
     880:	01000002 	tsteq	r0, r2
     884:	02185500 	andseq	r5, r8, #0, 10
     888:	02230000 	eoreq	r0, r3, #0
     88c:	00010000 	andeq	r0, r1, r0
     890:	00022351 	andeq	r2, r2, r1, asr r3
     894:	00023c00 	andeq	r3, r2, r0, lsl #24
     898:	55000100 	strpl	r0, [r0, #-256]	; 0x100
     89c:	0000023c 	andeq	r0, r0, ip, lsr r2
     8a0:	00000247 	andeq	r0, r0, r7, asr #4
     8a4:	47510001 	ldrbmi	r0, [r1, -r1]
     8a8:	bc000002 	stclt	0, cr0, [r0], {2}
     8ac:	01000002 	tsteq	r0, r2
     8b0:	02bc5500 	adcseq	r5, ip, #0, 10
     8b4:	02c00000 	sbceq	r0, r0, #0
     8b8:	00010000 	andeq	r0, r1, r0
     8bc:	0002c051 	andeq	ip, r2, r1, asr r0
     8c0:	0002e000 	andeq	lr, r2, r0
     8c4:	55000100 	strpl	r0, [r0, #-256]	; 0x100
	...
     8d0:	00000260 	andeq	r0, r0, r0, ror #4
     8d4:	000002bc 			; <UNDEFINED> instruction: 0x000002bc
     8d8:	c0540001 	subsgt	r0, r4, r1
     8dc:	e0000002 	and	r0, r0, r2
     8e0:	01000002 	tsteq	r0, r2
     8e4:	00005400 	andeq	r5, r0, r0, lsl #8
     8e8:	00000000 	andeq	r0, r0, r0
     8ec:	02680000 	rsbeq	r0, r8, #0
     8f0:	02740000 	rsbseq	r0, r4, #0
     8f4:	00010000 	andeq	r0, r1, r0
     8f8:	00027450 	andeq	r7, r2, r0, asr r4
     8fc:	0002b300 	andeq	fp, r2, r0, lsl #6
     900:	53000100 	movwpl	r0, #256	; 0x100
	...
     90c:	000002ec 	andeq	r0, r0, ip, ror #5
     910:	00000303 	andeq	r0, r0, r3, lsl #6
     914:	04500001 	ldrbeq	r0, [r0], #-1
     918:	14000003 	strne	r0, [r0], #-3
     91c:	01000003 	tsteq	r0, r3
     920:	00005000 	andeq	r5, r0, r0
     924:	00000000 	andeq	r0, r0, r0
     928:	03580000 	cmpeq	r8, #0
     92c:	036c0000 	cmneq	ip, #0
     930:	00010000 	andeq	r0, r1, r0
     934:	00037453 	andeq	r7, r3, r3, asr r4
     938:	00038700 	andeq	r8, r3, r0, lsl #14
     93c:	53000100 	movwpl	r0, #256	; 0x100
	...
     948:	000003dc 	ldrdeq	r0, [r0], -ip
     94c:	00000410 	andeq	r0, r0, r0, lsl r4
     950:	9f300002 	svcls	0x00300002
     954:	00000410 	andeq	r0, r0, r0, lsl r4
     958:	000004cc 	andeq	r0, r0, ip, asr #9
     95c:	00550001 	subseq	r0, r5, r1
     960:	00000000 	andeq	r0, r0, r0
     964:	dc000000 	stcle	0, cr0, [r0], {-0}
     968:	10000003 	andne	r0, r0, r3
     96c:	02000004 	andeq	r0, r0, #4
     970:	109f3000 	addsne	r3, pc, r0
     974:	cc000004 	stcgt	0, cr0, [r0], {4}
     978:	01000004 	tsteq	r0, r4
     97c:	00005800 	andeq	r5, r0, r0, lsl #16
     980:	00000000 	andeq	r0, r0, r0
     984:	03dc0000 	bicseq	r0, ip, #0
     988:	04100000 	ldreq	r0, [r0], #-0
     98c:	00020000 	andeq	r0, r2, r0
     990:	04109f30 	ldreq	r9, [r0], #-3888	; 0xf30
     994:	04cc0000 	strbeq	r0, [ip], #0
     998:	00010000 	andeq	r0, r1, r0
     99c:	0004cc56 	andeq	ip, r4, r6, asr ip
     9a0:	0004f400 	andeq	pc, r4, r0, lsl #8
     9a4:	50000100 	andpl	r0, r0, r0, lsl #2
	...
     9b0:	000003f4 	strdeq	r0, [r0], -r4
     9b4:	0000043c 	andeq	r0, r0, ip, lsr r4
     9b8:	3c500001 	mrrccc	0, 0, r0, r0, cr1	; <UNPREDICTABLE>
     9bc:	70000004 	andvc	r0, r0, r4
     9c0:	01000004 	tsteq	r0, r4
     9c4:	04705400 	ldrbteq	r5, [r0], #-1024	; 0x400
     9c8:	04800000 	streq	r0, [r0], #0
     9cc:	00010000 	andeq	r0, r1, r0
     9d0:	00000050 	andeq	r0, r0, r0, asr r0
     9d4:	00000000 	andeq	r0, r0, r0
     9d8:	0004f400 	andeq	pc, r4, r0, lsl #8
     9dc:	0004ff00 	andeq	pc, r4, r0, lsl #30
     9e0:	50000100 	andpl	r0, r0, r0, lsl #2
     9e4:	000004ff 	strdeq	r0, [r0], -pc	; <UNPREDICTABLE>
     9e8:	0000050c 	andeq	r0, r0, ip, lsl #10
     9ec:	00540001 	subseq	r0, r4, r1
     9f0:	00000000 	andeq	r0, r0, r0
     9f4:	f0000000 			; <UNDEFINED> instruction: 0xf0000000
     9f8:	fb000005 	blx	a16 <__code_start__-0x75ea>
     9fc:	01000005 	tsteq	r0, r5
     a00:	05fb5000 	ldrbeq	r5, [fp, #0]!
     a04:	06140000 	ldreq	r0, [r4], -r0
     a08:	00010000 	andeq	r0, r1, r0
     a0c:	00061454 	andeq	r1, r6, r4, asr r4
     a10:	00061800 	andeq	r1, r6, r0, lsl #16
     a14:	50000100 	andpl	r0, r0, r0, lsl #2
     a18:	00000618 	andeq	r0, r0, r8, lsl r6
     a1c:	00000650 	andeq	r0, r0, r0, asr r6
     a20:	00540001 	subseq	r0, r4, r1
	...
     a2c:	24000000 	strcs	r0, [r0], #-0
     a30:	01000000 	mrseq	r0, (UNDEF: 0)
     a34:	00245000 	eoreq	r5, r4, r0
     a38:	00e40000 	rsceq	r0, r4, r0
     a3c:	00040000 	andeq	r0, r4, r0
     a40:	9f5001f3 	svcls	0x005001f3
     a44:	000000e4 	andeq	r0, r0, r4, ror #1
     a48:	000000e8 	andeq	r0, r0, r8, ror #1
     a4c:	e8500001 	ldmda	r0, {r0}^
     a50:	f0000000 			; <UNDEFINED> instruction: 0xf0000000
     a54:	04000000 	streq	r0, [r0], #-0
     a58:	5001f300 	andpl	pc, r1, r0, lsl #6
     a5c:	0000009f 	muleq	r0, pc, r0	; <UNPREDICTABLE>
	...
     a68:	00002000 	andeq	r2, r0, r0
     a6c:	51000100 	mrspl	r0, (UNDEF: 16)
     a70:	00000020 	andeq	r0, r0, r0, lsr #32
     a74:	00000080 	andeq	r0, r0, r0, lsl #1
     a78:	9c510001 	mrrcls	0, 0, r0, r1, cr1
     a7c:	a0000000 	andge	r0, r0, r0
     a80:	01000000 	mrseq	r0, (UNDEF: 0)
     a84:	00b85100 	adcseq	r5, r8, r0, lsl #2
     a88:	00c80000 	sbceq	r0, r8, r0
     a8c:	00010000 	andeq	r0, r1, r0
     a90:	0000e451 	andeq	lr, r0, r1, asr r4
     a94:	0000e800 	andeq	lr, r0, r0, lsl #16
     a98:	51000100 	mrspl	r0, (UNDEF: 16)
	...
     aa4:	00000004 	andeq	r0, r0, r4
     aa8:	00000024 	andeq	r0, r0, r4, lsr #32
     aac:	24500001 	ldrbcs	r0, [r0], #-1
     ab0:	90000000 	andls	r0, r0, r0
     ab4:	01000000 	mrseq	r0, (UNDEF: 0)
     ab8:	009c5300 	addseq	r5, ip, r0, lsl #6
     abc:	00a40000 	adceq	r0, r4, r0
     ac0:	00010000 	andeq	r0, r1, r0
     ac4:	0000b853 	andeq	fp, r0, r3, asr r8
     ac8:	0000bc00 	andeq	fp, r0, r0, lsl #24
     acc:	53000100 	movwpl	r0, #256	; 0x100
     ad0:	000000e4 	andeq	r0, r0, r4, ror #1
     ad4:	000000e8 	andeq	r0, r0, r8, ror #1
     ad8:	00500001 	subseq	r0, r0, r1
     adc:	00000000 	andeq	r0, r0, r0
     ae0:	08000000 	stmdaeq	r0, {}	; <UNPREDICTABLE>
     ae4:	20000000 	andcs	r0, r0, r0
     ae8:	01000000 	mrseq	r0, (UNDEF: 0)
     aec:	00205100 	eoreq	r5, r0, r0, lsl #2
     af0:	00340000 	eorseq	r0, r4, r0
     af4:	00010000 	andeq	r0, r1, r0
     af8:	00003452 	andeq	r3, r0, r2, asr r4
     afc:	00004800 	andeq	r4, r0, r0, lsl #16
     b00:	50000100 	andpl	r0, r0, r0, lsl #2
     b04:	00000048 	andeq	r0, r0, r8, asr #32
     b08:	000000cc 	andeq	r0, r0, ip, asr #1
     b0c:	cc520001 	mrrcgt	0, 0, r0, r2, cr1
     b10:	e0000000 	and	r0, r0, r0
     b14:	01000000 	mrseq	r0, (UNDEF: 0)
     b18:	00e45000 	rsceq	r5, r4, r0
     b1c:	00e80000 	rsceq	r0, r8, r0
     b20:	00010000 	andeq	r0, r1, r0
     b24:	00000051 	andeq	r0, r0, r1, asr r0
     b28:	00000000 	andeq	r0, r0, r0
     b2c:	00004400 	andeq	r4, r0, r0, lsl #8
     b30:	00004800 	andeq	r4, r0, r0, lsl #16
     b34:	52000100 	andpl	r0, r0, #0, 2
     b38:	00000048 	andeq	r0, r0, r8, asr #32
     b3c:	0000004c 	andeq	r0, r0, ip, asr #32
     b40:	007c0012 	rsbseq	r0, ip, r2, lsl r0
     b44:	02732438 	rsbseq	r2, r3, #56, 8	; 0x38000000
     b48:	ff080194 			; <UNDEFINED> instruction: 0xff080194
     b4c:	243b221a 	ldrtcs	r2, [fp], #-538	; 0x21a
     b50:	9f270070 	svcls	0x00270070
     b54:	0000004c 	andeq	r0, r0, ip, asr #32
     b58:	00000054 	andeq	r0, r0, r4, asr r0
     b5c:	007c0012 	rsbseq	r0, ip, r2, lsl r0
     b60:	7e732438 	mrcvc	4, 3, r2, cr3, cr8, {1}
     b64:	ff080194 			; <UNDEFINED> instruction: 0xff080194
     b68:	243b221a 	ldrtcs	r2, [fp], #-538	; 0x21a
     b6c:	9f270070 	svcls	0x00270070
	...
     b78:	0000001c 	andeq	r0, r0, ip, lsl r0
     b7c:	000000e4 	andeq	r0, r0, r4, ror #1
     b80:	00540001 	subseq	r0, r4, r1
	...
     b8c:	04000000 	streq	r0, [r0], #-0
     b90:	01000000 	mrseq	r0, (UNDEF: 0)
     b94:	00045200 	andeq	r5, r4, r0, lsl #4
     b98:	00200000 	eoreq	r0, r0, r0
     b9c:	00040000 	andeq	r0, r4, r0
     ba0:	9f5201f3 	svcls	0x005201f3
	...
     bb0:	0000000c 	andeq	r0, r0, ip
     bb4:	0c500001 	mrrceq	0, 0, r0, r0, cr1	; <UNPREDICTABLE>
     bb8:	14000000 	strne	r0, [r0], #-0
     bbc:	03000000 	movweq	r0, #0
     bc0:	9f017300 	svcls	0x00017300
     bc4:	00000014 	andeq	r0, r0, r4, lsl r0
     bc8:	00000020 	andeq	r0, r0, r0, lsr #32
     bcc:	00530001 	subseq	r0, r3, r1
     bd0:	00000000 	andeq	r0, r0, r0
     bd4:	2c000000 	stccs	0, cr0, [r0], {-0}
     bd8:	38000000 	stmdacc	r0, {}	; <UNPREDICTABLE>
     bdc:	01000000 	mrseq	r0, (UNDEF: 0)
     be0:	00385000 	eorseq	r5, r8, r0
     be4:	00480000 	subeq	r0, r8, r0
     be8:	00010000 	andeq	r0, r1, r0
     bec:	00004855 	andeq	r4, r0, r5, asr r8
     bf0:	00005800 	andeq	r5, r0, r0, lsl #16
     bf4:	50000100 	andpl	r0, r0, r0, lsl #2
	...
     c04:	0000000b 	andeq	r0, r0, fp
     c08:	0b500001 	bleq	1400c14 <__bss_end__+0x13f5ffc>
     c0c:	14000000 	strne	r0, [r0], #-0
     c10:	01000000 	mrseq	r0, (UNDEF: 0)
     c14:	00005400 	andeq	r5, r0, r0, lsl #8
	...
     c20:	00100000 	andseq	r0, r0, r0
     c24:	00010000 	andeq	r0, r1, r0
     c28:	00001050 	andeq	r1, r0, r0, asr r0
     c2c:	00003400 	andeq	r3, r0, r0, lsl #8
     c30:	54000100 	strpl	r0, [r0], #-256	; 0x100
	...
     c40:	00000004 	andeq	r0, r0, r4
     c44:	04500001 	ldrbeq	r0, [r0], #-1
     c48:	0c000000 	stceq	0, cr0, [r0], {-0}
     c4c:	03000000 	movweq	r0, #0
     c50:	9f307000 	svcls	0x00307000
     c54:	0000000c 	andeq	r0, r0, ip
     c58:	00000014 	andeq	r0, r0, r4, lsl r0
     c5c:	01f30004 	mvnseq	r0, r4
     c60:	00009f50 	andeq	r9, r0, r0, asr pc
     c64:	00000000 	andeq	r0, r0, r0
     c68:	00140000 	andseq	r0, r4, r0
     c6c:	00200000 	eoreq	r0, r0, r0
     c70:	00010000 	andeq	r0, r1, r0
     c74:	00002050 	andeq	r2, r0, r0, asr r0
     c78:	00002c00 	andeq	r2, r0, r0, lsl #24
     c7c:	70000300 	andvc	r0, r0, r0, lsl #6
     c80:	002c9f01 	eoreq	r9, ip, r1, lsl #30
     c84:	00400000 	subeq	r0, r0, r0
     c88:	00010000 	andeq	r0, r1, r0
     c8c:	00000050 	andeq	r0, r0, r0, asr r0
     c90:	00000000 	andeq	r0, r0, r0
     c94:	00001400 	andeq	r1, r0, r0, lsl #8
     c98:	00001800 	andeq	r1, r0, r0, lsl #16
     c9c:	51000100 	mrspl	r0, (UNDEF: 16)
     ca0:	00000018 	andeq	r0, r0, r8, lsl r0
     ca4:	00000040 	andeq	r0, r0, r0, asr #32
     ca8:	01f30004 	mvnseq	r0, r4
     cac:	00009f51 	andeq	r9, r0, r1, asr pc
     cb0:	00000000 	andeq	r0, r0, r0
     cb4:	00400000 	subeq	r0, r0, r0
     cb8:	00600000 	rsbeq	r0, r0, r0
     cbc:	00010000 	andeq	r0, r1, r0
     cc0:	00006050 	andeq	r6, r0, r0, asr r0
     cc4:	00006c00 	andeq	r6, r0, r0, lsl #24
     cc8:	71000300 	mrsvc	r0, LR_irq
     ccc:	006c9f01 	rsbeq	r9, ip, r1, lsl #30
     cd0:	00740000 	rsbseq	r0, r4, r0
     cd4:	00010000 	andeq	r0, r1, r0
     cd8:	00007451 	andeq	r7, r0, r1, asr r4
     cdc:	00008000 	andeq	r8, r0, r0
     ce0:	71000300 	mrsvc	r0, LR_irq
     ce4:	00009f01 	andeq	r9, r0, r1, lsl #30
     ce8:	00000000 	andeq	r0, r0, r0
     cec:	00400000 	subeq	r0, r0, r0
     cf0:	00500000 	subseq	r0, r0, r0
     cf4:	00010000 	andeq	r0, r1, r0
     cf8:	00005051 	andeq	r5, r0, r1, asr r0
     cfc:	00008000 	andeq	r8, r0, r0
     d00:	f3000400 	vshl.u8	d0, d0, d0
     d04:	009f5101 	addseq	r5, pc, r1, lsl #2
     d08:	00000000 	andeq	r0, r0, r0
     d0c:	40000000 	andmi	r0, r0, r0
     d10:	58000000 	stmdapl	r0, {}	; <UNPREDICTABLE>
     d14:	01000000 	mrseq	r0, (UNDEF: 0)
     d18:	00585200 	subseq	r5, r8, r0, lsl #4
     d1c:	00640000 	rsbeq	r0, r4, r0
     d20:	00010000 	andeq	r0, r1, r0
     d24:	00006452 	andeq	r6, r0, r2, asr r4
     d28:	00006800 	andeq	r6, r0, r0, lsl #16
     d2c:	72000300 	andvc	r0, r0, #0, 6
     d30:	00689f01 	rsbeq	r9, r8, r1, lsl #30
     d34:	00800000 	addeq	r0, r0, r0
     d38:	00010000 	andeq	r0, r1, r0
     d3c:	00000052 	andeq	r0, r0, r2, asr r0
     d40:	00000000 	andeq	r0, r0, r0
     d44:	00004000 	andeq	r4, r0, r0
     d48:	00005400 	andeq	r5, r0, r0, lsl #8
     d4c:	53000100 	movwpl	r0, #256	; 0x100
     d50:	00000054 	andeq	r0, r0, r4, asr r0
     d54:	00000078 	andeq	r0, r0, r8, ror r0
     d58:	00530001 	subseq	r0, r3, r1
     d5c:	00000000 	andeq	r0, r0, r0
     d60:	48000000 	stmdami	r0, {}	; <UNPREDICTABLE>
     d64:	60000000 	andvs	r0, r0, r0
     d68:	01000000 	mrseq	r0, (UNDEF: 0)
     d6c:	00605c00 	rsbeq	r5, r0, r0, lsl #24
     d70:	00800000 	addeq	r0, r0, r0
     d74:	000a0000 	andeq	r0, sl, r0
     d78:	f35201f3 	vbsl	q8, q9, <illegal reg q9.5>
     d7c:	231c5301 	tstcs	ip, #67108864	; 0x4000000
     d80:	00009f01 	andeq	r9, r0, r1, lsl #30
     d84:	00000000 	andeq	r0, r0, r0
     d88:	00800000 	addeq	r0, r0, r0
     d8c:	00a40000 	adceq	r0, r4, r0
     d90:	00010000 	andeq	r0, r1, r0
     d94:	0000a450 	andeq	sl, r0, r0, asr r4
     d98:	00011800 	andeq	r1, r1, r0, lsl #16
     d9c:	70000300 	andvc	r0, r0, r0, lsl #6
     da0:	01189f02 	tsteq	r8, r2, lsl #30
     da4:	02300000 	eorseq	r0, r0, #0
     da8:	00040000 	andeq	r0, r4, r0
     dac:	9f5001f3 	svcls	0x005001f3
	...
     db8:	00000080 	andeq	r0, r0, r0, lsl #1
     dbc:	000000f0 	strdeq	r0, [r0], -r0	; <UNPREDICTABLE>
     dc0:	f0510001 			; <UNDEFINED> instruction: 0xf0510001
     dc4:	60000000 	andvs	r0, r0, r0
     dc8:	01000001 	tsteq	r0, r1
     dcc:	01605500 	cmneq	r0, r0, lsl #10
     dd0:	016c0000 	cmneq	ip, r0
     dd4:	00010000 	andeq	r0, r1, r0
     dd8:	00016c51 	andeq	r6, r1, r1, asr ip
     ddc:	0001a000 	andeq	sl, r1, r0
     de0:	55000100 	strpl	r0, [r0, #-256]	; 0x100
     de4:	000001a0 	andeq	r0, r0, r0, lsr #3
     de8:	000001b4 			; <UNDEFINED> instruction: 0x000001b4
     dec:	b4510001 	ldrblt	r0, [r1], #-1
     df0:	d4000001 	strle	r0, [r0], #-1
     df4:	01000001 	tsteq	r0, r1
     df8:	01d45500 	bicseq	r5, r4, r0, lsl #10
     dfc:	01d70000 	bicseq	r0, r7, r0
     e00:	00010000 	andeq	r0, r1, r0
     e04:	0001d751 	andeq	sp, r1, r1, asr r7
     e08:	00021400 	andeq	r1, r2, r0, lsl #8
     e0c:	55000100 	strpl	r0, [r0, #-256]	; 0x100
     e10:	00000214 	andeq	r0, r0, r4, lsl r2
     e14:	00000230 	andeq	r0, r0, r0, lsr r2
     e18:	01f30004 	mvnseq	r0, r4
     e1c:	00009f51 	andeq	r9, r0, r1, asr pc
     e20:	00000000 	andeq	r0, r0, r0
     e24:	00800000 	addeq	r0, r0, r0
     e28:	00940000 	addseq	r0, r4, r0
     e2c:	00010000 	andeq	r0, r1, r0
     e30:	00009452 	andeq	r9, r0, r2, asr r4
     e34:	00021400 	andeq	r1, r2, r0, lsl #8
     e38:	54000100 	strpl	r0, [r0], #-256	; 0x100
     e3c:	00000214 	andeq	r0, r0, r4, lsl r2
     e40:	00000230 	andeq	r0, r0, r0, lsr r2
     e44:	01f30004 	mvnseq	r0, r4
     e48:	00009f52 	andeq	r9, r0, r2, asr pc
     e4c:	00000000 	andeq	r0, r0, r0
     e50:	00800000 	addeq	r0, r0, r0
     e54:	01000000 	mrseq	r0, (UNDEF: 0)
     e58:	00010000 	andeq	r0, r1, r0
     e5c:	00010453 	andeq	r0, r1, r3, asr r4
     e60:	00010800 	andeq	r0, r1, r0, lsl #16
     e64:	53000100 	movwpl	r0, #256	; 0x100
     e68:	00000160 	andeq	r0, r0, r0, ror #2
     e6c:	00000164 	andeq	r0, r0, r4, ror #2
     e70:	64530001 	ldrbvs	r0, [r3], #-1
     e74:	6c000001 	stcvs	0, cr0, [r0], {1}
     e78:	01000001 	tsteq	r0, r1
     e7c:	016c5c00 	cmneq	ip, r0, lsl #24
     e80:	01a00000 	moveq	r0, r0
     e84:	00040000 	andeq	r0, r4, r0
     e88:	9f5301f3 	svcls	0x005301f3
     e8c:	000001a0 	andeq	r0, r0, r0, lsr #3
     e90:	000001b0 			; <UNDEFINED> instruction: 0x000001b0
     e94:	b0530001 	subslt	r0, r3, r1
     e98:	b4000001 	strlt	r0, [r0], #-1
     e9c:	01000001 	tsteq	r0, r1
     ea0:	01b45c00 			; <UNDEFINED> instruction: 0x01b45c00
     ea4:	01d40000 	bicseq	r0, r4, r0
     ea8:	00040000 	andeq	r0, r4, r0
     eac:	9f5301f3 	svcls	0x005301f3
     eb0:	000001d4 	ldrdeq	r0, [r0], -r4
     eb4:	000001d7 	ldrdeq	r0, [r0], -r7
     eb8:	d7530001 	ldrble	r0, [r3, -r1]
     ebc:	f0000001 			; <UNDEFINED> instruction: 0xf0000001
     ec0:	04000001 	streq	r0, [r0], #-1
     ec4:	5301f300 	movwpl	pc, #4864	; 0x1300	; <UNPREDICTABLE>
     ec8:	0000009f 	muleq	r0, pc, r0	; <UNPREDICTABLE>
     ecc:	00000000 	andeq	r0, r0, r0
     ed0:	00008000 	andeq	r8, r0, r0
     ed4:	00009c00 	andeq	r9, r0, r0, lsl #24
     ed8:	91000200 	mrsls	r0, R8_usr
     edc:	00009c00 	andeq	r9, r0, r0, lsl #24
     ee0:	0001d700 	andeq	sp, r1, r0, lsl #14
     ee4:	52000100 	andpl	r0, r0, #0, 2
     ee8:	000001f0 	strdeq	r0, [r0], -r0	; <UNPREDICTABLE>
     eec:	000001f7 	strdeq	r0, [r0], -r7
     ef0:	00520001 	subseq	r0, r2, r1
     ef4:	00000000 	andeq	r0, r0, r0
     ef8:	9c000000 	stcls	0, cr0, [r0], {-0}
     efc:	18000000 	stmdane	r0, {}	; <UNPREDICTABLE>
     f00:	01000001 	tsteq	r0, r1
     f04:	01185d00 	tsteq	r8, r0, lsl #26
     f08:	011c0000 	tsteq	ip, r0
     f0c:	00010000 	andeq	r0, r1, r0
     f10:	00011c50 	andeq	r1, r1, r0, asr ip
     f14:	00012000 	andeq	r2, r1, r0
     f18:	51000100 	mrspl	r0, (UNDEF: 16)
     f1c:	00000120 	andeq	r0, r0, r0, lsr #2
     f20:	00000160 	andeq	r0, r0, r0, ror #2
     f24:	60500001 	subsvs	r0, r0, r1
     f28:	6c000001 	stcvs	0, cr0, [r0], {1}
     f2c:	01000001 	tsteq	r0, r1
     f30:	016c5d00 	cmneq	ip, r0, lsl #26
     f34:	01700000 	cmneq	r0, r0
     f38:	00010000 	andeq	r0, r1, r0
     f3c:	00017050 	andeq	r7, r1, r0, asr r0
     f40:	00017400 	andeq	r7, r1, r0, lsl #8
     f44:	53000100 	movwpl	r0, #256	; 0x100
     f48:	00000174 	andeq	r0, r0, r4, ror r1
     f4c:	00000188 	andeq	r0, r0, r8, lsl #3
     f50:	88500001 	ldmdahi	r0, {r0}^
     f54:	94000001 	strls	r0, [r0], #-1
     f58:	03000001 	movweq	r0, #1
     f5c:	9f017000 	svcls	0x00017000
     f60:	00000194 	muleq	r0, r4, r1
     f64:	000001a0 	andeq	r0, r0, r0, lsr #3
     f68:	a0500001 	subsge	r0, r0, r1
     f6c:	a8000001 	stmdage	r0, {r0}
     f70:	04000001 	streq	r0, [r0], #-1
     f74:	7fa19100 	svcvc	0x00a19100
     f78:	0001a89f 	muleq	r1, pc, r8	; <UNPREDICTABLE>
     f7c:	0001ac00 	andeq	sl, r1, r0, lsl #24
     f80:	50000100 	andpl	r0, r0, r0, lsl #2
     f84:	000001ac 	andeq	r0, r0, ip, lsr #3
     f88:	000001b4 			; <UNDEFINED> instruction: 0x000001b4
     f8c:	b45d0001 	ldrblt	r0, [sp], #-1
     f90:	b8000001 	stmdalt	r0, {r0}
     f94:	01000001 	tsteq	r0, r1
     f98:	01b85300 			; <UNDEFINED> instruction: 0x01b85300
     f9c:	01d40000 	bicseq	r0, r4, r0
     fa0:	00010000 	andeq	r0, r1, r0
     fa4:	0001d450 	andeq	sp, r1, r0, asr r4
     fa8:	0001f000 	andeq	pc, r1, r0
     fac:	5d000100 	stfpls	f0, [r0, #-0]
     fb0:	000001f0 	strdeq	r0, [r0], -r0	; <UNPREDICTABLE>
     fb4:	000001f7 	strdeq	r0, [r0], -r7
     fb8:	00500001 	subseq	r0, r0, r1
     fbc:	00000000 	andeq	r0, r0, r0
     fc0:	a0000000 	andge	r0, r0, r0
     fc4:	ec000000 	stc	0, cr0, [r0], {-0}
     fc8:	01000000 	mrseq	r0, (UNDEF: 0)
     fcc:	00ec5c00 	rsceq	r5, ip, r0, lsl #24
     fd0:	01000000 	mrseq	r0, (UNDEF: 0)
     fd4:	00010000 	andeq	r0, r1, r0
     fd8:	00010053 	andeq	r0, r1, r3, asr r0
     fdc:	00010400 	andeq	r0, r1, r0, lsl #8
     fe0:	5c000100 	stfpls	f0, [r0], {-0}
     fe4:	00000104 	andeq	r0, r0, r4, lsl #2
     fe8:	00000108 	andeq	r0, r0, r8, lsl #2
     fec:	08530001 	ldmdaeq	r3, {r0}^
     ff0:	60000001 	andvs	r0, r0, r1
     ff4:	01000001 	tsteq	r0, r1
     ff8:	01605c00 	cmneq	r0, r0, lsl #24
     ffc:	01640000 	cmneq	r4, r0
    1000:	00010000 	andeq	r0, r1, r0
    1004:	00016453 	andeq	r6, r1, r3, asr r4
    1008:	00018000 	andeq	r8, r1, r0
    100c:	5c000100 	stfpls	f0, [r0], {-0}
    1010:	00000180 	andeq	r0, r0, r0, lsl #3
    1014:	00000184 	andeq	r0, r0, r4, lsl #3
    1018:	007c0005 	rsbseq	r0, ip, r5
    101c:	849f2534 	ldrhi	r2, [pc], #1332	; 1024 <__code_start__-0x6fdc>
    1020:	a0000001 	andge	r0, r0, r1
    1024:	01000001 	tsteq	r0, r1
    1028:	01a05c00 	lsleq	r5, r0, #24
    102c:	01b00000 	movseq	r0, r0
    1030:	00010000 	andeq	r0, r1, r0
    1034:	0001b053 	andeq	fp, r1, r3, asr r0
    1038:	0001c400 	andeq	ip, r1, r0, lsl #8
    103c:	5c000100 	stfpls	f0, [r0], {-0}
    1040:	000001c4 	andeq	r0, r0, r4, asr #3
    1044:	000001cc 	andeq	r0, r0, ip, asr #3
    1048:	007c0005 	rsbseq	r0, ip, r5
    104c:	cc9f2531 	cfldr32gt	mvfx2, [pc], {49}	; 0x31
    1050:	d4000001 	strle	r0, [r0], #-1
    1054:	01000001 	tsteq	r0, r1
    1058:	01d45c00 	bicseq	r5, r4, r0, lsl #24
    105c:	01d70000 	bicseq	r0, r7, r0
    1060:	00010000 	andeq	r0, r1, r0
    1064:	0001d753 	andeq	sp, r1, r3, asr r7
    1068:	0001f000 	andeq	pc, r1, r0
    106c:	f3000400 	vshl.u8	d0, d0, d0
    1070:	f09f5301 			; <UNDEFINED> instruction: 0xf09f5301
    1074:	f7000001 			; <UNDEFINED> instruction: 0xf7000001
    1078:	01000001 	tsteq	r0, r1
    107c:	00005c00 	andeq	r5, r0, r0, lsl #24
    1080:	00000000 	andeq	r0, r0, r0
    1084:	00ec0000 	rsceq	r0, ip, r0
    1088:	00fc0000 	rscseq	r0, ip, r0
    108c:	00020000 	andeq	r0, r2, r0
    1090:	00fc9f30 	rscseq	r9, ip, r0, lsr pc
    1094:	01040000 	mrseq	r0, (UNDEF: 4)
    1098:	00020000 	andeq	r0, r2, r0
    109c:	01049f31 	tsteq	r4, r1, lsr pc
    10a0:	01080000 	mrseq	r0, (UNDEF: 8)
    10a4:	00020000 	andeq	r0, r2, r0
    10a8:	00009f30 	andeq	r9, r0, r0, lsr pc
    10ac:	00000000 	andeq	r0, r0, r0
    10b0:	02300000 	eorseq	r0, r0, #0
    10b4:	023f0000 	eorseq	r0, pc, #0
    10b8:	00010000 	andeq	r0, r1, r0
    10bc:	00023f50 	andeq	r3, r2, r0, asr pc
    10c0:	00025800 	andeq	r5, r2, r0, lsl #16
    10c4:	f3000400 	vshl.u8	d0, d0, d0
    10c8:	589f5001 	ldmpl	pc, {r0, ip, lr}	; <UNPREDICTABLE>
    10cc:	84000002 	strhi	r0, [r0], #-2
    10d0:	01000002 	tsteq	r0, r2
    10d4:	00005000 	andeq	r5, r0, r0
    10d8:	00000000 	andeq	r0, r0, r0
    10dc:	02300000 	eorseq	r0, r0, #0
    10e0:	023f0000 	eorseq	r0, pc, #0
    10e4:	00010000 	andeq	r0, r1, r0
    10e8:	00023f51 	andeq	r3, r2, r1, asr pc
    10ec:	00025800 	andeq	r5, r2, r0, lsl #16
    10f0:	f3000400 	vshl.u8	d0, d0, d0
    10f4:	589f5101 	ldmpl	pc, {r0, r8, ip, lr}	; <UNPREDICTABLE>
    10f8:	84000002 	strhi	r0, [r0], #-2
    10fc:	01000002 	tsteq	r0, r2
    1100:	00005100 	andeq	r5, r0, r0, lsl #2
    1104:	00000000 	andeq	r0, r0, r0
    1108:	02840000 	addeq	r0, r4, #0
    110c:	02b00000 	adcseq	r0, r0, #0
    1110:	00010000 	andeq	r0, r1, r0
    1114:	0002b050 	andeq	fp, r2, r0, asr r0
    1118:	0004f800 	andeq	pc, r4, r0, lsl #16
    111c:	5a000100 	bpl	1524 <__code_start__-0x6adc>
    1120:	000004f8 	strdeq	r0, [r0], -r8
    1124:	0000050c 	andeq	r0, r0, ip, lsl #10
    1128:	01f30004 	mvnseq	r0, r4
    112c:	00009f50 	andeq	r9, r0, r0, asr pc
    1130:	00000000 	andeq	r0, r0, r0
    1134:	02840000 	addeq	r0, r4, #0
    1138:	02980000 	addseq	r0, r8, #0
    113c:	00010000 	andeq	r0, r1, r0
    1140:	00029851 	andeq	r9, r2, r1, asr r8
    1144:	0002b000 	andeq	fp, r2, r0
    1148:	71000300 	mrsvc	r0, LR_irq
    114c:	02b09f01 	adcseq	r9, r0, #1, 30
    1150:	050c0000 	streq	r0, [ip, #-0]
    1154:	00040000 	andeq	r0, r4, r0
    1158:	9f5101f3 	svcls	0x005101f3
	...
    1164:	00000284 	andeq	r0, r0, r4, lsl #5
    1168:	000002b8 			; <UNDEFINED> instruction: 0x000002b8
    116c:	b8520001 	ldmdalt	r2, {r0}^
    1170:	e0000002 	and	r0, r0, r2
    1174:	01000002 	tsteq	r0, r2
    1178:	02e05200 	rsceq	r5, r0, #0, 4
    117c:	04a80000 	strteq	r0, [r8], #0
    1180:	00010000 	andeq	r0, r1, r0
    1184:	0004a856 	andeq	sl, r4, r6, asr r8
    1188:	00050c00 	andeq	r0, r5, r0, lsl #24
    118c:	52000100 	andpl	r0, r0, #0, 2
	...
    1198:	00000284 	andeq	r0, r0, r4, lsl #5
    119c:	000002a0 	andeq	r0, r0, r0, lsr #5
    11a0:	00530001 	subseq	r0, r3, r1
    11a4:	00000000 	andeq	r0, r0, r0
    11a8:	94000000 	strls	r0, [r0], #-0
    11ac:	b0000002 	andlt	r0, r0, r2
    11b0:	01000002 	tsteq	r0, r2
    11b4:	02b05000 	adcseq	r5, r0, #0
    11b8:	02b40000 	adcseq	r0, r4, #0
    11bc:	00010000 	andeq	r0, r1, r0
    11c0:	0002b454 	andeq	fp, r2, r4, asr r4
    11c4:	0002c000 	andeq	ip, r2, r0
    11c8:	74000300 	strvc	r0, [r0], #-768	; 0x300
    11cc:	02c09f01 	sbceq	r9, r0, #1, 30
    11d0:	02cc0000 	sbceq	r0, ip, #0
    11d4:	00010000 	andeq	r0, r1, r0
    11d8:	0002cc54 	andeq	ip, r2, r4, asr ip
    11dc:	0002d800 	andeq	sp, r2, r0, lsl #16
    11e0:	74000300 	strvc	r0, [r0], #-768	; 0x300
    11e4:	02d89f01 	sbcseq	r9, r8, #1, 30
    11e8:	04ac0000 	strteq	r0, [ip], #0
    11ec:	00010000 	andeq	r0, r1, r0
    11f0:	0004ac54 	andeq	sl, r4, r4, asr ip
    11f4:	0004b800 	andeq	fp, r4, r0, lsl #16
    11f8:	74000300 	strvc	r0, [r0], #-768	; 0x300
    11fc:	04b89f01 	ldrteq	r9, [r8], #3841	; 0xf01
    1200:	04e40000 	strbteq	r0, [r4], #0
    1204:	00010000 	andeq	r0, r1, r0
    1208:	0004e454 	andeq	lr, r4, r4, asr r4
    120c:	0004f000 	andeq	pc, r4, r0
    1210:	50000100 	andpl	r0, r0, r0, lsl #2
    1214:	000004f0 	strdeq	r0, [r0], -r0	; <UNPREDICTABLE>
    1218:	000004f8 	strdeq	r0, [r0], -r8
    121c:	01740003 	cmneq	r4, r3
    1220:	0000009f 	muleq	r0, pc, r0	; <UNPREDICTABLE>
    1224:	00000000 	andeq	r0, r0, r0
    1228:	00029c00 	andeq	r9, r2, r0, lsl #24
    122c:	0004f800 	andeq	pc, r4, r0, lsl #16
    1230:	58000100 	stmdapl	r0, {r8}
    1234:	000004f8 	strdeq	r0, [r0], -r8
    1238:	0000050c 	andeq	r0, r0, ip, lsl #10
    123c:	01f3000a 	mvnseq	r0, sl
    1240:	5001f351 	andpl	pc, r1, r1, asr r3	; <UNPREDICTABLE>
    1244:	9f1c3122 	svcls	0x001c3122
	...
    1250:	000003e0 	andeq	r0, r0, r0, ror #7
    1254:	000003e4 	andeq	r0, r0, r4, ror #7
    1258:	04500001 	ldrbeq	r0, [r0], #-1
    125c:	08000004 	stmdaeq	r0, {r2}
    1260:	01000004 	tsteq	r0, r4
    1264:	04285000 	strteq	r5, [r8], #-0
    1268:	042c0000 	strteq	r0, [ip], #-0
    126c:	00010000 	andeq	r0, r1, r0
    1270:	00044c50 	andeq	r4, r4, r0, asr ip
    1274:	00045000 	andeq	r5, r4, r0
    1278:	50000100 	andpl	r0, r0, r0, lsl #2
    127c:	00000458 	andeq	r0, r0, r8, asr r4
    1280:	0000045c 	andeq	r0, r0, ip, asr r4
    1284:	7c500001 	mrrcvc	0, 0, r0, r0, cr1	; <UNPREDICTABLE>
    1288:	80000004 	andhi	r0, r0, r4
    128c:	01000004 	tsteq	r0, r4
    1290:	04a45000 	strteq	r5, [r4], #0
    1294:	04cc0000 	strbeq	r0, [ip], #0
    1298:	00010000 	andeq	r0, r1, r0
    129c:	00000050 	andeq	r0, r0, r0, asr r0
    12a0:	00000000 	andeq	r0, r0, r0
    12a4:	0002e000 	andeq	lr, r2, r0
    12a8:	0002e800 	andeq	lr, r2, r0, lsl #16
    12ac:	30000200 	andcc	r0, r0, r0, lsl #4
    12b0:	0002e89f 	muleq	r2, pc, r8	; <UNPREDICTABLE>
    12b4:	0002ec00 	andeq	lr, r2, r0, lsl #24
    12b8:	57000100 	strpl	r0, [r0, -r0, lsl #2]
    12bc:	000002f8 	strdeq	r0, [r0], -r8
    12c0:	000004cc 	andeq	r0, r0, ip, asr #9
    12c4:	00570001 	subseq	r0, r7, r1
    12c8:	00000000 	andeq	r0, r0, r0
    12cc:	14000000 	strne	r0, [r0], #-0
    12d0:	1c000000 	stcne	0, cr0, [r0], {-0}
    12d4:	03000000 	movweq	r0, #0
    12d8:	9f047300 	svcls	0x00047300
    12dc:	0000001c 	andeq	r0, r0, ip, lsl r0
    12e0:	00000027 	andeq	r0, r0, r7, lsr #32
    12e4:	00530001 	subseq	r0, r3, r1
    12e8:	00000000 	andeq	r0, r0, r0
    12ec:	50000000 	andpl	r0, r0, r0
    12f0:	54000097 	strpl	r0, [r0], #-151	; 0x97
    12f4:	02000097 	andeq	r0, r0, #151	; 0x97
    12f8:	549f3000 	ldrpl	r3, [pc], #0	; 1300 <__code_start__-0x6d00>
    12fc:	58000097 	stmdapl	r0, {r0, r1, r2, r4, r7}
    1300:	01000097 	swpeq	r0, r7, [r0]	; <UNPREDICTABLE>
    1304:	00005000 	andeq	r5, r0, r0
    1308:	00000000 	andeq	r0, r0, r0
    130c:	97680000 	strbls	r0, [r8, -r0]!
    1310:	976c0000 	strbls	r0, [ip, -r0]!
    1314:	00020000 	andeq	r0, r2, r0
    1318:	976c9f30 			; <UNDEFINED> instruction: 0x976c9f30
    131c:	97700000 	ldrbls	r0, [r0, -r0]!
    1320:	00010000 	andeq	r0, r1, r0
    1324:	00977453 	addseq	r7, r7, r3, asr r4
    1328:	00977c00 	addseq	r7, r7, r0, lsl #24
    132c:	53000100 	movwpl	r0, #256	; 0x100
	...
    133c:	00000004 	andeq	r0, r0, r4
    1340:	04500001 	ldrbeq	r0, [r0], #-1
    1344:	0c000000 	stceq	0, cr0, [r0], {-0}
    1348:	01000000 	mrseq	r0, (UNDEF: 0)
    134c:	000c5300 	andeq	r5, ip, r0, lsl #6
    1350:	00100000 	andseq	r0, r0, r0
    1354:	00010000 	andeq	r0, r1, r0
    1358:	00001050 	andeq	r1, r0, r0, asr r0
    135c:	00001c00 	andeq	r1, r0, r0, lsl #24
    1360:	53000100 	movwpl	r0, #256	; 0x100
	...
    136c:	0000003c 	andeq	r0, r0, ip, lsr r0
    1370:	00000047 	andeq	r0, r0, r7, asr #32
    1374:	47500001 	ldrbmi	r0, [r0, -r1]
    1378:	60000000 	andvs	r0, r0, r0
    137c:	01000000 	mrseq	r0, (UNDEF: 0)
    1380:	00005500 	andeq	r5, r0, r0, lsl #10
    1384:	00000000 	andeq	r0, r0, r0
    1388:	00500000 	subseq	r0, r0, r0
    138c:	00540000 	subseq	r0, r4, r0
    1390:	00010000 	andeq	r0, r1, r0
    1394:	00000050 	andeq	r0, r0, r0, asr r0
    1398:	00000000 	andeq	r0, r0, r0
    139c:	00006000 	andeq	r6, r0, r0
    13a0:	00006c00 	andeq	r6, r0, r0, lsl #24
    13a4:	50000100 	andpl	r0, r0, r0, lsl #2
    13a8:	0000006c 	andeq	r0, r0, ip, rrx
    13ac:	00000074 	andeq	r0, r0, r4, ror r0
    13b0:	01f30004 	mvnseq	r0, r4
    13b4:	00009f50 	andeq	r9, r0, r0, asr pc
    13b8:	00000000 	andeq	r0, r0, r0
    13bc:	00740000 	rsbseq	r0, r4, r0
    13c0:	00800000 	addeq	r0, r0, r0
    13c4:	00010000 	andeq	r0, r1, r0
    13c8:	00008050 	andeq	r8, r0, r0, asr r0
    13cc:	00008800 	andeq	r8, r0, r0, lsl #16
    13d0:	f3000400 	vshl.u8	d0, d0, d0
    13d4:	009f5001 	addseq	r5, pc, r1
    13d8:	00000000 	andeq	r0, r0, r0
    13dc:	38000000 	stmdacc	r0, {}	; <UNPREDICTABLE>
    13e0:	43000001 	movwmi	r0, #1
    13e4:	01000001 	tsteq	r0, r1
    13e8:	01435000 	mrseq	r5, (UNDEF: 67)
    13ec:	01680000 	cmneq	r8, r0
    13f0:	00010000 	andeq	r0, r1, r0
    13f4:	00000054 	andeq	r0, r0, r4, asr r0
	...
    1400:	00000f00 	andeq	r0, r0, r0, lsl #30
    1404:	50000100 	andpl	r0, r0, r0, lsl #2
    1408:	0000000f 	andeq	r0, r0, pc
    140c:	00000020 	andeq	r0, r0, r0, lsr #32
    1410:	00540001 	subseq	r0, r4, r1
	...
    141c:	0f000000 	svceq	0x00000000
    1420:	01000000 	mrseq	r0, (UNDEF: 0)
    1424:	000f5100 	andeq	r5, pc, r0, lsl #2
    1428:	00200000 	eoreq	r0, r0, r0
    142c:	00010000 	andeq	r0, r1, r0
    1430:	00000055 	andeq	r0, r0, r5, asr r0
    1434:	00000000 	andeq	r0, r0, r0
    1438:	0000ec00 	andeq	lr, r0, r0, lsl #24
    143c:	00010400 	andeq	r0, r1, r0, lsl #8
    1440:	50000100 	andpl	r0, r0, r0, lsl #2
    1444:	00000104 	andeq	r0, r0, r4, lsl #2
    1448:	00000114 	andeq	r0, r0, r4, lsl r1
    144c:	01f30004 	mvnseq	r0, r4
    1450:	01149f50 	tsteq	r4, r0, asr pc
    1454:	01180000 	tsteq	r8, r0
    1458:	00010000 	andeq	r0, r1, r0
    145c:	00011850 	andeq	r1, r1, r0, asr r8
    1460:	00012000 	andeq	r2, r1, r0
    1464:	f3000400 	vshl.u8	d0, d0, d0
    1468:	009f5001 	addseq	r5, pc, r1
    146c:	00000000 	andeq	r0, r0, r0
    1470:	f8000000 			; <UNDEFINED> instruction: 0xf8000000
    1474:	04000000 	streq	r0, [r0], #-0
    1478:	0b000001 	bleq	1484 <__code_start__-0x6b7c>
    147c:	35007000 	strcc	r7, [r0, #-0]
    1480:	80b42325 	adcshi	r2, r4, r5, lsr #6
    1484:	9f028180 	svcls	0x00028180
    1488:	00000104 	andeq	r0, r0, r4, lsl #2
    148c:	00000107 	andeq	r0, r0, r7, lsl #2
    1490:	07500001 	ldrbeq	r0, [r0, -r1]
    1494:	14000001 	strne	r0, [r0], #-1
    1498:	0c000001 	stceq	0, cr0, [r0], {1}
    149c:	5001f300 	andpl	pc, r1, r0, lsl #6
    14a0:	b4232535 	strtlt	r2, [r3], #-1333	; 0x535
    14a4:	02818080 	addeq	r8, r1, #128	; 0x80
    14a8:	0000009f 	muleq	r0, pc, r0	; <UNPREDICTABLE>
    14ac:	00000000 	andeq	r0, r0, r0
    14b0:	0000fc00 	andeq	pc, r0, r0, lsl #24
    14b4:	00011400 	andeq	r1, r1, r0, lsl #8
    14b8:	54000100 	strpl	r0, [r0], #-256	; 0x100
	...
    14c4:	000000d0 	ldrdeq	r0, [r0], -r0	; <UNPREDICTABLE>
    14c8:	000000df 	ldrdeq	r0, [r0], -pc	; <UNPREDICTABLE>
    14cc:	df500001 	svcle	0x00500001
    14d0:	e4000000 	str	r0, [r0], #-0
    14d4:	04000000 	streq	r0, [r0], #-0
    14d8:	5001f300 	andpl	pc, r1, r0, lsl #6
    14dc:	0000e49f 	muleq	r0, pc, r4	; <UNPREDICTABLE>
    14e0:	0000e700 	andeq	lr, r0, r0, lsl #14
    14e4:	50000100 	andpl	r0, r0, r0, lsl #2
    14e8:	000000e7 	andeq	r0, r0, r7, ror #1
    14ec:	000000ec 	andeq	r0, r0, ip, ror #1
    14f0:	01f30004 	mvnseq	r0, r4
    14f4:	00009f50 	andeq	r9, r0, r0, asr pc
    14f8:	00000000 	andeq	r0, r0, r0
    14fc:	00d00000 	sbcseq	r0, r0, r0
    1500:	00df0000 	sbcseq	r0, pc, r0
    1504:	00010000 	andeq	r0, r1, r0
    1508:	0000df51 	andeq	sp, r0, r1, asr pc
    150c:	0000e400 	andeq	lr, r0, r0, lsl #8
    1510:	f3000400 	vshl.u8	d0, d0, d0
    1514:	e49f5101 	ldr	r5, [pc], #257	; 151c <__code_start__-0x6ae4>
    1518:	e7000000 	str	r0, [r0, -r0]
    151c:	01000000 	mrseq	r0, (UNDEF: 0)
    1520:	00e75100 	rsceq	r5, r7, r0, lsl #2
    1524:	00ec0000 	rsceq	r0, ip, r0
    1528:	00040000 	andeq	r0, r4, r0
    152c:	9f5101f3 	svcls	0x005101f3
	...
    1538:	000000c0 	andeq	r0, r0, r0, asr #1
    153c:	000000cb 	andeq	r0, r0, fp, asr #1
    1540:	cb500001 	blgt	140154c <__bss_end__+0x13f6934>
    1544:	d0000000 	andle	r0, r0, r0
    1548:	04000000 	streq	r0, [r0], #-0
    154c:	5001f300 	andpl	pc, r1, r0, lsl #6
    1550:	0000009f 	muleq	r0, pc, r0	; <UNPREDICTABLE>
    1554:	00000000 	andeq	r0, r0, r0
    1558:	00009c00 	andeq	r9, r0, r0, lsl #24
    155c:	0000b400 	andeq	fp, r0, r0, lsl #8
    1560:	50000100 	andpl	r0, r0, r0, lsl #2
    1564:	000000b4 	strheq	r0, [r0], -r4
    1568:	000000c0 	andeq	r0, r0, r0, asr #1
    156c:	01f30004 	mvnseq	r0, r4
    1570:	00009f50 	andeq	r9, r0, r0, asr pc
    1574:	00000000 	andeq	r0, r0, r0
    1578:	00780000 	rsbseq	r0, r8, r0
    157c:	00900000 	addseq	r0, r0, r0
    1580:	00010000 	andeq	r0, r1, r0
    1584:	00009050 	andeq	r9, r0, r0, asr r0
    1588:	00009c00 	andeq	r9, r0, r0, lsl #24
    158c:	f3000400 	vshl.u8	d0, d0, d0
    1590:	009f5001 	addseq	r5, pc, r1
    1594:	00000000 	andeq	r0, r0, r0
    1598:	68000000 	stmdavs	r0, {}	; <UNPREDICTABLE>
    159c:	73000000 	movwvc	r0, #0
    15a0:	01000000 	mrseq	r0, (UNDEF: 0)
    15a4:	00735000 	rsbseq	r5, r3, r0
    15a8:	00780000 	rsbseq	r0, r8, r0
    15ac:	00040000 	andeq	r0, r4, r0
    15b0:	9f5001f3 	svcls	0x005001f3
	...
    15c0:	00000048 	andeq	r0, r0, r8, asr #32
    15c4:	48500001 	ldmdami	r0, {r0}^
    15c8:	68000000 	stmdavs	r0, {}	; <UNPREDICTABLE>
    15cc:	04000000 	streq	r0, [r0], #-0
    15d0:	5001f300 	andpl	pc, r1, r0, lsl #6
    15d4:	0000009f 	muleq	r0, pc, r0	; <UNPREDICTABLE>
	...
    15e0:	00004b00 	andeq	r4, r0, r0, lsl #22
    15e4:	51000100 	mrspl	r0, (UNDEF: 16)
    15e8:	0000004b 	andeq	r0, r0, fp, asr #32
    15ec:	00000068 	andeq	r0, r0, r8, rrx
    15f0:	01f30004 	mvnseq	r0, r4
    15f4:	00009f51 	andeq	r9, r0, r1, asr pc
    15f8:	00000000 	andeq	r0, r0, r0
    15fc:	004c0000 	subeq	r0, ip, r0
    1600:	00540000 	subseq	r0, r4, r0
    1604:	00010000 	andeq	r0, r1, r0
    1608:	00005450 	andeq	r5, r0, r0, asr r4
    160c:	00005800 	andeq	r5, r0, r0, lsl #16
    1610:	75000900 	strvc	r0, [r0, #-2304]	; 0x900
    1614:	24007400 	strcs	r7, [r0], #-1024	; 0x400
    1618:	9f210071 	svcls	0x00210071
    161c:	00000058 	andeq	r0, r0, r8, asr r0
    1620:	0000005f 	andeq	r0, r0, pc, asr r0
    1624:	00510001 	subseq	r0, r1, r1
    1628:	00000000 	andeq	r0, r0, r0
    162c:	e0000000 	and	r0, r0, r0
    1630:	1b000000 	blne	1638 <__code_start__-0x69c8>
    1634:	01000001 	tsteq	r0, r1
    1638:	011b5000 	tsteq	fp, r0
    163c:	01200000 	teqeq	r0, r0
    1640:	00040000 	andeq	r0, r4, r0
    1644:	9f5001f3 	svcls	0x005001f3
    1648:	00000120 	andeq	r0, r0, r0, lsr #2
    164c:	00000123 	andeq	r0, r0, r3, lsr #2
    1650:	23500001 	cmpcs	r0, #1
    1654:	3c000001 	stccc	0, cr0, [r0], {1}
    1658:	04000001 	streq	r0, [r0], #-1
    165c:	5001f300 	andpl	pc, r1, r0, lsl #6
    1660:	00013c9f 	muleq	r1, pc, ip	; <UNPREDICTABLE>
    1664:	00013f00 	andeq	r3, r1, r0, lsl #30
    1668:	50000100 	andpl	r0, r0, r0, lsl #2
    166c:	0000013f 	andeq	r0, r0, pc, lsr r1
    1670:	0000016c 	andeq	r0, r0, ip, ror #2
    1674:	01f30004 	mvnseq	r0, r4
    1678:	00009f50 	andeq	r9, r0, r0, asr pc
    167c:	00000000 	andeq	r0, r0, r0
    1680:	00e00000 	rsceq	r0, r0, r0
    1684:	01080000 	mrseq	r0, (UNDEF: 8)
    1688:	00010000 	andeq	r0, r1, r0
    168c:	00010851 	andeq	r0, r1, r1, asr r8
    1690:	00011b00 	andeq	r1, r1, r0, lsl #22
    1694:	71000300 	mrsvc	r0, LR_irq
    1698:	011b9f01 	tsteq	fp, r1, lsl #30
    169c:	01200000 	teqeq	r0, r0
    16a0:	00040000 	andeq	r0, r4, r0
    16a4:	9f5101f3 	svcls	0x005101f3
    16a8:	00000120 	andeq	r0, r0, r0, lsr #2
    16ac:	00000123 	andeq	r0, r0, r3, lsr #2
    16b0:	23510001 	cmpcs	r1, #1
    16b4:	6c000001 	stcvs	0, cr0, [r0], {1}
    16b8:	04000001 	streq	r0, [r0], #-1
    16bc:	5101f300 	mrspl	pc, SP_irq	; <UNPREDICTABLE>
    16c0:	0000009f 	muleq	r0, pc, r0	; <UNPREDICTABLE>
    16c4:	00000000 	andeq	r0, r0, r0
    16c8:	0000f800 	andeq	pc, r0, r0, lsl #16
    16cc:	0000fc00 	andeq	pc, r0, r0, lsl #24
    16d0:	52000100 	andpl	r0, r0, #0, 2
    16d4:	000000fc 	strdeq	r0, [r0], -ip
    16d8:	00000104 	andeq	r0, r0, r4, lsl #2
    16dc:	e8030005 	stmda	r3, {r0, r2}
    16e0:	0400009c 	streq	r0, [r0], #-156	; 0x9c
    16e4:	1b000001 	blne	16f0 <__code_start__-0x6910>
    16e8:	01000001 	tsteq	r0, r1
    16ec:	013c5300 	teqeq	ip, r0, lsl #6
    16f0:	013f0000 	teqeq	pc, r0
    16f4:	00010000 	andeq	r0, r1, r0
    16f8:	00000053 	andeq	r0, r0, r3, asr r0
    16fc:	00000000 	andeq	r0, r0, r0
    1700:	00006c00 	andeq	r6, r0, r0, lsl #24
    1704:	00008000 	andeq	r8, r0, r0
    1708:	50000100 	andpl	r0, r0, r0, lsl #2
    170c:	00000080 	andeq	r0, r0, r0, lsl #1
    1710:	0000009b 	muleq	r0, fp, r0
    1714:	9b520001 	blls	1481720 <__bss_end__+0x1476b08>
    1718:	a4000000 	strge	r0, [r0], #-0
    171c:	09000000 	stmdbeq	r0, {}	; <UNPREDICTABLE>
    1720:	5001f300 	andpl	pc, r1, r0, lsl #6
    1724:	f8090723 			; <UNDEFINED> instruction: 0xf8090723
    1728:	00a49f1a 	adceq	r9, r4, sl, lsl pc
    172c:	00a70000 	adceq	r0, r7, r0
    1730:	00010000 	andeq	r0, r1, r0
    1734:	0000a750 	andeq	sl, r0, r0, asr r7
    1738:	0000d000 	andeq	sp, r0, r0
    173c:	f3000400 	vshl.u8	d0, d0, d0
    1740:	009f5001 	addseq	r5, pc, r1
    1744:	00000000 	andeq	r0, r0, r0
    1748:	88000000 	stmdahi	r0, {}	; <UNPREDICTABLE>
    174c:	a4000000 	strge	r0, [r0], #-0
    1750:	01000000 	mrseq	r0, (UNDEF: 0)
    1754:	00005400 	andeq	r5, r0, r0, lsl #8
    1758:	00000000 	andeq	r0, r0, r0
    175c:	001c0000 	andseq	r0, ip, r0
    1760:	00430000 	subeq	r0, r3, r0
    1764:	00010000 	andeq	r0, r1, r0
    1768:	00004350 	andeq	r4, r0, r0, asr r3
    176c:	00006c00 	andeq	r6, r0, r0, lsl #24
    1770:	f3000400 	vshl.u8	d0, d0, d0
    1774:	009f5001 	addseq	r5, pc, r1
    1778:	00000000 	andeq	r0, r0, r0
    177c:	1c000000 	stcne	0, cr0, [r0], {-0}
    1780:	43000000 	movwmi	r0, #0
    1784:	01000000 	mrseq	r0, (UNDEF: 0)
    1788:	00435000 	subeq	r5, r3, r0
    178c:	006c0000 	rsbeq	r0, ip, r0
    1790:	00040000 	andeq	r0, r4, r0
    1794:	9f5001f3 	svcls	0x005001f3
	...

Disassembly of section .debug_aranges:

00000000 <.debug_aranges>:
   0:	0000001c 	andeq	r0, r0, ip, lsl r0
   4:	00000002 	andeq	r0, r0, r2
   8:	00040000 	andeq	r0, r4, r0
   c:	00000000 	andeq	r0, r0, r0
  10:	00008010 	andeq	r8, r0, r0, lsl r0
  14:	00000130 	andeq	r0, r0, r0, lsr r1
	...
  20:	0000001c 	andeq	r0, r0, ip, lsl r0
  24:	03fb0002 	mvnseq	r0, #2
  28:	00040000 	andeq	r0, r4, r0
  2c:	00000000 	andeq	r0, r0, r0
  30:	00008140 	andeq	r8, r0, r0, asr #2
  34:	0000083c 	andeq	r0, r0, ip, lsr r8
	...
  40:	0000001c 	andeq	r0, r0, ip, lsl r0
  44:	14770002 	ldrbtne	r0, [r7], #-2
  48:	00040000 	andeq	r0, r4, r0
  4c:	00000000 	andeq	r0, r0, r0
  50:	0000897c 	andeq	r8, r0, ip, ror r9
  54:	0000068c 	andeq	r0, r0, ip, lsl #13
	...
  60:	0000001c 	andeq	r0, r0, ip, lsl r0
  64:	21e80002 	mvncs	r0, r2
  68:	00040000 	andeq	r0, r4, r0
  6c:	00000000 	andeq	r0, r0, r0
  70:	00009010 	andeq	r9, r0, r0, lsl r0
  74:	000000f0 	strdeq	r0, [r0], -r0	; <UNPREDICTABLE>
	...
  80:	0000001c 	andeq	r0, r0, ip, lsl r0
  84:	22fe0002 	rscscs	r0, lr, #2
  88:	00040000 	andeq	r0, r4, r0
  8c:	00000000 	andeq	r0, r0, r0
  90:	00009100 	andeq	r9, r0, r0, lsl #2
  94:	00000020 	andeq	r0, r0, r0, lsr #32
	...
  a0:	0000001c 	andeq	r0, r0, ip, lsl r0
  a4:	23dd0002 	bicscs	r0, sp, #2
  a8:	00040000 	andeq	r0, r4, r0
  ac:	00000000 	andeq	r0, r0, r0
  b0:	00009120 	andeq	r9, r0, r0, lsr #2
  b4:	00000058 	andeq	r0, r0, r8, asr r0
	...
  c0:	0000001c 	andeq	r0, r0, ip, lsl r0
  c4:	25720002 	ldrbcs	r0, [r2, #-2]!
  c8:	00040000 	andeq	r0, r4, r0
  cc:	00000000 	andeq	r0, r0, r0
  d0:	00009178 	andeq	r9, r0, r8, ror r1
  d4:	0000003c 	andeq	r0, r0, ip, lsr r0
	...
  e0:	0000001c 	andeq	r0, r0, ip, lsl r0
  e4:	26890002 	strcs	r0, [r9], r2
  e8:	00040000 	andeq	r0, r4, r0
  ec:	00000000 	andeq	r0, r0, r0
  f0:	000091b4 			; <UNDEFINED> instruction: 0x000091b4
  f4:	00000034 	andeq	r0, r0, r4, lsr r0
	...
 100:	0000001c 	andeq	r0, r0, ip, lsl r0
 104:	277b0002 	ldrbcs	r0, [fp, -r2]!
 108:	00040000 	andeq	r0, r4, r0
 10c:	00000000 	andeq	r0, r0, r0
 110:	000091e8 	andeq	r9, r0, r8, ror #3
 114:	0000050c 	andeq	r0, r0, ip, lsl #10
	...
 120:	0000001c 	andeq	r0, r0, ip, lsl r0
 124:	2e000002 	cdpcs	0, 0, cr0, cr0, cr2, {0}
 128:	00040000 	andeq	r0, r4, r0
 12c:	00000000 	andeq	r0, r0, r0
 130:	000096f4 	strdeq	r9, [r0], -r4
 134:	00000028 	andeq	r0, r0, r8, lsr #32
	...
 140:	0000001c 	andeq	r0, r0, ip, lsl r0
 144:	2f030002 	svccs	0x00030002
 148:	00040000 	andeq	r0, r4, r0
 14c:	00000000 	andeq	r0, r0, r0
 150:	0000971c 	andeq	r9, r0, ip, lsl r7
 154:	00000034 	andeq	r0, r0, r4, lsr r0
	...
 160:	0000001c 	andeq	r0, r0, ip, lsl r0
 164:	30060002 	andcc	r0, r6, r2
 168:	00040000 	andeq	r0, r4, r0
 16c:	00000000 	andeq	r0, r0, r0
 170:	00009750 	andeq	r9, r0, r0, asr r7
 174:	00000074 	andeq	r0, r0, r4, ror r0
	...
 180:	0000001c 	andeq	r0, r0, ip, lsl r0
 184:	31b70002 			; <UNDEFINED> instruction: 0x31b70002
 188:	00040000 	andeq	r0, r4, r0
 18c:	00000000 	andeq	r0, r0, r0
 190:	000097c4 	andeq	r9, r0, r4, asr #15
 194:	00000088 	andeq	r0, r0, r8, lsl #1
	...
 1a0:	0000001c 	andeq	r0, r0, ip, lsl r0
 1a4:	33930002 	orrscc	r0, r3, #2
 1a8:	00040000 	andeq	r0, r4, r0
 1ac:	00000000 	andeq	r0, r0, r0
 1b0:	00009898 	muleq	r0, r8, r8
 1b4:	00000178 	andeq	r0, r0, r8, ror r1
	...
 1c0:	0000001c 	andeq	r0, r0, ip, lsl r0
 1c4:	405c0002 	subsmi	r0, ip, r2
 1c8:	00040000 	andeq	r0, r4, r0
 1cc:	00000000 	andeq	r0, r0, r0
 1d0:	00009a10 	andeq	r9, r0, r0, lsl sl
 1d4:	00000120 	andeq	r0, r0, r0, lsr #2
	...
 1e0:	0000001c 	andeq	r0, r0, ip, lsl r0
 1e4:	4bd00002 	blmi	ff4001f4 <__bss_end__+0xff3f55dc>
 1e8:	00040000 	andeq	r0, r4, r0
 1ec:	00000000 	andeq	r0, r0, r0
 1f0:	00009b30 	andeq	r9, r0, r0, lsr fp
 1f4:	00000194 	muleq	r0, r4, r1
	...

Disassembly of section .debug_line:

00000000 <.debug_line>:
       0:	0000016f 	andeq	r0, r0, pc, ror #2
       4:	014c0002 	cmpeq	ip, r2
       8:	01020000 	mrseq	r0, (UNDEF: 2)
       c:	000d0efb 	strdeq	r0, [sp], -fp
      10:	01010101 	tsteq	r1, r1, lsl #2
      14:	01000000 	mrseq	r0, (UNDEF: 0)
      18:	74010000 	strvc	r0, [r1], #-0
      1c:	73747365 	cmnvc	r4, #-1811939327	; 0x94000001
      20:	73752f00 	cmnvc	r5, #0, 30
      24:	6f6c2f72 	svcvs	0x006c2f72
      28:	2f6c6163 	svccs	0x006c6163
      2c:	6c6c6543 	cfstr64vs	mvdx6, [ip], #-268	; 0xfffffef4
      30:	612f7261 	teqvs	pc, r1, ror #4
      34:	6e2d6d72 	mcrvs	13, 1, r6, cr13, cr2, {3}
      38:	2d656e6f 	stclcs	14, cr6, [r5, #-444]!	; 0xfffffe44
      3c:	69626165 	stmdbvs	r2!, {r0, r2, r5, r6, r8, sp, lr}^
      40:	382e342f 	stmdacc	lr!, {r0, r1, r2, r3, r5, sl, ip, sp}
      44:	632d332e 	teqvs	sp, #-1207959552	; 0xb8000000
      48:	30373173 	eorscc	r3, r7, r3, ror r1
      4c:	696c2f65 	stmdbvs	ip!, {r0, r2, r5, r6, r8, r9, sl, fp, sp}^
      50:	63672f62 	cmnvs	r7, #392	; 0x188
      54:	72612f63 	rsbvc	r2, r1, #396	; 0x18c
      58:	6f6e2d6d 	svcvs	0x006e2d6d
      5c:	652d656e 	strvs	r6, [sp, #-1390]!	; 0x56e
      60:	2f696261 	svccs	0x00696261
      64:	2e382e34 	mrccs	14, 1, r2, cr8, cr4, {1}
      68:	6e692f33 	mcrvs	15, 3, r2, cr9, cr3, {1}
      6c:	64756c63 	ldrbtvs	r6, [r5], #-3171	; 0xc63
      70:	002e0065 	eoreq	r0, lr, r5, rrx
      74:	6573552f 	ldrbvs	r5, [r3, #-1327]!	; 0x52f
      78:	622f7372 	eorvs	r7, pc, #-939524095	; 0xc8000001
      7c:	6e616972 	mcrvs	9, 3, r6, cr1, cr2, {3}
      80:	2f6e756a 	svccs	0x006e756a
      84:	6b736544 	blvs	1cd959c <__bss_end__+0x1cce984>
      88:	2f706f74 	svccs	0x00706f74
      8c:	6f686373 	svcvs	0x00686373
      90:	532f6c6f 	teqpl	pc, #28416	; 0x6f00
      94:	6e697270 	mcrvs	2, 3, r7, cr9, cr0, {3}
      98:	32393167 	eorscc	r3, r9, #-1073741799	; 0xc0000019
      9c:	53432f30 	movtpl	r2, #16176	; 0x3f30
      a0:	4c303432 	cfldrsmi	mvf3, [r0], #-200	; 0xffffff38
      a4:	73632f58 	cmnvc	r3, #88, 30	; 0x160
      a8:	6c303432 	cfldrsvs	mvf3, [r0], #-200	; 0xffffff38
      ac:	30322d78 	eorscc	r2, r2, r8, ror sp
      b0:	2f727073 	svccs	0x00727073
      b4:	7062696c 	rsbvc	r6, r2, ip, ror #18
      b8:	6e692f69 	cdpvs	15, 6, cr2, cr9, cr9, {3}
      bc:	64756c63 	ldrbtvs	r6, [r5], #-3171	; 0xc63
      c0:	752f0065 	strvc	r0, [pc, #-101]!	; 63 <__code_start__-0x7f9d>
      c4:	6c2f7273 	sfmvs	f7, 4, [pc], #-460	; ffffff00 <__bss_end__+0xffff52e8>
      c8:	6c61636f 	stclvs	3, cr6, [r1], #-444	; 0xfffffe44
      cc:	6c65432f 	stclvs	3, cr4, [r5], #-188	; 0xffffff44
      d0:	2f72616c 	svccs	0x0072616c
      d4:	2d6d7261 	sfmcs	f7, 2, [sp, #-388]!	; 0xfffffe7c
      d8:	656e6f6e 	strbvs	r6, [lr, #-3950]!	; 0xf6e
      dc:	6261652d 	rsbvs	r6, r1, #188743680	; 0xb400000
      e0:	2e342f69 	cdpcs	15, 3, cr2, cr4, cr9, {3}
      e4:	2d332e38 	ldccs	14, cr2, [r3, #-224]!	; 0xffffff20
      e8:	37317363 	ldrcc	r7, [r1, -r3, ror #6]!
      ec:	612f6530 	teqvs	pc, r0, lsr r5	; <UNPREDICTABLE>
      f0:	6e2d6d72 	mcrvs	13, 1, r6, cr13, cr2, {3}
      f4:	2d656e6f 	stclcs	14, cr6, [r5, #-444]!	; 0xfffffe44
      f8:	69626165 	stmdbvs	r2!, {r0, r2, r5, r6, r8, sp, lr}^
      fc:	636e692f 	cmnvs	lr, #770048	; 0xbc000
     100:	6564756c 	strbvs	r7, [r4, #-1388]!	; 0x56c
     104:	61700000 	cmnvs	r0, r0
     108:	2d327472 	cfldrscs	mvf7, [r2, #-456]!	; 0xfffffe38
     10c:	74736574 	ldrbtvc	r6, [r3], #-1396	; 0x574
     110:	00632e31 	rsbeq	r2, r3, r1, lsr lr
     114:	73000001 	movwvc	r0, #1
     118:	65646474 	strbvs	r6, [r4, #-1140]!	; 0x474
     11c:	00682e66 	rsbeq	r2, r8, r6, ror #28
     120:	73000002 	movwvc	r0, #2
     124:	6e696474 	mcrvs	4, 3, r6, cr9, cr4, {3}
     128:	63672d74 	cmnvs	r7, #116, 26	; 0x1d00
     12c:	00682e63 	rsbeq	r2, r8, r3, ror #28
     130:	63000002 	movwvs	r0, #2
     134:	6c6c616b 	stfvse	f6, [ip], #-428	; 0xfffffe54
     138:	682e636f 	stmdavs	lr!, {r0, r1, r2, r3, r5, r6, r8, r9, sp, lr}
     13c:	00000300 	andeq	r0, r0, r0, lsl #6
     140:	2e697072 	mcrcs	0, 3, r7, cr9, cr2, {3}
     144:	00040068 	andeq	r0, r4, r8, rrx
     148:	72747300 	rsbsvc	r7, r4, #0, 6
     14c:	2e676e69 	cdpcs	14, 6, cr6, cr7, cr9, {3}
     150:	00050068 	andeq	r0, r5, r8, rrx
     154:	05000000 	streq	r0, [r0, #-0]
     158:	00801002 	addeq	r1, r0, r2
     15c:	f32f1900 	vmls.i32	d1, d15, d0
     160:	3f08839f 	svccc	0x0008839f
     164:	864c4d2f 	strbhi	r4, [ip], -pc, lsr #26
     168:	84d86730 	ldrbhi	r6, [r8], #1840	; 0x730
     16c:	1a02d883 	bne	b6380 <__bss_end__+0xab768>
     170:	e4010100 	str	r0, [r1], #-256	; 0x100
     174:	02000002 	andeq	r0, r0, #2
     178:	0001a400 	andeq	sl, r1, r0, lsl #8
     17c:	fb010200 	blx	40986 <__bss_end__+0x35d6e>
     180:	01000d0e 	tsteq	r0, lr, lsl #26
     184:	00010101 	andeq	r0, r1, r1, lsl #2
     188:	00010000 	andeq	r0, r1, r0
     18c:	752f0100 	strvc	r0, [pc, #-256]!	; 94 <__code_start__-0x7f6c>
     190:	6c2f7273 	sfmvs	f7, 4, [pc], #-460	; ffffffcc <__bss_end__+0xffff53b4>
     194:	6c61636f 	stclvs	3, cr6, [r1], #-444	; 0xfffffe44
     198:	6c65432f 	stclvs	3, cr4, [r5], #-188	; 0xffffff44
     19c:	2f72616c 	svccs	0x0072616c
     1a0:	2d6d7261 	sfmcs	f7, 2, [sp, #-388]!	; 0xfffffe7c
     1a4:	656e6f6e 	strbvs	r6, [lr, #-3950]!	; 0xf6e
     1a8:	6261652d 	rsbvs	r6, r1, #188743680	; 0xb400000
     1ac:	2e342f69 	cdpcs	15, 3, cr2, cr4, cr9, {3}
     1b0:	2d332e38 	ldccs	14, cr2, [r3, #-224]!	; 0xffffff20
     1b4:	37317363 	ldrcc	r7, [r1, -r3, ror #6]!
     1b8:	6c2f6530 	cfstr32vs	mvfx6, [pc], #-192	; 100 <__code_start__-0x7f00>
     1bc:	672f6269 	strvs	r6, [pc, -r9, ror #4]!
     1c0:	612f6363 	teqvs	pc, r3, ror #6
     1c4:	6e2d6d72 	mcrvs	13, 1, r6, cr13, cr2, {3}
     1c8:	2d656e6f 	stclcs	14, cr6, [r5, #-444]!	; 0xfffffe44
     1cc:	69626165 	stmdbvs	r2!, {r0, r2, r5, r6, r8, sp, lr}^
     1d0:	382e342f 	stmdacc	lr!, {r0, r1, r2, r3, r5, sl, ip, sp}
     1d4:	692f332e 	stmdbvs	pc!, {r1, r2, r3, r5, r8, r9, ip, sp}	; <UNPREDICTABLE>
     1d8:	756c636e 	strbvc	r6, [ip, #-878]!	; 0x36e
     1dc:	2f006564 	svccs	0x00006564
     1e0:	72657355 	rsbvc	r7, r5, #1409286145	; 0x54000001
     1e4:	72622f73 	rsbvc	r2, r2, #460	; 0x1cc
     1e8:	6a6e6169 	bvs	1b98794 <__bss_end__+0x1b8db7c>
     1ec:	442f6e75 	strtmi	r6, [pc], #-3701	; 1f4 <__code_start__-0x7e0c>
     1f0:	746b7365 	strbtvc	r7, [fp], #-869	; 0x365
     1f4:	732f706f 	teqvc	pc, #111	; 0x6f
     1f8:	6f6f6863 	svcvs	0x006f6863
     1fc:	70532f6c 	subsvc	r2, r3, ip, ror #30
     200:	676e6972 			; <UNDEFINED> instruction: 0x676e6972
     204:	30323931 	eorscc	r3, r2, r1, lsr r9
     208:	3253432f 	subscc	r4, r3, #-1140850688	; 0xbc000000
     20c:	584c3034 	stmdapl	ip, {r2, r4, r5, ip, sp}^
     210:	3273632f 	rsbscc	r6, r3, #-1140850688	; 0xbc000000
     214:	786c3034 	stmdavc	ip!, {r2, r4, r5, ip, sp}^
     218:	7330322d 	teqvc	r0, #-805306366	; 0xd0000002
     21c:	6c2f7270 	sfmvs	f7, 4, [pc], #-448	; 64 <__code_start__-0x7f9c>
     220:	69706269 	ldmdbvs	r0!, {r0, r3, r5, r6, r9, sp, lr}^
     224:	636e692f 	cmnvs	lr, #770048	; 0xbc000
     228:	6564756c 	strbvs	r7, [r4, #-1388]!	; 0x56c
     22c:	73752f00 	cmnvc	r5, #0, 30
     230:	6f6c2f72 	svcvs	0x006c2f72
     234:	2f6c6163 	svccs	0x006c6163
     238:	6c6c6543 	cfstr64vs	mvdx6, [ip], #-268	; 0xfffffef4
     23c:	612f7261 	teqvs	pc, r1, ror #4
     240:	6e2d6d72 	mcrvs	13, 1, r6, cr13, cr2, {3}
     244:	2d656e6f 	stclcs	14, cr6, [r5, #-444]!	; 0xfffffe44
     248:	69626165 	stmdbvs	r2!, {r0, r2, r5, r6, r8, sp, lr}^
     24c:	382e342f 	stmdacc	lr!, {r0, r1, r2, r3, r5, sl, ip, sp}
     250:	632d332e 	teqvs	sp, #-1207959552	; 0xb8000000
     254:	30373173 	eorscc	r3, r7, r3, ror r1
     258:	72612f65 	rsbvc	r2, r1, #404	; 0x194
     25c:	6f6e2d6d 	svcvs	0x006e2d6d
     260:	652d656e 	strvs	r6, [sp, #-1390]!	; 0x56e
     264:	2f696261 	svccs	0x00696261
     268:	6c636e69 	stclvs	14, cr6, [r3], #-420	; 0xfffffe5c
     26c:	00656475 	rsbeq	r6, r5, r5, ror r4
     270:	6573552f 	ldrbvs	r5, [r3, #-1327]!	; 0x52f
     274:	622f7372 	eorvs	r7, pc, #-939524095	; 0xc8000001
     278:	6e616972 	mcrvs	9, 3, r6, cr1, cr2, {3}
     27c:	2f6e756a 	svccs	0x006e756a
     280:	6b736544 	blvs	1cd9798 <__bss_end__+0x1cceb80>
     284:	2f706f74 	svccs	0x00706f74
     288:	6f686373 	svcvs	0x00686373
     28c:	532f6c6f 	teqpl	pc, #28416	; 0x6f00
     290:	6e697270 	mcrvs	2, 3, r7, cr9, cr0, {3}
     294:	32393167 	eorscc	r3, r9, #-1073741799	; 0xc0000019
     298:	53432f30 	movtpl	r2, #16176	; 0x3f30
     29c:	4c303432 	cfldrsmi	mvf3, [r0], #-200	; 0xffffff38
     2a0:	73632f58 	cmnvc	r3, #88, 30	; 0x160
     2a4:	6c303432 	cfldrsvs	mvf3, [r0], #-200	; 0xffffff38
     2a8:	30322d78 	eorscc	r2, r2, r8, ror sp
     2ac:	2f727073 	svccs	0x00727073
     2b0:	7062696c 	rsbvc	r6, r2, ip, ror #18
     2b4:	696c2f69 	stmdbvs	ip!, {r0, r3, r5, r6, r8, r9, sl, fp, sp}^
     2b8:	00006362 	andeq	r6, r0, r2, ror #6
     2bc:	6c616b63 	stclvs	11, cr6, [r1], #-396	; 0xfffffe74
     2c0:	2e636f6c 	cdpcs	15, 6, cr6, cr3, cr12, {3}
     2c4:	00000063 	andeq	r0, r0, r3, rrx
     2c8:	616b6300 	cmnvs	fp, r0, lsl #6
     2cc:	636f6c6c 	cmnvs	pc, #108, 24	; 0x6c00
     2d0:	746e692d 	strbtvc	r6, [lr], #-2349	; 0x92d
     2d4:	616e7265 	cmnvs	lr, r5, ror #4
     2d8:	00682e6c 	rsbeq	r2, r8, ip, ror #28
     2dc:	73000000 	movwvc	r0, #0
     2e0:	65646474 	strbvs	r6, [r4, #-1140]!	; 0x474
     2e4:	00682e66 	rsbeq	r2, r8, r6, ror #28
     2e8:	73000001 	movwvc	r0, #1
     2ec:	6e696474 	mcrvs	4, 3, r6, cr9, cr4, {3}
     2f0:	63672d74 	cmnvs	r7, #116, 26	; 0x1d00
     2f4:	00682e63 	rsbeq	r2, r8, r3, ror #28
     2f8:	72000001 	andvc	r0, r0, #1
     2fc:	682e6970 	stmdavs	lr!, {r4, r5, r6, r8, fp, sp, lr}
     300:	00000200 	andeq	r0, r0, r0, lsl #4
     304:	69727473 	ldmdbvs	r2!, {r0, r1, r4, r5, r6, sl, ip, sp, lr}^
     308:	682e676e 	stmdavs	lr!, {r1, r2, r3, r5, r6, r8, r9, sl, sp, lr}
     30c:	00000300 	andeq	r0, r0, r0, lsl #6
     310:	6362696c 	cmnvs	r2, #108, 18	; 0x1b0000
     314:	7478652d 	ldrbtvc	r6, [r8], #-1325	; 0x52d
     318:	682e6172 	stmdavs	lr!, {r1, r4, r5, r6, r8, sp, lr}
     31c:	00000400 	andeq	r0, r0, r0, lsl #8
     320:	02050000 	andeq	r0, r5, #0
     324:	00008140 	andeq	r8, r0, r0, asr #2
     328:	4c013303 	stcmi	3, cr3, [r1], {3}
     32c:	2f2f834b 	svccs	0x002f834b
     330:	ca030204 	bgt	c0b48 <__bss_end__+0xb5f30>
     334:	a0200800 	eorge	r0, r0, r0, lsl #16
     338:	04bbd967 	ldrteq	sp, [fp], #2407	; 0x967
     33c:	7fb00301 	svcvc	0x00b00301
     340:	7a0367d6 	bvc	da2a0 <__bss_end__+0xcf688>
     344:	0402004a 	streq	r0, [r2], #-74	; 0x4a
     348:	062e0601 	strteq	r0, [lr], -r1, lsl #12
     34c:	2f4a0903 	svccs	0x004a0903
     350:	56034bf4 			; <UNDEFINED> instruction: 0x56034bf4
     354:	2f2f4b66 	svccs	0x002f4b66
     358:	2f4b2f2f 	svccs	0x004b2f2f
     35c:	2f4b2f2f 	svccs	0x004b2f2f
     360:	31302f2f 	teqcc	r0, pc, lsr #30
     364:	0200314b 	andeq	r3, r0, #-1073741806	; 0xc0000012
     368:	66060104 	strvs	r0, [r6], -r4, lsl #2
     36c:	0200d706 	andeq	sp, r0, #1572864	; 0x180000
     370:	82060104 	andhi	r0, r6, #4, 2
     374:	1a03d806 	bne	f6394 <__bss_end__+0xeb77c>
     378:	49304cba 	ldmdbmi	r0!, {r1, r3, r4, r5, r7, sl, fp, lr}
     37c:	0c030204 	sfmeq	f0, 4, [r3], {4}
     380:	01044cba 			; <UNDEFINED> instruction: 0x01044cba
     384:	082e7303 	stmdaeq	lr!, {r0, r1, r8, r9, ip, sp, lr}
     388:	7fbb0391 	svcvc	0x00bb0391
     38c:	0200672e 	andeq	r6, r0, #12058624	; 0xb80000
     390:	82060104 	andhi	r0, r6, #4, 2
     394:	6783d706 	strvs	sp, [r3, r6, lsl #14]
     398:	4b2f2f4b 	blmi	bcc0cc <__bss_end__+0xbc14b4>
     39c:	d600c403 	strle	ip, [r0], -r3, lsl #8
     3a0:	040200a0 	streq	r0, [r2], #-160	; 0xa0
     3a4:	06820601 	streq	r0, [r2], r1, lsl #12
     3a8:	8530a0d7 	ldrhi	sl, [r0, #-215]!	; 0xd7
     3ac:	2f684c6a 	svccs	0x00684c6a
     3b0:	08a0302f 	stmiaeq	r0!, {r0, r1, r2, r3, r5, ip, sp}
     3b4:	0200be40 	andeq	fp, r0, #64, 28	; 0x400
     3b8:	82060104 	andhi	r0, r6, #4, 2
     3bc:	4ba0d706 	blmi	fe835fdc <__bss_end__+0xfe82b3c4>
     3c0:	92084b31 	andls	r4, r8, #50176	; 0xc400
     3c4:	162a02bb 			; <UNDEFINED> instruction: 0x162a02bb
     3c8:	4c4b2f4c 	mcrrmi	15, 4, r2, fp, cr12
     3cc:	2f2f3067 	svccs	0x002f3067
     3d0:	02046830 	andeq	r6, r4, #48, 16	; 0x300000
     3d4:	4c664503 	cfstr64mi	mvdx4, [r6], #-12
     3d8:	3a030104 	bcc	c07f0 <__bss_end__+0xb5bd8>
     3dc:	02006a2e 	andeq	r6, r0, #188416	; 0x2e000
     3e0:	82060104 	andhi	r0, r6, #4, 2
     3e4:	0200d706 	andeq	sp, r0, #1572864	; 0x180000
     3e8:	82060104 	andhi	r0, r6, #4, 2
     3ec:	02d8d706 	sbcseq	sp, r8, #1572864	; 0x180000
     3f0:	832f1722 	teqhi	pc, #8912896	; 0x880000
     3f4:	2d2cbf4c 	stccs	15, cr11, [ip, #-304]!	; 0xfffffed0
     3f8:	2e0c0332 	mcrcs	3, 0, r0, cr12, cr2, {1}
     3fc:	2f4a7403 	svccs	0x004a7403
     400:	01040200 	mrseq	r0, R12_usr
     404:	d8064a06 	stmdale	r6, {r1, r2, r9, fp, lr}
     408:	302f8383 	eorcc	r8, pc, r3, lsl #7
     40c:	01040200 	mrseq	r0, R12_usr
     410:	30066606 	andcc	r6, r6, r6, lsl #12
     414:	3283bb67 	addcc	fp, r3, #105472	; 0x19c00
     418:	0402009f 	streq	r0, [r2], #-159	; 0x9f
     41c:	2e6e0301 	cdpcs	3, 6, cr0, cr14, cr1, {0}
     420:	4b661603 	blmi	1985c34 <__bss_end__+0x197b01c>
     424:	7908a0d8 	stmdbvc	r8, {r3, r4, r6, r7, sp, pc}
     428:	02004d2f 	andeq	r4, r0, #3008	; 0xbc0
     42c:	82060104 	andhi	r0, r6, #4, 2
     430:	04bdd806 	ldrteq	sp, [sp], #2054	; 0x806
     434:	7f8d0302 	svcvc	0x008d0302
     438:	0301042e 	movweq	r0, #5166	; 0x142e
     43c:	348200f4 	strcc	r0, [r2], #244	; 0xf4
     440:	04020085 	streq	r0, [r2], #-133	; 0x85
     444:	062e0601 	strteq	r0, [lr], -r1, lsl #12
     448:	040200d7 	streq	r0, [r2], #-215	; 0xd7
     44c:	06820601 	streq	r0, [r2], r1, lsl #12
     450:	bc2f4ed3 	stclt	14, cr4, [pc], #-844	; 10c <__code_start__-0x7ef4>
     454:	0602672f 	streq	r6, [r2], -pc, lsr #14
     458:	1b010100 	blne	40860 <__bss_end__+0x35c48>
     45c:	02000002 	andeq	r0, r0, #2
     460:	0000f900 	andeq	pc, r0, r0, lsl #18
     464:	fb010200 	blx	40c6e <__bss_end__+0x36056>
     468:	01000d0e 	tsteq	r0, lr, lsl #26
     46c:	00010101 	andeq	r0, r1, r1, lsl #2
     470:	00010000 	andeq	r0, r1, r0
     474:	752f0100 	strvc	r0, [pc, #-256]!	; 37c <__code_start__-0x7c84>
     478:	6c2f7273 	sfmvs	f7, 4, [pc], #-460	; 2b4 <__code_start__-0x7d4c>
     47c:	6c61636f 	stclvs	3, cr6, [r1], #-444	; 0xfffffe44
     480:	6c65432f 	stclvs	3, cr4, [r5], #-188	; 0xffffff44
     484:	2f72616c 	svccs	0x0072616c
     488:	2d6d7261 	sfmcs	f7, 2, [sp, #-388]!	; 0xfffffe7c
     48c:	656e6f6e 	strbvs	r6, [lr, #-3950]!	; 0xf6e
     490:	6261652d 	rsbvs	r6, r1, #188743680	; 0xb400000
     494:	2e342f69 	cdpcs	15, 3, cr2, cr4, cr9, {3}
     498:	2d332e38 	ldccs	14, cr2, [r3, #-224]!	; 0xffffff20
     49c:	37317363 	ldrcc	r7, [r1, -r3, ror #6]!
     4a0:	6c2f6530 	cfstr32vs	mvfx6, [pc], #-192	; 3e8 <__code_start__-0x7c18>
     4a4:	672f6269 	strvs	r6, [pc, -r9, ror #4]!
     4a8:	612f6363 	teqvs	pc, r3, ror #6
     4ac:	6e2d6d72 	mcrvs	13, 1, r6, cr13, cr2, {3}
     4b0:	2d656e6f 	stclcs	14, cr6, [r5, #-444]!	; 0xfffffe44
     4b4:	69626165 	stmdbvs	r2!, {r0, r2, r5, r6, r8, sp, lr}^
     4b8:	382e342f 	stmdacc	lr!, {r0, r1, r2, r3, r5, sl, ip, sp}
     4bc:	692f332e 	stmdbvs	pc!, {r1, r2, r3, r5, r8, r9, ip, sp}	; <UNPREDICTABLE>
     4c0:	756c636e 	strbvc	r6, [ip, #-878]!	; 0x36e
     4c4:	2f006564 	svccs	0x00006564
     4c8:	72657355 	rsbvc	r7, r5, #1409286145	; 0x54000001
     4cc:	72622f73 	rsbvc	r2, r2, #460	; 0x1cc
     4d0:	6a6e6169 	bvs	1b98a7c <__bss_end__+0x1b8de64>
     4d4:	442f6e75 	strtmi	r6, [pc], #-3701	; 4dc <__code_start__-0x7b24>
     4d8:	746b7365 	strbtvc	r7, [fp], #-869	; 0x365
     4dc:	732f706f 	teqvc	pc, #111	; 0x6f
     4e0:	6f6f6863 	svcvs	0x006f6863
     4e4:	70532f6c 	subsvc	r2, r3, ip, ror #30
     4e8:	676e6972 			; <UNDEFINED> instruction: 0x676e6972
     4ec:	30323931 	eorscc	r3, r2, r1, lsr r9
     4f0:	3253432f 	subscc	r4, r3, #-1140850688	; 0xbc000000
     4f4:	584c3034 	stmdapl	ip, {r2, r4, r5, ip, sp}^
     4f8:	3273632f 	rsbscc	r6, r3, #-1140850688	; 0xbc000000
     4fc:	786c3034 	stmdavc	ip!, {r2, r4, r5, ip, sp}^
     500:	7330322d 	teqvc	r0, #-805306366	; 0xd0000002
     504:	6c2f7270 	sfmvs	f7, 4, [pc], #-448	; 34c <__code_start__-0x7cb4>
     508:	69706269 	ldmdbvs	r0!, {r0, r3, r5, r6, r9, sp, lr}^
     50c:	636e692f 	cmnvs	lr, #770048	; 0xbc000
     510:	6564756c 	strbvs	r7, [r4, #-1388]!	; 0x56c
     514:	6b630000 	blvs	18c051c <__bss_end__+0x18b5904>
     518:	2e63672d 	cdpcs	7, 6, cr6, cr3, cr13, {1}
     51c:	00000063 	andeq	r0, r0, r3, rrx
     520:	64747300 	ldrbtvs	r7, [r4], #-768	; 0x300
     524:	2d746e69 	ldclcs	14, cr6, [r4, #-420]!	; 0xfffffe5c
     528:	2e636367 	cdpcs	3, 6, cr6, cr3, cr7, {3}
     52c:	00010068 	andeq	r0, r1, r8, rrx
     530:	616b6300 	cmnvs	fp, r0, lsl #6
     534:	636f6c6c 	cmnvs	pc, #108, 24	; 0x6c00
     538:	746e692d 	strbtvc	r6, [lr], #-2349	; 0x92d
     53c:	616e7265 	cmnvs	lr, r5, ror #4
     540:	00682e6c 	rsbeq	r2, r8, ip, ror #28
     544:	72000000 	andvc	r0, r0, #0
     548:	682e6970 	stmdavs	lr!, {r4, r5, r6, r8, fp, sp, lr}
     54c:	00000200 	andeq	r0, r0, r0, lsl #4
     550:	6c616b63 	stclvs	11, cr6, [r1], #-396	; 0xfffffe74
     554:	2e636f6c 	cdpcs	15, 6, cr6, cr3, cr12, {3}
     558:	00000068 	andeq	r0, r0, r8, rrx
     55c:	05000000 	streq	r0, [r0, #-0]
     560:	00897c02 	addeq	r7, r9, r2, lsl #24
     564:	011b0300 	tsteq	fp, r0, lsl #6
     568:	04020013 	streq	r0, [r2], #-19
     56c:	82820601 	addhi	r0, r2, #1048576	; 0x100000
     570:	15039f06 	strne	r9, [r3, #-3846]	; 0xf06
     574:	2f694d4a 	svccs	0x00694d4a
     578:	31686730 	cmncc	r8, r0, lsr r7
     57c:	684c494b 	stmdavs	ip, {r0, r1, r3, r6, r8, fp, lr}^
     580:	04020030 	streq	r0, [r2], #-48	; 0x30
     584:	2e720301 	cdpcs	3, 7, cr0, cr2, cr1, {0}
     588:	2e160363 	cdpcs	3, 1, cr0, cr6, cr3, {3}
     58c:	4c2e3103 	stfmis	f3, [lr], #-12
     590:	03464c4b 	movteq	r4, #27723	; 0x6c4b
     594:	2930660b 	ldmdbcs	r0!, {r0, r1, r3, r9, sl, sp, lr}
     598:	67672f2b 	strbvs	r2, [r7, -fp, lsr #30]!
     59c:	002f4c9f 	mlaeq	pc, pc, ip, r4	; <UNPREDICTABLE>
     5a0:	06010402 	streq	r0, [r1], -r2, lsl #8
     5a4:	a067064a 	rsbge	r0, r7, sl, asr #12
     5a8:	02002f32 	andeq	r2, r0, #50, 30	; 0xc8
     5ac:	71030104 	tstvc	r3, r4, lsl #2
     5b0:	4a120366 	bmi	481350 <__bss_end__+0x476738>
     5b4:	bca04b9f 	fstmiaxlt	r0!, {d4-d82}	;@ Deprecated
     5b8:	7fbc034c 	svcvc	0x00bc034c
     5bc:	00675808 	rsbeq	r5, r7, r8, lsl #16
     5c0:	06010402 	streq	r0, [r1], -r2, lsl #8
     5c4:	00d8064a 	sbcseq	r0, r8, sl, asr #12
     5c8:	06010402 	streq	r0, [r1], -r2, lsl #8
     5cc:	00d7064a 	sbcseq	r0, r7, sl, asr #12
     5d0:	06010402 	streq	r0, [r1], -r2, lsl #8
     5d4:	84dc064a 	ldrbhi	r0, [ip], #1610	; 0x64a
     5d8:	69686968 	stmdbvs	r8!, {r3, r5, r6, r8, fp, sp, lr}^
     5dc:	02008531 	andeq	r8, r0, #205520896	; 0xc400000
     5e0:	7a030104 	bvc	c09f8 <__bss_end__+0xb5de0>
     5e4:	0402004a 	streq	r0, [r2], #-74	; 0x4a
     5e8:	2e730301 	cdpcs	3, 7, cr0, cr3, cr1, {0}
     5ec:	034a1503 	movteq	r1, #42243	; 0xa503
     5f0:	4dba00d2 	ldcmi	0, cr0, [sl, #840]!	; 0x348
     5f4:	02002d2f 	andeq	r2, r0, #3008	; 0xbc0
     5f8:	002f0204 	eoreq	r0, pc, r4, lsl #4
     5fc:	65020402 	strvs	r0, [r2, #-1026]	; 0x402
     600:	01040200 	mrseq	r0, R12_usr
     604:	50062e06 	andpl	r2, r6, r6, lsl #28
     608:	660a0367 	strvs	r0, [sl], -r7, ror #6
     60c:	04020067 	streq	r0, [r2], #-103	; 0x67
     610:	00660601 	rsbeq	r0, r6, r1, lsl #12
     614:	06020402 	streq	r0, [r2], -r2, lsl #8
     618:	040200d9 	streq	r0, [r2], #-217	; 0xd9
     61c:	00676502 	rsbeq	r6, r7, r2, lsl #10
     620:	2d010402 	cfstrscs	mvf0, [r1, #-8]
     624:	696a6c50 	stmdbvs	sl!, {r4, r6, sl, fp, sp, lr}^
     628:	08380367 	ldmdaeq	r8!, {r0, r1, r2, r5, r6, r8, r9}
     62c:	4c4b4c3c 	mcrrmi	12, 3, r4, fp, cr12
     630:	660b0346 	strvs	r0, [fp], -r6, asr #6
     634:	2e79034b 	cdpcs	3, 7, cr0, cr9, cr11, {2}
     638:	6767672f 	strbvs	r6, [r7, -pc, lsr #14]!
     63c:	2fa19f30 	svccs	0x00a19f30
     640:	01040200 	mrseq	r0, R12_usr
     644:	03667503 	cmneq	r6, #12582912	; 0xc00000
     648:	4bf44a13 	blmi	ffd12e9c <__bss_end__+0xffd08284>
     64c:	b0034cbc 			; <UNDEFINED> instruction: 0xb0034cbc
     650:	4b90087f 	blmi	fe402854 <__bss_end__+0xfe3f7c3c>
     654:	32314b2f 	eorscc	r4, r1, #48128	; 0xbc00
     658:	83d86713 	bicshi	r6, r8, #4980736	; 0x4c0000
     65c:	0883d883 	stmeq	r3, {r0, r1, r7, fp, ip, lr, pc}
     660:	67133240 	ldrvs	r3, [r3, -r0, asr #4]
     664:	4b4b84d8 	blmi	12e19cc <__bss_end__+0x12d6db4>
     668:	08149fd8 	ldmdaeq	r4, {r3, r4, r6, r7, r8, r9, sl, fp, ip, pc}
     66c:	27032f3e 	smladxcs	r3, lr, pc, r2	; <UNPREDICTABLE>
     670:	2f2f3c08 	svccs	0x002f3c08
     674:	00020233 	andeq	r0, r2, r3, lsr r2
     678:	00de0101 	sbcseq	r0, lr, r1, lsl #2
     67c:	00020000 	andeq	r0, r2, r0
     680:	00000083 	andeq	r0, r0, r3, lsl #1
     684:	0efb0102 	cdpeq	1, 15, cr0, cr11, cr2, {0}
     688:	0101000d 	tsteq	r1, sp
     68c:	00000101 	andeq	r0, r0, r1, lsl #2
     690:	00000100 	andeq	r0, r0, r0, lsl #2
     694:	62696c01 	rsbvs	r6, r9, #256	; 0x100
     698:	752f0063 	strvc	r0, [pc, #-99]!	; 63d <__code_start__-0x79c3>
     69c:	6c2f7273 	sfmvs	f7, 4, [pc], #-460	; 4d8 <__code_start__-0x7b28>
     6a0:	6c61636f 	stclvs	3, cr6, [r1], #-444	; 0xfffffe44
     6a4:	6c65432f 	stclvs	3, cr4, [r5], #-188	; 0xffffff44
     6a8:	2f72616c 	svccs	0x0072616c
     6ac:	2d6d7261 	sfmcs	f7, 2, [sp, #-388]!	; 0xfffffe7c
     6b0:	656e6f6e 	strbvs	r6, [lr, #-3950]!	; 0xf6e
     6b4:	6261652d 	rsbvs	r6, r1, #188743680	; 0xb400000
     6b8:	2e342f69 	cdpcs	15, 3, cr2, cr4, cr9, {3}
     6bc:	2d332e38 	ldccs	14, cr2, [r3, #-224]!	; 0xffffff20
     6c0:	37317363 	ldrcc	r7, [r1, -r3, ror #6]!
     6c4:	6c2f6530 	cfstr32vs	mvfx6, [pc], #-192	; 60c <__code_start__-0x79f4>
     6c8:	672f6269 	strvs	r6, [pc, -r9, ror #4]!
     6cc:	612f6363 	teqvs	pc, r3, ror #6
     6d0:	6e2d6d72 	mcrvs	13, 1, r6, cr13, cr2, {3}
     6d4:	2d656e6f 	stclcs	14, cr6, [r5, #-444]!	; 0xfffffe44
     6d8:	69626165 	stmdbvs	r2!, {r0, r2, r5, r6, r8, sp, lr}^
     6dc:	382e342f 	stmdacc	lr!, {r0, r1, r2, r3, r5, sl, ip, sp}
     6e0:	692f332e 	stmdbvs	pc!, {r1, r2, r3, r5, r8, r9, ip, sp}	; <UNPREDICTABLE>
     6e4:	756c636e 	strbvc	r6, [ip, #-878]!	; 0x36e
     6e8:	00006564 	andeq	r6, r0, r4, ror #10
     6ec:	68736168 	ldmdavs	r3!, {r3, r5, r6, r8, sp, lr}^
     6f0:	0100632e 	tsteq	r0, lr, lsr #6
     6f4:	74730000 	ldrbtvc	r0, [r3], #-0
     6f8:	746e6964 	strbtvc	r6, [lr], #-2404	; 0x964
     6fc:	6363672d 	cmnvs	r3, #11796480	; 0xb40000
     700:	0200682e 	andeq	r6, r0, #3014656	; 0x2e0000
     704:	00000000 	andeq	r0, r0, r0
     708:	90100205 	andsls	r0, r0, r5, lsl #4
     70c:	0e030000 	cdpeq	0, 0, cr0, cr3, cr0, {0}
     710:	84313001 	ldrthi	r3, [r1], #-1
     714:	0200312f 	andeq	r3, r0, #-1073741813	; 0xc000000b
     718:	002f0204 	eoreq	r0, pc, r4, lsl #4
     71c:	83020402 	movwhi	r0, #9218	; 0x2402
     720:	02040200 	andeq	r0, r4, #0, 4
     724:	04020083 	streq	r0, [r2], #-131	; 0x83
     728:	02002f02 	andeq	r2, r0, #2, 30
     72c:	002f0204 	eoreq	r0, pc, r4, lsl #4
     730:	29020402 	stmdbcs	r2, {r1, sl}
     734:	01040200 	mrseq	r0, R12_usr
     738:	03062e06 	movweq	r2, #28166	; 0x6e06
     73c:	83d74a09 	bicshi	r4, r7, #36864	; 0x9000
     740:	2f2f4b2f 	svccs	0x002f4b2f
     744:	2f2f2f83 	svccs	0x002f2f83
     748:	2f322f4b 	svccs	0x00322f4b
     74c:	2f2f2f2f 	svccs	0x002f2f2f
     750:	2e5a0330 	mrccs	3, 2, r0, cr10, cr0, {1}
     754:	022e2703 	eoreq	r2, lr, #786432	; 0xc0000
     758:	01010004 	tsteq	r1, r4
     75c:	000000ec 	andeq	r0, r0, ip, ror #1
     760:	00d00002 	sbcseq	r0, r0, r2
     764:	01020000 	mrseq	r0, (UNDEF: 2)
     768:	000d0efb 	strdeq	r0, [sp], -fp
     76c:	01010101 	tsteq	r1, r1, lsl #2
     770:	01000000 	mrseq	r0, (UNDEF: 0)
     774:	6c010000 	stcvs	0, cr0, [r1], {-0}
     778:	00636269 	rsbeq	r6, r3, r9, ror #4
     77c:	7273752f 	rsbsvc	r7, r3, #197132288	; 0xbc00000
     780:	636f6c2f 	cmnvs	pc, #12032	; 0x2f00
     784:	432f6c61 	teqmi	pc, #24832	; 0x6100
     788:	616c6c65 	cmnvs	ip, r5, ror #24
     78c:	72612f72 	rsbvc	r2, r1, #456	; 0x1c8
     790:	6f6e2d6d 	svcvs	0x006e2d6d
     794:	652d656e 	strvs	r6, [sp, #-1390]!	; 0x56e
     798:	2f696261 	svccs	0x00696261
     79c:	2e382e34 	mrccs	14, 1, r2, cr8, cr4, {1}
     7a0:	73632d33 	cmnvc	r3, #3264	; 0xcc0
     7a4:	65303731 	ldrvs	r3, [r0, #-1841]!	; 0x731
     7a8:	62696c2f 	rsbvs	r6, r9, #12032	; 0x2f00
     7ac:	6363672f 	cmnvs	r3, #12320768	; 0xbc0000
     7b0:	6d72612f 	ldfvse	f6, [r2, #-188]!	; 0xffffff44
     7b4:	6e6f6e2d 	cdpvs	14, 6, cr6, cr15, cr13, {1}
     7b8:	61652d65 	cmnvs	r5, r5, ror #26
     7bc:	342f6962 	strtcc	r6, [pc], #-2402	; 7c4 <__code_start__-0x783c>
     7c0:	332e382e 	teqcc	lr, #3014656	; 0x2e0000
     7c4:	636e692f 	cmnvs	lr, #770048	; 0xbc000
     7c8:	6564756c 	strbvs	r7, [r4, #-1388]!	; 0x56c
     7cc:	73752f00 	cmnvc	r5, #0, 30
     7d0:	6f6c2f72 	svcvs	0x006c2f72
     7d4:	2f6c6163 	svccs	0x006c6163
     7d8:	6c6c6543 	cfstr64vs	mvdx6, [ip], #-268	; 0xfffffef4
     7dc:	612f7261 	teqvs	pc, r1, ror #4
     7e0:	6e2d6d72 	mcrvs	13, 1, r6, cr13, cr2, {3}
     7e4:	2d656e6f 	stclcs	14, cr6, [r5, #-444]!	; 0xfffffe44
     7e8:	69626165 	stmdbvs	r2!, {r0, r2, r5, r6, r8, sp, lr}^
     7ec:	382e342f 	stmdacc	lr!, {r0, r1, r2, r3, r5, sl, ip, sp}
     7f0:	632d332e 	teqvs	sp, #-1207959552	; 0xb8000000
     7f4:	30373173 	eorscc	r3, r7, r3, ror r1
     7f8:	72612f65 	rsbvc	r2, r1, #404	; 0x194
     7fc:	6f6e2d6d 	svcvs	0x006e2d6d
     800:	652d656e 	strvs	r6, [sp, #-1390]!	; 0x56e
     804:	2f696261 	svccs	0x00696261
     808:	6c636e69 	stclvs	14, cr6, [r3], #-420	; 0xfffffe5c
     80c:	00656475 	rsbeq	r6, r5, r5, ror r4
     810:	6d656d00 	stclvs	13, cr6, [r5, #-0]
     814:	2e746573 	mrccs	5, 3, r6, cr4, cr3, {3}
     818:	00010063 	andeq	r0, r1, r3, rrx
     81c:	64747300 	ldrbtvs	r7, [r4], #-768	; 0x300
     820:	2e666564 	cdpcs	5, 6, cr6, cr6, cr4, {3}
     824:	00020068 	andeq	r0, r2, r8, rrx
     828:	72747300 	rsbsvc	r7, r4, #0, 6
     82c:	2e676e69 	cdpcs	14, 6, cr6, cr7, cr9, {3}
     830:	00030068 	andeq	r0, r3, r8, rrx
     834:	05000000 	streq	r0, [r0, #-0]
     838:	00910002 	addseq	r0, r1, r2
     83c:	4c131400 	cfldrsmi	mvf1, [r3], {-0}
     840:	0402002f 	streq	r0, [r2], #-47	; 0x2f
     844:	024d4901 	subeq	r4, sp, #16384	; 0x4000
     848:	01010002 	tsteq	r1, r2
     84c:	0000010c 	andeq	r0, r0, ip, lsl #2
     850:	00f50002 	rscseq	r0, r5, r2
     854:	01020000 	mrseq	r0, (UNDEF: 2)
     858:	000d0efb 	strdeq	r0, [sp], -fp
     85c:	01010101 	tsteq	r1, r1, lsl #2
     860:	01000000 	mrseq	r0, (UNDEF: 0)
     864:	6c010000 	stcvs	0, cr0, [r1], {-0}
     868:	00636269 	rsbeq	r6, r3, r9, ror #4
     86c:	7273752f 	rsbsvc	r7, r3, #197132288	; 0xbc00000
     870:	636f6c2f 	cmnvs	pc, #12032	; 0x2f00
     874:	432f6c61 	teqmi	pc, #24832	; 0x6100
     878:	616c6c65 	cmnvs	ip, r5, ror #24
     87c:	72612f72 	rsbvc	r2, r1, #456	; 0x1c8
     880:	6f6e2d6d 	svcvs	0x006e2d6d
     884:	652d656e 	strvs	r6, [sp, #-1390]!	; 0x56e
     888:	2f696261 	svccs	0x00696261
     88c:	2e382e34 	mrccs	14, 1, r2, cr8, cr4, {1}
     890:	73632d33 	cmnvc	r3, #3264	; 0xcc0
     894:	65303731 	ldrvs	r3, [r0, #-1841]!	; 0x731
     898:	62696c2f 	rsbvs	r6, r9, #12032	; 0x2f00
     89c:	6363672f 	cmnvs	r3, #12320768	; 0xbc0000
     8a0:	6d72612f 	ldfvse	f6, [r2, #-188]!	; 0xffffff44
     8a4:	6e6f6e2d 	cdpvs	14, 6, cr6, cr15, cr13, {1}
     8a8:	61652d65 	cmnvs	r5, r5, ror #26
     8ac:	342f6962 	strtcc	r6, [pc], #-2402	; 8b4 <__code_start__-0x774c>
     8b0:	332e382e 	teqcc	lr, #3014656	; 0x2e0000
     8b4:	636e692f 	cmnvs	lr, #770048	; 0xbc000
     8b8:	6564756c 	strbvs	r7, [r4, #-1388]!	; 0x56c
     8bc:	73552f00 	cmpvc	r5, #0, 30
     8c0:	2f737265 	svccs	0x00737265
     8c4:	61697262 	cmnvs	r9, r2, ror #4
     8c8:	6e756a6e 	vsubvs.f32	s13, s10, s29
     8cc:	7365442f 	cmnvc	r5, #788529152	; 0x2f000000
     8d0:	706f746b 	rsbvc	r7, pc, fp, ror #8
     8d4:	6863732f 	stmdavs	r3!, {r0, r1, r2, r3, r5, r8, r9, ip, sp, lr}^
     8d8:	2f6c6f6f 	svccs	0x006c6f6f
     8dc:	69727053 	ldmdbvs	r2!, {r0, r1, r4, r6, ip, sp, lr}^
     8e0:	3931676e 	ldmdbcc	r1!, {r1, r2, r3, r5, r6, r8, r9, sl, sp, lr}
     8e4:	432f3032 	teqmi	pc, #50	; 0x32
     8e8:	30343253 	eorscc	r3, r4, r3, asr r2
     8ec:	632f584c 	teqvs	pc, #76, 16	; 0x4c0000
     8f0:	30343273 	eorscc	r3, r4, r3, ror r2
     8f4:	322d786c 	eorcc	r7, sp, #108, 16	; 0x6c0000
     8f8:	72707330 	rsbsvc	r7, r0, #48, 6	; 0xc0000000
     8fc:	62696c2f 	rsbvs	r6, r9, #12032	; 0x2f00
     900:	692f6970 	stmdbvs	pc!, {r4, r5, r6, r8, fp, sp, lr}	; <UNPREDICTABLE>
     904:	756c636e 	strbvc	r6, [ip, #-878]!	; 0x36e
     908:	00006564 	andeq	r6, r0, r4, ror #10
     90c:	6e697270 	mcrvs	2, 3, r7, cr9, cr0, {3}
     910:	632e6b74 	teqvs	lr, #116, 22	; 0x1d000
     914:	00000100 	andeq	r0, r0, r0, lsl #2
     918:	61647473 	smcvs	18243	; 0x4743
     91c:	682e6772 	stmdavs	lr!, {r1, r4, r5, r6, r8, r9, sl, sp, lr}
     920:	00000200 	andeq	r0, r0, r0, lsl #4
     924:	6975623c 	ldmdbvs	r5!, {r2, r3, r4, r5, r9, sp, lr}^
     928:	692d746c 	pushvs	{r2, r3, r5, r6, sl, ip, sp, lr}
     92c:	00003e6e 	andeq	r3, r0, lr, ror #28
     930:	70720000 	rsbsvc	r0, r2, r0
     934:	00682e69 	rsbeq	r2, r8, r9, ror #28
     938:	76000003 	strvc	r0, [r0], -r3
     93c:	72702d61 	rsbsvc	r2, r0, #6208	; 0x1840
     940:	6b746e69 	blvs	1d1c2ec <__bss_end__+0x1d116d4>
     944:	0100682e 	tsteq	r0, lr, lsr #16
     948:	00000000 	andeq	r0, r0, r0
     94c:	91200205 	teqls	r0, r5, lsl #4
     950:	6b170000 	blvs	5c0958 <__bss_end__+0x5b5d40>
     954:	0289bf4b 	addeq	fp, r9, #300	; 0x12c
     958:	0101000e 	tsteq	r1, lr
     95c:	00000094 	muleq	r0, r4, r0
     960:	007c0002 	rsbseq	r0, ip, r2
     964:	01020000 	mrseq	r0, (UNDEF: 2)
     968:	000d0efb 	strdeq	r0, [sp], -fp
     96c:	01010101 	tsteq	r1, r1, lsl #2
     970:	01000000 	mrseq	r0, (UNDEF: 0)
     974:	6c010000 	stcvs	0, cr0, [r1], {-0}
     978:	00636269 	rsbeq	r6, r3, r9, ror #4
     97c:	6573552f 	ldrbvs	r5, [r3, #-1327]!	; 0x52f
     980:	622f7372 	eorvs	r7, pc, #-939524095	; 0xc8000001
     984:	6e616972 	mcrvs	9, 3, r6, cr1, cr2, {3}
     988:	2f6e756a 	svccs	0x006e756a
     98c:	6b736544 	blvs	1cd9ea4 <__bss_end__+0x1ccf28c>
     990:	2f706f74 	svccs	0x00706f74
     994:	6f686373 	svcvs	0x00686373
     998:	532f6c6f 	teqpl	pc, #28416	; 0x6f00
     99c:	6e697270 	mcrvs	2, 3, r7, cr9, cr0, {3}
     9a0:	32393167 	eorscc	r3, r9, #-1073741799	; 0xc0000019
     9a4:	53432f30 	movtpl	r2, #16176	; 0x3f30
     9a8:	4c303432 	cfldrsmi	mvf3, [r0], #-200	; 0xffffff38
     9ac:	73632f58 	cmnvc	r3, #88, 30	; 0x160
     9b0:	6c303432 	cfldrsvs	mvf3, [r0], #-200	; 0xffffff38
     9b4:	30322d78 	eorscc	r2, r2, r8, ror sp
     9b8:	2f727073 	svccs	0x00727073
     9bc:	7062696c 	rsbvc	r6, r2, ip, ror #18
     9c0:	6e692f69 	cdpvs	15, 6, cr2, cr9, cr9, {3}
     9c4:	64756c63 	ldrbtvs	r6, [r5], #-3171	; 0xc63
     9c8:	70000065 	andvc	r0, r0, r5, rrx
     9cc:	68637475 	stmdavs	r3!, {r0, r2, r4, r5, r6, sl, ip, sp, lr}^
     9d0:	632e7261 	teqvs	lr, #268435462	; 0x10000006
     9d4:	00000100 	andeq	r0, r0, r0, lsl #2
     9d8:	2e697072 	mcrcs	0, 3, r7, cr9, cr2, {3}
     9dc:	00020068 	andeq	r0, r2, r8, rrx
     9e0:	05000000 	streq	r0, [r0, #-0]
     9e4:	00917802 	addseq	r7, r1, r2, lsl #16
     9e8:	6b4a1400 	blvs	12859f0 <__bss_end__+0x127add8>
     9ec:	0213bc13 	andseq	fp, r3, #4864	; 0x1300
     9f0:	01010008 	tsteq	r1, r8
     9f4:	000000a0 	andeq	r0, r0, r0, lsr #1
     9f8:	00790002 	rsbseq	r0, r9, r2
     9fc:	01020000 	mrseq	r0, (UNDEF: 2)
     a00:	000d0efb 	strdeq	r0, [sp], -fp
     a04:	01010101 	tsteq	r1, r1, lsl #2
     a08:	01000000 	mrseq	r0, (UNDEF: 0)
     a0c:	6c010000 	stcvs	0, cr0, [r1], {-0}
     a10:	00636269 	rsbeq	r6, r3, r9, ror #4
     a14:	6573552f 	ldrbvs	r5, [r3, #-1327]!	; 0x52f
     a18:	622f7372 	eorvs	r7, pc, #-939524095	; 0xc8000001
     a1c:	6e616972 	mcrvs	9, 3, r6, cr1, cr2, {3}
     a20:	2f6e756a 	svccs	0x006e756a
     a24:	6b736544 	blvs	1cd9f3c <__bss_end__+0x1ccf324>
     a28:	2f706f74 	svccs	0x00706f74
     a2c:	6f686373 	svcvs	0x00686373
     a30:	532f6c6f 	teqpl	pc, #28416	; 0x6f00
     a34:	6e697270 	mcrvs	2, 3, r7, cr9, cr0, {3}
     a38:	32393167 	eorscc	r3, r9, #-1073741799	; 0xc0000019
     a3c:	53432f30 	movtpl	r2, #16176	; 0x3f30
     a40:	4c303432 	cfldrsmi	mvf3, [r0], #-200	; 0xffffff38
     a44:	73632f58 	cmnvc	r3, #88, 30	; 0x160
     a48:	6c303432 	cfldrsvs	mvf3, [r0], #-200	; 0xffffff38
     a4c:	30322d78 	eorscc	r2, r2, r8, ror sp
     a50:	2f727073 	svccs	0x00727073
     a54:	7062696c 	rsbvc	r6, r2, ip, ror #18
     a58:	6e692f69 	cdpvs	15, 6, cr2, cr9, cr9, {3}
     a5c:	64756c63 	ldrbtvs	r6, [r5], #-3171	; 0xc63
     a60:	70000065 	andvc	r0, r0, r5, rrx
     a64:	2e6b7475 	mcrcs	4, 3, r7, cr11, cr5, {3}
     a68:	00010063 	andeq	r0, r1, r3, rrx
     a6c:	69707200 	ldmdbvs	r0!, {r9, ip, sp, lr}^
     a70:	0200682e 	andeq	r6, r0, #3014656	; 0x2e0000
     a74:	00000000 	andeq	r0, r0, r0
     a78:	91b40205 			; <UNDEFINED> instruction: 0x91b40205
     a7c:	4c150000 	ldcmi	0, cr0, [r5], {-0}
     a80:	0402002d 	streq	r0, [r2], #-45	; 0x2d
     a84:	02002f02 	andeq	r2, r0, #2, 30
     a88:	00490204 	subeq	r0, r9, r4, lsl #4
     a8c:	06010402 	streq	r0, [r1], -r2, lsl #8
     a90:	026b062e 	rsbeq	r0, fp, #48234496	; 0x2e00000
     a94:	01010006 	tsteq	r1, r6
     a98:	000001eb 	andeq	r0, r0, fp, ror #3
     a9c:	00e90002 	rsceq	r0, r9, r2
     aa0:	01020000 	mrseq	r0, (UNDEF: 2)
     aa4:	000d0efb 	strdeq	r0, [sp], -fp
     aa8:	01010101 	tsteq	r1, r1, lsl #2
     aac:	01000000 	mrseq	r0, (UNDEF: 0)
     ab0:	6c010000 	stcvs	0, cr0, [r1], {-0}
     ab4:	00636269 	rsbeq	r6, r3, r9, ror #4
     ab8:	7273752f 	rsbsvc	r7, r3, #197132288	; 0xbc00000
     abc:	636f6c2f 	cmnvs	pc, #12032	; 0x2f00
     ac0:	432f6c61 	teqmi	pc, #24832	; 0x6100
     ac4:	616c6c65 	cmnvs	ip, r5, ror #24
     ac8:	72612f72 	rsbvc	r2, r1, #456	; 0x1c8
     acc:	6f6e2d6d 	svcvs	0x006e2d6d
     ad0:	652d656e 	strvs	r6, [sp, #-1390]!	; 0x56e
     ad4:	2f696261 	svccs	0x00696261
     ad8:	2e382e34 	mrccs	14, 1, r2, cr8, cr4, {1}
     adc:	73632d33 	cmnvc	r3, #3264	; 0xcc0
     ae0:	65303731 	ldrvs	r3, [r0, #-1841]!	; 0x731
     ae4:	62696c2f 	rsbvs	r6, r9, #12032	; 0x2f00
     ae8:	6363672f 	cmnvs	r3, #12320768	; 0xbc0000
     aec:	6d72612f 	ldfvse	f6, [r2, #-188]!	; 0xffffff44
     af0:	6e6f6e2d 	cdpvs	14, 6, cr6, cr15, cr13, {1}
     af4:	61652d65 	cmnvs	r5, r5, ror #26
     af8:	342f6962 	strtcc	r6, [pc], #-2402	; b00 <__code_start__-0x7500>
     afc:	332e382e 	teqcc	lr, #3014656	; 0x2e0000
     b00:	636e692f 	cmnvs	lr, #770048	; 0xbc000
     b04:	6564756c 	strbvs	r7, [r4, #-1388]!	; 0x56c
     b08:	73552f00 	cmpvc	r5, #0, 30
     b0c:	2f737265 	svccs	0x00737265
     b10:	61697262 	cmnvs	r9, r2, ror #4
     b14:	6e756a6e 	vsubvs.f32	s13, s10, s29
     b18:	7365442f 	cmnvc	r5, #788529152	; 0x2f000000
     b1c:	706f746b 	rsbvc	r7, pc, fp, ror #8
     b20:	6863732f 	stmdavs	r3!, {r0, r1, r2, r3, r5, r8, r9, ip, sp, lr}^
     b24:	2f6c6f6f 	svccs	0x006c6f6f
     b28:	69727053 	ldmdbvs	r2!, {r0, r1, r4, r6, ip, sp, lr}^
     b2c:	3931676e 	ldmdbcc	r1!, {r1, r2, r3, r5, r6, r8, r9, sl, sp, lr}
     b30:	432f3032 	teqmi	pc, #50	; 0x32
     b34:	30343253 	eorscc	r3, r4, r3, asr r2
     b38:	632f584c 	teqvs	pc, #76, 16	; 0x4c0000
     b3c:	30343273 	eorscc	r3, r4, r3, ror r2
     b40:	322d786c 	eorcc	r7, sp, #108, 16	; 0x6c0000
     b44:	72707330 	rsbsvc	r7, r0, #48, 6	; 0xc0000000
     b48:	62696c2f 	rsbvs	r6, r9, #12032	; 0x2f00
     b4c:	692f6970 	stmdbvs	pc!, {r4, r5, r6, r8, fp, sp, lr}	; <UNPREDICTABLE>
     b50:	756c636e 	strbvc	r6, [ip, #-878]!	; 0x36e
     b54:	00006564 	andeq	r6, r0, r4, ror #10
     b58:	702d6176 	eorvc	r6, sp, r6, ror r1
     b5c:	746e6972 	strbtvc	r6, [lr], #-2418	; 0x972
     b60:	00632e6b 	rsbeq	r2, r3, fp, ror #28
     b64:	73000001 	movwvc	r0, #1
     b68:	72616474 	rsbvc	r6, r1, #116, 8	; 0x74000000
     b6c:	00682e67 	rsbeq	r2, r8, r7, ror #28
     b70:	72000002 	andvc	r0, r0, #2
     b74:	682e6970 	stmdavs	lr!, {r4, r5, r6, r8, fp, sp, lr}
     b78:	00000300 	andeq	r0, r0, r0, lsl #6
     b7c:	6975623c 	ldmdbvs	r5!, {r2, r3, r4, r5, r9, sp, lr}^
     b80:	692d746c 	pushvs	{r2, r3, r5, r6, sl, ip, sp, lr}
     b84:	00003e6e 	andeq	r3, r0, lr, ror #28
     b88:	00000000 	andeq	r0, r0, r0
     b8c:	91e80205 	mvnls	r0, r5, lsl #4
     b90:	26030000 	strcs	r0, [r3], -r0
     b94:	13a50101 			; <UNDEFINED> instruction: 0x13a50101
     b98:	02002d31 	andeq	r2, r0, #3136	; 0xc40
     b9c:	002f0204 	eoreq	r0, pc, r4, lsl #4
     ba0:	2d020402 	cfstrscs	mvf0, [r2, #-8]
     ba4:	02040200 	andeq	r0, r4, #0, 4
     ba8:	0402002f 	streq	r0, [r2], #-47	; 0x2f
     bac:	4c4c2d01 	mcrrmi	13, 0, r2, ip, cr1
     bb0:	2f4b1430 	svccs	0x004b1430
     bb4:	0402004f 	streq	r0, [r2], #-79	; 0x4f
     bb8:	02006702 	andeq	r6, r0, #524288	; 0x80000
     bbc:	4c650104 	stfmie	f0, [r5], #-16
     bc0:	2fa0304d 	svccs	0x00a0304d
     bc4:	26023031 			; <UNDEFINED> instruction: 0x26023031
     bc8:	2c2d8416 	cfstrscs	mvf8, [sp], #-88	; 0xffffffa8
     bcc:	01040200 	mrseq	r0, R12_usr
     bd0:	04020030 	streq	r0, [r2], #-48	; 0x30
     bd4:	66063301 	strvs	r3, [r6], -r1, lsl #6
     bd8:	01040200 	mrseq	r0, R12_usr
     bdc:	0402002e 	streq	r0, [r2], #-46	; 0x2e
     be0:	21080601 	tstcs	r8, r1, lsl #12
     be4:	73032f67 	movwvc	r2, #16231	; 0x3f67
     be8:	2e130382 	cdpcs	3, 1, cr0, cr3, cr2, {4}
     bec:	01040200 	mrseq	r0, R12_usr
     bf0:	02006606 	andeq	r6, r0, #6291456	; 0x600000
     bf4:	83060104 	movwhi	r0, #24836	; 0x6104
     bf8:	31674b4b 	cmncc	r7, fp, asr #22
     bfc:	2e65034b 	cdpcs	3, 6, cr0, cr5, cr11, {2}
     c00:	002e2303 	eoreq	r2, lr, r3, lsl #6
     c04:	06010402 	streq	r0, [r1], -r2, lsl #8
     c08:	0402002e 	streq	r0, [r2], #-46	; 0x2e
     c0c:	009f0601 	addseq	r0, pc, r1, lsl #12
     c10:	6a010402 	bvs	41c20 <__bss_end__+0x37008>
     c14:	a403d7d9 	strge	sp, [r3], #-2009	; 0x7d9
     c18:	2f20087f 	svccs	0x0020087f
     c1c:	01040200 	mrseq	r0, R12_usr
     c20:	d7064a06 	strle	r4, [r6, -r6, lsl #20]
     c24:	dc032f4b 	stcle	15, cr2, [r3], {75}	; 0x4b
     c28:	4c83f200 	sfmmi	f7, 1, [r3], {0}
     c2c:	2e0e0348 	cdpcs	3, 0, cr0, cr14, cr8, {2}
     c30:	2f2e7503 	svccs	0x002e7503
     c34:	2f4b842f 	svccs	0x004b842f
     c38:	30314d2d 	eorscc	r4, r1, sp, lsr #26
     c3c:	0200832f 	andeq	r8, r0, #-1140850688	; 0xbc000000
     c40:	a22c0104 	eorge	r0, ip, #4, 2
     c44:	01040200 	mrseq	r0, R12_usr
     c48:	d8064a06 	stmdale	r6, {r1, r2, r9, fp, lr}
     c4c:	03163602 	tsteq	r6, #2097152	; 0x200000
     c50:	2108d60e 	tstcs	r8, lr, lsl #12
     c54:	f331f330 	vcge.u<illegal width 64>	d15, d1, d16
     c58:	4b30f330 	blmi	c3d920 <__bss_end__+0xc32d08>
     c5c:	0830f330 	ldmdaeq	r0!, {r4, r5, r8, r9, ip, sp, lr, pc}
     c60:	002f3123 	eoreq	r3, pc, r3, lsr #2
     c64:	65010402 	strvs	r0, [r1, #-1026]	; 0x402
     c68:	02040200 	andeq	r0, r4, #0, 4
     c6c:	02004a06 	andeq	r4, r0, #24576	; 0x6000
     c70:	03060104 	movweq	r0, #24836	; 0x6104
     c74:	02006642 	andeq	r6, r0, #69206016	; 0x4200000
     c78:	66060204 	strvs	r0, [r6], -r4, lsl #4
     c7c:	00c20306 	sbceq	r0, r2, r6, lsl #6
     c80:	1002684a 	andne	r6, r2, sl, asr #16
     c84:	9c010100 	stflss	f0, [r1], {-0}
     c88:	02000000 	andeq	r0, r0, #0
     c8c:	00008600 	andeq	r8, r0, r0, lsl #12
     c90:	fb010200 	blx	4149a <__bss_end__+0x36882>
     c94:	01000d0e 	tsteq	r0, lr, lsl #26
     c98:	00010101 	andeq	r0, r1, r1, lsl #2
     c9c:	00010000 	andeq	r0, r1, r0
     ca0:	74730100 	ldrbtvc	r0, [r3], #-256	; 0x100
     ca4:	2d666661 	stclcs	6, cr6, [r6, #-388]!	; 0xfffffe7c
     ca8:	00637273 	rsbeq	r7, r3, r3, ror r2
     cac:	6573552f 	ldrbvs	r5, [r3, #-1327]!	; 0x52f
     cb0:	622f7372 	eorvs	r7, pc, #-939524095	; 0xc8000001
     cb4:	6e616972 	mcrvs	9, 3, r6, cr1, cr2, {3}
     cb8:	2f6e756a 	svccs	0x006e756a
     cbc:	6b736544 	blvs	1cda1d4 <__bss_end__+0x1ccf5bc>
     cc0:	2f706f74 	svccs	0x00706f74
     cc4:	6f686373 	svcvs	0x00686373
     cc8:	532f6c6f 	teqpl	pc, #28416	; 0x6f00
     ccc:	6e697270 	mcrvs	2, 3, r7, cr9, cr0, {3}
     cd0:	32393167 	eorscc	r3, r9, #-1073741799	; 0xc0000019
     cd4:	53432f30 	movtpl	r2, #16176	; 0x3f30
     cd8:	4c303432 	cfldrsmi	mvf3, [r0], #-200	; 0xffffff38
     cdc:	73632f58 	cmnvc	r3, #88, 30	; 0x160
     ce0:	6c303432 	cfldrsvs	mvf3, [r0], #-200	; 0xffffff38
     ce4:	30322d78 	eorscc	r2, r2, r8, ror sp
     ce8:	2f727073 	svccs	0x00727073
     cec:	7062696c 	rsbvc	r6, r2, ip, ror #18
     cf0:	6e692f69 	cdpvs	15, 6, cr2, cr9, cr9, {3}
     cf4:	64756c63 	ldrbtvs	r6, [r5], #-3171	; 0xc63
     cf8:	63000065 	movwvs	r0, #101	; 0x65
     cfc:	6e61656c 	cdpvs	5, 6, cr6, cr1, cr12, {3}
     d00:	6265722d 	rsbvs	r7, r5, #-805306366	; 0xd0000002
     d04:	2e746f6f 	cdpcs	15, 7, cr6, cr4, cr15, {3}
     d08:	00010063 	andeq	r0, r1, r3, rrx
     d0c:	69707200 	ldmdbvs	r0!, {r9, ip, sp, lr}^
     d10:	0200682e 	andeq	r6, r0, #3014656	; 0x2e0000
     d14:	00000000 	andeq	r0, r0, r0
     d18:	96f40205 	ldrbtls	r0, [r4], r5, lsl #4
     d1c:	2f150000 	svccs	0x00150000
     d20:	06024b83 	streq	r4, [r2], -r3, lsl #23
     d24:	a3010100 	movwge	r0, #4352	; 0x1100
     d28:	02000000 	andeq	r0, r0, #0
     d2c:	00008000 	andeq	r8, r0, r0
     d30:	fb010200 	blx	4153a <__bss_end__+0x36922>
     d34:	01000d0e 	tsteq	r0, lr, lsl #26
     d38:	00010101 	andeq	r0, r1, r1, lsl #2
     d3c:	00010000 	andeq	r0, r1, r0
     d40:	74730100 	ldrbtvc	r0, [r3], #-256	; 0x100
     d44:	2d666661 	stclcs	6, cr6, [r6, #-388]!	; 0xfffffe7c
     d48:	00637273 	rsbeq	r7, r3, r3, ror r2
     d4c:	6573552f 	ldrbvs	r5, [r3, #-1327]!	; 0x52f
     d50:	622f7372 	eorvs	r7, pc, #-939524095	; 0xc8000001
     d54:	6e616972 	mcrvs	9, 3, r6, cr1, cr2, {3}
     d58:	2f6e756a 	svccs	0x006e756a
     d5c:	6b736544 	blvs	1cda274 <__bss_end__+0x1ccf65c>
     d60:	2f706f74 	svccs	0x00706f74
     d64:	6f686373 	svcvs	0x00686373
     d68:	532f6c6f 	teqpl	pc, #28416	; 0x6f00
     d6c:	6e697270 	mcrvs	2, 3, r7, cr9, cr0, {3}
     d70:	32393167 	eorscc	r3, r9, #-1073741799	; 0xc0000019
     d74:	53432f30 	movtpl	r2, #16176	; 0x3f30
     d78:	4c303432 	cfldrsmi	mvf3, [r0], #-200	; 0xffffff38
     d7c:	73632f58 	cmnvc	r3, #88, 30	; 0x160
     d80:	6c303432 	cfldrsvs	mvf3, [r0], #-200	; 0xffffff38
     d84:	30322d78 	eorscc	r2, r2, r8, ror sp
     d88:	2f727073 	svccs	0x00727073
     d8c:	7062696c 	rsbvc	r6, r2, ip, ror #18
     d90:	6e692f69 	cdpvs	15, 6, cr2, cr9, cr9, {3}
     d94:	64756c63 	ldrbtvs	r6, [r5], #-3171	; 0xc63
     d98:	63000065 	movwvs	r0, #101	; 0x65
     d9c:	72617473 	rsbvc	r7, r1, #1929379840	; 0x73000000
     da0:	00632e74 	rsbeq	r2, r3, r4, ror lr
     da4:	72000001 	andvc	r0, r0, #1
     da8:	682e6970 	stmdavs	lr!, {r4, r5, r6, r8, fp, sp, lr}
     dac:	00000200 	andeq	r0, r0, r0, lsl #4
     db0:	02050000 	andeq	r0, r5, #0
     db4:	0000971c 	andeq	r9, r0, ip, lsl r7
     db8:	32010c03 	andcc	r0, r1, #768	; 0x300
     dbc:	2f2d2f31 	svccs	0x002d2f31
     dc0:	01040200 	mrseq	r0, R12_usr
     dc4:	4a150349 	bmi	541af0 <__bss_end__+0x536ed8>
     dc8:	0006022f 	andeq	r0, r6, pc, lsr #4
     dcc:	00a20101 	adceq	r0, r2, r1, lsl #2
     dd0:	00020000 	andeq	r0, r2, r0
     dd4:	00000080 	andeq	r0, r0, r0, lsl #1
     dd8:	0efb0102 	cdpeq	1, 15, cr0, cr11, cr2, {0}
     ddc:	0101000d 	tsteq	r1, sp
     de0:	00000101 	andeq	r0, r0, r1, lsl #2
     de4:	00000100 	andeq	r0, r0, r0, lsl #2
     de8:	61747301 	cmnvs	r4, r1, lsl #6
     dec:	732d6666 	teqvc	sp, #106954752	; 0x6600000
     df0:	2f006372 	svccs	0x00006372
     df4:	72657355 	rsbvc	r7, r5, #1409286145	; 0x54000001
     df8:	72622f73 	rsbvc	r2, r2, #460	; 0x1cc
     dfc:	6a6e6169 	bvs	1b993a8 <__bss_end__+0x1b8e790>
     e00:	442f6e75 	strtmi	r6, [pc], #-3701	; e08 <__code_start__-0x71f8>
     e04:	746b7365 	strbtvc	r7, [fp], #-869	; 0x365
     e08:	732f706f 	teqvc	pc, #111	; 0x6f
     e0c:	6f6f6863 	svcvs	0x006f6863
     e10:	70532f6c 	subsvc	r2, r3, ip, ror #30
     e14:	676e6972 			; <UNDEFINED> instruction: 0x676e6972
     e18:	30323931 	eorscc	r3, r2, r1, lsr r9
     e1c:	3253432f 	subscc	r4, r3, #-1140850688	; 0xbc000000
     e20:	584c3034 	stmdapl	ip, {r2, r4, r5, ip, sp}^
     e24:	3273632f 	rsbscc	r6, r3, #-1140850688	; 0xbc000000
     e28:	786c3034 	stmdavc	ip!, {r2, r4, r5, ip, sp}^
     e2c:	7330322d 	teqvc	r0, #-805306366	; 0xd0000002
     e30:	6c2f7270 	sfmvs	f7, 4, [pc], #-448	; c78 <__code_start__-0x7388>
     e34:	69706269 	ldmdbvs	r0!, {r0, r3, r5, r6, r9, sp, lr}^
     e38:	636e692f 	cmnvs	lr, #770048	; 0xbc000
     e3c:	6564756c 	strbvs	r7, [r4, #-1388]!	; 0x56c
     e40:	65720000 	ldrbvs	r0, [r2, #-0]!
     e44:	746f6f62 	strbtvc	r6, [pc], #-3938	; e4c <__code_start__-0x71b4>
     e48:	0100632e 	tsteq	r0, lr, lsr #6
     e4c:	70720000 	rsbsvc	r0, r2, r0
     e50:	00682e69 	rsbeq	r2, r8, r9, ror #28
     e54:	00000002 	andeq	r0, r0, r2
     e58:	50020500 	andpl	r0, r2, r0, lsl #10
     e5c:	03000097 	movweq	r0, #151	; 0x97
     e60:	3114010d 	tstcc	r4, sp, lsl #2
     e64:	2f15852f 	svccs	0x0015852f
     e68:	672f4d4b 	strvs	r4, [pc, -fp, asr #26]!
     e6c:	02675235 	rsbeq	r5, r7, #1342177283	; 0x50000003
     e70:	01010010 	tsteq	r1, r0, lsl r0
     e74:	000000ac 	andeq	r0, r0, ip, lsr #1
     e78:	007f0002 	rsbseq	r0, pc, r2
     e7c:	01020000 	mrseq	r0, (UNDEF: 2)
     e80:	000d0efb 	strdeq	r0, [sp], -fp
     e84:	01010101 	tsteq	r1, r1, lsl #2
     e88:	01000000 	mrseq	r0, (UNDEF: 0)
     e8c:	73010000 	movwvc	r0, #4096	; 0x1000
     e90:	66666174 			; <UNDEFINED> instruction: 0x66666174
     e94:	6372732d 	cmnvs	r2, #-1275068416	; 0xb4000000
     e98:	73552f00 	cmpvc	r5, #0, 30
     e9c:	2f737265 	svccs	0x00737265
     ea0:	61697262 	cmnvs	r9, r2, ror #4
     ea4:	6e756a6e 	vsubvs.f32	s13, s10, s29
     ea8:	7365442f 	cmnvc	r5, #788529152	; 0x2f000000
     eac:	706f746b 	rsbvc	r7, pc, fp, ror #8
     eb0:	6863732f 	stmdavs	r3!, {r0, r1, r2, r3, r5, r8, r9, ip, sp, lr}^
     eb4:	2f6c6f6f 	svccs	0x006c6f6f
     eb8:	69727053 	ldmdbvs	r2!, {r0, r1, r4, r6, ip, sp, lr}^
     ebc:	3931676e 	ldmdbcc	r1!, {r1, r2, r3, r5, r6, r8, r9, sl, sp, lr}
     ec0:	432f3032 	teqmi	pc, #50	; 0x32
     ec4:	30343253 	eorscc	r3, r4, r3, asr r2
     ec8:	632f584c 	teqvs	pc, #76, 16	; 0x4c0000
     ecc:	30343273 	eorscc	r3, r4, r3, ror r2
     ed0:	322d786c 	eorcc	r7, sp, #108, 16	; 0x6c0000
     ed4:	72707330 	rsbsvc	r7, r0, #48, 6	; 0xc0000000
     ed8:	62696c2f 	rsbvs	r6, r9, #12032	; 0x2f00
     edc:	692f6970 	stmdbvs	pc!, {r4, r5, r6, r8, fp, sp, lr}	; <UNPREDICTABLE>
     ee0:	756c636e 	strbvc	r6, [ip, #-878]!	; 0x36e
     ee4:	00006564 	andeq	r6, r0, r4, ror #10
     ee8:	656d6974 	strbvs	r6, [sp, #-2420]!	; 0x974
     eec:	00632e72 	rsbeq	r2, r3, r2, ror lr
     ef0:	72000001 	andvc	r0, r0, #1
     ef4:	682e6970 	stmdavs	lr!, {r4, r5, r6, r8, fp, sp, lr}
     ef8:	00000200 	andeq	r0, r0, r0, lsl #4
     efc:	02050000 	andeq	r0, r5, #0
     f00:	000097c4 	andeq	r9, r0, r4, asr #15
     f04:	2d2f1416 	cfstrscs	mvf1, [pc, #-88]!	; eb4 <__code_start__-0x714c>
     f08:	01040200 	mrseq	r0, R12_usr
     f0c:	6d062e06 	stcvs	14, cr2, [r6, #-24]	; 0xffffffe8
     f10:	4d4b2f31 	stclmi	15, cr2, [fp, #-196]	; 0xffffff3c
     f14:	4b303132 	blmi	c0d3e4 <__bss_end__+0xc027cc>
     f18:	2f6a2f4c 	svccs	0x006a2f4c
     f1c:	022f842f 	eoreq	r8, pc, #788529152	; 0x2f000000
     f20:	01010008 	tsteq	r1, r8
     f24:	00000148 	andeq	r0, r0, r8, asr #2
     f28:	01020002 	tsteq	r2, r2
     f2c:	01020000 	mrseq	r0, (UNDEF: 2)
     f30:	000d0efb 	strdeq	r0, [sp], -fp
     f34:	01010101 	tsteq	r1, r1, lsl #2
     f38:	01000000 	mrseq	r0, (UNDEF: 0)
     f3c:	2f010000 	svccs	0x00010000
     f40:	2f727375 	svccs	0x00727375
     f44:	6c636e69 	stclvs	14, cr6, [r3], #-420	; 0xfffffe5c
     f48:	2f656475 	svccs	0x00656475
     f4c:	6c77656e 	cfldr64vs	mvdx6, [r7], #-440	; 0xfffffe48
     f50:	732f6269 	teqvc	pc, #-1879048186	; 0x90000006
     f54:	2f007379 	svccs	0x00007379
     f58:	2f727375 	svccs	0x00727375
     f5c:	2f62696c 	svccs	0x0062696c
     f60:	2f636367 	svccs	0x00636367
     f64:	2d6d7261 	sfmcs	f7, 2, [sp, #-388]!	; 0xfffffe7c
     f68:	656e6f6e 	strbvs	r6, [lr, #-3950]!	; 0xf6e
     f6c:	6261652d 	rsbvs	r6, r1, #188743680	; 0xb400000
     f70:	2e362f69 	cdpcs	15, 3, cr2, cr6, cr9, {3}
     f74:	2f312e33 	svccs	0x00312e33
     f78:	6c636e69 	stclvs	14, cr6, [r3], #-420	; 0xfffffe5c
     f7c:	00656475 	rsbeq	r6, r5, r5, ror r4
     f80:	6d6f682f 	stclvs	8, cr6, [pc, #-188]!	; ecc <__code_start__-0x7134>
     f84:	6e652f65 	cdpvs	15, 6, cr2, cr5, cr5, {3}
     f88:	72656c67 	rsbvc	r6, r5, #26368	; 0x6700
     f8c:	616c632f 	cmnvs	ip, pc, lsr #6
     f90:	632f7373 	teqvs	pc, #-872415231	; 0xcc000001
     f94:	30343273 	eorscc	r3, r4, r3, ror r2
     f98:	322d786c 	eorcc	r7, sp, #108, 16	; 0x6c0000
     f9c:	72707330 	rsbsvc	r7, r0, #48, 6	; 0xc0000000
     fa0:	696c2f2f 	stmdbvs	ip!, {r0, r1, r2, r3, r5, r8, r9, sl, fp, sp}^
     fa4:	00697062 	rsbeq	r7, r9, r2, rrx
     fa8:	6d6f682f 	stclvs	8, cr6, [pc, #-188]!	; ef4 <__code_start__-0x710c>
     fac:	6e652f65 	cdpvs	15, 6, cr2, cr5, cr5, {3}
     fb0:	72656c67 	rsbvc	r6, r5, #26368	; 0x6700
     fb4:	616c632f 	cmnvs	ip, pc, lsr #6
     fb8:	632f7373 	teqvs	pc, #-872415231	; 0xcc000001
     fbc:	30343273 	eorscc	r3, r4, r3, ror r2
     fc0:	322d786c 	eorcc	r7, sp, #108, 16	; 0x6c0000
     fc4:	72707330 	rsbsvc	r7, r0, #48, 6	; 0xc0000000
     fc8:	696c2f2f 	stmdbvs	ip!, {r0, r1, r2, r3, r5, r8, r9, sl, fp, sp}^
     fcc:	2f697062 	svccs	0x00697062
     fd0:	66617473 			; <UNDEFINED> instruction: 0x66617473
     fd4:	72732d66 	rsbsvc	r2, r3, #6528	; 0x1980
     fd8:	75000063 	strvc	r0, [r0, #-99]	; 0x63
     fdc:	2e747261 	cdpcs	2, 7, cr7, cr4, cr1, {3}
     fe0:	00000063 	andeq	r0, r0, r3, rrx
     fe4:	636f6c00 	cmnvs	pc, #0, 24
     fe8:	00682e6b 	rsbeq	r2, r8, fp, ror #28
     fec:	5f000001 	svcpl	0x00000001
     ff0:	65707974 	ldrbvs	r7, [r0, #-2420]!	; 0x974
     ff4:	00682e73 	rsbeq	r2, r8, r3, ror lr
     ff8:	73000001 	movwvc	r0, #1
     ffc:	65646474 	strbvs	r6, [r4, #-1140]!	; 0x474
    1000:	00682e66 	rsbeq	r2, r8, r6, ror #28
    1004:	72000002 	andvc	r0, r0, #2
    1008:	746e6565 	strbtvc	r6, [lr], #-1381	; 0x565
    100c:	0100682e 	tsteq	r0, lr, lsr #16
    1010:	70720000 	rsbsvc	r0, r2, r0
    1014:	00682e69 	rsbeq	r2, r8, r9, ror #28
    1018:	75000003 	strvc	r0, [r0, #-3]
    101c:	2e747261 	cdpcs	2, 7, cr7, cr4, cr1, {3}
    1020:	00040068 	andeq	r0, r4, r8, rrx
    1024:	69706700 	ldmdbvs	r0!, {r8, r9, sl, sp, lr}^
    1028:	00682e6f 	rsbeq	r2, r8, pc, ror #28
    102c:	00000004 	andeq	r0, r0, r4
    1030:	98020500 	stmdals	r2, {r8, sl}
    1034:	03000098 	movweq	r0, #152	; 0x98
    1038:	0367012c 	cmneq	r7, #44, 2
    103c:	67359e0c 	ldrvs	r9, [r5, -ip, lsl #28]!
    1040:	03683568 	cmneq	r8, #104, 10	; 0x1a000000
    1044:	6b852e0c 	blvs	fe14c87c <__bss_end__+0xfe141c64>
    1048:	0c036969 	stceq	9, cr6, [r3], {105}	; 0x69
    104c:	08676b66 	stmdaeq	r7!, {r1, r2, r5, r6, r8, r9, fp, sp, lr}^
    1050:	4b683442 	blmi	1a0e160 <__bss_end__+0x1a03548>
    1054:	2f876836 	svccs	0x00876836
    1058:	01040200 	mrseq	r0, R12_usr
    105c:	3067682f 	rsbcc	r6, r7, pc, lsr #16
    1060:	02004b67 	andeq	r4, r0, #105472	; 0x19c00
    1064:	682f0104 	stmdavs	pc!, {r2, r8}	; <UNPREDICTABLE>
    1068:	022e6967 	eoreq	r6, lr, #1687552	; 0x19c000
    106c:	01010006 	tsteq	r1, r6
    1070:	0000012b 	andeq	r0, r0, fp, lsr #2
    1074:	00f80002 	rscseq	r0, r8, r2
    1078:	01020000 	mrseq	r0, (UNDEF: 2)
    107c:	000d0efb 	strdeq	r0, [sp], -fp
    1080:	01010101 	tsteq	r1, r1, lsl #2
    1084:	01000000 	mrseq	r0, (UNDEF: 0)
    1088:	2f010000 	svccs	0x00010000
    108c:	2f727375 	svccs	0x00727375
    1090:	6c636e69 	stclvs	14, cr6, [r3], #-420	; 0xfffffe5c
    1094:	2f656475 	svccs	0x00656475
    1098:	6c77656e 	cfldr64vs	mvdx6, [r7], #-440	; 0xfffffe48
    109c:	732f6269 	teqvc	pc, #-1879048186	; 0x90000006
    10a0:	2f007379 	svccs	0x00007379
    10a4:	2f727375 	svccs	0x00727375
    10a8:	2f62696c 	svccs	0x0062696c
    10ac:	2f636367 	svccs	0x00636367
    10b0:	2d6d7261 	sfmcs	f7, 2, [sp, #-388]!	; 0xfffffe7c
    10b4:	656e6f6e 	strbvs	r6, [lr, #-3950]!	; 0xf6e
    10b8:	6261652d 	rsbvs	r6, r1, #188743680	; 0xb400000
    10bc:	2e362f69 	cdpcs	15, 3, cr2, cr6, cr9, {3}
    10c0:	2f312e33 	svccs	0x00312e33
    10c4:	6c636e69 	stclvs	14, cr6, [r3], #-420	; 0xfffffe5c
    10c8:	00656475 	rsbeq	r6, r5, r5, ror r4
    10cc:	6d6f682f 	stclvs	8, cr6, [pc, #-188]!	; 1018 <__code_start__-0x6fe8>
    10d0:	6e652f65 	cdpvs	15, 6, cr2, cr5, cr5, {3}
    10d4:	72656c67 	rsbvc	r6, r5, #26368	; 0x6700
    10d8:	616c632f 	cmnvs	ip, pc, lsr #6
    10dc:	632f7373 	teqvs	pc, #-872415231	; 0xcc000001
    10e0:	30343273 	eorscc	r3, r4, r3, ror r2
    10e4:	322d786c 	eorcc	r7, sp, #108, 16	; 0x6c0000
    10e8:	72707330 	rsbsvc	r7, r0, #48, 6	; 0xc0000000
    10ec:	696c2f2f 	stmdbvs	ip!, {r0, r1, r2, r3, r5, r8, r9, sl, fp, sp}^
    10f0:	00697062 	rsbeq	r7, r9, r2, rrx
    10f4:	6d6f682f 	stclvs	8, cr6, [pc, #-188]!	; 1040 <__code_start__-0x6fc0>
    10f8:	6e652f65 	cdpvs	15, 6, cr2, cr5, cr5, {3}
    10fc:	72656c67 	rsbvc	r6, r5, #26368	; 0x6700
    1100:	616c632f 	cmnvs	ip, pc, lsr #6
    1104:	632f7373 	teqvs	pc, #-872415231	; 0xcc000001
    1108:	30343273 	eorscc	r3, r4, r3, ror r2
    110c:	322d786c 	eorcc	r7, sp, #108, 16	; 0x6c0000
    1110:	72707330 	rsbsvc	r7, r0, #48, 6	; 0xc0000000
    1114:	696c2f2f 	stmdbvs	ip!, {r0, r1, r2, r3, r5, r8, r9, sl, fp, sp}^
    1118:	2f697062 	svccs	0x00697062
    111c:	66617473 			; <UNDEFINED> instruction: 0x66617473
    1120:	72732d66 	rsbsvc	r2, r3, #6528	; 0x1980
    1124:	67000063 	strvs	r0, [r0, -r3, rrx]
    1128:	2e6f6970 	mcrcs	9, 3, r6, cr15, cr0, {3}
    112c:	00000063 	andeq	r0, r0, r3, rrx
    1130:	636f6c00 	cmnvs	pc, #0, 24
    1134:	00682e6b 	rsbeq	r2, r8, fp, ror #28
    1138:	5f000001 	svcpl	0x00000001
    113c:	65707974 	ldrbvs	r7, [r0, #-2420]!	; 0x974
    1140:	00682e73 	rsbeq	r2, r8, r3, ror lr
    1144:	73000001 	movwvc	r0, #1
    1148:	65646474 	strbvs	r6, [r4, #-1140]!	; 0x474
    114c:	00682e66 	rsbeq	r2, r8, r6, ror #28
    1150:	72000002 	andvc	r0, r0, #2
    1154:	746e6565 	strbtvc	r6, [lr], #-1381	; 0x565
    1158:	0100682e 	tsteq	r0, lr, lsr #16
    115c:	70720000 	rsbsvc	r0, r2, r0
    1160:	00682e69 	rsbeq	r2, r8, r9, ror #28
    1164:	67000003 	strvs	r0, [r0, -r3]
    1168:	2e6f6970 	mcrcs	9, 3, r6, cr15, cr0, {3}
    116c:	00040068 	andeq	r0, r4, r8, rrx
    1170:	05000000 	streq	r0, [r0, #-0]
    1174:	009a1002 	addseq	r1, sl, r2
    1178:	01270300 	teqeq	r7, r0, lsl #6
    117c:	4f474c13 	svcmi	0x00474c13
    1180:	4c4b68f4 	mcrrmi	8, 15, r6, fp, cr4
    1184:	136a2fa1 	cmnne	sl, #644	; 0x284
    1188:	13be3149 			; <UNDEFINED> instruction: 0x13be3149
    118c:	2fbe3149 	svccs	0x00be3149
    1190:	484d2f6a 	stmdami	sp, {r1, r3, r5, r6, r8, r9, sl, fp, sp}^
    1194:	3249134f 	subcc	r1, r9, #1006632961	; 0x3c000001
    1198:	0602b72f 	streq	fp, [r2], -pc, lsr #14
    119c:	34010100 	strcc	r0, [r1], #-256	; 0x100
    11a0:	02000001 	andeq	r0, r0, #1
    11a4:	0000df00 	andeq	sp, r0, r0, lsl #30
    11a8:	fb010200 	blx	419b2 <__bss_end__+0x36d9a>
    11ac:	01000d0e 	tsteq	r0, lr, lsl #26
    11b0:	00010101 	andeq	r0, r1, r1, lsl #2
    11b4:	00010000 	andeq	r0, r1, r0
    11b8:	752f0100 	strvc	r0, [pc, #-256]!	; 10c0 <__code_start__-0x6f40>
    11bc:	692f7273 	stmdbvs	pc!, {r0, r1, r4, r5, r6, r9, ip, sp, lr}	; <UNPREDICTABLE>
    11c0:	756c636e 	strbvc	r6, [ip, #-878]!	; 0x36e
    11c4:	6e2f6564 	cfsh64vs	mvdx6, mvdx15, #52
    11c8:	696c7765 	stmdbvs	ip!, {r0, r2, r5, r6, r8, r9, sl, ip, sp, lr}^
    11cc:	79732f62 	ldmdbvc	r3!, {r1, r5, r6, r8, r9, sl, fp, sp}^
    11d0:	752f0073 	strvc	r0, [pc, #-115]!	; 1165 <__code_start__-0x6e9b>
    11d4:	6c2f7273 	sfmvs	f7, 4, [pc], #-460	; 1010 <__code_start__-0x6ff0>
    11d8:	672f6269 	strvs	r6, [pc, -r9, ror #4]!
    11dc:	612f6363 	teqvs	pc, r3, ror #6
    11e0:	6e2d6d72 	mcrvs	13, 1, r6, cr13, cr2, {3}
    11e4:	2d656e6f 	stclcs	14, cr6, [r5, #-444]!	; 0xfffffe44
    11e8:	69626165 	stmdbvs	r2!, {r0, r2, r5, r6, r8, sp, lr}^
    11ec:	332e362f 	teqcc	lr, #49283072	; 0x2f00000
    11f0:	692f312e 	stmdbvs	pc!, {r1, r2, r3, r5, r8, ip, sp}	; <UNPREDICTABLE>
    11f4:	756c636e 	strbvc	r6, [ip, #-878]!	; 0x36e
    11f8:	2f006564 	svccs	0x00006564
    11fc:	656d6f68 	strbvs	r6, [sp, #-3944]!	; 0xf68
    1200:	676e652f 	strbvs	r6, [lr, -pc, lsr #10]!
    1204:	2f72656c 	svccs	0x0072656c
    1208:	73616c63 	cmnvc	r1, #25344	; 0x6300
    120c:	73632f73 	cmnvc	r3, #460	; 0x1cc
    1210:	6c303432 	cfldrsvs	mvf3, [r0], #-200	; 0xffffff38
    1214:	30322d78 	eorscc	r2, r2, r8, ror sp
    1218:	2f727073 	svccs	0x00727073
    121c:	62696c2f 	rsbvs	r6, r9, #12032	; 0x2f00
    1220:	2f006970 	svccs	0x00006970
    1224:	2f727375 	svccs	0x00727375
    1228:	6c636e69 	stclvs	14, cr6, [r3], #-420	; 0xfffffe5c
    122c:	2f656475 	svccs	0x00656475
    1230:	6c77656e 	cfldr64vs	mvdx6, [r7], #-440	; 0xfffffe48
    1234:	00006269 	andeq	r6, r0, r9, ror #4
    1238:	6c616d6b 	stclvs	13, cr6, [r1], #-428	; 0xfffffe54
    123c:	2e636f6c 	cdpcs	15, 6, cr6, cr3, cr12, {3}
    1240:	00000063 	andeq	r0, r0, r3, rrx
    1244:	636f6c00 	cmnvs	pc, #0, 24
    1248:	00682e6b 	rsbeq	r2, r8, fp, ror #28
    124c:	5f000001 	svcpl	0x00000001
    1250:	65707974 	ldrbvs	r7, [r0, #-2420]!	; 0x974
    1254:	00682e73 	rsbeq	r2, r8, r3, ror lr
    1258:	73000001 	movwvc	r0, #1
    125c:	65646474 	strbvs	r6, [r4, #-1140]!	; 0x474
    1260:	00682e66 	rsbeq	r2, r8, r6, ror #28
    1264:	72000002 	andvc	r0, r0, #2
    1268:	746e6565 	strbtvc	r6, [lr], #-1381	; 0x565
    126c:	0100682e 	tsteq	r0, lr, lsr #16
    1270:	70720000 	rsbsvc	r0, r2, r0
    1274:	00682e69 	rsbeq	r2, r8, r9, ror #28
    1278:	73000003 	movwvc	r0, #3
    127c:	6e697274 	mcrvs	2, 3, r7, cr9, cr4, {3}
    1280:	00682e67 	rsbeq	r2, r8, r7, ror #28
    1284:	00000004 	andeq	r0, r0, r4
    1288:	30020500 	andcc	r0, r2, r0, lsl #10
    128c:	0300009b 	movweq	r0, #155	; 0x9b
    1290:	83010110 	movwhi	r0, #4368	; 0x1110
    1294:	83146801 	tsthi	r4, #65536	; 0x10000
    1298:	01040200 	mrseq	r0, R12_usr
    129c:	0402007f 	streq	r0, [r2], #-127	; 0x7f
    12a0:	5c083001 	stcpl	0, cr3, [r8], {1}
    12a4:	4b4c4b2f 	blmi	1313f68 <__bss_end__+0x1309350>
    12a8:	0200684b 	andeq	r6, r0, #4915200	; 0x4b0000
    12ac:	79030104 	stmdbvc	r3, {r2, r8}
    12b0:	0809034a 	stmdaeq	r9, {r1, r3, r6, r8, r9}
    12b4:	2e012f58 	mcrcs	15, 0, r2, cr1, cr8, {2}
    12b8:	4b6a2f4e 	blmi	1a8cff8 <__bss_end__+0x1a823e0>
    12bc:	2f4c6767 	svccs	0x004c6767
    12c0:	01040200 	mrseq	r0, R12_usr
    12c4:	002e7603 	eoreq	r7, lr, r3, lsl #12
    12c8:	dc010402 	cfstrsle	mvf0, [r1], {2}
    12cc:	012f7a08 	teqeq	pc, r8, lsl #20
    12d0:	0802019f 	stmdaeq	r2, {r0, r1, r2, r3, r4, r7, r8}
    12d4:	Address 0x00000000000012d4 is out of bounds.


Disassembly of section .debug_str:

00000000 <.debug_str>:
   0:	657a6973 	ldrbvs	r6, [sl, #-2419]!	; 0x973
   4:	4700745f 	smlsdmi	r0, pc, r4, r7	; <UNPREDICTABLE>
   8:	4320554e 	teqmi	r0, #327155712	; 0x13800000
   c:	382e3420 	stmdacc	lr!, {r5, sl, ip, sp}
  10:	2d20332e 	stccs	3, cr3, [r0, #-184]!	; 0xffffff48
  14:	7570636d 	ldrbvc	r6, [r0, #-877]!	; 0x36d
  18:	6d72613d 	ldfvse	f6, [r2, #-244]!	; 0xffffff0c
  1c:	36373131 			; <UNDEFINED> instruction: 0x36373131
  20:	2d667a6a 	vstmdbcs	r6!, {s15-s120}
  24:	6d2d2073 	stcvs	0, cr2, [sp, #-460]!	; 0xfffffe34
  28:	656e7574 	strbvs	r7, [lr, #-1396]!	; 0x574
  2c:	6d72613d 	ldfvse	f6, [r2, #-244]!	; 0xffffff0c
  30:	36373131 			; <UNDEFINED> instruction: 0x36373131
  34:	2d667a6a 	vstmdbcs	r6!, {s15-s120}
  38:	672d2073 			; <UNDEFINED> instruction: 0x672d2073
  3c:	20626467 	rsbcs	r6, r2, r7, ror #8
  40:	20674f2d 	rsbcs	r4, r7, sp, lsr #30
  44:	6474732d 	ldrbtvs	r7, [r4], #-813	; 0x32d
  48:	756e673d 	strbvc	r6, [lr, #-1853]!	; 0x73d
  4c:	2d203939 	stccs	9, cr3, [r0, #-228]!	; 0xffffff1c
  50:	65726666 	ldrbvs	r6, [r2, #-1638]!	; 0x666
  54:	61747365 	cmnvs	r4, r5, ror #6
  58:	6e69646e 	cdpvs	4, 6, cr6, cr9, cr14, {3}
  5c:	6b630067 	blvs	18c0200 <__bss_end__+0x18b55e8>
  60:	6f6c6c61 	svcvs	0x006c6c61
  64:	552f0063 	strpl	r0, [pc, #-99]!	; 9 <__code_start__-0x7ff7>
  68:	73726573 	cmnvc	r2, #482344960	; 0x1cc00000
  6c:	6972622f 	ldmdbvs	r2!, {r0, r1, r2, r3, r5, r9, sp, lr}^
  70:	756a6e61 	strbvc	r6, [sl, #-3681]!	; 0xe61
  74:	65442f6e 	strbvs	r2, [r4, #-3950]	; 0xf6e
  78:	6f746b73 	svcvs	0x00746b73
  7c:	63732f70 	cmnvs	r3, #112, 30	; 0x1c0
  80:	6c6f6f68 	stclvs	15, cr6, [pc], #-416	; fffffee8 <__bss_end__+0xffff52d0>
  84:	7270532f 	rsbsvc	r5, r0, #-1140850688	; 0xbc000000
  88:	31676e69 	cmncc	r7, r9, ror #28
  8c:	2f303239 	svccs	0x00303239
  90:	34325343 	ldrtcc	r5, [r2], #-835	; 0x343
  94:	2f584c30 	svccs	0x00584c30
  98:	34327363 	ldrtcc	r7, [r2], #-867	; 0x363
  9c:	2d786c30 	ldclcs	12, cr6, [r8, #-192]!	; 0xffffff40
  a0:	70733032 	rsbsvc	r3, r3, r2, lsr r0
  a4:	616c2f72 	smcvs	49906	; 0xc2f2
  a8:	312f7362 	teqcc	pc, r2, ror #6
  ac:	63672d31 	cmnvs	r7, #3136	; 0xc40
  b0:	646f632f 	strbtvs	r6, [pc], #-815	; b8 <__code_start__-0x7f48>
  b4:	6b630065 	blvs	18c0250 <__bss_end__+0x18b5638>
  b8:	6e69665f 	mcrvs	6, 3, r6, cr9, cr15, {2}
  bc:	656c5f64 	strbvs	r5, [ip, #-3940]!	; 0xf64
  c0:	00736b61 	rsbseq	r6, r3, r1, ror #22
  c4:	6d746f6e 	ldclvs	15, cr6, [r4, #-440]!	; 0xfffffe48
  c8:	006e6961 	rsbeq	r6, lr, r1, ror #18
  cc:	685f6b63 	ldmdavs	pc, {r0, r1, r5, r6, r8, r9, fp, sp, lr}^	; <UNPREDICTABLE>
  d0:	5f706165 	svcpl	0x00706165
  d4:	6f727265 	svcvs	0x00727265
  d8:	75007372 	strvc	r7, [r0, #-882]	; 0x372
  dc:	6769736e 	strbvs	r7, [r9, -lr, ror #6]!
  e0:	2064656e 	rsbcs	r6, r4, lr, ror #10
  e4:	72616863 	rsbvc	r6, r1, #6488064	; 0x630000
  e8:	656c6300 	strbvs	r6, [ip, #-768]!	; 0x300
  ec:	725f6e61 	subsvc	r6, pc, #1552	; 0x610
  f0:	6f6f6265 	svcvs	0x006f6265
  f4:	68730074 	ldmdavs	r3!, {r2, r4, r5, r6}^
  f8:	2074726f 	rsbscs	r7, r4, pc, ror #4
  fc:	69736e75 	ldmdbvs	r3!, {r0, r2, r4, r5, r6, r9, sl, fp, sp, lr}^
 100:	64656e67 	strbtvs	r6, [r5], #-3687	; 0xe67
 104:	746e6920 	strbtvc	r6, [lr], #-2336	; 0x920
 108:	616d6b00 	cmnvs	sp, r0, lsl #22
 10c:	636f6c6c 	cmnvs	pc, #108, 24	; 0x6c00
 110:	69707200 	ldmdbvs	r0!, {r9, ip, sp, lr}^
 114:	7365725f 	cmnvc	r5, #-268435451	; 0xf0000005
 118:	705f7465 	subsvc	r7, pc, r5, ror #8
 11c:	00637475 	rsbeq	r7, r3, r5, ror r4
 120:	736d656d 	cmnvc	sp, #457179136	; 0x1b400000
 124:	5f007465 	svcpl	0x00007465
 128:	4e55465f 	mrcmi	6, 2, r4, cr5, cr15, {2}
 12c:	4f495443 	svcmi	0x00495443
 130:	005f5f4e 	subseq	r5, pc, lr, asr #30
 134:	695f6b63 	ldmdbvs	pc, {r0, r1, r5, r6, r8, r9, fp, sp, lr}^	; <UNPREDICTABLE>
 138:	0074696e 	rsbseq	r6, r4, lr, ror #18
 13c:	74736574 	ldrbtvc	r6, [r3], #-1396	; 0x574
 140:	61702f73 	cmnvs	r0, r3, ror pc
 144:	2d327472 	cfldrscs	mvf7, [r2, #-456]!	; 0xfffffe38
 148:	74736574 	ldrbtvc	r6, [r3], #-1396	; 0x574
 14c:	00632e31 	rsbeq	r2, r3, r1, lsr lr
 150:	676e6f6c 	strbvs	r6, [lr, -ip, ror #30]!
 154:	6e6f6c20 	cdpvs	12, 6, cr6, cr15, cr0, {1}
 158:	6e752067 	cdpvs	0, 7, cr2, cr5, cr7, {3}
 15c:	6e676973 	mcrvs	9, 3, r6, cr7, cr3, {3}
 160:	69206465 	stmdbvs	r0!, {r0, r2, r5, r6, sl, sp, lr}
 164:	7300746e 	movwvc	r7, #1134	; 0x46e
 168:	74657a69 	strbtvc	r7, [r5], #-2665	; 0xa69
 16c:	00657079 	rsbeq	r7, r5, r9, ror r0
 170:	676e6f6c 	strbvs	r6, [lr, -ip, ror #30]!
 174:	6e6f6c20 	cdpvs	12, 6, cr6, cr15, cr0, {1}
 178:	6e692067 	cdpvs	0, 6, cr2, cr9, cr7, {3}
 17c:	6b630074 	blvs	18c0354 <__bss_end__+0x18b573c>
 180:	65657266 	strbvs	r7, [r5, #-614]!	; 0x266
 184:	6f687300 	svcvs	0x00687300
 188:	69207472 	stmdbvs	r0!, {r1, r4, r5, r6, sl, ip, sp, lr}
 18c:	7500746e 	strvc	r7, [r0, #-1134]	; 0x46e
 190:	33746e69 	cmncc	r4, #1680	; 0x690
 194:	00745f32 	rsbseq	r5, r4, r2, lsr pc
 198:	6c616d6b 	stclvs	13, cr6, [r1], #-428	; 0xfffffe54
 19c:	5f636f6c 	svcpl	0x00636f6c
 1a0:	74696e69 	strbtvc	r6, [r9], #-3689	; 0xe69
 1a4:	7465735f 	strbtvc	r7, [r5], #-863	; 0x35f
 1a8:	6174735f 	cmnvs	r4, pc, asr r3
 1ac:	74007472 	strvc	r7, [r0], #-1138	; 0x472
 1b0:	31747365 	cmncc	r4, r5, ror #6
 1b4:	79626e00 	stmdbvc	r2!, {r9, sl, fp, sp, lr}^
 1b8:	5f736574 	svcpl	0x00736574
 1bc:	65657266 	strbvs	r7, [r5, #-614]!	; 0x266
 1c0:	6b630064 	blvs	18c0358 <__bss_end__+0x18b5740>
 1c4:	7269665f 	rsbvc	r6, r9, #99614720	; 0x5f00000
 1c8:	685f7473 	ldmdavs	pc, {r0, r1, r4, r5, r6, sl, ip, sp, lr}^	; <UNPREDICTABLE>
 1cc:	70007264 	andvc	r7, r0, r4, ror #4
 1d0:	00766572 	rsbseq	r6, r6, r2, ror r5
 1d4:	5f646c6f 	svcpl	0x00646c6f
 1d8:	6b72616d 	blvs	1c98794 <__bss_end__+0x1c8db7c>
 1dc:	615f6800 	cmpvs	pc, r0, lsl #16
 1e0:	00726464 	rsbseq	r6, r2, r4, ror #8
 1e4:	74736166 	ldrbtvc	r6, [r3], #-358	; 0x166
 1e8:	7361685f 	cmnvc	r1, #6225920	; 0x5f0000
 1ec:	5f620068 	svcpl	0x00620068
 1f0:	5f317a72 	svcpl	0x00317a72
 1f4:	00727470 	rsbseq	r7, r2, r0, ror r4
 1f8:	45455246 	strbmi	r5, [r5, #-582]	; 0x246
 1fc:	4c410044 	mcrrmi	0, 4, r0, r1, cr4
 200:	45434f4c 	strbmi	r4, [r3, #-3916]	; 0xf4c
 204:	5f620044 	svcpl	0x00620044
 208:	72646461 	rsbvc	r6, r4, #1627389952	; 0x61000000
 20c:	5f6f745f 	svcpl	0x006f745f
 210:	00726468 	rsbseq	r6, r2, r8, ror #8
 214:	695f796d 	ldmdbvs	pc, {r0, r2, r3, r5, r6, r8, fp, ip, sp, lr}^	; <UNPREDICTABLE>
 218:	006f666e 	rsbeq	r6, pc, lr, ror #12
 21c:	746e6975 	strbtvc	r6, [lr], #-2421	; 0x975
 220:	745f3631 	ldrbvc	r3, [pc], #-1585	; 228 <__code_start__-0x7dd8>
 224:	45564f00 	ldrbmi	r4, [r6, #-3840]	; 0xf00
 228:	41454852 	cmpmi	r5, r2, asr r8
 22c:	424e5f44 	submi	r5, lr, #68, 30	; 0x110
 230:	53455459 	movtpl	r5, #21593	; 0x5459
 234:	4c4c4100 	stfmie	f4, [ip], {-0}
 238:	4f5f434f 	svcmi	0x005f434f
 23c:	45534646 	ldrbmi	r4, [r3, #-1606]	; 0x646
 240:	75630054 	strbvc	r0, [r3, #-84]!	; 0x54
 244:	685f7272 	ldmdavs	pc, {r1, r4, r5, r6, r9, ip, sp, lr}^	; <UNPREDICTABLE>
 248:	62007264 	andvs	r7, r0, #100, 4	; 0x40000006
 24c:	746f745f 	strbtvc	r7, [pc], #-1119	; 254 <__code_start__-0x7dac>
 250:	625f6c61 	subsvs	r6, pc, #24832	; 0x6100
 254:	73657479 	cmnvc	r5, #2030043136	; 0x79000000
 258:	65686300 	strbvs	r6, [r8, #-768]!	; 0x300
 25c:	705f6b63 	subsvc	r6, pc, r3, ror #22
 260:	63007274 	movwvs	r7, #628	; 0x274
 264:	6c6c616b 	stfvse	f6, [ip], #-428	; 0xfffffe54
 268:	632e636f 	teqvs	lr, #-1140850687	; 0xbc000001
 26c:	5f6b6300 	svcpl	0x006b6300
 270:	7478656e 	ldrbtvc	r6, [r8], #-1390	; 0x56e
 274:	7264685f 	rsbvc	r6, r4, #6225920	; 0x5f0000
 278:	6c6c6100 	stfvse	f6, [ip], #-0
 27c:	6c5f636f 	mrrcvs	3, 6, r6, pc, cr15	; <UNPREDICTABLE>
 280:	6800636f 	stmdavs	r0, {r0, r1, r2, r3, r5, r6, r8, r9, sp, lr}
 284:	635f7264 	cmpvs	pc, #100, 4	; 0x40000006
 288:	6d75736b 	ldclvs	3, cr7, [r5, #-428]!	; 0xfffffe54
 28c:	44455200 	strbmi	r5, [r5], #-512	; 0x200
 290:	454e4f5a 	strbmi	r4, [lr, #-3930]	; 0xf5a
 294:	646c6f00 	strbtvs	r6, [ip], #-3840	; 0xf00
 298:	736b635f 	cmnvc	fp, #2080374785	; 0x7c000001
 29c:	6e006d75 	mcrvs	13, 0, r6, cr0, cr5, {3}
 2a0:	65747962 	ldrbvs	r7, [r4, #-2402]!	; 0x962
 2a4:	6c615f73 	stclvs	15, cr5, [r1], #-460	; 0xfffffe34
 2a8:	00636f6c 	rsbeq	r6, r3, ip, ror #30
 2ac:	65657266 	strbvs	r7, [r5, #-614]!	; 0x266
 2b0:	636f6c5f 	cmnvs	pc, #24320	; 0x5f00
 2b4:	615f6200 	cmpvs	pc, r0, lsl #4
 2b8:	636f6c6c 	cmnvs	pc, #108, 24	; 0x6c00
 2bc:	7274705f 	rsbsvc	r7, r4, #95	; 0x5f
 2c0:	61656800 	cmnvs	r5, r0, lsl #16
 2c4:	6e695f70 	mcrvs	15, 3, r5, cr9, cr0, {3}
 2c8:	73006f66 	movwvc	r6, #3942	; 0xf66
 2cc:	6c5f6372 	mrrcvs	3, 7, r6, pc, cr2	; <UNPREDICTABLE>
 2d0:	745f636f 	ldrbvc	r6, [pc], #-879	; 2d8 <__code_start__-0x7d28>
 2d4:	65686300 	strbvs	r6, [r8, #-768]!	; 0x300
 2d8:	685f6b63 	ldmdavs	pc, {r0, r1, r5, r6, r8, r9, fp, sp, lr}^	; <UNPREDICTABLE>
 2dc:	62007264 	andvs	r7, r0, #100, 4	; 0x40000006
 2e0:	327a725f 	rsbscc	r7, sl, #-268435451	; 0xf0000005
 2e4:	7274705f 	rsbsvc	r7, r4, #95	; 0x5f
 2e8:	72656e00 	rsbvc	r6, r5, #0, 28
 2ec:	73726f72 	cmnvc	r2, #456	; 0x1c8
 2f0:	72646800 	rsbvc	r6, r4, #0, 16
 2f4:	6972705f 	ldmdbvs	r2!, {r0, r1, r2, r3, r4, r6, ip, sp, lr}^
 2f8:	6e00746e 	cdpvs	4, 0, cr7, cr0, cr14, {3}
 2fc:	736b6c62 	cmnvc	fp, #25088	; 0x6200
 300:	4e455300 	cdpmi	3, 4, cr5, cr5, cr0, {0}
 304:	414e4954 	cmpmi	lr, r4, asr r9
 308:	616d004c 	cmnvs	sp, ip, asr #32
 30c:	6d5f6b72 	vldrvs	d22, [pc, #-456]	; 14c <__code_start__-0x7eb4>
 310:	6f006d65 	svcvs	0x00006d65
 314:	725f646c 	subsvc	r6, pc, #108, 8	; 0x6c000000
 318:	5f736665 	svcpl	0x00736665
 31c:	6464696d 	strbtvs	r6, [r4], #-2413	; 0x96d
 320:	6e00656c 	cfsh32vs	mvfx6, mvfx0, #60
 324:	65747962 	ldrbvs	r7, [r4, #-2402]!	; 0x962
 328:	6c615f73 	stclvs	15, cr5, [r1], #-460	; 0xfffffe34
 32c:	65636f6c 	strbvs	r6, [r3, #-3948]!	; 0xf6c
 330:	68630064 	stmdavs	r3!, {r2, r5, r6}^
 334:	5f6b6365 	svcpl	0x006b6365
 338:	636f6c62 	cmnvs	pc, #25088	; 0x6200
 33c:	696c006b 	stmdbvs	ip!, {r0, r1, r3, r5, r6}^
 340:	6f6e656e 	svcvs	0x006e656e
 344:	725f6200 	subsvc	r6, pc, #0, 4
 348:	6e5f327a 	mrcvs	2, 2, r3, cr15, cr10, {3}
 34c:	65747962 	ldrbvs	r7, [r4, #-2402]!	; 0x962
 350:	64680073 	strbtvs	r0, [r8], #-115	; 0x73
 354:	6b635f72 	blvs	18d8124 <__bss_end__+0x18cd50c>
 358:	5f6d7573 	svcpl	0x006d7573
 35c:	006c6176 	rsbeq	r6, ip, r6, ror r1
 360:	746e6975 	strbtvc	r6, [lr], #-2421	; 0x975
 364:	00745f38 	rsbseq	r5, r4, r8, lsr pc
 368:	5f726468 	svcpl	0x00726468
 36c:	6c6f0074 	stclvs	0, cr0, [pc], #-464	; 1a4 <__code_start__-0x7e5c>
 370:	65725f64 	ldrbvs	r5, [r2, #-3940]!	; 0xf64
 374:	735f7366 	cmpvc	pc, #-1744830463	; 0x98000001
 378:	74726174 	ldrbtvc	r6, [r2], #-372	; 0x174
 37c:	79626e00 	stmdbvc	r2!, {r9, sl, fp, sp, lr}^
 380:	5f736574 	svcpl	0x00736574
 384:	006d6572 	rsbeq	r6, sp, r2, ror r5
 388:	7466656c 	strbtvc	r6, [r6], #-1388	; 0x56c
 38c:	65686300 	strbvs	r6, [r8, #-768]!	; 0x300
 390:	6d5f6b63 	vldrvs	d22, [pc, #-396]	; 20c <__code_start__-0x7df4>
 394:	68006d65 	stmdavs	r0, {r0, r2, r5, r6, r8, sl, fp, sp, lr}
 398:	65646165 	strbvs	r6, [r4, #-357]!	; 0x165
 39c:	74730072 	ldrbtvc	r0, [r3], #-114	; 0x72
 3a0:	5f6b6361 	svcpl	0x006b6361
 3a4:	00706f74 	rsbseq	r6, r0, r4, ror pc
 3a8:	6e726177 	mrcvs	1, 3, r6, cr2, cr7, {3}
 3ac:	5f6f6e5f 	svcpl	0x006f6e5f
 3b0:	72617473 	rsbvc	r7, r1, #1929379840	; 0x73000000
 3b4:	65725f74 	ldrbvs	r5, [r2, #-3956]!	; 0xf74
 3b8:	00705f66 	rsbseq	r5, r0, r6, ror #30
 3bc:	6c706d69 	ldclvs	13, cr6, [r0], #-420	; 0xfffffe5c
 3c0:	6e656d65 	cdpvs	13, 6, cr6, cr5, cr5, {3}
 3c4:	68745f74 	ldmdavs	r4!, {r2, r4, r5, r6, r8, r9, sl, fp, ip, lr}^
 3c8:	63007369 	movwvs	r7, #873	; 0x369
 3cc:	6b636568 	blvs	18d9974 <__bss_end__+0x18ced5c>
 3d0:	5f6f6e5f 	svcpl	0x006f6e5f
 3d4:	6b61656c 	blvs	185998c <__bss_end__+0x184ed74>
 3d8:	656c6e00 	strbvs	r6, [ip, #-3584]!	; 0xe00
 3dc:	00736b61 	rsbseq	r6, r3, r1, ror #22
 3e0:	65657773 	strbvs	r7, [r5, #-1907]!	; 0x773
 3e4:	72665f70 	rsbvc	r5, r6, #112, 30	; 0x1c0
 3e8:	6d006565 	cfstr32vs	mvfx6, [r0, #-404]	; 0xfffffe6c
 3ec:	65627961 	strbvs	r7, [r2, #-2401]!	; 0x961
 3f0:	7272655f 	rsbsvc	r6, r2, #398458880	; 0x17c00000
 3f4:	0073726f 	rsbseq	r7, r3, pc, ror #4
 3f8:	675f6b63 	ldrbvs	r6, [pc, -r3, ror #22]
 3fc:	5f5f0063 	svcpl	0x005f0063
 400:	5f737362 	svcpl	0x00737362
 404:	72617473 	rsbvc	r7, r1, #1929379840	; 0x73000000
 408:	005f5f74 	subseq	r5, pc, r4, ror pc	; <UNPREDICTABLE>
 40c:	73625f5f 	cmnvc	r2, #380	; 0x17c
 410:	6e655f73 	mcrvs	15, 3, r5, cr5, cr3, {3}
 414:	005f5f64 	subseq	r5, pc, r4, ror #30
 418:	65657773 	strbvs	r7, [r5, #-1907]!	; 0x773
 41c:	656c5f70 	strbvs	r5, [ip, #-3952]!	; 0xf70
 420:	69006b61 	stmdbvs	r0, {r0, r5, r6, r8, r9, fp, sp, lr}
 424:	65685f6e 	strbvs	r5, [r8, #-3950]!	; 0xf6e
 428:	63007061 	movwvs	r7, #97	; 0x61
 42c:	00727275 	rsbseq	r7, r2, r5, ror r2
 430:	63656863 	cmnvs	r5, #6488064	; 0x630000
 434:	68735f6b 	ldmdavs	r3!, {r0, r1, r3, r5, r6, r8, r9, sl, fp, ip, lr}^
 438:	646c756f 	strbtvs	r7, [ip], #-1391	; 0x56f
 43c:	61656c5f 	cmnvs	r5, pc, asr ip
 440:	5f5f006b 	svcpl	0x005f006b
 444:	61746164 	cmnvs	r4, r4, ror #2
 448:	6174735f 	cmnvs	r4, pc, asr r3
 44c:	5f5f7472 	svcpl	0x005f7472
 450:	6d756400 	cfldrdvs	mvd6, [r5, #-0]
 454:	65725f70 	ldrbvs	r5, [r2, #-3952]!	; 0xf70
 458:	6e007367 	cdpvs	3, 0, cr7, cr0, cr7, {3}
 45c:	65657266 	strbvs	r7, [r5, #-614]!	; 0x266
 460:	6b630064 	blvs	18c05f8 <__bss_end__+0x18b59e0>
 464:	2e63672d 	cdpcs	7, 6, cr6, cr3, cr13, {1}
 468:	5f5f0063 	svcpl	0x005f0063
 46c:	61746164 	cmnvs	r4, r4, ror #2
 470:	646e655f 	strbtvs	r6, [lr], #-1375	; 0x55f
 474:	6d005f5f 	stcvs	15, cr5, [r0, #-380]	; 0xfffffe84
 478:	5f6b7261 	svcpl	0x006b7261
 47c:	006c6c61 	rsbeq	r6, ip, r1, ror #24
 480:	705f7369 	subsvc	r7, pc, r9, ror #6
 484:	6e007274 	mcrvs	2, 0, r7, cr0, cr4, {3}
 488:	636f6c62 	cmnvs	pc, #25088	; 0x6200
 48c:	6c00736b 	stcvs	3, cr7, [r0], {107}	; 0x6b
 490:	2f636269 	svccs	0x00636269
 494:	68736168 	ldmdavs	r3!, {r3, r5, r6, r8, sp, lr}^
 498:	2f00632e 	svccs	0x0000632e
 49c:	72657355 	rsbvc	r7, r5, #1409286145	; 0x54000001
 4a0:	72622f73 	rsbvc	r2, r2, #460	; 0x1cc
 4a4:	6a6e6169 	bvs	1b98a50 <__bss_end__+0x1b8de38>
 4a8:	442f6e75 	strtmi	r6, [pc], #-3701	; 4b0 <__code_start__-0x7b50>
 4ac:	746b7365 	strbtvc	r7, [fp], #-869	; 0x365
 4b0:	732f706f 	teqvc	pc, #111	; 0x6f
 4b4:	6f6f6863 	svcvs	0x006f6863
 4b8:	70532f6c 	subsvc	r2, r3, ip, ror #30
 4bc:	676e6972 			; <UNDEFINED> instruction: 0x676e6972
 4c0:	30323931 	eorscc	r3, r2, r1, lsr r9
 4c4:	3253432f 	subscc	r4, r3, #-1140850688	; 0xbc000000
 4c8:	584c3034 	stmdapl	ip, {r2, r4, r5, ip, sp}^
 4cc:	3273632f 	rsbscc	r6, r3, #-1140850688	; 0xbc000000
 4d0:	786c3034 	stmdavc	ip!, {r2, r4, r5, ip, sp}^
 4d4:	7330322d 	teqvc	r0, #-805306366	; 0xd0000002
 4d8:	6c2f7270 	sfmvs	f7, 4, [pc], #-448	; 320 <__code_start__-0x7ce0>
 4dc:	69706269 	ldmdbvs	r0!, {r0, r3, r5, r6, r9, sp, lr}^
 4e0:	62696c00 	rsbvs	r6, r9, #0, 24
 4e4:	656d2f63 	strbvs	r2, [sp, #-3939]!	; 0xf63
 4e8:	7465736d 	strbtvc	r7, [r5], #-877	; 0x36d
 4ec:	5f00632e 	svcpl	0x0000632e
 4f0:	756e675f 	strbvc	r6, [lr, #-1887]!	; 0x75f
 4f4:	61765f63 	cmnvs	r6, r3, ror #30
 4f8:	73696c5f 	cmnvc	r9, #24320	; 0x5f00
 4fc:	696c0074 	stmdbvs	ip!, {r2, r4, r5, r6}^
 500:	702f6362 	eorvc	r6, pc, r2, ror #6
 504:	746e6972 	strbtvc	r6, [lr], #-2418	; 0x972
 508:	00632e6b 	rsbeq	r2, r3, fp, ror #28
 50c:	705f6176 	subsvc	r6, pc, r6, ror r1	; <UNPREDICTABLE>
 510:	746e6972 	strbtvc	r6, [lr], #-2418	; 0x972
 514:	5f5f006b 	svcpl	0x005f006b
 518:	6c5f6176 	ldfvse	f6, [pc], {118}	; 0x76
 51c:	00747369 	rsbseq	r7, r4, r9, ror #6
 520:	70615f5f 	rsbvc	r5, r1, pc, asr pc
 524:	72617500 	rsbvc	r7, r1, #0, 10
 528:	75705f74 	ldrbvc	r5, [r0, #-3956]!	; 0xf74
 52c:	69006374 	stmdbvs	r0, {r2, r4, r5, r6, r8, r9, sp, lr}
 530:	7265746e 	rsbvc	r7, r5, #1845493760	; 0x6e000000
 534:	5f6c616e 	svcpl	0x006c616e
 538:	63747570 	cmnvs	r4, #112, 10	; 0x1c000000
 53c:	00726168 	rsbseq	r6, r2, r8, ror #2
 540:	5f697072 	svcpl	0x00697072
 544:	63747570 	cmnvs	r4, #112, 10	; 0x1c000000
 548:	00726168 	rsbseq	r6, r2, r8, ror #2
 54c:	6362696c 	cmnvs	r2, #108, 18	; 0x1b0000
 550:	7475702f 	ldrbtvc	r7, [r5], #-47	; 0x2f
 554:	72616863 	rsbvc	r6, r1, #6488064	; 0x630000
 558:	7200632e 	andvc	r6, r0, #-1207959552	; 0xb8000000
 55c:	735f6970 	cmpvc	pc, #112, 18	; 0x1c0000
 560:	705f7465 	subsvc	r7, pc, r5, ror #8
 564:	00637475 	rsbeq	r7, r3, r5, ror r4
 568:	6362696c 	cmnvs	r2, #108, 18	; 0x1b0000
 56c:	7475702f 	ldrbtvc	r7, [r5], #-47	; 0x2f
 570:	00632e6b 	rsbeq	r2, r3, fp, ror #28
 574:	65746e69 	ldrbvs	r6, [r4, #-3689]!	; 0xe69
 578:	6c616e72 	stclvs	14, cr6, [r1], #-456	; 0xfffffe38
 57c:	7475705f 	ldrbtvc	r7, [r5], #-95	; 0x5f
 580:	656e006b 	strbvs	r0, [lr, #-107]!	; 0x6b
 584:	00705f67 	rsbseq	r5, r0, r7, ror #30
 588:	65766572 	ldrbvs	r6, [r6, #-1394]!	; 0x572
 58c:	00657372 	rsbeq	r7, r5, r2, ror r3
 590:	69647369 	stmdbvs	r4!, {r0, r3, r5, r6, r8, r9, ip, sp, lr}^
 594:	00746967 	rsbseq	r6, r4, r7, ror #18
 598:	73747570 	cmnvc	r4, #112, 10	; 0x1c000000
 59c:	0070665f 	rsbseq	r6, r0, pc, asr r6
 5a0:	6e676973 	mcrvs	9, 3, r6, cr7, cr3, {3}
 5a4:	705f6465 	subsvc	r6, pc, r5, ror #8
 5a8:	62696c00 	rsbvs	r6, r9, #0, 24
 5ac:	61762f63 	cmnvs	r6, r3, ror #30
 5b0:	6972702d 	ldmdbvs	r2!, {r0, r2, r3, r5, ip, sp, lr}^
 5b4:	2e6b746e 	cdpcs	4, 6, cr7, cr11, cr14, {3}
 5b8:	70720063 	rsbsvc	r0, r2, r3, rrx
 5bc:	65735f69 	ldrbvs	r5, [r3, #-3945]!	; 0xf69
 5c0:	756f5f74 	strbvc	r5, [pc, #-3956]!	; fffff654 <__bss_end__+0xffff4a3c>
 5c4:	74757074 	ldrbtvc	r7, [r5], #-116	; 0x74
 5c8:	64697700 	strbtvs	r7, [r9], #-1792	; 0x700
 5cc:	70006874 	andvc	r6, r0, r4, ror r8
 5d0:	5f637475 	svcpl	0x00637475
 5d4:	65007066 	strvs	r7, [r0, #-102]	; 0x66
 5d8:	0074696d 	rsbseq	r6, r4, sp, ror #18
 5dc:	66617473 			; <UNDEFINED> instruction: 0x66617473
 5e0:	72732d66 	rsbsvc	r2, r3, #6528	; 0x1980
 5e4:	6c632f63 	stclvs	15, cr2, [r3], #-396	; 0xfffffe74
 5e8:	2d6e6165 	stfcse	f6, [lr, #-404]!	; 0xfffffe6c
 5ec:	6f626572 	svcvs	0x00626572
 5f0:	632e746f 	teqvs	lr, #1862270976	; 0x6f000000
 5f4:	69707200 	ldmdbvs	r0!, {r9, ip, sp, lr}^
 5f8:	6265725f 	rsbvs	r7, r5, #-268435451	; 0xf0000005
 5fc:	00746f6f 	rsbseq	r6, r4, pc, ror #30
 600:	616c6564 	cmnvs	ip, r4, ror #10
 604:	736d5f79 	cmnvc	sp, #484	; 0x1e4
 608:	73736200 	cmnvc	r3, #0, 4
 60c:	646e655f 	strbtvs	r6, [lr], #-1375	; 0x55f
 610:	73635f00 	cmnvc	r3, #0, 30
 614:	74726174 	ldrbtvc	r6, [r2], #-372	; 0x174
 618:	61747300 	cmnvs	r4, r0, lsl #6
 61c:	732d6666 	teqvc	sp, #106954752	; 0x6600000
 620:	632f6372 	teqvs	pc, #-939524095	; 0xc8000001
 624:	72617473 	rsbvc	r7, r1, #1929379840	; 0x73000000
 628:	00632e74 	rsbeq	r2, r3, r4, ror lr
 62c:	755f7461 	ldrbvc	r7, [pc, #-1121]	; 1d3 <__code_start__-0x7e2d>
 630:	5f726573 	svcpl	0x00726573
 634:	6576656c 	ldrbvs	r6, [r6, #-1388]!	; 0x56c
 638:	7473006c 	ldrbtvc	r0, [r3], #-108	; 0x6c
 63c:	2d666661 	stclcs	6, cr6, [r6, #-388]!	; 0xfffffe7c
 640:	2f637273 	svccs	0x00637273
 644:	6f626572 	svcvs	0x00626572
 648:	632e746f 	teqvs	lr, #1862270976	; 0x6f000000
 64c:	5f4d5000 	svcpl	0x004d5000
 650:	43545352 	cmpmi	r4, #1207959553	; 0x48000001
 654:	4352575f 	cmpmi	r2, #24903680	; 0x17c0000
 658:	465f4746 	ldrbmi	r4, [pc], -r6, asr #14
 65c:	5f4c4c55 	svcpl	0x004c4c55
 660:	45534552 	ldrbmi	r4, [r3, #-1362]	; 0x552
 664:	4d500054 	ldclmi	0, cr0, [r0, #-336]	; 0xfffffeb0
 668:	4f44575f 	svcmi	0x0044575f
 66c:	65730047 	ldrbvs	r0, [r3, #-71]!	; 0x47
 670:	73755f74 	cmnvc	r5, #116, 30	; 0x1d0
 674:	6c5f7265 	lfmvs	f7, 2, [pc], {101}	; 0x65
 678:	6c657665 	stclvs	6, cr7, [r5], #-404	; 0xfffffe6c
 67c:	54555000 	ldrbpl	r5, [r5], #-0
 680:	50003233 	andpl	r3, r0, r3, lsr r2
 684:	41505f4d 	cmpmi	r0, sp, asr #30
 688:	4f575353 	svcmi	0x00575353
 68c:	50004452 	andpl	r4, r0, r2, asr r4
 690:	53525f4d 	cmppl	r2, #308	; 0x134
 694:	63004354 	movwvs	r4, #852	; 0x354
 698:	00727370 	rsbseq	r7, r2, r0, ror r3
 69c:	656d6974 	strbvs	r6, [sp, #-2420]!	; 0x974
 6a0:	65675f72 	strbvs	r5, [r7, #-3954]!	; 0xf72
 6a4:	73755f74 	cmnvc	r5, #116, 30	; 0x1d0
 6a8:	725f6365 	subsvc	r6, pc, #-1811939327	; 0x94000001
 6ac:	64007761 	strvs	r7, [r0], #-1889	; 0x761
 6b0:	79616c65 	stmdbvc	r1!, {r0, r2, r5, r6, sl, fp, sp, lr}^
 6b4:	6365735f 	cmnvs	r5, #2080374785	; 0x7c000001
 6b8:	61747300 	cmnvs	r4, r0, lsl #6
 6bc:	732d6666 	teqvc	sp, #106954752	; 0x6600000
 6c0:	742f6372 	strtvc	r6, [pc], #-882	; 6c8 <__code_start__-0x7938>
 6c4:	72656d69 	rsbvc	r6, r5, #6720	; 0x1a40
 6c8:	4700632e 	strmi	r6, [r0, -lr, lsr #6]
 6cc:	32335445 	eorscc	r5, r3, #1157627904	; 0x45000000
 6d0:	63697400 	cmnvs	r9, #0, 8
 6d4:	6400736b 	strvs	r7, [r0], #-875	; 0x36b
 6d8:	79616c65 	stmdbvc	r1!, {r0, r2, r5, r6, sl, fp, sp, lr}^
 6dc:	6379635f 	cmnvs	r9, #2080374785	; 0x7c000001
 6e0:	0073656c 	rsbseq	r6, r3, ip, ror #10
 6e4:	616c6564 	cmnvs	ip, r4, ror #10
 6e8:	73755f79 	cmnvc	r5, #484	; 0x1e4
 6ec:	6d697400 	cfstrdvs	mvd7, [r9, #-0]
 6f0:	675f7265 	ldrbvs	r7, [pc, -r5, ror #4]
 6f4:	755f7465 	ldrbvc	r7, [pc, #-1125]	; 297 <__code_start__-0x7d69>
 6f8:	00636573 	rsbeq	r6, r3, r3, ror r5
 6fc:	6f73645f 	svcvs	0x0073645f
 700:	6e61685f 	mcrvs	8, 3, r6, cr1, cr15, {2}
 704:	00656c64 	rsbeq	r6, r5, r4, ror #24
 708:	7a69735f 	bvc	1a5d48c <__bss_end__+0x1a52874>
 70c:	725f0065 	subsvc	r0, pc, #101	; 0x65
 710:	34646e61 	strbtcc	r6, [r4], #-3681	; 0xe61
 714:	655f0038 	ldrbvs	r0, [pc, #-56]	; 6e4 <__code_start__-0x791c>
 718:	6772656d 	ldrbvs	r6, [r2, -sp, ror #10]!
 71c:	79636e65 	stmdbvc	r3!, {r0, r2, r5, r6, r9, sl, fp, sp, lr}^
 720:	72617500 	rsbvc	r7, r1, #0, 10
 724:	6e695f74 	mcrvs	15, 3, r5, cr9, cr4, {3}
 728:	5f007469 	svcpl	0x00007469
 72c:	74726377 	ldrbtvc	r6, [r2], #-887	; 0x377
 730:	5f626d6f 	svcpl	0x00626d6f
 734:	74617473 	strbtvc	r7, [r1], #-1139	; 0x473
 738:	775f0065 	ldrbvc	r0, [pc, -r5, rrx]
 73c:	74727363 	ldrbtvc	r7, [r2], #-867	; 0x363
 740:	73626d6f 	cmnvc	r2, #7104	; 0x1bc0
 744:	6174735f 	cmnvs	r4, pc, asr r3
 748:	5f006574 	svcpl	0x00006574
 74c:	7366626c 	cmnvc	r6, #108, 4	; 0xc0000006
 750:	00657a69 	rsbeq	r7, r5, r9, ror #20
 754:	4f495047 	svcmi	0x00495047
 758:	4e55465f 	mrcmi	6, 2, r4, cr5, cr15, {2}
 75c:	4e495f43 	cdpmi	15, 4, cr5, cr9, cr3, {2}
 760:	00545550 	subseq	r5, r4, r0, asr r5
 764:	72626d5f 	rsbvc	r6, r2, #6080	; 0x17c0
 768:	63776f74 	cmnvs	r7, #116, 30	; 0x1d0
 76c:	6174735f 	cmnvs	r4, pc, asr r3
 770:	5f006574 	svcpl	0x00006574
 774:	6f746377 	svcvs	0x00746377
 778:	735f626d 	cmpvc	pc, #-805306362	; 0xd0000006
 77c:	65746174 	ldrbvs	r6, [r4, #-372]!	; 0x174
 780:	745f5f00 	ldrbvc	r5, [pc], #-3840	; 788 <__code_start__-0x7878>
 784:	65735f6d 	ldrbvs	r5, [r3, #-3949]!	; 0xf6d
 788:	74730063 	ldrbtvc	r0, [r3], #-99	; 0x63
 78c:	5f007461 	svcpl	0x00007461
 790:	66756275 			; <UNDEFINED> instruction: 0x66756275
 794:	49504700 	ldmdbmi	r0, {r8, r9, sl, lr}^
 798:	55465f4f 	strbpl	r5, [r6, #-3919]	; 0xf4f
 79c:	415f434e 	cmpmi	pc, lr, asr #6
 7a0:	0031544c 	eorseq	r5, r1, ip, asr #8
 7a4:	7361625f 	cmnvc	r1, #-268435451	; 0xf0000005
 7a8:	6e630065 	cdpvs	0, 6, cr0, cr3, cr5, {3}
 7ac:	5f006c74 	svcpl	0x00006c74
 7b0:	5f6d745f 	svcpl	0x006d745f
 7b4:	72756f68 	rsbsvc	r6, r5, #104, 30	; 0x1a0
 7b8:	735f5f00 	cmpvc	pc, #0, 30
 7bc:	6f5f0066 	svcvs	0x005f0066
 7c0:	78655f6e 	stmdavc	r5!, {r1, r2, r3, r5, r6, r8, r9, sl, fp, ip, lr}^
 7c4:	615f7469 	cmpvs	pc, r9, ror #8
 7c8:	00736772 	rsbseq	r6, r3, r2, ror r7
 7cc:	6f6f635f 	svcvs	0x006f635f
 7d0:	0065696b 	rsbeq	r6, r5, fp, ror #18
 7d4:	67735f5f 			; <UNDEFINED> instruction: 0x67735f5f
 7d8:	0065756c 	rsbeq	r7, r5, ip, ror #10
 7dc:	616c665f 	cmnvs	ip, pc, asr r6
 7e0:	5f007367 	svcpl	0x00007367
 7e4:	635f7369 	cmpvs	pc, #-1543503871	; 0xa4000001
 7e8:	5f006178 	svcpl	0x00006178
 7ec:	69647473 	stmdbvs	r4!, {r0, r1, r4, r5, r6, sl, ip, sp, lr}^
 7f0:	625f006e 	subsvs	r0, pc, #110	; 0x6e
 7f4:	69736b6c 	ldmdbvs	r3!, {r2, r3, r5, r6, r8, r9, fp, sp, lr}^
 7f8:	7500657a 	strvc	r6, [r0, #-1402]	; 0x57a
 7fc:	2e747261 	cdpcs	2, 7, cr7, cr4, cr1, {3}
 800:	75610063 	strbvc	r0, [r1, #-99]!	; 0x63
 804:	65705f78 	ldrbvs	r5, [r0, #-3960]!	; 0xf78
 808:	68706972 	ldmdavs	r0!, {r1, r4, r5, r6, r8, fp, sp, lr}^
 80c:	635f0073 	cmpvs	pc, #115	; 0x73
 810:	75627476 	strbvc	r7, [r2, #-1142]!	; 0x476
 814:	682f0066 	stmdavs	pc!, {r1, r2, r5, r6}	; <UNPREDICTABLE>
 818:	2f656d6f 	svccs	0x00656d6f
 81c:	6c676e65 	stclvs	14, cr6, [r7], #-404	; 0xfffffe6c
 820:	632f7265 	teqvs	pc, #1342177286	; 0x50000006
 824:	7373616c 	cmnvc	r3, #108, 2
 828:	3273632f 	rsbscc	r6, r3, #-1140850688	; 0xbc000000
 82c:	786c3034 	stmdavc	ip!, {r2, r4, r5, ip, sp}^
 830:	7330322d 	teqvc	r0, #-805306366	; 0xd0000002
 834:	6c2f7270 	sfmvs	f7, 4, [pc], #-448	; 67c <__code_start__-0x7984>
 838:	69706269 	ldmdbvs	r0!, {r0, r3, r5, r6, r9, sp, lr}^
 83c:	6174732f 	cmnvs	r4, pc, lsr #6
 840:	702d6666 	eorvc	r6, sp, r6, ror #12
 844:	61766972 	cmnvs	r6, r2, ror r9
 848:	5f006574 	svcpl	0x00006574
 84c:	7273626d 	rsbsvc	r6, r3, #-805306362	; 0xd0000006
 850:	63776f74 	cmnvs	r7, #116, 30	; 0x1d0
 854:	74735f73 	ldrbtvc	r5, [r3], #-3955	; 0xf73
 858:	00657461 	rsbeq	r7, r5, r1, ror #8
 85c:	72626d5f 	rsbvc	r6, r2, #6080	; 0x17c0
 860:	5f6e656c 	svcpl	0x006e656c
 864:	74617473 	strbtvc	r7, [r1], #-1139	; 0x473
 868:	665f0065 	ldrbvs	r0, [pc], -r5, rrx
 86c:	6772616e 	ldrbvs	r6, [r2, -lr, ror #2]!
 870:	75610073 	strbvc	r0, [r1, #-115]!	; 0x73
 874:	6e655f78 	mcrvs	15, 3, r5, cr5, cr8, {3}
 878:	656c6261 	strbvs	r6, [ip, #-609]!	; 0x261
 87c:	665f0073 			; <UNDEFINED> instruction: 0x665f0073
 880:	5f00736e 	svcpl	0x0000736e
 884:	6e676973 	mcrvs	9, 3, r6, cr7, cr3, {3}
 888:	72617500 	rsbvc	r7, r1, #0, 10
 88c:	61635f74 	smcvs	13812	; 0x35f4
 890:	75705f6e 	ldrbvc	r5, [r0, #-3950]!	; 0xf6e
 894:	5f006374 	svcpl	0x00006374
 898:	636f6c66 	cmnvs	pc, #26112	; 0x6600
 89c:	00745f6b 	rsbseq	r5, r4, fp, ror #30
 8a0:	6474735f 	ldrbtvs	r7, [r4], #-863	; 0x35f
 8a4:	00727265 	rsbseq	r7, r2, r5, ror #4
 8a8:	6769425f 			; <UNDEFINED> instruction: 0x6769425f
 8ac:	00746e69 	rsbseq	r6, r4, r9, ror #28
 8b0:	6d61675f 	stclvs	7, cr6, [r1, #-380]!	; 0xfffffe84
 8b4:	735f616d 	cmpvc	pc, #1073741851	; 0x4000001b
 8b8:	676e6769 	strbvs	r6, [lr, -r9, ror #14]!
 8bc:	5f006d61 	svcpl	0x00006d61
 8c0:	75736572 	ldrbvc	r6, [r3, #-1394]!	; 0x572
 8c4:	6b5f746c 	blvs	17dda7c <__bss_end__+0x17d2e64>
 8c8:	745f5f00 	ldrbvc	r5, [pc], #-3840	; 8d0 <__code_start__-0x7730>
 8cc:	5f5f006d 	svcpl	0x005f006d
 8d0:	62686377 	rsbvs	r6, r8, #-603979775	; 0xdc000001
 8d4:	72617500 	rsbvc	r7, r1, #0, 10
 8d8:	65675f74 	strbvs	r5, [r7, #-3956]!	; 0xf74
 8dc:	5f006374 	svcpl	0x00006374
 8e0:	6f647473 	svcvs	0x00647473
 8e4:	5f007475 	svcpl	0x00007475
 8e8:	6c747663 	ldclvs	6, cr7, [r4], #-396	; 0xfffffe74
 8ec:	5f006e65 	svcpl	0x00006e65
 8f0:	656c6966 	strbvs	r6, [ip, #-2406]!	; 0x966
 8f4:	696e5f00 	stmdbvs	lr!, {r8, r9, sl, fp, ip, lr}^
 8f8:	0073626f 	rsbseq	r6, r3, pc, ror #4
 8fc:	6574615f 	ldrbvs	r6, [r4, #-351]!	; 0x15f
 900:	30746978 	rsbscc	r6, r4, r8, ror r9
 904:	69735f00 	ldmdbvs	r3!, {r8, r9, sl, fp, ip, lr}^
 908:	6c616e67 	stclvs	14, cr6, [r1], #-412	; 0xfffffe64
 90c:	6675625f 			; <UNDEFINED> instruction: 0x6675625f
 910:	73615f00 	cmnvc	r1, #0, 30
 914:	6d697463 	cfstrdvs	mvd7, [r9, #-396]!	; 0xfffffe74
 918:	75625f65 	strbvc	r5, [r2, #-3941]!	; 0xf65
 91c:	65640066 	strbvs	r0, [r4, #-102]!	; 0x66
 920:	61625f76 	smcvs	9718	; 0x25f6
 924:	65697272 	strbvs	r7, [r9, #-626]!	; 0x272
 928:	725f0072 	subsvc	r0, pc, #114	; 0x72
 92c:	6c757365 	ldclvs	3, cr7, [r5], #-404	; 0xfffffe6c
 930:	5f5f0074 	svcpl	0x005f0074
 934:	00686377 	rsbeq	r6, r8, r7, ror r3
 938:	4f495047 	svcmi	0x00495047
 93c:	4e55465f 	mrcmi	6, 2, r4, cr5, cr15, {2}
 940:	4c415f43 	mcrrmi	15, 4, r5, r1, cr3
 944:	77003254 	smlsdvc	r0, r4, r2, r3
 948:	5f746e69 	svcpl	0x00746e69
 94c:	6c5f0074 	mrrcvs	0, 7, r0, pc, cr4	; <UNPREDICTABLE>
 950:	006b636f 	rsbeq	r6, fp, pc, ror #6
 954:	616c665f 	cmnvs	ip, pc, asr r6
 958:	00327367 	eorseq	r7, r2, r7, ror #6
 95c:	6d745f5f 	ldclvs	15, cr5, [r4, #-380]!	; 0xfffffe84
 960:	6165795f 	cmnvs	r5, pc, asr r9
 964:	6f5f0072 	svcvs	0x005f0072
 968:	65736666 	ldrbvs	r6, [r3, #-1638]!	; 0x666
 96c:	70670074 	rsbvc	r0, r7, r4, ror r0
 970:	735f6f69 	cmpvc	pc, #420	; 0x1a4
 974:	665f7465 	ldrbvs	r7, [pc], -r5, ror #8
 978:	74636e75 	strbtvc	r6, [r3], #-3701	; 0xe75
 97c:	006e6f69 	rsbeq	r6, lr, r9, ror #30
 980:	78656e5f 	stmdavc	r5!, {r0, r1, r2, r3, r4, r6, r9, sl, fp, sp, lr}^
 984:	5f006674 	svcpl	0x00006674
 988:	5f6d745f 	svcpl	0x006d745f
 98c:	006e6f6d 	rsbeq	r6, lr, sp, ror #30
 990:	6574615f 	ldrbvs	r6, [r4, #-351]!	; 0x15f
 994:	00746978 	rsbseq	r6, r4, r8, ror r9
 998:	64735f5f 	ldrbtvs	r5, [r3], #-3935	; 0xf5f
 99c:	6e696469 	cdpvs	4, 6, cr6, cr9, cr9, {3}
 9a0:	5f007469 	svcpl	0x00007469
 9a4:	5f66666f 	svcpl	0x0066666f
 9a8:	61750074 	cmnvs	r5, r4, ror r0
 9ac:	5f007472 	svcpl	0x00007472
 9b0:	65657266 	strbvs	r7, [r5, #-614]!	; 0x266
 9b4:	7473696c 	ldrbtvc	r6, [r3], #-2412	; 0x96c
 9b8:	4f4c5f00 	svcmi	0x004c5f00
 9bc:	525f4b43 	subspl	r4, pc, #68608	; 0x10c00
 9c0:	52554345 	subspl	r4, r5, #335544321	; 0x14000001
 9c4:	45564953 	ldrbmi	r4, [r6, #-2387]	; 0x953
 9c8:	5f00545f 	svcpl	0x0000545f
 9cc:	0077656e 	rsbseq	r6, r7, lr, ror #10
 9d0:	655f685f 	ldrbvs	r6, [pc, #-2143]	; 179 <__code_start__-0x7e87>
 9d4:	6f6e7272 	svcvs	0x006e7272
 9d8:	745f5f00 	ldrbvc	r5, [pc], #-3840	; 9e0 <__code_start__-0x7620>
 9dc:	64795f6d 	ldrbtvs	r5, [r9], #-3949	; 0xf6d
 9e0:	5f007961 	svcpl	0x00007961
 9e4:	7562735f 	strbvc	r7, [r2, #-863]!	; 0x35f
 9e8:	695f0066 	ldmdbvs	pc, {r1, r2, r5, r6}^	; <UNPREDICTABLE>
 9ec:	0073626f 	rsbseq	r6, r3, pc, ror #4
 9f0:	49465f5f 	stmdbmi	r6, {r0, r1, r2, r3, r4, r6, r8, r9, sl, fp, ip, lr}^
 9f4:	5f00454c 	svcpl	0x0000454c
 9f8:	7473626d 	ldrbtvc	r6, [r3], #-621	; 0x26d
 9fc:	5f657461 	svcpl	0x00657461
 a00:	5f5f0074 	svcpl	0x005f0074
 a04:	4c494673 	mcrrmi	6, 7, r4, r9, cr3
 a08:	6d5f0045 	ldclvs	0, cr0, [pc, #-276]	; 8fc <__code_start__-0x7704>
 a0c:	61747362 	cmnvs	r4, r2, ror #6
 a10:	5f006574 	svcpl	0x00006574
 a14:	646e6172 	strbtvs	r6, [lr], #-370	; 0x172
 a18:	78656e5f 	stmdavc	r5!, {r0, r1, r2, r3, r4, r6, r9, sl, fp, sp, lr}^
 a1c:	6d5f0074 	ldclvs	0, cr0, [pc, #-464]	; 854 <__code_start__-0x77ac>
 a20:	6e656c62 	cdpvs	12, 6, cr6, cr5, cr2, {3}
 a24:	6174735f 	cmnvs	r4, pc, asr r3
 a28:	5f006574 	svcpl	0x00006574
 a2c:	00636e69 	rsbeq	r6, r3, r9, ror #28
 a30:	646e695f 	strbtvs	r6, [lr], #-2399	; 0x95f
 a34:	75635f00 	strbvc	r5, [r3, #-3840]!	; 0xf00
 a38:	6e657272 	mcrvs	2, 3, r7, cr5, cr2, {3}
 a3c:	6f6c5f74 	svcvs	0x006c5f74
 a40:	656c6163 	strbvs	r6, [ip, #-355]!	; 0x163
 a44:	635f5f00 	cmpvs	pc, #0, 30
 a48:	6e61656c 	cdpvs	5, 6, cr6, cr1, cr12, {3}
 a4c:	5f007075 	svcpl	0x00007075
 a50:	7778616d 	ldrbvc	r6, [r8, -sp, ror #2]!
 a54:	5f007364 	svcpl	0x00007364
 a58:	6e656572 	mcrvs	5, 3, r6, cr5, cr2, {3}
 a5c:	735f0074 	cmpvc	pc, #116	; 0x74
 a60:	00646565 	rsbeq	r6, r4, r5, ror #10
 a64:	6f635f5f 	svcvs	0x00635f5f
 a68:	00746e75 	rsbseq	r6, r4, r5, ror lr
 a6c:	61765f5f 	cmnvs	r6, pc, asr pc
 a70:	0065756c 	rsbeq	r7, r5, ip, ror #10
 a74:	6565735f 	strbvs	r7, [r5, #-863]!	; 0x35f
 a78:	6162006b 	cmnvs	r2, fp, rrx
 a7c:	5f006475 	svcpl	0x00006475
 a80:	736f7066 	cmnvc	pc, #102	; 0x66
 a84:	5f00745f 	svcpl	0x0000745f
 a88:	5f6d745f 	svcpl	0x006d745f
 a8c:	006e696d 	rsbeq	r6, lr, sp, ror #18
 a90:	61726373 	cmnvs	r2, r3, ror r3
 a94:	00686374 	rsbeq	r6, r8, r4, ror r3
 a98:	6c756d5f 	ldclvs	13, cr6, [r5], #-380	; 0xfffffe84
 a9c:	75700074 	ldrbvc	r0, [r0, #-116]!	; 0x74
 aa0:	00323374 	eorseq	r3, r2, r4, ror r3
 aa4:	20554e47 	subscs	r4, r5, r7, asr #28
 aa8:	20393943 	eorscs	r3, r9, r3, asr #18
 aac:	2e332e36 	mrccs	14, 1, r2, cr3, cr6, {1}
 ab0:	30322031 	eorscc	r2, r2, r1, lsr r0
 ab4:	36303731 			; <UNDEFINED> instruction: 0x36303731
 ab8:	2d203032 	stccs	0, cr3, [r0, #-200]!	; 0xffffff38
 abc:	7570636d 	ldrbvc	r6, [r0, #-877]!	; 0x36d
 ac0:	6d72613d 	ldfvse	f6, [r2, #-244]!	; 0xffffff0c
 ac4:	36373131 			; <UNDEFINED> instruction: 0x36373131
 ac8:	2d667a6a 	vstmdbcs	r6!, {s15-s120}
 acc:	6d2d2073 	stcvs	0, cr2, [sp, #-460]!	; 0xfffffe34
 ad0:	656e7574 	strbvs	r7, [lr, #-1396]!	; 0x574
 ad4:	6d72613d 	ldfvse	f6, [r2, #-244]!	; 0xffffff0c
 ad8:	36373131 			; <UNDEFINED> instruction: 0x36373131
 adc:	2d667a6a 	vstmdbcs	r6!, {s15-s120}
 ae0:	672d2073 			; <UNDEFINED> instruction: 0x672d2073
 ae4:	20626467 	rsbcs	r6, r2, r7, ror #8
 ae8:	20674f2d 	rsbcs	r4, r7, sp, lsr #30
 aec:	6474732d 	ldrbtvs	r7, [r4], #-813	; 0x32d
 af0:	756e673d 	strbvc	r6, [lr, #-1853]!	; 0x73d
 af4:	2d203939 	stccs	9, cr3, [r0, #-228]!	; 0xffffff1c
 af8:	65726666 	ldrbvs	r6, [r2, #-1638]!	; 0x666
 afc:	61747365 	cmnvs	r4, r5, ror #6
 b00:	6e69646e 	cdpvs	4, 6, cr6, cr9, cr14, {3}
 b04:	735f0067 	cmpvc	pc, #103	; 0x67
 b08:	6f747274 	svcvs	0x00747274
 b0c:	616c5f6b 	cmnvs	ip, fp, ror #30
 b10:	5f007473 	svcpl	0x00007473
 b14:	79746e66 	ldmdbvc	r4!, {r1, r2, r5, r6, r9, sl, fp, sp, lr}^
 b18:	00736570 	rsbseq	r6, r3, r0, ror r5
 b1c:	6464615f 	strbtvs	r6, [r4], #-351	; 0x15f
 b20:	555f5f00 	ldrbpl	r5, [pc, #-3840]	; fffffc28 <__bss_end__+0xffff5010>
 b24:	676e6f4c 	strbvs	r6, [lr, -ip, asr #30]!
 b28:	65675f00 	strbvs	r5, [r7, #-3840]!	; 0xf00
 b2c:	74616474 	strbtvc	r6, [r1], #-1140	; 0x474
 b30:	72655f65 	rsbvc	r5, r5, #404	; 0x194
 b34:	675f0072 			; <UNDEFINED> instruction: 0x675f0072
 b38:	61626f6c 	cmnvs	r2, ip, ror #30
 b3c:	6d695f6c 	stclvs	15, cr5, [r9, #-432]!	; 0xfffffe50
 b40:	65727570 	ldrbvs	r7, [r2, #-1392]!	; 0x570
 b44:	7274705f 	rsbsvc	r7, r4, #95	; 0x5f
 b48:	75635f00 	strbvc	r5, [r3, #-3840]!	; 0xf00
 b4c:	6e657272 	mcrvs	2, 3, r7, cr5, cr2, {3}
 b50:	61635f74 	smcvs	13812	; 0x35f4
 b54:	6f676574 	svcvs	0x00676574
 b58:	5f007972 	svcpl	0x00007972
 b5c:	73756e75 	cmnvc	r5, #1872	; 0x750
 b60:	725f6465 	subsvc	r6, pc, #1694498816	; 0x65000000
 b64:	00646e61 	rsbeq	r6, r4, r1, ror #28
 b68:	7364775f 	cmnvc	r4, #24903680	; 0x17c0000
 b6c:	745f5f00 	ldrbvc	r5, [pc], #-3840	; b74 <__code_start__-0x748c>
 b70:	64775f6d 	ldrbtvs	r5, [r7], #-3949	; 0xf6d
 b74:	5f007961 	svcpl	0x00007961
 b78:	65756c67 	ldrbvs	r6, [r5, #-3175]!	; 0xc67
 b7c:	49504700 	ldmdbmi	r0, {r8, r9, sl, lr}^
 b80:	55465f4f 	strbpl	r5, [r6, #-3919]	; 0xf4f
 b84:	4f5f434e 	svcmi	0x005f434e
 b88:	55505455 	ldrbpl	r5, [r0, #-1109]	; 0x455
 b8c:	6e5f0054 	mrcvs	0, 2, r0, cr15, cr4, {2}
 b90:	6c6c616d 	stfvse	f6, [ip], #-436	; 0xfffffe4c
 b94:	5f00636f 	svcpl	0x0000636f
 b98:	6134366c 	teqvs	r4, ip, ror #12
 b9c:	6675625f 			; <UNDEFINED> instruction: 0x6675625f
 ba0:	74656700 	strbtvc	r6, [r5], #-1792	; 0x700
 ba4:	75003233 	strvc	r3, [r0, #-563]	; 0x233
 ba8:	5f747261 	svcpl	0x00747261
 bac:	5f6e6163 	svcpl	0x006e6163
 bb0:	63746567 	cmnvs	r4, #432013312	; 0x19c00000
 bb4:	69735f00 	ldmdbvs	r3!, {r8, r9, sl, fp, ip, lr}^
 bb8:	75665f67 	strbvc	r5, [r6, #-3943]!	; 0xf67
 bbc:	6f00636e 	svcvs	0x0000636e
 bc0:	6e695f72 	mcrvs	15, 3, r5, cr9, cr2, {3}
 bc4:	75003233 	strvc	r3, [r0, #-563]	; 0x233
 bc8:	5f747261 	svcpl	0x00747261
 bcc:	5f736168 	svcpl	0x00736168
 bd0:	61746164 	cmnvs	r4, r4, ror #2
 bd4:	49504700 	ldmdbmi	r0, {r8, r9, sl, lr}^
 bd8:	55465f4f 	strbpl	r5, [r6, #-3919]	; 0xf4f
 bdc:	415f434e 	cmpmi	pc, lr, asr #6
 be0:	0030544c 	eorseq	r5, r0, ip, asr #8
 be4:	75626e5f 	strbvc	r6, [r2, #-3679]!	; 0xe5f
 be8:	755f0066 	ldrbvc	r0, [pc, #-102]	; b8a <__code_start__-0x7476>
 bec:	6573756e 	ldrbvs	r7, [r3, #-1390]!	; 0x56e
 bf0:	50470064 	subpl	r0, r7, r4, rrx
 bf4:	465f4f49 	ldrbmi	r4, [pc], -r9, asr #30
 bf8:	5f434e55 	svcpl	0x00434e55
 bfc:	33544c41 	cmpcc	r4, #16640	; 0x4100
 c00:	49504700 	ldmdbmi	r0, {r8, r9, sl, lr}^
 c04:	55465f4f 	strbpl	r5, [r6, #-3919]	; 0xf4f
 c08:	415f434e 	cmpmi	pc, lr, asr #6
 c0c:	0034544c 	eorseq	r5, r4, ip, asr #8
 c10:	4f495047 	svcmi	0x00495047
 c14:	4e55465f 	mrcmi	6, 2, r4, cr5, cr15, {2}
 c18:	4c415f43 	mcrrmi	15, 4, r5, r1, cr3
 c1c:	5f003554 	svcpl	0x00003554
 c20:	5f6d745f 	svcpl	0x006d745f
 c24:	73647369 	cmnvc	r4, #-1543503871	; 0xa4000001
 c28:	6c5f0074 	mrrcvs	0, 7, r0, pc, cr4	; <UNPREDICTABLE>
 c2c:	6c61636f 	stclvs	3, cr6, [r1], #-444	; 0xfffffe44
 c30:	656d6974 	strbvs	r6, [sp, #-2420]!	; 0x974
 c34:	6675625f 			; <UNDEFINED> instruction: 0x6675625f
 c38:	6c635f00 	stclvs	15, cr5, [r3], #-0
 c3c:	0065736f 	rsbeq	r7, r5, pc, ror #6
 c40:	3834725f 	ldmdacc	r4!, {r0, r1, r2, r3, r4, r6, r9, ip, sp, lr}
 c44:	626d5f00 	rsbvs	r5, sp, #0, 30
 c48:	63776f74 	cmnvs	r7, #116, 30	; 0x1d0
 c4c:	6174735f 	cmnvs	r4, pc, asr r3
 c50:	5f006574 	svcpl	0x00006574
 c54:	00733570 	rsbseq	r3, r3, r0, ror r5
 c58:	6d745f5f 	ldclvs	15, cr5, [r4, #-380]!	; 0xfffffe84
 c5c:	61646d5f 	cmnvs	r4, pc, asr sp
 c60:	70670079 	rsbvc	r0, r7, r9, ror r0
 c64:	735f6f69 	cmpvc	pc, #420	; 0x1a4
 c68:	6f5f7465 	svcvs	0x005f7465
 c6c:	62006666 	andvs	r6, r0, #106954752	; 0x6600000
 c70:	006b6e61 	rsbeq	r6, fp, r1, ror #28
 c74:	6f697067 	svcvs	0x00697067
 c78:	6700632e 	strvs	r6, [r0, -lr, lsr #6]
 c7c:	5f6f6970 	svcpl	0x006f6970
 c80:	64616572 	strbtvs	r6, [r1], #-1394	; 0x572
 c84:	69706700 	ldmdbvs	r0!, {r8, r9, sl, sp, lr}^
 c88:	65735f6f 	ldrbvs	r5, [r3, #-3951]!	; 0xf6f
 c8c:	756f5f74 	strbvc	r5, [pc, #-3956]!	; fffffd20 <__bss_end__+0xffff5108>
 c90:	74757074 	ldrbtvc	r7, [r5], #-116	; 0x74
 c94:	69706700 	ldmdbvs	r0!, {r8, r9, sl, sp, lr}^
 c98:	72775f6f 	rsbsvc	r5, r7, #444	; 0x1bc
 c9c:	00657469 	rsbeq	r7, r5, r9, ror #8
 ca0:	6f697067 	svcvs	0x00697067
 ca4:	7465735f 	strbtvc	r7, [r5], #-863	; 0x35f
 ca8:	70670030 	rsbvc	r0, r7, r0, lsr r0
 cac:	6c5f6f69 	mrrcvs	15, 6, r6, pc, cr9	; <UNPREDICTABLE>
 cb0:	00307665 	eorseq	r7, r0, r5, ror #12
 cb4:	6f697067 	svcvs	0x00697067
 cb8:	7465735f 	strbtvc	r7, [r5], #-863	; 0x35f
 cbc:	706e695f 	rsbvc	r6, lr, pc, asr r9
 cc0:	67007475 	smlsdxvs	r0, r5, r4, r7
 cc4:	5f6f6970 	svcpl	0x006f6970
 cc8:	5f746573 	svcpl	0x00746573
 ccc:	67006e6f 	strvs	r6, [r0, -pc, ror #28]
 cd0:	5f6f6970 	svcpl	0x006f6970
 cd4:	636e7566 	cmnvs	lr, #427819008	; 0x19800000
 cd8:	6700745f 	smlsdvs	r0, pc, r4, r7	; <UNPREDICTABLE>
 cdc:	5f6f6970 	svcpl	0x006f6970
 ce0:	30726c63 	rsbscc	r6, r2, r3, ror #24
 ce4:	616d6b00 	cmnvs	sp, r0, lsl #22
 ce8:	636f6c6c 	cmnvs	pc, #108, 24	; 0x6c00
 cec:	6b00632e 	blvs	199ac <__bss_end__+0xed94>
 cf0:	6c6c616d 	stfvse	f6, [ip], #-436	; 0xfffffe4c
 cf4:	695f636f 	ldmdbvs	pc, {r0, r1, r2, r3, r5, r6, r8, r9, sp, lr}^	; <UNPREDICTABLE>
 cf8:	0074696e 	rsbseq	r6, r4, lr, ror #18
 cfc:	6c616d6b 	stclvs	13, cr6, [r1], #-428	; 0xfffffe54
 d00:	5f636f6c 	svcpl	0x00636f6c
 d04:	67696c61 	strbvs	r6, [r9, -r1, ror #24]!
 d08:	0064656e 	rsbeq	r6, r4, lr, ror #10
 d0c:	62756f64 	rsbsvs	r6, r5, #100, 30	; 0x190
 d10:	6b00656c 	blvs	1a2c8 <__bss_end__+0xf6b0>
 d14:	65657266 	strbvs	r7, [r5, #-614]!	; 0x266
 d18:	6c6c615f 	stfvse	f6, [ip], #-380	; 0xfffffe84
 d1c:	72666b00 	rsbvc	r6, r6, #0, 22
 d20:	615f6565 	cmpvs	pc, r5, ror #10
 d24:	72657466 	rsbvc	r7, r5, #1711276032	; 0x66000000
 d28:	616d6b00 	cmnvs	sp, r0, lsl #22
 d2c:	636f6c6c 	cmnvs	pc, #108, 24	; 0x6c00
 d30:	6165685f 	cmnvs	r5, pc, asr r8
 d34:	74705f70 	ldrbtvc	r5, [r0], #-3952	; 0xf70
 d38:	6c610072 	stclvs	0, cr0, [r1], #-456	; 0xfffffe38
 d3c:	6d6e6769 	stclvs	7, cr6, [lr, #-420]!	; 0xfffffe5c
 d40:	00746e65 	rsbseq	r6, r4, r5, ror #28
 d44:	65685f5f 	strbvs	r5, [r8, #-3935]!	; 0xf5f
 d48:	735f7061 	cmpvc	pc, #97	; 0x61
 d4c:	74726174 	ldrbtvc	r6, [r2], #-372	; 0x174
 d50:	6b005f5f 	blvs	18ad4 <__bss_end__+0xdebc>
 d54:	6c6c616d 	stfvse	f6, [ip], #-436	; 0xfffffe4c
 d58:	685f636f 	ldmdavs	pc, {r0, r1, r2, r3, r5, r6, r8, r9, sp, lr}^	; <UNPREDICTABLE>
 d5c:	5f706165 	svcpl	0x00706165
 d60:	72617473 	rsbvc	r7, r1, #1929379840	; 0x73000000
 d64:	6d6b0074 	stclvs	0, cr0, [fp, #-464]!	; 0xfffffe30
 d68:	6f6c6c61 	svcvs	0x006c6c61
 d6c:	65685f63 	strbvs	r5, [r8, #-3939]!	; 0xf63
 d70:	655f7061 	ldrbvs	r7, [pc, #-97]	; d17 <__code_start__-0x72e9>
 d74:	Address 0x0000000000000d74 is out of bounds.


Disassembly of section .debug_frame:

00000000 <.debug_frame>:
   0:	0000000c 	andeq	r0, r0, ip
   4:	ffffffff 			; <UNDEFINED> instruction: 0xffffffff
   8:	7c020001 	stcvc	0, cr0, [r2], {1}
   c:	000d0c0e 	andeq	r0, sp, lr, lsl #24
  10:	00000018 	andeq	r0, r0, r8, lsl r0
  14:	00000000 	andeq	r0, r0, r0
  18:	00008010 	andeq	r8, r0, r0, lsl r0
  1c:	00000070 	andeq	r0, r0, r0, ror r0
  20:	84100e42 	ldrhi	r0, [r0], #-3650	; 0xe42
  24:	86038504 	strhi	r8, [r3], -r4, lsl #10
  28:	00018e02 	andeq	r8, r1, r2, lsl #28
  2c:	00000014 	andeq	r0, r0, r4, lsl r0
  30:	00000000 	andeq	r0, r0, r0
  34:	00008080 	andeq	r8, r0, r0, lsl #1
  38:	000000c0 	andeq	r0, r0, r0, asr #1
  3c:	83080e42 	movwhi	r0, #36418	; 0x8e42
  40:	00018e02 	andeq	r8, r1, r2, lsl #28
  44:	0000000c 	andeq	r0, r0, ip
  48:	ffffffff 			; <UNDEFINED> instruction: 0xffffffff
  4c:	7c020001 	stcvc	0, cr0, [r2], {1}
  50:	000d0c0e 	andeq	r0, sp, lr, lsl #24
  54:	0000001c 	andeq	r0, r0, ip, lsl r0
  58:	00000044 	andeq	r0, r0, r4, asr #32
  5c:	00008140 	andeq	r8, r0, r0, asr #2
  60:	00000100 	andeq	r0, r0, r0, lsl #2
  64:	84180e42 	ldrhi	r0, [r8], #-3650	; 0xe42
  68:	86058506 	strhi	r8, [r5], -r6, lsl #10
  6c:	88038704 	stmdahi	r3, {r2, r8, r9, sl, pc}
  70:	00018e02 	andeq	r8, r1, r2, lsl #28
  74:	00000014 	andeq	r0, r0, r4, lsl r0
  78:	00000044 	andeq	r0, r0, r4, asr #32
  7c:	00008240 	andeq	r8, r0, r0, asr #4
  80:	00000014 	andeq	r0, r0, r4, lsl r0
  84:	83080e42 	movwhi	r0, #36418	; 0x8e42
  88:	00018e02 	andeq	r8, r1, r2, lsl #28
  8c:	0000001c 	andeq	r0, r0, ip, lsl r0
  90:	00000044 	andeq	r0, r0, r4, asr #32
  94:	00008254 	andeq	r8, r0, r4, asr r2
  98:	00000048 	andeq	r0, r0, r8, asr #32
  9c:	84180e42 	ldrhi	r0, [r8], #-3650	; 0xe42
  a0:	86058506 	strhi	r8, [r5], -r6, lsl #10
  a4:	88038704 	stmdahi	r3, {r2, r8, r9, sl, pc}
  a8:	00018e02 	andeq	r8, r1, r2, lsl #28
  ac:	00000014 	andeq	r0, r0, r4, lsl r0
  b0:	00000044 	andeq	r0, r0, r4, asr #32
  b4:	0000829c 	muleq	r0, ip, r2
  b8:	00000078 	andeq	r0, r0, r8, ror r0
  bc:	84080e42 	strhi	r0, [r8], #-3650	; 0xe42
  c0:	00018e02 	andeq	r8, r1, r2, lsl #28
  c4:	00000014 	andeq	r0, r0, r4, lsl r0
  c8:	00000044 	andeq	r0, r0, r4, asr #32
  cc:	00008314 	andeq	r8, r0, r4, lsl r3
  d0:	00000070 	andeq	r0, r0, r0, ror r0
  d4:	84080e42 	strhi	r0, [r8], #-3650	; 0xe42
  d8:	00018e02 	andeq	r8, r1, r2, lsl #28
  dc:	00000018 	andeq	r0, r0, r8, lsl r0
  e0:	00000044 	andeq	r0, r0, r4, asr #32
  e4:	00008384 	andeq	r8, r0, r4, lsl #7
  e8:	00000088 	andeq	r0, r0, r8, lsl #1
  ec:	83100e42 	tsthi	r0, #1056	; 0x420
  f0:	85038404 	strhi	r8, [r3, #-1028]	; 0x404
  f4:	00018e02 	andeq	r8, r1, r2, lsl #28
  f8:	0000001c 	andeq	r0, r0, ip, lsl r0
  fc:	00000044 	andeq	r0, r0, r4, asr #32
 100:	0000840c 	andeq	r8, r0, ip, lsl #8
 104:	000000d0 	ldrdeq	r0, [r0], -r0	; <UNPREDICTABLE>
 108:	84180e42 	ldrhi	r0, [r8], #-3650	; 0xe42
 10c:	86058506 	strhi	r8, [r5], -r6, lsl #10
 110:	88038704 	stmdahi	r3, {r2, r8, r9, sl, pc}
 114:	00018e02 	andeq	r8, r1, r2, lsl #28
 118:	00000020 	andeq	r0, r0, r0, lsr #32
 11c:	00000044 	andeq	r0, r0, r4, asr #32
 120:	000084dc 	ldrdeq	r8, [r0], -ip
 124:	0000022c 	andeq	r0, r0, ip, lsr #4
 128:	841c0e42 	ldrhi	r0, [ip], #-3650	; 0xe42
 12c:	86068507 	strhi	r8, [r6], -r7, lsl #10
 130:	88048705 	stmdahi	r4, {r0, r2, r8, r9, sl, pc}
 134:	8e028903 	cdphi	9, 0, cr8, cr2, cr3, {0}
 138:	280e4201 	stmdacs	lr, {r0, r9, lr}
 13c:	00000020 	andeq	r0, r0, r0, lsr #32
 140:	00000044 	andeq	r0, r0, r4, asr #32
 144:	00008708 	andeq	r8, r0, r8, lsl #14
 148:	00000170 	andeq	r0, r0, r0, ror r1
 14c:	83200e42 	teqhi	r0, #1056	; 0x420
 150:	85078408 	strhi	r8, [r7, #-1032]	; 0x408
 154:	87058606 	strhi	r8, [r5, -r6, lsl #12]
 158:	89038804 	stmdbhi	r3, {r2, fp, pc}
 15c:	00018e02 	andeq	r8, r1, r2, lsl #28
 160:	00000014 	andeq	r0, r0, r4, lsl r0
 164:	00000044 	andeq	r0, r0, r4, asr #32
 168:	00008878 	andeq	r8, r0, r8, ror r8
 16c:	00000050 	andeq	r0, r0, r0, asr r0
 170:	84080e42 	strhi	r0, [r8], #-3650	; 0xe42
 174:	00018e02 	andeq	r8, r1, r2, lsl #28
 178:	00000014 	andeq	r0, r0, r4, lsl r0
 17c:	00000044 	andeq	r0, r0, r4, asr #32
 180:	000088c8 	andeq	r8, r0, r8, asr #17
 184:	00000098 	muleq	r0, r8, r0
 188:	84080e42 	strhi	r0, [r8], #-3650	; 0xe42
 18c:	00018e02 	andeq	r8, r1, r2, lsl #28
 190:	0000000c 	andeq	r0, r0, ip
 194:	00000044 	andeq	r0, r0, r4, asr #32
 198:	00008960 	andeq	r8, r0, r0, ror #18
 19c:	0000001c 	andeq	r0, r0, ip, lsl r0
 1a0:	0000000c 	andeq	r0, r0, ip
 1a4:	ffffffff 			; <UNDEFINED> instruction: 0xffffffff
 1a8:	7c020001 	stcvc	0, cr0, [r2], {1}
 1ac:	000d0c0e 	andeq	r0, sp, lr, lsl #24
 1b0:	0000000c 	andeq	r0, r0, ip
 1b4:	000001a0 	andeq	r0, r0, r0, lsr #3
 1b8:	0000897c 	andeq	r8, r0, ip, ror r9
 1bc:	0000003c 	andeq	r0, r0, ip, lsr r0
 1c0:	00000014 	andeq	r0, r0, r4, lsl r0
 1c4:	000001a0 	andeq	r0, r0, r0, lsr #3
 1c8:	000089b8 			; <UNDEFINED> instruction: 0x000089b8
 1cc:	00000078 	andeq	r0, r0, r8, ror r0
 1d0:	84080e42 	strhi	r0, [r8], #-3650	; 0xe42
 1d4:	00018e02 	andeq	r8, r1, r2, lsl #28
 1d8:	00000024 	andeq	r0, r0, r4, lsr #32
 1dc:	000001a0 	andeq	r0, r0, r0, lsr #3
 1e0:	00008a30 	andeq	r8, r0, r0, lsr sl
 1e4:	00000134 	andeq	r0, r0, r4, lsr r1
 1e8:	83280e42 	teqhi	r8, #1056	; 0x420
 1ec:	8509840a 	strhi	r8, [r9, #-1034]	; 0x40a
 1f0:	87078608 	strhi	r8, [r7, -r8, lsl #12]
 1f4:	89058806 	stmdbhi	r5, {r1, r2, fp, pc}
 1f8:	8b038a04 	blhi	e2a10 <__bss_end__+0xd7df8>
 1fc:	00018e02 	andeq	r8, r1, r2, lsl #28
 200:	00000018 	andeq	r0, r0, r8, lsl r0
 204:	000001a0 	andeq	r0, r0, r0, lsr #3
 208:	00008b64 	andeq	r8, r0, r4, ror #22
 20c:	000000f8 	strdeq	r0, [r0], -r8
 210:	84100e42 	ldrhi	r0, [r0], #-3650	; 0xe42
 214:	86038504 	strhi	r8, [r3], -r4, lsl #10
 218:	00018e02 	andeq	r8, r1, r2, lsl #28
 21c:	00000018 	andeq	r0, r0, r8, lsl r0
 220:	000001a0 	andeq	r0, r0, r0, lsr #3
 224:	00008c5c 	andeq	r8, r0, ip, asr ip
 228:	000000f4 	strdeq	r0, [r0], -r4
 22c:	84080e42 	strhi	r0, [r8], #-3650	; 0xe42
 230:	42018e02 	andmi	r8, r1, #2, 28
 234:	0000580e 	andeq	r5, r0, lr, lsl #16
 238:	00000024 	andeq	r0, r0, r4, lsr #32
 23c:	000001a0 	andeq	r0, r0, r0, lsr #3
 240:	00008d50 	andeq	r8, r0, r0, asr sp
 244:	00000120 	andeq	r0, r0, r0, lsr #2
 248:	84240e42 	strthi	r0, [r4], #-3650	; 0xe42
 24c:	86088509 	strhi	r8, [r8], -r9, lsl #10
 250:	88068707 	stmdahi	r6, {r0, r1, r2, r8, r9, sl, pc}
 254:	8a048905 	bhi	122670 <__bss_end__+0x117a58>
 258:	8e028b03 	vmlahi.f64	d8, d2, d3
 25c:	380e4201 	stmdacc	lr, {r0, r9, lr}
 260:	00000014 	andeq	r0, r0, r4, lsl r0
 264:	000001a0 	andeq	r0, r0, r0, lsr #3
 268:	00008e70 	andeq	r8, r0, r0, ror lr
 26c:	00000018 	andeq	r0, r0, r8, lsl r0
 270:	84080e42 	strhi	r0, [r8], #-3650	; 0xe42
 274:	00018e02 	andeq	r8, r1, r2, lsl #28
 278:	00000014 	andeq	r0, r0, r4, lsl r0
 27c:	000001a0 	andeq	r0, r0, r0, lsr #3
 280:	00008e88 	andeq	r8, r0, r8, lsl #29
 284:	000000a0 	andeq	r0, r0, r0, lsr #1
 288:	83080e42 	movwhi	r0, #36418	; 0x8e42
 28c:	00018e02 	andeq	r8, r1, r2, lsl #28
 290:	00000014 	andeq	r0, r0, r4, lsl r0
 294:	000001a0 	andeq	r0, r0, r0, lsr #3
 298:	00008f28 	andeq	r8, r0, r8, lsr #30
 29c:	000000a4 	andeq	r0, r0, r4, lsr #1
 2a0:	84080e42 	strhi	r0, [r8], #-3650	; 0xe42
 2a4:	00018e02 	andeq	r8, r1, r2, lsl #28
 2a8:	00000014 	andeq	r0, r0, r4, lsl r0
 2ac:	000001a0 	andeq	r0, r0, r0, lsr #3
 2b0:	00008fcc 	andeq	r8, r0, ip, asr #31
 2b4:	0000002c 	andeq	r0, r0, ip, lsr #32
 2b8:	83080e42 	movwhi	r0, #36418	; 0x8e42
 2bc:	00018e02 	andeq	r8, r1, r2, lsl #28
 2c0:	00000014 	andeq	r0, r0, r4, lsl r0
 2c4:	000001a0 	andeq	r0, r0, r0, lsr #3
 2c8:	00008ff8 	strdeq	r8, [r0], -r8	; <UNPREDICTABLE>
 2cc:	00000010 	andeq	r0, r0, r0, lsl r0
 2d0:	83080e42 	movwhi	r0, #36418	; 0x8e42
 2d4:	00018e02 	andeq	r8, r1, r2, lsl #28
 2d8:	0000000c 	andeq	r0, r0, ip
 2dc:	ffffffff 			; <UNDEFINED> instruction: 0xffffffff
 2e0:	7c020001 	stcvc	0, cr0, [r2], {1}
 2e4:	000d0c0e 	andeq	r0, sp, lr, lsl #24
 2e8:	00000014 	andeq	r0, r0, r4, lsl r0
 2ec:	000002d8 	ldrdeq	r0, [r0], -r8
 2f0:	00009010 	andeq	r9, r0, r0, lsl r0
 2f4:	000000f0 	strdeq	r0, [r0], -r0	; <UNPREDICTABLE>
 2f8:	84040e42 	strhi	r0, [r4], #-3650	; 0xe42
 2fc:	00000001 	andeq	r0, r0, r1
 300:	0000000c 	andeq	r0, r0, ip
 304:	ffffffff 			; <UNDEFINED> instruction: 0xffffffff
 308:	7c020001 	stcvc	0, cr0, [r2], {1}
 30c:	000d0c0e 	andeq	r0, sp, lr, lsl #24
 310:	0000000c 	andeq	r0, r0, ip
 314:	00000300 	andeq	r0, r0, r0, lsl #6
 318:	00009100 	andeq	r9, r0, r0, lsl #2
 31c:	00000020 	andeq	r0, r0, r0, lsr #32
 320:	0000000c 	andeq	r0, r0, ip
 324:	ffffffff 			; <UNDEFINED> instruction: 0xffffffff
 328:	7c020001 	stcvc	0, cr0, [r2], {1}
 32c:	000d0c0e 	andeq	r0, sp, lr, lsl #24
 330:	00000024 	andeq	r0, r0, r4, lsr #32
 334:	00000320 	andeq	r0, r0, r0, lsr #6
 338:	00009120 	andeq	r9, r0, r0, lsr #2
 33c:	00000058 	andeq	r0, r0, r8, asr r0
 340:	80100e42 	andshi	r0, r0, r2, asr #28
 344:	82038104 	andhi	r8, r3, #4, 2
 348:	42018302 	andmi	r8, r1, #134217728	; 0x8000000
 34c:	07841c0e 	streq	r1, [r4, lr, lsl #24]
 350:	058e0685 	streq	r0, [lr, #1669]	; 0x685
 354:	00280e42 	eoreq	r0, r8, r2, asr #28
 358:	0000000c 	andeq	r0, r0, ip
 35c:	ffffffff 			; <UNDEFINED> instruction: 0xffffffff
 360:	7c020001 	stcvc	0, cr0, [r2], {1}
 364:	000d0c0e 	andeq	r0, sp, lr, lsl #24
 368:	00000014 	andeq	r0, r0, r4, lsl r0
 36c:	00000358 	andeq	r0, r0, r8, asr r3
 370:	00009178 	andeq	r9, r0, r8, ror r1
 374:	00000014 	andeq	r0, r0, r4, lsl r0
 378:	84080e42 	strhi	r0, [r8], #-3650	; 0xe42
 37c:	00018e02 	andeq	r8, r1, r2, lsl #28
 380:	0000000c 	andeq	r0, r0, ip
 384:	00000358 	andeq	r0, r0, r8, asr r3
 388:	0000918c 	andeq	r9, r0, ip, lsl #3
 38c:	00000018 	andeq	r0, r0, r8, lsl r0
 390:	0000000c 	andeq	r0, r0, ip
 394:	00000358 	andeq	r0, r0, r8, asr r3
 398:	000091a4 	andeq	r9, r0, r4, lsr #3
 39c:	00000010 	andeq	r0, r0, r0, lsl r0
 3a0:	0000000c 	andeq	r0, r0, ip
 3a4:	ffffffff 			; <UNDEFINED> instruction: 0xffffffff
 3a8:	7c020001 	stcvc	0, cr0, [r2], {1}
 3ac:	000d0c0e 	andeq	r0, sp, lr, lsl #24
 3b0:	00000018 	andeq	r0, r0, r8, lsl r0
 3b4:	000003a0 	andeq	r0, r0, r0, lsr #7
 3b8:	000091b4 			; <UNDEFINED> instruction: 0x000091b4
 3bc:	00000034 	andeq	r0, r0, r4, lsr r0
 3c0:	83100e42 	tsthi	r0, #1056	; 0x420
 3c4:	85038404 	strhi	r8, [r3, #-1028]	; 0x404
 3c8:	00018e02 	andeq	r8, r1, r2, lsl #28
 3cc:	0000000c 	andeq	r0, r0, ip
 3d0:	ffffffff 			; <UNDEFINED> instruction: 0xffffffff
 3d4:	7c020001 	stcvc	0, cr0, [r2], {1}
 3d8:	000d0c0e 	andeq	r0, sp, lr, lsl #24
 3dc:	0000000c 	andeq	r0, r0, ip
 3e0:	000003cc 	andeq	r0, r0, ip, asr #7
 3e4:	000091e8 	andeq	r9, r0, r8, ror #3
 3e8:	00000014 	andeq	r0, r0, r4, lsl r0
 3ec:	0000000c 	andeq	r0, r0, ip
 3f0:	000003cc 	andeq	r0, r0, ip, asr #7
 3f4:	000091fc 	strdeq	r9, [r0], -ip
 3f8:	0000002c 	andeq	r0, r0, ip, lsr #32
 3fc:	0000000c 	andeq	r0, r0, ip
 400:	000003cc 	andeq	r0, r0, ip, asr #7
 404:	00009228 	andeq	r9, r0, r8, lsr #4
 408:	00000040 	andeq	r0, r0, r0, asr #32
 40c:	00000020 	andeq	r0, r0, r0, lsr #32
 410:	000003cc 	andeq	r0, r0, ip, asr #7
 414:	00009268 	andeq	r9, r0, r8, ror #4
 418:	000001b0 			; <UNDEFINED> instruction: 0x000001b0
 41c:	84180e42 	ldrhi	r0, [r8], #-3650	; 0xe42
 420:	86058506 	strhi	r8, [r5], -r6, lsl #10
 424:	88038704 	stmdahi	r3, {r2, r8, r9, sl, pc}
 428:	42018e02 	andmi	r8, r1, #2, 28
 42c:	0000580e 	andeq	r5, r0, lr, lsl #16
 430:	00000014 	andeq	r0, r0, r4, lsl r0
 434:	000003cc 	andeq	r0, r0, ip, asr #7
 438:	00009418 	andeq	r9, r0, r8, lsl r4
 43c:	00000054 	andeq	r0, r0, r4, asr r0
 440:	83080e42 	movwhi	r0, #36418	; 0x8e42
 444:	00018e02 	andeq	r8, r1, r2, lsl #28
 448:	00000028 	andeq	r0, r0, r8, lsr #32
 44c:	000003cc 	andeq	r0, r0, ip, asr #7
 450:	0000946c 	andeq	r9, r0, ip, ror #8
 454:	00000288 	andeq	r0, r0, r8, lsl #5
 458:	84240e42 	strthi	r0, [r4], #-3650	; 0xe42
 45c:	86088509 	strhi	r8, [r8], -r9, lsl #10
 460:	88068707 	stmdahi	r6, {r0, r1, r2, r8, r9, sl, pc}
 464:	8a048905 	bhi	122880 <__bss_end__+0x117c68>
 468:	8e028b03 	vmlahi.f64	d8, d2, d3
 46c:	b00e4201 	andlt	r4, lr, r1, lsl #4
 470:	00000001 	andeq	r0, r0, r1
 474:	0000000c 	andeq	r0, r0, ip
 478:	ffffffff 			; <UNDEFINED> instruction: 0xffffffff
 47c:	7c020001 	stcvc	0, cr0, [r2], {1}
 480:	000d0c0e 	andeq	r0, sp, lr, lsl #24
 484:	00000014 	andeq	r0, r0, r4, lsl r0
 488:	00000474 	andeq	r0, r0, r4, ror r4
 48c:	000096f4 	strdeq	r9, [r0], -r4
 490:	00000028 	andeq	r0, r0, r8, lsr #32
 494:	83080e42 	movwhi	r0, #36418	; 0x8e42
 498:	00018e02 	andeq	r8, r1, r2, lsl #28
 49c:	0000000c 	andeq	r0, r0, ip
 4a0:	ffffffff 			; <UNDEFINED> instruction: 0xffffffff
 4a4:	7c020001 	stcvc	0, cr0, [r2], {1}
 4a8:	000d0c0e 	andeq	r0, sp, lr, lsl #24
 4ac:	00000014 	andeq	r0, r0, r4, lsl r0
 4b0:	0000049c 	muleq	r0, ip, r4
 4b4:	0000971c 	andeq	r9, r0, ip, lsl r7
 4b8:	00000034 	andeq	r0, r0, r4, lsr r0
 4bc:	83080e42 	movwhi	r0, #36418	; 0x8e42
 4c0:	00018e02 	andeq	r8, r1, r2, lsl #28
 4c4:	0000000c 	andeq	r0, r0, ip
 4c8:	ffffffff 			; <UNDEFINED> instruction: 0xffffffff
 4cc:	7c020001 	stcvc	0, cr0, [r2], {1}
 4d0:	000d0c0e 	andeq	r0, sp, lr, lsl #24
 4d4:	0000000c 	andeq	r0, r0, ip
 4d8:	000004c4 	andeq	r0, r0, r4, asr #9
 4dc:	00009750 	andeq	r9, r0, r0, asr r7
 4e0:	00000018 	andeq	r0, r0, r8, lsl r0
 4e4:	0000000c 	andeq	r0, r0, ip
 4e8:	000004c4 	andeq	r0, r0, r4, asr #9
 4ec:	00009768 	andeq	r9, r0, r8, ror #14
 4f0:	00000014 	andeq	r0, r0, r4, lsl r0
 4f4:	00000014 	andeq	r0, r0, r4, lsl r0
 4f8:	000004c4 	andeq	r0, r0, r4, asr #9
 4fc:	0000977c 	andeq	r9, r0, ip, ror r7
 500:	00000048 	andeq	r0, r0, r8, asr #32
 504:	83080e42 	movwhi	r0, #36418	; 0x8e42
 508:	00018e02 	andeq	r8, r1, r2, lsl #28
 50c:	0000000c 	andeq	r0, r0, ip
 510:	ffffffff 			; <UNDEFINED> instruction: 0xffffffff
 514:	7c020001 	stcvc	0, cr0, [r2], {1}
 518:	000d0c0e 	andeq	r0, sp, lr, lsl #24
 51c:	0000000c 	andeq	r0, r0, ip
 520:	0000050c 	andeq	r0, r0, ip, lsl #10
 524:	000097c4 	andeq	r9, r0, r4, asr #15
 528:	0000001c 	andeq	r0, r0, ip, lsl r0
 52c:	00000014 	andeq	r0, r0, r4, lsl r0
 530:	0000050c 	andeq	r0, r0, ip, lsl #10
 534:	000097e0 	andeq	r9, r0, r0, ror #15
 538:	00000014 	andeq	r0, r0, r4, lsl r0
 53c:	83080e42 	movwhi	r0, #36418	; 0x8e42
 540:	00018e02 	andeq	r8, r1, r2, lsl #28
 544:	00000014 	andeq	r0, r0, r4, lsl r0
 548:	0000050c 	andeq	r0, r0, ip, lsl #10
 54c:	000097f4 	strdeq	r9, [r0], -r4
 550:	0000000c 	andeq	r0, r0, ip
 554:	83080e42 	movwhi	r0, #36418	; 0x8e42
 558:	00018e02 	andeq	r8, r1, r2, lsl #28
 55c:	00000018 	andeq	r0, r0, r8, lsl r0
 560:	0000050c 	andeq	r0, r0, ip, lsl #10
 564:	00009800 	andeq	r9, r0, r0, lsl #16
 568:	00000024 	andeq	r0, r0, r4, lsr #32
 56c:	83100e42 	tsthi	r0, #1056	; 0x420
 570:	85038404 	strhi	r8, [r3, #-1028]	; 0x404
 574:	00018e02 	andeq	r8, r1, r2, lsl #28
 578:	00000014 	andeq	r0, r0, r4, lsl r0
 57c:	0000050c 	andeq	r0, r0, ip, lsl #10
 580:	00009824 	andeq	r9, r0, r4, lsr #16
 584:	00000014 	andeq	r0, r0, r4, lsl r0
 588:	83080e42 	movwhi	r0, #36418	; 0x8e42
 58c:	00018e02 	andeq	r8, r1, r2, lsl #28
 590:	00000014 	andeq	r0, r0, r4, lsl r0
 594:	0000050c 	andeq	r0, r0, ip, lsl #10
 598:	00009838 	andeq	r9, r0, r8, lsr r8
 59c:	00000014 	andeq	r0, r0, r4, lsl r0
 5a0:	83080e42 	movwhi	r0, #36418	; 0x8e42
 5a4:	00018e02 	andeq	r8, r1, r2, lsl #28
 5a8:	0000000c 	andeq	r0, r0, ip
 5ac:	ffffffff 			; <UNDEFINED> instruction: 0xffffffff
 5b0:	7c020001 	stcvc	0, cr0, [r2], {1}
 5b4:	000d0c0e 	andeq	r0, sp, lr, lsl #24
 5b8:	00000018 	andeq	r0, r0, r8, lsl r0
 5bc:	000005a8 	andeq	r0, r0, r8, lsr #11
 5c0:	00009898 	muleq	r0, r8, r8
 5c4:	00000020 	andeq	r0, r0, r0, lsr #32
 5c8:	84100e42 	ldrhi	r0, [r0], #-3650	; 0xe42
 5cc:	86038504 	strhi	r8, [r3], -r4, lsl #10
 5d0:	00018e02 	andeq	r8, r1, r2, lsl #28
 5d4:	00000014 	andeq	r0, r0, r4, lsl r0
 5d8:	000005a8 	andeq	r0, r0, r8, lsr #11
 5dc:	000098b8 			; <UNDEFINED> instruction: 0x000098b8
 5e0:	000000b0 	strheq	r0, [r0], -r0	; <UNPREDICTABLE>
 5e4:	84080e42 	strhi	r0, [r8], #-3650	; 0xe42
 5e8:	00018e02 	andeq	r8, r1, r2, lsl #28
 5ec:	00000014 	andeq	r0, r0, r4, lsl r0
 5f0:	000005a8 	andeq	r0, r0, r8, lsr #11
 5f4:	00009968 	andeq	r9, r0, r8, ror #18
 5f8:	00000018 	andeq	r0, r0, r8, lsl r0
 5fc:	84080e42 	strhi	r0, [r8], #-3650	; 0xe42
 600:	00018e02 	andeq	r8, r1, r2, lsl #28
 604:	00000014 	andeq	r0, r0, r4, lsl r0
 608:	000005a8 	andeq	r0, r0, r8, lsr #11
 60c:	00009980 	andeq	r9, r0, r0, lsl #19
 610:	00000020 	andeq	r0, r0, r0, lsr #32
 614:	84080e42 	strhi	r0, [r8], #-3650	; 0xe42
 618:	00018e02 	andeq	r8, r1, r2, lsl #28
 61c:	00000014 	andeq	r0, r0, r4, lsl r0
 620:	000005a8 	andeq	r0, r0, r8, lsr #11
 624:	000099a0 	andeq	r9, r0, r0, lsr #19
 628:	00000030 	andeq	r0, r0, r0, lsr r0
 62c:	84080e42 	strhi	r0, [r8], #-3650	; 0xe42
 630:	00018e02 	andeq	r8, r1, r2, lsl #28
 634:	00000014 	andeq	r0, r0, r4, lsl r0
 638:	000005a8 	andeq	r0, r0, r8, lsr #11
 63c:	000099d0 	ldrdeq	r9, [r0], -r0
 640:	00000030 	andeq	r0, r0, r0, lsr r0
 644:	84080e42 	strhi	r0, [r8], #-3650	; 0xe42
 648:	00018e02 	andeq	r8, r1, r2, lsl #28
 64c:	00000014 	andeq	r0, r0, r4, lsl r0
 650:	000005a8 	andeq	r0, r0, r8, lsr #11
 654:	00009a00 	andeq	r9, r0, r0, lsl #20
 658:	00000010 	andeq	r0, r0, r0, lsl r0
 65c:	84080e42 	strhi	r0, [r8], #-3650	; 0xe42
 660:	00018e02 	andeq	r8, r1, r2, lsl #28
 664:	0000000c 	andeq	r0, r0, ip
 668:	ffffffff 			; <UNDEFINED> instruction: 0xffffffff
 66c:	7c020001 	stcvc	0, cr0, [r2], {1}
 670:	000d0c0e 	andeq	r0, sp, lr, lsl #24
 674:	00000018 	andeq	r0, r0, r8, lsl r0
 678:	00000664 	andeq	r0, r0, r4, ror #12
 67c:	00009a10 	andeq	r9, r0, r0, lsl sl
 680:	00000068 	andeq	r0, r0, r8, rrx
 684:	84100e4a 	ldrhi	r0, [r0], #-3658	; 0xe4a
 688:	86038504 	strhi	r8, [r3], -r4, lsl #10
 68c:	00018e02 	andeq	r8, r1, r2, lsl #28
 690:	00000014 	andeq	r0, r0, r4, lsl r0
 694:	00000664 	andeq	r0, r0, r4, ror #12
 698:	00009a78 	andeq	r9, r0, r8, ror sl
 69c:	00000010 	andeq	r0, r0, r0, lsl r0
 6a0:	84080e42 	strhi	r0, [r8], #-3650	; 0xe42
 6a4:	00018e02 	andeq	r8, r1, r2, lsl #28
 6a8:	00000014 	andeq	r0, r0, r4, lsl r0
 6ac:	00000664 	andeq	r0, r0, r4, ror #12
 6b0:	00009a88 	andeq	r9, r0, r8, lsl #21
 6b4:	00000024 	andeq	r0, r0, r4, lsr #32
 6b8:	84080e46 	strhi	r0, [r8], #-3654	; 0xe46
 6bc:	00018e02 	andeq	r8, r1, r2, lsl #28
 6c0:	00000014 	andeq	r0, r0, r4, lsl r0
 6c4:	00000664 	andeq	r0, r0, r4, ror #12
 6c8:	00009aac 	andeq	r9, r0, ip, lsr #21
 6cc:	00000024 	andeq	r0, r0, r4, lsr #32
 6d0:	84080e46 	strhi	r0, [r8], #-3654	; 0xe46
 6d4:	00018e02 	andeq	r8, r1, r2, lsl #28
 6d8:	00000014 	andeq	r0, r0, r4, lsl r0
 6dc:	00000664 	andeq	r0, r0, r4, ror #12
 6e0:	00009ad0 	ldrdeq	r9, [r0], -r0
 6e4:	00000010 	andeq	r0, r0, r0, lsl r0
 6e8:	84080e42 	strhi	r0, [r8], #-3650	; 0xe42
 6ec:	00018e02 	andeq	r8, r1, r2, lsl #28
 6f0:	00000014 	andeq	r0, r0, r4, lsl r0
 6f4:	00000664 	andeq	r0, r0, r4, ror #12
 6f8:	00009ae0 	andeq	r9, r0, r0, ror #21
 6fc:	0000001c 	andeq	r0, r0, ip, lsl r0
 700:	84080e42 	strhi	r0, [r8], #-3650	; 0xe42
 704:	00018e02 	andeq	r8, r1, r2, lsl #28
 708:	00000018 	andeq	r0, r0, r8, lsl r0
 70c:	00000664 	andeq	r0, r0, r4, ror #12
 710:	00009afc 	strdeq	r9, [r0], -ip
 714:	00000034 	andeq	r0, r0, r4, lsr r0
 718:	84080e46 	strhi	r0, [r8], #-3654	; 0xe46
 71c:	4e018e02 	cdpmi	14, 0, cr8, cr1, cr2, {0}
 720:	cec4000e 	cdpgt	0, 12, cr0, cr4, cr14, {0}
 724:	0000000c 	andeq	r0, r0, ip
 728:	ffffffff 			; <UNDEFINED> instruction: 0xffffffff
 72c:	7c020001 	stcvc	0, cr0, [r2], {1}
 730:	000d0c0e 	andeq	r0, sp, lr, lsl #24
 734:	0000000c 	andeq	r0, r0, ip
 738:	00000724 	andeq	r0, r0, r4, lsr #14
 73c:	00009b30 	andeq	r9, r0, r0, lsr fp
 740:	00000010 	andeq	r0, r0, r0, lsl r0
 744:	0000000c 	andeq	r0, r0, ip
 748:	00000724 	andeq	r0, r0, r4, lsr #14
 74c:	00009b40 	andeq	r9, r0, r0, asr #22
 750:	0000000c 	andeq	r0, r0, ip
 754:	00000014 	andeq	r0, r0, r4, lsl r0
 758:	00000724 	andeq	r0, r0, r4, lsr #14
 75c:	00009b4c 	andeq	r9, r0, ip, asr #22
 760:	00000050 	andeq	r0, r0, r0, asr r0
 764:	84080e52 	strhi	r0, [r8], #-3666	; 0xe52
 768:	00018e02 	andeq	r8, r1, r2, lsl #28
 76c:	00000014 	andeq	r0, r0, r4, lsl r0
 770:	00000724 	andeq	r0, r0, r4, lsr #14
 774:	00009b9c 	muleq	r0, ip, fp
 778:	00000064 	andeq	r0, r0, r4, rrx
 77c:	84080e42 	strhi	r0, [r8], #-3650	; 0xe42
 780:	00018e02 	andeq	r8, r1, r2, lsl #28
 784:	0000000c 	andeq	r0, r0, ip
 788:	00000724 	andeq	r0, r0, r4, lsr #14
 78c:	00009c00 	andeq	r9, r0, r0, lsl #24
 790:	00000004 	andeq	r0, r0, r4
 794:	00000014 	andeq	r0, r0, r4, lsl r0
 798:	00000724 	andeq	r0, r0, r4, lsr #14
 79c:	00009c04 	andeq	r9, r0, r4, lsl #24
 7a0:	0000000c 	andeq	r0, r0, ip
 7a4:	84080e42 	strhi	r0, [r8], #-3650	; 0xe42
 7a8:	00018e02 	andeq	r8, r1, r2, lsl #28
 7ac:	00000014 	andeq	r0, r0, r4, lsl r0
 7b0:	00000724 	andeq	r0, r0, r4, lsr #14
 7b4:	00009c10 	andeq	r9, r0, r0, lsl ip
 7b8:	0000008c 	andeq	r0, r0, ip, lsl #1
 7bc:	84080e42 	strhi	r0, [r8], #-3650	; 0xe42
 7c0:	00018e02 	andeq	r8, r1, r2, lsl #28
 7c4:	0000000c 	andeq	r0, r0, ip
 7c8:	00000724 	andeq	r0, r0, r4, lsr #14
 7cc:	00009c9c 	muleq	r0, ip, ip
 7d0:	00000004 	andeq	r0, r0, r4
 7d4:	0000000c 	andeq	r0, r0, ip
 7d8:	00000724 	andeq	r0, r0, r4, lsr #14
 7dc:	00009ca0 	andeq	r9, r0, r0, lsr #25
 7e0:	00000014 	andeq	r0, r0, r4, lsl r0
 7e4:	0000000c 	andeq	r0, r0, ip
 7e8:	00000724 	andeq	r0, r0, r4, lsr #14
 7ec:	00009cb4 			; <UNDEFINED> instruction: 0x00009cb4
 7f0:	00000010 	andeq	r0, r0, r0, lsl r0

Disassembly of section .debug_ranges:

00000000 <.debug_ranges>:
   0:	0000060c 	andeq	r0, r0, ip, lsl #12
   4:	00000614 	andeq	r0, r0, r4, lsl r6
   8:	00000618 	andeq	r0, r0, r8, lsl r6
   c:	000006c4 	andeq	r0, r0, r4, asr #13
	...
  18:	00000358 	andeq	r0, r0, r8, asr r3
  1c:	0000036c 	andeq	r0, r0, ip, ror #6
  20:	00000370 	andeq	r0, r0, r0, ror r3
  24:	0000037c 	andeq	r0, r0, ip, ror r3
	...
  30:	00000400 	andeq	r0, r0, r0, lsl #8
  34:	0000040c 	andeq	r0, r0, ip, lsl #8
  38:	00000428 	andeq	r0, r0, r8, lsr #8
  3c:	00000460 	andeq	r0, r0, r0, ror #8
	...
  48:	000002a8 	andeq	r0, r0, r8, lsr #5
  4c:	000002ac 	andeq	r0, r0, ip, lsr #5
  50:	000002dc 	ldrdeq	r0, [r0], -ip
  54:	000004cc 	andeq	r0, r0, ip, asr #9
	...
  60:	00009750 	andeq	r9, r0, r0, asr r7
  64:	000097c4 	andeq	r9, r0, r4, asr #15
	...
