
tests/part2-test2.elf:     file format elf32-littlearm


Disassembly of section .text:

00008000 <_start>:
    8000:	e3a0d302 	mov	sp, #134217728	; 0x8000000
    8004:	e3a0b000 	mov	fp, #0
    8008:	eb00057c 	bl	9600 <_cstart>
    800c:	eb000593 	bl	9660 <rpi_reboot>

00008010 <test>:
    8010:	e92d4070 	push	{r4, r5, r6, lr}
    8014:	e59f6060 	ldr	r6, [pc, #96]	; 807c <test+0x6c>
    8018:	e59f0060 	ldr	r0, [pc, #96]	; 8080 <test+0x70>
    801c:	e1a01006 	mov	r1, r6
    8020:	e59f205c 	ldr	r2, [pc, #92]	; 8084 <test+0x74>
    8024:	e59f305c 	ldr	r3, [pc, #92]	; 8088 <test+0x78>
    8028:	eb0003f5 	bl	9004 <printk>
    802c:	e59f5058 	ldr	r5, [pc, #88]	; 808c <test+0x7c>
    8030:	e59f4058 	ldr	r4, [pc, #88]	; 8090 <test+0x80>
    8034:	e3a00004 	mov	r0, #4
    8038:	e1a01005 	mov	r1, r5
    803c:	e1a02004 	mov	r2, r4
    8040:	e3a0301a 	mov	r3, #26
    8044:	eb000100 	bl	844c <ckalloc>
    8048:	e5860000 	str	r0, [r6]
    804c:	e3a01000 	mov	r1, #0
    8050:	e3a02004 	mov	r2, #4
    8054:	eb0003e2 	bl	8fe4 <memset>
    8058:	e3a00004 	mov	r0, #4
    805c:	e1a01005 	mov	r1, r5
    8060:	e1a02004 	mov	r2, r4
    8064:	e3a0301d 	mov	r3, #29
    8068:	eb0000f7 	bl	844c <ckalloc>
    806c:	e1a04000 	mov	r4, r0
    8070:	eb00033d 	bl	8d6c <check_no_leak>
    8074:	e1a00004 	mov	r0, r4
    8078:	e8bd8070 	pop	{r4, r5, r6, pc}
    807c:	0000a9f0 	strdeq	sl, [r0], -r0
    8080:	00009bd8 	ldrdeq	r9, [r0], -r8
    8084:	00009bc0 	andeq	r9, r0, r0, asr #23
    8088:	00009bd0 	ldrdeq	r9, [r0], -r0
    808c:	00009c00 	andeq	r9, r0, r0, lsl #24
    8090:	00009bd0 	ldrdeq	r9, [r0], -r0

00008094 <notmain>:
    8094:	e92d4008 	push	{r3, lr}
    8098:	e59f002c 	ldr	r0, [pc, #44]	; 80cc <notmain+0x38>
    809c:	eb0003d8 	bl	9004 <printk>
    80a0:	e3a00601 	mov	r0, #1048576	; 0x100000
    80a4:	eb000661 	bl	9a30 <kmalloc_init_set_start>
    80a8:	e3a00601 	mov	r0, #1048576	; 0x100000
    80ac:	eb000673 	bl	9a80 <kmalloc>
    80b0:	e3a01601 	mov	r1, #1048576	; 0x100000
    80b4:	eb000088 	bl	82dc <ck_init>
    80b8:	ebffffd4 	bl	8010 <test>
    80bc:	e1a01000 	mov	r1, r0
    80c0:	e59f0008 	ldr	r0, [pc, #8]	; 80d0 <notmain+0x3c>
    80c4:	eb0003ce 	bl	9004 <printk>
    80c8:	e8bd8008 	pop	{r3, pc}
    80cc:	00009c14 	andeq	r9, r0, r4, lsl ip
    80d0:	00009c5c 	andeq	r9, r0, ip, asr ip

000080d4 <check_mem>:
    80d4:	e92d40f8 	push	{r3, r4, r5, r6, r7, lr}
    80d8:	e1a06002 	mov	r6, r2
    80dc:	e1a05003 	mov	r5, r3
    80e0:	e3a04000 	mov	r4, #0
    80e4:	ea00002a 	b	8194 <check_mem+0xc0>
    80e8:	e7d0c004 	ldrb	ip, [r0, r4]
    80ec:	e35c00fe 	cmp	ip, #254	; 0xfe
    80f0:	0a000026 	beq	8190 <check_mem+0xbc>
    80f4:	e59f70b8 	ldr	r7, [pc, #184]	; 81b4 <check_mem+0xe0>
    80f8:	e1a00007 	mov	r0, r7
    80fc:	eb0003c0 	bl	9004 <printk>
    8100:	e59f00b0 	ldr	r0, [pc, #176]	; 81b8 <check_mem+0xe4>
    8104:	eb0003be 	bl	9004 <printk>
    8108:	e59f00ac 	ldr	r0, [pc, #172]	; 81bc <check_mem+0xe8>
    810c:	e28510b8 	add	r1, r5, #184	; 0xb8
    8110:	e0842006 	add	r2, r4, r6
    8114:	eb0003ba 	bl	9004 <printk>
    8118:	e1a00007 	mov	r0, r7
    811c:	eb0003b8 	bl	9004 <printk>
    8120:	e59f0098 	ldr	r0, [pc, #152]	; 81c0 <check_mem+0xec>
    8124:	e5951000 	ldr	r1, [r5]
    8128:	eb0003b5 	bl	9004 <printk>
    812c:	e5953010 	ldr	r3, [r5, #16]
    8130:	e3530000 	cmp	r3, #0
    8134:	0a000006 	beq	8154 <check_mem+0x80>
    8138:	e1a00007 	mov	r0, r7
    813c:	eb0003b0 	bl	9004 <printk>
    8140:	e59f007c 	ldr	r0, [pc, #124]	; 81c4 <check_mem+0xf0>
    8144:	e5951010 	ldr	r1, [r5, #16]
    8148:	e5952014 	ldr	r2, [r5, #20]
    814c:	e5953018 	ldr	r3, [r5, #24]
    8150:	eb0003ab 	bl	9004 <printk>
    8154:	e5953008 	ldr	r3, [r5, #8]
    8158:	e353000c 	cmp	r3, #12
    815c:	1a000010 	bne	81a4 <check_mem+0xd0>
    8160:	e595301c 	ldr	r3, [r5, #28]
    8164:	e3530000 	cmp	r3, #0
    8168:	0a00000f 	beq	81ac <check_mem+0xd8>
    816c:	e59f0040 	ldr	r0, [pc, #64]	; 81b4 <check_mem+0xe0>
    8170:	eb0003a3 	bl	9004 <printk>
    8174:	e59f004c 	ldr	r0, [pc, #76]	; 81c8 <check_mem+0xf4>
    8178:	e595101c 	ldr	r1, [r5, #28]
    817c:	e5952020 	ldr	r2, [r5, #32]
    8180:	e5953024 	ldr	r3, [r5, #36]	; 0x24
    8184:	eb00039e 	bl	9004 <printk>
    8188:	e3a00000 	mov	r0, #0
    818c:	e8bd80f8 	pop	{r3, r4, r5, r6, r7, pc}
    8190:	e2844001 	add	r4, r4, #1
    8194:	e1540001 	cmp	r4, r1
    8198:	3affffd2 	bcc	80e8 <check_mem+0x14>
    819c:	e3a00001 	mov	r0, #1
    81a0:	e8bd80f8 	pop	{r3, r4, r5, r6, r7, pc}
    81a4:	e3a00000 	mov	r0, #0
    81a8:	e8bd80f8 	pop	{r3, r4, r5, r6, r7, pc}
    81ac:	e3a00000 	mov	r0, #0
    81b0:	e8bd80f8 	pop	{r3, r4, r5, r6, r7, pc}
    81b4:	00009c84 	andeq	r9, r0, r4, lsl #25
    81b8:	00009c8c 	andeq	r9, r0, ip, lsl #25
    81bc:	00009c94 	muleq	r0, r4, ip
    81c0:	00009cb8 			; <UNDEFINED> instruction: 0x00009cb8
    81c4:	00009cc4 	andeq	r9, r0, r4, asr #25
    81c8:	00009ce4 	andeq	r9, r0, r4, ror #25

000081cc <mark_mem>:
    81cc:	e92d4008 	push	{r3, lr}
    81d0:	e1a02001 	mov	r2, r1
    81d4:	e3a010fe 	mov	r1, #254	; 0xfe
    81d8:	eb000381 	bl	8fe4 <memset>
    81dc:	e8bd8008 	pop	{r3, pc}

000081e0 <hdr_cksum>:
    81e0:	e92d41f0 	push	{r4, r5, r6, r7, r8, lr}
    81e4:	e1a04000 	mov	r4, r0
    81e8:	e590800c 	ldr	r8, [r0, #12]
    81ec:	e5907028 	ldr	r7, [r0, #40]	; 0x28
    81f0:	e590602c 	ldr	r6, [r0, #44]	; 0x2c
    81f4:	e1d053b4 	ldrh	r5, [r0, #52]	; 0x34
    81f8:	e3a03000 	mov	r3, #0
    81fc:	e580300c 	str	r3, [r0, #12]
    8200:	e5803028 	str	r3, [r0, #40]	; 0x28
    8204:	e580302c 	str	r3, [r0, #44]	; 0x2c
    8208:	e1c033b4 	strh	r3, [r0, #52]	; 0x34
    820c:	e3a01038 	mov	r1, #56	; 0x38
    8210:	eb000337 	bl	8ef4 <fast_hash>
    8214:	e584800c 	str	r8, [r4, #12]
    8218:	e5847028 	str	r7, [r4, #40]	; 0x28
    821c:	e584602c 	str	r6, [r4, #44]	; 0x2c
    8220:	e1c453b4 	strh	r5, [r4, #52]	; 0x34
    8224:	e8bd81f0 	pop	{r4, r5, r6, r7, r8, pc}

00008228 <check_hdr>:
    8228:	e92d4010 	push	{r4, lr}
    822c:	e1a04000 	mov	r4, r0
    8230:	ebffffea 	bl	81e0 <hdr_cksum>
    8234:	e594300c 	ldr	r3, [r4, #12]
    8238:	e1500003 	cmp	r0, r3
    823c:	1a000005 	bne	8258 <check_hdr+0x30>
    8240:	e5943008 	ldr	r3, [r4, #8]
    8244:	e243300b 	sub	r3, r3, #11
    8248:	e3530001 	cmp	r3, #1
    824c:	9a000003 	bls	8260 <check_hdr+0x38>
    8250:	e3a00000 	mov	r0, #0
    8254:	e8bd8010 	pop	{r4, pc}
    8258:	e3a00000 	mov	r0, #0
    825c:	e8bd8010 	pop	{r4, pc}
    8260:	e3a00001 	mov	r0, #1
    8264:	e8bd8010 	pop	{r4, pc}

00008268 <check_block>:
    8268:	e92d4010 	push	{r4, lr}
    826c:	e1a04000 	mov	r4, r0
    8270:	ebffffec 	bl	8228 <check_hdr>
    8274:	e3500000 	cmp	r0, #0
    8278:	0a000011 	beq	82c4 <check_block+0x5c>
    827c:	e2840038 	add	r0, r4, #56	; 0x38
    8280:	e3a01080 	mov	r1, #128	; 0x80
    8284:	e3e0207f 	mvn	r2, #127	; 0x7f
    8288:	e1a03004 	mov	r3, r4
    828c:	ebffff90 	bl	80d4 <check_mem>
    8290:	e3500000 	cmp	r0, #0
    8294:	0a00000c 	beq	82cc <check_block+0x64>
    8298:	e28400b8 	add	r0, r4, #184	; 0xb8
    829c:	e5942000 	ldr	r2, [r4]
    82a0:	e5941004 	ldr	r1, [r4, #4]
    82a4:	e0800002 	add	r0, r0, r2
    82a8:	e2811080 	add	r1, r1, #128	; 0x80
    82ac:	e1a03004 	mov	r3, r4
    82b0:	ebffff87 	bl	80d4 <check_mem>
    82b4:	e3500000 	cmp	r0, #0
    82b8:	0a000005 	beq	82d4 <check_block+0x6c>
    82bc:	e3a00001 	mov	r0, #1
    82c0:	e8bd8010 	pop	{r4, pc}
    82c4:	e3a00000 	mov	r0, #0
    82c8:	e8bd8010 	pop	{r4, pc}
    82cc:	e3a00000 	mov	r0, #0
    82d0:	e8bd8010 	pop	{r4, pc}
    82d4:	e3a00000 	mov	r0, #0
    82d8:	e8bd8010 	pop	{r4, pc}

000082dc <ck_init>:
    82dc:	e92d4038 	push	{r3, r4, r5, lr}
    82e0:	e1a04000 	mov	r4, r0
    82e4:	e1a05001 	mov	r5, r1
    82e8:	e3100007 	tst	r0, #7
    82ec:	0a000006 	beq	830c <ck_init+0x30>
    82f0:	eb00035e 	bl	9070 <rpi_reset_putc>
    82f4:	e59f004c 	ldr	r0, [pc, #76]	; 8348 <ck_init+0x6c>
    82f8:	e59f104c 	ldr	r1, [pc, #76]	; 834c <ck_init+0x70>
    82fc:	e59f204c 	ldr	r2, [pc, #76]	; 8350 <ck_init+0x74>
    8300:	e3a0300d 	mov	r3, #13
    8304:	eb00033e 	bl	9004 <printk>
    8308:	eb0004b2 	bl	95d8 <clean_reboot>
    830c:	e59f0040 	ldr	r0, [pc, #64]	; 8354 <ck_init+0x78>
    8310:	e3a01038 	mov	r1, #56	; 0x38
    8314:	e3a02080 	mov	r2, #128	; 0x80
    8318:	eb000339 	bl	9004 <printk>
    831c:	e59f3034 	ldr	r3, [pc, #52]	; 8358 <ck_init+0x7c>
    8320:	e5834000 	str	r4, [r3]
    8324:	e5834004 	str	r4, [r3, #4]
    8328:	e0845005 	add	r5, r4, r5
    832c:	e5835008 	str	r5, [r3, #8]
    8330:	e583400c 	str	r4, [r3, #12]
    8334:	e5834010 	str	r4, [r3, #16]
    8338:	e3a02000 	mov	r2, #0
    833c:	e5832014 	str	r2, [r3, #20]
    8340:	e5832018 	str	r2, [r3, #24]
    8344:	e8bd8038 	pop	{r3, r4, r5, pc}
    8348:	00009d00 	andeq	r9, r0, r0, lsl #26
    834c:	00009d24 	andeq	r9, r0, r4, lsr #26
    8350:	00009c6c 	andeq	r9, r0, ip, ror #24
    8354:	00009d30 	andeq	r9, r0, r0, lsr sp
    8358:	0000a5c4 	andeq	sl, r0, r4, asr #11

0000835c <ckfree>:
    835c:	e92d41f0 	push	{r4, r5, r6, r7, r8, lr}
    8360:	e1a04000 	mov	r4, r0
    8364:	e1a08001 	mov	r8, r1
    8368:	e1a07002 	mov	r7, r2
    836c:	e1a06003 	mov	r6, r3
    8370:	e59f00b8 	ldr	r0, [pc, #184]	; 8430 <ckfree+0xd4>
    8374:	e5900004 	ldr	r0, [r0, #4]
    8378:	e3500000 	cmp	r0, #0
    837c:	1a000006 	bne	839c <ckfree+0x40>
    8380:	eb00033a 	bl	9070 <rpi_reset_putc>
    8384:	e59f00a8 	ldr	r0, [pc, #168]	; 8434 <ckfree+0xd8>
    8388:	e59f10a8 	ldr	r1, [pc, #168]	; 8438 <ckfree+0xdc>
    838c:	e59f20a8 	ldr	r2, [pc, #168]	; 843c <ckfree+0xe0>
    8390:	e3a0305f 	mov	r3, #95	; 0x5f
    8394:	eb00031a 	bl	9004 <printk>
    8398:	eb00048e 	bl	95d8 <clean_reboot>
    839c:	e59f009c 	ldr	r0, [pc, #156]	; 8440 <ckfree+0xe4>
    83a0:	eb000317 	bl	9004 <printk>
    83a4:	e59f0098 	ldr	r0, [pc, #152]	; 8444 <ckfree+0xe8>
    83a8:	e1a01004 	mov	r1, r4
    83ac:	eb000314 	bl	9004 <printk>
    83b0:	e24450b8 	sub	r5, r4, #184	; 0xb8
    83b4:	e1a00005 	mov	r0, r5
    83b8:	ebffffaa 	bl	8268 <check_block>
    83bc:	e51430b0 	ldr	r3, [r4, #-176]	; 0xb0
    83c0:	e353000b 	cmp	r3, #11
    83c4:	0a000006 	beq	83e4 <ckfree+0x88>
    83c8:	eb000328 	bl	9070 <rpi_reset_putc>
    83cc:	e59f0074 	ldr	r0, [pc, #116]	; 8448 <ckfree+0xec>
    83d0:	e59f1060 	ldr	r1, [pc, #96]	; 8438 <ckfree+0xdc>
    83d4:	e59f2060 	ldr	r2, [pc, #96]	; 843c <ckfree+0xe0>
    83d8:	e3a03067 	mov	r3, #103	; 0x67
    83dc:	eb000308 	bl	9004 <printk>
    83e0:	eb00047c 	bl	95d8 <clean_reboot>
    83e4:	e3a0300c 	mov	r3, #12
    83e8:	e50430b0 	str	r3, [r4, #-176]	; 0xb0
    83ec:	e504809c 	str	r8, [r4, #-156]	; 0x9c
    83f0:	e5047098 	str	r7, [r4, #-152]	; 0x98
    83f4:	e5046094 	str	r6, [r4, #-148]	; 0x94
    83f8:	e51410b4 	ldr	r1, [r4, #-180]	; 0xb4
    83fc:	e51430b8 	ldr	r3, [r4, #-184]	; 0xb8
    8400:	e1a00004 	mov	r0, r4
    8404:	e0811003 	add	r1, r1, r3
    8408:	ebffff6f 	bl	81cc <mark_mem>
    840c:	e51420b8 	ldr	r2, [r4, #-184]	; 0xb8
    8410:	e59f3018 	ldr	r3, [pc, #24]	; 8430 <ckfree+0xd4>
    8414:	e5931014 	ldr	r1, [r3, #20]
    8418:	e0812002 	add	r2, r1, r2
    841c:	e5832014 	str	r2, [r3, #20]
    8420:	e1a00005 	mov	r0, r5
    8424:	ebffff6d 	bl	81e0 <hdr_cksum>
    8428:	e50400ac 	str	r0, [r4, #-172]	; 0xac
    842c:	e8bd81f0 	pop	{r4, r5, r6, r7, r8, pc}
    8430:	0000a5c4 	andeq	sl, r0, r4, asr #11
    8434:	00009d4c 	andeq	r9, r0, ip, asr #26
    8438:	00009d24 	andeq	r9, r0, r4, lsr #26
    843c:	00009c74 	andeq	r9, r0, r4, ror ip
    8440:	00009c84 	andeq	r9, r0, r4, lsl #25
    8444:	00009d80 	andeq	r9, r0, r0, lsl #27
    8448:	00009d8c 	andeq	r9, r0, ip, lsl #27

0000844c <ckalloc>:
    844c:	e92d43f0 	push	{r4, r5, r6, r7, r8, r9, lr}
    8450:	e24dd00c 	sub	sp, sp, #12
    8454:	e1a05000 	mov	r5, r0
    8458:	e1a09001 	mov	r9, r1
    845c:	e1a08002 	mov	r8, r2
    8460:	e1a07003 	mov	r7, r3
    8464:	e59f31d4 	ldr	r3, [pc, #468]	; 8640 <ckalloc+0x1f4>
    8468:	e5933004 	ldr	r3, [r3, #4]
    846c:	e3530000 	cmp	r3, #0
    8470:	1a000006 	bne	8490 <ckalloc+0x44>
    8474:	eb0002fd 	bl	9070 <rpi_reset_putc>
    8478:	e59f01c4 	ldr	r0, [pc, #452]	; 8644 <ckalloc+0x1f8>
    847c:	e59f11c4 	ldr	r1, [pc, #452]	; 8648 <ckalloc+0x1fc>
    8480:	e59f21c4 	ldr	r2, [pc, #452]	; 864c <ckalloc+0x200>
    8484:	e3a03083 	mov	r3, #131	; 0x83
    8488:	eb0002dd 	bl	9004 <printk>
    848c:	eb000451 	bl	95d8 <clean_reboot>
    8490:	e59f01b8 	ldr	r0, [pc, #440]	; 8650 <ckalloc+0x204>
    8494:	eb0002da 	bl	9004 <printk>
    8498:	e59f01b4 	ldr	r0, [pc, #436]	; 8654 <ckalloc+0x208>
    849c:	e1a01005 	mov	r1, r5
    84a0:	eb0002d7 	bl	9004 <printk>
    84a4:	e2852007 	add	r2, r5, #7
    84a8:	e3c22007 	bic	r2, r2, #7
    84ac:	e2826f4e 	add	r6, r2, #312	; 0x138
    84b0:	e1560005 	cmp	r6, r5
    84b4:	2a00000c 	bcs	84ec <ckalloc+0xa0>
    84b8:	e59f0198 	ldr	r0, [pc, #408]	; 8658 <ckalloc+0x20c>
    84bc:	eb0002d0 	bl	9004 <printk>
    84c0:	e59f0194 	ldr	r0, [pc, #404]	; 865c <ckalloc+0x210>
    84c4:	e1a01005 	mov	r1, r5
    84c8:	eb0002cd 	bl	9004 <printk>
    84cc:	eb0002e7 	bl	9070 <rpi_reset_putc>
    84d0:	e58d5000 	str	r5, [sp]
    84d4:	e59f0184 	ldr	r0, [pc, #388]	; 8660 <ckalloc+0x214>
    84d8:	e59f1168 	ldr	r1, [pc, #360]	; 8648 <ckalloc+0x1fc>
    84dc:	e59f2168 	ldr	r2, [pc, #360]	; 864c <ckalloc+0x200>
    84e0:	e3a0308b 	mov	r3, #139	; 0x8b
    84e4:	eb0002c6 	bl	9004 <printk>
    84e8:	eb00043a 	bl	95d8 <clean_reboot>
    84ec:	e59f314c 	ldr	r3, [pc, #332]	; 8640 <ckalloc+0x1f4>
    84f0:	e5934004 	ldr	r4, [r3, #4]
    84f4:	e084c006 	add	ip, r4, r6
    84f8:	e5933008 	ldr	r3, [r3, #8]
    84fc:	e15c0003 	cmp	ip, r3
    8500:	3a000014 	bcc	8558 <ckalloc+0x10c>
    8504:	e59f014c 	ldr	r0, [pc, #332]	; 8658 <ckalloc+0x20c>
    8508:	eb0002bd 	bl	9004 <printk>
    850c:	e59f412c 	ldr	r4, [pc, #300]	; 8640 <ckalloc+0x1f4>
    8510:	e5941008 	ldr	r1, [r4, #8]
    8514:	e5943004 	ldr	r3, [r4, #4]
    8518:	e59f0144 	ldr	r0, [pc, #324]	; 8664 <ckalloc+0x218>
    851c:	e0631001 	rsb	r1, r3, r1
    8520:	e1a02006 	mov	r2, r6
    8524:	eb0002b6 	bl	9004 <printk>
    8528:	eb0002d0 	bl	9070 <rpi_reset_putc>
    852c:	e5942008 	ldr	r2, [r4, #8]
    8530:	e5943004 	ldr	r3, [r4, #4]
    8534:	e0633002 	rsb	r3, r3, r2
    8538:	e58d3000 	str	r3, [sp]
    853c:	e58d6004 	str	r6, [sp, #4]
    8540:	e59f0120 	ldr	r0, [pc, #288]	; 8668 <ckalloc+0x21c>
    8544:	e59f10fc 	ldr	r1, [pc, #252]	; 8648 <ckalloc+0x1fc>
    8548:	e59f20fc 	ldr	r2, [pc, #252]	; 864c <ckalloc+0x200>
    854c:	e3a0308f 	mov	r3, #143	; 0x8f
    8550:	eb0002ab 	bl	9004 <printk>
    8554:	eb00041f 	bl	95d8 <clean_reboot>
    8558:	e59f00e0 	ldr	r0, [pc, #224]	; 8640 <ckalloc+0x1f4>
    855c:	e580c004 	str	ip, [r0, #4]
    8560:	e5845000 	str	r5, [r4]
    8564:	e5903018 	ldr	r3, [r0, #24]
    8568:	e0833005 	add	r3, r3, r5
    856c:	e5803018 	str	r3, [r0, #24]
    8570:	e580c010 	str	ip, [r0, #16]
    8574:	e0652002 	rsb	r2, r5, r2
    8578:	e5842004 	str	r2, [r4, #4]
    857c:	e3a0300b 	mov	r3, #11
    8580:	e5843008 	str	r3, [r4, #8]
    8584:	e5849010 	str	r9, [r4, #16]
    8588:	e5848014 	str	r8, [r4, #20]
    858c:	e5847018 	str	r7, [r4, #24]
    8590:	e1a00004 	mov	r0, r4
    8594:	ebffff11 	bl	81e0 <hdr_cksum>
    8598:	e584000c 	str	r0, [r4, #12]
    859c:	e2840038 	add	r0, r4, #56	; 0x38
    85a0:	e3a01080 	mov	r1, #128	; 0x80
    85a4:	ebffff08 	bl	81cc <mark_mem>
    85a8:	e28470b8 	add	r7, r4, #184	; 0xb8
    85ac:	e5940000 	ldr	r0, [r4]
    85b0:	e5941004 	ldr	r1, [r4, #4]
    85b4:	e0870000 	add	r0, r7, r0
    85b8:	e2811080 	add	r1, r1, #128	; 0x80
    85bc:	ebffff02 	bl	81cc <mark_mem>
    85c0:	e1a00004 	mov	r0, r4
    85c4:	ebffff17 	bl	8228 <check_hdr>
    85c8:	e3500000 	cmp	r0, #0
    85cc:	1a000006 	bne	85ec <ckalloc+0x1a0>
    85d0:	eb0002a6 	bl	9070 <rpi_reset_putc>
    85d4:	e59f0090 	ldr	r0, [pc, #144]	; 866c <ckalloc+0x220>
    85d8:	e59f1068 	ldr	r1, [pc, #104]	; 8648 <ckalloc+0x1fc>
    85dc:	e59f2068 	ldr	r2, [pc, #104]	; 864c <ckalloc+0x200>
    85e0:	e3a030a5 	mov	r3, #165	; 0xa5
    85e4:	eb000286 	bl	9004 <printk>
    85e8:	eb0003fa 	bl	95d8 <clean_reboot>
    85ec:	e1a00004 	mov	r0, r4
    85f0:	ebffff1c 	bl	8268 <check_block>
    85f4:	e3500000 	cmp	r0, #0
    85f8:	1a000006 	bne	8618 <ckalloc+0x1cc>
    85fc:	eb00029b 	bl	9070 <rpi_reset_putc>
    8600:	e59f0068 	ldr	r0, [pc, #104]	; 8670 <ckalloc+0x224>
    8604:	e59f103c 	ldr	r1, [pc, #60]	; 8648 <ckalloc+0x1fc>
    8608:	e59f203c 	ldr	r2, [pc, #60]	; 864c <ckalloc+0x200>
    860c:	e3a030a6 	mov	r3, #166	; 0xa6
    8610:	eb00027b 	bl	9004 <printk>
    8614:	eb0003ef 	bl	95d8 <clean_reboot>
    8618:	e59f0030 	ldr	r0, [pc, #48]	; 8650 <ckalloc+0x204>
    861c:	eb000278 	bl	9004 <printk>
    8620:	e59f004c 	ldr	r0, [pc, #76]	; 8674 <ckalloc+0x228>
    8624:	e1a01005 	mov	r1, r5
    8628:	e1a02006 	mov	r2, r6
    862c:	e1a03007 	mov	r3, r7
    8630:	eb000273 	bl	9004 <printk>
    8634:	e1a00007 	mov	r0, r7
    8638:	e28dd00c 	add	sp, sp, #12
    863c:	e8bd83f0 	pop	{r4, r5, r6, r7, r8, r9, pc}
    8640:	0000a5c4 	andeq	sl, r0, r4, asr #11
    8644:	00009d4c 	andeq	r9, r0, ip, asr #26
    8648:	00009d24 	andeq	r9, r0, r4, lsr #26
    864c:	00009c7c 	andeq	r9, r0, ip, ror ip
    8650:	00009c84 	andeq	r9, r0, r4, lsl #25
    8654:	00009db0 			; <UNDEFINED> instruction: 0x00009db0
    8658:	00009dc8 	andeq	r9, r0, r8, asr #27
    865c:	00009dd4 	ldrdeq	r9, [r0], -r4
    8660:	00009dfc 	strdeq	r9, [r0], -ip
    8664:	00009e34 	andeq	r9, r0, r4, lsr lr
    8668:	00009e60 	andeq	r9, r0, r0, ror #28
    866c:	00009e9c 	muleq	r0, ip, lr
    8670:	00009ebc 			; <UNDEFINED> instruction: 0x00009ebc
    8674:	00009edc 	ldrdeq	r9, [r0], -ip

00008678 <check_data>:
    8678:	e92d4008 	push	{r3, lr}
    867c:	e1a03000 	mov	r3, r0
    8680:	e5902008 	ldr	r2, [r0, #8]
    8684:	e352000c 	cmp	r2, #12
    8688:	1a000004 	bne	86a0 <check_data+0x28>
    868c:	e28000b8 	add	r0, r0, #184	; 0xb8
    8690:	e5931000 	ldr	r1, [r3]
    8694:	e3a02000 	mov	r2, #0
    8698:	ebfffe8d 	bl	80d4 <check_mem>
    869c:	e8bd8008 	pop	{r3, pc}
    86a0:	e3a00001 	mov	r0, #1
    86a4:	e8bd8008 	pop	{r3, pc}

000086a8 <ck_heap_errors>:
    86a8:	e92d47f0 	push	{r4, r5, r6, r7, r8, r9, sl, lr}
    86ac:	e59f410c 	ldr	r4, [pc, #268]	; 87c0 <ck_heap_errors+0x118>
    86b0:	e5943004 	ldr	r3, [r4, #4]
    86b4:	e5946000 	ldr	r6, [r4]
    86b8:	e0666003 	rsb	r6, r6, r3
    86bc:	e5945008 	ldr	r5, [r4, #8]
    86c0:	e0635005 	rsb	r5, r3, r5
    86c4:	e59f00f8 	ldr	r0, [pc, #248]	; 87c4 <ck_heap_errors+0x11c>
    86c8:	eb00024d 	bl	9004 <printk>
    86cc:	e59f00f4 	ldr	r0, [pc, #244]	; 87c8 <ck_heap_errors+0x120>
    86d0:	e1a01006 	mov	r1, r6
    86d4:	e1a02005 	mov	r2, r5
    86d8:	eb000249 	bl	9004 <printk>
    86dc:	e5944000 	ldr	r4, [r4]
    86e0:	e3a05000 	mov	r5, #0
    86e4:	e1a06005 	mov	r6, r5
    86e8:	e59f70d0 	ldr	r7, [pc, #208]	; 87c0 <ck_heap_errors+0x118>
    86ec:	e59fa0d8 	ldr	sl, [pc, #216]	; 87cc <ck_heap_errors+0x124>
    86f0:	e59f90cc 	ldr	r9, [pc, #204]	; 87c4 <ck_heap_errors+0x11c>
    86f4:	e59f80d4 	ldr	r8, [pc, #212]	; 87d0 <ck_heap_errors+0x128>
    86f8:	ea00001d 	b	8774 <ck_heap_errors+0xcc>
    86fc:	e2855001 	add	r5, r5, #1
    8700:	e1a00004 	mov	r0, r4
    8704:	ebfffec7 	bl	8228 <check_hdr>
    8708:	e3500000 	cmp	r0, #0
    870c:	1a000003 	bne	8720 <ck_heap_errors+0x78>
    8710:	e59f00bc 	ldr	r0, [pc, #188]	; 87d4 <ck_heap_errors+0x12c>
    8714:	eb00023a 	bl	9004 <printk>
    8718:	e3a00001 	mov	r0, #1
    871c:	e8bd87f0 	pop	{r4, r5, r6, r7, r8, r9, sl, pc}
    8720:	e1a00004 	mov	r0, r4
    8724:	ebfffecf 	bl	8268 <check_block>
    8728:	e3500000 	cmp	r0, #0
    872c:	1a000002 	bne	873c <ck_heap_errors+0x94>
    8730:	e1a0000a 	mov	r0, sl
    8734:	eb000232 	bl	9004 <printk>
    8738:	e2866001 	add	r6, r6, #1
    873c:	e1a00004 	mov	r0, r4
    8740:	ebffffcc 	bl	8678 <check_data>
    8744:	e3500000 	cmp	r0, #0
    8748:	1a000004 	bne	8760 <ck_heap_errors+0xb8>
    874c:	e1a00009 	mov	r0, r9
    8750:	eb00022b 	bl	9004 <printk>
    8754:	e1a00008 	mov	r0, r8
    8758:	eb000229 	bl	9004 <printk>
    875c:	e2866001 	add	r6, r6, #1
    8760:	e5942000 	ldr	r2, [r4]
    8764:	e5943004 	ldr	r3, [r4, #4]
    8768:	e0823003 	add	r3, r2, r3
    876c:	e2833f4e 	add	r3, r3, #312	; 0x138
    8770:	e0844003 	add	r4, r4, r3
    8774:	e5973004 	ldr	r3, [r7, #4]
    8778:	e1540003 	cmp	r4, r3
    877c:	1affffde 	bne	86fc <ck_heap_errors+0x54>
    8780:	e3560000 	cmp	r6, #0
    8784:	0a000006 	beq	87a4 <ck_heap_errors+0xfc>
    8788:	e59f0034 	ldr	r0, [pc, #52]	; 87c4 <ck_heap_errors+0x11c>
    878c:	eb00021c 	bl	9004 <printk>
    8790:	e59f0040 	ldr	r0, [pc, #64]	; 87d8 <ck_heap_errors+0x130>
    8794:	e1a01005 	mov	r1, r5
    8798:	e1a02006 	mov	r2, r6
    879c:	eb000218 	bl	9004 <printk>
    87a0:	ea000004 	b	87b8 <ck_heap_errors+0x110>
    87a4:	e59f0018 	ldr	r0, [pc, #24]	; 87c4 <ck_heap_errors+0x11c>
    87a8:	eb000215 	bl	9004 <printk>
    87ac:	e59f0028 	ldr	r0, [pc, #40]	; 87dc <ck_heap_errors+0x134>
    87b0:	e1a01005 	mov	r1, r5
    87b4:	eb000212 	bl	9004 <printk>
    87b8:	e1a00006 	mov	r0, r6
    87bc:	e8bd87f0 	pop	{r4, r5, r6, r7, r8, r9, sl, pc}
    87c0:	0000a5c4 	andeq	sl, r0, r4, asr #11
    87c4:	00009c84 	andeq	r9, r0, r4, lsl #25
    87c8:	00009f0c 	andeq	r9, r0, ip, lsl #30
    87cc:	00009f58 	andeq	r9, r0, r8, asr pc
    87d0:	00009f6c 	andeq	r9, r0, ip, ror #30
    87d4:	00009f44 	andeq	r9, r0, r4, asr #30
    87d8:	00009f88 	andeq	r9, r0, r8, lsl #31
    87dc:	00009fb0 			; <UNDEFINED> instruction: 0x00009fb0

000087e0 <ck_first_hdr>:
    87e0:	e92d4010 	push	{r4, lr}
    87e4:	e59f3010 	ldr	r3, [pc, #16]	; 87fc <ck_first_hdr+0x1c>
    87e8:	e5934000 	ldr	r4, [r3]
    87ec:	e1a00004 	mov	r0, r4
    87f0:	ebfffe8c 	bl	8228 <check_hdr>
    87f4:	e1a00004 	mov	r0, r4
    87f8:	e8bd8010 	pop	{r4, pc}
    87fc:	0000a5c4 	andeq	sl, r0, r4, asr #11

00008800 <ck_next_hdr>:
    8800:	e92d4010 	push	{r4, lr}
    8804:	e5904000 	ldr	r4, [r0]
    8808:	e2844007 	add	r4, r4, #7
    880c:	e3c44007 	bic	r4, r4, #7
    8810:	e2844f4e 	add	r4, r4, #312	; 0x138
    8814:	e0804004 	add	r4, r0, r4
    8818:	e59f3020 	ldr	r3, [pc, #32]	; 8840 <ck_next_hdr+0x40>
    881c:	e5933004 	ldr	r3, [r3, #4]
    8820:	e1540003 	cmp	r4, r3
    8824:	0a000003 	beq	8838 <ck_next_hdr+0x38>
    8828:	e1a00004 	mov	r0, r4
    882c:	ebfffe7d 	bl	8228 <check_hdr>
    8830:	e1a00004 	mov	r0, r4
    8834:	e8bd8010 	pop	{r4, pc}
    8838:	e3a00000 	mov	r0, #0
    883c:	e8bd8010 	pop	{r4, pc}
    8840:	0000a5c4 	andeq	sl, r0, r4, asr #11

00008844 <heap_info>:
    8844:	e1a0c000 	mov	ip, r0
    8848:	e59f300c 	ldr	r3, [pc, #12]	; 885c <heap_info+0x18>
    884c:	e893000f 	ldm	r3, {r0, r1, r2, r3}
    8850:	e88c000f 	stm	ip, {r0, r1, r2, r3}
    8854:	e1a0000c 	mov	r0, ip
    8858:	e12fff1e 	bx	lr
    885c:	0000a5d0 	ldrdeq	sl, [r0], -r0

00008860 <in_heap>:
    8860:	e59f3030 	ldr	r3, [pc, #48]	; 8898 <in_heap+0x38>
    8864:	e5933000 	ldr	r3, [r3]
    8868:	e1530000 	cmp	r3, r0
    886c:	8a000005 	bhi	8888 <in_heap+0x28>
    8870:	e59f3020 	ldr	r3, [pc, #32]	; 8898 <in_heap+0x38>
    8874:	e5933004 	ldr	r3, [r3, #4]
    8878:	e1530000 	cmp	r3, r0
    887c:	2a000003 	bcs	8890 <in_heap+0x30>
    8880:	e3a00000 	mov	r0, #0
    8884:	e12fff1e 	bx	lr
    8888:	e3a00000 	mov	r0, #0
    888c:	e12fff1e 	bx	lr
    8890:	e3a00001 	mov	r0, #1
    8894:	e12fff1e 	bx	lr
    8898:	0000a5e0 	andeq	sl, r0, r0, ror #11

0000889c <is_ptr>:
    889c:	e92d4010 	push	{r4, lr}
    88a0:	e1a04000 	mov	r4, r0
    88a4:	ebffffed 	bl	8860 <in_heap>
    88a8:	e3500000 	cmp	r0, #0
    88ac:	0a000016 	beq	890c <is_ptr+0x70>
    88b0:	ebffffca 	bl	87e0 <ck_first_hdr>
    88b4:	ea000011 	b	8900 <is_ptr+0x64>
    88b8:	e28030b8 	add	r3, r0, #184	; 0xb8
    88bc:	e1530004 	cmp	r3, r4
    88c0:	1a000003 	bne	88d4 <is_ptr+0x38>
    88c4:	e5903028 	ldr	r3, [r0, #40]	; 0x28
    88c8:	e2833001 	add	r3, r3, #1
    88cc:	e5803028 	str	r3, [r0, #40]	; 0x28
    88d0:	e8bd8010 	pop	{r4, pc}
    88d4:	e1540003 	cmp	r4, r3
    88d8:	9a000007 	bls	88fc <is_ptr+0x60>
    88dc:	e5902000 	ldr	r2, [r0]
    88e0:	e0833002 	add	r3, r3, r2
    88e4:	e1530004 	cmp	r3, r4
    88e8:	3a000003 	bcc	88fc <is_ptr+0x60>
    88ec:	e590302c 	ldr	r3, [r0, #44]	; 0x2c
    88f0:	e2833001 	add	r3, r3, #1
    88f4:	e580302c 	str	r3, [r0, #44]	; 0x2c
    88f8:	e8bd8010 	pop	{r4, pc}
    88fc:	ebffffbf 	bl	8800 <ck_next_hdr>
    8900:	e3500000 	cmp	r0, #0
    8904:	1affffeb 	bne	88b8 <is_ptr+0x1c>
    8908:	e8bd8010 	pop	{r4, pc}
    890c:	e3a00000 	mov	r0, #0
    8910:	e8bd8010 	pop	{r4, pc}

00008914 <sweep_leak>:
    8914:	e92d4ff8 	push	{r3, r4, r5, r6, r7, r8, r9, sl, fp, lr}
    8918:	e1a09000 	mov	r9, r0
    891c:	e59f0100 	ldr	r0, [pc, #256]	; 8a24 <sweep_leak+0x110>
    8920:	eb0001b7 	bl	9004 <printk>
    8924:	e59f00fc 	ldr	r0, [pc, #252]	; 8a28 <sweep_leak+0x114>
    8928:	eb0001b5 	bl	9004 <printk>
    892c:	ebffffab 	bl	87e0 <ck_first_hdr>
    8930:	e1a04000 	mov	r4, r0
    8934:	e3a06000 	mov	r6, #0
    8938:	e1a07006 	mov	r7, r6
    893c:	e1a05006 	mov	r5, r6
    8940:	e1a08006 	mov	r8, r6
    8944:	e59fa0e0 	ldr	sl, [pc, #224]	; 8a2c <sweep_leak+0x118>
    8948:	e59fb0e0 	ldr	fp, [pc, #224]	; 8a30 <sweep_leak+0x11c>
    894c:	ea00001c 	b	89c4 <sweep_leak+0xb0>
    8950:	e5943008 	ldr	r3, [r4, #8]
    8954:	e353000b 	cmp	r3, #11
    8958:	1a000015 	bne	89b4 <sweep_leak+0xa0>
    895c:	e1d433b4 	ldrh	r3, [r4, #52]	; 0x34
    8960:	e3530000 	cmp	r3, #0
    8964:	1a000006 	bne	8984 <sweep_leak+0x70>
    8968:	e1a0000a 	mov	r0, sl
    896c:	eb0001a4 	bl	9004 <printk>
    8970:	e1a0000b 	mov	r0, fp
    8974:	e28410b8 	add	r1, r4, #184	; 0xb8
    8978:	eb0001a1 	bl	9004 <printk>
    897c:	e2877001 	add	r7, r7, #1
    8980:	ea00000b 	b	89b4 <sweep_leak+0xa0>
    8984:	e1c483b4 	strh	r8, [r4, #52]	; 0x34
    8988:	e3590000 	cmp	r9, #0
    898c:	0a000008 	beq	89b4 <sweep_leak+0xa0>
    8990:	e5943028 	ldr	r3, [r4, #40]	; 0x28
    8994:	e3530000 	cmp	r3, #0
    8998:	1a000005 	bne	89b4 <sweep_leak+0xa0>
    899c:	e1a0000a 	mov	r0, sl
    89a0:	eb000197 	bl	9004 <printk>
    89a4:	e59f0088 	ldr	r0, [pc, #136]	; 8a34 <sweep_leak+0x120>
    89a8:	e28410b8 	add	r1, r4, #184	; 0xb8
    89ac:	eb000194 	bl	9004 <printk>
    89b0:	e2866001 	add	r6, r6, #1
    89b4:	e2855001 	add	r5, r5, #1
    89b8:	e1a00004 	mov	r0, r4
    89bc:	ebffff8f 	bl	8800 <ck_next_hdr>
    89c0:	e1a04000 	mov	r4, r0
    89c4:	e3540000 	cmp	r4, #0
    89c8:	1affffe0 	bne	8950 <sweep_leak+0x3c>
    89cc:	e59f0058 	ldr	r0, [pc, #88]	; 8a2c <sweep_leak+0x118>
    89d0:	eb00018b 	bl	9004 <printk>
    89d4:	e59f005c 	ldr	r0, [pc, #92]	; 8a38 <sweep_leak+0x124>
    89d8:	e1a01005 	mov	r1, r5
    89dc:	eb000188 	bl	9004 <printk>
    89e0:	e1973006 	orrs	r3, r7, r6
    89e4:	1a000004 	bne	89fc <sweep_leak+0xe8>
    89e8:	e59f003c 	ldr	r0, [pc, #60]	; 8a2c <sweep_leak+0x118>
    89ec:	eb000184 	bl	9004 <printk>
    89f0:	e59f0044 	ldr	r0, [pc, #68]	; 8a3c <sweep_leak+0x128>
    89f4:	eb000182 	bl	9004 <printk>
    89f8:	ea000005 	b	8a14 <sweep_leak+0x100>
    89fc:	e59f0028 	ldr	r0, [pc, #40]	; 8a2c <sweep_leak+0x118>
    8a00:	eb00017f 	bl	9004 <printk>
    8a04:	e59f0034 	ldr	r0, [pc, #52]	; 8a40 <sweep_leak+0x12c>
    8a08:	e1a01007 	mov	r1, r7
    8a0c:	e1a02006 	mov	r2, r6
    8a10:	eb00017b 	bl	9004 <printk>
    8a14:	e59f0028 	ldr	r0, [pc, #40]	; 8a44 <sweep_leak+0x130>
    8a18:	eb000179 	bl	9004 <printk>
    8a1c:	e0870006 	add	r0, r7, r6
    8a20:	e8bd8ff8 	pop	{r3, r4, r5, r6, r7, r8, r9, sl, fp, pc}
    8a24:	0000a034 	andeq	sl, r0, r4, lsr r0
    8a28:	0000a070 	andeq	sl, r0, r0, ror r0
    8a2c:	00009c84 	andeq	r9, r0, r4, lsl #25
    8a30:	0000a088 	andeq	sl, r0, r8, lsl #1
    8a34:	0000a0a8 	andeq	sl, r0, r8, lsr #1
    8a38:	0000a0e0 	andeq	sl, r0, r0, ror #1
    8a3c:	0000a0f8 	strdeq	sl, [r0], -r8
    8a40:	0000a118 	andeq	sl, r0, r8, lsl r1
    8a44:	0000a144 	andeq	sl, r0, r4, asr #2

00008a48 <mark>:
    8a48:	e92d4070 	push	{r4, r5, r6, lr}
    8a4c:	e1a04000 	mov	r4, r0
    8a50:	e1a05001 	mov	r5, r1
    8a54:	e1500001 	cmp	r0, r1
    8a58:	3a000006 	bcc	8a78 <mark+0x30>
    8a5c:	eb000183 	bl	9070 <rpi_reset_putc>
    8a60:	e59f00c4 	ldr	r0, [pc, #196]	; 8b2c <mark+0xe4>
    8a64:	e59f10c4 	ldr	r1, [pc, #196]	; 8b30 <mark+0xe8>
    8a68:	e59f20c4 	ldr	r2, [pc, #196]	; 8b34 <mark+0xec>
    8a6c:	e3a0305b 	mov	r3, #91	; 0x5b
    8a70:	eb000163 	bl	9004 <printk>
    8a74:	eb0002d7 	bl	95d8 <clean_reboot>
    8a78:	e3100003 	tst	r0, #3
    8a7c:	0a000006 	beq	8a9c <mark+0x54>
    8a80:	eb00017a 	bl	9070 <rpi_reset_putc>
    8a84:	e59f00ac 	ldr	r0, [pc, #172]	; 8b38 <mark+0xf0>
    8a88:	e59f10a0 	ldr	r1, [pc, #160]	; 8b30 <mark+0xe8>
    8a8c:	e59f20a0 	ldr	r2, [pc, #160]	; 8b34 <mark+0xec>
    8a90:	e3a0305d 	mov	r3, #93	; 0x5d
    8a94:	eb00015a 	bl	9004 <printk>
    8a98:	eb0002ce 	bl	95d8 <clean_reboot>
    8a9c:	e3110003 	tst	r1, #3
    8aa0:	0a00001d 	beq	8b1c <mark+0xd4>
    8aa4:	eb000171 	bl	9070 <rpi_reset_putc>
    8aa8:	e59f008c 	ldr	r0, [pc, #140]	; 8b3c <mark+0xf4>
    8aac:	e59f107c 	ldr	r1, [pc, #124]	; 8b30 <mark+0xe8>
    8ab0:	e59f207c 	ldr	r2, [pc, #124]	; 8b34 <mark+0xec>
    8ab4:	e3a0305e 	mov	r3, #94	; 0x5e
    8ab8:	eb000151 	bl	9004 <printk>
    8abc:	eb0002c5 	bl	95d8 <clean_reboot>
    8ac0:	e5940000 	ldr	r0, [r4]
    8ac4:	ebffff74 	bl	889c <is_ptr>
    8ac8:	e2503000 	subs	r3, r0, #0
    8acc:	0a000010 	beq	8b14 <mark+0xcc>
    8ad0:	e5940000 	ldr	r0, [r4]
    8ad4:	e28320b8 	add	r2, r3, #184	; 0xb8
    8ad8:	e1500002 	cmp	r0, r2
    8adc:	05931028 	ldreq	r1, [r3, #40]	; 0x28
    8ae0:	02811001 	addeq	r1, r1, #1
    8ae4:	05831028 	streq	r1, [r3, #40]	; 0x28
    8ae8:	1593102c 	ldrne	r1, [r3, #44]	; 0x2c
    8aec:	12811001 	addne	r1, r1, #1
    8af0:	1583102c 	strne	r1, [r3, #44]	; 0x2c
    8af4:	e1d303b4 	ldrh	r0, [r3, #52]	; 0x34
    8af8:	e3500000 	cmp	r0, #0
    8afc:	1a000004 	bne	8b14 <mark+0xcc>
    8b00:	e1c363b4 	strh	r6, [r3, #52]	; 0x34
    8b04:	e5931000 	ldr	r1, [r3]
    8b08:	e1a00002 	mov	r0, r2
    8b0c:	e0821001 	add	r1, r2, r1
    8b10:	ebffffcc 	bl	8a48 <mark>
    8b14:	e2844004 	add	r4, r4, #4
    8b18:	ea000000 	b	8b20 <mark+0xd8>
    8b1c:	e3a06001 	mov	r6, #1
    8b20:	e1540005 	cmp	r4, r5
    8b24:	1affffe5 	bne	8ac0 <mark+0x78>
    8b28:	e8bd8070 	pop	{r4, r5, r6, pc}
    8b2c:	0000a180 	andeq	sl, r0, r0, lsl #3
    8b30:	0000a194 	muleq	r0, r4, r1
    8b34:	00009fe0 	andeq	r9, r0, r0, ror #31
    8b38:	0000a19c 	muleq	r0, ip, r1
    8b3c:	0000a1bc 			; <UNDEFINED> instruction: 0x0000a1bc

00008b40 <mark_all>:
    8b40:	e92d4010 	push	{r4, lr}
    8b44:	e24dd050 	sub	sp, sp, #80	; 0x50
    8b48:	ebffff24 	bl	87e0 <ck_first_hdr>
    8b4c:	e3a04000 	mov	r4, #0
    8b50:	ea000003 	b	8b64 <mark_all+0x24>
    8b54:	e580402c 	str	r4, [r0, #44]	; 0x2c
    8b58:	e5804028 	str	r4, [r0, #40]	; 0x28
    8b5c:	e1c043b4 	strh	r4, [r0, #52]	; 0x34
    8b60:	ebffff26 	bl	8800 <ck_next_hdr>
    8b64:	e3500000 	cmp	r0, #0
    8b68:	1afffff9 	bne	8b54 <mark_all+0x14>
    8b6c:	e28d4040 	add	r4, sp, #64	; 0x40
    8b70:	e1a00004 	mov	r0, r4
    8b74:	ebffff32 	bl	8844 <heap_info>
    8b78:	e59fc094 	ldr	ip, [pc, #148]	; 8c14 <mark_all+0xd4>
    8b7c:	e894000f 	ldm	r4, {r0, r1, r2, r3}
    8b80:	e88c000f 	stm	ip, {r0, r1, r2, r3}
    8b84:	e1a0400d 	mov	r4, sp
    8b88:	e1a0000d 	mov	r0, sp
    8b8c:	eb0000d6 	bl	8eec <dump_regs>
    8b90:	e59d3000 	ldr	r3, [sp]
    8b94:	e1530004 	cmp	r3, r4
    8b98:	0a00000b 	beq	8bcc <mark_all+0x8c>
    8b9c:	eb000133 	bl	9070 <rpi_reset_putc>
    8ba0:	e59f0070 	ldr	r0, [pc, #112]	; 8c18 <mark_all+0xd8>
    8ba4:	e59f1070 	ldr	r1, [pc, #112]	; 8c1c <mark_all+0xdc>
    8ba8:	e59f2070 	ldr	r2, [pc, #112]	; 8c20 <mark_all+0xe0>
    8bac:	e3a030df 	mov	r3, #223	; 0xdf
    8bb0:	eb000113 	bl	9004 <printk>
    8bb4:	eb000287 	bl	95d8 <clean_reboot>
    8bb8:	e28d0050 	add	r0, sp, #80	; 0x50
    8bbc:	e0802103 	add	r2, r0, r3, lsl #2
    8bc0:	e5021050 	str	r1, [r2, #-80]	; 0x50
    8bc4:	e2833001 	add	r3, r3, #1
    8bc8:	ea000001 	b	8bd4 <mark_all+0x94>
    8bcc:	e3a03000 	mov	r3, #0
    8bd0:	e1a01003 	mov	r1, r3
    8bd4:	e3530003 	cmp	r3, #3
    8bd8:	dafffff6 	ble	8bb8 <mark_all+0x78>
    8bdc:	e28d0010 	add	r0, sp, #16
    8be0:	e28d1038 	add	r1, sp, #56	; 0x38
    8be4:	ebffff97 	bl	8a48 <mark>
    8be8:	e59d0034 	ldr	r0, [sp, #52]	; 0x34
    8bec:	e3a01302 	mov	r1, #134217728	; 0x8000000
    8bf0:	ebffff94 	bl	8a48 <mark>
    8bf4:	e59f0028 	ldr	r0, [pc, #40]	; 8c24 <mark_all+0xe4>
    8bf8:	e59f1028 	ldr	r1, [pc, #40]	; 8c28 <mark_all+0xe8>
    8bfc:	ebffff91 	bl	8a48 <mark>
    8c00:	e59f0024 	ldr	r0, [pc, #36]	; 8c2c <mark_all+0xec>
    8c04:	e59f1024 	ldr	r1, [pc, #36]	; 8c30 <mark_all+0xf0>
    8c08:	ebffff8e 	bl	8a48 <mark>
    8c0c:	e28dd050 	add	sp, sp, #80	; 0x50
    8c10:	e8bd8010 	pop	{r4, pc}
    8c14:	0000a5e0 	andeq	sl, r0, r0, ror #11
    8c18:	0000a1dc 	ldrdeq	sl, [r0], -ip
    8c1c:	0000a194 	muleq	r0, r4, r1
    8c20:	00009fe8 	andeq	r9, r0, r8, ror #31
    8c24:	0000a5c4 	andeq	sl, r0, r4, asr #11
    8c28:	0000a9f8 	strdeq	sl, [r0], -r8
    8c2c:	00009bc0 	andeq	r9, r0, r0, asr #23
    8c30:	00009bd0 	ldrdeq	r9, [r0], -r0

00008c34 <sweep_free>:
    8c34:	e92d4ff0 	push	{r4, r5, r6, r7, r8, r9, sl, fp, lr}
    8c38:	e24dd014 	sub	sp, sp, #20
    8c3c:	e59f00e8 	ldr	r0, [pc, #232]	; 8d2c <sweep_free+0xf8>
    8c40:	eb0000ef 	bl	9004 <printk>
    8c44:	e59f00e4 	ldr	r0, [pc, #228]	; 8d30 <sweep_free+0xfc>
    8c48:	eb0000ed 	bl	9004 <printk>
    8c4c:	ebfffee3 	bl	87e0 <ck_first_hdr>
    8c50:	e1a04000 	mov	r4, r0
    8c54:	e3a06000 	mov	r6, #0
    8c58:	e1a08006 	mov	r8, r6
    8c5c:	e1a05006 	mov	r5, r6
    8c60:	e59fb0cc 	ldr	fp, [pc, #204]	; 8d34 <sweep_free+0x100>
    8c64:	e59fa0cc 	ldr	sl, [pc, #204]	; 8d38 <sweep_free+0x104>
    8c68:	e59f90cc 	ldr	r9, [pc, #204]	; 8d3c <sweep_free+0x108>
    8c6c:	ea000017 	b	8cd0 <sweep_free+0x9c>
    8c70:	e5943008 	ldr	r3, [r4, #8]
    8c74:	e353000b 	cmp	r3, #11
    8c78:	1a000010 	bne	8cc0 <sweep_free+0x8c>
    8c7c:	e1d433b4 	ldrh	r3, [r4, #52]	; 0x34
    8c80:	e3530000 	cmp	r3, #0
    8c84:	1a00000d 	bne	8cc0 <sweep_free+0x8c>
    8c88:	e1a07004 	mov	r7, r4
    8c8c:	e49730b8 	ldr	r3, [r7], #184	; 0xb8
    8c90:	e0866003 	add	r6, r6, r3
    8c94:	e2888001 	add	r8, r8, #1
    8c98:	e1a0000b 	mov	r0, fp
    8c9c:	eb0000d8 	bl	9004 <printk>
    8ca0:	e1a0000a 	mov	r0, sl
    8ca4:	e1a01007 	mov	r1, r7
    8ca8:	eb0000d5 	bl	9004 <printk>
    8cac:	e1a00007 	mov	r0, r7
    8cb0:	e1a01009 	mov	r1, r9
    8cb4:	e59f2084 	ldr	r2, [pc, #132]	; 8d40 <sweep_free+0x10c>
    8cb8:	e59f3084 	ldr	r3, [pc, #132]	; 8d44 <sweep_free+0x110>
    8cbc:	ebfffda6 	bl	835c <ckfree>
    8cc0:	e2855001 	add	r5, r5, #1
    8cc4:	e1a00004 	mov	r0, r4
    8cc8:	ebfffecc 	bl	8800 <ck_next_hdr>
    8ccc:	e1a04000 	mov	r4, r0
    8cd0:	e3540000 	cmp	r4, #0
    8cd4:	1affffe5 	bne	8c70 <sweep_free+0x3c>
    8cd8:	e59f4054 	ldr	r4, [pc, #84]	; 8d34 <sweep_free+0x100>
    8cdc:	e1a00004 	mov	r0, r4
    8ce0:	eb0000c7 	bl	9004 <printk>
    8ce4:	e59f005c 	ldr	r0, [pc, #92]	; 8d48 <sweep_free+0x114>
    8ce8:	e1a01005 	mov	r1, r5
    8cec:	e1a02008 	mov	r2, r8
    8cf0:	e1a03006 	mov	r3, r6
    8cf4:	eb0000c2 	bl	9004 <printk>
    8cf8:	e1a0000d 	mov	r0, sp
    8cfc:	ebfffed0 	bl	8844 <heap_info>
    8d00:	e1a00004 	mov	r0, r4
    8d04:	eb0000be 	bl	9004 <printk>
    8d08:	e59f003c 	ldr	r0, [pc, #60]	; 8d4c <sweep_free+0x118>
    8d0c:	e59d100c 	ldr	r1, [sp, #12]
    8d10:	e59d2008 	ldr	r2, [sp, #8]
    8d14:	eb0000ba 	bl	9004 <printk>
    8d18:	e59f0030 	ldr	r0, [pc, #48]	; 8d50 <sweep_free+0x11c>
    8d1c:	eb0000b8 	bl	9004 <printk>
    8d20:	e1a00006 	mov	r0, r6
    8d24:	e28dd014 	add	sp, sp, #20
    8d28:	e8bd8ff0 	pop	{r4, r5, r6, r7, r8, r9, sl, fp, pc}
    8d2c:	0000a034 	andeq	sl, r0, r4, lsr r0
    8d30:	0000a20c 	andeq	sl, r0, ip, lsl #4
    8d34:	00009c84 	andeq	r9, r0, r4, lsl #25
    8d38:	0000a21c 	andeq	sl, r0, ip, lsl r2
    8d3c:	0000a194 	muleq	r0, r4, r1
    8d40:	00009ff4 	strdeq	r9, [r0], -r4
    8d44:	0000013a 	andeq	r0, r0, sl, lsr r1
    8d48:	0000a230 	andeq	sl, r0, r0, lsr r2
    8d4c:	0000a25c 	andeq	sl, r0, ip, asr r2
    8d50:	0000a144 	andeq	sl, r0, r4, asr #2

00008d54 <ck_find_leaks>:
    8d54:	e92d4010 	push	{r4, lr}
    8d58:	e1a04000 	mov	r4, r0
    8d5c:	ebffff77 	bl	8b40 <mark_all>
    8d60:	e1a00004 	mov	r0, r4
    8d64:	ebfffeea 	bl	8914 <sweep_leak>
    8d68:	e8bd8010 	pop	{r4, pc}

00008d6c <check_no_leak>:
    8d6c:	e92d4008 	push	{r3, lr}
    8d70:	ebfffe4c 	bl	86a8 <ck_heap_errors>
    8d74:	e3500000 	cmp	r0, #0
    8d78:	0a000006 	beq	8d98 <check_no_leak+0x2c>
    8d7c:	eb0000bb 	bl	9070 <rpi_reset_putc>
    8d80:	e59f0060 	ldr	r0, [pc, #96]	; 8de8 <check_no_leak+0x7c>
    8d84:	e59f1060 	ldr	r1, [pc, #96]	; 8dec <check_no_leak+0x80>
    8d88:	e59f2060 	ldr	r2, [pc, #96]	; 8df0 <check_no_leak+0x84>
    8d8c:	e59f3060 	ldr	r3, [pc, #96]	; 8df4 <check_no_leak+0x88>
    8d90:	eb00009b 	bl	9004 <printk>
    8d94:	eb00020f 	bl	95d8 <clean_reboot>
    8d98:	e59f0058 	ldr	r0, [pc, #88]	; 8df8 <check_no_leak+0x8c>
    8d9c:	eb000098 	bl	9004 <printk>
    8da0:	e59f0054 	ldr	r0, [pc, #84]	; 8dfc <check_no_leak+0x90>
    8da4:	eb000096 	bl	9004 <printk>
    8da8:	e3a00001 	mov	r0, #1
    8dac:	ebffffe8 	bl	8d54 <ck_find_leaks>
    8db0:	e3500000 	cmp	r0, #0
    8db4:	0a000006 	beq	8dd4 <check_no_leak+0x68>
    8db8:	eb0000ac 	bl	9070 <rpi_reset_putc>
    8dbc:	e59f003c 	ldr	r0, [pc, #60]	; 8e00 <check_no_leak+0x94>
    8dc0:	e59f1024 	ldr	r1, [pc, #36]	; 8dec <check_no_leak+0x80>
    8dc4:	e59f2024 	ldr	r2, [pc, #36]	; 8df0 <check_no_leak+0x84>
    8dc8:	e59f3034 	ldr	r3, [pc, #52]	; 8e04 <check_no_leak+0x98>
    8dcc:	eb00008c 	bl	9004 <printk>
    8dd0:	eb000200 	bl	95d8 <clean_reboot>
    8dd4:	e59f001c 	ldr	r0, [pc, #28]	; 8df8 <check_no_leak+0x8c>
    8dd8:	eb000089 	bl	9004 <printk>
    8ddc:	e59f0024 	ldr	r0, [pc, #36]	; 8e08 <check_no_leak+0x9c>
    8de0:	eb000087 	bl	9004 <printk>
    8de4:	e8bd8008 	pop	{r3, pc}
    8de8:	0000a290 	muleq	r0, r0, r2
    8dec:	0000a194 	muleq	r0, r4, r1
    8df0:	0000a000 	andeq	sl, r0, r0
    8df4:	00000109 	andeq	r0, r0, r9, lsl #2
    8df8:	00009c84 	andeq	r9, r0, r4, lsl #25
    8dfc:	0000a2b8 			; <UNDEFINED> instruction: 0x0000a2b8
    8e00:	0000a2d8 	ldrdeq	sl, [r0], -r8
    8e04:	0000010d 	andeq	r0, r0, sp, lsl #2
    8e08:	0000a304 	andeq	sl, r0, r4, lsl #6

00008e0c <check_should_leak>:
    8e0c:	e92d4010 	push	{r4, lr}
    8e10:	ebfffe24 	bl	86a8 <ck_heap_errors>
    8e14:	e3500000 	cmp	r0, #0
    8e18:	0a000006 	beq	8e38 <check_should_leak+0x2c>
    8e1c:	eb000093 	bl	9070 <rpi_reset_putc>
    8e20:	e59f0068 	ldr	r0, [pc, #104]	; 8e90 <check_should_leak+0x84>
    8e24:	e59f1068 	ldr	r1, [pc, #104]	; 8e94 <check_should_leak+0x88>
    8e28:	e59f2068 	ldr	r2, [pc, #104]	; 8e98 <check_should_leak+0x8c>
    8e2c:	e59f3068 	ldr	r3, [pc, #104]	; 8e9c <check_should_leak+0x90>
    8e30:	eb000073 	bl	9004 <printk>
    8e34:	eb0001e7 	bl	95d8 <clean_reboot>
    8e38:	e59f0060 	ldr	r0, [pc, #96]	; 8ea0 <check_should_leak+0x94>
    8e3c:	eb000070 	bl	9004 <printk>
    8e40:	e59f005c 	ldr	r0, [pc, #92]	; 8ea4 <check_should_leak+0x98>
    8e44:	eb00006e 	bl	9004 <printk>
    8e48:	e3a00001 	mov	r0, #1
    8e4c:	ebffffc0 	bl	8d54 <ck_find_leaks>
    8e50:	e2504000 	subs	r4, r0, #0
    8e54:	1a000006 	bne	8e74 <check_should_leak+0x68>
    8e58:	eb000084 	bl	9070 <rpi_reset_putc>
    8e5c:	e59f0044 	ldr	r0, [pc, #68]	; 8ea8 <check_should_leak+0x9c>
    8e60:	e59f102c 	ldr	r1, [pc, #44]	; 8e94 <check_should_leak+0x88>
    8e64:	e59f202c 	ldr	r2, [pc, #44]	; 8e98 <check_should_leak+0x8c>
    8e68:	e3a03e12 	mov	r3, #288	; 0x120
    8e6c:	eb000064 	bl	9004 <printk>
    8e70:	eb0001d8 	bl	95d8 <clean_reboot>
    8e74:	e59f0024 	ldr	r0, [pc, #36]	; 8ea0 <check_should_leak+0x94>
    8e78:	eb000061 	bl	9004 <printk>
    8e7c:	e59f0028 	ldr	r0, [pc, #40]	; 8eac <check_should_leak+0xa0>
    8e80:	e1a01004 	mov	r1, r4
    8e84:	eb00005e 	bl	9004 <printk>
    8e88:	e1a00004 	mov	r0, r4
    8e8c:	e8bd8010 	pop	{r4, pc}
    8e90:	0000a290 	muleq	r0, r0, r2
    8e94:	0000a194 	muleq	r0, r4, r1
    8e98:	0000a010 	andeq	sl, r0, r0, lsl r0
    8e9c:	0000011a 	andeq	r0, r0, sl, lsl r1
    8ea0:	00009c84 	andeq	r9, r0, r4, lsl #25
    8ea4:	0000a2b8 			; <UNDEFINED> instruction: 0x0000a2b8
    8ea8:	0000a31c 	andeq	sl, r0, ip, lsl r3
    8eac:	0000a344 	andeq	sl, r0, r4, asr #6

00008eb0 <implement_this>:
    8eb0:	e92d4008 	push	{r3, lr}
    8eb4:	eb00006d 	bl	9070 <rpi_reset_putc>
    8eb8:	e59f0010 	ldr	r0, [pc, #16]	; 8ed0 <implement_this+0x20>
    8ebc:	e59f1010 	ldr	r1, [pc, #16]	; 8ed4 <implement_this+0x24>
    8ec0:	e59f2010 	ldr	r2, [pc, #16]	; 8ed8 <implement_this+0x28>
    8ec4:	e3a03f4a 	mov	r3, #296	; 0x128
    8ec8:	eb00004d 	bl	9004 <printk>
    8ecc:	eb0001c1 	bl	95d8 <clean_reboot>
    8ed0:	0000a364 	andeq	sl, r0, r4, ror #6
    8ed4:	0000a194 	muleq	r0, r4, r1
    8ed8:	0000a024 	andeq	sl, r0, r4, lsr #32

00008edc <ck_gc>:
    8edc:	e92d4008 	push	{r3, lr}
    8ee0:	ebffff16 	bl	8b40 <mark_all>
    8ee4:	ebffff52 	bl	8c34 <sweep_free>
    8ee8:	e8bd8008 	pop	{r3, pc}

00008eec <dump_regs>:
    8eec:	e8807fff 	stm	r0, {r0, r1, r2, r3, r4, r5, r6, r7, r8, r9, sl, fp, ip, sp, lr}
    8ef0:	e12fff1e 	bx	lr

00008ef4 <fast_hash>:
    8ef4:	e52d4004 	push	{r4}		; (str r4, [sp, #-4]!)
    8ef8:	e1a02001 	mov	r2, r1
    8efc:	e1a03000 	mov	r3, r0
    8f00:	e3500000 	cmp	r0, #0
    8f04:	13510000 	cmpne	r1, #0
    8f08:	da000032 	ble	8fd8 <fast_hash+0xe4>
    8f0c:	e2014003 	and	r4, r1, #3
    8f10:	e1a01141 	asr	r1, r1, #2
    8f14:	ea00000b 	b	8f48 <fast_hash+0x54>
    8f18:	e5d3c001 	ldrb	ip, [r3, #1]
    8f1c:	e5d30000 	ldrb	r0, [r3]
    8f20:	e080040c 	add	r0, r0, ip, lsl #8
    8f24:	e0800002 	add	r0, r0, r2
    8f28:	e5d3c003 	ldrb	ip, [r3, #3]
    8f2c:	e5d32002 	ldrb	r2, [r3, #2]
    8f30:	e082240c 	add	r2, r2, ip, lsl #8
    8f34:	e0202582 	eor	r2, r0, r2, lsl #11
    8f38:	e0222800 	eor	r2, r2, r0, lsl #16
    8f3c:	e2833004 	add	r3, r3, #4
    8f40:	e08225a2 	add	r2, r2, r2, lsr #11
    8f44:	e2411001 	sub	r1, r1, #1
    8f48:	e3510000 	cmp	r1, #0
    8f4c:	cafffff1 	bgt	8f18 <fast_hash+0x24>
    8f50:	e3540002 	cmp	r4, #2
    8f54:	0a00000d 	beq	8f90 <fast_hash+0x9c>
    8f58:	e3540003 	cmp	r4, #3
    8f5c:	0a000002 	beq	8f6c <fast_hash+0x78>
    8f60:	e3540001 	cmp	r4, #1
    8f64:	1a000014 	bne	8fbc <fast_hash+0xc8>
    8f68:	ea00000f 	b	8fac <fast_hash+0xb8>
    8f6c:	e5d30001 	ldrb	r0, [r3, #1]
    8f70:	e5d31000 	ldrb	r1, [r3]
    8f74:	e0811400 	add	r1, r1, r0, lsl #8
    8f78:	e0812002 	add	r2, r1, r2
    8f7c:	e0222802 	eor	r2, r2, r2, lsl #16
    8f80:	e1d330d2 	ldrsb	r3, [r3, #2]
    8f84:	e0222903 	eor	r2, r2, r3, lsl #18
    8f88:	e08225a2 	add	r2, r2, r2, lsr #11
    8f8c:	ea00000a 	b	8fbc <fast_hash+0xc8>
    8f90:	e5d31001 	ldrb	r1, [r3, #1]
    8f94:	e5d33000 	ldrb	r3, [r3]
    8f98:	e0833401 	add	r3, r3, r1, lsl #8
    8f9c:	e0832002 	add	r2, r3, r2
    8fa0:	e0222582 	eor	r2, r2, r2, lsl #11
    8fa4:	e08228a2 	add	r2, r2, r2, lsr #17
    8fa8:	ea000003 	b	8fbc <fast_hash+0xc8>
    8fac:	e1d330d0 	ldrsb	r3, [r3]
    8fb0:	e0832002 	add	r2, r3, r2
    8fb4:	e0222502 	eor	r2, r2, r2, lsl #10
    8fb8:	e08220a2 	add	r2, r2, r2, lsr #1
    8fbc:	e0220182 	eor	r0, r2, r2, lsl #3
    8fc0:	e08002a0 	add	r0, r0, r0, lsr #5
    8fc4:	e0200200 	eor	r0, r0, r0, lsl #4
    8fc8:	e08008a0 	add	r0, r0, r0, lsr #17
    8fcc:	e0200c80 	eor	r0, r0, r0, lsl #25
    8fd0:	e0800320 	add	r0, r0, r0, lsr #6
    8fd4:	ea000000 	b	8fdc <fast_hash+0xe8>
    8fd8:	e3a00000 	mov	r0, #0
    8fdc:	e49d4004 	pop	{r4}		; (ldr r4, [sp], #4)
    8fe0:	e12fff1e 	bx	lr

00008fe4 <memset>:
    8fe4:	e0802002 	add	r2, r0, r2
    8fe8:	e1a03000 	mov	r3, r0
    8fec:	ea000001 	b	8ff8 <memset+0x14>
    8ff0:	e5c31000 	strb	r1, [r3]
    8ff4:	e2833001 	add	r3, r3, #1
    8ff8:	e1530002 	cmp	r3, r2
    8ffc:	3afffffb 	bcc	8ff0 <memset+0xc>
    9000:	e12fff1e 	bx	lr

00009004 <printk>:
    9004:	e92d000f 	push	{r0, r1, r2, r3}
    9008:	e92d4030 	push	{r4, r5, lr}
    900c:	e24dd00c 	sub	sp, sp, #12
    9010:	e28d301c 	add	r3, sp, #28
    9014:	e58d3004 	str	r3, [sp, #4]
    9018:	e59f4034 	ldr	r4, [pc, #52]	; 9054 <printk+0x50>
    901c:	e1a00004 	mov	r0, r4
    9020:	e3a01b01 	mov	r1, #1024	; 0x400
    9024:	e59d2018 	ldr	r2, [sp, #24]
    9028:	eb0000c8 	bl	9350 <va_printk>
    902c:	e1a05000 	mov	r5, r0
    9030:	e59f3020 	ldr	r3, [pc, #32]	; 9058 <printk+0x54>
    9034:	e5933000 	ldr	r3, [r3]
    9038:	e1a00004 	mov	r0, r4
    903c:	e12fff33 	blx	r3
    9040:	e1a00005 	mov	r0, r5
    9044:	e28dd00c 	add	sp, sp, #12
    9048:	e8bd4030 	pop	{r4, r5, lr}
    904c:	e28dd010 	add	sp, sp, #16
    9050:	e12fff1e 	bx	lr
    9054:	0000a5f0 	strdeq	sl, [r0], -r0
    9058:	00009bc4 	andeq	r9, r0, r4, asr #23

0000905c <internal_putchar>:
    905c:	e92d4010 	push	{r4, lr}
    9060:	e1a04000 	mov	r4, r0
    9064:	eb000212 	bl	98b4 <uart_putc>
    9068:	e1a00004 	mov	r0, r4
    906c:	e8bd8010 	pop	{r4, pc}

00009070 <rpi_reset_putc>:
    9070:	e59f2008 	ldr	r2, [pc, #8]	; 9080 <rpi_reset_putc+0x10>
    9074:	e59f3008 	ldr	r3, [pc, #8]	; 9084 <rpi_reset_putc+0x14>
    9078:	e5832000 	str	r2, [r3]
    907c:	e12fff1e 	bx	lr
    9080:	0000905c 	andeq	r9, r0, ip, asr r0
    9084:	00009bc0 	andeq	r9, r0, r0, asr #23

00009088 <rpi_set_putc>:
    9088:	e59f3004 	ldr	r3, [pc, #4]	; 9094 <rpi_set_putc+0xc>
    908c:	e5830000 	str	r0, [r3]
    9090:	e12fff1e 	bx	lr
    9094:	00009bc0 	andeq	r9, r0, r0, asr #23

00009098 <internal_putk>:
    9098:	e92d4038 	push	{r3, r4, r5, lr}
    909c:	e1a04000 	mov	r4, r0
    90a0:	e59f5020 	ldr	r5, [pc, #32]	; 90c8 <internal_putk+0x30>
    90a4:	ea000002 	b	90b4 <internal_putk+0x1c>
    90a8:	e5953000 	ldr	r3, [r5]
    90ac:	e12fff33 	blx	r3
    90b0:	e2844001 	add	r4, r4, #1
    90b4:	e5d40000 	ldrb	r0, [r4]
    90b8:	e3500000 	cmp	r0, #0
    90bc:	1afffff9 	bne	90a8 <internal_putk+0x10>
    90c0:	e3a00001 	mov	r0, #1
    90c4:	e8bd8038 	pop	{r3, r4, r5, pc}
    90c8:	00009bc0 	andeq	r9, r0, r0, asr #23

000090cc <isdigit>:
    90cc:	e2400030 	sub	r0, r0, #48	; 0x30
    90d0:	e3500009 	cmp	r0, #9
    90d4:	83a00000 	movhi	r0, #0
    90d8:	93a00001 	movls	r0, #1
    90dc:	e12fff1e 	bx	lr

000090e0 <pad>:
    90e0:	e0611000 	rsb	r1, r1, r0
    90e4:	e3a03020 	mov	r3, #32
    90e8:	ea000002 	b	90f8 <pad+0x18>
    90ec:	e5c03000 	strb	r3, [r0]
    90f0:	e2811001 	add	r1, r1, #1
    90f4:	e2800001 	add	r0, r0, #1
    90f8:	e1510002 	cmp	r1, r2
    90fc:	bafffffa 	blt	90ec <pad+0xc>
    9100:	e3a03000 	mov	r3, #0
    9104:	e5c03000 	strb	r3, [r0]
    9108:	e12fff1e 	bx	lr

0000910c <reverse>:
    910c:	e063c002 	rsb	ip, r3, r2
    9110:	e28cc001 	add	ip, ip, #1
    9114:	e15c0001 	cmp	ip, r1
    9118:	c061100c 	rsbgt	r1, r1, ip
    911c:	c0833001 	addgt	r3, r3, r1
    9120:	e2422001 	sub	r2, r2, #1
    9124:	e1a01000 	mov	r1, r0
    9128:	ea000002 	b	9138 <reverse+0x2c>
    912c:	e452c001 	ldrb	ip, [r2], #-1
    9130:	e5c1c000 	strb	ip, [r1]
    9134:	e2811001 	add	r1, r1, #1
    9138:	e1520003 	cmp	r2, r3
    913c:	2afffffa 	bcs	912c <reverse+0x20>
    9140:	e3a03000 	mov	r3, #0
    9144:	e5c13000 	strb	r3, [r1]
    9148:	e12fff1e 	bx	lr

0000914c <emit>:
    914c:	e92d41f0 	push	{r4, r5, r6, r7, r8, lr}
    9150:	e24dd040 	sub	sp, sp, #64	; 0x40
    9154:	e1a05001 	mov	r5, r1
    9158:	e1a04002 	mov	r4, r2
    915c:	e59d2058 	ldr	r2, [sp, #88]	; 0x58
    9160:	e1520004 	cmp	r2, r4
    9164:	c2442001 	subgt	r2, r4, #1
    9168:	e1a0c003 	mov	ip, r3
    916c:	e2400002 	sub	r0, r0, #2
    9170:	e350000e 	cmp	r0, #14
    9174:	979ff100 	ldrls	pc, [pc, r0, lsl #2]
    9178:	ea000048 	b	92a0 <emit+0x154>
    917c:	00009278 	andeq	r9, r0, r8, ror r2
    9180:	000092a0 	andeq	r9, r0, r0, lsr #5
    9184:	000092a0 	andeq	r9, r0, r0, lsr #5
    9188:	000092a0 	andeq	r9, r0, r0, lsr #5
    918c:	000092a0 	andeq	r9, r0, r0, lsr #5
    9190:	000092a0 	andeq	r9, r0, r0, lsr #5
    9194:	0000926c 	andeq	r9, r0, ip, ror #4
    9198:	000092a0 	andeq	r9, r0, r0, lsr #5
    919c:	000091b8 			; <UNDEFINED> instruction: 0x000091b8
    91a0:	000092a0 	andeq	r9, r0, r0, lsr #5
    91a4:	000092a0 	andeq	r9, r0, r0, lsr #5
    91a8:	000092a0 	andeq	r9, r0, r0, lsr #5
    91ac:	000092a0 	andeq	r9, r0, r0, lsr #5
    91b0:	000092a0 	andeq	r9, r0, r0, lsr #5
    91b4:	0000922c 	andeq	r9, r0, ip, lsr #4
    91b8:	e59d105c 	ldr	r1, [sp, #92]	; 0x5c
    91bc:	e2911000 	adds	r1, r1, #0
    91c0:	13a01001 	movne	r1, #1
    91c4:	e0111fa3 	ands	r1, r1, r3, lsr #31
    91c8:	1263c000 	rsbne	ip, r3, #0
    91cc:	13a08001 	movne	r8, #1
    91d0:	03a08000 	moveq	r8, #0
    91d4:	e1a0100d 	mov	r1, sp
    91d8:	e59f7100 	ldr	r7, [pc, #256]	; 92e0 <emit+0x194>
    91dc:	e59f6100 	ldr	r6, [pc, #256]	; 92e4 <emit+0x198>
    91e0:	ea000000 	b	91e8 <emit+0x9c>
    91e4:	e1a01000 	mov	r1, r0
    91e8:	e2810001 	add	r0, r1, #1
    91ec:	e083ec97 	umull	lr, r3, r7, ip
    91f0:	e1a031a3 	lsr	r3, r3, #3
    91f4:	e1a0e003 	mov	lr, r3
    91f8:	e0833103 	add	r3, r3, r3, lsl #2
    91fc:	e1a03083 	lsl	r3, r3, #1
    9200:	e063300c 	rsb	r3, r3, ip
    9204:	e7d63003 	ldrb	r3, [r6, r3]
    9208:	e5c13000 	strb	r3, [r1]
    920c:	e1a0c00e 	mov	ip, lr
    9210:	e35e0000 	cmp	lr, #0
    9214:	1afffff2 	bne	91e4 <emit+0x98>
    9218:	e3580000 	cmp	r8, #0
    921c:	12810002 	addne	r0, r1, #2
    9220:	13a0302d 	movne	r3, #45	; 0x2d
    9224:	15c13001 	strbne	r3, [r1, #1]
    9228:	ea000023 	b	92bc <emit+0x170>
    922c:	e1a0300d 	mov	r3, sp
    9230:	e59fe0b0 	ldr	lr, [pc, #176]	; 92e8 <emit+0x19c>
    9234:	ea000000 	b	923c <emit+0xf0>
    9238:	e1a03000 	mov	r3, r0
    923c:	e2830001 	add	r0, r3, #1
    9240:	e20c100f 	and	r1, ip, #15
    9244:	e7de1001 	ldrb	r1, [lr, r1]
    9248:	e5c31000 	strb	r1, [r3]
    924c:	e1b0c22c 	lsrs	ip, ip, #4
    9250:	1afffff8 	bne	9238 <emit+0xec>
    9254:	e3a01078 	mov	r1, #120	; 0x78
    9258:	e5c31001 	strb	r1, [r3, #1]
    925c:	e2830003 	add	r0, r3, #3
    9260:	e3a01030 	mov	r1, #48	; 0x30
    9264:	e5c31002 	strb	r1, [r3, #2]
    9268:	ea000013 	b	92bc <emit+0x170>
    926c:	e5cd3000 	strb	r3, [sp]
    9270:	e28d0001 	add	r0, sp, #1
    9274:	ea000010 	b	92bc <emit+0x170>
    9278:	e1a0300d 	mov	r3, sp
    927c:	e59fe068 	ldr	lr, [pc, #104]	; 92ec <emit+0x1a0>
    9280:	e2830001 	add	r0, r3, #1
    9284:	e20c1001 	and	r1, ip, #1
    9288:	e7de1001 	ldrb	r1, [lr, r1]
    928c:	e5c31000 	strb	r1, [r3]
    9290:	e1a03000 	mov	r3, r0
    9294:	e1b0c0ac 	lsrs	ip, ip, #1
    9298:	1afffff8 	bne	9280 <emit+0x134>
    929c:	ea000006 	b	92bc <emit+0x170>
    92a0:	ebffff72 	bl	9070 <rpi_reset_putc>
    92a4:	e59f0044 	ldr	r0, [pc, #68]	; 92f0 <emit+0x1a4>
    92a8:	e59f1044 	ldr	r1, [pc, #68]	; 92f4 <emit+0x1a8>
    92ac:	e59f2044 	ldr	r2, [pc, #68]	; 92f8 <emit+0x1ac>
    92b0:	e3a03077 	mov	r3, #119	; 0x77
    92b4:	ebffff52 	bl	9004 <printk>
    92b8:	eb0000c6 	bl	95d8 <clean_reboot>
    92bc:	e1a0100d 	mov	r1, sp
    92c0:	ebffff86 	bl	90e0 <pad>
    92c4:	e1a02000 	mov	r2, r0
    92c8:	e1a00005 	mov	r0, r5
    92cc:	e1a01004 	mov	r1, r4
    92d0:	e1a0300d 	mov	r3, sp
    92d4:	ebffff8c 	bl	910c <reverse>
    92d8:	e28dd040 	add	sp, sp, #64	; 0x40
    92dc:	e8bd81f0 	pop	{r4, r5, r6, r7, r8, pc}
    92e0:	cccccccd 	stclgt	12, cr12, [ip], {205}	; 0xcd
    92e4:	0000a3e0 	andeq	sl, r0, r0, ror #7
    92e8:	0000a3ec 	andeq	sl, r0, ip, ror #7
    92ec:	0000a400 	andeq	sl, r0, r0, lsl #8
    92f0:	0000a3b8 			; <UNDEFINED> instruction: 0x0000a3b8
    92f4:	0000a3cc 	andeq	sl, r0, ip, asr #7
    92f8:	0000a394 	muleq	r0, r4, r3

000092fc <rpi_set_output>:
    92fc:	e92d4008 	push	{r3, lr}
    9300:	e3500000 	cmp	r0, #0
    9304:	1a000006 	bne	9324 <rpi_set_output+0x28>
    9308:	ebffff58 	bl	9070 <rpi_reset_putc>
    930c:	e59f0028 	ldr	r0, [pc, #40]	; 933c <rpi_set_output+0x40>
    9310:	e59f1028 	ldr	r1, [pc, #40]	; 9340 <rpi_set_output+0x44>
    9314:	e59f2028 	ldr	r2, [pc, #40]	; 9344 <rpi_set_output+0x48>
    9318:	e3a03020 	mov	r3, #32
    931c:	ebffff38 	bl	9004 <printk>
    9320:	eb0000ac 	bl	95d8 <clean_reboot>
    9324:	e59f301c 	ldr	r3, [pc, #28]	; 9348 <rpi_set_output+0x4c>
    9328:	e5830000 	str	r0, [r3]
    932c:	e3510000 	cmp	r1, #0
    9330:	159f3014 	ldrne	r3, [pc, #20]	; 934c <rpi_set_output+0x50>
    9334:	15831000 	strne	r1, [r3]
    9338:	e8bd8008 	pop	{r3, pc}
    933c:	0000a404 	andeq	sl, r0, r4, lsl #8
    9340:	0000a3cc 	andeq	sl, r0, ip, asr #7
    9344:	0000a39c 	muleq	r0, ip, r3
    9348:	00009bc0 	andeq	r9, r0, r0, asr #23
    934c:	00009bc4 	andeq	r9, r0, r4, asr #23

00009350 <va_printk>:
    9350:	e92d4ff0 	push	{r4, r5, r6, r7, r8, r9, sl, fp, lr}
    9354:	e24dd08c 	sub	sp, sp, #140	; 0x8c
    9358:	e1a0a000 	mov	sl, r0
    935c:	e1a09003 	mov	r9, r3
    9360:	e2411001 	sub	r1, r1, #1
    9364:	e0808001 	add	r8, r0, r1
    9368:	e3a03000 	mov	r3, #0
    936c:	e5c03000 	strb	r3, [r0]
    9370:	e1a04000 	mov	r4, r0
    9374:	e1a0b003 	mov	fp, r3
    9378:	ea000086 	b	9598 <va_printk+0x248>
    937c:	e3530025 	cmp	r3, #37	; 0x25
    9380:	12822001 	addne	r2, r2, #1
    9384:	15c43000 	strbne	r3, [r4]
    9388:	12844001 	addne	r4, r4, #1
    938c:	1a000081 	bne	9598 <va_printk+0x248>
    9390:	e5d21001 	ldrb	r1, [r2, #1]
    9394:	e3510025 	cmp	r1, #37	; 0x25
    9398:	05c43000 	strbeq	r3, [r4]
    939c:	02822002 	addeq	r2, r2, #2
    93a0:	02844001 	addeq	r4, r4, #1
    93a4:	0a00007b 	beq	9598 <va_printk+0x248>
    93a8:	e2826001 	add	r6, r2, #1
    93ac:	e1a0700b 	mov	r7, fp
    93b0:	ea000004 	b	93c8 <va_printk+0x78>
    93b4:	e0877107 	add	r7, r7, r7, lsl #2
    93b8:	e1a07087 	lsl	r7, r7, #1
    93bc:	e0877005 	add	r7, r7, r5
    93c0:	e2477030 	sub	r7, r7, #48	; 0x30
    93c4:	e2866001 	add	r6, r6, #1
    93c8:	e5d65000 	ldrb	r5, [r6]
    93cc:	e1a00005 	mov	r0, r5
    93d0:	ebffff3d 	bl	90cc <isdigit>
    93d4:	e3500000 	cmp	r0, #0
    93d8:	1afffff5 	bne	93b4 <va_printk+0x64>
    93dc:	e357001f 	cmp	r7, #31
    93e0:	9a000006 	bls	9400 <va_printk+0xb0>
    93e4:	ebffff21 	bl	9070 <rpi_reset_putc>
    93e8:	e59f01d4 	ldr	r0, [pc, #468]	; 95c4 <va_printk+0x274>
    93ec:	e59f11d4 	ldr	r1, [pc, #468]	; 95c8 <va_printk+0x278>
    93f0:	e59f21d4 	ldr	r2, [pc, #468]	; 95cc <va_printk+0x27c>
    93f4:	e3a03094 	mov	r3, #148	; 0x94
    93f8:	ebffff01 	bl	9004 <printk>
    93fc:	eb000075 	bl	95d8 <clean_reboot>
    9400:	e2455062 	sub	r5, r5, #98	; 0x62
    9404:	e3550016 	cmp	r5, #22
    9408:	979ff105 	ldrls	pc, [pc, r5, lsl #2]
    940c:	ea00004e 	b	954c <va_printk+0x1fc>
    9410:	000094f8 	strdeq	r9, [r0], -r8
    9414:	00009528 	andeq	r9, r0, r8, lsr #10
    9418:	00009488 	andeq	r9, r0, r8, lsl #9
    941c:	0000954c 	andeq	r9, r0, ip, asr #10
    9420:	0000946c 	andeq	r9, r0, ip, ror #8
    9424:	0000954c 	andeq	r9, r0, ip, asr #10
    9428:	0000954c 	andeq	r9, r0, ip, asr #10
    942c:	0000954c 	andeq	r9, r0, ip, asr #10
    9430:	0000954c 	andeq	r9, r0, ip, asr #10
    9434:	0000954c 	andeq	r9, r0, ip, asr #10
    9438:	0000954c 	andeq	r9, r0, ip, asr #10
    943c:	0000954c 	andeq	r9, r0, ip, asr #10
    9440:	0000954c 	andeq	r9, r0, ip, asr #10
    9444:	0000954c 	andeq	r9, r0, ip, asr #10
    9448:	000094d4 	ldrdeq	r9, [r0], -r4
    944c:	0000954c 	andeq	r9, r0, ip, asr #10
    9450:	0000954c 	andeq	r9, r0, ip, asr #10
    9454:	0000951c 	andeq	r9, r0, ip, lsl r5
    9458:	0000954c 	andeq	r9, r0, ip, asr #10
    945c:	000094b0 			; <UNDEFINED> instruction: 0x000094b0
    9460:	0000954c 	andeq	r9, r0, ip, asr #10
    9464:	0000954c 	andeq	r9, r0, ip, asr #10
    9468:	000094d4 	ldrdeq	r9, [r0], -r4
    946c:	ebfffeff 	bl	9070 <rpi_reset_putc>
    9470:	e59f0158 	ldr	r0, [pc, #344]	; 95d0 <va_printk+0x280>
    9474:	e59f114c 	ldr	r1, [pc, #332]	; 95c8 <va_printk+0x278>
    9478:	e59f214c 	ldr	r2, [pc, #332]	; 95cc <va_printk+0x27c>
    947c:	e3a0309a 	mov	r3, #154	; 0x9a
    9480:	ebfffedf 	bl	9004 <printk>
    9484:	eb000053 	bl	95d8 <clean_reboot>
    9488:	e5993000 	ldr	r3, [r9]
    948c:	e2899004 	add	r9, r9, #4
    9490:	e58d7000 	str	r7, [sp]
    9494:	e3a02001 	mov	r2, #1
    9498:	e58d2004 	str	r2, [sp, #4]
    949c:	e3a0000a 	mov	r0, #10
    94a0:	e28d1008 	add	r1, sp, #8
    94a4:	e3a02080 	mov	r2, #128	; 0x80
    94a8:	ebffff27 	bl	914c <emit>
    94ac:	ea00002f 	b	9570 <va_printk+0x220>
    94b0:	e5993000 	ldr	r3, [r9]
    94b4:	e2899004 	add	r9, r9, #4
    94b8:	e58d7000 	str	r7, [sp]
    94bc:	e58db004 	str	fp, [sp, #4]
    94c0:	e3a0000a 	mov	r0, #10
    94c4:	e28d1008 	add	r1, sp, #8
    94c8:	e3a02080 	mov	r2, #128	; 0x80
    94cc:	ebffff1e 	bl	914c <emit>
    94d0:	ea000026 	b	9570 <va_printk+0x220>
    94d4:	e5993000 	ldr	r3, [r9]
    94d8:	e2899004 	add	r9, r9, #4
    94dc:	e58d7000 	str	r7, [sp]
    94e0:	e58db004 	str	fp, [sp, #4]
    94e4:	e3a00010 	mov	r0, #16
    94e8:	e28d1008 	add	r1, sp, #8
    94ec:	e3a02080 	mov	r2, #128	; 0x80
    94f0:	ebffff15 	bl	914c <emit>
    94f4:	ea00001d 	b	9570 <va_printk+0x220>
    94f8:	e5993000 	ldr	r3, [r9]
    94fc:	e2899004 	add	r9, r9, #4
    9500:	e58d7000 	str	r7, [sp]
    9504:	e58db004 	str	fp, [sp, #4]
    9508:	e3a00002 	mov	r0, #2
    950c:	e28d1008 	add	r1, sp, #8
    9510:	e3a02080 	mov	r2, #128	; 0x80
    9514:	ebffff0c 	bl	914c <emit>
    9518:	ea000014 	b	9570 <va_printk+0x220>
    951c:	e5990000 	ldr	r0, [r9]
    9520:	e2899004 	add	r9, r9, #4
    9524:	ea000011 	b	9570 <va_printk+0x220>
    9528:	e5993000 	ldr	r3, [r9]
    952c:	e2899004 	add	r9, r9, #4
    9530:	e58d7000 	str	r7, [sp]
    9534:	e58db004 	str	fp, [sp, #4]
    9538:	e3a00008 	mov	r0, #8
    953c:	e08d1000 	add	r1, sp, r0
    9540:	e3a02080 	mov	r2, #128	; 0x80
    9544:	ebffff00 	bl	914c <emit>
    9548:	ea000008 	b	9570 <va_printk+0x220>
    954c:	ebfffec7 	bl	9070 <rpi_reset_putc>
    9550:	e5d63000 	ldrb	r3, [r6]
    9554:	e58d3000 	str	r3, [sp]
    9558:	e59f0074 	ldr	r0, [pc, #116]	; 95d4 <va_printk+0x284>
    955c:	e59f1064 	ldr	r1, [pc, #100]	; 95c8 <va_printk+0x278>
    9560:	e59f2064 	ldr	r2, [pc, #100]	; 95cc <va_printk+0x27c>
    9564:	e3a030bb 	mov	r3, #187	; 0xbb
    9568:	ebfffea5 	bl	9004 <printk>
    956c:	eb000019 	bl	95d8 <clean_reboot>
    9570:	e2862001 	add	r2, r6, #1
    9574:	ea000002 	b	9584 <va_printk+0x234>
    9578:	e2800001 	add	r0, r0, #1
    957c:	e5c43000 	strb	r3, [r4]
    9580:	e2844001 	add	r4, r4, #1
    9584:	e1540008 	cmp	r4, r8
    9588:	2a000002 	bcs	9598 <va_printk+0x248>
    958c:	e5d03000 	ldrb	r3, [r0]
    9590:	e3530000 	cmp	r3, #0
    9594:	1afffff7 	bne	9578 <va_printk+0x228>
    9598:	e5d23000 	ldrb	r3, [r2]
    959c:	e3530000 	cmp	r3, #0
    95a0:	0a000001 	beq	95ac <va_printk+0x25c>
    95a4:	e1540008 	cmp	r4, r8
    95a8:	3affff73 	bcc	937c <va_printk+0x2c>
    95ac:	e2840001 	add	r0, r4, #1
    95b0:	e3a03000 	mov	r3, #0
    95b4:	e5c43000 	strb	r3, [r4]
    95b8:	e06a0000 	rsb	r0, sl, r0
    95bc:	e28dd08c 	add	sp, sp, #140	; 0x8c
    95c0:	e8bd8ff0 	pop	{r4, r5, r6, r7, r8, r9, sl, fp, pc}
    95c4:	0000a41c 	andeq	sl, r0, ip, lsl r4
    95c8:	0000a3cc 	andeq	sl, r0, ip, asr #7
    95cc:	0000a3ac 	andeq	sl, r0, ip, lsr #7
    95d0:	0000a438 	andeq	sl, r0, r8, lsr r4
    95d4:	0000a460 	andeq	sl, r0, r0, ror #8

000095d8 <clean_reboot>:
    95d8:	e92d4008 	push	{r3, lr}
    95dc:	e59f3014 	ldr	r3, [pc, #20]	; 95f8 <clean_reboot+0x20>
    95e0:	e5933000 	ldr	r3, [r3]
    95e4:	e59f0010 	ldr	r0, [pc, #16]	; 95fc <clean_reboot+0x24>
    95e8:	e12fff33 	blx	r3
    95ec:	e3a00064 	mov	r0, #100	; 0x64
    95f0:	eb000044 	bl	9708 <delay_ms>
    95f4:	eb000019 	bl	9660 <rpi_reboot>
    95f8:	00009bc4 	andeq	r9, r0, r4, asr #23
    95fc:	0000a498 	muleq	r0, r8, r4

00009600 <_cstart>:
    9600:	e92d4008 	push	{r3, lr}
    9604:	e59f3020 	ldr	r3, [pc, #32]	; 962c <_cstart+0x2c>
    9608:	e59f2020 	ldr	r2, [pc, #32]	; 9630 <_cstart+0x30>
    960c:	e3a01000 	mov	r1, #0
    9610:	ea000001 	b	961c <_cstart+0x1c>
    9614:	e5831000 	str	r1, [r3]
    9618:	e2833004 	add	r3, r3, #4
    961c:	e1530002 	cmp	r3, r2
    9620:	3afffffb 	bcc	9614 <_cstart+0x14>
    9624:	ebfffa9a 	bl	8094 <notmain>
    9628:	ebffffea 	bl	95d8 <clean_reboot>
    962c:	0000a5c4 	andeq	sl, r0, r4, asr #11
    9630:	0000a9f8 	strdeq	sl, [r0], -r8

00009634 <at_user_level>:
    9634:	e10f0000 	mrs	r0, CPSR
    9638:	e200001f 	and	r0, r0, #31
    963c:	e3500010 	cmp	r0, #16
    9640:	13a00000 	movne	r0, #0
    9644:	03a00001 	moveq	r0, #1
    9648:	e12fff1e 	bx	lr

0000964c <set_user_level>:
    964c:	e10f3000 	mrs	r3, CPSR
    9650:	e3c3301f 	bic	r3, r3, #31
    9654:	e3833010 	orr	r3, r3, #16
    9658:	e129f003 	msr	CPSR_fc, r3
    965c:	e12fff1e 	bx	lr

00009660 <rpi_reboot>:
    9660:	e92d4008 	push	{r3, lr}
    9664:	ebfffff2 	bl	9634 <at_user_level>
    9668:	e3500000 	cmp	r0, #0
    966c:	0a000000 	beq	9674 <rpi_reboot+0x14>
    9670:	ebfffff5 	bl	964c <set_user_level>
    9674:	e3a0001e 	mov	r0, #30
    9678:	eb000022 	bl	9708 <delay_ms>
    967c:	e59f0014 	ldr	r0, [pc, #20]	; 9698 <rpi_reboot+0x38>
    9680:	e59f1014 	ldr	r1, [pc, #20]	; 969c <rpi_reboot+0x3c>
    9684:	eb00002b 	bl	9738 <PUT32>
    9688:	e59f0010 	ldr	r0, [pc, #16]	; 96a0 <rpi_reboot+0x40>
    968c:	e59f1010 	ldr	r1, [pc, #16]	; 96a4 <rpi_reboot+0x44>
    9690:	eb000028 	bl	9738 <PUT32>
    9694:	eafffffe 	b	9694 <rpi_reboot+0x34>
    9698:	20100024 	andscs	r0, r0, r4, lsr #32
    969c:	5a000001 	bpl	96a8 <delay_cycles>
    96a0:	2010001c 	andscs	r0, r0, ip, lsl r0
    96a4:	5a000020 	bpl	972c <delay_sec+0x10>

000096a8 <delay_cycles>:
    96a8:	ea000001 	b	96b4 <delay_cycles+0xc>
    96ac:	e2811000 	add	r1, r1, #0
    96b0:	e1a00003 	mov	r0, r3
    96b4:	e2403001 	sub	r3, r0, #1
    96b8:	e3500000 	cmp	r0, #0
    96bc:	1afffffa 	bne	96ac <delay_cycles+0x4>
    96c0:	e12fff1e 	bx	lr

000096c4 <timer_get_usec_raw>:
    96c4:	e92d4008 	push	{r3, lr}
    96c8:	e59f0004 	ldr	r0, [pc, #4]	; 96d4 <timer_get_usec_raw+0x10>
    96cc:	eb000025 	bl	9768 <GET32>
    96d0:	e8bd8008 	pop	{r3, pc}
    96d4:	20003004 	andcs	r3, r0, r4

000096d8 <timer_get_usec>:
    96d8:	e92d4008 	push	{r3, lr}
    96dc:	ebfffff8 	bl	96c4 <timer_get_usec_raw>
    96e0:	e8bd8008 	pop	{r3, pc}

000096e4 <delay_us>:
    96e4:	e92d4038 	push	{r3, r4, r5, lr}
    96e8:	e1a05000 	mov	r5, r0
    96ec:	ebfffff9 	bl	96d8 <timer_get_usec>
    96f0:	e1a04000 	mov	r4, r0
    96f4:	ebfffff7 	bl	96d8 <timer_get_usec>
    96f8:	e0640000 	rsb	r0, r4, r0
    96fc:	e1500005 	cmp	r0, r5
    9700:	3afffffb 	bcc	96f4 <delay_us+0x10>
    9704:	e8bd8038 	pop	{r3, r4, r5, pc}

00009708 <delay_ms>:
    9708:	e92d4008 	push	{r3, lr}
    970c:	e3a03ffa 	mov	r3, #1000	; 0x3e8
    9710:	e0000093 	mul	r0, r3, r0
    9714:	ebfffff2 	bl	96e4 <delay_us>
    9718:	e8bd8008 	pop	{r3, pc}

0000971c <delay_sec>:
    971c:	e92d4008 	push	{r3, lr}
    9720:	e3a03ffa 	mov	r3, #1000	; 0x3e8
    9724:	e0000093 	mul	r0, r3, r0
    9728:	ebfffff6 	bl	9708 <delay_ms>
    972c:	e8bd8008 	pop	{r3, pc}

00009730 <put32>:
    9730:	e5801000 	str	r1, [r0]
    9734:	e12fff1e 	bx	lr

00009738 <PUT32>:
    9738:	e5801000 	str	r1, [r0]
    973c:	e12fff1e 	bx	lr

00009740 <put16>:
    9740:	e1c010b0 	strh	r1, [r0]
    9744:	e12fff1e 	bx	lr

00009748 <PUT16>:
    9748:	e1c010b0 	strh	r1, [r0]
    974c:	e12fff1e 	bx	lr

00009750 <put8>:
    9750:	e5c01000 	strb	r1, [r0]
    9754:	e12fff1e 	bx	lr

00009758 <PUT8>:
    9758:	e5c01000 	strb	r1, [r0]
    975c:	e12fff1e 	bx	lr

00009760 <get32>:
    9760:	e5900000 	ldr	r0, [r0]
    9764:	e12fff1e 	bx	lr

00009768 <GET32>:
    9768:	e5900000 	ldr	r0, [r0]
    976c:	e12fff1e 	bx	lr

00009770 <GETPC>:
    9770:	e1a0000e 	mov	r0, lr
    9774:	e12fff1e 	bx	lr

00009778 <dummy>:
    9778:	e12fff1e 	bx	lr

0000977c <or_in32>:
    977c:	e92d4070 	push	{r4, r5, r6, lr}
    9780:	e1a04000 	mov	r4, r0
    9784:	e1a05001 	mov	r5, r1
    9788:	ebfffff4 	bl	9760 <get32>
    978c:	e1801005 	orr	r1, r0, r5
    9790:	e1a00004 	mov	r0, r4
    9794:	ebffffe5 	bl	9730 <put32>
    9798:	e8bd8070 	pop	{r4, r5, r6, pc}

0000979c <uart_init>:
    979c:	e92d4010 	push	{r4, lr}
    97a0:	e3a01002 	mov	r1, #2
    97a4:	e3a0000e 	mov	r0, #14
    97a8:	eb000051 	bl	98f4 <gpio_set_function>
    97ac:	e3a01002 	mov	r1, #2
    97b0:	e3a0000f 	mov	r0, #15
    97b4:	eb00004e 	bl	98f4 <gpio_set_function>
    97b8:	eb0000fa 	bl	9ba8 <dev_barrier>
    97bc:	e3a01001 	mov	r1, #1
    97c0:	e59f0064 	ldr	r0, [pc, #100]	; 982c <uart_init+0x90>
    97c4:	ebffffec 	bl	977c <or_in32>
    97c8:	eb0000f6 	bl	9ba8 <dev_barrier>
    97cc:	e59f405c 	ldr	r4, [pc, #92]	; 9830 <uart_init+0x94>
    97d0:	e3a01000 	mov	r1, #0
    97d4:	e1a00004 	mov	r0, r4
    97d8:	ebffffd4 	bl	9730 <put32>
    97dc:	e3a01000 	mov	r1, #0
    97e0:	e59f004c 	ldr	r0, [pc, #76]	; 9834 <uart_init+0x98>
    97e4:	ebffffd1 	bl	9730 <put32>
    97e8:	e3a01003 	mov	r1, #3
    97ec:	e59f0044 	ldr	r0, [pc, #68]	; 9838 <uart_init+0x9c>
    97f0:	ebffffce 	bl	9730 <put32>
    97f4:	e3a01000 	mov	r1, #0
    97f8:	e59f003c 	ldr	r0, [pc, #60]	; 983c <uart_init+0xa0>
    97fc:	ebffffcb 	bl	9730 <put32>
    9800:	e3a010c7 	mov	r1, #199	; 0xc7
    9804:	e59f0034 	ldr	r0, [pc, #52]	; 9840 <uart_init+0xa4>
    9808:	ebffffc8 	bl	9730 <put32>
    980c:	e59f1030 	ldr	r1, [pc, #48]	; 9844 <uart_init+0xa8>
    9810:	e59f0030 	ldr	r0, [pc, #48]	; 9848 <uart_init+0xac>
    9814:	ebffffc5 	bl	9730 <put32>
    9818:	e3a01003 	mov	r1, #3
    981c:	e1a00004 	mov	r0, r4
    9820:	ebffffc2 	bl	9730 <put32>
    9824:	eb0000df 	bl	9ba8 <dev_barrier>
    9828:	e8bd8010 	pop	{r4, pc}
    982c:	20215004 	eorcs	r5, r1, r4
    9830:	20215060 	eorcs	r5, r1, r0, rrx
    9834:	20215044 	eorcs	r5, r1, r4, asr #32
    9838:	2021504c 	eorcs	r5, r1, ip, asr #32
    983c:	20215050 	eorcs	r5, r1, r0, asr r0
    9840:	20215048 	eorcs	r5, r1, r8, asr #32
    9844:	0000010e 	andeq	r0, r0, lr, lsl #2
    9848:	20215068 	eorcs	r5, r1, r8, rrx

0000984c <uart_can_getc>:
    984c:	e92d4010 	push	{r4, lr}
    9850:	e59f0008 	ldr	r0, [pc, #8]	; 9860 <uart_can_getc+0x14>
    9854:	ebffffc1 	bl	9760 <get32>
    9858:	e2000001 	and	r0, r0, #1
    985c:	e8bd8010 	pop	{r4, pc}
    9860:	20215064 	eorcs	r5, r1, r4, rrx

00009864 <uart_can_putc>:
    9864:	e92d4010 	push	{r4, lr}
    9868:	e59f0010 	ldr	r0, [pc, #16]	; 9880 <uart_can_putc+0x1c>
    986c:	ebffffbb 	bl	9760 <get32>
    9870:	e3100002 	tst	r0, #2
    9874:	13a00001 	movne	r0, #1
    9878:	03a00000 	moveq	r0, #0
    987c:	e8bd8010 	pop	{r4, pc}
    9880:	20215064 	eorcs	r5, r1, r4, rrx

00009884 <uart_getc>:
    9884:	e92d4010 	push	{r4, lr}
    9888:	eb0000c6 	bl	9ba8 <dev_barrier>
    988c:	ebffffee 	bl	984c <uart_can_getc>
    9890:	e3500000 	cmp	r0, #0
    9894:	0afffffc 	beq	988c <uart_getc+0x8>
    9898:	e59f0010 	ldr	r0, [pc, #16]	; 98b0 <uart_getc+0x2c>
    989c:	ebffffaf 	bl	9760 <get32>
    98a0:	e6ef4070 	uxtb	r4, r0
    98a4:	eb0000bf 	bl	9ba8 <dev_barrier>
    98a8:	e1a00004 	mov	r0, r4
    98ac:	e8bd8010 	pop	{r4, pc}
    98b0:	20215040 	eorcs	r5, r1, r0, asr #32

000098b4 <uart_putc>:
    98b4:	e92d4010 	push	{r4, lr}
    98b8:	e1a04000 	mov	r4, r0
    98bc:	eb0000b9 	bl	9ba8 <dev_barrier>
    98c0:	ebffffe7 	bl	9864 <uart_can_putc>
    98c4:	e3500000 	cmp	r0, #0
    98c8:	0afffffc 	beq	98c0 <uart_putc+0xc>
    98cc:	e6ef1074 	uxtb	r1, r4
    98d0:	e59f0008 	ldr	r0, [pc, #8]	; 98e0 <uart_putc+0x2c>
    98d4:	ebffff95 	bl	9730 <put32>
    98d8:	eb0000b2 	bl	9ba8 <dev_barrier>
    98dc:	e8bd8010 	pop	{r4, pc}
    98e0:	20215040 	eorcs	r5, r1, r0, asr #32

000098e4 <uart_has_data>:
    98e4:	e92d4010 	push	{r4, lr}
    98e8:	eb0000ae 	bl	9ba8 <dev_barrier>
    98ec:	ebffffd6 	bl	984c <uart_can_getc>
    98f0:	e8bd8010 	pop	{r4, pc}

000098f4 <gpio_set_function>:
    98f4:	e350001f 	cmp	r0, #31
    98f8:	812fff1e 	bxhi	lr
    98fc:	e3d13007 	bics	r3, r1, #7
    9900:	112fff1e 	bxne	lr
    9904:	e92d4070 	push	{r4, r5, r6, lr}
    9908:	e1a05001 	mov	r5, r1
    990c:	e59f3044 	ldr	r3, [pc, #68]	; 9958 <gpio_set_function+0x64>
    9910:	e0832093 	umull	r2, r3, r3, r0
    9914:	e1a031a3 	lsr	r3, r3, #3
    9918:	e1a06003 	mov	r6, r3
    991c:	e0833103 	add	r3, r3, r3, lsl #2
    9920:	e1a02083 	lsl	r2, r3, #1
    9924:	e0403002 	sub	r3, r0, r2
    9928:	e0834083 	add	r4, r3, r3, lsl #1
    992c:	e2866302 	add	r6, r6, #134217728	; 0x8000000
    9930:	e2866702 	add	r6, r6, #524288	; 0x80000
    9934:	e1a06106 	lsl	r6, r6, #2
    9938:	e1a00006 	mov	r0, r6
    993c:	ebffff89 	bl	9768 <GET32>
    9940:	e3a01007 	mov	r1, #7
    9944:	e1c01411 	bic	r1, r0, r1, lsl r4
    9948:	e1811415 	orr	r1, r1, r5, lsl r4
    994c:	e1a00006 	mov	r0, r6
    9950:	ebffff78 	bl	9738 <PUT32>
    9954:	e8bd8070 	pop	{r4, r5, r6, pc}
    9958:	cccccccd 	stclgt	12, cr12, [ip], {205}	; 0xcd

0000995c <gpio_set_output>:
    995c:	e92d4010 	push	{r4, lr}
    9960:	e3a01001 	mov	r1, #1
    9964:	ebffffe2 	bl	98f4 <gpio_set_function>
    9968:	e8bd8010 	pop	{r4, pc}

0000996c <gpio_set_on>:
    996c:	e350001f 	cmp	r0, #31
    9970:	812fff1e 	bxhi	lr
    9974:	e92d4010 	push	{r4, lr}
    9978:	e3a01001 	mov	r1, #1
    997c:	e1a01011 	lsl	r1, r1, r0
    9980:	e59f0004 	ldr	r0, [pc, #4]	; 998c <gpio_set_on+0x20>
    9984:	ebffff6b 	bl	9738 <PUT32>
    9988:	e8bd8010 	pop	{r4, pc}
    998c:	2020001c 	eorcs	r0, r0, ip, lsl r0

00009990 <gpio_set_off>:
    9990:	e350001f 	cmp	r0, #31
    9994:	812fff1e 	bxhi	lr
    9998:	e92d4010 	push	{r4, lr}
    999c:	e3a01001 	mov	r1, #1
    99a0:	e1a01011 	lsl	r1, r1, r0
    99a4:	e59f0004 	ldr	r0, [pc, #4]	; 99b0 <gpio_set_off+0x20>
    99a8:	ebffff62 	bl	9738 <PUT32>
    99ac:	e8bd8010 	pop	{r4, pc}
    99b0:	20200028 	eorcs	r0, r0, r8, lsr #32

000099b4 <gpio_set_input>:
    99b4:	e92d4010 	push	{r4, lr}
    99b8:	e3a01000 	mov	r1, #0
    99bc:	ebffffcc 	bl	98f4 <gpio_set_function>
    99c0:	e8bd8010 	pop	{r4, pc}

000099c4 <gpio_write>:
    99c4:	e92d4010 	push	{r4, lr}
    99c8:	e3510000 	cmp	r1, #0
    99cc:	1a000001 	bne	99d8 <gpio_write+0x14>
    99d0:	ebffffee 	bl	9990 <gpio_set_off>
    99d4:	e8bd8010 	pop	{r4, pc}
    99d8:	ebffffe3 	bl	996c <gpio_set_on>
    99dc:	e8bd8010 	pop	{r4, pc}

000099e0 <gpio_read>:
    99e0:	e350001f 	cmp	r0, #31
    99e4:	8a000007 	bhi	9a08 <gpio_read+0x28>
    99e8:	e92d4010 	push	{r4, lr}
    99ec:	e200401f 	and	r4, r0, #31
    99f0:	e59f3018 	ldr	r3, [pc, #24]	; 9a10 <gpio_read+0x30>
    99f4:	e08302a0 	add	r0, r3, r0, lsr #5
    99f8:	ebffff5a 	bl	9768 <GET32>
    99fc:	e1a00430 	lsr	r0, r0, r4
    9a00:	e2000001 	and	r0, r0, #1
    9a04:	e8bd8010 	pop	{r4, pc}
    9a08:	e3e00000 	mvn	r0, #0
    9a0c:	e12fff1e 	bx	lr
    9a10:	20200034 	eorcs	r0, r0, r4, lsr r0

00009a14 <kmalloc_heap_end>:
    9a14:	e59f3004 	ldr	r3, [pc, #4]	; 9a20 <kmalloc_heap_end+0xc>
    9a18:	e5930000 	ldr	r0, [r3]
    9a1c:	e12fff1e 	bx	lr
    9a20:	00009bc8 	andeq	r9, r0, r8, asr #23

00009a24 <kmalloc_heap_start>:
    9a24:	e59f0000 	ldr	r0, [pc]	; 9a2c <kmalloc_heap_start+0x8>
    9a28:	e12fff1e 	bx	lr
    9a2c:	0000a9f8 	strdeq	sl, [r0], -r8

00009a30 <kmalloc_init_set_start>:
    9a30:	e59f3038 	ldr	r3, [pc, #56]	; 9a70 <kmalloc_init_set_start+0x40>
    9a34:	e5933000 	ldr	r3, [r3]
    9a38:	e1500003 	cmp	r0, r3
    9a3c:	9a000003 	bls	9a50 <kmalloc_init_set_start+0x20>
    9a40:	e59f3028 	ldr	r3, [pc, #40]	; 9a70 <kmalloc_init_set_start+0x40>
    9a44:	e5830000 	str	r0, [r3]
    9a48:	e5830004 	str	r0, [r3, #4]
    9a4c:	e12fff1e 	bx	lr
    9a50:	e92d4010 	push	{r4, lr}
    9a54:	ebfffd85 	bl	9070 <rpi_reset_putc>
    9a58:	e3a03016 	mov	r3, #22
    9a5c:	e59f2010 	ldr	r2, [pc, #16]	; 9a74 <kmalloc_init_set_start+0x44>
    9a60:	e59f1010 	ldr	r1, [pc, #16]	; 9a78 <kmalloc_init_set_start+0x48>
    9a64:	e59f0010 	ldr	r0, [pc, #16]	; 9a7c <kmalloc_init_set_start+0x4c>
    9a68:	ebfffd65 	bl	9004 <printk>
    9a6c:	ebfffed9 	bl	95d8 <clean_reboot>
    9a70:	00009bc8 	andeq	r9, r0, r8, asr #23
    9a74:	0000a4a4 	andeq	sl, r0, r4, lsr #9
    9a78:	0000a4d4 	ldrdeq	sl, [r0], -r4
    9a7c:	0000a4e0 	andeq	sl, r0, r0, ror #9

00009a80 <kmalloc>:
    9a80:	e92d4010 	push	{r4, lr}
    9a84:	e3500000 	cmp	r0, #0
    9a88:	0a00000a 	beq	9ab8 <kmalloc+0x38>
    9a8c:	e2802007 	add	r2, r0, #7
    9a90:	e3c22007 	bic	r2, r2, #7
    9a94:	e59f3038 	ldr	r3, [pc, #56]	; 9ad4 <kmalloc+0x54>
    9a98:	e5934000 	ldr	r4, [r3]
    9a9c:	e0841002 	add	r1, r4, r2
    9aa0:	e5831000 	str	r1, [r3]
    9aa4:	e3a01000 	mov	r1, #0
    9aa8:	e1a00004 	mov	r0, r4
    9aac:	ebfffd4c 	bl	8fe4 <memset>
    9ab0:	e1a00004 	mov	r0, r4
    9ab4:	e8bd8010 	pop	{r4, pc}
    9ab8:	ebfffd6c 	bl	9070 <rpi_reset_putc>
    9abc:	e3a0301b 	mov	r3, #27
    9ac0:	e59f2010 	ldr	r2, [pc, #16]	; 9ad8 <kmalloc+0x58>
    9ac4:	e59f1010 	ldr	r1, [pc, #16]	; 9adc <kmalloc+0x5c>
    9ac8:	e59f0010 	ldr	r0, [pc, #16]	; 9ae0 <kmalloc+0x60>
    9acc:	ebfffd4c 	bl	9004 <printk>
    9ad0:	ebfffec0 	bl	95d8 <clean_reboot>
    9ad4:	00009bc8 	andeq	r9, r0, r8, asr #23
    9ad8:	0000a4bc 			; <UNDEFINED> instruction: 0x0000a4bc
    9adc:	0000a4d4 	ldrdeq	sl, [r0], -r4
    9ae0:	0000a4fc 	strdeq	sl, [r0], -ip

00009ae4 <kmalloc_init>:
    9ae4:	e12fff1e 	bx	lr

00009ae8 <kmalloc_heap_ptr>:
    9ae8:	e92d4010 	push	{r4, lr}
    9aec:	ebffffcc 	bl	9a24 <kmalloc_heap_start>
    9af0:	e8bd8010 	pop	{r4, pc}

00009af4 <kmalloc_aligned>:
    9af4:	e92d4010 	push	{r4, lr}
    9af8:	e2613000 	rsb	r3, r1, #0
    9afc:	e1d12003 	bics	r2, r1, r3
    9b00:	1a00000b 	bne	9b34 <kmalloc_aligned+0x40>
    9b04:	e59f2060 	ldr	r2, [pc, #96]	; 9b6c <kmalloc_aligned+0x78>
    9b08:	e5922000 	ldr	r2, [r2]
    9b0c:	e0812002 	add	r2, r1, r2
    9b10:	e2422001 	sub	r2, r2, #1
    9b14:	e0033002 	and	r3, r3, r2
    9b18:	e2411001 	sub	r1, r1, #1
    9b1c:	e1130001 	tst	r3, r1
    9b20:	1a00000a 	bne	9b50 <kmalloc_aligned+0x5c>
    9b24:	e59f2040 	ldr	r2, [pc, #64]	; 9b6c <kmalloc_aligned+0x78>
    9b28:	e5823000 	str	r3, [r2]
    9b2c:	ebffffd3 	bl	9a80 <kmalloc>
    9b30:	e8bd8010 	pop	{r4, pc}
    9b34:	ebfffd4d 	bl	9070 <rpi_reset_putc>
    9b38:	e3a0302a 	mov	r3, #42	; 0x2a
    9b3c:	e59f202c 	ldr	r2, [pc, #44]	; 9b70 <kmalloc_aligned+0x7c>
    9b40:	e59f102c 	ldr	r1, [pc, #44]	; 9b74 <kmalloc_aligned+0x80>
    9b44:	e59f002c 	ldr	r0, [pc, #44]	; 9b78 <kmalloc_aligned+0x84>
    9b48:	ebfffd2d 	bl	9004 <printk>
    9b4c:	ebfffea1 	bl	95d8 <clean_reboot>
    9b50:	ebfffd46 	bl	9070 <rpi_reset_putc>
    9b54:	e3a03030 	mov	r3, #48	; 0x30
    9b58:	e59f2010 	ldr	r2, [pc, #16]	; 9b70 <kmalloc_aligned+0x7c>
    9b5c:	e59f1010 	ldr	r1, [pc, #16]	; 9b74 <kmalloc_aligned+0x80>
    9b60:	e59f0014 	ldr	r0, [pc, #20]	; 9b7c <kmalloc_aligned+0x88>
    9b64:	ebfffd26 	bl	9004 <printk>
    9b68:	ebfffe9a 	bl	95d8 <clean_reboot>
    9b6c:	00009bc8 	andeq	r9, r0, r8, asr #23
    9b70:	0000a4c4 	andeq	sl, r0, r4, asr #9
    9b74:	0000a4d4 	ldrdeq	sl, [r0], -r4
    9b78:	0000a510 	andeq	sl, r0, r0, lsl r5
    9b7c:	0000a570 	andeq	sl, r0, r0, ror r5

00009b80 <kfree>:
    9b80:	e12fff1e 	bx	lr

00009b84 <kfree_all>:
    9b84:	e59f3008 	ldr	r3, [pc, #8]	; 9b94 <kfree_all+0x10>
    9b88:	e5932004 	ldr	r2, [r3, #4]
    9b8c:	e5832000 	str	r2, [r3]
    9b90:	e12fff1e 	bx	lr
    9b94:	00009bc8 	andeq	r9, r0, r8, asr #23

00009b98 <kfree_after>:
    9b98:	e59f3004 	ldr	r3, [pc, #4]	; 9ba4 <kfree_after+0xc>
    9b9c:	e5830000 	str	r0, [r3]
    9ba0:	e12fff1e 	bx	lr
    9ba4:	00009bc8 	andeq	r9, r0, r8, asr #23

00009ba8 <dev_barrier>:
    9ba8:	ea000002 	b	9bb8 <dsb>

00009bac <dmb>:
    9bac:	e3a00000 	mov	r0, #0
    9bb0:	ee070fba 	mcr	15, 0, r0, cr7, cr10, {5}
    9bb4:	e12fff1e 	bx	lr

00009bb8 <dsb>:
    9bb8:	ee070f9a 	mcr	15, 0, r0, cr7, cr10, {4}
    9bbc:	e12fff1e 	bx	lr

Disassembly of section .data:

00009bc0 <__data_start__>:
    9bc0:	0000905c 	andeq	r9, r0, ip, asr r0

00009bc4 <putk>:
    9bc4:	00009098 	muleq	r0, r8, r0

00009bc8 <heap>:
    9bc8:	0000a9f8 	strdeq	sl, [r0], -r8

00009bcc <heap_start>:
    9bcc:	0000a9f8 	strdeq	sl, [r0], -r8

Disassembly of section .rodata:

00009bd0 <__FUNCTION__.4204>:
    9bd0:	74736574 	ldrbtvc	r6, [r3], #-1396	; 0x574
    9bd4:	00000000 	andeq	r0, r0, r0
    9bd8:	626f6c67 	rsbvs	r6, pc, #26368	; 0x6700
    9bdc:	705f6c61 	subsvc	r6, pc, r1, ror #24
    9be0:	2070253d 	rsbscs	r2, r0, sp, lsr r5
    9be4:	61746164 	cmnvs	r4, r4, ror #2
    9be8:	72617473 	rsbvc	r7, r1, #1929379840	; 0x73000000
    9bec:	70253d74 	eorvc	r3, r5, r4, ror sp
    9bf0:	6164202c 	cmnvs	r4, ip, lsr #32
    9bf4:	6e656174 	mcrvs	1, 3, r6, cr5, cr4, {3}
    9bf8:	70253d64 	eorvc	r3, r5, r4, ror #26
    9bfc:	0000000a 	andeq	r0, r0, sl
    9c00:	74736574 	ldrbtvc	r6, [r3], #-1396	; 0x574
    9c04:	61702f73 	cmnvs	r0, r3, ror pc
    9c08:	2d327472 	cfldrscs	mvf7, [r2, #-456]!	; 0xfffffe38
    9c0c:	74736574 	ldrbtvc	r6, [r3], #-1396	; 0x574
    9c10:	00632e32 	rsbeq	r2, r3, r2, lsr lr
    9c14:	74204347 	strtvc	r4, [r0], #-839	; 0x347
    9c18:	32747365 	rsbscc	r7, r4, #-1811939327	; 0x94000001
    9c1c:	6863203a 	stmdavs	r3!, {r1, r3, r4, r5, sp}^
    9c20:	696b6365 	stmdbvs	fp!, {r0, r2, r5, r6, r8, r9, sp, lr}^
    9c24:	7420676e 	strtvc	r6, [r0], #-1902	; 0x76e
    9c28:	20746168 	rsbscs	r6, r4, r8, ror #2
    9c2c:	61636f6c 	cmnvs	r3, ip, ror #30
    9c30:	7328206c 	teqvc	r8, #108	; 0x6c
    9c34:	6b636174 	blvs	18e220c <__bss_end__+0x18d7814>
    9c38:	20726f20 	rsbscs	r6, r2, r0, lsr #30
    9c3c:	29676572 	stmdbcs	r7!, {r1, r4, r5, r6, r8, sl, sp, lr}^
    9c40:	696f7020 	stmdbvs	pc!, {r5, ip, sp, lr}^	; <UNPREDICTABLE>
    9c44:	7265746e 	rsbvc	r7, r5, #1845493760	; 0x6e000000
    9c48:	72612073 	rsbvc	r2, r1, #115	; 0x73
    9c4c:	65642065 	strbvs	r2, [r4, #-101]!	; 0x65
    9c50:	74636574 	strbtvc	r6, [r3], #-1396	; 0x574
    9c54:	0a2e6465 	beq	ba2df0 <__bss_end__+0xb983f8>
    9c58:	00000000 	andeq	r0, r0, r0
    9c5c:	7473616c 	ldrbtvc	r6, [r3], #-364	; 0x16c
    9c60:	6c6c6120 	stfvse	f6, [ip], #-128	; 0xffffff80
    9c64:	3d20636f 	stccc	3, cr6, [r0, #-444]!	; 0xfffffe44
    9c68:	000a7025 	andeq	r7, sl, r5, lsr #32

00009c6c <__FUNCTION__.4265>:
    9c6c:	695f6b63 	ldmdbvs	pc, {r0, r1, r5, r6, r8, r9, fp, sp, lr}^	; <UNPREDICTABLE>
    9c70:	0074696e 	rsbseq	r6, r4, lr, ror #18

00009c74 <__FUNCTION__.4302>:
    9c74:	72666b63 	rsbvc	r6, r6, #101376	; 0x18c00
    9c78:	00006565 	andeq	r6, r0, r5, ror #10

00009c7c <__FUNCTION__.4312>:
    9c7c:	6c616b63 	stclvs	11, cr6, [r1], #-396	; 0xfffffe74
    9c80:	00636f6c 	rsbeq	r6, r3, ip, ror #30
    9c84:	43415254 	movtmi	r5, #4692	; 0x1254
    9c88:	00003a45 	andeq	r3, r0, r5, asr #20
    9c8c:	4f525245 	svcmi	0x00525245
    9c90:	00003a52 	andeq	r3, r0, r2, asr sl
    9c94:	636f6c62 	cmnvs	pc, #25088	; 0x6200
    9c98:	7025206b 	eorvc	r2, r5, fp, rrx
    9c9c:	726f6320 	rsbvc	r6, pc, #32, 6	; 0x80000000
    9ca0:	74707572 	ldrbtvc	r7, [r0], #-1394	; 0x572
    9ca4:	61206465 	teqvs	r0, r5, ror #8
    9ca8:	666f2074 			; <UNDEFINED> instruction: 0x666f2074
    9cac:	74657366 	strbtvc	r7, [r5], #-870	; 0x366
    9cb0:	0a642520 	beq	1913138 <__bss_end__+0x1908740>
    9cb4:	00000000 	andeq	r0, r0, r0
    9cb8:	79626e09 	stmdbvc	r2!, {r0, r3, r9, sl, fp, sp, lr}^
    9cbc:	3d736574 	cfldr64cc	mvdx6, [r3, #-464]!	; 0xfffffe30
    9cc0:	000a6425 	andeq	r6, sl, r5, lsr #8
    9cc4:	6f6c4209 	svcvs	0x006c4209
    9cc8:	61206b63 	teqvs	r0, r3, ror #22
    9ccc:	636f6c6c 	cmnvs	pc, #108, 24	; 0x6c00
    9cd0:	64657461 	strbtvs	r7, [r5], #-1121	; 0x461
    9cd4:	3a746120 	bcc	1d2215c <__bss_end__+0x1d17764>
    9cd8:	3a732520 	bcc	1cd3160 <__bss_end__+0x1cc8768>
    9cdc:	253a7325 	ldrcs	r7, [sl, #-805]!	; 0x325
    9ce0:	00000a64 	andeq	r0, r0, r4, ror #20
    9ce4:	6f6c4209 	svcvs	0x006c4209
    9ce8:	66206b63 	strtvs	r6, [r0], -r3, ror #22
    9cec:	64656572 	strbtvs	r6, [r5], #-1394	; 0x572
    9cf0:	3a746120 	bcc	1d22178 <__bss_end__+0x1d17780>
    9cf4:	3a732520 	bcc	1cd317c <__bss_end__+0x1cc8784>
    9cf8:	253a7325 	ldrcs	r7, [sl, #-805]!	; 0x325
    9cfc:	00000a64 	andeq	r0, r0, r4, ror #20
    9d00:	494e4150 	stmdbmi	lr, {r4, r6, r8, lr}^
    9d04:	73253a43 	teqvc	r5, #274432	; 0x43000
    9d08:	3a73253a 	bcc	1cd31f8 <__bss_end__+0x1cc8800>
    9d0c:	613a6425 	teqvs	sl, r5, lsr #8
    9d10:	6e67696c 	cdpvs	9, 6, cr6, cr7, cr12, {3}
    9d14:	73286465 	teqvc	r8, #1694498816	; 0x65000000
    9d18:	74726174 	ldrbtvc	r6, [r2], #-372	; 0x174
    9d1c:	2938202c 	ldmdbcs	r8!, {r2, r3, r5, sp}
    9d20:	0000000a 	andeq	r0, r0, sl
    9d24:	6c616b63 	stclvs	11, cr6, [r1], #-396	; 0xfffffe74
    9d28:	2e636f6c 	cdpcs	15, 6, cr6, cr3, cr12, {3}
    9d2c:	00000063 	andeq	r0, r0, r3, rrx
    9d30:	657a6973 	ldrbvs	r6, [sl, #-2419]!	; 0x973
    9d34:	6820666f 	stmdavs	r0!, {r0, r1, r2, r3, r5, r6, r9, sl, sp, lr}
    9d38:	253d7264 	ldrcs	r7, [sp, #-612]!	; 0x264
    9d3c:	72202c64 	eorvc	r2, r0, #100, 24	; 0x6400
    9d40:	6f7a6465 	svcvs	0x007a6465
    9d44:	253d656e 	ldrcs	r6, [sp, #-1390]!	; 0x56e
    9d48:	00000a64 	andeq	r0, r0, r4, ror #20
    9d4c:	4f525245 	svcmi	0x00525245
    9d50:	73253a52 	teqvc	r5, #335872	; 0x52000
    9d54:	3a73253a 	bcc	1cd3244 <__bss_end__+0x1cc884c>
    9d58:	203a6425 	eorscs	r6, sl, r5, lsr #8
    9d5c:	534c4146 	movtpl	r4, #49478	; 0xc146
    9d60:	683c2845 	ldmdavs	ip!, {r0, r2, r6, fp, sp}
    9d64:	3e706165 	rpwccsz	f6, f0, f5
    9d68:	6e203a29 	vmulvs.f32	s6, s0, s19
    9d6c:	6920746f 	stmdbvs	r0!, {r0, r1, r2, r3, r5, r6, sl, ip, sp, lr}
    9d70:	6974696e 	ldmdbvs	r4!, {r1, r2, r3, r5, r6, r8, fp, sp, lr}^
    9d74:	7a696c61 	bvc	1a64f00 <__bss_end__+0x1a5a508>
    9d78:	0a3f6465 	beq	fe2f14 <__bss_end__+0xfd851c>
    9d7c:	00000000 	andeq	r0, r0, r0
    9d80:	65657266 	strbvs	r7, [r5, #-614]!	; 0x266
    9d84:	20676e69 	rsbcs	r6, r7, r9, ror #28
    9d88:	000a7025 	andeq	r7, sl, r5, lsr #32
    9d8c:	494e4150 	stmdbmi	lr, {r4, r6, r8, lr}^
    9d90:	73253a43 	teqvc	r5, #274432	; 0x43000
    9d94:	3a73253a 	bcc	1cd3284 <__bss_end__+0x1cc888c>
    9d98:	683a6425 	ldmdavs	sl!, {r0, r2, r5, sl, sp, lr}
    9d9c:	74733e2d 	ldrbtvc	r3, [r3], #-3629	; 0xe2d
    9da0:	20657461 	rsbcs	r7, r5, r1, ror #8
    9da4:	41203d3d 	teqmi	r0, sp, lsr sp
    9da8:	434f4c4c 	movtmi	r4, #64588	; 0xfc4c
    9dac:	000a4445 	andeq	r4, sl, r5, asr #8
    9db0:	6f6c6c61 	svcvs	0x006c6c61
    9db4:	69746163 	ldmdbvs	r4!, {r0, r1, r5, r6, r8, sp, lr}^
    9db8:	2520676e 	strcs	r6, [r0, #-1902]!	; 0x76e
    9dbc:	79622064 	stmdbvc	r2!, {r2, r5, r6, sp}^
    9dc0:	0a736574 	beq	1ce3398 <__bss_end__+0x1cd89a0>
    9dc4:	00000000 	andeq	r0, r0, r0
    9dc8:	43415254 	movtmi	r5, #4692	; 0x1254
    9dcc:	52453a45 	subpl	r3, r5, #282624	; 0x45000
    9dd0:	00524f52 	subseq	r4, r2, r2, asr pc
    9dd4:	657a6973 	ldrbvs	r6, [sl, #-2419]!	; 0x973
    9dd8:	65766f20 	ldrbvs	r6, [r6, #-3872]!	; 0xf20
    9ddc:	6f6c6672 	svcvs	0x006c6672
    9de0:	3a646577 	bcc	19233c4 <__bss_end__+0x19189cc>
    9de4:	20642520 	rsbcs	r2, r4, r0, lsr #10
    9de8:	65747962 	ldrbvs	r7, [r4, #-2402]!	; 0x962
    9dec:	73692073 	cmnvc	r9, #115	; 0x73
    9df0:	6f6f7420 	svcvs	0x006f7420
    9df4:	72616c20 	rsbvc	r6, r1, #32, 24	; 0x2000
    9df8:	000a6567 	andeq	r6, sl, r7, ror #10
    9dfc:	494e4150 	stmdbmi	lr, {r4, r6, r8, lr}^
    9e00:	73253a43 	teqvc	r5, #274432	; 0x43000
    9e04:	3a73253a 	bcc	1cd32f4 <__bss_end__+0x1cc88fc>
    9e08:	733a6425 	teqvc	sl, #620756992	; 0x25000000
    9e0c:	20657a69 	rsbcs	r7, r5, r9, ror #20
    9e10:	7265766f 	rsbvc	r7, r5, #116391936	; 0x6f00000
    9e14:	776f6c66 	strbvc	r6, [pc, -r6, ror #24]!
    9e18:	203a6465 	eorscs	r6, sl, r5, ror #8
    9e1c:	62206425 	eorvs	r6, r0, #620756992	; 0x25000000
    9e20:	73657479 	cmnvc	r5, #2030043136	; 0x79000000
    9e24:	20736920 	rsbscs	r6, r3, r0, lsr #18
    9e28:	206f6f74 	rsbcs	r6, pc, r4, ror pc	; <UNPREDICTABLE>
    9e2c:	6772616c 	ldrbvs	r6, [r2, -ip, ror #2]!
    9e30:	000a0a65 	andeq	r0, sl, r5, ror #20
    9e34:	2074756f 	rsbscs	r7, r4, pc, ror #10
    9e38:	6d20666f 	stcvs	6, cr6, [r0, #-444]!	; 0xfffffe44
    9e3c:	726f6d65 	rsbvc	r6, pc, #6464	; 0x1940
    9e40:	20202179 	eorcs	r2, r0, r9, ror r1
    9e44:	65766168 	ldrbvs	r6, [r6, #-360]!	; 0x168
    9e48:	6c6e6f20 	stclvs	15, cr6, [lr], #-128	; 0xffffff80
    9e4c:	64252079 	strtvs	r2, [r5], #-121	; 0x79
    9e50:	66656c20 	strbtvs	r6, [r5], -r0, lsr #24
    9e54:	6e202c74 	mcrvs	12, 1, r2, cr0, cr4, {3}
    9e58:	20646565 	rsbcs	r6, r4, r5, ror #10
    9e5c:	000a6425 	andeq	r6, sl, r5, lsr #8
    9e60:	494e4150 	stmdbmi	lr, {r4, r6, r8, lr}^
    9e64:	73253a43 	teqvc	r5, #274432	; 0x43000
    9e68:	3a73253a 	bcc	1cd3358 <__bss_end__+0x1cc8960>
    9e6c:	6f3a6425 	svcvs	0x003a6425
    9e70:	6f207475 	svcvs	0x00207475
    9e74:	656d2066 	strbvs	r2, [sp, #-102]!	; 0x66
    9e78:	79726f6d 	ldmdbvc	r2!, {r0, r2, r3, r5, r6, r8, r9, sl, fp, sp, lr}^
    9e7c:	68202021 	stmdavs	r0!, {r0, r5, sp}
    9e80:	20657661 	rsbcs	r7, r5, r1, ror #12
    9e84:	796c6e6f 	stmdbvc	ip!, {r0, r1, r2, r3, r5, r6, r9, sl, fp, sp, lr}^
    9e88:	20642520 	rsbcs	r2, r4, r0, lsr #10
    9e8c:	7466656c 	strbtvc	r6, [r6], #-1388	; 0x56c
    9e90:	656e202c 	strbvs	r2, [lr, #-44]!	; 0x2c
    9e94:	25206465 	strcs	r6, [r0, #-1125]!	; 0x465
    9e98:	000a0a64 	andeq	r0, sl, r4, ror #20
    9e9c:	494e4150 	stmdbmi	lr, {r4, r6, r8, lr}^
    9ea0:	73253a43 	teqvc	r5, #274432	; 0x43000
    9ea4:	3a73253a 	bcc	1cd3394 <__bss_end__+0x1cc899c>
    9ea8:	633a6425 	teqvs	sl, #620756992	; 0x25000000
    9eac:	6b636568 	blvs	18e3454 <__bss_end__+0x18d8a5c>
    9eb0:	7264685f 	rsbvc	r6, r4, #6225920	; 0x5f0000
    9eb4:	0a296828 	beq	a63f5c <__bss_end__+0xa59564>
    9eb8:	00000000 	andeq	r0, r0, r0
    9ebc:	494e4150 	stmdbmi	lr, {r4, r6, r8, lr}^
    9ec0:	73253a43 	teqvc	r5, #274432	; 0x43000
    9ec4:	3a73253a 	bcc	1cd33b4 <__bss_end__+0x1cc89bc>
    9ec8:	633a6425 	teqvs	sl, #620756992	; 0x25000000
    9ecc:	6b636568 	blvs	18e3474 <__bss_end__+0x18d8a7c>
    9ed0:	6f6c625f 	svcvs	0x006c625f
    9ed4:	68286b63 	stmdavs	r8!, {r0, r1, r5, r6, r8, r9, fp, sp, lr}
    9ed8:	00000a29 	andeq	r0, r0, r9, lsr #20
    9edc:	6c616b63 	stclvs	11, cr6, [r1], #-396	; 0xfffffe74
    9ee0:	3a636f6c 	bcc	18e5c98 <__bss_end__+0x18db2a0>
    9ee4:	6f6c6c61 	svcvs	0x006c6c61
    9ee8:	65746163 	ldrbvs	r6, [r4, #-355]!	; 0x163
    9eec:	64252064 	strtvs	r2, [r5], #-100	; 0x64
    9ef0:	74796220 	ldrbtvc	r6, [r9], #-544	; 0x220
    9ef4:	202c7365 	eorcs	r7, ip, r5, ror #6
    9ef8:	746f7428 	strbtvc	r7, [pc], #-1064	; 9f00 <__FUNCTION__.4312+0x284>
    9efc:	253d6c61 	ldrcs	r6, [sp, #-3169]!	; 0xc61
    9f00:	202c2964 	eorcs	r2, ip, r4, ror #18
    9f04:	3d727470 	cfldrdcc	mvd7, [r2, #-448]!	; 0xfffffe40
    9f08:	000a7025 	andeq	r7, sl, r5, lsr #32
    9f0c:	6e696f67 	cdpvs	15, 6, cr6, cr9, cr7, {3}
    9f10:	6f742067 	svcvs	0x00742067
    9f14:	65686320 	strbvs	r6, [r8, #-800]!	; 0x320
    9f18:	68206b63 	stmdavs	r0!, {r0, r1, r5, r6, r8, r9, fp, sp, lr}
    9f1c:	3a706165 	bcc	1c224b8 <__bss_end__+0x1c17ac0>
    9f20:	20642520 	rsbcs	r2, r4, r0, lsr #10
    9f24:	65747962 	ldrbvs	r7, [r4, #-2402]!	; 0x962
    9f28:	6c612073 	stclvs	0, cr2, [r1], #-460	; 0xfffffe34
    9f2c:	61636f6c 	cmnvs	r3, ip, ror #30
    9f30:	2c646574 	cfstr64cs	mvdx6, [r4], #-464	; 0xfffffe30
    9f34:	20642520 	rsbcs	r2, r4, r0, lsr #10
    9f38:	65747962 	ldrbvs	r7, [r4, #-2402]!	; 0x962
    9f3c:	656c2073 	strbvs	r2, [ip, #-115]!	; 0x73
    9f40:	000a7466 	andeq	r7, sl, r6, ror #8
    9f44:	58454c41 	stmdapl	r5, {r0, r6, sl, fp, lr}^
    9f48:	4548203a 	strbmi	r2, [r8, #-58]	; 0x3a
    9f4c:	52454441 	subpl	r4, r5, #1090519040	; 0x41000000
    9f50:	46464f20 	strbmi	r4, [r6], -r0, lsr #30
    9f54:	0000000a 	andeq	r0, r0, sl
    9f58:	58454c41 	stmdapl	r5, {r0, r6, sl, fp, lr}^
    9f5c:	4c42203a 	mcrrmi	0, 3, r2, r2, cr10
    9f60:	204b434f 	subcs	r4, fp, pc, asr #6
    9f64:	0a46464f 	beq	119b8a8 <__bss_end__+0x1190eb0>
    9f68:	00000000 	andeq	r0, r0, r0
    9f6c:	6f725709 	svcvs	0x00725709
    9f70:	62206574 	eorvs	r6, r0, #116, 10	; 0x1d000000
    9f74:	6b636f6c 	blvs	18e5d2c <__bss_end__+0x18db334>
    9f78:	74666120 	strbtvc	r6, [r6], #-288	; 0x120
    9f7c:	66207265 	strtvs	r7, [r0], -r5, ror #4
    9f80:	21656572 	smccs	22098	; 0x5652
    9f84:	0000000a 	andeq	r0, r0, sl
    9f88:	63656863 	cmnvs	r5, #6488064	; 0x630000
    9f8c:	2064656b 	rsbcs	r6, r4, fp, ror #10
    9f90:	62206425 	eorvs	r6, r0, #620756992	; 0x25000000
    9f94:	6b636f6c 	blvs	18e5d4c <__bss_end__+0x18db354>
    9f98:	64202c73 	strtvs	r2, [r0], #-3187	; 0xc73
    9f9c:	63657465 	cmnvs	r5, #1694498816	; 0x65000000
    9fa0:	20646574 	rsbcs	r6, r4, r4, ror r5
    9fa4:	65206425 	strvs	r6, [r0, #-1061]!	; 0x425
    9fa8:	726f7272 	rsbvc	r7, pc, #536870919	; 0x20000007
    9fac:	00000a73 	andeq	r0, r0, r3, ror sl
    9fb0:	43435553 	movtmi	r5, #13651	; 0x3553
    9fb4:	3a535345 	bcc	14decd0 <__bss_end__+0x14d42d8>
    9fb8:	65686320 	strbvs	r6, [r8, #-800]!	; 0x320
    9fbc:	64656b63 	strbtvs	r6, [r5], #-2915	; 0xb63
    9fc0:	20642520 	rsbcs	r2, r4, r0, lsr #10
    9fc4:	636f6c62 	cmnvs	pc, #25088	; 0x6200
    9fc8:	202c736b 	eorcs	r7, ip, fp, ror #6
    9fcc:	65746564 	ldrbvs	r6, [r4, #-1380]!	; 0x564
    9fd0:	64657463 	strbtvs	r7, [r5], #-1123	; 0x463
    9fd4:	206f6e20 	rsbcs	r6, pc, r0, lsr #28
    9fd8:	6f727265 	svcvs	0x00727265
    9fdc:	000a7372 	andeq	r7, sl, r2, ror r3

00009fe0 <__FUNCTION__.4279>:
    9fe0:	6b72616d 	blvs	1ca259c <__bss_end__+0x1c97ba4>
    9fe4:	00000000 	andeq	r0, r0, r0

00009fe8 <__FUNCTION__.4307>:
    9fe8:	6b72616d 	blvs	1ca25a4 <__bss_end__+0x1c97bac>
    9fec:	6c6c615f 	stfvse	f6, [ip], #-380	; 0xfffffe84
    9ff0:	00000000 	andeq	r0, r0, r0

00009ff4 <__FUNCTION__.4345>:
    9ff4:	65657773 	strbvs	r7, [r5, #-1907]!	; 0x773
    9ff8:	72665f70 	rsbvc	r5, r6, #112, 30	; 0x1c0
    9ffc:	00006565 	andeq	r6, r0, r5, ror #10

0000a000 <__FUNCTION__.4327>:
    a000:	63656863 	cmnvs	r5, #6488064	; 0x630000
    a004:	6f6e5f6b 	svcvs	0x006e5f6b
    a008:	61656c5f 	cmnvs	r5, pc, asr ip
    a00c:	0000006b 	andeq	r0, r0, fp, rrx

0000a010 <__FUNCTION__.4331>:
    a010:	63656863 	cmnvs	r5, #6488064	; 0x630000
    a014:	68735f6b 	ldmdavs	r3!, {r0, r1, r3, r5, r6, r8, r9, sl, fp, ip, lr}^
    a018:	646c756f 	strbtvs	r7, [ip], #-1391	; 0x56f
    a01c:	61656c5f 	cmnvs	r5, pc, asr ip
    a020:	0000006b 	andeq	r0, r0, fp, rrx

0000a024 <__FUNCTION__.4336>:
    a024:	6c706d69 	ldclvs	13, cr6, [r0], #-420	; 0xfffffe5c
    a028:	6e656d65 	cdpvs	13, 6, cr6, cr5, cr5, {3}
    a02c:	68745f74 	ldmdavs	r4!, {r2, r4, r5, r6, r8, r9, sl, fp, ip, lr}^
    a030:	00007369 	andeq	r7, r0, r9, ror #6
    a034:	2d2d2d2d 	stccs	13, cr2, [sp, #-180]!	; 0xffffff4c
    a038:	2d2d2d2d 	stccs	13, cr2, [sp, #-180]!	; 0xffffff4c
    a03c:	2d2d2d2d 	stccs	13, cr2, [sp, #-180]!	; 0xffffff4c
    a040:	2d2d2d2d 	stccs	13, cr2, [sp, #-180]!	; 0xffffff4c
    a044:	2d2d2d2d 	stccs	13, cr2, [sp, #-180]!	; 0xffffff4c
    a048:	2d2d2d2d 	stccs	13, cr2, [sp, #-180]!	; 0xffffff4c
    a04c:	2d2d2d2d 	stccs	13, cr2, [sp, #-180]!	; 0xffffff4c
    a050:	2d2d2d2d 	stccs	13, cr2, [sp, #-180]!	; 0xffffff4c
    a054:	2d2d2d2d 	stccs	13, cr2, [sp, #-180]!	; 0xffffff4c
    a058:	2d2d2d2d 	stccs	13, cr2, [sp, #-180]!	; 0xffffff4c
    a05c:	2d2d2d2d 	stccs	13, cr2, [sp, #-180]!	; 0xffffff4c
    a060:	2d2d2d2d 	stccs	13, cr2, [sp, #-180]!	; 0xffffff4c
    a064:	2d2d2d2d 	stccs	13, cr2, [sp, #-180]!	; 0xffffff4c
    a068:	2d2d2d2d 	stccs	13, cr2, [sp, #-180]!	; 0xffffff4c
    a06c:	00000a2d 	andeq	r0, r0, sp, lsr #20
    a070:	63656863 	cmnvs	r5, #6488064	; 0x630000
    a074:	676e696b 	strbvs	r6, [lr, -fp, ror #18]!
    a078:	726f6620 	rsbvc	r6, pc, #32, 12	; 0x2000000
    a07c:	61656c20 	cmnvs	r5, r0, lsr #24
    a080:	0a3a736b 	beq	ea6e34 <__bss_end__+0xe9c43c>
    a084:	00000000 	andeq	r0, r0, r0
    a088:	4f525245 	svcmi	0x00525245
    a08c:	43473a52 	movtmi	r3, #31314	; 0x7a52
    a090:	4645443a 			; <UNDEFINED> instruction: 0x4645443a
    a094:	54494e49 	strbpl	r4, [r9], #-3657	; 0xe49
    a098:	454c2045 	strbmi	r2, [ip, #-69]	; 0x45
    a09c:	6f204b41 	svcvs	0x00204b41
    a0a0:	78252066 	stmdavc	r5!, {r1, r2, r5, r6, sp}
    a0a4:	0000000a 	andeq	r0, r0, sl
    a0a8:	4f525245 	svcmi	0x00525245
    a0ac:	43473a52 	movtmi	r3, #31314	; 0x7a52
    a0b0:	59414d3a 	stmdbpl	r1, {r1, r3, r4, r5, r8, sl, fp, lr}^
    a0b4:	4c204542 	cfstr32mi	mvfx4, [r0], #-264	; 0xfffffef8
    a0b8:	204b4145 	subcs	r4, fp, r5, asr #2
    a0bc:	2520666f 	strcs	r6, [r0, #-1647]!	; 0x66f
    a0c0:	6e282078 	mcrvs	0, 1, r2, cr8, cr8, {3}
    a0c4:	6f70206f 	svcvs	0x0070206f
    a0c8:	65746e69 	ldrbvs	r6, [r4, #-3689]!	; 0xe69
    a0cc:	6f742072 	svcvs	0x00742072
    a0d0:	65687420 	strbvs	r7, [r8, #-1056]!	; 0x420
    a0d4:	61747320 	cmnvs	r4, r0, lsr #6
    a0d8:	0a297472 	beq	a672a8 <__bss_end__+0xa5c8b0>
    a0dc:	00000000 	andeq	r0, r0, r0
    a0e0:	3a434709 	bcc	10dbd0c <__bss_end__+0x10d1314>
    a0e4:	63656843 	cmnvs	r5, #4390912	; 0x430000
    a0e8:	2064656b 	rsbcs	r6, r4, fp, ror #10
    a0ec:	62206425 	eorvs	r6, r0, #620756992	; 0x25000000
    a0f0:	6b636f6c 	blvs	18e5ea8 <__bss_end__+0x18db4b0>
    a0f4:	000a2e73 	andeq	r2, sl, r3, ror lr
    a0f8:	43470909 	movtmi	r0, #30985	; 0x7909
    a0fc:	4355533a 	cmpmi	r5, #-402653184	; 0xe8000000
    a100:	53534543 	cmppl	r3, #281018368	; 0x10c00000
    a104:	6f4e203a 	svcvs	0x004e203a
    a108:	61656c20 	cmnvs	r5, r0, lsr #24
    a10c:	6620736b 	strtvs	r7, [r0], -fp, ror #6
    a110:	646e756f 	strbtvs	r7, [lr], #-1391	; 0x56f
    a114:	00000a21 	andeq	r0, r0, r1, lsr #20
    a118:	43470909 	movtmi	r0, #30985	; 0x7909
    a11c:	5252453a 	subspl	r4, r2, #243269632	; 0xe800000
    a120:	3a53524f 	bcc	14dea64 <__bss_end__+0x14d406c>
    a124:	20642520 	rsbcs	r2, r4, r0, lsr #10
    a128:	6f727265 	svcvs	0x00727265
    a12c:	202c7372 	eorcs	r7, ip, r2, ror r3
    a130:	6d206425 	cfstrsvs	mvf6, [r0, #-148]!	; 0xffffff6c
    a134:	65627961 	strbvs	r7, [r2, #-2401]!	; 0x961
    a138:	7272655f 	rsbsvc	r6, r2, #398458880	; 0x17c00000
    a13c:	0a73726f 	beq	1ce6b00 <__bss_end__+0x1cdc108>
    a140:	00000000 	andeq	r0, r0, r0
    a144:	2d2d2d2d 	stccs	13, cr2, [sp, #-180]!	; 0xffffff4c
    a148:	2d2d2d2d 	stccs	13, cr2, [sp, #-180]!	; 0xffffff4c
    a14c:	2d2d2d2d 	stccs	13, cr2, [sp, #-180]!	; 0xffffff4c
    a150:	2d2d2d2d 	stccs	13, cr2, [sp, #-180]!	; 0xffffff4c
    a154:	2d2d2d2d 	stccs	13, cr2, [sp, #-180]!	; 0xffffff4c
    a158:	2d2d2d2d 	stccs	13, cr2, [sp, #-180]!	; 0xffffff4c
    a15c:	2d2d2d2d 	stccs	13, cr2, [sp, #-180]!	; 0xffffff4c
    a160:	2d2d2d2d 	stccs	13, cr2, [sp, #-180]!	; 0xffffff4c
    a164:	2d2d2d2d 	stccs	13, cr2, [sp, #-180]!	; 0xffffff4c
    a168:	2d2d2d2d 	stccs	13, cr2, [sp, #-180]!	; 0xffffff4c
    a16c:	2d2d2d2d 	stccs	13, cr2, [sp, #-180]!	; 0xffffff4c
    a170:	2d2d2d2d 	stccs	13, cr2, [sp, #-180]!	; 0xffffff4c
    a174:	2d2d2d2d 	stccs	13, cr2, [sp, #-180]!	; 0xffffff4c
    a178:	2d2d2d2d 	stccs	13, cr2, [sp, #-180]!	; 0xffffff4c
    a17c:	000a2d2d 	andeq	r2, sl, sp, lsr #26
    a180:	494e4150 	stmdbmi	lr, {r4, r6, r8, lr}^
    a184:	73253a43 	teqvc	r5, #274432	; 0x43000
    a188:	3a73253a 	bcc	1cd3678 <__bss_end__+0x1cc8c80>
    a18c:	703a6425 	eorsvc	r6, sl, r5, lsr #8
    a190:	000a653c 	andeq	r6, sl, ip, lsr r5
    a194:	672d6b63 	strvs	r6, [sp, -r3, ror #22]!
    a198:	00632e63 	rsbeq	r2, r3, r3, ror #28
    a19c:	494e4150 	stmdbmi	lr, {r4, r6, r8, lr}^
    a1a0:	73253a43 	teqvc	r5, #274432	; 0x43000
    a1a4:	3a73253a 	bcc	1cd3694 <__bss_end__+0x1cc8c9c>
    a1a8:	613a6425 	teqvs	sl, r5, lsr #8
    a1ac:	6e67696c 	cdpvs	9, 6, cr6, cr7, cr12, {3}
    a1b0:	70286465 	eorvc	r6, r8, r5, ror #8
    a1b4:	0a29342c 	beq	a5726c <__bss_end__+0xa4c874>
    a1b8:	00000000 	andeq	r0, r0, r0
    a1bc:	494e4150 	stmdbmi	lr, {r4, r6, r8, lr}^
    a1c0:	73253a43 	teqvc	r5, #274432	; 0x43000
    a1c4:	3a73253a 	bcc	1cd36b4 <__bss_end__+0x1cc8cbc>
    a1c8:	613a6425 	teqvs	sl, r5, lsr #8
    a1cc:	6e67696c 	cdpvs	9, 6, cr6, cr7, cr12, {3}
    a1d0:	65286465 	strvs	r6, [r8, #-1125]!	; 0x465
    a1d4:	0a29342c 	beq	a5728c <__bss_end__+0xa4c894>
    a1d8:	00000000 	andeq	r0, r0, r0
    a1dc:	494e4150 	stmdbmi	lr, {r4, r6, r8, lr}^
    a1e0:	73253a43 	teqvc	r5, #274432	; 0x43000
    a1e4:	3a73253a 	bcc	1cd36d4 <__bss_end__+0x1cc8cdc>
    a1e8:	723a6425 	eorsvc	r6, sl, #620756992	; 0x25000000
    a1ec:	5b736765 	blpl	1ce3f88 <__bss_end__+0x1cd9590>
    a1f0:	3d205d30 	stccc	13, cr5, [r0, #-192]!	; 0xffffff40
    a1f4:	7528203d 	strvc	r2, [r8, #-61]!	; 0x3d
    a1f8:	33746e69 	cmncc	r4, #1680	; 0x690
    a1fc:	29745f32 	ldmdbcs	r4!, {r1, r4, r5, r8, r9, sl, fp, ip, lr}^
    a200:	67657226 	strbvs	r7, [r5, -r6, lsr #4]!
    a204:	5d305b73 	fldmdbxpl	r0!, {d5-d61}	;@ Deprecated
    a208:	0000000a 	andeq	r0, r0, sl
    a20c:	706d6f63 	rsbvc	r6, sp, r3, ror #30
    a210:	69746361 	ldmdbvs	r4!, {r0, r5, r6, r8, r9, sp, lr}^
    a214:	0a3a676e 	beq	ea3fd4 <__bss_end__+0xe995dc>
    a218:	00000000 	andeq	r0, r0, r0
    a21c:	463a4347 	ldrtmi	r4, [sl], -r7, asr #6
    a220:	69454552 	stmdbvs	r5, {r1, r4, r6, r8, sl, lr}^
    a224:	7020676e 	eorvc	r6, r0, lr, ror #14
    a228:	253d7274 	ldrcs	r7, [sp, #-628]!	; 0x274
    a22c:	00000a78 	andeq	r0, r0, r8, ror sl
    a230:	3a434709 	bcc	10dbe5c <__bss_end__+0x10d1464>
    a234:	63656843 	cmnvs	r5, #4390912	; 0x430000
    a238:	2064656b 	rsbcs	r6, r4, fp, ror #10
    a23c:	62206425 	eorvs	r6, r0, #620756992	; 0x25000000
    a240:	6b636f6c 	blvs	18e5ff8 <__bss_end__+0x18db600>
    a244:	66202c73 			; <UNDEFINED> instruction: 0x66202c73
    a248:	64656572 	strbtvs	r6, [r5], #-1394	; 0x572
    a24c:	2c642520 	cfstr64cs	mvdx2, [r4], #-128	; 0xffffff80
    a250:	20642520 	rsbcs	r2, r4, r0, lsr #10
    a254:	65747962 	ldrbvs	r7, [r4, #-2402]!	; 0x962
    a258:	00000a73 	andeq	r0, r0, r3, ror sl
    a25c:	3a434709 	bcc	10dbe88 <__bss_end__+0x10d1490>
    a260:	61746f74 	cmnvs	r4, r4, ror pc
    a264:	6c61206c 	stclvs	0, cr2, [r1], #-432	; 0xfffffe50
    a268:	61636f6c 	cmnvs	r3, ip, ror #30
    a26c:	20646574 	rsbcs	r6, r4, r4, ror r5
    a270:	6425203d 	strtvs	r2, [r5], #-61	; 0x3d
    a274:	6f74202c 	svcvs	0x0074202c
    a278:	206c6174 	rsbcs	r6, ip, r4, ror r1
    a27c:	6c616564 	cfstr64vs	mvdx6, [r1], #-400	; 0xfffffe70
    a280:	61636f6c 	cmnvs	r3, ip, ror #30
    a284:	20646574 	rsbcs	r6, r4, r4, ror r5
    a288:	6425203d 	strtvs	r2, [r5], #-61	; 0x3d
    a28c:	0000000a 	andeq	r0, r0, sl
    a290:	494e4150 	stmdbmi	lr, {r4, r6, r8, lr}^
    a294:	73253a43 	teqvc	r5, #274432	; 0x43000
    a298:	3a73253a 	bcc	1cd3788 <__bss_end__+0x1cc8d90>
    a29c:	473a6425 	ldrmi	r6, [sl, -r5, lsr #8]!
    a2a0:	69203a43 	stmdbvs	r0!, {r0, r1, r6, r9, fp, ip, sp}
    a2a4:	6c61766e 	stclvs	6, cr7, [r1], #-440	; 0xfffffe48
    a2a8:	65206469 	strvs	r6, [r0, #-1129]!	; 0x469
    a2ac:	726f7272 	rsbvc	r7, pc, #536870919	; 0x20000007
    a2b0:	0a0a2121 	beq	29273c <__bss_end__+0x287d44>
    a2b4:	00000000 	andeq	r0, r0, r0
    a2b8:	203a4347 	eorscs	r4, sl, r7, asr #6
    a2bc:	43435553 	movtmi	r5, #13651	; 0x3553
    a2c0:	20535345 	subscs	r5, r3, r5, asr #6
    a2c4:	70616568 	rsbvc	r6, r1, r8, ror #10
    a2c8:	65686320 	strbvs	r6, [r8, #-800]!	; 0x320
    a2cc:	64656b63 	strbtvs	r6, [r5], #-2915	; 0xb63
    a2d0:	74756f20 	ldrbtvc	r6, [r5], #-3872	; 0xf20
    a2d4:	0000000a 	andeq	r0, r0, sl
    a2d8:	494e4150 	stmdbmi	lr, {r4, r6, r8, lr}^
    a2dc:	73253a43 	teqvc	r5, #274432	; 0x43000
    a2e0:	3a73253a 	bcc	1cd37d0 <__bss_end__+0x1cc8dd8>
    a2e4:	473a6425 	ldrmi	r6, [sl, -r5, lsr #8]!
    a2e8:	73203a43 	teqvc	r0, #274432	; 0x43000
    a2ec:	6c756f68 	ldclvs	15, cr6, [r5], #-416	; 0xfffffe60
    a2f0:	61682064 	cmnvs	r8, r4, rrx
    a2f4:	6e206576 	mcrvs	5, 1, r6, cr0, cr6, {3}
    a2f8:	656c206f 	strbvs	r2, [ip, #-111]!	; 0x6f
    a2fc:	21736b61 	cmncs	r3, r1, ror #22
    a300:	00000a0a 	andeq	r0, r0, sl, lsl #20
    a304:	203a4347 	eorscs	r4, sl, r7, asr #6
    a308:	43435553 	movtmi	r5, #13651	; 0x3553
    a30c:	3a535345 	bcc	14df028 <__bss_end__+0x14d4630>
    a310:	206f6e20 	rsbcs	r6, pc, r0, lsr #28
    a314:	6b61656c 	blvs	18638cc <__bss_end__+0x1858ed4>
    a318:	000a2173 	andeq	r2, sl, r3, ror r1
    a31c:	494e4150 	stmdbmi	lr, {r4, r6, r8, lr}^
    a320:	73253a43 	teqvc	r5, #274432	; 0x43000
    a324:	3a73253a 	bcc	1cd3814 <__bss_end__+0x1cc8e1c>
    a328:	473a6425 	ldrmi	r6, [sl, -r5, lsr #8]!
    a32c:	73203a43 	teqvc	r0, #274432	; 0x43000
    a330:	6c756f68 	ldclvs	15, cr6, [r5], #-416	; 0xfffffe60
    a334:	61682064 	cmnvs	r8, r4, rrx
    a338:	6c206576 	cfstr32vs	mvfx6, [r0], #-472	; 0xfffffe28
    a33c:	736b6165 	cmnvc	fp, #1073741849	; 0x40000019
    a340:	000a0a21 	andeq	r0, sl, r1, lsr #20
    a344:	203a4347 	eorscs	r4, sl, r7, asr #6
    a348:	43435553 	movtmi	r5, #13651	; 0x3553
    a34c:	3a535345 	bcc	14df068 <__bss_end__+0x14d4670>
    a350:	756f6620 	strbvc	r6, [pc, #-1568]!	; 9d38 <__FUNCTION__.4312+0xbc>
    a354:	2520646e 	strcs	r6, [r0, #-1134]!	; 0x46e
    a358:	656c2064 	strbvs	r2, [ip, #-100]!	; 0x64
    a35c:	21736b61 	cmncs	r3, r1, ror #22
    a360:	0000000a 	andeq	r0, r0, sl
    a364:	494e4150 	stmdbmi	lr, {r4, r6, r8, lr}^
    a368:	73253a43 	teqvc	r5, #274432	; 0x43000
    a36c:	3a73253a 	bcc	1cd385c <__bss_end__+0x1cc8e64>
    a370:	643a6425 	ldrtvs	r6, [sl], #-1061	; 0x425
    a374:	6e206469 	cdpvs	4, 2, cr6, cr0, cr9, {3}
    a378:	6920746f 	stmdbvs	r0!, {r0, r1, r2, r3, r5, r6, sl, ip, sp, lr}
    a37c:	656c706d 	strbvs	r7, [ip, #-109]!	; 0x6d
    a380:	746e656d 	strbtvc	r6, [lr], #-1389	; 0x56d
    a384:	6d756420 	cfldrdvs	mvd6, [r5, #-128]!	; 0xffffff80
    a388:	65725f70 	ldrbvs	r5, [r2, #-3952]!	; 0xf70
    a38c:	0a217367 	beq	867130 <__bss_end__+0x85c738>
    a390:	0000000a 	andeq	r0, r0, sl

0000a394 <__FUNCTION__.4237>:
    a394:	74696d65 	strbtvc	r6, [r9], #-3429	; 0xd65
    a398:	00000000 	andeq	r0, r0, r0

0000a39c <__FUNCTION__.4185>:
    a39c:	5f697072 	svcpl	0x00697072
    a3a0:	5f746573 	svcpl	0x00746573
    a3a4:	7074756f 	rsbsvc	r7, r4, pc, ror #10
    a3a8:	00007475 	andeq	r7, r0, r5, ror r4

0000a3ac <__FUNCTION__.4259>:
    a3ac:	705f6176 	subsvc	r6, pc, r6, ror r1	; <UNPREDICTABLE>
    a3b0:	746e6972 	strbtvc	r6, [lr], #-2418	; 0x972
    a3b4:	0000006b 	andeq	r0, r0, fp, rrx
    a3b8:	494e4150 	stmdbmi	lr, {r4, r6, r8, lr}^
    a3bc:	73253a43 	teqvc	r5, #274432	; 0x43000
    a3c0:	3a73253a 	bcc	1cd38b0 <__bss_end__+0x1cc8eb8>
    a3c4:	303a6425 	eorscc	r6, sl, r5, lsr #8
    a3c8:	0000000a 	andeq	r0, r0, sl
    a3cc:	6362696c 	cmnvs	r2, #108, 18	; 0x1b0000
    a3d0:	2d61762f 	stclcs	6, cr7, [r1, #-188]!	; 0xffffff44
    a3d4:	6e697270 	mcrvs	2, 3, r7, cr9, cr0, {3}
    a3d8:	632e6b74 	teqvs	lr, #116, 22	; 0x1d000
    a3dc:	00000000 	andeq	r0, r0, r0
    a3e0:	33323130 	teqcc	r2, #48, 2
    a3e4:	37363534 			; <UNDEFINED> instruction: 0x37363534
    a3e8:	00003938 	andeq	r3, r0, r8, lsr r9
    a3ec:	33323130 	teqcc	r2, #48, 2
    a3f0:	37363534 			; <UNDEFINED> instruction: 0x37363534
    a3f4:	62613938 	rsbvs	r3, r1, #56, 18	; 0xe0000
    a3f8:	66656463 	strbtvs	r6, [r5], -r3, ror #8
    a3fc:	00000000 	andeq	r0, r0, r0
    a400:	00003130 	andeq	r3, r0, r0, lsr r1
    a404:	494e4150 	stmdbmi	lr, {r4, r6, r8, lr}^
    a408:	73253a43 	teqvc	r5, #274432	; 0x43000
    a40c:	3a73253a 	bcc	1cd38fc <__bss_end__+0x1cc8f04>
    a410:	703a6425 	eorsvc	r6, sl, r5, lsr #8
    a414:	5f637475 	svcpl	0x00637475
    a418:	000a7066 	andeq	r7, sl, r6, rrx
    a41c:	494e4150 	stmdbmi	lr, {r4, r6, r8, lr}^
    a420:	73253a43 	teqvc	r5, #274432	; 0x43000
    a424:	3a73253a 	bcc	1cd3914 <__bss_end__+0x1cc8f1c>
    a428:	773a6425 	ldrvc	r6, [sl, -r5, lsr #8]!
    a42c:	68746469 	ldmdavs	r4!, {r0, r3, r5, r6, sl, sp, lr}^
    a430:	33203c20 	teqcc	r0, #32, 24	; 0x2000
    a434:	00000a32 	andeq	r0, r0, r2, lsr sl
    a438:	494e4150 	stmdbmi	lr, {r4, r6, r8, lr}^
    a43c:	73253a43 	teqvc	r5, #274432	; 0x43000
    a440:	3a73253a 	bcc	1cd3930 <__bss_end__+0x1cc8f38>
    a444:	663a6425 	ldrtvs	r6, [sl], -r5, lsr #8
    a448:	74616f6c 	strbtvc	r6, [r1], #-3948	; 0xf6c
    a44c:	746f6e20 	strbtvc	r6, [pc], #-3616	; a454 <__FUNCTION__.4259+0xa8>
    a450:	616e6520 	cmnvs	lr, r0, lsr #10
    a454:	64656c62 	strbtvs	r6, [r5], #-3170	; 0xc62
    a458:	0a212121 	beq	8528e4 <__bss_end__+0x847eec>
    a45c:	00000000 	andeq	r0, r0, r0
    a460:	494e4150 	stmdbmi	lr, {r4, r6, r8, lr}^
    a464:	73253a43 	teqvc	r5, #274432	; 0x43000
    a468:	3a73253a 	bcc	1cd3958 <__bss_end__+0x1cc8f60>
    a46c:	703a6425 	eorsvc	r6, sl, r5, lsr #8
    a470:	746e6972 	strbtvc	r6, [lr], #-2418	; 0x972
    a474:	6e203a6b 	vnmulvs.f32	s6, s0, s23
    a478:	6820746f 	stmdavs	r0!, {r0, r1, r2, r3, r5, r6, sl, ip, sp, lr}
    a47c:	6c646e61 	stclvs	14, cr6, [r4], #-388	; 0xfffffe7c
    a480:	20676e69 	rsbcs	r6, r7, r9, ror #28
    a484:	63657073 	cmnvs	r5, #115	; 0x73
    a488:	65696669 	strbvs	r6, [r9, #-1641]!	; 0x669
    a48c:	25272072 	strcs	r2, [r7, #-114]!	; 0x72
    a490:	0a0a2763 	beq	294224 <__bss_end__+0x28982c>
    a494:	00000000 	andeq	r0, r0, r0
    a498:	454e4f44 	strbmi	r4, [lr, #-3908]	; 0xf44
    a49c:	0a212121 	beq	852928 <__bss_end__+0x847f30>
    a4a0:	00000000 	andeq	r0, r0, r0

0000a4a4 <__FUNCTION__.4237>:
    a4a4:	6c616d6b 	stclvs	13, cr6, [r1], #-428	; 0xfffffe54
    a4a8:	5f636f6c 	svcpl	0x00636f6c
    a4ac:	74696e69 	strbtvc	r6, [r9], #-3689	; 0xe69
    a4b0:	7465735f 	strbtvc	r7, [r5], #-863	; 0x35f
    a4b4:	6174735f 	cmnvs	r4, pc, asr r3
    a4b8:	00007472 	andeq	r7, r0, r2, ror r4

0000a4bc <__FUNCTION__.4241>:
    a4bc:	6c616d6b 	stclvs	13, cr6, [r1], #-428	; 0xfffffe54
    a4c0:	00636f6c 	rsbeq	r6, r3, ip, ror #30

0000a4c4 <__FUNCTION__.4253>:
    a4c4:	6c616d6b 	stclvs	13, cr6, [r1], #-428	; 0xfffffe54
    a4c8:	5f636f6c 	svcpl	0x00636f6c
    a4cc:	67696c61 	strbvs	r6, [r9, -r1, ror #24]!
    a4d0:	0064656e 	rsbeq	r6, r4, lr, ror #10
    a4d4:	6c616d6b 	stclvs	13, cr6, [r1], #-428	; 0xfffffe54
    a4d8:	2e636f6c 	cdpcs	15, 6, cr6, cr3, cr12, {3}
    a4dc:	00000063 	andeq	r0, r0, r3, rrx
    a4e0:	494e4150 	stmdbmi	lr, {r4, r6, r8, lr}^
    a4e4:	73253a43 	teqvc	r5, #274432	; 0x43000
    a4e8:	3a73253a 	bcc	1cd39d8 <__bss_end__+0x1cc8fe0>
    a4ec:	613a6425 	teqvs	sl, r5, lsr #8
    a4f0:	20726464 	rsbscs	r6, r2, r4, ror #8
    a4f4:	6568203e 	strbvs	r2, [r8, #-62]!	; 0x3e
    a4f8:	000a7061 	andeq	r7, sl, r1, rrx
    a4fc:	494e4150 	stmdbmi	lr, {r4, r6, r8, lr}^
    a500:	73253a43 	teqvc	r5, #274432	; 0x43000
    a504:	3a73253a 	bcc	1cd39f4 <__bss_end__+0x1cc8ffc>
    a508:	733a6425 	teqvc	sl, #620756992	; 0x25000000
    a50c:	00000a7a 	andeq	r0, r0, sl, ror sl
    a510:	4f525245 	svcmi	0x00525245
    a514:	73253a52 	teqvc	r5, #335872	; 0x52000
    a518:	3a73253a 	bcc	1cd3a08 <__bss_end__+0x1cc9010>
    a51c:	203a6425 	eorscs	r6, sl, r5, lsr #8
    a520:	534c4146 	movtpl	r4, #49478	; 0xc146
    a524:	283c2845 	ldmdacs	ip!, {r0, r2, r6, fp, sp}
    a528:	6c612828 	stclvs	8, cr2, [r1], #-160	; 0xffffff60
    a52c:	6d6e6769 	stclvs	7, cr6, [lr, #-420]!	; 0xfffffe5c
    a530:	29746e65 	ldmdbcs	r4!, {r0, r2, r5, r6, r9, sl, fp, sp, lr}^
    a534:	61282d26 	teqvs	r8, r6, lsr #26
    a538:	6e67696c 	cdpvs	9, 6, cr6, cr7, cr12, {3}
    a53c:	746e656d 	strbtvc	r6, [lr], #-1389	; 0x56d
    a540:	3d202929 	stccc	9, cr2, [r0, #-164]!	; 0xffffff5c
    a544:	6128203d 	teqvs	r8, sp, lsr r0
    a548:	6e67696c 	cdpvs	9, 6, cr6, cr7, cr12, {3}
    a54c:	746e656d 	strbtvc	r6, [lr], #-1389	; 0x56d
    a550:	293e2929 	ldmdbcs	lr!, {r0, r3, r5, r8, fp, sp}
    a554:	7361203a 	cmnvc	r1, #58	; 0x3a
    a558:	696d7573 	stmdbvs	sp!, {r0, r1, r4, r5, r6, r8, sl, ip, sp, lr}^
    a55c:	7020676e 	eorvc	r6, r0, lr, ror #14
    a560:	7265776f 	rsbvc	r7, r5, #29097984	; 0x1bc0000
    a564:	20666f20 	rsbcs	r6, r6, r0, lsr #30
    a568:	0a6f7774 	beq	1be8340 <__bss_end__+0x1bdd948>
    a56c:	00000000 	andeq	r0, r0, r0
    a570:	4f525245 	svcmi	0x00525245
    a574:	73253a52 	teqvc	r5, #335872	; 0x52000
    a578:	3a73253a 	bcc	1cd3a68 <__bss_end__+0x1cc9070>
    a57c:	203a6425 	eorscs	r6, sl, r5, lsr #8
    a580:	534c4146 	movtpl	r4, #49478	; 0xc146
    a584:	283c2845 	ldmdacs	ip!, {r0, r2, r6, fp, sp}
    a588:	29682828 	stmdbcs	r8!, {r3, r5, fp, sp}^
    a58c:	28202620 	stmdacs	r0!, {r5, r9, sl, sp}
    a590:	70797428 	rsbsvc	r7, r9, r8, lsr #8
    a594:	28666f65 	stmdacs	r6!, {r0, r2, r5, r6, r8, r9, sl, fp, sp, lr}^
    a598:	28292968 	stmdacs	r9!, {r3, r5, r6, r8, fp, sp}
    a59c:	67696c61 	strbvs	r6, [r9, -r1, ror #24]!
    a5a0:	6e656d6e 	cdpvs	13, 6, cr6, cr5, cr14, {3}
    a5a4:	2d202974 	stccs	9, cr2, [r0, #-464]!	; 0xfffffe30
    a5a8:	29293120 	stmdbcs	r9!, {r5, r8, ip, sp}
    a5ac:	203d3d20 	eorscs	r3, sp, r0, lsr #26
    a5b0:	293e2930 	ldmdbcs	lr!, {r4, r5, r8, fp, sp}
    a5b4:	6d69203a 	stclvs	0, cr2, [r9, #-232]!	; 0xffffff18
    a5b8:	73736f70 	cmnvc	r3, #112, 30	; 0x1c0
    a5bc:	656c6269 	strbvs	r6, [ip, #-617]!	; 0x269
    a5c0:	0000000a 	andeq	r0, r0, sl

Disassembly of section .bss:

0000a5c4 <__bss_start__>:
    a5c4:	00000000 	andeq	r0, r0, r0

0000a5c8 <heap>:
    a5c8:	00000000 	andeq	r0, r0, r0

0000a5cc <heap_end>:
    a5cc:	00000000 	andeq	r0, r0, r0

0000a5d0 <my_info>:
	...

0000a5e0 <info>:
	...

0000a5f0 <buf.4185>:
	...

0000a9f0 <global_p>:
	...

Disassembly of section .ARM.attributes:

00000000 <.ARM.attributes>:
   0:	00002a41 	andeq	r2, r0, r1, asr #20
   4:	61656100 	cmnvs	r5, r0, lsl #2
   8:	01006962 	tsteq	r0, r2, ror #18
   c:	00000020 	andeq	r0, r0, r0, lsr #32
  10:	4b5a3605 	blmi	168d82c <__bss_end__+0x1682e34>
  14:	08070600 	stmdaeq	r7, {r9, sl}
  18:	12010901 	andne	r0, r1, #16384	; 0x4000
  1c:	15011404 	strne	r1, [r1, #-1028]	; 0x404
  20:	18031701 	stmdane	r3, {r0, r8, r9, sl, ip}
  24:	22011a01 	andcs	r1, r1, #4096	; 0x1000
  28:	Address 0x0000000000000028 is out of bounds.


Disassembly of section .comment:

00000000 <.comment>:
   0:	3a434347 	bcc	10d0d24 <__bss_end__+0x10c632c>
   4:	4e472820 	cdpmi	8, 4, cr2, cr7, cr0, {1}
   8:	34202955 	strtcc	r2, [r0], #-2389	; 0x955
   c:	332e382e 	teqcc	lr, #3014656	; 0x2e0000
  10:	43434700 	movtmi	r4, #14080	; 0x3700
  14:	3128203a 	teqcc	r8, sl, lsr r0
  18:	2e363a35 	mrccs	10, 1, r3, cr6, cr5, {1}
  1c:	2b312e33 	blcs	c4b8f0 <__bss_end__+0xc40ef8>
  20:	326e7673 	rsbcc	r7, lr, #120586240	; 0x7300000
  24:	33303335 	teqcc	r0, #-738197504	; 0xd4000000
  28:	62312d39 	eorsvs	r2, r1, #3648	; 0xe40
  2c:	646c6975 	strbtvs	r6, [ip], #-2421	; 0x975
  30:	36202931 			; <UNDEFINED> instruction: 0x36202931
  34:	312e332e 	teqcc	lr, lr, lsr #6
  38:	31303220 	teqcc	r0, r0, lsr #4
  3c:	32363037 	eorscc	r3, r6, #55	; 0x37
  40:	Address 0x0000000000000040 is out of bounds.


Disassembly of section .debug_info:

00000000 <.debug_info>:
       0:	000002da 	ldrdeq	r0, [r0], -sl
       4:	00000004 	andeq	r0, r0, r4
       8:	01040000 	mrseq	r0, (UNDEF: 4)
       c:	00000076 	andeq	r0, r0, r6, ror r0
      10:	00017701 	andeq	r7, r1, r1, lsl #14
      14:	00002600 	andeq	r2, r0, r0, lsl #12
      18:	00801000 	addeq	r1, r0, r0
      1c:	0000c400 	andeq	ip, r0, r0, lsl #8
      20:	00000000 	andeq	r0, r0, r0
      24:	05040200 	streq	r0, [r4, #-512]	; 0x200
      28:	00746e69 	rsbseq	r6, r4, r9, ror #28
      2c:	00000003 	andeq	r0, r0, r3
      30:	37d40200 	ldrbcc	r0, [r4, r0, lsl #4]
      34:	04000000 	streq	r0, [r0], #-0
      38:	01370704 	teqeq	r7, r4, lsl #14
      3c:	01040000 	mrseq	r0, (UNDEF: 4)
      40:	0000e506 	andeq	lr, r0, r6, lsl #10
      44:	05020400 	streq	r0, [r2, #-1024]	; 0x400
      48:	00000164 	andeq	r0, r0, r4, ror #2
      4c:	5b050404 	blpl	141064 <__bss_end__+0x13666c>
      50:	04000001 	streq	r0, [r0], #-1
      54:	01560508 	cmpeq	r6, r8, lsl #10
      58:	01040000 	mrseq	r0, (UNDEF: 4)
      5c:	0000e308 	andeq	lr, r0, r8, lsl #6
      60:	07020400 	streq	r0, [r2, -r0, lsl #8]
      64:	000000f1 	strdeq	r0, [r0], -r1
      68:	00016e03 	andeq	r6, r1, r3, lsl #28
      6c:	73340300 	teqvc	r4, #0, 6
      70:	04000000 	streq	r0, [r0], #-0
      74:	01320704 	teqeq	r2, r4, lsl #14
      78:	08040000 	stmdaeq	r4, {}	; <UNPREDICTABLE>
      7c:	00012d07 	andeq	r2, r1, r7, lsl #26
      80:	07040400 	streq	r0, [r4, -r0, lsl #8]
      84:	0000014d 	andeq	r0, r0, sp, asr #2
      88:	04060405 	streq	r0, [r6], #-1029	; 0x405
      8c:	00000090 	muleq	r0, r0, r0
      90:	ec080104 	stfs	f0, [r8], {4}
      94:	06000000 	streq	r0, [r0], -r0
      98:	00009d04 	andeq	r9, r0, r4, lsl #26
      9c:	00900700 	addseq	r0, r0, r0, lsl #14
      a0:	20080000 	andcs	r0, r8, r0
      a4:	01000001 	tsteq	r0, r1
      a8:	00008816 	andeq	r8, r0, r6, lsl r8
      ac:	00801000 	addeq	r1, r0, r0
      b0:	00008400 	andeq	r8, r0, r0, lsl #8
      b4:	749c0100 	ldrvc	r0, [ip], #256	; 0x100
      b8:	09000001 	stmdbeq	r0, {r0}
      bc:	0000018b 	andeq	r0, r0, fp, lsl #3
      c0:	00681701 	rsbeq	r1, r8, r1, lsl #14
      c4:	9a090000 	bls	2400cc <__bss_end__+0x2356d4>
      c8:	01000001 	tsteq	r0, r1
      cc:	00006817 	andeq	r6, r0, r7, lsl r8
      d0:	01130a00 	tsteq	r3, r0, lsl #20
      d4:	01840000 	orreq	r0, r4, r0
      d8:	03050000 	movweq	r0, #20480	; 0x5000
      dc:	00009bd0 	ldrdeq	r9, [r0], -r0
      e0:	0100700b 	tsteq	r0, fp
      e4:	0000881d 	andeq	r8, r0, sp, lsl r8
      e8:	00000000 	andeq	r0, r0, r0
      ec:	802c0c00 	eorhi	r0, ip, r0, lsl #24
      f0:	02450000 	subeq	r0, r5, #0
      f4:	010a0000 	mrseq	r0, (UNDEF: 10)
      f8:	010d0000 	mrseq	r0, (UNDEF: 13)
      fc:	00760251 	rsbseq	r0, r6, r1, asr r2
     100:	0550010d 	ldrbeq	r0, [r0, #-269]	; 0x10d
     104:	009bd803 	addseq	sp, fp, r3, lsl #16
     108:	480c0000 	stmdami	ip, {}	; <UNPREDICTABLE>
     10c:	5b000080 	blpl	314 <_start-0x7cec>
     110:	2e000002 	cdpcs	0, 0, cr0, cr0, cr2, {0}
     114:	0d000001 	stceq	0, cr0, [r0, #-4]
     118:	4a015301 	bmi	54d24 <__bss_end__+0x4a32c>
     11c:	0252010d 	subseq	r0, r2, #1073741827	; 0x40000003
     120:	010d0074 	tsteq	sp, r4, ror r0
     124:	00750251 	rsbseq	r0, r5, r1, asr r2
     128:	0150010d 	cmpeq	r0, sp, lsl #2
     12c:	580c0034 	stmdapl	ip, {r2, r4, r5}
     130:	7f000080 	svcvc	0x00000080
     134:	46000002 	strmi	r0, [r0], -r2
     138:	0d000001 	stceq	0, cr0, [r0, #-4]
     13c:	34015201 	strcc	r5, [r1], #-513	; 0x201
     140:	0151010d 	cmpeq	r1, sp, lsl #2
     144:	6c0c0030 	stcvs	0, cr0, [ip], {48}	; 0x30
     148:	5b000080 	blpl	350 <_start-0x7cb0>
     14c:	6a000002 	bvs	15c <_start-0x7ea4>
     150:	0d000001 	stceq	0, cr0, [r0, #-4]
     154:	4d015301 	stcmi	3, cr5, [r1, #-4]
     158:	0252010d 	subseq	r0, r2, #1073741827	; 0x40000003
     15c:	010d0074 	tsteq	sp, r4, ror r0
     160:	00750251 	rsbseq	r0, r5, r1, asr r2
     164:	0150010d 	cmpeq	r0, sp, lsl #2
     168:	740e0034 	strvc	r0, [lr], #-52	; 0x34
     16c:	9e000080 	cdpls	0, 0, cr0, cr0, cr0, {4}
     170:	00000002 	andeq	r0, r0, r2
     174:	0000900f 	andeq	r9, r0, pc
     178:	00018400 	andeq	r8, r1, r0, lsl #8
     17c:	00811000 	addeq	r1, r1, r0
     180:	00040000 	andeq	r0, r4, r0
     184:	00017407 	andeq	r7, r1, r7, lsl #8
     188:	00cd1100 	sbceq	r1, sp, r0, lsl #2
     18c:	26010000 	strcs	r0, [r1], -r0
     190:	00008094 	muleq	r0, r4, r0
     194:	00000040 	andeq	r0, r0, r0, asr #32
     198:	021e9c01 	andseq	r9, lr, #256	; 0x100
     19c:	6e120000 	cdpvs	0, 1, cr0, cr2, cr0, {0}
     1a0:	372b0100 	strcc	r0, [fp, -r0, lsl #2]!
     1a4:	00000000 	andeq	r0, r0, r0
     1a8:	0c001000 	stceq	0, cr1, [r0], {-0}
     1ac:	000080a0 	andeq	r8, r0, r0, lsr #1
     1b0:	00000245 	andeq	r0, r0, r5, asr #4
     1b4:	000001c2 	andeq	r0, r0, r2, asr #3
     1b8:	0550010d 	ldrbeq	r0, [r0, #-269]	; 0x10d
     1bc:	009c1403 	addseq	r1, ip, r3, lsl #8
     1c0:	a80c0000 	stmdage	ip, {}	; <UNPREDICTABLE>
     1c4:	a5000080 	strge	r0, [r0, #-128]	; 0x80
     1c8:	d7000002 	strle	r0, [r0, -r2]
     1cc:	0d000001 	stceq	0, cr0, [r0, #-4]
     1d0:	40035001 	andmi	r5, r3, r1
     1d4:	0c002440 	cfstrseq	mvf2, [r0], {64}	; 0x40
     1d8:	000080b0 	strheq	r8, [r0], -r0
     1dc:	000002b6 			; <UNDEFINED> instruction: 0x000002b6
     1e0:	000001ec 	andeq	r0, r0, ip, ror #3
     1e4:	0350010d 	cmpeq	r0, #1073741827	; 0x40000003
     1e8:	00244040 	eoreq	r4, r4, r0, asr #32
     1ec:	0080b80c 	addeq	fp, r0, ip, lsl #16
     1f0:	0002cb00 	andeq	ip, r2, r0, lsl #22
     1f4:	00020100 	andeq	r0, r2, r0, lsl #2
     1f8:	51010d00 	tstpl	r1, r0, lsl #26
     1fc:	24404003 	strbcs	r4, [r0], #-3
     200:	80bc0e00 	adcshi	r0, ip, r0, lsl #28
     204:	00a20000 	adceq	r0, r2, r0
     208:	c8130000 	ldmdagt	r3, {}	; <UNPREDICTABLE>
     20c:	45000080 	strmi	r0, [r0, #-128]	; 0x80
     210:	0d000002 	stceq	0, cr0, [r0, #-8]
     214:	03055001 	movweq	r5, #20481	; 0x5001
     218:	00009c5c 	andeq	r9, r0, ip, asr ip
     21c:	44140000 	ldrmi	r0, [r4], #-0
     220:	01000001 	tsteq	r0, r1
     224:	00008a15 	andeq	r8, r0, r5, lsl sl
     228:	f0030500 			; <UNDEFINED> instruction: 0xf0030500
     22c:	090000a9 	stmdbeq	r0, {r0, r3, r5, r7}
     230:	0000018b 	andeq	r0, r0, fp, lsl #3
     234:	00681701 	rsbeq	r1, r8, r1, lsl #14
     238:	9a090000 	bls	240240 <__bss_end__+0x235848>
     23c:	01000001 	tsteq	r0, r1
     240:	00006817 	andeq	r6, r0, r7, lsl r8
     244:	05021500 	streq	r1, [r2, #-1280]	; 0x500
     248:	29040000 	stmdbcs	r4, {}	; <UNPREDICTABLE>
     24c:	00000025 	andeq	r0, r0, r5, lsr #32
     250:	0000025b 	andeq	r0, r0, fp, asr r2
     254:	00009716 	andeq	r9, r0, r6, lsl r7
     258:	15001700 	strne	r1, [r0, #-1792]	; 0x700
     25c:	0000001e 	andeq	r0, r0, lr, lsl r0
     260:	00881105 	addeq	r1, r8, r5, lsl #2
     264:	027f0000 	rsbseq	r0, pc, #0
     268:	68160000 	ldmdavs	r6, {}	; <UNPREDICTABLE>
     26c:	16000000 	strne	r0, [r0], -r0
     270:	00000097 	muleq	r0, r7, r0
     274:	00009716 	andeq	r9, r0, r6, lsl r7
     278:	00371600 	eorseq	r1, r7, r0, lsl #12
     27c:	15000000 	strne	r0, [r0, #-0]
     280:	0000010c 	andeq	r0, r0, ip, lsl #2
     284:	00881b06 	addeq	r1, r8, r6, lsl #22
     288:	029e0000 	addseq	r0, lr, #0
     28c:	88160000 	ldmdahi	r6, {}	; <UNPREDICTABLE>
     290:	16000000 	strne	r0, [r0], -r0
     294:	00000025 	andeq	r0, r0, r5, lsr #32
     298:	00002c16 	andeq	r2, r0, r6, lsl ip
     29c:	d5180000 	ldrle	r0, [r8, #-0]
     2a0:	05000000 	streq	r0, [r0, #-0]
     2a4:	00071939 	andeq	r1, r7, r9, lsr r9
     2a8:	72040000 	andvc	r0, r4, #0
     2ac:	000002b6 			; <UNDEFINED> instruction: 0x000002b6
     2b0:	00003716 	andeq	r3, r0, r6, lsl r7
     2b4:	04150000 	ldreq	r0, [r5], #-0
     2b8:	04000001 	streq	r0, [r0], #-1
     2bc:	0000886c 	andeq	r8, r0, ip, ror #16
     2c0:	0002cb00 	andeq	ip, r2, r0, lsl #22
     2c4:	00371600 	eorseq	r1, r7, r0, lsl #12
     2c8:	1a000000 	bne	2d0 <_start-0x7d30>
     2cc:	00000125 	andeq	r0, r0, r5, lsr #2
     2d0:	88160b05 	ldmdahi	r6, {r0, r2, r8, r9, fp}
     2d4:	16000000 	strne	r0, [r0], -r0
     2d8:	00000037 	andeq	r0, r0, r7, lsr r0
     2dc:	0e870000 	cdpeq	0, 8, cr0, cr7, cr0, {0}
     2e0:	00040000 	andeq	r0, r4, r0
     2e4:	00000168 	andeq	r0, r0, r8, ror #2
     2e8:	00760104 	rsbseq	r0, r6, r4, lsl #2
     2ec:	52010000 	andpl	r0, r1, #0
     2f0:	26000002 	strcs	r0, [r0], -r2
     2f4:	d4000000 	strle	r0, [r0], #-0
     2f8:	8c000080 	stchi	0, cr0, [r0], {128}	; 0x80
     2fc:	70000007 	andvc	r0, r0, r7
     300:	02000001 	andeq	r0, r0, #1
     304:	6e690504 	cdpvs	5, 6, cr0, cr9, cr4, {0}
     308:	00030074 	andeq	r0, r3, r4, ror r0
     30c:	03000000 	movweq	r0, #0
     310:	000037d4 	ldrdeq	r3, [r0], -r4
     314:	07040400 	streq	r0, [r4, -r0, lsl #8]
     318:	00000137 	andeq	r0, r0, r7, lsr r1
     31c:	e5060104 	str	r0, [r6, #-260]	; 0x104
     320:	04000000 	streq	r0, [r0], #-0
     324:	01640502 	cmneq	r4, r2, lsl #10
     328:	04040000 	streq	r0, [r4], #-0
     32c:	00015b05 	andeq	r5, r1, r5, lsl #22
     330:	05080400 	streq	r0, [r8, #-1024]	; 0x400
     334:	00000156 	andeq	r0, r0, r6, asr r1
     338:	00036603 	andeq	r6, r3, r3, lsl #12
     33c:	652e0400 	strvs	r0, [lr, #-1024]!	; 0x400
     340:	04000000 	streq	r0, [r0], #-0
     344:	00e30801 	rsceq	r0, r3, r1, lsl #16
     348:	0e030000 	cdpeq	0, 0, cr0, cr3, cr0, {0}
     34c:	04000002 	streq	r0, [r0], #-2
     350:	00007731 	andeq	r7, r0, r1, lsr r7
     354:	07020400 	streq	r0, [r2, -r0, lsl #8]
     358:	000000f1 	strdeq	r0, [r0], -r1
     35c:	00016e03 	andeq	r6, r1, r3, lsl #28
     360:	89340400 	ldmdbhi	r4!, {sl}
     364:	04000000 	streq	r0, [r0], #-0
     368:	01320704 	teqeq	r2, r4, lsl #14
     36c:	08040000 	stmdaeq	r4, {}	; <UNPREDICTABLE>
     370:	00012d07 	andeq	r2, r1, r7, lsl #26
     374:	07040400 	streq	r0, [r4, -r0, lsl #8]
     378:	0000014d 	andeq	r0, r0, sp, asr #2
     37c:	04060405 	streq	r0, [r6], #-1029	; 0x405
     380:	000000a6 	andeq	r0, r0, r6, lsr #1
     384:	ec080104 	stfs	f0, [r8], {4}
     388:	06000000 	streq	r0, [r0], -r0
     38c:	0000b304 	andeq	fp, r0, r4, lsl #6
     390:	00a60700 	adceq	r0, r6, r0, lsl #14
     394:	a6080000 	strge	r0, [r8], -r0
     398:	c8000000 	stmdagt	r0, {}	; <UNPREDICTABLE>
     39c:	09000000 	stmdbeq	r0, {}	; <UNPREDICTABLE>
     3a0:	00000097 	muleq	r0, r7, r0
     3a4:	010a0007 	tsteq	sl, r7
     3a8:	00dd2702 	sbcseq	r2, sp, r2, lsl #14
     3ac:	f00b0000 			; <UNDEFINED> instruction: 0xf00b0000
     3b0:	0b000001 	bleq	3bc <_start-0x7c44>
     3b4:	0001ea0b 	andeq	lr, r1, fp, lsl #20
     3b8:	0c000c00 	stceq	12, cr0, [r0], {-0}
     3bc:	0a29020c 	beq	a40bf4 <__bss_end__+0xa361fc>
     3c0:	0d000001 	stceq	0, cr0, [r0, #-4]
     3c4:	000008e3 	andeq	r0, r0, r3, ror #17
     3c8:	00ad2a02 	adceq	r2, sp, r2, lsl #20
     3cc:	0d000000 	stceq	0, cr0, [r0, #-0]
     3d0:	00000bad 	andeq	r0, r0, sp, lsr #23
     3d4:	00ad2b02 	adceq	r2, sp, r2, lsl #22
     3d8:	0d040000 	stceq	0, cr0, [r4, #-0]
     3dc:	00000352 	andeq	r0, r0, r2, asr r3
     3e0:	00372c02 	eorseq	r2, r7, r2, lsl #24
     3e4:	00080000 	andeq	r0, r8, r0
     3e8:	0002d903 	andeq	sp, r2, r3, lsl #18
     3ec:	dd2d0200 	sfmle	f0, 4, [sp, #-0]
     3f0:	0e000000 	cdpeq	0, 0, cr0, cr0, cr0, {0}
     3f4:	0000039d 	muleq	r0, sp, r3
     3f8:	9a300238 	bls	c00ce0 <__bss_end__+0xbf62e8>
     3fc:	0d000001 	stceq	0, cr0, [r0, #-4]
     400:	000002ad 	andeq	r0, r0, sp, lsr #5
     404:	007e3102 	rsbseq	r3, lr, r2, lsl #2
     408:	0d000000 	stceq	0, cr0, [r0, #-0]
     40c:	00000383 	andeq	r0, r0, r3, lsl #7
     410:	007e3202 	rsbseq	r3, lr, r2, lsl #4
     414:	0d040000 	stceq	0, cr0, [r4, #-0]
     418:	0000076e 	andeq	r0, r0, lr, ror #14
     41c:	007e3302 	rsbseq	r3, lr, r2, lsl #6
     420:	0d080000 	stceq	0, cr0, [r8, #-0]
     424:	000002a7 	andeq	r0, r0, r7, lsr #5
     428:	007e3702 	rsbseq	r3, lr, r2, lsl #14
     42c:	0d0c0000 	stceq	0, cr0, [ip, #-0]
     430:	00000287 	andeq	r0, r0, r7, lsl #5
     434:	010a3902 	tsteq	sl, r2, lsl #18
     438:	0d100000 	ldceq	0, cr0, [r0, #-0]
     43c:	000002ba 			; <UNDEFINED> instruction: 0x000002ba
     440:	010a3a02 	tsteq	sl, r2, lsl #20
     444:	0d1c0000 	ldceq	0, cr0, [ip, #-0]
     448:	00000378 	andeq	r0, r0, r8, ror r3
     44c:	007e3e02 	rsbseq	r3, lr, r2, lsl #28
     450:	0d280000 	stceq	0, cr0, [r8, #-0]
     454:	0000032b 	andeq	r0, r0, fp, lsr #6
     458:	007e3f02 	rsbseq	r3, lr, r2, lsl #30
     45c:	0d2c0000 	stceq	0, cr0, [ip, #-0]
     460:	000001c8 	andeq	r0, r0, r8, asr #3
     464:	019a4202 	orrseq	r4, sl, r2, lsl #4
     468:	0d300000 	ldceq	0, cr0, [r0, #-0]
     46c:	000001d1 	ldrdeq	r0, [r0], -r1
     470:	006c4502 	rsbeq	r4, ip, r2, lsl #10
     474:	00340000 	eorseq	r0, r4, r0
     478:	01150406 	tsteq	r5, r6, lsl #8
     47c:	6e030000 	cdpvs	0, 0, cr0, cr3, cr0, {0}
     480:	02000003 	andeq	r0, r0, #3
     484:	00011546 	andeq	r1, r1, r6, asr #10
     488:	02020a00 	andeq	r0, r2, #0, 20
     48c:	0001d049 	andeq	sp, r1, r9, asr #32
     490:	03150b00 	tsteq	r5, #0, 22
     494:	01fe0000 	mvnseq	r0, r0
     498:	00029b0b 	andeq	r9, r2, fp, lsl #22
     49c:	0b018000 	bleq	604a4 <__bss_end__+0x55aac>
     4a0:	00000236 	andeq	r0, r0, r6, lsr r2
     4a4:	170b01b8 			; <UNDEFINED> instruction: 0x170b01b8
     4a8:	b8000002 	stmdalt	r0, {r1}
     4ac:	cf0e0002 	svcgt	0x000e0002
     4b0:	10000002 	andne	r0, r0, r2
     4b4:	020d9b02 	andeq	r9, sp, #2048	; 0x800
     4b8:	4e0d0000 	cdpmi	0, 0, cr0, cr13, cr0, {0}
     4bc:	0200000d 	andeq	r0, r0, #13
     4c0:	00009e9d 	muleq	r0, sp, lr
     4c4:	670d0000 	strvs	r0, [sp, -r0]
     4c8:	0200000d 	andeq	r0, r0, #13
     4cc:	00009e9f 	muleq	r0, pc, lr	; <UNPREDICTABLE>
     4d0:	ae0d0400 	cfcpysge	mvf0, mvf13
     4d4:	02000001 	andeq	r0, r0, #1
     4d8:	000037a2 	andeq	r3, r0, r2, lsr #15
     4dc:	370d0800 	strcc	r0, [sp, -r0, lsl #16]
     4e0:	02000003 	andeq	r0, r0, #3
     4e4:	000037a4 	andeq	r3, r0, r4, lsr #15
     4e8:	0f000c00 	svceq	0x00000c00
     4ec:	000001e0 	andeq	r0, r0, r0, ror #3
     4f0:	009e5702 	addseq	r5, lr, r2, lsl #14
     4f4:	27030000 	strcs	r0, [r3, -r0]
     4f8:	10000002 	andne	r0, r0, r2
     4fc:	57020068 	strpl	r0, [r2, -r8, rrx]
     500:	00000227 	andeq	r0, r0, r7, lsr #4
     504:	a0040600 	andge	r0, r4, r0, lsl #12
     508:	0f000001 	svceq	0x00000001
     50c:	000002c3 	andeq	r0, r0, r3, asr #5
     510:	009e5902 	addseq	r5, lr, r2, lsl #18
     514:	47030000 	strmi	r0, [r3, -r0]
     518:	10000002 	andne	r0, r0, r2
     51c:	59020068 	stmdbpl	r2, {r3, r5, r6}
     520:	00000227 	andeq	r0, r0, r7, lsr #4
     524:	02f30f00 	rscseq	r0, r3, #0, 30
     528:	5b020000 	blpl	80530 <__bss_end__+0x75b38>
     52c:	0000009e 	muleq	r0, lr, r0
     530:	00026103 	andeq	r6, r2, r3, lsl #2
     534:	00681000 	rsbeq	r1, r8, r0
     538:	02275b02 	eoreq	r5, r7, #2048	; 0x800
     53c:	0f000000 	svceq	0x00000000
     540:	00000359 	andeq	r0, r0, r9, asr r3
     544:	00375d02 	eorseq	r5, r7, r2, lsl #26
     548:	7b030000 	blvc	c0550 <__bss_end__+0xb5b58>
     54c:	10000002 	andne	r0, r0, r2
     550:	5d020068 	stcpl	0, cr0, [r2, #-416]	; 0xfffffe60
     554:	00000227 	andeq	r0, r0, r7, lsr #4
     558:	01f80f00 	mvnseq	r0, r0, lsl #30
     55c:	5f020000 	svcpl	0x00020000
     560:	00000227 	andeq	r0, r0, r7, lsr #4
     564:	00029703 	andeq	r9, r2, r3, lsl #14
     568:	0d5a1100 	ldfeqe	f1, [sl, #-0]
     56c:	5f020000 	svcpl	0x00020000
     570:	0000009e 	muleq	r0, lr, r0
     574:	03051200 	movweq	r1, #20992	; 0x5200
     578:	83020000 	movwhi	r0, #8192	; 0x2000
     57c:	0002b603 	andeq	fp, r2, r3, lsl #12
     580:	00681000 	rsbeq	r1, r8, r0
     584:	02278302 	eoreq	r8, r7, #134217728	; 0x8000000
     588:	6c130000 	ldcvs	0, cr0, [r3], {-0}
     58c:	b6850200 	strlt	r0, [r5], r0, lsl #4
     590:	00000002 	andeq	r0, r0, r2
     594:	010a0406 	tsteq	sl, r6, lsl #8
     598:	93140000 	tstls	r4, #0
     59c:	01000003 	tsteq	r0, r3
     5a0:	00002536 	andeq	r2, r0, r6, lsr r5
     5a4:	0080d400 	addeq	sp, r0, r0, lsl #8
     5a8:	0000f800 	andeq	pc, r0, r0, lsl #16
     5ac:	169c0100 	ldrne	r0, [ip], r0, lsl #2
     5b0:	15000004 	strne	r0, [r0, #-4]
     5b4:	36010070 			; <UNDEFINED> instruction: 0x36010070
     5b8:	000000a0 	andeq	r0, r0, r0, lsr #1
     5bc:	0000001e 	andeq	r0, r0, lr, lsl r0
     5c0:	00035f16 	andeq	r5, r3, r6, lsl pc
     5c4:	37360100 	ldrcc	r0, [r6, -r0, lsl #2]!
     5c8:	58000000 	stmdapl	r0, {}	; <UNPREDICTABLE>
     5cc:	16000000 	strne	r0, [r0], -r0
     5d0:	0000095a 	andeq	r0, r0, sl, asr r9
     5d4:	00253601 	eoreq	r3, r5, r1, lsl #12
     5d8:	00920000 	addseq	r0, r2, r0
     5dc:	68150000 	ldmdavs	r5, {}	; <UNPREDICTABLE>
     5e0:	27360100 	ldrcs	r0, [r6, -r0, lsl #2]!
     5e4:	c6000002 	strgt	r0, [r0], -r2
     5e8:	17000000 	strne	r0, [r0, -r0]
     5ec:	37010069 	strcc	r0, [r1, -r9, rrx]
     5f0:	00000025 	andeq	r0, r0, r5, lsr #32
     5f4:	000000fa 	strdeq	r0, [r0], -sl
     5f8:	00029718 	andeq	r9, r2, r8, lsl r7
     5fc:	00811800 	addeq	r1, r1, r0, lsl #16
     600:	00007000 	andeq	r7, r0, r0
     604:	c73a0100 	ldrgt	r0, [sl, -r0, lsl #2]!
     608:	19000003 	stmdbne	r0, {r0, r1}
     60c:	000002a3 	andeq	r0, r0, r3, lsr #5
     610:	00000119 	andeq	r0, r0, r9, lsl r1
     614:	0081181a 	addeq	r1, r1, sl, lsl r8
     618:	00007000 	andeq	r7, r0, r0
     61c:	02ac1b00 	adceq	r1, ip, #0, 22
     620:	01370000 	teqeq	r7, r0
     624:	201c0000 	andscs	r0, ip, r0
     628:	26000081 	strcs	r0, [r0], -r1, lsl #1
     62c:	5c00000e 	stcpl	0, cr0, [r0], {14}
     630:	1d000003 	stcne	0, cr0, [r0, #-12]
     634:	77025001 	strvc	r5, [r2, -r1]
     638:	2c1c0000 	ldccs	0, cr0, [ip], {-0}
     63c:	26000081 	strcs	r0, [r0], -r1, lsl #1
     640:	7300000e 	movwvc	r0, #14
     644:	1d000003 	stcne	0, cr0, [r0, #-12]
     648:	03055001 	movweq	r5, #20481	; 0x5001
     64c:	00009cb8 			; <UNDEFINED> instruction: 0x00009cb8
     650:	81401c00 	cmphi	r0, r0, lsl #24
     654:	0e260000 	cdpeq	0, 2, cr0, cr6, cr0, {0}
     658:	03870000 	orreq	r0, r7, #0
     65c:	011d0000 	tsteq	sp, r0
     660:	00770250 	rsbseq	r0, r7, r0, asr r2
     664:	81541c00 	cmphi	r4, r0, lsl #24
     668:	0e260000 	cdpeq	0, 2, cr0, cr6, cr0, {0}
     66c:	039e0000 	orrseq	r0, lr, #0
     670:	011d0000 	tsteq	sp, r0
     674:	c4030550 	strgt	r0, [r3], #-1360	; 0x550
     678:	0000009c 	muleq	r0, ip, r0
     67c:	0081741c 	addeq	r7, r1, ip, lsl r4
     680:	000e2600 	andeq	r2, lr, r0, lsl #12
     684:	0003b200 	andeq	fp, r3, r0, lsl #4
     688:	50011d00 	andpl	r1, r1, r0, lsl #26
     68c:	00007702 	andeq	r7, r0, r2, lsl #14
     690:	0081881e 	addeq	r8, r1, lr, lsl r8
     694:	000e2600 	andeq	r2, lr, r0, lsl #12
     698:	50011d00 	andpl	r1, r1, r0, lsl #26
     69c:	9ce40305 	stclls	3, cr0, [r4], #20
     6a0:	00000000 	andeq	r0, r0, r0
     6a4:	81001c00 	tsthi	r0, r0, lsl #24
     6a8:	0e260000 	cdpeq	0, 2, cr0, cr6, cr0, {0}
     6ac:	03db0000 	bicseq	r0, fp, #0
     6b0:	011d0000 	tsteq	sp, r0
     6b4:	00770250 	rsbseq	r0, r7, r0, asr r2
     6b8:	81081c00 	tsthi	r8, r0, lsl #24
     6bc:	0e260000 	cdpeq	0, 2, cr0, cr6, cr0, {0}
     6c0:	03f20000 	mvnseq	r0, #0
     6c4:	011d0000 	tsteq	sp, r0
     6c8:	8c030550 	cfstr32hi	mvfx0, [r3], {80}	; 0x50
     6cc:	0000009c 	muleq	r0, ip, r0
     6d0:	0081181e 	addeq	r1, r1, lr, lsl r8
     6d4:	000e2600 	andeq	r2, lr, r0, lsl #12
     6d8:	52011d00 	andpl	r1, r1, #0, 26
     6dc:	76007405 	strvc	r7, [r0], -r5, lsl #8
     6e0:	011d2200 	tsteq	sp, r0, lsl #4
     6e4:	b8750351 	ldmdalt	r5!, {r0, r4, r6, r8, r9}^
     6e8:	50011d01 	andpl	r1, r1, r1, lsl #26
     6ec:	9c940305 	ldcls	3, cr0, [r4], {5}
     6f0:	00000000 	andeq	r0, r0, r0
     6f4:	00031e1f 	andeq	r1, r3, pc, lsl lr
     6f8:	cc400100 	stfgte	f0, [r0], {-0}
     6fc:	14000081 	strne	r0, [r0], #-129	; 0x81
     700:	01000000 	mrseq	r0, (UNDEF: 0)
     704:	0004669c 	muleq	r4, ip, r6
     708:	00701500 	rsbseq	r1, r0, r0, lsl #10
     70c:	009e4001 	addseq	r4, lr, r1
     710:	01660000 	cmneq	r6, r0
     714:	5f160000 	svcpl	0x00160000
     718:	01000003 	tsteq	r0, r3
     71c:	00003740 	andeq	r3, r0, r0, asr #14
     720:	00018700 	andeq	r8, r1, r0, lsl #14
     724:	81dc1e00 	bicshi	r1, ip, r0, lsl #28
     728:	0e3c0000 	cdpeq	0, 3, cr0, cr12, cr0, {0}
     72c:	011d0000 	tsteq	sp, r0
     730:	01f30352 	mvnseq	r0, r2, asr r3
     734:	51011d51 	tstpl	r1, r1, asr sp
     738:	1dfe0802 	ldclne	8, cr0, [lr, #8]!
     73c:	f3035001 	vhadd.u8	d5, d3, d1
     740:	00005001 	andeq	r5, r0, r1
     744:	00029114 	andeq	r9, r2, r4, lsl r1
     748:	7e190100 	mufvce	f0, f1, f0
     74c:	e0000000 	and	r0, r0, r0
     750:	48000081 	stmdami	r0, {r0, r7}
     754:	01000000 	mrseq	r0, (UNDEF: 0)
     758:	0004ea9c 	muleq	r4, ip, sl
     75c:	00681500 	rsbeq	r1, r8, r0, lsl #10
     760:	02271901 	eoreq	r1, r7, #16384	; 0x4000
     764:	01b30000 			; <UNDEFINED> instruction: 0x01b30000
     768:	a3200000 	teqge	r0, #0
     76c:	01000002 	tsteq	r0, r2
     770:	0000371a 	andeq	r3, r0, sl, lsl r7
     774:	20580100 	subscs	r0, r8, r0, lsl #2
     778:	00000374 	andeq	r0, r0, r4, ror r3
     77c:	00371b01 	eorseq	r1, r7, r1, lsl #22
     780:	57010000 	strpl	r0, [r1, -r0]
     784:	00032720 	andeq	r2, r3, r0, lsr #14
     788:	371c0100 	ldrcc	r0, [ip, -r0, lsl #2]
     78c:	01000000 	mrseq	r0, (UNDEF: 0)
     790:	01cd2056 	biceq	r2, sp, r6, asr r0
     794:	1d010000 	stcne	0, cr0, [r1, #-0]
     798:	00000037 	andeq	r0, r0, r7, lsr r0
     79c:	0a007507 	beq	1dbc0 <__bss_end__+0x131c8>
     7a0:	9f1affff 	svcls	0x001affff
     7a4:	0002a720 	andeq	sl, r2, r0, lsr #14
     7a8:	7e220100 	sufvcs	f0, f2, f0
     7ac:	01000000 	mrseq	r0, (UNDEF: 0)
     7b0:	82141e50 	andshi	r1, r4, #80, 28	; 0x500
     7b4:	0e5b0000 	cdpeq	0, 5, cr0, cr11, cr0, {0}
     7b8:	011d0000 	tsteq	sp, r0
     7bc:	38080251 	stmdacc	r8, {r0, r4, r6, r9}
     7c0:	0250011d 	subseq	r0, r0, #1073741831	; 0x40000007
     7c4:	00000074 	andeq	r0, r0, r4, ror r0
     7c8:	0002e914 	andeq	lr, r2, r4, lsl r9
     7cc:	252b0100 	strcs	r0, [fp, #-256]!	; 0x100
     7d0:	28000000 	stmdacs	r0, {}	; <UNPREDICTABLE>
     7d4:	40000082 	andmi	r0, r0, r2, lsl #1
     7d8:	01000000 	mrseq	r0, (UNDEF: 0)
     7dc:	0005219c 	muleq	r5, ip, r1
     7e0:	00681500 	rsbeq	r1, r8, r0, lsl #10
     7e4:	02272b01 	eoreq	r2, r7, #1024	; 0x400
     7e8:	01d10000 	bicseq	r0, r1, r0
     7ec:	341e0000 	ldrcc	r0, [lr], #-0
     7f0:	66000082 	strvs	r0, [r0], -r2, lsl #1
     7f4:	1d000004 	stcne	0, cr0, [r0, #-16]
     7f8:	74025001 	strvc	r5, [r2], #-1
     7fc:	14000000 	strne	r0, [r0], #-0
     800:	00000346 	andeq	r0, r0, r6, asr #6
     804:	00254a01 	eoreq	r4, r5, r1, lsl #20
     808:	82680000 	rsbhi	r0, r8, #0
     80c:	00740000 	rsbseq	r0, r4, r0
     810:	9c010000 	stcls	0, cr0, [r1], {-0}
     814:	000005d9 	ldrdeq	r0, [r0], -r9
     818:	01006815 	tsteq	r0, r5, lsl r8
     81c:	0002274a 	andeq	r2, r2, sl, asr #14
     820:	0001ef00 	andeq	lr, r1, r0, lsl #30
     824:	091e2000 	ldmdbeq	lr, {sp}
     828:	4c010000 	stcmi	0, cr0, [r1], {-0}
     82c:	00000037 	andeq	r0, r0, r7, lsr r0
     830:	47185001 	ldrmi	r5, [r8, -r1]
     834:	98000002 	stmdals	r0, {r1}
     838:	08000082 	stmdaeq	r0, {r1, r7}
     83c:	01000000 	mrseq	r0, (UNDEF: 0)
     840:	0005714e 	andeq	r7, r5, lr, asr #2
     844:	02571900 	subseq	r1, r7, #0, 18
     848:	020d0000 	andeq	r0, sp, #0
     84c:	18000000 	stmdane	r0, {}	; <UNPREDICTABLE>
     850:	00000261 	andeq	r0, r0, r1, ror #4
     854:	000082a0 	andeq	r8, r0, r0, lsr #5
     858:	00000004 	andeq	r0, r0, r4
     85c:	058e4e01 	streq	r4, [lr, #3585]	; 0xe01
     860:	71190000 	tstvc	r9, r0
     864:	2b000002 	blcs	874 <_start-0x778c>
     868:	00000002 	andeq	r0, r0, r2
     86c:	0082741c 	addeq	r7, r2, ip, lsl r4
     870:	0004ea00 	andeq	lr, r4, r0, lsl #20
     874:	0005a200 	andeq	sl, r5, r0, lsl #4
     878:	50011d00 	andpl	r1, r1, r0, lsl #26
     87c:	00007402 	andeq	r7, r0, r2, lsl #8
     880:	0082901c 	addeq	r9, r2, ip, lsl r0
     884:	0002bc00 	andeq	fp, r2, r0, lsl #24
     888:	0005c800 	andeq	ip, r5, r0, lsl #16
     88c:	53011d00 	movwpl	r1, #7424	; 0x1d00
     890:	1d007402 	cfstrsne	mvf7, [r0, #-8]
     894:	09025201 	stmdbeq	r2, {r0, r9, ip, lr}
     898:	51011d80 	smlabbpl	r1, r0, sp, r1
     89c:	1d800802 	stcne	8, cr0, [r0, #8]
     8a0:	74025001 	strvc	r5, [r2], #-1
     8a4:	b41e0038 	ldrlt	r0, [lr], #-56	; 0x38
     8a8:	bc000082 	stclt	0, cr0, [r0], {130}	; 0x82
     8ac:	1d000002 	stcne	0, cr0, [r0, #-8]
     8b0:	74025301 	strvc	r5, [r2], #-769	; 0x301
     8b4:	21000000 	mrscs	r0, (UNDEF: 0)
     8b8:	00000125 	andeq	r0, r0, r5, lsr #2
     8bc:	82dc0c01 	sbcshi	r0, ip, #256	; 0x100
     8c0:	00800000 	addeq	r0, r0, r0
     8c4:	9c010000 	stcls	0, cr0, [r1], {-0}
     8c8:	00000679 	andeq	r0, r0, r9, ror r6
     8cc:	000d5316 	andeq	r5, sp, r6, lsl r3
     8d0:	9e0c0100 	adflse	f0, f4, f0
     8d4:	49000000 	stmdbmi	r0, {}	; <UNPREDICTABLE>
     8d8:	15000002 	strne	r0, [r0, #-2]
     8dc:	0c01006e 	stceq	0, cr0, [r1], {110}	; 0x6e
     8e0:	00000037 	andeq	r0, r0, r7, lsr r0
     8e4:	0000027d 	andeq	r0, r0, sp, ror r2
     8e8:	00011322 	andeq	r1, r1, r2, lsr #6
     8ec:	00067900 	andeq	r7, r6, r0, lsl #18
     8f0:	6c030500 	cfstr32vs	mvfx0, [r3], {-0}
     8f4:	2300009c 	movwcs	r0, #156	; 0x9c
     8f8:	000082f4 	strdeq	r8, [r0], -r4
     8fc:	00000e7c 	andeq	r0, r0, ip, ror lr
     900:	0083081c 	addeq	r0, r3, ip, lsl r8
     904:	000e2600 	andeq	r2, lr, r0, lsl #12
     908:	00065000 	andeq	r5, r6, r0
     90c:	53011d00 	movwpl	r1, #7424	; 0x1d00
     910:	011d3d01 	tsteq	sp, r1, lsl #26
     914:	6c030552 	cfstr32vs	mvfx0, [r3], {82}	; 0x52
     918:	1d00009c 	stcne	0, cr0, [r0, #-624]	; 0xfffffd90
     91c:	03055101 	movweq	r5, #20737	; 0x5101
     920:	00009d24 	andeq	r9, r0, r4, lsr #26
     924:	0550011d 	ldrbeq	r0, [r0, #-285]	; 0x11d
     928:	009d0003 	addseq	r0, sp, r3
     92c:	0c230000 	stceq	0, cr0, [r3], #-0
     930:	83000083 	movwhi	r0, #131	; 0x83
     934:	1e00000e 	cdpne	0, 0, cr0, cr0, cr14, {0}
     938:	0000831c 	andeq	r8, r0, ip, lsl r3
     93c:	00000e26 	andeq	r0, r0, r6, lsr #28
     940:	0252011d 	subseq	r0, r2, #1073741831	; 0x40000007
     944:	011d8008 	tsteq	sp, r8
     948:	38080251 	stmdacc	r8, {r0, r4, r6, r9}
     94c:	0550011d 	ldrbeq	r0, [r0, #-285]	; 0x11d
     950:	009d3003 	addseq	r3, sp, r3
     954:	07000000 	streq	r0, [r0, -r0]
     958:	000000b8 	strheq	r0, [r0], -r8
     95c:	00025c21 	andeq	r5, r2, r1, lsr #24
     960:	5c5c0100 	ldfple	f0, [ip], {-0}
     964:	f0000083 			; <UNDEFINED> instruction: 0xf0000083
     968:	01000000 	mrseq	r0, (UNDEF: 0)
     96c:	0007da9c 	muleq	r7, ip, sl
     970:	0d5a1600 	ldcleq	6, cr1, [sl, #-0]
     974:	5c010000 	stcpl	0, cr0, [r1], {-0}
     978:	0000009e 	muleq	r0, lr, r0
     97c:	000002bf 			; <UNDEFINED> instruction: 0x000002bf
     980:	0008e316 	andeq	lr, r8, r6, lsl r3
     984:	ad5c0100 	ldfgee	f0, [ip, #-0]
     988:	dd000000 	stcle	0, cr0, [r0, #-0]
     98c:	16000002 	strne	r0, [r0], -r2
     990:	00000bad 	andeq	r0, r0, sp, lsr #23
     994:	00ad5c01 	adceq	r5, sp, r1, lsl #24
     998:	03110000 	tsteq	r1, #0
     99c:	52160000 	andspl	r0, r6, #0
     9a0:	01000003 	tsteq	r0, r3
     9a4:	0000375c 	andeq	r3, r0, ip, asr r7
     9a8:	00034500 	andeq	r4, r3, r0, lsl #10
     9ac:	00681700 	rsbeq	r1, r8, r0, lsl #14
     9b0:	02275d01 	eoreq	r5, r7, #1, 26	; 0x40
     9b4:	03790000 	cmneq	r9, #0
     9b8:	13220000 	teqne	r2, #0
     9bc:	ea000001 	b	9c8 <_start-0x7638>
     9c0:	05000007 	streq	r0, [r0, #-7]
     9c4:	009c7403 	addseq	r7, ip, r3, lsl #8
     9c8:	83842300 	orrhi	r2, r4, #0, 6
     9cc:	0e7c0000 	cdpeq	0, 7, cr0, cr12, cr0, {0}
     9d0:	981c0000 	ldmdals	ip, {}	; <UNPREDICTABLE>
     9d4:	26000083 	strcs	r0, [r0], -r3, lsl #1
     9d8:	2300000e 	movwcs	r0, #14
     9dc:	1d000007 	stcne	0, cr0, [r0, #-28]	; 0xffffffe4
     9e0:	08025301 	stmdaeq	r2, {r0, r8, r9, ip, lr}
     9e4:	52011d5f 	andpl	r1, r1, #6080	; 0x17c0
     9e8:	9c740305 	ldclls	3, cr0, [r4], #-20	; 0xffffffec
     9ec:	011d0000 	tsteq	sp, r0
     9f0:	24030551 	strcs	r0, [r3], #-1361	; 0x551
     9f4:	1d00009d 	stcne	0, cr0, [r0, #-628]	; 0xfffffd8c
     9f8:	03055001 	movweq	r5, #20481	; 0x5001
     9fc:	00009d4c 	andeq	r9, r0, ip, asr #26
     a00:	839c2300 	orrshi	r2, ip, #0, 6
     a04:	0e830000 	cdpeq	0, 8, cr0, cr3, cr0, {0}
     a08:	a41c0000 	ldrge	r0, [ip], #-0
     a0c:	26000083 	strcs	r0, [r0], -r3, lsl #1
     a10:	4300000e 	movwmi	r0, #14
     a14:	1d000007 	stcne	0, cr0, [r0, #-28]	; 0xffffffe4
     a18:	03055001 	movweq	r5, #20481	; 0x5001
     a1c:	00009c84 	andeq	r9, r0, r4, lsl #25
     a20:	83b01c00 	movshi	r1, #0, 24
     a24:	0e260000 	cdpeq	0, 2, cr0, cr6, cr0, {0}
     a28:	07600000 	strbeq	r0, [r0, -r0]!
     a2c:	011d0000 	tsteq	sp, r0
     a30:	00740251 	rsbseq	r0, r4, r1, asr r2
     a34:	0550011d 	ldrbeq	r0, [r0, #-285]	; 0x11d
     a38:	009d8003 	addseq	r8, sp, r3
     a3c:	bc1c0000 	ldclt	0, cr0, [ip], {-0}
     a40:	21000083 	smlabbcs	r0, r3, r0, r0
     a44:	74000005 	strvc	r0, [r0], #-5
     a48:	1d000007 	stcne	0, cr0, [r0, #-28]	; 0xffffffe4
     a4c:	75025001 	strvc	r5, [r2, #-1]
     a50:	cc230000 	stcgt	0, cr0, [r3], #-0
     a54:	7c000083 	stcvc	0, cr0, [r0], {131}	; 0x83
     a58:	1c00000e 	stcne	0, cr0, [r0], {14}
     a5c:	000083e0 	andeq	r8, r0, r0, ror #7
     a60:	00000e26 	andeq	r0, r0, r6, lsr #28
     a64:	000007ac 	andeq	r0, r0, ip, lsr #15
     a68:	0253011d 	subseq	r0, r3, #1073741831	; 0x40000007
     a6c:	011d6708 	tsteq	sp, r8, lsl #14
     a70:	74030552 	strvc	r0, [r3], #-1362	; 0x552
     a74:	1d00009c 	stcne	0, cr0, [r0, #-624]	; 0xfffffd90
     a78:	03055101 	movweq	r5, #20737	; 0x5101
     a7c:	00009d24 	andeq	r9, r0, r4, lsr #26
     a80:	0550011d 	ldrbeq	r0, [r0, #-285]	; 0x11d
     a84:	009d8c03 	addseq	r8, sp, r3, lsl #24
     a88:	e4230000 	strt	r0, [r3], #-0
     a8c:	83000083 	movwhi	r0, #131	; 0x83
     a90:	1c00000e 	stcne	0, cr0, [r0], {14}
     a94:	0000840c 	andeq	r8, r0, ip, lsl #8
     a98:	00000416 	andeq	r0, r0, r6, lsl r4
     a9c:	000007c9 	andeq	r0, r0, r9, asr #15
     aa0:	0250011d 	subseq	r0, r0, #1073741831	; 0x40000007
     aa4:	1e000074 	mcrne	0, 0, r0, cr0, cr4, {3}
     aa8:	00008428 	andeq	r8, r0, r8, lsr #8
     aac:	00000466 	andeq	r0, r0, r6, ror #8
     ab0:	0250011d 	subseq	r0, r0, #1073741831	; 0x40000007
     ab4:	00000075 	andeq	r0, r0, r5, ror r0
     ab8:	0000a608 	andeq	sl, r0, r8, lsl #12
     abc:	0007ea00 	andeq	lr, r7, r0, lsl #20
     ac0:	00970900 	addseq	r0, r7, r0, lsl #18
     ac4:	00060000 	andeq	r0, r6, r0
     ac8:	0007da07 	andeq	sp, r7, r7, lsl #20
     acc:	001e2400 	andseq	r2, lr, r0, lsl #8
     ad0:	7f010000 	svcvc	0x00010000
     ad4:	0000009e 	muleq	r0, lr, r0
     ad8:	0000844c 	andeq	r8, r0, ip, asr #8
     adc:	0000022c 	andeq	r0, r0, ip, lsr #4
     ae0:	0b509c01 	bleq	1427aec <__bss_end__+0x141d0f4>
     ae4:	5f160000 	svcpl	0x00160000
     ae8:	01000003 	tsteq	r0, r3
     aec:	00007e7f 	andeq	r7, r0, pc, ror lr
     af0:	00038d00 	andeq	r8, r3, r0, lsl #26
     af4:	08e31600 	stmiaeq	r3!, {r9, sl, ip}^
     af8:	7f010000 	svcvc	0x00010000
     afc:	000000ad 	andeq	r0, r0, sp, lsr #1
     b00:	000003cf 	andeq	r0, r0, pc, asr #7
     b04:	000bad16 	andeq	sl, fp, r6, lsl sp
     b08:	ad7f0100 	ldfgee	f0, [pc, #-0]	; b10 <_start-0x74f0>
     b0c:	11000000 	mrsne	r0, (UNDEF: 0)
     b10:	16000004 	strne	r0, [r0], -r4
     b14:	00000352 	andeq	r0, r0, r2, asr r3
     b18:	00377f01 	eorseq	r7, r7, r1, lsl #30
     b1c:	04530000 	ldrbeq	r0, [r3], #-0
     b20:	68170000 	ldmdavs	r7, {}	; <UNPREDICTABLE>
     b24:	27800100 	strcs	r0, [r0, r0, lsl #2]
     b28:	7f000002 	svcvc	0x00000002
     b2c:	17000004 	strne	r0, [r0, -r4]
     b30:	00727470 	rsbseq	r7, r2, r0, ror r4
     b34:	009e8101 	addseq	r8, lr, r1, lsl #2
     b38:	04ac0000 	strteq	r0, [ip], #0
     b3c:	13220000 	teqne	r2, #0
     b40:	50000001 	andpl	r0, r0, r1
     b44:	0500000b 	streq	r0, [r0, #-11]
     b48:	009c7c03 	addseq	r7, ip, r3, lsl #24
     b4c:	6f741700 	svcvs	0x00741700
     b50:	86010074 			; <UNDEFINED> instruction: 0x86010074
     b54:	00000037 	andeq	r0, r0, r7, lsr r0
     b58:	000004c0 	andeq	r0, r0, r0, asr #9
     b5c:	01006e17 	tsteq	r0, r7, lsl lr
     b60:	00003787 	andeq	r3, r0, r7, lsl #15
     b64:	00052600 	andeq	r2, r5, r0, lsl #12
     b68:	02471800 	subeq	r1, r7, #0, 16
     b6c:	85ac0000 	strhi	r0, [ip, #0]!
     b70:	00040000 	andeq	r0, r4, r0
     b74:	a3010000 	movwge	r0, #4096	; 0x1000
     b78:	000008a8 	andeq	r0, r0, r8, lsr #17
     b7c:	00025719 	andeq	r5, r2, r9, lsl r7
     b80:	00054f00 	andeq	r4, r5, r0, lsl #30
     b84:	61180000 	tstvs	r8, r0
     b88:	b0000002 	andlt	r0, r0, r2
     b8c:	04000085 	streq	r0, [r0], #-133	; 0x85
     b90:	01000000 	mrseq	r0, (UNDEF: 0)
     b94:	0008c5a3 	andeq	ip, r8, r3, lsr #11
     b98:	02711900 	rsbseq	r1, r1, #0, 18
     b9c:	05700000 	ldrbeq	r0, [r0, #-0]!
     ba0:	23000000 	movwcs	r0, #0
     ba4:	00008478 	andeq	r8, r0, r8, ror r4
     ba8:	00000e7c 	andeq	r0, r0, ip, ror lr
     bac:	00848c1c 	addeq	r8, r4, ip, lsl ip
     bb0:	000e2600 	andeq	r2, lr, r0, lsl #12
     bb4:	0008fd00 	andeq	pc, r8, r0, lsl #26
     bb8:	53011d00 	movwpl	r1, #7424	; 0x1d00
     bbc:	1d830802 	stcne	8, cr0, [r3, #8]
     bc0:	03055201 	movweq	r5, #20993	; 0x5201
     bc4:	00009c7c 	andeq	r9, r0, ip, ror ip
     bc8:	0551011d 	ldrbeq	r0, [r1, #-285]	; 0x11d
     bcc:	009d2403 	addseq	r2, sp, r3, lsl #8
     bd0:	50011d00 	andpl	r1, r1, r0, lsl #26
     bd4:	9d4c0305 	stclls	3, cr0, [ip, #-20]	; 0xffffffec
     bd8:	23000000 	movwcs	r0, #0
     bdc:	00008490 	muleq	r0, r0, r4
     be0:	00000e83 	andeq	r0, r0, r3, lsl #29
     be4:	0084981c 	addeq	r9, r4, ip, lsl r8
     be8:	000e2600 	andeq	r2, lr, r0, lsl #12
     bec:	00091d00 	andeq	r1, r9, r0, lsl #26
     bf0:	50011d00 	andpl	r1, r1, r0, lsl #26
     bf4:	9c840305 	stcls	3, cr0, [r4], {5}
     bf8:	1c000000 	stcne	0, cr0, [r0], {-0}
     bfc:	000084a4 	andeq	r8, r0, r4, lsr #9
     c00:	00000e26 	andeq	r0, r0, r6, lsr #28
     c04:	0000093a 	andeq	r0, r0, sl, lsr r9
     c08:	0251011d 	subseq	r0, r1, #1073741831	; 0x40000007
     c0c:	011d0075 	tsteq	sp, r5, ror r0
     c10:	b0030550 	andlt	r0, r3, r0, asr r5
     c14:	0000009d 	muleq	r0, sp, r0
     c18:	0084c01c 	addeq	ip, r4, ip, lsl r0
     c1c:	000e2600 	andeq	r2, lr, r0, lsl #12
     c20:	00095100 	andeq	r5, r9, r0, lsl #2
     c24:	50011d00 	andpl	r1, r1, r0, lsl #26
     c28:	9dc80305 	stclls	3, cr0, [r8, #20]
     c2c:	1c000000 	stcne	0, cr0, [r0], {-0}
     c30:	000084cc 	andeq	r8, r0, ip, asr #9
     c34:	00000e26 	andeq	r0, r0, r6, lsr #28
     c38:	0000096e 	andeq	r0, r0, lr, ror #18
     c3c:	0251011d 	subseq	r0, r1, #1073741831	; 0x40000007
     c40:	011d0075 	tsteq	sp, r5, ror r0
     c44:	d4030550 	strle	r0, [r3], #-1360	; 0x550
     c48:	0000009d 	muleq	r0, sp, r0
     c4c:	0084d023 	addeq	sp, r4, r3, lsr #32
     c50:	000e7c00 	andeq	r7, lr, r0, lsl #24
     c54:	84e81c00 	strbthi	r1, [r8], #3072	; 0xc00
     c58:	0e260000 	cdpeq	0, 2, cr0, cr6, cr0, {0}
     c5c:	09ad0000 	stmibeq	sp!, {}	; <UNPREDICTABLE>
     c60:	011d0000 	tsteq	sp, r0
     c64:	8b080253 	blhi	2015b8 <__bss_end__+0x1f6bc0>
     c68:	0552011d 	ldrbeq	r0, [r2, #-285]	; 0x11d
     c6c:	009c7c03 	addseq	r7, ip, r3, lsl #24
     c70:	51011d00 	tstpl	r1, r0, lsl #26
     c74:	9d240305 	stcls	3, cr0, [r4, #-20]!	; 0xffffffec
     c78:	011d0000 	tsteq	sp, r0
     c7c:	fc030550 	stc2	5, cr0, [r3], {80}	; 0x50
     c80:	1d00009d 	stcne	0, cr0, [r0, #-628]	; 0xfffffd8c
     c84:	02007d02 	andeq	r7, r0, #2, 26	; 0x80
     c88:	23000075 	movwcs	r0, #117	; 0x75
     c8c:	000084ec 	andeq	r8, r0, ip, ror #9
     c90:	00000e83 	andeq	r0, r0, r3, lsl #29
     c94:	00850c1c 	addeq	r0, r5, ip, lsl ip
     c98:	000e2600 	andeq	r2, lr, r0, lsl #12
     c9c:	0009cd00 	andeq	ip, r9, r0, lsl #26
     ca0:	50011d00 	andpl	r1, r1, r0, lsl #26
     ca4:	9dc80305 	stclls	3, cr0, [r8, #20]
     ca8:	1c000000 	stcne	0, cr0, [r0], {-0}
     cac:	00008528 	andeq	r8, r0, r8, lsr #10
     cb0:	00000e26 	andeq	r0, r0, r6, lsr #28
     cb4:	000009ea 	andeq	r0, r0, sl, ror #19
     cb8:	0252011d 	subseq	r0, r2, #1073741831	; 0x40000007
     cbc:	011d0076 	tsteq	sp, r6, ror r0
     cc0:	34030550 	strcc	r0, [r3], #-1360	; 0x550
     cc4:	0000009e 	muleq	r0, lr, r0
     cc8:	00852c23 	addeq	r2, r5, r3, lsr #24
     ccc:	000e7c00 	andeq	r7, lr, r0, lsl #24
     cd0:	85541c00 	ldrbhi	r1, [r4, #-3072]	; 0xc00
     cd4:	0e260000 	cdpeq	0, 2, cr0, cr6, cr0, {0}
     cd8:	0a290000 	beq	a40ce0 <__bss_end__+0xa362e8>
     cdc:	011d0000 	tsteq	sp, r0
     ce0:	8f080253 	svchi	0x00080253
     ce4:	0552011d 	ldrbeq	r0, [r2, #-285]	; 0x11d
     ce8:	009c7c03 	addseq	r7, ip, r3, lsl #24
     cec:	51011d00 	tstpl	r1, r0, lsl #26
     cf0:	9d240305 	stcls	3, cr0, [r4, #-20]!	; 0xffffffec
     cf4:	011d0000 	tsteq	sp, r0
     cf8:	60030550 	andvs	r0, r3, r0, asr r5
     cfc:	1d00009e 	stcne	0, cr0, [r0, #-632]	; 0xfffffd88
     d00:	02047d02 	andeq	r7, r4, #2, 26	; 0x80
     d04:	23000076 	movwcs	r0, #118	; 0x76
     d08:	00008558 	andeq	r8, r0, r8, asr r5
     d0c:	00000e83 	andeq	r0, r0, r3, lsl #29
     d10:	0085981c 	addeq	r9, r5, ip, lsl r8
     d14:	00046600 	andeq	r6, r4, r0, lsl #12
     d18:	000a4600 	andeq	r4, sl, r0, lsl #12
     d1c:	50011d00 	andpl	r1, r1, r0, lsl #26
     d20:	00007402 	andeq	r7, r0, r2, lsl #8
     d24:	0085a81c 	addeq	sl, r5, ip, lsl r8
     d28:	00041600 	andeq	r1, r4, r0, lsl #12
     d2c:	000a6000 	andeq	r6, sl, r0
     d30:	51011d00 	tstpl	r1, r0, lsl #26
     d34:	1d800802 	stcne	8, cr0, [r0, #8]
     d38:	74025001 	strvc	r5, [r2], #-1
     d3c:	c0230038 	eorgt	r0, r3, r8, lsr r0
     d40:	16000085 	strne	r0, [r0], -r5, lsl #1
     d44:	1c000004 	stcne	0, cr0, [r0], {4}
     d48:	000085c8 	andeq	r8, r0, r8, asr #11
     d4c:	000004ea 	andeq	r0, r0, sl, ror #9
     d50:	00000a7d 	andeq	r0, r0, sp, ror sl
     d54:	0250011d 	subseq	r0, r0, #1073741831	; 0x40000007
     d58:	23000074 	movwcs	r0, #116	; 0x74
     d5c:	000085d4 	ldrdeq	r8, [r0], -r4
     d60:	00000e7c 	andeq	r0, r0, ip, ror lr
     d64:	0085e81c 	addeq	lr, r5, ip, lsl r8
     d68:	000e2600 	andeq	r2, lr, r0, lsl #12
     d6c:	000ab500 	andeq	fp, sl, r0, lsl #10
     d70:	53011d00 	movwpl	r1, #7424	; 0x1d00
     d74:	1da50802 	stcne	8, cr0, [r5, #8]!
     d78:	03055201 	movweq	r5, #20993	; 0x5201
     d7c:	00009c7c 	andeq	r9, r0, ip, ror ip
     d80:	0551011d 	ldrbeq	r0, [r1, #-285]	; 0x11d
     d84:	009d2403 	addseq	r2, sp, r3, lsl #8
     d88:	50011d00 	andpl	r1, r1, r0, lsl #26
     d8c:	9e9c0305 	cdpls	3, 9, cr0, cr12, cr5, {0}
     d90:	23000000 	movwcs	r0, #0
     d94:	000085ec 	andeq	r8, r0, ip, ror #11
     d98:	00000e83 	andeq	r0, r0, r3, lsl #29
     d9c:	0085f41c 	addeq	pc, r5, ip, lsl r4	; <UNPREDICTABLE>
     da0:	00052100 	andeq	r2, r5, r0, lsl #2
     da4:	000ad200 	andeq	sp, sl, r0, lsl #4
     da8:	50011d00 	andpl	r1, r1, r0, lsl #26
     dac:	00007402 	andeq	r7, r0, r2, lsl #8
     db0:	00860023 	addeq	r0, r6, r3, lsr #32
     db4:	000e7c00 	andeq	r7, lr, r0, lsl #24
     db8:	86141c00 	ldrhi	r1, [r4], -r0, lsl #24
     dbc:	0e260000 	cdpeq	0, 2, cr0, cr6, cr0, {0}
     dc0:	0b0a0000 	bleq	280dc8 <__bss_end__+0x2763d0>
     dc4:	011d0000 	tsteq	sp, r0
     dc8:	a6080253 			; <UNDEFINED> instruction: 0xa6080253
     dcc:	0552011d 	ldrbeq	r0, [r2, #-285]	; 0x11d
     dd0:	009c7c03 	addseq	r7, ip, r3, lsl #24
     dd4:	51011d00 	tstpl	r1, r0, lsl #26
     dd8:	9d240305 	stcls	3, cr0, [r4, #-20]!	; 0xffffffec
     ddc:	011d0000 	tsteq	sp, r0
     de0:	bc030550 	cfstr32lt	mvfx0, [r3], {80}	; 0x50
     de4:	0000009e 	muleq	r0, lr, r0
     de8:	00861823 	addeq	r1, r6, r3, lsr #16
     dec:	000e8300 	andeq	r8, lr, r0, lsl #6
     df0:	86201c00 	strthi	r1, [r0], -r0, lsl #24
     df4:	0e260000 	cdpeq	0, 2, cr0, cr6, cr0, {0}
     df8:	0b2a0000 	bleq	a80e00 <__bss_end__+0xa76408>
     dfc:	011d0000 	tsteq	sp, r0
     e00:	84030550 	strhi	r0, [r3], #-1360	; 0x550
     e04:	0000009c 	muleq	r0, ip, r0
     e08:	0086341e 	addeq	r3, r6, lr, lsl r4
     e0c:	000e2600 	andeq	r2, lr, r0, lsl #12
     e10:	53011d00 	movwpl	r1, #7424	; 0x1d00
     e14:	1d007702 	stcne	7, cr7, [r0, #-8]
     e18:	76025201 	strvc	r5, [r2], -r1, lsl #4
     e1c:	51011d00 	tstpl	r1, r0, lsl #26
     e20:	1d007502 	cfstr32ne	mvfx7, [r0, #-8]
     e24:	03055001 	movweq	r5, #20481	; 0x5001
     e28:	00009edc 	ldrdeq	r9, [r0], -ip
     e2c:	b8070000 	stmdalt	r7, {}	; <UNPREDICTABLE>
     e30:	24000000 	strcs	r0, [r0], #-0
     e34:	00000263 	andeq	r0, r0, r3, ror #4
     e38:	0025ad01 	eoreq	sl, r5, r1, lsl #26
     e3c:	86780000 	ldrbthi	r0, [r8], -r0
     e40:	00300000 	eorseq	r0, r0, r0
     e44:	9c010000 	stcls	0, cr0, [r1], {-0}
     e48:	00000b9c 	muleq	r0, ip, fp
     e4c:	01006815 	tsteq	r0, r5, lsl r8
     e50:	000227ad 	andeq	r2, r2, sp, lsr #15
     e54:	00059100 	andeq	r9, r5, r0, lsl #2
     e58:	869c1e00 	ldrhi	r1, [ip], r0, lsl #28
     e5c:	02bc0000 	adcseq	r0, ip, #0
     e60:	011d0000 	tsteq	sp, r0
     e64:	01f30353 	mvnseq	r0, r3, asr r3
     e68:	52011d50 	andpl	r1, r1, #80, 26	; 0x1400
     e6c:	011d3001 	tsteq	sp, r1
     e70:	01f30650 	mvnseq	r0, r0, asr r6
     e74:	01b82350 			; <UNDEFINED> instruction: 0x01b82350
     e78:	27240000 	strcs	r0, [r4, -r0]!
     e7c:	01000002 	tsteq	r0, r2
     e80:	000025b7 			; <UNDEFINED> instruction: 0x000025b7
     e84:	0086a800 	addeq	sl, r6, r0, lsl #16
     e88:	00013800 	andeq	r3, r1, r0, lsl #16
     e8c:	3f9c0100 	svccc	0x009c0100
     e90:	2500000d 	strcs	r0, [r0, #-13]
     e94:	0000033e 	andeq	r0, r0, lr, lsr r3
     e98:	0037b801 	eorseq	fp, r7, r1, lsl #16
     e9c:	05d30000 	ldrbeq	r0, [r3]
     ea0:	8e250000 	cdphi	0, 2, cr0, cr5, cr0, {0}
     ea4:	01000003 	tsteq	r0, r3
     ea8:	000037b9 			; <UNDEFINED> instruction: 0x000037b9
     eac:	0005e600 	andeq	lr, r5, r0, lsl #12
     eb0:	02fd2500 	rscseq	r2, sp, #0, 10
     eb4:	bd010000 	stclt	0, cr0, [r1, #-0]
     eb8:	00000037 	andeq	r0, r0, r7, lsr r0
     ebc:	000005f9 	strdeq	r0, [r0], -r9
     ec0:	00030f25 	andeq	r0, r3, r5, lsr #30
     ec4:	37be0100 	ldrcc	r0, [lr, r0, lsl #2]!
     ec8:	18000000 	stmdane	r0, {}	; <UNPREDICTABLE>
     ecc:	20000006 	andcs	r0, r0, r6
     ed0:	000001a7 	andeq	r0, r0, r7, lsr #3
     ed4:	0d3fc101 	ldfeqd	f4, [pc, #-4]!	; ed8 <_start-0x7128>
     ed8:	54010000 	strpl	r0, [r1], #-0
     edc:	00000026 	andeq	r0, r0, r6, lsr #32
     ee0:	000ca000 	andeq	sl, ip, r0
     ee4:	00681700 	rsbeq	r1, r8, r0, lsl #14
     ee8:	0227c301 	eoreq	ip, r7, #67108864	; 0x4000000
     eec:	06370000 	ldrteq	r0, [r7], -r0
     ef0:	081c0000 	ldmdaeq	ip, {}	; <UNPREDICTABLE>
     ef4:	ea000087 	b	1118 <_start-0x6ee8>
     ef8:	28000004 	stmdacs	r0, {r2}
     efc:	1d00000c 	stcne	0, cr0, [r0, #-48]	; 0xffffffd0
     f00:	74025001 	strvc	r5, [r2], #-1
     f04:	181c0000 	ldmdane	ip, {}	; <UNPREDICTABLE>
     f08:	26000087 	strcs	r0, [r0], -r7, lsl #1
     f0c:	3f00000e 	svccc	0x0000000e
     f10:	1d00000c 	stcne	0, cr0, [r0, #-48]	; 0xffffffd0
     f14:	03055001 	movweq	r5, #20481	; 0x5001
     f18:	00009f44 	andeq	r9, r0, r4, asr #30
     f1c:	87281c00 	strhi	r1, [r8, -r0, lsl #24]!
     f20:	05210000 	streq	r0, [r1, #-0]!
     f24:	0c530000 	mraeq	r0, r3, acc0
     f28:	011d0000 	tsteq	sp, r0
     f2c:	00740250 	rsbseq	r0, r4, r0, asr r2
     f30:	87381c00 	ldrhi	r1, [r8, -r0, lsl #24]!
     f34:	0e260000 	cdpeq	0, 2, cr0, cr6, cr0, {0}
     f38:	0c670000 	stcleq	0, cr0, [r7], #-0
     f3c:	011d0000 	tsteq	sp, r0
     f40:	007a0250 	rsbseq	r0, sl, r0, asr r2
     f44:	87441c00 	strbhi	r1, [r4, -r0, lsl #24]
     f48:	0b550000 	bleq	1540f50 <__bss_end__+0x1536558>
     f4c:	0c7b0000 	ldcleq	0, cr0, [fp], #-0
     f50:	011d0000 	tsteq	sp, r0
     f54:	00740250 	rsbseq	r0, r4, r0, asr r2
     f58:	87541c00 	ldrbhi	r1, [r4, -r0, lsl #24]
     f5c:	0e260000 	cdpeq	0, 2, cr0, cr6, cr0, {0}
     f60:	0c8f0000 	stceq	0, cr0, [pc], {0}
     f64:	011d0000 	tsteq	sp, r0
     f68:	00790250 	rsbseq	r0, r9, r0, asr r2
     f6c:	875c1e00 	ldrbhi	r1, [ip, -r0, lsl #28]
     f70:	0e260000 	cdpeq	0, 2, cr0, cr6, cr0, {0}
     f74:	011d0000 	tsteq	sp, r0
     f78:	00780250 	rsbseq	r0, r8, r0, asr r2
     f7c:	cc1c0000 	ldcgt	0, cr0, [ip], {-0}
     f80:	26000086 	strcs	r0, [r0], -r6, lsl #1
     f84:	b700000e 	strlt	r0, [r0, -lr]
     f88:	1d00000c 	stcne	0, cr0, [r0, #-48]	; 0xffffffd0
     f8c:	03055001 	movweq	r5, #20481	; 0x5001
     f90:	00009c84 	andeq	r9, r0, r4, lsl #25
     f94:	86dc1c00 	ldrbhi	r1, [ip], r0, lsl #24
     f98:	0e260000 	cdpeq	0, 2, cr0, cr6, cr0, {0}
     f9c:	0cda0000 	ldcleq	0, cr0, [sl], {0}
     fa0:	011d0000 	tsteq	sp, r0
     fa4:	00750252 	rsbseq	r0, r5, r2, asr r2
     fa8:	0251011d 	subseq	r0, r1, #1073741831	; 0x40000007
     fac:	011d0076 	tsteq	sp, r6, ror r0
     fb0:	0c030550 	cfstr32eq	mvfx0, [r3], {80}	; 0x50
     fb4:	0000009f 	muleq	r0, pc, r0	; <UNPREDICTABLE>
     fb8:	0087901c 	addeq	r9, r7, ip, lsl r0
     fbc:	000e2600 	andeq	r2, lr, r0, lsl #12
     fc0:	000cee00 	andeq	lr, ip, r0, lsl #28
     fc4:	50011d00 	andpl	r1, r1, r0, lsl #26
     fc8:	00007902 	andeq	r7, r0, r2, lsl #18
     fcc:	0087a01c 	addeq	sl, r7, ip, lsl r0
     fd0:	000e2600 	andeq	r2, lr, r0, lsl #12
     fd4:	000d1100 	andeq	r1, sp, r0, lsl #2
     fd8:	52011d00 	andpl	r1, r1, #0, 26
     fdc:	1d007602 	stcne	6, cr7, [r0, #-8]
     fe0:	75025101 	strvc	r5, [r2, #-257]	; 0x101
     fe4:	50011d00 	andpl	r1, r1, r0, lsl #26
     fe8:	9f880305 	svcls	0x00880305
     fec:	1c000000 	stcne	0, cr0, [r0], {-0}
     ff0:	000087ac 	andeq	r8, r0, ip, lsr #15
     ff4:	00000e26 	andeq	r0, r0, r6, lsr #28
     ff8:	00000d25 	andeq	r0, r0, r5, lsr #26
     ffc:	0250011d 	subseq	r0, r0, #1073741831	; 0x40000007
    1000:	1e000079 	mcrne	0, 0, r0, cr0, cr9, {3}
    1004:	000087b8 			; <UNDEFINED> instruction: 0x000087b8
    1008:	00000e26 	andeq	r0, r0, r6, lsr #28
    100c:	0251011d 	subseq	r0, r1, #1073741831	; 0x40000007
    1010:	011d0075 	tsteq	sp, r5, ror r0
    1014:	b0030550 	andlt	r0, r3, r0, asr r5
    1018:	0000009f 	muleq	r0, pc, r0	; <UNPREDICTABLE>
    101c:	5a040600 	bpl	102824 <__bss_end__+0xf7e2c>
    1020:	24000000 	strcs	r0, [r0], #-0
    1024:	000001bb 			; <UNDEFINED> instruction: 0x000001bb
    1028:	0227e101 	eoreq	lr, r7, #1073741824	; 0x40000000
    102c:	87e00000 	strbhi	r0, [r0, r0]!
    1030:	00200000 	eoreq	r0, r0, r0
    1034:	9c010000 	stcls	0, cr0, [r1], {-0}
    1038:	00000d7c 	andeq	r0, r0, ip, ror sp
    103c:	0002e320 	andeq	lr, r2, r0, lsr #6
    1040:	27e20100 	strbcs	r0, [r2, r0, lsl #2]!
    1044:	01000002 	tsteq	r0, r2
    1048:	87f41e54 	ubfxhi	r1, r4, #28, #21
    104c:	04ea0000 	strbteq	r0, [sl], #0
    1050:	011d0000 	tsteq	sp, r0
    1054:	00740250 	rsbseq	r0, r4, r0, asr r2
    1058:	6e240000 	cdpvs	0, 2, cr0, cr4, cr0, {0}
    105c:	01000002 	tsteq	r0, r2
    1060:	000227e8 	andeq	r2, r2, r8, ror #15
    1064:	00880000 	addeq	r0, r8, r0
    1068:	00004400 	andeq	r4, r0, r0, lsl #8
    106c:	cd9c0100 	ldfgts	f0, [ip]
    1070:	1500000d 	strne	r0, [r0, #-13]
    1074:	e8010070 	stmda	r1, {r4, r5, r6}
    1078:	00000227 	andeq	r0, r0, r7, lsr #4
    107c:	0000064a 	andeq	r0, r0, sl, asr #12
    1080:	01006e17 	tsteq	r0, r7, lsl lr
    1084:	000037e9 	andeq	r3, r0, r9, ror #15
    1088:	00068400 	andeq	r8, r6, r0, lsl #8
    108c:	0a0c2000 	beq	309094 <__bss_end__+0x2fe69c>
    1090:	ec010000 	stc	0, cr0, [r1], {-0}
    1094:	00000227 	andeq	r0, r0, r7, lsr #4
    1098:	301e5401 	andscc	r5, lr, r1, lsl #8
    109c:	ea000088 	b	12c4 <_start-0x6d3c>
    10a0:	1d000004 	stcne	0, cr0, [r0, #-16]
    10a4:	74025001 	strvc	r5, [r2], #-1
    10a8:	27000000 	strcs	r0, [r0, -r0]
    10ac:	000002cf 	andeq	r0, r0, pc, asr #5
    10b0:	01d0f601 	bicseq	pc, r0, r1, lsl #12
    10b4:	88440000 	stmdahi	r4, {}^	; <UNPREDICTABLE>
    10b8:	001c0000 	andseq	r0, ip, r0
    10bc:	9c010000 	stcls	0, cr0, [r1], {-0}
    10c0:	00043520 	andeq	r3, r4, r0, lsr #10
    10c4:	3f080100 	svccc	0x00080100
    10c8:	0500000d 	streq	r0, [r0, #-13]
    10cc:	00a5c803 	adceq	ip, r5, r3, lsl #16
    10d0:	0d672000 	stcleq	0, cr2, [r7, #-0]
    10d4:	08010000 	stmdaeq	r1, {}	; <UNPREDICTABLE>
    10d8:	00000d3f 	andeq	r0, r0, pc, lsr sp
    10dc:	a5cc0305 	strbge	r0, [ip, #773]	; 0x305
    10e0:	4e200000 	cdpmi	0, 2, cr0, cr0, cr0, {0}
    10e4:	0100000d 	tsteq	r0, sp
    10e8:	000d3f08 	andeq	r3, sp, r8, lsl #30
    10ec:	c4030500 	strgt	r0, [r3], #-1280	; 0x500
    10f0:	200000a5 	andcs	r0, r0, r5, lsr #1
    10f4:	00000206 	andeq	r0, r0, r6, lsl #4
    10f8:	01d00a01 	bicseq	r0, r0, r1, lsl #20
    10fc:	03050000 	movweq	r0, #20480	; 0x5000
    1100:	0000a5d0 	ldrdeq	sl, [r0], -r0
    1104:	00050228 	andeq	r0, r5, r8, lsr #4
    1108:	25290500 	strcs	r0, [r9, #-1280]!	; 0x500
    110c:	3c000000 	stccc	0, cr0, [r0], {-0}
    1110:	2900000e 	stmdbcs	r0, {r1, r2, r3}
    1114:	000000ad 	andeq	r0, r0, sp, lsr #1
    1118:	0c28002a 	stceq	0, cr0, [r8], #-168	; 0xffffff58
    111c:	06000001 	streq	r0, [r0], -r1
    1120:	00009e1b 	andeq	r9, r0, fp, lsl lr
    1124:	000e5b00 	andeq	r5, lr, r0, lsl #22
    1128:	009e2900 	addseq	r2, lr, r0, lsl #18
    112c:	25290000 	strcs	r0, [r9, #-0]!
    1130:	29000000 	stmdbcs	r0, {}	; <UNPREDICTABLE>
    1134:	0000002c 	andeq	r0, r0, ip, lsr #32
    1138:	01d62800 	bicseq	r2, r6, r0, lsl #16
    113c:	05070000 	streq	r0, [r7, #-0]
    1140:	0000007e 	andeq	r0, r0, lr, ror r0
    1144:	00000e75 	andeq	r0, r0, r5, ror lr
    1148:	000e7529 	andeq	r7, lr, r9, lsr #10
    114c:	00252900 	eoreq	r2, r5, r0, lsl #18
    1150:	06000000 	streq	r0, [r0], -r0
    1154:	000e7b04 	andeq	r7, lr, r4, lsl #22
    1158:	432c2b00 	teqmi	ip, #0, 22
    115c:	05000002 	streq	r0, [r0, #-2]
    1160:	027a2c1e 	rsbseq	r2, sl, #7680	; 0x1e00
    1164:	65050000 	strvs	r0, [r5, #-0]
    1168:	000d6d00 	andeq	r6, sp, r0, lsl #26
    116c:	c9000400 	stmdbgt	r0, {sl}
    1170:	04000003 	streq	r0, [r0], #-3
    1174:	00007601 	andeq	r7, r0, r1, lsl #12
    1178:	04620100 	strbteq	r0, [r2], #-256	; 0x100
    117c:	00260000 	eoreq	r0, r6, r0
    1180:	88600000 	stmdahi	r0!, {}^	; <UNPREDICTABLE>
    1184:	068c0000 	streq	r0, [ip], r0
    1188:	04250000 	strteq	r0, [r5], #-0
    118c:	04020000 	streq	r0, [r2], #-0
    1190:	746e6905 	strbtvc	r6, [lr], #-2309	; 0x905
    1194:	07040300 	streq	r0, [r4, -r0, lsl #6]
    1198:	00000137 	andeq	r0, r0, r7, lsr r1
    119c:	e5060103 	str	r0, [r6, #-259]	; 0x103
    11a0:	03000000 	movweq	r0, #0
    11a4:	01640502 	cmneq	r4, r2, lsl #10
    11a8:	04030000 	streq	r0, [r3], #-0
    11ac:	00015b05 	andeq	r5, r1, r5, lsl #22
    11b0:	05080300 	streq	r0, [r8, #-768]	; 0x300
    11b4:	00000156 	andeq	r0, r0, r6, asr r1
    11b8:	e3080103 	movw	r0, #33027	; 0x8103
    11bc:	04000000 	streq	r0, [r0], #-0
    11c0:	0000020e 	andeq	r0, r0, lr, lsl #4
    11c4:	00613102 	rsbeq	r3, r1, r2, lsl #2
    11c8:	02030000 	andeq	r0, r3, #0
    11cc:	0000f107 	andeq	pc, r0, r7, lsl #2
    11d0:	016e0400 	cmneq	lr, r0, lsl #8
    11d4:	34020000 	strcc	r0, [r2], #-0
    11d8:	00000073 	andeq	r0, r0, r3, ror r0
    11dc:	32070403 	andcc	r0, r7, #50331648	; 0x3000000
    11e0:	03000001 	movweq	r0, #1
    11e4:	012d0708 	teqeq	sp, r8, lsl #14
    11e8:	04030000 	streq	r0, [r3], #-0
    11ec:	00014d07 	andeq	r4, r1, r7, lsl #26
    11f0:	03040500 	movweq	r0, #17664	; 0x4500
    11f4:	00ec0801 	rsceq	r0, ip, r1, lsl #16
    11f8:	04060000 	streq	r0, [r6], #-0
    11fc:	00000097 	muleq	r0, r7, r0
    1200:	00008a07 	andeq	r8, r0, r7, lsl #20
    1204:	03010800 	movweq	r0, #6144	; 0x1800
    1208:	0000b127 	andeq	fp, r0, r7, lsr #2
    120c:	01f00900 	mvnseq	r0, r0, lsl #18
    1210:	090b0000 	stmdbeq	fp, {}	; <UNPREDICTABLE>
    1214:	000001ea 	andeq	r0, r0, sl, ror #3
    1218:	0c0a000c 	stceq	0, cr0, [sl], {12}
    121c:	00de2903 	sbcseq	r2, lr, r3, lsl #18
    1220:	e30b0000 	movw	r0, #45056	; 0xb000
    1224:	03000008 	movweq	r0, #8
    1228:	0000912a 	andeq	r9, r0, sl, lsr #2
    122c:	ad0b0000 	stcge	0, cr0, [fp, #-0]
    1230:	0300000b 	movweq	r0, #11
    1234:	0000912b 	andeq	r9, r0, fp, lsr #2
    1238:	520b0400 	andpl	r0, fp, #0, 8
    123c:	03000003 	movweq	r0, #3
    1240:	00002c2c 	andeq	r2, r0, ip, lsr #24
    1244:	04000800 	streq	r0, [r0], #-2048	; 0x800
    1248:	000002d9 	ldrdeq	r0, [r0], -r9
    124c:	00b12d03 	adcseq	r2, r1, r3, lsl #26
    1250:	9d0c0000 	stcls	0, cr0, [ip, #-0]
    1254:	38000003 	stmdacc	r0, {r0, r1}
    1258:	016e3003 	cmneq	lr, r3
    125c:	ad0b0000 	stcge	0, cr0, [fp, #-0]
    1260:	03000002 	movweq	r0, #2
    1264:	00006831 	andeq	r6, r0, r1, lsr r8
    1268:	830b0000 	movwhi	r0, #45056	; 0xb000
    126c:	03000003 	movweq	r0, #3
    1270:	00006832 	andeq	r6, r0, r2, lsr r8
    1274:	6e0b0400 	cfcpysvs	mvf0, mvf11
    1278:	03000007 	movweq	r0, #7
    127c:	00006833 	andeq	r6, r0, r3, lsr r8
    1280:	a70b0800 	strge	r0, [fp, -r0, lsl #16]
    1284:	03000002 	movweq	r0, #2
    1288:	00006837 	andeq	r6, r0, r7, lsr r8
    128c:	870b0c00 	strhi	r0, [fp, -r0, lsl #24]
    1290:	03000002 	movweq	r0, #2
    1294:	0000de39 	andeq	sp, r0, r9, lsr lr
    1298:	ba0b1000 	blt	2c52a0 <__bss_end__+0x2ba8a8>
    129c:	03000002 	movweq	r0, #2
    12a0:	0000de3a 	andeq	sp, r0, sl, lsr lr
    12a4:	780b1c00 	stmdavc	fp, {sl, fp, ip}
    12a8:	03000003 	movweq	r0, #3
    12ac:	0000683e 	andeq	r6, r0, lr, lsr r8
    12b0:	2b0b2800 	blcs	2cb2b8 <__bss_end__+0x2c08c0>
    12b4:	03000003 	movweq	r0, #3
    12b8:	0000683f 	andeq	r6, r0, pc, lsr r8
    12bc:	c80b2c00 	stmdagt	fp, {sl, fp, sp}
    12c0:	03000001 	movweq	r0, #1
    12c4:	00016e42 	andeq	r6, r1, r2, asr #28
    12c8:	d10b3000 	mrsle	r3, (UNDEF: 11)
    12cc:	03000001 	movweq	r0, #1
    12d0:	00005645 	andeq	r5, r0, r5, asr #12
    12d4:	06003400 	streq	r3, [r0], -r0, lsl #8
    12d8:	0000e904 	andeq	lr, r0, r4, lsl #18
    12dc:	036e0400 	cmneq	lr, #0, 8
    12e0:	46030000 	strmi	r0, [r3], -r0
    12e4:	000000e9 	andeq	r0, r0, r9, ror #1
    12e8:	49030208 	stmdbmi	r3, {r3, r9}
    12ec:	000001a4 	andeq	r0, r0, r4, lsr #3
    12f0:	00031509 	andeq	r1, r3, r9, lsl #10
    12f4:	0901fe00 	stmdbeq	r1, {r9, sl, fp, ip, sp, lr, pc}
    12f8:	0000029b 	muleq	r0, fp, r2
    12fc:	36090180 	strcc	r0, [r9], -r0, lsl #3
    1300:	b8000002 	stmdalt	r0, {r1}
    1304:	02170901 	andseq	r0, r7, #16384	; 0x4000
    1308:	02b80000 	adcseq	r0, r8, #0
    130c:	02cf0c00 	sbceq	r0, pc, #0, 24
    1310:	03100000 	tsteq	r0, #0
    1314:	0001e19b 	muleq	r1, fp, r1
    1318:	0d4e0b00 	vstreq	d16, [lr, #-0]
    131c:	9d030000 	stcls	0, cr0, [r3, #-0]
    1320:	00000088 	andeq	r0, r0, r8, lsl #1
    1324:	0d670b00 	vstmdbeq	r7!, {d16-d15}
    1328:	9f030000 	svcls	0x00030000
    132c:	00000088 	andeq	r0, r0, r8, lsl #1
    1330:	01ae0b04 			; <UNDEFINED> instruction: 0x01ae0b04
    1334:	a2030000 	andge	r0, r3, #0
    1338:	0000002c 	andeq	r0, r0, ip, lsr #32
    133c:	03370b08 	teqeq	r7, #8, 22	; 0x2000
    1340:	a4030000 	strge	r0, [r3], #-0
    1344:	0000002c 	andeq	r0, r0, ip, lsr #32
    1348:	e00d000c 	and	r0, sp, ip
    134c:	03000001 	movweq	r0, #1
    1350:	00008857 	andeq	r8, r0, r7, asr r8
    1354:	01fb0300 	mvnseq	r0, r0, lsl #6
    1358:	680e0000 	stmdavs	lr, {}	; <UNPREDICTABLE>
    135c:	fb570300 	blx	15c1f66 <__bss_end__+0x15b756e>
    1360:	00000001 	andeq	r0, r0, r1
    1364:	01740406 	cmneq	r4, r6, lsl #8
    1368:	c30d0000 	movwgt	r0, #53248	; 0xd000
    136c:	03000002 	movweq	r0, #2
    1370:	00008859 	andeq	r8, r0, r9, asr r8
    1374:	021b0300 	andseq	r0, fp, #0, 6
    1378:	680e0000 	stmdavs	lr, {}	; <UNPREDICTABLE>
    137c:	fb590300 	blx	1641f86 <__bss_end__+0x163758e>
    1380:	00000001 	andeq	r0, r0, r1
    1384:	0004320f 	andeq	r3, r4, pc, lsl #4
    1388:	251c0100 	ldrcs	r0, [ip, #-256]	; 0x100
    138c:	60000000 	andvs	r0, r0, r0
    1390:	3c000088 	stccc	0, cr0, [r0], {136}	; 0x88
    1394:	01000000 	mrseq	r0, (UNDEF: 0)
    1398:	0002429c 	muleq	r2, ip, r2
    139c:	00701000 	rsbseq	r1, r0, r0
    13a0:	00881c01 	addeq	r1, r8, r1, lsl #24
    13a4:	06fd0000 	ldrbteq	r0, [sp], r0
    13a8:	0f000000 	svceq	0x00000000
    13ac:	00000473 	andeq	r0, r0, r3, ror r4
    13b0:	01fb3301 	mvnseq	r3, r1, lsl #6
    13b4:	889c0000 	ldmhi	ip, {}	; <UNPREDICTABLE>
    13b8:	00780000 	rsbseq	r0, r8, r0
    13bc:	9c010000 	stcls	0, cr0, [r1], {-0}
    13c0:	000002ad 	andeq	r0, r0, sp, lsr #5
    13c4:	000d5a11 	andeq	r5, sp, r1, lsl sl
    13c8:	68330100 	ldmdavs	r3!, {r8}
    13cc:	50000000 	andpl	r0, r0, r0
    13d0:	12000007 	andne	r0, r0, #7
    13d4:	34010070 	strcc	r0, [r1], #-112	; 0x70
    13d8:	00000088 	andeq	r0, r0, r8, lsl #1
    13dc:	0000076e 	andeq	r0, r0, lr, ror #14
    13e0:	0003d113 	andeq	sp, r3, r3, lsl r1
    13e4:	fb390100 	blx	e417ee <__bss_end__+0xe36df6>
    13e8:	8c000001 	stchi	0, cr0, [r0], {1}
    13ec:	14000007 	strne	r0, [r0], #-7
    13f0:	000088a8 	andeq	r8, r0, r8, lsr #17
    13f4:	0000021b 	andeq	r0, r0, fp, lsl r2
    13f8:	0000029a 	muleq	r0, sl, r2
    13fc:	02500115 	subseq	r0, r0, #1073741829	; 0x40000005
    1400:	16000074 			; <UNDEFINED> instruction: 0x16000074
    1404:	000088b4 			; <UNDEFINED> instruction: 0x000088b4
    1408:	00000ce4 	andeq	r0, r0, r4, ror #25
    140c:	00890016 	addeq	r0, r9, r6, lsl r0
    1410:	000cef00 	andeq	lr, ip, r0, lsl #30
    1414:	270f0000 	strcs	r0, [pc, -r0]
    1418:	01000004 	tsteq	r0, r4
    141c:	00002c7e 	andeq	r2, r0, lr, ror ip
    1420:	00891400 	addeq	r1, r9, r0, lsl #8
    1424:	00013400 	andeq	r3, r1, r0, lsl #8
    1428:	649c0100 	ldrvs	r0, [ip], #256	; 0x100
    142c:	11000004 	tstne	r0, r4
    1430:	000003ae 	andeq	r0, r0, lr, lsr #7
    1434:	00257e01 	eoreq	r7, r5, r1, lsl #28
    1438:	07aa0000 	streq	r0, [sl, r0]!
    143c:	7a130000 	bvc	4c1444 <__bss_end__+0x4b6a4c>
    1440:	01000004 	tsteq	r0, r4
    1444:	00002c7f 	andeq	r2, r0, pc, ror ip
    1448:	0007c800 	andeq	ip, r7, r0, lsl #16
    144c:	03f21300 	mvnseq	r1, #0, 6
    1450:	7f010000 	svcvc	0x00010000
    1454:	0000002c 	andeq	r0, r0, ip, lsr #32
    1458:	000007e7 	andeq	r0, r0, r7, ror #15
    145c:	0003ec13 	andeq	lr, r3, r3, lsl ip
    1460:	2c7f0100 	ldfcse	f0, [pc], #-0	; 1468 <_start-0x6b98>
    1464:	06000000 	streq	r0, [r0], -r0
    1468:	13000008 	movwne	r0, #8
    146c:	000003d1 	ldrdeq	r0, [r0], -r1
    1470:	01fb8301 	mvnseq	r8, r1, lsl #6
    1474:	08250000 	stmdaeq	r5!, {}	; <UNPREDICTABLE>
    1478:	24140000 	ldrcs	r0, [r4], #-0
    147c:	04000089 	streq	r0, [r0], #-137	; 0x89
    1480:	2800000d 	stmdacs	r0, {r0, r2, r3}
    1484:	15000003 	strne	r0, [r0, #-3]
    1488:	03055001 	movweq	r5, #20481	; 0x5001
    148c:	0000a034 	andeq	sl, r0, r4, lsr r0
    1490:	892c1400 	stmdbhi	ip!, {sl, ip}
    1494:	0d040000 	stceq	0, cr0, [r4, #-0]
    1498:	033f0000 	teqeq	pc, #0
    149c:	01150000 	tsteq	r5, r0
    14a0:	70030550 	andvc	r0, r3, r0, asr r5
    14a4:	000000a0 	andeq	r0, r0, r0, lsr #1
    14a8:	00893016 	addeq	r3, r9, r6, lsl r0
    14ac:	000ce400 	andeq	lr, ip, r0, lsl #8
    14b0:	89701400 	ldmdbhi	r0!, {sl, ip}^
    14b4:	0d040000 	stceq	0, cr0, [r4, #-0]
    14b8:	035c0000 	cmpeq	ip, #0
    14bc:	01150000 	tsteq	r5, r0
    14c0:	007a0250 	rsbseq	r0, sl, r0, asr r2
    14c4:	897c1400 	ldmdbhi	ip!, {sl, ip}^
    14c8:	0d040000 	stceq	0, cr0, [r4, #-0]
    14cc:	03770000 	cmneq	r7, #0
    14d0:	01150000 	tsteq	r5, r0
    14d4:	b8740351 	ldmdalt	r4!, {r0, r4, r6, r8, r9}^
    14d8:	50011501 	andpl	r1, r1, r1, lsl #10
    14dc:	00007b02 	andeq	r7, r0, r2, lsl #22
    14e0:	0089a414 	addeq	sl, r9, r4, lsl r4
    14e4:	000d0400 	andeq	r0, sp, r0, lsl #8
    14e8:	00038b00 	andeq	r8, r3, r0, lsl #22
    14ec:	50011500 	andpl	r1, r1, r0, lsl #10
    14f0:	00007a02 	andeq	r7, r0, r2, lsl #20
    14f4:	0089b014 	addeq	fp, r9, r4, lsl r0
    14f8:	000d0400 	andeq	r0, sp, r0, lsl #8
    14fc:	0003a900 	andeq	sl, r3, r0, lsl #18
    1500:	51011500 	tstpl	r1, r0, lsl #10
    1504:	01b87403 			; <UNDEFINED> instruction: 0x01b87403
    1508:	05500115 	ldrbeq	r0, [r0, #-277]	; 0x115
    150c:	00a0a803 	adceq	sl, r0, r3, lsl #16
    1510:	c0140000 	andsgt	r0, r4, r0
    1514:	ef000089 	svc	0x00000089
    1518:	bd00000c 	stclt	0, cr0, [r0, #-48]	; 0xffffffd0
    151c:	15000003 	strne	r0, [r0, #-3]
    1520:	74025001 	strvc	r5, [r2], #-1
    1524:	d4140000 	ldrle	r0, [r4], #-0
    1528:	04000089 	streq	r0, [r0], #-137	; 0x89
    152c:	d100000d 	tstle	r0, sp
    1530:	15000003 	strne	r0, [r0, #-3]
    1534:	7a025001 	bvc	95540 <__bss_end__+0x8ab48>
    1538:	e0140000 	ands	r0, r4, r0
    153c:	04000089 	streq	r0, [r0], #-137	; 0x89
    1540:	ee00000d 	cdp	0, 0, cr0, cr0, cr13, {0}
    1544:	15000003 	strne	r0, [r0, #-3]
    1548:	75025101 	strvc	r5, [r2, #-257]	; 0x101
    154c:	50011500 	andpl	r1, r1, r0, lsl #10
    1550:	a0e00305 	rscge	r0, r0, r5, lsl #6
    1554:	14000000 	strne	r0, [r0], #-0
    1558:	000089f0 	strdeq	r8, [r0], -r0
    155c:	00000d04 	andeq	r0, r0, r4, lsl #26
    1560:	00000402 	andeq	r0, r0, r2, lsl #8
    1564:	02500115 	subseq	r0, r0, #1073741829	; 0x40000005
    1568:	1400007a 	strne	r0, [r0], #-122	; 0x7a
    156c:	000089f8 	strdeq	r8, [r0], -r8	; <UNPREDICTABLE>
    1570:	00000d04 	andeq	r0, r0, r4, lsl #26
    1574:	00000419 	andeq	r0, r0, r9, lsl r4
    1578:	05500115 	ldrbeq	r0, [r0, #-277]	; 0x115
    157c:	00a0f803 	adceq	pc, r0, r3, lsl #16
    1580:	04140000 	ldreq	r0, [r4], #-0
    1584:	0400008a 	streq	r0, [r0], #-138	; 0x8a
    1588:	2d00000d 	stccs	0, cr0, [r0, #-52]	; 0xffffffcc
    158c:	15000004 	strne	r0, [r0, #-4]
    1590:	7a025001 	bvc	9559c <__bss_end__+0x8aba4>
    1594:	14140000 	ldrne	r0, [r4], #-0
    1598:	0400008a 	streq	r0, [r0], #-138	; 0x8a
    159c:	5000000d 	andpl	r0, r0, sp
    15a0:	15000004 	strne	r0, [r0, #-4]
    15a4:	76025201 	strvc	r5, [r2], -r1, lsl #4
    15a8:	51011500 	tstpl	r1, r0, lsl #10
    15ac:	15007702 	strne	r7, [r0, #-1794]	; 0x702
    15b0:	03055001 	movweq	r5, #20481	; 0x5001
    15b4:	0000a118 	andeq	sl, r0, r8, lsl r1
    15b8:	8a1c1700 	bhi	7071c0 <__bss_end__+0x6fc7c8>
    15bc:	0d040000 	stceq	0, cr0, [r4, #-0]
    15c0:	01150000 	tsteq	r5, r0
    15c4:	44030550 	strmi	r0, [r3], #-1360	; 0x550
    15c8:	000000a1 	andeq	r0, r0, r1, lsr #1
    15cc:	01d11800 	bicseq	r1, r1, r0, lsl #16
    15d0:	5a010000 	bpl	415d8 <__bss_end__+0x36be0>
    15d4:	00008a48 	andeq	r8, r0, r8, asr #20
    15d8:	000000f8 	strdeq	r0, [r0], -r8
    15dc:	05a19c01 	streq	r9, [r1, #3073]!	; 0xc01
    15e0:	70100000 	andsvc	r0, r0, r0
    15e4:	a15a0100 	cmpge	sl, r0, lsl #2
    15e8:	6f000005 	svcvs	0x00000005
    15ec:	10000008 	andne	r0, r0, r8
    15f0:	5a010065 	bpl	4178c <__bss_end__+0x36d94>
    15f4:	000005a1 	andeq	r0, r0, r1, lsr #11
    15f8:	000008e0 	andeq	r0, r0, r0, ror #17
    15fc:	00011319 	andeq	r1, r1, r9, lsl r3
    1600:	0005b700 	andeq	fp, r5, r0, lsl #14
    1604:	e0030500 	and	r0, r3, r0, lsl #10
    1608:	1a00009f 	bne	188c <_start-0x6774>
    160c:	00646e65 	rsbeq	r6, r4, r5, ror #28
    1610:	00686001 	rsbeq	r6, r8, r1
    1614:	3a130000 	bcc	4c161c <__bss_end__+0x4b6c24>
    1618:	01000004 	tsteq	r0, r4
    161c:	0005a161 	andeq	sl, r5, r1, ror #2
    1620:	00094000 	andeq	r4, r9, r0
    1624:	03d11300 	bicseq	r1, r1, #0, 6
    1628:	62010000 	andvs	r0, r1, #0
    162c:	000001fb 	strdeq	r0, [r0], -fp
    1630:	0000095e 	andeq	r0, r0, lr, asr r9
    1634:	008a6016 	addeq	r6, sl, r6, lsl r0
    1638:	000d1a00 	andeq	r1, sp, r0, lsl #20
    163c:	8a741400 	bhi	1d06644 <__bss_end__+0x1cfbc4c>
    1640:	0d040000 	stceq	0, cr0, [r4, #-0]
    1644:	05030000 	streq	r0, [r3, #-0]
    1648:	01150000 	tsteq	r5, r0
    164c:	5b080253 	blpl	201fa0 <__bss_end__+0x1f75a8>
    1650:	05520115 	ldrbeq	r0, [r2, #-277]	; 0x115
    1654:	009fe003 	addseq	lr, pc, r3
    1658:	51011500 	tstpl	r1, r0, lsl #10
    165c:	a1940305 	orrsge	r0, r4, r5, lsl #6
    1660:	01150000 	tsteq	r5, r0
    1664:	80030550 	andhi	r0, r3, r0, asr r5
    1668:	000000a1 	andeq	r0, r0, r1, lsr #1
    166c:	008a7816 	addeq	r7, sl, r6, lsl r8
    1670:	000d2100 	andeq	r2, sp, r0, lsl #2
    1674:	8a841600 	bhi	fe106e7c <__bss_end__+0xfe0fc484>
    1678:	0d1a0000 	ldceq	0, cr0, [sl, #-0]
    167c:	98140000 	ldmdals	r4, {}	; <UNPREDICTABLE>
    1680:	0400008a 	streq	r0, [r0], #-138	; 0x8a
    1684:	4400000d 	strmi	r0, [r0], #-13
    1688:	15000005 	strne	r0, [r0, #-5]
    168c:	08025301 	stmdaeq	r2, {r0, r8, r9, ip, lr}
    1690:	5201155d 	andpl	r1, r1, #390070272	; 0x17400000
    1694:	9fe00305 	svcls	0x00e00305
    1698:	01150000 	tsteq	r5, r0
    169c:	94030551 	strls	r0, [r3], #-1361	; 0x551
    16a0:	150000a1 	strne	r0, [r0, #-161]	; 0xa1
    16a4:	03055001 	movweq	r5, #20481	; 0x5001
    16a8:	0000a19c 	muleq	r0, ip, r1
    16ac:	8a9c1600 	bhi	fe706eb4 <__bss_end__+0xfe6fc4bc>
    16b0:	0d210000 	stceq	0, cr0, [r1, #-0]
    16b4:	a8160000 	ldmdage	r6, {}	; <UNPREDICTABLE>
    16b8:	1a00008a 	bne	18e8 <_start-0x6718>
    16bc:	1400000d 	strne	r0, [r0], #-13
    16c0:	00008abc 			; <UNDEFINED> instruction: 0x00008abc
    16c4:	00000d04 	andeq	r0, r0, r4, lsl #26
    16c8:	00000585 	andeq	r0, r0, r5, lsl #11
    16cc:	02530115 	subseq	r0, r3, #1073741829	; 0x40000005
    16d0:	01155e08 	tsteq	r5, r8, lsl #28
    16d4:	e0030552 	and	r0, r3, r2, asr r5
    16d8:	1500009f 	strne	r0, [r0, #-159]	; 0x9f
    16dc:	03055101 	movweq	r5, #20737	; 0x5101
    16e0:	0000a194 	muleq	r0, r4, r1
    16e4:	05500115 	ldrbeq	r0, [r0, #-277]	; 0x115
    16e8:	00a1bc03 	adceq	fp, r1, r3, lsl #24
    16ec:	c0160000 	andsgt	r0, r6, r0
    16f0:	2100008a 	smlabbcs	r0, sl, r0, r0
    16f4:	1600000d 	strne	r0, [r0], -sp
    16f8:	00008ac8 	andeq	r8, r0, r8, asr #21
    16fc:	00000242 	andeq	r0, r0, r2, asr #4
    1700:	008b1416 	addeq	r1, fp, r6, lsl r4
    1704:	00046400 	andeq	r6, r4, r0, lsl #8
    1708:	04060000 	streq	r0, [r6], #-0
    170c:	00000068 	andeq	r0, r0, r8, rrx
    1710:	00008a1b 	andeq	r8, r0, fp, lsl sl
    1714:	0005b700 	andeq	fp, r5, r0, lsl #14
    1718:	00811c00 	addeq	r1, r1, r0, lsl #24
    171c:	00040000 	andeq	r0, r4, r0
    1720:	0005a707 	andeq	sl, r5, r7, lsl #14
    1724:	046a1800 	strbteq	r1, [sl], #-2048	; 0x800
    1728:	ca010000 	bgt	41730 <__bss_end__+0x36d38>
    172c:	00008b40 	andeq	r8, r0, r0, asr #22
    1730:	000000f4 	strdeq	r0, [r0], -r4
    1734:	07269c01 	streq	r9, [r6, -r1, lsl #24]!
    1738:	691d0000 	ldmdbvs	sp, {}	; <UNPREDICTABLE>
    173c:	a4d30100 	ldrbge	r0, [r3], #256	; 0x100
    1740:	02000001 	andeq	r0, r0, #1
    1744:	561e6891 			; <UNDEFINED> instruction: 0x561e6891
    1748:	01000004 	tsteq	r0, r4
    174c:	000726dc 	ldrdeq	r2, [r7], -ip
    1750:	a8910300 	ldmge	r1, {r8, r9}
    1754:	0113197f 	tsteq	r3, pc, ror r9
    1758:	07460000 	strbeq	r0, [r6, -r0]
    175c:	03050000 	movweq	r0, #20480	; 0x5000
    1760:	00009fe8 	andeq	r9, r0, r8, ror #31
    1764:	0003a41f 	andeq	sl, r3, pc, lsl r4
    1768:	a1ec0100 	mvnge	r0, r0, lsl #2
    176c:	00000005 	andeq	r0, r0, r5
    1770:	20080000 	andcs	r0, r8, r0
    1774:	0000040d 	andeq	r0, r0, sp, lsl #8
    1778:	0068f001 	rsbeq	pc, r8, r1
    177c:	1b200000 	blne	801784 <__bss_end__+0x7f6d8c>
    1780:	01000004 	tsteq	r0, r4
    1784:	000068f0 	strdeq	r6, [r0], -r0
    1788:	018b2000 	orreq	r2, fp, r0
    178c:	f3010000 	vhadd.u8	d0, d1, d0
    1790:	00000068 	andeq	r0, r0, r8, rrx
    1794:	00019a20 	andeq	r9, r1, r0, lsr #20
    1798:	68f30100 	ldmvs	r3!, {r8}^
    179c:	21000000 	mrscs	r0, (UNDEF: 0)
    17a0:	00008b48 	andeq	r8, r0, r8, asr #22
    17a4:	00000024 	andeq	r0, r0, r4, lsr #32
    17a8:	00000663 	andeq	r0, r0, r3, ror #12
    17ac:	01006812 	tsteq	r0, r2, lsl r8
    17b0:	0001fbcd 	andeq	pc, r1, sp, asr #23
    17b4:	00097c00 	andeq	r7, r9, r0, lsl #24
    17b8:	8b4c1600 	blhi	1306fc0 <__bss_end__+0x12fc5c8>
    17bc:	0ce40000 	stcleq	0, cr0, [r4]
    17c0:	64160000 	ldrvs	r0, [r6], #-0
    17c4:	ef00008b 	svc	0x0000008b
    17c8:	0000000c 	andeq	r0, r0, ip
    17cc:	00001822 	andeq	r1, r0, r2, lsr #16
    17d0:	00067a00 	andeq	r7, r6, r0, lsl #20
    17d4:	00691200 	rsbeq	r1, r9, r0, lsl #4
    17d8:	0025e101 	eoreq	lr, r5, r1, lsl #2
    17dc:	099a0000 	ldmibeq	sl, {}	; <UNPREDICTABLE>
    17e0:	14000000 	strne	r0, [r0], #-0
    17e4:	00008b78 	andeq	r8, r0, r8, ror fp
    17e8:	00000d28 	andeq	r0, r0, r8, lsr #26
    17ec:	0000068e 	andeq	r0, r0, lr, lsl #13
    17f0:	02500115 	subseq	r0, r0, #1073741829	; 0x40000005
    17f4:	14000074 	strne	r0, [r0], #-116	; 0x74
    17f8:	00008b90 	muleq	r0, r0, fp
    17fc:	00000d33 	andeq	r0, r0, r3, lsr sp
    1800:	000006a2 	andeq	r0, r0, r2, lsr #13
    1804:	02500115 	subseq	r0, r0, #1073741829	; 0x40000005
    1808:	16000074 			; <UNDEFINED> instruction: 0x16000074
    180c:	00008ba0 	andeq	r8, r0, r0, lsr #23
    1810:	00000d1a 	andeq	r0, r0, sl, lsl sp
    1814:	008bb414 	addeq	fp, fp, r4, lsl r4
    1818:	000d0400 	andeq	r0, sp, r0, lsl #8
    181c:	0006da00 	andeq	sp, r6, r0, lsl #20
    1820:	53011500 	movwpl	r1, #5376	; 0x1500
    1824:	15df0802 	ldrbne	r0, [pc, #2050]	; 202e <_start-0x5fd2>
    1828:	03055201 	movweq	r5, #20993	; 0x5201
    182c:	00009fe8 	andeq	r9, r0, r8, ror #31
    1830:	05510115 	ldrbeq	r0, [r1, #-277]	; 0x115
    1834:	00a19403 	adceq	r9, r1, r3, lsl #8
    1838:	50011500 	andpl	r1, r1, r0, lsl #10
    183c:	a1dc0305 	bicsge	r0, ip, r5, lsl #6
    1840:	16000000 	strne	r0, [r0], -r0
    1844:	00008bb8 			; <UNDEFINED> instruction: 0x00008bb8
    1848:	00000d21 	andeq	r0, r0, r1, lsr #26
    184c:	008be814 	addeq	lr, fp, r4, lsl r8
    1850:	00046400 	andeq	r6, r4, r0, lsl #8
    1854:	0006fe00 	andeq	pc, r6, r0, lsl #28
    1858:	51011500 	tstpl	r1, r0, lsl #10
    185c:	15589102 	ldrbne	r9, [r8, #-258]	; 0x102
    1860:	91035001 	tstls	r3, r1
    1864:	14007fb0 	strne	r7, [r0], #-4016	; 0xfb0
    1868:	00008bf4 	strdeq	r8, [r0], -r4
    186c:	00000464 	andeq	r0, r0, r4, ror #8
    1870:	00000713 	andeq	r0, r0, r3, lsl r7
    1874:	03510115 	cmpeq	r1, #1073741829	; 0x40000005
    1878:	00244740 	eoreq	r4, r4, r0, asr #14
    187c:	008c0016 	addeq	r0, ip, r6, lsl r0
    1880:	00046400 	andeq	r6, r4, r0, lsl #8
    1884:	8c0c1600 	stchi	6, cr1, [ip], {-0}
    1888:	04640000 	strbteq	r0, [r4], #-0
    188c:	1b000000 	blne	1894 <_start-0x676c>
    1890:	00000068 	andeq	r0, r0, r8, rrx
    1894:	00000736 	andeq	r0, r0, r6, lsr r7
    1898:	0000811c 	andeq	r8, r0, ip, lsl r1
    189c:	1b000f00 	blne	54a4 <_start-0x2b5c>
    18a0:	0000008a 	andeq	r0, r0, sl, lsl #1
    18a4:	00000746 	andeq	r0, r0, r6, asr #14
    18a8:	0000811c 	andeq	r8, r0, ip, lsl r1
    18ac:	07000800 	streq	r0, [r0, -r0, lsl #16]
    18b0:	00000736 	andeq	r0, r0, r6, lsr r7
    18b4:	0003e123 	andeq	lr, r3, r3, lsr #2
    18b8:	012d0100 	teqeq	sp, r0, lsl #2
    18bc:	0000002c 	andeq	r0, r0, ip, lsr #32
    18c0:	00008c34 	andeq	r8, r0, r4, lsr ip
    18c4:	00000120 	andeq	r0, r0, r0, lsr #2
    18c8:	09189c01 	ldmdbeq	r8, {r0, sl, fp, ip, pc}
    18cc:	7a240000 	bvc	9018d4 <__bss_end__+0x8f6edc>
    18d0:	01000004 	tsteq	r0, r4
    18d4:	002c012e 	eoreq	r0, ip, lr, lsr #2
    18d8:	09b80000 	ldmibeq	r8!, {}	; <UNPREDICTABLE>
    18dc:	5b240000 	blpl	9018e4 <__bss_end__+0x8f6eec>
    18e0:	01000004 	tsteq	r0, r4
    18e4:	002c012e 	eoreq	r0, ip, lr, lsr #2
    18e8:	09d70000 	ldmibeq	r7, {}^	; <UNPREDICTABLE>
    18ec:	ae240000 	cdpge	0, 2, cr0, cr4, cr0, {0}
    18f0:	01000001 	tsteq	r0, r1
    18f4:	002c012e 	eoreq	r0, ip, lr, lsr #2
    18f8:	09f60000 	ldmibeq	r6!, {}^	; <UNPREDICTABLE>
    18fc:	d1240000 	teqle	r4, r0
    1900:	01000003 	tsteq	r0, r3
    1904:	01fb0132 	mvnseq	r0, r2, lsr r1
    1908:	0a200000 	beq	801910 <__bss_end__+0x7f6f18>
    190c:	13190000 	tstne	r9, #0
    1910:	28000001 	stmdacs	r0, {r0}
    1914:	05000009 	streq	r0, [r0, #-9]
    1918:	009ff403 	addseq	pc, pc, r3, lsl #8
    191c:	02d42500 	sbcseq	r2, r4, #0, 10
    1920:	48010000 	stmdami	r1, {}	; <UNPREDICTABLE>
    1924:	0001a401 	andeq	sl, r1, r1, lsl #8
    1928:	48910200 	ldmmi	r1, {r9}
    192c:	00003022 	andeq	r3, r0, r2, lsr #32
    1930:	00082f00 	andeq	r2, r8, r0, lsl #30
    1934:	74702600 	ldrbtvc	r2, [r0], #-1536	; 0x600
    1938:	38010072 	stmdacc	r1, {r1, r4, r5, r6}
    193c:	00008801 	andeq	r8, r0, r1, lsl #16
    1940:	14570100 	ldrbne	r0, [r7], #-256	; 0x100
    1944:	00008ca0 	andeq	r8, r0, r0, lsr #25
    1948:	00000d04 	andeq	r0, r0, r4, lsl #26
    194c:	000007ee 	andeq	r0, r0, lr, ror #15
    1950:	02500115 	subseq	r0, r0, #1073741829	; 0x40000005
    1954:	1400007b 	strne	r0, [r0], #-123	; 0x7b
    1958:	00008cac 	andeq	r8, r0, ip, lsr #25
    195c:	00000d04 	andeq	r0, r0, r4, lsl #26
    1960:	00000808 	andeq	r0, r0, r8, lsl #16
    1964:	02510115 	subseq	r0, r1, #1073741829	; 0x40000005
    1968:	01150077 	tsteq	r5, r7, ror r0
    196c:	007a0250 	rsbseq	r0, sl, r0, asr r2
    1970:	8cc01700 	stclhi	7, cr1, [r0], {0}
    1974:	0d450000 	stcleq	0, cr0, [r5, #-0]
    1978:	01150000 	tsteq	r5, r0
    197c:	3a0a0353 	bcc	2826d0 <__bss_end__+0x277cd8>
    1980:	52011501 	andpl	r1, r1, #4194304	; 0x400000
    1984:	9ff40305 	svcls	0x00f40305
    1988:	01150000 	tsteq	r5, r0
    198c:	00790251 	rsbseq	r0, r9, r1, asr r2
    1990:	02500115 	subseq	r0, r0, #1073741829	; 0x40000005
    1994:	00000077 	andeq	r0, r0, r7, ror r0
    1998:	008c4414 	addeq	r4, ip, r4, lsl r4
    199c:	000d0400 	andeq	r0, sp, r0, lsl #8
    19a0:	00084600 	andeq	r4, r8, r0, lsl #12
    19a4:	50011500 	andpl	r1, r1, r0, lsl #10
    19a8:	a0340305 	eorsge	r0, r4, r5, lsl #6
    19ac:	14000000 	strne	r0, [r0], #-0
    19b0:	00008c4c 	andeq	r8, r0, ip, asr #24
    19b4:	00000d04 	andeq	r0, r0, r4, lsl #26
    19b8:	0000085d 	andeq	r0, r0, sp, asr r8
    19bc:	05500115 	ldrbeq	r0, [r0, #-277]	; 0x115
    19c0:	00a20c03 	adceq	r0, r2, r3, lsl #24
    19c4:	50160000 	andspl	r0, r6, r0
    19c8:	e400008c 	str	r0, [r0], #-140	; 0x8c
    19cc:	1400000c 	strne	r0, [r0], #-12
    19d0:	00008ccc 	andeq	r8, r0, ip, asr #25
    19d4:	00000cef 	andeq	r0, r0, pc, ror #25
    19d8:	0000087a 	andeq	r0, r0, sl, ror r8
    19dc:	02500115 	subseq	r0, r0, #1073741829	; 0x40000005
    19e0:	14000074 	strne	r0, [r0], #-116	; 0x74
    19e4:	00008ce4 	andeq	r8, r0, r4, ror #25
    19e8:	00000d04 	andeq	r0, r0, r4, lsl #26
    19ec:	0000088e 	andeq	r0, r0, lr, lsl #17
    19f0:	02500115 	subseq	r0, r0, #1073741829	; 0x40000005
    19f4:	14000074 	strne	r0, [r0], #-116	; 0x74
    19f8:	00008cf8 	strdeq	r8, [r0], -r8	; <UNPREDICTABLE>
    19fc:	00000d04 	andeq	r0, r0, r4, lsl #26
    1a00:	000008b7 			; <UNDEFINED> instruction: 0x000008b7
    1a04:	02530115 	subseq	r0, r3, #1073741829	; 0x40000005
    1a08:	01150076 	tsteq	r5, r6, ror r0
    1a0c:	00780252 	rsbseq	r0, r8, r2, asr r2
    1a10:	02510115 	subseq	r0, r1, #1073741829	; 0x40000005
    1a14:	01150075 	tsteq	r5, r5, ror r0
    1a18:	30030550 	andcc	r0, r3, r0, asr r5
    1a1c:	000000a2 	andeq	r0, r0, r2, lsr #1
    1a20:	008d0014 	addeq	r0, sp, r4, lsl r0
    1a24:	000d2800 	andeq	r2, sp, r0, lsl #16
    1a28:	0008cb00 	andeq	ip, r8, r0, lsl #22
    1a2c:	50011500 	andpl	r1, r1, r0, lsl #10
    1a30:	00007d02 	andeq	r7, r0, r2, lsl #26
    1a34:	008d0814 	addeq	r0, sp, r4, lsl r8
    1a38:	000d0400 	andeq	r0, sp, r0, lsl #8
    1a3c:	0008df00 	andeq	sp, r8, r0, lsl #30
    1a40:	50011500 	andpl	r1, r1, r0, lsl #10
    1a44:	00007402 	andeq	r7, r0, r2, lsl #8
    1a48:	008d1814 	addeq	r1, sp, r4, lsl r8
    1a4c:	000d0400 	andeq	r0, sp, r0, lsl #8
    1a50:	00090400 	andeq	r0, r9, r0, lsl #8
    1a54:	52011500 	andpl	r1, r1, #0, 10
    1a58:	06489103 	strbeq	r9, [r8], -r3, lsl #2
    1a5c:	03510115 	cmpeq	r1, #1073741829	; 0x40000005
    1a60:	15064c91 	strne	r4, [r6, #-3217]	; 0xc91
    1a64:	03055001 	movweq	r5, #20481	; 0x5001
    1a68:	0000a25c 	andeq	sl, r0, ip, asr r2
    1a6c:	8d201700 	stchi	7, cr1, [r0, #-0]
    1a70:	0d040000 	stceq	0, cr0, [r4, #-0]
    1a74:	01150000 	tsteq	r5, r0
    1a78:	44030550 	strmi	r0, [r3], #-1360	; 0x550
    1a7c:	000000a1 	andeq	r0, r0, r1, lsr #1
    1a80:	008a1b00 	addeq	r1, sl, r0, lsl #22
    1a84:	09280000 	stmdbeq	r8!, {}	; <UNPREDICTABLE>
    1a88:	811c0000 	tsthi	ip, r0
    1a8c:	0a000000 	beq	1a94 <_start-0x656c>
    1a90:	09180700 	ldmdbeq	r8, {r8, r9, sl}
    1a94:	ff270000 			; <UNDEFINED> instruction: 0xff270000
    1a98:	01000003 	tsteq	r0, r3
    1a9c:	00002cfd 	strdeq	r2, [r0], -sp
    1aa0:	008d5400 	addeq	r5, sp, r0, lsl #8
    1aa4:	00001800 	andeq	r1, r0, r0, lsl #16
    1aa8:	6f9c0100 	svcvs	0x009c0100
    1aac:	11000009 	tstne	r0, r9
    1ab0:	000003ae 	andeq	r0, r0, lr, lsr #7
    1ab4:	0025fd01 	eoreq	pc, r5, r1, lsl #26
    1ab8:	0a490000 	beq	1241ac0 <__bss_end__+0x12370c8>
    1abc:	60160000 	andsvs	r0, r6, r0
    1ac0:	bc00008d 	stclt	0, cr0, [r0], {141}	; 0x8d
    1ac4:	17000005 	strne	r0, [r0, -r5]
    1ac8:	00008d68 	andeq	r8, r0, r8, ror #26
    1acc:	000002ad 	andeq	r0, r0, sp, lsr #5
    1ad0:	02500115 	subseq	r0, r0, #1073741829	; 0x40000005
    1ad4:	00000074 	andeq	r0, r0, r4, ror r0
    1ad8:	0000d528 	andeq	sp, r0, r8, lsr #10
    1adc:	01030100 	mrseq	r0, (UNDEF: 19)
    1ae0:	00008d6c 	andeq	r8, r0, ip, ror #26
    1ae4:	000000a0 	andeq	r0, r0, r0, lsr #1
    1ae8:	0a8d9c01 	beq	fe368af4 <__bss_end__+0xfe35e0fc>
    1aec:	13190000 	tstne	r9, #0
    1af0:	9d000001 	stcls	0, cr0, [r0, #-4]
    1af4:	0500000a 	streq	r0, [r0, #-10]
    1af8:	00a00003 	adceq	r0, r0, r3
    1afc:	8d741600 	ldclhi	6, cr1, [r4, #-0]
    1b00:	0d650000 	stcleq	0, cr0, [r5, #-0]
    1b04:	80160000 	andshi	r0, r6, r0
    1b08:	1a00008d 	bne	1d44 <_start-0x62bc>
    1b0c:	1400000d 	strne	r0, [r0], #-13
    1b10:	00008d94 	muleq	r0, r4, sp
    1b14:	00000d04 	andeq	r0, r0, r4, lsl #26
    1b18:	000009d6 	ldrdeq	r0, [r0], -r6
    1b1c:	03530115 	cmpeq	r3, #1073741829	; 0x40000005
    1b20:	1501090a 	strne	r0, [r1, #-2314]	; 0x90a
    1b24:	03055201 	movweq	r5, #20993	; 0x5201
    1b28:	0000a000 	andeq	sl, r0, r0
    1b2c:	05510115 	ldrbeq	r0, [r1, #-277]	; 0x115
    1b30:	00a19403 	adceq	r9, r1, r3, lsl #8
    1b34:	50011500 	andpl	r1, r1, r0, lsl #10
    1b38:	a2900305 	addsge	r0, r0, #335544320	; 0x14000000
    1b3c:	16000000 	strne	r0, [r0], -r0
    1b40:	00008d98 	muleq	r0, r8, sp
    1b44:	00000d21 	andeq	r0, r0, r1, lsr #26
    1b48:	008da014 	addeq	sl, sp, r4, lsl r0
    1b4c:	000d0400 	andeq	r0, sp, r0, lsl #8
    1b50:	0009f600 	andeq	pc, r9, r0, lsl #12
    1b54:	50011500 	andpl	r1, r1, r0, lsl #10
    1b58:	9c840305 	stcls	3, cr0, [r4], {5}
    1b5c:	14000000 	strne	r0, [r0], #-0
    1b60:	00008da8 	andeq	r8, r0, r8, lsr #27
    1b64:	00000d04 	andeq	r0, r0, r4, lsl #26
    1b68:	00000a0d 	andeq	r0, r0, sp, lsl #20
    1b6c:	05500115 	ldrbeq	r0, [r0, #-277]	; 0x115
    1b70:	00a2b803 	adceq	fp, r2, r3, lsl #16
    1b74:	b0140000 	andslt	r0, r4, r0
    1b78:	2d00008d 	stccs	0, cr0, [r0, #-564]	; 0xfffffdcc
    1b7c:	20000009 	andcs	r0, r0, r9
    1b80:	1500000a 	strne	r0, [r0, #-10]
    1b84:	31015001 	tstcc	r1, r1
    1b88:	8dbc1600 	ldchi	6, cr1, [ip]
    1b8c:	0d1a0000 	ldceq	0, cr0, [sl, #-0]
    1b90:	d0140000 	andsle	r0, r4, r0
    1b94:	0400008d 	streq	r0, [r0], #-141	; 0x8d
    1b98:	5900000d 	stmdbpl	r0, {r0, r2, r3}
    1b9c:	1500000a 	strne	r0, [r0, #-10]
    1ba0:	0a035301 	beq	d67ac <__bss_end__+0xcbdb4>
    1ba4:	0115010d 	tsteq	r5, sp, lsl #2
    1ba8:	00030552 	andeq	r0, r3, r2, asr r5
    1bac:	150000a0 	strne	r0, [r0, #-160]	; 0xa0
    1bb0:	03055101 	movweq	r5, #20737	; 0x5101
    1bb4:	0000a194 	muleq	r0, r4, r1
    1bb8:	05500115 	ldrbeq	r0, [r0, #-277]	; 0x115
    1bbc:	00a2d803 	adceq	sp, r2, r3, lsl #16
    1bc0:	d4160000 	ldrle	r0, [r6], #-0
    1bc4:	2100008d 	smlabbcs	r0, sp, r0, r0
    1bc8:	1400000d 	strne	r0, [r0], #-13
    1bcc:	00008ddc 	ldrdeq	r8, [r0], -ip
    1bd0:	00000d04 	andeq	r0, r0, r4, lsl #26
    1bd4:	00000a79 	andeq	r0, r0, r9, ror sl
    1bd8:	05500115 	ldrbeq	r0, [r0, #-277]	; 0x115
    1bdc:	009c8403 	addseq	r8, ip, r3, lsl #8
    1be0:	e4170000 	ldr	r0, [r7], #-0
    1be4:	0400008d 	streq	r0, [r0], #-141	; 0x8d
    1be8:	1500000d 	strne	r0, [r0, #-13]
    1bec:	03055001 	movweq	r5, #20481	; 0x5001
    1bf0:	0000a304 	andeq	sl, r0, r4, lsl #6
    1bf4:	8a1b0000 	bhi	6c1bfc <__bss_end__+0x6b7204>
    1bf8:	9d000000 	stcls	0, cr0, [r0, #-0]
    1bfc:	1c00000a 	stcne	0, cr0, [r0], {10}
    1c00:	00000081 	andeq	r0, r0, r1, lsl #1
    1c04:	8d07000d 	stchi	0, cr0, [r7, #-52]	; 0xffffffcc
    1c08:	2900000a 	stmdbcs	r0, {r1, r3}
    1c0c:	0000043f 	andeq	r0, r0, pc, lsr r4
    1c10:	2c011401 	cfstrscs	mvf1, [r1], {1}
    1c14:	0c000000 	stceq	0, cr0, [r0], {-0}
    1c18:	a400008e 	strge	r0, [r0], #-142	; 0x8e
    1c1c:	01000000 	mrseq	r0, (UNDEF: 0)
    1c20:	000bda9c 	muleq	fp, ip, sl
    1c24:	01131900 	tsteq	r3, r0, lsl #18
    1c28:	0bea0000 	bleq	ffa81c30 <__bss_end__+0xffa77238>
    1c2c:	03050000 	movweq	r0, #20480	; 0x5000
    1c30:	0000a010 	andeq	sl, r0, r0, lsl r0
    1c34:	0003da24 	andeq	sp, r3, r4, lsr #20
    1c38:	011e0100 	tsteq	lr, r0, lsl #2
    1c3c:	0000002c 	andeq	r0, r0, ip, lsr #32
    1c40:	00000a67 	andeq	r0, r0, r7, ror #20
    1c44:	008e1416 	addeq	r1, lr, r6, lsl r4
    1c48:	000d6500 	andeq	r6, sp, r0, lsl #10
    1c4c:	8e201600 	cfmadda32hi	mvax0, mvax1, mvfx0, mvfx0
    1c50:	0d1a0000 	ldceq	0, cr0, [sl, #-0]
    1c54:	34140000 	ldrcc	r0, [r4], #-0
    1c58:	0400008e 	streq	r0, [r0], #-142	; 0x8e
    1c5c:	1d00000d 	stcne	0, cr0, [r0, #-52]	; 0xffffffcc
    1c60:	1500000b 	strne	r0, [r0, #-11]
    1c64:	0a035301 	beq	d6870 <__bss_end__+0xcbe78>
    1c68:	0115011a 	tsteq	r5, sl, lsl r1
    1c6c:	10030552 	andne	r0, r3, r2, asr r5
    1c70:	150000a0 	strne	r0, [r0, #-160]	; 0xa0
    1c74:	03055101 	movweq	r5, #20737	; 0x5101
    1c78:	0000a194 	muleq	r0, r4, r1
    1c7c:	05500115 	ldrbeq	r0, [r0, #-277]	; 0x115
    1c80:	00a29003 	adceq	r9, r2, r3
    1c84:	38160000 	ldmdacc	r6, {}	; <UNPREDICTABLE>
    1c88:	2100008e 	smlabbcs	r0, lr, r0, r0
    1c8c:	1400000d 	strne	r0, [r0], #-13
    1c90:	00008e40 	andeq	r8, r0, r0, asr #28
    1c94:	00000d04 	andeq	r0, r0, r4, lsl #26
    1c98:	00000b3d 	andeq	r0, r0, sp, lsr fp
    1c9c:	05500115 	ldrbeq	r0, [r0, #-277]	; 0x115
    1ca0:	009c8403 	addseq	r8, ip, r3, lsl #8
    1ca4:	48140000 	ldmdami	r4, {}	; <UNPREDICTABLE>
    1ca8:	0400008e 	streq	r0, [r0], #-142	; 0x8e
    1cac:	5400000d 	strpl	r0, [r0], #-13
    1cb0:	1500000b 	strne	r0, [r0, #-11]
    1cb4:	03055001 	movweq	r5, #20481	; 0x5001
    1cb8:	0000a2b8 			; <UNDEFINED> instruction: 0x0000a2b8
    1cbc:	8e501400 	cdphi	4, 5, cr1, cr0, cr0, {0}
    1cc0:	092d0000 	pusheq	{}	; <UNPREDICTABLE>
    1cc4:	0b670000 	bleq	19c1ccc <__bss_end__+0x19b72d4>
    1cc8:	01150000 	tsteq	r5, r0
    1ccc:	00310150 	eorseq	r0, r1, r0, asr r1
    1cd0:	008e5c16 	addeq	r5, lr, r6, lsl ip
    1cd4:	000d1a00 	andeq	r1, sp, r0, lsl #20
    1cd8:	8e701400 	cdphi	4, 7, cr1, cr0, cr0, {0}
    1cdc:	0d040000 	stceq	0, cr0, [r4, #-0]
    1ce0:	0ba00000 	bleq	fe801ce8 <__bss_end__+0xfe7f72f0>
    1ce4:	01150000 	tsteq	r5, r0
    1ce8:	200a0353 	andcs	r0, sl, r3, asr r3
    1cec:	52011501 	andpl	r1, r1, #4194304	; 0x400000
    1cf0:	a0100305 	andsge	r0, r0, r5, lsl #6
    1cf4:	01150000 	tsteq	r5, r0
    1cf8:	94030551 	strls	r0, [r3], #-1361	; 0x551
    1cfc:	150000a1 	strne	r0, [r0, #-161]	; 0xa1
    1d00:	03055001 	movweq	r5, #20481	; 0x5001
    1d04:	0000a31c 	andeq	sl, r0, ip, lsl r3
    1d08:	8e741600 	cdphi	6, 7, cr1, cr4, cr0, {0}
    1d0c:	0d210000 	stceq	0, cr0, [r1, #-0]
    1d10:	7c140000 	ldcvc	0, cr0, [r4], {-0}
    1d14:	0400008e 	streq	r0, [r0], #-142	; 0x8e
    1d18:	c000000d 	andgt	r0, r0, sp
    1d1c:	1500000b 	strne	r0, [r0, #-11]
    1d20:	03055001 	movweq	r5, #20481	; 0x5001
    1d24:	00009c84 	andeq	r9, r0, r4, lsl #25
    1d28:	8e881700 	cdphi	7, 8, cr1, cr8, cr0, {0}
    1d2c:	0d040000 	stceq	0, cr0, [r4, #-0]
    1d30:	01150000 	tsteq	r5, r0
    1d34:	00740251 	rsbseq	r0, r4, r1, asr r2
    1d38:	05500115 	ldrbeq	r0, [r0, #-277]	; 0x115
    1d3c:	00a34403 	adceq	r4, r3, r3, lsl #8
    1d40:	1b000000 	blne	1d48 <_start-0x62b8>
    1d44:	0000008a 	andeq	r0, r0, sl, lsl #1
    1d48:	00000bea 	andeq	r0, r0, sl, ror #23
    1d4c:	0000811c 	andeq	r8, r0, ip, lsl r1
    1d50:	07001100 	streq	r1, [r0, -r0, lsl #2]
    1d54:	00000bda 	ldrdeq	r0, [r0], -sl
    1d58:	0003c228 	andeq	ip, r3, r8, lsr #4
    1d5c:	01270100 	teqeq	r7, r0, lsl #2
    1d60:	00008eb0 			; <UNDEFINED> instruction: 0x00008eb0
    1d64:	0000002c 	andeq	r0, r0, ip, lsr #32
    1d68:	0c579c01 	mrrceq	12, 0, r9, r7, cr1
    1d6c:	13190000 	tstne	r9, #0
    1d70:	67000001 	strvs	r0, [r0, -r1]
    1d74:	0500000c 	streq	r0, [r0, #-12]
    1d78:	00a02403 	adceq	r2, r0, r3, lsl #8
    1d7c:	8eb81600 	cdphi	6, 11, cr1, cr8, cr0, {0}
    1d80:	0d1a0000 	ldceq	0, cr0, [sl, #-0]
    1d84:	cc140000 	ldcgt	0, cr0, [r4], {-0}
    1d88:	0400008e 	streq	r0, [r0], #-142	; 0x8e
    1d8c:	4d00000d 	stcmi	0, cr0, [r0, #-52]	; 0xffffffcc
    1d90:	1500000c 	strne	r0, [r0, #-12]
    1d94:	0a035301 	beq	d69a0 <__bss_end__+0xcbfa8>
    1d98:	01150128 	tsteq	r5, r8, lsr #2
    1d9c:	24030552 	strcs	r0, [r3], #-1362	; 0x552
    1da0:	150000a0 	strne	r0, [r0, #-160]	; 0xa0
    1da4:	03055101 	movweq	r5, #20737	; 0x5101
    1da8:	0000a194 	muleq	r0, r4, r1
    1dac:	05500115 	ldrbeq	r0, [r0, #-277]	; 0x115
    1db0:	00a36403 	adceq	r6, r3, r3, lsl #8
    1db4:	d0160000 	andsle	r0, r6, r0
    1db8:	2100008e 	smlabbcs	r0, lr, r0, r0
    1dbc:	0000000d 	andeq	r0, r0, sp
    1dc0:	00008a1b 	andeq	r8, r0, fp, lsl sl
    1dc4:	000c6700 	andeq	r6, ip, r0, lsl #14
    1dc8:	00811c00 	addeq	r1, r1, r0, lsl #24
    1dcc:	000e0000 	andeq	r0, lr, r0
    1dd0:	000c5707 	andeq	r5, ip, r7, lsl #14
    1dd4:	03f92900 	mvnseq	r2, #0, 18
    1dd8:	4f010000 	svcmi	0x00010000
    1ddc:	00002c01 	andeq	r2, r0, r1, lsl #24
    1de0:	008edc00 	addeq	sp, lr, r0, lsl #24
    1de4:	00001000 	andeq	r1, r0, r0
    1de8:	a79c0100 	ldrge	r0, [ip, r0, lsl #2]
    1dec:	2500000c 	strcs	r0, [r0, #-12]
    1df0:	0000035f 	andeq	r0, r0, pc, asr r3
    1df4:	2c015101 	stfcss	f5, [r1], {1}
    1df8:	01000000 	mrseq	r0, (UNDEF: 0)
    1dfc:	8ee41650 	mcrhi	6, 7, r1, cr4, cr0, {2}
    1e00:	05bc0000 	ldreq	r0, [ip, #0]!
    1e04:	e8160000 	ldmda	r6, {}	; <UNPREDICTABLE>
    1e08:	4b00008e 	blmi	2048 <_start-0x5fb8>
    1e0c:	00000007 	andeq	r0, r0, r7
    1e10:	0002d41e 	andeq	sp, r2, lr, lsl r4
    1e14:	a4140100 	ldrge	r0, [r4], #-256	; 0x100
    1e18:	05000001 	streq	r0, [r0, #-1]
    1e1c:	00a5e003 	adceq	lr, r5, r3
    1e20:	040d2000 	streq	r2, [sp], #-0
    1e24:	f0010000 			; <UNDEFINED> instruction: 0xf0010000
    1e28:	00000068 	andeq	r0, r0, r8, rrx
    1e2c:	00041b20 	andeq	r1, r4, r0, lsr #22
    1e30:	68f00100 	ldmvs	r0!, {r8}^
    1e34:	20000000 	andcs	r0, r0, r0
    1e38:	0000018b 	andeq	r0, r0, fp, lsl #3
    1e3c:	0068f301 	rsbeq	pc, r8, r1, lsl #6
    1e40:	9a200000 	bls	801e48 <__bss_end__+0x7f7450>
    1e44:	01000001 	tsteq	r0, r1
    1e48:	000068f3 	strdeq	r6, [r0], -r3
    1e4c:	01bb2a00 			; <UNDEFINED> instruction: 0x01bb2a00
    1e50:	94030000 	strls	r0, [r3], #-0
    1e54:	000001fb 	strdeq	r0, [r0], -fp
    1e58:	00026e2b 	andeq	r6, r2, fp, lsr #28
    1e5c:	fb960300 	blx	fe582a66 <__bss_end__+0xfe57806e>
    1e60:	04000001 	streq	r0, [r0], #-1
    1e64:	2c00000d 	stccs	0, cr0, [r0], {13}
    1e68:	000001fb 	strdeq	r0, [r0], -fp
    1e6c:	05022b00 	streq	r2, [r2, #-2816]	; 0xb00
    1e70:	29040000 	stmdbcs	r4, {}	; <UNPREDICTABLE>
    1e74:	00000025 	andeq	r0, r0, r5, lsr #32
    1e78:	00000d1a 	andeq	r0, r0, sl, lsl sp
    1e7c:	0000912c 	andeq	r9, r0, ip, lsr #2
    1e80:	2e002d00 	cdpcs	13, 0, cr2, cr0, cr0, {0}
    1e84:	00000243 	andeq	r0, r0, r3, asr #4
    1e88:	7a2e1e04 	bvc	b896a0 <__bss_end__+0xb7eca8>
    1e8c:	04000002 	streq	r0, [r0], #-2
    1e90:	02cf2a65 	sbceq	r2, pc, #413696	; 0x65000
    1e94:	a7030000 	strge	r0, [r3, -r0]
    1e98:	000001a4 	andeq	r0, r0, r4, lsr #3
    1e9c:	0004512f 	andeq	r5, r4, pc, lsr #2
    1ea0:	45c70100 	strbmi	r0, [r7, #256]	; 0x100
    1ea4:	2c00000d 	stccs	0, cr0, [r0], {13}
    1ea8:	000005a1 	andeq	r0, r0, r1, lsr #11
    1eac:	5c2f002d 	stcpl	0, cr0, [pc], #-180	; 1e00 <_start-0x6200>
    1eb0:	05000002 	streq	r0, [r0, #-2]
    1eb4:	000d6512 	andeq	r6, sp, r2, lsl r5
    1eb8:	00882c00 	addeq	r2, r8, r0, lsl #24
    1ebc:	912c0000 	teqls	ip, r0
    1ec0:	2c000000 	stccs	0, cr0, [r0], {-0}
    1ec4:	00000091 	muleq	r0, r1, r0
    1ec8:	00002c2c 	andeq	r2, r0, ip, lsr #24
    1ecc:	272a0000 	strcs	r0, [sl, -r0]!
    1ed0:	05000002 	streq	r0, [r0, #-2]
    1ed4:	0000251e 	andeq	r2, r0, lr, lsl r5
    1ed8:	01120000 	tsteq	r2, r0
    1edc:	00040000 	andeq	r0, r4, r0
    1ee0:	00000684 	andeq	r0, r0, r4, lsl #13
    1ee4:	00760104 	rsbseq	r0, r6, r4, lsl #2
    1ee8:	82010000 	andhi	r0, r1, #0
    1eec:	8e000004 	cdphi	0, 0, cr0, cr0, cr4, {0}
    1ef0:	f4000004 	vst4.8	{d0-d3}, [r0], r4
    1ef4:	f000008e 			; <UNDEFINED> instruction: 0xf000008e
    1ef8:	44000000 	strmi	r0, [r0], #-0
    1efc:	02000006 	andeq	r0, r0, #6
    1f00:	6e690504 	cdpvs	5, 6, cr0, cr9, cr4, {0}
    1f04:	04030074 	streq	r0, [r3], #-116	; 0x74
    1f08:	00013707 	andeq	r3, r1, r7, lsl #14
    1f0c:	06010300 	streq	r0, [r1], -r0, lsl #6
    1f10:	000000e5 	andeq	r0, r0, r5, ror #1
    1f14:	64050203 	strvs	r0, [r5], #-515	; 0x203
    1f18:	03000001 	movweq	r0, #1
    1f1c:	015b0504 	cmpeq	fp, r4, lsl #10
    1f20:	08030000 	stmdaeq	r3, {}	; <UNPREDICTABLE>
    1f24:	00015605 	andeq	r5, r1, r5, lsl #12
    1f28:	03660400 	cmneq	r6, #0, 8
    1f2c:	2e020000 	cdpcs	0, 0, cr0, cr2, cr0, {0}
    1f30:	0000005a 	andeq	r0, r0, sl, asr r0
    1f34:	e3080103 	movw	r0, #33027	; 0x8103
    1f38:	03000000 	movweq	r0, #0
    1f3c:	00f10702 	rscseq	r0, r1, r2, lsl #14
    1f40:	6e040000 	cdpvs	0, 0, cr0, cr4, cr0, {0}
    1f44:	02000001 	andeq	r0, r0, #1
    1f48:	00007334 	andeq	r7, r0, r4, lsr r3
    1f4c:	07040300 	streq	r0, [r4, -r0, lsl #6]
    1f50:	00000132 	andeq	r0, r0, r2, lsr r1
    1f54:	2d070803 	stccs	8, cr0, [r7, #-12]
    1f58:	03000001 	movweq	r0, #1
    1f5c:	014d0704 	cmpeq	sp, r4, lsl #14
    1f60:	01030000 	mrseq	r0, (UNDEF: 3)
    1f64:	0000ec08 	andeq	lr, r0, r8, lsl #24
    1f68:	95040500 	strls	r0, [r4, #-1280]	; 0x500
    1f6c:	06000000 	streq	r0, [r0], -r0
    1f70:	00000088 	andeq	r0, r0, r8, lsl #1
    1f74:	0001d607 	andeq	sp, r1, r7, lsl #12
    1f78:	680f0100 	stmdavs	pc, {r8}	; <UNPREDICTABLE>
    1f7c:	f4000000 	vst4.8	{d0-d3}, [r0], r0
    1f80:	f000008e 			; <UNDEFINED> instruction: 0xf000008e
    1f84:	01000000 	mrseq	r0, (UNDEF: 0)
    1f88:	00010e9c 	muleq	r1, ip, lr
    1f8c:	02680800 	rsbeq	r0, r8, #0, 16
    1f90:	0f010000 	svceq	0x00010000
    1f94:	0000010e 	andeq	r0, r0, lr, lsl #2
    1f98:	00000a9b 	muleq	r0, fp, sl
    1f9c:	6e656c09 	cdpvs	12, 6, cr6, cr5, cr9, {0}
    1fa0:	250f0100 	strcs	r0, [pc, #-256]	; 1ea8 <_start-0x6158>
    1fa4:	d5000000 	strle	r0, [r0, #-0]
    1fa8:	0a00000a 	beq	1fd8 <_start-0x6028>
    1fac:	00000269 	andeq	r0, r0, r9, ror #4
    1fb0:	008f1001 	addeq	r1, pc, r1
    1fb4:	0b140000 	bleq	501fbc <__bss_end__+0x4f75c4>
    1fb8:	db0a0000 	blle	281fc0 <__bss_end__+0x2775c8>
    1fbc:	01000001 	tsteq	r0, r1
    1fc0:	00006811 	andeq	r6, r0, r1, lsl r8
    1fc4:	000b5300 	andeq	r5, fp, r0, lsl #6
    1fc8:	6d740b00 	vldmdbvs	r4!, {d16-d15}
    1fcc:	11010070 	tstne	r1, r0, ror r0
    1fd0:	00000068 	andeq	r0, r0, r8, rrx
    1fd4:	00000b9d 	muleq	r0, sp, fp
    1fd8:	6d65720b 	sfmvs	f7, 2, [r5, #-44]!	; 0xffffffd4
    1fdc:	25120100 	ldrcs	r0, [r2, #-256]	; 0x100
    1fe0:	e8000000 	stmda	r0, {}	; <UNPREDICTABLE>
    1fe4:	0000000b 	andeq	r0, r0, fp
    1fe8:	01140405 	tsteq	r4, r5, lsl #8
    1fec:	000c0000 	andeq	r0, ip, r0
    1ff0:	000000db 	ldrdeq	r0, [r0], -fp
    1ff4:	07280004 	streq	r0, [r8, -r4]!
    1ff8:	01040000 	mrseq	r0, (UNDEF: 4)
    1ffc:	00000076 	andeq	r0, r0, r6, ror r0
    2000:	0004d401 	andeq	sp, r4, r1, lsl #8
    2004:	00048e00 	andeq	r8, r4, r0, lsl #28
    2008:	008fe400 	addeq	lr, pc, r0, lsl #8
    200c:	00002000 	andeq	r2, r0, r0
    2010:	00072600 	andeq	r2, r7, r0, lsl #12
    2014:	06010200 	streq	r0, [r1], -r0, lsl #4
    2018:	000000e5 	andeq	r0, r0, r5, ror #1
    201c:	e3080102 	movw	r0, #33026	; 0x8102
    2020:	02000000 	andeq	r0, r0, #0
    2024:	01640502 	cmneq	r4, r2, lsl #10
    2028:	02020000 	andeq	r0, r2, #0
    202c:	0000f107 	andeq	pc, r0, r7, lsl #2
    2030:	05040300 	streq	r0, [r4, #-768]	; 0x300
    2034:	00746e69 	rsbseq	r6, r4, r9, ror #28
    2038:	37070402 	strcc	r0, [r7, -r2, lsl #8]
    203c:	02000001 	andeq	r0, r0, #1
    2040:	01560508 	cmpeq	r6, r8, lsl #10
    2044:	08020000 	stmdaeq	r2, {}	; <UNPREDICTABLE>
    2048:	00012d07 	andeq	r2, r1, r7, lsl #26
    204c:	05040200 	streq	r0, [r4, #-512]	; 0x200
    2050:	0000015b 	andeq	r0, r0, fp, asr r1
    2054:	4d070402 	cfstrsmi	mvf0, [r7, #-8]
    2058:	04000001 	streq	r0, [r0], #-1
    205c:	07040204 	streq	r0, [r4, -r4, lsl #4]
    2060:	00000132 	andeq	r0, r0, r2, lsr r1
    2064:	007a0405 	rsbseq	r0, sl, r5, lsl #8
    2068:	01020000 	mrseq	r0, (UNDEF: 2)
    206c:	0000ec08 	andeq	lr, r0, r8, lsl #24
    2070:	00000600 	andeq	r0, r0, r0, lsl #12
    2074:	d4020000 	strle	r0, [r2], #-0
    2078:	00000048 	andeq	r0, r0, r8, asr #32
    207c:	00010c07 	andeq	r0, r1, r7, lsl #24
    2080:	6b1b0300 	blvs	6c2c88 <__bss_end__+0x6b8290>
    2084:	e4000000 	str	r0, [r0], #-0
    2088:	2000008f 	andcs	r0, r0, pc, lsl #1
    208c:	01000000 	mrseq	r0, (UNDEF: 0)
    2090:	705f089c 			; <UNDEFINED> instruction: 0x705f089c
    2094:	6b030100 	blvs	c249c <__bss_end__+0xb7aa4>
    2098:	01000000 	mrseq	r0, (UNDEF: 0)
    209c:	00630850 	rsbeq	r0, r3, r0, asr r8
    20a0:	00410301 	subeq	r0, r1, r1, lsl #6
    20a4:	51010000 	mrspl	r0, (UNDEF: 1)
    20a8:	01006e09 	tsteq	r0, r9, lsl #28
    20ac:	00008103 	andeq	r8, r0, r3, lsl #2
    20b0:	000bfb00 	andeq	pc, fp, r0, lsl #22
    20b4:	00700a00 	rsbseq	r0, r0, r0, lsl #20
    20b8:	00740401 	rsbseq	r0, r4, r1, lsl #8
    20bc:	0c1c0000 	ldceq	0, cr0, [ip], {-0}
    20c0:	650b0000 	strvs	r0, [fp, #-0]
    20c4:	74040100 	strvc	r0, [r4], #-256	; 0x100
    20c8:	01000000 	mrseq	r0, (UNDEF: 0)
    20cc:	91000052 	qaddls	r0, r2, r0
    20d0:	04000001 	streq	r0, [r0], #-1
    20d4:	0007c500 	andeq	ip, r7, r0, lsl #10
    20d8:	76010400 	strvc	r0, [r1], -r0, lsl #8
    20dc:	01000000 	mrseq	r0, (UNDEF: 0)
    20e0:	000004f1 	strdeq	r0, [r0], -r1
    20e4:	0000048e 	andeq	r0, r0, lr, lsl #9
    20e8:	00009004 	andeq	r9, r0, r4
    20ec:	00000058 	andeq	r0, r0, r8, asr r0
    20f0:	00000816 	andeq	r0, r0, r6, lsl r8
    20f4:	0004e202 	andeq	lr, r4, r2, lsl #4
    20f8:	30280200 	eorcc	r0, r8, r0, lsl #4
    20fc:	03000000 	movweq	r0, #0
    2100:	00000509 	andeq	r0, r0, r9, lsl #10
    2104:	47000304 	strmi	r0, [r0, -r4, lsl #6]
    2108:	04000000 	streq	r0, [r0], #-0
    210c:	00000513 	andeq	r0, r0, r3, lsl r5
    2110:	00000047 	andeq	r0, r0, r7, asr #32
    2114:	04050000 	streq	r0, [r5], #-0
    2118:	00050b02 	andeq	r0, r5, r2, lsl #22
    211c:	25620200 	strbcs	r0, [r2, #-512]!	; 0x200
    2120:	06000000 	streq	r0, [r0], -r0
    2124:	6e690504 	cdpvs	5, 6, cr0, cr9, cr4, {0}
    2128:	04070074 	streq	r0, [r7], #-116	; 0x74
    212c:	00013707 	andeq	r3, r1, r7, lsl #14
    2130:	06010700 	streq	r0, [r1], -r0, lsl #14
    2134:	000000e5 	andeq	r0, r0, r5, ror #1
    2138:	64050207 	strvs	r0, [r5], #-519	; 0x207
    213c:	07000001 	streq	r0, [r0, -r1]
    2140:	015b0504 	cmpeq	fp, r4, lsl #10
    2144:	08070000 	stmdaeq	r7, {}	; <UNPREDICTABLE>
    2148:	00015605 	andeq	r5, r1, r5, lsl #12
    214c:	08010700 	stmdaeq	r1, {r8, r9, sl}
    2150:	000000e3 	andeq	r0, r0, r3, ror #1
    2154:	f1070207 			; <UNDEFINED> instruction: 0xf1070207
    2158:	07000000 	streq	r0, [r0, -r0]
    215c:	01320704 	teqeq	r2, r4, lsl #14
    2160:	08070000 	stmdaeq	r7, {}	; <UNPREDICTABLE>
    2164:	00012d07 	andeq	r2, r1, r7, lsl #26
    2168:	07040700 	streq	r0, [r4, -r0, lsl #14]
    216c:	0000014d 	andeq	r0, r0, sp, asr #2
    2170:	00a70408 	adceq	r0, r7, r8, lsl #8
    2174:	01070000 	mrseq	r0, (UNDEF: 7)
    2178:	0000ec08 	andeq	lr, r0, r8, lsl #24
    217c:	b4040800 	strlt	r0, [r4], #-2048	; 0x800
    2180:	09000000 	stmdbeq	r0, {}	; <UNPREDICTABLE>
    2184:	000000a7 	andeq	r0, r0, r7, lsr #1
    2188:	0005020a 	andeq	r0, r5, sl, lsl #4
    218c:	54060100 	strpl	r0, [r6], #-256	; 0x100
    2190:	04000000 	streq	r0, [r0], #-0
    2194:	58000090 	stmdapl	r0, {r4, r7}
    2198:	01000000 	mrseq	r0, (UNDEF: 0)
    219c:	0001439c 	muleq	r1, ip, r3
    21a0:	6d660b00 	vstmdbvs	r6!, {d16-d15}
    21a4:	06010074 			; <UNDEFINED> instruction: 0x06010074
    21a8:	000000ae 	andeq	r0, r0, lr, lsr #1
    21ac:	0c709102 	ldfeqp	f1, [r0], #-8
    21b0:	6675620d 	ldrbtvs	r6, [r5], -sp, lsl #4
    21b4:	43080100 	movwmi	r0, #33024	; 0x8100
    21b8:	05000001 	streq	r0, [r0, #-1]
    21bc:	00a5f003 	adceq	pc, r5, r3
    21c0:	07ba0e00 	ldreq	r0, [sl, r0, lsl #28]!
    21c4:	09010000 	stmdbeq	r1, {}	; <UNPREDICTABLE>
    21c8:	00000049 	andeq	r0, r0, r9, asr #32
    21cc:	0f5c9102 	svceq	0x005c9102
    21d0:	01007a73 	tsteq	r0, r3, ror sl
    21d4:	0000540c 	andeq	r5, r0, ip, lsl #8
    21d8:	000c4700 	andeq	r4, ip, r0, lsl #14
    21dc:	902c1000 	eorls	r1, ip, r0
    21e0:	01740000 	cmneq	r4, r0
    21e4:	01360000 	teqeq	r6, r0
    21e8:	01110000 	tsteq	r1, r0
    21ec:	4c910253 	lfmmi	f0, 4, [r1], {83}	; 0x53
    21f0:	03520111 	cmpeq	r2, #1073741828	; 0x40000004
    21f4:	11064891 			; <UNDEFINED> instruction: 0x11064891
    21f8:	0a035101 	beq	d6604 <__bss_end__+0xcbc0c>
    21fc:	01110400 	tsteq	r1, r0, lsl #8
    2200:	00740250 	rsbseq	r0, r4, r0, asr r2
    2204:	90401200 	subls	r1, r0, r0, lsl #4
    2208:	01110000 	tsteq	r1, r0
    220c:	00740250 	rsbseq	r0, r4, r0, asr r2
    2210:	a7130000 	ldrge	r0, [r3, -r0]
    2214:	54000000 	strpl	r0, [r0], #-0
    2218:	14000001 	strne	r0, [r0], #-1
    221c:	0000009a 	muleq	r0, sl, r0
    2220:	150003ff 	strne	r0, [r0, #-1023]	; 0x3ff
    2224:	00000054 	andeq	r0, r0, r4, asr r0
    2228:	00000163 	andeq	r0, r0, r3, ror #2
    222c:	0000ae16 	andeq	sl, r0, r6, lsl lr
    2230:	70170000 	andsvc	r0, r7, r0
    2234:	04000005 	streq	r0, [r0], #-5
    2238:	00016e22 	andeq	r6, r1, r2, lsr #28
    223c:	54040800 	strpl	r0, [r4], #-2048	; 0x800
    2240:	18000001 	stmdane	r0, {r0}
    2244:	000004ff 	strdeq	r0, [r0], -pc	; <UNPREDICTABLE>
    2248:	00540205 	subseq	r0, r4, r5, lsl #4
    224c:	a1160000 	tstge	r6, r0
    2250:	16000000 	strne	r0, [r0], -r0
    2254:	00000054 	andeq	r0, r0, r4, asr r0
    2258:	0000ae16 	andeq	sl, r0, r6, lsl lr
    225c:	00491600 	subeq	r1, r9, r0, lsl #12
    2260:	00000000 	andeq	r0, r0, r0
    2264:	00000113 	andeq	r0, r0, r3, lsl r1
    2268:	08f60004 	ldmeq	r6!, {r2}^
    226c:	01040000 	mrseq	r0, (UNDEF: 4)
    2270:	00000076 	andeq	r0, r0, r6, ror r0
    2274:	00053f01 	andeq	r3, r5, r1, lsl #30
    2278:	00048e00 	andeq	r8, r4, r0, lsl #28
    227c:	00905c00 	addseq	r5, r0, r0, lsl #24
    2280:	00003c00 	andeq	r3, r0, r0, lsl #24
    2284:	00092600 	andeq	r2, r9, r0, lsl #12
    2288:	05040200 	streq	r0, [r4, #-512]	; 0x200
    228c:	00746e69 	rsbseq	r6, r4, r9, ror #28
    2290:	37070403 	strcc	r0, [r7, -r3, lsl #8]
    2294:	03000001 	movweq	r0, #1
    2298:	00e50601 	rsceq	r0, r5, r1, lsl #12
    229c:	02030000 	andeq	r0, r3, #0
    22a0:	00016405 	andeq	r6, r1, r5, lsl #8
    22a4:	05040300 	streq	r0, [r4, #-768]	; 0x300
    22a8:	0000015b 	andeq	r0, r0, fp, asr r1
    22ac:	56050803 	strpl	r0, [r5], -r3, lsl #16
    22b0:	03000001 	movweq	r0, #1
    22b4:	00e30801 	rsceq	r0, r3, r1, lsl #16
    22b8:	02030000 	andeq	r0, r3, #0
    22bc:	0000f107 	andeq	pc, r0, r7, lsl #2
    22c0:	07040300 	streq	r0, [r4, -r0, lsl #6]
    22c4:	00000132 	andeq	r0, r0, r2, lsr r1
    22c8:	2d070803 	stccs	8, cr0, [r7, #-12]
    22cc:	03000001 	movweq	r0, #1
    22d0:	014d0704 	cmpeq	sp, r4, lsl #14
    22d4:	01030000 	mrseq	r0, (UNDEF: 3)
    22d8:	0000ec08 	andeq	lr, r0, r8, lsl #24
    22dc:	05220400 	streq	r0, [r2, #-1024]!	; 0x400
    22e0:	03010000 	movweq	r0, #4096	; 0x1000
    22e4:	00000025 	andeq	r0, r0, r5, lsr #32
    22e8:	0000905c 	andeq	r9, r0, ip, asr r0
    22ec:	00000014 	andeq	r0, r0, r4, lsl r0
    22f0:	00b09c01 	adcseq	r9, r0, r1, lsl #24
    22f4:	63050000 	movwvs	r0, #20480	; 0x5000
    22f8:	25030100 	strcs	r0, [r3, #-256]	; 0x100
    22fc:	70000000 	andvc	r0, r0, r0
    2300:	0600000c 	streq	r0, [r0], -ip
    2304:	00009068 	andeq	r9, r0, r8, rrx
    2308:	00000109 	andeq	r0, r0, r9, lsl #2
    230c:	02500107 	subseq	r0, r0, #-1073741823	; 0xc0000001
    2310:	00000074 	andeq	r0, r0, r4, ror r0
    2314:	00024308 	andeq	r4, r2, r8, lsl #6
    2318:	70080100 	andvc	r0, r8, r0, lsl #2
    231c:	18000090 	stmdane	r0, {r4, r7}
    2320:	01000000 	mrseq	r0, (UNDEF: 0)
    2324:	054e099c 	strbeq	r0, [lr, #-2460]	; 0x99c
    2328:	0b010000 	bleq	42330 <__bss_end__+0x37938>
    232c:	00009088 	andeq	r9, r0, r8, lsl #1
    2330:	00000010 	andeq	r0, r0, r0, lsl r0
    2334:	00e39c01 	rsceq	r9, r3, r1, lsl #24
    2338:	660a0000 	strvs	r0, [sl], -r0
    233c:	0b010070 	bleq	42504 <__bss_end__+0x37b0c>
    2340:	000000f2 	strdeq	r0, [r0], -r2
    2344:	0b005001 	bleq	16350 <__bss_end__+0xb958>
    2348:	00000025 	andeq	r0, r0, r5, lsr #32
    234c:	000000f2 	strdeq	r0, [r0], -r2
    2350:	0000250c 	andeq	r2, r0, ip, lsl #10
    2354:	040d0000 	streq	r0, [sp], #-0
    2358:	000000e3 	andeq	r0, r0, r3, ror #1
    235c:	0005330e 	andeq	r3, r5, lr, lsl #6
    2360:	f2060100 	vrhadd.s8	d0, d6, d0
    2364:	05000000 	streq	r0, [r0, #-0]
    2368:	009bc003 	addseq	ip, fp, r3
    236c:	05180f00 	ldreq	r0, [r8, #-3840]	; 0xf00
    2370:	3c020000 	stccc	0, cr0, [r2], {-0}
    2374:	00002c0c 	andeq	r2, r0, ip, lsl #24
    2378:	ee000000 	cdp	0, 0, cr0, cr0, cr0, {0}
    237c:	04000000 	streq	r0, [r0], #-0
    2380:	0009de00 	andeq	sp, r9, r0, lsl #28
    2384:	76010400 	strvc	r0, [r1], -r0, lsl #8
    2388:	01000000 	mrseq	r0, (UNDEF: 0)
    238c:	0000055b 	andeq	r0, r0, fp, asr r5
    2390:	0000048e 	andeq	r0, r0, lr, lsl #9
    2394:	00009098 	muleq	r0, r8, r0
    2398:	00000034 	andeq	r0, r0, r4, lsr r0
    239c:	000009be 			; <UNDEFINED> instruction: 0x000009be
    23a0:	69050402 	stmdbvs	r5, {r1, sl}
    23a4:	0300746e 	movweq	r7, #1134	; 0x46e
    23a8:	01370704 	teqeq	r7, r4, lsl #14
    23ac:	01030000 	mrseq	r0, (UNDEF: 3)
    23b0:	0000e506 	andeq	lr, r0, r6, lsl #10
    23b4:	05020300 	streq	r0, [r2, #-768]	; 0x300
    23b8:	00000164 	andeq	r0, r0, r4, ror #2
    23bc:	5b050403 	blpl	1433d0 <__bss_end__+0x1389d8>
    23c0:	03000001 	movweq	r0, #1
    23c4:	01560508 	cmpeq	r6, r8, lsl #10
    23c8:	01030000 	mrseq	r0, (UNDEF: 3)
    23cc:	0000e308 	andeq	lr, r0, r8, lsl #6
    23d0:	07020300 	streq	r0, [r2, -r0, lsl #6]
    23d4:	000000f1 	strdeq	r0, [r0], -r1
    23d8:	32070403 	andcc	r0, r7, #50331648	; 0x3000000
    23dc:	03000001 	movweq	r0, #1
    23e0:	012d0708 	teqeq	sp, r8, lsl #14
    23e4:	04030000 	streq	r0, [r3], #-0
    23e8:	00014d07 	andeq	r4, r1, r7, lsl #26
    23ec:	08010300 	stmdaeq	r1, {r8, r9}
    23f0:	000000ec 	andeq	r0, r0, ip, ror #1
    23f4:	007f0404 	rsbseq	r0, pc, r4, lsl #8
    23f8:	72050000 	andvc	r0, r5, #0
    23fc:	06000000 	streq	r0, [r0], -r0
    2400:	00000567 	andeq	r0, r0, r7, ror #10
    2404:	00250401 	eoreq	r0, r5, r1, lsl #8
    2408:	90980000 	addsls	r0, r8, r0
    240c:	00340000 	eorseq	r0, r4, r0
    2410:	9c010000 	stcls	0, cr0, [r1], {-0}
    2414:	000000ab 	andeq	r0, r0, fp, lsr #1
    2418:	01007007 	tsteq	r0, r7
    241c:	00007904 	andeq	r7, r0, r4, lsl #18
    2420:	000c8e00 	andeq	r8, ip, r0, lsl #28
    2424:	25080000 	strcs	r0, [r8, #-0]
    2428:	ba000000 	blt	2430 <_start-0x5bd0>
    242c:	09000000 	stmdbeq	r0, {}	; <UNPREDICTABLE>
    2430:	00000025 	andeq	r0, r0, r5, lsr #32
    2434:	05330a00 	ldreq	r0, [r3, #-2560]!	; 0xa00
    2438:	1d020000 	stcne	0, cr0, [r2, #-0]
    243c:	000000c5 	andeq	r0, r0, r5, asr #1
    2440:	00ab0404 	adceq	r0, fp, r4, lsl #8
    2444:	25080000 	strcs	r0, [r8, #-0]
    2448:	da000000 	ble	2450 <_start-0x5bb0>
    244c:	09000000 	stmdbeq	r0, {}	; <UNPREDICTABLE>
    2450:	00000079 	andeq	r0, r0, r9, ror r0
    2454:	05700b00 	ldrbeq	r0, [r0, #-2816]!	; 0xb00
    2458:	0c010000 	stceq	0, cr0, [r1], {-0}
    245c:	000000eb 	andeq	r0, r0, fp, ror #1
    2460:	9bc40305 	blls	ff10307c <__bss_end__+0xff0f8684>
    2464:	04040000 	streq	r0, [r4], #-0
    2468:	000000cb 	andeq	r0, r0, fp, asr #1
    246c:	00068100 	andeq	r8, r6, r0, lsl #2
    2470:	77000400 	strvc	r0, [r0, -r0, lsl #8]
    2474:	0400000a 	streq	r0, [r0], #-10
    2478:	00007601 	andeq	r7, r0, r1, lsl #12
    247c:	059c0100 	ldreq	r0, [ip, #256]	; 0x100
    2480:	048e0000 	streq	r0, [lr], #0
    2484:	90cc0000 	sbcls	r0, ip, r0
    2488:	050c0000 	streq	r0, [ip, #-0]
    248c:	0a620000 	beq	1882494 <__bss_end__+0x1877a9c>
    2490:	04020000 	streq	r0, [r2], #-0
    2494:	746e6905 	strbtvc	r6, [lr], #-2309	; 0x905
    2498:	07040300 	streq	r0, [r4, -r0, lsl #6]
    249c:	00000137 	andeq	r0, r0, r7, lsr r1
    24a0:	e5060103 	str	r0, [r6, #-259]	; 0x103
    24a4:	03000000 	movweq	r0, #0
    24a8:	01640502 	cmneq	r4, r2, lsl #10
    24ac:	04030000 	streq	r0, [r3], #-0
    24b0:	00015b05 	andeq	r5, r1, r5, lsl #22
    24b4:	05080300 	streq	r0, [r8, #-768]	; 0x300
    24b8:	00000156 	andeq	r0, r0, r6, asr r1
    24bc:	e3080103 	movw	r0, #33027	; 0x8103
    24c0:	03000000 	movweq	r0, #0
    24c4:	00f10702 	rscseq	r0, r1, r2, lsl #14
    24c8:	04030000 	streq	r0, [r3], #-0
    24cc:	00013207 	andeq	r3, r1, r7, lsl #4
    24d0:	07080300 	streq	r0, [r8, -r0, lsl #6]
    24d4:	0000012d 	andeq	r0, r0, sp, lsr #2
    24d8:	4d070403 	cfstrsmi	mvf0, [r7, #-12]
    24dc:	04000001 	streq	r0, [r0], #-1
    24e0:	7a040504 	bvc	1038f8 <__bss_end__+0xf8f00>
    24e4:	03000000 	movweq	r0, #0
    24e8:	00ec0801 	rsceq	r0, ip, r1, lsl #16
    24ec:	04050000 	streq	r0, [r5], #-0
    24f0:	00000087 	andeq	r0, r0, r7, lsl #1
    24f4:	00007a06 	andeq	r7, r0, r6, lsl #20
    24f8:	04e20700 	strbteq	r0, [r2], #1792	; 0x700
    24fc:	28020000 	stmdacs	r2, {}	; <UNPREDICTABLE>
    2500:	00000097 	muleq	r0, r7, r0
    2504:	00050908 	andeq	r0, r5, r8, lsl #18
    2508:	00040400 	andeq	r0, r4, r0, lsl #8
    250c:	000000ae 	andeq	r0, r0, lr, lsr #1
    2510:	00051309 	andeq	r1, r5, r9, lsl #6
    2514:	00007200 	andeq	r7, r0, r0, lsl #4
    2518:	07000000 	streq	r0, [r0, -r0]
    251c:	0000050b 	andeq	r0, r0, fp, lsl #10
    2520:	008c6202 	addeq	r6, ip, r2, lsl #4
    2524:	830a0000 	movwhi	r0, #40960	; 0xa000
    2528:	01000005 	tsteq	r0, r5
    252c:	00002527 	andeq	r2, r0, r7, lsr #10
    2530:	0090cc00 	addseq	ip, r0, r0, lsl #24
    2534:	00001400 	andeq	r1, r0, r0, lsl #8
    2538:	e09c0100 	adds	r0, ip, r0, lsl #2
    253c:	0b000000 	bleq	2544 <_start-0x5abc>
    2540:	27010063 	strcs	r0, [r1, -r3, rrx]
    2544:	00000025 	andeq	r0, r0, r5, lsr #32
    2548:	00000cac 	andeq	r0, r0, ip, lsr #25
    254c:	61700c00 	cmnvs	r0, r0, lsl #24
    2550:	2e010064 	cdpcs	0, 0, cr0, cr1, cr4, {3}
    2554:	00000074 	andeq	r0, r0, r4, ror r0
    2558:	000090e0 	andeq	r9, r0, r0, ror #1
    255c:	0000002c 	andeq	r0, r0, ip, lsr #32
    2560:	01309c01 	teqeq	r0, r1, lsl #24
    2564:	700b0000 	andvc	r0, fp, r0
    2568:	742e0100 	strtvc	r0, [lr], #-256	; 0x100
    256c:	da000000 	ble	2574 <_start-0x5a8c>
    2570:	0d00000c 	stceq	0, cr0, [r0, #-48]	; 0xffffffd0
    2574:	00000798 	muleq	r0, r8, r7
    2578:	00742e01 	rsbseq	r2, r4, r1, lsl #28
    257c:	0d050000 	stceq	0, cr0, [r5, #-0]
    2580:	bc0e0000 	stclt	0, cr0, [lr], {-0}
    2584:	01000005 	tsteq	r0, r5
    2588:	0000252e 	andeq	r2, r0, lr, lsr #10
    258c:	0f520100 	svceq	0x00520100
    2590:	006e656c 	rsbeq	r6, lr, ip, ror #10
    2594:	00252f01 	eoreq	r2, r5, r1, lsl #30
    2598:	51010000 	mrspl	r0, (UNDEF: 1)
    259c:	057b0a00 	ldrbeq	r0, [fp, #-2560]!	; 0xa00
    25a0:	37010000 	strcc	r0, [r1, -r0]
    25a4:	00000074 	andeq	r0, r0, r4, ror r0
    25a8:	0000910c 	andeq	r9, r0, ip, lsl #2
    25ac:	00000040 	andeq	r0, r0, r0, asr #32
    25b0:	019c9c01 	orrseq	r9, ip, r1, lsl #24
    25b4:	640b0000 	strvs	r0, [fp], #-0
    25b8:	01007473 	tsteq	r0, r3, ror r4
    25bc:	00007437 	andeq	r7, r0, r7, lsr r4
    25c0:	000d2600 	andeq	r2, sp, r0, lsl #12
    25c4:	006e0b00 	rsbeq	r0, lr, r0, lsl #22
    25c8:	00253701 	eoreq	r3, r5, r1, lsl #14
    25cc:	0d5e0000 	ldcleq	0, cr0, [lr, #-0]
    25d0:	700b0000 	andvc	r0, fp, r0
    25d4:	74370100 	ldrtvc	r0, [r7], #-256	; 0x100
    25d8:	7f000000 	svcvc	0x00000000
    25dc:	0d00000d 	stceq	0, cr0, [r0, #-52]	; 0xffffffcc
    25e0:	00000d53 	andeq	r0, r0, r3, asr sp
    25e4:	00743701 	rsbseq	r3, r4, r1, lsl #14
    25e8:	0db50000 	ldceq	0, cr0, [r5]
    25ec:	6c100000 	ldcvs	0, cr0, [r0], {-0}
    25f0:	01006e65 	tsteq	r0, r5, ror #28
    25f4:	00002539 	andeq	r2, r0, r9, lsr r5
    25f8:	000dd300 	andeq	sp, sp, r0, lsl #6
    25fc:	00730f00 	rsbseq	r0, r3, r0, lsl #30
    2600:	00743d01 	rsbseq	r3, r4, r1, lsl #26
    2604:	50010000 	andpl	r0, r1, r0
    2608:	05ca0a00 	strbeq	r0, [sl, #2560]	; 0xa00
    260c:	47010000 	strmi	r0, [r1, -r0]
    2610:	00000074 	andeq	r0, r0, r4, ror r0
    2614:	0000914c 	andeq	r9, r0, ip, asr #2
    2618:	000001b0 			; <UNDEFINED> instruction: 0x000001b0
    261c:	02d39c01 	sbcseq	r9, r3, #256	; 0x100
    2620:	980d0000 	stmdals	sp, {}	; <UNPREDICTABLE>
    2624:	01000007 	tsteq	r0, r7
    2628:	00002c47 	andeq	r2, r0, r7, asr #24
    262c:	000dfa00 	andeq	pc, sp, r0, lsl #20
    2630:	73640b00 	cmnvc	r4, #0, 22
    2634:	47010074 	smlsdxmi	r1, r4, r0, r0
    2638:	00000074 	andeq	r0, r0, r4, ror r0
    263c:	00000e28 	andeq	r0, r0, r8, lsr #28
    2640:	01006e0b 	tsteq	r0, fp, lsl #28
    2644:	00002547 	andeq	r2, r0, r7, asr #10
    2648:	000e9600 	andeq	r9, lr, r0, lsl #12
    264c:	61760b00 	cmnvs	r6, r0, lsl #22
    2650:	4701006c 	strmi	r0, [r1, -ip, rrx]
    2654:	00000025 	andeq	r0, r0, r5, lsr #32
    2658:	00000ec2 	andeq	r0, r0, r2, asr #29
    265c:	0005bc0d 	andeq	fp, r5, sp, lsl #24
    2660:	25470100 	strbcs	r0, [r7, #-256]	; 0x100
    2664:	41000000 	mrsmi	r0, (UNDEF: 0)
    2668:	0e00000f 	cdpeq	0, 0, cr0, cr0, cr15, {0}
    266c:	00000593 	muleq	r0, r3, r5
    2670:	00254701 	eoreq	r4, r5, r1, lsl #14
    2674:	91020000 	mrsls	r0, (UNDEF: 2)
    2678:	75620f04 	strbvc	r0, [r2, #-3844]!	; 0xf04
    267c:	4c010066 	stcmi	0, cr0, [r1], {102}	; 0x66
    2680:	000002d3 	ldrdeq	r0, [r0], -r3
    2684:	7fa89103 	svcvc	0x00a89103
    2688:	01007010 	tsteq	r0, r0, lsl r0
    268c:	0000744c 	andeq	r7, r0, ip, asr #8
    2690:	000f6b00 	andeq	r6, pc, r0, lsl #22
    2694:	00751000 	rsbseq	r1, r5, r0
    2698:	002c4d01 	eoreq	r4, ip, r1, lsl #26
    269c:	10330000 	eorsne	r0, r3, r0
    26a0:	13110000 	tstne	r1, #0
    26a4:	f3000001 	vhadd.u8	d0, d0, d1
    26a8:	05000002 	streq	r0, [r0, #-2]
    26ac:	00a39403 	adceq	r9, r3, r3, lsl #8
    26b0:	91b81200 			; <UNDEFINED> instruction: 0x91b81200
    26b4:	00740000 	rsbseq	r0, r4, r0
    26b8:	02610000 	rsbeq	r0, r1, #0
    26bc:	75130000 	ldrvc	r0, [r3, #-0]
    26c0:	01000005 	tsteq	r0, r5
    26c4:	00002c52 	andeq	r2, r0, r2, asr ip
    26c8:	0010f600 	andseq	pc, r0, r0, lsl #12
    26cc:	a4140000 	ldrge	r0, [r4], #-0
    26d0:	60000092 	mulvs	r0, r2, r0
    26d4:	15000006 	strne	r0, [r0, #-6]
    26d8:	000092b8 			; <UNDEFINED> instruction: 0x000092b8
    26dc:	00000667 	andeq	r0, r0, r7, ror #12
    26e0:	00000299 	muleq	r0, r9, r2
    26e4:	02530116 	subseq	r0, r3, #-2147483643	; 0x80000005
    26e8:	01167708 	tsteq	r6, r8, lsl #14
    26ec:	94030552 	strls	r0, [r3], #-1362	; 0x552
    26f0:	160000a3 	strne	r0, [r0], -r3, lsr #1
    26f4:	03055101 	movweq	r5, #20737	; 0x5101
    26f8:	0000a3cc 	andeq	sl, r0, ip, asr #7
    26fc:	05500116 	ldrbeq	r0, [r0, #-278]	; 0x116
    2700:	00a3b803 	adceq	fp, r3, r3, lsl #16
    2704:	bc140000 	ldclt	0, cr0, [r4], {-0}
    2708:	7d000092 	stcvc	0, cr0, [r0, #-584]	; 0xfffffdb8
    270c:	15000006 	strne	r0, [r0, #-6]
    2710:	000092c4 	andeq	r9, r0, r4, asr #5
    2714:	000000e0 	andeq	r0, r0, r0, ror #1
    2718:	000002b6 			; <UNDEFINED> instruction: 0x000002b6
    271c:	02510116 	subseq	r0, r1, #-2147483643	; 0x80000005
    2720:	1700007d 	smlsdxne	r0, sp, r0, r0
    2724:	000092d8 	ldrdeq	r9, [r0], -r8
    2728:	00000130 	andeq	r0, r0, r0, lsr r1
    272c:	02530116 	subseq	r0, r3, #-2147483643	; 0x80000005
    2730:	0116007d 	tsteq	r6, sp, ror r0
    2734:	00740251 	rsbseq	r0, r4, r1, asr r2
    2738:	02500116 	subseq	r0, r0, #-2147483643	; 0x80000005
    273c:	00000075 	andeq	r0, r0, r5, ror r0
    2740:	00007a18 	andeq	r7, r0, r8, lsl sl
    2744:	0002e300 	andeq	lr, r2, r0, lsl #6
    2748:	006b1900 	rsbeq	r1, fp, r0, lsl #18
    274c:	003f0000 	eorseq	r0, pc, r0
    2750:	00007a18 	andeq	r7, r0, r8, lsl sl
    2754:	0002f300 	andeq	pc, r2, r0, lsl #6
    2758:	006b1900 	rsbeq	r1, fp, r0, lsl #18
    275c:	00040000 	andeq	r0, r4, r0
    2760:	0002e306 	andeq	lr, r2, r6, lsl #6
    2764:	05ad1a00 	streq	r1, [sp, #2560]!	; 0xa00
    2768:	1f010000 	svcne	0x00010000
    276c:	000092fc 	strdeq	r9, [r0], -ip
    2770:	00000054 	andeq	r0, r0, r4, asr r0
    2774:	037c9c01 	cmneq	ip, #256	; 0x100
    2778:	c20d0000 	andgt	r0, sp, #0
    277c:	01000005 	tsteq	r0, r5
    2780:	00038b1f 	andeq	r8, r3, pc, lsl fp
    2784:	00112200 	andseq	r2, r1, r0, lsl #4
    2788:	058b0d00 	streq	r0, [fp, #3328]	; 0xd00
    278c:	1f010000 	svcne	0x00010000
    2790:	000003a0 	andeq	r0, r0, r0, lsr #7
    2794:	0000114e 	andeq	r1, r0, lr, asr #2
    2798:	00011311 	andeq	r1, r1, r1, lsl r3
    279c:	0003b600 	andeq	fp, r3, r0, lsl #12
    27a0:	9c030500 	cfstr32ls	mvfx0, [r3], {-0}
    27a4:	140000a3 	strne	r0, [r0], #-163	; 0xa3
    27a8:	0000930c 	andeq	r9, r0, ip, lsl #6
    27ac:	00000660 	andeq	r0, r0, r0, ror #12
    27b0:	00932015 	addseq	r2, r3, r5, lsl r0
    27b4:	00066700 	andeq	r6, r6, r0, lsl #14
    27b8:	00037200 	andeq	r7, r3, r0, lsl #4
    27bc:	53011600 	movwpl	r1, #5632	; 0x1600
    27c0:	16200802 	strtne	r0, [r0], -r2, lsl #16
    27c4:	03055201 	movweq	r5, #20993	; 0x5201
    27c8:	0000a39c 	muleq	r0, ip, r3
    27cc:	05510116 	ldrbeq	r0, [r1, #-278]	; 0x116
    27d0:	00a3cc03 	adceq	ip, r3, r3, lsl #24
    27d4:	50011600 	andpl	r1, r1, r0, lsl #12
    27d8:	a4040305 	strge	r0, [r4], #-773	; 0x305
    27dc:	14000000 	strne	r0, [r0], #-0
    27e0:	00009324 	andeq	r9, r0, r4, lsr #6
    27e4:	0000067d 	andeq	r0, r0, sp, ror r6
    27e8:	00251b00 	eoreq	r1, r5, r0, lsl #22
    27ec:	038b0000 	orreq	r0, fp, #0
    27f0:	251c0000 	ldrcs	r0, [ip, #-0]
    27f4:	00000000 	andeq	r0, r0, r0
    27f8:	037c0405 	cmneq	ip, #83886080	; 0x5000000
    27fc:	251b0000 	ldrcs	r0, [fp, #-0]
    2800:	a0000000 	andge	r0, r0, r0
    2804:	1c000003 	stcne	0, cr0, [r0], {3}
    2808:	00000081 	andeq	r0, r0, r1, lsl #1
    280c:	91040500 	tstls	r4, r0, lsl #10
    2810:	18000003 	stmdane	r0, {r0, r1}
    2814:	0000007a 	andeq	r0, r0, sl, ror r0
    2818:	000003b6 			; <UNDEFINED> instruction: 0x000003b6
    281c:	00006b19 	andeq	r6, r0, r9, lsl fp
    2820:	06000e00 	streq	r0, [r0], -r0, lsl #28
    2824:	000003a6 	andeq	r0, r0, r6, lsr #7
    2828:	0004ff1d 	andeq	pc, r4, sp, lsl pc	; <UNPREDICTABLE>
    282c:	257f0100 	ldrbcs	r0, [pc, #-256]!	; 2734 <_start-0x58cc>
    2830:	50000000 	andpl	r0, r0, r0
    2834:	88000093 	stmdahi	r0, {r0, r1, r4, r7}
    2838:	01000002 	tsteq	r0, r2
    283c:	0006259c 	muleq	r6, ip, r5
    2840:	75620b00 	strbvc	r0, [r2, #-2816]!	; 0xb00
    2844:	7f010066 	svcvc	0x00010066
    2848:	00000074 	andeq	r0, r0, r4, ror r0
    284c:	0000117a 	andeq	r1, r0, sl, ror r1
    2850:	01006e0b 	tsteq	r0, fp, lsl #28
    2854:	0000257f 	andeq	r2, r0, pc, ror r5
    2858:	0011a600 	andseq	sl, r1, r0, lsl #12
    285c:	6d660b00 	vstmdbvs	r6!, {d16-d15}
    2860:	7f010074 	svcvc	0x00010074
    2864:	00000081 	andeq	r0, r0, r1, lsl #1
    2868:	000011d4 	ldrdeq	r1, [r0], -r4
    286c:	0007ba0d 	andeq	fp, r7, sp, lsl #20
    2870:	ae7f0100 	rpwgee	f0, f7, f0
    2874:	08000000 	stmdaeq	r0, {}	; <UNPREDICTABLE>
    2878:	10000012 	andne	r0, r0, r2, lsl r0
    287c:	80010070 	andhi	r0, r1, r0, ror r0
    2880:	00000074 	andeq	r0, r0, r4, ror r0
    2884:	0000121b 	andeq	r1, r0, fp, lsl r2
    2888:	01006510 	tsteq	r0, r0, lsl r5
    288c:	00007480 	andeq	r7, r0, r0, lsl #9
    2890:	00129900 	andseq	r9, r2, r0, lsl #18
    2894:	01131100 	tsteq	r3, r0, lsl #2
    2898:	06350000 	ldrteq	r0, [r5], -r0
    289c:	03050000 	movweq	r0, #20480	; 0x5000
    28a0:	0000a3ac 	andeq	sl, r0, ip, lsr #7
    28a4:	0000481e 	andeq	r4, r0, lr, lsl r8
    28a8:	00731000 	rsbseq	r1, r3, r0
    28ac:	00748d01 	rsbseq	r8, r4, r1, lsl #26
    28b0:	12c00000 	sbcne	r0, r0, #0
    28b4:	6e0f0000 	cdpvs	0, 0, cr0, cr15, cr0, {0}
    28b8:	01006d75 	tsteq	r0, r5, ror sp
    28bc:	00063a8d 	andeq	r3, r6, sp, lsl #21
    28c0:	d8910300 	ldmle	r1, {r8, r9}
    28c4:	05bc137e 	ldreq	r1, [ip, #894]!	; 0x37e
    28c8:	8e010000 	cdphi	0, 0, cr0, cr1, cr0, {0}
    28cc:	0000002c 	andeq	r0, r0, ip, lsr #32
    28d0:	00001315 	andeq	r1, r0, r5, lsl r3
    28d4:	0093d415 	addseq	sp, r3, r5, lsl r4
    28d8:	0000b900 	andeq	fp, r0, r0, lsl #18
    28dc:	00047b00 	andeq	r7, r4, r0, lsl #22
    28e0:	50011600 	andpl	r1, r1, r0, lsl #12
    28e4:	00007502 	andeq	r7, r0, r2, lsl #10
    28e8:	0093e814 	addseq	lr, r3, r4, lsl r8
    28ec:	00066000 	andeq	r6, r6, r0
    28f0:	93fc1500 	mvnsls	r1, #0, 10
    28f4:	06670000 	strbteq	r0, [r7], -r0
    28f8:	04b30000 	ldrteq	r0, [r3], #0
    28fc:	01160000 	tsteq	r6, r0
    2900:	94080253 	strls	r0, [r8], #-595	; 0x253
    2904:	05520116 	ldrbeq	r0, [r2, #-278]	; 0x116
    2908:	00a3ac03 	adceq	sl, r3, r3, lsl #24
    290c:	51011600 	tstpl	r1, r0, lsl #12
    2910:	a3cc0305 	bicge	r0, ip, #335544320	; 0x14000000
    2914:	01160000 	tsteq	r6, r0
    2918:	1c030550 	cfstr32ne	mvfx0, [r3], {80}	; 0x50
    291c:	000000a4 	andeq	r0, r0, r4, lsr #1
    2920:	00940014 	addseq	r0, r4, r4, lsl r0
    2924:	00067d00 	andeq	r7, r6, r0, lsl #26
    2928:	94701400 	ldrbtls	r1, [r0], #-1024	; 0x400
    292c:	06600000 	strbteq	r0, [r0], -r0
    2930:	84150000 	ldrhi	r0, [r5], #-0
    2934:	67000094 			; <UNDEFINED> instruction: 0x67000094
    2938:	f4000006 	vst4.8	{d0-d3}, [r0], r6
    293c:	16000004 	strne	r0, [r0], -r4
    2940:	08025301 	stmdaeq	r2, {r0, r8, r9, ip, lr}
    2944:	5201169a 	andpl	r1, r1, #161480704	; 0x9a00000
    2948:	a3ac0305 			; <UNDEFINED> instruction: 0xa3ac0305
    294c:	01160000 	tsteq	r6, r0
    2950:	cc030551 	cfstr32gt	mvfx0, [r3], {81}	; 0x51
    2954:	160000a3 	strne	r0, [r0], -r3, lsr #1
    2958:	03055001 	movweq	r5, #20481	; 0x5001
    295c:	0000a438 	andeq	sl, r0, r8, lsr r4
    2960:	94881400 	strls	r1, [r8], #1024	; 0x400
    2964:	067d0000 	ldrbteq	r0, [sp], -r0
    2968:	ac150000 	ldcge	0, cr0, [r5], {-0}
    296c:	9c000094 	stcls	0, cr0, [r0], {148}	; 0x94
    2970:	2a000001 	bcs	297c <_start-0x5684>
    2974:	16000005 	strne	r0, [r0], -r5
    2978:	08025201 	stmdaeq	r2, {r0, r9, ip, lr}
    297c:	51011680 	smlabbpl	r1, r0, r6, r1
    2980:	7ed09103 	atnvcs	f1, f3
    2984:	01500116 	cmpeq	r0, r6, lsl r1
    2988:	7d02163a 	stcvc	6, cr1, [r2, #-232]	; 0xffffff18
    298c:	16310104 	ldrtne	r0, [r1], -r4, lsl #2
    2990:	02007d02 	andeq	r7, r0, #2, 26	; 0x80
    2994:	15000077 	strne	r0, [r0, #-119]	; 0x77
    2998:	000094d0 	ldrdeq	r9, [r0], -r0
    299c:	0000019c 	muleq	r0, ip, r1
    29a0:	00000558 	andeq	r0, r0, r8, asr r5
    29a4:	02520116 	subseq	r0, r2, #-2147483643	; 0x80000005
    29a8:	01168008 	tsteq	r6, r8
    29ac:	d0910351 	addsle	r0, r1, r1, asr r3
    29b0:	5001167e 	andpl	r1, r1, lr, ror r6
    29b4:	02163a01 	andseq	r3, r6, #4096	; 0x1000
    29b8:	7b02047d 	blvc	83bb4 <__bss_end__+0x791bc>
    29bc:	7d021600 	stcvc	6, cr1, [r2, #-0]
    29c0:	00770200 	rsbseq	r0, r7, r0, lsl #4
    29c4:	94f41500 	ldrbtls	r1, [r4], #1280	; 0x500
    29c8:	019c0000 	orrseq	r0, ip, r0
    29cc:	05860000 	streq	r0, [r6]
    29d0:	01160000 	tsteq	r6, r0
    29d4:	80080252 	andhi	r0, r8, r2, asr r2
    29d8:	03510116 	cmpeq	r1, #-2147483643	; 0x80000005
    29dc:	167ed091 			; <UNDEFINED> instruction: 0x167ed091
    29e0:	40015001 	andmi	r5, r1, r1
    29e4:	047d0216 	ldrbteq	r0, [sp], #-534	; 0x216
    29e8:	16007b02 	strne	r7, [r0], -r2, lsl #22
    29ec:	02007d02 	andeq	r7, r0, #2, 26	; 0x80
    29f0:	15000077 	strne	r0, [r0, #-119]	; 0x77
    29f4:	00009518 	andeq	r9, r0, r8, lsl r5
    29f8:	0000019c 	muleq	r0, ip, r1
    29fc:	000005b4 			; <UNDEFINED> instruction: 0x000005b4
    2a00:	02520116 	subseq	r0, r2, #-2147483643	; 0x80000005
    2a04:	01168008 	tsteq	r6, r8
    2a08:	d0910351 	addsle	r0, r1, r1, asr r3
    2a0c:	5001167e 	andpl	r1, r1, lr, ror r6
    2a10:	02163201 	andseq	r3, r6, #268435456	; 0x10000000
    2a14:	7b02047d 	blvc	83c10 <__bss_end__+0x79218>
    2a18:	7d021600 	stcvc	6, cr1, [r2, #-0]
    2a1c:	00770200 	rsbseq	r0, r7, r0, lsl #4
    2a20:	95481500 	strbls	r1, [r8, #-1280]	; 0x500
    2a24:	019c0000 	orrseq	r0, ip, r0
    2a28:	05e20000 	strbeq	r0, [r2, #0]!
    2a2c:	01160000 	tsteq	r6, r0
    2a30:	80080252 	andhi	r0, r8, r2, asr r2
    2a34:	03510116 	cmpeq	r1, #-2147483643	; 0x80000005
    2a38:	167ed091 			; <UNDEFINED> instruction: 0x167ed091
    2a3c:	38015001 	stmdacc	r1, {r0, ip, lr}
    2a40:	047d0216 	ldrbteq	r0, [sp], #-534	; 0x216
    2a44:	16007b02 	strne	r7, [r0], -r2, lsl #22
    2a48:	02007d02 	andeq	r7, r0, #2, 26	; 0x80
    2a4c:	14000077 	strne	r0, [r0], #-119	; 0x77
    2a50:	00009550 	andeq	r9, r0, r0, asr r5
    2a54:	00000660 	andeq	r0, r0, r0, ror #12
    2a58:	00956c15 	addseq	r6, r5, r5, lsl ip
    2a5c:	00066700 	andeq	r6, r6, r0, lsl #14
    2a60:	00061a00 	andeq	r1, r6, r0, lsl #20
    2a64:	53011600 	movwpl	r1, #5632	; 0x1600
    2a68:	16bb0802 	ldrtne	r0, [fp], r2, lsl #16
    2a6c:	03055201 	movweq	r5, #20993	; 0x5201
    2a70:	0000a3ac 	andeq	sl, r0, ip, lsr #7
    2a74:	05510116 	ldrbeq	r0, [r1, #-278]	; 0x116
    2a78:	00a3cc03 	adceq	ip, r3, r3, lsl #24
    2a7c:	50011600 	andpl	r1, r1, r0, lsl #12
    2a80:	a4600305 	strbtge	r0, [r0], #-773	; 0x305
    2a84:	14000000 	strne	r0, [r0], #-0
    2a88:	00009570 	andeq	r9, r0, r0, ror r5
    2a8c:	0000067d 	andeq	r0, r0, sp, ror r6
    2a90:	7a180000 	bvc	602a98 <__bss_end__+0x5f80a0>
    2a94:	35000000 	strcc	r0, [r0, #-0]
    2a98:	19000006 	stmdbne	r0, {r1, r2}
    2a9c:	0000006b 	andeq	r0, r0, fp, rrx
    2aa0:	25060009 	strcs	r0, [r6, #-9]
    2aa4:	18000006 	stmdane	r0, {r1, r2}
    2aa8:	0000007a 	andeq	r0, r0, sl, ror r0
    2aac:	0000064a 	andeq	r0, r0, sl, asr #12
    2ab0:	00006b19 	andeq	r6, r0, r9, lsl fp
    2ab4:	1f007f00 	svcne	0x00007f00
    2ab8:	00000533 	andeq	r0, r0, r3, lsr r5
    2abc:	038b1d03 	orreq	r1, fp, #3, 26	; 0xc0
    2ac0:	701f0000 	andsvc	r0, pc, r0
    2ac4:	03000005 	movweq	r0, #5
    2ac8:	0003a022 	andeq	sl, r3, r2, lsr #32
    2acc:	02432000 	subeq	r2, r3, #0
    2ad0:	1e030000 	cdpne	0, 0, cr0, cr3, cr0, {0}
    2ad4:	00050221 	andeq	r0, r5, r1, lsr #4
    2ad8:	25290300 	strcs	r0, [r9, #-768]!	; 0x300
    2adc:	7d000000 	stcvc	0, cr0, [r0, #-0]
    2ae0:	1c000006 	stcne	0, cr0, [r0], {6}
    2ae4:	00000081 	andeq	r0, r0, r1, lsl #1
    2ae8:	7a200022 	bvc	802b78 <__bss_end__+0x7f8180>
    2aec:	03000002 	movweq	r0, #2
    2af0:	00ff0065 	rscseq	r0, pc, r5, rrx
    2af4:	00040000 	andeq	r0, r4, r0
    2af8:	00000c53 	andeq	r0, r0, r3, asr ip
    2afc:	00760104 	rsbseq	r0, r6, r4, lsl #2
    2b00:	cf010000 	svcgt	0x00010000
    2b04:	8e000005 	cdphi	0, 0, cr0, cr0, cr5, {0}
    2b08:	d8000004 	stmdale	r0, {r2}
    2b0c:	28000095 	stmdacs	r0, {r0, r2, r4, r7}
    2b10:	51000000 	mrspl	r0, (UNDEF: 0)
    2b14:	0200000c 	andeq	r0, r0, #12
    2b18:	6e690504 	cdpvs	5, 6, cr0, cr9, cr4, {0}
    2b1c:	04030074 	streq	r0, [r3], #-116	; 0x74
    2b20:	00013707 	andeq	r3, r1, r7, lsl #14
    2b24:	06010300 	streq	r0, [r1], -r0, lsl #6
    2b28:	000000e5 	andeq	r0, r0, r5, ror #1
    2b2c:	64050203 	strvs	r0, [r5], #-515	; 0x203
    2b30:	03000001 	movweq	r0, #1
    2b34:	015b0504 	cmpeq	fp, r4, lsl #10
    2b38:	08030000 	stmdaeq	r3, {}	; <UNPREDICTABLE>
    2b3c:	00015605 	andeq	r5, r1, r5, lsl #12
    2b40:	08010300 	stmdaeq	r1, {r8, r9}
    2b44:	000000e3 	andeq	r0, r0, r3, ror #1
    2b48:	f1070203 			; <UNDEFINED> instruction: 0xf1070203
    2b4c:	03000000 	movweq	r0, #0
    2b50:	01320704 	teqeq	r2, r4, lsl #14
    2b54:	08030000 	stmdaeq	r3, {}	; <UNPREDICTABLE>
    2b58:	00012d07 	andeq	r2, r1, r7, lsl #26
    2b5c:	07040300 	streq	r0, [r4, -r0, lsl #6]
    2b60:	0000014d 	andeq	r0, r0, sp, asr #2
    2b64:	ec080103 	stfs	f0, [r8], {3}
    2b68:	04000000 	streq	r0, [r0], #-0
    2b6c:	00007f04 	andeq	r7, r0, r4, lsl #30
    2b70:	00720500 	rsbseq	r0, r2, r0, lsl #10
    2b74:	7a060000 	bvc	182b7c <__bss_end__+0x178184>
    2b78:	01000002 	tsteq	r0, r2
    2b7c:	0095d804 	addseq	sp, r5, r4, lsl #16
    2b80:	00002800 	andeq	r2, r0, r0, lsl #16
    2b84:	ca9c0100 	bgt	fe702f8c <__bss_end__+0xfe6f8594>
    2b88:	07000000 	streq	r0, [r0, -r0]
    2b8c:	000095ec 	andeq	r9, r0, ip, ror #11
    2b90:	000000ac 	andeq	r0, r0, ip, lsr #1
    2b94:	05500108 	ldrbeq	r0, [r0, #-264]	; 0x108
    2b98:	00a49803 	adceq	r9, r4, r3, lsl #16
    2b9c:	f4090000 	vst4.8	{d0-d3}, [r9], r0
    2ba0:	ea000095 	b	2dfc <_start-0x5204>
    2ba4:	c0000000 	andgt	r0, r0, r0
    2ba8:	08000000 	stmdaeq	r0, {}	; <UNPREDICTABLE>
    2bac:	08025001 	stmdaeq	r2, {r0, ip, lr}
    2bb0:	f80a0064 			; <UNDEFINED> instruction: 0xf80a0064
    2bb4:	fb000095 	blx	2e12 <_start-0x51ee>
    2bb8:	00000000 	andeq	r0, r0, r0
    2bbc:	0000250b 	andeq	r2, r0, fp, lsl #10
    2bc0:	0000d900 	andeq	sp, r0, r0, lsl #18
    2bc4:	00790c00 	rsbseq	r0, r9, r0, lsl #24
    2bc8:	0d000000 	stceq	0, cr0, [r0, #-0]
    2bcc:	00000570 	andeq	r0, r0, r0, ror r5
    2bd0:	00e42202 	rsceq	r2, r4, r2, lsl #4
    2bd4:	04040000 	streq	r0, [r4], #-0
    2bd8:	000000ca 	andeq	r0, r0, sl, asr #1
    2bdc:	0005f30e 	andeq	pc, r5, lr, lsl #6
    2be0:	fb4f0200 	blx	13c33ea <__bss_end__+0x13b89f2>
    2be4:	0c000000 	stceq	0, cr0, [r0], {-0}
    2be8:	0000002c 	andeq	r0, r0, ip, lsr #32
    2bec:	05e80f00 	strbeq	r0, [r8, #3840]!	; 0xf00
    2bf0:	62020000 	andvs	r0, r2, #0
    2bf4:	0000ff00 	andeq	pc, r0, r0, lsl #30
    2bf8:	1d000400 	cfstrsne	mvf0, [r0, #-0]
    2bfc:	0400000d 	streq	r0, [r0], #-13
    2c00:	00007601 	andeq	r7, r0, r1, lsl #12
    2c04:	060c0100 	streq	r0, [ip], -r0, lsl #2
    2c08:	048e0000 	streq	r0, [lr], #0
    2c0c:	96000000 	strls	r0, [r0], -r0
    2c10:	00340000 	eorseq	r0, r4, r0
    2c14:	0cf10000 	ldcleq	0, cr0, [r1]
    2c18:	04020000 	streq	r0, [r2], #-0
    2c1c:	746e6905 	strbtvc	r6, [lr], #-2309	; 0x905
    2c20:	07040300 	streq	r0, [r4, -r0, lsl #6]
    2c24:	00000137 	andeq	r0, r0, r7, lsr r1
    2c28:	e5060103 	str	r0, [r6, #-259]	; 0x103
    2c2c:	03000000 	movweq	r0, #0
    2c30:	01640502 	cmneq	r4, r2, lsl #10
    2c34:	04030000 	streq	r0, [r3], #-0
    2c38:	00015b05 	andeq	r5, r1, r5, lsl #22
    2c3c:	05080300 	streq	r0, [r8, #-768]	; 0x300
    2c40:	00000156 	andeq	r0, r0, r6, asr r1
    2c44:	e3080103 	movw	r0, #33027	; 0x8103
    2c48:	03000000 	movweq	r0, #0
    2c4c:	00f10702 	rscseq	r0, r1, r2, lsl #14
    2c50:	04030000 	streq	r0, [r3], #-0
    2c54:	00013207 	andeq	r3, r1, r7, lsl #4
    2c58:	07080300 	streq	r0, [r8, -r0, lsl #6]
    2c5c:	0000012d 	andeq	r0, r0, sp, lsr #2
    2c60:	4d070403 	cfstrsmi	mvf0, [r7, #-12]
    2c64:	03000001 	movweq	r0, #1
    2c68:	00ec0801 	rsceq	r0, ip, r1, lsl #16
    2c6c:	04040000 	streq	r0, [r4], #-0
    2c70:	01000006 	tsteq	r0, r6
    2c74:	0096000d 	addseq	r0, r6, sp
    2c78:	00003400 	andeq	r3, r0, r0, lsl #8
    2c7c:	d89c0100 	ldmle	ip, {r8}
    2c80:	05000000 	streq	r0, [r0, #-0]
    2c84:	0000040d 	andeq	r0, r0, sp, lsl #8
    2c88:	00250e01 	eoreq	r0, r5, r1, lsl #28
    2c8c:	1b050000 	blne	142c94 <__bss_end__+0x13829c>
    2c90:	01000004 	tsteq	r0, r4
    2c94:	0000250e 	andeq	r2, r0, lr, lsl #10
    2c98:	00cd0600 	sbceq	r0, sp, r0, lsl #12
    2c9c:	0f010000 	svceq	0x00010000
    2ca0:	73736207 	cmnvc	r3, #1879048192	; 0x70000000
    2ca4:	d8110100 	ldmdale	r1, {r8}
    2ca8:	3f000000 	svccc	0x00000000
    2cac:	08000013 	stmdaeq	r0, {r0, r1, r4}
    2cb0:	000005fc 	strdeq	r0, [r0], -ip
    2cb4:	00d81201 	sbcseq	r1, r8, r1, lsl #4
    2cb8:	28090000 	stmdacs	r9, {}	; <UNPREDICTABLE>
    2cbc:	f4000096 	vst4.32	{d0-d3}, [r0 :64], r6
    2cc0:	09000000 	stmdbeq	r0, {}	; <UNPREDICTABLE>
    2cc4:	0000962c 	andeq	r9, r0, ip, lsr #12
    2cc8:	000000fb 	strdeq	r0, [r0], -fp
    2ccc:	25040a00 	strcs	r0, [r4, #-2560]	; 0xa00
    2cd0:	05000000 	streq	r0, [r0, #-0]
    2cd4:	0000040d 	andeq	r0, r0, sp, lsl #8
    2cd8:	00250e01 	eoreq	r0, r5, r1, lsl #28
    2cdc:	1b050000 	blne	142ce4 <__bss_end__+0x1382ec>
    2ce0:	01000004 	tsteq	r0, r4
    2ce4:	0000250e 	andeq	r2, r0, lr, lsl #10
    2ce8:	00cd0600 	sbceq	r0, sp, r0, lsl #12
    2cec:	d7020000 	strle	r0, [r2, -r0]
    2cf0:	00027a06 	andeq	r7, r2, r6, lsl #20
    2cf4:	00650200 	rsbeq	r0, r5, r0, lsl #4
    2cf8:	000001ad 	andeq	r0, r0, sp, lsr #3
    2cfc:	0db10004 	ldceq	0, cr0, [r1, #16]!
    2d00:	01040000 	mrseq	r0, (UNDEF: 4)
    2d04:	00000076 	andeq	r0, r0, r6, ror r0
    2d08:	00062d01 	andeq	r2, r6, r1, lsl #26
    2d0c:	00048e00 	andeq	r8, r4, r0, lsl #28
    2d10:	00006000 	andeq	r6, r0, r0
    2d14:	00000000 	andeq	r0, r0, r0
    2d18:	000d9800 	andeq	r9, sp, r0, lsl #16
    2d1c:	05040200 	streq	r0, [r4, #-512]	; 0x200
    2d20:	00746e69 	rsbseq	r6, r4, r9, ror #28
    2d24:	37070403 	strcc	r0, [r7, -r3, lsl #8]
    2d28:	03000001 	movweq	r0, #1
    2d2c:	00e50601 	rsceq	r0, r5, r1, lsl #12
    2d30:	02030000 	andeq	r0, r3, #0
    2d34:	00016405 	andeq	r6, r1, r5, lsl #8
    2d38:	05040300 	streq	r0, [r4, #-768]	; 0x300
    2d3c:	0000015b 	andeq	r0, r0, fp, asr r1
    2d40:	56050803 	strpl	r0, [r5], -r3, lsl #16
    2d44:	03000001 	movweq	r0, #1
    2d48:	00e30801 	rsceq	r0, r3, r1, lsl #16
    2d4c:	02030000 	andeq	r0, r3, #0
    2d50:	0000f107 	andeq	pc, r0, r7, lsl #2
    2d54:	07040300 	streq	r0, [r4, -r0, lsl #6]
    2d58:	00000132 	andeq	r0, r0, r2, lsr r1
    2d5c:	2d070803 	stccs	8, cr0, [r7, #-12]
    2d60:	03000001 	movweq	r0, #1
    2d64:	014d0704 	cmpeq	sp, r4, lsl #14
    2d68:	01030000 	mrseq	r0, (UNDEF: 3)
    2d6c:	0000ec08 	andeq	lr, r0, r8, lsl #24
    2d70:	061f0400 	ldreq	r0, [pc], -r0, lsl #8
    2d74:	0e010000 	cdpeq	0, 0, cr0, cr1, cr0, {0}
    2d78:	00000025 	andeq	r0, r0, r5, lsr #32
    2d7c:	00009634 	andeq	r9, r0, r4, lsr r6
    2d80:	00000018 	andeq	r0, r0, r8, lsl r0
    2d84:	00a29c01 	adceq	r9, r2, r1, lsl #24
    2d88:	8a050000 	bhi	142d90 <__bss_end__+0x138398>
    2d8c:	01000006 	tsteq	r0, r6
    2d90:	00002c0f 	andeq	r2, r0, pc, lsl #24
    2d94:	00135f00 	andseq	r5, r3, r0, lsl #30
    2d98:	61060000 	mrsvs	r0, (UNDEF: 6)
    2d9c:	01000006 	tsteq	r0, r6
    2da0:	00964c17 	addseq	r4, r6, r7, lsl ip
    2da4:	00001400 	andeq	r1, r0, r0, lsl #8
    2da8:	c79c0100 	ldrgt	r0, [ip, r0, lsl #2]
    2dac:	05000000 	streq	r0, [r0, #-0]
    2db0:	0000068a 	andeq	r0, r0, sl, lsl #13
    2db4:	002c1801 	eoreq	r1, ip, r1, lsl #16
    2db8:	137e0000 	cmnne	lr, #0
    2dbc:	06000000 	streq	r0, [r0], -r0
    2dc0:	000005e8 	andeq	r0, r0, r8, ror #11
    2dc4:	96601f01 	strbtls	r1, [r0], -r1, lsl #30
    2dc8:	00480000 	subeq	r0, r8, r0
    2dcc:	9c010000 	stcls	0, cr0, [r1], {-0}
    2dd0:	00000177 	andeq	r0, r0, r7, ror r1
    2dd4:	00068207 	andeq	r8, r6, r7, lsl #4
    2dd8:	772a0100 	strvc	r0, [sl, -r0, lsl #2]!
    2ddc:	1c000001 	stcne	0, cr0, [r0], {1}
    2de0:	07201000 	streq	r1, [r0, -r0]!
    2de4:	00000659 	andeq	r0, r0, r9, asr r6
    2de8:	01772b01 	cmneq	r7, r1, lsl #22
    2dec:	00240000 	eoreq	r0, r4, r0
    2df0:	76072010 			; <UNDEFINED> instruction: 0x76072010
    2df4:	01000006 	tsteq	r0, r6
    2df8:	0001772c 	andeq	r7, r1, ip, lsr #14
    2dfc:	00000000 	andeq	r0, r0, r0
    2e00:	0640085a 			; <UNDEFINED> instruction: 0x0640085a
    2e04:	2d010000 	stccs	0, cr0, [r1, #-0]
    2e08:	00000177 	andeq	r0, r0, r7, ror r1
    2e0c:	96680920 	strbtls	r0, [r8], -r0, lsr #18
    2e10:	00790000 	rsbseq	r0, r9, r0
    2e14:	74090000 	strvc	r0, [r9], #-0
    2e18:	a2000096 	andge	r0, r0, #150	; 0x96
    2e1c:	0a000000 	beq	2e24 <_start-0x51dc>
    2e20:	0000967c 	andeq	r9, r0, ip, ror r6
    2e24:	0000018d 	andeq	r0, r0, sp, lsl #3
    2e28:	0000013a 	andeq	r0, r0, sl, lsr r1
    2e2c:	0150010b 	cmpeq	r0, fp, lsl #2
    2e30:	880a004e 	stmdahi	sl, {r1, r2, r3, r6}
    2e34:	9e000096 	mcrls	0, 0, r0, cr0, cr6, {4}
    2e38:	5a000001 	bpl	2e44 <_start-0x51bc>
    2e3c:	0b000001 	bleq	2e48 <_start-0x51b8>
    2e40:	0c055101 	stfeqs	f5, [r5], {1}
    2e44:	5a000001 	bpl	2e50 <_start-0x51b0>
    2e48:	0550010b 	ldrbeq	r0, [r0, #-267]	; 0x10b
    2e4c:	1000240c 	andne	r2, r0, ip, lsl #8
    2e50:	940c0020 	strls	r0, [ip], #-32
    2e54:	9e000096 	mcrls	0, 0, r0, cr0, cr6, {4}
    2e58:	0b000001 	bleq	2e64 <_start-0x519c>
    2e5c:	0c055101 	stfeqs	f5, [r5], {1}
    2e60:	5a000020 	bpl	2ee8 <_start-0x5118>
    2e64:	0550010b 	ldrbeq	r0, [r0, #-267]	; 0x10b
    2e68:	10001c0c 	andne	r1, r0, ip, lsl #24
    2e6c:	0d000020 	stceq	0, cr0, [r0, #-128]	; 0xffffff80
    2e70:	00000025 	andeq	r0, r0, r5, lsr #32
    2e74:	00062208 	andeq	r2, r6, r8, lsl #4
    2e78:	880d0100 	stmdahi	sp, {r8}
    2e7c:	10000001 	andne	r0, r0, r1
    2e80:	00002c0d 	andeq	r2, r0, sp, lsl #24
    2e84:	05f30e00 	ldrbeq	r0, [r3, #3584]!	; 0xe00
    2e88:	4f020000 	svcmi	0x00020000
    2e8c:	0000019e 	muleq	r0, lr, r1
    2e90:	00002c0f 	andeq	r2, r0, pc, lsl #24
    2e94:	70100000 	andsvc	r0, r0, r0
    2e98:	02000006 	andeq	r0, r0, #6
    2e9c:	002c0f9b 	mlaeq	ip, fp, pc, r0	; <UNPREDICTABLE>
    2ea0:	2c0f0000 	stccs	0, cr0, [pc], {-0}
    2ea4:	00000000 	andeq	r0, r0, r0
    2ea8:	0001d800 	andeq	sp, r1, r0, lsl #16
    2eac:	9f000400 	svcls	0x00000400
    2eb0:	0400000e 	streq	r0, [r0], #-14
    2eb4:	00007601 	andeq	r7, r0, r1, lsl #12
    2eb8:	06ac0100 	strteq	r0, [ip], r0, lsl #2
    2ebc:	048e0000 	streq	r0, [lr], #0
    2ec0:	96a80000 	strtls	r0, [r8], r0
    2ec4:	00880000 	addeq	r0, r8, r0
    2ec8:	0e3e0000 	cdpeq	0, 3, cr0, cr14, cr0, {0}
    2ecc:	04020000 	streq	r0, [r2], #-0
    2ed0:	746e6905 	strbtvc	r6, [lr], #-2309	; 0x905
    2ed4:	07040300 	streq	r0, [r4, -r0, lsl #6]
    2ed8:	00000137 	andeq	r0, r0, r7, lsr r1
    2edc:	e5060103 	str	r0, [r6, #-259]	; 0x103
    2ee0:	03000000 	movweq	r0, #0
    2ee4:	01640502 	cmneq	r4, r2, lsl #10
    2ee8:	04030000 	streq	r0, [r3], #-0
    2eec:	00015b05 	andeq	r5, r1, r5, lsl #22
    2ef0:	05080300 	streq	r0, [r8, #-768]	; 0x300
    2ef4:	00000156 	andeq	r0, r0, r6, asr r1
    2ef8:	e3080103 	movw	r0, #33027	; 0x8103
    2efc:	03000000 	movweq	r0, #0
    2f00:	00f10702 	rscseq	r0, r1, r2, lsl #14
    2f04:	04030000 	streq	r0, [r3], #-0
    2f08:	00013207 	andeq	r3, r1, r7, lsl #4
    2f0c:	07080300 	streq	r0, [r8, -r0, lsl #6]
    2f10:	0000012d 	andeq	r0, r0, sp, lsr #2
    2f14:	4d070403 	cfstrsmi	mvf0, [r7, #-12]
    2f18:	03000001 	movweq	r0, #1
    2f1c:	00ec0801 	rsceq	r0, ip, r1, lsl #16
    2f20:	ca040000 	bgt	102f28 <__bss_end__+0xf8530>
    2f24:	01000006 	tsteq	r0, r6
    2f28:	0096a805 	addseq	sl, r6, r5, lsl #16
    2f2c:	00001c00 	andeq	r1, r0, r0, lsl #24
    2f30:	9e9c0100 	fmllse	f0, f4, f0
    2f34:	05000000 	streq	r0, [r0, #-0]
    2f38:	000006c4 	andeq	r0, r0, r4, asr #13
    2f3c:	002c0501 	eoreq	r0, ip, r1, lsl #10
    2f40:	13a80000 			; <UNDEFINED> instruction: 0x13a80000
    2f44:	06000000 	streq	r0, [r0], -r0
    2f48:	0000068f 	andeq	r0, r0, pc, lsl #13
    2f4c:	002c1101 	eoreq	r1, ip, r1, lsl #2
    2f50:	96c40000 	strbls	r0, [r4], r0
    2f54:	00140000 	andseq	r0, r4, r0
    2f58:	9c010000 	stcls	0, cr0, [r1], {-0}
    2f5c:	000000cb 	andeq	r0, r0, fp, asr #1
    2f60:	0096d007 	addseq	sp, r6, r7
    2f64:	0001ca00 	andeq	ip, r1, r0, lsl #20
    2f68:	50010800 	andpl	r0, r1, r0, lsl #16
    2f6c:	30040c05 	andcc	r0, r4, r5, lsl #24
    2f70:	00002000 	andeq	r2, r0, r0
    2f74:	0006e006 	andeq	lr, r6, r6
    2f78:	2c160100 	ldfcss	f0, [r6], {-0}
    2f7c:	d8000000 	stmdale	r0, {}	; <UNPREDICTABLE>
    2f80:	0c000096 	stceq	0, cr0, [r0], {150}	; 0x96
    2f84:	01000000 	mrseq	r0, (UNDEF: 0)
    2f88:	0000f99c 	muleq	r0, ip, r9
    2f8c:	00750900 	rsbseq	r0, r5, r0, lsl #18
    2f90:	002c1a01 	eoreq	r1, ip, r1, lsl #20
    2f94:	50010000 	andpl	r0, r1, r0
    2f98:	0096e00a 	addseq	lr, r6, sl
    2f9c:	00009e00 	andeq	r9, r0, r0, lsl #28
    2fa0:	d7040000 	strle	r0, [r4, -r0]
    2fa4:	01000006 	tsteq	r0, r6
    2fa8:	0096e41f 	addseq	lr, r6, pc, lsl r4
    2fac:	00002400 	andeq	r2, r0, r0, lsl #8
    2fb0:	579c0100 	ldrpl	r0, [ip, r0, lsl #2]
    2fb4:	0b000001 	bleq	2fc0 <_start-0x5040>
    2fb8:	01007375 	tsteq	r0, r5, ror r3
    2fbc:	00002c1f 	andeq	r2, r0, pc, lsl ip
    2fc0:	0013dc00 	andseq	sp, r3, r0, lsl #24
    2fc4:	62720900 	rsbsvs	r0, r2, #0, 18
    2fc8:	2c200100 	stfcss	f0, [r0], #-0
    2fcc:	01000000 	mrseq	r0, (UNDEF: 0)
    2fd0:	96f40c54 	usatls	r0, #20, r4, asr #24
    2fd4:	00100000 	andseq	r0, r0, r0
    2fd8:	014d0000 	mrseq	r0, (UNDEF: 77)
    2fdc:	720d0000 	andvc	r0, sp, #0
    2fe0:	22010061 	andcs	r0, r1, #97	; 0x61
    2fe4:	0000002c 	andeq	r0, r0, ip, lsr #32
    2fe8:	000013fa 	strdeq	r1, [r0], -sl
    2fec:	0096f80a 	addseq	pc, r6, sl, lsl #16
    2ff0:	0000cb00 	andeq	ip, r0, r0, lsl #22
    2ff4:	f00a0000 			; <UNDEFINED> instruction: 0xf00a0000
    2ff8:	cb000096 	blgt	3258 <_start-0x4da8>
    2ffc:	00000000 	andeq	r0, r0, r0
    3000:	0005f304 	andeq	pc, r5, r4, lsl #6
    3004:	08280100 	stmdaeq	r8!, {r8}
    3008:	14000097 	strne	r0, [r0], #-151	; 0x97
    300c:	01000000 	mrseq	r0, (UNDEF: 0)
    3010:	0001909c 	muleq	r1, ip, r0
    3014:	736d0b00 	cmnvc	sp, #0, 22
    3018:	2c280100 	stfcss	f0, [r8], #-0
    301c:	0d000000 	stceq	0, cr0, [r0, #-0]
    3020:	07000014 	smladeq	r0, r4, r0, r0
    3024:	00009718 	andeq	r9, r0, r8, lsl r7
    3028:	000000f9 	strdeq	r0, [r0], -r9
    302c:	07500108 	ldrbeq	r0, [r0, -r8, lsl #2]
    3030:	0a5001f3 	beq	1403804 <__bss_end__+0x13f8e0c>
    3034:	001e03e8 	andseq	r0, lr, r8, ror #7
    3038:	06a20400 	strteq	r0, [r2], r0, lsl #8
    303c:	2b010000 	blcs	43044 <__bss_end__+0x3864c>
    3040:	0000971c 	andeq	r9, r0, ip, lsl r7
    3044:	00000014 	andeq	r0, r0, r4, lsl r0
    3048:	01ca9c01 	biceq	r9, sl, r1, lsl #24
    304c:	730b0000 	movwvc	r0, #45056	; 0xb000
    3050:	01006365 	tsteq	r0, r5, ror #6
    3054:	00002c2b 	andeq	r2, r0, fp, lsr #24
    3058:	00142e00 	andseq	r2, r4, r0, lsl #28
    305c:	972c0700 	strls	r0, [ip, -r0, lsl #14]!
    3060:	01570000 	cmpeq	r7, r0
    3064:	01080000 	mrseq	r0, (UNDEF: 8)
    3068:	01f30750 	mvnseq	r0, r0, asr r7
    306c:	03e80a50 	mvneq	r0, #80, 20	; 0x50000
    3070:	0e00001e 	mcreq	0, 0, r0, cr0, cr14, {0}
    3074:	000006be 			; <UNDEFINED> instruction: 0x000006be
    3078:	002ca702 	eoreq	sl, ip, r2, lsl #14
    307c:	2c0f0000 	stccs	0, cr0, [pc], {-0}
    3080:	00000000 	andeq	r0, r0, r0
    3084:	000cc500 	andeq	ip, ip, r0, lsl #10
    3088:	82000400 	andhi	r0, r0, #0, 8
    308c:	0400000f 	streq	r0, [r0], #-15
    3090:	000a9701 	andeq	r9, sl, r1, lsl #14
    3094:	07ee0c00 	strbeq	r0, [lr, r0, lsl #24]!
    3098:	08090000 	stmdaeq	r9, {}	; <UNPREDICTABLE>
    309c:	977c0000 	ldrbls	r0, [ip, -r0]!
    30a0:	01780000 	cmneq	r8, r0
    30a4:	0eee0000 	cdpeq	0, 14, cr0, cr14, cr0, {0}
    30a8:	04020000 	streq	r0, [r2], #-0
    30ac:	746e6905 	strbtvc	r6, [lr], #-2309	; 0x905
    30b0:	07040300 	streq	r0, [r4, -r0, lsl #6]
    30b4:	00000137 	andeq	r0, r0, r7, lsr r1
    30b8:	00002c04 	andeq	r2, r0, r4, lsl #24
    30bc:	06010300 	streq	r0, [r1], -r0, lsl #6
    30c0:	000000e5 	andeq	r0, r0, r5, ror #1
    30c4:	64050203 	strvs	r0, [r5], #-515	; 0x203
    30c8:	03000001 	movweq	r0, #1
    30cc:	015b0504 	cmpeq	fp, r4, lsl #10
    30d0:	08030000 	stmdaeq	r3, {}	; <UNPREDICTABLE>
    30d4:	00015605 	andeq	r5, r1, r5, lsl #12
    30d8:	08010300 	stmdaeq	r1, {r8, r9}
    30dc:	000000e3 	andeq	r0, r0, r3, ror #1
    30e0:	f1070203 			; <UNDEFINED> instruction: 0xf1070203
    30e4:	03000000 	movweq	r0, #0
    30e8:	01320704 	teqeq	r2, r4, lsl #14
    30ec:	08030000 	stmdaeq	r3, {}	; <UNPREDICTABLE>
    30f0:	00012d07 	andeq	r2, r1, r7, lsl #26
    30f4:	09ac0500 	stmibeq	ip!, {r8, sl}
    30f8:	07020000 	streq	r0, [r2, -r0]
    30fc:	00000025 	andeq	r0, r0, r5, lsr #32
    3100:	00099605 	andeq	r9, r9, r5, lsl #12
    3104:	462c0300 	strtmi	r0, [ip], -r0, lsl #6
    3108:	05000000 	streq	r0, [r0, #-0]
    310c:	00000a72 	andeq	r0, r0, r2, ror sl
    3110:	00467203 	subeq	r7, r6, r3, lsl #4
    3114:	3a060000 	bcc	18311c <__bss_end__+0x178724>
    3118:	04000009 	streq	r0, [r0], #-9
    311c:	002c0165 	eoreq	r0, ip, r5, ror #2
    3120:	04070000 	streq	r0, [r7], #-0
    3124:	00bca603 	adcseq	sl, ip, r3, lsl #12
    3128:	25080000 	strcs	r0, [r8, #-0]
    312c:	03000009 	movweq	r0, #9
    3130:	000091a8 	andeq	r9, r0, r8, lsr #3
    3134:	08c10800 	stmiaeq	r1, {fp}^
    3138:	a9030000 	stmdbge	r3, {}	; <UNPREDICTABLE>
    313c:	000000bc 	strheq	r0, [r0], -ip
    3140:	00540900 	subseq	r0, r4, r0, lsl #18
    3144:	00cc0000 	sbceq	r0, ip, r0
    3148:	cc0a0000 	stcgt	0, cr0, [sl], {-0}
    314c:	03000000 	movweq	r0, #0
    3150:	07040300 	streq	r0, [r4, -r0, lsl #6]
    3154:	0000014d 	andeq	r0, r0, sp, asr #2
    3158:	a303080b 	movwge	r0, #14347	; 0x380b
    315c:	000000f4 	strdeq	r0, [r0], -r4
    3160:	000a570c 	andeq	r5, sl, ip, lsl #14
    3164:	25a50300 	strcs	r0, [r5, #768]!	; 0x300
    3168:	00000000 	andeq	r0, r0, r0
    316c:	000a5f0c 	andeq	r5, sl, ip, lsl #30
    3170:	9daa0300 	stcls	3, cr0, [sl]
    3174:	04000000 	streq	r0, [r0], #-0
    3178:	09ea0500 	stmibeq	sl!, {r8, sl}^
    317c:	ab030000 	blge	c3184 <__bss_end__+0xb878c>
    3180:	000000d3 	ldrdeq	r0, [r0], -r3
    3184:	00088a05 	andeq	r8, r8, r5, lsl #20
    3188:	70af0300 	adcvc	r0, pc, r0, lsl #6
    318c:	0d000000 	stceq	0, cr0, [r0, #-0]
    3190:	12040e04 	andne	r0, r4, #4, 28	; 0x40
    3194:	03000001 	movweq	r0, #1
    3198:	00ec0801 	rsceq	r0, ip, r1, lsl #16
    319c:	120f0000 	andne	r0, pc, #0
    31a0:	05000001 	streq	r0, [r0, #-1]
    31a4:	00000b14 	andeq	r0, r0, r4, lsl fp
    31a8:	00621605 	rsbeq	r1, r2, r5, lsl #12
    31ac:	9b100000 	blls	4031b4 <__bss_end__+0x3f87bc>
    31b0:	18000008 	stmdane	r0, {r3}
    31b4:	017c2d05 	cmneq	ip, r5, lsl #26
    31b8:	0b0c0000 	bleq	3031c0 <__bss_end__+0x2f87c8>
    31bc:	0500000a 	streq	r0, [r0, #-10]
    31c0:	00017c2f 	andeq	r7, r1, pc, lsr #24
    31c4:	5f110000 	svcpl	0x00110000
    31c8:	3005006b 	andcc	r0, r5, fp, rrx
    31cc:	00000025 	andeq	r0, r0, r5, lsr #32
    31d0:	0a420c04 	beq	10861e8 <__bss_end__+0x107b7f0>
    31d4:	30050000 	andcc	r0, r5, r0
    31d8:	00000025 	andeq	r0, r0, r5, lsr #32
    31dc:	08760c08 	ldmdaeq	r6!, {r3, sl, fp}^
    31e0:	30050000 	andcc	r0, r5, r0
    31e4:	00000025 	andeq	r0, r0, r5, lsr #32
    31e8:	0b5b0c0c 	bleq	16c6220 <__bss_end__+0x16bb828>
    31ec:	30050000 	andcc	r0, r5, r0
    31f0:	00000025 	andeq	r0, r0, r5, lsr #32
    31f4:	785f1110 	ldmdavc	pc, {r4, r8, ip}^	; <UNPREDICTABLE>
    31f8:	82310500 	eorshi	r0, r1, #0, 10
    31fc:	14000001 	strne	r0, [r0], #-1
    3200:	29040e00 	stmdbcs	r4, {r9, sl, fp}
    3204:	09000001 	stmdbeq	r0, {r0}
    3208:	0000011e 	andeq	r0, r0, lr, lsl r1
    320c:	00000192 	muleq	r0, r2, r1
    3210:	0000cc0a 	andeq	ip, r0, sl, lsl #24
    3214:	10000000 	andne	r0, r0, r0
    3218:	000008bc 			; <UNDEFINED> instruction: 0x000008bc
    321c:	0b350524 	bleq	d446b4 <__bss_end__+0xd39cbc>
    3220:	0c000002 	stceq	0, cr0, [r0], {2}
    3224:	00000774 	andeq	r0, r0, r4, ror r7
    3228:	00253705 	eoreq	r3, r5, r5, lsl #14
    322c:	0c000000 	stceq	0, cr0, [r0], {-0}
    3230:	00000a7a 	andeq	r0, r0, sl, ror sl
    3234:	00253805 	eoreq	r3, r5, r5, lsl #16
    3238:	0c040000 	stceq	0, cr0, [r4], {-0}
    323c:	000007a2 	andeq	r0, r0, r2, lsr #15
    3240:	00253905 	eoreq	r3, r5, r5, lsl #18
    3244:	0c080000 	stceq	0, cr0, [r8], {-0}
    3248:	00000c4b 	andeq	r0, r0, fp, asr #24
    324c:	00253a05 	eoreq	r3, r5, r5, lsl #20
    3250:	0c0c0000 	stceq	0, cr0, [ip], {-0}
    3254:	0000097a 	andeq	r0, r0, sl, ror r9
    3258:	00253b05 	eoreq	r3, r5, r5, lsl #22
    325c:	0c100000 	ldceq	0, cr0, [r0], {-0}
    3260:	0000094f 	andeq	r0, r0, pc, asr #18
    3264:	00253c05 	eoreq	r3, r5, r5, lsl #24
    3268:	0c140000 	ldceq	0, cr0, [r4], {-0}
    326c:	00000b60 	andeq	r0, r0, r0, ror #22
    3270:	00253d05 	eoreq	r3, r5, r5, lsl #26
    3274:	0c180000 	ldceq	0, cr0, [r8], {-0}
    3278:	000009cc 	andeq	r0, r0, ip, asr #19
    327c:	00253e05 	eoreq	r3, r5, r5, lsl #28
    3280:	0c1c0000 	ldceq	0, cr0, [ip], {-0}
    3284:	00000c12 	andeq	r0, r0, r2, lsl ip
    3288:	00253f05 	eoreq	r3, r5, r5, lsl #30
    328c:	00200000 	eoreq	r0, r0, r0
    3290:	0007b112 	andeq	fp, r7, r2, lsl r1
    3294:	05010800 	streq	r0, [r1, #-2048]	; 0x800
    3298:	00024b48 	andeq	r4, r2, r8, asr #22
    329c:	085d0c00 	ldmdaeq	sp, {sl, fp}^
    32a0:	49050000 	stmdbmi	r5, {}	; <UNPREDICTABLE>
    32a4:	0000024b 	andeq	r0, r0, fp, asr #4
    32a8:	06ef0c00 	strbteq	r0, [pc], r0, lsl #24
    32ac:	4a050000 	bmi	1432b4 <__bss_end__+0x1388bc>
    32b0:	0000024b 	andeq	r0, r0, fp, asr #4
    32b4:	0b061380 	bleq	1880bc <__bss_end__+0x17d6c4>
    32b8:	4c050000 	stcmi	0, cr0, [r5], {-0}
    32bc:	0000011e 	andeq	r0, r0, lr, lsl r1
    32c0:	d6130100 	ldrle	r0, [r3], -r0, lsl #2
    32c4:	05000007 	streq	r0, [r0, #-7]
    32c8:	00011e4f 	andeq	r1, r1, pc, asr #28
    32cc:	00010400 	andeq	r0, r1, r0, lsl #8
    32d0:	00010a09 	andeq	r0, r1, r9, lsl #20
    32d4:	00025b00 	andeq	r5, r2, r0, lsl #22
    32d8:	00cc0a00 	sbceq	r0, ip, r0, lsl #20
    32dc:	001f0000 	andseq	r0, pc, r0
    32e0:	00098312 	andeq	r8, r9, r2, lsl r3
    32e4:	05019000 	streq	r9, [r1, #-0]
    32e8:	0002995b 	andeq	r9, r2, fp, asr r9
    32ec:	0a0b0c00 	beq	2c62f4 <__bss_end__+0x2bb8fc>
    32f0:	5c050000 	stcpl	0, cr0, [r5], {-0}
    32f4:	00000299 	muleq	r0, r9, r2
    32f8:	0a230c00 	beq	8c6300 <__bss_end__+0x8bb908>
    32fc:	5d050000 	stcpl	0, cr0, [r5, #-0]
    3300:	00000025 	andeq	r0, r0, r5, lsr #32
    3304:	08710c04 	ldmdaeq	r1!, {r2, sl, fp}^
    3308:	5f050000 	svcpl	0x00050000
    330c:	0000029f 	muleq	r0, pc, r2	; <UNPREDICTABLE>
    3310:	07b10c08 	ldreq	r0, [r1, r8, lsl #24]!
    3314:	60050000 	andvs	r0, r5, r0
    3318:	0000020b 	andeq	r0, r0, fp, lsl #4
    331c:	040e0088 	streq	r0, [lr], #-136	; 0x88
    3320:	0000025b 	andeq	r0, r0, fp, asr r2
    3324:	0002af09 	andeq	sl, r2, r9, lsl #30
    3328:	0002af00 	andeq	sl, r2, r0, lsl #30
    332c:	00cc0a00 	sbceq	r0, ip, r0, lsl #20
    3330:	001f0000 	andseq	r0, pc, r0
    3334:	02b5040e 	adcseq	r0, r5, #234881024	; 0xe000000
    3338:	10140000 	andsne	r0, r4, r0
    333c:	000009d6 	ldrdeq	r0, [r0], -r6
    3340:	db730508 	blle	1cc4768 <__bss_end__+0x1cb9d70>
    3344:	0c000002 	stceq	0, cr0, [r0], {2}
    3348:	00000797 	muleq	r0, r7, r7
    334c:	02db7405 	sbcseq	r7, fp, #83886080	; 0x5000000
    3350:	0c000000 	stceq	0, cr0, [r0], {-0}
    3354:	000006fb 	strdeq	r0, [r0], -fp
    3358:	00257505 	eoreq	r7, r5, r5, lsl #10
    335c:	00040000 	andeq	r0, r4, r0
    3360:	0054040e 	subseq	r0, r4, lr, lsl #8
    3364:	f5100000 			; <UNDEFINED> instruction: 0xf5100000
    3368:	68000009 	stmdavs	r0, {r0, r3}
    336c:	040bb305 	streq	fp, [fp], #-773	; 0x305
    3370:	5f110000 	svcpl	0x00110000
    3374:	b4050070 	strlt	r0, [r5], #-112	; 0x70
    3378:	000002db 	ldrdeq	r0, [r0], -fp
    337c:	725f1100 	subsvc	r1, pc, #0, 2
    3380:	25b50500 	ldrcs	r0, [r5, #1280]!	; 0x500
    3384:	04000000 	streq	r0, [r0], #-0
    3388:	00775f11 	rsbseq	r5, r7, r1, lsl pc
    338c:	0025b605 	eoreq	fp, r5, r5, lsl #12
    3390:	0c080000 	stceq	0, cr0, [r8], {-0}
    3394:	000007cf 	andeq	r0, r0, pc, asr #15
    3398:	003fb705 	eorseq	fp, pc, r5, lsl #14
    339c:	0c0c0000 	stceq	0, cr0, [ip], {-0}
    33a0:	000008e2 	andeq	r0, r0, r2, ror #17
    33a4:	003fb805 	eorseq	fp, pc, r5, lsl #16
    33a8:	110e0000 	mrsne	r0, (UNDEF: 14)
    33ac:	0066625f 	rsbeq	r6, r6, pc, asr r2
    33b0:	02b6b905 	adcseq	fp, r6, #81920	; 0x14000
    33b4:	0c100000 	ldceq	0, cr0, [r0], {-0}
    33b8:	0000073e 	andeq	r0, r0, lr, lsr r7
    33bc:	0025ba05 	eoreq	fp, r5, r5, lsl #20
    33c0:	0c180000 	ldceq	0, cr0, [r8], {-0}
    33c4:	000007bf 			; <UNDEFINED> instruction: 0x000007bf
    33c8:	010ac105 	tsteq	sl, r5, lsl #2
    33cc:	0c1c0000 	ldceq	0, cr0, [ip], {-0}
    33d0:	00000c72 	andeq	r0, r0, r2, ror ip
    33d4:	0566c305 	strbeq	ip, [r6, #-773]!	; 0x305
    33d8:	0c200000 	stceq	0, cr0, [r0], #-0
    33dc:	00000c8c 	andeq	r0, r0, ip, lsl #25
    33e0:	0590c505 	ldreq	ip, [r0, #1285]	; 0x505
    33e4:	0c240000 	stceq	0, cr0, [r4], #-0
    33e8:	00000a67 	andeq	r0, r0, r7, ror #20
    33ec:	05b4c805 	ldreq	ip, [r4, #2053]!	; 0x805
    33f0:	0c280000 	stceq	0, cr0, [r8], #-0
    33f4:	00000c2c 	andeq	r0, r0, ip, lsr #24
    33f8:	05cec905 	strbeq	ip, [lr, #2309]	; 0x905
    33fc:	112c0000 	teqne	ip, r0
    3400:	0062755f 	rsbeq	r7, r2, pc, asr r5
    3404:	02b6cc05 	adcseq	ip, r6, #1280	; 0x500
    3408:	11300000 	teqne	r0, r0
    340c:	0070755f 	rsbseq	r7, r0, pc, asr r5
    3410:	02dbcd05 	sbcseq	ip, fp, #320	; 0x140
    3414:	11380000 	teqne	r8, r0
    3418:	0072755f 	rsbseq	r7, r2, pc, asr r5
    341c:	0025ce05 	eoreq	ip, r5, r5, lsl #28
    3420:	0c3c0000 	ldceq	0, cr0, [ip], #-0
    3424:	00000782 	andeq	r0, r0, r2, lsl #15
    3428:	05d4d105 	ldrbeq	sp, [r4, #261]	; 0x105
    342c:	0c400000 	mareq	acc0, r0, r0
    3430:	00000bd7 	ldrdeq	r0, [r0], -r7
    3434:	05e4d205 	strbeq	sp, [r4, #517]!	; 0x205
    3438:	11430000 	mrsne	r0, (UNDEF: 67)
    343c:	00626c5f 	rsbeq	r6, r2, pc, asr ip
    3440:	02b6d505 	adcseq	sp, r6, #20971520	; 0x1400000
    3444:	0c440000 	mareq	acc0, r0, r4
    3448:	000007e5 	andeq	r0, r0, r5, ror #15
    344c:	0025d805 	eoreq	sp, r5, r5, lsl #16
    3450:	0c4c0000 	mareq	acc0, r0, ip
    3454:	00000959 	andeq	r0, r0, r9, asr r9
    3458:	007bd905 	rsbseq	sp, fp, r5, lsl #18
    345c:	0c500000 	mraeq	r0, r0, acc0
    3460:	00000268 	andeq	r0, r0, r8, ror #4
    3464:	0429dc05 	strteq	sp, [r9], #-3077	; 0xc05
    3468:	0c540000 	mraeq	r0, r4, acc0
    346c:	00000941 	andeq	r0, r0, r1, asr #18
    3470:	00ffe005 	rscseq	lr, pc, r5
    3474:	0c580000 	mraeq	r0, r8, acc0
    3478:	000009fd 	strdeq	r0, [r0], -sp
    347c:	00f4e205 	rscseq	lr, r4, r5, lsl #4
    3480:	0c5c0000 	mraeq	r0, ip, acc0
    3484:	00000947 	andeq	r0, r0, r7, asr #18
    3488:	0025e305 	eoreq	lr, r5, r5, lsl #6
    348c:	00640000 	rsbeq	r0, r4, r0
    3490:	00002515 	andeq	r2, r0, r5, lsl r5
    3494:	00042900 	andeq	r2, r4, r0, lsl #18
    3498:	04291600 	strteq	r1, [r9], #-1536	; 0x600
    349c:	0a160000 	beq	5834a4 <__bss_end__+0x578aac>
    34a0:	16000001 	strne	r0, [r0], -r1
    34a4:	0000010c 	andeq	r0, r0, ip, lsl #2
    34a8:	00002516 	andeq	r2, r0, r6, lsl r5
    34ac:	040e0000 	streq	r0, [lr], #-0
    34b0:	00000434 	andeq	r0, r0, r4, lsr r4
    34b4:	0004290f 	andeq	r2, r4, pc, lsl #18
    34b8:	0a4a1700 	beq	12890c0 <__bss_end__+0x127e6c8>
    34bc:	04280000 	strteq	r0, [r8], #-0
    34c0:	66023805 	strvs	r3, [r2], -r5, lsl #16
    34c4:	18000005 	stmdane	r0, {r0, r2}
    34c8:	000009c5 	andeq	r0, r0, r5, asr #19
    34cc:	25023a05 	strcs	r3, [r2, #-2565]	; 0xa05
    34d0:	00000000 	andeq	r0, r0, r0
    34d4:	0007de18 	andeq	sp, r7, r8, lsl lr
    34d8:	023f0500 	eorseq	r0, pc, #0, 10
    34dc:	0000063b 	andeq	r0, r0, fp, lsr r6
    34e0:	08d21804 	ldmeq	r2, {r2, fp, ip}^
    34e4:	3f050000 	svccc	0x00050000
    34e8:	00063b02 	andeq	r3, r6, r2, lsl #22
    34ec:	93180800 	tstls	r8, #0, 16
    34f0:	05000008 	streq	r0, [r0, #-8]
    34f4:	063b023f 			; <UNDEFINED> instruction: 0x063b023f
    34f8:	180c0000 	stmdane	ip, {}	; <UNPREDICTABLE>
    34fc:	00000a1e 	andeq	r0, r0, lr, lsl sl
    3500:	25024105 	strcs	r4, [r2, #-261]	; 0x105
    3504:	10000000 	andne	r0, r0, r0
    3508:	00070918 	andeq	r0, r7, r8, lsl r9
    350c:	02420500 	subeq	r0, r2, #0, 10
    3510:	0000081d 	andeq	r0, r0, sp, lsl r8
    3514:	0b3c1814 	bleq	f0956c <__bss_end__+0xefeb74>
    3518:	44050000 	strmi	r0, [r5], #-0
    351c:	00002502 	andeq	r2, r0, r2, lsl #10
    3520:	28183000 	ldmdacs	r8, {ip, sp}
    3524:	0500000a 	streq	r0, [r0, #-10]
    3528:	058a0245 	streq	r0, [sl, #581]	; 0x245
    352c:	18340000 	ldmdane	r4!, {}	; <UNPREDICTABLE>
    3530:	0000098b 	andeq	r0, r0, fp, lsl #19
    3534:	25024705 	strcs	r4, [r2, #-1797]	; 0x705
    3538:	38000000 	stmdacc	r0, {}	; <UNPREDICTABLE>
    353c:	000a3818 	andeq	r3, sl, r8, lsl r8
    3540:	02490500 	subeq	r0, r9, #0, 10
    3544:	00000838 	andeq	r0, r0, r8, lsr r8
    3548:	091d183c 	ldmdbeq	sp, {r2, r3, r4, r5, fp, ip}
    354c:	4c050000 	stcmi	0, cr0, [r5], {-0}
    3550:	00017c02 	andeq	r7, r1, r2, lsl #24
    3554:	b2184000 	andslt	r4, r8, #0
    3558:	05000008 	streq	r0, [r0, #-8]
    355c:	0025024d 	eoreq	r0, r5, sp, asr #4
    3560:	18440000 	stmdane	r4, {}^	; <UNPREDICTABLE>
    3564:	00000c46 	andeq	r0, r0, r6, asr #24
    3568:	7c024e05 	stcvc	14, cr4, [r2], {5}
    356c:	48000001 	stmdami	r0, {r0}
    3570:	0009a218 	andeq	sl, r9, r8, lsl r2
    3574:	024f0500 	subeq	r0, pc, #0, 10
    3578:	0000083e 	andeq	r0, r0, lr, lsr r8
    357c:	08da184c 	ldmeq	sl, {r2, r3, r6, fp, ip}^
    3580:	52050000 	andpl	r0, r5, #0
    3584:	00002502 	andeq	r2, r0, r2, lsl #10
    3588:	01185000 	tsteq	r8, r0
    358c:	05000008 	streq	r0, [r0, #-8]
    3590:	010c0253 	tsteq	ip, r3, asr r2
    3594:	18540000 	ldmdane	r4, {}^	; <UNPREDICTABLE>
    3598:	000009be 			; <UNDEFINED> instruction: 0x000009be
    359c:	fb027605 	blx	a0dba <__bss_end__+0x963c2>
    35a0:	58000007 	stmdapl	r0, {r0, r1, r2}
    35a4:	00098319 	andeq	r8, r9, r9, lsl r3
    35a8:	027a0500 	rsbseq	r0, sl, #0, 10
    35ac:	00000299 	muleq	r0, r9, r2
    35b0:	ef190148 	svc	0x00190148
    35b4:	05000008 	streq	r0, [r0, #-8]
    35b8:	025b027b 	subseq	r0, fp, #-1342177273	; 0xb0000007
    35bc:	014c0000 	mrseq	r0, (UNDEF: 76)
    35c0:	000ba819 	andeq	sl, fp, r9, lsl r8
    35c4:	027f0500 	rsbseq	r0, pc, #0, 10
    35c8:	0000084f 	andeq	r0, r0, pc, asr #16
    35cc:	c71902dc 			; <UNDEFINED> instruction: 0xc71902dc
    35d0:	05000007 	streq	r0, [r0, #-7]
    35d4:	06000284 	streq	r0, [r0], -r4, lsl #5
    35d8:	02e00000 	rsceq	r0, r0, #0
    35dc:	0007ac19 	andeq	sl, r7, r9, lsl ip
    35e0:	02850500 	addeq	r0, r5, #0, 10
    35e4:	0000085b 	andeq	r0, r0, fp, asr r8
    35e8:	0e0002ec 	cdpeq	2, 0, cr0, cr0, cr12, {7}
    35ec:	00040b04 	andeq	r0, r4, r4, lsl #22
    35f0:	00251500 	eoreq	r1, r5, r0, lsl #10
    35f4:	058a0000 	streq	r0, [sl]
    35f8:	29160000 	ldmdbcs	r6, {}	; <UNPREDICTABLE>
    35fc:	16000004 	strne	r0, [r0], -r4
    3600:	0000010a 	andeq	r0, r0, sl, lsl #2
    3604:	00058a16 	andeq	r8, r5, r6, lsl sl
    3608:	00251600 	eoreq	r1, r5, r0, lsl #12
    360c:	0e000000 	cdpeq	0, 0, cr0, cr0, cr0, {0}
    3610:	00011904 	andeq	r1, r1, r4, lsl #18
    3614:	6c040e00 	stcvs	14, cr0, [r4], {-0}
    3618:	15000005 	strne	r0, [r0, #-5]
    361c:	00000086 	andeq	r0, r0, r6, lsl #1
    3620:	000005b4 			; <UNDEFINED> instruction: 0x000005b4
    3624:	00042916 	andeq	r2, r4, r6, lsl r9
    3628:	010a1600 	tsteq	sl, r0, lsl #12
    362c:	86160000 	ldrhi	r0, [r6], -r0
    3630:	16000000 	strne	r0, [r0], -r0
    3634:	00000025 	andeq	r0, r0, r5, lsr #32
    3638:	96040e00 	strls	r0, [r4], -r0, lsl #28
    363c:	15000005 	strne	r0, [r0, #-5]
    3640:	00000025 	andeq	r0, r0, r5, lsr #32
    3644:	000005ce 	andeq	r0, r0, lr, asr #11
    3648:	00042916 	andeq	r2, r4, r6, lsl r9
    364c:	010a1600 	tsteq	sl, r0, lsl #12
    3650:	0e000000 	cdpeq	0, 0, cr0, cr0, cr0, {0}
    3654:	0005ba04 	andeq	fp, r5, r4, lsl #20
    3658:	00540900 	subseq	r0, r4, r0, lsl #18
    365c:	05e40000 	strbeq	r0, [r4, #0]!
    3660:	cc0a0000 	stcgt	0, cr0, [sl], {-0}
    3664:	02000000 	andeq	r0, r0, #0
    3668:	00540900 	subseq	r0, r4, r0, lsl #18
    366c:	05f40000 	ldrbeq	r0, [r4, #0]!
    3670:	cc0a0000 	stcgt	0, cr0, [sl], {-0}
    3674:	00000000 	andeq	r0, r0, r0
    3678:	09e30600 	stmibeq	r3!, {r9, sl}^
    367c:	1d050000 	stcne	0, cr0, [r5, #-0]
    3680:	0002e101 	andeq	lr, r2, r1, lsl #2
    3684:	0b6a1a00 	bleq	1a89e8c <__bss_end__+0x1a7f494>
    3688:	050c0000 	streq	r0, [ip, #-0]
    368c:	06350121 	ldrteq	r0, [r5], -r1, lsr #2
    3690:	0b180000 	bleq	603698 <__bss_end__+0x5f8ca0>
    3694:	0500000a 	streq	r0, [r0, #-10]
    3698:	06350123 	ldrteq	r0, [r5], -r3, lsr #2
    369c:	18000000 	stmdane	r0, {}	; <UNPREDICTABLE>
    36a0:	000008e8 	andeq	r0, r0, r8, ror #17
    36a4:	25012405 	strcs	r2, [r1, #-1029]	; 0x405
    36a8:	04000000 	streq	r0, [r0], #-0
    36ac:	0009dd18 	andeq	sp, r9, r8, lsl sp
    36b0:	01250500 	teqeq	r5, r0, lsl #10
    36b4:	0000063b 	andeq	r0, r0, fp, lsr r6
    36b8:	040e0008 	streq	r0, [lr], #-8
    36bc:	00000600 	andeq	r0, r0, r0, lsl #12
    36c0:	05f4040e 	ldrbeq	r0, [r4, #1038]!	; 0x40e
    36c4:	011a0000 	tsteq	sl, r0
    36c8:	0e000007 	cdpeq	0, 0, cr0, cr0, cr7, {0}
    36cc:	76013d05 	strvc	r3, [r1], -r5, lsl #26
    36d0:	18000006 	stmdane	r0, {r1, r2}
    36d4:	00000a51 	andeq	r0, r0, r1, asr sl
    36d8:	76013e05 	strvc	r3, [r1], -r5, lsl #28
    36dc:	00000006 	andeq	r0, r0, r6
    36e0:	000a8b18 	andeq	r8, sl, r8, lsl fp
    36e4:	013f0500 	teqeq	pc, r0, lsl #10
    36e8:	00000676 	andeq	r0, r0, r6, ror r6
    36ec:	0b0f1806 	bleq	3c970c <__bss_end__+0x3bed14>
    36f0:	40050000 	andmi	r0, r5, r0
    36f4:	00005b01 	andeq	r5, r0, r1, lsl #22
    36f8:	09000c00 	stmdbeq	r0, {sl, fp}
    36fc:	0000005b 	andeq	r0, r0, fp, asr r0
    3700:	00000686 	andeq	r0, r0, r6, lsl #13
    3704:	0000cc0a 	andeq	ip, r0, sl, lsl #24
    3708:	1b000200 	blne	3f10 <_start-0x40f0>
    370c:	025705d0 	subseq	r0, r7, #208, 10	; 0x34000000
    3710:	00000787 	andeq	r0, r0, r7, lsl #15
    3714:	000b4e18 	andeq	r4, fp, r8, lsl lr
    3718:	02590500 	subseq	r0, r9, #0, 10
    371c:	0000002c 	andeq	r0, r0, ip, lsr #32
    3720:	0af91800 	beq	ffe49728 <__bss_end__+0xffe3ed30>
    3724:	5a050000 	bpl	14372c <__bss_end__+0x138d34>
    3728:	00010c02 	andeq	r0, r1, r2, lsl #24
    372c:	04180400 	ldreq	r0, [r8], #-1024	; 0x400
    3730:	05000009 	streq	r0, [r0, #-9]
    3734:	0787025b 			; <UNDEFINED> instruction: 0x0787025b
    3738:	18080000 	stmdane	r8, {}	; <UNPREDICTABLE>
    373c:	00000c1d 	andeq	r0, r0, sp, lsl ip
    3740:	92025c05 	andls	r5, r2, #1280	; 0x500
    3744:	24000001 	strcs	r0, [r0], #-1
    3748:	0008a318 	andeq	sl, r8, r8, lsl r3
    374c:	025d0500 	subseq	r0, sp, #0, 10
    3750:	00000025 	andeq	r0, r0, r5, lsr #32
    3754:	0a061848 	beq	18987c <__bss_end__+0x17ee84>
    3758:	5e050000 	cdppl	0, 0, cr0, cr5, cr0, {0}
    375c:	00006902 	andeq	r6, r0, r2, lsl #18
    3760:	33185000 	tstcc	r8, #0
    3764:	0500000c 	streq	r0, [r0, #-12]
    3768:	0641025f 			; <UNDEFINED> instruction: 0x0641025f
    376c:	18580000 	ldmdane	r8, {}^	; <UNPREDICTABLE>
    3770:	00000a11 	andeq	r0, r0, r1, lsl sl
    3774:	f4026005 	vst4.8	{d6-d9}, [r2], r5
    3778:	68000000 	stmdavs	r0, {}	; <UNPREDICTABLE>
    377c:	000c3818 	andeq	r3, ip, r8, lsl r8
    3780:	02610500 	rsbeq	r0, r1, #0, 10
    3784:	000000f4 	strdeq	r0, [r0], -r4
    3788:	07661870 			; <UNDEFINED> instruction: 0x07661870
    378c:	62050000 	andvs	r0, r5, #0
    3790:	0000f402 	andeq	pc, r0, r2, lsl #8
    3794:	8a187800 	bhi	62179c <__bss_end__+0x616da4>
    3798:	0500000b 	streq	r0, [r0, #-11]
    379c:	07970263 	ldreq	r0, [r7, r3, ror #4]
    37a0:	18800000 	stmne	r0, {}	; <UNPREDICTABLE>
    37a4:	000008f8 	strdeq	r0, [r0], -r8
    37a8:	a7026405 	strge	r6, [r2, -r5, lsl #8]
    37ac:	88000007 	stmdahi	r0, {r0, r1, r2}
    37b0:	000b1c18 	andeq	r1, fp, r8, lsl ip
    37b4:	02650500 	rsbeq	r0, r5, #0, 10
    37b8:	00000025 	andeq	r0, r0, r5, lsr #32
    37bc:	084f18a0 	stmdaeq	pc, {r5, r7, fp, ip}^	; <UNPREDICTABLE>
    37c0:	66050000 	strvs	r0, [r5], -r0
    37c4:	0000f402 	andeq	pc, r0, r2, lsl #8
    37c8:	5718a400 	ldrpl	sl, [r8, -r0, lsl #8]
    37cc:	05000007 	streq	r0, [r0, #-7]
    37d0:	00f40267 	rscseq	r0, r4, r7, ror #4
    37d4:	18ac0000 	stmiane	ip!, {}	; <UNPREDICTABLE>
    37d8:	0000083e 	andeq	r0, r0, lr, lsr r8
    37dc:	f4026805 	vst2.8	{d6-d7}, [r2], r5
    37e0:	b4000000 	strlt	r0, [r0], #-0
    37e4:	00071e18 	andeq	r1, r7, r8, lsl lr
    37e8:	02690500 	rsbeq	r0, r9, #0, 10
    37ec:	000000f4 	strdeq	r0, [r0], -r4
    37f0:	072d18bc 			; <UNDEFINED> instruction: 0x072d18bc
    37f4:	6a050000 	bvs	1437fc <__bss_end__+0x138e04>
    37f8:	0000f402 	andeq	pc, r0, r2, lsl #8
    37fc:	c318c400 	tstgt	r8, #0, 8
    3800:	05000009 	streq	r0, [r0, #-9]
    3804:	0025026b 	eoreq	r0, r5, fp, ror #4
    3808:	00cc0000 	sbceq	r0, ip, r0
    380c:	00011209 	andeq	r1, r1, r9, lsl #4
    3810:	00079700 	andeq	r9, r7, r0, lsl #14
    3814:	00cc0a00 	sbceq	r0, ip, r0, lsl #20
    3818:	00190000 	andseq	r0, r9, r0
    381c:	00011209 	andeq	r1, r1, r9, lsl #4
    3820:	0007a700 	andeq	sl, r7, r0, lsl #14
    3824:	00cc0a00 	sbceq	r0, ip, r0, lsl #20
    3828:	00070000 	andeq	r0, r7, r0
    382c:	00011209 	andeq	r1, r1, r9, lsl #4
    3830:	0007b700 	andeq	fp, r7, r0, lsl #14
    3834:	00cc0a00 	sbceq	r0, ip, r0, lsl #20
    3838:	00170000 	andseq	r0, r7, r0
    383c:	7005f01b 	andvc	pc, r5, fp, lsl r0	; <UNPREDICTABLE>
    3840:	0007db02 	andeq	sp, r7, r2, lsl #22
    3844:	09731800 	ldmdbeq	r3!, {fp, ip}^
    3848:	73050000 	movwvc	r0, #20480	; 0x5000
    384c:	0007db02 	andeq	sp, r7, r2, lsl #22
    3850:	81180000 	tsthi	r8, r0
    3854:	0500000b 	streq	r0, [r0, #-11]
    3858:	07eb0274 			; <UNDEFINED> instruction: 0x07eb0274
    385c:	00780000 	rsbseq	r0, r8, r0
    3860:	0002db09 	andeq	sp, r2, r9, lsl #22
    3864:	0007eb00 	andeq	lr, r7, r0, lsl #22
    3868:	00cc0a00 	sbceq	r0, ip, r0, lsl #20
    386c:	001d0000 	andseq	r0, sp, r0
    3870:	00002c09 	andeq	r2, r0, r9, lsl #24
    3874:	0007fb00 	andeq	pc, r7, r0, lsl #22
    3878:	00cc0a00 	sbceq	r0, ip, r0, lsl #20
    387c:	001d0000 	andseq	r0, sp, r0
    3880:	5505f01c 	strpl	pc, [r5, #-28]
    3884:	00081d02 	andeq	r1, r8, r2, lsl #26
    3888:	0a4a1d00 	beq	128ac90 <__bss_end__+0x1280298>
    388c:	6c050000 	stcvs	0, cr0, [r5], {-0}
    3890:	00068602 	andeq	r8, r6, r2, lsl #12
    3894:	0bdd1d00 	bleq	ff74ac9c <__bss_end__+0xff7402a4>
    3898:	75050000 	strvc	r0, [r5, #-0]
    389c:	0007b702 	andeq	fp, r7, r2, lsl #14
    38a0:	12090000 	andne	r0, r9, #0
    38a4:	2d000001 	stccs	0, cr0, [r0, #-4]
    38a8:	0a000008 	beq	38d0 <_start-0x4730>
    38ac:	000000cc 	andeq	r0, r0, ip, asr #1
    38b0:	381e0018 	ldmdacc	lr, {r3, r4}
    38b4:	16000008 	strne	r0, [r0], -r8
    38b8:	00000429 	andeq	r0, r0, r9, lsr #8
    38bc:	2d040e00 	stccs	14, cr0, [r4, #-0]
    38c0:	0e000008 	cdpeq	0, 0, cr0, cr0, cr8, {0}
    38c4:	00017c04 	andeq	r7, r1, r4, lsl #24
    38c8:	084f1e00 	stmdaeq	pc, {r9, sl, fp, ip}^	; <UNPREDICTABLE>
    38cc:	25160000 	ldrcs	r0, [r6, #-0]
    38d0:	00000000 	andeq	r0, r0, r0
    38d4:	0855040e 	ldmdaeq	r5, {r1, r2, r3, sl}^
    38d8:	040e0000 	streq	r0, [lr], #-0
    38dc:	00000844 	andeq	r0, r0, r4, asr #16
    38e0:	0005f409 	andeq	pc, r5, r9, lsl #8
    38e4:	00086b00 	andeq	r6, r8, r0, lsl #22
    38e8:	00cc0a00 	sbceq	r0, ip, r0, lsl #20
    38ec:	00020000 	andeq	r0, r2, r0
    38f0:	000b301f 	andeq	r3, fp, pc, lsl r0
    38f4:	02fd0500 	rscseq	r0, sp, #0, 10
    38f8:	00000429 	andeq	r0, r0, r9, lsr #8
    38fc:	000b291f 	andeq	r2, fp, pc, lsl r9
    3900:	02fe0500 	rscseq	r0, lr, #0, 10
    3904:	0000042f 	andeq	r0, r0, pc, lsr #8
    3908:	00002515 	andeq	r2, r0, r5, lsl r5
    390c:	00089200 	andeq	r9, r8, r0, lsl #4
    3910:	00251600 	eoreq	r1, r5, r0, lsl #12
    3914:	20000000 	andcs	r0, r0, r0
    3918:	00000533 	andeq	r0, r0, r3, lsr r5
    391c:	089d1d06 	ldmeq	sp, {r1, r2, r8, sl, fp, ip}
    3920:	040e0000 	streq	r0, [lr], #-0
    3924:	00000883 	andeq	r0, r0, r3, lsl #17
    3928:	00002515 	andeq	r2, r0, r5, lsl r5
    392c:	0008b200 	andeq	fp, r8, r0, lsl #4
    3930:	058a1600 	streq	r1, [sl, #1536]	; 0x600
    3934:	20000000 	andcs	r0, r0, r0
    3938:	00000570 	andeq	r0, r0, r0, ror r5
    393c:	08bd2206 	popeq	{r1, r2, r9, sp}
    3940:	040e0000 	streq	r0, [lr], #-0
    3944:	000008a3 	andeq	r0, r0, r3, lsr #17
    3948:	00540121 	subseq	r0, r4, r1, lsr #2
    394c:	0c080000 	stceq	0, cr0, [r8], {-0}
    3950:	00000900 	andeq	r0, r0, r0, lsl #18
    3954:	00074722 	andeq	r4, r7, r2, lsr #14
    3958:	70220000 	eorvc	r0, r2, r0
    395c:	0100000b 	tsteq	r0, fp
    3960:	000bc822 	andeq	ip, fp, r2, lsr #16
    3964:	88220400 	stmdahi	r2!, {sl}
    3968:	05000007 	streq	r0, [r0, #-7]
    396c:	00092b22 	andeq	r2, r9, r2, lsr #22
    3970:	e5220600 	str	r0, [r2, #-1536]!	; 0x600
    3974:	0700000b 	streq	r0, [r0, -fp]
    3978:	000bf422 	andeq	pc, fp, r2, lsr #8
    397c:	03220300 	teqeq	r2, #0, 6
    3980:	0200000c 	andeq	r0, r0, #12
    3984:	07f51000 	ldrbeq	r1, [r5, r0]!
    3988:	072c0000 	streq	r0, [ip, -r0]!
    398c:	00099006 	andeq	r9, r9, r6
    3990:	6f691100 	svcvs	0x00691100
    3994:	33090700 	movwcc	r0, #38656	; 0x9700
    3998:	00000000 	andeq	r0, r0, r0
    399c:	72656911 	rsbvc	r6, r5, #278528	; 0x44000
    39a0:	330a0700 	movwcc	r0, #42752	; 0xa700
    39a4:	04000000 	streq	r0, [r0], #-0
    39a8:	72696911 	rsbvc	r6, r9, #278528	; 0x44000
    39ac:	33110700 	tstcc	r1, #0, 14
    39b0:	08000000 	stmdaeq	r0, {}	; <UNPREDICTABLE>
    39b4:	72636c11 	rsbvc	r6, r3, #4352	; 0x1100
    39b8:	33130700 	tstcc	r3, #0, 14
    39bc:	0c000000 	stceq	0, cr0, [r0], {-0}
    39c0:	72636d11 	rsbvc	r6, r3, #1088	; 0x440
    39c4:	33140700 	tstcc	r4, #0, 14
    39c8:	10000000 	andne	r0, r0, r0
    39cc:	72736c11 	rsbsvc	r6, r3, #4352	; 0x1100
    39d0:	33150700 	tstcc	r5, #0, 14
    39d4:	14000000 	strne	r0, [r0], #-0
    39d8:	72736d11 	rsbsvc	r6, r3, #1088	; 0x440
    39dc:	33160700 	tstcc	r6, #0, 14
    39e0:	18000000 	stmdane	r0, {}	; <UNPREDICTABLE>
    39e4:	000a830c 	andeq	r8, sl, ip, lsl #6
    39e8:	33170700 	tstcc	r7, #0, 14
    39ec:	1c000000 	stcne	0, cr0, [r0], {-0}
    39f0:	00079d0c 	andeq	r9, r7, ip, lsl #26
    39f4:	331b0700 	tstcc	fp, #0, 14
    39f8:	20000000 	andcs	r0, r0, r0
    39fc:	00077d0c 	andeq	r7, r7, ip, lsl #26
    3a00:	331d0700 	tstcc	sp, #0, 14
    3a04:	24000000 	strcs	r0, [r0], #-0
    3a08:	000a6d0c 	andeq	r6, sl, ip, lsl #26
    3a0c:	331e0700 	tstcc	lr, #0, 14
    3a10:	28000000 	stmdacs	r0, {}	; <UNPREDICTABLE>
    3a14:	08652300 	stmdaeq	r5!, {r8, r9, sp}^
    3a18:	07010000 	streq	r0, [r1, -r0]
    3a1c:	000009a5 	andeq	r0, r0, r5, lsr #19
    3a20:	20215004 	eorcs	r5, r1, r4
    3a24:	0033040e 	eorseq	r0, r3, lr, lsl #8
    3a28:	9f0f0000 	svcls	0x000f0000
    3a2c:	23000009 	movwcs	r0, #9
    3a30:	0000099d 	muleq	r0, sp, r9
    3a34:	09bf2801 	ldmibeq	pc!, {r0, fp, sp}	; <UNPREDICTABLE>
    3a38:	50400000 	subpl	r0, r0, r0
    3a3c:	040e2021 	streq	r2, [lr], #-33	; 0x21
    3a40:	00000900 	andeq	r0, r0, r0, lsl #18
    3a44:	0009b90f 	andeq	fp, r9, pc, lsl #18
    3a48:	0bba2400 	bleq	fee8ca50 <__bss_end__+0xfee82058>
    3a4c:	a7010000 	strge	r0, [r1, -r0]
    3a50:	00000025 	andeq	r0, r0, r5, lsr #32
    3a54:	000098e4 	andeq	r9, r0, r4, ror #17
    3a58:	00000010 	andeq	r0, r0, r0, lsl r0
    3a5c:	09f09c01 	ldmibeq	r0!, {r0, sl, fp, ip, pc}^
    3a60:	ec250000 	stc	0, cr0, [r5], #-0
    3a64:	9c000098 	stcls	0, cr0, [r0], {152}	; 0x98
    3a68:	2500000c 	strcs	r0, [r0, #-12]
    3a6c:	000098f0 	strdeq	r9, [r0], -r0
    3a70:	00000ad2 	ldrdeq	r0, [r0], -r2
    3a74:	05182600 	ldreq	r2, [r8, #-1536]	; 0x600
    3a78:	9f010000 	svcls	0x00010000
    3a7c:	000098b4 			; <UNDEFINED> instruction: 0x000098b4
    3a80:	00000030 	andeq	r0, r0, r0, lsr r0
    3a84:	0a4e9c01 	beq	13aaa90 <__bss_end__+0x13a0098>
    3a88:	63270000 	teqvs	r7, #0
    3a8c:	2c9f0100 	ldfcss	f0, [pc], {0}
    3a90:	4f000000 	svcmi	0x00000000
    3a94:	25000014 	strcs	r0, [r0, #-20]
    3a98:	000098c0 	andeq	r9, r0, r0, asr #17
    3a9c:	00000c9c 	muleq	r0, ip, ip
    3aa0:	0098c425 	addseq	ip, r8, r5, lsr #8
    3aa4:	000aa500 	andeq	sl, sl, r0, lsl #10
    3aa8:	98d82800 	ldmls	r8, {fp, sp}^
    3aac:	0ca70000 	stceq	0, cr0, [r7]
    3ab0:	0a440000 	beq	1103ab8 <__bss_end__+0x10f90c0>
    3ab4:	01290000 	teqeq	r9, r0
    3ab8:	400c0550 	andmi	r0, ip, r0, asr r5
    3abc:	29202150 	stmdbcs	r0!, {r4, r6, r8, sp}
    3ac0:	74055101 	strvc	r5, [r5], #-257	; 0x101
    3ac4:	1aff0800 	bne	fffc5acc <__bss_end__+0xfffbb0d4>
    3ac8:	98dc2500 	ldmls	ip, {r8, sl, sp}^
    3acc:	0c9c0000 	ldceq	0, cr0, [ip], {0}
    3ad0:	24000000 	strcs	r0, [r0], #-0
    3ad4:	000008c8 	andeq	r0, r0, r8, asr #17
    3ad8:	00259701 	eoreq	r9, r5, r1, lsl #14
    3adc:	98840000 	stmls	r4, {}	; <UNPREDICTABLE>
    3ae0:	00300000 	eorseq	r0, r0, r0
    3ae4:	9c010000 	stcls	0, cr0, [r1], {-0}
    3ae8:	00000aa5 	andeq	r0, r0, r5, lsr #21
    3aec:	0100632a 	tsteq	r0, sl, lsr #6
    3af0:	0000259b 	muleq	r0, fp, r5
    3af4:	25540100 	ldrbcs	r0, [r4, #-256]	; 0x100
    3af8:	0000988c 	andeq	r9, r0, ip, lsl #17
    3afc:	00000c9c 	muleq	r0, ip, ip
    3b00:	00989025 	addseq	r9, r8, r5, lsr #32
    3b04:	000ad200 	andeq	sp, sl, r0, lsl #4
    3b08:	98a02800 	stmials	r0!, {fp, sp}
    3b0c:	0cb20000 	ldceq	0, cr0, [r2]
    3b10:	0a9b0000 	beq	fe6c3b18 <__bss_end__+0xfe6b9120>
    3b14:	01290000 	teqeq	r9, r0
    3b18:	400c0550 	andmi	r0, ip, r0, asr r5
    3b1c:	00202150 	eoreq	r2, r0, r0, asr r1
    3b20:	0098a825 	addseq	sl, r8, r5, lsr #16
    3b24:	000c9c00 	andeq	r9, ip, r0, lsl #24
    3b28:	7c240000 	stcvc	0, cr0, [r4], #-0
    3b2c:	01000008 	tsteq	r0, r8
    3b30:	00002588 	andeq	r2, r0, r8, lsl #11
    3b34:	00986400 	addseq	r6, r8, r0, lsl #8
    3b38:	00002000 	andeq	r2, r0, r0
    3b3c:	d29c0100 	addsle	r0, ip, #0, 2
    3b40:	2b00000a 	blcs	3b70 <_start-0x4490>
    3b44:	00009870 	andeq	r9, r0, r0, ror r8
    3b48:	00000cb2 			; <UNDEFINED> instruction: 0x00000cb2
    3b4c:	05500129 	ldrbeq	r0, [r0, #-297]	; 0x129
    3b50:	2150640c 	cmpcs	r0, ip, lsl #8
    3b54:	24000020 	strcs	r0, [r0], #-32
    3b58:	00000b9a 	muleq	r0, sl, fp
    3b5c:	00257f01 	eoreq	r7, r5, r1, lsl #30
    3b60:	984c0000 	stmdals	ip, {}^	; <UNPREDICTABLE>
    3b64:	00180000 	andseq	r0, r8, r0
    3b68:	9c010000 	stcls	0, cr0, [r1], {-0}
    3b6c:	00000aff 	strdeq	r0, [r0], -pc	; <UNPREDICTABLE>
    3b70:	0098582b 	addseq	r5, r8, fp, lsr #16
    3b74:	000cb200 	andeq	fp, ip, r0, lsl #4
    3b78:	50012900 	andpl	r2, r1, r0, lsl #18
    3b7c:	50640c05 	rsbpl	r0, r4, r5, lsl #24
    3b80:	00002021 	andeq	r2, r0, r1, lsr #32
    3b84:	00071426 	andeq	r1, r7, r6, lsr #8
    3b88:	9c3a0100 	ldflss	f0, [sl], #-0
    3b8c:	b0000097 	mullt	r0, r7, r0
    3b90:	01000000 	mrseq	r0, (UNDEF: 0)
    3b94:	000c3d9c 	muleq	ip, ip, sp
    3b98:	97ac2800 	strls	r2, [ip, r0, lsl #16]!
    3b9c:	0cbd0000 	ldceq	0, cr0, [sp]
    3ba0:	0b2c0000 	bleq	b03ba8 <__bss_end__+0xaf91b0>
    3ba4:	01290000 	teqeq	r9, r0
    3ba8:	293e0150 	ldmdbcs	lr!, {r4, r6, r8}
    3bac:	32015101 	andcc	r5, r1, #1073741824	; 0x40000000
    3bb0:	97b82800 	ldrls	r2, [r8, r0, lsl #16]!
    3bb4:	0cbd0000 	ldceq	0, cr0, [sp]
    3bb8:	0b440000 	bleq	1103bc0 <__bss_end__+0x10f91c8>
    3bbc:	01290000 	teqeq	r9, r0
    3bc0:	293f0150 	ldmdbcs	pc!, {r4, r6, r8}	; <UNPREDICTABLE>
    3bc4:	32015101 	andcc	r5, r1, #1073741824	; 0x40000000
    3bc8:	97bc2500 	ldrls	r2, [ip, r0, lsl #10]!
    3bcc:	0c9c0000 	ldceq	0, cr0, [ip], {0}
    3bd0:	c8280000 	stmdagt	r8!, {}	; <UNPREDICTABLE>
    3bd4:	3d000097 	stccc	0, cr0, [r0, #-604]	; 0xfffffda4
    3bd8:	6900000c 	stmdbvs	r0, {r2, r3}
    3bdc:	2900000b 	stmdbcs	r0, {r0, r1, r3}
    3be0:	0c055001 	stceq	0, cr5, [r5], {1}
    3be4:	20215004 	eorcs	r5, r1, r4
    3be8:	01510129 	cmpeq	r1, r9, lsr #2
    3bec:	cc250031 	stcgt	0, cr0, [r5], #-196	; 0xffffff3c
    3bf0:	9c000097 	stcls	0, cr0, [r0], {151}	; 0x97
    3bf4:	2800000c 	stmdacs	r0, {r2, r3}
    3bf8:	000097dc 	ldrdeq	r9, [r0], -ip
    3bfc:	00000ca7 	andeq	r0, r0, r7, lsr #25
    3c00:	00000b8b 	andeq	r0, r0, fp, lsl #23
    3c04:	02500129 	subseq	r0, r0, #1073741834	; 0x4000000a
    3c08:	01290074 	teqeq	r9, r4, ror r0
    3c0c:	00300151 	eorseq	r0, r0, r1, asr r1
    3c10:	0097e828 	addseq	lr, r7, r8, lsr #16
    3c14:	000ca700 	andeq	sl, ip, r0, lsl #14
    3c18:	000ba700 	andeq	sl, fp, r0, lsl #14
    3c1c:	50012900 	andpl	r2, r1, r0, lsl #18
    3c20:	50440c05 	subpl	r0, r4, r5, lsl #24
    3c24:	01292021 	teqeq	r9, r1, lsr #32
    3c28:	00300151 	eorseq	r0, r0, r1, asr r1
    3c2c:	0097f428 	addseq	pc, r7, r8, lsr #8
    3c30:	000ca700 	andeq	sl, ip, r0, lsl #14
    3c34:	000bc300 	andeq	ip, fp, r0, lsl #6
    3c38:	50012900 	andpl	r2, r1, r0, lsl #18
    3c3c:	504c0c05 	subpl	r0, ip, r5, lsl #24
    3c40:	01292021 	teqeq	r9, r1, lsr #32
    3c44:	00330151 	eorseq	r0, r3, r1, asr r1
    3c48:	00980028 	addseq	r0, r8, r8, lsr #32
    3c4c:	000ca700 	andeq	sl, ip, r0, lsl #14
    3c50:	000bdf00 	andeq	sp, fp, r0, lsl #30
    3c54:	50012900 	andpl	r2, r1, r0, lsl #18
    3c58:	50500c05 	subspl	r0, r0, r5, lsl #24
    3c5c:	01292021 	teqeq	r9, r1, lsr #32
    3c60:	00300151 	eorseq	r0, r0, r1, asr r1
    3c64:	00980c28 	addseq	r0, r8, r8, lsr #24
    3c68:	000ca700 	andeq	sl, ip, r0, lsl #14
    3c6c:	000bfc00 	andeq	pc, fp, r0, lsl #24
    3c70:	50012900 	andpl	r2, r1, r0, lsl #18
    3c74:	50480c05 	subpl	r0, r8, r5, lsl #24
    3c78:	01292021 	teqeq	r9, r1, lsr #32
    3c7c:	c7080251 	smlsdgt	r8, r1, r2, r0
    3c80:	98182800 	ldmdals	r8, {fp, sp}
    3c84:	0ca70000 	stceq	0, cr0, [r7]
    3c88:	0c1a0000 	ldceq	0, cr0, [sl], {-0}
    3c8c:	01290000 	teqeq	r9, r0
    3c90:	680c0550 	stmdavs	ip, {r4, r6, r8, sl}
    3c94:	29202150 	stmdbcs	r0!, {r4, r6, r8, sp}
    3c98:	0a035101 	beq	d80a4 <__bss_end__+0xcd6ac>
    3c9c:	2800010e 	stmdacs	r0, {r1, r2, r3, r8}
    3ca0:	00009824 	andeq	r9, r0, r4, lsr #16
    3ca4:	00000ca7 	andeq	r0, r0, r7, lsr #25
    3ca8:	00000c33 	andeq	r0, r0, r3, lsr ip
    3cac:	02500129 	subseq	r0, r0, #1073741834	; 0x4000000a
    3cb0:	01290074 	teqeq	r9, r4, ror r0
    3cb4:	00330151 	eorseq	r0, r3, r1, asr r1
    3cb8:	00982825 	addseq	r2, r8, r5, lsr #16
    3cbc:	000c9c00 	andeq	r9, ip, r0, lsl #24
    3cc0:	b22c0000 	eorlt	r0, ip, #0
    3cc4:	0100000b 	tsteq	r0, fp
    3cc8:	00977c2d 	addseq	r7, r7, sp, lsr #24
    3ccc:	00002000 	andeq	r2, r0, r0
    3cd0:	959c0100 	ldrls	r0, [ip, #256]	; 0x100
    3cd4:	2d00000c 	stccs	0, cr0, [r0, #-48]	; 0xffffffd0
    3cd8:	00000d5a 	andeq	r0, r0, sl, asr sp
    3cdc:	0c952d01 	ldceq	13, cr2, [r5], {1}
    3ce0:	146d0000 	strbtne	r0, [sp], #-0
    3ce4:	76270000 	strtvc	r0, [r7], -r0
    3ce8:	01006c61 	tsteq	r0, r1, ror #24
    3cec:	00002c2d 	andeq	r2, r0, sp, lsr #24
    3cf0:	00148b00 	andseq	r8, r4, r0, lsl #22
    3cf4:	978c2800 	strls	r2, [ip, r0, lsl #16]
    3cf8:	0cb20000 	ldceq	0, cr0, [r2]
    3cfc:	0c840000 	stceq	0, cr0, [r4], {0}
    3d00:	01290000 	teqeq	r9, r0
    3d04:	00740250 	rsbseq	r0, r4, r0, asr r2
    3d08:	97982b00 	ldrls	r2, [r8, r0, lsl #22]
    3d0c:	0ca70000 	stceq	0, cr0, [r7]
    3d10:	01290000 	teqeq	r9, r0
    3d14:	00740250 	rsbseq	r0, r4, r0, asr r2
    3d18:	040e0000 	streq	r0, [lr], #-0
    3d1c:	00000c9b 	muleq	r0, fp, ip
    3d20:	09112f2e 	ldmdbeq	r1, {r1, r2, r3, r5, r8, r9, sl, fp, sp}
    3d24:	09110000 	ldmdbeq	r1, {}	; <UNPREDICTABLE>
    3d28:	89060000 	stmdbhi	r6, {}	; <UNPREDICTABLE>
    3d2c:	000a912f 	andeq	r9, sl, pc, lsr #2
    3d30:	000a9100 	andeq	r9, sl, r0, lsl #2
    3d34:	2f9c0600 	svccs	0x009c0600
    3d38:	00000b94 	muleq	r0, r4, fp
    3d3c:	00000b94 	muleq	r0, r4, fp
    3d40:	612fa806 	teqvs	pc, r6, lsl #16
    3d44:	61000009 	tstvs	r0, r9
    3d48:	08000009 	stmdaeq	r0, {r0, r3}
    3d4c:	0b700019 	bleq	1c03db8 <__bss_end__+0x1bf93c0>
    3d50:	00040000 	andeq	r0, r4, r0
    3d54:	000011f6 	strdeq	r1, [r0], -r6
    3d58:	0a970104 	beq	fe5c4170 <__bss_end__+0xfe5b9778>
    3d5c:	670c0000 	strvs	r0, [ip, -r0]
    3d60:	0900000c 	stmdbeq	r0, {r2, r3}
    3d64:	f4000008 	vst4.8	{d0-d3}, [r0], r8
    3d68:	20000098 	mulcs	r0, r8, r0
    3d6c:	3a000001 	bcc	3d78 <_start-0x4288>
    3d70:	02000010 	andeq	r0, r0, #16
    3d74:	6e690504 	cdpvs	5, 6, cr0, cr9, cr4, {0}
    3d78:	04030074 	streq	r0, [r3], #-116	; 0x74
    3d7c:	00013707 	andeq	r3, r1, r7, lsl #14
    3d80:	002c0400 	eoreq	r0, ip, r0, lsl #8
    3d84:	01030000 	mrseq	r0, (UNDEF: 3)
    3d88:	0000e506 	andeq	lr, r0, r6, lsl #10
    3d8c:	05020300 	streq	r0, [r2, #-768]	; 0x300
    3d90:	00000164 	andeq	r0, r0, r4, ror #2
    3d94:	5b050403 	blpl	144da8 <__bss_end__+0x13a3b0>
    3d98:	03000001 	movweq	r0, #1
    3d9c:	01560508 	cmpeq	r6, r8, lsl #10
    3da0:	01030000 	mrseq	r0, (UNDEF: 3)
    3da4:	0000e308 	andeq	lr, r0, r8, lsl #6
    3da8:	07020300 	streq	r0, [r2, -r0, lsl #6]
    3dac:	000000f1 	strdeq	r0, [r0], -r1
    3db0:	32070403 	andcc	r0, r7, #50331648	; 0x3000000
    3db4:	03000001 	movweq	r0, #1
    3db8:	012d0708 	teqeq	sp, r8, lsl #14
    3dbc:	ac050000 	stcge	0, cr0, [r5], {-0}
    3dc0:	02000009 	andeq	r0, r0, #9
    3dc4:	00002507 	andeq	r2, r0, r7, lsl #10
    3dc8:	09960500 	ldmibeq	r6, {r8, sl}
    3dcc:	2c030000 	stccs	0, cr0, [r3], {-0}
    3dd0:	00000046 	andeq	r0, r0, r6, asr #32
    3dd4:	000a7205 	andeq	r7, sl, r5, lsl #4
    3dd8:	46720300 	ldrbtmi	r0, [r2], -r0, lsl #6
    3ddc:	06000000 	streq	r0, [r0], -r0
    3de0:	0000093a 	andeq	r0, r0, sl, lsr r9
    3de4:	2c016504 	cfstr32cs	mvfx6, [r1], {4}
    3de8:	07000000 	streq	r0, [r0, -r0]
    3dec:	bca60304 	stclt	3, cr0, [r6], #16
    3df0:	08000000 	stmdaeq	r0, {}	; <UNPREDICTABLE>
    3df4:	00000925 	andeq	r0, r0, r5, lsr #18
    3df8:	0091a803 	addseq	sl, r1, r3, lsl #16
    3dfc:	c1080000 	mrsgt	r0, (UNDEF: 8)
    3e00:	03000008 	movweq	r0, #8
    3e04:	0000bca9 	andeq	fp, r0, r9, lsr #25
    3e08:	54090000 	strpl	r0, [r9], #-0
    3e0c:	cc000000 	stcgt	0, cr0, [r0], {-0}
    3e10:	0a000000 	beq	3e18 <_start-0x41e8>
    3e14:	000000cc 	andeq	r0, r0, ip, asr #1
    3e18:	04030003 	streq	r0, [r3], #-3
    3e1c:	00014d07 	andeq	r4, r1, r7, lsl #26
    3e20:	03080b00 	movweq	r0, #35584	; 0x8b00
    3e24:	0000f4a3 	andeq	pc, r0, r3, lsr #9
    3e28:	0a570c00 	beq	15c6e30 <__bss_end__+0x15bc438>
    3e2c:	a5030000 	strge	r0, [r3, #-0]
    3e30:	00000025 	andeq	r0, r0, r5, lsr #32
    3e34:	0a5f0c00 	beq	17c6e3c <__bss_end__+0x17bc444>
    3e38:	aa030000 	bge	c3e40 <__bss_end__+0xb9448>
    3e3c:	0000009d 	muleq	r0, sp, r0
    3e40:	ea050004 	b	143e58 <__bss_end__+0x139460>
    3e44:	03000009 	movweq	r0, #9
    3e48:	0000d3ab 	andeq	sp, r0, fp, lsr #7
    3e4c:	088a0500 	stmeq	sl, {r8, sl}
    3e50:	af030000 	svcge	0x00030000
    3e54:	00000070 	andeq	r0, r0, r0, ror r0
    3e58:	040e040d 	streq	r0, [lr], #-1037	; 0x40d
    3e5c:	00000112 	andeq	r0, r0, r2, lsl r1
    3e60:	ec080103 	stfs	f0, [r8], {3}
    3e64:	04000000 	streq	r0, [r0], #-0
    3e68:	00000112 	andeq	r0, r0, r2, lsl r1
    3e6c:	000b1405 	andeq	r1, fp, r5, lsl #8
    3e70:	62160500 	andsvs	r0, r6, #0, 10
    3e74:	0f000000 	svceq	0x00000000
    3e78:	0000089b 	muleq	r0, fp, r8
    3e7c:	7c2d0518 	cfstr32vc	mvfx0, [sp], #-96	; 0xffffffa0
    3e80:	0c000001 	stceq	0, cr0, [r0], {1}
    3e84:	00000a0b 	andeq	r0, r0, fp, lsl #20
    3e88:	017c2f05 	cmneq	ip, r5, lsl #30
    3e8c:	10000000 	andne	r0, r0, r0
    3e90:	05006b5f 	streq	r6, [r0, #-2911]	; 0xb5f
    3e94:	00002530 	andeq	r2, r0, r0, lsr r5
    3e98:	420c0400 	andmi	r0, ip, #0, 8
    3e9c:	0500000a 	streq	r0, [r0, #-10]
    3ea0:	00002530 	andeq	r2, r0, r0, lsr r5
    3ea4:	760c0800 	strvc	r0, [ip], -r0, lsl #16
    3ea8:	05000008 	streq	r0, [r0, #-8]
    3eac:	00002530 	andeq	r2, r0, r0, lsr r5
    3eb0:	5b0c0c00 	blpl	306eb8 <__bss_end__+0x2fc4c0>
    3eb4:	0500000b 	streq	r0, [r0, #-11]
    3eb8:	00002530 	andeq	r2, r0, r0, lsr r5
    3ebc:	5f101000 	svcpl	0x00101000
    3ec0:	31050078 	tstcc	r5, r8, ror r0
    3ec4:	00000182 	andeq	r0, r0, r2, lsl #3
    3ec8:	040e0014 	streq	r0, [lr], #-20
    3ecc:	00000129 	andeq	r0, r0, r9, lsr #2
    3ed0:	00011e09 	andeq	r1, r1, r9, lsl #28
    3ed4:	00019200 	andeq	r9, r1, r0, lsl #4
    3ed8:	00cc0a00 	sbceq	r0, ip, r0, lsl #20
    3edc:	00000000 	andeq	r0, r0, r0
    3ee0:	0008bc0f 	andeq	fp, r8, pc, lsl #24
    3ee4:	35052400 	strcc	r2, [r5, #-1024]	; 0x400
    3ee8:	0000020b 	andeq	r0, r0, fp, lsl #4
    3eec:	0007740c 	andeq	r7, r7, ip, lsl #8
    3ef0:	25370500 	ldrcs	r0, [r7, #-1280]!	; 0x500
    3ef4:	00000000 	andeq	r0, r0, r0
    3ef8:	000a7a0c 	andeq	r7, sl, ip, lsl #20
    3efc:	25380500 	ldrcs	r0, [r8, #-1280]!	; 0x500
    3f00:	04000000 	streq	r0, [r0], #-0
    3f04:	0007a20c 	andeq	sl, r7, ip, lsl #4
    3f08:	25390500 	ldrcs	r0, [r9, #-1280]!	; 0x500
    3f0c:	08000000 	stmdaeq	r0, {}	; <UNPREDICTABLE>
    3f10:	000c4b0c 	andeq	r4, ip, ip, lsl #22
    3f14:	253a0500 	ldrcs	r0, [sl, #-1280]!	; 0x500
    3f18:	0c000000 	stceq	0, cr0, [r0], {-0}
    3f1c:	00097a0c 	andeq	r7, r9, ip, lsl #20
    3f20:	253b0500 	ldrcs	r0, [fp, #-1280]!	; 0x500
    3f24:	10000000 	andne	r0, r0, r0
    3f28:	00094f0c 	andeq	r4, r9, ip, lsl #30
    3f2c:	253c0500 	ldrcs	r0, [ip, #-1280]!	; 0x500
    3f30:	14000000 	strne	r0, [r0], #-0
    3f34:	000b600c 	andeq	r6, fp, ip
    3f38:	253d0500 	ldrcs	r0, [sp, #-1280]!	; 0x500
    3f3c:	18000000 	stmdane	r0, {}	; <UNPREDICTABLE>
    3f40:	0009cc0c 	andeq	ip, r9, ip, lsl #24
    3f44:	253e0500 	ldrcs	r0, [lr, #-1280]!	; 0x500
    3f48:	1c000000 	stcne	0, cr0, [r0], {-0}
    3f4c:	000c120c 	andeq	r1, ip, ip, lsl #4
    3f50:	253f0500 	ldrcs	r0, [pc, #-1280]!	; 3a58 <_start-0x45a8>
    3f54:	20000000 	andcs	r0, r0, r0
    3f58:	07b11100 	ldreq	r1, [r1, r0, lsl #2]!
    3f5c:	01080000 	mrseq	r0, (UNDEF: 8)
    3f60:	024b4805 	subeq	r4, fp, #327680	; 0x50000
    3f64:	5d0c0000 	stcpl	0, cr0, [ip, #-0]
    3f68:	05000008 	streq	r0, [r0, #-8]
    3f6c:	00024b49 	andeq	r4, r2, r9, asr #22
    3f70:	ef0c0000 	svc	0x000c0000
    3f74:	05000006 	streq	r0, [r0, #-6]
    3f78:	00024b4a 	andeq	r4, r2, sl, asr #22
    3f7c:	06128000 	ldreq	r8, [r2], -r0
    3f80:	0500000b 	streq	r0, [r0, #-11]
    3f84:	00011e4c 	andeq	r1, r1, ip, asr #28
    3f88:	12010000 	andne	r0, r1, #0
    3f8c:	000007d6 	ldrdeq	r0, [r0], -r6
    3f90:	011e4f05 	tsteq	lr, r5, lsl #30
    3f94:	01040000 	mrseq	r0, (UNDEF: 4)
    3f98:	010a0900 	tsteq	sl, r0, lsl #18
    3f9c:	025b0000 	subseq	r0, fp, #0
    3fa0:	cc0a0000 	stcgt	0, cr0, [sl], {-0}
    3fa4:	1f000000 	svcne	0x00000000
    3fa8:	09831100 	stmibeq	r3, {r8, ip}
    3fac:	01900000 	orrseq	r0, r0, r0
    3fb0:	02995b05 	addseq	r5, r9, #5120	; 0x1400
    3fb4:	0b0c0000 	bleq	303fbc <__bss_end__+0x2f95c4>
    3fb8:	0500000a 	streq	r0, [r0, #-10]
    3fbc:	0002995c 	andeq	r9, r2, ip, asr r9
    3fc0:	230c0000 	movwcs	r0, #49152	; 0xc000
    3fc4:	0500000a 	streq	r0, [r0, #-10]
    3fc8:	0000255d 	andeq	r2, r0, sp, asr r5
    3fcc:	710c0400 	tstvc	ip, r0, lsl #8
    3fd0:	05000008 	streq	r0, [r0, #-8]
    3fd4:	00029f5f 	andeq	r9, r2, pc, asr pc
    3fd8:	b10c0800 	tstlt	ip, r0, lsl #16
    3fdc:	05000007 	streq	r0, [r0, #-7]
    3fe0:	00020b60 	andeq	r0, r2, r0, ror #22
    3fe4:	0e008800 	cdpeq	8, 0, cr8, cr0, cr0, {0}
    3fe8:	00025b04 	andeq	r5, r2, r4, lsl #22
    3fec:	02af0900 	adceq	r0, pc, #0, 18
    3ff0:	02af0000 	adceq	r0, pc, #0
    3ff4:	cc0a0000 	stcgt	0, cr0, [sl], {-0}
    3ff8:	1f000000 	svcne	0x00000000
    3ffc:	b5040e00 	strlt	r0, [r4, #-3584]	; 0xe00
    4000:	13000002 	movwne	r0, #2
    4004:	0009d60f 	andeq	sp, r9, pc, lsl #12
    4008:	73050800 	movwvc	r0, #22528	; 0x5800
    400c:	000002db 	ldrdeq	r0, [r0], -fp
    4010:	0007970c 	andeq	r9, r7, ip, lsl #14
    4014:	db740500 	blle	1d0541c <__bss_end__+0x1cfaa24>
    4018:	00000002 	andeq	r0, r0, r2
    401c:	0006fb0c 	andeq	pc, r6, ip, lsl #22
    4020:	25750500 	ldrbcs	r0, [r5, #-1280]!	; 0x500
    4024:	04000000 	streq	r0, [r0], #-0
    4028:	54040e00 	strpl	r0, [r4], #-3584	; 0xe00
    402c:	0f000000 	svceq	0x00000000
    4030:	000009f5 	strdeq	r0, [r0], -r5
    4034:	0bb30568 	bleq	fecc55dc <__bss_end__+0xfecbabe4>
    4038:	10000004 	andne	r0, r0, r4
    403c:	0500705f 	streq	r7, [r0, #-95]	; 0x5f
    4040:	0002dbb4 			; <UNDEFINED> instruction: 0x0002dbb4
    4044:	5f100000 	svcpl	0x00100000
    4048:	b5050072 	strlt	r0, [r5, #-114]	; 0x72
    404c:	00000025 	andeq	r0, r0, r5, lsr #32
    4050:	775f1004 	ldrbvc	r1, [pc, -r4]
    4054:	25b60500 	ldrcs	r0, [r6, #1280]!	; 0x500
    4058:	08000000 	stmdaeq	r0, {}	; <UNPREDICTABLE>
    405c:	0007cf0c 	andeq	ip, r7, ip, lsl #30
    4060:	3fb70500 	svccc	0x00b70500
    4064:	0c000000 	stceq	0, cr0, [r0], {-0}
    4068:	0008e20c 	andeq	lr, r8, ip, lsl #4
    406c:	3fb80500 	svccc	0x00b80500
    4070:	0e000000 	cdpeq	0, 0, cr0, cr0, cr0, {0}
    4074:	66625f10 	uqadd16vs	r5, r2, r0
    4078:	b6b90500 	ldrtlt	r0, [r9], r0, lsl #10
    407c:	10000002 	andne	r0, r0, r2
    4080:	00073e0c 	andeq	r3, r7, ip, lsl #28
    4084:	25ba0500 	ldrcs	r0, [sl, #1280]!	; 0x500
    4088:	18000000 	stmdane	r0, {}	; <UNPREDICTABLE>
    408c:	0007bf0c 	andeq	fp, r7, ip, lsl #30
    4090:	0ac10500 	beq	ff045498 <__bss_end__+0xff03aaa0>
    4094:	1c000001 	stcne	0, cr0, [r0], {1}
    4098:	000c720c 	andeq	r7, ip, ip, lsl #4
    409c:	66c30500 	strbvs	r0, [r3], r0, lsl #10
    40a0:	20000005 	andcs	r0, r0, r5
    40a4:	000c8c0c 	andeq	r8, ip, ip, lsl #24
    40a8:	90c50500 	sbcls	r0, r5, r0, lsl #10
    40ac:	24000005 	strcs	r0, [r0], #-5
    40b0:	000a670c 	andeq	r6, sl, ip, lsl #14
    40b4:	b4c80500 	strblt	r0, [r8], #1280	; 0x500
    40b8:	28000005 	stmdacs	r0, {r0, r2}
    40bc:	000c2c0c 	andeq	r2, ip, ip, lsl #24
    40c0:	cec90500 	cdpgt	5, 12, cr0, cr9, cr0, {0}
    40c4:	2c000005 	stccs	0, cr0, [r0], {5}
    40c8:	62755f10 	rsbsvs	r5, r5, #16, 30	; 0x40
    40cc:	b6cc0500 	strblt	r0, [ip], r0, lsl #10
    40d0:	30000002 	andcc	r0, r0, r2
    40d4:	70755f10 	rsbsvc	r5, r5, r0, lsl pc
    40d8:	dbcd0500 	blle	ff3454e0 <__bss_end__+0xff33aae8>
    40dc:	38000002 	stmdacc	r0, {r1}
    40e0:	72755f10 	rsbsvc	r5, r5, #16, 30	; 0x40
    40e4:	25ce0500 	strbcs	r0, [lr, #1280]	; 0x500
    40e8:	3c000000 	stccc	0, cr0, [r0], {-0}
    40ec:	0007820c 	andeq	r8, r7, ip, lsl #4
    40f0:	d4d10500 	ldrble	r0, [r1], #1280	; 0x500
    40f4:	40000005 	andmi	r0, r0, r5
    40f8:	000bd70c 	andeq	sp, fp, ip, lsl #14
    40fc:	e4d20500 	ldrb	r0, [r2], #1280	; 0x500
    4100:	43000005 	movwmi	r0, #5
    4104:	626c5f10 	rsbvs	r5, ip, #16, 30	; 0x40
    4108:	b6d50500 	ldrblt	r0, [r5], r0, lsl #10
    410c:	44000002 	strmi	r0, [r0], #-2
    4110:	0007e50c 	andeq	lr, r7, ip, lsl #10
    4114:	25d80500 	ldrbcs	r0, [r8, #1280]	; 0x500
    4118:	4c000000 	stcmi	0, cr0, [r0], {-0}
    411c:	0009590c 	andeq	r5, r9, ip, lsl #18
    4120:	7bd90500 	blvc	ff645528 <__bss_end__+0xff63ab30>
    4124:	50000000 	andpl	r0, r0, r0
    4128:	0002680c 	andeq	r6, r2, ip, lsl #16
    412c:	29dc0500 	ldmibcs	ip, {r8, sl}^
    4130:	54000004 	strpl	r0, [r0], #-4
    4134:	0009410c 	andeq	r4, r9, ip, lsl #2
    4138:	ffe00500 			; <UNDEFINED> instruction: 0xffe00500
    413c:	58000000 	stmdapl	r0, {}	; <UNPREDICTABLE>
    4140:	0009fd0c 	andeq	pc, r9, ip, lsl #26
    4144:	f4e20500 	vld2.16	{d16[0],d17[0]}, [r2], r0
    4148:	5c000000 	stcpl	0, cr0, [r0], {-0}
    414c:	0009470c 	andeq	r4, r9, ip, lsl #14
    4150:	25e30500 	strbcs	r0, [r3, #1280]!	; 0x500
    4154:	64000000 	strvs	r0, [r0], #-0
    4158:	00251400 	eoreq	r1, r5, r0, lsl #8
    415c:	04290000 	strteq	r0, [r9], #-0
    4160:	29150000 	ldmdbcs	r5, {}	; <UNPREDICTABLE>
    4164:	15000004 	strne	r0, [r0, #-4]
    4168:	0000010a 	andeq	r0, r0, sl, lsl #2
    416c:	00010c15 	andeq	r0, r1, r5, lsl ip
    4170:	00251500 	eoreq	r1, r5, r0, lsl #10
    4174:	0e000000 	cdpeq	0, 0, cr0, cr0, cr0, {0}
    4178:	00043404 	andeq	r3, r4, r4, lsl #8
    417c:	04290400 	strteq	r0, [r9], #-1024	; 0x400
    4180:	4a160000 	bmi	584188 <__bss_end__+0x579790>
    4184:	2800000a 	stmdacs	r0, {r1, r3}
    4188:	02380504 	eorseq	r0, r8, #4, 10	; 0x1000000
    418c:	00000566 	andeq	r0, r0, r6, ror #10
    4190:	0009c517 	andeq	ip, r9, r7, lsl r5
    4194:	023a0500 	eorseq	r0, sl, #0, 10
    4198:	00000025 	andeq	r0, r0, r5, lsr #32
    419c:	07de1700 	ldrbeq	r1, [lr, r0, lsl #14]
    41a0:	3f050000 	svccc	0x00050000
    41a4:	00063b02 	andeq	r3, r6, r2, lsl #22
    41a8:	d2170400 	andsle	r0, r7, #0, 8
    41ac:	05000008 	streq	r0, [r0, #-8]
    41b0:	063b023f 			; <UNDEFINED> instruction: 0x063b023f
    41b4:	17080000 	strne	r0, [r8, -r0]
    41b8:	00000893 	muleq	r0, r3, r8
    41bc:	3b023f05 	blcc	93dd8 <__bss_end__+0x893e0>
    41c0:	0c000006 	stceq	0, cr0, [r0], {6}
    41c4:	000a1e17 	andeq	r1, sl, r7, lsl lr
    41c8:	02410500 	subeq	r0, r1, #0, 10
    41cc:	00000025 	andeq	r0, r0, r5, lsr #32
    41d0:	07091710 	smladeq	r9, r0, r7, r1
    41d4:	42050000 	andmi	r0, r5, #0
    41d8:	00081d02 	andeq	r1, r8, r2, lsl #26
    41dc:	3c171400 	cfldrscc	mvf1, [r7], {-0}
    41e0:	0500000b 	streq	r0, [r0, #-11]
    41e4:	00250244 	eoreq	r0, r5, r4, asr #4
    41e8:	17300000 	ldrne	r0, [r0, -r0]!
    41ec:	00000a28 	andeq	r0, r0, r8, lsr #20
    41f0:	8a024505 	bhi	9560c <__bss_end__+0x8ac14>
    41f4:	34000005 	strcc	r0, [r0], #-5
    41f8:	00098b17 	andeq	r8, r9, r7, lsl fp
    41fc:	02470500 	subeq	r0, r7, #0, 10
    4200:	00000025 	andeq	r0, r0, r5, lsr #32
    4204:	0a381738 	beq	e09eec <__bss_end__+0xdff4f4>
    4208:	49050000 	stmdbmi	r5, {}	; <UNPREDICTABLE>
    420c:	00083802 	andeq	r3, r8, r2, lsl #16
    4210:	1d173c00 	ldcne	12, cr3, [r7, #-0]
    4214:	05000009 	streq	r0, [r0, #-9]
    4218:	017c024c 	cmneq	ip, ip, asr #4
    421c:	17400000 	strbne	r0, [r0, -r0]
    4220:	000008b2 			; <UNDEFINED> instruction: 0x000008b2
    4224:	25024d05 	strcs	r4, [r2, #-3333]	; 0xd05
    4228:	44000000 	strmi	r0, [r0], #-0
    422c:	000c4617 	andeq	r4, ip, r7, lsl r6
    4230:	024e0500 	subeq	r0, lr, #0, 10
    4234:	0000017c 	andeq	r0, r0, ip, ror r1
    4238:	09a21748 	stmibeq	r2!, {r3, r6, r8, r9, sl, ip}
    423c:	4f050000 	svcmi	0x00050000
    4240:	00083e02 	andeq	r3, r8, r2, lsl #28
    4244:	da174c00 	ble	5d724c <__bss_end__+0x5cc854>
    4248:	05000008 	streq	r0, [r0, #-8]
    424c:	00250252 	eoreq	r0, r5, r2, asr r2
    4250:	17500000 	ldrbne	r0, [r0, -r0]
    4254:	00000801 	andeq	r0, r0, r1, lsl #16
    4258:	0c025305 	stceq	3, cr5, [r2], {5}
    425c:	54000001 	strpl	r0, [r0], #-1
    4260:	0009be17 	andeq	fp, r9, r7, lsl lr
    4264:	02760500 	rsbseq	r0, r6, #0, 10
    4268:	000007fb 	strdeq	r0, [r0], -fp
    426c:	09831858 	stmibeq	r3, {r3, r4, r6, fp, ip}
    4270:	7a050000 	bvc	144278 <__bss_end__+0x139880>
    4274:	00029902 	andeq	r9, r2, r2, lsl #18
    4278:	18014800 	stmdane	r1, {fp, lr}
    427c:	000008ef 	andeq	r0, r0, pc, ror #17
    4280:	5b027b05 	blpl	a2e9c <__bss_end__+0x984a4>
    4284:	4c000002 	stcmi	0, cr0, [r0], {2}
    4288:	0ba81801 	bleq	fea0a294 <__bss_end__+0xfe9ff89c>
    428c:	7f050000 	svcvc	0x00050000
    4290:	00084f02 	andeq	r4, r8, r2, lsl #30
    4294:	1802dc00 	stmdane	r2, {sl, fp, ip, lr, pc}
    4298:	000007c7 	andeq	r0, r0, r7, asr #15
    429c:	00028405 	andeq	r8, r2, r5, lsl #8
    42a0:	e0000006 	and	r0, r0, r6
    42a4:	07ac1802 	streq	r1, [ip, r2, lsl #16]!
    42a8:	85050000 	strhi	r0, [r5, #-0]
    42ac:	00085b02 	andeq	r5, r8, r2, lsl #22
    42b0:	0002ec00 	andeq	lr, r2, r0, lsl #24
    42b4:	040b040e 	streq	r0, [fp], #-1038	; 0x40e
    42b8:	25140000 	ldrcs	r0, [r4, #-0]
    42bc:	8a000000 	bhi	42c4 <_start-0x3d3c>
    42c0:	15000005 	strne	r0, [r0, #-5]
    42c4:	00000429 	andeq	r0, r0, r9, lsr #8
    42c8:	00010a15 	andeq	r0, r1, r5, lsl sl
    42cc:	058a1500 	streq	r1, [sl, #1280]	; 0x500
    42d0:	25150000 	ldrcs	r0, [r5, #-0]
    42d4:	00000000 	andeq	r0, r0, r0
    42d8:	0119040e 	tsteq	r9, lr, lsl #8
    42dc:	040e0000 	streq	r0, [lr], #-0
    42e0:	0000056c 	andeq	r0, r0, ip, ror #10
    42e4:	00008614 	andeq	r8, r0, r4, lsl r6
    42e8:	0005b400 	andeq	fp, r5, r0, lsl #8
    42ec:	04291500 	strteq	r1, [r9], #-1280	; 0x500
    42f0:	0a150000 	beq	5442f8 <__bss_end__+0x539900>
    42f4:	15000001 	strne	r0, [r0, #-1]
    42f8:	00000086 	andeq	r0, r0, r6, lsl #1
    42fc:	00002515 	andeq	r2, r0, r5, lsl r5
    4300:	040e0000 	streq	r0, [lr], #-0
    4304:	00000596 	muleq	r0, r6, r5
    4308:	00002514 	andeq	r2, r0, r4, lsl r5
    430c:	0005ce00 	andeq	ip, r5, r0, lsl #28
    4310:	04291500 	strteq	r1, [r9], #-1280	; 0x500
    4314:	0a150000 	beq	54431c <__bss_end__+0x539924>
    4318:	00000001 	andeq	r0, r0, r1
    431c:	05ba040e 	ldreq	r0, [sl, #1038]!	; 0x40e
    4320:	54090000 	strpl	r0, [r9], #-0
    4324:	e4000000 	str	r0, [r0], #-0
    4328:	0a000005 	beq	4344 <_start-0x3cbc>
    432c:	000000cc 	andeq	r0, r0, ip, asr #1
    4330:	54090002 	strpl	r0, [r9], #-2
    4334:	f4000000 	vst4.8	{d0-d3}, [r0], r0
    4338:	0a000005 	beq	4354 <_start-0x3cac>
    433c:	000000cc 	andeq	r0, r0, ip, asr #1
    4340:	e3060000 	movw	r0, #24576	; 0x6000
    4344:	05000009 	streq	r0, [r0, #-9]
    4348:	02e1011d 	rsceq	r0, r1, #1073741831	; 0x40000007
    434c:	6a190000 	bvs	644354 <__bss_end__+0x63995c>
    4350:	0c00000b 	stceq	0, cr0, [r0], {11}
    4354:	35012105 	strcc	r2, [r1, #-261]	; 0x105
    4358:	17000006 	strne	r0, [r0, -r6]
    435c:	00000a0b 	andeq	r0, r0, fp, lsl #20
    4360:	35012305 	strcc	r2, [r1, #-773]	; 0x305
    4364:	00000006 	andeq	r0, r0, r6
    4368:	0008e817 	andeq	lr, r8, r7, lsl r8
    436c:	01240500 	teqeq	r4, r0, lsl #10
    4370:	00000025 	andeq	r0, r0, r5, lsr #32
    4374:	09dd1704 	ldmibeq	sp, {r2, r8, r9, sl, ip}^
    4378:	25050000 	strcs	r0, [r5, #-0]
    437c:	00063b01 	andeq	r3, r6, r1, lsl #22
    4380:	0e000800 	cdpeq	8, 0, cr0, cr0, cr0, {0}
    4384:	00060004 	andeq	r0, r6, r4
    4388:	f4040e00 			; <UNDEFINED> instruction: 0xf4040e00
    438c:	19000005 	stmdbne	r0, {r0, r2}
    4390:	00000701 	andeq	r0, r0, r1, lsl #14
    4394:	013d050e 	teqeq	sp, lr, lsl #10
    4398:	00000676 	andeq	r0, r0, r6, ror r6
    439c:	000a5117 	andeq	r5, sl, r7, lsl r1
    43a0:	013e0500 	teqeq	lr, r0, lsl #10
    43a4:	00000676 	andeq	r0, r0, r6, ror r6
    43a8:	0a8b1700 	beq	fe2c9fb0 <__bss_end__+0xfe2bf5b8>
    43ac:	3f050000 	svccc	0x00050000
    43b0:	00067601 	andeq	r7, r6, r1, lsl #12
    43b4:	0f170600 	svceq	0x00170600
    43b8:	0500000b 	streq	r0, [r0, #-11]
    43bc:	005b0140 	subseq	r0, fp, r0, asr #2
    43c0:	000c0000 	andeq	r0, ip, r0
    43c4:	00005b09 	andeq	r5, r0, r9, lsl #22
    43c8:	00068600 	andeq	r8, r6, r0, lsl #12
    43cc:	00cc0a00 	sbceq	r0, ip, r0, lsl #20
    43d0:	00020000 	andeq	r0, r2, r0
    43d4:	5705d01a 	smladpl	r5, sl, r0, sp
    43d8:	00078702 	andeq	r8, r7, r2, lsl #14
    43dc:	0b4e1700 	bleq	1389fe4 <__bss_end__+0x137f5ec>
    43e0:	59050000 	stmdbpl	r5, {}	; <UNPREDICTABLE>
    43e4:	00002c02 	andeq	r2, r0, r2, lsl #24
    43e8:	f9170000 			; <UNDEFINED> instruction: 0xf9170000
    43ec:	0500000a 	streq	r0, [r0, #-10]
    43f0:	010c025a 	tsteq	ip, sl, asr r2
    43f4:	17040000 	strne	r0, [r4, -r0]
    43f8:	00000904 	andeq	r0, r0, r4, lsl #18
    43fc:	87025b05 	strhi	r5, [r2, -r5, lsl #22]
    4400:	08000007 	stmdaeq	r0, {r0, r1, r2}
    4404:	000c1d17 	andeq	r1, ip, r7, lsl sp
    4408:	025c0500 	subseq	r0, ip, #0, 10
    440c:	00000192 	muleq	r0, r2, r1
    4410:	08a31724 	stmiaeq	r3!, {r2, r5, r8, r9, sl, ip}
    4414:	5d050000 	stcpl	0, cr0, [r5, #-0]
    4418:	00002502 	andeq	r2, r0, r2, lsl #10
    441c:	06174800 	ldreq	r4, [r7], -r0, lsl #16
    4420:	0500000a 	streq	r0, [r0, #-10]
    4424:	0069025e 	rsbeq	r0, r9, lr, asr r2
    4428:	17500000 	ldrbne	r0, [r0, -r0]
    442c:	00000c33 	andeq	r0, r0, r3, lsr ip
    4430:	41025f05 	tstmi	r2, r5, lsl #30
    4434:	58000006 	stmdapl	r0, {r1, r2}
    4438:	000a1117 	andeq	r1, sl, r7, lsl r1
    443c:	02600500 	rsbeq	r0, r0, #0, 10
    4440:	000000f4 	strdeq	r0, [r0], -r4
    4444:	0c381768 	ldceq	7, cr1, [r8], #-416	; 0xfffffe60
    4448:	61050000 	mrsvs	r0, (UNDEF: 5)
    444c:	0000f402 	andeq	pc, r0, r2, lsl #8
    4450:	66177000 	ldrvs	r7, [r7], -r0
    4454:	05000007 	streq	r0, [r0, #-7]
    4458:	00f40262 	rscseq	r0, r4, r2, ror #4
    445c:	17780000 	ldrbne	r0, [r8, -r0]!
    4460:	00000b8a 	andeq	r0, r0, sl, lsl #23
    4464:	97026305 	strls	r6, [r2, -r5, lsl #6]
    4468:	80000007 	andhi	r0, r0, r7
    446c:	0008f817 	andeq	pc, r8, r7, lsl r8	; <UNPREDICTABLE>
    4470:	02640500 	rsbeq	r0, r4, #0, 10
    4474:	000007a7 	andeq	r0, r0, r7, lsr #15
    4478:	0b1c1788 	bleq	70a2a0 <__bss_end__+0x6ff8a8>
    447c:	65050000 	strvs	r0, [r5, #-0]
    4480:	00002502 	andeq	r2, r0, r2, lsl #10
    4484:	4f17a000 	svcmi	0x0017a000
    4488:	05000008 	streq	r0, [r0, #-8]
    448c:	00f40266 	rscseq	r0, r4, r6, ror #4
    4490:	17a40000 	strne	r0, [r4, r0]!
    4494:	00000757 	andeq	r0, r0, r7, asr r7
    4498:	f4026705 	vst1.8	{d6}, [r2], r5
    449c:	ac000000 	stcge	0, cr0, [r0], {-0}
    44a0:	00083e17 	andeq	r3, r8, r7, lsl lr
    44a4:	02680500 	rsbeq	r0, r8, #0, 10
    44a8:	000000f4 	strdeq	r0, [r0], -r4
    44ac:	071e17b4 			; <UNDEFINED> instruction: 0x071e17b4
    44b0:	69050000 	stmdbvs	r5, {}	; <UNPREDICTABLE>
    44b4:	0000f402 	andeq	pc, r0, r2, lsl #8
    44b8:	2d17bc00 	ldccs	12, cr11, [r7, #-0]
    44bc:	05000007 	streq	r0, [r0, #-7]
    44c0:	00f4026a 	rscseq	r0, r4, sl, ror #4
    44c4:	17c40000 	strbne	r0, [r4, r0]
    44c8:	000009c3 	andeq	r0, r0, r3, asr #19
    44cc:	25026b05 	strcs	r6, [r2, #-2821]	; 0xb05
    44d0:	cc000000 	stcgt	0, cr0, [r0], {-0}
    44d4:	01120900 	tsteq	r2, r0, lsl #18
    44d8:	07970000 	ldreq	r0, [r7, r0]
    44dc:	cc0a0000 	stcgt	0, cr0, [sl], {-0}
    44e0:	19000000 	stmdbne	r0, {}	; <UNPREDICTABLE>
    44e4:	01120900 	tsteq	r2, r0, lsl #18
    44e8:	07a70000 	streq	r0, [r7, r0]!
    44ec:	cc0a0000 	stcgt	0, cr0, [sl], {-0}
    44f0:	07000000 	streq	r0, [r0, -r0]
    44f4:	01120900 	tsteq	r2, r0, lsl #18
    44f8:	07b70000 	ldreq	r0, [r7, r0]!
    44fc:	cc0a0000 	stcgt	0, cr0, [sl], {-0}
    4500:	17000000 	strne	r0, [r0, -r0]
    4504:	05f01a00 	ldrbeq	r1, [r0, #2560]!	; 0xa00
    4508:	07db0270 			; <UNDEFINED> instruction: 0x07db0270
    450c:	73170000 	tstvc	r7, #0
    4510:	05000009 	streq	r0, [r0, #-9]
    4514:	07db0273 			; <UNDEFINED> instruction: 0x07db0273
    4518:	17000000 	strne	r0, [r0, -r0]
    451c:	00000b81 	andeq	r0, r0, r1, lsl #23
    4520:	eb027405 	bl	a153c <__bss_end__+0x96b44>
    4524:	78000007 	stmdavc	r0, {r0, r1, r2}
    4528:	02db0900 	sbcseq	r0, fp, #0, 18
    452c:	07eb0000 	strbeq	r0, [fp, r0]!
    4530:	cc0a0000 	stcgt	0, cr0, [sl], {-0}
    4534:	1d000000 	stcne	0, cr0, [r0, #-0]
    4538:	002c0900 	eoreq	r0, ip, r0, lsl #18
    453c:	07fb0000 	ldrbeq	r0, [fp, r0]!
    4540:	cc0a0000 	stcgt	0, cr0, [sl], {-0}
    4544:	1d000000 	stcne	0, cr0, [r0, #-0]
    4548:	05f01b00 	ldrbeq	r1, [r0, #2816]!	; 0xb00
    454c:	081d0255 	ldmdaeq	sp, {r0, r2, r4, r6, r9}
    4550:	4a1c0000 	bmi	704558 <__bss_end__+0x6f9b60>
    4554:	0500000a 	streq	r0, [r0, #-10]
    4558:	0686026c 	streq	r0, [r6], ip, ror #4
    455c:	dd1c0000 	ldcle	0, cr0, [ip, #-0]
    4560:	0500000b 	streq	r0, [r0, #-11]
    4564:	07b70275 			; <UNDEFINED> instruction: 0x07b70275
    4568:	09000000 	stmdbeq	r0, {}	; <UNPREDICTABLE>
    456c:	00000112 	andeq	r0, r0, r2, lsl r1
    4570:	0000082d 	andeq	r0, r0, sp, lsr #16
    4574:	0000cc0a 	andeq	ip, r0, sl, lsl #24
    4578:	1d001800 	stcne	8, cr1, [r0, #-0]
    457c:	00000838 	andeq	r0, r0, r8, lsr r8
    4580:	00042915 	andeq	r2, r4, r5, lsl r9
    4584:	040e0000 	streq	r0, [lr], #-0
    4588:	0000082d 	andeq	r0, r0, sp, lsr #16
    458c:	017c040e 	cmneq	ip, lr, lsl #8
    4590:	4f1d0000 	svcmi	0x001d0000
    4594:	15000008 	strne	r0, [r0, #-8]
    4598:	00000025 	andeq	r0, r0, r5, lsr #32
    459c:	55040e00 	strpl	r0, [r4, #-3584]	; 0xe00
    45a0:	0e000008 	cdpeq	0, 0, cr0, cr0, cr8, {0}
    45a4:	00084404 	andeq	r4, r8, r4, lsl #8
    45a8:	05f40900 	ldrbeq	r0, [r4, #2304]!	; 0x900
    45ac:	086b0000 	stmdaeq	fp!, {}^	; <UNPREDICTABLE>
    45b0:	cc0a0000 	stcgt	0, cr0, [sl], {-0}
    45b4:	02000000 	andeq	r0, r0, #0
    45b8:	0b301e00 	bleq	c0bdc0 <__bss_end__+0xc013c8>
    45bc:	fd050000 	stc2	0, cr0, [r5, #-0]
    45c0:	00042902 	andeq	r2, r4, r2, lsl #18
    45c4:	0b291e00 	bleq	a4bdcc <__bss_end__+0xa413d4>
    45c8:	fe050000 	cdp2	0, 0, cr0, cr5, cr0, {0}
    45cc:	00042f02 	andeq	r2, r4, r2, lsl #30
    45d0:	00251400 	eoreq	r1, r5, r0, lsl #8
    45d4:	08920000 	ldmeq	r2, {}	; <UNPREDICTABLE>
    45d8:	25150000 	ldrcs	r0, [r5, #-0]
    45dc:	00000000 	andeq	r0, r0, r0
    45e0:	0005331f 	andeq	r3, r5, pc, lsl r3
    45e4:	9d1d0600 	ldcls	6, cr0, [sp, #-0]
    45e8:	0e000008 	cdpeq	0, 0, cr0, cr0, cr8, {0}
    45ec:	00088304 	andeq	r8, r8, r4, lsl #6
    45f0:	00251400 	eoreq	r1, r5, r0, lsl #8
    45f4:	08b20000 	ldmeq	r2!, {}	; <UNPREDICTABLE>
    45f8:	8a150000 	bhi	544600 <__bss_end__+0x539c08>
    45fc:	00000005 	andeq	r0, r0, r5
    4600:	0005701f 	andeq	r7, r5, pc, lsl r0
    4604:	bd220600 	stclt	6, cr0, [r2, #-0]
    4608:	0e000008 	cdpeq	0, 0, cr0, cr0, cr8, {0}
    460c:	0008a304 	andeq	sl, r8, r4, lsl #6
    4610:	54012000 	strpl	r2, [r1], #-0
    4614:	07000000 	streq	r0, [r0, -r0]
    4618:	0009000c 	andeq	r0, r9, ip
    461c:	07472100 	strbeq	r2, [r7, -r0, lsl #2]
    4620:	21000000 	mrscs	r0, (UNDEF: 0)
    4624:	00000b70 	andeq	r0, r0, r0, ror fp
    4628:	0bc82101 	bleq	ff20ca34 <__bss_end__+0xff20203c>
    462c:	21040000 	mrscs	r0, (UNDEF: 4)
    4630:	00000788 	andeq	r0, r0, r8, lsl #15
    4634:	092b2105 	stmdbeq	fp!, {r0, r2, r8, sp}
    4638:	21060000 	mrscs	r0, (UNDEF: 6)
    463c:	00000be5 	andeq	r0, r0, r5, ror #23
    4640:	0bf42107 	bleq	ffd0ca64 <__bss_end__+0xffd0206c>
    4644:	21030000 	mrscs	r0, (UNDEF: 3)
    4648:	00000c03 	andeq	r0, r0, r3, lsl #24
    464c:	c2050002 	andgt	r0, r5, #2
    4650:	0700000c 	streq	r0, [r0, -ip]
    4654:	0008c315 	andeq	ip, r8, r5, lsl r3
    4658:	0c932200 	lfmeq	f2, 4, [r3], {0}
    465c:	1d010000 	stcne	0, cr0, [r1, #-0]
    4660:	00000033 	andeq	r0, r0, r3, lsr r0
    4664:	2020001c 	eorcs	r0, r0, ip, lsl r0
    4668:	000cce22 	andeq	ip, ip, r2, lsr #28
    466c:	331e0100 	tstcc	lr, #0, 2
    4670:	28000000 	stmdacs	r0, {}	; <UNPREDICTABLE>
    4674:	22202000 	eorcs	r2, r0, #0
    4678:	00000c9d 	muleq	r0, sp, ip
    467c:	00331f01 	eorseq	r1, r3, r1, lsl #30
    4680:	00340000 	eorseq	r0, r4, r0
    4684:	6e232020 	cdpvs	0, 2, cr2, cr3, cr0, {1}
    4688:	0100000c 	tsteq	r0, ip
    468c:	00002556 	andeq	r2, r0, r6, asr r5
    4690:	0099e000 	addseq	lr, r9, r0
    4694:	00003400 	andeq	r3, r0, r0, lsl #8
    4698:	989c0100 	ldmls	ip, {r8}
    469c:	24000009 	strcs	r0, [r0], #-9
    46a0:	006e6970 	rsbeq	r6, lr, r0, ror r9
    46a4:	002c5601 	eoreq	r5, ip, r1, lsl #12
    46a8:	14a90000 	strtne	r0, [r9], #0
    46ac:	62250000 	eorvs	r0, r5, #0
    46b0:	0100000c 	tsteq	r0, ip
    46b4:	00002c59 	andeq	r2, r0, r9, asr ip
    46b8:	0014e300 	andseq	lr, r4, r0, lsl #6
    46bc:	666f2600 	strbtvs	r2, [pc], -r0, lsl #12
    46c0:	5a010066 	bpl	44860 <__bss_end__+0x39e68>
    46c4:	0000002c 	andeq	r0, r0, ip, lsr #32
    46c8:	00001521 	andeq	r1, r0, r1, lsr #10
    46cc:	0099fc27 	addseq	pc, r9, r7, lsr #24
    46d0:	000b5d00 	andeq	r5, fp, r0, lsl #26
    46d4:	50012800 	andpl	r2, r1, r0, lsl #16
    46d8:	5001f30b 	andpl	pc, r1, fp, lsl #6
    46dc:	b4232535 	strtlt	r2, [r3], #-1333	; 0x535
    46e0:	02818080 	addeq	r8, r1, #128	; 0x80
    46e4:	88290000 	stmdahi	r9!, {}	; <UNPREDICTABLE>
    46e8:	0100000c 	tsteq	r0, ip
    46ec:	0099c44f 	addseq	ip, r9, pc, asr #8
    46f0:	00001c00 	andeq	r1, r0, r0, lsl #24
    46f4:	e89c0100 	ldm	ip, {r8}
    46f8:	24000009 	strcs	r0, [r0], #-9
    46fc:	006e6970 	rsbeq	r6, lr, r0, ror r9
    4700:	002c4f01 	eoreq	r4, ip, r1, lsl #30
    4704:	15340000 	ldrne	r0, [r4, #-0]!
    4708:	76240000 	strtvc	r0, [r4], -r0
    470c:	2c4f0100 	stfcse	f0, [pc], {-0}
    4710:	6e000000 	cdpvs	0, 0, cr0, cr0, cr0, {0}
    4714:	2a000015 	bcs	4770 <_start-0x3890>
    4718:	000099d4 	ldrdeq	r9, [r0], -r4
    471c:	00000a23 	andeq	r0, r0, r3, lsr #20
    4720:	000009de 	ldrdeq	r0, [r0], -lr
    4724:	03500128 	cmpeq	r0, #40, 2
    4728:	005001f3 	ldrsheq	r0, [r0], #-19	; 0xffffffed
    472c:	0099dc2b 	addseq	sp, r9, fp, lsr #24
    4730:	000a6400 	andeq	r6, sl, r0, lsl #8
    4734:	a7290000 	strge	r0, [r9, -r0]!
    4738:	0100000c 	tsteq	r0, ip
    473c:	0099b44a 	addseq	fp, r9, sl, asr #8
    4740:	00001000 	andeq	r1, r0, r0
    4744:	239c0100 	orrscs	r0, ip, #0, 2
    4748:	2400000a 	strcs	r0, [r0], #-10
    474c:	006e6970 	rsbeq	r6, lr, r0, ror r9
    4750:	002c4a01 	eoreq	r4, ip, r1, lsl #20
    4754:	15a80000 	strne	r0, [r8, #0]!
    4758:	c0270000 	eorgt	r0, r7, r0
    475c:	e0000099 	mul	r0, r9, r0
    4760:	2800000a 	stmdacs	r0, {r1, r3}
    4764:	f3035001 	vhadd.u8	d5, d3, d1
    4768:	01285001 	teqeq	r8, r1
    476c:	00300151 	eorseq	r0, r0, r1, asr r1
    4770:	0c552900 	mrrceq	9, 0, r2, r5, cr0
    4774:	43010000 	movwmi	r0, #4096	; 0x1000
    4778:	00009990 	muleq	r0, r0, r9
    477c:	00000024 	andeq	r0, r0, r4, lsr #32
    4780:	0a649c01 	beq	192b78c <__bss_end__+0x1920d94>
    4784:	70240000 	eorvc	r0, r4, r0
    4788:	01006e69 	tsteq	r0, r9, ror #28
    478c:	00002c43 	andeq	r2, r0, r3, asr #24
    4790:	0015c900 	andseq	ip, r5, r0, lsl #18
    4794:	99ac2700 	stmibls	ip!, {r8, r9, sl, sp}
    4798:	0b680000 	bleq	1a047a0 <__bss_end__+0x19f9da8>
    479c:	01280000 	teqeq	r8, r0
    47a0:	280c0550 	stmdacs	ip, {r4, r6, r8, sl}
    47a4:	28202000 	stmdacs	r0!, {sp}
    47a8:	31055101 	tstcc	r5, r1, lsl #2
    47ac:	245001f3 	ldrbcs	r0, [r0], #-499	; 0x1f3
    47b0:	b6290000 	strtlt	r0, [r9], -r0
    47b4:	0100000c 	tsteq	r0, ip
    47b8:	00996c3c 	addseq	r6, r9, ip, lsr ip
    47bc:	00002400 	andeq	r2, r0, r0, lsl #8
    47c0:	a59c0100 	ldrge	r0, [ip, #256]	; 0x100
    47c4:	2400000a 	strcs	r0, [r0], #-10
    47c8:	006e6970 	rsbeq	r6, lr, r0, ror r9
    47cc:	002c3c01 	eoreq	r3, ip, r1, lsl #24
    47d0:	15ea0000 	strbne	r0, [sl, #0]!
    47d4:	88270000 	stmdahi	r7!, {}	; <UNPREDICTABLE>
    47d8:	68000099 	stmdavs	r0, {r0, r3, r4, r7}
    47dc:	2800000b 	stmdacs	r0, {r0, r1, r3}
    47e0:	0c055001 	stceq	0, cr5, [r5], {1}
    47e4:	2020001c 	eorcs	r0, r0, ip, lsl r0
    47e8:	05510128 	ldrbeq	r0, [r1, #-296]	; 0x128
    47ec:	5001f331 	andpl	pc, r1, r1, lsr r3	; <UNPREDICTABLE>
    47f0:	29000024 	stmdbcs	r0, {r2, r5}
    47f4:	00000c78 	andeq	r0, r0, r8, ror ip
    47f8:	995c3701 	ldmdbls	ip, {r0, r8, r9, sl, ip, sp}^
    47fc:	00100000 	andseq	r0, r0, r0
    4800:	9c010000 	stcls	0, cr0, [r1], {-0}
    4804:	00000ae0 	andeq	r0, r0, r0, ror #21
    4808:	6e697024 	cdpvs	0, 6, cr7, cr9, cr4, {1}
    480c:	2c370100 	ldfcss	f0, [r7], #-0
    4810:	0b000000 	bleq	4818 <_start-0x37e8>
    4814:	27000016 	smladcs	r0, r6, r0, r0
    4818:	00009968 	andeq	r9, r0, r8, ror #18
    481c:	00000ae0 	andeq	r0, r0, r0, ror #21
    4820:	03500128 	cmpeq	r0, #40, 2
    4824:	285001f3 	ldmdacs	r0, {r0, r1, r4, r5, r6, r7, r8}^
    4828:	31015101 	tstcc	r1, r1, lsl #2
    482c:	61290000 	teqvs	r9, r0
    4830:	01000009 	tsteq	r0, r9
    4834:	0098f428 	addseq	pc, r8, r8, lsr #8
    4838:	00006800 	andeq	r6, r0, r0, lsl #16
    483c:	5d9c0100 	ldfpls	f0, [ip]
    4840:	2400000b 	strcs	r0, [r0], #-11
    4844:	006e6970 	rsbeq	r6, lr, r0, ror r9
    4848:	002c2801 	eoreq	r2, ip, r1, lsl #16
    484c:	162c0000 	strtne	r0, [ip], -r0
    4850:	ad2c0000 	stcge	0, cr0, [ip, #-0]
    4854:	0100000b 	tsteq	r0, fp
    4858:	00090028 	andeq	r0, r9, r8, lsr #32
    485c:	00164d00 	andseq	r4, r6, r0, lsl #26
    4860:	666f2d00 	strbtvs	r2, [pc], -r0, lsl #26
    4864:	2d010066 	stccs	0, cr0, [r1, #-408]	; 0xfffffe68
    4868:	0000002c 	andeq	r0, r0, ip, lsr #32
    486c:	672d5401 	strvs	r5, [sp, -r1, lsl #8]!
    4870:	2c2f0100 	stfcss	f0, [pc], #-0	; 4878 <_start-0x3788>
    4874:	01000000 	mrseq	r0, (UNDEF: 0)
    4878:	00762656 	rsbseq	r2, r6, r6, asr r6
    487c:	002c3101 	eoreq	r3, ip, r1, lsl #2
    4880:	166e0000 	strbtne	r0, [lr], -r0
    4884:	402a0000 	eormi	r0, sl, r0
    4888:	5d000099 	stcpl	0, cr0, [r0, #-612]	; 0xfffffd9c
    488c:	4c00000b 	stcmi	0, cr0, [r0], {11}
    4890:	2800000b 	stmdacs	r0, {r0, r1, r3}
    4894:	76025001 	strvc	r5, [r2], -r1
    4898:	54270000 	strtpl	r0, [r7], #-0
    489c:	68000099 	stmdavs	r0, {r0, r3, r4, r7}
    48a0:	2800000b 	stmdacs	r0, {r0, r1, r3}
    48a4:	76025001 	strvc	r5, [r2], -r1
    48a8:	2e000000 	cdpcs	0, 0, cr0, cr0, cr0, {0}
    48ac:	000006be 			; <UNDEFINED> instruction: 0x000006be
    48b0:	000006be 			; <UNDEFINED> instruction: 0x000006be
    48b4:	702ea706 	eorvc	sl, lr, r6, lsl #14
    48b8:	70000006 	andvc	r0, r0, r6
    48bc:	06000006 	streq	r0, [r0], -r6
    48c0:	0c24009b 	stceq	0, cr0, [r4], #-620	; 0xfffffd94
    48c4:	00040000 	andeq	r0, r4, r0
    48c8:	00001464 	andeq	r1, r0, r4, ror #8
    48cc:	0a970104 	beq	fe5c4ce4 <__bss_end__+0xfe5ba2ec>
    48d0:	d80c0000 	stmdale	ip, {}	; <UNPREDICTABLE>
    48d4:	0900000c 	stmdbeq	r0, {r2, r3}
    48d8:	14000008 	strne	r0, [r0], #-8
    48dc:	9400009a 	strls	r0, [r0], #-154	; 0x9a
    48e0:	69000001 	stmdbvs	r0, {r0}
    48e4:	02000011 	andeq	r0, r0, #17
    48e8:	6e690504 	cdpvs	5, 6, cr0, cr9, cr4, {0}
    48ec:	04030074 	streq	r0, [r3], #-116	; 0x74
    48f0:	00013707 	andeq	r3, r1, r7, lsl #14
    48f4:	06010300 	streq	r0, [r1], -r0, lsl #6
    48f8:	000000e5 	andeq	r0, r0, r5, ror #1
    48fc:	64050203 	strvs	r0, [r5], #-515	; 0x203
    4900:	03000001 	movweq	r0, #1
    4904:	015b0504 	cmpeq	fp, r4, lsl #10
    4908:	08030000 	stmdaeq	r3, {}	; <UNPREDICTABLE>
    490c:	00015605 	andeq	r5, r1, r5, lsl #12
    4910:	08010300 	stmdaeq	r1, {r8, r9}
    4914:	000000e3 	andeq	r0, r0, r3, ror #1
    4918:	f1070203 			; <UNDEFINED> instruction: 0xf1070203
    491c:	03000000 	movweq	r0, #0
    4920:	01320704 	teqeq	r2, r4, lsl #14
    4924:	08030000 	stmdaeq	r3, {}	; <UNPREDICTABLE>
    4928:	00012d07 	andeq	r2, r1, r7, lsl #26
    492c:	09ac0400 	stmibeq	ip!, {sl}
    4930:	07020000 	streq	r0, [r2, -r0]
    4934:	00000025 	andeq	r0, r0, r5, lsr #32
    4938:	00099604 	andeq	r9, r9, r4, lsl #12
    493c:	412c0300 	teqmi	ip, r0, lsl #6
    4940:	04000000 	streq	r0, [r0], #-0
    4944:	00000a72 	andeq	r0, r0, r2, ror sl
    4948:	00417203 	subeq	r7, r1, r3, lsl #4
    494c:	3a050000 	bcc	144954 <__bss_end__+0x139f5c>
    4950:	04000009 	streq	r0, [r0], #-9
    4954:	002c0165 	eoreq	r0, ip, r5, ror #2
    4958:	04060000 	streq	r0, [r6], #-0
    495c:	00b7a603 	adcseq	sl, r7, r3, lsl #12
    4960:	25070000 	strcs	r0, [r7, #-0]
    4964:	03000009 	movweq	r0, #9
    4968:	00008ca8 	andeq	r8, r0, r8, lsr #25
    496c:	08c10700 	stmiaeq	r1, {r8, r9, sl}^
    4970:	a9030000 	stmdbge	r3, {}	; <UNPREDICTABLE>
    4974:	000000b7 	strheq	r0, [r0], -r7
    4978:	004f0800 	subeq	r0, pc, r0, lsl #16
    497c:	00c70000 	sbceq	r0, r7, r0
    4980:	c7090000 	strgt	r0, [r9, -r0]
    4984:	03000000 	movweq	r0, #0
    4988:	07040300 	streq	r0, [r4, -r0, lsl #6]
    498c:	0000014d 	andeq	r0, r0, sp, asr #2
    4990:	a303080a 	movwge	r0, #14346	; 0x380a
    4994:	000000ef 	andeq	r0, r0, pc, ror #1
    4998:	000a570b 	andeq	r5, sl, fp, lsl #14
    499c:	25a50300 	strcs	r0, [r5, #768]!	; 0x300
    49a0:	00000000 	andeq	r0, r0, r0
    49a4:	000a5f0b 	andeq	r5, sl, fp, lsl #30
    49a8:	98aa0300 	stmials	sl!, {r8, r9}
    49ac:	04000000 	streq	r0, [r0], #-0
    49b0:	09ea0400 	stmibeq	sl!, {sl}^
    49b4:	ab030000 	blge	c49bc <__bss_end__+0xb9fc4>
    49b8:	000000ce 	andeq	r0, r0, lr, asr #1
    49bc:	00088a04 	andeq	r8, r8, r4, lsl #20
    49c0:	6baf0300 	blvs	febc55c8 <__bss_end__+0xfebbabd0>
    49c4:	0c000000 	stceq	0, cr0, [r0], {-0}
    49c8:	0d040d04 	stceq	13, cr0, [r4, #-16]
    49cc:	03000001 	movweq	r0, #1
    49d0:	00ec0801 	rsceq	r0, ip, r1, lsl #16
    49d4:	0d0e0000 	stceq	0, cr0, [lr, #-0]
    49d8:	04000001 	streq	r0, [r0], #-1
    49dc:	00000b14 	andeq	r0, r0, r4, lsl fp
    49e0:	005d1605 	subseq	r1, sp, r5, lsl #12
    49e4:	9b0f0000 	blls	3c49ec <__bss_end__+0x3b9ff4>
    49e8:	18000008 	stmdane	r0, {r3}
    49ec:	01772d05 	cmneq	r7, r5, lsl #26
    49f0:	0b0b0000 	bleq	2c49f8 <__bss_end__+0x2ba000>
    49f4:	0500000a 	streq	r0, [r0, #-10]
    49f8:	0001772f 	andeq	r7, r1, pc, lsr #14
    49fc:	5f100000 	svcpl	0x00100000
    4a00:	3005006b 	andcc	r0, r5, fp, rrx
    4a04:	00000025 	andeq	r0, r0, r5, lsr #32
    4a08:	0a420b04 	beq	1087620 <__bss_end__+0x107cc28>
    4a0c:	30050000 	andcc	r0, r5, r0
    4a10:	00000025 	andeq	r0, r0, r5, lsr #32
    4a14:	08760b08 	ldmdaeq	r6!, {r3, r8, r9, fp}^
    4a18:	30050000 	andcc	r0, r5, r0
    4a1c:	00000025 	andeq	r0, r0, r5, lsr #32
    4a20:	0b5b0b0c 	bleq	16c7658 <__bss_end__+0x16bcc60>
    4a24:	30050000 	andcc	r0, r5, r0
    4a28:	00000025 	andeq	r0, r0, r5, lsr #32
    4a2c:	785f1010 	ldmdavc	pc, {r4, ip}^	; <UNPREDICTABLE>
    4a30:	7d310500 	cfldr32vc	mvfx0, [r1, #-0]
    4a34:	14000001 	strne	r0, [r0], #-1
    4a38:	24040d00 	strcs	r0, [r4], #-3328	; 0xd00
    4a3c:	08000001 	stmdaeq	r0, {r0}
    4a40:	00000119 	andeq	r0, r0, r9, lsl r1
    4a44:	0000018d 	andeq	r0, r0, sp, lsl #3
    4a48:	0000c709 	andeq	ip, r0, r9, lsl #14
    4a4c:	0f000000 	svceq	0x00000000
    4a50:	000008bc 			; <UNDEFINED> instruction: 0x000008bc
    4a54:	06350524 	ldrteq	r0, [r5], -r4, lsr #10
    4a58:	0b000002 	bleq	4a68 <_start-0x3598>
    4a5c:	00000774 	andeq	r0, r0, r4, ror r7
    4a60:	00253705 	eoreq	r3, r5, r5, lsl #14
    4a64:	0b000000 	bleq	4a6c <_start-0x3594>
    4a68:	00000a7a 	andeq	r0, r0, sl, ror sl
    4a6c:	00253805 	eoreq	r3, r5, r5, lsl #16
    4a70:	0b040000 	bleq	104a78 <__bss_end__+0xfa080>
    4a74:	000007a2 	andeq	r0, r0, r2, lsr #15
    4a78:	00253905 	eoreq	r3, r5, r5, lsl #18
    4a7c:	0b080000 	bleq	204a84 <__bss_end__+0x1fa08c>
    4a80:	00000c4b 	andeq	r0, r0, fp, asr #24
    4a84:	00253a05 	eoreq	r3, r5, r5, lsl #20
    4a88:	0b0c0000 	bleq	304a90 <__bss_end__+0x2fa098>
    4a8c:	0000097a 	andeq	r0, r0, sl, ror r9
    4a90:	00253b05 	eoreq	r3, r5, r5, lsl #22
    4a94:	0b100000 	bleq	404a9c <__bss_end__+0x3fa0a4>
    4a98:	0000094f 	andeq	r0, r0, pc, asr #18
    4a9c:	00253c05 	eoreq	r3, r5, r5, lsl #24
    4aa0:	0b140000 	bleq	504aa8 <__bss_end__+0x4fa0b0>
    4aa4:	00000b60 	andeq	r0, r0, r0, ror #22
    4aa8:	00253d05 	eoreq	r3, r5, r5, lsl #26
    4aac:	0b180000 	bleq	604ab4 <__bss_end__+0x5fa0bc>
    4ab0:	000009cc 	andeq	r0, r0, ip, asr #19
    4ab4:	00253e05 	eoreq	r3, r5, r5, lsl #28
    4ab8:	0b1c0000 	bleq	704ac0 <__bss_end__+0x6fa0c8>
    4abc:	00000c12 	andeq	r0, r0, r2, lsl ip
    4ac0:	00253f05 	eoreq	r3, r5, r5, lsl #30
    4ac4:	00200000 	eoreq	r0, r0, r0
    4ac8:	0007b111 	andeq	fp, r7, r1, lsl r1
    4acc:	05010800 	streq	r0, [r1, #-2048]	; 0x800
    4ad0:	00024648 	andeq	r4, r2, r8, asr #12
    4ad4:	085d0b00 	ldmdaeq	sp, {r8, r9, fp}^
    4ad8:	49050000 	stmdbmi	r5, {}	; <UNPREDICTABLE>
    4adc:	00000246 	andeq	r0, r0, r6, asr #4
    4ae0:	06ef0b00 	strbteq	r0, [pc], r0, lsl #22
    4ae4:	4a050000 	bmi	144aec <__bss_end__+0x13a0f4>
    4ae8:	00000246 	andeq	r0, r0, r6, asr #4
    4aec:	0b061280 	bleq	1894f4 <__bss_end__+0x17eafc>
    4af0:	4c050000 	stcmi	0, cr0, [r5], {-0}
    4af4:	00000119 	andeq	r0, r0, r9, lsl r1
    4af8:	d6120100 	ldrle	r0, [r2], -r0, lsl #2
    4afc:	05000007 	streq	r0, [r0, #-7]
    4b00:	0001194f 	andeq	r1, r1, pc, asr #18
    4b04:	00010400 	andeq	r0, r1, r0, lsl #8
    4b08:	00010508 	andeq	r0, r1, r8, lsl #10
    4b0c:	00025600 	andeq	r5, r2, r0, lsl #12
    4b10:	00c70900 	sbceq	r0, r7, r0, lsl #18
    4b14:	001f0000 	andseq	r0, pc, r0
    4b18:	00098311 	andeq	r8, r9, r1, lsl r3
    4b1c:	05019000 	streq	r9, [r1, #-0]
    4b20:	0002945b 	andeq	r9, r2, fp, asr r4
    4b24:	0a0b0b00 	beq	2c772c <__bss_end__+0x2bcd34>
    4b28:	5c050000 	stcpl	0, cr0, [r5], {-0}
    4b2c:	00000294 	muleq	r0, r4, r2
    4b30:	0a230b00 	beq	8c7738 <__bss_end__+0x8bcd40>
    4b34:	5d050000 	stcpl	0, cr0, [r5, #-0]
    4b38:	00000025 	andeq	r0, r0, r5, lsr #32
    4b3c:	08710b04 	ldmdaeq	r1!, {r2, r8, r9, fp}^
    4b40:	5f050000 	svcpl	0x00050000
    4b44:	0000029a 	muleq	r0, sl, r2
    4b48:	07b10b08 	ldreq	r0, [r1, r8, lsl #22]!
    4b4c:	60050000 	andvs	r0, r5, r0
    4b50:	00000206 	andeq	r0, r0, r6, lsl #4
    4b54:	040d0088 	streq	r0, [sp], #-136	; 0x88
    4b58:	00000256 	andeq	r0, r0, r6, asr r2
    4b5c:	0002aa08 	andeq	sl, r2, r8, lsl #20
    4b60:	0002aa00 	andeq	sl, r2, r0, lsl #20
    4b64:	00c70900 	sbceq	r0, r7, r0, lsl #18
    4b68:	001f0000 	andseq	r0, pc, r0
    4b6c:	02b0040d 	adcseq	r0, r0, #218103808	; 0xd000000
    4b70:	0f130000 	svceq	0x00130000
    4b74:	000009d6 	ldrdeq	r0, [r0], -r6
    4b78:	d6730508 	ldrbtle	r0, [r3], -r8, lsl #10
    4b7c:	0b000002 	bleq	4b8c <_start-0x3474>
    4b80:	00000797 	muleq	r0, r7, r7
    4b84:	02d67405 	sbcseq	r7, r6, #83886080	; 0x5000000
    4b88:	0b000000 	bleq	4b90 <_start-0x3470>
    4b8c:	000006fb 	strdeq	r0, [r0], -fp
    4b90:	00257505 	eoreq	r7, r5, r5, lsl #10
    4b94:	00040000 	andeq	r0, r4, r0
    4b98:	004f040d 	subeq	r0, pc, sp, lsl #8
    4b9c:	f50f0000 			; <UNDEFINED> instruction: 0xf50f0000
    4ba0:	68000009 	stmdavs	r0, {r0, r3}
    4ba4:	0406b305 	streq	fp, [r6], #-773	; 0x305
    4ba8:	5f100000 	svcpl	0x00100000
    4bac:	b4050070 	strlt	r0, [r5], #-112	; 0x70
    4bb0:	000002d6 	ldrdeq	r0, [r0], -r6
    4bb4:	725f1000 	subsvc	r1, pc, #0
    4bb8:	25b50500 	ldrcs	r0, [r5, #1280]!	; 0x500
    4bbc:	04000000 	streq	r0, [r0], #-0
    4bc0:	00775f10 	rsbseq	r5, r7, r0, lsl pc
    4bc4:	0025b605 	eoreq	fp, r5, r5, lsl #12
    4bc8:	0b080000 	bleq	204bd0 <__bss_end__+0x1fa1d8>
    4bcc:	000007cf 	andeq	r0, r0, pc, asr #15
    4bd0:	003ab705 	eorseq	fp, sl, r5, lsl #14
    4bd4:	0b0c0000 	bleq	304bdc <__bss_end__+0x2fa1e4>
    4bd8:	000008e2 	andeq	r0, r0, r2, ror #17
    4bdc:	003ab805 	eorseq	fp, sl, r5, lsl #16
    4be0:	100e0000 	andne	r0, lr, r0
    4be4:	0066625f 	rsbeq	r6, r6, pc, asr r2
    4be8:	02b1b905 	adcseq	fp, r1, #81920	; 0x14000
    4bec:	0b100000 	bleq	404bf4 <__bss_end__+0x3fa1fc>
    4bf0:	0000073e 	andeq	r0, r0, lr, lsr r7
    4bf4:	0025ba05 	eoreq	fp, r5, r5, lsl #20
    4bf8:	0b180000 	bleq	604c00 <__bss_end__+0x5fa208>
    4bfc:	000007bf 			; <UNDEFINED> instruction: 0x000007bf
    4c00:	0105c105 	tsteq	r5, r5, lsl #2
    4c04:	0b1c0000 	bleq	704c0c <__bss_end__+0x6fa214>
    4c08:	00000c72 	andeq	r0, r0, r2, ror ip
    4c0c:	0561c305 	strbeq	ip, [r1, #-773]!	; 0x305
    4c10:	0b200000 	bleq	804c18 <__bss_end__+0x7fa220>
    4c14:	00000c8c 	andeq	r0, r0, ip, lsl #25
    4c18:	058bc505 	streq	ip, [fp, #1285]	; 0x505
    4c1c:	0b240000 	bleq	904c24 <__bss_end__+0x8fa22c>
    4c20:	00000a67 	andeq	r0, r0, r7, ror #20
    4c24:	05afc805 	streq	ip, [pc, #2053]!	; 5431 <_start-0x2bcf>
    4c28:	0b280000 	bleq	a04c30 <__bss_end__+0x9fa238>
    4c2c:	00000c2c 	andeq	r0, r0, ip, lsr #24
    4c30:	05c9c905 	strbeq	ip, [r9, #2309]	; 0x905
    4c34:	102c0000 	eorne	r0, ip, r0
    4c38:	0062755f 	rsbeq	r7, r2, pc, asr r5
    4c3c:	02b1cc05 	adcseq	ip, r1, #1280	; 0x500
    4c40:	10300000 	eorsne	r0, r0, r0
    4c44:	0070755f 	rsbseq	r7, r0, pc, asr r5
    4c48:	02d6cd05 	sbcseq	ip, r6, #320	; 0x140
    4c4c:	10380000 	eorsne	r0, r8, r0
    4c50:	0072755f 	rsbseq	r7, r2, pc, asr r5
    4c54:	0025ce05 	eoreq	ip, r5, r5, lsl #28
    4c58:	0b3c0000 	bleq	f04c60 <__bss_end__+0xefa268>
    4c5c:	00000782 	andeq	r0, r0, r2, lsl #15
    4c60:	05cfd105 	strbeq	sp, [pc, #261]	; 4d6d <_start-0x3293>
    4c64:	0b400000 	bleq	1004c6c <__bss_end__+0xffa274>
    4c68:	00000bd7 	ldrdeq	r0, [r0], -r7
    4c6c:	05dfd205 	ldrbeq	sp, [pc, #517]	; 4e79 <_start-0x3187>
    4c70:	10430000 	subne	r0, r3, r0
    4c74:	00626c5f 	rsbeq	r6, r2, pc, asr ip
    4c78:	02b1d505 	adcseq	sp, r1, #20971520	; 0x1400000
    4c7c:	0b440000 	bleq	1104c84 <__bss_end__+0x10fa28c>
    4c80:	000007e5 	andeq	r0, r0, r5, ror #15
    4c84:	0025d805 	eoreq	sp, r5, r5, lsl #16
    4c88:	0b4c0000 	bleq	1304c90 <__bss_end__+0x12fa298>
    4c8c:	00000959 	andeq	r0, r0, r9, asr r9
    4c90:	0076d905 	rsbseq	sp, r6, r5, lsl #18
    4c94:	0b500000 	bleq	1404c9c <__bss_end__+0x13fa2a4>
    4c98:	00000268 	andeq	r0, r0, r8, ror #4
    4c9c:	0424dc05 	strteq	sp, [r4], #-3077	; 0xc05
    4ca0:	0b540000 	bleq	1504ca8 <__bss_end__+0x14fa2b0>
    4ca4:	00000941 	andeq	r0, r0, r1, asr #18
    4ca8:	00fae005 	rscseq	lr, sl, r5
    4cac:	0b580000 	bleq	1604cb4 <__bss_end__+0x15fa2bc>
    4cb0:	000009fd 	strdeq	r0, [r0], -sp
    4cb4:	00efe205 	rsceq	lr, pc, r5, lsl #4
    4cb8:	0b5c0000 	bleq	1704cc0 <__bss_end__+0x16fa2c8>
    4cbc:	00000947 	andeq	r0, r0, r7, asr #18
    4cc0:	0025e305 	eoreq	lr, r5, r5, lsl #6
    4cc4:	00640000 	rsbeq	r0, r4, r0
    4cc8:	00002514 	andeq	r2, r0, r4, lsl r5
    4ccc:	00042400 	andeq	r2, r4, r0, lsl #8
    4cd0:	04241500 	strteq	r1, [r4], #-1280	; 0x500
    4cd4:	05150000 	ldreq	r0, [r5, #-0]
    4cd8:	15000001 	strne	r0, [r0, #-1]
    4cdc:	00000107 	andeq	r0, r0, r7, lsl #2
    4ce0:	00002515 	andeq	r2, r0, r5, lsl r5
    4ce4:	040d0000 	streq	r0, [sp], #-0
    4ce8:	0000042f 	andeq	r0, r0, pc, lsr #8
    4cec:	0004240e 	andeq	r2, r4, lr, lsl #8
    4cf0:	0a4a1600 	beq	128a4f8 <__bss_end__+0x127fb00>
    4cf4:	04280000 	strteq	r0, [r8], #-0
    4cf8:	61023805 	tstvs	r2, r5, lsl #16
    4cfc:	17000005 	strne	r0, [r0, -r5]
    4d00:	000009c5 	andeq	r0, r0, r5, asr #19
    4d04:	25023a05 	strcs	r3, [r2, #-2565]	; 0xa05
    4d08:	00000000 	andeq	r0, r0, r0
    4d0c:	0007de17 	andeq	sp, r7, r7, lsl lr
    4d10:	023f0500 	eorseq	r0, pc, #0, 10
    4d14:	00000636 	andeq	r0, r0, r6, lsr r6
    4d18:	08d21704 	ldmeq	r2, {r2, r8, r9, sl, ip}^
    4d1c:	3f050000 	svccc	0x00050000
    4d20:	00063602 	andeq	r3, r6, r2, lsl #12
    4d24:	93170800 	tstls	r7, #0, 16
    4d28:	05000008 	streq	r0, [r0, #-8]
    4d2c:	0636023f 			; <UNDEFINED> instruction: 0x0636023f
    4d30:	170c0000 	strne	r0, [ip, -r0]
    4d34:	00000a1e 	andeq	r0, r0, lr, lsl sl
    4d38:	25024105 	strcs	r4, [r2, #-261]	; 0x105
    4d3c:	10000000 	andne	r0, r0, r0
    4d40:	00070917 	andeq	r0, r7, r7, lsl r9
    4d44:	02420500 	subeq	r0, r2, #0, 10
    4d48:	00000818 	andeq	r0, r0, r8, lsl r8
    4d4c:	0b3c1714 	bleq	f0a9a4 <__bss_end__+0xefffac>
    4d50:	44050000 	strmi	r0, [r5], #-0
    4d54:	00002502 	andeq	r2, r0, r2, lsl #10
    4d58:	28173000 	ldmdacs	r7, {ip, sp}
    4d5c:	0500000a 	streq	r0, [r0, #-10]
    4d60:	05850245 	streq	r0, [r5, #581]	; 0x245
    4d64:	17340000 	ldrne	r0, [r4, -r0]!
    4d68:	0000098b 	andeq	r0, r0, fp, lsl #19
    4d6c:	25024705 	strcs	r4, [r2, #-1797]	; 0x705
    4d70:	38000000 	stmdacc	r0, {}	; <UNPREDICTABLE>
    4d74:	000a3817 	andeq	r3, sl, r7, lsl r8
    4d78:	02490500 	subeq	r0, r9, #0, 10
    4d7c:	00000833 	andeq	r0, r0, r3, lsr r8
    4d80:	091d173c 	ldmdbeq	sp, {r2, r3, r4, r5, r8, r9, sl, ip}
    4d84:	4c050000 	stcmi	0, cr0, [r5], {-0}
    4d88:	00017702 	andeq	r7, r1, r2, lsl #14
    4d8c:	b2174000 	andslt	r4, r7, #0
    4d90:	05000008 	streq	r0, [r0, #-8]
    4d94:	0025024d 	eoreq	r0, r5, sp, asr #4
    4d98:	17440000 	strbne	r0, [r4, -r0]
    4d9c:	00000c46 	andeq	r0, r0, r6, asr #24
    4da0:	77024e05 	strvc	r4, [r2, -r5, lsl #28]
    4da4:	48000001 	stmdami	r0, {r0}
    4da8:	0009a217 	andeq	sl, r9, r7, lsl r2
    4dac:	024f0500 	subeq	r0, pc, #0, 10
    4db0:	00000839 	andeq	r0, r0, r9, lsr r8
    4db4:	08da174c 	ldmeq	sl, {r2, r3, r6, r8, r9, sl, ip}^
    4db8:	52050000 	andpl	r0, r5, #0
    4dbc:	00002502 	andeq	r2, r0, r2, lsl #10
    4dc0:	01175000 	tsteq	r7, r0
    4dc4:	05000008 	streq	r0, [r0, #-8]
    4dc8:	01070253 	tsteq	r7, r3, asr r2
    4dcc:	17540000 	ldrbne	r0, [r4, -r0]
    4dd0:	000009be 			; <UNDEFINED> instruction: 0x000009be
    4dd4:	f6027605 			; <UNDEFINED> instruction: 0xf6027605
    4dd8:	58000007 	stmdapl	r0, {r0, r1, r2}
    4ddc:	00098318 	andeq	r8, r9, r8, lsl r3
    4de0:	027a0500 	rsbseq	r0, sl, #0, 10
    4de4:	00000294 	muleq	r0, r4, r2
    4de8:	ef180148 	svc	0x00180148
    4dec:	05000008 	streq	r0, [r0, #-8]
    4df0:	0256027b 	subseq	r0, r6, #-1342177273	; 0xb0000007
    4df4:	014c0000 	mrseq	r0, (UNDEF: 76)
    4df8:	000ba818 	andeq	sl, fp, r8, lsl r8
    4dfc:	027f0500 	rsbseq	r0, pc, #0, 10
    4e00:	0000084a 	andeq	r0, r0, sl, asr #16
    4e04:	c71802dc 			; <UNDEFINED> instruction: 0xc71802dc
    4e08:	05000007 	streq	r0, [r0, #-7]
    4e0c:	05fb0284 	ldrbeq	r0, [fp, #644]!	; 0x284
    4e10:	02e00000 	rsceq	r0, r0, #0
    4e14:	0007ac18 	andeq	sl, r7, r8, lsl ip
    4e18:	02850500 	addeq	r0, r5, #0, 10
    4e1c:	00000856 	andeq	r0, r0, r6, asr r8
    4e20:	0d0002ec 	sfmeq	f0, 4, [r0, #-944]	; 0xfffffc50
    4e24:	00040604 	andeq	r0, r4, r4, lsl #12
    4e28:	00251400 	eoreq	r1, r5, r0, lsl #8
    4e2c:	05850000 	streq	r0, [r5]
    4e30:	24150000 	ldrcs	r0, [r5], #-0
    4e34:	15000004 	strne	r0, [r0, #-4]
    4e38:	00000105 	andeq	r0, r0, r5, lsl #2
    4e3c:	00058515 	andeq	r8, r5, r5, lsl r5
    4e40:	00251500 	eoreq	r1, r5, r0, lsl #10
    4e44:	0d000000 	stceq	0, cr0, [r0, #-0]
    4e48:	00011404 	andeq	r1, r1, r4, lsl #8
    4e4c:	67040d00 	strvs	r0, [r4, -r0, lsl #26]
    4e50:	14000005 	strne	r0, [r0], #-5
    4e54:	00000081 	andeq	r0, r0, r1, lsl #1
    4e58:	000005af 	andeq	r0, r0, pc, lsr #11
    4e5c:	00042415 	andeq	r2, r4, r5, lsl r4
    4e60:	01051500 	tsteq	r5, r0, lsl #10
    4e64:	81150000 	tsthi	r5, r0
    4e68:	15000000 	strne	r0, [r0, #-0]
    4e6c:	00000025 	andeq	r0, r0, r5, lsr #32
    4e70:	91040d00 	tstls	r4, r0, lsl #26
    4e74:	14000005 	strne	r0, [r0], #-5
    4e78:	00000025 	andeq	r0, r0, r5, lsr #32
    4e7c:	000005c9 	andeq	r0, r0, r9, asr #11
    4e80:	00042415 	andeq	r2, r4, r5, lsl r4
    4e84:	01051500 	tsteq	r5, r0, lsl #10
    4e88:	0d000000 	stceq	0, cr0, [r0, #-0]
    4e8c:	0005b504 	andeq	fp, r5, r4, lsl #10
    4e90:	004f0800 	subeq	r0, pc, r0, lsl #16
    4e94:	05df0000 	ldrbeq	r0, [pc]	; 4e9c <_start-0x3164>
    4e98:	c7090000 	strgt	r0, [r9, -r0]
    4e9c:	02000000 	andeq	r0, r0, #0
    4ea0:	004f0800 	subeq	r0, pc, r0, lsl #16
    4ea4:	05ef0000 	strbeq	r0, [pc, #0]!	; 4eac <_start-0x3154>
    4ea8:	c7090000 	strgt	r0, [r9, -r0]
    4eac:	00000000 	andeq	r0, r0, r0
    4eb0:	09e30500 	stmibeq	r3!, {r8, sl}^
    4eb4:	1d050000 	stcne	0, cr0, [r5, #-0]
    4eb8:	0002dc01 	andeq	sp, r2, r1, lsl #24
    4ebc:	0b6a1900 	bleq	1a8b2c4 <__bss_end__+0x1a808cc>
    4ec0:	050c0000 	streq	r0, [ip, #-0]
    4ec4:	06300121 	ldrteq	r0, [r0], -r1, lsr #2
    4ec8:	0b170000 	bleq	5c4ed0 <__bss_end__+0x5ba4d8>
    4ecc:	0500000a 	streq	r0, [r0, #-10]
    4ed0:	06300123 	ldrteq	r0, [r0], -r3, lsr #2
    4ed4:	17000000 	strne	r0, [r0, -r0]
    4ed8:	000008e8 	andeq	r0, r0, r8, ror #17
    4edc:	25012405 	strcs	r2, [r1, #-1029]	; 0x405
    4ee0:	04000000 	streq	r0, [r0], #-0
    4ee4:	0009dd17 	andeq	sp, r9, r7, lsl sp
    4ee8:	01250500 	teqeq	r5, r0, lsl #10
    4eec:	00000636 	andeq	r0, r0, r6, lsr r6
    4ef0:	040d0008 	streq	r0, [sp], #-8
    4ef4:	000005fb 	strdeq	r0, [r0], -fp
    4ef8:	05ef040d 	strbeq	r0, [pc, #1037]!	; 530d <_start-0x2cf3>
    4efc:	01190000 	tsteq	r9, r0
    4f00:	0e000007 	cdpeq	0, 0, cr0, cr0, cr7, {0}
    4f04:	71013d05 	tstvc	r1, r5, lsl #26
    4f08:	17000006 	strne	r0, [r0, -r6]
    4f0c:	00000a51 	andeq	r0, r0, r1, asr sl
    4f10:	71013e05 	tstvc	r1, r5, lsl #28
    4f14:	00000006 	andeq	r0, r0, r6
    4f18:	000a8b17 	andeq	r8, sl, r7, lsl fp
    4f1c:	013f0500 	teqeq	pc, r0, lsl #10
    4f20:	00000671 	andeq	r0, r0, r1, ror r6
    4f24:	0b0f1706 	bleq	3cab44 <__bss_end__+0x3c014c>
    4f28:	40050000 	andmi	r0, r5, r0
    4f2c:	00005601 	andeq	r5, r0, r1, lsl #12
    4f30:	08000c00 	stmdaeq	r0, {sl, fp}
    4f34:	00000056 	andeq	r0, r0, r6, asr r0
    4f38:	00000681 	andeq	r0, r0, r1, lsl #13
    4f3c:	0000c709 	andeq	ip, r0, r9, lsl #14
    4f40:	1a000200 	bne	5748 <_start-0x28b8>
    4f44:	025705d0 	subseq	r0, r7, #208, 10	; 0x34000000
    4f48:	00000782 	andeq	r0, r0, r2, lsl #15
    4f4c:	000b4e17 	andeq	r4, fp, r7, lsl lr
    4f50:	02590500 	subseq	r0, r9, #0, 10
    4f54:	0000002c 	andeq	r0, r0, ip, lsr #32
    4f58:	0af91700 	beq	ffe4ab60 <__bss_end__+0xffe40168>
    4f5c:	5a050000 	bpl	144f64 <__bss_end__+0x13a56c>
    4f60:	00010702 	andeq	r0, r1, r2, lsl #14
    4f64:	04170400 	ldreq	r0, [r7], #-1024	; 0x400
    4f68:	05000009 	streq	r0, [r0, #-9]
    4f6c:	0782025b 			; <UNDEFINED> instruction: 0x0782025b
    4f70:	17080000 	strne	r0, [r8, -r0]
    4f74:	00000c1d 	andeq	r0, r0, sp, lsl ip
    4f78:	8d025c05 	stchi	12, cr5, [r2, #-20]	; 0xffffffec
    4f7c:	24000001 	strcs	r0, [r0], #-1
    4f80:	0008a317 	andeq	sl, r8, r7, lsl r3
    4f84:	025d0500 	subseq	r0, sp, #0, 10
    4f88:	00000025 	andeq	r0, r0, r5, lsr #32
    4f8c:	0a061748 	beq	18acb4 <__bss_end__+0x1802bc>
    4f90:	5e050000 	cdppl	0, 0, cr0, cr5, cr0, {0}
    4f94:	00006402 	andeq	r6, r0, r2, lsl #8
    4f98:	33175000 	tstcc	r7, #0
    4f9c:	0500000c 	streq	r0, [r0, #-12]
    4fa0:	063c025f 			; <UNDEFINED> instruction: 0x063c025f
    4fa4:	17580000 	ldrbne	r0, [r8, -r0]
    4fa8:	00000a11 	andeq	r0, r0, r1, lsl sl
    4fac:	ef026005 	svc	0x00026005
    4fb0:	68000000 	stmdavs	r0, {}	; <UNPREDICTABLE>
    4fb4:	000c3817 	andeq	r3, ip, r7, lsl r8
    4fb8:	02610500 	rsbeq	r0, r1, #0, 10
    4fbc:	000000ef 	andeq	r0, r0, pc, ror #1
    4fc0:	07661770 			; <UNDEFINED> instruction: 0x07661770
    4fc4:	62050000 	andvs	r0, r5, #0
    4fc8:	0000ef02 	andeq	lr, r0, r2, lsl #30
    4fcc:	8a177800 	bhi	5e2fd4 <__bss_end__+0x5d85dc>
    4fd0:	0500000b 	streq	r0, [r0, #-11]
    4fd4:	07920263 	ldreq	r0, [r2, r3, ror #4]
    4fd8:	17800000 	strne	r0, [r0, r0]
    4fdc:	000008f8 	strdeq	r0, [r0], -r8
    4fe0:	a2026405 	andge	r6, r2, #83886080	; 0x5000000
    4fe4:	88000007 	stmdahi	r0, {r0, r1, r2}
    4fe8:	000b1c17 	andeq	r1, fp, r7, lsl ip
    4fec:	02650500 	rsbeq	r0, r5, #0, 10
    4ff0:	00000025 	andeq	r0, r0, r5, lsr #32
    4ff4:	084f17a0 	stmdaeq	pc, {r5, r7, r8, r9, sl, ip}^	; <UNPREDICTABLE>
    4ff8:	66050000 	strvs	r0, [r5], -r0
    4ffc:	0000ef02 	andeq	lr, r0, r2, lsl #30
    5000:	5717a400 	ldrpl	sl, [r7, -r0, lsl #8]
    5004:	05000007 	streq	r0, [r0, #-7]
    5008:	00ef0267 	rsceq	r0, pc, r7, ror #4
    500c:	17ac0000 	strne	r0, [ip, r0]!
    5010:	0000083e 	andeq	r0, r0, lr, lsr r8
    5014:	ef026805 	svc	0x00026805
    5018:	b4000000 	strlt	r0, [r0], #-0
    501c:	00071e17 	andeq	r1, r7, r7, lsl lr
    5020:	02690500 	rsbeq	r0, r9, #0, 10
    5024:	000000ef 	andeq	r0, r0, pc, ror #1
    5028:	072d17bc 			; <UNDEFINED> instruction: 0x072d17bc
    502c:	6a050000 	bvs	145034 <__bss_end__+0x13a63c>
    5030:	0000ef02 	andeq	lr, r0, r2, lsl #30
    5034:	c317c400 	tstgt	r7, #0, 8
    5038:	05000009 	streq	r0, [r0, #-9]
    503c:	0025026b 	eoreq	r0, r5, fp, ror #4
    5040:	00cc0000 	sbceq	r0, ip, r0
    5044:	00010d08 	andeq	r0, r1, r8, lsl #26
    5048:	00079200 	andeq	r9, r7, r0, lsl #4
    504c:	00c70900 	sbceq	r0, r7, r0, lsl #18
    5050:	00190000 	andseq	r0, r9, r0
    5054:	00010d08 	andeq	r0, r1, r8, lsl #26
    5058:	0007a200 	andeq	sl, r7, r0, lsl #4
    505c:	00c70900 	sbceq	r0, r7, r0, lsl #18
    5060:	00070000 	andeq	r0, r7, r0
    5064:	00010d08 	andeq	r0, r1, r8, lsl #26
    5068:	0007b200 	andeq	fp, r7, r0, lsl #4
    506c:	00c70900 	sbceq	r0, r7, r0, lsl #18
    5070:	00170000 	andseq	r0, r7, r0
    5074:	7005f01a 	andvc	pc, r5, sl, lsl r0	; <UNPREDICTABLE>
    5078:	0007d602 	andeq	sp, r7, r2, lsl #12
    507c:	09731700 	ldmdbeq	r3!, {r8, r9, sl, ip}^
    5080:	73050000 	movwvc	r0, #20480	; 0x5000
    5084:	0007d602 	andeq	sp, r7, r2, lsl #12
    5088:	81170000 	tsthi	r7, r0
    508c:	0500000b 	streq	r0, [r0, #-11]
    5090:	07e60274 			; <UNDEFINED> instruction: 0x07e60274
    5094:	00780000 	rsbseq	r0, r8, r0
    5098:	0002d608 	andeq	sp, r2, r8, lsl #12
    509c:	0007e600 	andeq	lr, r7, r0, lsl #12
    50a0:	00c70900 	sbceq	r0, r7, r0, lsl #18
    50a4:	001d0000 	andseq	r0, sp, r0
    50a8:	00002c08 	andeq	r2, r0, r8, lsl #24
    50ac:	0007f600 	andeq	pc, r7, r0, lsl #12
    50b0:	00c70900 	sbceq	r0, r7, r0, lsl #18
    50b4:	001d0000 	andseq	r0, sp, r0
    50b8:	5505f01b 	strpl	pc, [r5, #-27]
    50bc:	00081802 	andeq	r1, r8, r2, lsl #16
    50c0:	0a4a1c00 	beq	128c0c8 <__bss_end__+0x12816d0>
    50c4:	6c050000 	stcvs	0, cr0, [r5], {-0}
    50c8:	00068102 	andeq	r8, r6, r2, lsl #2
    50cc:	0bdd1c00 	bleq	ff74c0d4 <__bss_end__+0xff7416dc>
    50d0:	75050000 	strvc	r0, [r5, #-0]
    50d4:	0007b202 	andeq	fp, r7, r2, lsl #4
    50d8:	0d080000 	stceq	0, cr0, [r8, #-0]
    50dc:	28000001 	stmdacs	r0, {r0}
    50e0:	09000008 	stmdbeq	r0, {r3}
    50e4:	000000c7 	andeq	r0, r0, r7, asr #1
    50e8:	331d0018 	tstcc	sp, #24
    50ec:	15000008 	strne	r0, [r0, #-8]
    50f0:	00000424 	andeq	r0, r0, r4, lsr #8
    50f4:	28040d00 	stmdacs	r4, {r8, sl, fp}
    50f8:	0d000008 	stceq	0, cr0, [r0, #-32]	; 0xffffffe0
    50fc:	00017704 	andeq	r7, r1, r4, lsl #14
    5100:	084a1d00 	stmdaeq	sl, {r8, sl, fp, ip}^
    5104:	25150000 	ldrcs	r0, [r5, #-0]
    5108:	00000000 	andeq	r0, r0, r0
    510c:	0850040d 	ldmdaeq	r0, {r0, r2, r3, sl}^
    5110:	040d0000 	streq	r0, [sp], #-0
    5114:	0000083f 	andeq	r0, r0, pc, lsr r8
    5118:	0005ef08 	andeq	lr, r5, r8, lsl #30
    511c:	00086600 	andeq	r6, r8, r0, lsl #12
    5120:	00c70900 	sbceq	r0, r7, r0, lsl #18
    5124:	00020000 	andeq	r0, r2, r0
    5128:	000b301e 	andeq	r3, fp, lr, lsl r0
    512c:	02fd0500 	rscseq	r0, sp, #0, 10
    5130:	00000424 	andeq	r0, r0, r4, lsr #8
    5134:	000b291e 	andeq	r2, fp, lr, lsl r9
    5138:	02fe0500 	rscseq	r0, lr, #0, 10
    513c:	0000042a 	andeq	r0, r0, sl, lsr #8
    5140:	00002514 	andeq	r2, r0, r4, lsl r5
    5144:	00088d00 	andeq	r8, r8, r0, lsl #26
    5148:	00251500 	eoreq	r1, r5, r0, lsl #10
    514c:	1f000000 	svcne	0x00000000
    5150:	00000533 	andeq	r0, r0, r3, lsr r5
    5154:	08981d06 	ldmeq	r8, {r1, r2, r8, sl, fp, ip}
    5158:	040d0000 	streq	r0, [sp], #-0
    515c:	0000087e 	andeq	r0, r0, lr, ror r8
    5160:	00002514 	andeq	r2, r0, r4, lsl r5
    5164:	0008ad00 	andeq	sl, r8, r0, lsl #26
    5168:	05851500 	streq	r1, [r5, #1280]	; 0x500
    516c:	1f000000 	svcne	0x00000000
    5170:	00000570 	andeq	r0, r0, r0, ror r5
    5174:	08b82206 	ldmeq	r8!, {r1, r2, r9, sp}
    5178:	040d0000 	streq	r0, [sp], #-0
    517c:	0000089e 	muleq	r0, lr, r8
    5180:	ff040803 			; <UNDEFINED> instruction: 0xff040803
    5184:	1f00000c 	svcne	0x0000000c
    5188:	00000d37 	andeq	r0, r0, r7, lsr sp
    518c:	010d0d01 	tsteq	sp, r1, lsl #26
    5190:	35200000 	strcc	r0, [r0, #-0]!
    5194:	01000004 	tsteq	r0, r4
    5198:	0001070e 	andeq	r0, r1, lr, lsl #14
    519c:	c8030500 	stmdagt	r3, {r8, sl}
    51a0:	2000009b 	mulcs	r0, fp, r0
    51a4:	00000d4e 	andeq	r0, r0, lr, asr #26
    51a8:	01070f01 	tsteq	r7, r1, lsl #30
    51ac:	03050000 	movweq	r0, #20480	; 0x5000
    51b0:	00009bcc 	andeq	r9, r0, ip, asr #23
    51b4:	000d1021 	andeq	r1, sp, r1, lsr #32
    51b8:	98380100 	ldmdals	r8!, {r8}
    51bc:	1000009b 	mulne	r0, fp, r0
    51c0:	01000000 	mrseq	r0, (UNDEF: 0)
    51c4:	0009139c 	muleq	r9, ip, r3
    51c8:	00702200 	rsbseq	r2, r0, r0, lsl #4
    51cc:	01053801 	tsteq	r5, r1, lsl #16
    51d0:	50010000 	andpl	r0, r1, r0
    51d4:	0d062300 	stceq	3, cr2, [r6, #-0]
    51d8:	37010000 	strcc	r0, [r1, -r0]
    51dc:	00009b84 	andeq	r9, r0, r4, lsl #23
    51e0:	00000014 	andeq	r0, r0, r4, lsl r0
    51e4:	5d219c01 	stcpl	12, cr9, [r1, #-4]!
    51e8:	01000002 	tsteq	r0, r2
    51ec:	009b8036 	addseq	r8, fp, r6, lsr r0
    51f0:	00000400 	andeq	r0, r0, r0, lsl #8
    51f4:	459c0100 	ldrmi	r0, [ip, #256]	; 0x100
    51f8:	22000009 	andcs	r0, r0, #9
    51fc:	36010070 			; <UNDEFINED> instruction: 0x36010070
    5200:	00000105 	andeq	r0, r0, r5, lsl #2
    5204:	24005001 	strcs	r5, [r0], #-1
    5208:	00000cef 	andeq	r0, r0, pc, ror #25
    520c:	01052901 	tsteq	r5, r1, lsl #18
    5210:	9af40000 	bls	ffd05218 <__bss_end__+0xffcfa820>
    5214:	008c0000 	addeq	r0, ip, r0
    5218:	9c010000 	stcls	0, cr0, [r1], {-0}
    521c:	00000a30 	andeq	r0, r0, r0, lsr sl
    5220:	00035f25 	andeq	r5, r3, r5, lsr #30
    5224:	2c290100 	stfcss	f0, [r9], #-0
    5228:	9f000000 	svcls	0x00000000
    522c:	25000016 	strcs	r0, [r0, #-22]
    5230:	00000d2d 	andeq	r0, r0, sp, lsr #26
    5234:	002c2901 	eoreq	r2, ip, r1, lsl #18
    5238:	16f20000 	ldrbtne	r0, [r2], r0
    523c:	13260000 	teqne	r6, #0
    5240:	40000001 	andmi	r0, r0, r1
    5244:	0500000a 	streq	r0, [r0, #-10]
    5248:	00a4c403 	adceq	ip, r4, r3, lsl #8
    524c:	00682700 	rsbeq	r2, r8, r0, lsl #14
    5250:	002c2e01 	eoreq	r2, ip, r1, lsl #28
    5254:	17390000 	ldrne	r0, [r9, -r0]!
    5258:	30280000 	eorcc	r0, r8, r0
    525c:	7900009b 	stmdbvc	r0, {r0, r1, r3, r4, r7}
    5260:	ad00000a 	stcge	0, cr0, [r0, #-40]	; 0xffffffd8
    5264:	29000009 	stmdbcs	r0, {r0, r3}
    5268:	f3035001 	vhadd.u8	d5, d3, d1
    526c:	2a005001 	bcs	19278 <__bss_end__+0xe880>
    5270:	00009b38 	andeq	r9, r0, r8, lsr fp
    5274:	00000bfb 	strdeq	r0, [r0], -fp
    5278:	009b4c28 	addseq	r4, fp, r8, lsr #24
    527c:	000c0600 	andeq	r0, ip, r0, lsl #12
    5280:	0009e500 	andeq	lr, r9, r0, lsl #10
    5284:	50012900 	andpl	r2, r1, r0, lsl #18
    5288:	a5100305 	ldrge	r0, [r0, #-773]	; 0x305
    528c:	01290000 	teqeq	r9, r0
    5290:	d4030551 	strle	r0, [r3], #-1361	; 0x551
    5294:	290000a4 	stmdbcs	r0, {r2, r5, r7}
    5298:	03055201 	movweq	r5, #20993	; 0x5201
    529c:	0000a4c4 	andeq	sl, r0, r4, asr #9
    52a0:	02530129 	subseq	r0, r3, #1073741834	; 0x4000000a
    52a4:	2a002a08 	bcs	facc <__bss_end__+0x50d4>
    52a8:	00009b50 	andeq	r9, r0, r0, asr fp
    52ac:	00000c11 	andeq	r0, r0, r1, lsl ip
    52b0:	009b542a 	addseq	r5, fp, sl, lsr #8
    52b4:	000bfb00 	andeq	pc, fp, r0, lsl #22
    52b8:	9b682800 	blls	1a0f2c0 <__bss_end__+0x1a048c8>
    52bc:	0c060000 	stceq	0, cr0, [r6], {-0}
    52c0:	0a260000 	beq	9852c8 <__bss_end__+0x97a8d0>
    52c4:	01290000 	teqeq	r9, r0
    52c8:	70030550 	andvc	r0, r3, r0, asr r5
    52cc:	290000a5 	stmdbcs	r0, {r0, r2, r5, r7}
    52d0:	03055101 	movweq	r5, #20737	; 0x5101
    52d4:	0000a4d4 	ldrdeq	sl, [r0], -r4
    52d8:	05520129 	ldrbeq	r0, [r2, #-297]	; 0x129
    52dc:	00a4c403 	adceq	ip, r4, r3, lsl #8
    52e0:	53012900 	movwpl	r2, #6400	; 0x1900
    52e4:	00300802 	eorseq	r0, r0, r2, lsl #16
    52e8:	009b6c2a 	addseq	r6, fp, sl, lsr #24
    52ec:	000c1100 	andeq	r1, ip, r0, lsl #2
    52f0:	14080000 	strne	r0, [r8], #-0
    52f4:	40000001 	andmi	r0, r0, r1
    52f8:	0900000a 	stmdbeq	r0, {r1, r3}
    52fc:	000000c7 	andeq	r0, r0, r7, asr #1
    5300:	300e000f 	andcc	r0, lr, pc
    5304:	2400000a 	strcs	r0, [r0], #-10
    5308:	00000d1c 	andeq	r0, r0, ip, lsl sp
    530c:	01052501 	tsteq	r5, r1, lsl #10
    5310:	9ae80000 	bls	ffa05318 <__bss_end__+0xff9fa920>
    5314:	000c0000 	andeq	r0, ip, r0
    5318:	9c010000 	stcls	0, cr0, [r1], {-0}
    531c:	00000a68 	andeq	r0, r0, r8, ror #20
    5320:	009af02a 	addseq	pc, sl, sl, lsr #32
    5324:	000bd100 	andeq	sp, fp, r0, lsl #2
    5328:	e2230000 	eor	r0, r3, #0
    532c:	0100000c 	tsteq	r0, ip
    5330:	009ae424 	addseq	lr, sl, r4, lsr #8
    5334:	00000400 	andeq	r0, r0, r0, lsl #8
    5338:	249c0100 	ldrcs	r0, [ip], #256	; 0x100
    533c:	00000104 	andeq	r0, r0, r4, lsl #2
    5340:	01051a01 	tsteq	r5, r1, lsl #20
    5344:	9a800000 	bls	fe00534c <__bss_end__+0xfdffa954>
    5348:	00640000 	rsbeq	r0, r4, r0
    534c:	9c010000 	stcls	0, cr0, [r1], {-0}
    5350:	00000b24 	andeq	r0, r0, r4, lsr #22
    5354:	007a732b 	rsbseq	r7, sl, fp, lsr #6
    5358:	002c1a01 	eoreq	r1, ip, r1, lsl #20
    535c:	17710000 	ldrbne	r0, [r1, -r0]!
    5360:	13260000 	teqne	r6, #0
    5364:	34000001 	strcc	r0, [r0], #-1
    5368:	0500000b 	streq	r0, [r0, #-11]
    536c:	00a4bc03 	adceq	fp, r4, r3, lsl #24
    5370:	0d5a2c00 	ldcleq	12, cr2, [sl, #-0]
    5374:	1e010000 	cdpne	0, 0, cr0, cr1, cr0, {0}
    5378:	00000105 	andeq	r0, r0, r5, lsl #2
    537c:	000017bb 			; <UNDEFINED> instruction: 0x000017bb
    5380:	009ab028 	addseq	fp, sl, r8, lsr #32
    5384:	000c1c00 	andeq	r1, ip, r0, lsl #24
    5388:	000ae300 	andeq	lr, sl, r0, lsl #6
    538c:	50012900 	andpl	r2, r1, r0, lsl #18
    5390:	29007402 	stmdbcs	r0, {r1, sl, ip, sp, lr}
    5394:	30015101 	andcc	r5, r1, r1, lsl #2
    5398:	08520129 	ldmdaeq	r2, {r0, r3, r5, r8}^
    539c:	235001f3 	cmpcs	r0, #-1073741764	; 0xc000003c
    53a0:	1af80907 	bne	ffe077c4 <__bss_end__+0xffdfcdcc>
    53a4:	9abc2a00 	bls	fef0fbac <__bss_end__+0xfef051b4>
    53a8:	0bfb0000 	bleq	ffec53b0 <__bss_end__+0xffeba9b8>
    53ac:	d0280000 	eorle	r0, r8, r0
    53b0:	0600009a 			; <UNDEFINED> instruction: 0x0600009a
    53b4:	1a00000c 	bne	53ec <_start-0x2c14>
    53b8:	2900000b 	stmdbcs	r0, {r0, r1, r3}
    53bc:	03055001 	movweq	r5, #20481	; 0x5001
    53c0:	0000a4fc 	strdeq	sl, [r0], -ip
    53c4:	05510129 	ldrbeq	r0, [r1, #-297]	; 0x129
    53c8:	00a4d403 	adceq	sp, r4, r3, lsl #8
    53cc:	52012900 	andpl	r2, r1, #0, 18
    53d0:	a4bc0305 	ldrtge	r0, [ip], #773	; 0x305
    53d4:	01290000 	teqeq	r9, r0
    53d8:	004b0153 	subeq	r0, fp, r3, asr r1
    53dc:	009ad42a 	addseq	sp, sl, sl, lsr #8
    53e0:	000c1100 	andeq	r1, ip, r0, lsl #2
    53e4:	14080000 	strne	r0, [r8], #-0
    53e8:	34000001 	strcc	r0, [r0], #-1
    53ec:	0900000b 	stmdbeq	r0, {r0, r1, r3}
    53f0:	000000c7 	andeq	r0, r0, r7, asr #1
    53f4:	240e0007 	strcs	r0, [lr], #-7
    53f8:	2100000b 	tstcs	r0, fp
    53fc:	00000007 	andeq	r0, r0, r7
    5400:	9a301401 	bls	c0a40c <__bss_end__+0xbffa14>
    5404:	00500000 	subseq	r0, r0, r0
    5408:	9c010000 	stcls	0, cr0, [r1], {-0}
    540c:	00000bbc 			; <UNDEFINED> instruction: 0x00000bbc
    5410:	000d5925 	andeq	r5, sp, r5, lsr #18
    5414:	2c140100 	ldfcss	f0, [r4], {-0}
    5418:	ce000000 	cdpgt	0, 0, cr0, cr0, cr0, {0}
    541c:	2c000017 	stccs	0, cr0, [r0], {23}
    5420:	00000d5a 	andeq	r0, r0, sl, asr sp
    5424:	01071501 	tsteq	r7, r1, lsl #10
    5428:	17ef0000 	strbne	r0, [pc, r0]!
    542c:	13260000 	teqne	r6, #0
    5430:	cc000001 	stcgt	0, cr0, [r0], {1}
    5434:	0500000b 	streq	r0, [r0, #-11]
    5438:	00a4a403 	adceq	sl, r4, r3, lsl #8
    543c:	9a582a00 	bls	160fc44 <__bss_end__+0x160524c>
    5440:	0bfb0000 	bleq	ffec5448 <__bss_end__+0xffebaa50>
    5444:	6c280000 	stcvs	0, cr0, [r8], #-0
    5448:	0600009a 			; <UNDEFINED> instruction: 0x0600009a
    544c:	b200000c 	andlt	r0, r0, #12
    5450:	2900000b 	stmdbcs	r0, {r0, r1, r3}
    5454:	03055001 	movweq	r5, #20481	; 0x5001
    5458:	0000a4e0 	andeq	sl, r0, r0, ror #9
    545c:	05510129 	ldrbeq	r0, [r1, #-297]	; 0x129
    5460:	00a4d403 	adceq	sp, r4, r3, lsl #8
    5464:	52012900 	andpl	r2, r1, #0, 18
    5468:	a4a40305 	strtge	r0, [r4], #773	; 0x305
    546c:	01290000 	teqeq	r9, r0
    5470:	00460153 	subeq	r0, r6, r3, asr r1
    5474:	009a702a 	addseq	r7, sl, sl, lsr #32
    5478:	000c1100 	andeq	r1, ip, r0, lsl #2
    547c:	14080000 	strne	r0, [r8], #-0
    5480:	cc000001 	stcgt	0, cr0, [r0], {1}
    5484:	0900000b 	stmdbeq	r0, {r0, r1, r3}
    5488:	000000c7 	andeq	r0, r0, r7, asr #1
    548c:	bc0e0016 	stclt	0, cr0, [lr], {22}
    5490:	2d00000b 	stccs	0, cr0, [r0, #-44]	; 0xffffffd4
    5494:	00000d46 	andeq	r0, r0, r6, asr #26
    5498:	01051201 	tsteq	r5, r1, lsl #4
    549c:	9a240000 	bls	9054a4 <__bss_end__+0x8faaac>
    54a0:	000c0000 	andeq	r0, ip, r0
    54a4:	9c010000 	stcls	0, cr0, [r1], {-0}
    54a8:	000d5f2d 	andeq	r5, sp, sp, lsr #30
    54ac:	05110100 	ldreq	r0, [r1, #-256]	; 0x100
    54b0:	14000001 	strne	r0, [r0], #-1
    54b4:	1000009a 	mulne	r0, sl, r0
    54b8:	01000000 	mrseq	r0, (UNDEF: 0)
    54bc:	02432e9c 	subeq	r2, r3, #156, 28	; 0x9c0
    54c0:	02430000 	subeq	r0, r3, #0
    54c4:	1e060000 	cdpne	0, 0, cr0, cr6, cr0, {0}
    54c8:	0005022e 	andeq	r0, r5, lr, lsr #4
    54cc:	00050200 	andeq	r0, r5, r0, lsl #4
    54d0:	2e290600 	cfmadda32cs	mvax0, mvax0, mvfx9, mvfx0
    54d4:	0000027a 	andeq	r0, r0, sl, ror r2
    54d8:	0000027a 	andeq	r0, r0, sl, ror r2
    54dc:	0c2e6506 	cfstr32eq	mvfx6, [lr], #-24	; 0xffffffe8
    54e0:	0c000001 	stceq	0, cr0, [r0], {1}
    54e4:	07000001 	streq	r0, [r0, -r1]
    54e8:	Address 0x00000000000054e8 is out of bounds.


Disassembly of section .debug_abbrev:

00000000 <.debug_abbrev>:
       0:	25011101 	strcs	r1, [r1, #-257]	; 0x101
       4:	030b130e 	movweq	r1, #45838	; 0xb30e
       8:	110e1b0e 	tstne	lr, lr, lsl #22
       c:	10061201 	andne	r1, r6, r1, lsl #4
      10:	02000017 	andeq	r0, r0, #23
      14:	0b0b0024 	bleq	2c00ac <__bss_end__+0x2b56b4>
      18:	08030b3e 	stmdaeq	r3, {r1, r2, r3, r4, r5, r8, r9, fp}
      1c:	16030000 	strne	r0, [r3], -r0
      20:	3a0e0300 	bcc	380c28 <__bss_end__+0x376230>
      24:	490b3b0b 	stmdbmi	fp, {r0, r1, r3, r8, r9, fp, ip, sp}
      28:	04000013 	streq	r0, [r0], #-19
      2c:	0b0b0024 	bleq	2c00c4 <__bss_end__+0x2b56cc>
      30:	0e030b3e 	vmoveq.16	d3[0], r0
      34:	0f050000 	svceq	0x00050000
      38:	000b0b00 	andeq	r0, fp, r0, lsl #22
      3c:	000f0600 	andeq	r0, pc, r0, lsl #12
      40:	13490b0b 	movtne	r0, #39691	; 0x9b0b
      44:	26070000 	strcs	r0, [r7], -r0
      48:	00134900 	andseq	r4, r3, r0, lsl #18
      4c:	012e0800 	teqeq	lr, r0, lsl #16
      50:	0e03193f 	mcreq	9, 0, r1, cr3, cr15, {1}
      54:	0b3b0b3a 	bleq	ec2d44 <__bss_end__+0xeb834c>
      58:	13491927 	movtne	r1, #39207	; 0x9927
      5c:	06120111 			; <UNDEFINED> instruction: 0x06120111
      60:	42971840 	addsmi	r1, r7, #64, 16	; 0x400000
      64:	00130119 	andseq	r0, r3, r9, lsl r1
      68:	00340900 	eorseq	r0, r4, r0, lsl #18
      6c:	0b3a0e03 	bleq	e83880 <__bss_end__+0xe78e88>
      70:	13490b3b 	movtne	r0, #39739	; 0x9b3b
      74:	193c193f 	ldmdbne	ip!, {r0, r1, r2, r3, r4, r5, r8, fp, ip}
      78:	340a0000 	strcc	r0, [sl], #-0
      7c:	490e0300 	stmdbmi	lr, {r8, r9}
      80:	02193413 	andseq	r3, r9, #318767104	; 0x13000000
      84:	0b000018 	bleq	ec <_start-0x7f14>
      88:	08030034 	stmdaeq	r3, {r2, r4, r5}
      8c:	0b3b0b3a 	bleq	ec2d7c <__bss_end__+0xeb8384>
      90:	17021349 	strne	r1, [r2, -r9, asr #6]
      94:	890c0000 	stmdbhi	ip, {}	; <UNPREDICTABLE>
      98:	11010182 	smlabbne	r1, r2, r1, r0
      9c:	01133101 	tsteq	r3, r1, lsl #2
      a0:	0d000013 	stceq	0, cr0, [r0, #-76]	; 0xffffffb4
      a4:	0001828a 	andeq	r8, r1, sl, lsl #5
      a8:	42911802 	addsmi	r1, r1, #131072	; 0x20000
      ac:	0e000018 	mcreq	0, 0, r0, cr0, cr8, {0}
      b0:	00018289 	andeq	r8, r1, r9, lsl #5
      b4:	13310111 	teqne	r1, #1073741828	; 0x40000004
      b8:	010f0000 	mrseq	r0, CPSR
      bc:	01134901 	tsteq	r3, r1, lsl #18
      c0:	10000013 	andne	r0, r0, r3, lsl r0
      c4:	13490021 	movtne	r0, #36897	; 0x9021
      c8:	00000b2f 	andeq	r0, r0, pc, lsr #22
      cc:	3f012e11 	svccc	0x00012e11
      d0:	3a0e0319 	bcc	380d3c <__bss_end__+0x376344>
      d4:	270b3b0b 	strcs	r3, [fp, -fp, lsl #22]
      d8:	12011119 	andne	r1, r1, #1073741830	; 0x40000006
      dc:	97184006 	ldrls	r4, [r8, -r6]
      e0:	13011942 	movwne	r1, #6466	; 0x1942
      e4:	34120000 	ldrcc	r0, [r2], #-0
      e8:	3a080300 	bcc	200cf0 <__bss_end__+0x1f62f8>
      ec:	490b3b0b 	stmdbmi	fp, {r0, r1, r3, r8, r9, fp, ip, sp}
      f0:	00061c13 	andeq	r1, r6, r3, lsl ip
      f4:	82891300 	addhi	r1, r9, #0, 6
      f8:	01110101 	tsteq	r1, r1, lsl #2
      fc:	00001331 	andeq	r1, r0, r1, lsr r3
     100:	03003414 	movweq	r3, #1044	; 0x414
     104:	3b0b3a0e 	blcc	2ce944 <__bss_end__+0x2c3f4c>
     108:	3f13490b 	svccc	0x0013490b
     10c:	00180219 	andseq	r0, r8, r9, lsl r2
     110:	012e1500 	teqeq	lr, r0, lsl #10
     114:	0e03193f 	mcreq	9, 0, r1, cr3, cr15, {1}
     118:	0b3b0b3a 	bleq	ec2e08 <__bss_end__+0xeb8410>
     11c:	13491927 	movtne	r1, #39207	; 0x9927
     120:	1301193c 	movwne	r1, #6460	; 0x193c
     124:	05160000 	ldreq	r0, [r6, #-0]
     128:	00134900 	andseq	r4, r3, r0, lsl #18
     12c:	00181700 	andseq	r1, r8, r0, lsl #14
     130:	2e180000 	cdpcs	0, 1, cr0, cr8, cr0, {0}
     134:	03193f00 	tsteq	r9, #0, 30
     138:	3b0b3a0e 	blcc	2ce978 <__bss_end__+0x2c3f80>
     13c:	3c19270b 	ldccc	7, cr2, [r9], {11}
     140:	19000019 	stmdbne	r0, {r0, r3, r4}
     144:	193f012e 	ldmdbne	pc!, {r1, r2, r3, r5, r8}	; <UNPREDICTABLE>
     148:	0b3a0e03 	bleq	e8395c <__bss_end__+0xe78f64>
     14c:	19270b3b 	stmdbne	r7!, {r0, r1, r3, r4, r5, r8, r9, fp}
     150:	1301193c 	movwne	r1, #6460	; 0x193c
     154:	2e1a0000 	cdpcs	0, 1, cr0, cr10, cr0, {0}
     158:	03193f01 	tsteq	r9, #1, 30
     15c:	3b0b3a0e 	blcc	2ce99c <__bss_end__+0x2c3fa4>
     160:	3c19270b 	ldccc	7, cr2, [r9], {11}
     164:	00000019 	andeq	r0, r0, r9, lsl r0
     168:	25011101 	strcs	r1, [r1, #-257]	; 0x101
     16c:	030b130e 	movweq	r1, #45838	; 0xb30e
     170:	110e1b0e 	tstne	lr, lr, lsl #22
     174:	10061201 	andne	r1, r6, r1, lsl #4
     178:	02000017 	andeq	r0, r0, #23
     17c:	0b0b0024 	bleq	2c0214 <__bss_end__+0x2b581c>
     180:	08030b3e 	stmdaeq	r3, {r1, r2, r3, r4, r5, r8, r9, fp}
     184:	16030000 	strne	r0, [r3], -r0
     188:	3a0e0300 	bcc	380d90 <__bss_end__+0x376398>
     18c:	490b3b0b 	stmdbmi	fp, {r0, r1, r3, r8, r9, fp, ip, sp}
     190:	04000013 	streq	r0, [r0], #-19
     194:	0b0b0024 	bleq	2c022c <__bss_end__+0x2b5834>
     198:	0e030b3e 	vmoveq.16	d3[0], r0
     19c:	0f050000 	svceq	0x00050000
     1a0:	000b0b00 	andeq	r0, fp, r0, lsl #22
     1a4:	000f0600 	andeq	r0, pc, r0, lsl #12
     1a8:	13490b0b 	movtne	r0, #39691	; 0x9b0b
     1ac:	26070000 	strcs	r0, [r7], -r0
     1b0:	00134900 	andseq	r4, r3, r0, lsl #18
     1b4:	01010800 	tsteq	r1, r0, lsl #16
     1b8:	13011349 	movwne	r1, #4937	; 0x1349
     1bc:	21090000 	mrscs	r0, (UNDEF: 9)
     1c0:	2f134900 	svccs	0x00134900
     1c4:	0a00000b 	beq	1f8 <_start-0x7e08>
     1c8:	0b0b0104 	bleq	2c05e0 <__bss_end__+0x2b5be8>
     1cc:	0b3b0b3a 	bleq	ec2ebc <__bss_end__+0xeb84c4>
     1d0:	00001301 	andeq	r1, r0, r1, lsl #6
     1d4:	0300280b 	movweq	r2, #2059	; 0x80b
     1d8:	000d1c0e 	andeq	r1, sp, lr, lsl #24
     1dc:	01130c00 	tsteq	r3, r0, lsl #24
     1e0:	0b3a0b0b 	bleq	e82e14 <__bss_end__+0xe7841c>
     1e4:	13010b3b 	movwne	r0, #6971	; 0x1b3b
     1e8:	0d0d0000 	stceq	0, cr0, [sp, #-0]
     1ec:	3a0e0300 	bcc	380df4 <__bss_end__+0x3763fc>
     1f0:	490b3b0b 	stmdbmi	fp, {r0, r1, r3, r8, r9, fp, ip, sp}
     1f4:	000b3813 	andeq	r3, fp, r3, lsl r8
     1f8:	01130e00 	tsteq	r3, r0, lsl #28
     1fc:	0b0b0e03 	bleq	2c3a10 <__bss_end__+0x2b9018>
     200:	0b3b0b3a 	bleq	ec2ef0 <__bss_end__+0xeb84f8>
     204:	00001301 	andeq	r1, r0, r1, lsl #6
     208:	03012e0f 	movweq	r2, #7695	; 0x1e0f
     20c:	3b0b3a0e 	blcc	2cea4c <__bss_end__+0x2c4054>
     210:	4919270b 	ldmdbmi	r9, {r0, r1, r3, r8, r9, sl, sp}
     214:	010b2013 	tsteq	fp, r3, lsl r0
     218:	10000013 	andne	r0, r0, r3, lsl r0
     21c:	08030005 	stmdaeq	r3, {r0, r2}
     220:	0b3b0b3a 	bleq	ec2f10 <__bss_end__+0xeb8518>
     224:	00001349 	andeq	r1, r0, r9, asr #6
     228:	03000511 	movweq	r0, #1297	; 0x511
     22c:	3b0b3a0e 	blcc	2cea6c <__bss_end__+0x2c4074>
     230:	0013490b 	andseq	r4, r3, fp, lsl #18
     234:	012e1200 	teqeq	lr, r0, lsl #4
     238:	0b3a0e03 	bleq	e83a4c <__bss_end__+0xe79054>
     23c:	19270b3b 	stmdbne	r7!, {r0, r1, r3, r4, r5, r8, r9, fp}
     240:	13010b20 	movwne	r0, #6944	; 0x1b20
     244:	34130000 	ldrcc	r0, [r3], #-0
     248:	3a080300 	bcc	200e50 <__bss_end__+0x1f6458>
     24c:	490b3b0b 	stmdbmi	fp, {r0, r1, r3, r8, r9, fp, ip, sp}
     250:	14000013 	strne	r0, [r0], #-19
     254:	0e03012e 	adfeqsp	f0, f3, #0.5
     258:	0b3b0b3a 	bleq	ec2f48 <__bss_end__+0xeb8550>
     25c:	13491927 	movtne	r1, #39207	; 0x9927
     260:	06120111 			; <UNDEFINED> instruction: 0x06120111
     264:	42971840 	addsmi	r1, r7, #64, 16	; 0x400000
     268:	00130119 	andseq	r0, r3, r9, lsl r1
     26c:	00051500 	andeq	r1, r5, r0, lsl #10
     270:	0b3a0803 	bleq	e82284 <__bss_end__+0xe7788c>
     274:	13490b3b 	movtne	r0, #39739	; 0x9b3b
     278:	00001702 	andeq	r1, r0, r2, lsl #14
     27c:	03000516 	movweq	r0, #1302	; 0x516
     280:	3b0b3a0e 	blcc	2ceac0 <__bss_end__+0x2c40c8>
     284:	0213490b 	andseq	r4, r3, #180224	; 0x2c000
     288:	17000017 	smladne	r0, r7, r0, r0
     28c:	08030034 	stmdaeq	r3, {r2, r4, r5}
     290:	0b3b0b3a 	bleq	ec2f80 <__bss_end__+0xeb8588>
     294:	17021349 	strne	r1, [r2, -r9, asr #6]
     298:	1d180000 	ldcne	0, cr0, [r8, #-0]
     29c:	11133101 	tstne	r3, r1, lsl #2
     2a0:	58061201 	stmdapl	r6, {r0, r9, ip}
     2a4:	010b590b 	tsteq	fp, fp, lsl #18
     2a8:	19000013 	stmdbne	r0, {r0, r1, r4}
     2ac:	13310005 	teqne	r1, #5
     2b0:	00001702 	andeq	r1, r0, r2, lsl #14
     2b4:	11010b1a 	tstne	r1, sl, lsl fp
     2b8:	00061201 	andeq	r1, r6, r1, lsl #4
     2bc:	00341b00 	eorseq	r1, r4, r0, lsl #22
     2c0:	17021331 	smladxne	r2, r1, r3, r1
     2c4:	891c0000 	ldmdbhi	ip, {}	; <UNPREDICTABLE>
     2c8:	11010182 	smlabbne	r1, r2, r1, r0
     2cc:	01133101 	tsteq	r3, r1, lsl #2
     2d0:	1d000013 	stcne	0, cr0, [r0, #-76]	; 0xffffffb4
     2d4:	0001828a 	andeq	r8, r1, sl, lsl #5
     2d8:	42911802 	addsmi	r1, r1, #131072	; 0x20000
     2dc:	1e000018 	mcrne	0, 0, r0, cr0, cr8, {0}
     2e0:	01018289 	smlabbeq	r1, r9, r2, r8
     2e4:	13310111 	teqne	r1, #1073741828	; 0x40000004
     2e8:	2e1f0000 	cdpcs	0, 1, cr0, cr15, cr0, {0}
     2ec:	3a0e0301 	bcc	380ef8 <__bss_end__+0x376500>
     2f0:	270b3b0b 	strcs	r3, [fp, -fp, lsl #22]
     2f4:	12011119 	andne	r1, r1, #1073741830	; 0x40000006
     2f8:	97184006 	ldrls	r4, [r8, -r6]
     2fc:	13011942 	movwne	r1, #6466	; 0x1942
     300:	34200000 	strtcc	r0, [r0], #-0
     304:	3a0e0300 	bcc	380f0c <__bss_end__+0x376514>
     308:	490b3b0b 	stmdbmi	fp, {r0, r1, r3, r8, r9, fp, ip, sp}
     30c:	00180213 	andseq	r0, r8, r3, lsl r2
     310:	012e2100 	teqeq	lr, r0, lsl #2
     314:	0e03193f 	mcreq	9, 0, r1, cr3, cr15, {1}
     318:	0b3b0b3a 	bleq	ec3008 <__bss_end__+0xeb8610>
     31c:	01111927 	tsteq	r1, r7, lsr #18
     320:	18400612 	stmdane	r0, {r1, r4, r9, sl}^
     324:	01194297 			; <UNDEFINED> instruction: 0x01194297
     328:	22000013 	andcs	r0, r0, #19
     32c:	0e030034 	mcreq	0, 0, r0, cr3, cr4, {1}
     330:	19341349 	ldmdbne	r4!, {r0, r3, r6, r8, r9, ip}
     334:	00001802 	andeq	r1, r0, r2, lsl #16
     338:	01828923 	orreq	r8, r2, r3, lsr #18
     33c:	31011100 	mrscc	r1, (UNDEF: 17)
     340:	24000013 	strcs	r0, [r0], #-19
     344:	193f012e 	ldmdbne	pc!, {r1, r2, r3, r5, r8}	; <UNPREDICTABLE>
     348:	0b3a0e03 	bleq	e83b5c <__bss_end__+0xe79164>
     34c:	19270b3b 	stmdbne	r7!, {r0, r1, r3, r4, r5, r8, r9, fp}
     350:	01111349 	tsteq	r1, r9, asr #6
     354:	18400612 	stmdane	r0, {r1, r4, r9, sl}^
     358:	01194297 			; <UNDEFINED> instruction: 0x01194297
     35c:	25000013 	strcs	r0, [r0, #-19]
     360:	0e030034 	mcreq	0, 0, r0, cr3, cr4, {1}
     364:	0b3b0b3a 	bleq	ec3054 <__bss_end__+0xeb865c>
     368:	17021349 	strne	r1, [r2, -r9, asr #6]
     36c:	0b260000 	bleq	980374 <__bss_end__+0x97597c>
     370:	01175501 	tsteq	r7, r1, lsl #10
     374:	27000013 	smladcs	r0, r3, r0, r0
     378:	193f002e 	ldmdbne	pc!, {r1, r2, r3, r5}	; <UNPREDICTABLE>
     37c:	0b3a0e03 	bleq	e83b90 <__bss_end__+0xe79198>
     380:	19270b3b 	stmdbne	r7!, {r0, r1, r3, r4, r5, r8, r9, fp}
     384:	01111349 	tsteq	r1, r9, asr #6
     388:	18400612 	stmdane	r0, {r1, r4, r9, sl}^
     38c:	00194297 	mulseq	r9, r7, r2
     390:	012e2800 	teqeq	lr, r0, lsl #16
     394:	0e03193f 	mcreq	9, 0, r1, cr3, cr15, {1}
     398:	0b3b0b3a 	bleq	ec3088 <__bss_end__+0xeb8690>
     39c:	13491927 	movtne	r1, #39207	; 0x9927
     3a0:	1301193c 	movwne	r1, #6460	; 0x193c
     3a4:	05290000 	streq	r0, [r9, #-0]!
     3a8:	00134900 	andseq	r4, r3, r0, lsl #18
     3ac:	00182a00 	andseq	r2, r8, r0, lsl #20
     3b0:	262b0000 	strtcs	r0, [fp], -r0
     3b4:	2c000000 	stccs	0, cr0, [r0], {-0}
     3b8:	193f002e 	ldmdbne	pc!, {r1, r2, r3, r5}	; <UNPREDICTABLE>
     3bc:	0b3a0e03 	bleq	e83bd0 <__bss_end__+0xe791d8>
     3c0:	19270b3b 	stmdbne	r7!, {r0, r1, r3, r4, r5, r8, r9, fp}
     3c4:	0000193c 	andeq	r1, r0, ip, lsr r9
     3c8:	01110100 	tsteq	r1, r0, lsl #2
     3cc:	0b130e25 	bleq	4c3c68 <__bss_end__+0x4b9270>
     3d0:	0e1b0e03 	cdpeq	14, 1, cr0, cr11, cr3, {0}
     3d4:	06120111 			; <UNDEFINED> instruction: 0x06120111
     3d8:	00001710 	andeq	r1, r0, r0, lsl r7
     3dc:	0b002402 	bleq	93ec <va_printk+0x9c>
     3e0:	030b3e0b 	movweq	r3, #48651	; 0xbe0b
     3e4:	03000008 	movweq	r0, #8
     3e8:	0b0b0024 	bleq	2c0480 <__bss_end__+0x2b5a88>
     3ec:	0e030b3e 	vmoveq.16	d3[0], r0
     3f0:	16040000 	strne	r0, [r4], -r0
     3f4:	3a0e0300 	bcc	380ffc <__bss_end__+0x376604>
     3f8:	490b3b0b 	stmdbmi	fp, {r0, r1, r3, r8, r9, fp, ip, sp}
     3fc:	05000013 	streq	r0, [r0, #-19]
     400:	0b0b000f 	bleq	2c0444 <__bss_end__+0x2b5a4c>
     404:	0f060000 	svceq	0x00060000
     408:	490b0b00 	stmdbmi	fp, {r8, r9, fp}
     40c:	07000013 	smladeq	r0, r3, r0, r0
     410:	13490026 	movtne	r0, #36902	; 0x9026
     414:	04080000 	streq	r0, [r8], #-0
     418:	3a0b0b01 	bcc	2c3024 <__bss_end__+0x2b862c>
     41c:	010b3b0b 	tsteq	fp, fp, lsl #22
     420:	09000013 	stmdbeq	r0, {r0, r1, r4}
     424:	0e030028 	cdpeq	0, 0, cr0, cr3, cr8, {1}
     428:	00000d1c 	andeq	r0, r0, ip, lsl sp
     42c:	0b01130a 	bleq	4505c <__bss_end__+0x3a664>
     430:	3b0b3a0b 	blcc	2cec64 <__bss_end__+0x2c426c>
     434:	0013010b 	andseq	r0, r3, fp, lsl #2
     438:	000d0b00 	andeq	r0, sp, r0, lsl #22
     43c:	0b3a0e03 	bleq	e83c50 <__bss_end__+0xe79258>
     440:	13490b3b 	movtne	r0, #39739	; 0x9b3b
     444:	00000b38 	andeq	r0, r0, r8, lsr fp
     448:	0301130c 	movweq	r1, #4876	; 0x130c
     44c:	3a0b0b0e 	bcc	2c308c <__bss_end__+0x2b8694>
     450:	010b3b0b 	tsteq	fp, fp, lsl #22
     454:	0d000013 	stceq	0, cr0, [r0, #-76]	; 0xffffffb4
     458:	0e03012e 	adfeqsp	f0, f3, #0.5
     45c:	0b3b0b3a 	bleq	ec314c <__bss_end__+0xeb8754>
     460:	13491927 	movtne	r1, #39207	; 0x9927
     464:	13010b20 	movwne	r0, #6944	; 0x1b20
     468:	050e0000 	streq	r0, [lr, #-0]
     46c:	3a080300 	bcc	201074 <__bss_end__+0x1f667c>
     470:	490b3b0b 	stmdbmi	fp, {r0, r1, r3, r8, r9, fp, ip, sp}
     474:	0f000013 	svceq	0x00000013
     478:	0e03012e 	adfeqsp	f0, f3, #0.5
     47c:	0b3b0b3a 	bleq	ec316c <__bss_end__+0xeb8774>
     480:	13491927 	movtne	r1, #39207	; 0x9927
     484:	06120111 			; <UNDEFINED> instruction: 0x06120111
     488:	42971840 	addsmi	r1, r7, #64, 16	; 0x400000
     48c:	00130119 	andseq	r0, r3, r9, lsl r1
     490:	00051000 	andeq	r1, r5, r0
     494:	0b3a0803 	bleq	e824a8 <__bss_end__+0xe77ab0>
     498:	13490b3b 	movtne	r0, #39739	; 0x9b3b
     49c:	00001702 	andeq	r1, r0, r2, lsl #14
     4a0:	03000511 	movweq	r0, #1297	; 0x511
     4a4:	3b0b3a0e 	blcc	2cece4 <__bss_end__+0x2c42ec>
     4a8:	0213490b 	andseq	r4, r3, #180224	; 0x2c000
     4ac:	12000017 	andne	r0, r0, #23
     4b0:	08030034 	stmdaeq	r3, {r2, r4, r5}
     4b4:	0b3b0b3a 	bleq	ec31a4 <__bss_end__+0xeb87ac>
     4b8:	17021349 	strne	r1, [r2, -r9, asr #6]
     4bc:	34130000 	ldrcc	r0, [r3], #-0
     4c0:	3a0e0300 	bcc	3810c8 <__bss_end__+0x3766d0>
     4c4:	490b3b0b 	stmdbmi	fp, {r0, r1, r3, r8, r9, fp, ip, sp}
     4c8:	00170213 	andseq	r0, r7, r3, lsl r2
     4cc:	82891400 	addhi	r1, r9, #0, 8
     4d0:	01110101 	tsteq	r1, r1, lsl #2
     4d4:	13011331 	movwne	r1, #4913	; 0x1331
     4d8:	8a150000 	bhi	5404e0 <__bss_end__+0x535ae8>
     4dc:	02000182 	andeq	r0, r0, #-2147483616	; 0x80000020
     4e0:	18429118 	stmdane	r2, {r3, r4, r8, ip, pc}^
     4e4:	89160000 	ldmdbhi	r6, {}	; <UNPREDICTABLE>
     4e8:	11000182 	smlabbne	r0, r2, r1, r0
     4ec:	00133101 	andseq	r3, r3, r1, lsl #2
     4f0:	82891700 	addhi	r1, r9, #0, 14
     4f4:	01110101 	tsteq	r1, r1, lsl #2
     4f8:	00001331 	andeq	r1, r0, r1, lsr r3
     4fc:	03012e18 	movweq	r2, #7704	; 0x1e18
     500:	3b0b3a0e 	blcc	2ced40 <__bss_end__+0x2c4348>
     504:	1119270b 	tstne	r9, fp, lsl #14
     508:	40061201 	andmi	r1, r6, r1, lsl #4
     50c:	19429718 	stmdbne	r2, {r3, r4, r8, r9, sl, ip, pc}^
     510:	00001301 	andeq	r1, r0, r1, lsl #6
     514:	03003419 	movweq	r3, #1049	; 0x419
     518:	3413490e 	ldrcc	r4, [r3], #-2318	; 0x90e
     51c:	00180219 	andseq	r0, r8, r9, lsl r2
     520:	00341a00 	eorseq	r1, r4, r0, lsl #20
     524:	0b3a0803 	bleq	e82538 <__bss_end__+0xe77b40>
     528:	13490b3b 	movtne	r0, #39739	; 0x9b3b
     52c:	011b0000 	tsteq	fp, r0
     530:	01134901 	tsteq	r3, r1, lsl #18
     534:	1c000013 	stcne	0, cr0, [r0], {19}
     538:	13490021 	movtne	r0, #36897	; 0x9021
     53c:	00000b2f 	andeq	r0, r0, pc, lsr #22
     540:	0300341d 	movweq	r3, #1053	; 0x41d
     544:	3b0b3a08 	blcc	2ced6c <__bss_end__+0x2c4374>
     548:	0213490b 	andseq	r4, r3, #180224	; 0x2c000
     54c:	1e000018 	mcrne	0, 0, r0, cr0, cr8, {0}
     550:	0e030034 	mcreq	0, 0, r0, cr3, cr4, {1}
     554:	0b3b0b3a 	bleq	ec3244 <__bss_end__+0xeb884c>
     558:	18021349 	stmdane	r2, {r0, r3, r6, r8, r9, ip}
     55c:	341f0000 	ldrcc	r0, [pc], #-0	; 564 <_start-0x7a9c>
     560:	3a0e0300 	bcc	381168 <__bss_end__+0x376770>
     564:	490b3b0b 	stmdbmi	fp, {r0, r1, r3, r8, r9, fp, ip, sp}
     568:	00061c13 	andeq	r1, r6, r3, lsl ip
     56c:	00342000 	eorseq	r2, r4, r0
     570:	0b3a0e03 	bleq	e83d84 <__bss_end__+0xe7938c>
     574:	13490b3b 	movtne	r0, #39739	; 0x9b3b
     578:	193c193f 	ldmdbne	ip!, {r0, r1, r2, r3, r4, r5, r8, fp, ip}
     57c:	0b210000 	bleq	840584 <__bss_end__+0x835b8c>
     580:	12011101 	andne	r1, r1, #1073741824	; 0x40000000
     584:	00130106 	andseq	r0, r3, r6, lsl #2
     588:	010b2200 	mrseq	r2, R11_fiq
     58c:	13011755 	movwne	r1, #5973	; 0x1755
     590:	2e230000 	cdpcs	0, 2, cr0, cr3, cr0, {0}
     594:	3a0e0301 	bcc	3811a0 <__bss_end__+0x3767a8>
     598:	27053b0b 	strcs	r3, [r5, -fp, lsl #22]
     59c:	11134919 	tstne	r3, r9, lsl r9
     5a0:	40061201 	andmi	r1, r6, r1, lsl #4
     5a4:	19429718 	stmdbne	r2, {r3, r4, r8, r9, sl, ip, pc}^
     5a8:	00001301 	andeq	r1, r0, r1, lsl #6
     5ac:	03003424 	movweq	r3, #1060	; 0x424
     5b0:	3b0b3a0e 	blcc	2cedf0 <__bss_end__+0x2c43f8>
     5b4:	02134905 	andseq	r4, r3, #81920	; 0x14000
     5b8:	25000017 	strcs	r0, [r0, #-23]
     5bc:	0e030034 	mcreq	0, 0, r0, cr3, cr4, {1}
     5c0:	053b0b3a 	ldreq	r0, [fp, #-2874]!	; 0xb3a
     5c4:	18021349 	stmdane	r2, {r0, r3, r6, r8, r9, ip}
     5c8:	34260000 	strtcc	r0, [r6], #-0
     5cc:	3a080300 	bcc	2011d4 <__bss_end__+0x1f67dc>
     5d0:	49053b0b 	stmdbmi	r5, {r0, r1, r3, r8, r9, fp, ip, sp}
     5d4:	00180213 	andseq	r0, r8, r3, lsl r2
     5d8:	012e2700 	teqeq	lr, r0, lsl #14
     5dc:	0e03193f 	mcreq	9, 0, r1, cr3, cr15, {1}
     5e0:	0b3b0b3a 	bleq	ec32d0 <__bss_end__+0xeb88d8>
     5e4:	13491927 	movtne	r1, #39207	; 0x9927
     5e8:	06120111 			; <UNDEFINED> instruction: 0x06120111
     5ec:	42971840 	addsmi	r1, r7, #64, 16	; 0x400000
     5f0:	00130119 	andseq	r0, r3, r9, lsl r1
     5f4:	012e2800 	teqeq	lr, r0, lsl #16
     5f8:	0e03193f 	mcreq	9, 0, r1, cr3, cr15, {1}
     5fc:	053b0b3a 	ldreq	r0, [fp, #-2874]!	; 0xb3a
     600:	01111927 	tsteq	r1, r7, lsr #18
     604:	18400612 	stmdane	r0, {r1, r4, r9, sl}^
     608:	01194297 			; <UNDEFINED> instruction: 0x01194297
     60c:	29000013 	stmdbcs	r0, {r0, r1, r4}
     610:	193f012e 	ldmdbne	pc!, {r1, r2, r3, r5, r8}	; <UNPREDICTABLE>
     614:	0b3a0e03 	bleq	e83e28 <__bss_end__+0xe79430>
     618:	1927053b 	stmdbne	r7!, {r0, r1, r3, r4, r5, r8, sl}
     61c:	01111349 	tsteq	r1, r9, asr #6
     620:	18400612 	stmdane	r0, {r1, r4, r9, sl}^
     624:	01194297 			; <UNDEFINED> instruction: 0x01194297
     628:	2a000013 	bcs	67c <_start-0x7984>
     62c:	193f002e 	ldmdbne	pc!, {r1, r2, r3, r5}	; <UNPREDICTABLE>
     630:	0b3a0e03 	bleq	e83e44 <__bss_end__+0xe7944c>
     634:	19270b3b 	stmdbne	r7!, {r0, r1, r3, r4, r5, r8, r9, fp}
     638:	193c1349 	ldmdbne	ip!, {r0, r3, r6, r8, r9, ip}
     63c:	2e2b0000 	cdpcs	0, 2, cr0, cr11, cr0, {0}
     640:	03193f01 	tsteq	r9, #1, 30
     644:	3b0b3a0e 	blcc	2cee84 <__bss_end__+0x2c448c>
     648:	4919270b 	ldmdbmi	r9, {r0, r1, r3, r8, r9, sl, sp}
     64c:	01193c13 	tsteq	r9, r3, lsl ip
     650:	2c000013 	stccs	0, cr0, [r0], {19}
     654:	13490005 	movtne	r0, #36869	; 0x9005
     658:	182d0000 	stmdane	sp!, {}	; <UNPREDICTABLE>
     65c:	2e000000 	cdpcs	0, 0, cr0, cr0, cr0, {0}
     660:	193f002e 	ldmdbne	pc!, {r1, r2, r3, r5}	; <UNPREDICTABLE>
     664:	0b3a0e03 	bleq	e83e78 <__bss_end__+0xe79480>
     668:	19270b3b 	stmdbne	r7!, {r0, r1, r3, r4, r5, r8, r9, fp}
     66c:	0000193c 	andeq	r1, r0, ip, lsr r9
     670:	3f012e2f 	svccc	0x00012e2f
     674:	3a0e0319 	bcc	3812e0 <__bss_end__+0x3768e8>
     678:	270b3b0b 	strcs	r3, [fp, -fp, lsl #22]
     67c:	01193c19 	tsteq	r9, r9, lsl ip
     680:	00000013 	andeq	r0, r0, r3, lsl r0
     684:	25011101 	strcs	r1, [r1, #-257]	; 0x101
     688:	030b130e 	movweq	r1, #45838	; 0xb30e
     68c:	110e1b0e 	tstne	lr, lr, lsl #22
     690:	10061201 	andne	r1, r6, r1, lsl #4
     694:	02000017 	andeq	r0, r0, #23
     698:	0b0b0024 	bleq	2c0730 <__bss_end__+0x2b5d38>
     69c:	08030b3e 	stmdaeq	r3, {r1, r2, r3, r4, r5, r8, r9, fp}
     6a0:	24030000 	strcs	r0, [r3], #-0
     6a4:	3e0b0b00 	vmlacc.f64	d0, d11, d0
     6a8:	000e030b 	andeq	r0, lr, fp, lsl #6
     6ac:	00160400 	andseq	r0, r6, r0, lsl #8
     6b0:	0b3a0e03 	bleq	e83ec4 <__bss_end__+0xe794cc>
     6b4:	13490b3b 	movtne	r0, #39739	; 0x9b3b
     6b8:	0f050000 	svceq	0x00050000
     6bc:	490b0b00 	stmdbmi	fp, {r8, r9, fp}
     6c0:	06000013 			; <UNDEFINED> instruction: 0x06000013
     6c4:	13490026 	movtne	r0, #36902	; 0x9026
     6c8:	2e070000 	cdpcs	0, 0, cr0, cr7, cr0, {0}
     6cc:	03193f01 	tsteq	r9, #1, 30
     6d0:	3b0b3a0e 	blcc	2cef10 <__bss_end__+0x2c4518>
     6d4:	4919270b 	ldmdbmi	r9, {r0, r1, r3, r8, r9, sl, sp}
     6d8:	12011113 	andne	r1, r1, #-1073741820	; 0xc0000004
     6dc:	97184006 	ldrls	r4, [r8, -r6]
     6e0:	13011942 	movwne	r1, #6466	; 0x1942
     6e4:	05080000 	streq	r0, [r8, #-0]
     6e8:	3a0e0300 	bcc	3812f0 <__bss_end__+0x3768f8>
     6ec:	490b3b0b 	stmdbmi	fp, {r0, r1, r3, r8, r9, fp, ip, sp}
     6f0:	00170213 	andseq	r0, r7, r3, lsl r2
     6f4:	00050900 	andeq	r0, r5, r0, lsl #18
     6f8:	0b3a0803 	bleq	e8270c <__bss_end__+0xe77d14>
     6fc:	13490b3b 	movtne	r0, #39739	; 0x9b3b
     700:	00001702 	andeq	r1, r0, r2, lsl #14
     704:	0300340a 	movweq	r3, #1034	; 0x40a
     708:	3b0b3a0e 	blcc	2cef48 <__bss_end__+0x2c4550>
     70c:	0213490b 	andseq	r4, r3, #180224	; 0x2c000
     710:	0b000017 	bleq	774 <_start-0x788c>
     714:	08030034 	stmdaeq	r3, {r2, r4, r5}
     718:	0b3b0b3a 	bleq	ec3408 <__bss_end__+0xeb8a10>
     71c:	17021349 	strne	r1, [r2, -r9, asr #6]
     720:	260c0000 	strcs	r0, [ip], -r0
     724:	00000000 	andeq	r0, r0, r0
     728:	25011101 	strcs	r1, [r1, #-257]	; 0x101
     72c:	030b130e 	movweq	r1, #45838	; 0xb30e
     730:	110e1b0e 	tstne	lr, lr, lsl #22
     734:	10061201 	andne	r1, r6, r1, lsl #4
     738:	02000017 	andeq	r0, r0, #23
     73c:	0b0b0024 	bleq	2c07d4 <__bss_end__+0x2b5ddc>
     740:	0e030b3e 	vmoveq.16	d3[0], r0
     744:	24030000 	strcs	r0, [r3], #-0
     748:	3e0b0b00 	vmlacc.f64	d0, d11, d0
     74c:	0008030b 	andeq	r0, r8, fp, lsl #6
     750:	000f0400 	andeq	r0, pc, r0, lsl #8
     754:	00000b0b 	andeq	r0, r0, fp, lsl #22
     758:	0b000f05 	bleq	4374 <_start-0x3c8c>
     75c:	0013490b 	andseq	r4, r3, fp, lsl #18
     760:	00160600 	andseq	r0, r6, r0, lsl #12
     764:	0b3a0e03 	bleq	e83f78 <__bss_end__+0xe79580>
     768:	13490b3b 	movtne	r0, #39739	; 0x9b3b
     76c:	2e070000 	cdpcs	0, 0, cr0, cr7, cr0, {0}
     770:	03193f01 	tsteq	r9, #1, 30
     774:	3b0b3a0e 	blcc	2cefb4 <__bss_end__+0x2c45bc>
     778:	4919270b 	ldmdbmi	r9, {r0, r1, r3, r8, r9, sl, sp}
     77c:	12011113 	andne	r1, r1, #-1073741820	; 0xc0000004
     780:	97184006 	ldrls	r4, [r8, -r6]
     784:	00001942 	andeq	r1, r0, r2, asr #18
     788:	03000508 	movweq	r0, #1288	; 0x508
     78c:	3b0b3a08 	blcc	2cefb4 <__bss_end__+0x2c45bc>
     790:	0213490b 	andseq	r4, r3, #180224	; 0x2c000
     794:	09000018 	stmdbeq	r0, {r3, r4}
     798:	08030005 	stmdaeq	r3, {r0, r2}
     79c:	0b3b0b3a 	bleq	ec348c <__bss_end__+0xeb8a94>
     7a0:	17021349 	strne	r1, [r2, -r9, asr #6]
     7a4:	340a0000 	strcc	r0, [sl], #-0
     7a8:	3a080300 	bcc	2013b0 <__bss_end__+0x1f69b8>
     7ac:	490b3b0b 	stmdbmi	fp, {r0, r1, r3, r8, r9, fp, ip, sp}
     7b0:	00170213 	andseq	r0, r7, r3, lsl r2
     7b4:	00340b00 	eorseq	r0, r4, r0, lsl #22
     7b8:	0b3a0803 	bleq	e827cc <__bss_end__+0xe77dd4>
     7bc:	13490b3b 	movtne	r0, #39739	; 0x9b3b
     7c0:	00001802 	andeq	r1, r0, r2, lsl #16
     7c4:	01110100 	tsteq	r1, r0, lsl #2
     7c8:	0b130e25 	bleq	4c4064 <__bss_end__+0x4b966c>
     7cc:	0e1b0e03 	cdpeq	14, 1, cr0, cr11, cr3, {0}
     7d0:	06120111 			; <UNDEFINED> instruction: 0x06120111
     7d4:	00001710 	andeq	r1, r0, r0, lsl r7
     7d8:	03001602 	movweq	r1, #1538	; 0x602
     7dc:	3b0b3a0e 	blcc	2cf01c <__bss_end__+0x2c4624>
     7e0:	0013490b 	andseq	r4, r3, fp, lsl #18
     7e4:	01130300 	tsteq	r3, r0, lsl #6
     7e8:	0b0b0e03 	bleq	2c3ffc <__bss_end__+0x2b9604>
     7ec:	0b3b0b3a 	bleq	ec34dc <__bss_end__+0xeb8ae4>
     7f0:	00001301 	andeq	r1, r0, r1, lsl #6
     7f4:	03000d04 	movweq	r0, #3332	; 0xd04
     7f8:	3813490e 	ldmdacc	r3, {r1, r2, r3, r8, fp, lr}
     7fc:	0019340b 	andseq	r3, r9, fp, lsl #8
     800:	000f0500 	andeq	r0, pc, r0, lsl #10
     804:	00000b0b 	andeq	r0, r0, fp, lsl #22
     808:	0b002406 	bleq	9828 <uart_init+0x8c>
     80c:	030b3e0b 	movweq	r3, #48651	; 0xbe0b
     810:	07000008 	streq	r0, [r0, -r8]
     814:	0b0b0024 	bleq	2c08ac <__bss_end__+0x2b5eb4>
     818:	0e030b3e 	vmoveq.16	d3[0], r0
     81c:	0f080000 	svceq	0x00080000
     820:	490b0b00 	stmdbmi	fp, {r8, r9, fp}
     824:	09000013 	stmdbeq	r0, {r0, r1, r4}
     828:	13490026 	movtne	r0, #36902	; 0x9026
     82c:	2e0a0000 	cdpcs	0, 0, cr0, cr10, cr0, {0}
     830:	03193f01 	tsteq	r9, #1, 30
     834:	3b0b3a0e 	blcc	2cf074 <__bss_end__+0x2c467c>
     838:	4919270b 	ldmdbmi	r9, {r0, r1, r3, r8, r9, sl, sp}
     83c:	12011113 	andne	r1, r1, #-1073741820	; 0xc0000004
     840:	97184006 	ldrls	r4, [r8, -r6]
     844:	13011942 	movwne	r1, #6466	; 0x1942
     848:	050b0000 	streq	r0, [fp, #-0]
     84c:	3a080300 	bcc	201454 <__bss_end__+0x1f6a5c>
     850:	490b3b0b 	stmdbmi	fp, {r0, r1, r3, r8, r9, fp, ip, sp}
     854:	00180213 	andseq	r0, r8, r3, lsl r2
     858:	00180c00 	andseq	r0, r8, r0, lsl #24
     85c:	340d0000 	strcc	r0, [sp], #-0
     860:	3a080300 	bcc	201468 <__bss_end__+0x1f6a70>
     864:	490b3b0b 	stmdbmi	fp, {r0, r1, r3, r8, r9, fp, ip, sp}
     868:	00180213 	andseq	r0, r8, r3, lsl r2
     86c:	00340e00 	eorseq	r0, r4, r0, lsl #28
     870:	0b3a0e03 	bleq	e84084 <__bss_end__+0xe7968c>
     874:	13490b3b 	movtne	r0, #39739	; 0x9b3b
     878:	00001802 	andeq	r1, r0, r2, lsl #16
     87c:	0300340f 	movweq	r3, #1039	; 0x40f
     880:	3b0b3a08 	blcc	2cf0a8 <__bss_end__+0x2c46b0>
     884:	0213490b 	andseq	r4, r3, #180224	; 0x2c000
     888:	10000017 	andne	r0, r0, r7, lsl r0
     88c:	01018289 	smlabbeq	r1, r9, r2, r8
     890:	13310111 	teqne	r1, #1073741828	; 0x40000004
     894:	00001301 	andeq	r1, r0, r1, lsl #6
     898:	01828a11 	orreq	r8, r2, r1, lsl sl
     89c:	91180200 	tstls	r8, r0, lsl #4
     8a0:	00001842 	andeq	r1, r0, r2, asr #16
     8a4:	01828912 	orreq	r8, r2, r2, lsl r9
     8a8:	00011101 	andeq	r1, r1, r1, lsl #2
     8ac:	01011300 	mrseq	r1, SP_irq
     8b0:	13011349 	movwne	r1, #4937	; 0x1349
     8b4:	21140000 	tstcs	r4, r0
     8b8:	2f134900 	svccs	0x00134900
     8bc:	15000005 	strne	r0, [r0, #-5]
     8c0:	19270115 	stmdbne	r7!, {r0, r2, r4, r8}
     8c4:	13011349 	movwne	r1, #4937	; 0x1349
     8c8:	05160000 	ldreq	r0, [r6, #-0]
     8cc:	00134900 	andseq	r4, r3, r0, lsl #18
     8d0:	00341700 	eorseq	r1, r4, r0, lsl #14
     8d4:	0b3a0e03 	bleq	e840e8 <__bss_end__+0xe796f0>
     8d8:	13490b3b 	movtne	r0, #39739	; 0x9b3b
     8dc:	193c193f 	ldmdbne	ip!, {r0, r1, r2, r3, r4, r5, r8, fp, ip}
     8e0:	2e180000 	cdpcs	0, 1, cr0, cr8, cr0, {0}
     8e4:	03193f01 	tsteq	r9, #1, 30
     8e8:	3b0b3a0e 	blcc	2cf128 <__bss_end__+0x2c4730>
     8ec:	4919270b 	ldmdbmi	r9, {r0, r1, r3, r8, r9, sl, sp}
     8f0:	00193c13 	andseq	r3, r9, r3, lsl ip
     8f4:	11010000 	mrsne	r0, (UNDEF: 1)
     8f8:	130e2501 	movwne	r2, #58625	; 0xe501
     8fc:	1b0e030b 	blne	381530 <__bss_end__+0x376b38>
     900:	1201110e 	andne	r1, r1, #-2147483645	; 0x80000003
     904:	00171006 	andseq	r1, r7, r6
     908:	00240200 	eoreq	r0, r4, r0, lsl #4
     90c:	0b3e0b0b 	bleq	f83540 <__bss_end__+0xf78b48>
     910:	00000803 	andeq	r0, r0, r3, lsl #16
     914:	0b002403 	bleq	9928 <gpio_set_function+0x34>
     918:	030b3e0b 	movweq	r3, #48651	; 0xbe0b
     91c:	0400000e 	streq	r0, [r0], #-14
     920:	0e03012e 	adfeqsp	f0, f3, #0.5
     924:	0b3b0b3a 	bleq	ec3614 <__bss_end__+0xeb8c1c>
     928:	13491927 	movtne	r1, #39207	; 0x9927
     92c:	06120111 			; <UNDEFINED> instruction: 0x06120111
     930:	42971840 	addsmi	r1, r7, #64, 16	; 0x400000
     934:	00130119 	andseq	r0, r3, r9, lsl r1
     938:	00050500 	andeq	r0, r5, r0, lsl #10
     93c:	0b3a0803 	bleq	e82950 <__bss_end__+0xe77f58>
     940:	13490b3b 	movtne	r0, #39739	; 0x9b3b
     944:	00001702 	andeq	r1, r0, r2, lsl #14
     948:	01828906 	orreq	r8, r2, r6, lsl #18
     94c:	31011101 	tstcc	r1, r1, lsl #2
     950:	07000013 	smladeq	r0, r3, r0, r0
     954:	0001828a 	andeq	r8, r1, sl, lsl #5
     958:	42911802 	addsmi	r1, r1, #131072	; 0x20000
     95c:	08000018 	stmdaeq	r0, {r3, r4}
     960:	193f002e 	ldmdbne	pc!, {r1, r2, r3, r5}	; <UNPREDICTABLE>
     964:	0b3a0e03 	bleq	e84178 <__bss_end__+0xe79780>
     968:	19270b3b 	stmdbne	r7!, {r0, r1, r3, r4, r5, r8, r9, fp}
     96c:	06120111 			; <UNDEFINED> instruction: 0x06120111
     970:	42971840 	addsmi	r1, r7, #64, 16	; 0x400000
     974:	09000019 	stmdbeq	r0, {r0, r3, r4}
     978:	193f012e 	ldmdbne	pc!, {r1, r2, r3, r5, r8}	; <UNPREDICTABLE>
     97c:	0b3a0e03 	bleq	e84190 <__bss_end__+0xe79798>
     980:	19270b3b 	stmdbne	r7!, {r0, r1, r3, r4, r5, r8, r9, fp}
     984:	06120111 			; <UNDEFINED> instruction: 0x06120111
     988:	42971840 	addsmi	r1, r7, #64, 16	; 0x400000
     98c:	00130119 	andseq	r0, r3, r9, lsl r1
     990:	00050a00 	andeq	r0, r5, r0, lsl #20
     994:	0b3a0803 	bleq	e829a8 <__bss_end__+0xe77fb0>
     998:	13490b3b 	movtne	r0, #39739	; 0x9b3b
     99c:	00001802 	andeq	r1, r0, r2, lsl #16
     9a0:	2701150b 	strcs	r1, [r1, -fp, lsl #10]
     9a4:	01134919 	tsteq	r3, r9, lsl r9
     9a8:	0c000013 	stceq	0, cr0, [r0], {19}
     9ac:	13490005 	movtne	r0, #36869	; 0x9005
     9b0:	0f0d0000 	svceq	0x000d0000
     9b4:	490b0b00 	stmdbmi	fp, {r8, r9, fp}
     9b8:	0e000013 	mcreq	0, 0, r0, cr0, cr3, {0}
     9bc:	0e030034 	mcreq	0, 0, r0, cr3, cr4, {1}
     9c0:	0b3b0b3a 	bleq	ec36b0 <__bss_end__+0xeb8cb8>
     9c4:	193f1349 	ldmdbne	pc!, {r0, r3, r6, r8, r9, ip}	; <UNPREDICTABLE>
     9c8:	00001802 	andeq	r1, r0, r2, lsl #16
     9cc:	3f012e0f 	svccc	0x00012e0f
     9d0:	3a0e0319 	bcc	38163c <__bss_end__+0x376c44>
     9d4:	270b3b0b 	strcs	r3, [fp, -fp, lsl #22]
     9d8:	00193c19 	andseq	r3, r9, r9, lsl ip
     9dc:	11010000 	mrsne	r0, (UNDEF: 1)
     9e0:	130e2501 	movwne	r2, #58625	; 0xe501
     9e4:	1b0e030b 	blne	381618 <__bss_end__+0x376c20>
     9e8:	1201110e 	andne	r1, r1, #-2147483645	; 0x80000003
     9ec:	00171006 	andseq	r1, r7, r6
     9f0:	00240200 	eoreq	r0, r4, r0, lsl #4
     9f4:	0b3e0b0b 	bleq	f83628 <__bss_end__+0xf78c30>
     9f8:	00000803 	andeq	r0, r0, r3, lsl #16
     9fc:	0b002403 	bleq	9a10 <gpio_read+0x30>
     a00:	030b3e0b 	movweq	r3, #48651	; 0xbe0b
     a04:	0400000e 	streq	r0, [r0], #-14
     a08:	0b0b000f 	bleq	2c0a4c <__bss_end__+0x2b6054>
     a0c:	00001349 	andeq	r1, r0, r9, asr #6
     a10:	49002605 	stmdbmi	r0, {r0, r2, r9, sl, sp}
     a14:	06000013 			; <UNDEFINED> instruction: 0x06000013
     a18:	193f012e 	ldmdbne	pc!, {r1, r2, r3, r5, r8}	; <UNPREDICTABLE>
     a1c:	0b3a0e03 	bleq	e84230 <__bss_end__+0xe79838>
     a20:	19270b3b 	stmdbne	r7!, {r0, r1, r3, r4, r5, r8, r9, fp}
     a24:	01111349 	tsteq	r1, r9, asr #6
     a28:	18400612 	stmdane	r0, {r1, r4, r9, sl}^
     a2c:	01194296 			; <UNDEFINED> instruction: 0x01194296
     a30:	07000013 	smladeq	r0, r3, r0, r0
     a34:	08030005 	stmdaeq	r3, {r0, r2}
     a38:	0b3b0b3a 	bleq	ec3728 <__bss_end__+0xeb8d30>
     a3c:	17021349 	strne	r1, [r2, -r9, asr #6]
     a40:	15080000 	strne	r0, [r8, #-0]
     a44:	49192701 	ldmdbmi	r9, {r0, r8, r9, sl, sp}
     a48:	00130113 	andseq	r0, r3, r3, lsl r1
     a4c:	00050900 	andeq	r0, r5, r0, lsl #18
     a50:	00001349 	andeq	r1, r0, r9, asr #6
     a54:	0300340a 	movweq	r3, #1034	; 0x40a
     a58:	3b0b3a0e 	blcc	2cf298 <__bss_end__+0x2c48a0>
     a5c:	3f13490b 	svccc	0x0013490b
     a60:	00193c19 	andseq	r3, r9, r9, lsl ip
     a64:	00340b00 	eorseq	r0, r4, r0, lsl #22
     a68:	0b3a0e03 	bleq	e8427c <__bss_end__+0xe79884>
     a6c:	13490b3b 	movtne	r0, #39739	; 0x9b3b
     a70:	1802193f 	stmdane	r2, {r0, r1, r2, r3, r4, r5, r8, fp, ip}
     a74:	01000000 	mrseq	r0, (UNDEF: 0)
     a78:	0e250111 	mcreq	1, 1, r0, cr5, cr1, {0}
     a7c:	0e030b13 	vmoveq.32	d3[0], r0
     a80:	01110e1b 	tsteq	r1, fp, lsl lr
     a84:	17100612 			; <UNDEFINED> instruction: 0x17100612
     a88:	24020000 	strcs	r0, [r2], #-0
     a8c:	3e0b0b00 	vmlacc.f64	d0, d11, d0
     a90:	0008030b 	andeq	r0, r8, fp, lsl #6
     a94:	00240300 	eoreq	r0, r4, r0, lsl #6
     a98:	0b3e0b0b 	bleq	f836cc <__bss_end__+0xf78cd4>
     a9c:	00000e03 	andeq	r0, r0, r3, lsl #28
     aa0:	0b000f04 	bleq	46b8 <_start-0x3948>
     aa4:	0500000b 	streq	r0, [r0, #-11]
     aa8:	0b0b000f 	bleq	2c0aec <__bss_end__+0x2b60f4>
     aac:	00001349 	andeq	r1, r0, r9, asr #6
     ab0:	49002606 	stmdbmi	r0, {r1, r2, r9, sl, sp}
     ab4:	07000013 	smladeq	r0, r3, r0, r0
     ab8:	0e030016 	mcreq	0, 0, r0, cr3, cr6, {0}
     abc:	0b3b0b3a 	bleq	ec37ac <__bss_end__+0xeb8db4>
     ac0:	00001349 	andeq	r1, r0, r9, asr #6
     ac4:	03011308 	movweq	r1, #4872	; 0x1308
     ac8:	3a0b0b0e 	bcc	2c3708 <__bss_end__+0x2b8d10>
     acc:	010b3b0b 	tsteq	fp, fp, lsl #22
     ad0:	09000013 	stmdbeq	r0, {r0, r1, r4}
     ad4:	0e03000d 	cdpeq	0, 0, cr0, cr3, cr13, {0}
     ad8:	0b381349 	bleq	e05804 <__bss_end__+0xdfae0c>
     adc:	00001934 	andeq	r1, r0, r4, lsr r9
     ae0:	03012e0a 	movweq	r2, #7690	; 0x1e0a
     ae4:	3b0b3a0e 	blcc	2cf324 <__bss_end__+0x2c492c>
     ae8:	4919270b 	ldmdbmi	r9, {r0, r1, r3, r8, r9, sl, sp}
     aec:	12011113 	andne	r1, r1, #-1073741820	; 0xc0000004
     af0:	97184006 	ldrls	r4, [r8, -r6]
     af4:	13011942 	movwne	r1, #6466	; 0x1942
     af8:	050b0000 	streq	r0, [fp, #-0]
     afc:	3a080300 	bcc	201704 <__bss_end__+0x1f6d0c>
     b00:	490b3b0b 	stmdbmi	fp, {r0, r1, r3, r8, r9, fp, ip, sp}
     b04:	00170213 	andseq	r0, r7, r3, lsl r2
     b08:	012e0c00 	teqeq	lr, r0, lsl #24
     b0c:	0b3a0803 	bleq	e82b20 <__bss_end__+0xe78128>
     b10:	19270b3b 	stmdbne	r7!, {r0, r1, r3, r4, r5, r8, r9, fp}
     b14:	01111349 	tsteq	r1, r9, asr #6
     b18:	18400612 	stmdane	r0, {r1, r4, r9, sl}^
     b1c:	01194297 			; <UNDEFINED> instruction: 0x01194297
     b20:	0d000013 	stceq	0, cr0, [r0, #-76]	; 0xffffffb4
     b24:	0e030005 	cdpeq	0, 0, cr0, cr3, cr5, {0}
     b28:	0b3b0b3a 	bleq	ec3818 <__bss_end__+0xeb8e20>
     b2c:	17021349 	strne	r1, [r2, -r9, asr #6]
     b30:	050e0000 	streq	r0, [lr, #-0]
     b34:	3a0e0300 	bcc	38173c <__bss_end__+0x376d44>
     b38:	490b3b0b 	stmdbmi	fp, {r0, r1, r3, r8, r9, fp, ip, sp}
     b3c:	00180213 	andseq	r0, r8, r3, lsl r2
     b40:	00340f00 	eorseq	r0, r4, r0, lsl #30
     b44:	0b3a0803 	bleq	e82b58 <__bss_end__+0xe78160>
     b48:	13490b3b 	movtne	r0, #39739	; 0x9b3b
     b4c:	00001802 	andeq	r1, r0, r2, lsl #16
     b50:	03003410 	movweq	r3, #1040	; 0x410
     b54:	3b0b3a08 	blcc	2cf37c <__bss_end__+0x2c4984>
     b58:	0213490b 	andseq	r4, r3, #180224	; 0x2c000
     b5c:	11000017 	tstne	r0, r7, lsl r0
     b60:	0e030034 	mcreq	0, 0, r0, cr3, cr4, {1}
     b64:	19341349 	ldmdbne	r4!, {r0, r3, r6, r8, r9, ip}
     b68:	00001802 	andeq	r1, r0, r2, lsl #16
     b6c:	11010b12 	tstne	r1, r2, lsl fp
     b70:	01061201 	tsteq	r6, r1, lsl #4
     b74:	13000013 	movwne	r0, #19
     b78:	0e030034 	mcreq	0, 0, r0, cr3, cr4, {1}
     b7c:	0b3b0b3a 	bleq	ec386c <__bss_end__+0xeb8e74>
     b80:	17021349 	strne	r1, [r2, -r9, asr #6]
     b84:	89140000 	ldmdbhi	r4, {}	; <UNPREDICTABLE>
     b88:	11000182 	smlabbne	r0, r2, r1, r0
     b8c:	00133101 	andseq	r3, r3, r1, lsl #2
     b90:	82891500 	addhi	r1, r9, #0, 10
     b94:	01110101 	tsteq	r1, r1, lsl #2
     b98:	13011331 	movwne	r1, #4913	; 0x1331
     b9c:	8a160000 	bhi	580ba4 <__bss_end__+0x5761ac>
     ba0:	02000182 	andeq	r0, r0, #-2147483616	; 0x80000020
     ba4:	18429118 	stmdane	r2, {r3, r4, r8, ip, pc}^
     ba8:	89170000 	ldmdbhi	r7, {}	; <UNPREDICTABLE>
     bac:	11010182 	smlabbne	r1, r2, r1, r0
     bb0:	00133101 	andseq	r3, r3, r1, lsl #2
     bb4:	01011800 	tsteq	r1, r0, lsl #16
     bb8:	13011349 	movwne	r1, #4937	; 0x1349
     bbc:	21190000 	tstcs	r9, r0
     bc0:	2f134900 	svccs	0x00134900
     bc4:	1a00000b 	bne	bf8 <_start-0x7408>
     bc8:	193f012e 	ldmdbne	pc!, {r1, r2, r3, r5, r8}	; <UNPREDICTABLE>
     bcc:	0b3a0e03 	bleq	e843e0 <__bss_end__+0xe799e8>
     bd0:	19270b3b 	stmdbne	r7!, {r0, r1, r3, r4, r5, r8, r9, fp}
     bd4:	06120111 			; <UNDEFINED> instruction: 0x06120111
     bd8:	42971840 	addsmi	r1, r7, #64, 16	; 0x400000
     bdc:	00130119 	andseq	r0, r3, r9, lsl r1
     be0:	01151b00 	tsteq	r5, r0, lsl #22
     be4:	13491927 	movtne	r1, #39207	; 0x9927
     be8:	00001301 	andeq	r1, r0, r1, lsl #6
     bec:	4900051c 	stmdbmi	r0, {r2, r3, r4, r8, sl}
     bf0:	1d000013 	stcne	0, cr0, [r0, #-76]	; 0xffffffb4
     bf4:	193f012e 	ldmdbne	pc!, {r1, r2, r3, r5, r8}	; <UNPREDICTABLE>
     bf8:	0b3a0e03 	bleq	e8440c <__bss_end__+0xe79a14>
     bfc:	19270b3b 	stmdbne	r7!, {r0, r1, r3, r4, r5, r8, r9, fp}
     c00:	01111349 	tsteq	r1, r9, asr #6
     c04:	18400612 	stmdane	r0, {r1, r4, r9, sl}^
     c08:	01194297 			; <UNDEFINED> instruction: 0x01194297
     c0c:	1e000013 	mcrne	0, 0, r0, cr0, cr3, {0}
     c10:	1755010b 	ldrbne	r0, [r5, -fp, lsl #2]
     c14:	341f0000 	ldrcc	r0, [pc], #-0	; c1c <_start-0x73e4>
     c18:	3a0e0300 	bcc	381820 <__bss_end__+0x376e28>
     c1c:	490b3b0b 	stmdbmi	fp, {r0, r1, r3, r8, r9, fp, ip, sp}
     c20:	3c193f13 	ldccc	15, cr3, [r9], {19}
     c24:	20000019 	andcs	r0, r0, r9, lsl r0
     c28:	193f002e 	ldmdbne	pc!, {r1, r2, r3, r5}	; <UNPREDICTABLE>
     c2c:	0b3a0e03 	bleq	e84440 <__bss_end__+0xe79a48>
     c30:	19270b3b 	stmdbne	r7!, {r0, r1, r3, r4, r5, r8, r9, fp}
     c34:	0000193c 	andeq	r1, r0, ip, lsr r9
     c38:	3f012e21 	svccc	0x00012e21
     c3c:	3a0e0319 	bcc	3818a8 <__bss_end__+0x376eb0>
     c40:	270b3b0b 	strcs	r3, [fp, -fp, lsl #22]
     c44:	3c134919 	ldccc	9, cr4, [r3], {25}
     c48:	00130119 	andseq	r0, r3, r9, lsl r1
     c4c:	00182200 	andseq	r2, r8, r0, lsl #4
     c50:	01000000 	mrseq	r0, (UNDEF: 0)
     c54:	0e250111 	mcreq	1, 1, r0, cr5, cr1, {0}
     c58:	0e030b13 	vmoveq.32	d3[0], r0
     c5c:	01110e1b 	tsteq	r1, fp, lsl lr
     c60:	17100612 			; <UNDEFINED> instruction: 0x17100612
     c64:	24020000 	strcs	r0, [r2], #-0
     c68:	3e0b0b00 	vmlacc.f64	d0, d11, d0
     c6c:	0008030b 	andeq	r0, r8, fp, lsl #6
     c70:	00240300 	eoreq	r0, r4, r0, lsl #6
     c74:	0b3e0b0b 	bleq	f838a8 <__bss_end__+0xf78eb0>
     c78:	00000e03 	andeq	r0, r0, r3, lsl #28
     c7c:	0b000f04 	bleq	4894 <_start-0x376c>
     c80:	0013490b 	andseq	r4, r3, fp, lsl #18
     c84:	00260500 	eoreq	r0, r6, r0, lsl #10
     c88:	00001349 	andeq	r1, r0, r9, asr #6
     c8c:	3f012e06 	svccc	0x00012e06
     c90:	3a0e0319 	bcc	3818fc <__bss_end__+0x376f04>
     c94:	270b3b0b 	strcs	r3, [fp, -fp, lsl #22]
     c98:	12011119 	andne	r1, r1, #1073741830	; 0x40000006
     c9c:	97184006 	ldrls	r4, [r8, -r6]
     ca0:	13011942 	movwne	r1, #6466	; 0x1942
     ca4:	89070000 	stmdbhi	r7, {}	; <UNPREDICTABLE>
     ca8:	11010182 	smlabbne	r1, r2, r1, r0
     cac:	00130101 	andseq	r0, r3, r1, lsl #2
     cb0:	828a0800 	addhi	r0, sl, #0, 16
     cb4:	18020001 	stmdane	r2, {r0}
     cb8:	00184291 	mulseq	r8, r1, r2
     cbc:	82890900 	addhi	r0, r9, #0, 18
     cc0:	01110101 	tsteq	r1, r1, lsl #2
     cc4:	13011331 	movwne	r1, #4913	; 0x1331
     cc8:	890a0000 	stmdbhi	sl, {}	; <UNPREDICTABLE>
     ccc:	11000182 	smlabbne	r0, r2, r1, r0
     cd0:	00133101 	andseq	r3, r3, r1, lsl #2
     cd4:	01150b00 	tsteq	r5, r0, lsl #22
     cd8:	13491927 	movtne	r1, #39207	; 0x9927
     cdc:	00001301 	andeq	r1, r0, r1, lsl #6
     ce0:	4900050c 	stmdbmi	r0, {r2, r3, r8, sl}
     ce4:	0d000013 	stceq	0, cr0, [r0, #-76]	; 0xffffffb4
     ce8:	0e030034 	mcreq	0, 0, r0, cr3, cr4, {1}
     cec:	0b3b0b3a 	bleq	ec39dc <__bss_end__+0xeb8fe4>
     cf0:	193f1349 	ldmdbne	pc!, {r0, r3, r6, r8, r9, ip}	; <UNPREDICTABLE>
     cf4:	0000193c 	andeq	r1, r0, ip, lsr r9
     cf8:	3f012e0e 	svccc	0x00012e0e
     cfc:	3a0e0319 	bcc	381968 <__bss_end__+0x376f70>
     d00:	270b3b0b 	strcs	r3, [fp, -fp, lsl #22]
     d04:	01193c19 	tsteq	r9, r9, lsl ip
     d08:	0f000013 	svceq	0x00000013
     d0c:	193f002e 	ldmdbne	pc!, {r1, r2, r3, r5}	; <UNPREDICTABLE>
     d10:	0b3a0e03 	bleq	e84524 <__bss_end__+0xe79b2c>
     d14:	19270b3b 	stmdbne	r7!, {r0, r1, r3, r4, r5, r8, r9, fp}
     d18:	0000193c 	andeq	r1, r0, ip, lsr r9
     d1c:	01110100 	tsteq	r1, r0, lsl #2
     d20:	0b130e25 	bleq	4c45bc <__bss_end__+0x4b9bc4>
     d24:	0e1b0e03 	cdpeq	14, 1, cr0, cr11, cr3, {0}
     d28:	06120111 			; <UNDEFINED> instruction: 0x06120111
     d2c:	00001710 	andeq	r1, r0, r0, lsl r7
     d30:	0b002402 	bleq	9d40 <__FUNCTION__.4312+0xc4>
     d34:	030b3e0b 	movweq	r3, #48651	; 0xbe0b
     d38:	03000008 	movweq	r0, #8
     d3c:	0b0b0024 	bleq	2c0dd4 <__bss_end__+0x2b63dc>
     d40:	0e030b3e 	vmoveq.16	d3[0], r0
     d44:	2e040000 	cdpcs	0, 0, cr0, cr4, cr0, {0}
     d48:	03193f01 	tsteq	r9, #1, 30
     d4c:	3b0b3a0e 	blcc	2cf58c <__bss_end__+0x2c4b94>
     d50:	1201110b 	andne	r1, r1, #-1073741822	; 0xc0000002
     d54:	97184006 	ldrls	r4, [r8, -r6]
     d58:	13011942 	movwne	r1, #6466	; 0x1942
     d5c:	34050000 	strcc	r0, [r5], #-0
     d60:	3a0e0300 	bcc	381968 <__bss_end__+0x376f70>
     d64:	490b3b0b 	stmdbmi	fp, {r0, r1, r3, r8, r9, fp, ip, sp}
     d68:	3c193f13 	ldccc	15, cr3, [r9], {19}
     d6c:	06000019 			; <UNDEFINED> instruction: 0x06000019
     d70:	193f002e 	ldmdbne	pc!, {r1, r2, r3, r5}	; <UNPREDICTABLE>
     d74:	0b3a0e03 	bleq	e84588 <__bss_end__+0xe79b90>
     d78:	19270b3b 	stmdbne	r7!, {r0, r1, r3, r4, r5, r8, r9, fp}
     d7c:	0000193c 	andeq	r1, r0, ip, lsr r9
     d80:	03003407 	movweq	r3, #1031	; 0x407
     d84:	3b0b3a08 	blcc	2cf5ac <__bss_end__+0x2c4bb4>
     d88:	0213490b 	andseq	r4, r3, #180224	; 0x2c000
     d8c:	08000017 	stmdaeq	r0, {r0, r1, r2, r4}
     d90:	0e030034 	mcreq	0, 0, r0, cr3, cr4, {1}
     d94:	0b3b0b3a 	bleq	ec3a84 <__bss_end__+0xeb908c>
     d98:	00001349 	andeq	r1, r0, r9, asr #6
     d9c:	01828909 	orreq	r8, r2, r9, lsl #18
     da0:	31011100 	mrscc	r1, (UNDEF: 17)
     da4:	0a000013 	beq	df8 <_start-0x7208>
     da8:	0b0b000f 	bleq	2c0dec <__bss_end__+0x2b63f4>
     dac:	00001349 	andeq	r1, r0, r9, asr #6
     db0:	01110100 	tsteq	r1, r0, lsl #2
     db4:	0b130e25 	bleq	4c4650 <__bss_end__+0x4b9c58>
     db8:	0e1b0e03 	cdpeq	14, 1, cr0, cr11, cr3, {0}
     dbc:	01111755 	tsteq	r1, r5, asr r7
     dc0:	00001710 	andeq	r1, r0, r0, lsl r7
     dc4:	0b002402 	bleq	9dd4 <__FUNCTION__.4312+0x158>
     dc8:	030b3e0b 	movweq	r3, #48651	; 0xbe0b
     dcc:	03000008 	movweq	r0, #8
     dd0:	0b0b0024 	bleq	2c0e68 <__bss_end__+0x2b6470>
     dd4:	0e030b3e 	vmoveq.16	d3[0], r0
     dd8:	2e040000 	cdpcs	0, 0, cr0, cr4, cr0, {0}
     ddc:	03193f01 	tsteq	r9, #1, 30
     de0:	3b0b3a0e 	blcc	2cf620 <__bss_end__+0x2c4c28>
     de4:	4919270b 	ldmdbmi	r9, {r0, r1, r3, r8, r9, sl, sp}
     de8:	12011113 	andne	r1, r1, #-1073741820	; 0xc0000004
     dec:	97184006 	ldrls	r4, [r8, -r6]
     df0:	13011942 	movwne	r1, #6466	; 0x1942
     df4:	34050000 	strcc	r0, [r5], #-0
     df8:	3a0e0300 	bcc	381a00 <__bss_end__+0x377008>
     dfc:	490b3b0b 	stmdbmi	fp, {r0, r1, r3, r8, r9, fp, ip, sp}
     e00:	00170213 	andseq	r0, r7, r3, lsl r2
     e04:	012e0600 	teqeq	lr, r0, lsl #12
     e08:	0e03193f 	mcreq	9, 0, r1, cr3, cr15, {1}
     e0c:	0b3b0b3a 	bleq	ec3afc <__bss_end__+0xeb9104>
     e10:	01111927 	tsteq	r1, r7, lsr #18
     e14:	18400612 	stmdane	r0, {r1, r4, r9, sl}^
     e18:	01194297 			; <UNDEFINED> instruction: 0x01194297
     e1c:	07000013 	smladeq	r0, r3, r0, r0
     e20:	0e030034 	mcreq	0, 0, r0, cr3, cr4, {1}
     e24:	0b3b0b3a 	bleq	ec3b14 <__bss_end__+0xeb911c>
     e28:	061c1349 	ldreq	r1, [ip], -r9, asr #6
     e2c:	34080000 	strcc	r0, [r8], #-0
     e30:	3a0e0300 	bcc	381a38 <__bss_end__+0x377040>
     e34:	490b3b0b 	stmdbmi	fp, {r0, r1, r3, r8, r9, fp, ip, sp}
     e38:	000b1c13 	andeq	r1, fp, r3, lsl ip
     e3c:	82890900 	addhi	r0, r9, #0, 18
     e40:	01110001 	tsteq	r1, r1
     e44:	00001331 	andeq	r1, r0, r1, lsr r3
     e48:	0182890a 	orreq	r8, r2, sl, lsl #18
     e4c:	31011101 	tstcc	r1, r1, lsl #2
     e50:	00130113 	andseq	r0, r3, r3, lsl r1
     e54:	828a0b00 	addhi	r0, sl, #0, 22
     e58:	18020001 	stmdane	r2, {r0}
     e5c:	00184291 	mulseq	r8, r1, r2
     e60:	82890c00 	addhi	r0, r9, #0, 24
     e64:	01110101 	tsteq	r1, r1, lsl #2
     e68:	00001331 	andeq	r1, r0, r1, lsr r3
     e6c:	4900260d 	stmdbmi	r0, {r0, r2, r3, r9, sl, sp}
     e70:	0e000013 	mcreq	0, 0, r0, cr0, cr3, {0}
     e74:	193f012e 	ldmdbne	pc!, {r1, r2, r3, r5, r8}	; <UNPREDICTABLE>
     e78:	0b3a0e03 	bleq	e8468c <__bss_end__+0xe79c94>
     e7c:	19270b3b 	stmdbne	r7!, {r0, r1, r3, r4, r5, r8, r9, fp}
     e80:	1301193c 	movwne	r1, #6460	; 0x193c
     e84:	050f0000 	streq	r0, [pc, #-0]	; e8c <_start-0x7174>
     e88:	00134900 	andseq	r4, r3, r0, lsl #18
     e8c:	012e1000 	teqeq	lr, r0
     e90:	0e03193f 	mcreq	9, 0, r1, cr3, cr15, {1}
     e94:	0b3b0b3a 	bleq	ec3b84 <__bss_end__+0xeb918c>
     e98:	193c1927 	ldmdbne	ip!, {r0, r1, r2, r5, r8, fp, ip}
     e9c:	01000000 	mrseq	r0, (UNDEF: 0)
     ea0:	0e250111 	mcreq	1, 1, r0, cr5, cr1, {0}
     ea4:	0e030b13 	vmoveq.32	d3[0], r0
     ea8:	01110e1b 	tsteq	r1, fp, lsl lr
     eac:	17100612 			; <UNDEFINED> instruction: 0x17100612
     eb0:	24020000 	strcs	r0, [r2], #-0
     eb4:	3e0b0b00 	vmlacc.f64	d0, d11, d0
     eb8:	0008030b 	andeq	r0, r8, fp, lsl #6
     ebc:	00240300 	eoreq	r0, r4, r0, lsl #6
     ec0:	0b3e0b0b 	bleq	f83af4 <__bss_end__+0xf790fc>
     ec4:	00000e03 	andeq	r0, r0, r3, lsl #28
     ec8:	3f012e04 	svccc	0x00012e04
     ecc:	3a0e0319 	bcc	381b38 <__bss_end__+0x377140>
     ed0:	270b3b0b 	strcs	r3, [fp, -fp, lsl #22]
     ed4:	12011119 	andne	r1, r1, #1073741830	; 0x40000006
     ed8:	97184006 	ldrls	r4, [r8, -r6]
     edc:	13011942 	movwne	r1, #6466	; 0x1942
     ee0:	05050000 	streq	r0, [r5, #-0]
     ee4:	3a0e0300 	bcc	381aec <__bss_end__+0x3770f4>
     ee8:	490b3b0b 	stmdbmi	fp, {r0, r1, r3, r8, r9, fp, ip, sp}
     eec:	00170213 	andseq	r0, r7, r3, lsl r2
     ef0:	012e0600 	teqeq	lr, r0, lsl #12
     ef4:	0e03193f 	mcreq	9, 0, r1, cr3, cr15, {1}
     ef8:	0b3b0b3a 	bleq	ec3be8 <__bss_end__+0xeb91f0>
     efc:	13491927 	movtne	r1, #39207	; 0x9927
     f00:	06120111 			; <UNDEFINED> instruction: 0x06120111
     f04:	42971840 	addsmi	r1, r7, #64, 16	; 0x400000
     f08:	00130119 	andseq	r0, r3, r9, lsl r1
     f0c:	82890700 	addhi	r0, r9, #0, 14
     f10:	01110101 	tsteq	r1, r1, lsl #2
     f14:	00001331 	andeq	r1, r0, r1, lsr r3
     f18:	01828a08 	orreq	r8, r2, r8, lsl #20
     f1c:	91180200 	tstls	r8, r0, lsl #4
     f20:	00001842 	andeq	r1, r0, r2, asr #16
     f24:	03003409 	movweq	r3, #1033	; 0x409
     f28:	3b0b3a08 	blcc	2cf750 <__bss_end__+0x2c4d58>
     f2c:	0213490b 	andseq	r4, r3, #180224	; 0x2c000
     f30:	0a000018 	beq	f98 <_start-0x7068>
     f34:	00018289 	andeq	r8, r1, r9, lsl #5
     f38:	13310111 	teqne	r1, #1073741828	; 0x40000004
     f3c:	050b0000 	streq	r0, [fp, #-0]
     f40:	3a080300 	bcc	201b48 <__bss_end__+0x1f7150>
     f44:	490b3b0b 	stmdbmi	fp, {r0, r1, r3, r8, r9, fp, ip, sp}
     f48:	00170213 	andseq	r0, r7, r3, lsl r2
     f4c:	010b0c00 	tsteq	fp, r0, lsl #24
     f50:	06120111 			; <UNDEFINED> instruction: 0x06120111
     f54:	00001301 	andeq	r1, r0, r1, lsl #6
     f58:	0300340d 	movweq	r3, #1037	; 0x40d
     f5c:	3b0b3a08 	blcc	2cf784 <__bss_end__+0x2c4d8c>
     f60:	0213490b 	andseq	r4, r3, #180224	; 0x2c000
     f64:	0e000017 	mcreq	0, 0, r0, cr0, cr7, {0}
     f68:	193f012e 	ldmdbne	pc!, {r1, r2, r3, r5, r8}	; <UNPREDICTABLE>
     f6c:	0b3a0e03 	bleq	e84780 <__bss_end__+0xe79d88>
     f70:	19270b3b 	stmdbne	r7!, {r0, r1, r3, r4, r5, r8, r9, fp}
     f74:	193c1349 	ldmdbne	ip!, {r0, r3, r6, r8, r9, ip}
     f78:	050f0000 	streq	r0, [pc, #-0]	; f80 <_start-0x7080>
     f7c:	00134900 	andseq	r4, r3, r0, lsl #18
     f80:	11010000 	mrsne	r0, (UNDEF: 1)
     f84:	130e2501 	movwne	r2, #58625	; 0xe501
     f88:	1b0e030b 	blne	381bbc <__bss_end__+0x3771c4>
     f8c:	1201110e 	andne	r1, r1, #-2147483645	; 0x80000003
     f90:	00171006 	andseq	r1, r7, r6
     f94:	00240200 	eoreq	r0, r4, r0, lsl #4
     f98:	0b3e0b0b 	bleq	f83bcc <__bss_end__+0xf791d4>
     f9c:	00000803 	andeq	r0, r0, r3, lsl #16
     fa0:	0b002403 	bleq	9fb4 <__FUNCTION__.4312+0x338>
     fa4:	030b3e0b 	movweq	r3, #48651	; 0xbe0b
     fa8:	0400000e 	streq	r0, [r0], #-14
     fac:	13490035 	movtne	r0, #36917	; 0x9035
     fb0:	16050000 	strne	r0, [r5], -r0
     fb4:	3a0e0300 	bcc	381bbc <__bss_end__+0x3771c4>
     fb8:	490b3b0b 	stmdbmi	fp, {r0, r1, r3, r8, r9, fp, ip, sp}
     fbc:	06000013 			; <UNDEFINED> instruction: 0x06000013
     fc0:	0e030016 	mcreq	0, 0, r0, cr3, cr6, {0}
     fc4:	053b0b3a 	ldreq	r0, [fp, #-2874]!	; 0xb3a
     fc8:	00001349 	andeq	r1, r0, r9, asr #6
     fcc:	0b011707 	bleq	46bf0 <__bss_end__+0x3c1f8>
     fd0:	3b0b3a0b 	blcc	2cf804 <__bss_end__+0x2c4e0c>
     fd4:	0013010b 	andseq	r0, r3, fp, lsl #2
     fd8:	000d0800 	andeq	r0, sp, r0, lsl #16
     fdc:	0b3a0e03 	bleq	e847f0 <__bss_end__+0xe79df8>
     fe0:	13490b3b 	movtne	r0, #39739	; 0x9b3b
     fe4:	01090000 	mrseq	r0, (UNDEF: 9)
     fe8:	01134901 	tsteq	r3, r1, lsl #18
     fec:	0a000013 	beq	1040 <_start-0x6fc0>
     ff0:	13490021 	movtne	r0, #36897	; 0x9021
     ff4:	00000b2f 	andeq	r0, r0, pc, lsr #22
     ff8:	0b01130b 	bleq	45c2c <__bss_end__+0x3b234>
     ffc:	3b0b3a0b 	blcc	2cf830 <__bss_end__+0x2c4e38>
    1000:	0013010b 	andseq	r0, r3, fp, lsl #2
    1004:	000d0c00 	andeq	r0, sp, r0, lsl #24
    1008:	0b3a0e03 	bleq	e8481c <__bss_end__+0xe79e24>
    100c:	13490b3b 	movtne	r0, #39739	; 0x9b3b
    1010:	00000b38 	andeq	r0, r0, r8, lsr fp
    1014:	0b000f0d 	bleq	4c50 <_start-0x33b0>
    1018:	0e00000b 	cdpeq	0, 0, cr0, cr0, cr11, {0}
    101c:	0b0b000f 	bleq	2c1060 <__bss_end__+0x2b6668>
    1020:	00001349 	andeq	r1, r0, r9, asr #6
    1024:	4900260f 	stmdbmi	r0, {r0, r1, r2, r3, r9, sl, sp}
    1028:	10000013 	andne	r0, r0, r3, lsl r0
    102c:	0e030113 	mcreq	1, 0, r0, cr3, cr3, {0}
    1030:	0b3a0b0b 	bleq	e83c64 <__bss_end__+0xe7926c>
    1034:	13010b3b 	movwne	r0, #6971	; 0x1b3b
    1038:	0d110000 	ldceq	0, cr0, [r1, #-0]
    103c:	3a080300 	bcc	201c44 <__bss_end__+0x1f724c>
    1040:	490b3b0b 	stmdbmi	fp, {r0, r1, r3, r8, r9, fp, ip, sp}
    1044:	000b3813 	andeq	r3, fp, r3, lsl r8
    1048:	01131200 	tsteq	r3, r0, lsl #4
    104c:	050b0e03 	streq	r0, [fp, #-3587]	; 0xe03
    1050:	0b3b0b3a 	bleq	ec3d40 <__bss_end__+0xeb9348>
    1054:	00001301 	andeq	r1, r0, r1, lsl #6
    1058:	03000d13 	movweq	r0, #3347	; 0xd13
    105c:	3b0b3a0e 	blcc	2cf89c <__bss_end__+0x2c4ea4>
    1060:	3813490b 	ldmdacc	r3, {r0, r1, r3, r8, fp, lr}
    1064:	14000005 	strne	r0, [r0], #-5
    1068:	19270015 	stmdbne	r7!, {r0, r2, r4}
    106c:	15150000 	ldrne	r0, [r5, #-0]
    1070:	49192701 	ldmdbmi	r9, {r0, r8, r9, sl, sp}
    1074:	00130113 	andseq	r0, r3, r3, lsl r1
    1078:	00051600 	andeq	r1, r5, r0, lsl #12
    107c:	00001349 	andeq	r1, r0, r9, asr #6
    1080:	03011317 	movweq	r1, #4887	; 0x1317
    1084:	3a050b0e 	bcc	143cc4 <__bss_end__+0x1392cc>
    1088:	01053b0b 	tsteq	r5, fp, lsl #22
    108c:	18000013 	stmdane	r0, {r0, r1, r4}
    1090:	0e03000d 	cdpeq	0, 0, cr0, cr3, cr13, {0}
    1094:	053b0b3a 	ldreq	r0, [fp, #-2874]!	; 0xb3a
    1098:	0b381349 	bleq	e05dc4 <__bss_end__+0xdfb3cc>
    109c:	0d190000 	ldceq	0, cr0, [r9, #-0]
    10a0:	3a0e0300 	bcc	381ca8 <__bss_end__+0x3772b0>
    10a4:	49053b0b 	stmdbmi	r5, {r0, r1, r3, r8, r9, fp, ip, sp}
    10a8:	00053813 	andeq	r3, r5, r3, lsl r8
    10ac:	01131a00 	tsteq	r3, r0, lsl #20
    10b0:	0b0b0e03 	bleq	2c48c4 <__bss_end__+0x2b9ecc>
    10b4:	053b0b3a 	ldreq	r0, [fp, #-2874]!	; 0xb3a
    10b8:	00001301 	andeq	r1, r0, r1, lsl #6
    10bc:	0b01131b 	bleq	45d30 <__bss_end__+0x3b338>
    10c0:	3b0b3a0b 	blcc	2cf8f4 <__bss_end__+0x2c4efc>
    10c4:	00130105 	andseq	r0, r3, r5, lsl #2
    10c8:	01171c00 	tsteq	r7, r0, lsl #24
    10cc:	0b3a0b0b 	bleq	e83d00 <__bss_end__+0xe79308>
    10d0:	1301053b 	movwne	r0, #5435	; 0x153b
    10d4:	0d1d0000 	ldceq	0, cr0, [sp, #-0]
    10d8:	3a0e0300 	bcc	381ce0 <__bss_end__+0x3772e8>
    10dc:	49053b0b 	stmdbmi	r5, {r0, r1, r3, r8, r9, fp, ip, sp}
    10e0:	1e000013 	mcrne	0, 0, r0, cr0, cr3, {0}
    10e4:	19270115 	stmdbne	r7!, {r0, r2, r4, r8}
    10e8:	00001301 	andeq	r1, r0, r1, lsl #6
    10ec:	0300341f 	movweq	r3, #1055	; 0x41f
    10f0:	3b0b3a0e 	blcc	2cf930 <__bss_end__+0x2c4f38>
    10f4:	3f134905 	svccc	0x00134905
    10f8:	00193c19 	andseq	r3, r9, r9, lsl ip
    10fc:	00342000 	eorseq	r2, r4, r0
    1100:	0b3a0e03 	bleq	e84914 <__bss_end__+0xe79f1c>
    1104:	13490b3b 	movtne	r0, #39739	; 0x9b3b
    1108:	193c193f 	ldmdbne	ip!, {r0, r1, r2, r3, r4, r5, r8, fp, ip}
    110c:	04210000 	strteq	r0, [r1], #-0
    1110:	490b0b01 	stmdbmi	fp, {r0, r8, r9, fp}
    1114:	3b0b3a13 	blcc	2cf968 <__bss_end__+0x2c4f70>
    1118:	0013010b 	andseq	r0, r3, fp, lsl #2
    111c:	00282200 	eoreq	r2, r8, r0, lsl #4
    1120:	0b1c0e03 	bleq	704934 <__bss_end__+0x6f9f3c>
    1124:	34230000 	strtcc	r0, [r3], #-0
    1128:	3a0e0300 	bcc	381d30 <__bss_end__+0x377338>
    112c:	490b3b0b 	stmdbmi	fp, {r0, r1, r3, r8, r9, fp, ip, sp}
    1130:	00061c13 	andeq	r1, r6, r3, lsl ip
    1134:	012e2400 	teqeq	lr, r0, lsl #8
    1138:	0e03193f 	mcreq	9, 0, r1, cr3, cr15, {1}
    113c:	0b3b0b3a 	bleq	ec3e2c <__bss_end__+0xeb9434>
    1140:	13491927 	movtne	r1, #39207	; 0x9927
    1144:	06120111 			; <UNDEFINED> instruction: 0x06120111
    1148:	42971840 	addsmi	r1, r7, #64, 16	; 0x400000
    114c:	00130119 	andseq	r0, r3, r9, lsl r1
    1150:	82892500 	addhi	r2, r9, #0, 10
    1154:	01110001 	tsteq	r1, r1
    1158:	00001331 	andeq	r1, r0, r1, lsr r3
    115c:	3f012e26 	svccc	0x00012e26
    1160:	3a0e0319 	bcc	381dcc <__bss_end__+0x3773d4>
    1164:	270b3b0b 	strcs	r3, [fp, -fp, lsl #22]
    1168:	12011119 	andne	r1, r1, #1073741830	; 0x40000006
    116c:	97184006 	ldrls	r4, [r8, -r6]
    1170:	13011942 	movwne	r1, #6466	; 0x1942
    1174:	05270000 	streq	r0, [r7, #-0]!
    1178:	3a080300 	bcc	201d80 <__bss_end__+0x1f7388>
    117c:	490b3b0b 	stmdbmi	fp, {r0, r1, r3, r8, r9, fp, ip, sp}
    1180:	00170213 	andseq	r0, r7, r3, lsl r2
    1184:	82892800 	addhi	r2, r9, #0, 16
    1188:	01110101 	tsteq	r1, r1, lsl #2
    118c:	13011331 	movwne	r1, #4913	; 0x1331
    1190:	8a290000 	bhi	a41198 <__bss_end__+0xa367a0>
    1194:	02000182 	andeq	r0, r0, #-2147483616	; 0x80000020
    1198:	18429118 	stmdane	r2, {r3, r4, r8, ip, pc}^
    119c:	342a0000 	strtcc	r0, [sl], #-0
    11a0:	3a080300 	bcc	201da8 <__bss_end__+0x1f73b0>
    11a4:	490b3b0b 	stmdbmi	fp, {r0, r1, r3, r8, r9, fp, ip, sp}
    11a8:	00180213 	andseq	r0, r8, r3, lsl r2
    11ac:	82892b00 	addhi	r2, r9, #0, 22
    11b0:	01110101 	tsteq	r1, r1, lsl #2
    11b4:	00001331 	andeq	r1, r0, r1, lsr r3
    11b8:	03012e2c 	movweq	r2, #7724	; 0x1e2c
    11bc:	3b0b3a0e 	blcc	2cf9fc <__bss_end__+0x2c5004>
    11c0:	1119270b 	tstne	r9, fp, lsl #14
    11c4:	40061201 	andmi	r1, r6, r1, lsl #4
    11c8:	19429718 	stmdbne	r2, {r3, r4, r8, r9, sl, ip, pc}^
    11cc:	00001301 	andeq	r1, r0, r1, lsl #6
    11d0:	0300052d 	movweq	r0, #1325	; 0x52d
    11d4:	3b0b3a0e 	blcc	2cfa14 <__bss_end__+0x2c501c>
    11d8:	0213490b 	andseq	r4, r3, #180224	; 0x2c000
    11dc:	2e000017 	mcrcs	0, 0, r0, cr0, cr7, {0}
    11e0:	00000035 	andeq	r0, r0, r5, lsr r0
    11e4:	3f002e2f 	svccc	0x00002e2f
    11e8:	6e193c19 	mrcvs	12, 0, r3, cr9, cr9, {0}
    11ec:	3a0e030e 	bcc	381e2c <__bss_end__+0x377434>
    11f0:	000b3b0b 	andeq	r3, fp, fp, lsl #22
    11f4:	11010000 	mrsne	r0, (UNDEF: 1)
    11f8:	130e2501 	movwne	r2, #58625	; 0xe501
    11fc:	1b0e030b 	blne	381e30 <__bss_end__+0x377438>
    1200:	1201110e 	andne	r1, r1, #-2147483645	; 0x80000003
    1204:	00171006 	andseq	r1, r7, r6
    1208:	00240200 	eoreq	r0, r4, r0, lsl #4
    120c:	0b3e0b0b 	bleq	f83e40 <__bss_end__+0xf79448>
    1210:	00000803 	andeq	r0, r0, r3, lsl #16
    1214:	0b002403 	bleq	a228 <__FUNCTION__.4336+0x204>
    1218:	030b3e0b 	movweq	r3, #48651	; 0xbe0b
    121c:	0400000e 	streq	r0, [r0], #-14
    1220:	13490026 	movtne	r0, #36902	; 0x9026
    1224:	16050000 	strne	r0, [r5], -r0
    1228:	3a0e0300 	bcc	381e30 <__bss_end__+0x377438>
    122c:	490b3b0b 	stmdbmi	fp, {r0, r1, r3, r8, r9, fp, ip, sp}
    1230:	06000013 			; <UNDEFINED> instruction: 0x06000013
    1234:	0e030016 	mcreq	0, 0, r0, cr3, cr6, {0}
    1238:	053b0b3a 	ldreq	r0, [fp, #-2874]!	; 0xb3a
    123c:	00001349 	andeq	r1, r0, r9, asr #6
    1240:	0b011707 	bleq	46e64 <__bss_end__+0x3c46c>
    1244:	3b0b3a0b 	blcc	2cfa78 <__bss_end__+0x2c5080>
    1248:	0013010b 	andseq	r0, r3, fp, lsl #2
    124c:	000d0800 	andeq	r0, sp, r0, lsl #16
    1250:	0b3a0e03 	bleq	e84a64 <__bss_end__+0xe7a06c>
    1254:	13490b3b 	movtne	r0, #39739	; 0x9b3b
    1258:	01090000 	mrseq	r0, (UNDEF: 9)
    125c:	01134901 	tsteq	r3, r1, lsl #18
    1260:	0a000013 	beq	12b4 <_start-0x6d4c>
    1264:	13490021 	movtne	r0, #36897	; 0x9021
    1268:	00000b2f 	andeq	r0, r0, pc, lsr #22
    126c:	0b01130b 	bleq	45ea0 <__bss_end__+0x3b4a8>
    1270:	3b0b3a0b 	blcc	2cfaa4 <__bss_end__+0x2c50ac>
    1274:	0013010b 	andseq	r0, r3, fp, lsl #2
    1278:	000d0c00 	andeq	r0, sp, r0, lsl #24
    127c:	0b3a0e03 	bleq	e84a90 <__bss_end__+0xe7a098>
    1280:	13490b3b 	movtne	r0, #39739	; 0x9b3b
    1284:	00000b38 	andeq	r0, r0, r8, lsr fp
    1288:	0b000f0d 	bleq	4ec4 <_start-0x313c>
    128c:	0e00000b 	cdpeq	0, 0, cr0, cr0, cr11, {0}
    1290:	0b0b000f 	bleq	2c12d4 <__bss_end__+0x2b68dc>
    1294:	00001349 	andeq	r1, r0, r9, asr #6
    1298:	0301130f 	movweq	r1, #4879	; 0x130f
    129c:	3a0b0b0e 	bcc	2c3edc <__bss_end__+0x2b94e4>
    12a0:	010b3b0b 	tsteq	fp, fp, lsl #22
    12a4:	10000013 	andne	r0, r0, r3, lsl r0
    12a8:	0803000d 	stmdaeq	r3, {r0, r2, r3}
    12ac:	0b3b0b3a 	bleq	ec3f9c <__bss_end__+0xeb95a4>
    12b0:	0b381349 	bleq	e05fdc <__bss_end__+0xdfb5e4>
    12b4:	13110000 	tstne	r1, #0
    12b8:	0b0e0301 	bleq	381ec4 <__bss_end__+0x3774cc>
    12bc:	3b0b3a05 	blcc	2cfad8 <__bss_end__+0x2c50e0>
    12c0:	0013010b 	andseq	r0, r3, fp, lsl #2
    12c4:	000d1200 	andeq	r1, sp, r0, lsl #4
    12c8:	0b3a0e03 	bleq	e84adc <__bss_end__+0xe7a0e4>
    12cc:	13490b3b 	movtne	r0, #39739	; 0x9b3b
    12d0:	00000538 	andeq	r0, r0, r8, lsr r5
    12d4:	27001513 	smladcs	r0, r3, r5, r1
    12d8:	14000019 	strne	r0, [r0], #-25
    12dc:	19270115 	stmdbne	r7!, {r0, r2, r4, r8}
    12e0:	13011349 	movwne	r1, #4937	; 0x1349
    12e4:	05150000 	ldreq	r0, [r5, #-0]
    12e8:	00134900 	andseq	r4, r3, r0, lsl #18
    12ec:	01131600 	tsteq	r3, r0, lsl #12
    12f0:	050b0e03 	streq	r0, [fp, #-3587]	; 0xe03
    12f4:	053b0b3a 	ldreq	r0, [fp, #-2874]!	; 0xb3a
    12f8:	00001301 	andeq	r1, r0, r1, lsl #6
    12fc:	03000d17 	movweq	r0, #3351	; 0xd17
    1300:	3b0b3a0e 	blcc	2cfb40 <__bss_end__+0x2c5148>
    1304:	38134905 	ldmdacc	r3, {r0, r2, r8, fp, lr}
    1308:	1800000b 	stmdane	r0, {r0, r1, r3}
    130c:	0e03000d 	cdpeq	0, 0, cr0, cr3, cr13, {0}
    1310:	053b0b3a 	ldreq	r0, [fp, #-2874]!	; 0xb3a
    1314:	05381349 	ldreq	r1, [r8, #-841]!	; 0x349
    1318:	13190000 	tstne	r9, #0
    131c:	0b0e0301 	bleq	381f28 <__bss_end__+0x377530>
    1320:	3b0b3a0b 	blcc	2cfb54 <__bss_end__+0x2c515c>
    1324:	00130105 	andseq	r0, r3, r5, lsl #2
    1328:	01131a00 	tsteq	r3, r0, lsl #20
    132c:	0b3a0b0b 	bleq	e83f60 <__bss_end__+0xe79568>
    1330:	1301053b 	movwne	r0, #5435	; 0x153b
    1334:	171b0000 	ldrne	r0, [fp, -r0]
    1338:	3a0b0b01 	bcc	2c3f44 <__bss_end__+0x2b954c>
    133c:	01053b0b 	tsteq	r5, fp, lsl #22
    1340:	1c000013 	stcne	0, cr0, [r0], {19}
    1344:	0e03000d 	cdpeq	0, 0, cr0, cr3, cr13, {0}
    1348:	053b0b3a 	ldreq	r0, [fp, #-2874]!	; 0xb3a
    134c:	00001349 	andeq	r1, r0, r9, asr #6
    1350:	2701151d 	smladcs	r1, sp, r5, r1
    1354:	00130119 	andseq	r0, r3, r9, lsl r1
    1358:	00341e00 	eorseq	r1, r4, r0, lsl #28
    135c:	0b3a0e03 	bleq	e84b70 <__bss_end__+0xe7a178>
    1360:	1349053b 	movtne	r0, #38203	; 0x953b
    1364:	193c193f 	ldmdbne	ip!, {r0, r1, r2, r3, r4, r5, r8, fp, ip}
    1368:	341f0000 	ldrcc	r0, [pc], #-0	; 1370 <_start-0x6c90>
    136c:	3a0e0300 	bcc	381f74 <__bss_end__+0x37757c>
    1370:	490b3b0b 	stmdbmi	fp, {r0, r1, r3, r8, r9, fp, ip, sp}
    1374:	3c193f13 	ldccc	15, cr3, [r9], {19}
    1378:	20000019 	andcs	r0, r0, r9, lsl r0
    137c:	0b0b0104 	bleq	2c1794 <__bss_end__+0x2b6d9c>
    1380:	0b3a1349 	bleq	e860ac <__bss_end__+0xe7b6b4>
    1384:	13010b3b 	movwne	r0, #6971	; 0x1b3b
    1388:	28210000 	stmdacs	r1!, {}	; <UNPREDICTABLE>
    138c:	1c0e0300 	stcne	3, cr0, [lr], {-0}
    1390:	2200000b 	andcs	r0, r0, #11
    1394:	0e030034 	mcreq	0, 0, r0, cr3, cr4, {1}
    1398:	0b3b0b3a 	bleq	ec4088 <__bss_end__+0xeb9690>
    139c:	061c1349 	ldreq	r1, [ip], -r9, asr #6
    13a0:	2e230000 	cdpcs	0, 2, cr0, cr3, cr0, {0}
    13a4:	03193f01 	tsteq	r9, #1, 30
    13a8:	3b0b3a0e 	blcc	2cfbe8 <__bss_end__+0x2c51f0>
    13ac:	4919270b 	ldmdbmi	r9, {r0, r1, r3, r8, r9, sl, sp}
    13b0:	12011113 	andne	r1, r1, #-1073741820	; 0xc0000004
    13b4:	97184006 	ldrls	r4, [r8, -r6]
    13b8:	13011942 	movwne	r1, #6466	; 0x1942
    13bc:	05240000 	streq	r0, [r4, #-0]!
    13c0:	3a080300 	bcc	201fc8 <__bss_end__+0x1f75d0>
    13c4:	490b3b0b 	stmdbmi	fp, {r0, r1, r3, r8, r9, fp, ip, sp}
    13c8:	00170213 	andseq	r0, r7, r3, lsl r2
    13cc:	00342500 	eorseq	r2, r4, r0, lsl #10
    13d0:	0b3a0e03 	bleq	e84be4 <__bss_end__+0xe7a1ec>
    13d4:	13490b3b 	movtne	r0, #39739	; 0x9b3b
    13d8:	00001702 	andeq	r1, r0, r2, lsl #14
    13dc:	03003426 	movweq	r3, #1062	; 0x426
    13e0:	3b0b3a08 	blcc	2cfc08 <__bss_end__+0x2c5210>
    13e4:	0213490b 	andseq	r4, r3, #180224	; 0x2c000
    13e8:	27000017 	smladcs	r0, r7, r0, r0
    13ec:	01018289 	smlabbeq	r1, r9, r2, r8
    13f0:	13310111 	teqne	r1, #1073741828	; 0x40000004
    13f4:	8a280000 	bhi	a013fc <__bss_end__+0x9f6a04>
    13f8:	02000182 	andeq	r0, r0, #-2147483616	; 0x80000020
    13fc:	18429118 	stmdane	r2, {r3, r4, r8, ip, pc}^
    1400:	2e290000 	cdpcs	0, 2, cr0, cr9, cr0, {0}
    1404:	03193f01 	tsteq	r9, #1, 30
    1408:	3b0b3a0e 	blcc	2cfc48 <__bss_end__+0x2c5250>
    140c:	1119270b 	tstne	r9, fp, lsl #14
    1410:	40061201 	andmi	r1, r6, r1, lsl #4
    1414:	19429718 	stmdbne	r2, {r3, r4, r8, r9, sl, ip, pc}^
    1418:	00001301 	andeq	r1, r0, r1, lsl #6
    141c:	0182892a 	orreq	r8, r2, sl, lsr #18
    1420:	31011101 	tstcc	r1, r1, lsl #2
    1424:	00130113 	andseq	r0, r3, r3, lsl r1
    1428:	82892b00 	addhi	r2, r9, #0, 22
    142c:	01110001 	tsteq	r1, r1
    1430:	00001331 	andeq	r1, r0, r1, lsr r3
    1434:	0300052c 	movweq	r0, #1324	; 0x52c
    1438:	3b0b3a0e 	blcc	2cfc78 <__bss_end__+0x2c5280>
    143c:	0213490b 	andseq	r4, r3, #180224	; 0x2c000
    1440:	2d000017 	stccs	0, cr0, [r0, #-92]	; 0xffffffa4
    1444:	08030034 	stmdaeq	r3, {r2, r4, r5}
    1448:	0b3b0b3a 	bleq	ec4138 <__bss_end__+0xeb9740>
    144c:	18021349 	stmdane	r2, {r0, r3, r6, r8, r9, ip}
    1450:	2e2e0000 	cdpcs	0, 2, cr0, cr14, cr0, {0}
    1454:	3c193f00 	ldccc	15, cr3, [r9], {-0}
    1458:	030e6e19 	movweq	r6, #60953	; 0xee19
    145c:	3b0b3a0e 	blcc	2cfc9c <__bss_end__+0x2c52a4>
    1460:	0000000b 	andeq	r0, r0, fp
    1464:	25011101 	strcs	r1, [r1, #-257]	; 0x101
    1468:	030b130e 	movweq	r1, #45838	; 0xb30e
    146c:	110e1b0e 	tstne	lr, lr, lsl #22
    1470:	10061201 	andne	r1, r6, r1, lsl #4
    1474:	02000017 	andeq	r0, r0, #23
    1478:	0b0b0024 	bleq	2c1510 <__bss_end__+0x2b6b18>
    147c:	08030b3e 	stmdaeq	r3, {r1, r2, r3, r4, r5, r8, r9, fp}
    1480:	24030000 	strcs	r0, [r3], #-0
    1484:	3e0b0b00 	vmlacc.f64	d0, d11, d0
    1488:	000e030b 	andeq	r0, lr, fp, lsl #6
    148c:	00160400 	andseq	r0, r6, r0, lsl #8
    1490:	0b3a0e03 	bleq	e84ca4 <__bss_end__+0xe7a2ac>
    1494:	13490b3b 	movtne	r0, #39739	; 0x9b3b
    1498:	16050000 	strne	r0, [r5], -r0
    149c:	3a0e0300 	bcc	3820a4 <__bss_end__+0x3776ac>
    14a0:	49053b0b 	stmdbmi	r5, {r0, r1, r3, r8, r9, fp, ip, sp}
    14a4:	06000013 			; <UNDEFINED> instruction: 0x06000013
    14a8:	0b0b0117 	bleq	2c190c <__bss_end__+0x2b6f14>
    14ac:	0b3b0b3a 	bleq	ec419c <__bss_end__+0xeb97a4>
    14b0:	00001301 	andeq	r1, r0, r1, lsl #6
    14b4:	03000d07 	movweq	r0, #3335	; 0xd07
    14b8:	3b0b3a0e 	blcc	2cfcf8 <__bss_end__+0x2c5300>
    14bc:	0013490b 	andseq	r4, r3, fp, lsl #18
    14c0:	01010800 	tsteq	r1, r0, lsl #16
    14c4:	13011349 	movwne	r1, #4937	; 0x1349
    14c8:	21090000 	mrscs	r0, (UNDEF: 9)
    14cc:	2f134900 	svccs	0x00134900
    14d0:	0a00000b 	beq	1504 <_start-0x6afc>
    14d4:	0b0b0113 	bleq	2c1928 <__bss_end__+0x2b6f30>
    14d8:	0b3b0b3a 	bleq	ec41c8 <__bss_end__+0xeb97d0>
    14dc:	00001301 	andeq	r1, r0, r1, lsl #6
    14e0:	03000d0b 	movweq	r0, #3339	; 0xd0b
    14e4:	3b0b3a0e 	blcc	2cfd24 <__bss_end__+0x2c532c>
    14e8:	3813490b 	ldmdacc	r3, {r0, r1, r3, r8, fp, lr}
    14ec:	0c00000b 	stceq	0, cr0, [r0], {11}
    14f0:	0b0b000f 	bleq	2c1534 <__bss_end__+0x2b6b3c>
    14f4:	0f0d0000 	svceq	0x000d0000
    14f8:	490b0b00 	stmdbmi	fp, {r8, r9, fp}
    14fc:	0e000013 	mcreq	0, 0, r0, cr0, cr3, {0}
    1500:	13490026 	movtne	r0, #36902	; 0x9026
    1504:	130f0000 	movwne	r0, #61440	; 0xf000
    1508:	0b0e0301 	bleq	382114 <__bss_end__+0x37771c>
    150c:	3b0b3a0b 	blcc	2cfd40 <__bss_end__+0x2c5348>
    1510:	0013010b 	andseq	r0, r3, fp, lsl #2
    1514:	000d1000 	andeq	r1, sp, r0
    1518:	0b3a0803 	bleq	e8352c <__bss_end__+0xe78b34>
    151c:	13490b3b 	movtne	r0, #39739	; 0x9b3b
    1520:	00000b38 	andeq	r0, r0, r8, lsr fp
    1524:	03011311 	movweq	r1, #4881	; 0x1311
    1528:	3a050b0e 	bcc	144168 <__bss_end__+0x139770>
    152c:	010b3b0b 	tsteq	fp, fp, lsl #22
    1530:	12000013 	andne	r0, r0, #19
    1534:	0e03000d 	cdpeq	0, 0, cr0, cr3, cr13, {0}
    1538:	0b3b0b3a 	bleq	ec4228 <__bss_end__+0xeb9830>
    153c:	05381349 	ldreq	r1, [r8, #-841]!	; 0x349
    1540:	15130000 	ldrne	r0, [r3, #-0]
    1544:	00192700 	andseq	r2, r9, r0, lsl #14
    1548:	01151400 	tsteq	r5, r0, lsl #8
    154c:	13491927 	movtne	r1, #39207	; 0x9927
    1550:	00001301 	andeq	r1, r0, r1, lsl #6
    1554:	49000515 	stmdbmi	r0, {r0, r2, r4, r8, sl}
    1558:	16000013 			; <UNDEFINED> instruction: 0x16000013
    155c:	0e030113 	mcreq	1, 0, r0, cr3, cr3, {0}
    1560:	0b3a050b 	bleq	e82994 <__bss_end__+0xe77f9c>
    1564:	1301053b 	movwne	r0, #5435	; 0x153b
    1568:	0d170000 	ldceq	0, cr0, [r7, #-0]
    156c:	3a0e0300 	bcc	382174 <__bss_end__+0x37777c>
    1570:	49053b0b 	stmdbmi	r5, {r0, r1, r3, r8, r9, fp, ip, sp}
    1574:	000b3813 	andeq	r3, fp, r3, lsl r8
    1578:	000d1800 	andeq	r1, sp, r0, lsl #16
    157c:	0b3a0e03 	bleq	e84d90 <__bss_end__+0xe7a398>
    1580:	1349053b 	movtne	r0, #38203	; 0x953b
    1584:	00000538 	andeq	r0, r0, r8, lsr r5
    1588:	03011319 	movweq	r1, #4889	; 0x1319
    158c:	3a0b0b0e 	bcc	2c41cc <__bss_end__+0x2b97d4>
    1590:	01053b0b 	tsteq	r5, fp, lsl #22
    1594:	1a000013 	bne	15e8 <_start-0x6a18>
    1598:	0b0b0113 	bleq	2c19ec <__bss_end__+0x2b6ff4>
    159c:	053b0b3a 	ldreq	r0, [fp, #-2874]!	; 0xb3a
    15a0:	00001301 	andeq	r1, r0, r1, lsl #6
    15a4:	0b01171b 	bleq	47218 <__bss_end__+0x3c820>
    15a8:	3b0b3a0b 	blcc	2cfddc <__bss_end__+0x2c53e4>
    15ac:	00130105 	andseq	r0, r3, r5, lsl #2
    15b0:	000d1c00 	andeq	r1, sp, r0, lsl #24
    15b4:	0b3a0e03 	bleq	e84dc8 <__bss_end__+0xe7a3d0>
    15b8:	1349053b 	movtne	r0, #38203	; 0x953b
    15bc:	151d0000 	ldrne	r0, [sp, #-0]
    15c0:	01192701 	tsteq	r9, r1, lsl #14
    15c4:	1e000013 	mcrne	0, 0, r0, cr0, cr3, {0}
    15c8:	0e030034 	mcreq	0, 0, r0, cr3, cr4, {1}
    15cc:	053b0b3a 	ldreq	r0, [fp, #-2874]!	; 0xb3a
    15d0:	193f1349 	ldmdbne	pc!, {r0, r3, r6, r8, r9, ip}	; <UNPREDICTABLE>
    15d4:	0000193c 	andeq	r1, r0, ip, lsr r9
    15d8:	0300341f 	movweq	r3, #1055	; 0x41f
    15dc:	3b0b3a0e 	blcc	2cfe1c <__bss_end__+0x2c5424>
    15e0:	3f13490b 	svccc	0x0013490b
    15e4:	00193c19 	andseq	r3, r9, r9, lsl ip
    15e8:	00342000 	eorseq	r2, r4, r0
    15ec:	0b3a0e03 	bleq	e84e00 <__bss_end__+0xe7a408>
    15f0:	13490b3b 	movtne	r0, #39739	; 0x9b3b
    15f4:	00001802 	andeq	r1, r0, r2, lsl #16
    15f8:	3f012e21 	svccc	0x00012e21
    15fc:	3a0e0319 	bcc	382268 <__bss_end__+0x377870>
    1600:	270b3b0b 	strcs	r3, [fp, -fp, lsl #22]
    1604:	12011119 	andne	r1, r1, #1073741830	; 0x40000006
    1608:	97184006 	ldrls	r4, [r8, -r6]
    160c:	13011942 	movwne	r1, #6466	; 0x1942
    1610:	05220000 	streq	r0, [r2, #-0]!
    1614:	3a080300 	bcc	20221c <__bss_end__+0x1f7824>
    1618:	490b3b0b 	stmdbmi	fp, {r0, r1, r3, r8, r9, fp, ip, sp}
    161c:	00180213 	andseq	r0, r8, r3, lsl r2
    1620:	002e2300 	eoreq	r2, lr, r0, lsl #6
    1624:	0e03193f 	mcreq	9, 0, r1, cr3, cr15, {1}
    1628:	0b3b0b3a 	bleq	ec4318 <__bss_end__+0xeb9920>
    162c:	01111927 	tsteq	r1, r7, lsr #18
    1630:	18400612 	stmdane	r0, {r1, r4, r9, sl}^
    1634:	00194297 	mulseq	r9, r7, r2
    1638:	012e2400 	teqeq	lr, r0, lsl #8
    163c:	0e03193f 	mcreq	9, 0, r1, cr3, cr15, {1}
    1640:	0b3b0b3a 	bleq	ec4330 <__bss_end__+0xeb9938>
    1644:	13491927 	movtne	r1, #39207	; 0x9927
    1648:	06120111 			; <UNDEFINED> instruction: 0x06120111
    164c:	42971840 	addsmi	r1, r7, #64, 16	; 0x400000
    1650:	00130119 	andseq	r0, r3, r9, lsl r1
    1654:	00052500 	andeq	r2, r5, r0, lsl #10
    1658:	0b3a0e03 	bleq	e84e6c <__bss_end__+0xe7a474>
    165c:	13490b3b 	movtne	r0, #39739	; 0x9b3b
    1660:	00001702 	andeq	r1, r0, r2, lsl #14
    1664:	03003426 	movweq	r3, #1062	; 0x426
    1668:	3413490e 	ldrcc	r4, [r3], #-2318	; 0x90e
    166c:	00180219 	andseq	r0, r8, r9, lsl r2
    1670:	00342700 	eorseq	r2, r4, r0, lsl #14
    1674:	0b3a0803 	bleq	e83688 <__bss_end__+0xe78c90>
    1678:	13490b3b 	movtne	r0, #39739	; 0x9b3b
    167c:	00001702 	andeq	r1, r0, r2, lsl #14
    1680:	01828928 	orreq	r8, r2, r8, lsr #18
    1684:	31011101 	tstcc	r1, r1, lsl #2
    1688:	00130113 	andseq	r0, r3, r3, lsl r1
    168c:	828a2900 	addhi	r2, sl, #0, 18
    1690:	18020001 	stmdane	r2, {r0}
    1694:	00184291 	mulseq	r8, r1, r2
    1698:	82892a00 	addhi	r2, r9, #0, 20
    169c:	01110001 	tsteq	r1, r1
    16a0:	00001331 	andeq	r1, r0, r1, lsr r3
    16a4:	0300052b 	movweq	r0, #1323	; 0x52b
    16a8:	3b0b3a08 	blcc	2cfed0 <__bss_end__+0x2c54d8>
    16ac:	0213490b 	andseq	r4, r3, #180224	; 0x2c000
    16b0:	2c000017 	stccs	0, cr0, [r0], {23}
    16b4:	0e030034 	mcreq	0, 0, r0, cr3, cr4, {1}
    16b8:	0b3b0b3a 	bleq	ec43a8 <__bss_end__+0xeb99b0>
    16bc:	17021349 	strne	r1, [r2, -r9, asr #6]
    16c0:	2e2d0000 	cdpcs	0, 2, cr0, cr13, cr0, {0}
    16c4:	03193f00 	tsteq	r9, #0, 30
    16c8:	3b0b3a0e 	blcc	2cff08 <__bss_end__+0x2c5510>
    16cc:	4919270b 	ldmdbmi	r9, {r0, r1, r3, r8, r9, sl, sp}
    16d0:	12011113 	andne	r1, r1, #-1073741820	; 0xc0000004
    16d4:	97184006 	ldrls	r4, [r8, -r6]
    16d8:	00001942 	andeq	r1, r0, r2, asr #18
    16dc:	3f002e2e 	svccc	0x00002e2e
    16e0:	6e193c19 	mrcvs	12, 0, r3, cr9, cr9, {0}
    16e4:	3a0e030e 	bcc	382324 <__bss_end__+0x37792c>
    16e8:	000b3b0b 	andeq	r3, fp, fp, lsl #22
	...

Disassembly of section .debug_loc:

00000000 <.debug_loc>:
       0:	00000060 	andeq	r0, r0, r0, rrx
       4:	00000063 	andeq	r0, r0, r3, rrx
       8:	63500001 	cmpvs	r0, #1
       c:	84000000 	strhi	r0, [r0], #-0
      10:	01000000 	mrseq	r0, (UNDEF: 0)
      14:	00005400 	andeq	r5, r0, r0, lsl #8
	...
      20:	00280000 	eoreq	r0, r8, r0
      24:	00010000 	andeq	r0, r1, r0
      28:	00002850 	andeq	r2, r0, r0, asr r8
      2c:	0000bc00 	andeq	fp, r0, r0, lsl #24
      30:	f3000400 	vshl.u8	d0, d0, d0
      34:	bc9f5001 	ldclt	0, cr5, [pc], {1}
      38:	cc000000 	stcgt	0, cr0, [r0], {-0}
      3c:	01000000 	mrseq	r0, (UNDEF: 0)
      40:	00cc5000 	sbceq	r5, ip, r0
      44:	00f80000 	rscseq	r0, r8, r0
      48:	00040000 	andeq	r0, r4, r0
      4c:	9f5001f3 	svcls	0x005001f3
	...
      5c:	0000002b 	andeq	r0, r0, fp, lsr #32
      60:	2b510001 	blcs	144006c <__bss_end__+0x1435674>
      64:	bc000000 	stclt	0, cr0, [r0], {-0}
      68:	04000000 	streq	r0, [r0], #-0
      6c:	5101f300 	mrspl	pc, SP_irq	; <UNPREDICTABLE>
      70:	0000bc9f 	muleq	r0, pc, ip	; <UNPREDICTABLE>
      74:	0000d000 	andeq	sp, r0, r0
      78:	51000100 	mrspl	r0, (UNDEF: 16)
      7c:	000000d0 	ldrdeq	r0, [r0], -r0	; <UNPREDICTABLE>
      80:	000000f8 	strdeq	r0, [r0], -r8
      84:	01f30004 	mvnseq	r0, r4
      88:	00009f51 	andeq	r9, r0, r1, asr pc
	...
      94:	002b0000 	eoreq	r0, fp, r0
      98:	00010000 	andeq	r0, r1, r0
      9c:	00002b52 	andeq	r2, r0, r2, asr fp
      a0:	0000bc00 	andeq	fp, r0, r0, lsl #24
      a4:	56000100 	strpl	r0, [r0], -r0, lsl #2
      a8:	000000bc 	strheq	r0, [r0], -ip
      ac:	000000d0 	ldrdeq	r0, [r0], -r0	; <UNPREDICTABLE>
      b0:	d0520001 	subsle	r0, r2, r1
      b4:	f8000000 			; <UNDEFINED> instruction: 0xf8000000
      b8:	01000000 	mrseq	r0, (UNDEF: 0)
      bc:	00005600 	andeq	r5, r0, r0, lsl #12
	...
      c8:	002b0000 	eoreq	r0, fp, r0
      cc:	00010000 	andeq	r0, r1, r0
      d0:	00002b53 	andeq	r2, r0, r3, asr fp
      d4:	0000bc00 	andeq	fp, r0, r0, lsl #24
      d8:	55000100 	strpl	r0, [r0, #-256]	; 0x100
      dc:	000000bc 	strheq	r0, [r0], -ip
      e0:	000000d0 	ldrdeq	r0, [r0], -r0	; <UNPREDICTABLE>
      e4:	d0530001 	subsle	r0, r3, r1
      e8:	f8000000 			; <UNDEFINED> instruction: 0xf8000000
      ec:	01000000 	mrseq	r0, (UNDEF: 0)
      f0:	00005500 	andeq	r5, r0, r0, lsl #10
      f4:	00000000 	andeq	r0, r0, r0
      f8:	000c0000 	andeq	r0, ip, r0
      fc:	00140000 	andseq	r0, r4, r0
     100:	00020000 	andeq	r0, r2, r0
     104:	00149f30 	andseq	r9, r4, r0, lsr pc
     108:	00f80000 	rscseq	r0, r8, r0
     10c:	00010000 	andeq	r0, r1, r0
     110:	00000054 	andeq	r0, r0, r4, asr r0
     114:	00000000 	andeq	r0, r0, r0
     118:	00004400 	andeq	r4, r0, r0, lsl #8
     11c:	0000bc00 	andeq	fp, r0, r0, lsl #24
     120:	55000100 	strpl	r0, [r0, #-256]	; 0x100
     124:	000000d0 	ldrdeq	r0, [r0], -r0	; <UNPREDICTABLE>
     128:	000000f8 	strdeq	r0, [r0], -r8
     12c:	00550001 	subseq	r0, r5, r1
     130:	00000000 	andeq	r0, r0, r0
     134:	58000000 	stmdapl	r0, {}	; <UNPREDICTABLE>
     138:	80000000 	andhi	r0, r0, r0
     13c:	03000000 	movweq	r0, #0
     140:	9f107500 	svcls	0x00107500
     144:	00000080 	andeq	r0, r0, r0, lsl #1
     148:	000000bc 	strheq	r0, [r0], -ip
     14c:	1c750003 	ldclne	0, cr0, [r5], #-12
     150:	0000d09f 	muleq	r0, pc, r0	; <UNPREDICTABLE>
     154:	0000f800 	andeq	pc, r0, r0, lsl #16
     158:	75000300 	strvc	r0, [r0, #-768]	; 0x300
     15c:	00009f1c 	andeq	r9, r0, ip, lsl pc
     160:	00000000 	andeq	r0, r0, r0
     164:	00f80000 	rscseq	r0, r8, r0
     168:	01070000 	mrseq	r0, (UNDEF: 7)
     16c:	00010000 	andeq	r0, r1, r0
     170:	00010750 	andeq	r0, r1, r0, asr r7
     174:	00010c00 	andeq	r0, r1, r0, lsl #24
     178:	f3000400 	vshl.u8	d0, d0, d0
     17c:	009f5001 	addseq	r5, pc, r1
     180:	00000000 	andeq	r0, r0, r0
     184:	f8000000 			; <UNDEFINED> instruction: 0xf8000000
     188:	04000000 	streq	r0, [r0], #-0
     18c:	01000001 	tsteq	r0, r1
     190:	01045100 	mrseq	r5, (UNDEF: 20)
     194:	01070000 	mrseq	r0, (UNDEF: 7)
     198:	00010000 	andeq	r0, r1, r0
     19c:	00010752 	andeq	r0, r1, r2, asr r7
     1a0:	00010c00 	andeq	r0, r1, r0, lsl #24
     1a4:	f3000400 	vshl.u8	d0, d0, d0
     1a8:	009f5101 	addseq	r5, pc, r1, lsl #2
     1ac:	00000000 	andeq	r0, r0, r0
     1b0:	0c000000 	stceq	0, cr0, [r0], {-0}
     1b4:	3f000001 	svccc	0x00000001
     1b8:	01000001 	tsteq	r0, r1
     1bc:	013f5000 	teqeq	pc, r0
     1c0:	01540000 	cmpeq	r4, r0
     1c4:	00010000 	andeq	r0, r1, r0
     1c8:	00000054 	andeq	r0, r0, r4, asr r0
     1cc:	00000000 	andeq	r0, r0, r0
     1d0:	00015400 	andeq	r5, r1, r0, lsl #8
     1d4:	00015f00 	andeq	r5, r1, r0, lsl #30
     1d8:	50000100 	andpl	r0, r0, r0, lsl #2
     1dc:	0000015f 	andeq	r0, r0, pc, asr r1
     1e0:	00000194 	muleq	r0, r4, r1
     1e4:	00540001 	subseq	r0, r4, r1
     1e8:	00000000 	andeq	r0, r0, r0
     1ec:	94000000 	strls	r0, [r0], #-0
     1f0:	9f000001 	svcls	0x00000001
     1f4:	01000001 	tsteq	r0, r1
     1f8:	019f5000 	orrseq	r5, pc, r0
     1fc:	02080000 	andeq	r0, r8, #0
     200:	00010000 	andeq	r0, r1, r0
     204:	00000054 	andeq	r0, r0, r4, asr r0
     208:	00000000 	andeq	r0, r0, r0
     20c:	0001c400 	andeq	ip, r1, r0, lsl #8
     210:	0001f000 	andeq	pc, r1, r0
     214:	54000100 	strpl	r0, [r0], #-256	; 0x100
     218:	00000200 	andeq	r0, r0, r0, lsl #4
     21c:	00000208 	andeq	r0, r0, r8, lsl #4
     220:	00540001 	subseq	r0, r4, r1
     224:	00000000 	andeq	r0, r0, r0
     228:	cc000000 	stcgt	0, cr0, [r0], {-0}
     22c:	f0000001 			; <UNDEFINED> instruction: 0xf0000001
     230:	01000001 	tsteq	r0, r1
     234:	02005400 	andeq	r5, r0, #0, 8
     238:	02080000 	andeq	r0, r8, #0
     23c:	00010000 	andeq	r0, r1, r0
     240:	00000054 	andeq	r0, r0, r4, asr r0
     244:	00000000 	andeq	r0, r0, r0
     248:	00020800 	andeq	r0, r2, r0, lsl #16
     24c:	00021f00 	andeq	r1, r2, r0, lsl #30
     250:	50000100 	andpl	r0, r0, r0, lsl #2
     254:	0000021f 	andeq	r0, r0, pc, lsl r2
     258:	00000238 	andeq	r0, r0, r8, lsr r2
     25c:	38540001 	ldmdacc	r4, {r0}^
     260:	3c000002 	stccc	0, cr0, [r0], {2}
     264:	01000002 	tsteq	r0, r2
     268:	023c5000 	eorseq	r5, ip, #0
     26c:	02880000 	addeq	r0, r8, #0
     270:	00010000 	andeq	r0, r1, r0
     274:	00000054 	andeq	r0, r0, r4, asr r0
     278:	00000000 	andeq	r0, r0, r0
     27c:	00020800 	andeq	r0, r2, r0, lsl #16
     280:	00021f00 	andeq	r1, r2, r0, lsl #30
     284:	51000100 	mrspl	r0, (UNDEF: 16)
     288:	0000021f 	andeq	r0, r0, pc, lsl r2
     28c:	00000238 	andeq	r0, r0, r8, lsr r2
     290:	38550001 	ldmdacc	r5, {r0}^
     294:	40000002 	andmi	r0, r0, r2
     298:	01000002 	tsteq	r0, r2
     29c:	02405100 	subeq	r5, r0, #0, 2
     2a0:	02580000 	subseq	r0, r8, #0
     2a4:	00010000 	andeq	r0, r1, r0
     2a8:	00025855 	andeq	r5, r2, r5, asr r8
     2ac:	00028800 	andeq	r8, r2, r0, lsl #16
     2b0:	f3000400 	vshl.u8	d0, d0, d0
     2b4:	009f5101 	addseq	r5, pc, r1, lsl #2
     2b8:	00000000 	andeq	r0, r0, r0
     2bc:	88000000 	stmdahi	r0, {}	; <UNPREDICTABLE>
     2c0:	a0000002 	andge	r0, r0, r2
     2c4:	01000002 	tsteq	r0, r2
     2c8:	02a05000 	adceq	r5, r0, #0
     2cc:	03780000 	cmneq	r8, #0
     2d0:	00010000 	andeq	r0, r1, r0
     2d4:	00000054 	andeq	r0, r0, r4, asr r0
     2d8:	00000000 	andeq	r0, r0, r0
     2dc:	00028800 	andeq	r8, r2, r0, lsl #16
     2e0:	0002af00 	andeq	sl, r2, r0, lsl #30
     2e4:	51000100 	mrspl	r0, (UNDEF: 16)
     2e8:	000002af 	andeq	r0, r0, pc, lsr #5
     2ec:	000002c8 	andeq	r0, r0, r8, asr #5
     2f0:	c8580001 	ldmdagt	r8, {r0}^
     2f4:	cf000002 	svcgt	0x00000002
     2f8:	01000002 	tsteq	r0, r2
     2fc:	02cf5100 	sbceq	r5, pc, #0, 2
     300:	03780000 	cmneq	r8, #0
     304:	00010000 	andeq	r0, r1, r0
     308:	00000058 	andeq	r0, r0, r8, asr r0
     30c:	00000000 	andeq	r0, r0, r0
     310:	00028800 	andeq	r8, r2, r0, lsl #16
     314:	0002af00 	andeq	sl, r2, r0, lsl #30
     318:	52000100 	andpl	r0, r0, #0, 2
     31c:	000002af 	andeq	r0, r0, pc, lsr #5
     320:	000002c8 	andeq	r0, r0, r8, asr #5
     324:	c8570001 	ldmdagt	r7, {r0}^
     328:	cf000002 	svcgt	0x00000002
     32c:	01000002 	tsteq	r0, r2
     330:	02cf5200 	sbceq	r5, pc, #0, 4
     334:	03780000 	cmneq	r8, #0
     338:	00010000 	andeq	r0, r1, r0
     33c:	00000057 	andeq	r0, r0, r7, asr r0
     340:	00000000 	andeq	r0, r0, r0
     344:	00028800 	andeq	r8, r2, r0, lsl #16
     348:	0002af00 	andeq	sl, r2, r0, lsl #30
     34c:	53000100 	movwpl	r0, #256	; 0x100
     350:	000002af 	andeq	r0, r0, pc, lsr #5
     354:	000002c8 	andeq	r0, r0, r8, asr #5
     358:	c8560001 	ldmdagt	r6, {r0}^
     35c:	cf000002 	svcgt	0x00000002
     360:	01000002 	tsteq	r0, r2
     364:	02cf5300 	sbceq	r5, pc, #0, 6
     368:	03780000 	cmneq	r8, #0
     36c:	00010000 	andeq	r0, r1, r0
     370:	00000056 	andeq	r0, r0, r6, asr r0
     374:	00000000 	andeq	r0, r0, r0
     378:	00029c00 	andeq	r9, r2, r0, lsl #24
     37c:	0002e000 	andeq	lr, r2, r0
     380:	30000200 	andcc	r0, r0, r0, lsl #4
     384:	0000009f 	muleq	r0, pc, r0	; <UNPREDICTABLE>
     388:	00000000 	andeq	r0, r0, r0
     38c:	00037800 	andeq	r7, r3, r0, lsl #16
     390:	0003a300 	andeq	sl, r3, r0, lsl #6
     394:	50000100 	andpl	r0, r0, r0, lsl #2
     398:	000003a3 	andeq	r0, r0, r3, lsr #7
     39c:	000003bc 			; <UNDEFINED> instruction: 0x000003bc
     3a0:	bc550001 	mrrclt	0, 0, r0, r5, cr1
     3a4:	c0000003 	andgt	r0, r0, r3
     3a8:	01000003 	tsteq	r0, r3
     3ac:	03c05000 	biceq	r5, r0, #0
     3b0:	056c0000 	strbeq	r0, [ip, #-0]!
     3b4:	00010000 	andeq	r0, r1, r0
     3b8:	00056c55 	andeq	r6, r5, r5, asr ip
     3bc:	0005a400 	andeq	sl, r5, r0, lsl #8
     3c0:	f3000400 	vshl.u8	d0, d0, d0
     3c4:	009f5001 	addseq	r5, pc, r1
     3c8:	00000000 	andeq	r0, r0, r0
     3cc:	78000000 	stmdavc	r0, {}	; <UNPREDICTABLE>
     3d0:	a3000003 	movwge	r0, #3
     3d4:	01000003 	tsteq	r0, r3
     3d8:	03a35100 			; <UNDEFINED> instruction: 0x03a35100
     3dc:	03bc0000 			; <UNDEFINED> instruction: 0x03bc0000
     3e0:	00010000 	andeq	r0, r1, r0
     3e4:	0003bc59 	andeq	fp, r3, r9, asr ip
     3e8:	0003c300 	andeq	ip, r3, r0, lsl #6
     3ec:	51000100 	mrspl	r0, (UNDEF: 16)
     3f0:	000003c3 	andeq	r0, r0, r3, asr #7
     3f4:	0000056c 	andeq	r0, r0, ip, ror #10
     3f8:	6c590001 	mrrcvs	0, 0, r0, r9, cr1
     3fc:	a4000005 	strge	r0, [r0], #-5
     400:	04000005 	streq	r0, [r0], #-5
     404:	5101f300 	mrspl	pc, SP_irq	; <UNPREDICTABLE>
     408:	0000009f 	muleq	r0, pc, r0	; <UNPREDICTABLE>
     40c:	00000000 	andeq	r0, r0, r0
     410:	00037800 	andeq	r7, r3, r0, lsl #16
     414:	0003a300 	andeq	sl, r3, r0, lsl #6
     418:	52000100 	andpl	r0, r0, #0, 2
     41c:	000003a3 	andeq	r0, r0, r3, lsr #7
     420:	000003bc 			; <UNDEFINED> instruction: 0x000003bc
     424:	bc580001 	mrrclt	0, 0, r0, r8, cr1
     428:	c3000003 	movwgt	r0, #3
     42c:	01000003 	tsteq	r0, r3
     430:	03c35200 	biceq	r5, r3, #0, 4
     434:	056c0000 	strbeq	r0, [ip, #-0]!
     438:	00010000 	andeq	r0, r1, r0
     43c:	00056c58 	andeq	r6, r5, r8, asr ip
     440:	0005a400 	andeq	sl, r5, r0, lsl #8
     444:	f3000400 	vshl.u8	d0, d0, d0
     448:	009f5201 	addseq	r5, pc, r1, lsl #4
     44c:	00000000 	andeq	r0, r0, r0
     450:	78000000 	stmdavc	r0, {}	; <UNPREDICTABLE>
     454:	94000003 	strls	r0, [r0], #-3
     458:	01000003 	tsteq	r0, r3
     45c:	03945300 	orrseq	r5, r4, #0, 6
     460:	04d80000 	ldrbeq	r0, [r8], #0
     464:	00010000 	andeq	r0, r1, r0
     468:	0004d857 	andeq	sp, r4, r7, asr r8
     46c:	0005a400 	andeq	sl, r5, r0, lsl #8
     470:	f3000400 	vshl.u8	d0, d0, d0
     474:	009f5301 	addseq	r5, pc, r1, lsl #6
     478:	00000000 	andeq	r0, r0, r0
     47c:	90000000 	andls	r0, r0, r0
     480:	84000003 	strhi	r0, [r0], #-3
     484:	02000004 	andeq	r0, r0, #4
     488:	849f3000 	ldrhi	r3, [pc], #0	; 490 <_start-0x7b70>
     48c:	6c000004 	stcvs	0, cr0, [r0], {4}
     490:	01000005 	tsteq	r0, r5
     494:	056c5400 	strbeq	r5, [ip, #-1024]!	; 0x400
     498:	05a40000 	streq	r0, [r4, #0]!
     49c:	00040000 	andeq	r0, r4, r0
     4a0:	9f7ec870 	svcls	0x007ec870
	...
     4ac:	00000390 	muleq	r0, r0, r3
     4b0:	000004d8 	ldrdeq	r0, [r0], -r8
     4b4:	9f300002 	svcls	0x00300002
	...
     4c0:	000003d8 	ldrdeq	r0, [r0], -r8
     4c4:	000003eb 	andeq	r0, r0, fp, ror #7
     4c8:	eb520001 	bl	14804d4 <__bss_end__+0x1475adc>
     4cc:	18000003 	stmdane	r0, {r0, r1}
     4d0:	04000004 	streq	r0, [r0], #-4
     4d4:	7dc87600 	stclvc	6, cr7, [r8]
     4d8:	0004189f 	muleq	r4, pc, r8	; <UNPREDICTABLE>
     4dc:	00043700 	andeq	r3, r4, r0, lsl #14
     4e0:	52000100 	andpl	r0, r0, #0, 2
     4e4:	00000437 	andeq	r0, r0, r7, lsr r4
     4e8:	00000484 	andeq	r0, r0, r4, lsl #9
     4ec:	c8760004 	ldmdagt	r6!, {r2}^
     4f0:	04849f7d 	streq	r9, [r4], #3965	; 0xf7d
     4f4:	04a40000 	strteq	r0, [r4], #0
     4f8:	00010000 	andeq	r0, r1, r0
     4fc:	0004a452 	andeq	sl, r4, r2, asr r4
     500:	00056c00 	andeq	r6, r5, r0, lsl #24
     504:	76000400 	strvc	r0, [r0], -r0, lsl #8
     508:	6c9f7dc8 	ldcvs	13, cr7, [pc], {200}	; 0xc8
     50c:	a4000005 	strge	r0, [r0], #-5
     510:	09000005 	stmdbeq	r0, {r0, r2}
     514:	5001f300 	andpl	pc, r1, r0, lsl #6
     518:	f8090723 			; <UNDEFINED> instruction: 0xf8090723
     51c:	00009f1a 	andeq	r9, r0, sl, lsl pc
     520:	00000000 	andeq	r0, r0, r0
     524:	03dc0000 	bicseq	r0, ip, #0
     528:	056c0000 	strbeq	r0, [ip, #-0]!
     52c:	00010000 	andeq	r0, r1, r0
     530:	00056c56 	andeq	r6, r5, r6, asr ip
     534:	0005a400 	andeq	sl, r5, r0, lsl #8
     538:	f3000c00 			; <UNDEFINED> instruction: 0xf3000c00
     53c:	07235001 	streq	r5, [r3, -r1]!
     540:	231af809 	tstcs	sl, #589824	; 0x90000
     544:	009f02b8 			; <UNDEFINED> instruction: 0x009f02b8
     548:	00000000 	andeq	r0, r0, r0
     54c:	d8000000 	stmdale	r0, {}	; <UNPREDICTABLE>
     550:	6c000004 	stcvs	0, cr0, [r0], {4}
     554:	01000005 	tsteq	r0, r5
     558:	056c5400 	strbeq	r5, [ip, #-1024]!	; 0x400
     55c:	05a40000 	streq	r0, [r4, #0]!
     560:	00040000 	andeq	r0, r4, r0
     564:	9f7ec870 	svcls	0x007ec870
	...
     570:	000004dc 	ldrdeq	r0, [r0], -ip
     574:	0000056c 	andeq	r0, r0, ip, ror #10
     578:	6c540001 	mrrcvs	0, 0, r0, r4, cr1
     57c:	a4000005 	strge	r0, [r0], #-5
     580:	04000005 	streq	r0, [r0], #-5
     584:	7ec87000 	cdpvc	0, 12, cr7, cr8, cr0, {0}
     588:	0000009f 	muleq	r0, pc, r0	; <UNPREDICTABLE>
     58c:	00000000 	andeq	r0, r0, r0
     590:	0005a400 	andeq	sl, r5, r0, lsl #8
     594:	0005bc00 	andeq	fp, r5, r0, lsl #24
     598:	50000100 	andpl	r0, r0, r0, lsl #2
     59c:	000005bc 			; <UNDEFINED> instruction: 0x000005bc
     5a0:	000005c7 	andeq	r0, r0, r7, asr #11
     5a4:	c7530001 	ldrbgt	r0, [r3, -r1]
     5a8:	cc000005 	stcgt	0, cr0, [r0], {5}
     5ac:	04000005 	streq	r0, [r0], #-5
     5b0:	5001f300 	andpl	pc, r1, r0, lsl #6
     5b4:	0005cc9f 	muleq	r5, pc, ip	; <UNPREDICTABLE>
     5b8:	0005d000 	andeq	sp, r5, r0
     5bc:	50000100 	andpl	r0, r0, r0, lsl #2
     5c0:	000005d0 	ldrdeq	r0, [r0], -r0	; <UNPREDICTABLE>
     5c4:	000005d4 	ldrdeq	r0, [r0], -r4
     5c8:	00530001 	subseq	r0, r3, r1
     5cc:	00000000 	andeq	r0, r0, r0
     5d0:	e8000000 	stmda	r0, {}	; <UNPREDICTABLE>
     5d4:	14000005 	strne	r0, [r0], #-5
     5d8:	01000006 	tsteq	r0, r6
     5dc:	00005600 	andeq	r5, r0, r0, lsl #12
     5e0:	00000000 	andeq	r0, r0, r0
     5e4:	05f00000 	ldrbeq	r0, [r0, #0]!
     5e8:	06100000 	ldreq	r0, [r0], -r0
     5ec:	00010000 	andeq	r0, r1, r0
     5f0:	00000055 	andeq	r0, r0, r5, asr r0
     5f4:	00000000 	andeq	r0, r0, r0
     5f8:	00060800 	andeq	r0, r6, r0, lsl #16
     5fc:	00062800 	andeq	r2, r6, r0, lsl #16
     600:	30000200 	andcc	r0, r0, r0, lsl #4
     604:	0006289f 	muleq	r6, pc, r8	; <UNPREDICTABLE>
     608:	00070c00 	andeq	r0, r7, r0, lsl #24
     60c:	56000100 	strpl	r0, [r0], -r0, lsl #2
	...
     618:	00000608 	andeq	r0, r0, r8, lsl #12
     61c:	00000628 	andeq	r0, r0, r8, lsr #12
     620:	9f300002 	svcls	0x00300002
     624:	00000628 	andeq	r0, r0, r8, lsr #12
     628:	0000070c 	andeq	r0, r0, ip, lsl #14
     62c:	00550001 	subseq	r0, r5, r1
     630:	00000000 	andeq	r0, r0, r0
     634:	28000000 	stmdacs	r0, {}	; <UNPREDICTABLE>
     638:	a0000006 	andge	r0, r0, r6
     63c:	01000006 	tsteq	r0, r6
     640:	00005400 	andeq	r5, r0, r0, lsl #8
     644:	00000000 	andeq	r0, r0, r0
     648:	072c0000 	streq	r0, [ip, -r0]!
     64c:	07580000 	ldrbeq	r0, [r8, -r0]
     650:	00010000 	andeq	r0, r1, r0
     654:	00075850 	andeq	r5, r7, r0, asr r8
     658:	00076400 	andeq	r6, r7, r0, lsl #8
     65c:	f3000400 	vshl.u8	d0, d0, d0
     660:	649f5001 	ldrvs	r5, [pc], #1	; 668 <_start-0x7998>
     664:	68000007 	stmdavs	r0, {r0, r1, r2}
     668:	01000007 	tsteq	r0, r7
     66c:	07685000 	strbeq	r5, [r8, -r0]!
     670:	07700000 	ldrbeq	r0, [r0, -r0]!
     674:	00040000 	andeq	r0, r4, r0
     678:	9f5001f3 	svcls	0x005001f3
	...
     684:	00000730 	andeq	r0, r0, r0, lsr r7
     688:	0000073c 	andeq	r0, r0, ip, lsr r7
     68c:	9f300002 	svcls	0x00300002
     690:	0000073c 	andeq	r0, r0, ip, lsr r7
     694:	00000744 	andeq	r0, r0, r4, asr #14
     698:	44540001 	ldrbmi	r0, [r4], #-1
     69c:	58000007 	stmdapl	r0, {r0, r1, r2}
     6a0:	0c000007 	stceq	0, cr0, [r0], {7}
     6a4:	06007000 	streq	r7, [r0], -r0
     6a8:	f8090723 			; <UNDEFINED> instruction: 0xf8090723
     6ac:	02b8231a 	adcseq	r2, r8, #1744830464	; 0x68000000
     6b0:	0007589f 	muleq	r7, pc, r8	; <UNPREDICTABLE>
     6b4:	00075b00 	andeq	r5, r7, r0, lsl #22
     6b8:	f3000d00 	vpadd.f32	d0, d0, d0
     6bc:	23065001 	movwcs	r5, #24577	; 0x6001
     6c0:	1af80907 	bne	ffe02ae4 <__bss_end__+0xffdf80ec>
     6c4:	9f02b823 	svcls	0x0002b823
     6c8:	00000764 	andeq	r0, r0, r4, ror #14
     6cc:	00000768 	andeq	r0, r0, r8, ror #14
     6d0:	0070000c 	rsbseq	r0, r0, ip
     6d4:	09072306 	stmdbeq	r7, {r1, r2, r8, r9, sp}
     6d8:	b8231af8 	stmdalt	r3!, {r3, r4, r5, r6, r7, r9, fp, ip}
     6dc:	07689f02 	strbeq	r9, [r8, -r2, lsl #30]!
     6e0:	07700000 	ldrbeq	r0, [r0, -r0]!
     6e4:	000d0000 	andeq	r0, sp, r0
     6e8:	065001f3 			; <UNDEFINED> instruction: 0x065001f3
     6ec:	f8090723 			; <UNDEFINED> instruction: 0xf8090723
     6f0:	02b8231a 	adcseq	r2, r8, #1744830464	; 0x68000000
     6f4:	0000009f 	muleq	r0, pc, r0	; <UNPREDICTABLE>
	...
     700:	00002400 	andeq	r2, r0, r0, lsl #8
     704:	50000100 	andpl	r0, r0, r0, lsl #2
     708:	00000024 	andeq	r0, r0, r4, lsr #32
     70c:	00000028 	andeq	r0, r0, r8, lsr #32
     710:	01f30004 	mvnseq	r0, r4
     714:	00289f50 	eoreq	r9, r8, r0, asr pc
     718:	002c0000 	eoreq	r0, ip, r0
     71c:	00010000 	andeq	r0, r1, r0
     720:	00002c50 	andeq	r2, r0, r0, asr ip
     724:	00003000 	andeq	r3, r0, r0
     728:	f3000400 	vshl.u8	d0, d0, d0
     72c:	309f5001 	addscc	r5, pc, r1
     730:	34000000 	strcc	r0, [r0], #-0
     734:	01000000 	mrseq	r0, (UNDEF: 0)
     738:	00345000 	eorseq	r5, r4, r0
     73c:	003c0000 	eorseq	r0, ip, r0
     740:	00040000 	andeq	r0, r4, r0
     744:	9f5001f3 	svcls	0x005001f3
	...
     750:	0000003c 	andeq	r0, r0, ip, lsr r0
     754:	00000047 	andeq	r0, r0, r7, asr #32
     758:	47500001 	ldrbmi	r0, [r0, -r1]
     75c:	b4000000 	strlt	r0, [r0], #-0
     760:	01000000 	mrseq	r0, (UNDEF: 0)
     764:	00005400 	andeq	r5, r0, r0, lsl #8
     768:	00000000 	andeq	r0, r0, r0
     76c:	00440000 	subeq	r0, r4, r0
     770:	00470000 	subeq	r0, r7, r0
     774:	00010000 	andeq	r0, r1, r0
     778:	00004750 	andeq	r4, r0, r0, asr r7
     77c:	0000b400 	andeq	fp, r0, r0, lsl #8
     780:	54000100 	strpl	r0, [r0], #-256	; 0x100
	...
     78c:	00000054 	andeq	r0, r0, r4, asr r0
     790:	0000009f 	muleq	r0, pc, r0	; <UNPREDICTABLE>
     794:	a0500001 	subsge	r0, r0, r1
     798:	ac000000 	stcge	0, cr0, [r0], {-0}
     79c:	01000000 	mrseq	r0, (UNDEF: 0)
     7a0:	00005000 	andeq	r5, r0, r0
     7a4:	00000000 	andeq	r0, r0, r0
     7a8:	00b40000 	adcseq	r0, r4, r0
     7ac:	00c00000 	sbceq	r0, r0, r0
     7b0:	00010000 	andeq	r0, r1, r0
     7b4:	0000c050 	andeq	ip, r0, r0, asr r0
     7b8:	0001e800 	andeq	lr, r1, r0, lsl #16
     7bc:	59000100 	stmdbpl	r0, {r8}
	...
     7c8:	000000bc 	strheq	r0, [r0], -ip
     7cc:	000000f0 	strdeq	r0, [r0], -r0	; <UNPREDICTABLE>
     7d0:	9f300002 	svcls	0x00300002
     7d4:	000000f0 	strdeq	r0, [r0], -r0	; <UNPREDICTABLE>
     7d8:	000001e8 	andeq	r0, r0, r8, ror #3
     7dc:	00550001 	subseq	r0, r5, r1
     7e0:	00000000 	andeq	r0, r0, r0
     7e4:	bc000000 	stclt	0, cr0, [r0], {-0}
     7e8:	f0000000 			; <UNDEFINED> instruction: 0xf0000000
     7ec:	02000000 	andeq	r0, r0, #0
     7f0:	f09f3000 			; <UNDEFINED> instruction: 0xf09f3000
     7f4:	e8000000 	stmda	r0, {}	; <UNPREDICTABLE>
     7f8:	01000001 	tsteq	r0, r1
     7fc:	00005700 	andeq	r5, r0, r0, lsl #14
     800:	00000000 	andeq	r0, r0, r0
     804:	00bc0000 	adcseq	r0, ip, r0
     808:	00f00000 	rscseq	r0, r0, r0
     80c:	00020000 	andeq	r0, r2, r0
     810:	00f09f30 	rscseq	r9, r0, r0, lsr pc
     814:	01e80000 	mvneq	r0, r0
     818:	00010000 	andeq	r0, r1, r0
     81c:	00000056 	andeq	r0, r0, r6, asr r0
     820:	00000000 	andeq	r0, r0, r0
     824:	0000d400 	andeq	sp, r0, r0, lsl #8
     828:	00010c00 	andeq	r0, r1, r0, lsl #24
     82c:	50000100 	andpl	r0, r0, r0, lsl #2
     830:	0000010c 	andeq	r0, r0, ip, lsl #2
     834:	00000124 	andeq	r0, r0, r4, lsr #2
     838:	24540001 	ldrbcs	r0, [r4], #-1
     83c:	40000001 	andmi	r0, r0, r1
     840:	01000001 	tsteq	r0, r1
     844:	01405000 	mrseq	r5, (UNDEF: 64)
     848:	01640000 	cmneq	r4, r0
     84c:	00010000 	andeq	r0, r1, r0
     850:	00016454 	andeq	r6, r1, r4, asr r4
     854:	00017000 	andeq	r7, r1, r0
     858:	50000100 	andpl	r0, r0, r0, lsl #2
     85c:	00000170 	andeq	r0, r0, r0, ror r1
     860:	000001e8 	andeq	r0, r0, r8, ror #3
     864:	00540001 	subseq	r0, r4, r1
     868:	00000000 	andeq	r0, r0, r0
     86c:	e8000000 	stmda	r0, {}	; <UNPREDICTABLE>
     870:	ff000001 			; <UNDEFINED> instruction: 0xff000001
     874:	01000001 	tsteq	r0, r1
     878:	01ff5000 	mvnseq	r5, r0
     87c:	02180000 	andseq	r0, r8, #0
     880:	00010000 	andeq	r0, r1, r0
     884:	00021854 	andeq	r1, r2, r4, asr r8
     888:	00022300 	andeq	r2, r2, r0, lsl #6
     88c:	50000100 	andpl	r0, r0, r0, lsl #2
     890:	00000223 	andeq	r0, r0, r3, lsr #4
     894:	0000023c 	andeq	r0, r0, ip, lsr r2
     898:	3c540001 	mrrccc	0, 0, r0, r4, cr1
     89c:	47000002 	strmi	r0, [r0, -r2]
     8a0:	01000002 	tsteq	r0, r2
     8a4:	02475000 	subeq	r5, r7, #0
     8a8:	02600000 	rsbeq	r0, r0, #0
     8ac:	00010000 	andeq	r0, r1, r0
     8b0:	00026054 	andeq	r6, r2, r4, asr r0
     8b4:	0002bc00 	andeq	fp, r2, r0, lsl #24
     8b8:	f3000400 	vshl.u8	d0, d0, d0
     8bc:	bc9f5001 	ldclt	0, cr5, [pc], {1}
     8c0:	c0000002 	andgt	r0, r0, r2
     8c4:	01000002 	tsteq	r0, r2
     8c8:	02c05000 	sbceq	r5, r0, #0
     8cc:	02e00000 	rsceq	r0, r0, #0
     8d0:	00040000 	andeq	r0, r4, r0
     8d4:	9f5001f3 	svcls	0x005001f3
	...
     8e0:	000001e8 	andeq	r0, r0, r8, ror #3
     8e4:	000001ff 	strdeq	r0, [r0], -pc	; <UNPREDICTABLE>
     8e8:	ff510001 			; <UNDEFINED> instruction: 0xff510001
     8ec:	18000001 	stmdane	r0, {r0}
     8f0:	01000002 	tsteq	r0, r2
     8f4:	02185500 	andseq	r5, r8, #0, 10
     8f8:	02230000 	eoreq	r0, r3, #0
     8fc:	00010000 	andeq	r0, r1, r0
     900:	00022351 	andeq	r2, r2, r1, asr r3
     904:	00023c00 	andeq	r3, r2, r0, lsl #24
     908:	55000100 	strpl	r0, [r0, #-256]	; 0x100
     90c:	0000023c 	andeq	r0, r0, ip, lsr r2
     910:	00000247 	andeq	r0, r0, r7, asr #4
     914:	47510001 	ldrbmi	r0, [r1, -r1]
     918:	bc000002 	stclt	0, cr0, [r0], {2}
     91c:	01000002 	tsteq	r0, r2
     920:	02bc5500 	adcseq	r5, ip, #0, 10
     924:	02c00000 	sbceq	r0, r0, #0
     928:	00010000 	andeq	r0, r1, r0
     92c:	0002c051 	andeq	ip, r2, r1, asr r0
     930:	0002e000 	andeq	lr, r2, r0
     934:	55000100 	strpl	r0, [r0, #-256]	; 0x100
	...
     940:	00000260 	andeq	r0, r0, r0, ror #4
     944:	000002bc 			; <UNDEFINED> instruction: 0x000002bc
     948:	c0540001 	subsgt	r0, r4, r1
     94c:	e0000002 	and	r0, r0, r2
     950:	01000002 	tsteq	r0, r2
     954:	00005400 	andeq	r5, r0, r0, lsl #8
     958:	00000000 	andeq	r0, r0, r0
     95c:	02680000 	rsbeq	r0, r8, #0
     960:	02740000 	rsbseq	r0, r4, #0
     964:	00010000 	andeq	r0, r1, r0
     968:	00027450 	andeq	r7, r2, r0, asr r4
     96c:	0002b300 	andeq	fp, r2, r0, lsl #6
     970:	53000100 	movwpl	r0, #256	; 0x100
	...
     97c:	000002ec 	andeq	r0, r0, ip, ror #5
     980:	00000303 	andeq	r0, r0, r3, lsl #6
     984:	04500001 	ldrbeq	r0, [r0], #-1
     988:	14000003 	strne	r0, [r0], #-3
     98c:	01000003 	tsteq	r0, r3
     990:	00005000 	andeq	r5, r0, r0
     994:	00000000 	andeq	r0, r0, r0
     998:	03580000 	cmpeq	r8, #0
     99c:	036c0000 	cmneq	ip, #0
     9a0:	00010000 	andeq	r0, r1, r0
     9a4:	00037453 	andeq	r7, r3, r3, asr r4
     9a8:	00038700 	andeq	r8, r3, r0, lsl #14
     9ac:	53000100 	movwpl	r0, #256	; 0x100
	...
     9b8:	000003dc 	ldrdeq	r0, [r0], -ip
     9bc:	00000410 	andeq	r0, r0, r0, lsl r4
     9c0:	9f300002 	svcls	0x00300002
     9c4:	00000410 	andeq	r0, r0, r0, lsl r4
     9c8:	000004cc 	andeq	r0, r0, ip, asr #9
     9cc:	00550001 	subseq	r0, r5, r1
     9d0:	00000000 	andeq	r0, r0, r0
     9d4:	dc000000 	stcle	0, cr0, [r0], {-0}
     9d8:	10000003 	andne	r0, r0, r3
     9dc:	02000004 	andeq	r0, r0, #4
     9e0:	109f3000 	addsne	r3, pc, r0
     9e4:	cc000004 	stcgt	0, cr0, [r0], {4}
     9e8:	01000004 	tsteq	r0, r4
     9ec:	00005800 	andeq	r5, r0, r0, lsl #16
     9f0:	00000000 	andeq	r0, r0, r0
     9f4:	03dc0000 	bicseq	r0, ip, #0
     9f8:	04100000 	ldreq	r0, [r0], #-0
     9fc:	00020000 	andeq	r0, r2, r0
     a00:	04109f30 	ldreq	r9, [r0], #-3888	; 0xf30
     a04:	04cc0000 	strbeq	r0, [ip], #0
     a08:	00010000 	andeq	r0, r1, r0
     a0c:	0004cc56 	andeq	ip, r4, r6, asr ip
     a10:	0004f400 	andeq	pc, r4, r0, lsl #8
     a14:	50000100 	andpl	r0, r0, r0, lsl #2
	...
     a20:	000003f4 	strdeq	r0, [r0], -r4
     a24:	0000043c 	andeq	r0, r0, ip, lsr r4
     a28:	3c500001 	mrrccc	0, 0, r0, r0, cr1	; <UNPREDICTABLE>
     a2c:	70000004 	andvc	r0, r0, r4
     a30:	01000004 	tsteq	r0, r4
     a34:	04705400 	ldrbteq	r5, [r0], #-1024	; 0x400
     a38:	04800000 	streq	r0, [r0], #0
     a3c:	00010000 	andeq	r0, r1, r0
     a40:	00000050 	andeq	r0, r0, r0, asr r0
     a44:	00000000 	andeq	r0, r0, r0
     a48:	0004f400 	andeq	pc, r4, r0, lsl #8
     a4c:	0004ff00 	andeq	pc, r4, r0, lsl #30
     a50:	50000100 	andpl	r0, r0, r0, lsl #2
     a54:	000004ff 	strdeq	r0, [r0], -pc	; <UNPREDICTABLE>
     a58:	0000050c 	andeq	r0, r0, ip, lsl #10
     a5c:	00540001 	subseq	r0, r4, r1
     a60:	00000000 	andeq	r0, r0, r0
     a64:	f0000000 			; <UNDEFINED> instruction: 0xf0000000
     a68:	fb000005 	blx	a86 <_start-0x757a>
     a6c:	01000005 	tsteq	r0, r5
     a70:	05fb5000 	ldrbeq	r5, [fp, #0]!
     a74:	06140000 	ldreq	r0, [r4], -r0
     a78:	00010000 	andeq	r0, r1, r0
     a7c:	00061454 	andeq	r1, r6, r4, asr r4
     a80:	00061800 	andeq	r1, r6, r0, lsl #16
     a84:	50000100 	andpl	r0, r0, r0, lsl #2
     a88:	00000618 	andeq	r0, r0, r8, lsl r6
     a8c:	00000650 	andeq	r0, r0, r0, asr r6
     a90:	00540001 	subseq	r0, r4, r1
	...
     a9c:	24000000 	strcs	r0, [r0], #-0
     aa0:	01000000 	mrseq	r0, (UNDEF: 0)
     aa4:	00245000 	eoreq	r5, r4, r0
     aa8:	00e40000 	rsceq	r0, r4, r0
     aac:	00040000 	andeq	r0, r4, r0
     ab0:	9f5001f3 	svcls	0x005001f3
     ab4:	000000e4 	andeq	r0, r0, r4, ror #1
     ab8:	000000e8 	andeq	r0, r0, r8, ror #1
     abc:	e8500001 	ldmda	r0, {r0}^
     ac0:	f0000000 			; <UNDEFINED> instruction: 0xf0000000
     ac4:	04000000 	streq	r0, [r0], #-0
     ac8:	5001f300 	andpl	pc, r1, r0, lsl #6
     acc:	0000009f 	muleq	r0, pc, r0	; <UNPREDICTABLE>
	...
     ad8:	00002000 	andeq	r2, r0, r0
     adc:	51000100 	mrspl	r0, (UNDEF: 16)
     ae0:	00000020 	andeq	r0, r0, r0, lsr #32
     ae4:	00000080 	andeq	r0, r0, r0, lsl #1
     ae8:	9c510001 	mrrcls	0, 0, r0, r1, cr1
     aec:	a0000000 	andge	r0, r0, r0
     af0:	01000000 	mrseq	r0, (UNDEF: 0)
     af4:	00b85100 	adcseq	r5, r8, r0, lsl #2
     af8:	00c80000 	sbceq	r0, r8, r0
     afc:	00010000 	andeq	r0, r1, r0
     b00:	0000e451 	andeq	lr, r0, r1, asr r4
     b04:	0000e800 	andeq	lr, r0, r0, lsl #16
     b08:	51000100 	mrspl	r0, (UNDEF: 16)
	...
     b14:	00000004 	andeq	r0, r0, r4
     b18:	00000024 	andeq	r0, r0, r4, lsr #32
     b1c:	24500001 	ldrbcs	r0, [r0], #-1
     b20:	90000000 	andls	r0, r0, r0
     b24:	01000000 	mrseq	r0, (UNDEF: 0)
     b28:	009c5300 	addseq	r5, ip, r0, lsl #6
     b2c:	00a40000 	adceq	r0, r4, r0
     b30:	00010000 	andeq	r0, r1, r0
     b34:	0000b853 	andeq	fp, r0, r3, asr r8
     b38:	0000bc00 	andeq	fp, r0, r0, lsl #24
     b3c:	53000100 	movwpl	r0, #256	; 0x100
     b40:	000000e4 	andeq	r0, r0, r4, ror #1
     b44:	000000e8 	andeq	r0, r0, r8, ror #1
     b48:	00500001 	subseq	r0, r0, r1
     b4c:	00000000 	andeq	r0, r0, r0
     b50:	08000000 	stmdaeq	r0, {}	; <UNPREDICTABLE>
     b54:	20000000 	andcs	r0, r0, r0
     b58:	01000000 	mrseq	r0, (UNDEF: 0)
     b5c:	00205100 	eoreq	r5, r0, r0, lsl #2
     b60:	00340000 	eorseq	r0, r4, r0
     b64:	00010000 	andeq	r0, r1, r0
     b68:	00003452 	andeq	r3, r0, r2, asr r4
     b6c:	00004800 	andeq	r4, r0, r0, lsl #16
     b70:	50000100 	andpl	r0, r0, r0, lsl #2
     b74:	00000048 	andeq	r0, r0, r8, asr #32
     b78:	000000cc 	andeq	r0, r0, ip, asr #1
     b7c:	cc520001 	mrrcgt	0, 0, r0, r2, cr1
     b80:	e0000000 	and	r0, r0, r0
     b84:	01000000 	mrseq	r0, (UNDEF: 0)
     b88:	00e45000 	rsceq	r5, r4, r0
     b8c:	00e80000 	rsceq	r0, r8, r0
     b90:	00010000 	andeq	r0, r1, r0
     b94:	00000051 	andeq	r0, r0, r1, asr r0
     b98:	00000000 	andeq	r0, r0, r0
     b9c:	00004400 	andeq	r4, r0, r0, lsl #8
     ba0:	00004800 	andeq	r4, r0, r0, lsl #16
     ba4:	52000100 	andpl	r0, r0, #0, 2
     ba8:	00000048 	andeq	r0, r0, r8, asr #32
     bac:	0000004c 	andeq	r0, r0, ip, asr #32
     bb0:	007c0012 	rsbseq	r0, ip, r2, lsl r0
     bb4:	02732438 	rsbseq	r2, r3, #56, 8	; 0x38000000
     bb8:	ff080194 			; <UNDEFINED> instruction: 0xff080194
     bbc:	243b221a 	ldrtcs	r2, [fp], #-538	; 0x21a
     bc0:	9f270070 	svcls	0x00270070
     bc4:	0000004c 	andeq	r0, r0, ip, asr #32
     bc8:	00000054 	andeq	r0, r0, r4, asr r0
     bcc:	007c0012 	rsbseq	r0, ip, r2, lsl r0
     bd0:	7e732438 	mrcvc	4, 3, r2, cr3, cr8, {1}
     bd4:	ff080194 			; <UNDEFINED> instruction: 0xff080194
     bd8:	243b221a 	ldrtcs	r2, [fp], #-538	; 0x21a
     bdc:	9f270070 	svcls	0x00270070
	...
     be8:	0000001c 	andeq	r0, r0, ip, lsl r0
     bec:	000000e4 	andeq	r0, r0, r4, ror #1
     bf0:	00540001 	subseq	r0, r4, r1
	...
     bfc:	04000000 	streq	r0, [r0], #-0
     c00:	01000000 	mrseq	r0, (UNDEF: 0)
     c04:	00045200 	andeq	r5, r4, r0, lsl #4
     c08:	00200000 	eoreq	r0, r0, r0
     c0c:	00040000 	andeq	r0, r4, r0
     c10:	9f5201f3 	svcls	0x005201f3
	...
     c20:	0000000c 	andeq	r0, r0, ip
     c24:	0c500001 	mrrceq	0, 0, r0, r0, cr1	; <UNPREDICTABLE>
     c28:	14000000 	strne	r0, [r0], #-0
     c2c:	03000000 	movweq	r0, #0
     c30:	9f017300 	svcls	0x00017300
     c34:	00000014 	andeq	r0, r0, r4, lsl r0
     c38:	00000020 	andeq	r0, r0, r0, lsr #32
     c3c:	00530001 	subseq	r0, r3, r1
     c40:	00000000 	andeq	r0, r0, r0
     c44:	2c000000 	stccs	0, cr0, [r0], {-0}
     c48:	38000000 	stmdacc	r0, {}	; <UNPREDICTABLE>
     c4c:	01000000 	mrseq	r0, (UNDEF: 0)
     c50:	00385000 	eorseq	r5, r8, r0
     c54:	00480000 	subeq	r0, r8, r0
     c58:	00010000 	andeq	r0, r1, r0
     c5c:	00004855 	andeq	r4, r0, r5, asr r8
     c60:	00005800 	andeq	r5, r0, r0, lsl #16
     c64:	50000100 	andpl	r0, r0, r0, lsl #2
	...
     c74:	0000000b 	andeq	r0, r0, fp
     c78:	0b500001 	bleq	1400c84 <__bss_end__+0x13f628c>
     c7c:	14000000 	strne	r0, [r0], #-0
     c80:	01000000 	mrseq	r0, (UNDEF: 0)
     c84:	00005400 	andeq	r5, r0, r0, lsl #8
	...
     c90:	00100000 	andseq	r0, r0, r0
     c94:	00010000 	andeq	r0, r1, r0
     c98:	00001050 	andeq	r1, r0, r0, asr r0
     c9c:	00003400 	andeq	r3, r0, r0, lsl #8
     ca0:	54000100 	strpl	r0, [r0], #-256	; 0x100
	...
     cb0:	00000004 	andeq	r0, r0, r4
     cb4:	04500001 	ldrbeq	r0, [r0], #-1
     cb8:	0c000000 	stceq	0, cr0, [r0], {-0}
     cbc:	03000000 	movweq	r0, #0
     cc0:	9f307000 	svcls	0x00307000
     cc4:	0000000c 	andeq	r0, r0, ip
     cc8:	00000014 	andeq	r0, r0, r4, lsl r0
     ccc:	01f30004 	mvnseq	r0, r4
     cd0:	00009f50 	andeq	r9, r0, r0, asr pc
     cd4:	00000000 	andeq	r0, r0, r0
     cd8:	00140000 	andseq	r0, r4, r0
     cdc:	00200000 	eoreq	r0, r0, r0
     ce0:	00010000 	andeq	r0, r1, r0
     ce4:	00002050 	andeq	r2, r0, r0, asr r0
     ce8:	00002c00 	andeq	r2, r0, r0, lsl #24
     cec:	70000300 	andvc	r0, r0, r0, lsl #6
     cf0:	002c9f01 	eoreq	r9, ip, r1, lsl #30
     cf4:	00400000 	subeq	r0, r0, r0
     cf8:	00010000 	andeq	r0, r1, r0
     cfc:	00000050 	andeq	r0, r0, r0, asr r0
     d00:	00000000 	andeq	r0, r0, r0
     d04:	00001400 	andeq	r1, r0, r0, lsl #8
     d08:	00001800 	andeq	r1, r0, r0, lsl #16
     d0c:	51000100 	mrspl	r0, (UNDEF: 16)
     d10:	00000018 	andeq	r0, r0, r8, lsl r0
     d14:	00000040 	andeq	r0, r0, r0, asr #32
     d18:	01f30004 	mvnseq	r0, r4
     d1c:	00009f51 	andeq	r9, r0, r1, asr pc
     d20:	00000000 	andeq	r0, r0, r0
     d24:	00400000 	subeq	r0, r0, r0
     d28:	00600000 	rsbeq	r0, r0, r0
     d2c:	00010000 	andeq	r0, r1, r0
     d30:	00006050 	andeq	r6, r0, r0, asr r0
     d34:	00006c00 	andeq	r6, r0, r0, lsl #24
     d38:	71000300 	mrsvc	r0, LR_irq
     d3c:	006c9f01 	rsbeq	r9, ip, r1, lsl #30
     d40:	00740000 	rsbseq	r0, r4, r0
     d44:	00010000 	andeq	r0, r1, r0
     d48:	00007451 	andeq	r7, r0, r1, asr r4
     d4c:	00008000 	andeq	r8, r0, r0
     d50:	71000300 	mrsvc	r0, LR_irq
     d54:	00009f01 	andeq	r9, r0, r1, lsl #30
     d58:	00000000 	andeq	r0, r0, r0
     d5c:	00400000 	subeq	r0, r0, r0
     d60:	00500000 	subseq	r0, r0, r0
     d64:	00010000 	andeq	r0, r1, r0
     d68:	00005051 	andeq	r5, r0, r1, asr r0
     d6c:	00008000 	andeq	r8, r0, r0
     d70:	f3000400 	vshl.u8	d0, d0, d0
     d74:	009f5101 	addseq	r5, pc, r1, lsl #2
     d78:	00000000 	andeq	r0, r0, r0
     d7c:	40000000 	andmi	r0, r0, r0
     d80:	58000000 	stmdapl	r0, {}	; <UNPREDICTABLE>
     d84:	01000000 	mrseq	r0, (UNDEF: 0)
     d88:	00585200 	subseq	r5, r8, r0, lsl #4
     d8c:	00640000 	rsbeq	r0, r4, r0
     d90:	00010000 	andeq	r0, r1, r0
     d94:	00006452 	andeq	r6, r0, r2, asr r4
     d98:	00006800 	andeq	r6, r0, r0, lsl #16
     d9c:	72000300 	andvc	r0, r0, #0, 6
     da0:	00689f01 	rsbeq	r9, r8, r1, lsl #30
     da4:	00800000 	addeq	r0, r0, r0
     da8:	00010000 	andeq	r0, r1, r0
     dac:	00000052 	andeq	r0, r0, r2, asr r0
     db0:	00000000 	andeq	r0, r0, r0
     db4:	00004000 	andeq	r4, r0, r0
     db8:	00005400 	andeq	r5, r0, r0, lsl #8
     dbc:	53000100 	movwpl	r0, #256	; 0x100
     dc0:	00000054 	andeq	r0, r0, r4, asr r0
     dc4:	00000078 	andeq	r0, r0, r8, ror r0
     dc8:	00530001 	subseq	r0, r3, r1
     dcc:	00000000 	andeq	r0, r0, r0
     dd0:	48000000 	stmdami	r0, {}	; <UNPREDICTABLE>
     dd4:	60000000 	andvs	r0, r0, r0
     dd8:	01000000 	mrseq	r0, (UNDEF: 0)
     ddc:	00605c00 	rsbeq	r5, r0, r0, lsl #24
     de0:	00800000 	addeq	r0, r0, r0
     de4:	000a0000 	andeq	r0, sl, r0
     de8:	f35201f3 	vbsl	q8, q9, <illegal reg q9.5>
     dec:	231c5301 	tstcs	ip, #67108864	; 0x4000000
     df0:	00009f01 	andeq	r9, r0, r1, lsl #30
     df4:	00000000 	andeq	r0, r0, r0
     df8:	00800000 	addeq	r0, r0, r0
     dfc:	00a40000 	adceq	r0, r4, r0
     e00:	00010000 	andeq	r0, r1, r0
     e04:	0000a450 	andeq	sl, r0, r0, asr r4
     e08:	00011800 	andeq	r1, r1, r0, lsl #16
     e0c:	70000300 	andvc	r0, r0, r0, lsl #6
     e10:	01189f02 	tsteq	r8, r2, lsl #30
     e14:	02300000 	eorseq	r0, r0, #0
     e18:	00040000 	andeq	r0, r4, r0
     e1c:	9f5001f3 	svcls	0x005001f3
	...
     e28:	00000080 	andeq	r0, r0, r0, lsl #1
     e2c:	000000f0 	strdeq	r0, [r0], -r0	; <UNPREDICTABLE>
     e30:	f0510001 			; <UNDEFINED> instruction: 0xf0510001
     e34:	60000000 	andvs	r0, r0, r0
     e38:	01000001 	tsteq	r0, r1
     e3c:	01605500 	cmneq	r0, r0, lsl #10
     e40:	016c0000 	cmneq	ip, r0
     e44:	00010000 	andeq	r0, r1, r0
     e48:	00016c51 	andeq	r6, r1, r1, asr ip
     e4c:	0001a000 	andeq	sl, r1, r0
     e50:	55000100 	strpl	r0, [r0, #-256]	; 0x100
     e54:	000001a0 	andeq	r0, r0, r0, lsr #3
     e58:	000001b4 			; <UNDEFINED> instruction: 0x000001b4
     e5c:	b4510001 	ldrblt	r0, [r1], #-1
     e60:	d4000001 	strle	r0, [r0], #-1
     e64:	01000001 	tsteq	r0, r1
     e68:	01d45500 	bicseq	r5, r4, r0, lsl #10
     e6c:	01d70000 	bicseq	r0, r7, r0
     e70:	00010000 	andeq	r0, r1, r0
     e74:	0001d751 	andeq	sp, r1, r1, asr r7
     e78:	00021400 	andeq	r1, r2, r0, lsl #8
     e7c:	55000100 	strpl	r0, [r0, #-256]	; 0x100
     e80:	00000214 	andeq	r0, r0, r4, lsl r2
     e84:	00000230 	andeq	r0, r0, r0, lsr r2
     e88:	01f30004 	mvnseq	r0, r4
     e8c:	00009f51 	andeq	r9, r0, r1, asr pc
     e90:	00000000 	andeq	r0, r0, r0
     e94:	00800000 	addeq	r0, r0, r0
     e98:	00940000 	addseq	r0, r4, r0
     e9c:	00010000 	andeq	r0, r1, r0
     ea0:	00009452 	andeq	r9, r0, r2, asr r4
     ea4:	00021400 	andeq	r1, r2, r0, lsl #8
     ea8:	54000100 	strpl	r0, [r0], #-256	; 0x100
     eac:	00000214 	andeq	r0, r0, r4, lsl r2
     eb0:	00000230 	andeq	r0, r0, r0, lsr r2
     eb4:	01f30004 	mvnseq	r0, r4
     eb8:	00009f52 	andeq	r9, r0, r2, asr pc
     ebc:	00000000 	andeq	r0, r0, r0
     ec0:	00800000 	addeq	r0, r0, r0
     ec4:	01000000 	mrseq	r0, (UNDEF: 0)
     ec8:	00010000 	andeq	r0, r1, r0
     ecc:	00010453 	andeq	r0, r1, r3, asr r4
     ed0:	00010800 	andeq	r0, r1, r0, lsl #16
     ed4:	53000100 	movwpl	r0, #256	; 0x100
     ed8:	00000160 	andeq	r0, r0, r0, ror #2
     edc:	00000164 	andeq	r0, r0, r4, ror #2
     ee0:	64530001 	ldrbvs	r0, [r3], #-1
     ee4:	6c000001 	stcvs	0, cr0, [r0], {1}
     ee8:	01000001 	tsteq	r0, r1
     eec:	016c5c00 	cmneq	ip, r0, lsl #24
     ef0:	01a00000 	moveq	r0, r0
     ef4:	00040000 	andeq	r0, r4, r0
     ef8:	9f5301f3 	svcls	0x005301f3
     efc:	000001a0 	andeq	r0, r0, r0, lsr #3
     f00:	000001b0 			; <UNDEFINED> instruction: 0x000001b0
     f04:	b0530001 	subslt	r0, r3, r1
     f08:	b4000001 	strlt	r0, [r0], #-1
     f0c:	01000001 	tsteq	r0, r1
     f10:	01b45c00 			; <UNDEFINED> instruction: 0x01b45c00
     f14:	01d40000 	bicseq	r0, r4, r0
     f18:	00040000 	andeq	r0, r4, r0
     f1c:	9f5301f3 	svcls	0x005301f3
     f20:	000001d4 	ldrdeq	r0, [r0], -r4
     f24:	000001d7 	ldrdeq	r0, [r0], -r7
     f28:	d7530001 	ldrble	r0, [r3, -r1]
     f2c:	f0000001 			; <UNDEFINED> instruction: 0xf0000001
     f30:	04000001 	streq	r0, [r0], #-1
     f34:	5301f300 	movwpl	pc, #4864	; 0x1300	; <UNPREDICTABLE>
     f38:	0000009f 	muleq	r0, pc, r0	; <UNPREDICTABLE>
     f3c:	00000000 	andeq	r0, r0, r0
     f40:	00008000 	andeq	r8, r0, r0
     f44:	00009c00 	andeq	r9, r0, r0, lsl #24
     f48:	91000200 	mrsls	r0, R8_usr
     f4c:	00009c00 	andeq	r9, r0, r0, lsl #24
     f50:	0001d700 	andeq	sp, r1, r0, lsl #14
     f54:	52000100 	andpl	r0, r0, #0, 2
     f58:	000001f0 	strdeq	r0, [r0], -r0	; <UNPREDICTABLE>
     f5c:	000001f7 	strdeq	r0, [r0], -r7
     f60:	00520001 	subseq	r0, r2, r1
     f64:	00000000 	andeq	r0, r0, r0
     f68:	9c000000 	stcls	0, cr0, [r0], {-0}
     f6c:	18000000 	stmdane	r0, {}	; <UNPREDICTABLE>
     f70:	01000001 	tsteq	r0, r1
     f74:	01185d00 	tsteq	r8, r0, lsl #26
     f78:	011c0000 	tsteq	ip, r0
     f7c:	00010000 	andeq	r0, r1, r0
     f80:	00011c50 	andeq	r1, r1, r0, asr ip
     f84:	00012000 	andeq	r2, r1, r0
     f88:	51000100 	mrspl	r0, (UNDEF: 16)
     f8c:	00000120 	andeq	r0, r0, r0, lsr #2
     f90:	00000160 	andeq	r0, r0, r0, ror #2
     f94:	60500001 	subsvs	r0, r0, r1
     f98:	6c000001 	stcvs	0, cr0, [r0], {1}
     f9c:	01000001 	tsteq	r0, r1
     fa0:	016c5d00 	cmneq	ip, r0, lsl #26
     fa4:	01700000 	cmneq	r0, r0
     fa8:	00010000 	andeq	r0, r1, r0
     fac:	00017050 	andeq	r7, r1, r0, asr r0
     fb0:	00017400 	andeq	r7, r1, r0, lsl #8
     fb4:	53000100 	movwpl	r0, #256	; 0x100
     fb8:	00000174 	andeq	r0, r0, r4, ror r1
     fbc:	00000188 	andeq	r0, r0, r8, lsl #3
     fc0:	88500001 	ldmdahi	r0, {r0}^
     fc4:	94000001 	strls	r0, [r0], #-1
     fc8:	03000001 	movweq	r0, #1
     fcc:	9f017000 	svcls	0x00017000
     fd0:	00000194 	muleq	r0, r4, r1
     fd4:	000001a0 	andeq	r0, r0, r0, lsr #3
     fd8:	a0500001 	subsge	r0, r0, r1
     fdc:	a8000001 	stmdage	r0, {r0}
     fe0:	04000001 	streq	r0, [r0], #-1
     fe4:	7fa19100 	svcvc	0x00a19100
     fe8:	0001a89f 	muleq	r1, pc, r8	; <UNPREDICTABLE>
     fec:	0001ac00 	andeq	sl, r1, r0, lsl #24
     ff0:	50000100 	andpl	r0, r0, r0, lsl #2
     ff4:	000001ac 	andeq	r0, r0, ip, lsr #3
     ff8:	000001b4 			; <UNDEFINED> instruction: 0x000001b4
     ffc:	b45d0001 	ldrblt	r0, [sp], #-1
    1000:	b8000001 	stmdalt	r0, {r0}
    1004:	01000001 	tsteq	r0, r1
    1008:	01b85300 			; <UNDEFINED> instruction: 0x01b85300
    100c:	01d40000 	bicseq	r0, r4, r0
    1010:	00010000 	andeq	r0, r1, r0
    1014:	0001d450 	andeq	sp, r1, r0, asr r4
    1018:	0001f000 	andeq	pc, r1, r0
    101c:	5d000100 	stfpls	f0, [r0, #-0]
    1020:	000001f0 	strdeq	r0, [r0], -r0	; <UNPREDICTABLE>
    1024:	000001f7 	strdeq	r0, [r0], -r7
    1028:	00500001 	subseq	r0, r0, r1
    102c:	00000000 	andeq	r0, r0, r0
    1030:	a0000000 	andge	r0, r0, r0
    1034:	ec000000 	stc	0, cr0, [r0], {-0}
    1038:	01000000 	mrseq	r0, (UNDEF: 0)
    103c:	00ec5c00 	rsceq	r5, ip, r0, lsl #24
    1040:	01000000 	mrseq	r0, (UNDEF: 0)
    1044:	00010000 	andeq	r0, r1, r0
    1048:	00010053 	andeq	r0, r1, r3, asr r0
    104c:	00010400 	andeq	r0, r1, r0, lsl #8
    1050:	5c000100 	stfpls	f0, [r0], {-0}
    1054:	00000104 	andeq	r0, r0, r4, lsl #2
    1058:	00000108 	andeq	r0, r0, r8, lsl #2
    105c:	08530001 	ldmdaeq	r3, {r0}^
    1060:	60000001 	andvs	r0, r0, r1
    1064:	01000001 	tsteq	r0, r1
    1068:	01605c00 	cmneq	r0, r0, lsl #24
    106c:	01640000 	cmneq	r4, r0
    1070:	00010000 	andeq	r0, r1, r0
    1074:	00016453 	andeq	r6, r1, r3, asr r4
    1078:	00018000 	andeq	r8, r1, r0
    107c:	5c000100 	stfpls	f0, [r0], {-0}
    1080:	00000180 	andeq	r0, r0, r0, lsl #3
    1084:	00000184 	andeq	r0, r0, r4, lsl #3
    1088:	007c0005 	rsbseq	r0, ip, r5
    108c:	849f2534 	ldrhi	r2, [pc], #1332	; 1094 <_start-0x6f6c>
    1090:	a0000001 	andge	r0, r0, r1
    1094:	01000001 	tsteq	r0, r1
    1098:	01a05c00 	lsleq	r5, r0, #24
    109c:	01b00000 	movseq	r0, r0
    10a0:	00010000 	andeq	r0, r1, r0
    10a4:	0001b053 	andeq	fp, r1, r3, asr r0
    10a8:	0001c400 	andeq	ip, r1, r0, lsl #8
    10ac:	5c000100 	stfpls	f0, [r0], {-0}
    10b0:	000001c4 	andeq	r0, r0, r4, asr #3
    10b4:	000001cc 	andeq	r0, r0, ip, asr #3
    10b8:	007c0005 	rsbseq	r0, ip, r5
    10bc:	cc9f2531 	cfldr32gt	mvfx2, [pc], {49}	; 0x31
    10c0:	d4000001 	strle	r0, [r0], #-1
    10c4:	01000001 	tsteq	r0, r1
    10c8:	01d45c00 	bicseq	r5, r4, r0, lsl #24
    10cc:	01d70000 	bicseq	r0, r7, r0
    10d0:	00010000 	andeq	r0, r1, r0
    10d4:	0001d753 	andeq	sp, r1, r3, asr r7
    10d8:	0001f000 	andeq	pc, r1, r0
    10dc:	f3000400 	vshl.u8	d0, d0, d0
    10e0:	f09f5301 			; <UNDEFINED> instruction: 0xf09f5301
    10e4:	f7000001 			; <UNDEFINED> instruction: 0xf7000001
    10e8:	01000001 	tsteq	r0, r1
    10ec:	00005c00 	andeq	r5, r0, r0, lsl #24
    10f0:	00000000 	andeq	r0, r0, r0
    10f4:	00ec0000 	rsceq	r0, ip, r0
    10f8:	00fc0000 	rscseq	r0, ip, r0
    10fc:	00020000 	andeq	r0, r2, r0
    1100:	00fc9f30 	rscseq	r9, ip, r0, lsr pc
    1104:	01040000 	mrseq	r0, (UNDEF: 4)
    1108:	00020000 	andeq	r0, r2, r0
    110c:	01049f31 	tsteq	r4, r1, lsr pc
    1110:	01080000 	mrseq	r0, (UNDEF: 8)
    1114:	00020000 	andeq	r0, r2, r0
    1118:	00009f30 	andeq	r9, r0, r0, lsr pc
    111c:	00000000 	andeq	r0, r0, r0
    1120:	02300000 	eorseq	r0, r0, #0
    1124:	023f0000 	eorseq	r0, pc, #0
    1128:	00010000 	andeq	r0, r1, r0
    112c:	00023f50 	andeq	r3, r2, r0, asr pc
    1130:	00025800 	andeq	r5, r2, r0, lsl #16
    1134:	f3000400 	vshl.u8	d0, d0, d0
    1138:	589f5001 	ldmpl	pc, {r0, ip, lr}	; <UNPREDICTABLE>
    113c:	84000002 	strhi	r0, [r0], #-2
    1140:	01000002 	tsteq	r0, r2
    1144:	00005000 	andeq	r5, r0, r0
    1148:	00000000 	andeq	r0, r0, r0
    114c:	02300000 	eorseq	r0, r0, #0
    1150:	023f0000 	eorseq	r0, pc, #0
    1154:	00010000 	andeq	r0, r1, r0
    1158:	00023f51 	andeq	r3, r2, r1, asr pc
    115c:	00025800 	andeq	r5, r2, r0, lsl #16
    1160:	f3000400 	vshl.u8	d0, d0, d0
    1164:	589f5101 	ldmpl	pc, {r0, r8, ip, lr}	; <UNPREDICTABLE>
    1168:	84000002 	strhi	r0, [r0], #-2
    116c:	01000002 	tsteq	r0, r2
    1170:	00005100 	andeq	r5, r0, r0, lsl #2
    1174:	00000000 	andeq	r0, r0, r0
    1178:	02840000 	addeq	r0, r4, #0
    117c:	02b00000 	adcseq	r0, r0, #0
    1180:	00010000 	andeq	r0, r1, r0
    1184:	0002b050 	andeq	fp, r2, r0, asr r0
    1188:	0004f800 	andeq	pc, r4, r0, lsl #16
    118c:	5a000100 	bpl	1594 <_start-0x6a6c>
    1190:	000004f8 	strdeq	r0, [r0], -r8
    1194:	0000050c 	andeq	r0, r0, ip, lsl #10
    1198:	01f30004 	mvnseq	r0, r4
    119c:	00009f50 	andeq	r9, r0, r0, asr pc
    11a0:	00000000 	andeq	r0, r0, r0
    11a4:	02840000 	addeq	r0, r4, #0
    11a8:	02980000 	addseq	r0, r8, #0
    11ac:	00010000 	andeq	r0, r1, r0
    11b0:	00029851 	andeq	r9, r2, r1, asr r8
    11b4:	0002b000 	andeq	fp, r2, r0
    11b8:	71000300 	mrsvc	r0, LR_irq
    11bc:	02b09f01 	adcseq	r9, r0, #1, 30
    11c0:	050c0000 	streq	r0, [ip, #-0]
    11c4:	00040000 	andeq	r0, r4, r0
    11c8:	9f5101f3 	svcls	0x005101f3
	...
    11d4:	00000284 	andeq	r0, r0, r4, lsl #5
    11d8:	000002b8 			; <UNDEFINED> instruction: 0x000002b8
    11dc:	b8520001 	ldmdalt	r2, {r0}^
    11e0:	e0000002 	and	r0, r0, r2
    11e4:	01000002 	tsteq	r0, r2
    11e8:	02e05200 	rsceq	r5, r0, #0, 4
    11ec:	04a80000 	strteq	r0, [r8], #0
    11f0:	00010000 	andeq	r0, r1, r0
    11f4:	0004a856 	andeq	sl, r4, r6, asr r8
    11f8:	00050c00 	andeq	r0, r5, r0, lsl #24
    11fc:	52000100 	andpl	r0, r0, #0, 2
	...
    1208:	00000284 	andeq	r0, r0, r4, lsl #5
    120c:	000002a0 	andeq	r0, r0, r0, lsr #5
    1210:	00530001 	subseq	r0, r3, r1
    1214:	00000000 	andeq	r0, r0, r0
    1218:	94000000 	strls	r0, [r0], #-0
    121c:	b0000002 	andlt	r0, r0, r2
    1220:	01000002 	tsteq	r0, r2
    1224:	02b05000 	adcseq	r5, r0, #0
    1228:	02b40000 	adcseq	r0, r4, #0
    122c:	00010000 	andeq	r0, r1, r0
    1230:	0002b454 	andeq	fp, r2, r4, asr r4
    1234:	0002c000 	andeq	ip, r2, r0
    1238:	74000300 	strvc	r0, [r0], #-768	; 0x300
    123c:	02c09f01 	sbceq	r9, r0, #1, 30
    1240:	02cc0000 	sbceq	r0, ip, #0
    1244:	00010000 	andeq	r0, r1, r0
    1248:	0002cc54 	andeq	ip, r2, r4, asr ip
    124c:	0002d800 	andeq	sp, r2, r0, lsl #16
    1250:	74000300 	strvc	r0, [r0], #-768	; 0x300
    1254:	02d89f01 	sbcseq	r9, r8, #1, 30
    1258:	04ac0000 	strteq	r0, [ip], #0
    125c:	00010000 	andeq	r0, r1, r0
    1260:	0004ac54 	andeq	sl, r4, r4, asr ip
    1264:	0004b800 	andeq	fp, r4, r0, lsl #16
    1268:	74000300 	strvc	r0, [r0], #-768	; 0x300
    126c:	04b89f01 	ldrteq	r9, [r8], #3841	; 0xf01
    1270:	04e40000 	strbteq	r0, [r4], #0
    1274:	00010000 	andeq	r0, r1, r0
    1278:	0004e454 	andeq	lr, r4, r4, asr r4
    127c:	0004f000 	andeq	pc, r4, r0
    1280:	50000100 	andpl	r0, r0, r0, lsl #2
    1284:	000004f0 	strdeq	r0, [r0], -r0	; <UNPREDICTABLE>
    1288:	000004f8 	strdeq	r0, [r0], -r8
    128c:	01740003 	cmneq	r4, r3
    1290:	0000009f 	muleq	r0, pc, r0	; <UNPREDICTABLE>
    1294:	00000000 	andeq	r0, r0, r0
    1298:	00029c00 	andeq	r9, r2, r0, lsl #24
    129c:	0004f800 	andeq	pc, r4, r0, lsl #16
    12a0:	58000100 	stmdapl	r0, {r8}
    12a4:	000004f8 	strdeq	r0, [r0], -r8
    12a8:	0000050c 	andeq	r0, r0, ip, lsl #10
    12ac:	01f3000a 	mvnseq	r0, sl
    12b0:	5001f351 	andpl	pc, r1, r1, asr r3	; <UNPREDICTABLE>
    12b4:	9f1c3122 	svcls	0x001c3122
	...
    12c0:	000003e0 	andeq	r0, r0, r0, ror #7
    12c4:	000003e4 	andeq	r0, r0, r4, ror #7
    12c8:	04500001 	ldrbeq	r0, [r0], #-1
    12cc:	08000004 	stmdaeq	r0, {r2}
    12d0:	01000004 	tsteq	r0, r4
    12d4:	04285000 	strteq	r5, [r8], #-0
    12d8:	042c0000 	strteq	r0, [ip], #-0
    12dc:	00010000 	andeq	r0, r1, r0
    12e0:	00044c50 	andeq	r4, r4, r0, asr ip
    12e4:	00045000 	andeq	r5, r4, r0
    12e8:	50000100 	andpl	r0, r0, r0, lsl #2
    12ec:	00000458 	andeq	r0, r0, r8, asr r4
    12f0:	0000045c 	andeq	r0, r0, ip, asr r4
    12f4:	7c500001 	mrrcvc	0, 0, r0, r0, cr1	; <UNPREDICTABLE>
    12f8:	80000004 	andhi	r0, r0, r4
    12fc:	01000004 	tsteq	r0, r4
    1300:	04a45000 	strteq	r5, [r4], #0
    1304:	04cc0000 	strbeq	r0, [ip], #0
    1308:	00010000 	andeq	r0, r1, r0
    130c:	00000050 	andeq	r0, r0, r0, asr r0
    1310:	00000000 	andeq	r0, r0, r0
    1314:	0002e000 	andeq	lr, r2, r0
    1318:	0002e800 	andeq	lr, r2, r0, lsl #16
    131c:	30000200 	andcc	r0, r0, r0, lsl #4
    1320:	0002e89f 	muleq	r2, pc, r8	; <UNPREDICTABLE>
    1324:	0002ec00 	andeq	lr, r2, r0, lsl #24
    1328:	57000100 	strpl	r0, [r0, -r0, lsl #2]
    132c:	000002f8 	strdeq	r0, [r0], -r8
    1330:	000004cc 	andeq	r0, r0, ip, asr #9
    1334:	00570001 	subseq	r0, r7, r1
    1338:	00000000 	andeq	r0, r0, r0
    133c:	14000000 	strne	r0, [r0], #-0
    1340:	1c000000 	stcne	0, cr0, [r0], {-0}
    1344:	03000000 	movweq	r0, #0
    1348:	9f047300 	svcls	0x00047300
    134c:	0000001c 	andeq	r0, r0, ip, lsl r0
    1350:	00000027 	andeq	r0, r0, r7, lsr #32
    1354:	00530001 	subseq	r0, r3, r1
    1358:	00000000 	andeq	r0, r0, r0
    135c:	34000000 	strcc	r0, [r0], #-0
    1360:	38000096 	stmdacc	r0, {r1, r2, r4, r7}
    1364:	02000096 	andeq	r0, r0, #150	; 0x96
    1368:	389f3000 	ldmcc	pc, {ip, sp}	; <UNPREDICTABLE>
    136c:	3c000096 	stccc	0, cr0, [r0], {150}	; 0x96
    1370:	01000096 	swpeq	r0, r6, [r0]	; <UNPREDICTABLE>
    1374:	00005000 	andeq	r5, r0, r0
    1378:	00000000 	andeq	r0, r0, r0
    137c:	964c0000 	strbls	r0, [ip], -r0
    1380:	96500000 	ldrbls	r0, [r0], -r0
    1384:	00020000 	andeq	r0, r2, r0
    1388:	96509f30 	uasxls	r9, r0, r0
    138c:	96540000 	ldrbls	r0, [r4], -r0
    1390:	00010000 	andeq	r0, r1, r0
    1394:	00965853 	addseq	r5, r6, r3, asr r8
    1398:	00966000 	addseq	r6, r6, r0
    139c:	53000100 	movwpl	r0, #256	; 0x100
	...
    13ac:	00000004 	andeq	r0, r0, r4
    13b0:	04500001 	ldrbeq	r0, [r0], #-1
    13b4:	0c000000 	stceq	0, cr0, [r0], {-0}
    13b8:	01000000 	mrseq	r0, (UNDEF: 0)
    13bc:	000c5300 	andeq	r5, ip, r0, lsl #6
    13c0:	00100000 	andseq	r0, r0, r0
    13c4:	00010000 	andeq	r0, r1, r0
    13c8:	00001050 	andeq	r1, r0, r0, asr r0
    13cc:	00001c00 	andeq	r1, r0, r0, lsl #24
    13d0:	53000100 	movwpl	r0, #256	; 0x100
	...
    13dc:	0000003c 	andeq	r0, r0, ip, lsr r0
    13e0:	00000047 	andeq	r0, r0, r7, asr #32
    13e4:	47500001 	ldrbmi	r0, [r0, -r1]
    13e8:	60000000 	andvs	r0, r0, r0
    13ec:	01000000 	mrseq	r0, (UNDEF: 0)
    13f0:	00005500 	andeq	r5, r0, r0, lsl #10
    13f4:	00000000 	andeq	r0, r0, r0
    13f8:	00500000 	subseq	r0, r0, r0
    13fc:	00540000 	subseq	r0, r4, r0
    1400:	00010000 	andeq	r0, r1, r0
    1404:	00000050 	andeq	r0, r0, r0, asr r0
    1408:	00000000 	andeq	r0, r0, r0
    140c:	00006000 	andeq	r6, r0, r0
    1410:	00006c00 	andeq	r6, r0, r0, lsl #24
    1414:	50000100 	andpl	r0, r0, r0, lsl #2
    1418:	0000006c 	andeq	r0, r0, ip, rrx
    141c:	00000074 	andeq	r0, r0, r4, ror r0
    1420:	01f30004 	mvnseq	r0, r4
    1424:	00009f50 	andeq	r9, r0, r0, asr pc
    1428:	00000000 	andeq	r0, r0, r0
    142c:	00740000 	rsbseq	r0, r4, r0
    1430:	00800000 	addeq	r0, r0, r0
    1434:	00010000 	andeq	r0, r1, r0
    1438:	00008050 	andeq	r8, r0, r0, asr r0
    143c:	00008800 	andeq	r8, r0, r0, lsl #16
    1440:	f3000400 	vshl.u8	d0, d0, d0
    1444:	009f5001 	addseq	r5, pc, r1
    1448:	00000000 	andeq	r0, r0, r0
    144c:	38000000 	stmdacc	r0, {}	; <UNPREDICTABLE>
    1450:	43000001 	movwmi	r0, #1
    1454:	01000001 	tsteq	r0, r1
    1458:	01435000 	mrseq	r5, (UNDEF: 67)
    145c:	01680000 	cmneq	r8, r0
    1460:	00010000 	andeq	r0, r1, r0
    1464:	00000054 	andeq	r0, r0, r4, asr r0
	...
    1470:	00000f00 	andeq	r0, r0, r0, lsl #30
    1474:	50000100 	andpl	r0, r0, r0, lsl #2
    1478:	0000000f 	andeq	r0, r0, pc
    147c:	00000020 	andeq	r0, r0, r0, lsr #32
    1480:	00540001 	subseq	r0, r4, r1
	...
    148c:	0f000000 	svceq	0x00000000
    1490:	01000000 	mrseq	r0, (UNDEF: 0)
    1494:	000f5100 	andeq	r5, pc, r0, lsl #2
    1498:	00200000 	eoreq	r0, r0, r0
    149c:	00010000 	andeq	r0, r1, r0
    14a0:	00000055 	andeq	r0, r0, r5, asr r0
    14a4:	00000000 	andeq	r0, r0, r0
    14a8:	0000ec00 	andeq	lr, r0, r0, lsl #24
    14ac:	00010400 	andeq	r0, r1, r0, lsl #8
    14b0:	50000100 	andpl	r0, r0, r0, lsl #2
    14b4:	00000104 	andeq	r0, r0, r4, lsl #2
    14b8:	00000114 	andeq	r0, r0, r4, lsl r1
    14bc:	01f30004 	mvnseq	r0, r4
    14c0:	01149f50 	tsteq	r4, r0, asr pc
    14c4:	01180000 	tsteq	r8, r0
    14c8:	00010000 	andeq	r0, r1, r0
    14cc:	00011850 	andeq	r1, r1, r0, asr r8
    14d0:	00012000 	andeq	r2, r1, r0
    14d4:	f3000400 	vshl.u8	d0, d0, d0
    14d8:	009f5001 	addseq	r5, pc, r1
    14dc:	00000000 	andeq	r0, r0, r0
    14e0:	f8000000 			; <UNDEFINED> instruction: 0xf8000000
    14e4:	04000000 	streq	r0, [r0], #-0
    14e8:	0b000001 	bleq	14f4 <_start-0x6b0c>
    14ec:	35007000 	strcc	r7, [r0, #-0]
    14f0:	80b42325 	adcshi	r2, r4, r5, lsr #6
    14f4:	9f028180 	svcls	0x00028180
    14f8:	00000104 	andeq	r0, r0, r4, lsl #2
    14fc:	00000107 	andeq	r0, r0, r7, lsl #2
    1500:	07500001 	ldrbeq	r0, [r0, -r1]
    1504:	14000001 	strne	r0, [r0], #-1
    1508:	0c000001 	stceq	0, cr0, [r0], {1}
    150c:	5001f300 	andpl	pc, r1, r0, lsl #6
    1510:	b4232535 	strtlt	r2, [r3], #-1333	; 0x535
    1514:	02818080 	addeq	r8, r1, #128	; 0x80
    1518:	0000009f 	muleq	r0, pc, r0	; <UNPREDICTABLE>
    151c:	00000000 	andeq	r0, r0, r0
    1520:	0000fc00 	andeq	pc, r0, r0, lsl #24
    1524:	00011400 	andeq	r1, r1, r0, lsl #8
    1528:	54000100 	strpl	r0, [r0], #-256	; 0x100
	...
    1534:	000000d0 	ldrdeq	r0, [r0], -r0	; <UNPREDICTABLE>
    1538:	000000df 	ldrdeq	r0, [r0], -pc	; <UNPREDICTABLE>
    153c:	df500001 	svcle	0x00500001
    1540:	e4000000 	str	r0, [r0], #-0
    1544:	04000000 	streq	r0, [r0], #-0
    1548:	5001f300 	andpl	pc, r1, r0, lsl #6
    154c:	0000e49f 	muleq	r0, pc, r4	; <UNPREDICTABLE>
    1550:	0000e700 	andeq	lr, r0, r0, lsl #14
    1554:	50000100 	andpl	r0, r0, r0, lsl #2
    1558:	000000e7 	andeq	r0, r0, r7, ror #1
    155c:	000000ec 	andeq	r0, r0, ip, ror #1
    1560:	01f30004 	mvnseq	r0, r4
    1564:	00009f50 	andeq	r9, r0, r0, asr pc
    1568:	00000000 	andeq	r0, r0, r0
    156c:	00d00000 	sbcseq	r0, r0, r0
    1570:	00df0000 	sbcseq	r0, pc, r0
    1574:	00010000 	andeq	r0, r1, r0
    1578:	0000df51 	andeq	sp, r0, r1, asr pc
    157c:	0000e400 	andeq	lr, r0, r0, lsl #8
    1580:	f3000400 	vshl.u8	d0, d0, d0
    1584:	e49f5101 	ldr	r5, [pc], #257	; 158c <_start-0x6a74>
    1588:	e7000000 	str	r0, [r0, -r0]
    158c:	01000000 	mrseq	r0, (UNDEF: 0)
    1590:	00e75100 	rsceq	r5, r7, r0, lsl #2
    1594:	00ec0000 	rsceq	r0, ip, r0
    1598:	00040000 	andeq	r0, r4, r0
    159c:	9f5101f3 	svcls	0x005101f3
	...
    15a8:	000000c0 	andeq	r0, r0, r0, asr #1
    15ac:	000000cb 	andeq	r0, r0, fp, asr #1
    15b0:	cb500001 	blgt	14015bc <__bss_end__+0x13f6bc4>
    15b4:	d0000000 	andle	r0, r0, r0
    15b8:	04000000 	streq	r0, [r0], #-0
    15bc:	5001f300 	andpl	pc, r1, r0, lsl #6
    15c0:	0000009f 	muleq	r0, pc, r0	; <UNPREDICTABLE>
    15c4:	00000000 	andeq	r0, r0, r0
    15c8:	00009c00 	andeq	r9, r0, r0, lsl #24
    15cc:	0000b400 	andeq	fp, r0, r0, lsl #8
    15d0:	50000100 	andpl	r0, r0, r0, lsl #2
    15d4:	000000b4 	strheq	r0, [r0], -r4
    15d8:	000000c0 	andeq	r0, r0, r0, asr #1
    15dc:	01f30004 	mvnseq	r0, r4
    15e0:	00009f50 	andeq	r9, r0, r0, asr pc
    15e4:	00000000 	andeq	r0, r0, r0
    15e8:	00780000 	rsbseq	r0, r8, r0
    15ec:	00900000 	addseq	r0, r0, r0
    15f0:	00010000 	andeq	r0, r1, r0
    15f4:	00009050 	andeq	r9, r0, r0, asr r0
    15f8:	00009c00 	andeq	r9, r0, r0, lsl #24
    15fc:	f3000400 	vshl.u8	d0, d0, d0
    1600:	009f5001 	addseq	r5, pc, r1
    1604:	00000000 	andeq	r0, r0, r0
    1608:	68000000 	stmdavs	r0, {}	; <UNPREDICTABLE>
    160c:	73000000 	movwvc	r0, #0
    1610:	01000000 	mrseq	r0, (UNDEF: 0)
    1614:	00735000 	rsbseq	r5, r3, r0
    1618:	00780000 	rsbseq	r0, r8, r0
    161c:	00040000 	andeq	r0, r4, r0
    1620:	9f5001f3 	svcls	0x005001f3
	...
    1630:	00000048 	andeq	r0, r0, r8, asr #32
    1634:	48500001 	ldmdami	r0, {r0}^
    1638:	68000000 	stmdavs	r0, {}	; <UNPREDICTABLE>
    163c:	04000000 	streq	r0, [r0], #-0
    1640:	5001f300 	andpl	pc, r1, r0, lsl #6
    1644:	0000009f 	muleq	r0, pc, r0	; <UNPREDICTABLE>
	...
    1650:	00004b00 	andeq	r4, r0, r0, lsl #22
    1654:	51000100 	mrspl	r0, (UNDEF: 16)
    1658:	0000004b 	andeq	r0, r0, fp, asr #32
    165c:	00000068 	andeq	r0, r0, r8, rrx
    1660:	01f30004 	mvnseq	r0, r4
    1664:	00009f51 	andeq	r9, r0, r1, asr pc
    1668:	00000000 	andeq	r0, r0, r0
    166c:	004c0000 	subeq	r0, ip, r0
    1670:	00540000 	subseq	r0, r4, r0
    1674:	00010000 	andeq	r0, r1, r0
    1678:	00005450 	andeq	r5, r0, r0, asr r4
    167c:	00005800 	andeq	r5, r0, r0, lsl #16
    1680:	75000900 	strvc	r0, [r0, #-2304]	; 0x900
    1684:	24007400 	strcs	r7, [r0], #-1024	; 0x400
    1688:	9f210071 	svcls	0x00210071
    168c:	00000058 	andeq	r0, r0, r8, asr r0
    1690:	0000005f 	andeq	r0, r0, pc, asr r0
    1694:	00510001 	subseq	r0, r1, r1
    1698:	00000000 	andeq	r0, r0, r0
    169c:	e0000000 	and	r0, r0, r0
    16a0:	1b000000 	blne	16a8 <_start-0x6958>
    16a4:	01000001 	tsteq	r0, r1
    16a8:	011b5000 	tsteq	fp, r0
    16ac:	01200000 	teqeq	r0, r0
    16b0:	00040000 	andeq	r0, r4, r0
    16b4:	9f5001f3 	svcls	0x005001f3
    16b8:	00000120 	andeq	r0, r0, r0, lsr #2
    16bc:	00000123 	andeq	r0, r0, r3, lsr #2
    16c0:	23500001 	cmpcs	r0, #1
    16c4:	3c000001 	stccc	0, cr0, [r0], {1}
    16c8:	04000001 	streq	r0, [r0], #-1
    16cc:	5001f300 	andpl	pc, r1, r0, lsl #6
    16d0:	00013c9f 	muleq	r1, pc, ip	; <UNPREDICTABLE>
    16d4:	00013f00 	andeq	r3, r1, r0, lsl #30
    16d8:	50000100 	andpl	r0, r0, r0, lsl #2
    16dc:	0000013f 	andeq	r0, r0, pc, lsr r1
    16e0:	0000016c 	andeq	r0, r0, ip, ror #2
    16e4:	01f30004 	mvnseq	r0, r4
    16e8:	00009f50 	andeq	r9, r0, r0, asr pc
    16ec:	00000000 	andeq	r0, r0, r0
    16f0:	00e00000 	rsceq	r0, r0, r0
    16f4:	01080000 	mrseq	r0, (UNDEF: 8)
    16f8:	00010000 	andeq	r0, r1, r0
    16fc:	00010851 	andeq	r0, r1, r1, asr r8
    1700:	00011b00 	andeq	r1, r1, r0, lsl #22
    1704:	71000300 	mrsvc	r0, LR_irq
    1708:	011b9f01 	tsteq	fp, r1, lsl #30
    170c:	01200000 	teqeq	r0, r0
    1710:	00040000 	andeq	r0, r4, r0
    1714:	9f5101f3 	svcls	0x005101f3
    1718:	00000120 	andeq	r0, r0, r0, lsr #2
    171c:	00000123 	andeq	r0, r0, r3, lsr #2
    1720:	23510001 	cmpcs	r1, #1
    1724:	6c000001 	stcvs	0, cr0, [r0], {1}
    1728:	04000001 	streq	r0, [r0], #-1
    172c:	5101f300 	mrspl	pc, SP_irq	; <UNPREDICTABLE>
    1730:	0000009f 	muleq	r0, pc, r0	; <UNPREDICTABLE>
    1734:	00000000 	andeq	r0, r0, r0
    1738:	0000f800 	andeq	pc, r0, r0, lsl #16
    173c:	0000fc00 	andeq	pc, r0, r0, lsl #24
    1740:	52000100 	andpl	r0, r0, #0, 2
    1744:	000000fc 	strdeq	r0, [r0], -ip
    1748:	00000104 	andeq	r0, r0, r4, lsl #2
    174c:	c8030005 	stmdagt	r3, {r0, r2}
    1750:	0400009b 	streq	r0, [r0], #-155	; 0x9b
    1754:	1b000001 	blne	1760 <_start-0x68a0>
    1758:	01000001 	tsteq	r0, r1
    175c:	013c5300 	teqeq	ip, r0, lsl #6
    1760:	013f0000 	teqeq	pc, r0
    1764:	00010000 	andeq	r0, r1, r0
    1768:	00000053 	andeq	r0, r0, r3, asr r0
    176c:	00000000 	andeq	r0, r0, r0
    1770:	00006c00 	andeq	r6, r0, r0, lsl #24
    1774:	00008000 	andeq	r8, r0, r0
    1778:	50000100 	andpl	r0, r0, r0, lsl #2
    177c:	00000080 	andeq	r0, r0, r0, lsl #1
    1780:	0000009b 	muleq	r0, fp, r0
    1784:	9b520001 	blls	1481790 <__bss_end__+0x1476d98>
    1788:	a4000000 	strge	r0, [r0], #-0
    178c:	09000000 	stmdbeq	r0, {}	; <UNPREDICTABLE>
    1790:	5001f300 	andpl	pc, r1, r0, lsl #6
    1794:	f8090723 			; <UNDEFINED> instruction: 0xf8090723
    1798:	00a49f1a 	adceq	r9, r4, sl, lsl pc
    179c:	00a70000 	adceq	r0, r7, r0
    17a0:	00010000 	andeq	r0, r1, r0
    17a4:	0000a750 	andeq	sl, r0, r0, asr r7
    17a8:	0000d000 	andeq	sp, r0, r0
    17ac:	f3000400 	vshl.u8	d0, d0, d0
    17b0:	009f5001 	addseq	r5, pc, r1
    17b4:	00000000 	andeq	r0, r0, r0
    17b8:	88000000 	stmdahi	r0, {}	; <UNPREDICTABLE>
    17bc:	a4000000 	strge	r0, [r0], #-0
    17c0:	01000000 	mrseq	r0, (UNDEF: 0)
    17c4:	00005400 	andeq	r5, r0, r0, lsl #8
    17c8:	00000000 	andeq	r0, r0, r0
    17cc:	001c0000 	andseq	r0, ip, r0
    17d0:	00430000 	subeq	r0, r3, r0
    17d4:	00010000 	andeq	r0, r1, r0
    17d8:	00004350 	andeq	r4, r0, r0, asr r3
    17dc:	00006c00 	andeq	r6, r0, r0, lsl #24
    17e0:	f3000400 	vshl.u8	d0, d0, d0
    17e4:	009f5001 	addseq	r5, pc, r1
    17e8:	00000000 	andeq	r0, r0, r0
    17ec:	1c000000 	stcne	0, cr0, [r0], {-0}
    17f0:	43000000 	movwmi	r0, #0
    17f4:	01000000 	mrseq	r0, (UNDEF: 0)
    17f8:	00435000 	subeq	r5, r3, r0
    17fc:	006c0000 	rsbeq	r0, ip, r0
    1800:	00040000 	andeq	r0, r4, r0
    1804:	9f5001f3 	svcls	0x005001f3
	...

Disassembly of section .debug_aranges:

00000000 <.debug_aranges>:
   0:	0000001c 	andeq	r0, r0, ip, lsl r0
   4:	00000002 	andeq	r0, r0, r2
   8:	00040000 	andeq	r0, r4, r0
   c:	00000000 	andeq	r0, r0, r0
  10:	00008010 	andeq	r8, r0, r0, lsl r0
  14:	000000c4 	andeq	r0, r0, r4, asr #1
	...
  20:	0000001c 	andeq	r0, r0, ip, lsl r0
  24:	02de0002 	sbcseq	r0, lr, #2
  28:	00040000 	andeq	r0, r4, r0
  2c:	00000000 	andeq	r0, r0, r0
  30:	000080d4 	ldrdeq	r8, [r0], -r4
  34:	0000078c 	andeq	r0, r0, ip, lsl #15
	...
  40:	0000001c 	andeq	r0, r0, ip, lsl r0
  44:	11690002 	cmnne	r9, r2
  48:	00040000 	andeq	r0, r4, r0
  4c:	00000000 	andeq	r0, r0, r0
  50:	00008860 	andeq	r8, r0, r0, ror #16
  54:	0000068c 	andeq	r0, r0, ip, lsl #13
	...
  60:	0000001c 	andeq	r0, r0, ip, lsl r0
  64:	1eda0002 	cdpne	0, 13, cr0, cr10, cr2, {0}
  68:	00040000 	andeq	r0, r4, r0
  6c:	00000000 	andeq	r0, r0, r0
  70:	00008ef4 	strdeq	r8, [r0], -r4
  74:	000000f0 	strdeq	r0, [r0], -r0	; <UNPREDICTABLE>
	...
  80:	0000001c 	andeq	r0, r0, ip, lsl r0
  84:	1ff00002 	svcne	0x00f00002
  88:	00040000 	andeq	r0, r4, r0
  8c:	00000000 	andeq	r0, r0, r0
  90:	00008fe4 	andeq	r8, r0, r4, ror #31
  94:	00000020 	andeq	r0, r0, r0, lsr #32
	...
  a0:	0000001c 	andeq	r0, r0, ip, lsl r0
  a4:	20cf0002 	sbccs	r0, pc, r2
  a8:	00040000 	andeq	r0, r4, r0
  ac:	00000000 	andeq	r0, r0, r0
  b0:	00009004 	andeq	r9, r0, r4
  b4:	00000058 	andeq	r0, r0, r8, asr r0
	...
  c0:	0000001c 	andeq	r0, r0, ip, lsl r0
  c4:	22640002 	rsbcs	r0, r4, #2
  c8:	00040000 	andeq	r0, r4, r0
  cc:	00000000 	andeq	r0, r0, r0
  d0:	0000905c 	andeq	r9, r0, ip, asr r0
  d4:	0000003c 	andeq	r0, r0, ip, lsr r0
	...
  e0:	0000001c 	andeq	r0, r0, ip, lsl r0
  e4:	237b0002 	cmncs	fp, #2
  e8:	00040000 	andeq	r0, r4, r0
  ec:	00000000 	andeq	r0, r0, r0
  f0:	00009098 	muleq	r0, r8, r0
  f4:	00000034 	andeq	r0, r0, r4, lsr r0
	...
 100:	0000001c 	andeq	r0, r0, ip, lsl r0
 104:	246d0002 	strbtcs	r0, [sp], #-2
 108:	00040000 	andeq	r0, r4, r0
 10c:	00000000 	andeq	r0, r0, r0
 110:	000090cc 	andeq	r9, r0, ip, asr #1
 114:	0000050c 	andeq	r0, r0, ip, lsl #10
	...
 120:	0000001c 	andeq	r0, r0, ip, lsl r0
 124:	2af20002 	bcs	ffc80134 <__bss_end__+0xffc7573c>
 128:	00040000 	andeq	r0, r4, r0
 12c:	00000000 	andeq	r0, r0, r0
 130:	000095d8 	ldrdeq	r9, [r0], -r8
 134:	00000028 	andeq	r0, r0, r8, lsr #32
	...
 140:	0000001c 	andeq	r0, r0, ip, lsl r0
 144:	2bf50002 	blcs	ffd40154 <__bss_end__+0xffd3575c>
 148:	00040000 	andeq	r0, r4, r0
 14c:	00000000 	andeq	r0, r0, r0
 150:	00009600 	andeq	r9, r0, r0, lsl #12
 154:	00000034 	andeq	r0, r0, r4, lsr r0
	...
 160:	0000001c 	andeq	r0, r0, ip, lsl r0
 164:	2cf80002 	ldclcs	0, cr0, [r8], #8
 168:	00040000 	andeq	r0, r4, r0
 16c:	00000000 	andeq	r0, r0, r0
 170:	00009634 	andeq	r9, r0, r4, lsr r6
 174:	00000074 	andeq	r0, r0, r4, ror r0
	...
 180:	0000001c 	andeq	r0, r0, ip, lsl r0
 184:	2ea90002 	cdpcs	0, 10, cr0, cr9, cr2, {0}
 188:	00040000 	andeq	r0, r4, r0
 18c:	00000000 	andeq	r0, r0, r0
 190:	000096a8 	andeq	r9, r0, r8, lsr #13
 194:	00000088 	andeq	r0, r0, r8, lsl #1
	...
 1a0:	0000001c 	andeq	r0, r0, ip, lsl r0
 1a4:	30850002 	addcc	r0, r5, r2
 1a8:	00040000 	andeq	r0, r4, r0
 1ac:	00000000 	andeq	r0, r0, r0
 1b0:	0000977c 	andeq	r9, r0, ip, ror r7
 1b4:	00000178 	andeq	r0, r0, r8, ror r1
	...
 1c0:	0000001c 	andeq	r0, r0, ip, lsl r0
 1c4:	3d4e0002 	stclcc	0, cr0, [lr, #-8]
 1c8:	00040000 	andeq	r0, r4, r0
 1cc:	00000000 	andeq	r0, r0, r0
 1d0:	000098f4 	strdeq	r9, [r0], -r4
 1d4:	00000120 	andeq	r0, r0, r0, lsr #2
	...
 1e0:	0000001c 	andeq	r0, r0, ip, lsl r0
 1e4:	48c20002 	stmiami	r2, {r1}^
 1e8:	00040000 	andeq	r0, r4, r0
 1ec:	00000000 	andeq	r0, r0, r0
 1f0:	00009a14 	andeq	r9, r0, r4, lsl sl
 1f4:	00000194 	muleq	r0, r4, r1
	...

Disassembly of section .debug_line:

00000000 <.debug_line>:
       0:	0000016c 	andeq	r0, r0, ip, ror #2
       4:	014c0002 	cmpeq	ip, r2
       8:	01020000 	mrseq	r0, (UNDEF: 2)
       c:	000d0efb 	strdeq	r0, [sp], -fp
      10:	01010101 	tsteq	r1, r1, lsl #2
      14:	01000000 	mrseq	r0, (UNDEF: 0)
      18:	74010000 	strvc	r0, [r1], #-0
      1c:	73747365 	cmnvc	r4, #-1811939327	; 0x94000001
      20:	73752f00 	cmnvc	r5, #0, 30
      24:	6f6c2f72 	svcvs	0x006c2f72
      28:	2f6c6163 	svccs	0x006c6163
      2c:	6c6c6543 	cfstr64vs	mvdx6, [ip], #-268	; 0xfffffef4
      30:	612f7261 	teqvs	pc, r1, ror #4
      34:	6e2d6d72 	mcrvs	13, 1, r6, cr13, cr2, {3}
      38:	2d656e6f 	stclcs	14, cr6, [r5, #-444]!	; 0xfffffe44
      3c:	69626165 	stmdbvs	r2!, {r0, r2, r5, r6, r8, sp, lr}^
      40:	382e342f 	stmdacc	lr!, {r0, r1, r2, r3, r5, sl, ip, sp}
      44:	632d332e 	teqvs	sp, #-1207959552	; 0xb8000000
      48:	30373173 	eorscc	r3, r7, r3, ror r1
      4c:	696c2f65 	stmdbvs	ip!, {r0, r2, r5, r6, r8, r9, sl, fp, sp}^
      50:	63672f62 	cmnvs	r7, #392	; 0x188
      54:	72612f63 	rsbvc	r2, r1, #396	; 0x18c
      58:	6f6e2d6d 	svcvs	0x006e2d6d
      5c:	652d656e 	strvs	r6, [sp, #-1390]!	; 0x56e
      60:	2f696261 	svccs	0x00696261
      64:	2e382e34 	mrccs	14, 1, r2, cr8, cr4, {1}
      68:	6e692f33 	mcrvs	15, 3, r2, cr9, cr3, {1}
      6c:	64756c63 	ldrbtvs	r6, [r5], #-3171	; 0xc63
      70:	552f0065 	strpl	r0, [pc, #-101]!	; 13 <_start-0x7fed>
      74:	73726573 	cmnvc	r2, #482344960	; 0x1cc00000
      78:	6972622f 	ldmdbvs	r2!, {r0, r1, r2, r3, r5, r9, sp, lr}^
      7c:	756a6e61 	strbvc	r6, [sl, #-3681]!	; 0xe61
      80:	65442f6e 	strbvs	r2, [r4, #-3950]	; 0xf6e
      84:	6f746b73 	svcvs	0x00746b73
      88:	63732f70 	cmnvs	r3, #112, 30	; 0x1c0
      8c:	6c6f6f68 	stclvs	15, cr6, [pc], #-416	; fffffef4 <__bss_end__+0xffff54fc>
      90:	7270532f 	rsbsvc	r5, r0, #-1140850688	; 0xbc000000
      94:	31676e69 	cmncc	r7, r9, ror #28
      98:	2f303239 	svccs	0x00303239
      9c:	34325343 	ldrtcc	r5, [r2], #-835	; 0x343
      a0:	2f584c30 	svccs	0x00584c30
      a4:	34327363 	ldrtcc	r7, [r2], #-867	; 0x363
      a8:	2d786c30 	ldclcs	12, cr6, [r8, #-192]!	; 0xffffff40
      ac:	70733032 	rsbsvc	r3, r3, r2, lsr r0
      b0:	696c2f72 	stmdbvs	ip!, {r1, r4, r5, r6, r8, r9, sl, fp, sp}^
      b4:	2f697062 	svccs	0x00697062
      b8:	6c636e69 	stclvs	14, cr6, [r3], #-420	; 0xfffffe5c
      bc:	00656475 	rsbeq	r6, r5, r5, ror r4
      c0:	752f002e 	strvc	r0, [pc, #-46]!	; 9a <_start-0x7f66>
      c4:	6c2f7273 	sfmvs	f7, 4, [pc], #-460	; ffffff00 <__bss_end__+0xffff5508>
      c8:	6c61636f 	stclvs	3, cr6, [r1], #-444	; 0xfffffe44
      cc:	6c65432f 	stclvs	3, cr4, [r5], #-188	; 0xffffff44
      d0:	2f72616c 	svccs	0x0072616c
      d4:	2d6d7261 	sfmcs	f7, 2, [sp, #-388]!	; 0xfffffe7c
      d8:	656e6f6e 	strbvs	r6, [lr, #-3950]!	; 0xf6e
      dc:	6261652d 	rsbvs	r6, r1, #188743680	; 0xb400000
      e0:	2e342f69 	cdpcs	15, 3, cr2, cr4, cr9, {3}
      e4:	2d332e38 	ldccs	14, cr2, [r3, #-224]!	; 0xffffff20
      e8:	37317363 	ldrcc	r7, [r1, -r3, ror #6]!
      ec:	612f6530 	teqvs	pc, r0, lsr r5	; <UNPREDICTABLE>
      f0:	6e2d6d72 	mcrvs	13, 1, r6, cr13, cr2, {3}
      f4:	2d656e6f 	stclcs	14, cr6, [r5, #-444]!	; 0xfffffe44
      f8:	69626165 	stmdbvs	r2!, {r0, r2, r5, r6, r8, sp, lr}^
      fc:	636e692f 	cmnvs	lr, #770048	; 0xbc000
     100:	6564756c 	strbvs	r7, [r4, #-1388]!	; 0x56c
     104:	61700000 	cmnvs	r0, r0
     108:	2d327472 	cfldrscs	mvf7, [r2, #-456]!	; 0xfffffe38
     10c:	74736574 	ldrbtvc	r6, [r3], #-1396	; 0x574
     110:	00632e32 	rsbeq	r2, r3, r2, lsr lr
     114:	73000001 	movwvc	r0, #1
     118:	65646474 	strbvs	r6, [r4, #-1140]!	; 0x474
     11c:	00682e66 	rsbeq	r2, r8, r6, ror #28
     120:	73000002 	movwvc	r0, #2
     124:	6e696474 	mcrvs	4, 3, r6, cr9, cr4, {3}
     128:	63672d74 	cmnvs	r7, #116, 26	; 0x1d00
     12c:	00682e63 	rsbeq	r2, r8, r3, ror #28
     130:	72000002 	andvc	r0, r0, #2
     134:	682e6970 	stmdavs	lr!, {r4, r5, r6, r8, fp, sp, lr}
     138:	00000300 	andeq	r0, r0, r0, lsl #6
     13c:	6c616b63 	stclvs	11, cr6, [r1], #-396	; 0xfffffe74
     140:	2e636f6c 	cdpcs	15, 6, cr6, cr3, cr12, {3}
     144:	00040068 	andeq	r0, r4, r8, rrx
     148:	72747300 	rsbsvc	r7, r4, #0, 6
     14c:	2e676e69 	cdpcs	14, 6, cr6, cr7, cr9, {3}
     150:	00050068 	andeq	r0, r5, r8, rrx
     154:	05000000 	streq	r0, [r0, #-0]
     158:	00801002 	addeq	r1, r0, r2
     15c:	01150300 	tsteq	r5, r0, lsl #6
     160:	68f3bb31 	ldmvs	r3!, {r0, r4, r5, r8, r9, fp, ip, sp, pc}^
     164:	2ff532bc 	svccs	0x00f532bc
     168:	02854c4d 	addeq	r4, r5, #19712	; 0x4d00
     16c:	0101000e 	tsteq	r1, lr
     170:	000002b1 			; <UNDEFINED> instruction: 0x000002b1
     174:	01a40002 			; <UNDEFINED> instruction: 0x01a40002
     178:	01020000 	mrseq	r0, (UNDEF: 2)
     17c:	000d0efb 	strdeq	r0, [sp], -fp
     180:	01010101 	tsteq	r1, r1, lsl #2
     184:	01000000 	mrseq	r0, (UNDEF: 0)
     188:	2f010000 	svccs	0x00010000
     18c:	2f727375 	svccs	0x00727375
     190:	61636f6c 	cmnvs	r3, ip, ror #30
     194:	65432f6c 	strbvs	r2, [r3, #-3948]	; 0xf6c
     198:	72616c6c 	rsbvc	r6, r1, #108, 24	; 0x6c00
     19c:	6d72612f 	ldfvse	f6, [r2, #-188]!	; 0xffffff44
     1a0:	6e6f6e2d 	cdpvs	14, 6, cr6, cr15, cr13, {1}
     1a4:	61652d65 	cmnvs	r5, r5, ror #26
     1a8:	342f6962 	strtcc	r6, [pc], #-2402	; 1b0 <_start-0x7e50>
     1ac:	332e382e 	teqcc	lr, #3014656	; 0x2e0000
     1b0:	3173632d 	cmncc	r3, sp, lsr #6
     1b4:	2f653037 	svccs	0x00653037
     1b8:	2f62696c 	svccs	0x0062696c
     1bc:	2f636367 	svccs	0x00636367
     1c0:	2d6d7261 	sfmcs	f7, 2, [sp, #-388]!	; 0xfffffe7c
     1c4:	656e6f6e 	strbvs	r6, [lr, #-3950]!	; 0xf6e
     1c8:	6261652d 	rsbvs	r6, r1, #188743680	; 0xb400000
     1cc:	2e342f69 	cdpcs	15, 3, cr2, cr4, cr9, {3}
     1d0:	2f332e38 	svccs	0x00332e38
     1d4:	6c636e69 	stclvs	14, cr6, [r3], #-420	; 0xfffffe5c
     1d8:	00656475 	rsbeq	r6, r5, r5, ror r4
     1dc:	6573552f 	ldrbvs	r5, [r3, #-1327]!	; 0x52f
     1e0:	622f7372 	eorvs	r7, pc, #-939524095	; 0xc8000001
     1e4:	6e616972 	mcrvs	9, 3, r6, cr1, cr2, {3}
     1e8:	2f6e756a 	svccs	0x006e756a
     1ec:	6b736544 	blvs	1cd9704 <__bss_end__+0x1cced0c>
     1f0:	2f706f74 	svccs	0x00706f74
     1f4:	6f686373 	svcvs	0x00686373
     1f8:	532f6c6f 	teqpl	pc, #28416	; 0x6f00
     1fc:	6e697270 	mcrvs	2, 3, r7, cr9, cr0, {3}
     200:	32393167 	eorscc	r3, r9, #-1073741799	; 0xc0000019
     204:	53432f30 	movtpl	r2, #16176	; 0x3f30
     208:	4c303432 	cfldrsmi	mvf3, [r0], #-200	; 0xffffff38
     20c:	73632f58 	cmnvc	r3, #88, 30	; 0x160
     210:	6c303432 	cfldrsvs	mvf3, [r0], #-200	; 0xffffff38
     214:	30322d78 	eorscc	r2, r2, r8, ror sp
     218:	2f727073 	svccs	0x00727073
     21c:	7062696c 	rsbvc	r6, r2, ip, ror #18
     220:	6e692f69 	cdpvs	15, 6, cr2, cr9, cr9, {3}
     224:	64756c63 	ldrbtvs	r6, [r5], #-3171	; 0xc63
     228:	752f0065 	strvc	r0, [pc, #-101]!	; 1cb <_start-0x7e35>
     22c:	6c2f7273 	sfmvs	f7, 4, [pc], #-460	; 68 <_start-0x7f98>
     230:	6c61636f 	stclvs	3, cr6, [r1], #-444	; 0xfffffe44
     234:	6c65432f 	stclvs	3, cr4, [r5], #-188	; 0xffffff44
     238:	2f72616c 	svccs	0x0072616c
     23c:	2d6d7261 	sfmcs	f7, 2, [sp, #-388]!	; 0xfffffe7c
     240:	656e6f6e 	strbvs	r6, [lr, #-3950]!	; 0xf6e
     244:	6261652d 	rsbvs	r6, r1, #188743680	; 0xb400000
     248:	2e342f69 	cdpcs	15, 3, cr2, cr4, cr9, {3}
     24c:	2d332e38 	ldccs	14, cr2, [r3, #-224]!	; 0xffffff20
     250:	37317363 	ldrcc	r7, [r1, -r3, ror #6]!
     254:	612f6530 	teqvs	pc, r0, lsr r5	; <UNPREDICTABLE>
     258:	6e2d6d72 	mcrvs	13, 1, r6, cr13, cr2, {3}
     25c:	2d656e6f 	stclcs	14, cr6, [r5, #-444]!	; 0xfffffe44
     260:	69626165 	stmdbvs	r2!, {r0, r2, r5, r6, r8, sp, lr}^
     264:	636e692f 	cmnvs	lr, #770048	; 0xbc000
     268:	6564756c 	strbvs	r7, [r4, #-1388]!	; 0x56c
     26c:	73552f00 	cmpvc	r5, #0, 30
     270:	2f737265 	svccs	0x00737265
     274:	61697262 	cmnvs	r9, r2, ror #4
     278:	6e756a6e 	vsubvs.f32	s13, s10, s29
     27c:	7365442f 	cmnvc	r5, #788529152	; 0x2f000000
     280:	706f746b 	rsbvc	r7, pc, fp, ror #8
     284:	6863732f 	stmdavs	r3!, {r0, r1, r2, r3, r5, r8, r9, ip, sp, lr}^
     288:	2f6c6f6f 	svccs	0x006c6f6f
     28c:	69727053 	ldmdbvs	r2!, {r0, r1, r4, r6, ip, sp, lr}^
     290:	3931676e 	ldmdbcc	r1!, {r1, r2, r3, r5, r6, r8, r9, sl, sp, lr}
     294:	432f3032 	teqmi	pc, #50	; 0x32
     298:	30343253 	eorscc	r3, r4, r3, asr r2
     29c:	632f584c 	teqvs	pc, #76, 16	; 0x4c0000
     2a0:	30343273 	eorscc	r3, r4, r3, ror r2
     2a4:	322d786c 	eorcc	r7, sp, #108, 16	; 0x6c0000
     2a8:	72707330 	rsbsvc	r7, r0, #48, 6	; 0xc0000000
     2ac:	62696c2f 	rsbvs	r6, r9, #12032	; 0x2f00
     2b0:	6c2f6970 	stcvs	9, cr6, [pc], #-448	; f8 <_start-0x7f08>
     2b4:	00636269 	rsbeq	r6, r3, r9, ror #4
     2b8:	616b6300 	cmnvs	fp, r0, lsl #6
     2bc:	636f6c6c 	cmnvs	pc, #108, 24	; 0x6c00
     2c0:	0000632e 	andeq	r6, r0, lr, lsr #6
     2c4:	6b630000 	blvs	18c02cc <__bss_end__+0x18b58d4>
     2c8:	6f6c6c61 	svcvs	0x006c6c61
     2cc:	6e692d63 	cdpvs	13, 6, cr2, cr9, cr3, {3}
     2d0:	6e726574 	mrcvs	5, 3, r6, cr2, cr4, {3}
     2d4:	682e6c61 	stmdavs	lr!, {r0, r5, r6, sl, fp, sp, lr}
     2d8:	00000000 	andeq	r0, r0, r0
     2dc:	64647473 	strbtvs	r7, [r4], #-1139	; 0x473
     2e0:	682e6665 	stmdavs	lr!, {r0, r2, r5, r6, r9, sl, sp, lr}
     2e4:	00000100 	andeq	r0, r0, r0, lsl #2
     2e8:	69647473 	stmdbvs	r4!, {r0, r1, r4, r5, r6, sl, ip, sp, lr}^
     2ec:	672d746e 	strvs	r7, [sp, -lr, ror #8]!
     2f0:	682e6363 	stmdavs	lr!, {r0, r1, r5, r6, r8, r9, sp, lr}
     2f4:	00000100 	andeq	r0, r0, r0, lsl #2
     2f8:	2e697072 	mcrcs	0, 3, r7, cr9, cr2, {3}
     2fc:	00020068 	andeq	r0, r2, r8, rrx
     300:	72747300 	rsbsvc	r7, r4, #0, 6
     304:	2e676e69 	cdpcs	14, 6, cr6, cr7, cr9, {3}
     308:	00030068 	andeq	r0, r3, r8, rrx
     30c:	62696c00 	rsbvs	r6, r9, #0, 24
     310:	78652d63 	stmdavc	r5!, {r0, r1, r5, r6, r8, sl, fp, sp}^
     314:	2e617274 	mcrcs	2, 3, r7, cr1, cr4, {3}
     318:	00040068 	andeq	r0, r4, r8, rrx
     31c:	05000000 	streq	r0, [r0, #-0]
     320:	0080d402 	addeq	sp, r0, r2, lsl #8
     324:	01350300 	teqeq	r5, r0, lsl #6
     328:	04674b68 	strbteq	r4, [r7], #-2920	; 0xb68
     32c:	00ca0302 	sbceq	r0, sl, r2, lsl #6
     330:	67a02008 	strvs	r2, [r0, r8]!
     334:	0104bbd9 	ldrdeq	fp, [r4, -r9]
     338:	d67fb003 	ldrbtle	fp, [pc], -r3
     33c:	04020047 	streq	r0, [r2], #-71	; 0x47
     340:	062e0601 	strteq	r0, [lr], -r1, lsl #12
     344:	d76a4750 			; <UNDEFINED> instruction: 0xd76a4750
     348:	6658034b 	ldrbvs	r0, [r8], -fp, asr #6
     34c:	2f2f2f4b 	svccs	0x002f2f4b
     350:	2f2f4b2f 	svccs	0x002f4b2f
     354:	2f2f4b2f 	svccs	0x002f4b2f
     358:	4b31302f 	blmi	c4c41c <__bss_end__+0xc41a24>
     35c:	4f478385 	svcmi	0x00478385
     360:	2e17032f 	cdpcs	3, 1, cr0, cr7, cr15, {1}
     364:	0449304c 	strbeq	r3, [r9], #-76	; 0x4c
     368:	d60e0302 	strle	r0, [lr], -r2, lsl #6
     36c:	0301044c 	movweq	r0, #5196	; 0x144c
     370:	97082e71 	smlsdxls	r8, r1, lr, r2
     374:	2e7fb703 	cdpcs	7, 7, cr11, cr15, cr3, {0}
     378:	04020067 	streq	r0, [r2], #-103	; 0x67
     37c:	064a0601 	strbeq	r0, [sl], -r1, lsl #12
     380:	4b6783d7 	blmi	19e12e4 <__bss_end__+0x19d68ec>
     384:	034b2f2f 	movteq	r2, #48943	; 0xbf2f
     388:	a1d600c8 	bicsge	r0, r6, r8, asr #1
     38c:	01040200 	mrseq	r0, R12_usr
     390:	d7068206 	strle	r8, [r6, -r6, lsl #4]
     394:	004c31a0 	subeq	r3, ip, r0, lsr #3
     398:	06010402 	streq	r0, [r1], -r2, lsl #8
     39c:	4bd90666 	blmi	ff641d3c <__bss_end__+0xff637344>
     3a0:	039fa069 	orrseq	sl, pc, #105	; 0x69
     3a4:	be58080e 	cdplt	8, 5, cr0, cr8, cr14, {0}
     3a8:	01040200 	mrseq	r0, R12_usr
     3ac:	d7068206 	strle	r8, [r6, -r6, lsl #4]
     3b0:	4b314ba0 	blmi	c53238 <__bss_end__+0xc48840>
     3b4:	02bb9208 	adcseq	r9, fp, #8, 4	; 0x80000000
     3b8:	2f4b172a 	svccs	0x004b172a
     3bc:	4b4b2f67 	blmi	12cc160 <__bss_end__+0x12c1768>
     3c0:	04696967 	strbteq	r6, [r9], #-2407	; 0x967
     3c4:	7fbb0302 	svcvc	0x00bb0302
     3c8:	0104302e 	tsteq	r4, lr, lsr #32
     3cc:	2e00c603 	cfmadd32cs	mvax0, mvfx12, mvfx0, mvfx3
     3d0:	04020068 	streq	r0, [r2], #-104	; 0x68
     3d4:	06820601 	streq	r0, [r2], r1, lsl #12
     3d8:	040200d7 	streq	r0, [r2], #-215	; 0xd7
     3dc:	06820601 	streq	r0, [r2], r1, lsl #12
     3e0:	2202d8d8 	andcs	sp, r2, #216, 16	; 0xd80000
     3e4:	a0674b15 	rsbge	r4, r7, r5, lsl fp
     3e8:	832f332f 	teqhi	pc, #-1140850688	; 0xbc000000
     3ec:	2d2bc04c 	stccs	0, cr12, [fp, #-304]!	; 0xfffffed0
     3f0:	03333633 	teqeq	r3, #53477376	; 0x3300000
     3f4:	2f304a73 	svccs	0x00304a73
     3f8:	834c4b83 	movthi	r4, #52099	; 0xcb83
     3fc:	8383314b 	orrhi	r3, r3, #-1073741806	; 0xc0000012
     400:	04020031 	streq	r0, [r2], #-49	; 0x31
     404:	9e6f0301 	cdpls	3, 6, cr0, cr15, cr1, {0}
     408:	4b661503 	blmi	198581c <__bss_end__+0x197ae24>
     40c:	082f9fd8 	stmdaeq	pc!, {r3, r4, r6, r7, r8, r9, sl, fp, ip, pc}	; <UNPREDICTABLE>
     410:	4c4b2f25 	mcrrmi	15, 2, r2, fp, cr5
     414:	2f673069 	svccs	0x00673069
     418:	454d852f 	strbmi	r8, [sp, #-1327]	; 0x52f
     41c:	672f4c34 			; <UNDEFINED> instruction: 0x672f4c34
     420:	01000602 	tsteq	r0, r2, lsl #12
     424:	00021b01 	andeq	r1, r2, r1, lsl #22
     428:	f9000200 			; <UNDEFINED> instruction: 0xf9000200
     42c:	02000000 	andeq	r0, r0, #0
     430:	0d0efb01 	vstreq	d15, [lr, #-4]
     434:	01010100 	mrseq	r0, (UNDEF: 17)
     438:	00000001 	andeq	r0, r0, r1
     43c:	01000001 	tsteq	r0, r1
     440:	7273752f 	rsbsvc	r7, r3, #197132288	; 0xbc00000
     444:	636f6c2f 	cmnvs	pc, #12032	; 0x2f00
     448:	432f6c61 	teqmi	pc, #24832	; 0x6100
     44c:	616c6c65 	cmnvs	ip, r5, ror #24
     450:	72612f72 	rsbvc	r2, r1, #456	; 0x1c8
     454:	6f6e2d6d 	svcvs	0x006e2d6d
     458:	652d656e 	strvs	r6, [sp, #-1390]!	; 0x56e
     45c:	2f696261 	svccs	0x00696261
     460:	2e382e34 	mrccs	14, 1, r2, cr8, cr4, {1}
     464:	73632d33 	cmnvc	r3, #3264	; 0xcc0
     468:	65303731 	ldrvs	r3, [r0, #-1841]!	; 0x731
     46c:	62696c2f 	rsbvs	r6, r9, #12032	; 0x2f00
     470:	6363672f 	cmnvs	r3, #12320768	; 0xbc0000
     474:	6d72612f 	ldfvse	f6, [r2, #-188]!	; 0xffffff44
     478:	6e6f6e2d 	cdpvs	14, 6, cr6, cr15, cr13, {1}
     47c:	61652d65 	cmnvs	r5, r5, ror #26
     480:	342f6962 	strtcc	r6, [pc], #-2402	; 488 <_start-0x7b78>
     484:	332e382e 	teqcc	lr, #3014656	; 0x2e0000
     488:	636e692f 	cmnvs	lr, #770048	; 0xbc000
     48c:	6564756c 	strbvs	r7, [r4, #-1388]!	; 0x56c
     490:	73552f00 	cmpvc	r5, #0, 30
     494:	2f737265 	svccs	0x00737265
     498:	61697262 	cmnvs	r9, r2, ror #4
     49c:	6e756a6e 	vsubvs.f32	s13, s10, s29
     4a0:	7365442f 	cmnvc	r5, #788529152	; 0x2f000000
     4a4:	706f746b 	rsbvc	r7, pc, fp, ror #8
     4a8:	6863732f 	stmdavs	r3!, {r0, r1, r2, r3, r5, r8, r9, ip, sp, lr}^
     4ac:	2f6c6f6f 	svccs	0x006c6f6f
     4b0:	69727053 	ldmdbvs	r2!, {r0, r1, r4, r6, ip, sp, lr}^
     4b4:	3931676e 	ldmdbcc	r1!, {r1, r2, r3, r5, r6, r8, r9, sl, sp, lr}
     4b8:	432f3032 	teqmi	pc, #50	; 0x32
     4bc:	30343253 	eorscc	r3, r4, r3, asr r2
     4c0:	632f584c 	teqvs	pc, #76, 16	; 0x4c0000
     4c4:	30343273 	eorscc	r3, r4, r3, ror r2
     4c8:	322d786c 	eorcc	r7, sp, #108, 16	; 0x6c0000
     4cc:	72707330 	rsbsvc	r7, r0, #48, 6	; 0xc0000000
     4d0:	62696c2f 	rsbvs	r6, r9, #12032	; 0x2f00
     4d4:	692f6970 	stmdbvs	pc!, {r4, r5, r6, r8, fp, sp, lr}	; <UNPREDICTABLE>
     4d8:	756c636e 	strbvc	r6, [ip, #-878]!	; 0x36e
     4dc:	00006564 	andeq	r6, r0, r4, ror #10
     4e0:	672d6b63 	strvs	r6, [sp, -r3, ror #22]!
     4e4:	00632e63 	rsbeq	r2, r3, r3, ror #28
     4e8:	73000000 	movwvc	r0, #0
     4ec:	6e696474 	mcrvs	4, 3, r6, cr9, cr4, {3}
     4f0:	63672d74 	cmnvs	r7, #116, 26	; 0x1d00
     4f4:	00682e63 	rsbeq	r2, r8, r3, ror #28
     4f8:	63000001 	movwvs	r0, #1
     4fc:	6c6c616b 	stfvse	f6, [ip], #-428	; 0xfffffe54
     500:	692d636f 	pushvs	{r0, r1, r2, r3, r5, r6, r8, r9, sp, lr}
     504:	7265746e 	rsbvc	r7, r5, #1845493760	; 0x6e000000
     508:	2e6c616e 	powcsez	f6, f4, #0.5
     50c:	00000068 	andeq	r0, r0, r8, rrx
     510:	69707200 	ldmdbvs	r0!, {r9, ip, sp, lr}^
     514:	0200682e 	andeq	r6, r0, #3014656	; 0x2e0000
     518:	6b630000 	blvs	18c0520 <__bss_end__+0x18b5b28>
     51c:	6f6c6c61 	svcvs	0x006c6c61
     520:	00682e63 	rsbeq	r2, r8, r3, ror #28
     524:	00000000 	andeq	r0, r0, r0
     528:	60020500 	andvs	r0, r2, r0, lsl #10
     52c:	03000088 	movweq	r0, #136	; 0x88
     530:	0013011b 	andseq	r0, r3, fp, lsl r1
     534:	06010402 	streq	r0, [r1], -r2, lsl #8
     538:	9f068282 	svcls	0x00068282
     53c:	4d4a1503 	cfstr64mi	mvdx1, [sl, #-12]
     540:	67302f69 	ldrvs	r2, [r0, -r9, ror #30]!
     544:	494b3168 	stmdbmi	fp, {r3, r5, r6, r8, ip, sp}^
     548:	0030684c 	eorseq	r6, r0, ip, asr #16
     54c:	03010402 	movweq	r0, #5122	; 0x1402
     550:	03632e72 	cmneq	r3, #1824	; 0x720
     554:	31032e16 	tstcc	r3, r6, lsl lr
     558:	4c4b4c2e 	mcrrmi	12, 2, r4, fp, cr14
     55c:	660b0346 	strvs	r0, [fp], -r6, asr #6
     560:	2f2b2930 	svccs	0x002b2930
     564:	4c9f6767 	ldcmi	7, cr6, [pc], {103}	; 0x67
     568:	0402002f 	streq	r0, [r2], #-47	; 0x2f
     56c:	064a0601 	strbeq	r0, [sl], -r1, lsl #12
     570:	2f32a067 	svccs	0x0032a067
     574:	01040200 	mrseq	r0, R12_usr
     578:	03667103 	cmneq	r6, #-1073741824	; 0xc0000000
     57c:	4b9f4a12 	blmi	fe7d2dcc <__bss_end__+0xfe7c83d4>
     580:	034cbca0 	movteq	fp, #52384	; 0xcca0
     584:	58087fbc 	stmdapl	r8, {r2, r3, r4, r5, r7, r8, r9, sl, fp, ip, sp, lr}
     588:	04020067 	streq	r0, [r2], #-103	; 0x67
     58c:	064a0601 	strbeq	r0, [sl], -r1, lsl #12
     590:	040200d8 	streq	r0, [r2], #-216	; 0xd8
     594:	064a0601 	strbeq	r0, [sl], -r1, lsl #12
     598:	040200d7 	streq	r0, [r2], #-215	; 0xd7
     59c:	064a0601 	strbeq	r0, [sl], -r1, lsl #12
     5a0:	696884dc 	stmdbvs	r8!, {r2, r3, r4, r6, r7, sl, pc}^
     5a4:	85316968 	ldrhi	r6, [r1, #-2408]!	; 0x968
     5a8:	01040200 	mrseq	r0, R12_usr
     5ac:	004a7a03 	subeq	r7, sl, r3, lsl #20
     5b0:	03010402 	movweq	r0, #5122	; 0x1402
     5b4:	15032e73 	strne	r2, [r3, #-3699]	; 0xe73
     5b8:	00d2034a 	sbcseq	r0, r2, sl, asr #6
     5bc:	2d2f4dba 	stccs	13, cr4, [pc, #-744]!	; 2dc <_start-0x7d24>
     5c0:	02040200 	andeq	r0, r4, #0, 4
     5c4:	0402002f 	streq	r0, [r2], #-47	; 0x2f
     5c8:	02006502 	andeq	r6, r0, #8388608	; 0x800000
     5cc:	2e060104 	adfcss	f0, f6, f4
     5d0:	03675006 	cmneq	r7, #6
     5d4:	0067660a 	rsbeq	r6, r7, sl, lsl #12
     5d8:	06010402 	streq	r0, [r1], -r2, lsl #8
     5dc:	04020066 	streq	r0, [r2], #-102	; 0x66
     5e0:	00d90602 	sbcseq	r0, r9, r2, lsl #12
     5e4:	65020402 	strvs	r0, [r2, #-1026]	; 0x402
     5e8:	04020067 	streq	r0, [r2], #-103	; 0x67
     5ec:	6c502d01 	mrrcvs	13, 0, r2, r0, cr1
     5f0:	0367696a 	cmneq	r7, #1736704	; 0x1a8000
     5f4:	4c3c0838 	ldcmi	8, cr0, [ip], #-224	; 0xffffff20
     5f8:	03464c4b 	movteq	r4, #27723	; 0x6c4b
     5fc:	034b660b 	movteq	r6, #46603	; 0xb60b
     600:	672f2e79 			; <UNDEFINED> instruction: 0x672f2e79
     604:	9f306767 	svcls	0x00306767
     608:	02002fa1 	andeq	r2, r0, #644	; 0x284
     60c:	75030104 	strvc	r0, [r3, #-260]	; 0x104
     610:	4a130366 	bmi	4c13b0 <__bss_end__+0x4b69b8>
     614:	4cbc4bf4 	vldmiami	ip!, {d4-<overflow reg d61>}
     618:	087fb003 	ldmdaeq	pc!, {r0, r1, ip, sp, pc}^	; <UNPREDICTABLE>
     61c:	4b2f4b90 	blmi	bd3464 <__bss_end__+0xbc8a6c>
     620:	67133231 			; <UNDEFINED> instruction: 0x67133231
     624:	d88383d8 	stmle	r3, {r3, r4, r6, r7, r8, r9, pc}
     628:	32400883 	subcc	r0, r0, #8585216	; 0x830000
     62c:	84d86713 	ldrbhi	r6, [r8], #1811	; 0x713
     630:	9fd84b4b 	svcls	0x00d84b4b
     634:	2f3e0814 	svccs	0x003e0814
     638:	3c082703 	stccc	7, cr2, [r8], {3}
     63c:	02332f2f 	eorseq	r2, r3, #47, 30	; 0xbc
     640:	01010002 	tsteq	r1, r2
     644:	000000de 	ldrdeq	r0, [r0], -lr
     648:	00830002 	addeq	r0, r3, r2
     64c:	01020000 	mrseq	r0, (UNDEF: 2)
     650:	000d0efb 	strdeq	r0, [sp], -fp
     654:	01010101 	tsteq	r1, r1, lsl #2
     658:	01000000 	mrseq	r0, (UNDEF: 0)
     65c:	6c010000 	stcvs	0, cr0, [r1], {-0}
     660:	00636269 	rsbeq	r6, r3, r9, ror #4
     664:	7273752f 	rsbsvc	r7, r3, #197132288	; 0xbc00000
     668:	636f6c2f 	cmnvs	pc, #12032	; 0x2f00
     66c:	432f6c61 	teqmi	pc, #24832	; 0x6100
     670:	616c6c65 	cmnvs	ip, r5, ror #24
     674:	72612f72 	rsbvc	r2, r1, #456	; 0x1c8
     678:	6f6e2d6d 	svcvs	0x006e2d6d
     67c:	652d656e 	strvs	r6, [sp, #-1390]!	; 0x56e
     680:	2f696261 	svccs	0x00696261
     684:	2e382e34 	mrccs	14, 1, r2, cr8, cr4, {1}
     688:	73632d33 	cmnvc	r3, #3264	; 0xcc0
     68c:	65303731 	ldrvs	r3, [r0, #-1841]!	; 0x731
     690:	62696c2f 	rsbvs	r6, r9, #12032	; 0x2f00
     694:	6363672f 	cmnvs	r3, #12320768	; 0xbc0000
     698:	6d72612f 	ldfvse	f6, [r2, #-188]!	; 0xffffff44
     69c:	6e6f6e2d 	cdpvs	14, 6, cr6, cr15, cr13, {1}
     6a0:	61652d65 	cmnvs	r5, r5, ror #26
     6a4:	342f6962 	strtcc	r6, [pc], #-2402	; 6ac <_start-0x7954>
     6a8:	332e382e 	teqcc	lr, #3014656	; 0x2e0000
     6ac:	636e692f 	cmnvs	lr, #770048	; 0xbc000
     6b0:	6564756c 	strbvs	r7, [r4, #-1388]!	; 0x56c
     6b4:	61680000 	cmnvs	r8, r0
     6b8:	632e6873 	teqvs	lr, #7536640	; 0x730000
     6bc:	00000100 	andeq	r0, r0, r0, lsl #2
     6c0:	69647473 	stmdbvs	r4!, {r0, r1, r4, r5, r6, sl, ip, sp, lr}^
     6c4:	672d746e 	strvs	r7, [sp, -lr, ror #8]!
     6c8:	682e6363 	stmdavs	lr!, {r0, r1, r5, r6, r8, r9, sp, lr}
     6cc:	00000200 	andeq	r0, r0, r0, lsl #4
     6d0:	02050000 	andeq	r0, r5, #0
     6d4:	00008ef4 	strdeq	r8, [r0], -r4
     6d8:	30010e03 	andcc	r0, r1, r3, lsl #28
     6dc:	312f8431 	teqcc	pc, r1, lsr r4	; <UNPREDICTABLE>
     6e0:	02040200 	andeq	r0, r4, #0, 4
     6e4:	0402002f 	streq	r0, [r2], #-47	; 0x2f
     6e8:	02008302 	andeq	r8, r0, #134217728	; 0x8000000
     6ec:	00830204 	addeq	r0, r3, r4, lsl #4
     6f0:	2f020402 	svccs	0x00020402
     6f4:	02040200 	andeq	r0, r4, #0, 4
     6f8:	0402002f 	streq	r0, [r2], #-47	; 0x2f
     6fc:	02002902 	andeq	r2, r0, #32768	; 0x8000
     700:	2e060104 	adfcss	f0, f6, f4
     704:	4a090306 	bmi	241324 <__bss_end__+0x23692c>
     708:	4b2f83d7 	blmi	be166c <__bss_end__+0xbd6c74>
     70c:	2f832f2f 	svccs	0x00832f2f
     710:	2f4b2f2f 	svccs	0x004b2f2f
     714:	2f2f2f32 	svccs	0x002f2f32
     718:	03302f2f 	teqeq	r0, #47, 30	; 0xbc
     71c:	27032e5a 	smlsdcs	r3, sl, lr, r2
     720:	0004022e 	andeq	r0, r4, lr, lsr #4
     724:	00ec0101 	rsceq	r0, ip, r1, lsl #2
     728:	00020000 	andeq	r0, r2, r0
     72c:	000000d0 	ldrdeq	r0, [r0], -r0	; <UNPREDICTABLE>
     730:	0efb0102 	cdpeq	1, 15, cr0, cr11, cr2, {0}
     734:	0101000d 	tsteq	r1, sp
     738:	00000101 	andeq	r0, r0, r1, lsl #2
     73c:	00000100 	andeq	r0, r0, r0, lsl #2
     740:	62696c01 	rsbvs	r6, r9, #256	; 0x100
     744:	752f0063 	strvc	r0, [pc, #-99]!	; 6e9 <_start-0x7917>
     748:	6c2f7273 	sfmvs	f7, 4, [pc], #-460	; 584 <_start-0x7a7c>
     74c:	6c61636f 	stclvs	3, cr6, [r1], #-444	; 0xfffffe44
     750:	6c65432f 	stclvs	3, cr4, [r5], #-188	; 0xffffff44
     754:	2f72616c 	svccs	0x0072616c
     758:	2d6d7261 	sfmcs	f7, 2, [sp, #-388]!	; 0xfffffe7c
     75c:	656e6f6e 	strbvs	r6, [lr, #-3950]!	; 0xf6e
     760:	6261652d 	rsbvs	r6, r1, #188743680	; 0xb400000
     764:	2e342f69 	cdpcs	15, 3, cr2, cr4, cr9, {3}
     768:	2d332e38 	ldccs	14, cr2, [r3, #-224]!	; 0xffffff20
     76c:	37317363 	ldrcc	r7, [r1, -r3, ror #6]!
     770:	6c2f6530 	cfstr32vs	mvfx6, [pc], #-192	; 6b8 <_start-0x7948>
     774:	672f6269 	strvs	r6, [pc, -r9, ror #4]!
     778:	612f6363 	teqvs	pc, r3, ror #6
     77c:	6e2d6d72 	mcrvs	13, 1, r6, cr13, cr2, {3}
     780:	2d656e6f 	stclcs	14, cr6, [r5, #-444]!	; 0xfffffe44
     784:	69626165 	stmdbvs	r2!, {r0, r2, r5, r6, r8, sp, lr}^
     788:	382e342f 	stmdacc	lr!, {r0, r1, r2, r3, r5, sl, ip, sp}
     78c:	692f332e 	stmdbvs	pc!, {r1, r2, r3, r5, r8, r9, ip, sp}	; <UNPREDICTABLE>
     790:	756c636e 	strbvc	r6, [ip, #-878]!	; 0x36e
     794:	2f006564 	svccs	0x00006564
     798:	2f727375 	svccs	0x00727375
     79c:	61636f6c 	cmnvs	r3, ip, ror #30
     7a0:	65432f6c 	strbvs	r2, [r3, #-3948]	; 0xf6c
     7a4:	72616c6c 	rsbvc	r6, r1, #108, 24	; 0x6c00
     7a8:	6d72612f 	ldfvse	f6, [r2, #-188]!	; 0xffffff44
     7ac:	6e6f6e2d 	cdpvs	14, 6, cr6, cr15, cr13, {1}
     7b0:	61652d65 	cmnvs	r5, r5, ror #26
     7b4:	342f6962 	strtcc	r6, [pc], #-2402	; 7bc <_start-0x7844>
     7b8:	332e382e 	teqcc	lr, #3014656	; 0x2e0000
     7bc:	3173632d 	cmncc	r3, sp, lsr #6
     7c0:	2f653037 	svccs	0x00653037
     7c4:	2d6d7261 	sfmcs	f7, 2, [sp, #-388]!	; 0xfffffe7c
     7c8:	656e6f6e 	strbvs	r6, [lr, #-3950]!	; 0xf6e
     7cc:	6261652d 	rsbvs	r6, r1, #188743680	; 0xb400000
     7d0:	6e692f69 	cdpvs	15, 6, cr2, cr9, cr9, {3}
     7d4:	64756c63 	ldrbtvs	r6, [r5], #-3171	; 0xc63
     7d8:	6d000065 	stcvs	0, cr0, [r0, #-404]	; 0xfffffe6c
     7dc:	65736d65 	ldrbvs	r6, [r3, #-3429]!	; 0xd65
     7e0:	00632e74 	rsbeq	r2, r3, r4, ror lr
     7e4:	73000001 	movwvc	r0, #1
     7e8:	65646474 	strbvs	r6, [r4, #-1140]!	; 0x474
     7ec:	00682e66 	rsbeq	r2, r8, r6, ror #28
     7f0:	73000002 	movwvc	r0, #2
     7f4:	6e697274 	mcrvs	2, 3, r7, cr9, cr4, {3}
     7f8:	00682e67 	rsbeq	r2, r8, r7, ror #28
     7fc:	00000003 	andeq	r0, r0, r3
     800:	e4020500 	str	r0, [r2], #-1280	; 0x500
     804:	1400008f 	strne	r0, [r0], #-143	; 0x8f
     808:	002f4c13 	eoreq	r4, pc, r3, lsl ip	; <UNPREDICTABLE>
     80c:	49010402 	stmdbmi	r1, {r1, sl}
     810:	0002024d 	andeq	r0, r2, sp, asr #4
     814:	010c0101 	tsteq	ip, r1, lsl #2
     818:	00020000 	andeq	r0, r2, r0
     81c:	000000f5 	strdeq	r0, [r0], -r5
     820:	0efb0102 	cdpeq	1, 15, cr0, cr11, cr2, {0}
     824:	0101000d 	tsteq	r1, sp
     828:	00000101 	andeq	r0, r0, r1, lsl #2
     82c:	00000100 	andeq	r0, r0, r0, lsl #2
     830:	62696c01 	rsbvs	r6, r9, #256	; 0x100
     834:	752f0063 	strvc	r0, [pc, #-99]!	; 7d9 <_start-0x7827>
     838:	6c2f7273 	sfmvs	f7, 4, [pc], #-460	; 674 <_start-0x798c>
     83c:	6c61636f 	stclvs	3, cr6, [r1], #-444	; 0xfffffe44
     840:	6c65432f 	stclvs	3, cr4, [r5], #-188	; 0xffffff44
     844:	2f72616c 	svccs	0x0072616c
     848:	2d6d7261 	sfmcs	f7, 2, [sp, #-388]!	; 0xfffffe7c
     84c:	656e6f6e 	strbvs	r6, [lr, #-3950]!	; 0xf6e
     850:	6261652d 	rsbvs	r6, r1, #188743680	; 0xb400000
     854:	2e342f69 	cdpcs	15, 3, cr2, cr4, cr9, {3}
     858:	2d332e38 	ldccs	14, cr2, [r3, #-224]!	; 0xffffff20
     85c:	37317363 	ldrcc	r7, [r1, -r3, ror #6]!
     860:	6c2f6530 	cfstr32vs	mvfx6, [pc], #-192	; 7a8 <_start-0x7858>
     864:	672f6269 	strvs	r6, [pc, -r9, ror #4]!
     868:	612f6363 	teqvs	pc, r3, ror #6
     86c:	6e2d6d72 	mcrvs	13, 1, r6, cr13, cr2, {3}
     870:	2d656e6f 	stclcs	14, cr6, [r5, #-444]!	; 0xfffffe44
     874:	69626165 	stmdbvs	r2!, {r0, r2, r5, r6, r8, sp, lr}^
     878:	382e342f 	stmdacc	lr!, {r0, r1, r2, r3, r5, sl, ip, sp}
     87c:	692f332e 	stmdbvs	pc!, {r1, r2, r3, r5, r8, r9, ip, sp}	; <UNPREDICTABLE>
     880:	756c636e 	strbvc	r6, [ip, #-878]!	; 0x36e
     884:	2f006564 	svccs	0x00006564
     888:	72657355 	rsbvc	r7, r5, #1409286145	; 0x54000001
     88c:	72622f73 	rsbvc	r2, r2, #460	; 0x1cc
     890:	6a6e6169 	bvs	1b98e3c <__bss_end__+0x1b8e444>
     894:	442f6e75 	strtmi	r6, [pc], #-3701	; 89c <_start-0x7764>
     898:	746b7365 	strbtvc	r7, [fp], #-869	; 0x365
     89c:	732f706f 	teqvc	pc, #111	; 0x6f
     8a0:	6f6f6863 	svcvs	0x006f6863
     8a4:	70532f6c 	subsvc	r2, r3, ip, ror #30
     8a8:	676e6972 			; <UNDEFINED> instruction: 0x676e6972
     8ac:	30323931 	eorscc	r3, r2, r1, lsr r9
     8b0:	3253432f 	subscc	r4, r3, #-1140850688	; 0xbc000000
     8b4:	584c3034 	stmdapl	ip, {r2, r4, r5, ip, sp}^
     8b8:	3273632f 	rsbscc	r6, r3, #-1140850688	; 0xbc000000
     8bc:	786c3034 	stmdavc	ip!, {r2, r4, r5, ip, sp}^
     8c0:	7330322d 	teqvc	r0, #-805306366	; 0xd0000002
     8c4:	6c2f7270 	sfmvs	f7, 4, [pc], #-448	; 70c <_start-0x78f4>
     8c8:	69706269 	ldmdbvs	r0!, {r0, r3, r5, r6, r9, sp, lr}^
     8cc:	636e692f 	cmnvs	lr, #770048	; 0xbc000
     8d0:	6564756c 	strbvs	r7, [r4, #-1388]!	; 0x56c
     8d4:	72700000 	rsbsvc	r0, r0, #0
     8d8:	6b746e69 	blvs	1d1c284 <__bss_end__+0x1d1188c>
     8dc:	0100632e 	tsteq	r0, lr, lsr #6
     8e0:	74730000 	ldrbtvc	r0, [r3], #-0
     8e4:	67726164 	ldrbvs	r6, [r2, -r4, ror #2]!
     8e8:	0200682e 	andeq	r6, r0, #3014656	; 0x2e0000
     8ec:	623c0000 	eorsvs	r0, ip, #0
     8f0:	746c6975 	strbtvc	r6, [ip], #-2421	; 0x975
     8f4:	3e6e692d 	cdpcc	9, 6, cr6, cr14, cr13, {1}
     8f8:	00000000 	andeq	r0, r0, r0
     8fc:	2e697072 	mcrcs	0, 3, r7, cr9, cr2, {3}
     900:	00030068 	andeq	r0, r3, r8, rrx
     904:	2d617600 	stclcs	6, cr7, [r1, #-0]
     908:	6e697270 	mcrvs	2, 3, r7, cr9, cr0, {3}
     90c:	682e6b74 	stmdavs	lr!, {r2, r4, r5, r6, r8, r9, fp, sp, lr}
     910:	00000100 	andeq	r0, r0, r0, lsl #2
     914:	02050000 	andeq	r0, r5, #0
     918:	00009004 	andeq	r9, r0, r4
     91c:	bf4b6b17 	svclt	0x004b6b17
     920:	000e0289 	andeq	r0, lr, r9, lsl #5
     924:	00940101 	addseq	r0, r4, r1, lsl #2
     928:	00020000 	andeq	r0, r2, r0
     92c:	0000007c 	andeq	r0, r0, ip, ror r0
     930:	0efb0102 	cdpeq	1, 15, cr0, cr11, cr2, {0}
     934:	0101000d 	tsteq	r1, sp
     938:	00000101 	andeq	r0, r0, r1, lsl #2
     93c:	00000100 	andeq	r0, r0, r0, lsl #2
     940:	62696c01 	rsbvs	r6, r9, #256	; 0x100
     944:	552f0063 	strpl	r0, [pc, #-99]!	; 8e9 <_start-0x7717>
     948:	73726573 	cmnvc	r2, #482344960	; 0x1cc00000
     94c:	6972622f 	ldmdbvs	r2!, {r0, r1, r2, r3, r5, r9, sp, lr}^
     950:	756a6e61 	strbvc	r6, [sl, #-3681]!	; 0xe61
     954:	65442f6e 	strbvs	r2, [r4, #-3950]	; 0xf6e
     958:	6f746b73 	svcvs	0x00746b73
     95c:	63732f70 	cmnvs	r3, #112, 30	; 0x1c0
     960:	6c6f6f68 	stclvs	15, cr6, [pc], #-416	; 7c8 <_start-0x7838>
     964:	7270532f 	rsbsvc	r5, r0, #-1140850688	; 0xbc000000
     968:	31676e69 	cmncc	r7, r9, ror #28
     96c:	2f303239 	svccs	0x00303239
     970:	34325343 	ldrtcc	r5, [r2], #-835	; 0x343
     974:	2f584c30 	svccs	0x00584c30
     978:	34327363 	ldrtcc	r7, [r2], #-867	; 0x363
     97c:	2d786c30 	ldclcs	12, cr6, [r8, #-192]!	; 0xffffff40
     980:	70733032 	rsbsvc	r3, r3, r2, lsr r0
     984:	696c2f72 	stmdbvs	ip!, {r1, r4, r5, r6, r8, r9, sl, fp, sp}^
     988:	2f697062 	svccs	0x00697062
     98c:	6c636e69 	stclvs	14, cr6, [r3], #-420	; 0xfffffe5c
     990:	00656475 	rsbeq	r6, r5, r5, ror r4
     994:	74757000 	ldrbtvc	r7, [r5], #-0
     998:	72616863 	rsbvc	r6, r1, #6488064	; 0x630000
     99c:	0100632e 	tsteq	r0, lr, lsr #6
     9a0:	70720000 	rsbsvc	r0, r2, r0
     9a4:	00682e69 	rsbeq	r2, r8, r9, ror #28
     9a8:	00000002 	andeq	r0, r0, r2
     9ac:	5c020500 	cfstr32pl	mvfx0, [r2], {-0}
     9b0:	14000090 	strne	r0, [r0], #-144	; 0x90
     9b4:	bc136b4a 	ldclt	11, cr6, [r3], {74}	; 0x4a
     9b8:	00080213 	andeq	r0, r8, r3, lsl r2
     9bc:	00a00101 	adceq	r0, r0, r1, lsl #2
     9c0:	00020000 	andeq	r0, r2, r0
     9c4:	00000079 	andeq	r0, r0, r9, ror r0
     9c8:	0efb0102 	cdpeq	1, 15, cr0, cr11, cr2, {0}
     9cc:	0101000d 	tsteq	r1, sp
     9d0:	00000101 	andeq	r0, r0, r1, lsl #2
     9d4:	00000100 	andeq	r0, r0, r0, lsl #2
     9d8:	62696c01 	rsbvs	r6, r9, #256	; 0x100
     9dc:	552f0063 	strpl	r0, [pc, #-99]!	; 981 <_start-0x767f>
     9e0:	73726573 	cmnvc	r2, #482344960	; 0x1cc00000
     9e4:	6972622f 	ldmdbvs	r2!, {r0, r1, r2, r3, r5, r9, sp, lr}^
     9e8:	756a6e61 	strbvc	r6, [sl, #-3681]!	; 0xe61
     9ec:	65442f6e 	strbvs	r2, [r4, #-3950]	; 0xf6e
     9f0:	6f746b73 	svcvs	0x00746b73
     9f4:	63732f70 	cmnvs	r3, #112, 30	; 0x1c0
     9f8:	6c6f6f68 	stclvs	15, cr6, [pc], #-416	; 860 <_start-0x77a0>
     9fc:	7270532f 	rsbsvc	r5, r0, #-1140850688	; 0xbc000000
     a00:	31676e69 	cmncc	r7, r9, ror #28
     a04:	2f303239 	svccs	0x00303239
     a08:	34325343 	ldrtcc	r5, [r2], #-835	; 0x343
     a0c:	2f584c30 	svccs	0x00584c30
     a10:	34327363 	ldrtcc	r7, [r2], #-867	; 0x363
     a14:	2d786c30 	ldclcs	12, cr6, [r8, #-192]!	; 0xffffff40
     a18:	70733032 	rsbsvc	r3, r3, r2, lsr r0
     a1c:	696c2f72 	stmdbvs	ip!, {r1, r4, r5, r6, r8, r9, sl, fp, sp}^
     a20:	2f697062 	svccs	0x00697062
     a24:	6c636e69 	stclvs	14, cr6, [r3], #-420	; 0xfffffe5c
     a28:	00656475 	rsbeq	r6, r5, r5, ror r4
     a2c:	74757000 	ldrbtvc	r7, [r5], #-0
     a30:	00632e6b 	rsbeq	r2, r3, fp, ror #28
     a34:	72000001 	andvc	r0, r0, #1
     a38:	682e6970 	stmdavs	lr!, {r4, r5, r6, r8, fp, sp, lr}
     a3c:	00000200 	andeq	r0, r0, r0, lsl #4
     a40:	02050000 	andeq	r0, r5, #0
     a44:	00009098 	muleq	r0, r8, r0
     a48:	002d4c15 	eoreq	r4, sp, r5, lsl ip
     a4c:	2f020402 	svccs	0x00020402
     a50:	02040200 	andeq	r0, r4, #0, 4
     a54:	04020049 	streq	r0, [r2], #-73	; 0x49
     a58:	062e0601 	strteq	r0, [lr], -r1, lsl #12
     a5c:	0006026b 	andeq	r0, r6, fp, ror #4
     a60:	01eb0101 	mvneq	r0, r1, lsl #2
     a64:	00020000 	andeq	r0, r2, r0
     a68:	000000e9 	andeq	r0, r0, r9, ror #1
     a6c:	0efb0102 	cdpeq	1, 15, cr0, cr11, cr2, {0}
     a70:	0101000d 	tsteq	r1, sp
     a74:	00000101 	andeq	r0, r0, r1, lsl #2
     a78:	00000100 	andeq	r0, r0, r0, lsl #2
     a7c:	62696c01 	rsbvs	r6, r9, #256	; 0x100
     a80:	752f0063 	strvc	r0, [pc, #-99]!	; a25 <_start-0x75db>
     a84:	6c2f7273 	sfmvs	f7, 4, [pc], #-460	; 8c0 <_start-0x7740>
     a88:	6c61636f 	stclvs	3, cr6, [r1], #-444	; 0xfffffe44
     a8c:	6c65432f 	stclvs	3, cr4, [r5], #-188	; 0xffffff44
     a90:	2f72616c 	svccs	0x0072616c
     a94:	2d6d7261 	sfmcs	f7, 2, [sp, #-388]!	; 0xfffffe7c
     a98:	656e6f6e 	strbvs	r6, [lr, #-3950]!	; 0xf6e
     a9c:	6261652d 	rsbvs	r6, r1, #188743680	; 0xb400000
     aa0:	2e342f69 	cdpcs	15, 3, cr2, cr4, cr9, {3}
     aa4:	2d332e38 	ldccs	14, cr2, [r3, #-224]!	; 0xffffff20
     aa8:	37317363 	ldrcc	r7, [r1, -r3, ror #6]!
     aac:	6c2f6530 	cfstr32vs	mvfx6, [pc], #-192	; 9f4 <_start-0x760c>
     ab0:	672f6269 	strvs	r6, [pc, -r9, ror #4]!
     ab4:	612f6363 	teqvs	pc, r3, ror #6
     ab8:	6e2d6d72 	mcrvs	13, 1, r6, cr13, cr2, {3}
     abc:	2d656e6f 	stclcs	14, cr6, [r5, #-444]!	; 0xfffffe44
     ac0:	69626165 	stmdbvs	r2!, {r0, r2, r5, r6, r8, sp, lr}^
     ac4:	382e342f 	stmdacc	lr!, {r0, r1, r2, r3, r5, sl, ip, sp}
     ac8:	692f332e 	stmdbvs	pc!, {r1, r2, r3, r5, r8, r9, ip, sp}	; <UNPREDICTABLE>
     acc:	756c636e 	strbvc	r6, [ip, #-878]!	; 0x36e
     ad0:	2f006564 	svccs	0x00006564
     ad4:	72657355 	rsbvc	r7, r5, #1409286145	; 0x54000001
     ad8:	72622f73 	rsbvc	r2, r2, #460	; 0x1cc
     adc:	6a6e6169 	bvs	1b99088 <__bss_end__+0x1b8e690>
     ae0:	442f6e75 	strtmi	r6, [pc], #-3701	; ae8 <_start-0x7518>
     ae4:	746b7365 	strbtvc	r7, [fp], #-869	; 0x365
     ae8:	732f706f 	teqvc	pc, #111	; 0x6f
     aec:	6f6f6863 	svcvs	0x006f6863
     af0:	70532f6c 	subsvc	r2, r3, ip, ror #30
     af4:	676e6972 			; <UNDEFINED> instruction: 0x676e6972
     af8:	30323931 	eorscc	r3, r2, r1, lsr r9
     afc:	3253432f 	subscc	r4, r3, #-1140850688	; 0xbc000000
     b00:	584c3034 	stmdapl	ip, {r2, r4, r5, ip, sp}^
     b04:	3273632f 	rsbscc	r6, r3, #-1140850688	; 0xbc000000
     b08:	786c3034 	stmdavc	ip!, {r2, r4, r5, ip, sp}^
     b0c:	7330322d 	teqvc	r0, #-805306366	; 0xd0000002
     b10:	6c2f7270 	sfmvs	f7, 4, [pc], #-448	; 958 <_start-0x76a8>
     b14:	69706269 	ldmdbvs	r0!, {r0, r3, r5, r6, r9, sp, lr}^
     b18:	636e692f 	cmnvs	lr, #770048	; 0xbc000
     b1c:	6564756c 	strbvs	r7, [r4, #-1388]!	; 0x56c
     b20:	61760000 	cmnvs	r6, r0
     b24:	6972702d 	ldmdbvs	r2!, {r0, r2, r3, r5, ip, sp, lr}^
     b28:	2e6b746e 	cdpcs	4, 6, cr7, cr11, cr14, {3}
     b2c:	00010063 	andeq	r0, r1, r3, rrx
     b30:	64747300 	ldrbtvs	r7, [r4], #-768	; 0x300
     b34:	2e677261 	cdpcs	2, 6, cr7, cr7, cr1, {3}
     b38:	00020068 	andeq	r0, r2, r8, rrx
     b3c:	69707200 	ldmdbvs	r0!, {r9, ip, sp, lr}^
     b40:	0300682e 	movweq	r6, #2094	; 0x82e
     b44:	623c0000 	eorsvs	r0, ip, #0
     b48:	746c6975 	strbtvc	r6, [ip], #-2421	; 0x975
     b4c:	3e6e692d 	cdpcc	9, 6, cr6, cr14, cr13, {1}
     b50:	00000000 	andeq	r0, r0, r0
     b54:	02050000 	andeq	r0, r5, #0
     b58:	000090cc 	andeq	r9, r0, ip, asr #1
     b5c:	01012603 	tsteq	r1, r3, lsl #12
     b60:	2d3113a5 	ldccs	3, cr1, [r1, #-660]!	; 0xfffffd6c
     b64:	02040200 	andeq	r0, r4, #0, 4
     b68:	0402002f 	streq	r0, [r2], #-47	; 0x2f
     b6c:	02002d02 	andeq	r2, r0, #2, 26	; 0x80
     b70:	002f0204 	eoreq	r0, pc, r4, lsl #4
     b74:	2d010402 	cfstrscs	mvf0, [r1, #-8]
     b78:	14304c4c 	ldrtne	r4, [r0], #-3148	; 0xc4c
     b7c:	004f2f4b 	subeq	r2, pc, fp, asr #30
     b80:	67020402 	strvs	r0, [r2, -r2, lsl #8]
     b84:	01040200 	mrseq	r0, R12_usr
     b88:	304d4c65 	subcc	r4, sp, r5, ror #24
     b8c:	30312fa0 	eorscc	r2, r1, r0, lsr #31
     b90:	84162602 	ldrhi	r2, [r6], #-1538	; 0x602
     b94:	02002c2d 	andeq	r2, r0, #11520	; 0x2d00
     b98:	00300104 	eorseq	r0, r0, r4, lsl #2
     b9c:	33010402 	movwcc	r0, #5122	; 0x1402
     ba0:	02006606 	andeq	r6, r0, #6291456	; 0x600000
     ba4:	002e0104 	eoreq	r0, lr, r4, lsl #2
     ba8:	06010402 	streq	r0, [r1], -r2, lsl #8
     bac:	2f672108 	svccs	0x00672108
     bb0:	03827303 	orreq	r7, r2, #201326592	; 0xc000000
     bb4:	02002e13 	andeq	r2, r0, #304	; 0x130
     bb8:	66060104 	strvs	r0, [r6], -r4, lsl #2
     bbc:	01040200 	mrseq	r0, R12_usr
     bc0:	4b4b8306 	blmi	12e17e0 <__bss_end__+0x12d6de8>
     bc4:	034b3167 	movteq	r3, #45415	; 0xb167
     bc8:	23032e65 	movwcs	r2, #15973	; 0x3e65
     bcc:	0402002e 	streq	r0, [r2], #-46	; 0x2e
     bd0:	002e0601 	eoreq	r0, lr, r1, lsl #12
     bd4:	06010402 	streq	r0, [r1], -r2, lsl #8
     bd8:	0402009f 	streq	r0, [r2], #-159	; 0x9f
     bdc:	d7d96a01 	ldrble	r6, [r9, r1, lsl #20]
     be0:	087fa403 	ldmdaeq	pc!, {r0, r1, sl, sp, pc}^	; <UNPREDICTABLE>
     be4:	02002f20 	andeq	r2, r0, #32, 30	; 0x80
     be8:	4a060104 	bmi	181000 <__bss_end__+0x176608>
     bec:	2f4bd706 	svccs	0x004bd706
     bf0:	f200dc03 			; <UNDEFINED> instruction: 0xf200dc03
     bf4:	03484c83 	movteq	r4, #35971	; 0x8c83
     bf8:	75032e0e 	strvc	r2, [r3, #-3598]	; 0xe0e
     bfc:	842f2f2e 	strthi	r2, [pc], #-3886	; c04 <_start-0x73fc>
     c00:	4d2d2f4b 	stcmi	15, cr2, [sp, #-300]!	; 0xfffffed4
     c04:	832f3031 	teqhi	pc, #49	; 0x31
     c08:	01040200 	mrseq	r0, R12_usr
     c0c:	0200a22c 	andeq	sl, r0, #44, 4	; 0xc0000002
     c10:	4a060104 	bmi	181028 <__bss_end__+0x176630>
     c14:	3602d806 	strcc	sp, [r2], -r6, lsl #16
     c18:	d60e0316 			; <UNDEFINED> instruction: 0xd60e0316
     c1c:	f3302108 	vrhadd.u<illegal width 64>	d2, d0, d8
     c20:	f330f331 	vcge.u<illegal width 64>	d15, d0, d17
     c24:	f3304b30 			; <UNDEFINED> instruction: 0xf3304b30
     c28:	31230830 	teqcc	r3, r0, lsr r8
     c2c:	0402002f 	streq	r0, [r2], #-47	; 0x2f
     c30:	02006501 	andeq	r6, r0, #4194304	; 0x400000
     c34:	4a060204 	bmi	18144c <__bss_end__+0x176a54>
     c38:	01040200 	mrseq	r0, R12_usr
     c3c:	66420306 	strbvs	r0, [r2], -r6, lsl #6
     c40:	02040200 	andeq	r0, r4, #0, 4
     c44:	03066606 	movweq	r6, #26118	; 0x6606
     c48:	684a00c2 	stmdavs	sl, {r1, r6, r7}^
     c4c:	01001002 	tsteq	r0, r2
     c50:	00009c01 	andeq	r9, r0, r1, lsl #24
     c54:	86000200 	strhi	r0, [r0], -r0, lsl #4
     c58:	02000000 	andeq	r0, r0, #0
     c5c:	0d0efb01 	vstreq	d15, [lr, #-4]
     c60:	01010100 	mrseq	r0, (UNDEF: 17)
     c64:	00000001 	andeq	r0, r0, r1
     c68:	01000001 	tsteq	r0, r1
     c6c:	66617473 			; <UNDEFINED> instruction: 0x66617473
     c70:	72732d66 	rsbsvc	r2, r3, #6528	; 0x1980
     c74:	552f0063 	strpl	r0, [pc, #-99]!	; c19 <_start-0x73e7>
     c78:	73726573 	cmnvc	r2, #482344960	; 0x1cc00000
     c7c:	6972622f 	ldmdbvs	r2!, {r0, r1, r2, r3, r5, r9, sp, lr}^
     c80:	756a6e61 	strbvc	r6, [sl, #-3681]!	; 0xe61
     c84:	65442f6e 	strbvs	r2, [r4, #-3950]	; 0xf6e
     c88:	6f746b73 	svcvs	0x00746b73
     c8c:	63732f70 	cmnvs	r3, #112, 30	; 0x1c0
     c90:	6c6f6f68 	stclvs	15, cr6, [pc], #-416	; af8 <_start-0x7508>
     c94:	7270532f 	rsbsvc	r5, r0, #-1140850688	; 0xbc000000
     c98:	31676e69 	cmncc	r7, r9, ror #28
     c9c:	2f303239 	svccs	0x00303239
     ca0:	34325343 	ldrtcc	r5, [r2], #-835	; 0x343
     ca4:	2f584c30 	svccs	0x00584c30
     ca8:	34327363 	ldrtcc	r7, [r2], #-867	; 0x363
     cac:	2d786c30 	ldclcs	12, cr6, [r8, #-192]!	; 0xffffff40
     cb0:	70733032 	rsbsvc	r3, r3, r2, lsr r0
     cb4:	696c2f72 	stmdbvs	ip!, {r1, r4, r5, r6, r8, r9, sl, fp, sp}^
     cb8:	2f697062 	svccs	0x00697062
     cbc:	6c636e69 	stclvs	14, cr6, [r3], #-420	; 0xfffffe5c
     cc0:	00656475 	rsbeq	r6, r5, r5, ror r4
     cc4:	656c6300 	strbvs	r6, [ip, #-768]!	; 0x300
     cc8:	722d6e61 	eorvc	r6, sp, #1552	; 0x610
     ccc:	6f6f6265 	svcvs	0x006f6265
     cd0:	00632e74 	rsbeq	r2, r3, r4, ror lr
     cd4:	72000001 	andvc	r0, r0, #1
     cd8:	682e6970 	stmdavs	lr!, {r4, r5, r6, r8, fp, sp, lr}
     cdc:	00000200 	andeq	r0, r0, r0, lsl #4
     ce0:	02050000 	andeq	r0, r5, #0
     ce4:	000095d8 	ldrdeq	r9, [r0], -r8
     ce8:	4b832f15 	blmi	fe0cc944 <__bss_end__+0xfe0c1f4c>
     cec:	01000602 	tsteq	r0, r2, lsl #12
     cf0:	0000a301 	andeq	sl, r0, r1, lsl #6
     cf4:	80000200 	andhi	r0, r0, r0, lsl #4
     cf8:	02000000 	andeq	r0, r0, #0
     cfc:	0d0efb01 	vstreq	d15, [lr, #-4]
     d00:	01010100 	mrseq	r0, (UNDEF: 17)
     d04:	00000001 	andeq	r0, r0, r1
     d08:	01000001 	tsteq	r0, r1
     d0c:	66617473 			; <UNDEFINED> instruction: 0x66617473
     d10:	72732d66 	rsbsvc	r2, r3, #6528	; 0x1980
     d14:	552f0063 	strpl	r0, [pc, #-99]!	; cb9 <_start-0x7347>
     d18:	73726573 	cmnvc	r2, #482344960	; 0x1cc00000
     d1c:	6972622f 	ldmdbvs	r2!, {r0, r1, r2, r3, r5, r9, sp, lr}^
     d20:	756a6e61 	strbvc	r6, [sl, #-3681]!	; 0xe61
     d24:	65442f6e 	strbvs	r2, [r4, #-3950]	; 0xf6e
     d28:	6f746b73 	svcvs	0x00746b73
     d2c:	63732f70 	cmnvs	r3, #112, 30	; 0x1c0
     d30:	6c6f6f68 	stclvs	15, cr6, [pc], #-416	; b98 <_start-0x7468>
     d34:	7270532f 	rsbsvc	r5, r0, #-1140850688	; 0xbc000000
     d38:	31676e69 	cmncc	r7, r9, ror #28
     d3c:	2f303239 	svccs	0x00303239
     d40:	34325343 	ldrtcc	r5, [r2], #-835	; 0x343
     d44:	2f584c30 	svccs	0x00584c30
     d48:	34327363 	ldrtcc	r7, [r2], #-867	; 0x363
     d4c:	2d786c30 	ldclcs	12, cr6, [r8, #-192]!	; 0xffffff40
     d50:	70733032 	rsbsvc	r3, r3, r2, lsr r0
     d54:	696c2f72 	stmdbvs	ip!, {r1, r4, r5, r6, r8, r9, sl, fp, sp}^
     d58:	2f697062 	svccs	0x00697062
     d5c:	6c636e69 	stclvs	14, cr6, [r3], #-420	; 0xfffffe5c
     d60:	00656475 	rsbeq	r6, r5, r5, ror r4
     d64:	74736300 	ldrbtvc	r6, [r3], #-768	; 0x300
     d68:	2e747261 	cdpcs	2, 7, cr7, cr4, cr1, {3}
     d6c:	00010063 	andeq	r0, r1, r3, rrx
     d70:	69707200 	ldmdbvs	r0!, {r9, ip, sp, lr}^
     d74:	0200682e 	andeq	r6, r0, #3014656	; 0x2e0000
     d78:	00000000 	andeq	r0, r0, r0
     d7c:	96000205 	strls	r0, [r0], -r5, lsl #4
     d80:	0c030000 	stceq	0, cr0, [r3], {-0}
     d84:	2f313201 	svccs	0x00313201
     d88:	02002f2d 	andeq	r2, r0, #45, 30	; 0xb4
     d8c:	03490104 	movteq	r0, #37124	; 0x9104
     d90:	022f4a15 	eoreq	r4, pc, #86016	; 0x15000
     d94:	01010006 	tsteq	r1, r6
     d98:	000000a2 	andeq	r0, r0, r2, lsr #1
     d9c:	00800002 	addeq	r0, r0, r2
     da0:	01020000 	mrseq	r0, (UNDEF: 2)
     da4:	000d0efb 	strdeq	r0, [sp], -fp
     da8:	01010101 	tsteq	r1, r1, lsl #2
     dac:	01000000 	mrseq	r0, (UNDEF: 0)
     db0:	73010000 	movwvc	r0, #4096	; 0x1000
     db4:	66666174 			; <UNDEFINED> instruction: 0x66666174
     db8:	6372732d 	cmnvs	r2, #-1275068416	; 0xb4000000
     dbc:	73552f00 	cmpvc	r5, #0, 30
     dc0:	2f737265 	svccs	0x00737265
     dc4:	61697262 	cmnvs	r9, r2, ror #4
     dc8:	6e756a6e 	vsubvs.f32	s13, s10, s29
     dcc:	7365442f 	cmnvc	r5, #788529152	; 0x2f000000
     dd0:	706f746b 	rsbvc	r7, pc, fp, ror #8
     dd4:	6863732f 	stmdavs	r3!, {r0, r1, r2, r3, r5, r8, r9, ip, sp, lr}^
     dd8:	2f6c6f6f 	svccs	0x006c6f6f
     ddc:	69727053 	ldmdbvs	r2!, {r0, r1, r4, r6, ip, sp, lr}^
     de0:	3931676e 	ldmdbcc	r1!, {r1, r2, r3, r5, r6, r8, r9, sl, sp, lr}
     de4:	432f3032 	teqmi	pc, #50	; 0x32
     de8:	30343253 	eorscc	r3, r4, r3, asr r2
     dec:	632f584c 	teqvs	pc, #76, 16	; 0x4c0000
     df0:	30343273 	eorscc	r3, r4, r3, ror r2
     df4:	322d786c 	eorcc	r7, sp, #108, 16	; 0x6c0000
     df8:	72707330 	rsbsvc	r7, r0, #48, 6	; 0xc0000000
     dfc:	62696c2f 	rsbvs	r6, r9, #12032	; 0x2f00
     e00:	692f6970 	stmdbvs	pc!, {r4, r5, r6, r8, fp, sp, lr}	; <UNPREDICTABLE>
     e04:	756c636e 	strbvc	r6, [ip, #-878]!	; 0x36e
     e08:	00006564 	andeq	r6, r0, r4, ror #10
     e0c:	6f626572 	svcvs	0x00626572
     e10:	632e746f 	teqvs	lr, #1862270976	; 0x6f000000
     e14:	00000100 	andeq	r0, r0, r0, lsl #2
     e18:	2e697072 	mcrcs	0, 3, r7, cr9, cr2, {3}
     e1c:	00020068 	andeq	r0, r2, r8, rrx
     e20:	05000000 	streq	r0, [r0, #-0]
     e24:	00963402 	addseq	r3, r6, r2, lsl #8
     e28:	010d0300 	mrseq	r0, SP_mon
     e2c:	852f3114 	strhi	r3, [pc, #-276]!	; d20 <_start-0x72e0>
     e30:	4d4b2f15 	stclmi	15, cr2, [fp, #-84]	; 0xffffffac
     e34:	5235672f 	eorspl	r6, r5, #12320768	; 0xbc0000
     e38:	00100267 	andseq	r0, r0, r7, ror #4
     e3c:	00ac0101 	adceq	r0, ip, r1, lsl #2
     e40:	00020000 	andeq	r0, r2, r0
     e44:	0000007f 	andeq	r0, r0, pc, ror r0
     e48:	0efb0102 	cdpeq	1, 15, cr0, cr11, cr2, {0}
     e4c:	0101000d 	tsteq	r1, sp
     e50:	00000101 	andeq	r0, r0, r1, lsl #2
     e54:	00000100 	andeq	r0, r0, r0, lsl #2
     e58:	61747301 	cmnvs	r4, r1, lsl #6
     e5c:	732d6666 	teqvc	sp, #106954752	; 0x6600000
     e60:	2f006372 	svccs	0x00006372
     e64:	72657355 	rsbvc	r7, r5, #1409286145	; 0x54000001
     e68:	72622f73 	rsbvc	r2, r2, #460	; 0x1cc
     e6c:	6a6e6169 	bvs	1b99418 <__bss_end__+0x1b8ea20>
     e70:	442f6e75 	strtmi	r6, [pc], #-3701	; e78 <_start-0x7188>
     e74:	746b7365 	strbtvc	r7, [fp], #-869	; 0x365
     e78:	732f706f 	teqvc	pc, #111	; 0x6f
     e7c:	6f6f6863 	svcvs	0x006f6863
     e80:	70532f6c 	subsvc	r2, r3, ip, ror #30
     e84:	676e6972 			; <UNDEFINED> instruction: 0x676e6972
     e88:	30323931 	eorscc	r3, r2, r1, lsr r9
     e8c:	3253432f 	subscc	r4, r3, #-1140850688	; 0xbc000000
     e90:	584c3034 	stmdapl	ip, {r2, r4, r5, ip, sp}^
     e94:	3273632f 	rsbscc	r6, r3, #-1140850688	; 0xbc000000
     e98:	786c3034 	stmdavc	ip!, {r2, r4, r5, ip, sp}^
     e9c:	7330322d 	teqvc	r0, #-805306366	; 0xd0000002
     ea0:	6c2f7270 	sfmvs	f7, 4, [pc], #-448	; ce8 <_start-0x7318>
     ea4:	69706269 	ldmdbvs	r0!, {r0, r3, r5, r6, r9, sp, lr}^
     ea8:	636e692f 	cmnvs	lr, #770048	; 0xbc000
     eac:	6564756c 	strbvs	r7, [r4, #-1388]!	; 0x56c
     eb0:	69740000 	ldmdbvs	r4!, {}^	; <UNPREDICTABLE>
     eb4:	2e72656d 	cdpcs	5, 7, cr6, cr2, cr13, {3}
     eb8:	00010063 	andeq	r0, r1, r3, rrx
     ebc:	69707200 	ldmdbvs	r0!, {r9, ip, sp, lr}^
     ec0:	0200682e 	andeq	r6, r0, #3014656	; 0x2e0000
     ec4:	00000000 	andeq	r0, r0, r0
     ec8:	96a80205 	strtls	r0, [r8], r5, lsl #4
     ecc:	14160000 	ldrne	r0, [r6], #-0
     ed0:	02002d2f 	andeq	r2, r0, #3008	; 0xbc0
     ed4:	2e060104 	adfcss	f0, f6, f4
     ed8:	2f316d06 	svccs	0x00316d06
     edc:	31324d4b 	teqcc	r2, fp, asr #26
     ee0:	2f4c4b30 	svccs	0x004c4b30
     ee4:	842f2f6a 	strthi	r2, [pc], #-3946	; eec <_start-0x7114>
     ee8:	0008022f 	andeq	r0, r8, pc, lsr #4
     eec:	01480101 	cmpeq	r8, r1, lsl #2
     ef0:	00020000 	andeq	r0, r2, r0
     ef4:	00000102 	andeq	r0, r0, r2, lsl #2
     ef8:	0efb0102 	cdpeq	1, 15, cr0, cr11, cr2, {0}
     efc:	0101000d 	tsteq	r1, sp
     f00:	00000101 	andeq	r0, r0, r1, lsl #2
     f04:	00000100 	andeq	r0, r0, r0, lsl #2
     f08:	73752f01 	cmnvc	r5, #1, 30
     f0c:	6e692f72 	mcrvs	15, 3, r2, cr9, cr2, {3}
     f10:	64756c63 	ldrbtvs	r6, [r5], #-3171	; 0xc63
     f14:	656e2f65 	strbvs	r2, [lr, #-3941]!	; 0xf65
     f18:	62696c77 	rsbvs	r6, r9, #30464	; 0x7700
     f1c:	7379732f 	cmnvc	r9, #-1140850688	; 0xbc000000
     f20:	73752f00 	cmnvc	r5, #0, 30
     f24:	696c2f72 	stmdbvs	ip!, {r1, r4, r5, r6, r8, r9, sl, fp, sp}^
     f28:	63672f62 	cmnvs	r7, #392	; 0x188
     f2c:	72612f63 	rsbvc	r2, r1, #396	; 0x18c
     f30:	6f6e2d6d 	svcvs	0x006e2d6d
     f34:	652d656e 	strvs	r6, [sp, #-1390]!	; 0x56e
     f38:	2f696261 	svccs	0x00696261
     f3c:	2e332e36 	mrccs	14, 1, r2, cr3, cr6, {1}
     f40:	6e692f31 	mcrvs	15, 3, r2, cr9, cr1, {1}
     f44:	64756c63 	ldrbtvs	r6, [r5], #-3171	; 0xc63
     f48:	682f0065 	stmdavs	pc!, {r0, r2, r5, r6}	; <UNPREDICTABLE>
     f4c:	2f656d6f 	svccs	0x00656d6f
     f50:	6c676e65 	stclvs	14, cr6, [r7], #-404	; 0xfffffe6c
     f54:	632f7265 	teqvs	pc, #1342177286	; 0x50000006
     f58:	7373616c 	cmnvc	r3, #108, 2
     f5c:	3273632f 	rsbscc	r6, r3, #-1140850688	; 0xbc000000
     f60:	786c3034 	stmdavc	ip!, {r2, r4, r5, ip, sp}^
     f64:	7330322d 	teqvc	r0, #-805306366	; 0xd0000002
     f68:	2f2f7270 	svccs	0x002f7270
     f6c:	7062696c 	rsbvc	r6, r2, ip, ror #18
     f70:	682f0069 	stmdavs	pc!, {r0, r3, r5, r6}	; <UNPREDICTABLE>
     f74:	2f656d6f 	svccs	0x00656d6f
     f78:	6c676e65 	stclvs	14, cr6, [r7], #-404	; 0xfffffe6c
     f7c:	632f7265 	teqvs	pc, #1342177286	; 0x50000006
     f80:	7373616c 	cmnvc	r3, #108, 2
     f84:	3273632f 	rsbscc	r6, r3, #-1140850688	; 0xbc000000
     f88:	786c3034 	stmdavc	ip!, {r2, r4, r5, ip, sp}^
     f8c:	7330322d 	teqvc	r0, #-805306366	; 0xd0000002
     f90:	2f2f7270 	svccs	0x002f7270
     f94:	7062696c 	rsbvc	r6, r2, ip, ror #18
     f98:	74732f69 	ldrbtvc	r2, [r3], #-3945	; 0xf69
     f9c:	2d666661 	stclcs	6, cr6, [r6, #-388]!	; 0xfffffe7c
     fa0:	00637273 	rsbeq	r7, r3, r3, ror r2
     fa4:	72617500 	rsbvc	r7, r1, #0, 10
     fa8:	00632e74 	rsbeq	r2, r3, r4, ror lr
     fac:	6c000000 	stcvs	0, cr0, [r0], {-0}
     fb0:	2e6b636f 	cdpcs	3, 6, cr6, cr11, cr15, {3}
     fb4:	00010068 	andeq	r0, r1, r8, rrx
     fb8:	79745f00 	ldmdbvc	r4!, {r8, r9, sl, fp, ip, lr}^
     fbc:	2e736570 	mrccs	5, 3, r6, cr3, cr0, {3}
     fc0:	00010068 	andeq	r0, r1, r8, rrx
     fc4:	64747300 	ldrbtvs	r7, [r4], #-768	; 0x300
     fc8:	2e666564 	cdpcs	5, 6, cr6, cr6, cr4, {3}
     fcc:	00020068 	andeq	r0, r2, r8, rrx
     fd0:	65657200 	strbvs	r7, [r5, #-512]!	; 0x200
     fd4:	682e746e 	stmdavs	lr!, {r1, r2, r3, r5, r6, sl, ip, sp, lr}
     fd8:	00000100 	andeq	r0, r0, r0, lsl #2
     fdc:	2e697072 	mcrcs	0, 3, r7, cr9, cr2, {3}
     fe0:	00030068 	andeq	r0, r3, r8, rrx
     fe4:	72617500 	rsbvc	r7, r1, #0, 10
     fe8:	00682e74 	rsbeq	r2, r8, r4, ror lr
     fec:	67000004 	strvs	r0, [r0, -r4]
     ff0:	2e6f6970 	mcrcs	9, 3, r6, cr15, cr0, {3}
     ff4:	00040068 	andeq	r0, r4, r8, rrx
     ff8:	05000000 	streq	r0, [r0, #-0]
     ffc:	00977c02 	addseq	r7, r7, r2, lsl #24
    1000:	012c0300 	teqeq	ip, r0, lsl #6
    1004:	9e0c0367 	cdpls	3, 0, cr0, cr12, cr7, {3}
    1008:	35686735 	strbcc	r6, [r8, #-1845]!	; 0x735
    100c:	2e0c0368 	cdpcs	3, 0, cr0, cr12, cr8, {3}
    1010:	69696b85 	stmdbvs	r9!, {r0, r2, r7, r8, r9, fp, sp, lr}^
    1014:	6b660c03 	blvs	1984028 <__bss_end__+0x1979630>
    1018:	34420867 	strbcc	r0, [r2], #-2151	; 0x867
    101c:	68364b68 	ldmdavs	r6!, {r3, r5, r6, r8, r9, fp, lr}
    1020:	02002f87 	andeq	r2, r0, #540	; 0x21c
    1024:	682f0104 	stmdavs	pc!, {r2, r8}	; <UNPREDICTABLE>
    1028:	4b673067 	blmi	19cd1cc <__bss_end__+0x19c27d4>
    102c:	01040200 	mrseq	r0, R12_usr
    1030:	6967682f 	stmdbvs	r7!, {r0, r1, r2, r3, r5, fp, sp, lr}^
    1034:	0006022e 	andeq	r0, r6, lr, lsr #4
    1038:	012b0101 	teqeq	fp, r1, lsl #2
    103c:	00020000 	andeq	r0, r2, r0
    1040:	000000f8 	strdeq	r0, [r0], -r8
    1044:	0efb0102 	cdpeq	1, 15, cr0, cr11, cr2, {0}
    1048:	0101000d 	tsteq	r1, sp
    104c:	00000101 	andeq	r0, r0, r1, lsl #2
    1050:	00000100 	andeq	r0, r0, r0, lsl #2
    1054:	73752f01 	cmnvc	r5, #1, 30
    1058:	6e692f72 	mcrvs	15, 3, r2, cr9, cr2, {3}
    105c:	64756c63 	ldrbtvs	r6, [r5], #-3171	; 0xc63
    1060:	656e2f65 	strbvs	r2, [lr, #-3941]!	; 0xf65
    1064:	62696c77 	rsbvs	r6, r9, #30464	; 0x7700
    1068:	7379732f 	cmnvc	r9, #-1140850688	; 0xbc000000
    106c:	73752f00 	cmnvc	r5, #0, 30
    1070:	696c2f72 	stmdbvs	ip!, {r1, r4, r5, r6, r8, r9, sl, fp, sp}^
    1074:	63672f62 	cmnvs	r7, #392	; 0x188
    1078:	72612f63 	rsbvc	r2, r1, #396	; 0x18c
    107c:	6f6e2d6d 	svcvs	0x006e2d6d
    1080:	652d656e 	strvs	r6, [sp, #-1390]!	; 0x56e
    1084:	2f696261 	svccs	0x00696261
    1088:	2e332e36 	mrccs	14, 1, r2, cr3, cr6, {1}
    108c:	6e692f31 	mcrvs	15, 3, r2, cr9, cr1, {1}
    1090:	64756c63 	ldrbtvs	r6, [r5], #-3171	; 0xc63
    1094:	682f0065 	stmdavs	pc!, {r0, r2, r5, r6}	; <UNPREDICTABLE>
    1098:	2f656d6f 	svccs	0x00656d6f
    109c:	6c676e65 	stclvs	14, cr6, [r7], #-404	; 0xfffffe6c
    10a0:	632f7265 	teqvs	pc, #1342177286	; 0x50000006
    10a4:	7373616c 	cmnvc	r3, #108, 2
    10a8:	3273632f 	rsbscc	r6, r3, #-1140850688	; 0xbc000000
    10ac:	786c3034 	stmdavc	ip!, {r2, r4, r5, ip, sp}^
    10b0:	7330322d 	teqvc	r0, #-805306366	; 0xd0000002
    10b4:	2f2f7270 	svccs	0x002f7270
    10b8:	7062696c 	rsbvc	r6, r2, ip, ror #18
    10bc:	682f0069 	stmdavs	pc!, {r0, r3, r5, r6}	; <UNPREDICTABLE>
    10c0:	2f656d6f 	svccs	0x00656d6f
    10c4:	6c676e65 	stclvs	14, cr6, [r7], #-404	; 0xfffffe6c
    10c8:	632f7265 	teqvs	pc, #1342177286	; 0x50000006
    10cc:	7373616c 	cmnvc	r3, #108, 2
    10d0:	3273632f 	rsbscc	r6, r3, #-1140850688	; 0xbc000000
    10d4:	786c3034 	stmdavc	ip!, {r2, r4, r5, ip, sp}^
    10d8:	7330322d 	teqvc	r0, #-805306366	; 0xd0000002
    10dc:	2f2f7270 	svccs	0x002f7270
    10e0:	7062696c 	rsbvc	r6, r2, ip, ror #18
    10e4:	74732f69 	ldrbtvc	r2, [r3], #-3945	; 0xf69
    10e8:	2d666661 	stclcs	6, cr6, [r6, #-388]!	; 0xfffffe7c
    10ec:	00637273 	rsbeq	r7, r3, r3, ror r2
    10f0:	69706700 	ldmdbvs	r0!, {r8, r9, sl, sp, lr}^
    10f4:	00632e6f 	rsbeq	r2, r3, pc, ror #28
    10f8:	6c000000 	stcvs	0, cr0, [r0], {-0}
    10fc:	2e6b636f 	cdpcs	3, 6, cr6, cr11, cr15, {3}
    1100:	00010068 	andeq	r0, r1, r8, rrx
    1104:	79745f00 	ldmdbvc	r4!, {r8, r9, sl, fp, ip, lr}^
    1108:	2e736570 	mrccs	5, 3, r6, cr3, cr0, {3}
    110c:	00010068 	andeq	r0, r1, r8, rrx
    1110:	64747300 	ldrbtvs	r7, [r4], #-768	; 0x300
    1114:	2e666564 	cdpcs	5, 6, cr6, cr6, cr4, {3}
    1118:	00020068 	andeq	r0, r2, r8, rrx
    111c:	65657200 	strbvs	r7, [r5, #-512]!	; 0x200
    1120:	682e746e 	stmdavs	lr!, {r1, r2, r3, r5, r6, sl, ip, sp, lr}
    1124:	00000100 	andeq	r0, r0, r0, lsl #2
    1128:	2e697072 	mcrcs	0, 3, r7, cr9, cr2, {3}
    112c:	00030068 	andeq	r0, r3, r8, rrx
    1130:	69706700 	ldmdbvs	r0!, {r8, r9, sl, sp, lr}^
    1134:	00682e6f 	rsbeq	r2, r8, pc, ror #28
    1138:	00000004 	andeq	r0, r0, r4
    113c:	f4020500 	vst3.8	{d0,d2,d4}, [r2], r0
    1140:	03000098 	movweq	r0, #152	; 0x98
    1144:	4c130127 	ldfmis	f0, [r3], {39}	; 0x27
    1148:	68f44f47 	ldmvs	r4!, {r0, r1, r2, r6, r8, r9, sl, fp, lr}^
    114c:	2fa14c4b 	svccs	0x00a14c4b
    1150:	3149136a 	cmpcc	r9, sl, ror #6
    1154:	314913be 	strhcc	r1, [r9, #-62]	; 0xffffffc2
    1158:	2f6a2fbe 	svccs	0x006a2fbe
    115c:	134f484d 	movtne	r4, #63565	; 0xf84d
    1160:	b72f3249 	strlt	r3, [pc, -r9, asr #4]!
    1164:	01000602 	tsteq	r0, r2, lsl #12
    1168:	00013401 	andeq	r3, r1, r1, lsl #8
    116c:	df000200 	svcle	0x00000200
    1170:	02000000 	andeq	r0, r0, #0
    1174:	0d0efb01 	vstreq	d15, [lr, #-4]
    1178:	01010100 	mrseq	r0, (UNDEF: 17)
    117c:	00000001 	andeq	r0, r0, r1
    1180:	01000001 	tsteq	r0, r1
    1184:	7273752f 	rsbsvc	r7, r3, #197132288	; 0xbc00000
    1188:	636e692f 	cmnvs	lr, #770048	; 0xbc000
    118c:	6564756c 	strbvs	r7, [r4, #-1388]!	; 0x56c
    1190:	77656e2f 	strbvc	r6, [r5, -pc, lsr #28]!
    1194:	2f62696c 	svccs	0x0062696c
    1198:	00737973 	rsbseq	r7, r3, r3, ror r9
    119c:	7273752f 	rsbsvc	r7, r3, #197132288	; 0xbc00000
    11a0:	62696c2f 	rsbvs	r6, r9, #12032	; 0x2f00
    11a4:	6363672f 	cmnvs	r3, #12320768	; 0xbc0000
    11a8:	6d72612f 	ldfvse	f6, [r2, #-188]!	; 0xffffff44
    11ac:	6e6f6e2d 	cdpvs	14, 6, cr6, cr15, cr13, {1}
    11b0:	61652d65 	cmnvs	r5, r5, ror #26
    11b4:	362f6962 	strtcc	r6, [pc], -r2, ror #18
    11b8:	312e332e 	teqcc	lr, lr, lsr #6
    11bc:	636e692f 	cmnvs	lr, #770048	; 0xbc000
    11c0:	6564756c 	strbvs	r7, [r4, #-1388]!	; 0x56c
    11c4:	6f682f00 	svcvs	0x00682f00
    11c8:	652f656d 	strvs	r6, [pc, #-1389]!	; c63 <_start-0x739d>
    11cc:	656c676e 	strbvs	r6, [ip, #-1902]!	; 0x76e
    11d0:	6c632f72 	stclvs	15, cr2, [r3], #-456	; 0xfffffe38
    11d4:	2f737361 	svccs	0x00737361
    11d8:	34327363 	ldrtcc	r7, [r2], #-867	; 0x363
    11dc:	2d786c30 	ldclcs	12, cr6, [r8, #-192]!	; 0xffffff40
    11e0:	70733032 	rsbsvc	r3, r3, r2, lsr r0
    11e4:	6c2f2f72 	stcvs	15, cr2, [pc], #-456	; 1024 <_start-0x6fdc>
    11e8:	69706269 	ldmdbvs	r0!, {r0, r3, r5, r6, r9, sp, lr}^
    11ec:	73752f00 	cmnvc	r5, #0, 30
    11f0:	6e692f72 	mcrvs	15, 3, r2, cr9, cr2, {3}
    11f4:	64756c63 	ldrbtvs	r6, [r5], #-3171	; 0xc63
    11f8:	656e2f65 	strbvs	r2, [lr, #-3941]!	; 0xf65
    11fc:	62696c77 	rsbvs	r6, r9, #30464	; 0x7700
    1200:	6d6b0000 	stclvs	0, cr0, [fp, #-0]
    1204:	6f6c6c61 	svcvs	0x006c6c61
    1208:	00632e63 	rsbeq	r2, r3, r3, ror #28
    120c:	6c000000 	stcvs	0, cr0, [r0], {-0}
    1210:	2e6b636f 	cdpcs	3, 6, cr6, cr11, cr15, {3}
    1214:	00010068 	andeq	r0, r1, r8, rrx
    1218:	79745f00 	ldmdbvc	r4!, {r8, r9, sl, fp, ip, lr}^
    121c:	2e736570 	mrccs	5, 3, r6, cr3, cr0, {3}
    1220:	00010068 	andeq	r0, r1, r8, rrx
    1224:	64747300 	ldrbtvs	r7, [r4], #-768	; 0x300
    1228:	2e666564 	cdpcs	5, 6, cr6, cr6, cr4, {3}
    122c:	00020068 	andeq	r0, r2, r8, rrx
    1230:	65657200 	strbvs	r7, [r5, #-512]!	; 0x200
    1234:	682e746e 	stmdavs	lr!, {r1, r2, r3, r5, r6, sl, ip, sp, lr}
    1238:	00000100 	andeq	r0, r0, r0, lsl #2
    123c:	2e697072 	mcrcs	0, 3, r7, cr9, cr2, {3}
    1240:	00030068 	andeq	r0, r3, r8, rrx
    1244:	72747300 	rsbsvc	r7, r4, #0, 6
    1248:	2e676e69 	cdpcs	14, 6, cr6, cr7, cr9, {3}
    124c:	00040068 	andeq	r0, r4, r8, rrx
    1250:	05000000 	streq	r0, [r0, #-0]
    1254:	009a1402 	addseq	r1, sl, r2, lsl #8
    1258:	01100300 	tsteq	r0, r0, lsl #6
    125c:	68018301 	stmdavs	r1, {r0, r8, r9, pc}
    1260:	02008314 	andeq	r8, r0, #20, 6	; 0x50000000
    1264:	007f0104 	rsbseq	r0, pc, r4, lsl #2
    1268:	30010402 	andcc	r0, r1, r2, lsl #8
    126c:	4b2f5c08 	blmi	bd8294 <__bss_end__+0xbcd89c>
    1270:	684b4b4c 	stmdavs	fp, {r2, r3, r6, r8, r9, fp, lr}^
    1274:	01040200 	mrseq	r0, R12_usr
    1278:	034a7903 	movteq	r7, #43267	; 0xa903
    127c:	2f580809 	svccs	0x00580809
    1280:	2f4e2e01 	svccs	0x004e2e01
    1284:	67674b6a 	strbvs	r4, [r7, -sl, ror #22]!
    1288:	02002f4c 	andeq	r2, r0, #76, 30	; 0x130
    128c:	76030104 	strvc	r0, [r3], -r4, lsl #2
    1290:	0402002e 	streq	r0, [r2], #-46	; 0x2e
    1294:	7a08dc01 	bvc	2382a0 <__bss_end__+0x22d8a8>
    1298:	019f012f 	orrseq	r0, pc, pc, lsr #2
    129c:	01000802 	tsteq	r0, r2, lsl #16
    12a0:	Address 0x00000000000012a0 is out of bounds.


Disassembly of section .debug_str:

00000000 <.debug_str>:
   0:	657a6973 	ldrbvs	r6, [sl, #-2419]!	; 0x973
   4:	6b00745f 	blvs	1d188 <__bss_end__+0x12790>
   8:	6c6c616d 	stfvse	f6, [ip], #-436	; 0xfffffe4c
   c:	695f636f 	ldmdbvs	pc, {r0, r1, r2, r3, r5, r6, r8, r9, sp, lr}^	; <UNPREDICTABLE>
  10:	5f74696e 	svcpl	0x0074696e
  14:	5f746573 	svcpl	0x00746573
  18:	72617473 	rsbvc	r7, r1, #1929379840	; 0x73000000
  1c:	6b630074 	blvs	18c01f4 <__bss_end__+0x18b57fc>
  20:	6f6c6c61 	svcvs	0x006c6c61
  24:	552f0063 	strpl	r0, [pc, #-99]!	; ffffffc9 <__bss_end__+0xffff55d1>
  28:	73726573 	cmnvc	r2, #482344960	; 0x1cc00000
  2c:	6972622f 	ldmdbvs	r2!, {r0, r1, r2, r3, r5, r9, sp, lr}^
  30:	756a6e61 	strbvc	r6, [sl, #-3681]!	; 0xe61
  34:	65442f6e 	strbvs	r2, [r4, #-3950]	; 0xf6e
  38:	6f746b73 	svcvs	0x00746b73
  3c:	63732f70 	cmnvs	r3, #112, 30	; 0x1c0
  40:	6c6f6f68 	stclvs	15, cr6, [pc], #-416	; fffffea8 <__bss_end__+0xffff54b0>
  44:	7270532f 	rsbsvc	r5, r0, #-1140850688	; 0xbc000000
  48:	31676e69 	cmncc	r7, r9, ror #28
  4c:	2f303239 	svccs	0x00303239
  50:	34325343 	ldrtcc	r5, [r2], #-835	; 0x343
  54:	2f584c30 	svccs	0x00584c30
  58:	34327363 	ldrtcc	r7, [r2], #-867	; 0x363
  5c:	2d786c30 	ldclcs	12, cr6, [r8, #-192]!	; 0xffffff40
  60:	70733032 	rsbsvc	r3, r3, r2, lsr r0
  64:	616c2f72 	smcvs	49906	; 0xc2f2
  68:	312f7362 	teqcc	pc, r2, ror #6
  6c:	63672d31 	cmnvs	r7, #3136	; 0xc40
  70:	646f632f 	strbtvs	r6, [pc], #-815	; 78 <_start-0x7f88>
  74:	4e470065 	cdpmi	0, 4, cr0, cr7, cr5, {3}
  78:	20432055 	subcs	r2, r3, r5, asr r0
  7c:	2e382e34 	mrccs	14, 1, r2, cr8, cr4, {1}
  80:	6d2d2033 	stcvs	0, cr2, [sp, #-204]!	; 0xffffff34
  84:	3d757063 	ldclcc	0, cr7, [r5, #-396]!	; 0xfffffe74
  88:	316d7261 	cmncc	sp, r1, ror #4
  8c:	6a363731 	bvs	d8dd58 <__bss_end__+0xd83360>
  90:	732d667a 	teqvc	sp, #127926272	; 0x7a00000
  94:	746d2d20 	strbtvc	r2, [sp], #-3360	; 0xd20
  98:	3d656e75 	stclcc	14, cr6, [r5, #-468]!	; 0xfffffe2c
  9c:	316d7261 	cmncc	sp, r1, ror #4
  a0:	6a363731 	bvs	d8dd6c <__bss_end__+0xd83374>
  a4:	732d667a 	teqvc	sp, #127926272	; 0x7a00000
  a8:	67672d20 	strbvs	r2, [r7, -r0, lsr #26]!
  ac:	2d206264 	sfmcs	f6, 4, [r0, #-400]!	; 0xfffffe70
  b0:	2d20674f 	stccs	7, cr6, [r0, #-316]!	; 0xfffffec4
  b4:	3d647473 	cfstrdcc	mvd7, [r4, #-460]!	; 0xfffffe34
  b8:	39756e67 	ldmdbcc	r5!, {r0, r1, r2, r5, r6, r9, sl, fp, sp, lr}^
  bc:	662d2039 			; <UNDEFINED> instruction: 0x662d2039
  c0:	65657266 	strbvs	r7, [r5, #-614]!	; 0x266
  c4:	6e617473 	mcrvs	4, 3, r7, cr1, cr3, {3}
  c8:	676e6964 	strbvs	r6, [lr, -r4, ror #18]!
  cc:	746f6e00 	strbtvc	r6, [pc], #-3584	; d4 <_start-0x7f2c>
  d0:	6e69616d 	powvsez	f6, f1, #5.0
  d4:	65686300 	strbvs	r6, [r8, #-768]!	; 0x300
  d8:	6e5f6b63 	vnmlavs.f64	d22, d15, d19
  dc:	656c5f6f 	strbvs	r5, [ip, #-3951]!	; 0xf6f
  e0:	75006b61 	strvc	r6, [r0, #-2913]	; 0xb61
  e4:	6769736e 	strbvs	r7, [r9, -lr, ror #6]!
  e8:	2064656e 	rsbcs	r6, r4, lr, ror #10
  ec:	72616863 	rsbvc	r6, r1, #6488064	; 0x630000
  f0:	6f687300 	svcvs	0x00687300
  f4:	75207472 	strvc	r7, [r0, #-1138]!	; 0x472
  f8:	6769736e 	strbvs	r7, [r9, -lr, ror #6]!
  fc:	2064656e 	rsbcs	r6, r4, lr, ror #10
 100:	00746e69 	rsbseq	r6, r4, r9, ror #28
 104:	6c616d6b 	stclvs	13, cr6, [r1], #-428	; 0xfffffe54
 108:	00636f6c 	rsbeq	r6, r3, ip, ror #30
 10c:	736d656d 	cmnvc	sp, #457179136	; 0x1b400000
 110:	5f007465 	svcpl	0x00007465
 114:	4e55465f 	mrcmi	6, 2, r4, cr5, cr15, {2}
 118:	4f495443 	svcmi	0x00495443
 11c:	005f5f4e 	subseq	r5, pc, lr, asr #30
 120:	74736574 	ldrbtvc	r6, [r3], #-1396	; 0x574
 124:	5f6b6300 	svcpl	0x006b6300
 128:	74696e69 	strbtvc	r6, [r9], #-3689	; 0xe69
 12c:	6e6f6c00 	cdpvs	12, 6, cr6, cr15, cr0, {0}
 130:	6f6c2067 	svcvs	0x006c2067
 134:	7520676e 	strvc	r6, [r0, #-1902]!	; 0x76e
 138:	6769736e 	strbvs	r7, [r9, -lr, ror #6]!
 13c:	2064656e 	rsbcs	r6, r4, lr, ror #10
 140:	00746e69 	rsbseq	r6, r4, r9, ror #28
 144:	626f6c67 	rsbvs	r6, pc, #26368	; 0x6700
 148:	705f6c61 	subsvc	r6, pc, r1, ror #24
 14c:	7a697300 	bvc	1a5cd54 <__bss_end__+0x1a5235c>
 150:	70797465 	rsbsvc	r7, r9, r5, ror #8
 154:	6f6c0065 	svcvs	0x006c0065
 158:	6c20676e 	stcvs	7, cr6, [r0], #-440	; 0xfffffe48
 15c:	20676e6f 	rsbcs	r6, r7, pc, ror #28
 160:	00746e69 	rsbseq	r6, r4, r9, ror #28
 164:	726f6873 	rsbvc	r6, pc, #7536640	; 0x730000
 168:	6e692074 	mcrvs	0, 3, r2, cr9, cr4, {3}
 16c:	69750074 	ldmdbvs	r5!, {r2, r4, r5, r6}^
 170:	3233746e 	eorscc	r7, r3, #1845493760	; 0x6e000000
 174:	7400745f 	strvc	r7, [r0], #-1119	; 0x45f
 178:	73747365 	cmnvc	r4, #-1811939327	; 0x94000001
 17c:	7261702f 	rsbvc	r7, r1, #47	; 0x2f
 180:	742d3274 	strtvc	r3, [sp], #-628	; 0x274
 184:	32747365 	rsbscc	r7, r4, #-1811939327	; 0x94000001
 188:	5f00632e 	svcpl	0x0000632e
 18c:	7461645f 	strbtvc	r6, [r1], #-1119	; 0x45f
 190:	74735f61 	ldrbtvc	r5, [r3], #-3937	; 0xf61
 194:	5f747261 	svcpl	0x00747261
 198:	5f5f005f 	svcpl	0x005f005f
 19c:	61746164 	cmnvs	r4, r4, ror #2
 1a0:	646e655f 	strbtvs	r6, [lr], #-1375	; 0x55f
 1a4:	63005f5f 	movwvs	r5, #3935	; 0xf5f
 1a8:	5f727275 	svcpl	0x00727275
 1ac:	626e0068 	rsbvs	r0, lr, #104	; 0x68
 1b0:	73657479 	cmnvc	r5, #2030043136	; 0x79000000
 1b4:	6572665f 	ldrbvs	r6, [r2, #-1631]!	; 0x65f
 1b8:	63006465 	movwvs	r6, #1125	; 0x465
 1bc:	69665f6b 	stmdbvs	r6!, {r0, r1, r3, r5, r6, r8, r9, sl, fp, ip, lr}^
 1c0:	5f747372 	svcpl	0x00747372
 1c4:	00726468 	rsbseq	r6, r2, r8, ror #8
 1c8:	76657270 			; <UNDEFINED> instruction: 0x76657270
 1cc:	646c6f00 	strbtvs	r6, [ip], #-3840	; 0xf00
 1d0:	72616d5f 	rsbvc	r6, r1, #6080	; 0x17c0
 1d4:	6166006b 	cmnvs	r6, fp, rrx
 1d8:	685f7473 	ldmdavs	pc, {r0, r1, r4, r5, r6, sl, ip, sp, lr}^	; <UNPREDICTABLE>
 1dc:	00687361 	rsbeq	r7, r8, r1, ror #6
 1e0:	7a725f62 	bvc	1c97f70 <__bss_end__+0x1c8d578>
 1e4:	74705f31 	ldrbtvc	r5, [r0], #-3889	; 0xf31
 1e8:	52460072 	subpl	r0, r6, #114	; 0x72
 1ec:	00444545 	subeq	r4, r4, r5, asr #10
 1f0:	4f4c4c41 	svcmi	0x004c4c41
 1f4:	00444543 	subeq	r4, r4, r3, asr #10
 1f8:	64615f62 	strbtvs	r5, [r1], #-3938	; 0xf62
 1fc:	745f7264 	ldrbvc	r7, [pc], #-612	; 204 <_start-0x7dfc>
 200:	64685f6f 	strbtvs	r5, [r8], #-3951	; 0xf6f
 204:	796d0072 	stmdbvc	sp!, {r1, r4, r5, r6}^
 208:	666e695f 			; <UNDEFINED> instruction: 0x666e695f
 20c:	6975006f 	ldmdbvs	r5!, {r0, r1, r2, r3, r5, r6}^
 210:	3631746e 	ldrtcc	r7, [r1], -lr, ror #8
 214:	4f00745f 	svcmi	0x0000745f
 218:	48524556 	ldmdami	r2, {r1, r2, r4, r6, r8, sl, lr}^
 21c:	5f444145 	svcpl	0x00444145
 220:	5459424e 	ldrbpl	r4, [r9], #-590	; 0x24e
 224:	63005345 	movwvs	r5, #837	; 0x345
 228:	65685f6b 	strbvs	r5, [r8, #-3947]!	; 0xf6b
 22c:	655f7061 	ldrbvs	r7, [pc, #-97]	; 1d3 <_start-0x7e2d>
 230:	726f7272 	rsbvc	r7, pc, #536870919	; 0x20000007
 234:	4c410073 	mcrrmi	0, 7, r0, r1, cr3
 238:	5f434f4c 	svcpl	0x00434f4c
 23c:	5346464f 	movtpl	r4, #26191	; 0x664f
 240:	72005445 	andvc	r5, r0, #1157627904	; 0x45000000
 244:	725f6970 	subsvc	r6, pc, #112, 18	; 0x1c0000
 248:	74657365 	strbtvc	r7, [r5], #-869	; 0x365
 24c:	7475705f 	ldrbtvc	r7, [r5], #-95	; 0x5f
 250:	6b630063 	blvs	18c03e4 <__bss_end__+0x18b59ec>
 254:	6f6c6c61 	svcvs	0x006c6c61
 258:	00632e63 	rsbeq	r2, r3, r3, ror #28
 25c:	72666b63 	rsbvc	r6, r6, #101376	; 0x18c00
 260:	63006565 	movwvs	r6, #1381	; 0x565
 264:	6b636568 	blvs	18d980c <__bss_end__+0x18cee14>
 268:	7461645f 	strbtvc	r6, [r1], #-1119	; 0x45f
 26c:	6b630061 	blvs	18c03f8 <__bss_end__+0x18b5a00>
 270:	78656e5f 	stmdavc	r5!, {r0, r1, r2, r3, r4, r6, r9, sl, fp, sp, lr}^
 274:	64685f74 	strbtvs	r5, [r8], #-3956	; 0xf74
 278:	6c630072 	stclvs	0, cr0, [r3], #-456	; 0xfffffe38
 27c:	5f6e6165 	svcpl	0x006e6165
 280:	6f626572 	svcvs	0x00626572
 284:	6100746f 	tstvs	r0, pc, ror #8
 288:	636f6c6c 	cmnvs	pc, #108, 24	; 0x6c00
 28c:	636f6c5f 	cmnvs	pc, #24320	; 0x5f00
 290:	72646800 	rsbvc	r6, r4, #0, 16
 294:	736b635f 	cmnvc	fp, #2080374785	; 0x7c000001
 298:	52006d75 	andpl	r6, r0, #7488	; 0x1d40
 29c:	4f5a4445 	svcmi	0x005a4445
 2a0:	6f00454e 	svcvs	0x0000454e
 2a4:	635f646c 	cmpvs	pc, #108, 8	; 0x6c000000
 2a8:	6d75736b 	ldclvs	3, cr7, [r5, #-428]!	; 0xfffffe54
 2ac:	79626e00 	stmdbvc	r2!, {r9, sl, fp, sp, lr}^
 2b0:	5f736574 	svcpl	0x00736574
 2b4:	6f6c6c61 	svcvs	0x006c6c61
 2b8:	72660063 	rsbvc	r0, r6, #99	; 0x63
 2bc:	6c5f6565 	cfldr64vs	mvdx6, [pc], {101}	; 0x65
 2c0:	6200636f 	andvs	r6, r0, #-1140850687	; 0xbc000001
 2c4:	6c6c615f 	stfvse	f6, [ip], #-380	; 0xfffffe84
 2c8:	705f636f 	subsvc	r6, pc, pc, ror #6
 2cc:	68007274 	stmdavs	r0, {r2, r4, r5, r6, r9, ip, sp, lr}
 2d0:	5f706165 	svcpl	0x00706165
 2d4:	6f666e69 	svcvs	0x00666e69
 2d8:	63727300 	cmnvs	r2, #0, 6
 2dc:	636f6c5f 	cmnvs	pc, #24320	; 0x5f00
 2e0:	6600745f 			; <UNDEFINED> instruction: 0x6600745f
 2e4:	74737269 	ldrbtvc	r7, [r3], #-617	; 0x269
 2e8:	65686300 	strbvs	r6, [r8, #-768]!	; 0x300
 2ec:	685f6b63 	ldmdavs	pc, {r0, r1, r5, r6, r8, r9, fp, sp, lr}^	; <UNPREDICTABLE>
 2f0:	62007264 	andvs	r7, r0, #100, 4	; 0x40000006
 2f4:	327a725f 	rsbscc	r7, sl, #-268435451	; 0xf0000005
 2f8:	7274705f 	rsbsvc	r7, r4, #95	; 0x5f
 2fc:	72656e00 	rsbvc	r6, r5, #0, 28
 300:	73726f72 	cmnvc	r2, #456	; 0x1c8
 304:	72646800 	rsbvc	r6, r4, #0, 16
 308:	6972705f 	ldmdbvs	r2!, {r0, r1, r2, r3, r4, r6, ip, sp, lr}^
 30c:	6e00746e 	cdpvs	4, 0, cr7, cr0, cr14, {3}
 310:	736b6c62 	cmnvc	fp, #25088	; 0x6200
 314:	4e455300 	cdpmi	3, 4, cr5, cr5, cr0, {0}
 318:	414e4954 	cmpmi	lr, r4, asr r9
 31c:	616d004c 	cmnvs	sp, ip, asr #32
 320:	6d5f6b72 	vldrvs	d22, [pc, #-456]	; 160 <_start-0x7ea0>
 324:	6f006d65 	svcvs	0x00006d65
 328:	725f646c 	subsvc	r6, pc, #108, 8	; 0x6c000000
 32c:	5f736665 	svcpl	0x00736665
 330:	6464696d 	strbtvs	r6, [r4], #-2413	; 0x96d
 334:	6e00656c 	cfsh32vs	mvfx6, mvfx0, #60
 338:	65747962 	ldrbvs	r7, [r4, #-2402]!	; 0x962
 33c:	6c615f73 	stclvs	15, cr5, [r1], #-460	; 0xfffffe34
 340:	65636f6c 	strbvs	r6, [r3, #-3948]!	; 0xf6c
 344:	68630064 	stmdavs	r3!, {r2, r5, r6}^
 348:	5f6b6365 	svcpl	0x006b6365
 34c:	636f6c62 	cmnvs	pc, #25088	; 0x6200
 350:	696c006b 	stmdbvs	ip!, {r0, r1, r3, r5, r6}^
 354:	6f6e656e 	svcvs	0x006e656e
 358:	725f6200 	subsvc	r6, pc, #0, 4
 35c:	6e5f327a 	mrcvs	2, 2, r3, cr15, cr10, {3}
 360:	65747962 	ldrbvs	r7, [r4, #-2402]!	; 0x962
 364:	69750073 	ldmdbvs	r5!, {r0, r1, r4, r5, r6}^
 368:	5f38746e 	svcpl	0x0038746e
 36c:	64680074 	strbtvs	r0, [r8], #-116	; 0x74
 370:	00745f72 	rsbseq	r5, r4, r2, ror pc
 374:	5f646c6f 	svcpl	0x00646c6f
 378:	73666572 	cmnvc	r6, #478150656	; 0x1c800000
 37c:	6174735f 	cmnvs	r4, pc, asr r3
 380:	6e007472 	mcrvs	4, 0, r7, cr0, cr2, {3}
 384:	65747962 	ldrbvs	r7, [r4, #-2402]!	; 0x962
 388:	65725f73 	ldrbvs	r5, [r2, #-3955]!	; 0xf73
 38c:	656c006d 	strbvs	r0, [ip, #-109]!	; 0x6d
 390:	63007466 	movwvs	r7, #1126	; 0x466
 394:	6b636568 	blvs	18d993c <__bss_end__+0x18cef44>
 398:	6d656d5f 	stclvs	13, cr6, [r5, #-380]!	; 0xfffffe84
 39c:	61656800 	cmnvs	r5, r0, lsl #16
 3a0:	00726564 	rsbseq	r6, r2, r4, ror #10
 3a4:	63617473 	cmnvs	r1, #1929379840	; 0x73000000
 3a8:	6f745f6b 	svcvs	0x00745f6b
 3ac:	61770070 	cmnvs	r7, r0, ror r0
 3b0:	6e5f6e72 	mrcvs	14, 2, r6, cr15, cr2, {3}
 3b4:	74735f6f 	ldrbtvc	r5, [r3], #-3951	; 0xf6f
 3b8:	5f747261 	svcpl	0x00747261
 3bc:	5f666572 	svcpl	0x00666572
 3c0:	6d690070 	stclvs	0, cr0, [r9, #-448]!	; 0xfffffe40
 3c4:	6d656c70 	stclvs	12, cr6, [r5, #-448]!	; 0xfffffe40
 3c8:	5f746e65 	svcpl	0x00746e65
 3cc:	73696874 	cmnvc	r9, #116, 16	; 0x740000
 3d0:	72756300 	rsbsvc	r6, r5, #0, 6
 3d4:	64685f72 	strbtvs	r5, [r8], #-3954	; 0xf72
 3d8:	6c6e0072 	stclvs	0, cr0, [lr], #-456	; 0xfffffe38
 3dc:	736b6165 	cmnvc	fp, #1073741849	; 0x40000019
 3e0:	65777300 	ldrbvs	r7, [r7, #-768]!	; 0x300
 3e4:	665f7065 	ldrbvs	r7, [pc], -r5, rrx
 3e8:	00656572 	rsbeq	r6, r5, r2, ror r5
 3ec:	6279616d 	rsbsvs	r6, r9, #1073741851	; 0x4000001b
 3f0:	72655f65 	rsbvc	r5, r5, #404	; 0x194
 3f4:	73726f72 	cmnvc	r2, #456	; 0x1c8
 3f8:	5f6b6300 	svcpl	0x006b6300
 3fc:	63006367 	movwvs	r6, #871	; 0x367
 400:	69665f6b 	stmdbvs	r6!, {r0, r1, r3, r5, r6, r8, r9, sl, fp, ip, lr}^
 404:	6c5f646e 	cfldrdvs	mvd6, [pc], {110}	; 0x6e
 408:	736b6165 	cmnvc	fp, #1073741849	; 0x40000019
 40c:	625f5f00 	subsvs	r5, pc, #0, 30
 410:	735f7373 	cmpvc	pc, #-872415231	; 0xcc000001
 414:	74726174 	ldrbtvc	r6, [r2], #-372	; 0x174
 418:	5f005f5f 	svcpl	0x00005f5f
 41c:	7373625f 	cmnvc	r3, #-268435451	; 0xf0000005
 420:	646e655f 	strbtvs	r6, [lr], #-1375	; 0x55f
 424:	73005f5f 	movwvc	r5, #3935	; 0xf5f
 428:	70656577 	rsbvc	r6, r5, r7, ror r5
 42c:	61656c5f 	cmnvs	r5, pc, asr ip
 430:	6e69006b 	cdpvs	0, 6, cr0, cr9, cr11, {3}
 434:	6165685f 	cmnvs	r5, pc, asr r8
 438:	75630070 	strbvc	r0, [r3, #-112]!	; 0x70
 43c:	63007272 	movwvs	r7, #626	; 0x272
 440:	6b636568 	blvs	18d99e8 <__bss_end__+0x18ceff0>
 444:	6f68735f 	svcvs	0x0068735f
 448:	5f646c75 	svcpl	0x00646c75
 44c:	6b61656c 	blvs	1859a04 <__bss_end__+0x184f00c>
 450:	6d756400 	cfldrdvs	mvd6, [r5, #-0]
 454:	65725f70 	ldrbvs	r5, [r2, #-3952]!	; 0xf70
 458:	6e007367 	cdpvs	3, 0, cr7, cr0, cr7, {3}
 45c:	65657266 	strbvs	r7, [r5, #-614]!	; 0x266
 460:	6b630064 	blvs	18c05f8 <__bss_end__+0x18b5c00>
 464:	2e63672d 	cdpcs	7, 6, cr6, cr3, cr13, {1}
 468:	616d0063 	cmnvs	sp, r3, rrx
 46c:	615f6b72 	cmpvs	pc, r2, ror fp	; <UNPREDICTABLE>
 470:	69006c6c 	stmdbvs	r0, {r2, r3, r5, r6, sl, fp, sp, lr}
 474:	74705f73 	ldrbtvc	r5, [r0], #-3955	; 0xf73
 478:	626e0072 	rsbvs	r0, lr, #114	; 0x72
 47c:	6b636f6c 	blvs	18dc234 <__bss_end__+0x18d183c>
 480:	696c0073 	stmdbvs	ip!, {r0, r1, r4, r5, r6}^
 484:	682f6362 	stmdavs	pc!, {r1, r5, r6, r8, r9, sp, lr}	; <UNPREDICTABLE>
 488:	2e687361 	cdpcs	3, 6, cr7, cr8, cr1, {3}
 48c:	552f0063 	strpl	r0, [pc, #-99]!	; 431 <_start-0x7bcf>
 490:	73726573 	cmnvc	r2, #482344960	; 0x1cc00000
 494:	6972622f 	ldmdbvs	r2!, {r0, r1, r2, r3, r5, r9, sp, lr}^
 498:	756a6e61 	strbvc	r6, [sl, #-3681]!	; 0xe61
 49c:	65442f6e 	strbvs	r2, [r4, #-3950]	; 0xf6e
 4a0:	6f746b73 	svcvs	0x00746b73
 4a4:	63732f70 	cmnvs	r3, #112, 30	; 0x1c0
 4a8:	6c6f6f68 	stclvs	15, cr6, [pc], #-416	; 310 <_start-0x7cf0>
 4ac:	7270532f 	rsbsvc	r5, r0, #-1140850688	; 0xbc000000
 4b0:	31676e69 	cmncc	r7, r9, ror #28
 4b4:	2f303239 	svccs	0x00303239
 4b8:	34325343 	ldrtcc	r5, [r2], #-835	; 0x343
 4bc:	2f584c30 	svccs	0x00584c30
 4c0:	34327363 	ldrtcc	r7, [r2], #-867	; 0x363
 4c4:	2d786c30 	ldclcs	12, cr6, [r8, #-192]!	; 0xffffff40
 4c8:	70733032 	rsbsvc	r3, r3, r2, lsr r0
 4cc:	696c2f72 	stmdbvs	ip!, {r1, r4, r5, r6, r8, r9, sl, fp, sp}^
 4d0:	00697062 	rsbeq	r7, r9, r2, rrx
 4d4:	6362696c 	cmnvs	r2, #108, 18	; 0x1b0000
 4d8:	6d656d2f 	stclvs	13, cr6, [r5, #-188]!	; 0xffffff44
 4dc:	2e746573 	mrccs	5, 3, r6, cr4, cr3, {3}
 4e0:	5f5f0063 	svcpl	0x005f0063
 4e4:	63756e67 	cmnvs	r5, #1648	; 0x670
 4e8:	5f61765f 	svcpl	0x0061765f
 4ec:	7473696c 	ldrbtvc	r6, [r3], #-2412	; 0x96c
 4f0:	62696c00 	rsbvs	r6, r9, #0, 24
 4f4:	72702f63 	rsbsvc	r2, r0, #396	; 0x18c
 4f8:	6b746e69 	blvs	1d1bea4 <__bss_end__+0x1d114ac>
 4fc:	7600632e 	strvc	r6, [r0], -lr, lsr #6
 500:	72705f61 	rsbsvc	r5, r0, #388	; 0x184
 504:	6b746e69 	blvs	1d1beb0 <__bss_end__+0x1d114b8>
 508:	765f5f00 	ldrbvc	r5, [pc], -r0, lsl #30
 50c:	696c5f61 	stmdbvs	ip!, {r0, r5, r6, r8, r9, sl, fp, ip, lr}^
 510:	5f007473 	svcpl	0x00007473
 514:	0070615f 	rsbseq	r6, r0, pc, asr r1
 518:	74726175 	ldrbtvc	r6, [r2], #-373	; 0x175
 51c:	7475705f 	ldrbtvc	r7, [r5], #-95	; 0x5f
 520:	6e690063 	cdpvs	0, 6, cr0, cr9, cr3, {3}
 524:	6e726574 	mrcvs	5, 3, r6, cr2, cr4, {3}
 528:	705f6c61 	subsvc	r6, pc, r1, ror #24
 52c:	68637475 	stmdavs	r3!, {r0, r2, r4, r5, r6, sl, ip, sp, lr}^
 530:	72007261 	andvc	r7, r0, #268435462	; 0x10000006
 534:	705f6970 	subsvc	r6, pc, r0, ror r9	; <UNPREDICTABLE>
 538:	68637475 	stmdavs	r3!, {r0, r2, r4, r5, r6, sl, ip, sp, lr}^
 53c:	6c007261 	sfmvs	f7, 4, [r0], {97}	; 0x61
 540:	2f636269 	svccs	0x00636269
 544:	63747570 	cmnvs	r4, #112, 10	; 0x1c000000
 548:	2e726168 	rpwcssz	f6, f2, #0.0
 54c:	70720063 	rsbsvc	r0, r2, r3, rrx
 550:	65735f69 	ldrbvs	r5, [r3, #-3945]!	; 0xf69
 554:	75705f74 	ldrbvc	r5, [r0, #-3956]!	; 0xf74
 558:	6c006374 	stcvs	3, cr6, [r0], {116}	; 0x74
 55c:	2f636269 	svccs	0x00636269
 560:	6b747570 	blvs	1d1db28 <__bss_end__+0x1d13130>
 564:	6900632e 	stmdbvs	r0, {r1, r2, r3, r5, r8, r9, sp, lr}
 568:	7265746e 	rsbvc	r7, r5, #1845493760	; 0x6e000000
 56c:	5f6c616e 	svcpl	0x006c616e
 570:	6b747570 	blvs	1d1db38 <__bss_end__+0x1d13140>
 574:	67656e00 	strbvs	r6, [r5, -r0, lsl #28]!
 578:	7200705f 	andvc	r7, r0, #95	; 0x5f
 57c:	72657665 	rsbvc	r7, r5, #105906176	; 0x6500000
 580:	69006573 	stmdbvs	r0, {r0, r1, r4, r5, r6, r8, sl, sp, lr}
 584:	67696473 			; <UNDEFINED> instruction: 0x67696473
 588:	70007469 	andvc	r7, r0, r9, ror #8
 58c:	5f737475 	svcpl	0x00737475
 590:	73007066 	movwvc	r7, #102	; 0x66
 594:	656e6769 	strbvs	r6, [lr, #-1897]!	; 0x769
 598:	00705f64 	rsbseq	r5, r0, r4, ror #30
 59c:	6362696c 	cmnvs	r2, #108, 18	; 0x1b0000
 5a0:	2d61762f 	stclcs	6, cr7, [r1, #-188]!	; 0xffffff44
 5a4:	6e697270 	mcrvs	2, 3, r7, cr9, cr0, {3}
 5a8:	632e6b74 	teqvs	lr, #116, 22	; 0x1d000
 5ac:	69707200 	ldmdbvs	r0!, {r9, ip, sp, lr}^
 5b0:	7465735f 	strbtvc	r7, [r5], #-863	; 0x35f
 5b4:	74756f5f 	ldrbtvc	r6, [r5], #-3935	; 0xf5f
 5b8:	00747570 	rsbseq	r7, r4, r0, ror r5
 5bc:	74646977 	strbtvc	r6, [r4], #-2423	; 0x977
 5c0:	75700068 	ldrbvc	r0, [r0, #-104]!	; 0x68
 5c4:	665f6374 			; <UNDEFINED> instruction: 0x665f6374
 5c8:	6d650070 	stclvs	0, cr0, [r5, #-448]!	; 0xfffffe40
 5cc:	73007469 	movwvc	r7, #1129	; 0x469
 5d0:	66666174 			; <UNDEFINED> instruction: 0x66666174
 5d4:	6372732d 	cmnvs	r2, #-1275068416	; 0xb4000000
 5d8:	656c632f 	strbvs	r6, [ip, #-815]!	; 0x32f
 5dc:	722d6e61 	eorvc	r6, sp, #1552	; 0x610
 5e0:	6f6f6265 	svcvs	0x006f6265
 5e4:	00632e74 	rsbeq	r2, r3, r4, ror lr
 5e8:	5f697072 	svcpl	0x00697072
 5ec:	6f626572 	svcvs	0x00626572
 5f0:	6400746f 	strvs	r7, [r0], #-1135	; 0x46f
 5f4:	79616c65 	stmdbvc	r1!, {r0, r2, r5, r6, sl, fp, sp, lr}^
 5f8:	00736d5f 	rsbseq	r6, r3, pc, asr sp
 5fc:	5f737362 	svcpl	0x00737362
 600:	00646e65 	rsbeq	r6, r4, r5, ror #28
 604:	7473635f 	ldrbtvc	r6, [r3], #-863	; 0x35f
 608:	00747261 	rsbseq	r7, r4, r1, ror #4
 60c:	66617473 			; <UNDEFINED> instruction: 0x66617473
 610:	72732d66 	rsbsvc	r2, r3, #6528	; 0x1980
 614:	73632f63 	cmnvc	r3, #396	; 0x18c
 618:	74726174 	ldrbtvc	r6, [r2], #-372	; 0x174
 61c:	6100632e 	tstvs	r0, lr, lsr #6
 620:	73755f74 	cmnvc	r5, #116, 30	; 0x1d0
 624:	6c5f7265 	lfmvs	f7, 2, [pc], {101}	; 0x65
 628:	6c657665 	stclvs	6, cr7, [r5], #-404	; 0xfffffe6c
 62c:	61747300 	cmnvs	r4, r0, lsl #6
 630:	732d6666 	teqvc	sp, #106954752	; 0x6600000
 634:	722f6372 	eorvc	r6, pc, #-939524095	; 0xc8000001
 638:	6f6f6265 	svcvs	0x006f6265
 63c:	00632e74 	rsbeq	r2, r3, r4, ror lr
 640:	525f4d50 	subspl	r4, pc, #80, 26	; 0x1400
 644:	5f435453 	svcpl	0x00435453
 648:	46435257 			; <UNDEFINED> instruction: 0x46435257
 64c:	55465f47 	strbpl	r5, [r6, #-3911]	; 0xf47
 650:	525f4c4c 	subspl	r4, pc, #76, 24	; 0x4c00
 654:	54455345 	strbpl	r5, [r5], #-837	; 0x345
 658:	5f4d5000 	svcpl	0x004d5000
 65c:	474f4457 	smlsldmi	r4, pc, r7, r4	; <UNPREDICTABLE>
 660:	74657300 	strbtvc	r7, [r5], #-768	; 0x300
 664:	6573755f 	ldrbvs	r7, [r3, #-1375]!	; 0x55f
 668:	656c5f72 	strbvs	r5, [ip, #-3954]!	; 0xf72
 66c:	006c6576 	rsbeq	r6, ip, r6, ror r5
 670:	33545550 	cmpcc	r4, #80, 10	; 0x14000000
 674:	4d500032 	ldclmi	0, cr0, [r0, #-200]	; 0xffffff38
 678:	5341505f 	movtpl	r5, #4191	; 0x105f
 67c:	524f5753 	subpl	r5, pc, #21757952	; 0x14c0000
 680:	4d500044 	ldclmi	0, cr0, [r0, #-272]	; 0xfffffef0
 684:	5453525f 	ldrbpl	r5, [r3], #-607	; 0x25f
 688:	70630043 	rsbvc	r0, r3, r3, asr #32
 68c:	74007273 	strvc	r7, [r0], #-627	; 0x273
 690:	72656d69 	rsbvc	r6, r5, #6720	; 0x1a40
 694:	7465675f 	strbtvc	r6, [r5], #-1887	; 0x75f
 698:	6573755f 	ldrbvs	r7, [r3, #-1375]!	; 0x55f
 69c:	61725f63 	cmnvs	r2, r3, ror #30
 6a0:	65640077 	strbvs	r0, [r4, #-119]!	; 0x77
 6a4:	5f79616c 	svcpl	0x0079616c
 6a8:	00636573 	rsbeq	r6, r3, r3, ror r5
 6ac:	66617473 			; <UNDEFINED> instruction: 0x66617473
 6b0:	72732d66 	rsbsvc	r2, r3, #6528	; 0x1980
 6b4:	69742f63 	ldmdbvs	r4!, {r0, r1, r5, r6, r8, r9, sl, fp, sp}^
 6b8:	2e72656d 	cdpcs	5, 7, cr6, cr2, cr13, {3}
 6bc:	45470063 	strbmi	r0, [r7, #-99]	; 0x63
 6c0:	00323354 	eorseq	r3, r2, r4, asr r3
 6c4:	6b636974 	blvs	18dac9c <__bss_end__+0x18d02a4>
 6c8:	65640073 	strbvs	r0, [r4, #-115]!	; 0x73
 6cc:	5f79616c 	svcpl	0x0079616c
 6d0:	6c637963 	stclvs	9, cr7, [r3], #-396	; 0xfffffe74
 6d4:	64007365 	strvs	r7, [r0], #-869	; 0x365
 6d8:	79616c65 	stmdbvc	r1!, {r0, r2, r5, r6, sl, fp, sp, lr}^
 6dc:	0073755f 	rsbseq	r7, r3, pc, asr r5
 6e0:	656d6974 	strbvs	r6, [sp, #-2420]!	; 0x974
 6e4:	65675f72 	strbvs	r5, [r7, #-3954]!	; 0xf72
 6e8:	73755f74 	cmnvc	r5, #116, 30	; 0x1d0
 6ec:	5f006365 	svcpl	0x00006365
 6f0:	5f6f7364 	svcpl	0x006f7364
 6f4:	646e6168 	strbtvs	r6, [lr], #-360	; 0x168
 6f8:	5f00656c 	svcpl	0x0000656c
 6fc:	657a6973 	ldrbvs	r6, [sl, #-2419]!	; 0x973
 700:	61725f00 	cmnvs	r2, r0, lsl #30
 704:	3834646e 	ldmdacc	r4!, {r1, r2, r3, r5, r6, sl, sp, lr}
 708:	6d655f00 	stclvs	15, cr5, [r5, #-0]
 70c:	65677265 	strbvs	r7, [r7, #-613]!	; 0x265
 710:	0079636e 	rsbseq	r6, r9, lr, ror #6
 714:	74726175 	ldrbtvc	r6, [r2], #-373	; 0x175
 718:	696e695f 	stmdbvs	lr!, {r0, r1, r2, r3, r4, r6, r8, fp, sp, lr}^
 71c:	775f0074 			; <UNDEFINED> instruction: 0x775f0074
 720:	6f747263 	svcvs	0x00747263
 724:	735f626d 	cmpvc	pc, #-805306362	; 0xd0000006
 728:	65746174 	ldrbvs	r6, [r4, #-372]!	; 0x174
 72c:	63775f00 	cmnvs	r7, #0, 30
 730:	6f747273 	svcvs	0x00747273
 734:	5f73626d 	svcpl	0x0073626d
 738:	74617473 	strbtvc	r7, [r1], #-1139	; 0x473
 73c:	6c5f0065 	mrrcvs	0, 6, r0, pc, cr5	; <UNPREDICTABLE>
 740:	69736662 	ldmdbvs	r3!, {r1, r5, r6, r9, sl, sp, lr}^
 744:	4700657a 	smlsdxmi	r0, sl, r5, r6
 748:	5f4f4950 	svcpl	0x004f4950
 74c:	434e5546 	movtmi	r5, #58694	; 0xe546
 750:	504e495f 	subpl	r4, lr, pc, asr r9
 754:	5f005455 	svcpl	0x00005455
 758:	7472626d 	ldrbtvc	r6, [r2], #-621	; 0x26d
 75c:	5f63776f 	svcpl	0x0063776f
 760:	74617473 	strbtvc	r7, [r1], #-1139	; 0x473
 764:	775f0065 	ldrbvc	r0, [pc, -r5, rrx]
 768:	6d6f7463 	cfstrdvs	mvd7, [pc, #-396]!	; 5e4 <_start-0x7a1c>
 76c:	74735f62 	ldrbtvc	r5, [r3], #-3938	; 0xf62
 770:	00657461 	rsbeq	r7, r5, r1, ror #8
 774:	6d745f5f 	ldclvs	15, cr5, [r4, #-380]!	; 0xfffffe84
 778:	6365735f 	cmnvs	r5, #2080374785	; 0x7c000001
 77c:	61747300 	cmnvs	r4, r0, lsl #6
 780:	755f0074 	ldrbvc	r0, [pc, #-116]	; 714 <_start-0x78ec>
 784:	00667562 	rsbeq	r7, r6, r2, ror #10
 788:	4f495047 	svcmi	0x00495047
 78c:	4e55465f 	mrcmi	6, 2, r4, cr5, cr15, {2}
 790:	4c415f43 	mcrrmi	15, 4, r5, r1, cr3
 794:	5f003154 	svcpl	0x00003154
 798:	65736162 	ldrbvs	r6, [r3, #-354]!	; 0x162
 79c:	746e6300 	strbtvc	r6, [lr], #-768	; 0x300
 7a0:	5f5f006c 	svcpl	0x005f006c
 7a4:	685f6d74 	ldmdavs	pc, {r2, r4, r5, r6, r8, sl, fp, sp, lr}^	; <UNPREDICTABLE>
 7a8:	0072756f 	rsbseq	r7, r2, pc, ror #10
 7ac:	66735f5f 	uhsaxvs	r5, r3, pc	; <UNPREDICTABLE>
 7b0:	6e6f5f00 	cdpvs	15, 6, cr5, cr15, cr0, {0}
 7b4:	6978655f 	ldmdbvs	r8!, {r0, r1, r2, r3, r4, r6, r8, sl, sp, lr}^
 7b8:	72615f74 	rsbvc	r5, r1, #116, 30	; 0x1d0
 7bc:	5f007367 	svcpl	0x00007367
 7c0:	6b6f6f63 	blvs	1bdc554 <__bss_end__+0x1bd1b5c>
 7c4:	5f006569 	svcpl	0x00006569
 7c8:	6c67735f 	stclvs	3, cr7, [r7], #-380	; 0xfffffe84
 7cc:	5f006575 	svcpl	0x00006575
 7d0:	67616c66 	strbvs	r6, [r1, -r6, ror #24]!
 7d4:	695f0073 	ldmdbvs	pc, {r0, r1, r4, r5, r6}^	; <UNPREDICTABLE>
 7d8:	78635f73 	stmdavc	r3!, {r0, r1, r4, r5, r6, r8, r9, sl, fp, ip, lr}^
 7dc:	735f0061 	cmpvc	pc, #97	; 0x61
 7e0:	6e696474 	mcrvs	4, 3, r6, cr9, cr4, {3}
 7e4:	6c625f00 	stclvs	15, cr5, [r2], #-0
 7e8:	7a69736b 	bvc	1a5d59c <__bss_end__+0x1a52ba4>
 7ec:	61750065 	cmnvs	r5, r5, rrx
 7f0:	632e7472 	teqvs	lr, #1912602624	; 0x72000000
 7f4:	78756100 	ldmdavc	r5!, {r8, sp, lr}^
 7f8:	7265705f 	rsbvc	r7, r5, #95	; 0x5f
 7fc:	73687069 	cmnvc	r8, #105	; 0x69
 800:	76635f00 	strbtvc	r5, [r3], -r0, lsl #30
 804:	66756274 			; <UNDEFINED> instruction: 0x66756274
 808:	6f682f00 	svcvs	0x00682f00
 80c:	652f656d 	strvs	r6, [pc, #-1389]!	; 2a7 <_start-0x7d59>
 810:	656c676e 	strbvs	r6, [ip, #-1902]!	; 0x76e
 814:	6c632f72 	stclvs	15, cr2, [r3], #-456	; 0xfffffe38
 818:	2f737361 	svccs	0x00737361
 81c:	34327363 	ldrtcc	r7, [r2], #-867	; 0x363
 820:	2d786c30 	ldclcs	12, cr6, [r8, #-192]!	; 0xffffff40
 824:	70733032 	rsbsvc	r3, r3, r2, lsr r0
 828:	696c2f72 	stmdbvs	ip!, {r1, r4, r5, r6, r8, r9, sl, fp, sp}^
 82c:	2f697062 	svccs	0x00697062
 830:	66617473 			; <UNDEFINED> instruction: 0x66617473
 834:	72702d66 	rsbsvc	r2, r0, #6528	; 0x1980
 838:	74617669 	strbtvc	r7, [r1], #-1641	; 0x669
 83c:	6d5f0065 	ldclvs	0, cr0, [pc, #-404]	; 6b0 <_start-0x7950>
 840:	74727362 	ldrbtvc	r7, [r2], #-866	; 0x362
 844:	7363776f 	cmnvc	r3, #29097984	; 0x1bc0000
 848:	6174735f 	cmnvs	r4, pc, asr r3
 84c:	5f006574 	svcpl	0x00006574
 850:	6c72626d 	lfmvs	f6, 2, [r2], #-436	; 0xfffffe4c
 854:	735f6e65 	cmpvc	pc, #1616	; 0x650
 858:	65746174 	ldrbvs	r6, [r4, #-372]!	; 0x174
 85c:	6e665f00 	cdpvs	15, 6, cr5, cr6, cr0, {0}
 860:	73677261 	cmnvc	r7, #268435462	; 0x10000006
 864:	78756100 	ldmdavc	r5!, {r8, sp, lr}^
 868:	616e655f 	cmnvs	lr, pc, asr r5
 86c:	73656c62 	cmnvc	r5, #25088	; 0x6200
 870:	6e665f00 	cdpvs	15, 6, cr5, cr6, cr0, {0}
 874:	735f0073 	cmpvc	pc, #115	; 0x73
 878:	006e6769 	rsbeq	r6, lr, r9, ror #14
 87c:	74726175 	ldrbtvc	r6, [r2], #-373	; 0x175
 880:	6e61635f 	mcrvs	3, 3, r6, cr1, cr15, {2}
 884:	7475705f 	ldrbtvc	r7, [r5], #-95	; 0x5f
 888:	665f0063 	ldrbvs	r0, [pc], -r3, rrx
 88c:	6b636f6c 	blvs	18dc644 <__bss_end__+0x18d1c4c>
 890:	5f00745f 	svcpl	0x0000745f
 894:	65647473 	strbvs	r7, [r4, #-1139]!	; 0x473
 898:	5f007272 	svcpl	0x00007272
 89c:	69676942 	stmdbvs	r7!, {r1, r6, r8, fp, sp, lr}^
 8a0:	5f00746e 	svcpl	0x0000746e
 8a4:	6d6d6167 	stfvse	f6, [sp, #-412]!	; 0xfffffe64
 8a8:	69735f61 	ldmdbvs	r3!, {r0, r5, r6, r8, r9, sl, fp, ip, lr}^
 8ac:	61676e67 	cmnvs	r7, r7, ror #28
 8b0:	725f006d 	subsvc	r0, pc, #109	; 0x6d
 8b4:	6c757365 	ldclvs	3, cr7, [r5], #-404	; 0xfffffe6c
 8b8:	006b5f74 	rsbeq	r5, fp, r4, ror pc
 8bc:	6d745f5f 	ldclvs	15, cr5, [r4, #-380]!	; 0xfffffe84
 8c0:	775f5f00 	ldrbvc	r5, [pc, -r0, lsl #30]
 8c4:	00626863 	rsbeq	r6, r2, r3, ror #16
 8c8:	74726175 	ldrbtvc	r6, [r2], #-373	; 0x175
 8cc:	7465675f 	strbtvc	r6, [r5], #-1887	; 0x75f
 8d0:	735f0063 	cmpvc	pc, #99	; 0x63
 8d4:	756f6474 	strbvc	r6, [pc, #-1140]!	; 468 <_start-0x7b98>
 8d8:	635f0074 	cmpvs	pc, #116	; 0x74
 8dc:	656c7476 	strbvs	r7, [ip, #-1142]!	; 0x476
 8e0:	665f006e 	ldrbvs	r0, [pc], -lr, rrx
 8e4:	00656c69 	rsbeq	r6, r5, r9, ror #24
 8e8:	6f696e5f 	svcvs	0x00696e5f
 8ec:	5f007362 	svcpl	0x00007362
 8f0:	78657461 	stmdavc	r5!, {r0, r5, r6, sl, ip, sp, lr}^
 8f4:	00307469 	eorseq	r7, r0, r9, ror #8
 8f8:	6769735f 			; <UNDEFINED> instruction: 0x6769735f
 8fc:	5f6c616e 	svcpl	0x006c616e
 900:	00667562 	rsbeq	r7, r6, r2, ror #10
 904:	6373615f 	cmnvs	r3, #-1073741801	; 0xc0000017
 908:	656d6974 	strbvs	r6, [sp, #-2420]!	; 0x974
 90c:	6675625f 			; <UNDEFINED> instruction: 0x6675625f
 910:	76656400 	strbtvc	r6, [r5], -r0, lsl #8
 914:	7261625f 	rsbvc	r6, r1, #-268435451	; 0xf0000005
 918:	72656972 	rsbvc	r6, r5, #1867776	; 0x1c8000
 91c:	65725f00 	ldrbvs	r5, [r2, #-3840]!	; 0xf00
 920:	746c7573 	strbtvc	r7, [ip], #-1395	; 0x573
 924:	775f5f00 	ldrbvc	r5, [pc, -r0, lsl #30]
 928:	47006863 	strmi	r6, [r0, -r3, ror #16]
 92c:	5f4f4950 	svcpl	0x004f4950
 930:	434e5546 	movtmi	r5, #58694	; 0xe546
 934:	544c415f 	strbpl	r4, [ip], #-351	; 0x15f
 938:	69770032 	ldmdbvs	r7!, {r1, r4, r5}^
 93c:	745f746e 	ldrbvc	r7, [pc], #-1134	; 944 <_start-0x76bc>
 940:	6f6c5f00 	svcvs	0x006c5f00
 944:	5f006b63 	svcpl	0x00006b63
 948:	67616c66 	strbvs	r6, [r1, -r6, ror #24]!
 94c:	5f003273 	svcpl	0x00003273
 950:	5f6d745f 	svcpl	0x006d745f
 954:	72616579 	rsbvc	r6, r1, #507510784	; 0x1e400000
 958:	666f5f00 	strbtvs	r5, [pc], -r0, lsl #30
 95c:	74657366 	strbtvc	r7, [r5], #-870	; 0x366
 960:	69706700 	ldmdbvs	r0!, {r8, r9, sl, sp, lr}^
 964:	65735f6f 	ldrbvs	r5, [r3, #-3951]!	; 0xf6f
 968:	75665f74 	strbvc	r5, [r6, #-3956]!	; 0xf74
 96c:	6974636e 	ldmdbvs	r4!, {r1, r2, r3, r5, r6, r8, r9, sp, lr}^
 970:	5f006e6f 	svcpl	0x00006e6f
 974:	7478656e 	ldrbtvc	r6, [r8], #-1390	; 0x56e
 978:	5f5f0066 	svcpl	0x005f0066
 97c:	6d5f6d74 	ldclvs	13, cr6, [pc, #-464]	; 7b4 <_start-0x784c>
 980:	5f006e6f 	svcpl	0x00006e6f
 984:	78657461 	stmdavc	r5!, {r0, r5, r6, sl, ip, sp, lr}^
 988:	5f007469 	svcpl	0x00007469
 98c:	6964735f 	stmdbvs	r4!, {r0, r1, r2, r3, r4, r6, r8, r9, ip, sp, lr}^
 990:	696e6964 	stmdbvs	lr!, {r2, r5, r6, r8, fp, sp, lr}^
 994:	6f5f0074 	svcvs	0x005f0074
 998:	745f6666 	ldrbvc	r6, [pc], #-1638	; 9a0 <_start-0x7660>
 99c:	72617500 	rsbvc	r7, r1, #0, 10
 9a0:	665f0074 			; <UNDEFINED> instruction: 0x665f0074
 9a4:	6c656572 	cfstr64vs	mvdx6, [r5], #-456	; 0xfffffe38
 9a8:	00747369 	rsbseq	r7, r4, r9, ror #6
 9ac:	434f4c5f 	movtmi	r4, #64607	; 0xfc5f
 9b0:	45525f4b 	ldrbmi	r5, [r2, #-3915]	; 0xf4b
 9b4:	53525543 	cmppl	r2, #281018368	; 0x10c00000
 9b8:	5f455649 	svcpl	0x00455649
 9bc:	6e5f0054 	mrcvs	0, 2, r0, cr15, cr4, {2}
 9c0:	5f007765 	svcpl	0x00007765
 9c4:	72655f68 	rsbvc	r5, r5, #104, 30	; 0x1a0
 9c8:	006f6e72 	rsbeq	r6, pc, r2, ror lr	; <UNPREDICTABLE>
 9cc:	6d745f5f 	ldclvs	15, cr5, [r4, #-380]!	; 0xfffffe84
 9d0:	6164795f 	cmnvs	r4, pc, asr r9
 9d4:	5f5f0079 	svcpl	0x005f0079
 9d8:	66756273 			; <UNDEFINED> instruction: 0x66756273
 9dc:	6f695f00 	svcvs	0x00695f00
 9e0:	5f007362 	svcpl	0x00007362
 9e4:	4c49465f 	mcrrmi	6, 5, r4, r9, cr15
 9e8:	6d5f0045 	ldclvs	0, cr0, [pc, #-276]	; 8dc <_start-0x7724>
 9ec:	61747362 	cmnvs	r4, r2, ror #6
 9f0:	745f6574 	ldrbvc	r6, [pc], #-1396	; 9f8 <_start-0x7608>
 9f4:	735f5f00 	cmpvc	pc, #0, 30
 9f8:	454c4946 	strbmi	r4, [ip, #-2374]	; 0x946
 9fc:	626d5f00 	rsbvs	r5, sp, #0, 30
 a00:	74617473 	strbtvc	r7, [r1], #-1139	; 0x473
 a04:	725f0065 	subsvc	r0, pc, #101	; 0x65
 a08:	5f646e61 	svcpl	0x00646e61
 a0c:	7478656e 	ldrbtvc	r6, [r8], #-1390	; 0x56e
 a10:	626d5f00 	rsbvs	r5, sp, #0, 30
 a14:	5f6e656c 	svcpl	0x006e656c
 a18:	74617473 	strbtvc	r7, [r1], #-1139	; 0x473
 a1c:	695f0065 	ldmdbvs	pc, {r0, r2, r5, r6}^	; <UNPREDICTABLE>
 a20:	5f00636e 	svcpl	0x0000636e
 a24:	00646e69 	rsbeq	r6, r4, r9, ror #28
 a28:	7275635f 	rsbsvc	r6, r5, #2080374785	; 0x7c000001
 a2c:	746e6572 	strbtvc	r6, [lr], #-1394	; 0x572
 a30:	636f6c5f 	cmnvs	pc, #24320	; 0x5f00
 a34:	00656c61 	rsbeq	r6, r5, r1, ror #24
 a38:	6c635f5f 	stclvs	15, cr5, [r3], #-380	; 0xfffffe84
 a3c:	756e6165 	strbvc	r6, [lr, #-357]!	; 0x165
 a40:	6d5f0070 	ldclvs	0, cr0, [pc, #-448]	; 888 <_start-0x7778>
 a44:	64777861 	ldrbtvs	r7, [r7], #-2145	; 0x861
 a48:	725f0073 	subsvc	r0, pc, #115	; 0x73
 a4c:	746e6565 	strbtvc	r6, [lr], #-1381	; 0x565
 a50:	65735f00 	ldrbvs	r5, [r3, #-3840]!	; 0xf00
 a54:	5f006465 	svcpl	0x00006465
 a58:	756f635f 	strbvc	r6, [pc, #-863]!	; 701 <_start-0x78ff>
 a5c:	5f00746e 	svcpl	0x0000746e
 a60:	6c61765f 	stclvs	6, cr7, [r1], #-380	; 0xfffffe84
 a64:	5f006575 	svcpl	0x00006575
 a68:	6b656573 	blvs	195a03c <__bss_end__+0x194f644>
 a6c:	75616200 	strbvc	r6, [r1, #-512]!	; 0x200
 a70:	665f0064 	ldrbvs	r0, [pc], -r4, rrx
 a74:	5f736f70 	svcpl	0x00736f70
 a78:	5f5f0074 	svcpl	0x005f0074
 a7c:	6d5f6d74 	ldclvs	13, cr6, [pc, #-464]	; 8b4 <_start-0x774c>
 a80:	73006e69 	movwvc	r6, #3689	; 0xe69
 a84:	74617263 	strbtvc	r7, [r1], #-611	; 0x263
 a88:	5f006863 	svcpl	0x00006863
 a8c:	746c756d 	strbtvc	r7, [ip], #-1389	; 0x56d
 a90:	74757000 	ldrbtvc	r7, [r5], #-0
 a94:	47003233 	smladxmi	r0, r3, r2, r3
 a98:	4320554e 	teqmi	r0, #327155712	; 0x13800000
 a9c:	36203939 			; <UNDEFINED> instruction: 0x36203939
 aa0:	312e332e 	teqcc	lr, lr, lsr #6
 aa4:	31303220 	teqcc	r0, r0, lsr #4
 aa8:	32363037 	eorscc	r3, r6, #55	; 0x37
 aac:	6d2d2030 	stcvs	0, cr2, [sp, #-192]!	; 0xffffff40
 ab0:	3d757063 	ldclcc	0, cr7, [r5, #-396]!	; 0xfffffe74
 ab4:	316d7261 	cmncc	sp, r1, ror #4
 ab8:	6a363731 	bvs	d8e784 <__bss_end__+0xd83d8c>
 abc:	732d667a 	teqvc	sp, #127926272	; 0x7a00000
 ac0:	746d2d20 	strbtvc	r2, [sp], #-3360	; 0xd20
 ac4:	3d656e75 	stclcc	14, cr6, [r5, #-468]!	; 0xfffffe2c
 ac8:	316d7261 	cmncc	sp, r1, ror #4
 acc:	6a363731 	bvs	d8e798 <__bss_end__+0xd83da0>
 ad0:	732d667a 	teqvc	sp, #127926272	; 0x7a00000
 ad4:	67672d20 	strbvs	r2, [r7, -r0, lsr #26]!
 ad8:	2d206264 	sfmcs	f6, 4, [r0, #-400]!	; 0xfffffe70
 adc:	2d20674f 	stccs	7, cr6, [r0, #-316]!	; 0xfffffec4
 ae0:	3d647473 	cfstrdcc	mvd7, [r4, #-460]!	; 0xfffffe34
 ae4:	39756e67 	ldmdbcc	r5!, {r0, r1, r2, r5, r6, r9, sl, fp, sp, lr}^
 ae8:	662d2039 			; <UNDEFINED> instruction: 0x662d2039
 aec:	65657266 	strbvs	r7, [r5, #-614]!	; 0x266
 af0:	6e617473 	mcrvs	4, 3, r7, cr1, cr3, {3}
 af4:	676e6964 	strbvs	r6, [lr, -r4, ror #18]!
 af8:	74735f00 	ldrbtvc	r5, [r3], #-3840	; 0xf00
 afc:	6b6f7472 	blvs	1bddccc <__bss_end__+0x1bd32d4>
 b00:	73616c5f 	cmnvc	r1, #24320	; 0x5f00
 b04:	665f0074 			; <UNDEFINED> instruction: 0x665f0074
 b08:	7079746e 	rsbsvc	r7, r9, lr, ror #8
 b0c:	5f007365 	svcpl	0x00007365
 b10:	00646461 	rsbeq	r6, r4, r1, ror #8
 b14:	4c555f5f 	mrrcmi	15, 5, r5, r5, cr15	; <UNPREDICTABLE>
 b18:	00676e6f 	rsbeq	r6, r7, pc, ror #28
 b1c:	7465675f 	strbtvc	r6, [r5], #-1887	; 0x75f
 b20:	65746164 	ldrbvs	r6, [r4, #-356]!	; 0x164
 b24:	7272655f 	rsbsvc	r6, r2, #398458880	; 0x17c00000
 b28:	6c675f00 	stclvs	15, cr5, [r7], #-0
 b2c:	6c61626f 	sfmvs	f6, 2, [r1], #-444	; 0xfffffe44
 b30:	706d695f 	rsbvc	r6, sp, pc, asr r9
 b34:	5f657275 	svcpl	0x00657275
 b38:	00727470 	rsbseq	r7, r2, r0, ror r4
 b3c:	7275635f 	rsbsvc	r6, r5, #2080374785	; 0x7c000001
 b40:	746e6572 	strbtvc	r6, [lr], #-1394	; 0x572
 b44:	7461635f 	strbtvc	r6, [r1], #-863	; 0x35f
 b48:	726f6765 	rsbvc	r6, pc, #26476544	; 0x1940000
 b4c:	755f0079 	ldrbvc	r0, [pc, #-121]	; adb <_start-0x7525>
 b50:	6573756e 	ldrbvs	r7, [r3, #-1390]!	; 0x56e
 b54:	61725f64 	cmnvs	r2, r4, ror #30
 b58:	5f00646e 	svcpl	0x0000646e
 b5c:	00736477 	rsbseq	r6, r3, r7, ror r4
 b60:	6d745f5f 	ldclvs	15, cr5, [r4, #-380]!	; 0xfffffe84
 b64:	6164775f 	cmnvs	r4, pc, asr r7
 b68:	675f0079 			; <UNDEFINED> instruction: 0x675f0079
 b6c:	0065756c 	rsbeq	r7, r5, ip, ror #10
 b70:	4f495047 	svcmi	0x00495047
 b74:	4e55465f 	mrcmi	6, 2, r4, cr5, cr15, {2}
 b78:	554f5f43 	strbpl	r5, [pc, #-3907]	; fffffc3d <__bss_end__+0xffff5245>
 b7c:	54555054 	ldrbpl	r5, [r5], #-84	; 0x54
 b80:	6d6e5f00 	stclvs	15, cr5, [lr, #-0]
 b84:	6f6c6c61 	svcvs	0x006c6c61
 b88:	6c5f0063 	mrrcvs	0, 6, r0, pc, cr3	; <UNPREDICTABLE>
 b8c:	5f613436 	svcpl	0x00613436
 b90:	00667562 	rsbeq	r7, r6, r2, ror #10
 b94:	33746567 	cmncc	r4, #432013312	; 0x19c00000
 b98:	61750032 	cmnvs	r5, r2, lsr r0
 b9c:	635f7472 	cmpvs	pc, #1912602624	; 0x72000000
 ba0:	675f6e61 	ldrbvs	r6, [pc, -r1, ror #28]
 ba4:	00637465 	rsbeq	r7, r3, r5, ror #8
 ba8:	6769735f 			; <UNDEFINED> instruction: 0x6769735f
 bac:	6e75665f 	mrcvs	6, 3, r6, cr5, cr15, {2}
 bb0:	726f0063 	rsbvc	r0, pc, #99	; 0x63
 bb4:	336e695f 	cmncc	lr, #1556480	; 0x17c000
 bb8:	61750032 	cmnvs	r5, r2, lsr r0
 bbc:	685f7472 	ldmdavs	pc, {r1, r4, r5, r6, sl, ip, sp, lr}^	; <UNPREDICTABLE>
 bc0:	645f7361 	ldrbvs	r7, [pc], #-865	; bc8 <_start-0x7438>
 bc4:	00617461 	rsbeq	r7, r1, r1, ror #8
 bc8:	4f495047 	svcmi	0x00495047
 bcc:	4e55465f 	mrcmi	6, 2, r4, cr5, cr15, {2}
 bd0:	4c415f43 	mcrrmi	15, 4, r5, r1, cr3
 bd4:	5f003054 	svcpl	0x00003054
 bd8:	6675626e 	ldrbtvs	r6, [r5], -lr, ror #4
 bdc:	6e755f00 	cdpvs	15, 7, cr5, cr5, cr0, {0}
 be0:	64657375 	strbtvs	r7, [r5], #-885	; 0x375
 be4:	49504700 	ldmdbmi	r0, {r8, r9, sl, lr}^
 be8:	55465f4f 	strbpl	r5, [r6, #-3919]	; 0xf4f
 bec:	415f434e 	cmpmi	pc, lr, asr #6
 bf0:	0033544c 	eorseq	r5, r3, ip, asr #8
 bf4:	4f495047 	svcmi	0x00495047
 bf8:	4e55465f 	mrcmi	6, 2, r4, cr5, cr15, {2}
 bfc:	4c415f43 	mcrrmi	15, 4, r5, r1, cr3
 c00:	47003454 	smlsdmi	r0, r4, r4, r3
 c04:	5f4f4950 	svcpl	0x004f4950
 c08:	434e5546 	movtmi	r5, #58694	; 0xe546
 c0c:	544c415f 	strbpl	r4, [ip], #-351	; 0x15f
 c10:	5f5f0035 	svcpl	0x005f0035
 c14:	695f6d74 	ldmdbvs	pc, {r2, r4, r5, r6, r8, sl, fp, sp, lr}^	; <UNPREDICTABLE>
 c18:	74736473 	ldrbtvc	r6, [r3], #-1139	; 0x473
 c1c:	6f6c5f00 	svcvs	0x006c5f00
 c20:	746c6163 	strbtvc	r6, [ip], #-355	; 0x163
 c24:	5f656d69 	svcpl	0x00656d69
 c28:	00667562 	rsbeq	r7, r6, r2, ror #10
 c2c:	6f6c635f 	svcvs	0x006c635f
 c30:	5f006573 	svcpl	0x00006573
 c34:	00383472 	eorseq	r3, r8, r2, ror r4
 c38:	74626d5f 	strbtvc	r6, [r2], #-3423	; 0xd5f
 c3c:	5f63776f 	svcpl	0x0063776f
 c40:	74617473 	strbtvc	r7, [r1], #-1139	; 0x473
 c44:	705f0065 	subsvc	r0, pc, r5, rrx
 c48:	5f007335 	svcpl	0x00007335
 c4c:	5f6d745f 	svcpl	0x006d745f
 c50:	7961646d 	stmdbvc	r1!, {r0, r2, r3, r5, r6, sl, sp, lr}^
 c54:	69706700 	ldmdbvs	r0!, {r8, r9, sl, sp, lr}^
 c58:	65735f6f 	ldrbvs	r5, [r3, #-3951]!	; 0xf6f
 c5c:	666f5f74 	uqsub16vs	r5, pc, r4	; <UNPREDICTABLE>
 c60:	61620066 	cmnvs	r2, r6, rrx
 c64:	67006b6e 	strvs	r6, [r0, -lr, ror #22]
 c68:	2e6f6970 	mcrcs	9, 3, r6, cr15, cr0, {3}
 c6c:	70670063 	rsbvc	r0, r7, r3, rrx
 c70:	725f6f69 	subsvc	r6, pc, #420	; 0x1a4
 c74:	00646165 	rsbeq	r6, r4, r5, ror #2
 c78:	6f697067 	svcvs	0x00697067
 c7c:	7465735f 	strbtvc	r7, [r5], #-863	; 0x35f
 c80:	74756f5f 	ldrbtvc	r6, [r5], #-3935	; 0xf5f
 c84:	00747570 	rsbseq	r7, r4, r0, ror r5
 c88:	6f697067 	svcvs	0x00697067
 c8c:	6972775f 	ldmdbvs	r2!, {r0, r1, r2, r3, r4, r6, r8, r9, sl, ip, sp, lr}^
 c90:	67006574 	smlsdxvs	r0, r4, r5, r6
 c94:	5f6f6970 	svcpl	0x006f6970
 c98:	30746573 	rsbscc	r6, r4, r3, ror r5
 c9c:	69706700 	ldmdbvs	r0!, {r8, r9, sl, sp, lr}^
 ca0:	656c5f6f 	strbvs	r5, [ip, #-3951]!	; 0xf6f
 ca4:	67003076 	smlsdxvs	r0, r6, r0, r3
 ca8:	5f6f6970 	svcpl	0x006f6970
 cac:	5f746573 	svcpl	0x00746573
 cb0:	75706e69 	ldrbvc	r6, [r0, #-3689]!	; 0xe69
 cb4:	70670074 	rsbvc	r0, r7, r4, ror r0
 cb8:	735f6f69 	cmpvc	pc, #420	; 0x1a4
 cbc:	6f5f7465 	svcvs	0x005f7465
 cc0:	7067006e 	rsbvc	r0, r7, lr, rrx
 cc4:	665f6f69 	ldrbvs	r6, [pc], -r9, ror #30
 cc8:	5f636e75 	svcpl	0x00636e75
 ccc:	70670074 	rsbvc	r0, r7, r4, ror r0
 cd0:	635f6f69 	cmpvs	pc, #420	; 0x1a4
 cd4:	0030726c 	eorseq	r7, r0, ip, ror #4
 cd8:	6c616d6b 	stclvs	13, cr6, [r1], #-428	; 0xfffffe54
 cdc:	2e636f6c 	cdpcs	15, 6, cr6, cr3, cr12, {3}
 ce0:	6d6b0063 	stclvs	0, cr0, [fp, #-396]!	; 0xfffffe74
 ce4:	6f6c6c61 	svcvs	0x006c6c61
 ce8:	6e695f63 	cdpvs	15, 6, cr5, cr9, cr3, {3}
 cec:	6b007469 	blvs	1de98 <__bss_end__+0x134a0>
 cf0:	6c6c616d 	stfvse	f6, [ip], #-436	; 0xfffffe4c
 cf4:	615f636f 	cmpvs	pc, pc, ror #6
 cf8:	6e67696c 	cdpvs	9, 6, cr6, cr7, cr12, {3}
 cfc:	64006465 	strvs	r6, [r0], #-1125	; 0x465
 d00:	6c62756f 	cfstr64vs	mvdx7, [r2], #-444	; 0xfffffe44
 d04:	666b0065 	strbtvs	r0, [fp], -r5, rrx
 d08:	5f656572 	svcpl	0x00656572
 d0c:	006c6c61 	rsbeq	r6, ip, r1, ror #24
 d10:	6572666b 	ldrbvs	r6, [r2, #-1643]!	; 0x66b
 d14:	66615f65 	strbtvs	r5, [r1], -r5, ror #30
 d18:	00726574 	rsbseq	r6, r2, r4, ror r5
 d1c:	6c616d6b 	stclvs	13, cr6, [r1], #-428	; 0xfffffe54
 d20:	5f636f6c 	svcpl	0x00636f6c
 d24:	70616568 	rsbvc	r6, r1, r8, ror #10
 d28:	7274705f 	rsbsvc	r7, r4, #95	; 0x5f
 d2c:	696c6100 	stmdbvs	ip!, {r8, sp, lr}^
 d30:	656d6e67 	strbvs	r6, [sp, #-3687]!	; 0xe67
 d34:	5f00746e 	svcpl	0x0000746e
 d38:	6165685f 	cmnvs	r5, pc, asr r8
 d3c:	74735f70 	ldrbtvc	r5, [r3], #-3952	; 0xf70
 d40:	5f747261 	svcpl	0x00747261
 d44:	6d6b005f 	stclvs	0, cr0, [fp, #-380]!	; 0xfffffe84
 d48:	6f6c6c61 	svcvs	0x006c6c61
 d4c:	65685f63 	strbvs	r5, [r8, #-3939]!	; 0xf63
 d50:	735f7061 	cmpvc	pc, #97	; 0x61
 d54:	74726174 	ldrbtvc	r6, [r2], #-372	; 0x174
 d58:	64615f00 	strbtvs	r5, [r1], #-3840	; 0xf00
 d5c:	6b007264 	blvs	1d6f4 <__bss_end__+0x12cfc>
 d60:	6c6c616d 	stfvse	f6, [ip], #-436	; 0xfffffe4c
 d64:	685f636f 	ldmdavs	pc, {r0, r1, r2, r3, r5, r6, r8, r9, sp, lr}^	; <UNPREDICTABLE>
 d68:	5f706165 	svcpl	0x00706165
 d6c:	00646e65 	rsbeq	r6, r4, r5, ror #28

Disassembly of section .debug_frame:

00000000 <.debug_frame>:
   0:	0000000c 	andeq	r0, r0, ip
   4:	ffffffff 			; <UNDEFINED> instruction: 0xffffffff
   8:	7c020001 	stcvc	0, cr0, [r2], {1}
   c:	000d0c0e 	andeq	r0, sp, lr, lsl #24
  10:	00000018 	andeq	r0, r0, r8, lsl r0
  14:	00000000 	andeq	r0, r0, r0
  18:	00008010 	andeq	r8, r0, r0, lsl r0
  1c:	00000084 	andeq	r0, r0, r4, lsl #1
  20:	84100e42 	ldrhi	r0, [r0], #-3650	; 0xe42
  24:	86038504 	strhi	r8, [r3], -r4, lsl #10
  28:	00018e02 	andeq	r8, r1, r2, lsl #28
  2c:	00000014 	andeq	r0, r0, r4, lsl r0
  30:	00000000 	andeq	r0, r0, r0
  34:	00008094 	muleq	r0, r4, r0
  38:	00000040 	andeq	r0, r0, r0, asr #32
  3c:	83080e42 	movwhi	r0, #36418	; 0x8e42
  40:	00018e02 	andeq	r8, r1, r2, lsl #28
  44:	0000000c 	andeq	r0, r0, ip
  48:	ffffffff 			; <UNDEFINED> instruction: 0xffffffff
  4c:	7c020001 	stcvc	0, cr0, [r2], {1}
  50:	000d0c0e 	andeq	r0, sp, lr, lsl #24
  54:	0000001c 	andeq	r0, r0, ip, lsl r0
  58:	00000044 	andeq	r0, r0, r4, asr #32
  5c:	000080d4 	ldrdeq	r8, [r0], -r4
  60:	000000f8 	strdeq	r0, [r0], -r8
  64:	83180e42 	tsthi	r8, #1056	; 0x420
  68:	85058406 	strhi	r8, [r5, #-1030]	; 0x406
  6c:	87038604 	strhi	r8, [r3, -r4, lsl #12]
  70:	00018e02 	andeq	r8, r1, r2, lsl #28
  74:	00000014 	andeq	r0, r0, r4, lsl r0
  78:	00000044 	andeq	r0, r0, r4, asr #32
  7c:	000081cc 	andeq	r8, r0, ip, asr #3
  80:	00000014 	andeq	r0, r0, r4, lsl r0
  84:	83080e42 	movwhi	r0, #36418	; 0x8e42
  88:	00018e02 	andeq	r8, r1, r2, lsl #28
  8c:	0000001c 	andeq	r0, r0, ip, lsl r0
  90:	00000044 	andeq	r0, r0, r4, asr #32
  94:	000081e0 	andeq	r8, r0, r0, ror #3
  98:	00000048 	andeq	r0, r0, r8, asr #32
  9c:	84180e42 	ldrhi	r0, [r8], #-3650	; 0xe42
  a0:	86058506 	strhi	r8, [r5], -r6, lsl #10
  a4:	88038704 	stmdahi	r3, {r2, r8, r9, sl, pc}
  a8:	00018e02 	andeq	r8, r1, r2, lsl #28
  ac:	00000014 	andeq	r0, r0, r4, lsl r0
  b0:	00000044 	andeq	r0, r0, r4, asr #32
  b4:	00008228 	andeq	r8, r0, r8, lsr #4
  b8:	00000040 	andeq	r0, r0, r0, asr #32
  bc:	84080e42 	strhi	r0, [r8], #-3650	; 0xe42
  c0:	00018e02 	andeq	r8, r1, r2, lsl #28
  c4:	00000014 	andeq	r0, r0, r4, lsl r0
  c8:	00000044 	andeq	r0, r0, r4, asr #32
  cc:	00008268 	andeq	r8, r0, r8, ror #4
  d0:	00000074 	andeq	r0, r0, r4, ror r0
  d4:	84080e42 	strhi	r0, [r8], #-3650	; 0xe42
  d8:	00018e02 	andeq	r8, r1, r2, lsl #28
  dc:	00000018 	andeq	r0, r0, r8, lsl r0
  e0:	00000044 	andeq	r0, r0, r4, asr #32
  e4:	000082dc 	ldrdeq	r8, [r0], -ip
  e8:	00000080 	andeq	r0, r0, r0, lsl #1
  ec:	83100e42 	tsthi	r0, #1056	; 0x420
  f0:	85038404 	strhi	r8, [r3, #-1028]	; 0x404
  f4:	00018e02 	andeq	r8, r1, r2, lsl #28
  f8:	0000001c 	andeq	r0, r0, ip, lsl r0
  fc:	00000044 	andeq	r0, r0, r4, asr #32
 100:	0000835c 	andeq	r8, r0, ip, asr r3
 104:	000000f0 	strdeq	r0, [r0], -r0	; <UNPREDICTABLE>
 108:	84180e42 	ldrhi	r0, [r8], #-3650	; 0xe42
 10c:	86058506 	strhi	r8, [r5], -r6, lsl #10
 110:	88038704 	stmdahi	r3, {r2, r8, r9, sl, pc}
 114:	00018e02 	andeq	r8, r1, r2, lsl #28
 118:	00000020 	andeq	r0, r0, r0, lsr #32
 11c:	00000044 	andeq	r0, r0, r4, asr #32
 120:	0000844c 	andeq	r8, r0, ip, asr #8
 124:	0000022c 	andeq	r0, r0, ip, lsr #4
 128:	841c0e42 	ldrhi	r0, [ip], #-3650	; 0xe42
 12c:	86068507 	strhi	r8, [r6], -r7, lsl #10
 130:	88048705 	stmdahi	r4, {r0, r2, r8, r9, sl, pc}
 134:	8e028903 	cdphi	9, 0, cr8, cr2, cr3, {0}
 138:	280e4201 	stmdacs	lr, {r0, r9, lr}
 13c:	00000014 	andeq	r0, r0, r4, lsl r0
 140:	00000044 	andeq	r0, r0, r4, asr #32
 144:	00008678 	andeq	r8, r0, r8, ror r6
 148:	00000030 	andeq	r0, r0, r0, lsr r0
 14c:	83080e42 	movwhi	r0, #36418	; 0x8e42
 150:	00018e02 	andeq	r8, r1, r2, lsl #28
 154:	00000020 	andeq	r0, r0, r0, lsr #32
 158:	00000044 	andeq	r0, r0, r4, asr #32
 15c:	000086a8 	andeq	r8, r0, r8, lsr #13
 160:	00000138 	andeq	r0, r0, r8, lsr r1
 164:	84200e42 	strthi	r0, [r0], #-3650	; 0xe42
 168:	86078508 	strhi	r8, [r7], -r8, lsl #10
 16c:	88058706 	stmdahi	r5, {r1, r2, r8, r9, sl, pc}
 170:	8a038904 	bhi	e2588 <__bss_end__+0xd7b90>
 174:	00018e02 	andeq	r8, r1, r2, lsl #28
 178:	00000014 	andeq	r0, r0, r4, lsl r0
 17c:	00000044 	andeq	r0, r0, r4, asr #32
 180:	000087e0 	andeq	r8, r0, r0, ror #15
 184:	00000020 	andeq	r0, r0, r0, lsr #32
 188:	84080e42 	strhi	r0, [r8], #-3650	; 0xe42
 18c:	00018e02 	andeq	r8, r1, r2, lsl #28
 190:	00000014 	andeq	r0, r0, r4, lsl r0
 194:	00000044 	andeq	r0, r0, r4, asr #32
 198:	00008800 	andeq	r8, r0, r0, lsl #16
 19c:	00000044 	andeq	r0, r0, r4, asr #32
 1a0:	84080e42 	strhi	r0, [r8], #-3650	; 0xe42
 1a4:	00018e02 	andeq	r8, r1, r2, lsl #28
 1a8:	0000000c 	andeq	r0, r0, ip
 1ac:	00000044 	andeq	r0, r0, r4, asr #32
 1b0:	00008844 	andeq	r8, r0, r4, asr #16
 1b4:	0000001c 	andeq	r0, r0, ip, lsl r0
 1b8:	0000000c 	andeq	r0, r0, ip
 1bc:	ffffffff 			; <UNDEFINED> instruction: 0xffffffff
 1c0:	7c020001 	stcvc	0, cr0, [r2], {1}
 1c4:	000d0c0e 	andeq	r0, sp, lr, lsl #24
 1c8:	0000000c 	andeq	r0, r0, ip
 1cc:	000001b8 			; <UNDEFINED> instruction: 0x000001b8
 1d0:	00008860 	andeq	r8, r0, r0, ror #16
 1d4:	0000003c 	andeq	r0, r0, ip, lsr r0
 1d8:	00000014 	andeq	r0, r0, r4, lsl r0
 1dc:	000001b8 			; <UNDEFINED> instruction: 0x000001b8
 1e0:	0000889c 	muleq	r0, ip, r8
 1e4:	00000078 	andeq	r0, r0, r8, ror r0
 1e8:	84080e42 	strhi	r0, [r8], #-3650	; 0xe42
 1ec:	00018e02 	andeq	r8, r1, r2, lsl #28
 1f0:	00000024 	andeq	r0, r0, r4, lsr #32
 1f4:	000001b8 			; <UNDEFINED> instruction: 0x000001b8
 1f8:	00008914 	andeq	r8, r0, r4, lsl r9
 1fc:	00000134 	andeq	r0, r0, r4, lsr r1
 200:	83280e42 	teqhi	r8, #1056	; 0x420
 204:	8509840a 	strhi	r8, [r9, #-1034]	; 0x40a
 208:	87078608 	strhi	r8, [r7, -r8, lsl #12]
 20c:	89058806 	stmdbhi	r5, {r1, r2, fp, pc}
 210:	8b038a04 	blhi	e2a28 <__bss_end__+0xd8030>
 214:	00018e02 	andeq	r8, r1, r2, lsl #28
 218:	00000018 	andeq	r0, r0, r8, lsl r0
 21c:	000001b8 			; <UNDEFINED> instruction: 0x000001b8
 220:	00008a48 	andeq	r8, r0, r8, asr #20
 224:	000000f8 	strdeq	r0, [r0], -r8
 228:	84100e42 	ldrhi	r0, [r0], #-3650	; 0xe42
 22c:	86038504 	strhi	r8, [r3], -r4, lsl #10
 230:	00018e02 	andeq	r8, r1, r2, lsl #28
 234:	00000018 	andeq	r0, r0, r8, lsl r0
 238:	000001b8 			; <UNDEFINED> instruction: 0x000001b8
 23c:	00008b40 	andeq	r8, r0, r0, asr #22
 240:	000000f4 	strdeq	r0, [r0], -r4
 244:	84080e42 	strhi	r0, [r8], #-3650	; 0xe42
 248:	42018e02 	andmi	r8, r1, #2, 28
 24c:	0000580e 	andeq	r5, r0, lr, lsl #16
 250:	00000024 	andeq	r0, r0, r4, lsr #32
 254:	000001b8 			; <UNDEFINED> instruction: 0x000001b8
 258:	00008c34 	andeq	r8, r0, r4, lsr ip
 25c:	00000120 	andeq	r0, r0, r0, lsr #2
 260:	84240e42 	strthi	r0, [r4], #-3650	; 0xe42
 264:	86088509 	strhi	r8, [r8], -r9, lsl #10
 268:	88068707 	stmdahi	r6, {r0, r1, r2, r8, r9, sl, pc}
 26c:	8a048905 	bhi	122688 <__bss_end__+0x117c90>
 270:	8e028b03 	vmlahi.f64	d8, d2, d3
 274:	380e4201 	stmdacc	lr, {r0, r9, lr}
 278:	00000014 	andeq	r0, r0, r4, lsl r0
 27c:	000001b8 			; <UNDEFINED> instruction: 0x000001b8
 280:	00008d54 	andeq	r8, r0, r4, asr sp
 284:	00000018 	andeq	r0, r0, r8, lsl r0
 288:	84080e42 	strhi	r0, [r8], #-3650	; 0xe42
 28c:	00018e02 	andeq	r8, r1, r2, lsl #28
 290:	00000014 	andeq	r0, r0, r4, lsl r0
 294:	000001b8 			; <UNDEFINED> instruction: 0x000001b8
 298:	00008d6c 	andeq	r8, r0, ip, ror #26
 29c:	000000a0 	andeq	r0, r0, r0, lsr #1
 2a0:	83080e42 	movwhi	r0, #36418	; 0x8e42
 2a4:	00018e02 	andeq	r8, r1, r2, lsl #28
 2a8:	00000014 	andeq	r0, r0, r4, lsl r0
 2ac:	000001b8 			; <UNDEFINED> instruction: 0x000001b8
 2b0:	00008e0c 	andeq	r8, r0, ip, lsl #28
 2b4:	000000a4 	andeq	r0, r0, r4, lsr #1
 2b8:	84080e42 	strhi	r0, [r8], #-3650	; 0xe42
 2bc:	00018e02 	andeq	r8, r1, r2, lsl #28
 2c0:	00000014 	andeq	r0, r0, r4, lsl r0
 2c4:	000001b8 			; <UNDEFINED> instruction: 0x000001b8
 2c8:	00008eb0 			; <UNDEFINED> instruction: 0x00008eb0
 2cc:	0000002c 	andeq	r0, r0, ip, lsr #32
 2d0:	83080e42 	movwhi	r0, #36418	; 0x8e42
 2d4:	00018e02 	andeq	r8, r1, r2, lsl #28
 2d8:	00000014 	andeq	r0, r0, r4, lsl r0
 2dc:	000001b8 			; <UNDEFINED> instruction: 0x000001b8
 2e0:	00008edc 	ldrdeq	r8, [r0], -ip
 2e4:	00000010 	andeq	r0, r0, r0, lsl r0
 2e8:	83080e42 	movwhi	r0, #36418	; 0x8e42
 2ec:	00018e02 	andeq	r8, r1, r2, lsl #28
 2f0:	0000000c 	andeq	r0, r0, ip
 2f4:	ffffffff 			; <UNDEFINED> instruction: 0xffffffff
 2f8:	7c020001 	stcvc	0, cr0, [r2], {1}
 2fc:	000d0c0e 	andeq	r0, sp, lr, lsl #24
 300:	00000014 	andeq	r0, r0, r4, lsl r0
 304:	000002f0 	strdeq	r0, [r0], -r0	; <UNPREDICTABLE>
 308:	00008ef4 	strdeq	r8, [r0], -r4
 30c:	000000f0 	strdeq	r0, [r0], -r0	; <UNPREDICTABLE>
 310:	84040e42 	strhi	r0, [r4], #-3650	; 0xe42
 314:	00000001 	andeq	r0, r0, r1
 318:	0000000c 	andeq	r0, r0, ip
 31c:	ffffffff 			; <UNDEFINED> instruction: 0xffffffff
 320:	7c020001 	stcvc	0, cr0, [r2], {1}
 324:	000d0c0e 	andeq	r0, sp, lr, lsl #24
 328:	0000000c 	andeq	r0, r0, ip
 32c:	00000318 	andeq	r0, r0, r8, lsl r3
 330:	00008fe4 	andeq	r8, r0, r4, ror #31
 334:	00000020 	andeq	r0, r0, r0, lsr #32
 338:	0000000c 	andeq	r0, r0, ip
 33c:	ffffffff 			; <UNDEFINED> instruction: 0xffffffff
 340:	7c020001 	stcvc	0, cr0, [r2], {1}
 344:	000d0c0e 	andeq	r0, sp, lr, lsl #24
 348:	00000024 	andeq	r0, r0, r4, lsr #32
 34c:	00000338 	andeq	r0, r0, r8, lsr r3
 350:	00009004 	andeq	r9, r0, r4
 354:	00000058 	andeq	r0, r0, r8, asr r0
 358:	80100e42 	andshi	r0, r0, r2, asr #28
 35c:	82038104 	andhi	r8, r3, #4, 2
 360:	42018302 	andmi	r8, r1, #134217728	; 0x8000000
 364:	07841c0e 	streq	r1, [r4, lr, lsl #24]
 368:	058e0685 	streq	r0, [lr, #1669]	; 0x685
 36c:	00280e42 	eoreq	r0, r8, r2, asr #28
 370:	0000000c 	andeq	r0, r0, ip
 374:	ffffffff 			; <UNDEFINED> instruction: 0xffffffff
 378:	7c020001 	stcvc	0, cr0, [r2], {1}
 37c:	000d0c0e 	andeq	r0, sp, lr, lsl #24
 380:	00000014 	andeq	r0, r0, r4, lsl r0
 384:	00000370 	andeq	r0, r0, r0, ror r3
 388:	0000905c 	andeq	r9, r0, ip, asr r0
 38c:	00000014 	andeq	r0, r0, r4, lsl r0
 390:	84080e42 	strhi	r0, [r8], #-3650	; 0xe42
 394:	00018e02 	andeq	r8, r1, r2, lsl #28
 398:	0000000c 	andeq	r0, r0, ip
 39c:	00000370 	andeq	r0, r0, r0, ror r3
 3a0:	00009070 	andeq	r9, r0, r0, ror r0
 3a4:	00000018 	andeq	r0, r0, r8, lsl r0
 3a8:	0000000c 	andeq	r0, r0, ip
 3ac:	00000370 	andeq	r0, r0, r0, ror r3
 3b0:	00009088 	andeq	r9, r0, r8, lsl #1
 3b4:	00000010 	andeq	r0, r0, r0, lsl r0
 3b8:	0000000c 	andeq	r0, r0, ip
 3bc:	ffffffff 			; <UNDEFINED> instruction: 0xffffffff
 3c0:	7c020001 	stcvc	0, cr0, [r2], {1}
 3c4:	000d0c0e 	andeq	r0, sp, lr, lsl #24
 3c8:	00000018 	andeq	r0, r0, r8, lsl r0
 3cc:	000003b8 			; <UNDEFINED> instruction: 0x000003b8
 3d0:	00009098 	muleq	r0, r8, r0
 3d4:	00000034 	andeq	r0, r0, r4, lsr r0
 3d8:	83100e42 	tsthi	r0, #1056	; 0x420
 3dc:	85038404 	strhi	r8, [r3, #-1028]	; 0x404
 3e0:	00018e02 	andeq	r8, r1, r2, lsl #28
 3e4:	0000000c 	andeq	r0, r0, ip
 3e8:	ffffffff 			; <UNDEFINED> instruction: 0xffffffff
 3ec:	7c020001 	stcvc	0, cr0, [r2], {1}
 3f0:	000d0c0e 	andeq	r0, sp, lr, lsl #24
 3f4:	0000000c 	andeq	r0, r0, ip
 3f8:	000003e4 	andeq	r0, r0, r4, ror #7
 3fc:	000090cc 	andeq	r9, r0, ip, asr #1
 400:	00000014 	andeq	r0, r0, r4, lsl r0
 404:	0000000c 	andeq	r0, r0, ip
 408:	000003e4 	andeq	r0, r0, r4, ror #7
 40c:	000090e0 	andeq	r9, r0, r0, ror #1
 410:	0000002c 	andeq	r0, r0, ip, lsr #32
 414:	0000000c 	andeq	r0, r0, ip
 418:	000003e4 	andeq	r0, r0, r4, ror #7
 41c:	0000910c 	andeq	r9, r0, ip, lsl #2
 420:	00000040 	andeq	r0, r0, r0, asr #32
 424:	00000020 	andeq	r0, r0, r0, lsr #32
 428:	000003e4 	andeq	r0, r0, r4, ror #7
 42c:	0000914c 	andeq	r9, r0, ip, asr #2
 430:	000001b0 			; <UNDEFINED> instruction: 0x000001b0
 434:	84180e42 	ldrhi	r0, [r8], #-3650	; 0xe42
 438:	86058506 	strhi	r8, [r5], -r6, lsl #10
 43c:	88038704 	stmdahi	r3, {r2, r8, r9, sl, pc}
 440:	42018e02 	andmi	r8, r1, #2, 28
 444:	0000580e 	andeq	r5, r0, lr, lsl #16
 448:	00000014 	andeq	r0, r0, r4, lsl r0
 44c:	000003e4 	andeq	r0, r0, r4, ror #7
 450:	000092fc 	strdeq	r9, [r0], -ip
 454:	00000054 	andeq	r0, r0, r4, asr r0
 458:	83080e42 	movwhi	r0, #36418	; 0x8e42
 45c:	00018e02 	andeq	r8, r1, r2, lsl #28
 460:	00000028 	andeq	r0, r0, r8, lsr #32
 464:	000003e4 	andeq	r0, r0, r4, ror #7
 468:	00009350 	andeq	r9, r0, r0, asr r3
 46c:	00000288 	andeq	r0, r0, r8, lsl #5
 470:	84240e42 	strthi	r0, [r4], #-3650	; 0xe42
 474:	86088509 	strhi	r8, [r8], -r9, lsl #10
 478:	88068707 	stmdahi	r6, {r0, r1, r2, r8, r9, sl, pc}
 47c:	8a048905 	bhi	122898 <__bss_end__+0x117ea0>
 480:	8e028b03 	vmlahi.f64	d8, d2, d3
 484:	b00e4201 	andlt	r4, lr, r1, lsl #4
 488:	00000001 	andeq	r0, r0, r1
 48c:	0000000c 	andeq	r0, r0, ip
 490:	ffffffff 			; <UNDEFINED> instruction: 0xffffffff
 494:	7c020001 	stcvc	0, cr0, [r2], {1}
 498:	000d0c0e 	andeq	r0, sp, lr, lsl #24
 49c:	00000014 	andeq	r0, r0, r4, lsl r0
 4a0:	0000048c 	andeq	r0, r0, ip, lsl #9
 4a4:	000095d8 	ldrdeq	r9, [r0], -r8
 4a8:	00000028 	andeq	r0, r0, r8, lsr #32
 4ac:	83080e42 	movwhi	r0, #36418	; 0x8e42
 4b0:	00018e02 	andeq	r8, r1, r2, lsl #28
 4b4:	0000000c 	andeq	r0, r0, ip
 4b8:	ffffffff 			; <UNDEFINED> instruction: 0xffffffff
 4bc:	7c020001 	stcvc	0, cr0, [r2], {1}
 4c0:	000d0c0e 	andeq	r0, sp, lr, lsl #24
 4c4:	00000014 	andeq	r0, r0, r4, lsl r0
 4c8:	000004b4 			; <UNDEFINED> instruction: 0x000004b4
 4cc:	00009600 	andeq	r9, r0, r0, lsl #12
 4d0:	00000034 	andeq	r0, r0, r4, lsr r0
 4d4:	83080e42 	movwhi	r0, #36418	; 0x8e42
 4d8:	00018e02 	andeq	r8, r1, r2, lsl #28
 4dc:	0000000c 	andeq	r0, r0, ip
 4e0:	ffffffff 			; <UNDEFINED> instruction: 0xffffffff
 4e4:	7c020001 	stcvc	0, cr0, [r2], {1}
 4e8:	000d0c0e 	andeq	r0, sp, lr, lsl #24
 4ec:	0000000c 	andeq	r0, r0, ip
 4f0:	000004dc 	ldrdeq	r0, [r0], -ip
 4f4:	00009634 	andeq	r9, r0, r4, lsr r6
 4f8:	00000018 	andeq	r0, r0, r8, lsl r0
 4fc:	0000000c 	andeq	r0, r0, ip
 500:	000004dc 	ldrdeq	r0, [r0], -ip
 504:	0000964c 	andeq	r9, r0, ip, asr #12
 508:	00000014 	andeq	r0, r0, r4, lsl r0
 50c:	00000014 	andeq	r0, r0, r4, lsl r0
 510:	000004dc 	ldrdeq	r0, [r0], -ip
 514:	00009660 	andeq	r9, r0, r0, ror #12
 518:	00000048 	andeq	r0, r0, r8, asr #32
 51c:	83080e42 	movwhi	r0, #36418	; 0x8e42
 520:	00018e02 	andeq	r8, r1, r2, lsl #28
 524:	0000000c 	andeq	r0, r0, ip
 528:	ffffffff 			; <UNDEFINED> instruction: 0xffffffff
 52c:	7c020001 	stcvc	0, cr0, [r2], {1}
 530:	000d0c0e 	andeq	r0, sp, lr, lsl #24
 534:	0000000c 	andeq	r0, r0, ip
 538:	00000524 	andeq	r0, r0, r4, lsr #10
 53c:	000096a8 	andeq	r9, r0, r8, lsr #13
 540:	0000001c 	andeq	r0, r0, ip, lsl r0
 544:	00000014 	andeq	r0, r0, r4, lsl r0
 548:	00000524 	andeq	r0, r0, r4, lsr #10
 54c:	000096c4 	andeq	r9, r0, r4, asr #13
 550:	00000014 	andeq	r0, r0, r4, lsl r0
 554:	83080e42 	movwhi	r0, #36418	; 0x8e42
 558:	00018e02 	andeq	r8, r1, r2, lsl #28
 55c:	00000014 	andeq	r0, r0, r4, lsl r0
 560:	00000524 	andeq	r0, r0, r4, lsr #10
 564:	000096d8 	ldrdeq	r9, [r0], -r8
 568:	0000000c 	andeq	r0, r0, ip
 56c:	83080e42 	movwhi	r0, #36418	; 0x8e42
 570:	00018e02 	andeq	r8, r1, r2, lsl #28
 574:	00000018 	andeq	r0, r0, r8, lsl r0
 578:	00000524 	andeq	r0, r0, r4, lsr #10
 57c:	000096e4 	andeq	r9, r0, r4, ror #13
 580:	00000024 	andeq	r0, r0, r4, lsr #32
 584:	83100e42 	tsthi	r0, #1056	; 0x420
 588:	85038404 	strhi	r8, [r3, #-1028]	; 0x404
 58c:	00018e02 	andeq	r8, r1, r2, lsl #28
 590:	00000014 	andeq	r0, r0, r4, lsl r0
 594:	00000524 	andeq	r0, r0, r4, lsr #10
 598:	00009708 	andeq	r9, r0, r8, lsl #14
 59c:	00000014 	andeq	r0, r0, r4, lsl r0
 5a0:	83080e42 	movwhi	r0, #36418	; 0x8e42
 5a4:	00018e02 	andeq	r8, r1, r2, lsl #28
 5a8:	00000014 	andeq	r0, r0, r4, lsl r0
 5ac:	00000524 	andeq	r0, r0, r4, lsr #10
 5b0:	0000971c 	andeq	r9, r0, ip, lsl r7
 5b4:	00000014 	andeq	r0, r0, r4, lsl r0
 5b8:	83080e42 	movwhi	r0, #36418	; 0x8e42
 5bc:	00018e02 	andeq	r8, r1, r2, lsl #28
 5c0:	0000000c 	andeq	r0, r0, ip
 5c4:	ffffffff 			; <UNDEFINED> instruction: 0xffffffff
 5c8:	7c020001 	stcvc	0, cr0, [r2], {1}
 5cc:	000d0c0e 	andeq	r0, sp, lr, lsl #24
 5d0:	00000018 	andeq	r0, r0, r8, lsl r0
 5d4:	000005c0 	andeq	r0, r0, r0, asr #11
 5d8:	0000977c 	andeq	r9, r0, ip, ror r7
 5dc:	00000020 	andeq	r0, r0, r0, lsr #32
 5e0:	84100e42 	ldrhi	r0, [r0], #-3650	; 0xe42
 5e4:	86038504 	strhi	r8, [r3], -r4, lsl #10
 5e8:	00018e02 	andeq	r8, r1, r2, lsl #28
 5ec:	00000014 	andeq	r0, r0, r4, lsl r0
 5f0:	000005c0 	andeq	r0, r0, r0, asr #11
 5f4:	0000979c 	muleq	r0, ip, r7
 5f8:	000000b0 	strheq	r0, [r0], -r0	; <UNPREDICTABLE>
 5fc:	84080e42 	strhi	r0, [r8], #-3650	; 0xe42
 600:	00018e02 	andeq	r8, r1, r2, lsl #28
 604:	00000014 	andeq	r0, r0, r4, lsl r0
 608:	000005c0 	andeq	r0, r0, r0, asr #11
 60c:	0000984c 	andeq	r9, r0, ip, asr #16
 610:	00000018 	andeq	r0, r0, r8, lsl r0
 614:	84080e42 	strhi	r0, [r8], #-3650	; 0xe42
 618:	00018e02 	andeq	r8, r1, r2, lsl #28
 61c:	00000014 	andeq	r0, r0, r4, lsl r0
 620:	000005c0 	andeq	r0, r0, r0, asr #11
 624:	00009864 	andeq	r9, r0, r4, ror #16
 628:	00000020 	andeq	r0, r0, r0, lsr #32
 62c:	84080e42 	strhi	r0, [r8], #-3650	; 0xe42
 630:	00018e02 	andeq	r8, r1, r2, lsl #28
 634:	00000014 	andeq	r0, r0, r4, lsl r0
 638:	000005c0 	andeq	r0, r0, r0, asr #11
 63c:	00009884 	andeq	r9, r0, r4, lsl #17
 640:	00000030 	andeq	r0, r0, r0, lsr r0
 644:	84080e42 	strhi	r0, [r8], #-3650	; 0xe42
 648:	00018e02 	andeq	r8, r1, r2, lsl #28
 64c:	00000014 	andeq	r0, r0, r4, lsl r0
 650:	000005c0 	andeq	r0, r0, r0, asr #11
 654:	000098b4 			; <UNDEFINED> instruction: 0x000098b4
 658:	00000030 	andeq	r0, r0, r0, lsr r0
 65c:	84080e42 	strhi	r0, [r8], #-3650	; 0xe42
 660:	00018e02 	andeq	r8, r1, r2, lsl #28
 664:	00000014 	andeq	r0, r0, r4, lsl r0
 668:	000005c0 	andeq	r0, r0, r0, asr #11
 66c:	000098e4 	andeq	r9, r0, r4, ror #17
 670:	00000010 	andeq	r0, r0, r0, lsl r0
 674:	84080e42 	strhi	r0, [r8], #-3650	; 0xe42
 678:	00018e02 	andeq	r8, r1, r2, lsl #28
 67c:	0000000c 	andeq	r0, r0, ip
 680:	ffffffff 			; <UNDEFINED> instruction: 0xffffffff
 684:	7c020001 	stcvc	0, cr0, [r2], {1}
 688:	000d0c0e 	andeq	r0, sp, lr, lsl #24
 68c:	00000018 	andeq	r0, r0, r8, lsl r0
 690:	0000067c 	andeq	r0, r0, ip, ror r6
 694:	000098f4 	strdeq	r9, [r0], -r4
 698:	00000068 	andeq	r0, r0, r8, rrx
 69c:	84100e4a 	ldrhi	r0, [r0], #-3658	; 0xe4a
 6a0:	86038504 	strhi	r8, [r3], -r4, lsl #10
 6a4:	00018e02 	andeq	r8, r1, r2, lsl #28
 6a8:	00000014 	andeq	r0, r0, r4, lsl r0
 6ac:	0000067c 	andeq	r0, r0, ip, ror r6
 6b0:	0000995c 	andeq	r9, r0, ip, asr r9
 6b4:	00000010 	andeq	r0, r0, r0, lsl r0
 6b8:	84080e42 	strhi	r0, [r8], #-3650	; 0xe42
 6bc:	00018e02 	andeq	r8, r1, r2, lsl #28
 6c0:	00000014 	andeq	r0, r0, r4, lsl r0
 6c4:	0000067c 	andeq	r0, r0, ip, ror r6
 6c8:	0000996c 	andeq	r9, r0, ip, ror #18
 6cc:	00000024 	andeq	r0, r0, r4, lsr #32
 6d0:	84080e46 	strhi	r0, [r8], #-3654	; 0xe46
 6d4:	00018e02 	andeq	r8, r1, r2, lsl #28
 6d8:	00000014 	andeq	r0, r0, r4, lsl r0
 6dc:	0000067c 	andeq	r0, r0, ip, ror r6
 6e0:	00009990 	muleq	r0, r0, r9
 6e4:	00000024 	andeq	r0, r0, r4, lsr #32
 6e8:	84080e46 	strhi	r0, [r8], #-3654	; 0xe46
 6ec:	00018e02 	andeq	r8, r1, r2, lsl #28
 6f0:	00000014 	andeq	r0, r0, r4, lsl r0
 6f4:	0000067c 	andeq	r0, r0, ip, ror r6
 6f8:	000099b4 			; <UNDEFINED> instruction: 0x000099b4
 6fc:	00000010 	andeq	r0, r0, r0, lsl r0
 700:	84080e42 	strhi	r0, [r8], #-3650	; 0xe42
 704:	00018e02 	andeq	r8, r1, r2, lsl #28
 708:	00000014 	andeq	r0, r0, r4, lsl r0
 70c:	0000067c 	andeq	r0, r0, ip, ror r6
 710:	000099c4 	andeq	r9, r0, r4, asr #19
 714:	0000001c 	andeq	r0, r0, ip, lsl r0
 718:	84080e42 	strhi	r0, [r8], #-3650	; 0xe42
 71c:	00018e02 	andeq	r8, r1, r2, lsl #28
 720:	00000018 	andeq	r0, r0, r8, lsl r0
 724:	0000067c 	andeq	r0, r0, ip, ror r6
 728:	000099e0 	andeq	r9, r0, r0, ror #19
 72c:	00000034 	andeq	r0, r0, r4, lsr r0
 730:	84080e46 	strhi	r0, [r8], #-3654	; 0xe46
 734:	4e018e02 	cdpmi	14, 0, cr8, cr1, cr2, {0}
 738:	cec4000e 	cdpgt	0, 12, cr0, cr4, cr14, {0}
 73c:	0000000c 	andeq	r0, r0, ip
 740:	ffffffff 			; <UNDEFINED> instruction: 0xffffffff
 744:	7c020001 	stcvc	0, cr0, [r2], {1}
 748:	000d0c0e 	andeq	r0, sp, lr, lsl #24
 74c:	0000000c 	andeq	r0, r0, ip
 750:	0000073c 	andeq	r0, r0, ip, lsr r7
 754:	00009a14 	andeq	r9, r0, r4, lsl sl
 758:	00000010 	andeq	r0, r0, r0, lsl r0
 75c:	0000000c 	andeq	r0, r0, ip
 760:	0000073c 	andeq	r0, r0, ip, lsr r7
 764:	00009a24 	andeq	r9, r0, r4, lsr #20
 768:	0000000c 	andeq	r0, r0, ip
 76c:	00000014 	andeq	r0, r0, r4, lsl r0
 770:	0000073c 	andeq	r0, r0, ip, lsr r7
 774:	00009a30 	andeq	r9, r0, r0, lsr sl
 778:	00000050 	andeq	r0, r0, r0, asr r0
 77c:	84080e52 	strhi	r0, [r8], #-3666	; 0xe52
 780:	00018e02 	andeq	r8, r1, r2, lsl #28
 784:	00000014 	andeq	r0, r0, r4, lsl r0
 788:	0000073c 	andeq	r0, r0, ip, lsr r7
 78c:	00009a80 	andeq	r9, r0, r0, lsl #21
 790:	00000064 	andeq	r0, r0, r4, rrx
 794:	84080e42 	strhi	r0, [r8], #-3650	; 0xe42
 798:	00018e02 	andeq	r8, r1, r2, lsl #28
 79c:	0000000c 	andeq	r0, r0, ip
 7a0:	0000073c 	andeq	r0, r0, ip, lsr r7
 7a4:	00009ae4 	andeq	r9, r0, r4, ror #21
 7a8:	00000004 	andeq	r0, r0, r4
 7ac:	00000014 	andeq	r0, r0, r4, lsl r0
 7b0:	0000073c 	andeq	r0, r0, ip, lsr r7
 7b4:	00009ae8 	andeq	r9, r0, r8, ror #21
 7b8:	0000000c 	andeq	r0, r0, ip
 7bc:	84080e42 	strhi	r0, [r8], #-3650	; 0xe42
 7c0:	00018e02 	andeq	r8, r1, r2, lsl #28
 7c4:	00000014 	andeq	r0, r0, r4, lsl r0
 7c8:	0000073c 	andeq	r0, r0, ip, lsr r7
 7cc:	00009af4 	strdeq	r9, [r0], -r4
 7d0:	0000008c 	andeq	r0, r0, ip, lsl #1
 7d4:	84080e42 	strhi	r0, [r8], #-3650	; 0xe42
 7d8:	00018e02 	andeq	r8, r1, r2, lsl #28
 7dc:	0000000c 	andeq	r0, r0, ip
 7e0:	0000073c 	andeq	r0, r0, ip, lsr r7
 7e4:	00009b80 	andeq	r9, r0, r0, lsl #23
 7e8:	00000004 	andeq	r0, r0, r4
 7ec:	0000000c 	andeq	r0, r0, ip
 7f0:	0000073c 	andeq	r0, r0, ip, lsr r7
 7f4:	00009b84 	andeq	r9, r0, r4, lsl #23
 7f8:	00000014 	andeq	r0, r0, r4, lsl r0
 7fc:	0000000c 	andeq	r0, r0, ip
 800:	0000073c 	andeq	r0, r0, ip, lsr r7
 804:	00009b98 	muleq	r0, r8, fp
 808:	00000010 	andeq	r0, r0, r0, lsl r0

Disassembly of section .debug_ranges:

00000000 <.debug_ranges>:
   0:	00000618 	andeq	r0, r0, r8, lsl r6
   4:	00000624 	andeq	r0, r0, r4, lsr #12
   8:	00000628 	andeq	r0, r0, r8, lsr #12
   c:	000006a0 	andeq	r0, r0, r0, lsr #13
	...
  18:	00000358 	andeq	r0, r0, r8, asr r3
  1c:	0000036c 	andeq	r0, r0, ip, ror #6
  20:	00000370 	andeq	r0, r0, r0, ror r3
  24:	0000037c 	andeq	r0, r0, ip, ror r3
	...
  30:	00000400 	andeq	r0, r0, r0, lsl #8
  34:	0000040c 	andeq	r0, r0, ip, lsl #8
  38:	00000428 	andeq	r0, r0, r8, lsr #8
  3c:	00000460 	andeq	r0, r0, r0, ror #8
	...
  48:	000002a8 	andeq	r0, r0, r8, lsr #5
  4c:	000002ac 	andeq	r0, r0, ip, lsr #5
  50:	000002dc 	ldrdeq	r0, [r0], -ip
  54:	000004cc 	andeq	r0, r0, ip, asr #9
	...
  60:	00009634 	andeq	r9, r0, r4, lsr r6
  64:	000096a8 	andeq	r9, r0, r8, lsr #13
	...
