
tests/part2-test6.elf:     file format elf32-littlearm


Disassembly of section .text:

00008000 <_start>:
    8000:	e3a0d302 	mov	sp, #134217728	; 0x8000000
    8004:	e3a0b000 	mov	fp, #0
    8008:	eb0005a4 	bl	96a0 <_cstart>
    800c:	eb0005bb 	bl	9700 <rpi_reboot>

00008010 <test1>:
    8010:	e92d4010 	push	{r4, lr}
    8014:	e3a00004 	mov	r0, #4
    8018:	e59f1038 	ldr	r1, [pc, #56]	; 8058 <test1+0x48>
    801c:	e59f2038 	ldr	r2, [pc, #56]	; 805c <test1+0x4c>
    8020:	e3a03007 	mov	r3, #7
    8024:	eb000130 	bl	84ec <ckalloc>
    8028:	e1a04000 	mov	r4, r0
    802c:	e59f002c 	ldr	r0, [pc, #44]	; 8060 <test1+0x50>
    8030:	eb00041b 	bl	90a4 <printk>
    8034:	e59f0028 	ldr	r0, [pc, #40]	; 8064 <test1+0x54>
    8038:	e1a01004 	mov	r1, r4
    803c:	eb000418 	bl	90a4 <printk>
    8040:	e1a00004 	mov	r0, r4
    8044:	e3a01000 	mov	r1, #0
    8048:	e3a02004 	mov	r2, #4
    804c:	eb00040c 	bl	9084 <memset>
    8050:	e2840001 	add	r0, r4, #1
    8054:	e8bd8010 	pop	{r4, pc}
    8058:	00009c80 	andeq	r9, r0, r0, lsl #25
    805c:	00009c70 	andeq	r9, r0, r0, ror ip
    8060:	00009c94 	muleq	r0, r4, ip
    8064:	00009c9c 	muleq	r0, ip, ip

00008068 <notmain>:
    8068:	e92d4010 	push	{r4, lr}
    806c:	e59f00d8 	ldr	r0, [pc, #216]	; 814c <notmain+0xe4>
    8070:	eb00040b 	bl	90a4 <printk>
    8074:	e3a00601 	mov	r0, #1048576	; 0x100000
    8078:	eb000694 	bl	9ad0 <kmalloc_init_set_start>
    807c:	e3a00601 	mov	r0, #1048576	; 0x100000
    8080:	eb0006a6 	bl	9b20 <kmalloc>
    8084:	e3a01601 	mov	r1, #1048576	; 0x100000
    8088:	eb0000bb 	bl	837c <ck_init>
    808c:	ebffffdf 	bl	8010 <test1>
    8090:	e1a04000 	mov	r4, r0
    8094:	e59f00b4 	ldr	r0, [pc, #180]	; 8150 <notmain+0xe8>
    8098:	eb000401 	bl	90a4 <printk>
    809c:	e59f00b0 	ldr	r0, [pc, #176]	; 8154 <notmain+0xec>
    80a0:	e1a01004 	mov	r1, r4
    80a4:	eb0003fe 	bl	90a4 <printk>
    80a8:	eb0001a6 	bl	8748 <ck_heap_errors>
    80ac:	e3500000 	cmp	r0, #0
    80b0:	0a000006 	beq	80d0 <notmain+0x68>
    80b4:	eb000415 	bl	9110 <rpi_reset_putc>
    80b8:	e59f0098 	ldr	r0, [pc, #152]	; 8158 <notmain+0xf0>
    80bc:	e59f1098 	ldr	r1, [pc, #152]	; 815c <notmain+0xf4>
    80c0:	e59f2098 	ldr	r2, [pc, #152]	; 8160 <notmain+0xf8>
    80c4:	e3a0301a 	mov	r3, #26
    80c8:	eb0003f5 	bl	90a4 <printk>
    80cc:	eb000569 	bl	9678 <clean_reboot>
    80d0:	e59f0078 	ldr	r0, [pc, #120]	; 8150 <notmain+0xe8>
    80d4:	eb0003f2 	bl	90a4 <printk>
    80d8:	e59f0084 	ldr	r0, [pc, #132]	; 8164 <notmain+0xfc>
    80dc:	eb0003f0 	bl	90a4 <printk>
    80e0:	e3a00000 	mov	r0, #0
    80e4:	eb000342 	bl	8df4 <ck_find_leaks>
    80e8:	e3500000 	cmp	r0, #0
    80ec:	0a000006 	beq	810c <notmain+0xa4>
    80f0:	eb000406 	bl	9110 <rpi_reset_putc>
    80f4:	e59f006c 	ldr	r0, [pc, #108]	; 8168 <notmain+0x100>
    80f8:	e59f105c 	ldr	r1, [pc, #92]	; 815c <notmain+0xf4>
    80fc:	e59f205c 	ldr	r2, [pc, #92]	; 8160 <notmain+0xf8>
    8100:	e3a03020 	mov	r3, #32
    8104:	eb0003e6 	bl	90a4 <printk>
    8108:	eb00055a 	bl	9678 <clean_reboot>
    810c:	e3a00001 	mov	r0, #1
    8110:	eb000337 	bl	8df4 <ck_find_leaks>
    8114:	e3500000 	cmp	r0, #0
    8118:	0a000004 	beq	8130 <notmain+0xc8>
    811c:	e59f002c 	ldr	r0, [pc, #44]	; 8150 <notmain+0xe8>
    8120:	eb0003df 	bl	90a4 <printk>
    8124:	e59f0040 	ldr	r0, [pc, #64]	; 816c <notmain+0x104>
    8128:	eb0003dd 	bl	90a4 <printk>
    812c:	e8bd8010 	pop	{r4, pc}
    8130:	eb0003f6 	bl	9110 <rpi_reset_putc>
    8134:	e59f0034 	ldr	r0, [pc, #52]	; 8170 <notmain+0x108>
    8138:	e59f101c 	ldr	r1, [pc, #28]	; 815c <notmain+0xf4>
    813c:	e59f201c 	ldr	r2, [pc, #28]	; 8160 <notmain+0xf8>
    8140:	e3a03026 	mov	r3, #38	; 0x26
    8144:	eb0003d6 	bl	90a4 <printk>
    8148:	eb00054a 	bl	9678 <clean_reboot>
    814c:	00009cb0 			; <UNDEFINED> instruction: 0x00009cb0
    8150:	00009c94 	muleq	r0, r4, ip
    8154:	00009cbc 			; <UNDEFINED> instruction: 0x00009cbc
    8158:	00009cd0 	ldrdeq	r9, [r0], -r0
    815c:	00009c80 	andeq	r9, r0, r0, lsl #25
    8160:	00009c78 	andeq	r9, r0, r8, ror ip
    8164:	0000a3c4 	andeq	sl, r0, r4, asr #7
    8168:	00009cf4 	strdeq	r9, [r0], -r4
    816c:	00009d24 	andeq	r9, r0, r4, lsr #26
    8170:	00009d48 	andeq	r9, r0, r8, asr #26

00008174 <check_mem>:
    8174:	e92d40f8 	push	{r3, r4, r5, r6, r7, lr}
    8178:	e1a06002 	mov	r6, r2
    817c:	e1a05003 	mov	r5, r3
    8180:	e3a04000 	mov	r4, #0
    8184:	ea00002a 	b	8234 <check_mem+0xc0>
    8188:	e7d0c004 	ldrb	ip, [r0, r4]
    818c:	e35c00fe 	cmp	ip, #254	; 0xfe
    8190:	0a000026 	beq	8230 <check_mem+0xbc>
    8194:	e59f70b8 	ldr	r7, [pc, #184]	; 8254 <check_mem+0xe0>
    8198:	e1a00007 	mov	r0, r7
    819c:	eb0003c0 	bl	90a4 <printk>
    81a0:	e59f00b0 	ldr	r0, [pc, #176]	; 8258 <check_mem+0xe4>
    81a4:	eb0003be 	bl	90a4 <printk>
    81a8:	e59f00ac 	ldr	r0, [pc, #172]	; 825c <check_mem+0xe8>
    81ac:	e28510b8 	add	r1, r5, #184	; 0xb8
    81b0:	e0842006 	add	r2, r4, r6
    81b4:	eb0003ba 	bl	90a4 <printk>
    81b8:	e1a00007 	mov	r0, r7
    81bc:	eb0003b8 	bl	90a4 <printk>
    81c0:	e59f0098 	ldr	r0, [pc, #152]	; 8260 <check_mem+0xec>
    81c4:	e5951000 	ldr	r1, [r5]
    81c8:	eb0003b5 	bl	90a4 <printk>
    81cc:	e5953010 	ldr	r3, [r5, #16]
    81d0:	e3530000 	cmp	r3, #0
    81d4:	0a000006 	beq	81f4 <check_mem+0x80>
    81d8:	e1a00007 	mov	r0, r7
    81dc:	eb0003b0 	bl	90a4 <printk>
    81e0:	e59f007c 	ldr	r0, [pc, #124]	; 8264 <check_mem+0xf0>
    81e4:	e5951010 	ldr	r1, [r5, #16]
    81e8:	e5952014 	ldr	r2, [r5, #20]
    81ec:	e5953018 	ldr	r3, [r5, #24]
    81f0:	eb0003ab 	bl	90a4 <printk>
    81f4:	e5953008 	ldr	r3, [r5, #8]
    81f8:	e353000c 	cmp	r3, #12
    81fc:	1a000010 	bne	8244 <check_mem+0xd0>
    8200:	e595301c 	ldr	r3, [r5, #28]
    8204:	e3530000 	cmp	r3, #0
    8208:	0a00000f 	beq	824c <check_mem+0xd8>
    820c:	e59f0040 	ldr	r0, [pc, #64]	; 8254 <check_mem+0xe0>
    8210:	eb0003a3 	bl	90a4 <printk>
    8214:	e59f004c 	ldr	r0, [pc, #76]	; 8268 <check_mem+0xf4>
    8218:	e595101c 	ldr	r1, [r5, #28]
    821c:	e5952020 	ldr	r2, [r5, #32]
    8220:	e5953024 	ldr	r3, [r5, #36]	; 0x24
    8224:	eb00039e 	bl	90a4 <printk>
    8228:	e3a00000 	mov	r0, #0
    822c:	e8bd80f8 	pop	{r3, r4, r5, r6, r7, pc}
    8230:	e2844001 	add	r4, r4, #1
    8234:	e1540001 	cmp	r4, r1
    8238:	3affffd2 	bcc	8188 <check_mem+0x14>
    823c:	e3a00001 	mov	r0, #1
    8240:	e8bd80f8 	pop	{r3, r4, r5, r6, r7, pc}
    8244:	e3a00000 	mov	r0, #0
    8248:	e8bd80f8 	pop	{r3, r4, r5, r6, r7, pc}
    824c:	e3a00000 	mov	r0, #0
    8250:	e8bd80f8 	pop	{r3, r4, r5, r6, r7, pc}
    8254:	00009c94 	muleq	r0, r4, ip
    8258:	00009d94 	muleq	r0, r4, sp
    825c:	00009d9c 	muleq	r0, ip, sp
    8260:	00009dc0 	andeq	r9, r0, r0, asr #27
    8264:	00009dcc 	andeq	r9, r0, ip, asr #27
    8268:	00009dec 	andeq	r9, r0, ip, ror #27

0000826c <mark_mem>:
    826c:	e92d4008 	push	{r3, lr}
    8270:	e1a02001 	mov	r2, r1
    8274:	e3a010fe 	mov	r1, #254	; 0xfe
    8278:	eb000381 	bl	9084 <memset>
    827c:	e8bd8008 	pop	{r3, pc}

00008280 <hdr_cksum>:
    8280:	e92d41f0 	push	{r4, r5, r6, r7, r8, lr}
    8284:	e1a04000 	mov	r4, r0
    8288:	e590800c 	ldr	r8, [r0, #12]
    828c:	e5907028 	ldr	r7, [r0, #40]	; 0x28
    8290:	e590602c 	ldr	r6, [r0, #44]	; 0x2c
    8294:	e1d053b4 	ldrh	r5, [r0, #52]	; 0x34
    8298:	e3a03000 	mov	r3, #0
    829c:	e580300c 	str	r3, [r0, #12]
    82a0:	e5803028 	str	r3, [r0, #40]	; 0x28
    82a4:	e580302c 	str	r3, [r0, #44]	; 0x2c
    82a8:	e1c033b4 	strh	r3, [r0, #52]	; 0x34
    82ac:	e3a01038 	mov	r1, #56	; 0x38
    82b0:	eb000337 	bl	8f94 <fast_hash>
    82b4:	e584800c 	str	r8, [r4, #12]
    82b8:	e5847028 	str	r7, [r4, #40]	; 0x28
    82bc:	e584602c 	str	r6, [r4, #44]	; 0x2c
    82c0:	e1c453b4 	strh	r5, [r4, #52]	; 0x34
    82c4:	e8bd81f0 	pop	{r4, r5, r6, r7, r8, pc}

000082c8 <check_hdr>:
    82c8:	e92d4010 	push	{r4, lr}
    82cc:	e1a04000 	mov	r4, r0
    82d0:	ebffffea 	bl	8280 <hdr_cksum>
    82d4:	e594300c 	ldr	r3, [r4, #12]
    82d8:	e1500003 	cmp	r0, r3
    82dc:	1a000005 	bne	82f8 <check_hdr+0x30>
    82e0:	e5943008 	ldr	r3, [r4, #8]
    82e4:	e243300b 	sub	r3, r3, #11
    82e8:	e3530001 	cmp	r3, #1
    82ec:	9a000003 	bls	8300 <check_hdr+0x38>
    82f0:	e3a00000 	mov	r0, #0
    82f4:	e8bd8010 	pop	{r4, pc}
    82f8:	e3a00000 	mov	r0, #0
    82fc:	e8bd8010 	pop	{r4, pc}
    8300:	e3a00001 	mov	r0, #1
    8304:	e8bd8010 	pop	{r4, pc}

00008308 <check_block>:
    8308:	e92d4010 	push	{r4, lr}
    830c:	e1a04000 	mov	r4, r0
    8310:	ebffffec 	bl	82c8 <check_hdr>
    8314:	e3500000 	cmp	r0, #0
    8318:	0a000011 	beq	8364 <check_block+0x5c>
    831c:	e2840038 	add	r0, r4, #56	; 0x38
    8320:	e3a01080 	mov	r1, #128	; 0x80
    8324:	e3e0207f 	mvn	r2, #127	; 0x7f
    8328:	e1a03004 	mov	r3, r4
    832c:	ebffff90 	bl	8174 <check_mem>
    8330:	e3500000 	cmp	r0, #0
    8334:	0a00000c 	beq	836c <check_block+0x64>
    8338:	e28400b8 	add	r0, r4, #184	; 0xb8
    833c:	e5942000 	ldr	r2, [r4]
    8340:	e5941004 	ldr	r1, [r4, #4]
    8344:	e0800002 	add	r0, r0, r2
    8348:	e2811080 	add	r1, r1, #128	; 0x80
    834c:	e1a03004 	mov	r3, r4
    8350:	ebffff87 	bl	8174 <check_mem>
    8354:	e3500000 	cmp	r0, #0
    8358:	0a000005 	beq	8374 <check_block+0x6c>
    835c:	e3a00001 	mov	r0, #1
    8360:	e8bd8010 	pop	{r4, pc}
    8364:	e3a00000 	mov	r0, #0
    8368:	e8bd8010 	pop	{r4, pc}
    836c:	e3a00000 	mov	r0, #0
    8370:	e8bd8010 	pop	{r4, pc}
    8374:	e3a00000 	mov	r0, #0
    8378:	e8bd8010 	pop	{r4, pc}

0000837c <ck_init>:
    837c:	e92d4038 	push	{r3, r4, r5, lr}
    8380:	e1a04000 	mov	r4, r0
    8384:	e1a05001 	mov	r5, r1
    8388:	e3100007 	tst	r0, #7
    838c:	0a000006 	beq	83ac <ck_init+0x30>
    8390:	eb00035e 	bl	9110 <rpi_reset_putc>
    8394:	e59f004c 	ldr	r0, [pc, #76]	; 83e8 <ck_init+0x6c>
    8398:	e59f104c 	ldr	r1, [pc, #76]	; 83ec <ck_init+0x70>
    839c:	e59f204c 	ldr	r2, [pc, #76]	; 83f0 <ck_init+0x74>
    83a0:	e3a0300d 	mov	r3, #13
    83a4:	eb00033e 	bl	90a4 <printk>
    83a8:	eb0004b2 	bl	9678 <clean_reboot>
    83ac:	e59f0040 	ldr	r0, [pc, #64]	; 83f4 <ck_init+0x78>
    83b0:	e3a01038 	mov	r1, #56	; 0x38
    83b4:	e3a02080 	mov	r2, #128	; 0x80
    83b8:	eb000339 	bl	90a4 <printk>
    83bc:	e59f3034 	ldr	r3, [pc, #52]	; 83f8 <ck_init+0x7c>
    83c0:	e5834000 	str	r4, [r3]
    83c4:	e5834004 	str	r4, [r3, #4]
    83c8:	e0845005 	add	r5, r4, r5
    83cc:	e5835008 	str	r5, [r3, #8]
    83d0:	e583400c 	str	r4, [r3, #12]
    83d4:	e5834010 	str	r4, [r3, #16]
    83d8:	e3a02000 	mov	r2, #0
    83dc:	e5832014 	str	r2, [r3, #20]
    83e0:	e5832018 	str	r2, [r3, #24]
    83e4:	e8bd8038 	pop	{r3, r4, r5, pc}
    83e8:	00009e08 	andeq	r9, r0, r8, lsl #28
    83ec:	00009e2c 	andeq	r9, r0, ip, lsr #28
    83f0:	00009d7c 	andeq	r9, r0, ip, ror sp
    83f4:	00009e38 	andeq	r9, r0, r8, lsr lr
    83f8:	0000a6cc 	andeq	sl, r0, ip, asr #13

000083fc <ckfree>:
    83fc:	e92d41f0 	push	{r4, r5, r6, r7, r8, lr}
    8400:	e1a04000 	mov	r4, r0
    8404:	e1a08001 	mov	r8, r1
    8408:	e1a07002 	mov	r7, r2
    840c:	e1a06003 	mov	r6, r3
    8410:	e59f00b8 	ldr	r0, [pc, #184]	; 84d0 <ckfree+0xd4>
    8414:	e5900004 	ldr	r0, [r0, #4]
    8418:	e3500000 	cmp	r0, #0
    841c:	1a000006 	bne	843c <ckfree+0x40>
    8420:	eb00033a 	bl	9110 <rpi_reset_putc>
    8424:	e59f00a8 	ldr	r0, [pc, #168]	; 84d4 <ckfree+0xd8>
    8428:	e59f10a8 	ldr	r1, [pc, #168]	; 84d8 <ckfree+0xdc>
    842c:	e59f20a8 	ldr	r2, [pc, #168]	; 84dc <ckfree+0xe0>
    8430:	e3a0305f 	mov	r3, #95	; 0x5f
    8434:	eb00031a 	bl	90a4 <printk>
    8438:	eb00048e 	bl	9678 <clean_reboot>
    843c:	e59f009c 	ldr	r0, [pc, #156]	; 84e0 <ckfree+0xe4>
    8440:	eb000317 	bl	90a4 <printk>
    8444:	e59f0098 	ldr	r0, [pc, #152]	; 84e4 <ckfree+0xe8>
    8448:	e1a01004 	mov	r1, r4
    844c:	eb000314 	bl	90a4 <printk>
    8450:	e24450b8 	sub	r5, r4, #184	; 0xb8
    8454:	e1a00005 	mov	r0, r5
    8458:	ebffffaa 	bl	8308 <check_block>
    845c:	e51430b0 	ldr	r3, [r4, #-176]	; 0xb0
    8460:	e353000b 	cmp	r3, #11
    8464:	0a000006 	beq	8484 <ckfree+0x88>
    8468:	eb000328 	bl	9110 <rpi_reset_putc>
    846c:	e59f0074 	ldr	r0, [pc, #116]	; 84e8 <ckfree+0xec>
    8470:	e59f1060 	ldr	r1, [pc, #96]	; 84d8 <ckfree+0xdc>
    8474:	e59f2060 	ldr	r2, [pc, #96]	; 84dc <ckfree+0xe0>
    8478:	e3a03067 	mov	r3, #103	; 0x67
    847c:	eb000308 	bl	90a4 <printk>
    8480:	eb00047c 	bl	9678 <clean_reboot>
    8484:	e3a0300c 	mov	r3, #12
    8488:	e50430b0 	str	r3, [r4, #-176]	; 0xb0
    848c:	e504809c 	str	r8, [r4, #-156]	; 0x9c
    8490:	e5047098 	str	r7, [r4, #-152]	; 0x98
    8494:	e5046094 	str	r6, [r4, #-148]	; 0x94
    8498:	e51410b4 	ldr	r1, [r4, #-180]	; 0xb4
    849c:	e51430b8 	ldr	r3, [r4, #-184]	; 0xb8
    84a0:	e1a00004 	mov	r0, r4
    84a4:	e0811003 	add	r1, r1, r3
    84a8:	ebffff6f 	bl	826c <mark_mem>
    84ac:	e51420b8 	ldr	r2, [r4, #-184]	; 0xb8
    84b0:	e59f3018 	ldr	r3, [pc, #24]	; 84d0 <ckfree+0xd4>
    84b4:	e5931014 	ldr	r1, [r3, #20]
    84b8:	e0812002 	add	r2, r1, r2
    84bc:	e5832014 	str	r2, [r3, #20]
    84c0:	e1a00005 	mov	r0, r5
    84c4:	ebffff6d 	bl	8280 <hdr_cksum>
    84c8:	e50400ac 	str	r0, [r4, #-172]	; 0xac
    84cc:	e8bd81f0 	pop	{r4, r5, r6, r7, r8, pc}
    84d0:	0000a6cc 	andeq	sl, r0, ip, asr #13
    84d4:	00009e54 	andeq	r9, r0, r4, asr lr
    84d8:	00009e2c 	andeq	r9, r0, ip, lsr #28
    84dc:	00009d84 	andeq	r9, r0, r4, lsl #27
    84e0:	00009c94 	muleq	r0, r4, ip
    84e4:	00009e88 	andeq	r9, r0, r8, lsl #29
    84e8:	00009e94 	muleq	r0, r4, lr

000084ec <ckalloc>:
    84ec:	e92d43f0 	push	{r4, r5, r6, r7, r8, r9, lr}
    84f0:	e24dd00c 	sub	sp, sp, #12
    84f4:	e1a05000 	mov	r5, r0
    84f8:	e1a09001 	mov	r9, r1
    84fc:	e1a08002 	mov	r8, r2
    8500:	e1a07003 	mov	r7, r3
    8504:	e59f31d4 	ldr	r3, [pc, #468]	; 86e0 <ckalloc+0x1f4>
    8508:	e5933004 	ldr	r3, [r3, #4]
    850c:	e3530000 	cmp	r3, #0
    8510:	1a000006 	bne	8530 <ckalloc+0x44>
    8514:	eb0002fd 	bl	9110 <rpi_reset_putc>
    8518:	e59f01c4 	ldr	r0, [pc, #452]	; 86e4 <ckalloc+0x1f8>
    851c:	e59f11c4 	ldr	r1, [pc, #452]	; 86e8 <ckalloc+0x1fc>
    8520:	e59f21c4 	ldr	r2, [pc, #452]	; 86ec <ckalloc+0x200>
    8524:	e3a03083 	mov	r3, #131	; 0x83
    8528:	eb0002dd 	bl	90a4 <printk>
    852c:	eb000451 	bl	9678 <clean_reboot>
    8530:	e59f01b8 	ldr	r0, [pc, #440]	; 86f0 <ckalloc+0x204>
    8534:	eb0002da 	bl	90a4 <printk>
    8538:	e59f01b4 	ldr	r0, [pc, #436]	; 86f4 <ckalloc+0x208>
    853c:	e1a01005 	mov	r1, r5
    8540:	eb0002d7 	bl	90a4 <printk>
    8544:	e2852007 	add	r2, r5, #7
    8548:	e3c22007 	bic	r2, r2, #7
    854c:	e2826f4e 	add	r6, r2, #312	; 0x138
    8550:	e1560005 	cmp	r6, r5
    8554:	2a00000c 	bcs	858c <ckalloc+0xa0>
    8558:	e59f0198 	ldr	r0, [pc, #408]	; 86f8 <ckalloc+0x20c>
    855c:	eb0002d0 	bl	90a4 <printk>
    8560:	e59f0194 	ldr	r0, [pc, #404]	; 86fc <ckalloc+0x210>
    8564:	e1a01005 	mov	r1, r5
    8568:	eb0002cd 	bl	90a4 <printk>
    856c:	eb0002e7 	bl	9110 <rpi_reset_putc>
    8570:	e58d5000 	str	r5, [sp]
    8574:	e59f0184 	ldr	r0, [pc, #388]	; 8700 <ckalloc+0x214>
    8578:	e59f1168 	ldr	r1, [pc, #360]	; 86e8 <ckalloc+0x1fc>
    857c:	e59f2168 	ldr	r2, [pc, #360]	; 86ec <ckalloc+0x200>
    8580:	e3a0308b 	mov	r3, #139	; 0x8b
    8584:	eb0002c6 	bl	90a4 <printk>
    8588:	eb00043a 	bl	9678 <clean_reboot>
    858c:	e59f314c 	ldr	r3, [pc, #332]	; 86e0 <ckalloc+0x1f4>
    8590:	e5934004 	ldr	r4, [r3, #4]
    8594:	e084c006 	add	ip, r4, r6
    8598:	e5933008 	ldr	r3, [r3, #8]
    859c:	e15c0003 	cmp	ip, r3
    85a0:	3a000014 	bcc	85f8 <ckalloc+0x10c>
    85a4:	e59f014c 	ldr	r0, [pc, #332]	; 86f8 <ckalloc+0x20c>
    85a8:	eb0002bd 	bl	90a4 <printk>
    85ac:	e59f412c 	ldr	r4, [pc, #300]	; 86e0 <ckalloc+0x1f4>
    85b0:	e5941008 	ldr	r1, [r4, #8]
    85b4:	e5943004 	ldr	r3, [r4, #4]
    85b8:	e59f0144 	ldr	r0, [pc, #324]	; 8704 <ckalloc+0x218>
    85bc:	e0631001 	rsb	r1, r3, r1
    85c0:	e1a02006 	mov	r2, r6
    85c4:	eb0002b6 	bl	90a4 <printk>
    85c8:	eb0002d0 	bl	9110 <rpi_reset_putc>
    85cc:	e5942008 	ldr	r2, [r4, #8]
    85d0:	e5943004 	ldr	r3, [r4, #4]
    85d4:	e0633002 	rsb	r3, r3, r2
    85d8:	e58d3000 	str	r3, [sp]
    85dc:	e58d6004 	str	r6, [sp, #4]
    85e0:	e59f0120 	ldr	r0, [pc, #288]	; 8708 <ckalloc+0x21c>
    85e4:	e59f10fc 	ldr	r1, [pc, #252]	; 86e8 <ckalloc+0x1fc>
    85e8:	e59f20fc 	ldr	r2, [pc, #252]	; 86ec <ckalloc+0x200>
    85ec:	e3a0308f 	mov	r3, #143	; 0x8f
    85f0:	eb0002ab 	bl	90a4 <printk>
    85f4:	eb00041f 	bl	9678 <clean_reboot>
    85f8:	e59f00e0 	ldr	r0, [pc, #224]	; 86e0 <ckalloc+0x1f4>
    85fc:	e580c004 	str	ip, [r0, #4]
    8600:	e5845000 	str	r5, [r4]
    8604:	e5903018 	ldr	r3, [r0, #24]
    8608:	e0833005 	add	r3, r3, r5
    860c:	e5803018 	str	r3, [r0, #24]
    8610:	e580c010 	str	ip, [r0, #16]
    8614:	e0652002 	rsb	r2, r5, r2
    8618:	e5842004 	str	r2, [r4, #4]
    861c:	e3a0300b 	mov	r3, #11
    8620:	e5843008 	str	r3, [r4, #8]
    8624:	e5849010 	str	r9, [r4, #16]
    8628:	e5848014 	str	r8, [r4, #20]
    862c:	e5847018 	str	r7, [r4, #24]
    8630:	e1a00004 	mov	r0, r4
    8634:	ebffff11 	bl	8280 <hdr_cksum>
    8638:	e584000c 	str	r0, [r4, #12]
    863c:	e2840038 	add	r0, r4, #56	; 0x38
    8640:	e3a01080 	mov	r1, #128	; 0x80
    8644:	ebffff08 	bl	826c <mark_mem>
    8648:	e28470b8 	add	r7, r4, #184	; 0xb8
    864c:	e5940000 	ldr	r0, [r4]
    8650:	e5941004 	ldr	r1, [r4, #4]
    8654:	e0870000 	add	r0, r7, r0
    8658:	e2811080 	add	r1, r1, #128	; 0x80
    865c:	ebffff02 	bl	826c <mark_mem>
    8660:	e1a00004 	mov	r0, r4
    8664:	ebffff17 	bl	82c8 <check_hdr>
    8668:	e3500000 	cmp	r0, #0
    866c:	1a000006 	bne	868c <ckalloc+0x1a0>
    8670:	eb0002a6 	bl	9110 <rpi_reset_putc>
    8674:	e59f0090 	ldr	r0, [pc, #144]	; 870c <ckalloc+0x220>
    8678:	e59f1068 	ldr	r1, [pc, #104]	; 86e8 <ckalloc+0x1fc>
    867c:	e59f2068 	ldr	r2, [pc, #104]	; 86ec <ckalloc+0x200>
    8680:	e3a030a5 	mov	r3, #165	; 0xa5
    8684:	eb000286 	bl	90a4 <printk>
    8688:	eb0003fa 	bl	9678 <clean_reboot>
    868c:	e1a00004 	mov	r0, r4
    8690:	ebffff1c 	bl	8308 <check_block>
    8694:	e3500000 	cmp	r0, #0
    8698:	1a000006 	bne	86b8 <ckalloc+0x1cc>
    869c:	eb00029b 	bl	9110 <rpi_reset_putc>
    86a0:	e59f0068 	ldr	r0, [pc, #104]	; 8710 <ckalloc+0x224>
    86a4:	e59f103c 	ldr	r1, [pc, #60]	; 86e8 <ckalloc+0x1fc>
    86a8:	e59f203c 	ldr	r2, [pc, #60]	; 86ec <ckalloc+0x200>
    86ac:	e3a030a6 	mov	r3, #166	; 0xa6
    86b0:	eb00027b 	bl	90a4 <printk>
    86b4:	eb0003ef 	bl	9678 <clean_reboot>
    86b8:	e59f0030 	ldr	r0, [pc, #48]	; 86f0 <ckalloc+0x204>
    86bc:	eb000278 	bl	90a4 <printk>
    86c0:	e59f004c 	ldr	r0, [pc, #76]	; 8714 <ckalloc+0x228>
    86c4:	e1a01005 	mov	r1, r5
    86c8:	e1a02006 	mov	r2, r6
    86cc:	e1a03007 	mov	r3, r7
    86d0:	eb000273 	bl	90a4 <printk>
    86d4:	e1a00007 	mov	r0, r7
    86d8:	e28dd00c 	add	sp, sp, #12
    86dc:	e8bd83f0 	pop	{r4, r5, r6, r7, r8, r9, pc}
    86e0:	0000a6cc 	andeq	sl, r0, ip, asr #13
    86e4:	00009e54 	andeq	r9, r0, r4, asr lr
    86e8:	00009e2c 	andeq	r9, r0, ip, lsr #28
    86ec:	00009d8c 	andeq	r9, r0, ip, lsl #27
    86f0:	00009c94 	muleq	r0, r4, ip
    86f4:	00009eb8 			; <UNDEFINED> instruction: 0x00009eb8
    86f8:	00009ed0 	ldrdeq	r9, [r0], -r0
    86fc:	00009edc 	ldrdeq	r9, [r0], -ip
    8700:	00009f04 	andeq	r9, r0, r4, lsl #30
    8704:	00009f3c 	andeq	r9, r0, ip, lsr pc
    8708:	00009f68 	andeq	r9, r0, r8, ror #30
    870c:	00009fa4 	andeq	r9, r0, r4, lsr #31
    8710:	00009fc4 	andeq	r9, r0, r4, asr #31
    8714:	00009fe4 	andeq	r9, r0, r4, ror #31

00008718 <check_data>:
    8718:	e92d4008 	push	{r3, lr}
    871c:	e1a03000 	mov	r3, r0
    8720:	e5902008 	ldr	r2, [r0, #8]
    8724:	e352000c 	cmp	r2, #12
    8728:	1a000004 	bne	8740 <check_data+0x28>
    872c:	e28000b8 	add	r0, r0, #184	; 0xb8
    8730:	e5931000 	ldr	r1, [r3]
    8734:	e3a02000 	mov	r2, #0
    8738:	ebfffe8d 	bl	8174 <check_mem>
    873c:	e8bd8008 	pop	{r3, pc}
    8740:	e3a00001 	mov	r0, #1
    8744:	e8bd8008 	pop	{r3, pc}

00008748 <ck_heap_errors>:
    8748:	e92d47f0 	push	{r4, r5, r6, r7, r8, r9, sl, lr}
    874c:	e59f410c 	ldr	r4, [pc, #268]	; 8860 <ck_heap_errors+0x118>
    8750:	e5943004 	ldr	r3, [r4, #4]
    8754:	e5946000 	ldr	r6, [r4]
    8758:	e0666003 	rsb	r6, r6, r3
    875c:	e5945008 	ldr	r5, [r4, #8]
    8760:	e0635005 	rsb	r5, r3, r5
    8764:	e59f00f8 	ldr	r0, [pc, #248]	; 8864 <ck_heap_errors+0x11c>
    8768:	eb00024d 	bl	90a4 <printk>
    876c:	e59f00f4 	ldr	r0, [pc, #244]	; 8868 <ck_heap_errors+0x120>
    8770:	e1a01006 	mov	r1, r6
    8774:	e1a02005 	mov	r2, r5
    8778:	eb000249 	bl	90a4 <printk>
    877c:	e5944000 	ldr	r4, [r4]
    8780:	e3a05000 	mov	r5, #0
    8784:	e1a06005 	mov	r6, r5
    8788:	e59f70d0 	ldr	r7, [pc, #208]	; 8860 <ck_heap_errors+0x118>
    878c:	e59fa0d8 	ldr	sl, [pc, #216]	; 886c <ck_heap_errors+0x124>
    8790:	e59f90cc 	ldr	r9, [pc, #204]	; 8864 <ck_heap_errors+0x11c>
    8794:	e59f80d4 	ldr	r8, [pc, #212]	; 8870 <ck_heap_errors+0x128>
    8798:	ea00001d 	b	8814 <ck_heap_errors+0xcc>
    879c:	e2855001 	add	r5, r5, #1
    87a0:	e1a00004 	mov	r0, r4
    87a4:	ebfffec7 	bl	82c8 <check_hdr>
    87a8:	e3500000 	cmp	r0, #0
    87ac:	1a000003 	bne	87c0 <ck_heap_errors+0x78>
    87b0:	e59f00bc 	ldr	r0, [pc, #188]	; 8874 <ck_heap_errors+0x12c>
    87b4:	eb00023a 	bl	90a4 <printk>
    87b8:	e3a00001 	mov	r0, #1
    87bc:	e8bd87f0 	pop	{r4, r5, r6, r7, r8, r9, sl, pc}
    87c0:	e1a00004 	mov	r0, r4
    87c4:	ebfffecf 	bl	8308 <check_block>
    87c8:	e3500000 	cmp	r0, #0
    87cc:	1a000002 	bne	87dc <ck_heap_errors+0x94>
    87d0:	e1a0000a 	mov	r0, sl
    87d4:	eb000232 	bl	90a4 <printk>
    87d8:	e2866001 	add	r6, r6, #1
    87dc:	e1a00004 	mov	r0, r4
    87e0:	ebffffcc 	bl	8718 <check_data>
    87e4:	e3500000 	cmp	r0, #0
    87e8:	1a000004 	bne	8800 <ck_heap_errors+0xb8>
    87ec:	e1a00009 	mov	r0, r9
    87f0:	eb00022b 	bl	90a4 <printk>
    87f4:	e1a00008 	mov	r0, r8
    87f8:	eb000229 	bl	90a4 <printk>
    87fc:	e2866001 	add	r6, r6, #1
    8800:	e5942000 	ldr	r2, [r4]
    8804:	e5943004 	ldr	r3, [r4, #4]
    8808:	e0823003 	add	r3, r2, r3
    880c:	e2833f4e 	add	r3, r3, #312	; 0x138
    8810:	e0844003 	add	r4, r4, r3
    8814:	e5973004 	ldr	r3, [r7, #4]
    8818:	e1540003 	cmp	r4, r3
    881c:	1affffde 	bne	879c <ck_heap_errors+0x54>
    8820:	e3560000 	cmp	r6, #0
    8824:	0a000006 	beq	8844 <ck_heap_errors+0xfc>
    8828:	e59f0034 	ldr	r0, [pc, #52]	; 8864 <ck_heap_errors+0x11c>
    882c:	eb00021c 	bl	90a4 <printk>
    8830:	e59f0040 	ldr	r0, [pc, #64]	; 8878 <ck_heap_errors+0x130>
    8834:	e1a01005 	mov	r1, r5
    8838:	e1a02006 	mov	r2, r6
    883c:	eb000218 	bl	90a4 <printk>
    8840:	ea000004 	b	8858 <ck_heap_errors+0x110>
    8844:	e59f0018 	ldr	r0, [pc, #24]	; 8864 <ck_heap_errors+0x11c>
    8848:	eb000215 	bl	90a4 <printk>
    884c:	e59f0028 	ldr	r0, [pc, #40]	; 887c <ck_heap_errors+0x134>
    8850:	e1a01005 	mov	r1, r5
    8854:	eb000212 	bl	90a4 <printk>
    8858:	e1a00006 	mov	r0, r6
    885c:	e8bd87f0 	pop	{r4, r5, r6, r7, r8, r9, sl, pc}
    8860:	0000a6cc 	andeq	sl, r0, ip, asr #13
    8864:	00009c94 	muleq	r0, r4, ip
    8868:	0000a014 	andeq	sl, r0, r4, lsl r0
    886c:	0000a060 	andeq	sl, r0, r0, rrx
    8870:	0000a074 	andeq	sl, r0, r4, ror r0
    8874:	0000a04c 	andeq	sl, r0, ip, asr #32
    8878:	0000a090 	muleq	r0, r0, r0
    887c:	0000a0b8 	strheq	sl, [r0], -r8

00008880 <ck_first_hdr>:
    8880:	e92d4010 	push	{r4, lr}
    8884:	e59f3010 	ldr	r3, [pc, #16]	; 889c <ck_first_hdr+0x1c>
    8888:	e5934000 	ldr	r4, [r3]
    888c:	e1a00004 	mov	r0, r4
    8890:	ebfffe8c 	bl	82c8 <check_hdr>
    8894:	e1a00004 	mov	r0, r4
    8898:	e8bd8010 	pop	{r4, pc}
    889c:	0000a6cc 	andeq	sl, r0, ip, asr #13

000088a0 <ck_next_hdr>:
    88a0:	e92d4010 	push	{r4, lr}
    88a4:	e5904000 	ldr	r4, [r0]
    88a8:	e2844007 	add	r4, r4, #7
    88ac:	e3c44007 	bic	r4, r4, #7
    88b0:	e2844f4e 	add	r4, r4, #312	; 0x138
    88b4:	e0804004 	add	r4, r0, r4
    88b8:	e59f3020 	ldr	r3, [pc, #32]	; 88e0 <ck_next_hdr+0x40>
    88bc:	e5933004 	ldr	r3, [r3, #4]
    88c0:	e1540003 	cmp	r4, r3
    88c4:	0a000003 	beq	88d8 <ck_next_hdr+0x38>
    88c8:	e1a00004 	mov	r0, r4
    88cc:	ebfffe7d 	bl	82c8 <check_hdr>
    88d0:	e1a00004 	mov	r0, r4
    88d4:	e8bd8010 	pop	{r4, pc}
    88d8:	e3a00000 	mov	r0, #0
    88dc:	e8bd8010 	pop	{r4, pc}
    88e0:	0000a6cc 	andeq	sl, r0, ip, asr #13

000088e4 <heap_info>:
    88e4:	e1a0c000 	mov	ip, r0
    88e8:	e59f300c 	ldr	r3, [pc, #12]	; 88fc <heap_info+0x18>
    88ec:	e893000f 	ldm	r3, {r0, r1, r2, r3}
    88f0:	e88c000f 	stm	ip, {r0, r1, r2, r3}
    88f4:	e1a0000c 	mov	r0, ip
    88f8:	e12fff1e 	bx	lr
    88fc:	0000a6d8 	ldrdeq	sl, [r0], -r8

00008900 <in_heap>:
    8900:	e59f3030 	ldr	r3, [pc, #48]	; 8938 <in_heap+0x38>
    8904:	e5933000 	ldr	r3, [r3]
    8908:	e1530000 	cmp	r3, r0
    890c:	8a000005 	bhi	8928 <in_heap+0x28>
    8910:	e59f3020 	ldr	r3, [pc, #32]	; 8938 <in_heap+0x38>
    8914:	e5933004 	ldr	r3, [r3, #4]
    8918:	e1530000 	cmp	r3, r0
    891c:	2a000003 	bcs	8930 <in_heap+0x30>
    8920:	e3a00000 	mov	r0, #0
    8924:	e12fff1e 	bx	lr
    8928:	e3a00000 	mov	r0, #0
    892c:	e12fff1e 	bx	lr
    8930:	e3a00001 	mov	r0, #1
    8934:	e12fff1e 	bx	lr
    8938:	0000a6e8 	andeq	sl, r0, r8, ror #13

0000893c <is_ptr>:
    893c:	e92d4010 	push	{r4, lr}
    8940:	e1a04000 	mov	r4, r0
    8944:	ebffffed 	bl	8900 <in_heap>
    8948:	e3500000 	cmp	r0, #0
    894c:	0a000016 	beq	89ac <is_ptr+0x70>
    8950:	ebffffca 	bl	8880 <ck_first_hdr>
    8954:	ea000011 	b	89a0 <is_ptr+0x64>
    8958:	e28030b8 	add	r3, r0, #184	; 0xb8
    895c:	e1530004 	cmp	r3, r4
    8960:	1a000003 	bne	8974 <is_ptr+0x38>
    8964:	e5903028 	ldr	r3, [r0, #40]	; 0x28
    8968:	e2833001 	add	r3, r3, #1
    896c:	e5803028 	str	r3, [r0, #40]	; 0x28
    8970:	e8bd8010 	pop	{r4, pc}
    8974:	e1540003 	cmp	r4, r3
    8978:	9a000007 	bls	899c <is_ptr+0x60>
    897c:	e5902000 	ldr	r2, [r0]
    8980:	e0833002 	add	r3, r3, r2
    8984:	e1530004 	cmp	r3, r4
    8988:	3a000003 	bcc	899c <is_ptr+0x60>
    898c:	e590302c 	ldr	r3, [r0, #44]	; 0x2c
    8990:	e2833001 	add	r3, r3, #1
    8994:	e580302c 	str	r3, [r0, #44]	; 0x2c
    8998:	e8bd8010 	pop	{r4, pc}
    899c:	ebffffbf 	bl	88a0 <ck_next_hdr>
    89a0:	e3500000 	cmp	r0, #0
    89a4:	1affffeb 	bne	8958 <is_ptr+0x1c>
    89a8:	e8bd8010 	pop	{r4, pc}
    89ac:	e3a00000 	mov	r0, #0
    89b0:	e8bd8010 	pop	{r4, pc}

000089b4 <sweep_leak>:
    89b4:	e92d4ff8 	push	{r3, r4, r5, r6, r7, r8, r9, sl, fp, lr}
    89b8:	e1a09000 	mov	r9, r0
    89bc:	e59f0100 	ldr	r0, [pc, #256]	; 8ac4 <sweep_leak+0x110>
    89c0:	eb0001b7 	bl	90a4 <printk>
    89c4:	e59f00fc 	ldr	r0, [pc, #252]	; 8ac8 <sweep_leak+0x114>
    89c8:	eb0001b5 	bl	90a4 <printk>
    89cc:	ebffffab 	bl	8880 <ck_first_hdr>
    89d0:	e1a04000 	mov	r4, r0
    89d4:	e3a06000 	mov	r6, #0
    89d8:	e1a07006 	mov	r7, r6
    89dc:	e1a05006 	mov	r5, r6
    89e0:	e1a08006 	mov	r8, r6
    89e4:	e59fa0e0 	ldr	sl, [pc, #224]	; 8acc <sweep_leak+0x118>
    89e8:	e59fb0e0 	ldr	fp, [pc, #224]	; 8ad0 <sweep_leak+0x11c>
    89ec:	ea00001c 	b	8a64 <sweep_leak+0xb0>
    89f0:	e5943008 	ldr	r3, [r4, #8]
    89f4:	e353000b 	cmp	r3, #11
    89f8:	1a000015 	bne	8a54 <sweep_leak+0xa0>
    89fc:	e1d433b4 	ldrh	r3, [r4, #52]	; 0x34
    8a00:	e3530000 	cmp	r3, #0
    8a04:	1a000006 	bne	8a24 <sweep_leak+0x70>
    8a08:	e1a0000a 	mov	r0, sl
    8a0c:	eb0001a4 	bl	90a4 <printk>
    8a10:	e1a0000b 	mov	r0, fp
    8a14:	e28410b8 	add	r1, r4, #184	; 0xb8
    8a18:	eb0001a1 	bl	90a4 <printk>
    8a1c:	e2877001 	add	r7, r7, #1
    8a20:	ea00000b 	b	8a54 <sweep_leak+0xa0>
    8a24:	e1c483b4 	strh	r8, [r4, #52]	; 0x34
    8a28:	e3590000 	cmp	r9, #0
    8a2c:	0a000008 	beq	8a54 <sweep_leak+0xa0>
    8a30:	e5943028 	ldr	r3, [r4, #40]	; 0x28
    8a34:	e3530000 	cmp	r3, #0
    8a38:	1a000005 	bne	8a54 <sweep_leak+0xa0>
    8a3c:	e1a0000a 	mov	r0, sl
    8a40:	eb000197 	bl	90a4 <printk>
    8a44:	e59f0088 	ldr	r0, [pc, #136]	; 8ad4 <sweep_leak+0x120>
    8a48:	e28410b8 	add	r1, r4, #184	; 0xb8
    8a4c:	eb000194 	bl	90a4 <printk>
    8a50:	e2866001 	add	r6, r6, #1
    8a54:	e2855001 	add	r5, r5, #1
    8a58:	e1a00004 	mov	r0, r4
    8a5c:	ebffff8f 	bl	88a0 <ck_next_hdr>
    8a60:	e1a04000 	mov	r4, r0
    8a64:	e3540000 	cmp	r4, #0
    8a68:	1affffe0 	bne	89f0 <sweep_leak+0x3c>
    8a6c:	e59f0058 	ldr	r0, [pc, #88]	; 8acc <sweep_leak+0x118>
    8a70:	eb00018b 	bl	90a4 <printk>
    8a74:	e59f005c 	ldr	r0, [pc, #92]	; 8ad8 <sweep_leak+0x124>
    8a78:	e1a01005 	mov	r1, r5
    8a7c:	eb000188 	bl	90a4 <printk>
    8a80:	e1973006 	orrs	r3, r7, r6
    8a84:	1a000004 	bne	8a9c <sweep_leak+0xe8>
    8a88:	e59f003c 	ldr	r0, [pc, #60]	; 8acc <sweep_leak+0x118>
    8a8c:	eb000184 	bl	90a4 <printk>
    8a90:	e59f0044 	ldr	r0, [pc, #68]	; 8adc <sweep_leak+0x128>
    8a94:	eb000182 	bl	90a4 <printk>
    8a98:	ea000005 	b	8ab4 <sweep_leak+0x100>
    8a9c:	e59f0028 	ldr	r0, [pc, #40]	; 8acc <sweep_leak+0x118>
    8aa0:	eb00017f 	bl	90a4 <printk>
    8aa4:	e59f0034 	ldr	r0, [pc, #52]	; 8ae0 <sweep_leak+0x12c>
    8aa8:	e1a01007 	mov	r1, r7
    8aac:	e1a02006 	mov	r2, r6
    8ab0:	eb00017b 	bl	90a4 <printk>
    8ab4:	e59f0028 	ldr	r0, [pc, #40]	; 8ae4 <sweep_leak+0x130>
    8ab8:	eb000179 	bl	90a4 <printk>
    8abc:	e0870006 	add	r0, r7, r6
    8ac0:	e8bd8ff8 	pop	{r3, r4, r5, r6, r7, r8, r9, sl, fp, pc}
    8ac4:	0000a13c 	andeq	sl, r0, ip, lsr r1
    8ac8:	0000a178 	andeq	sl, r0, r8, ror r1
    8acc:	00009c94 	muleq	r0, r4, ip
    8ad0:	0000a190 	muleq	r0, r0, r1
    8ad4:	0000a1b0 			; <UNDEFINED> instruction: 0x0000a1b0
    8ad8:	0000a1e8 	andeq	sl, r0, r8, ror #3
    8adc:	0000a200 	andeq	sl, r0, r0, lsl #4
    8ae0:	0000a220 	andeq	sl, r0, r0, lsr #4
    8ae4:	0000a24c 	andeq	sl, r0, ip, asr #4

00008ae8 <mark>:
    8ae8:	e92d4070 	push	{r4, r5, r6, lr}
    8aec:	e1a04000 	mov	r4, r0
    8af0:	e1a05001 	mov	r5, r1
    8af4:	e1500001 	cmp	r0, r1
    8af8:	3a000006 	bcc	8b18 <mark+0x30>
    8afc:	eb000183 	bl	9110 <rpi_reset_putc>
    8b00:	e59f00c4 	ldr	r0, [pc, #196]	; 8bcc <mark+0xe4>
    8b04:	e59f10c4 	ldr	r1, [pc, #196]	; 8bd0 <mark+0xe8>
    8b08:	e59f20c4 	ldr	r2, [pc, #196]	; 8bd4 <mark+0xec>
    8b0c:	e3a0305b 	mov	r3, #91	; 0x5b
    8b10:	eb000163 	bl	90a4 <printk>
    8b14:	eb0002d7 	bl	9678 <clean_reboot>
    8b18:	e3100003 	tst	r0, #3
    8b1c:	0a000006 	beq	8b3c <mark+0x54>
    8b20:	eb00017a 	bl	9110 <rpi_reset_putc>
    8b24:	e59f00ac 	ldr	r0, [pc, #172]	; 8bd8 <mark+0xf0>
    8b28:	e59f10a0 	ldr	r1, [pc, #160]	; 8bd0 <mark+0xe8>
    8b2c:	e59f20a0 	ldr	r2, [pc, #160]	; 8bd4 <mark+0xec>
    8b30:	e3a0305d 	mov	r3, #93	; 0x5d
    8b34:	eb00015a 	bl	90a4 <printk>
    8b38:	eb0002ce 	bl	9678 <clean_reboot>
    8b3c:	e3110003 	tst	r1, #3
    8b40:	0a00001d 	beq	8bbc <mark+0xd4>
    8b44:	eb000171 	bl	9110 <rpi_reset_putc>
    8b48:	e59f008c 	ldr	r0, [pc, #140]	; 8bdc <mark+0xf4>
    8b4c:	e59f107c 	ldr	r1, [pc, #124]	; 8bd0 <mark+0xe8>
    8b50:	e59f207c 	ldr	r2, [pc, #124]	; 8bd4 <mark+0xec>
    8b54:	e3a0305e 	mov	r3, #94	; 0x5e
    8b58:	eb000151 	bl	90a4 <printk>
    8b5c:	eb0002c5 	bl	9678 <clean_reboot>
    8b60:	e5940000 	ldr	r0, [r4]
    8b64:	ebffff74 	bl	893c <is_ptr>
    8b68:	e2503000 	subs	r3, r0, #0
    8b6c:	0a000010 	beq	8bb4 <mark+0xcc>
    8b70:	e5940000 	ldr	r0, [r4]
    8b74:	e28320b8 	add	r2, r3, #184	; 0xb8
    8b78:	e1500002 	cmp	r0, r2
    8b7c:	05931028 	ldreq	r1, [r3, #40]	; 0x28
    8b80:	02811001 	addeq	r1, r1, #1
    8b84:	05831028 	streq	r1, [r3, #40]	; 0x28
    8b88:	1593102c 	ldrne	r1, [r3, #44]	; 0x2c
    8b8c:	12811001 	addne	r1, r1, #1
    8b90:	1583102c 	strne	r1, [r3, #44]	; 0x2c
    8b94:	e1d303b4 	ldrh	r0, [r3, #52]	; 0x34
    8b98:	e3500000 	cmp	r0, #0
    8b9c:	1a000004 	bne	8bb4 <mark+0xcc>
    8ba0:	e1c363b4 	strh	r6, [r3, #52]	; 0x34
    8ba4:	e5931000 	ldr	r1, [r3]
    8ba8:	e1a00002 	mov	r0, r2
    8bac:	e0821001 	add	r1, r2, r1
    8bb0:	ebffffcc 	bl	8ae8 <mark>
    8bb4:	e2844004 	add	r4, r4, #4
    8bb8:	ea000000 	b	8bc0 <mark+0xd8>
    8bbc:	e3a06001 	mov	r6, #1
    8bc0:	e1540005 	cmp	r4, r5
    8bc4:	1affffe5 	bne	8b60 <mark+0x78>
    8bc8:	e8bd8070 	pop	{r4, r5, r6, pc}
    8bcc:	0000a288 	andeq	sl, r0, r8, lsl #5
    8bd0:	0000a29c 	muleq	r0, ip, r2
    8bd4:	0000a0e8 	andeq	sl, r0, r8, ror #1
    8bd8:	0000a2a4 	andeq	sl, r0, r4, lsr #5
    8bdc:	0000a2c4 	andeq	sl, r0, r4, asr #5

00008be0 <mark_all>:
    8be0:	e92d4010 	push	{r4, lr}
    8be4:	e24dd050 	sub	sp, sp, #80	; 0x50
    8be8:	ebffff24 	bl	8880 <ck_first_hdr>
    8bec:	e3a04000 	mov	r4, #0
    8bf0:	ea000003 	b	8c04 <mark_all+0x24>
    8bf4:	e580402c 	str	r4, [r0, #44]	; 0x2c
    8bf8:	e5804028 	str	r4, [r0, #40]	; 0x28
    8bfc:	e1c043b4 	strh	r4, [r0, #52]	; 0x34
    8c00:	ebffff26 	bl	88a0 <ck_next_hdr>
    8c04:	e3500000 	cmp	r0, #0
    8c08:	1afffff9 	bne	8bf4 <mark_all+0x14>
    8c0c:	e28d4040 	add	r4, sp, #64	; 0x40
    8c10:	e1a00004 	mov	r0, r4
    8c14:	ebffff32 	bl	88e4 <heap_info>
    8c18:	e59fc094 	ldr	ip, [pc, #148]	; 8cb4 <mark_all+0xd4>
    8c1c:	e894000f 	ldm	r4, {r0, r1, r2, r3}
    8c20:	e88c000f 	stm	ip, {r0, r1, r2, r3}
    8c24:	e1a0400d 	mov	r4, sp
    8c28:	e1a0000d 	mov	r0, sp
    8c2c:	eb0000d6 	bl	8f8c <dump_regs>
    8c30:	e59d3000 	ldr	r3, [sp]
    8c34:	e1530004 	cmp	r3, r4
    8c38:	0a00000b 	beq	8c6c <mark_all+0x8c>
    8c3c:	eb000133 	bl	9110 <rpi_reset_putc>
    8c40:	e59f0070 	ldr	r0, [pc, #112]	; 8cb8 <mark_all+0xd8>
    8c44:	e59f1070 	ldr	r1, [pc, #112]	; 8cbc <mark_all+0xdc>
    8c48:	e59f2070 	ldr	r2, [pc, #112]	; 8cc0 <mark_all+0xe0>
    8c4c:	e3a030df 	mov	r3, #223	; 0xdf
    8c50:	eb000113 	bl	90a4 <printk>
    8c54:	eb000287 	bl	9678 <clean_reboot>
    8c58:	e28d0050 	add	r0, sp, #80	; 0x50
    8c5c:	e0802103 	add	r2, r0, r3, lsl #2
    8c60:	e5021050 	str	r1, [r2, #-80]	; 0x50
    8c64:	e2833001 	add	r3, r3, #1
    8c68:	ea000001 	b	8c74 <mark_all+0x94>
    8c6c:	e3a03000 	mov	r3, #0
    8c70:	e1a01003 	mov	r1, r3
    8c74:	e3530003 	cmp	r3, #3
    8c78:	dafffff6 	ble	8c58 <mark_all+0x78>
    8c7c:	e28d0010 	add	r0, sp, #16
    8c80:	e28d1038 	add	r1, sp, #56	; 0x38
    8c84:	ebffff97 	bl	8ae8 <mark>
    8c88:	e59d0034 	ldr	r0, [sp, #52]	; 0x34
    8c8c:	e3a01302 	mov	r1, #134217728	; 0x8000000
    8c90:	ebffff94 	bl	8ae8 <mark>
    8c94:	e59f0028 	ldr	r0, [pc, #40]	; 8cc4 <mark_all+0xe4>
    8c98:	e59f1028 	ldr	r1, [pc, #40]	; 8cc8 <mark_all+0xe8>
    8c9c:	ebffff91 	bl	8ae8 <mark>
    8ca0:	e59f0024 	ldr	r0, [pc, #36]	; 8ccc <mark_all+0xec>
    8ca4:	e59f1024 	ldr	r1, [pc, #36]	; 8cd0 <mark_all+0xf0>
    8ca8:	ebffff8e 	bl	8ae8 <mark>
    8cac:	e28dd050 	add	sp, sp, #80	; 0x50
    8cb0:	e8bd8010 	pop	{r4, pc}
    8cb4:	0000a6e8 	andeq	sl, r0, r8, ror #13
    8cb8:	0000a2e4 	andeq	sl, r0, r4, ror #5
    8cbc:	0000a29c 	muleq	r0, ip, r2
    8cc0:	0000a0f0 	strdeq	sl, [r0], -r0
    8cc4:	0000a6cc 	andeq	sl, r0, ip, asr #13
    8cc8:	0000aaf8 	strdeq	sl, [r0], -r8
    8ccc:	00009c60 	andeq	r9, r0, r0, ror #24
    8cd0:	00009c70 	andeq	r9, r0, r0, ror ip

00008cd4 <sweep_free>:
    8cd4:	e92d4ff0 	push	{r4, r5, r6, r7, r8, r9, sl, fp, lr}
    8cd8:	e24dd014 	sub	sp, sp, #20
    8cdc:	e59f00e8 	ldr	r0, [pc, #232]	; 8dcc <sweep_free+0xf8>
    8ce0:	eb0000ef 	bl	90a4 <printk>
    8ce4:	e59f00e4 	ldr	r0, [pc, #228]	; 8dd0 <sweep_free+0xfc>
    8ce8:	eb0000ed 	bl	90a4 <printk>
    8cec:	ebfffee3 	bl	8880 <ck_first_hdr>
    8cf0:	e1a04000 	mov	r4, r0
    8cf4:	e3a06000 	mov	r6, #0
    8cf8:	e1a08006 	mov	r8, r6
    8cfc:	e1a05006 	mov	r5, r6
    8d00:	e59fb0cc 	ldr	fp, [pc, #204]	; 8dd4 <sweep_free+0x100>
    8d04:	e59fa0cc 	ldr	sl, [pc, #204]	; 8dd8 <sweep_free+0x104>
    8d08:	e59f90cc 	ldr	r9, [pc, #204]	; 8ddc <sweep_free+0x108>
    8d0c:	ea000017 	b	8d70 <sweep_free+0x9c>
    8d10:	e5943008 	ldr	r3, [r4, #8]
    8d14:	e353000b 	cmp	r3, #11
    8d18:	1a000010 	bne	8d60 <sweep_free+0x8c>
    8d1c:	e1d433b4 	ldrh	r3, [r4, #52]	; 0x34
    8d20:	e3530000 	cmp	r3, #0
    8d24:	1a00000d 	bne	8d60 <sweep_free+0x8c>
    8d28:	e1a07004 	mov	r7, r4
    8d2c:	e49730b8 	ldr	r3, [r7], #184	; 0xb8
    8d30:	e0866003 	add	r6, r6, r3
    8d34:	e2888001 	add	r8, r8, #1
    8d38:	e1a0000b 	mov	r0, fp
    8d3c:	eb0000d8 	bl	90a4 <printk>
    8d40:	e1a0000a 	mov	r0, sl
    8d44:	e1a01007 	mov	r1, r7
    8d48:	eb0000d5 	bl	90a4 <printk>
    8d4c:	e1a00007 	mov	r0, r7
    8d50:	e1a01009 	mov	r1, r9
    8d54:	e59f2084 	ldr	r2, [pc, #132]	; 8de0 <sweep_free+0x10c>
    8d58:	e59f3084 	ldr	r3, [pc, #132]	; 8de4 <sweep_free+0x110>
    8d5c:	ebfffda6 	bl	83fc <ckfree>
    8d60:	e2855001 	add	r5, r5, #1
    8d64:	e1a00004 	mov	r0, r4
    8d68:	ebfffecc 	bl	88a0 <ck_next_hdr>
    8d6c:	e1a04000 	mov	r4, r0
    8d70:	e3540000 	cmp	r4, #0
    8d74:	1affffe5 	bne	8d10 <sweep_free+0x3c>
    8d78:	e59f4054 	ldr	r4, [pc, #84]	; 8dd4 <sweep_free+0x100>
    8d7c:	e1a00004 	mov	r0, r4
    8d80:	eb0000c7 	bl	90a4 <printk>
    8d84:	e59f005c 	ldr	r0, [pc, #92]	; 8de8 <sweep_free+0x114>
    8d88:	e1a01005 	mov	r1, r5
    8d8c:	e1a02008 	mov	r2, r8
    8d90:	e1a03006 	mov	r3, r6
    8d94:	eb0000c2 	bl	90a4 <printk>
    8d98:	e1a0000d 	mov	r0, sp
    8d9c:	ebfffed0 	bl	88e4 <heap_info>
    8da0:	e1a00004 	mov	r0, r4
    8da4:	eb0000be 	bl	90a4 <printk>
    8da8:	e59f003c 	ldr	r0, [pc, #60]	; 8dec <sweep_free+0x118>
    8dac:	e59d100c 	ldr	r1, [sp, #12]
    8db0:	e59d2008 	ldr	r2, [sp, #8]
    8db4:	eb0000ba 	bl	90a4 <printk>
    8db8:	e59f0030 	ldr	r0, [pc, #48]	; 8df0 <sweep_free+0x11c>
    8dbc:	eb0000b8 	bl	90a4 <printk>
    8dc0:	e1a00006 	mov	r0, r6
    8dc4:	e28dd014 	add	sp, sp, #20
    8dc8:	e8bd8ff0 	pop	{r4, r5, r6, r7, r8, r9, sl, fp, pc}
    8dcc:	0000a13c 	andeq	sl, r0, ip, lsr r1
    8dd0:	0000a314 	andeq	sl, r0, r4, lsl r3
    8dd4:	00009c94 	muleq	r0, r4, ip
    8dd8:	0000a324 	andeq	sl, r0, r4, lsr #6
    8ddc:	0000a29c 	muleq	r0, ip, r2
    8de0:	0000a0fc 	strdeq	sl, [r0], -ip
    8de4:	0000013a 	andeq	r0, r0, sl, lsr r1
    8de8:	0000a338 	andeq	sl, r0, r8, lsr r3
    8dec:	0000a364 	andeq	sl, r0, r4, ror #6
    8df0:	0000a24c 	andeq	sl, r0, ip, asr #4

00008df4 <ck_find_leaks>:
    8df4:	e92d4010 	push	{r4, lr}
    8df8:	e1a04000 	mov	r4, r0
    8dfc:	ebffff77 	bl	8be0 <mark_all>
    8e00:	e1a00004 	mov	r0, r4
    8e04:	ebfffeea 	bl	89b4 <sweep_leak>
    8e08:	e8bd8010 	pop	{r4, pc}

00008e0c <check_no_leak>:
    8e0c:	e92d4008 	push	{r3, lr}
    8e10:	ebfffe4c 	bl	8748 <ck_heap_errors>
    8e14:	e3500000 	cmp	r0, #0
    8e18:	0a000006 	beq	8e38 <check_no_leak+0x2c>
    8e1c:	eb0000bb 	bl	9110 <rpi_reset_putc>
    8e20:	e59f0060 	ldr	r0, [pc, #96]	; 8e88 <check_no_leak+0x7c>
    8e24:	e59f1060 	ldr	r1, [pc, #96]	; 8e8c <check_no_leak+0x80>
    8e28:	e59f2060 	ldr	r2, [pc, #96]	; 8e90 <check_no_leak+0x84>
    8e2c:	e59f3060 	ldr	r3, [pc, #96]	; 8e94 <check_no_leak+0x88>
    8e30:	eb00009b 	bl	90a4 <printk>
    8e34:	eb00020f 	bl	9678 <clean_reboot>
    8e38:	e59f0058 	ldr	r0, [pc, #88]	; 8e98 <check_no_leak+0x8c>
    8e3c:	eb000098 	bl	90a4 <printk>
    8e40:	e59f0054 	ldr	r0, [pc, #84]	; 8e9c <check_no_leak+0x90>
    8e44:	eb000096 	bl	90a4 <printk>
    8e48:	e3a00001 	mov	r0, #1
    8e4c:	ebffffe8 	bl	8df4 <ck_find_leaks>
    8e50:	e3500000 	cmp	r0, #0
    8e54:	0a000006 	beq	8e74 <check_no_leak+0x68>
    8e58:	eb0000ac 	bl	9110 <rpi_reset_putc>
    8e5c:	e59f003c 	ldr	r0, [pc, #60]	; 8ea0 <check_no_leak+0x94>
    8e60:	e59f1024 	ldr	r1, [pc, #36]	; 8e8c <check_no_leak+0x80>
    8e64:	e59f2024 	ldr	r2, [pc, #36]	; 8e90 <check_no_leak+0x84>
    8e68:	e59f3034 	ldr	r3, [pc, #52]	; 8ea4 <check_no_leak+0x98>
    8e6c:	eb00008c 	bl	90a4 <printk>
    8e70:	eb000200 	bl	9678 <clean_reboot>
    8e74:	e59f001c 	ldr	r0, [pc, #28]	; 8e98 <check_no_leak+0x8c>
    8e78:	eb000089 	bl	90a4 <printk>
    8e7c:	e59f0024 	ldr	r0, [pc, #36]	; 8ea8 <check_no_leak+0x9c>
    8e80:	eb000087 	bl	90a4 <printk>
    8e84:	e8bd8008 	pop	{r3, pc}
    8e88:	0000a398 	muleq	r0, r8, r3
    8e8c:	0000a29c 	muleq	r0, ip, r2
    8e90:	0000a108 	andeq	sl, r0, r8, lsl #2
    8e94:	00000109 	andeq	r0, r0, r9, lsl #2
    8e98:	00009c94 	muleq	r0, r4, ip
    8e9c:	0000a3c0 	andeq	sl, r0, r0, asr #7
    8ea0:	0000a3e0 	andeq	sl, r0, r0, ror #7
    8ea4:	0000010d 	andeq	r0, r0, sp, lsl #2
    8ea8:	0000a40c 	andeq	sl, r0, ip, lsl #8

00008eac <check_should_leak>:
    8eac:	e92d4010 	push	{r4, lr}
    8eb0:	ebfffe24 	bl	8748 <ck_heap_errors>
    8eb4:	e3500000 	cmp	r0, #0
    8eb8:	0a000006 	beq	8ed8 <check_should_leak+0x2c>
    8ebc:	eb000093 	bl	9110 <rpi_reset_putc>
    8ec0:	e59f0068 	ldr	r0, [pc, #104]	; 8f30 <check_should_leak+0x84>
    8ec4:	e59f1068 	ldr	r1, [pc, #104]	; 8f34 <check_should_leak+0x88>
    8ec8:	e59f2068 	ldr	r2, [pc, #104]	; 8f38 <check_should_leak+0x8c>
    8ecc:	e59f3068 	ldr	r3, [pc, #104]	; 8f3c <check_should_leak+0x90>
    8ed0:	eb000073 	bl	90a4 <printk>
    8ed4:	eb0001e7 	bl	9678 <clean_reboot>
    8ed8:	e59f0060 	ldr	r0, [pc, #96]	; 8f40 <check_should_leak+0x94>
    8edc:	eb000070 	bl	90a4 <printk>
    8ee0:	e59f005c 	ldr	r0, [pc, #92]	; 8f44 <check_should_leak+0x98>
    8ee4:	eb00006e 	bl	90a4 <printk>
    8ee8:	e3a00001 	mov	r0, #1
    8eec:	ebffffc0 	bl	8df4 <ck_find_leaks>
    8ef0:	e2504000 	subs	r4, r0, #0
    8ef4:	1a000006 	bne	8f14 <check_should_leak+0x68>
    8ef8:	eb000084 	bl	9110 <rpi_reset_putc>
    8efc:	e59f0044 	ldr	r0, [pc, #68]	; 8f48 <check_should_leak+0x9c>
    8f00:	e59f102c 	ldr	r1, [pc, #44]	; 8f34 <check_should_leak+0x88>
    8f04:	e59f202c 	ldr	r2, [pc, #44]	; 8f38 <check_should_leak+0x8c>
    8f08:	e3a03e12 	mov	r3, #288	; 0x120
    8f0c:	eb000064 	bl	90a4 <printk>
    8f10:	eb0001d8 	bl	9678 <clean_reboot>
    8f14:	e59f0024 	ldr	r0, [pc, #36]	; 8f40 <check_should_leak+0x94>
    8f18:	eb000061 	bl	90a4 <printk>
    8f1c:	e59f0028 	ldr	r0, [pc, #40]	; 8f4c <check_should_leak+0xa0>
    8f20:	e1a01004 	mov	r1, r4
    8f24:	eb00005e 	bl	90a4 <printk>
    8f28:	e1a00004 	mov	r0, r4
    8f2c:	e8bd8010 	pop	{r4, pc}
    8f30:	0000a398 	muleq	r0, r8, r3
    8f34:	0000a29c 	muleq	r0, ip, r2
    8f38:	0000a118 	andeq	sl, r0, r8, lsl r1
    8f3c:	0000011a 	andeq	r0, r0, sl, lsl r1
    8f40:	00009c94 	muleq	r0, r4, ip
    8f44:	0000a3c0 	andeq	sl, r0, r0, asr #7
    8f48:	0000a424 	andeq	sl, r0, r4, lsr #8
    8f4c:	0000a44c 	andeq	sl, r0, ip, asr #8

00008f50 <implement_this>:
    8f50:	e92d4008 	push	{r3, lr}
    8f54:	eb00006d 	bl	9110 <rpi_reset_putc>
    8f58:	e59f0010 	ldr	r0, [pc, #16]	; 8f70 <implement_this+0x20>
    8f5c:	e59f1010 	ldr	r1, [pc, #16]	; 8f74 <implement_this+0x24>
    8f60:	e59f2010 	ldr	r2, [pc, #16]	; 8f78 <implement_this+0x28>
    8f64:	e3a03f4a 	mov	r3, #296	; 0x128
    8f68:	eb00004d 	bl	90a4 <printk>
    8f6c:	eb0001c1 	bl	9678 <clean_reboot>
    8f70:	0000a46c 	andeq	sl, r0, ip, ror #8
    8f74:	0000a29c 	muleq	r0, ip, r2
    8f78:	0000a12c 	andeq	sl, r0, ip, lsr #2

00008f7c <ck_gc>:
    8f7c:	e92d4008 	push	{r3, lr}
    8f80:	ebffff16 	bl	8be0 <mark_all>
    8f84:	ebffff52 	bl	8cd4 <sweep_free>
    8f88:	e8bd8008 	pop	{r3, pc}

00008f8c <dump_regs>:
    8f8c:	e8807fff 	stm	r0, {r0, r1, r2, r3, r4, r5, r6, r7, r8, r9, sl, fp, ip, sp, lr}
    8f90:	e12fff1e 	bx	lr

00008f94 <fast_hash>:
    8f94:	e52d4004 	push	{r4}		; (str r4, [sp, #-4]!)
    8f98:	e1a02001 	mov	r2, r1
    8f9c:	e1a03000 	mov	r3, r0
    8fa0:	e3500000 	cmp	r0, #0
    8fa4:	13510000 	cmpne	r1, #0
    8fa8:	da000032 	ble	9078 <fast_hash+0xe4>
    8fac:	e2014003 	and	r4, r1, #3
    8fb0:	e1a01141 	asr	r1, r1, #2
    8fb4:	ea00000b 	b	8fe8 <fast_hash+0x54>
    8fb8:	e5d3c001 	ldrb	ip, [r3, #1]
    8fbc:	e5d30000 	ldrb	r0, [r3]
    8fc0:	e080040c 	add	r0, r0, ip, lsl #8
    8fc4:	e0800002 	add	r0, r0, r2
    8fc8:	e5d3c003 	ldrb	ip, [r3, #3]
    8fcc:	e5d32002 	ldrb	r2, [r3, #2]
    8fd0:	e082240c 	add	r2, r2, ip, lsl #8
    8fd4:	e0202582 	eor	r2, r0, r2, lsl #11
    8fd8:	e0222800 	eor	r2, r2, r0, lsl #16
    8fdc:	e2833004 	add	r3, r3, #4
    8fe0:	e08225a2 	add	r2, r2, r2, lsr #11
    8fe4:	e2411001 	sub	r1, r1, #1
    8fe8:	e3510000 	cmp	r1, #0
    8fec:	cafffff1 	bgt	8fb8 <fast_hash+0x24>
    8ff0:	e3540002 	cmp	r4, #2
    8ff4:	0a00000d 	beq	9030 <fast_hash+0x9c>
    8ff8:	e3540003 	cmp	r4, #3
    8ffc:	0a000002 	beq	900c <fast_hash+0x78>
    9000:	e3540001 	cmp	r4, #1
    9004:	1a000014 	bne	905c <fast_hash+0xc8>
    9008:	ea00000f 	b	904c <fast_hash+0xb8>
    900c:	e5d30001 	ldrb	r0, [r3, #1]
    9010:	e5d31000 	ldrb	r1, [r3]
    9014:	e0811400 	add	r1, r1, r0, lsl #8
    9018:	e0812002 	add	r2, r1, r2
    901c:	e0222802 	eor	r2, r2, r2, lsl #16
    9020:	e1d330d2 	ldrsb	r3, [r3, #2]
    9024:	e0222903 	eor	r2, r2, r3, lsl #18
    9028:	e08225a2 	add	r2, r2, r2, lsr #11
    902c:	ea00000a 	b	905c <fast_hash+0xc8>
    9030:	e5d31001 	ldrb	r1, [r3, #1]
    9034:	e5d33000 	ldrb	r3, [r3]
    9038:	e0833401 	add	r3, r3, r1, lsl #8
    903c:	e0832002 	add	r2, r3, r2
    9040:	e0222582 	eor	r2, r2, r2, lsl #11
    9044:	e08228a2 	add	r2, r2, r2, lsr #17
    9048:	ea000003 	b	905c <fast_hash+0xc8>
    904c:	e1d330d0 	ldrsb	r3, [r3]
    9050:	e0832002 	add	r2, r3, r2
    9054:	e0222502 	eor	r2, r2, r2, lsl #10
    9058:	e08220a2 	add	r2, r2, r2, lsr #1
    905c:	e0220182 	eor	r0, r2, r2, lsl #3
    9060:	e08002a0 	add	r0, r0, r0, lsr #5
    9064:	e0200200 	eor	r0, r0, r0, lsl #4
    9068:	e08008a0 	add	r0, r0, r0, lsr #17
    906c:	e0200c80 	eor	r0, r0, r0, lsl #25
    9070:	e0800320 	add	r0, r0, r0, lsr #6
    9074:	ea000000 	b	907c <fast_hash+0xe8>
    9078:	e3a00000 	mov	r0, #0
    907c:	e49d4004 	pop	{r4}		; (ldr r4, [sp], #4)
    9080:	e12fff1e 	bx	lr

00009084 <memset>:
    9084:	e0802002 	add	r2, r0, r2
    9088:	e1a03000 	mov	r3, r0
    908c:	ea000001 	b	9098 <memset+0x14>
    9090:	e5c31000 	strb	r1, [r3]
    9094:	e2833001 	add	r3, r3, #1
    9098:	e1530002 	cmp	r3, r2
    909c:	3afffffb 	bcc	9090 <memset+0xc>
    90a0:	e12fff1e 	bx	lr

000090a4 <printk>:
    90a4:	e92d000f 	push	{r0, r1, r2, r3}
    90a8:	e92d4030 	push	{r4, r5, lr}
    90ac:	e24dd00c 	sub	sp, sp, #12
    90b0:	e28d301c 	add	r3, sp, #28
    90b4:	e58d3004 	str	r3, [sp, #4]
    90b8:	e59f4034 	ldr	r4, [pc, #52]	; 90f4 <printk+0x50>
    90bc:	e1a00004 	mov	r0, r4
    90c0:	e3a01b01 	mov	r1, #1024	; 0x400
    90c4:	e59d2018 	ldr	r2, [sp, #24]
    90c8:	eb0000c8 	bl	93f0 <va_printk>
    90cc:	e1a05000 	mov	r5, r0
    90d0:	e59f3020 	ldr	r3, [pc, #32]	; 90f8 <printk+0x54>
    90d4:	e5933000 	ldr	r3, [r3]
    90d8:	e1a00004 	mov	r0, r4
    90dc:	e12fff33 	blx	r3
    90e0:	e1a00005 	mov	r0, r5
    90e4:	e28dd00c 	add	sp, sp, #12
    90e8:	e8bd4030 	pop	{r4, r5, lr}
    90ec:	e28dd010 	add	sp, sp, #16
    90f0:	e12fff1e 	bx	lr
    90f4:	0000a6f8 	strdeq	sl, [r0], -r8
    90f8:	00009c64 	andeq	r9, r0, r4, ror #24

000090fc <internal_putchar>:
    90fc:	e92d4010 	push	{r4, lr}
    9100:	e1a04000 	mov	r4, r0
    9104:	eb000212 	bl	9954 <uart_putc>
    9108:	e1a00004 	mov	r0, r4
    910c:	e8bd8010 	pop	{r4, pc}

00009110 <rpi_reset_putc>:
    9110:	e59f2008 	ldr	r2, [pc, #8]	; 9120 <rpi_reset_putc+0x10>
    9114:	e59f3008 	ldr	r3, [pc, #8]	; 9124 <rpi_reset_putc+0x14>
    9118:	e5832000 	str	r2, [r3]
    911c:	e12fff1e 	bx	lr
    9120:	000090fc 	strdeq	r9, [r0], -ip
    9124:	00009c60 	andeq	r9, r0, r0, ror #24

00009128 <rpi_set_putc>:
    9128:	e59f3004 	ldr	r3, [pc, #4]	; 9134 <rpi_set_putc+0xc>
    912c:	e5830000 	str	r0, [r3]
    9130:	e12fff1e 	bx	lr
    9134:	00009c60 	andeq	r9, r0, r0, ror #24

00009138 <internal_putk>:
    9138:	e92d4038 	push	{r3, r4, r5, lr}
    913c:	e1a04000 	mov	r4, r0
    9140:	e59f5020 	ldr	r5, [pc, #32]	; 9168 <internal_putk+0x30>
    9144:	ea000002 	b	9154 <internal_putk+0x1c>
    9148:	e5953000 	ldr	r3, [r5]
    914c:	e12fff33 	blx	r3
    9150:	e2844001 	add	r4, r4, #1
    9154:	e5d40000 	ldrb	r0, [r4]
    9158:	e3500000 	cmp	r0, #0
    915c:	1afffff9 	bne	9148 <internal_putk+0x10>
    9160:	e3a00001 	mov	r0, #1
    9164:	e8bd8038 	pop	{r3, r4, r5, pc}
    9168:	00009c60 	andeq	r9, r0, r0, ror #24

0000916c <isdigit>:
    916c:	e2400030 	sub	r0, r0, #48	; 0x30
    9170:	e3500009 	cmp	r0, #9
    9174:	83a00000 	movhi	r0, #0
    9178:	93a00001 	movls	r0, #1
    917c:	e12fff1e 	bx	lr

00009180 <pad>:
    9180:	e0611000 	rsb	r1, r1, r0
    9184:	e3a03020 	mov	r3, #32
    9188:	ea000002 	b	9198 <pad+0x18>
    918c:	e5c03000 	strb	r3, [r0]
    9190:	e2811001 	add	r1, r1, #1
    9194:	e2800001 	add	r0, r0, #1
    9198:	e1510002 	cmp	r1, r2
    919c:	bafffffa 	blt	918c <pad+0xc>
    91a0:	e3a03000 	mov	r3, #0
    91a4:	e5c03000 	strb	r3, [r0]
    91a8:	e12fff1e 	bx	lr

000091ac <reverse>:
    91ac:	e063c002 	rsb	ip, r3, r2
    91b0:	e28cc001 	add	ip, ip, #1
    91b4:	e15c0001 	cmp	ip, r1
    91b8:	c061100c 	rsbgt	r1, r1, ip
    91bc:	c0833001 	addgt	r3, r3, r1
    91c0:	e2422001 	sub	r2, r2, #1
    91c4:	e1a01000 	mov	r1, r0
    91c8:	ea000002 	b	91d8 <reverse+0x2c>
    91cc:	e452c001 	ldrb	ip, [r2], #-1
    91d0:	e5c1c000 	strb	ip, [r1]
    91d4:	e2811001 	add	r1, r1, #1
    91d8:	e1520003 	cmp	r2, r3
    91dc:	2afffffa 	bcs	91cc <reverse+0x20>
    91e0:	e3a03000 	mov	r3, #0
    91e4:	e5c13000 	strb	r3, [r1]
    91e8:	e12fff1e 	bx	lr

000091ec <emit>:
    91ec:	e92d41f0 	push	{r4, r5, r6, r7, r8, lr}
    91f0:	e24dd040 	sub	sp, sp, #64	; 0x40
    91f4:	e1a05001 	mov	r5, r1
    91f8:	e1a04002 	mov	r4, r2
    91fc:	e59d2058 	ldr	r2, [sp, #88]	; 0x58
    9200:	e1520004 	cmp	r2, r4
    9204:	c2442001 	subgt	r2, r4, #1
    9208:	e1a0c003 	mov	ip, r3
    920c:	e2400002 	sub	r0, r0, #2
    9210:	e350000e 	cmp	r0, #14
    9214:	979ff100 	ldrls	pc, [pc, r0, lsl #2]
    9218:	ea000048 	b	9340 <emit+0x154>
    921c:	00009318 	andeq	r9, r0, r8, lsl r3
    9220:	00009340 	andeq	r9, r0, r0, asr #6
    9224:	00009340 	andeq	r9, r0, r0, asr #6
    9228:	00009340 	andeq	r9, r0, r0, asr #6
    922c:	00009340 	andeq	r9, r0, r0, asr #6
    9230:	00009340 	andeq	r9, r0, r0, asr #6
    9234:	0000930c 	andeq	r9, r0, ip, lsl #6
    9238:	00009340 	andeq	r9, r0, r0, asr #6
    923c:	00009258 	andeq	r9, r0, r8, asr r2
    9240:	00009340 	andeq	r9, r0, r0, asr #6
    9244:	00009340 	andeq	r9, r0, r0, asr #6
    9248:	00009340 	andeq	r9, r0, r0, asr #6
    924c:	00009340 	andeq	r9, r0, r0, asr #6
    9250:	00009340 	andeq	r9, r0, r0, asr #6
    9254:	000092cc 	andeq	r9, r0, ip, asr #5
    9258:	e59d105c 	ldr	r1, [sp, #92]	; 0x5c
    925c:	e2911000 	adds	r1, r1, #0
    9260:	13a01001 	movne	r1, #1
    9264:	e0111fa3 	ands	r1, r1, r3, lsr #31
    9268:	1263c000 	rsbne	ip, r3, #0
    926c:	13a08001 	movne	r8, #1
    9270:	03a08000 	moveq	r8, #0
    9274:	e1a0100d 	mov	r1, sp
    9278:	e59f7100 	ldr	r7, [pc, #256]	; 9380 <emit+0x194>
    927c:	e59f6100 	ldr	r6, [pc, #256]	; 9384 <emit+0x198>
    9280:	ea000000 	b	9288 <emit+0x9c>
    9284:	e1a01000 	mov	r1, r0
    9288:	e2810001 	add	r0, r1, #1
    928c:	e083ec97 	umull	lr, r3, r7, ip
    9290:	e1a031a3 	lsr	r3, r3, #3
    9294:	e1a0e003 	mov	lr, r3
    9298:	e0833103 	add	r3, r3, r3, lsl #2
    929c:	e1a03083 	lsl	r3, r3, #1
    92a0:	e063300c 	rsb	r3, r3, ip
    92a4:	e7d63003 	ldrb	r3, [r6, r3]
    92a8:	e5c13000 	strb	r3, [r1]
    92ac:	e1a0c00e 	mov	ip, lr
    92b0:	e35e0000 	cmp	lr, #0
    92b4:	1afffff2 	bne	9284 <emit+0x98>
    92b8:	e3580000 	cmp	r8, #0
    92bc:	12810002 	addne	r0, r1, #2
    92c0:	13a0302d 	movne	r3, #45	; 0x2d
    92c4:	15c13001 	strbne	r3, [r1, #1]
    92c8:	ea000023 	b	935c <emit+0x170>
    92cc:	e1a0300d 	mov	r3, sp
    92d0:	e59fe0b0 	ldr	lr, [pc, #176]	; 9388 <emit+0x19c>
    92d4:	ea000000 	b	92dc <emit+0xf0>
    92d8:	e1a03000 	mov	r3, r0
    92dc:	e2830001 	add	r0, r3, #1
    92e0:	e20c100f 	and	r1, ip, #15
    92e4:	e7de1001 	ldrb	r1, [lr, r1]
    92e8:	e5c31000 	strb	r1, [r3]
    92ec:	e1b0c22c 	lsrs	ip, ip, #4
    92f0:	1afffff8 	bne	92d8 <emit+0xec>
    92f4:	e3a01078 	mov	r1, #120	; 0x78
    92f8:	e5c31001 	strb	r1, [r3, #1]
    92fc:	e2830003 	add	r0, r3, #3
    9300:	e3a01030 	mov	r1, #48	; 0x30
    9304:	e5c31002 	strb	r1, [r3, #2]
    9308:	ea000013 	b	935c <emit+0x170>
    930c:	e5cd3000 	strb	r3, [sp]
    9310:	e28d0001 	add	r0, sp, #1
    9314:	ea000010 	b	935c <emit+0x170>
    9318:	e1a0300d 	mov	r3, sp
    931c:	e59fe068 	ldr	lr, [pc, #104]	; 938c <emit+0x1a0>
    9320:	e2830001 	add	r0, r3, #1
    9324:	e20c1001 	and	r1, ip, #1
    9328:	e7de1001 	ldrb	r1, [lr, r1]
    932c:	e5c31000 	strb	r1, [r3]
    9330:	e1a03000 	mov	r3, r0
    9334:	e1b0c0ac 	lsrs	ip, ip, #1
    9338:	1afffff8 	bne	9320 <emit+0x134>
    933c:	ea000006 	b	935c <emit+0x170>
    9340:	ebffff72 	bl	9110 <rpi_reset_putc>
    9344:	e59f0044 	ldr	r0, [pc, #68]	; 9390 <emit+0x1a4>
    9348:	e59f1044 	ldr	r1, [pc, #68]	; 9394 <emit+0x1a8>
    934c:	e59f2044 	ldr	r2, [pc, #68]	; 9398 <emit+0x1ac>
    9350:	e3a03077 	mov	r3, #119	; 0x77
    9354:	ebffff52 	bl	90a4 <printk>
    9358:	eb0000c6 	bl	9678 <clean_reboot>
    935c:	e1a0100d 	mov	r1, sp
    9360:	ebffff86 	bl	9180 <pad>
    9364:	e1a02000 	mov	r2, r0
    9368:	e1a00005 	mov	r0, r5
    936c:	e1a01004 	mov	r1, r4
    9370:	e1a0300d 	mov	r3, sp
    9374:	ebffff8c 	bl	91ac <reverse>
    9378:	e28dd040 	add	sp, sp, #64	; 0x40
    937c:	e8bd81f0 	pop	{r4, r5, r6, r7, r8, pc}
    9380:	cccccccd 	stclgt	12, cr12, [ip], {205}	; 0xcd
    9384:	0000a4e8 	andeq	sl, r0, r8, ror #9
    9388:	0000a4f4 	strdeq	sl, [r0], -r4
    938c:	0000a508 	andeq	sl, r0, r8, lsl #10
    9390:	0000a4c0 	andeq	sl, r0, r0, asr #9
    9394:	0000a4d4 	ldrdeq	sl, [r0], -r4
    9398:	0000a49c 	muleq	r0, ip, r4

0000939c <rpi_set_output>:
    939c:	e92d4008 	push	{r3, lr}
    93a0:	e3500000 	cmp	r0, #0
    93a4:	1a000006 	bne	93c4 <rpi_set_output+0x28>
    93a8:	ebffff58 	bl	9110 <rpi_reset_putc>
    93ac:	e59f0028 	ldr	r0, [pc, #40]	; 93dc <rpi_set_output+0x40>
    93b0:	e59f1028 	ldr	r1, [pc, #40]	; 93e0 <rpi_set_output+0x44>
    93b4:	e59f2028 	ldr	r2, [pc, #40]	; 93e4 <rpi_set_output+0x48>
    93b8:	e3a03020 	mov	r3, #32
    93bc:	ebffff38 	bl	90a4 <printk>
    93c0:	eb0000ac 	bl	9678 <clean_reboot>
    93c4:	e59f301c 	ldr	r3, [pc, #28]	; 93e8 <rpi_set_output+0x4c>
    93c8:	e5830000 	str	r0, [r3]
    93cc:	e3510000 	cmp	r1, #0
    93d0:	159f3014 	ldrne	r3, [pc, #20]	; 93ec <rpi_set_output+0x50>
    93d4:	15831000 	strne	r1, [r3]
    93d8:	e8bd8008 	pop	{r3, pc}
    93dc:	0000a50c 	andeq	sl, r0, ip, lsl #10
    93e0:	0000a4d4 	ldrdeq	sl, [r0], -r4
    93e4:	0000a4a4 	andeq	sl, r0, r4, lsr #9
    93e8:	00009c60 	andeq	r9, r0, r0, ror #24
    93ec:	00009c64 	andeq	r9, r0, r4, ror #24

000093f0 <va_printk>:
    93f0:	e92d4ff0 	push	{r4, r5, r6, r7, r8, r9, sl, fp, lr}
    93f4:	e24dd08c 	sub	sp, sp, #140	; 0x8c
    93f8:	e1a0a000 	mov	sl, r0
    93fc:	e1a09003 	mov	r9, r3
    9400:	e2411001 	sub	r1, r1, #1
    9404:	e0808001 	add	r8, r0, r1
    9408:	e3a03000 	mov	r3, #0
    940c:	e5c03000 	strb	r3, [r0]
    9410:	e1a04000 	mov	r4, r0
    9414:	e1a0b003 	mov	fp, r3
    9418:	ea000086 	b	9638 <va_printk+0x248>
    941c:	e3530025 	cmp	r3, #37	; 0x25
    9420:	12822001 	addne	r2, r2, #1
    9424:	15c43000 	strbne	r3, [r4]
    9428:	12844001 	addne	r4, r4, #1
    942c:	1a000081 	bne	9638 <va_printk+0x248>
    9430:	e5d21001 	ldrb	r1, [r2, #1]
    9434:	e3510025 	cmp	r1, #37	; 0x25
    9438:	05c43000 	strbeq	r3, [r4]
    943c:	02822002 	addeq	r2, r2, #2
    9440:	02844001 	addeq	r4, r4, #1
    9444:	0a00007b 	beq	9638 <va_printk+0x248>
    9448:	e2826001 	add	r6, r2, #1
    944c:	e1a0700b 	mov	r7, fp
    9450:	ea000004 	b	9468 <va_printk+0x78>
    9454:	e0877107 	add	r7, r7, r7, lsl #2
    9458:	e1a07087 	lsl	r7, r7, #1
    945c:	e0877005 	add	r7, r7, r5
    9460:	e2477030 	sub	r7, r7, #48	; 0x30
    9464:	e2866001 	add	r6, r6, #1
    9468:	e5d65000 	ldrb	r5, [r6]
    946c:	e1a00005 	mov	r0, r5
    9470:	ebffff3d 	bl	916c <isdigit>
    9474:	e3500000 	cmp	r0, #0
    9478:	1afffff5 	bne	9454 <va_printk+0x64>
    947c:	e357001f 	cmp	r7, #31
    9480:	9a000006 	bls	94a0 <va_printk+0xb0>
    9484:	ebffff21 	bl	9110 <rpi_reset_putc>
    9488:	e59f01d4 	ldr	r0, [pc, #468]	; 9664 <va_printk+0x274>
    948c:	e59f11d4 	ldr	r1, [pc, #468]	; 9668 <va_printk+0x278>
    9490:	e59f21d4 	ldr	r2, [pc, #468]	; 966c <va_printk+0x27c>
    9494:	e3a03094 	mov	r3, #148	; 0x94
    9498:	ebffff01 	bl	90a4 <printk>
    949c:	eb000075 	bl	9678 <clean_reboot>
    94a0:	e2455062 	sub	r5, r5, #98	; 0x62
    94a4:	e3550016 	cmp	r5, #22
    94a8:	979ff105 	ldrls	pc, [pc, r5, lsl #2]
    94ac:	ea00004e 	b	95ec <va_printk+0x1fc>
    94b0:	00009598 	muleq	r0, r8, r5
    94b4:	000095c8 	andeq	r9, r0, r8, asr #11
    94b8:	00009528 	andeq	r9, r0, r8, lsr #10
    94bc:	000095ec 	andeq	r9, r0, ip, ror #11
    94c0:	0000950c 	andeq	r9, r0, ip, lsl #10
    94c4:	000095ec 	andeq	r9, r0, ip, ror #11
    94c8:	000095ec 	andeq	r9, r0, ip, ror #11
    94cc:	000095ec 	andeq	r9, r0, ip, ror #11
    94d0:	000095ec 	andeq	r9, r0, ip, ror #11
    94d4:	000095ec 	andeq	r9, r0, ip, ror #11
    94d8:	000095ec 	andeq	r9, r0, ip, ror #11
    94dc:	000095ec 	andeq	r9, r0, ip, ror #11
    94e0:	000095ec 	andeq	r9, r0, ip, ror #11
    94e4:	000095ec 	andeq	r9, r0, ip, ror #11
    94e8:	00009574 	andeq	r9, r0, r4, ror r5
    94ec:	000095ec 	andeq	r9, r0, ip, ror #11
    94f0:	000095ec 	andeq	r9, r0, ip, ror #11
    94f4:	000095bc 			; <UNDEFINED> instruction: 0x000095bc
    94f8:	000095ec 	andeq	r9, r0, ip, ror #11
    94fc:	00009550 	andeq	r9, r0, r0, asr r5
    9500:	000095ec 	andeq	r9, r0, ip, ror #11
    9504:	000095ec 	andeq	r9, r0, ip, ror #11
    9508:	00009574 	andeq	r9, r0, r4, ror r5
    950c:	ebfffeff 	bl	9110 <rpi_reset_putc>
    9510:	e59f0158 	ldr	r0, [pc, #344]	; 9670 <va_printk+0x280>
    9514:	e59f114c 	ldr	r1, [pc, #332]	; 9668 <va_printk+0x278>
    9518:	e59f214c 	ldr	r2, [pc, #332]	; 966c <va_printk+0x27c>
    951c:	e3a0309a 	mov	r3, #154	; 0x9a
    9520:	ebfffedf 	bl	90a4 <printk>
    9524:	eb000053 	bl	9678 <clean_reboot>
    9528:	e5993000 	ldr	r3, [r9]
    952c:	e2899004 	add	r9, r9, #4
    9530:	e58d7000 	str	r7, [sp]
    9534:	e3a02001 	mov	r2, #1
    9538:	e58d2004 	str	r2, [sp, #4]
    953c:	e3a0000a 	mov	r0, #10
    9540:	e28d1008 	add	r1, sp, #8
    9544:	e3a02080 	mov	r2, #128	; 0x80
    9548:	ebffff27 	bl	91ec <emit>
    954c:	ea00002f 	b	9610 <va_printk+0x220>
    9550:	e5993000 	ldr	r3, [r9]
    9554:	e2899004 	add	r9, r9, #4
    9558:	e58d7000 	str	r7, [sp]
    955c:	e58db004 	str	fp, [sp, #4]
    9560:	e3a0000a 	mov	r0, #10
    9564:	e28d1008 	add	r1, sp, #8
    9568:	e3a02080 	mov	r2, #128	; 0x80
    956c:	ebffff1e 	bl	91ec <emit>
    9570:	ea000026 	b	9610 <va_printk+0x220>
    9574:	e5993000 	ldr	r3, [r9]
    9578:	e2899004 	add	r9, r9, #4
    957c:	e58d7000 	str	r7, [sp]
    9580:	e58db004 	str	fp, [sp, #4]
    9584:	e3a00010 	mov	r0, #16
    9588:	e28d1008 	add	r1, sp, #8
    958c:	e3a02080 	mov	r2, #128	; 0x80
    9590:	ebffff15 	bl	91ec <emit>
    9594:	ea00001d 	b	9610 <va_printk+0x220>
    9598:	e5993000 	ldr	r3, [r9]
    959c:	e2899004 	add	r9, r9, #4
    95a0:	e58d7000 	str	r7, [sp]
    95a4:	e58db004 	str	fp, [sp, #4]
    95a8:	e3a00002 	mov	r0, #2
    95ac:	e28d1008 	add	r1, sp, #8
    95b0:	e3a02080 	mov	r2, #128	; 0x80
    95b4:	ebffff0c 	bl	91ec <emit>
    95b8:	ea000014 	b	9610 <va_printk+0x220>
    95bc:	e5990000 	ldr	r0, [r9]
    95c0:	e2899004 	add	r9, r9, #4
    95c4:	ea000011 	b	9610 <va_printk+0x220>
    95c8:	e5993000 	ldr	r3, [r9]
    95cc:	e2899004 	add	r9, r9, #4
    95d0:	e58d7000 	str	r7, [sp]
    95d4:	e58db004 	str	fp, [sp, #4]
    95d8:	e3a00008 	mov	r0, #8
    95dc:	e08d1000 	add	r1, sp, r0
    95e0:	e3a02080 	mov	r2, #128	; 0x80
    95e4:	ebffff00 	bl	91ec <emit>
    95e8:	ea000008 	b	9610 <va_printk+0x220>
    95ec:	ebfffec7 	bl	9110 <rpi_reset_putc>
    95f0:	e5d63000 	ldrb	r3, [r6]
    95f4:	e58d3000 	str	r3, [sp]
    95f8:	e59f0074 	ldr	r0, [pc, #116]	; 9674 <va_printk+0x284>
    95fc:	e59f1064 	ldr	r1, [pc, #100]	; 9668 <va_printk+0x278>
    9600:	e59f2064 	ldr	r2, [pc, #100]	; 966c <va_printk+0x27c>
    9604:	e3a030bb 	mov	r3, #187	; 0xbb
    9608:	ebfffea5 	bl	90a4 <printk>
    960c:	eb000019 	bl	9678 <clean_reboot>
    9610:	e2862001 	add	r2, r6, #1
    9614:	ea000002 	b	9624 <va_printk+0x234>
    9618:	e2800001 	add	r0, r0, #1
    961c:	e5c43000 	strb	r3, [r4]
    9620:	e2844001 	add	r4, r4, #1
    9624:	e1540008 	cmp	r4, r8
    9628:	2a000002 	bcs	9638 <va_printk+0x248>
    962c:	e5d03000 	ldrb	r3, [r0]
    9630:	e3530000 	cmp	r3, #0
    9634:	1afffff7 	bne	9618 <va_printk+0x228>
    9638:	e5d23000 	ldrb	r3, [r2]
    963c:	e3530000 	cmp	r3, #0
    9640:	0a000001 	beq	964c <va_printk+0x25c>
    9644:	e1540008 	cmp	r4, r8
    9648:	3affff73 	bcc	941c <va_printk+0x2c>
    964c:	e2840001 	add	r0, r4, #1
    9650:	e3a03000 	mov	r3, #0
    9654:	e5c43000 	strb	r3, [r4]
    9658:	e06a0000 	rsb	r0, sl, r0
    965c:	e28dd08c 	add	sp, sp, #140	; 0x8c
    9660:	e8bd8ff0 	pop	{r4, r5, r6, r7, r8, r9, sl, fp, pc}
    9664:	0000a524 	andeq	sl, r0, r4, lsr #10
    9668:	0000a4d4 	ldrdeq	sl, [r0], -r4
    966c:	0000a4b4 			; <UNDEFINED> instruction: 0x0000a4b4
    9670:	0000a540 	andeq	sl, r0, r0, asr #10
    9674:	0000a568 	andeq	sl, r0, r8, ror #10

00009678 <clean_reboot>:
    9678:	e92d4008 	push	{r3, lr}
    967c:	e59f3014 	ldr	r3, [pc, #20]	; 9698 <clean_reboot+0x20>
    9680:	e5933000 	ldr	r3, [r3]
    9684:	e59f0010 	ldr	r0, [pc, #16]	; 969c <clean_reboot+0x24>
    9688:	e12fff33 	blx	r3
    968c:	e3a00064 	mov	r0, #100	; 0x64
    9690:	eb000044 	bl	97a8 <delay_ms>
    9694:	eb000019 	bl	9700 <rpi_reboot>
    9698:	00009c64 	andeq	r9, r0, r4, ror #24
    969c:	0000a5a0 	andeq	sl, r0, r0, lsr #11

000096a0 <_cstart>:
    96a0:	e92d4008 	push	{r3, lr}
    96a4:	e59f3020 	ldr	r3, [pc, #32]	; 96cc <_cstart+0x2c>
    96a8:	e59f2020 	ldr	r2, [pc, #32]	; 96d0 <_cstart+0x30>
    96ac:	e3a01000 	mov	r1, #0
    96b0:	ea000001 	b	96bc <_cstart+0x1c>
    96b4:	e5831000 	str	r1, [r3]
    96b8:	e2833004 	add	r3, r3, #4
    96bc:	e1530002 	cmp	r3, r2
    96c0:	3afffffb 	bcc	96b4 <_cstart+0x14>
    96c4:	ebfffa67 	bl	8068 <notmain>
    96c8:	ebffffea 	bl	9678 <clean_reboot>
    96cc:	0000a6cc 	andeq	sl, r0, ip, asr #13
    96d0:	0000aaf8 	strdeq	sl, [r0], -r8

000096d4 <at_user_level>:
    96d4:	e10f0000 	mrs	r0, CPSR
    96d8:	e200001f 	and	r0, r0, #31
    96dc:	e3500010 	cmp	r0, #16
    96e0:	13a00000 	movne	r0, #0
    96e4:	03a00001 	moveq	r0, #1
    96e8:	e12fff1e 	bx	lr

000096ec <set_user_level>:
    96ec:	e10f3000 	mrs	r3, CPSR
    96f0:	e3c3301f 	bic	r3, r3, #31
    96f4:	e3833010 	orr	r3, r3, #16
    96f8:	e129f003 	msr	CPSR_fc, r3
    96fc:	e12fff1e 	bx	lr

00009700 <rpi_reboot>:
    9700:	e92d4008 	push	{r3, lr}
    9704:	ebfffff2 	bl	96d4 <at_user_level>
    9708:	e3500000 	cmp	r0, #0
    970c:	0a000000 	beq	9714 <rpi_reboot+0x14>
    9710:	ebfffff5 	bl	96ec <set_user_level>
    9714:	e3a0001e 	mov	r0, #30
    9718:	eb000022 	bl	97a8 <delay_ms>
    971c:	e59f0014 	ldr	r0, [pc, #20]	; 9738 <rpi_reboot+0x38>
    9720:	e59f1014 	ldr	r1, [pc, #20]	; 973c <rpi_reboot+0x3c>
    9724:	eb00002b 	bl	97d8 <PUT32>
    9728:	e59f0010 	ldr	r0, [pc, #16]	; 9740 <rpi_reboot+0x40>
    972c:	e59f1010 	ldr	r1, [pc, #16]	; 9744 <rpi_reboot+0x44>
    9730:	eb000028 	bl	97d8 <PUT32>
    9734:	eafffffe 	b	9734 <rpi_reboot+0x34>
    9738:	20100024 	andscs	r0, r0, r4, lsr #32
    973c:	5a000001 	bpl	9748 <delay_cycles>
    9740:	2010001c 	andscs	r0, r0, ip, lsl r0
    9744:	5a000020 	bpl	97cc <delay_sec+0x10>

00009748 <delay_cycles>:
    9748:	ea000001 	b	9754 <delay_cycles+0xc>
    974c:	e2811000 	add	r1, r1, #0
    9750:	e1a00003 	mov	r0, r3
    9754:	e2403001 	sub	r3, r0, #1
    9758:	e3500000 	cmp	r0, #0
    975c:	1afffffa 	bne	974c <delay_cycles+0x4>
    9760:	e12fff1e 	bx	lr

00009764 <timer_get_usec_raw>:
    9764:	e92d4008 	push	{r3, lr}
    9768:	e59f0004 	ldr	r0, [pc, #4]	; 9774 <timer_get_usec_raw+0x10>
    976c:	eb000025 	bl	9808 <GET32>
    9770:	e8bd8008 	pop	{r3, pc}
    9774:	20003004 	andcs	r3, r0, r4

00009778 <timer_get_usec>:
    9778:	e92d4008 	push	{r3, lr}
    977c:	ebfffff8 	bl	9764 <timer_get_usec_raw>
    9780:	e8bd8008 	pop	{r3, pc}

00009784 <delay_us>:
    9784:	e92d4038 	push	{r3, r4, r5, lr}
    9788:	e1a05000 	mov	r5, r0
    978c:	ebfffff9 	bl	9778 <timer_get_usec>
    9790:	e1a04000 	mov	r4, r0
    9794:	ebfffff7 	bl	9778 <timer_get_usec>
    9798:	e0640000 	rsb	r0, r4, r0
    979c:	e1500005 	cmp	r0, r5
    97a0:	3afffffb 	bcc	9794 <delay_us+0x10>
    97a4:	e8bd8038 	pop	{r3, r4, r5, pc}

000097a8 <delay_ms>:
    97a8:	e92d4008 	push	{r3, lr}
    97ac:	e3a03ffa 	mov	r3, #1000	; 0x3e8
    97b0:	e0000093 	mul	r0, r3, r0
    97b4:	ebfffff2 	bl	9784 <delay_us>
    97b8:	e8bd8008 	pop	{r3, pc}

000097bc <delay_sec>:
    97bc:	e92d4008 	push	{r3, lr}
    97c0:	e3a03ffa 	mov	r3, #1000	; 0x3e8
    97c4:	e0000093 	mul	r0, r3, r0
    97c8:	ebfffff6 	bl	97a8 <delay_ms>
    97cc:	e8bd8008 	pop	{r3, pc}

000097d0 <put32>:
    97d0:	e5801000 	str	r1, [r0]
    97d4:	e12fff1e 	bx	lr

000097d8 <PUT32>:
    97d8:	e5801000 	str	r1, [r0]
    97dc:	e12fff1e 	bx	lr

000097e0 <put16>:
    97e0:	e1c010b0 	strh	r1, [r0]
    97e4:	e12fff1e 	bx	lr

000097e8 <PUT16>:
    97e8:	e1c010b0 	strh	r1, [r0]
    97ec:	e12fff1e 	bx	lr

000097f0 <put8>:
    97f0:	e5c01000 	strb	r1, [r0]
    97f4:	e12fff1e 	bx	lr

000097f8 <PUT8>:
    97f8:	e5c01000 	strb	r1, [r0]
    97fc:	e12fff1e 	bx	lr

00009800 <get32>:
    9800:	e5900000 	ldr	r0, [r0]
    9804:	e12fff1e 	bx	lr

00009808 <GET32>:
    9808:	e5900000 	ldr	r0, [r0]
    980c:	e12fff1e 	bx	lr

00009810 <GETPC>:
    9810:	e1a0000e 	mov	r0, lr
    9814:	e12fff1e 	bx	lr

00009818 <dummy>:
    9818:	e12fff1e 	bx	lr

0000981c <or_in32>:
    981c:	e92d4070 	push	{r4, r5, r6, lr}
    9820:	e1a04000 	mov	r4, r0
    9824:	e1a05001 	mov	r5, r1
    9828:	ebfffff4 	bl	9800 <get32>
    982c:	e1801005 	orr	r1, r0, r5
    9830:	e1a00004 	mov	r0, r4
    9834:	ebffffe5 	bl	97d0 <put32>
    9838:	e8bd8070 	pop	{r4, r5, r6, pc}

0000983c <uart_init>:
    983c:	e92d4010 	push	{r4, lr}
    9840:	e3a01002 	mov	r1, #2
    9844:	e3a0000e 	mov	r0, #14
    9848:	eb000051 	bl	9994 <gpio_set_function>
    984c:	e3a01002 	mov	r1, #2
    9850:	e3a0000f 	mov	r0, #15
    9854:	eb00004e 	bl	9994 <gpio_set_function>
    9858:	eb0000fa 	bl	9c48 <dev_barrier>
    985c:	e3a01001 	mov	r1, #1
    9860:	e59f0064 	ldr	r0, [pc, #100]	; 98cc <uart_init+0x90>
    9864:	ebffffec 	bl	981c <or_in32>
    9868:	eb0000f6 	bl	9c48 <dev_barrier>
    986c:	e59f405c 	ldr	r4, [pc, #92]	; 98d0 <uart_init+0x94>
    9870:	e3a01000 	mov	r1, #0
    9874:	e1a00004 	mov	r0, r4
    9878:	ebffffd4 	bl	97d0 <put32>
    987c:	e3a01000 	mov	r1, #0
    9880:	e59f004c 	ldr	r0, [pc, #76]	; 98d4 <uart_init+0x98>
    9884:	ebffffd1 	bl	97d0 <put32>
    9888:	e3a01003 	mov	r1, #3
    988c:	e59f0044 	ldr	r0, [pc, #68]	; 98d8 <uart_init+0x9c>
    9890:	ebffffce 	bl	97d0 <put32>
    9894:	e3a01000 	mov	r1, #0
    9898:	e59f003c 	ldr	r0, [pc, #60]	; 98dc <uart_init+0xa0>
    989c:	ebffffcb 	bl	97d0 <put32>
    98a0:	e3a010c7 	mov	r1, #199	; 0xc7
    98a4:	e59f0034 	ldr	r0, [pc, #52]	; 98e0 <uart_init+0xa4>
    98a8:	ebffffc8 	bl	97d0 <put32>
    98ac:	e59f1030 	ldr	r1, [pc, #48]	; 98e4 <uart_init+0xa8>
    98b0:	e59f0030 	ldr	r0, [pc, #48]	; 98e8 <uart_init+0xac>
    98b4:	ebffffc5 	bl	97d0 <put32>
    98b8:	e3a01003 	mov	r1, #3
    98bc:	e1a00004 	mov	r0, r4
    98c0:	ebffffc2 	bl	97d0 <put32>
    98c4:	eb0000df 	bl	9c48 <dev_barrier>
    98c8:	e8bd8010 	pop	{r4, pc}
    98cc:	20215004 	eorcs	r5, r1, r4
    98d0:	20215060 	eorcs	r5, r1, r0, rrx
    98d4:	20215044 	eorcs	r5, r1, r4, asr #32
    98d8:	2021504c 	eorcs	r5, r1, ip, asr #32
    98dc:	20215050 	eorcs	r5, r1, r0, asr r0
    98e0:	20215048 	eorcs	r5, r1, r8, asr #32
    98e4:	0000010e 	andeq	r0, r0, lr, lsl #2
    98e8:	20215068 	eorcs	r5, r1, r8, rrx

000098ec <uart_can_getc>:
    98ec:	e92d4010 	push	{r4, lr}
    98f0:	e59f0008 	ldr	r0, [pc, #8]	; 9900 <uart_can_getc+0x14>
    98f4:	ebffffc1 	bl	9800 <get32>
    98f8:	e2000001 	and	r0, r0, #1
    98fc:	e8bd8010 	pop	{r4, pc}
    9900:	20215064 	eorcs	r5, r1, r4, rrx

00009904 <uart_can_putc>:
    9904:	e92d4010 	push	{r4, lr}
    9908:	e59f0010 	ldr	r0, [pc, #16]	; 9920 <uart_can_putc+0x1c>
    990c:	ebffffbb 	bl	9800 <get32>
    9910:	e3100002 	tst	r0, #2
    9914:	13a00001 	movne	r0, #1
    9918:	03a00000 	moveq	r0, #0
    991c:	e8bd8010 	pop	{r4, pc}
    9920:	20215064 	eorcs	r5, r1, r4, rrx

00009924 <uart_getc>:
    9924:	e92d4010 	push	{r4, lr}
    9928:	eb0000c6 	bl	9c48 <dev_barrier>
    992c:	ebffffee 	bl	98ec <uart_can_getc>
    9930:	e3500000 	cmp	r0, #0
    9934:	0afffffc 	beq	992c <uart_getc+0x8>
    9938:	e59f0010 	ldr	r0, [pc, #16]	; 9950 <uart_getc+0x2c>
    993c:	ebffffaf 	bl	9800 <get32>
    9940:	e6ef4070 	uxtb	r4, r0
    9944:	eb0000bf 	bl	9c48 <dev_barrier>
    9948:	e1a00004 	mov	r0, r4
    994c:	e8bd8010 	pop	{r4, pc}
    9950:	20215040 	eorcs	r5, r1, r0, asr #32

00009954 <uart_putc>:
    9954:	e92d4010 	push	{r4, lr}
    9958:	e1a04000 	mov	r4, r0
    995c:	eb0000b9 	bl	9c48 <dev_barrier>
    9960:	ebffffe7 	bl	9904 <uart_can_putc>
    9964:	e3500000 	cmp	r0, #0
    9968:	0afffffc 	beq	9960 <uart_putc+0xc>
    996c:	e6ef1074 	uxtb	r1, r4
    9970:	e59f0008 	ldr	r0, [pc, #8]	; 9980 <uart_putc+0x2c>
    9974:	ebffff95 	bl	97d0 <put32>
    9978:	eb0000b2 	bl	9c48 <dev_barrier>
    997c:	e8bd8010 	pop	{r4, pc}
    9980:	20215040 	eorcs	r5, r1, r0, asr #32

00009984 <uart_has_data>:
    9984:	e92d4010 	push	{r4, lr}
    9988:	eb0000ae 	bl	9c48 <dev_barrier>
    998c:	ebffffd6 	bl	98ec <uart_can_getc>
    9990:	e8bd8010 	pop	{r4, pc}

00009994 <gpio_set_function>:
    9994:	e350001f 	cmp	r0, #31
    9998:	812fff1e 	bxhi	lr
    999c:	e3d13007 	bics	r3, r1, #7
    99a0:	112fff1e 	bxne	lr
    99a4:	e92d4070 	push	{r4, r5, r6, lr}
    99a8:	e1a05001 	mov	r5, r1
    99ac:	e59f3044 	ldr	r3, [pc, #68]	; 99f8 <gpio_set_function+0x64>
    99b0:	e0832093 	umull	r2, r3, r3, r0
    99b4:	e1a031a3 	lsr	r3, r3, #3
    99b8:	e1a06003 	mov	r6, r3
    99bc:	e0833103 	add	r3, r3, r3, lsl #2
    99c0:	e1a02083 	lsl	r2, r3, #1
    99c4:	e0403002 	sub	r3, r0, r2
    99c8:	e0834083 	add	r4, r3, r3, lsl #1
    99cc:	e2866302 	add	r6, r6, #134217728	; 0x8000000
    99d0:	e2866702 	add	r6, r6, #524288	; 0x80000
    99d4:	e1a06106 	lsl	r6, r6, #2
    99d8:	e1a00006 	mov	r0, r6
    99dc:	ebffff89 	bl	9808 <GET32>
    99e0:	e3a01007 	mov	r1, #7
    99e4:	e1c01411 	bic	r1, r0, r1, lsl r4
    99e8:	e1811415 	orr	r1, r1, r5, lsl r4
    99ec:	e1a00006 	mov	r0, r6
    99f0:	ebffff78 	bl	97d8 <PUT32>
    99f4:	e8bd8070 	pop	{r4, r5, r6, pc}
    99f8:	cccccccd 	stclgt	12, cr12, [ip], {205}	; 0xcd

000099fc <gpio_set_output>:
    99fc:	e92d4010 	push	{r4, lr}
    9a00:	e3a01001 	mov	r1, #1
    9a04:	ebffffe2 	bl	9994 <gpio_set_function>
    9a08:	e8bd8010 	pop	{r4, pc}

00009a0c <gpio_set_on>:
    9a0c:	e350001f 	cmp	r0, #31
    9a10:	812fff1e 	bxhi	lr
    9a14:	e92d4010 	push	{r4, lr}
    9a18:	e3a01001 	mov	r1, #1
    9a1c:	e1a01011 	lsl	r1, r1, r0
    9a20:	e59f0004 	ldr	r0, [pc, #4]	; 9a2c <gpio_set_on+0x20>
    9a24:	ebffff6b 	bl	97d8 <PUT32>
    9a28:	e8bd8010 	pop	{r4, pc}
    9a2c:	2020001c 	eorcs	r0, r0, ip, lsl r0

00009a30 <gpio_set_off>:
    9a30:	e350001f 	cmp	r0, #31
    9a34:	812fff1e 	bxhi	lr
    9a38:	e92d4010 	push	{r4, lr}
    9a3c:	e3a01001 	mov	r1, #1
    9a40:	e1a01011 	lsl	r1, r1, r0
    9a44:	e59f0004 	ldr	r0, [pc, #4]	; 9a50 <gpio_set_off+0x20>
    9a48:	ebffff62 	bl	97d8 <PUT32>
    9a4c:	e8bd8010 	pop	{r4, pc}
    9a50:	20200028 	eorcs	r0, r0, r8, lsr #32

00009a54 <gpio_set_input>:
    9a54:	e92d4010 	push	{r4, lr}
    9a58:	e3a01000 	mov	r1, #0
    9a5c:	ebffffcc 	bl	9994 <gpio_set_function>
    9a60:	e8bd8010 	pop	{r4, pc}

00009a64 <gpio_write>:
    9a64:	e92d4010 	push	{r4, lr}
    9a68:	e3510000 	cmp	r1, #0
    9a6c:	1a000001 	bne	9a78 <gpio_write+0x14>
    9a70:	ebffffee 	bl	9a30 <gpio_set_off>
    9a74:	e8bd8010 	pop	{r4, pc}
    9a78:	ebffffe3 	bl	9a0c <gpio_set_on>
    9a7c:	e8bd8010 	pop	{r4, pc}

00009a80 <gpio_read>:
    9a80:	e350001f 	cmp	r0, #31
    9a84:	8a000007 	bhi	9aa8 <gpio_read+0x28>
    9a88:	e92d4010 	push	{r4, lr}
    9a8c:	e200401f 	and	r4, r0, #31
    9a90:	e59f3018 	ldr	r3, [pc, #24]	; 9ab0 <gpio_read+0x30>
    9a94:	e08302a0 	add	r0, r3, r0, lsr #5
    9a98:	ebffff5a 	bl	9808 <GET32>
    9a9c:	e1a00430 	lsr	r0, r0, r4
    9aa0:	e2000001 	and	r0, r0, #1
    9aa4:	e8bd8010 	pop	{r4, pc}
    9aa8:	e3e00000 	mvn	r0, #0
    9aac:	e12fff1e 	bx	lr
    9ab0:	20200034 	eorcs	r0, r0, r4, lsr r0

00009ab4 <kmalloc_heap_end>:
    9ab4:	e59f3004 	ldr	r3, [pc, #4]	; 9ac0 <kmalloc_heap_end+0xc>
    9ab8:	e5930000 	ldr	r0, [r3]
    9abc:	e12fff1e 	bx	lr
    9ac0:	00009c68 	andeq	r9, r0, r8, ror #24

00009ac4 <kmalloc_heap_start>:
    9ac4:	e59f0000 	ldr	r0, [pc]	; 9acc <kmalloc_heap_start+0x8>
    9ac8:	e12fff1e 	bx	lr
    9acc:	0000aaf8 	strdeq	sl, [r0], -r8

00009ad0 <kmalloc_init_set_start>:
    9ad0:	e59f3038 	ldr	r3, [pc, #56]	; 9b10 <kmalloc_init_set_start+0x40>
    9ad4:	e5933000 	ldr	r3, [r3]
    9ad8:	e1500003 	cmp	r0, r3
    9adc:	9a000003 	bls	9af0 <kmalloc_init_set_start+0x20>
    9ae0:	e59f3028 	ldr	r3, [pc, #40]	; 9b10 <kmalloc_init_set_start+0x40>
    9ae4:	e5830000 	str	r0, [r3]
    9ae8:	e5830004 	str	r0, [r3, #4]
    9aec:	e12fff1e 	bx	lr
    9af0:	e92d4010 	push	{r4, lr}
    9af4:	ebfffd85 	bl	9110 <rpi_reset_putc>
    9af8:	e3a03016 	mov	r3, #22
    9afc:	e59f2010 	ldr	r2, [pc, #16]	; 9b14 <kmalloc_init_set_start+0x44>
    9b00:	e59f1010 	ldr	r1, [pc, #16]	; 9b18 <kmalloc_init_set_start+0x48>
    9b04:	e59f0010 	ldr	r0, [pc, #16]	; 9b1c <kmalloc_init_set_start+0x4c>
    9b08:	ebfffd65 	bl	90a4 <printk>
    9b0c:	ebfffed9 	bl	9678 <clean_reboot>
    9b10:	00009c68 	andeq	r9, r0, r8, ror #24
    9b14:	0000a5ac 	andeq	sl, r0, ip, lsr #11
    9b18:	0000a5dc 	ldrdeq	sl, [r0], -ip
    9b1c:	0000a5e8 	andeq	sl, r0, r8, ror #11

00009b20 <kmalloc>:
    9b20:	e92d4010 	push	{r4, lr}
    9b24:	e3500000 	cmp	r0, #0
    9b28:	0a00000a 	beq	9b58 <kmalloc+0x38>
    9b2c:	e2802007 	add	r2, r0, #7
    9b30:	e3c22007 	bic	r2, r2, #7
    9b34:	e59f3038 	ldr	r3, [pc, #56]	; 9b74 <kmalloc+0x54>
    9b38:	e5934000 	ldr	r4, [r3]
    9b3c:	e0841002 	add	r1, r4, r2
    9b40:	e5831000 	str	r1, [r3]
    9b44:	e3a01000 	mov	r1, #0
    9b48:	e1a00004 	mov	r0, r4
    9b4c:	ebfffd4c 	bl	9084 <memset>
    9b50:	e1a00004 	mov	r0, r4
    9b54:	e8bd8010 	pop	{r4, pc}
    9b58:	ebfffd6c 	bl	9110 <rpi_reset_putc>
    9b5c:	e3a0301b 	mov	r3, #27
    9b60:	e59f2010 	ldr	r2, [pc, #16]	; 9b78 <kmalloc+0x58>
    9b64:	e59f1010 	ldr	r1, [pc, #16]	; 9b7c <kmalloc+0x5c>
    9b68:	e59f0010 	ldr	r0, [pc, #16]	; 9b80 <kmalloc+0x60>
    9b6c:	ebfffd4c 	bl	90a4 <printk>
    9b70:	ebfffec0 	bl	9678 <clean_reboot>
    9b74:	00009c68 	andeq	r9, r0, r8, ror #24
    9b78:	0000a5c4 	andeq	sl, r0, r4, asr #11
    9b7c:	0000a5dc 	ldrdeq	sl, [r0], -ip
    9b80:	0000a604 	andeq	sl, r0, r4, lsl #12

00009b84 <kmalloc_init>:
    9b84:	e12fff1e 	bx	lr

00009b88 <kmalloc_heap_ptr>:
    9b88:	e92d4010 	push	{r4, lr}
    9b8c:	ebffffcc 	bl	9ac4 <kmalloc_heap_start>
    9b90:	e8bd8010 	pop	{r4, pc}

00009b94 <kmalloc_aligned>:
    9b94:	e92d4010 	push	{r4, lr}
    9b98:	e2613000 	rsb	r3, r1, #0
    9b9c:	e1d12003 	bics	r2, r1, r3
    9ba0:	1a00000b 	bne	9bd4 <kmalloc_aligned+0x40>
    9ba4:	e59f2060 	ldr	r2, [pc, #96]	; 9c0c <kmalloc_aligned+0x78>
    9ba8:	e5922000 	ldr	r2, [r2]
    9bac:	e0812002 	add	r2, r1, r2
    9bb0:	e2422001 	sub	r2, r2, #1
    9bb4:	e0033002 	and	r3, r3, r2
    9bb8:	e2411001 	sub	r1, r1, #1
    9bbc:	e1130001 	tst	r3, r1
    9bc0:	1a00000a 	bne	9bf0 <kmalloc_aligned+0x5c>
    9bc4:	e59f2040 	ldr	r2, [pc, #64]	; 9c0c <kmalloc_aligned+0x78>
    9bc8:	e5823000 	str	r3, [r2]
    9bcc:	ebffffd3 	bl	9b20 <kmalloc>
    9bd0:	e8bd8010 	pop	{r4, pc}
    9bd4:	ebfffd4d 	bl	9110 <rpi_reset_putc>
    9bd8:	e3a0302a 	mov	r3, #42	; 0x2a
    9bdc:	e59f202c 	ldr	r2, [pc, #44]	; 9c10 <kmalloc_aligned+0x7c>
    9be0:	e59f102c 	ldr	r1, [pc, #44]	; 9c14 <kmalloc_aligned+0x80>
    9be4:	e59f002c 	ldr	r0, [pc, #44]	; 9c18 <kmalloc_aligned+0x84>
    9be8:	ebfffd2d 	bl	90a4 <printk>
    9bec:	ebfffea1 	bl	9678 <clean_reboot>
    9bf0:	ebfffd46 	bl	9110 <rpi_reset_putc>
    9bf4:	e3a03030 	mov	r3, #48	; 0x30
    9bf8:	e59f2010 	ldr	r2, [pc, #16]	; 9c10 <kmalloc_aligned+0x7c>
    9bfc:	e59f1010 	ldr	r1, [pc, #16]	; 9c14 <kmalloc_aligned+0x80>
    9c00:	e59f0014 	ldr	r0, [pc, #20]	; 9c1c <kmalloc_aligned+0x88>
    9c04:	ebfffd26 	bl	90a4 <printk>
    9c08:	ebfffe9a 	bl	9678 <clean_reboot>
    9c0c:	00009c68 	andeq	r9, r0, r8, ror #24
    9c10:	0000a5cc 	andeq	sl, r0, ip, asr #11
    9c14:	0000a5dc 	ldrdeq	sl, [r0], -ip
    9c18:	0000a618 	andeq	sl, r0, r8, lsl r6
    9c1c:	0000a678 	andeq	sl, r0, r8, ror r6

00009c20 <kfree>:
    9c20:	e12fff1e 	bx	lr

00009c24 <kfree_all>:
    9c24:	e59f3008 	ldr	r3, [pc, #8]	; 9c34 <kfree_all+0x10>
    9c28:	e5932004 	ldr	r2, [r3, #4]
    9c2c:	e5832000 	str	r2, [r3]
    9c30:	e12fff1e 	bx	lr
    9c34:	00009c68 	andeq	r9, r0, r8, ror #24

00009c38 <kfree_after>:
    9c38:	e59f3004 	ldr	r3, [pc, #4]	; 9c44 <kfree_after+0xc>
    9c3c:	e5830000 	str	r0, [r3]
    9c40:	e12fff1e 	bx	lr
    9c44:	00009c68 	andeq	r9, r0, r8, ror #24

00009c48 <dev_barrier>:
    9c48:	ea000002 	b	9c58 <dsb>

00009c4c <dmb>:
    9c4c:	e3a00000 	mov	r0, #0
    9c50:	ee070fba 	mcr	15, 0, r0, cr7, cr10, {5}
    9c54:	e12fff1e 	bx	lr

00009c58 <dsb>:
    9c58:	ee070f9a 	mcr	15, 0, r0, cr7, cr10, {4}
    9c5c:	e12fff1e 	bx	lr

Disassembly of section .data:

00009c60 <__data_start__>:
    9c60:	000090fc 	strdeq	r9, [r0], -ip

00009c64 <putk>:
    9c64:	00009138 	andeq	r9, r0, r8, lsr r1

00009c68 <heap>:
    9c68:	0000aaf8 	strdeq	sl, [r0], -r8

00009c6c <heap_start>:
    9c6c:	0000aaf8 	strdeq	sl, [r0], -r8

Disassembly of section .rodata:

00009c70 <__FUNCTION__.4202>:
    9c70:	74736574 	ldrbtvc	r6, [r3], #-1396	; 0x574
    9c74:	00000031 	andeq	r0, r0, r1, lsr r0

00009c78 <__FUNCTION__.4208>:
    9c78:	6d746f6e 	ldclvs	15, cr6, [r4, #-440]!	; 0xfffffe48
    9c7c:	006e6961 	rsbeq	r6, lr, r1, ror #18
    9c80:	74736574 	ldrbtvc	r6, [r3], #-1396	; 0x574
    9c84:	61702f73 	cmnvs	r0, r3, ror pc
    9c88:	2d327472 	cfldrscs	mvf7, [r2, #-456]!	; 0xfffffe38
    9c8c:	74736574 	ldrbtvc	r6, [r3], #-1396	; 0x574
    9c90:	00632e36 	rsbeq	r2, r3, r6, lsr lr
    9c94:	43415254 	movtmi	r5, #4692	; 0x1254
    9c98:	00003a45 	andeq	r3, r0, r5, asr #20
    9c9c:	6f6c6c61 	svcvs	0x006c6c61
    9ca0:	65722063 	ldrbvs	r2, [r2, #-99]!	; 0x63
    9ca4:	6e727574 	mrcvs	5, 3, r7, cr2, cr4, {3}
    9ca8:	25206465 	strcs	r6, [r0, #-1125]!	; 0x465
    9cac:	00000a70 	andeq	r0, r0, r0, ror sl
    9cb0:	74204347 	strtvc	r4, [r0], #-839	; 0x347
    9cb4:	36747365 	ldrbtcc	r7, [r4], -r5, ror #6
    9cb8:	0000000a 	andeq	r0, r0, sl
    9cbc:	74736574 	ldrbtvc	r6, [r3], #-1396	; 0x574
    9cc0:	65722031 	ldrbvs	r2, [r2, #-49]!	; 0x31
    9cc4:	6e727574 	mrcvs	5, 3, r7, cr2, cr4, {3}
    9cc8:	25206465 	strcs	r6, [r0, #-1125]!	; 0x465
    9ccc:	00000a70 	andeq	r0, r0, r0, ror sl
    9cd0:	494e4150 	stmdbmi	lr, {r4, r6, r8, lr}^
    9cd4:	73253a43 	teqvc	r5, #274432	; 0x43000
    9cd8:	3a73253a 	bcc	1cd31c8 <__bss_end__+0x1cc86d0>
    9cdc:	693a6425 	ldmdbvs	sl!, {r0, r2, r5, sl, sp, lr}
    9ce0:	6c61766e 	stclvs	6, cr7, [r1], #-440	; 0xfffffe48
    9ce4:	65206469 	strvs	r6, [r0, #-1129]!	; 0x469
    9ce8:	726f7272 	rsbvc	r7, pc, #536870919	; 0x20000007
    9cec:	0a0a2121 	beq	292178 <__bss_end__+0x287680>
    9cf0:	00000000 	andeq	r0, r0, r0
    9cf4:	494e4150 	stmdbmi	lr, {r4, r6, r8, lr}^
    9cf8:	73253a43 	teqvc	r5, #274432	; 0x43000
    9cfc:	3a73253a 	bcc	1cd31ec <__bss_end__+0x1cc86f4>
    9d00:	733a6425 	teqvc	sl, #620756992	; 0x25000000
    9d04:	6c756f68 	ldclvs	15, cr6, [r5], #-416	; 0xfffffe60
    9d08:	61682064 	cmnvs	r8, r4, rrx
    9d0c:	6e206576 	mcrvs	5, 1, r6, cr0, cr6, {3}
    9d10:	6564206f 	strbvs	r2, [r4, #-111]!	; 0x6f
    9d14:	696e6966 	stmdbvs	lr!, {r1, r2, r5, r6, r8, fp, sp, lr}^
    9d18:	6c206574 	cfstr32vs	mvfx6, [r0], #-464	; 0xfffffe30
    9d1c:	736b6165 	cmnvc	fp, #1073741849	; 0x40000019
    9d20:	000a0a21 	andeq	r0, sl, r1, lsr #20
    9d24:	43435553 	movtmi	r5, #13651	; 0x3553
    9d28:	3a535345 	bcc	14dea44 <__bss_end__+0x14d3f4c>
    9d2c:	74656420 	strbtvc	r6, [r5], #-1056	; 0x420
    9d30:	65746365 	ldrbvs	r6, [r4, #-869]!	; 0x365
    9d34:	20612064 	rsbcs	r2, r1, r4, rrx
    9d38:	6279616d 	rsbsvs	r6, r9, #1073741851	; 0x4000001b
    9d3c:	656c2065 	strbvs	r2, [ip, #-101]!	; 0x65
    9d40:	0a216b61 	beq	864acc <__bss_end__+0x859fd4>
    9d44:	00000000 	andeq	r0, r0, r0
    9d48:	494e4150 	stmdbmi	lr, {r4, r6, r8, lr}^
    9d4c:	73253a43 	teqvc	r5, #274432	; 0x43000
    9d50:	3a73253a 	bcc	1cd3240 <__bss_end__+0x1cc8748>
    9d54:	733a6425 	teqvc	sl, #620756992	; 0x25000000
    9d58:	6c756f68 	ldclvs	15, cr6, [r5], #-416	; 0xfffffe60
    9d5c:	61682064 	cmnvs	r8, r4, rrx
    9d60:	66206576 			; <UNDEFINED> instruction: 0x66206576
    9d64:	646e756f 	strbtvs	r7, [lr], #-1391	; 0x56f
    9d68:	6d206120 	stfvss	f6, [r0, #-128]!	; 0xffffff80
    9d6c:	65627961 	strbvs	r7, [r2, #-2401]!	; 0x961
    9d70:	61656c20 	cmnvs	r5, r0, lsr #24
    9d74:	0a0a216b 	beq	292328 <__bss_end__+0x287830>
    9d78:	00000000 	andeq	r0, r0, r0

00009d7c <__FUNCTION__.4265>:
    9d7c:	695f6b63 	ldmdbvs	pc, {r0, r1, r5, r6, r8, r9, fp, sp, lr}^	; <UNPREDICTABLE>
    9d80:	0074696e 	rsbseq	r6, r4, lr, ror #18

00009d84 <__FUNCTION__.4302>:
    9d84:	72666b63 	rsbvc	r6, r6, #101376	; 0x18c00
    9d88:	00006565 	andeq	r6, r0, r5, ror #10

00009d8c <__FUNCTION__.4312>:
    9d8c:	6c616b63 	stclvs	11, cr6, [r1], #-396	; 0xfffffe74
    9d90:	00636f6c 	rsbeq	r6, r3, ip, ror #30
    9d94:	4f525245 	svcmi	0x00525245
    9d98:	00003a52 	andeq	r3, r0, r2, asr sl
    9d9c:	636f6c62 	cmnvs	pc, #25088	; 0x6200
    9da0:	7025206b 	eorvc	r2, r5, fp, rrx
    9da4:	726f6320 	rsbvc	r6, pc, #32, 6	; 0x80000000
    9da8:	74707572 	ldrbtvc	r7, [r0], #-1394	; 0x572
    9dac:	61206465 	teqvs	r0, r5, ror #8
    9db0:	666f2074 			; <UNDEFINED> instruction: 0x666f2074
    9db4:	74657366 	strbtvc	r7, [r5], #-870	; 0x366
    9db8:	0a642520 	beq	1913240 <__bss_end__+0x1908748>
    9dbc:	00000000 	andeq	r0, r0, r0
    9dc0:	79626e09 	stmdbvc	r2!, {r0, r3, r9, sl, fp, sp, lr}^
    9dc4:	3d736574 	cfldr64cc	mvdx6, [r3, #-464]!	; 0xfffffe30
    9dc8:	000a6425 	andeq	r6, sl, r5, lsr #8
    9dcc:	6f6c4209 	svcvs	0x006c4209
    9dd0:	61206b63 	teqvs	r0, r3, ror #22
    9dd4:	636f6c6c 	cmnvs	pc, #108, 24	; 0x6c00
    9dd8:	64657461 	strbtvs	r7, [r5], #-1121	; 0x461
    9ddc:	3a746120 	bcc	1d22264 <__bss_end__+0x1d1776c>
    9de0:	3a732520 	bcc	1cd3268 <__bss_end__+0x1cc8770>
    9de4:	253a7325 	ldrcs	r7, [sl, #-805]!	; 0x325
    9de8:	00000a64 	andeq	r0, r0, r4, ror #20
    9dec:	6f6c4209 	svcvs	0x006c4209
    9df0:	66206b63 	strtvs	r6, [r0], -r3, ror #22
    9df4:	64656572 	strbtvs	r6, [r5], #-1394	; 0x572
    9df8:	3a746120 	bcc	1d22280 <__bss_end__+0x1d17788>
    9dfc:	3a732520 	bcc	1cd3284 <__bss_end__+0x1cc878c>
    9e00:	253a7325 	ldrcs	r7, [sl, #-805]!	; 0x325
    9e04:	00000a64 	andeq	r0, r0, r4, ror #20
    9e08:	494e4150 	stmdbmi	lr, {r4, r6, r8, lr}^
    9e0c:	73253a43 	teqvc	r5, #274432	; 0x43000
    9e10:	3a73253a 	bcc	1cd3300 <__bss_end__+0x1cc8808>
    9e14:	613a6425 	teqvs	sl, r5, lsr #8
    9e18:	6e67696c 	cdpvs	9, 6, cr6, cr7, cr12, {3}
    9e1c:	73286465 	teqvc	r8, #1694498816	; 0x65000000
    9e20:	74726174 	ldrbtvc	r6, [r2], #-372	; 0x174
    9e24:	2938202c 	ldmdbcs	r8!, {r2, r3, r5, sp}
    9e28:	0000000a 	andeq	r0, r0, sl
    9e2c:	6c616b63 	stclvs	11, cr6, [r1], #-396	; 0xfffffe74
    9e30:	2e636f6c 	cdpcs	15, 6, cr6, cr3, cr12, {3}
    9e34:	00000063 	andeq	r0, r0, r3, rrx
    9e38:	657a6973 	ldrbvs	r6, [sl, #-2419]!	; 0x973
    9e3c:	6820666f 	stmdavs	r0!, {r0, r1, r2, r3, r5, r6, r9, sl, sp, lr}
    9e40:	253d7264 	ldrcs	r7, [sp, #-612]!	; 0x264
    9e44:	72202c64 	eorvc	r2, r0, #100, 24	; 0x6400
    9e48:	6f7a6465 	svcvs	0x007a6465
    9e4c:	253d656e 	ldrcs	r6, [sp, #-1390]!	; 0x56e
    9e50:	00000a64 	andeq	r0, r0, r4, ror #20
    9e54:	4f525245 	svcmi	0x00525245
    9e58:	73253a52 	teqvc	r5, #335872	; 0x52000
    9e5c:	3a73253a 	bcc	1cd334c <__bss_end__+0x1cc8854>
    9e60:	203a6425 	eorscs	r6, sl, r5, lsr #8
    9e64:	534c4146 	movtpl	r4, #49478	; 0xc146
    9e68:	683c2845 	ldmdavs	ip!, {r0, r2, r6, fp, sp}
    9e6c:	3e706165 	rpwccsz	f6, f0, f5
    9e70:	6e203a29 	vmulvs.f32	s6, s0, s19
    9e74:	6920746f 	stmdbvs	r0!, {r0, r1, r2, r3, r5, r6, sl, ip, sp, lr}
    9e78:	6974696e 	ldmdbvs	r4!, {r1, r2, r3, r5, r6, r8, fp, sp, lr}^
    9e7c:	7a696c61 	bvc	1a65008 <__bss_end__+0x1a5a510>
    9e80:	0a3f6465 	beq	fe301c <__bss_end__+0xfd8524>
    9e84:	00000000 	andeq	r0, r0, r0
    9e88:	65657266 	strbvs	r7, [r5, #-614]!	; 0x266
    9e8c:	20676e69 	rsbcs	r6, r7, r9, ror #28
    9e90:	000a7025 	andeq	r7, sl, r5, lsr #32
    9e94:	494e4150 	stmdbmi	lr, {r4, r6, r8, lr}^
    9e98:	73253a43 	teqvc	r5, #274432	; 0x43000
    9e9c:	3a73253a 	bcc	1cd338c <__bss_end__+0x1cc8894>
    9ea0:	683a6425 	ldmdavs	sl!, {r0, r2, r5, sl, sp, lr}
    9ea4:	74733e2d 	ldrbtvc	r3, [r3], #-3629	; 0xe2d
    9ea8:	20657461 	rsbcs	r7, r5, r1, ror #8
    9eac:	41203d3d 	teqmi	r0, sp, lsr sp
    9eb0:	434f4c4c 	movtmi	r4, #64588	; 0xfc4c
    9eb4:	000a4445 	andeq	r4, sl, r5, asr #8
    9eb8:	6f6c6c61 	svcvs	0x006c6c61
    9ebc:	69746163 	ldmdbvs	r4!, {r0, r1, r5, r6, r8, sp, lr}^
    9ec0:	2520676e 	strcs	r6, [r0, #-1902]!	; 0x76e
    9ec4:	79622064 	stmdbvc	r2!, {r2, r5, r6, sp}^
    9ec8:	0a736574 	beq	1ce34a0 <__bss_end__+0x1cd89a8>
    9ecc:	00000000 	andeq	r0, r0, r0
    9ed0:	43415254 	movtmi	r5, #4692	; 0x1254
    9ed4:	52453a45 	subpl	r3, r5, #282624	; 0x45000
    9ed8:	00524f52 	subseq	r4, r2, r2, asr pc
    9edc:	657a6973 	ldrbvs	r6, [sl, #-2419]!	; 0x973
    9ee0:	65766f20 	ldrbvs	r6, [r6, #-3872]!	; 0xf20
    9ee4:	6f6c6672 	svcvs	0x006c6672
    9ee8:	3a646577 	bcc	19234cc <__bss_end__+0x19189d4>
    9eec:	20642520 	rsbcs	r2, r4, r0, lsr #10
    9ef0:	65747962 	ldrbvs	r7, [r4, #-2402]!	; 0x962
    9ef4:	73692073 	cmnvc	r9, #115	; 0x73
    9ef8:	6f6f7420 	svcvs	0x006f7420
    9efc:	72616c20 	rsbvc	r6, r1, #32, 24	; 0x2000
    9f00:	000a6567 	andeq	r6, sl, r7, ror #10
    9f04:	494e4150 	stmdbmi	lr, {r4, r6, r8, lr}^
    9f08:	73253a43 	teqvc	r5, #274432	; 0x43000
    9f0c:	3a73253a 	bcc	1cd33fc <__bss_end__+0x1cc8904>
    9f10:	733a6425 	teqvc	sl, #620756992	; 0x25000000
    9f14:	20657a69 	rsbcs	r7, r5, r9, ror #20
    9f18:	7265766f 	rsbvc	r7, r5, #116391936	; 0x6f00000
    9f1c:	776f6c66 	strbvc	r6, [pc, -r6, ror #24]!
    9f20:	203a6465 	eorscs	r6, sl, r5, ror #8
    9f24:	62206425 	eorvs	r6, r0, #620756992	; 0x25000000
    9f28:	73657479 	cmnvc	r5, #2030043136	; 0x79000000
    9f2c:	20736920 	rsbscs	r6, r3, r0, lsr #18
    9f30:	206f6f74 	rsbcs	r6, pc, r4, ror pc	; <UNPREDICTABLE>
    9f34:	6772616c 	ldrbvs	r6, [r2, -ip, ror #2]!
    9f38:	000a0a65 	andeq	r0, sl, r5, ror #20
    9f3c:	2074756f 	rsbscs	r7, r4, pc, ror #10
    9f40:	6d20666f 	stcvs	6, cr6, [r0, #-444]!	; 0xfffffe44
    9f44:	726f6d65 	rsbvc	r6, pc, #6464	; 0x1940
    9f48:	20202179 	eorcs	r2, r0, r9, ror r1
    9f4c:	65766168 	ldrbvs	r6, [r6, #-360]!	; 0x168
    9f50:	6c6e6f20 	stclvs	15, cr6, [lr], #-128	; 0xffffff80
    9f54:	64252079 	strtvs	r2, [r5], #-121	; 0x79
    9f58:	66656c20 	strbtvs	r6, [r5], -r0, lsr #24
    9f5c:	6e202c74 	mcrvs	12, 1, r2, cr0, cr4, {3}
    9f60:	20646565 	rsbcs	r6, r4, r5, ror #10
    9f64:	000a6425 	andeq	r6, sl, r5, lsr #8
    9f68:	494e4150 	stmdbmi	lr, {r4, r6, r8, lr}^
    9f6c:	73253a43 	teqvc	r5, #274432	; 0x43000
    9f70:	3a73253a 	bcc	1cd3460 <__bss_end__+0x1cc8968>
    9f74:	6f3a6425 	svcvs	0x003a6425
    9f78:	6f207475 	svcvs	0x00207475
    9f7c:	656d2066 	strbvs	r2, [sp, #-102]!	; 0x66
    9f80:	79726f6d 	ldmdbvc	r2!, {r0, r2, r3, r5, r6, r8, r9, sl, fp, sp, lr}^
    9f84:	68202021 	stmdavs	r0!, {r0, r5, sp}
    9f88:	20657661 	rsbcs	r7, r5, r1, ror #12
    9f8c:	796c6e6f 	stmdbvc	ip!, {r0, r1, r2, r3, r5, r6, r9, sl, fp, sp, lr}^
    9f90:	20642520 	rsbcs	r2, r4, r0, lsr #10
    9f94:	7466656c 	strbtvc	r6, [r6], #-1388	; 0x56c
    9f98:	656e202c 	strbvs	r2, [lr, #-44]!	; 0x2c
    9f9c:	25206465 	strcs	r6, [r0, #-1125]!	; 0x465
    9fa0:	000a0a64 	andeq	r0, sl, r4, ror #20
    9fa4:	494e4150 	stmdbmi	lr, {r4, r6, r8, lr}^
    9fa8:	73253a43 	teqvc	r5, #274432	; 0x43000
    9fac:	3a73253a 	bcc	1cd349c <__bss_end__+0x1cc89a4>
    9fb0:	633a6425 	teqvs	sl, #620756992	; 0x25000000
    9fb4:	6b636568 	blvs	18e355c <__bss_end__+0x18d8a64>
    9fb8:	7264685f 	rsbvc	r6, r4, #6225920	; 0x5f0000
    9fbc:	0a296828 	beq	a64064 <__bss_end__+0xa5956c>
    9fc0:	00000000 	andeq	r0, r0, r0
    9fc4:	494e4150 	stmdbmi	lr, {r4, r6, r8, lr}^
    9fc8:	73253a43 	teqvc	r5, #274432	; 0x43000
    9fcc:	3a73253a 	bcc	1cd34bc <__bss_end__+0x1cc89c4>
    9fd0:	633a6425 	teqvs	sl, #620756992	; 0x25000000
    9fd4:	6b636568 	blvs	18e357c <__bss_end__+0x18d8a84>
    9fd8:	6f6c625f 	svcvs	0x006c625f
    9fdc:	68286b63 	stmdavs	r8!, {r0, r1, r5, r6, r8, r9, fp, sp, lr}
    9fe0:	00000a29 	andeq	r0, r0, r9, lsr #20
    9fe4:	6c616b63 	stclvs	11, cr6, [r1], #-396	; 0xfffffe74
    9fe8:	3a636f6c 	bcc	18e5da0 <__bss_end__+0x18db2a8>
    9fec:	6f6c6c61 	svcvs	0x006c6c61
    9ff0:	65746163 	ldrbvs	r6, [r4, #-355]!	; 0x163
    9ff4:	64252064 	strtvs	r2, [r5], #-100	; 0x64
    9ff8:	74796220 	ldrbtvc	r6, [r9], #-544	; 0x220
    9ffc:	202c7365 	eorcs	r7, ip, r5, ror #6
    a000:	746f7428 	strbtvc	r7, [pc], #-1064	; a008 <__FUNCTION__.4312+0x27c>
    a004:	253d6c61 	ldrcs	r6, [sp, #-3169]!	; 0xc61
    a008:	202c2964 	eorcs	r2, ip, r4, ror #18
    a00c:	3d727470 	cfldrdcc	mvd7, [r2, #-448]!	; 0xfffffe40
    a010:	000a7025 	andeq	r7, sl, r5, lsr #32
    a014:	6e696f67 	cdpvs	15, 6, cr6, cr9, cr7, {3}
    a018:	6f742067 	svcvs	0x00742067
    a01c:	65686320 	strbvs	r6, [r8, #-800]!	; 0x320
    a020:	68206b63 	stmdavs	r0!, {r0, r1, r5, r6, r8, r9, fp, sp, lr}
    a024:	3a706165 	bcc	1c225c0 <__bss_end__+0x1c17ac8>
    a028:	20642520 	rsbcs	r2, r4, r0, lsr #10
    a02c:	65747962 	ldrbvs	r7, [r4, #-2402]!	; 0x962
    a030:	6c612073 	stclvs	0, cr2, [r1], #-460	; 0xfffffe34
    a034:	61636f6c 	cmnvs	r3, ip, ror #30
    a038:	2c646574 	cfstr64cs	mvdx6, [r4], #-464	; 0xfffffe30
    a03c:	20642520 	rsbcs	r2, r4, r0, lsr #10
    a040:	65747962 	ldrbvs	r7, [r4, #-2402]!	; 0x962
    a044:	656c2073 	strbvs	r2, [ip, #-115]!	; 0x73
    a048:	000a7466 	andeq	r7, sl, r6, ror #8
    a04c:	58454c41 	stmdapl	r5, {r0, r6, sl, fp, lr}^
    a050:	4548203a 	strbmi	r2, [r8, #-58]	; 0x3a
    a054:	52454441 	subpl	r4, r5, #1090519040	; 0x41000000
    a058:	46464f20 	strbmi	r4, [r6], -r0, lsr #30
    a05c:	0000000a 	andeq	r0, r0, sl
    a060:	58454c41 	stmdapl	r5, {r0, r6, sl, fp, lr}^
    a064:	4c42203a 	mcrrmi	0, 3, r2, r2, cr10
    a068:	204b434f 	subcs	r4, fp, pc, asr #6
    a06c:	0a46464f 	beq	119b9b0 <__bss_end__+0x1190eb8>
    a070:	00000000 	andeq	r0, r0, r0
    a074:	6f725709 	svcvs	0x00725709
    a078:	62206574 	eorvs	r6, r0, #116, 10	; 0x1d000000
    a07c:	6b636f6c 	blvs	18e5e34 <__bss_end__+0x18db33c>
    a080:	74666120 	strbtvc	r6, [r6], #-288	; 0x120
    a084:	66207265 	strtvs	r7, [r0], -r5, ror #4
    a088:	21656572 	smccs	22098	; 0x5652
    a08c:	0000000a 	andeq	r0, r0, sl
    a090:	63656863 	cmnvs	r5, #6488064	; 0x630000
    a094:	2064656b 	rsbcs	r6, r4, fp, ror #10
    a098:	62206425 	eorvs	r6, r0, #620756992	; 0x25000000
    a09c:	6b636f6c 	blvs	18e5e54 <__bss_end__+0x18db35c>
    a0a0:	64202c73 	strtvs	r2, [r0], #-3187	; 0xc73
    a0a4:	63657465 	cmnvs	r5, #1694498816	; 0x65000000
    a0a8:	20646574 	rsbcs	r6, r4, r4, ror r5
    a0ac:	65206425 	strvs	r6, [r0, #-1061]!	; 0x425
    a0b0:	726f7272 	rsbvc	r7, pc, #536870919	; 0x20000007
    a0b4:	00000a73 	andeq	r0, r0, r3, ror sl
    a0b8:	43435553 	movtmi	r5, #13651	; 0x3553
    a0bc:	3a535345 	bcc	14dedd8 <__bss_end__+0x14d42e0>
    a0c0:	65686320 	strbvs	r6, [r8, #-800]!	; 0x320
    a0c4:	64656b63 	strbtvs	r6, [r5], #-2915	; 0xb63
    a0c8:	20642520 	rsbcs	r2, r4, r0, lsr #10
    a0cc:	636f6c62 	cmnvs	pc, #25088	; 0x6200
    a0d0:	202c736b 	eorcs	r7, ip, fp, ror #6
    a0d4:	65746564 	ldrbvs	r6, [r4, #-1380]!	; 0x564
    a0d8:	64657463 	strbtvs	r7, [r5], #-1123	; 0x463
    a0dc:	206f6e20 	rsbcs	r6, pc, r0, lsr #28
    a0e0:	6f727265 	svcvs	0x00727265
    a0e4:	000a7372 	andeq	r7, sl, r2, ror r3

0000a0e8 <__FUNCTION__.4279>:
    a0e8:	6b72616d 	blvs	1ca26a4 <__bss_end__+0x1c97bac>
    a0ec:	00000000 	andeq	r0, r0, r0

0000a0f0 <__FUNCTION__.4307>:
    a0f0:	6b72616d 	blvs	1ca26ac <__bss_end__+0x1c97bb4>
    a0f4:	6c6c615f 	stfvse	f6, [ip], #-380	; 0xfffffe84
    a0f8:	00000000 	andeq	r0, r0, r0

0000a0fc <__FUNCTION__.4345>:
    a0fc:	65657773 	strbvs	r7, [r5, #-1907]!	; 0x773
    a100:	72665f70 	rsbvc	r5, r6, #112, 30	; 0x1c0
    a104:	00006565 	andeq	r6, r0, r5, ror #10

0000a108 <__FUNCTION__.4327>:
    a108:	63656863 	cmnvs	r5, #6488064	; 0x630000
    a10c:	6f6e5f6b 	svcvs	0x006e5f6b
    a110:	61656c5f 	cmnvs	r5, pc, asr ip
    a114:	0000006b 	andeq	r0, r0, fp, rrx

0000a118 <__FUNCTION__.4331>:
    a118:	63656863 	cmnvs	r5, #6488064	; 0x630000
    a11c:	68735f6b 	ldmdavs	r3!, {r0, r1, r3, r5, r6, r8, r9, sl, fp, ip, lr}^
    a120:	646c756f 	strbtvs	r7, [ip], #-1391	; 0x56f
    a124:	61656c5f 	cmnvs	r5, pc, asr ip
    a128:	0000006b 	andeq	r0, r0, fp, rrx

0000a12c <__FUNCTION__.4336>:
    a12c:	6c706d69 	ldclvs	13, cr6, [r0], #-420	; 0xfffffe5c
    a130:	6e656d65 	cdpvs	13, 6, cr6, cr5, cr5, {3}
    a134:	68745f74 	ldmdavs	r4!, {r2, r4, r5, r6, r8, r9, sl, fp, ip, lr}^
    a138:	00007369 	andeq	r7, r0, r9, ror #6
    a13c:	2d2d2d2d 	stccs	13, cr2, [sp, #-180]!	; 0xffffff4c
    a140:	2d2d2d2d 	stccs	13, cr2, [sp, #-180]!	; 0xffffff4c
    a144:	2d2d2d2d 	stccs	13, cr2, [sp, #-180]!	; 0xffffff4c
    a148:	2d2d2d2d 	stccs	13, cr2, [sp, #-180]!	; 0xffffff4c
    a14c:	2d2d2d2d 	stccs	13, cr2, [sp, #-180]!	; 0xffffff4c
    a150:	2d2d2d2d 	stccs	13, cr2, [sp, #-180]!	; 0xffffff4c
    a154:	2d2d2d2d 	stccs	13, cr2, [sp, #-180]!	; 0xffffff4c
    a158:	2d2d2d2d 	stccs	13, cr2, [sp, #-180]!	; 0xffffff4c
    a15c:	2d2d2d2d 	stccs	13, cr2, [sp, #-180]!	; 0xffffff4c
    a160:	2d2d2d2d 	stccs	13, cr2, [sp, #-180]!	; 0xffffff4c
    a164:	2d2d2d2d 	stccs	13, cr2, [sp, #-180]!	; 0xffffff4c
    a168:	2d2d2d2d 	stccs	13, cr2, [sp, #-180]!	; 0xffffff4c
    a16c:	2d2d2d2d 	stccs	13, cr2, [sp, #-180]!	; 0xffffff4c
    a170:	2d2d2d2d 	stccs	13, cr2, [sp, #-180]!	; 0xffffff4c
    a174:	00000a2d 	andeq	r0, r0, sp, lsr #20
    a178:	63656863 	cmnvs	r5, #6488064	; 0x630000
    a17c:	676e696b 	strbvs	r6, [lr, -fp, ror #18]!
    a180:	726f6620 	rsbvc	r6, pc, #32, 12	; 0x2000000
    a184:	61656c20 	cmnvs	r5, r0, lsr #24
    a188:	0a3a736b 	beq	ea6f3c <__bss_end__+0xe9c444>
    a18c:	00000000 	andeq	r0, r0, r0
    a190:	4f525245 	svcmi	0x00525245
    a194:	43473a52 	movtmi	r3, #31314	; 0x7a52
    a198:	4645443a 			; <UNDEFINED> instruction: 0x4645443a
    a19c:	54494e49 	strbpl	r4, [r9], #-3657	; 0xe49
    a1a0:	454c2045 	strbmi	r2, [ip, #-69]	; 0x45
    a1a4:	6f204b41 	svcvs	0x00204b41
    a1a8:	78252066 	stmdavc	r5!, {r1, r2, r5, r6, sp}
    a1ac:	0000000a 	andeq	r0, r0, sl
    a1b0:	4f525245 	svcmi	0x00525245
    a1b4:	43473a52 	movtmi	r3, #31314	; 0x7a52
    a1b8:	59414d3a 	stmdbpl	r1, {r1, r3, r4, r5, r8, sl, fp, lr}^
    a1bc:	4c204542 	cfstr32mi	mvfx4, [r0], #-264	; 0xfffffef8
    a1c0:	204b4145 	subcs	r4, fp, r5, asr #2
    a1c4:	2520666f 	strcs	r6, [r0, #-1647]!	; 0x66f
    a1c8:	6e282078 	mcrvs	0, 1, r2, cr8, cr8, {3}
    a1cc:	6f70206f 	svcvs	0x0070206f
    a1d0:	65746e69 	ldrbvs	r6, [r4, #-3689]!	; 0xe69
    a1d4:	6f742072 	svcvs	0x00742072
    a1d8:	65687420 	strbvs	r7, [r8, #-1056]!	; 0x420
    a1dc:	61747320 	cmnvs	r4, r0, lsr #6
    a1e0:	0a297472 	beq	a673b0 <__bss_end__+0xa5c8b8>
    a1e4:	00000000 	andeq	r0, r0, r0
    a1e8:	3a434709 	bcc	10dbe14 <__bss_end__+0x10d131c>
    a1ec:	63656843 	cmnvs	r5, #4390912	; 0x430000
    a1f0:	2064656b 	rsbcs	r6, r4, fp, ror #10
    a1f4:	62206425 	eorvs	r6, r0, #620756992	; 0x25000000
    a1f8:	6b636f6c 	blvs	18e5fb0 <__bss_end__+0x18db4b8>
    a1fc:	000a2e73 	andeq	r2, sl, r3, ror lr
    a200:	43470909 	movtmi	r0, #30985	; 0x7909
    a204:	4355533a 	cmpmi	r5, #-402653184	; 0xe8000000
    a208:	53534543 	cmppl	r3, #281018368	; 0x10c00000
    a20c:	6f4e203a 	svcvs	0x004e203a
    a210:	61656c20 	cmnvs	r5, r0, lsr #24
    a214:	6620736b 	strtvs	r7, [r0], -fp, ror #6
    a218:	646e756f 	strbtvs	r7, [lr], #-1391	; 0x56f
    a21c:	00000a21 	andeq	r0, r0, r1, lsr #20
    a220:	43470909 	movtmi	r0, #30985	; 0x7909
    a224:	5252453a 	subspl	r4, r2, #243269632	; 0xe800000
    a228:	3a53524f 	bcc	14deb6c <__bss_end__+0x14d4074>
    a22c:	20642520 	rsbcs	r2, r4, r0, lsr #10
    a230:	6f727265 	svcvs	0x00727265
    a234:	202c7372 	eorcs	r7, ip, r2, ror r3
    a238:	6d206425 	cfstrsvs	mvf6, [r0, #-148]!	; 0xffffff6c
    a23c:	65627961 	strbvs	r7, [r2, #-2401]!	; 0x961
    a240:	7272655f 	rsbsvc	r6, r2, #398458880	; 0x17c00000
    a244:	0a73726f 	beq	1ce6c08 <__bss_end__+0x1cdc110>
    a248:	00000000 	andeq	r0, r0, r0
    a24c:	2d2d2d2d 	stccs	13, cr2, [sp, #-180]!	; 0xffffff4c
    a250:	2d2d2d2d 	stccs	13, cr2, [sp, #-180]!	; 0xffffff4c
    a254:	2d2d2d2d 	stccs	13, cr2, [sp, #-180]!	; 0xffffff4c
    a258:	2d2d2d2d 	stccs	13, cr2, [sp, #-180]!	; 0xffffff4c
    a25c:	2d2d2d2d 	stccs	13, cr2, [sp, #-180]!	; 0xffffff4c
    a260:	2d2d2d2d 	stccs	13, cr2, [sp, #-180]!	; 0xffffff4c
    a264:	2d2d2d2d 	stccs	13, cr2, [sp, #-180]!	; 0xffffff4c
    a268:	2d2d2d2d 	stccs	13, cr2, [sp, #-180]!	; 0xffffff4c
    a26c:	2d2d2d2d 	stccs	13, cr2, [sp, #-180]!	; 0xffffff4c
    a270:	2d2d2d2d 	stccs	13, cr2, [sp, #-180]!	; 0xffffff4c
    a274:	2d2d2d2d 	stccs	13, cr2, [sp, #-180]!	; 0xffffff4c
    a278:	2d2d2d2d 	stccs	13, cr2, [sp, #-180]!	; 0xffffff4c
    a27c:	2d2d2d2d 	stccs	13, cr2, [sp, #-180]!	; 0xffffff4c
    a280:	2d2d2d2d 	stccs	13, cr2, [sp, #-180]!	; 0xffffff4c
    a284:	000a2d2d 	andeq	r2, sl, sp, lsr #26
    a288:	494e4150 	stmdbmi	lr, {r4, r6, r8, lr}^
    a28c:	73253a43 	teqvc	r5, #274432	; 0x43000
    a290:	3a73253a 	bcc	1cd3780 <__bss_end__+0x1cc8c88>
    a294:	703a6425 	eorsvc	r6, sl, r5, lsr #8
    a298:	000a653c 	andeq	r6, sl, ip, lsr r5
    a29c:	672d6b63 	strvs	r6, [sp, -r3, ror #22]!
    a2a0:	00632e63 	rsbeq	r2, r3, r3, ror #28
    a2a4:	494e4150 	stmdbmi	lr, {r4, r6, r8, lr}^
    a2a8:	73253a43 	teqvc	r5, #274432	; 0x43000
    a2ac:	3a73253a 	bcc	1cd379c <__bss_end__+0x1cc8ca4>
    a2b0:	613a6425 	teqvs	sl, r5, lsr #8
    a2b4:	6e67696c 	cdpvs	9, 6, cr6, cr7, cr12, {3}
    a2b8:	70286465 	eorvc	r6, r8, r5, ror #8
    a2bc:	0a29342c 	beq	a57374 <__bss_end__+0xa4c87c>
    a2c0:	00000000 	andeq	r0, r0, r0
    a2c4:	494e4150 	stmdbmi	lr, {r4, r6, r8, lr}^
    a2c8:	73253a43 	teqvc	r5, #274432	; 0x43000
    a2cc:	3a73253a 	bcc	1cd37bc <__bss_end__+0x1cc8cc4>
    a2d0:	613a6425 	teqvs	sl, r5, lsr #8
    a2d4:	6e67696c 	cdpvs	9, 6, cr6, cr7, cr12, {3}
    a2d8:	65286465 	strvs	r6, [r8, #-1125]!	; 0x465
    a2dc:	0a29342c 	beq	a57394 <__bss_end__+0xa4c89c>
    a2e0:	00000000 	andeq	r0, r0, r0
    a2e4:	494e4150 	stmdbmi	lr, {r4, r6, r8, lr}^
    a2e8:	73253a43 	teqvc	r5, #274432	; 0x43000
    a2ec:	3a73253a 	bcc	1cd37dc <__bss_end__+0x1cc8ce4>
    a2f0:	723a6425 	eorsvc	r6, sl, #620756992	; 0x25000000
    a2f4:	5b736765 	blpl	1ce4090 <__bss_end__+0x1cd9598>
    a2f8:	3d205d30 	stccc	13, cr5, [r0, #-192]!	; 0xffffff40
    a2fc:	7528203d 	strvc	r2, [r8, #-61]!	; 0x3d
    a300:	33746e69 	cmncc	r4, #1680	; 0x690
    a304:	29745f32 	ldmdbcs	r4!, {r1, r4, r5, r8, r9, sl, fp, ip, lr}^
    a308:	67657226 	strbvs	r7, [r5, -r6, lsr #4]!
    a30c:	5d305b73 	fldmdbxpl	r0!, {d5-d61}	;@ Deprecated
    a310:	0000000a 	andeq	r0, r0, sl
    a314:	706d6f63 	rsbvc	r6, sp, r3, ror #30
    a318:	69746361 	ldmdbvs	r4!, {r0, r5, r6, r8, r9, sp, lr}^
    a31c:	0a3a676e 	beq	ea40dc <__bss_end__+0xe995e4>
    a320:	00000000 	andeq	r0, r0, r0
    a324:	463a4347 	ldrtmi	r4, [sl], -r7, asr #6
    a328:	69454552 	stmdbvs	r5, {r1, r4, r6, r8, sl, lr}^
    a32c:	7020676e 	eorvc	r6, r0, lr, ror #14
    a330:	253d7274 	ldrcs	r7, [sp, #-628]!	; 0x274
    a334:	00000a78 	andeq	r0, r0, r8, ror sl
    a338:	3a434709 	bcc	10dbf64 <__bss_end__+0x10d146c>
    a33c:	63656843 	cmnvs	r5, #4390912	; 0x430000
    a340:	2064656b 	rsbcs	r6, r4, fp, ror #10
    a344:	62206425 	eorvs	r6, r0, #620756992	; 0x25000000
    a348:	6b636f6c 	blvs	18e6100 <__bss_end__+0x18db608>
    a34c:	66202c73 			; <UNDEFINED> instruction: 0x66202c73
    a350:	64656572 	strbtvs	r6, [r5], #-1394	; 0x572
    a354:	2c642520 	cfstr64cs	mvdx2, [r4], #-128	; 0xffffff80
    a358:	20642520 	rsbcs	r2, r4, r0, lsr #10
    a35c:	65747962 	ldrbvs	r7, [r4, #-2402]!	; 0x962
    a360:	00000a73 	andeq	r0, r0, r3, ror sl
    a364:	3a434709 	bcc	10dbf90 <__bss_end__+0x10d1498>
    a368:	61746f74 	cmnvs	r4, r4, ror pc
    a36c:	6c61206c 	stclvs	0, cr2, [r1], #-432	; 0xfffffe50
    a370:	61636f6c 	cmnvs	r3, ip, ror #30
    a374:	20646574 	rsbcs	r6, r4, r4, ror r5
    a378:	6425203d 	strtvs	r2, [r5], #-61	; 0x3d
    a37c:	6f74202c 	svcvs	0x0074202c
    a380:	206c6174 	rsbcs	r6, ip, r4, ror r1
    a384:	6c616564 	cfstr64vs	mvdx6, [r1], #-400	; 0xfffffe70
    a388:	61636f6c 	cmnvs	r3, ip, ror #30
    a38c:	20646574 	rsbcs	r6, r4, r4, ror r5
    a390:	6425203d 	strtvs	r2, [r5], #-61	; 0x3d
    a394:	0000000a 	andeq	r0, r0, sl
    a398:	494e4150 	stmdbmi	lr, {r4, r6, r8, lr}^
    a39c:	73253a43 	teqvc	r5, #274432	; 0x43000
    a3a0:	3a73253a 	bcc	1cd3890 <__bss_end__+0x1cc8d98>
    a3a4:	473a6425 	ldrmi	r6, [sl, -r5, lsr #8]!
    a3a8:	69203a43 	stmdbvs	r0!, {r0, r1, r6, r9, fp, ip, sp}
    a3ac:	6c61766e 	stclvs	6, cr7, [r1], #-440	; 0xfffffe48
    a3b0:	65206469 	strvs	r6, [r0, #-1129]!	; 0x469
    a3b4:	726f7272 	rsbvc	r7, pc, #536870919	; 0x20000007
    a3b8:	0a0a2121 	beq	292844 <__bss_end__+0x287d4c>
    a3bc:	00000000 	andeq	r0, r0, r0
    a3c0:	203a4347 	eorscs	r4, sl, r7, asr #6
    a3c4:	43435553 	movtmi	r5, #13651	; 0x3553
    a3c8:	20535345 	subscs	r5, r3, r5, asr #6
    a3cc:	70616568 	rsbvc	r6, r1, r8, ror #10
    a3d0:	65686320 	strbvs	r6, [r8, #-800]!	; 0x320
    a3d4:	64656b63 	strbtvs	r6, [r5], #-2915	; 0xb63
    a3d8:	74756f20 	ldrbtvc	r6, [r5], #-3872	; 0xf20
    a3dc:	0000000a 	andeq	r0, r0, sl
    a3e0:	494e4150 	stmdbmi	lr, {r4, r6, r8, lr}^
    a3e4:	73253a43 	teqvc	r5, #274432	; 0x43000
    a3e8:	3a73253a 	bcc	1cd38d8 <__bss_end__+0x1cc8de0>
    a3ec:	473a6425 	ldrmi	r6, [sl, -r5, lsr #8]!
    a3f0:	73203a43 	teqvc	r0, #274432	; 0x43000
    a3f4:	6c756f68 	ldclvs	15, cr6, [r5], #-416	; 0xfffffe60
    a3f8:	61682064 	cmnvs	r8, r4, rrx
    a3fc:	6e206576 	mcrvs	5, 1, r6, cr0, cr6, {3}
    a400:	656c206f 	strbvs	r2, [ip, #-111]!	; 0x6f
    a404:	21736b61 	cmncs	r3, r1, ror #22
    a408:	00000a0a 	andeq	r0, r0, sl, lsl #20
    a40c:	203a4347 	eorscs	r4, sl, r7, asr #6
    a410:	43435553 	movtmi	r5, #13651	; 0x3553
    a414:	3a535345 	bcc	14df130 <__bss_end__+0x14d4638>
    a418:	206f6e20 	rsbcs	r6, pc, r0, lsr #28
    a41c:	6b61656c 	blvs	18639d4 <__bss_end__+0x1858edc>
    a420:	000a2173 	andeq	r2, sl, r3, ror r1
    a424:	494e4150 	stmdbmi	lr, {r4, r6, r8, lr}^
    a428:	73253a43 	teqvc	r5, #274432	; 0x43000
    a42c:	3a73253a 	bcc	1cd391c <__bss_end__+0x1cc8e24>
    a430:	473a6425 	ldrmi	r6, [sl, -r5, lsr #8]!
    a434:	73203a43 	teqvc	r0, #274432	; 0x43000
    a438:	6c756f68 	ldclvs	15, cr6, [r5], #-416	; 0xfffffe60
    a43c:	61682064 	cmnvs	r8, r4, rrx
    a440:	6c206576 	cfstr32vs	mvfx6, [r0], #-472	; 0xfffffe28
    a444:	736b6165 	cmnvc	fp, #1073741849	; 0x40000019
    a448:	000a0a21 	andeq	r0, sl, r1, lsr #20
    a44c:	203a4347 	eorscs	r4, sl, r7, asr #6
    a450:	43435553 	movtmi	r5, #13651	; 0x3553
    a454:	3a535345 	bcc	14df170 <__bss_end__+0x14d4678>
    a458:	756f6620 	strbvc	r6, [pc, #-1568]!	; 9e40 <__FUNCTION__.4312+0xb4>
    a45c:	2520646e 	strcs	r6, [r0, #-1134]!	; 0x46e
    a460:	656c2064 	strbvs	r2, [ip, #-100]!	; 0x64
    a464:	21736b61 	cmncs	r3, r1, ror #22
    a468:	0000000a 	andeq	r0, r0, sl
    a46c:	494e4150 	stmdbmi	lr, {r4, r6, r8, lr}^
    a470:	73253a43 	teqvc	r5, #274432	; 0x43000
    a474:	3a73253a 	bcc	1cd3964 <__bss_end__+0x1cc8e6c>
    a478:	643a6425 	ldrtvs	r6, [sl], #-1061	; 0x425
    a47c:	6e206469 	cdpvs	4, 2, cr6, cr0, cr9, {3}
    a480:	6920746f 	stmdbvs	r0!, {r0, r1, r2, r3, r5, r6, sl, ip, sp, lr}
    a484:	656c706d 	strbvs	r7, [ip, #-109]!	; 0x6d
    a488:	746e656d 	strbtvc	r6, [lr], #-1389	; 0x56d
    a48c:	6d756420 	cfldrdvs	mvd6, [r5, #-128]!	; 0xffffff80
    a490:	65725f70 	ldrbvs	r5, [r2, #-3952]!	; 0xf70
    a494:	0a217367 	beq	867238 <__bss_end__+0x85c740>
    a498:	0000000a 	andeq	r0, r0, sl

0000a49c <__FUNCTION__.4237>:
    a49c:	74696d65 	strbtvc	r6, [r9], #-3429	; 0xd65
    a4a0:	00000000 	andeq	r0, r0, r0

0000a4a4 <__FUNCTION__.4185>:
    a4a4:	5f697072 	svcpl	0x00697072
    a4a8:	5f746573 	svcpl	0x00746573
    a4ac:	7074756f 	rsbsvc	r7, r4, pc, ror #10
    a4b0:	00007475 	andeq	r7, r0, r5, ror r4

0000a4b4 <__FUNCTION__.4259>:
    a4b4:	705f6176 	subsvc	r6, pc, r6, ror r1	; <UNPREDICTABLE>
    a4b8:	746e6972 	strbtvc	r6, [lr], #-2418	; 0x972
    a4bc:	0000006b 	andeq	r0, r0, fp, rrx
    a4c0:	494e4150 	stmdbmi	lr, {r4, r6, r8, lr}^
    a4c4:	73253a43 	teqvc	r5, #274432	; 0x43000
    a4c8:	3a73253a 	bcc	1cd39b8 <__bss_end__+0x1cc8ec0>
    a4cc:	303a6425 	eorscc	r6, sl, r5, lsr #8
    a4d0:	0000000a 	andeq	r0, r0, sl
    a4d4:	6362696c 	cmnvs	r2, #108, 18	; 0x1b0000
    a4d8:	2d61762f 	stclcs	6, cr7, [r1, #-188]!	; 0xffffff44
    a4dc:	6e697270 	mcrvs	2, 3, r7, cr9, cr0, {3}
    a4e0:	632e6b74 	teqvs	lr, #116, 22	; 0x1d000
    a4e4:	00000000 	andeq	r0, r0, r0
    a4e8:	33323130 	teqcc	r2, #48, 2
    a4ec:	37363534 			; <UNDEFINED> instruction: 0x37363534
    a4f0:	00003938 	andeq	r3, r0, r8, lsr r9
    a4f4:	33323130 	teqcc	r2, #48, 2
    a4f8:	37363534 			; <UNDEFINED> instruction: 0x37363534
    a4fc:	62613938 	rsbvs	r3, r1, #56, 18	; 0xe0000
    a500:	66656463 	strbtvs	r6, [r5], -r3, ror #8
    a504:	00000000 	andeq	r0, r0, r0
    a508:	00003130 	andeq	r3, r0, r0, lsr r1
    a50c:	494e4150 	stmdbmi	lr, {r4, r6, r8, lr}^
    a510:	73253a43 	teqvc	r5, #274432	; 0x43000
    a514:	3a73253a 	bcc	1cd3a04 <__bss_end__+0x1cc8f0c>
    a518:	703a6425 	eorsvc	r6, sl, r5, lsr #8
    a51c:	5f637475 	svcpl	0x00637475
    a520:	000a7066 	andeq	r7, sl, r6, rrx
    a524:	494e4150 	stmdbmi	lr, {r4, r6, r8, lr}^
    a528:	73253a43 	teqvc	r5, #274432	; 0x43000
    a52c:	3a73253a 	bcc	1cd3a1c <__bss_end__+0x1cc8f24>
    a530:	773a6425 	ldrvc	r6, [sl, -r5, lsr #8]!
    a534:	68746469 	ldmdavs	r4!, {r0, r3, r5, r6, sl, sp, lr}^
    a538:	33203c20 	teqcc	r0, #32, 24	; 0x2000
    a53c:	00000a32 	andeq	r0, r0, r2, lsr sl
    a540:	494e4150 	stmdbmi	lr, {r4, r6, r8, lr}^
    a544:	73253a43 	teqvc	r5, #274432	; 0x43000
    a548:	3a73253a 	bcc	1cd3a38 <__bss_end__+0x1cc8f40>
    a54c:	663a6425 	ldrtvs	r6, [sl], -r5, lsr #8
    a550:	74616f6c 	strbtvc	r6, [r1], #-3948	; 0xf6c
    a554:	746f6e20 	strbtvc	r6, [pc], #-3616	; a55c <__FUNCTION__.4259+0xa8>
    a558:	616e6520 	cmnvs	lr, r0, lsr #10
    a55c:	64656c62 	strbtvs	r6, [r5], #-3170	; 0xc62
    a560:	0a212121 	beq	8529ec <__bss_end__+0x847ef4>
    a564:	00000000 	andeq	r0, r0, r0
    a568:	494e4150 	stmdbmi	lr, {r4, r6, r8, lr}^
    a56c:	73253a43 	teqvc	r5, #274432	; 0x43000
    a570:	3a73253a 	bcc	1cd3a60 <__bss_end__+0x1cc8f68>
    a574:	703a6425 	eorsvc	r6, sl, r5, lsr #8
    a578:	746e6972 	strbtvc	r6, [lr], #-2418	; 0x972
    a57c:	6e203a6b 	vnmulvs.f32	s6, s0, s23
    a580:	6820746f 	stmdavs	r0!, {r0, r1, r2, r3, r5, r6, sl, ip, sp, lr}
    a584:	6c646e61 	stclvs	14, cr6, [r4], #-388	; 0xfffffe7c
    a588:	20676e69 	rsbcs	r6, r7, r9, ror #28
    a58c:	63657073 	cmnvs	r5, #115	; 0x73
    a590:	65696669 	strbvs	r6, [r9, #-1641]!	; 0x669
    a594:	25272072 	strcs	r2, [r7, #-114]!	; 0x72
    a598:	0a0a2763 	beq	29432c <__bss_end__+0x289834>
    a59c:	00000000 	andeq	r0, r0, r0
    a5a0:	454e4f44 	strbmi	r4, [lr, #-3908]	; 0xf44
    a5a4:	0a212121 	beq	852a30 <__bss_end__+0x847f38>
    a5a8:	00000000 	andeq	r0, r0, r0

0000a5ac <__FUNCTION__.4237>:
    a5ac:	6c616d6b 	stclvs	13, cr6, [r1], #-428	; 0xfffffe54
    a5b0:	5f636f6c 	svcpl	0x00636f6c
    a5b4:	74696e69 	strbtvc	r6, [r9], #-3689	; 0xe69
    a5b8:	7465735f 	strbtvc	r7, [r5], #-863	; 0x35f
    a5bc:	6174735f 	cmnvs	r4, pc, asr r3
    a5c0:	00007472 	andeq	r7, r0, r2, ror r4

0000a5c4 <__FUNCTION__.4241>:
    a5c4:	6c616d6b 	stclvs	13, cr6, [r1], #-428	; 0xfffffe54
    a5c8:	00636f6c 	rsbeq	r6, r3, ip, ror #30

0000a5cc <__FUNCTION__.4253>:
    a5cc:	6c616d6b 	stclvs	13, cr6, [r1], #-428	; 0xfffffe54
    a5d0:	5f636f6c 	svcpl	0x00636f6c
    a5d4:	67696c61 	strbvs	r6, [r9, -r1, ror #24]!
    a5d8:	0064656e 	rsbeq	r6, r4, lr, ror #10
    a5dc:	6c616d6b 	stclvs	13, cr6, [r1], #-428	; 0xfffffe54
    a5e0:	2e636f6c 	cdpcs	15, 6, cr6, cr3, cr12, {3}
    a5e4:	00000063 	andeq	r0, r0, r3, rrx
    a5e8:	494e4150 	stmdbmi	lr, {r4, r6, r8, lr}^
    a5ec:	73253a43 	teqvc	r5, #274432	; 0x43000
    a5f0:	3a73253a 	bcc	1cd3ae0 <__bss_end__+0x1cc8fe8>
    a5f4:	613a6425 	teqvs	sl, r5, lsr #8
    a5f8:	20726464 	rsbscs	r6, r2, r4, ror #8
    a5fc:	6568203e 	strbvs	r2, [r8, #-62]!	; 0x3e
    a600:	000a7061 	andeq	r7, sl, r1, rrx
    a604:	494e4150 	stmdbmi	lr, {r4, r6, r8, lr}^
    a608:	73253a43 	teqvc	r5, #274432	; 0x43000
    a60c:	3a73253a 	bcc	1cd3afc <__bss_end__+0x1cc9004>
    a610:	733a6425 	teqvc	sl, #620756992	; 0x25000000
    a614:	00000a7a 	andeq	r0, r0, sl, ror sl
    a618:	4f525245 	svcmi	0x00525245
    a61c:	73253a52 	teqvc	r5, #335872	; 0x52000
    a620:	3a73253a 	bcc	1cd3b10 <__bss_end__+0x1cc9018>
    a624:	203a6425 	eorscs	r6, sl, r5, lsr #8
    a628:	534c4146 	movtpl	r4, #49478	; 0xc146
    a62c:	283c2845 	ldmdacs	ip!, {r0, r2, r6, fp, sp}
    a630:	6c612828 	stclvs	8, cr2, [r1], #-160	; 0xffffff60
    a634:	6d6e6769 	stclvs	7, cr6, [lr, #-420]!	; 0xfffffe5c
    a638:	29746e65 	ldmdbcs	r4!, {r0, r2, r5, r6, r9, sl, fp, sp, lr}^
    a63c:	61282d26 	teqvs	r8, r6, lsr #26
    a640:	6e67696c 	cdpvs	9, 6, cr6, cr7, cr12, {3}
    a644:	746e656d 	strbtvc	r6, [lr], #-1389	; 0x56d
    a648:	3d202929 	stccc	9, cr2, [r0, #-164]!	; 0xffffff5c
    a64c:	6128203d 	teqvs	r8, sp, lsr r0
    a650:	6e67696c 	cdpvs	9, 6, cr6, cr7, cr12, {3}
    a654:	746e656d 	strbtvc	r6, [lr], #-1389	; 0x56d
    a658:	293e2929 	ldmdbcs	lr!, {r0, r3, r5, r8, fp, sp}
    a65c:	7361203a 	cmnvc	r1, #58	; 0x3a
    a660:	696d7573 	stmdbvs	sp!, {r0, r1, r4, r5, r6, r8, sl, ip, sp, lr}^
    a664:	7020676e 	eorvc	r6, r0, lr, ror #14
    a668:	7265776f 	rsbvc	r7, r5, #29097984	; 0x1bc0000
    a66c:	20666f20 	rsbcs	r6, r6, r0, lsr #30
    a670:	0a6f7774 	beq	1be8448 <__bss_end__+0x1bdd950>
    a674:	00000000 	andeq	r0, r0, r0
    a678:	4f525245 	svcmi	0x00525245
    a67c:	73253a52 	teqvc	r5, #335872	; 0x52000
    a680:	3a73253a 	bcc	1cd3b70 <__bss_end__+0x1cc9078>
    a684:	203a6425 	eorscs	r6, sl, r5, lsr #8
    a688:	534c4146 	movtpl	r4, #49478	; 0xc146
    a68c:	283c2845 	ldmdacs	ip!, {r0, r2, r6, fp, sp}
    a690:	29682828 	stmdbcs	r8!, {r3, r5, fp, sp}^
    a694:	28202620 	stmdacs	r0!, {r5, r9, sl, sp}
    a698:	70797428 	rsbsvc	r7, r9, r8, lsr #8
    a69c:	28666f65 	stmdacs	r6!, {r0, r2, r5, r6, r8, r9, sl, fp, sp, lr}^
    a6a0:	28292968 	stmdacs	r9!, {r3, r5, r6, r8, fp, sp}
    a6a4:	67696c61 	strbvs	r6, [r9, -r1, ror #24]!
    a6a8:	6e656d6e 	cdpvs	13, 6, cr6, cr5, cr14, {3}
    a6ac:	2d202974 	stccs	9, cr2, [r0, #-464]!	; 0xfffffe30
    a6b0:	29293120 	stmdbcs	r9!, {r5, r8, ip, sp}
    a6b4:	203d3d20 	eorscs	r3, sp, r0, lsr #26
    a6b8:	293e2930 	ldmdbcs	lr!, {r4, r5, r8, fp, sp}
    a6bc:	6d69203a 	stclvs	0, cr2, [r9, #-232]!	; 0xffffff18
    a6c0:	73736f70 	cmnvc	r3, #112, 30	; 0x1c0
    a6c4:	656c6269 	strbvs	r6, [ip, #-617]!	; 0x269
    a6c8:	0000000a 	andeq	r0, r0, sl

Disassembly of section .bss:

0000a6cc <__bss_start__>:
    a6cc:	00000000 	andeq	r0, r0, r0

0000a6d0 <heap>:
    a6d0:	00000000 	andeq	r0, r0, r0

0000a6d4 <heap_end>:
    a6d4:	00000000 	andeq	r0, r0, r0

0000a6d8 <my_info>:
	...

0000a6e8 <info>:
	...

0000a6f8 <buf.4185>:
	...

Disassembly of section .ARM.attributes:

00000000 <.ARM.attributes>:
   0:	00002a41 	andeq	r2, r0, r1, asr #20
   4:	61656100 	cmnvs	r5, r0, lsl #2
   8:	01006962 	tsteq	r0, r2, ror #18
   c:	00000020 	andeq	r0, r0, r0, lsr #32
  10:	4b5a3605 	blmi	168d82c <__bss_end__+0x1682d34>
  14:	08070600 	stmdaeq	r7, {r9, sl}
  18:	12010901 	andne	r0, r1, #16384	; 0x4000
  1c:	15011404 	strne	r1, [r1, #-1028]	; 0x404
  20:	18031701 	stmdane	r3, {r0, r8, r9, sl, ip}
  24:	22011a01 	andcs	r1, r1, #4096	; 0x1000
  28:	Address 0x0000000000000028 is out of bounds.


Disassembly of section .comment:

00000000 <.comment>:
   0:	3a434347 	bcc	10d0d24 <__bss_end__+0x10c622c>
   4:	4e472820 	cdpmi	8, 4, cr2, cr7, cr0, {1}
   8:	34202955 	strtcc	r2, [r0], #-2389	; 0x955
   c:	332e382e 	teqcc	lr, #3014656	; 0x2e0000
  10:	43434700 	movtmi	r4, #14080	; 0x3700
  14:	3128203a 	teqcc	r8, sl, lsr r0
  18:	2e363a35 	mrccs	10, 1, r3, cr6, cr5, {1}
  1c:	2b312e33 	blcs	c4b8f0 <__bss_end__+0xc40df8>
  20:	326e7673 	rsbcc	r7, lr, #120586240	; 0x7300000
  24:	33303335 	teqcc	r0, #-738197504	; 0xd4000000
  28:	62312d39 	eorsvs	r2, r1, #3648	; 0xe40
  2c:	646c6975 	strbtvs	r6, [ip], #-2421	; 0x975
  30:	36202931 			; <UNDEFINED> instruction: 0x36202931
  34:	312e332e 	teqcc	lr, lr, lsr #6
  38:	31303220 	teqcc	r0, r0, lsr #4
  3c:	32363037 	eorscc	r3, r6, #55	; 0x37
  40:	Address 0x0000000000000040 is out of bounds.


Disassembly of section .debug_info:

00000000 <.debug_info>:
       0:	00000455 	andeq	r0, r0, r5, asr r4
       4:	00000004 	andeq	r0, r0, r4
       8:	01040000 	mrseq	r0, (UNDEF: 4)
       c:	00000007 	andeq	r0, r0, r7
      10:	0000db01 	andeq	sp, r0, r1, lsl #22
      14:	00006600 	andeq	r6, r0, r0, lsl #12
      18:	00801000 	addeq	r1, r0, r0
      1c:	00016400 	andeq	r6, r1, r0, lsl #8
      20:	00000000 	andeq	r0, r0, r0
      24:	05040200 	streq	r0, [r4, #-512]	; 0x200
      28:	00746e69 	rsbseq	r6, r4, r9, ror #28
      2c:	00000003 	andeq	r0, r0, r3
      30:	37d40200 	ldrbcc	r0, [r4, r0, lsl #4]
      34:	04000000 	streq	r0, [r0], #-0
      38:	015a0704 	cmpeq	sl, r4, lsl #14
      3c:	01040000 	mrseq	r0, (UNDEF: 4)
      40:	00012806 	andeq	r2, r1, r6, lsl #16
      44:	05020400 	streq	r0, [r2, #-1024]	; 0x400
      48:	0000017e 	andeq	r0, r0, lr, ror r1
      4c:	75050404 	strvc	r0, [r5, #-1028]	; 0x404
      50:	04000001 	streq	r0, [r0], #-1
      54:	01700508 	cmneq	r0, r8, lsl #10
      58:	01040000 	mrseq	r0, (UNDEF: 4)
      5c:	00012608 	andeq	r2, r1, r8, lsl #12
      60:	07020400 	streq	r0, [r2, -r0, lsl #8]
      64:	000000fc 	strdeq	r0, [r0], -ip
      68:	00018803 	andeq	r8, r1, r3, lsl #16
      6c:	73340300 	teqvc	r4, #0, 6
      70:	04000000 	streq	r0, [r0], #-0
      74:	01550704 	cmpeq	r5, r4, lsl #14
      78:	08040000 	stmdaeq	r4, {}	; <UNPREDICTABLE>
      7c:	00015007 	andeq	r5, r1, r7
      80:	07040400 	streq	r0, [r4, -r0, lsl #8]
      84:	00000167 	andeq	r0, r0, r7, ror #2
      88:	04060405 	streq	r0, [r6], #-1029	; 0x405
      8c:	00000090 	muleq	r0, r0, r0
      90:	2f080104 	svccs	0x00080104
      94:	06000001 	streq	r0, [r0], -r1
      98:	00009d04 	andeq	r9, r0, r4, lsl #26
      9c:	00900700 	addseq	r0, r0, r0, lsl #14
      a0:	90080000 	andls	r0, r8, r0
      a4:	b2000000 	andlt	r0, r0, #0
      a8:	09000000 	stmdbeq	r0, {}	; <UNPREDICTABLE>
      ac:	00000081 	andeq	r0, r0, r1, lsl #1
      b0:	a80a0007 	stmdage	sl, {r0, r1, r2}
      b4:	01000001 	tsteq	r0, r1
      b8:	00008a05 	andeq	r8, r0, r5, lsl #20
      bc:	00801000 	addeq	r1, r0, r0
      c0:	00005800 	andeq	r5, r0, r0, lsl #16
      c4:	609c0100 	addsvs	r0, ip, r0, lsl #2
      c8:	0b000001 	bleq	d4 <_start-0x7f2c>
      cc:	07010070 	smlsdxeq	r1, r0, r0, r0
      d0:	0000008a 	andeq	r0, r0, sl, lsl #1
      d4:	00000000 	andeq	r0, r0, r0
      d8:	00013b0c 	andeq	r3, r1, ip, lsl #22
      dc:	00017000 	andeq	r7, r1, r0
      e0:	70030500 	andvc	r0, r3, r0, lsl #10
      e4:	0d00009c 	stceq	0, cr0, [r0, #-624]	; 0xfffffd90
      e8:	00008028 	andeq	r8, r0, r8, lsr #32
      ec:	00000399 	muleq	r0, r9, r3
      f0:	00000111 	andeq	r0, r0, r1, lsl r1
      f4:	0153010e 	cmpeq	r3, lr, lsl #2
      f8:	52010e37 	andpl	r0, r1, #880	; 0x370
      fc:	9c700305 	ldclls	3, cr0, [r0], #-20	; 0xffffffec
     100:	010e0000 	mrseq	r0, (UNDEF: 14)
     104:	80030551 	andhi	r0, r3, r1, asr r5
     108:	0e00009c 	mcreq	0, 0, r0, cr0, cr12, {4}
     10c:	34015001 	strcc	r5, [r1], #-1
     110:	80340d00 	eorshi	r0, r4, r0, lsl #26
     114:	03bd0000 			; <UNDEFINED> instruction: 0x03bd0000
     118:	01280000 	teqeq	r8, r0
     11c:	010e0000 	mrseq	r0, (UNDEF: 14)
     120:	94030550 	strls	r0, [r3], #-1360	; 0x550
     124:	0000009c 	muleq	r0, ip, r0
     128:	0080400d 	addeq	r4, r0, sp
     12c:	0003bd00 	andeq	fp, r3, r0, lsl #26
     130:	00014500 	andeq	r4, r1, r0, lsl #10
     134:	51010e00 	tstpl	r1, r0, lsl #28
     138:	0e007402 	cdpeq	4, 0, cr7, cr0, cr2, {0}
     13c:	03055001 	movweq	r5, #20481	; 0x5001
     140:	00009c9c 	muleq	r0, ip, ip
     144:	80500f00 	subshi	r0, r0, r0, lsl #30
     148:	03d30000 	bicseq	r0, r3, #0
     14c:	010e0000 	mrseq	r0, (UNDEF: 14)
     150:	0e340152 	mrceq	1, 1, r0, cr4, cr2, {2}
     154:	30015101 	andcc	r5, r1, r1, lsl #2
     158:	0250010e 	subseq	r0, r0, #-2147483645	; 0x80000003
     15c:	00000074 	andeq	r0, r0, r4, ror r0
     160:	00009008 	andeq	r9, r0, r8
     164:	00017000 	andeq	r7, r1, r0
     168:	00810900 	addeq	r0, r1, r0, lsl #18
     16c:	00050000 	andeq	r0, r5, r0
     170:	00016007 	andeq	r6, r1, r7
     174:	00c41000 	sbceq	r1, r4, r0
     178:	0d010000 	stceq	0, cr0, [r1, #-0]
     17c:	00008068 	andeq	r8, r0, r8, rrx
     180:	0000010c 	andeq	r0, r0, ip, lsl #2
     184:	03949c01 	orrseq	r9, r4, #256	; 0x100
     188:	6e110000 	cdpvs	0, 1, cr0, cr1, cr0, {0}
     18c:	37120100 	ldrcc	r0, [r2, -r0, lsl #2]
     190:	00000000 	andeq	r0, r0, r0
     194:	0b001000 	bleq	419c <_start-0x3e64>
     198:	15010070 	strne	r0, [r1, #-112]	; 0x70
     19c:	0000008a 	andeq	r0, r0, sl, lsl #1
     1a0:	0000001e 	andeq	r0, r0, lr, lsl r0
     1a4:	00013b0c 	andeq	r3, r1, ip, lsl #22
     1a8:	00039400 	andeq	r9, r3, r0, lsl #8
     1ac:	78030500 	stmdavc	r3, {r8, sl}
     1b0:	0d00009c 	stceq	0, cr0, [r0, #-624]	; 0xfffffd90
     1b4:	00008074 	andeq	r8, r0, r4, ror r0
     1b8:	000003bd 			; <UNDEFINED> instruction: 0x000003bd
     1bc:	000001ca 	andeq	r0, r0, sl, asr #3
     1c0:	0550010e 	ldrbeq	r0, [r0, #-270]	; 0x10e
     1c4:	009cb003 	addseq	fp, ip, r3
     1c8:	7c0d0000 	stcvc	0, cr0, [sp], {-0}
     1cc:	f2000080 	vhadd.s8	d0, d16, d0
     1d0:	df000003 	svcle	0x00000003
     1d4:	0e000001 	cdpeq	0, 0, cr0, cr0, cr1, {0}
     1d8:	40035001 	andmi	r5, r3, r1
     1dc:	0d002440 	cfstrseq	mvf2, [r0, #-256]	; 0xffffff00
     1e0:	00008084 	andeq	r8, r0, r4, lsl #1
     1e4:	00000403 	andeq	r0, r0, r3, lsl #8
     1e8:	000001f4 	strdeq	r0, [r0], -r4
     1ec:	0350010e 	cmpeq	r0, #-2147483645	; 0x80000003
     1f0:	00244040 	eoreq	r4, r4, r0, asr #32
     1f4:	00808c0d 	addeq	r8, r0, sp, lsl #24
     1f8:	00041800 	andeq	r1, r4, r0, lsl #16
     1fc:	00020900 	andeq	r0, r2, r0, lsl #18
     200:	51010e00 	tstpl	r1, r0, lsl #28
     204:	24404003 	strbcs	r4, [r0], #-3
     208:	80901200 	addshi	r1, r0, r0, lsl #4
     20c:	00b20000 	adcseq	r0, r2, r0
     210:	9c0d0000 	stcls	0, cr0, [sp], {-0}
     214:	bd000080 	stclt	0, cr0, [r0, #-512]	; 0xfffffe00
     218:	29000003 	stmdbcs	r0, {r0, r1}
     21c:	0e000002 	cdpeq	0, 0, cr0, cr0, cr2, {0}
     220:	03055001 	movweq	r5, #20481	; 0x5001
     224:	00009c94 	muleq	r0, r4, ip
     228:	80a80d00 	adchi	r0, r8, r0, lsl #26
     22c:	03bd0000 			; <UNDEFINED> instruction: 0x03bd0000
     230:	02460000 	subeq	r0, r6, #0
     234:	010e0000 	mrseq	r0, (UNDEF: 14)
     238:	00740251 	rsbseq	r0, r4, r1, asr r2
     23c:	0550010e 	ldrbeq	r0, [r0, #-270]	; 0x10e
     240:	009cbc03 	addseq	fp, ip, r3, lsl #24
     244:	ac120000 	ldcge	0, cr0, [r2], {-0}
     248:	2e000080 	cdpcs	0, 0, cr0, cr0, cr0, {4}
     24c:	12000004 	andne	r0, r0, #4
     250:	000080b8 	strheq	r8, [r0], -r8	; <UNPREDICTABLE>
     254:	00000439 	andeq	r0, r0, r9, lsr r4
     258:	0080cc0d 	addeq	ip, r0, sp, lsl #24
     25c:	0003bd00 	andeq	fp, r3, r0, lsl #26
     260:	00028600 	andeq	r8, r2, r0, lsl #12
     264:	53010e00 	movwpl	r0, #7680	; 0x1e00
     268:	010e4a01 	tsteq	lr, r1, lsl #20
     26c:	78030552 	stmdavc	r3, {r1, r4, r6, r8, sl}
     270:	0e00009c 	mcreq	0, 0, r0, cr0, cr12, {4}
     274:	03055101 	movweq	r5, #20737	; 0x5101
     278:	00009c80 	andeq	r9, r0, r0, lsl #25
     27c:	0550010e 	ldrbeq	r0, [r0, #-270]	; 0x10e
     280:	009cd003 	addseq	sp, ip, r3
     284:	d0120000 	andsle	r0, r2, r0
     288:	40000080 	andmi	r0, r0, r0, lsl #1
     28c:	0d000004 	stceq	0, cr0, [r0, #-16]
     290:	000080d8 	ldrdeq	r8, [r0], -r8	; <UNPREDICTABLE>
     294:	000003bd 			; <UNDEFINED> instruction: 0x000003bd
     298:	000002a6 	andeq	r0, r0, r6, lsr #5
     29c:	0550010e 	ldrbeq	r0, [r0, #-270]	; 0x10e
     2a0:	009c9403 	addseq	r9, ip, r3, lsl #8
     2a4:	e00d0000 	and	r0, sp, r0
     2a8:	bd000080 	stclt	0, cr0, [r0, #-512]	; 0xfffffe00
     2ac:	bd000003 	stclt	0, cr0, [r0, #-12]
     2b0:	0e000002 	cdpeq	0, 0, cr0, cr0, cr2, {0}
     2b4:	03055001 	movweq	r5, #20481	; 0x5001
     2b8:	0000a3c4 	andeq	sl, r0, r4, asr #7
     2bc:	80e80d00 	rschi	r0, r8, r0, lsl #26
     2c0:	04470000 	strbeq	r0, [r7], #-0
     2c4:	02d00000 	sbcseq	r0, r0, #0
     2c8:	010e0000 	mrseq	r0, (UNDEF: 14)
     2cc:	00300150 	eorseq	r0, r0, r0, asr r1
     2d0:	0080f412 	addeq	pc, r0, r2, lsl r4	; <UNPREDICTABLE>
     2d4:	00043900 	andeq	r3, r4, r0, lsl #18
     2d8:	81080d00 	tsthi	r8, r0, lsl #26
     2dc:	03bd0000 			; <UNDEFINED> instruction: 0x03bd0000
     2e0:	03080000 	movweq	r0, #32768	; 0x8000
     2e4:	010e0000 	mrseq	r0, (UNDEF: 14)
     2e8:	20080253 	andcs	r0, r8, r3, asr r2
     2ec:	0552010e 	ldrbeq	r0, [r2, #-270]	; 0x10e
     2f0:	009c7803 	addseq	r7, ip, r3, lsl #16
     2f4:	51010e00 	tstpl	r1, r0, lsl #28
     2f8:	9c800305 	stcls	3, cr0, [r0], {5}
     2fc:	010e0000 	mrseq	r0, (UNDEF: 14)
     300:	f4030550 	vst3.16	{d0,d2,d4}, [r3 :64], r0
     304:	0000009c 	muleq	r0, ip, r0
     308:	00810c12 	addeq	r0, r1, r2, lsl ip
     30c:	00044000 	andeq	r4, r4, r0
     310:	81140d00 	tsthi	r4, r0, lsl #26
     314:	04470000 	strbeq	r0, [r7], #-0
     318:	03240000 	teqeq	r4, #0
     31c:	010e0000 	mrseq	r0, (UNDEF: 14)
     320:	00310150 	eorseq	r0, r1, r0, asr r1
     324:	0081240d 	addeq	r2, r1, sp, lsl #8
     328:	0003bd00 	andeq	fp, r3, r0, lsl #26
     32c:	00033b00 	andeq	r3, r3, r0, lsl #22
     330:	50010e00 	andpl	r0, r1, r0, lsl #28
     334:	9c940305 	ldcls	3, cr0, [r4], {5}
     338:	0d000000 	stceq	0, cr0, [r0, #-0]
     33c:	0000812c 	andeq	r8, r0, ip, lsr #2
     340:	000003bd 			; <UNDEFINED> instruction: 0x000003bd
     344:	00000352 	andeq	r0, r0, r2, asr r3
     348:	0550010e 	ldrbeq	r0, [r0, #-270]	; 0x10e
     34c:	009d2403 	addseq	r2, sp, r3, lsl #8
     350:	34120000 	ldrcc	r0, [r2], #-0
     354:	39000081 	stmdbcc	r0, {r0, r7}
     358:	0d000004 	stceq	0, cr0, [r0, #-16]
     35c:	00008148 	andeq	r8, r0, r8, asr #2
     360:	000003bd 			; <UNDEFINED> instruction: 0x000003bd
     364:	0000038a 	andeq	r0, r0, sl, lsl #7
     368:	0253010e 	subseq	r0, r3, #-2147483645	; 0x80000003
     36c:	010e2608 	tsteq	lr, r8, lsl #12
     370:	78030552 	stmdavc	r3, {r1, r4, r6, r8, sl}
     374:	0e00009c 	mcreq	0, 0, r0, cr0, cr12, {4}
     378:	03055101 	movweq	r5, #20737	; 0x5101
     37c:	00009c80 	andeq	r9, r0, r0, lsl #25
     380:	0550010e 	ldrbeq	r0, [r0, #-270]	; 0x10e
     384:	009d4803 	addseq	r4, sp, r3, lsl #16
     388:	4c120000 	ldcmi	0, cr0, [r2], {-0}
     38c:	40000081 	andmi	r0, r0, r1, lsl #1
     390:	00000004 	andeq	r0, r0, r4
     394:	0000a207 	andeq	sl, r0, r7, lsl #4
     398:	005e1300 	subseq	r1, lr, r0, lsl #6
     39c:	11040000 	mrsne	r0, (UNDEF: 4)
     3a0:	00000088 	andeq	r0, r0, r8, lsl #1
     3a4:	000003bd 			; <UNDEFINED> instruction: 0x000003bd
     3a8:	00006814 	andeq	r6, r0, r4, lsl r8
     3ac:	00971400 	addseq	r1, r7, r0, lsl #8
     3b0:	97140000 	ldrls	r0, [r4, -r0]
     3b4:	14000000 	strne	r0, [r0], #-0
     3b8:	00000037 	andeq	r0, r0, r7, lsr r0
     3bc:	04fa1300 	ldrbteq	r1, [sl], #768	; 0x300
     3c0:	29050000 	stmdbcs	r5, {}	; <UNPREDICTABLE>
     3c4:	00000025 	andeq	r0, r0, r5, lsr #32
     3c8:	000003d3 	ldrdeq	r0, [r0], -r3
     3cc:	00009714 	andeq	r9, r0, r4, lsl r7
     3d0:	13001500 	movwne	r1, #1280	; 0x500
     3d4:	00000134 	andeq	r0, r0, r4, lsr r1
     3d8:	00881b06 	addeq	r1, r8, r6, lsl #22
     3dc:	03f20000 	mvnseq	r0, #0
     3e0:	88140000 	ldmdahi	r4, {}	; <UNPREDICTABLE>
     3e4:	14000000 	strne	r0, [r0], #-0
     3e8:	00000025 	andeq	r0, r0, r5, lsr #32
     3ec:	00002c14 	andeq	r2, r0, r4, lsl ip
     3f0:	91160000 	tstls	r6, r0
     3f4:	05000001 	streq	r0, [r0, #-1]
     3f8:	00040372 	andeq	r0, r4, r2, ror r3
     3fc:	00371400 	eorseq	r1, r7, r0, lsl #8
     400:	13000000 	movwne	r0, #0
     404:	0000010f 	andeq	r0, r0, pc, lsl #2
     408:	00886c05 	addeq	r6, r8, r5, lsl #24
     40c:	04180000 	ldreq	r0, [r8], #-0
     410:	37140000 	ldrcc	r0, [r4, -r0]
     414:	00000000 	andeq	r0, r0, r0
     418:	00014816 	andeq	r4, r1, r6, lsl r8
     41c:	2e0b0400 	cfcpyscs	mvf0, mvf11
     420:	14000004 	strne	r0, [r0], #-4
     424:	00000088 	andeq	r0, r0, r8, lsl #1
     428:	00003714 	andeq	r3, r0, r4, lsl r7
     42c:	cc170000 	ldcgt	0, cr0, [r7], {-0}
     430:	04000000 	streq	r0, [r0], #-0
     434:	0000251e 	andeq	r2, r0, lr, lsl r5
     438:	01171800 	tsteq	r7, r0, lsl #16
     43c:	1e050000 	cdpne	0, 0, cr0, cr5, cr0, {0}
     440:	0000ef18 	andeq	lr, r0, r8, lsl pc
     444:	19650500 	stmdbne	r5!, {r8, sl}^
     448:	000000b6 	strheq	r0, [r0], -r6
     44c:	00372b04 	eorseq	r2, r7, r4, lsl #22
     450:	25140000 	ldrcs	r0, [r4, #-0]
     454:	00000000 	andeq	r0, r0, r0
     458:	000e8700 	andeq	r8, lr, r0, lsl #14
     45c:	5b000400 	blpl	1464 <_start-0x6b9c>
     460:	04000001 	streq	r0, [r0], #-1
     464:	00000701 	andeq	r0, r0, r1, lsl #14
     468:	023b0100 	eorseq	r0, fp, #0, 2
     46c:	00660000 	rsbeq	r0, r6, r0
     470:	81740000 	cmnhi	r4, r0
     474:	078c0000 	streq	r0, [ip, r0]
     478:	01750000 	cmneq	r5, r0
     47c:	04020000 	streq	r0, [r2], #-0
     480:	746e6905 	strbtvc	r6, [lr], #-2309	; 0x905
     484:	00000300 	andeq	r0, r0, r0, lsl #6
     488:	d4030000 	strle	r0, [r3], #-0
     48c:	00000037 	andeq	r0, r0, r7, lsr r0
     490:	5a070404 	bpl	1c14a8 <__bss_end__+0x1b69b0>
     494:	04000001 	streq	r0, [r0], #-1
     498:	01280601 	teqeq	r8, r1, lsl #12
     49c:	02040000 	andeq	r0, r4, #0
     4a0:	00017e05 	andeq	r7, r1, r5, lsl #28
     4a4:	05040400 	streq	r0, [r4, #-1024]	; 0x400
     4a8:	00000175 	andeq	r0, r0, r5, ror r1
     4ac:	70050804 	andvc	r0, r5, r4, lsl #16
     4b0:	03000001 	movweq	r0, #1
     4b4:	00000342 	andeq	r0, r0, r2, asr #6
     4b8:	00652e04 	rsbeq	r2, r5, r4, lsl #28
     4bc:	01040000 	mrseq	r0, (UNDEF: 4)
     4c0:	00012608 	andeq	r2, r1, r8, lsl #12
     4c4:	02150300 	andseq	r0, r5, #0, 6
     4c8:	31040000 	mrscc	r0, (UNDEF: 4)
     4cc:	00000077 	andeq	r0, r0, r7, ror r0
     4d0:	fc070204 	stc2	2, cr0, [r7], {4}
     4d4:	03000000 	movweq	r0, #0
     4d8:	00000188 	andeq	r0, r0, r8, lsl #3
     4dc:	00893404 	addeq	r3, r9, r4, lsl #8
     4e0:	04040000 	streq	r0, [r4], #-0
     4e4:	00015507 	andeq	r5, r1, r7, lsl #10
     4e8:	07080400 	streq	r0, [r8, -r0, lsl #8]
     4ec:	00000150 	andeq	r0, r0, r0, asr r1
     4f0:	67070404 	strvs	r0, [r7, -r4, lsl #8]
     4f4:	05000001 	streq	r0, [r0, #-1]
     4f8:	a6040604 	strge	r0, [r4], -r4, lsl #12
     4fc:	04000000 	streq	r0, [r0], #-0
     500:	012f0801 	teqeq	pc, r1, lsl #16
     504:	04060000 	streq	r0, [r6], #-0
     508:	000000b3 	strheq	r0, [r0], -r3
     50c:	0000a607 	andeq	sl, r0, r7, lsl #12
     510:	00a60800 	adceq	r0, r6, r0, lsl #16
     514:	00c80000 	sbceq	r0, r8, r0
     518:	97090000 	strls	r0, [r9, -r0]
     51c:	07000000 	streq	r0, [r0, -r0]
     520:	02010a00 	andeq	r0, r1, #0, 20
     524:	0000dd27 	andeq	sp, r0, r7, lsr #26
     528:	01f70b00 	mvnseq	r0, r0, lsl #22
     52c:	0b0b0000 	bleq	2c0534 <__bss_end__+0x2b5a3c>
     530:	000001f1 	strdeq	r0, [r0], -r1
     534:	0c0c000c 	stceq	0, cr0, [ip], {12}
     538:	010a2902 	tsteq	sl, r2, lsl #18
     53c:	db0d0000 	blle	340544 <__bss_end__+0x335a4c>
     540:	02000008 	andeq	r0, r0, #8
     544:	0000ad2a 	andeq	sl, r0, sl, lsr #26
     548:	a50d0000 	strge	r0, [sp, #-0]
     54c:	0200000b 	andeq	r0, r0, #11
     550:	0000ad2b 	andeq	sl, r0, fp, lsr #26
     554:	2e0d0400 	cfcpyscs	mvf0, mvf13
     558:	02000003 	andeq	r0, r0, #3
     55c:	0000372c 	andeq	r3, r0, ip, lsr #14
     560:	03000800 	movweq	r0, #2048	; 0x800
     564:	000002b5 			; <UNDEFINED> instruction: 0x000002b5
     568:	00dd2d02 	sbcseq	r2, sp, r2, lsl #26
     56c:	790e0000 	stmdbvc	lr, {}	; <UNPREDICTABLE>
     570:	38000003 	stmdacc	r0, {r0, r1}
     574:	019a3002 	orrseq	r3, sl, r2
     578:	890d0000 	stmdbhi	sp, {}	; <UNPREDICTABLE>
     57c:	02000002 	andeq	r0, r0, #2
     580:	00007e31 	andeq	r7, r0, r1, lsr lr
     584:	5f0d0000 	svcpl	0x000d0000
     588:	02000003 	andeq	r0, r0, #3
     58c:	00007e32 	andeq	r7, r0, r2, lsr lr
     590:	660d0400 	strvs	r0, [sp], -r0, lsl #8
     594:	02000007 	andeq	r0, r0, #7
     598:	00007e33 	andeq	r7, r0, r3, lsr lr
     59c:	830d0800 	movwhi	r0, #55296	; 0xd800
     5a0:	02000002 	andeq	r0, r0, #2
     5a4:	00007e37 	andeq	r7, r0, r7, lsr lr
     5a8:	630d0c00 	movwvs	r0, #56320	; 0xdc00
     5ac:	02000002 	andeq	r0, r0, #2
     5b0:	00010a39 	andeq	r0, r1, r9, lsr sl
     5b4:	960d1000 	strls	r1, [sp], -r0
     5b8:	02000002 	andeq	r0, r0, #2
     5bc:	00010a3a 	andeq	r0, r1, sl, lsr sl
     5c0:	540d1c00 	strpl	r1, [sp], #-3072	; 0xc00
     5c4:	02000003 	andeq	r0, r0, #3
     5c8:	00007e3e 	andeq	r7, r0, lr, lsr lr
     5cc:	070d2800 	streq	r2, [sp, -r0, lsl #16]
     5d0:	02000003 	andeq	r0, r0, #3
     5d4:	00007e3f 	andeq	r7, r0, pc, lsr lr
     5d8:	cf0d2c00 	svcgt	0x000d2c00
     5dc:	02000001 	andeq	r0, r0, #1
     5e0:	00019a42 	andeq	r9, r1, r2, asr #20
     5e4:	d80d3000 	stmdale	sp, {ip, sp}
     5e8:	02000001 	andeq	r0, r0, #1
     5ec:	00006c45 	andeq	r6, r0, r5, asr #24
     5f0:	06003400 	streq	r3, [r0], -r0, lsl #8
     5f4:	00011504 	andeq	r1, r1, r4, lsl #10
     5f8:	034a0300 	movteq	r0, #41728	; 0xa300
     5fc:	46020000 	strmi	r0, [r2], -r0
     600:	00000115 	andeq	r0, r0, r5, lsl r1
     604:	4902020a 	stmdbmi	r2, {r1, r3, r9}
     608:	000001d0 	ldrdeq	r0, [r0], -r0	; <UNPREDICTABLE>
     60c:	0002f10b 	andeq	pc, r2, fp, lsl #2
     610:	0b01fe00 	bleq	7fe18 <__bss_end__+0x75320>
     614:	00000277 	andeq	r0, r0, r7, ror r2
     618:	2e0b0180 	adfcs<illegal precision>	f0, f3, f0
     61c:	b8000002 	stmdalt	r0, {r1}
     620:	021e0b01 	andseq	r0, lr, #1024	; 0x400
     624:	02b80000 	adcseq	r0, r8, #0
     628:	02ab0e00 	adceq	r0, fp, #0, 28
     62c:	02100000 	andseq	r0, r0, #0
     630:	00020d9b 	muleq	r2, fp, sp
     634:	0d460d00 	stcleq	13, cr0, [r6, #-0]
     638:	9d020000 	stcls	0, cr0, [r2, #-0]
     63c:	0000009e 	muleq	r0, lr, r0
     640:	0d5f0d00 	ldcleq	13, cr0, [pc, #-0]	; 648 <_start-0x79b8>
     644:	9f020000 	svcls	0x00020000
     648:	0000009e 	muleq	r0, lr, r0
     64c:	01b50d04 			; <UNDEFINED> instruction: 0x01b50d04
     650:	a2020000 	andge	r0, r2, #0
     654:	00000037 	andeq	r0, r0, r7, lsr r0
     658:	03130d08 	tsteq	r3, #8, 26	; 0x200
     65c:	a4020000 	strge	r0, [r2], #-0
     660:	00000037 	andeq	r0, r0, r7, lsr r0
     664:	e70f000c 	str	r0, [pc, -ip]
     668:	02000001 	andeq	r0, r0, #1
     66c:	00009e57 	andeq	r9, r0, r7, asr lr
     670:	02270300 	eoreq	r0, r7, #0, 6
     674:	68100000 	ldmdavs	r0, {}	; <UNPREDICTABLE>
     678:	27570200 	ldrbcs	r0, [r7, -r0, lsl #4]
     67c:	00000002 	andeq	r0, r0, r2
     680:	01a00406 	lsleq	r0, r6, #8
     684:	9f0f0000 	svcls	0x000f0000
     688:	02000002 	andeq	r0, r0, #2
     68c:	00009e59 	andeq	r9, r0, r9, asr lr
     690:	02470300 	subeq	r0, r7, #0, 6
     694:	68100000 	ldmdavs	r0, {}	; <UNPREDICTABLE>
     698:	27590200 	ldrbcs	r0, [r9, -r0, lsl #4]
     69c:	00000002 	andeq	r0, r0, r2
     6a0:	0002cf0f 	andeq	ip, r2, pc, lsl #30
     6a4:	9e5b0200 	cdpls	2, 5, cr0, cr11, cr0, {0}
     6a8:	03000000 	movweq	r0, #0
     6ac:	00000261 	andeq	r0, r0, r1, ror #4
     6b0:	02006810 	andeq	r6, r0, #16, 16	; 0x100000
     6b4:	0002275b 	andeq	r2, r2, fp, asr r7
     6b8:	350f0000 	strcc	r0, [pc, #-0]	; 6c0 <_start-0x7940>
     6bc:	02000003 	andeq	r0, r0, #3
     6c0:	0000375d 	andeq	r3, r0, sp, asr r7
     6c4:	027b0300 	rsbseq	r0, fp, #0, 6
     6c8:	68100000 	ldmdavs	r0, {}	; <UNPREDICTABLE>
     6cc:	275d0200 	ldrbcs	r0, [sp, -r0, lsl #4]
     6d0:	00000002 	andeq	r0, r0, r2
     6d4:	0001ff0f 	andeq	pc, r1, pc, lsl #30
     6d8:	275f0200 	ldrbcs	r0, [pc, -r0, lsl #4]
     6dc:	03000002 	movweq	r0, #2
     6e0:	00000297 	muleq	r0, r7, r2
     6e4:	000d5211 	andeq	r5, sp, r1, lsl r2
     6e8:	9e5f0200 	cdpls	2, 5, cr0, cr15, cr0, {0}
     6ec:	00000000 	andeq	r0, r0, r0
     6f0:	0002e112 	andeq	lr, r2, r2, lsl r1
     6f4:	03830200 	orreq	r0, r3, #0, 4
     6f8:	000002b6 			; <UNDEFINED> instruction: 0x000002b6
     6fc:	02006810 	andeq	r6, r0, #16, 16	; 0x100000
     700:	00022783 	andeq	r2, r2, r3, lsl #15
     704:	006c1300 	rsbeq	r1, ip, r0, lsl #6
     708:	02b68502 	adcseq	r8, r6, #8388608	; 0x800000
     70c:	06000000 	streq	r0, [r0], -r0
     710:	00010a04 	andeq	r0, r1, r4, lsl #20
     714:	036f1400 	cmneq	pc, #0, 8
     718:	36010000 	strcc	r0, [r1], -r0
     71c:	00000025 	andeq	r0, r0, r5, lsr #32
     720:	00008174 	andeq	r8, r0, r4, ror r1
     724:	000000f8 	strdeq	r0, [r0], -r8
     728:	04169c01 	ldreq	r9, [r6], #-3073	; 0xc01
     72c:	70150000 	andsvc	r0, r5, r0
     730:	a0360100 	eorsge	r0, r6, r0, lsl #2
     734:	3c000000 	stccc	0, cr0, [r0], {-0}
     738:	16000000 	strne	r0, [r0], -r0
     73c:	0000033b 	andeq	r0, r0, fp, lsr r3
     740:	00373601 	eorseq	r3, r7, r1, lsl #12
     744:	00760000 	rsbseq	r0, r6, r0
     748:	52160000 	andspl	r0, r6, #0
     74c:	01000009 	tsteq	r0, r9
     750:	00002536 	andeq	r2, r0, r6, lsr r5
     754:	0000b000 	andeq	fp, r0, r0
     758:	00681500 	rsbeq	r1, r8, r0, lsl #10
     75c:	02273601 	eoreq	r3, r7, #1048576	; 0x100000
     760:	00e40000 	rsceq	r0, r4, r0
     764:	69170000 	ldmdbvs	r7, {}	; <UNPREDICTABLE>
     768:	25370100 	ldrcs	r0, [r7, #-256]!	; 0x100
     76c:	18000000 	stmdane	r0, {}	; <UNPREDICTABLE>
     770:	18000001 	stmdane	r0, {r0}
     774:	00000297 	muleq	r0, r7, r2
     778:	000081b8 			; <UNDEFINED> instruction: 0x000081b8
     77c:	00000070 	andeq	r0, r0, r0, ror r0
     780:	03c73a01 	biceq	r3, r7, #4096	; 0x1000
     784:	a3190000 	tstge	r9, #0
     788:	37000002 	strcc	r0, [r0, -r2]
     78c:	1a000001 	bne	798 <_start-0x7868>
     790:	000081b8 			; <UNDEFINED> instruction: 0x000081b8
     794:	00000070 	andeq	r0, r0, r0, ror r0
     798:	0002ac1b 	andeq	sl, r2, fp, lsl ip
     79c:	00015500 	andeq	r5, r1, r0, lsl #10
     7a0:	81c01c00 	bichi	r1, r0, r0, lsl #24
     7a4:	0e260000 	cdpeq	0, 2, cr0, cr6, cr0, {0}
     7a8:	035c0000 	cmpeq	ip, #0
     7ac:	011d0000 	tsteq	sp, r0
     7b0:	00770250 	rsbseq	r0, r7, r0, asr r2
     7b4:	81cc1c00 	bichi	r1, ip, r0, lsl #24
     7b8:	0e260000 	cdpeq	0, 2, cr0, cr6, cr0, {0}
     7bc:	03730000 	cmneq	r3, #0
     7c0:	011d0000 	tsteq	sp, r0
     7c4:	c0030550 	andgt	r0, r3, r0, asr r5
     7c8:	0000009d 	muleq	r0, sp, r0
     7cc:	0081e01c 	addeq	lr, r1, ip, lsl r0
     7d0:	000e2600 	andeq	r2, lr, r0, lsl #12
     7d4:	00038700 	andeq	r8, r3, r0, lsl #14
     7d8:	50011d00 	andpl	r1, r1, r0, lsl #26
     7dc:	00007702 	andeq	r7, r0, r2, lsl #14
     7e0:	0081f41c 	addeq	pc, r1, ip, lsl r4	; <UNPREDICTABLE>
     7e4:	000e2600 	andeq	r2, lr, r0, lsl #12
     7e8:	00039e00 	andeq	r9, r3, r0, lsl #28
     7ec:	50011d00 	andpl	r1, r1, r0, lsl #26
     7f0:	9dcc0305 	stclls	3, cr0, [ip, #20]
     7f4:	1c000000 	stcne	0, cr0, [r0], {-0}
     7f8:	00008214 	andeq	r8, r0, r4, lsl r2
     7fc:	00000e26 	andeq	r0, r0, r6, lsr #28
     800:	000003b2 			; <UNDEFINED> instruction: 0x000003b2
     804:	0250011d 	subseq	r0, r0, #1073741831	; 0x40000007
     808:	1e000077 	mcrne	0, 0, r0, cr0, cr7, {3}
     80c:	00008228 	andeq	r8, r0, r8, lsr #4
     810:	00000e26 	andeq	r0, r0, r6, lsr #28
     814:	0550011d 	ldrbeq	r0, [r0, #-285]	; 0x11d
     818:	009dec03 	addseq	lr, sp, r3, lsl #24
     81c:	00000000 	andeq	r0, r0, r0
     820:	0081a01c 	addeq	sl, r1, ip, lsl r0
     824:	000e2600 	andeq	r2, lr, r0, lsl #12
     828:	0003db00 	andeq	sp, r3, r0, lsl #22
     82c:	50011d00 	andpl	r1, r1, r0, lsl #26
     830:	00007702 	andeq	r7, r0, r2, lsl #14
     834:	0081a81c 	addeq	sl, r1, ip, lsl r8
     838:	000e2600 	andeq	r2, lr, r0, lsl #12
     83c:	0003f200 	andeq	pc, r3, r0, lsl #4
     840:	50011d00 	andpl	r1, r1, r0, lsl #26
     844:	9d940305 	ldcls	3, cr0, [r4, #20]
     848:	1e000000 	cdpne	0, 0, cr0, cr0, cr0, {0}
     84c:	000081b8 			; <UNDEFINED> instruction: 0x000081b8
     850:	00000e26 	andeq	r0, r0, r6, lsr #28
     854:	0552011d 	ldrbeq	r0, [r2, #-285]	; 0x11d
     858:	00760074 	rsbseq	r0, r6, r4, ror r0
     85c:	51011d22 	tstpl	r1, r2, lsr #26
     860:	01b87503 			; <UNDEFINED> instruction: 0x01b87503
     864:	0550011d 	ldrbeq	r0, [r0, #-285]	; 0x11d
     868:	009d9c03 	addseq	r9, sp, r3, lsl #24
     86c:	1f000000 	svcne	0x00000000
     870:	000002fa 	strdeq	r0, [r0], -sl
     874:	826c4001 	rsbhi	r4, ip, #1
     878:	00140000 	andseq	r0, r4, r0
     87c:	9c010000 	stcls	0, cr0, [r1], {-0}
     880:	00000466 	andeq	r0, r0, r6, ror #8
     884:	01007015 	tsteq	r0, r5, lsl r0
     888:	00009e40 	andeq	r9, r0, r0, asr #28
     88c:	00018400 	andeq	r8, r1, r0, lsl #8
     890:	033b1600 	teqeq	fp, #0, 12
     894:	40010000 	andmi	r0, r1, r0
     898:	00000037 	andeq	r0, r0, r7, lsr r0
     89c:	000001a5 	andeq	r0, r0, r5, lsr #3
     8a0:	00827c1e 	addeq	r7, r2, lr, lsl ip
     8a4:	000e3c00 	andeq	r3, lr, r0, lsl #24
     8a8:	52011d00 	andpl	r1, r1, #0, 26
     8ac:	5101f303 	tstpl	r1, r3, lsl #6
     8b0:	0251011d 	subseq	r0, r1, #1073741831	; 0x40000007
     8b4:	011dfe08 	tsteq	sp, r8, lsl #28
     8b8:	01f30350 	mvnseq	r0, r0, asr r3
     8bc:	14000050 	strne	r0, [r0], #-80	; 0x50
     8c0:	0000026d 	andeq	r0, r0, sp, ror #4
     8c4:	007e1901 	rsbseq	r1, lr, r1, lsl #18
     8c8:	82800000 	addhi	r0, r0, #0
     8cc:	00480000 	subeq	r0, r8, r0
     8d0:	9c010000 	stcls	0, cr0, [r1], {-0}
     8d4:	000004ea 	andeq	r0, r0, sl, ror #9
     8d8:	01006815 	tsteq	r0, r5, lsl r8
     8dc:	00022719 	andeq	r2, r2, r9, lsl r7
     8e0:	0001d100 	andeq	sp, r1, r0, lsl #2
     8e4:	027f2000 	rsbseq	r2, pc, #0
     8e8:	1a010000 	bne	408f0 <__bss_end__+0x35df8>
     8ec:	00000037 	andeq	r0, r0, r7, lsr r0
     8f0:	50205801 	eorpl	r5, r0, r1, lsl #16
     8f4:	01000003 	tsteq	r0, r3
     8f8:	0000371b 	andeq	r3, r0, fp, lsl r7
     8fc:	20570100 	subscs	r0, r7, r0, lsl #2
     900:	00000303 	andeq	r0, r0, r3, lsl #6
     904:	00371c01 	eorseq	r1, r7, r1, lsl #24
     908:	56010000 	strpl	r0, [r1], -r0
     90c:	0001d420 	andeq	sp, r1, r0, lsr #8
     910:	371d0100 	ldrcc	r0, [sp, -r0, lsl #2]
     914:	07000000 	streq	r0, [r0, -r0]
     918:	ff0a0075 			; <UNDEFINED> instruction: 0xff0a0075
     91c:	209f1aff 			; <UNDEFINED> instruction: 0x209f1aff
     920:	00000283 	andeq	r0, r0, r3, lsl #5
     924:	007e2201 	rsbseq	r2, lr, r1, lsl #4
     928:	50010000 	andpl	r0, r1, r0
     92c:	0082b41e 	addeq	fp, r2, lr, lsl r4
     930:	000e5b00 	andeq	r5, lr, r0, lsl #22
     934:	51011d00 	tstpl	r1, r0, lsl #26
     938:	1d380802 	ldcne	8, cr0, [r8, #-8]!
     93c:	74025001 	strvc	r5, [r2], #-1
     940:	14000000 	strne	r0, [r0], #-0
     944:	000002c5 	andeq	r0, r0, r5, asr #5
     948:	00252b01 	eoreq	r2, r5, r1, lsl #22
     94c:	82c80000 	sbchi	r0, r8, #0
     950:	00400000 	subeq	r0, r0, r0
     954:	9c010000 	stcls	0, cr0, [r1], {-0}
     958:	00000521 	andeq	r0, r0, r1, lsr #10
     95c:	01006815 	tsteq	r0, r5, lsl r8
     960:	0002272b 	andeq	r2, r2, fp, lsr #14
     964:	0001ef00 	andeq	lr, r1, r0, lsl #30
     968:	82d41e00 	sbcshi	r1, r4, #0, 28
     96c:	04660000 	strbteq	r0, [r6], #-0
     970:	011d0000 	tsteq	sp, r0
     974:	00740250 	rsbseq	r0, r4, r0, asr r2
     978:	22140000 	andscs	r0, r4, #0
     97c:	01000003 	tsteq	r0, r3
     980:	0000254a 	andeq	r2, r0, sl, asr #10
     984:	00830800 	addeq	r0, r3, r0, lsl #16
     988:	00007400 	andeq	r7, r0, r0, lsl #8
     98c:	d99c0100 	ldmible	ip, {r8}
     990:	15000005 	strne	r0, [r0, #-5]
     994:	4a010068 	bmi	40b3c <__bss_end__+0x36044>
     998:	00000227 	andeq	r0, r0, r7, lsr #4
     99c:	0000020d 	andeq	r0, r0, sp, lsl #4
     9a0:	00091620 	andeq	r1, r9, r0, lsr #12
     9a4:	374c0100 	strbcc	r0, [ip, -r0, lsl #2]
     9a8:	01000000 	mrseq	r0, (UNDEF: 0)
     9ac:	02471850 	subeq	r1, r7, #80, 16	; 0x500000
     9b0:	83380000 	teqhi	r8, #0
     9b4:	00080000 	andeq	r0, r8, r0
     9b8:	4e010000 	cdpmi	0, 0, cr0, cr1, cr0, {0}
     9bc:	00000571 	andeq	r0, r0, r1, ror r5
     9c0:	00025719 	andeq	r5, r2, r9, lsl r7
     9c4:	00022b00 	andeq	r2, r2, r0, lsl #22
     9c8:	61180000 	tstvs	r8, r0
     9cc:	40000002 	andmi	r0, r0, r2
     9d0:	04000083 	streq	r0, [r0], #-131	; 0x83
     9d4:	01000000 	mrseq	r0, (UNDEF: 0)
     9d8:	00058e4e 	andeq	r8, r5, lr, asr #28
     9dc:	02711900 	rsbseq	r1, r1, #0, 18
     9e0:	02490000 	subeq	r0, r9, #0
     9e4:	1c000000 	stcne	0, cr0, [r0], {-0}
     9e8:	00008314 	andeq	r8, r0, r4, lsl r3
     9ec:	000004ea 	andeq	r0, r0, sl, ror #9
     9f0:	000005a2 	andeq	r0, r0, r2, lsr #11
     9f4:	0250011d 	subseq	r0, r0, #1073741831	; 0x40000007
     9f8:	1c000074 	stcne	0, cr0, [r0], {116}	; 0x74
     9fc:	00008330 	andeq	r8, r0, r0, lsr r3
     a00:	000002bc 			; <UNDEFINED> instruction: 0x000002bc
     a04:	000005c8 	andeq	r0, r0, r8, asr #11
     a08:	0253011d 	subseq	r0, r3, #1073741831	; 0x40000007
     a0c:	011d0074 	tsteq	sp, r4, ror r0
     a10:	80090252 	andhi	r0, r9, r2, asr r2
     a14:	0251011d 	subseq	r0, r1, #1073741831	; 0x40000007
     a18:	011d8008 	tsteq	sp, r8
     a1c:	38740250 	ldmdacc	r4!, {r4, r6, r9}^
     a20:	83541e00 	cmphi	r4, #0, 28
     a24:	02bc0000 	adcseq	r0, ip, #0
     a28:	011d0000 	tsteq	sp, r0
     a2c:	00740253 	rsbseq	r0, r4, r3, asr r2
     a30:	48210000 	stmdami	r1!, {}	; <UNPREDICTABLE>
     a34:	01000001 	tsteq	r0, r1
     a38:	00837c0c 	addeq	r7, r3, ip, lsl #24
     a3c:	00008000 	andeq	r8, r0, r0
     a40:	799c0100 	ldmibvc	ip, {r8}
     a44:	16000006 	strne	r0, [r0], -r6
     a48:	00000d4b 	andeq	r0, r0, fp, asr #26
     a4c:	009e0c01 	addseq	r0, lr, r1, lsl #24
     a50:	02670000 	rsbeq	r0, r7, #0
     a54:	6e150000 	cdpvs	0, 1, cr0, cr5, cr0, {0}
     a58:	370c0100 	strcc	r0, [ip, -r0, lsl #2]
     a5c:	9b000000 	blls	a64 <_start-0x759c>
     a60:	22000002 	andcs	r0, r0, #2
     a64:	0000013b 	andeq	r0, r0, fp, lsr r1
     a68:	00000679 	andeq	r0, r0, r9, ror r6
     a6c:	9d7c0305 	ldclls	3, cr0, [ip, #-20]!	; 0xffffffec
     a70:	94230000 	strtls	r0, [r3], #-0
     a74:	7c000083 	stcvc	0, cr0, [r0], {131}	; 0x83
     a78:	1c00000e 	stcne	0, cr0, [r0], {14}
     a7c:	000083a8 	andeq	r8, r0, r8, lsr #7
     a80:	00000e26 	andeq	r0, r0, r6, lsr #28
     a84:	00000650 	andeq	r0, r0, r0, asr r6
     a88:	0153011d 	cmpeq	r3, sp, lsl r1
     a8c:	52011d3d 	andpl	r1, r1, #3904	; 0xf40
     a90:	9d7c0305 	ldclls	3, cr0, [ip, #-20]!	; 0xffffffec
     a94:	011d0000 	tsteq	sp, r0
     a98:	2c030551 	cfstr32cs	mvfx0, [r3], {81}	; 0x51
     a9c:	1d00009e 	stcne	0, cr0, [r0, #-632]	; 0xfffffd88
     aa0:	03055001 	movweq	r5, #20481	; 0x5001
     aa4:	00009e08 	andeq	r9, r0, r8, lsl #28
     aa8:	83ac2300 			; <UNDEFINED> instruction: 0x83ac2300
     aac:	0e830000 	cdpeq	0, 8, cr0, cr3, cr0, {0}
     ab0:	bc1e0000 	ldclt	0, cr0, [lr], {-0}
     ab4:	26000083 	strcs	r0, [r0], -r3, lsl #1
     ab8:	1d00000e 	stcne	0, cr0, [r0, #-56]	; 0xffffffc8
     abc:	08025201 	stmdaeq	r2, {r0, r9, ip, lr}
     ac0:	51011d80 	smlabbpl	r1, r0, sp, r1
     ac4:	1d380802 	ldcne	8, cr0, [r8, #-8]!
     ac8:	03055001 	movweq	r5, #20481	; 0x5001
     acc:	00009e38 	andeq	r9, r0, r8, lsr lr
     ad0:	b8070000 	stmdalt	r7, {}	; <UNPREDICTABLE>
     ad4:	21000000 	mrscs	r0, (UNDEF: 0)
     ad8:	00000245 	andeq	r0, r0, r5, asr #4
     adc:	83fc5c01 	mvnshi	r5, #256	; 0x100
     ae0:	00f00000 	rscseq	r0, r0, r0
     ae4:	9c010000 	stcls	0, cr0, [r1], {-0}
     ae8:	000007da 	ldrdeq	r0, [r0], -sl
     aec:	000d5216 	andeq	r5, sp, r6, lsl r2
     af0:	9e5c0100 	rdflse	f0, f4, f0
     af4:	dd000000 	stcle	0, cr0, [r0, #-0]
     af8:	16000002 	strne	r0, [r0], -r2
     afc:	000008db 	ldrdeq	r0, [r0], -fp
     b00:	00ad5c01 	adceq	r5, sp, r1, lsl #24
     b04:	02fb0000 	rscseq	r0, fp, #0
     b08:	a5160000 	ldrge	r0, [r6, #-0]
     b0c:	0100000b 	tsteq	r0, fp
     b10:	0000ad5c 	andeq	sl, r0, ip, asr sp
     b14:	00032f00 	andeq	r2, r3, r0, lsl #30
     b18:	032e1600 	teqeq	lr, #0, 12
     b1c:	5c010000 	stcpl	0, cr0, [r1], {-0}
     b20:	00000037 	andeq	r0, r0, r7, lsr r0
     b24:	00000363 	andeq	r0, r0, r3, ror #6
     b28:	01006817 	tsteq	r0, r7, lsl r8
     b2c:	0002275d 	andeq	r2, r2, sp, asr r7
     b30:	00039700 	andeq	r9, r3, r0, lsl #14
     b34:	013b2200 	teqeq	fp, r0, lsl #4
     b38:	07ea0000 	strbeq	r0, [sl, r0]!
     b3c:	03050000 	movweq	r0, #20480	; 0x5000
     b40:	00009d84 	andeq	r9, r0, r4, lsl #27
     b44:	00842423 	addeq	r2, r4, r3, lsr #8
     b48:	000e7c00 	andeq	r7, lr, r0, lsl #24
     b4c:	84381c00 	ldrthi	r1, [r8], #-3072	; 0xc00
     b50:	0e260000 	cdpeq	0, 2, cr0, cr6, cr0, {0}
     b54:	07230000 	streq	r0, [r3, -r0]!
     b58:	011d0000 	tsteq	sp, r0
     b5c:	5f080253 	svcpl	0x00080253
     b60:	0552011d 	ldrbeq	r0, [r2, #-285]	; 0x11d
     b64:	009d8403 	addseq	r8, sp, r3, lsl #8
     b68:	51011d00 	tstpl	r1, r0, lsl #26
     b6c:	9e2c0305 	cdpls	3, 2, cr0, cr12, cr5, {0}
     b70:	011d0000 	tsteq	sp, r0
     b74:	54030550 	strpl	r0, [r3], #-1360	; 0x550
     b78:	0000009e 	muleq	r0, lr, r0
     b7c:	00843c23 	addeq	r3, r4, r3, lsr #24
     b80:	000e8300 	andeq	r8, lr, r0, lsl #6
     b84:	84441c00 	strbhi	r1, [r4], #-3072	; 0xc00
     b88:	0e260000 	cdpeq	0, 2, cr0, cr6, cr0, {0}
     b8c:	07430000 	strbeq	r0, [r3, -r0]
     b90:	011d0000 	tsteq	sp, r0
     b94:	94030550 	strls	r0, [r3], #-1360	; 0x550
     b98:	0000009c 	muleq	r0, ip, r0
     b9c:	0084501c 	addeq	r5, r4, ip, lsl r0
     ba0:	000e2600 	andeq	r2, lr, r0, lsl #12
     ba4:	00076000 	andeq	r6, r7, r0
     ba8:	51011d00 	tstpl	r1, r0, lsl #26
     bac:	1d007402 	cfstrsne	mvf7, [r0, #-8]
     bb0:	03055001 	movweq	r5, #20481	; 0x5001
     bb4:	00009e88 	andeq	r9, r0, r8, lsl #29
     bb8:	845c1c00 	ldrbhi	r1, [ip], #-3072	; 0xc00
     bbc:	05210000 	streq	r0, [r1, #-0]!
     bc0:	07740000 	ldrbeq	r0, [r4, -r0]!
     bc4:	011d0000 	tsteq	sp, r0
     bc8:	00750250 	rsbseq	r0, r5, r0, asr r2
     bcc:	846c2300 	strbthi	r2, [ip], #-768	; 0x300
     bd0:	0e7c0000 	cdpeq	0, 7, cr0, cr12, cr0, {0}
     bd4:	801c0000 	andshi	r0, ip, r0
     bd8:	26000084 	strcs	r0, [r0], -r4, lsl #1
     bdc:	ac00000e 	stcge	0, cr0, [r0], {14}
     be0:	1d000007 	stcne	0, cr0, [r0, #-28]	; 0xffffffe4
     be4:	08025301 	stmdaeq	r2, {r0, r8, r9, ip, lr}
     be8:	52011d67 	andpl	r1, r1, #6592	; 0x19c0
     bec:	9d840305 	stcls	3, cr0, [r4, #20]
     bf0:	011d0000 	tsteq	sp, r0
     bf4:	2c030551 	cfstr32cs	mvfx0, [r3], {81}	; 0x51
     bf8:	1d00009e 	stcne	0, cr0, [r0, #-632]	; 0xfffffd88
     bfc:	03055001 	movweq	r5, #20481	; 0x5001
     c00:	00009e94 	muleq	r0, r4, lr
     c04:	84842300 	strhi	r2, [r4], #768	; 0x300
     c08:	0e830000 	cdpeq	0, 8, cr0, cr3, cr0, {0}
     c0c:	ac1c0000 	ldcge	0, cr0, [ip], {-0}
     c10:	16000084 	strne	r0, [r0], -r4, lsl #1
     c14:	c9000004 	stmdbgt	r0, {r2}
     c18:	1d000007 	stcne	0, cr0, [r0, #-28]	; 0xffffffe4
     c1c:	74025001 	strvc	r5, [r2], #-1
     c20:	c81e0000 	ldmdagt	lr, {}	; <UNPREDICTABLE>
     c24:	66000084 	strvs	r0, [r0], -r4, lsl #1
     c28:	1d000004 	stcne	0, cr0, [r0, #-16]
     c2c:	75025001 	strvc	r5, [r2, #-1]
     c30:	08000000 	stmdaeq	r0, {}	; <UNPREDICTABLE>
     c34:	000000a6 	andeq	r0, r0, r6, lsr #1
     c38:	000007ea 	andeq	r0, r0, sl, ror #15
     c3c:	00009709 	andeq	r9, r0, r9, lsl #14
     c40:	07000600 	streq	r0, [r0, -r0, lsl #12]
     c44:	000007da 	ldrdeq	r0, [r0], -sl
     c48:	00005e24 	andeq	r5, r0, r4, lsr #28
     c4c:	9e7f0100 	rpwlse	f0, f7, f0
     c50:	ec000000 	stc	0, cr0, [r0], {-0}
     c54:	2c000084 	stccs	0, cr0, [r0], {132}	; 0x84
     c58:	01000002 	tsteq	r0, r2
     c5c:	000b509c 	muleq	fp, ip, r0
     c60:	033b1600 	teqeq	fp, #0, 12
     c64:	7f010000 	svcvc	0x00010000
     c68:	0000007e 	andeq	r0, r0, lr, ror r0
     c6c:	000003ab 	andeq	r0, r0, fp, lsr #7
     c70:	0008db16 	andeq	sp, r8, r6, lsl fp
     c74:	ad7f0100 	ldfgee	f0, [pc, #-0]	; c7c <_start-0x7384>
     c78:	ed000000 	stc	0, cr0, [r0, #-0]
     c7c:	16000003 	strne	r0, [r0], -r3
     c80:	00000ba5 	andeq	r0, r0, r5, lsr #23
     c84:	00ad7f01 	adceq	r7, sp, r1, lsl #30
     c88:	042f0000 	strteq	r0, [pc], #-0	; c90 <_start-0x7370>
     c8c:	2e160000 	cdpcs	0, 1, cr0, cr6, cr0, {0}
     c90:	01000003 	tsteq	r0, r3
     c94:	0000377f 	andeq	r3, r0, pc, ror r7
     c98:	00047100 	andeq	r7, r4, r0, lsl #2
     c9c:	00681700 	rsbeq	r1, r8, r0, lsl #14
     ca0:	02278001 	eoreq	r8, r7, #1
     ca4:	049d0000 	ldreq	r0, [sp], #0
     ca8:	70170000 	andsvc	r0, r7, r0
     cac:	01007274 	tsteq	r0, r4, ror r2
     cb0:	00009e81 	andeq	r9, r0, r1, lsl #29
     cb4:	0004ca00 	andeq	ip, r4, r0, lsl #20
     cb8:	013b2200 	teqeq	fp, r0, lsl #4
     cbc:	0b500000 	bleq	1400cc4 <__bss_end__+0x13f61cc>
     cc0:	03050000 	movweq	r0, #20480	; 0x5000
     cc4:	00009d8c 	andeq	r9, r0, ip, lsl #27
     cc8:	746f7417 	strbtvc	r7, [pc], #-1047	; cd0 <_start-0x7330>
     ccc:	37860100 	strcc	r0, [r6, r0, lsl #2]
     cd0:	de000000 	cdple	0, 0, cr0, cr0, cr0, {0}
     cd4:	17000004 	strne	r0, [r0, -r4]
     cd8:	8701006e 	strhi	r0, [r1, -lr, rrx]
     cdc:	00000037 	andeq	r0, r0, r7, lsr r0
     ce0:	00000544 	andeq	r0, r0, r4, asr #10
     ce4:	00024718 	andeq	r4, r2, r8, lsl r7
     ce8:	00864c00 	addeq	r4, r6, r0, lsl #24
     cec:	00000400 	andeq	r0, r0, r0, lsl #8
     cf0:	a8a30100 	stmiage	r3!, {r8}
     cf4:	19000008 	stmdbne	r0, {r3}
     cf8:	00000257 	andeq	r0, r0, r7, asr r2
     cfc:	0000056d 	andeq	r0, r0, sp, ror #10
     d00:	02611800 	rsbeq	r1, r1, #0, 16
     d04:	86500000 	ldrbhi	r0, [r0], -r0
     d08:	00040000 	andeq	r0, r4, r0
     d0c:	a3010000 	movwge	r0, #4096	; 0x1000
     d10:	000008c5 	andeq	r0, r0, r5, asr #17
     d14:	00027119 	andeq	r7, r2, r9, lsl r1
     d18:	00058e00 	andeq	r8, r5, r0, lsl #28
     d1c:	18230000 	stmdane	r3!, {}	; <UNPREDICTABLE>
     d20:	7c000085 	stcvc	0, cr0, [r0], {133}	; 0x85
     d24:	1c00000e 	stcne	0, cr0, [r0], {14}
     d28:	0000852c 	andeq	r8, r0, ip, lsr #10
     d2c:	00000e26 	andeq	r0, r0, r6, lsr #28
     d30:	000008fd 	strdeq	r0, [r0], -sp
     d34:	0253011d 	subseq	r0, r3, #1073741831	; 0x40000007
     d38:	011d8308 	tsteq	sp, r8, lsl #6
     d3c:	8c030552 	cfstr32hi	mvfx0, [r3], {82}	; 0x52
     d40:	1d00009d 	stcne	0, cr0, [r0, #-628]	; 0xfffffd8c
     d44:	03055101 	movweq	r5, #20737	; 0x5101
     d48:	00009e2c 	andeq	r9, r0, ip, lsr #28
     d4c:	0550011d 	ldrbeq	r0, [r0, #-285]	; 0x11d
     d50:	009e5403 	addseq	r5, lr, r3, lsl #8
     d54:	30230000 	eorcc	r0, r3, r0
     d58:	83000085 	movwhi	r0, #133	; 0x85
     d5c:	1c00000e 	stcne	0, cr0, [r0], {14}
     d60:	00008538 	andeq	r8, r0, r8, lsr r5
     d64:	00000e26 	andeq	r0, r0, r6, lsr #28
     d68:	0000091d 	andeq	r0, r0, sp, lsl r9
     d6c:	0550011d 	ldrbeq	r0, [r0, #-285]	; 0x11d
     d70:	009c9403 	addseq	r9, ip, r3, lsl #8
     d74:	441c0000 	ldrmi	r0, [ip], #-0
     d78:	26000085 	strcs	r0, [r0], -r5, lsl #1
     d7c:	3a00000e 	bcc	dbc <_start-0x7244>
     d80:	1d000009 	stcne	0, cr0, [r0, #-36]	; 0xffffffdc
     d84:	75025101 	strvc	r5, [r2, #-257]	; 0x101
     d88:	50011d00 	andpl	r1, r1, r0, lsl #26
     d8c:	9eb80305 	cdpls	3, 11, cr0, cr8, cr5, {0}
     d90:	1c000000 	stcne	0, cr0, [r0], {-0}
     d94:	00008560 	andeq	r8, r0, r0, ror #10
     d98:	00000e26 	andeq	r0, r0, r6, lsr #28
     d9c:	00000951 	andeq	r0, r0, r1, asr r9
     da0:	0550011d 	ldrbeq	r0, [r0, #-285]	; 0x11d
     da4:	009ed003 	addseq	sp, lr, r3
     da8:	6c1c0000 	ldcvs	0, cr0, [ip], {-0}
     dac:	26000085 	strcs	r0, [r0], -r5, lsl #1
     db0:	6e00000e 	cdpvs	0, 0, cr0, cr0, cr14, {0}
     db4:	1d000009 	stcne	0, cr0, [r0, #-36]	; 0xffffffdc
     db8:	75025101 	strvc	r5, [r2, #-257]	; 0x101
     dbc:	50011d00 	andpl	r1, r1, r0, lsl #26
     dc0:	9edc0305 	cdpls	3, 13, cr0, cr12, cr5, {0}
     dc4:	23000000 	movwcs	r0, #0
     dc8:	00008570 	andeq	r8, r0, r0, ror r5
     dcc:	00000e7c 	andeq	r0, r0, ip, ror lr
     dd0:	0085881c 	addeq	r8, r5, ip, lsl r8
     dd4:	000e2600 	andeq	r2, lr, r0, lsl #12
     dd8:	0009ad00 	andeq	sl, r9, r0, lsl #26
     ddc:	53011d00 	movwpl	r1, #7424	; 0x1d00
     de0:	1d8b0802 	stcne	8, cr0, [fp, #8]
     de4:	03055201 	movweq	r5, #20993	; 0x5201
     de8:	00009d8c 	andeq	r9, r0, ip, lsl #27
     dec:	0551011d 	ldrbeq	r0, [r1, #-285]	; 0x11d
     df0:	009e2c03 	addseq	r2, lr, r3, lsl #24
     df4:	50011d00 	andpl	r1, r1, r0, lsl #26
     df8:	9f040305 	svcls	0x00040305
     dfc:	021d0000 	andseq	r0, sp, #0
     e00:	7502007d 	strvc	r0, [r2, #-125]	; 0x7d
     e04:	8c230000 	stchi	0, cr0, [r3], #-0
     e08:	83000085 	movwhi	r0, #133	; 0x85
     e0c:	1c00000e 	stcne	0, cr0, [r0], {14}
     e10:	000085ac 	andeq	r8, r0, ip, lsr #11
     e14:	00000e26 	andeq	r0, r0, r6, lsr #28
     e18:	000009cd 	andeq	r0, r0, sp, asr #19
     e1c:	0550011d 	ldrbeq	r0, [r0, #-285]	; 0x11d
     e20:	009ed003 	addseq	sp, lr, r3
     e24:	c81c0000 	ldmdagt	ip, {}	; <UNPREDICTABLE>
     e28:	26000085 	strcs	r0, [r0], -r5, lsl #1
     e2c:	ea00000e 	b	e6c <_start-0x7194>
     e30:	1d000009 	stcne	0, cr0, [r0, #-36]	; 0xffffffdc
     e34:	76025201 	strvc	r5, [r2], -r1, lsl #4
     e38:	50011d00 	andpl	r1, r1, r0, lsl #26
     e3c:	9f3c0305 	svcls	0x003c0305
     e40:	23000000 	movwcs	r0, #0
     e44:	000085cc 	andeq	r8, r0, ip, asr #11
     e48:	00000e7c 	andeq	r0, r0, ip, ror lr
     e4c:	0085f41c 	addeq	pc, r5, ip, lsl r4	; <UNPREDICTABLE>
     e50:	000e2600 	andeq	r2, lr, r0, lsl #12
     e54:	000a2900 	andeq	r2, sl, r0, lsl #18
     e58:	53011d00 	movwpl	r1, #7424	; 0x1d00
     e5c:	1d8f0802 	stcne	8, cr0, [pc, #8]	; e6c <_start-0x7194>
     e60:	03055201 	movweq	r5, #20993	; 0x5201
     e64:	00009d8c 	andeq	r9, r0, ip, lsl #27
     e68:	0551011d 	ldrbeq	r0, [r1, #-285]	; 0x11d
     e6c:	009e2c03 	addseq	r2, lr, r3, lsl #24
     e70:	50011d00 	andpl	r1, r1, r0, lsl #26
     e74:	9f680305 	svcls	0x00680305
     e78:	021d0000 	andseq	r0, sp, #0
     e7c:	7602047d 			; <UNDEFINED> instruction: 0x7602047d
     e80:	f8230000 			; <UNDEFINED> instruction: 0xf8230000
     e84:	83000085 	movwhi	r0, #133	; 0x85
     e88:	1c00000e 	stcne	0, cr0, [r0], {14}
     e8c:	00008638 	andeq	r8, r0, r8, lsr r6
     e90:	00000466 	andeq	r0, r0, r6, ror #8
     e94:	00000a46 	andeq	r0, r0, r6, asr #20
     e98:	0250011d 	subseq	r0, r0, #1073741831	; 0x40000007
     e9c:	1c000074 	stcne	0, cr0, [r0], {116}	; 0x74
     ea0:	00008648 	andeq	r8, r0, r8, asr #12
     ea4:	00000416 	andeq	r0, r0, r6, lsl r4
     ea8:	00000a60 	andeq	r0, r0, r0, ror #20
     eac:	0251011d 	subseq	r0, r1, #1073741831	; 0x40000007
     eb0:	011d8008 	tsteq	sp, r8
     eb4:	38740250 	ldmdacc	r4!, {r4, r6, r9}^
     eb8:	86602300 	strbthi	r2, [r0], -r0, lsl #6
     ebc:	04160000 	ldreq	r0, [r6], #-0
     ec0:	681c0000 	ldmdavs	ip, {}	; <UNPREDICTABLE>
     ec4:	ea000086 	b	10e4 <_start-0x6f1c>
     ec8:	7d000004 	stcvc	0, cr0, [r0, #-16]
     ecc:	1d00000a 	stcne	0, cr0, [r0, #-40]	; 0xffffffd8
     ed0:	74025001 	strvc	r5, [r2], #-1
     ed4:	74230000 	strtvc	r0, [r3], #-0
     ed8:	7c000086 	stcvc	0, cr0, [r0], {134}	; 0x86
     edc:	1c00000e 	stcne	0, cr0, [r0], {14}
     ee0:	00008688 	andeq	r8, r0, r8, lsl #13
     ee4:	00000e26 	andeq	r0, r0, r6, lsr #28
     ee8:	00000ab5 			; <UNDEFINED> instruction: 0x00000ab5
     eec:	0253011d 	subseq	r0, r3, #1073741831	; 0x40000007
     ef0:	011da508 	tsteq	sp, r8, lsl #10
     ef4:	8c030552 	cfstr32hi	mvfx0, [r3], {82}	; 0x52
     ef8:	1d00009d 	stcne	0, cr0, [r0, #-628]	; 0xfffffd8c
     efc:	03055101 	movweq	r5, #20737	; 0x5101
     f00:	00009e2c 	andeq	r9, r0, ip, lsr #28
     f04:	0550011d 	ldrbeq	r0, [r0, #-285]	; 0x11d
     f08:	009fa403 	addseq	sl, pc, r3, lsl #8
     f0c:	8c230000 	stchi	0, cr0, [r3], #-0
     f10:	83000086 	movwhi	r0, #134	; 0x86
     f14:	1c00000e 	stcne	0, cr0, [r0], {14}
     f18:	00008694 	muleq	r0, r4, r6
     f1c:	00000521 	andeq	r0, r0, r1, lsr #10
     f20:	00000ad2 	ldrdeq	r0, [r0], -r2
     f24:	0250011d 	subseq	r0, r0, #1073741831	; 0x40000007
     f28:	23000074 	movwcs	r0, #116	; 0x74
     f2c:	000086a0 	andeq	r8, r0, r0, lsr #13
     f30:	00000e7c 	andeq	r0, r0, ip, ror lr
     f34:	0086b41c 	addeq	fp, r6, ip, lsl r4
     f38:	000e2600 	andeq	r2, lr, r0, lsl #12
     f3c:	000b0a00 	andeq	r0, fp, r0, lsl #20
     f40:	53011d00 	movwpl	r1, #7424	; 0x1d00
     f44:	1da60802 	stcne	8, cr0, [r6, #8]!
     f48:	03055201 	movweq	r5, #20993	; 0x5201
     f4c:	00009d8c 	andeq	r9, r0, ip, lsl #27
     f50:	0551011d 	ldrbeq	r0, [r1, #-285]	; 0x11d
     f54:	009e2c03 	addseq	r2, lr, r3, lsl #24
     f58:	50011d00 	andpl	r1, r1, r0, lsl #26
     f5c:	9fc40305 	svcls	0x00c40305
     f60:	23000000 	movwcs	r0, #0
     f64:	000086b8 			; <UNDEFINED> instruction: 0x000086b8
     f68:	00000e83 	andeq	r0, r0, r3, lsl #29
     f6c:	0086c01c 	addeq	ip, r6, ip, lsl r0
     f70:	000e2600 	andeq	r2, lr, r0, lsl #12
     f74:	000b2a00 	andeq	r2, fp, r0, lsl #20
     f78:	50011d00 	andpl	r1, r1, r0, lsl #26
     f7c:	9c940305 	ldcls	3, cr0, [r4], {5}
     f80:	1e000000 	cdpne	0, 0, cr0, cr0, cr0, {0}
     f84:	000086d4 	ldrdeq	r8, [r0], -r4
     f88:	00000e26 	andeq	r0, r0, r6, lsr #28
     f8c:	0253011d 	subseq	r0, r3, #1073741831	; 0x40000007
     f90:	011d0077 	tsteq	sp, r7, ror r0
     f94:	00760252 	rsbseq	r0, r6, r2, asr r2
     f98:	0251011d 	subseq	r0, r1, #1073741831	; 0x40000007
     f9c:	011d0075 	tsteq	sp, r5, ror r0
     fa0:	e4030550 	str	r0, [r3], #-1360	; 0x550
     fa4:	0000009f 	muleq	r0, pc, r0	; <UNPREDICTABLE>
     fa8:	00b80700 	adcseq	r0, r8, r0, lsl #14
     fac:	4c240000 	stcmi	0, cr0, [r4], #-0
     fb0:	01000002 	tsteq	r0, r2
     fb4:	000025ad 	andeq	r2, r0, sp, lsr #11
     fb8:	00871800 	addeq	r1, r7, r0, lsl #16
     fbc:	00003000 	andeq	r3, r0, r0
     fc0:	9c9c0100 	ldflss	f0, [ip], {0}
     fc4:	1500000b 	strne	r0, [r0, #-11]
     fc8:	ad010068 	stcge	0, cr0, [r1, #-416]	; 0xfffffe60
     fcc:	00000227 	andeq	r0, r0, r7, lsr #4
     fd0:	000005af 	andeq	r0, r0, pc, lsr #11
     fd4:	00873c1e 	addeq	r3, r7, lr, lsl ip
     fd8:	0002bc00 	andeq	fp, r2, r0, lsl #24
     fdc:	53011d00 	movwpl	r1, #7424	; 0x1d00
     fe0:	5001f303 	andpl	pc, r1, r3, lsl #6
     fe4:	0152011d 	cmpeq	r2, sp, lsl r1
     fe8:	50011d30 	andpl	r1, r1, r0, lsr sp
     fec:	5001f306 	andpl	pc, r1, r6, lsl #6
     ff0:	0001b823 	andeq	fp, r1, r3, lsr #16
     ff4:	00cc2400 	sbceq	r2, ip, r0, lsl #8
     ff8:	b7010000 	strlt	r0, [r1, -r0]
     ffc:	00000025 	andeq	r0, r0, r5, lsr #32
    1000:	00008748 	andeq	r8, r0, r8, asr #14
    1004:	00000138 	andeq	r0, r0, r8, lsr r1
    1008:	0d3f9c01 	ldceq	12, cr9, [pc, #-4]!	; 100c <_start-0x6ff4>
    100c:	1a250000 	bne	941014 <__bss_end__+0x93651c>
    1010:	01000003 	tsteq	r0, r3
    1014:	000037b8 			; <UNDEFINED> instruction: 0x000037b8
    1018:	0005f100 	andeq	pc, r5, r0, lsl #2
    101c:	036a2500 	cmneq	sl, #0, 10
    1020:	b9010000 	stmdblt	r1, {}	; <UNPREDICTABLE>
    1024:	00000037 	andeq	r0, r0, r7, lsr r0
    1028:	00000604 	andeq	r0, r0, r4, lsl #12
    102c:	0002d925 	andeq	sp, r2, r5, lsr #18
    1030:	37bd0100 	ldrcc	r0, [sp, r0, lsl #2]!
    1034:	17000000 	strne	r0, [r0, -r0]
    1038:	25000006 	strcs	r0, [r0, #-6]
    103c:	000002eb 	andeq	r0, r0, fp, ror #5
    1040:	0037be01 	eorseq	fp, r7, r1, lsl #28
    1044:	06360000 	ldrteq	r0, [r6], -r0
    1048:	ae200000 	cdpge	0, 2, cr0, cr0, cr0, {0}
    104c:	01000001 	tsteq	r0, r1
    1050:	000d3fc1 	andeq	r3, sp, r1, asr #31
    1054:	26540100 	ldrbcs	r0, [r4], -r0, lsl #2
    1058:	00000000 	andeq	r0, r0, r0
    105c:	00000ca0 	andeq	r0, r0, r0, lsr #25
    1060:	01006817 	tsteq	r0, r7, lsl r8
    1064:	000227c3 	andeq	r2, r2, r3, asr #15
    1068:	00065500 	andeq	r5, r6, r0, lsl #10
    106c:	87a81c00 	strhi	r1, [r8, r0, lsl #24]!
    1070:	04ea0000 	strbteq	r0, [sl], #0
    1074:	0c280000 	stceq	0, cr0, [r8], #-0
    1078:	011d0000 	tsteq	sp, r0
    107c:	00740250 	rsbseq	r0, r4, r0, asr r2
    1080:	87b81c00 	ldrhi	r1, [r8, r0, lsl #24]!
    1084:	0e260000 	cdpeq	0, 2, cr0, cr6, cr0, {0}
    1088:	0c3f0000 	ldceq	0, cr0, [pc], #-0	; 1090 <_start-0x6f70>
    108c:	011d0000 	tsteq	sp, r0
    1090:	4c030550 	cfstr32mi	mvfx0, [r3], {80}	; 0x50
    1094:	000000a0 	andeq	r0, r0, r0, lsr #1
    1098:	0087c81c 	addeq	ip, r7, ip, lsl r8
    109c:	00052100 	andeq	r2, r5, r0, lsl #2
    10a0:	000c5300 	andeq	r5, ip, r0, lsl #6
    10a4:	50011d00 	andpl	r1, r1, r0, lsl #26
    10a8:	00007402 	andeq	r7, r0, r2, lsl #8
    10ac:	0087d81c 	addeq	sp, r7, ip, lsl r8
    10b0:	000e2600 	andeq	r2, lr, r0, lsl #12
    10b4:	000c6700 	andeq	r6, ip, r0, lsl #14
    10b8:	50011d00 	andpl	r1, r1, r0, lsl #26
    10bc:	00007a02 	andeq	r7, r0, r2, lsl #20
    10c0:	0087e41c 	addeq	lr, r7, ip, lsl r4
    10c4:	000b5500 	andeq	r5, fp, r0, lsl #10
    10c8:	000c7b00 	andeq	r7, ip, r0, lsl #22
    10cc:	50011d00 	andpl	r1, r1, r0, lsl #26
    10d0:	00007402 	andeq	r7, r0, r2, lsl #8
    10d4:	0087f41c 	addeq	pc, r7, ip, lsl r4	; <UNPREDICTABLE>
    10d8:	000e2600 	andeq	r2, lr, r0, lsl #12
    10dc:	000c8f00 	andeq	r8, ip, r0, lsl #30
    10e0:	50011d00 	andpl	r1, r1, r0, lsl #26
    10e4:	00007902 	andeq	r7, r0, r2, lsl #18
    10e8:	0087fc1e 	addeq	pc, r7, lr, lsl ip	; <UNPREDICTABLE>
    10ec:	000e2600 	andeq	r2, lr, r0, lsl #12
    10f0:	50011d00 	andpl	r1, r1, r0, lsl #26
    10f4:	00007802 	andeq	r7, r0, r2, lsl #16
    10f8:	876c1c00 	strbhi	r1, [ip, -r0, lsl #24]!
    10fc:	0e260000 	cdpeq	0, 2, cr0, cr6, cr0, {0}
    1100:	0cb70000 	ldceq	0, cr0, [r7]
    1104:	011d0000 	tsteq	sp, r0
    1108:	94030550 	strls	r0, [r3], #-1360	; 0x550
    110c:	0000009c 	muleq	r0, ip, r0
    1110:	00877c1c 	addeq	r7, r7, ip, lsl ip
    1114:	000e2600 	andeq	r2, lr, r0, lsl #12
    1118:	000cda00 	andeq	sp, ip, r0, lsl #20
    111c:	52011d00 	andpl	r1, r1, #0, 26
    1120:	1d007502 	cfstr32ne	mvfx7, [r0, #-8]
    1124:	76025101 	strvc	r5, [r2], -r1, lsl #2
    1128:	50011d00 	andpl	r1, r1, r0, lsl #26
    112c:	a0140305 	andsge	r0, r4, r5, lsl #6
    1130:	1c000000 	stcne	0, cr0, [r0], {-0}
    1134:	00008830 	andeq	r8, r0, r0, lsr r8
    1138:	00000e26 	andeq	r0, r0, r6, lsr #28
    113c:	00000cee 	andeq	r0, r0, lr, ror #25
    1140:	0250011d 	subseq	r0, r0, #1073741831	; 0x40000007
    1144:	1c000079 	stcne	0, cr0, [r0], {121}	; 0x79
    1148:	00008840 	andeq	r8, r0, r0, asr #16
    114c:	00000e26 	andeq	r0, r0, r6, lsr #28
    1150:	00000d11 	andeq	r0, r0, r1, lsl sp
    1154:	0252011d 	subseq	r0, r2, #1073741831	; 0x40000007
    1158:	011d0076 	tsteq	sp, r6, ror r0
    115c:	00750251 	rsbseq	r0, r5, r1, asr r2
    1160:	0550011d 	ldrbeq	r0, [r0, #-285]	; 0x11d
    1164:	00a09003 	adceq	r9, r0, r3
    1168:	4c1c0000 	ldcmi	0, cr0, [ip], {-0}
    116c:	26000088 	strcs	r0, [r0], -r8, lsl #1
    1170:	2500000e 	strcs	r0, [r0, #-14]
    1174:	1d00000d 	stcne	0, cr0, [r0, #-52]	; 0xffffffcc
    1178:	79025001 	stmdbvc	r2, {r0, ip, lr}
    117c:	581e0000 	ldmdapl	lr, {}	; <UNPREDICTABLE>
    1180:	26000088 	strcs	r0, [r0], -r8, lsl #1
    1184:	1d00000e 	stcne	0, cr0, [r0, #-56]	; 0xffffffc8
    1188:	75025101 	strvc	r5, [r2, #-257]	; 0x101
    118c:	50011d00 	andpl	r1, r1, r0, lsl #26
    1190:	a0b80305 	adcsge	r0, r8, r5, lsl #6
    1194:	00000000 	andeq	r0, r0, r0
    1198:	005a0406 	subseq	r0, sl, r6, lsl #8
    119c:	c2240000 	eorgt	r0, r4, #0
    11a0:	01000001 	tsteq	r0, r1
    11a4:	000227e1 	andeq	r2, r2, r1, ror #15
    11a8:	00888000 	addeq	r8, r8, r0
    11ac:	00002000 	andeq	r2, r0, r0
    11b0:	7c9c0100 	ldfvcs	f0, [ip], {0}
    11b4:	2000000d 	andcs	r0, r0, sp
    11b8:	000002bf 			; <UNDEFINED> instruction: 0x000002bf
    11bc:	0227e201 	eoreq	lr, r7, #268435456	; 0x10000000
    11c0:	54010000 	strpl	r0, [r1], #-0
    11c4:	0088941e 	addeq	r9, r8, lr, lsl r4
    11c8:	0004ea00 	andeq	lr, r4, r0, lsl #20
    11cc:	50011d00 	andpl	r1, r1, r0, lsl #26
    11d0:	00007402 	andeq	r7, r0, r2, lsl #8
    11d4:	02572400 	subseq	r2, r7, #0, 8
    11d8:	e8010000 	stmda	r1, {}	; <UNPREDICTABLE>
    11dc:	00000227 	andeq	r0, r0, r7, lsr #4
    11e0:	000088a0 	andeq	r8, r0, r0, lsr #17
    11e4:	00000044 	andeq	r0, r0, r4, asr #32
    11e8:	0dcd9c01 	stcleq	12, cr9, [sp, #4]
    11ec:	70150000 	andsvc	r0, r5, r0
    11f0:	27e80100 	strbcs	r0, [r8, r0, lsl #2]!
    11f4:	68000002 	stmdavs	r0, {r1}
    11f8:	17000006 	strne	r0, [r0, -r6]
    11fc:	e901006e 	stmdb	r1, {r1, r2, r3, r5, r6}
    1200:	00000037 	andeq	r0, r0, r7, lsr r0
    1204:	000006a2 	andeq	r0, r0, r2, lsr #13
    1208:	000a0420 	andeq	r0, sl, r0, lsr #8
    120c:	27ec0100 	strbcs	r0, [ip, r0, lsl #2]!
    1210:	01000002 	tsteq	r0, r2
    1214:	88d01e54 	ldmhi	r0, {r2, r4, r6, r9, sl, fp, ip}^
    1218:	04ea0000 	strbteq	r0, [sl], #0
    121c:	011d0000 	tsteq	sp, r0
    1220:	00740250 	rsbseq	r0, r4, r0, asr r2
    1224:	ab270000 	blge	9c122c <__bss_end__+0x9b6734>
    1228:	01000002 	tsteq	r0, r2
    122c:	0001d0f6 	strdeq	sp, [r1], -r6
    1230:	0088e400 	addeq	lr, r8, r0, lsl #8
    1234:	00001c00 	andeq	r1, r0, r0, lsl #24
    1238:	209c0100 	addscs	r0, ip, r0, lsl #2
    123c:	00000411 	andeq	r0, r0, r1, lsl r4
    1240:	0d3f0801 	ldceq	8, cr0, [pc, #-4]!	; 1244 <_start-0x6dbc>
    1244:	03050000 	movweq	r0, #20480	; 0x5000
    1248:	0000a6d0 	ldrdeq	sl, [r0], -r0
    124c:	000d5f20 	andeq	r5, sp, r0, lsr #30
    1250:	3f080100 	svccc	0x00080100
    1254:	0500000d 	streq	r0, [r0, #-13]
    1258:	00a6d403 	adceq	sp, r6, r3, lsl #8
    125c:	0d462000 	stcleq	0, cr2, [r6, #-0]
    1260:	08010000 	stmdaeq	r1, {}	; <UNPREDICTABLE>
    1264:	00000d3f 	andeq	r0, r0, pc, lsr sp
    1268:	a6cc0305 	strbge	r0, [ip], r5, lsl #6
    126c:	0d200000 	stceq	0, cr0, [r0, #-0]
    1270:	01000002 	tsteq	r0, r2
    1274:	0001d00a 	andeq	sp, r1, sl
    1278:	d8030500 	stmdale	r3, {r8, sl}
    127c:	280000a6 	stmdacs	r0, {r1, r2, r5, r7}
    1280:	000004fa 	strdeq	r0, [r0], -sl
    1284:	00252905 	eoreq	r2, r5, r5, lsl #18
    1288:	0e3c0000 	cdpeq	0, 3, cr0, cr12, cr0, {0}
    128c:	ad290000 	stcge	0, cr0, [r9, #-0]
    1290:	2a000000 	bcs	1298 <_start-0x6d68>
    1294:	01342800 	teqeq	r4, r0, lsl #16
    1298:	1b060000 	blne	1812a0 <__bss_end__+0x1767a8>
    129c:	0000009e 	muleq	r0, lr, r0
    12a0:	00000e5b 	andeq	r0, r0, fp, asr lr
    12a4:	00009e29 	andeq	r9, r0, r9, lsr #28
    12a8:	00252900 	eoreq	r2, r5, r0, lsl #18
    12ac:	2c290000 	stccs	0, cr0, [r9], #-0
    12b0:	00000000 	andeq	r0, r0, r0
    12b4:	0001dd28 	andeq	sp, r1, r8, lsr #26
    12b8:	7e050700 	cdpvc	7, 0, cr0, cr5, cr0, {0}
    12bc:	75000000 	strvc	r0, [r0, #-0]
    12c0:	2900000e 	stmdbcs	r0, {r1, r2, r3}
    12c4:	00000e75 	andeq	r0, r0, r5, ror lr
    12c8:	00002529 	andeq	r2, r0, r9, lsr #10
    12cc:	04060000 	streq	r0, [r6], #-0
    12d0:	00000e7b 	andeq	r0, r0, fp, ror lr
    12d4:	01172c2b 	tsteq	r7, fp, lsr #24
    12d8:	1e050000 	cdpne	0, 0, cr0, cr5, cr0, {0}
    12dc:	0000ef2c 	andeq	lr, r0, ip, lsr #30
    12e0:	00650500 	rsbeq	r0, r5, r0, lsl #10
    12e4:	00000d6d 	andeq	r0, r0, sp, ror #26
    12e8:	03bc0004 			; <UNDEFINED> instruction: 0x03bc0004
    12ec:	01040000 	mrseq	r0, (UNDEF: 4)
    12f0:	00000007 	andeq	r0, r0, r7
    12f4:	00044d01 	andeq	r4, r4, r1, lsl #26
    12f8:	00006600 	andeq	r6, r0, r0, lsl #12
    12fc:	00890000 	addeq	r0, r9, r0
    1300:	00068c00 	andeq	r8, r6, r0, lsl #24
    1304:	00042a00 	andeq	r2, r4, r0, lsl #20
    1308:	05040200 	streq	r0, [r4, #-512]	; 0x200
    130c:	00746e69 	rsbseq	r6, r4, r9, ror #28
    1310:	5a070403 	bpl	1c2324 <__bss_end__+0x1b782c>
    1314:	03000001 	movweq	r0, #1
    1318:	01280601 	teqeq	r8, r1, lsl #12
    131c:	02030000 	andeq	r0, r3, #0
    1320:	00017e05 	andeq	r7, r1, r5, lsl #28
    1324:	05040300 	streq	r0, [r4, #-768]	; 0x300
    1328:	00000175 	andeq	r0, r0, r5, ror r1
    132c:	70050803 	andvc	r0, r5, r3, lsl #16
    1330:	03000001 	movweq	r0, #1
    1334:	01260801 	teqeq	r6, r1, lsl #16
    1338:	15040000 	strne	r0, [r4, #-0]
    133c:	02000002 	andeq	r0, r0, #2
    1340:	00006131 	andeq	r6, r0, r1, lsr r1
    1344:	07020300 	streq	r0, [r2, -r0, lsl #6]
    1348:	000000fc 	strdeq	r0, [r0], -ip
    134c:	00018804 	andeq	r8, r1, r4, lsl #16
    1350:	73340200 	teqvc	r4, #0, 4
    1354:	03000000 	movweq	r0, #0
    1358:	01550704 	cmpeq	r5, r4, lsl #14
    135c:	08030000 	stmdaeq	r3, {}	; <UNPREDICTABLE>
    1360:	00015007 	andeq	r5, r1, r7
    1364:	07040300 	streq	r0, [r4, -r0, lsl #6]
    1368:	00000167 	andeq	r0, r0, r7, ror #2
    136c:	01030405 	tsteq	r3, r5, lsl #8
    1370:	00012f08 	andeq	r2, r1, r8, lsl #30
    1374:	97040600 	strls	r0, [r4, -r0, lsl #12]
    1378:	07000000 	streq	r0, [r0, -r0]
    137c:	0000008a 	andeq	r0, r0, sl, lsl #1
    1380:	27030108 	strcs	r0, [r3, -r8, lsl #2]
    1384:	000000b1 	strheq	r0, [r0], -r1
    1388:	0001f709 	andeq	pc, r1, r9, lsl #14
    138c:	f1090b00 			; <UNDEFINED> instruction: 0xf1090b00
    1390:	0c000001 	stceq	0, cr0, [r0], {1}
    1394:	030c0a00 	movweq	r0, #51712	; 0xca00
    1398:	0000de29 	andeq	sp, r0, r9, lsr #28
    139c:	08db0b00 	ldmeq	fp, {r8, r9, fp}^
    13a0:	2a030000 	bcs	c13a8 <__bss_end__+0xb68b0>
    13a4:	00000091 	muleq	r0, r1, r0
    13a8:	0ba50b00 	bleq	fe943fb0 <__bss_end__+0xfe9394b8>
    13ac:	2b030000 	blcs	c13b4 <__bss_end__+0xb68bc>
    13b0:	00000091 	muleq	r0, r1, r0
    13b4:	032e0b04 	teqeq	lr, #4, 22	; 0x1000
    13b8:	2c030000 	stccs	0, cr0, [r3], {-0}
    13bc:	0000002c 	andeq	r0, r0, ip, lsr #32
    13c0:	b5040008 	strlt	r0, [r4, #-8]
    13c4:	03000002 	movweq	r0, #2
    13c8:	0000b12d 	andeq	fp, r0, sp, lsr #2
    13cc:	03790c00 	cmneq	r9, #0, 24
    13d0:	03380000 	teqeq	r8, #0
    13d4:	00016e30 	andeq	r6, r1, r0, lsr lr
    13d8:	02890b00 	addeq	r0, r9, #0, 22
    13dc:	31030000 	mrscc	r0, (UNDEF: 3)
    13e0:	00000068 	andeq	r0, r0, r8, rrx
    13e4:	035f0b00 	cmpeq	pc, #0, 22
    13e8:	32030000 	andcc	r0, r3, #0
    13ec:	00000068 	andeq	r0, r0, r8, rrx
    13f0:	07660b04 	strbeq	r0, [r6, -r4, lsl #22]!
    13f4:	33030000 	movwcc	r0, #12288	; 0x3000
    13f8:	00000068 	andeq	r0, r0, r8, rrx
    13fc:	02830b08 	addeq	r0, r3, #8, 22	; 0x2000
    1400:	37030000 	strcc	r0, [r3, -r0]
    1404:	00000068 	andeq	r0, r0, r8, rrx
    1408:	02630b0c 	rsbeq	r0, r3, #12, 22	; 0x3000
    140c:	39030000 	stmdbcc	r3, {}	; <UNPREDICTABLE>
    1410:	000000de 	ldrdeq	r0, [r0], -lr
    1414:	02960b10 	addseq	r0, r6, #16, 22	; 0x4000
    1418:	3a030000 	bcc	c1420 <__bss_end__+0xb6928>
    141c:	000000de 	ldrdeq	r0, [r0], -lr
    1420:	03540b1c 	cmpeq	r4, #28, 22	; 0x7000
    1424:	3e030000 	cdpcc	0, 0, cr0, cr3, cr0, {0}
    1428:	00000068 	andeq	r0, r0, r8, rrx
    142c:	03070b28 	movweq	r0, #31528	; 0x7b28
    1430:	3f030000 	svccc	0x00030000
    1434:	00000068 	andeq	r0, r0, r8, rrx
    1438:	01cf0b2c 	biceq	r0, pc, ip, lsr #22
    143c:	42030000 	andmi	r0, r3, #0
    1440:	0000016e 	andeq	r0, r0, lr, ror #2
    1444:	01d80b30 	bicseq	r0, r8, r0, lsr fp
    1448:	45030000 	strmi	r0, [r3, #-0]
    144c:	00000056 	andeq	r0, r0, r6, asr r0
    1450:	04060034 	streq	r0, [r6], #-52	; 0x34
    1454:	000000e9 	andeq	r0, r0, r9, ror #1
    1458:	00034a04 	andeq	r4, r3, r4, lsl #20
    145c:	e9460300 	stmdb	r6, {r8, r9}^
    1460:	08000000 	stmdaeq	r0, {}	; <UNPREDICTABLE>
    1464:	a4490302 	strbge	r0, [r9], #-770	; 0x302
    1468:	09000001 	stmdbeq	r0, {r0}
    146c:	000002f1 	strdeq	r0, [r0], -r1
    1470:	770901fe 			; <UNDEFINED> instruction: 0x770901fe
    1474:	80000002 	andhi	r0, r0, r2
    1478:	022e0901 	eoreq	r0, lr, #16384	; 0x4000
    147c:	01b80000 			; <UNDEFINED> instruction: 0x01b80000
    1480:	00021e09 	andeq	r1, r2, r9, lsl #28
    1484:	0002b800 	andeq	fp, r2, r0, lsl #16
    1488:	0002ab0c 	andeq	sl, r2, ip, lsl #22
    148c:	9b031000 	blls	c5494 <__bss_end__+0xba99c>
    1490:	000001e1 	andeq	r0, r0, r1, ror #3
    1494:	000d460b 	andeq	r4, sp, fp, lsl #12
    1498:	889d0300 	ldmhi	sp, {r8, r9}
    149c:	00000000 	andeq	r0, r0, r0
    14a0:	000d5f0b 	andeq	r5, sp, fp, lsl #30
    14a4:	889f0300 	ldmhi	pc, {r8, r9}	; <UNPREDICTABLE>
    14a8:	04000000 	streq	r0, [r0], #-0
    14ac:	0001b50b 	andeq	fp, r1, fp, lsl #10
    14b0:	2ca20300 	stccs	3, cr0, [r2]
    14b4:	08000000 	stmdaeq	r0, {}	; <UNPREDICTABLE>
    14b8:	0003130b 	andeq	r1, r3, fp, lsl #6
    14bc:	2ca40300 	stccs	3, cr0, [r4]
    14c0:	0c000000 	stceq	0, cr0, [r0], {-0}
    14c4:	01e70d00 	mvneq	r0, r0, lsl #26
    14c8:	57030000 	strpl	r0, [r3, -r0]
    14cc:	00000088 	andeq	r0, r0, r8, lsl #1
    14d0:	0001fb03 	andeq	pc, r1, r3, lsl #22
    14d4:	00680e00 	rsbeq	r0, r8, r0, lsl #28
    14d8:	01fb5703 	mvnseq	r5, r3, lsl #14
    14dc:	06000000 	streq	r0, [r0], -r0
    14e0:	00017404 	andeq	r7, r1, r4, lsl #8
    14e4:	029f0d00 	addseq	r0, pc, #0, 26
    14e8:	59030000 	stmdbpl	r3, {}	; <UNPREDICTABLE>
    14ec:	00000088 	andeq	r0, r0, r8, lsl #1
    14f0:	00021b03 	andeq	r1, r2, r3, lsl #22
    14f4:	00680e00 	rsbeq	r0, r8, r0, lsl #28
    14f8:	01fb5903 	mvnseq	r5, r3, lsl #18
    14fc:	0f000000 	svceq	0x00000000
    1500:	0000040e 	andeq	r0, r0, lr, lsl #8
    1504:	00251c01 	eoreq	r1, r5, r1, lsl #24
    1508:	89000000 	stmdbhi	r0, {}	; <UNPREDICTABLE>
    150c:	003c0000 	eorseq	r0, ip, r0
    1510:	9c010000 	stcls	0, cr0, [r1], {-0}
    1514:	00000242 	andeq	r0, r0, r2, asr #4
    1518:	01007010 	tsteq	r0, r0, lsl r0
    151c:	0000881c 	andeq	r8, r0, ip, lsl r8
    1520:	00071b00 	andeq	r1, r7, r0, lsl #22
    1524:	6b0f0000 	blvs	3c152c <__bss_end__+0x3b6a34>
    1528:	01000004 	tsteq	r0, r4
    152c:	0001fb33 	andeq	pc, r1, r3, lsr fp	; <UNPREDICTABLE>
    1530:	00893c00 	addeq	r3, r9, r0, lsl #24
    1534:	00007800 	andeq	r7, r0, r0, lsl #16
    1538:	ad9c0100 	ldfges	f0, [ip]
    153c:	11000002 	tstne	r0, r2
    1540:	00000d52 	andeq	r0, r0, r2, asr sp
    1544:	00683301 	rsbeq	r3, r8, r1, lsl #6
    1548:	076e0000 	strbeq	r0, [lr, -r0]!
    154c:	70120000 	andsvc	r0, r2, r0
    1550:	88340100 	ldmdahi	r4!, {r8}
    1554:	8c000000 	stchi	0, cr0, [r0], {-0}
    1558:	13000007 	movwne	r0, #7
    155c:	000003bb 			; <UNDEFINED> instruction: 0x000003bb
    1560:	01fb3901 	mvnseq	r3, r1, lsl #18
    1564:	07aa0000 	streq	r0, [sl, r0]!
    1568:	48140000 	ldmdami	r4, {}	; <UNPREDICTABLE>
    156c:	1b000089 	blne	1798 <_start-0x6868>
    1570:	9a000002 	bls	1580 <_start-0x6a80>
    1574:	15000002 	strne	r0, [r0, #-2]
    1578:	74025001 	strvc	r5, [r2], #-1
    157c:	54160000 	ldrpl	r0, [r6], #-0
    1580:	e4000089 	str	r0, [r0], #-137	; 0x89
    1584:	1600000c 	strne	r0, [r0], -ip
    1588:	000089a0 	andeq	r8, r0, r0, lsr #19
    158c:	00000cef 	andeq	r0, r0, pc, ror #25
    1590:	04030f00 	streq	r0, [r3], #-3840	; 0xf00
    1594:	7e010000 	cdpvc	0, 0, cr0, cr1, cr0, {0}
    1598:	0000002c 	andeq	r0, r0, ip, lsr #32
    159c:	000089b4 			; <UNDEFINED> instruction: 0x000089b4
    15a0:	00000134 	andeq	r0, r0, r4, lsr r1
    15a4:	04649c01 	strbteq	r9, [r4], #-3073	; 0xc01
    15a8:	8a110000 	bhi	4415b0 <__bss_end__+0x436ab8>
    15ac:	01000003 	tsteq	r0, r3
    15b0:	0000257e 	andeq	r2, r0, lr, ror r5
    15b4:	0007c800 	andeq	ip, r7, r0, lsl #16
    15b8:	04721300 	ldrbteq	r1, [r2], #-768	; 0x300
    15bc:	7f010000 	svcvc	0x00010000
    15c0:	0000002c 	andeq	r0, r0, ip, lsr #32
    15c4:	000007e6 	andeq	r0, r0, r6, ror #15
    15c8:	0003dc13 	andeq	sp, r3, r3, lsl ip
    15cc:	2c7f0100 	ldfcse	f0, [pc], #-0	; 15d4 <_start-0x6a2c>
    15d0:	05000000 	streq	r0, [r0, #-0]
    15d4:	13000008 	movwne	r0, #8
    15d8:	000003d6 	ldrdeq	r0, [r0], -r6
    15dc:	002c7f01 	eoreq	r7, ip, r1, lsl #30
    15e0:	08240000 	stmdaeq	r4!, {}	; <UNPREDICTABLE>
    15e4:	bb130000 	bllt	4c15ec <__bss_end__+0x4b6af4>
    15e8:	01000003 	tsteq	r0, r3
    15ec:	0001fb83 	andeq	pc, r1, r3, lsl #23
    15f0:	00084300 	andeq	r4, r8, r0, lsl #6
    15f4:	89c41400 	stmibhi	r4, {sl, ip}^
    15f8:	0d040000 	stceq	0, cr0, [r4, #-0]
    15fc:	03280000 	teqeq	r8, #0
    1600:	01150000 	tsteq	r5, r0
    1604:	3c030550 	cfstr32cc	mvfx0, [r3], {80}	; 0x50
    1608:	000000a1 	andeq	r0, r0, r1, lsr #1
    160c:	0089cc14 	addeq	ip, r9, r4, lsl ip
    1610:	000d0400 	andeq	r0, sp, r0, lsl #8
    1614:	00033f00 	andeq	r3, r3, r0, lsl #30
    1618:	50011500 	andpl	r1, r1, r0, lsl #10
    161c:	a1780305 	cmnge	r8, r5, lsl #6
    1620:	16000000 	strne	r0, [r0], -r0
    1624:	000089d0 	ldrdeq	r8, [r0], -r0
    1628:	00000ce4 	andeq	r0, r0, r4, ror #25
    162c:	008a1014 	addeq	r1, sl, r4, lsl r0
    1630:	000d0400 	andeq	r0, sp, r0, lsl #8
    1634:	00035c00 	andeq	r5, r3, r0, lsl #24
    1638:	50011500 	andpl	r1, r1, r0, lsl #10
    163c:	00007a02 	andeq	r7, r0, r2, lsl #20
    1640:	008a1c14 	addeq	r1, sl, r4, lsl ip
    1644:	000d0400 	andeq	r0, sp, r0, lsl #8
    1648:	00037700 	andeq	r7, r3, r0, lsl #14
    164c:	51011500 	tstpl	r1, r0, lsl #10
    1650:	01b87403 			; <UNDEFINED> instruction: 0x01b87403
    1654:	02500115 	subseq	r0, r0, #1073741829	; 0x40000005
    1658:	1400007b 	strne	r0, [r0], #-123	; 0x7b
    165c:	00008a44 	andeq	r8, r0, r4, asr #20
    1660:	00000d04 	andeq	r0, r0, r4, lsl #26
    1664:	0000038b 	andeq	r0, r0, fp, lsl #7
    1668:	02500115 	subseq	r0, r0, #1073741829	; 0x40000005
    166c:	1400007a 	strne	r0, [r0], #-122	; 0x7a
    1670:	00008a50 	andeq	r8, r0, r0, asr sl
    1674:	00000d04 	andeq	r0, r0, r4, lsl #26
    1678:	000003a9 	andeq	r0, r0, r9, lsr #7
    167c:	03510115 	cmpeq	r1, #1073741829	; 0x40000005
    1680:	1501b874 	strne	fp, [r1, #-2164]	; 0x874
    1684:	03055001 	movweq	r5, #20481	; 0x5001
    1688:	0000a1b0 			; <UNDEFINED> instruction: 0x0000a1b0
    168c:	8a601400 	bhi	1806694 <__bss_end__+0x17fbb9c>
    1690:	0cef0000 	stcleq	0, cr0, [pc]	; 1698 <_start-0x6968>
    1694:	03bd0000 			; <UNDEFINED> instruction: 0x03bd0000
    1698:	01150000 	tsteq	r5, r0
    169c:	00740250 	rsbseq	r0, r4, r0, asr r2
    16a0:	8a741400 	bhi	1d066a8 <__bss_end__+0x1cfbbb0>
    16a4:	0d040000 	stceq	0, cr0, [r4, #-0]
    16a8:	03d10000 	bicseq	r0, r1, #0
    16ac:	01150000 	tsteq	r5, r0
    16b0:	007a0250 	rsbseq	r0, sl, r0, asr r2
    16b4:	8a801400 	bhi	fe0066bc <__bss_end__+0xfdffbbc4>
    16b8:	0d040000 	stceq	0, cr0, [r4, #-0]
    16bc:	03ee0000 	mvneq	r0, #0
    16c0:	01150000 	tsteq	r5, r0
    16c4:	00750251 	rsbseq	r0, r5, r1, asr r2
    16c8:	05500115 	ldrbeq	r0, [r0, #-277]	; 0x115
    16cc:	00a1e803 	adceq	lr, r1, r3, lsl #16
    16d0:	90140000 	andsls	r0, r4, r0
    16d4:	0400008a 	streq	r0, [r0], #-138	; 0x8a
    16d8:	0200000d 	andeq	r0, r0, #13
    16dc:	15000004 	strne	r0, [r0, #-4]
    16e0:	7a025001 	bvc	956ec <__bss_end__+0x8abf4>
    16e4:	98140000 	ldmdals	r4, {}	; <UNPREDICTABLE>
    16e8:	0400008a 	streq	r0, [r0], #-138	; 0x8a
    16ec:	1900000d 	stmdbne	r0, {r0, r2, r3}
    16f0:	15000004 	strne	r0, [r0, #-4]
    16f4:	03055001 	movweq	r5, #20481	; 0x5001
    16f8:	0000a200 	andeq	sl, r0, r0, lsl #4
    16fc:	8aa41400 	bhi	fe906704 <__bss_end__+0xfe8fbc0c>
    1700:	0d040000 	stceq	0, cr0, [r4, #-0]
    1704:	042d0000 	strteq	r0, [sp], #-0
    1708:	01150000 	tsteq	r5, r0
    170c:	007a0250 	rsbseq	r0, sl, r0, asr r2
    1710:	8ab41400 	bhi	fed06718 <__bss_end__+0xfecfbc20>
    1714:	0d040000 	stceq	0, cr0, [r4, #-0]
    1718:	04500000 	ldrbeq	r0, [r0], #-0
    171c:	01150000 	tsteq	r5, r0
    1720:	00760252 	rsbseq	r0, r6, r2, asr r2
    1724:	02510115 	subseq	r0, r1, #1073741829	; 0x40000005
    1728:	01150077 	tsteq	r5, r7, ror r0
    172c:	20030550 	andcs	r0, r3, r0, asr r5
    1730:	000000a2 	andeq	r0, r0, r2, lsr #1
    1734:	008abc17 	addeq	fp, sl, r7, lsl ip
    1738:	000d0400 	andeq	r0, sp, r0, lsl #8
    173c:	50011500 	andpl	r1, r1, r0, lsl #10
    1740:	a24c0305 	subge	r0, ip, #335544320	; 0x14000000
    1744:	00000000 	andeq	r0, r0, r0
    1748:	0001d818 	andeq	sp, r1, r8, lsl r8
    174c:	e85a0100 	ldmda	sl, {r8}^
    1750:	f800008a 			; <UNDEFINED> instruction: 0xf800008a
    1754:	01000000 	mrseq	r0, (UNDEF: 0)
    1758:	0005a19c 	muleq	r5, ip, r1
    175c:	00701000 	rsbseq	r1, r0, r0
    1760:	05a15a01 	streq	r5, [r1, #2561]!	; 0xa01
    1764:	088d0000 	stmeq	sp, {}	; <UNPREDICTABLE>
    1768:	65100000 	ldrvs	r0, [r0, #-0]
    176c:	a15a0100 	cmpge	sl, r0, lsl #2
    1770:	fe000005 	cdp2	0, 0, cr0, cr0, cr5, {0}
    1774:	19000008 	stmdbne	r0, {r3}
    1778:	0000013b 	andeq	r0, r0, fp, lsr r1
    177c:	000005b7 			; <UNDEFINED> instruction: 0x000005b7
    1780:	a0e80305 	rscge	r0, r8, r5, lsl #6
    1784:	651a0000 	ldrvs	r0, [sl, #-0]
    1788:	0100646e 	tsteq	r0, lr, ror #8
    178c:	00006860 	andeq	r6, r0, r0, ror #16
    1790:	04161300 	ldreq	r1, [r6], #-768	; 0x300
    1794:	61010000 	mrsvs	r0, (UNDEF: 1)
    1798:	000005a1 	andeq	r0, r0, r1, lsr #11
    179c:	0000095e 	andeq	r0, r0, lr, asr r9
    17a0:	0003bb13 	andeq	fp, r3, r3, lsl fp
    17a4:	fb620100 	blx	1881bae <__bss_end__+0x18770b6>
    17a8:	7c000001 	stcvc	0, cr0, [r0], {1}
    17ac:	16000009 	strne	r0, [r0], -r9
    17b0:	00008b00 	andeq	r8, r0, r0, lsl #22
    17b4:	00000d1a 	andeq	r0, r0, sl, lsl sp
    17b8:	008b1414 	addeq	r1, fp, r4, lsl r4
    17bc:	000d0400 	andeq	r0, sp, r0, lsl #8
    17c0:	00050300 	andeq	r0, r5, r0, lsl #6
    17c4:	53011500 	movwpl	r1, #5376	; 0x1500
    17c8:	155b0802 	ldrbne	r0, [fp, #-2050]	; 0x802
    17cc:	03055201 	movweq	r5, #20993	; 0x5201
    17d0:	0000a0e8 	andeq	sl, r0, r8, ror #1
    17d4:	05510115 	ldrbeq	r0, [r1, #-277]	; 0x115
    17d8:	00a29c03 	adceq	r9, r2, r3, lsl #24
    17dc:	50011500 	andpl	r1, r1, r0, lsl #10
    17e0:	a2880305 	addge	r0, r8, #335544320	; 0x14000000
    17e4:	16000000 	strne	r0, [r0], -r0
    17e8:	00008b18 	andeq	r8, r0, r8, lsl fp
    17ec:	00000d21 	andeq	r0, r0, r1, lsr #26
    17f0:	008b2416 	addeq	r2, fp, r6, lsl r4
    17f4:	000d1a00 	andeq	r1, sp, r0, lsl #20
    17f8:	8b381400 	blhi	e06800 <__bss_end__+0xdfbd08>
    17fc:	0d040000 	stceq	0, cr0, [r4, #-0]
    1800:	05440000 	strbeq	r0, [r4, #-0]
    1804:	01150000 	tsteq	r5, r0
    1808:	5d080253 	sfmpl	f0, 4, [r8, #-332]	; 0xfffffeb4
    180c:	05520115 	ldrbeq	r0, [r2, #-277]	; 0x115
    1810:	00a0e803 	adceq	lr, r0, r3, lsl #16
    1814:	51011500 	tstpl	r1, r0, lsl #10
    1818:	a29c0305 	addsge	r0, ip, #335544320	; 0x14000000
    181c:	01150000 	tsteq	r5, r0
    1820:	a4030550 	strge	r0, [r3], #-1360	; 0x550
    1824:	000000a2 	andeq	r0, r0, r2, lsr #1
    1828:	008b3c16 	addeq	r3, fp, r6, lsl ip
    182c:	000d2100 	andeq	r2, sp, r0, lsl #2
    1830:	8b481600 	blhi	1207038 <__bss_end__+0x11fc540>
    1834:	0d1a0000 	ldceq	0, cr0, [sl, #-0]
    1838:	5c140000 	ldcpl	0, cr0, [r4], {-0}
    183c:	0400008b 	streq	r0, [r0], #-139	; 0x8b
    1840:	8500000d 	strhi	r0, [r0, #-13]
    1844:	15000005 	strne	r0, [r0, #-5]
    1848:	08025301 	stmdaeq	r2, {r0, r8, r9, ip, lr}
    184c:	5201155e 	andpl	r1, r1, #394264576	; 0x17800000
    1850:	a0e80305 	rscge	r0, r8, r5, lsl #6
    1854:	01150000 	tsteq	r5, r0
    1858:	9c030551 	cfstr32ls	mvfx0, [r3], {81}	; 0x51
    185c:	150000a2 	strne	r0, [r0, #-162]	; 0xa2
    1860:	03055001 	movweq	r5, #20481	; 0x5001
    1864:	0000a2c4 	andeq	sl, r0, r4, asr #5
    1868:	8b601600 	blhi	1807070 <__bss_end__+0x17fc578>
    186c:	0d210000 	stceq	0, cr0, [r1, #-0]
    1870:	68160000 	ldmdavs	r6, {}	; <UNPREDICTABLE>
    1874:	4200008b 	andmi	r0, r0, #139	; 0x8b
    1878:	16000002 	strne	r0, [r0], -r2
    187c:	00008bb4 			; <UNDEFINED> instruction: 0x00008bb4
    1880:	00000464 	andeq	r0, r0, r4, ror #8
    1884:	68040600 	stmdavs	r4, {r9, sl}
    1888:	1b000000 	blne	1890 <_start-0x6770>
    188c:	0000008a 	andeq	r0, r0, sl, lsl #1
    1890:	000005b7 			; <UNDEFINED> instruction: 0x000005b7
    1894:	0000811c 	andeq	r8, r0, ip, lsl r1
    1898:	07000400 	streq	r0, [r0, -r0, lsl #8]
    189c:	000005a7 	andeq	r0, r0, r7, lsr #11
    18a0:	00046218 	andeq	r6, r4, r8, lsl r2
    18a4:	e0ca0100 	sbc	r0, sl, r0, lsl #2
    18a8:	f400008b 	vst4.32	{d0-d3}, [r0], fp
    18ac:	01000000 	mrseq	r0, (UNDEF: 0)
    18b0:	0007269c 	muleq	r7, ip, r6
    18b4:	00691d00 	rsbeq	r1, r9, r0, lsl #26
    18b8:	01a4d301 			; <UNDEFINED> instruction: 0x01a4d301
    18bc:	91020000 	mrsls	r0, (UNDEF: 2)
    18c0:	04411e68 	strbeq	r1, [r1], #-3688	; 0xe68
    18c4:	dc010000 	stcle	0, cr0, [r1], {-0}
    18c8:	00000726 	andeq	r0, r0, r6, lsr #14
    18cc:	7fa89103 	svcvc	0x00a89103
    18d0:	00013b19 	andeq	r3, r1, r9, lsl fp
    18d4:	00074600 	andeq	r4, r7, r0, lsl #12
    18d8:	f0030500 			; <UNDEFINED> instruction: 0xf0030500
    18dc:	1f0000a0 	svcne	0x000000a0
    18e0:	00000380 	andeq	r0, r0, r0, lsl #7
    18e4:	05a1ec01 	streq	lr, [r1, #3073]!	; 0xc01
    18e8:	00000000 	andeq	r0, r0, r0
    18ec:	e9200800 	stmdb	r0!, {fp}
    18f0:	01000003 	tsteq	r0, r3
    18f4:	000068f0 	strdeq	r6, [r0], -r0
    18f8:	03f72000 	mvnseq	r2, #0
    18fc:	f0010000 			; <UNDEFINED> instruction: 0xf0010000
    1900:	00000068 	andeq	r0, r0, r8, rrx
    1904:	00042d20 	andeq	r2, r4, r0, lsr #26
    1908:	68f30100 	ldmvs	r3!, {r8}^
    190c:	20000000 	andcs	r0, r0, r0
    1910:	00000455 	andeq	r0, r0, r5, asr r4
    1914:	0068f301 	rsbeq	pc, r8, r1, lsl #6
    1918:	e8210000 	stmda	r1!, {}	; <UNPREDICTABLE>
    191c:	2400008b 	strcs	r0, [r0], #-139	; 0x8b
    1920:	63000000 	movwvs	r0, #0
    1924:	12000006 	andne	r0, r0, #6
    1928:	cd010068 	stcgt	0, cr0, [r1, #-416]	; 0xfffffe60
    192c:	000001fb 	strdeq	r0, [r0], -fp
    1930:	0000099a 	muleq	r0, sl, r9
    1934:	008bec16 	addeq	lr, fp, r6, lsl ip
    1938:	000ce400 	andeq	lr, ip, r0, lsl #8
    193c:	8c041600 	stchi	6, cr1, [r4], {-0}
    1940:	0cef0000 	stcleq	0, cr0, [pc]	; 1948 <_start-0x66b8>
    1944:	22000000 	andcs	r0, r0, #0
    1948:	00000018 	andeq	r0, r0, r8, lsl r0
    194c:	0000067a 	andeq	r0, r0, sl, ror r6
    1950:	01006912 	tsteq	r0, r2, lsl r9
    1954:	000025e1 	andeq	r2, r0, r1, ror #11
    1958:	0009b800 	andeq	fp, r9, r0, lsl #16
    195c:	18140000 	ldmdane	r4, {}	; <UNPREDICTABLE>
    1960:	2800008c 	stmdacs	r0, {r2, r3, r7}
    1964:	8e00000d 	cdphi	0, 0, cr0, cr0, cr13, {0}
    1968:	15000006 	strne	r0, [r0, #-6]
    196c:	74025001 	strvc	r5, [r2], #-1
    1970:	30140000 	andscc	r0, r4, r0
    1974:	3300008c 	movwcc	r0, #140	; 0x8c
    1978:	a200000d 	andge	r0, r0, #13
    197c:	15000006 	strne	r0, [r0, #-6]
    1980:	74025001 	strvc	r5, [r2], #-1
    1984:	40160000 	andsmi	r0, r6, r0
    1988:	1a00008c 	bne	1bc0 <_start-0x6440>
    198c:	1400000d 	strne	r0, [r0], #-13
    1990:	00008c54 	andeq	r8, r0, r4, asr ip
    1994:	00000d04 	andeq	r0, r0, r4, lsl #26
    1998:	000006da 	ldrdeq	r0, [r0], -sl
    199c:	02530115 	subseq	r0, r3, #1073741829	; 0x40000005
    19a0:	0115df08 	tsteq	r5, r8, lsl #30
    19a4:	f0030552 			; <UNDEFINED> instruction: 0xf0030552
    19a8:	150000a0 	strne	r0, [r0, #-160]	; 0xa0
    19ac:	03055101 	movweq	r5, #20737	; 0x5101
    19b0:	0000a29c 	muleq	r0, ip, r2
    19b4:	05500115 	ldrbeq	r0, [r0, #-277]	; 0x115
    19b8:	00a2e403 	adceq	lr, r2, r3, lsl #8
    19bc:	58160000 	ldmdapl	r6, {}	; <UNPREDICTABLE>
    19c0:	2100008c 	smlabbcs	r0, ip, r0, r0
    19c4:	1400000d 	strne	r0, [r0], #-13
    19c8:	00008c88 	andeq	r8, r0, r8, lsl #25
    19cc:	00000464 	andeq	r0, r0, r4, ror #8
    19d0:	000006fe 	strdeq	r0, [r0], -lr
    19d4:	02510115 	subseq	r0, r1, #1073741829	; 0x40000005
    19d8:	01155891 			; <UNDEFINED> instruction: 0x01155891
    19dc:	b0910350 	addslt	r0, r1, r0, asr r3
    19e0:	9414007f 	ldrls	r0, [r4], #-127	; 0x7f
    19e4:	6400008c 	strvs	r0, [r0], #-140	; 0x8c
    19e8:	13000004 	movwne	r0, #4
    19ec:	15000007 	strne	r0, [r0, #-7]
    19f0:	40035101 	andmi	r5, r3, r1, lsl #2
    19f4:	16002447 	strne	r2, [r0], -r7, asr #8
    19f8:	00008ca0 	andeq	r8, r0, r0, lsr #25
    19fc:	00000464 	andeq	r0, r0, r4, ror #8
    1a00:	008cac16 	addeq	sl, ip, r6, lsl ip
    1a04:	00046400 	andeq	r6, r4, r0, lsl #8
    1a08:	681b0000 	ldmdavs	fp, {}	; <UNPREDICTABLE>
    1a0c:	36000000 	strcc	r0, [r0], -r0
    1a10:	1c000007 	stcne	0, cr0, [r0], {7}
    1a14:	00000081 	andeq	r0, r0, r1, lsl #1
    1a18:	8a1b000f 	bhi	6c1a5c <__bss_end__+0x6b6f64>
    1a1c:	46000000 	strmi	r0, [r0], -r0
    1a20:	1c000007 	stcne	0, cr0, [r0], {7}
    1a24:	00000081 	andeq	r0, r0, r1, lsl #1
    1a28:	36070008 	strcc	r0, [r7], -r8
    1a2c:	23000007 	movwcs	r0, #7
    1a30:	000003cb 	andeq	r0, r0, fp, asr #7
    1a34:	2c012d01 	stccs	13, cr2, [r1], {1}
    1a38:	d4000000 	strle	r0, [r0], #-0
    1a3c:	2000008c 	andcs	r0, r0, ip, lsl #1
    1a40:	01000001 	tsteq	r0, r1
    1a44:	0009189c 	muleq	r9, ip, r8
    1a48:	04722400 	ldrbteq	r2, [r2], #-1024	; 0x400
    1a4c:	2e010000 	cdpcs	0, 0, cr0, cr1, cr0, {0}
    1a50:	00002c01 	andeq	r2, r0, r1, lsl #24
    1a54:	0009d600 	andeq	sp, r9, r0, lsl #12
    1a58:	04462400 	strbeq	r2, [r6], #-1024	; 0x400
    1a5c:	2e010000 	cdpcs	0, 0, cr0, cr1, cr0, {0}
    1a60:	00002c01 	andeq	r2, r0, r1, lsl #24
    1a64:	0009f500 	andeq	pc, r9, r0, lsl #10
    1a68:	01b52400 			; <UNDEFINED> instruction: 0x01b52400
    1a6c:	2e010000 	cdpcs	0, 0, cr0, cr1, cr0, {0}
    1a70:	00002c01 	andeq	r2, r0, r1, lsl #24
    1a74:	000a1400 	andeq	r1, sl, r0, lsl #8
    1a78:	03bb2400 			; <UNDEFINED> instruction: 0x03bb2400
    1a7c:	32010000 	andcc	r0, r1, #0
    1a80:	0001fb01 	andeq	pc, r1, r1, lsl #22
    1a84:	000a3e00 	andeq	r3, sl, r0, lsl #28
    1a88:	013b1900 	teqeq	fp, r0, lsl #18
    1a8c:	09280000 	stmdbeq	r8!, {}	; <UNPREDICTABLE>
    1a90:	03050000 	movweq	r0, #20480	; 0x5000
    1a94:	0000a0fc 	strdeq	sl, [r0], -ip
    1a98:	0002b025 	andeq	fp, r2, r5, lsr #32
    1a9c:	01480100 	mrseq	r0, (UNDEF: 88)
    1aa0:	000001a4 	andeq	r0, r0, r4, lsr #3
    1aa4:	22489102 	subcs	r9, r8, #-2147483648	; 0x80000000
    1aa8:	00000030 	andeq	r0, r0, r0, lsr r0
    1aac:	0000082f 	andeq	r0, r0, pc, lsr #16
    1ab0:	72747026 	rsbsvc	r7, r4, #38	; 0x26
    1ab4:	01380100 	teqeq	r8, r0, lsl #2
    1ab8:	00000088 	andeq	r0, r0, r8, lsl #1
    1abc:	40145701 	andsmi	r5, r4, r1, lsl #14
    1ac0:	0400008d 	streq	r0, [r0], #-141	; 0x8d
    1ac4:	ee00000d 	cdp	0, 0, cr0, cr0, cr13, {0}
    1ac8:	15000007 	strne	r0, [r0, #-7]
    1acc:	7b025001 	blvc	95ad8 <__bss_end__+0x8afe0>
    1ad0:	4c140000 	ldcmi	0, cr0, [r4], {-0}
    1ad4:	0400008d 	streq	r0, [r0], #-141	; 0x8d
    1ad8:	0800000d 	stmdaeq	r0, {r0, r2, r3}
    1adc:	15000008 	strne	r0, [r0, #-8]
    1ae0:	77025101 	strvc	r5, [r2, -r1, lsl #2]
    1ae4:	50011500 	andpl	r1, r1, r0, lsl #10
    1ae8:	00007a02 	andeq	r7, r0, r2, lsl #20
    1aec:	008d6017 	addeq	r6, sp, r7, lsl r0
    1af0:	000d4500 	andeq	r4, sp, r0, lsl #10
    1af4:	53011500 	movwpl	r1, #5376	; 0x1500
    1af8:	013a0a03 	teqeq	sl, r3, lsl #20
    1afc:	05520115 	ldrbeq	r0, [r2, #-277]	; 0x115
    1b00:	00a0fc03 	adceq	pc, r0, r3, lsl #24
    1b04:	51011500 	tstpl	r1, r0, lsl #10
    1b08:	15007902 	strne	r7, [r0, #-2306]	; 0x902
    1b0c:	77025001 	strvc	r5, [r2, -r1]
    1b10:	14000000 	strne	r0, [r0], #-0
    1b14:	00008ce4 	andeq	r8, r0, r4, ror #25
    1b18:	00000d04 	andeq	r0, r0, r4, lsl #26
    1b1c:	00000846 	andeq	r0, r0, r6, asr #16
    1b20:	05500115 	ldrbeq	r0, [r0, #-277]	; 0x115
    1b24:	00a13c03 	adceq	r3, r1, r3, lsl #24
    1b28:	ec140000 	ldc	0, cr0, [r4], {-0}
    1b2c:	0400008c 	streq	r0, [r0], #-140	; 0x8c
    1b30:	5d00000d 	stcpl	0, cr0, [r0, #-52]	; 0xffffffcc
    1b34:	15000008 	strne	r0, [r0, #-8]
    1b38:	03055001 	movweq	r5, #20481	; 0x5001
    1b3c:	0000a314 	andeq	sl, r0, r4, lsl r3
    1b40:	8cf01600 	ldclhi	6, cr1, [r0]
    1b44:	0ce40000 	stcleq	0, cr0, [r4]
    1b48:	6c140000 	ldcvs	0, cr0, [r4], {-0}
    1b4c:	ef00008d 	svc	0x0000008d
    1b50:	7a00000c 	bvc	1b88 <_start-0x6478>
    1b54:	15000008 	strne	r0, [r0, #-8]
    1b58:	74025001 	strvc	r5, [r2], #-1
    1b5c:	84140000 	ldrhi	r0, [r4], #-0
    1b60:	0400008d 	streq	r0, [r0], #-141	; 0x8d
    1b64:	8e00000d 	cdphi	0, 0, cr0, cr0, cr13, {0}
    1b68:	15000008 	strne	r0, [r0, #-8]
    1b6c:	74025001 	strvc	r5, [r2], #-1
    1b70:	98140000 	ldmdals	r4, {}	; <UNPREDICTABLE>
    1b74:	0400008d 	streq	r0, [r0], #-141	; 0x8d
    1b78:	b700000d 	strlt	r0, [r0, -sp]
    1b7c:	15000008 	strne	r0, [r0, #-8]
    1b80:	76025301 	strvc	r5, [r2], -r1, lsl #6
    1b84:	52011500 	andpl	r1, r1, #0, 10
    1b88:	15007802 	strne	r7, [r0, #-2050]	; 0x802
    1b8c:	75025101 	strvc	r5, [r2, #-257]	; 0x101
    1b90:	50011500 	andpl	r1, r1, r0, lsl #10
    1b94:	a3380305 	teqge	r8, #335544320	; 0x14000000
    1b98:	14000000 	strne	r0, [r0], #-0
    1b9c:	00008da0 	andeq	r8, r0, r0, lsr #27
    1ba0:	00000d28 	andeq	r0, r0, r8, lsr #26
    1ba4:	000008cb 	andeq	r0, r0, fp, asr #17
    1ba8:	02500115 	subseq	r0, r0, #1073741829	; 0x40000005
    1bac:	1400007d 	strne	r0, [r0], #-125	; 0x7d
    1bb0:	00008da8 	andeq	r8, r0, r8, lsr #27
    1bb4:	00000d04 	andeq	r0, r0, r4, lsl #26
    1bb8:	000008df 	ldrdeq	r0, [r0], -pc	; <UNPREDICTABLE>
    1bbc:	02500115 	subseq	r0, r0, #1073741829	; 0x40000005
    1bc0:	14000074 	strne	r0, [r0], #-116	; 0x74
    1bc4:	00008db8 			; <UNDEFINED> instruction: 0x00008db8
    1bc8:	00000d04 	andeq	r0, r0, r4, lsl #26
    1bcc:	00000904 	andeq	r0, r0, r4, lsl #18
    1bd0:	03520115 	cmpeq	r2, #1073741829	; 0x40000005
    1bd4:	15064891 	strne	r4, [r6, #-2193]	; 0x891
    1bd8:	91035101 	tstls	r3, r1, lsl #2
    1bdc:	0115064c 	tsteq	r5, ip, asr #12
    1be0:	64030550 	strvs	r0, [r3], #-1360	; 0x550
    1be4:	000000a3 	andeq	r0, r0, r3, lsr #1
    1be8:	008dc017 	addeq	ip, sp, r7, lsl r0
    1bec:	000d0400 	andeq	r0, sp, r0, lsl #8
    1bf0:	50011500 	andpl	r1, r1, r0, lsl #10
    1bf4:	a24c0305 	subge	r0, ip, #335544320	; 0x14000000
    1bf8:	00000000 	andeq	r0, r0, r0
    1bfc:	00008a1b 	andeq	r8, r0, fp, lsl sl
    1c00:	00092800 	andeq	r2, r9, r0, lsl #16
    1c04:	00811c00 	addeq	r1, r1, r0, lsl #24
    1c08:	000a0000 	andeq	r0, sl, r0
    1c0c:	00091807 	andeq	r1, r9, r7, lsl #16
    1c10:	00b62700 	adcseq	r2, r6, r0, lsl #14
    1c14:	fd010000 	stc2	0, cr0, [r1, #-0]
    1c18:	0000002c 	andeq	r0, r0, ip, lsr #32
    1c1c:	00008df4 	strdeq	r8, [r0], -r4
    1c20:	00000018 	andeq	r0, r0, r8, lsl r0
    1c24:	096f9c01 	stmdbeq	pc!, {r0, sl, fp, ip, pc}^	; <UNPREDICTABLE>
    1c28:	8a110000 	bhi	441c30 <__bss_end__+0x437138>
    1c2c:	01000003 	tsteq	r0, r3
    1c30:	000025fd 	strdeq	r2, [r0], -sp
    1c34:	000a6700 	andeq	r6, sl, r0, lsl #14
    1c38:	8e001600 	cfmadd32hi	mvax0, mvfx1, mvfx0, mvfx0
    1c3c:	05bc0000 	ldreq	r0, [ip, #0]!
    1c40:	08170000 	ldmdaeq	r7, {}	; <UNPREDICTABLE>
    1c44:	ad00008e 	stcge	0, cr0, [r0, #-568]	; 0xfffffdc8
    1c48:	15000002 	strne	r0, [r0, #-2]
    1c4c:	74025001 	strvc	r5, [r2], #-1
    1c50:	28000000 	stmdacs	r0, {}	; <UNPREDICTABLE>
    1c54:	000003ad 	andeq	r0, r0, sp, lsr #7
    1c58:	0c010301 	stceq	3, cr0, [r1], {1}
    1c5c:	a000008e 	andge	r0, r0, lr, lsl #1
    1c60:	01000000 	mrseq	r0, (UNDEF: 0)
    1c64:	000a8d9c 	muleq	sl, ip, sp
    1c68:	013b1900 	teqeq	fp, r0, lsl #18
    1c6c:	0a9d0000 	beq	fe741c74 <__bss_end__+0xfe73717c>
    1c70:	03050000 	movweq	r0, #20480	; 0x5000
    1c74:	0000a108 	andeq	sl, r0, r8, lsl #2
    1c78:	008e1416 	addeq	r1, lr, r6, lsl r4
    1c7c:	000d6500 	andeq	r6, sp, r0, lsl #10
    1c80:	8e201600 	cfmadda32hi	mvax0, mvax1, mvfx0, mvfx0
    1c84:	0d1a0000 	ldceq	0, cr0, [sl, #-0]
    1c88:	34140000 	ldrcc	r0, [r4], #-0
    1c8c:	0400008e 	streq	r0, [r0], #-142	; 0x8e
    1c90:	d600000d 	strle	r0, [r0], -sp
    1c94:	15000009 	strne	r0, [r0, #-9]
    1c98:	0a035301 	beq	d68a4 <__bss_end__+0xcbdac>
    1c9c:	01150109 	tsteq	r5, r9, lsl #2
    1ca0:	08030552 	stmdaeq	r3, {r1, r4, r6, r8, sl}
    1ca4:	150000a1 	strne	r0, [r0, #-161]	; 0xa1
    1ca8:	03055101 	movweq	r5, #20737	; 0x5101
    1cac:	0000a29c 	muleq	r0, ip, r2
    1cb0:	05500115 	ldrbeq	r0, [r0, #-277]	; 0x115
    1cb4:	00a39803 	adceq	r9, r3, r3, lsl #16
    1cb8:	38160000 	ldmdacc	r6, {}	; <UNPREDICTABLE>
    1cbc:	2100008e 	smlabbcs	r0, lr, r0, r0
    1cc0:	1400000d 	strne	r0, [r0], #-13
    1cc4:	00008e40 	andeq	r8, r0, r0, asr #28
    1cc8:	00000d04 	andeq	r0, r0, r4, lsl #26
    1ccc:	000009f6 	strdeq	r0, [r0], -r6
    1cd0:	05500115 	ldrbeq	r0, [r0, #-277]	; 0x115
    1cd4:	009c9403 	addseq	r9, ip, r3, lsl #8
    1cd8:	48140000 	ldmdami	r4, {}	; <UNPREDICTABLE>
    1cdc:	0400008e 	streq	r0, [r0], #-142	; 0x8e
    1ce0:	0d00000d 	stceq	0, cr0, [r0, #-52]	; 0xffffffcc
    1ce4:	1500000a 	strne	r0, [r0, #-10]
    1ce8:	03055001 	movweq	r5, #20481	; 0x5001
    1cec:	0000a3c0 	andeq	sl, r0, r0, asr #7
    1cf0:	8e501400 	cdphi	4, 5, cr1, cr0, cr0, {0}
    1cf4:	092d0000 	pusheq	{}	; <UNPREDICTABLE>
    1cf8:	0a200000 	beq	801d00 <__bss_end__+0x7f7208>
    1cfc:	01150000 	tsteq	r5, r0
    1d00:	00310150 	eorseq	r0, r1, r0, asr r1
    1d04:	008e5c16 	addeq	r5, lr, r6, lsl ip
    1d08:	000d1a00 	andeq	r1, sp, r0, lsl #20
    1d0c:	8e701400 	cdphi	4, 7, cr1, cr0, cr0, {0}
    1d10:	0d040000 	stceq	0, cr0, [r4, #-0]
    1d14:	0a590000 	beq	1641d1c <__bss_end__+0x1637224>
    1d18:	01150000 	tsteq	r5, r0
    1d1c:	0d0a0353 	stceq	3, cr0, [sl, #-332]	; 0xfffffeb4
    1d20:	52011501 	andpl	r1, r1, #4194304	; 0x400000
    1d24:	a1080305 	tstge	r8, r5, lsl #6
    1d28:	01150000 	tsteq	r5, r0
    1d2c:	9c030551 	cfstr32ls	mvfx0, [r3], {81}	; 0x51
    1d30:	150000a2 	strne	r0, [r0, #-162]	; 0xa2
    1d34:	03055001 	movweq	r5, #20481	; 0x5001
    1d38:	0000a3e0 	andeq	sl, r0, r0, ror #7
    1d3c:	8e741600 	cdphi	6, 7, cr1, cr4, cr0, {0}
    1d40:	0d210000 	stceq	0, cr0, [r1, #-0]
    1d44:	7c140000 	ldcvc	0, cr0, [r4], {-0}
    1d48:	0400008e 	streq	r0, [r0], #-142	; 0x8e
    1d4c:	7900000d 	stmdbvc	r0, {r0, r2, r3}
    1d50:	1500000a 	strne	r0, [r0, #-10]
    1d54:	03055001 	movweq	r5, #20481	; 0x5001
    1d58:	00009c94 	muleq	r0, r4, ip
    1d5c:	8e841700 	cdphi	7, 8, cr1, cr4, cr0, {0}
    1d60:	0d040000 	stceq	0, cr0, [r4, #-0]
    1d64:	01150000 	tsteq	r5, r0
    1d68:	0c030550 	cfstr32eq	mvfx0, [r3], {80}	; 0x50
    1d6c:	000000a4 	andeq	r0, r0, r4, lsr #1
    1d70:	008a1b00 	addeq	r1, sl, r0, lsl #22
    1d74:	0a9d0000 	beq	fe741d7c <__bss_end__+0xfe737284>
    1d78:	811c0000 	tsthi	ip, r0
    1d7c:	0d000000 	stceq	0, cr0, [r0, #-0]
    1d80:	0a8d0700 	beq	fe343988 <__bss_end__+0xfe338e90>
    1d84:	1b290000 	blne	a41d8c <__bss_end__+0xa37294>
    1d88:	01000004 	tsteq	r0, r4
    1d8c:	002c0114 	eoreq	r0, ip, r4, lsl r1
    1d90:	8eac0000 	cdphi	0, 10, cr0, cr12, cr0, {0}
    1d94:	00a40000 	adceq	r0, r4, r0
    1d98:	9c010000 	stcls	0, cr0, [r1], {-0}
    1d9c:	00000bda 	ldrdeq	r0, [r0], -sl
    1da0:	00013b19 	andeq	r3, r1, r9, lsl fp
    1da4:	000bea00 	andeq	lr, fp, r0, lsl #20
    1da8:	18030500 	stmdane	r3, {r8, sl}
    1dac:	240000a1 	strcs	r0, [r0], #-161	; 0xa1
    1db0:	000003c4 	andeq	r0, r0, r4, asr #7
    1db4:	2c011e01 	stccs	14, cr1, [r1], {1}
    1db8:	85000000 	strhi	r0, [r0, #-0]
    1dbc:	1600000a 	strne	r0, [r0], -sl
    1dc0:	00008eb4 			; <UNDEFINED> instruction: 0x00008eb4
    1dc4:	00000d65 	andeq	r0, r0, r5, ror #26
    1dc8:	008ec016 	addeq	ip, lr, r6, lsl r0
    1dcc:	000d1a00 	andeq	r1, sp, r0, lsl #20
    1dd0:	8ed41400 	cdphi	4, 13, cr1, cr4, cr0, {0}
    1dd4:	0d040000 	stceq	0, cr0, [r4, #-0]
    1dd8:	0b1d0000 	bleq	741de0 <__bss_end__+0x7372e8>
    1ddc:	01150000 	tsteq	r5, r0
    1de0:	1a0a0353 	bne	282b34 <__bss_end__+0x27803c>
    1de4:	52011501 	andpl	r1, r1, #4194304	; 0x400000
    1de8:	a1180305 	tstge	r8, r5, lsl #6
    1dec:	01150000 	tsteq	r5, r0
    1df0:	9c030551 	cfstr32ls	mvfx0, [r3], {81}	; 0x51
    1df4:	150000a2 	strne	r0, [r0, #-162]	; 0xa2
    1df8:	03055001 	movweq	r5, #20481	; 0x5001
    1dfc:	0000a398 	muleq	r0, r8, r3
    1e00:	8ed81600 	cdphi	6, 13, cr1, cr8, cr0, {0}
    1e04:	0d210000 	stceq	0, cr0, [r1, #-0]
    1e08:	e0140000 	ands	r0, r4, r0
    1e0c:	0400008e 	streq	r0, [r0], #-142	; 0x8e
    1e10:	3d00000d 	stccc	0, cr0, [r0, #-52]	; 0xffffffcc
    1e14:	1500000b 	strne	r0, [r0, #-11]
    1e18:	03055001 	movweq	r5, #20481	; 0x5001
    1e1c:	00009c94 	muleq	r0, r4, ip
    1e20:	8ee81400 	cdphi	4, 14, cr1, cr8, cr0, {0}
    1e24:	0d040000 	stceq	0, cr0, [r4, #-0]
    1e28:	0b540000 	bleq	1501e30 <__bss_end__+0x14f7338>
    1e2c:	01150000 	tsteq	r5, r0
    1e30:	c0030550 	andgt	r0, r3, r0, asr r5
    1e34:	000000a3 	andeq	r0, r0, r3, lsr #1
    1e38:	008ef014 	addeq	pc, lr, r4, lsl r0	; <UNPREDICTABLE>
    1e3c:	00092d00 	andeq	r2, r9, r0, lsl #26
    1e40:	000b6700 	andeq	r6, fp, r0, lsl #14
    1e44:	50011500 	andpl	r1, r1, r0, lsl #10
    1e48:	16003101 	strne	r3, [r0], -r1, lsl #2
    1e4c:	00008efc 	strdeq	r8, [r0], -ip
    1e50:	00000d1a 	andeq	r0, r0, sl, lsl sp
    1e54:	008f1014 	addeq	r1, pc, r4, lsl r0	; <UNPREDICTABLE>
    1e58:	000d0400 	andeq	r0, sp, r0, lsl #8
    1e5c:	000ba000 	andeq	sl, fp, r0
    1e60:	53011500 	movwpl	r1, #5376	; 0x1500
    1e64:	01200a03 	teqeq	r0, r3, lsl #20
    1e68:	05520115 	ldrbeq	r0, [r2, #-277]	; 0x115
    1e6c:	00a11803 	adceq	r1, r1, r3, lsl #16
    1e70:	51011500 	tstpl	r1, r0, lsl #10
    1e74:	a29c0305 	addsge	r0, ip, #335544320	; 0x14000000
    1e78:	01150000 	tsteq	r5, r0
    1e7c:	24030550 	strcs	r0, [r3], #-1360	; 0x550
    1e80:	000000a4 	andeq	r0, r0, r4, lsr #1
    1e84:	008f1416 	addeq	r1, pc, r6, lsl r4	; <UNPREDICTABLE>
    1e88:	000d2100 	andeq	r2, sp, r0, lsl #2
    1e8c:	8f1c1400 	svchi	0x001c1400
    1e90:	0d040000 	stceq	0, cr0, [r4, #-0]
    1e94:	0bc00000 	bleq	ff001e9c <__bss_end__+0xfeff73a4>
    1e98:	01150000 	tsteq	r5, r0
    1e9c:	94030550 	strls	r0, [r3], #-1360	; 0x550
    1ea0:	0000009c 	muleq	r0, ip, r0
    1ea4:	008f2817 	addeq	r2, pc, r7, lsl r8	; <UNPREDICTABLE>
    1ea8:	000d0400 	andeq	r0, sp, r0, lsl #8
    1eac:	51011500 	tstpl	r1, r0, lsl #10
    1eb0:	15007402 	strne	r7, [r0, #-1026]	; 0x402
    1eb4:	03055001 	movweq	r5, #20481	; 0x5001
    1eb8:	0000a44c 	andeq	sl, r0, ip, asr #8
    1ebc:	8a1b0000 	bhi	6c1ec4 <__bss_end__+0x6b73cc>
    1ec0:	ea000000 	b	1ec8 <_start-0x6138>
    1ec4:	1c00000b 	stcne	0, cr0, [r0], {11}
    1ec8:	00000081 	andeq	r0, r0, r1, lsl #1
    1ecc:	da070011 	ble	1c1f18 <__bss_end__+0x1b7420>
    1ed0:	2800000b 	stmdacs	r0, {r0, r1, r3}
    1ed4:	0000039e 	muleq	r0, lr, r3
    1ed8:	50012701 	andpl	r2, r1, r1, lsl #14
    1edc:	2c00008f 	stccs	0, cr0, [r0], {143}	; 0x8f
    1ee0:	01000000 	mrseq	r0, (UNDEF: 0)
    1ee4:	000c579c 	muleq	ip, ip, r7
    1ee8:	013b1900 	teqeq	fp, r0, lsl #18
    1eec:	0c670000 	stcleq	0, cr0, [r7], #-0
    1ef0:	03050000 	movweq	r0, #20480	; 0x5000
    1ef4:	0000a12c 	andeq	sl, r0, ip, lsr #2
    1ef8:	008f5816 	addeq	r5, pc, r6, lsl r8	; <UNPREDICTABLE>
    1efc:	000d1a00 	andeq	r1, sp, r0, lsl #20
    1f00:	8f6c1400 	svchi	0x006c1400
    1f04:	0d040000 	stceq	0, cr0, [r4, #-0]
    1f08:	0c4d0000 	mareq	acc0, r0, sp
    1f0c:	01150000 	tsteq	r5, r0
    1f10:	280a0353 	stmdacs	sl, {r0, r1, r4, r6, r8, r9}
    1f14:	52011501 	andpl	r1, r1, #4194304	; 0x400000
    1f18:	a12c0305 	teqge	ip, r5, lsl #6
    1f1c:	01150000 	tsteq	r5, r0
    1f20:	9c030551 	cfstr32ls	mvfx0, [r3], {81}	; 0x51
    1f24:	150000a2 	strne	r0, [r0, #-162]	; 0xa2
    1f28:	03055001 	movweq	r5, #20481	; 0x5001
    1f2c:	0000a46c 	andeq	sl, r0, ip, ror #8
    1f30:	8f701600 	svchi	0x00701600
    1f34:	0d210000 	stceq	0, cr0, [r1, #-0]
    1f38:	1b000000 	blne	1f40 <_start-0x60c0>
    1f3c:	0000008a 	andeq	r0, r0, sl, lsl #1
    1f40:	00000c67 	andeq	r0, r0, r7, ror #24
    1f44:	0000811c 	andeq	r8, r0, ip, lsl r1
    1f48:	07000e00 	streq	r0, [r0, -r0, lsl #28]
    1f4c:	00000c57 	andeq	r0, r0, r7, asr ip
    1f50:	0003e329 	andeq	lr, r3, r9, lsr #6
    1f54:	014f0100 	mrseq	r0, (UNDEF: 95)
    1f58:	0000002c 	andeq	r0, r0, ip, lsr #32
    1f5c:	00008f7c 	andeq	r8, r0, ip, ror pc
    1f60:	00000010 	andeq	r0, r0, r0, lsl r0
    1f64:	0ca79c01 	stceq	12, cr9, [r7], #4
    1f68:	3b250000 	blcc	941f70 <__bss_end__+0x937478>
    1f6c:	01000003 	tsteq	r0, r3
    1f70:	002c0151 	eoreq	r0, ip, r1, asr r1
    1f74:	50010000 	andpl	r0, r1, r0
    1f78:	008f8416 	addeq	r8, pc, r6, lsl r4	; <UNPREDICTABLE>
    1f7c:	0005bc00 	andeq	fp, r5, r0, lsl #24
    1f80:	8f881600 	svchi	0x00881600
    1f84:	074b0000 	strbeq	r0, [fp, -r0]
    1f88:	1e000000 	cdpne	0, 0, cr0, cr0, cr0, {0}
    1f8c:	000002b0 			; <UNDEFINED> instruction: 0x000002b0
    1f90:	01a41401 			; <UNDEFINED> instruction: 0x01a41401
    1f94:	03050000 	movweq	r0, #20480	; 0x5000
    1f98:	0000a6e8 	andeq	sl, r0, r8, ror #13
    1f9c:	0003e920 	andeq	lr, r3, r0, lsr #18
    1fa0:	68f00100 	ldmvs	r0!, {r8}^
    1fa4:	20000000 	andcs	r0, r0, r0
    1fa8:	000003f7 	strdeq	r0, [r0], -r7
    1fac:	0068f001 	rsbeq	pc, r8, r1
    1fb0:	2d200000 	stccs	0, cr0, [r0, #-0]
    1fb4:	01000004 	tsteq	r0, r4
    1fb8:	000068f3 	strdeq	r6, [r0], -r3
    1fbc:	04552000 	ldrbeq	r2, [r5], #-0
    1fc0:	f3010000 	vhadd.u8	d0, d1, d0
    1fc4:	00000068 	andeq	r0, r0, r8, rrx
    1fc8:	0001c22a 	andeq	ip, r1, sl, lsr #4
    1fcc:	fb940300 	blx	fe502bd6 <__bss_end__+0xfe4f80de>
    1fd0:	2b000001 	blcs	1fdc <_start-0x6024>
    1fd4:	00000257 	andeq	r0, r0, r7, asr r2
    1fd8:	01fb9603 	mvnseq	r9, r3, lsl #12
    1fdc:	0d040000 	stceq	0, cr0, [r4, #-0]
    1fe0:	fb2c0000 	blx	b01fea <__bss_end__+0xaf74f2>
    1fe4:	00000001 	andeq	r0, r0, r1
    1fe8:	0004fa2b 	andeq	pc, r4, fp, lsr #20
    1fec:	25290400 	strcs	r0, [r9, #-1024]!	; 0x400
    1ff0:	1a000000 	bne	1ff8 <_start-0x6008>
    1ff4:	2c00000d 	stccs	0, cr0, [r0], {13}
    1ff8:	00000091 	muleq	r0, r1, r0
    1ffc:	172e002d 	strne	r0, [lr, -sp, lsr #32]!
    2000:	04000001 	streq	r0, [r0], #-1
    2004:	00ef2e1e 	rsceq	r2, pc, lr, lsl lr	; <UNPREDICTABLE>
    2008:	65040000 	strvs	r0, [r4, #-0]
    200c:	0002ab2a 	andeq	sl, r2, sl, lsr #22
    2010:	a4a70300 	strtge	r0, [r7], #768	; 0x300
    2014:	2f000001 	svccs	0x00000001
    2018:	0000043c 	andeq	r0, r0, ip, lsr r4
    201c:	0d45c701 	stcleq	7, cr12, [r5, #-4]
    2020:	a12c0000 	teqge	ip, r0
    2024:	2d000005 	stccs	0, cr0, [r0, #-20]	; 0xffffffec
    2028:	02452f00 	subeq	r2, r5, #0, 30
    202c:	12050000 	andne	r0, r5, #0
    2030:	00000d65 	andeq	r0, r0, r5, ror #26
    2034:	0000882c 	andeq	r8, r0, ip, lsr #16
    2038:	00912c00 	addseq	r2, r1, r0, lsl #24
    203c:	912c0000 	teqls	ip, r0
    2040:	2c000000 	stccs	0, cr0, [r0], {-0}
    2044:	0000002c 	andeq	r0, r0, ip, lsr #32
    2048:	00cc2a00 	sbceq	r2, ip, r0, lsl #20
    204c:	1e050000 	cdpne	0, 0, cr0, cr5, cr0, {0}
    2050:	00000025 	andeq	r0, r0, r5, lsr #32
    2054:	00011200 	andeq	r1, r1, r0, lsl #4
    2058:	77000400 	strvc	r0, [r0, -r0, lsl #8]
    205c:	04000006 	streq	r0, [r0], #-6
    2060:	00000701 	andeq	r0, r0, r1, lsl #14
    2064:	047a0100 	ldrbteq	r0, [sl], #-256	; 0x100
    2068:	04860000 	streq	r0, [r6], #0
    206c:	8f940000 	svchi	0x00940000
    2070:	00f00000 	rscseq	r0, r0, r0
    2074:	06490000 	strbeq	r0, [r9], -r0
    2078:	04020000 	streq	r0, [r2], #-0
    207c:	746e6905 	strbtvc	r6, [lr], #-2309	; 0x905
    2080:	07040300 	streq	r0, [r4, -r0, lsl #6]
    2084:	0000015a 	andeq	r0, r0, sl, asr r1
    2088:	28060103 	stmdacs	r6, {r0, r1, r8}
    208c:	03000001 	movweq	r0, #1
    2090:	017e0502 	cmneq	lr, r2, lsl #10
    2094:	04030000 	streq	r0, [r3], #-0
    2098:	00017505 	andeq	r7, r1, r5, lsl #10
    209c:	05080300 	streq	r0, [r8, #-768]	; 0x300
    20a0:	00000170 	andeq	r0, r0, r0, ror r1
    20a4:	00034204 	andeq	r4, r3, r4, lsl #4
    20a8:	5a2e0200 	bpl	b828b0 <__bss_end__+0xb77db8>
    20ac:	03000000 	movweq	r0, #0
    20b0:	01260801 	teqeq	r6, r1, lsl #16
    20b4:	02030000 	andeq	r0, r3, #0
    20b8:	0000fc07 	andeq	pc, r0, r7, lsl #24
    20bc:	01880400 	orreq	r0, r8, r0, lsl #8
    20c0:	34020000 	strcc	r0, [r2], #-0
    20c4:	00000073 	andeq	r0, r0, r3, ror r0
    20c8:	55070403 	strpl	r0, [r7, #-1027]	; 0x403
    20cc:	03000001 	movweq	r0, #1
    20d0:	01500708 	cmpeq	r0, r8, lsl #14
    20d4:	04030000 	streq	r0, [r3], #-0
    20d8:	00016707 	andeq	r6, r1, r7, lsl #14
    20dc:	08010300 	stmdaeq	r1, {r8, r9}
    20e0:	0000012f 	andeq	r0, r0, pc, lsr #2
    20e4:	00950405 	addseq	r0, r5, r5, lsl #8
    20e8:	88060000 	stmdahi	r6, {}	; <UNPREDICTABLE>
    20ec:	07000000 	streq	r0, [r0, -r0]
    20f0:	000001dd 	ldrdeq	r0, [r0], -sp
    20f4:	00680f01 	rsbeq	r0, r8, r1, lsl #30
    20f8:	8f940000 	svchi	0x00940000
    20fc:	00f00000 	rscseq	r0, r0, r0
    2100:	9c010000 	stcls	0, cr0, [r1], {-0}
    2104:	0000010e 	andeq	r0, r0, lr, lsl #2
    2108:	00025108 	andeq	r5, r2, r8, lsl #2
    210c:	0e0f0100 	adfeqe	f0, f7, f0
    2110:	b9000001 	stmdblt	r0, {r0}
    2114:	0900000a 	stmdbeq	r0, {r1, r3}
    2118:	006e656c 	rsbeq	r6, lr, ip, ror #10
    211c:	00250f01 	eoreq	r0, r5, r1, lsl #30
    2120:	0af30000 	beq	ffcc2128 <__bss_end__+0xffcb7630>
    2124:	520a0000 	andpl	r0, sl, #0
    2128:	01000002 	tsteq	r0, r2
    212c:	00008f10 	andeq	r8, r0, r0, lsl pc
    2130:	000b3200 	andeq	r3, fp, r0, lsl #4
    2134:	01e20a00 	mvneq	r0, r0, lsl #20
    2138:	11010000 	mrsne	r0, (UNDEF: 1)
    213c:	00000068 	andeq	r0, r0, r8, rrx
    2140:	00000b71 	andeq	r0, r0, r1, ror fp
    2144:	706d740b 	rsbvc	r7, sp, fp, lsl #8
    2148:	68110100 	ldmdavs	r1, {r8}
    214c:	bb000000 	bllt	2154 <_start-0x5eac>
    2150:	0b00000b 	bleq	2184 <_start-0x5e7c>
    2154:	006d6572 	rsbeq	r6, sp, r2, ror r5
    2158:	00251201 	eoreq	r1, r5, r1, lsl #4
    215c:	0c060000 	stceq	0, cr0, [r6], {-0}
    2160:	05000000 	streq	r0, [r0, #-0]
    2164:	00011404 	andeq	r1, r1, r4, lsl #8
    2168:	db000c00 	blle	5170 <_start-0x2e90>
    216c:	04000000 	streq	r0, [r0], #-0
    2170:	00071b00 	andeq	r1, r7, r0, lsl #22
    2174:	07010400 	streq	r0, [r1, -r0, lsl #8]
    2178:	01000000 	mrseq	r0, (UNDEF: 0)
    217c:	000004cc 	andeq	r0, r0, ip, asr #9
    2180:	00000486 	andeq	r0, r0, r6, lsl #9
    2184:	00009084 	andeq	r9, r0, r4, lsl #1
    2188:	00000020 	andeq	r0, r0, r0, lsr #32
    218c:	0000072b 	andeq	r0, r0, fp, lsr #14
    2190:	28060102 	stmdacs	r6, {r1, r8}
    2194:	02000001 	andeq	r0, r0, #1
    2198:	01260801 	teqeq	r6, r1, lsl #16
    219c:	02020000 	andeq	r0, r2, #0
    21a0:	00017e05 	andeq	r7, r1, r5, lsl #28
    21a4:	07020200 	streq	r0, [r2, -r0, lsl #4]
    21a8:	000000fc 	strdeq	r0, [r0], -ip
    21ac:	69050403 	stmdbvs	r5, {r0, r1, sl}
    21b0:	0200746e 	andeq	r7, r0, #1845493760	; 0x6e000000
    21b4:	015a0704 	cmpeq	sl, r4, lsl #14
    21b8:	08020000 	stmdaeq	r2, {}	; <UNPREDICTABLE>
    21bc:	00017005 	andeq	r7, r1, r5
    21c0:	07080200 	streq	r0, [r8, -r0, lsl #4]
    21c4:	00000150 	andeq	r0, r0, r0, asr r1
    21c8:	75050402 	strvc	r0, [r5, #-1026]	; 0x402
    21cc:	02000001 	andeq	r0, r0, #1
    21d0:	01670704 	cmneq	r7, r4, lsl #14
    21d4:	04040000 	streq	r0, [r4], #-0
    21d8:	55070402 	strpl	r0, [r7, #-1026]	; 0x402
    21dc:	05000001 	streq	r0, [r0, #-1]
    21e0:	00007a04 	andeq	r7, r0, r4, lsl #20
    21e4:	08010200 	stmdaeq	r1, {r9}
    21e8:	0000012f 	andeq	r0, r0, pc, lsr #2
    21ec:	00000006 	andeq	r0, r0, r6
    21f0:	48d40200 	ldmmi	r4, {r9}^
    21f4:	07000000 	streq	r0, [r0, -r0]
    21f8:	00000134 	andeq	r0, r0, r4, lsr r1
    21fc:	006b1b03 	rsbeq	r1, fp, r3, lsl #22
    2200:	90840000 	addls	r0, r4, r0
    2204:	00200000 	eoreq	r0, r0, r0
    2208:	9c010000 	stcls	0, cr0, [r1], {-0}
    220c:	00705f08 	rsbseq	r5, r0, r8, lsl #30
    2210:	006b0301 	rsbeq	r0, fp, r1, lsl #6
    2214:	50010000 	andpl	r0, r1, r0
    2218:	01006308 	tsteq	r0, r8, lsl #6
    221c:	00004103 	andeq	r4, r0, r3, lsl #2
    2220:	09510100 	ldmdbeq	r1, {r8}^
    2224:	0301006e 	movweq	r0, #4206	; 0x106e
    2228:	00000081 	andeq	r0, r0, r1, lsl #1
    222c:	00000c19 	andeq	r0, r0, r9, lsl ip
    2230:	0100700a 	tsteq	r0, sl
    2234:	00007404 	andeq	r7, r0, r4, lsl #8
    2238:	000c3a00 	andeq	r3, ip, r0, lsl #20
    223c:	00650b00 	rsbeq	r0, r5, r0, lsl #22
    2240:	00740401 	rsbseq	r0, r4, r1, lsl #8
    2244:	52010000 	andpl	r0, r1, #0
    2248:	01910000 	orrseq	r0, r1, r0
    224c:	00040000 	andeq	r0, r4, r0
    2250:	000007b8 			; <UNDEFINED> instruction: 0x000007b8
    2254:	00070104 	andeq	r0, r7, r4, lsl #2
    2258:	e9010000 	stmdb	r1, {}	; <UNPREDICTABLE>
    225c:	86000004 	strhi	r0, [r0], -r4
    2260:	a4000004 	strge	r0, [r0], #-4
    2264:	58000090 	stmdapl	r0, {r4, r7}
    2268:	1b000000 	blne	2270 <_start-0x5d90>
    226c:	02000008 	andeq	r0, r0, #8
    2270:	000004da 	ldrdeq	r0, [r0], -sl
    2274:	00302802 	eorseq	r2, r0, r2, lsl #16
    2278:	01030000 	mrseq	r0, (UNDEF: 3)
    227c:	04000005 	streq	r0, [r0], #-5
    2280:	00470003 	subeq	r0, r7, r3
    2284:	0b040000 	bleq	10228c <__bss_end__+0xf7794>
    2288:	47000005 	strmi	r0, [r0, -r5]
    228c:	00000000 	andeq	r0, r0, r0
    2290:	02040500 	andeq	r0, r4, #0, 10
    2294:	00000503 	andeq	r0, r0, r3, lsl #10
    2298:	00256202 	eoreq	r6, r5, r2, lsl #4
    229c:	04060000 	streq	r0, [r6], #-0
    22a0:	746e6905 	strbtvc	r6, [lr], #-2309	; 0x905
    22a4:	07040700 	streq	r0, [r4, -r0, lsl #14]
    22a8:	0000015a 	andeq	r0, r0, sl, asr r1
    22ac:	28060107 	stmdacs	r6, {r0, r1, r2, r8}
    22b0:	07000001 	streq	r0, [r0, -r1]
    22b4:	017e0502 	cmneq	lr, r2, lsl #10
    22b8:	04070000 	streq	r0, [r7], #-0
    22bc:	00017505 	andeq	r7, r1, r5, lsl #10
    22c0:	05080700 	streq	r0, [r8, #-1792]	; 0x700
    22c4:	00000170 	andeq	r0, r0, r0, ror r1
    22c8:	26080107 	strcs	r0, [r8], -r7, lsl #2
    22cc:	07000001 	streq	r0, [r0, -r1]
    22d0:	00fc0702 	rscseq	r0, ip, r2, lsl #14
    22d4:	04070000 	streq	r0, [r7], #-0
    22d8:	00015507 	andeq	r5, r1, r7, lsl #10
    22dc:	07080700 	streq	r0, [r8, -r0, lsl #14]
    22e0:	00000150 	andeq	r0, r0, r0, asr r1
    22e4:	67070407 	strvs	r0, [r7, -r7, lsl #8]
    22e8:	08000001 	stmdaeq	r0, {r0}
    22ec:	0000a704 	andeq	sl, r0, r4, lsl #14
    22f0:	08010700 	stmdaeq	r1, {r8, r9, sl}
    22f4:	0000012f 	andeq	r0, r0, pc, lsr #2
    22f8:	00b40408 	adcseq	r0, r4, r8, lsl #8
    22fc:	a7090000 	strge	r0, [r9, -r0]
    2300:	0a000000 	beq	2308 <_start-0x5cf8>
    2304:	000004fa 	strdeq	r0, [r0], -sl
    2308:	00540601 	subseq	r0, r4, r1, lsl #12
    230c:	90a40000 	adcls	r0, r4, r0
    2310:	00580000 	subseq	r0, r8, r0
    2314:	9c010000 	stcls	0, cr0, [r1], {-0}
    2318:	00000143 	andeq	r0, r0, r3, asr #2
    231c:	746d660b 	strbtvc	r6, [sp], #-1547	; 0x60b
    2320:	ae060100 	adfges	f0, f6, f0
    2324:	02000000 	andeq	r0, r0, #0
    2328:	0d0c7091 	stceq	0, cr7, [ip, #-580]	; 0xfffffdbc
    232c:	00667562 	rsbeq	r7, r6, r2, ror #10
    2330:	01430801 	cmpeq	r3, r1, lsl #16
    2334:	03050000 	movweq	r0, #20480	; 0x5000
    2338:	0000a6f8 	strdeq	sl, [r0], -r8
    233c:	0007b20e 	andeq	fp, r7, lr, lsl #4
    2340:	49090100 	stmdbmi	r9, {r8}
    2344:	02000000 	andeq	r0, r0, #0
    2348:	730f5c91 	movwvc	r5, #64657	; 0xfc91
    234c:	0c01007a 	stceq	0, cr0, [r1], {122}	; 0x7a
    2350:	00000054 	andeq	r0, r0, r4, asr r0
    2354:	00000c65 	andeq	r0, r0, r5, ror #24
    2358:	0090cc10 	addseq	ip, r0, r0, lsl ip
    235c:	00017400 	andeq	r7, r1, r0, lsl #8
    2360:	00013600 	andeq	r3, r1, r0, lsl #12
    2364:	53011100 	movwpl	r1, #4352	; 0x1100
    2368:	114c9102 	cmpne	ip, r2, lsl #2
    236c:	91035201 	tstls	r3, r1, lsl #4
    2370:	01110648 	tsteq	r1, r8, asr #12
    2374:	000a0351 	andeq	r0, sl, r1, asr r3
    2378:	50011104 	andpl	r1, r1, r4, lsl #2
    237c:	00007402 	andeq	r7, r0, r2, lsl #8
    2380:	0090e012 	addseq	lr, r0, r2, lsl r0
    2384:	50011100 	andpl	r1, r1, r0, lsl #2
    2388:	00007402 	andeq	r7, r0, r2, lsl #8
    238c:	00a71300 	adceq	r1, r7, r0, lsl #6
    2390:	01540000 	cmpeq	r4, r0
    2394:	9a140000 	bls	50239c <__bss_end__+0x4f78a4>
    2398:	ff000000 			; <UNDEFINED> instruction: 0xff000000
    239c:	54150003 	ldrpl	r0, [r5], #-3
    23a0:	63000000 	movwvs	r0, #0
    23a4:	16000001 	strne	r0, [r0], -r1
    23a8:	000000ae 	andeq	r0, r0, lr, lsr #1
    23ac:	05681700 	strbeq	r1, [r8, #-1792]!	; 0x700
    23b0:	22040000 	andcs	r0, r4, #0
    23b4:	0000016e 	andeq	r0, r0, lr, ror #2
    23b8:	01540408 	cmpeq	r4, r8, lsl #8
    23bc:	f7180000 			; <UNDEFINED> instruction: 0xf7180000
    23c0:	05000004 	streq	r0, [r0, #-4]
    23c4:	00005402 	andeq	r5, r0, r2, lsl #8
    23c8:	00a11600 	adceq	r1, r1, r0, lsl #12
    23cc:	54160000 	ldrpl	r0, [r6], #-0
    23d0:	16000000 	strne	r0, [r0], -r0
    23d4:	000000ae 	andeq	r0, r0, lr, lsr #1
    23d8:	00004916 	andeq	r4, r0, r6, lsl r9
    23dc:	13000000 	movwne	r0, #0
    23e0:	04000001 	streq	r0, [r0], #-1
    23e4:	0008e900 	andeq	lr, r8, r0, lsl #18
    23e8:	07010400 	streq	r0, [r1, -r0, lsl #8]
    23ec:	01000000 	mrseq	r0, (UNDEF: 0)
    23f0:	00000537 	andeq	r0, r0, r7, lsr r5
    23f4:	00000486 	andeq	r0, r0, r6, lsl #9
    23f8:	000090fc 	strdeq	r9, [r0], -ip
    23fc:	0000003c 	andeq	r0, r0, ip, lsr r0
    2400:	0000092b 	andeq	r0, r0, fp, lsr #18
    2404:	69050402 	stmdbvs	r5, {r1, sl}
    2408:	0300746e 	movweq	r7, #1134	; 0x46e
    240c:	015a0704 	cmpeq	sl, r4, lsl #14
    2410:	01030000 	mrseq	r0, (UNDEF: 3)
    2414:	00012806 	andeq	r2, r1, r6, lsl #16
    2418:	05020300 	streq	r0, [r2, #-768]	; 0x300
    241c:	0000017e 	andeq	r0, r0, lr, ror r1
    2420:	75050403 	strvc	r0, [r5, #-1027]	; 0x403
    2424:	03000001 	movweq	r0, #1
    2428:	01700508 	cmneq	r0, r8, lsl #10
    242c:	01030000 	mrseq	r0, (UNDEF: 3)
    2430:	00012608 	andeq	r2, r1, r8, lsl #12
    2434:	07020300 	streq	r0, [r2, -r0, lsl #6]
    2438:	000000fc 	strdeq	r0, [r0], -ip
    243c:	55070403 	strpl	r0, [r7, #-1027]	; 0x403
    2440:	03000001 	movweq	r0, #1
    2444:	01500708 	cmpeq	r0, r8, lsl #14
    2448:	04030000 	streq	r0, [r3], #-0
    244c:	00016707 	andeq	r6, r1, r7, lsl #14
    2450:	08010300 	stmdaeq	r1, {r8, r9}
    2454:	0000012f 	andeq	r0, r0, pc, lsr #2
    2458:	00051a04 	andeq	r1, r5, r4, lsl #20
    245c:	25030100 	strcs	r0, [r3, #-256]	; 0x100
    2460:	fc000000 	stc2	0, cr0, [r0], {-0}
    2464:	14000090 	strne	r0, [r0], #-144	; 0x90
    2468:	01000000 	mrseq	r0, (UNDEF: 0)
    246c:	0000b09c 	muleq	r0, ip, r0
    2470:	00630500 	rsbeq	r0, r3, r0, lsl #10
    2474:	00250301 	eoreq	r0, r5, r1, lsl #6
    2478:	0c8e0000 	stceq	0, cr0, [lr], {0}
    247c:	08060000 	stmdaeq	r6, {}	; <UNPREDICTABLE>
    2480:	09000091 	stmdbeq	r0, {r0, r4, r7}
    2484:	07000001 	streq	r0, [r0, -r1]
    2488:	74025001 	strvc	r5, [r2], #-1
    248c:	08000000 	stmdaeq	r0, {}	; <UNPREDICTABLE>
    2490:	00000117 	andeq	r0, r0, r7, lsl r1
    2494:	91100801 	tstls	r0, r1, lsl #16
    2498:	00180000 	andseq	r0, r8, r0
    249c:	9c010000 	stcls	0, cr0, [r1], {-0}
    24a0:	00054609 	andeq	r4, r5, r9, lsl #12
    24a4:	280b0100 	stmdacs	fp, {r8}
    24a8:	10000091 	mulne	r0, r1, r0
    24ac:	01000000 	mrseq	r0, (UNDEF: 0)
    24b0:	0000e39c 	muleq	r0, ip, r3
    24b4:	70660a00 	rsbvc	r0, r6, r0, lsl #20
    24b8:	f20b0100 	vrhadd.s8	d0, d11, d0
    24bc:	01000000 	mrseq	r0, (UNDEF: 0)
    24c0:	250b0050 	strcs	r0, [fp, #-80]	; 0x50
    24c4:	f2000000 	vhadd.s8	d0, d0, d0
    24c8:	0c000000 	stceq	0, cr0, [r0], {-0}
    24cc:	00000025 	andeq	r0, r0, r5, lsr #32
    24d0:	e3040d00 	movw	r0, #19712	; 0x4d00
    24d4:	0e000000 	cdpeq	0, 0, cr0, cr0, cr0, {0}
    24d8:	0000052b 	andeq	r0, r0, fp, lsr #10
    24dc:	00f20601 	rscseq	r0, r2, r1, lsl #12
    24e0:	03050000 	movweq	r0, #20480	; 0x5000
    24e4:	00009c60 	andeq	r9, r0, r0, ror #24
    24e8:	0005100f 	andeq	r1, r5, pc
    24ec:	0c3c0200 	lfmeq	f0, 4, [ip], #-0
    24f0:	0000002c 	andeq	r0, r0, ip, lsr #32
    24f4:	00ee0000 	rsceq	r0, lr, r0
    24f8:	00040000 	andeq	r0, r4, r0
    24fc:	000009d1 	ldrdeq	r0, [r0], -r1
    2500:	00070104 	andeq	r0, r7, r4, lsl #2
    2504:	53010000 	movwpl	r0, #4096	; 0x1000
    2508:	86000005 	strhi	r0, [r0], -r5
    250c:	38000004 	stmdacc	r0, {r2}
    2510:	34000091 	strcc	r0, [r0], #-145	; 0x91
    2514:	c3000000 	movwgt	r0, #0
    2518:	02000009 	andeq	r0, r0, #9
    251c:	6e690504 	cdpvs	5, 6, cr0, cr9, cr4, {0}
    2520:	04030074 	streq	r0, [r3], #-116	; 0x74
    2524:	00015a07 	andeq	r5, r1, r7, lsl #20
    2528:	06010300 	streq	r0, [r1], -r0, lsl #6
    252c:	00000128 	andeq	r0, r0, r8, lsr #2
    2530:	7e050203 	cdpvc	2, 0, cr0, cr5, cr3, {0}
    2534:	03000001 	movweq	r0, #1
    2538:	01750504 	cmneq	r5, r4, lsl #10
    253c:	08030000 	stmdaeq	r3, {}	; <UNPREDICTABLE>
    2540:	00017005 	andeq	r7, r1, r5
    2544:	08010300 	stmdaeq	r1, {r8, r9}
    2548:	00000126 	andeq	r0, r0, r6, lsr #2
    254c:	fc070203 	stc2	2, cr0, [r7], {3}
    2550:	03000000 	movweq	r0, #0
    2554:	01550704 	cmpeq	r5, r4, lsl #14
    2558:	08030000 	stmdaeq	r3, {}	; <UNPREDICTABLE>
    255c:	00015007 	andeq	r5, r1, r7
    2560:	07040300 	streq	r0, [r4, -r0, lsl #6]
    2564:	00000167 	andeq	r0, r0, r7, ror #2
    2568:	2f080103 	svccs	0x00080103
    256c:	04000001 	streq	r0, [r0], #-1
    2570:	00007f04 	andeq	r7, r0, r4, lsl #30
    2574:	00720500 	rsbseq	r0, r2, r0, lsl #10
    2578:	5f060000 	svcpl	0x00060000
    257c:	01000005 	tsteq	r0, r5
    2580:	00002504 	andeq	r2, r0, r4, lsl #10
    2584:	00913800 	addseq	r3, r1, r0, lsl #16
    2588:	00003400 	andeq	r3, r0, r0, lsl #8
    258c:	ab9c0100 	blge	fe702994 <__bss_end__+0xfe6f7e9c>
    2590:	07000000 	streq	r0, [r0, -r0]
    2594:	04010070 	streq	r0, [r1], #-112	; 0x70
    2598:	00000079 	andeq	r0, r0, r9, ror r0
    259c:	00000cac 	andeq	r0, r0, ip, lsr #25
    25a0:	00250800 	eoreq	r0, r5, r0, lsl #16
    25a4:	00ba0000 	adcseq	r0, sl, r0
    25a8:	25090000 	strcs	r0, [r9, #-0]
    25ac:	00000000 	andeq	r0, r0, r0
    25b0:	00052b0a 	andeq	r2, r5, sl, lsl #22
    25b4:	c51d0200 	ldrgt	r0, [sp, #-512]	; 0x200
    25b8:	04000000 	streq	r0, [r0], #-0
    25bc:	0000ab04 	andeq	sl, r0, r4, lsl #22
    25c0:	00250800 	eoreq	r0, r5, r0, lsl #16
    25c4:	00da0000 	sbcseq	r0, sl, r0
    25c8:	79090000 	stmdbvc	r9, {}	; <UNPREDICTABLE>
    25cc:	00000000 	andeq	r0, r0, r0
    25d0:	0005680b 	andeq	r6, r5, fp, lsl #16
    25d4:	eb0c0100 	bl	3029dc <__bss_end__+0x2f7ee4>
    25d8:	05000000 	streq	r0, [r0, #-0]
    25dc:	009c6403 	addseq	r6, ip, r3, lsl #8
    25e0:	cb040400 	blgt	1035e8 <__bss_end__+0xf8af0>
    25e4:	00000000 	andeq	r0, r0, r0
    25e8:	00000681 	andeq	r0, r0, r1, lsl #13
    25ec:	0a6a0004 	beq	1a82604 <__bss_end__+0x1a77b0c>
    25f0:	01040000 	mrseq	r0, (UNDEF: 4)
    25f4:	00000007 	andeq	r0, r0, r7
    25f8:	00059401 	andeq	r9, r5, r1, lsl #8
    25fc:	00048600 	andeq	r8, r4, r0, lsl #12
    2600:	00916c00 	addseq	r6, r1, r0, lsl #24
    2604:	00050c00 	andeq	r0, r5, r0, lsl #24
    2608:	000a6700 	andeq	r6, sl, r0, lsl #14
    260c:	05040200 	streq	r0, [r4, #-512]	; 0x200
    2610:	00746e69 	rsbseq	r6, r4, r9, ror #28
    2614:	5a070403 	bpl	1c3628 <__bss_end__+0x1b8b30>
    2618:	03000001 	movweq	r0, #1
    261c:	01280601 	teqeq	r8, r1, lsl #12
    2620:	02030000 	andeq	r0, r3, #0
    2624:	00017e05 	andeq	r7, r1, r5, lsl #28
    2628:	05040300 	streq	r0, [r4, #-768]	; 0x300
    262c:	00000175 	andeq	r0, r0, r5, ror r1
    2630:	70050803 	andvc	r0, r5, r3, lsl #16
    2634:	03000001 	movweq	r0, #1
    2638:	01260801 	teqeq	r6, r1, lsl #16
    263c:	02030000 	andeq	r0, r3, #0
    2640:	0000fc07 	andeq	pc, r0, r7, lsl #24
    2644:	07040300 	streq	r0, [r4, -r0, lsl #6]
    2648:	00000155 	andeq	r0, r0, r5, asr r1
    264c:	50070803 	andpl	r0, r7, r3, lsl #16
    2650:	03000001 	movweq	r0, #1
    2654:	01670704 	cmneq	r7, r4, lsl #14
    2658:	04040000 	streq	r0, [r4], #-0
    265c:	007a0405 	rsbseq	r0, sl, r5, lsl #8
    2660:	01030000 	mrseq	r0, (UNDEF: 3)
    2664:	00012f08 	andeq	r2, r1, r8, lsl #30
    2668:	87040500 	strhi	r0, [r4, -r0, lsl #10]
    266c:	06000000 	streq	r0, [r0], -r0
    2670:	0000007a 	andeq	r0, r0, sl, ror r0
    2674:	0004da07 	andeq	sp, r4, r7, lsl #20
    2678:	97280200 	strls	r0, [r8, -r0, lsl #4]!
    267c:	08000000 	stmdaeq	r0, {}	; <UNPREDICTABLE>
    2680:	00000501 	andeq	r0, r0, r1, lsl #10
    2684:	ae000404 	cdpge	4, 0, cr0, cr0, cr4, {0}
    2688:	09000000 	stmdbeq	r0, {}	; <UNPREDICTABLE>
    268c:	0000050b 	andeq	r0, r0, fp, lsl #10
    2690:	00000072 	andeq	r0, r0, r2, ror r0
    2694:	03070000 	movweq	r0, #28672	; 0x7000
    2698:	02000005 	andeq	r0, r0, #5
    269c:	00008c62 	andeq	r8, r0, r2, ror #24
    26a0:	057b0a00 	ldrbeq	r0, [fp, #-2560]!	; 0xa00
    26a4:	27010000 	strcs	r0, [r1, -r0]
    26a8:	00000025 	andeq	r0, r0, r5, lsr #32
    26ac:	0000916c 	andeq	r9, r0, ip, ror #2
    26b0:	00000014 	andeq	r0, r0, r4, lsl r0
    26b4:	00e09c01 	rsceq	r9, r0, r1, lsl #24
    26b8:	630b0000 	movwvs	r0, #45056	; 0xb000
    26bc:	25270100 	strcs	r0, [r7, #-256]!	; 0x100
    26c0:	ca000000 	bgt	26c8 <_start-0x5938>
    26c4:	0000000c 	andeq	r0, r0, ip
    26c8:	6461700c 	strbtvs	r7, [r1], #-12
    26cc:	742e0100 	strtvc	r0, [lr], #-256	; 0x100
    26d0:	80000000 	andhi	r0, r0, r0
    26d4:	2c000091 	stccs	0, cr0, [r0], {145}	; 0x91
    26d8:	01000000 	mrseq	r0, (UNDEF: 0)
    26dc:	0001309c 	muleq	r1, ip, r0
    26e0:	00700b00 	rsbseq	r0, r0, r0, lsl #22
    26e4:	00742e01 	rsbseq	r2, r4, r1, lsl #28
    26e8:	0cf80000 	ldcleq	0, cr0, [r8]
    26ec:	900d0000 	andls	r0, sp, r0
    26f0:	01000007 	tsteq	r0, r7
    26f4:	0000742e 	andeq	r7, r0, lr, lsr #8
    26f8:	000d2300 	andeq	r2, sp, r0, lsl #6
    26fc:	05b40e00 	ldreq	r0, [r4, #3584]!	; 0xe00
    2700:	2e010000 	cdpcs	0, 0, cr0, cr1, cr0, {0}
    2704:	00000025 	andeq	r0, r0, r5, lsr #32
    2708:	6c0f5201 	sfmvs	f5, 4, [pc], {1}
    270c:	01006e65 	tsteq	r0, r5, ror #28
    2710:	0000252f 	andeq	r2, r0, pc, lsr #10
    2714:	00510100 	subseq	r0, r1, r0, lsl #2
    2718:	0005730a 	andeq	r7, r5, sl, lsl #6
    271c:	74370100 	ldrtvc	r0, [r7], #-256	; 0x100
    2720:	ac000000 	stcge	0, cr0, [r0], {-0}
    2724:	40000091 	mulmi	r0, r1, r0
    2728:	01000000 	mrseq	r0, (UNDEF: 0)
    272c:	00019c9c 	muleq	r1, ip, ip
    2730:	73640b00 	cmnvc	r4, #0, 22
    2734:	37010074 	smlsdxcc	r1, r4, r0, r0
    2738:	00000074 	andeq	r0, r0, r4, ror r0
    273c:	00000d44 	andeq	r0, r0, r4, asr #26
    2740:	01006e0b 	tsteq	r0, fp, lsl #28
    2744:	00002537 	andeq	r2, r0, r7, lsr r5
    2748:	000d7c00 	andeq	r7, sp, r0, lsl #24
    274c:	00700b00 	rsbseq	r0, r0, r0, lsl #22
    2750:	00743701 	rsbseq	r3, r4, r1, lsl #14
    2754:	0d9d0000 	ldceq	0, cr0, [sp]
    2758:	4b0d0000 	blmi	342760 <__bss_end__+0x337c68>
    275c:	0100000d 	tsteq	r0, sp
    2760:	00007437 	andeq	r7, r0, r7, lsr r4
    2764:	000dd300 	andeq	sp, sp, r0, lsl #6
    2768:	656c1000 	strbvs	r1, [ip, #-0]!
    276c:	3901006e 	stmdbcc	r1, {r1, r2, r3, r5, r6}
    2770:	00000025 	andeq	r0, r0, r5, lsr #32
    2774:	00000df1 	strdeq	r0, [r0], -r1
    2778:	0100730f 	tsteq	r0, pc, lsl #6
    277c:	0000743d 	andeq	r7, r0, sp, lsr r4
    2780:	00500100 	subseq	r0, r0, r0, lsl #2
    2784:	0005c20a 	andeq	ip, r5, sl, lsl #4
    2788:	74470100 	strbvc	r0, [r7], #-256	; 0x100
    278c:	ec000000 	stc	0, cr0, [r0], {-0}
    2790:	b0000091 	mullt	r0, r1, r0
    2794:	01000001 	tsteq	r0, r1
    2798:	0002d39c 	muleq	r2, ip, r3
    279c:	07900d00 	ldreq	r0, [r0, r0, lsl #26]
    27a0:	47010000 	strmi	r0, [r1, -r0]
    27a4:	0000002c 	andeq	r0, r0, ip, lsr #32
    27a8:	00000e18 	andeq	r0, r0, r8, lsl lr
    27ac:	7473640b 	ldrbtvc	r6, [r3], #-1035	; 0x40b
    27b0:	74470100 	strbvc	r0, [r7], #-256	; 0x100
    27b4:	46000000 	strmi	r0, [r0], -r0
    27b8:	0b00000e 	bleq	27f8 <_start-0x5808>
    27bc:	4701006e 	strmi	r0, [r1, -lr, rrx]
    27c0:	00000025 	andeq	r0, r0, r5, lsr #32
    27c4:	00000eb4 			; <UNDEFINED> instruction: 0x00000eb4
    27c8:	6c61760b 	stclvs	6, cr7, [r1], #-44	; 0xffffffd4
    27cc:	25470100 	strbcs	r0, [r7, #-256]	; 0x100
    27d0:	e0000000 	and	r0, r0, r0
    27d4:	0d00000e 	stceq	0, cr0, [r0, #-56]	; 0xffffffc8
    27d8:	000005b4 			; <UNDEFINED> instruction: 0x000005b4
    27dc:	00254701 	eoreq	r4, r5, r1, lsl #14
    27e0:	0f5f0000 	svceq	0x005f0000
    27e4:	8b0e0000 	blhi	3827ec <__bss_end__+0x377cf4>
    27e8:	01000005 	tsteq	r0, r5
    27ec:	00002547 	andeq	r2, r0, r7, asr #10
    27f0:	04910200 	ldreq	r0, [r1], #512	; 0x200
    27f4:	6675620f 	ldrbtvs	r6, [r5], -pc, lsl #4
    27f8:	d34c0100 	movtle	r0, #49408	; 0xc100
    27fc:	03000002 	movweq	r0, #2
    2800:	107fa891 			; <UNDEFINED> instruction: 0x107fa891
    2804:	4c010070 	stcmi	0, cr0, [r1], {112}	; 0x70
    2808:	00000074 	andeq	r0, r0, r4, ror r0
    280c:	00000f89 	andeq	r0, r0, r9, lsl #31
    2810:	01007510 	tsteq	r0, r0, lsl r5
    2814:	00002c4d 	andeq	r2, r0, sp, asr #24
    2818:	00105100 	andseq	r5, r0, r0, lsl #2
    281c:	013b1100 	teqeq	fp, r0, lsl #2
    2820:	02f30000 	rscseq	r0, r3, #0
    2824:	03050000 	movweq	r0, #20480	; 0x5000
    2828:	0000a49c 	muleq	r0, ip, r4
    282c:	00925812 	addseq	r5, r2, r2, lsl r8
    2830:	00007400 	andeq	r7, r0, r0, lsl #8
    2834:	00026100 	andeq	r6, r2, r0, lsl #2
    2838:	056d1300 	strbeq	r1, [sp, #-768]!	; 0x300
    283c:	52010000 	andpl	r0, r1, #0
    2840:	0000002c 	andeq	r0, r0, ip, lsr #32
    2844:	00001114 	andeq	r1, r0, r4, lsl r1
    2848:	93441400 	movtls	r1, #17408	; 0x4400
    284c:	06600000 	strbteq	r0, [r0], -r0
    2850:	58150000 	ldmdapl	r5, {}	; <UNPREDICTABLE>
    2854:	67000093 			; <UNDEFINED> instruction: 0x67000093
    2858:	99000006 	stmdbls	r0, {r1, r2}
    285c:	16000002 	strne	r0, [r0], -r2
    2860:	08025301 	stmdaeq	r2, {r0, r8, r9, ip, lr}
    2864:	52011677 	andpl	r1, r1, #124780544	; 0x7700000
    2868:	a49c0305 	ldrge	r0, [ip], #773	; 0x305
    286c:	01160000 	tsteq	r6, r0
    2870:	d4030551 	strle	r0, [r3], #-1361	; 0x551
    2874:	160000a4 	strne	r0, [r0], -r4, lsr #1
    2878:	03055001 	movweq	r5, #20481	; 0x5001
    287c:	0000a4c0 	andeq	sl, r0, r0, asr #9
    2880:	935c1400 	cmpls	ip, #0, 8
    2884:	067d0000 	ldrbteq	r0, [sp], -r0
    2888:	64150000 	ldrvs	r0, [r5], #-0
    288c:	e0000093 	mul	r0, r3, r0
    2890:	b6000000 	strlt	r0, [r0], -r0
    2894:	16000002 	strne	r0, [r0], -r2
    2898:	7d025101 	stfvcs	f5, [r2, #-4]
    289c:	78170000 	ldmdavc	r7, {}	; <UNPREDICTABLE>
    28a0:	30000093 	mulcc	r0, r3, r0
    28a4:	16000001 	strne	r0, [r0], -r1
    28a8:	7d025301 	stcvc	3, cr5, [r2, #-4]
    28ac:	51011600 	tstpl	r1, r0, lsl #12
    28b0:	16007402 	strne	r7, [r0], -r2, lsl #8
    28b4:	75025001 	strvc	r5, [r2, #-1]
    28b8:	18000000 	stmdane	r0, {}	; <UNPREDICTABLE>
    28bc:	0000007a 	andeq	r0, r0, sl, ror r0
    28c0:	000002e3 	andeq	r0, r0, r3, ror #5
    28c4:	00006b19 	andeq	r6, r0, r9, lsl fp
    28c8:	18003f00 	stmdane	r0, {r8, r9, sl, fp, ip, sp}
    28cc:	0000007a 	andeq	r0, r0, sl, ror r0
    28d0:	000002f3 	strdeq	r0, [r0], -r3
    28d4:	00006b19 	andeq	r6, r0, r9, lsl fp
    28d8:	06000400 	streq	r0, [r0], -r0, lsl #8
    28dc:	000002e3 	andeq	r0, r0, r3, ror #5
    28e0:	0005a51a 	andeq	sl, r5, sl, lsl r5
    28e4:	9c1f0100 	ldflss	f0, [pc], {-0}
    28e8:	54000093 	strpl	r0, [r0], #-147	; 0x93
    28ec:	01000000 	mrseq	r0, (UNDEF: 0)
    28f0:	00037c9c 	muleq	r3, ip, ip
    28f4:	05ba0d00 	ldreq	r0, [sl, #3328]!	; 0xd00
    28f8:	1f010000 	svcne	0x00010000
    28fc:	0000038b 	andeq	r0, r0, fp, lsl #7
    2900:	00001140 	andeq	r1, r0, r0, asr #2
    2904:	0005830d 	andeq	r8, r5, sp, lsl #6
    2908:	a01f0100 	andsge	r0, pc, r0, lsl #2
    290c:	6c000003 	stcvs	0, cr0, [r0], {3}
    2910:	11000011 	tstne	r0, r1, lsl r0
    2914:	0000013b 	andeq	r0, r0, fp, lsr r1
    2918:	000003b6 			; <UNDEFINED> instruction: 0x000003b6
    291c:	a4a40305 	strtge	r0, [r4], #773	; 0x305
    2920:	ac140000 	ldcge	0, cr0, [r4], {-0}
    2924:	60000093 	mulvs	r0, r3, r0
    2928:	15000006 	strne	r0, [r0, #-6]
    292c:	000093c0 	andeq	r9, r0, r0, asr #7
    2930:	00000667 	andeq	r0, r0, r7, ror #12
    2934:	00000372 	andeq	r0, r0, r2, ror r3
    2938:	02530116 	subseq	r0, r3, #-2147483643	; 0x80000005
    293c:	01162008 	tsteq	r6, r8
    2940:	a4030552 	strge	r0, [r3], #-1362	; 0x552
    2944:	160000a4 	strne	r0, [r0], -r4, lsr #1
    2948:	03055101 	movweq	r5, #20737	; 0x5101
    294c:	0000a4d4 	ldrdeq	sl, [r0], -r4
    2950:	05500116 	ldrbeq	r0, [r0, #-278]	; 0x116
    2954:	00a50c03 	adceq	r0, r5, r3, lsl #24
    2958:	c4140000 	ldrgt	r0, [r4], #-0
    295c:	7d000093 	stcvc	0, cr0, [r0, #-588]	; 0xfffffdb4
    2960:	00000006 	andeq	r0, r0, r6
    2964:	0000251b 	andeq	r2, r0, fp, lsl r5
    2968:	00038b00 	andeq	r8, r3, r0, lsl #22
    296c:	00251c00 	eoreq	r1, r5, r0, lsl #24
    2970:	05000000 	streq	r0, [r0, #-0]
    2974:	00037c04 	andeq	r7, r3, r4, lsl #24
    2978:	00251b00 	eoreq	r1, r5, r0, lsl #22
    297c:	03a00000 	moveq	r0, #0
    2980:	811c0000 	tsthi	ip, r0
    2984:	00000000 	andeq	r0, r0, r0
    2988:	03910405 	orrseq	r0, r1, #83886080	; 0x5000000
    298c:	7a180000 	bvc	602994 <__bss_end__+0x5f7e9c>
    2990:	b6000000 	strlt	r0, [r0], -r0
    2994:	19000003 	stmdbne	r0, {r0, r1}
    2998:	0000006b 	andeq	r0, r0, fp, rrx
    299c:	a606000e 	strge	r0, [r6], -lr
    29a0:	1d000003 	stcne	0, cr0, [r0, #-12]
    29a4:	000004f7 	strdeq	r0, [r0], -r7
    29a8:	00257f01 	eoreq	r7, r5, r1, lsl #30
    29ac:	93f00000 	mvnsls	r0, #0
    29b0:	02880000 	addeq	r0, r8, #0
    29b4:	9c010000 	stcls	0, cr0, [r1], {-0}
    29b8:	00000625 	andeq	r0, r0, r5, lsr #12
    29bc:	6675620b 	ldrbtvs	r6, [r5], -fp, lsl #4
    29c0:	747f0100 	ldrbtvc	r0, [pc], #-256	; 29c8 <_start-0x5638>
    29c4:	98000000 	stmdals	r0, {}	; <UNPREDICTABLE>
    29c8:	0b000011 	bleq	2a14 <_start-0x55ec>
    29cc:	7f01006e 	svcvc	0x0001006e
    29d0:	00000025 	andeq	r0, r0, r5, lsr #32
    29d4:	000011c4 	andeq	r1, r0, r4, asr #3
    29d8:	746d660b 	strbtvc	r6, [sp], #-1547	; 0x60b
    29dc:	817f0100 	cmnhi	pc, r0, lsl #2
    29e0:	f2000000 	vhadd.s8	d0, d0, d0
    29e4:	0d000011 	stceq	0, cr0, [r0, #-68]	; 0xffffffbc
    29e8:	000007b2 			; <UNDEFINED> instruction: 0x000007b2
    29ec:	00ae7f01 	adceq	r7, lr, r1, lsl #30
    29f0:	12260000 	eorne	r0, r6, #0
    29f4:	70100000 	andsvc	r0, r0, r0
    29f8:	74800100 	strvc	r0, [r0], #256	; 0x100
    29fc:	39000000 	stmdbcc	r0, {}	; <UNPREDICTABLE>
    2a00:	10000012 	andne	r0, r0, r2, lsl r0
    2a04:	80010065 	andhi	r0, r1, r5, rrx
    2a08:	00000074 	andeq	r0, r0, r4, ror r0
    2a0c:	000012b7 			; <UNDEFINED> instruction: 0x000012b7
    2a10:	00013b11 	andeq	r3, r1, r1, lsl fp
    2a14:	00063500 	andeq	r3, r6, r0, lsl #10
    2a18:	b4030500 	strlt	r0, [r3], #-1280	; 0x500
    2a1c:	1e0000a4 	cdpne	0, 0, cr0, cr0, cr4, {5}
    2a20:	00000048 	andeq	r0, r0, r8, asr #32
    2a24:	01007310 	tsteq	r0, r0, lsl r3
    2a28:	0000748d 	andeq	r7, r0, sp, lsl #9
    2a2c:	0012de00 	andseq	sp, r2, r0, lsl #28
    2a30:	756e0f00 	strbvc	r0, [lr, #-3840]!	; 0xf00
    2a34:	8d01006d 	stchi	0, cr0, [r1, #-436]	; 0xfffffe4c
    2a38:	0000063a 	andeq	r0, r0, sl, lsr r6
    2a3c:	7ed89103 	atnvce	f1, f3
    2a40:	0005b413 	andeq	fp, r5, r3, lsl r4
    2a44:	2c8e0100 	stfcss	f0, [lr], {0}
    2a48:	33000000 	movwcc	r0, #0
    2a4c:	15000013 	strne	r0, [r0, #-19]
    2a50:	00009474 	andeq	r9, r0, r4, ror r4
    2a54:	000000b9 	strheq	r0, [r0], -r9
    2a58:	0000047b 	andeq	r0, r0, fp, ror r4
    2a5c:	02500116 	subseq	r0, r0, #-2147483643	; 0x80000005
    2a60:	14000075 	strne	r0, [r0], #-117	; 0x75
    2a64:	00009488 	andeq	r9, r0, r8, lsl #9
    2a68:	00000660 	andeq	r0, r0, r0, ror #12
    2a6c:	00949c15 	addseq	r9, r4, r5, lsl ip
    2a70:	00066700 	andeq	r6, r6, r0, lsl #14
    2a74:	0004b300 	andeq	fp, r4, r0, lsl #6
    2a78:	53011600 	movwpl	r1, #5632	; 0x1600
    2a7c:	16940802 	ldrne	r0, [r4], r2, lsl #16
    2a80:	03055201 	movweq	r5, #20993	; 0x5201
    2a84:	0000a4b4 			; <UNDEFINED> instruction: 0x0000a4b4
    2a88:	05510116 	ldrbeq	r0, [r1, #-278]	; 0x116
    2a8c:	00a4d403 	adceq	sp, r4, r3, lsl #8
    2a90:	50011600 	andpl	r1, r1, r0, lsl #12
    2a94:	a5240305 	strge	r0, [r4, #-773]!	; 0x305
    2a98:	14000000 	strne	r0, [r0], #-0
    2a9c:	000094a0 	andeq	r9, r0, r0, lsr #9
    2aa0:	0000067d 	andeq	r0, r0, sp, ror r6
    2aa4:	00951014 	addseq	r1, r5, r4, lsl r0
    2aa8:	00066000 	andeq	r6, r6, r0
    2aac:	95241500 	strls	r1, [r4, #-1280]!	; 0x500
    2ab0:	06670000 	strbteq	r0, [r7], -r0
    2ab4:	04f40000 	ldrbteq	r0, [r4], #0
    2ab8:	01160000 	tsteq	r6, r0
    2abc:	9a080253 	bls	203410 <__bss_end__+0x1f8918>
    2ac0:	05520116 	ldrbeq	r0, [r2, #-278]	; 0x116
    2ac4:	00a4b403 	adceq	fp, r4, r3, lsl #8
    2ac8:	51011600 	tstpl	r1, r0, lsl #12
    2acc:	a4d40305 	ldrbge	r0, [r4], #773	; 0x305
    2ad0:	01160000 	tsteq	r6, r0
    2ad4:	40030550 	andmi	r0, r3, r0, asr r5
    2ad8:	000000a5 	andeq	r0, r0, r5, lsr #1
    2adc:	00952814 	addseq	r2, r5, r4, lsl r8
    2ae0:	00067d00 	andeq	r7, r6, r0, lsl #26
    2ae4:	954c1500 	strbls	r1, [ip, #-1280]	; 0x500
    2ae8:	019c0000 	orrseq	r0, ip, r0
    2aec:	052a0000 	streq	r0, [sl, #-0]!
    2af0:	01160000 	tsteq	r6, r0
    2af4:	80080252 	andhi	r0, r8, r2, asr r2
    2af8:	03510116 	cmpeq	r1, #-2147483643	; 0x80000005
    2afc:	167ed091 			; <UNDEFINED> instruction: 0x167ed091
    2b00:	3a015001 	bcc	56b0c <__bss_end__+0x4c014>
    2b04:	047d0216 	ldrbteq	r0, [sp], #-534	; 0x216
    2b08:	02163101 	andseq	r3, r6, #1073741824	; 0x40000000
    2b0c:	7702007d 	smlsdxvc	r2, sp, r0, r0
    2b10:	70150000 	andsvc	r0, r5, r0
    2b14:	9c000095 	stcls	0, cr0, [r0], {149}	; 0x95
    2b18:	58000001 	stmdapl	r0, {r0}
    2b1c:	16000005 	strne	r0, [r0], -r5
    2b20:	08025201 	stmdaeq	r2, {r0, r9, ip, lr}
    2b24:	51011680 	smlabbpl	r1, r0, r6, r1
    2b28:	7ed09103 	atnvcs	f1, f3
    2b2c:	01500116 	cmpeq	r0, r6, lsl r1
    2b30:	7d02163a 	stcvc	6, cr1, [r2, #-232]	; 0xffffff18
    2b34:	007b0204 	rsbseq	r0, fp, r4, lsl #4
    2b38:	007d0216 	rsbseq	r0, sp, r6, lsl r2
    2b3c:	00007702 	andeq	r7, r0, r2, lsl #14
    2b40:	00959415 	addseq	r9, r5, r5, lsl r4
    2b44:	00019c00 	andeq	r9, r1, r0, lsl #24
    2b48:	00058600 	andeq	r8, r5, r0, lsl #12
    2b4c:	52011600 	andpl	r1, r1, #0, 12
    2b50:	16800802 	strne	r0, [r0], r2, lsl #16
    2b54:	91035101 	tstls	r3, r1, lsl #2
    2b58:	01167ed0 			; <UNDEFINED> instruction: 0x01167ed0
    2b5c:	16400150 			; <UNDEFINED> instruction: 0x16400150
    2b60:	02047d02 	andeq	r7, r4, #2, 26	; 0x80
    2b64:	0216007b 	andseq	r0, r6, #123	; 0x7b
    2b68:	7702007d 	smlsdxvc	r2, sp, r0, r0
    2b6c:	b8150000 	ldmdalt	r5, {}	; <UNPREDICTABLE>
    2b70:	9c000095 	stcls	0, cr0, [r0], {149}	; 0x95
    2b74:	b4000001 	strlt	r0, [r0], #-1
    2b78:	16000005 	strne	r0, [r0], -r5
    2b7c:	08025201 	stmdaeq	r2, {r0, r9, ip, lr}
    2b80:	51011680 	smlabbpl	r1, r0, r6, r1
    2b84:	7ed09103 	atnvcs	f1, f3
    2b88:	01500116 	cmpeq	r0, r6, lsl r1
    2b8c:	7d021632 	stcvc	6, cr1, [r2, #-200]	; 0xffffff38
    2b90:	007b0204 	rsbseq	r0, fp, r4, lsl #4
    2b94:	007d0216 	rsbseq	r0, sp, r6, lsl r2
    2b98:	00007702 	andeq	r7, r0, r2, lsl #14
    2b9c:	0095e815 	addseq	lr, r5, r5, lsl r8
    2ba0:	00019c00 	andeq	r9, r1, r0, lsl #24
    2ba4:	0005e200 	andeq	lr, r5, r0, lsl #4
    2ba8:	52011600 	andpl	r1, r1, #0, 12
    2bac:	16800802 	strne	r0, [r0], r2, lsl #16
    2bb0:	91035101 	tstls	r3, r1, lsl #2
    2bb4:	01167ed0 			; <UNDEFINED> instruction: 0x01167ed0
    2bb8:	16380150 			; <UNDEFINED> instruction: 0x16380150
    2bbc:	02047d02 	andeq	r7, r4, #2, 26	; 0x80
    2bc0:	0216007b 	andseq	r0, r6, #123	; 0x7b
    2bc4:	7702007d 	smlsdxvc	r2, sp, r0, r0
    2bc8:	f0140000 			; <UNDEFINED> instruction: 0xf0140000
    2bcc:	60000095 	mulvs	r0, r5, r0
    2bd0:	15000006 	strne	r0, [r0, #-6]
    2bd4:	0000960c 	andeq	r9, r0, ip, lsl #12
    2bd8:	00000667 	andeq	r0, r0, r7, ror #12
    2bdc:	0000061a 	andeq	r0, r0, sl, lsl r6
    2be0:	02530116 	subseq	r0, r3, #-2147483643	; 0x80000005
    2be4:	0116bb08 	tsteq	r6, r8, lsl #22
    2be8:	b4030552 	strlt	r0, [r3], #-1362	; 0x552
    2bec:	160000a4 	strne	r0, [r0], -r4, lsr #1
    2bf0:	03055101 	movweq	r5, #20737	; 0x5101
    2bf4:	0000a4d4 	ldrdeq	sl, [r0], -r4
    2bf8:	05500116 	ldrbeq	r0, [r0, #-278]	; 0x116
    2bfc:	00a56803 	adceq	r6, r5, r3, lsl #16
    2c00:	10140000 	andsne	r0, r4, r0
    2c04:	7d000096 	stcvc	0, cr0, [r0, #-600]	; 0xfffffda8
    2c08:	00000006 	andeq	r0, r0, r6
    2c0c:	007a1800 	rsbseq	r1, sl, r0, lsl #16
    2c10:	06350000 	ldrteq	r0, [r5], -r0
    2c14:	6b190000 	blvs	642c1c <__bss_end__+0x638124>
    2c18:	09000000 	stmdbeq	r0, {}	; <UNPREDICTABLE>
    2c1c:	06250600 	strteq	r0, [r5], -r0, lsl #12
    2c20:	7a180000 	bvc	602c28 <__bss_end__+0x5f8130>
    2c24:	4a000000 	bmi	2c2c <_start-0x53d4>
    2c28:	19000006 	stmdbne	r0, {r1, r2}
    2c2c:	0000006b 	andeq	r0, r0, fp, rrx
    2c30:	2b1f007f 	blcs	7c2e34 <__bss_end__+0x7b833c>
    2c34:	03000005 	movweq	r0, #5
    2c38:	00038b1d 	andeq	r8, r3, sp, lsl fp
    2c3c:	05681f00 	strbeq	r1, [r8, #-3840]!	; 0xf00
    2c40:	22030000 	andcs	r0, r3, #0
    2c44:	000003a0 	andeq	r0, r0, r0, lsr #7
    2c48:	00011720 	andeq	r1, r1, r0, lsr #14
    2c4c:	211e0300 	tstcs	lr, r0, lsl #6
    2c50:	000004fa 	strdeq	r0, [r0], -sl
    2c54:	00252903 	eoreq	r2, r5, r3, lsl #18
    2c58:	067d0000 	ldrbteq	r0, [sp], -r0
    2c5c:	811c0000 	tsthi	ip, r0
    2c60:	22000000 	andcs	r0, r0, #0
    2c64:	00ef2000 	rsceq	r2, pc, r0
    2c68:	65030000 	strvs	r0, [r3, #-0]
    2c6c:	0000ff00 	andeq	pc, r0, r0, lsl #30
    2c70:	46000400 	strmi	r0, [r0], -r0, lsl #8
    2c74:	0400000c 	streq	r0, [r0], #-12
    2c78:	00000701 	andeq	r0, r0, r1, lsl #14
    2c7c:	05c70100 	strbeq	r0, [r7, #256]	; 0x100
    2c80:	04860000 	streq	r0, [r6], #0
    2c84:	96780000 	ldrbtls	r0, [r8], -r0
    2c88:	00280000 	eoreq	r0, r8, r0
    2c8c:	0c560000 	mraeq	r0, r6, acc0
    2c90:	04020000 	streq	r0, [r2], #-0
    2c94:	746e6905 	strbtvc	r6, [lr], #-2309	; 0x905
    2c98:	07040300 	streq	r0, [r4, -r0, lsl #6]
    2c9c:	0000015a 	andeq	r0, r0, sl, asr r1
    2ca0:	28060103 	stmdacs	r6, {r0, r1, r8}
    2ca4:	03000001 	movweq	r0, #1
    2ca8:	017e0502 	cmneq	lr, r2, lsl #10
    2cac:	04030000 	streq	r0, [r3], #-0
    2cb0:	00017505 	andeq	r7, r1, r5, lsl #10
    2cb4:	05080300 	streq	r0, [r8, #-768]	; 0x300
    2cb8:	00000170 	andeq	r0, r0, r0, ror r1
    2cbc:	26080103 	strcs	r0, [r8], -r3, lsl #2
    2cc0:	03000001 	movweq	r0, #1
    2cc4:	00fc0702 	rscseq	r0, ip, r2, lsl #14
    2cc8:	04030000 	streq	r0, [r3], #-0
    2ccc:	00015507 	andeq	r5, r1, r7, lsl #10
    2cd0:	07080300 	streq	r0, [r8, -r0, lsl #6]
    2cd4:	00000150 	andeq	r0, r0, r0, asr r1
    2cd8:	67070403 	strvs	r0, [r7, -r3, lsl #8]
    2cdc:	03000001 	movweq	r0, #1
    2ce0:	012f0801 	teqeq	pc, r1, lsl #16
    2ce4:	04040000 	streq	r0, [r4], #-0
    2ce8:	0000007f 	andeq	r0, r0, pc, ror r0
    2cec:	00007205 	andeq	r7, r0, r5, lsl #4
    2cf0:	00ef0600 	rsceq	r0, pc, r0, lsl #12
    2cf4:	04010000 	streq	r0, [r1], #-0
    2cf8:	00009678 	andeq	r9, r0, r8, ror r6
    2cfc:	00000028 	andeq	r0, r0, r8, lsr #32
    2d00:	00ca9c01 	sbceq	r9, sl, r1, lsl #24
    2d04:	8c070000 	stchi	0, cr0, [r7], {-0}
    2d08:	ac000096 	stcge	0, cr0, [r0], {150}	; 0x96
    2d0c:	08000000 	stmdaeq	r0, {}	; <UNPREDICTABLE>
    2d10:	03055001 	movweq	r5, #20481	; 0x5001
    2d14:	0000a5a0 	andeq	sl, r0, r0, lsr #11
    2d18:	96940900 	ldrls	r0, [r4], r0, lsl #18
    2d1c:	00ea0000 	rsceq	r0, sl, r0
    2d20:	00c00000 	sbceq	r0, r0, r0
    2d24:	01080000 	mrseq	r0, (UNDEF: 8)
    2d28:	64080250 	strvs	r0, [r8], #-592	; 0x250
    2d2c:	96980a00 	ldrls	r0, [r8], r0, lsl #20
    2d30:	00fb0000 	rscseq	r0, fp, r0
    2d34:	0b000000 	bleq	2d3c <_start-0x52c4>
    2d38:	00000025 	andeq	r0, r0, r5, lsr #32
    2d3c:	000000d9 	ldrdeq	r0, [r0], -r9
    2d40:	0000790c 	andeq	r7, r0, ip, lsl #18
    2d44:	680d0000 	stmdavs	sp, {}	; <UNPREDICTABLE>
    2d48:	02000005 	andeq	r0, r0, #5
    2d4c:	0000e422 	andeq	lr, r0, r2, lsr #8
    2d50:	ca040400 	bgt	103d58 <__bss_end__+0xf9260>
    2d54:	0e000000 	cdpeq	0, 0, cr0, cr0, cr0, {0}
    2d58:	000005eb 	andeq	r0, r0, fp, ror #11
    2d5c:	00fb4f02 	rscseq	r4, fp, r2, lsl #30
    2d60:	2c0c0000 	stccs	0, cr0, [ip], {-0}
    2d64:	00000000 	andeq	r0, r0, r0
    2d68:	0005e00f 	andeq	lr, r5, pc
    2d6c:	00620200 	rsbeq	r0, r2, r0, lsl #4
    2d70:	000000ff 	strdeq	r0, [r0], -pc	; <UNPREDICTABLE>
    2d74:	0d100004 	ldceq	0, cr0, [r0, #-16]
    2d78:	01040000 	mrseq	r0, (UNDEF: 4)
    2d7c:	00000007 	andeq	r0, r0, r7
    2d80:	00060401 	andeq	r0, r6, r1, lsl #8
    2d84:	00048600 	andeq	r8, r4, r0, lsl #12
    2d88:	0096a000 	addseq	sl, r6, r0
    2d8c:	00003400 	andeq	r3, r0, r0, lsl #8
    2d90:	000cf600 	andeq	pc, ip, r0, lsl #12
    2d94:	05040200 	streq	r0, [r4, #-512]	; 0x200
    2d98:	00746e69 	rsbseq	r6, r4, r9, ror #28
    2d9c:	5a070403 	bpl	1c3db0 <__bss_end__+0x1b92b8>
    2da0:	03000001 	movweq	r0, #1
    2da4:	01280601 	teqeq	r8, r1, lsl #12
    2da8:	02030000 	andeq	r0, r3, #0
    2dac:	00017e05 	andeq	r7, r1, r5, lsl #28
    2db0:	05040300 	streq	r0, [r4, #-768]	; 0x300
    2db4:	00000175 	andeq	r0, r0, r5, ror r1
    2db8:	70050803 	andvc	r0, r5, r3, lsl #16
    2dbc:	03000001 	movweq	r0, #1
    2dc0:	01260801 	teqeq	r6, r1, lsl #16
    2dc4:	02030000 	andeq	r0, r3, #0
    2dc8:	0000fc07 	andeq	pc, r0, r7, lsl #24
    2dcc:	07040300 	streq	r0, [r4, -r0, lsl #6]
    2dd0:	00000155 	andeq	r0, r0, r5, asr r1
    2dd4:	50070803 	andpl	r0, r7, r3, lsl #16
    2dd8:	03000001 	movweq	r0, #1
    2ddc:	01670704 	cmneq	r7, r4, lsl #14
    2de0:	01030000 	mrseq	r0, (UNDEF: 3)
    2de4:	00012f08 	andeq	r2, r1, r8, lsl #30
    2de8:	05fc0400 	ldrbeq	r0, [ip, #1024]!	; 0x400
    2dec:	0d010000 	stceq	0, cr0, [r1, #-0]
    2df0:	000096a0 	andeq	r9, r0, r0, lsr #13
    2df4:	00000034 	andeq	r0, r0, r4, lsr r0
    2df8:	00d89c01 	sbcseq	r9, r8, r1, lsl #24
    2dfc:	e9050000 	stmdb	r5, {}	; <UNPREDICTABLE>
    2e00:	01000003 	tsteq	r0, r3
    2e04:	0000250e 	andeq	r2, r0, lr, lsl #10
    2e08:	03f70500 	mvnseq	r0, #0, 10
    2e0c:	0e010000 	cdpeq	0, 0, cr0, cr1, cr0, {0}
    2e10:	00000025 	andeq	r0, r0, r5, lsr #32
    2e14:	0000c406 	andeq	ip, r0, r6, lsl #8
    2e18:	070f0100 	streq	r0, [pc, -r0, lsl #2]
    2e1c:	00737362 	rsbseq	r7, r3, r2, ror #6
    2e20:	00d81101 	sbcseq	r1, r8, r1, lsl #2
    2e24:	135d0000 	cmpne	sp, #0
    2e28:	f4080000 	vst4.8	{d0-d3}, [r8], r0
    2e2c:	01000005 	tsteq	r0, r5
    2e30:	0000d812 	andeq	sp, r0, r2, lsl r8
    2e34:	96c80900 	strbls	r0, [r8], r0, lsl #18
    2e38:	00f40000 	rscseq	r0, r4, r0
    2e3c:	cc090000 	stcgt	0, cr0, [r9], {-0}
    2e40:	fb000096 	blx	30a2 <_start-0x4f5e>
    2e44:	00000000 	andeq	r0, r0, r0
    2e48:	0025040a 	eoreq	r0, r5, sl, lsl #8
    2e4c:	e9050000 	stmdb	r5, {}	; <UNPREDICTABLE>
    2e50:	01000003 	tsteq	r0, r3
    2e54:	0000250e 	andeq	r2, r0, lr, lsl #10
    2e58:	03f70500 	mvnseq	r0, #0, 10
    2e5c:	0e010000 	cdpeq	0, 0, cr0, cr1, cr0, {0}
    2e60:	00000025 	andeq	r0, r0, r5, lsr #32
    2e64:	0000c406 	andeq	ip, r0, r6, lsl #8
    2e68:	06d70200 	ldrbeq	r0, [r7], r0, lsl #4
    2e6c:	000000ef 	andeq	r0, r0, pc, ror #1
    2e70:	ad006502 	cfstr32ge	mvfx6, [r0, #-8]
    2e74:	04000001 	streq	r0, [r0], #-1
    2e78:	000da400 	andeq	sl, sp, r0, lsl #8
    2e7c:	07010400 	streq	r0, [r1, -r0, lsl #8]
    2e80:	01000000 	mrseq	r0, (UNDEF: 0)
    2e84:	00000625 	andeq	r0, r0, r5, lsr #12
    2e88:	00000486 	andeq	r0, r0, r6, lsl #9
    2e8c:	00000060 	andeq	r0, r0, r0, rrx
    2e90:	00000000 	andeq	r0, r0, r0
    2e94:	00000d9d 	muleq	r0, sp, sp
    2e98:	69050402 	stmdbvs	r5, {r1, sl}
    2e9c:	0300746e 	movweq	r7, #1134	; 0x46e
    2ea0:	015a0704 	cmpeq	sl, r4, lsl #14
    2ea4:	01030000 	mrseq	r0, (UNDEF: 3)
    2ea8:	00012806 	andeq	r2, r1, r6, lsl #16
    2eac:	05020300 	streq	r0, [r2, #-768]	; 0x300
    2eb0:	0000017e 	andeq	r0, r0, lr, ror r1
    2eb4:	75050403 	strvc	r0, [r5, #-1027]	; 0x403
    2eb8:	03000001 	movweq	r0, #1
    2ebc:	01700508 	cmneq	r0, r8, lsl #10
    2ec0:	01030000 	mrseq	r0, (UNDEF: 3)
    2ec4:	00012608 	andeq	r2, r1, r8, lsl #12
    2ec8:	07020300 	streq	r0, [r2, -r0, lsl #6]
    2ecc:	000000fc 	strdeq	r0, [r0], -ip
    2ed0:	55070403 	strpl	r0, [r7, #-1027]	; 0x403
    2ed4:	03000001 	movweq	r0, #1
    2ed8:	01500708 	cmpeq	r0, r8, lsl #14
    2edc:	04030000 	streq	r0, [r3], #-0
    2ee0:	00016707 	andeq	r6, r1, r7, lsl #14
    2ee4:	08010300 	stmdaeq	r1, {r8, r9}
    2ee8:	0000012f 	andeq	r0, r0, pc, lsr #2
    2eec:	00061704 	andeq	r1, r6, r4, lsl #14
    2ef0:	250e0100 	strcs	r0, [lr, #-256]	; 0x100
    2ef4:	d4000000 	strle	r0, [r0], #-0
    2ef8:	18000096 	stmdane	r0, {r1, r2, r4, r7}
    2efc:	01000000 	mrseq	r0, (UNDEF: 0)
    2f00:	0000a29c 	muleq	r0, ip, r2
    2f04:	06820500 	streq	r0, [r2], r0, lsl #10
    2f08:	0f010000 	svceq	0x00010000
    2f0c:	0000002c 	andeq	r0, r0, ip, lsr #32
    2f10:	0000137d 	andeq	r1, r0, sp, ror r3
    2f14:	06590600 	ldrbeq	r0, [r9], -r0, lsl #12
    2f18:	17010000 	strne	r0, [r1, -r0]
    2f1c:	000096ec 	andeq	r9, r0, ip, ror #13
    2f20:	00000014 	andeq	r0, r0, r4, lsl r0
    2f24:	00c79c01 	sbceq	r9, r7, r1, lsl #24
    2f28:	82050000 	andhi	r0, r5, #0
    2f2c:	01000006 	tsteq	r0, r6
    2f30:	00002c18 	andeq	r2, r0, r8, lsl ip
    2f34:	00139c00 	andseq	r9, r3, r0, lsl #24
    2f38:	e0060000 	and	r0, r6, r0
    2f3c:	01000005 	tsteq	r0, r5
    2f40:	0097001f 	addseq	r0, r7, pc, lsl r0
    2f44:	00004800 	andeq	r4, r0, r0, lsl #16
    2f48:	779c0100 	ldrvc	r0, [ip, r0, lsl #2]
    2f4c:	07000001 	streq	r0, [r0, -r1]
    2f50:	0000067a 	andeq	r0, r0, sl, ror r6
    2f54:	01772a01 	cmneq	r7, r1, lsl #20
    2f58:	001c0000 	andseq	r0, ip, r0
    2f5c:	51072010 	tstpl	r7, r0, lsl r0
    2f60:	01000006 	tsteq	r0, r6
    2f64:	0001772b 	andeq	r7, r1, fp, lsr #14
    2f68:	10002400 	andne	r2, r0, r0, lsl #8
    2f6c:	066e0720 	strbteq	r0, [lr], -r0, lsr #14
    2f70:	2c010000 	stccs	0, cr0, [r1], {-0}
    2f74:	00000177 	andeq	r0, r0, r7, ror r1
    2f78:	5a000000 	bpl	2f80 <_start-0x5080>
    2f7c:	00063808 	andeq	r3, r6, r8, lsl #16
    2f80:	772d0100 	strvc	r0, [sp, -r0, lsl #2]!
    2f84:	20000001 	andcs	r0, r0, r1
    2f88:	00970809 	addseq	r0, r7, r9, lsl #16
    2f8c:	00007900 	andeq	r7, r0, r0, lsl #18
    2f90:	97140900 	ldrls	r0, [r4, -r0, lsl #18]
    2f94:	00a20000 	adceq	r0, r2, r0
    2f98:	1c0a0000 	stcne	0, cr0, [sl], {-0}
    2f9c:	8d000097 	stchi	0, cr0, [r0, #-604]	; 0xfffffda4
    2fa0:	3a000001 	bcc	2fac <_start-0x5054>
    2fa4:	0b000001 	bleq	2fb0 <_start-0x5050>
    2fa8:	4e015001 	cdpmi	0, 0, cr5, cr1, cr1, {0}
    2fac:	97280a00 	strls	r0, [r8, -r0, lsl #20]!
    2fb0:	019e0000 	orrseq	r0, lr, r0
    2fb4:	015a0000 	cmpeq	sl, r0
    2fb8:	010b0000 	mrseq	r0, (UNDEF: 11)
    2fbc:	010c0551 	tsteq	ip, r1, asr r5
    2fc0:	0b5a0000 	bleq	1682fc8 <__bss_end__+0x16784d0>
    2fc4:	0c055001 	stceq	0, cr5, [r5], {1}
    2fc8:	20100024 	andscs	r0, r0, r4, lsr #32
    2fcc:	97340c00 	ldrls	r0, [r4, -r0, lsl #24]!
    2fd0:	019e0000 	orrseq	r0, lr, r0
    2fd4:	010b0000 	mrseq	r0, (UNDEF: 11)
    2fd8:	200c0551 	andcs	r0, ip, r1, asr r5
    2fdc:	0b5a0000 	bleq	1682fe4 <__bss_end__+0x16784ec>
    2fe0:	0c055001 	stceq	0, cr5, [r5], {1}
    2fe4:	2010001c 	andscs	r0, r0, ip, lsl r0
    2fe8:	250d0000 	strcs	r0, [sp, #-0]
    2fec:	08000000 	stmdaeq	r0, {}	; <UNPREDICTABLE>
    2ff0:	0000061a 	andeq	r0, r0, sl, lsl r6
    2ff4:	01880d01 	orreq	r0, r8, r1, lsl #26
    2ff8:	0d100000 	ldceq	0, cr0, [r0, #-0]
    2ffc:	0000002c 	andeq	r0, r0, ip, lsr #32
    3000:	0005eb0e 	andeq	lr, r5, lr, lsl #22
    3004:	9e4f0200 	cdpls	2, 4, cr0, cr15, cr0, {0}
    3008:	0f000001 	svceq	0x00000001
    300c:	0000002c 	andeq	r0, r0, ip, lsr #32
    3010:	06681000 	strbteq	r1, [r8], -r0
    3014:	9b020000 	blls	8301c <__bss_end__+0x78524>
    3018:	00002c0f 	andeq	r2, r0, pc, lsl #24
    301c:	002c0f00 	eoreq	r0, ip, r0, lsl #30
    3020:	00000000 	andeq	r0, r0, r0
    3024:	000001d8 	ldrdeq	r0, [r0], -r8
    3028:	0e920004 	cdpeq	0, 9, cr0, cr2, cr4, {0}
    302c:	01040000 	mrseq	r0, (UNDEF: 4)
    3030:	00000007 	andeq	r0, r0, r7
    3034:	0006a401 	andeq	sl, r6, r1, lsl #8
    3038:	00048600 	andeq	r8, r4, r0, lsl #12
    303c:	00974800 	addseq	r4, r7, r0, lsl #16
    3040:	00008800 	andeq	r8, r0, r0, lsl #16
    3044:	000e4300 	andeq	r4, lr, r0, lsl #6
    3048:	05040200 	streq	r0, [r4, #-512]	; 0x200
    304c:	00746e69 	rsbseq	r6, r4, r9, ror #28
    3050:	5a070403 	bpl	1c4064 <__bss_end__+0x1b956c>
    3054:	03000001 	movweq	r0, #1
    3058:	01280601 	teqeq	r8, r1, lsl #12
    305c:	02030000 	andeq	r0, r3, #0
    3060:	00017e05 	andeq	r7, r1, r5, lsl #28
    3064:	05040300 	streq	r0, [r4, #-768]	; 0x300
    3068:	00000175 	andeq	r0, r0, r5, ror r1
    306c:	70050803 	andvc	r0, r5, r3, lsl #16
    3070:	03000001 	movweq	r0, #1
    3074:	01260801 	teqeq	r6, r1, lsl #16
    3078:	02030000 	andeq	r0, r3, #0
    307c:	0000fc07 	andeq	pc, r0, r7, lsl #24
    3080:	07040300 	streq	r0, [r4, -r0, lsl #6]
    3084:	00000155 	andeq	r0, r0, r5, asr r1
    3088:	50070803 	andpl	r0, r7, r3, lsl #16
    308c:	03000001 	movweq	r0, #1
    3090:	01670704 	cmneq	r7, r4, lsl #14
    3094:	01030000 	mrseq	r0, (UNDEF: 3)
    3098:	00012f08 	andeq	r2, r1, r8, lsl #30
    309c:	06c20400 	strbeq	r0, [r2], r0, lsl #8
    30a0:	05010000 	streq	r0, [r1, #-0]
    30a4:	00009748 	andeq	r9, r0, r8, asr #14
    30a8:	0000001c 	andeq	r0, r0, ip, lsl r0
    30ac:	009e9c01 	addseq	r9, lr, r1, lsl #24
    30b0:	bc050000 	stclt	0, cr0, [r5], {-0}
    30b4:	01000006 	tsteq	r0, r6
    30b8:	00002c05 	andeq	r2, r0, r5, lsl #24
    30bc:	0013c600 	andseq	ip, r3, r0, lsl #12
    30c0:	87060000 	strhi	r0, [r6, -r0]
    30c4:	01000006 	tsteq	r0, r6
    30c8:	00002c11 	andeq	r2, r0, r1, lsl ip
    30cc:	00976400 	addseq	r6, r7, r0, lsl #8
    30d0:	00001400 	andeq	r1, r0, r0, lsl #8
    30d4:	cb9c0100 	blgt	fe7034dc <__bss_end__+0xfe6f89e4>
    30d8:	07000000 	streq	r0, [r0, -r0]
    30dc:	00009770 	andeq	r9, r0, r0, ror r7
    30e0:	000001ca 	andeq	r0, r0, sl, asr #3
    30e4:	05500108 	ldrbeq	r0, [r0, #-264]	; 0x108
    30e8:	0030040c 	eorseq	r0, r0, ip, lsl #8
    30ec:	06000020 	streq	r0, [r0], -r0, lsr #32
    30f0:	000006d8 	ldrdeq	r0, [r0], -r8
    30f4:	002c1601 	eoreq	r1, ip, r1, lsl #12
    30f8:	97780000 	ldrbls	r0, [r8, -r0]!
    30fc:	000c0000 	andeq	r0, ip, r0
    3100:	9c010000 	stcls	0, cr0, [r1], {-0}
    3104:	000000f9 	strdeq	r0, [r0], -r9
    3108:	01007509 	tsteq	r0, r9, lsl #10
    310c:	00002c1a 	andeq	r2, r0, sl, lsl ip
    3110:	0a500100 	beq	1403518 <__bss_end__+0x13f8a20>
    3114:	00009780 	andeq	r9, r0, r0, lsl #15
    3118:	0000009e 	muleq	r0, lr, r0
    311c:	06cf0400 	strbeq	r0, [pc], r0, lsl #8
    3120:	1f010000 	svcne	0x00010000
    3124:	00009784 	andeq	r9, r0, r4, lsl #15
    3128:	00000024 	andeq	r0, r0, r4, lsr #32
    312c:	01579c01 	cmpeq	r7, r1, lsl #24
    3130:	750b0000 	strvc	r0, [fp, #-0]
    3134:	1f010073 	svcne	0x00010073
    3138:	0000002c 	andeq	r0, r0, ip, lsr #32
    313c:	000013fa 	strdeq	r1, [r0], -sl
    3140:	00627209 	rsbeq	r7, r2, r9, lsl #4
    3144:	002c2001 	eoreq	r2, ip, r1
    3148:	54010000 	strpl	r0, [r1], #-0
    314c:	0097940c 	addseq	r9, r7, ip, lsl #8
    3150:	00001000 	andeq	r1, r0, r0
    3154:	00014d00 	andeq	r4, r1, r0, lsl #26
    3158:	61720d00 	cmnvs	r2, r0, lsl #26
    315c:	2c220100 	stfcss	f0, [r2], #-0
    3160:	18000000 	stmdane	r0, {}	; <UNPREDICTABLE>
    3164:	0a000014 	beq	31bc <_start-0x4e44>
    3168:	00009798 	muleq	r0, r8, r7
    316c:	000000cb 	andeq	r0, r0, fp, asr #1
    3170:	97900a00 	ldrls	r0, [r0, r0, lsl #20]
    3174:	00cb0000 	sbceq	r0, fp, r0
    3178:	04000000 	streq	r0, [r0], #-0
    317c:	000005eb 	andeq	r0, r0, fp, ror #11
    3180:	97a82801 	strls	r2, [r8, r1, lsl #16]!
    3184:	00140000 	andseq	r0, r4, r0
    3188:	9c010000 	stcls	0, cr0, [r1], {-0}
    318c:	00000190 	muleq	r0, r0, r1
    3190:	00736d0b 	rsbseq	r6, r3, fp, lsl #26
    3194:	002c2801 	eoreq	r2, ip, r1, lsl #16
    3198:	142b0000 	strtne	r0, [fp], #-0
    319c:	b8070000 	stmdalt	r7, {}	; <UNPREDICTABLE>
    31a0:	f9000097 			; <UNDEFINED> instruction: 0xf9000097
    31a4:	08000000 	stmdaeq	r0, {}	; <UNPREDICTABLE>
    31a8:	f3075001 	vhadd.u8	d5, d7, d1
    31ac:	e80a5001 	stmda	sl, {r0, ip, lr}
    31b0:	00001e03 	andeq	r1, r0, r3, lsl #28
    31b4:	00069a04 	andeq	r9, r6, r4, lsl #20
    31b8:	bc2b0100 	stflts	f0, [fp], #-0
    31bc:	14000097 	strne	r0, [r0], #-151	; 0x97
    31c0:	01000000 	mrseq	r0, (UNDEF: 0)
    31c4:	0001ca9c 	muleq	r1, ip, sl
    31c8:	65730b00 	ldrbvs	r0, [r3, #-2816]!	; 0xb00
    31cc:	2b010063 	blcs	43360 <__bss_end__+0x38868>
    31d0:	0000002c 	andeq	r0, r0, ip, lsr #32
    31d4:	0000144c 	andeq	r1, r0, ip, asr #8
    31d8:	0097cc07 	addseq	ip, r7, r7, lsl #24
    31dc:	00015700 	andeq	r5, r1, r0, lsl #14
    31e0:	50010800 	andpl	r0, r1, r0, lsl #16
    31e4:	5001f307 	andpl	pc, r1, r7, lsl #6
    31e8:	1e03e80a 	cdpne	8, 0, cr14, cr3, cr10, {0}
    31ec:	b60e0000 	strlt	r0, [lr], -r0
    31f0:	02000006 	andeq	r0, r0, #6
    31f4:	00002ca7 	andeq	r2, r0, r7, lsr #25
    31f8:	002c0f00 	eoreq	r0, ip, r0, lsl #30
    31fc:	00000000 	andeq	r0, r0, r0
    3200:	00000cc5 	andeq	r0, r0, r5, asr #25
    3204:	0f750004 	svceq	0x00750004
    3208:	01040000 	mrseq	r0, (UNDEF: 4)
    320c:	00000a8f 	andeq	r0, r0, pc, lsl #21
    3210:	0007e60c 	andeq	lr, r7, ip, lsl #12
    3214:	00080100 	andeq	r0, r8, r0, lsl #2
    3218:	00981c00 	addseq	r1, r8, r0, lsl #24
    321c:	00017800 	andeq	r7, r1, r0, lsl #16
    3220:	000ef300 	andeq	pc, lr, r0, lsl #6
    3224:	05040200 	streq	r0, [r4, #-512]	; 0x200
    3228:	00746e69 	rsbseq	r6, r4, r9, ror #28
    322c:	5a070403 	bpl	1c4240 <__bss_end__+0x1b9748>
    3230:	04000001 	streq	r0, [r0], #-1
    3234:	0000002c 	andeq	r0, r0, ip, lsr #32
    3238:	28060103 	stmdacs	r6, {r0, r1, r8}
    323c:	03000001 	movweq	r0, #1
    3240:	017e0502 	cmneq	lr, r2, lsl #10
    3244:	04030000 	streq	r0, [r3], #-0
    3248:	00017505 	andeq	r7, r1, r5, lsl #10
    324c:	05080300 	streq	r0, [r8, #-768]	; 0x300
    3250:	00000170 	andeq	r0, r0, r0, ror r1
    3254:	26080103 	strcs	r0, [r8], -r3, lsl #2
    3258:	03000001 	movweq	r0, #1
    325c:	00fc0702 	rscseq	r0, ip, r2, lsl #14
    3260:	04030000 	streq	r0, [r3], #-0
    3264:	00015507 	andeq	r5, r1, r7, lsl #10
    3268:	07080300 	streq	r0, [r8, -r0, lsl #6]
    326c:	00000150 	andeq	r0, r0, r0, asr r1
    3270:	0009a405 	andeq	sl, r9, r5, lsl #8
    3274:	25070200 	strcs	r0, [r7, #-512]	; 0x200
    3278:	05000000 	streq	r0, [r0, #-0]
    327c:	0000098e 	andeq	r0, r0, lr, lsl #19
    3280:	00462c03 	subeq	r2, r6, r3, lsl #24
    3284:	6a050000 	bvs	14328c <__bss_end__+0x138794>
    3288:	0300000a 	movweq	r0, #10
    328c:	00004672 	andeq	r4, r0, r2, ror r6
    3290:	09320600 	ldmdbeq	r2!, {r9, sl}
    3294:	65040000 	strvs	r0, [r4, #-0]
    3298:	00002c01 	andeq	r2, r0, r1, lsl #24
    329c:	03040700 	movweq	r0, #18176	; 0x4700
    32a0:	0000bca6 	andeq	fp, r0, r6, lsr #25
    32a4:	091d0800 	ldmdbeq	sp, {fp}
    32a8:	a8030000 	stmdage	r3, {}	; <UNPREDICTABLE>
    32ac:	00000091 	muleq	r0, r1, r0
    32b0:	0008b908 	andeq	fp, r8, r8, lsl #18
    32b4:	bca90300 	stclt	3, cr0, [r9]
    32b8:	00000000 	andeq	r0, r0, r0
    32bc:	00005409 	andeq	r5, r0, r9, lsl #8
    32c0:	0000cc00 	andeq	ip, r0, r0, lsl #24
    32c4:	00cc0a00 	sbceq	r0, ip, r0, lsl #20
    32c8:	00030000 	andeq	r0, r3, r0
    32cc:	67070403 	strvs	r0, [r7, -r3, lsl #8]
    32d0:	0b000001 	bleq	32dc <_start-0x4d24>
    32d4:	f4a30308 	vld4.8	{d0[0],d1[0],d2[0],d3[0]}, [r3], r8
    32d8:	0c000000 	stceq	0, cr0, [r0], {-0}
    32dc:	00000a4f 	andeq	r0, r0, pc, asr #20
    32e0:	0025a503 	eoreq	sl, r5, r3, lsl #10
    32e4:	0c000000 	stceq	0, cr0, [r0], {-0}
    32e8:	00000a57 	andeq	r0, r0, r7, asr sl
    32ec:	009daa03 	addseq	sl, sp, r3, lsl #20
    32f0:	00040000 	andeq	r0, r4, r0
    32f4:	0009e205 	andeq	lr, r9, r5, lsl #4
    32f8:	d3ab0300 			; <UNDEFINED> instruction: 0xd3ab0300
    32fc:	05000000 	streq	r0, [r0, #-0]
    3300:	00000882 	andeq	r0, r0, r2, lsl #17
    3304:	0070af03 	rsbseq	sl, r0, r3, lsl #30
    3308:	040d0000 	streq	r0, [sp], #-0
    330c:	0112040e 	tsteq	r2, lr, lsl #8
    3310:	01030000 	mrseq	r0, (UNDEF: 3)
    3314:	00012f08 	andeq	r2, r1, r8, lsl #30
    3318:	01120f00 	tsteq	r2, r0, lsl #30
    331c:	0c050000 	stceq	0, cr0, [r5], {-0}
    3320:	0500000b 	streq	r0, [r0, #-11]
    3324:	00006216 	andeq	r6, r0, r6, lsl r2
    3328:	08931000 	ldmeq	r3, {ip}
    332c:	05180000 	ldreq	r0, [r8, #-0]
    3330:	00017c2d 	andeq	r7, r1, sp, lsr #24
    3334:	0a030c00 	beq	c633c <__bss_end__+0xbb844>
    3338:	2f050000 	svccs	0x00050000
    333c:	0000017c 	andeq	r0, r0, ip, ror r1
    3340:	6b5f1100 	blvs	17c7748 <__bss_end__+0x17bcc50>
    3344:	25300500 	ldrcs	r0, [r0, #-1280]!	; 0x500
    3348:	04000000 	streq	r0, [r0], #-0
    334c:	000a3a0c 	andeq	r3, sl, ip, lsl #20
    3350:	25300500 	ldrcs	r0, [r0, #-1280]!	; 0x500
    3354:	08000000 	stmdaeq	r0, {}	; <UNPREDICTABLE>
    3358:	00086e0c 	andeq	r6, r8, ip, lsl #28
    335c:	25300500 	ldrcs	r0, [r0, #-1280]!	; 0x500
    3360:	0c000000 	stceq	0, cr0, [r0], {-0}
    3364:	000b530c 	andeq	r5, fp, ip, lsl #6
    3368:	25300500 	ldrcs	r0, [r0, #-1280]!	; 0x500
    336c:	10000000 	andne	r0, r0, r0
    3370:	00785f11 	rsbseq	r5, r8, r1, lsl pc
    3374:	01823105 	orreq	r3, r2, r5, lsl #2
    3378:	00140000 	andseq	r0, r4, r0
    337c:	0129040e 	teqeq	r9, lr, lsl #8
    3380:	1e090000 	cdpne	0, 0, cr0, cr9, cr0, {0}
    3384:	92000001 	andls	r0, r0, #1
    3388:	0a000001 	beq	3394 <_start-0x4c6c>
    338c:	000000cc 	andeq	r0, r0, ip, asr #1
    3390:	b4100000 	ldrlt	r0, [r0], #-0
    3394:	24000008 	strcs	r0, [r0], #-8
    3398:	020b3505 	andeq	r3, fp, #20971520	; 0x1400000
    339c:	6c0c0000 	stcvs	0, cr0, [ip], {-0}
    33a0:	05000007 	streq	r0, [r0, #-7]
    33a4:	00002537 	andeq	r2, r0, r7, lsr r5
    33a8:	720c0000 	andvc	r0, ip, #0
    33ac:	0500000a 	streq	r0, [r0, #-10]
    33b0:	00002538 	andeq	r2, r0, r8, lsr r5
    33b4:	9a0c0400 	bls	3043bc <__bss_end__+0x2f98c4>
    33b8:	05000007 	streq	r0, [r0, #-7]
    33bc:	00002539 	andeq	r2, r0, r9, lsr r5
    33c0:	430c0800 	movwmi	r0, #51200	; 0xc800
    33c4:	0500000c 	streq	r0, [r0, #-12]
    33c8:	0000253a 	andeq	r2, r0, sl, lsr r5
    33cc:	720c0c00 	andvc	r0, ip, #0, 24
    33d0:	05000009 	streq	r0, [r0, #-9]
    33d4:	0000253b 	andeq	r2, r0, fp, lsr r5
    33d8:	470c1000 	strmi	r1, [ip, -r0]
    33dc:	05000009 	streq	r0, [r0, #-9]
    33e0:	0000253c 	andeq	r2, r0, ip, lsr r5
    33e4:	580c1400 	stmdapl	ip, {sl, ip}
    33e8:	0500000b 	streq	r0, [r0, #-11]
    33ec:	0000253d 	andeq	r2, r0, sp, lsr r5
    33f0:	c40c1800 	strgt	r1, [ip], #-2048	; 0x800
    33f4:	05000009 	streq	r0, [r0, #-9]
    33f8:	0000253e 	andeq	r2, r0, lr, lsr r5
    33fc:	0a0c1c00 	beq	30a404 <__bss_end__+0x2ff90c>
    3400:	0500000c 	streq	r0, [r0, #-12]
    3404:	0000253f 	andeq	r2, r0, pc, lsr r5
    3408:	12002000 	andne	r2, r0, #0
    340c:	000007a9 	andeq	r0, r0, r9, lsr #15
    3410:	48050108 	stmdami	r5, {r3, r8}
    3414:	0000024b 	andeq	r0, r0, fp, asr #4
    3418:	0008550c 	andeq	r5, r8, ip, lsl #10
    341c:	4b490500 	blmi	1244824 <__bss_end__+0x1239d2c>
    3420:	00000002 	andeq	r0, r0, r2
    3424:	0006e70c 	andeq	lr, r6, ip, lsl #14
    3428:	4b4a0500 	blmi	1284830 <__bss_end__+0x1279d38>
    342c:	80000002 	andhi	r0, r0, r2
    3430:	000afe13 	andeq	pc, sl, r3, lsl lr	; <UNPREDICTABLE>
    3434:	1e4c0500 	cdpne	5, 4, cr0, cr12, cr0, {0}
    3438:	00000001 	andeq	r0, r0, r1
    343c:	07ce1301 	strbeq	r1, [lr, r1, lsl #6]
    3440:	4f050000 	svcmi	0x00050000
    3444:	0000011e 	andeq	r0, r0, lr, lsl r1
    3448:	09000104 	stmdbeq	r0, {r2, r8}
    344c:	0000010a 	andeq	r0, r0, sl, lsl #2
    3450:	0000025b 	andeq	r0, r0, fp, asr r2
    3454:	0000cc0a 	andeq	ip, r0, sl, lsl #24
    3458:	12001f00 	andne	r1, r0, #0, 30
    345c:	0000097b 	andeq	r0, r0, fp, ror r9
    3460:	5b050190 	blpl	143aa8 <__bss_end__+0x138fb0>
    3464:	00000299 	muleq	r0, r9, r2
    3468:	000a030c 	andeq	r0, sl, ip, lsl #6
    346c:	995c0500 	ldmdbls	ip, {r8, sl}^
    3470:	00000002 	andeq	r0, r0, r2
    3474:	000a1b0c 	andeq	r1, sl, ip, lsl #22
    3478:	255d0500 	ldrbcs	r0, [sp, #-1280]	; 0x500
    347c:	04000000 	streq	r0, [r0], #-0
    3480:	0008690c 	andeq	r6, r8, ip, lsl #18
    3484:	9f5f0500 	svcls	0x005f0500
    3488:	08000002 	stmdaeq	r0, {r1}
    348c:	0007a90c 	andeq	sl, r7, ip, lsl #18
    3490:	0b600500 	bleq	1804898 <__bss_end__+0x17f9da0>
    3494:	88000002 	stmdahi	r0, {r1}
    3498:	5b040e00 	blpl	106ca0 <__bss_end__+0xfc1a8>
    349c:	09000002 	stmdbeq	r0, {r1}
    34a0:	000002af 	andeq	r0, r0, pc, lsr #5
    34a4:	000002af 	andeq	r0, r0, pc, lsr #5
    34a8:	0000cc0a 	andeq	ip, r0, sl, lsl #24
    34ac:	0e001f00 	cdpeq	15, 0, cr1, cr0, cr0, {0}
    34b0:	0002b504 	andeq	fp, r2, r4, lsl #10
    34b4:	ce101400 	cfmulsgt	mvf1, mvf0, mvf0
    34b8:	08000009 	stmdaeq	r0, {r0, r3}
    34bc:	02db7305 	sbcseq	r7, fp, #335544320	; 0x14000000
    34c0:	8f0c0000 	svchi	0x000c0000
    34c4:	05000007 	streq	r0, [r0, #-7]
    34c8:	0002db74 	andeq	sp, r2, r4, ror fp
    34cc:	f30c0000 	vhadd.u8	d0, d12, d0
    34d0:	05000006 	streq	r0, [r0, #-6]
    34d4:	00002575 	andeq	r2, r0, r5, ror r5
    34d8:	0e000400 	cfcpyseq	mvf0, mvf0
    34dc:	00005404 	andeq	r5, r0, r4, lsl #8
    34e0:	09ed1000 	stmibeq	sp!, {ip}^
    34e4:	05680000 	strbeq	r0, [r8, #-0]!
    34e8:	00040bb3 			; <UNDEFINED> instruction: 0x00040bb3
    34ec:	705f1100 	subsvc	r1, pc, r0, lsl #2
    34f0:	dbb40500 	blle	fed048f8 <__bss_end__+0xfecf9e00>
    34f4:	00000002 	andeq	r0, r0, r2
    34f8:	00725f11 	rsbseq	r5, r2, r1, lsl pc
    34fc:	0025b505 	eoreq	fp, r5, r5, lsl #10
    3500:	11040000 	mrsne	r0, (UNDEF: 4)
    3504:	0500775f 	streq	r7, [r0, #-1887]	; 0x75f
    3508:	000025b6 			; <UNDEFINED> instruction: 0x000025b6
    350c:	c70c0800 	strgt	r0, [ip, -r0, lsl #16]
    3510:	05000007 	streq	r0, [r0, #-7]
    3514:	00003fb7 			; <UNDEFINED> instruction: 0x00003fb7
    3518:	da0c0c00 	ble	306520 <__bss_end__+0x2fba28>
    351c:	05000008 	streq	r0, [r0, #-8]
    3520:	00003fb8 			; <UNDEFINED> instruction: 0x00003fb8
    3524:	5f110e00 	svcpl	0x00110e00
    3528:	05006662 	streq	r6, [r0, #-1634]	; 0x662
    352c:	0002b6b9 			; <UNDEFINED> instruction: 0x0002b6b9
    3530:	360c1000 	strcc	r1, [ip], -r0
    3534:	05000007 	streq	r0, [r0, #-7]
    3538:	000025ba 			; <UNDEFINED> instruction: 0x000025ba
    353c:	b70c1800 	strlt	r1, [ip, -r0, lsl #16]
    3540:	05000007 	streq	r0, [r0, #-7]
    3544:	00010ac1 	andeq	r0, r1, r1, asr #21
    3548:	6a0c1c00 	bvs	30a550 <__bss_end__+0x2ffa58>
    354c:	0500000c 	streq	r0, [r0, #-12]
    3550:	000566c3 	andeq	r6, r5, r3, asr #13
    3554:	840c2000 	strhi	r2, [ip], #-0
    3558:	0500000c 	streq	r0, [r0, #-12]
    355c:	000590c5 	andeq	r9, r5, r5, asr #1
    3560:	5f0c2400 	svcpl	0x000c2400
    3564:	0500000a 	streq	r0, [r0, #-10]
    3568:	0005b4c8 	andeq	fp, r5, r8, asr #9
    356c:	240c2800 	strcs	r2, [ip], #-2048	; 0x800
    3570:	0500000c 	streq	r0, [r0, #-12]
    3574:	0005cec9 	andeq	ip, r5, r9, asr #29
    3578:	5f112c00 	svcpl	0x00112c00
    357c:	05006275 	streq	r6, [r0, #-629]	; 0x275
    3580:	0002b6cc 	andeq	fp, r2, ip, asr #13
    3584:	5f113000 	svcpl	0x00113000
    3588:	05007075 	streq	r7, [r0, #-117]	; 0x75
    358c:	0002dbcd 	andeq	sp, r2, sp, asr #23
    3590:	5f113800 	svcpl	0x00113800
    3594:	05007275 	streq	r7, [r0, #-629]	; 0x275
    3598:	000025ce 	andeq	r2, r0, lr, asr #11
    359c:	7a0c3c00 	bvc	3125a4 <__bss_end__+0x307aac>
    35a0:	05000007 	streq	r0, [r0, #-7]
    35a4:	0005d4d1 	ldrdeq	sp, [r5], -r1
    35a8:	cf0c4000 	svcgt	0x000c4000
    35ac:	0500000b 	streq	r0, [r0, #-11]
    35b0:	0005e4d2 	ldrdeq	lr, [r5], -r2
    35b4:	5f114300 	svcpl	0x00114300
    35b8:	0500626c 	streq	r6, [r0, #-620]	; 0x26c
    35bc:	0002b6d5 	ldrdeq	fp, [r2], -r5
    35c0:	dd0c4400 	cfstrsle	mvf4, [ip, #-0]
    35c4:	05000007 	streq	r0, [r0, #-7]
    35c8:	000025d8 	ldrdeq	r2, [r0], -r8
    35cc:	510c4c00 	tstpl	ip, r0, lsl #24
    35d0:	05000009 	streq	r0, [r0, #-9]
    35d4:	00007bd9 	ldrdeq	r7, [r0], -r9
    35d8:	510c5000 	mrspl	r5, (UNDEF: 12)
    35dc:	05000002 	streq	r0, [r0, #-2]
    35e0:	000429dc 	ldrdeq	r2, [r4], -ip
    35e4:	390c5400 	stmdbcc	ip, {sl, ip, lr}
    35e8:	05000009 	streq	r0, [r0, #-9]
    35ec:	0000ffe0 	andeq	pc, r0, r0, ror #31
    35f0:	f50c5800 			; <UNDEFINED> instruction: 0xf50c5800
    35f4:	05000009 	streq	r0, [r0, #-9]
    35f8:	0000f4e2 	andeq	pc, r0, r2, ror #9
    35fc:	3f0c5c00 	svccc	0x000c5c00
    3600:	05000009 	streq	r0, [r0, #-9]
    3604:	000025e3 	andeq	r2, r0, r3, ror #11
    3608:	15006400 	strne	r6, [r0, #-1024]	; 0x400
    360c:	00000025 	andeq	r0, r0, r5, lsr #32
    3610:	00000429 	andeq	r0, r0, r9, lsr #8
    3614:	00042916 	andeq	r2, r4, r6, lsl r9
    3618:	010a1600 	tsteq	sl, r0, lsl #12
    361c:	0c160000 	ldceq	0, cr0, [r6], {-0}
    3620:	16000001 	strne	r0, [r0], -r1
    3624:	00000025 	andeq	r0, r0, r5, lsr #32
    3628:	34040e00 	strcc	r0, [r4], #-3584	; 0xe00
    362c:	0f000004 	svceq	0x00000004
    3630:	00000429 	andeq	r0, r0, r9, lsr #8
    3634:	000a4217 	andeq	r4, sl, r7, lsl r2
    3638:	05042800 	streq	r2, [r4, #-2048]	; 0x800
    363c:	05660238 	strbeq	r0, [r6, #-568]!	; 0x238
    3640:	bd180000 	ldclt	0, cr0, [r8, #-0]
    3644:	05000009 	streq	r0, [r0, #-9]
    3648:	0025023a 	eoreq	r0, r5, sl, lsr r2
    364c:	18000000 	stmdane	r0, {}	; <UNPREDICTABLE>
    3650:	000007d6 	ldrdeq	r0, [r0], -r6
    3654:	3b023f05 	blcc	93270 <__bss_end__+0x88778>
    3658:	04000006 	streq	r0, [r0], #-6
    365c:	0008ca18 	andeq	ip, r8, r8, lsl sl
    3660:	023f0500 	eorseq	r0, pc, #0, 10
    3664:	0000063b 	andeq	r0, r0, fp, lsr r6
    3668:	088b1808 	stmeq	fp, {r3, fp, ip}
    366c:	3f050000 	svccc	0x00050000
    3670:	00063b02 	andeq	r3, r6, r2, lsl #22
    3674:	16180c00 	ldrne	r0, [r8], -r0, lsl #24
    3678:	0500000a 	streq	r0, [r0, #-10]
    367c:	00250241 	eoreq	r0, r5, r1, asr #4
    3680:	18100000 	ldmdane	r0, {}	; <UNPREDICTABLE>
    3684:	00000701 	andeq	r0, r0, r1, lsl #14
    3688:	1d024205 	sfmne	f4, 4, [r2, #-20]	; 0xffffffec
    368c:	14000008 	strne	r0, [r0], #-8
    3690:	000b3418 	andeq	r3, fp, r8, lsl r4
    3694:	02440500 	subeq	r0, r4, #0, 10
    3698:	00000025 	andeq	r0, r0, r5, lsr #32
    369c:	0a201830 	beq	809764 <__bss_end__+0x7fec6c>
    36a0:	45050000 	strmi	r0, [r5, #-0]
    36a4:	00058a02 	andeq	r8, r5, r2, lsl #20
    36a8:	83183400 	tsthi	r8, #0, 8
    36ac:	05000009 	streq	r0, [r0, #-9]
    36b0:	00250247 	eoreq	r0, r5, r7, asr #4
    36b4:	18380000 	ldmdane	r8!, {}	; <UNPREDICTABLE>
    36b8:	00000a30 	andeq	r0, r0, r0, lsr sl
    36bc:	38024905 	stmdacc	r2, {r0, r2, r8, fp, lr}
    36c0:	3c000008 	stccc	0, cr0, [r0], {8}
    36c4:	00091518 	andeq	r1, r9, r8, lsl r5
    36c8:	024c0500 	subeq	r0, ip, #0, 10
    36cc:	0000017c 	andeq	r0, r0, ip, ror r1
    36d0:	08aa1840 	stmiaeq	sl!, {r6, fp, ip}
    36d4:	4d050000 	stcmi	0, cr0, [r5, #-0]
    36d8:	00002502 	andeq	r2, r0, r2, lsl #10
    36dc:	3e184400 	cfmulscc	mvf4, mvf8, mvf0
    36e0:	0500000c 	streq	r0, [r0, #-12]
    36e4:	017c024e 	cmneq	ip, lr, asr #4
    36e8:	18480000 	stmdane	r8, {}^	; <UNPREDICTABLE>
    36ec:	0000099a 	muleq	r0, sl, r9
    36f0:	3e024f05 	cdpcc	15, 0, cr4, cr2, cr5, {0}
    36f4:	4c000008 	stcmi	0, cr0, [r0], {8}
    36f8:	0008d218 	andeq	sp, r8, r8, lsl r2
    36fc:	02520500 	subseq	r0, r2, #0, 10
    3700:	00000025 	andeq	r0, r0, r5, lsr #32
    3704:	07f91850 	ubfxeq	r1, r0, #16, #26
    3708:	53050000 	movwpl	r0, #20480	; 0x5000
    370c:	00010c02 	andeq	r0, r1, r2, lsl #24
    3710:	b6185400 	ldrlt	r5, [r8], -r0, lsl #8
    3714:	05000009 	streq	r0, [r0, #-9]
    3718:	07fb0276 			; <UNDEFINED> instruction: 0x07fb0276
    371c:	19580000 	ldmdbne	r8, {}^	; <UNPREDICTABLE>
    3720:	0000097b 	andeq	r0, r0, fp, ror r9
    3724:	99027a05 	stmdbls	r2, {r0, r2, r9, fp, ip, sp, lr}
    3728:	48000002 	stmdami	r0, {r1}
    372c:	08e71901 	stmiaeq	r7!, {r0, r8, fp, ip}^
    3730:	7b050000 	blvc	143738 <__bss_end__+0x138c40>
    3734:	00025b02 	andeq	r5, r2, r2, lsl #22
    3738:	19014c00 	stmdbne	r1, {sl, fp, lr}
    373c:	00000ba0 	andeq	r0, r0, r0, lsr #23
    3740:	4f027f05 	svcmi	0x00027f05
    3744:	dc000008 	stcle	0, cr0, [r0], {8}
    3748:	07bf1902 	ldreq	r1, [pc, r2, lsl #18]!
    374c:	84050000 	strhi	r0, [r5], #-0
    3750:	00060002 	andeq	r0, r6, r2
    3754:	1902e000 	stmdbne	r2, {sp, lr, pc}
    3758:	000007a4 	andeq	r0, r0, r4, lsr #15
    375c:	5b028505 	blpl	a4b78 <__bss_end__+0x9a080>
    3760:	ec000008 	stc	0, cr0, [r0], {8}
    3764:	040e0002 	streq	r0, [lr], #-2
    3768:	0000040b 	andeq	r0, r0, fp, lsl #8
    376c:	00002515 	andeq	r2, r0, r5, lsl r5
    3770:	00058a00 	andeq	r8, r5, r0, lsl #20
    3774:	04291600 	strteq	r1, [r9], #-1536	; 0x600
    3778:	0a160000 	beq	583780 <__bss_end__+0x578c88>
    377c:	16000001 	strne	r0, [r0], -r1
    3780:	0000058a 	andeq	r0, r0, sl, lsl #11
    3784:	00002516 	andeq	r2, r0, r6, lsl r5
    3788:	040e0000 	streq	r0, [lr], #-0
    378c:	00000119 	andeq	r0, r0, r9, lsl r1
    3790:	056c040e 	strbeq	r0, [ip, #-1038]!	; 0x40e
    3794:	86150000 	ldrhi	r0, [r5], -r0
    3798:	b4000000 	strlt	r0, [r0], #-0
    379c:	16000005 	strne	r0, [r0], -r5
    37a0:	00000429 	andeq	r0, r0, r9, lsr #8
    37a4:	00010a16 	andeq	r0, r1, r6, lsl sl
    37a8:	00861600 	addeq	r1, r6, r0, lsl #12
    37ac:	25160000 	ldrcs	r0, [r6, #-0]
    37b0:	00000000 	andeq	r0, r0, r0
    37b4:	0596040e 	ldreq	r0, [r6, #1038]	; 0x40e
    37b8:	25150000 	ldrcs	r0, [r5, #-0]
    37bc:	ce000000 	cdpgt	0, 0, cr0, cr0, cr0, {0}
    37c0:	16000005 	strne	r0, [r0], -r5
    37c4:	00000429 	andeq	r0, r0, r9, lsr #8
    37c8:	00010a16 	andeq	r0, r1, r6, lsl sl
    37cc:	040e0000 	streq	r0, [lr], #-0
    37d0:	000005ba 			; <UNDEFINED> instruction: 0x000005ba
    37d4:	00005409 	andeq	r5, r0, r9, lsl #8
    37d8:	0005e400 	andeq	lr, r5, r0, lsl #8
    37dc:	00cc0a00 	sbceq	r0, ip, r0, lsl #20
    37e0:	00020000 	andeq	r0, r2, r0
    37e4:	00005409 	andeq	r5, r0, r9, lsl #8
    37e8:	0005f400 	andeq	pc, r5, r0, lsl #8
    37ec:	00cc0a00 	sbceq	r0, ip, r0, lsl #20
    37f0:	00000000 	andeq	r0, r0, r0
    37f4:	0009db06 	andeq	sp, r9, r6, lsl #22
    37f8:	011d0500 	tsteq	sp, r0, lsl #10
    37fc:	000002e1 	andeq	r0, r0, r1, ror #5
    3800:	000b621a 	andeq	r6, fp, sl, lsl r2
    3804:	21050c00 	tstcs	r5, r0, lsl #24
    3808:	00063501 	andeq	r3, r6, r1, lsl #10
    380c:	0a031800 	beq	c9814 <__bss_end__+0xbed1c>
    3810:	23050000 	movwcs	r0, #20480	; 0x5000
    3814:	00063501 	andeq	r3, r6, r1, lsl #10
    3818:	e0180000 	ands	r0, r8, r0
    381c:	05000008 	streq	r0, [r0, #-8]
    3820:	00250124 	eoreq	r0, r5, r4, lsr #2
    3824:	18040000 	stmdane	r4, {}	; <UNPREDICTABLE>
    3828:	000009d5 	ldrdeq	r0, [r0], -r5
    382c:	3b012505 	blcc	4cc48 <__bss_end__+0x42150>
    3830:	08000006 	stmdaeq	r0, {r1, r2}
    3834:	00040e00 	andeq	r0, r4, r0, lsl #28
    3838:	0e000006 	cdpeq	0, 0, cr0, cr0, cr6, {0}
    383c:	0005f404 	andeq	pc, r5, r4, lsl #8
    3840:	06f91a00 	ldrbteq	r1, [r9], r0, lsl #20
    3844:	050e0000 	streq	r0, [lr, #-0]
    3848:	0676013d 			; <UNDEFINED> instruction: 0x0676013d
    384c:	49180000 	ldmdbmi	r8, {}	; <UNPREDICTABLE>
    3850:	0500000a 	streq	r0, [r0, #-10]
    3854:	0676013e 			; <UNDEFINED> instruction: 0x0676013e
    3858:	18000000 	stmdane	r0, {}	; <UNPREDICTABLE>
    385c:	00000a83 	andeq	r0, r0, r3, lsl #21
    3860:	76013f05 	strvc	r3, [r1], -r5, lsl #30
    3864:	06000006 	streq	r0, [r0], -r6
    3868:	000b0718 	andeq	r0, fp, r8, lsl r7
    386c:	01400500 	cmpeq	r0, r0, lsl #10
    3870:	0000005b 	andeq	r0, r0, fp, asr r0
    3874:	5b09000c 	blpl	2438ac <__bss_end__+0x238db4>
    3878:	86000000 	strhi	r0, [r0], -r0
    387c:	0a000006 	beq	389c <_start-0x4764>
    3880:	000000cc 	andeq	r0, r0, ip, asr #1
    3884:	d01b0002 	andsle	r0, fp, r2
    3888:	87025705 	strhi	r5, [r2, -r5, lsl #14]
    388c:	18000007 	stmdane	r0, {r0, r1, r2}
    3890:	00000b46 	andeq	r0, r0, r6, asr #22
    3894:	2c025905 	stccs	9, cr5, [r2], {5}
    3898:	00000000 	andeq	r0, r0, r0
    389c:	000af118 	andeq	pc, sl, r8, lsl r1	; <UNPREDICTABLE>
    38a0:	025a0500 	subseq	r0, sl, #0, 10
    38a4:	0000010c 	andeq	r0, r0, ip, lsl #2
    38a8:	08fc1804 	ldmeq	ip!, {r2, fp, ip}^
    38ac:	5b050000 	blpl	1438b4 <__bss_end__+0x138dbc>
    38b0:	00078702 	andeq	r8, r7, r2, lsl #14
    38b4:	15180800 	ldrne	r0, [r8, #-2048]	; 0x800
    38b8:	0500000c 	streq	r0, [r0, #-12]
    38bc:	0192025c 	orrseq	r0, r2, ip, asr r2
    38c0:	18240000 	stmdane	r4!, {}	; <UNPREDICTABLE>
    38c4:	0000089b 	muleq	r0, fp, r8
    38c8:	25025d05 	strcs	r5, [r2, #-3333]	; 0xd05
    38cc:	48000000 	stmdami	r0, {}	; <UNPREDICTABLE>
    38d0:	0009fe18 	andeq	pc, r9, r8, lsl lr	; <UNPREDICTABLE>
    38d4:	025e0500 	subseq	r0, lr, #0, 10
    38d8:	00000069 	andeq	r0, r0, r9, rrx
    38dc:	0c2b1850 	stceq	8, cr1, [fp], #-320	; 0xfffffec0
    38e0:	5f050000 	svcpl	0x00050000
    38e4:	00064102 	andeq	r4, r6, r2, lsl #2
    38e8:	09185800 	ldmdbeq	r8, {fp, ip, lr}
    38ec:	0500000a 	streq	r0, [r0, #-10]
    38f0:	00f40260 	rscseq	r0, r4, r0, ror #4
    38f4:	18680000 	stmdane	r8!, {}^	; <UNPREDICTABLE>
    38f8:	00000c30 	andeq	r0, r0, r0, lsr ip
    38fc:	f4026105 	vst4.8	{d6,d8,d10,d12}, [r2], r5
    3900:	70000000 	andvc	r0, r0, r0
    3904:	00075e18 	andeq	r5, r7, r8, lsl lr
    3908:	02620500 	rsbeq	r0, r2, #0, 10
    390c:	000000f4 	strdeq	r0, [r0], -r4
    3910:	0b821878 	bleq	fe089af8 <__bss_end__+0xfe07f000>
    3914:	63050000 	movwvs	r0, #20480	; 0x5000
    3918:	00079702 	andeq	r9, r7, r2, lsl #14
    391c:	f0188000 			; <UNDEFINED> instruction: 0xf0188000
    3920:	05000008 	streq	r0, [r0, #-8]
    3924:	07a70264 	streq	r0, [r7, r4, ror #4]!
    3928:	18880000 	stmne	r8, {}	; <UNPREDICTABLE>
    392c:	00000b14 	andeq	r0, r0, r4, lsl fp
    3930:	25026505 	strcs	r6, [r2, #-1285]	; 0x505
    3934:	a0000000 	andge	r0, r0, r0
    3938:	00084718 	andeq	r4, r8, r8, lsl r7
    393c:	02660500 	rsbeq	r0, r6, #0, 10
    3940:	000000f4 	strdeq	r0, [r0], -r4
    3944:	074f18a4 	strbeq	r1, [pc, -r4, lsr #17]
    3948:	67050000 	strvs	r0, [r5, -r0]
    394c:	0000f402 	andeq	pc, r0, r2, lsl #8
    3950:	3618ac00 	ldrcc	sl, [r8], -r0, lsl #24
    3954:	05000008 	streq	r0, [r0, #-8]
    3958:	00f40268 	rscseq	r0, r4, r8, ror #4
    395c:	18b40000 	ldmne	r4!, {}	; <UNPREDICTABLE>
    3960:	00000716 	andeq	r0, r0, r6, lsl r7
    3964:	f4026905 	vst2.8	{d6,d8}, [r2], r5
    3968:	bc000000 	stclt	0, cr0, [r0], {-0}
    396c:	00072518 	andeq	r2, r7, r8, lsl r5
    3970:	026a0500 	rsbeq	r0, sl, #0, 10
    3974:	000000f4 	strdeq	r0, [r0], -r4
    3978:	09bb18c4 	ldmibeq	fp!, {r2, r6, r7, fp, ip}
    397c:	6b050000 	blvs	143984 <__bss_end__+0x138e8c>
    3980:	00002502 	andeq	r2, r0, r2, lsl #10
    3984:	0900cc00 	stmdbeq	r0, {sl, fp, lr, pc}
    3988:	00000112 	andeq	r0, r0, r2, lsl r1
    398c:	00000797 	muleq	r0, r7, r7
    3990:	0000cc0a 	andeq	ip, r0, sl, lsl #24
    3994:	09001900 	stmdbeq	r0, {r8, fp, ip}
    3998:	00000112 	andeq	r0, r0, r2, lsl r1
    399c:	000007a7 	andeq	r0, r0, r7, lsr #15
    39a0:	0000cc0a 	andeq	ip, r0, sl, lsl #24
    39a4:	09000700 	stmdbeq	r0, {r8, r9, sl}
    39a8:	00000112 	andeq	r0, r0, r2, lsl r1
    39ac:	000007b7 			; <UNDEFINED> instruction: 0x000007b7
    39b0:	0000cc0a 	andeq	ip, r0, sl, lsl #24
    39b4:	1b001700 	blne	95bc <va_printk+0x1cc>
    39b8:	027005f0 	rsbseq	r0, r0, #240, 10	; 0x3c000000
    39bc:	000007db 	ldrdeq	r0, [r0], -fp
    39c0:	00096b18 	andeq	r6, r9, r8, lsl fp
    39c4:	02730500 	rsbseq	r0, r3, #0, 10
    39c8:	000007db 	ldrdeq	r0, [r0], -fp
    39cc:	0b791800 	bleq	1e499d4 <__bss_end__+0x1e3eedc>
    39d0:	74050000 	strvc	r0, [r5], #-0
    39d4:	0007eb02 	andeq	lr, r7, r2, lsl #22
    39d8:	09007800 	stmdbeq	r0, {fp, ip, sp, lr}
    39dc:	000002db 	ldrdeq	r0, [r0], -fp
    39e0:	000007eb 	andeq	r0, r0, fp, ror #15
    39e4:	0000cc0a 	andeq	ip, r0, sl, lsl #24
    39e8:	09001d00 	stmdbeq	r0, {r8, sl, fp, ip}
    39ec:	0000002c 	andeq	r0, r0, ip, lsr #32
    39f0:	000007fb 	strdeq	r0, [r0], -fp
    39f4:	0000cc0a 	andeq	ip, r0, sl, lsl #24
    39f8:	1c001d00 	stcne	13, cr1, [r0], {-0}
    39fc:	025505f0 	subseq	r0, r5, #240, 10	; 0x3c000000
    3a00:	0000081d 	andeq	r0, r0, sp, lsl r8
    3a04:	000a421d 	andeq	r4, sl, sp, lsl r2
    3a08:	026c0500 	rsbeq	r0, ip, #0, 10
    3a0c:	00000686 	andeq	r0, r0, r6, lsl #13
    3a10:	000bd51d 	andeq	sp, fp, sp, lsl r5
    3a14:	02750500 	rsbseq	r0, r5, #0, 10
    3a18:	000007b7 			; <UNDEFINED> instruction: 0x000007b7
    3a1c:	01120900 	tsteq	r2, r0, lsl #18
    3a20:	082d0000 	stmdaeq	sp!, {}	; <UNPREDICTABLE>
    3a24:	cc0a0000 	stcgt	0, cr0, [sl], {-0}
    3a28:	18000000 	stmdane	r0, {}	; <UNPREDICTABLE>
    3a2c:	08381e00 	ldmdaeq	r8!, {r9, sl, fp, ip}
    3a30:	29160000 	ldmdbcs	r6, {}	; <UNPREDICTABLE>
    3a34:	00000004 	andeq	r0, r0, r4
    3a38:	082d040e 	stmdaeq	sp!, {r1, r2, r3, sl}
    3a3c:	040e0000 	streq	r0, [lr], #-0
    3a40:	0000017c 	andeq	r0, r0, ip, ror r1
    3a44:	00084f1e 	andeq	r4, r8, lr, lsl pc
    3a48:	00251600 	eoreq	r1, r5, r0, lsl #12
    3a4c:	0e000000 	cdpeq	0, 0, cr0, cr0, cr0, {0}
    3a50:	00085504 	andeq	r5, r8, r4, lsl #10
    3a54:	44040e00 	strmi	r0, [r4], #-3584	; 0xe00
    3a58:	09000008 	stmdbeq	r0, {r3}
    3a5c:	000005f4 	strdeq	r0, [r0], -r4
    3a60:	0000086b 	andeq	r0, r0, fp, ror #16
    3a64:	0000cc0a 	andeq	ip, r0, sl, lsl #24
    3a68:	1f000200 	svcne	0x00000200
    3a6c:	00000b28 	andeq	r0, r0, r8, lsr #22
    3a70:	2902fd05 	stmdbcs	r2, {r0, r2, r8, sl, fp, ip, sp, lr, pc}
    3a74:	1f000004 	svcne	0x00000004
    3a78:	00000b21 	andeq	r0, r0, r1, lsr #22
    3a7c:	2f02fe05 	svccs	0x0002fe05
    3a80:	15000004 	strne	r0, [r0, #-4]
    3a84:	00000025 	andeq	r0, r0, r5, lsr #32
    3a88:	00000892 	muleq	r0, r2, r8
    3a8c:	00002516 	andeq	r2, r0, r6, lsl r5
    3a90:	2b200000 	blcs	803a98 <__bss_end__+0x7f8fa0>
    3a94:	06000005 	streq	r0, [r0], -r5
    3a98:	00089d1d 	andeq	r9, r8, sp, lsl sp
    3a9c:	83040e00 	movwhi	r0, #19968	; 0x4e00
    3aa0:	15000008 	strne	r0, [r0, #-8]
    3aa4:	00000025 	andeq	r0, r0, r5, lsr #32
    3aa8:	000008b2 			; <UNDEFINED> instruction: 0x000008b2
    3aac:	00058a16 	andeq	r8, r5, r6, lsl sl
    3ab0:	68200000 	stmdavs	r0!, {}	; <UNPREDICTABLE>
    3ab4:	06000005 	streq	r0, [r0], -r5
    3ab8:	0008bd22 	andeq	fp, r8, r2, lsr #26
    3abc:	a3040e00 	movwge	r0, #19968	; 0x4e00
    3ac0:	21000008 	tstcs	r0, r8
    3ac4:	00005401 	andeq	r5, r0, r1, lsl #8
    3ac8:	000c0800 	andeq	r0, ip, r0, lsl #16
    3acc:	22000009 	andcs	r0, r0, #9
    3ad0:	0000073f 	andeq	r0, r0, pc, lsr r7
    3ad4:	0b682200 	bleq	1a0c2dc <__bss_end__+0x1a017e4>
    3ad8:	22010000 	andcs	r0, r1, #0
    3adc:	00000bc0 	andeq	r0, r0, r0, asr #23
    3ae0:	07802204 	streq	r2, [r0, r4, lsl #4]
    3ae4:	22050000 	andcs	r0, r5, #0
    3ae8:	00000923 	andeq	r0, r0, r3, lsr #18
    3aec:	0bdd2206 	bleq	ff74c30c <__bss_end__+0xff741814>
    3af0:	22070000 	andcs	r0, r7, #0
    3af4:	00000bec 	andeq	r0, r0, ip, ror #23
    3af8:	0bfb2203 	bleq	ffecc30c <__bss_end__+0xffec1814>
    3afc:	00020000 	andeq	r0, r2, r0
    3b00:	0007ed10 	andeq	lr, r7, r0, lsl sp
    3b04:	06072c00 	streq	r2, [r7], -r0, lsl #24
    3b08:	00000990 	muleq	r0, r0, r9
    3b0c:	006f6911 	rsbeq	r6, pc, r1, lsl r9	; <UNPREDICTABLE>
    3b10:	00330907 	eorseq	r0, r3, r7, lsl #18
    3b14:	11000000 	mrsne	r0, (UNDEF: 0)
    3b18:	00726569 	rsbseq	r6, r2, r9, ror #10
    3b1c:	00330a07 	eorseq	r0, r3, r7, lsl #20
    3b20:	11040000 	mrsne	r0, (UNDEF: 4)
    3b24:	00726969 	rsbseq	r6, r2, r9, ror #18
    3b28:	00331107 	eorseq	r1, r3, r7, lsl #2
    3b2c:	11080000 	mrsne	r0, (UNDEF: 8)
    3b30:	0072636c 	rsbseq	r6, r2, ip, ror #6
    3b34:	00331307 	eorseq	r1, r3, r7, lsl #6
    3b38:	110c0000 	mrsne	r0, (UNDEF: 12)
    3b3c:	0072636d 	rsbseq	r6, r2, sp, ror #6
    3b40:	00331407 	eorseq	r1, r3, r7, lsl #8
    3b44:	11100000 	tstne	r0, r0
    3b48:	0072736c 	rsbseq	r7, r2, ip, ror #6
    3b4c:	00331507 	eorseq	r1, r3, r7, lsl #10
    3b50:	11140000 	tstne	r4, r0
    3b54:	0072736d 	rsbseq	r7, r2, sp, ror #6
    3b58:	00331607 	eorseq	r1, r3, r7, lsl #12
    3b5c:	0c180000 	ldceq	0, cr0, [r8], {-0}
    3b60:	00000a7b 	andeq	r0, r0, fp, ror sl
    3b64:	00331707 	eorseq	r1, r3, r7, lsl #14
    3b68:	0c1c0000 	ldceq	0, cr0, [ip], {-0}
    3b6c:	00000795 	muleq	r0, r5, r7
    3b70:	00331b07 	eorseq	r1, r3, r7, lsl #22
    3b74:	0c200000 	stceq	0, cr0, [r0], #-0
    3b78:	00000775 	andeq	r0, r0, r5, ror r7
    3b7c:	00331d07 	eorseq	r1, r3, r7, lsl #26
    3b80:	0c240000 	stceq	0, cr0, [r4], #-0
    3b84:	00000a65 	andeq	r0, r0, r5, ror #20
    3b88:	00331e07 	eorseq	r1, r3, r7, lsl #28
    3b8c:	00280000 	eoreq	r0, r8, r0
    3b90:	00085d23 	andeq	r5, r8, r3, lsr #26
    3b94:	a5070100 	strge	r0, [r7, #-256]	; 0x100
    3b98:	04000009 	streq	r0, [r0], #-9
    3b9c:	0e202150 	mcreq	1, 1, r2, cr0, cr0, {2}
    3ba0:	00003304 	andeq	r3, r0, r4, lsl #6
    3ba4:	099f0f00 	ldmibeq	pc, {r8, r9, sl, fp}	; <UNPREDICTABLE>
    3ba8:	95230000 	strls	r0, [r3, #-0]!
    3bac:	01000009 	tsteq	r0, r9
    3bb0:	0009bf28 	andeq	fp, r9, r8, lsr #30
    3bb4:	21504000 	cmpcs	r0, r0
    3bb8:	00040e20 	andeq	r0, r4, r0, lsr #28
    3bbc:	0f000009 	svceq	0x00000009
    3bc0:	000009b9 			; <UNDEFINED> instruction: 0x000009b9
    3bc4:	000bb224 	andeq	fp, fp, r4, lsr #4
    3bc8:	25a70100 	strcs	r0, [r7, #256]!	; 0x100
    3bcc:	84000000 	strhi	r0, [r0], #-0
    3bd0:	10000099 	mulne	r0, r9, r0
    3bd4:	01000000 	mrseq	r0, (UNDEF: 0)
    3bd8:	0009f09c 	muleq	r9, ip, r0
    3bdc:	998c2500 	stmibls	ip, {r8, sl, sp}
    3be0:	0c9c0000 	ldceq	0, cr0, [ip], {0}
    3be4:	90250000 	eorls	r0, r5, r0
    3be8:	d2000099 	andle	r0, r0, #153	; 0x99
    3bec:	0000000a 	andeq	r0, r0, sl
    3bf0:	00051026 	andeq	r1, r5, r6, lsr #32
    3bf4:	549f0100 	ldrpl	r0, [pc], #256	; 3bfc <_start-0x4404>
    3bf8:	30000099 	mulcc	r0, r9, r0
    3bfc:	01000000 	mrseq	r0, (UNDEF: 0)
    3c00:	000a4e9c 	muleq	sl, ip, lr
    3c04:	00632700 	rsbeq	r2, r3, r0, lsl #14
    3c08:	002c9f01 	eoreq	r9, ip, r1, lsl #30
    3c0c:	146d0000 	strbtne	r0, [sp], #-0
    3c10:	60250000 	eorvs	r0, r5, r0
    3c14:	9c000099 	stcls	0, cr0, [r0], {153}	; 0x99
    3c18:	2500000c 	strcs	r0, [r0, #-12]
    3c1c:	00009964 	andeq	r9, r0, r4, ror #18
    3c20:	00000aa5 	andeq	r0, r0, r5, lsr #21
    3c24:	00997828 	addseq	r7, r9, r8, lsr #16
    3c28:	000ca700 	andeq	sl, ip, r0, lsl #14
    3c2c:	000a4400 	andeq	r4, sl, r0, lsl #8
    3c30:	50012900 	andpl	r2, r1, r0, lsl #18
    3c34:	50400c05 	subpl	r0, r0, r5, lsl #24
    3c38:	01292021 	teqeq	r9, r1, lsr #32
    3c3c:	00740551 	rsbseq	r0, r4, r1, asr r5
    3c40:	001aff08 	andseq	pc, sl, r8, lsl #30
    3c44:	00997c25 	addseq	r7, r9, r5, lsr #24
    3c48:	000c9c00 	andeq	r9, ip, r0, lsl #24
    3c4c:	c0240000 	eorgt	r0, r4, r0
    3c50:	01000008 	tsteq	r0, r8
    3c54:	00002597 	muleq	r0, r7, r5
    3c58:	00992400 	addseq	r2, r9, r0, lsl #8
    3c5c:	00003000 	andeq	r3, r0, r0
    3c60:	a59c0100 	ldrge	r0, [ip, #256]	; 0x100
    3c64:	2a00000a 	bcs	3c94 <_start-0x436c>
    3c68:	9b010063 	blls	43dfc <__bss_end__+0x39304>
    3c6c:	00000025 	andeq	r0, r0, r5, lsr #32
    3c70:	2c255401 	cfstrscs	mvf5, [r5], #-4
    3c74:	9c000099 	stcls	0, cr0, [r0], {153}	; 0x99
    3c78:	2500000c 	strcs	r0, [r0, #-12]
    3c7c:	00009930 	andeq	r9, r0, r0, lsr r9
    3c80:	00000ad2 	ldrdeq	r0, [r0], -r2
    3c84:	00994028 	addseq	r4, r9, r8, lsr #32
    3c88:	000cb200 	andeq	fp, ip, r0, lsl #4
    3c8c:	000a9b00 	andeq	r9, sl, r0, lsl #22
    3c90:	50012900 	andpl	r2, r1, r0, lsl #18
    3c94:	50400c05 	subpl	r0, r0, r5, lsl #24
    3c98:	25002021 	strcs	r2, [r0, #-33]	; 0x21
    3c9c:	00009948 	andeq	r9, r0, r8, asr #18
    3ca0:	00000c9c 	muleq	r0, ip, ip
    3ca4:	08742400 	ldmdaeq	r4!, {sl, sp}^
    3ca8:	88010000 	stmdahi	r1, {}	; <UNPREDICTABLE>
    3cac:	00000025 	andeq	r0, r0, r5, lsr #32
    3cb0:	00009904 	andeq	r9, r0, r4, lsl #18
    3cb4:	00000020 	andeq	r0, r0, r0, lsr #32
    3cb8:	0ad29c01 	beq	ff4aacc4 <__bss_end__+0xff4a01cc>
    3cbc:	102b0000 	eorne	r0, fp, r0
    3cc0:	b2000099 	andlt	r0, r0, #153	; 0x99
    3cc4:	2900000c 	stmdbcs	r0, {r2, r3}
    3cc8:	0c055001 	stceq	0, cr5, [r5], {1}
    3ccc:	20215064 	eorcs	r5, r1, r4, rrx
    3cd0:	92240000 	eorls	r0, r4, #0
    3cd4:	0100000b 	tsteq	r0, fp
    3cd8:	0000257f 	andeq	r2, r0, pc, ror r5
    3cdc:	0098ec00 	addseq	lr, r8, r0, lsl #24
    3ce0:	00001800 	andeq	r1, r0, r0, lsl #16
    3ce4:	ff9c0100 			; <UNDEFINED> instruction: 0xff9c0100
    3ce8:	2b00000a 	blcs	3d18 <_start-0x42e8>
    3cec:	000098f8 	strdeq	r9, [r0], -r8
    3cf0:	00000cb2 			; <UNDEFINED> instruction: 0x00000cb2
    3cf4:	05500129 	ldrbeq	r0, [r0, #-297]	; 0x129
    3cf8:	2150640c 	cmpcs	r0, ip, lsl #8
    3cfc:	26000020 	strcs	r0, [r0], -r0, lsr #32
    3d00:	0000070c 	andeq	r0, r0, ip, lsl #14
    3d04:	983c3a01 	ldmdals	ip!, {r0, r9, fp, ip, sp}
    3d08:	00b00000 	adcseq	r0, r0, r0
    3d0c:	9c010000 	stcls	0, cr0, [r1], {-0}
    3d10:	00000c3d 	andeq	r0, r0, sp, lsr ip
    3d14:	00984c28 	addseq	r4, r8, r8, lsr #24
    3d18:	000cbd00 	andeq	fp, ip, r0, lsl #26
    3d1c:	000b2c00 	andeq	r2, fp, r0, lsl #24
    3d20:	50012900 	andpl	r2, r1, r0, lsl #18
    3d24:	01293e01 	teqeq	r9, r1, lsl #28
    3d28:	00320151 	eorseq	r0, r2, r1, asr r1
    3d2c:	00985828 	addseq	r5, r8, r8, lsr #16
    3d30:	000cbd00 	andeq	fp, ip, r0, lsl #26
    3d34:	000b4400 	andeq	r4, fp, r0, lsl #8
    3d38:	50012900 	andpl	r2, r1, r0, lsl #18
    3d3c:	01293f01 	teqeq	r9, r1, lsl #30
    3d40:	00320151 	eorseq	r0, r2, r1, asr r1
    3d44:	00985c25 	addseq	r5, r8, r5, lsr #24
    3d48:	000c9c00 	andeq	r9, ip, r0, lsl #24
    3d4c:	98682800 	stmdals	r8!, {fp, sp}^
    3d50:	0c3d0000 	ldceq	0, cr0, [sp], #-0
    3d54:	0b690000 	bleq	1a43d5c <__bss_end__+0x1a39264>
    3d58:	01290000 	teqeq	r9, r0
    3d5c:	040c0550 	streq	r0, [ip], #-1360	; 0x550
    3d60:	29202150 	stmdbcs	r0!, {r4, r6, r8, sp}
    3d64:	31015101 	tstcc	r1, r1, lsl #2
    3d68:	986c2500 	stmdals	ip!, {r8, sl, sp}^
    3d6c:	0c9c0000 	ldceq	0, cr0, [ip], {0}
    3d70:	7c280000 	stcvc	0, cr0, [r8], #-0
    3d74:	a7000098 			; <UNDEFINED> instruction: 0xa7000098
    3d78:	8b00000c 	blhi	3db0 <_start-0x4250>
    3d7c:	2900000b 	stmdbcs	r0, {r0, r1, r3}
    3d80:	74025001 	strvc	r5, [r2], #-1
    3d84:	51012900 	tstpl	r1, r0, lsl #18
    3d88:	28003001 	stmdacs	r0, {r0, ip, sp}
    3d8c:	00009888 	andeq	r9, r0, r8, lsl #17
    3d90:	00000ca7 	andeq	r0, r0, r7, lsr #25
    3d94:	00000ba7 	andeq	r0, r0, r7, lsr #23
    3d98:	05500129 	ldrbeq	r0, [r0, #-297]	; 0x129
    3d9c:	2150440c 	cmpcs	r0, ip, lsl #8
    3da0:	51012920 	tstpl	r1, r0, lsr #18
    3da4:	28003001 	stmdacs	r0, {r0, ip, sp}
    3da8:	00009894 	muleq	r0, r4, r8
    3dac:	00000ca7 	andeq	r0, r0, r7, lsr #25
    3db0:	00000bc3 	andeq	r0, r0, r3, asr #23
    3db4:	05500129 	ldrbeq	r0, [r0, #-297]	; 0x129
    3db8:	21504c0c 	cmpcs	r0, ip, lsl #24
    3dbc:	51012920 	tstpl	r1, r0, lsr #18
    3dc0:	28003301 	stmdacs	r0, {r0, r8, r9, ip, sp}
    3dc4:	000098a0 	andeq	r9, r0, r0, lsr #17
    3dc8:	00000ca7 	andeq	r0, r0, r7, lsr #25
    3dcc:	00000bdf 	ldrdeq	r0, [r0], -pc	; <UNPREDICTABLE>
    3dd0:	05500129 	ldrbeq	r0, [r0, #-297]	; 0x129
    3dd4:	2150500c 	cmpcs	r0, ip
    3dd8:	51012920 	tstpl	r1, r0, lsr #18
    3ddc:	28003001 	stmdacs	r0, {r0, ip, sp}
    3de0:	000098ac 	andeq	r9, r0, ip, lsr #17
    3de4:	00000ca7 	andeq	r0, r0, r7, lsr #25
    3de8:	00000bfc 	strdeq	r0, [r0], -ip
    3dec:	05500129 	ldrbeq	r0, [r0, #-297]	; 0x129
    3df0:	2150480c 	cmpcs	r0, ip, lsl #16
    3df4:	51012920 	tstpl	r1, r0, lsr #18
    3df8:	00c70802 	sbceq	r0, r7, r2, lsl #16
    3dfc:	0098b828 	addseq	fp, r8, r8, lsr #16
    3e00:	000ca700 	andeq	sl, ip, r0, lsl #14
    3e04:	000c1a00 	andeq	r1, ip, r0, lsl #20
    3e08:	50012900 	andpl	r2, r1, r0, lsl #18
    3e0c:	50680c05 	rsbpl	r0, r8, r5, lsl #24
    3e10:	01292021 	teqeq	r9, r1, lsr #32
    3e14:	0e0a0351 	mcreq	3, 0, r0, cr10, cr1, {2}
    3e18:	c4280001 	strtgt	r0, [r8], #-1
    3e1c:	a7000098 			; <UNDEFINED> instruction: 0xa7000098
    3e20:	3300000c 	movwcc	r0, #12
    3e24:	2900000c 	stmdbcs	r0, {r2, r3}
    3e28:	74025001 	strvc	r5, [r2], #-1
    3e2c:	51012900 	tstpl	r1, r0, lsl #18
    3e30:	25003301 	strcs	r3, [r0, #-769]	; 0x301
    3e34:	000098c8 	andeq	r9, r0, r8, asr #17
    3e38:	00000c9c 	muleq	r0, ip, ip
    3e3c:	0baa2c00 	bleq	fea8ee44 <__bss_end__+0xfea8434c>
    3e40:	2d010000 	stccs	0, cr0, [r1, #-0]
    3e44:	0000981c 	andeq	r9, r0, ip, lsl r8
    3e48:	00000020 	andeq	r0, r0, r0, lsr #32
    3e4c:	0c959c01 	ldceq	12, cr9, [r5], {1}
    3e50:	522d0000 	eorpl	r0, sp, #0
    3e54:	0100000d 	tsteq	r0, sp
    3e58:	000c952d 	andeq	r9, ip, sp, lsr #10
    3e5c:	00148b00 	andseq	r8, r4, r0, lsl #22
    3e60:	61762700 	cmnvs	r6, r0, lsl #14
    3e64:	2d01006c 	stccs	0, cr0, [r1, #-432]	; 0xfffffe50
    3e68:	0000002c 	andeq	r0, r0, ip, lsr #32
    3e6c:	000014a9 	andeq	r1, r0, r9, lsr #9
    3e70:	00982c28 	addseq	r2, r8, r8, lsr #24
    3e74:	000cb200 	andeq	fp, ip, r0, lsl #4
    3e78:	000c8400 	andeq	r8, ip, r0, lsl #8
    3e7c:	50012900 	andpl	r2, r1, r0, lsl #18
    3e80:	00007402 	andeq	r7, r0, r2, lsl #8
    3e84:	0098382b 	addseq	r3, r8, fp, lsr #16
    3e88:	000ca700 	andeq	sl, ip, r0, lsl #14
    3e8c:	50012900 	andpl	r2, r1, r0, lsl #18
    3e90:	00007402 	andeq	r7, r0, r2, lsl #8
    3e94:	9b040e00 	blls	10769c <__bss_end__+0xfcba4>
    3e98:	2e00000c 	cdpcs	0, 0, cr0, cr0, cr12, {0}
    3e9c:	0009092f 	andeq	r0, r9, pc, lsr #18
    3ea0:	00090900 	andeq	r0, r9, r0, lsl #18
    3ea4:	2f890600 	svccs	0x00890600
    3ea8:	00000a89 	andeq	r0, r0, r9, lsl #21
    3eac:	00000a89 	andeq	r0, r0, r9, lsl #21
    3eb0:	8c2f9c06 	stchi	12, cr9, [pc], #-24	; 3ea0 <_start-0x4160>
    3eb4:	8c00000b 	stchi	0, cr0, [r0], {11}
    3eb8:	0600000b 	streq	r0, [r0], -fp
    3ebc:	09592fa8 	ldmdbeq	r9, {r3, r5, r7, r8, r9, sl, fp, sp}^
    3ec0:	09590000 	ldmdbeq	r9, {}^	; <UNPREDICTABLE>
    3ec4:	19080000 	stmdbne	r8, {}	; <UNPREDICTABLE>
    3ec8:	000b7000 	andeq	r7, fp, r0
    3ecc:	e9000400 	stmdb	r0, {sl}
    3ed0:	04000011 	streq	r0, [r0], #-17
    3ed4:	000a8f01 	andeq	r8, sl, r1, lsl #30
    3ed8:	0c5f0c00 	mrrceq	12, 0, r0, pc, cr0	; <UNPREDICTABLE>
    3edc:	08010000 	stmdaeq	r1, {}	; <UNPREDICTABLE>
    3ee0:	99940000 	ldmibls	r4, {}	; <UNPREDICTABLE>
    3ee4:	01200000 	teqeq	r0, r0
    3ee8:	103f0000 	eorsne	r0, pc, r0
    3eec:	04020000 	streq	r0, [r2], #-0
    3ef0:	746e6905 	strbtvc	r6, [lr], #-2309	; 0x905
    3ef4:	07040300 	streq	r0, [r4, -r0, lsl #6]
    3ef8:	0000015a 	andeq	r0, r0, sl, asr r1
    3efc:	00002c04 	andeq	r2, r0, r4, lsl #24
    3f00:	06010300 	streq	r0, [r1], -r0, lsl #6
    3f04:	00000128 	andeq	r0, r0, r8, lsr #2
    3f08:	7e050203 	cdpvc	2, 0, cr0, cr5, cr3, {0}
    3f0c:	03000001 	movweq	r0, #1
    3f10:	01750504 	cmneq	r5, r4, lsl #10
    3f14:	08030000 	stmdaeq	r3, {}	; <UNPREDICTABLE>
    3f18:	00017005 	andeq	r7, r1, r5
    3f1c:	08010300 	stmdaeq	r1, {r8, r9}
    3f20:	00000126 	andeq	r0, r0, r6, lsr #2
    3f24:	fc070203 	stc2	2, cr0, [r7], {3}
    3f28:	03000000 	movweq	r0, #0
    3f2c:	01550704 	cmpeq	r5, r4, lsl #14
    3f30:	08030000 	stmdaeq	r3, {}	; <UNPREDICTABLE>
    3f34:	00015007 	andeq	r5, r1, r7
    3f38:	09a40500 	stmibeq	r4!, {r8, sl}
    3f3c:	07020000 	streq	r0, [r2, -r0]
    3f40:	00000025 	andeq	r0, r0, r5, lsr #32
    3f44:	00098e05 	andeq	r8, r9, r5, lsl #28
    3f48:	462c0300 	strtmi	r0, [ip], -r0, lsl #6
    3f4c:	05000000 	streq	r0, [r0, #-0]
    3f50:	00000a6a 	andeq	r0, r0, sl, ror #20
    3f54:	00467203 	subeq	r7, r6, r3, lsl #4
    3f58:	32060000 	andcc	r0, r6, #0
    3f5c:	04000009 	streq	r0, [r0], #-9
    3f60:	002c0165 	eoreq	r0, ip, r5, ror #2
    3f64:	04070000 	streq	r0, [r7], #-0
    3f68:	00bca603 	adcseq	sl, ip, r3, lsl #12
    3f6c:	1d080000 	stcne	0, cr0, [r8, #-0]
    3f70:	03000009 	movweq	r0, #9
    3f74:	000091a8 	andeq	r9, r0, r8, lsr #3
    3f78:	08b90800 	ldmeq	r9!, {fp}
    3f7c:	a9030000 	stmdbge	r3, {}	; <UNPREDICTABLE>
    3f80:	000000bc 	strheq	r0, [r0], -ip
    3f84:	00540900 	subseq	r0, r4, r0, lsl #18
    3f88:	00cc0000 	sbceq	r0, ip, r0
    3f8c:	cc0a0000 	stcgt	0, cr0, [sl], {-0}
    3f90:	03000000 	movweq	r0, #0
    3f94:	07040300 	streq	r0, [r4, -r0, lsl #6]
    3f98:	00000167 	andeq	r0, r0, r7, ror #2
    3f9c:	a303080b 	movwge	r0, #14347	; 0x380b
    3fa0:	000000f4 	strdeq	r0, [r0], -r4
    3fa4:	000a4f0c 	andeq	r4, sl, ip, lsl #30
    3fa8:	25a50300 	strcs	r0, [r5, #768]!	; 0x300
    3fac:	00000000 	andeq	r0, r0, r0
    3fb0:	000a570c 	andeq	r5, sl, ip, lsl #14
    3fb4:	9daa0300 	stcls	3, cr0, [sl]
    3fb8:	04000000 	streq	r0, [r0], #-0
    3fbc:	09e20500 	stmibeq	r2!, {r8, sl}^
    3fc0:	ab030000 	blge	c3fc8 <__bss_end__+0xb94d0>
    3fc4:	000000d3 	ldrdeq	r0, [r0], -r3
    3fc8:	00088205 	andeq	r8, r8, r5, lsl #4
    3fcc:	70af0300 	adcvc	r0, pc, r0, lsl #6
    3fd0:	0d000000 	stceq	0, cr0, [r0, #-0]
    3fd4:	12040e04 	andne	r0, r4, #4, 28	; 0x40
    3fd8:	03000001 	movweq	r0, #1
    3fdc:	012f0801 	teqeq	pc, r1, lsl #16
    3fe0:	12040000 	andne	r0, r4, #0
    3fe4:	05000001 	streq	r0, [r0, #-1]
    3fe8:	00000b0c 	andeq	r0, r0, ip, lsl #22
    3fec:	00621605 	rsbeq	r1, r2, r5, lsl #12
    3ff0:	930f0000 	movwls	r0, #61440	; 0xf000
    3ff4:	18000008 	stmdane	r0, {r3}
    3ff8:	017c2d05 	cmneq	ip, r5, lsl #26
    3ffc:	030c0000 	movweq	r0, #49152	; 0xc000
    4000:	0500000a 	streq	r0, [r0, #-10]
    4004:	00017c2f 	andeq	r7, r1, pc, lsr #24
    4008:	5f100000 	svcpl	0x00100000
    400c:	3005006b 	andcc	r0, r5, fp, rrx
    4010:	00000025 	andeq	r0, r0, r5, lsr #32
    4014:	0a3a0c04 	beq	e8702c <__bss_end__+0xe7c534>
    4018:	30050000 	andcc	r0, r5, r0
    401c:	00000025 	andeq	r0, r0, r5, lsr #32
    4020:	086e0c08 	stmdaeq	lr!, {r3, sl, fp}^
    4024:	30050000 	andcc	r0, r5, r0
    4028:	00000025 	andeq	r0, r0, r5, lsr #32
    402c:	0b530c0c 	bleq	14c7064 <__bss_end__+0x14bc56c>
    4030:	30050000 	andcc	r0, r5, r0
    4034:	00000025 	andeq	r0, r0, r5, lsr #32
    4038:	785f1010 	ldmdavc	pc, {r4, ip}^	; <UNPREDICTABLE>
    403c:	82310500 	eorshi	r0, r1, #0, 10
    4040:	14000001 	strne	r0, [r0], #-1
    4044:	29040e00 	stmdbcs	r4, {r9, sl, fp}
    4048:	09000001 	stmdbeq	r0, {r0}
    404c:	0000011e 	andeq	r0, r0, lr, lsl r1
    4050:	00000192 	muleq	r0, r2, r1
    4054:	0000cc0a 	andeq	ip, r0, sl, lsl #24
    4058:	0f000000 	svceq	0x00000000
    405c:	000008b4 			; <UNDEFINED> instruction: 0x000008b4
    4060:	0b350524 	bleq	d454f8 <__bss_end__+0xd3aa00>
    4064:	0c000002 	stceq	0, cr0, [r0], {2}
    4068:	0000076c 	andeq	r0, r0, ip, ror #14
    406c:	00253705 	eoreq	r3, r5, r5, lsl #14
    4070:	0c000000 	stceq	0, cr0, [r0], {-0}
    4074:	00000a72 	andeq	r0, r0, r2, ror sl
    4078:	00253805 	eoreq	r3, r5, r5, lsl #16
    407c:	0c040000 	stceq	0, cr0, [r4], {-0}
    4080:	0000079a 	muleq	r0, sl, r7
    4084:	00253905 	eoreq	r3, r5, r5, lsl #18
    4088:	0c080000 	stceq	0, cr0, [r8], {-0}
    408c:	00000c43 	andeq	r0, r0, r3, asr #24
    4090:	00253a05 	eoreq	r3, r5, r5, lsl #20
    4094:	0c0c0000 	stceq	0, cr0, [ip], {-0}
    4098:	00000972 	andeq	r0, r0, r2, ror r9
    409c:	00253b05 	eoreq	r3, r5, r5, lsl #22
    40a0:	0c100000 	ldceq	0, cr0, [r0], {-0}
    40a4:	00000947 	andeq	r0, r0, r7, asr #18
    40a8:	00253c05 	eoreq	r3, r5, r5, lsl #24
    40ac:	0c140000 	ldceq	0, cr0, [r4], {-0}
    40b0:	00000b58 	andeq	r0, r0, r8, asr fp
    40b4:	00253d05 	eoreq	r3, r5, r5, lsl #26
    40b8:	0c180000 	ldceq	0, cr0, [r8], {-0}
    40bc:	000009c4 	andeq	r0, r0, r4, asr #19
    40c0:	00253e05 	eoreq	r3, r5, r5, lsl #28
    40c4:	0c1c0000 	ldceq	0, cr0, [ip], {-0}
    40c8:	00000c0a 	andeq	r0, r0, sl, lsl #24
    40cc:	00253f05 	eoreq	r3, r5, r5, lsl #30
    40d0:	00200000 	eoreq	r0, r0, r0
    40d4:	0007a911 	andeq	sl, r7, r1, lsl r9
    40d8:	05010800 	streq	r0, [r1, #-2048]	; 0x800
    40dc:	00024b48 	andeq	r4, r2, r8, asr #22
    40e0:	08550c00 	ldmdaeq	r5, {sl, fp}^
    40e4:	49050000 	stmdbmi	r5, {}	; <UNPREDICTABLE>
    40e8:	0000024b 	andeq	r0, r0, fp, asr #4
    40ec:	06e70c00 	strbteq	r0, [r7], r0, lsl #24
    40f0:	4a050000 	bmi	1440f8 <__bss_end__+0x139600>
    40f4:	0000024b 	andeq	r0, r0, fp, asr #4
    40f8:	0afe1280 	beq	fff88b00 <__bss_end__+0xfff7e008>
    40fc:	4c050000 	stcmi	0, cr0, [r5], {-0}
    4100:	0000011e 	andeq	r0, r0, lr, lsl r1
    4104:	ce120100 	mufgts	f0, f2, f0
    4108:	05000007 	streq	r0, [r0, #-7]
    410c:	00011e4f 	andeq	r1, r1, pc, asr #28
    4110:	00010400 	andeq	r0, r1, r0, lsl #8
    4114:	00010a09 	andeq	r0, r1, r9, lsl #20
    4118:	00025b00 	andeq	r5, r2, r0, lsl #22
    411c:	00cc0a00 	sbceq	r0, ip, r0, lsl #20
    4120:	001f0000 	andseq	r0, pc, r0
    4124:	00097b11 	andeq	r7, r9, r1, lsl fp
    4128:	05019000 	streq	r9, [r1, #-0]
    412c:	0002995b 	andeq	r9, r2, fp, asr r9
    4130:	0a030c00 	beq	c7138 <__bss_end__+0xbc640>
    4134:	5c050000 	stcpl	0, cr0, [r5], {-0}
    4138:	00000299 	muleq	r0, r9, r2
    413c:	0a1b0c00 	beq	6c7144 <__bss_end__+0x6bc64c>
    4140:	5d050000 	stcpl	0, cr0, [r5, #-0]
    4144:	00000025 	andeq	r0, r0, r5, lsr #32
    4148:	08690c04 	stmdaeq	r9!, {r2, sl, fp}^
    414c:	5f050000 	svcpl	0x00050000
    4150:	0000029f 	muleq	r0, pc, r2	; <UNPREDICTABLE>
    4154:	07a90c08 	streq	r0, [r9, r8, lsl #24]!
    4158:	60050000 	andvs	r0, r5, r0
    415c:	0000020b 	andeq	r0, r0, fp, lsl #4
    4160:	040e0088 	streq	r0, [lr], #-136	; 0x88
    4164:	0000025b 	andeq	r0, r0, fp, asr r2
    4168:	0002af09 	andeq	sl, r2, r9, lsl #30
    416c:	0002af00 	andeq	sl, r2, r0, lsl #30
    4170:	00cc0a00 	sbceq	r0, ip, r0, lsl #20
    4174:	001f0000 	andseq	r0, pc, r0
    4178:	02b5040e 	adcseq	r0, r5, #234881024	; 0xe000000
    417c:	0f130000 	svceq	0x00130000
    4180:	000009ce 	andeq	r0, r0, lr, asr #19
    4184:	db730508 	blle	1cc55ac <__bss_end__+0x1cbaab4>
    4188:	0c000002 	stceq	0, cr0, [r0], {2}
    418c:	0000078f 	andeq	r0, r0, pc, lsl #15
    4190:	02db7405 	sbcseq	r7, fp, #83886080	; 0x5000000
    4194:	0c000000 	stceq	0, cr0, [r0], {-0}
    4198:	000006f3 	strdeq	r0, [r0], -r3
    419c:	00257505 	eoreq	r7, r5, r5, lsl #10
    41a0:	00040000 	andeq	r0, r4, r0
    41a4:	0054040e 	subseq	r0, r4, lr, lsl #8
    41a8:	ed0f0000 	stc	0, cr0, [pc, #-0]	; 41b0 <_start-0x3e50>
    41ac:	68000009 	stmdavs	r0, {r0, r3}
    41b0:	040bb305 	streq	fp, [fp], #-773	; 0x305
    41b4:	5f100000 	svcpl	0x00100000
    41b8:	b4050070 	strlt	r0, [r5], #-112	; 0x70
    41bc:	000002db 	ldrdeq	r0, [r0], -fp
    41c0:	725f1000 	subsvc	r1, pc, #0
    41c4:	25b50500 	ldrcs	r0, [r5, #1280]!	; 0x500
    41c8:	04000000 	streq	r0, [r0], #-0
    41cc:	00775f10 	rsbseq	r5, r7, r0, lsl pc
    41d0:	0025b605 	eoreq	fp, r5, r5, lsl #12
    41d4:	0c080000 	stceq	0, cr0, [r8], {-0}
    41d8:	000007c7 	andeq	r0, r0, r7, asr #15
    41dc:	003fb705 	eorseq	fp, pc, r5, lsl #14
    41e0:	0c0c0000 	stceq	0, cr0, [ip], {-0}
    41e4:	000008da 	ldrdeq	r0, [r0], -sl
    41e8:	003fb805 	eorseq	fp, pc, r5, lsl #16
    41ec:	100e0000 	andne	r0, lr, r0
    41f0:	0066625f 	rsbeq	r6, r6, pc, asr r2
    41f4:	02b6b905 	adcseq	fp, r6, #81920	; 0x14000
    41f8:	0c100000 	ldceq	0, cr0, [r0], {-0}
    41fc:	00000736 	andeq	r0, r0, r6, lsr r7
    4200:	0025ba05 	eoreq	fp, r5, r5, lsl #20
    4204:	0c180000 	ldceq	0, cr0, [r8], {-0}
    4208:	000007b7 			; <UNDEFINED> instruction: 0x000007b7
    420c:	010ac105 	tsteq	sl, r5, lsl #2
    4210:	0c1c0000 	ldceq	0, cr0, [ip], {-0}
    4214:	00000c6a 	andeq	r0, r0, sl, ror #24
    4218:	0566c305 	strbeq	ip, [r6, #-773]!	; 0x305
    421c:	0c200000 	stceq	0, cr0, [r0], #-0
    4220:	00000c84 	andeq	r0, r0, r4, lsl #25
    4224:	0590c505 	ldreq	ip, [r0, #1285]	; 0x505
    4228:	0c240000 	stceq	0, cr0, [r4], #-0
    422c:	00000a5f 	andeq	r0, r0, pc, asr sl
    4230:	05b4c805 	ldreq	ip, [r4, #2053]!	; 0x805
    4234:	0c280000 	stceq	0, cr0, [r8], #-0
    4238:	00000c24 	andeq	r0, r0, r4, lsr #24
    423c:	05cec905 	strbeq	ip, [lr, #2309]	; 0x905
    4240:	102c0000 	eorne	r0, ip, r0
    4244:	0062755f 	rsbeq	r7, r2, pc, asr r5
    4248:	02b6cc05 	adcseq	ip, r6, #1280	; 0x500
    424c:	10300000 	eorsne	r0, r0, r0
    4250:	0070755f 	rsbseq	r7, r0, pc, asr r5
    4254:	02dbcd05 	sbcseq	ip, fp, #320	; 0x140
    4258:	10380000 	eorsne	r0, r8, r0
    425c:	0072755f 	rsbseq	r7, r2, pc, asr r5
    4260:	0025ce05 	eoreq	ip, r5, r5, lsl #28
    4264:	0c3c0000 	ldceq	0, cr0, [ip], #-0
    4268:	0000077a 	andeq	r0, r0, sl, ror r7
    426c:	05d4d105 	ldrbeq	sp, [r4, #261]	; 0x105
    4270:	0c400000 	mareq	acc0, r0, r0
    4274:	00000bcf 	andeq	r0, r0, pc, asr #23
    4278:	05e4d205 	strbeq	sp, [r4, #517]!	; 0x205
    427c:	10430000 	subne	r0, r3, r0
    4280:	00626c5f 	rsbeq	r6, r2, pc, asr ip
    4284:	02b6d505 	adcseq	sp, r6, #20971520	; 0x1400000
    4288:	0c440000 	mareq	acc0, r0, r4
    428c:	000007dd 	ldrdeq	r0, [r0], -sp
    4290:	0025d805 	eoreq	sp, r5, r5, lsl #16
    4294:	0c4c0000 	mareq	acc0, r0, ip
    4298:	00000951 	andeq	r0, r0, r1, asr r9
    429c:	007bd905 	rsbseq	sp, fp, r5, lsl #18
    42a0:	0c500000 	mraeq	r0, r0, acc0
    42a4:	00000251 	andeq	r0, r0, r1, asr r2
    42a8:	0429dc05 	strteq	sp, [r9], #-3077	; 0xc05
    42ac:	0c540000 	mraeq	r0, r4, acc0
    42b0:	00000939 	andeq	r0, r0, r9, lsr r9
    42b4:	00ffe005 	rscseq	lr, pc, r5
    42b8:	0c580000 	mraeq	r0, r8, acc0
    42bc:	000009f5 	strdeq	r0, [r0], -r5
    42c0:	00f4e205 	rscseq	lr, r4, r5, lsl #4
    42c4:	0c5c0000 	mraeq	r0, ip, acc0
    42c8:	0000093f 	andeq	r0, r0, pc, lsr r9
    42cc:	0025e305 	eoreq	lr, r5, r5, lsl #6
    42d0:	00640000 	rsbeq	r0, r4, r0
    42d4:	00002514 	andeq	r2, r0, r4, lsl r5
    42d8:	00042900 	andeq	r2, r4, r0, lsl #18
    42dc:	04291500 	strteq	r1, [r9], #-1280	; 0x500
    42e0:	0a150000 	beq	5442e8 <__bss_end__+0x5397f0>
    42e4:	15000001 	strne	r0, [r0, #-1]
    42e8:	0000010c 	andeq	r0, r0, ip, lsl #2
    42ec:	00002515 	andeq	r2, r0, r5, lsl r5
    42f0:	040e0000 	streq	r0, [lr], #-0
    42f4:	00000434 	andeq	r0, r0, r4, lsr r4
    42f8:	00042904 	andeq	r2, r4, r4, lsl #18
    42fc:	0a421600 	beq	1089b04 <__bss_end__+0x107f00c>
    4300:	04280000 	strteq	r0, [r8], #-0
    4304:	66023805 	strvs	r3, [r2], -r5, lsl #16
    4308:	17000005 	strne	r0, [r0, -r5]
    430c:	000009bd 			; <UNDEFINED> instruction: 0x000009bd
    4310:	25023a05 	strcs	r3, [r2, #-2565]	; 0xa05
    4314:	00000000 	andeq	r0, r0, r0
    4318:	0007d617 	andeq	sp, r7, r7, lsl r6
    431c:	023f0500 	eorseq	r0, pc, #0, 10
    4320:	0000063b 	andeq	r0, r0, fp, lsr r6
    4324:	08ca1704 	stmiaeq	sl, {r2, r8, r9, sl, ip}^
    4328:	3f050000 	svccc	0x00050000
    432c:	00063b02 	andeq	r3, r6, r2, lsl #22
    4330:	8b170800 	blhi	5c6338 <__bss_end__+0x5bb840>
    4334:	05000008 	streq	r0, [r0, #-8]
    4338:	063b023f 			; <UNDEFINED> instruction: 0x063b023f
    433c:	170c0000 	strne	r0, [ip, -r0]
    4340:	00000a16 	andeq	r0, r0, r6, lsl sl
    4344:	25024105 	strcs	r4, [r2, #-261]	; 0x105
    4348:	10000000 	andne	r0, r0, r0
    434c:	00070117 	andeq	r0, r7, r7, lsl r1
    4350:	02420500 	subeq	r0, r2, #0, 10
    4354:	0000081d 	andeq	r0, r0, sp, lsl r8
    4358:	0b341714 	bleq	d09fb0 <__bss_end__+0xcff4b8>
    435c:	44050000 	strmi	r0, [r5], #-0
    4360:	00002502 	andeq	r2, r0, r2, lsl #10
    4364:	20173000 	andscs	r3, r7, r0
    4368:	0500000a 	streq	r0, [r0, #-10]
    436c:	058a0245 	streq	r0, [sl, #581]	; 0x245
    4370:	17340000 	ldrne	r0, [r4, -r0]!
    4374:	00000983 	andeq	r0, r0, r3, lsl #19
    4378:	25024705 	strcs	r4, [r2, #-1797]	; 0x705
    437c:	38000000 	stmdacc	r0, {}	; <UNPREDICTABLE>
    4380:	000a3017 	andeq	r3, sl, r7, lsl r0
    4384:	02490500 	subeq	r0, r9, #0, 10
    4388:	00000838 	andeq	r0, r0, r8, lsr r8
    438c:	0915173c 	ldmdbeq	r5, {r2, r3, r4, r5, r8, r9, sl, ip}
    4390:	4c050000 	stcmi	0, cr0, [r5], {-0}
    4394:	00017c02 	andeq	r7, r1, r2, lsl #24
    4398:	aa174000 	bge	5d43a0 <__bss_end__+0x5c98a8>
    439c:	05000008 	streq	r0, [r0, #-8]
    43a0:	0025024d 	eoreq	r0, r5, sp, asr #4
    43a4:	17440000 	strbne	r0, [r4, -r0]
    43a8:	00000c3e 	andeq	r0, r0, lr, lsr ip
    43ac:	7c024e05 	stcvc	14, cr4, [r2], {5}
    43b0:	48000001 	stmdami	r0, {r0}
    43b4:	00099a17 	andeq	r9, r9, r7, lsl sl
    43b8:	024f0500 	subeq	r0, pc, #0, 10
    43bc:	0000083e 	andeq	r0, r0, lr, lsr r8
    43c0:	08d2174c 	ldmeq	r2, {r2, r3, r6, r8, r9, sl, ip}^
    43c4:	52050000 	andpl	r0, r5, #0
    43c8:	00002502 	andeq	r2, r0, r2, lsl #10
    43cc:	f9175000 			; <UNDEFINED> instruction: 0xf9175000
    43d0:	05000007 	streq	r0, [r0, #-7]
    43d4:	010c0253 	tsteq	ip, r3, asr r2
    43d8:	17540000 	ldrbne	r0, [r4, -r0]
    43dc:	000009b6 			; <UNDEFINED> instruction: 0x000009b6
    43e0:	fb027605 	blx	a1bfe <__bss_end__+0x97106>
    43e4:	58000007 	stmdapl	r0, {r0, r1, r2}
    43e8:	00097b18 	andeq	r7, r9, r8, lsl fp
    43ec:	027a0500 	rsbseq	r0, sl, #0, 10
    43f0:	00000299 	muleq	r0, r9, r2
    43f4:	e7180148 	ldr	r0, [r8, -r8, asr #2]
    43f8:	05000008 	streq	r0, [r0, #-8]
    43fc:	025b027b 	subseq	r0, fp, #-1342177273	; 0xb0000007
    4400:	014c0000 	mrseq	r0, (UNDEF: 76)
    4404:	000ba018 	andeq	sl, fp, r8, lsl r0
    4408:	027f0500 	rsbseq	r0, pc, #0, 10
    440c:	0000084f 	andeq	r0, r0, pc, asr #16
    4410:	bf1802dc 	svclt	0x001802dc
    4414:	05000007 	streq	r0, [r0, #-7]
    4418:	06000284 	streq	r0, [r0], -r4, lsl #5
    441c:	02e00000 	rsceq	r0, r0, #0
    4420:	0007a418 	andeq	sl, r7, r8, lsl r4
    4424:	02850500 	addeq	r0, r5, #0, 10
    4428:	0000085b 	andeq	r0, r0, fp, asr r8
    442c:	0e0002ec 	cdpeq	2, 0, cr0, cr0, cr12, {7}
    4430:	00040b04 	andeq	r0, r4, r4, lsl #22
    4434:	00251400 	eoreq	r1, r5, r0, lsl #8
    4438:	058a0000 	streq	r0, [sl]
    443c:	29150000 	ldmdbcs	r5, {}	; <UNPREDICTABLE>
    4440:	15000004 	strne	r0, [r0, #-4]
    4444:	0000010a 	andeq	r0, r0, sl, lsl #2
    4448:	00058a15 	andeq	r8, r5, r5, lsl sl
    444c:	00251500 	eoreq	r1, r5, r0, lsl #10
    4450:	0e000000 	cdpeq	0, 0, cr0, cr0, cr0, {0}
    4454:	00011904 	andeq	r1, r1, r4, lsl #18
    4458:	6c040e00 	stcvs	14, cr0, [r4], {-0}
    445c:	14000005 	strne	r0, [r0], #-5
    4460:	00000086 	andeq	r0, r0, r6, lsl #1
    4464:	000005b4 			; <UNDEFINED> instruction: 0x000005b4
    4468:	00042915 	andeq	r2, r4, r5, lsl r9
    446c:	010a1500 	tsteq	sl, r0, lsl #10
    4470:	86150000 	ldrhi	r0, [r5], -r0
    4474:	15000000 	strne	r0, [r0, #-0]
    4478:	00000025 	andeq	r0, r0, r5, lsr #32
    447c:	96040e00 	strls	r0, [r4], -r0, lsl #28
    4480:	14000005 	strne	r0, [r0], #-5
    4484:	00000025 	andeq	r0, r0, r5, lsr #32
    4488:	000005ce 	andeq	r0, r0, lr, asr #11
    448c:	00042915 	andeq	r2, r4, r5, lsl r9
    4490:	010a1500 	tsteq	sl, r0, lsl #10
    4494:	0e000000 	cdpeq	0, 0, cr0, cr0, cr0, {0}
    4498:	0005ba04 	andeq	fp, r5, r4, lsl #20
    449c:	00540900 	subseq	r0, r4, r0, lsl #18
    44a0:	05e40000 	strbeq	r0, [r4, #0]!
    44a4:	cc0a0000 	stcgt	0, cr0, [sl], {-0}
    44a8:	02000000 	andeq	r0, r0, #0
    44ac:	00540900 	subseq	r0, r4, r0, lsl #18
    44b0:	05f40000 	ldrbeq	r0, [r4, #0]!
    44b4:	cc0a0000 	stcgt	0, cr0, [sl], {-0}
    44b8:	00000000 	andeq	r0, r0, r0
    44bc:	09db0600 	ldmibeq	fp, {r9, sl}^
    44c0:	1d050000 	stcne	0, cr0, [r5, #-0]
    44c4:	0002e101 	andeq	lr, r2, r1, lsl #2
    44c8:	0b621900 	bleq	188a8d0 <__bss_end__+0x187fdd8>
    44cc:	050c0000 	streq	r0, [ip, #-0]
    44d0:	06350121 	ldrteq	r0, [r5], -r1, lsr #2
    44d4:	03170000 	tsteq	r7, #0
    44d8:	0500000a 	streq	r0, [r0, #-10]
    44dc:	06350123 	ldrteq	r0, [r5], -r3, lsr #2
    44e0:	17000000 	strne	r0, [r0, -r0]
    44e4:	000008e0 	andeq	r0, r0, r0, ror #17
    44e8:	25012405 	strcs	r2, [r1, #-1029]	; 0x405
    44ec:	04000000 	streq	r0, [r0], #-0
    44f0:	0009d517 	andeq	sp, r9, r7, lsl r5
    44f4:	01250500 	teqeq	r5, r0, lsl #10
    44f8:	0000063b 	andeq	r0, r0, fp, lsr r6
    44fc:	040e0008 	streq	r0, [lr], #-8
    4500:	00000600 	andeq	r0, r0, r0, lsl #12
    4504:	05f4040e 	ldrbeq	r0, [r4, #1038]!	; 0x40e
    4508:	f9190000 			; <UNDEFINED> instruction: 0xf9190000
    450c:	0e000006 	cdpeq	0, 0, cr0, cr0, cr6, {0}
    4510:	76013d05 	strvc	r3, [r1], -r5, lsl #26
    4514:	17000006 	strne	r0, [r0, -r6]
    4518:	00000a49 	andeq	r0, r0, r9, asr #20
    451c:	76013e05 	strvc	r3, [r1], -r5, lsl #28
    4520:	00000006 	andeq	r0, r0, r6
    4524:	000a8317 	andeq	r8, sl, r7, lsl r3
    4528:	013f0500 	teqeq	pc, r0, lsl #10
    452c:	00000676 	andeq	r0, r0, r6, ror r6
    4530:	0b071706 	bleq	1ca150 <__bss_end__+0x1bf658>
    4534:	40050000 	andmi	r0, r5, r0
    4538:	00005b01 	andeq	r5, r0, r1, lsl #22
    453c:	09000c00 	stmdbeq	r0, {sl, fp}
    4540:	0000005b 	andeq	r0, r0, fp, asr r0
    4544:	00000686 	andeq	r0, r0, r6, lsl #13
    4548:	0000cc0a 	andeq	ip, r0, sl, lsl #24
    454c:	1a000200 	bne	4d54 <_start-0x32ac>
    4550:	025705d0 	subseq	r0, r7, #208, 10	; 0x34000000
    4554:	00000787 	andeq	r0, r0, r7, lsl #15
    4558:	000b4617 	andeq	r4, fp, r7, lsl r6
    455c:	02590500 	subseq	r0, r9, #0, 10
    4560:	0000002c 	andeq	r0, r0, ip, lsr #32
    4564:	0af11700 	beq	ffc4a16c <__bss_end__+0xffc3f674>
    4568:	5a050000 	bpl	144570 <__bss_end__+0x139a78>
    456c:	00010c02 	andeq	r0, r1, r2, lsl #24
    4570:	fc170400 	ldc2	4, cr0, [r7], {-0}
    4574:	05000008 	streq	r0, [r0, #-8]
    4578:	0787025b 			; <UNDEFINED> instruction: 0x0787025b
    457c:	17080000 	strne	r0, [r8, -r0]
    4580:	00000c15 	andeq	r0, r0, r5, lsl ip
    4584:	92025c05 	andls	r5, r2, #1280	; 0x500
    4588:	24000001 	strcs	r0, [r0], #-1
    458c:	00089b17 	andeq	r9, r8, r7, lsl fp
    4590:	025d0500 	subseq	r0, sp, #0, 10
    4594:	00000025 	andeq	r0, r0, r5, lsr #32
    4598:	09fe1748 	ldmibeq	lr!, {r3, r6, r8, r9, sl, ip}^
    459c:	5e050000 	cdppl	0, 0, cr0, cr5, cr0, {0}
    45a0:	00006902 	andeq	r6, r0, r2, lsl #18
    45a4:	2b175000 	blcs	5d85ac <__bss_end__+0x5cdab4>
    45a8:	0500000c 	streq	r0, [r0, #-12]
    45ac:	0641025f 			; <UNDEFINED> instruction: 0x0641025f
    45b0:	17580000 	ldrbne	r0, [r8, -r0]
    45b4:	00000a09 	andeq	r0, r0, r9, lsl #20
    45b8:	f4026005 	vst4.8	{d6-d9}, [r2], r5
    45bc:	68000000 	stmdavs	r0, {}	; <UNPREDICTABLE>
    45c0:	000c3017 	andeq	r3, ip, r7, lsl r0
    45c4:	02610500 	rsbeq	r0, r1, #0, 10
    45c8:	000000f4 	strdeq	r0, [r0], -r4
    45cc:	075e1770 			; <UNDEFINED> instruction: 0x075e1770
    45d0:	62050000 	andvs	r0, r5, #0
    45d4:	0000f402 	andeq	pc, r0, r2, lsl #8
    45d8:	82177800 	andshi	r7, r7, #0, 16
    45dc:	0500000b 	streq	r0, [r0, #-11]
    45e0:	07970263 	ldreq	r0, [r7, r3, ror #4]
    45e4:	17800000 	strne	r0, [r0, r0]
    45e8:	000008f0 	strdeq	r0, [r0], -r0	; <UNPREDICTABLE>
    45ec:	a7026405 	strge	r6, [r2, -r5, lsl #8]
    45f0:	88000007 	stmdahi	r0, {r0, r1, r2}
    45f4:	000b1417 	andeq	r1, fp, r7, lsl r4
    45f8:	02650500 	rsbeq	r0, r5, #0, 10
    45fc:	00000025 	andeq	r0, r0, r5, lsr #32
    4600:	084717a0 	stmdaeq	r7, {r5, r7, r8, r9, sl, ip}^
    4604:	66050000 	strvs	r0, [r5], -r0
    4608:	0000f402 	andeq	pc, r0, r2, lsl #8
    460c:	4f17a400 	svcmi	0x0017a400
    4610:	05000007 	streq	r0, [r0, #-7]
    4614:	00f40267 	rscseq	r0, r4, r7, ror #4
    4618:	17ac0000 	strne	r0, [ip, r0]!
    461c:	00000836 	andeq	r0, r0, r6, lsr r8
    4620:	f4026805 	vst2.8	{d6-d7}, [r2], r5
    4624:	b4000000 	strlt	r0, [r0], #-0
    4628:	00071617 	andeq	r1, r7, r7, lsl r6
    462c:	02690500 	rsbeq	r0, r9, #0, 10
    4630:	000000f4 	strdeq	r0, [r0], -r4
    4634:	072517bc 			; <UNDEFINED> instruction: 0x072517bc
    4638:	6a050000 	bvs	144640 <__bss_end__+0x139b48>
    463c:	0000f402 	andeq	pc, r0, r2, lsl #8
    4640:	bb17c400 	bllt	5f5648 <__bss_end__+0x5eab50>
    4644:	05000009 	streq	r0, [r0, #-9]
    4648:	0025026b 	eoreq	r0, r5, fp, ror #4
    464c:	00cc0000 	sbceq	r0, ip, r0
    4650:	00011209 	andeq	r1, r1, r9, lsl #4
    4654:	00079700 	andeq	r9, r7, r0, lsl #14
    4658:	00cc0a00 	sbceq	r0, ip, r0, lsl #20
    465c:	00190000 	andseq	r0, r9, r0
    4660:	00011209 	andeq	r1, r1, r9, lsl #4
    4664:	0007a700 	andeq	sl, r7, r0, lsl #14
    4668:	00cc0a00 	sbceq	r0, ip, r0, lsl #20
    466c:	00070000 	andeq	r0, r7, r0
    4670:	00011209 	andeq	r1, r1, r9, lsl #4
    4674:	0007b700 	andeq	fp, r7, r0, lsl #14
    4678:	00cc0a00 	sbceq	r0, ip, r0, lsl #20
    467c:	00170000 	andseq	r0, r7, r0
    4680:	7005f01a 	andvc	pc, r5, sl, lsl r0	; <UNPREDICTABLE>
    4684:	0007db02 	andeq	sp, r7, r2, lsl #22
    4688:	096b1700 	stmdbeq	fp!, {r8, r9, sl, ip}^
    468c:	73050000 	movwvc	r0, #20480	; 0x5000
    4690:	0007db02 	andeq	sp, r7, r2, lsl #22
    4694:	79170000 	ldmdbvc	r7, {}	; <UNPREDICTABLE>
    4698:	0500000b 	streq	r0, [r0, #-11]
    469c:	07eb0274 			; <UNDEFINED> instruction: 0x07eb0274
    46a0:	00780000 	rsbseq	r0, r8, r0
    46a4:	0002db09 	andeq	sp, r2, r9, lsl #22
    46a8:	0007eb00 	andeq	lr, r7, r0, lsl #22
    46ac:	00cc0a00 	sbceq	r0, ip, r0, lsl #20
    46b0:	001d0000 	andseq	r0, sp, r0
    46b4:	00002c09 	andeq	r2, r0, r9, lsl #24
    46b8:	0007fb00 	andeq	pc, r7, r0, lsl #22
    46bc:	00cc0a00 	sbceq	r0, ip, r0, lsl #20
    46c0:	001d0000 	andseq	r0, sp, r0
    46c4:	5505f01b 	strpl	pc, [r5, #-27]
    46c8:	00081d02 	andeq	r1, r8, r2, lsl #26
    46cc:	0a421c00 	beq	108b6d4 <__bss_end__+0x1080bdc>
    46d0:	6c050000 	stcvs	0, cr0, [r5], {-0}
    46d4:	00068602 	andeq	r8, r6, r2, lsl #12
    46d8:	0bd51c00 	bleq	ff54b6e0 <__bss_end__+0xff540be8>
    46dc:	75050000 	strvc	r0, [r5, #-0]
    46e0:	0007b702 	andeq	fp, r7, r2, lsl #14
    46e4:	12090000 	andne	r0, r9, #0
    46e8:	2d000001 	stccs	0, cr0, [r0, #-4]
    46ec:	0a000008 	beq	4714 <_start-0x38ec>
    46f0:	000000cc 	andeq	r0, r0, ip, asr #1
    46f4:	381d0018 	ldmdacc	sp, {r3, r4}
    46f8:	15000008 	strne	r0, [r0, #-8]
    46fc:	00000429 	andeq	r0, r0, r9, lsr #8
    4700:	2d040e00 	stccs	14, cr0, [r4, #-0]
    4704:	0e000008 	cdpeq	0, 0, cr0, cr0, cr8, {0}
    4708:	00017c04 	andeq	r7, r1, r4, lsl #24
    470c:	084f1d00 	stmdaeq	pc, {r8, sl, fp, ip}^	; <UNPREDICTABLE>
    4710:	25150000 	ldrcs	r0, [r5, #-0]
    4714:	00000000 	andeq	r0, r0, r0
    4718:	0855040e 	ldmdaeq	r5, {r1, r2, r3, sl}^
    471c:	040e0000 	streq	r0, [lr], #-0
    4720:	00000844 	andeq	r0, r0, r4, asr #16
    4724:	0005f409 	andeq	pc, r5, r9, lsl #8
    4728:	00086b00 	andeq	r6, r8, r0, lsl #22
    472c:	00cc0a00 	sbceq	r0, ip, r0, lsl #20
    4730:	00020000 	andeq	r0, r2, r0
    4734:	000b281e 	andeq	r2, fp, lr, lsl r8
    4738:	02fd0500 	rscseq	r0, sp, #0, 10
    473c:	00000429 	andeq	r0, r0, r9, lsr #8
    4740:	000b211e 	andeq	r2, fp, lr, lsl r1
    4744:	02fe0500 	rscseq	r0, lr, #0, 10
    4748:	0000042f 	andeq	r0, r0, pc, lsr #8
    474c:	00002514 	andeq	r2, r0, r4, lsl r5
    4750:	00089200 	andeq	r9, r8, r0, lsl #4
    4754:	00251500 	eoreq	r1, r5, r0, lsl #10
    4758:	1f000000 	svcne	0x00000000
    475c:	0000052b 	andeq	r0, r0, fp, lsr #10
    4760:	089d1d06 	ldmeq	sp, {r1, r2, r8, sl, fp, ip}
    4764:	040e0000 	streq	r0, [lr], #-0
    4768:	00000883 	andeq	r0, r0, r3, lsl #17
    476c:	00002514 	andeq	r2, r0, r4, lsl r5
    4770:	0008b200 	andeq	fp, r8, r0, lsl #4
    4774:	058a1500 	streq	r1, [sl, #1280]	; 0x500
    4778:	1f000000 	svcne	0x00000000
    477c:	00000568 	andeq	r0, r0, r8, ror #10
    4780:	08bd2206 	popeq	{r1, r2, r9, sp}
    4784:	040e0000 	streq	r0, [lr], #-0
    4788:	000008a3 	andeq	r0, r0, r3, lsr #17
    478c:	00540120 	subseq	r0, r4, r0, lsr #2
    4790:	0c070000 	stceq	0, cr0, [r7], {-0}
    4794:	00000900 	andeq	r0, r0, r0, lsl #18
    4798:	00073f21 	andeq	r3, r7, r1, lsr #30
    479c:	68210000 	stmdavs	r1!, {}	; <UNPREDICTABLE>
    47a0:	0100000b 	tsteq	r0, fp
    47a4:	000bc021 	andeq	ip, fp, r1, lsr #32
    47a8:	80210400 	eorhi	r0, r1, r0, lsl #8
    47ac:	05000007 	streq	r0, [r0, #-7]
    47b0:	00092321 	andeq	r2, r9, r1, lsr #6
    47b4:	dd210600 	stcle	6, cr0, [r1, #-0]
    47b8:	0700000b 	streq	r0, [r0, -fp]
    47bc:	000bec21 	andeq	lr, fp, r1, lsr #24
    47c0:	fb210300 	blx	8453ca <__bss_end__+0x83a8d2>
    47c4:	0200000b 	andeq	r0, r0, #11
    47c8:	0cba0500 	cfldr32eq	mvfx0, [sl]
    47cc:	15070000 	strne	r0, [r7, #-0]
    47d0:	000008c3 	andeq	r0, r0, r3, asr #17
    47d4:	000c8b22 	andeq	r8, ip, r2, lsr #22
    47d8:	331d0100 	tstcc	sp, #0, 2
    47dc:	1c000000 	stcne	0, cr0, [r0], {-0}
    47e0:	22202000 	eorcs	r2, r0, #0
    47e4:	00000cc6 	andeq	r0, r0, r6, asr #25
    47e8:	00331e01 	eorseq	r1, r3, r1, lsl #28
    47ec:	00280000 	eoreq	r0, r8, r0
    47f0:	95222020 	strls	r2, [r2, #-32]!
    47f4:	0100000c 	tsteq	r0, ip
    47f8:	0000331f 	andeq	r3, r0, pc, lsl r3
    47fc:	20003400 	andcs	r3, r0, r0, lsl #8
    4800:	0c662320 	stcleq	3, cr2, [r6], #-128	; 0xffffff80
    4804:	56010000 	strpl	r0, [r1], -r0
    4808:	00000025 	andeq	r0, r0, r5, lsr #32
    480c:	00009a80 	andeq	r9, r0, r0, lsl #21
    4810:	00000034 	andeq	r0, r0, r4, lsr r0
    4814:	09989c01 	ldmibeq	r8, {r0, sl, fp, ip, pc}
    4818:	70240000 	eorvc	r0, r4, r0
    481c:	01006e69 	tsteq	r0, r9, ror #28
    4820:	00002c56 	andeq	r2, r0, r6, asr ip
    4824:	0014c700 	andseq	ip, r4, r0, lsl #14
    4828:	0c5a2500 	cfldr64eq	mvdx2, [sl], {-0}
    482c:	59010000 	stmdbpl	r1, {}	; <UNPREDICTABLE>
    4830:	0000002c 	andeq	r0, r0, ip, lsr #32
    4834:	00001501 	andeq	r1, r0, r1, lsl #10
    4838:	66666f26 	strbtvs	r6, [r6], -r6, lsr #30
    483c:	2c5a0100 	ldfcse	f0, [sl], {-0}
    4840:	3f000000 	svccc	0x00000000
    4844:	27000015 	smladcs	r0, r5, r0, r0
    4848:	00009a9c 	muleq	r0, ip, sl
    484c:	00000b5d 	andeq	r0, r0, sp, asr fp
    4850:	0b500128 	bleq	1404cf8 <__bss_end__+0x13fa200>
    4854:	355001f3 	ldrbcc	r0, [r0, #-499]	; 0x1f3
    4858:	80b42325 	adcshi	r2, r4, r5, lsr #6
    485c:	00028180 	andeq	r8, r2, r0, lsl #3
    4860:	0c802900 	stceq	9, cr2, [r0], {0}
    4864:	4f010000 	svcmi	0x00010000
    4868:	00009a64 	andeq	r9, r0, r4, ror #20
    486c:	0000001c 	andeq	r0, r0, ip, lsl r0
    4870:	09e89c01 	stmibeq	r8!, {r0, sl, fp, ip, pc}^
    4874:	70240000 	eorvc	r0, r4, r0
    4878:	01006e69 	tsteq	r0, r9, ror #28
    487c:	00002c4f 	andeq	r2, r0, pc, asr #24
    4880:	00155200 	andseq	r5, r5, r0, lsl #4
    4884:	00762400 	rsbseq	r2, r6, r0, lsl #8
    4888:	002c4f01 	eoreq	r4, ip, r1, lsl #30
    488c:	158c0000 	strne	r0, [ip]
    4890:	742a0000 	strtvc	r0, [sl], #-0
    4894:	2300009a 	movwcs	r0, #154	; 0x9a
    4898:	de00000a 	cdple	0, 0, cr0, cr0, cr10, {0}
    489c:	28000009 	stmdacs	r0, {r0, r3}
    48a0:	f3035001 	vhadd.u8	d5, d3, d1
    48a4:	2b005001 	blcs	188b0 <__bss_end__+0xddb8>
    48a8:	00009a7c 	andeq	r9, r0, ip, ror sl
    48ac:	00000a64 	andeq	r0, r0, r4, ror #20
    48b0:	0c9f2900 	ldceq	9, cr2, [pc], {0}
    48b4:	4a010000 	bmi	448bc <__bss_end__+0x39dc4>
    48b8:	00009a54 	andeq	r9, r0, r4, asr sl
    48bc:	00000010 	andeq	r0, r0, r0, lsl r0
    48c0:	0a239c01 	beq	8eb8cc <__bss_end__+0x8e0dd4>
    48c4:	70240000 	eorvc	r0, r4, r0
    48c8:	01006e69 	tsteq	r0, r9, ror #28
    48cc:	00002c4a 	andeq	r2, r0, sl, asr #24
    48d0:	0015c600 	andseq	ip, r5, r0, lsl #12
    48d4:	9a602700 	bls	180e4dc <__bss_end__+0x18039e4>
    48d8:	0ae00000 	beq	ff8048e0 <__bss_end__+0xff7f9de8>
    48dc:	01280000 	teqeq	r8, r0
    48e0:	01f30350 	mvnseq	r0, r0, asr r3
    48e4:	51012850 	tstpl	r1, r0, asr r8
    48e8:	00003001 	andeq	r3, r0, r1
    48ec:	000c4d29 	andeq	r4, ip, r9, lsr #26
    48f0:	30430100 	subcc	r0, r3, r0, lsl #2
    48f4:	2400009a 	strcs	r0, [r0], #-154	; 0x9a
    48f8:	01000000 	mrseq	r0, (UNDEF: 0)
    48fc:	000a649c 	muleq	sl, ip, r4
    4900:	69702400 	ldmdbvs	r0!, {sl, sp}^
    4904:	4301006e 	movwmi	r0, #4206	; 0x106e
    4908:	0000002c 	andeq	r0, r0, ip, lsr #32
    490c:	000015e7 	andeq	r1, r0, r7, ror #11
    4910:	009a4c27 	addseq	r4, sl, r7, lsr #24
    4914:	000b6800 	andeq	r6, fp, r0, lsl #16
    4918:	50012800 	andpl	r2, r1, r0, lsl #16
    491c:	00280c05 	eoreq	r0, r8, r5, lsl #24
    4920:	01282020 	teqeq	r8, r0, lsr #32
    4924:	f3310551 	vqrshl.u64	q0, <illegal reg q0.5>, <illegal reg q0.5>
    4928:	00245001 	eoreq	r5, r4, r1
    492c:	0cae2900 	stceq	9, cr2, [lr]
    4930:	3c010000 	stccc	0, cr0, [r1], {-0}
    4934:	00009a0c 	andeq	r9, r0, ip, lsl #20
    4938:	00000024 	andeq	r0, r0, r4, lsr #32
    493c:	0aa59c01 	beq	fe96b948 <__bss_end__+0xfe960e50>
    4940:	70240000 	eorvc	r0, r4, r0
    4944:	01006e69 	tsteq	r0, r9, ror #28
    4948:	00002c3c 	andeq	r2, r0, ip, lsr ip
    494c:	00160800 	andseq	r0, r6, r0, lsl #16
    4950:	9a282700 	bls	a0e558 <__bss_end__+0xa03a60>
    4954:	0b680000 	bleq	1a0495c <__bss_end__+0x19f9e64>
    4958:	01280000 	teqeq	r8, r0
    495c:	1c0c0550 	cfstr32ne	mvfx0, [ip], {80}	; 0x50
    4960:	28202000 	stmdacs	r0!, {sp}
    4964:	31055101 	tstcc	r5, r1, lsl #2
    4968:	245001f3 	ldrbcs	r0, [r0], #-499	; 0x1f3
    496c:	70290000 	eorvc	r0, r9, r0
    4970:	0100000c 	tsteq	r0, ip
    4974:	0099fc37 	addseq	pc, r9, r7, lsr ip	; <UNPREDICTABLE>
    4978:	00001000 	andeq	r1, r0, r0
    497c:	e09c0100 	adds	r0, ip, r0, lsl #2
    4980:	2400000a 	strcs	r0, [r0], #-10
    4984:	006e6970 	rsbeq	r6, lr, r0, ror r9
    4988:	002c3701 	eoreq	r3, ip, r1, lsl #14
    498c:	16290000 	strtne	r0, [r9], -r0
    4990:	08270000 	stmdaeq	r7!, {}	; <UNPREDICTABLE>
    4994:	e000009a 	mul	r0, sl, r0
    4998:	2800000a 	stmdacs	r0, {r1, r3}
    499c:	f3035001 	vhadd.u8	d5, d3, d1
    49a0:	01285001 	teqeq	r8, r1
    49a4:	00310151 	eorseq	r0, r1, r1, asr r1
    49a8:	09592900 	ldmdbeq	r9, {r8, fp, sp}^
    49ac:	28010000 	stmdacs	r1, {}	; <UNPREDICTABLE>
    49b0:	00009994 	muleq	r0, r4, r9
    49b4:	00000068 	andeq	r0, r0, r8, rrx
    49b8:	0b5d9c01 	bleq	176b9c4 <__bss_end__+0x1760ecc>
    49bc:	70240000 	eorvc	r0, r4, r0
    49c0:	01006e69 	tsteq	r0, r9, ror #28
    49c4:	00002c28 	andeq	r2, r0, r8, lsr #24
    49c8:	00164a00 	andseq	r4, r6, r0, lsl #20
    49cc:	0ba52c00 	bleq	fe94f9d4 <__bss_end__+0xfe944edc>
    49d0:	28010000 	stmdacs	r1, {}	; <UNPREDICTABLE>
    49d4:	00000900 	andeq	r0, r0, r0, lsl #18
    49d8:	0000166b 	andeq	r1, r0, fp, ror #12
    49dc:	66666f2d 	strbtvs	r6, [r6], -sp, lsr #30
    49e0:	2c2d0100 	stfcss	f0, [sp], #-0
    49e4:	01000000 	mrseq	r0, (UNDEF: 0)
    49e8:	00672d54 	rsbeq	r2, r7, r4, asr sp
    49ec:	002c2f01 	eoreq	r2, ip, r1, lsl #30
    49f0:	56010000 	strpl	r0, [r1], -r0
    49f4:	01007626 	tsteq	r0, r6, lsr #12
    49f8:	00002c31 	andeq	r2, r0, r1, lsr ip
    49fc:	00168c00 	andseq	r8, r6, r0, lsl #24
    4a00:	99e02a00 	stmibls	r0!, {r9, fp, sp}^
    4a04:	0b5d0000 	bleq	1744a0c <__bss_end__+0x1739f14>
    4a08:	0b4c0000 	bleq	1304a10 <__bss_end__+0x12f9f18>
    4a0c:	01280000 	teqeq	r8, r0
    4a10:	00760250 	rsbseq	r0, r6, r0, asr r2
    4a14:	99f42700 	ldmibls	r4!, {r8, r9, sl, sp}^
    4a18:	0b680000 	bleq	1a04a20 <__bss_end__+0x19f9f28>
    4a1c:	01280000 	teqeq	r8, r0
    4a20:	00760250 	rsbseq	r0, r6, r0, asr r2
    4a24:	b62e0000 	strtlt	r0, [lr], -r0
    4a28:	b6000006 	strlt	r0, [r0], -r6
    4a2c:	06000006 	streq	r0, [r0], -r6
    4a30:	06682ea7 	strbteq	r2, [r8], -r7, lsr #29
    4a34:	06680000 	strbteq	r0, [r8], -r0
    4a38:	9b060000 	blls	184a40 <__bss_end__+0x179f48>
    4a3c:	000c2400 	andeq	r2, ip, r0, lsl #8
    4a40:	57000400 	strpl	r0, [r0, -r0, lsl #8]
    4a44:	04000014 	streq	r0, [r0], #-20
    4a48:	000a8f01 	andeq	r8, sl, r1, lsl #30
    4a4c:	0cd00c00 	ldcleq	12, cr0, [r0], {0}
    4a50:	08010000 	stmdaeq	r1, {}	; <UNPREDICTABLE>
    4a54:	9ab40000 	bls	fed04a5c <__bss_end__+0xfecf9f64>
    4a58:	01940000 	orrseq	r0, r4, r0
    4a5c:	116e0000 	cmnne	lr, r0
    4a60:	04020000 	streq	r0, [r2], #-0
    4a64:	746e6905 	strbtvc	r6, [lr], #-2309	; 0x905
    4a68:	07040300 	streq	r0, [r4, -r0, lsl #6]
    4a6c:	0000015a 	andeq	r0, r0, sl, asr r1
    4a70:	28060103 	stmdacs	r6, {r0, r1, r8}
    4a74:	03000001 	movweq	r0, #1
    4a78:	017e0502 	cmneq	lr, r2, lsl #10
    4a7c:	04030000 	streq	r0, [r3], #-0
    4a80:	00017505 	andeq	r7, r1, r5, lsl #10
    4a84:	05080300 	streq	r0, [r8, #-768]	; 0x300
    4a88:	00000170 	andeq	r0, r0, r0, ror r1
    4a8c:	26080103 	strcs	r0, [r8], -r3, lsl #2
    4a90:	03000001 	movweq	r0, #1
    4a94:	00fc0702 	rscseq	r0, ip, r2, lsl #14
    4a98:	04030000 	streq	r0, [r3], #-0
    4a9c:	00015507 	andeq	r5, r1, r7, lsl #10
    4aa0:	07080300 	streq	r0, [r8, -r0, lsl #6]
    4aa4:	00000150 	andeq	r0, r0, r0, asr r1
    4aa8:	0009a404 	andeq	sl, r9, r4, lsl #8
    4aac:	25070200 	strcs	r0, [r7, #-512]	; 0x200
    4ab0:	04000000 	streq	r0, [r0], #-0
    4ab4:	0000098e 	andeq	r0, r0, lr, lsl #19
    4ab8:	00412c03 	subeq	r2, r1, r3, lsl #24
    4abc:	6a040000 	bvs	104ac4 <__bss_end__+0xf9fcc>
    4ac0:	0300000a 	movweq	r0, #10
    4ac4:	00004172 	andeq	r4, r0, r2, ror r1
    4ac8:	09320500 	ldmdbeq	r2!, {r8, sl}
    4acc:	65040000 	strvs	r0, [r4, #-0]
    4ad0:	00002c01 	andeq	r2, r0, r1, lsl #24
    4ad4:	03040600 	movweq	r0, #17920	; 0x4600
    4ad8:	0000b7a6 	andeq	fp, r0, r6, lsr #15
    4adc:	091d0700 	ldmdbeq	sp, {r8, r9, sl}
    4ae0:	a8030000 	stmdage	r3, {}	; <UNPREDICTABLE>
    4ae4:	0000008c 	andeq	r0, r0, ip, lsl #1
    4ae8:	0008b907 	andeq	fp, r8, r7, lsl #18
    4aec:	b7a90300 	strlt	r0, [r9, r0, lsl #6]!
    4af0:	00000000 	andeq	r0, r0, r0
    4af4:	00004f08 	andeq	r4, r0, r8, lsl #30
    4af8:	0000c700 	andeq	ip, r0, r0, lsl #14
    4afc:	00c70900 	sbceq	r0, r7, r0, lsl #18
    4b00:	00030000 	andeq	r0, r3, r0
    4b04:	67070403 	strvs	r0, [r7, -r3, lsl #8]
    4b08:	0a000001 	beq	4b14 <_start-0x34ec>
    4b0c:	efa30308 	svc	0x00a30308
    4b10:	0b000000 	bleq	4b18 <_start-0x34e8>
    4b14:	00000a4f 	andeq	r0, r0, pc, asr #20
    4b18:	0025a503 	eoreq	sl, r5, r3, lsl #10
    4b1c:	0b000000 	bleq	4b24 <_start-0x34dc>
    4b20:	00000a57 	andeq	r0, r0, r7, asr sl
    4b24:	0098aa03 	addseq	sl, r8, r3, lsl #20
    4b28:	00040000 	andeq	r0, r4, r0
    4b2c:	0009e204 	andeq	lr, r9, r4, lsl #4
    4b30:	ceab0300 	cdpgt	3, 10, cr0, cr11, cr0, {0}
    4b34:	04000000 	streq	r0, [r0], #-0
    4b38:	00000882 	andeq	r0, r0, r2, lsl #17
    4b3c:	006baf03 	rsbeq	sl, fp, r3, lsl #30
    4b40:	040c0000 	streq	r0, [ip], #-0
    4b44:	010d040d 	tsteq	sp, sp, lsl #8
    4b48:	01030000 	mrseq	r0, (UNDEF: 3)
    4b4c:	00012f08 	andeq	r2, r1, r8, lsl #30
    4b50:	010d0e00 	tsteq	sp, r0, lsl #28
    4b54:	0c040000 	stceq	0, cr0, [r4], {-0}
    4b58:	0500000b 	streq	r0, [r0, #-11]
    4b5c:	00005d16 	andeq	r5, r0, r6, lsl sp
    4b60:	08930f00 	ldmeq	r3, {r8, r9, sl, fp}
    4b64:	05180000 	ldreq	r0, [r8, #-0]
    4b68:	0001772d 	andeq	r7, r1, sp, lsr #14
    4b6c:	0a030b00 	beq	c7774 <__bss_end__+0xbcc7c>
    4b70:	2f050000 	svccs	0x00050000
    4b74:	00000177 	andeq	r0, r0, r7, ror r1
    4b78:	6b5f1000 	blvs	17c8b80 <__bss_end__+0x17be088>
    4b7c:	25300500 	ldrcs	r0, [r0, #-1280]!	; 0x500
    4b80:	04000000 	streq	r0, [r0], #-0
    4b84:	000a3a0b 	andeq	r3, sl, fp, lsl #20
    4b88:	25300500 	ldrcs	r0, [r0, #-1280]!	; 0x500
    4b8c:	08000000 	stmdaeq	r0, {}	; <UNPREDICTABLE>
    4b90:	00086e0b 	andeq	r6, r8, fp, lsl #28
    4b94:	25300500 	ldrcs	r0, [r0, #-1280]!	; 0x500
    4b98:	0c000000 	stceq	0, cr0, [r0], {-0}
    4b9c:	000b530b 	andeq	r5, fp, fp, lsl #6
    4ba0:	25300500 	ldrcs	r0, [r0, #-1280]!	; 0x500
    4ba4:	10000000 	andne	r0, r0, r0
    4ba8:	00785f10 	rsbseq	r5, r8, r0, lsl pc
    4bac:	017d3105 	cmneq	sp, r5, lsl #2
    4bb0:	00140000 	andseq	r0, r4, r0
    4bb4:	0124040d 	teqeq	r4, sp, lsl #8
    4bb8:	19080000 	stmdbne	r8, {}	; <UNPREDICTABLE>
    4bbc:	8d000001 	stchi	0, cr0, [r0, #-4]
    4bc0:	09000001 	stmdbeq	r0, {r0}
    4bc4:	000000c7 	andeq	r0, r0, r7, asr #1
    4bc8:	b40f0000 	strlt	r0, [pc], #-0	; 4bd0 <_start-0x3430>
    4bcc:	24000008 	strcs	r0, [r0], #-8
    4bd0:	02063505 	andeq	r3, r6, #20971520	; 0x1400000
    4bd4:	6c0b0000 	stcvs	0, cr0, [fp], {-0}
    4bd8:	05000007 	streq	r0, [r0, #-7]
    4bdc:	00002537 	andeq	r2, r0, r7, lsr r5
    4be0:	720b0000 	andvc	r0, fp, #0
    4be4:	0500000a 	streq	r0, [r0, #-10]
    4be8:	00002538 	andeq	r2, r0, r8, lsr r5
    4bec:	9a0b0400 	bls	2c5bf4 <__bss_end__+0x2bb0fc>
    4bf0:	05000007 	streq	r0, [r0, #-7]
    4bf4:	00002539 	andeq	r2, r0, r9, lsr r5
    4bf8:	430b0800 	movwmi	r0, #47104	; 0xb800
    4bfc:	0500000c 	streq	r0, [r0, #-12]
    4c00:	0000253a 	andeq	r2, r0, sl, lsr r5
    4c04:	720b0c00 	andvc	r0, fp, #0, 24
    4c08:	05000009 	streq	r0, [r0, #-9]
    4c0c:	0000253b 	andeq	r2, r0, fp, lsr r5
    4c10:	470b1000 	strmi	r1, [fp, -r0]
    4c14:	05000009 	streq	r0, [r0, #-9]
    4c18:	0000253c 	andeq	r2, r0, ip, lsr r5
    4c1c:	580b1400 	stmdapl	fp, {sl, ip}
    4c20:	0500000b 	streq	r0, [r0, #-11]
    4c24:	0000253d 	andeq	r2, r0, sp, lsr r5
    4c28:	c40b1800 	strgt	r1, [fp], #-2048	; 0x800
    4c2c:	05000009 	streq	r0, [r0, #-9]
    4c30:	0000253e 	andeq	r2, r0, lr, lsr r5
    4c34:	0a0b1c00 	beq	2cbc3c <__bss_end__+0x2c1144>
    4c38:	0500000c 	streq	r0, [r0, #-12]
    4c3c:	0000253f 	andeq	r2, r0, pc, lsr r5
    4c40:	11002000 	mrsne	r2, (UNDEF: 0)
    4c44:	000007a9 	andeq	r0, r0, r9, lsr #15
    4c48:	48050108 	stmdami	r5, {r3, r8}
    4c4c:	00000246 	andeq	r0, r0, r6, asr #4
    4c50:	0008550b 	andeq	r5, r8, fp, lsl #10
    4c54:	46490500 	strbmi	r0, [r9], -r0, lsl #10
    4c58:	00000002 	andeq	r0, r0, r2
    4c5c:	0006e70b 	andeq	lr, r6, fp, lsl #14
    4c60:	464a0500 	strbmi	r0, [sl], -r0, lsl #10
    4c64:	80000002 	andhi	r0, r0, r2
    4c68:	000afe12 	andeq	pc, sl, r2, lsl lr	; <UNPREDICTABLE>
    4c6c:	194c0500 	stmdbne	ip, {r8, sl}^
    4c70:	00000001 	andeq	r0, r0, r1
    4c74:	07ce1201 	strbeq	r1, [lr, r1, lsl #4]
    4c78:	4f050000 	svcmi	0x00050000
    4c7c:	00000119 	andeq	r0, r0, r9, lsl r1
    4c80:	08000104 	stmdaeq	r0, {r2, r8}
    4c84:	00000105 	andeq	r0, r0, r5, lsl #2
    4c88:	00000256 	andeq	r0, r0, r6, asr r2
    4c8c:	0000c709 	andeq	ip, r0, r9, lsl #14
    4c90:	11001f00 	tstne	r0, r0, lsl #30
    4c94:	0000097b 	andeq	r0, r0, fp, ror r9
    4c98:	5b050190 	blpl	1452e0 <__bss_end__+0x13a7e8>
    4c9c:	00000294 	muleq	r0, r4, r2
    4ca0:	000a030b 	andeq	r0, sl, fp, lsl #6
    4ca4:	945c0500 	ldrbls	r0, [ip], #-1280	; 0x500
    4ca8:	00000002 	andeq	r0, r0, r2
    4cac:	000a1b0b 	andeq	r1, sl, fp, lsl #22
    4cb0:	255d0500 	ldrbcs	r0, [sp, #-1280]	; 0x500
    4cb4:	04000000 	streq	r0, [r0], #-0
    4cb8:	0008690b 	andeq	r6, r8, fp, lsl #18
    4cbc:	9a5f0500 	bls	17c60c4 <__bss_end__+0x17bb5cc>
    4cc0:	08000002 	stmdaeq	r0, {r1}
    4cc4:	0007a90b 	andeq	sl, r7, fp, lsl #18
    4cc8:	06600500 	strbteq	r0, [r0], -r0, lsl #10
    4ccc:	88000002 	stmdahi	r0, {r1}
    4cd0:	56040d00 	strpl	r0, [r4], -r0, lsl #26
    4cd4:	08000002 	stmdaeq	r0, {r1}
    4cd8:	000002aa 	andeq	r0, r0, sl, lsr #5
    4cdc:	000002aa 	andeq	r0, r0, sl, lsr #5
    4ce0:	0000c709 	andeq	ip, r0, r9, lsl #14
    4ce4:	0d001f00 	stceq	15, cr1, [r0, #-0]
    4ce8:	0002b004 	andeq	fp, r2, r4
    4cec:	ce0f1300 	cdpgt	3, 0, cr1, cr15, cr0, {0}
    4cf0:	08000009 	stmdaeq	r0, {r0, r3}
    4cf4:	02d67305 	sbcseq	r7, r6, #335544320	; 0x14000000
    4cf8:	8f0b0000 	svchi	0x000b0000
    4cfc:	05000007 	streq	r0, [r0, #-7]
    4d00:	0002d674 	andeq	sp, r2, r4, ror r6
    4d04:	f30b0000 	vhadd.u8	d0, d11, d0
    4d08:	05000006 	streq	r0, [r0, #-6]
    4d0c:	00002575 	andeq	r2, r0, r5, ror r5
    4d10:	0d000400 	cfstrseq	mvf0, [r0, #-0]
    4d14:	00004f04 	andeq	r4, r0, r4, lsl #30
    4d18:	09ed0f00 	stmibeq	sp!, {r8, r9, sl, fp}^
    4d1c:	05680000 	strbeq	r0, [r8, #-0]!
    4d20:	000406b3 			; <UNDEFINED> instruction: 0x000406b3
    4d24:	705f1000 	subsvc	r1, pc, r0
    4d28:	d6b40500 	ldrtle	r0, [r4], r0, lsl #10
    4d2c:	00000002 	andeq	r0, r0, r2
    4d30:	00725f10 	rsbseq	r5, r2, r0, lsl pc
    4d34:	0025b505 	eoreq	fp, r5, r5, lsl #10
    4d38:	10040000 	andne	r0, r4, r0
    4d3c:	0500775f 	streq	r7, [r0, #-1887]	; 0x75f
    4d40:	000025b6 			; <UNDEFINED> instruction: 0x000025b6
    4d44:	c70b0800 	strgt	r0, [fp, -r0, lsl #16]
    4d48:	05000007 	streq	r0, [r0, #-7]
    4d4c:	00003ab7 			; <UNDEFINED> instruction: 0x00003ab7
    4d50:	da0b0c00 	ble	2c7d58 <__bss_end__+0x2bd260>
    4d54:	05000008 	streq	r0, [r0, #-8]
    4d58:	00003ab8 			; <UNDEFINED> instruction: 0x00003ab8
    4d5c:	5f100e00 	svcpl	0x00100e00
    4d60:	05006662 	streq	r6, [r0, #-1634]	; 0x662
    4d64:	0002b1b9 			; <UNDEFINED> instruction: 0x0002b1b9
    4d68:	360b1000 	strcc	r1, [fp], -r0
    4d6c:	05000007 	streq	r0, [r0, #-7]
    4d70:	000025ba 			; <UNDEFINED> instruction: 0x000025ba
    4d74:	b70b1800 	strlt	r1, [fp, -r0, lsl #16]
    4d78:	05000007 	streq	r0, [r0, #-7]
    4d7c:	000105c1 	andeq	r0, r1, r1, asr #11
    4d80:	6a0b1c00 	bvs	2cbd88 <__bss_end__+0x2c1290>
    4d84:	0500000c 	streq	r0, [r0, #-12]
    4d88:	000561c3 	andeq	r6, r5, r3, asr #3
    4d8c:	840b2000 	strhi	r2, [fp], #-0
    4d90:	0500000c 	streq	r0, [r0, #-12]
    4d94:	00058bc5 	andeq	r8, r5, r5, asr #23
    4d98:	5f0b2400 	svcpl	0x000b2400
    4d9c:	0500000a 	streq	r0, [r0, #-10]
    4da0:	0005afc8 	andeq	sl, r5, r8, asr #31
    4da4:	240b2800 	strcs	r2, [fp], #-2048	; 0x800
    4da8:	0500000c 	streq	r0, [r0, #-12]
    4dac:	0005c9c9 	andeq	ip, r5, r9, asr #19
    4db0:	5f102c00 	svcpl	0x00102c00
    4db4:	05006275 	streq	r6, [r0, #-629]	; 0x275
    4db8:	0002b1cc 	andeq	fp, r2, ip, asr #3
    4dbc:	5f103000 	svcpl	0x00103000
    4dc0:	05007075 	streq	r7, [r0, #-117]	; 0x75
    4dc4:	0002d6cd 	andeq	sp, r2, sp, asr #13
    4dc8:	5f103800 	svcpl	0x00103800
    4dcc:	05007275 	streq	r7, [r0, #-629]	; 0x275
    4dd0:	000025ce 	andeq	r2, r0, lr, asr #11
    4dd4:	7a0b3c00 	bvc	2d3ddc <__bss_end__+0x2c92e4>
    4dd8:	05000007 	streq	r0, [r0, #-7]
    4ddc:	0005cfd1 	ldrdeq	ip, [r5], -r1
    4de0:	cf0b4000 	svcgt	0x000b4000
    4de4:	0500000b 	streq	r0, [r0, #-11]
    4de8:	0005dfd2 	ldrdeq	sp, [r5], -r2
    4dec:	5f104300 	svcpl	0x00104300
    4df0:	0500626c 	streq	r6, [r0, #-620]	; 0x26c
    4df4:	0002b1d5 	ldrdeq	fp, [r2], -r5
    4df8:	dd0b4400 	cfstrsle	mvf4, [fp, #-0]
    4dfc:	05000007 	streq	r0, [r0, #-7]
    4e00:	000025d8 	ldrdeq	r2, [r0], -r8
    4e04:	510b4c00 	tstpl	fp, r0, lsl #24
    4e08:	05000009 	streq	r0, [r0, #-9]
    4e0c:	000076d9 	ldrdeq	r7, [r0], -r9
    4e10:	510b5000 	mrspl	r5, (UNDEF: 11)
    4e14:	05000002 	streq	r0, [r0, #-2]
    4e18:	000424dc 	ldrdeq	r2, [r4], -ip
    4e1c:	390b5400 	stmdbcc	fp, {sl, ip, lr}
    4e20:	05000009 	streq	r0, [r0, #-9]
    4e24:	0000fae0 	andeq	pc, r0, r0, ror #21
    4e28:	f50b5800 			; <UNDEFINED> instruction: 0xf50b5800
    4e2c:	05000009 	streq	r0, [r0, #-9]
    4e30:	0000efe2 	andeq	lr, r0, r2, ror #31
    4e34:	3f0b5c00 	svccc	0x000b5c00
    4e38:	05000009 	streq	r0, [r0, #-9]
    4e3c:	000025e3 	andeq	r2, r0, r3, ror #11
    4e40:	14006400 	strne	r6, [r0], #-1024	; 0x400
    4e44:	00000025 	andeq	r0, r0, r5, lsr #32
    4e48:	00000424 	andeq	r0, r0, r4, lsr #8
    4e4c:	00042415 	andeq	r2, r4, r5, lsl r4
    4e50:	01051500 	tsteq	r5, r0, lsl #10
    4e54:	07150000 	ldreq	r0, [r5, -r0]
    4e58:	15000001 	strne	r0, [r0, #-1]
    4e5c:	00000025 	andeq	r0, r0, r5, lsr #32
    4e60:	2f040d00 	svccs	0x00040d00
    4e64:	0e000004 	cdpeq	0, 0, cr0, cr0, cr4, {0}
    4e68:	00000424 	andeq	r0, r0, r4, lsr #8
    4e6c:	000a4216 	andeq	r4, sl, r6, lsl r2
    4e70:	05042800 	streq	r2, [r4, #-2048]	; 0x800
    4e74:	05610238 	strbeq	r0, [r1, #-568]!	; 0x238
    4e78:	bd170000 	ldclt	0, cr0, [r7, #-0]
    4e7c:	05000009 	streq	r0, [r0, #-9]
    4e80:	0025023a 	eoreq	r0, r5, sl, lsr r2
    4e84:	17000000 	strne	r0, [r0, -r0]
    4e88:	000007d6 	ldrdeq	r0, [r0], -r6
    4e8c:	36023f05 	strcc	r3, [r2], -r5, lsl #30
    4e90:	04000006 	streq	r0, [r0], #-6
    4e94:	0008ca17 	andeq	ip, r8, r7, lsl sl
    4e98:	023f0500 	eorseq	r0, pc, #0, 10
    4e9c:	00000636 	andeq	r0, r0, r6, lsr r6
    4ea0:	088b1708 	stmeq	fp, {r3, r8, r9, sl, ip}
    4ea4:	3f050000 	svccc	0x00050000
    4ea8:	00063602 	andeq	r3, r6, r2, lsl #12
    4eac:	16170c00 	ldrne	r0, [r7], -r0, lsl #24
    4eb0:	0500000a 	streq	r0, [r0, #-10]
    4eb4:	00250241 	eoreq	r0, r5, r1, asr #4
    4eb8:	17100000 	ldrne	r0, [r0, -r0]
    4ebc:	00000701 	andeq	r0, r0, r1, lsl #14
    4ec0:	18024205 	stmdane	r2, {r0, r2, r9, lr}
    4ec4:	14000008 	strne	r0, [r0], #-8
    4ec8:	000b3417 	andeq	r3, fp, r7, lsl r4
    4ecc:	02440500 	subeq	r0, r4, #0, 10
    4ed0:	00000025 	andeq	r0, r0, r5, lsr #32
    4ed4:	0a201730 	beq	80ab9c <__bss_end__+0x8000a4>
    4ed8:	45050000 	strmi	r0, [r5, #-0]
    4edc:	00058502 	andeq	r8, r5, r2, lsl #10
    4ee0:	83173400 	tsthi	r7, #0, 8
    4ee4:	05000009 	streq	r0, [r0, #-9]
    4ee8:	00250247 	eoreq	r0, r5, r7, asr #4
    4eec:	17380000 	ldrne	r0, [r8, -r0]!
    4ef0:	00000a30 	andeq	r0, r0, r0, lsr sl
    4ef4:	33024905 	movwcc	r4, #10501	; 0x2905
    4ef8:	3c000008 	stccc	0, cr0, [r0], {8}
    4efc:	00091517 	andeq	r1, r9, r7, lsl r5
    4f00:	024c0500 	subeq	r0, ip, #0, 10
    4f04:	00000177 	andeq	r0, r0, r7, ror r1
    4f08:	08aa1740 	stmiaeq	sl!, {r6, r8, r9, sl, ip}
    4f0c:	4d050000 	stcmi	0, cr0, [r5, #-0]
    4f10:	00002502 	andeq	r2, r0, r2, lsl #10
    4f14:	3e174400 	cfmulscc	mvf4, mvf7, mvf0
    4f18:	0500000c 	streq	r0, [r0, #-12]
    4f1c:	0177024e 	cmneq	r7, lr, asr #4
    4f20:	17480000 	strbne	r0, [r8, -r0]
    4f24:	0000099a 	muleq	r0, sl, r9
    4f28:	39024f05 	stmdbcc	r2, {r0, r2, r8, r9, sl, fp, lr}
    4f2c:	4c000008 	stcmi	0, cr0, [r0], {8}
    4f30:	0008d217 	andeq	sp, r8, r7, lsl r2
    4f34:	02520500 	subseq	r0, r2, #0, 10
    4f38:	00000025 	andeq	r0, r0, r5, lsr #32
    4f3c:	07f91750 	ubfxeq	r1, r0, #14, #26
    4f40:	53050000 	movwpl	r0, #20480	; 0x5000
    4f44:	00010702 	andeq	r0, r1, r2, lsl #14
    4f48:	b6175400 	ldrlt	r5, [r7], -r0, lsl #8
    4f4c:	05000009 	streq	r0, [r0, #-9]
    4f50:	07f60276 			; <UNDEFINED> instruction: 0x07f60276
    4f54:	18580000 	ldmdane	r8, {}^	; <UNPREDICTABLE>
    4f58:	0000097b 	andeq	r0, r0, fp, ror r9
    4f5c:	94027a05 	strls	r7, [r2], #-2565	; 0xa05
    4f60:	48000002 	stmdami	r0, {r1}
    4f64:	08e71801 	stmiaeq	r7!, {r0, fp, ip}^
    4f68:	7b050000 	blvc	144f70 <__bss_end__+0x13a478>
    4f6c:	00025602 	andeq	r5, r2, r2, lsl #12
    4f70:	18014c00 	stmdane	r1, {sl, fp, lr}
    4f74:	00000ba0 	andeq	r0, r0, r0, lsr #23
    4f78:	4a027f05 	bmi	a4b94 <__bss_end__+0x9a09c>
    4f7c:	dc000008 	stcle	0, cr0, [r0], {8}
    4f80:	07bf1802 	ldreq	r1, [pc, r2, lsl #16]!
    4f84:	84050000 	strhi	r0, [r5], #-0
    4f88:	0005fb02 	andeq	pc, r5, r2, lsl #22
    4f8c:	1802e000 	stmdane	r2, {sp, lr, pc}
    4f90:	000007a4 	andeq	r0, r0, r4, lsr #15
    4f94:	56028505 	strpl	r8, [r2], -r5, lsl #10
    4f98:	ec000008 	stc	0, cr0, [r0], {8}
    4f9c:	040d0002 	streq	r0, [sp], #-2
    4fa0:	00000406 	andeq	r0, r0, r6, lsl #8
    4fa4:	00002514 	andeq	r2, r0, r4, lsl r5
    4fa8:	00058500 	andeq	r8, r5, r0, lsl #10
    4fac:	04241500 	strteq	r1, [r4], #-1280	; 0x500
    4fb0:	05150000 	ldreq	r0, [r5, #-0]
    4fb4:	15000001 	strne	r0, [r0, #-1]
    4fb8:	00000585 	andeq	r0, r0, r5, lsl #11
    4fbc:	00002515 	andeq	r2, r0, r5, lsl r5
    4fc0:	040d0000 	streq	r0, [sp], #-0
    4fc4:	00000114 	andeq	r0, r0, r4, lsl r1
    4fc8:	0567040d 	strbeq	r0, [r7, #-1037]!	; 0x40d
    4fcc:	81140000 	tsthi	r4, r0
    4fd0:	af000000 	svcge	0x00000000
    4fd4:	15000005 	strne	r0, [r0, #-5]
    4fd8:	00000424 	andeq	r0, r0, r4, lsr #8
    4fdc:	00010515 	andeq	r0, r1, r5, lsl r5
    4fe0:	00811500 	addeq	r1, r1, r0, lsl #10
    4fe4:	25150000 	ldrcs	r0, [r5, #-0]
    4fe8:	00000000 	andeq	r0, r0, r0
    4fec:	0591040d 	ldreq	r0, [r1, #1037]	; 0x40d
    4ff0:	25140000 	ldrcs	r0, [r4, #-0]
    4ff4:	c9000000 	stmdbgt	r0, {}	; <UNPREDICTABLE>
    4ff8:	15000005 	strne	r0, [r0, #-5]
    4ffc:	00000424 	andeq	r0, r0, r4, lsr #8
    5000:	00010515 	andeq	r0, r1, r5, lsl r5
    5004:	040d0000 	streq	r0, [sp], #-0
    5008:	000005b5 			; <UNDEFINED> instruction: 0x000005b5
    500c:	00004f08 	andeq	r4, r0, r8, lsl #30
    5010:	0005df00 	andeq	sp, r5, r0, lsl #30
    5014:	00c70900 	sbceq	r0, r7, r0, lsl #18
    5018:	00020000 	andeq	r0, r2, r0
    501c:	00004f08 	andeq	r4, r0, r8, lsl #30
    5020:	0005ef00 	andeq	lr, r5, r0, lsl #30
    5024:	00c70900 	sbceq	r0, r7, r0, lsl #18
    5028:	00000000 	andeq	r0, r0, r0
    502c:	0009db05 	andeq	sp, r9, r5, lsl #22
    5030:	011d0500 	tsteq	sp, r0, lsl #10
    5034:	000002dc 	ldrdeq	r0, [r0], -ip
    5038:	000b6219 	andeq	r6, fp, r9, lsl r2
    503c:	21050c00 	tstcs	r5, r0, lsl #24
    5040:	00063001 	andeq	r3, r6, r1
    5044:	0a031700 	beq	cac4c <__bss_end__+0xc0154>
    5048:	23050000 	movwcs	r0, #20480	; 0x5000
    504c:	00063001 	andeq	r3, r6, r1
    5050:	e0170000 	ands	r0, r7, r0
    5054:	05000008 	streq	r0, [r0, #-8]
    5058:	00250124 	eoreq	r0, r5, r4, lsr #2
    505c:	17040000 	strne	r0, [r4, -r0]
    5060:	000009d5 	ldrdeq	r0, [r0], -r5
    5064:	36012505 	strcc	r2, [r1], -r5, lsl #10
    5068:	08000006 	stmdaeq	r0, {r1, r2}
    506c:	fb040d00 	blx	108476 <__bss_end__+0xfd97e>
    5070:	0d000005 	stceq	0, cr0, [r0, #-20]	; 0xffffffec
    5074:	0005ef04 	andeq	lr, r5, r4, lsl #30
    5078:	06f91900 	ldrbteq	r1, [r9], r0, lsl #18
    507c:	050e0000 	streq	r0, [lr, #-0]
    5080:	0671013d 			; <UNDEFINED> instruction: 0x0671013d
    5084:	49170000 	ldmdbmi	r7, {}	; <UNPREDICTABLE>
    5088:	0500000a 	streq	r0, [r0, #-10]
    508c:	0671013e 			; <UNDEFINED> instruction: 0x0671013e
    5090:	17000000 	strne	r0, [r0, -r0]
    5094:	00000a83 	andeq	r0, r0, r3, lsl #21
    5098:	71013f05 	tstvc	r1, r5, lsl #30
    509c:	06000006 	streq	r0, [r0], -r6
    50a0:	000b0717 	andeq	r0, fp, r7, lsl r7
    50a4:	01400500 	cmpeq	r0, r0, lsl #10
    50a8:	00000056 	andeq	r0, r0, r6, asr r0
    50ac:	5608000c 	strpl	r0, [r8], -ip
    50b0:	81000000 	mrshi	r0, (UNDEF: 0)
    50b4:	09000006 	stmdbeq	r0, {r1, r2}
    50b8:	000000c7 	andeq	r0, r0, r7, asr #1
    50bc:	d01a0002 	andsle	r0, sl, r2
    50c0:	82025705 	andhi	r5, r2, #1310720	; 0x140000
    50c4:	17000007 	strne	r0, [r0, -r7]
    50c8:	00000b46 	andeq	r0, r0, r6, asr #22
    50cc:	2c025905 	stccs	9, cr5, [r2], {5}
    50d0:	00000000 	andeq	r0, r0, r0
    50d4:	000af117 	andeq	pc, sl, r7, lsl r1	; <UNPREDICTABLE>
    50d8:	025a0500 	subseq	r0, sl, #0, 10
    50dc:	00000107 	andeq	r0, r0, r7, lsl #2
    50e0:	08fc1704 	ldmeq	ip!, {r2, r8, r9, sl, ip}^
    50e4:	5b050000 	blpl	1450ec <__bss_end__+0x13a5f4>
    50e8:	00078202 	andeq	r8, r7, r2, lsl #4
    50ec:	15170800 	ldrne	r0, [r7, #-2048]	; 0x800
    50f0:	0500000c 	streq	r0, [r0, #-12]
    50f4:	018d025c 	orreq	r0, sp, ip, asr r2
    50f8:	17240000 	strne	r0, [r4, -r0]!
    50fc:	0000089b 	muleq	r0, fp, r8
    5100:	25025d05 	strcs	r5, [r2, #-3333]	; 0xd05
    5104:	48000000 	stmdami	r0, {}	; <UNPREDICTABLE>
    5108:	0009fe17 	andeq	pc, r9, r7, lsl lr	; <UNPREDICTABLE>
    510c:	025e0500 	subseq	r0, lr, #0, 10
    5110:	00000064 	andeq	r0, r0, r4, rrx
    5114:	0c2b1750 	stceq	7, cr1, [fp], #-320	; 0xfffffec0
    5118:	5f050000 	svcpl	0x00050000
    511c:	00063c02 	andeq	r3, r6, r2, lsl #24
    5120:	09175800 	ldmdbeq	r7, {fp, ip, lr}
    5124:	0500000a 	streq	r0, [r0, #-10]
    5128:	00ef0260 	rsceq	r0, pc, r0, ror #4
    512c:	17680000 	strbne	r0, [r8, -r0]!
    5130:	00000c30 	andeq	r0, r0, r0, lsr ip
    5134:	ef026105 	svc	0x00026105
    5138:	70000000 	andvc	r0, r0, r0
    513c:	00075e17 	andeq	r5, r7, r7, lsl lr
    5140:	02620500 	rsbeq	r0, r2, #0, 10
    5144:	000000ef 	andeq	r0, r0, pc, ror #1
    5148:	0b821778 	bleq	fe08af30 <__bss_end__+0xfe080438>
    514c:	63050000 	movwvs	r0, #20480	; 0x5000
    5150:	00079202 	andeq	r9, r7, r2, lsl #4
    5154:	f0178000 			; <UNDEFINED> instruction: 0xf0178000
    5158:	05000008 	streq	r0, [r0, #-8]
    515c:	07a20264 	streq	r0, [r2, r4, ror #4]!
    5160:	17880000 	strne	r0, [r8, r0]
    5164:	00000b14 	andeq	r0, r0, r4, lsl fp
    5168:	25026505 	strcs	r6, [r2, #-1285]	; 0x505
    516c:	a0000000 	andge	r0, r0, r0
    5170:	00084717 	andeq	r4, r8, r7, lsl r7
    5174:	02660500 	rsbeq	r0, r6, #0, 10
    5178:	000000ef 	andeq	r0, r0, pc, ror #1
    517c:	074f17a4 	strbeq	r1, [pc, -r4, lsr #15]
    5180:	67050000 	strvs	r0, [r5, -r0]
    5184:	0000ef02 	andeq	lr, r0, r2, lsl #30
    5188:	3617ac00 	ldrcc	sl, [r7], -r0, lsl #24
    518c:	05000008 	streq	r0, [r0, #-8]
    5190:	00ef0268 	rsceq	r0, pc, r8, ror #4
    5194:	17b40000 	ldrne	r0, [r4, r0]!
    5198:	00000716 	andeq	r0, r0, r6, lsl r7
    519c:	ef026905 	svc	0x00026905
    51a0:	bc000000 	stclt	0, cr0, [r0], {-0}
    51a4:	00072517 	andeq	r2, r7, r7, lsl r5
    51a8:	026a0500 	rsbeq	r0, sl, #0, 10
    51ac:	000000ef 	andeq	r0, r0, pc, ror #1
    51b0:	09bb17c4 	ldmibeq	fp!, {r2, r6, r7, r8, r9, sl, ip}
    51b4:	6b050000 	blvs	1451bc <__bss_end__+0x13a6c4>
    51b8:	00002502 	andeq	r2, r0, r2, lsl #10
    51bc:	0800cc00 	stmdaeq	r0, {sl, fp, lr, pc}
    51c0:	0000010d 	andeq	r0, r0, sp, lsl #2
    51c4:	00000792 	muleq	r0, r2, r7
    51c8:	0000c709 	andeq	ip, r0, r9, lsl #14
    51cc:	08001900 	stmdaeq	r0, {r8, fp, ip}
    51d0:	0000010d 	andeq	r0, r0, sp, lsl #2
    51d4:	000007a2 	andeq	r0, r0, r2, lsr #15
    51d8:	0000c709 	andeq	ip, r0, r9, lsl #14
    51dc:	08000700 	stmdaeq	r0, {r8, r9, sl}
    51e0:	0000010d 	andeq	r0, r0, sp, lsl #2
    51e4:	000007b2 			; <UNDEFINED> instruction: 0x000007b2
    51e8:	0000c709 	andeq	ip, r0, r9, lsl #14
    51ec:	1a001700 	bne	adf4 <__bss_end__+0x2fc>
    51f0:	027005f0 	rsbseq	r0, r0, #240, 10	; 0x3c000000
    51f4:	000007d6 	ldrdeq	r0, [r0], -r6
    51f8:	00096b17 	andeq	r6, r9, r7, lsl fp
    51fc:	02730500 	rsbseq	r0, r3, #0, 10
    5200:	000007d6 	ldrdeq	r0, [r0], -r6
    5204:	0b791700 	bleq	1e4ae0c <__bss_end__+0x1e40314>
    5208:	74050000 	strvc	r0, [r5], #-0
    520c:	0007e602 	andeq	lr, r7, r2, lsl #12
    5210:	08007800 	stmdaeq	r0, {fp, ip, sp, lr}
    5214:	000002d6 	ldrdeq	r0, [r0], -r6
    5218:	000007e6 	andeq	r0, r0, r6, ror #15
    521c:	0000c709 	andeq	ip, r0, r9, lsl #14
    5220:	08001d00 	stmdaeq	r0, {r8, sl, fp, ip}
    5224:	0000002c 	andeq	r0, r0, ip, lsr #32
    5228:	000007f6 	strdeq	r0, [r0], -r6
    522c:	0000c709 	andeq	ip, r0, r9, lsl #14
    5230:	1b001d00 	blne	c638 <__bss_end__+0x1b40>
    5234:	025505f0 	subseq	r0, r5, #240, 10	; 0x3c000000
    5238:	00000818 	andeq	r0, r0, r8, lsl r8
    523c:	000a421c 	andeq	r4, sl, ip, lsl r2
    5240:	026c0500 	rsbeq	r0, ip, #0, 10
    5244:	00000681 	andeq	r0, r0, r1, lsl #13
    5248:	000bd51c 	andeq	sp, fp, ip, lsl r5
    524c:	02750500 	rsbseq	r0, r5, #0, 10
    5250:	000007b2 			; <UNDEFINED> instruction: 0x000007b2
    5254:	010d0800 	tsteq	sp, r0, lsl #16
    5258:	08280000 	stmdaeq	r8!, {}	; <UNPREDICTABLE>
    525c:	c7090000 	strgt	r0, [r9, -r0]
    5260:	18000000 	stmdane	r0, {}	; <UNPREDICTABLE>
    5264:	08331d00 	ldmdaeq	r3!, {r8, sl, fp, ip}
    5268:	24150000 	ldrcs	r0, [r5], #-0
    526c:	00000004 	andeq	r0, r0, r4
    5270:	0828040d 	stmdaeq	r8!, {r0, r2, r3, sl}
    5274:	040d0000 	streq	r0, [sp], #-0
    5278:	00000177 	andeq	r0, r0, r7, ror r1
    527c:	00084a1d 	andeq	r4, r8, sp, lsl sl
    5280:	00251500 	eoreq	r1, r5, r0, lsl #10
    5284:	0d000000 	stceq	0, cr0, [r0, #-0]
    5288:	00085004 	andeq	r5, r8, r4
    528c:	3f040d00 	svccc	0x00040d00
    5290:	08000008 	stmdaeq	r0, {r3}
    5294:	000005ef 	andeq	r0, r0, pc, ror #11
    5298:	00000866 	andeq	r0, r0, r6, ror #16
    529c:	0000c709 	andeq	ip, r0, r9, lsl #14
    52a0:	1e000200 	cdpne	2, 0, cr0, cr0, cr0, {0}
    52a4:	00000b28 	andeq	r0, r0, r8, lsr #22
    52a8:	2402fd05 	strcs	pc, [r2], #-3333	; 0xd05
    52ac:	1e000004 	cdpne	0, 0, cr0, cr0, cr4, {0}
    52b0:	00000b21 	andeq	r0, r0, r1, lsr #22
    52b4:	2a02fe05 	bcs	c4ad0 <__bss_end__+0xb9fd8>
    52b8:	14000004 	strne	r0, [r0], #-4
    52bc:	00000025 	andeq	r0, r0, r5, lsr #32
    52c0:	0000088d 	andeq	r0, r0, sp, lsl #17
    52c4:	00002515 	andeq	r2, r0, r5, lsl r5
    52c8:	2b1f0000 	blcs	7c52d0 <__bss_end__+0x7ba7d8>
    52cc:	06000005 	streq	r0, [r0], -r5
    52d0:	0008981d 	andeq	r9, r8, sp, lsl r8
    52d4:	7e040d00 	cdpvc	13, 0, cr0, cr4, cr0, {0}
    52d8:	14000008 	strne	r0, [r0], #-8
    52dc:	00000025 	andeq	r0, r0, r5, lsr #32
    52e0:	000008ad 	andeq	r0, r0, sp, lsr #17
    52e4:	00058515 	andeq	r8, r5, r5, lsl r5
    52e8:	681f0000 	ldmdavs	pc, {}	; <UNPREDICTABLE>
    52ec:	06000005 	streq	r0, [r0], -r5
    52f0:	0008b822 	andeq	fp, r8, r2, lsr #16
    52f4:	9e040d00 	cdpls	13, 0, cr0, cr4, cr0, {0}
    52f8:	03000008 	movweq	r0, #8
    52fc:	0cf70408 	cfldrdeq	mvd0, [r7], #32
    5300:	2f1f0000 	svccs	0x001f0000
    5304:	0100000d 	tsteq	r0, sp
    5308:	00010d0d 	andeq	r0, r1, sp, lsl #26
    530c:	04112000 	ldreq	r2, [r1], #-0
    5310:	0e010000 	cdpeq	0, 0, cr0, cr1, cr0, {0}
    5314:	00000107 	andeq	r0, r0, r7, lsl #2
    5318:	9c680305 	stclls	3, cr0, [r8], #-20	; 0xffffffec
    531c:	46200000 	strtmi	r0, [r0], -r0
    5320:	0100000d 	tsteq	r0, sp
    5324:	0001070f 	andeq	r0, r1, pc, lsl #14
    5328:	6c030500 	cfstr32vs	mvfx0, [r3], {-0}
    532c:	2100009c 	swpcs	r0, ip, [r0]	; <UNPREDICTABLE>
    5330:	00000d08 	andeq	r0, r0, r8, lsl #26
    5334:	9c383801 	ldcls	8, cr3, [r8], #-4
    5338:	00100000 	andseq	r0, r0, r0
    533c:	9c010000 	stcls	0, cr0, [r1], {-0}
    5340:	00000913 	andeq	r0, r0, r3, lsl r9
    5344:	01007022 	tsteq	r0, r2, lsr #32
    5348:	00010538 	andeq	r0, r1, r8, lsr r5
    534c:	00500100 	subseq	r0, r0, r0, lsl #2
    5350:	000cfe23 	andeq	pc, ip, r3, lsr #28
    5354:	24370100 	ldrtcs	r0, [r7], #-256	; 0x100
    5358:	1400009c 	strne	r0, [r0], #-156	; 0x9c
    535c:	01000000 	mrseq	r0, (UNDEF: 0)
    5360:	0246219c 	subeq	r2, r6, #156, 2	; 0x27
    5364:	36010000 	strcc	r0, [r1], -r0
    5368:	00009c20 	andeq	r9, r0, r0, lsr #24
    536c:	00000004 	andeq	r0, r0, r4
    5370:	09459c01 	stmdbeq	r5, {r0, sl, fp, ip, pc}^
    5374:	70220000 	eorvc	r0, r2, r0
    5378:	05360100 	ldreq	r0, [r6, #-256]!	; 0x100
    537c:	01000001 	tsteq	r0, r1
    5380:	e7240050 			; <UNDEFINED> instruction: 0xe7240050
    5384:	0100000c 	tsteq	r0, ip
    5388:	00010529 	andeq	r0, r1, r9, lsr #10
    538c:	009b9400 	addseq	r9, fp, r0, lsl #8
    5390:	00008c00 	andeq	r8, r0, r0, lsl #24
    5394:	309c0100 	addscc	r0, ip, r0, lsl #2
    5398:	2500000a 	strcs	r0, [r0, #-10]
    539c:	0000033b 	andeq	r0, r0, fp, lsr r3
    53a0:	002c2901 	eoreq	r2, ip, r1, lsl #18
    53a4:	16bd0000 	ldrtne	r0, [sp], r0
    53a8:	25250000 	strcs	r0, [r5, #-0]!
    53ac:	0100000d 	tsteq	r0, sp
    53b0:	00002c29 	andeq	r2, r0, r9, lsr #24
    53b4:	00171000 	andseq	r1, r7, r0
    53b8:	013b2600 	teqeq	fp, r0, lsl #12
    53bc:	0a400000 	beq	10053c4 <__bss_end__+0xffa8cc>
    53c0:	03050000 	movweq	r0, #20480	; 0x5000
    53c4:	0000a5cc 	andeq	sl, r0, ip, asr #11
    53c8:	01006827 	tsteq	r0, r7, lsr #16
    53cc:	00002c2e 	andeq	r2, r0, lr, lsr #24
    53d0:	00175700 	andseq	r5, r7, r0, lsl #14
    53d4:	9bd02800 	blls	ff40f3dc <__bss_end__+0xff4048e4>
    53d8:	0a790000 	beq	1e453e0 <__bss_end__+0x1e3a8e8>
    53dc:	09ad0000 	stmibeq	sp!, {}	; <UNPREDICTABLE>
    53e0:	01290000 	teqeq	r9, r0
    53e4:	01f30350 	mvnseq	r0, r0, asr r3
    53e8:	d82a0050 	stmdale	sl!, {r4, r6}
    53ec:	fb00009b 	blx	5662 <_start-0x299e>
    53f0:	2800000b 	stmdacs	r0, {r0, r1, r3}
    53f4:	00009bec 	andeq	r9, r0, ip, ror #23
    53f8:	00000c06 	andeq	r0, r0, r6, lsl #24
    53fc:	000009e5 	andeq	r0, r0, r5, ror #19
    5400:	05500129 	ldrbeq	r0, [r0, #-297]	; 0x129
    5404:	00a61803 	adceq	r1, r6, r3, lsl #16
    5408:	51012900 	tstpl	r1, r0, lsl #18
    540c:	a5dc0305 	ldrbge	r0, [ip, #773]	; 0x305
    5410:	01290000 	teqeq	r9, r0
    5414:	cc030552 	cfstr32gt	mvfx0, [r3], {82}	; 0x52
    5418:	290000a5 	stmdbcs	r0, {r0, r2, r5, r7}
    541c:	08025301 	stmdaeq	r2, {r0, r8, r9, ip, lr}
    5420:	f02a002a 			; <UNDEFINED> instruction: 0xf02a002a
    5424:	1100009b 	swpne	r0, fp, [r0]	; <UNPREDICTABLE>
    5428:	2a00000c 	bcs	5460 <_start-0x2ba0>
    542c:	00009bf4 	strdeq	r9, [r0], -r4
    5430:	00000bfb 	strdeq	r0, [r0], -fp
    5434:	009c0828 	addseq	r0, ip, r8, lsr #16
    5438:	000c0600 	andeq	r0, ip, r0, lsl #12
    543c:	000a2600 	andeq	r2, sl, r0, lsl #12
    5440:	50012900 	andpl	r2, r1, r0, lsl #18
    5444:	a6780305 	ldrbtge	r0, [r8], -r5, lsl #6
    5448:	01290000 	teqeq	r9, r0
    544c:	dc030551 	cfstr32le	mvfx0, [r3], {81}	; 0x51
    5450:	290000a5 	stmdbcs	r0, {r0, r2, r5, r7}
    5454:	03055201 	movweq	r5, #20993	; 0x5201
    5458:	0000a5cc 	andeq	sl, r0, ip, asr #11
    545c:	02530129 	subseq	r0, r3, #1073741834	; 0x4000000a
    5460:	2a003008 	bcs	11488 <__bss_end__+0x6990>
    5464:	00009c0c 	andeq	r9, r0, ip, lsl #24
    5468:	00000c11 	andeq	r0, r0, r1, lsl ip
    546c:	01140800 	tsteq	r4, r0, lsl #16
    5470:	0a400000 	beq	1005478 <__bss_end__+0xffa980>
    5474:	c7090000 	strgt	r0, [r9, -r0]
    5478:	0f000000 	svceq	0x00000000
    547c:	0a300e00 	beq	c08c84 <__bss_end__+0xbfe18c>
    5480:	14240000 	strtne	r0, [r4], #-0
    5484:	0100000d 	tsteq	r0, sp
    5488:	00010525 	andeq	r0, r1, r5, lsr #10
    548c:	009b8800 	addseq	r8, fp, r0, lsl #16
    5490:	00000c00 	andeq	r0, r0, r0, lsl #24
    5494:	689c0100 	ldmvs	ip, {r8}
    5498:	2a00000a 	bcs	54c8 <_start-0x2b38>
    549c:	00009b90 	muleq	r0, r0, fp
    54a0:	00000bd1 	ldrdeq	r0, [r0], -r1
    54a4:	0cda2300 	ldcleq	3, cr2, [sl], {0}
    54a8:	24010000 	strcs	r0, [r1], #-0
    54ac:	00009b84 	andeq	r9, r0, r4, lsl #23
    54b0:	00000004 	andeq	r0, r0, r4
    54b4:	0f249c01 	svceq	0x00249c01
    54b8:	01000001 	tsteq	r0, r1
    54bc:	0001051a 	andeq	r0, r1, sl, lsl r5
    54c0:	009b2000 	addseq	r2, fp, r0
    54c4:	00006400 	andeq	r6, r0, r0, lsl #8
    54c8:	249c0100 	ldrcs	r0, [ip], #256	; 0x100
    54cc:	2b00000b 	blcs	5500 <_start-0x2b00>
    54d0:	01007a73 	tsteq	r0, r3, ror sl
    54d4:	00002c1a 	andeq	r2, r0, sl, lsl ip
    54d8:	00178f00 	andseq	r8, r7, r0, lsl #30
    54dc:	013b2600 	teqeq	fp, r0, lsl #12
    54e0:	0b340000 	bleq	d054e8 <__bss_end__+0xcfa9f0>
    54e4:	03050000 	movweq	r0, #20480	; 0x5000
    54e8:	0000a5c4 	andeq	sl, r0, r4, asr #11
    54ec:	000d522c 	andeq	r5, sp, ip, lsr #4
    54f0:	051e0100 	ldreq	r0, [lr, #-256]	; 0x100
    54f4:	d9000001 	stmdble	r0, {r0}
    54f8:	28000017 	stmdacs	r0, {r0, r1, r2, r4}
    54fc:	00009b50 	andeq	r9, r0, r0, asr fp
    5500:	00000c1c 	andeq	r0, r0, ip, lsl ip
    5504:	00000ae3 	andeq	r0, r0, r3, ror #21
    5508:	02500129 	subseq	r0, r0, #1073741834	; 0x4000000a
    550c:	01290074 	teqeq	r9, r4, ror r0
    5510:	29300151 	ldmdbcs	r0!, {r0, r4, r6, r8}
    5514:	f3085201 	vhsub.u8	d5, d8, d1
    5518:	07235001 	streq	r5, [r3, -r1]!
    551c:	001af809 	andseq	pc, sl, r9, lsl #16
    5520:	009b5c2a 	addseq	r5, fp, sl, lsr #24
    5524:	000bfb00 	andeq	pc, fp, r0, lsl #22
    5528:	9b702800 	blls	1c0f530 <__bss_end__+0x1c04a38>
    552c:	0c060000 	stceq	0, cr0, [r6], {-0}
    5530:	0b1a0000 	bleq	685538 <__bss_end__+0x67aa40>
    5534:	01290000 	teqeq	r9, r0
    5538:	04030550 	streq	r0, [r3], #-1360	; 0x550
    553c:	290000a6 	stmdbcs	r0, {r1, r2, r5, r7}
    5540:	03055101 	movweq	r5, #20737	; 0x5101
    5544:	0000a5dc 	ldrdeq	sl, [r0], -ip
    5548:	05520129 	ldrbeq	r0, [r2, #-297]	; 0x129
    554c:	00a5c403 	adceq	ip, r5, r3, lsl #8
    5550:	53012900 	movwpl	r2, #6400	; 0x1900
    5554:	2a004b01 	bcs	18160 <__bss_end__+0xd668>
    5558:	00009b74 	andeq	r9, r0, r4, ror fp
    555c:	00000c11 	andeq	r0, r0, r1, lsl ip
    5560:	01140800 	tsteq	r4, r0, lsl #16
    5564:	0b340000 	bleq	d0556c <__bss_end__+0xcfaa74>
    5568:	c7090000 	strgt	r0, [r9, -r0]
    556c:	07000000 	streq	r0, [r0, -r0]
    5570:	0b240e00 	bleq	908d78 <__bss_end__+0x8fe280>
    5574:	91210000 	teqls	r1, r0
    5578:	01000001 	tsteq	r0, r1
    557c:	009ad014 	addseq	sp, sl, r4, lsl r0
    5580:	00005000 	andeq	r5, r0, r0
    5584:	bc9c0100 	ldflts	f0, [ip], {0}
    5588:	2500000b 	strcs	r0, [r0, #-11]
    558c:	00000d51 	andeq	r0, r0, r1, asr sp
    5590:	002c1401 	eoreq	r1, ip, r1, lsl #8
    5594:	17ec0000 	strbne	r0, [ip, r0]!
    5598:	522c0000 	eorpl	r0, ip, #0
    559c:	0100000d 	tsteq	r0, sp
    55a0:	00010715 	andeq	r0, r1, r5, lsl r7
    55a4:	00180d00 	andseq	r0, r8, r0, lsl #26
    55a8:	013b2600 	teqeq	fp, r0, lsl #12
    55ac:	0bcc0000 	bleq	ff3055b4 <__bss_end__+0xff2faabc>
    55b0:	03050000 	movweq	r0, #20480	; 0x5000
    55b4:	0000a5ac 	andeq	sl, r0, ip, lsr #11
    55b8:	009af82a 	addseq	pc, sl, sl, lsr #16
    55bc:	000bfb00 	andeq	pc, fp, r0, lsl #22
    55c0:	9b0c2800 	blls	30f5c8 <__bss_end__+0x304ad0>
    55c4:	0c060000 	stceq	0, cr0, [r6], {-0}
    55c8:	0bb20000 	bleq	fec855d0 <__bss_end__+0xfec7aad8>
    55cc:	01290000 	teqeq	r9, r0
    55d0:	e8030550 	stmda	r3, {r4, r6, r8, sl}
    55d4:	290000a5 	stmdbcs	r0, {r0, r2, r5, r7}
    55d8:	03055101 	movweq	r5, #20737	; 0x5101
    55dc:	0000a5dc 	ldrdeq	sl, [r0], -ip
    55e0:	05520129 	ldrbeq	r0, [r2, #-297]	; 0x129
    55e4:	00a5ac03 	adceq	sl, r5, r3, lsl #24
    55e8:	53012900 	movwpl	r2, #6400	; 0x1900
    55ec:	2a004601 	bcs	16df8 <__bss_end__+0xc300>
    55f0:	00009b10 	andeq	r9, r0, r0, lsl fp
    55f4:	00000c11 	andeq	r0, r0, r1, lsl ip
    55f8:	01140800 	tsteq	r4, r0, lsl #16
    55fc:	0bcc0000 	bleq	ff305604 <__bss_end__+0xff2fab0c>
    5600:	c7090000 	strgt	r0, [r9, -r0]
    5604:	16000000 	strne	r0, [r0], -r0
    5608:	0bbc0e00 	bleq	fef08e10 <__bss_end__+0xfeefe318>
    560c:	3e2d0000 	cdpcc	0, 2, cr0, cr13, cr0, {0}
    5610:	0100000d 	tsteq	r0, sp
    5614:	00010512 	andeq	r0, r1, r2, lsl r5
    5618:	009ac400 	addseq	ip, sl, r0, lsl #8
    561c:	00000c00 	andeq	r0, r0, r0, lsl #24
    5620:	2d9c0100 	ldfcss	f0, [ip]
    5624:	00000d57 	andeq	r0, r0, r7, asr sp
    5628:	01051101 	tsteq	r5, r1, lsl #2
    562c:	9ab40000 	bls	fed05634 <__bss_end__+0xfecfab3c>
    5630:	00100000 	andseq	r0, r0, r0
    5634:	9c010000 	stcls	0, cr0, [r1], {-0}
    5638:	0001172e 	andeq	r1, r1, lr, lsr #14
    563c:	00011700 	andeq	r1, r1, r0, lsl #14
    5640:	2e1e0600 	cfmsub32cs	mvax0, mvfx0, mvfx14, mvfx0
    5644:	000004fa 	strdeq	r0, [r0], -sl
    5648:	000004fa 	strdeq	r0, [r0], -sl
    564c:	ef2e2906 	svc	0x002e2906
    5650:	ef000000 	svc	0x00000000
    5654:	06000000 	streq	r0, [r0], -r0
    5658:	01342e65 	teqeq	r4, r5, ror #28
    565c:	01340000 	teqeq	r4, r0
    5660:	19070000 	stmdbne	r7, {}	; <UNPREDICTABLE>
	...

Disassembly of section .debug_abbrev:

00000000 <.debug_abbrev>:
       0:	25011101 	strcs	r1, [r1, #-257]	; 0x101
       4:	030b130e 	movweq	r1, #45838	; 0xb30e
       8:	110e1b0e 	tstne	lr, lr, lsl #22
       c:	10061201 	andne	r1, r6, r1, lsl #4
      10:	02000017 	andeq	r0, r0, #23
      14:	0b0b0024 	bleq	2c00ac <__bss_end__+0x2b55b4>
      18:	08030b3e 	stmdaeq	r3, {r1, r2, r3, r4, r5, r8, r9, fp}
      1c:	16030000 	strne	r0, [r3], -r0
      20:	3a0e0300 	bcc	380c28 <__bss_end__+0x376130>
      24:	490b3b0b 	stmdbmi	fp, {r0, r1, r3, r8, r9, fp, ip, sp}
      28:	04000013 	streq	r0, [r0], #-19
      2c:	0b0b0024 	bleq	2c00c4 <__bss_end__+0x2b55cc>
      30:	0e030b3e 	vmoveq.16	d3[0], r0
      34:	0f050000 	svceq	0x00050000
      38:	000b0b00 	andeq	r0, fp, r0, lsl #22
      3c:	000f0600 	andeq	r0, pc, r0, lsl #12
      40:	13490b0b 	movtne	r0, #39691	; 0x9b0b
      44:	26070000 	strcs	r0, [r7], -r0
      48:	00134900 	andseq	r4, r3, r0, lsl #18
      4c:	01010800 	tsteq	r1, r0, lsl #16
      50:	13011349 	movwne	r1, #4937	; 0x1349
      54:	21090000 	mrscs	r0, (UNDEF: 9)
      58:	2f134900 	svccs	0x00134900
      5c:	0a00000b 	beq	90 <_start-0x7f70>
      60:	193f012e 	ldmdbne	pc!, {r1, r2, r3, r5, r8}	; <UNPREDICTABLE>
      64:	0b3a0e03 	bleq	e83878 <__bss_end__+0xe78d80>
      68:	19270b3b 	stmdbne	r7!, {r0, r1, r3, r4, r5, r8, r9, fp}
      6c:	01111349 	tsteq	r1, r9, asr #6
      70:	18400612 	stmdane	r0, {r1, r4, r9, sl}^
      74:	01194297 			; <UNDEFINED> instruction: 0x01194297
      78:	0b000013 	bleq	cc <_start-0x7f34>
      7c:	08030034 	stmdaeq	r3, {r2, r4, r5}
      80:	0b3b0b3a 	bleq	ec2d70 <__bss_end__+0xeb8278>
      84:	17021349 	strne	r1, [r2, -r9, asr #6]
      88:	340c0000 	strcc	r0, [ip], #-0
      8c:	490e0300 	stmdbmi	lr, {r8, r9}
      90:	02193413 	andseq	r3, r9, #318767104	; 0x13000000
      94:	0d000018 	stceq	0, cr0, [r0, #-96]	; 0xffffffa0
      98:	01018289 	smlabbeq	r1, r9, r2, r8
      9c:	13310111 	teqne	r1, #1073741828	; 0x40000004
      a0:	00001301 	andeq	r1, r0, r1, lsl #6
      a4:	01828a0e 	orreq	r8, r2, lr, lsl #20
      a8:	91180200 	tstls	r8, r0, lsl #4
      ac:	00001842 	andeq	r1, r0, r2, asr #16
      b0:	0182890f 	orreq	r8, r2, pc, lsl #18
      b4:	31011101 	tstcc	r1, r1, lsl #2
      b8:	10000013 	andne	r0, r0, r3, lsl r0
      bc:	193f012e 	ldmdbne	pc!, {r1, r2, r3, r5, r8}	; <UNPREDICTABLE>
      c0:	0b3a0e03 	bleq	e838d4 <__bss_end__+0xe78ddc>
      c4:	19270b3b 	stmdbne	r7!, {r0, r1, r3, r4, r5, r8, r9, fp}
      c8:	06120111 			; <UNDEFINED> instruction: 0x06120111
      cc:	42971840 	addsmi	r1, r7, #64, 16	; 0x400000
      d0:	00130119 	andseq	r0, r3, r9, lsl r1
      d4:	00341100 	eorseq	r1, r4, r0, lsl #2
      d8:	0b3a0803 	bleq	e820ec <__bss_end__+0xe775f4>
      dc:	13490b3b 	movtne	r0, #39739	; 0x9b3b
      e0:	0000061c 	andeq	r0, r0, ip, lsl r6
      e4:	01828912 	orreq	r8, r2, r2, lsl r9
      e8:	31011100 	mrscc	r1, (UNDEF: 17)
      ec:	13000013 	movwne	r0, #19
      f0:	193f012e 	ldmdbne	pc!, {r1, r2, r3, r5, r8}	; <UNPREDICTABLE>
      f4:	0b3a0e03 	bleq	e83908 <__bss_end__+0xe78e10>
      f8:	19270b3b 	stmdbne	r7!, {r0, r1, r3, r4, r5, r8, r9, fp}
      fc:	193c1349 	ldmdbne	ip!, {r0, r3, r6, r8, r9, ip}
     100:	00001301 	andeq	r1, r0, r1, lsl #6
     104:	49000514 	stmdbmi	r0, {r2, r4, r8, sl}
     108:	15000013 	strne	r0, [r0, #-19]
     10c:	00000018 	andeq	r0, r0, r8, lsl r0
     110:	3f012e16 	svccc	0x00012e16
     114:	3a0e0319 	bcc	380d80 <__bss_end__+0x376288>
     118:	270b3b0b 	strcs	r3, [fp, -fp, lsl #22]
     11c:	01193c19 	tsteq	r9, r9, lsl ip
     120:	17000013 	smladne	r0, r3, r0, r0
     124:	193f002e 	ldmdbne	pc!, {r1, r2, r3, r5}	; <UNPREDICTABLE>
     128:	0b3a0e03 	bleq	e8393c <__bss_end__+0xe78e44>
     12c:	19270b3b 	stmdbne	r7!, {r0, r1, r3, r4, r5, r8, r9, fp}
     130:	193c1349 	ldmdbne	ip!, {r0, r3, r6, r8, r9, ip}
     134:	2e180000 	cdpcs	0, 1, cr0, cr8, cr0, {0}
     138:	03193f00 	tsteq	r9, #0, 30
     13c:	3b0b3a0e 	blcc	2ce97c <__bss_end__+0x2c3e84>
     140:	3c19270b 	ldccc	7, cr2, [r9], {11}
     144:	19000019 	stmdbne	r0, {r0, r3, r4}
     148:	193f012e 	ldmdbne	pc!, {r1, r2, r3, r5, r8}	; <UNPREDICTABLE>
     14c:	0b3a0e03 	bleq	e83960 <__bss_end__+0xe78e68>
     150:	19270b3b 	stmdbne	r7!, {r0, r1, r3, r4, r5, r8, r9, fp}
     154:	193c1349 	ldmdbne	ip!, {r0, r3, r6, r8, r9, ip}
     158:	01000000 	mrseq	r0, (UNDEF: 0)
     15c:	0e250111 	mcreq	1, 1, r0, cr5, cr1, {0}
     160:	0e030b13 	vmoveq.32	d3[0], r0
     164:	01110e1b 	tsteq	r1, fp, lsl lr
     168:	17100612 			; <UNDEFINED> instruction: 0x17100612
     16c:	24020000 	strcs	r0, [r2], #-0
     170:	3e0b0b00 	vmlacc.f64	d0, d11, d0
     174:	0008030b 	andeq	r0, r8, fp, lsl #6
     178:	00160300 	andseq	r0, r6, r0, lsl #6
     17c:	0b3a0e03 	bleq	e83990 <__bss_end__+0xe78e98>
     180:	13490b3b 	movtne	r0, #39739	; 0x9b3b
     184:	24040000 	strcs	r0, [r4], #-0
     188:	3e0b0b00 	vmlacc.f64	d0, d11, d0
     18c:	000e030b 	andeq	r0, lr, fp, lsl #6
     190:	000f0500 	andeq	r0, pc, r0, lsl #10
     194:	00000b0b 	andeq	r0, r0, fp, lsl #22
     198:	0b000f06 	bleq	3db8 <_start-0x4248>
     19c:	0013490b 	andseq	r4, r3, fp, lsl #18
     1a0:	00260700 	eoreq	r0, r6, r0, lsl #14
     1a4:	00001349 	andeq	r1, r0, r9, asr #6
     1a8:	49010108 	stmdbmi	r1, {r3, r8}
     1ac:	00130113 	andseq	r0, r3, r3, lsl r1
     1b0:	00210900 	eoreq	r0, r1, r0, lsl #18
     1b4:	0b2f1349 	bleq	bc4ee0 <__bss_end__+0xbba3e8>
     1b8:	040a0000 	streq	r0, [sl], #-0
     1bc:	3a0b0b01 	bcc	2c2dc8 <__bss_end__+0x2b82d0>
     1c0:	010b3b0b 	tsteq	fp, fp, lsl #22
     1c4:	0b000013 	bleq	218 <_start-0x7de8>
     1c8:	0e030028 	cdpeq	0, 0, cr0, cr3, cr8, {1}
     1cc:	00000d1c 	andeq	r0, r0, ip, lsl sp
     1d0:	0b01130c 	bleq	44e08 <__bss_end__+0x3a310>
     1d4:	3b0b3a0b 	blcc	2cea08 <__bss_end__+0x2c3f10>
     1d8:	0013010b 	andseq	r0, r3, fp, lsl #2
     1dc:	000d0d00 	andeq	r0, sp, r0, lsl #26
     1e0:	0b3a0e03 	bleq	e839f4 <__bss_end__+0xe78efc>
     1e4:	13490b3b 	movtne	r0, #39739	; 0x9b3b
     1e8:	00000b38 	andeq	r0, r0, r8, lsr fp
     1ec:	0301130e 	movweq	r1, #4878	; 0x130e
     1f0:	3a0b0b0e 	bcc	2c2e30 <__bss_end__+0x2b8338>
     1f4:	010b3b0b 	tsteq	fp, fp, lsl #22
     1f8:	0f000013 	svceq	0x00000013
     1fc:	0e03012e 	adfeqsp	f0, f3, #0.5
     200:	0b3b0b3a 	bleq	ec2ef0 <__bss_end__+0xeb83f8>
     204:	13491927 	movtne	r1, #39207	; 0x9927
     208:	13010b20 	movwne	r0, #6944	; 0x1b20
     20c:	05100000 	ldreq	r0, [r0, #-0]
     210:	3a080300 	bcc	200e18 <__bss_end__+0x1f6320>
     214:	490b3b0b 	stmdbmi	fp, {r0, r1, r3, r8, r9, fp, ip, sp}
     218:	11000013 	tstne	r0, r3, lsl r0
     21c:	0e030005 	cdpeq	0, 0, cr0, cr3, cr5, {0}
     220:	0b3b0b3a 	bleq	ec2f10 <__bss_end__+0xeb8418>
     224:	00001349 	andeq	r1, r0, r9, asr #6
     228:	03012e12 	movweq	r2, #7698	; 0x1e12
     22c:	3b0b3a0e 	blcc	2cea6c <__bss_end__+0x2c3f74>
     230:	2019270b 	andscs	r2, r9, fp, lsl #14
     234:	0013010b 	andseq	r0, r3, fp, lsl #2
     238:	00341300 	eorseq	r1, r4, r0, lsl #6
     23c:	0b3a0803 	bleq	e82250 <__bss_end__+0xe77758>
     240:	13490b3b 	movtne	r0, #39739	; 0x9b3b
     244:	2e140000 	cdpcs	0, 1, cr0, cr4, cr0, {0}
     248:	3a0e0301 	bcc	380e54 <__bss_end__+0x37635c>
     24c:	270b3b0b 	strcs	r3, [fp, -fp, lsl #22]
     250:	11134919 	tstne	r3, r9, lsl r9
     254:	40061201 	andmi	r1, r6, r1, lsl #4
     258:	19429718 	stmdbne	r2, {r3, r4, r8, r9, sl, ip, pc}^
     25c:	00001301 	andeq	r1, r0, r1, lsl #6
     260:	03000515 	movweq	r0, #1301	; 0x515
     264:	3b0b3a08 	blcc	2cea8c <__bss_end__+0x2c3f94>
     268:	0213490b 	andseq	r4, r3, #180224	; 0x2c000
     26c:	16000017 			; <UNDEFINED> instruction: 0x16000017
     270:	0e030005 	cdpeq	0, 0, cr0, cr3, cr5, {0}
     274:	0b3b0b3a 	bleq	ec2f64 <__bss_end__+0xeb846c>
     278:	17021349 	strne	r1, [r2, -r9, asr #6]
     27c:	34170000 	ldrcc	r0, [r7], #-0
     280:	3a080300 	bcc	200e88 <__bss_end__+0x1f6390>
     284:	490b3b0b 	stmdbmi	fp, {r0, r1, r3, r8, r9, fp, ip, sp}
     288:	00170213 	andseq	r0, r7, r3, lsl r2
     28c:	011d1800 	tsteq	sp, r0, lsl #16
     290:	01111331 	tsteq	r1, r1, lsr r3
     294:	0b580612 	bleq	1601ae4 <__bss_end__+0x15f6fec>
     298:	13010b59 	movwne	r0, #7001	; 0x1b59
     29c:	05190000 	ldreq	r0, [r9, #-0]
     2a0:	02133100 	andseq	r3, r3, #0, 2
     2a4:	1a000017 	bne	308 <_start-0x7cf8>
     2a8:	0111010b 	tsteq	r1, fp, lsl #2
     2ac:	00000612 	andeq	r0, r0, r2, lsl r6
     2b0:	3100341b 	tstcc	r0, fp, lsl r4
     2b4:	00170213 	andseq	r0, r7, r3, lsl r2
     2b8:	82891c00 	addhi	r1, r9, #0, 24
     2bc:	01110101 	tsteq	r1, r1, lsl #2
     2c0:	13011331 	movwne	r1, #4913	; 0x1331
     2c4:	8a1d0000 	bhi	7402cc <__bss_end__+0x7357d4>
     2c8:	02000182 	andeq	r0, r0, #-2147483616	; 0x80000020
     2cc:	18429118 	stmdane	r2, {r3, r4, r8, ip, pc}^
     2d0:	891e0000 	ldmdbhi	lr, {}	; <UNPREDICTABLE>
     2d4:	11010182 	smlabbne	r1, r2, r1, r0
     2d8:	00133101 	andseq	r3, r3, r1, lsl #2
     2dc:	012e1f00 	teqeq	lr, r0, lsl #30
     2e0:	0b3a0e03 	bleq	e83af4 <__bss_end__+0xe78ffc>
     2e4:	19270b3b 	stmdbne	r7!, {r0, r1, r3, r4, r5, r8, r9, fp}
     2e8:	06120111 			; <UNDEFINED> instruction: 0x06120111
     2ec:	42971840 	addsmi	r1, r7, #64, 16	; 0x400000
     2f0:	00130119 	andseq	r0, r3, r9, lsl r1
     2f4:	00342000 	eorseq	r2, r4, r0
     2f8:	0b3a0e03 	bleq	e83b0c <__bss_end__+0xe79014>
     2fc:	13490b3b 	movtne	r0, #39739	; 0x9b3b
     300:	00001802 	andeq	r1, r0, r2, lsl #16
     304:	3f012e21 	svccc	0x00012e21
     308:	3a0e0319 	bcc	380f74 <__bss_end__+0x37647c>
     30c:	270b3b0b 	strcs	r3, [fp, -fp, lsl #22]
     310:	12011119 	andne	r1, r1, #1073741830	; 0x40000006
     314:	97184006 	ldrls	r4, [r8, -r6]
     318:	13011942 	movwne	r1, #6466	; 0x1942
     31c:	34220000 	strtcc	r0, [r2], #-0
     320:	490e0300 	stmdbmi	lr, {r8, r9}
     324:	02193413 	andseq	r3, r9, #318767104	; 0x13000000
     328:	23000018 	movwcs	r0, #24
     32c:	00018289 	andeq	r8, r1, r9, lsl #5
     330:	13310111 	teqne	r1, #1073741828	; 0x40000004
     334:	2e240000 	cdpcs	0, 2, cr0, cr4, cr0, {0}
     338:	03193f01 	tsteq	r9, #1, 30
     33c:	3b0b3a0e 	blcc	2ceb7c <__bss_end__+0x2c4084>
     340:	4919270b 	ldmdbmi	r9, {r0, r1, r3, r8, r9, sl, sp}
     344:	12011113 	andne	r1, r1, #-1073741820	; 0xc0000004
     348:	97184006 	ldrls	r4, [r8, -r6]
     34c:	13011942 	movwne	r1, #6466	; 0x1942
     350:	34250000 	strtcc	r0, [r5], #-0
     354:	3a0e0300 	bcc	380f5c <__bss_end__+0x376464>
     358:	490b3b0b 	stmdbmi	fp, {r0, r1, r3, r8, r9, fp, ip, sp}
     35c:	00170213 	andseq	r0, r7, r3, lsl r2
     360:	010b2600 	tsteq	fp, r0, lsl #12
     364:	13011755 	movwne	r1, #5973	; 0x1755
     368:	2e270000 	cdpcs	0, 2, cr0, cr7, cr0, {0}
     36c:	03193f00 	tsteq	r9, #0, 30
     370:	3b0b3a0e 	blcc	2cebb0 <__bss_end__+0x2c40b8>
     374:	4919270b 	ldmdbmi	r9, {r0, r1, r3, r8, r9, sl, sp}
     378:	12011113 	andne	r1, r1, #-1073741820	; 0xc0000004
     37c:	97184006 	ldrls	r4, [r8, -r6]
     380:	00001942 	andeq	r1, r0, r2, asr #18
     384:	3f012e28 	svccc	0x00012e28
     388:	3a0e0319 	bcc	380ff4 <__bss_end__+0x3764fc>
     38c:	270b3b0b 	strcs	r3, [fp, -fp, lsl #22]
     390:	3c134919 	ldccc	9, cr4, [r3], {25}
     394:	00130119 	andseq	r0, r3, r9, lsl r1
     398:	00052900 	andeq	r2, r5, r0, lsl #18
     39c:	00001349 	andeq	r1, r0, r9, asr #6
     3a0:	0000182a 	andeq	r1, r0, sl, lsr #16
     3a4:	00262b00 	eoreq	r2, r6, r0, lsl #22
     3a8:	2e2c0000 	cdpcs	0, 2, cr0, cr12, cr0, {0}
     3ac:	03193f00 	tsteq	r9, #0, 30
     3b0:	3b0b3a0e 	blcc	2cebf0 <__bss_end__+0x2c40f8>
     3b4:	3c19270b 	ldccc	7, cr2, [r9], {11}
     3b8:	00000019 	andeq	r0, r0, r9, lsl r0
     3bc:	25011101 	strcs	r1, [r1, #-257]	; 0x101
     3c0:	030b130e 	movweq	r1, #45838	; 0xb30e
     3c4:	110e1b0e 	tstne	lr, lr, lsl #22
     3c8:	10061201 	andne	r1, r6, r1, lsl #4
     3cc:	02000017 	andeq	r0, r0, #23
     3d0:	0b0b0024 	bleq	2c0468 <__bss_end__+0x2b5970>
     3d4:	08030b3e 	stmdaeq	r3, {r1, r2, r3, r4, r5, r8, r9, fp}
     3d8:	24030000 	strcs	r0, [r3], #-0
     3dc:	3e0b0b00 	vmlacc.f64	d0, d11, d0
     3e0:	000e030b 	andeq	r0, lr, fp, lsl #6
     3e4:	00160400 	andseq	r0, r6, r0, lsl #8
     3e8:	0b3a0e03 	bleq	e83bfc <__bss_end__+0xe79104>
     3ec:	13490b3b 	movtne	r0, #39739	; 0x9b3b
     3f0:	0f050000 	svceq	0x00050000
     3f4:	000b0b00 	andeq	r0, fp, r0, lsl #22
     3f8:	000f0600 	andeq	r0, pc, r0, lsl #12
     3fc:	13490b0b 	movtne	r0, #39691	; 0x9b0b
     400:	26070000 	strcs	r0, [r7], -r0
     404:	00134900 	andseq	r4, r3, r0, lsl #18
     408:	01040800 	tsteq	r4, r0, lsl #16
     40c:	0b3a0b0b 	bleq	e83040 <__bss_end__+0xe78548>
     410:	13010b3b 	movwne	r0, #6971	; 0x1b3b
     414:	28090000 	stmdacs	r9, {}	; <UNPREDICTABLE>
     418:	1c0e0300 	stcne	3, cr0, [lr], {-0}
     41c:	0a00000d 	beq	458 <_start-0x7ba8>
     420:	0b0b0113 	bleq	2c0874 <__bss_end__+0x2b5d7c>
     424:	0b3b0b3a 	bleq	ec3114 <__bss_end__+0xeb861c>
     428:	00001301 	andeq	r1, r0, r1, lsl #6
     42c:	03000d0b 	movweq	r0, #3339	; 0xd0b
     430:	3b0b3a0e 	blcc	2cec70 <__bss_end__+0x2c4178>
     434:	3813490b 	ldmdacc	r3, {r0, r1, r3, r8, fp, lr}
     438:	0c00000b 	stceq	0, cr0, [r0], {11}
     43c:	0e030113 	mcreq	1, 0, r0, cr3, cr3, {0}
     440:	0b3a0b0b 	bleq	e83074 <__bss_end__+0xe7857c>
     444:	13010b3b 	movwne	r0, #6971	; 0x1b3b
     448:	2e0d0000 	cdpcs	0, 0, cr0, cr13, cr0, {0}
     44c:	3a0e0301 	bcc	381058 <__bss_end__+0x376560>
     450:	270b3b0b 	strcs	r3, [fp, -fp, lsl #22]
     454:	20134919 	andscs	r4, r3, r9, lsl r9
     458:	0013010b 	andseq	r0, r3, fp, lsl #2
     45c:	00050e00 	andeq	r0, r5, r0, lsl #28
     460:	0b3a0803 	bleq	e82474 <__bss_end__+0xe7797c>
     464:	13490b3b 	movtne	r0, #39739	; 0x9b3b
     468:	2e0f0000 	cdpcs	0, 0, cr0, cr15, cr0, {0}
     46c:	3a0e0301 	bcc	381078 <__bss_end__+0x376580>
     470:	270b3b0b 	strcs	r3, [fp, -fp, lsl #22]
     474:	11134919 	tstne	r3, r9, lsl r9
     478:	40061201 	andmi	r1, r6, r1, lsl #4
     47c:	19429718 	stmdbne	r2, {r3, r4, r8, r9, sl, ip, pc}^
     480:	00001301 	andeq	r1, r0, r1, lsl #6
     484:	03000510 	movweq	r0, #1296	; 0x510
     488:	3b0b3a08 	blcc	2cecb0 <__bss_end__+0x2c41b8>
     48c:	0213490b 	andseq	r4, r3, #180224	; 0x2c000
     490:	11000017 	tstne	r0, r7, lsl r0
     494:	0e030005 	cdpeq	0, 0, cr0, cr3, cr5, {0}
     498:	0b3b0b3a 	bleq	ec3188 <__bss_end__+0xeb8690>
     49c:	17021349 	strne	r1, [r2, -r9, asr #6]
     4a0:	34120000 	ldrcc	r0, [r2], #-0
     4a4:	3a080300 	bcc	2010ac <__bss_end__+0x1f65b4>
     4a8:	490b3b0b 	stmdbmi	fp, {r0, r1, r3, r8, r9, fp, ip, sp}
     4ac:	00170213 	andseq	r0, r7, r3, lsl r2
     4b0:	00341300 	eorseq	r1, r4, r0, lsl #6
     4b4:	0b3a0e03 	bleq	e83cc8 <__bss_end__+0xe791d0>
     4b8:	13490b3b 	movtne	r0, #39739	; 0x9b3b
     4bc:	00001702 	andeq	r1, r0, r2, lsl #14
     4c0:	01828914 	orreq	r8, r2, r4, lsl r9
     4c4:	31011101 	tstcc	r1, r1, lsl #2
     4c8:	00130113 	andseq	r0, r3, r3, lsl r1
     4cc:	828a1500 	addhi	r1, sl, #0, 10
     4d0:	18020001 	stmdane	r2, {r0}
     4d4:	00184291 	mulseq	r8, r1, r2
     4d8:	82891600 	addhi	r1, r9, #0, 12
     4dc:	01110001 	tsteq	r1, r1
     4e0:	00001331 	andeq	r1, r0, r1, lsr r3
     4e4:	01828917 	orreq	r8, r2, r7, lsl r9
     4e8:	31011101 	tstcc	r1, r1, lsl #2
     4ec:	18000013 	stmdane	r0, {r0, r1, r4}
     4f0:	0e03012e 	adfeqsp	f0, f3, #0.5
     4f4:	0b3b0b3a 	bleq	ec31e4 <__bss_end__+0xeb86ec>
     4f8:	01111927 	tsteq	r1, r7, lsr #18
     4fc:	18400612 	stmdane	r0, {r1, r4, r9, sl}^
     500:	01194297 			; <UNDEFINED> instruction: 0x01194297
     504:	19000013 	stmdbne	r0, {r0, r1, r4}
     508:	0e030034 	mcreq	0, 0, r0, cr3, cr4, {1}
     50c:	19341349 	ldmdbne	r4!, {r0, r3, r6, r8, r9, ip}
     510:	00001802 	andeq	r1, r0, r2, lsl #16
     514:	0300341a 	movweq	r3, #1050	; 0x41a
     518:	3b0b3a08 	blcc	2ced40 <__bss_end__+0x2c4248>
     51c:	0013490b 	andseq	r4, r3, fp, lsl #18
     520:	01011b00 	tsteq	r1, r0, lsl #22
     524:	13011349 	movwne	r1, #4937	; 0x1349
     528:	211c0000 	tstcs	ip, r0
     52c:	2f134900 	svccs	0x00134900
     530:	1d00000b 	stcne	0, cr0, [r0, #-44]	; 0xffffffd4
     534:	08030034 	stmdaeq	r3, {r2, r4, r5}
     538:	0b3b0b3a 	bleq	ec3228 <__bss_end__+0xeb8730>
     53c:	18021349 	stmdane	r2, {r0, r3, r6, r8, r9, ip}
     540:	341e0000 	ldrcc	r0, [lr], #-0
     544:	3a0e0300 	bcc	38114c <__bss_end__+0x376654>
     548:	490b3b0b 	stmdbmi	fp, {r0, r1, r3, r8, r9, fp, ip, sp}
     54c:	00180213 	andseq	r0, r8, r3, lsl r2
     550:	00341f00 	eorseq	r1, r4, r0, lsl #30
     554:	0b3a0e03 	bleq	e83d68 <__bss_end__+0xe79270>
     558:	13490b3b 	movtne	r0, #39739	; 0x9b3b
     55c:	0000061c 	andeq	r0, r0, ip, lsl r6
     560:	03003420 	movweq	r3, #1056	; 0x420
     564:	3b0b3a0e 	blcc	2ceda4 <__bss_end__+0x2c42ac>
     568:	3f13490b 	svccc	0x0013490b
     56c:	00193c19 	andseq	r3, r9, r9, lsl ip
     570:	010b2100 	mrseq	r2, (UNDEF: 27)
     574:	06120111 			; <UNDEFINED> instruction: 0x06120111
     578:	00001301 	andeq	r1, r0, r1, lsl #6
     57c:	55010b22 	strpl	r0, [r1, #-2850]	; 0xb22
     580:	00130117 	andseq	r0, r3, r7, lsl r1
     584:	012e2300 	teqeq	lr, r0, lsl #6
     588:	0b3a0e03 	bleq	e83d9c <__bss_end__+0xe792a4>
     58c:	1927053b 	stmdbne	r7!, {r0, r1, r3, r4, r5, r8, sl}
     590:	01111349 	tsteq	r1, r9, asr #6
     594:	18400612 	stmdane	r0, {r1, r4, r9, sl}^
     598:	01194297 			; <UNDEFINED> instruction: 0x01194297
     59c:	24000013 	strcs	r0, [r0], #-19
     5a0:	0e030034 	mcreq	0, 0, r0, cr3, cr4, {1}
     5a4:	053b0b3a 	ldreq	r0, [fp, #-2874]!	; 0xb3a
     5a8:	17021349 	strne	r1, [r2, -r9, asr #6]
     5ac:	34250000 	strtcc	r0, [r5], #-0
     5b0:	3a0e0300 	bcc	3811b8 <__bss_end__+0x3766c0>
     5b4:	49053b0b 	stmdbmi	r5, {r0, r1, r3, r8, r9, fp, ip, sp}
     5b8:	00180213 	andseq	r0, r8, r3, lsl r2
     5bc:	00342600 	eorseq	r2, r4, r0, lsl #12
     5c0:	0b3a0803 	bleq	e825d4 <__bss_end__+0xe77adc>
     5c4:	1349053b 	movtne	r0, #38203	; 0x953b
     5c8:	00001802 	andeq	r1, r0, r2, lsl #16
     5cc:	3f012e27 	svccc	0x00012e27
     5d0:	3a0e0319 	bcc	38123c <__bss_end__+0x376744>
     5d4:	270b3b0b 	strcs	r3, [fp, -fp, lsl #22]
     5d8:	11134919 	tstne	r3, r9, lsl r9
     5dc:	40061201 	andmi	r1, r6, r1, lsl #4
     5e0:	19429718 	stmdbne	r2, {r3, r4, r8, r9, sl, ip, pc}^
     5e4:	00001301 	andeq	r1, r0, r1, lsl #6
     5e8:	3f012e28 	svccc	0x00012e28
     5ec:	3a0e0319 	bcc	381258 <__bss_end__+0x376760>
     5f0:	27053b0b 	strcs	r3, [r5, -fp, lsl #22]
     5f4:	12011119 	andne	r1, r1, #1073741830	; 0x40000006
     5f8:	97184006 	ldrls	r4, [r8, -r6]
     5fc:	13011942 	movwne	r1, #6466	; 0x1942
     600:	2e290000 	cdpcs	0, 2, cr0, cr9, cr0, {0}
     604:	03193f01 	tsteq	r9, #1, 30
     608:	3b0b3a0e 	blcc	2cee48 <__bss_end__+0x2c4350>
     60c:	49192705 	ldmdbmi	r9, {r0, r2, r8, r9, sl, sp}
     610:	12011113 	andne	r1, r1, #-1073741820	; 0xc0000004
     614:	97184006 	ldrls	r4, [r8, -r6]
     618:	13011942 	movwne	r1, #6466	; 0x1942
     61c:	2e2a0000 	cdpcs	0, 2, cr0, cr10, cr0, {0}
     620:	03193f00 	tsteq	r9, #0, 30
     624:	3b0b3a0e 	blcc	2cee64 <__bss_end__+0x2c436c>
     628:	4919270b 	ldmdbmi	r9, {r0, r1, r3, r8, r9, sl, sp}
     62c:	00193c13 	andseq	r3, r9, r3, lsl ip
     630:	012e2b00 	teqeq	lr, r0, lsl #22
     634:	0e03193f 	mcreq	9, 0, r1, cr3, cr15, {1}
     638:	0b3b0b3a 	bleq	ec3328 <__bss_end__+0xeb8830>
     63c:	13491927 	movtne	r1, #39207	; 0x9927
     640:	1301193c 	movwne	r1, #6460	; 0x193c
     644:	052c0000 	streq	r0, [ip, #-0]!
     648:	00134900 	andseq	r4, r3, r0, lsl #18
     64c:	00182d00 	andseq	r2, r8, r0, lsl #26
     650:	2e2e0000 	cdpcs	0, 2, cr0, cr14, cr0, {0}
     654:	03193f00 	tsteq	r9, #0, 30
     658:	3b0b3a0e 	blcc	2cee98 <__bss_end__+0x2c43a0>
     65c:	3c19270b 	ldccc	7, cr2, [r9], {11}
     660:	2f000019 	svccs	0x00000019
     664:	193f012e 	ldmdbne	pc!, {r1, r2, r3, r5, r8}	; <UNPREDICTABLE>
     668:	0b3a0e03 	bleq	e83e7c <__bss_end__+0xe79384>
     66c:	19270b3b 	stmdbne	r7!, {r0, r1, r3, r4, r5, r8, r9, fp}
     670:	1301193c 	movwne	r1, #6460	; 0x193c
     674:	01000000 	mrseq	r0, (UNDEF: 0)
     678:	0e250111 	mcreq	1, 1, r0, cr5, cr1, {0}
     67c:	0e030b13 	vmoveq.32	d3[0], r0
     680:	01110e1b 	tsteq	r1, fp, lsl lr
     684:	17100612 			; <UNDEFINED> instruction: 0x17100612
     688:	24020000 	strcs	r0, [r2], #-0
     68c:	3e0b0b00 	vmlacc.f64	d0, d11, d0
     690:	0008030b 	andeq	r0, r8, fp, lsl #6
     694:	00240300 	eoreq	r0, r4, r0, lsl #6
     698:	0b3e0b0b 	bleq	f832cc <__bss_end__+0xf787d4>
     69c:	00000e03 	andeq	r0, r0, r3, lsl #28
     6a0:	03001604 	movweq	r1, #1540	; 0x604
     6a4:	3b0b3a0e 	blcc	2ceee4 <__bss_end__+0x2c43ec>
     6a8:	0013490b 	andseq	r4, r3, fp, lsl #18
     6ac:	000f0500 	andeq	r0, pc, r0, lsl #10
     6b0:	13490b0b 	movtne	r0, #39691	; 0x9b0b
     6b4:	26060000 	strcs	r0, [r6], -r0
     6b8:	00134900 	andseq	r4, r3, r0, lsl #18
     6bc:	012e0700 	teqeq	lr, r0, lsl #14
     6c0:	0e03193f 	mcreq	9, 0, r1, cr3, cr15, {1}
     6c4:	0b3b0b3a 	bleq	ec33b4 <__bss_end__+0xeb88bc>
     6c8:	13491927 	movtne	r1, #39207	; 0x9927
     6cc:	06120111 			; <UNDEFINED> instruction: 0x06120111
     6d0:	42971840 	addsmi	r1, r7, #64, 16	; 0x400000
     6d4:	00130119 	andseq	r0, r3, r9, lsl r1
     6d8:	00050800 	andeq	r0, r5, r0, lsl #16
     6dc:	0b3a0e03 	bleq	e83ef0 <__bss_end__+0xe793f8>
     6e0:	13490b3b 	movtne	r0, #39739	; 0x9b3b
     6e4:	00001702 	andeq	r1, r0, r2, lsl #14
     6e8:	03000509 	movweq	r0, #1289	; 0x509
     6ec:	3b0b3a08 	blcc	2cef14 <__bss_end__+0x2c441c>
     6f0:	0213490b 	andseq	r4, r3, #180224	; 0x2c000
     6f4:	0a000017 	beq	758 <_start-0x78a8>
     6f8:	0e030034 	mcreq	0, 0, r0, cr3, cr4, {1}
     6fc:	0b3b0b3a 	bleq	ec33ec <__bss_end__+0xeb88f4>
     700:	17021349 	strne	r1, [r2, -r9, asr #6]
     704:	340b0000 	strcc	r0, [fp], #-0
     708:	3a080300 	bcc	201310 <__bss_end__+0x1f6818>
     70c:	490b3b0b 	stmdbmi	fp, {r0, r1, r3, r8, r9, fp, ip, sp}
     710:	00170213 	andseq	r0, r7, r3, lsl r2
     714:	00260c00 	eoreq	r0, r6, r0, lsl #24
     718:	01000000 	mrseq	r0, (UNDEF: 0)
     71c:	0e250111 	mcreq	1, 1, r0, cr5, cr1, {0}
     720:	0e030b13 	vmoveq.32	d3[0], r0
     724:	01110e1b 	tsteq	r1, fp, lsl lr
     728:	17100612 			; <UNDEFINED> instruction: 0x17100612
     72c:	24020000 	strcs	r0, [r2], #-0
     730:	3e0b0b00 	vmlacc.f64	d0, d11, d0
     734:	000e030b 	andeq	r0, lr, fp, lsl #6
     738:	00240300 	eoreq	r0, r4, r0, lsl #6
     73c:	0b3e0b0b 	bleq	f83370 <__bss_end__+0xf78878>
     740:	00000803 	andeq	r0, r0, r3, lsl #16
     744:	0b000f04 	bleq	435c <_start-0x3ca4>
     748:	0500000b 	streq	r0, [r0, #-11]
     74c:	0b0b000f 	bleq	2c0790 <__bss_end__+0x2b5c98>
     750:	00001349 	andeq	r1, r0, r9, asr #6
     754:	03001606 	movweq	r1, #1542	; 0x606
     758:	3b0b3a0e 	blcc	2cef98 <__bss_end__+0x2c44a0>
     75c:	0013490b 	andseq	r4, r3, fp, lsl #18
     760:	012e0700 	teqeq	lr, r0, lsl #14
     764:	0e03193f 	mcreq	9, 0, r1, cr3, cr15, {1}
     768:	0b3b0b3a 	bleq	ec3458 <__bss_end__+0xeb8960>
     76c:	13491927 	movtne	r1, #39207	; 0x9927
     770:	06120111 			; <UNDEFINED> instruction: 0x06120111
     774:	42971840 	addsmi	r1, r7, #64, 16	; 0x400000
     778:	08000019 	stmdaeq	r0, {r0, r3, r4}
     77c:	08030005 	stmdaeq	r3, {r0, r2}
     780:	0b3b0b3a 	bleq	ec3470 <__bss_end__+0xeb8978>
     784:	18021349 	stmdane	r2, {r0, r3, r6, r8, r9, ip}
     788:	05090000 	streq	r0, [r9, #-0]
     78c:	3a080300 	bcc	201394 <__bss_end__+0x1f689c>
     790:	490b3b0b 	stmdbmi	fp, {r0, r1, r3, r8, r9, fp, ip, sp}
     794:	00170213 	andseq	r0, r7, r3, lsl r2
     798:	00340a00 	eorseq	r0, r4, r0, lsl #20
     79c:	0b3a0803 	bleq	e827b0 <__bss_end__+0xe77cb8>
     7a0:	13490b3b 	movtne	r0, #39739	; 0x9b3b
     7a4:	00001702 	andeq	r1, r0, r2, lsl #14
     7a8:	0300340b 	movweq	r3, #1035	; 0x40b
     7ac:	3b0b3a08 	blcc	2cefd4 <__bss_end__+0x2c44dc>
     7b0:	0213490b 	andseq	r4, r3, #180224	; 0x2c000
     7b4:	00000018 	andeq	r0, r0, r8, lsl r0
     7b8:	25011101 	strcs	r1, [r1, #-257]	; 0x101
     7bc:	030b130e 	movweq	r1, #45838	; 0xb30e
     7c0:	110e1b0e 	tstne	lr, lr, lsl #22
     7c4:	10061201 	andne	r1, r6, r1, lsl #4
     7c8:	02000017 	andeq	r0, r0, #23
     7cc:	0e030016 	mcreq	0, 0, r0, cr3, cr6, {0}
     7d0:	0b3b0b3a 	bleq	ec34c0 <__bss_end__+0xeb89c8>
     7d4:	00001349 	andeq	r1, r0, r9, asr #6
     7d8:	03011303 	movweq	r1, #4867	; 0x1303
     7dc:	3a0b0b0e 	bcc	2c341c <__bss_end__+0x2b8924>
     7e0:	010b3b0b 	tsteq	fp, fp, lsl #22
     7e4:	04000013 	streq	r0, [r0], #-19
     7e8:	0e03000d 	cdpeq	0, 0, cr0, cr3, cr13, {0}
     7ec:	0b381349 	bleq	e05518 <__bss_end__+0xdfaa20>
     7f0:	00001934 	andeq	r1, r0, r4, lsr r9
     7f4:	0b000f05 	bleq	4410 <_start-0x3bf0>
     7f8:	0600000b 	streq	r0, [r0], -fp
     7fc:	0b0b0024 	bleq	2c0894 <__bss_end__+0x2b5d9c>
     800:	08030b3e 	stmdaeq	r3, {r1, r2, r3, r4, r5, r8, r9, fp}
     804:	24070000 	strcs	r0, [r7], #-0
     808:	3e0b0b00 	vmlacc.f64	d0, d11, d0
     80c:	000e030b 	andeq	r0, lr, fp, lsl #6
     810:	000f0800 	andeq	r0, pc, r0, lsl #16
     814:	13490b0b 	movtne	r0, #39691	; 0x9b0b
     818:	26090000 	strcs	r0, [r9], -r0
     81c:	00134900 	andseq	r4, r3, r0, lsl #18
     820:	012e0a00 	teqeq	lr, r0, lsl #20
     824:	0e03193f 	mcreq	9, 0, r1, cr3, cr15, {1}
     828:	0b3b0b3a 	bleq	ec3518 <__bss_end__+0xeb8a20>
     82c:	13491927 	movtne	r1, #39207	; 0x9927
     830:	06120111 			; <UNDEFINED> instruction: 0x06120111
     834:	42971840 	addsmi	r1, r7, #64, 16	; 0x400000
     838:	00130119 	andseq	r0, r3, r9, lsl r1
     83c:	00050b00 	andeq	r0, r5, r0, lsl #22
     840:	0b3a0803 	bleq	e82854 <__bss_end__+0xe77d5c>
     844:	13490b3b 	movtne	r0, #39739	; 0x9b3b
     848:	00001802 	andeq	r1, r0, r2, lsl #16
     84c:	0000180c 	andeq	r1, r0, ip, lsl #16
     850:	00340d00 	eorseq	r0, r4, r0, lsl #26
     854:	0b3a0803 	bleq	e82868 <__bss_end__+0xe77d70>
     858:	13490b3b 	movtne	r0, #39739	; 0x9b3b
     85c:	00001802 	andeq	r1, r0, r2, lsl #16
     860:	0300340e 	movweq	r3, #1038	; 0x40e
     864:	3b0b3a0e 	blcc	2cf0a4 <__bss_end__+0x2c45ac>
     868:	0213490b 	andseq	r4, r3, #180224	; 0x2c000
     86c:	0f000018 	svceq	0x00000018
     870:	08030034 	stmdaeq	r3, {r2, r4, r5}
     874:	0b3b0b3a 	bleq	ec3564 <__bss_end__+0xeb8a6c>
     878:	17021349 	strne	r1, [r2, -r9, asr #6]
     87c:	89100000 	ldmdbhi	r0, {}	; <UNPREDICTABLE>
     880:	11010182 	smlabbne	r1, r2, r1, r0
     884:	01133101 	tsteq	r3, r1, lsl #2
     888:	11000013 	tstne	r0, r3, lsl r0
     88c:	0001828a 	andeq	r8, r1, sl, lsl #5
     890:	42911802 	addsmi	r1, r1, #131072	; 0x20000
     894:	12000018 	andne	r0, r0, #24
     898:	01018289 	smlabbeq	r1, r9, r2, r8
     89c:	00000111 	andeq	r0, r0, r1, lsl r1
     8a0:	49010113 	stmdbmi	r1, {r0, r1, r4, r8}
     8a4:	00130113 	andseq	r0, r3, r3, lsl r1
     8a8:	00211400 	eoreq	r1, r1, r0, lsl #8
     8ac:	052f1349 	streq	r1, [pc, #-841]!	; 56b <_start-0x7a95>
     8b0:	15150000 	ldrne	r0, [r5, #-0]
     8b4:	49192701 	ldmdbmi	r9, {r0, r8, r9, sl, sp}
     8b8:	00130113 	andseq	r0, r3, r3, lsl r1
     8bc:	00051600 	andeq	r1, r5, r0, lsl #12
     8c0:	00001349 	andeq	r1, r0, r9, asr #6
     8c4:	03003417 	movweq	r3, #1047	; 0x417
     8c8:	3b0b3a0e 	blcc	2cf108 <__bss_end__+0x2c4610>
     8cc:	3f13490b 	svccc	0x0013490b
     8d0:	00193c19 	andseq	r3, r9, r9, lsl ip
     8d4:	012e1800 	teqeq	lr, r0, lsl #16
     8d8:	0e03193f 	mcreq	9, 0, r1, cr3, cr15, {1}
     8dc:	0b3b0b3a 	bleq	ec35cc <__bss_end__+0xeb8ad4>
     8e0:	13491927 	movtne	r1, #39207	; 0x9927
     8e4:	0000193c 	andeq	r1, r0, ip, lsr r9
     8e8:	01110100 	tsteq	r1, r0, lsl #2
     8ec:	0b130e25 	bleq	4c4188 <__bss_end__+0x4b9690>
     8f0:	0e1b0e03 	cdpeq	14, 1, cr0, cr11, cr3, {0}
     8f4:	06120111 			; <UNDEFINED> instruction: 0x06120111
     8f8:	00001710 	andeq	r1, r0, r0, lsl r7
     8fc:	0b002402 	bleq	990c <uart_can_putc+0x8>
     900:	030b3e0b 	movweq	r3, #48651	; 0xbe0b
     904:	03000008 	movweq	r0, #8
     908:	0b0b0024 	bleq	2c09a0 <__bss_end__+0x2b5ea8>
     90c:	0e030b3e 	vmoveq.16	d3[0], r0
     910:	2e040000 	cdpcs	0, 0, cr0, cr4, cr0, {0}
     914:	3a0e0301 	bcc	381520 <__bss_end__+0x376a28>
     918:	270b3b0b 	strcs	r3, [fp, -fp, lsl #22]
     91c:	11134919 	tstne	r3, r9, lsl r9
     920:	40061201 	andmi	r1, r6, r1, lsl #4
     924:	19429718 	stmdbne	r2, {r3, r4, r8, r9, sl, ip, pc}^
     928:	00001301 	andeq	r1, r0, r1, lsl #6
     92c:	03000505 	movweq	r0, #1285	; 0x505
     930:	3b0b3a08 	blcc	2cf158 <__bss_end__+0x2c4660>
     934:	0213490b 	andseq	r4, r3, #180224	; 0x2c000
     938:	06000017 			; <UNDEFINED> instruction: 0x06000017
     93c:	01018289 	smlabbeq	r1, r9, r2, r8
     940:	13310111 	teqne	r1, #1073741828	; 0x40000004
     944:	8a070000 	bhi	1c094c <__bss_end__+0x1b5e54>
     948:	02000182 	andeq	r0, r0, #-2147483616	; 0x80000020
     94c:	18429118 	stmdane	r2, {r3, r4, r8, ip, pc}^
     950:	2e080000 	cdpcs	0, 0, cr0, cr8, cr0, {0}
     954:	03193f00 	tsteq	r9, #0, 30
     958:	3b0b3a0e 	blcc	2cf198 <__bss_end__+0x2c46a0>
     95c:	1119270b 	tstne	r9, fp, lsl #14
     960:	40061201 	andmi	r1, r6, r1, lsl #4
     964:	19429718 	stmdbne	r2, {r3, r4, r8, r9, sl, ip, pc}^
     968:	2e090000 	cdpcs	0, 0, cr0, cr9, cr0, {0}
     96c:	03193f01 	tsteq	r9, #1, 30
     970:	3b0b3a0e 	blcc	2cf1b0 <__bss_end__+0x2c46b8>
     974:	1119270b 	tstne	r9, fp, lsl #14
     978:	40061201 	andmi	r1, r6, r1, lsl #4
     97c:	19429718 	stmdbne	r2, {r3, r4, r8, r9, sl, ip, pc}^
     980:	00001301 	andeq	r1, r0, r1, lsl #6
     984:	0300050a 	movweq	r0, #1290	; 0x50a
     988:	3b0b3a08 	blcc	2cf1b0 <__bss_end__+0x2c46b8>
     98c:	0213490b 	andseq	r4, r3, #180224	; 0x2c000
     990:	0b000018 	bleq	9f8 <_start-0x7608>
     994:	19270115 	stmdbne	r7!, {r0, r2, r4, r8}
     998:	13011349 	movwne	r1, #4937	; 0x1349
     99c:	050c0000 	streq	r0, [ip, #-0]
     9a0:	00134900 	andseq	r4, r3, r0, lsl #18
     9a4:	000f0d00 	andeq	r0, pc, r0, lsl #26
     9a8:	13490b0b 	movtne	r0, #39691	; 0x9b0b
     9ac:	340e0000 	strcc	r0, [lr], #-0
     9b0:	3a0e0300 	bcc	3815b8 <__bss_end__+0x376ac0>
     9b4:	490b3b0b 	stmdbmi	fp, {r0, r1, r3, r8, r9, fp, ip, sp}
     9b8:	02193f13 	andseq	r3, r9, #19, 30	; 0x4c
     9bc:	0f000018 	svceq	0x00000018
     9c0:	193f012e 	ldmdbne	pc!, {r1, r2, r3, r5, r8}	; <UNPREDICTABLE>
     9c4:	0b3a0e03 	bleq	e841d8 <__bss_end__+0xe796e0>
     9c8:	19270b3b 	stmdbne	r7!, {r0, r1, r3, r4, r5, r8, r9, fp}
     9cc:	0000193c 	andeq	r1, r0, ip, lsr r9
     9d0:	01110100 	tsteq	r1, r0, lsl #2
     9d4:	0b130e25 	bleq	4c4270 <__bss_end__+0x4b9778>
     9d8:	0e1b0e03 	cdpeq	14, 1, cr0, cr11, cr3, {0}
     9dc:	06120111 			; <UNDEFINED> instruction: 0x06120111
     9e0:	00001710 	andeq	r1, r0, r0, lsl r7
     9e4:	0b002402 	bleq	99f4 <gpio_set_function+0x60>
     9e8:	030b3e0b 	movweq	r3, #48651	; 0xbe0b
     9ec:	03000008 	movweq	r0, #8
     9f0:	0b0b0024 	bleq	2c0a88 <__bss_end__+0x2b5f90>
     9f4:	0e030b3e 	vmoveq.16	d3[0], r0
     9f8:	0f040000 	svceq	0x00040000
     9fc:	490b0b00 	stmdbmi	fp, {r8, r9, fp}
     a00:	05000013 	streq	r0, [r0, #-19]
     a04:	13490026 	movtne	r0, #36902	; 0x9026
     a08:	2e060000 	cdpcs	0, 0, cr0, cr6, cr0, {0}
     a0c:	03193f01 	tsteq	r9, #1, 30
     a10:	3b0b3a0e 	blcc	2cf250 <__bss_end__+0x2c4758>
     a14:	4919270b 	ldmdbmi	r9, {r0, r1, r3, r8, r9, sl, sp}
     a18:	12011113 	andne	r1, r1, #-1073741820	; 0xc0000004
     a1c:	96184006 	ldrls	r4, [r8], -r6
     a20:	13011942 	movwne	r1, #6466	; 0x1942
     a24:	05070000 	streq	r0, [r7, #-0]
     a28:	3a080300 	bcc	201630 <__bss_end__+0x1f6b38>
     a2c:	490b3b0b 	stmdbmi	fp, {r0, r1, r3, r8, r9, fp, ip, sp}
     a30:	00170213 	andseq	r0, r7, r3, lsl r2
     a34:	01150800 	tsteq	r5, r0, lsl #16
     a38:	13491927 	movtne	r1, #39207	; 0x9927
     a3c:	00001301 	andeq	r1, r0, r1, lsl #6
     a40:	49000509 	stmdbmi	r0, {r0, r3, r8, sl}
     a44:	0a000013 	beq	a98 <_start-0x7568>
     a48:	0e030034 	mcreq	0, 0, r0, cr3, cr4, {1}
     a4c:	0b3b0b3a 	bleq	ec373c <__bss_end__+0xeb8c44>
     a50:	193f1349 	ldmdbne	pc!, {r0, r3, r6, r8, r9, ip}	; <UNPREDICTABLE>
     a54:	0000193c 	andeq	r1, r0, ip, lsr r9
     a58:	0300340b 	movweq	r3, #1035	; 0x40b
     a5c:	3b0b3a0e 	blcc	2cf29c <__bss_end__+0x2c47a4>
     a60:	3f13490b 	svccc	0x0013490b
     a64:	00180219 	andseq	r0, r8, r9, lsl r2
     a68:	11010000 	mrsne	r0, (UNDEF: 1)
     a6c:	130e2501 	movwne	r2, #58625	; 0xe501
     a70:	1b0e030b 	blne	3816a4 <__bss_end__+0x376bac>
     a74:	1201110e 	andne	r1, r1, #-2147483645	; 0x80000003
     a78:	00171006 	andseq	r1, r7, r6
     a7c:	00240200 	eoreq	r0, r4, r0, lsl #4
     a80:	0b3e0b0b 	bleq	f836b4 <__bss_end__+0xf78bbc>
     a84:	00000803 	andeq	r0, r0, r3, lsl #16
     a88:	0b002403 	bleq	9a9c <gpio_read+0x1c>
     a8c:	030b3e0b 	movweq	r3, #48651	; 0xbe0b
     a90:	0400000e 	streq	r0, [r0], #-14
     a94:	0b0b000f 	bleq	2c0ad8 <__bss_end__+0x2b5fe0>
     a98:	0f050000 	svceq	0x00050000
     a9c:	490b0b00 	stmdbmi	fp, {r8, r9, fp}
     aa0:	06000013 			; <UNDEFINED> instruction: 0x06000013
     aa4:	13490026 	movtne	r0, #36902	; 0x9026
     aa8:	16070000 	strne	r0, [r7], -r0
     aac:	3a0e0300 	bcc	3816b4 <__bss_end__+0x376bbc>
     ab0:	490b3b0b 	stmdbmi	fp, {r0, r1, r3, r8, r9, fp, ip, sp}
     ab4:	08000013 	stmdaeq	r0, {r0, r1, r4}
     ab8:	0e030113 	mcreq	1, 0, r0, cr3, cr3, {0}
     abc:	0b3a0b0b 	bleq	e836f0 <__bss_end__+0xe78bf8>
     ac0:	13010b3b 	movwne	r0, #6971	; 0x1b3b
     ac4:	0d090000 	stceq	0, cr0, [r9, #-0]
     ac8:	490e0300 	stmdbmi	lr, {r8, r9}
     acc:	340b3813 	strcc	r3, [fp], #-2067	; 0x813
     ad0:	0a000019 	beq	b3c <_start-0x74c4>
     ad4:	0e03012e 	adfeqsp	f0, f3, #0.5
     ad8:	0b3b0b3a 	bleq	ec37c8 <__bss_end__+0xeb8cd0>
     adc:	13491927 	movtne	r1, #39207	; 0x9927
     ae0:	06120111 			; <UNDEFINED> instruction: 0x06120111
     ae4:	42971840 	addsmi	r1, r7, #64, 16	; 0x400000
     ae8:	00130119 	andseq	r0, r3, r9, lsl r1
     aec:	00050b00 	andeq	r0, r5, r0, lsl #22
     af0:	0b3a0803 	bleq	e82b04 <__bss_end__+0xe7800c>
     af4:	13490b3b 	movtne	r0, #39739	; 0x9b3b
     af8:	00001702 	andeq	r1, r0, r2, lsl #14
     afc:	03012e0c 	movweq	r2, #7692	; 0x1e0c
     b00:	3b0b3a08 	blcc	2cf328 <__bss_end__+0x2c4830>
     b04:	4919270b 	ldmdbmi	r9, {r0, r1, r3, r8, r9, sl, sp}
     b08:	12011113 	andne	r1, r1, #-1073741820	; 0xc0000004
     b0c:	97184006 	ldrls	r4, [r8, -r6]
     b10:	13011942 	movwne	r1, #6466	; 0x1942
     b14:	050d0000 	streq	r0, [sp, #-0]
     b18:	3a0e0300 	bcc	381720 <__bss_end__+0x376c28>
     b1c:	490b3b0b 	stmdbmi	fp, {r0, r1, r3, r8, r9, fp, ip, sp}
     b20:	00170213 	andseq	r0, r7, r3, lsl r2
     b24:	00050e00 	andeq	r0, r5, r0, lsl #28
     b28:	0b3a0e03 	bleq	e8433c <__bss_end__+0xe79844>
     b2c:	13490b3b 	movtne	r0, #39739	; 0x9b3b
     b30:	00001802 	andeq	r1, r0, r2, lsl #16
     b34:	0300340f 	movweq	r3, #1039	; 0x40f
     b38:	3b0b3a08 	blcc	2cf360 <__bss_end__+0x2c4868>
     b3c:	0213490b 	andseq	r4, r3, #180224	; 0x2c000
     b40:	10000018 	andne	r0, r0, r8, lsl r0
     b44:	08030034 	stmdaeq	r3, {r2, r4, r5}
     b48:	0b3b0b3a 	bleq	ec3838 <__bss_end__+0xeb8d40>
     b4c:	17021349 	strne	r1, [r2, -r9, asr #6]
     b50:	34110000 	ldrcc	r0, [r1], #-0
     b54:	490e0300 	stmdbmi	lr, {r8, r9}
     b58:	02193413 	andseq	r3, r9, #318767104	; 0x13000000
     b5c:	12000018 	andne	r0, r0, #24
     b60:	0111010b 	tsteq	r1, fp, lsl #2
     b64:	13010612 	movwne	r0, #5650	; 0x1612
     b68:	34130000 	ldrcc	r0, [r3], #-0
     b6c:	3a0e0300 	bcc	381774 <__bss_end__+0x376c7c>
     b70:	490b3b0b 	stmdbmi	fp, {r0, r1, r3, r8, r9, fp, ip, sp}
     b74:	00170213 	andseq	r0, r7, r3, lsl r2
     b78:	82891400 	addhi	r1, r9, #0, 8
     b7c:	01110001 	tsteq	r1, r1
     b80:	00001331 	andeq	r1, r0, r1, lsr r3
     b84:	01828915 	orreq	r8, r2, r5, lsl r9
     b88:	31011101 	tstcc	r1, r1, lsl #2
     b8c:	00130113 	andseq	r0, r3, r3, lsl r1
     b90:	828a1600 	addhi	r1, sl, #0, 12
     b94:	18020001 	stmdane	r2, {r0}
     b98:	00184291 	mulseq	r8, r1, r2
     b9c:	82891700 	addhi	r1, r9, #0, 14
     ba0:	01110101 	tsteq	r1, r1, lsl #2
     ba4:	00001331 	andeq	r1, r0, r1, lsr r3
     ba8:	49010118 	stmdbmi	r1, {r3, r4, r8}
     bac:	00130113 	andseq	r0, r3, r3, lsl r1
     bb0:	00211900 	eoreq	r1, r1, r0, lsl #18
     bb4:	0b2f1349 	bleq	bc58e0 <__bss_end__+0xbbade8>
     bb8:	2e1a0000 	cdpcs	0, 1, cr0, cr10, cr0, {0}
     bbc:	03193f01 	tsteq	r9, #1, 30
     bc0:	3b0b3a0e 	blcc	2cf400 <__bss_end__+0x2c4908>
     bc4:	1119270b 	tstne	r9, fp, lsl #14
     bc8:	40061201 	andmi	r1, r6, r1, lsl #4
     bcc:	19429718 	stmdbne	r2, {r3, r4, r8, r9, sl, ip, pc}^
     bd0:	00001301 	andeq	r1, r0, r1, lsl #6
     bd4:	2701151b 	smladcs	r1, fp, r5, r1
     bd8:	01134919 	tsteq	r3, r9, lsl r9
     bdc:	1c000013 	stcne	0, cr0, [r0], {19}
     be0:	13490005 	movtne	r0, #36869	; 0x9005
     be4:	2e1d0000 	cdpcs	0, 1, cr0, cr13, cr0, {0}
     be8:	03193f01 	tsteq	r9, #1, 30
     bec:	3b0b3a0e 	blcc	2cf42c <__bss_end__+0x2c4934>
     bf0:	4919270b 	ldmdbmi	r9, {r0, r1, r3, r8, r9, sl, sp}
     bf4:	12011113 	andne	r1, r1, #-1073741820	; 0xc0000004
     bf8:	97184006 	ldrls	r4, [r8, -r6]
     bfc:	13011942 	movwne	r1, #6466	; 0x1942
     c00:	0b1e0000 	bleq	780c08 <__bss_end__+0x776110>
     c04:	00175501 	andseq	r5, r7, r1, lsl #10
     c08:	00341f00 	eorseq	r1, r4, r0, lsl #30
     c0c:	0b3a0e03 	bleq	e84420 <__bss_end__+0xe79928>
     c10:	13490b3b 	movtne	r0, #39739	; 0x9b3b
     c14:	193c193f 	ldmdbne	ip!, {r0, r1, r2, r3, r4, r5, r8, fp, ip}
     c18:	2e200000 	cdpcs	0, 2, cr0, cr0, cr0, {0}
     c1c:	03193f00 	tsteq	r9, #0, 30
     c20:	3b0b3a0e 	blcc	2cf460 <__bss_end__+0x2c4968>
     c24:	3c19270b 	ldccc	7, cr2, [r9], {11}
     c28:	21000019 	tstcs	r0, r9, lsl r0
     c2c:	193f012e 	ldmdbne	pc!, {r1, r2, r3, r5, r8}	; <UNPREDICTABLE>
     c30:	0b3a0e03 	bleq	e84444 <__bss_end__+0xe7994c>
     c34:	19270b3b 	stmdbne	r7!, {r0, r1, r3, r4, r5, r8, r9, fp}
     c38:	193c1349 	ldmdbne	ip!, {r0, r3, r6, r8, r9, ip}
     c3c:	00001301 	andeq	r1, r0, r1, lsl #6
     c40:	00001822 	andeq	r1, r0, r2, lsr #16
     c44:	11010000 	mrsne	r0, (UNDEF: 1)
     c48:	130e2501 	movwne	r2, #58625	; 0xe501
     c4c:	1b0e030b 	blne	381880 <__bss_end__+0x376d88>
     c50:	1201110e 	andne	r1, r1, #-2147483645	; 0x80000003
     c54:	00171006 	andseq	r1, r7, r6
     c58:	00240200 	eoreq	r0, r4, r0, lsl #4
     c5c:	0b3e0b0b 	bleq	f83890 <__bss_end__+0xf78d98>
     c60:	00000803 	andeq	r0, r0, r3, lsl #16
     c64:	0b002403 	bleq	9c78 <__FUNCTION__.4208>
     c68:	030b3e0b 	movweq	r3, #48651	; 0xbe0b
     c6c:	0400000e 	streq	r0, [r0], #-14
     c70:	0b0b000f 	bleq	2c0cb4 <__bss_end__+0x2b61bc>
     c74:	00001349 	andeq	r1, r0, r9, asr #6
     c78:	49002605 	stmdbmi	r0, {r0, r2, r9, sl, sp}
     c7c:	06000013 			; <UNDEFINED> instruction: 0x06000013
     c80:	193f012e 	ldmdbne	pc!, {r1, r2, r3, r5, r8}	; <UNPREDICTABLE>
     c84:	0b3a0e03 	bleq	e84498 <__bss_end__+0xe799a0>
     c88:	19270b3b 	stmdbne	r7!, {r0, r1, r3, r4, r5, r8, r9, fp}
     c8c:	06120111 			; <UNDEFINED> instruction: 0x06120111
     c90:	42971840 	addsmi	r1, r7, #64, 16	; 0x400000
     c94:	00130119 	andseq	r0, r3, r9, lsl r1
     c98:	82890700 	addhi	r0, r9, #0, 14
     c9c:	01110101 	tsteq	r1, r1, lsl #2
     ca0:	00001301 	andeq	r1, r0, r1, lsl #6
     ca4:	01828a08 	orreq	r8, r2, r8, lsl #20
     ca8:	91180200 	tstls	r8, r0, lsl #4
     cac:	00001842 	andeq	r1, r0, r2, asr #16
     cb0:	01828909 	orreq	r8, r2, r9, lsl #18
     cb4:	31011101 	tstcc	r1, r1, lsl #2
     cb8:	00130113 	andseq	r0, r3, r3, lsl r1
     cbc:	82890a00 	addhi	r0, r9, #0, 20
     cc0:	01110001 	tsteq	r1, r1
     cc4:	00001331 	andeq	r1, r0, r1, lsr r3
     cc8:	2701150b 	strcs	r1, [r1, -fp, lsl #10]
     ccc:	01134919 	tsteq	r3, r9, lsl r9
     cd0:	0c000013 	stceq	0, cr0, [r0], {19}
     cd4:	13490005 	movtne	r0, #36869	; 0x9005
     cd8:	340d0000 	strcc	r0, [sp], #-0
     cdc:	3a0e0300 	bcc	3818e4 <__bss_end__+0x376dec>
     ce0:	490b3b0b 	stmdbmi	fp, {r0, r1, r3, r8, r9, fp, ip, sp}
     ce4:	3c193f13 	ldccc	15, cr3, [r9], {19}
     ce8:	0e000019 	mcreq	0, 0, r0, cr0, cr9, {0}
     cec:	193f012e 	ldmdbne	pc!, {r1, r2, r3, r5, r8}	; <UNPREDICTABLE>
     cf0:	0b3a0e03 	bleq	e84504 <__bss_end__+0xe79a0c>
     cf4:	19270b3b 	stmdbne	r7!, {r0, r1, r3, r4, r5, r8, r9, fp}
     cf8:	1301193c 	movwne	r1, #6460	; 0x193c
     cfc:	2e0f0000 	cdpcs	0, 0, cr0, cr15, cr0, {0}
     d00:	03193f00 	tsteq	r9, #0, 30
     d04:	3b0b3a0e 	blcc	2cf544 <__bss_end__+0x2c4a4c>
     d08:	3c19270b 	ldccc	7, cr2, [r9], {11}
     d0c:	00000019 	andeq	r0, r0, r9, lsl r0
     d10:	25011101 	strcs	r1, [r1, #-257]	; 0x101
     d14:	030b130e 	movweq	r1, #45838	; 0xb30e
     d18:	110e1b0e 	tstne	lr, lr, lsl #22
     d1c:	10061201 	andne	r1, r6, r1, lsl #4
     d20:	02000017 	andeq	r0, r0, #23
     d24:	0b0b0024 	bleq	2c0dbc <__bss_end__+0x2b62c4>
     d28:	08030b3e 	stmdaeq	r3, {r1, r2, r3, r4, r5, r8, r9, fp}
     d2c:	24030000 	strcs	r0, [r3], #-0
     d30:	3e0b0b00 	vmlacc.f64	d0, d11, d0
     d34:	000e030b 	andeq	r0, lr, fp, lsl #6
     d38:	012e0400 	teqeq	lr, r0, lsl #8
     d3c:	0e03193f 	mcreq	9, 0, r1, cr3, cr15, {1}
     d40:	0b3b0b3a 	bleq	ec3a30 <__bss_end__+0xeb8f38>
     d44:	06120111 			; <UNDEFINED> instruction: 0x06120111
     d48:	42971840 	addsmi	r1, r7, #64, 16	; 0x400000
     d4c:	00130119 	andseq	r0, r3, r9, lsl r1
     d50:	00340500 	eorseq	r0, r4, r0, lsl #10
     d54:	0b3a0e03 	bleq	e84568 <__bss_end__+0xe79a70>
     d58:	13490b3b 	movtne	r0, #39739	; 0x9b3b
     d5c:	193c193f 	ldmdbne	ip!, {r0, r1, r2, r3, r4, r5, r8, fp, ip}
     d60:	2e060000 	cdpcs	0, 0, cr0, cr6, cr0, {0}
     d64:	03193f00 	tsteq	r9, #0, 30
     d68:	3b0b3a0e 	blcc	2cf5a8 <__bss_end__+0x2c4ab0>
     d6c:	3c19270b 	ldccc	7, cr2, [r9], {11}
     d70:	07000019 	smladeq	r0, r9, r0, r0
     d74:	08030034 	stmdaeq	r3, {r2, r4, r5}
     d78:	0b3b0b3a 	bleq	ec3a68 <__bss_end__+0xeb8f70>
     d7c:	17021349 	strne	r1, [r2, -r9, asr #6]
     d80:	34080000 	strcc	r0, [r8], #-0
     d84:	3a0e0300 	bcc	38198c <__bss_end__+0x376e94>
     d88:	490b3b0b 	stmdbmi	fp, {r0, r1, r3, r8, r9, fp, ip, sp}
     d8c:	09000013 	stmdbeq	r0, {r0, r1, r4}
     d90:	00018289 	andeq	r8, r1, r9, lsl #5
     d94:	13310111 	teqne	r1, #1073741828	; 0x40000004
     d98:	0f0a0000 	svceq	0x000a0000
     d9c:	490b0b00 	stmdbmi	fp, {r8, r9, fp}
     da0:	00000013 	andeq	r0, r0, r3, lsl r0
     da4:	25011101 	strcs	r1, [r1, #-257]	; 0x101
     da8:	030b130e 	movweq	r1, #45838	; 0xb30e
     dac:	550e1b0e 	strpl	r1, [lr, #-2830]	; 0xb0e
     db0:	10011117 	andne	r1, r1, r7, lsl r1
     db4:	02000017 	andeq	r0, r0, #23
     db8:	0b0b0024 	bleq	2c0e50 <__bss_end__+0x2b6358>
     dbc:	08030b3e 	stmdaeq	r3, {r1, r2, r3, r4, r5, r8, r9, fp}
     dc0:	24030000 	strcs	r0, [r3], #-0
     dc4:	3e0b0b00 	vmlacc.f64	d0, d11, d0
     dc8:	000e030b 	andeq	r0, lr, fp, lsl #6
     dcc:	012e0400 	teqeq	lr, r0, lsl #8
     dd0:	0e03193f 	mcreq	9, 0, r1, cr3, cr15, {1}
     dd4:	0b3b0b3a 	bleq	ec3ac4 <__bss_end__+0xeb8fcc>
     dd8:	13491927 	movtne	r1, #39207	; 0x9927
     ddc:	06120111 			; <UNDEFINED> instruction: 0x06120111
     de0:	42971840 	addsmi	r1, r7, #64, 16	; 0x400000
     de4:	00130119 	andseq	r0, r3, r9, lsl r1
     de8:	00340500 	eorseq	r0, r4, r0, lsl #10
     dec:	0b3a0e03 	bleq	e84600 <__bss_end__+0xe79b08>
     df0:	13490b3b 	movtne	r0, #39739	; 0x9b3b
     df4:	00001702 	andeq	r1, r0, r2, lsl #14
     df8:	3f012e06 	svccc	0x00012e06
     dfc:	3a0e0319 	bcc	381a68 <__bss_end__+0x376f70>
     e00:	270b3b0b 	strcs	r3, [fp, -fp, lsl #22]
     e04:	12011119 	andne	r1, r1, #1073741830	; 0x40000006
     e08:	97184006 	ldrls	r4, [r8, -r6]
     e0c:	13011942 	movwne	r1, #6466	; 0x1942
     e10:	34070000 	strcc	r0, [r7], #-0
     e14:	3a0e0300 	bcc	381a1c <__bss_end__+0x376f24>
     e18:	490b3b0b 	stmdbmi	fp, {r0, r1, r3, r8, r9, fp, ip, sp}
     e1c:	00061c13 	andeq	r1, r6, r3, lsl ip
     e20:	00340800 	eorseq	r0, r4, r0, lsl #16
     e24:	0b3a0e03 	bleq	e84638 <__bss_end__+0xe79b40>
     e28:	13490b3b 	movtne	r0, #39739	; 0x9b3b
     e2c:	00000b1c 	andeq	r0, r0, ip, lsl fp
     e30:	01828909 	orreq	r8, r2, r9, lsl #18
     e34:	31011100 	mrscc	r1, (UNDEF: 17)
     e38:	0a000013 	beq	e8c <_start-0x7174>
     e3c:	01018289 	smlabbeq	r1, r9, r2, r8
     e40:	13310111 	teqne	r1, #1073741828	; 0x40000004
     e44:	00001301 	andeq	r1, r0, r1, lsl #6
     e48:	01828a0b 	orreq	r8, r2, fp, lsl #20
     e4c:	91180200 	tstls	r8, r0, lsl #4
     e50:	00001842 	andeq	r1, r0, r2, asr #16
     e54:	0182890c 	orreq	r8, r2, ip, lsl #18
     e58:	31011101 	tstcc	r1, r1, lsl #2
     e5c:	0d000013 	stceq	0, cr0, [r0, #-76]	; 0xffffffb4
     e60:	13490026 	movtne	r0, #36902	; 0x9026
     e64:	2e0e0000 	cdpcs	0, 0, cr0, cr14, cr0, {0}
     e68:	03193f01 	tsteq	r9, #1, 30
     e6c:	3b0b3a0e 	blcc	2cf6ac <__bss_end__+0x2c4bb4>
     e70:	3c19270b 	ldccc	7, cr2, [r9], {11}
     e74:	00130119 	andseq	r0, r3, r9, lsl r1
     e78:	00050f00 	andeq	r0, r5, r0, lsl #30
     e7c:	00001349 	andeq	r1, r0, r9, asr #6
     e80:	3f012e10 	svccc	0x00012e10
     e84:	3a0e0319 	bcc	381af0 <__bss_end__+0x376ff8>
     e88:	270b3b0b 	strcs	r3, [fp, -fp, lsl #22]
     e8c:	00193c19 	andseq	r3, r9, r9, lsl ip
     e90:	11010000 	mrsne	r0, (UNDEF: 1)
     e94:	130e2501 	movwne	r2, #58625	; 0xe501
     e98:	1b0e030b 	blne	381acc <__bss_end__+0x376fd4>
     e9c:	1201110e 	andne	r1, r1, #-2147483645	; 0x80000003
     ea0:	00171006 	andseq	r1, r7, r6
     ea4:	00240200 	eoreq	r0, r4, r0, lsl #4
     ea8:	0b3e0b0b 	bleq	f83adc <__bss_end__+0xf78fe4>
     eac:	00000803 	andeq	r0, r0, r3, lsl #16
     eb0:	0b002403 	bleq	9ec4 <__FUNCTION__.4312+0x138>
     eb4:	030b3e0b 	movweq	r3, #48651	; 0xbe0b
     eb8:	0400000e 	streq	r0, [r0], #-14
     ebc:	193f012e 	ldmdbne	pc!, {r1, r2, r3, r5, r8}	; <UNPREDICTABLE>
     ec0:	0b3a0e03 	bleq	e846d4 <__bss_end__+0xe79bdc>
     ec4:	19270b3b 	stmdbne	r7!, {r0, r1, r3, r4, r5, r8, r9, fp}
     ec8:	06120111 			; <UNDEFINED> instruction: 0x06120111
     ecc:	42971840 	addsmi	r1, r7, #64, 16	; 0x400000
     ed0:	00130119 	andseq	r0, r3, r9, lsl r1
     ed4:	00050500 	andeq	r0, r5, r0, lsl #10
     ed8:	0b3a0e03 	bleq	e846ec <__bss_end__+0xe79bf4>
     edc:	13490b3b 	movtne	r0, #39739	; 0x9b3b
     ee0:	00001702 	andeq	r1, r0, r2, lsl #14
     ee4:	3f012e06 	svccc	0x00012e06
     ee8:	3a0e0319 	bcc	381b54 <__bss_end__+0x37705c>
     eec:	270b3b0b 	strcs	r3, [fp, -fp, lsl #22]
     ef0:	11134919 	tstne	r3, r9, lsl r9
     ef4:	40061201 	andmi	r1, r6, r1, lsl #4
     ef8:	19429718 	stmdbne	r2, {r3, r4, r8, r9, sl, ip, pc}^
     efc:	00001301 	andeq	r1, r0, r1, lsl #6
     f00:	01828907 	orreq	r8, r2, r7, lsl #18
     f04:	31011101 	tstcc	r1, r1, lsl #2
     f08:	08000013 	stmdaeq	r0, {r0, r1, r4}
     f0c:	0001828a 	andeq	r8, r1, sl, lsl #5
     f10:	42911802 	addsmi	r1, r1, #131072	; 0x20000
     f14:	09000018 	stmdbeq	r0, {r3, r4}
     f18:	08030034 	stmdaeq	r3, {r2, r4, r5}
     f1c:	0b3b0b3a 	bleq	ec3c0c <__bss_end__+0xeb9114>
     f20:	18021349 	stmdane	r2, {r0, r3, r6, r8, r9, ip}
     f24:	890a0000 	stmdbhi	sl, {}	; <UNPREDICTABLE>
     f28:	11000182 	smlabbne	r0, r2, r1, r0
     f2c:	00133101 	andseq	r3, r3, r1, lsl #2
     f30:	00050b00 	andeq	r0, r5, r0, lsl #22
     f34:	0b3a0803 	bleq	e82f48 <__bss_end__+0xe78450>
     f38:	13490b3b 	movtne	r0, #39739	; 0x9b3b
     f3c:	00001702 	andeq	r1, r0, r2, lsl #14
     f40:	11010b0c 	tstne	r1, ip, lsl #22
     f44:	01061201 	tsteq	r6, r1, lsl #4
     f48:	0d000013 	stceq	0, cr0, [r0, #-76]	; 0xffffffb4
     f4c:	08030034 	stmdaeq	r3, {r2, r4, r5}
     f50:	0b3b0b3a 	bleq	ec3c40 <__bss_end__+0xeb9148>
     f54:	17021349 	strne	r1, [r2, -r9, asr #6]
     f58:	2e0e0000 	cdpcs	0, 0, cr0, cr14, cr0, {0}
     f5c:	03193f01 	tsteq	r9, #1, 30
     f60:	3b0b3a0e 	blcc	2cf7a0 <__bss_end__+0x2c4ca8>
     f64:	4919270b 	ldmdbmi	r9, {r0, r1, r3, r8, r9, sl, sp}
     f68:	00193c13 	andseq	r3, r9, r3, lsl ip
     f6c:	00050f00 	andeq	r0, r5, r0, lsl #30
     f70:	00001349 	andeq	r1, r0, r9, asr #6
     f74:	01110100 	tsteq	r1, r0, lsl #2
     f78:	0b130e25 	bleq	4c4814 <__bss_end__+0x4b9d1c>
     f7c:	0e1b0e03 	cdpeq	14, 1, cr0, cr11, cr3, {0}
     f80:	06120111 			; <UNDEFINED> instruction: 0x06120111
     f84:	00001710 	andeq	r1, r0, r0, lsl r7
     f88:	0b002402 	bleq	9f98 <__FUNCTION__.4312+0x20c>
     f8c:	030b3e0b 	movweq	r3, #48651	; 0xbe0b
     f90:	03000008 	movweq	r0, #8
     f94:	0b0b0024 	bleq	2c102c <__bss_end__+0x2b6534>
     f98:	0e030b3e 	vmoveq.16	d3[0], r0
     f9c:	35040000 	strcc	r0, [r4, #-0]
     fa0:	00134900 	andseq	r4, r3, r0, lsl #18
     fa4:	00160500 	andseq	r0, r6, r0, lsl #10
     fa8:	0b3a0e03 	bleq	e847bc <__bss_end__+0xe79cc4>
     fac:	13490b3b 	movtne	r0, #39739	; 0x9b3b
     fb0:	16060000 	strne	r0, [r6], -r0
     fb4:	3a0e0300 	bcc	381bbc <__bss_end__+0x3770c4>
     fb8:	49053b0b 	stmdbmi	r5, {r0, r1, r3, r8, r9, fp, ip, sp}
     fbc:	07000013 	smladeq	r0, r3, r0, r0
     fc0:	0b0b0117 	bleq	2c1424 <__bss_end__+0x2b692c>
     fc4:	0b3b0b3a 	bleq	ec3cb4 <__bss_end__+0xeb91bc>
     fc8:	00001301 	andeq	r1, r0, r1, lsl #6
     fcc:	03000d08 	movweq	r0, #3336	; 0xd08
     fd0:	3b0b3a0e 	blcc	2cf810 <__bss_end__+0x2c4d18>
     fd4:	0013490b 	andseq	r4, r3, fp, lsl #18
     fd8:	01010900 	tsteq	r1, r0, lsl #18
     fdc:	13011349 	movwne	r1, #4937	; 0x1349
     fe0:	210a0000 	mrscs	r0, (UNDEF: 10)
     fe4:	2f134900 	svccs	0x00134900
     fe8:	0b00000b 	bleq	101c <_start-0x6fe4>
     fec:	0b0b0113 	bleq	2c1440 <__bss_end__+0x2b6948>
     ff0:	0b3b0b3a 	bleq	ec3ce0 <__bss_end__+0xeb91e8>
     ff4:	00001301 	andeq	r1, r0, r1, lsl #6
     ff8:	03000d0c 	movweq	r0, #3340	; 0xd0c
     ffc:	3b0b3a0e 	blcc	2cf83c <__bss_end__+0x2c4d44>
    1000:	3813490b 	ldmdacc	r3, {r0, r1, r3, r8, fp, lr}
    1004:	0d00000b 	stceq	0, cr0, [r0, #-44]	; 0xffffffd4
    1008:	0b0b000f 	bleq	2c104c <__bss_end__+0x2b6554>
    100c:	0f0e0000 	svceq	0x000e0000
    1010:	490b0b00 	stmdbmi	fp, {r8, r9, fp}
    1014:	0f000013 	svceq	0x00000013
    1018:	13490026 	movtne	r0, #36902	; 0x9026
    101c:	13100000 	tstne	r0, #0
    1020:	0b0e0301 	bleq	381c2c <__bss_end__+0x377134>
    1024:	3b0b3a0b 	blcc	2cf858 <__bss_end__+0x2c4d60>
    1028:	0013010b 	andseq	r0, r3, fp, lsl #2
    102c:	000d1100 	andeq	r1, sp, r0, lsl #2
    1030:	0b3a0803 	bleq	e83044 <__bss_end__+0xe7854c>
    1034:	13490b3b 	movtne	r0, #39739	; 0x9b3b
    1038:	00000b38 	andeq	r0, r0, r8, lsr fp
    103c:	03011312 	movweq	r1, #4882	; 0x1312
    1040:	3a050b0e 	bcc	143c80 <__bss_end__+0x139188>
    1044:	010b3b0b 	tsteq	fp, fp, lsl #22
    1048:	13000013 	movwne	r0, #19
    104c:	0e03000d 	cdpeq	0, 0, cr0, cr3, cr13, {0}
    1050:	0b3b0b3a 	bleq	ec3d40 <__bss_end__+0xeb9248>
    1054:	05381349 	ldreq	r1, [r8, #-841]!	; 0x349
    1058:	15140000 	ldrne	r0, [r4, #-0]
    105c:	00192700 	andseq	r2, r9, r0, lsl #14
    1060:	01151500 	tsteq	r5, r0, lsl #10
    1064:	13491927 	movtne	r1, #39207	; 0x9927
    1068:	00001301 	andeq	r1, r0, r1, lsl #6
    106c:	49000516 	stmdbmi	r0, {r1, r2, r4, r8, sl}
    1070:	17000013 	smladne	r0, r3, r0, r0
    1074:	0e030113 	mcreq	1, 0, r0, cr3, cr3, {0}
    1078:	0b3a050b 	bleq	e824ac <__bss_end__+0xe779b4>
    107c:	1301053b 	movwne	r0, #5435	; 0x153b
    1080:	0d180000 	ldceq	0, cr0, [r8, #-0]
    1084:	3a0e0300 	bcc	381c8c <__bss_end__+0x377194>
    1088:	49053b0b 	stmdbmi	r5, {r0, r1, r3, r8, r9, fp, ip, sp}
    108c:	000b3813 	andeq	r3, fp, r3, lsl r8
    1090:	000d1900 	andeq	r1, sp, r0, lsl #18
    1094:	0b3a0e03 	bleq	e848a8 <__bss_end__+0xe79db0>
    1098:	1349053b 	movtne	r0, #38203	; 0x953b
    109c:	00000538 	andeq	r0, r0, r8, lsr r5
    10a0:	0301131a 	movweq	r1, #4890	; 0x131a
    10a4:	3a0b0b0e 	bcc	2c3ce4 <__bss_end__+0x2b91ec>
    10a8:	01053b0b 	tsteq	r5, fp, lsl #22
    10ac:	1b000013 	blne	1100 <_start-0x6f00>
    10b0:	0b0b0113 	bleq	2c1504 <__bss_end__+0x2b6a0c>
    10b4:	053b0b3a 	ldreq	r0, [fp, #-2874]!	; 0xb3a
    10b8:	00001301 	andeq	r1, r0, r1, lsl #6
    10bc:	0b01171c 	bleq	46d34 <__bss_end__+0x3c23c>
    10c0:	3b0b3a0b 	blcc	2cf8f4 <__bss_end__+0x2c4dfc>
    10c4:	00130105 	andseq	r0, r3, r5, lsl #2
    10c8:	000d1d00 	andeq	r1, sp, r0, lsl #26
    10cc:	0b3a0e03 	bleq	e848e0 <__bss_end__+0xe79de8>
    10d0:	1349053b 	movtne	r0, #38203	; 0x953b
    10d4:	151e0000 	ldrne	r0, [lr, #-0]
    10d8:	01192701 	tsteq	r9, r1, lsl #14
    10dc:	1f000013 	svcne	0x00000013
    10e0:	0e030034 	mcreq	0, 0, r0, cr3, cr4, {1}
    10e4:	053b0b3a 	ldreq	r0, [fp, #-2874]!	; 0xb3a
    10e8:	193f1349 	ldmdbne	pc!, {r0, r3, r6, r8, r9, ip}	; <UNPREDICTABLE>
    10ec:	0000193c 	andeq	r1, r0, ip, lsr r9
    10f0:	03003420 	movweq	r3, #1056	; 0x420
    10f4:	3b0b3a0e 	blcc	2cf934 <__bss_end__+0x2c4e3c>
    10f8:	3f13490b 	svccc	0x0013490b
    10fc:	00193c19 	andseq	r3, r9, r9, lsl ip
    1100:	01042100 	mrseq	r2, (UNDEF: 20)
    1104:	13490b0b 	movtne	r0, #39691	; 0x9b0b
    1108:	0b3b0b3a 	bleq	ec3df8 <__bss_end__+0xeb9300>
    110c:	00001301 	andeq	r1, r0, r1, lsl #6
    1110:	03002822 	movweq	r2, #2082	; 0x822
    1114:	000b1c0e 	andeq	r1, fp, lr, lsl #24
    1118:	00342300 	eorseq	r2, r4, r0, lsl #6
    111c:	0b3a0e03 	bleq	e84930 <__bss_end__+0xe79e38>
    1120:	13490b3b 	movtne	r0, #39739	; 0x9b3b
    1124:	0000061c 	andeq	r0, r0, ip, lsl r6
    1128:	3f012e24 	svccc	0x00012e24
    112c:	3a0e0319 	bcc	381d98 <__bss_end__+0x3772a0>
    1130:	270b3b0b 	strcs	r3, [fp, -fp, lsl #22]
    1134:	11134919 	tstne	r3, r9, lsl r9
    1138:	40061201 	andmi	r1, r6, r1, lsl #4
    113c:	19429718 	stmdbne	r2, {r3, r4, r8, r9, sl, ip, pc}^
    1140:	00001301 	andeq	r1, r0, r1, lsl #6
    1144:	01828925 	orreq	r8, r2, r5, lsr #18
    1148:	31011100 	mrscc	r1, (UNDEF: 17)
    114c:	26000013 			; <UNDEFINED> instruction: 0x26000013
    1150:	193f012e 	ldmdbne	pc!, {r1, r2, r3, r5, r8}	; <UNPREDICTABLE>
    1154:	0b3a0e03 	bleq	e84968 <__bss_end__+0xe79e70>
    1158:	19270b3b 	stmdbne	r7!, {r0, r1, r3, r4, r5, r8, r9, fp}
    115c:	06120111 			; <UNDEFINED> instruction: 0x06120111
    1160:	42971840 	addsmi	r1, r7, #64, 16	; 0x400000
    1164:	00130119 	andseq	r0, r3, r9, lsl r1
    1168:	00052700 	andeq	r2, r5, r0, lsl #14
    116c:	0b3a0803 	bleq	e83180 <__bss_end__+0xe78688>
    1170:	13490b3b 	movtne	r0, #39739	; 0x9b3b
    1174:	00001702 	andeq	r1, r0, r2, lsl #14
    1178:	01828928 	orreq	r8, r2, r8, lsr #18
    117c:	31011101 	tstcc	r1, r1, lsl #2
    1180:	00130113 	andseq	r0, r3, r3, lsl r1
    1184:	828a2900 	addhi	r2, sl, #0, 18
    1188:	18020001 	stmdane	r2, {r0}
    118c:	00184291 	mulseq	r8, r1, r2
    1190:	00342a00 	eorseq	r2, r4, r0, lsl #20
    1194:	0b3a0803 	bleq	e831a8 <__bss_end__+0xe786b0>
    1198:	13490b3b 	movtne	r0, #39739	; 0x9b3b
    119c:	00001802 	andeq	r1, r0, r2, lsl #16
    11a0:	0182892b 	orreq	r8, r2, fp, lsr #18
    11a4:	31011101 	tstcc	r1, r1, lsl #2
    11a8:	2c000013 	stccs	0, cr0, [r0], {19}
    11ac:	0e03012e 	adfeqsp	f0, f3, #0.5
    11b0:	0b3b0b3a 	bleq	ec3ea0 <__bss_end__+0xeb93a8>
    11b4:	01111927 	tsteq	r1, r7, lsr #18
    11b8:	18400612 	stmdane	r0, {r1, r4, r9, sl}^
    11bc:	01194297 			; <UNDEFINED> instruction: 0x01194297
    11c0:	2d000013 	stccs	0, cr0, [r0, #-76]	; 0xffffffb4
    11c4:	0e030005 	cdpeq	0, 0, cr0, cr3, cr5, {0}
    11c8:	0b3b0b3a 	bleq	ec3eb8 <__bss_end__+0xeb93c0>
    11cc:	17021349 	strne	r1, [r2, -r9, asr #6]
    11d0:	352e0000 	strcc	r0, [lr, #-0]!
    11d4:	2f000000 	svccs	0x00000000
    11d8:	193f002e 	ldmdbne	pc!, {r1, r2, r3, r5}	; <UNPREDICTABLE>
    11dc:	0e6e193c 	mcreq	9, 3, r1, cr14, cr12, {1}
    11e0:	0b3a0e03 	bleq	e849f4 <__bss_end__+0xe79efc>
    11e4:	00000b3b 	andeq	r0, r0, fp, lsr fp
    11e8:	01110100 	tsteq	r1, r0, lsl #2
    11ec:	0b130e25 	bleq	4c4a88 <__bss_end__+0x4b9f90>
    11f0:	0e1b0e03 	cdpeq	14, 1, cr0, cr11, cr3, {0}
    11f4:	06120111 			; <UNDEFINED> instruction: 0x06120111
    11f8:	00001710 	andeq	r1, r0, r0, lsl r7
    11fc:	0b002402 	bleq	a20c <__FUNCTION__.4336+0xe0>
    1200:	030b3e0b 	movweq	r3, #48651	; 0xbe0b
    1204:	03000008 	movweq	r0, #8
    1208:	0b0b0024 	bleq	2c12a0 <__bss_end__+0x2b67a8>
    120c:	0e030b3e 	vmoveq.16	d3[0], r0
    1210:	26040000 	strcs	r0, [r4], -r0
    1214:	00134900 	andseq	r4, r3, r0, lsl #18
    1218:	00160500 	andseq	r0, r6, r0, lsl #10
    121c:	0b3a0e03 	bleq	e84a30 <__bss_end__+0xe79f38>
    1220:	13490b3b 	movtne	r0, #39739	; 0x9b3b
    1224:	16060000 	strne	r0, [r6], -r0
    1228:	3a0e0300 	bcc	381e30 <__bss_end__+0x377338>
    122c:	49053b0b 	stmdbmi	r5, {r0, r1, r3, r8, r9, fp, ip, sp}
    1230:	07000013 	smladeq	r0, r3, r0, r0
    1234:	0b0b0117 	bleq	2c1698 <__bss_end__+0x2b6ba0>
    1238:	0b3b0b3a 	bleq	ec3f28 <__bss_end__+0xeb9430>
    123c:	00001301 	andeq	r1, r0, r1, lsl #6
    1240:	03000d08 	movweq	r0, #3336	; 0xd08
    1244:	3b0b3a0e 	blcc	2cfa84 <__bss_end__+0x2c4f8c>
    1248:	0013490b 	andseq	r4, r3, fp, lsl #18
    124c:	01010900 	tsteq	r1, r0, lsl #18
    1250:	13011349 	movwne	r1, #4937	; 0x1349
    1254:	210a0000 	mrscs	r0, (UNDEF: 10)
    1258:	2f134900 	svccs	0x00134900
    125c:	0b00000b 	bleq	1290 <_start-0x6d70>
    1260:	0b0b0113 	bleq	2c16b4 <__bss_end__+0x2b6bbc>
    1264:	0b3b0b3a 	bleq	ec3f54 <__bss_end__+0xeb945c>
    1268:	00001301 	andeq	r1, r0, r1, lsl #6
    126c:	03000d0c 	movweq	r0, #3340	; 0xd0c
    1270:	3b0b3a0e 	blcc	2cfab0 <__bss_end__+0x2c4fb8>
    1274:	3813490b 	ldmdacc	r3, {r0, r1, r3, r8, fp, lr}
    1278:	0d00000b 	stceq	0, cr0, [r0, #-44]	; 0xffffffd4
    127c:	0b0b000f 	bleq	2c12c0 <__bss_end__+0x2b67c8>
    1280:	0f0e0000 	svceq	0x000e0000
    1284:	490b0b00 	stmdbmi	fp, {r8, r9, fp}
    1288:	0f000013 	svceq	0x00000013
    128c:	0e030113 	mcreq	1, 0, r0, cr3, cr3, {0}
    1290:	0b3a0b0b 	bleq	e83ec4 <__bss_end__+0xe793cc>
    1294:	13010b3b 	movwne	r0, #6971	; 0x1b3b
    1298:	0d100000 	ldceq	0, cr0, [r0, #-0]
    129c:	3a080300 	bcc	201ea4 <__bss_end__+0x1f73ac>
    12a0:	490b3b0b 	stmdbmi	fp, {r0, r1, r3, r8, r9, fp, ip, sp}
    12a4:	000b3813 	andeq	r3, fp, r3, lsl r8
    12a8:	01131100 	tsteq	r3, r0, lsl #2
    12ac:	050b0e03 	streq	r0, [fp, #-3587]	; 0xe03
    12b0:	0b3b0b3a 	bleq	ec3fa0 <__bss_end__+0xeb94a8>
    12b4:	00001301 	andeq	r1, r0, r1, lsl #6
    12b8:	03000d12 	movweq	r0, #3346	; 0xd12
    12bc:	3b0b3a0e 	blcc	2cfafc <__bss_end__+0x2c5004>
    12c0:	3813490b 	ldmdacc	r3, {r0, r1, r3, r8, fp, lr}
    12c4:	13000005 	movwne	r0, #5
    12c8:	19270015 	stmdbne	r7!, {r0, r2, r4}
    12cc:	15140000 	ldrne	r0, [r4, #-0]
    12d0:	49192701 	ldmdbmi	r9, {r0, r8, r9, sl, sp}
    12d4:	00130113 	andseq	r0, r3, r3, lsl r1
    12d8:	00051500 	andeq	r1, r5, r0, lsl #10
    12dc:	00001349 	andeq	r1, r0, r9, asr #6
    12e0:	03011316 	movweq	r1, #4886	; 0x1316
    12e4:	3a050b0e 	bcc	143f24 <__bss_end__+0x13942c>
    12e8:	01053b0b 	tsteq	r5, fp, lsl #22
    12ec:	17000013 	smladne	r0, r3, r0, r0
    12f0:	0e03000d 	cdpeq	0, 0, cr0, cr3, cr13, {0}
    12f4:	053b0b3a 	ldreq	r0, [fp, #-2874]!	; 0xb3a
    12f8:	0b381349 	bleq	e06024 <__bss_end__+0xdfb52c>
    12fc:	0d180000 	ldceq	0, cr0, [r8, #-0]
    1300:	3a0e0300 	bcc	381f08 <__bss_end__+0x377410>
    1304:	49053b0b 	stmdbmi	r5, {r0, r1, r3, r8, r9, fp, ip, sp}
    1308:	00053813 	andeq	r3, r5, r3, lsl r8
    130c:	01131900 	tsteq	r3, r0, lsl #18
    1310:	0b0b0e03 	bleq	2c4b24 <__bss_end__+0x2ba02c>
    1314:	053b0b3a 	ldreq	r0, [fp, #-2874]!	; 0xb3a
    1318:	00001301 	andeq	r1, r0, r1, lsl #6
    131c:	0b01131a 	bleq	45f8c <__bss_end__+0x3b494>
    1320:	3b0b3a0b 	blcc	2cfb54 <__bss_end__+0x2c505c>
    1324:	00130105 	andseq	r0, r3, r5, lsl #2
    1328:	01171b00 	tsteq	r7, r0, lsl #22
    132c:	0b3a0b0b 	bleq	e83f60 <__bss_end__+0xe79468>
    1330:	1301053b 	movwne	r0, #5435	; 0x153b
    1334:	0d1c0000 	ldceq	0, cr0, [ip, #-0]
    1338:	3a0e0300 	bcc	381f40 <__bss_end__+0x377448>
    133c:	49053b0b 	stmdbmi	r5, {r0, r1, r3, r8, r9, fp, ip, sp}
    1340:	1d000013 	stcne	0, cr0, [r0, #-76]	; 0xffffffb4
    1344:	19270115 	stmdbne	r7!, {r0, r2, r4, r8}
    1348:	00001301 	andeq	r1, r0, r1, lsl #6
    134c:	0300341e 	movweq	r3, #1054	; 0x41e
    1350:	3b0b3a0e 	blcc	2cfb90 <__bss_end__+0x2c5098>
    1354:	3f134905 	svccc	0x00134905
    1358:	00193c19 	andseq	r3, r9, r9, lsl ip
    135c:	00341f00 	eorseq	r1, r4, r0, lsl #30
    1360:	0b3a0e03 	bleq	e84b74 <__bss_end__+0xe7a07c>
    1364:	13490b3b 	movtne	r0, #39739	; 0x9b3b
    1368:	193c193f 	ldmdbne	ip!, {r0, r1, r2, r3, r4, r5, r8, fp, ip}
    136c:	04200000 	strteq	r0, [r0], #-0
    1370:	490b0b01 	stmdbmi	fp, {r0, r8, r9, fp}
    1374:	3b0b3a13 	blcc	2cfbc8 <__bss_end__+0x2c50d0>
    1378:	0013010b 	andseq	r0, r3, fp, lsl #2
    137c:	00282100 	eoreq	r2, r8, r0, lsl #2
    1380:	0b1c0e03 	bleq	704b94 <__bss_end__+0x6fa09c>
    1384:	34220000 	strtcc	r0, [r2], #-0
    1388:	3a0e0300 	bcc	381f90 <__bss_end__+0x377498>
    138c:	490b3b0b 	stmdbmi	fp, {r0, r1, r3, r8, r9, fp, ip, sp}
    1390:	00061c13 	andeq	r1, r6, r3, lsl ip
    1394:	012e2300 	teqeq	lr, r0, lsl #6
    1398:	0e03193f 	mcreq	9, 0, r1, cr3, cr15, {1}
    139c:	0b3b0b3a 	bleq	ec408c <__bss_end__+0xeb9594>
    13a0:	13491927 	movtne	r1, #39207	; 0x9927
    13a4:	06120111 			; <UNDEFINED> instruction: 0x06120111
    13a8:	42971840 	addsmi	r1, r7, #64, 16	; 0x400000
    13ac:	00130119 	andseq	r0, r3, r9, lsl r1
    13b0:	00052400 	andeq	r2, r5, r0, lsl #8
    13b4:	0b3a0803 	bleq	e833c8 <__bss_end__+0xe788d0>
    13b8:	13490b3b 	movtne	r0, #39739	; 0x9b3b
    13bc:	00001702 	andeq	r1, r0, r2, lsl #14
    13c0:	03003425 	movweq	r3, #1061	; 0x425
    13c4:	3b0b3a0e 	blcc	2cfc04 <__bss_end__+0x2c510c>
    13c8:	0213490b 	andseq	r4, r3, #180224	; 0x2c000
    13cc:	26000017 			; <UNDEFINED> instruction: 0x26000017
    13d0:	08030034 	stmdaeq	r3, {r2, r4, r5}
    13d4:	0b3b0b3a 	bleq	ec40c4 <__bss_end__+0xeb95cc>
    13d8:	17021349 	strne	r1, [r2, -r9, asr #6]
    13dc:	89270000 	stmdbhi	r7!, {}	; <UNPREDICTABLE>
    13e0:	11010182 	smlabbne	r1, r2, r1, r0
    13e4:	00133101 	andseq	r3, r3, r1, lsl #2
    13e8:	828a2800 	addhi	r2, sl, #0, 16
    13ec:	18020001 	stmdane	r2, {r0}
    13f0:	00184291 	mulseq	r8, r1, r2
    13f4:	012e2900 	teqeq	lr, r0, lsl #18
    13f8:	0e03193f 	mcreq	9, 0, r1, cr3, cr15, {1}
    13fc:	0b3b0b3a 	bleq	ec40ec <__bss_end__+0xeb95f4>
    1400:	01111927 	tsteq	r1, r7, lsr #18
    1404:	18400612 	stmdane	r0, {r1, r4, r9, sl}^
    1408:	01194297 			; <UNDEFINED> instruction: 0x01194297
    140c:	2a000013 	bcs	1460 <_start-0x6ba0>
    1410:	01018289 	smlabbeq	r1, r9, r2, r8
    1414:	13310111 	teqne	r1, #1073741828	; 0x40000004
    1418:	00001301 	andeq	r1, r0, r1, lsl #6
    141c:	0182892b 	orreq	r8, r2, fp, lsr #18
    1420:	31011100 	mrscc	r1, (UNDEF: 17)
    1424:	2c000013 	stccs	0, cr0, [r0], {19}
    1428:	0e030005 	cdpeq	0, 0, cr0, cr3, cr5, {0}
    142c:	0b3b0b3a 	bleq	ec411c <__bss_end__+0xeb9624>
    1430:	17021349 	strne	r1, [r2, -r9, asr #6]
    1434:	342d0000 	strtcc	r0, [sp], #-0
    1438:	3a080300 	bcc	202040 <__bss_end__+0x1f7548>
    143c:	490b3b0b 	stmdbmi	fp, {r0, r1, r3, r8, r9, fp, ip, sp}
    1440:	00180213 	andseq	r0, r8, r3, lsl r2
    1444:	002e2e00 	eoreq	r2, lr, r0, lsl #28
    1448:	193c193f 	ldmdbne	ip!, {r0, r1, r2, r3, r4, r5, r8, fp, ip}
    144c:	0e030e6e 	cdpeq	14, 0, cr0, cr3, cr14, {3}
    1450:	0b3b0b3a 	bleq	ec4140 <__bss_end__+0xeb9648>
    1454:	01000000 	mrseq	r0, (UNDEF: 0)
    1458:	0e250111 	mcreq	1, 1, r0, cr5, cr1, {0}
    145c:	0e030b13 	vmoveq.32	d3[0], r0
    1460:	01110e1b 	tsteq	r1, fp, lsl lr
    1464:	17100612 			; <UNDEFINED> instruction: 0x17100612
    1468:	24020000 	strcs	r0, [r2], #-0
    146c:	3e0b0b00 	vmlacc.f64	d0, d11, d0
    1470:	0008030b 	andeq	r0, r8, fp, lsl #6
    1474:	00240300 	eoreq	r0, r4, r0, lsl #6
    1478:	0b3e0b0b 	bleq	f840ac <__bss_end__+0xf795b4>
    147c:	00000e03 	andeq	r0, r0, r3, lsl #28
    1480:	03001604 	movweq	r1, #1540	; 0x604
    1484:	3b0b3a0e 	blcc	2cfcc4 <__bss_end__+0x2c51cc>
    1488:	0013490b 	andseq	r4, r3, fp, lsl #18
    148c:	00160500 	andseq	r0, r6, r0, lsl #10
    1490:	0b3a0e03 	bleq	e84ca4 <__bss_end__+0xe7a1ac>
    1494:	1349053b 	movtne	r0, #38203	; 0x953b
    1498:	17060000 	strne	r0, [r6, -r0]
    149c:	3a0b0b01 	bcc	2c40a8 <__bss_end__+0x2b95b0>
    14a0:	010b3b0b 	tsteq	fp, fp, lsl #22
    14a4:	07000013 	smladeq	r0, r3, r0, r0
    14a8:	0e03000d 	cdpeq	0, 0, cr0, cr3, cr13, {0}
    14ac:	0b3b0b3a 	bleq	ec419c <__bss_end__+0xeb96a4>
    14b0:	00001349 	andeq	r1, r0, r9, asr #6
    14b4:	49010108 	stmdbmi	r1, {r3, r8}
    14b8:	00130113 	andseq	r0, r3, r3, lsl r1
    14bc:	00210900 	eoreq	r0, r1, r0, lsl #18
    14c0:	0b2f1349 	bleq	bc61ec <__bss_end__+0xbbb6f4>
    14c4:	130a0000 	movwne	r0, #40960	; 0xa000
    14c8:	3a0b0b01 	bcc	2c40d4 <__bss_end__+0x2b95dc>
    14cc:	010b3b0b 	tsteq	fp, fp, lsl #22
    14d0:	0b000013 	bleq	1524 <_start-0x6adc>
    14d4:	0e03000d 	cdpeq	0, 0, cr0, cr3, cr13, {0}
    14d8:	0b3b0b3a 	bleq	ec41c8 <__bss_end__+0xeb96d0>
    14dc:	0b381349 	bleq	e06208 <__bss_end__+0xdfb710>
    14e0:	0f0c0000 	svceq	0x000c0000
    14e4:	000b0b00 	andeq	r0, fp, r0, lsl #22
    14e8:	000f0d00 	andeq	r0, pc, r0, lsl #26
    14ec:	13490b0b 	movtne	r0, #39691	; 0x9b0b
    14f0:	260e0000 	strcs	r0, [lr], -r0
    14f4:	00134900 	andseq	r4, r3, r0, lsl #18
    14f8:	01130f00 	tsteq	r3, r0, lsl #30
    14fc:	0b0b0e03 	bleq	2c4d10 <__bss_end__+0x2ba218>
    1500:	0b3b0b3a 	bleq	ec41f0 <__bss_end__+0xeb96f8>
    1504:	00001301 	andeq	r1, r0, r1, lsl #6
    1508:	03000d10 	movweq	r0, #3344	; 0xd10
    150c:	3b0b3a08 	blcc	2cfd34 <__bss_end__+0x2c523c>
    1510:	3813490b 	ldmdacc	r3, {r0, r1, r3, r8, fp, lr}
    1514:	1100000b 	tstne	r0, fp
    1518:	0e030113 	mcreq	1, 0, r0, cr3, cr3, {0}
    151c:	0b3a050b 	bleq	e82950 <__bss_end__+0xe77e58>
    1520:	13010b3b 	movwne	r0, #6971	; 0x1b3b
    1524:	0d120000 	ldceq	0, cr0, [r2, #-0]
    1528:	3a0e0300 	bcc	382130 <__bss_end__+0x377638>
    152c:	490b3b0b 	stmdbmi	fp, {r0, r1, r3, r8, r9, fp, ip, sp}
    1530:	00053813 	andeq	r3, r5, r3, lsl r8
    1534:	00151300 	andseq	r1, r5, r0, lsl #6
    1538:	00001927 	andeq	r1, r0, r7, lsr #18
    153c:	27011514 	smladcs	r1, r4, r5, r1
    1540:	01134919 	tsteq	r3, r9, lsl r9
    1544:	15000013 	strne	r0, [r0, #-19]
    1548:	13490005 	movtne	r0, #36869	; 0x9005
    154c:	13160000 	tstne	r6, #0
    1550:	0b0e0301 	bleq	38215c <__bss_end__+0x377664>
    1554:	3b0b3a05 	blcc	2cfd70 <__bss_end__+0x2c5278>
    1558:	00130105 	andseq	r0, r3, r5, lsl #2
    155c:	000d1700 	andeq	r1, sp, r0, lsl #14
    1560:	0b3a0e03 	bleq	e84d74 <__bss_end__+0xe7a27c>
    1564:	1349053b 	movtne	r0, #38203	; 0x953b
    1568:	00000b38 	andeq	r0, r0, r8, lsr fp
    156c:	03000d18 	movweq	r0, #3352	; 0xd18
    1570:	3b0b3a0e 	blcc	2cfdb0 <__bss_end__+0x2c52b8>
    1574:	38134905 	ldmdacc	r3, {r0, r2, r8, fp, lr}
    1578:	19000005 	stmdbne	r0, {r0, r2}
    157c:	0e030113 	mcreq	1, 0, r0, cr3, cr3, {0}
    1580:	0b3a0b0b 	bleq	e841b4 <__bss_end__+0xe796bc>
    1584:	1301053b 	movwne	r0, #5435	; 0x153b
    1588:	131a0000 	tstne	sl, #0
    158c:	3a0b0b01 	bcc	2c4198 <__bss_end__+0x2b96a0>
    1590:	01053b0b 	tsteq	r5, fp, lsl #22
    1594:	1b000013 	blne	15e8 <_start-0x6a18>
    1598:	0b0b0117 	bleq	2c19fc <__bss_end__+0x2b6f04>
    159c:	053b0b3a 	ldreq	r0, [fp, #-2874]!	; 0xb3a
    15a0:	00001301 	andeq	r1, r0, r1, lsl #6
    15a4:	03000d1c 	movweq	r0, #3356	; 0xd1c
    15a8:	3b0b3a0e 	blcc	2cfde8 <__bss_end__+0x2c52f0>
    15ac:	00134905 	andseq	r4, r3, r5, lsl #18
    15b0:	01151d00 	tsteq	r5, r0, lsl #26
    15b4:	13011927 	movwne	r1, #6439	; 0x1927
    15b8:	341e0000 	ldrcc	r0, [lr], #-0
    15bc:	3a0e0300 	bcc	3821c4 <__bss_end__+0x3776cc>
    15c0:	49053b0b 	stmdbmi	r5, {r0, r1, r3, r8, r9, fp, ip, sp}
    15c4:	3c193f13 	ldccc	15, cr3, [r9], {19}
    15c8:	1f000019 	svcne	0x00000019
    15cc:	0e030034 	mcreq	0, 0, r0, cr3, cr4, {1}
    15d0:	0b3b0b3a 	bleq	ec42c0 <__bss_end__+0xeb97c8>
    15d4:	193f1349 	ldmdbne	pc!, {r0, r3, r6, r8, r9, ip}	; <UNPREDICTABLE>
    15d8:	0000193c 	andeq	r1, r0, ip, lsr r9
    15dc:	03003420 	movweq	r3, #1056	; 0x420
    15e0:	3b0b3a0e 	blcc	2cfe20 <__bss_end__+0x2c5328>
    15e4:	0213490b 	andseq	r4, r3, #180224	; 0x2c000
    15e8:	21000018 	tstcs	r0, r8, lsl r0
    15ec:	193f012e 	ldmdbne	pc!, {r1, r2, r3, r5, r8}	; <UNPREDICTABLE>
    15f0:	0b3a0e03 	bleq	e84e04 <__bss_end__+0xe7a30c>
    15f4:	19270b3b 	stmdbne	r7!, {r0, r1, r3, r4, r5, r8, r9, fp}
    15f8:	06120111 			; <UNDEFINED> instruction: 0x06120111
    15fc:	42971840 	addsmi	r1, r7, #64, 16	; 0x400000
    1600:	00130119 	andseq	r0, r3, r9, lsl r1
    1604:	00052200 	andeq	r2, r5, r0, lsl #4
    1608:	0b3a0803 	bleq	e8361c <__bss_end__+0xe78b24>
    160c:	13490b3b 	movtne	r0, #39739	; 0x9b3b
    1610:	00001802 	andeq	r1, r0, r2, lsl #16
    1614:	3f002e23 	svccc	0x00002e23
    1618:	3a0e0319 	bcc	382284 <__bss_end__+0x37778c>
    161c:	270b3b0b 	strcs	r3, [fp, -fp, lsl #22]
    1620:	12011119 	andne	r1, r1, #1073741830	; 0x40000006
    1624:	97184006 	ldrls	r4, [r8, -r6]
    1628:	00001942 	andeq	r1, r0, r2, asr #18
    162c:	3f012e24 	svccc	0x00012e24
    1630:	3a0e0319 	bcc	38229c <__bss_end__+0x3777a4>
    1634:	270b3b0b 	strcs	r3, [fp, -fp, lsl #22]
    1638:	11134919 	tstne	r3, r9, lsl r9
    163c:	40061201 	andmi	r1, r6, r1, lsl #4
    1640:	19429718 	stmdbne	r2, {r3, r4, r8, r9, sl, ip, pc}^
    1644:	00001301 	andeq	r1, r0, r1, lsl #6
    1648:	03000525 	movweq	r0, #1317	; 0x525
    164c:	3b0b3a0e 	blcc	2cfe8c <__bss_end__+0x2c5394>
    1650:	0213490b 	andseq	r4, r3, #180224	; 0x2c000
    1654:	26000017 			; <UNDEFINED> instruction: 0x26000017
    1658:	0e030034 	mcreq	0, 0, r0, cr3, cr4, {1}
    165c:	19341349 	ldmdbne	r4!, {r0, r3, r6, r8, r9, ip}
    1660:	00001802 	andeq	r1, r0, r2, lsl #16
    1664:	03003427 	movweq	r3, #1063	; 0x427
    1668:	3b0b3a08 	blcc	2cfe90 <__bss_end__+0x2c5398>
    166c:	0213490b 	andseq	r4, r3, #180224	; 0x2c000
    1670:	28000017 	stmdacs	r0, {r0, r1, r2, r4}
    1674:	01018289 	smlabbeq	r1, r9, r2, r8
    1678:	13310111 	teqne	r1, #1073741828	; 0x40000004
    167c:	00001301 	andeq	r1, r0, r1, lsl #6
    1680:	01828a29 	orreq	r8, r2, r9, lsr #20
    1684:	91180200 	tstls	r8, r0, lsl #4
    1688:	00001842 	andeq	r1, r0, r2, asr #16
    168c:	0182892a 	orreq	r8, r2, sl, lsr #18
    1690:	31011100 	mrscc	r1, (UNDEF: 17)
    1694:	2b000013 	blcs	16e8 <_start-0x6918>
    1698:	08030005 	stmdaeq	r3, {r0, r2}
    169c:	0b3b0b3a 	bleq	ec438c <__bss_end__+0xeb9894>
    16a0:	17021349 	strne	r1, [r2, -r9, asr #6]
    16a4:	342c0000 	strtcc	r0, [ip], #-0
    16a8:	3a0e0300 	bcc	3822b0 <__bss_end__+0x3777b8>
    16ac:	490b3b0b 	stmdbmi	fp, {r0, r1, r3, r8, r9, fp, ip, sp}
    16b0:	00170213 	andseq	r0, r7, r3, lsl r2
    16b4:	002e2d00 	eoreq	r2, lr, r0, lsl #26
    16b8:	0e03193f 	mcreq	9, 0, r1, cr3, cr15, {1}
    16bc:	0b3b0b3a 	bleq	ec43ac <__bss_end__+0xeb98b4>
    16c0:	13491927 	movtne	r1, #39207	; 0x9927
    16c4:	06120111 			; <UNDEFINED> instruction: 0x06120111
    16c8:	42971840 	addsmi	r1, r7, #64, 16	; 0x400000
    16cc:	2e000019 	mcrcs	0, 0, r0, cr0, cr9, {0}
    16d0:	193f002e 	ldmdbne	pc!, {r1, r2, r3, r5}	; <UNPREDICTABLE>
    16d4:	0e6e193c 	mcreq	9, 3, r1, cr14, cr12, {1}
    16d8:	0b3a0e03 	bleq	e84eec <__bss_end__+0xe7a3f4>
    16dc:	00000b3b 	andeq	r0, r0, fp, lsr fp
	...

Disassembly of section .debug_loc:

00000000 <.debug_loc>:
       0:	0000001c 	andeq	r0, r0, ip, lsl r0
       4:	00000020 	andeq	r0, r0, r0, lsr #32
       8:	20500001 	subscs	r0, r0, r1
       c:	58000000 	stmdapl	r0, {}	; <UNPREDICTABLE>
      10:	01000000 	mrseq	r0, (UNDEF: 0)
      14:	00005400 	andeq	r5, r0, r0, lsl #8
      18:	00000000 	andeq	r0, r0, r0
      1c:	00840000 	addeq	r0, r4, r0
      20:	00880000 	addeq	r0, r8, r0
      24:	00010000 	andeq	r0, r1, r0
      28:	00008850 	andeq	r8, r0, r0, asr r8
      2c:	00016400 	andeq	r6, r1, r0, lsl #8
      30:	54000100 	strpl	r0, [r0], #-256	; 0x100
	...
      40:	00000028 	andeq	r0, r0, r8, lsr #32
      44:	28500001 	ldmdacs	r0, {r0}^
      48:	bc000000 	stclt	0, cr0, [r0], {-0}
      4c:	04000000 	streq	r0, [r0], #-0
      50:	5001f300 	andpl	pc, r1, r0, lsl #6
      54:	0000bc9f 	muleq	r0, pc, ip	; <UNPREDICTABLE>
      58:	0000cc00 	andeq	ip, r0, r0, lsl #24
      5c:	50000100 	andpl	r0, r0, r0, lsl #2
      60:	000000cc 	andeq	r0, r0, ip, asr #1
      64:	000000f8 	strdeq	r0, [r0], -r8
      68:	01f30004 	mvnseq	r0, r4
      6c:	00009f50 	andeq	r9, r0, r0, asr pc
	...
      78:	002b0000 	eoreq	r0, fp, r0
      7c:	00010000 	andeq	r0, r1, r0
      80:	00002b51 	andeq	r2, r0, r1, asr fp
      84:	0000bc00 	andeq	fp, r0, r0, lsl #24
      88:	f3000400 	vshl.u8	d0, d0, d0
      8c:	bc9f5101 	ldflts	f5, [pc], {1}
      90:	d0000000 	andle	r0, r0, r0
      94:	01000000 	mrseq	r0, (UNDEF: 0)
      98:	00d05100 	sbcseq	r5, r0, r0, lsl #2
      9c:	00f80000 	rscseq	r0, r8, r0
      a0:	00040000 	andeq	r0, r4, r0
      a4:	9f5101f3 	svcls	0x005101f3
	...
      b4:	0000002b 	andeq	r0, r0, fp, lsr #32
      b8:	2b520001 	blcs	14800c4 <__bss_end__+0x14755cc>
      bc:	bc000000 	stclt	0, cr0, [r0], {-0}
      c0:	01000000 	mrseq	r0, (UNDEF: 0)
      c4:	00bc5600 	adcseq	r5, ip, r0, lsl #12
      c8:	00d00000 	sbcseq	r0, r0, r0
      cc:	00010000 	andeq	r0, r1, r0
      d0:	0000d052 	andeq	sp, r0, r2, asr r0
      d4:	0000f800 	andeq	pc, r0, r0, lsl #16
      d8:	56000100 	strpl	r0, [r0], -r0, lsl #2
	...
      e8:	0000002b 	andeq	r0, r0, fp, lsr #32
      ec:	2b530001 	blcs	14c00f8 <__bss_end__+0x14b5600>
      f0:	bc000000 	stclt	0, cr0, [r0], {-0}
      f4:	01000000 	mrseq	r0, (UNDEF: 0)
      f8:	00bc5500 	adcseq	r5, ip, r0, lsl #10
      fc:	00d00000 	sbcseq	r0, r0, r0
     100:	00010000 	andeq	r0, r1, r0
     104:	0000d053 	andeq	sp, r0, r3, asr r0
     108:	0000f800 	andeq	pc, r0, r0, lsl #16
     10c:	55000100 	strpl	r0, [r0, #-256]	; 0x100
	...
     118:	0000000c 	andeq	r0, r0, ip
     11c:	00000014 	andeq	r0, r0, r4, lsl r0
     120:	9f300002 	svcls	0x00300002
     124:	00000014 	andeq	r0, r0, r4, lsl r0
     128:	000000f8 	strdeq	r0, [r0], -r8
     12c:	00540001 	subseq	r0, r4, r1
     130:	00000000 	andeq	r0, r0, r0
     134:	44000000 	strmi	r0, [r0], #-0
     138:	bc000000 	stclt	0, cr0, [r0], {-0}
     13c:	01000000 	mrseq	r0, (UNDEF: 0)
     140:	00d05500 	sbcseq	r5, r0, r0, lsl #10
     144:	00f80000 	rscseq	r0, r8, r0
     148:	00010000 	andeq	r0, r1, r0
     14c:	00000055 	andeq	r0, r0, r5, asr r0
     150:	00000000 	andeq	r0, r0, r0
     154:	00005800 	andeq	r5, r0, r0, lsl #16
     158:	00008000 	andeq	r8, r0, r0
     15c:	75000300 	strvc	r0, [r0, #-768]	; 0x300
     160:	00809f10 	addeq	r9, r0, r0, lsl pc
     164:	00bc0000 	adcseq	r0, ip, r0
     168:	00030000 	andeq	r0, r3, r0
     16c:	d09f1c75 	addsle	r1, pc, r5, ror ip	; <UNPREDICTABLE>
     170:	f8000000 			; <UNDEFINED> instruction: 0xf8000000
     174:	03000000 	movweq	r0, #0
     178:	9f1c7500 	svcls	0x001c7500
	...
     184:	000000f8 	strdeq	r0, [r0], -r8
     188:	00000107 	andeq	r0, r0, r7, lsl #2
     18c:	07500001 	ldrbeq	r0, [r0, -r1]
     190:	0c000001 	stceq	0, cr0, [r0], {1}
     194:	04000001 	streq	r0, [r0], #-1
     198:	5001f300 	andpl	pc, r1, r0, lsl #6
     19c:	0000009f 	muleq	r0, pc, r0	; <UNPREDICTABLE>
     1a0:	00000000 	andeq	r0, r0, r0
     1a4:	0000f800 	andeq	pc, r0, r0, lsl #16
     1a8:	00010400 	andeq	r0, r1, r0, lsl #8
     1ac:	51000100 	mrspl	r0, (UNDEF: 16)
     1b0:	00000104 	andeq	r0, r0, r4, lsl #2
     1b4:	00000107 	andeq	r0, r0, r7, lsl #2
     1b8:	07520001 	ldrbeq	r0, [r2, -r1]
     1bc:	0c000001 	stceq	0, cr0, [r0], {1}
     1c0:	04000001 	streq	r0, [r0], #-1
     1c4:	5101f300 	mrspl	pc, SP_irq	; <UNPREDICTABLE>
     1c8:	0000009f 	muleq	r0, pc, r0	; <UNPREDICTABLE>
     1cc:	00000000 	andeq	r0, r0, r0
     1d0:	00010c00 	andeq	r0, r1, r0, lsl #24
     1d4:	00013f00 	andeq	r3, r1, r0, lsl #30
     1d8:	50000100 	andpl	r0, r0, r0, lsl #2
     1dc:	0000013f 	andeq	r0, r0, pc, lsr r1
     1e0:	00000154 	andeq	r0, r0, r4, asr r1
     1e4:	00540001 	subseq	r0, r4, r1
     1e8:	00000000 	andeq	r0, r0, r0
     1ec:	54000000 	strpl	r0, [r0], #-0
     1f0:	5f000001 	svcpl	0x00000001
     1f4:	01000001 	tsteq	r0, r1
     1f8:	015f5000 	cmpeq	pc, r0
     1fc:	01940000 	orrseq	r0, r4, r0
     200:	00010000 	andeq	r0, r1, r0
     204:	00000054 	andeq	r0, r0, r4, asr r0
     208:	00000000 	andeq	r0, r0, r0
     20c:	00019400 	andeq	r9, r1, r0, lsl #8
     210:	00019f00 	andeq	r9, r1, r0, lsl #30
     214:	50000100 	andpl	r0, r0, r0, lsl #2
     218:	0000019f 	muleq	r0, pc, r1	; <UNPREDICTABLE>
     21c:	00000208 	andeq	r0, r0, r8, lsl #4
     220:	00540001 	subseq	r0, r4, r1
     224:	00000000 	andeq	r0, r0, r0
     228:	c4000000 	strgt	r0, [r0], #-0
     22c:	f0000001 			; <UNDEFINED> instruction: 0xf0000001
     230:	01000001 	tsteq	r0, r1
     234:	02005400 	andeq	r5, r0, #0, 8
     238:	02080000 	andeq	r0, r8, #0
     23c:	00010000 	andeq	r0, r1, r0
     240:	00000054 	andeq	r0, r0, r4, asr r0
     244:	00000000 	andeq	r0, r0, r0
     248:	0001cc00 	andeq	ip, r1, r0, lsl #24
     24c:	0001f000 	andeq	pc, r1, r0
     250:	54000100 	strpl	r0, [r0], #-256	; 0x100
     254:	00000200 	andeq	r0, r0, r0, lsl #4
     258:	00000208 	andeq	r0, r0, r8, lsl #4
     25c:	00540001 	subseq	r0, r4, r1
     260:	00000000 	andeq	r0, r0, r0
     264:	08000000 	stmdaeq	r0, {}	; <UNPREDICTABLE>
     268:	1f000002 	svcne	0x00000002
     26c:	01000002 	tsteq	r0, r2
     270:	021f5000 	andseq	r5, pc, #0
     274:	02380000 	eorseq	r0, r8, #0
     278:	00010000 	andeq	r0, r1, r0
     27c:	00023854 	andeq	r3, r2, r4, asr r8
     280:	00023c00 	andeq	r3, r2, r0, lsl #24
     284:	50000100 	andpl	r0, r0, r0, lsl #2
     288:	0000023c 	andeq	r0, r0, ip, lsr r2
     28c:	00000288 	andeq	r0, r0, r8, lsl #5
     290:	00540001 	subseq	r0, r4, r1
     294:	00000000 	andeq	r0, r0, r0
     298:	08000000 	stmdaeq	r0, {}	; <UNPREDICTABLE>
     29c:	1f000002 	svcne	0x00000002
     2a0:	01000002 	tsteq	r0, r2
     2a4:	021f5100 	andseq	r5, pc, #0, 2
     2a8:	02380000 	eorseq	r0, r8, #0
     2ac:	00010000 	andeq	r0, r1, r0
     2b0:	00023855 	andeq	r3, r2, r5, asr r8
     2b4:	00024000 	andeq	r4, r2, r0
     2b8:	51000100 	mrspl	r0, (UNDEF: 16)
     2bc:	00000240 	andeq	r0, r0, r0, asr #4
     2c0:	00000258 	andeq	r0, r0, r8, asr r2
     2c4:	58550001 	ldmdapl	r5, {r0}^
     2c8:	88000002 	stmdahi	r0, {r1}
     2cc:	04000002 	streq	r0, [r0], #-2
     2d0:	5101f300 	mrspl	pc, SP_irq	; <UNPREDICTABLE>
     2d4:	0000009f 	muleq	r0, pc, r0	; <UNPREDICTABLE>
     2d8:	00000000 	andeq	r0, r0, r0
     2dc:	00028800 	andeq	r8, r2, r0, lsl #16
     2e0:	0002a000 	andeq	sl, r2, r0
     2e4:	50000100 	andpl	r0, r0, r0, lsl #2
     2e8:	000002a0 	andeq	r0, r0, r0, lsr #5
     2ec:	00000378 	andeq	r0, r0, r8, ror r3
     2f0:	00540001 	subseq	r0, r4, r1
     2f4:	00000000 	andeq	r0, r0, r0
     2f8:	88000000 	stmdahi	r0, {}	; <UNPREDICTABLE>
     2fc:	af000002 	svcge	0x00000002
     300:	01000002 	tsteq	r0, r2
     304:	02af5100 	adceq	r5, pc, #0, 2
     308:	02c80000 	sbceq	r0, r8, #0
     30c:	00010000 	andeq	r0, r1, r0
     310:	0002c858 	andeq	ip, r2, r8, asr r8
     314:	0002cf00 	andeq	ip, r2, r0, lsl #30
     318:	51000100 	mrspl	r0, (UNDEF: 16)
     31c:	000002cf 	andeq	r0, r0, pc, asr #5
     320:	00000378 	andeq	r0, r0, r8, ror r3
     324:	00580001 	subseq	r0, r8, r1
     328:	00000000 	andeq	r0, r0, r0
     32c:	88000000 	stmdahi	r0, {}	; <UNPREDICTABLE>
     330:	af000002 	svcge	0x00000002
     334:	01000002 	tsteq	r0, r2
     338:	02af5200 	adceq	r5, pc, #0, 4
     33c:	02c80000 	sbceq	r0, r8, #0
     340:	00010000 	andeq	r0, r1, r0
     344:	0002c857 	andeq	ip, r2, r7, asr r8
     348:	0002cf00 	andeq	ip, r2, r0, lsl #30
     34c:	52000100 	andpl	r0, r0, #0, 2
     350:	000002cf 	andeq	r0, r0, pc, asr #5
     354:	00000378 	andeq	r0, r0, r8, ror r3
     358:	00570001 	subseq	r0, r7, r1
     35c:	00000000 	andeq	r0, r0, r0
     360:	88000000 	stmdahi	r0, {}	; <UNPREDICTABLE>
     364:	af000002 	svcge	0x00000002
     368:	01000002 	tsteq	r0, r2
     36c:	02af5300 	adceq	r5, pc, #0, 6
     370:	02c80000 	sbceq	r0, r8, #0
     374:	00010000 	andeq	r0, r1, r0
     378:	0002c856 	andeq	ip, r2, r6, asr r8
     37c:	0002cf00 	andeq	ip, r2, r0, lsl #30
     380:	53000100 	movwpl	r0, #256	; 0x100
     384:	000002cf 	andeq	r0, r0, pc, asr #5
     388:	00000378 	andeq	r0, r0, r8, ror r3
     38c:	00560001 	subseq	r0, r6, r1
     390:	00000000 	andeq	r0, r0, r0
     394:	9c000000 	stcls	0, cr0, [r0], {-0}
     398:	e0000002 	and	r0, r0, r2
     39c:	02000002 	andeq	r0, r0, #2
     3a0:	009f3000 	addseq	r3, pc, r0
     3a4:	00000000 	andeq	r0, r0, r0
     3a8:	78000000 	stmdavc	r0, {}	; <UNPREDICTABLE>
     3ac:	a3000003 	movwge	r0, #3
     3b0:	01000003 	tsteq	r0, r3
     3b4:	03a35000 			; <UNDEFINED> instruction: 0x03a35000
     3b8:	03bc0000 			; <UNDEFINED> instruction: 0x03bc0000
     3bc:	00010000 	andeq	r0, r1, r0
     3c0:	0003bc55 	andeq	fp, r3, r5, asr ip
     3c4:	0003c000 	andeq	ip, r3, r0
     3c8:	50000100 	andpl	r0, r0, r0, lsl #2
     3cc:	000003c0 	andeq	r0, r0, r0, asr #7
     3d0:	0000056c 	andeq	r0, r0, ip, ror #10
     3d4:	6c550001 	mrrcvs	0, 0, r0, r5, cr1
     3d8:	a4000005 	strge	r0, [r0], #-5
     3dc:	04000005 	streq	r0, [r0], #-5
     3e0:	5001f300 	andpl	pc, r1, r0, lsl #6
     3e4:	0000009f 	muleq	r0, pc, r0	; <UNPREDICTABLE>
     3e8:	00000000 	andeq	r0, r0, r0
     3ec:	00037800 	andeq	r7, r3, r0, lsl #16
     3f0:	0003a300 	andeq	sl, r3, r0, lsl #6
     3f4:	51000100 	mrspl	r0, (UNDEF: 16)
     3f8:	000003a3 	andeq	r0, r0, r3, lsr #7
     3fc:	000003bc 			; <UNDEFINED> instruction: 0x000003bc
     400:	bc590001 	mrrclt	0, 0, r0, r9, cr1
     404:	c3000003 	movwgt	r0, #3
     408:	01000003 	tsteq	r0, r3
     40c:	03c35100 	biceq	r5, r3, #0, 2
     410:	056c0000 	strbeq	r0, [ip, #-0]!
     414:	00010000 	andeq	r0, r1, r0
     418:	00056c59 	andeq	r6, r5, r9, asr ip
     41c:	0005a400 	andeq	sl, r5, r0, lsl #8
     420:	f3000400 	vshl.u8	d0, d0, d0
     424:	009f5101 	addseq	r5, pc, r1, lsl #2
     428:	00000000 	andeq	r0, r0, r0
     42c:	78000000 	stmdavc	r0, {}	; <UNPREDICTABLE>
     430:	a3000003 	movwge	r0, #3
     434:	01000003 	tsteq	r0, r3
     438:	03a35200 			; <UNDEFINED> instruction: 0x03a35200
     43c:	03bc0000 			; <UNDEFINED> instruction: 0x03bc0000
     440:	00010000 	andeq	r0, r1, r0
     444:	0003bc58 	andeq	fp, r3, r8, asr ip
     448:	0003c300 	andeq	ip, r3, r0, lsl #6
     44c:	52000100 	andpl	r0, r0, #0, 2
     450:	000003c3 	andeq	r0, r0, r3, asr #7
     454:	0000056c 	andeq	r0, r0, ip, ror #10
     458:	6c580001 	mrrcvs	0, 0, r0, r8, cr1
     45c:	a4000005 	strge	r0, [r0], #-5
     460:	04000005 	streq	r0, [r0], #-5
     464:	5201f300 	andpl	pc, r1, #0, 6
     468:	0000009f 	muleq	r0, pc, r0	; <UNPREDICTABLE>
     46c:	00000000 	andeq	r0, r0, r0
     470:	00037800 	andeq	r7, r3, r0, lsl #16
     474:	00039400 	andeq	r9, r3, r0, lsl #8
     478:	53000100 	movwpl	r0, #256	; 0x100
     47c:	00000394 	muleq	r0, r4, r3
     480:	000004d8 	ldrdeq	r0, [r0], -r8
     484:	d8570001 	ldmdale	r7, {r0}^
     488:	a4000004 	strge	r0, [r0], #-4
     48c:	04000005 	streq	r0, [r0], #-5
     490:	5301f300 	movwpl	pc, #4864	; 0x1300	; <UNPREDICTABLE>
     494:	0000009f 	muleq	r0, pc, r0	; <UNPREDICTABLE>
     498:	00000000 	andeq	r0, r0, r0
     49c:	00039000 	andeq	r9, r3, r0
     4a0:	00048400 	andeq	r8, r4, r0, lsl #8
     4a4:	30000200 	andcc	r0, r0, r0, lsl #4
     4a8:	0004849f 	muleq	r4, pc, r4	; <UNPREDICTABLE>
     4ac:	00056c00 	andeq	r6, r5, r0, lsl #24
     4b0:	54000100 	strpl	r0, [r0], #-256	; 0x100
     4b4:	0000056c 	andeq	r0, r0, ip, ror #10
     4b8:	000005a4 	andeq	r0, r0, r4, lsr #11
     4bc:	c8700004 	ldmdagt	r0!, {r2}^
     4c0:	00009f7e 	andeq	r9, r0, lr, ror pc
     4c4:	00000000 	andeq	r0, r0, r0
     4c8:	03900000 	orrseq	r0, r0, #0
     4cc:	04d80000 	ldrbeq	r0, [r8], #0
     4d0:	00020000 	andeq	r0, r2, r0
     4d4:	00009f30 	andeq	r9, r0, r0, lsr pc
     4d8:	00000000 	andeq	r0, r0, r0
     4dc:	03d80000 	bicseq	r0, r8, #0
     4e0:	03eb0000 	mvneq	r0, #0
     4e4:	00010000 	andeq	r0, r1, r0
     4e8:	0003eb52 	andeq	lr, r3, r2, asr fp
     4ec:	00041800 	andeq	r1, r4, r0, lsl #16
     4f0:	76000400 	strvc	r0, [r0], -r0, lsl #8
     4f4:	189f7dc8 	ldmne	pc, {r3, r6, r7, r8, sl, fp, ip, sp, lr}	; <UNPREDICTABLE>
     4f8:	37000004 	strcc	r0, [r0, -r4]
     4fc:	01000004 	tsteq	r0, r4
     500:	04375200 	ldrteq	r5, [r7], #-512	; 0x200
     504:	04840000 	streq	r0, [r4], #0
     508:	00040000 	andeq	r0, r4, r0
     50c:	9f7dc876 	svcls	0x007dc876
     510:	00000484 	andeq	r0, r0, r4, lsl #9
     514:	000004a4 	andeq	r0, r0, r4, lsr #9
     518:	a4520001 	ldrbge	r0, [r2], #-1
     51c:	6c000004 	stcvs	0, cr0, [r0], {4}
     520:	04000005 	streq	r0, [r0], #-5
     524:	7dc87600 	stclvc	6, cr7, [r8]
     528:	00056c9f 	muleq	r5, pc, ip	; <UNPREDICTABLE>
     52c:	0005a400 	andeq	sl, r5, r0, lsl #8
     530:	f3000900 	vmls.i8	d0, d0, d0
     534:	07235001 	streq	r5, [r3, -r1]!
     538:	9f1af809 	svcls	0x001af809
	...
     544:	000003dc 	ldrdeq	r0, [r0], -ip
     548:	0000056c 	andeq	r0, r0, ip, ror #10
     54c:	6c560001 	mrrcvs	0, 0, r0, r6, cr1
     550:	a4000005 	strge	r0, [r0], #-5
     554:	0c000005 	stceq	0, cr0, [r0], {5}
     558:	5001f300 	andpl	pc, r1, r0, lsl #6
     55c:	f8090723 			; <UNDEFINED> instruction: 0xf8090723
     560:	02b8231a 	adcseq	r2, r8, #1744830464	; 0x68000000
     564:	0000009f 	muleq	r0, pc, r0	; <UNPREDICTABLE>
     568:	00000000 	andeq	r0, r0, r0
     56c:	0004d800 	andeq	sp, r4, r0, lsl #16
     570:	00056c00 	andeq	r6, r5, r0, lsl #24
     574:	54000100 	strpl	r0, [r0], #-256	; 0x100
     578:	0000056c 	andeq	r0, r0, ip, ror #10
     57c:	000005a4 	andeq	r0, r0, r4, lsr #11
     580:	c8700004 	ldmdagt	r0!, {r2}^
     584:	00009f7e 	andeq	r9, r0, lr, ror pc
     588:	00000000 	andeq	r0, r0, r0
     58c:	04dc0000 	ldrbeq	r0, [ip], #0
     590:	056c0000 	strbeq	r0, [ip, #-0]!
     594:	00010000 	andeq	r0, r1, r0
     598:	00056c54 	andeq	r6, r5, r4, asr ip
     59c:	0005a400 	andeq	sl, r5, r0, lsl #8
     5a0:	70000400 	andvc	r0, r0, r0, lsl #8
     5a4:	009f7ec8 	addseq	r7, pc, r8, asr #29
     5a8:	00000000 	andeq	r0, r0, r0
     5ac:	a4000000 	strge	r0, [r0], #-0
     5b0:	bc000005 	stclt	0, cr0, [r0], {5}
     5b4:	01000005 	tsteq	r0, r5
     5b8:	05bc5000 	ldreq	r5, [ip, #0]!
     5bc:	05c70000 	strbeq	r0, [r7]
     5c0:	00010000 	andeq	r0, r1, r0
     5c4:	0005c753 	andeq	ip, r5, r3, asr r7
     5c8:	0005cc00 	andeq	ip, r5, r0, lsl #24
     5cc:	f3000400 	vshl.u8	d0, d0, d0
     5d0:	cc9f5001 	ldcgt	0, cr5, [pc], {1}
     5d4:	d0000005 	andle	r0, r0, r5
     5d8:	01000005 	tsteq	r0, r5
     5dc:	05d05000 	ldrbeq	r5, [r0]
     5e0:	05d40000 	ldrbeq	r0, [r4]
     5e4:	00010000 	andeq	r0, r1, r0
     5e8:	00000053 	andeq	r0, r0, r3, asr r0
     5ec:	00000000 	andeq	r0, r0, r0
     5f0:	0005e800 	andeq	lr, r5, r0, lsl #16
     5f4:	00061400 	andeq	r1, r6, r0, lsl #8
     5f8:	56000100 	strpl	r0, [r0], -r0, lsl #2
	...
     604:	000005f0 	strdeq	r0, [r0], -r0	; <UNPREDICTABLE>
     608:	00000610 	andeq	r0, r0, r0, lsl r6
     60c:	00550001 	subseq	r0, r5, r1
     610:	00000000 	andeq	r0, r0, r0
     614:	08000000 	stmdaeq	r0, {}	; <UNPREDICTABLE>
     618:	28000006 	stmdacs	r0, {r1, r2}
     61c:	02000006 	andeq	r0, r0, #6
     620:	289f3000 	ldmcs	pc, {ip, sp}	; <UNPREDICTABLE>
     624:	0c000006 	stceq	0, cr0, [r0], {6}
     628:	01000007 	tsteq	r0, r7
     62c:	00005600 	andeq	r5, r0, r0, lsl #12
     630:	00000000 	andeq	r0, r0, r0
     634:	06080000 	streq	r0, [r8], -r0
     638:	06280000 	strteq	r0, [r8], -r0
     63c:	00020000 	andeq	r0, r2, r0
     640:	06289f30 	qasxeq	r9, r8, r0
     644:	070c0000 	streq	r0, [ip, -r0]
     648:	00010000 	andeq	r0, r1, r0
     64c:	00000055 	andeq	r0, r0, r5, asr r0
     650:	00000000 	andeq	r0, r0, r0
     654:	00062800 	andeq	r2, r6, r0, lsl #16
     658:	0006a000 	andeq	sl, r6, r0
     65c:	54000100 	strpl	r0, [r0], #-256	; 0x100
	...
     668:	0000072c 	andeq	r0, r0, ip, lsr #14
     66c:	00000758 	andeq	r0, r0, r8, asr r7
     670:	58500001 	ldmdapl	r0, {r0}^
     674:	64000007 	strvs	r0, [r0], #-7
     678:	04000007 	streq	r0, [r0], #-7
     67c:	5001f300 	andpl	pc, r1, r0, lsl #6
     680:	0007649f 	muleq	r7, pc, r4	; <UNPREDICTABLE>
     684:	00076800 	andeq	r6, r7, r0, lsl #16
     688:	50000100 	andpl	r0, r0, r0, lsl #2
     68c:	00000768 	andeq	r0, r0, r8, ror #14
     690:	00000770 	andeq	r0, r0, r0, ror r7
     694:	01f30004 	mvnseq	r0, r4
     698:	00009f50 	andeq	r9, r0, r0, asr pc
     69c:	00000000 	andeq	r0, r0, r0
     6a0:	07300000 	ldreq	r0, [r0, -r0]!
     6a4:	073c0000 	ldreq	r0, [ip, -r0]!
     6a8:	00020000 	andeq	r0, r2, r0
     6ac:	073c9f30 			; <UNDEFINED> instruction: 0x073c9f30
     6b0:	07440000 	strbeq	r0, [r4, -r0]
     6b4:	00010000 	andeq	r0, r1, r0
     6b8:	00074454 	andeq	r4, r7, r4, asr r4
     6bc:	00075800 	andeq	r5, r7, r0, lsl #16
     6c0:	70000c00 	andvc	r0, r0, r0, lsl #24
     6c4:	07230600 	streq	r0, [r3, -r0, lsl #12]!
     6c8:	231af809 	tstcs	sl, #589824	; 0x90000
     6cc:	589f02b8 	ldmpl	pc, {r3, r4, r5, r7, r9}	; <UNPREDICTABLE>
     6d0:	5b000007 	blpl	6f4 <_start-0x790c>
     6d4:	0d000007 	stceq	0, cr0, [r0, #-28]	; 0xffffffe4
     6d8:	5001f300 	andpl	pc, r1, r0, lsl #6
     6dc:	09072306 	stmdbeq	r7, {r1, r2, r8, r9, sp}
     6e0:	b8231af8 	stmdalt	r3!, {r3, r4, r5, r6, r7, r9, fp, ip}
     6e4:	07649f02 	strbeq	r9, [r4, -r2, lsl #30]!
     6e8:	07680000 	strbeq	r0, [r8, -r0]!
     6ec:	000c0000 	andeq	r0, ip, r0
     6f0:	23060070 	movwcs	r0, #24688	; 0x6070
     6f4:	1af80907 	bne	ffe02b18 <__bss_end__+0xffdf8020>
     6f8:	9f02b823 	svcls	0x0002b823
     6fc:	00000768 	andeq	r0, r0, r8, ror #14
     700:	00000770 	andeq	r0, r0, r0, ror r7
     704:	01f3000d 	mvnseq	r0, sp
     708:	07230650 			; <UNDEFINED> instruction: 0x07230650
     70c:	231af809 	tstcs	sl, #589824	; 0x90000
     710:	009f02b8 			; <UNDEFINED> instruction: 0x009f02b8
	...
     71c:	24000000 	strcs	r0, [r0], #-0
     720:	01000000 	mrseq	r0, (UNDEF: 0)
     724:	00245000 	eoreq	r5, r4, r0
     728:	00280000 	eoreq	r0, r8, r0
     72c:	00040000 	andeq	r0, r4, r0
     730:	9f5001f3 	svcls	0x005001f3
     734:	00000028 	andeq	r0, r0, r8, lsr #32
     738:	0000002c 	andeq	r0, r0, ip, lsr #32
     73c:	2c500001 	mrrccs	0, 0, r0, r0, cr1	; <UNPREDICTABLE>
     740:	30000000 	andcc	r0, r0, r0
     744:	04000000 	streq	r0, [r0], #-0
     748:	5001f300 	andpl	pc, r1, r0, lsl #6
     74c:	0000309f 	muleq	r0, pc, r0	; <UNPREDICTABLE>
     750:	00003400 	andeq	r3, r0, r0, lsl #8
     754:	50000100 	andpl	r0, r0, r0, lsl #2
     758:	00000034 	andeq	r0, r0, r4, lsr r0
     75c:	0000003c 	andeq	r0, r0, ip, lsr r0
     760:	01f30004 	mvnseq	r0, r4
     764:	00009f50 	andeq	r9, r0, r0, asr pc
     768:	00000000 	andeq	r0, r0, r0
     76c:	003c0000 	eorseq	r0, ip, r0
     770:	00470000 	subeq	r0, r7, r0
     774:	00010000 	andeq	r0, r1, r0
     778:	00004750 	andeq	r4, r0, r0, asr r7
     77c:	0000b400 	andeq	fp, r0, r0, lsl #8
     780:	54000100 	strpl	r0, [r0], #-256	; 0x100
	...
     78c:	00000044 	andeq	r0, r0, r4, asr #32
     790:	00000047 	andeq	r0, r0, r7, asr #32
     794:	47500001 	ldrbmi	r0, [r0, -r1]
     798:	b4000000 	strlt	r0, [r0], #-0
     79c:	01000000 	mrseq	r0, (UNDEF: 0)
     7a0:	00005400 	andeq	r5, r0, r0, lsl #8
     7a4:	00000000 	andeq	r0, r0, r0
     7a8:	00540000 	subseq	r0, r4, r0
     7ac:	009f0000 	addseq	r0, pc, r0
     7b0:	00010000 	andeq	r0, r1, r0
     7b4:	0000a050 	andeq	sl, r0, r0, asr r0
     7b8:	0000ac00 	andeq	sl, r0, r0, lsl #24
     7bc:	50000100 	andpl	r0, r0, r0, lsl #2
	...
     7c8:	000000b4 	strheq	r0, [r0], -r4
     7cc:	000000c0 	andeq	r0, r0, r0, asr #1
     7d0:	c0500001 	subsgt	r0, r0, r1
     7d4:	e8000000 	stmda	r0, {}	; <UNPREDICTABLE>
     7d8:	01000001 	tsteq	r0, r1
     7dc:	00005900 	andeq	r5, r0, r0, lsl #18
     7e0:	00000000 	andeq	r0, r0, r0
     7e4:	00bc0000 	adcseq	r0, ip, r0
     7e8:	00f00000 	rscseq	r0, r0, r0
     7ec:	00020000 	andeq	r0, r2, r0
     7f0:	00f09f30 	rscseq	r9, r0, r0, lsr pc
     7f4:	01e80000 	mvneq	r0, r0
     7f8:	00010000 	andeq	r0, r1, r0
     7fc:	00000055 	andeq	r0, r0, r5, asr r0
     800:	00000000 	andeq	r0, r0, r0
     804:	0000bc00 	andeq	fp, r0, r0, lsl #24
     808:	0000f000 	andeq	pc, r0, r0
     80c:	30000200 	andcc	r0, r0, r0, lsl #4
     810:	0000f09f 	muleq	r0, pc, r0	; <UNPREDICTABLE>
     814:	0001e800 	andeq	lr, r1, r0, lsl #16
     818:	57000100 	strpl	r0, [r0, -r0, lsl #2]
	...
     824:	000000bc 	strheq	r0, [r0], -ip
     828:	000000f0 	strdeq	r0, [r0], -r0	; <UNPREDICTABLE>
     82c:	9f300002 	svcls	0x00300002
     830:	000000f0 	strdeq	r0, [r0], -r0	; <UNPREDICTABLE>
     834:	000001e8 	andeq	r0, r0, r8, ror #3
     838:	00560001 	subseq	r0, r6, r1
     83c:	00000000 	andeq	r0, r0, r0
     840:	d4000000 	strle	r0, [r0], #-0
     844:	0c000000 	stceq	0, cr0, [r0], {-0}
     848:	01000001 	tsteq	r0, r1
     84c:	010c5000 	mrseq	r5, (UNDEF: 12)
     850:	01240000 	teqeq	r4, r0
     854:	00010000 	andeq	r0, r1, r0
     858:	00012454 	andeq	r2, r1, r4, asr r4
     85c:	00014000 	andeq	r4, r1, r0
     860:	50000100 	andpl	r0, r0, r0, lsl #2
     864:	00000140 	andeq	r0, r0, r0, asr #2
     868:	00000164 	andeq	r0, r0, r4, ror #2
     86c:	64540001 	ldrbvs	r0, [r4], #-1
     870:	70000001 	andvc	r0, r0, r1
     874:	01000001 	tsteq	r0, r1
     878:	01705000 	cmneq	r0, r0
     87c:	01e80000 	mvneq	r0, r0
     880:	00010000 	andeq	r0, r1, r0
     884:	00000054 	andeq	r0, r0, r4, asr r0
     888:	00000000 	andeq	r0, r0, r0
     88c:	0001e800 	andeq	lr, r1, r0, lsl #16
     890:	0001ff00 	andeq	pc, r1, r0, lsl #30
     894:	50000100 	andpl	r0, r0, r0, lsl #2
     898:	000001ff 	strdeq	r0, [r0], -pc	; <UNPREDICTABLE>
     89c:	00000218 	andeq	r0, r0, r8, lsl r2
     8a0:	18540001 	ldmdane	r4, {r0}^
     8a4:	23000002 	movwcs	r0, #2
     8a8:	01000002 	tsteq	r0, r2
     8ac:	02235000 	eoreq	r5, r3, #0
     8b0:	023c0000 	eorseq	r0, ip, #0
     8b4:	00010000 	andeq	r0, r1, r0
     8b8:	00023c54 	andeq	r3, r2, r4, asr ip
     8bc:	00024700 	andeq	r4, r2, r0, lsl #14
     8c0:	50000100 	andpl	r0, r0, r0, lsl #2
     8c4:	00000247 	andeq	r0, r0, r7, asr #4
     8c8:	00000260 	andeq	r0, r0, r0, ror #4
     8cc:	60540001 	subsvs	r0, r4, r1
     8d0:	bc000002 	stclt	0, cr0, [r0], {2}
     8d4:	04000002 	streq	r0, [r0], #-2
     8d8:	5001f300 	andpl	pc, r1, r0, lsl #6
     8dc:	0002bc9f 	muleq	r2, pc, ip	; <UNPREDICTABLE>
     8e0:	0002c000 	andeq	ip, r2, r0
     8e4:	50000100 	andpl	r0, r0, r0, lsl #2
     8e8:	000002c0 	andeq	r0, r0, r0, asr #5
     8ec:	000002e0 	andeq	r0, r0, r0, ror #5
     8f0:	01f30004 	mvnseq	r0, r4
     8f4:	00009f50 	andeq	r9, r0, r0, asr pc
     8f8:	00000000 	andeq	r0, r0, r0
     8fc:	01e80000 	mvneq	r0, r0
     900:	01ff0000 	mvnseq	r0, r0
     904:	00010000 	andeq	r0, r1, r0
     908:	0001ff51 	andeq	pc, r1, r1, asr pc	; <UNPREDICTABLE>
     90c:	00021800 	andeq	r1, r2, r0, lsl #16
     910:	55000100 	strpl	r0, [r0, #-256]	; 0x100
     914:	00000218 	andeq	r0, r0, r8, lsl r2
     918:	00000223 	andeq	r0, r0, r3, lsr #4
     91c:	23510001 	cmpcs	r1, #1
     920:	3c000002 	stccc	0, cr0, [r0], {2}
     924:	01000002 	tsteq	r0, r2
     928:	023c5500 	eorseq	r5, ip, #0, 10
     92c:	02470000 	subeq	r0, r7, #0
     930:	00010000 	andeq	r0, r1, r0
     934:	00024751 	andeq	r4, r2, r1, asr r7
     938:	0002bc00 	andeq	fp, r2, r0, lsl #24
     93c:	55000100 	strpl	r0, [r0, #-256]	; 0x100
     940:	000002bc 			; <UNDEFINED> instruction: 0x000002bc
     944:	000002c0 	andeq	r0, r0, r0, asr #5
     948:	c0510001 	subsgt	r0, r1, r1
     94c:	e0000002 	and	r0, r0, r2
     950:	01000002 	tsteq	r0, r2
     954:	00005500 	andeq	r5, r0, r0, lsl #10
     958:	00000000 	andeq	r0, r0, r0
     95c:	02600000 	rsbeq	r0, r0, #0
     960:	02bc0000 	adcseq	r0, ip, #0
     964:	00010000 	andeq	r0, r1, r0
     968:	0002c054 	andeq	ip, r2, r4, asr r0
     96c:	0002e000 	andeq	lr, r2, r0
     970:	54000100 	strpl	r0, [r0], #-256	; 0x100
	...
     97c:	00000268 	andeq	r0, r0, r8, ror #4
     980:	00000274 	andeq	r0, r0, r4, ror r2
     984:	74500001 	ldrbvc	r0, [r0], #-1
     988:	b3000002 	movwlt	r0, #2
     98c:	01000002 	tsteq	r0, r2
     990:	00005300 	andeq	r5, r0, r0, lsl #6
     994:	00000000 	andeq	r0, r0, r0
     998:	02ec0000 	rsceq	r0, ip, #0
     99c:	03030000 	movweq	r0, #12288	; 0x3000
     9a0:	00010000 	andeq	r0, r1, r0
     9a4:	00030450 	andeq	r0, r3, r0, asr r4
     9a8:	00031400 	andeq	r1, r3, r0, lsl #8
     9ac:	50000100 	andpl	r0, r0, r0, lsl #2
	...
     9b8:	00000358 	andeq	r0, r0, r8, asr r3
     9bc:	0000036c 	andeq	r0, r0, ip, ror #6
     9c0:	74530001 	ldrbvc	r0, [r3], #-1
     9c4:	87000003 	strhi	r0, [r0, -r3]
     9c8:	01000003 	tsteq	r0, r3
     9cc:	00005300 	andeq	r5, r0, r0, lsl #6
     9d0:	00000000 	andeq	r0, r0, r0
     9d4:	03dc0000 	bicseq	r0, ip, #0
     9d8:	04100000 	ldreq	r0, [r0], #-0
     9dc:	00020000 	andeq	r0, r2, r0
     9e0:	04109f30 	ldreq	r9, [r0], #-3888	; 0xf30
     9e4:	04cc0000 	strbeq	r0, [ip], #0
     9e8:	00010000 	andeq	r0, r1, r0
     9ec:	00000055 	andeq	r0, r0, r5, asr r0
     9f0:	00000000 	andeq	r0, r0, r0
     9f4:	0003dc00 	andeq	sp, r3, r0, lsl #24
     9f8:	00041000 	andeq	r1, r4, r0
     9fc:	30000200 	andcc	r0, r0, r0, lsl #4
     a00:	0004109f 	muleq	r4, pc, r0	; <UNPREDICTABLE>
     a04:	0004cc00 	andeq	ip, r4, r0, lsl #24
     a08:	58000100 	stmdapl	r0, {r8}
	...
     a14:	000003dc 	ldrdeq	r0, [r0], -ip
     a18:	00000410 	andeq	r0, r0, r0, lsl r4
     a1c:	9f300002 	svcls	0x00300002
     a20:	00000410 	andeq	r0, r0, r0, lsl r4
     a24:	000004cc 	andeq	r0, r0, ip, asr #9
     a28:	cc560001 	mrrcgt	0, 0, r0, r6, cr1
     a2c:	f4000004 	vst4.8	{d0-d3}, [r0], r4
     a30:	01000004 	tsteq	r0, r4
     a34:	00005000 	andeq	r5, r0, r0
     a38:	00000000 	andeq	r0, r0, r0
     a3c:	03f40000 	mvnseq	r0, #0
     a40:	043c0000 	ldrteq	r0, [ip], #-0
     a44:	00010000 	andeq	r0, r1, r0
     a48:	00043c50 	andeq	r3, r4, r0, asr ip
     a4c:	00047000 	andeq	r7, r4, r0
     a50:	54000100 	strpl	r0, [r0], #-256	; 0x100
     a54:	00000470 	andeq	r0, r0, r0, ror r4
     a58:	00000480 	andeq	r0, r0, r0, lsl #9
     a5c:	00500001 	subseq	r0, r0, r1
     a60:	00000000 	andeq	r0, r0, r0
     a64:	f4000000 	vst4.8	{d0-d3}, [r0], r0
     a68:	ff000004 			; <UNDEFINED> instruction: 0xff000004
     a6c:	01000004 	tsteq	r0, r4
     a70:	04ff5000 	ldrbteq	r5, [pc], #0	; a78 <_start-0x7588>
     a74:	050c0000 	streq	r0, [ip, #-0]
     a78:	00010000 	andeq	r0, r1, r0
     a7c:	00000054 	andeq	r0, r0, r4, asr r0
     a80:	00000000 	andeq	r0, r0, r0
     a84:	0005f000 	andeq	pc, r5, r0
     a88:	0005fb00 	andeq	pc, r5, r0, lsl #22
     a8c:	50000100 	andpl	r0, r0, r0, lsl #2
     a90:	000005fb 	strdeq	r0, [r0], -fp
     a94:	00000614 	andeq	r0, r0, r4, lsl r6
     a98:	14540001 	ldrbne	r0, [r4], #-1
     a9c:	18000006 	stmdane	r0, {r1, r2}
     aa0:	01000006 	tsteq	r0, r6
     aa4:	06185000 	ldreq	r5, [r8], -r0
     aa8:	06500000 	ldrbeq	r0, [r0], -r0
     aac:	00010000 	andeq	r0, r1, r0
     ab0:	00000054 	andeq	r0, r0, r4, asr r0
	...
     abc:	00002400 	andeq	r2, r0, r0, lsl #8
     ac0:	50000100 	andpl	r0, r0, r0, lsl #2
     ac4:	00000024 	andeq	r0, r0, r4, lsr #32
     ac8:	000000e4 	andeq	r0, r0, r4, ror #1
     acc:	01f30004 	mvnseq	r0, r4
     ad0:	00e49f50 	rsceq	r9, r4, r0, asr pc
     ad4:	00e80000 	rsceq	r0, r8, r0
     ad8:	00010000 	andeq	r0, r1, r0
     adc:	0000e850 	andeq	lr, r0, r0, asr r8
     ae0:	0000f000 	andeq	pc, r0, r0
     ae4:	f3000400 	vshl.u8	d0, d0, d0
     ae8:	009f5001 	addseq	r5, pc, r1
	...
     af4:	20000000 	andcs	r0, r0, r0
     af8:	01000000 	mrseq	r0, (UNDEF: 0)
     afc:	00205100 	eoreq	r5, r0, r0, lsl #2
     b00:	00800000 	addeq	r0, r0, r0
     b04:	00010000 	andeq	r0, r1, r0
     b08:	00009c51 	andeq	r9, r0, r1, asr ip
     b0c:	0000a000 	andeq	sl, r0, r0
     b10:	51000100 	mrspl	r0, (UNDEF: 16)
     b14:	000000b8 	strheq	r0, [r0], -r8
     b18:	000000c8 	andeq	r0, r0, r8, asr #1
     b1c:	e4510001 	ldrb	r0, [r1], #-1
     b20:	e8000000 	stmda	r0, {}	; <UNPREDICTABLE>
     b24:	01000000 	mrseq	r0, (UNDEF: 0)
     b28:	00005100 	andeq	r5, r0, r0, lsl #2
     b2c:	00000000 	andeq	r0, r0, r0
     b30:	00040000 	andeq	r0, r4, r0
     b34:	00240000 	eoreq	r0, r4, r0
     b38:	00010000 	andeq	r0, r1, r0
     b3c:	00002450 	andeq	r2, r0, r0, asr r4
     b40:	00009000 	andeq	r9, r0, r0
     b44:	53000100 	movwpl	r0, #256	; 0x100
     b48:	0000009c 	muleq	r0, ip, r0
     b4c:	000000a4 	andeq	r0, r0, r4, lsr #1
     b50:	b8530001 	ldmdalt	r3, {r0}^
     b54:	bc000000 	stclt	0, cr0, [r0], {-0}
     b58:	01000000 	mrseq	r0, (UNDEF: 0)
     b5c:	00e45300 	rsceq	r5, r4, r0, lsl #6
     b60:	00e80000 	rsceq	r0, r8, r0
     b64:	00010000 	andeq	r0, r1, r0
     b68:	00000050 	andeq	r0, r0, r0, asr r0
     b6c:	00000000 	andeq	r0, r0, r0
     b70:	00000800 	andeq	r0, r0, r0, lsl #16
     b74:	00002000 	andeq	r2, r0, r0
     b78:	51000100 	mrspl	r0, (UNDEF: 16)
     b7c:	00000020 	andeq	r0, r0, r0, lsr #32
     b80:	00000034 	andeq	r0, r0, r4, lsr r0
     b84:	34520001 	ldrbcc	r0, [r2], #-1
     b88:	48000000 	stmdami	r0, {}	; <UNPREDICTABLE>
     b8c:	01000000 	mrseq	r0, (UNDEF: 0)
     b90:	00485000 	subeq	r5, r8, r0
     b94:	00cc0000 	sbceq	r0, ip, r0
     b98:	00010000 	andeq	r0, r1, r0
     b9c:	0000cc52 	andeq	ip, r0, r2, asr ip
     ba0:	0000e000 	andeq	lr, r0, r0
     ba4:	50000100 	andpl	r0, r0, r0, lsl #2
     ba8:	000000e4 	andeq	r0, r0, r4, ror #1
     bac:	000000e8 	andeq	r0, r0, r8, ror #1
     bb0:	00510001 	subseq	r0, r1, r1
     bb4:	00000000 	andeq	r0, r0, r0
     bb8:	44000000 	strmi	r0, [r0], #-0
     bbc:	48000000 	stmdami	r0, {}	; <UNPREDICTABLE>
     bc0:	01000000 	mrseq	r0, (UNDEF: 0)
     bc4:	00485200 	subeq	r5, r8, r0, lsl #4
     bc8:	004c0000 	subeq	r0, ip, r0
     bcc:	00120000 	andseq	r0, r2, r0
     bd0:	2438007c 	ldrtcs	r0, [r8], #-124	; 0x7c
     bd4:	01940273 	orrseq	r0, r4, r3, ror r2
     bd8:	221aff08 	andscs	pc, sl, #8, 30
     bdc:	0070243b 	rsbseq	r2, r0, fp, lsr r4
     be0:	004c9f27 	subeq	r9, ip, r7, lsr #30
     be4:	00540000 	subseq	r0, r4, r0
     be8:	00120000 	andseq	r0, r2, r0
     bec:	2438007c 	ldrtcs	r0, [r8], #-124	; 0x7c
     bf0:	01947e73 	orrseq	r7, r4, r3, ror lr
     bf4:	221aff08 	andscs	pc, sl, #8, 30
     bf8:	0070243b 	rsbseq	r2, r0, fp, lsr r4
     bfc:	00009f27 	andeq	r9, r0, r7, lsr #30
     c00:	00000000 	andeq	r0, r0, r0
     c04:	001c0000 	andseq	r0, ip, r0
     c08:	00e40000 	rsceq	r0, r4, r0
     c0c:	00010000 	andeq	r0, r1, r0
     c10:	00000054 	andeq	r0, r0, r4, asr r0
	...
     c1c:	00000400 	andeq	r0, r0, r0, lsl #8
     c20:	52000100 	andpl	r0, r0, #0, 2
     c24:	00000004 	andeq	r0, r0, r4
     c28:	00000020 	andeq	r0, r0, r0, lsr #32
     c2c:	01f30004 	mvnseq	r0, r4
     c30:	00009f52 	andeq	r9, r0, r2, asr pc
	...
     c3c:	000c0000 	andeq	r0, ip, r0
     c40:	00010000 	andeq	r0, r1, r0
     c44:	00000c50 	andeq	r0, r0, r0, asr ip
     c48:	00001400 	andeq	r1, r0, r0, lsl #8
     c4c:	73000300 	movwvc	r0, #768	; 0x300
     c50:	00149f01 	andseq	r9, r4, r1, lsl #30
     c54:	00200000 	eoreq	r0, r0, r0
     c58:	00010000 	andeq	r0, r1, r0
     c5c:	00000053 	andeq	r0, r0, r3, asr r0
     c60:	00000000 	andeq	r0, r0, r0
     c64:	00002c00 	andeq	r2, r0, r0, lsl #24
     c68:	00003800 	andeq	r3, r0, r0, lsl #16
     c6c:	50000100 	andpl	r0, r0, r0, lsl #2
     c70:	00000038 	andeq	r0, r0, r8, lsr r0
     c74:	00000048 	andeq	r0, r0, r8, asr #32
     c78:	48550001 	ldmdami	r5, {r0}^
     c7c:	58000000 	stmdapl	r0, {}	; <UNPREDICTABLE>
     c80:	01000000 	mrseq	r0, (UNDEF: 0)
     c84:	00005000 	andeq	r5, r0, r0
	...
     c90:	000b0000 	andeq	r0, fp, r0
     c94:	00010000 	andeq	r0, r1, r0
     c98:	00000b50 	andeq	r0, r0, r0, asr fp
     c9c:	00001400 	andeq	r1, r0, r0, lsl #8
     ca0:	54000100 	strpl	r0, [r0], #-256	; 0x100
	...
     cb0:	00000010 	andeq	r0, r0, r0, lsl r0
     cb4:	10500001 	subsne	r0, r0, r1
     cb8:	34000000 	strcc	r0, [r0], #-0
     cbc:	01000000 	mrseq	r0, (UNDEF: 0)
     cc0:	00005400 	andeq	r5, r0, r0, lsl #8
	...
     ccc:	00040000 	andeq	r0, r4, r0
     cd0:	00010000 	andeq	r0, r1, r0
     cd4:	00000450 	andeq	r0, r0, r0, asr r4
     cd8:	00000c00 	andeq	r0, r0, r0, lsl #24
     cdc:	70000300 	andvc	r0, r0, r0, lsl #6
     ce0:	000c9f30 	andeq	r9, ip, r0, lsr pc
     ce4:	00140000 	andseq	r0, r4, r0
     ce8:	00040000 	andeq	r0, r4, r0
     cec:	9f5001f3 	svcls	0x005001f3
	...
     cf8:	00000014 	andeq	r0, r0, r4, lsl r0
     cfc:	00000020 	andeq	r0, r0, r0, lsr #32
     d00:	20500001 	subscs	r0, r0, r1
     d04:	2c000000 	stccs	0, cr0, [r0], {-0}
     d08:	03000000 	movweq	r0, #0
     d0c:	9f017000 	svcls	0x00017000
     d10:	0000002c 	andeq	r0, r0, ip, lsr #32
     d14:	00000040 	andeq	r0, r0, r0, asr #32
     d18:	00500001 	subseq	r0, r0, r1
     d1c:	00000000 	andeq	r0, r0, r0
     d20:	14000000 	strne	r0, [r0], #-0
     d24:	18000000 	stmdane	r0, {}	; <UNPREDICTABLE>
     d28:	01000000 	mrseq	r0, (UNDEF: 0)
     d2c:	00185100 	andseq	r5, r8, r0, lsl #2
     d30:	00400000 	subeq	r0, r0, r0
     d34:	00040000 	andeq	r0, r4, r0
     d38:	9f5101f3 	svcls	0x005101f3
	...
     d44:	00000040 	andeq	r0, r0, r0, asr #32
     d48:	00000060 	andeq	r0, r0, r0, rrx
     d4c:	60500001 	subsvs	r0, r0, r1
     d50:	6c000000 	stcvs	0, cr0, [r0], {-0}
     d54:	03000000 	movweq	r0, #0
     d58:	9f017100 	svcls	0x00017100
     d5c:	0000006c 	andeq	r0, r0, ip, rrx
     d60:	00000074 	andeq	r0, r0, r4, ror r0
     d64:	74510001 	ldrbvc	r0, [r1], #-1
     d68:	80000000 	andhi	r0, r0, r0
     d6c:	03000000 	movweq	r0, #0
     d70:	9f017100 	svcls	0x00017100
	...
     d7c:	00000040 	andeq	r0, r0, r0, asr #32
     d80:	00000050 	andeq	r0, r0, r0, asr r0
     d84:	50510001 	subspl	r0, r1, r1
     d88:	80000000 	andhi	r0, r0, r0
     d8c:	04000000 	streq	r0, [r0], #-0
     d90:	5101f300 	mrspl	pc, SP_irq	; <UNPREDICTABLE>
     d94:	0000009f 	muleq	r0, pc, r0	; <UNPREDICTABLE>
     d98:	00000000 	andeq	r0, r0, r0
     d9c:	00004000 	andeq	r4, r0, r0
     da0:	00005800 	andeq	r5, r0, r0, lsl #16
     da4:	52000100 	andpl	r0, r0, #0, 2
     da8:	00000058 	andeq	r0, r0, r8, asr r0
     dac:	00000064 	andeq	r0, r0, r4, rrx
     db0:	64520001 	ldrbvs	r0, [r2], #-1
     db4:	68000000 	stmdavs	r0, {}	; <UNPREDICTABLE>
     db8:	03000000 	movweq	r0, #0
     dbc:	9f017200 	svcls	0x00017200
     dc0:	00000068 	andeq	r0, r0, r8, rrx
     dc4:	00000080 	andeq	r0, r0, r0, lsl #1
     dc8:	00520001 	subseq	r0, r2, r1
     dcc:	00000000 	andeq	r0, r0, r0
     dd0:	40000000 	andmi	r0, r0, r0
     dd4:	54000000 	strpl	r0, [r0], #-0
     dd8:	01000000 	mrseq	r0, (UNDEF: 0)
     ddc:	00545300 	subseq	r5, r4, r0, lsl #6
     de0:	00780000 	rsbseq	r0, r8, r0
     de4:	00010000 	andeq	r0, r1, r0
     de8:	00000053 	andeq	r0, r0, r3, asr r0
     dec:	00000000 	andeq	r0, r0, r0
     df0:	00004800 	andeq	r4, r0, r0, lsl #16
     df4:	00006000 	andeq	r6, r0, r0
     df8:	5c000100 	stfpls	f0, [r0], {-0}
     dfc:	00000060 	andeq	r0, r0, r0, rrx
     e00:	00000080 	andeq	r0, r0, r0, lsl #1
     e04:	01f3000a 	mvnseq	r0, sl
     e08:	5301f352 	movwpl	pc, #4946	; 0x1352	; <UNPREDICTABLE>
     e0c:	9f01231c 	svcls	0x0001231c
	...
     e18:	00000080 	andeq	r0, r0, r0, lsl #1
     e1c:	000000a4 	andeq	r0, r0, r4, lsr #1
     e20:	a4500001 	ldrbge	r0, [r0], #-1
     e24:	18000000 	stmdane	r0, {}	; <UNPREDICTABLE>
     e28:	03000001 	movweq	r0, #1
     e2c:	9f027000 	svcls	0x00027000
     e30:	00000118 	andeq	r0, r0, r8, lsl r1
     e34:	00000230 	andeq	r0, r0, r0, lsr r2
     e38:	01f30004 	mvnseq	r0, r4
     e3c:	00009f50 	andeq	r9, r0, r0, asr pc
     e40:	00000000 	andeq	r0, r0, r0
     e44:	00800000 	addeq	r0, r0, r0
     e48:	00f00000 	rscseq	r0, r0, r0
     e4c:	00010000 	andeq	r0, r1, r0
     e50:	0000f051 	andeq	pc, r0, r1, asr r0	; <UNPREDICTABLE>
     e54:	00016000 	andeq	r6, r1, r0
     e58:	55000100 	strpl	r0, [r0, #-256]	; 0x100
     e5c:	00000160 	andeq	r0, r0, r0, ror #2
     e60:	0000016c 	andeq	r0, r0, ip, ror #2
     e64:	6c510001 	mrrcvs	0, 0, r0, r1, cr1
     e68:	a0000001 	andge	r0, r0, r1
     e6c:	01000001 	tsteq	r0, r1
     e70:	01a05500 	lsleq	r5, r0, #10
     e74:	01b40000 			; <UNDEFINED> instruction: 0x01b40000
     e78:	00010000 	andeq	r0, r1, r0
     e7c:	0001b451 	andeq	fp, r1, r1, asr r4
     e80:	0001d400 	andeq	sp, r1, r0, lsl #8
     e84:	55000100 	strpl	r0, [r0, #-256]	; 0x100
     e88:	000001d4 	ldrdeq	r0, [r0], -r4
     e8c:	000001d7 	ldrdeq	r0, [r0], -r7
     e90:	d7510001 	ldrble	r0, [r1, -r1]
     e94:	14000001 	strne	r0, [r0], #-1
     e98:	01000002 	tsteq	r0, r2
     e9c:	02145500 	andseq	r5, r4, #0, 10
     ea0:	02300000 	eorseq	r0, r0, #0
     ea4:	00040000 	andeq	r0, r4, r0
     ea8:	9f5101f3 	svcls	0x005101f3
	...
     eb4:	00000080 	andeq	r0, r0, r0, lsl #1
     eb8:	00000094 	muleq	r0, r4, r0
     ebc:	94520001 	ldrbls	r0, [r2], #-1
     ec0:	14000000 	strne	r0, [r0], #-0
     ec4:	01000002 	tsteq	r0, r2
     ec8:	02145400 	andseq	r5, r4, #0, 8
     ecc:	02300000 	eorseq	r0, r0, #0
     ed0:	00040000 	andeq	r0, r4, r0
     ed4:	9f5201f3 	svcls	0x005201f3
	...
     ee0:	00000080 	andeq	r0, r0, r0, lsl #1
     ee4:	00000100 	andeq	r0, r0, r0, lsl #2
     ee8:	04530001 	ldrbeq	r0, [r3], #-1
     eec:	08000001 	stmdaeq	r0, {r0}
     ef0:	01000001 	tsteq	r0, r1
     ef4:	01605300 	cmneq	r0, r0, lsl #6
     ef8:	01640000 	cmneq	r4, r0
     efc:	00010000 	andeq	r0, r1, r0
     f00:	00016453 	andeq	r6, r1, r3, asr r4
     f04:	00016c00 	andeq	r6, r1, r0, lsl #24
     f08:	5c000100 	stfpls	f0, [r0], {-0}
     f0c:	0000016c 	andeq	r0, r0, ip, ror #2
     f10:	000001a0 	andeq	r0, r0, r0, lsr #3
     f14:	01f30004 	mvnseq	r0, r4
     f18:	01a09f53 	asreq	r9, r3, pc
     f1c:	01b00000 	movseq	r0, r0
     f20:	00010000 	andeq	r0, r1, r0
     f24:	0001b053 	andeq	fp, r1, r3, asr r0
     f28:	0001b400 	andeq	fp, r1, r0, lsl #8
     f2c:	5c000100 	stfpls	f0, [r0], {-0}
     f30:	000001b4 			; <UNDEFINED> instruction: 0x000001b4
     f34:	000001d4 	ldrdeq	r0, [r0], -r4
     f38:	01f30004 	mvnseq	r0, r4
     f3c:	01d49f53 	bicseq	r9, r4, r3, asr pc
     f40:	01d70000 	bicseq	r0, r7, r0
     f44:	00010000 	andeq	r0, r1, r0
     f48:	0001d753 	andeq	sp, r1, r3, asr r7
     f4c:	0001f000 	andeq	pc, r1, r0
     f50:	f3000400 	vshl.u8	d0, d0, d0
     f54:	009f5301 	addseq	r5, pc, r1, lsl #6
     f58:	00000000 	andeq	r0, r0, r0
     f5c:	80000000 	andhi	r0, r0, r0
     f60:	9c000000 	stcls	0, cr0, [r0], {-0}
     f64:	02000000 	andeq	r0, r0, #0
     f68:	9c009100 	stflsd	f1, [r0], {-0}
     f6c:	d7000000 	strle	r0, [r0, -r0]
     f70:	01000001 	tsteq	r0, r1
     f74:	01f05200 	mvnseq	r5, r0, lsl #4
     f78:	01f70000 	mvnseq	r0, r0
     f7c:	00010000 	andeq	r0, r1, r0
     f80:	00000052 	andeq	r0, r0, r2, asr r0
     f84:	00000000 	andeq	r0, r0, r0
     f88:	00009c00 	andeq	r9, r0, r0, lsl #24
     f8c:	00011800 	andeq	r1, r1, r0, lsl #16
     f90:	5d000100 	stfpls	f0, [r0, #-0]
     f94:	00000118 	andeq	r0, r0, r8, lsl r1
     f98:	0000011c 	andeq	r0, r0, ip, lsl r1
     f9c:	1c500001 	mrrcne	0, 0, r0, r0, cr1	; <UNPREDICTABLE>
     fa0:	20000001 	andcs	r0, r0, r1
     fa4:	01000001 	tsteq	r0, r1
     fa8:	01205100 	teqeq	r0, r0, lsl #2
     fac:	01600000 	cmneq	r0, r0
     fb0:	00010000 	andeq	r0, r1, r0
     fb4:	00016050 	andeq	r6, r1, r0, asr r0
     fb8:	00016c00 	andeq	r6, r1, r0, lsl #24
     fbc:	5d000100 	stfpls	f0, [r0, #-0]
     fc0:	0000016c 	andeq	r0, r0, ip, ror #2
     fc4:	00000170 	andeq	r0, r0, r0, ror r1
     fc8:	70500001 	subsvc	r0, r0, r1
     fcc:	74000001 	strvc	r0, [r0], #-1
     fd0:	01000001 	tsteq	r0, r1
     fd4:	01745300 	cmneq	r4, r0, lsl #6
     fd8:	01880000 	orreq	r0, r8, r0
     fdc:	00010000 	andeq	r0, r1, r0
     fe0:	00018850 	andeq	r8, r1, r0, asr r8
     fe4:	00019400 	andeq	r9, r1, r0, lsl #8
     fe8:	70000300 	andvc	r0, r0, r0, lsl #6
     fec:	01949f01 	orrseq	r9, r4, r1, lsl #30
     ff0:	01a00000 	moveq	r0, r0
     ff4:	00010000 	andeq	r0, r1, r0
     ff8:	0001a050 	andeq	sl, r1, r0, asr r0
     ffc:	0001a800 	andeq	sl, r1, r0, lsl #16
    1000:	91000400 	tstls	r0, r0, lsl #8
    1004:	a89f7fa1 	ldmge	pc, {r0, r5, r7, r8, r9, sl, fp, ip, sp, lr}	; <UNPREDICTABLE>
    1008:	ac000001 	stcge	0, cr0, [r0], {1}
    100c:	01000001 	tsteq	r0, r1
    1010:	01ac5000 			; <UNDEFINED> instruction: 0x01ac5000
    1014:	01b40000 			; <UNDEFINED> instruction: 0x01b40000
    1018:	00010000 	andeq	r0, r1, r0
    101c:	0001b45d 	andeq	fp, r1, sp, asr r4
    1020:	0001b800 	andeq	fp, r1, r0, lsl #16
    1024:	53000100 	movwpl	r0, #256	; 0x100
    1028:	000001b8 			; <UNDEFINED> instruction: 0x000001b8
    102c:	000001d4 	ldrdeq	r0, [r0], -r4
    1030:	d4500001 	ldrble	r0, [r0], #-1
    1034:	f0000001 			; <UNDEFINED> instruction: 0xf0000001
    1038:	01000001 	tsteq	r0, r1
    103c:	01f05d00 	mvnseq	r5, r0, lsl #26
    1040:	01f70000 	mvnseq	r0, r0
    1044:	00010000 	andeq	r0, r1, r0
    1048:	00000050 	andeq	r0, r0, r0, asr r0
    104c:	00000000 	andeq	r0, r0, r0
    1050:	0000a000 	andeq	sl, r0, r0
    1054:	0000ec00 	andeq	lr, r0, r0, lsl #24
    1058:	5c000100 	stfpls	f0, [r0], {-0}
    105c:	000000ec 	andeq	r0, r0, ip, ror #1
    1060:	00000100 	andeq	r0, r0, r0, lsl #2
    1064:	00530001 	subseq	r0, r3, r1
    1068:	04000001 	streq	r0, [r0], #-1
    106c:	01000001 	tsteq	r0, r1
    1070:	01045c00 	tsteq	r4, r0, lsl #24
    1074:	01080000 	mrseq	r0, (UNDEF: 8)
    1078:	00010000 	andeq	r0, r1, r0
    107c:	00010853 	andeq	r0, r1, r3, asr r8
    1080:	00016000 	andeq	r6, r1, r0
    1084:	5c000100 	stfpls	f0, [r0], {-0}
    1088:	00000160 	andeq	r0, r0, r0, ror #2
    108c:	00000164 	andeq	r0, r0, r4, ror #2
    1090:	64530001 	ldrbvs	r0, [r3], #-1
    1094:	80000001 	andhi	r0, r0, r1
    1098:	01000001 	tsteq	r0, r1
    109c:	01805c00 	orreq	r5, r0, r0, lsl #24
    10a0:	01840000 	orreq	r0, r4, r0
    10a4:	00050000 	andeq	r0, r5, r0
    10a8:	2534007c 	ldrcs	r0, [r4, #-124]!	; 0x7c
    10ac:	0001849f 	muleq	r1, pc, r4	; <UNPREDICTABLE>
    10b0:	0001a000 	andeq	sl, r1, r0
    10b4:	5c000100 	stfpls	f0, [r0], {-0}
    10b8:	000001a0 	andeq	r0, r0, r0, lsr #3
    10bc:	000001b0 			; <UNDEFINED> instruction: 0x000001b0
    10c0:	b0530001 	subslt	r0, r3, r1
    10c4:	c4000001 	strgt	r0, [r0], #-1
    10c8:	01000001 	tsteq	r0, r1
    10cc:	01c45c00 	biceq	r5, r4, r0, lsl #24
    10d0:	01cc0000 	biceq	r0, ip, r0
    10d4:	00050000 	andeq	r0, r5, r0
    10d8:	2531007c 	ldrcs	r0, [r1, #-124]!	; 0x7c
    10dc:	0001cc9f 	muleq	r1, pc, ip	; <UNPREDICTABLE>
    10e0:	0001d400 	andeq	sp, r1, r0, lsl #8
    10e4:	5c000100 	stfpls	f0, [r0], {-0}
    10e8:	000001d4 	ldrdeq	r0, [r0], -r4
    10ec:	000001d7 	ldrdeq	r0, [r0], -r7
    10f0:	d7530001 	ldrble	r0, [r3, -r1]
    10f4:	f0000001 			; <UNDEFINED> instruction: 0xf0000001
    10f8:	04000001 	streq	r0, [r0], #-1
    10fc:	5301f300 	movwpl	pc, #4864	; 0x1300	; <UNPREDICTABLE>
    1100:	0001f09f 	muleq	r1, pc, r0	; <UNPREDICTABLE>
    1104:	0001f700 	andeq	pc, r1, r0, lsl #14
    1108:	5c000100 	stfpls	f0, [r0], {-0}
	...
    1114:	000000ec 	andeq	r0, r0, ip, ror #1
    1118:	000000fc 	strdeq	r0, [r0], -ip
    111c:	9f300002 	svcls	0x00300002
    1120:	000000fc 	strdeq	r0, [r0], -ip
    1124:	00000104 	andeq	r0, r0, r4, lsl #2
    1128:	9f310002 	svcls	0x00310002
    112c:	00000104 	andeq	r0, r0, r4, lsl #2
    1130:	00000108 	andeq	r0, r0, r8, lsl #2
    1134:	9f300002 	svcls	0x00300002
	...
    1140:	00000230 	andeq	r0, r0, r0, lsr r2
    1144:	0000023f 	andeq	r0, r0, pc, lsr r2
    1148:	3f500001 	svccc	0x00500001
    114c:	58000002 	stmdapl	r0, {r1}
    1150:	04000002 	streq	r0, [r0], #-2
    1154:	5001f300 	andpl	pc, r1, r0, lsl #6
    1158:	0002589f 	muleq	r2, pc, r8	; <UNPREDICTABLE>
    115c:	00028400 	andeq	r8, r2, r0, lsl #8
    1160:	50000100 	andpl	r0, r0, r0, lsl #2
	...
    116c:	00000230 	andeq	r0, r0, r0, lsr r2
    1170:	0000023f 	andeq	r0, r0, pc, lsr r2
    1174:	3f510001 	svccc	0x00510001
    1178:	58000002 	stmdapl	r0, {r1}
    117c:	04000002 	streq	r0, [r0], #-2
    1180:	5101f300 	mrspl	pc, SP_irq	; <UNPREDICTABLE>
    1184:	0002589f 	muleq	r2, pc, r8	; <UNPREDICTABLE>
    1188:	00028400 	andeq	r8, r2, r0, lsl #8
    118c:	51000100 	mrspl	r0, (UNDEF: 16)
	...
    1198:	00000284 	andeq	r0, r0, r4, lsl #5
    119c:	000002b0 			; <UNDEFINED> instruction: 0x000002b0
    11a0:	b0500001 	subslt	r0, r0, r1
    11a4:	f8000002 			; <UNDEFINED> instruction: 0xf8000002
    11a8:	01000004 	tsteq	r0, r4
    11ac:	04f85a00 	ldrbteq	r5, [r8], #2560	; 0xa00
    11b0:	050c0000 	streq	r0, [ip, #-0]
    11b4:	00040000 	andeq	r0, r4, r0
    11b8:	9f5001f3 	svcls	0x005001f3
	...
    11c4:	00000284 	andeq	r0, r0, r4, lsl #5
    11c8:	00000298 	muleq	r0, r8, r2
    11cc:	98510001 	ldmdals	r1, {r0}^
    11d0:	b0000002 	andlt	r0, r0, r2
    11d4:	03000002 	movweq	r0, #2
    11d8:	9f017100 	svcls	0x00017100
    11dc:	000002b0 			; <UNDEFINED> instruction: 0x000002b0
    11e0:	0000050c 	andeq	r0, r0, ip, lsl #10
    11e4:	01f30004 	mvnseq	r0, r4
    11e8:	00009f51 	andeq	r9, r0, r1, asr pc
    11ec:	00000000 	andeq	r0, r0, r0
    11f0:	02840000 	addeq	r0, r4, #0
    11f4:	02b80000 	adcseq	r0, r8, #0
    11f8:	00010000 	andeq	r0, r1, r0
    11fc:	0002b852 	andeq	fp, r2, r2, asr r8
    1200:	0002e000 	andeq	lr, r2, r0
    1204:	52000100 	andpl	r0, r0, #0, 2
    1208:	000002e0 	andeq	r0, r0, r0, ror #5
    120c:	000004a8 	andeq	r0, r0, r8, lsr #9
    1210:	a8560001 	ldmdage	r6, {r0}^
    1214:	0c000004 	stceq	0, cr0, [r0], {4}
    1218:	01000005 	tsteq	r0, r5
    121c:	00005200 	andeq	r5, r0, r0, lsl #4
    1220:	00000000 	andeq	r0, r0, r0
    1224:	02840000 	addeq	r0, r4, #0
    1228:	02a00000 	adceq	r0, r0, #0
    122c:	00010000 	andeq	r0, r1, r0
    1230:	00000053 	andeq	r0, r0, r3, asr r0
    1234:	00000000 	andeq	r0, r0, r0
    1238:	00029400 	andeq	r9, r2, r0, lsl #8
    123c:	0002b000 	andeq	fp, r2, r0
    1240:	50000100 	andpl	r0, r0, r0, lsl #2
    1244:	000002b0 			; <UNDEFINED> instruction: 0x000002b0
    1248:	000002b4 			; <UNDEFINED> instruction: 0x000002b4
    124c:	b4540001 	ldrblt	r0, [r4], #-1
    1250:	c0000002 	andgt	r0, r0, r2
    1254:	03000002 	movweq	r0, #2
    1258:	9f017400 	svcls	0x00017400
    125c:	000002c0 	andeq	r0, r0, r0, asr #5
    1260:	000002cc 	andeq	r0, r0, ip, asr #5
    1264:	cc540001 	mrrcgt	0, 0, r0, r4, cr1
    1268:	d8000002 	stmdale	r0, {r1}
    126c:	03000002 	movweq	r0, #2
    1270:	9f017400 	svcls	0x00017400
    1274:	000002d8 	ldrdeq	r0, [r0], -r8
    1278:	000004ac 	andeq	r0, r0, ip, lsr #9
    127c:	ac540001 	mrrcge	0, 0, r0, r4, cr1
    1280:	b8000004 	stmdalt	r0, {r2}
    1284:	03000004 	movweq	r0, #4
    1288:	9f017400 	svcls	0x00017400
    128c:	000004b8 			; <UNDEFINED> instruction: 0x000004b8
    1290:	000004e4 	andeq	r0, r0, r4, ror #9
    1294:	e4540001 	ldrb	r0, [r4], #-1
    1298:	f0000004 			; <UNDEFINED> instruction: 0xf0000004
    129c:	01000004 	tsteq	r0, r4
    12a0:	04f05000 	ldrbteq	r5, [r0], #0
    12a4:	04f80000 	ldrbteq	r0, [r8], #0
    12a8:	00030000 	andeq	r0, r3, r0
    12ac:	009f0174 	addseq	r0, pc, r4, ror r1	; <UNPREDICTABLE>
    12b0:	00000000 	andeq	r0, r0, r0
    12b4:	9c000000 	stcls	0, cr0, [r0], {-0}
    12b8:	f8000002 			; <UNDEFINED> instruction: 0xf8000002
    12bc:	01000004 	tsteq	r0, r4
    12c0:	04f85800 	ldrbteq	r5, [r8], #2048	; 0x800
    12c4:	050c0000 	streq	r0, [ip, #-0]
    12c8:	000a0000 	andeq	r0, sl, r0
    12cc:	f35101f3 	vbsl	q8, <illegal reg q8.5>, <illegal reg q9.5>
    12d0:	31225001 	teqcc	r2, r1
    12d4:	00009f1c 	andeq	r9, r0, ip, lsl pc
    12d8:	00000000 	andeq	r0, r0, r0
    12dc:	03e00000 	mvneq	r0, #0
    12e0:	03e40000 	mvneq	r0, #0
    12e4:	00010000 	andeq	r0, r1, r0
    12e8:	00040450 	andeq	r0, r4, r0, asr r4
    12ec:	00040800 	andeq	r0, r4, r0, lsl #16
    12f0:	50000100 	andpl	r0, r0, r0, lsl #2
    12f4:	00000428 	andeq	r0, r0, r8, lsr #8
    12f8:	0000042c 	andeq	r0, r0, ip, lsr #8
    12fc:	4c500001 	mrrcmi	0, 0, r0, r0, cr1	; <UNPREDICTABLE>
    1300:	50000004 	andpl	r0, r0, r4
    1304:	01000004 	tsteq	r0, r4
    1308:	04585000 	ldrbeq	r5, [r8], #-0
    130c:	045c0000 	ldrbeq	r0, [ip], #-0
    1310:	00010000 	andeq	r0, r1, r0
    1314:	00047c50 	andeq	r7, r4, r0, asr ip
    1318:	00048000 	andeq	r8, r4, r0
    131c:	50000100 	andpl	r0, r0, r0, lsl #2
    1320:	000004a4 	andeq	r0, r0, r4, lsr #9
    1324:	000004cc 	andeq	r0, r0, ip, asr #9
    1328:	00500001 	subseq	r0, r0, r1
    132c:	00000000 	andeq	r0, r0, r0
    1330:	e0000000 	and	r0, r0, r0
    1334:	e8000002 	stmda	r0, {r1}
    1338:	02000002 	andeq	r0, r0, #2
    133c:	e89f3000 	ldm	pc, {ip, sp}	; <UNPREDICTABLE>
    1340:	ec000002 	stc	0, cr0, [r0], {2}
    1344:	01000002 	tsteq	r0, r2
    1348:	02f85700 	rscseq	r5, r8, #0, 14
    134c:	04cc0000 	strbeq	r0, [ip], #0
    1350:	00010000 	andeq	r0, r1, r0
    1354:	00000057 	andeq	r0, r0, r7, asr r0
    1358:	00000000 	andeq	r0, r0, r0
    135c:	00001400 	andeq	r1, r0, r0, lsl #8
    1360:	00001c00 	andeq	r1, r0, r0, lsl #24
    1364:	73000300 	movwvc	r0, #768	; 0x300
    1368:	001c9f04 	andseq	r9, ip, r4, lsl #30
    136c:	00270000 	eoreq	r0, r7, r0
    1370:	00010000 	andeq	r0, r1, r0
    1374:	00000053 	andeq	r0, r0, r3, asr r0
    1378:	00000000 	andeq	r0, r0, r0
    137c:	0096d400 	addseq	sp, r6, r0, lsl #8
    1380:	0096d800 	addseq	sp, r6, r0, lsl #16
    1384:	30000200 	andcc	r0, r0, r0, lsl #4
    1388:	0096d89f 	umullseq	sp, r6, pc, r8	; <UNPREDICTABLE>
    138c:	0096dc00 	addseq	sp, r6, r0, lsl #24
    1390:	50000100 	andpl	r0, r0, r0, lsl #2
	...
    139c:	000096ec 	andeq	r9, r0, ip, ror #13
    13a0:	000096f0 	strdeq	r9, [r0], -r0
    13a4:	9f300002 	svcls	0x00300002
    13a8:	000096f0 	strdeq	r9, [r0], -r0
    13ac:	000096f4 	strdeq	r9, [r0], -r4
    13b0:	f8530001 			; <UNDEFINED> instruction: 0xf8530001
    13b4:	00000096 	muleq	r0, r6, r0
    13b8:	01000097 	swpeq	r0, r7, [r0]	; <UNPREDICTABLE>
    13bc:	00005300 	andeq	r5, r0, r0, lsl #6
	...
    13c8:	00040000 	andeq	r0, r4, r0
    13cc:	00010000 	andeq	r0, r1, r0
    13d0:	00000450 	andeq	r0, r0, r0, asr r4
    13d4:	00000c00 	andeq	r0, r0, r0, lsl #24
    13d8:	53000100 	movwpl	r0, #256	; 0x100
    13dc:	0000000c 	andeq	r0, r0, ip
    13e0:	00000010 	andeq	r0, r0, r0, lsl r0
    13e4:	10500001 	subsne	r0, r0, r1
    13e8:	1c000000 	stcne	0, cr0, [r0], {-0}
    13ec:	01000000 	mrseq	r0, (UNDEF: 0)
    13f0:	00005300 	andeq	r5, r0, r0, lsl #6
    13f4:	00000000 	andeq	r0, r0, r0
    13f8:	003c0000 	eorseq	r0, ip, r0
    13fc:	00470000 	subeq	r0, r7, r0
    1400:	00010000 	andeq	r0, r1, r0
    1404:	00004750 	andeq	r4, r0, r0, asr r7
    1408:	00006000 	andeq	r6, r0, r0
    140c:	55000100 	strpl	r0, [r0, #-256]	; 0x100
	...
    1418:	00000050 	andeq	r0, r0, r0, asr r0
    141c:	00000054 	andeq	r0, r0, r4, asr r0
    1420:	00500001 	subseq	r0, r0, r1
    1424:	00000000 	andeq	r0, r0, r0
    1428:	60000000 	andvs	r0, r0, r0
    142c:	6c000000 	stcvs	0, cr0, [r0], {-0}
    1430:	01000000 	mrseq	r0, (UNDEF: 0)
    1434:	006c5000 	rsbeq	r5, ip, r0
    1438:	00740000 	rsbseq	r0, r4, r0
    143c:	00040000 	andeq	r0, r4, r0
    1440:	9f5001f3 	svcls	0x005001f3
	...
    144c:	00000074 	andeq	r0, r0, r4, ror r0
    1450:	00000080 	andeq	r0, r0, r0, lsl #1
    1454:	80500001 	subshi	r0, r0, r1
    1458:	88000000 	stmdahi	r0, {}	; <UNPREDICTABLE>
    145c:	04000000 	streq	r0, [r0], #-0
    1460:	5001f300 	andpl	pc, r1, r0, lsl #6
    1464:	0000009f 	muleq	r0, pc, r0	; <UNPREDICTABLE>
    1468:	00000000 	andeq	r0, r0, r0
    146c:	00013800 	andeq	r3, r1, r0, lsl #16
    1470:	00014300 	andeq	r4, r1, r0, lsl #6
    1474:	50000100 	andpl	r0, r0, r0, lsl #2
    1478:	00000143 	andeq	r0, r0, r3, asr #2
    147c:	00000168 	andeq	r0, r0, r8, ror #2
    1480:	00540001 	subseq	r0, r4, r1
	...
    148c:	0f000000 	svceq	0x00000000
    1490:	01000000 	mrseq	r0, (UNDEF: 0)
    1494:	000f5000 	andeq	r5, pc, r0
    1498:	00200000 	eoreq	r0, r0, r0
    149c:	00010000 	andeq	r0, r1, r0
    14a0:	00000054 	andeq	r0, r0, r4, asr r0
	...
    14ac:	00000f00 	andeq	r0, r0, r0, lsl #30
    14b0:	51000100 	mrspl	r0, (UNDEF: 16)
    14b4:	0000000f 	andeq	r0, r0, pc
    14b8:	00000020 	andeq	r0, r0, r0, lsr #32
    14bc:	00550001 	subseq	r0, r5, r1
    14c0:	00000000 	andeq	r0, r0, r0
    14c4:	ec000000 	stc	0, cr0, [r0], {-0}
    14c8:	04000000 	streq	r0, [r0], #-0
    14cc:	01000001 	tsteq	r0, r1
    14d0:	01045000 	mrseq	r5, (UNDEF: 4)
    14d4:	01140000 	tsteq	r4, r0
    14d8:	00040000 	andeq	r0, r4, r0
    14dc:	9f5001f3 	svcls	0x005001f3
    14e0:	00000114 	andeq	r0, r0, r4, lsl r1
    14e4:	00000118 	andeq	r0, r0, r8, lsl r1
    14e8:	18500001 	ldmdane	r0, {r0}^
    14ec:	20000001 	andcs	r0, r0, r1
    14f0:	04000001 	streq	r0, [r0], #-1
    14f4:	5001f300 	andpl	pc, r1, r0, lsl #6
    14f8:	0000009f 	muleq	r0, pc, r0	; <UNPREDICTABLE>
    14fc:	00000000 	andeq	r0, r0, r0
    1500:	0000f800 	andeq	pc, r0, r0, lsl #16
    1504:	00010400 	andeq	r0, r1, r0, lsl #8
    1508:	70000b00 	andvc	r0, r0, r0, lsl #22
    150c:	23253500 	teqcs	r5, #0, 10
    1510:	818080b4 	strhhi	r8, [r0, r4]
    1514:	01049f02 	tsteq	r4, r2, lsl #30
    1518:	01070000 	mrseq	r0, (UNDEF: 7)
    151c:	00010000 	andeq	r0, r1, r0
    1520:	00010750 	andeq	r0, r1, r0, asr r7
    1524:	00011400 	andeq	r1, r1, r0, lsl #8
    1528:	f3000c00 			; <UNDEFINED> instruction: 0xf3000c00
    152c:	25355001 	ldrcs	r5, [r5, #-1]!
    1530:	8080b423 	addhi	fp, r0, r3, lsr #8
    1534:	009f0281 	addseq	r0, pc, r1, lsl #5
    1538:	00000000 	andeq	r0, r0, r0
    153c:	fc000000 	stc2	0, cr0, [r0], {-0}
    1540:	14000000 	strne	r0, [r0], #-0
    1544:	01000001 	tsteq	r0, r1
    1548:	00005400 	andeq	r5, r0, r0, lsl #8
    154c:	00000000 	andeq	r0, r0, r0
    1550:	00d00000 	sbcseq	r0, r0, r0
    1554:	00df0000 	sbcseq	r0, pc, r0
    1558:	00010000 	andeq	r0, r1, r0
    155c:	0000df50 	andeq	sp, r0, r0, asr pc
    1560:	0000e400 	andeq	lr, r0, r0, lsl #8
    1564:	f3000400 	vshl.u8	d0, d0, d0
    1568:	e49f5001 	ldr	r5, [pc], #1	; 1570 <_start-0x6a90>
    156c:	e7000000 	str	r0, [r0, -r0]
    1570:	01000000 	mrseq	r0, (UNDEF: 0)
    1574:	00e75000 	rsceq	r5, r7, r0
    1578:	00ec0000 	rsceq	r0, ip, r0
    157c:	00040000 	andeq	r0, r4, r0
    1580:	9f5001f3 	svcls	0x005001f3
	...
    158c:	000000d0 	ldrdeq	r0, [r0], -r0	; <UNPREDICTABLE>
    1590:	000000df 	ldrdeq	r0, [r0], -pc	; <UNPREDICTABLE>
    1594:	df510001 	svcle	0x00510001
    1598:	e4000000 	str	r0, [r0], #-0
    159c:	04000000 	streq	r0, [r0], #-0
    15a0:	5101f300 	mrspl	pc, SP_irq	; <UNPREDICTABLE>
    15a4:	0000e49f 	muleq	r0, pc, r4	; <UNPREDICTABLE>
    15a8:	0000e700 	andeq	lr, r0, r0, lsl #14
    15ac:	51000100 	mrspl	r0, (UNDEF: 16)
    15b0:	000000e7 	andeq	r0, r0, r7, ror #1
    15b4:	000000ec 	andeq	r0, r0, ip, ror #1
    15b8:	01f30004 	mvnseq	r0, r4
    15bc:	00009f51 	andeq	r9, r0, r1, asr pc
    15c0:	00000000 	andeq	r0, r0, r0
    15c4:	00c00000 	sbceq	r0, r0, r0
    15c8:	00cb0000 	sbceq	r0, fp, r0
    15cc:	00010000 	andeq	r0, r1, r0
    15d0:	0000cb50 	andeq	ip, r0, r0, asr fp
    15d4:	0000d000 	andeq	sp, r0, r0
    15d8:	f3000400 	vshl.u8	d0, d0, d0
    15dc:	009f5001 	addseq	r5, pc, r1
    15e0:	00000000 	andeq	r0, r0, r0
    15e4:	9c000000 	stcls	0, cr0, [r0], {-0}
    15e8:	b4000000 	strlt	r0, [r0], #-0
    15ec:	01000000 	mrseq	r0, (UNDEF: 0)
    15f0:	00b45000 	adcseq	r5, r4, r0
    15f4:	00c00000 	sbceq	r0, r0, r0
    15f8:	00040000 	andeq	r0, r4, r0
    15fc:	9f5001f3 	svcls	0x005001f3
	...
    1608:	00000078 	andeq	r0, r0, r8, ror r0
    160c:	00000090 	muleq	r0, r0, r0
    1610:	90500001 	subsls	r0, r0, r1
    1614:	9c000000 	stcls	0, cr0, [r0], {-0}
    1618:	04000000 	streq	r0, [r0], #-0
    161c:	5001f300 	andpl	pc, r1, r0, lsl #6
    1620:	0000009f 	muleq	r0, pc, r0	; <UNPREDICTABLE>
    1624:	00000000 	andeq	r0, r0, r0
    1628:	00006800 	andeq	r6, r0, r0, lsl #16
    162c:	00007300 	andeq	r7, r0, r0, lsl #6
    1630:	50000100 	andpl	r0, r0, r0, lsl #2
    1634:	00000073 	andeq	r0, r0, r3, ror r0
    1638:	00000078 	andeq	r0, r0, r8, ror r0
    163c:	01f30004 	mvnseq	r0, r4
    1640:	00009f50 	andeq	r9, r0, r0, asr pc
	...
    164c:	00480000 	subeq	r0, r8, r0
    1650:	00010000 	andeq	r0, r1, r0
    1654:	00004850 	andeq	r4, r0, r0, asr r8
    1658:	00006800 	andeq	r6, r0, r0, lsl #16
    165c:	f3000400 	vshl.u8	d0, d0, d0
    1660:	009f5001 	addseq	r5, pc, r1
	...
    166c:	4b000000 	blmi	1674 <_start-0x698c>
    1670:	01000000 	mrseq	r0, (UNDEF: 0)
    1674:	004b5100 	subeq	r5, fp, r0, lsl #2
    1678:	00680000 	rsbeq	r0, r8, r0
    167c:	00040000 	andeq	r0, r4, r0
    1680:	9f5101f3 	svcls	0x005101f3
	...
    168c:	0000004c 	andeq	r0, r0, ip, asr #32
    1690:	00000054 	andeq	r0, r0, r4, asr r0
    1694:	54500001 	ldrbpl	r0, [r0], #-1
    1698:	58000000 	stmdapl	r0, {}	; <UNPREDICTABLE>
    169c:	09000000 	stmdbeq	r0, {}	; <UNPREDICTABLE>
    16a0:	74007500 	strvc	r7, [r0], #-1280	; 0x500
    16a4:	00712400 	rsbseq	r2, r1, r0, lsl #8
    16a8:	00589f21 	subseq	r9, r8, r1, lsr #30
    16ac:	005f0000 	subseq	r0, pc, r0
    16b0:	00010000 	andeq	r0, r1, r0
    16b4:	00000051 	andeq	r0, r0, r1, asr r0
    16b8:	00000000 	andeq	r0, r0, r0
    16bc:	0000e000 	andeq	lr, r0, r0
    16c0:	00011b00 	andeq	r1, r1, r0, lsl #22
    16c4:	50000100 	andpl	r0, r0, r0, lsl #2
    16c8:	0000011b 	andeq	r0, r0, fp, lsl r1
    16cc:	00000120 	andeq	r0, r0, r0, lsr #2
    16d0:	01f30004 	mvnseq	r0, r4
    16d4:	01209f50 	teqeq	r0, r0, asr pc
    16d8:	01230000 	teqeq	r3, r0
    16dc:	00010000 	andeq	r0, r1, r0
    16e0:	00012350 	andeq	r2, r1, r0, asr r3
    16e4:	00013c00 	andeq	r3, r1, r0, lsl #24
    16e8:	f3000400 	vshl.u8	d0, d0, d0
    16ec:	3c9f5001 	ldccc	0, cr5, [pc], {1}
    16f0:	3f000001 	svccc	0x00000001
    16f4:	01000001 	tsteq	r0, r1
    16f8:	013f5000 	teqeq	pc, r0
    16fc:	016c0000 	cmneq	ip, r0
    1700:	00040000 	andeq	r0, r4, r0
    1704:	9f5001f3 	svcls	0x005001f3
	...
    1710:	000000e0 	andeq	r0, r0, r0, ror #1
    1714:	00000108 	andeq	r0, r0, r8, lsl #2
    1718:	08510001 	ldmdaeq	r1, {r0}^
    171c:	1b000001 	blne	1728 <_start-0x68d8>
    1720:	03000001 	movweq	r0, #1
    1724:	9f017100 	svcls	0x00017100
    1728:	0000011b 	andeq	r0, r0, fp, lsl r1
    172c:	00000120 	andeq	r0, r0, r0, lsr #2
    1730:	01f30004 	mvnseq	r0, r4
    1734:	01209f51 	teqeq	r0, r1, asr pc
    1738:	01230000 	teqeq	r3, r0
    173c:	00010000 	andeq	r0, r1, r0
    1740:	00012351 	andeq	r2, r1, r1, asr r3
    1744:	00016c00 	andeq	r6, r1, r0, lsl #24
    1748:	f3000400 	vshl.u8	d0, d0, d0
    174c:	009f5101 	addseq	r5, pc, r1, lsl #2
    1750:	00000000 	andeq	r0, r0, r0
    1754:	f8000000 			; <UNDEFINED> instruction: 0xf8000000
    1758:	fc000000 	stc2	0, cr0, [r0], {-0}
    175c:	01000000 	mrseq	r0, (UNDEF: 0)
    1760:	00fc5200 	rscseq	r5, ip, r0, lsl #4
    1764:	01040000 	mrseq	r0, (UNDEF: 4)
    1768:	00050000 	andeq	r0, r5, r0
    176c:	009c6803 	addseq	r6, ip, r3, lsl #16
    1770:	00010400 	andeq	r0, r1, r0, lsl #8
    1774:	00011b00 	andeq	r1, r1, r0, lsl #22
    1778:	53000100 	movwpl	r0, #256	; 0x100
    177c:	0000013c 	andeq	r0, r0, ip, lsr r1
    1780:	0000013f 	andeq	r0, r0, pc, lsr r1
    1784:	00530001 	subseq	r0, r3, r1
    1788:	00000000 	andeq	r0, r0, r0
    178c:	6c000000 	stcvs	0, cr0, [r0], {-0}
    1790:	80000000 	andhi	r0, r0, r0
    1794:	01000000 	mrseq	r0, (UNDEF: 0)
    1798:	00805000 	addeq	r5, r0, r0
    179c:	009b0000 	addseq	r0, fp, r0
    17a0:	00010000 	andeq	r0, r1, r0
    17a4:	00009b52 	andeq	r9, r0, r2, asr fp
    17a8:	0000a400 	andeq	sl, r0, r0, lsl #8
    17ac:	f3000900 	vmls.i8	d0, d0, d0
    17b0:	07235001 	streq	r5, [r3, -r1]!
    17b4:	9f1af809 	svcls	0x001af809
    17b8:	000000a4 	andeq	r0, r0, r4, lsr #1
    17bc:	000000a7 	andeq	r0, r0, r7, lsr #1
    17c0:	a7500001 	ldrbge	r0, [r0, -r1]
    17c4:	d0000000 	andle	r0, r0, r0
    17c8:	04000000 	streq	r0, [r0], #-0
    17cc:	5001f300 	andpl	pc, r1, r0, lsl #6
    17d0:	0000009f 	muleq	r0, pc, r0	; <UNPREDICTABLE>
    17d4:	00000000 	andeq	r0, r0, r0
    17d8:	00008800 	andeq	r8, r0, r0, lsl #16
    17dc:	0000a400 	andeq	sl, r0, r0, lsl #8
    17e0:	54000100 	strpl	r0, [r0], #-256	; 0x100
	...
    17ec:	0000001c 	andeq	r0, r0, ip, lsl r0
    17f0:	00000043 	andeq	r0, r0, r3, asr #32
    17f4:	43500001 	cmpmi	r0, #1
    17f8:	6c000000 	stcvs	0, cr0, [r0], {-0}
    17fc:	04000000 	streq	r0, [r0], #-0
    1800:	5001f300 	andpl	pc, r1, r0, lsl #6
    1804:	0000009f 	muleq	r0, pc, r0	; <UNPREDICTABLE>
    1808:	00000000 	andeq	r0, r0, r0
    180c:	00001c00 	andeq	r1, r0, r0, lsl #24
    1810:	00004300 	andeq	r4, r0, r0, lsl #6
    1814:	50000100 	andpl	r0, r0, r0, lsl #2
    1818:	00000043 	andeq	r0, r0, r3, asr #32
    181c:	0000006c 	andeq	r0, r0, ip, rrx
    1820:	01f30004 	mvnseq	r0, r4
    1824:	00009f50 	andeq	r9, r0, r0, asr pc
    1828:	00000000 	andeq	r0, r0, r0
	...

Disassembly of section .debug_aranges:

00000000 <.debug_aranges>:
   0:	0000001c 	andeq	r0, r0, ip, lsl r0
   4:	00000002 	andeq	r0, r0, r2
   8:	00040000 	andeq	r0, r4, r0
   c:	00000000 	andeq	r0, r0, r0
  10:	00008010 	andeq	r8, r0, r0, lsl r0
  14:	00000164 	andeq	r0, r0, r4, ror #2
	...
  20:	0000001c 	andeq	r0, r0, ip, lsl r0
  24:	04590002 	ldrbeq	r0, [r9], #-2
  28:	00040000 	andeq	r0, r4, r0
  2c:	00000000 	andeq	r0, r0, r0
  30:	00008174 	andeq	r8, r0, r4, ror r1
  34:	0000078c 	andeq	r0, r0, ip, lsl #15
	...
  40:	0000001c 	andeq	r0, r0, ip, lsl r0
  44:	12e40002 	rscne	r0, r4, #2
  48:	00040000 	andeq	r0, r4, r0
  4c:	00000000 	andeq	r0, r0, r0
  50:	00008900 	andeq	r8, r0, r0, lsl #18
  54:	0000068c 	andeq	r0, r0, ip, lsl #13
	...
  60:	0000001c 	andeq	r0, r0, ip, lsl r0
  64:	20550002 	subscs	r0, r5, r2
  68:	00040000 	andeq	r0, r4, r0
  6c:	00000000 	andeq	r0, r0, r0
  70:	00008f94 	muleq	r0, r4, pc	; <UNPREDICTABLE>
  74:	000000f0 	strdeq	r0, [r0], -r0	; <UNPREDICTABLE>
	...
  80:	0000001c 	andeq	r0, r0, ip, lsl r0
  84:	216b0002 	cmncs	fp, r2
  88:	00040000 	andeq	r0, r4, r0
  8c:	00000000 	andeq	r0, r0, r0
  90:	00009084 	andeq	r9, r0, r4, lsl #1
  94:	00000020 	andeq	r0, r0, r0, lsr #32
	...
  a0:	0000001c 	andeq	r0, r0, ip, lsl r0
  a4:	224a0002 	subcs	r0, sl, #2
  a8:	00040000 	andeq	r0, r4, r0
  ac:	00000000 	andeq	r0, r0, r0
  b0:	000090a4 	andeq	r9, r0, r4, lsr #1
  b4:	00000058 	andeq	r0, r0, r8, asr r0
	...
  c0:	0000001c 	andeq	r0, r0, ip, lsl r0
  c4:	23df0002 	bicscs	r0, pc, #2
  c8:	00040000 	andeq	r0, r4, r0
  cc:	00000000 	andeq	r0, r0, r0
  d0:	000090fc 	strdeq	r9, [r0], -ip
  d4:	0000003c 	andeq	r0, r0, ip, lsr r0
	...
  e0:	0000001c 	andeq	r0, r0, ip, lsl r0
  e4:	24f60002 	ldrbtcs	r0, [r6], #2
  e8:	00040000 	andeq	r0, r4, r0
  ec:	00000000 	andeq	r0, r0, r0
  f0:	00009138 	andeq	r9, r0, r8, lsr r1
  f4:	00000034 	andeq	r0, r0, r4, lsr r0
	...
 100:	0000001c 	andeq	r0, r0, ip, lsl r0
 104:	25e80002 	strbcs	r0, [r8, #2]!
 108:	00040000 	andeq	r0, r4, r0
 10c:	00000000 	andeq	r0, r0, r0
 110:	0000916c 	andeq	r9, r0, ip, ror #2
 114:	0000050c 	andeq	r0, r0, ip, lsl #10
	...
 120:	0000001c 	andeq	r0, r0, ip, lsl r0
 124:	2c6d0002 	stclcs	0, cr0, [sp], #-8
 128:	00040000 	andeq	r0, r4, r0
 12c:	00000000 	andeq	r0, r0, r0
 130:	00009678 	andeq	r9, r0, r8, ror r6
 134:	00000028 	andeq	r0, r0, r8, lsr #32
	...
 140:	0000001c 	andeq	r0, r0, ip, lsl r0
 144:	2d700002 	ldclcs	0, cr0, [r0, #-8]!
 148:	00040000 	andeq	r0, r4, r0
 14c:	00000000 	andeq	r0, r0, r0
 150:	000096a0 	andeq	r9, r0, r0, lsr #13
 154:	00000034 	andeq	r0, r0, r4, lsr r0
	...
 160:	0000001c 	andeq	r0, r0, ip, lsl r0
 164:	2e730002 	cdpcs	0, 7, cr0, cr3, cr2, {0}
 168:	00040000 	andeq	r0, r4, r0
 16c:	00000000 	andeq	r0, r0, r0
 170:	000096d4 	ldrdeq	r9, [r0], -r4
 174:	00000074 	andeq	r0, r0, r4, ror r0
	...
 180:	0000001c 	andeq	r0, r0, ip, lsl r0
 184:	30240002 	eorcc	r0, r4, r2
 188:	00040000 	andeq	r0, r4, r0
 18c:	00000000 	andeq	r0, r0, r0
 190:	00009748 	andeq	r9, r0, r8, asr #14
 194:	00000088 	andeq	r0, r0, r8, lsl #1
	...
 1a0:	0000001c 	andeq	r0, r0, ip, lsl r0
 1a4:	32000002 	andcc	r0, r0, #2
 1a8:	00040000 	andeq	r0, r4, r0
 1ac:	00000000 	andeq	r0, r0, r0
 1b0:	0000981c 	andeq	r9, r0, ip, lsl r8
 1b4:	00000178 	andeq	r0, r0, r8, ror r1
	...
 1c0:	0000001c 	andeq	r0, r0, ip, lsl r0
 1c4:	3ec90002 	cdpcc	0, 12, cr0, cr9, cr2, {0}
 1c8:	00040000 	andeq	r0, r4, r0
 1cc:	00000000 	andeq	r0, r0, r0
 1d0:	00009994 	muleq	r0, r4, r9
 1d4:	00000120 	andeq	r0, r0, r0, lsr #2
	...
 1e0:	0000001c 	andeq	r0, r0, ip, lsl r0
 1e4:	4a3d0002 	bmi	f401f4 <__bss_end__+0xf356fc>
 1e8:	00040000 	andeq	r0, r4, r0
 1ec:	00000000 	andeq	r0, r0, r0
 1f0:	00009ab4 			; <UNDEFINED> instruction: 0x00009ab4
 1f4:	00000194 	muleq	r0, r4, r1
	...

Disassembly of section .debug_line:

00000000 <.debug_line>:
       0:	00000171 	andeq	r0, r0, r1, ror r1
       4:	014c0002 	cmpeq	ip, r2
       8:	01020000 	mrseq	r0, (UNDEF: 2)
       c:	000d0efb 	strdeq	r0, [sp], -fp
      10:	01010101 	tsteq	r1, r1, lsl #2
      14:	01000000 	mrseq	r0, (UNDEF: 0)
      18:	74010000 	strvc	r0, [r1], #-0
      1c:	73747365 	cmnvc	r4, #-1811939327	; 0x94000001
      20:	73752f00 	cmnvc	r5, #0, 30
      24:	6f6c2f72 	svcvs	0x006c2f72
      28:	2f6c6163 	svccs	0x006c6163
      2c:	6c6c6543 	cfstr64vs	mvdx6, [ip], #-268	; 0xfffffef4
      30:	612f7261 	teqvs	pc, r1, ror #4
      34:	6e2d6d72 	mcrvs	13, 1, r6, cr13, cr2, {3}
      38:	2d656e6f 	stclcs	14, cr6, [r5, #-444]!	; 0xfffffe44
      3c:	69626165 	stmdbvs	r2!, {r0, r2, r5, r6, r8, sp, lr}^
      40:	382e342f 	stmdacc	lr!, {r0, r1, r2, r3, r5, sl, ip, sp}
      44:	632d332e 	teqvs	sp, #-1207959552	; 0xb8000000
      48:	30373173 	eorscc	r3, r7, r3, ror r1
      4c:	696c2f65 	stmdbvs	ip!, {r0, r2, r5, r6, r8, r9, sl, fp, sp}^
      50:	63672f62 	cmnvs	r7, #392	; 0x188
      54:	72612f63 	rsbvc	r2, r1, #396	; 0x18c
      58:	6f6e2d6d 	svcvs	0x006e2d6d
      5c:	652d656e 	strvs	r6, [sp, #-1390]!	; 0x56e
      60:	2f696261 	svccs	0x00696261
      64:	2e382e34 	mrccs	14, 1, r2, cr8, cr4, {1}
      68:	6e692f33 	mcrvs	15, 3, r2, cr9, cr3, {1}
      6c:	64756c63 	ldrbtvs	r6, [r5], #-3171	; 0xc63
      70:	002e0065 	eoreq	r0, lr, r5, rrx
      74:	6573552f 	ldrbvs	r5, [r3, #-1327]!	; 0x52f
      78:	622f7372 	eorvs	r7, pc, #-939524095	; 0xc8000001
      7c:	6e616972 	mcrvs	9, 3, r6, cr1, cr2, {3}
      80:	2f6e756a 	svccs	0x006e756a
      84:	6b736544 	blvs	1cd959c <__bss_end__+0x1cceaa4>
      88:	2f706f74 	svccs	0x00706f74
      8c:	6f686373 	svcvs	0x00686373
      90:	532f6c6f 	teqpl	pc, #28416	; 0x6f00
      94:	6e697270 	mcrvs	2, 3, r7, cr9, cr0, {3}
      98:	32393167 	eorscc	r3, r9, #-1073741799	; 0xc0000019
      9c:	53432f30 	movtpl	r2, #16176	; 0x3f30
      a0:	4c303432 	cfldrsmi	mvf3, [r0], #-200	; 0xffffff38
      a4:	73632f58 	cmnvc	r3, #88, 30	; 0x160
      a8:	6c303432 	cfldrsvs	mvf3, [r0], #-200	; 0xffffff38
      ac:	30322d78 	eorscc	r2, r2, r8, ror sp
      b0:	2f727073 	svccs	0x00727073
      b4:	7062696c 	rsbvc	r6, r2, ip, ror #18
      b8:	6e692f69 	cdpvs	15, 6, cr2, cr9, cr9, {3}
      bc:	64756c63 	ldrbtvs	r6, [r5], #-3171	; 0xc63
      c0:	752f0065 	strvc	r0, [pc, #-101]!	; 63 <_start-0x7f9d>
      c4:	6c2f7273 	sfmvs	f7, 4, [pc], #-460	; ffffff00 <__bss_end__+0xffff5408>
      c8:	6c61636f 	stclvs	3, cr6, [r1], #-444	; 0xfffffe44
      cc:	6c65432f 	stclvs	3, cr4, [r5], #-188	; 0xffffff44
      d0:	2f72616c 	svccs	0x0072616c
      d4:	2d6d7261 	sfmcs	f7, 2, [sp, #-388]!	; 0xfffffe7c
      d8:	656e6f6e 	strbvs	r6, [lr, #-3950]!	; 0xf6e
      dc:	6261652d 	rsbvs	r6, r1, #188743680	; 0xb400000
      e0:	2e342f69 	cdpcs	15, 3, cr2, cr4, cr9, {3}
      e4:	2d332e38 	ldccs	14, cr2, [r3, #-224]!	; 0xffffff20
      e8:	37317363 	ldrcc	r7, [r1, -r3, ror #6]!
      ec:	612f6530 	teqvs	pc, r0, lsr r5	; <UNPREDICTABLE>
      f0:	6e2d6d72 	mcrvs	13, 1, r6, cr13, cr2, {3}
      f4:	2d656e6f 	stclcs	14, cr6, [r5, #-444]!	; 0xfffffe44
      f8:	69626165 	stmdbvs	r2!, {r0, r2, r5, r6, r8, sp, lr}^
      fc:	636e692f 	cmnvs	lr, #770048	; 0xbc000
     100:	6564756c 	strbvs	r7, [r4, #-1388]!	; 0x56c
     104:	61700000 	cmnvs	r0, r0
     108:	2d327472 	cfldrscs	mvf7, [r2, #-456]!	; 0xfffffe38
     10c:	74736574 	ldrbtvc	r6, [r3], #-1396	; 0x574
     110:	00632e36 	rsbeq	r2, r3, r6, lsr lr
     114:	73000001 	movwvc	r0, #1
     118:	65646474 	strbvs	r6, [r4, #-1140]!	; 0x474
     11c:	00682e66 	rsbeq	r2, r8, r6, ror #28
     120:	73000002 	movwvc	r0, #2
     124:	6e696474 	mcrvs	4, 3, r6, cr9, cr4, {3}
     128:	63672d74 	cmnvs	r7, #116, 26	; 0x1d00
     12c:	00682e63 	rsbeq	r2, r8, r3, ror #28
     130:	63000002 	movwvs	r0, #2
     134:	6c6c616b 	stfvse	f6, [ip], #-428	; 0xfffffe54
     138:	682e636f 	stmdavs	lr!, {r0, r1, r2, r3, r5, r6, r8, r9, sp, lr}
     13c:	00000300 	andeq	r0, r0, r0, lsl #6
     140:	2e697072 	mcrcs	0, 3, r7, cr9, cr2, {3}
     144:	00040068 	andeq	r0, r4, r8, rrx
     148:	72747300 	rsbsvc	r7, r4, #0, 6
     14c:	2e676e69 	cdpcs	14, 6, cr6, cr7, cr9, {3}
     150:	00050068 	andeq	r0, r5, r8, rrx
     154:	05000000 	streq	r0, [r0, #-0]
     158:	00801002 	addeq	r1, r0, r2
     15c:	bb301600 	bllt	c05964 <__bss_end__+0xbfae6c>
     160:	2fbc849f 	svccs	0x00bc849f
     164:	4c844c4d 	stcmi	12, cr4, [r4], {77}	; 0x4d
     168:	85d867a0 	ldrbhi	r6, [r8, #1952]	; 0x7a0
     16c:	a083d983 	addge	sp, r3, r3, lsl #19
     170:	01002202 	tsteq	r0, r2, lsl #4
     174:	0002b101 	andeq	fp, r2, r1, lsl #2
     178:	a4000200 	strge	r0, [r0], #-512	; 0x200
     17c:	02000001 	andeq	r0, r0, #1
     180:	0d0efb01 	vstreq	d15, [lr, #-4]
     184:	01010100 	mrseq	r0, (UNDEF: 17)
     188:	00000001 	andeq	r0, r0, r1
     18c:	01000001 	tsteq	r0, r1
     190:	7273752f 	rsbsvc	r7, r3, #197132288	; 0xbc00000
     194:	636f6c2f 	cmnvs	pc, #12032	; 0x2f00
     198:	432f6c61 	teqmi	pc, #24832	; 0x6100
     19c:	616c6c65 	cmnvs	ip, r5, ror #24
     1a0:	72612f72 	rsbvc	r2, r1, #456	; 0x1c8
     1a4:	6f6e2d6d 	svcvs	0x006e2d6d
     1a8:	652d656e 	strvs	r6, [sp, #-1390]!	; 0x56e
     1ac:	2f696261 	svccs	0x00696261
     1b0:	2e382e34 	mrccs	14, 1, r2, cr8, cr4, {1}
     1b4:	73632d33 	cmnvc	r3, #3264	; 0xcc0
     1b8:	65303731 	ldrvs	r3, [r0, #-1841]!	; 0x731
     1bc:	62696c2f 	rsbvs	r6, r9, #12032	; 0x2f00
     1c0:	6363672f 	cmnvs	r3, #12320768	; 0xbc0000
     1c4:	6d72612f 	ldfvse	f6, [r2, #-188]!	; 0xffffff44
     1c8:	6e6f6e2d 	cdpvs	14, 6, cr6, cr15, cr13, {1}
     1cc:	61652d65 	cmnvs	r5, r5, ror #26
     1d0:	342f6962 	strtcc	r6, [pc], #-2402	; 1d8 <_start-0x7e28>
     1d4:	332e382e 	teqcc	lr, #3014656	; 0x2e0000
     1d8:	636e692f 	cmnvs	lr, #770048	; 0xbc000
     1dc:	6564756c 	strbvs	r7, [r4, #-1388]!	; 0x56c
     1e0:	73552f00 	cmpvc	r5, #0, 30
     1e4:	2f737265 	svccs	0x00737265
     1e8:	61697262 	cmnvs	r9, r2, ror #4
     1ec:	6e756a6e 	vsubvs.f32	s13, s10, s29
     1f0:	7365442f 	cmnvc	r5, #788529152	; 0x2f000000
     1f4:	706f746b 	rsbvc	r7, pc, fp, ror #8
     1f8:	6863732f 	stmdavs	r3!, {r0, r1, r2, r3, r5, r8, r9, ip, sp, lr}^
     1fc:	2f6c6f6f 	svccs	0x006c6f6f
     200:	69727053 	ldmdbvs	r2!, {r0, r1, r4, r6, ip, sp, lr}^
     204:	3931676e 	ldmdbcc	r1!, {r1, r2, r3, r5, r6, r8, r9, sl, sp, lr}
     208:	432f3032 	teqmi	pc, #50	; 0x32
     20c:	30343253 	eorscc	r3, r4, r3, asr r2
     210:	632f584c 	teqvs	pc, #76, 16	; 0x4c0000
     214:	30343273 	eorscc	r3, r4, r3, ror r2
     218:	322d786c 	eorcc	r7, sp, #108, 16	; 0x6c0000
     21c:	72707330 	rsbsvc	r7, r0, #48, 6	; 0xc0000000
     220:	62696c2f 	rsbvs	r6, r9, #12032	; 0x2f00
     224:	692f6970 	stmdbvs	pc!, {r4, r5, r6, r8, fp, sp, lr}	; <UNPREDICTABLE>
     228:	756c636e 	strbvc	r6, [ip, #-878]!	; 0x36e
     22c:	2f006564 	svccs	0x00006564
     230:	2f727375 	svccs	0x00727375
     234:	61636f6c 	cmnvs	r3, ip, ror #30
     238:	65432f6c 	strbvs	r2, [r3, #-3948]	; 0xf6c
     23c:	72616c6c 	rsbvc	r6, r1, #108, 24	; 0x6c00
     240:	6d72612f 	ldfvse	f6, [r2, #-188]!	; 0xffffff44
     244:	6e6f6e2d 	cdpvs	14, 6, cr6, cr15, cr13, {1}
     248:	61652d65 	cmnvs	r5, r5, ror #26
     24c:	342f6962 	strtcc	r6, [pc], #-2402	; 254 <_start-0x7dac>
     250:	332e382e 	teqcc	lr, #3014656	; 0x2e0000
     254:	3173632d 	cmncc	r3, sp, lsr #6
     258:	2f653037 	svccs	0x00653037
     25c:	2d6d7261 	sfmcs	f7, 2, [sp, #-388]!	; 0xfffffe7c
     260:	656e6f6e 	strbvs	r6, [lr, #-3950]!	; 0xf6e
     264:	6261652d 	rsbvs	r6, r1, #188743680	; 0xb400000
     268:	6e692f69 	cdpvs	15, 6, cr2, cr9, cr9, {3}
     26c:	64756c63 	ldrbtvs	r6, [r5], #-3171	; 0xc63
     270:	552f0065 	strpl	r0, [pc, #-101]!	; 213 <_start-0x7ded>
     274:	73726573 	cmnvc	r2, #482344960	; 0x1cc00000
     278:	6972622f 	ldmdbvs	r2!, {r0, r1, r2, r3, r5, r9, sp, lr}^
     27c:	756a6e61 	strbvc	r6, [sl, #-3681]!	; 0xe61
     280:	65442f6e 	strbvs	r2, [r4, #-3950]	; 0xf6e
     284:	6f746b73 	svcvs	0x00746b73
     288:	63732f70 	cmnvs	r3, #112, 30	; 0x1c0
     28c:	6c6f6f68 	stclvs	15, cr6, [pc], #-416	; f4 <_start-0x7f0c>
     290:	7270532f 	rsbsvc	r5, r0, #-1140850688	; 0xbc000000
     294:	31676e69 	cmncc	r7, r9, ror #28
     298:	2f303239 	svccs	0x00303239
     29c:	34325343 	ldrtcc	r5, [r2], #-835	; 0x343
     2a0:	2f584c30 	svccs	0x00584c30
     2a4:	34327363 	ldrtcc	r7, [r2], #-867	; 0x363
     2a8:	2d786c30 	ldclcs	12, cr6, [r8, #-192]!	; 0xffffff40
     2ac:	70733032 	rsbsvc	r3, r3, r2, lsr r0
     2b0:	696c2f72 	stmdbvs	ip!, {r1, r4, r5, r6, r8, r9, sl, fp, sp}^
     2b4:	2f697062 	svccs	0x00697062
     2b8:	6362696c 	cmnvs	r2, #108, 18	; 0x1b0000
     2bc:	6b630000 	blvs	18c02c4 <__bss_end__+0x18b57cc>
     2c0:	6f6c6c61 	svcvs	0x006c6c61
     2c4:	00632e63 	rsbeq	r2, r3, r3, ror #28
     2c8:	63000000 	movwvs	r0, #0
     2cc:	6c6c616b 	stfvse	f6, [ip], #-428	; 0xfffffe54
     2d0:	692d636f 	pushvs	{r0, r1, r2, r3, r5, r6, r8, r9, sp, lr}
     2d4:	7265746e 	rsbvc	r7, r5, #1845493760	; 0x6e000000
     2d8:	2e6c616e 	powcsez	f6, f4, #0.5
     2dc:	00000068 	andeq	r0, r0, r8, rrx
     2e0:	64747300 	ldrbtvs	r7, [r4], #-768	; 0x300
     2e4:	2e666564 	cdpcs	5, 6, cr6, cr6, cr4, {3}
     2e8:	00010068 	andeq	r0, r1, r8, rrx
     2ec:	64747300 	ldrbtvs	r7, [r4], #-768	; 0x300
     2f0:	2d746e69 	ldclcs	14, cr6, [r4, #-420]!	; 0xfffffe5c
     2f4:	2e636367 	cdpcs	3, 6, cr6, cr3, cr7, {3}
     2f8:	00010068 	andeq	r0, r1, r8, rrx
     2fc:	69707200 	ldmdbvs	r0!, {r9, ip, sp, lr}^
     300:	0200682e 	andeq	r6, r0, #3014656	; 0x2e0000
     304:	74730000 	ldrbtvc	r0, [r3], #-0
     308:	676e6972 			; <UNDEFINED> instruction: 0x676e6972
     30c:	0300682e 	movweq	r6, #2094	; 0x82e
     310:	696c0000 	stmdbvs	ip!, {}^	; <UNPREDICTABLE>
     314:	652d6362 	strvs	r6, [sp, #-866]!	; 0x362
     318:	61727478 	cmnvs	r2, r8, ror r4
     31c:	0400682e 	streq	r6, [r0], #-2094	; 0x82e
     320:	00000000 	andeq	r0, r0, r0
     324:	81740205 	cmnhi	r4, r5, lsl #4
     328:	35030000 	strcc	r0, [r3, #-0]
     32c:	674b6801 	strbvs	r6, [fp, -r1, lsl #16]
     330:	ca030204 	bgt	c0b48 <__bss_end__+0xb6050>
     334:	a0200800 	eorge	r0, r0, r0, lsl #16
     338:	04bbd967 	ldrteq	sp, [fp], #2407	; 0x967
     33c:	7fb00301 	svcvc	0x00b00301
     340:	020047d6 	andeq	r4, r0, #56098816	; 0x3580000
     344:	2e060104 	adfcss	f0, f6, f4
     348:	6a475006 	bvs	11d4368 <__bss_end__+0x11c9870>
     34c:	58034bd7 	stmdapl	r3, {r0, r1, r2, r4, r6, r7, r8, r9, fp, lr}
     350:	2f2f4b66 	svccs	0x002f4b66
     354:	2f4b2f2f 	svccs	0x004b2f2f
     358:	2f4b2f2f 	svccs	0x004b2f2f
     35c:	31302f2f 	teqcc	r0, pc, lsr #30
     360:	4783854b 	strmi	r8, [r3, fp, asr #10]
     364:	17032f4f 	strne	r2, [r3, -pc, asr #30]
     368:	49304c2e 	ldmdbmi	r0!, {r1, r2, r3, r5, sl, fp, lr}
     36c:	0e030204 	cdpeq	2, 0, cr0, cr3, cr4, {0}
     370:	01044cd6 	ldrdeq	r4, [r4, -r6]
     374:	082e7103 	stmdaeq	lr!, {r0, r1, r8, ip, sp, lr}
     378:	7fb70397 	svcvc	0x00b70397
     37c:	0200672e 	andeq	r6, r0, #12058624	; 0xb80000
     380:	4a060104 	bmi	180798 <__bss_end__+0x175ca0>
     384:	6783d706 	strvs	sp, [r3, r6, lsl #14]
     388:	4b2f2f4b 	blmi	bcc0bc <__bss_end__+0xbc15c4>
     38c:	d600c803 	strle	ip, [r0], -r3, lsl #16
     390:	040200a1 	streq	r0, [r2], #-161	; 0xa1
     394:	06820601 	streq	r0, [r2], r1, lsl #12
     398:	4c31a0d7 	ldcmi	0, cr10, [r1], #-860	; 0xfffffca4
     39c:	01040200 	mrseq	r0, R12_usr
     3a0:	d9066606 	stmdble	r6, {r1, r2, r9, sl, sp, lr}
     3a4:	9fa0694b 	svcls	0x00a0694b
     3a8:	58080e03 	stmdapl	r8, {r0, r1, r9, sl, fp}
     3ac:	040200be 	streq	r0, [r2], #-190	; 0xbe
     3b0:	06820601 	streq	r0, [r2], r1, lsl #12
     3b4:	314ba0d7 	ldrdcc	sl, [fp, #-7]
     3b8:	bb92084b 	bllt	fe4824ec <__bss_end__+0xfe4779f4>
     3bc:	4b172a02 	blmi	5cabcc <__bss_end__+0x5c00d4>
     3c0:	4b2f672f 	blmi	bda084 <__bss_end__+0xbcf58c>
     3c4:	6969674b 	stmdbvs	r9!, {r0, r1, r3, r6, r8, r9, sl, sp, lr}^
     3c8:	bb030204 	bllt	c0be0 <__bss_end__+0xb60e8>
     3cc:	04302e7f 	ldrteq	r2, [r0], #-3711	; 0xe7f
     3d0:	00c60301 	sbceq	r0, r6, r1, lsl #6
     3d4:	0200682e 	andeq	r6, r0, #3014656	; 0x2e0000
     3d8:	82060104 	andhi	r0, r6, #4, 2
     3dc:	0200d706 	andeq	sp, r0, #1572864	; 0x180000
     3e0:	82060104 	andhi	r0, r6, #4, 2
     3e4:	02d8d806 	sbcseq	sp, r8, #393216	; 0x60000
     3e8:	674b1522 	strbvs	r1, [fp, -r2, lsr #10]
     3ec:	2f332fa0 	svccs	0x00332fa0
     3f0:	2bc04c83 	blcs	ff013604 <__bss_end__+0xff008b0c>
     3f4:	3336332d 	teqcc	r6, #-1275068416	; 0xb4000000
     3f8:	304a7303 	subcc	r7, sl, r3, lsl #6
     3fc:	4c4b832f 	mcrrmi	3, 2, r8, fp, cr15
     400:	83314b83 	teqhi	r1, #134144	; 0x20c00
     404:	02003183 	andeq	r3, r0, #-1073741792	; 0xc0000020
     408:	6f030104 	svcvs	0x00030104
     40c:	6615039e 			; <UNDEFINED> instruction: 0x6615039e
     410:	2f9fd84b 	svccs	0x009fd84b
     414:	4b2f2508 	blmi	bc983c <__bss_end__+0xbbed44>
     418:	6730694c 	ldrvs	r6, [r0, -ip, asr #18]!
     41c:	4d852f2f 	stcmi	15, cr2, [r5, #188]	; 0xbc
     420:	2f4c3445 	svccs	0x004c3445
     424:	00060267 	andeq	r0, r6, r7, ror #4
     428:	021b0101 	andseq	r0, fp, #1073741824	; 0x40000000
     42c:	00020000 	andeq	r0, r2, r0
     430:	000000f9 	strdeq	r0, [r0], -r9
     434:	0efb0102 	cdpeq	1, 15, cr0, cr11, cr2, {0}
     438:	0101000d 	tsteq	r1, sp
     43c:	00000101 	andeq	r0, r0, r1, lsl #2
     440:	00000100 	andeq	r0, r0, r0, lsl #2
     444:	73752f01 	cmnvc	r5, #1, 30
     448:	6f6c2f72 	svcvs	0x006c2f72
     44c:	2f6c6163 	svccs	0x006c6163
     450:	6c6c6543 	cfstr64vs	mvdx6, [ip], #-268	; 0xfffffef4
     454:	612f7261 	teqvs	pc, r1, ror #4
     458:	6e2d6d72 	mcrvs	13, 1, r6, cr13, cr2, {3}
     45c:	2d656e6f 	stclcs	14, cr6, [r5, #-444]!	; 0xfffffe44
     460:	69626165 	stmdbvs	r2!, {r0, r2, r5, r6, r8, sp, lr}^
     464:	382e342f 	stmdacc	lr!, {r0, r1, r2, r3, r5, sl, ip, sp}
     468:	632d332e 	teqvs	sp, #-1207959552	; 0xb8000000
     46c:	30373173 	eorscc	r3, r7, r3, ror r1
     470:	696c2f65 	stmdbvs	ip!, {r0, r2, r5, r6, r8, r9, sl, fp, sp}^
     474:	63672f62 	cmnvs	r7, #392	; 0x188
     478:	72612f63 	rsbvc	r2, r1, #396	; 0x18c
     47c:	6f6e2d6d 	svcvs	0x006e2d6d
     480:	652d656e 	strvs	r6, [sp, #-1390]!	; 0x56e
     484:	2f696261 	svccs	0x00696261
     488:	2e382e34 	mrccs	14, 1, r2, cr8, cr4, {1}
     48c:	6e692f33 	mcrvs	15, 3, r2, cr9, cr3, {1}
     490:	64756c63 	ldrbtvs	r6, [r5], #-3171	; 0xc63
     494:	552f0065 	strpl	r0, [pc, #-101]!	; 437 <_start-0x7bc9>
     498:	73726573 	cmnvc	r2, #482344960	; 0x1cc00000
     49c:	6972622f 	ldmdbvs	r2!, {r0, r1, r2, r3, r5, r9, sp, lr}^
     4a0:	756a6e61 	strbvc	r6, [sl, #-3681]!	; 0xe61
     4a4:	65442f6e 	strbvs	r2, [r4, #-3950]	; 0xf6e
     4a8:	6f746b73 	svcvs	0x00746b73
     4ac:	63732f70 	cmnvs	r3, #112, 30	; 0x1c0
     4b0:	6c6f6f68 	stclvs	15, cr6, [pc], #-416	; 318 <_start-0x7ce8>
     4b4:	7270532f 	rsbsvc	r5, r0, #-1140850688	; 0xbc000000
     4b8:	31676e69 	cmncc	r7, r9, ror #28
     4bc:	2f303239 	svccs	0x00303239
     4c0:	34325343 	ldrtcc	r5, [r2], #-835	; 0x343
     4c4:	2f584c30 	svccs	0x00584c30
     4c8:	34327363 	ldrtcc	r7, [r2], #-867	; 0x363
     4cc:	2d786c30 	ldclcs	12, cr6, [r8, #-192]!	; 0xffffff40
     4d0:	70733032 	rsbsvc	r3, r3, r2, lsr r0
     4d4:	696c2f72 	stmdbvs	ip!, {r1, r4, r5, r6, r8, r9, sl, fp, sp}^
     4d8:	2f697062 	svccs	0x00697062
     4dc:	6c636e69 	stclvs	14, cr6, [r3], #-420	; 0xfffffe5c
     4e0:	00656475 	rsbeq	r6, r5, r5, ror r4
     4e4:	2d6b6300 	stclcs	3, cr6, [fp, #-0]
     4e8:	632e6367 	teqvs	lr, #-1677721599	; 0x9c000001
     4ec:	00000000 	andeq	r0, r0, r0
     4f0:	69647473 	stmdbvs	r4!, {r0, r1, r4, r5, r6, sl, ip, sp, lr}^
     4f4:	672d746e 	strvs	r7, [sp, -lr, ror #8]!
     4f8:	682e6363 	stmdavs	lr!, {r0, r1, r5, r6, r8, r9, sp, lr}
     4fc:	00000100 	andeq	r0, r0, r0, lsl #2
     500:	6c616b63 	stclvs	11, cr6, [r1], #-396	; 0xfffffe74
     504:	2d636f6c 	stclcs	15, cr6, [r3, #-432]!	; 0xfffffe50
     508:	65746e69 	ldrbvs	r6, [r4, #-3689]!	; 0xe69
     50c:	6c616e72 	stclvs	14, cr6, [r1], #-456	; 0xfffffe38
     510:	0000682e 	andeq	r6, r0, lr, lsr #16
     514:	70720000 	rsbsvc	r0, r2, r0
     518:	00682e69 	rsbeq	r2, r8, r9, ror #28
     51c:	63000002 	movwvs	r0, #2
     520:	6c6c616b 	stfvse	f6, [ip], #-428	; 0xfffffe54
     524:	682e636f 	stmdavs	lr!, {r0, r1, r2, r3, r5, r6, r8, r9, sp, lr}
     528:	00000000 	andeq	r0, r0, r0
     52c:	02050000 	andeq	r0, r5, #0
     530:	00008900 	andeq	r8, r0, r0, lsl #18
     534:	13011b03 	movwne	r1, #6915	; 0x1b03
     538:	01040200 	mrseq	r0, R12_usr
     53c:	06828206 	streq	r8, [r2], r6, lsl #4
     540:	4a15039f 	bmi	5413c4 <__bss_end__+0x5368cc>
     544:	302f694d 	eorcc	r6, pc, sp, asr #18
     548:	4b316867 	blmi	c5a6ec <__bss_end__+0xc4fbf4>
     54c:	30684c49 	rsbcc	r4, r8, r9, asr #24
     550:	01040200 	mrseq	r0, R12_usr
     554:	632e7203 	teqvs	lr, #805306368	; 0x30000000
     558:	032e1603 	teqeq	lr, #3145728	; 0x300000
     55c:	4b4c2e31 	blmi	130be28 <__bss_end__+0x1301330>
     560:	0b03464c 	bleq	d1e98 <__bss_end__+0xc73a0>
     564:	2b293066 	blcs	a4c704 <__bss_end__+0xa41c0c>
     568:	9f67672f 	svcls	0x0067672f
     56c:	02002f4c 	andeq	r2, r0, #76, 30	; 0x130
     570:	4a060104 	bmi	180988 <__bss_end__+0x175e90>
     574:	32a06706 	adccc	r6, r0, #1572864	; 0x180000
     578:	0402002f 	streq	r0, [r2], #-47	; 0x2f
     57c:	66710301 	ldrbtvs	r0, [r1], -r1, lsl #6
     580:	9f4a1203 	svcls	0x004a1203
     584:	4cbca04b 	ldcmi	0, cr10, [ip], #300	; 0x12c
     588:	087fbc03 	ldmdaeq	pc!, {r0, r1, sl, fp, ip, sp, pc}^	; <UNPREDICTABLE>
     58c:	02006758 	andeq	r6, r0, #88, 14	; 0x1600000
     590:	4a060104 	bmi	1809a8 <__bss_end__+0x175eb0>
     594:	0200d806 	andeq	sp, r0, #393216	; 0x60000
     598:	4a060104 	bmi	1809b0 <__bss_end__+0x175eb8>
     59c:	0200d706 	andeq	sp, r0, #1572864	; 0x180000
     5a0:	4a060104 	bmi	1809b8 <__bss_end__+0x175ec0>
     5a4:	6884dc06 	stmvs	r4, {r1, r2, sl, fp, ip, lr, pc}
     5a8:	31696869 	cmncc	r9, r9, ror #16
     5ac:	04020085 	streq	r0, [r2], #-133	; 0x85
     5b0:	4a7a0301 	bmi	1e811bc <__bss_end__+0x1e766c4>
     5b4:	01040200 	mrseq	r0, R12_usr
     5b8:	032e7303 	teqeq	lr, #201326592	; 0xc000000
     5bc:	d2034a15 	andle	r4, r3, #86016	; 0x15000
     5c0:	2f4dba00 	svccs	0x004dba00
     5c4:	0402002d 	streq	r0, [r2], #-45	; 0x2d
     5c8:	02002f02 	andeq	r2, r0, #2, 30
     5cc:	00650204 	rsbeq	r0, r5, r4, lsl #4
     5d0:	06010402 	streq	r0, [r1], -r2, lsl #8
     5d4:	6750062e 	ldrbvs	r0, [r0, -lr, lsr #12]
     5d8:	67660a03 	strbvs	r0, [r6, -r3, lsl #20]!
     5dc:	01040200 	mrseq	r0, R12_usr
     5e0:	02006606 	andeq	r6, r0, #6291456	; 0x600000
     5e4:	d9060204 	stmdble	r6, {r2, r9}
     5e8:	02040200 	andeq	r0, r4, #0, 4
     5ec:	02006765 	andeq	r6, r0, #26476544	; 0x1940000
     5f0:	502d0104 	eorpl	r0, sp, r4, lsl #2
     5f4:	67696a6c 	strbvs	r6, [r9, -ip, ror #20]!
     5f8:	3c083803 	stccc	8, cr3, [r8], {3}
     5fc:	464c4b4c 	strbmi	r4, [ip], -ip, asr #22
     600:	4b660b03 	blmi	1983214 <__bss_end__+0x197871c>
     604:	2f2e7903 	svccs	0x002e7903
     608:	30676767 	rsbcc	r6, r7, r7, ror #14
     60c:	002fa19f 	mlaeq	pc, pc, r1, sl	; <UNPREDICTABLE>
     610:	03010402 	movweq	r0, #5122	; 0x1402
     614:	13036675 	movwne	r6, #13941	; 0x3675
     618:	bc4bf44a 	cfstrdlt	mvd15, [fp], {74}	; 0x4a
     61c:	7fb0034c 	svcvc	0x00b0034c
     620:	2f4b9008 	svccs	0x004b9008
     624:	1332314b 	teqne	r2, #-1073741806	; 0xc0000012
     628:	8383d867 	orrhi	sp, r3, #6750208	; 0x670000
     62c:	400883d8 	ldrdmi	r8, [r8], -r8	; <UNPREDICTABLE>
     630:	d8671332 	stmdale	r7!, {r1, r4, r5, r8, r9, ip}^
     634:	d84b4b84 	stmdale	fp, {r2, r7, r8, r9, fp, lr}^
     638:	3e08149f 	mcrcc	4, 0, r1, cr8, cr15, {4}
     63c:	0827032f 	stmdaeq	r7!, {r0, r1, r2, r3, r5, r8, r9}
     640:	332f2f3c 	teqcc	pc, #60, 30	; 0xf0
     644:	01000202 	tsteq	r0, r2, lsl #4
     648:	0000de01 	andeq	sp, r0, r1, lsl #28
     64c:	83000200 	movwhi	r0, #512	; 0x200
     650:	02000000 	andeq	r0, r0, #0
     654:	0d0efb01 	vstreq	d15, [lr, #-4]
     658:	01010100 	mrseq	r0, (UNDEF: 17)
     65c:	00000001 	andeq	r0, r0, r1
     660:	01000001 	tsteq	r0, r1
     664:	6362696c 	cmnvs	r2, #108, 18	; 0x1b0000
     668:	73752f00 	cmnvc	r5, #0, 30
     66c:	6f6c2f72 	svcvs	0x006c2f72
     670:	2f6c6163 	svccs	0x006c6163
     674:	6c6c6543 	cfstr64vs	mvdx6, [ip], #-268	; 0xfffffef4
     678:	612f7261 	teqvs	pc, r1, ror #4
     67c:	6e2d6d72 	mcrvs	13, 1, r6, cr13, cr2, {3}
     680:	2d656e6f 	stclcs	14, cr6, [r5, #-444]!	; 0xfffffe44
     684:	69626165 	stmdbvs	r2!, {r0, r2, r5, r6, r8, sp, lr}^
     688:	382e342f 	stmdacc	lr!, {r0, r1, r2, r3, r5, sl, ip, sp}
     68c:	632d332e 	teqvs	sp, #-1207959552	; 0xb8000000
     690:	30373173 	eorscc	r3, r7, r3, ror r1
     694:	696c2f65 	stmdbvs	ip!, {r0, r2, r5, r6, r8, r9, sl, fp, sp}^
     698:	63672f62 	cmnvs	r7, #392	; 0x188
     69c:	72612f63 	rsbvc	r2, r1, #396	; 0x18c
     6a0:	6f6e2d6d 	svcvs	0x006e2d6d
     6a4:	652d656e 	strvs	r6, [sp, #-1390]!	; 0x56e
     6a8:	2f696261 	svccs	0x00696261
     6ac:	2e382e34 	mrccs	14, 1, r2, cr8, cr4, {1}
     6b0:	6e692f33 	mcrvs	15, 3, r2, cr9, cr3, {1}
     6b4:	64756c63 	ldrbtvs	r6, [r5], #-3171	; 0xc63
     6b8:	68000065 	stmdavs	r0, {r0, r2, r5, r6}
     6bc:	2e687361 	cdpcs	3, 6, cr7, cr8, cr1, {3}
     6c0:	00010063 	andeq	r0, r1, r3, rrx
     6c4:	64747300 	ldrbtvs	r7, [r4], #-768	; 0x300
     6c8:	2d746e69 	ldclcs	14, cr6, [r4, #-420]!	; 0xfffffe5c
     6cc:	2e636367 	cdpcs	3, 6, cr6, cr3, cr7, {3}
     6d0:	00020068 	andeq	r0, r2, r8, rrx
     6d4:	05000000 	streq	r0, [r0, #-0]
     6d8:	008f9402 	addeq	r9, pc, r2, lsl #8
     6dc:	010e0300 	mrseq	r0, ELR_hyp
     6e0:	2f843130 	svccs	0x00843130
     6e4:	04020031 	streq	r0, [r2], #-49	; 0x31
     6e8:	02002f02 	andeq	r2, r0, #2, 30
     6ec:	00830204 	addeq	r0, r3, r4, lsl #4
     6f0:	83020402 	movwhi	r0, #9218	; 0x2402
     6f4:	02040200 	andeq	r0, r4, #0, 4
     6f8:	0402002f 	streq	r0, [r2], #-47	; 0x2f
     6fc:	02002f02 	andeq	r2, r0, #2, 30
     700:	00290204 	eoreq	r0, r9, r4, lsl #4
     704:	06010402 	streq	r0, [r1], -r2, lsl #8
     708:	0903062e 	stmdbeq	r3, {r1, r2, r3, r5, r9, sl}
     70c:	2f83d74a 	svccs	0x0083d74a
     710:	832f2f4b 	teqhi	pc, #300	; 0x12c
     714:	4b2f2f2f 	blmi	bcc3d8 <__bss_end__+0xbc18e0>
     718:	2f2f322f 	svccs	0x002f322f
     71c:	302f2f2f 	eorcc	r2, pc, pc, lsr #30
     720:	032e5a03 	teqeq	lr, #12288	; 0x3000
     724:	04022e27 	streq	r2, [r2], #-3623	; 0xe27
     728:	ec010100 	stfs	f0, [r1], {-0}
     72c:	02000000 	andeq	r0, r0, #0
     730:	0000d000 	andeq	sp, r0, r0
     734:	fb010200 	blx	40f3e <__bss_end__+0x36446>
     738:	01000d0e 	tsteq	r0, lr, lsl #26
     73c:	00010101 	andeq	r0, r1, r1, lsl #2
     740:	00010000 	andeq	r0, r1, r0
     744:	696c0100 	stmdbvs	ip!, {r8}^
     748:	2f006362 	svccs	0x00006362
     74c:	2f727375 	svccs	0x00727375
     750:	61636f6c 	cmnvs	r3, ip, ror #30
     754:	65432f6c 	strbvs	r2, [r3, #-3948]	; 0xf6c
     758:	72616c6c 	rsbvc	r6, r1, #108, 24	; 0x6c00
     75c:	6d72612f 	ldfvse	f6, [r2, #-188]!	; 0xffffff44
     760:	6e6f6e2d 	cdpvs	14, 6, cr6, cr15, cr13, {1}
     764:	61652d65 	cmnvs	r5, r5, ror #26
     768:	342f6962 	strtcc	r6, [pc], #-2402	; 770 <_start-0x7890>
     76c:	332e382e 	teqcc	lr, #3014656	; 0x2e0000
     770:	3173632d 	cmncc	r3, sp, lsr #6
     774:	2f653037 	svccs	0x00653037
     778:	2f62696c 	svccs	0x0062696c
     77c:	2f636367 	svccs	0x00636367
     780:	2d6d7261 	sfmcs	f7, 2, [sp, #-388]!	; 0xfffffe7c
     784:	656e6f6e 	strbvs	r6, [lr, #-3950]!	; 0xf6e
     788:	6261652d 	rsbvs	r6, r1, #188743680	; 0xb400000
     78c:	2e342f69 	cdpcs	15, 3, cr2, cr4, cr9, {3}
     790:	2f332e38 	svccs	0x00332e38
     794:	6c636e69 	stclvs	14, cr6, [r3], #-420	; 0xfffffe5c
     798:	00656475 	rsbeq	r6, r5, r5, ror r4
     79c:	7273752f 	rsbsvc	r7, r3, #197132288	; 0xbc00000
     7a0:	636f6c2f 	cmnvs	pc, #12032	; 0x2f00
     7a4:	432f6c61 	teqmi	pc, #24832	; 0x6100
     7a8:	616c6c65 	cmnvs	ip, r5, ror #24
     7ac:	72612f72 	rsbvc	r2, r1, #456	; 0x1c8
     7b0:	6f6e2d6d 	svcvs	0x006e2d6d
     7b4:	652d656e 	strvs	r6, [sp, #-1390]!	; 0x56e
     7b8:	2f696261 	svccs	0x00696261
     7bc:	2e382e34 	mrccs	14, 1, r2, cr8, cr4, {1}
     7c0:	73632d33 	cmnvc	r3, #3264	; 0xcc0
     7c4:	65303731 	ldrvs	r3, [r0, #-1841]!	; 0x731
     7c8:	6d72612f 	ldfvse	f6, [r2, #-188]!	; 0xffffff44
     7cc:	6e6f6e2d 	cdpvs	14, 6, cr6, cr15, cr13, {1}
     7d0:	61652d65 	cmnvs	r5, r5, ror #26
     7d4:	692f6962 	stmdbvs	pc!, {r1, r5, r6, r8, fp, sp, lr}	; <UNPREDICTABLE>
     7d8:	756c636e 	strbvc	r6, [ip, #-878]!	; 0x36e
     7dc:	00006564 	andeq	r6, r0, r4, ror #10
     7e0:	736d656d 	cmnvc	sp, #457179136	; 0x1b400000
     7e4:	632e7465 	teqvs	lr, #1694498816	; 0x65000000
     7e8:	00000100 	andeq	r0, r0, r0, lsl #2
     7ec:	64647473 	strbtvs	r7, [r4], #-1139	; 0x473
     7f0:	682e6665 	stmdavs	lr!, {r0, r2, r5, r6, r9, sl, sp, lr}
     7f4:	00000200 	andeq	r0, r0, r0, lsl #4
     7f8:	69727473 	ldmdbvs	r2!, {r0, r1, r4, r5, r6, sl, ip, sp, lr}^
     7fc:	682e676e 	stmdavs	lr!, {r1, r2, r3, r5, r6, r8, r9, sl, sp, lr}
     800:	00000300 	andeq	r0, r0, r0, lsl #6
     804:	02050000 	andeq	r0, r5, #0
     808:	00009084 	andeq	r9, r0, r4, lsl #1
     80c:	2f4c1314 	svccs	0x004c1314
     810:	01040200 	mrseq	r0, R12_usr
     814:	02024d49 	andeq	r4, r2, #4672	; 0x1240
     818:	0c010100 	stfeqs	f0, [r1], {-0}
     81c:	02000001 	andeq	r0, r0, #1
     820:	0000f500 	andeq	pc, r0, r0, lsl #10
     824:	fb010200 	blx	4102e <__bss_end__+0x36536>
     828:	01000d0e 	tsteq	r0, lr, lsl #26
     82c:	00010101 	andeq	r0, r1, r1, lsl #2
     830:	00010000 	andeq	r0, r1, r0
     834:	696c0100 	stmdbvs	ip!, {r8}^
     838:	2f006362 	svccs	0x00006362
     83c:	2f727375 	svccs	0x00727375
     840:	61636f6c 	cmnvs	r3, ip, ror #30
     844:	65432f6c 	strbvs	r2, [r3, #-3948]	; 0xf6c
     848:	72616c6c 	rsbvc	r6, r1, #108, 24	; 0x6c00
     84c:	6d72612f 	ldfvse	f6, [r2, #-188]!	; 0xffffff44
     850:	6e6f6e2d 	cdpvs	14, 6, cr6, cr15, cr13, {1}
     854:	61652d65 	cmnvs	r5, r5, ror #26
     858:	342f6962 	strtcc	r6, [pc], #-2402	; 860 <_start-0x77a0>
     85c:	332e382e 	teqcc	lr, #3014656	; 0x2e0000
     860:	3173632d 	cmncc	r3, sp, lsr #6
     864:	2f653037 	svccs	0x00653037
     868:	2f62696c 	svccs	0x0062696c
     86c:	2f636367 	svccs	0x00636367
     870:	2d6d7261 	sfmcs	f7, 2, [sp, #-388]!	; 0xfffffe7c
     874:	656e6f6e 	strbvs	r6, [lr, #-3950]!	; 0xf6e
     878:	6261652d 	rsbvs	r6, r1, #188743680	; 0xb400000
     87c:	2e342f69 	cdpcs	15, 3, cr2, cr4, cr9, {3}
     880:	2f332e38 	svccs	0x00332e38
     884:	6c636e69 	stclvs	14, cr6, [r3], #-420	; 0xfffffe5c
     888:	00656475 	rsbeq	r6, r5, r5, ror r4
     88c:	6573552f 	ldrbvs	r5, [r3, #-1327]!	; 0x52f
     890:	622f7372 	eorvs	r7, pc, #-939524095	; 0xc8000001
     894:	6e616972 	mcrvs	9, 3, r6, cr1, cr2, {3}
     898:	2f6e756a 	svccs	0x006e756a
     89c:	6b736544 	blvs	1cd9db4 <__bss_end__+0x1ccf2bc>
     8a0:	2f706f74 	svccs	0x00706f74
     8a4:	6f686373 	svcvs	0x00686373
     8a8:	532f6c6f 	teqpl	pc, #28416	; 0x6f00
     8ac:	6e697270 	mcrvs	2, 3, r7, cr9, cr0, {3}
     8b0:	32393167 	eorscc	r3, r9, #-1073741799	; 0xc0000019
     8b4:	53432f30 	movtpl	r2, #16176	; 0x3f30
     8b8:	4c303432 	cfldrsmi	mvf3, [r0], #-200	; 0xffffff38
     8bc:	73632f58 	cmnvc	r3, #88, 30	; 0x160
     8c0:	6c303432 	cfldrsvs	mvf3, [r0], #-200	; 0xffffff38
     8c4:	30322d78 	eorscc	r2, r2, r8, ror sp
     8c8:	2f727073 	svccs	0x00727073
     8cc:	7062696c 	rsbvc	r6, r2, ip, ror #18
     8d0:	6e692f69 	cdpvs	15, 6, cr2, cr9, cr9, {3}
     8d4:	64756c63 	ldrbtvs	r6, [r5], #-3171	; 0xc63
     8d8:	70000065 	andvc	r0, r0, r5, rrx
     8dc:	746e6972 	strbtvc	r6, [lr], #-2418	; 0x972
     8e0:	00632e6b 	rsbeq	r2, r3, fp, ror #28
     8e4:	73000001 	movwvc	r0, #1
     8e8:	72616474 	rsbvc	r6, r1, #116, 8	; 0x74000000
     8ec:	00682e67 	rsbeq	r2, r8, r7, ror #28
     8f0:	3c000002 	stccc	0, cr0, [r0], {2}
     8f4:	6c697562 	cfstr64vs	mvdx7, [r9], #-392	; 0xfffffe78
     8f8:	6e692d74 	mcrvs	13, 3, r2, cr9, cr4, {3}
     8fc:	0000003e 	andeq	r0, r0, lr, lsr r0
     900:	69707200 	ldmdbvs	r0!, {r9, ip, sp, lr}^
     904:	0300682e 	movweq	r6, #2094	; 0x82e
     908:	61760000 	cmnvs	r6, r0
     90c:	6972702d 	ldmdbvs	r2!, {r0, r2, r3, r5, ip, sp, lr}^
     910:	2e6b746e 	cdpcs	4, 6, cr7, cr11, cr14, {3}
     914:	00010068 	andeq	r0, r1, r8, rrx
     918:	05000000 	streq	r0, [r0, #-0]
     91c:	0090a402 	addseq	sl, r0, r2, lsl #8
     920:	4b6b1700 	blmi	1ac6528 <__bss_end__+0x1abba30>
     924:	0e0289bf 	mcreq	9, 0, r8, cr2, cr15, {5}
     928:	94010100 	strls	r0, [r1], #-256	; 0x100
     92c:	02000000 	andeq	r0, r0, #0
     930:	00007c00 	andeq	r7, r0, r0, lsl #24
     934:	fb010200 	blx	4113e <__bss_end__+0x36646>
     938:	01000d0e 	tsteq	r0, lr, lsl #26
     93c:	00010101 	andeq	r0, r1, r1, lsl #2
     940:	00010000 	andeq	r0, r1, r0
     944:	696c0100 	stmdbvs	ip!, {r8}^
     948:	2f006362 	svccs	0x00006362
     94c:	72657355 	rsbvc	r7, r5, #1409286145	; 0x54000001
     950:	72622f73 	rsbvc	r2, r2, #460	; 0x1cc
     954:	6a6e6169 	bvs	1b98f00 <__bss_end__+0x1b8e408>
     958:	442f6e75 	strtmi	r6, [pc], #-3701	; 960 <_start-0x76a0>
     95c:	746b7365 	strbtvc	r7, [fp], #-869	; 0x365
     960:	732f706f 	teqvc	pc, #111	; 0x6f
     964:	6f6f6863 	svcvs	0x006f6863
     968:	70532f6c 	subsvc	r2, r3, ip, ror #30
     96c:	676e6972 			; <UNDEFINED> instruction: 0x676e6972
     970:	30323931 	eorscc	r3, r2, r1, lsr r9
     974:	3253432f 	subscc	r4, r3, #-1140850688	; 0xbc000000
     978:	584c3034 	stmdapl	ip, {r2, r4, r5, ip, sp}^
     97c:	3273632f 	rsbscc	r6, r3, #-1140850688	; 0xbc000000
     980:	786c3034 	stmdavc	ip!, {r2, r4, r5, ip, sp}^
     984:	7330322d 	teqvc	r0, #-805306366	; 0xd0000002
     988:	6c2f7270 	sfmvs	f7, 4, [pc], #-448	; 7d0 <_start-0x7830>
     98c:	69706269 	ldmdbvs	r0!, {r0, r3, r5, r6, r9, sp, lr}^
     990:	636e692f 	cmnvs	lr, #770048	; 0xbc000
     994:	6564756c 	strbvs	r7, [r4, #-1388]!	; 0x56c
     998:	75700000 	ldrbvc	r0, [r0, #-0]!
     99c:	61686374 	smcvs	34356	; 0x8634
     9a0:	00632e72 	rsbeq	r2, r3, r2, ror lr
     9a4:	72000001 	andvc	r0, r0, #1
     9a8:	682e6970 	stmdavs	lr!, {r4, r5, r6, r8, fp, sp, lr}
     9ac:	00000200 	andeq	r0, r0, r0, lsl #4
     9b0:	02050000 	andeq	r0, r5, #0
     9b4:	000090fc 	strdeq	r9, [r0], -ip
     9b8:	136b4a14 	cmnne	fp, #20, 20	; 0x14000
     9bc:	080213bc 	stmdaeq	r2, {r2, r3, r4, r5, r7, r8, r9, ip}
     9c0:	a0010100 	andge	r0, r1, r0, lsl #2
     9c4:	02000000 	andeq	r0, r0, #0
     9c8:	00007900 	andeq	r7, r0, r0, lsl #18
     9cc:	fb010200 	blx	411d6 <__bss_end__+0x366de>
     9d0:	01000d0e 	tsteq	r0, lr, lsl #26
     9d4:	00010101 	andeq	r0, r1, r1, lsl #2
     9d8:	00010000 	andeq	r0, r1, r0
     9dc:	696c0100 	stmdbvs	ip!, {r8}^
     9e0:	2f006362 	svccs	0x00006362
     9e4:	72657355 	rsbvc	r7, r5, #1409286145	; 0x54000001
     9e8:	72622f73 	rsbvc	r2, r2, #460	; 0x1cc
     9ec:	6a6e6169 	bvs	1b98f98 <__bss_end__+0x1b8e4a0>
     9f0:	442f6e75 	strtmi	r6, [pc], #-3701	; 9f8 <_start-0x7608>
     9f4:	746b7365 	strbtvc	r7, [fp], #-869	; 0x365
     9f8:	732f706f 	teqvc	pc, #111	; 0x6f
     9fc:	6f6f6863 	svcvs	0x006f6863
     a00:	70532f6c 	subsvc	r2, r3, ip, ror #30
     a04:	676e6972 			; <UNDEFINED> instruction: 0x676e6972
     a08:	30323931 	eorscc	r3, r2, r1, lsr r9
     a0c:	3253432f 	subscc	r4, r3, #-1140850688	; 0xbc000000
     a10:	584c3034 	stmdapl	ip, {r2, r4, r5, ip, sp}^
     a14:	3273632f 	rsbscc	r6, r3, #-1140850688	; 0xbc000000
     a18:	786c3034 	stmdavc	ip!, {r2, r4, r5, ip, sp}^
     a1c:	7330322d 	teqvc	r0, #-805306366	; 0xd0000002
     a20:	6c2f7270 	sfmvs	f7, 4, [pc], #-448	; 868 <_start-0x7798>
     a24:	69706269 	ldmdbvs	r0!, {r0, r3, r5, r6, r9, sp, lr}^
     a28:	636e692f 	cmnvs	lr, #770048	; 0xbc000
     a2c:	6564756c 	strbvs	r7, [r4, #-1388]!	; 0x56c
     a30:	75700000 	ldrbvc	r0, [r0, #-0]!
     a34:	632e6b74 	teqvs	lr, #116, 22	; 0x1d000
     a38:	00000100 	andeq	r0, r0, r0, lsl #2
     a3c:	2e697072 	mcrcs	0, 3, r7, cr9, cr2, {3}
     a40:	00020068 	andeq	r0, r2, r8, rrx
     a44:	05000000 	streq	r0, [r0, #-0]
     a48:	00913802 	addseq	r3, r1, r2, lsl #16
     a4c:	2d4c1500 	cfstr64cs	mvdx1, [ip, #-0]
     a50:	02040200 	andeq	r0, r4, #0, 4
     a54:	0402002f 	streq	r0, [r2], #-47	; 0x2f
     a58:	02004902 	andeq	r4, r0, #32768	; 0x8000
     a5c:	2e060104 	adfcss	f0, f6, f4
     a60:	06026b06 	streq	r6, [r2], -r6, lsl #22
     a64:	eb010100 	bl	40e6c <__bss_end__+0x36374>
     a68:	02000001 	andeq	r0, r0, #1
     a6c:	0000e900 	andeq	lr, r0, r0, lsl #18
     a70:	fb010200 	blx	4127a <__bss_end__+0x36782>
     a74:	01000d0e 	tsteq	r0, lr, lsl #26
     a78:	00010101 	andeq	r0, r1, r1, lsl #2
     a7c:	00010000 	andeq	r0, r1, r0
     a80:	696c0100 	stmdbvs	ip!, {r8}^
     a84:	2f006362 	svccs	0x00006362
     a88:	2f727375 	svccs	0x00727375
     a8c:	61636f6c 	cmnvs	r3, ip, ror #30
     a90:	65432f6c 	strbvs	r2, [r3, #-3948]	; 0xf6c
     a94:	72616c6c 	rsbvc	r6, r1, #108, 24	; 0x6c00
     a98:	6d72612f 	ldfvse	f6, [r2, #-188]!	; 0xffffff44
     a9c:	6e6f6e2d 	cdpvs	14, 6, cr6, cr15, cr13, {1}
     aa0:	61652d65 	cmnvs	r5, r5, ror #26
     aa4:	342f6962 	strtcc	r6, [pc], #-2402	; aac <_start-0x7554>
     aa8:	332e382e 	teqcc	lr, #3014656	; 0x2e0000
     aac:	3173632d 	cmncc	r3, sp, lsr #6
     ab0:	2f653037 	svccs	0x00653037
     ab4:	2f62696c 	svccs	0x0062696c
     ab8:	2f636367 	svccs	0x00636367
     abc:	2d6d7261 	sfmcs	f7, 2, [sp, #-388]!	; 0xfffffe7c
     ac0:	656e6f6e 	strbvs	r6, [lr, #-3950]!	; 0xf6e
     ac4:	6261652d 	rsbvs	r6, r1, #188743680	; 0xb400000
     ac8:	2e342f69 	cdpcs	15, 3, cr2, cr4, cr9, {3}
     acc:	2f332e38 	svccs	0x00332e38
     ad0:	6c636e69 	stclvs	14, cr6, [r3], #-420	; 0xfffffe5c
     ad4:	00656475 	rsbeq	r6, r5, r5, ror r4
     ad8:	6573552f 	ldrbvs	r5, [r3, #-1327]!	; 0x52f
     adc:	622f7372 	eorvs	r7, pc, #-939524095	; 0xc8000001
     ae0:	6e616972 	mcrvs	9, 3, r6, cr1, cr2, {3}
     ae4:	2f6e756a 	svccs	0x006e756a
     ae8:	6b736544 	blvs	1cda000 <__bss_end__+0x1ccf508>
     aec:	2f706f74 	svccs	0x00706f74
     af0:	6f686373 	svcvs	0x00686373
     af4:	532f6c6f 	teqpl	pc, #28416	; 0x6f00
     af8:	6e697270 	mcrvs	2, 3, r7, cr9, cr0, {3}
     afc:	32393167 	eorscc	r3, r9, #-1073741799	; 0xc0000019
     b00:	53432f30 	movtpl	r2, #16176	; 0x3f30
     b04:	4c303432 	cfldrsmi	mvf3, [r0], #-200	; 0xffffff38
     b08:	73632f58 	cmnvc	r3, #88, 30	; 0x160
     b0c:	6c303432 	cfldrsvs	mvf3, [r0], #-200	; 0xffffff38
     b10:	30322d78 	eorscc	r2, r2, r8, ror sp
     b14:	2f727073 	svccs	0x00727073
     b18:	7062696c 	rsbvc	r6, r2, ip, ror #18
     b1c:	6e692f69 	cdpvs	15, 6, cr2, cr9, cr9, {3}
     b20:	64756c63 	ldrbtvs	r6, [r5], #-3171	; 0xc63
     b24:	76000065 	strvc	r0, [r0], -r5, rrx
     b28:	72702d61 	rsbsvc	r2, r0, #6208	; 0x1840
     b2c:	6b746e69 	blvs	1d1c4d8 <__bss_end__+0x1d119e0>
     b30:	0100632e 	tsteq	r0, lr, lsr #6
     b34:	74730000 	ldrbtvc	r0, [r3], #-0
     b38:	67726164 	ldrbvs	r6, [r2, -r4, ror #2]!
     b3c:	0200682e 	andeq	r6, r0, #3014656	; 0x2e0000
     b40:	70720000 	rsbsvc	r0, r2, r0
     b44:	00682e69 	rsbeq	r2, r8, r9, ror #28
     b48:	3c000003 	stccc	0, cr0, [r0], {3}
     b4c:	6c697562 	cfstr64vs	mvdx7, [r9], #-392	; 0xfffffe78
     b50:	6e692d74 	mcrvs	13, 3, r2, cr9, cr4, {3}
     b54:	0000003e 	andeq	r0, r0, lr, lsr r0
     b58:	05000000 	streq	r0, [r0, #-0]
     b5c:	00916c02 	addseq	r6, r1, r2, lsl #24
     b60:	01260300 	teqeq	r6, r0, lsl #6
     b64:	3113a501 	tstcc	r3, r1, lsl #10
     b68:	0402002d 	streq	r0, [r2], #-45	; 0x2d
     b6c:	02002f02 	andeq	r2, r0, #2, 30
     b70:	002d0204 	eoreq	r0, sp, r4, lsl #4
     b74:	2f020402 	svccs	0x00020402
     b78:	01040200 	mrseq	r0, R12_usr
     b7c:	304c4c2d 	subcc	r4, ip, sp, lsr #24
     b80:	4f2f4b14 	svcmi	0x002f4b14
     b84:	02040200 	andeq	r0, r4, #0, 4
     b88:	04020067 	streq	r0, [r2], #-103	; 0x67
     b8c:	4d4c6501 	cfstr64mi	mvdx6, [ip, #-4]
     b90:	312fa030 	teqcc	pc, r0, lsr r0	; <UNPREDICTABLE>
     b94:	16260230 			; <UNDEFINED> instruction: 0x16260230
     b98:	002c2d84 	eoreq	r2, ip, r4, lsl #27
     b9c:	30010402 	andcc	r0, r1, r2, lsl #8
     ba0:	01040200 	mrseq	r0, R12_usr
     ba4:	00660633 	rsbeq	r0, r6, r3, lsr r6
     ba8:	2e010402 	cdpcs	4, 0, cr0, cr1, cr2, {0}
     bac:	01040200 	mrseq	r0, R12_usr
     bb0:	67210806 	strvs	r0, [r1, -r6, lsl #16]!
     bb4:	8273032f 	rsbshi	r0, r3, #-1140850688	; 0xbc000000
     bb8:	002e1303 	eoreq	r1, lr, r3, lsl #6
     bbc:	06010402 	streq	r0, [r1], -r2, lsl #8
     bc0:	04020066 	streq	r0, [r2], #-102	; 0x66
     bc4:	4b830601 	blmi	fe0c23d0 <__bss_end__+0xfe0b78d8>
     bc8:	4b31674b 	blmi	c5a8fc <__bss_end__+0xc4fe04>
     bcc:	032e6503 	teqeq	lr, #12582912	; 0xc00000
     bd0:	02002e23 	andeq	r2, r0, #560	; 0x230
     bd4:	2e060104 	adfcss	f0, f6, f4
     bd8:	01040200 	mrseq	r0, R12_usr
     bdc:	02009f06 	andeq	r9, r0, #6, 30
     be0:	d96a0104 	stmdble	sl!, {r2, r8}^
     be4:	7fa403d7 	svcvc	0x00a403d7
     be8:	002f2008 	eoreq	r2, pc, r8
     bec:	06010402 	streq	r0, [r1], -r2, lsl #8
     bf0:	4bd7064a 	blmi	ff5c2520 <__bss_end__+0xff5b7a28>
     bf4:	00dc032f 	sbcseq	r0, ip, pc, lsr #6
     bf8:	484c83f2 	stmdami	ip, {r1, r4, r5, r6, r7, r8, r9, pc}^
     bfc:	032e0e03 	teqeq	lr, #3, 28	; 0x30
     c00:	2f2f2e75 	svccs	0x002f2e75
     c04:	2d2f4b84 	vstmdbcs	pc!, {d4-d5}
     c08:	2f30314d 	svccs	0x0030314d
     c0c:	04020083 	streq	r0, [r2], #-131	; 0x83
     c10:	00a22c01 	adceq	r2, r2, r1, lsl #24
     c14:	06010402 	streq	r0, [r1], -r2, lsl #8
     c18:	02d8064a 	sbcseq	r0, r8, #77594624	; 0x4a00000
     c1c:	0e031636 	mcreq	6, 0, r1, cr3, cr6, {1}
     c20:	302108d6 	ldrdcc	r0, [r1], -r6	; <UNPREDICTABLE>
     c24:	30f331f3 	ldrshtcc	r3, [r3], #19
     c28:	304b30f3 	strdcc	r3, [fp], #-3
     c2c:	230830f3 	movwcs	r3, #33011	; 0x80f3
     c30:	02002f31 	andeq	r2, r0, #49, 30	; 0xc4
     c34:	00650104 	rsbeq	r0, r5, r4, lsl #2
     c38:	06020402 	streq	r0, [r2], -r2, lsl #8
     c3c:	0402004a 	streq	r0, [r2], #-74	; 0x4a
     c40:	42030601 	andmi	r0, r3, #1048576	; 0x100000
     c44:	04020066 	streq	r0, [r2], #-102	; 0x66
     c48:	06660602 	strbteq	r0, [r6], -r2, lsl #12
     c4c:	4a00c203 	bmi	31460 <__bss_end__+0x26968>
     c50:	00100268 	andseq	r0, r0, r8, ror #4
     c54:	009c0101 	addseq	r0, ip, r1, lsl #2
     c58:	00020000 	andeq	r0, r2, r0
     c5c:	00000086 	andeq	r0, r0, r6, lsl #1
     c60:	0efb0102 	cdpeq	1, 15, cr0, cr11, cr2, {0}
     c64:	0101000d 	tsteq	r1, sp
     c68:	00000101 	andeq	r0, r0, r1, lsl #2
     c6c:	00000100 	andeq	r0, r0, r0, lsl #2
     c70:	61747301 	cmnvs	r4, r1, lsl #6
     c74:	732d6666 	teqvc	sp, #106954752	; 0x6600000
     c78:	2f006372 	svccs	0x00006372
     c7c:	72657355 	rsbvc	r7, r5, #1409286145	; 0x54000001
     c80:	72622f73 	rsbvc	r2, r2, #460	; 0x1cc
     c84:	6a6e6169 	bvs	1b99230 <__bss_end__+0x1b8e738>
     c88:	442f6e75 	strtmi	r6, [pc], #-3701	; c90 <_start-0x7370>
     c8c:	746b7365 	strbtvc	r7, [fp], #-869	; 0x365
     c90:	732f706f 	teqvc	pc, #111	; 0x6f
     c94:	6f6f6863 	svcvs	0x006f6863
     c98:	70532f6c 	subsvc	r2, r3, ip, ror #30
     c9c:	676e6972 			; <UNDEFINED> instruction: 0x676e6972
     ca0:	30323931 	eorscc	r3, r2, r1, lsr r9
     ca4:	3253432f 	subscc	r4, r3, #-1140850688	; 0xbc000000
     ca8:	584c3034 	stmdapl	ip, {r2, r4, r5, ip, sp}^
     cac:	3273632f 	rsbscc	r6, r3, #-1140850688	; 0xbc000000
     cb0:	786c3034 	stmdavc	ip!, {r2, r4, r5, ip, sp}^
     cb4:	7330322d 	teqvc	r0, #-805306366	; 0xd0000002
     cb8:	6c2f7270 	sfmvs	f7, 4, [pc], #-448	; b00 <_start-0x7500>
     cbc:	69706269 	ldmdbvs	r0!, {r0, r3, r5, r6, r9, sp, lr}^
     cc0:	636e692f 	cmnvs	lr, #770048	; 0xbc000
     cc4:	6564756c 	strbvs	r7, [r4, #-1388]!	; 0x56c
     cc8:	6c630000 	stclvs	0, cr0, [r3], #-0
     ccc:	2d6e6165 	stfcse	f6, [lr, #-404]!	; 0xfffffe6c
     cd0:	6f626572 	svcvs	0x00626572
     cd4:	632e746f 	teqvs	lr, #1862270976	; 0x6f000000
     cd8:	00000100 	andeq	r0, r0, r0, lsl #2
     cdc:	2e697072 	mcrcs	0, 3, r7, cr9, cr2, {3}
     ce0:	00020068 	andeq	r0, r2, r8, rrx
     ce4:	05000000 	streq	r0, [r0, #-0]
     ce8:	00967802 	addseq	r7, r6, r2, lsl #16
     cec:	832f1500 	teqhi	pc, #0, 10
     cf0:	0006024b 	andeq	r0, r6, fp, asr #4
     cf4:	00a30101 	adceq	r0, r3, r1, lsl #2
     cf8:	00020000 	andeq	r0, r2, r0
     cfc:	00000080 	andeq	r0, r0, r0, lsl #1
     d00:	0efb0102 	cdpeq	1, 15, cr0, cr11, cr2, {0}
     d04:	0101000d 	tsteq	r1, sp
     d08:	00000101 	andeq	r0, r0, r1, lsl #2
     d0c:	00000100 	andeq	r0, r0, r0, lsl #2
     d10:	61747301 	cmnvs	r4, r1, lsl #6
     d14:	732d6666 	teqvc	sp, #106954752	; 0x6600000
     d18:	2f006372 	svccs	0x00006372
     d1c:	72657355 	rsbvc	r7, r5, #1409286145	; 0x54000001
     d20:	72622f73 	rsbvc	r2, r2, #460	; 0x1cc
     d24:	6a6e6169 	bvs	1b992d0 <__bss_end__+0x1b8e7d8>
     d28:	442f6e75 	strtmi	r6, [pc], #-3701	; d30 <_start-0x72d0>
     d2c:	746b7365 	strbtvc	r7, [fp], #-869	; 0x365
     d30:	732f706f 	teqvc	pc, #111	; 0x6f
     d34:	6f6f6863 	svcvs	0x006f6863
     d38:	70532f6c 	subsvc	r2, r3, ip, ror #30
     d3c:	676e6972 			; <UNDEFINED> instruction: 0x676e6972
     d40:	30323931 	eorscc	r3, r2, r1, lsr r9
     d44:	3253432f 	subscc	r4, r3, #-1140850688	; 0xbc000000
     d48:	584c3034 	stmdapl	ip, {r2, r4, r5, ip, sp}^
     d4c:	3273632f 	rsbscc	r6, r3, #-1140850688	; 0xbc000000
     d50:	786c3034 	stmdavc	ip!, {r2, r4, r5, ip, sp}^
     d54:	7330322d 	teqvc	r0, #-805306366	; 0xd0000002
     d58:	6c2f7270 	sfmvs	f7, 4, [pc], #-448	; ba0 <_start-0x7460>
     d5c:	69706269 	ldmdbvs	r0!, {r0, r3, r5, r6, r9, sp, lr}^
     d60:	636e692f 	cmnvs	lr, #770048	; 0xbc000
     d64:	6564756c 	strbvs	r7, [r4, #-1388]!	; 0x56c
     d68:	73630000 	cmnvc	r3, #0
     d6c:	74726174 	ldrbtvc	r6, [r2], #-372	; 0x174
     d70:	0100632e 	tsteq	r0, lr, lsr #6
     d74:	70720000 	rsbsvc	r0, r2, r0
     d78:	00682e69 	rsbeq	r2, r8, r9, ror #28
     d7c:	00000002 	andeq	r0, r0, r2
     d80:	a0020500 	andge	r0, r2, r0, lsl #10
     d84:	03000096 	movweq	r0, #150	; 0x96
     d88:	3132010c 	teqcc	r2, ip, lsl #2
     d8c:	002f2d2f 	eoreq	r2, pc, pc, lsr #26
     d90:	49010402 	stmdbmi	r1, {r1, sl}
     d94:	2f4a1503 	svccs	0x004a1503
     d98:	01000602 	tsteq	r0, r2, lsl #12
     d9c:	0000a201 	andeq	sl, r0, r1, lsl #4
     da0:	80000200 	andhi	r0, r0, r0, lsl #4
     da4:	02000000 	andeq	r0, r0, #0
     da8:	0d0efb01 	vstreq	d15, [lr, #-4]
     dac:	01010100 	mrseq	r0, (UNDEF: 17)
     db0:	00000001 	andeq	r0, r0, r1
     db4:	01000001 	tsteq	r0, r1
     db8:	66617473 			; <UNDEFINED> instruction: 0x66617473
     dbc:	72732d66 	rsbsvc	r2, r3, #6528	; 0x1980
     dc0:	552f0063 	strpl	r0, [pc, #-99]!	; d65 <_start-0x729b>
     dc4:	73726573 	cmnvc	r2, #482344960	; 0x1cc00000
     dc8:	6972622f 	ldmdbvs	r2!, {r0, r1, r2, r3, r5, r9, sp, lr}^
     dcc:	756a6e61 	strbvc	r6, [sl, #-3681]!	; 0xe61
     dd0:	65442f6e 	strbvs	r2, [r4, #-3950]	; 0xf6e
     dd4:	6f746b73 	svcvs	0x00746b73
     dd8:	63732f70 	cmnvs	r3, #112, 30	; 0x1c0
     ddc:	6c6f6f68 	stclvs	15, cr6, [pc], #-416	; c44 <_start-0x73bc>
     de0:	7270532f 	rsbsvc	r5, r0, #-1140850688	; 0xbc000000
     de4:	31676e69 	cmncc	r7, r9, ror #28
     de8:	2f303239 	svccs	0x00303239
     dec:	34325343 	ldrtcc	r5, [r2], #-835	; 0x343
     df0:	2f584c30 	svccs	0x00584c30
     df4:	34327363 	ldrtcc	r7, [r2], #-867	; 0x363
     df8:	2d786c30 	ldclcs	12, cr6, [r8, #-192]!	; 0xffffff40
     dfc:	70733032 	rsbsvc	r3, r3, r2, lsr r0
     e00:	696c2f72 	stmdbvs	ip!, {r1, r4, r5, r6, r8, r9, sl, fp, sp}^
     e04:	2f697062 	svccs	0x00697062
     e08:	6c636e69 	stclvs	14, cr6, [r3], #-420	; 0xfffffe5c
     e0c:	00656475 	rsbeq	r6, r5, r5, ror r4
     e10:	62657200 	rsbvs	r7, r5, #0, 4
     e14:	2e746f6f 	cdpcs	15, 7, cr6, cr4, cr15, {3}
     e18:	00010063 	andeq	r0, r1, r3, rrx
     e1c:	69707200 	ldmdbvs	r0!, {r9, ip, sp, lr}^
     e20:	0200682e 	andeq	r6, r0, #3014656	; 0x2e0000
     e24:	00000000 	andeq	r0, r0, r0
     e28:	96d40205 	ldrbls	r0, [r4], r5, lsl #4
     e2c:	0d030000 	stceq	0, cr0, [r3, #-0]
     e30:	2f311401 	svccs	0x00311401
     e34:	4b2f1585 	blmi	bc6450 <__bss_end__+0xbbb958>
     e38:	35672f4d 	strbcc	r2, [r7, #-3917]!	; 0xf4d
     e3c:	10026752 	andne	r6, r2, r2, asr r7
     e40:	ac010100 	stfges	f0, [r1], {-0}
     e44:	02000000 	andeq	r0, r0, #0
     e48:	00007f00 	andeq	r7, r0, r0, lsl #30
     e4c:	fb010200 	blx	41656 <__bss_end__+0x36b5e>
     e50:	01000d0e 	tsteq	r0, lr, lsl #26
     e54:	00010101 	andeq	r0, r1, r1, lsl #2
     e58:	00010000 	andeq	r0, r1, r0
     e5c:	74730100 	ldrbtvc	r0, [r3], #-256	; 0x100
     e60:	2d666661 	stclcs	6, cr6, [r6, #-388]!	; 0xfffffe7c
     e64:	00637273 	rsbeq	r7, r3, r3, ror r2
     e68:	6573552f 	ldrbvs	r5, [r3, #-1327]!	; 0x52f
     e6c:	622f7372 	eorvs	r7, pc, #-939524095	; 0xc8000001
     e70:	6e616972 	mcrvs	9, 3, r6, cr1, cr2, {3}
     e74:	2f6e756a 	svccs	0x006e756a
     e78:	6b736544 	blvs	1cda390 <__bss_end__+0x1ccf898>
     e7c:	2f706f74 	svccs	0x00706f74
     e80:	6f686373 	svcvs	0x00686373
     e84:	532f6c6f 	teqpl	pc, #28416	; 0x6f00
     e88:	6e697270 	mcrvs	2, 3, r7, cr9, cr0, {3}
     e8c:	32393167 	eorscc	r3, r9, #-1073741799	; 0xc0000019
     e90:	53432f30 	movtpl	r2, #16176	; 0x3f30
     e94:	4c303432 	cfldrsmi	mvf3, [r0], #-200	; 0xffffff38
     e98:	73632f58 	cmnvc	r3, #88, 30	; 0x160
     e9c:	6c303432 	cfldrsvs	mvf3, [r0], #-200	; 0xffffff38
     ea0:	30322d78 	eorscc	r2, r2, r8, ror sp
     ea4:	2f727073 	svccs	0x00727073
     ea8:	7062696c 	rsbvc	r6, r2, ip, ror #18
     eac:	6e692f69 	cdpvs	15, 6, cr2, cr9, cr9, {3}
     eb0:	64756c63 	ldrbtvs	r6, [r5], #-3171	; 0xc63
     eb4:	74000065 	strvc	r0, [r0], #-101	; 0x65
     eb8:	72656d69 	rsbvc	r6, r5, #6720	; 0x1a40
     ebc:	0100632e 	tsteq	r0, lr, lsr #6
     ec0:	70720000 	rsbsvc	r0, r2, r0
     ec4:	00682e69 	rsbeq	r2, r8, r9, ror #28
     ec8:	00000002 	andeq	r0, r0, r2
     ecc:	48020500 	stmdami	r2, {r8, sl}
     ed0:	16000097 			; <UNDEFINED> instruction: 0x16000097
     ed4:	002d2f14 	eoreq	r2, sp, r4, lsl pc
     ed8:	06010402 	streq	r0, [r1], -r2, lsl #8
     edc:	316d062e 	cmncc	sp, lr, lsr #12
     ee0:	324d4b2f 	subcc	r4, sp, #48128	; 0xbc00
     ee4:	4c4b3031 	mcrrmi	0, 3, r3, fp, cr1
     ee8:	2f2f6a2f 	svccs	0x002f6a2f
     eec:	08022f84 	stmdaeq	r2, {r2, r7, r8, r9, sl, fp, sp}
     ef0:	48010100 	stmdami	r1, {r8}
     ef4:	02000001 	andeq	r0, r0, #1
     ef8:	00010200 	andeq	r0, r1, r0, lsl #4
     efc:	fb010200 	blx	41706 <__bss_end__+0x36c0e>
     f00:	01000d0e 	tsteq	r0, lr, lsl #26
     f04:	00010101 	andeq	r0, r1, r1, lsl #2
     f08:	00010000 	andeq	r0, r1, r0
     f0c:	752f0100 	strvc	r0, [pc, #-256]!	; e14 <_start-0x71ec>
     f10:	692f7273 	stmdbvs	pc!, {r0, r1, r4, r5, r6, r9, ip, sp, lr}	; <UNPREDICTABLE>
     f14:	756c636e 	strbvc	r6, [ip, #-878]!	; 0x36e
     f18:	6e2f6564 	cfsh64vs	mvdx6, mvdx15, #52
     f1c:	696c7765 	stmdbvs	ip!, {r0, r2, r5, r6, r8, r9, sl, ip, sp, lr}^
     f20:	79732f62 	ldmdbvc	r3!, {r1, r5, r6, r8, r9, sl, fp, sp}^
     f24:	752f0073 	strvc	r0, [pc, #-115]!	; eb9 <_start-0x7147>
     f28:	6c2f7273 	sfmvs	f7, 4, [pc], #-460	; d64 <_start-0x729c>
     f2c:	672f6269 	strvs	r6, [pc, -r9, ror #4]!
     f30:	612f6363 	teqvs	pc, r3, ror #6
     f34:	6e2d6d72 	mcrvs	13, 1, r6, cr13, cr2, {3}
     f38:	2d656e6f 	stclcs	14, cr6, [r5, #-444]!	; 0xfffffe44
     f3c:	69626165 	stmdbvs	r2!, {r0, r2, r5, r6, r8, sp, lr}^
     f40:	332e362f 	teqcc	lr, #49283072	; 0x2f00000
     f44:	692f312e 	stmdbvs	pc!, {r1, r2, r3, r5, r8, ip, sp}	; <UNPREDICTABLE>
     f48:	756c636e 	strbvc	r6, [ip, #-878]!	; 0x36e
     f4c:	2f006564 	svccs	0x00006564
     f50:	656d6f68 	strbvs	r6, [sp, #-3944]!	; 0xf68
     f54:	676e652f 	strbvs	r6, [lr, -pc, lsr #10]!
     f58:	2f72656c 	svccs	0x0072656c
     f5c:	73616c63 	cmnvc	r1, #25344	; 0x6300
     f60:	73632f73 	cmnvc	r3, #460	; 0x1cc
     f64:	6c303432 	cfldrsvs	mvf3, [r0], #-200	; 0xffffff38
     f68:	30322d78 	eorscc	r2, r2, r8, ror sp
     f6c:	2f727073 	svccs	0x00727073
     f70:	62696c2f 	rsbvs	r6, r9, #12032	; 0x2f00
     f74:	2f006970 	svccs	0x00006970
     f78:	656d6f68 	strbvs	r6, [sp, #-3944]!	; 0xf68
     f7c:	676e652f 	strbvs	r6, [lr, -pc, lsr #10]!
     f80:	2f72656c 	svccs	0x0072656c
     f84:	73616c63 	cmnvc	r1, #25344	; 0x6300
     f88:	73632f73 	cmnvc	r3, #460	; 0x1cc
     f8c:	6c303432 	cfldrsvs	mvf3, [r0], #-200	; 0xffffff38
     f90:	30322d78 	eorscc	r2, r2, r8, ror sp
     f94:	2f727073 	svccs	0x00727073
     f98:	62696c2f 	rsbvs	r6, r9, #12032	; 0x2f00
     f9c:	732f6970 	teqvc	pc, #112, 18	; 0x1c0000
     fa0:	66666174 			; <UNDEFINED> instruction: 0x66666174
     fa4:	6372732d 	cmnvs	r2, #-1275068416	; 0xb4000000
     fa8:	61750000 	cmnvs	r5, r0
     fac:	632e7472 	teqvs	lr, #1912602624	; 0x72000000
     fb0:	00000000 	andeq	r0, r0, r0
     fb4:	6b636f6c 	blvs	18dcd6c <__bss_end__+0x18d2274>
     fb8:	0100682e 	tsteq	r0, lr, lsr #16
     fbc:	745f0000 	ldrbvc	r0, [pc], #-0	; fc4 <_start-0x703c>
     fc0:	73657079 	cmnvc	r5, #121	; 0x79
     fc4:	0100682e 	tsteq	r0, lr, lsr #16
     fc8:	74730000 	ldrbtvc	r0, [r3], #-0
     fcc:	66656464 	strbtvs	r6, [r5], -r4, ror #8
     fd0:	0200682e 	andeq	r6, r0, #3014656	; 0x2e0000
     fd4:	65720000 	ldrbvs	r0, [r2, #-0]!
     fd8:	2e746e65 	cdpcs	14, 7, cr6, cr4, cr5, {3}
     fdc:	00010068 	andeq	r0, r1, r8, rrx
     fe0:	69707200 	ldmdbvs	r0!, {r9, ip, sp, lr}^
     fe4:	0300682e 	movweq	r6, #2094	; 0x82e
     fe8:	61750000 	cmnvs	r5, r0
     fec:	682e7472 	stmdavs	lr!, {r1, r4, r5, r6, sl, ip, sp, lr}
     ff0:	00000400 	andeq	r0, r0, r0, lsl #8
     ff4:	6f697067 	svcvs	0x00697067
     ff8:	0400682e 	streq	r6, [r0], #-2094	; 0x82e
     ffc:	00000000 	andeq	r0, r0, r0
    1000:	981c0205 	ldmdals	ip, {r0, r2, r9}
    1004:	2c030000 	stccs	0, cr0, [r3], {-0}
    1008:	0c036701 	stceq	7, cr6, [r3], {1}
    100c:	6867359e 	stmdavs	r7!, {r1, r2, r3, r4, r7, r8, sl, ip, sp}^
    1010:	0c036835 	stceq	8, cr6, [r3], {53}	; 0x35
    1014:	696b852e 	stmdbvs	fp!, {r1, r2, r3, r5, r8, sl, pc}^
    1018:	660c0369 	strvs	r0, [ip], -r9, ror #6
    101c:	4208676b 	andmi	r6, r8, #28049408	; 0x1ac0000
    1020:	364b6834 			; <UNDEFINED> instruction: 0x364b6834
    1024:	002f8768 	eoreq	r8, pc, r8, ror #14
    1028:	2f010402 	svccs	0x00010402
    102c:	67306768 	ldrvs	r6, [r0, -r8, ror #14]!
    1030:	0402004b 	streq	r0, [r2], #-75	; 0x4b
    1034:	67682f01 	strbvs	r2, [r8, -r1, lsl #30]!
    1038:	06022e69 	streq	r2, [r2], -r9, ror #28
    103c:	2b010100 	blcs	41444 <__bss_end__+0x3694c>
    1040:	02000001 	andeq	r0, r0, #1
    1044:	0000f800 	andeq	pc, r0, r0, lsl #16
    1048:	fb010200 	blx	41852 <__bss_end__+0x36d5a>
    104c:	01000d0e 	tsteq	r0, lr, lsl #26
    1050:	00010101 	andeq	r0, r1, r1, lsl #2
    1054:	00010000 	andeq	r0, r1, r0
    1058:	752f0100 	strvc	r0, [pc, #-256]!	; f60 <_start-0x70a0>
    105c:	692f7273 	stmdbvs	pc!, {r0, r1, r4, r5, r6, r9, ip, sp, lr}	; <UNPREDICTABLE>
    1060:	756c636e 	strbvc	r6, [ip, #-878]!	; 0x36e
    1064:	6e2f6564 	cfsh64vs	mvdx6, mvdx15, #52
    1068:	696c7765 	stmdbvs	ip!, {r0, r2, r5, r6, r8, r9, sl, ip, sp, lr}^
    106c:	79732f62 	ldmdbvc	r3!, {r1, r5, r6, r8, r9, sl, fp, sp}^
    1070:	752f0073 	strvc	r0, [pc, #-115]!	; 1005 <_start-0x6ffb>
    1074:	6c2f7273 	sfmvs	f7, 4, [pc], #-460	; eb0 <_start-0x7150>
    1078:	672f6269 	strvs	r6, [pc, -r9, ror #4]!
    107c:	612f6363 	teqvs	pc, r3, ror #6
    1080:	6e2d6d72 	mcrvs	13, 1, r6, cr13, cr2, {3}
    1084:	2d656e6f 	stclcs	14, cr6, [r5, #-444]!	; 0xfffffe44
    1088:	69626165 	stmdbvs	r2!, {r0, r2, r5, r6, r8, sp, lr}^
    108c:	332e362f 	teqcc	lr, #49283072	; 0x2f00000
    1090:	692f312e 	stmdbvs	pc!, {r1, r2, r3, r5, r8, ip, sp}	; <UNPREDICTABLE>
    1094:	756c636e 	strbvc	r6, [ip, #-878]!	; 0x36e
    1098:	2f006564 	svccs	0x00006564
    109c:	656d6f68 	strbvs	r6, [sp, #-3944]!	; 0xf68
    10a0:	676e652f 	strbvs	r6, [lr, -pc, lsr #10]!
    10a4:	2f72656c 	svccs	0x0072656c
    10a8:	73616c63 	cmnvc	r1, #25344	; 0x6300
    10ac:	73632f73 	cmnvc	r3, #460	; 0x1cc
    10b0:	6c303432 	cfldrsvs	mvf3, [r0], #-200	; 0xffffff38
    10b4:	30322d78 	eorscc	r2, r2, r8, ror sp
    10b8:	2f727073 	svccs	0x00727073
    10bc:	62696c2f 	rsbvs	r6, r9, #12032	; 0x2f00
    10c0:	2f006970 	svccs	0x00006970
    10c4:	656d6f68 	strbvs	r6, [sp, #-3944]!	; 0xf68
    10c8:	676e652f 	strbvs	r6, [lr, -pc, lsr #10]!
    10cc:	2f72656c 	svccs	0x0072656c
    10d0:	73616c63 	cmnvc	r1, #25344	; 0x6300
    10d4:	73632f73 	cmnvc	r3, #460	; 0x1cc
    10d8:	6c303432 	cfldrsvs	mvf3, [r0], #-200	; 0xffffff38
    10dc:	30322d78 	eorscc	r2, r2, r8, ror sp
    10e0:	2f727073 	svccs	0x00727073
    10e4:	62696c2f 	rsbvs	r6, r9, #12032	; 0x2f00
    10e8:	732f6970 	teqvc	pc, #112, 18	; 0x1c0000
    10ec:	66666174 			; <UNDEFINED> instruction: 0x66666174
    10f0:	6372732d 	cmnvs	r2, #-1275068416	; 0xb4000000
    10f4:	70670000 	rsbvc	r0, r7, r0
    10f8:	632e6f69 	teqvs	lr, #420	; 0x1a4
    10fc:	00000000 	andeq	r0, r0, r0
    1100:	6b636f6c 	blvs	18dceb8 <__bss_end__+0x18d23c0>
    1104:	0100682e 	tsteq	r0, lr, lsr #16
    1108:	745f0000 	ldrbvc	r0, [pc], #-0	; 1110 <_start-0x6ef0>
    110c:	73657079 	cmnvc	r5, #121	; 0x79
    1110:	0100682e 	tsteq	r0, lr, lsr #16
    1114:	74730000 	ldrbtvc	r0, [r3], #-0
    1118:	66656464 	strbtvs	r6, [r5], -r4, ror #8
    111c:	0200682e 	andeq	r6, r0, #3014656	; 0x2e0000
    1120:	65720000 	ldrbvs	r0, [r2, #-0]!
    1124:	2e746e65 	cdpcs	14, 7, cr6, cr4, cr5, {3}
    1128:	00010068 	andeq	r0, r1, r8, rrx
    112c:	69707200 	ldmdbvs	r0!, {r9, ip, sp, lr}^
    1130:	0300682e 	movweq	r6, #2094	; 0x82e
    1134:	70670000 	rsbvc	r0, r7, r0
    1138:	682e6f69 	stmdavs	lr!, {r0, r3, r5, r6, r8, r9, sl, fp, sp, lr}
    113c:	00000400 	andeq	r0, r0, r0, lsl #8
    1140:	02050000 	andeq	r0, r5, #0
    1144:	00009994 	muleq	r0, r4, r9
    1148:	13012703 	movwne	r2, #5891	; 0x1703
    114c:	f44f474c 	vst1.16	{d20}, [pc], ip
    1150:	a14c4b68 	cmpge	ip, r8, ror #22
    1154:	49136a2f 	ldmdbmi	r3, {r0, r1, r2, r3, r5, r9, fp, sp, lr}
    1158:	4913be31 	ldmdbmi	r3, {r0, r4, r5, r9, sl, fp, ip, sp, pc}
    115c:	6a2fbe31 	bvs	bf0a28 <__bss_end__+0xbe5f30>
    1160:	4f484d2f 	svcmi	0x00484d2f
    1164:	2f324913 	svccs	0x00324913
    1168:	000602b7 			; <UNDEFINED> instruction: 0x000602b7
    116c:	01340101 	teqeq	r4, r1, lsl #2
    1170:	00020000 	andeq	r0, r2, r0
    1174:	000000df 	ldrdeq	r0, [r0], -pc	; <UNPREDICTABLE>
    1178:	0efb0102 	cdpeq	1, 15, cr0, cr11, cr2, {0}
    117c:	0101000d 	tsteq	r1, sp
    1180:	00000101 	andeq	r0, r0, r1, lsl #2
    1184:	00000100 	andeq	r0, r0, r0, lsl #2
    1188:	73752f01 	cmnvc	r5, #1, 30
    118c:	6e692f72 	mcrvs	15, 3, r2, cr9, cr2, {3}
    1190:	64756c63 	ldrbtvs	r6, [r5], #-3171	; 0xc63
    1194:	656e2f65 	strbvs	r2, [lr, #-3941]!	; 0xf65
    1198:	62696c77 	rsbvs	r6, r9, #30464	; 0x7700
    119c:	7379732f 	cmnvc	r9, #-1140850688	; 0xbc000000
    11a0:	73752f00 	cmnvc	r5, #0, 30
    11a4:	696c2f72 	stmdbvs	ip!, {r1, r4, r5, r6, r8, r9, sl, fp, sp}^
    11a8:	63672f62 	cmnvs	r7, #392	; 0x188
    11ac:	72612f63 	rsbvc	r2, r1, #396	; 0x18c
    11b0:	6f6e2d6d 	svcvs	0x006e2d6d
    11b4:	652d656e 	strvs	r6, [sp, #-1390]!	; 0x56e
    11b8:	2f696261 	svccs	0x00696261
    11bc:	2e332e36 	mrccs	14, 1, r2, cr3, cr6, {1}
    11c0:	6e692f31 	mcrvs	15, 3, r2, cr9, cr1, {1}
    11c4:	64756c63 	ldrbtvs	r6, [r5], #-3171	; 0xc63
    11c8:	682f0065 	stmdavs	pc!, {r0, r2, r5, r6}	; <UNPREDICTABLE>
    11cc:	2f656d6f 	svccs	0x00656d6f
    11d0:	6c676e65 	stclvs	14, cr6, [r7], #-404	; 0xfffffe6c
    11d4:	632f7265 	teqvs	pc, #1342177286	; 0x50000006
    11d8:	7373616c 	cmnvc	r3, #108, 2
    11dc:	3273632f 	rsbscc	r6, r3, #-1140850688	; 0xbc000000
    11e0:	786c3034 	stmdavc	ip!, {r2, r4, r5, ip, sp}^
    11e4:	7330322d 	teqvc	r0, #-805306366	; 0xd0000002
    11e8:	2f2f7270 	svccs	0x002f7270
    11ec:	7062696c 	rsbvc	r6, r2, ip, ror #18
    11f0:	752f0069 	strvc	r0, [pc, #-105]!	; 118f <_start-0x6e71>
    11f4:	692f7273 	stmdbvs	pc!, {r0, r1, r4, r5, r6, r9, ip, sp, lr}	; <UNPREDICTABLE>
    11f8:	756c636e 	strbvc	r6, [ip, #-878]!	; 0x36e
    11fc:	6e2f6564 	cfsh64vs	mvdx6, mvdx15, #52
    1200:	696c7765 	stmdbvs	ip!, {r0, r2, r5, r6, r8, r9, sl, ip, sp, lr}^
    1204:	6b000062 	blvs	1394 <_start-0x6c6c>
    1208:	6c6c616d 	stfvse	f6, [ip], #-436	; 0xfffffe4c
    120c:	632e636f 	teqvs	lr, #-1140850687	; 0xbc000001
    1210:	00000000 	andeq	r0, r0, r0
    1214:	6b636f6c 	blvs	18dcfcc <__bss_end__+0x18d24d4>
    1218:	0100682e 	tsteq	r0, lr, lsr #16
    121c:	745f0000 	ldrbvc	r0, [pc], #-0	; 1224 <_start-0x6ddc>
    1220:	73657079 	cmnvc	r5, #121	; 0x79
    1224:	0100682e 	tsteq	r0, lr, lsr #16
    1228:	74730000 	ldrbtvc	r0, [r3], #-0
    122c:	66656464 	strbtvs	r6, [r5], -r4, ror #8
    1230:	0200682e 	andeq	r6, r0, #3014656	; 0x2e0000
    1234:	65720000 	ldrbvs	r0, [r2, #-0]!
    1238:	2e746e65 	cdpcs	14, 7, cr6, cr4, cr5, {3}
    123c:	00010068 	andeq	r0, r1, r8, rrx
    1240:	69707200 	ldmdbvs	r0!, {r9, ip, sp, lr}^
    1244:	0300682e 	movweq	r6, #2094	; 0x82e
    1248:	74730000 	ldrbtvc	r0, [r3], #-0
    124c:	676e6972 			; <UNDEFINED> instruction: 0x676e6972
    1250:	0400682e 	streq	r6, [r0], #-2094	; 0x82e
    1254:	00000000 	andeq	r0, r0, r0
    1258:	9ab40205 	bls	fed01a74 <__bss_end__+0xfecf6f7c>
    125c:	10030000 	andne	r0, r3, r0
    1260:	01830101 	orreq	r0, r3, r1, lsl #2
    1264:	00831468 	addeq	r1, r3, r8, ror #8
    1268:	7f010402 	svcvc	0x00010402
    126c:	01040200 	mrseq	r0, R12_usr
    1270:	2f5c0830 	svccs	0x005c0830
    1274:	4b4b4c4b 	blmi	12d43a8 <__bss_end__+0x12c98b0>
    1278:	04020068 	streq	r0, [r2], #-104	; 0x68
    127c:	4a790301 	bmi	1e41e88 <__bss_end__+0x1e37390>
    1280:	58080903 	stmdapl	r8, {r0, r1, r8, fp}
    1284:	4e2e012f 	sufmiep	f0, f6, #10.0
    1288:	674b6a2f 	strbvs	r6, [fp, -pc, lsr #20]
    128c:	002f4c67 	eoreq	r4, pc, r7, ror #24
    1290:	03010402 	movweq	r0, #5122	; 0x1402
    1294:	02002e76 	andeq	r2, r0, #1888	; 0x760
    1298:	08dc0104 	ldmeq	ip, {r2, r8}^
    129c:	9f012f7a 	svcls	0x00012f7a
    12a0:	00080201 	andeq	r0, r8, r1, lsl #4
    12a4:	Address 0x00000000000012a4 is out of bounds.


Disassembly of section .debug_str:

00000000 <.debug_str>:
   0:	657a6973 	ldrbvs	r6, [sl, #-2419]!	; 0x973
   4:	4700745f 	smlsdmi	r0, pc, r4, r7	; <UNPREDICTABLE>
   8:	4320554e 	teqmi	r0, #327155712	; 0x13800000
   c:	382e3420 	stmdacc	lr!, {r5, sl, ip, sp}
  10:	2d20332e 	stccs	3, cr3, [r0, #-184]!	; 0xffffff48
  14:	7570636d 	ldrbvc	r6, [r0, #-877]!	; 0x36d
  18:	6d72613d 	ldfvse	f6, [r2, #-244]!	; 0xffffff0c
  1c:	36373131 			; <UNDEFINED> instruction: 0x36373131
  20:	2d667a6a 	vstmdbcs	r6!, {s15-s120}
  24:	6d2d2073 	stcvs	0, cr2, [sp, #-460]!	; 0xfffffe34
  28:	656e7574 	strbvs	r7, [lr, #-1396]!	; 0x574
  2c:	6d72613d 	ldfvse	f6, [r2, #-244]!	; 0xffffff0c
  30:	36373131 			; <UNDEFINED> instruction: 0x36373131
  34:	2d667a6a 	vstmdbcs	r6!, {s15-s120}
  38:	672d2073 			; <UNDEFINED> instruction: 0x672d2073
  3c:	20626467 	rsbcs	r6, r2, r7, ror #8
  40:	20674f2d 	rsbcs	r4, r7, sp, lsr #30
  44:	6474732d 	ldrbtvs	r7, [r4], #-813	; 0x32d
  48:	756e673d 	strbvc	r6, [lr, #-1853]!	; 0x73d
  4c:	2d203939 	stccs	9, cr3, [r0, #-228]!	; 0xffffff1c
  50:	65726666 	ldrbvs	r6, [r2, #-1638]!	; 0x666
  54:	61747365 	cmnvs	r4, r5, ror #6
  58:	6e69646e 	cdpvs	4, 6, cr6, cr9, cr14, {3}
  5c:	6b630067 	blvs	18c0200 <__bss_end__+0x18b5708>
  60:	6f6c6c61 	svcvs	0x006c6c61
  64:	552f0063 	strpl	r0, [pc, #-99]!	; 9 <_start-0x7ff7>
  68:	73726573 	cmnvc	r2, #482344960	; 0x1cc00000
  6c:	6972622f 	ldmdbvs	r2!, {r0, r1, r2, r3, r5, r9, sp, lr}^
  70:	756a6e61 	strbvc	r6, [sl, #-3681]!	; 0xe61
  74:	65442f6e 	strbvs	r2, [r4, #-3950]	; 0xf6e
  78:	6f746b73 	svcvs	0x00746b73
  7c:	63732f70 	cmnvs	r3, #112, 30	; 0x1c0
  80:	6c6f6f68 	stclvs	15, cr6, [pc], #-416	; fffffee8 <__bss_end__+0xffff53f0>
  84:	7270532f 	rsbsvc	r5, r0, #-1140850688	; 0xbc000000
  88:	31676e69 	cmncc	r7, r9, ror #28
  8c:	2f303239 	svccs	0x00303239
  90:	34325343 	ldrtcc	r5, [r2], #-835	; 0x343
  94:	2f584c30 	svccs	0x00584c30
  98:	34327363 	ldrtcc	r7, [r2], #-867	; 0x363
  9c:	2d786c30 	ldclcs	12, cr6, [r8, #-192]!	; 0xffffff40
  a0:	70733032 	rsbsvc	r3, r3, r2, lsr r0
  a4:	616c2f72 	smcvs	49906	; 0xc2f2
  a8:	312f7362 	teqcc	pc, r2, ror #6
  ac:	63672d31 	cmnvs	r7, #3136	; 0xc40
  b0:	646f632f 	strbtvs	r6, [pc], #-815	; b8 <_start-0x7f48>
  b4:	6b630065 	blvs	18c0250 <__bss_end__+0x18b5758>
  b8:	6e69665f 	mcrvs	6, 3, r6, cr9, cr15, {2}
  bc:	656c5f64 	strbvs	r5, [ip, #-3940]!	; 0xf64
  c0:	00736b61 	rsbseq	r6, r3, r1, ror #22
  c4:	6d746f6e 	ldclvs	15, cr6, [r4, #-440]!	; 0xfffffe48
  c8:	006e6961 	rsbeq	r6, lr, r1, ror #18
  cc:	685f6b63 	ldmdavs	pc, {r0, r1, r5, r6, r8, r9, fp, sp, lr}^	; <UNPREDICTABLE>
  d0:	5f706165 	svcpl	0x00706165
  d4:	6f727265 	svcvs	0x00727265
  d8:	74007372 	strvc	r7, [r0], #-882	; 0x372
  dc:	73747365 	cmnvc	r4, #-1811939327	; 0x94000001
  e0:	7261702f 	rsbvc	r7, r1, #47	; 0x2f
  e4:	742d3274 	strtvc	r3, [sp], #-628	; 0x274
  e8:	36747365 	ldrbtcc	r7, [r4], -r5, ror #6
  ec:	6300632e 	movwvs	r6, #814	; 0x32e
  f0:	6e61656c 	cdpvs	5, 6, cr6, cr1, cr12, {3}
  f4:	6265725f 	rsbvs	r7, r5, #-268435451	; 0xf0000005
  f8:	00746f6f 	rsbseq	r6, r4, pc, ror #30
  fc:	726f6873 	rsbvc	r6, pc, #7536640	; 0x730000
 100:	6e752074 	mrcvs	0, 3, r2, cr5, cr4, {3}
 104:	6e676973 	mcrvs	9, 3, r6, cr7, cr3, {3}
 108:	69206465 	stmdbvs	r0!, {r0, r2, r5, r6, sl, sp, lr}
 10c:	6b00746e 	blvs	1d2cc <__bss_end__+0x127d4>
 110:	6c6c616d 	stfvse	f6, [ip], #-436	; 0xfffffe4c
 114:	7200636f 	andvc	r6, r0, #-1140850687	; 0xbc000001
 118:	725f6970 	subsvc	r6, pc, #112, 18	; 0x1c0000
 11c:	74657365 	strbtvc	r7, [r5], #-869	; 0x365
 120:	7475705f 	ldrbtvc	r7, [r5], #-95	; 0x5f
 124:	6e750063 	cdpvs	0, 7, cr0, cr5, cr3, {3}
 128:	6e676973 	mcrvs	9, 3, r6, cr7, cr3, {3}
 12c:	63206465 	teqvs	r0, #1694498816	; 0x65000000
 130:	00726168 	rsbseq	r6, r2, r8, ror #2
 134:	736d656d 	cmnvc	sp, #457179136	; 0x1b400000
 138:	5f007465 	svcpl	0x00007465
 13c:	4e55465f 	mrcmi	6, 2, r4, cr5, cr15, {2}
 140:	4f495443 	svcmi	0x00495443
 144:	005f5f4e 	subseq	r5, pc, lr, asr #30
 148:	695f6b63 	ldmdbvs	pc, {r0, r1, r5, r6, r8, r9, fp, sp, lr}^	; <UNPREDICTABLE>
 14c:	0074696e 	rsbseq	r6, r4, lr, ror #18
 150:	676e6f6c 	strbvs	r6, [lr, -ip, ror #30]!
 154:	6e6f6c20 	cdpvs	12, 6, cr6, cr15, cr0, {1}
 158:	6e752067 	cdpvs	0, 7, cr2, cr5, cr7, {3}
 15c:	6e676973 	mcrvs	9, 3, r6, cr7, cr3, {3}
 160:	69206465 	stmdbvs	r0!, {r0, r2, r5, r6, sl, sp, lr}
 164:	7300746e 	movwvc	r7, #1134	; 0x46e
 168:	74657a69 	strbtvc	r7, [r5], #-2665	; 0xa69
 16c:	00657079 	rsbeq	r7, r5, r9, ror r0
 170:	676e6f6c 	strbvs	r6, [lr, -ip, ror #30]!
 174:	6e6f6c20 	cdpvs	12, 6, cr6, cr15, cr0, {1}
 178:	6e692067 	cdpvs	0, 6, cr2, cr9, cr7, {3}
 17c:	68730074 	ldmdavs	r3!, {r2, r4, r5, r6}^
 180:	2074726f 	rsbscs	r7, r4, pc, ror #4
 184:	00746e69 	rsbseq	r6, r4, r9, ror #28
 188:	746e6975 	strbtvc	r6, [lr], #-2421	; 0x975
 18c:	745f3233 	ldrbvc	r3, [pc], #-563	; 194 <_start-0x7e6c>
 190:	616d6b00 	cmnvs	sp, r0, lsl #22
 194:	636f6c6c 	cmnvs	pc, #108, 24	; 0x6c00
 198:	696e695f 	stmdbvs	lr!, {r0, r1, r2, r3, r4, r6, r8, fp, sp, lr}^
 19c:	65735f74 	ldrbvs	r5, [r3, #-3956]!	; 0xf74
 1a0:	74735f74 	ldrbtvc	r5, [r3], #-3956	; 0xf74
 1a4:	00747261 	rsbseq	r7, r4, r1, ror #4
 1a8:	74736574 	ldrbtvc	r6, [r3], #-1396	; 0x574
 1ac:	75630031 	strbvc	r0, [r3, #-49]!	; 0x31
 1b0:	685f7272 	ldmdavs	pc, {r1, r4, r5, r6, r9, ip, sp, lr}^	; <UNPREDICTABLE>
 1b4:	79626e00 	stmdbvc	r2!, {r9, sl, fp, sp, lr}^
 1b8:	5f736574 	svcpl	0x00736574
 1bc:	65657266 	strbvs	r7, [r5, #-614]!	; 0x266
 1c0:	6b630064 	blvs	18c0358 <__bss_end__+0x18b5860>
 1c4:	7269665f 	rsbvc	r6, r9, #99614720	; 0x5f00000
 1c8:	685f7473 	ldmdavs	pc, {r0, r1, r4, r5, r6, sl, ip, sp, lr}^	; <UNPREDICTABLE>
 1cc:	70007264 	andvc	r7, r0, r4, ror #4
 1d0:	00766572 	rsbseq	r6, r6, r2, ror r5
 1d4:	5f646c6f 	svcpl	0x00646c6f
 1d8:	6b72616d 	blvs	1c98794 <__bss_end__+0x1c8dc9c>
 1dc:	73616600 	cmnvc	r1, #0, 12
 1e0:	61685f74 	smcvs	34292	; 0x85f4
 1e4:	62006873 	andvs	r6, r0, #7536640	; 0x730000
 1e8:	317a725f 	cmncc	sl, pc, asr r2
 1ec:	7274705f 	rsbsvc	r7, r4, #95	; 0x5f
 1f0:	45524600 	ldrbmi	r4, [r2, #-1536]	; 0x600
 1f4:	41004445 	tstmi	r0, r5, asr #8
 1f8:	434f4c4c 	movtmi	r4, #64588	; 0xfc4c
 1fc:	62004445 	andvs	r4, r0, #1157627904	; 0x45000000
 200:	6464615f 	strbtvs	r6, [r4], #-351	; 0x15f
 204:	6f745f72 	svcvs	0x00745f72
 208:	7264685f 	rsbvc	r6, r4, #6225920	; 0x5f0000
 20c:	5f796d00 	svcpl	0x00796d00
 210:	6f666e69 	svcvs	0x00666e69
 214:	6e697500 	cdpvs	5, 6, cr7, cr9, cr0, {0}
 218:	5f363174 	svcpl	0x00363174
 21c:	564f0074 			; <UNDEFINED> instruction: 0x564f0074
 220:	45485245 	strbmi	r5, [r8, #-581]	; 0x245
 224:	4e5f4441 	cdpmi	4, 5, cr4, cr15, cr1, {2}
 228:	45545942 	ldrbmi	r5, [r4, #-2370]	; 0x942
 22c:	4c410053 	mcrrmi	0, 5, r0, r1, cr3
 230:	5f434f4c 	svcpl	0x00434f4c
 234:	5346464f 	movtpl	r4, #26191	; 0x664f
 238:	63005445 	movwvs	r5, #1093	; 0x445
 23c:	6c6c616b 	stfvse	f6, [ip], #-428	; 0xfffffe54
 240:	632e636f 	teqvs	lr, #-1140850687	; 0xbc000001
 244:	666b6300 	strbtvs	r6, [fp], -r0, lsl #6
 248:	00656572 	rsbeq	r6, r5, r2, ror r5
 24c:	63656863 	cmnvs	r5, #6488064	; 0x630000
 250:	61645f6b 	cmnvs	r4, fp, ror #30
 254:	63006174 	movwvs	r6, #372	; 0x174
 258:	656e5f6b 	strbvs	r5, [lr, #-3947]!	; 0xf6b
 25c:	685f7478 	ldmdavs	pc, {r3, r4, r5, r6, sl, ip, sp, lr}^	; <UNPREDICTABLE>
 260:	61007264 	tstvs	r0, r4, ror #4
 264:	636f6c6c 	cmnvs	pc, #108, 24	; 0x6c00
 268:	636f6c5f 	cmnvs	pc, #24320	; 0x5f00
 26c:	72646800 	rsbvc	r6, r4, #0, 16
 270:	736b635f 	cmnvc	fp, #2080374785	; 0x7c000001
 274:	52006d75 	andpl	r6, r0, #7488	; 0x1d40
 278:	4f5a4445 	svcmi	0x005a4445
 27c:	6f00454e 	svcvs	0x0000454e
 280:	635f646c 	cmpvs	pc, #108, 8	; 0x6c000000
 284:	6d75736b 	ldclvs	3, cr7, [r5, #-428]!	; 0xfffffe54
 288:	79626e00 	stmdbvc	r2!, {r9, sl, fp, sp, lr}^
 28c:	5f736574 	svcpl	0x00736574
 290:	6f6c6c61 	svcvs	0x006c6c61
 294:	72660063 	rsbvc	r0, r6, #99	; 0x63
 298:	6c5f6565 	cfldr64vs	mvdx6, [pc], {101}	; 0x65
 29c:	6200636f 	andvs	r6, r0, #-1140850687	; 0xbc000001
 2a0:	6c6c615f 	stfvse	f6, [ip], #-380	; 0xfffffe84
 2a4:	705f636f 	subsvc	r6, pc, pc, ror #6
 2a8:	68007274 	stmdavs	r0, {r2, r4, r5, r6, r9, ip, sp, lr}
 2ac:	5f706165 	svcpl	0x00706165
 2b0:	6f666e69 	svcvs	0x00666e69
 2b4:	63727300 	cmnvs	r2, #0, 6
 2b8:	636f6c5f 	cmnvs	pc, #24320	; 0x5f00
 2bc:	6600745f 			; <UNDEFINED> instruction: 0x6600745f
 2c0:	74737269 	ldrbtvc	r7, [r3], #-617	; 0x269
 2c4:	65686300 	strbvs	r6, [r8, #-768]!	; 0x300
 2c8:	685f6b63 	ldmdavs	pc, {r0, r1, r5, r6, r8, r9, fp, sp, lr}^	; <UNPREDICTABLE>
 2cc:	62007264 	andvs	r7, r0, #100, 4	; 0x40000006
 2d0:	327a725f 	rsbscc	r7, sl, #-268435451	; 0xf0000005
 2d4:	7274705f 	rsbsvc	r7, r4, #95	; 0x5f
 2d8:	72656e00 	rsbvc	r6, r5, #0, 28
 2dc:	73726f72 	cmnvc	r2, #456	; 0x1c8
 2e0:	72646800 	rsbvc	r6, r4, #0, 16
 2e4:	6972705f 	ldmdbvs	r2!, {r0, r1, r2, r3, r4, r6, ip, sp, lr}^
 2e8:	6e00746e 	cdpvs	4, 0, cr7, cr0, cr14, {3}
 2ec:	736b6c62 	cmnvc	fp, #25088	; 0x6200
 2f0:	4e455300 	cdpmi	3, 4, cr5, cr5, cr0, {0}
 2f4:	414e4954 	cmpmi	lr, r4, asr r9
 2f8:	616d004c 	cmnvs	sp, ip, asr #32
 2fc:	6d5f6b72 	vldrvs	d22, [pc, #-456]	; 13c <_start-0x7ec4>
 300:	6f006d65 	svcvs	0x00006d65
 304:	725f646c 	subsvc	r6, pc, #108, 8	; 0x6c000000
 308:	5f736665 	svcpl	0x00736665
 30c:	6464696d 	strbtvs	r6, [r4], #-2413	; 0x96d
 310:	6e00656c 	cfsh32vs	mvfx6, mvfx0, #60
 314:	65747962 	ldrbvs	r7, [r4, #-2402]!	; 0x962
 318:	6c615f73 	stclvs	15, cr5, [r1], #-460	; 0xfffffe34
 31c:	65636f6c 	strbvs	r6, [r3, #-3948]!	; 0xf6c
 320:	68630064 	stmdavs	r3!, {r2, r5, r6}^
 324:	5f6b6365 	svcpl	0x006b6365
 328:	636f6c62 	cmnvs	pc, #25088	; 0x6200
 32c:	696c006b 	stmdbvs	ip!, {r0, r1, r3, r5, r6}^
 330:	6f6e656e 	svcvs	0x006e656e
 334:	725f6200 	subsvc	r6, pc, #0, 4
 338:	6e5f327a 	mrcvs	2, 2, r3, cr15, cr10, {3}
 33c:	65747962 	ldrbvs	r7, [r4, #-2402]!	; 0x962
 340:	69750073 	ldmdbvs	r5!, {r0, r1, r4, r5, r6}^
 344:	5f38746e 	svcpl	0x0038746e
 348:	64680074 	strbtvs	r0, [r8], #-116	; 0x74
 34c:	00745f72 	rsbseq	r5, r4, r2, ror pc
 350:	5f646c6f 	svcpl	0x00646c6f
 354:	73666572 	cmnvc	r6, #478150656	; 0x1c800000
 358:	6174735f 	cmnvs	r4, pc, asr r3
 35c:	6e007472 	mcrvs	4, 0, r7, cr0, cr2, {3}
 360:	65747962 	ldrbvs	r7, [r4, #-2402]!	; 0x962
 364:	65725f73 	ldrbvs	r5, [r2, #-3955]!	; 0xf73
 368:	656c006d 	strbvs	r0, [ip, #-109]!	; 0x6d
 36c:	63007466 	movwvs	r7, #1126	; 0x466
 370:	6b636568 	blvs	18d9918 <__bss_end__+0x18cee20>
 374:	6d656d5f 	stclvs	13, cr6, [r5, #-380]!	; 0xfffffe84
 378:	61656800 	cmnvs	r5, r0, lsl #16
 37c:	00726564 	rsbseq	r6, r2, r4, ror #10
 380:	63617473 	cmnvs	r1, #1929379840	; 0x73000000
 384:	6f745f6b 	svcvs	0x00745f6b
 388:	61770070 	cmnvs	r7, r0, ror r0
 38c:	6e5f6e72 	mrcvs	14, 2, r6, cr15, cr2, {3}
 390:	74735f6f 	ldrbtvc	r5, [r3], #-3951	; 0xf6f
 394:	5f747261 	svcpl	0x00747261
 398:	5f666572 	svcpl	0x00666572
 39c:	6d690070 	stclvs	0, cr0, [r9, #-448]!	; 0xfffffe40
 3a0:	6d656c70 	stclvs	12, cr6, [r5, #-448]!	; 0xfffffe40
 3a4:	5f746e65 	svcpl	0x00746e65
 3a8:	73696874 	cmnvc	r9, #116, 16	; 0x740000
 3ac:	65686300 	strbvs	r6, [r8, #-768]!	; 0x300
 3b0:	6e5f6b63 	vnmlavs.f64	d22, d15, d19
 3b4:	656c5f6f 	strbvs	r5, [ip, #-3951]!	; 0xf6f
 3b8:	63006b61 	movwvs	r6, #2913	; 0xb61
 3bc:	5f727275 	svcpl	0x00727275
 3c0:	00726468 	rsbseq	r6, r2, r8, ror #8
 3c4:	61656c6e 	cmnvs	r5, lr, ror #24
 3c8:	7300736b 	movwvc	r7, #875	; 0x36b
 3cc:	70656577 	rsbvc	r6, r5, r7, ror r5
 3d0:	6572665f 	ldrbvs	r6, [r2, #-1631]!	; 0x65f
 3d4:	616d0065 	cmnvs	sp, r5, rrx
 3d8:	5f656279 	svcpl	0x00656279
 3dc:	6f727265 	svcvs	0x00727265
 3e0:	63007372 	movwvs	r7, #882	; 0x372
 3e4:	63675f6b 	cmnvs	r7, #428	; 0x1ac
 3e8:	625f5f00 	subsvs	r5, pc, #0, 30
 3ec:	735f7373 	cmpvc	pc, #-872415231	; 0xcc000001
 3f0:	74726174 	ldrbtvc	r6, [r2], #-372	; 0x174
 3f4:	5f005f5f 	svcpl	0x00005f5f
 3f8:	7373625f 	cmnvc	r3, #-268435451	; 0xf0000005
 3fc:	646e655f 	strbtvs	r6, [lr], #-1375	; 0x55f
 400:	73005f5f 	movwvc	r5, #3935	; 0xf5f
 404:	70656577 	rsbvc	r6, r5, r7, ror r5
 408:	61656c5f 	cmnvs	r5, pc, asr ip
 40c:	6e69006b 	cdpvs	0, 6, cr0, cr9, cr11, {3}
 410:	6165685f 	cmnvs	r5, pc, asr r8
 414:	75630070 	strbvc	r0, [r3, #-112]!	; 0x70
 418:	63007272 	movwvs	r7, #626	; 0x272
 41c:	6b636568 	blvs	18d99c4 <__bss_end__+0x18ceecc>
 420:	6f68735f 	svcvs	0x0068735f
 424:	5f646c75 	svcpl	0x00646c75
 428:	6b61656c 	blvs	18599e0 <__bss_end__+0x184eee8>
 42c:	645f5f00 	ldrbvs	r5, [pc], #-3840	; 434 <_start-0x7bcc>
 430:	5f617461 	svcpl	0x00617461
 434:	72617473 	rsbvc	r7, r1, #1929379840	; 0x73000000
 438:	005f5f74 	subseq	r5, pc, r4, ror pc	; <UNPREDICTABLE>
 43c:	706d7564 	rsbvc	r7, sp, r4, ror #10
 440:	6765725f 			; <UNDEFINED> instruction: 0x6765725f
 444:	666e0073 			; <UNDEFINED> instruction: 0x666e0073
 448:	64656572 	strbtvs	r6, [r5], #-1394	; 0x572
 44c:	2d6b6300 	stclcs	3, cr6, [fp, #-0]
 450:	632e6367 	teqvs	lr, #-1677721599	; 0x9c000001
 454:	645f5f00 	ldrbvs	r5, [pc], #-3840	; 45c <_start-0x7ba4>
 458:	5f617461 	svcpl	0x00617461
 45c:	5f646e65 	svcpl	0x00646e65
 460:	616d005f 	qdsubvs	r0, pc, sp	; <UNPREDICTABLE>
 464:	615f6b72 	cmpvs	pc, r2, ror fp	; <UNPREDICTABLE>
 468:	69006c6c 	stmdbvs	r0, {r2, r3, r5, r6, sl, fp, sp, lr}
 46c:	74705f73 	ldrbtvc	r5, [r0], #-3955	; 0xf73
 470:	626e0072 	rsbvs	r0, lr, #114	; 0x72
 474:	6b636f6c 	blvs	18dc22c <__bss_end__+0x18d1734>
 478:	696c0073 	stmdbvs	ip!, {r0, r1, r4, r5, r6}^
 47c:	682f6362 	stmdavs	pc!, {r1, r5, r6, r8, r9, sp, lr}	; <UNPREDICTABLE>
 480:	2e687361 	cdpcs	3, 6, cr7, cr8, cr1, {3}
 484:	552f0063 	strpl	r0, [pc, #-99]!	; 429 <_start-0x7bd7>
 488:	73726573 	cmnvc	r2, #482344960	; 0x1cc00000
 48c:	6972622f 	ldmdbvs	r2!, {r0, r1, r2, r3, r5, r9, sp, lr}^
 490:	756a6e61 	strbvc	r6, [sl, #-3681]!	; 0xe61
 494:	65442f6e 	strbvs	r2, [r4, #-3950]	; 0xf6e
 498:	6f746b73 	svcvs	0x00746b73
 49c:	63732f70 	cmnvs	r3, #112, 30	; 0x1c0
 4a0:	6c6f6f68 	stclvs	15, cr6, [pc], #-416	; 308 <_start-0x7cf8>
 4a4:	7270532f 	rsbsvc	r5, r0, #-1140850688	; 0xbc000000
 4a8:	31676e69 	cmncc	r7, r9, ror #28
 4ac:	2f303239 	svccs	0x00303239
 4b0:	34325343 	ldrtcc	r5, [r2], #-835	; 0x343
 4b4:	2f584c30 	svccs	0x00584c30
 4b8:	34327363 	ldrtcc	r7, [r2], #-867	; 0x363
 4bc:	2d786c30 	ldclcs	12, cr6, [r8, #-192]!	; 0xffffff40
 4c0:	70733032 	rsbsvc	r3, r3, r2, lsr r0
 4c4:	696c2f72 	stmdbvs	ip!, {r1, r4, r5, r6, r8, r9, sl, fp, sp}^
 4c8:	00697062 	rsbeq	r7, r9, r2, rrx
 4cc:	6362696c 	cmnvs	r2, #108, 18	; 0x1b0000
 4d0:	6d656d2f 	stclvs	13, cr6, [r5, #-188]!	; 0xffffff44
 4d4:	2e746573 	mrccs	5, 3, r6, cr4, cr3, {3}
 4d8:	5f5f0063 	svcpl	0x005f0063
 4dc:	63756e67 	cmnvs	r5, #1648	; 0x670
 4e0:	5f61765f 	svcpl	0x0061765f
 4e4:	7473696c 	ldrbtvc	r6, [r3], #-2412	; 0x96c
 4e8:	62696c00 	rsbvs	r6, r9, #0, 24
 4ec:	72702f63 	rsbsvc	r2, r0, #396	; 0x18c
 4f0:	6b746e69 	blvs	1d1be9c <__bss_end__+0x1d113a4>
 4f4:	7600632e 	strvc	r6, [r0], -lr, lsr #6
 4f8:	72705f61 	rsbsvc	r5, r0, #388	; 0x184
 4fc:	6b746e69 	blvs	1d1bea8 <__bss_end__+0x1d113b0>
 500:	765f5f00 	ldrbvc	r5, [pc], -r0, lsl #30
 504:	696c5f61 	stmdbvs	ip!, {r0, r5, r6, r8, r9, sl, fp, ip, lr}^
 508:	5f007473 	svcpl	0x00007473
 50c:	0070615f 	rsbseq	r6, r0, pc, asr r1
 510:	74726175 	ldrbtvc	r6, [r2], #-373	; 0x175
 514:	7475705f 	ldrbtvc	r7, [r5], #-95	; 0x5f
 518:	6e690063 	cdpvs	0, 6, cr0, cr9, cr3, {3}
 51c:	6e726574 	mrcvs	5, 3, r6, cr2, cr4, {3}
 520:	705f6c61 	subsvc	r6, pc, r1, ror #24
 524:	68637475 	stmdavs	r3!, {r0, r2, r4, r5, r6, sl, ip, sp, lr}^
 528:	72007261 	andvc	r7, r0, #268435462	; 0x10000006
 52c:	705f6970 	subsvc	r6, pc, r0, ror r9	; <UNPREDICTABLE>
 530:	68637475 	stmdavs	r3!, {r0, r2, r4, r5, r6, sl, ip, sp, lr}^
 534:	6c007261 	sfmvs	f7, 4, [r0], {97}	; 0x61
 538:	2f636269 	svccs	0x00636269
 53c:	63747570 	cmnvs	r4, #112, 10	; 0x1c000000
 540:	2e726168 	rpwcssz	f6, f2, #0.0
 544:	70720063 	rsbsvc	r0, r2, r3, rrx
 548:	65735f69 	ldrbvs	r5, [r3, #-3945]!	; 0xf69
 54c:	75705f74 	ldrbvc	r5, [r0, #-3956]!	; 0xf74
 550:	6c006374 	stcvs	3, cr6, [r0], {116}	; 0x74
 554:	2f636269 	svccs	0x00636269
 558:	6b747570 	blvs	1d1db20 <__bss_end__+0x1d13028>
 55c:	6900632e 	stmdbvs	r0, {r1, r2, r3, r5, r8, r9, sp, lr}
 560:	7265746e 	rsbvc	r7, r5, #1845493760	; 0x6e000000
 564:	5f6c616e 	svcpl	0x006c616e
 568:	6b747570 	blvs	1d1db30 <__bss_end__+0x1d13038>
 56c:	67656e00 	strbvs	r6, [r5, -r0, lsl #28]!
 570:	7200705f 	andvc	r7, r0, #95	; 0x5f
 574:	72657665 	rsbvc	r7, r5, #105906176	; 0x6500000
 578:	69006573 	stmdbvs	r0, {r0, r1, r4, r5, r6, r8, sl, sp, lr}
 57c:	67696473 			; <UNDEFINED> instruction: 0x67696473
 580:	70007469 	andvc	r7, r0, r9, ror #8
 584:	5f737475 	svcpl	0x00737475
 588:	73007066 	movwvc	r7, #102	; 0x66
 58c:	656e6769 	strbvs	r6, [lr, #-1897]!	; 0x769
 590:	00705f64 	rsbseq	r5, r0, r4, ror #30
 594:	6362696c 	cmnvs	r2, #108, 18	; 0x1b0000
 598:	2d61762f 	stclcs	6, cr7, [r1, #-188]!	; 0xffffff44
 59c:	6e697270 	mcrvs	2, 3, r7, cr9, cr0, {3}
 5a0:	632e6b74 	teqvs	lr, #116, 22	; 0x1d000
 5a4:	69707200 	ldmdbvs	r0!, {r9, ip, sp, lr}^
 5a8:	7465735f 	strbtvc	r7, [r5], #-863	; 0x35f
 5ac:	74756f5f 	ldrbtvc	r6, [r5], #-3935	; 0xf5f
 5b0:	00747570 	rsbseq	r7, r4, r0, ror r5
 5b4:	74646977 	strbtvc	r6, [r4], #-2423	; 0x977
 5b8:	75700068 	ldrbvc	r0, [r0, #-104]!	; 0x68
 5bc:	665f6374 			; <UNDEFINED> instruction: 0x665f6374
 5c0:	6d650070 	stclvs	0, cr0, [r5, #-448]!	; 0xfffffe40
 5c4:	73007469 	movwvc	r7, #1129	; 0x469
 5c8:	66666174 			; <UNDEFINED> instruction: 0x66666174
 5cc:	6372732d 	cmnvs	r2, #-1275068416	; 0xb4000000
 5d0:	656c632f 	strbvs	r6, [ip, #-815]!	; 0x32f
 5d4:	722d6e61 	eorvc	r6, sp, #1552	; 0x610
 5d8:	6f6f6265 	svcvs	0x006f6265
 5dc:	00632e74 	rsbeq	r2, r3, r4, ror lr
 5e0:	5f697072 	svcpl	0x00697072
 5e4:	6f626572 	svcvs	0x00626572
 5e8:	6400746f 	strvs	r7, [r0], #-1135	; 0x46f
 5ec:	79616c65 	stmdbvc	r1!, {r0, r2, r5, r6, sl, fp, sp, lr}^
 5f0:	00736d5f 	rsbseq	r6, r3, pc, asr sp
 5f4:	5f737362 	svcpl	0x00737362
 5f8:	00646e65 	rsbeq	r6, r4, r5, ror #28
 5fc:	7473635f 	ldrbtvc	r6, [r3], #-863	; 0x35f
 600:	00747261 	rsbseq	r7, r4, r1, ror #4
 604:	66617473 			; <UNDEFINED> instruction: 0x66617473
 608:	72732d66 	rsbsvc	r2, r3, #6528	; 0x1980
 60c:	73632f63 	cmnvc	r3, #396	; 0x18c
 610:	74726174 	ldrbtvc	r6, [r2], #-372	; 0x174
 614:	6100632e 	tstvs	r0, lr, lsr #6
 618:	73755f74 	cmnvc	r5, #116, 30	; 0x1d0
 61c:	6c5f7265 	lfmvs	f7, 2, [pc], {101}	; 0x65
 620:	6c657665 	stclvs	6, cr7, [r5], #-404	; 0xfffffe6c
 624:	61747300 	cmnvs	r4, r0, lsl #6
 628:	732d6666 	teqvc	sp, #106954752	; 0x6600000
 62c:	722f6372 	eorvc	r6, pc, #-939524095	; 0xc8000001
 630:	6f6f6265 	svcvs	0x006f6265
 634:	00632e74 	rsbeq	r2, r3, r4, ror lr
 638:	525f4d50 	subspl	r4, pc, #80, 26	; 0x1400
 63c:	5f435453 	svcpl	0x00435453
 640:	46435257 			; <UNDEFINED> instruction: 0x46435257
 644:	55465f47 	strbpl	r5, [r6, #-3911]	; 0xf47
 648:	525f4c4c 	subspl	r4, pc, #76, 24	; 0x4c00
 64c:	54455345 	strbpl	r5, [r5], #-837	; 0x345
 650:	5f4d5000 	svcpl	0x004d5000
 654:	474f4457 	smlsldmi	r4, pc, r7, r4	; <UNPREDICTABLE>
 658:	74657300 	strbtvc	r7, [r5], #-768	; 0x300
 65c:	6573755f 	ldrbvs	r7, [r3, #-1375]!	; 0x55f
 660:	656c5f72 	strbvs	r5, [ip, #-3954]!	; 0xf72
 664:	006c6576 	rsbeq	r6, ip, r6, ror r5
 668:	33545550 	cmpcc	r4, #80, 10	; 0x14000000
 66c:	4d500032 	ldclmi	0, cr0, [r0, #-200]	; 0xffffff38
 670:	5341505f 	movtpl	r5, #4191	; 0x105f
 674:	524f5753 	subpl	r5, pc, #21757952	; 0x14c0000
 678:	4d500044 	ldclmi	0, cr0, [r0, #-272]	; 0xfffffef0
 67c:	5453525f 	ldrbpl	r5, [r3], #-607	; 0x25f
 680:	70630043 	rsbvc	r0, r3, r3, asr #32
 684:	74007273 	strvc	r7, [r0], #-627	; 0x273
 688:	72656d69 	rsbvc	r6, r5, #6720	; 0x1a40
 68c:	7465675f 	strbtvc	r6, [r5], #-1887	; 0x75f
 690:	6573755f 	ldrbvs	r7, [r3, #-1375]!	; 0x55f
 694:	61725f63 	cmnvs	r2, r3, ror #30
 698:	65640077 	strbvs	r0, [r4, #-119]!	; 0x77
 69c:	5f79616c 	svcpl	0x0079616c
 6a0:	00636573 	rsbeq	r6, r3, r3, ror r5
 6a4:	66617473 			; <UNDEFINED> instruction: 0x66617473
 6a8:	72732d66 	rsbsvc	r2, r3, #6528	; 0x1980
 6ac:	69742f63 	ldmdbvs	r4!, {r0, r1, r5, r6, r8, r9, sl, fp, sp}^
 6b0:	2e72656d 	cdpcs	5, 7, cr6, cr2, cr13, {3}
 6b4:	45470063 	strbmi	r0, [r7, #-99]	; 0x63
 6b8:	00323354 	eorseq	r3, r2, r4, asr r3
 6bc:	6b636974 	blvs	18dac94 <__bss_end__+0x18d019c>
 6c0:	65640073 	strbvs	r0, [r4, #-115]!	; 0x73
 6c4:	5f79616c 	svcpl	0x0079616c
 6c8:	6c637963 	stclvs	9, cr7, [r3], #-396	; 0xfffffe74
 6cc:	64007365 	strvs	r7, [r0], #-869	; 0x365
 6d0:	79616c65 	stmdbvc	r1!, {r0, r2, r5, r6, sl, fp, sp, lr}^
 6d4:	0073755f 	rsbseq	r7, r3, pc, asr r5
 6d8:	656d6974 	strbvs	r6, [sp, #-2420]!	; 0x974
 6dc:	65675f72 	strbvs	r5, [r7, #-3954]!	; 0xf72
 6e0:	73755f74 	cmnvc	r5, #116, 30	; 0x1d0
 6e4:	5f006365 	svcpl	0x00006365
 6e8:	5f6f7364 	svcpl	0x006f7364
 6ec:	646e6168 	strbtvs	r6, [lr], #-360	; 0x168
 6f0:	5f00656c 	svcpl	0x0000656c
 6f4:	657a6973 	ldrbvs	r6, [sl, #-2419]!	; 0x973
 6f8:	61725f00 	cmnvs	r2, r0, lsl #30
 6fc:	3834646e 	ldmdacc	r4!, {r1, r2, r3, r5, r6, sl, sp, lr}
 700:	6d655f00 	stclvs	15, cr5, [r5, #-0]
 704:	65677265 	strbvs	r7, [r7, #-613]!	; 0x265
 708:	0079636e 	rsbseq	r6, r9, lr, ror #6
 70c:	74726175 	ldrbtvc	r6, [r2], #-373	; 0x175
 710:	696e695f 	stmdbvs	lr!, {r0, r1, r2, r3, r4, r6, r8, fp, sp, lr}^
 714:	775f0074 			; <UNDEFINED> instruction: 0x775f0074
 718:	6f747263 	svcvs	0x00747263
 71c:	735f626d 	cmpvc	pc, #-805306362	; 0xd0000006
 720:	65746174 	ldrbvs	r6, [r4, #-372]!	; 0x174
 724:	63775f00 	cmnvs	r7, #0, 30
 728:	6f747273 	svcvs	0x00747273
 72c:	5f73626d 	svcpl	0x0073626d
 730:	74617473 	strbtvc	r7, [r1], #-1139	; 0x473
 734:	6c5f0065 	mrrcvs	0, 6, r0, pc, cr5	; <UNPREDICTABLE>
 738:	69736662 	ldmdbvs	r3!, {r1, r5, r6, r9, sl, sp, lr}^
 73c:	4700657a 	smlsdxmi	r0, sl, r5, r6
 740:	5f4f4950 	svcpl	0x004f4950
 744:	434e5546 	movtmi	r5, #58694	; 0xe546
 748:	504e495f 	subpl	r4, lr, pc, asr r9
 74c:	5f005455 	svcpl	0x00005455
 750:	7472626d 	ldrbtvc	r6, [r2], #-621	; 0x26d
 754:	5f63776f 	svcpl	0x0063776f
 758:	74617473 	strbtvc	r7, [r1], #-1139	; 0x473
 75c:	775f0065 	ldrbvc	r0, [pc, -r5, rrx]
 760:	6d6f7463 	cfstrdvs	mvd7, [pc, #-396]!	; 5dc <_start-0x7a24>
 764:	74735f62 	ldrbtvc	r5, [r3], #-3938	; 0xf62
 768:	00657461 	rsbeq	r7, r5, r1, ror #8
 76c:	6d745f5f 	ldclvs	15, cr5, [r4, #-380]!	; 0xfffffe84
 770:	6365735f 	cmnvs	r5, #2080374785	; 0x7c000001
 774:	61747300 	cmnvs	r4, r0, lsl #6
 778:	755f0074 	ldrbvc	r0, [pc, #-116]	; 70c <_start-0x78f4>
 77c:	00667562 	rsbeq	r7, r6, r2, ror #10
 780:	4f495047 	svcmi	0x00495047
 784:	4e55465f 	mrcmi	6, 2, r4, cr5, cr15, {2}
 788:	4c415f43 	mcrrmi	15, 4, r5, r1, cr3
 78c:	5f003154 	svcpl	0x00003154
 790:	65736162 	ldrbvs	r6, [r3, #-354]!	; 0x162
 794:	746e6300 	strbtvc	r6, [lr], #-768	; 0x300
 798:	5f5f006c 	svcpl	0x005f006c
 79c:	685f6d74 	ldmdavs	pc, {r2, r4, r5, r6, r8, sl, fp, sp, lr}^	; <UNPREDICTABLE>
 7a0:	0072756f 	rsbseq	r7, r2, pc, ror #10
 7a4:	66735f5f 	uhsaxvs	r5, r3, pc	; <UNPREDICTABLE>
 7a8:	6e6f5f00 	cdpvs	15, 6, cr5, cr15, cr0, {0}
 7ac:	6978655f 	ldmdbvs	r8!, {r0, r1, r2, r3, r4, r6, r8, sl, sp, lr}^
 7b0:	72615f74 	rsbvc	r5, r1, #116, 30	; 0x1d0
 7b4:	5f007367 	svcpl	0x00007367
 7b8:	6b6f6f63 	blvs	1bdc54c <__bss_end__+0x1bd1a54>
 7bc:	5f006569 	svcpl	0x00006569
 7c0:	6c67735f 	stclvs	3, cr7, [r7], #-380	; 0xfffffe84
 7c4:	5f006575 	svcpl	0x00006575
 7c8:	67616c66 	strbvs	r6, [r1, -r6, ror #24]!
 7cc:	695f0073 	ldmdbvs	pc, {r0, r1, r4, r5, r6}^	; <UNPREDICTABLE>
 7d0:	78635f73 	stmdavc	r3!, {r0, r1, r4, r5, r6, r8, r9, sl, fp, ip, lr}^
 7d4:	735f0061 	cmpvc	pc, #97	; 0x61
 7d8:	6e696474 	mcrvs	4, 3, r6, cr9, cr4, {3}
 7dc:	6c625f00 	stclvs	15, cr5, [r2], #-0
 7e0:	7a69736b 	bvc	1a5d594 <__bss_end__+0x1a52a9c>
 7e4:	61750065 	cmnvs	r5, r5, rrx
 7e8:	632e7472 	teqvs	lr, #1912602624	; 0x72000000
 7ec:	78756100 	ldmdavc	r5!, {r8, sp, lr}^
 7f0:	7265705f 	rsbvc	r7, r5, #95	; 0x5f
 7f4:	73687069 	cmnvc	r8, #105	; 0x69
 7f8:	76635f00 	strbtvc	r5, [r3], -r0, lsl #30
 7fc:	66756274 			; <UNDEFINED> instruction: 0x66756274
 800:	6f682f00 	svcvs	0x00682f00
 804:	652f656d 	strvs	r6, [pc, #-1389]!	; 29f <_start-0x7d61>
 808:	656c676e 	strbvs	r6, [ip, #-1902]!	; 0x76e
 80c:	6c632f72 	stclvs	15, cr2, [r3], #-456	; 0xfffffe38
 810:	2f737361 	svccs	0x00737361
 814:	34327363 	ldrtcc	r7, [r2], #-867	; 0x363
 818:	2d786c30 	ldclcs	12, cr6, [r8, #-192]!	; 0xffffff40
 81c:	70733032 	rsbsvc	r3, r3, r2, lsr r0
 820:	696c2f72 	stmdbvs	ip!, {r1, r4, r5, r6, r8, r9, sl, fp, sp}^
 824:	2f697062 	svccs	0x00697062
 828:	66617473 			; <UNDEFINED> instruction: 0x66617473
 82c:	72702d66 	rsbsvc	r2, r0, #6528	; 0x1980
 830:	74617669 	strbtvc	r7, [r1], #-1641	; 0x669
 834:	6d5f0065 	ldclvs	0, cr0, [pc, #-404]	; 6a8 <_start-0x7958>
 838:	74727362 	ldrbtvc	r7, [r2], #-866	; 0x362
 83c:	7363776f 	cmnvc	r3, #29097984	; 0x1bc0000
 840:	6174735f 	cmnvs	r4, pc, asr r3
 844:	5f006574 	svcpl	0x00006574
 848:	6c72626d 	lfmvs	f6, 2, [r2], #-436	; 0xfffffe4c
 84c:	735f6e65 	cmpvc	pc, #1616	; 0x650
 850:	65746174 	ldrbvs	r6, [r4, #-372]!	; 0x174
 854:	6e665f00 	cdpvs	15, 6, cr5, cr6, cr0, {0}
 858:	73677261 	cmnvc	r7, #268435462	; 0x10000006
 85c:	78756100 	ldmdavc	r5!, {r8, sp, lr}^
 860:	616e655f 	cmnvs	lr, pc, asr r5
 864:	73656c62 	cmnvc	r5, #25088	; 0x6200
 868:	6e665f00 	cdpvs	15, 6, cr5, cr6, cr0, {0}
 86c:	735f0073 	cmpvc	pc, #115	; 0x73
 870:	006e6769 	rsbeq	r6, lr, r9, ror #14
 874:	74726175 	ldrbtvc	r6, [r2], #-373	; 0x175
 878:	6e61635f 	mcrvs	3, 3, r6, cr1, cr15, {2}
 87c:	7475705f 	ldrbtvc	r7, [r5], #-95	; 0x5f
 880:	665f0063 	ldrbvs	r0, [pc], -r3, rrx
 884:	6b636f6c 	blvs	18dc63c <__bss_end__+0x18d1b44>
 888:	5f00745f 	svcpl	0x0000745f
 88c:	65647473 	strbvs	r7, [r4, #-1139]!	; 0x473
 890:	5f007272 	svcpl	0x00007272
 894:	69676942 	stmdbvs	r7!, {r1, r6, r8, fp, sp, lr}^
 898:	5f00746e 	svcpl	0x0000746e
 89c:	6d6d6167 	stfvse	f6, [sp, #-412]!	; 0xfffffe64
 8a0:	69735f61 	ldmdbvs	r3!, {r0, r5, r6, r8, r9, sl, fp, ip, lr}^
 8a4:	61676e67 	cmnvs	r7, r7, ror #28
 8a8:	725f006d 	subsvc	r0, pc, #109	; 0x6d
 8ac:	6c757365 	ldclvs	3, cr7, [r5], #-404	; 0xfffffe6c
 8b0:	006b5f74 	rsbeq	r5, fp, r4, ror pc
 8b4:	6d745f5f 	ldclvs	15, cr5, [r4, #-380]!	; 0xfffffe84
 8b8:	775f5f00 	ldrbvc	r5, [pc, -r0, lsl #30]
 8bc:	00626863 	rsbeq	r6, r2, r3, ror #16
 8c0:	74726175 	ldrbtvc	r6, [r2], #-373	; 0x175
 8c4:	7465675f 	strbtvc	r6, [r5], #-1887	; 0x75f
 8c8:	735f0063 	cmpvc	pc, #99	; 0x63
 8cc:	756f6474 	strbvc	r6, [pc, #-1140]!	; 460 <_start-0x7ba0>
 8d0:	635f0074 	cmpvs	pc, #116	; 0x74
 8d4:	656c7476 	strbvs	r7, [ip, #-1142]!	; 0x476
 8d8:	665f006e 	ldrbvs	r0, [pc], -lr, rrx
 8dc:	00656c69 	rsbeq	r6, r5, r9, ror #24
 8e0:	6f696e5f 	svcvs	0x00696e5f
 8e4:	5f007362 	svcpl	0x00007362
 8e8:	78657461 	stmdavc	r5!, {r0, r5, r6, sl, ip, sp, lr}^
 8ec:	00307469 	eorseq	r7, r0, r9, ror #8
 8f0:	6769735f 			; <UNDEFINED> instruction: 0x6769735f
 8f4:	5f6c616e 	svcpl	0x006c616e
 8f8:	00667562 	rsbeq	r7, r6, r2, ror #10
 8fc:	6373615f 	cmnvs	r3, #-1073741801	; 0xc0000017
 900:	656d6974 	strbvs	r6, [sp, #-2420]!	; 0x974
 904:	6675625f 			; <UNDEFINED> instruction: 0x6675625f
 908:	76656400 	strbtvc	r6, [r5], -r0, lsl #8
 90c:	7261625f 	rsbvc	r6, r1, #-268435451	; 0xf0000005
 910:	72656972 	rsbvc	r6, r5, #1867776	; 0x1c8000
 914:	65725f00 	ldrbvs	r5, [r2, #-3840]!	; 0xf00
 918:	746c7573 	strbtvc	r7, [ip], #-1395	; 0x573
 91c:	775f5f00 	ldrbvc	r5, [pc, -r0, lsl #30]
 920:	47006863 	strmi	r6, [r0, -r3, ror #16]
 924:	5f4f4950 	svcpl	0x004f4950
 928:	434e5546 	movtmi	r5, #58694	; 0xe546
 92c:	544c415f 	strbpl	r4, [ip], #-351	; 0x15f
 930:	69770032 	ldmdbvs	r7!, {r1, r4, r5}^
 934:	745f746e 	ldrbvc	r7, [pc], #-1134	; 93c <_start-0x76c4>
 938:	6f6c5f00 	svcvs	0x006c5f00
 93c:	5f006b63 	svcpl	0x00006b63
 940:	67616c66 	strbvs	r6, [r1, -r6, ror #24]!
 944:	5f003273 	svcpl	0x00003273
 948:	5f6d745f 	svcpl	0x006d745f
 94c:	72616579 	rsbvc	r6, r1, #507510784	; 0x1e400000
 950:	666f5f00 	strbtvs	r5, [pc], -r0, lsl #30
 954:	74657366 	strbtvc	r7, [r5], #-870	; 0x366
 958:	69706700 	ldmdbvs	r0!, {r8, r9, sl, sp, lr}^
 95c:	65735f6f 	ldrbvs	r5, [r3, #-3951]!	; 0xf6f
 960:	75665f74 	strbvc	r5, [r6, #-3956]!	; 0xf74
 964:	6974636e 	ldmdbvs	r4!, {r1, r2, r3, r5, r6, r8, r9, sp, lr}^
 968:	5f006e6f 	svcpl	0x00006e6f
 96c:	7478656e 	ldrbtvc	r6, [r8], #-1390	; 0x56e
 970:	5f5f0066 	svcpl	0x005f0066
 974:	6d5f6d74 	ldclvs	13, cr6, [pc, #-464]	; 7ac <_start-0x7854>
 978:	5f006e6f 	svcpl	0x00006e6f
 97c:	78657461 	stmdavc	r5!, {r0, r5, r6, sl, ip, sp, lr}^
 980:	5f007469 	svcpl	0x00007469
 984:	6964735f 	stmdbvs	r4!, {r0, r1, r2, r3, r4, r6, r8, r9, ip, sp, lr}^
 988:	696e6964 	stmdbvs	lr!, {r2, r5, r6, r8, fp, sp, lr}^
 98c:	6f5f0074 	svcvs	0x005f0074
 990:	745f6666 	ldrbvc	r6, [pc], #-1638	; 998 <_start-0x7668>
 994:	72617500 	rsbvc	r7, r1, #0, 10
 998:	665f0074 			; <UNDEFINED> instruction: 0x665f0074
 99c:	6c656572 	cfstr64vs	mvdx6, [r5], #-456	; 0xfffffe38
 9a0:	00747369 	rsbseq	r7, r4, r9, ror #6
 9a4:	434f4c5f 	movtmi	r4, #64607	; 0xfc5f
 9a8:	45525f4b 	ldrbmi	r5, [r2, #-3915]	; 0xf4b
 9ac:	53525543 	cmppl	r2, #281018368	; 0x10c00000
 9b0:	5f455649 	svcpl	0x00455649
 9b4:	6e5f0054 	mrcvs	0, 2, r0, cr15, cr4, {2}
 9b8:	5f007765 	svcpl	0x00007765
 9bc:	72655f68 	rsbvc	r5, r5, #104, 30	; 0x1a0
 9c0:	006f6e72 	rsbeq	r6, pc, r2, ror lr	; <UNPREDICTABLE>
 9c4:	6d745f5f 	ldclvs	15, cr5, [r4, #-380]!	; 0xfffffe84
 9c8:	6164795f 	cmnvs	r4, pc, asr r9
 9cc:	5f5f0079 	svcpl	0x005f0079
 9d0:	66756273 			; <UNDEFINED> instruction: 0x66756273
 9d4:	6f695f00 	svcvs	0x00695f00
 9d8:	5f007362 	svcpl	0x00007362
 9dc:	4c49465f 	mcrrmi	6, 5, r4, r9, cr15
 9e0:	6d5f0045 	ldclvs	0, cr0, [pc, #-276]	; 8d4 <_start-0x772c>
 9e4:	61747362 	cmnvs	r4, r2, ror #6
 9e8:	745f6574 	ldrbvc	r6, [pc], #-1396	; 9f0 <_start-0x7610>
 9ec:	735f5f00 	cmpvc	pc, #0, 30
 9f0:	454c4946 	strbmi	r4, [ip, #-2374]	; 0x946
 9f4:	626d5f00 	rsbvs	r5, sp, #0, 30
 9f8:	74617473 	strbtvc	r7, [r1], #-1139	; 0x473
 9fc:	725f0065 	subsvc	r0, pc, #101	; 0x65
 a00:	5f646e61 	svcpl	0x00646e61
 a04:	7478656e 	ldrbtvc	r6, [r8], #-1390	; 0x56e
 a08:	626d5f00 	rsbvs	r5, sp, #0, 30
 a0c:	5f6e656c 	svcpl	0x006e656c
 a10:	74617473 	strbtvc	r7, [r1], #-1139	; 0x473
 a14:	695f0065 	ldmdbvs	pc, {r0, r2, r5, r6}^	; <UNPREDICTABLE>
 a18:	5f00636e 	svcpl	0x0000636e
 a1c:	00646e69 	rsbeq	r6, r4, r9, ror #28
 a20:	7275635f 	rsbsvc	r6, r5, #2080374785	; 0x7c000001
 a24:	746e6572 	strbtvc	r6, [lr], #-1394	; 0x572
 a28:	636f6c5f 	cmnvs	pc, #24320	; 0x5f00
 a2c:	00656c61 	rsbeq	r6, r5, r1, ror #24
 a30:	6c635f5f 	stclvs	15, cr5, [r3], #-380	; 0xfffffe84
 a34:	756e6165 	strbvc	r6, [lr, #-357]!	; 0x165
 a38:	6d5f0070 	ldclvs	0, cr0, [pc, #-448]	; 880 <_start-0x7780>
 a3c:	64777861 	ldrbtvs	r7, [r7], #-2145	; 0x861
 a40:	725f0073 	subsvc	r0, pc, #115	; 0x73
 a44:	746e6565 	strbtvc	r6, [lr], #-1381	; 0x565
 a48:	65735f00 	ldrbvs	r5, [r3, #-3840]!	; 0xf00
 a4c:	5f006465 	svcpl	0x00006465
 a50:	756f635f 	strbvc	r6, [pc, #-863]!	; 6f9 <_start-0x7907>
 a54:	5f00746e 	svcpl	0x0000746e
 a58:	6c61765f 	stclvs	6, cr7, [r1], #-380	; 0xfffffe84
 a5c:	5f006575 	svcpl	0x00006575
 a60:	6b656573 	blvs	195a034 <__bss_end__+0x194f53c>
 a64:	75616200 	strbvc	r6, [r1, #-512]!	; 0x200
 a68:	665f0064 	ldrbvs	r0, [pc], -r4, rrx
 a6c:	5f736f70 	svcpl	0x00736f70
 a70:	5f5f0074 	svcpl	0x005f0074
 a74:	6d5f6d74 	ldclvs	13, cr6, [pc, #-464]	; 8ac <_start-0x7754>
 a78:	73006e69 	movwvc	r6, #3689	; 0xe69
 a7c:	74617263 	strbtvc	r7, [r1], #-611	; 0x263
 a80:	5f006863 	svcpl	0x00006863
 a84:	746c756d 	strbtvc	r7, [ip], #-1389	; 0x56d
 a88:	74757000 	ldrbtvc	r7, [r5], #-0
 a8c:	47003233 	smladxmi	r0, r3, r2, r3
 a90:	4320554e 	teqmi	r0, #327155712	; 0x13800000
 a94:	36203939 			; <UNDEFINED> instruction: 0x36203939
 a98:	312e332e 	teqcc	lr, lr, lsr #6
 a9c:	31303220 	teqcc	r0, r0, lsr #4
 aa0:	32363037 	eorscc	r3, r6, #55	; 0x37
 aa4:	6d2d2030 	stcvs	0, cr2, [sp, #-192]!	; 0xffffff40
 aa8:	3d757063 	ldclcc	0, cr7, [r5, #-396]!	; 0xfffffe74
 aac:	316d7261 	cmncc	sp, r1, ror #4
 ab0:	6a363731 	bvs	d8e77c <__bss_end__+0xd83c84>
 ab4:	732d667a 	teqvc	sp, #127926272	; 0x7a00000
 ab8:	746d2d20 	strbtvc	r2, [sp], #-3360	; 0xd20
 abc:	3d656e75 	stclcc	14, cr6, [r5, #-468]!	; 0xfffffe2c
 ac0:	316d7261 	cmncc	sp, r1, ror #4
 ac4:	6a363731 	bvs	d8e790 <__bss_end__+0xd83c98>
 ac8:	732d667a 	teqvc	sp, #127926272	; 0x7a00000
 acc:	67672d20 	strbvs	r2, [r7, -r0, lsr #26]!
 ad0:	2d206264 	sfmcs	f6, 4, [r0, #-400]!	; 0xfffffe70
 ad4:	2d20674f 	stccs	7, cr6, [r0, #-316]!	; 0xfffffec4
 ad8:	3d647473 	cfstrdcc	mvd7, [r4, #-460]!	; 0xfffffe34
 adc:	39756e67 	ldmdbcc	r5!, {r0, r1, r2, r5, r6, r9, sl, fp, sp, lr}^
 ae0:	662d2039 			; <UNDEFINED> instruction: 0x662d2039
 ae4:	65657266 	strbvs	r7, [r5, #-614]!	; 0x266
 ae8:	6e617473 	mcrvs	4, 3, r7, cr1, cr3, {3}
 aec:	676e6964 	strbvs	r6, [lr, -r4, ror #18]!
 af0:	74735f00 	ldrbtvc	r5, [r3], #-3840	; 0xf00
 af4:	6b6f7472 	blvs	1bddcc4 <__bss_end__+0x1bd31cc>
 af8:	73616c5f 	cmnvc	r1, #24320	; 0x5f00
 afc:	665f0074 			; <UNDEFINED> instruction: 0x665f0074
 b00:	7079746e 	rsbsvc	r7, r9, lr, ror #8
 b04:	5f007365 	svcpl	0x00007365
 b08:	00646461 	rsbeq	r6, r4, r1, ror #8
 b0c:	4c555f5f 	mrrcmi	15, 5, r5, r5, cr15	; <UNPREDICTABLE>
 b10:	00676e6f 	rsbeq	r6, r7, pc, ror #28
 b14:	7465675f 	strbtvc	r6, [r5], #-1887	; 0x75f
 b18:	65746164 	ldrbvs	r6, [r4, #-356]!	; 0x164
 b1c:	7272655f 	rsbsvc	r6, r2, #398458880	; 0x17c00000
 b20:	6c675f00 	stclvs	15, cr5, [r7], #-0
 b24:	6c61626f 	sfmvs	f6, 2, [r1], #-444	; 0xfffffe44
 b28:	706d695f 	rsbvc	r6, sp, pc, asr r9
 b2c:	5f657275 	svcpl	0x00657275
 b30:	00727470 	rsbseq	r7, r2, r0, ror r4
 b34:	7275635f 	rsbsvc	r6, r5, #2080374785	; 0x7c000001
 b38:	746e6572 	strbtvc	r6, [lr], #-1394	; 0x572
 b3c:	7461635f 	strbtvc	r6, [r1], #-863	; 0x35f
 b40:	726f6765 	rsbvc	r6, pc, #26476544	; 0x1940000
 b44:	755f0079 	ldrbvc	r0, [pc, #-121]	; ad3 <_start-0x752d>
 b48:	6573756e 	ldrbvs	r7, [r3, #-1390]!	; 0x56e
 b4c:	61725f64 	cmnvs	r2, r4, ror #30
 b50:	5f00646e 	svcpl	0x0000646e
 b54:	00736477 	rsbseq	r6, r3, r7, ror r4
 b58:	6d745f5f 	ldclvs	15, cr5, [r4, #-380]!	; 0xfffffe84
 b5c:	6164775f 	cmnvs	r4, pc, asr r7
 b60:	675f0079 			; <UNDEFINED> instruction: 0x675f0079
 b64:	0065756c 	rsbeq	r7, r5, ip, ror #10
 b68:	4f495047 	svcmi	0x00495047
 b6c:	4e55465f 	mrcmi	6, 2, r4, cr5, cr15, {2}
 b70:	554f5f43 	strbpl	r5, [pc, #-3907]	; fffffc35 <__bss_end__+0xffff513d>
 b74:	54555054 	ldrbpl	r5, [r5], #-84	; 0x54
 b78:	6d6e5f00 	stclvs	15, cr5, [lr, #-0]
 b7c:	6f6c6c61 	svcvs	0x006c6c61
 b80:	6c5f0063 	mrrcvs	0, 6, r0, pc, cr3	; <UNPREDICTABLE>
 b84:	5f613436 	svcpl	0x00613436
 b88:	00667562 	rsbeq	r7, r6, r2, ror #10
 b8c:	33746567 	cmncc	r4, #432013312	; 0x19c00000
 b90:	61750032 	cmnvs	r5, r2, lsr r0
 b94:	635f7472 	cmpvs	pc, #1912602624	; 0x72000000
 b98:	675f6e61 	ldrbvs	r6, [pc, -r1, ror #28]
 b9c:	00637465 	rsbeq	r7, r3, r5, ror #8
 ba0:	6769735f 			; <UNDEFINED> instruction: 0x6769735f
 ba4:	6e75665f 	mrcvs	6, 3, r6, cr5, cr15, {2}
 ba8:	726f0063 	rsbvc	r0, pc, #99	; 0x63
 bac:	336e695f 	cmncc	lr, #1556480	; 0x17c000
 bb0:	61750032 	cmnvs	r5, r2, lsr r0
 bb4:	685f7472 	ldmdavs	pc, {r1, r4, r5, r6, sl, ip, sp, lr}^	; <UNPREDICTABLE>
 bb8:	645f7361 	ldrbvs	r7, [pc], #-865	; bc0 <_start-0x7440>
 bbc:	00617461 	rsbeq	r7, r1, r1, ror #8
 bc0:	4f495047 	svcmi	0x00495047
 bc4:	4e55465f 	mrcmi	6, 2, r4, cr5, cr15, {2}
 bc8:	4c415f43 	mcrrmi	15, 4, r5, r1, cr3
 bcc:	5f003054 	svcpl	0x00003054
 bd0:	6675626e 	ldrbtvs	r6, [r5], -lr, ror #4
 bd4:	6e755f00 	cdpvs	15, 7, cr5, cr5, cr0, {0}
 bd8:	64657375 	strbtvs	r7, [r5], #-885	; 0x375
 bdc:	49504700 	ldmdbmi	r0, {r8, r9, sl, lr}^
 be0:	55465f4f 	strbpl	r5, [r6, #-3919]	; 0xf4f
 be4:	415f434e 	cmpmi	pc, lr, asr #6
 be8:	0033544c 	eorseq	r5, r3, ip, asr #8
 bec:	4f495047 	svcmi	0x00495047
 bf0:	4e55465f 	mrcmi	6, 2, r4, cr5, cr15, {2}
 bf4:	4c415f43 	mcrrmi	15, 4, r5, r1, cr3
 bf8:	47003454 	smlsdmi	r0, r4, r4, r3
 bfc:	5f4f4950 	svcpl	0x004f4950
 c00:	434e5546 	movtmi	r5, #58694	; 0xe546
 c04:	544c415f 	strbpl	r4, [ip], #-351	; 0x15f
 c08:	5f5f0035 	svcpl	0x005f0035
 c0c:	695f6d74 	ldmdbvs	pc, {r2, r4, r5, r6, r8, sl, fp, sp, lr}^	; <UNPREDICTABLE>
 c10:	74736473 	ldrbtvc	r6, [r3], #-1139	; 0x473
 c14:	6f6c5f00 	svcvs	0x006c5f00
 c18:	746c6163 	strbtvc	r6, [ip], #-355	; 0x163
 c1c:	5f656d69 	svcpl	0x00656d69
 c20:	00667562 	rsbeq	r7, r6, r2, ror #10
 c24:	6f6c635f 	svcvs	0x006c635f
 c28:	5f006573 	svcpl	0x00006573
 c2c:	00383472 	eorseq	r3, r8, r2, ror r4
 c30:	74626d5f 	strbtvc	r6, [r2], #-3423	; 0xd5f
 c34:	5f63776f 	svcpl	0x0063776f
 c38:	74617473 	strbtvc	r7, [r1], #-1139	; 0x473
 c3c:	705f0065 	subsvc	r0, pc, r5, rrx
 c40:	5f007335 	svcpl	0x00007335
 c44:	5f6d745f 	svcpl	0x006d745f
 c48:	7961646d 	stmdbvc	r1!, {r0, r2, r3, r5, r6, sl, sp, lr}^
 c4c:	69706700 	ldmdbvs	r0!, {r8, r9, sl, sp, lr}^
 c50:	65735f6f 	ldrbvs	r5, [r3, #-3951]!	; 0xf6f
 c54:	666f5f74 	uqsub16vs	r5, pc, r4	; <UNPREDICTABLE>
 c58:	61620066 	cmnvs	r2, r6, rrx
 c5c:	67006b6e 	strvs	r6, [r0, -lr, ror #22]
 c60:	2e6f6970 	mcrcs	9, 3, r6, cr15, cr0, {3}
 c64:	70670063 	rsbvc	r0, r7, r3, rrx
 c68:	725f6f69 	subsvc	r6, pc, #420	; 0x1a4
 c6c:	00646165 	rsbeq	r6, r4, r5, ror #2
 c70:	6f697067 	svcvs	0x00697067
 c74:	7465735f 	strbtvc	r7, [r5], #-863	; 0x35f
 c78:	74756f5f 	ldrbtvc	r6, [r5], #-3935	; 0xf5f
 c7c:	00747570 	rsbseq	r7, r4, r0, ror r5
 c80:	6f697067 	svcvs	0x00697067
 c84:	6972775f 	ldmdbvs	r2!, {r0, r1, r2, r3, r4, r6, r8, r9, sl, ip, sp, lr}^
 c88:	67006574 	smlsdxvs	r0, r4, r5, r6
 c8c:	5f6f6970 	svcpl	0x006f6970
 c90:	30746573 	rsbscc	r6, r4, r3, ror r5
 c94:	69706700 	ldmdbvs	r0!, {r8, r9, sl, sp, lr}^
 c98:	656c5f6f 	strbvs	r5, [ip, #-3951]!	; 0xf6f
 c9c:	67003076 	smlsdxvs	r0, r6, r0, r3
 ca0:	5f6f6970 	svcpl	0x006f6970
 ca4:	5f746573 	svcpl	0x00746573
 ca8:	75706e69 	ldrbvc	r6, [r0, #-3689]!	; 0xe69
 cac:	70670074 	rsbvc	r0, r7, r4, ror r0
 cb0:	735f6f69 	cmpvc	pc, #420	; 0x1a4
 cb4:	6f5f7465 	svcvs	0x005f7465
 cb8:	7067006e 	rsbvc	r0, r7, lr, rrx
 cbc:	665f6f69 	ldrbvs	r6, [pc], -r9, ror #30
 cc0:	5f636e75 	svcpl	0x00636e75
 cc4:	70670074 	rsbvc	r0, r7, r4, ror r0
 cc8:	635f6f69 	cmpvs	pc, #420	; 0x1a4
 ccc:	0030726c 	eorseq	r7, r0, ip, ror #4
 cd0:	6c616d6b 	stclvs	13, cr6, [r1], #-428	; 0xfffffe54
 cd4:	2e636f6c 	cdpcs	15, 6, cr6, cr3, cr12, {3}
 cd8:	6d6b0063 	stclvs	0, cr0, [fp, #-396]!	; 0xfffffe74
 cdc:	6f6c6c61 	svcvs	0x006c6c61
 ce0:	6e695f63 	cdpvs	15, 6, cr5, cr9, cr3, {3}
 ce4:	6b007469 	blvs	1de90 <__bss_end__+0x13398>
 ce8:	6c6c616d 	stfvse	f6, [ip], #-436	; 0xfffffe4c
 cec:	615f636f 	cmpvs	pc, pc, ror #6
 cf0:	6e67696c 	cdpvs	9, 6, cr6, cr7, cr12, {3}
 cf4:	64006465 	strvs	r6, [r0], #-1125	; 0x465
 cf8:	6c62756f 	cfstr64vs	mvdx7, [r2], #-444	; 0xfffffe44
 cfc:	666b0065 	strbtvs	r0, [fp], -r5, rrx
 d00:	5f656572 	svcpl	0x00656572
 d04:	006c6c61 	rsbeq	r6, ip, r1, ror #24
 d08:	6572666b 	ldrbvs	r6, [r2, #-1643]!	; 0x66b
 d0c:	66615f65 	strbtvs	r5, [r1], -r5, ror #30
 d10:	00726574 	rsbseq	r6, r2, r4, ror r5
 d14:	6c616d6b 	stclvs	13, cr6, [r1], #-428	; 0xfffffe54
 d18:	5f636f6c 	svcpl	0x00636f6c
 d1c:	70616568 	rsbvc	r6, r1, r8, ror #10
 d20:	7274705f 	rsbsvc	r7, r4, #95	; 0x5f
 d24:	696c6100 	stmdbvs	ip!, {r8, sp, lr}^
 d28:	656d6e67 	strbvs	r6, [sp, #-3687]!	; 0xe67
 d2c:	5f00746e 	svcpl	0x0000746e
 d30:	6165685f 	cmnvs	r5, pc, asr r8
 d34:	74735f70 	ldrbtvc	r5, [r3], #-3952	; 0xf70
 d38:	5f747261 	svcpl	0x00747261
 d3c:	6d6b005f 	stclvs	0, cr0, [fp, #-380]!	; 0xfffffe84
 d40:	6f6c6c61 	svcvs	0x006c6c61
 d44:	65685f63 	strbvs	r5, [r8, #-3939]!	; 0xf63
 d48:	735f7061 	cmpvc	pc, #97	; 0x61
 d4c:	74726174 	ldrbtvc	r6, [r2], #-372	; 0x174
 d50:	64615f00 	strbtvs	r5, [r1], #-3840	; 0xf00
 d54:	6b007264 	blvs	1d6ec <__bss_end__+0x12bf4>
 d58:	6c6c616d 	stfvse	f6, [ip], #-436	; 0xfffffe4c
 d5c:	685f636f 	ldmdavs	pc, {r0, r1, r2, r3, r5, r6, r8, r9, sp, lr}^	; <UNPREDICTABLE>
 d60:	5f706165 	svcpl	0x00706165
 d64:	00646e65 	rsbeq	r6, r4, r5, ror #28

Disassembly of section .debug_frame:

00000000 <.debug_frame>:
   0:	0000000c 	andeq	r0, r0, ip
   4:	ffffffff 			; <UNDEFINED> instruction: 0xffffffff
   8:	7c020001 	stcvc	0, cr0, [r2], {1}
   c:	000d0c0e 	andeq	r0, sp, lr, lsl #24
  10:	00000014 	andeq	r0, r0, r4, lsl r0
  14:	00000000 	andeq	r0, r0, r0
  18:	00008010 	andeq	r8, r0, r0, lsl r0
  1c:	00000058 	andeq	r0, r0, r8, asr r0
  20:	84080e42 	strhi	r0, [r8], #-3650	; 0xe42
  24:	00018e02 	andeq	r8, r1, r2, lsl #28
  28:	00000014 	andeq	r0, r0, r4, lsl r0
  2c:	00000000 	andeq	r0, r0, r0
  30:	00008068 	andeq	r8, r0, r8, rrx
  34:	0000010c 	andeq	r0, r0, ip, lsl #2
  38:	84080e42 	strhi	r0, [r8], #-3650	; 0xe42
  3c:	00018e02 	andeq	r8, r1, r2, lsl #28
  40:	0000000c 	andeq	r0, r0, ip
  44:	ffffffff 			; <UNDEFINED> instruction: 0xffffffff
  48:	7c020001 	stcvc	0, cr0, [r2], {1}
  4c:	000d0c0e 	andeq	r0, sp, lr, lsl #24
  50:	0000001c 	andeq	r0, r0, ip, lsl r0
  54:	00000040 	andeq	r0, r0, r0, asr #32
  58:	00008174 	andeq	r8, r0, r4, ror r1
  5c:	000000f8 	strdeq	r0, [r0], -r8
  60:	83180e42 	tsthi	r8, #1056	; 0x420
  64:	85058406 	strhi	r8, [r5, #-1030]	; 0x406
  68:	87038604 	strhi	r8, [r3, -r4, lsl #12]
  6c:	00018e02 	andeq	r8, r1, r2, lsl #28
  70:	00000014 	andeq	r0, r0, r4, lsl r0
  74:	00000040 	andeq	r0, r0, r0, asr #32
  78:	0000826c 	andeq	r8, r0, ip, ror #4
  7c:	00000014 	andeq	r0, r0, r4, lsl r0
  80:	83080e42 	movwhi	r0, #36418	; 0x8e42
  84:	00018e02 	andeq	r8, r1, r2, lsl #28
  88:	0000001c 	andeq	r0, r0, ip, lsl r0
  8c:	00000040 	andeq	r0, r0, r0, asr #32
  90:	00008280 	andeq	r8, r0, r0, lsl #5
  94:	00000048 	andeq	r0, r0, r8, asr #32
  98:	84180e42 	ldrhi	r0, [r8], #-3650	; 0xe42
  9c:	86058506 	strhi	r8, [r5], -r6, lsl #10
  a0:	88038704 	stmdahi	r3, {r2, r8, r9, sl, pc}
  a4:	00018e02 	andeq	r8, r1, r2, lsl #28
  a8:	00000014 	andeq	r0, r0, r4, lsl r0
  ac:	00000040 	andeq	r0, r0, r0, asr #32
  b0:	000082c8 	andeq	r8, r0, r8, asr #5
  b4:	00000040 	andeq	r0, r0, r0, asr #32
  b8:	84080e42 	strhi	r0, [r8], #-3650	; 0xe42
  bc:	00018e02 	andeq	r8, r1, r2, lsl #28
  c0:	00000014 	andeq	r0, r0, r4, lsl r0
  c4:	00000040 	andeq	r0, r0, r0, asr #32
  c8:	00008308 	andeq	r8, r0, r8, lsl #6
  cc:	00000074 	andeq	r0, r0, r4, ror r0
  d0:	84080e42 	strhi	r0, [r8], #-3650	; 0xe42
  d4:	00018e02 	andeq	r8, r1, r2, lsl #28
  d8:	00000018 	andeq	r0, r0, r8, lsl r0
  dc:	00000040 	andeq	r0, r0, r0, asr #32
  e0:	0000837c 	andeq	r8, r0, ip, ror r3
  e4:	00000080 	andeq	r0, r0, r0, lsl #1
  e8:	83100e42 	tsthi	r0, #1056	; 0x420
  ec:	85038404 	strhi	r8, [r3, #-1028]	; 0x404
  f0:	00018e02 	andeq	r8, r1, r2, lsl #28
  f4:	0000001c 	andeq	r0, r0, ip, lsl r0
  f8:	00000040 	andeq	r0, r0, r0, asr #32
  fc:	000083fc 	strdeq	r8, [r0], -ip
 100:	000000f0 	strdeq	r0, [r0], -r0	; <UNPREDICTABLE>
 104:	84180e42 	ldrhi	r0, [r8], #-3650	; 0xe42
 108:	86058506 	strhi	r8, [r5], -r6, lsl #10
 10c:	88038704 	stmdahi	r3, {r2, r8, r9, sl, pc}
 110:	00018e02 	andeq	r8, r1, r2, lsl #28
 114:	00000020 	andeq	r0, r0, r0, lsr #32
 118:	00000040 	andeq	r0, r0, r0, asr #32
 11c:	000084ec 	andeq	r8, r0, ip, ror #9
 120:	0000022c 	andeq	r0, r0, ip, lsr #4
 124:	841c0e42 	ldrhi	r0, [ip], #-3650	; 0xe42
 128:	86068507 	strhi	r8, [r6], -r7, lsl #10
 12c:	88048705 	stmdahi	r4, {r0, r2, r8, r9, sl, pc}
 130:	8e028903 	cdphi	9, 0, cr8, cr2, cr3, {0}
 134:	280e4201 	stmdacs	lr, {r0, r9, lr}
 138:	00000014 	andeq	r0, r0, r4, lsl r0
 13c:	00000040 	andeq	r0, r0, r0, asr #32
 140:	00008718 	andeq	r8, r0, r8, lsl r7
 144:	00000030 	andeq	r0, r0, r0, lsr r0
 148:	83080e42 	movwhi	r0, #36418	; 0x8e42
 14c:	00018e02 	andeq	r8, r1, r2, lsl #28
 150:	00000020 	andeq	r0, r0, r0, lsr #32
 154:	00000040 	andeq	r0, r0, r0, asr #32
 158:	00008748 	andeq	r8, r0, r8, asr #14
 15c:	00000138 	andeq	r0, r0, r8, lsr r1
 160:	84200e42 	strthi	r0, [r0], #-3650	; 0xe42
 164:	86078508 	strhi	r8, [r7], -r8, lsl #10
 168:	88058706 	stmdahi	r5, {r1, r2, r8, r9, sl, pc}
 16c:	8a038904 	bhi	e2584 <__bss_end__+0xd7a8c>
 170:	00018e02 	andeq	r8, r1, r2, lsl #28
 174:	00000014 	andeq	r0, r0, r4, lsl r0
 178:	00000040 	andeq	r0, r0, r0, asr #32
 17c:	00008880 	andeq	r8, r0, r0, lsl #17
 180:	00000020 	andeq	r0, r0, r0, lsr #32
 184:	84080e42 	strhi	r0, [r8], #-3650	; 0xe42
 188:	00018e02 	andeq	r8, r1, r2, lsl #28
 18c:	00000014 	andeq	r0, r0, r4, lsl r0
 190:	00000040 	andeq	r0, r0, r0, asr #32
 194:	000088a0 	andeq	r8, r0, r0, lsr #17
 198:	00000044 	andeq	r0, r0, r4, asr #32
 19c:	84080e42 	strhi	r0, [r8], #-3650	; 0xe42
 1a0:	00018e02 	andeq	r8, r1, r2, lsl #28
 1a4:	0000000c 	andeq	r0, r0, ip
 1a8:	00000040 	andeq	r0, r0, r0, asr #32
 1ac:	000088e4 	andeq	r8, r0, r4, ror #17
 1b0:	0000001c 	andeq	r0, r0, ip, lsl r0
 1b4:	0000000c 	andeq	r0, r0, ip
 1b8:	ffffffff 			; <UNDEFINED> instruction: 0xffffffff
 1bc:	7c020001 	stcvc	0, cr0, [r2], {1}
 1c0:	000d0c0e 	andeq	r0, sp, lr, lsl #24
 1c4:	0000000c 	andeq	r0, r0, ip
 1c8:	000001b4 			; <UNDEFINED> instruction: 0x000001b4
 1cc:	00008900 	andeq	r8, r0, r0, lsl #18
 1d0:	0000003c 	andeq	r0, r0, ip, lsr r0
 1d4:	00000014 	andeq	r0, r0, r4, lsl r0
 1d8:	000001b4 			; <UNDEFINED> instruction: 0x000001b4
 1dc:	0000893c 	andeq	r8, r0, ip, lsr r9
 1e0:	00000078 	andeq	r0, r0, r8, ror r0
 1e4:	84080e42 	strhi	r0, [r8], #-3650	; 0xe42
 1e8:	00018e02 	andeq	r8, r1, r2, lsl #28
 1ec:	00000024 	andeq	r0, r0, r4, lsr #32
 1f0:	000001b4 			; <UNDEFINED> instruction: 0x000001b4
 1f4:	000089b4 			; <UNDEFINED> instruction: 0x000089b4
 1f8:	00000134 	andeq	r0, r0, r4, lsr r1
 1fc:	83280e42 	teqhi	r8, #1056	; 0x420
 200:	8509840a 	strhi	r8, [r9, #-1034]	; 0x40a
 204:	87078608 	strhi	r8, [r7, -r8, lsl #12]
 208:	89058806 	stmdbhi	r5, {r1, r2, fp, pc}
 20c:	8b038a04 	blhi	e2a24 <__bss_end__+0xd7f2c>
 210:	00018e02 	andeq	r8, r1, r2, lsl #28
 214:	00000018 	andeq	r0, r0, r8, lsl r0
 218:	000001b4 			; <UNDEFINED> instruction: 0x000001b4
 21c:	00008ae8 	andeq	r8, r0, r8, ror #21
 220:	000000f8 	strdeq	r0, [r0], -r8
 224:	84100e42 	ldrhi	r0, [r0], #-3650	; 0xe42
 228:	86038504 	strhi	r8, [r3], -r4, lsl #10
 22c:	00018e02 	andeq	r8, r1, r2, lsl #28
 230:	00000018 	andeq	r0, r0, r8, lsl r0
 234:	000001b4 			; <UNDEFINED> instruction: 0x000001b4
 238:	00008be0 	andeq	r8, r0, r0, ror #23
 23c:	000000f4 	strdeq	r0, [r0], -r4
 240:	84080e42 	strhi	r0, [r8], #-3650	; 0xe42
 244:	42018e02 	andmi	r8, r1, #2, 28
 248:	0000580e 	andeq	r5, r0, lr, lsl #16
 24c:	00000024 	andeq	r0, r0, r4, lsr #32
 250:	000001b4 			; <UNDEFINED> instruction: 0x000001b4
 254:	00008cd4 	ldrdeq	r8, [r0], -r4
 258:	00000120 	andeq	r0, r0, r0, lsr #2
 25c:	84240e42 	strthi	r0, [r4], #-3650	; 0xe42
 260:	86088509 	strhi	r8, [r8], -r9, lsl #10
 264:	88068707 	stmdahi	r6, {r0, r1, r2, r8, r9, sl, pc}
 268:	8a048905 	bhi	122684 <__bss_end__+0x117b8c>
 26c:	8e028b03 	vmlahi.f64	d8, d2, d3
 270:	380e4201 	stmdacc	lr, {r0, r9, lr}
 274:	00000014 	andeq	r0, r0, r4, lsl r0
 278:	000001b4 			; <UNDEFINED> instruction: 0x000001b4
 27c:	00008df4 	strdeq	r8, [r0], -r4
 280:	00000018 	andeq	r0, r0, r8, lsl r0
 284:	84080e42 	strhi	r0, [r8], #-3650	; 0xe42
 288:	00018e02 	andeq	r8, r1, r2, lsl #28
 28c:	00000014 	andeq	r0, r0, r4, lsl r0
 290:	000001b4 			; <UNDEFINED> instruction: 0x000001b4
 294:	00008e0c 	andeq	r8, r0, ip, lsl #28
 298:	000000a0 	andeq	r0, r0, r0, lsr #1
 29c:	83080e42 	movwhi	r0, #36418	; 0x8e42
 2a0:	00018e02 	andeq	r8, r1, r2, lsl #28
 2a4:	00000014 	andeq	r0, r0, r4, lsl r0
 2a8:	000001b4 			; <UNDEFINED> instruction: 0x000001b4
 2ac:	00008eac 	andeq	r8, r0, ip, lsr #29
 2b0:	000000a4 	andeq	r0, r0, r4, lsr #1
 2b4:	84080e42 	strhi	r0, [r8], #-3650	; 0xe42
 2b8:	00018e02 	andeq	r8, r1, r2, lsl #28
 2bc:	00000014 	andeq	r0, r0, r4, lsl r0
 2c0:	000001b4 			; <UNDEFINED> instruction: 0x000001b4
 2c4:	00008f50 	andeq	r8, r0, r0, asr pc
 2c8:	0000002c 	andeq	r0, r0, ip, lsr #32
 2cc:	83080e42 	movwhi	r0, #36418	; 0x8e42
 2d0:	00018e02 	andeq	r8, r1, r2, lsl #28
 2d4:	00000014 	andeq	r0, r0, r4, lsl r0
 2d8:	000001b4 			; <UNDEFINED> instruction: 0x000001b4
 2dc:	00008f7c 	andeq	r8, r0, ip, ror pc
 2e0:	00000010 	andeq	r0, r0, r0, lsl r0
 2e4:	83080e42 	movwhi	r0, #36418	; 0x8e42
 2e8:	00018e02 	andeq	r8, r1, r2, lsl #28
 2ec:	0000000c 	andeq	r0, r0, ip
 2f0:	ffffffff 			; <UNDEFINED> instruction: 0xffffffff
 2f4:	7c020001 	stcvc	0, cr0, [r2], {1}
 2f8:	000d0c0e 	andeq	r0, sp, lr, lsl #24
 2fc:	00000014 	andeq	r0, r0, r4, lsl r0
 300:	000002ec 	andeq	r0, r0, ip, ror #5
 304:	00008f94 	muleq	r0, r4, pc	; <UNPREDICTABLE>
 308:	000000f0 	strdeq	r0, [r0], -r0	; <UNPREDICTABLE>
 30c:	84040e42 	strhi	r0, [r4], #-3650	; 0xe42
 310:	00000001 	andeq	r0, r0, r1
 314:	0000000c 	andeq	r0, r0, ip
 318:	ffffffff 			; <UNDEFINED> instruction: 0xffffffff
 31c:	7c020001 	stcvc	0, cr0, [r2], {1}
 320:	000d0c0e 	andeq	r0, sp, lr, lsl #24
 324:	0000000c 	andeq	r0, r0, ip
 328:	00000314 	andeq	r0, r0, r4, lsl r3
 32c:	00009084 	andeq	r9, r0, r4, lsl #1
 330:	00000020 	andeq	r0, r0, r0, lsr #32
 334:	0000000c 	andeq	r0, r0, ip
 338:	ffffffff 			; <UNDEFINED> instruction: 0xffffffff
 33c:	7c020001 	stcvc	0, cr0, [r2], {1}
 340:	000d0c0e 	andeq	r0, sp, lr, lsl #24
 344:	00000024 	andeq	r0, r0, r4, lsr #32
 348:	00000334 	andeq	r0, r0, r4, lsr r3
 34c:	000090a4 	andeq	r9, r0, r4, lsr #1
 350:	00000058 	andeq	r0, r0, r8, asr r0
 354:	80100e42 	andshi	r0, r0, r2, asr #28
 358:	82038104 	andhi	r8, r3, #4, 2
 35c:	42018302 	andmi	r8, r1, #134217728	; 0x8000000
 360:	07841c0e 	streq	r1, [r4, lr, lsl #24]
 364:	058e0685 	streq	r0, [lr, #1669]	; 0x685
 368:	00280e42 	eoreq	r0, r8, r2, asr #28
 36c:	0000000c 	andeq	r0, r0, ip
 370:	ffffffff 			; <UNDEFINED> instruction: 0xffffffff
 374:	7c020001 	stcvc	0, cr0, [r2], {1}
 378:	000d0c0e 	andeq	r0, sp, lr, lsl #24
 37c:	00000014 	andeq	r0, r0, r4, lsl r0
 380:	0000036c 	andeq	r0, r0, ip, ror #6
 384:	000090fc 	strdeq	r9, [r0], -ip
 388:	00000014 	andeq	r0, r0, r4, lsl r0
 38c:	84080e42 	strhi	r0, [r8], #-3650	; 0xe42
 390:	00018e02 	andeq	r8, r1, r2, lsl #28
 394:	0000000c 	andeq	r0, r0, ip
 398:	0000036c 	andeq	r0, r0, ip, ror #6
 39c:	00009110 	andeq	r9, r0, r0, lsl r1
 3a0:	00000018 	andeq	r0, r0, r8, lsl r0
 3a4:	0000000c 	andeq	r0, r0, ip
 3a8:	0000036c 	andeq	r0, r0, ip, ror #6
 3ac:	00009128 	andeq	r9, r0, r8, lsr #2
 3b0:	00000010 	andeq	r0, r0, r0, lsl r0
 3b4:	0000000c 	andeq	r0, r0, ip
 3b8:	ffffffff 			; <UNDEFINED> instruction: 0xffffffff
 3bc:	7c020001 	stcvc	0, cr0, [r2], {1}
 3c0:	000d0c0e 	andeq	r0, sp, lr, lsl #24
 3c4:	00000018 	andeq	r0, r0, r8, lsl r0
 3c8:	000003b4 			; <UNDEFINED> instruction: 0x000003b4
 3cc:	00009138 	andeq	r9, r0, r8, lsr r1
 3d0:	00000034 	andeq	r0, r0, r4, lsr r0
 3d4:	83100e42 	tsthi	r0, #1056	; 0x420
 3d8:	85038404 	strhi	r8, [r3, #-1028]	; 0x404
 3dc:	00018e02 	andeq	r8, r1, r2, lsl #28
 3e0:	0000000c 	andeq	r0, r0, ip
 3e4:	ffffffff 			; <UNDEFINED> instruction: 0xffffffff
 3e8:	7c020001 	stcvc	0, cr0, [r2], {1}
 3ec:	000d0c0e 	andeq	r0, sp, lr, lsl #24
 3f0:	0000000c 	andeq	r0, r0, ip
 3f4:	000003e0 	andeq	r0, r0, r0, ror #7
 3f8:	0000916c 	andeq	r9, r0, ip, ror #2
 3fc:	00000014 	andeq	r0, r0, r4, lsl r0
 400:	0000000c 	andeq	r0, r0, ip
 404:	000003e0 	andeq	r0, r0, r0, ror #7
 408:	00009180 	andeq	r9, r0, r0, lsl #3
 40c:	0000002c 	andeq	r0, r0, ip, lsr #32
 410:	0000000c 	andeq	r0, r0, ip
 414:	000003e0 	andeq	r0, r0, r0, ror #7
 418:	000091ac 	andeq	r9, r0, ip, lsr #3
 41c:	00000040 	andeq	r0, r0, r0, asr #32
 420:	00000020 	andeq	r0, r0, r0, lsr #32
 424:	000003e0 	andeq	r0, r0, r0, ror #7
 428:	000091ec 	andeq	r9, r0, ip, ror #3
 42c:	000001b0 			; <UNDEFINED> instruction: 0x000001b0
 430:	84180e42 	ldrhi	r0, [r8], #-3650	; 0xe42
 434:	86058506 	strhi	r8, [r5], -r6, lsl #10
 438:	88038704 	stmdahi	r3, {r2, r8, r9, sl, pc}
 43c:	42018e02 	andmi	r8, r1, #2, 28
 440:	0000580e 	andeq	r5, r0, lr, lsl #16
 444:	00000014 	andeq	r0, r0, r4, lsl r0
 448:	000003e0 	andeq	r0, r0, r0, ror #7
 44c:	0000939c 	muleq	r0, ip, r3
 450:	00000054 	andeq	r0, r0, r4, asr r0
 454:	83080e42 	movwhi	r0, #36418	; 0x8e42
 458:	00018e02 	andeq	r8, r1, r2, lsl #28
 45c:	00000028 	andeq	r0, r0, r8, lsr #32
 460:	000003e0 	andeq	r0, r0, r0, ror #7
 464:	000093f0 	strdeq	r9, [r0], -r0
 468:	00000288 	andeq	r0, r0, r8, lsl #5
 46c:	84240e42 	strthi	r0, [r4], #-3650	; 0xe42
 470:	86088509 	strhi	r8, [r8], -r9, lsl #10
 474:	88068707 	stmdahi	r6, {r0, r1, r2, r8, r9, sl, pc}
 478:	8a048905 	bhi	122894 <__bss_end__+0x117d9c>
 47c:	8e028b03 	vmlahi.f64	d8, d2, d3
 480:	b00e4201 	andlt	r4, lr, r1, lsl #4
 484:	00000001 	andeq	r0, r0, r1
 488:	0000000c 	andeq	r0, r0, ip
 48c:	ffffffff 			; <UNDEFINED> instruction: 0xffffffff
 490:	7c020001 	stcvc	0, cr0, [r2], {1}
 494:	000d0c0e 	andeq	r0, sp, lr, lsl #24
 498:	00000014 	andeq	r0, r0, r4, lsl r0
 49c:	00000488 	andeq	r0, r0, r8, lsl #9
 4a0:	00009678 	andeq	r9, r0, r8, ror r6
 4a4:	00000028 	andeq	r0, r0, r8, lsr #32
 4a8:	83080e42 	movwhi	r0, #36418	; 0x8e42
 4ac:	00018e02 	andeq	r8, r1, r2, lsl #28
 4b0:	0000000c 	andeq	r0, r0, ip
 4b4:	ffffffff 			; <UNDEFINED> instruction: 0xffffffff
 4b8:	7c020001 	stcvc	0, cr0, [r2], {1}
 4bc:	000d0c0e 	andeq	r0, sp, lr, lsl #24
 4c0:	00000014 	andeq	r0, r0, r4, lsl r0
 4c4:	000004b0 			; <UNDEFINED> instruction: 0x000004b0
 4c8:	000096a0 	andeq	r9, r0, r0, lsr #13
 4cc:	00000034 	andeq	r0, r0, r4, lsr r0
 4d0:	83080e42 	movwhi	r0, #36418	; 0x8e42
 4d4:	00018e02 	andeq	r8, r1, r2, lsl #28
 4d8:	0000000c 	andeq	r0, r0, ip
 4dc:	ffffffff 			; <UNDEFINED> instruction: 0xffffffff
 4e0:	7c020001 	stcvc	0, cr0, [r2], {1}
 4e4:	000d0c0e 	andeq	r0, sp, lr, lsl #24
 4e8:	0000000c 	andeq	r0, r0, ip
 4ec:	000004d8 	ldrdeq	r0, [r0], -r8
 4f0:	000096d4 	ldrdeq	r9, [r0], -r4
 4f4:	00000018 	andeq	r0, r0, r8, lsl r0
 4f8:	0000000c 	andeq	r0, r0, ip
 4fc:	000004d8 	ldrdeq	r0, [r0], -r8
 500:	000096ec 	andeq	r9, r0, ip, ror #13
 504:	00000014 	andeq	r0, r0, r4, lsl r0
 508:	00000014 	andeq	r0, r0, r4, lsl r0
 50c:	000004d8 	ldrdeq	r0, [r0], -r8
 510:	00009700 	andeq	r9, r0, r0, lsl #14
 514:	00000048 	andeq	r0, r0, r8, asr #32
 518:	83080e42 	movwhi	r0, #36418	; 0x8e42
 51c:	00018e02 	andeq	r8, r1, r2, lsl #28
 520:	0000000c 	andeq	r0, r0, ip
 524:	ffffffff 			; <UNDEFINED> instruction: 0xffffffff
 528:	7c020001 	stcvc	0, cr0, [r2], {1}
 52c:	000d0c0e 	andeq	r0, sp, lr, lsl #24
 530:	0000000c 	andeq	r0, r0, ip
 534:	00000520 	andeq	r0, r0, r0, lsr #10
 538:	00009748 	andeq	r9, r0, r8, asr #14
 53c:	0000001c 	andeq	r0, r0, ip, lsl r0
 540:	00000014 	andeq	r0, r0, r4, lsl r0
 544:	00000520 	andeq	r0, r0, r0, lsr #10
 548:	00009764 	andeq	r9, r0, r4, ror #14
 54c:	00000014 	andeq	r0, r0, r4, lsl r0
 550:	83080e42 	movwhi	r0, #36418	; 0x8e42
 554:	00018e02 	andeq	r8, r1, r2, lsl #28
 558:	00000014 	andeq	r0, r0, r4, lsl r0
 55c:	00000520 	andeq	r0, r0, r0, lsr #10
 560:	00009778 	andeq	r9, r0, r8, ror r7
 564:	0000000c 	andeq	r0, r0, ip
 568:	83080e42 	movwhi	r0, #36418	; 0x8e42
 56c:	00018e02 	andeq	r8, r1, r2, lsl #28
 570:	00000018 	andeq	r0, r0, r8, lsl r0
 574:	00000520 	andeq	r0, r0, r0, lsr #10
 578:	00009784 	andeq	r9, r0, r4, lsl #15
 57c:	00000024 	andeq	r0, r0, r4, lsr #32
 580:	83100e42 	tsthi	r0, #1056	; 0x420
 584:	85038404 	strhi	r8, [r3, #-1028]	; 0x404
 588:	00018e02 	andeq	r8, r1, r2, lsl #28
 58c:	00000014 	andeq	r0, r0, r4, lsl r0
 590:	00000520 	andeq	r0, r0, r0, lsr #10
 594:	000097a8 	andeq	r9, r0, r8, lsr #15
 598:	00000014 	andeq	r0, r0, r4, lsl r0
 59c:	83080e42 	movwhi	r0, #36418	; 0x8e42
 5a0:	00018e02 	andeq	r8, r1, r2, lsl #28
 5a4:	00000014 	andeq	r0, r0, r4, lsl r0
 5a8:	00000520 	andeq	r0, r0, r0, lsr #10
 5ac:	000097bc 			; <UNDEFINED> instruction: 0x000097bc
 5b0:	00000014 	andeq	r0, r0, r4, lsl r0
 5b4:	83080e42 	movwhi	r0, #36418	; 0x8e42
 5b8:	00018e02 	andeq	r8, r1, r2, lsl #28
 5bc:	0000000c 	andeq	r0, r0, ip
 5c0:	ffffffff 			; <UNDEFINED> instruction: 0xffffffff
 5c4:	7c020001 	stcvc	0, cr0, [r2], {1}
 5c8:	000d0c0e 	andeq	r0, sp, lr, lsl #24
 5cc:	00000018 	andeq	r0, r0, r8, lsl r0
 5d0:	000005bc 			; <UNDEFINED> instruction: 0x000005bc
 5d4:	0000981c 	andeq	r9, r0, ip, lsl r8
 5d8:	00000020 	andeq	r0, r0, r0, lsr #32
 5dc:	84100e42 	ldrhi	r0, [r0], #-3650	; 0xe42
 5e0:	86038504 	strhi	r8, [r3], -r4, lsl #10
 5e4:	00018e02 	andeq	r8, r1, r2, lsl #28
 5e8:	00000014 	andeq	r0, r0, r4, lsl r0
 5ec:	000005bc 			; <UNDEFINED> instruction: 0x000005bc
 5f0:	0000983c 	andeq	r9, r0, ip, lsr r8
 5f4:	000000b0 	strheq	r0, [r0], -r0	; <UNPREDICTABLE>
 5f8:	84080e42 	strhi	r0, [r8], #-3650	; 0xe42
 5fc:	00018e02 	andeq	r8, r1, r2, lsl #28
 600:	00000014 	andeq	r0, r0, r4, lsl r0
 604:	000005bc 			; <UNDEFINED> instruction: 0x000005bc
 608:	000098ec 	andeq	r9, r0, ip, ror #17
 60c:	00000018 	andeq	r0, r0, r8, lsl r0
 610:	84080e42 	strhi	r0, [r8], #-3650	; 0xe42
 614:	00018e02 	andeq	r8, r1, r2, lsl #28
 618:	00000014 	andeq	r0, r0, r4, lsl r0
 61c:	000005bc 			; <UNDEFINED> instruction: 0x000005bc
 620:	00009904 	andeq	r9, r0, r4, lsl #18
 624:	00000020 	andeq	r0, r0, r0, lsr #32
 628:	84080e42 	strhi	r0, [r8], #-3650	; 0xe42
 62c:	00018e02 	andeq	r8, r1, r2, lsl #28
 630:	00000014 	andeq	r0, r0, r4, lsl r0
 634:	000005bc 			; <UNDEFINED> instruction: 0x000005bc
 638:	00009924 	andeq	r9, r0, r4, lsr #18
 63c:	00000030 	andeq	r0, r0, r0, lsr r0
 640:	84080e42 	strhi	r0, [r8], #-3650	; 0xe42
 644:	00018e02 	andeq	r8, r1, r2, lsl #28
 648:	00000014 	andeq	r0, r0, r4, lsl r0
 64c:	000005bc 			; <UNDEFINED> instruction: 0x000005bc
 650:	00009954 	andeq	r9, r0, r4, asr r9
 654:	00000030 	andeq	r0, r0, r0, lsr r0
 658:	84080e42 	strhi	r0, [r8], #-3650	; 0xe42
 65c:	00018e02 	andeq	r8, r1, r2, lsl #28
 660:	00000014 	andeq	r0, r0, r4, lsl r0
 664:	000005bc 			; <UNDEFINED> instruction: 0x000005bc
 668:	00009984 	andeq	r9, r0, r4, lsl #19
 66c:	00000010 	andeq	r0, r0, r0, lsl r0
 670:	84080e42 	strhi	r0, [r8], #-3650	; 0xe42
 674:	00018e02 	andeq	r8, r1, r2, lsl #28
 678:	0000000c 	andeq	r0, r0, ip
 67c:	ffffffff 			; <UNDEFINED> instruction: 0xffffffff
 680:	7c020001 	stcvc	0, cr0, [r2], {1}
 684:	000d0c0e 	andeq	r0, sp, lr, lsl #24
 688:	00000018 	andeq	r0, r0, r8, lsl r0
 68c:	00000678 	andeq	r0, r0, r8, ror r6
 690:	00009994 	muleq	r0, r4, r9
 694:	00000068 	andeq	r0, r0, r8, rrx
 698:	84100e4a 	ldrhi	r0, [r0], #-3658	; 0xe4a
 69c:	86038504 	strhi	r8, [r3], -r4, lsl #10
 6a0:	00018e02 	andeq	r8, r1, r2, lsl #28
 6a4:	00000014 	andeq	r0, r0, r4, lsl r0
 6a8:	00000678 	andeq	r0, r0, r8, ror r6
 6ac:	000099fc 	strdeq	r9, [r0], -ip
 6b0:	00000010 	andeq	r0, r0, r0, lsl r0
 6b4:	84080e42 	strhi	r0, [r8], #-3650	; 0xe42
 6b8:	00018e02 	andeq	r8, r1, r2, lsl #28
 6bc:	00000014 	andeq	r0, r0, r4, lsl r0
 6c0:	00000678 	andeq	r0, r0, r8, ror r6
 6c4:	00009a0c 	andeq	r9, r0, ip, lsl #20
 6c8:	00000024 	andeq	r0, r0, r4, lsr #32
 6cc:	84080e46 	strhi	r0, [r8], #-3654	; 0xe46
 6d0:	00018e02 	andeq	r8, r1, r2, lsl #28
 6d4:	00000014 	andeq	r0, r0, r4, lsl r0
 6d8:	00000678 	andeq	r0, r0, r8, ror r6
 6dc:	00009a30 	andeq	r9, r0, r0, lsr sl
 6e0:	00000024 	andeq	r0, r0, r4, lsr #32
 6e4:	84080e46 	strhi	r0, [r8], #-3654	; 0xe46
 6e8:	00018e02 	andeq	r8, r1, r2, lsl #28
 6ec:	00000014 	andeq	r0, r0, r4, lsl r0
 6f0:	00000678 	andeq	r0, r0, r8, ror r6
 6f4:	00009a54 	andeq	r9, r0, r4, asr sl
 6f8:	00000010 	andeq	r0, r0, r0, lsl r0
 6fc:	84080e42 	strhi	r0, [r8], #-3650	; 0xe42
 700:	00018e02 	andeq	r8, r1, r2, lsl #28
 704:	00000014 	andeq	r0, r0, r4, lsl r0
 708:	00000678 	andeq	r0, r0, r8, ror r6
 70c:	00009a64 	andeq	r9, r0, r4, ror #20
 710:	0000001c 	andeq	r0, r0, ip, lsl r0
 714:	84080e42 	strhi	r0, [r8], #-3650	; 0xe42
 718:	00018e02 	andeq	r8, r1, r2, lsl #28
 71c:	00000018 	andeq	r0, r0, r8, lsl r0
 720:	00000678 	andeq	r0, r0, r8, ror r6
 724:	00009a80 	andeq	r9, r0, r0, lsl #21
 728:	00000034 	andeq	r0, r0, r4, lsr r0
 72c:	84080e46 	strhi	r0, [r8], #-3654	; 0xe46
 730:	4e018e02 	cdpmi	14, 0, cr8, cr1, cr2, {0}
 734:	cec4000e 	cdpgt	0, 12, cr0, cr4, cr14, {0}
 738:	0000000c 	andeq	r0, r0, ip
 73c:	ffffffff 			; <UNDEFINED> instruction: 0xffffffff
 740:	7c020001 	stcvc	0, cr0, [r2], {1}
 744:	000d0c0e 	andeq	r0, sp, lr, lsl #24
 748:	0000000c 	andeq	r0, r0, ip
 74c:	00000738 	andeq	r0, r0, r8, lsr r7
 750:	00009ab4 			; <UNDEFINED> instruction: 0x00009ab4
 754:	00000010 	andeq	r0, r0, r0, lsl r0
 758:	0000000c 	andeq	r0, r0, ip
 75c:	00000738 	andeq	r0, r0, r8, lsr r7
 760:	00009ac4 	andeq	r9, r0, r4, asr #21
 764:	0000000c 	andeq	r0, r0, ip
 768:	00000014 	andeq	r0, r0, r4, lsl r0
 76c:	00000738 	andeq	r0, r0, r8, lsr r7
 770:	00009ad0 	ldrdeq	r9, [r0], -r0
 774:	00000050 	andeq	r0, r0, r0, asr r0
 778:	84080e52 	strhi	r0, [r8], #-3666	; 0xe52
 77c:	00018e02 	andeq	r8, r1, r2, lsl #28
 780:	00000014 	andeq	r0, r0, r4, lsl r0
 784:	00000738 	andeq	r0, r0, r8, lsr r7
 788:	00009b20 	andeq	r9, r0, r0, lsr #22
 78c:	00000064 	andeq	r0, r0, r4, rrx
 790:	84080e42 	strhi	r0, [r8], #-3650	; 0xe42
 794:	00018e02 	andeq	r8, r1, r2, lsl #28
 798:	0000000c 	andeq	r0, r0, ip
 79c:	00000738 	andeq	r0, r0, r8, lsr r7
 7a0:	00009b84 	andeq	r9, r0, r4, lsl #23
 7a4:	00000004 	andeq	r0, r0, r4
 7a8:	00000014 	andeq	r0, r0, r4, lsl r0
 7ac:	00000738 	andeq	r0, r0, r8, lsr r7
 7b0:	00009b88 	andeq	r9, r0, r8, lsl #23
 7b4:	0000000c 	andeq	r0, r0, ip
 7b8:	84080e42 	strhi	r0, [r8], #-3650	; 0xe42
 7bc:	00018e02 	andeq	r8, r1, r2, lsl #28
 7c0:	00000014 	andeq	r0, r0, r4, lsl r0
 7c4:	00000738 	andeq	r0, r0, r8, lsr r7
 7c8:	00009b94 	muleq	r0, r4, fp
 7cc:	0000008c 	andeq	r0, r0, ip, lsl #1
 7d0:	84080e42 	strhi	r0, [r8], #-3650	; 0xe42
 7d4:	00018e02 	andeq	r8, r1, r2, lsl #28
 7d8:	0000000c 	andeq	r0, r0, ip
 7dc:	00000738 	andeq	r0, r0, r8, lsr r7
 7e0:	00009c20 	andeq	r9, r0, r0, lsr #24
 7e4:	00000004 	andeq	r0, r0, r4
 7e8:	0000000c 	andeq	r0, r0, ip
 7ec:	00000738 	andeq	r0, r0, r8, lsr r7
 7f0:	00009c24 	andeq	r9, r0, r4, lsr #24
 7f4:	00000014 	andeq	r0, r0, r4, lsl r0
 7f8:	0000000c 	andeq	r0, r0, ip
 7fc:	00000738 	andeq	r0, r0, r8, lsr r7
 800:	00009c38 	andeq	r9, r0, r8, lsr ip
 804:	00000010 	andeq	r0, r0, r0, lsl r0

Disassembly of section .debug_ranges:

00000000 <.debug_ranges>:
   0:	00000618 	andeq	r0, r0, r8, lsl r6
   4:	00000624 	andeq	r0, r0, r4, lsr #12
   8:	00000628 	andeq	r0, r0, r8, lsr #12
   c:	000006a0 	andeq	r0, r0, r0, lsr #13
	...
  18:	00000358 	andeq	r0, r0, r8, asr r3
  1c:	0000036c 	andeq	r0, r0, ip, ror #6
  20:	00000370 	andeq	r0, r0, r0, ror r3
  24:	0000037c 	andeq	r0, r0, ip, ror r3
	...
  30:	00000400 	andeq	r0, r0, r0, lsl #8
  34:	0000040c 	andeq	r0, r0, ip, lsl #8
  38:	00000428 	andeq	r0, r0, r8, lsr #8
  3c:	00000460 	andeq	r0, r0, r0, ror #8
	...
  48:	000002a8 	andeq	r0, r0, r8, lsr #5
  4c:	000002ac 	andeq	r0, r0, ip, lsr #5
  50:	000002dc 	ldrdeq	r0, [r0], -ip
  54:	000004cc 	andeq	r0, r0, ip, asr #9
	...
  60:	000096d4 	ldrdeq	r9, [r0], -r4
  64:	00009748 	andeq	r9, r0, r8, asr #14
	...
