
off.elf:     file format elf32-littlearm


Disassembly of section .text:

00008000 <_start>:
    8000:	e3a0d302 	mov	sp, #134217728	; 0x8000000
    8004:	e3a0b000 	mov	fp, #0
    8008:	eb0001dc 	bl	8780 <_cstart>
    800c:	eb00020a 	bl	883c <rpi_reboot>

00008010 <notmain>:
    8010:	e92d4008 	push	{r3, lr}
    8014:	eb0003d6 	bl	8f74 <uart_init>
    8018:	e3a00015 	mov	r0, #21
    801c:	eb00003f 	bl	8120 <gpio_pud_off>
    8020:	e3a00014 	mov	r0, #20
    8024:	eb00003d 	bl	8120 <gpio_pud_off>
    8028:	e59f000c 	ldr	r0, [pc, #12]	; 803c <notmain+0x2c>
    802c:	e3a01015 	mov	r1, #21
    8030:	e3a02014 	mov	r2, #20
    8034:	eb000044 	bl	814c <printk>
    8038:	eb0001be 	bl	8738 <clean_reboot>
    803c:	000097e4 	andeq	r9, r0, r4, ror #15

00008040 <gpio_set_pullup>:
    8040:	e92d4038 	push	{r3, r4, r5, lr}
    8044:	e1a05000 	mov	r5, r0
    8048:	e59f30a0 	ldr	r3, [pc, #160]	; 80f0 <gpio_set_pullup+0xb0>
    804c:	e5930000 	ldr	r0, [r3]
    8050:	e3a01002 	mov	r1, #2
    8054:	eb000421 	bl	90e0 <put32>
    8058:	ee1f2f3c 	mrc	15, 0, r2, cr15, cr12, {1}
    805c:	ee1f3f3c 	mrc	15, 0, r3, cr15, cr12, {1}
    8060:	e0623003 	rsb	r3, r2, r3
    8064:	e3530095 	cmp	r3, #149	; 0x95
    8068:	9afffffb 	bls	805c <gpio_set_pullup+0x1c>
    806c:	e355001f 	cmp	r5, #31
    8070:	959f3078 	ldrls	r3, [pc, #120]	; 80f0 <gpio_set_pullup+0xb0>
    8074:	95934004 	ldrls	r4, [r3, #4]
    8078:	859f3070 	ldrhi	r3, [pc, #112]	; 80f0 <gpio_set_pullup+0xb0>
    807c:	85934008 	ldrhi	r4, [r3, #8]
    8080:	e205501f 	and	r5, r5, #31
    8084:	e1a00004 	mov	r0, r4
    8088:	e3a01001 	mov	r1, #1
    808c:	e1a01511 	lsl	r1, r1, r5
    8090:	eb000412 	bl	90e0 <put32>
    8094:	ee1f2f3c 	mrc	15, 0, r2, cr15, cr12, {1}
    8098:	ee1f3f3c 	mrc	15, 0, r3, cr15, cr12, {1}
    809c:	e0623003 	rsb	r3, r2, r3
    80a0:	e3530095 	cmp	r3, #149	; 0x95
    80a4:	9afffffb 	bls	8098 <gpio_set_pullup+0x58>
    80a8:	e59f3040 	ldr	r3, [pc, #64]	; 80f0 <gpio_set_pullup+0xb0>
    80ac:	e5930000 	ldr	r0, [r3]
    80b0:	e3a01000 	mov	r1, #0
    80b4:	eb000409 	bl	90e0 <put32>
    80b8:	ee1f2f3c 	mrc	15, 0, r2, cr15, cr12, {1}
    80bc:	ee1f3f3c 	mrc	15, 0, r3, cr15, cr12, {1}
    80c0:	e0623003 	rsb	r3, r2, r3
    80c4:	e3530095 	cmp	r3, #149	; 0x95
    80c8:	9afffffb 	bls	80bc <gpio_set_pullup+0x7c>
    80cc:	e1a00004 	mov	r0, r4
    80d0:	e3a01000 	mov	r1, #0
    80d4:	eb000401 	bl	90e0 <put32>
    80d8:	ee1f2f3c 	mrc	15, 0, r2, cr15, cr12, {1}
    80dc:	ee1f3f3c 	mrc	15, 0, r3, cr15, cr12, {1}
    80e0:	e0623003 	rsb	r3, r2, r3
    80e4:	e3530095 	cmp	r3, #149	; 0x95
    80e8:	9afffffb 	bls	80dc <gpio_set_pullup+0x9c>
    80ec:	e8bd8038 	pop	{r3, r4, r5, pc}
    80f0:	0000973c 	andeq	r9, r0, ip, lsr r7

000080f4 <gpio_set_pulldown>:
    80f4:	e92d4008 	push	{r3, lr}
    80f8:	eb00002e 	bl	81b8 <rpi_reset_putc>
    80fc:	e59f0010 	ldr	r0, [pc, #16]	; 8114 <gpio_set_pulldown+0x20>
    8100:	e59f1010 	ldr	r1, [pc, #16]	; 8118 <gpio_set_pulldown+0x24>
    8104:	e59f2010 	ldr	r2, [pc, #16]	; 811c <gpio_set_pulldown+0x28>
    8108:	e3a03027 	mov	r3, #39	; 0x27
    810c:	eb00000e 	bl	814c <printk>
    8110:	eb000188 	bl	8738 <clean_reboot>
    8114:	00009824 	andeq	r9, r0, r4, lsr #16
    8118:	00009850 	andeq	r9, r0, r0, asr r8
    811c:	00009800 	andeq	r9, r0, r0, lsl #16

00008120 <gpio_pud_off>:
    8120:	e92d4008 	push	{r3, lr}
    8124:	eb000023 	bl	81b8 <rpi_reset_putc>
    8128:	e59f0010 	ldr	r0, [pc, #16]	; 8140 <gpio_pud_off+0x20>
    812c:	e59f1010 	ldr	r1, [pc, #16]	; 8144 <gpio_pud_off+0x24>
    8130:	e59f2010 	ldr	r2, [pc, #16]	; 8148 <gpio_pud_off+0x28>
    8134:	e3a03028 	mov	r3, #40	; 0x28
    8138:	eb000003 	bl	814c <printk>
    813c:	eb00017d 	bl	8738 <clean_reboot>
    8140:	00009824 	andeq	r9, r0, r4, lsr #16
    8144:	00009850 	andeq	r9, r0, r0, asr r8
    8148:	00009814 	andeq	r9, r0, r4, lsl r8

0000814c <printk>:
    814c:	e92d000f 	push	{r0, r1, r2, r3}
    8150:	e92d4030 	push	{r4, r5, lr}
    8154:	e24dd00c 	sub	sp, sp, #12
    8158:	e28d301c 	add	r3, sp, #28
    815c:	e58d3004 	str	r3, [sp, #4]
    8160:	e59f4034 	ldr	r4, [pc, #52]	; 819c <printk+0x50>
    8164:	e1a00004 	mov	r0, r4
    8168:	e3a01b01 	mov	r1, #1024	; 0x400
    816c:	e59d2018 	ldr	r2, [sp, #24]
    8170:	eb0000cb 	bl	84a4 <va_printk>
    8174:	e1a05000 	mov	r5, r0
    8178:	e59f3020 	ldr	r3, [pc, #32]	; 81a0 <printk+0x54>
    817c:	e5933000 	ldr	r3, [r3]
    8180:	e1a00004 	mov	r0, r4
    8184:	e12fff33 	blx	r3
    8188:	e1a00005 	mov	r0, r5
    818c:	e28dd00c 	add	sp, sp, #12
    8190:	e8bd4030 	pop	{r4, r5, lr}
    8194:	e28dd010 	add	sp, sp, #16
    8198:	e12fff1e 	bx	lr
    819c:	00009a98 	muleq	r0, r8, sl
    81a0:	0000974c 	andeq	r9, r0, ip, asr #14

000081a4 <internal_putchar>:
    81a4:	e92d4010 	push	{r4, lr}
    81a8:	e1a04000 	mov	r4, r0
    81ac:	eb0003af 	bl	9070 <uart_putc>
    81b0:	e1a00004 	mov	r0, r4
    81b4:	e8bd8010 	pop	{r4, pc}

000081b8 <rpi_reset_putc>:
    81b8:	e59f2008 	ldr	r2, [pc, #8]	; 81c8 <rpi_reset_putc+0x10>
    81bc:	e59f3008 	ldr	r3, [pc, #8]	; 81cc <rpi_reset_putc+0x14>
    81c0:	e5832000 	str	r2, [r3]
    81c4:	e12fff1e 	bx	lr
    81c8:	000081a4 	andeq	r8, r0, r4, lsr #3
    81cc:	00009748 	andeq	r9, r0, r8, asr #14

000081d0 <rpi_set_putc>:
    81d0:	e59f3004 	ldr	r3, [pc, #4]	; 81dc <rpi_set_putc+0xc>
    81d4:	e5830000 	str	r0, [r3]
    81d8:	e12fff1e 	bx	lr
    81dc:	00009748 	andeq	r9, r0, r8, asr #14

000081e0 <internal_putk>:
    81e0:	e92d4038 	push	{r3, r4, r5, lr}
    81e4:	e1a04000 	mov	r4, r0
    81e8:	e59f5020 	ldr	r5, [pc, #32]	; 8210 <internal_putk+0x30>
    81ec:	ea000002 	b	81fc <internal_putk+0x1c>
    81f0:	e5953000 	ldr	r3, [r5]
    81f4:	e12fff33 	blx	r3
    81f8:	e2844001 	add	r4, r4, #1
    81fc:	e5d40000 	ldrb	r0, [r4]
    8200:	e3500000 	cmp	r0, #0
    8204:	1afffff9 	bne	81f0 <internal_putk+0x10>
    8208:	e3a00001 	mov	r0, #1
    820c:	e8bd8038 	pop	{r3, r4, r5, pc}
    8210:	00009748 	andeq	r9, r0, r8, asr #14

00008214 <isdigit>:
    8214:	e2400030 	sub	r0, r0, #48	; 0x30
    8218:	e3500009 	cmp	r0, #9
    821c:	83a00000 	movhi	r0, #0
    8220:	93a00001 	movls	r0, #1
    8224:	e12fff1e 	bx	lr

00008228 <pad>:
    8228:	e0611000 	rsb	r1, r1, r0
    822c:	e3a03020 	mov	r3, #32
    8230:	ea000002 	b	8240 <pad+0x18>
    8234:	e5c03000 	strb	r3, [r0]
    8238:	e2811001 	add	r1, r1, #1
    823c:	e2800001 	add	r0, r0, #1
    8240:	e1510002 	cmp	r1, r2
    8244:	bafffffa 	blt	8234 <pad+0xc>
    8248:	e3a03000 	mov	r3, #0
    824c:	e5c03000 	strb	r3, [r0]
    8250:	e12fff1e 	bx	lr

00008254 <reverse>:
    8254:	e063c002 	rsb	ip, r3, r2
    8258:	e28cc001 	add	ip, ip, #1
    825c:	e15c0001 	cmp	ip, r1
    8260:	c061100c 	rsbgt	r1, r1, ip
    8264:	c0833001 	addgt	r3, r3, r1
    8268:	e2422001 	sub	r2, r2, #1
    826c:	e1a01000 	mov	r1, r0
    8270:	ea000002 	b	8280 <reverse+0x2c>
    8274:	e452c001 	ldrb	ip, [r2], #-1
    8278:	e5c1c000 	strb	ip, [r1]
    827c:	e2811001 	add	r1, r1, #1
    8280:	e1520003 	cmp	r2, r3
    8284:	2afffffa 	bcs	8274 <reverse+0x20>
    8288:	e3a03000 	mov	r3, #0
    828c:	e5c13000 	strb	r3, [r1]
    8290:	e12fff1e 	bx	lr

00008294 <emit>:
    8294:	e92d41f0 	push	{r4, r5, r6, r7, r8, lr}
    8298:	e24dd048 	sub	sp, sp, #72	; 0x48
    829c:	e1a05001 	mov	r5, r1
    82a0:	e1a04002 	mov	r4, r2
    82a4:	e59d2060 	ldr	r2, [sp, #96]	; 0x60
    82a8:	e1520004 	cmp	r2, r4
    82ac:	c2442001 	subgt	r2, r4, #1
    82b0:	e1a0c003 	mov	ip, r3
    82b4:	e2400002 	sub	r0, r0, #2
    82b8:	e350000e 	cmp	r0, #14
    82bc:	979ff100 	ldrls	pc, [pc, r0, lsl #2]
    82c0:	ea000042 	b	83d0 <emit+0x13c>
    82c4:	000083a8 	andeq	r8, r0, r8, lsr #7
    82c8:	000083d0 	ldrdeq	r8, [r0], -r0
    82cc:	000083d0 	ldrdeq	r8, [r0], -r0
    82d0:	000083d0 	ldrdeq	r8, [r0], -r0
    82d4:	000083d0 	ldrdeq	r8, [r0], -r0
    82d8:	000083d0 	ldrdeq	r8, [r0], -r0
    82dc:	0000839c 	muleq	r0, ip, r3
    82e0:	000083d0 	ldrdeq	r8, [r0], -r0
    82e4:	00008300 	andeq	r8, r0, r0, lsl #6
    82e8:	000083d0 	ldrdeq	r8, [r0], -r0
    82ec:	000083d0 	ldrdeq	r8, [r0], -r0
    82f0:	000083d0 	ldrdeq	r8, [r0], -r0
    82f4:	000083d0 	ldrdeq	r8, [r0], -r0
    82f8:	000083d0 	ldrdeq	r8, [r0], -r0
    82fc:	00008374 	andeq	r8, r0, r4, ror r3
    8300:	e59d1064 	ldr	r1, [sp, #100]	; 0x64
    8304:	e2911000 	adds	r1, r1, #0
    8308:	13a01001 	movne	r1, #1
    830c:	e0111fa3 	ands	r1, r1, r3, lsr #31
    8310:	1263c000 	rsbne	ip, r3, #0
    8314:	13a08001 	movne	r8, #1
    8318:	03a08000 	moveq	r8, #0
    831c:	e28d1008 	add	r1, sp, #8
    8320:	e59f70f4 	ldr	r7, [pc, #244]	; 841c <emit+0x188>
    8324:	e59f60f4 	ldr	r6, [pc, #244]	; 8420 <emit+0x18c>
    8328:	ea000000 	b	8330 <emit+0x9c>
    832c:	e1a01003 	mov	r1, r3
    8330:	e2813001 	add	r3, r1, #1
    8334:	e08e0c97 	umull	r0, lr, r7, ip
    8338:	e1a0e1ae 	lsr	lr, lr, #3
    833c:	e1a0000e 	mov	r0, lr
    8340:	e08ee10e 	add	lr, lr, lr, lsl #2
    8344:	e1a0e08e 	lsl	lr, lr, #1
    8348:	e06ee00c 	rsb	lr, lr, ip
    834c:	e7d6c00e 	ldrb	ip, [r6, lr]
    8350:	e5c1c000 	strb	ip, [r1]
    8354:	e1a0c000 	mov	ip, r0
    8358:	e3500000 	cmp	r0, #0
    835c:	1afffff2 	bne	832c <emit+0x98>
    8360:	e3580000 	cmp	r8, #0
    8364:	12813002 	addne	r3, r1, #2
    8368:	13a0002d 	movne	r0, #45	; 0x2d
    836c:	15c10001 	strbne	r0, [r1, #1]
    8370:	ea00001f 	b	83f4 <emit+0x160>
    8374:	e28de008 	add	lr, sp, #8
    8378:	e59f00a4 	ldr	r0, [pc, #164]	; 8424 <emit+0x190>
    837c:	e28e3001 	add	r3, lr, #1
    8380:	e20c100f 	and	r1, ip, #15
    8384:	e7d01001 	ldrb	r1, [r0, r1]
    8388:	e5ce1000 	strb	r1, [lr]
    838c:	e1a0e003 	mov	lr, r3
    8390:	e1b0c22c 	lsrs	ip, ip, #4
    8394:	1afffff8 	bne	837c <emit+0xe8>
    8398:	ea000015 	b	83f4 <emit+0x160>
    839c:	e5cd3008 	strb	r3, [sp, #8]
    83a0:	e28d3009 	add	r3, sp, #9
    83a4:	ea000012 	b	83f4 <emit+0x160>
    83a8:	e28de008 	add	lr, sp, #8
    83ac:	e59f0074 	ldr	r0, [pc, #116]	; 8428 <emit+0x194>
    83b0:	e28e3001 	add	r3, lr, #1
    83b4:	e20c1001 	and	r1, ip, #1
    83b8:	e7d01001 	ldrb	r1, [r0, r1]
    83bc:	e5ce1000 	strb	r1, [lr]
    83c0:	e1a0e003 	mov	lr, r3
    83c4:	e1b0c0ac 	lsrs	ip, ip, #1
    83c8:	1afffff8 	bne	83b0 <emit+0x11c>
    83cc:	ea000008 	b	83f4 <emit+0x160>
    83d0:	ebffff78 	bl	81b8 <rpi_reset_putc>
    83d4:	e59f3050 	ldr	r3, [pc, #80]	; 842c <emit+0x198>
    83d8:	e58d3000 	str	r3, [sp]
    83dc:	e59f004c 	ldr	r0, [pc, #76]	; 8430 <emit+0x19c>
    83e0:	e59f104c 	ldr	r1, [pc, #76]	; 8434 <emit+0x1a0>
    83e4:	e59f204c 	ldr	r2, [pc, #76]	; 8438 <emit+0x1a4>
    83e8:	e3a03075 	mov	r3, #117	; 0x75
    83ec:	ebffff56 	bl	814c <printk>
    83f0:	eb0000d0 	bl	8738 <clean_reboot>
    83f4:	e1a00003 	mov	r0, r3
    83f8:	e28d1008 	add	r1, sp, #8
    83fc:	ebffff89 	bl	8228 <pad>
    8400:	e1a02000 	mov	r2, r0
    8404:	e1a00005 	mov	r0, r5
    8408:	e1a01004 	mov	r1, r4
    840c:	e28d3008 	add	r3, sp, #8
    8410:	ebffff8f 	bl	8254 <reverse>
    8414:	e28dd048 	add	sp, sp, #72	; 0x48
    8418:	e8bd81f0 	pop	{r4, r5, r6, r7, r8, pc}
    841c:	cccccccd 	stclgt	12, cr12, [ip], {205}	; 0xcd
    8420:	000098ac 	andeq	r9, r0, ip, lsr #17
    8424:	000098b8 			; <UNDEFINED> instruction: 0x000098b8
    8428:	000098cc 	andeq	r9, r0, ip, asr #17
    842c:	000098a8 	andeq	r9, r0, r8, lsr #17
    8430:	00009880 	andeq	r9, r0, r0, lsl #17
    8434:	00009894 	muleq	r0, r4, r8
    8438:	0000985c 	andeq	r9, r0, ip, asr r8

0000843c <rpi_set_output>:
    843c:	e52de004 	push	{lr}		; (str lr, [sp, #-4]!)
    8440:	e24dd00c 	sub	sp, sp, #12
    8444:	e3500000 	cmp	r0, #0
    8448:	1a000008 	bne	8470 <rpi_set_output+0x34>
    844c:	ebffff59 	bl	81b8 <rpi_reset_putc>
    8450:	e59f3034 	ldr	r3, [pc, #52]	; 848c <rpi_set_output+0x50>
    8454:	e58d3000 	str	r3, [sp]
    8458:	e59f0030 	ldr	r0, [pc, #48]	; 8490 <rpi_set_output+0x54>
    845c:	e59f1030 	ldr	r1, [pc, #48]	; 8494 <rpi_set_output+0x58>
    8460:	e59f2030 	ldr	r2, [pc, #48]	; 8498 <rpi_set_output+0x5c>
    8464:	e3a03020 	mov	r3, #32
    8468:	ebffff37 	bl	814c <printk>
    846c:	eb0000b1 	bl	8738 <clean_reboot>
    8470:	e59f3024 	ldr	r3, [pc, #36]	; 849c <rpi_set_output+0x60>
    8474:	e5830000 	str	r0, [r3]
    8478:	e3510000 	cmp	r1, #0
    847c:	159f301c 	ldrne	r3, [pc, #28]	; 84a0 <rpi_set_output+0x64>
    8480:	15831000 	strne	r1, [r3]
    8484:	e28dd00c 	add	sp, sp, #12
    8488:	e49df004 	pop	{pc}		; (ldr pc, [sp], #4)
    848c:	000098d0 	ldrdeq	r9, [r0], -r0
    8490:	00009880 	andeq	r9, r0, r0, lsl #17
    8494:	00009894 	muleq	r0, r4, r8
    8498:	00009864 	andeq	r9, r0, r4, ror #16
    849c:	00009748 	andeq	r9, r0, r8, asr #14
    84a0:	0000974c 	andeq	r9, r0, ip, asr #14

000084a4 <va_printk>:
    84a4:	e92d4ff0 	push	{r4, r5, r6, r7, r8, r9, sl, fp, lr}
    84a8:	e24dd08c 	sub	sp, sp, #140	; 0x8c
    84ac:	e1a0a000 	mov	sl, r0
    84b0:	e1a09003 	mov	r9, r3
    84b4:	e2411001 	sub	r1, r1, #1
    84b8:	e0808001 	add	r8, r0, r1
    84bc:	e3a03000 	mov	r3, #0
    84c0:	e5c03000 	strb	r3, [r0]
    84c4:	e1a04000 	mov	r4, r0
    84c8:	e1a0b003 	mov	fp, r3
    84cc:	ea000088 	b	86f4 <va_printk+0x250>
    84d0:	e3530025 	cmp	r3, #37	; 0x25
    84d4:	12822001 	addne	r2, r2, #1
    84d8:	15c43000 	strbne	r3, [r4]
    84dc:	12844001 	addne	r4, r4, #1
    84e0:	1a000083 	bne	86f4 <va_printk+0x250>
    84e4:	e5d21001 	ldrb	r1, [r2, #1]
    84e8:	e3510025 	cmp	r1, #37	; 0x25
    84ec:	05c43000 	strbeq	r3, [r4]
    84f0:	02822002 	addeq	r2, r2, #2
    84f4:	02844001 	addeq	r4, r4, #1
    84f8:	0a00007d 	beq	86f4 <va_printk+0x250>
    84fc:	e2826001 	add	r6, r2, #1
    8500:	e1a0700b 	mov	r7, fp
    8504:	ea000004 	b	851c <va_printk+0x78>
    8508:	e0877107 	add	r7, r7, r7, lsl #2
    850c:	e1a07087 	lsl	r7, r7, #1
    8510:	e0877005 	add	r7, r7, r5
    8514:	e2477030 	sub	r7, r7, #48	; 0x30
    8518:	e2866001 	add	r6, r6, #1
    851c:	e5d65000 	ldrb	r5, [r6]
    8520:	e1a00005 	mov	r0, r5
    8524:	ebffff3a 	bl	8214 <isdigit>
    8528:	e3500000 	cmp	r0, #0
    852c:	1afffff5 	bne	8508 <va_printk+0x64>
    8530:	e357001f 	cmp	r7, #31
    8534:	9a000008 	bls	855c <va_printk+0xb8>
    8538:	ebffff1e 	bl	81b8 <rpi_reset_putc>
    853c:	e59f31dc 	ldr	r3, [pc, #476]	; 8720 <va_printk+0x27c>
    8540:	e58d3000 	str	r3, [sp]
    8544:	e59f01d8 	ldr	r0, [pc, #472]	; 8724 <va_printk+0x280>
    8548:	e59f11d8 	ldr	r1, [pc, #472]	; 8728 <va_printk+0x284>
    854c:	e59f21d8 	ldr	r2, [pc, #472]	; 872c <va_printk+0x288>
    8550:	e3a03092 	mov	r3, #146	; 0x92
    8554:	ebfffefc 	bl	814c <printk>
    8558:	eb000076 	bl	8738 <clean_reboot>
    855c:	e2455062 	sub	r5, r5, #98	; 0x62
    8560:	e3550016 	cmp	r5, #22
    8564:	979ff105 	ldrls	pc, [pc, r5, lsl #2]
    8568:	ea00004e 	b	86a8 <va_printk+0x204>
    856c:	00008654 	andeq	r8, r0, r4, asr r6
    8570:	00008684 	andeq	r8, r0, r4, lsl #13
    8574:	000085e4 	andeq	r8, r0, r4, ror #11
    8578:	000086a8 	andeq	r8, r0, r8, lsr #13
    857c:	000085c8 	andeq	r8, r0, r8, asr #11
    8580:	000086a8 	andeq	r8, r0, r8, lsr #13
    8584:	000086a8 	andeq	r8, r0, r8, lsr #13
    8588:	000086a8 	andeq	r8, r0, r8, lsr #13
    858c:	000086a8 	andeq	r8, r0, r8, lsr #13
    8590:	000086a8 	andeq	r8, r0, r8, lsr #13
    8594:	000086a8 	andeq	r8, r0, r8, lsr #13
    8598:	000086a8 	andeq	r8, r0, r8, lsr #13
    859c:	000086a8 	andeq	r8, r0, r8, lsr #13
    85a0:	000086a8 	andeq	r8, r0, r8, lsr #13
    85a4:	00008630 	andeq	r8, r0, r0, lsr r6
    85a8:	000086a8 	andeq	r8, r0, r8, lsr #13
    85ac:	000086a8 	andeq	r8, r0, r8, lsr #13
    85b0:	00008678 	andeq	r8, r0, r8, ror r6
    85b4:	000086a8 	andeq	r8, r0, r8, lsr #13
    85b8:	0000860c 	andeq	r8, r0, ip, lsl #12
    85bc:	000086a8 	andeq	r8, r0, r8, lsr #13
    85c0:	000086a8 	andeq	r8, r0, r8, lsr #13
    85c4:	00008630 	andeq	r8, r0, r0, lsr r6
    85c8:	ebfffefa 	bl	81b8 <rpi_reset_putc>
    85cc:	e59f015c 	ldr	r0, [pc, #348]	; 8730 <va_printk+0x28c>
    85d0:	e59f1150 	ldr	r1, [pc, #336]	; 8728 <va_printk+0x284>
    85d4:	e59f2150 	ldr	r2, [pc, #336]	; 872c <va_printk+0x288>
    85d8:	e3a03098 	mov	r3, #152	; 0x98
    85dc:	ebfffeda 	bl	814c <printk>
    85e0:	eb000054 	bl	8738 <clean_reboot>
    85e4:	e5993000 	ldr	r3, [r9]
    85e8:	e2899004 	add	r9, r9, #4
    85ec:	e58d7000 	str	r7, [sp]
    85f0:	e3a02001 	mov	r2, #1
    85f4:	e58d2004 	str	r2, [sp, #4]
    85f8:	e3a0000a 	mov	r0, #10
    85fc:	e28d1008 	add	r1, sp, #8
    8600:	e3a02080 	mov	r2, #128	; 0x80
    8604:	ebffff22 	bl	8294 <emit>
    8608:	ea00002f 	b	86cc <va_printk+0x228>
    860c:	e5993000 	ldr	r3, [r9]
    8610:	e2899004 	add	r9, r9, #4
    8614:	e58d7000 	str	r7, [sp]
    8618:	e58db004 	str	fp, [sp, #4]
    861c:	e3a0000a 	mov	r0, #10
    8620:	e28d1008 	add	r1, sp, #8
    8624:	e3a02080 	mov	r2, #128	; 0x80
    8628:	ebffff19 	bl	8294 <emit>
    862c:	ea000026 	b	86cc <va_printk+0x228>
    8630:	e5993000 	ldr	r3, [r9]
    8634:	e2899004 	add	r9, r9, #4
    8638:	e58d7000 	str	r7, [sp]
    863c:	e58db004 	str	fp, [sp, #4]
    8640:	e3a00010 	mov	r0, #16
    8644:	e28d1008 	add	r1, sp, #8
    8648:	e3a02080 	mov	r2, #128	; 0x80
    864c:	ebffff10 	bl	8294 <emit>
    8650:	ea00001d 	b	86cc <va_printk+0x228>
    8654:	e5993000 	ldr	r3, [r9]
    8658:	e2899004 	add	r9, r9, #4
    865c:	e58d7000 	str	r7, [sp]
    8660:	e58db004 	str	fp, [sp, #4]
    8664:	e3a00002 	mov	r0, #2
    8668:	e28d1008 	add	r1, sp, #8
    866c:	e3a02080 	mov	r2, #128	; 0x80
    8670:	ebffff07 	bl	8294 <emit>
    8674:	ea000014 	b	86cc <va_printk+0x228>
    8678:	e5990000 	ldr	r0, [r9]
    867c:	e2899004 	add	r9, r9, #4
    8680:	ea000011 	b	86cc <va_printk+0x228>
    8684:	e5993000 	ldr	r3, [r9]
    8688:	e2899004 	add	r9, r9, #4
    868c:	e58d7000 	str	r7, [sp]
    8690:	e58db004 	str	fp, [sp, #4]
    8694:	e3a00008 	mov	r0, #8
    8698:	e08d1000 	add	r1, sp, r0
    869c:	e3a02080 	mov	r2, #128	; 0x80
    86a0:	ebfffefb 	bl	8294 <emit>
    86a4:	ea000008 	b	86cc <va_printk+0x228>
    86a8:	ebfffec2 	bl	81b8 <rpi_reset_putc>
    86ac:	e5d63000 	ldrb	r3, [r6]
    86b0:	e58d3000 	str	r3, [sp]
    86b4:	e59f0078 	ldr	r0, [pc, #120]	; 8734 <va_printk+0x290>
    86b8:	e59f1068 	ldr	r1, [pc, #104]	; 8728 <va_printk+0x284>
    86bc:	e59f2068 	ldr	r2, [pc, #104]	; 872c <va_printk+0x288>
    86c0:	e3a030b9 	mov	r3, #185	; 0xb9
    86c4:	ebfffea0 	bl	814c <printk>
    86c8:	eb00001a 	bl	8738 <clean_reboot>
    86cc:	e2862001 	add	r2, r6, #1
    86d0:	ea000002 	b	86e0 <va_printk+0x23c>
    86d4:	e2800001 	add	r0, r0, #1
    86d8:	e5c43000 	strb	r3, [r4]
    86dc:	e2844001 	add	r4, r4, #1
    86e0:	e1540008 	cmp	r4, r8
    86e4:	2a000002 	bcs	86f4 <va_printk+0x250>
    86e8:	e5d03000 	ldrb	r3, [r0]
    86ec:	e3530000 	cmp	r3, #0
    86f0:	1afffff7 	bne	86d4 <va_printk+0x230>
    86f4:	e5d23000 	ldrb	r3, [r2]
    86f8:	e3530000 	cmp	r3, #0
    86fc:	0a000001 	beq	8708 <va_printk+0x264>
    8700:	e1540008 	cmp	r4, r8
    8704:	3affff71 	bcc	84d0 <va_printk+0x2c>
    8708:	e2840001 	add	r0, r4, #1
    870c:	e3a03000 	mov	r3, #0
    8710:	e5c43000 	strb	r3, [r4]
    8714:	e06a0000 	rsb	r0, sl, r0
    8718:	e28dd08c 	add	sp, sp, #140	; 0x8c
    871c:	e8bd8ff0 	pop	{r4, r5, r6, r7, r8, r9, sl, fp, pc}
    8720:	000098d8 	ldrdeq	r9, [r0], -r8
    8724:	00009880 	andeq	r9, r0, r0, lsl #17
    8728:	00009894 	muleq	r0, r4, r8
    872c:	00009874 	andeq	r9, r0, r4, ror r8
    8730:	000098e4 	andeq	r9, r0, r4, ror #17
    8734:	0000990c 	andeq	r9, r0, ip, lsl #18

00008738 <clean_reboot>:
    8738:	e92d4008 	push	{r3, lr}
    873c:	e59f3014 	ldr	r3, [pc, #20]	; 8758 <clean_reboot+0x20>
    8740:	e5933000 	ldr	r3, [r3]
    8744:	e59f0010 	ldr	r0, [pc, #16]	; 875c <clean_reboot+0x24>
    8748:	e12fff33 	blx	r3
    874c:	e3a00064 	mov	r0, #100	; 0x64
    8750:	eb000063 	bl	88e4 <delay_ms>
    8754:	eb000038 	bl	883c <rpi_reboot>
    8758:	0000974c 	andeq	r9, r0, ip, asr #14
    875c:	00009944 	andeq	r9, r0, r4, asr #18

00008760 <internal_sw_putchar>:
    8760:	e92d4010 	push	{r4, lr}
    8764:	e1a04000 	mov	r4, r0
    8768:	e59f000c 	ldr	r0, [pc, #12]	; 877c <internal_sw_putchar+0x1c>
    876c:	e6ef1074 	uxtb	r1, r4
    8770:	eb000065 	bl	890c <sw_uart_putc>
    8774:	e1a00004 	mov	r0, r4
    8778:	e8bd8010 	pop	{r4, pc}
    877c:	00009e98 	muleq	r0, r8, lr

00008780 <_cstart>:
    8780:	e92d4008 	push	{r3, lr}
    8784:	e59f3068 	ldr	r3, [pc, #104]	; 87f4 <_cstart+0x74>
    8788:	e59f2068 	ldr	r2, [pc, #104]	; 87f8 <_cstart+0x78>
    878c:	e3a01000 	mov	r1, #0
    8790:	ea000001 	b	879c <_cstart+0x1c>
    8794:	e5831000 	str	r1, [r3]
    8798:	e2833004 	add	r3, r3, #4
    879c:	e1530002 	cmp	r3, r2
    87a0:	3afffffb 	bcc	8794 <_cstart+0x14>
    87a4:	eb0003d2 	bl	96f4 <cb_get_block>
    87a8:	e3500000 	cmp	r0, #0
    87ac:	0a00000e 	beq	87ec <_cstart+0x6c>
    87b0:	e5d02004 	ldrb	r2, [r0, #4]
    87b4:	e3520002 	cmp	r2, #2
    87b8:	1a00000b 	bne	87ec <_cstart+0x6c>
    87bc:	e59f1038 	ldr	r1, [pc, #56]	; 87fc <_cstart+0x7c>
    87c0:	e59f2038 	ldr	r2, [pc, #56]	; 8800 <_cstart+0x80>
    87c4:	e5821000 	str	r1, [r2]
    87c8:	e59fc034 	ldr	ip, [pc, #52]	; 8804 <_cstart+0x84>
    87cc:	e2803008 	add	r3, r0, #8
    87d0:	e8930007 	ldm	r3, {r0, r1, r2}
    87d4:	e88c0007 	stm	ip, {r0, r1, r2}
    87d8:	e1a0000c 	mov	r0, ip
    87dc:	e59f1024 	ldr	r1, [pc, #36]	; 8808 <_cstart+0x88>
    87e0:	eb0001ac 	bl	8e98 <sw_uart_printk>
    87e4:	e59f0020 	ldr	r0, [pc, #32]	; 880c <_cstart+0x8c>
    87e8:	ebfffe57 	bl	814c <printk>
    87ec:	ebfffe07 	bl	8010 <notmain>
    87f0:	eb000011 	bl	883c <rpi_reboot>
    87f4:	00009a98 	muleq	r0, r8, sl
    87f8:	00009ea8 	andeq	r9, r0, r8, lsr #29
    87fc:	00008760 	andeq	r8, r0, r0, ror #14
    8800:	00009748 	andeq	r9, r0, r8, asr #14
    8804:	00009e98 	muleq	r0, r8, lr
    8808:	00009950 	andeq	r9, r0, r0, asr r9
    880c:	00009974 	andeq	r9, r0, r4, ror r9

00008810 <at_user_level>:
    8810:	e10f0000 	mrs	r0, CPSR
    8814:	e200001f 	and	r0, r0, #31
    8818:	e3500010 	cmp	r0, #16
    881c:	13a00000 	movne	r0, #0
    8820:	03a00001 	moveq	r0, #1
    8824:	e12fff1e 	bx	lr

00008828 <set_user_level>:
    8828:	e10f3000 	mrs	r3, CPSR
    882c:	e3c3301f 	bic	r3, r3, #31
    8830:	e3833010 	orr	r3, r3, #16
    8834:	e129f003 	msr	CPSR_fc, r3
    8838:	e12fff1e 	bx	lr

0000883c <rpi_reboot>:
    883c:	e92d4008 	push	{r3, lr}
    8840:	ebfffff2 	bl	8810 <at_user_level>
    8844:	e3500000 	cmp	r0, #0
    8848:	0a000000 	beq	8850 <rpi_reboot+0x14>
    884c:	ebfffff5 	bl	8828 <set_user_level>
    8850:	e3a0001e 	mov	r0, #30
    8854:	eb000022 	bl	88e4 <delay_ms>
    8858:	e59f0014 	ldr	r0, [pc, #20]	; 8874 <rpi_reboot+0x38>
    885c:	e59f1014 	ldr	r1, [pc, #20]	; 8878 <rpi_reboot+0x3c>
    8860:	eb000220 	bl	90e8 <PUT32>
    8864:	e59f0010 	ldr	r0, [pc, #16]	; 887c <rpi_reboot+0x40>
    8868:	e59f1010 	ldr	r1, [pc, #16]	; 8880 <rpi_reboot+0x44>
    886c:	eb00021d 	bl	90e8 <PUT32>
    8870:	eafffffe 	b	8870 <rpi_reboot+0x34>
    8874:	20100024 	andscs	r0, r0, r4, lsr #32
    8878:	5a000001 	bpl	8884 <delay_cycles>
    887c:	2010001c 	andscs	r0, r0, ip, lsl r0
    8880:	5a000020 	bpl	8908 <delay_sec+0x10>

00008884 <delay_cycles>:
    8884:	ea000001 	b	8890 <delay_cycles+0xc>
    8888:	e2811000 	add	r1, r1, #0
    888c:	e1a00003 	mov	r0, r3
    8890:	e2403001 	sub	r3, r0, #1
    8894:	e3500000 	cmp	r0, #0
    8898:	1afffffa 	bne	8888 <delay_cycles+0x4>
    889c:	e12fff1e 	bx	lr

000088a0 <timer_get_usec_raw>:
    88a0:	e92d4008 	push	{r3, lr}
    88a4:	e59f0004 	ldr	r0, [pc, #4]	; 88b0 <timer_get_usec_raw+0x10>
    88a8:	eb00021a 	bl	9118 <GET32>
    88ac:	e8bd8008 	pop	{r3, pc}
    88b0:	20003004 	andcs	r3, r0, r4

000088b4 <timer_get_usec>:
    88b4:	e92d4008 	push	{r3, lr}
    88b8:	ebfffff8 	bl	88a0 <timer_get_usec_raw>
    88bc:	e8bd8008 	pop	{r3, pc}

000088c0 <delay_us>:
    88c0:	e92d4038 	push	{r3, r4, r5, lr}
    88c4:	e1a05000 	mov	r5, r0
    88c8:	ebfffff9 	bl	88b4 <timer_get_usec>
    88cc:	e1a04000 	mov	r4, r0
    88d0:	ebfffff7 	bl	88b4 <timer_get_usec>
    88d4:	e0640000 	rsb	r0, r4, r0
    88d8:	e1500005 	cmp	r0, r5
    88dc:	3afffffb 	bcc	88d0 <delay_us+0x10>
    88e0:	e8bd8038 	pop	{r3, r4, r5, pc}

000088e4 <delay_ms>:
    88e4:	e92d4008 	push	{r3, lr}
    88e8:	e3a03ffa 	mov	r3, #1000	; 0x3e8
    88ec:	e0000093 	mul	r0, r3, r0
    88f0:	ebfffff2 	bl	88c0 <delay_us>
    88f4:	e8bd8008 	pop	{r3, pc}

000088f8 <delay_sec>:
    88f8:	e92d4008 	push	{r3, lr}
    88fc:	e3a03ffa 	mov	r3, #1000	; 0x3e8
    8900:	e0000093 	mul	r0, r3, r0
    8904:	ebfffff6 	bl	88e4 <delay_ms>
    8908:	e8bd8008 	pop	{r3, pc}

0000890c <sw_uart_putc>:
    890c:	e92d41f0 	push	{r4, r5, r6, r7, r8, lr}
    8910:	e1a07001 	mov	r7, r1
    8914:	e5d06000 	ldrb	r6, [r0]
    8918:	e5905008 	ldr	r5, [r0, #8]
    891c:	ee1f4f3c 	mrc	15, 0, r4, cr15, cr12, {1}
    8920:	e1a00006 	mov	r0, r6
    8924:	e3a01000 	mov	r1, #0
    8928:	eb000296 	bl	9388 <gpio_write>
    892c:	ee1f3f3c 	mrc	15, 0, r3, cr15, cr12, {1}
    8930:	e0643003 	rsb	r3, r4, r3
    8934:	e1550003 	cmp	r5, r3
    8938:	8afffffb 	bhi	892c <sw_uart_putc+0x20>
    893c:	e1a08085 	lsl	r8, r5, #1
    8940:	e1a00006 	mov	r0, r6
    8944:	e2071001 	and	r1, r7, #1
    8948:	eb00028e 	bl	9388 <gpio_write>
    894c:	ee1f3f3c 	mrc	15, 0, r3, cr15, cr12, {1}
    8950:	e0643003 	rsb	r3, r4, r3
    8954:	e1580003 	cmp	r8, r3
    8958:	8afffffb 	bhi	894c <sw_uart_putc+0x40>
    895c:	e0888005 	add	r8, r8, r5
    8960:	e1a00006 	mov	r0, r6
    8964:	e2071002 	and	r1, r7, #2
    8968:	eb000286 	bl	9388 <gpio_write>
    896c:	ee1f3f3c 	mrc	15, 0, r3, cr15, cr12, {1}
    8970:	e0643003 	rsb	r3, r4, r3
    8974:	e1580003 	cmp	r8, r3
    8978:	8afffffb 	bhi	896c <sw_uart_putc+0x60>
    897c:	e0888005 	add	r8, r8, r5
    8980:	e1a00006 	mov	r0, r6
    8984:	e2071004 	and	r1, r7, #4
    8988:	eb00027e 	bl	9388 <gpio_write>
    898c:	ee1f3f3c 	mrc	15, 0, r3, cr15, cr12, {1}
    8990:	e0643003 	rsb	r3, r4, r3
    8994:	e1580003 	cmp	r8, r3
    8998:	8afffffb 	bhi	898c <sw_uart_putc+0x80>
    899c:	e0888005 	add	r8, r8, r5
    89a0:	e1a00006 	mov	r0, r6
    89a4:	e2071008 	and	r1, r7, #8
    89a8:	eb000276 	bl	9388 <gpio_write>
    89ac:	ee1f3f3c 	mrc	15, 0, r3, cr15, cr12, {1}
    89b0:	e0643003 	rsb	r3, r4, r3
    89b4:	e1580003 	cmp	r8, r3
    89b8:	8afffffb 	bhi	89ac <sw_uart_putc+0xa0>
    89bc:	e0888005 	add	r8, r8, r5
    89c0:	e1a00006 	mov	r0, r6
    89c4:	e2071010 	and	r1, r7, #16
    89c8:	eb00026e 	bl	9388 <gpio_write>
    89cc:	ee1f3f3c 	mrc	15, 0, r3, cr15, cr12, {1}
    89d0:	e0643003 	rsb	r3, r4, r3
    89d4:	e1580003 	cmp	r8, r3
    89d8:	8afffffb 	bhi	89cc <sw_uart_putc+0xc0>
    89dc:	e0888005 	add	r8, r8, r5
    89e0:	e1a00006 	mov	r0, r6
    89e4:	e2071020 	and	r1, r7, #32
    89e8:	eb000266 	bl	9388 <gpio_write>
    89ec:	ee1f3f3c 	mrc	15, 0, r3, cr15, cr12, {1}
    89f0:	e0643003 	rsb	r3, r4, r3
    89f4:	e1580003 	cmp	r8, r3
    89f8:	8afffffb 	bhi	89ec <sw_uart_putc+0xe0>
    89fc:	e0888005 	add	r8, r8, r5
    8a00:	e1a00006 	mov	r0, r6
    8a04:	e2071040 	and	r1, r7, #64	; 0x40
    8a08:	eb00025e 	bl	9388 <gpio_write>
    8a0c:	ee1f3f3c 	mrc	15, 0, r3, cr15, cr12, {1}
    8a10:	e0643003 	rsb	r3, r4, r3
    8a14:	e1580003 	cmp	r8, r3
    8a18:	8afffffb 	bhi	8a0c <sw_uart_putc+0x100>
    8a1c:	e0888005 	add	r8, r8, r5
    8a20:	e1a00006 	mov	r0, r6
    8a24:	e2071080 	and	r1, r7, #128	; 0x80
    8a28:	eb000256 	bl	9388 <gpio_write>
    8a2c:	ee1f3f3c 	mrc	15, 0, r3, cr15, cr12, {1}
    8a30:	e0643003 	rsb	r3, r4, r3
    8a34:	e1580003 	cmp	r8, r3
    8a38:	8afffffb 	bhi	8a2c <sw_uart_putc+0x120>
    8a3c:	e0885005 	add	r5, r8, r5
    8a40:	e1a00006 	mov	r0, r6
    8a44:	e3a01001 	mov	r1, #1
    8a48:	eb00024e 	bl	9388 <gpio_write>
    8a4c:	ee1f3f3c 	mrc	15, 0, r3, cr15, cr12, {1}
    8a50:	e0643003 	rsb	r3, r4, r3
    8a54:	e1550003 	cmp	r5, r3
    8a58:	8afffffb 	bhi	8a4c <sw_uart_putc+0x140>
    8a5c:	e8bd81f0 	pop	{r4, r5, r6, r7, r8, pc}

00008a60 <sw_uart_getc_timeout>:
    8a60:	e92d43f8 	push	{r3, r4, r5, r6, r7, r8, r9, lr}
    8a64:	e1a09000 	mov	r9, r0
    8a68:	e5d07001 	ldrb	r7, [r0, #1]
    8a6c:	e1a05007 	mov	r5, r7
    8a70:	e1a06001 	mov	r6, r1
    8a74:	ebffff89 	bl	88a0 <timer_get_usec_raw>
    8a78:	e1a04000 	mov	r4, r0
    8a7c:	e1a00005 	mov	r0, r5
    8a80:	eb00022d 	bl	933c <gpio_read>
    8a84:	e3500000 	cmp	r0, #0
    8a88:	0a000005 	beq	8aa4 <sw_uart_getc_timeout+0x44>
    8a8c:	ebffff83 	bl	88a0 <timer_get_usec_raw>
    8a90:	e0640000 	rsb	r0, r4, r0
    8a94:	e1560000 	cmp	r6, r0
    8a98:	2afffff7 	bcs	8a7c <sw_uart_getc_timeout+0x1c>
    8a9c:	e3a03000 	mov	r3, #0
    8aa0:	ea000000 	b	8aa8 <sw_uart_getc_timeout+0x48>
    8aa4:	e3a03001 	mov	r3, #1
    8aa8:	e3530000 	cmp	r3, #0
    8aac:	0a000059 	beq	8c18 <sw_uart_getc_timeout+0x1b8>
    8ab0:	ee1f8f3c 	mrc	15, 0, r8, cr15, cr12, {1}
    8ab4:	e5994008 	ldr	r4, [r9, #8]
    8ab8:	e08420a4 	add	r2, r4, r4, lsr #1
    8abc:	ee1f3f3c 	mrc	15, 0, r3, cr15, cr12, {1}
    8ac0:	e0683003 	rsb	r3, r8, r3
    8ac4:	e1520003 	cmp	r2, r3
    8ac8:	8afffffb 	bhi	8abc <sw_uart_getc_timeout+0x5c>
    8acc:	e0888004 	add	r8, r8, r4
    8ad0:	e1a00007 	mov	r0, r7
    8ad4:	eb000218 	bl	933c <gpio_read>
    8ad8:	e1a09750 	asr	r9, r0, r7
    8adc:	ee1f3f3c 	mrc	15, 0, r3, cr15, cr12, {1}
    8ae0:	e0683003 	rsb	r3, r8, r3
    8ae4:	e1540003 	cmp	r4, r3
    8ae8:	8afffffb 	bhi	8adc <sw_uart_getc_timeout+0x7c>
    8aec:	e0888004 	add	r8, r8, r4
    8af0:	e1a00007 	mov	r0, r7
    8af4:	eb000210 	bl	933c <gpio_read>
    8af8:	e1a00750 	asr	r0, r0, r7
    8afc:	e1899080 	orr	r9, r9, r0, lsl #1
    8b00:	ee1f3f3c 	mrc	15, 0, r3, cr15, cr12, {1}
    8b04:	e0683003 	rsb	r3, r8, r3
    8b08:	e1540003 	cmp	r4, r3
    8b0c:	8afffffb 	bhi	8b00 <sw_uart_getc_timeout+0xa0>
    8b10:	e0888004 	add	r8, r8, r4
    8b14:	e1a00007 	mov	r0, r7
    8b18:	eb000207 	bl	933c <gpio_read>
    8b1c:	e1a00750 	asr	r0, r0, r7
    8b20:	e1899100 	orr	r9, r9, r0, lsl #2
    8b24:	ee1f3f3c 	mrc	15, 0, r3, cr15, cr12, {1}
    8b28:	e0683003 	rsb	r3, r8, r3
    8b2c:	e1540003 	cmp	r4, r3
    8b30:	8afffffb 	bhi	8b24 <sw_uart_getc_timeout+0xc4>
    8b34:	e0888004 	add	r8, r8, r4
    8b38:	e1a00007 	mov	r0, r7
    8b3c:	eb0001fe 	bl	933c <gpio_read>
    8b40:	e1a00750 	asr	r0, r0, r7
    8b44:	e1899180 	orr	r9, r9, r0, lsl #3
    8b48:	ee1f3f3c 	mrc	15, 0, r3, cr15, cr12, {1}
    8b4c:	e0683003 	rsb	r3, r8, r3
    8b50:	e1540003 	cmp	r4, r3
    8b54:	8afffffb 	bhi	8b48 <sw_uart_getc_timeout+0xe8>
    8b58:	e0888004 	add	r8, r8, r4
    8b5c:	e1a00007 	mov	r0, r7
    8b60:	eb0001f5 	bl	933c <gpio_read>
    8b64:	e1a00750 	asr	r0, r0, r7
    8b68:	e1899200 	orr	r9, r9, r0, lsl #4
    8b6c:	ee1f3f3c 	mrc	15, 0, r3, cr15, cr12, {1}
    8b70:	e0683003 	rsb	r3, r8, r3
    8b74:	e1540003 	cmp	r4, r3
    8b78:	8afffffb 	bhi	8b6c <sw_uart_getc_timeout+0x10c>
    8b7c:	e0888004 	add	r8, r8, r4
    8b80:	e1a00007 	mov	r0, r7
    8b84:	eb0001ec 	bl	933c <gpio_read>
    8b88:	e1a00750 	asr	r0, r0, r7
    8b8c:	e1899280 	orr	r9, r9, r0, lsl #5
    8b90:	ee1f3f3c 	mrc	15, 0, r3, cr15, cr12, {1}
    8b94:	e0683003 	rsb	r3, r8, r3
    8b98:	e1540003 	cmp	r4, r3
    8b9c:	8afffffb 	bhi	8b90 <sw_uart_getc_timeout+0x130>
    8ba0:	e0888004 	add	r8, r8, r4
    8ba4:	e1a00007 	mov	r0, r7
    8ba8:	eb0001e3 	bl	933c <gpio_read>
    8bac:	e1a00750 	asr	r0, r0, r7
    8bb0:	e1899300 	orr	r9, r9, r0, lsl #6
    8bb4:	ee1f3f3c 	mrc	15, 0, r3, cr15, cr12, {1}
    8bb8:	e0683003 	rsb	r3, r8, r3
    8bbc:	e1540003 	cmp	r4, r3
    8bc0:	8afffffb 	bhi	8bb4 <sw_uart_getc_timeout+0x154>
    8bc4:	e1a00007 	mov	r0, r7
    8bc8:	eb0001db 	bl	933c <gpio_read>
    8bcc:	e1a00750 	asr	r0, r0, r7
    8bd0:	e1899380 	orr	r9, r9, r0, lsl #7
    8bd4:	ebffff31 	bl	88a0 <timer_get_usec_raw>
    8bd8:	e1a04000 	mov	r4, r0
    8bdc:	e1a00005 	mov	r0, r5
    8be0:	eb0001d5 	bl	933c <gpio_read>
    8be4:	e3500000 	cmp	r0, #0
    8be8:	0a000005 	beq	8c04 <sw_uart_getc_timeout+0x1a4>
    8bec:	ebffff2b 	bl	88a0 <timer_get_usec_raw>
    8bf0:	e0640000 	rsb	r0, r4, r0
    8bf4:	e1560000 	cmp	r6, r0
    8bf8:	2afffff7 	bcs	8bdc <sw_uart_getc_timeout+0x17c>
    8bfc:	e3a03000 	mov	r3, #0
    8c00:	ea000000 	b	8c08 <sw_uart_getc_timeout+0x1a8>
    8c04:	e3a03001 	mov	r3, #1
    8c08:	e3530000 	cmp	r3, #0
    8c0c:	0a000003 	beq	8c20 <sw_uart_getc_timeout+0x1c0>
    8c10:	e1a00009 	mov	r0, r9
    8c14:	e8bd83f8 	pop	{r3, r4, r5, r6, r7, r8, r9, pc}
    8c18:	e3e00000 	mvn	r0, #0
    8c1c:	e8bd83f8 	pop	{r3, r4, r5, r6, r7, r8, r9, pc}
    8c20:	e3e00000 	mvn	r0, #0
    8c24:	e8bd83f8 	pop	{r3, r4, r5, r6, r7, r8, r9, pc}

00008c28 <sw_uart_gets_until>:
    8c28:	e92d47f0 	push	{r4, r5, r6, r7, r8, r9, sl, lr}
    8c2c:	e24dd008 	sub	sp, sp, #8
    8c30:	e1a08000 	mov	r8, r0
    8c34:	e1a06001 	mov	r6, r1
    8c38:	e1a09003 	mov	r9, r3
    8c3c:	e59da028 	ldr	sl, [sp, #40]	; 0x28
    8c40:	e3520000 	cmp	r2, #0
    8c44:	1a000008 	bne	8c6c <sw_uart_gets_until+0x44>
    8c48:	ebfffd5a 	bl	81b8 <rpi_reset_putc>
    8c4c:	e59f3068 	ldr	r3, [pc, #104]	; 8cbc <sw_uart_gets_until+0x94>
    8c50:	e58d3000 	str	r3, [sp]
    8c54:	e59f0064 	ldr	r0, [pc, #100]	; 8cc0 <sw_uart_gets_until+0x98>
    8c58:	e59f1064 	ldr	r1, [pc, #100]	; 8cc4 <sw_uart_gets_until+0x9c>
    8c5c:	e59f2064 	ldr	r2, [pc, #100]	; 8cc8 <sw_uart_gets_until+0xa0>
    8c60:	e3a0306d 	mov	r3, #109	; 0x6d
    8c64:	ebfffd38 	bl	814c <printk>
    8c68:	ebfffeb2 	bl	8738 <clean_reboot>
    8c6c:	e3a04000 	mov	r4, #0
    8c70:	e5c14000 	strb	r4, [r1]
    8c74:	e2427001 	sub	r7, r2, #1
    8c78:	ea000007 	b	8c9c <sw_uart_gets_until+0x74>
    8c7c:	e1a00008 	mov	r0, r8
    8c80:	e1a0100a 	mov	r1, sl
    8c84:	ebffff75 	bl	8a60 <sw_uart_getc_timeout>
    8c88:	e6ef0070 	uxtb	r0, r0
    8c8c:	e1500009 	cmp	r0, r9
    8c90:	0a000004 	beq	8ca8 <sw_uart_gets_until+0x80>
    8c94:	e7c60005 	strb	r0, [r6, r5]
    8c98:	e2844001 	add	r4, r4, #1
    8c9c:	e1a05004 	mov	r5, r4
    8ca0:	e1540007 	cmp	r4, r7
    8ca4:	3afffff4 	bcc	8c7c <sw_uart_gets_until+0x54>
    8ca8:	e3a03000 	mov	r3, #0
    8cac:	e7c63005 	strb	r3, [r6, r5]
    8cb0:	e1a00004 	mov	r0, r4
    8cb4:	e28dd008 	add	sp, sp, #8
    8cb8:	e8bd87f0 	pop	{r4, r5, r6, r7, r8, r9, sl, pc}
    8cbc:	00009a0c 	andeq	r9, r0, ip, lsl #20
    8cc0:	00009880 	andeq	r9, r0, r0, lsl #17
    8cc4:	000099f8 	strdeq	r9, [r0], -r8
    8cc8:	00009980 	andeq	r9, r0, r0, lsl #19

00008ccc <sw_uart_gets_timeout>:
    8ccc:	e92d41f0 	push	{r4, r5, r6, r7, r8, lr}
    8cd0:	e24dd008 	sub	sp, sp, #8
    8cd4:	e1a07000 	mov	r7, r0
    8cd8:	e1a05001 	mov	r5, r1
    8cdc:	e1a08003 	mov	r8, r3
    8ce0:	e3520000 	cmp	r2, #0
    8ce4:	1a000008 	bne	8d0c <sw_uart_gets_timeout+0x40>
    8ce8:	ebfffd32 	bl	81b8 <rpi_reset_putc>
    8cec:	e59f3058 	ldr	r3, [pc, #88]	; 8d4c <sw_uart_gets_timeout+0x80>
    8cf0:	e58d3000 	str	r3, [sp]
    8cf4:	e59f0054 	ldr	r0, [pc, #84]	; 8d50 <sw_uart_gets_timeout+0x84>
    8cf8:	e59f1054 	ldr	r1, [pc, #84]	; 8d54 <sw_uart_gets_timeout+0x88>
    8cfc:	e59f2054 	ldr	r2, [pc, #84]	; 8d58 <sw_uart_gets_timeout+0x8c>
    8d00:	e3a03083 	mov	r3, #131	; 0x83
    8d04:	ebfffd10 	bl	814c <printk>
    8d08:	ebfffe8a 	bl	8738 <clean_reboot>
    8d0c:	e3a04000 	mov	r4, #0
    8d10:	e5c14000 	strb	r4, [r1]
    8d14:	e2426001 	sub	r6, r2, #1
    8d18:	ea000004 	b	8d30 <sw_uart_gets_timeout+0x64>
    8d1c:	e1a00007 	mov	r0, r7
    8d20:	e1a01008 	mov	r1, r8
    8d24:	ebffff4d 	bl	8a60 <sw_uart_getc_timeout>
    8d28:	e7c50004 	strb	r0, [r5, r4]
    8d2c:	e2844001 	add	r4, r4, #1
    8d30:	e1540006 	cmp	r4, r6
    8d34:	3afffff8 	bcc	8d1c <sw_uart_gets_timeout+0x50>
    8d38:	e3a03000 	mov	r3, #0
    8d3c:	e7c53004 	strb	r3, [r5, r4]
    8d40:	e1a00004 	mov	r0, r4
    8d44:	e28dd008 	add	sp, sp, #8
    8d48:	e8bd81f0 	pop	{r4, r5, r6, r7, r8, pc}
    8d4c:	00009a0c 	andeq	r9, r0, ip, lsl #20
    8d50:	00009880 	andeq	r9, r0, r0, lsl #17
    8d54:	000099f8 	strdeq	r9, [r0], -r8
    8d58:	00009994 	muleq	r0, r4, r9

00008d5c <sw_uart_init_helper>:
    8d5c:	e92d41f0 	push	{r4, r5, r6, r7, r8, lr}
    8d60:	e24dd008 	sub	sp, sp, #8
    8d64:	e1a04000 	mov	r4, r0
    8d68:	e1a06001 	mov	r6, r1
    8d6c:	e1a08002 	mov	r8, r2
    8d70:	e1a05003 	mov	r5, r3
    8d74:	e59d7020 	ldr	r7, [sp, #32]
    8d78:	e1a00001 	mov	r0, r1
    8d7c:	eb0000ea 	bl	912c <gpio_set_output>
    8d80:	e1a00008 	mov	r0, r8
    8d84:	eb000139 	bl	9270 <gpio_set_input>
    8d88:	e3a03001 	mov	r3, #1
    8d8c:	ee0f3f1c 	mcr	15, 0, r3, cr15, cr12, {0}
    8d90:	e1a00006 	mov	r0, r6
    8d94:	e3a01001 	mov	r1, #1
    8d98:	eb00017a 	bl	9388 <gpio_write>
    8d9c:	e0020795 	mul	r2, r5, r7
    8da0:	e59f3074 	ldr	r3, [pc, #116]	; 8e1c <sw_uart_init_helper+0xc0>
    8da4:	e0653003 	rsb	r3, r5, r3
    8da8:	e1530002 	cmp	r3, r2
    8dac:	8a000005 	bhi	8dc8 <sw_uart_init_helper+0x6c>
    8db0:	e59f3064 	ldr	r3, [pc, #100]	; 8e1c <sw_uart_init_helper+0xc0>
    8db4:	e0853003 	add	r3, r5, r3
    8db8:	e1530002 	cmp	r3, r2
    8dbc:	2a000003 	bcs	8dd0 <sw_uart_init_helper+0x74>
    8dc0:	e3a03000 	mov	r3, #0
    8dc4:	ea000002 	b	8dd4 <sw_uart_init_helper+0x78>
    8dc8:	e3a03000 	mov	r3, #0
    8dcc:	ea000000 	b	8dd4 <sw_uart_init_helper+0x78>
    8dd0:	e3a03001 	mov	r3, #1
    8dd4:	e3530000 	cmp	r3, #0
    8dd8:	1a000008 	bne	8e00 <sw_uart_init_helper+0xa4>
    8ddc:	ebfffcf5 	bl	81b8 <rpi_reset_putc>
    8de0:	e59f3038 	ldr	r3, [pc, #56]	; 8e20 <sw_uart_init_helper+0xc4>
    8de4:	e58d3000 	str	r3, [sp]
    8de8:	e59f0034 	ldr	r0, [pc, #52]	; 8e24 <sw_uart_init_helper+0xc8>
    8dec:	e59f1034 	ldr	r1, [pc, #52]	; 8e28 <sw_uart_init_helper+0xcc>
    8df0:	e59f2034 	ldr	r2, [pc, #52]	; 8e2c <sw_uart_init_helper+0xd0>
    8df4:	e3a0309d 	mov	r3, #157	; 0x9d
    8df8:	ebfffcd3 	bl	814c <printk>
    8dfc:	ebfffe4d 	bl	8738 <clean_reboot>
    8e00:	e5c46000 	strb	r6, [r4]
    8e04:	e5c48001 	strb	r8, [r4, #1]
    8e08:	e5845004 	str	r5, [r4, #4]
    8e0c:	e5847008 	str	r7, [r4, #8]
    8e10:	e1a00004 	mov	r0, r4
    8e14:	e28dd008 	add	sp, sp, #8
    8e18:	e8bd81f0 	pop	{r4, r5, r6, r7, r8, pc}
    8e1c:	29b92700 	ldmibcs	r9!, {r8, r9, sl, sp}
    8e20:	00009a18 	andeq	r9, r0, r8, lsl sl
    8e24:	00009880 	andeq	r9, r0, r0, lsl #17
    8e28:	000099f8 	strdeq	r9, [r0], -r8
    8e2c:	000099ac 	andeq	r9, r0, ip, lsr #19

00008e30 <sw_uart_getc>:
    8e30:	e92d4008 	push	{r3, lr}
    8e34:	e3e01000 	mvn	r1, #0
    8e38:	ebffff08 	bl	8a60 <sw_uart_getc_timeout>
    8e3c:	e3500000 	cmp	r0, #0
    8e40:	a8bd8008 	popge	{r3, pc}
    8e44:	ebfffcdb 	bl	81b8 <rpi_reset_putc>
    8e48:	e59f0010 	ldr	r0, [pc, #16]	; 8e60 <sw_uart_getc+0x30>
    8e4c:	e59f1010 	ldr	r1, [pc, #16]	; 8e64 <sw_uart_getc+0x34>
    8e50:	e59f2010 	ldr	r2, [pc, #16]	; 8e68 <sw_uart_getc+0x38>
    8e54:	e3a030ac 	mov	r3, #172	; 0xac
    8e58:	ebfffcbb 	bl	814c <printk>
    8e5c:	ebfffe35 	bl	8738 <clean_reboot>
    8e60:	00009a4c 	andeq	r9, r0, ip, asr #20
    8e64:	000099f8 	strdeq	r9, [r0], -r8
    8e68:	000099c0 	andeq	r9, r0, r0, asr #19

00008e6c <sw_uart_putk>:
    8e6c:	e92d4038 	push	{r3, r4, r5, lr}
    8e70:	e1a05000 	mov	r5, r0
    8e74:	e1a04001 	mov	r4, r1
    8e78:	ea000002 	b	8e88 <sw_uart_putk+0x1c>
    8e7c:	e1a00005 	mov	r0, r5
    8e80:	ebfffea1 	bl	890c <sw_uart_putc>
    8e84:	e2844001 	add	r4, r4, #1
    8e88:	e5d41000 	ldrb	r1, [r4]
    8e8c:	e3510000 	cmp	r1, #0
    8e90:	1afffff9 	bne	8e7c <sw_uart_putk+0x10>
    8e94:	e8bd8038 	pop	{r3, r4, r5, pc}

00008e98 <sw_uart_printk>:
    8e98:	e92d000e 	push	{r1, r2, r3}
    8e9c:	e92d4030 	push	{r4, r5, lr}
    8ea0:	e24ddf76 	sub	sp, sp, #472	; 0x1d8
    8ea4:	e1a05000 	mov	r5, r0
    8ea8:	e28d3f7a 	add	r3, sp, #488	; 0x1e8
    8eac:	e58d3008 	str	r3, [sp, #8]
    8eb0:	e28d000c 	add	r0, sp, #12
    8eb4:	e3a01f73 	mov	r1, #460	; 0x1cc
    8eb8:	e59d21e4 	ldr	r2, [sp, #484]	; 0x1e4
    8ebc:	ebfffd78 	bl	84a4 <va_printk>
    8ec0:	e1a04000 	mov	r4, r0
    8ec4:	e59f3048 	ldr	r3, [pc, #72]	; 8f14 <sw_uart_printk+0x7c>
    8ec8:	e1500003 	cmp	r0, r3
    8ecc:	9a000008 	bls	8ef4 <sw_uart_printk+0x5c>
    8ed0:	ebfffcb8 	bl	81b8 <rpi_reset_putc>
    8ed4:	e59f303c 	ldr	r3, [pc, #60]	; 8f18 <sw_uart_printk+0x80>
    8ed8:	e58d3000 	str	r3, [sp]
    8edc:	e59f0038 	ldr	r0, [pc, #56]	; 8f1c <sw_uart_printk+0x84>
    8ee0:	e59f1038 	ldr	r1, [pc, #56]	; 8f20 <sw_uart_printk+0x88>
    8ee4:	e59f2038 	ldr	r2, [pc, #56]	; 8f24 <sw_uart_printk+0x8c>
    8ee8:	e3a030c0 	mov	r3, #192	; 0xc0
    8eec:	ebfffc96 	bl	814c <printk>
    8ef0:	ebfffe10 	bl	8738 <clean_reboot>
    8ef4:	e1a00005 	mov	r0, r5
    8ef8:	e28d100c 	add	r1, sp, #12
    8efc:	ebffffda 	bl	8e6c <sw_uart_putk>
    8f00:	e1a00004 	mov	r0, r4
    8f04:	e28ddf76 	add	sp, sp, #472	; 0x1d8
    8f08:	e8bd4030 	pop	{r4, r5, lr}
    8f0c:	e28dd00c 	add	sp, sp, #12
    8f10:	e12fff1e 	bx	lr
    8f14:	000001ca 	andeq	r0, r0, sl, asr #3
    8f18:	00009a84 	andeq	r9, r0, r4, lsl #21
    8f1c:	00009880 	andeq	r9, r0, r0, lsl #17
    8f20:	000099f8 	strdeq	r9, [r0], -r8
    8f24:	000099d0 	ldrdeq	r9, [r0], -r0

00008f28 <sw_uart_gets_until_blk>:
    8f28:	e52de004 	push	{lr}		; (str lr, [sp, #-4]!)
    8f2c:	e24dd00c 	sub	sp, sp, #12
    8f30:	e3e0c000 	mvn	ip, #0
    8f34:	e58dc000 	str	ip, [sp]
    8f38:	ebffff3a 	bl	8c28 <sw_uart_gets_until>
    8f3c:	e3500000 	cmp	r0, #0
    8f40:	aa000006 	bge	8f60 <sw_uart_gets_until_blk+0x38>
    8f44:	ebfffc9b 	bl	81b8 <rpi_reset_putc>
    8f48:	e59f0018 	ldr	r0, [pc, #24]	; 8f68 <sw_uart_gets_until_blk+0x40>
    8f4c:	e59f1018 	ldr	r1, [pc, #24]	; 8f6c <sw_uart_gets_until_blk+0x44>
    8f50:	e59f2018 	ldr	r2, [pc, #24]	; 8f70 <sw_uart_gets_until_blk+0x48>
    8f54:	e3a030c8 	mov	r3, #200	; 0xc8
    8f58:	ebfffc7b 	bl	814c <printk>
    8f5c:	ebfffdf5 	bl	8738 <clean_reboot>
    8f60:	e28dd00c 	add	sp, sp, #12
    8f64:	e49df004 	pop	{pc}		; (ldr pc, [sp], #4)
    8f68:	00009a4c 	andeq	r9, r0, ip, asr #20
    8f6c:	000099f8 	strdeq	r9, [r0], -r8
    8f70:	000099e0 	andeq	r9, r0, r0, ror #19

00008f74 <uart_init>:
    8f74:	e92d4038 	push	{r3, r4, r5, lr}
    8f78:	eb000052 	bl	90c8 <dev_barrier>
    8f7c:	e3a0000e 	mov	r0, #14
    8f80:	e3a01002 	mov	r1, #2
    8f84:	eb000108 	bl	93ac <gpio_set_function>
    8f88:	e3a0000f 	mov	r0, #15
    8f8c:	e3a01002 	mov	r1, #2
    8f90:	eb000105 	bl	93ac <gpio_set_function>
    8f94:	eb00004b 	bl	90c8 <dev_barrier>
    8f98:	e59f4068 	ldr	r4, [pc, #104]	; 9008 <uart_init+0x94>
    8f9c:	e5945000 	ldr	r5, [r4]
    8fa0:	e1a00005 	mov	r0, r5
    8fa4:	eb000059 	bl	9110 <get32>
    8fa8:	e3801001 	orr	r1, r0, #1
    8fac:	e1a00005 	mov	r0, r5
    8fb0:	eb00004a 	bl	90e0 <put32>
    8fb4:	eb000043 	bl	90c8 <dev_barrier>
    8fb8:	e5940004 	ldr	r0, [r4, #4]
    8fbc:	e3a01000 	mov	r1, #0
    8fc0:	eb000046 	bl	90e0 <put32>
    8fc4:	e5940008 	ldr	r0, [r4, #8]
    8fc8:	e3a01000 	mov	r1, #0
    8fcc:	eb000043 	bl	90e0 <put32>
    8fd0:	e594000c 	ldr	r0, [r4, #12]
    8fd4:	e3a01006 	mov	r1, #6
    8fd8:	eb000040 	bl	90e0 <put32>
    8fdc:	e5940010 	ldr	r0, [r4, #16]
    8fe0:	e3a01003 	mov	r1, #3
    8fe4:	eb00003d 	bl	90e0 <put32>
    8fe8:	e5940014 	ldr	r0, [r4, #20]
    8fec:	e59f1018 	ldr	r1, [pc, #24]	; 900c <uart_init+0x98>
    8ff0:	eb00003a 	bl	90e0 <put32>
    8ff4:	e5940004 	ldr	r0, [r4, #4]
    8ff8:	e3a01003 	mov	r1, #3
    8ffc:	eb000037 	bl	90e0 <put32>
    9000:	eb000030 	bl	90c8 <dev_barrier>
    9004:	e8bd8038 	pop	{r3, r4, r5, pc}
    9008:	00009750 	andeq	r9, r0, r0, asr r7
    900c:	0000010e 	andeq	r0, r0, lr, lsl #2

00009010 <uart_can_getc>:
    9010:	e92d4008 	push	{r3, lr}
    9014:	e59f300c 	ldr	r3, [pc, #12]	; 9028 <uart_can_getc+0x18>
    9018:	e5930018 	ldr	r0, [r3, #24]
    901c:	eb00003b 	bl	9110 <get32>
    9020:	e2000001 	and	r0, r0, #1
    9024:	e8bd8008 	pop	{r3, pc}
    9028:	00009750 	andeq	r9, r0, r0, asr r7

0000902c <uart_getc>:
    902c:	e92d4008 	push	{r3, lr}
    9030:	ebfffff6 	bl	9010 <uart_can_getc>
    9034:	e3500000 	cmp	r0, #0
    9038:	0afffffc 	beq	9030 <uart_getc+0x4>
    903c:	e59f300c 	ldr	r3, [pc, #12]	; 9050 <uart_getc+0x24>
    9040:	e593001c 	ldr	r0, [r3, #28]
    9044:	eb000031 	bl	9110 <get32>
    9048:	e6ef0070 	uxtb	r0, r0
    904c:	e8bd8008 	pop	{r3, pc}
    9050:	00009750 	andeq	r9, r0, r0, asr r7

00009054 <uart_can_putc>:
    9054:	e92d4008 	push	{r3, lr}
    9058:	e59f300c 	ldr	r3, [pc, #12]	; 906c <uart_can_putc+0x18>
    905c:	e5930018 	ldr	r0, [r3, #24]
    9060:	eb00002a 	bl	9110 <get32>
    9064:	e2000020 	and	r0, r0, #32
    9068:	e8bd8008 	pop	{r3, pc}
    906c:	00009750 	andeq	r9, r0, r0, asr r7

00009070 <uart_putc>:
    9070:	e92d4010 	push	{r4, lr}
    9074:	e1a04000 	mov	r4, r0
    9078:	ebfffff5 	bl	9054 <uart_can_putc>
    907c:	e3500000 	cmp	r0, #0
    9080:	0afffffc 	beq	9078 <uart_putc+0x8>
    9084:	e59f300c 	ldr	r3, [pc, #12]	; 9098 <uart_putc+0x28>
    9088:	e593001c 	ldr	r0, [r3, #28]
    908c:	e1a01004 	mov	r1, r4
    9090:	eb000012 	bl	90e0 <put32>
    9094:	e8bd8010 	pop	{r4, pc}
    9098:	00009750 	andeq	r9, r0, r0, asr r7

0000909c <uart_has_data>:
    909c:	e92d4008 	push	{r3, lr}
    90a0:	ebffffda 	bl	9010 <uart_can_getc>
    90a4:	e8bd8008 	pop	{r3, pc}

000090a8 <uart_getc_async>:
    90a8:	e92d4008 	push	{r3, lr}
    90ac:	ebfffffa 	bl	909c <uart_has_data>
    90b0:	e3500000 	cmp	r0, #0
    90b4:	0a000001 	beq	90c0 <uart_getc_async+0x18>
    90b8:	ebffffdb 	bl	902c <uart_getc>
    90bc:	e8bd8008 	pop	{r3, pc}
    90c0:	e3e00000 	mvn	r0, #0
    90c4:	e8bd8008 	pop	{r3, pc}

000090c8 <dev_barrier>:
    90c8:	ea000002 	b	90d8 <dsb>

000090cc <dmb>:
    90cc:	e3a00000 	mov	r0, #0
    90d0:	ee070fba 	mcr	15, 0, r0, cr7, cr10, {5}
    90d4:	e12fff1e 	bx	lr

000090d8 <dsb>:
    90d8:	ee070f9a 	mcr	15, 0, r0, cr7, cr10, {4}
    90dc:	e12fff1e 	bx	lr

000090e0 <put32>:
    90e0:	e5801000 	str	r1, [r0]
    90e4:	e12fff1e 	bx	lr

000090e8 <PUT32>:
    90e8:	e5801000 	str	r1, [r0]
    90ec:	e12fff1e 	bx	lr

000090f0 <put16>:
    90f0:	e1c010b0 	strh	r1, [r0]
    90f4:	e12fff1e 	bx	lr

000090f8 <PUT16>:
    90f8:	e1c010b0 	strh	r1, [r0]
    90fc:	e12fff1e 	bx	lr

00009100 <put8>:
    9100:	e5c01000 	strb	r1, [r0]
    9104:	e12fff1e 	bx	lr

00009108 <PUT8>:
    9108:	e5c01000 	strb	r1, [r0]
    910c:	e12fff1e 	bx	lr

00009110 <get32>:
    9110:	e5900000 	ldr	r0, [r0]
    9114:	e12fff1e 	bx	lr

00009118 <GET32>:
    9118:	e5900000 	ldr	r0, [r0]
    911c:	e12fff1e 	bx	lr

00009120 <GETPC>:
    9120:	e1a0000e 	mov	r0, lr
    9124:	e12fff1e 	bx	lr

00009128 <dummy>:
    9128:	e12fff1e 	bx	lr

0000912c <gpio_set_output>:
    912c:	e92d4038 	push	{r3, r4, r5, lr}
    9130:	e1a04000 	mov	r4, r0
    9134:	e350001f 	cmp	r0, #31
    9138:	88bd8038 	pophi	{r3, r4, r5, pc}
    913c:	e59f30b4 	ldr	r3, [pc, #180]	; 91f8 <gpio_set_output+0xcc>
    9140:	e0832093 	umull	r2, r3, r3, r0
    9144:	e1a031a3 	lsr	r3, r3, #3
    9148:	e3530005 	cmp	r3, #5
    914c:	979ff103 	ldrls	pc, [pc, r3, lsl #2]
    9150:	ea000017 	b	91b4 <gpio_set_output+0x88>
    9154:	0000916c 	andeq	r9, r0, ip, ror #2
    9158:	00009178 	andeq	r9, r0, r8, ror r1
    915c:	00009184 	andeq	r9, r0, r4, lsl #3
    9160:	00009190 	muleq	r0, r0, r1
    9164:	0000919c 	muleq	r0, ip, r1
    9168:	000091a8 	andeq	r9, r0, r8, lsr #3
    916c:	e59f3088 	ldr	r3, [pc, #136]	; 91fc <gpio_set_output+0xd0>
    9170:	e5935000 	ldr	r5, [r3]
    9174:	ea00000f 	b	91b8 <gpio_set_output+0x8c>
    9178:	e59f307c 	ldr	r3, [pc, #124]	; 91fc <gpio_set_output+0xd0>
    917c:	e5935004 	ldr	r5, [r3, #4]
    9180:	ea00000c 	b	91b8 <gpio_set_output+0x8c>
    9184:	e59f3070 	ldr	r3, [pc, #112]	; 91fc <gpio_set_output+0xd0>
    9188:	e5935008 	ldr	r5, [r3, #8]
    918c:	ea000009 	b	91b8 <gpio_set_output+0x8c>
    9190:	e59f3064 	ldr	r3, [pc, #100]	; 91fc <gpio_set_output+0xd0>
    9194:	e593500c 	ldr	r5, [r3, #12]
    9198:	ea000006 	b	91b8 <gpio_set_output+0x8c>
    919c:	e59f3058 	ldr	r3, [pc, #88]	; 91fc <gpio_set_output+0xd0>
    91a0:	e5935010 	ldr	r5, [r3, #16]
    91a4:	ea000003 	b	91b8 <gpio_set_output+0x8c>
    91a8:	e59f304c 	ldr	r3, [pc, #76]	; 91fc <gpio_set_output+0xd0>
    91ac:	e5935014 	ldr	r5, [r3, #20]
    91b0:	ea000000 	b	91b8 <gpio_set_output+0x8c>
    91b4:	e3a05000 	mov	r5, #0
    91b8:	e1a00005 	mov	r0, r5
    91bc:	ebffffd3 	bl	9110 <get32>
    91c0:	e59f1030 	ldr	r1, [pc, #48]	; 91f8 <gpio_set_output+0xcc>
    91c4:	e0813491 	umull	r3, r1, r1, r4
    91c8:	e1a011a1 	lsr	r1, r1, #3
    91cc:	e0811101 	add	r1, r1, r1, lsl #2
    91d0:	e1a01081 	lsl	r1, r1, #1
    91d4:	e0611004 	rsb	r1, r1, r4
    91d8:	e0811081 	add	r1, r1, r1, lsl #1
    91dc:	e3a03007 	mov	r3, #7
    91e0:	e1c03113 	bic	r3, r0, r3, lsl r1
    91e4:	e1a00005 	mov	r0, r5
    91e8:	e3a02001 	mov	r2, #1
    91ec:	e1831112 	orr	r1, r3, r2, lsl r1
    91f0:	ebffffba 	bl	90e0 <put32>
    91f4:	e8bd8038 	pop	{r3, r4, r5, pc}
    91f8:	cccccccd 	stclgt	12, cr12, [ip], {205}	; 0xcd
    91fc:	00009784 	andeq	r9, r0, r4, lsl #15

00009200 <gpio_set_on>:
    9200:	e92d4008 	push	{r3, lr}
    9204:	e350001f 	cmp	r0, #31
    9208:	88bd8008 	pophi	{r3, pc}
    920c:	959f3020 	ldrls	r3, [pc, #32]	; 9234 <gpio_set_on+0x34>
    9210:	95932018 	ldrls	r2, [r3, #24]
    9214:	859f3018 	ldrhi	r3, [pc, #24]	; 9234 <gpio_set_on+0x34>
    9218:	8593201c 	ldrhi	r2, [r3, #28]
    921c:	e200301f 	and	r3, r0, #31
    9220:	e1a00002 	mov	r0, r2
    9224:	e3a01001 	mov	r1, #1
    9228:	e1a01311 	lsl	r1, r1, r3
    922c:	ebffffab 	bl	90e0 <put32>
    9230:	e8bd8008 	pop	{r3, pc}
    9234:	00009784 	andeq	r9, r0, r4, lsl #15

00009238 <gpio_set_off>:
    9238:	e92d4008 	push	{r3, lr}
    923c:	e350001f 	cmp	r0, #31
    9240:	88bd8008 	pophi	{r3, pc}
    9244:	959f3020 	ldrls	r3, [pc, #32]	; 926c <gpio_set_off+0x34>
    9248:	95932020 	ldrls	r2, [r3, #32]
    924c:	859f3018 	ldrhi	r3, [pc, #24]	; 926c <gpio_set_off+0x34>
    9250:	85932024 	ldrhi	r2, [r3, #36]	; 0x24
    9254:	e200301f 	and	r3, r0, #31
    9258:	e1a00002 	mov	r0, r2
    925c:	e3a01001 	mov	r1, #1
    9260:	e1a01311 	lsl	r1, r1, r3
    9264:	ebffff9d 	bl	90e0 <put32>
    9268:	e8bd8008 	pop	{r3, pc}
    926c:	00009784 	andeq	r9, r0, r4, lsl #15

00009270 <gpio_set_input>:
    9270:	e92d4038 	push	{r3, r4, r5, lr}
    9274:	e1a04000 	mov	r4, r0
    9278:	e350001f 	cmp	r0, #31
    927c:	88bd8038 	pophi	{r3, r4, r5, pc}
    9280:	e59f30ac 	ldr	r3, [pc, #172]	; 9334 <gpio_set_input+0xc4>
    9284:	e0832093 	umull	r2, r3, r3, r0
    9288:	e1a031a3 	lsr	r3, r3, #3
    928c:	e3530005 	cmp	r3, #5
    9290:	979ff103 	ldrls	pc, [pc, r3, lsl #2]
    9294:	ea000017 	b	92f8 <gpio_set_input+0x88>
    9298:	000092b0 			; <UNDEFINED> instruction: 0x000092b0
    929c:	000092bc 			; <UNDEFINED> instruction: 0x000092bc
    92a0:	000092c8 	andeq	r9, r0, r8, asr #5
    92a4:	000092d4 	ldrdeq	r9, [r0], -r4
    92a8:	000092e0 	andeq	r9, r0, r0, ror #5
    92ac:	000092ec 	andeq	r9, r0, ip, ror #5
    92b0:	e59f3080 	ldr	r3, [pc, #128]	; 9338 <gpio_set_input+0xc8>
    92b4:	e5935000 	ldr	r5, [r3]
    92b8:	ea00000f 	b	92fc <gpio_set_input+0x8c>
    92bc:	e59f3074 	ldr	r3, [pc, #116]	; 9338 <gpio_set_input+0xc8>
    92c0:	e5935004 	ldr	r5, [r3, #4]
    92c4:	ea00000c 	b	92fc <gpio_set_input+0x8c>
    92c8:	e59f3068 	ldr	r3, [pc, #104]	; 9338 <gpio_set_input+0xc8>
    92cc:	e5935008 	ldr	r5, [r3, #8]
    92d0:	ea000009 	b	92fc <gpio_set_input+0x8c>
    92d4:	e59f305c 	ldr	r3, [pc, #92]	; 9338 <gpio_set_input+0xc8>
    92d8:	e593500c 	ldr	r5, [r3, #12]
    92dc:	ea000006 	b	92fc <gpio_set_input+0x8c>
    92e0:	e59f3050 	ldr	r3, [pc, #80]	; 9338 <gpio_set_input+0xc8>
    92e4:	e5935010 	ldr	r5, [r3, #16]
    92e8:	ea000003 	b	92fc <gpio_set_input+0x8c>
    92ec:	e59f3044 	ldr	r3, [pc, #68]	; 9338 <gpio_set_input+0xc8>
    92f0:	e5935014 	ldr	r5, [r3, #20]
    92f4:	ea000000 	b	92fc <gpio_set_input+0x8c>
    92f8:	e3a05000 	mov	r5, #0
    92fc:	e1a00005 	mov	r0, r5
    9300:	ebffff82 	bl	9110 <get32>
    9304:	e59f1028 	ldr	r1, [pc, #40]	; 9334 <gpio_set_input+0xc4>
    9308:	e0813491 	umull	r3, r1, r1, r4
    930c:	e1a011a1 	lsr	r1, r1, #3
    9310:	e0811101 	add	r1, r1, r1, lsl #2
    9314:	e1a01081 	lsl	r1, r1, #1
    9318:	e0611004 	rsb	r1, r1, r4
    931c:	e0811081 	add	r1, r1, r1, lsl #1
    9320:	e3a03007 	mov	r3, #7
    9324:	e1c01113 	bic	r1, r0, r3, lsl r1
    9328:	e1a00005 	mov	r0, r5
    932c:	ebffff6b 	bl	90e0 <put32>
    9330:	e8bd8038 	pop	{r3, r4, r5, pc}
    9334:	cccccccd 	stclgt	12, cr12, [ip], {205}	; 0xcd
    9338:	00009784 	andeq	r9, r0, r4, lsl #15

0000933c <gpio_read>:
    933c:	e92d4010 	push	{r4, lr}
    9340:	e1a04000 	mov	r4, r0
    9344:	e350001f 	cmp	r0, #31
    9348:	8a00000b 	bhi	937c <gpio_read+0x40>
    934c:	8a000003 	bhi	9360 <gpio_read+0x24>
    9350:	e59f302c 	ldr	r3, [pc, #44]	; 9384 <gpio_read+0x48>
    9354:	e5930028 	ldr	r0, [r3, #40]	; 0x28
    9358:	ebffff6c 	bl	9110 <get32>
    935c:	ea000002 	b	936c <gpio_read+0x30>
    9360:	e59f301c 	ldr	r3, [pc, #28]	; 9384 <gpio_read+0x48>
    9364:	e593002c 	ldr	r0, [r3, #44]	; 0x2c
    9368:	ebffff68 	bl	9110 <get32>
    936c:	e204401f 	and	r4, r4, #31
    9370:	e3a03001 	mov	r3, #1
    9374:	e0000413 	and	r0, r0, r3, lsl r4
    9378:	e8bd8010 	pop	{r4, pc}
    937c:	e3e00000 	mvn	r0, #0
    9380:	e8bd8010 	pop	{r4, pc}
    9384:	00009784 	andeq	r9, r0, r4, lsl #15

00009388 <gpio_write>:
    9388:	e92d4008 	push	{r3, lr}
    938c:	e350001f 	cmp	r0, #31
    9390:	88bd8008 	pophi	{r3, pc}
    9394:	e3510000 	cmp	r1, #0
    9398:	0a000001 	beq	93a4 <gpio_write+0x1c>
    939c:	ebffff97 	bl	9200 <gpio_set_on>
    93a0:	e8bd8008 	pop	{r3, pc}
    93a4:	ebffffa3 	bl	9238 <gpio_set_off>
    93a8:	e8bd8008 	pop	{r3, pc}

000093ac <gpio_set_function>:
    93ac:	e92d4070 	push	{r4, r5, r6, lr}
    93b0:	e1a04000 	mov	r4, r0
    93b4:	e1a05001 	mov	r5, r1
    93b8:	e3510007 	cmp	r1, #7
    93bc:	9350001f 	cmpls	r0, #31
    93c0:	88bd8070 	pophi	{r4, r5, r6, pc}
    93c4:	e59f30b0 	ldr	r3, [pc, #176]	; 947c <gpio_set_function+0xd0>
    93c8:	e0832093 	umull	r2, r3, r3, r0
    93cc:	e1a031a3 	lsr	r3, r3, #3
    93d0:	e3530005 	cmp	r3, #5
    93d4:	979ff103 	ldrls	pc, [pc, r3, lsl #2]
    93d8:	ea000017 	b	943c <gpio_set_function+0x90>
    93dc:	000093f4 	strdeq	r9, [r0], -r4
    93e0:	00009400 	andeq	r9, r0, r0, lsl #8
    93e4:	0000940c 	andeq	r9, r0, ip, lsl #8
    93e8:	00009418 	andeq	r9, r0, r8, lsl r4
    93ec:	00009424 	andeq	r9, r0, r4, lsr #8
    93f0:	00009430 	andeq	r9, r0, r0, lsr r4
    93f4:	e59f3084 	ldr	r3, [pc, #132]	; 9480 <gpio_set_function+0xd4>
    93f8:	e5936000 	ldr	r6, [r3]
    93fc:	ea00000f 	b	9440 <gpio_set_function+0x94>
    9400:	e59f3078 	ldr	r3, [pc, #120]	; 9480 <gpio_set_function+0xd4>
    9404:	e5936004 	ldr	r6, [r3, #4]
    9408:	ea00000c 	b	9440 <gpio_set_function+0x94>
    940c:	e59f306c 	ldr	r3, [pc, #108]	; 9480 <gpio_set_function+0xd4>
    9410:	e5936008 	ldr	r6, [r3, #8]
    9414:	ea000009 	b	9440 <gpio_set_function+0x94>
    9418:	e59f3060 	ldr	r3, [pc, #96]	; 9480 <gpio_set_function+0xd4>
    941c:	e593600c 	ldr	r6, [r3, #12]
    9420:	ea000006 	b	9440 <gpio_set_function+0x94>
    9424:	e59f3054 	ldr	r3, [pc, #84]	; 9480 <gpio_set_function+0xd4>
    9428:	e5936010 	ldr	r6, [r3, #16]
    942c:	ea000003 	b	9440 <gpio_set_function+0x94>
    9430:	e59f3048 	ldr	r3, [pc, #72]	; 9480 <gpio_set_function+0xd4>
    9434:	e5936014 	ldr	r6, [r3, #20]
    9438:	ea000000 	b	9440 <gpio_set_function+0x94>
    943c:	e3a06000 	mov	r6, #0
    9440:	e1a00006 	mov	r0, r6
    9444:	ebffff31 	bl	9110 <get32>
    9448:	e59f302c 	ldr	r3, [pc, #44]	; 947c <gpio_set_function+0xd0>
    944c:	e0832493 	umull	r2, r3, r3, r4
    9450:	e1a031a3 	lsr	r3, r3, #3
    9454:	e0833103 	add	r3, r3, r3, lsl #2
    9458:	e1a03083 	lsl	r3, r3, #1
    945c:	e0633004 	rsb	r3, r3, r4
    9460:	e0833083 	add	r3, r3, r3, lsl #1
    9464:	e3a01007 	mov	r1, #7
    9468:	e1c01311 	bic	r1, r0, r1, lsl r3
    946c:	e1a00006 	mov	r0, r6
    9470:	e1811315 	orr	r1, r1, r5, lsl r3
    9474:	ebffff19 	bl	90e0 <put32>
    9478:	e8bd8070 	pop	{r4, r5, r6, pc}
    947c:	cccccccd 	stclgt	12, cr12, [ip], {205}	; 0xcd
    9480:	00009784 	andeq	r9, r0, r4, lsl #15

00009484 <gpio_toggle>:
    9484:	e92d4008 	push	{r3, lr}
    9488:	e350001f 	cmp	r0, #31
    948c:	88bd8008 	pophi	{r3, pc}
    9490:	959f3020 	ldrls	r3, [pc, #32]	; 94b8 <gpio_toggle+0x34>
    9494:	95932018 	ldrls	r2, [r3, #24]
    9498:	859f3018 	ldrhi	r3, [pc, #24]	; 94b8 <gpio_toggle+0x34>
    949c:	8593201c 	ldrhi	r2, [r3, #28]
    94a0:	e200301f 	and	r3, r0, #31
    94a4:	e1a00002 	mov	r0, r2
    94a8:	e3a01001 	mov	r1, #1
    94ac:	e1a01311 	lsl	r1, r1, r3
    94b0:	ebffff0a 	bl	90e0 <put32>
    94b4:	e8bd8008 	pop	{r3, pc}
    94b8:	00009784 	andeq	r9, r0, r4, lsl #15

000094bc <is_gpio_int>:
    94bc:	e92d4008 	push	{r3, lr}
    94c0:	e59f301c 	ldr	r3, [pc, #28]	; 94e4 <is_gpio_int+0x28>
    94c4:	e5930030 	ldr	r0, [r3, #48]	; 0x30
    94c8:	ebffff10 	bl	9110 <get32>
    94cc:	e3500000 	cmp	r0, #0
    94d0:	0a000001 	beq	94dc <is_gpio_int+0x20>
    94d4:	e3a00001 	mov	r0, #1
    94d8:	e8bd8008 	pop	{r3, pc}
    94dc:	e3a00000 	mov	r0, #0
    94e0:	e8bd8008 	pop	{r3, pc}
    94e4:	00009784 	andeq	r9, r0, r4, lsl #15

000094e8 <gpio_int_rising_edge>:
    94e8:	e92d4038 	push	{r3, r4, r5, lr}
    94ec:	e1a04000 	mov	r4, r0
    94f0:	e350001f 	cmp	r0, #31
    94f4:	88bd8038 	pophi	{r3, r4, r5, pc}
    94f8:	ebfffef2 	bl	90c8 <dev_barrier>
    94fc:	e354001f 	cmp	r4, #31
    9500:	8a000007 	bhi	9524 <gpio_int_rising_edge+0x3c>
    9504:	e59f505c 	ldr	r5, [pc, #92]	; 9568 <gpio_int_rising_edge+0x80>
    9508:	e5950034 	ldr	r0, [r5, #52]	; 0x34
    950c:	ebfffeff 	bl	9110 <get32>
    9510:	e3a01001 	mov	r1, #1
    9514:	e1801411 	orr	r1, r0, r1, lsl r4
    9518:	e5950034 	ldr	r0, [r5, #52]	; 0x34
    951c:	ebfffeef 	bl	90e0 <put32>
    9520:	ea000007 	b	9544 <gpio_int_rising_edge+0x5c>
    9524:	e59f503c 	ldr	r5, [pc, #60]	; 9568 <gpio_int_rising_edge+0x80>
    9528:	e5950038 	ldr	r0, [r5, #56]	; 0x38
    952c:	ebfffef7 	bl	9110 <get32>
    9530:	e204401f 	and	r4, r4, #31
    9534:	e3a01001 	mov	r1, #1
    9538:	e1801411 	orr	r1, r0, r1, lsl r4
    953c:	e5950038 	ldr	r0, [r5, #56]	; 0x38
    9540:	ebfffee6 	bl	90e0 <put32>
    9544:	ebfffedf 	bl	90c8 <dev_barrier>
    9548:	e59f4018 	ldr	r4, [pc, #24]	; 9568 <gpio_int_rising_edge+0x80>
    954c:	e594003c 	ldr	r0, [r4, #60]	; 0x3c
    9550:	ebfffeee 	bl	9110 <get32>
    9554:	e3801802 	orr	r1, r0, #131072	; 0x20000
    9558:	e594003c 	ldr	r0, [r4, #60]	; 0x3c
    955c:	ebfffedf 	bl	90e0 <put32>
    9560:	ebfffed8 	bl	90c8 <dev_barrier>
    9564:	e8bd8038 	pop	{r3, r4, r5, pc}
    9568:	00009784 	andeq	r9, r0, r4, lsl #15

0000956c <gpio_int_falling_edge>:
    956c:	e92d4038 	push	{r3, r4, r5, lr}
    9570:	e1a04000 	mov	r4, r0
    9574:	e350001f 	cmp	r0, #31
    9578:	88bd8038 	pophi	{r3, r4, r5, pc}
    957c:	ebfffed1 	bl	90c8 <dev_barrier>
    9580:	e354001f 	cmp	r4, #31
    9584:	8a000007 	bhi	95a8 <gpio_int_falling_edge+0x3c>
    9588:	e59f505c 	ldr	r5, [pc, #92]	; 95ec <gpio_int_falling_edge+0x80>
    958c:	e5950040 	ldr	r0, [r5, #64]	; 0x40
    9590:	ebfffede 	bl	9110 <get32>
    9594:	e3a01001 	mov	r1, #1
    9598:	e1801411 	orr	r1, r0, r1, lsl r4
    959c:	e5950040 	ldr	r0, [r5, #64]	; 0x40
    95a0:	ebfffece 	bl	90e0 <put32>
    95a4:	ea000007 	b	95c8 <gpio_int_falling_edge+0x5c>
    95a8:	e59f503c 	ldr	r5, [pc, #60]	; 95ec <gpio_int_falling_edge+0x80>
    95ac:	e5950044 	ldr	r0, [r5, #68]	; 0x44
    95b0:	ebfffed6 	bl	9110 <get32>
    95b4:	e204401f 	and	r4, r4, #31
    95b8:	e3a01001 	mov	r1, #1
    95bc:	e1801411 	orr	r1, r0, r1, lsl r4
    95c0:	e5950044 	ldr	r0, [r5, #68]	; 0x44
    95c4:	ebfffec5 	bl	90e0 <put32>
    95c8:	ebfffebe 	bl	90c8 <dev_barrier>
    95cc:	e59f4018 	ldr	r4, [pc, #24]	; 95ec <gpio_int_falling_edge+0x80>
    95d0:	e594003c 	ldr	r0, [r4, #60]	; 0x3c
    95d4:	ebfffecd 	bl	9110 <get32>
    95d8:	e3801601 	orr	r1, r0, #1048576	; 0x100000
    95dc:	e594003c 	ldr	r0, [r4, #60]	; 0x3c
    95e0:	ebfffebe 	bl	90e0 <put32>
    95e4:	ebfffeb7 	bl	90c8 <dev_barrier>
    95e8:	e8bd8038 	pop	{r3, r4, r5, pc}
    95ec:	00009784 	andeq	r9, r0, r4, lsl #15

000095f0 <gpio_event_detected>:
    95f0:	e92d4010 	push	{r4, lr}
    95f4:	e1a04000 	mov	r4, r0
    95f8:	e350001f 	cmp	r0, #31
    95fc:	8a000019 	bhi	9668 <gpio_event_detected+0x78>
    9600:	ebfffeb0 	bl	90c8 <dev_barrier>
    9604:	e354001f 	cmp	r4, #31
    9608:	8a000008 	bhi	9630 <gpio_event_detected+0x40>
    960c:	e59f305c 	ldr	r3, [pc, #92]	; 9670 <gpio_event_detected+0x80>
    9610:	e5930048 	ldr	r0, [r3, #72]	; 0x48
    9614:	ebfffebd 	bl	9110 <get32>
    9618:	e3a03001 	mov	r3, #1
    961c:	e0103413 	ands	r3, r0, r3, lsl r4
    9620:	0a00000d 	beq	965c <gpio_event_detected+0x6c>
    9624:	ebfffea7 	bl	90c8 <dev_barrier>
    9628:	e3a00001 	mov	r0, #1
    962c:	e8bd8010 	pop	{r4, pc}
    9630:	e59f3038 	ldr	r3, [pc, #56]	; 9670 <gpio_event_detected+0x80>
    9634:	e593004c 	ldr	r0, [r3, #76]	; 0x4c
    9638:	ebfffeb4 	bl	9110 <get32>
    963c:	e3a03001 	mov	r3, #1
    9640:	e0004413 	and	r4, r0, r3, lsl r4
    9644:	ebfffe9f 	bl	90c8 <dev_barrier>
    9648:	e3540000 	cmp	r4, #0
    964c:	0a000002 	beq	965c <gpio_event_detected+0x6c>
    9650:	ebfffe9c 	bl	90c8 <dev_barrier>
    9654:	e3a00001 	mov	r0, #1
    9658:	e8bd8010 	pop	{r4, pc}
    965c:	ebfffe99 	bl	90c8 <dev_barrier>
    9660:	e3a00000 	mov	r0, #0
    9664:	e8bd8010 	pop	{r4, pc}
    9668:	e3e00000 	mvn	r0, #0
    966c:	e8bd8010 	pop	{r4, pc}
    9670:	00009784 	andeq	r9, r0, r4, lsl #15

00009674 <gpio_event_clear>:
    9674:	e92d4010 	push	{r4, lr}
    9678:	e1a04000 	mov	r4, r0
    967c:	e350001f 	cmp	r0, #31
    9680:	88bd8010 	pophi	{r4, pc}
    9684:	ebfffe8f 	bl	90c8 <dev_barrier>
    9688:	e354001f 	cmp	r4, #31
    968c:	8a000005 	bhi	96a8 <gpio_event_clear+0x34>
    9690:	e59f3030 	ldr	r3, [pc, #48]	; 96c8 <gpio_event_clear+0x54>
    9694:	e5930048 	ldr	r0, [r3, #72]	; 0x48
    9698:	e3a01001 	mov	r1, #1
    969c:	e1a01411 	lsl	r1, r1, r4
    96a0:	ebfffe8e 	bl	90e0 <put32>
    96a4:	ea000005 	b	96c0 <gpio_event_clear+0x4c>
    96a8:	e204401f 	and	r4, r4, #31
    96ac:	e59f3014 	ldr	r3, [pc, #20]	; 96c8 <gpio_event_clear+0x54>
    96b0:	e593004c 	ldr	r0, [r3, #76]	; 0x4c
    96b4:	e3a01001 	mov	r1, #1
    96b8:	e1a01411 	lsl	r1, r1, r4
    96bc:	ebfffe87 	bl	90e0 <put32>
    96c0:	ebfffe80 	bl	90c8 <dev_barrier>
    96c4:	e8bd8010 	pop	{r4, pc}
    96c8:	00009784 	andeq	r9, r0, r4, lsl #15

000096cc <cb_new>:
    96cc:	e92d4008 	push	{r3, lr}
    96d0:	e3a00409 	mov	r0, #150994944	; 0x9000000
    96d4:	e3a01000 	mov	r1, #0
    96d8:	e3a02004 	mov	r2, #4
    96dc:	eb00000e 	bl	971c <memset>
    96e0:	e3a00409 	mov	r0, #150994944	; 0x9000000
    96e4:	e59f3004 	ldr	r3, [pc, #4]	; 96f0 <cb_new+0x24>
    96e8:	e5803000 	str	r3, [r0]
    96ec:	e8bd8008 	pop	{r3, pc}
    96f0:	12345678 	eorsne	r5, r4, #120, 12	; 0x7800000

000096f4 <cb_get_block>:
    96f4:	e3a03409 	mov	r3, #150994944	; 0x9000000
    96f8:	e5932000 	ldr	r2, [r3]
    96fc:	e59f3014 	ldr	r3, [pc, #20]	; 9718 <cb_get_block+0x24>
    9700:	e1520003 	cmp	r2, r3
    9704:	0a000001 	beq	9710 <cb_get_block+0x1c>
    9708:	e3a00000 	mov	r0, #0
    970c:	e12fff1e 	bx	lr
    9710:	e3a00409 	mov	r0, #150994944	; 0x9000000
    9714:	e12fff1e 	bx	lr
    9718:	12345678 	eorsne	r5, r4, #120, 12	; 0x7800000

0000971c <memset>:
    971c:	e0802002 	add	r2, r0, r2
    9720:	e1a03000 	mov	r3, r0
    9724:	ea000001 	b	9730 <memset+0x14>
    9728:	e5c31000 	strb	r1, [r3]
    972c:	e2833001 	add	r3, r3, #1
    9730:	e1530002 	cmp	r3, r2
    9734:	3afffffb 	bcc	9728 <memset+0xc>
    9738:	e12fff1e 	bx	lr

Disassembly of section .data:

0000973c <GPPUD>:
    973c:	20200094 	mlacs	r0, r4, r0, r0

00009740 <GPPUDCLK0>:
    9740:	20200098 	mlacs	r0, r8, r0, r0

00009744 <GPPUDCLK1>:
    9744:	2020009c 	mlacs	r0, ip, r0, r0

00009748 <rpi_putchar>:
    9748:	000081a4 	andeq	r8, r0, r4, lsr #3

0000974c <putk>:
    974c:	000081e0 	andeq	r8, r0, r0, ror #3

00009750 <AUX_ENABLES>:
    9750:	20215004 	eorcs	r5, r1, r4

00009754 <AUX_MU_CNTL_REG>:
    9754:	20215060 	eorcs	r5, r1, r0, rrx

00009758 <AUX_MU_IER_REG>:
    9758:	20215044 	eorcs	r5, r1, r4, asr #32

0000975c <AUX_MU_IIR_REG>:
    975c:	20215048 	eorcs	r5, r1, r8, asr #32

00009760 <AUX_MU_LCR_REG>:
    9760:	2021504c 	eorcs	r5, r1, ip, asr #32

00009764 <AUX_MU_BAUD_REG>:
    9764:	20215068 	eorcs	r5, r1, r8, rrx

00009768 <AUX_MU_LSR_REG>:
    9768:	20215054 	eorcs	r5, r1, r4, asr r0

0000976c <AUX_MU_IO_REG>:
    976c:	20215040 	eorcs	r5, r1, r0, asr #32

00009770 <AUX_MU_STAT_REG>:
    9770:	20215064 	eorcs	r5, r1, r4, rrx

00009774 <AUX_MU_SCRATCH>:
    9774:	2021505c 	eorcs	r5, r1, ip, asr r0

00009778 <AUX_MU_MSR_REG>:
    9778:	20215058 	eorcs	r5, r1, r8, asr r0

0000977c <AUX_MU_MCR_REG>:
    977c:	20215050 	eorcs	r5, r1, r0, asr r0

00009780 <AUX_IRQ>:
    9780:	20215000 	eorcs	r5, r1, r0

00009784 <GPFSEL0>:
    9784:	20200000 	eorcs	r0, r0, r0

00009788 <GPFSEL1>:
    9788:	20200004 	eorcs	r0, r0, r4

0000978c <GPFSEL2>:
    978c:	20200008 	eorcs	r0, r0, r8

00009790 <GPFSEL3>:
    9790:	2020000c 	eorcs	r0, r0, ip

00009794 <GPFSEL4>:
    9794:	20200010 	eorcs	r0, r0, r0, lsl r0

00009798 <GPFSEL5>:
    9798:	20200014 	eorcs	r0, r0, r4, lsl r0

0000979c <GPSET0>:
    979c:	2020001c 	eorcs	r0, r0, ip, lsl r0

000097a0 <GPSET1>:
    97a0:	20200020 	eorcs	r0, r0, r0, lsr #32

000097a4 <GPCLR0>:
    97a4:	20200028 	eorcs	r0, r0, r8, lsr #32

000097a8 <GPCLR1>:
    97a8:	2020002c 	eorcs	r0, r0, ip, lsr #32

000097ac <GPLEV0>:
    97ac:	20200034 	eorcs	r0, r0, r4, lsr r0

000097b0 <GPLEV1>:
    97b0:	20200038 	eorcs	r0, r0, r8, lsr r0

000097b4 <IRQ_PENDING_2>:
    97b4:	2000b208 	andcs	fp, r0, r8, lsl #4

000097b8 <GPREN0>:
    97b8:	2020004c 	eorcs	r0, r0, ip, asr #32

000097bc <GPREN1>:
    97bc:	20200050 	eorcs	r0, r0, r0, asr r0

000097c0 <ENABLE_IRQS_2>:
    97c0:	2000b214 	andcs	fp, r0, r4, lsl r2

000097c4 <GPFEN0>:
    97c4:	20200058 	eorcs	r0, r0, r8, asr r0

000097c8 <GPFEN1>:
    97c8:	2020005c 	eorcs	r0, r0, ip, asr r0

000097cc <GPEDS0>:
    97cc:	20200040 	eorcs	r0, r0, r0, asr #32

000097d0 <GPEDS1>:
    97d0:	20200044 	eorcs	r0, r0, r4, asr #32

000097d4 <IRQ_PENDING_1>:
    97d4:	2000b204 	andcs	fp, r0, r4, lsl #4

000097d8 <gpio_clr0>:
    97d8:	20200028 	eorcs	r0, r0, r8, lsr #32

000097dc <gpio_set0>:
    97dc:	2020001c 	eorcs	r0, r0, ip, lsl r0

000097e0 <gpio_fsel0>:
    97e0:	20200000 	eorcs	r0, r0, r0

Disassembly of section .rodata:

000097e4 <__FUNCTION__.4244-0x1c>:
    97e4:	206e6970 	rsbcs	r6, lr, r0, ror r9
    97e8:	61206425 	teqvs	r0, r5, lsr #8
    97ec:	2520646e 	strcs	r6, [r0, #-1134]!	; 0x46e
    97f0:	72612064 	rsbvc	r2, r1, #100	; 0x64
    97f4:	65722065 	ldrbvs	r2, [r2, #-101]!	; 0x65
    97f8:	0a746573 	beq	1d22dcc <__bss_end__+0x1d18f24>
    97fc:	00000000 	andeq	r0, r0, r0

00009800 <__FUNCTION__.4244>:
    9800:	6f697067 	svcvs	0x00697067
    9804:	7465735f 	strbtvc	r7, [r5], #-863	; 0x35f
    9808:	6c75705f 	ldclvs	0, cr7, [r5], #-380	; 0xfffffe84
    980c:	776f646c 	strbvc	r6, [pc, -ip, ror #8]!
    9810:	0000006e 	andeq	r0, r0, lr, rrx

00009814 <__FUNCTION__.4248>:
    9814:	6f697067 	svcvs	0x00697067
    9818:	6475705f 	ldrbtvs	r7, [r5], #-95	; 0x5f
    981c:	66666f5f 	uqsaxvs	r6, r6, pc	; <UNPREDICTABLE>
    9820:	00000000 	andeq	r0, r0, r0
    9824:	494e4150 	stmdbmi	lr, {r4, r6, r8, lr}^
    9828:	73253a43 	teqvc	r5, #274432	; 0x43000
    982c:	3a73253a 	bcc	1cd2d1c <__bss_end__+0x1cc8e74>
    9830:	693a6425 	ldmdbvs	sl!, {r0, r2, r5, sl, sp, lr}
    9834:	656c706d 	strbvs	r7, [ip, #-109]!	; 0x6d
    9838:	746e656d 	strbtvc	r6, [lr], #-1389	; 0x56d
    983c:	69687420 	stmdbvs	r8!, {r5, sl, ip, sp, lr}^
    9840:	75662073 	strbvc	r2, [r6, #-115]!	; 0x73
    9844:	6974636e 	ldmdbvs	r4!, {r1, r2, r3, r5, r6, r8, r9, sp, lr}^
    9848:	0a216e6f 	beq	86520c <__bss_end__+0x85b364>
    984c:	0000000a 	andeq	r0, r0, sl
    9850:	6f697067 	svcvs	0x00697067
    9854:	6475702d 	ldrbtvs	r7, [r5], #-45	; 0x2d
    9858:	0000632e 	andeq	r6, r0, lr, lsr #6

0000985c <__FUNCTION__.4265>:
    985c:	74696d65 	strbtvc	r6, [r9], #-3429	; 0xd65
    9860:	00000000 	andeq	r0, r0, r0

00009864 <__FUNCTION__.4213>:
    9864:	5f697072 	svcpl	0x00697072
    9868:	5f746573 	svcpl	0x00746573
    986c:	7074756f 	rsbsvc	r7, r4, pc, ror #10
    9870:	00007475 	andeq	r7, r0, r5, ror r4

00009874 <__FUNCTION__.4287>:
    9874:	705f6176 	subsvc	r6, pc, r6, ror r1	; <UNPREDICTABLE>
    9878:	746e6972 	strbtvc	r6, [lr], #-2418	; 0x972
    987c:	0000006b 	andeq	r0, r0, fp, rrx
    9880:	494e4150 	stmdbmi	lr, {r4, r6, r8, lr}^
    9884:	73253a43 	teqvc	r5, #274432	; 0x43000
    9888:	3a73253a 	bcc	1cd2d78 <__bss_end__+0x1cc8ed0>
    988c:	253a6425 	ldrcs	r6, [sl, #-1061]!	; 0x425
    9890:	00000a73 	andeq	r0, r0, r3, ror sl
    9894:	6362696c 	cmnvs	r2, #108, 18	; 0x1b0000
    9898:	2d61762f 	stclcs	6, cr7, [r1, #-188]!	; 0xffffff44
    989c:	6e697270 	mcrvs	2, 3, r7, cr9, cr0, {3}
    98a0:	632e6b74 	teqvs	lr, #116, 22	; 0x1d000
    98a4:	00000000 	andeq	r0, r0, r0
    98a8:	00000030 	andeq	r0, r0, r0, lsr r0
    98ac:	33323130 	teqcc	r2, #48, 2
    98b0:	37363534 			; <UNDEFINED> instruction: 0x37363534
    98b4:	00003938 	andeq	r3, r0, r8, lsr r9
    98b8:	33323130 	teqcc	r2, #48, 2
    98bc:	37363534 			; <UNDEFINED> instruction: 0x37363534
    98c0:	62613938 	rsbvs	r3, r1, #56, 18	; 0xe0000
    98c4:	66656463 	strbtvs	r6, [r5], -r3, ror #8
    98c8:	00000000 	andeq	r0, r0, r0
    98cc:	00003130 	andeq	r3, r0, r0, lsr r1
    98d0:	63747570 	cmnvs	r4, #112, 10	; 0x1c000000
    98d4:	0070665f 	rsbseq	r6, r0, pc, asr r6
    98d8:	74646977 	strbtvc	r6, [r4], #-2423	; 0x977
    98dc:	203c2068 	eorscs	r2, ip, r8, rrx
    98e0:	00003233 	andeq	r3, r0, r3, lsr r2
    98e4:	494e4150 	stmdbmi	lr, {r4, r6, r8, lr}^
    98e8:	73253a43 	teqvc	r5, #274432	; 0x43000
    98ec:	3a73253a 	bcc	1cd2ddc <__bss_end__+0x1cc8f34>
    98f0:	663a6425 	ldrtvs	r6, [sl], -r5, lsr #8
    98f4:	74616f6c 	strbtvc	r6, [r1], #-3948	; 0xf6c
    98f8:	746f6e20 	strbtvc	r6, [pc], #-3616	; 9900 <__FUNCTION__.4287+0x8c>
    98fc:	616e6520 	cmnvs	lr, r0, lsr #10
    9900:	64656c62 	strbtvs	r6, [r5], #-3170	; 0xc62
    9904:	0a212121 	beq	851d90 <__bss_end__+0x847ee8>
    9908:	00000000 	andeq	r0, r0, r0
    990c:	494e4150 	stmdbmi	lr, {r4, r6, r8, lr}^
    9910:	73253a43 	teqvc	r5, #274432	; 0x43000
    9914:	3a73253a 	bcc	1cd2e04 <__bss_end__+0x1cc8f5c>
    9918:	703a6425 	eorsvc	r6, sl, r5, lsr #8
    991c:	746e6972 	strbtvc	r6, [lr], #-2418	; 0x972
    9920:	6e203a6b 	vnmulvs.f32	s6, s0, s23
    9924:	6820746f 	stmdavs	r0!, {r0, r1, r2, r3, r5, r6, sl, ip, sp, lr}
    9928:	6c646e61 	stclvs	14, cr6, [r4], #-388	; 0xfffffe7c
    992c:	20676e69 	rsbcs	r6, r7, r9, ror #28
    9930:	63657073 	cmnvs	r5, #115	; 0x73
    9934:	65696669 	strbvs	r6, [r9, #-1641]!	; 0x669
    9938:	25272072 	strcs	r2, [r7, #-114]!	; 0x72
    993c:	0a0a2763 	beq	2936d0 <__bss_end__+0x289828>
    9940:	00000000 	andeq	r0, r0, r0
    9944:	454e4f44 	strbmi	r4, [lr, #-3908]	; 0xf44
    9948:	0a212121 	beq	851dd4 <__bss_end__+0x847f2c>
    994c:	00000000 	andeq	r0, r0, r0
    9950:	756f6261 	strbvc	r6, [pc, #-609]!	; 96f7 <cb_get_block+0x3>
    9954:	6f742074 	svcvs	0x00742074
    9958:	69727020 	ldmdbvs	r2!, {r5, ip, sp, lr}^
    995c:	6f20746e 	svcvs	0x0020746e
    9960:	6572206e 	ldrbvs	r2, [r2, #-110]!	; 0x6e
    9964:	616c7567 	cmnvs	ip, r7, ror #10
    9968:	72702072 	rsbsvc	r2, r0, #114	; 0x72
    996c:	66746e69 	ldrbtvs	r6, [r4], -r9, ror #28
    9970:	0000000a 	andeq	r0, r0, sl
    9974:	63637573 	cmnvs	r3, #482344960	; 0x1cc00000
    9978:	21737365 	cmncs	r3, r5, ror #6
    997c:	0000000a 	andeq	r0, r0, sl

00009980 <__FUNCTION__.4314>:
    9980:	755f7773 	ldrbvc	r7, [pc, #-1907]	; 9215 <gpio_set_on+0x15>
    9984:	5f747261 	svcpl	0x00747261
    9988:	73746567 	cmnvc	r4, #432013312	; 0x19c00000
    998c:	746e755f 	strbtvc	r7, [lr], #-1375	; 0x55f
    9990:	00006c69 	andeq	r6, r0, r9, ror #24

00009994 <__FUNCTION__.4326>:
    9994:	755f7773 	ldrbvc	r7, [pc, #-1907]	; 9229 <gpio_set_on+0x29>
    9998:	5f747261 	svcpl	0x00747261
    999c:	73746567 	cmnvc	r4, #432013312	; 0x19c00000
    99a0:	6d69745f 	cfstrdvs	mvd7, [r9, #-380]!	; 0xfffffe84
    99a4:	74756f65 	ldrbtvc	r6, [r5], #-3941	; 0xf65
    99a8:	00000000 	andeq	r0, r0, r0

000099ac <__FUNCTION__.4340>:
    99ac:	755f7773 	ldrbvc	r7, [pc, #-1907]	; 9241 <gpio_set_off+0x9>
    99b0:	5f747261 	svcpl	0x00747261
    99b4:	74696e69 	strbtvc	r6, [r9], #-3689	; 0xe69
    99b8:	6c65685f 	stclvs	8, cr6, [r5], #-380	; 0xfffffe84
    99bc:	00726570 	rsbseq	r6, r2, r0, ror r5

000099c0 <__FUNCTION__.4346>:
    99c0:	755f7773 	ldrbvc	r7, [pc, #-1907]	; 9255 <gpio_set_off+0x1d>
    99c4:	5f747261 	svcpl	0x00747261
    99c8:	63746567 	cmnvs	r4, #432013312	; 0x19c00000
    99cc:	00000000 	andeq	r0, r0, r0

000099d0 <__FUNCTION__.4368>:
    99d0:	755f7773 	ldrbvc	r7, [pc, #-1907]	; 9265 <gpio_set_off+0x2d>
    99d4:	5f747261 	svcpl	0x00747261
    99d8:	6e697270 	mcrvs	2, 3, r7, cr9, cr0, {3}
    99dc:	00006b74 	andeq	r6, r0, r4, ror fp

000099e0 <__FUNCTION__.4376>:
    99e0:	755f7773 	ldrbvc	r7, [pc, #-1907]	; 9275 <gpio_set_input+0x5>
    99e4:	5f747261 	svcpl	0x00747261
    99e8:	73746567 	cmnvc	r4, #432013312	; 0x19c00000
    99ec:	746e755f 	strbtvc	r7, [lr], #-1375	; 0x55f
    99f0:	625f6c69 	subsvs	r6, pc, #26880	; 0x6900
    99f4:	00006b6c 	andeq	r6, r0, ip, ror #22
    99f8:	732d796d 	teqvc	sp, #1785856	; 0x1b4000
    99fc:	732f6372 	teqvc	pc, #-939524095	; 0xc8000001
    9a00:	61752d77 	cmnvs	r5, r7, ror sp
    9a04:	632e7472 	teqvs	lr, #1912602624	; 0x72000000
    9a08:	00000000 	andeq	r0, r0, r0
    9a0c:	7479626e 	ldrbtvc	r6, [r9], #-622	; 0x26e
    9a10:	303e7365 	eorscc	r7, lr, r5, ror #6
    9a14:	00000000 	andeq	r0, r0, r0
    9a18:	7a686d28 	bvc	1a24ec0 <__bss_end__+0x1a1b018>
    9a1c:	62202d20 	eorvs	r2, r0, #32, 26	; 0x800
    9a20:	29647561 	stmdbcs	r4!, {r0, r5, r6, r8, sl, ip, sp, lr}^
    9a24:	203d3c20 	eorscs	r3, sp, r0, lsr #24
    9a28:	69726564 	ldmdbvs	r2!, {r2, r5, r6, r8, sl, sp, lr}^
    9a2c:	20646576 	rsbcs	r6, r4, r6, ror r5
    9a30:	64202626 	strtvs	r2, [r0], #-1574	; 0x626
    9a34:	76697265 	strbtvc	r7, [r9], -r5, ror #4
    9a38:	3c206465 	cfstrscc	mvf6, [r0], #-404	; 0xfffffe6c
    9a3c:	6d28203d 	stcvs	0, cr2, [r8, #-244]!	; 0xffffff0c
    9a40:	2b207a68 	blcs	8283e8 <__bss_end__+0x81e540>
    9a44:	75616220 	strbvc	r6, [r1, #-544]!	; 0x220
    9a48:	00002964 	andeq	r2, r0, r4, ror #18
    9a4c:	494e4150 	stmdbmi	lr, {r4, r6, r8, lr}^
    9a50:	73253a43 	teqvc	r5, #274432	; 0x43000
    9a54:	3a73253a 	bcc	1cd2f44 <__bss_end__+0x1cc909c>
    9a58:	693a6425 	ldmdbvs	sl!, {r0, r2, r5, sl, sp, lr}
    9a5c:	736f706d 	cmnvc	pc, #109	; 0x6d
    9a60:	6c626973 	stclvs	9, cr6, [r2], #-460	; 0xfffffe34
    9a64:	68203a65 	stmdavs	r0!, {r0, r2, r5, r6, r9, fp, ip, sp}
    9a68:	20657661 	rsbcs	r7, r5, r1, ror #12
    9a6c:	69206e61 	stmdbvs	r0!, {r0, r5, r6, r9, sl, fp, sp, lr}
    9a70:	6e69666e 	cdpvs	6, 6, cr6, cr9, cr14, {3}
    9a74:	20657469 	rsbcs	r7, r5, r9, ror #8
    9a78:	656d6974 	strbvs	r6, [sp, #-2420]!	; 0x974
    9a7c:	2174756f 	cmncs	r4, pc, ror #10
    9a80:	00000a0a 	andeq	r0, r0, sl, lsl #20
    9a84:	3c207a73 	stccc	10, cr7, [r0], #-460	; 0xfffffe34
    9a88:	7a697320 	bvc	1a66710 <__bss_end__+0x1a5c868>
    9a8c:	20666f65 	rsbcs	r6, r6, r5, ror #30
    9a90:	2d667562 	cfstr64cs	mvdx7, [r6, #-392]!	; 0xfffffe78
    9a94:	00000031 	andeq	r0, r0, r1, lsr r0

Disassembly of section .bss:

00009a98 <__bss_start__>:
	...

00009e98 <console_uart>:
	...

Disassembly of section .ARM.attributes:

00000000 <.ARM.attributes>:
   0:	00002a41 	andeq	r2, r0, r1, asr #20
   4:	61656100 	cmnvs	r5, r0, lsl #2
   8:	01006962 	tsteq	r0, r2, ror #18
   c:	00000020 	andeq	r0, r0, r0, lsr #32
  10:	4b5a3605 	blmi	168d82c <__bss_end__+0x1683984>
  14:	08070600 	stmdaeq	r7, {r9, sl}
  18:	12010901 	andne	r0, r1, #16384	; 0x4000
  1c:	15011404 	strne	r1, [r1, #-1028]	; 0x404
  20:	18031701 	stmdane	r3, {r0, r8, r9, sl, ip}
  24:	22011a01 	andcs	r1, r1, #4096	; 0x1000
  28:	Address 0x0000000000000028 is out of bounds.


Disassembly of section .comment:

00000000 <.comment>:
   0:	3a434347 	bcc	10d0d24 <__bss_end__+0x10c6e7c>
   4:	4e472820 	cdpmi	8, 4, cr2, cr7, cr0, {1}
   8:	34202955 	strtcc	r2, [r0], #-2389	; 0x955
   c:	332e382e 	teqcc	lr, #3014656	; 0x2e0000
	...

Disassembly of section .debug_info:

00000000 <.debug_info>:
       0:	0000014d 	andeq	r0, r0, sp, asr #2
       4:	00000004 	andeq	r0, r0, r4
       8:	01040000 	mrseq	r0, (UNDEF: 4)
       c:	000000df 	ldrdeq	r0, [r0], -pc	; <UNPREDICTABLE>
      10:	00000e01 	andeq	r0, r0, r1, lsl #28
      14:	00005800 	andeq	r5, r0, r0, lsl #16
      18:	00801000 	addeq	r1, r0, r0
      1c:	00003000 	andeq	r3, r0, r0
      20:	00000000 	andeq	r0, r0, r0
      24:	05040200 	streq	r0, [r4, #-512]	; 0x200
      28:	00746e69 	rsbseq	r6, r4, r9, ror #28
      2c:	1e070403 	cdpne	4, 0, cr0, cr7, cr3, {0}
      30:	03000000 	movweq	r0, #0
      34:	002d0601 	eoreq	r0, sp, r1, lsl #12
      38:	02030000 	andeq	r0, r3, #0
      3c:	0000c805 	andeq	ip, r0, r5, lsl #16
      40:	05040300 	streq	r0, [r4, #-768]	; 0x300
      44:	00000005 	andeq	r0, r0, r5
      48:	00050803 	andeq	r0, r5, r3, lsl #16
      4c:	03000000 	movweq	r0, #0
      50:	002b0801 	eoreq	r0, fp, r1, lsl #16
      54:	02030000 	andeq	r0, r3, #0
      58:	0000b507 	andeq	fp, r0, r7, lsl #10
      5c:	07040300 	streq	r0, [r4, -r0, lsl #6]
      60:	00000019 	andeq	r0, r0, r9, lsl r0
      64:	14070803 	strne	r0, [r7], #-2051	; 0x803
      68:	03000000 	movweq	r0, #0
      6c:	014a0704 	cmpeq	sl, r4, lsl #14
      70:	01030000 	mrseq	r0, (UNDEF: 3)
      74:	00003408 	andeq	r3, r0, r8, lsl #8
      78:	7f040400 	svcvc	0x00040400
      7c:	05000000 	streq	r0, [r0, #-0]
      80:	00000072 	andeq	r0, r0, r2, ror r0
      84:	00005006 	andeq	r5, r0, r6
      88:	10040100 	andne	r0, r4, r0, lsl #2
      8c:	30000080 	andcc	r0, r0, r0, lsl #1
      90:	01000000 	mrseq	r0, (UNDEF: 0)
      94:	00011b9c 	muleq	r1, ip, fp
      98:	70750700 	rsbsvc	r0, r5, r0, lsl #14
      9c:	2c070100 	stfcss	f0, [r7], {-0}
      a0:	15000000 	strne	r0, [r0, #-0]
      a4:	00019708 	andeq	r9, r1, r8, lsl #14
      a8:	2c070100 	stfcss	f0, [r7], {-0}
      ac:	14000000 	strne	r0, [r0], #-0
      b0:	0000d209 	andeq	sp, r0, r9, lsl #4
      b4:	25090100 	strcs	r0, [r9, #-256]	; 0x100
      b8:	c1000000 	mrsgt	r0, (UNDEF: 0)
      bc:	0a000000 	beq	c4 <_start-0x7f3c>
      c0:	80180b00 	andshi	r0, r8, r0, lsl #22
      c4:	011b0000 	tsteq	fp, r0
      c8:	200c0000 	andcs	r0, ip, r0
      cc:	22000080 	andcs	r0, r0, #128	; 0x80
      d0:	dd000001 	stcle	0, cr0, [r0, #-4]
      d4:	0d000000 	stceq	0, cr0, [r0, #-0]
      d8:	45015001 	strmi	r5, [r1, #-1]
      dc:	80280c00 	eorhi	r0, r8, r0, lsl #24
      e0:	01220000 	teqeq	r2, r0
      e4:	00f00000 	rscseq	r0, r0, r0
      e8:	010d0000 	mrseq	r0, (UNDEF: 13)
      ec:	00440150 	subeq	r0, r4, r0, asr r1
      f0:	0080380c 	addeq	r3, r0, ip, lsl #16
      f4:	00013300 	andeq	r3, r1, r0, lsl #6
      f8:	00011100 	andeq	r1, r1, r0, lsl #2
      fc:	52010d00 	andpl	r0, r1, #0, 26
     100:	010d4401 	tsteq	sp, r1, lsl #8
     104:	0d450151 	stfeqe	f0, [r5, #-324]	; 0xfffffebc
     108:	03055001 	movweq	r5, #20481	; 0x5001
     10c:	000097e4 	andeq	r9, r0, r4, ror #15
     110:	803c0b00 	eorshi	r0, ip, r0, lsl #22
     114:	01490000 	mrseq	r0, (UNDEF: 73)
     118:	0e000000 	cdpeq	0, 0, cr0, cr0, cr0, {0}
     11c:	00000039 	andeq	r0, r0, r9, lsr r0
     120:	d2093a02 	andle	r3, r9, #8192	; 0x2000
     124:	01000000 	mrseq	r0, (UNDEF: 0)
     128:	00002509 	andeq	r2, r0, r9, lsl #10
     12c:	00013300 	andeq	r3, r1, r0, lsl #6
     130:	0f000a00 	svceq	0x00000a00
     134:	0000024f 	andeq	r0, r0, pc, asr #4
     138:	00252902 	eoreq	r2, r5, r2, lsl #18
     13c:	01490000 	mrseq	r0, (UNDEF: 73)
     140:	79100000 	ldmdbvc	r0, {}	; <UNPREDICTABLE>
     144:	0a000000 	beq	14c <_start-0x7eb4>
     148:	00430e00 	subeq	r0, r3, r0, lsl #28
     14c:	66020000 	strvs	r0, [r2], -r0
     150:	0003ad00 	andeq	sl, r3, r0, lsl #26
     154:	db000400 	blle	115c <_start-0x6ea4>
     158:	04000000 	streq	r0, [r0], #-0
     15c:	0000df01 	andeq	sp, r0, r1, lsl #30
     160:	01a90100 			; <UNDEFINED> instruction: 0x01a90100
     164:	00580000 	subseq	r0, r8, r0
     168:	80400000 	subhi	r0, r0, r0
     16c:	010c0000 	mrseq	r0, (UNDEF: 12)
     170:	00850000 	addeq	r0, r5, r0
     174:	04020000 	streq	r0, [r2], #-0
     178:	746e6905 	strbtvc	r6, [lr], #-2309	; 0x905
     17c:	07040300 	streq	r0, [r4, -r0, lsl #6]
     180:	0000001e 	andeq	r0, r0, lr, lsl r0
     184:	2d060103 	stfcss	f0, [r6, #-12]
     188:	03000000 	movweq	r0, #0
     18c:	00c80502 	sbceq	r0, r8, r2, lsl #10
     190:	04030000 	streq	r0, [r3], #-0
     194:	00000505 	andeq	r0, r0, r5, lsl #10
     198:	05080300 	streq	r0, [r8, #-768]	; 0x300
     19c:	00000000 	andeq	r0, r0, r0
     1a0:	2b080103 	blcs	2005b4 <__bss_end__+0x1f670c>
     1a4:	03000000 	movweq	r0, #0
     1a8:	00b50702 	adcseq	r0, r5, r2, lsl #14
     1ac:	04030000 	streq	r0, [r3], #-0
     1b0:	00001907 	andeq	r1, r0, r7, lsl #18
     1b4:	07080300 	streq	r0, [r8, -r0, lsl #6]
     1b8:	00000014 	andeq	r0, r0, r4, lsl r0
     1bc:	4a070403 	bmi	1c11d0 <__bss_end__+0x1b7328>
     1c0:	03000001 	movweq	r0, #1
     1c4:	00340801 	eorseq	r0, r4, r1, lsl #16
     1c8:	04040000 	streq	r0, [r4], #-0
     1cc:	0000007f 	andeq	r0, r0, pc, ror r0
     1d0:	00007205 	andeq	r7, r0, r5, lsl #4
     1d4:	01b40600 			; <UNDEFINED> instruction: 0x01b40600
     1d8:	09010000 	stmdbeq	r1, {}	; <UNPREDICTABLE>
     1dc:	00008040 	andeq	r8, r0, r0, asr #32
     1e0:	000000b4 	strheq	r0, [r0], -r4
     1e4:	021d9c01 	andseq	r9, sp, #256	; 0x100
     1e8:	70070000 	andvc	r0, r7, r0
     1ec:	01006e69 	tsteq	r0, r9, ror #28
     1f0:	00002c09 	andeq	r2, r0, r9, lsl #24
     1f4:	00000000 	andeq	r0, r0, r0
     1f8:	61760800 	cmnvs	r6, r0, lsl #16
     1fc:	0a01006c 	beq	403b4 <__bss_end__+0x3650c>
     200:	0000002c 	andeq	r0, r0, ip, lsr #32
     204:	041b0902 	ldreq	r0, [fp], #-2306	; 0x902
     208:	0d010000 	stceq	0, cr0, [r1, #-0]
     20c:	0000002c 	andeq	r0, r0, ip, lsr #32
     210:	0000002c 	andeq	r0, r0, ip, lsr #32
     214:	00015309 	andeq	r5, r1, r9, lsl #6
     218:	1d100100 	ldfnes	f0, [r0, #-0]
     21c:	60000002 	andvs	r0, r0, r2
     220:	0a000000 	beq	228 <_start-0x7dd8>
     224:	0000017f 	andeq	r0, r0, pc, ror r1
     228:	002c1701 	eoreq	r1, ip, r1, lsl #14
     22c:	55010000 	strpl	r0, [r1, #-0]
     230:	0080580b 	addeq	r5, r0, fp, lsl #16
     234:	00000400 	andeq	r0, r0, r0, lsl #8
     238:	0000fc00 	andeq	pc, r0, r0, lsl #24
     23c:	01c40900 	biceq	r0, r4, r0, lsl #18
     240:	0d010000 	stceq	0, cr0, [r1, #-0]
     244:	0000002c 	andeq	r0, r0, ip, lsr #32
     248:	00000096 	muleq	r0, r6, r0
     24c:	805c0b00 	subshi	r0, ip, r0, lsl #22
     250:	00040000 	andeq	r0, r4, r0
     254:	01190000 	tsteq	r9, r0
     258:	c4090000 	strgt	r0, [r9], #-0
     25c:	01000001 	tsteq	r0, r1
     260:	00002c0e 	andeq	r2, r0, lr, lsl #24
     264:	0000a900 	andeq	sl, r0, r0, lsl #18
     268:	940b0000 	strls	r0, [fp], #-0
     26c:	04000080 	streq	r0, [r0], #-128	; 0x80
     270:	36000000 	strcc	r0, [r0], -r0
     274:	09000001 	stmdbeq	r0, {r0}
     278:	000001c4 	andeq	r0, r0, r4, asr #3
     27c:	002c1a01 	eoreq	r1, ip, r1, lsl #20
     280:	00bc0000 	adcseq	r0, ip, r0
     284:	0b000000 	bleq	28c <_start-0x7d74>
     288:	00008098 	muleq	r0, r8, r0
     28c:	00000004 	andeq	r0, r0, r4
     290:	00000153 	andeq	r0, r0, r3, asr r1
     294:	0001c409 	andeq	ip, r1, r9, lsl #8
     298:	2c1b0100 	ldfcss	f0, [fp], {-0}
     29c:	cf000000 	svcgt	0x00000000
     2a0:	00000000 	andeq	r0, r0, r0
     2a4:	0080b80b 	addeq	fp, r0, fp, lsl #16
     2a8:	00000400 	andeq	r0, r0, r0, lsl #8
     2ac:	00017000 	andeq	r7, r1, r0
     2b0:	01c40900 	biceq	r0, r4, r0, lsl #18
     2b4:	1f010000 	svcne	0x00010000
     2b8:	0000002c 	andeq	r0, r0, ip, lsr #32
     2bc:	000000e2 	andeq	r0, r0, r2, ror #1
     2c0:	80bc0b00 	adcshi	r0, ip, r0, lsl #22
     2c4:	00040000 	andeq	r0, r4, r0
     2c8:	018d0000 	orreq	r0, sp, r0
     2cc:	c4090000 	strgt	r0, [r9], #-0
     2d0:	01000001 	tsteq	r0, r1
     2d4:	00002c20 	andeq	r2, r0, r0, lsr #24
     2d8:	0000f500 	andeq	pc, r0, r0, lsl #10
     2dc:	d80b0000 	stmdale	fp, {}	; <UNPREDICTABLE>
     2e0:	04000080 	streq	r0, [r0], #-128	; 0x80
     2e4:	a8000000 	stmdage	r0, {}	; <UNPREDICTABLE>
     2e8:	0a000001 	beq	2f4 <_start-0x7d0c>
     2ec:	000001c4 	andeq	r0, r0, r4, asr #3
     2f0:	002c2401 	eoreq	r2, ip, r1, lsl #8
     2f4:	52010000 	andpl	r0, r1, #0
     2f8:	80dc0b00 	sbcshi	r0, ip, r0, lsl #22
     2fc:	00040000 	andeq	r0, r4, r0
     300:	01c50000 	biceq	r0, r5, r0
     304:	c4090000 	strgt	r0, [r9], #-0
     308:	01000001 	tsteq	r0, r1
     30c:	00002c25 	andeq	r2, r0, r5, lsr #24
     310:	00010800 	andeq	r0, r1, r0, lsl #16
     314:	580c0000 	stmdapl	ip, {}	; <UNPREDICTABLE>
     318:	6f000080 	svcvs	0x00000080
     31c:	d8000003 	stmdale	r0, {r0, r1}
     320:	0d000001 	stceq	0, cr0, [r0, #-4]
     324:	32015101 	andcc	r5, r1, #1073741824	; 0x40000000
     328:	80940c00 	addshi	r0, r4, r0, lsl #24
     32c:	036f0000 	cmneq	pc, #0
     330:	01f40000 	mvnseq	r0, r0
     334:	010d0000 	mrseq	r0, (UNDEF: 13)
     338:	75310451 	ldrvc	r0, [r1, #-1105]!	; 0x451
     33c:	010d2400 	tsteq	sp, r0, lsl #8
     340:	00740250 	rsbseq	r0, r4, r0, asr r2
     344:	80b80c00 	adcshi	r0, r8, r0, lsl #24
     348:	036f0000 	cmneq	pc, #0
     34c:	02070000 	andeq	r0, r7, #0
     350:	010d0000 	mrseq	r0, (UNDEF: 13)
     354:	00300151 	eorseq	r0, r0, r1, asr r1
     358:	0080d80e 	addeq	sp, r0, lr, lsl #16
     35c:	00036f00 	andeq	r6, r3, r0, lsl #30
     360:	51010d00 	tstpl	r1, r0, lsl #26
     364:	010d3001 	tsteq	sp, r1
     368:	00740250 	rsbseq	r0, r4, r0, asr r2
     36c:	04040000 	streq	r0, [r4], #-0
     370:	00000223 	andeq	r0, r0, r3, lsr #4
     374:	00002c0f 	andeq	r2, r0, pc, lsl #24
     378:	018a0600 	orreq	r0, sl, r0, lsl #12
     37c:	27010000 	strcs	r0, [r1, -r0]
     380:	000080f4 	strdeq	r8, [r0], -r4
     384:	0000002c 	andeq	r0, r0, ip, lsr #32
     388:	029d9c01 	addseq	r9, sp, #256	; 0x100
     38c:	70070000 	andvc	r0, r7, r0
     390:	01006e69 	tsteq	r0, r9, ror #28
     394:	00002c27 	andeq	r2, r0, r7, lsr #24
     398:	00011b00 	andeq	r1, r1, r0, lsl #22
     39c:	019c1000 	orrseq	r1, ip, r0
     3a0:	02ad0000 	adceq	r0, sp, #0
     3a4:	03050000 	movweq	r0, #20480	; 0x5000
     3a8:	00009800 	andeq	r9, r0, r0, lsl #16
     3ac:	0080fc11 	addeq	pc, r0, r1, lsl ip	; <UNPREDICTABLE>
     3b0:	00038c00 	andeq	r8, r3, r0, lsl #24
     3b4:	81100c00 	tsthi	r0, r0, lsl #24
     3b8:	03930000 	orrseq	r0, r3, #0
     3bc:	02930000 	addseq	r0, r3, #0
     3c0:	010d0000 	mrseq	r0, (UNDEF: 13)
     3c4:	27080253 	smlsdcs	r8, r3, r2, r0
     3c8:	0552010d 	ldrbeq	r0, [r2, #-269]	; 0x10d
     3cc:	00980003 	addseq	r0, r8, r3
     3d0:	51010d00 	tstpl	r1, r0, lsl #26
     3d4:	98500305 	ldmdals	r0, {r0, r2, r8, r9}^
     3d8:	010d0000 	mrseq	r0, (UNDEF: 13)
     3dc:	24030550 	strcs	r0, [r3], #-1360	; 0x550
     3e0:	00000098 	muleq	r0, r8, r0
     3e4:	00811411 	addeq	r1, r1, r1, lsl r4
     3e8:	0003a900 	andeq	sl, r3, r0, lsl #18
     3ec:	72120000 	andsvc	r0, r2, #0
     3f0:	ad000000 	stcge	0, cr0, [r0, #-0]
     3f4:	13000002 	movwne	r0, #2
     3f8:	0000006b 	andeq	r0, r0, fp, rrx
     3fc:	9d050011 	stcls	0, cr0, [r5, #-68]	; 0xffffffbc
     400:	06000002 	streq	r0, [r0], -r2
     404:	000000d2 	ldrdeq	r0, [r0], -r2
     408:	81202801 	teqhi	r0, r1, lsl #16
     40c:	002c0000 	eoreq	r0, ip, r0
     410:	9c010000 	stcls	0, cr0, [r1], {-0}
     414:	00000327 	andeq	r0, r0, r7, lsr #6
     418:	6e697007 	cdpvs	0, 6, cr7, cr9, cr7, {0}
     41c:	2c280100 	stfcss	f0, [r8], #-0
     420:	3c000000 	stccc	0, cr0, [r0], {-0}
     424:	10000001 	andne	r0, r0, r1
     428:	0000019c 	muleq	r0, ip, r1
     42c:	00000337 	andeq	r0, r0, r7, lsr r3
     430:	98140305 	ldmdals	r4, {r0, r2, r8, r9}
     434:	28110000 	ldmdacs	r1, {}	; <UNPREDICTABLE>
     438:	8c000081 	stchi	0, cr0, [r0], {129}	; 0x81
     43c:	0c000003 	stceq	0, cr0, [r0], {3}
     440:	0000813c 	andeq	r8, r0, ip, lsr r1
     444:	00000393 	muleq	r0, r3, r3
     448:	0000031d 	andeq	r0, r0, sp, lsl r3
     44c:	0253010d 	subseq	r0, r3, #1073741827	; 0x40000003
     450:	010d2808 	tsteq	sp, r8, lsl #16
     454:	14030552 	strne	r0, [r3], #-1362	; 0x552
     458:	0d000098 	stceq	0, cr0, [r0, #-608]	; 0xfffffda0
     45c:	03055101 	movweq	r5, #20737	; 0x5101
     460:	00009850 	andeq	r9, r0, r0, asr r8
     464:	0550010d 	ldrbeq	r0, [r0, #-269]	; 0x10d
     468:	00982403 	addseq	r2, r8, r3, lsl #8
     46c:	40110000 	andsmi	r0, r1, r0
     470:	a9000081 	stmdbge	r0, {r0, r7}
     474:	00000003 	andeq	r0, r0, r3
     478:	00007212 	andeq	r7, r0, r2, lsl r2
     47c:	00033700 	andeq	r3, r3, r0, lsl #14
     480:	006b1300 	rsbeq	r1, fp, r0, lsl #6
     484:	000c0000 	andeq	r0, ip, r0
     488:	00032705 	andeq	r2, r3, r5, lsl #14
     48c:	01731400 	cmneq	r3, r0, lsl #8
     490:	05010000 	streq	r0, [r1, #-0]
     494:	0000021d 	andeq	r0, r0, sp, lsl r2
     498:	973c0305 	ldrls	r0, [ip, -r5, lsl #6]!
     49c:	5f140000 	svcpl	0x00140000
     4a0:	01000001 	tsteq	r0, r1
     4a4:	00021d06 	andeq	r1, r2, r6, lsl #26
     4a8:	40030500 	andmi	r0, r3, r0, lsl #10
     4ac:	14000097 	strne	r0, [r0], #-151	; 0x97
     4b0:	00000169 	andeq	r0, r0, r9, ror #2
     4b4:	021d0701 	andseq	r0, sp, #262144	; 0x40000
     4b8:	03050000 	movweq	r0, #20480	; 0x5000
     4bc:	00009744 	andeq	r9, r0, r4, asr #14
     4c0:	00017915 	andeq	r7, r1, r5, lsl r9
     4c4:	859d0200 	ldrhi	r0, [sp, #512]	; 0x200
     4c8:	16000003 	strne	r0, [r0], -r3
     4cc:	00000385 	andeq	r0, r0, r5, lsl #7
     4d0:	00002c16 	andeq	r2, r0, r6, lsl ip
     4d4:	04040000 	streq	r0, [r4], #-0
     4d8:	0000038b 	andeq	r0, r0, fp, lsl #7
     4dc:	01c91817 	biceq	r1, r9, r7, lsl r8
     4e0:	1e020000 	cdpne	0, 0, cr0, cr2, cr0, {0}
     4e4:	00024f19 	andeq	r4, r2, r9, lsl pc
     4e8:	25290200 	strcs	r0, [r9, #-512]!	; 0x200
     4ec:	a9000000 	stmdbge	r0, {}	; <UNPREDICTABLE>
     4f0:	16000003 	strne	r0, [r0], -r3
     4f4:	00000079 	andeq	r0, r0, r9, ror r0
     4f8:	4318001a 	tstmi	r8, #26
     4fc:	02000000 	andeq	r0, r0, #0
     500:	01910066 	orrseq	r0, r1, r6, rrx
     504:	00040000 	andeq	r0, r4, r0
     508:	00000226 	andeq	r0, r0, r6, lsr #4
     50c:	01f50104 	mvnseq	r0, r4, lsl #2
     510:	e7010000 	str	r0, [r1, -r0]
     514:	60000001 	andvs	r0, r0, r1
     518:	4c000002 	stcmi	0, cr0, [r0], {2}
     51c:	58000081 	stmdapl	r0, {r0, r7}
     520:	30000000 	andcc	r0, r0, r0
     524:	02000001 	andeq	r0, r0, #1
     528:	000001d8 	ldrdeq	r0, [r0], -r8
     52c:	00302802 	eorseq	r2, r0, r2, lsl #16
     530:	56030000 	strpl	r0, [r3], -r0
     534:	04000002 	streq	r0, [r0], #-2
     538:	00470003 	subeq	r0, r7, r3
     53c:	a9040000 	stmdbge	r4, {}	; <UNPREDICTABLE>
     540:	47000002 	strmi	r0, [r0, -r2]
     544:	00000000 	andeq	r0, r0, r0
     548:	02040500 	andeq	r0, r4, #0, 10
     54c:	00000258 	andeq	r0, r0, r8, asr r2
     550:	00256202 	eoreq	r6, r5, r2, lsl #4
     554:	04060000 	streq	r0, [r6], #-0
     558:	746e6905 	strbtvc	r6, [lr], #-2309	; 0x905
     55c:	07040700 	streq	r0, [r4, -r0, lsl #14]
     560:	0000001e 	andeq	r0, r0, lr, lsl r0
     564:	2d060107 	stfcss	f0, [r6, #-28]	; 0xffffffe4
     568:	07000000 	streq	r0, [r0, -r0]
     56c:	00c80502 	sbceq	r0, r8, r2, lsl #10
     570:	04070000 	streq	r0, [r7], #-0
     574:	00000505 	andeq	r0, r0, r5, lsl #10
     578:	05080700 	streq	r0, [r8, #-1792]	; 0x700
     57c:	00000000 	andeq	r0, r0, r0
     580:	2b080107 	blcs	2009a4 <__bss_end__+0x1f6afc>
     584:	07000000 	streq	r0, [r0, -r0]
     588:	00b50702 	adcseq	r0, r5, r2, lsl #14
     58c:	04070000 	streq	r0, [r7], #-0
     590:	00001907 	andeq	r1, r0, r7, lsl #18
     594:	07080700 	streq	r0, [r8, -r0, lsl #14]
     598:	00000014 	andeq	r0, r0, r4, lsl r0
     59c:	4a070407 	bmi	1c15c0 <__bss_end__+0x1b7718>
     5a0:	08000001 	stmdaeq	r0, {r0}
     5a4:	0000a704 	andeq	sl, r0, r4, lsl #14
     5a8:	08010700 	stmdaeq	r1, {r8, r9, sl}
     5ac:	00000034 	andeq	r0, r0, r4, lsr r0
     5b0:	00b40408 	adcseq	r0, r4, r8, lsl #8
     5b4:	a7090000 	strge	r0, [r9, -r0]
     5b8:	0a000000 	beq	5c0 <_start-0x7a40>
     5bc:	0000024f 	andeq	r0, r0, pc, asr #4
     5c0:	00540601 	subseq	r0, r4, r1, lsl #12
     5c4:	814c0000 	mrshi	r0, (UNDEF: 76)
     5c8:	00580000 	subseq	r0, r8, r0
     5cc:	9c010000 	stcls	0, cr0, [r1], {-0}
     5d0:	00000143 	andeq	r0, r0, r3, asr #2
     5d4:	746d660b 	strbtvc	r6, [sp], #-1547	; 0x60b
     5d8:	ae060100 	adfges	f0, f6, f0
     5dc:	02000000 	andeq	r0, r0, #0
     5e0:	0d0c7091 	stceq	0, cr7, [ip, #-580]	; 0xfffffdbc
     5e4:	00667562 	rsbeq	r7, r6, r2, ror #10
     5e8:	01430801 	cmpeq	r3, r1, lsl #16
     5ec:	03050000 	movweq	r0, #20480	; 0x5000
     5f0:	00009a98 	muleq	r0, r8, sl
     5f4:	0002a40e 	andeq	sl, r2, lr, lsl #8
     5f8:	49090100 	stmdbmi	r9, {r8}
     5fc:	02000000 	andeq	r0, r0, #0
     600:	730f5c91 	movwvc	r5, #64657	; 0xfc91
     604:	0c01007a 	stceq	0, cr0, [r1], {122}	; 0x7a
     608:	00000054 	andeq	r0, r0, r4, asr r0
     60c:	0000015d 	andeq	r0, r0, sp, asr r1
     610:	00817410 	addeq	r7, r1, r0, lsl r4
     614:	00017400 	andeq	r7, r1, r0, lsl #8
     618:	00013600 	andeq	r3, r1, r0, lsl #12
     61c:	53011100 	movwpl	r1, #4352	; 0x1100
     620:	114c9102 	cmpne	ip, r2, lsl #2
     624:	91035201 	tstls	r3, r1, lsl #4
     628:	01110648 	tsteq	r1, r8, asr #12
     62c:	000a0351 	andeq	r0, sl, r1, asr r3
     630:	50011104 	andpl	r1, r1, r4, lsl #2
     634:	00007402 	andeq	r7, r0, r2, lsl #8
     638:	00818812 	addeq	r8, r1, r2, lsl r8
     63c:	50011100 	andpl	r1, r1, r0, lsl #2
     640:	00007402 	andeq	r7, r0, r2, lsl #8
     644:	00a71300 	adceq	r1, r7, r0, lsl #6
     648:	01540000 	cmpeq	r4, r0
     64c:	9a140000 	bls	500654 <__bss_end__+0x4f67ac>
     650:	ff000000 			; <UNDEFINED> instruction: 0xff000000
     654:	54150003 	ldrpl	r0, [r5], #-3
     658:	63000000 	movwvs	r0, #0
     65c:	16000001 	strne	r0, [r0], -r1
     660:	000000ae 	andeq	r0, r0, lr, lsr #1
     664:	02fc1700 	rscseq	r1, ip, #0, 14
     668:	22040000 	andcs	r0, r4, #0
     66c:	0000016e 	andeq	r0, r0, lr, ror #2
     670:	01540408 	cmpeq	r4, r8, lsl #8
     674:	4c180000 	ldcmi	0, cr0, [r8], {-0}
     678:	05000002 	streq	r0, [r0, #-2]
     67c:	00005402 	andeq	r5, r0, r2, lsl #8
     680:	00a11600 	adceq	r1, r1, r0, lsl #12
     684:	54160000 	ldrpl	r0, [r6], #-0
     688:	16000000 	strne	r0, [r0], -r0
     68c:	000000ae 	andeq	r0, r0, lr, lsr #1
     690:	00004916 	andeq	r4, r0, r6, lsl r9
     694:	13000000 	movwne	r0, #0
     698:	04000001 	streq	r0, [r0], #-1
     69c:	00035700 	andeq	r5, r3, r0, lsl #14
     6a0:	f5010400 			; <UNDEFINED> instruction: 0xf5010400
     6a4:	01000001 	tsteq	r0, r1
     6a8:	000002cb 	andeq	r0, r0, fp, asr #5
     6ac:	00000260 	andeq	r0, r0, r0, ror #4
     6b0:	000081a4 	andeq	r8, r0, r4, lsr #3
     6b4:	0000003c 	andeq	r0, r0, ip, lsr r0
     6b8:	00000236 	andeq	r0, r0, r6, lsr r2
     6bc:	69050402 	stmdbvs	r5, {r1, sl}
     6c0:	0300746e 	movweq	r7, #1134	; 0x46e
     6c4:	001e0704 	andseq	r0, lr, r4, lsl #14
     6c8:	01030000 	mrseq	r0, (UNDEF: 3)
     6cc:	00002d06 	andeq	r2, r0, r6, lsl #26
     6d0:	05020300 	streq	r0, [r2, #-768]	; 0x300
     6d4:	000000c8 	andeq	r0, r0, r8, asr #1
     6d8:	05050403 	streq	r0, [r5, #-1027]	; 0x403
     6dc:	03000000 	movweq	r0, #0
     6e0:	00000508 	andeq	r0, r0, r8, lsl #10
     6e4:	01030000 	mrseq	r0, (UNDEF: 3)
     6e8:	00002b08 	andeq	r2, r0, r8, lsl #22
     6ec:	07020300 	streq	r0, [r2, -r0, lsl #6]
     6f0:	000000b5 	strheq	r0, [r0], -r5
     6f4:	19070403 	stmdbne	r7, {r0, r1, sl}
     6f8:	03000000 	movweq	r0, #0
     6fc:	00140708 	andseq	r0, r4, r8, lsl #14
     700:	04030000 	streq	r0, [r3], #-0
     704:	00014a07 	andeq	r4, r1, r7, lsl #20
     708:	08010300 	stmdaeq	r1, {r8, r9}
     70c:	00000034 	andeq	r0, r0, r4, lsr r0
     710:	0002ae04 	andeq	sl, r2, r4, lsl #28
     714:	25030100 	strcs	r0, [r3, #-256]	; 0x100
     718:	a4000000 	strge	r0, [r0], #-0
     71c:	14000081 	strne	r0, [r0], #-129	; 0x81
     720:	01000000 	mrseq	r0, (UNDEF: 0)
     724:	0000b09c 	muleq	r0, ip, r0
     728:	00630500 	rsbeq	r0, r3, r0, lsl #10
     72c:	00250301 	eoreq	r0, r5, r1, lsl #6
     730:	01860000 	orreq	r0, r6, r0
     734:	b0060000 	andlt	r0, r6, r0
     738:	09000081 	stmdbeq	r0, {r0, r7}
     73c:	07000001 	streq	r0, [r0, -r1]
     740:	74025001 	strvc	r5, [r2], #-1
     744:	08000000 	stmdaeq	r0, {}	; <UNPREDICTABLE>
     748:	000001c9 	andeq	r0, r0, r9, asr #3
     74c:	81b80801 			; <UNDEFINED> instruction: 0x81b80801
     750:	00180000 	andseq	r0, r8, r0
     754:	9c010000 	stcls	0, cr0, [r1], {-0}
     758:	0002da09 	andeq	sp, r2, r9, lsl #20
     75c:	d00b0100 	andle	r0, fp, r0, lsl #2
     760:	10000081 	andne	r0, r0, r1, lsl #1
     764:	01000000 	mrseq	r0, (UNDEF: 0)
     768:	0000e39c 	muleq	r0, ip, r3
     76c:	70660a00 	rsbvc	r0, r6, r0, lsl #20
     770:	f20b0100 	vrhadd.s8	d0, d11, d0
     774:	01000000 	mrseq	r0, (UNDEF: 0)
     778:	250b0050 	strcs	r0, [fp, #-80]	; 0x50
     77c:	f2000000 	vhadd.s8	d0, d0, d0
     780:	0c000000 	stceq	0, cr0, [r0], {-0}
     784:	00000025 	andeq	r0, r0, r5, lsr #32
     788:	e3040d00 	movw	r0, #19712	; 0x4d00
     78c:	0e000000 	cdpeq	0, 0, cr0, cr0, cr0, {0}
     790:	000002bf 			; <UNDEFINED> instruction: 0x000002bf
     794:	00f20601 	rscseq	r0, r2, r1, lsl #12
     798:	03050000 	movweq	r0, #20480	; 0x5000
     79c:	00009748 	andeq	r9, r0, r8, asr #14
     7a0:	00042f0f 	andeq	r2, r4, pc, lsl #30
     7a4:	0c3c0200 	lfmeq	f0, 4, [ip], #-0
     7a8:	0000002c 	andeq	r0, r0, ip, lsr #32
     7ac:	00ee0000 	rsceq	r0, lr, r0
     7b0:	00040000 	andeq	r0, r4, r0
     7b4:	0000043f 	andeq	r0, r0, pc, lsr r4
     7b8:	01f50104 	mvnseq	r0, r4, lsl #2
     7bc:	e7010000 	str	r0, [r1, -r0]
     7c0:	60000002 	andvs	r0, r0, r2
     7c4:	e0000002 	and	r0, r0, r2
     7c8:	34000081 	strcc	r0, [r0], #-129	; 0x81
     7cc:	c4000000 	strgt	r0, [r0], #-0
     7d0:	02000002 	andeq	r0, r0, #2
     7d4:	6e690504 	cdpvs	5, 6, cr0, cr9, cr4, {0}
     7d8:	04030074 	streq	r0, [r3], #-116	; 0x74
     7dc:	00001e07 	andeq	r1, r0, r7, lsl #28
     7e0:	06010300 	streq	r0, [r1], -r0, lsl #6
     7e4:	0000002d 	andeq	r0, r0, sp, lsr #32
     7e8:	c8050203 	stmdagt	r5, {r0, r1, r9}
     7ec:	03000000 	movweq	r0, #0
     7f0:	00050504 	andeq	r0, r5, r4, lsl #10
     7f4:	08030000 	stmdaeq	r3, {}	; <UNPREDICTABLE>
     7f8:	00000005 	andeq	r0, r0, r5
     7fc:	08010300 	stmdaeq	r1, {r8, r9}
     800:	0000002b 	andeq	r0, r0, fp, lsr #32
     804:	b5070203 	strlt	r0, [r7, #-515]	; 0x203
     808:	03000000 	movweq	r0, #0
     80c:	00190704 	andseq	r0, r9, r4, lsl #14
     810:	08030000 	stmdaeq	r3, {}	; <UNPREDICTABLE>
     814:	00001407 	andeq	r1, r0, r7, lsl #8
     818:	07040300 	streq	r0, [r4, -r0, lsl #6]
     81c:	0000014a 	andeq	r0, r0, sl, asr #2
     820:	34080103 	strcc	r0, [r8], #-259	; 0x103
     824:	04000000 	streq	r0, [r0], #-0
     828:	00007f04 	andeq	r7, r0, r4, lsl #30
     82c:	00720500 	rsbseq	r0, r2, r0, lsl #10
     830:	f3060000 	vhadd.u8	d0, d6, d0
     834:	01000002 	tsteq	r0, r2
     838:	00002504 	andeq	r2, r0, r4, lsl #10
     83c:	0081e000 	addeq	lr, r1, r0
     840:	00003400 	andeq	r3, r0, r0, lsl #8
     844:	ab9c0100 	blge	fe700c4c <__bss_end__+0xfe6f6da4>
     848:	07000000 	streq	r0, [r0, -r0]
     84c:	04010070 	streq	r0, [r1], #-112	; 0x70
     850:	00000079 	andeq	r0, r0, r9, ror r0
     854:	000001a4 	andeq	r0, r0, r4, lsr #3
     858:	00250800 	eoreq	r0, r5, r0, lsl #16
     85c:	00ba0000 	adcseq	r0, sl, r0
     860:	25090000 	strcs	r0, [r9, #-0]
     864:	00000000 	andeq	r0, r0, r0
     868:	0002bf0a 	andeq	fp, r2, sl, lsl #30
     86c:	c51d0200 	ldrgt	r0, [sp, #-512]	; 0x200
     870:	04000000 	streq	r0, [r0], #-0
     874:	0000ab04 	andeq	sl, r0, r4, lsl #22
     878:	00250800 	eoreq	r0, r5, r0, lsl #16
     87c:	00da0000 	sbcseq	r0, sl, r0
     880:	79090000 	stmdbvc	r9, {}	; <UNPREDICTABLE>
     884:	00000000 	andeq	r0, r0, r0
     888:	0002fc0b 	andeq	pc, r2, fp, lsl #24
     88c:	eb0c0100 	bl	300c94 <__bss_end__+0x2f6dec>
     890:	05000000 	streq	r0, [r0, #-0]
     894:	00974c03 	addseq	r4, r7, r3, lsl #24
     898:	cb040400 	blgt	1018a0 <__bss_end__+0xf79f8>
     89c:	00000000 	andeq	r0, r0, r0
     8a0:	000006a1 	andeq	r0, r0, r1, lsr #13
     8a4:	04d80004 	ldrbeq	r0, [r8], #4
     8a8:	01040000 	mrseq	r0, (UNDEF: 4)
     8ac:	000001f5 	strdeq	r0, [r0], -r5
     8b0:	00032d01 	andeq	r2, r3, r1, lsl #26
     8b4:	00026000 	andeq	r6, r2, r0
     8b8:	00821400 	addeq	r1, r2, r0, lsl #8
     8bc:	00052400 	andeq	r2, r5, r0, lsl #8
     8c0:	00035e00 	andeq	r5, r3, r0, lsl #28
     8c4:	05040200 	streq	r0, [r4, #-512]	; 0x200
     8c8:	00746e69 	rsbseq	r6, r4, r9, ror #28
     8cc:	1e070403 	cdpne	4, 0, cr0, cr7, cr3, {0}
     8d0:	03000000 	movweq	r0, #0
     8d4:	002d0601 	eoreq	r0, sp, r1, lsl #12
     8d8:	02030000 	andeq	r0, r3, #0
     8dc:	0000c805 	andeq	ip, r0, r5, lsl #16
     8e0:	05040300 	streq	r0, [r4, #-768]	; 0x300
     8e4:	00000005 	andeq	r0, r0, r5
     8e8:	00050803 	andeq	r0, r5, r3, lsl #16
     8ec:	03000000 	movweq	r0, #0
     8f0:	002b0801 	eoreq	r0, fp, r1, lsl #16
     8f4:	02030000 	andeq	r0, r3, #0
     8f8:	0000b507 	andeq	fp, r0, r7, lsl #10
     8fc:	07040300 	streq	r0, [r4, -r0, lsl #6]
     900:	00000019 	andeq	r0, r0, r9, lsl r0
     904:	14070803 	strne	r0, [r7], #-2051	; 0x803
     908:	03000000 	movweq	r0, #0
     90c:	014a0704 	cmpeq	sl, r4, lsl #14
     910:	04040000 	streq	r0, [r4], #-0
     914:	007a0405 	rsbseq	r0, sl, r5, lsl #8
     918:	01030000 	mrseq	r0, (UNDEF: 3)
     91c:	00003408 	andeq	r3, r0, r8, lsl #8
     920:	87040500 	strhi	r0, [r4, -r0, lsl #10]
     924:	06000000 	streq	r0, [r0], -r0
     928:	0000007a 	andeq	r0, r0, sl, ror r0
     92c:	0001d807 	andeq	sp, r1, r7, lsl #16
     930:	97280200 	strls	r0, [r8, -r0, lsl #4]!
     934:	08000000 	stmdaeq	r0, {}	; <UNPREDICTABLE>
     938:	00000256 	andeq	r0, r0, r6, asr r2
     93c:	ae000404 	cdpge	4, 0, cr0, cr0, cr4, {0}
     940:	09000000 	stmdbeq	r0, {}	; <UNPREDICTABLE>
     944:	000002a9 	andeq	r0, r0, r9, lsr #5
     948:	00000072 	andeq	r0, r0, r2, ror r0
     94c:	58070000 	stmdapl	r7, {}	; <UNPREDICTABLE>
     950:	02000002 	andeq	r0, r0, #2
     954:	00008c62 	andeq	r8, r0, r2, ror #24
     958:	030f0a00 	movweq	r0, #64000	; 0xfa00
     95c:	27010000 	strcs	r0, [r1, -r0]
     960:	00000025 	andeq	r0, r0, r5, lsr #32
     964:	00008214 	andeq	r8, r0, r4, lsl r2
     968:	00000014 	andeq	r0, r0, r4, lsl r0
     96c:	00e09c01 	rsceq	r9, r0, r1, lsl #24
     970:	630b0000 	movwvs	r0, #45056	; 0xb000
     974:	25270100 	strcs	r0, [r7, #-256]!	; 0x100
     978:	c2000000 	andgt	r0, r0, #0
     97c:	00000001 	andeq	r0, r0, r1
     980:	6461700c 	strbtvs	r7, [r1], #-12
     984:	742e0100 	strtvc	r0, [lr], #-256	; 0x100
     988:	28000000 	stmdacs	r0, {}	; <UNPREDICTABLE>
     98c:	2c000082 	stccs	0, cr0, [r0], {130}	; 0x82
     990:	01000000 	mrseq	r0, (UNDEF: 0)
     994:	0001309c 	muleq	r1, ip, r0
     998:	00700b00 	rsbseq	r0, r0, r0, lsl #22
     99c:	00742e01 	rsbseq	r2, r4, r1, lsl #28
     9a0:	01f00000 	mvnseq	r0, r0
     9a4:	1f0d0000 	svcne	0x000d0000
     9a8:	01000003 	tsteq	r0, r3
     9ac:	0000742e 	andeq	r7, r0, lr, lsr #8
     9b0:	00021b00 	andeq	r1, r2, r0, lsl #22
     9b4:	034d0e00 	movteq	r0, #56832	; 0xde00
     9b8:	2e010000 	cdpcs	0, 0, cr0, cr1, cr0, {0}
     9bc:	00000025 	andeq	r0, r0, r5, lsr #32
     9c0:	6c0f5201 	sfmvs	f5, 4, [pc], {1}
     9c4:	01006e65 	tsteq	r0, r5, ror #28
     9c8:	0000252f 	andeq	r2, r0, pc, lsr #10
     9cc:	00510100 	subseq	r0, r1, r0, lsl #2
     9d0:	0003070a 	andeq	r0, r3, sl, lsl #14
     9d4:	74370100 	ldrtvc	r0, [r7], #-256	; 0x100
     9d8:	54000000 	strpl	r0, [r0], #-0
     9dc:	40000082 	andmi	r0, r0, r2, lsl #1
     9e0:	01000000 	mrseq	r0, (UNDEF: 0)
     9e4:	00019c9c 	muleq	r1, ip, ip
     9e8:	73640b00 	cmnvc	r4, #0, 22
     9ec:	37010074 	smlsdxcc	r1, r4, r0, r0
     9f0:	00000074 	andeq	r0, r0, r4, ror r0
     9f4:	0000023c 	andeq	r0, r0, ip, lsr r2
     9f8:	01006e0b 	tsteq	r0, fp, lsl #28
     9fc:	00002537 	andeq	r2, r0, r7, lsr r5
     a00:	00027400 	andeq	r7, r2, r0, lsl #8
     a04:	00700b00 	rsbseq	r0, r0, r0, lsl #22
     a08:	00743701 	rsbseq	r3, r4, r1, lsl #14
     a0c:	02950000 	addseq	r0, r5, #0
     a10:	1b0d0000 	blne	340a18 <__bss_end__+0x336b70>
     a14:	01000004 	tsteq	r0, r4
     a18:	00007437 	andeq	r7, r0, r7, lsr r4
     a1c:	0002cb00 	andeq	ip, r2, r0, lsl #22
     a20:	656c1000 	strbvs	r1, [ip, #-0]!
     a24:	3901006e 	stmdbcc	r1, {r1, r2, r3, r5, r6}
     a28:	00000025 	andeq	r0, r0, r5, lsr #32
     a2c:	000002e9 	andeq	r0, r0, r9, ror #5
     a30:	0100730f 	tsteq	r0, pc, lsl #6
     a34:	0000743d 	andeq	r7, r0, sp, lsr r4
     a38:	00500100 	subseq	r0, r0, r0, lsl #2
     a3c:	00035b0a 	andeq	r5, r3, sl, lsl #22
     a40:	74470100 	strbvc	r0, [r7], #-256	; 0x100
     a44:	94000000 	strls	r0, [r0], #-0
     a48:	a8000082 	stmdage	r0, {r1, r7}
     a4c:	01000001 	tsteq	r0, r1
     a50:	0002df9c 	muleq	r2, ip, pc	; <UNPREDICTABLE>
     a54:	031f0d00 	tsteq	pc, #0, 26
     a58:	47010000 	strmi	r0, [r1, -r0]
     a5c:	0000002c 	andeq	r0, r0, ip, lsr #32
     a60:	00000310 	andeq	r0, r0, r0, lsl r3
     a64:	7473640b 	ldrbtvc	r6, [r3], #-1035	; 0x40b
     a68:	74470100 	strbvc	r0, [r7], #-256	; 0x100
     a6c:	3e000000 	cdpcc	0, 0, cr0, cr0, cr0, {0}
     a70:	0b000003 	bleq	a84 <_start-0x757c>
     a74:	4701006e 	strmi	r0, [r1, -lr, rrx]
     a78:	00000025 	andeq	r0, r0, r5, lsr #32
     a7c:	000003ac 	andeq	r0, r0, ip, lsr #7
     a80:	6c61760b 	stclvs	6, cr7, [r1], #-44	; 0xffffffd4
     a84:	25470100 	strbcs	r0, [r7, #-256]	; 0x100
     a88:	d8000000 	stmdale	r0, {}	; <UNPREDICTABLE>
     a8c:	0d000003 	stceq	0, cr0, [r0, #-12]
     a90:	0000034d 	andeq	r0, r0, sp, asr #6
     a94:	00254701 	eoreq	r4, r5, r1, lsl #14
     a98:	04570000 	ldrbeq	r0, [r7], #-0
     a9c:	240e0000 	strcs	r0, [lr], #-0
     aa0:	01000003 	tsteq	r0, r3
     aa4:	00002547 	andeq	r2, r0, r7, asr #10
     aa8:	04910200 	ldreq	r0, [r1], #512	; 0x200
     aac:	6675620f 	ldrbtvs	r6, [r5], -pc, lsl #4
     ab0:	df4c0100 	svcle	0x004c0100
     ab4:	03000002 	movweq	r0, #2
     ab8:	107fa891 			; <UNDEFINED> instruction: 0x107fa891
     abc:	4c010070 	stcmi	0, cr0, [r1], {112}	; 0x70
     ac0:	00000074 	andeq	r0, r0, r4, ror r0
     ac4:	00000481 	andeq	r0, r0, r1, lsl #9
     ac8:	01007510 	tsteq	r0, r0, lsl r5
     acc:	00002c4d 	andeq	r2, r0, sp, asr #24
     ad0:	00053d00 	andeq	r3, r5, r0, lsl #26
     ad4:	019c1100 	orrseq	r1, ip, r0, lsl #2
     ad8:	02ff0000 	rscseq	r0, pc, #0
     adc:	03050000 	movweq	r0, #20480	; 0x5000
     ae0:	0000985c 	andeq	r9, r0, ip, asr r8
     ae4:	00830012 	addeq	r0, r3, r2, lsl r0
     ae8:	00007400 	andeq	r7, r0, r0, lsl #8
     aec:	00026100 	andeq	r6, r2, r0, lsl #2
     af0:	03011300 	movweq	r1, #4864	; 0x1300
     af4:	52010000 	andpl	r0, r1, #0
     af8:	0000002c 	andeq	r0, r0, ip, lsr #32
     afc:	00000642 	andeq	r0, r0, r2, asr #12
     b00:	83d41400 	bicshi	r1, r4, #0, 8
     b04:	06800000 	streq	r0, [r0], r0
     b08:	f0150000 			; <UNDEFINED> instruction: 0xf0150000
     b0c:	87000083 	strhi	r0, [r0, -r3, lsl #1]
     b10:	a3000006 	movwge	r0, #6
     b14:	16000002 	strne	r0, [r0], -r2
     b18:	08025301 	stmdaeq	r2, {r0, r8, r9, ip, lr}
     b1c:	52011675 	andpl	r1, r1, #122683392	; 0x7500000
     b20:	985c0305 	ldmdals	ip, {r0, r2, r8, r9}^
     b24:	01160000 	tsteq	r6, r0
     b28:	94030551 	strls	r0, [r3], #-1361	; 0x551
     b2c:	16000098 			; <UNDEFINED> instruction: 0x16000098
     b30:	03055001 	movweq	r5, #20481	; 0x5001
     b34:	00009880 	andeq	r9, r0, r0, lsl #17
     b38:	007d0216 	rsbseq	r0, sp, r6, lsl r2
     b3c:	98a80305 	stmials	r8!, {r0, r2, r8, r9}
     b40:	14000000 	strne	r0, [r0], #-0
     b44:	000083f4 	strdeq	r8, [r0], -r4
     b48:	0000069d 	muleq	r0, sp, r6
     b4c:	00840015 	addeq	r0, r4, r5, lsl r0
     b50:	0000e000 	andeq	lr, r0, r0
     b54:	0002c100 	andeq	ip, r2, r0, lsl #2
     b58:	51011600 	tstpl	r1, r0, lsl #12
     b5c:	7fa09103 	svcvc	0x00a09103
     b60:	84141700 	ldrhi	r1, [r4], #-1792	; 0x700
     b64:	01300000 	teqeq	r0, r0
     b68:	01160000 	tsteq	r6, r0
     b6c:	a0910353 	addsge	r0, r1, r3, asr r3
     b70:	5101167f 	tstpl	r1, pc, ror r6
     b74:	16007402 	strne	r7, [r0], -r2, lsl #8
     b78:	75025001 	strvc	r5, [r2, #-1]
     b7c:	18000000 	stmdane	r0, {}	; <UNPREDICTABLE>
     b80:	0000007a 	andeq	r0, r0, sl, ror r0
     b84:	000002ef 	andeq	r0, r0, pc, ror #5
     b88:	00006b19 	andeq	r6, r0, r9, lsl fp
     b8c:	18003f00 	stmdane	r0, {r8, r9, sl, fp, ip, sp}
     b90:	0000007a 	andeq	r0, r0, sl, ror r0
     b94:	000002ff 	strdeq	r0, [r0], -pc	; <UNPREDICTABLE>
     b98:	00006b19 	andeq	r6, r0, r9, lsl fp
     b9c:	06000400 	streq	r0, [r0], -r0, lsl #8
     ba0:	000002ef 	andeq	r0, r0, pc, ror #5
     ba4:	00033e1a 	andeq	r3, r3, sl, lsl lr
     ba8:	3c1f0100 	ldfccs	f0, [pc], {-0}
     bac:	68000084 	stmdavs	r0, {r2, r7}
     bb0:	01000000 	mrseq	r0, (UNDEF: 0)
     bb4:	0003929c 	muleq	r3, ip, r2
     bb8:	03530d00 	cmpeq	r3, #0, 26
     bbc:	1f010000 	svcne	0x00010000
     bc0:	000003a1 	andeq	r0, r0, r1, lsr #7
     bc4:	0000066e 	andeq	r0, r0, lr, ror #12
     bc8:	0003170d 	andeq	r1, r3, sp, lsl #14
     bcc:	b61f0100 	ldrlt	r0, [pc], -r0, lsl #2
     bd0:	9a000003 	bls	be4 <_start-0x741c>
     bd4:	11000006 	tstne	r0, r6
     bd8:	0000019c 	muleq	r0, ip, r1
     bdc:	000003cc 	andeq	r0, r0, ip, asr #7
     be0:	98640305 	stmdals	r4!, {r0, r2, r8, r9}^
     be4:	50140000 	andspl	r0, r4, r0
     be8:	80000084 	andhi	r0, r0, r4, lsl #1
     bec:	15000006 	strne	r0, [r0, #-6]
     bf0:	0000846c 	andeq	r8, r0, ip, ror #8
     bf4:	00000687 	andeq	r0, r0, r7, lsl #13
     bf8:	00000388 	andeq	r0, r0, r8, lsl #7
     bfc:	02530116 	subseq	r0, r3, #-2147483643	; 0x80000005
     c00:	01162008 	tsteq	r6, r8
     c04:	64030552 	strvs	r0, [r3], #-1362	; 0x552
     c08:	16000098 			; <UNDEFINED> instruction: 0x16000098
     c0c:	03055101 	movweq	r5, #20737	; 0x5101
     c10:	00009894 	muleq	r0, r4, r8
     c14:	05500116 	ldrbeq	r0, [r0, #-278]	; 0x116
     c18:	00988003 	addseq	r8, r8, r3
     c1c:	7d021600 	stcvc	6, cr1, [r2, #-0]
     c20:	d0030500 	andle	r0, r3, r0, lsl #10
     c24:	00000098 	muleq	r0, r8, r0
     c28:	00847014 	addeq	r7, r4, r4, lsl r0
     c2c:	00069d00 	andeq	r9, r6, r0, lsl #26
     c30:	251b0000 	ldrcs	r0, [fp, #-0]
     c34:	a1000000 	mrsge	r0, (UNDEF: 0)
     c38:	1c000003 	stcne	0, cr0, [r0], {3}
     c3c:	00000025 	andeq	r0, r0, r5, lsr #32
     c40:	92040500 	andls	r0, r4, #0, 10
     c44:	1b000003 	blne	c58 <_start-0x73a8>
     c48:	00000025 	andeq	r0, r0, r5, lsr #32
     c4c:	000003b6 			; <UNDEFINED> instruction: 0x000003b6
     c50:	0000811c 	andeq	r8, r0, ip, lsl r1
     c54:	04050000 	streq	r0, [r5], #-0
     c58:	000003a7 	andeq	r0, r0, r7, lsr #7
     c5c:	00007a18 	andeq	r7, r0, r8, lsl sl
     c60:	0003cc00 	andeq	ip, r3, r0, lsl #24
     c64:	006b1900 	rsbeq	r1, fp, r0, lsl #18
     c68:	000e0000 	andeq	r0, lr, r0
     c6c:	0003bc06 	andeq	fp, r3, r6, lsl #24
     c70:	024c1d00 	subeq	r1, ip, #0, 26
     c74:	7d010000 	stcvc	0, cr0, [r1, #-0]
     c78:	00000025 	andeq	r0, r0, r5, lsr #32
     c7c:	000084a4 	andeq	r8, r0, r4, lsr #9
     c80:	00000294 	muleq	r0, r4, r2
     c84:	06459c01 	strbeq	r9, [r5], -r1, lsl #24
     c88:	620b0000 	andvs	r0, fp, #0
     c8c:	01006675 	tsteq	r0, r5, ror r6
     c90:	0000747d 	andeq	r7, r0, sp, ror r4
     c94:	0006c600 	andeq	ip, r6, r0, lsl #12
     c98:	006e0b00 	rsbeq	r0, lr, r0, lsl #22
     c9c:	00257d01 	eoreq	r7, r5, r1, lsl #26
     ca0:	06f20000 	ldrbteq	r0, [r2], r0
     ca4:	660b0000 	strvs	r0, [fp], -r0
     ca8:	0100746d 	tsteq	r0, sp, ror #8
     cac:	0000817d 	andeq	r8, r0, sp, ror r1
     cb0:	00072000 	andeq	r2, r7, r0
     cb4:	02a40d00 	adceq	r0, r4, #0, 26
     cb8:	7d010000 	stcvc	0, cr0, [r1, #-0]
     cbc:	000000ae 	andeq	r0, r0, lr, lsr #1
     cc0:	00000754 	andeq	r0, r0, r4, asr r7
     cc4:	01007010 	tsteq	r0, r0, lsl r0
     cc8:	0000747e 	andeq	r7, r0, lr, ror r4
     ccc:	00076700 	andeq	r6, r7, r0, lsl #14
     cd0:	00651000 	rsbeq	r1, r5, r0
     cd4:	00747e01 	rsbseq	r7, r4, r1, lsl #28
     cd8:	07e50000 	strbeq	r0, [r5, r0]!
     cdc:	9c110000 	ldcls	0, cr0, [r1], {-0}
     ce0:	55000001 	strpl	r0, [r0, #-1]
     ce4:	05000006 	streq	r0, [r0, #-6]
     ce8:	00987403 	addseq	r7, r8, r3, lsl #8
     cec:	00001e00 	andeq	r1, r0, r0, lsl #28
     cf0:	73100000 	tstvc	r0, #0
     cf4:	748b0100 	strvc	r0, [fp], #256	; 0x100
     cf8:	0c000000 	stceq	0, cr0, [r0], {-0}
     cfc:	0f000008 	svceq	0x00000008
     d00:	006d756e 	rsbeq	r7, sp, lr, ror #10
     d04:	065a8b01 	ldrbeq	r8, [sl], -r1, lsl #22
     d08:	91030000 	mrsls	r0, (UNDEF: 3)
     d0c:	4d137ed8 	ldcmi	14, cr7, [r3, #-864]	; 0xfffffca0
     d10:	01000003 	tsteq	r0, r3
     d14:	00002c8c 	andeq	r2, r0, ip, lsl #25
     d18:	00086100 	andeq	r6, r8, r0, lsl #2
     d1c:	85281500 	strhi	r1, [r8, #-1280]!	; 0x500
     d20:	00b90000 	adcseq	r0, r9, r0
     d24:	04910000 	ldreq	r0, [r1], #0
     d28:	01160000 	tsteq	r6, r0
     d2c:	00750250 	rsbseq	r0, r5, r0, asr r2
     d30:	853c1400 	ldrhi	r1, [ip, #-1024]!	; 0x400
     d34:	06800000 	streq	r0, [r0], r0
     d38:	58150000 	ldmdapl	r5, {}	; <UNPREDICTABLE>
     d3c:	87000085 	strhi	r0, [r0, -r5, lsl #1]
     d40:	d3000006 	movwle	r0, #6
     d44:	16000004 	strne	r0, [r0], -r4
     d48:	08025301 	stmdaeq	r2, {r0, r8, r9, ip, lr}
     d4c:	52011692 	andpl	r1, r1, #153092096	; 0x9200000
     d50:	98740305 	ldmdals	r4!, {r0, r2, r8, r9}^
     d54:	01160000 	tsteq	r6, r0
     d58:	94030551 	strls	r0, [r3], #-1361	; 0x551
     d5c:	16000098 			; <UNDEFINED> instruction: 0x16000098
     d60:	03055001 	movweq	r5, #20481	; 0x5001
     d64:	00009880 	andeq	r9, r0, r0, lsl #17
     d68:	007d0216 	rsbseq	r0, sp, r6, lsl r2
     d6c:	98d80305 	ldmls	r8, {r0, r2, r8, r9}^
     d70:	14000000 	strne	r0, [r0], #-0
     d74:	0000855c 	andeq	r8, r0, ip, asr r5
     d78:	0000069d 	muleq	r0, sp, r6
     d7c:	0085cc14 	addeq	ip, r5, r4, lsl ip
     d80:	00068000 	andeq	r8, r6, r0
     d84:	85e01500 	strbhi	r1, [r0, #1280]!	; 0x500
     d88:	06870000 	streq	r0, [r7], r0
     d8c:	05140000 	ldreq	r0, [r4, #-0]
     d90:	01160000 	tsteq	r6, r0
     d94:	98080253 	stmdals	r8, {r0, r1, r4, r6, r9}
     d98:	05520116 	ldrbeq	r0, [r2, #-278]	; 0x116
     d9c:	00987403 	addseq	r7, r8, r3, lsl #8
     da0:	51011600 	tstpl	r1, r0, lsl #12
     da4:	98940305 	ldmls	r4, {r0, r2, r8, r9}
     da8:	01160000 	tsteq	r6, r0
     dac:	e4030550 	str	r0, [r3], #-1360	; 0x550
     db0:	00000098 	muleq	r0, r8, r0
     db4:	0085e414 	addeq	lr, r5, r4, lsl r4
     db8:	00069d00 	andeq	r9, r6, r0, lsl #26
     dbc:	86081500 	strhi	r1, [r8], -r0, lsl #10
     dc0:	019c0000 	orrseq	r0, ip, r0
     dc4:	054a0000 	strbeq	r0, [sl, #-0]
     dc8:	01160000 	tsteq	r6, r0
     dcc:	80080252 	andhi	r0, r8, r2, asr r2
     dd0:	03510116 	cmpeq	r1, #-2147483643	; 0x80000005
     dd4:	167ed091 			; <UNDEFINED> instruction: 0x167ed091
     dd8:	3a015001 	bcc	54de4 <__bss_end__+0x4af3c>
     ddc:	047d0216 	ldrbteq	r0, [sp], #-534	; 0x216
     de0:	02163101 	andseq	r3, r6, #1073741824	; 0x40000000
     de4:	7702007d 	smlsdxvc	r2, sp, r0, r0
     de8:	2c150000 	ldccs	0, cr0, [r5], {-0}
     dec:	9c000086 	stcls	0, cr0, [r0], {134}	; 0x86
     df0:	78000001 	stmdavc	r0, {r0}
     df4:	16000005 	strne	r0, [r0], -r5
     df8:	08025201 	stmdaeq	r2, {r0, r9, ip, lr}
     dfc:	51011680 	smlabbpl	r1, r0, r6, r1
     e00:	7ed09103 	atnvcs	f1, f3
     e04:	01500116 	cmpeq	r0, r6, lsl r1
     e08:	7d02163a 	stcvc	6, cr1, [r2, #-232]	; 0xffffff18
     e0c:	007b0204 	rsbseq	r0, fp, r4, lsl #4
     e10:	007d0216 	rsbseq	r0, sp, r6, lsl r2
     e14:	00007702 	andeq	r7, r0, r2, lsl #14
     e18:	00865015 	addeq	r5, r6, r5, lsl r0
     e1c:	00019c00 	andeq	r9, r1, r0, lsl #24
     e20:	0005a600 	andeq	sl, r5, r0, lsl #12
     e24:	52011600 	andpl	r1, r1, #0, 12
     e28:	16800802 	strne	r0, [r0], r2, lsl #16
     e2c:	91035101 	tstls	r3, r1, lsl #2
     e30:	01167ed0 			; <UNDEFINED> instruction: 0x01167ed0
     e34:	16400150 			; <UNDEFINED> instruction: 0x16400150
     e38:	02047d02 	andeq	r7, r4, #2, 26	; 0x80
     e3c:	0216007b 	andseq	r0, r6, #123	; 0x7b
     e40:	7702007d 	smlsdxvc	r2, sp, r0, r0
     e44:	74150000 	ldrvc	r0, [r5], #-0
     e48:	9c000086 	stcls	0, cr0, [r0], {134}	; 0x86
     e4c:	d4000001 	strle	r0, [r0], #-1
     e50:	16000005 	strne	r0, [r0], -r5
     e54:	08025201 	stmdaeq	r2, {r0, r9, ip, lr}
     e58:	51011680 	smlabbpl	r1, r0, r6, r1
     e5c:	7ed09103 	atnvcs	f1, f3
     e60:	01500116 	cmpeq	r0, r6, lsl r1
     e64:	7d021632 	stcvc	6, cr1, [r2, #-200]	; 0xffffff38
     e68:	007b0204 	rsbseq	r0, fp, r4, lsl #4
     e6c:	007d0216 	rsbseq	r0, sp, r6, lsl r2
     e70:	00007702 	andeq	r7, r0, r2, lsl #14
     e74:	0086a415 	addeq	sl, r6, r5, lsl r4
     e78:	00019c00 	andeq	r9, r1, r0, lsl #24
     e7c:	00060200 	andeq	r0, r6, r0, lsl #4
     e80:	52011600 	andpl	r1, r1, #0, 12
     e84:	16800802 	strne	r0, [r0], r2, lsl #16
     e88:	91035101 	tstls	r3, r1, lsl #2
     e8c:	01167ed0 			; <UNDEFINED> instruction: 0x01167ed0
     e90:	16380150 			; <UNDEFINED> instruction: 0x16380150
     e94:	02047d02 	andeq	r7, r4, #2, 26	; 0x80
     e98:	0216007b 	andseq	r0, r6, #123	; 0x7b
     e9c:	7702007d 	smlsdxvc	r2, sp, r0, r0
     ea0:	ac140000 	ldcge	0, cr0, [r4], {-0}
     ea4:	80000086 	andhi	r0, r0, r6, lsl #1
     ea8:	15000006 	strne	r0, [r0, #-6]
     eac:	000086c8 	andeq	r8, r0, r8, asr #13
     eb0:	00000687 	andeq	r0, r0, r7, lsl #13
     eb4:	0000063a 	andeq	r0, r0, sl, lsr r6
     eb8:	02530116 	subseq	r0, r3, #-2147483643	; 0x80000005
     ebc:	0116b908 	tsteq	r6, r8, lsl #18
     ec0:	74030552 	strvc	r0, [r3], #-1362	; 0x552
     ec4:	16000098 			; <UNDEFINED> instruction: 0x16000098
     ec8:	03055101 	movweq	r5, #20737	; 0x5101
     ecc:	00009894 	muleq	r0, r4, r8
     ed0:	05500116 	ldrbeq	r0, [r0, #-278]	; 0x116
     ed4:	00990c03 	addseq	r0, r9, r3, lsl #24
     ed8:	cc140000 	ldcgt	0, cr0, [r4], {-0}
     edc:	9d000086 	stcls	0, cr0, [r0, #-536]	; 0xfffffde8
     ee0:	00000006 	andeq	r0, r0, r6
     ee4:	007a1800 	rsbseq	r1, sl, r0, lsl #16
     ee8:	06550000 	ldrbeq	r0, [r5], -r0
     eec:	6b190000 	blvs	640ef4 <__bss_end__+0x63704c>
     ef0:	09000000 	stmdbeq	r0, {}	; <UNPREDICTABLE>
     ef4:	06450600 	strbeq	r0, [r5], -r0, lsl #12
     ef8:	7a180000 	bvc	600f00 <__bss_end__+0x5f7058>
     efc:	6a000000 	bvs	f04 <_start-0x70fc>
     f00:	19000006 	stmdbne	r0, {r1, r2}
     f04:	0000006b 	andeq	r0, r0, fp, rrx
     f08:	bf1f007f 	svclt	0x001f007f
     f0c:	03000002 	movweq	r0, #2
     f10:	0003a11d 	andeq	sl, r3, sp, lsl r1
     f14:	02fc1f00 	rscseq	r1, ip, #0, 30
     f18:	22030000 	andcs	r0, r3, #0
     f1c:	000003b6 			; <UNDEFINED> instruction: 0x000003b6
     f20:	0001c920 	andeq	ip, r1, r0, lsr #18
     f24:	211e0300 	tstcs	lr, r0, lsl #6
     f28:	0000024f 	andeq	r0, r0, pc, asr #4
     f2c:	00252903 	eoreq	r2, r5, r3, lsl #18
     f30:	069d0000 	ldreq	r0, [sp], r0
     f34:	811c0000 	tsthi	ip, r0
     f38:	22000000 	andcs	r0, r0, #0
     f3c:	00432000 	subeq	r2, r3, r0
     f40:	66030000 	strvs	r0, [r3], -r0
     f44:	0000ff00 	andeq	pc, r0, r0, lsl #30
     f48:	b4000400 	strlt	r0, [r0], #-1024	; 0x400
     f4c:	04000006 	streq	r0, [r0], #-6
     f50:	0001f501 	andeq	pc, r1, r1, lsl #10
     f54:	036b0100 	cmneq	fp, #0, 2
     f58:	02600000 	rsbeq	r0, r0, #0
     f5c:	87380000 	ldrhi	r0, [r8, -r0]!
     f60:	00280000 	eoreq	r0, r8, r0
     f64:	05440000 	strbeq	r0, [r4, #-0]
     f68:	04020000 	streq	r0, [r2], #-0
     f6c:	746e6905 	strbtvc	r6, [lr], #-2309	; 0x905
     f70:	07040300 	streq	r0, [r4, -r0, lsl #6]
     f74:	0000001e 	andeq	r0, r0, lr, lsl r0
     f78:	2d060103 	stfcss	f0, [r6, #-12]
     f7c:	03000000 	movweq	r0, #0
     f80:	00c80502 	sbceq	r0, r8, r2, lsl #10
     f84:	04030000 	streq	r0, [r3], #-0
     f88:	00000505 	andeq	r0, r0, r5, lsl #10
     f8c:	05080300 	streq	r0, [r8, #-768]	; 0x300
     f90:	00000000 	andeq	r0, r0, r0
     f94:	2b080103 	blcs	2013a8 <__bss_end__+0x1f7500>
     f98:	03000000 	movweq	r0, #0
     f9c:	00b50702 	adcseq	r0, r5, r2, lsl #14
     fa0:	04030000 	streq	r0, [r3], #-0
     fa4:	00001907 	andeq	r1, r0, r7, lsl #18
     fa8:	07080300 	streq	r0, [r8, -r0, lsl #6]
     fac:	00000014 	andeq	r0, r0, r4, lsl r0
     fb0:	4a070403 	bmi	1c1fc4 <__bss_end__+0x1b811c>
     fb4:	03000001 	movweq	r0, #1
     fb8:	00340801 	eorseq	r0, r4, r1, lsl #16
     fbc:	04040000 	streq	r0, [r4], #-0
     fc0:	0000007f 	andeq	r0, r0, pc, ror r0
     fc4:	00007205 	andeq	r7, r0, r5, lsl #4
     fc8:	00430600 	subeq	r0, r3, r0, lsl #12
     fcc:	04010000 	streq	r0, [r1], #-0
     fd0:	00008738 	andeq	r8, r0, r8, lsr r7
     fd4:	00000028 	andeq	r0, r0, r8, lsr #32
     fd8:	00ca9c01 	sbceq	r9, sl, r1, lsl #24
     fdc:	4c070000 	stcmi	0, cr0, [r7], {-0}
     fe0:	ac000087 	stcge	0, cr0, [r0], {135}	; 0x87
     fe4:	08000000 	stmdaeq	r0, {}	; <UNPREDICTABLE>
     fe8:	03055001 	movweq	r5, #20481	; 0x5001
     fec:	00009944 	andeq	r9, r0, r4, asr #18
     ff0:	87540900 	ldrbhi	r0, [r4, -r0, lsl #18]
     ff4:	00ea0000 	rsceq	r0, sl, r0
     ff8:	00c00000 	sbceq	r0, r0, r0
     ffc:	01080000 	mrseq	r0, (UNDEF: 8)
    1000:	64080250 	strvs	r0, [r8], #-592	; 0x250
    1004:	87580a00 	ldrbhi	r0, [r8, -r0, lsl #20]
    1008:	00fb0000 	rscseq	r0, fp, r0
    100c:	0b000000 	bleq	1014 <_start-0x6fec>
    1010:	00000025 	andeq	r0, r0, r5, lsr #32
    1014:	000000d9 	ldrdeq	r0, [r0], -r9
    1018:	0000790c 	andeq	r7, r0, ip, lsl #18
    101c:	fc0d0000 	stc2	0, cr0, [sp], {-0}
    1020:	02000002 	andeq	r0, r0, #2
    1024:	0000e422 	andeq	lr, r0, r2, lsr #8
    1028:	ca040400 	bgt	102030 <__bss_end__+0xf8188>
    102c:	0e000000 	cdpeq	0, 0, cr0, cr0, cr0, {0}
    1030:	00000385 	andeq	r0, r0, r5, lsl #7
    1034:	00fb5002 	rscseq	r5, fp, r2
    1038:	2c0c0000 	stccs	0, cr0, [ip], {-0}
    103c:	00000000 	andeq	r0, r0, r0
    1040:	0003600f 	andeq	r6, r3, pc
    1044:	00630200 	rsbeq	r0, r3, r0, lsl #4
    1048:	000002dd 	ldrdeq	r0, [r0], -sp
    104c:	077e0004 	ldrbeq	r0, [lr, -r4]!
    1050:	01040000 	mrseq	r0, (UNDEF: 4)
    1054:	000001f5 	strdeq	r0, [r0], -r5
    1058:	00047001 	andeq	r7, r4, r1
    105c:	00026000 	andeq	r6, r2, r0
    1060:	00876000 	addeq	r6, r7, r0
    1064:	0000b000 	andeq	fp, r0, r0
    1068:	0005db00 	andeq	sp, r5, r0, lsl #22
    106c:	05040200 	streq	r0, [r4, #-512]	; 0x200
    1070:	00746e69 	rsbseq	r6, r4, r9, ror #28
    1074:	1e070403 	cdpne	4, 0, cr0, cr7, cr3, {0}
    1078:	03000000 	movweq	r0, #0
    107c:	002d0601 	eoreq	r0, sp, r1, lsl #12
    1080:	02030000 	andeq	r0, r3, #0
    1084:	0000c805 	andeq	ip, r0, r5, lsl #16
    1088:	05040300 	streq	r0, [r4, #-768]	; 0x300
    108c:	00000005 	andeq	r0, r0, r5
    1090:	00050803 	andeq	r0, r5, r3, lsl #16
    1094:	04000000 	streq	r0, [r0], #-0
    1098:	00000439 	andeq	r0, r0, r9, lsr r4
    109c:	005a2e02 	subseq	r2, sl, r2, lsl #28
    10a0:	01030000 	mrseq	r0, (UNDEF: 3)
    10a4:	00002b08 	andeq	r2, r0, r8, lsl #22
    10a8:	07020300 	streq	r0, [r2, -r0, lsl #6]
    10ac:	000000b5 	strheq	r0, [r0], -r5
    10b0:	00049004 	andeq	r9, r4, r4
    10b4:	73340200 	teqvc	r4, #0, 4
    10b8:	03000000 	movweq	r0, #0
    10bc:	00190704 	andseq	r0, r9, r4, lsl #14
    10c0:	08030000 	stmdaeq	r3, {}	; <UNPREDICTABLE>
    10c4:	00001407 	andeq	r1, r0, r7, lsl #8
    10c8:	07040300 	streq	r0, [r4, -r0, lsl #6]
    10cc:	0000014a 	andeq	r0, r0, sl, asr #2
    10d0:	34080103 	strcc	r0, [r8], #-259	; 0x103
    10d4:	05000000 	streq	r0, [r0, #-0]
    10d8:	00009504 	andeq	r9, r0, r4, lsl #10
    10dc:	00880600 	addeq	r0, r8, r0, lsl #12
    10e0:	0c070000 	stceq	0, cr0, [r7], {-0}
    10e4:	00d10e03 	sbcseq	r0, r1, r3, lsl #28
    10e8:	74080000 	strvc	r0, [r8], #-0
    10ec:	0f030078 	svceq	0x00030078
    10f0:	0000004f 	andeq	r0, r0, pc, asr #32
    10f4:	78720800 	ldmdavc	r2!, {fp}^
    10f8:	4f0f0300 	svcmi	0x000f0300
    10fc:	01000000 	mrseq	r0, (UNDEF: 0)
    1100:	00040709 	andeq	r0, r4, r9, lsl #14
    1104:	68100300 	ldmdavs	r0, {r8, r9}
    1108:	04000000 	streq	r0, [r0], #-0
    110c:	0003b809 	andeq	fp, r3, r9, lsl #16
    1110:	68110300 	ldmdavs	r1, {r8, r9}
    1114:	08000000 	stmdaeq	r0, {}	; <UNPREDICTABLE>
    1118:	03f00400 	mvnseq	r0, #0, 8
    111c:	12030000 	andne	r0, r3, #0
    1120:	0000009a 	muleq	r0, sl, r0
    1124:	1004010a 	andne	r0, r4, sl, lsl #2
    1128:	000000f7 	strdeq	r0, [r0], -r7
    112c:	00040c0b 	andeq	r0, r4, fp, lsl #24
    1130:	fa0b0100 	blx	2c1538 <__bss_end__+0x2b7690>
    1134:	02000003 	andeq	r0, r0, #3
    1138:	0003e20b 	andeq	lr, r3, fp, lsl #4
    113c:	04000300 	streq	r0, [r0], #-768	; 0x300
    1140:	00000421 	andeq	r0, r0, r1, lsr #8
    1144:	00dc1004 	sbcseq	r1, ip, r4
    1148:	14070000 	strne	r0, [r7], #-0
    114c:	012f1404 	teqeq	pc, r4, lsl #8
    1150:	99090000 	stmdbls	r9, {}	; <UNPREDICTABLE>
    1154:	04000004 	streq	r0, [r0], #-4
    1158:	00002c15 	andeq	r2, r0, r5, lsl ip
    115c:	84090000 	strhi	r0, [r9], #-0
    1160:	04000004 	streq	r0, [r0], #-4
    1164:	0000f718 	andeq	pc, r0, r8, lsl r7	; <UNPREDICTABLE>
    1168:	4f090400 	svcmi	0x00090400
    116c:	04000004 	streq	r0, [r0], #-4
    1170:	0000d11b 	andeq	sp, r0, fp, lsl r1
    1174:	04000800 	streq	r0, [r0], #-2048	; 0x800
    1178:	00000441 	andeq	r0, r0, r1, asr #8
    117c:	01022004 	tsteq	r2, r4
    1180:	8e0c0000 	cdphi	0, 0, cr0, cr12, cr0, {0}
    1184:	01000003 	tsteq	r0, r3
    1188:	00002506 	andeq	r2, r0, r6, lsl #10
    118c:	00876000 	addeq	r6, r7, r0
    1190:	00002000 	andeq	r2, r0, r0
    1194:	7a9c0100 	bvc	fe70159c <__bss_end__+0xfe6f76f4>
    1198:	0d000001 	stceq	0, cr0, [r0, #-4]
    119c:	06010063 	streq	r0, [r1], -r3, rrx
    11a0:	00000025 	andeq	r0, r0, r5, lsr #32
    11a4:	0000088b 	andeq	r0, r0, fp, lsl #17
    11a8:	0087740e 	addeq	r7, r7, lr, lsl #8
    11ac:	00027a00 	andeq	r7, r2, r0, lsl #20
    11b0:	51010f00 	tstpl	r1, r0, lsl #30
    11b4:	0f007402 	svceq	0x00007402
    11b8:	03055001 	movweq	r5, #20481	; 0x5001
    11bc:	00009e98 	muleq	r0, r8, lr
    11c0:	19100000 	ldmdbne	r0, {}	; <UNPREDICTABLE>
    11c4:	01000004 	tsteq	r0, r4
    11c8:	0087800b 	addeq	r8, r7, fp
    11cc:	00009000 	andeq	r9, r0, r0
    11d0:	279c0100 	ldrcs	r0, [ip, r0, lsl #2]
    11d4:	11000002 	tstne	r0, r2
    11d8:	000003a2 	andeq	r0, r0, r2, lsr #7
    11dc:	00250c01 	eoreq	r0, r5, r1, lsl #24
    11e0:	64110000 	ldrvs	r0, [r1], #-0
    11e4:	01000004 	tsteq	r0, r4
    11e8:	0000250c 	andeq	r2, r0, ip, lsl #10
    11ec:	00501200 	subseq	r1, r0, r0, lsl #4
    11f0:	0d010000 	stceq	0, cr0, [r1, #-0]
    11f4:	73736213 	cmnvc	r3, #805306369	; 0x30000001
    11f8:	270f0100 	strcs	r0, [pc, -r0, lsl #2]
    11fc:	a9000002 	stmdbge	r0, {r1}
    1200:	14000008 	strne	r0, [r0], #-8
    1204:	000003b0 			; <UNDEFINED> instruction: 0x000003b0
    1208:	02271001 	eoreq	r1, r7, #1
    120c:	63130000 	tstvs	r3, #0
    1210:	17010062 	strne	r0, [r1, -r2, rrx]
    1214:	0000022d 	andeq	r0, r0, sp, lsr #4
    1218:	000008c9 	andeq	r0, r0, r9, asr #17
    121c:	0087a815 	addeq	sl, r7, r5, lsl r8
    1220:	00029600 	andeq	r9, r2, r0, lsl #12
    1224:	87e41600 	strbhi	r1, [r4, r0, lsl #12]!
    1228:	02a10000 	adceq	r0, r1, #0
    122c:	01fd0000 	mvnseq	r0, r0
    1230:	010f0000 	mrseq	r0, CPSR
    1234:	50030551 	andpl	r0, r3, r1, asr r5
    1238:	0f000099 	svceq	0x00000099
    123c:	03055001 	movweq	r5, #20481	; 0x5001
    1240:	00009e98 	muleq	r0, r8, lr
    1244:	87ec1600 	strbhi	r1, [ip, r0, lsl #12]!
    1248:	02bc0000 	adcseq	r0, ip, #0
    124c:	02140000 	andseq	r0, r4, #0
    1250:	010f0000 	mrseq	r0, CPSR
    1254:	74030550 	strvc	r0, [r3], #-1360	; 0x550
    1258:	00000099 	muleq	r0, r9, r0
    125c:	0087f015 	addeq	pc, r7, r5, lsl r0	; <UNPREDICTABLE>
    1260:	0002d200 	andeq	sp, r2, r0, lsl #4
    1264:	87f41500 	ldrbhi	r1, [r4, r0, lsl #10]!
    1268:	02d90000 	sbcseq	r0, r9, #0
    126c:	05000000 	streq	r0, [r0, #-0]
    1270:	00002504 	andeq	r2, r0, r4, lsl #10
    1274:	2f040500 	svccs	0x00040500
    1278:	17000001 	strne	r0, [r0, -r1]
    127c:	000003c6 	andeq	r0, r0, r6, asr #7
    1280:	00d10501 	sbcseq	r0, r1, r1, lsl #10
    1284:	03050000 	movweq	r0, #20480	; 0x5000
    1288:	00009e98 	muleq	r0, r8, lr
    128c:	00002518 	andeq	r2, r0, r8, lsl r5
    1290:	00025300 	andeq	r5, r2, r0, lsl #6
    1294:	00251900 	eoreq	r1, r5, r0, lsl #18
    1298:	11000000 	mrsne	r0, (UNDEF: 0)
    129c:	000002bf 			; <UNDEFINED> instruction: 0x000002bf
    12a0:	025e1d05 	subseq	r1, lr, #320	; 0x140
    12a4:	04050000 	streq	r0, [r5], #-0
    12a8:	00000244 	andeq	r0, r0, r4, asr #4
    12ac:	0003a211 	andeq	sl, r3, r1, lsl r2
    12b0:	250c0100 	strcs	r0, [ip, #-256]	; 0x100
    12b4:	11000000 	mrsne	r0, (UNDEF: 0)
    12b8:	00000464 	andeq	r0, r0, r4, ror #8
    12bc:	00250c01 	eoreq	r0, r5, r1, lsl #24
    12c0:	2c1a0000 	ldccs	0, cr0, [sl], {-0}
    12c4:	03000004 	movweq	r0, #4
    12c8:	00029044 	andeq	r9, r2, r4, asr #32
    12cc:	02901900 	addseq	r1, r0, #0, 18
    12d0:	5a190000 	bpl	6412d8 <__bss_end__+0x637430>
    12d4:	00000000 	andeq	r0, r0, r0
    12d8:	00d10405 	sbcseq	r0, r1, r5, lsl #8
    12dc:	571b0000 	ldrpl	r0, [fp, -r0]
    12e0:	04000004 	streq	r0, [r0], #-4
    12e4:	00022d2a 	andeq	r2, r2, sl, lsr #26
    12e8:	03d31c00 	bicseq	r1, r3, #0, 24
    12ec:	15030000 	strne	r0, [r3, #-0]
    12f0:	00000025 	andeq	r0, r0, r5, lsr #32
    12f4:	000002bc 			; <UNDEFINED> instruction: 0x000002bc
    12f8:	00029019 	andeq	r9, r2, r9, lsl r0
    12fc:	008f1900 	addeq	r1, pc, r0, lsl #18
    1300:	001d0000 	andseq	r0, sp, r0
    1304:	00024f1c 	andeq	r4, r2, ip, lsl pc
    1308:	25290500 	strcs	r0, [r9, #-1280]!	; 0x500
    130c:	d2000000 	andle	r0, r0, #0
    1310:	19000002 	stmdbne	r0, {r1}
    1314:	0000008f 	andeq	r0, r0, pc, lsl #1
    1318:	5012001d 	andspl	r0, r2, sp, lsl r0
    131c:	05000000 	streq	r0, [r0, #-0]
    1320:	036012d1 	cmneq	r0, #268435469	; 0x1000000d
    1324:	63050000 	movwvs	r0, #20480	; 0x5000
    1328:	0001ad00 	andeq	sl, r1, r0, lsl #26
    132c:	15000400 	strne	r0, [r0, #-1024]	; 0x400
    1330:	04000009 	streq	r0, [r0], #-9
    1334:	0001f501 	andeq	pc, r1, r1, lsl #10
    1338:	04b90100 	ldrteq	r0, [r9], #256	; 0x100
    133c:	02600000 	rsbeq	r0, r0, #0
    1340:	00180000 	andseq	r0, r8, r0
    1344:	00000000 	andeq	r0, r0, r0
    1348:	07000000 	streq	r0, [r0, -r0]
    134c:	04020000 	streq	r0, [r2], #-0
    1350:	746e6905 	strbtvc	r6, [lr], #-2309	; 0x905
    1354:	07040300 	streq	r0, [r4, -r0, lsl #6]
    1358:	0000001e 	andeq	r0, r0, lr, lsl r0
    135c:	2d060103 	stfcss	f0, [r6, #-12]
    1360:	03000000 	movweq	r0, #0
    1364:	00c80502 	sbceq	r0, r8, r2, lsl #10
    1368:	04030000 	streq	r0, [r3], #-0
    136c:	00000505 	andeq	r0, r0, r5, lsl #10
    1370:	05080300 	streq	r0, [r8, #-768]	; 0x300
    1374:	00000000 	andeq	r0, r0, r0
    1378:	2b080103 	blcs	20178c <__bss_end__+0x1f78e4>
    137c:	03000000 	movweq	r0, #0
    1380:	00b50702 	adcseq	r0, r5, r2, lsl #14
    1384:	04030000 	streq	r0, [r3], #-0
    1388:	00001907 	andeq	r1, r0, r7, lsl #18
    138c:	07080300 	streq	r0, [r8, -r0, lsl #6]
    1390:	00000014 	andeq	r0, r0, r4, lsl r0
    1394:	4a070403 	bmi	1c23a8 <__bss_end__+0x1b8500>
    1398:	03000001 	movweq	r0, #1
    139c:	00340801 	eorseq	r0, r4, r1, lsl #16
    13a0:	9f040000 	svcls	0x00040000
    13a4:	01000004 	tsteq	r0, r4
    13a8:	0000250e 	andeq	r2, r0, lr, lsl #10
    13ac:	00881000 	addeq	r1, r8, r0
    13b0:	00001800 	andeq	r1, r0, r0, lsl #16
    13b4:	a29c0100 	addsge	r0, ip, #0, 2
    13b8:	05000000 	streq	r0, [r0, #-0]
    13bc:	0000050b 	andeq	r0, r0, fp, lsl #10
    13c0:	002c0f01 	eoreq	r0, ip, r1, lsl #30
    13c4:	08e90000 	stmiaeq	r9!, {}^	; <UNPREDICTABLE>
    13c8:	06000000 	streq	r0, [r0], -r0
    13cc:	000004ee 	andeq	r0, r0, lr, ror #9
    13d0:	88281701 	stmdahi	r8!, {r0, r8, r9, sl, ip}
    13d4:	00140000 	andseq	r0, r4, r0
    13d8:	9c010000 	stcls	0, cr0, [r1], {-0}
    13dc:	000000c7 	andeq	r0, r0, r7, asr #1
    13e0:	00050b05 	andeq	r0, r5, r5, lsl #22
    13e4:	2c180100 	ldfcss	f0, [r8], {-0}
    13e8:	08000000 	stmdaeq	r0, {}	; <UNPREDICTABLE>
    13ec:	00000009 	andeq	r0, r0, r9
    13f0:	00036006 	andeq	r6, r3, r6
    13f4:	3c1f0100 	ldfccs	f0, [pc], {-0}
    13f8:	48000088 	stmdami	r0, {r3, r7}
    13fc:	01000000 	mrseq	r0, (UNDEF: 0)
    1400:	0001779c 	muleq	r1, ip, r7
    1404:	05030700 	streq	r0, [r3, #-1792]	; 0x700
    1408:	2a010000 	bcs	41410 <__bss_end__+0x37568>
    140c:	00000177 	andeq	r0, r0, r7, ror r1
    1410:	2010001c 	andscs	r0, r0, ip, lsl r0
    1414:	0004e607 	andeq	lr, r4, r7, lsl #12
    1418:	772b0100 	strvc	r0, [fp, -r0, lsl #2]!
    141c:	24000001 	strcs	r0, [r0], #-1
    1420:	07201000 	streq	r1, [r0, -r0]!
    1424:	000004ad 	andeq	r0, r0, sp, lsr #9
    1428:	01772c01 	cmneq	r7, r1, lsl #24
    142c:	00000000 	andeq	r0, r0, r0
    1430:	cd085a00 	vstrgt	s10, [r8, #-0]
    1434:	01000004 	tsteq	r0, r4
    1438:	0001772d 	andeq	r7, r1, sp, lsr #14
    143c:	44092000 	strmi	r2, [r9], #-0
    1440:	79000088 	stmdbvc	r0, {r3, r7}
    1444:	09000000 	stmdbeq	r0, {}	; <UNPREDICTABLE>
    1448:	00008850 	andeq	r8, r0, r0, asr r8
    144c:	000000a2 	andeq	r0, r0, r2, lsr #1
    1450:	0088580a 	addeq	r5, r8, sl, lsl #16
    1454:	00018d00 	andeq	r8, r1, r0, lsl #26
    1458:	00013a00 	andeq	r3, r1, r0, lsl #20
    145c:	50010b00 	andpl	r0, r1, r0, lsl #22
    1460:	0a004e01 	beq	14c6c <__bss_end__+0xadc4>
    1464:	00008864 	andeq	r8, r0, r4, ror #16
    1468:	0000019e 	muleq	r0, lr, r1
    146c:	0000015a 	andeq	r0, r0, sl, asr r1
    1470:	0551010b 	ldrbeq	r0, [r1, #-267]	; 0x10b
    1474:	0000010c 	andeq	r0, r0, ip, lsl #2
    1478:	50010b5a 	andpl	r0, r1, sl, asr fp
    147c:	00240c05 	eoreq	r0, r4, r5, lsl #24
    1480:	0c002010 	stceq	0, cr2, [r0], {16}
    1484:	00008870 	andeq	r8, r0, r0, ror r8
    1488:	0000019e 	muleq	r0, lr, r1
    148c:	0551010b 	ldrbeq	r0, [r1, #-267]	; 0x10b
    1490:	0000200c 	andeq	r2, r0, ip
    1494:	50010b5a 	andpl	r0, r1, sl, asr fp
    1498:	001c0c05 	andseq	r0, ip, r5, lsl #24
    149c:	00002010 	andeq	r2, r0, r0, lsl r0
    14a0:	0000250d 	andeq	r2, r0, sp, lsl #10
    14a4:	04a20800 	strteq	r0, [r2], #2048	; 0x800
    14a8:	0d010000 	stceq	0, cr0, [r1, #-0]
    14ac:	00000188 	andeq	r0, r0, r8, lsl #3
    14b0:	002c0d10 	eoreq	r0, ip, r0, lsl sp
    14b4:	850e0000 	strhi	r0, [lr, #-0]
    14b8:	02000003 	andeq	r0, r0, #3
    14bc:	00019e50 	andeq	r9, r1, r0, asr lr
    14c0:	002c0f00 	eoreq	r0, ip, r0, lsl #30
    14c4:	10000000 	andne	r0, r0, r0
    14c8:	000004fd 	strdeq	r0, [r0], -sp
    14cc:	2c0f9c02 	stccs	12, cr9, [pc], {2}
    14d0:	0f000000 	svceq	0x00000000
    14d4:	0000002c 	andeq	r0, r0, ip, lsr #32
    14d8:	01d80000 	bicseq	r0, r8, r0
    14dc:	00040000 	andeq	r0, r4, r0
    14e0:	00000a03 	andeq	r0, r0, r3, lsl #20
    14e4:	01f50104 	mvnseq	r0, r4, lsl #2
    14e8:	2d010000 	stccs	0, cr0, [r1, #-0]
    14ec:	60000005 	andvs	r0, r0, r5
    14f0:	84000002 	strhi	r0, [r0], #-2
    14f4:	88000088 	stmdahi	r0, {r3, r7}
    14f8:	9d000000 	stcls	0, cr0, [r0, #-0]
    14fc:	02000007 	andeq	r0, r0, #7
    1500:	6e690504 	cdpvs	5, 6, cr0, cr9, cr4, {0}
    1504:	04030074 	streq	r0, [r3], #-116	; 0x74
    1508:	00001e07 	andeq	r1, r0, r7, lsl #28
    150c:	06010300 	streq	r0, [r1], -r0, lsl #6
    1510:	0000002d 	andeq	r0, r0, sp, lsr #32
    1514:	c8050203 	stmdagt	r5, {r0, r1, r9}
    1518:	03000000 	movweq	r0, #0
    151c:	00050504 	andeq	r0, r5, r4, lsl #10
    1520:	08030000 	stmdaeq	r3, {}	; <UNPREDICTABLE>
    1524:	00000005 	andeq	r0, r0, r5
    1528:	08010300 	stmdaeq	r1, {r8, r9}
    152c:	0000002b 	andeq	r0, r0, fp, lsr #32
    1530:	b5070203 	strlt	r0, [r7, #-515]	; 0x203
    1534:	03000000 	movweq	r0, #0
    1538:	00190704 	andseq	r0, r9, r4, lsl #14
    153c:	08030000 	stmdaeq	r3, {}	; <UNPREDICTABLE>
    1540:	00001407 	andeq	r1, r0, r7, lsl #8
    1544:	07040300 	streq	r0, [r4, -r0, lsl #6]
    1548:	0000014a 	andeq	r0, r0, sl, asr #2
    154c:	34080103 	strcc	r0, [r8], #-259	; 0x103
    1550:	04000000 	streq	r0, [r0], #-0
    1554:	0000054c 	andeq	r0, r0, ip, asr #10
    1558:	88840501 	stmhi	r4, {r0, r8, sl}
    155c:	001c0000 	andseq	r0, ip, r0
    1560:	9c010000 	stcls	0, cr0, [r1], {-0}
    1564:	0000009e 	muleq	r0, lr, r0
    1568:	00054605 	andeq	r4, r5, r5, lsl #12
    156c:	2c050100 	stfcss	f0, [r5], {-0}
    1570:	32000000 	andcc	r0, r0, #0
    1574:	00000009 	andeq	r0, r0, r9
    1578:	00051006 	andeq	r1, r5, r6
    157c:	2c0b0100 	stfcss	f0, [fp], {-0}
    1580:	a0000000 	andge	r0, r0, r0
    1584:	14000088 	strne	r0, [r0], #-136	; 0x88
    1588:	01000000 	mrseq	r0, (UNDEF: 0)
    158c:	0000cb9c 	muleq	r0, ip, fp
    1590:	88ac0700 	stmiahi	ip!, {r8, r9, sl}
    1594:	01ca0000 	biceq	r0, sl, r0
    1598:	01080000 	mrseq	r0, (UNDEF: 8)
    159c:	040c0550 	streq	r0, [ip], #-1360	; 0x550
    15a0:	00200030 	eoreq	r0, r0, r0, lsr r0
    15a4:	05620600 	strbeq	r0, [r2, #-1536]!	; 0x600
    15a8:	10010000 	andne	r0, r1, r0
    15ac:	0000002c 	andeq	r0, r0, ip, lsr #32
    15b0:	000088b4 			; <UNDEFINED> instruction: 0x000088b4
    15b4:	0000000c 	andeq	r0, r0, ip
    15b8:	00f99c01 	rscseq	r9, r9, r1, lsl #24
    15bc:	75090000 	strvc	r0, [r9, #-0]
    15c0:	2c140100 	ldfcss	f0, [r4], {-0}
    15c4:	01000000 	mrseq	r0, (UNDEF: 0)
    15c8:	88bc0a50 	ldmhi	ip!, {r4, r6, r9, fp}
    15cc:	009e0000 	addseq	r0, lr, r0
    15d0:	04000000 	streq	r0, [r0], #-0
    15d4:	00000559 	andeq	r0, r0, r9, asr r5
    15d8:	88c01901 	stmiahi	r0, {r0, r8, fp, ip}^
    15dc:	00240000 	eoreq	r0, r4, r0
    15e0:	9c010000 	stcls	0, cr0, [r1], {-0}
    15e4:	00000157 	andeq	r0, r0, r7, asr r1
    15e8:	0073750b 	rsbseq	r7, r3, fp, lsl #10
    15ec:	002c1901 	eoreq	r1, ip, r1, lsl #18
    15f0:	09660000 	stmdbeq	r6!, {}^	; <UNPREDICTABLE>
    15f4:	72090000 	andvc	r0, r9, #0
    15f8:	1a010062 	bne	41788 <__bss_end__+0x378e0>
    15fc:	0000002c 	andeq	r0, r0, ip, lsr #32
    1600:	d00c5401 	andle	r5, ip, r1, lsl #8
    1604:	10000088 	andne	r0, r0, r8, lsl #1
    1608:	4d000000 	stcmi	0, cr0, [r0, #-0]
    160c:	0d000001 	stceq	0, cr0, [r0, #-4]
    1610:	01006172 	tsteq	r0, r2, ror r1
    1614:	00002c1c 	andeq	r2, r0, ip, lsl ip
    1618:	00098400 	andeq	r8, r9, r0, lsl #8
    161c:	88d40a00 	ldmhi	r4, {r9, fp}^
    1620:	00cb0000 	sbceq	r0, fp, r0
    1624:	0a000000 	beq	162c <_start-0x69d4>
    1628:	000088cc 	andeq	r8, r0, ip, asr #17
    162c:	000000cb 	andeq	r0, r0, fp, asr #1
    1630:	03850400 	orreq	r0, r5, #0, 8
    1634:	22010000 	andcs	r0, r1, #0
    1638:	000088e4 	andeq	r8, r0, r4, ror #17
    163c:	00000014 	andeq	r0, r0, r4, lsl r0
    1640:	01909c01 	orrseq	r9, r0, r1, lsl #24
    1644:	6d0b0000 	stcvs	0, cr0, [fp, #-0]
    1648:	22010073 	andcs	r0, r1, #115	; 0x73
    164c:	0000002c 	andeq	r0, r0, ip, lsr #32
    1650:	00000997 	muleq	r0, r7, r9
    1654:	0088f407 	addeq	pc, r8, r7, lsl #8
    1658:	0000f900 	andeq	pc, r0, r0, lsl #18
    165c:	50010800 	andpl	r0, r1, r0, lsl #16
    1660:	5001f307 	andpl	pc, r1, r7, lsl #6
    1664:	1e03e80a 	cdpne	8, 0, cr14, cr3, cr10, {0}
    1668:	23040000 	movwcs	r0, #16384	; 0x4000
    166c:	01000005 	tsteq	r0, r5
    1670:	0088f825 	addeq	pc, r8, r5, lsr #16
    1674:	00001400 	andeq	r1, r0, r0, lsl #8
    1678:	ca9c0100 	bgt	fe701a80 <__bss_end__+0xfe6f7bd8>
    167c:	0b000001 	bleq	1688 <_start-0x6978>
    1680:	00636573 	rsbeq	r6, r3, r3, ror r5
    1684:	002c2501 	eoreq	r2, ip, r1, lsl #10
    1688:	09b80000 	ldmibeq	r8!, {}	; <UNPREDICTABLE>
    168c:	08070000 	stmdaeq	r7, {}	; <UNPREDICTABLE>
    1690:	57000089 	strpl	r0, [r0, -r9, lsl #1]
    1694:	08000001 	stmdaeq	r0, {r0}
    1698:	f3075001 	vhadd.u8	d5, d7, d1
    169c:	e80a5001 	stmda	sl, {r0, ip, lr}
    16a0:	00001e03 	andeq	r1, r0, r3, lsl #28
    16a4:	0005400e 	andeq	r4, r5, lr
    16a8:	2ca80200 	sfmcs	f0, 4, [r8]
    16ac:	0f000000 	svceq	0x00000000
    16b0:	0000002c 	andeq	r0, r0, ip, lsr #32
    16b4:	11f20000 	mvnsne	r0, r0
    16b8:	00040000 	andeq	r0, r4, r0
    16bc:	00000ae6 	andeq	r0, r0, r6, ror #21
    16c0:	01f50104 	mvnseq	r0, r4, lsl #2
    16c4:	10010000 	andne	r0, r1, r0
    16c8:	60000006 	andvs	r0, r0, r6
    16cc:	0c000002 	stceq	0, cr0, [r0], {2}
    16d0:	68000089 	stmdavs	r0, {r0, r3, r7}
    16d4:	44000006 	strmi	r0, [r0], #-6
    16d8:	02000008 	andeq	r0, r0, #8
    16dc:	6e690504 	cdpvs	5, 6, cr0, cr9, cr4, {0}
    16e0:	04030074 	streq	r0, [r3], #-116	; 0x74
    16e4:	00001e07 	andeq	r1, r0, r7, lsl #28
    16e8:	06010300 	streq	r0, [r1], -r0, lsl #6
    16ec:	0000002d 	andeq	r0, r0, sp, lsr #32
    16f0:	c8050203 	stmdagt	r5, {r0, r1, r9}
    16f4:	03000000 	movweq	r0, #0
    16f8:	00050504 	andeq	r0, r5, r4, lsl #10
    16fc:	08030000 	stmdaeq	r3, {}	; <UNPREDICTABLE>
    1700:	00000005 	andeq	r0, r0, r5
    1704:	04390400 	ldrteq	r0, [r9], #-1024	; 0x400
    1708:	2e030000 	cdpcs	0, 0, cr0, cr3, cr0, {0}
    170c:	0000005a 	andeq	r0, r0, sl, asr r0
    1710:	2b080103 	blcs	201b24 <__bss_end__+0x1f7c7c>
    1714:	03000000 	movweq	r0, #0
    1718:	00b50702 	adcseq	r0, r5, r2, lsl #14
    171c:	90040000 	andls	r0, r4, r0
    1720:	03000004 	movweq	r0, #4
    1724:	00007334 	andeq	r7, r0, r4, lsr r3
    1728:	07040300 	streq	r0, [r4, -r0, lsl #6]
    172c:	00000019 	andeq	r0, r0, r9, lsl r0
    1730:	14070803 	strne	r0, [r7], #-2051	; 0x803
    1734:	03000000 	movweq	r0, #0
    1738:	014a0704 	cmpeq	sl, r4, lsl #14
    173c:	04050000 	streq	r0, [r5], #-0
    1740:	00900406 	addseq	r0, r0, r6, lsl #8
    1744:	01030000 	mrseq	r0, (UNDEF: 3)
    1748:	00003408 	andeq	r3, r0, r8, lsl #8
    174c:	9d040600 	stcls	6, cr0, [r4, #-0]
    1750:	07000000 	streq	r0, [r0, -r0]
    1754:	00000090 	muleq	r0, r0, r0
    1758:	0e040c08 	cdpeq	12, 0, cr0, cr4, cr8, {0}
    175c:	000000d9 	ldrdeq	r0, [r0], -r9
    1760:	00787409 	rsbseq	r7, r8, r9, lsl #8
    1764:	004f0f04 	subeq	r0, pc, r4, lsl #30
    1768:	09000000 	stmdbeq	r0, {}	; <UNPREDICTABLE>
    176c:	04007872 	streq	r7, [r0], #-2162	; 0x872
    1770:	00004f0f 	andeq	r4, r0, pc, lsl #30
    1774:	070a0100 	streq	r0, [sl, -r0, lsl #2]
    1778:	04000004 	streq	r0, [r0], #-4
    177c:	00006810 	andeq	r6, r0, r0, lsl r8
    1780:	b80a0400 	stmdalt	sl, {sl}
    1784:	04000003 	streq	r0, [r0], #-3
    1788:	00006811 	andeq	r6, r0, r1, lsl r8
    178c:	04000800 	streq	r0, [r0], #-2048	; 0x800
    1790:	000003f0 	strdeq	r0, [r0], -r0	; <UNPREDICTABLE>
    1794:	00a21204 	adceq	r1, r2, r4, lsl #4
    1798:	d8040000 	stmdale	r4, {}	; <UNPREDICTABLE>
    179c:	05000001 	streq	r0, [r0, #-1]
    17a0:	0000ef28 	andeq	lr, r0, r8, lsr #30
    17a4:	02560b00 	subseq	r0, r6, #0, 22
    17a8:	09040000 	stmdbeq	r4, {}	; <UNPREDICTABLE>
    17ac:	00010600 	andeq	r0, r1, r0, lsl #12
    17b0:	02a90c00 	adceq	r0, r9, #0, 24
    17b4:	00880000 	addeq	r0, r8, r0
    17b8:	00000000 	andeq	r0, r0, r0
    17bc:	00025804 	andeq	r5, r2, r4, lsl #16
    17c0:	e4620500 	strbt	r0, [r2], #-1280	; 0x500
    17c4:	0d000000 	stceq	0, cr0, [r0, #-0]
    17c8:	000005ca 	andeq	r0, r0, sl, asr #11
    17cc:	3f030902 	svccc	0x00030902
    17d0:	0e000001 	cdpeq	0, 0, cr0, cr0, cr1, {0}
    17d4:	0000041b 	andeq	r0, r0, fp, lsl r4
    17d8:	002c0902 	eoreq	r0, ip, r2, lsl #18
    17dc:	6e0f0000 	cdpvs	0, 0, cr0, cr15, cr0, {0}
    17e0:	2c090200 	sfmcs	f0, 4, [r9], {-0}
    17e4:	10000000 	andne	r0, r0, r0
    17e8:	0001c411 	andeq	ip, r1, r1, lsl r4
    17ec:	2c0c0200 	sfmcs	f0, 4, [ip], {-0}
    17f0:	00000000 	andeq	r0, r0, r0
    17f4:	057d0d00 	ldrbeq	r0, [sp, #-3328]!	; 0xd00
    17f8:	17020000 	strne	r0, [r2, -r0]
    17fc:	00017603 	andeq	r7, r1, r3, lsl #12
    1800:	69700f00 	ldmdbvs	r0!, {r8, r9, sl, fp}^
    1804:	1702006e 	strne	r0, [r2, -lr, rrx]
    1808:	0000002c 	andeq	r0, r0, ip, lsr #32
    180c:	0200760f 	andeq	r7, r0, #15728640	; 0xf00000
    1810:	00002c17 	andeq	r2, r0, r7, lsl ip
    1814:	041b0e00 	ldreq	r0, [fp], #-3584	; 0xe00
    1818:	17020000 	strne	r0, [r2, -r0]
    181c:	0000002c 	andeq	r0, r0, ip, lsr #32
    1820:	0005d00e 	andeq	sp, r5, lr
    1824:	2c170200 	lfmcs	f0, 4, [r7], {-0}
    1828:	00000000 	andeq	r0, r0, r0
    182c:	00042c12 	andeq	r2, r4, r2, lsl ip
    1830:	0c090100 	stfeqs	f0, [r9], {-0}
    1834:	54000089 	strpl	r0, [r0], #-137	; 0x89
    1838:	01000001 	tsteq	r0, r1
    183c:	0007229c 	muleq	r7, ip, r2
    1840:	03ce1300 	biceq	r1, lr, #0, 6
    1844:	09010000 	stmdbeq	r1, {}	; <UNPREDICTABLE>
    1848:	00000722 	andeq	r0, r0, r2, lsr #14
    184c:	000009d9 	ldrdeq	r0, [r0], -r9
    1850:	01006314 	tsteq	r0, r4, lsl r3
    1854:	00005a09 	andeq	r5, r0, r9, lsl #20
    1858:	0009fa00 	andeq	pc, r9, r0, lsl #20
    185c:	78741500 	ldmdavc	r4!, {r8, sl, ip}^
    1860:	250b0100 	strcs	r0, [fp, #-256]	; 0x100
    1864:	06000000 	streq	r0, [r0], -r0
    1868:	ff080076 			; <UNDEFINED> instruction: 0xff080076
    186c:	6e169f1a 	mrcvs	15, 0, r9, cr6, cr10, {0}
    1870:	680c0100 	stmdavs	ip, {r8}
    1874:	1b000000 	blne	187c <_start-0x6784>
    1878:	1600000a 	strne	r0, [r0], -sl
    187c:	0d010075 	stceq	0, cr0, [r1, #-468]	; 0xfffffe2c
    1880:	00000068 	andeq	r0, r0, r8, rrx
    1884:	00000a2e 	andeq	r0, r0, lr, lsr #20
    1888:	01007315 	tsteq	r0, r5, lsl r3
    188c:	0000680e 	andeq	r6, r0, lr, lsl #16
    1890:	17540100 	ldrbne	r0, [r4, -r0, lsl #2]
    1894:	0000891c 	andeq	r8, r0, ip, lsl r9
    1898:	00000004 	andeq	r0, r0, r4
    189c:	000001f8 	strdeq	r0, [r0], -r8
    18a0:	0001c418 	andeq	ip, r1, r8, lsl r4
    18a4:	2c0e0100 	stfcss	f0, [lr], {-0}
    18a8:	01000000 	mrseq	r0, (UNDEF: 0)
    18ac:	3f190054 	svccc	0x00190054
    18b0:	20000001 	andcs	r0, r0, r1
    18b4:	1c000089 	stcne	0, cr0, [r0], {137}	; 0x89
    18b8:	01000000 	mrseq	r0, (UNDEF: 0)
    18bc:	00027511 	andeq	r7, r2, r1, lsl r5
    18c0:	016a1a00 	cmneq	sl, r0, lsl #20
    18c4:	0a570000 	beq	15c18cc <__bss_end__+0x15b7a24>
    18c8:	5f1b0000 	svcpl	0x001b0000
    18cc:	01000001 	tsteq	r0, r1
    18d0:	01561c54 	cmpeq	r6, r4, asr ip
    18d4:	1b000000 	blne	18dc <_start-0x6724>
    18d8:	0000014b 	andeq	r0, r0, fp, asr #2
    18dc:	11195601 	tstne	r9, r1, lsl #12
    18e0:	2c000001 	stccs	0, cr0, [r0], {1}
    18e4:	10000089 	andne	r0, r0, r9, lsl #1
    18e8:	02000000 	andeq	r0, r0, #0
    18ec:	00025f1a 	andeq	r5, r2, sl, lsl pc
    18f0:	01281a00 	teqeq	r8, r0, lsl #20
    18f4:	0a6a0000 	beq	1a818fc <__bss_end__+0x1a77a54>
    18f8:	1d1b0000 	ldcne	0, cr0, [fp, #-0]
    18fc:	01000001 	tsteq	r0, r1
    1900:	892c1d54 	stmdbhi	ip!, {r2, r4, r6, r8, sl, fp, ip}
    1904:	00040000 	andeq	r0, r4, r0
    1908:	321e0000 	andscc	r0, lr, #0
    190c:	7d000001 	stcvc	0, cr0, [r0, #-4]
    1910:	0000000a 	andeq	r0, r0, sl
    1914:	892c1f00 	stmdbhi	ip!, {r8, r9, sl, fp, ip}
    1918:	11590000 	cmpne	r9, r0
    191c:	01200000 	teqeq	r0, r0
    1920:	20300151 	eorscs	r0, r0, r1, asr r1
    1924:	76025001 	strvc	r5, [r2], -r1
    1928:	19000000 	stmdbne	r0, {}	; <UNPREDICTABLE>
    192c:	0000013f 	andeq	r0, r0, pc, lsr r1
    1930:	00008940 	andeq	r8, r0, r0, asr #18
    1934:	0000001c 	andeq	r0, r0, ip, lsl r0
    1938:	02f81301 	rscseq	r1, r8, #67108864	; 0x4000000
    193c:	6a1a0000 	bvs	681944 <__bss_end__+0x677a9c>
    1940:	90000001 	andls	r0, r0, r1
    1944:	1b00000a 	blne	1974 <_start-0x668c>
    1948:	0000015f 	andeq	r0, r0, pc, asr r1
    194c:	561a5401 	ldrpl	r5, [sl], -r1, lsl #8
    1950:	b2000001 	andlt	r0, r0, #1
    1954:	1b00000a 	blne	1984 <_start-0x667c>
    1958:	0000014b 	andeq	r0, r0, fp, asr #2
    195c:	11195601 	tstne	r9, r1, lsl #12
    1960:	4c000001 	stcmi	0, cr0, [r0], {1}
    1964:	10000089 	andne	r0, r0, r9, lsl #1
    1968:	02000000 	andeq	r0, r0, #0
    196c:	0002df1a 	andeq	sp, r2, sl, lsl pc
    1970:	01281a00 	teqeq	r8, r0, lsl #20
    1974:	0ae30000 	beq	ff8c197c <__bss_end__+0xff8b7ad4>
    1978:	1d1b0000 	ldcne	0, cr0, [fp, #-0]
    197c:	01000001 	tsteq	r0, r1
    1980:	894c1d54 	stmdbhi	ip, {r2, r4, r6, r8, sl, fp, ip}^
    1984:	00040000 	andeq	r0, r4, r0
    1988:	321e0000 	andscc	r0, lr, #0
    198c:	05000001 	streq	r0, [r0, #-1]
    1990:	0000000b 	andeq	r0, r0, fp
    1994:	894c1f00 	stmdbhi	ip, {r8, r9, sl, fp, ip}^
    1998:	11590000 	cmpne	r9, r0
    199c:	01200000 	teqeq	r0, r0
    19a0:	00770451 	rsbseq	r0, r7, r1, asr r4
    19a4:	01201a31 	teqeq	r0, r1, lsr sl
    19a8:	00760250 	rsbseq	r0, r6, r0, asr r2
    19ac:	3f190000 	svccc	0x00190000
    19b0:	60000001 	andvs	r0, r0, r1
    19b4:	1c000089 	stcne	0, cr0, [r0], {137}	; 0x89
    19b8:	01000000 	mrseq	r0, (UNDEF: 0)
    19bc:	00038015 	andeq	r8, r3, r5, lsl r0
    19c0:	016a1a00 	cmneq	sl, r0, lsl #20
    19c4:	0b180000 	bleq	6019cc <__bss_end__+0x5f7b24>
    19c8:	5f1b0000 	svcpl	0x001b0000
    19cc:	01000001 	tsteq	r0, r1
    19d0:	01561b54 	cmpeq	r6, r4, asr fp
    19d4:	77080000 	strvc	r0, [r8, -r0]
    19d8:	081a3200 	ldmdaeq	sl, {r9, ip, sp}
    19dc:	1b9f1aff 	blne	fe7c85e0 <__bss_end__+0xfe7be738>
    19e0:	0000014b 	andeq	r0, r0, fp, asr #2
    19e4:	11195601 	tstne	r9, r1, lsl #12
    19e8:	6c000001 	stcvs	0, cr0, [r0], {1}
    19ec:	10000089 	andne	r0, r0, r9, lsl #1
    19f0:	02000000 	andeq	r0, r0, #0
    19f4:	0003671a 	andeq	r6, r3, sl, lsl r7
    19f8:	01281a00 	teqeq	r8, r0, lsl #20
    19fc:	0b3d0000 	bleq	f41a04 <__bss_end__+0xf37b5c>
    1a00:	1d1b0000 	ldcne	0, cr0, [fp, #-0]
    1a04:	01000001 	tsteq	r0, r1
    1a08:	896c1d54 	stmdbhi	ip!, {r2, r4, r6, r8, sl, fp, ip}^
    1a0c:	00040000 	andeq	r0, r4, r0
    1a10:	321e0000 	andscc	r0, lr, #0
    1a14:	62000001 	andvs	r0, r0, #1
    1a18:	0000000b 	andeq	r0, r0, fp
    1a1c:	896c1f00 	stmdbhi	ip!, {r8, r9, sl, fp, ip}^
    1a20:	11590000 	cmpne	r9, r0
    1a24:	01200000 	teqeq	r0, r0
    1a28:	00770451 	rsbseq	r0, r7, r1, asr r4
    1a2c:	01201a32 	teqeq	r0, r2, lsr sl
    1a30:	00760250 	rsbseq	r0, r6, r0, asr r2
    1a34:	3f190000 	svccc	0x00190000
    1a38:	80000001 	andhi	r0, r0, r1
    1a3c:	1c000089 	stcne	0, cr0, [r0], {137}	; 0x89
    1a40:	01000000 	mrseq	r0, (UNDEF: 0)
    1a44:	00040817 	andeq	r0, r4, r7, lsl r8
    1a48:	016a1a00 	cmneq	sl, r0, lsl #20
    1a4c:	0b750000 	bleq	1d41a54 <__bss_end__+0x1d37bac>
    1a50:	5f1b0000 	svcpl	0x001b0000
    1a54:	01000001 	tsteq	r0, r1
    1a58:	01561b54 	cmpeq	r6, r4, asr fp
    1a5c:	77080000 	strvc	r0, [r8, -r0]
    1a60:	081a3400 	ldmdaeq	sl, {sl, ip, sp}
    1a64:	1b9f1aff 	blne	fe7c8668 <__bss_end__+0xfe7be7c0>
    1a68:	0000014b 	andeq	r0, r0, fp, asr #2
    1a6c:	11195601 	tstne	r9, r1, lsl #12
    1a70:	8c000001 	stchi	0, cr0, [r0], {1}
    1a74:	10000089 	andne	r0, r0, r9, lsl #1
    1a78:	02000000 	andeq	r0, r0, #0
    1a7c:	0003ef1a 	andeq	lr, r3, sl, lsl pc
    1a80:	01281a00 	teqeq	r8, r0, lsl #20
    1a84:	0b970000 	bleq	fe5c1a8c <__bss_end__+0xfe5b7be4>
    1a88:	1d1b0000 	ldcne	0, cr0, [fp, #-0]
    1a8c:	01000001 	tsteq	r0, r1
    1a90:	898c1d54 	stmibhi	ip, {r2, r4, r6, r8, sl, fp, ip}
    1a94:	00040000 	andeq	r0, r4, r0
    1a98:	321e0000 	andscc	r0, lr, #0
    1a9c:	b9000001 	stmdblt	r0, {r0}
    1aa0:	0000000b 	andeq	r0, r0, fp
    1aa4:	898c1f00 	stmibhi	ip, {r8, r9, sl, fp, ip}
    1aa8:	11590000 	cmpne	r9, r0
    1aac:	01200000 	teqeq	r0, r0
    1ab0:	00770451 	rsbseq	r0, r7, r1, asr r4
    1ab4:	01201a34 	teqeq	r0, r4, lsr sl
    1ab8:	00760250 	rsbseq	r0, r6, r0, asr r2
    1abc:	3f190000 	svccc	0x00190000
    1ac0:	a0000001 	andge	r0, r0, r1
    1ac4:	1c000089 	stcne	0, cr0, [r0], {137}	; 0x89
    1ac8:	01000000 	mrseq	r0, (UNDEF: 0)
    1acc:	00049019 	andeq	r9, r4, r9, lsl r0
    1ad0:	016a1a00 	cmneq	sl, r0, lsl #20
    1ad4:	0bcc0000 	bleq	ff301adc <__bss_end__+0xff2f7c34>
    1ad8:	5f1b0000 	svcpl	0x001b0000
    1adc:	01000001 	tsteq	r0, r1
    1ae0:	01561b54 	cmpeq	r6, r4, asr fp
    1ae4:	77080000 	strvc	r0, [r8, -r0]
    1ae8:	081a3800 	ldmdaeq	sl, {fp, ip, sp}
    1aec:	1b9f1aff 	blne	fe7c86f0 <__bss_end__+0xfe7be848>
    1af0:	0000014b 	andeq	r0, r0, fp, asr #2
    1af4:	11195601 	tstne	r9, r1, lsl #12
    1af8:	ac000001 	stcge	0, cr0, [r0], {1}
    1afc:	10000089 	andne	r0, r0, r9, lsl #1
    1b00:	02000000 	andeq	r0, r0, #0
    1b04:	0004771a 	andeq	r7, r4, sl, lsl r7
    1b08:	01281a00 	teqeq	r8, r0, lsl #20
    1b0c:	0bf10000 	bleq	ffc41b14 <__bss_end__+0xffc37c6c>
    1b10:	1d1b0000 	ldcne	0, cr0, [fp, #-0]
    1b14:	01000001 	tsteq	r0, r1
    1b18:	89ac1d54 	stmibhi	ip!, {r2, r4, r6, r8, sl, fp, ip}
    1b1c:	00040000 	andeq	r0, r4, r0
    1b20:	321e0000 	andscc	r0, lr, #0
    1b24:	16000001 	strne	r0, [r0], -r1
    1b28:	0000000c 	andeq	r0, r0, ip
    1b2c:	89ac1f00 	stmibhi	ip!, {r8, r9, sl, fp, ip}
    1b30:	11590000 	cmpne	r9, r0
    1b34:	01200000 	teqeq	r0, r0
    1b38:	00770451 	rsbseq	r0, r7, r1, asr r4
    1b3c:	01201a38 	teqeq	r0, r8, lsr sl
    1b40:	00760250 	rsbseq	r0, r6, r0, asr r2
    1b44:	3f190000 	svccc	0x00190000
    1b48:	c0000001 	andgt	r0, r0, r1
    1b4c:	1c000089 	stcne	0, cr0, [r0], {137}	; 0x89
    1b50:	01000000 	mrseq	r0, (UNDEF: 0)
    1b54:	0005181b 	andeq	r1, r5, fp, lsl r8
    1b58:	016a1a00 	cmneq	sl, r0, lsl #20
    1b5c:	0c290000 	stceq	0, cr0, [r9], #-0
    1b60:	5f1b0000 	svcpl	0x001b0000
    1b64:	01000001 	tsteq	r0, r1
    1b68:	01561b54 	cmpeq	r6, r4, asr fp
    1b6c:	77080000 	strvc	r0, [r8, -r0]
    1b70:	081a4000 	ldmdaeq	sl, {lr}
    1b74:	1b9f1aff 	blne	fe7c8778 <__bss_end__+0xfe7be8d0>
    1b78:	0000014b 	andeq	r0, r0, fp, asr #2
    1b7c:	11195601 	tstne	r9, r1, lsl #12
    1b80:	cc000001 	stcgt	0, cr0, [r0], {1}
    1b84:	10000089 	andne	r0, r0, r9, lsl #1
    1b88:	02000000 	andeq	r0, r0, #0
    1b8c:	0004ff1a 	andeq	pc, r4, sl, lsl pc	; <UNPREDICTABLE>
    1b90:	01281a00 	teqeq	r8, r0, lsl #20
    1b94:	0c500000 	mraeq	r0, r0, acc0
    1b98:	1d1b0000 	ldcne	0, cr0, [fp, #-0]
    1b9c:	01000001 	tsteq	r0, r1
    1ba0:	89cc1d54 	stmibhi	ip, {r2, r4, r6, r8, sl, fp, ip}^
    1ba4:	00040000 	andeq	r0, r4, r0
    1ba8:	321e0000 	andscc	r0, lr, #0
    1bac:	77000001 	strvc	r0, [r0, -r1]
    1bb0:	0000000c 	andeq	r0, r0, ip
    1bb4:	89cc1f00 	stmibhi	ip, {r8, r9, sl, fp, ip}^
    1bb8:	11590000 	cmpne	r9, r0
    1bbc:	01200000 	teqeq	r0, r0
    1bc0:	00770451 	rsbseq	r0, r7, r1, asr r4
    1bc4:	01201a40 	teqeq	r0, r0, asr #20
    1bc8:	00760250 	rsbseq	r0, r6, r0, asr r2
    1bcc:	3f190000 	svccc	0x00190000
    1bd0:	e0000001 	and	r0, r0, r1
    1bd4:	1c000089 	stcne	0, cr0, [r0], {137}	; 0x89
    1bd8:	01000000 	mrseq	r0, (UNDEF: 0)
    1bdc:	0005a21d 	andeq	sl, r5, sp, lsl r2
    1be0:	016a1a00 	cmneq	sl, r0, lsl #20
    1be4:	0c8a0000 	stceq	0, cr0, [sl], {0}
    1be8:	5f1b0000 	svcpl	0x001b0000
    1bec:	01000001 	tsteq	r0, r1
    1bf0:	01561b54 	cmpeq	r6, r4, asr fp
    1bf4:	77090000 	strvc	r0, [r9, -r0]
    1bf8:	1a200800 	bne	803c00 <__bss_end__+0x7f9d58>
    1bfc:	9f1aff08 	svcls	0x001aff08
    1c00:	00014b1b 	andeq	r4, r1, fp, lsl fp
    1c04:	19560100 	ldmdbne	r6, {r8}^
    1c08:	00000111 	andeq	r0, r0, r1, lsl r1
    1c0c:	000089ec 	andeq	r8, r0, ip, ror #19
    1c10:	00000010 	andeq	r0, r0, r0, lsl r0
    1c14:	05881a02 	streq	r1, [r8, #2562]	; 0xa02
    1c18:	281a0000 	ldmdacs	sl, {}	; <UNPREDICTABLE>
    1c1c:	b4000001 	strlt	r0, [r0], #-1
    1c20:	1b00000c 	blne	1c58 <_start-0x63a8>
    1c24:	0000011d 	andeq	r0, r0, sp, lsl r1
    1c28:	ec1d5401 	cfldrs	mvf5, [sp], {1}
    1c2c:	04000089 	streq	r0, [r0], #-137	; 0x89
    1c30:	1e000000 	cdpne	0, 0, cr0, cr0, cr0, {0}
    1c34:	00000132 	andeq	r0, r0, r2, lsr r1
    1c38:	00000cde 	ldrdeq	r0, [r0], -lr
    1c3c:	ec1f0000 	ldc	0, cr0, [pc], {-0}
    1c40:	59000089 	stmdbpl	r0, {r0, r3, r7}
    1c44:	20000011 	andcs	r0, r0, r1, lsl r0
    1c48:	77055101 	strvc	r5, [r5, -r1, lsl #2]
    1c4c:	1a200800 	bne	803c54 <__bss_end__+0x7f9dac>
    1c50:	02500120 	subseq	r0, r0, #32, 2
    1c54:	00000076 	andeq	r0, r0, r6, ror r0
    1c58:	00013f19 	andeq	r3, r1, r9, lsl pc
    1c5c:	008a0000 	addeq	r0, sl, r0
    1c60:	00001c00 	andeq	r1, r0, r0, lsl #24
    1c64:	2c1f0100 	ldfcss	f0, [pc], {-0}
    1c68:	1a000006 	bne	1c88 <_start-0x6378>
    1c6c:	0000016a 	andeq	r0, r0, sl, ror #2
    1c70:	00000cf1 	strdeq	r0, [r0], -r1
    1c74:	00015f1b 	andeq	r5, r1, fp, lsl pc
    1c78:	1b540100 	blne	1502080 <__bss_end__+0x14f81d8>
    1c7c:	00000156 	andeq	r0, r0, r6, asr r1
    1c80:	08007709 	stmdaeq	r0, {r0, r3, r8, r9, sl, ip, sp, lr}
    1c84:	ff081a40 			; <UNDEFINED> instruction: 0xff081a40
    1c88:	4b1b9f1a 	blmi	6e98f8 <__bss_end__+0x6dfa50>
    1c8c:	01000001 	tsteq	r0, r1
    1c90:	01111956 	tsteq	r1, r6, asr r9
    1c94:	8a0c0000 	bhi	301c9c <__bss_end__+0x2f7df4>
    1c98:	00100000 	andseq	r0, r0, r0
    1c9c:	1a020000 	bne	81ca4 <__bss_end__+0x77dfc>
    1ca0:	00000612 	andeq	r0, r0, r2, lsl r6
    1ca4:	0001281a 	andeq	r2, r1, sl, lsl r8
    1ca8:	000d1300 	andeq	r1, sp, r0, lsl #6
    1cac:	011d1b00 	tsteq	sp, r0, lsl #22
    1cb0:	54010000 	strpl	r0, [r1], #-0
    1cb4:	008a0c1d 	addeq	r0, sl, sp, lsl ip
    1cb8:	00000400 	andeq	r0, r0, r0, lsl #8
    1cbc:	01321e00 	teqeq	r2, r0, lsl #28
    1cc0:	0d350000 	ldceq	0, cr0, [r5, #-0]
    1cc4:	00000000 	andeq	r0, r0, r0
    1cc8:	008a0c1f 	addeq	r0, sl, pc, lsl ip
    1ccc:	00115900 	andseq	r5, r1, r0, lsl #18
    1cd0:	51012000 	mrspl	r2, (UNDEF: 1)
    1cd4:	08007705 	stmdaeq	r0, {r0, r2, r8, r9, sl, ip, sp, lr}
    1cd8:	01201a40 	teqeq	r0, r0, asr #20
    1cdc:	00760250 	rsbseq	r0, r6, r0, asr r2
    1ce0:	3f190000 	svccc	0x00190000
    1ce4:	20000001 	andcs	r0, r0, r1
    1ce8:	1c00008a 	stcne	0, cr0, [r0], {138}	; 0x8a
    1cec:	01000000 	mrseq	r0, (UNDEF: 0)
    1cf0:	0006ac21 	andeq	sl, r6, r1, lsr #24
    1cf4:	016a1b00 	cmneq	sl, r0, lsl #22
    1cf8:	58010000 	stmdapl	r1, {}	; <UNPREDICTABLE>
    1cfc:	00015f1b 	andeq	r5, r1, fp, lsl pc
    1d00:	1a540100 	bne	1502108 <__bss_end__+0x14f8260>
    1d04:	00000156 	andeq	r0, r0, r6, asr r1
    1d08:	00000d48 	andeq	r0, r0, r8, asr #26
    1d0c:	00014b1b 	andeq	r4, r1, fp, lsl fp
    1d10:	19560100 	ldmdbne	r6, {r8}^
    1d14:	00000111 	andeq	r0, r0, r1, lsl r1
    1d18:	00008a2c 	andeq	r8, r0, ip, lsr #20
    1d1c:	00000010 	andeq	r0, r0, r0, lsl r0
    1d20:	06921a02 	ldreq	r1, [r2], r2, lsl #20
    1d24:	281b0000 	ldmdacs	fp, {}	; <UNPREDICTABLE>
    1d28:	01000001 	tsteq	r0, r1
    1d2c:	011d1b58 	tsteq	sp, r8, asr fp
    1d30:	54010000 	strpl	r0, [r1], #-0
    1d34:	008a2c1d 	addeq	r2, sl, sp, lsl ip
    1d38:	00000400 	andeq	r0, r0, r0, lsl #8
    1d3c:	01321e00 	teqeq	r2, r0, lsl #28
    1d40:	0d7b0000 	ldcleq	0, cr0, [fp, #-0]
    1d44:	00000000 	andeq	r0, r0, r0
    1d48:	008a2c1f 	addeq	r2, sl, pc, lsl ip
    1d4c:	00115900 	andseq	r5, r1, r0, lsl #18
    1d50:	51012000 	mrspl	r2, (UNDEF: 1)
    1d54:	08007705 	stmdaeq	r0, {r0, r2, r8, r9, sl, ip, sp, lr}
    1d58:	01201a80 	smlawbeq	r0, r0, sl, r1
    1d5c:	00760250 	rsbseq	r0, r6, r0, asr r2
    1d60:	3f210000 	svccc	0x00210000
    1d64:	40000001 	andmi	r0, r0, r1
    1d68:	1c00008a 	stcne	0, cr0, [r0], {138}	; 0x8a
    1d6c:	01000000 	mrseq	r0, (UNDEF: 0)
    1d70:	016a1b23 	cmneq	sl, r3, lsr #22
    1d74:	55010000 	strpl	r0, [r1, #-0]
    1d78:	00015f1b 	andeq	r5, r1, fp, lsl pc
    1d7c:	1c540100 	ldfnee	f0, [r4], {-0}
    1d80:	00000156 	andeq	r0, r0, r6, asr r1
    1d84:	014b1b01 	cmpeq	fp, r1, lsl #22
    1d88:	56010000 	strpl	r0, [r1], -r0
    1d8c:	00011119 	andeq	r1, r1, r9, lsl r1
    1d90:	008a4c00 	addeq	r4, sl, r0, lsl #24
    1d94:	00001000 	andeq	r1, r0, r0
    1d98:	0b1a0200 	bleq	6825a0 <__bss_end__+0x6786f8>
    1d9c:	1b000007 	blne	1dc0 <_start-0x6240>
    1da0:	00000128 	andeq	r0, r0, r8, lsr #2
    1da4:	1d1b5501 	cfldr32ne	mvfx5, [fp, #-4]
    1da8:	01000001 	tsteq	r0, r1
    1dac:	8a4c1d54 	bhi	1309304 <__bss_end__+0x12ff45c>
    1db0:	00040000 	andeq	r0, r4, r0
    1db4:	321e0000 	andscc	r0, lr, #0
    1db8:	8e000001 	cdphi	0, 0, cr0, cr0, cr1, {0}
    1dbc:	0000000d 	andeq	r0, r0, sp
    1dc0:	8a4c1f00 	bhi	13099c8 <__bss_end__+0x12ffb20>
    1dc4:	11590000 	cmpne	r9, r0
    1dc8:	01200000 	teqeq	r0, r0
    1dcc:	20310151 	eorscs	r0, r1, r1, asr r1
    1dd0:	76025001 	strvc	r5, [r2], -r1
    1dd4:	00000000 	andeq	r0, r0, r0
    1dd8:	00d90406 	sbcseq	r0, r9, r6, lsl #8
    1ddc:	93220000 	teqls	r2, #0
    1de0:	01000006 	tsteq	r0, r6
    1de4:	00002527 	andeq	r2, r0, r7, lsr #10
    1de8:	07620300 	strbeq	r0, [r2, -r0, lsl #6]!
    1dec:	720f0000 	andvc	r0, pc, #0
    1df0:	27010078 	smlsdxcs	r1, r8, r0, r0
    1df4:	00000025 	andeq	r0, r0, r5, lsr #32
    1df8:	0100760f 	tsteq	r0, pc, lsl #12
    1dfc:	00002527 	andeq	r2, r0, r7, lsr #10
    1e00:	05ec0e00 	strbeq	r0, [ip, #3584]!	; 0xe00
    1e04:	27010000 	strcs	r0, [r1, -r0]
    1e08:	0000002c 	andeq	r0, r0, ip, lsr #32
    1e0c:	00041b11 	andeq	r1, r4, r1, lsl fp
    1e10:	2c280100 	stfcss	f0, [r8], #-0
    1e14:	00000000 	andeq	r0, r0, r0
    1e18:	00058d23 	andeq	r8, r5, r3, lsr #26
    1e1c:	25340100 	ldrcs	r0, [r4, #-256]!	; 0x100
    1e20:	60000000 	andvs	r0, r0, r0
    1e24:	c800008a 	stmdagt	r0, {r1, r3, r7}
    1e28:	01000001 	tsteq	r0, r1
    1e2c:	000b1e9c 	muleq	fp, ip, lr
    1e30:	03ce1300 	biceq	r1, lr, #0, 6
    1e34:	34010000 	strcc	r0, [r1], #-0
    1e38:	00000722 	andeq	r0, r0, r2, lsr #14
    1e3c:	00000da1 	andeq	r0, r0, r1, lsr #27
    1e40:	0005ec13 	andeq	lr, r5, r3, lsl ip
    1e44:	25340100 	ldrcs	r0, [r4, #-256]!	; 0x100
    1e48:	e6000000 	str	r0, [r0], -r0
    1e4c:	1500000d 	strne	r0, [r0, #-13]
    1e50:	01007872 	tsteq	r0, r2, ror r8
    1e54:	00002535 	andeq	r2, r0, r5, lsr r5
    1e58:	16550100 	ldrbne	r0, [r5], -r0, lsl #2
    1e5c:	3c010073 	stccc	0, cr0, [r1], {115}	; 0x73
    1e60:	0000002c 	andeq	r0, r0, ip, lsr #32
    1e64:	00000e04 	andeq	r0, r0, r4, lsl #28
    1e68:	01007516 	tsteq	r0, r6, lsl r5
    1e6c:	0000683f 	andeq	r6, r0, pc, lsr r8
    1e70:	000e1700 	andeq	r1, lr, r0, lsl #14
    1e74:	006e1600 	rsbeq	r1, lr, r0, lsl #12
    1e78:	002c4001 	eoreq	r4, ip, r1
    1e7c:	0e2a0000 	cdpeq	0, 2, cr0, cr10, cr0, {0}
    1e80:	63160000 	tstvs	r6, #0
    1e84:	2c410100 	stfcse	f0, [r1], {-0}
    1e88:	41000000 	mrsmi	r0, (UNDEF: 0)
    1e8c:	1900000e 	stmdbne	r0, {r1, r2, r3}
    1e90:	00000728 	andeq	r0, r0, r8, lsr #14
    1e94:	00008a74 	andeq	r8, r0, r4, ror sl
    1e98:	00000034 	andeq	r0, r0, r4, lsr r0
    1e9c:	083c3801 	ldmdaeq	ip!, {r0, fp, ip, sp}
    1ea0:	4b1a0000 	blmi	681ea8 <__bss_end__+0x678000>
    1ea4:	6b000007 	blvs	1ec8 <_start-0x6138>
    1ea8:	1c00000e 	stcne	0, cr0, [r0], {14}
    1eac:	00000742 	andeq	r0, r0, r2, asr #14
    1eb0:	07381b00 	ldreq	r1, [r8, -r0, lsl #22]!
    1eb4:	55010000 	strpl	r0, [r1, #-0]
    1eb8:	008a741d 	addeq	r7, sl, sp, lsl r4
    1ebc:	00003400 	andeq	r3, r0, r0, lsl #8
    1ec0:	07561e00 	ldrbeq	r1, [r6, -r0, lsl #28]
    1ec4:	0e890000 	cdpeq	0, 8, cr0, cr9, cr0, {0}
    1ec8:	78240000 	stmdavc	r4!, {}	; <UNPREDICTABLE>
    1ecc:	6f00008a 	svcvs	0x0000008a
    1ed0:	25000011 	strcs	r0, [r0, #-17]
    1ed4:	00008a84 	andeq	r8, r0, r4, lsl #21
    1ed8:	0000117a 	andeq	r1, r0, sl, ror r1
    1edc:	00000831 	andeq	r0, r0, r1, lsr r8
    1ee0:	02500120 	subseq	r0, r0, #32, 2
    1ee4:	24000075 	strcs	r0, [r0], #-117	; 0x75
    1ee8:	00008a90 	muleq	r0, r0, sl
    1eec:	0000116f 	andeq	r1, r0, pc, ror #2
    1ef0:	b0170000 	andslt	r0, r7, r0
    1ef4:	0400008a 	streq	r0, [r0], #-138	; 0x8a
    1ef8:	59000000 	stmdbpl	r0, {}	; <UNPREDICTABLE>
    1efc:	26000008 	strcs	r0, [r0], -r8
    1f00:	000001c4 	andeq	r0, r0, r4, asr #3
    1f04:	002c3c01 	eoreq	r3, ip, r1, lsl #24
    1f08:	0ea70000 	cdpeq	0, 10, cr0, cr7, cr0, {0}
    1f0c:	19000000 	stmdbne	r0, {}	; <UNPREDICTABLE>
    1f10:	00000111 	andeq	r0, r0, r1, lsl r1
    1f14:	00008abc 			; <UNDEFINED> instruction: 0x00008abc
    1f18:	00000010 	andeq	r0, r0, r0, lsl r0
    1f1c:	08924401 	ldmeq	r2, {r0, sl, lr}
    1f20:	281a0000 	ldmdacs	sl, {}	; <UNPREDICTABLE>
    1f24:	ba000001 	blt	1f30 <_start-0x60d0>
    1f28:	1a00000e 	bne	1f68 <_start-0x6098>
    1f2c:	0000011d 	andeq	r0, r0, sp, lsl r1
    1f30:	00000edf 	ldrdeq	r0, [r0], -pc	; <UNPREDICTABLE>
    1f34:	008abc1d 	addeq	fp, sl, sp, lsl ip
    1f38:	00000400 	andeq	r0, r0, r0, lsl #8
    1f3c:	01321e00 	teqeq	r2, r0, lsl #28
    1f40:	0ef20000 	cdpeq	0, 15, cr0, cr2, cr0, {0}
    1f44:	00000000 	andeq	r0, r0, r0
    1f48:	00011119 	andeq	r1, r1, r9, lsl r1
    1f4c:	008adc00 	addeq	sp, sl, r0, lsl #24
    1f50:	00001000 	andeq	r1, r0, r0
    1f54:	cb480100 	blgt	120235c <__bss_end__+0x11f84b4>
    1f58:	1a000008 	bne	1f80 <_start-0x6080>
    1f5c:	00000128 	andeq	r0, r0, r8, lsr #2
    1f60:	00000f05 	andeq	r0, r0, r5, lsl #30
    1f64:	00011d1a 	andeq	r1, r1, sl, lsl sp
    1f68:	000f1800 	andeq	r1, pc, r0, lsl #16
    1f6c:	8adc1d00 	bhi	ff709374 <__bss_end__+0xff6ff4cc>
    1f70:	00040000 	andeq	r0, r4, r0
    1f74:	321e0000 	andscc	r0, lr, #0
    1f78:	2b000001 	blcs	1f84 <_start-0x607c>
    1f7c:	0000000f 	andeq	r0, r0, pc
    1f80:	01111900 	tsteq	r1, r0, lsl #18
    1f84:	8b000000 	blhi	1f8c <_start-0x6074>
    1f88:	00100000 	andseq	r0, r0, r0
    1f8c:	4b010000 	blmi	41f94 <__bss_end__+0x380ec>
    1f90:	00000904 	andeq	r0, r0, r4, lsl #18
    1f94:	0001281a 	andeq	r2, r1, sl, lsl r8
    1f98:	000f3e00 	andeq	r3, pc, r0, lsl #28
    1f9c:	011d1a00 	tsteq	sp, r0, lsl #20
    1fa0:	0f510000 	svceq	0x00510000
    1fa4:	001d0000 	andseq	r0, sp, r0
    1fa8:	0400008b 	streq	r0, [r0], #-139	; 0x8b
    1fac:	1e000000 	cdpne	0, 0, cr0, cr0, cr0, {0}
    1fb0:	00000132 	andeq	r0, r0, r2, lsr r1
    1fb4:	00000f64 	andeq	r0, r0, r4, ror #30
    1fb8:	11190000 	tstne	r9, r0
    1fbc:	24000001 	strcs	r0, [r0], #-1
    1fc0:	1000008b 	andne	r0, r0, fp, lsl #1
    1fc4:	01000000 	mrseq	r0, (UNDEF: 0)
    1fc8:	00093d4e 	andeq	r3, r9, lr, asr #26
    1fcc:	01281a00 	teqeq	r8, r0, lsl #20
    1fd0:	0f770000 	svceq	0x00770000
    1fd4:	1d1a0000 	ldcne	0, cr0, [sl, #-0]
    1fd8:	8a000001 	bhi	1fe4 <_start-0x601c>
    1fdc:	1d00000f 	stcne	0, cr0, [r0, #-60]	; 0xffffffc4
    1fe0:	00008b24 	andeq	r8, r0, r4, lsr #22
    1fe4:	00000004 	andeq	r0, r0, r4
    1fe8:	0001321e 	andeq	r3, r1, lr, lsl r2
    1fec:	000f9d00 	andeq	r9, pc, r0, lsl #26
    1ff0:	19000000 	stmdbne	r0, {}	; <UNPREDICTABLE>
    1ff4:	00000111 	andeq	r0, r0, r1, lsl r1
    1ff8:	00008b48 	andeq	r8, r0, r8, asr #22
    1ffc:	00000010 	andeq	r0, r0, r0, lsl r0
    2000:	09765101 	ldmdbeq	r6!, {r0, r8, ip, lr}^
    2004:	281a0000 	ldmdacs	sl, {}	; <UNPREDICTABLE>
    2008:	b0000001 	andlt	r0, r0, r1
    200c:	1a00000f 	bne	2050 <_start-0x5fb0>
    2010:	0000011d 	andeq	r0, r0, sp, lsl r1
    2014:	00000fc3 	andeq	r0, r0, r3, asr #31
    2018:	008b481d 	addeq	r4, fp, sp, lsl r8
    201c:	00000400 	andeq	r0, r0, r0, lsl #8
    2020:	01321e00 	teqeq	r2, r0, lsl #28
    2024:	0fd60000 	svceq	0x00d60000
    2028:	00000000 	andeq	r0, r0, r0
    202c:	00011119 	andeq	r1, r1, r9, lsl r1
    2030:	008b6c00 	addeq	r6, fp, r0, lsl #24
    2034:	00001000 	andeq	r1, r0, r0
    2038:	af540100 	svcge	0x00540100
    203c:	1a000009 	bne	2068 <_start-0x5f98>
    2040:	00000128 	andeq	r0, r0, r8, lsr #2
    2044:	00000fe9 	andeq	r0, r0, r9, ror #31
    2048:	00011d1a 	andeq	r1, r1, sl, lsl sp
    204c:	000ffc00 	andeq	pc, pc, r0, lsl #24
    2050:	8b6c1d00 	blhi	1b09458 <__bss_end__+0x1aff5b0>
    2054:	00040000 	andeq	r0, r4, r0
    2058:	321e0000 	andscc	r0, lr, #0
    205c:	0f000001 	svceq	0x00000001
    2060:	00000010 	andeq	r0, r0, r0, lsl r0
    2064:	01111900 	tsteq	r1, r0, lsl #18
    2068:	8b900000 	blhi	fe402070 <__bss_end__+0xfe3f81c8>
    206c:	00100000 	andseq	r0, r0, r0
    2070:	57010000 	strpl	r0, [r1, -r0]
    2074:	000009e8 	andeq	r0, r0, r8, ror #19
    2078:	0001281a 	andeq	r2, r1, sl, lsl r8
    207c:	00102200 	andseq	r2, r0, r0, lsl #4
    2080:	011d1a00 	tsteq	sp, r0, lsl #20
    2084:	10350000 	eorsne	r0, r5, r0
    2088:	901d0000 	andsls	r0, sp, r0
    208c:	0400008b 	streq	r0, [r0], #-139	; 0x8b
    2090:	1e000000 	cdpne	0, 0, cr0, cr0, cr0, {0}
    2094:	00000132 	andeq	r0, r0, r2, lsr r1
    2098:	00001048 	andeq	r1, r0, r8, asr #32
    209c:	11190000 	tstne	r9, r0
    20a0:	b4000001 	strlt	r0, [r0], #-1
    20a4:	1000008b 	andne	r0, r0, fp, lsl #1
    20a8:	01000000 	mrseq	r0, (UNDEF: 0)
    20ac:	000a1d5a 	andeq	r1, sl, sl, asr sp
    20b0:	01281a00 	teqeq	r8, r0, lsl #20
    20b4:	105b0000 	subsne	r0, fp, r0
    20b8:	1d270000 	stcne	0, cr0, [r7, #-0]
    20bc:	1d000001 	stcne	0, cr0, [r0, #-4]
    20c0:	00008bb4 			; <UNDEFINED> instruction: 0x00008bb4
    20c4:	00000004 	andeq	r0, r0, r4
    20c8:	0001321e 	andeq	r3, r1, lr, lsl r2
    20cc:	00106e00 	andseq	r6, r0, r0, lsl #28
    20d0:	19000000 	stmdbne	r0, {}	; <UNPREDICTABLE>
    20d4:	00000728 	andeq	r0, r0, r8, lsr #14
    20d8:	00008bd4 	ldrdeq	r8, [r0], -r4
    20dc:	00000034 	andeq	r0, r0, r4, lsr r0
    20e0:	0a816101 	beq	fe05a4ec <__bss_end__+0xfe050644>
    20e4:	4b270000 	blmi	9c20ec <__bss_end__+0x9b8244>
    20e8:	1a000007 	bne	210c <_start-0x5ef4>
    20ec:	00000742 	andeq	r0, r0, r2, asr #14
    20f0:	00001081 	andeq	r1, r0, r1, lsl #1
    20f4:	0007381a 	andeq	r3, r7, sl, lsl r8
    20f8:	0010a100 	andseq	sl, r0, r0, lsl #2
    20fc:	8bd41d00 	blhi	ff509504 <__bss_end__+0xff4ff65c>
    2100:	00340000 	eorseq	r0, r4, r0
    2104:	561e0000 	ldrpl	r0, [lr], -r0
    2108:	bf000007 	svclt	0x00000007
    210c:	24000010 	strcs	r0, [r0], #-16
    2110:	00008bd8 	ldrdeq	r8, [r0], -r8	; <UNPREDICTABLE>
    2114:	0000116f 	andeq	r1, r0, pc, ror #2
    2118:	008be425 	addeq	lr, fp, r5, lsr #8
    211c:	00117a00 	andseq	r7, r1, r0, lsl #20
    2120:	000a7600 	andeq	r7, sl, r0, lsl #12
    2124:	50012000 	andpl	r2, r1, r0
    2128:	00007502 	andeq	r7, r0, r2, lsl #10
    212c:	008bf024 	addeq	pc, fp, r4, lsr #32
    2130:	00116f00 	andseq	r6, r1, r0, lsl #30
    2134:	25000000 	strcs	r0, [r0, #-0]
    2138:	00008ad8 	ldrdeq	r8, [r0], -r8	; <UNPREDICTABLE>
    213c:	0000117a 	andeq	r1, r0, sl, ror r1
    2140:	00000a95 	muleq	r0, r5, sl
    2144:	02500120 	subseq	r0, r0, #32, 2
    2148:	25000075 	strcs	r0, [r0, #-117]	; 0x75
    214c:	00008af8 	strdeq	r8, [r0], -r8	; <UNPREDICTABLE>
    2150:	0000117a 	andeq	r1, r0, sl, ror r1
    2154:	00000aa9 	andeq	r0, r0, r9, lsr #21
    2158:	02500120 	subseq	r0, r0, #32, 2
    215c:	25000075 	strcs	r0, [r0, #-117]	; 0x75
    2160:	00008b1c 	andeq	r8, r0, ip, lsl fp
    2164:	0000117a 	andeq	r1, r0, sl, ror r1
    2168:	00000abd 			; <UNDEFINED> instruction: 0x00000abd
    216c:	02500120 	subseq	r0, r0, #32, 2
    2170:	25000075 	strcs	r0, [r0, #-117]	; 0x75
    2174:	00008b40 	andeq	r8, r0, r0, asr #22
    2178:	0000117a 	andeq	r1, r0, sl, ror r1
    217c:	00000ad1 	ldrdeq	r0, [r0], -r1
    2180:	02500120 	subseq	r0, r0, #32, 2
    2184:	25000075 	strcs	r0, [r0, #-117]	; 0x75
    2188:	00008b64 	andeq	r8, r0, r4, ror #22
    218c:	0000117a 	andeq	r1, r0, sl, ror r1
    2190:	00000ae5 	andeq	r0, r0, r5, ror #21
    2194:	02500120 	subseq	r0, r0, #32, 2
    2198:	25000075 	strcs	r0, [r0, #-117]	; 0x75
    219c:	00008b88 	andeq	r8, r0, r8, lsl #23
    21a0:	0000117a 	andeq	r1, r0, sl, ror r1
    21a4:	00000af9 	strdeq	r0, [r0], -r9
    21a8:	02500120 	subseq	r0, r0, #32, 2
    21ac:	25000075 	strcs	r0, [r0, #-117]	; 0x75
    21b0:	00008bac 	andeq	r8, r0, ip, lsr #23
    21b4:	0000117a 	andeq	r1, r0, sl, ror r1
    21b8:	00000b0d 	andeq	r0, r0, sp, lsl #22
    21bc:	02500120 	subseq	r0, r0, #32, 2
    21c0:	1f000075 	svcne	0x00000075
    21c4:	00008bcc 	andeq	r8, r0, ip, asr #23
    21c8:	0000117a 	andeq	r1, r0, sl, ror r1
    21cc:	02500120 	subseq	r0, r0, #32, 2
    21d0:	00000075 	andeq	r0, r0, r5, ror r0
    21d4:	0005a223 	andeq	sl, r5, r3, lsr #4
    21d8:	256c0100 	strbcs	r0, [ip, #-256]!	; 0x100
    21dc:	28000000 	stmdacs	r0, {}	; <UNPREDICTABLE>
    21e0:	a400008c 	strge	r0, [r0], #-140	; 0x8c
    21e4:	01000000 	mrseq	r0, (UNDEF: 0)
    21e8:	000c0c9c 	muleq	ip, ip, ip
    21ec:	00751400 	rsbseq	r1, r5, r0, lsl #8
    21f0:	07226c01 	streq	r6, [r2, -r1, lsl #24]!
    21f4:	10dd0000 	sbcsne	r0, sp, r0
    21f8:	62140000 	andsvs	r0, r4, #0
    21fc:	01006675 	tsteq	r0, r5, ror r6
    2200:	000c0c6c 	andeq	r0, ip, ip, ror #24
    2204:	00111f00 	andseq	r1, r1, r0, lsl #30
    2208:	063e1300 	ldrteq	r1, [lr], -r0, lsl #6
    220c:	6c010000 	stcvs	0, cr0, [r1], {-0}
    2210:	00000068 	andeq	r0, r0, r8, rrx
    2214:	00001161 	andeq	r1, r0, r1, ror #2
    2218:	646e6514 	strbtvs	r6, [lr], #-1300	; 0x514
    221c:	4f6c0100 	svcmi	0x006c0100
    2220:	a8000000 	stmdage	r0, {}	; <UNPREDICTABLE>
    2224:	28000011 	stmdacs	r0, {r0, r4}
    2228:	00000650 	andeq	r0, r0, r0, asr r6
    222c:	00686c01 	rsbeq	r6, r8, r1, lsl #24
    2230:	91020000 	mrsls	r0, (UNDEF: 2)
    2234:	019c2900 	orrseq	r2, ip, r0, lsl #18
    2238:	0c220000 	stceq	0, cr0, [r2], #-0
    223c:	03050000 	movweq	r0, #20480	; 0x5000
    2240:	00009980 	andeq	r9, r0, r0, lsl #19
    2244:	01006916 	tsteq	r0, r6, lsl r9
    2248:	00002570 	andeq	r2, r0, r0, ror r5
    224c:	0011e200 	andseq	lr, r1, r0, lsl #4
    2250:	06212600 	strteq	r2, [r1], -r0, lsl #12
    2254:	71010000 	mrsvc	r0, (UNDEF: 1)
    2258:	0000004f 	andeq	r0, r0, pc, asr #32
    225c:	0000120c 	andeq	r1, r0, ip, lsl #4
    2260:	008c4c24 	addeq	r4, ip, r4, lsr #24
    2264:	00118f00 	andseq	r8, r1, r0, lsl #30
    2268:	8c682500 	cfstr64hi	mvdx2, [r8], #-0
    226c:	11960000 	orrsne	r0, r6, r0
    2270:	0bec0000 	bleq	ffb02278 <__bss_end__+0xffaf83d0>
    2274:	01200000 	teqeq	r0, r0
    2278:	6d080253 	sfmvs	f0, 4, [r8, #-332]	; 0xfffffeb4
    227c:	05520120 	ldrbeq	r0, [r2, #-288]	; 0x120
    2280:	00998003 	addseq	r8, r9, r3
    2284:	51012000 	mrspl	r2, (UNDEF: 1)
    2288:	99f80305 	ldmibls	r8!, {r0, r2, r8, r9}^
    228c:	01200000 	teqeq	r0, r0
    2290:	80030550 	andhi	r0, r3, r0, asr r5
    2294:	20000098 	mulcs	r0, r8, r0
    2298:	05007d02 	streq	r7, [r0, #-3330]	; 0xd02
    229c:	009a0c03 	addseq	r0, sl, r3, lsl #24
    22a0:	6c240000 	stcvs	0, cr0, [r4], #-0
    22a4:	ac00008c 	stcge	0, cr0, [r0], {140}	; 0x8c
    22a8:	1f000011 	svcne	0x00000011
    22ac:	00008c88 	andeq	r8, r0, r8, lsl #25
    22b0:	00000762 	andeq	r0, r0, r2, ror #14
    22b4:	02510120 	subseq	r0, r1, #32, 2
    22b8:	0120007a 	teqeq	r0, sl, ror r0
    22bc:	00780250 	rsbseq	r0, r8, r0, asr r2
    22c0:	04060000 	streq	r0, [r6], #-0
    22c4:	0000004f 	andeq	r0, r0, pc, asr #32
    22c8:	0000902a 	andeq	r9, r0, sl, lsr #32
    22cc:	000c2200 	andeq	r2, ip, r0, lsl #4
    22d0:	00812b00 	addeq	r2, r1, r0, lsl #22
    22d4:	00120000 	andseq	r0, r2, r0
    22d8:	000c1207 	andeq	r1, ip, r7, lsl #4
    22dc:	06292300 	strteq	r2, [r9], -r0, lsl #6
    22e0:	80010000 	andhi	r0, r1, r0
    22e4:	00000025 	andeq	r0, r0, r5, lsr #32
    22e8:	00008ccc 	andeq	r8, r0, ip, asr #25
    22ec:	00000090 	muleq	r0, r0, r0
    22f0:	0cf89c01 	ldcleq	12, cr9, [r8], #4
    22f4:	75140000 	ldrvc	r0, [r4, #-0]
    22f8:	22800100 	addcs	r0, r0, #0, 2
    22fc:	1f000007 	svcne	0x00000007
    2300:	14000012 	strne	r0, [r0], #-18
    2304:	00667562 	rsbeq	r7, r6, r2, ror #10
    2308:	0c0c8001 	stceq	0, cr8, [ip], {1}
    230c:	12610000 	rsbne	r0, r1, #0
    2310:	3e130000 	cdpcc	0, 1, cr0, cr3, cr0, {0}
    2314:	01000006 	tsteq	r0, r6
    2318:	00006881 	andeq	r6, r0, r1, lsl #17
    231c:	0012a300 	andseq	sl, r2, r0, lsl #6
    2320:	06501300 	ldrbeq	r1, [r0], -r0, lsl #6
    2324:	81010000 	mrshi	r0, (UNDEF: 1)
    2328:	00000068 	andeq	r0, r0, r8, rrx
    232c:	000012ea 	andeq	r1, r0, sl, ror #5
    2330:	00019c29 	andeq	r9, r1, r9, lsr #24
    2334:	000d0800 	andeq	r0, sp, r0, lsl #16
    2338:	94030500 	strls	r0, [r3], #-1280	; 0x500
    233c:	16000099 			; <UNDEFINED> instruction: 0x16000099
    2340:	86010069 	strhi	r0, [r1], -r9, rrx
    2344:	00000025 	andeq	r0, r0, r5, lsr #32
    2348:	0000132c 	andeq	r1, r0, ip, lsr #6
    234c:	008cec24 	addeq	lr, ip, r4, lsr #24
    2350:	00118f00 	andseq	r8, r1, r0, lsl #30
    2354:	8d082500 	cfstr32hi	mvfx2, [r8, #-0]
    2358:	11960000 	orrsne	r0, r6, r0
    235c:	0cd80000 	ldcleq	0, cr0, [r8], {0}
    2360:	01200000 	teqeq	r0, r0
    2364:	83080253 	movwhi	r0, #33363	; 0x8253
    2368:	05520120 	ldrbeq	r0, [r2, #-288]	; 0x120
    236c:	00999403 	addseq	r9, r9, r3, lsl #8
    2370:	51012000 	mrspl	r2, (UNDEF: 1)
    2374:	99f80305 	ldmibls	r8!, {r0, r2, r8, r9}^
    2378:	01200000 	teqeq	r0, r0
    237c:	80030550 	andhi	r0, r3, r0, asr r5
    2380:	20000098 	mulcs	r0, r8, r0
    2384:	05007d02 	streq	r7, [r0, #-3330]	; 0xd02
    2388:	009a0c03 	addseq	r0, sl, r3, lsl #24
    238c:	0c240000 	stceq	0, cr0, [r4], #-0
    2390:	ac00008d 	stcge	0, cr0, [r0], {141}	; 0x8d
    2394:	1f000011 	svcne	0x00000011
    2398:	00008d28 	andeq	r8, r0, r8, lsr #26
    239c:	00000762 	andeq	r0, r0, r2, ror #14
    23a0:	02510120 	subseq	r0, r1, #32, 2
    23a4:	01200078 	teqeq	r0, r8, ror r0
    23a8:	00770250 	rsbseq	r0, r7, r0, asr r2
    23ac:	902a0000 	eorls	r0, sl, r0
    23b0:	08000000 	stmdaeq	r0, {}	; <UNPREDICTABLE>
    23b4:	2b00000d 	blcs	23f0 <_start-0x5c10>
    23b8:	00000081 	andeq	r0, r0, r1, lsl #1
    23bc:	f8070014 			; <UNDEFINED> instruction: 0xf8070014
    23c0:	2300000c 	movwcs	r0, #12
    23c4:	000005d8 	ldrdeq	r0, [r0], -r8
    23c8:	00d99301 	sbcseq	r9, r9, r1, lsl #6
    23cc:	8d5c0000 	ldclhi	0, cr0, [ip, #-0]
    23d0:	00d40000 	sbcseq	r0, r4, r0
    23d4:	9c010000 	stcls	0, cr0, [r1], {-0}
    23d8:	00000e32 	andeq	r0, r0, r2, lsr lr
    23dc:	00787414 	rsbseq	r7, r8, r4, lsl r4
    23e0:	004f9301 	subeq	r9, pc, r1, lsl #6
    23e4:	13560000 	cmpne	r6, #0
    23e8:	72140000 	andsvc	r0, r4, #0
    23ec:	93010078 	movwls	r0, #4216	; 0x1078
    23f0:	0000004f 	andeq	r0, r0, pc, asr #32
    23f4:	00001377 	andeq	r1, r0, r7, ror r3
    23f8:	00040713 	andeq	r0, r4, r3, lsl r7
    23fc:	68930100 	ldmvs	r3, {r8}
    2400:	98000000 	stmdals	r0, {}	; <UNPREDICTABLE>
    2404:	28000013 	stmdacs	r0, {r0, r1, r4}
    2408:	00000571 	andeq	r0, r0, r1, ror r5
    240c:	00689301 	rsbeq	r9, r8, r1, lsl #6
    2410:	91020000 	mrsls	r0, (UNDEF: 2)
    2414:	686d2c00 	stmdavs	sp!, {sl, fp, sp}^
    2418:	9b01007a 	blls	42608 <__bss_end__+0x38760>
    241c:	0000002c 	andeq	r0, r0, ip, lsr #32
    2420:	29b92700 	ldmibcs	r9!, {r8, r9, sl, sp}
    2424:	0005c226 	andeq	ip, r5, r6, lsr #4
    2428:	2c9c0100 	ldfcss	f0, [ip], {0}
    242c:	c2000000 	andgt	r0, r0, #0
    2430:	29000013 	stmdbcs	r0, {r0, r1, r4}
    2434:	0000019c 	muleq	r0, ip, r1
    2438:	00000e42 	andeq	r0, r0, r2, asr #28
    243c:	99ac0305 	stmibls	ip!, {r0, r2, r8, r9}
    2440:	88170000 	ldmdahi	r7, {}	; <UNPREDICTABLE>
    2444:	0800008d 	stmdaeq	r0, {r0, r2, r3, r7}
    2448:	a5000000 	strge	r0, [r0, #-0]
    244c:	2d00000d 	stccs	0, cr0, [r0, #-52]	; 0xffffffcc
    2450:	01006e69 	tsteq	r0, r9, ror #28
    2454:	00002c97 	muleq	r0, r7, ip
    2458:	25000100 	strcs	r0, [r0, #-256]	; 0x100
    245c:	00008d80 	andeq	r8, r0, r0, lsl #27
    2460:	000011b3 			; <UNDEFINED> instruction: 0x000011b3
    2464:	00000db9 			; <UNDEFINED> instruction: 0x00000db9
    2468:	02500120 	subseq	r0, r0, #32, 2
    246c:	25000076 	strcs	r0, [r0, #-118]	; 0x76
    2470:	00008d88 	andeq	r8, r0, r8, lsl #27
    2474:	000011c4 	andeq	r1, r0, r4, asr #3
    2478:	00000dcd 	andeq	r0, r0, sp, asr #27
    247c:	02500120 	subseq	r0, r0, #32, 2
    2480:	25000078 	strcs	r0, [r0, #-120]	; 0x78
    2484:	00008d9c 	muleq	r0, ip, sp
    2488:	00001159 	andeq	r1, r0, r9, asr r1
    248c:	00000de6 	andeq	r0, r0, r6, ror #27
    2490:	01510120 	cmpeq	r1, r0, lsr #2
    2494:	50012031 	andpl	r2, r1, r1, lsr r0
    2498:	00007602 	andeq	r7, r0, r2, lsl #12
    249c:	008de024 	addeq	lr, sp, r4, lsr #32
    24a0:	00118f00 	andseq	r8, r1, r0, lsl #30
    24a4:	8dfc2500 	cfldr64hi	mvdx2, [ip]
    24a8:	11960000 	orrsne	r0, r6, r0
    24ac:	0e280000 	cdpeq	0, 2, cr0, cr8, cr0, {0}
    24b0:	01200000 	teqeq	r0, r0
    24b4:	9d080253 	sfmls	f0, 4, [r8, #-332]	; 0xfffffeb4
    24b8:	05520120 	ldrbeq	r0, [r2, #-288]	; 0x120
    24bc:	0099ac03 	addseq	sl, r9, r3, lsl #24
    24c0:	51012000 	mrspl	r2, (UNDEF: 1)
    24c4:	99f80305 	ldmibls	r8!, {r0, r2, r8, r9}^
    24c8:	01200000 	teqeq	r0, r0
    24cc:	80030550 	andhi	r0, r3, r0, asr r5
    24d0:	20000098 	mulcs	r0, r8, r0
    24d4:	05007d02 	streq	r7, [r0, #-3330]	; 0xd02
    24d8:	009a1803 	addseq	r1, sl, r3, lsl #16
    24dc:	00240000 	eoreq	r0, r4, r0
    24e0:	ac00008e 	stcge	0, cr0, [r0], {142}	; 0x8e
    24e4:	00000011 	andeq	r0, r0, r1, lsl r0
    24e8:	0000902a 	andeq	r9, r0, sl, lsr #32
    24ec:	000e4200 	andeq	r4, lr, r0, lsl #4
    24f0:	00812b00 	addeq	r2, r1, r0, lsl #22
    24f4:	00130000 	andseq	r0, r3, r0
    24f8:	000e3207 	andeq	r3, lr, r7, lsl #4
    24fc:	05b52300 	ldreq	r2, [r5, #768]!	; 0x300
    2500:	a9010000 	stmdbge	r1, {}	; <UNPREDICTABLE>
    2504:	00000025 	andeq	r0, r0, r5, lsr #32
    2508:	00008e30 	andeq	r8, r0, r0, lsr lr
    250c:	0000003c 	andeq	r0, r0, ip, lsr r0
    2510:	0eea9c01 	cdpeq	12, 14, cr9, cr10, cr1, {0}
    2514:	ce130000 	cdpgt	0, 1, cr0, cr3, cr0, {0}
    2518:	01000003 	tsteq	r0, r3
    251c:	000722a9 	andeq	r2, r7, r9, lsr #5
    2520:	0013f000 	andseq	pc, r3, r0
    2524:	65721600 	ldrbvs	r1, [r2, #-1536]!	; 0x600
    2528:	aa010073 	bge	426fc <__bss_end__+0x38854>
    252c:	00000025 	andeq	r0, r0, r5, lsr #32
    2530:	00001411 	andeq	r1, r0, r1, lsl r4
    2534:	00019c29 	andeq	r9, r1, r9, lsr #24
    2538:	000efa00 	andeq	pc, lr, r0, lsl #20
    253c:	c0030500 	andgt	r0, r3, r0, lsl #10
    2540:	25000099 	strcs	r0, [r0, #-153]	; 0x99
    2544:	00008e3c 	andeq	r8, r0, ip, lsr lr
    2548:	00000762 	andeq	r0, r0, r2, ror #14
    254c:	00000ea8 	andeq	r0, r0, r8, lsr #29
    2550:	02510120 	subseq	r0, r1, #32, 2
    2554:	0120ff09 	msreq	LR_irq, r9
    2558:	01f30350 	mvnseq	r0, r0, asr r3
    255c:	48240050 	stmdami	r4!, {r4, r6}
    2560:	8f00008e 	svchi	0x0000008e
    2564:	25000011 	strcs	r0, [r0, #-17]
    2568:	00008e5c 	andeq	r8, r0, ip, asr lr
    256c:	00001196 	muleq	r0, r6, r1
    2570:	00000ee0 	andeq	r0, r0, r0, ror #29
    2574:	02530120 	subseq	r0, r3, #32, 2
    2578:	0120ac08 	teqeq	r0, r8, lsl #24
    257c:	c0030552 	andgt	r0, r3, r2, asr r5
    2580:	20000099 	mulcs	r0, r9, r0
    2584:	03055101 	movweq	r5, #20737	; 0x5101
    2588:	000099f8 	strdeq	r9, [r0], -r8
    258c:	05500120 	ldrbeq	r0, [r0, #-288]	; 0x120
    2590:	009a4c03 	addseq	r4, sl, r3, lsl #24
    2594:	60240000 	eorvs	r0, r4, r0
    2598:	ac00008e 	stcge	0, cr0, [r0], {142}	; 0x8e
    259c:	00000011 	andeq	r0, r0, r1, lsl r0
    25a0:	0000902a 	andeq	r9, r0, sl, lsr #32
    25a4:	000efa00 	andeq	pc, lr, r0, lsl #20
    25a8:	00812b00 	addeq	r2, r1, r0, lsl #22
    25ac:	000c0000 	andeq	r0, ip, r0
    25b0:	000eea07 	andeq	lr, lr, r7, lsl #20
    25b4:	05f91200 	ldrbeq	r1, [r9, #512]!	; 0x200
    25b8:	b0010000 	andlt	r0, r1, r0
    25bc:	00008e6c 	andeq	r8, r0, ip, ror #28
    25c0:	0000002c 	andeq	r0, r0, ip, lsr #32
    25c4:	0f439c01 	svceq	0x00439c01
    25c8:	ce130000 	cdpgt	0, 1, cr0, cr3, cr0, {0}
    25cc:	01000003 	tsteq	r0, r3
    25d0:	000722b0 			; <UNDEFINED> instruction: 0x000722b0
    25d4:	00142400 	andseq	r2, r4, r0, lsl #8
    25d8:	736d1400 	cmnvc	sp, #0, 8
    25dc:	b0010067 	andlt	r0, r1, r7, rrx
    25e0:	00000097 	muleq	r0, r7, r0
    25e4:	00001442 	andeq	r1, r0, r2, asr #8
    25e8:	008e841f 	addeq	r8, lr, pc, lsl r4
    25ec:	00017600 	andeq	r7, r1, r0, lsl #12
    25f0:	50012000 	andpl	r2, r1, r0
    25f4:	00007502 	andeq	r7, r0, r2, lsl #10
    25f8:	03d32300 	bicseq	r2, r3, #0, 6
    25fc:	b9010000 	stmdblt	r1, {}	; <UNPREDICTABLE>
    2600:	00000025 	andeq	r0, r0, r5, lsr #32
    2604:	00008e98 	muleq	r0, r8, lr
    2608:	00000090 	muleq	r0, r0, r0
    260c:	10419c01 	subne	r9, r1, r1, lsl #24
    2610:	ce130000 	cdpgt	0, 1, cr0, cr3, cr0, {0}
    2614:	01000003 	tsteq	r0, r3
    2618:	000722b9 			; <UNDEFINED> instruction: 0x000722b9
    261c:	00146000 	andseq	r6, r4, r0
    2620:	6d662e00 	stclvs	14, cr2, [r6, #-0]
    2624:	b9010074 	stmdblt	r1, {r2, r4, r5, r6}
    2628:	00000097 	muleq	r0, r7, r0
    262c:	2f749102 	svccs	0x00749102
    2630:	66756215 			; <UNDEFINED> instruction: 0x66756215
    2634:	41ba0100 			; <UNDEFINED> instruction: 0x41ba0100
    2638:	03000010 	movweq	r0, #16
    263c:	187c9c91 	ldmdane	ip!, {r0, r4, r7, sl, fp, ip, pc}^
    2640:	000002a4 	andeq	r0, r0, r4, lsr #5
    2644:	0106bc01 	tsteq	r6, r1, lsl #24
    2648:	91030000 	mrsls	r0, (UNDEF: 3)
    264c:	73167c98 	tstvc	r6, #152, 24	; 0x9800
    2650:	be01007a 	mcrlt	0, 0, r0, cr1, cr10, {3}
    2654:	00000025 	andeq	r0, r0, r5, lsr #32
    2658:	0000148c 	andeq	r1, r0, ip, lsl #9
    265c:	00019c29 	andeq	r9, r1, r9, lsr #24
    2660:	00106200 	andseq	r6, r0, r0, lsl #4
    2664:	d0030500 	andle	r0, r3, r0, lsl #10
    2668:	25000099 	strcs	r0, [r0, #-153]	; 0x99
    266c:	00008ec0 	andeq	r8, r0, r0, asr #29
    2670:	000011d5 	ldrdeq	r1, [r0], -r5
    2674:	00000fde 	ldrdeq	r0, [r0], -lr
    2678:	02530120 	subseq	r0, r3, #32, 2
    267c:	01205891 			; <UNDEFINED> instruction: 0x01205891
    2680:	54910352 	ldrpl	r0, [r1], #850	; 0x352
    2684:	51012006 	tstpl	r1, r6
    2688:	01cc0a03 	biceq	r0, ip, r3, lsl #20
    268c:	03500120 	cmpeq	r0, #32, 2
    2690:	007bfc91 			; <UNDEFINED> instruction: 0x007bfc91
    2694:	008ed424 	addeq	sp, lr, r4, lsr #8
    2698:	00118f00 	andseq	r8, r1, r0, lsl #30
    269c:	8ef02500 	cdphi	5, 15, cr2, cr0, cr0, {0}
    26a0:	11960000 	orrsne	r0, r6, r0
    26a4:	10200000 	eorne	r0, r0, r0
    26a8:	01200000 	teqeq	r0, r0
    26ac:	c0080253 	andgt	r0, r8, r3, asr r2
    26b0:	05520120 	ldrbeq	r0, [r2, #-288]	; 0x120
    26b4:	0099d003 	addseq	sp, r9, r3
    26b8:	51012000 	mrspl	r2, (UNDEF: 1)
    26bc:	99f80305 	ldmibls	r8!, {r0, r2, r8, r9}^
    26c0:	01200000 	teqeq	r0, r0
    26c4:	80030550 	andhi	r0, r3, r0, asr r5
    26c8:	20000098 	mulcs	r0, r8, r0
    26cc:	05007d02 	streq	r7, [r0, #-3330]	; 0xd02
    26d0:	009a8403 	addseq	r8, sl, r3, lsl #8
    26d4:	f4240000 	vld4.8	{d0-d3}, [r4], r0
    26d8:	ac00008e 	stcge	0, cr0, [r0], {142}	; 0x8e
    26dc:	1f000011 	svcne	0x00000011
    26e0:	00008f00 	andeq	r8, r0, r0, lsl #30
    26e4:	00000eff 	strdeq	r0, [r0], -pc	; <UNPREDICTABLE>
    26e8:	03510120 	cmpeq	r1, #32, 2
    26ec:	207bfc91 			; <UNDEFINED> instruction: 0x207bfc91
    26f0:	75025001 	strvc	r5, [r2, #-1]
    26f4:	2a000000 	bcs	26fc <_start-0x5904>
    26f8:	00000090 	muleq	r0, r0, r0
    26fc:	00001052 	andeq	r1, r0, r2, asr r0
    2700:	00008130 	andeq	r8, r0, r0, lsr r1
    2704:	0001cb00 	andeq	ip, r1, r0, lsl #22
    2708:	0000902a 	andeq	r9, r0, sl, lsr #32
    270c:	00106200 	andseq	r6, r0, r0, lsl #4
    2710:	00812b00 	addeq	r2, r1, r0, lsl #22
    2714:	000e0000 	andeq	r0, lr, r0
    2718:	00105207 	andseq	r5, r0, r7, lsl #4
    271c:	066c2300 	strbteq	r2, [ip], -r0, lsl #6
    2720:	c5010000 	strgt	r0, [r1, #-0]
    2724:	00000025 	andeq	r0, r0, r5, lsr #32
    2728:	00008f28 	andeq	r8, r0, r8, lsr #30
    272c:	0000004c 	andeq	r0, r0, ip, asr #32
    2730:	11449c01 	cmpne	r4, r1, lsl #24
    2734:	75140000 	ldrvc	r0, [r4, #-0]
    2738:	22c50100 	sbccs	r0, r5, #0, 2
    273c:	cb000007 	blgt	2760 <_start-0x58a0>
    2740:	14000014 	strne	r0, [r0], #-20
    2744:	00667562 	rsbeq	r7, r6, r2, ror #10
    2748:	0c0cc501 	cfstr32eq	mvfx12, [ip], {1}
    274c:	14ec0000 	strbtne	r0, [ip], #0
    2750:	3e130000 	cdpcc	0, 1, cr0, cr3, cr0, {0}
    2754:	01000006 	tsteq	r0, r6
    2758:	000068c5 	andeq	r6, r0, r5, asr #17
    275c:	00150d00 	andseq	r0, r5, r0, lsl #26
    2760:	6e651400 	cdpvs	4, 6, cr1, cr5, cr0, {0}
    2764:	c5010064 	strgt	r0, [r1, #-100]	; 0x64
    2768:	0000004f 	andeq	r0, r0, pc, asr #32
    276c:	0000152e 	andeq	r1, r0, lr, lsr #10
    2770:	73657216 	cmnvc	r5, #1610612737	; 0x60000001
    2774:	25c60100 	strbcs	r0, [r6, #256]	; 0x100
    2778:	4f000000 	svcmi	0x00000000
    277c:	29000015 	stmdbcs	r0, {r0, r2, r4}
    2780:	0000019c 	muleq	r0, ip, r1
    2784:	00001154 	andeq	r1, r0, r4, asr r1
    2788:	99e00305 	stmibls	r0!, {r0, r2, r8, r9}^
    278c:	3c250000 	stccc	0, cr0, [r5], #-0
    2790:	1e00008f 	cdpne	0, 0, cr0, cr0, cr15, {4}
    2794:	0200000b 	andeq	r0, r0, #11
    2798:	20000011 	andcs	r0, r0, r1, lsl r0
    279c:	f3035201 	vhsub.u8	d5, d3, d1
    27a0:	01205201 	teqeq	r0, r1, lsl #4
    27a4:	01f30351 	mvnseq	r0, r1, asr r3
    27a8:	50012051 	andpl	r2, r1, r1, asr r0
    27ac:	5001f303 	andpl	pc, r1, r3, lsl #6
    27b0:	007d0220 	rsbseq	r0, sp, r0, lsr #4
    27b4:	00ff0902 	rscseq	r0, pc, r2, lsl #18
    27b8:	008f4824 	addeq	r4, pc, r4, lsr #16
    27bc:	00118f00 	andseq	r8, r1, r0, lsl #30
    27c0:	8f5c2500 	svchi	0x005c2500
    27c4:	11960000 	orrsne	r0, r6, r0
    27c8:	113a0000 	teqne	sl, r0
    27cc:	01200000 	teqeq	r0, r0
    27d0:	c8080253 	stmdagt	r8, {r0, r1, r4, r6, r9}
    27d4:	05520120 	ldrbeq	r0, [r2, #-288]	; 0x120
    27d8:	0099e003 	addseq	lr, r9, r3
    27dc:	51012000 	mrspl	r2, (UNDEF: 1)
    27e0:	99f80305 	ldmibls	r8!, {r0, r2, r8, r9}^
    27e4:	01200000 	teqeq	r0, r0
    27e8:	4c030550 	cfstr32mi	mvfx0, [r3], {80}	; 0x50
    27ec:	0000009a 	muleq	r0, sl, r0
    27f0:	008f6024 	addeq	r6, pc, r4, lsr #32
    27f4:	0011ac00 	andseq	sl, r1, r0, lsl #24
    27f8:	902a0000 	eorls	r0, sl, r0
    27fc:	54000000 	strpl	r0, [r0], #-0
    2800:	2b000011 	blcs	284c <_start-0x57b4>
    2804:	00000081 	andeq	r0, r0, r1, lsl #1
    2808:	44070016 	strmi	r0, [r7], #-22
    280c:	31000011 	tstcc	r0, r1, lsl r0
    2810:	00000645 	andeq	r0, r0, r5, asr #12
    2814:	116f2106 	cmnne	pc, r6, lsl #2
    2818:	2c320000 	ldccs	0, cr0, [r2], #-0
    281c:	32000000 	andcc	r0, r0, #0
    2820:	0000002c 	andeq	r0, r0, ip, lsr #32
    2824:	05103300 	ldreq	r3, [r0, #-768]	; 0x300
    2828:	57070000 	strpl	r0, [r7, -r0]
    282c:	0000002c 	andeq	r0, r0, ip, lsr #32
    2830:	00060634 	andeq	r0, r6, r4, lsr r6
    2834:	25240600 	strcs	r0, [r4, #-1536]!	; 0x600
    2838:	8f000000 	svchi	0x00000000
    283c:	32000011 	andcc	r0, r0, #17
    2840:	0000002c 	andeq	r0, r0, ip, lsr #32
    2844:	01c93500 	biceq	r3, r9, r0, lsl #10
    2848:	1e070000 	cdpne	0, 0, cr0, cr7, cr0, {0}
    284c:	00024f34 	andeq	r4, r2, r4, lsr pc
    2850:	25290700 	strcs	r0, [r9, #-1792]!	; 0x700
    2854:	ac000000 	stcge	0, cr0, [r0], {-0}
    2858:	32000011 	andcc	r0, r0, #17
    285c:	00000097 	muleq	r0, r7, r0
    2860:	4335002f 	teqmi	r5, #47	; 0x2f
    2864:	07000000 	streq	r0, [r0, -r0]
    2868:	06833166 	streq	r3, [r3], r6, ror #2
    286c:	1d060000 	stcne	0, cr0, [r6, #-0]
    2870:	000011c4 	andeq	r1, r0, r4, asr #3
    2874:	00002c32 	andeq	r2, r0, r2, lsr ip
    2878:	5d310000 	ldcpl	0, cr0, [r1, #-0]
    287c:	06000006 	streq	r0, [r0], -r6
    2880:	0011d51c 	andseq	sp, r1, ip, lsl r5
    2884:	002c3200 	eoreq	r3, ip, r0, lsl #4
    2888:	36000000 	strcc	r0, [r0], -r0
    288c:	0000024c 	andeq	r0, r0, ip, asr #4
    2890:	00250208 	eoreq	r0, r5, r8, lsl #4
    2894:	8a320000 	bhi	c8289c <__bss_end__+0xc789f4>
    2898:	32000000 	andcc	r0, r0, #0
    289c:	00000025 	andeq	r0, r0, r5, lsr #32
    28a0:	00009732 	andeq	r9, r0, r2, lsr r7
    28a4:	01063200 	mrseq	r3, LR_usr
    28a8:	00000000 	andeq	r0, r0, r0
    28ac:	000003ff 	strdeq	r0, [r0], -pc	; <UNPREDICTABLE>
    28b0:	0db80004 	ldceq	0, cr0, [r8, #16]!
    28b4:	01040000 	mrseq	r0, (UNDEF: 4)
    28b8:	000001f5 	strdeq	r0, [r0], -r5
    28bc:	0007ff01 	andeq	pc, r7, r1, lsl #30
    28c0:	00026000 	andeq	r6, r2, r0
    28c4:	008f7400 	addeq	r7, pc, r0, lsl #8
    28c8:	00015400 	andeq	r5, r1, r0, lsl #8
    28cc:	000b9100 	andeq	r9, fp, r0, lsl #2
    28d0:	05040200 	streq	r0, [r4, #-512]	; 0x200
    28d4:	00746e69 	rsbseq	r6, r4, r9, ror #28
    28d8:	1e070403 	cdpne	4, 0, cr0, cr7, cr3, {0}
    28dc:	03000000 	movweq	r0, #0
    28e0:	002d0601 	eoreq	r0, sp, r1, lsl #12
    28e4:	02030000 	andeq	r0, r3, #0
    28e8:	0000c805 	andeq	ip, r0, r5, lsl #16
    28ec:	05040300 	streq	r0, [r4, #-768]	; 0x300
    28f0:	00000005 	andeq	r0, r0, r5
    28f4:	00050803 	andeq	r0, r5, r3, lsl #16
    28f8:	03000000 	movweq	r0, #0
    28fc:	002b0801 	eoreq	r0, fp, r1, lsl #16
    2900:	02030000 	andeq	r0, r3, #0
    2904:	0000b507 	andeq	fp, r0, r7, lsl #10
    2908:	07040300 	streq	r0, [r4, -r0, lsl #6]
    290c:	00000019 	andeq	r0, r0, r9, lsl r0
    2910:	14070803 	strne	r0, [r7], #-2051	; 0x803
    2914:	03000000 	movweq	r0, #0
    2918:	014a0704 	cmpeq	sl, r4, lsl #14
    291c:	01030000 	mrseq	r0, (UNDEF: 3)
    2920:	00003408 	andeq	r3, r0, r8, lsl #8
    2924:	02010400 	andeq	r0, r1, #0, 8
    2928:	0000b20c 	andeq	fp, r0, ip, lsl #4
    292c:	081c0500 	ldmdaeq	ip, {r8, sl}
    2930:	05000000 	streq	r0, [r0, #-0]
    2934:	00000716 	andeq	r0, r0, r6, lsl r7
    2938:	06cf0501 	strbeq	r0, [pc], r1, lsl #10
    293c:	05040000 	streq	r0, [r4, #-0]
    2940:	00000727 	andeq	r0, r0, r7, lsr #14
    2944:	07360505 	ldreq	r0, [r6, -r5, lsl #10]!
    2948:	05060000 	streq	r0, [r6, #-0]
    294c:	00000745 	andeq	r0, r0, r5, asr #14
    2950:	07cf0507 	strbeq	r0, [pc, r7, lsl #10]
    2954:	05030000 	streq	r0, [r3, #-0]
    2958:	00000754 	andeq	r0, r0, r4, asr r7
    295c:	81060002 	tsthi	r6, r2
    2960:	02000007 	andeq	r0, r0, #7
    2964:	00007915 	andeq	r7, r0, r5, lsl r9
    2968:	00390700 	eorseq	r0, r9, r0, lsl #14
    296c:	37010000 	strcc	r0, [r1, -r0]
    2970:	00008f74 	andeq	r8, r0, r4, ror pc
    2974:	0000009c 	muleq	r0, ip, r0
    2978:	01c39c01 	biceq	r9, r3, r1, lsl #24
    297c:	7c080000 	stcvc	0, cr0, [r8], {-0}
    2980:	a800008f 	stmdage	r0, {r0, r1, r2, r3, r7}
    2984:	09000003 	stmdbeq	r0, {r0, r1}
    2988:	00008f88 	andeq	r8, r0, r8, lsl #31
    298c:	000003af 	andeq	r0, r0, pc, lsr #7
    2990:	000000f3 	strdeq	r0, [r0], -r3
    2994:	0151010a 	cmpeq	r1, sl, lsl #2
    2998:	50010a32 	andpl	r0, r1, r2, lsr sl
    299c:	09003e01 	stmdbeq	r0, {r0, r9, sl, fp, ip, sp}
    29a0:	00008f94 	muleq	r0, r4, pc	; <UNPREDICTABLE>
    29a4:	000003af 	andeq	r0, r0, pc, lsr #7
    29a8:	0000010b 	andeq	r0, r0, fp, lsl #2
    29ac:	0151010a 	cmpeq	r1, sl, lsl #2
    29b0:	50010a32 	andpl	r0, r1, r2, lsr sl
    29b4:	08003f01 	stmdaeq	r0, {r0, r8, r9, sl, fp, ip, sp}
    29b8:	00008f98 	muleq	r0, r8, pc	; <UNPREDICTABLE>
    29bc:	000003a8 	andeq	r0, r0, r8, lsr #7
    29c0:	008fa809 	addeq	sl, pc, r9, lsl #16
    29c4:	0003c500 	andeq	ip, r3, r0, lsl #10
    29c8:	00012800 	andeq	r2, r1, r0, lsl #16
    29cc:	50010a00 	andpl	r0, r1, r0, lsl #20
    29d0:	00007502 	andeq	r7, r0, r2, lsl #10
    29d4:	008fb409 	addeq	fp, pc, r9, lsl #8
    29d8:	0003e600 	andeq	lr, r3, r0, lsl #12
    29dc:	00013c00 	andeq	r3, r1, r0, lsl #24
    29e0:	50010a00 	andpl	r0, r1, r0, lsl #20
    29e4:	00007502 	andeq	r7, r0, r2, lsl #10
    29e8:	008fb808 	addeq	fp, pc, r8, lsl #16
    29ec:	0003a800 	andeq	sl, r3, r0, lsl #16
    29f0:	8fc40900 	svchi	0x00c40900
    29f4:	03e60000 	mvneq	r0, #0
    29f8:	01580000 	cmpeq	r8, r0
    29fc:	010a0000 	mrseq	r0, (UNDEF: 10)
    2a00:	00300151 	eorseq	r0, r0, r1, asr r1
    2a04:	008fd009 	addeq	sp, pc, r9
    2a08:	0003e600 	andeq	lr, r3, r0, lsl #12
    2a0c:	00016b00 	andeq	r6, r1, r0, lsl #22
    2a10:	51010a00 	tstpl	r1, r0, lsl #20
    2a14:	09003001 	stmdbeq	r0, {r0, ip, sp}
    2a18:	00008fdc 	ldrdeq	r8, [r0], -ip
    2a1c:	000003e6 	andeq	r0, r0, r6, ror #7
    2a20:	0000017e 	andeq	r0, r0, lr, ror r1
    2a24:	0151010a 	cmpeq	r1, sl, lsl #2
    2a28:	e8090036 	stmda	r9, {r1, r2, r4, r5}
    2a2c:	e600008f 	str	r0, [r0], -pc, lsl #1
    2a30:	91000003 	tstls	r0, r3
    2a34:	0a000001 	beq	2a40 <_start-0x55c0>
    2a38:	33015101 	movwcc	r5, #4353	; 0x1101
    2a3c:	8ff40900 	svchi	0x00f40900
    2a40:	03e60000 	mvneq	r0, #0
    2a44:	01a60000 			; <UNDEFINED> instruction: 0x01a60000
    2a48:	010a0000 	mrseq	r0, (UNDEF: 10)
    2a4c:	0e0a0351 	mcreq	3, 0, r0, cr10, cr1, {2}
    2a50:	00090001 	andeq	r0, r9, r1
    2a54:	e6000090 			; <UNDEFINED> instruction: 0xe6000090
    2a58:	b9000003 	stmdblt	r0, {r0, r1}
    2a5c:	0a000001 	beq	2a68 <_start-0x5598>
    2a60:	33015101 	movwcc	r5, #4353	; 0x1101
    2a64:	90040800 	andls	r0, r4, r0, lsl #16
    2a68:	03a80000 			; <UNDEFINED> instruction: 0x03a80000
    2a6c:	0b000000 	bleq	2a74 <_start-0x558c>
    2a70:	000006de 	ldrdeq	r0, [r0], -lr
    2a74:	00255701 	eoreq	r5, r5, r1, lsl #14
    2a78:	90100000 	andsls	r0, r0, r0
    2a7c:	001c0000 	andseq	r0, ip, r0
    2a80:	9c010000 	stcls	0, cr0, [r1], {-0}
    2a84:	000001e6 	andeq	r0, r0, r6, ror #3
    2a88:	00902008 	addseq	r2, r0, r8
    2a8c:	0003c500 	andeq	ip, r3, r0, lsl #10
    2a90:	b80b0000 	stmdalt	fp, {}	; <UNPREDICTABLE>
    2a94:	01000005 	tsteq	r0, r5
    2a98:	0000255d 	andeq	r2, r0, sp, asr r5
    2a9c:	00902c00 	addseq	r2, r0, r0, lsl #24
    2aa0:	00002800 	andeq	r2, r0, r0, lsl #16
    2aa4:	129c0100 	addsne	r0, ip, #0, 2
    2aa8:	08000002 	stmdaeq	r0, {r1}
    2aac:	00009034 	andeq	r9, r0, r4, lsr r0
    2ab0:	000001c3 	andeq	r0, r0, r3, asr #3
    2ab4:	00904808 	addseq	r4, r0, r8, lsl #16
    2ab8:	0003c500 	andeq	ip, r3, r0, lsl #10
    2abc:	8d0b0000 	stchi	0, cr0, [fp, #-0]
    2ac0:	01000007 	tsteq	r0, r7
    2ac4:	00002564 	andeq	r2, r0, r4, ror #10
    2ac8:	00905400 	addseq	r5, r0, r0, lsl #8
    2acc:	00001c00 	andeq	r1, r0, r0, lsl #24
    2ad0:	359c0100 	ldrcc	r0, [ip, #256]	; 0x100
    2ad4:	08000002 	stmdaeq	r0, {r1}
    2ad8:	00009064 	andeq	r9, r0, r4, rrx
    2adc:	000003c5 	andeq	r0, r0, r5, asr #7
    2ae0:	042f0700 	strteq	r0, [pc], #-1792	; 2ae8 <_start-0x5518>
    2ae4:	6a010000 	bvs	42aec <__bss_end__+0x38c44>
    2ae8:	00009070 	andeq	r9, r0, r0, ror r0
    2aec:	0000002c 	andeq	r0, r0, ip, lsr #32
    2af0:	02719c01 	rsbseq	r9, r1, #256	; 0x100
    2af4:	630c0000 	movwvs	r0, #49152	; 0xc000
    2af8:	2c6a0100 	stfcse	f0, [sl], #-0
    2afc:	6d000000 	stcvs	0, cr0, [r0, #-0]
    2b00:	08000015 	stmdaeq	r0, {r0, r2, r4}
    2b04:	0000907c 	andeq	r9, r0, ip, ror r0
    2b08:	00000212 	andeq	r0, r0, r2, lsl r2
    2b0c:	0090940d 	addseq	r9, r0, sp, lsl #8
    2b10:	0003e600 	andeq	lr, r3, r0, lsl #12
    2b14:	51010a00 	tstpl	r1, r0, lsl #20
    2b18:	00007402 	andeq	r7, r0, r2, lsl #8
    2b1c:	06fc0b00 	ldrbteq	r0, [ip], r0, lsl #22
    2b20:	74010000 	strvc	r0, [r1], #-0
    2b24:	00000025 	andeq	r0, r0, r5, lsr #32
    2b28:	0000909c 	muleq	r0, ip, r0
    2b2c:	0000000c 	andeq	r0, r0, ip
    2b30:	02949c01 	addseq	r9, r4, #256	; 0x100
    2b34:	a4080000 	strge	r0, [r8], #-0
    2b38:	c3000090 	movwgt	r0, #144	; 0x90
    2b3c:	00000001 	andeq	r0, r0, r1
    2b40:	00083b0b 	andeq	r3, r8, fp, lsl #22
    2b44:	25780100 	ldrbcs	r0, [r8, #-256]!	; 0x100
    2b48:	a8000000 	stmdage	r0, {}	; <UNPREDICTABLE>
    2b4c:	20000090 	mulcs	r0, r0, r0
    2b50:	01000000 	mrseq	r0, (UNDEF: 0)
    2b54:	0002c09c 	muleq	r2, ip, r0
    2b58:	90b00800 	adcsls	r0, r0, r0, lsl #16
    2b5c:	02710000 	rsbseq	r0, r1, #0
    2b60:	bc080000 	stclt	0, cr0, [r8], {-0}
    2b64:	e6000090 			; <UNDEFINED> instruction: 0xe6000090
    2b68:	00000001 	andeq	r0, r0, r1
    2b6c:	0007a70e 	andeq	sl, r7, lr, lsl #14
    2b70:	d1160100 	tstle	r6, r0, lsl #2
    2b74:	05000002 	streq	r0, [r0, #-2]
    2b78:	00978003 	addseq	r8, r7, r3
    2b7c:	d7040f00 	strle	r0, [r4, -r0, lsl #30]
    2b80:	10000002 	andne	r0, r0, r2
    2b84:	0000002c 	andeq	r0, r0, ip, lsr #32
    2b88:	00079b0e 	andeq	r9, r7, lr, lsl #22
    2b8c:	d1170100 	tstle	r7, r0, lsl #2
    2b90:	05000002 	streq	r0, [r0, #-2]
    2b94:	00975003 	addseq	r5, r7, r3
    2b98:	06b20e00 	ldrteq	r0, [r2], r0, lsl #28
    2b9c:	1a010000 	bne	42ba4 <__bss_end__+0x38cfc>
    2ba0:	000002d1 	ldrdeq	r0, [r0], -r1
    2ba4:	976c0305 	strbls	r0, [ip, -r5, lsl #6]!
    2ba8:	630e0000 	movwvs	r0, #57344	; 0xe000
    2bac:	01000007 	tsteq	r0, r7
    2bb0:	0002d11b 	andeq	sp, r2, fp, lsl r1
    2bb4:	58030500 	stmdapl	r3, {r8, sl}
    2bb8:	0e000097 	mcreq	0, 0, r0, cr0, cr7, {4}
    2bbc:	00000772 	andeq	r0, r0, r2, ror r7
    2bc0:	02d11c01 	sbcseq	r1, r1, #256	; 0x100
    2bc4:	03050000 	movweq	r0, #20480	; 0x5000
    2bc8:	0000975c 	andeq	r9, r0, ip, asr r7
    2bcc:	00080d0e 	andeq	r0, r8, lr, lsl #26
    2bd0:	d11d0100 	tstle	sp, r0, lsl #2
    2bd4:	05000002 	streq	r0, [r0, #-2]
    2bd8:	00976003 	addseq	r6, r7, r3
    2bdc:	06a30e00 	strteq	r0, [r3], r0, lsl #28
    2be0:	1e010000 	cdpne	0, 0, cr0, cr1, cr0, {0}
    2be4:	000002d1 	ldrdeq	r0, [r0], -r1
    2be8:	977c0305 	ldrbls	r0, [ip, -r5, lsl #6]!
    2bec:	2c0e0000 	stccs	0, cr0, [lr], {-0}
    2bf0:	01000008 	tsteq	r0, r8
    2bf4:	0002d11f 	andeq	sp, r2, pc, lsl r1
    2bf8:	68030500 	stmdavs	r3, {r8, sl}
    2bfc:	0e000097 	mcreq	0, 0, r0, cr0, cr7, {4}
    2c00:	000006c0 	andeq	r0, r0, r0, asr #13
    2c04:	02d12001 	sbcseq	r2, r1, #1
    2c08:	03050000 	movweq	r0, #20480	; 0x5000
    2c0c:	00009778 	andeq	r9, r0, r8, ror r7
    2c10:	0007f00e 	andeq	pc, r7, lr
    2c14:	d1210100 	teqle	r1, r0, lsl #2
    2c18:	05000002 	streq	r0, [r0, #-2]
    2c1c:	00977403 	addseq	r7, r7, r3, lsl #8
    2c20:	06ec0e00 	strbteq	r0, [ip], r0, lsl #28
    2c24:	22010000 	andcs	r0, r1, #0
    2c28:	000002d1 	ldrdeq	r0, [r0], -r1
    2c2c:	97540305 	ldrbls	r0, [r4, -r5, lsl #6]
    2c30:	bf0e0000 	svclt	0x000e0000
    2c34:	01000007 	tsteq	r0, r7
    2c38:	0002d123 	andeq	sp, r2, r3, lsr #2
    2c3c:	70030500 	andvc	r0, r3, r0, lsl #10
    2c40:	0e000097 	mcreq	0, 0, r0, cr0, cr7, {4}
    2c44:	000007af 	andeq	r0, r0, pc, lsr #15
    2c48:	02d12401 	sbcseq	r2, r1, #16777216	; 0x1000000
    2c4c:	03050000 	movweq	r0, #20480	; 0x5000
    2c50:	00009764 	andeq	r9, r0, r4, ror #14
    2c54:	00070a11 	andeq	r0, r7, r1, lsl sl
    2c58:	128a0300 	addne	r0, sl, #0, 6
    2c5c:	000007de 	ldrdeq	r0, [r0], -lr
    2c60:	03c51902 	biceq	r1, r5, #32768	; 0x8000
    2c64:	2c130000 	ldccs	0, cr0, [r3], {-0}
    2c68:	13000000 	movwne	r0, #0
    2c6c:	000000b2 	strheq	r0, [r0], -r2
    2c70:	084b1400 	stmdaeq	fp, {sl, ip}^
    2c74:	a9030000 	stmdbge	r3, {}	; <UNPREDICTABLE>
    2c78:	0000002c 	andeq	r0, r0, ip, lsr #32
    2c7c:	000003da 	ldrdeq	r0, [r0], -sl
    2c80:	0003da13 	andeq	sp, r3, r3, lsl sl
    2c84:	040f0000 	streq	r0, [pc], #-0	; 2c8c <_start-0x5374>
    2c88:	000003e0 	andeq	r0, r0, r0, ror #7
    2c8c:	0003e515 	andeq	lr, r3, r5, lsl r5
    2c90:	79121600 	ldmdbvc	r2, {r9, sl, ip}
    2c94:	03000001 	movweq	r0, #1
    2c98:	0003fc9d 	muleq	r3, sp, ip
    2c9c:	03fc1300 	mvnseq	r1, #0, 6
    2ca0:	2c130000 	ldccs	0, cr0, [r3], {-0}
    2ca4:	00000000 	andeq	r0, r0, r0
    2ca8:	03e5040f 	mvneq	r0, #251658240	; 0xf000000
    2cac:	82000000 	andhi	r0, r0, #0
    2cb0:	04000008 	streq	r0, [r0], #-8
    2cb4:	000ee600 	andeq	lr, lr, r0, lsl #12
    2cb8:	f5010400 			; <UNDEFINED> instruction: 0xf5010400
    2cbc:	01000001 	tsteq	r0, r1
    2cc0:	0000089b 	muleq	r0, fp, r8
    2cc4:	00000260 	andeq	r0, r0, r0, ror #4
    2cc8:	0000912c 	andeq	r9, r0, ip, lsr #2
    2ccc:	000005a0 	andeq	r0, r0, r0, lsr #11
    2cd0:	00000c96 	muleq	r0, r6, ip
    2cd4:	14070802 	strne	r0, [r7], #-2050	; 0x802
    2cd8:	02000000 	andeq	r0, r0, #0
    2cdc:	001e0704 	andseq	r0, lr, r4, lsl #14
    2ce0:	01020000 	mrseq	r0, (UNDEF: 2)
    2ce4:	00002d06 	andeq	r2, r0, r6, lsl #26
    2ce8:	05020200 	streq	r0, [r2, #-512]	; 0x200
    2cec:	000000c8 	andeq	r0, r0, r8, asr #1
    2cf0:	05050402 	streq	r0, [r5, #-1026]	; 0x402
    2cf4:	02000000 	andeq	r0, r0, #0
    2cf8:	00000508 	andeq	r0, r0, r8, lsl #10
    2cfc:	01020000 	mrseq	r0, (UNDEF: 2)
    2d00:	00002b08 	andeq	r2, r0, r8, lsl #22
    2d04:	07020200 	streq	r0, [r2, -r0, lsl #4]
    2d08:	000000b5 	strheq	r0, [r0], -r5
    2d0c:	19070402 	stmdbne	r7, {r1, sl}
    2d10:	03000000 	movweq	r0, #0
    2d14:	6e690504 	cdpvs	5, 6, cr0, cr9, cr4, {0}
    2d18:	04020074 	streq	r0, [r2], #-116	; 0x74
    2d1c:	00014a07 	andeq	r4, r1, r7, lsl #20
    2d20:	08010200 	stmdaeq	r1, {r9}
    2d24:	00000034 	andeq	r0, r0, r4, lsr r0
    2d28:	0c020104 	stfeqs	f0, [r2], {4}
    2d2c:	000000b2 	strheq	r0, [r0], -r2
    2d30:	00081c05 	andeq	r1, r8, r5, lsl #24
    2d34:	16050000 	strne	r0, [r5], -r0
    2d38:	01000007 	tsteq	r0, r7
    2d3c:	0006cf05 	andeq	ip, r6, r5, lsl #30
    2d40:	27050400 	strcs	r0, [r5, -r0, lsl #8]
    2d44:	05000007 	streq	r0, [r0, #-7]
    2d48:	00073605 	andeq	r3, r7, r5, lsl #12
    2d4c:	45050600 	strmi	r0, [r5, #-1536]	; 0x600
    2d50:	07000007 	streq	r0, [r0, -r7]
    2d54:	0007cf05 	andeq	ip, r7, r5, lsl #30
    2d58:	54050300 	strpl	r0, [r5], #-768	; 0x300
    2d5c:	02000007 	andeq	r0, r0, #7
    2d60:	07810600 	streq	r0, [r1, r0, lsl #12]
    2d64:	15020000 	strne	r0, [r2, #-0]
    2d68:	00000079 	andeq	r0, r0, r9, ror r0
    2d6c:	00068307 	andeq	r8, r6, r7, lsl #6
    2d70:	2c3f0100 	ldfcss	f0, [pc], #-0	; 2d78 <_start-0x5288>
    2d74:	d4000091 	strle	r0, [r0], #-145	; 0x91
    2d78:	01000000 	mrseq	r0, (UNDEF: 0)
    2d7c:	0001339c 	muleq	r1, ip, r3
    2d80:	69700800 	ldmdbvs	r0!, {fp}^
    2d84:	3f01006e 	svccc	0x0001006e
    2d88:	0000002c 	andeq	r0, r0, ip, lsr #32
    2d8c:	0000158b 	andeq	r1, r0, fp, lsl #11
    2d90:	0008d709 	andeq	sp, r8, r9, lsl #14
    2d94:	33470100 	movtcc	r0, #28928	; 0x7100
    2d98:	a9000001 	stmdbge	r0, {r0}
    2d9c:	09000015 	stmdbeq	r0, {r0, r2, r4}
    2da0:	000009cb 	andeq	r0, r0, fp, asr #19
    2da4:	002c4901 	eoreq	r4, ip, r1, lsl #18
    2da8:	15fe0000 	ldrbne	r0, [lr, #0]!
    2dac:	6a090000 	bvs	242db4 <__bss_end__+0x238f0c>
    2db0:	01000009 	tsteq	r0, r9
    2db4:	00002c57 	andeq	r2, r0, r7, asr ip
    2db8:	0017ca00 	andseq	ip, r7, r0, lsl #20
    2dbc:	91c00a00 	bicls	r0, r0, r0, lsl #20
    2dc0:	08410000 	stmdaeq	r1, {}^	; <UNPREDICTABLE>
    2dc4:	01220000 	teqeq	r2, r0
    2dc8:	010b0000 	mrseq	r0, (UNDEF: 11)
    2dcc:	00750250 	rsbseq	r0, r5, r0, asr r2
    2dd0:	91f40c00 	mvnsls	r0, r0, lsl #24
    2dd4:	08620000 	stmdaeq	r2!, {}^	; <UNPREDICTABLE>
    2dd8:	010b0000 	mrseq	r0, (UNDEF: 11)
    2ddc:	00750250 	rsbseq	r0, r5, r0, asr r2
    2de0:	040d0000 	streq	r0, [sp], #-0
    2de4:	00000139 	andeq	r0, r0, r9, lsr r1
    2de8:	00002c0e 	andeq	r2, r0, lr, lsl #24
    2dec:	099b0700 	ldmibeq	fp, {r8, r9, sl}
    2df0:	60010000 	andvs	r0, r1, r0
    2df4:	00009200 	andeq	r9, r0, r0, lsl #4
    2df8:	00000038 	andeq	r0, r0, r8, lsr r0
    2dfc:	01969c01 	orrseq	r9, r6, r1, lsl #24
    2e00:	70080000 	andvc	r0, r8, r0
    2e04:	01006e69 	tsteq	r0, r9, ror #28
    2e08:	00002c60 	andeq	r2, r0, r0, ror #24
    2e0c:	0017fa00 	andseq	pc, r7, r0, lsl #20
    2e10:	08d70900 	ldmeq	r7, {r8, fp}^
    2e14:	67010000 	strvs	r0, [r1, -r0]
    2e18:	00000133 	andeq	r0, r0, r3, lsr r1
    2e1c:	0000181b 	andeq	r1, r0, fp, lsl r8
    2e20:	00096a09 	andeq	r6, r9, r9, lsl #20
    2e24:	2c680100 	stfcse	f0, [r8], #-0
    2e28:	51000000 	mrspl	r0, (UNDEF: 0)
    2e2c:	0c000018 	stceq	0, cr0, [r0], {24}
    2e30:	00009230 	andeq	r9, r0, r0, lsr r2
    2e34:	00000862 	andeq	r0, r0, r2, ror #16
    2e38:	0751010b 	ldrbeq	r0, [r1, -fp, lsl #2]
    2e3c:	5001f331 	andpl	pc, r1, r1, lsr r3	; <UNPREDICTABLE>
    2e40:	00241a4f 	eoreq	r1, r4, pc, asr #20
    2e44:	088e0700 	stmeq	lr, {r8, r9, sl}
    2e48:	7b010000 	blvc	42e50 <__bss_end__+0x38fa8>
    2e4c:	00009238 	andeq	r9, r0, r8, lsr r2
    2e50:	00000038 	andeq	r0, r0, r8, lsr r0
    2e54:	01ee9c01 	mvneq	r9, r1, lsl #24
    2e58:	70080000 	andvc	r0, r8, r0
    2e5c:	01006e69 	tsteq	r0, r9, ror #28
    2e60:	00002c7b 	andeq	r2, r0, fp, ror ip
    2e64:	00189100 	andseq	r9, r8, r0, lsl #2
    2e68:	08d70900 	ldmeq	r7, {r8, fp}^
    2e6c:	81010000 	mrshi	r0, (UNDEF: 1)
    2e70:	00000133 	andeq	r0, r0, r3, lsr r1
    2e74:	000018b2 			; <UNDEFINED> instruction: 0x000018b2
    2e78:	00096a09 	andeq	r6, r9, r9, lsl #20
    2e7c:	2c820100 	stfcss	f0, [r2], {0}
    2e80:	e8000000 	stmda	r0, {}	; <UNPREDICTABLE>
    2e84:	0c000018 	stceq	0, cr0, [r0], {24}
    2e88:	00009268 	andeq	r9, r0, r8, ror #4
    2e8c:	00000862 	andeq	r0, r0, r2, ror #16
    2e90:	0751010b 	ldrbeq	r0, [r1, -fp, lsl #2]
    2e94:	5001f331 	andpl	pc, r1, r1, lsr r3	; <UNPREDICTABLE>
    2e98:	00241a4f 	eoreq	r1, r4, pc, asr #20
    2e9c:	065d0700 	ldrbeq	r0, [sp], -r0, lsl #14
    2ea0:	95010000 	strls	r0, [r1, #-0]
    2ea4:	00009270 	andeq	r9, r0, r0, ror r2
    2ea8:	000000cc 	andeq	r0, r0, ip, asr #1
    2eac:	02649c01 	rsbeq	r9, r4, #256	; 0x100
    2eb0:	70080000 	andvc	r0, r8, r0
    2eb4:	01006e69 	tsteq	r0, r9, ror #28
    2eb8:	00002c95 	muleq	r0, r5, ip
    2ebc:	00192800 	andseq	r2, r9, r0, lsl #16
    2ec0:	08d70900 	ldmeq	r7, {r8, fp}^
    2ec4:	9b010000 	blls	42ecc <__bss_end__+0x39024>
    2ec8:	00000133 	andeq	r0, r0, r3, lsr r1
    2ecc:	00001946 	andeq	r1, r0, r6, asr #18
    2ed0:	0009cb09 	andeq	ip, r9, r9, lsl #22
    2ed4:	2c9d0100 	ldfcss	f0, [sp], {0}
    2ed8:	9b000000 	blls	2ee0 <_start-0x5120>
    2edc:	09000019 	stmdbeq	r0, {r0, r3, r4}
    2ee0:	0000096a 	andeq	r0, r0, sl, ror #18
    2ee4:	002cab01 	eoreq	sl, ip, r1, lsl #22
    2ee8:	1b670000 	blne	19c2ef0 <__bss_end__+0x19b9048>
    2eec:	040a0000 	streq	r0, [sl], #-0
    2ef0:	41000093 	swpmi	r0, r3, [r0]	; <UNPREDICTABLE>
    2ef4:	53000008 	movwpl	r0, #8
    2ef8:	0b000002 	bleq	2f08 <_start-0x50f8>
    2efc:	75025001 	strvc	r5, [r2, #-1]
    2f00:	300c0000 	andcc	r0, ip, r0
    2f04:	62000093 	andvs	r0, r0, #147	; 0x93
    2f08:	0b000008 	bleq	2f30 <_start-0x50d0>
    2f0c:	75025001 	strvc	r5, [r2, #-1]
    2f10:	0f000000 	svceq	0x00000000
    2f14:	00000606 	andeq	r0, r0, r6, lsl #12
    2f18:	0064b301 	rsbeq	fp, r4, r1, lsl #6
    2f1c:	933c0000 	teqls	ip, #0
    2f20:	004c0000 	subeq	r0, ip, r0
    2f24:	9c010000 	stcls	0, cr0, [r1], {-0}
    2f28:	000002ac 	andeq	r0, r0, ip, lsr #5
    2f2c:	6e697008 	cdpvs	0, 6, cr7, cr9, cr8, {0}
    2f30:	2cb30100 	ldfcss	f0, [r3]
    2f34:	85000000 	strhi	r0, [r0, #-0]
    2f38:	1000001b 	andne	r0, r0, fp, lsl r0
    2f3c:	b9010076 	stmdblt	r1, {r1, r2, r4, r5, r6}
    2f40:	0000002c 	andeq	r0, r0, ip, lsr #32
    2f44:	00001bdd 	ldrdeq	r1, [r0], -sp
    2f48:	00935c11 	addseq	r5, r3, r1, lsl ip
    2f4c:	00084100 	andeq	r4, r8, r0, lsl #2
    2f50:	936c1100 	cmnls	ip, #0, 2
    2f54:	08410000 	stmdaeq	r1, {}^	; <UNPREDICTABLE>
    2f58:	07000000 	streq	r0, [r0, -r0]
    2f5c:	00000645 	andeq	r0, r0, r5, asr #12
    2f60:	9388c501 	orrls	ip, r8, #4194304	; 0x400000
    2f64:	00240000 	eoreq	r0, r4, r0
    2f68:	9c010000 	stcls	0, cr0, [r1], {-0}
    2f6c:	000002fc 	strdeq	r0, [r0], -ip
    2f70:	6e697008 	cdpvs	0, 6, cr7, cr9, cr8, {0}
    2f74:	2cc50100 	stfcse	f0, [r5], {0}
    2f78:	13000000 	movwne	r0, #0
    2f7c:	0800001c 	stmdaeq	r0, {r2, r3, r4}
    2f80:	c5010076 	strgt	r0, [r1, #-118]	; 0x76
    2f84:	0000002c 	andeq	r0, r0, ip, lsr #32
    2f88:	00001c4d 	andeq	r1, r0, sp, asr #24
    2f8c:	0093a00a 	addseq	sl, r3, sl
    2f90:	00013e00 	andeq	r3, r1, r0, lsl #28
    2f94:	0002f200 	andeq	pc, r2, r0, lsl #4
    2f98:	50010b00 	andpl	r0, r1, r0, lsl #22
    2f9c:	5001f303 	andpl	pc, r1, r3, lsl #6
    2fa0:	93a81100 			; <UNDEFINED> instruction: 0x93a81100
    2fa4:	01960000 	orrseq	r0, r6, r0
    2fa8:	07000000 	streq	r0, [r0, -r0]
    2fac:	000007de 	ldrdeq	r0, [r0], -lr
    2fb0:	93acd101 			; <UNDEFINED> instruction: 0x93acd101
    2fb4:	00d80000 	sbcseq	r0, r8, r0
    2fb8:	9c010000 	stcls	0, cr0, [r1], {-0}
    2fbc:	00000381 	andeq	r0, r0, r1, lsl #7
    2fc0:	6e697008 	cdpvs	0, 6, cr7, cr9, cr8, {0}
    2fc4:	2cd10100 	ldfcse	f0, [r1], {0}
    2fc8:	87000000 	strhi	r0, [r0, -r0]
    2fcc:	1200001c 	andne	r0, r0, #28
    2fd0:	0000097c 	andeq	r0, r0, ip, ror r9
    2fd4:	00b2d101 	adcseq	sp, r2, r1, lsl #2
    2fd8:	1ca50000 	stcne	0, cr0, [r5]
    2fdc:	d7090000 	strle	r0, [r9, -r0]
    2fe0:	01000008 	tsteq	r0, r8
    2fe4:	000133d9 	ldrdeq	r3, [r1], -r9
    2fe8:	001cc600 	andseq	ip, ip, r0, lsl #12
    2fec:	09cb0900 	stmibeq	fp, {r8, fp}^
    2ff0:	da010000 	ble	42ff8 <__bss_end__+0x39150>
    2ff4:	0000002c 	andeq	r0, r0, ip, lsr #32
    2ff8:	00001d1b 	andeq	r1, r0, fp, lsl sp
    2ffc:	00096a09 	andeq	r6, r9, r9, lsl #20
    3000:	2ce80100 	stfcse	f0, [r8]
    3004:	e7000000 	str	r0, [r0, -r0]
    3008:	0a00001e 	beq	3088 <_start-0x4f78>
    300c:	00009448 	andeq	r9, r0, r8, asr #8
    3010:	00000841 	andeq	r0, r0, r1, asr #16
    3014:	00000370 	andeq	r0, r0, r0, ror r3
    3018:	0250010b 	subseq	r0, r0, #-1073741822	; 0xc0000002
    301c:	0c000076 	stceq	0, cr0, [r0], {118}	; 0x76
    3020:	00009478 	andeq	r9, r0, r8, ror r4
    3024:	00000862 	andeq	r0, r0, r2, ror #16
    3028:	0250010b 	subseq	r0, r0, #-1073741822	; 0xc0000002
    302c:	00000076 	andeq	r0, r0, r6, ror r0
    3030:	00098107 	andeq	r8, r9, r7, lsl #2
    3034:	84f10100 	ldrbthi	r0, [r1], #256	; 0x100
    3038:	38000094 	stmdacc	r0, {r2, r4, r7}
    303c:	01000000 	mrseq	r0, (UNDEF: 0)
    3040:	0003d99c 	muleq	r3, ip, r9
    3044:	69700800 	ldmdbvs	r0!, {fp}^
    3048:	f101006e 	setend	le
    304c:	0000002c 	andeq	r0, r0, ip, lsr #32
    3050:	00001f18 	andeq	r1, r0, r8, lsl pc
    3054:	0008d709 	andeq	sp, r8, r9, lsl #14
    3058:	33f70100 	mvnscc	r0, #0, 2
    305c:	39000001 	stmdbcc	r0, {r0}
    3060:	0900001f 	stmdbeq	r0, {r0, r1, r2, r3, r4}
    3064:	0000096a 	andeq	r0, r0, sl, ror #18
    3068:	002cf801 	eoreq	pc, ip, r1, lsl #16
    306c:	1f6f0000 	svcne	0x006f0000
    3070:	b40c0000 	strlt	r0, [ip], #-0
    3074:	62000094 	andvs	r0, r0, #148	; 0x94
    3078:	0b000008 	bleq	30a0 <_start-0x4f60>
    307c:	31075101 	tstcc	r7, r1, lsl #2
    3080:	4f5001f3 	svcmi	0x005001f3
    3084:	0000241a 	andeq	r2, r0, sl, lsl r4
    3088:	00088213 	andeq	r8, r8, r3, lsl r2
    308c:	011f0100 	tsteq	pc, r0, lsl #2
    3090:	00000064 	andeq	r0, r0, r4, rrx
    3094:	000094bc 			; <UNDEFINED> instruction: 0x000094bc
    3098:	0000002c 	andeq	r0, r0, ip, lsr #32
    309c:	040d9c01 	streq	r9, [sp], #-3073	; 0xc01
    30a0:	85140000 	ldrhi	r0, [r4, #-0]
    30a4:	01000008 	tsteq	r0, r8
    30a8:	002c011f 	eoreq	r0, ip, pc, lsl r1
    30ac:	1faf0000 	svcne	0x00af0000
    30b0:	cc110000 	ldcgt	0, cr0, [r1], {-0}
    30b4:	41000094 	swpmi	r0, r4, [r0]	; <UNPREDICTABLE>
    30b8:	00000008 	andeq	r0, r0, r8
    30bc:	00091a15 	andeq	r1, r9, r5, lsl sl
    30c0:	012e0100 	teqeq	lr, r0, lsl #2
    30c4:	000094e8 	andeq	r9, r0, r8, ror #9
    30c8:	00000084 	andeq	r0, r0, r4, lsl #1
    30cc:	04d19c01 	ldrbeq	r9, [r1], #3073	; 0xc01
    30d0:	70160000 	andsvc	r0, r6, r0
    30d4:	01006e69 	tsteq	r0, r9, ror #28
    30d8:	002c012e 	eoreq	r0, ip, lr, lsr #2
    30dc:	1fd00000 	svcne	0x00d00000
    30e0:	a9170000 	ldmdbge	r7, {}	; <UNPREDICTABLE>
    30e4:	01000008 	tsteq	r0, r8
    30e8:	002c0140 	eoreq	r0, ip, r0, asr #2
    30ec:	1ffc0000 	svcne	0x00fc0000
    30f0:	04180000 	ldreq	r0, [r8], #-0
    30f4:	1c000095 	stcne	0, cr0, [r0], {149}	; 0x95
    30f8:	73000000 	movwvc	r0, #0
    30fc:	17000004 	strne	r0, [r0, -r4]
    3100:	0000096a 	andeq	r0, r0, sl, ror #18
    3104:	2c013701 	stccs	7, cr3, [r1], {1}
    3108:	1a000000 	bne	3110 <_start-0x4ef0>
    310c:	11000020 	tstne	r0, r0, lsr #32
    3110:	00009510 	andeq	r9, r0, r0, lsl r5
    3114:	00000841 	andeq	r0, r0, r1, asr #16
    3118:	00952011 	addseq	r2, r5, r1, lsl r0
    311c:	00086200 	andeq	r6, r8, r0, lsl #4
    3120:	24180000 	ldrcs	r0, [r8], #-0
    3124:	20000095 	mulcs	r0, r5, r0
    3128:	a3000000 	movwge	r0, #0
    312c:	17000004 	strne	r0, [r0, -r4]
    3130:	0000096a 	andeq	r0, r0, sl, ror #18
    3134:	2c013b01 	stccs	11, cr3, [r1], {1}
    3138:	38000000 	stmdacc	r0, {}	; <UNPREDICTABLE>
    313c:	11000020 	tstne	r0, r0, lsr #32
    3140:	00009530 	andeq	r9, r0, r0, lsr r5
    3144:	00000841 	andeq	r0, r0, r1, asr #16
    3148:	00954411 	addseq	r4, r5, r1, lsl r4
    314c:	00086200 	andeq	r6, r8, r0, lsl #4
    3150:	fc110000 	ldc2	0, cr0, [r1], {-0}
    3154:	7e000094 	mcrvc	0, 0, r0, cr0, cr4, {4}
    3158:	11000008 	tstne	r0, r8
    315c:	00009548 	andeq	r9, r0, r8, asr #10
    3160:	0000087e 	andeq	r0, r0, lr, ror r8
    3164:	00955411 	addseq	r5, r5, r1, lsl r4
    3168:	00084100 	andeq	r4, r8, r0, lsl #2
    316c:	95601100 	strbls	r1, [r0, #-256]!	; 0x100
    3170:	08620000 	stmdaeq	r2!, {}^	; <UNPREDICTABLE>
    3174:	64110000 	ldrvs	r0, [r1], #-0
    3178:	7e000095 	mcrvc	0, 0, r0, cr0, cr5, {4}
    317c:	00000008 	andeq	r0, r0, r8
    3180:	0009b515 	andeq	fp, r9, r5, lsl r5
    3184:	014b0100 	mrseq	r0, (UNDEF: 91)
    3188:	0000956c 	andeq	r9, r0, ip, ror #10
    318c:	00000084 	andeq	r0, r0, r4, lsl #1
    3190:	05959c01 	ldreq	r9, [r5, #3073]	; 0xc01
    3194:	70160000 	andsvc	r0, r6, r0
    3198:	01006e69 	tsteq	r0, r9, ror #28
    319c:	002c014b 	eoreq	r0, ip, fp, asr #2
    31a0:	20560000 	subscs	r0, r6, r0
    31a4:	a9170000 	ldmdbge	r7, {}	; <UNPREDICTABLE>
    31a8:	01000008 	tsteq	r0, r8
    31ac:	002c015c 	eoreq	r0, ip, ip, asr r1
    31b0:	20820000 	addcs	r0, r2, r0
    31b4:	88180000 	ldmdahi	r8, {}	; <UNPREDICTABLE>
    31b8:	1c000095 	stcne	0, cr0, [r0], {149}	; 0x95
    31bc:	37000000 	strcc	r0, [r0, -r0]
    31c0:	17000005 	strne	r0, [r0, -r5]
    31c4:	0000096a 	andeq	r0, r0, sl, ror #18
    31c8:	2c015301 	stccs	3, cr5, [r1], {1}
    31cc:	a0000000 	andge	r0, r0, r0
    31d0:	11000020 	tstne	r0, r0, lsr #32
    31d4:	00009594 	muleq	r0, r4, r5
    31d8:	00000841 	andeq	r0, r0, r1, asr #16
    31dc:	0095a411 	addseq	sl, r5, r1, lsl r4
    31e0:	00086200 	andeq	r6, r8, r0, lsl #4
    31e4:	a8180000 	ldmdage	r8, {}	; <UNPREDICTABLE>
    31e8:	20000095 	mulcs	r0, r5, r0
    31ec:	67000000 	strvs	r0, [r0, -r0]
    31f0:	17000005 	strne	r0, [r0, -r5]
    31f4:	0000096a 	andeq	r0, r0, sl, ror #18
    31f8:	2c015701 	stccs	7, cr5, [r1], {1}
    31fc:	be000000 	cdplt	0, 0, cr0, cr0, cr0, {0}
    3200:	11000020 	tstne	r0, r0, lsr #32
    3204:	000095b4 			; <UNDEFINED> instruction: 0x000095b4
    3208:	00000841 	andeq	r0, r0, r1, asr #16
    320c:	0095c811 	addseq	ip, r5, r1, lsl r8
    3210:	00086200 	andeq	r6, r8, r0, lsl #4
    3214:	80110000 	andshi	r0, r1, r0
    3218:	7e000095 	mcrvc	0, 0, r0, cr0, cr5, {4}
    321c:	11000008 	tstne	r0, r8
    3220:	000095cc 	andeq	r9, r0, ip, asr #11
    3224:	0000087e 	andeq	r0, r0, lr, ror r8
    3228:	0095d811 	addseq	sp, r5, r1, lsl r8
    322c:	00084100 	andeq	r4, r8, r0, lsl #2
    3230:	95e41100 	strbls	r1, [r4, #256]!	; 0x100
    3234:	08620000 	stmdaeq	r2!, {}^	; <UNPREDICTABLE>
    3238:	e8110000 	ldmda	r1, {}	; <UNPREDICTABLE>
    323c:	7e000095 	mcrvc	0, 0, r0, cr0, cr5, {4}
    3240:	00000008 	andeq	r0, r0, r8
    3244:	00085113 	andeq	r5, r8, r3, lsl r1
    3248:	01660100 	cmneq	r6, r0, lsl #2
    324c:	00000064 	andeq	r0, r0, r4, rrx
    3250:	000095f0 	strdeq	r9, [r0], -r0
    3254:	00000084 	andeq	r0, r0, r4, lsl #1
    3258:	063b9c01 	ldrteq	r9, [fp], -r1, lsl #24
    325c:	70160000 	andsvc	r0, r6, r0
    3260:	01006e69 	tsteq	r0, r9, ror #28
    3264:	002c0166 	eoreq	r0, ip, r6, ror #2
    3268:	20dc0000 	sbcscs	r0, ip, r0
    326c:	0c180000 	ldceq	0, cr0, [r8], {-0}
    3270:	24000096 	strcs	r0, [r0], #-150	; 0x96
    3274:	ef000000 	svc	0x00000000
    3278:	17000005 	strne	r0, [r0, -r5]
    327c:	000008c0 	andeq	r0, r0, r0, asr #17
    3280:	2c016d01 	stccs	13, cr6, [r1], {1}
    3284:	1e000000 	cdpne	0, 0, cr0, cr0, cr0, {0}
    3288:	11000021 	tstne	r0, r1, lsr #32
    328c:	00009618 	andeq	r9, r0, r8, lsl r6
    3290:	00000841 	andeq	r0, r0, r1, asr #16
    3294:	00962811 	addseq	r2, r6, r1, lsl r8
    3298:	00087e00 	andeq	r7, r8, r0, lsl #28
    329c:	30180000 	andscc	r0, r8, r0
    32a0:	2c000096 	stccs	0, cr0, [r0], {150}	; 0x96
    32a4:	28000000 	stmdacs	r0, {}	; <UNPREDICTABLE>
    32a8:	17000006 	strne	r0, [r0, -r6]
    32ac:	000008c0 	andeq	r0, r0, r0, asr #17
    32b0:	2c017001 	stccs	0, cr7, [r1], {1}
    32b4:	38000000 	stmdacc	r0, {}	; <UNPREDICTABLE>
    32b8:	11000021 	tstne	r0, r1, lsr #32
    32bc:	0000963c 	andeq	r9, r0, ip, lsr r6
    32c0:	00000841 	andeq	r0, r0, r1, asr #16
    32c4:	00964811 	addseq	r4, r6, r1, lsl r8
    32c8:	00087e00 	andeq	r7, r8, r0, lsl #28
    32cc:	96541100 	ldrbls	r1, [r4], -r0, lsl #2
    32d0:	087e0000 	ldmdaeq	lr!, {}^	; <UNPREDICTABLE>
    32d4:	11000000 	mrsne	r0, (UNDEF: 0)
    32d8:	00009604 	andeq	r9, r0, r4, lsl #12
    32dc:	0000087e 	andeq	r0, r0, lr, ror r8
    32e0:	00966011 	addseq	r6, r6, r1, lsl r0
    32e4:	00087e00 	andeq	r7, r8, r0, lsl #28
    32e8:	3d150000 	ldccc	0, cr0, [r5, #-0]
    32ec:	01000009 	tsteq	r0, r9
    32f0:	96740179 			; <UNDEFINED> instruction: 0x96740179
    32f4:	00580000 	subseq	r0, r8, r0
    32f8:	9c010000 	stcls	0, cr0, [r1], {-0}
    32fc:	000006a0 	andeq	r0, r0, r0, lsr #13
    3300:	6e697016 	mcrvs	0, 3, r7, cr9, cr6, {0}
    3304:	01790100 	cmneq	r9, r0, lsl #2
    3308:	0000002c 	andeq	r0, r0, ip, lsr #32
    330c:	0000214b 	andeq	r2, r0, fp, asr #2
    3310:	00968811 	addseq	r8, r6, r1, lsl r8
    3314:	00087e00 	andeq	r7, r8, r0, lsl #28
    3318:	96a40a00 	strtls	r0, [r4], r0, lsl #20
    331c:	08620000 	stmdaeq	r2!, {}^	; <UNPREDICTABLE>
    3320:	06800000 	streq	r0, [r0], r0
    3324:	010b0000 	mrseq	r0, (UNDEF: 11)
    3328:	74310451 	ldrtvc	r0, [r1], #-1105	; 0x451
    332c:	0a002400 	beq	c334 <__bss_end__+0x248c>
    3330:	000096c0 	andeq	r9, r0, r0, asr #13
    3334:	00000862 	andeq	r0, r0, r2, ror #16
    3338:	00000696 	muleq	r0, r6, r6
    333c:	0451010b 	ldrbeq	r0, [r1], #-267	; 0x10b
    3340:	24007431 	strcs	r7, [r0], #-1073	; 0x431
    3344:	96c41100 	strbls	r1, [r4], r0, lsl #2
    3348:	087e0000 	ldmdaeq	lr!, {}^	; <UNPREDICTABLE>
    334c:	19000000 	stmdbne	r0, {}	; <UNPREDICTABLE>
    3350:	00000908 	andeq	r0, r0, r8, lsl #18
    3354:	01332801 	teqeq	r3, r1, lsl #16
    3358:	03050000 	movweq	r0, #20480	; 0x5000
    335c:	000097e0 	andeq	r9, r0, r0, ror #15
    3360:	00097219 	andeq	r7, r9, r9, lsl r2
    3364:	33290100 	teqcc	r9, #0, 2
    3368:	05000001 	streq	r0, [r0, #-1]
    336c:	0097dc03 	addseq	sp, r7, r3, lsl #24
    3370:	09d61900 	ldmibeq	r6, {r8, fp, ip}^
    3374:	2a010000 	bcs	4337c <__bss_end__+0x394d4>
    3378:	00000133 	andeq	r0, r0, r3, lsr r1
    337c:	97d80305 	ldrbls	r0, [r8, r5, lsl #6]
    3380:	e0190000 	ands	r0, r9, r0
    3384:	01000008 	tsteq	r0, r8
    3388:	0001332c 	andeq	r3, r1, ip, lsr #6
    338c:	84030500 	strhi	r0, [r3], #-1280	; 0x500
    3390:	19000097 	stmdbne	r0, {r0, r1, r2, r4, r7}
    3394:	000008e8 	andeq	r0, r0, r8, ror #17
    3398:	01332d01 	teqeq	r3, r1, lsl #26
    339c:	03050000 	movweq	r0, #20480	; 0x5000
    33a0:	00009788 	andeq	r9, r0, r8, lsl #15
    33a4:	00086519 	andeq	r6, r8, r9, lsl r5
    33a8:	332e0100 	teqcc	lr, #0, 2
    33ac:	05000001 	streq	r0, [r0, #-1]
    33b0:	00978c03 	addseq	r8, r7, r3, lsl #24
    33b4:	08f01900 	ldmeq	r0!, {r8, fp, ip}^
    33b8:	2f010000 	svccs	0x00010000
    33bc:	00000133 	andeq	r0, r0, r3, lsr r1
    33c0:	97900305 	ldrls	r0, [r0, r5, lsl #6]
    33c4:	f8190000 			; <UNDEFINED> instruction: 0xf8190000
    33c8:	01000008 	tsteq	r0, r8
    33cc:	00013330 	andeq	r3, r1, r0, lsr r3
    33d0:	94030500 	strls	r0, [r3], #-1280	; 0x500
    33d4:	19000097 	stmdbne	r0, {r0, r1, r2, r4, r7}
    33d8:	00000900 	andeq	r0, r0, r0, lsl #18
    33dc:	01333101 	teqeq	r3, r1, lsl #2
    33e0:	03050000 	movweq	r0, #20480	; 0x5000
    33e4:	00009798 	muleq	r0, r8, r7
    33e8:	0008b219 	andeq	fp, r8, r9, lsl r2
    33ec:	33330100 	teqcc	r3, #0, 2
    33f0:	05000001 	streq	r0, [r0, #-1]
    33f4:	00979c03 	addseq	r9, r7, r3, lsl #24
    33f8:	08b91900 	ldmeq	r9!, {r8, fp, ip}
    33fc:	34010000 	strcc	r0, [r1], #-0
    3400:	00000133 	andeq	r0, r0, r3, lsr r1
    3404:	97a00305 	strls	r0, [r0, r5, lsl #6]!
    3408:	6d190000 	ldcvs	0, cr0, [r9, #-0]
    340c:	01000008 	tsteq	r0, r8
    3410:	00013336 	andeq	r3, r1, r6, lsr r3
    3414:	a4030500 	strge	r0, [r3], #-1280	; 0x500
    3418:	19000097 	stmdbne	r0, {r0, r1, r2, r4, r7}
    341c:	00000913 	andeq	r0, r0, r3, lsl r9
    3420:	01333701 	teqeq	r3, r1, lsl #14
    3424:	03050000 	movweq	r0, #20480	; 0x5000
    3428:	000097a8 	andeq	r9, r0, r8, lsr #15
    342c:	0008c919 	andeq	ip, r8, r9, lsl r9
    3430:	33390100 	teqcc	r9, #0, 2
    3434:	05000001 	streq	r0, [r0, #-1]
    3438:	0097ac03 	addseq	sl, r7, r3, lsl #24
    343c:	08d01900 	ldmeq	r0, {r8, fp, ip}^
    3440:	3a010000 	bcc	43448 <__bss_end__+0x395a0>
    3444:	00000133 	andeq	r0, r0, r3, lsr r1
    3448:	97b00305 	ldrls	r0, [r0, r5, lsl #6]!
    344c:	4e1a0000 	cdpmi	0, 1, cr0, cr10, cr0, {0}
    3450:	01000009 	tsteq	r0, r9
    3454:	0133010a 	teqeq	r3, sl, lsl #2
    3458:	03050000 	movweq	r0, #20480	; 0x5000
    345c:	000097d4 	ldrdeq	r9, [r0], -r4
    3460:	00095c1a 	andeq	r5, r9, sl, lsl ip
    3464:	010b0100 	mrseq	r0, (UNDEF: 27)
    3468:	00000133 	andeq	r0, r0, r3, lsr r1
    346c:	97b40305 	ldrls	r0, [r4, r5, lsl #6]!
    3470:	8d1a0000 	ldchi	0, cr0, [sl, #-0]
    3474:	01000009 	tsteq	r0, r9
    3478:	0133010d 	teqeq	r3, sp, lsl #2
    347c:	03050000 	movweq	r0, #20480	; 0x5000
    3480:	000097cc 	andeq	r9, r0, ip, asr #15
    3484:	0009941a 	andeq	r9, r9, sl, lsl r4
    3488:	010e0100 	mrseq	r0, (UNDEF: 30)
    348c:	00000133 	andeq	r0, r0, r3, lsr r1
    3490:	97d00305 	ldrbls	r0, [r0, r5, lsl #6]
    3494:	2f1a0000 	svccs	0x001a0000
    3498:	01000009 	tsteq	r0, r9
    349c:	01330110 	teqeq	r3, r0, lsl r1
    34a0:	03050000 	movweq	r0, #20480	; 0x5000
    34a4:	000097b8 			; <UNDEFINED> instruction: 0x000097b8
    34a8:	0009361a 	andeq	r3, r9, sl, lsl r6
    34ac:	01110100 	tsteq	r1, r0, lsl #2
    34b0:	00000133 	andeq	r0, r0, r3, lsr r1
    34b4:	97bc0305 	ldrls	r0, [ip, r5, lsl #6]!
    34b8:	a71a0000 	ldrge	r0, [sl, -r0]
    34bc:	01000009 	tsteq	r0, r9
    34c0:	01330113 	teqeq	r3, r3, lsl r1
    34c4:	03050000 	movweq	r0, #20480	; 0x5000
    34c8:	000097c4 	andeq	r9, r0, r4, asr #15
    34cc:	0009ae1a 	andeq	sl, r9, sl, lsl lr
    34d0:	01140100 	tsteq	r4, r0, lsl #2
    34d4:	00000133 	andeq	r0, r0, r3, lsr r1
    34d8:	97c80305 	strbls	r0, [r8, r5, lsl #6]
    34dc:	741a0000 	ldrvc	r0, [sl], #-0
    34e0:	01000008 	tsteq	r0, r8
    34e4:	01330116 	teqeq	r3, r6, lsl r1
    34e8:	03050000 	movweq	r0, #20480	; 0x5000
    34ec:	000097c0 	andeq	r9, r0, r0, asr #15
    34f0:	00084b1b 	andeq	r4, r8, fp, lsl fp
    34f4:	2c200100 	stfcss	f0, [r0], #-0
    34f8:	56000000 	strpl	r0, [r0], -r0
    34fc:	1c000008 	stcne	0, cr0, [r0], {8}
    3500:	00000856 	andeq	r0, r0, r6, asr r8
    3504:	5c040d00 	stcpl	13, cr0, [r4], {-0}
    3508:	1d000008 	stcne	0, cr0, [r0, #-32]	; 0xffffffe0
    350c:	00000861 	andeq	r0, r0, r1, ror #16
    3510:	01791f1e 	cmneq	r9, lr, lsl pc
    3514:	1e010000 	cdpne	0, 0, cr0, cr1, cr0, {0}
    3518:	00000878 	andeq	r0, r0, r8, ror r8
    351c:	0008781c 	andeq	r7, r8, ip, lsl r8
    3520:	002c1c00 	eoreq	r1, ip, r0, lsl #24
    3524:	0d000000 	stceq	0, cr0, [r0, #-0]
    3528:	00086104 	andeq	r6, r8, r4, lsl #2
    352c:	070a2000 	streq	r2, [sl, -r0]
    3530:	8a030000 	bhi	c3538 <__bss_end__+0xb9690>
    3534:	0001c300 	andeq	ip, r1, r0, lsl #6
    3538:	c0000400 	andgt	r0, r0, r0, lsl #8
    353c:	04000010 	streq	r0, [r0], #-16
    3540:	0001f501 	andeq	pc, r1, r1, lsl #10
    3544:	09f50100 	ldmibeq	r5!, {r8}^
    3548:	02600000 	rsbeq	r0, r0, #0
    354c:	96cc0000 	strbls	r0, [ip], r0
    3550:	00500000 	subseq	r0, r0, r0
    3554:	0e190000 	cdpeq	0, 1, cr0, cr9, cr0, {0}
    3558:	04020000 	streq	r0, [r2], #-0
    355c:	746e6905 	strbtvc	r6, [lr], #-2309	; 0x905
    3560:	09e00300 	stmibeq	r0!, {r8, r9}^
    3564:	d4020000 	strle	r0, [r2], #-0
    3568:	00000037 	andeq	r0, r0, r7, lsr r0
    356c:	1e070404 	cdpne	4, 0, cr0, cr7, cr4, {0}
    3570:	04000000 	streq	r0, [r0], #-0
    3574:	002d0601 	eoreq	r0, sp, r1, lsl #12
    3578:	02040000 	andeq	r0, r4, #0
    357c:	0000c805 	andeq	ip, r0, r5, lsl #16
    3580:	05040400 	streq	r0, [r4, #-1024]	; 0x400
    3584:	00000005 	andeq	r0, r0, r5
    3588:	00050804 	andeq	r0, r5, r4, lsl #16
    358c:	03000000 	movweq	r0, #0
    3590:	00000439 	andeq	r0, r0, r9, lsr r4
    3594:	00652e03 	rsbeq	r2, r5, r3, lsl #28
    3598:	01040000 	mrseq	r0, (UNDEF: 4)
    359c:	00002b08 	andeq	r2, r0, r8, lsl #22
    35a0:	07020400 	streq	r0, [r2, -r0, lsl #8]
    35a4:	000000b5 	strheq	r0, [r0], -r5
    35a8:	00049003 	andeq	r9, r4, r3
    35ac:	7e340300 	cdpvc	3, 3, cr0, cr4, cr0, {0}
    35b0:	04000000 	streq	r0, [r0], #-0
    35b4:	00190704 	andseq	r0, r9, r4, lsl #14
    35b8:	08040000 	stmdaeq	r4, {}	; <UNPREDICTABLE>
    35bc:	00001407 	andeq	r1, r0, r7, lsl #8
    35c0:	07040400 	streq	r0, [r4, -r0, lsl #8]
    35c4:	0000014a 	andeq	r0, r0, sl, asr #2
    35c8:	01040405 	tsteq	r4, r5, lsl #8
    35cc:	00003408 	andeq	r3, r0, r8, lsl #8
    35d0:	040c0600 	streq	r0, [ip], #-1536	; 0x600
    35d4:	0000d30e 	andeq	sp, r0, lr, lsl #6
    35d8:	78740700 	ldmdavc	r4!, {r8, r9, sl}^
    35dc:	5a0f0400 	bpl	3c45e4 <__bss_end__+0x3ba73c>
    35e0:	00000000 	andeq	r0, r0, r0
    35e4:	00787207 	rsbseq	r7, r8, r7, lsl #4
    35e8:	005a0f04 	subseq	r0, sl, r4, lsl #30
    35ec:	08010000 	stmdaeq	r1, {}	; <UNPREDICTABLE>
    35f0:	00000407 	andeq	r0, r0, r7, lsl #8
    35f4:	00731004 	rsbseq	r1, r3, r4
    35f8:	08040000 	stmdaeq	r4, {}	; <UNPREDICTABLE>
    35fc:	000003b8 			; <UNDEFINED> instruction: 0x000003b8
    3600:	00731104 	rsbseq	r1, r3, r4, lsl #2
    3604:	00080000 	andeq	r0, r8, r0
    3608:	0003f003 	andeq	pc, r3, r3
    360c:	9c120400 	cfldrsls	mvf0, [r2], {-0}
    3610:	09000000 	stmdbeq	r0, {}	; <UNPREDICTABLE>
    3614:	f9100501 			; <UNDEFINED> instruction: 0xf9100501
    3618:	0a000000 	beq	3620 <_start-0x49e0>
    361c:	0000040c 	andeq	r0, r0, ip, lsl #8
    3620:	03fa0a01 	mvnseq	r0, #4096	; 0x1000
    3624:	0a020000 	beq	8362c <__bss_end__+0x79784>
    3628:	000003e2 	andeq	r0, r0, r2, ror #7
    362c:	21030003 	tstcs	r3, r3
    3630:	05000004 	streq	r0, [r0, #-4]
    3634:	0000de10 	andeq	sp, r0, r0, lsl lr
    3638:	05140600 	ldreq	r0, [r4, #-1536]	; 0x600
    363c:	00013114 	andeq	r3, r1, r4, lsl r1
    3640:	04990800 	ldreq	r0, [r9], #2048	; 0x800
    3644:	15050000 	strne	r0, [r5, #-0]
    3648:	00000037 	andeq	r0, r0, r7, lsr r0
    364c:	04840800 	streq	r0, [r4], #2048	; 0x800
    3650:	18050000 	stmdane	r5, {}	; <UNPREDICTABLE>
    3654:	000000f9 	strdeq	r0, [r0], -r9
    3658:	044f0804 	strbeq	r0, [pc], #-2052	; 3660 <_start-0x49a0>
    365c:	1b050000 	blne	143664 <__bss_end__+0x1397bc>
    3660:	000000d3 	ldrdeq	r0, [r0], -r3
    3664:	41030008 	tstmi	r3, r8
    3668:	05000004 	streq	r0, [r0, #-4]
    366c:	00010420 	andeq	r0, r1, r0, lsr #8
    3670:	09ee0b00 	stmibeq	lr!, {r8, r9, fp}^
    3674:	05010000 	streq	r0, [r1, #-0]
    3678:	0000017e 	andeq	r0, r0, lr, ror r1
    367c:	000096cc 	andeq	r9, r0, ip, asr #13
    3680:	00000028 	andeq	r0, r0, r8, lsr #32
    3684:	017e9c01 	cmneq	lr, r1, lsl #24
    3688:	630c0000 	movwvs	r0, #49152	; 0xc000
    368c:	7e060100 	adfvcs	f0, f6, f0
    3690:	00000001 	andeq	r0, r0, r1
    3694:	0d090000 	stceq	0, cr0, [r9, #-0]
    3698:	000096e0 	andeq	r9, r0, r0, ror #13
    369c:	000001ab 	andeq	r0, r0, fp, lsr #3
    36a0:	0152010e 	cmpeq	r2, lr, lsl #2
    36a4:	51010e34 	tstpl	r1, r4, lsr lr
    36a8:	010e3001 	tsteq	lr, r1
    36ac:	47420350 	smlsldmi	r0, r2, r0, r3
    36b0:	0f000024 	svceq	0x00000024
    36b4:	00013104 	andeq	r3, r1, r4, lsl #2
    36b8:	04570b00 	ldrbeq	r0, [r7], #-2816	; 0xb00
    36bc:	0c010000 	stceq	0, cr0, [r1], {-0}
    36c0:	0000017e 	andeq	r0, r0, lr, ror r1
    36c4:	000096f4 	strdeq	r9, [r0], -r4
    36c8:	00000028 	andeq	r0, r0, r8, lsr #32
    36cc:	01ab9c01 			; <UNDEFINED> instruction: 0x01ab9c01
    36d0:	630c0000 	movwvs	r0, #49152	; 0xc000
    36d4:	7e0d0100 	adfvce	f0, f5, f0
    36d8:	00000001 	andeq	r0, r0, r1
    36dc:	00090000 	andeq	r0, r9, r0
    36e0:	0009e710 	andeq	lr, r9, r0, lsl r7
    36e4:	931b0600 	tstls	fp, #0, 12
    36e8:	11000000 	mrsne	r0, (UNDEF: 0)
    36ec:	00000093 	muleq	r0, r3, r0
    36f0:	00002511 	andeq	r2, r0, r1, lsl r5
    36f4:	002c1100 	eoreq	r1, ip, r0, lsl #2
    36f8:	00000000 	andeq	r0, r0, r0
    36fc:	000000db 	ldrdeq	r0, [r0], -fp
    3700:	11a40004 			; <UNDEFINED> instruction: 0x11a40004
    3704:	01040000 	mrseq	r0, (UNDEF: 4)
    3708:	000001f5 	strdeq	r0, [r0], -r5
    370c:	000a1001 	andeq	r1, sl, r1
    3710:	00026000 	andeq	r6, r2, r0
    3714:	00971c00 	addseq	r1, r7, r0, lsl #24
    3718:	00002000 	andeq	r2, r0, r0
    371c:	000f4500 	andeq	r4, pc, r0, lsl #10
    3720:	06010200 	streq	r0, [r1], -r0, lsl #4
    3724:	0000002d 	andeq	r0, r0, sp, lsr #32
    3728:	2b080102 	blcs	203b38 <__bss_end__+0x1f9c90>
    372c:	02000000 	andeq	r0, r0, #0
    3730:	00c80502 	sbceq	r0, r8, r2, lsl #10
    3734:	02020000 	andeq	r0, r2, #0
    3738:	0000b507 	andeq	fp, r0, r7, lsl #10
    373c:	05040300 	streq	r0, [r4, #-768]	; 0x300
    3740:	00746e69 	rsbseq	r6, r4, r9, ror #28
    3744:	1e070402 	cdpne	4, 0, cr0, cr7, cr2, {0}
    3748:	02000000 	andeq	r0, r0, #0
    374c:	00000508 	andeq	r0, r0, r8, lsl #10
    3750:	08020000 	stmdaeq	r2, {}	; <UNPREDICTABLE>
    3754:	00001407 	andeq	r1, r0, r7, lsl #8
    3758:	05040200 	streq	r0, [r4, #-512]	; 0x200
    375c:	00000005 	andeq	r0, r0, r5
    3760:	4a070402 	bmi	1c4770 <__bss_end__+0x1ba8c8>
    3764:	04000001 	streq	r0, [r0], #-1
    3768:	07040204 	streq	r0, [r4, -r4, lsl #4]
    376c:	00000019 	andeq	r0, r0, r9, lsl r0
    3770:	007a0405 	rsbseq	r0, sl, r5, lsl #8
    3774:	01020000 	mrseq	r0, (UNDEF: 2)
    3778:	00003408 	andeq	r3, r0, r8, lsl #8
    377c:	09e00600 	stmibeq	r0!, {r9, sl}^
    3780:	d4020000 	strle	r0, [r2], #-0
    3784:	00000048 	andeq	r0, r0, r8, asr #32
    3788:	0009e707 	andeq	lr, r9, r7, lsl #14
    378c:	6b1b0300 	blvs	6c4394 <__bss_end__+0x6ba4ec>
    3790:	1c000000 	stcne	0, cr0, [r0], {-0}
    3794:	20000097 	mulcs	r0, r7, r0
    3798:	01000000 	mrseq	r0, (UNDEF: 0)
    379c:	705f089c 			; <UNDEFINED> instruction: 0x705f089c
    37a0:	6b030100 	blvs	c3ba8 <__bss_end__+0xb9d00>
    37a4:	01000000 	mrseq	r0, (UNDEF: 0)
    37a8:	00630850 	rsbeq	r0, r3, r0, asr r8
    37ac:	00410301 	subeq	r0, r1, r1, lsl #6
    37b0:	51010000 	mrspl	r0, (UNDEF: 1)
    37b4:	01006e09 	tsteq	r0, r9, lsl #28
    37b8:	00008103 	andeq	r8, r0, r3, lsl #2
    37bc:	00217700 	eoreq	r7, r1, r0, lsl #14
    37c0:	00700a00 	rsbseq	r0, r0, r0, lsl #20
    37c4:	00740401 	rsbseq	r0, r4, r1, lsl #8
    37c8:	21980000 	orrscs	r0, r8, r0
    37cc:	650b0000 	strvs	r0, [fp, #-0]
    37d0:	74040100 	strvc	r0, [r4], #-256	; 0x100
    37d4:	01000000 	mrseq	r0, (UNDEF: 0)
    37d8:	Address 0x00000000000037d8 is out of bounds.


Disassembly of section .debug_abbrev:

00000000 <.debug_abbrev>:
       0:	25011101 	strcs	r1, [r1, #-257]	; 0x101
       4:	030b130e 	movweq	r1, #45838	; 0xb30e
       8:	110e1b0e 	tstne	lr, lr, lsl #22
       c:	10061201 	andne	r1, r6, r1, lsl #4
      10:	02000017 	andeq	r0, r0, #23
      14:	0b0b0024 	bleq	2c00ac <__bss_end__+0x2b6204>
      18:	08030b3e 	stmdaeq	r3, {r1, r2, r3, r4, r5, r8, r9, fp}
      1c:	24030000 	strcs	r0, [r3], #-0
      20:	3e0b0b00 	vmlacc.f64	d0, d11, d0
      24:	000e030b 	andeq	r0, lr, fp, lsl #6
      28:	000f0400 	andeq	r0, pc, r0, lsl #8
      2c:	13490b0b 	movtne	r0, #39691	; 0x9b0b
      30:	26050000 	strcs	r0, [r5], -r0
      34:	00134900 	andseq	r4, r3, r0, lsl #18
      38:	012e0600 	teqeq	lr, r0, lsl #12
      3c:	0e03193f 	mcreq	9, 0, r1, cr3, cr15, {1}
      40:	0b3b0b3a 	bleq	ec2d30 <__bss_end__+0xeb8e88>
      44:	01111927 	tsteq	r1, r7, lsr #18
      48:	18400612 	stmdane	r0, {r1, r4, r9, sl}^
      4c:	01194297 			; <UNDEFINED> instruction: 0x01194297
      50:	07000013 	smladeq	r0, r3, r0, r0
      54:	08030034 	stmdaeq	r3, {r2, r4, r5}
      58:	0b3b0b3a 	bleq	ec2d48 <__bss_end__+0xeb8ea0>
      5c:	0b1c1349 	bleq	704d88 <__bss_end__+0x6faee0>
      60:	34080000 	strcc	r0, [r8], #-0
      64:	3a0e0300 	bcc	380c6c <__bss_end__+0x376dc4>
      68:	490b3b0b 	stmdbmi	fp, {r0, r1, r3, r8, r9, fp, ip, sp}
      6c:	000b1c13 	andeq	r1, fp, r3, lsl ip
      70:	012e0900 	teqeq	lr, r0, lsl #18
      74:	0e03193f 	mcreq	9, 0, r1, cr3, cr15, {1}
      78:	0b3b0b3a 	bleq	ec2d68 <__bss_end__+0xeb8ec0>
      7c:	193c1349 	ldmdbne	ip!, {r0, r3, r6, r8, r9, ip}
      80:	00001301 	andeq	r1, r0, r1, lsl #6
      84:	0000180a 	andeq	r1, r0, sl, lsl #16
      88:	82890b00 	addhi	r0, r9, #0, 22
      8c:	01110001 	tsteq	r1, r1
      90:	00001331 	andeq	r1, r0, r1, lsr r3
      94:	0182890c 	orreq	r8, r2, ip, lsl #18
      98:	31011101 	tstcc	r1, r1, lsl #2
      9c:	00130113 	andseq	r0, r3, r3, lsl r1
      a0:	828a0d00 	addhi	r0, sl, #0, 26
      a4:	18020001 	stmdane	r2, {r0}
      a8:	00184291 	mulseq	r8, r1, r2
      ac:	002e0e00 	eoreq	r0, lr, r0, lsl #28
      b0:	0e03193f 	mcreq	9, 0, r1, cr3, cr15, {1}
      b4:	0b3b0b3a 	bleq	ec2da4 <__bss_end__+0xeb8efc>
      b8:	193c1927 	ldmdbne	ip!, {r0, r1, r2, r5, r8, fp, ip}
      bc:	2e0f0000 	cdpcs	0, 0, cr0, cr15, cr0, {0}
      c0:	03193f01 	tsteq	r9, #1, 30
      c4:	3b0b3a0e 	blcc	2ce904 <__bss_end__+0x2c4a5c>
      c8:	4919270b 	ldmdbmi	r9, {r0, r1, r3, r8, r9, sl, sp}
      cc:	01193c13 	tsteq	r9, r3, lsl ip
      d0:	10000013 	andne	r0, r0, r3, lsl r0
      d4:	13490005 	movtne	r0, #36869	; 0x9005
      d8:	01000000 	mrseq	r0, (UNDEF: 0)
      dc:	0e250111 	mcreq	1, 1, r0, cr5, cr1, {0}
      e0:	0e030b13 	vmoveq.32	d3[0], r0
      e4:	01110e1b 	tsteq	r1, fp, lsl lr
      e8:	17100612 			; <UNDEFINED> instruction: 0x17100612
      ec:	24020000 	strcs	r0, [r2], #-0
      f0:	3e0b0b00 	vmlacc.f64	d0, d11, d0
      f4:	0008030b 	andeq	r0, r8, fp, lsl #6
      f8:	00240300 	eoreq	r0, r4, r0, lsl #6
      fc:	0b3e0b0b 	bleq	f82d30 <__bss_end__+0xf78e88>
     100:	00000e03 	andeq	r0, r0, r3, lsl #28
     104:	0b000f04 	bleq	3d1c <_start-0x42e4>
     108:	0013490b 	andseq	r4, r3, fp, lsl #18
     10c:	00260500 	eoreq	r0, r6, r0, lsl #10
     110:	00001349 	andeq	r1, r0, r9, asr #6
     114:	3f012e06 	svccc	0x00012e06
     118:	3a0e0319 	bcc	380d84 <__bss_end__+0x376edc>
     11c:	270b3b0b 	strcs	r3, [fp, -fp, lsl #22]
     120:	12011119 	andne	r1, r1, #1073741830	; 0x40000006
     124:	97184006 	ldrls	r4, [r8, -r6]
     128:	13011942 	movwne	r1, #6466	; 0x1942
     12c:	05070000 	streq	r0, [r7, #-0]
     130:	3a080300 	bcc	200d38 <__bss_end__+0x1f6e90>
     134:	490b3b0b 	stmdbmi	fp, {r0, r1, r3, r8, r9, fp, ip, sp}
     138:	00170213 	andseq	r0, r7, r3, lsl r2
     13c:	00340800 	eorseq	r0, r4, r0, lsl #16
     140:	0b3a0803 	bleq	e82154 <__bss_end__+0xe782ac>
     144:	13490b3b 	movtne	r0, #39739	; 0x9b3b
     148:	00000b1c 	andeq	r0, r0, ip, lsl fp
     14c:	03003409 	movweq	r3, #1033	; 0x409
     150:	3b0b3a0e 	blcc	2ce990 <__bss_end__+0x2c4ae8>
     154:	0213490b 	andseq	r4, r3, #180224	; 0x2c000
     158:	0a000017 	beq	1bc <_start-0x7e44>
     15c:	0e030034 	mcreq	0, 0, r0, cr3, cr4, {1}
     160:	0b3b0b3a 	bleq	ec2e50 <__bss_end__+0xeb8fa8>
     164:	18021349 	stmdane	r2, {r0, r3, r6, r8, r9, ip}
     168:	0b0b0000 	bleq	2c0170 <__bss_end__+0x2b62c8>
     16c:	12011101 	andne	r1, r1, #1073741824	; 0x40000000
     170:	00130106 	andseq	r0, r3, r6, lsl #2
     174:	82890c00 	addhi	r0, r9, #0, 24
     178:	01110101 	tsteq	r1, r1, lsl #2
     17c:	13011331 	movwne	r1, #4913	; 0x1331
     180:	8a0d0000 	bhi	340188 <__bss_end__+0x3362e0>
     184:	02000182 	andeq	r0, r0, #-2147483616	; 0x80000020
     188:	18429118 	stmdane	r2, {r3, r4, r8, ip, pc}^
     18c:	890e0000 	stmdbhi	lr, {}	; <UNPREDICTABLE>
     190:	11010182 	smlabbne	r1, r2, r1, r0
     194:	00133101 	andseq	r3, r3, r1, lsl #2
     198:	00350f00 	eorseq	r0, r5, r0, lsl #30
     19c:	00001349 	andeq	r1, r0, r9, asr #6
     1a0:	03003410 	movweq	r3, #1040	; 0x410
     1a4:	3413490e 	ldrcc	r4, [r3], #-2318	; 0x90e
     1a8:	00180219 	andseq	r0, r8, r9, lsl r2
     1ac:	82891100 	addhi	r1, r9, #0, 2
     1b0:	01110001 	tsteq	r1, r1
     1b4:	00001331 	andeq	r1, r0, r1, lsr r3
     1b8:	49010112 	stmdbmi	r1, {r1, r4, r8}
     1bc:	00130113 	andseq	r0, r3, r3, lsl r1
     1c0:	00211300 	eoreq	r1, r1, r0, lsl #6
     1c4:	0b2f1349 	bleq	bc4ef0 <__bss_end__+0xbbb048>
     1c8:	34140000 	ldrcc	r0, [r4], #-0
     1cc:	3a0e0300 	bcc	380dd4 <__bss_end__+0x376f2c>
     1d0:	490b3b0b 	stmdbmi	fp, {r0, r1, r3, r8, r9, fp, ip, sp}
     1d4:	02193f13 	andseq	r3, r9, #19, 30	; 0x4c
     1d8:	15000018 	strne	r0, [r0, #-24]
     1dc:	193f012e 	ldmdbne	pc!, {r1, r2, r3, r5, r8}	; <UNPREDICTABLE>
     1e0:	0b3a0e03 	bleq	e839f4 <__bss_end__+0xe79b4c>
     1e4:	19270b3b 	stmdbne	r7!, {r0, r1, r3, r4, r5, r8, r9, fp}
     1e8:	1301193c 	movwne	r1, #6460	; 0x193c
     1ec:	05160000 	ldreq	r0, [r6, #-0]
     1f0:	00134900 	andseq	r4, r3, r0, lsl #18
     1f4:	00351700 	eorseq	r1, r5, r0, lsl #14
     1f8:	2e180000 	cdpcs	0, 1, cr0, cr8, cr0, {0}
     1fc:	03193f00 	tsteq	r9, #0, 30
     200:	3b0b3a0e 	blcc	2cea40 <__bss_end__+0x2c4b98>
     204:	3c19270b 	ldccc	7, cr2, [r9], {11}
     208:	19000019 	stmdbne	r0, {r0, r3, r4}
     20c:	193f012e 	ldmdbne	pc!, {r1, r2, r3, r5, r8}	; <UNPREDICTABLE>
     210:	0b3a0e03 	bleq	e83a24 <__bss_end__+0xe79b7c>
     214:	19270b3b 	stmdbne	r7!, {r0, r1, r3, r4, r5, r8, r9, fp}
     218:	193c1349 	ldmdbne	ip!, {r0, r3, r6, r8, r9, ip}
     21c:	00001301 	andeq	r1, r0, r1, lsl #6
     220:	0000181a 	andeq	r1, r0, sl, lsl r8
     224:	11010000 	mrsne	r0, (UNDEF: 1)
     228:	130e2501 	movwne	r2, #58625	; 0xe501
     22c:	1b0e030b 	blne	380e60 <__bss_end__+0x376fb8>
     230:	1201110e 	andne	r1, r1, #-2147483645	; 0x80000003
     234:	00171006 	andseq	r1, r7, r6
     238:	00160200 	andseq	r0, r6, r0, lsl #4
     23c:	0b3a0e03 	bleq	e83a50 <__bss_end__+0xe79ba8>
     240:	13490b3b 	movtne	r0, #39739	; 0x9b3b
     244:	13030000 	movwne	r0, #12288	; 0x3000
     248:	0b0e0301 	bleq	380e54 <__bss_end__+0x376fac>
     24c:	3b0b3a0b 	blcc	2cea80 <__bss_end__+0x2c4bd8>
     250:	0013010b 	andseq	r0, r3, fp, lsl #2
     254:	000d0400 	andeq	r0, sp, r0, lsl #8
     258:	13490e03 	movtne	r0, #40451	; 0x9e03
     25c:	19340b38 	ldmdbne	r4!, {r3, r4, r5, r8, r9, fp}
     260:	0f050000 	svceq	0x00050000
     264:	000b0b00 	andeq	r0, fp, r0, lsl #22
     268:	00240600 	eoreq	r0, r4, r0, lsl #12
     26c:	0b3e0b0b 	bleq	f82ea0 <__bss_end__+0xf78ff8>
     270:	00000803 	andeq	r0, r0, r3, lsl #16
     274:	0b002407 	bleq	9298 <gpio_set_input+0x28>
     278:	030b3e0b 	movweq	r3, #48651	; 0xbe0b
     27c:	0800000e 	stmdaeq	r0, {r1, r2, r3}
     280:	0b0b000f 	bleq	2c02c4 <__bss_end__+0x2b641c>
     284:	00001349 	andeq	r1, r0, r9, asr #6
     288:	49002609 	stmdbmi	r0, {r0, r3, r9, sl, sp}
     28c:	0a000013 	beq	2e0 <_start-0x7d20>
     290:	193f012e 	ldmdbne	pc!, {r1, r2, r3, r5, r8}	; <UNPREDICTABLE>
     294:	0b3a0e03 	bleq	e83aa8 <__bss_end__+0xe79c00>
     298:	19270b3b 	stmdbne	r7!, {r0, r1, r3, r4, r5, r8, r9, fp}
     29c:	01111349 	tsteq	r1, r9, asr #6
     2a0:	18400612 	stmdane	r0, {r1, r4, r9, sl}^
     2a4:	01194297 			; <UNDEFINED> instruction: 0x01194297
     2a8:	0b000013 	bleq	2fc <_start-0x7d04>
     2ac:	08030005 	stmdaeq	r3, {r0, r2}
     2b0:	0b3b0b3a 	bleq	ec2fa0 <__bss_end__+0xeb90f8>
     2b4:	18021349 	stmdane	r2, {r0, r3, r6, r8, r9, ip}
     2b8:	180c0000 	stmdane	ip, {}	; <UNPREDICTABLE>
     2bc:	0d000000 	stceq	0, cr0, [r0, #-0]
     2c0:	08030034 	stmdaeq	r3, {r2, r4, r5}
     2c4:	0b3b0b3a 	bleq	ec2fb4 <__bss_end__+0xeb910c>
     2c8:	18021349 	stmdane	r2, {r0, r3, r6, r8, r9, ip}
     2cc:	340e0000 	strcc	r0, [lr], #-0
     2d0:	3a0e0300 	bcc	380ed8 <__bss_end__+0x377030>
     2d4:	490b3b0b 	stmdbmi	fp, {r0, r1, r3, r8, r9, fp, ip, sp}
     2d8:	00180213 	andseq	r0, r8, r3, lsl r2
     2dc:	00340f00 	eorseq	r0, r4, r0, lsl #30
     2e0:	0b3a0803 	bleq	e822f4 <__bss_end__+0xe7844c>
     2e4:	13490b3b 	movtne	r0, #39739	; 0x9b3b
     2e8:	00001702 	andeq	r1, r0, r2, lsl #14
     2ec:	01828910 	orreq	r8, r2, r0, lsl r9
     2f0:	31011101 	tstcc	r1, r1, lsl #2
     2f4:	00130113 	andseq	r0, r3, r3, lsl r1
     2f8:	828a1100 	addhi	r1, sl, #0, 2
     2fc:	18020001 	stmdane	r2, {r0}
     300:	00184291 	mulseq	r8, r1, r2
     304:	82891200 	addhi	r1, r9, #0, 4
     308:	01110101 	tsteq	r1, r1, lsl #2
     30c:	01130000 	tsteq	r3, r0
     310:	01134901 	tsteq	r3, r1, lsl #18
     314:	14000013 	strne	r0, [r0], #-19
     318:	13490021 	movtne	r0, #36897	; 0x9021
     31c:	0000052f 	andeq	r0, r0, pc, lsr #10
     320:	27011515 	smladcs	r1, r5, r5, r1
     324:	01134919 	tsteq	r3, r9, lsl r9
     328:	16000013 			; <UNDEFINED> instruction: 0x16000013
     32c:	13490005 	movtne	r0, #36869	; 0x9005
     330:	34170000 	ldrcc	r0, [r7], #-0
     334:	3a0e0300 	bcc	380f3c <__bss_end__+0x377094>
     338:	490b3b0b 	stmdbmi	fp, {r0, r1, r3, r8, r9, fp, ip, sp}
     33c:	3c193f13 	ldccc	15, cr3, [r9], {19}
     340:	18000019 	stmdane	r0, {r0, r3, r4}
     344:	193f012e 	ldmdbne	pc!, {r1, r2, r3, r5, r8}	; <UNPREDICTABLE>
     348:	0b3a0e03 	bleq	e83b5c <__bss_end__+0xe79cb4>
     34c:	19270b3b 	stmdbne	r7!, {r0, r1, r3, r4, r5, r8, r9, fp}
     350:	193c1349 	ldmdbne	ip!, {r0, r3, r6, r8, r9, ip}
     354:	01000000 	mrseq	r0, (UNDEF: 0)
     358:	0e250111 	mcreq	1, 1, r0, cr5, cr1, {0}
     35c:	0e030b13 	vmoveq.32	d3[0], r0
     360:	01110e1b 	tsteq	r1, fp, lsl lr
     364:	17100612 			; <UNDEFINED> instruction: 0x17100612
     368:	24020000 	strcs	r0, [r2], #-0
     36c:	3e0b0b00 	vmlacc.f64	d0, d11, d0
     370:	0008030b 	andeq	r0, r8, fp, lsl #6
     374:	00240300 	eoreq	r0, r4, r0, lsl #6
     378:	0b3e0b0b 	bleq	f82fac <__bss_end__+0xf79104>
     37c:	00000e03 	andeq	r0, r0, r3, lsl #28
     380:	03012e04 	movweq	r2, #7684	; 0x1e04
     384:	3b0b3a0e 	blcc	2cebc4 <__bss_end__+0x2c4d1c>
     388:	4919270b 	ldmdbmi	r9, {r0, r1, r3, r8, r9, sl, sp}
     38c:	12011113 	andne	r1, r1, #-1073741820	; 0xc0000004
     390:	97184006 	ldrls	r4, [r8, -r6]
     394:	13011942 	movwne	r1, #6466	; 0x1942
     398:	05050000 	streq	r0, [r5, #-0]
     39c:	3a080300 	bcc	200fa4 <__bss_end__+0x1f70fc>
     3a0:	490b3b0b 	stmdbmi	fp, {r0, r1, r3, r8, r9, fp, ip, sp}
     3a4:	00170213 	andseq	r0, r7, r3, lsl r2
     3a8:	82890600 	addhi	r0, r9, #0, 12
     3ac:	01110101 	tsteq	r1, r1, lsl #2
     3b0:	00001331 	andeq	r1, r0, r1, lsr r3
     3b4:	01828a07 	orreq	r8, r2, r7, lsl #20
     3b8:	91180200 	tstls	r8, r0, lsl #4
     3bc:	00001842 	andeq	r1, r0, r2, asr #16
     3c0:	3f002e08 	svccc	0x00002e08
     3c4:	3a0e0319 	bcc	381030 <__bss_end__+0x377188>
     3c8:	270b3b0b 	strcs	r3, [fp, -fp, lsl #22]
     3cc:	12011119 	andne	r1, r1, #1073741830	; 0x40000006
     3d0:	97184006 	ldrls	r4, [r8, -r6]
     3d4:	00001942 	andeq	r1, r0, r2, asr #18
     3d8:	3f012e09 	svccc	0x00012e09
     3dc:	3a0e0319 	bcc	381048 <__bss_end__+0x3771a0>
     3e0:	270b3b0b 	strcs	r3, [fp, -fp, lsl #22]
     3e4:	12011119 	andne	r1, r1, #1073741830	; 0x40000006
     3e8:	97184006 	ldrls	r4, [r8, -r6]
     3ec:	13011942 	movwne	r1, #6466	; 0x1942
     3f0:	050a0000 	streq	r0, [sl, #-0]
     3f4:	3a080300 	bcc	200ffc <__bss_end__+0x1f7154>
     3f8:	490b3b0b 	stmdbmi	fp, {r0, r1, r3, r8, r9, fp, ip, sp}
     3fc:	00180213 	andseq	r0, r8, r3, lsl r2
     400:	01150b00 	tsteq	r5, r0, lsl #22
     404:	13491927 	movtne	r1, #39207	; 0x9927
     408:	00001301 	andeq	r1, r0, r1, lsl #6
     40c:	4900050c 	stmdbmi	r0, {r2, r3, r8, sl}
     410:	0d000013 	stceq	0, cr0, [r0, #-76]	; 0xffffffb4
     414:	0b0b000f 	bleq	2c0458 <__bss_end__+0x2b65b0>
     418:	00001349 	andeq	r1, r0, r9, asr #6
     41c:	0300340e 	movweq	r3, #1038	; 0x40e
     420:	3b0b3a0e 	blcc	2cec60 <__bss_end__+0x2c4db8>
     424:	3f13490b 	svccc	0x0013490b
     428:	00180219 	andseq	r0, r8, r9, lsl r2
     42c:	012e0f00 	teqeq	lr, r0, lsl #30
     430:	0e03193f 	mcreq	9, 0, r1, cr3, cr15, {1}
     434:	0b3b0b3a 	bleq	ec3124 <__bss_end__+0xeb927c>
     438:	193c1927 	ldmdbne	ip!, {r0, r1, r2, r5, r8, fp, ip}
     43c:	01000000 	mrseq	r0, (UNDEF: 0)
     440:	0e250111 	mcreq	1, 1, r0, cr5, cr1, {0}
     444:	0e030b13 	vmoveq.32	d3[0], r0
     448:	01110e1b 	tsteq	r1, fp, lsl lr
     44c:	17100612 			; <UNDEFINED> instruction: 0x17100612
     450:	24020000 	strcs	r0, [r2], #-0
     454:	3e0b0b00 	vmlacc.f64	d0, d11, d0
     458:	0008030b 	andeq	r0, r8, fp, lsl #6
     45c:	00240300 	eoreq	r0, r4, r0, lsl #6
     460:	0b3e0b0b 	bleq	f83094 <__bss_end__+0xf791ec>
     464:	00000e03 	andeq	r0, r0, r3, lsl #28
     468:	0b000f04 	bleq	4080 <_start-0x3f80>
     46c:	0013490b 	andseq	r4, r3, fp, lsl #18
     470:	00260500 	eoreq	r0, r6, r0, lsl #10
     474:	00001349 	andeq	r1, r0, r9, asr #6
     478:	3f012e06 	svccc	0x00012e06
     47c:	3a0e0319 	bcc	3810e8 <__bss_end__+0x377240>
     480:	270b3b0b 	strcs	r3, [fp, -fp, lsl #22]
     484:	11134919 	tstne	r3, r9, lsl r9
     488:	40061201 	andmi	r1, r6, r1, lsl #4
     48c:	19429618 	stmdbne	r2, {r3, r4, r9, sl, ip, pc}^
     490:	00001301 	andeq	r1, r0, r1, lsl #6
     494:	03000507 	movweq	r0, #1287	; 0x507
     498:	3b0b3a08 	blcc	2cecc0 <__bss_end__+0x2c4e18>
     49c:	0213490b 	andseq	r4, r3, #180224	; 0x2c000
     4a0:	08000017 	stmdaeq	r0, {r0, r1, r2, r4}
     4a4:	19270115 	stmdbne	r7!, {r0, r2, r4, r8}
     4a8:	13011349 	movwne	r1, #4937	; 0x1349
     4ac:	05090000 	streq	r0, [r9, #-0]
     4b0:	00134900 	andseq	r4, r3, r0, lsl #18
     4b4:	00340a00 	eorseq	r0, r4, r0, lsl #20
     4b8:	0b3a0e03 	bleq	e83ccc <__bss_end__+0xe79e24>
     4bc:	13490b3b 	movtne	r0, #39739	; 0x9b3b
     4c0:	193c193f 	ldmdbne	ip!, {r0, r1, r2, r3, r4, r5, r8, fp, ip}
     4c4:	340b0000 	strcc	r0, [fp], #-0
     4c8:	3a0e0300 	bcc	3810d0 <__bss_end__+0x377228>
     4cc:	490b3b0b 	stmdbmi	fp, {r0, r1, r3, r8, r9, fp, ip, sp}
     4d0:	02193f13 	andseq	r3, r9, #19, 30	; 0x4c
     4d4:	00000018 	andeq	r0, r0, r8, lsl r0
     4d8:	25011101 	strcs	r1, [r1, #-257]	; 0x101
     4dc:	030b130e 	movweq	r1, #45838	; 0xb30e
     4e0:	110e1b0e 	tstne	lr, lr, lsl #22
     4e4:	10061201 	andne	r1, r6, r1, lsl #4
     4e8:	02000017 	andeq	r0, r0, #23
     4ec:	0b0b0024 	bleq	2c0584 <__bss_end__+0x2b66dc>
     4f0:	08030b3e 	stmdaeq	r3, {r1, r2, r3, r4, r5, r8, r9, fp}
     4f4:	24030000 	strcs	r0, [r3], #-0
     4f8:	3e0b0b00 	vmlacc.f64	d0, d11, d0
     4fc:	000e030b 	andeq	r0, lr, fp, lsl #6
     500:	000f0400 	andeq	r0, pc, r0, lsl #8
     504:	00000b0b 	andeq	r0, r0, fp, lsl #22
     508:	0b000f05 	bleq	4124 <_start-0x3edc>
     50c:	0013490b 	andseq	r4, r3, fp, lsl #18
     510:	00260600 	eoreq	r0, r6, r0, lsl #12
     514:	00001349 	andeq	r1, r0, r9, asr #6
     518:	03001607 	movweq	r1, #1543	; 0x607
     51c:	3b0b3a0e 	blcc	2ced5c <__bss_end__+0x2c4eb4>
     520:	0013490b 	andseq	r4, r3, fp, lsl #18
     524:	01130800 	tsteq	r3, r0, lsl #16
     528:	0b0b0e03 	bleq	2c3d3c <__bss_end__+0x2b9e94>
     52c:	0b3b0b3a 	bleq	ec321c <__bss_end__+0xeb9374>
     530:	00001301 	andeq	r1, r0, r1, lsl #6
     534:	03000d09 	movweq	r0, #3337	; 0xd09
     538:	3813490e 	ldmdacc	r3, {r1, r2, r3, r8, fp, lr}
     53c:	0019340b 	andseq	r3, r9, fp, lsl #8
     540:	012e0a00 	teqeq	lr, r0, lsl #20
     544:	0b3a0e03 	bleq	e83d58 <__bss_end__+0xe79eb0>
     548:	19270b3b 	stmdbne	r7!, {r0, r1, r3, r4, r5, r8, r9, fp}
     54c:	01111349 	tsteq	r1, r9, asr #6
     550:	18400612 	stmdane	r0, {r1, r4, r9, sl}^
     554:	01194297 			; <UNDEFINED> instruction: 0x01194297
     558:	0b000013 	bleq	5ac <_start-0x7a54>
     55c:	08030005 	stmdaeq	r3, {r0, r2}
     560:	0b3b0b3a 	bleq	ec3250 <__bss_end__+0xeb93a8>
     564:	17021349 	strne	r1, [r2, -r9, asr #6]
     568:	2e0c0000 	cdpcs	0, 0, cr0, cr12, cr0, {0}
     56c:	3a080301 	bcc	201178 <__bss_end__+0x1f72d0>
     570:	270b3b0b 	strcs	r3, [fp, -fp, lsl #22]
     574:	11134919 	tstne	r3, r9, lsl r9
     578:	40061201 	andmi	r1, r6, r1, lsl #4
     57c:	19429718 	stmdbne	r2, {r3, r4, r8, r9, sl, ip, pc}^
     580:	00001301 	andeq	r1, r0, r1, lsl #6
     584:	0300050d 	movweq	r0, #1293	; 0x50d
     588:	3b0b3a0e 	blcc	2cedc8 <__bss_end__+0x2c4f20>
     58c:	0213490b 	andseq	r4, r3, #180224	; 0x2c000
     590:	0e000017 	mcreq	0, 0, r0, cr0, cr7, {0}
     594:	0e030005 	cdpeq	0, 0, cr0, cr3, cr5, {0}
     598:	0b3b0b3a 	bleq	ec3288 <__bss_end__+0xeb93e0>
     59c:	18021349 	stmdane	r2, {r0, r3, r6, r8, r9, ip}
     5a0:	340f0000 	strcc	r0, [pc], #-0	; 5a8 <_start-0x7a58>
     5a4:	3a080300 	bcc	2011ac <__bss_end__+0x1f7304>
     5a8:	490b3b0b 	stmdbmi	fp, {r0, r1, r3, r8, r9, fp, ip, sp}
     5ac:	00180213 	andseq	r0, r8, r3, lsl r2
     5b0:	00341000 	eorseq	r1, r4, r0
     5b4:	0b3a0803 	bleq	e825c8 <__bss_end__+0xe78720>
     5b8:	13490b3b 	movtne	r0, #39739	; 0x9b3b
     5bc:	00001702 	andeq	r1, r0, r2, lsl #14
     5c0:	03003411 	movweq	r3, #1041	; 0x411
     5c4:	3413490e 	ldrcc	r4, [r3], #-2318	; 0x90e
     5c8:	00180219 	andseq	r0, r8, r9, lsl r2
     5cc:	010b1200 	mrseq	r1, R11_fiq
     5d0:	06120111 			; <UNDEFINED> instruction: 0x06120111
     5d4:	00001301 	andeq	r1, r0, r1, lsl #6
     5d8:	03003413 	movweq	r3, #1043	; 0x413
     5dc:	3b0b3a0e 	blcc	2cee1c <__bss_end__+0x2c4f74>
     5e0:	0213490b 	andseq	r4, r3, #180224	; 0x2c000
     5e4:	14000017 	strne	r0, [r0], #-23
     5e8:	00018289 	andeq	r8, r1, r9, lsl #5
     5ec:	13310111 	teqne	r1, #1073741828	; 0x40000004
     5f0:	89150000 	ldmdbhi	r5, {}	; <UNPREDICTABLE>
     5f4:	11010182 	smlabbne	r1, r2, r1, r0
     5f8:	01133101 	tsteq	r3, r1, lsl #2
     5fc:	16000013 			; <UNDEFINED> instruction: 0x16000013
     600:	0001828a 	andeq	r8, r1, sl, lsl #5
     604:	42911802 	addsmi	r1, r1, #131072	; 0x20000
     608:	17000018 	smladne	r0, r8, r0, r0
     60c:	01018289 	smlabbeq	r1, r9, r2, r8
     610:	13310111 	teqne	r1, #1073741828	; 0x40000004
     614:	01180000 	tsteq	r8, r0
     618:	01134901 	tsteq	r3, r1, lsl #18
     61c:	19000013 	stmdbne	r0, {r0, r1, r4}
     620:	13490021 	movtne	r0, #36897	; 0x9021
     624:	00000b2f 	andeq	r0, r0, pc, lsr #22
     628:	3f012e1a 	svccc	0x00012e1a
     62c:	3a0e0319 	bcc	381298 <__bss_end__+0x3773f0>
     630:	270b3b0b 	strcs	r3, [fp, -fp, lsl #22]
     634:	12011119 	andne	r1, r1, #1073741830	; 0x40000006
     638:	97184006 	ldrls	r4, [r8, -r6]
     63c:	13011942 	movwne	r1, #6466	; 0x1942
     640:	151b0000 	ldrne	r0, [fp, #-0]
     644:	49192701 	ldmdbmi	r9, {r0, r8, r9, sl, sp}
     648:	00130113 	andseq	r0, r3, r3, lsl r1
     64c:	00051c00 	andeq	r1, r5, r0, lsl #24
     650:	00001349 	andeq	r1, r0, r9, asr #6
     654:	3f012e1d 	svccc	0x00012e1d
     658:	3a0e0319 	bcc	3812c4 <__bss_end__+0x37741c>
     65c:	270b3b0b 	strcs	r3, [fp, -fp, lsl #22]
     660:	11134919 	tstne	r3, r9, lsl r9
     664:	40061201 	andmi	r1, r6, r1, lsl #4
     668:	19429718 	stmdbne	r2, {r3, r4, r8, r9, sl, ip, pc}^
     66c:	00001301 	andeq	r1, r0, r1, lsl #6
     670:	55010b1e 	strpl	r0, [r1, #-2846]	; 0xb1e
     674:	1f000017 	svcne	0x00000017
     678:	0e030034 	mcreq	0, 0, r0, cr3, cr4, {1}
     67c:	0b3b0b3a 	bleq	ec336c <__bss_end__+0xeb94c4>
     680:	193f1349 	ldmdbne	pc!, {r0, r3, r6, r8, r9, ip}	; <UNPREDICTABLE>
     684:	0000193c 	andeq	r1, r0, ip, lsr r9
     688:	3f002e20 	svccc	0x00002e20
     68c:	3a0e0319 	bcc	3812f8 <__bss_end__+0x377450>
     690:	270b3b0b 	strcs	r3, [fp, -fp, lsl #22]
     694:	00193c19 	andseq	r3, r9, r9, lsl ip
     698:	012e2100 	teqeq	lr, r0, lsl #2
     69c:	0e03193f 	mcreq	9, 0, r1, cr3, cr15, {1}
     6a0:	0b3b0b3a 	bleq	ec3390 <__bss_end__+0xeb94e8>
     6a4:	13491927 	movtne	r1, #39207	; 0x9927
     6a8:	1301193c 	movwne	r1, #6460	; 0x193c
     6ac:	18220000 	stmdane	r2!, {}	; <UNPREDICTABLE>
     6b0:	00000000 	andeq	r0, r0, r0
     6b4:	25011101 	strcs	r1, [r1, #-257]	; 0x101
     6b8:	030b130e 	movweq	r1, #45838	; 0xb30e
     6bc:	110e1b0e 	tstne	lr, lr, lsl #22
     6c0:	10061201 	andne	r1, r6, r1, lsl #4
     6c4:	02000017 	andeq	r0, r0, #23
     6c8:	0b0b0024 	bleq	2c0760 <__bss_end__+0x2b68b8>
     6cc:	08030b3e 	stmdaeq	r3, {r1, r2, r3, r4, r5, r8, r9, fp}
     6d0:	24030000 	strcs	r0, [r3], #-0
     6d4:	3e0b0b00 	vmlacc.f64	d0, d11, d0
     6d8:	000e030b 	andeq	r0, lr, fp, lsl #6
     6dc:	000f0400 	andeq	r0, pc, r0, lsl #8
     6e0:	13490b0b 	movtne	r0, #39691	; 0x9b0b
     6e4:	26050000 	strcs	r0, [r5], -r0
     6e8:	00134900 	andseq	r4, r3, r0, lsl #18
     6ec:	012e0600 	teqeq	lr, r0, lsl #12
     6f0:	0e03193f 	mcreq	9, 0, r1, cr3, cr15, {1}
     6f4:	0b3b0b3a 	bleq	ec33e4 <__bss_end__+0xeb953c>
     6f8:	01111927 	tsteq	r1, r7, lsr #18
     6fc:	18400612 	stmdane	r0, {r1, r4, r9, sl}^
     700:	01194297 			; <UNDEFINED> instruction: 0x01194297
     704:	07000013 	smladeq	r0, r3, r0, r0
     708:	01018289 	smlabbeq	r1, r9, r2, r8
     70c:	13010111 	movwne	r0, #4369	; 0x1111
     710:	8a080000 	bhi	200718 <__bss_end__+0x1f6870>
     714:	02000182 	andeq	r0, r0, #-2147483616	; 0x80000020
     718:	18429118 	stmdane	r2, {r3, r4, r8, ip, pc}^
     71c:	89090000 	stmdbhi	r9, {}	; <UNPREDICTABLE>
     720:	11010182 	smlabbne	r1, r2, r1, r0
     724:	01133101 	tsteq	r3, r1, lsl #2
     728:	0a000013 	beq	77c <_start-0x7884>
     72c:	00018289 	andeq	r8, r1, r9, lsl #5
     730:	13310111 	teqne	r1, #1073741828	; 0x40000004
     734:	150b0000 	strne	r0, [fp, #-0]
     738:	49192701 	ldmdbmi	r9, {r0, r8, r9, sl, sp}
     73c:	00130113 	andseq	r0, r3, r3, lsl r1
     740:	00050c00 	andeq	r0, r5, r0, lsl #24
     744:	00001349 	andeq	r1, r0, r9, asr #6
     748:	0300340d 	movweq	r3, #1037	; 0x40d
     74c:	3b0b3a0e 	blcc	2cef8c <__bss_end__+0x2c50e4>
     750:	3f13490b 	svccc	0x0013490b
     754:	00193c19 	andseq	r3, r9, r9, lsl ip
     758:	012e0e00 	teqeq	lr, r0, lsl #28
     75c:	0e03193f 	mcreq	9, 0, r1, cr3, cr15, {1}
     760:	0b3b0b3a 	bleq	ec3450 <__bss_end__+0xeb95a8>
     764:	193c1927 	ldmdbne	ip!, {r0, r1, r2, r5, r8, fp, ip}
     768:	00001301 	andeq	r1, r0, r1, lsl #6
     76c:	3f002e0f 	svccc	0x00002e0f
     770:	3a0e0319 	bcc	3813dc <__bss_end__+0x377534>
     774:	270b3b0b 	strcs	r3, [fp, -fp, lsl #22]
     778:	00193c19 	andseq	r3, r9, r9, lsl ip
     77c:	11010000 	mrsne	r0, (UNDEF: 1)
     780:	130e2501 	movwne	r2, #58625	; 0xe501
     784:	1b0e030b 	blne	3813b8 <__bss_end__+0x377510>
     788:	1201110e 	andne	r1, r1, #-2147483645	; 0x80000003
     78c:	00171006 	andseq	r1, r7, r6
     790:	00240200 	eoreq	r0, r4, r0, lsl #4
     794:	0b3e0b0b 	bleq	f833c8 <__bss_end__+0xf79520>
     798:	00000803 	andeq	r0, r0, r3, lsl #16
     79c:	0b002403 	bleq	97b0 <GPLEV1>
     7a0:	030b3e0b 	movweq	r3, #48651	; 0xbe0b
     7a4:	0400000e 	streq	r0, [r0], #-14
     7a8:	0e030016 	mcreq	0, 0, r0, cr3, cr6, {0}
     7ac:	0b3b0b3a 	bleq	ec349c <__bss_end__+0xeb95f4>
     7b0:	00001349 	andeq	r1, r0, r9, asr #6
     7b4:	0b000f05 	bleq	43d0 <_start-0x3c30>
     7b8:	0013490b 	andseq	r4, r3, fp, lsl #18
     7bc:	00260600 	eoreq	r0, r6, r0, lsl #12
     7c0:	00001349 	andeq	r1, r0, r9, asr #6
     7c4:	0b011307 	bleq	453e8 <__bss_end__+0x3b540>
     7c8:	3b0b3a0b 	blcc	2ceffc <__bss_end__+0x2c5154>
     7cc:	0013010b 	andseq	r0, r3, fp, lsl #2
     7d0:	000d0800 	andeq	r0, sp, r0, lsl #16
     7d4:	0b3a0803 	bleq	e827e8 <__bss_end__+0xe78940>
     7d8:	13490b3b 	movtne	r0, #39739	; 0x9b3b
     7dc:	00000b38 	andeq	r0, r0, r8, lsr fp
     7e0:	03000d09 	movweq	r0, #3337	; 0xd09
     7e4:	3b0b3a0e 	blcc	2cf024 <__bss_end__+0x2c517c>
     7e8:	3813490b 	ldmdacc	r3, {r0, r1, r3, r8, fp, lr}
     7ec:	0a00000b 	beq	820 <_start-0x77e0>
     7f0:	0b0b0104 	bleq	2c0c08 <__bss_end__+0x2b6d60>
     7f4:	0b3b0b3a 	bleq	ec34e4 <__bss_end__+0xeb963c>
     7f8:	00001301 	andeq	r1, r0, r1, lsl #6
     7fc:	0300280b 	movweq	r2, #2059	; 0x80b
     800:	000d1c0e 	andeq	r1, sp, lr, lsl #24
     804:	012e0c00 	teqeq	lr, r0, lsl #24
     808:	0b3a0e03 	bleq	e8401c <__bss_end__+0xe7a174>
     80c:	19270b3b 	stmdbne	r7!, {r0, r1, r3, r4, r5, r8, r9, fp}
     810:	01111349 	tsteq	r1, r9, asr #6
     814:	18400612 	stmdane	r0, {r1, r4, r9, sl}^
     818:	01194297 			; <UNDEFINED> instruction: 0x01194297
     81c:	0d000013 	stceq	0, cr0, [r0, #-76]	; 0xffffffb4
     820:	08030005 	stmdaeq	r3, {r0, r2}
     824:	0b3b0b3a 	bleq	ec3514 <__bss_end__+0xeb966c>
     828:	17021349 	strne	r1, [r2, -r9, asr #6]
     82c:	890e0000 	stmdbhi	lr, {}	; <UNPREDICTABLE>
     830:	11010182 	smlabbne	r1, r2, r1, r0
     834:	00133101 	andseq	r3, r3, r1, lsl #2
     838:	828a0f00 	addhi	r0, sl, #0, 30
     83c:	18020001 	stmdane	r2, {r0}
     840:	00184291 	mulseq	r8, r1, r2
     844:	012e1000 	teqeq	lr, r0
     848:	0e03193f 	mcreq	9, 0, r1, cr3, cr15, {1}
     84c:	0b3b0b3a 	bleq	ec353c <__bss_end__+0xeb9694>
     850:	06120111 			; <UNDEFINED> instruction: 0x06120111
     854:	42971840 	addsmi	r1, r7, #64, 16	; 0x400000
     858:	00130119 	andseq	r0, r3, r9, lsl r1
     85c:	00341100 	eorseq	r1, r4, r0, lsl #2
     860:	0b3a0e03 	bleq	e84074 <__bss_end__+0xe7a1cc>
     864:	13490b3b 	movtne	r0, #39739	; 0x9b3b
     868:	193c193f 	ldmdbne	ip!, {r0, r1, r2, r3, r4, r5, r8, fp, ip}
     86c:	2e120000 	cdpcs	0, 1, cr0, cr2, cr0, {0}
     870:	03193f00 	tsteq	r9, #0, 30
     874:	3b0b3a0e 	blcc	2cf0b4 <__bss_end__+0x2c520c>
     878:	3c19270b 	ldccc	7, cr2, [r9], {11}
     87c:	13000019 	movwne	r0, #25
     880:	08030034 	stmdaeq	r3, {r2, r4, r5}
     884:	0b3b0b3a 	bleq	ec3574 <__bss_end__+0xeb96cc>
     888:	17021349 	strne	r1, [r2, -r9, asr #6]
     88c:	34140000 	ldrcc	r0, [r4], #-0
     890:	3a0e0300 	bcc	381498 <__bss_end__+0x3775f0>
     894:	490b3b0b 	stmdbmi	fp, {r0, r1, r3, r8, r9, fp, ip, sp}
     898:	15000013 	strne	r0, [r0, #-19]
     89c:	00018289 	andeq	r8, r1, r9, lsl #5
     8a0:	13310111 	teqne	r1, #1073741828	; 0x40000004
     8a4:	89160000 	ldmdbhi	r6, {}	; <UNPREDICTABLE>
     8a8:	11010182 	smlabbne	r1, r2, r1, r0
     8ac:	01133101 	tsteq	r3, r1, lsl #2
     8b0:	17000013 	smladne	r0, r3, r0, r0
     8b4:	0e030034 	mcreq	0, 0, r0, cr3, cr4, {1}
     8b8:	0b3b0b3a 	bleq	ec35a8 <__bss_end__+0xeb9700>
     8bc:	18021349 	stmdane	r2, {r0, r3, r6, r8, r9, ip}
     8c0:	15180000 	ldrne	r0, [r8, #-0]
     8c4:	49192701 	ldmdbmi	r9, {r0, r8, r9, sl, sp}
     8c8:	00130113 	andseq	r0, r3, r3, lsl r1
     8cc:	00051900 	andeq	r1, r5, r0, lsl #18
     8d0:	00001349 	andeq	r1, r0, r9, asr #6
     8d4:	3f012e1a 	svccc	0x00012e1a
     8d8:	3a0e0319 	bcc	381544 <__bss_end__+0x37769c>
     8dc:	270b3b0b 	strcs	r3, [fp, -fp, lsl #22]
     8e0:	01193c19 	tsteq	r9, r9, lsl ip
     8e4:	1b000013 	blne	938 <_start-0x76c8>
     8e8:	193f002e 	ldmdbne	pc!, {r1, r2, r3, r5}	; <UNPREDICTABLE>
     8ec:	0b3a0e03 	bleq	e84100 <__bss_end__+0xe7a258>
     8f0:	19270b3b 	stmdbne	r7!, {r0, r1, r3, r4, r5, r8, r9, fp}
     8f4:	193c1349 	ldmdbne	ip!, {r0, r3, r6, r8, r9, ip}
     8f8:	2e1c0000 	cdpcs	0, 1, cr0, cr12, cr0, {0}
     8fc:	03193f01 	tsteq	r9, #1, 30
     900:	3b0b3a0e 	blcc	2cf140 <__bss_end__+0x2c5298>
     904:	4919270b 	ldmdbmi	r9, {r0, r1, r3, r8, r9, sl, sp}
     908:	01193c13 	tsteq	r9, r3, lsl ip
     90c:	1d000013 	stcne	0, cr0, [r0, #-76]	; 0xffffffb4
     910:	00000018 	andeq	r0, r0, r8, lsl r0
     914:	01110100 	tsteq	r1, r0, lsl #2
     918:	0b130e25 	bleq	4c41b4 <__bss_end__+0x4ba30c>
     91c:	0e1b0e03 	cdpeq	14, 1, cr0, cr11, cr3, {0}
     920:	01111755 	tsteq	r1, r5, asr r7
     924:	00001710 	andeq	r1, r0, r0, lsl r7
     928:	0b002402 	bleq	9938 <__FUNCTION__.4287+0xc4>
     92c:	030b3e0b 	movweq	r3, #48651	; 0xbe0b
     930:	03000008 	movweq	r0, #8
     934:	0b0b0024 	bleq	2c09cc <__bss_end__+0x2b6b24>
     938:	0e030b3e 	vmoveq.16	d3[0], r0
     93c:	2e040000 	cdpcs	0, 0, cr0, cr4, cr0, {0}
     940:	03193f01 	tsteq	r9, #1, 30
     944:	3b0b3a0e 	blcc	2cf184 <__bss_end__+0x2c52dc>
     948:	4919270b 	ldmdbmi	r9, {r0, r1, r3, r8, r9, sl, sp}
     94c:	12011113 	andne	r1, r1, #-1073741820	; 0xc0000004
     950:	97184006 	ldrls	r4, [r8, -r6]
     954:	13011942 	movwne	r1, #6466	; 0x1942
     958:	34050000 	strcc	r0, [r5], #-0
     95c:	3a0e0300 	bcc	381564 <__bss_end__+0x3776bc>
     960:	490b3b0b 	stmdbmi	fp, {r0, r1, r3, r8, r9, fp, ip, sp}
     964:	00170213 	andseq	r0, r7, r3, lsl r2
     968:	012e0600 	teqeq	lr, r0, lsl #12
     96c:	0e03193f 	mcreq	9, 0, r1, cr3, cr15, {1}
     970:	0b3b0b3a 	bleq	ec3660 <__bss_end__+0xeb97b8>
     974:	01111927 	tsteq	r1, r7, lsr #18
     978:	18400612 	stmdane	r0, {r1, r4, r9, sl}^
     97c:	01194297 			; <UNDEFINED> instruction: 0x01194297
     980:	07000013 	smladeq	r0, r3, r0, r0
     984:	0e030034 	mcreq	0, 0, r0, cr3, cr4, {1}
     988:	0b3b0b3a 	bleq	ec3678 <__bss_end__+0xeb97d0>
     98c:	061c1349 	ldreq	r1, [ip], -r9, asr #6
     990:	34080000 	strcc	r0, [r8], #-0
     994:	3a0e0300 	bcc	38159c <__bss_end__+0x3776f4>
     998:	490b3b0b 	stmdbmi	fp, {r0, r1, r3, r8, r9, fp, ip, sp}
     99c:	000b1c13 	andeq	r1, fp, r3, lsl ip
     9a0:	82890900 	addhi	r0, r9, #0, 18
     9a4:	01110001 	tsteq	r1, r1
     9a8:	00001331 	andeq	r1, r0, r1, lsr r3
     9ac:	0182890a 	orreq	r8, r2, sl, lsl #18
     9b0:	31011101 	tstcc	r1, r1, lsl #2
     9b4:	00130113 	andseq	r0, r3, r3, lsl r1
     9b8:	828a0b00 	addhi	r0, sl, #0, 22
     9bc:	18020001 	stmdane	r2, {r0}
     9c0:	00184291 	mulseq	r8, r1, r2
     9c4:	82890c00 	addhi	r0, r9, #0, 24
     9c8:	01110101 	tsteq	r1, r1, lsl #2
     9cc:	00001331 	andeq	r1, r0, r1, lsr r3
     9d0:	4900260d 	stmdbmi	r0, {r0, r2, r3, r9, sl, sp}
     9d4:	0e000013 	mcreq	0, 0, r0, cr0, cr3, {0}
     9d8:	193f012e 	ldmdbne	pc!, {r1, r2, r3, r5, r8}	; <UNPREDICTABLE>
     9dc:	0b3a0e03 	bleq	e841f0 <__bss_end__+0xe7a348>
     9e0:	19270b3b 	stmdbne	r7!, {r0, r1, r3, r4, r5, r8, r9, fp}
     9e4:	1301193c 	movwne	r1, #6460	; 0x193c
     9e8:	050f0000 	streq	r0, [pc, #-0]	; 9f0 <_start-0x7610>
     9ec:	00134900 	andseq	r4, r3, r0, lsl #18
     9f0:	012e1000 	teqeq	lr, r0
     9f4:	0e03193f 	mcreq	9, 0, r1, cr3, cr15, {1}
     9f8:	0b3b0b3a 	bleq	ec36e8 <__bss_end__+0xeb9840>
     9fc:	193c1927 	ldmdbne	ip!, {r0, r1, r2, r5, r8, fp, ip}
     a00:	01000000 	mrseq	r0, (UNDEF: 0)
     a04:	0e250111 	mcreq	1, 1, r0, cr5, cr1, {0}
     a08:	0e030b13 	vmoveq.32	d3[0], r0
     a0c:	01110e1b 	tsteq	r1, fp, lsl lr
     a10:	17100612 			; <UNDEFINED> instruction: 0x17100612
     a14:	24020000 	strcs	r0, [r2], #-0
     a18:	3e0b0b00 	vmlacc.f64	d0, d11, d0
     a1c:	0008030b 	andeq	r0, r8, fp, lsl #6
     a20:	00240300 	eoreq	r0, r4, r0, lsl #6
     a24:	0b3e0b0b 	bleq	f83658 <__bss_end__+0xf797b0>
     a28:	00000e03 	andeq	r0, r0, r3, lsl #28
     a2c:	3f012e04 	svccc	0x00012e04
     a30:	3a0e0319 	bcc	38169c <__bss_end__+0x3777f4>
     a34:	270b3b0b 	strcs	r3, [fp, -fp, lsl #22]
     a38:	12011119 	andne	r1, r1, #1073741830	; 0x40000006
     a3c:	97184006 	ldrls	r4, [r8, -r6]
     a40:	13011942 	movwne	r1, #6466	; 0x1942
     a44:	05050000 	streq	r0, [r5, #-0]
     a48:	3a0e0300 	bcc	381650 <__bss_end__+0x3777a8>
     a4c:	490b3b0b 	stmdbmi	fp, {r0, r1, r3, r8, r9, fp, ip, sp}
     a50:	00170213 	andseq	r0, r7, r3, lsl r2
     a54:	012e0600 	teqeq	lr, r0, lsl #12
     a58:	0e03193f 	mcreq	9, 0, r1, cr3, cr15, {1}
     a5c:	0b3b0b3a 	bleq	ec374c <__bss_end__+0xeb98a4>
     a60:	13491927 	movtne	r1, #39207	; 0x9927
     a64:	06120111 			; <UNDEFINED> instruction: 0x06120111
     a68:	42971840 	addsmi	r1, r7, #64, 16	; 0x400000
     a6c:	00130119 	andseq	r0, r3, r9, lsl r1
     a70:	82890700 	addhi	r0, r9, #0, 14
     a74:	01110101 	tsteq	r1, r1, lsl #2
     a78:	00001331 	andeq	r1, r0, r1, lsr r3
     a7c:	01828a08 	orreq	r8, r2, r8, lsl #20
     a80:	91180200 	tstls	r8, r0, lsl #4
     a84:	00001842 	andeq	r1, r0, r2, asr #16
     a88:	03003409 	movweq	r3, #1033	; 0x409
     a8c:	3b0b3a08 	blcc	2cf2b4 <__bss_end__+0x2c540c>
     a90:	0213490b 	andseq	r4, r3, #180224	; 0x2c000
     a94:	0a000018 	beq	afc <_start-0x7504>
     a98:	00018289 	andeq	r8, r1, r9, lsl #5
     a9c:	13310111 	teqne	r1, #1073741828	; 0x40000004
     aa0:	050b0000 	streq	r0, [fp, #-0]
     aa4:	3a080300 	bcc	2016ac <__bss_end__+0x1f7804>
     aa8:	490b3b0b 	stmdbmi	fp, {r0, r1, r3, r8, r9, fp, ip, sp}
     aac:	00170213 	andseq	r0, r7, r3, lsl r2
     ab0:	010b0c00 	tsteq	fp, r0, lsl #24
     ab4:	06120111 			; <UNDEFINED> instruction: 0x06120111
     ab8:	00001301 	andeq	r1, r0, r1, lsl #6
     abc:	0300340d 	movweq	r3, #1037	; 0x40d
     ac0:	3b0b3a08 	blcc	2cf2e8 <__bss_end__+0x2c5440>
     ac4:	0213490b 	andseq	r4, r3, #180224	; 0x2c000
     ac8:	0e000017 	mcreq	0, 0, r0, cr0, cr7, {0}
     acc:	193f012e 	ldmdbne	pc!, {r1, r2, r3, r5, r8}	; <UNPREDICTABLE>
     ad0:	0b3a0e03 	bleq	e842e4 <__bss_end__+0xe7a43c>
     ad4:	19270b3b 	stmdbne	r7!, {r0, r1, r3, r4, r5, r8, r9, fp}
     ad8:	193c1349 	ldmdbne	ip!, {r0, r3, r6, r8, r9, ip}
     adc:	050f0000 	streq	r0, [pc, #-0]	; ae4 <_start-0x751c>
     ae0:	00134900 	andseq	r4, r3, r0, lsl #18
     ae4:	11010000 	mrsne	r0, (UNDEF: 1)
     ae8:	130e2501 	movwne	r2, #58625	; 0xe501
     aec:	1b0e030b 	blne	381720 <__bss_end__+0x377878>
     af0:	1201110e 	andne	r1, r1, #-2147483645	; 0x80000003
     af4:	00171006 	andseq	r1, r7, r6
     af8:	00240200 	eoreq	r0, r4, r0, lsl #4
     afc:	0b3e0b0b 	bleq	f83730 <__bss_end__+0xf79888>
     b00:	00000803 	andeq	r0, r0, r3, lsl #16
     b04:	0b002403 	bleq	9b18 <__bss_start__+0x80>
     b08:	030b3e0b 	movweq	r3, #48651	; 0xbe0b
     b0c:	0400000e 	streq	r0, [r0], #-14
     b10:	0e030016 	mcreq	0, 0, r0, cr3, cr6, {0}
     b14:	0b3b0b3a 	bleq	ec3804 <__bss_end__+0xeb995c>
     b18:	00001349 	andeq	r1, r0, r9, asr #6
     b1c:	0b000f05 	bleq	4738 <_start-0x38c8>
     b20:	0600000b 	streq	r0, [r0], -fp
     b24:	0b0b000f 	bleq	2c0b68 <__bss_end__+0x2b6cc0>
     b28:	00001349 	andeq	r1, r0, r9, asr #6
     b2c:	49002607 	stmdbmi	r0, {r0, r1, r2, r9, sl, sp}
     b30:	08000013 	stmdaeq	r0, {r0, r1, r4}
     b34:	0b0b0113 	bleq	2c0f88 <__bss_end__+0x2b70e0>
     b38:	0b3b0b3a 	bleq	ec3828 <__bss_end__+0xeb9980>
     b3c:	00001301 	andeq	r1, r0, r1, lsl #6
     b40:	03000d09 	movweq	r0, #3337	; 0xd09
     b44:	3b0b3a08 	blcc	2cf36c <__bss_end__+0x2c54c4>
     b48:	3813490b 	ldmdacc	r3, {r0, r1, r3, r8, fp, lr}
     b4c:	0a00000b 	beq	b80 <_start-0x7480>
     b50:	0e03000d 	cdpeq	0, 0, cr0, cr3, cr13, {0}
     b54:	0b3b0b3a 	bleq	ec3844 <__bss_end__+0xeb999c>
     b58:	0b381349 	bleq	e05884 <__bss_end__+0xdfb9dc>
     b5c:	130b0000 	movwne	r0, #45056	; 0xb000
     b60:	0b0e0301 	bleq	38176c <__bss_end__+0x3778c4>
     b64:	3b0b3a0b 	blcc	2cf398 <__bss_end__+0x2c54f0>
     b68:	0013010b 	andseq	r0, r3, fp, lsl #2
     b6c:	000d0c00 	andeq	r0, sp, r0, lsl #24
     b70:	13490e03 	movtne	r0, #40451	; 0x9e03
     b74:	19340b38 	ldmdbne	r4!, {r3, r4, r5, r8, r9, fp}
     b78:	2e0d0000 	cdpcs	0, 0, cr0, cr13, cr0, {0}
     b7c:	3a0e0301 	bcc	381788 <__bss_end__+0x3778e0>
     b80:	270b3b0b 	strcs	r3, [fp, -fp, lsl #22]
     b84:	010b2019 	tsteq	fp, r9, lsl r0
     b88:	0e000013 	mcreq	0, 0, r0, cr0, cr3, {0}
     b8c:	0e030005 	cdpeq	0, 0, cr0, cr3, cr5, {0}
     b90:	0b3b0b3a 	bleq	ec3880 <__bss_end__+0xeb99d8>
     b94:	00001349 	andeq	r1, r0, r9, asr #6
     b98:	0300050f 	movweq	r0, #1295	; 0x50f
     b9c:	3b0b3a08 	blcc	2cf3c4 <__bss_end__+0x2c551c>
     ba0:	0013490b 	andseq	r4, r3, fp, lsl #18
     ba4:	010b1000 	mrseq	r1, (UNDEF: 11)
     ba8:	34110000 	ldrcc	r0, [r1], #-0
     bac:	3a0e0300 	bcc	3817b4 <__bss_end__+0x37790c>
     bb0:	490b3b0b 	stmdbmi	fp, {r0, r1, r3, r8, r9, fp, ip, sp}
     bb4:	12000013 	andne	r0, r0, #19
     bb8:	193f012e 	ldmdbne	pc!, {r1, r2, r3, r5, r8}	; <UNPREDICTABLE>
     bbc:	0b3a0e03 	bleq	e843d0 <__bss_end__+0xe7a528>
     bc0:	19270b3b 	stmdbne	r7!, {r0, r1, r3, r4, r5, r8, r9, fp}
     bc4:	06120111 			; <UNDEFINED> instruction: 0x06120111
     bc8:	42971840 	addsmi	r1, r7, #64, 16	; 0x400000
     bcc:	00130119 	andseq	r0, r3, r9, lsl r1
     bd0:	00051300 	andeq	r1, r5, r0, lsl #6
     bd4:	0b3a0e03 	bleq	e843e8 <__bss_end__+0xe7a540>
     bd8:	13490b3b 	movtne	r0, #39739	; 0x9b3b
     bdc:	00001702 	andeq	r1, r0, r2, lsl #14
     be0:	03000514 	movweq	r0, #1300	; 0x514
     be4:	3b0b3a08 	blcc	2cf40c <__bss_end__+0x2c5564>
     be8:	0213490b 	andseq	r4, r3, #180224	; 0x2c000
     bec:	15000017 	strne	r0, [r0, #-23]
     bf0:	08030034 	stmdaeq	r3, {r2, r4, r5}
     bf4:	0b3b0b3a 	bleq	ec38e4 <__bss_end__+0xeb9a3c>
     bf8:	18021349 	stmdane	r2, {r0, r3, r6, r8, r9, ip}
     bfc:	34160000 	ldrcc	r0, [r6], #-0
     c00:	3a080300 	bcc	201808 <__bss_end__+0x1f7960>
     c04:	490b3b0b 	stmdbmi	fp, {r0, r1, r3, r8, r9, fp, ip, sp}
     c08:	00170213 	andseq	r0, r7, r3, lsl r2
     c0c:	010b1700 	tsteq	fp, r0, lsl #14
     c10:	06120111 			; <UNDEFINED> instruction: 0x06120111
     c14:	00001301 	andeq	r1, r0, r1, lsl #6
     c18:	03003418 	movweq	r3, #1048	; 0x418
     c1c:	3b0b3a0e 	blcc	2cf45c <__bss_end__+0x2c55b4>
     c20:	0213490b 	andseq	r4, r3, #180224	; 0x2c000
     c24:	19000018 	stmdbne	r0, {r3, r4}
     c28:	1331011d 	teqne	r1, #1073741831	; 0x40000007
     c2c:	06120111 			; <UNDEFINED> instruction: 0x06120111
     c30:	0b590b58 	bleq	1643998 <__bss_end__+0x1639af0>
     c34:	00001301 	andeq	r1, r0, r1, lsl #6
     c38:	3100051a 	tstcc	r0, sl, lsl r5
     c3c:	00170213 	andseq	r0, r7, r3, lsl r2
     c40:	00051b00 	andeq	r1, r5, r0, lsl #22
     c44:	18021331 	stmdane	r2, {r0, r4, r5, r8, r9, ip}
     c48:	051c0000 	ldreq	r0, [ip, #-0]
     c4c:	1c133100 	ldfnes	f3, [r3], {-0}
     c50:	1d00000b 	stcne	0, cr0, [r0, #-44]	; 0xffffffd4
     c54:	0111010b 	tsteq	r1, fp, lsl #2
     c58:	00000612 	andeq	r0, r0, r2, lsl r6
     c5c:	3100341e 	tstcc	r0, lr, lsl r4
     c60:	00170213 	andseq	r0, r7, r3, lsl r2
     c64:	82891f00 	addhi	r1, r9, #0, 30
     c68:	01110101 	tsteq	r1, r1, lsl #2
     c6c:	00001331 	andeq	r1, r0, r1, lsr r3
     c70:	01828a20 	orreq	r8, r2, r0, lsr #20
     c74:	91180200 	tstls	r8, r0, lsl #4
     c78:	00001842 	andeq	r1, r0, r2, asr #16
     c7c:	31011d21 	tstcc	r1, r1, lsr #26
     c80:	12011113 	andne	r1, r1, #-1073741820	; 0xc0000004
     c84:	590b5806 	stmdbpl	fp, {r1, r2, fp, ip, lr}
     c88:	2200000b 	andcs	r0, r0, #11
     c8c:	0e03012e 	adfeqsp	f0, f3, #0.5
     c90:	0b3b0b3a 	bleq	ec3980 <__bss_end__+0xeb9ad8>
     c94:	13491927 	movtne	r1, #39207	; 0x9927
     c98:	13010b20 	movwne	r0, #6944	; 0x1b20
     c9c:	2e230000 	cdpcs	0, 2, cr0, cr3, cr0, {0}
     ca0:	03193f01 	tsteq	r9, #1, 30
     ca4:	3b0b3a0e 	blcc	2cf4e4 <__bss_end__+0x2c563c>
     ca8:	4919270b 	ldmdbmi	r9, {r0, r1, r3, r8, r9, sl, sp}
     cac:	12011113 	andne	r1, r1, #-1073741820	; 0xc0000004
     cb0:	97184006 	ldrls	r4, [r8, -r6]
     cb4:	13011942 	movwne	r1, #6466	; 0x1942
     cb8:	89240000 	stmdbhi	r4!, {}	; <UNPREDICTABLE>
     cbc:	11000182 	smlabbne	r0, r2, r1, r0
     cc0:	00133101 	andseq	r3, r3, r1, lsl #2
     cc4:	82892500 	addhi	r2, r9, #0, 10
     cc8:	01110101 	tsteq	r1, r1, lsl #2
     ccc:	13011331 	movwne	r1, #4913	; 0x1331
     cd0:	34260000 	strtcc	r0, [r6], #-0
     cd4:	3a0e0300 	bcc	3818dc <__bss_end__+0x377a34>
     cd8:	490b3b0b 	stmdbmi	fp, {r0, r1, r3, r8, r9, fp, ip, sp}
     cdc:	00170213 	andseq	r0, r7, r3, lsl r2
     ce0:	00052700 	andeq	r2, r5, r0, lsl #14
     ce4:	00001331 	andeq	r1, r0, r1, lsr r3
     ce8:	03000528 	movweq	r0, #1320	; 0x528
     cec:	3b0b3a0e 	blcc	2cf52c <__bss_end__+0x2c5684>
     cf0:	0213490b 	andseq	r4, r3, #180224	; 0x2c000
     cf4:	29000018 	stmdbcs	r0, {r3, r4}
     cf8:	0e030034 	mcreq	0, 0, r0, cr3, cr4, {1}
     cfc:	19341349 	ldmdbne	r4!, {r0, r3, r6, r8, r9, ip}
     d00:	00001802 	andeq	r1, r0, r2, lsl #16
     d04:	4901012a 	stmdbmi	r1, {r1, r3, r5, r8}
     d08:	00130113 	andseq	r0, r3, r3, lsl r1
     d0c:	00212b00 	eoreq	r2, r1, r0, lsl #22
     d10:	0b2f1349 	bleq	bc5a3c <__bss_end__+0xbbbb94>
     d14:	342c0000 	strtcc	r0, [ip], #-0
     d18:	3a080300 	bcc	201920 <__bss_end__+0x1f7a78>
     d1c:	490b3b0b 	stmdbmi	fp, {r0, r1, r3, r8, r9, fp, ip, sp}
     d20:	00061c13 	andeq	r1, r6, r3, lsl ip
     d24:	00342d00 	eorseq	r2, r4, r0, lsl #26
     d28:	0b3a0803 	bleq	e82d3c <__bss_end__+0xe78e94>
     d2c:	13490b3b 	movtne	r0, #39739	; 0x9b3b
     d30:	00000b1c 	andeq	r0, r0, ip, lsl fp
     d34:	0300052e 	movweq	r0, #1326	; 0x52e
     d38:	3b0b3a08 	blcc	2cf560 <__bss_end__+0x2c56b8>
     d3c:	0213490b 	andseq	r4, r3, #180224	; 0x2c000
     d40:	2f000018 	svccs	0x00000018
     d44:	00000018 	andeq	r0, r0, r8, lsl r0
     d48:	49002130 	stmdbmi	r0, {r4, r5, r8, sp}
     d4c:	00052f13 	andeq	r2, r5, r3, lsl pc
     d50:	012e3100 	teqeq	lr, r0, lsl #2
     d54:	0e03193f 	mcreq	9, 0, r1, cr3, cr15, {1}
     d58:	0b3b0b3a 	bleq	ec3a48 <__bss_end__+0xeb9ba0>
     d5c:	193c1927 	ldmdbne	ip!, {r0, r1, r2, r5, r8, fp, ip}
     d60:	00001301 	andeq	r1, r0, r1, lsl #6
     d64:	49000532 	stmdbmi	r0, {r1, r4, r5, r8, sl}
     d68:	33000013 	movwcc	r0, #19
     d6c:	193f002e 	ldmdbne	pc!, {r1, r2, r3, r5}	; <UNPREDICTABLE>
     d70:	0b3a0e03 	bleq	e84584 <__bss_end__+0xe7a6dc>
     d74:	19270b3b 	stmdbne	r7!, {r0, r1, r3, r4, r5, r8, r9, fp}
     d78:	193c1349 	ldmdbne	ip!, {r0, r3, r6, r8, r9, ip}
     d7c:	2e340000 	cdpcs	0, 3, cr0, cr4, cr0, {0}
     d80:	03193f01 	tsteq	r9, #1, 30
     d84:	3b0b3a0e 	blcc	2cf5c4 <__bss_end__+0x2c571c>
     d88:	4919270b 	ldmdbmi	r9, {r0, r1, r3, r8, r9, sl, sp}
     d8c:	01193c13 	tsteq	r9, r3, lsl ip
     d90:	35000013 	strcc	r0, [r0, #-19]
     d94:	193f002e 	ldmdbne	pc!, {r1, r2, r3, r5}	; <UNPREDICTABLE>
     d98:	0b3a0e03 	bleq	e845ac <__bss_end__+0xe7a704>
     d9c:	19270b3b 	stmdbne	r7!, {r0, r1, r3, r4, r5, r8, r9, fp}
     da0:	0000193c 	andeq	r1, r0, ip, lsr r9
     da4:	3f012e36 	svccc	0x00012e36
     da8:	3a0e0319 	bcc	381a14 <__bss_end__+0x377b6c>
     dac:	270b3b0b 	strcs	r3, [fp, -fp, lsl #22]
     db0:	3c134919 	ldccc	9, cr4, [r3], {25}
     db4:	00000019 	andeq	r0, r0, r9, lsl r0
     db8:	25011101 	strcs	r1, [r1, #-257]	; 0x101
     dbc:	030b130e 	movweq	r1, #45838	; 0xb30e
     dc0:	110e1b0e 	tstne	lr, lr, lsl #22
     dc4:	10061201 	andne	r1, r6, r1, lsl #4
     dc8:	02000017 	andeq	r0, r0, #23
     dcc:	0b0b0024 	bleq	2c0e64 <__bss_end__+0x2b6fbc>
     dd0:	08030b3e 	stmdaeq	r3, {r1, r2, r3, r4, r5, r8, r9, fp}
     dd4:	24030000 	strcs	r0, [r3], #-0
     dd8:	3e0b0b00 	vmlacc.f64	d0, d11, d0
     ddc:	000e030b 	andeq	r0, lr, fp, lsl #6
     de0:	01040400 	tsteq	r4, r0, lsl #8
     de4:	0b3a0b0b 	bleq	e83a18 <__bss_end__+0xe79b70>
     de8:	13010b3b 	movwne	r0, #6971	; 0x1b3b
     dec:	28050000 	stmdacs	r5, {}	; <UNPREDICTABLE>
     df0:	1c0e0300 	stcne	3, cr0, [lr], {-0}
     df4:	0600000d 	streq	r0, [r0], -sp
     df8:	0e030016 	mcreq	0, 0, r0, cr3, cr6, {0}
     dfc:	0b3b0b3a 	bleq	ec3aec <__bss_end__+0xeb9c44>
     e00:	00001349 	andeq	r1, r0, r9, asr #6
     e04:	3f012e07 	svccc	0x00012e07
     e08:	3a0e0319 	bcc	381a74 <__bss_end__+0x377bcc>
     e0c:	270b3b0b 	strcs	r3, [fp, -fp, lsl #22]
     e10:	12011119 	andne	r1, r1, #1073741830	; 0x40000006
     e14:	97184006 	ldrls	r4, [r8, -r6]
     e18:	13011942 	movwne	r1, #6466	; 0x1942
     e1c:	89080000 	stmdbhi	r8, {}	; <UNPREDICTABLE>
     e20:	11000182 	smlabbne	r0, r2, r1, r0
     e24:	00133101 	andseq	r3, r3, r1, lsl #2
     e28:	82890900 	addhi	r0, r9, #0, 18
     e2c:	01110101 	tsteq	r1, r1, lsl #2
     e30:	13011331 	movwne	r1, #4913	; 0x1331
     e34:	8a0a0000 	bhi	280e3c <__bss_end__+0x276f94>
     e38:	02000182 	andeq	r0, r0, #-2147483616	; 0x80000020
     e3c:	18429118 	stmdane	r2, {r3, r4, r8, ip, pc}^
     e40:	2e0b0000 	cdpcs	0, 0, cr0, cr11, cr0, {0}
     e44:	03193f01 	tsteq	r9, #1, 30
     e48:	3b0b3a0e 	blcc	2cf688 <__bss_end__+0x2c57e0>
     e4c:	4919270b 	ldmdbmi	r9, {r0, r1, r3, r8, r9, sl, sp}
     e50:	12011113 	andne	r1, r1, #-1073741820	; 0xc0000004
     e54:	97184006 	ldrls	r4, [r8, -r6]
     e58:	13011942 	movwne	r1, #6466	; 0x1942
     e5c:	050c0000 	streq	r0, [ip, #-0]
     e60:	3a080300 	bcc	201a68 <__bss_end__+0x1f7bc0>
     e64:	490b3b0b 	stmdbmi	fp, {r0, r1, r3, r8, r9, fp, ip, sp}
     e68:	00170213 	andseq	r0, r7, r3, lsl r2
     e6c:	82890d00 	addhi	r0, r9, #0, 26
     e70:	01110101 	tsteq	r1, r1, lsl #2
     e74:	00001331 	andeq	r1, r0, r1, lsr r3
     e78:	0300340e 	movweq	r3, #1038	; 0x40e
     e7c:	3b0b3a0e 	blcc	2cf6bc <__bss_end__+0x2c5814>
     e80:	3f13490b 	svccc	0x0013490b
     e84:	00180219 	andseq	r0, r8, r9, lsl r2
     e88:	000f0f00 	andeq	r0, pc, r0, lsl #30
     e8c:	13490b0b 	movtne	r0, #39691	; 0x9b0b
     e90:	35100000 	ldrcc	r0, [r0, #-0]
     e94:	00134900 	andseq	r4, r3, r0, lsl #18
     e98:	002e1100 	eoreq	r1, lr, r0, lsl #2
     e9c:	0e03193f 	mcreq	9, 0, r1, cr3, cr15, {1}
     ea0:	0b3b0b3a 	bleq	ec3b90 <__bss_end__+0xeb9ce8>
     ea4:	193c1927 	ldmdbne	ip!, {r0, r1, r2, r5, r8, fp, ip}
     ea8:	2e120000 	cdpcs	0, 1, cr0, cr2, cr0, {0}
     eac:	03193f01 	tsteq	r9, #1, 30
     eb0:	3b0b3a0e 	blcc	2cf6f0 <__bss_end__+0x2c5848>
     eb4:	3c19270b 	ldccc	7, cr2, [r9], {11}
     eb8:	00130119 	andseq	r0, r3, r9, lsl r1
     ebc:	00051300 	andeq	r1, r5, r0, lsl #6
     ec0:	00001349 	andeq	r1, r0, r9, asr #6
     ec4:	3f012e14 	svccc	0x00012e14
     ec8:	3a0e0319 	bcc	381b34 <__bss_end__+0x377c8c>
     ecc:	270b3b0b 	strcs	r3, [fp, -fp, lsl #22]
     ed0:	3c134919 	ldccc	9, cr4, [r3], {25}
     ed4:	00130119 	andseq	r0, r3, r9, lsl r1
     ed8:	00261500 	eoreq	r1, r6, r0, lsl #10
     edc:	00001349 	andeq	r1, r0, r9, asr #6
     ee0:	00003516 	andeq	r3, r0, r6, lsl r5
     ee4:	11010000 	mrsne	r0, (UNDEF: 1)
     ee8:	130e2501 	movwne	r2, #58625	; 0xe501
     eec:	1b0e030b 	blne	381b20 <__bss_end__+0x377c78>
     ef0:	1201110e 	andne	r1, r1, #-2147483645	; 0x80000003
     ef4:	00171006 	andseq	r1, r7, r6
     ef8:	00240200 	eoreq	r0, r4, r0, lsl #4
     efc:	0b3e0b0b 	bleq	f83b30 <__bss_end__+0xf79c88>
     f00:	00000e03 	andeq	r0, r0, r3, lsl #28
     f04:	0b002403 	bleq	9f18 <__bss_end__+0x70>
     f08:	030b3e0b 	movweq	r3, #48651	; 0xbe0b
     f0c:	04000008 	streq	r0, [r0], #-8
     f10:	0b0b0104 	bleq	2c1328 <__bss_end__+0x2b7480>
     f14:	0b3b0b3a 	bleq	ec3c04 <__bss_end__+0xeb9d5c>
     f18:	00001301 	andeq	r1, r0, r1, lsl #6
     f1c:	03002805 	movweq	r2, #2053	; 0x805
     f20:	000d1c0e 	andeq	r1, sp, lr, lsl #24
     f24:	00160600 	andseq	r0, r6, r0, lsl #12
     f28:	0b3a0e03 	bleq	e8473c <__bss_end__+0xe7a894>
     f2c:	13490b3b 	movtne	r0, #39739	; 0x9b3b
     f30:	2e070000 	cdpcs	0, 0, cr0, cr7, cr0, {0}
     f34:	03193f01 	tsteq	r9, #1, 30
     f38:	3b0b3a0e 	blcc	2cf778 <__bss_end__+0x2c58d0>
     f3c:	1119270b 	tstne	r9, fp, lsl #14
     f40:	40061201 	andmi	r1, r6, r1, lsl #4
     f44:	19429718 	stmdbne	r2, {r3, r4, r8, r9, sl, ip, pc}^
     f48:	00001301 	andeq	r1, r0, r1, lsl #6
     f4c:	03000508 	movweq	r0, #1288	; 0x508
     f50:	3b0b3a08 	blcc	2cf778 <__bss_end__+0x2c58d0>
     f54:	0213490b 	andseq	r4, r3, #180224	; 0x2c000
     f58:	09000017 	stmdbeq	r0, {r0, r1, r2, r4}
     f5c:	0e030034 	mcreq	0, 0, r0, cr3, cr4, {1}
     f60:	0b3b0b3a 	bleq	ec3c50 <__bss_end__+0xeb9da8>
     f64:	17021349 	strne	r1, [r2, -r9, asr #6]
     f68:	890a0000 	stmdbhi	sl, {}	; <UNPREDICTABLE>
     f6c:	11010182 	smlabbne	r1, r2, r1, r0
     f70:	01133101 	tsteq	r3, r1, lsl #2
     f74:	0b000013 	bleq	fc8 <_start-0x7038>
     f78:	0001828a 	andeq	r8, r1, sl, lsl #5
     f7c:	42911802 	addsmi	r1, r1, #131072	; 0x20000
     f80:	0c000018 	stceq	0, cr0, [r0], {24}
     f84:	01018289 	smlabbeq	r1, r9, r2, r8
     f88:	13310111 	teqne	r1, #1073741828	; 0x40000004
     f8c:	0f0d0000 	svceq	0x000d0000
     f90:	490b0b00 	stmdbmi	fp, {r8, r9, fp}
     f94:	0e000013 	mcreq	0, 0, r0, cr0, cr3, {0}
     f98:	13490035 	movtne	r0, #36917	; 0x9035
     f9c:	2e0f0000 	cdpcs	0, 0, cr0, cr15, cr0, {0}
     fa0:	03193f01 	tsteq	r9, #1, 30
     fa4:	3b0b3a0e 	blcc	2cf7e4 <__bss_end__+0x2c593c>
     fa8:	4919270b 	ldmdbmi	r9, {r0, r1, r3, r8, r9, sl, sp}
     fac:	12011113 	andne	r1, r1, #-1073741820	; 0xc0000004
     fb0:	97184006 	ldrls	r4, [r8, -r6]
     fb4:	13011942 	movwne	r1, #6466	; 0x1942
     fb8:	34100000 	ldrcc	r0, [r0], #-0
     fbc:	3a080300 	bcc	201bc4 <__bss_end__+0x1f7d1c>
     fc0:	490b3b0b 	stmdbmi	fp, {r0, r1, r3, r8, r9, fp, ip, sp}
     fc4:	00170213 	andseq	r0, r7, r3, lsl r2
     fc8:	82891100 	addhi	r1, r9, #0, 2
     fcc:	01110001 	tsteq	r1, r1
     fd0:	00001331 	andeq	r1, r0, r1, lsr r3
     fd4:	03000512 	movweq	r0, #1298	; 0x512
     fd8:	3b0b3a0e 	blcc	2cf818 <__bss_end__+0x2c5970>
     fdc:	0213490b 	andseq	r4, r3, #180224	; 0x2c000
     fe0:	13000017 	movwne	r0, #23
     fe4:	193f012e 	ldmdbne	pc!, {r1, r2, r3, r5, r8}	; <UNPREDICTABLE>
     fe8:	0b3a0e03 	bleq	e847fc <__bss_end__+0xe7a954>
     fec:	1927053b 	stmdbne	r7!, {r0, r1, r3, r4, r5, r8, sl}
     ff0:	01111349 	tsteq	r1, r9, asr #6
     ff4:	18400612 	stmdane	r0, {r1, r4, r9, sl}^
     ff8:	01194297 			; <UNDEFINED> instruction: 0x01194297
     ffc:	14000013 	strne	r0, [r0], #-19
    1000:	0e030005 	cdpeq	0, 0, cr0, cr3, cr5, {0}
    1004:	053b0b3a 	ldreq	r0, [fp, #-2874]!	; 0xb3a
    1008:	17021349 	strne	r1, [r2, -r9, asr #6]
    100c:	2e150000 	cdpcs	0, 1, cr0, cr5, cr0, {0}
    1010:	03193f01 	tsteq	r9, #1, 30
    1014:	3b0b3a0e 	blcc	2cf854 <__bss_end__+0x2c59ac>
    1018:	11192705 	tstne	r9, r5, lsl #14
    101c:	40061201 	andmi	r1, r6, r1, lsl #4
    1020:	19429718 	stmdbne	r2, {r3, r4, r8, r9, sl, ip, pc}^
    1024:	00001301 	andeq	r1, r0, r1, lsl #6
    1028:	03000516 	movweq	r0, #1302	; 0x516
    102c:	3b0b3a08 	blcc	2cf854 <__bss_end__+0x2c59ac>
    1030:	02134905 	andseq	r4, r3, #81920	; 0x14000
    1034:	17000017 	smladne	r0, r7, r0, r0
    1038:	0e030034 	mcreq	0, 0, r0, cr3, cr4, {1}
    103c:	053b0b3a 	ldreq	r0, [fp, #-2874]!	; 0xb3a
    1040:	17021349 	strne	r1, [r2, -r9, asr #6]
    1044:	0b180000 	bleq	60104c <__bss_end__+0x5f71a4>
    1048:	12011101 	andne	r1, r1, #1073741824	; 0x40000000
    104c:	00130106 	andseq	r0, r3, r6, lsl #2
    1050:	00341900 	eorseq	r1, r4, r0, lsl #18
    1054:	0b3a0e03 	bleq	e84868 <__bss_end__+0xe7a9c0>
    1058:	13490b3b 	movtne	r0, #39739	; 0x9b3b
    105c:	1802193f 	stmdane	r2, {r0, r1, r2, r3, r4, r5, r8, fp, ip}
    1060:	341a0000 	ldrcc	r0, [sl], #-0
    1064:	3a0e0300 	bcc	381c6c <__bss_end__+0x377dc4>
    1068:	49053b0b 	stmdbmi	r5, {r0, r1, r3, r8, r9, fp, ip, sp}
    106c:	02193f13 	andseq	r3, r9, #19, 30	; 0x4c
    1070:	1b000018 	blne	10d8 <_start-0x6f28>
    1074:	193f012e 	ldmdbne	pc!, {r1, r2, r3, r5, r8}	; <UNPREDICTABLE>
    1078:	0b3a0e03 	bleq	e8488c <__bss_end__+0xe7a9e4>
    107c:	19270b3b 	stmdbne	r7!, {r0, r1, r3, r4, r5, r8, r9, fp}
    1080:	193c1349 	ldmdbne	ip!, {r0, r3, r6, r8, r9, ip}
    1084:	00001301 	andeq	r1, r0, r1, lsl #6
    1088:	4900051c 	stmdbmi	r0, {r2, r3, r4, r8, sl}
    108c:	1d000013 	stcne	0, cr0, [r0, #-76]	; 0xffffffb4
    1090:	13490026 	movtne	r0, #36902	; 0x9026
    1094:	351e0000 	ldrcc	r0, [lr, #-0]
    1098:	1f000000 	svcne	0x00000000
    109c:	193f012e 	ldmdbne	pc!, {r1, r2, r3, r5, r8}	; <UNPREDICTABLE>
    10a0:	0b3a0e03 	bleq	e848b4 <__bss_end__+0xe7aa0c>
    10a4:	19270b3b 	stmdbne	r7!, {r0, r1, r3, r4, r5, r8, r9, fp}
    10a8:	1301193c 	movwne	r1, #6460	; 0x193c
    10ac:	2e200000 	cdpcs	0, 2, cr0, cr0, cr0, {0}
    10b0:	03193f00 	tsteq	r9, #0, 30
    10b4:	3b0b3a0e 	blcc	2cf8f4 <__bss_end__+0x2c5a4c>
    10b8:	3c19270b 	ldccc	7, cr2, [r9], {11}
    10bc:	00000019 	andeq	r0, r0, r9, lsl r0
    10c0:	25011101 	strcs	r1, [r1, #-257]	; 0x101
    10c4:	030b130e 	movweq	r1, #45838	; 0xb30e
    10c8:	110e1b0e 	tstne	lr, lr, lsl #22
    10cc:	10061201 	andne	r1, r6, r1, lsl #4
    10d0:	02000017 	andeq	r0, r0, #23
    10d4:	0b0b0024 	bleq	2c116c <__bss_end__+0x2b72c4>
    10d8:	08030b3e 	stmdaeq	r3, {r1, r2, r3, r4, r5, r8, r9, fp}
    10dc:	16030000 	strne	r0, [r3], -r0
    10e0:	3a0e0300 	bcc	381ce8 <__bss_end__+0x377e40>
    10e4:	490b3b0b 	stmdbmi	fp, {r0, r1, r3, r8, r9, fp, ip, sp}
    10e8:	04000013 	streq	r0, [r0], #-19
    10ec:	0b0b0024 	bleq	2c1184 <__bss_end__+0x2b72dc>
    10f0:	0e030b3e 	vmoveq.16	d3[0], r0
    10f4:	0f050000 	svceq	0x00050000
    10f8:	000b0b00 	andeq	r0, fp, r0, lsl #22
    10fc:	01130600 	tsteq	r3, r0, lsl #12
    1100:	0b3a0b0b 	bleq	e83d34 <__bss_end__+0xe79e8c>
    1104:	13010b3b 	movwne	r0, #6971	; 0x1b3b
    1108:	0d070000 	stceq	0, cr0, [r7, #-0]
    110c:	3a080300 	bcc	201d14 <__bss_end__+0x1f7e6c>
    1110:	490b3b0b 	stmdbmi	fp, {r0, r1, r3, r8, r9, fp, ip, sp}
    1114:	000b3813 	andeq	r3, fp, r3, lsl r8
    1118:	000d0800 	andeq	r0, sp, r0, lsl #16
    111c:	0b3a0e03 	bleq	e84930 <__bss_end__+0xe7aa88>
    1120:	13490b3b 	movtne	r0, #39739	; 0x9b3b
    1124:	00000b38 	andeq	r0, r0, r8, lsr fp
    1128:	0b010409 	bleq	42154 <__bss_end__+0x382ac>
    112c:	3b0b3a0b 	blcc	2cf960 <__bss_end__+0x2c5ab8>
    1130:	0013010b 	andseq	r0, r3, fp, lsl #2
    1134:	00280a00 	eoreq	r0, r8, r0, lsl #20
    1138:	0d1c0e03 	ldceq	14, cr0, [ip, #-12]
    113c:	2e0b0000 	cdpcs	0, 0, cr0, cr11, cr0, {0}
    1140:	03193f01 	tsteq	r9, #1, 30
    1144:	3b0b3a0e 	blcc	2cf984 <__bss_end__+0x2c5adc>
    1148:	4919270b 	ldmdbmi	r9, {r0, r1, r3, r8, r9, sl, sp}
    114c:	12011113 	andne	r1, r1, #-1073741820	; 0xc0000004
    1150:	97184006 	ldrls	r4, [r8, -r6]
    1154:	13011942 	movwne	r1, #6466	; 0x1942
    1158:	340c0000 	strcc	r0, [ip], #-0
    115c:	3a080300 	bcc	201d64 <__bss_end__+0x1f7ebc>
    1160:	490b3b0b 	stmdbmi	fp, {r0, r1, r3, r8, r9, fp, ip, sp}
    1164:	00061c13 	andeq	r1, r6, r3, lsl ip
    1168:	82890d00 	addhi	r0, r9, #0, 26
    116c:	01110101 	tsteq	r1, r1, lsl #2
    1170:	00001331 	andeq	r1, r0, r1, lsr r3
    1174:	01828a0e 	orreq	r8, r2, lr, lsl #20
    1178:	91180200 	tstls	r8, r0, lsl #4
    117c:	00001842 	andeq	r1, r0, r2, asr #16
    1180:	0b000f0f 	bleq	4dc4 <_start-0x323c>
    1184:	0013490b 	andseq	r4, r3, fp, lsl #18
    1188:	012e1000 	teqeq	lr, r0
    118c:	0e03193f 	mcreq	9, 0, r1, cr3, cr15, {1}
    1190:	0b3b0b3a 	bleq	ec3e80 <__bss_end__+0xeb9fd8>
    1194:	13491927 	movtne	r1, #39207	; 0x9927
    1198:	0000193c 	andeq	r1, r0, ip, lsr r9
    119c:	49000511 	stmdbmi	r0, {r0, r4, r8, sl}
    11a0:	00000013 	andeq	r0, r0, r3, lsl r0
    11a4:	25011101 	strcs	r1, [r1, #-257]	; 0x101
    11a8:	030b130e 	movweq	r1, #45838	; 0xb30e
    11ac:	110e1b0e 	tstne	lr, lr, lsl #22
    11b0:	10061201 	andne	r1, r6, r1, lsl #4
    11b4:	02000017 	andeq	r0, r0, #23
    11b8:	0b0b0024 	bleq	2c1250 <__bss_end__+0x2b73a8>
    11bc:	0e030b3e 	vmoveq.16	d3[0], r0
    11c0:	24030000 	strcs	r0, [r3], #-0
    11c4:	3e0b0b00 	vmlacc.f64	d0, d11, d0
    11c8:	0008030b 	andeq	r0, r8, fp, lsl #6
    11cc:	000f0400 	andeq	r0, pc, r0, lsl #8
    11d0:	00000b0b 	andeq	r0, r0, fp, lsl #22
    11d4:	0b000f05 	bleq	4df0 <_start-0x3210>
    11d8:	0013490b 	andseq	r4, r3, fp, lsl #18
    11dc:	00160600 	andseq	r0, r6, r0, lsl #12
    11e0:	0b3a0e03 	bleq	e849f4 <__bss_end__+0xe7ab4c>
    11e4:	13490b3b 	movtne	r0, #39739	; 0x9b3b
    11e8:	2e070000 	cdpcs	0, 0, cr0, cr7, cr0, {0}
    11ec:	03193f01 	tsteq	r9, #1, 30
    11f0:	3b0b3a0e 	blcc	2cfa30 <__bss_end__+0x2c5b88>
    11f4:	4919270b 	ldmdbmi	r9, {r0, r1, r3, r8, r9, sl, sp}
    11f8:	12011113 	andne	r1, r1, #-1073741820	; 0xc0000004
    11fc:	97184006 	ldrls	r4, [r8, -r6]
    1200:	00001942 	andeq	r1, r0, r2, asr #18
    1204:	03000508 	movweq	r0, #1288	; 0x508
    1208:	3b0b3a08 	blcc	2cfa30 <__bss_end__+0x2c5b88>
    120c:	0213490b 	andseq	r4, r3, #180224	; 0x2c000
    1210:	09000018 	stmdbeq	r0, {r3, r4}
    1214:	08030005 	stmdaeq	r3, {r0, r2}
    1218:	0b3b0b3a 	bleq	ec3f08 <__bss_end__+0xeba060>
    121c:	17021349 	strne	r1, [r2, -r9, asr #6]
    1220:	340a0000 	strcc	r0, [sl], #-0
    1224:	3a080300 	bcc	201e2c <__bss_end__+0x1f7f84>
    1228:	490b3b0b 	stmdbmi	fp, {r0, r1, r3, r8, r9, fp, ip, sp}
    122c:	00170213 	andseq	r0, r7, r3, lsl r2
    1230:	00340b00 	eorseq	r0, r4, r0, lsl #22
    1234:	0b3a0803 	bleq	e83248 <__bss_end__+0xe793a0>
    1238:	13490b3b 	movtne	r0, #39739	; 0x9b3b
    123c:	00001802 	andeq	r1, r0, r2, lsl #16
	...

Disassembly of section .debug_aranges:

00000000 <.debug_aranges>:
   0:	0000001c 	andeq	r0, r0, ip, lsl r0
   4:	00000002 	andeq	r0, r0, r2
   8:	00040000 	andeq	r0, r4, r0
   c:	00000000 	andeq	r0, r0, r0
  10:	00008010 	andeq	r8, r0, r0, lsl r0
  14:	00000030 	andeq	r0, r0, r0, lsr r0
	...
  20:	0000001c 	andeq	r0, r0, ip, lsl r0
  24:	01510002 	cmpeq	r1, r2
  28:	00040000 	andeq	r0, r4, r0
  2c:	00000000 	andeq	r0, r0, r0
  30:	00008040 	andeq	r8, r0, r0, asr #32
  34:	0000010c 	andeq	r0, r0, ip, lsl #2
	...
  40:	0000001c 	andeq	r0, r0, ip, lsl r0
  44:	05020002 	streq	r0, [r2, #-2]
  48:	00040000 	andeq	r0, r4, r0
  4c:	00000000 	andeq	r0, r0, r0
  50:	0000814c 	andeq	r8, r0, ip, asr #2
  54:	00000058 	andeq	r0, r0, r8, asr r0
	...
  60:	0000001c 	andeq	r0, r0, ip, lsl r0
  64:	06970002 	ldreq	r0, [r7], r2
  68:	00040000 	andeq	r0, r4, r0
  6c:	00000000 	andeq	r0, r0, r0
  70:	000081a4 	andeq	r8, r0, r4, lsr #3
  74:	0000003c 	andeq	r0, r0, ip, lsr r0
	...
  80:	0000001c 	andeq	r0, r0, ip, lsl r0
  84:	07ae0002 	streq	r0, [lr, r2]!
  88:	00040000 	andeq	r0, r4, r0
  8c:	00000000 	andeq	r0, r0, r0
  90:	000081e0 	andeq	r8, r0, r0, ror #3
  94:	00000034 	andeq	r0, r0, r4, lsr r0
	...
  a0:	0000001c 	andeq	r0, r0, ip, lsl r0
  a4:	08a00002 	stmiaeq	r0!, {r1}
  a8:	00040000 	andeq	r0, r4, r0
  ac:	00000000 	andeq	r0, r0, r0
  b0:	00008214 	andeq	r8, r0, r4, lsl r2
  b4:	00000524 	andeq	r0, r0, r4, lsr #10
	...
  c0:	0000001c 	andeq	r0, r0, ip, lsl r0
  c4:	0f450002 	svceq	0x00450002
  c8:	00040000 	andeq	r0, r4, r0
  cc:	00000000 	andeq	r0, r0, r0
  d0:	00008738 	andeq	r8, r0, r8, lsr r7
  d4:	00000028 	andeq	r0, r0, r8, lsr #32
	...
  e0:	0000001c 	andeq	r0, r0, ip, lsl r0
  e4:	10480002 	subne	r0, r8, r2
  e8:	00040000 	andeq	r0, r4, r0
  ec:	00000000 	andeq	r0, r0, r0
  f0:	00008760 	andeq	r8, r0, r0, ror #14
  f4:	000000b0 	strheq	r0, [r0], -r0	; <UNPREDICTABLE>
	...
 100:	0000001c 	andeq	r0, r0, ip, lsl r0
 104:	13290002 	teqne	r9, #2
 108:	00040000 	andeq	r0, r4, r0
 10c:	00000000 	andeq	r0, r0, r0
 110:	00008810 	andeq	r8, r0, r0, lsl r8
 114:	00000074 	andeq	r0, r0, r4, ror r0
	...
 120:	0000001c 	andeq	r0, r0, ip, lsl r0
 124:	14da0002 	ldrbne	r0, [sl], #2
 128:	00040000 	andeq	r0, r4, r0
 12c:	00000000 	andeq	r0, r0, r0
 130:	00008884 	andeq	r8, r0, r4, lsl #17
 134:	00000088 	andeq	r0, r0, r8, lsl #1
	...
 140:	0000001c 	andeq	r0, r0, ip, lsl r0
 144:	16b60002 	ldrtne	r0, [r6], r2
 148:	00040000 	andeq	r0, r4, r0
 14c:	00000000 	andeq	r0, r0, r0
 150:	0000890c 	andeq	r8, r0, ip, lsl #18
 154:	00000668 	andeq	r0, r0, r8, ror #12
	...
 160:	0000001c 	andeq	r0, r0, ip, lsl r0
 164:	28ac0002 	stmiacs	ip!, {r1}
 168:	00040000 	andeq	r0, r4, r0
 16c:	00000000 	andeq	r0, r0, r0
 170:	00008f74 	andeq	r8, r0, r4, ror pc
 174:	00000154 	andeq	r0, r0, r4, asr r1
	...
 180:	0000001c 	andeq	r0, r0, ip, lsl r0
 184:	2caf0002 	stccs	0, cr0, [pc], #8	; 194 <_start-0x7e6c>
 188:	00040000 	andeq	r0, r4, r0
 18c:	00000000 	andeq	r0, r0, r0
 190:	0000912c 	andeq	r9, r0, ip, lsr #2
 194:	000005a0 	andeq	r0, r0, r0, lsr #11
	...
 1a0:	0000001c 	andeq	r0, r0, ip, lsl r0
 1a4:	35350002 	ldrcc	r0, [r5, #-2]!
 1a8:	00040000 	andeq	r0, r4, r0
 1ac:	00000000 	andeq	r0, r0, r0
 1b0:	000096cc 	andeq	r9, r0, ip, asr #13
 1b4:	00000050 	andeq	r0, r0, r0, asr r0
	...
 1c0:	0000001c 	andeq	r0, r0, ip, lsl r0
 1c4:	36fc0002 	ldrbtcc	r0, [ip], r2
 1c8:	00040000 	andeq	r0, r4, r0
 1cc:	00000000 	andeq	r0, r0, r0
 1d0:	0000971c 	andeq	r9, r0, ip, lsl r7
 1d4:	00000020 	andeq	r0, r0, r0, lsr #32
	...

Disassembly of section .debug_line:

00000000 <.debug_line>:
       0:	00000081 	andeq	r0, r0, r1, lsl #1
       4:	00690002 	rsbeq	r0, r9, r2
       8:	01020000 	mrseq	r0, (UNDEF: 2)
       c:	000d0efb 	strdeq	r0, [sp], -fp
      10:	01010101 	tsteq	r1, r1, lsl #2
      14:	01000000 	mrseq	r0, (UNDEF: 0)
      18:	2f010000 	svccs	0x00010000
      1c:	72657355 	rsbvc	r7, r5, #1409286145	; 0x54000001
      20:	72622f73 	rsbvc	r2, r2, #460	; 0x1cc
      24:	6a6e6169 	bvs	1b985d0 <__bss_end__+0x1b8e728>
      28:	442f6e75 	strtmi	r6, [pc], #-3701	; 30 <_start-0x7fd0>
      2c:	746b7365 	strbtvc	r7, [fp], #-869	; 0x365
      30:	732f706f 	teqvc	pc, #111	; 0x6f
      34:	6f6f6863 	svcvs	0x006f6863
      38:	69572f6c 	ldmdbvs	r7, {r2, r3, r5, r6, r8, r9, sl, fp, sp}^
      3c:	7265746e 	rsbvc	r7, r5, #1845493760	; 0x6e000000
      40:	30323931 	eorscc	r3, r2, r1, lsr r9
      44:	3153432f 	cmpcc	r3, pc, lsr #6
      48:	2f453034 	svccs	0x00453034
      4c:	34317363 	ldrtcc	r7, [r1], #-867	; 0x363
      50:	322d6530 	eorcc	r6, sp, #48, 10	; 0xc000000
      54:	6e697730 	mcrvs	7, 3, r7, cr9, cr0, {1}
      58:	62696c2f 	rsbvs	r6, r9, #12032	; 0x2f00
      5c:	00006970 	andeq	r6, r0, r0, ror r9
      60:	2e66666f 	cdpcs	6, 6, cr6, cr6, cr15, {3}
      64:	00000063 	andeq	r0, r0, r3, rrx
      68:	69707200 	ldmdbvs	r0!, {r9, ip, sp, lr}^
      6c:	0100682e 	tsteq	r0, lr, lsr #16
      70:	00000000 	andeq	r0, r0, r0
      74:	80100205 	andshi	r0, r0, r5, lsl #4
      78:	2f150000 	svccs	0x00150000
      7c:	834b4b32 	movthi	r4, #47922	; 0xbb32
      80:	01000402 	tsteq	r0, r2, lsl #8
      84:	0000a701 	andeq	sl, r0, r1, lsl #14
      88:	6e000200 	cdpvs	2, 0, cr0, cr0, cr0, {0}
      8c:	02000000 	andeq	r0, r0, #0
      90:	0d0efb01 	vstreq	d15, [lr, #-4]
      94:	01010100 	mrseq	r0, (UNDEF: 17)
      98:	00000001 	andeq	r0, r0, r1
      9c:	01000001 	tsteq	r0, r1
      a0:	6573552f 	ldrbvs	r5, [r3, #-1327]!	; 0x52f
      a4:	622f7372 	eorvs	r7, pc, #-939524095	; 0xc8000001
      a8:	6e616972 	mcrvs	9, 3, r6, cr1, cr2, {3}
      ac:	2f6e756a 	svccs	0x006e756a
      b0:	6b736544 	blvs	1cd95c8 <__bss_end__+0x1ccf720>
      b4:	2f706f74 	svccs	0x00706f74
      b8:	6f686373 	svcvs	0x00686373
      bc:	572f6c6f 	strpl	r6, [pc, -pc, ror #24]!
      c0:	65746e69 	ldrbvs	r6, [r4, #-3689]!	; 0xe69
      c4:	32393172 	eorscc	r3, r9, #-2147483620	; 0x8000001c
      c8:	53432f30 	movtpl	r2, #16176	; 0x3f30
      cc:	45303431 	ldrmi	r3, [r0, #-1073]!	; 0x431
      d0:	3173632f 	cmncc	r3, pc, lsr #6
      d4:	2d653034 	stclcs	0, cr3, [r5, #-208]!	; 0xffffff30
      d8:	69773032 	ldmdbvs	r7!, {r1, r4, r5, ip, sp}^
      dc:	696c2f6e 	stmdbvs	ip!, {r1, r2, r3, r5, r6, r8, r9, sl, fp, sp}^
      e0:	00697062 	rsbeq	r7, r9, r2, rrx
      e4:	69706700 	ldmdbvs	r0!, {r8, r9, sl, sp, lr}^
      e8:	75702d6f 	ldrbvc	r2, [r0, #-3439]!	; 0xd6f
      ec:	00632e64 	rsbeq	r2, r3, r4, ror #28
      f0:	72000000 	andvc	r0, r0, #0
      f4:	682e6970 	stmdavs	lr!, {r4, r5, r6, r8, fp, sp, lr}
      f8:	00000100 	andeq	r0, r0, r0, lsl #2
      fc:	02050000 	andeq	r0, r5, #0
     100:	00008040 	andeq	r8, r0, r0, asr #32
     104:	00844c1a 	addeq	r4, r4, sl, lsl ip
     108:	2f010402 	svccs	0x00010402
     10c:	4d4c2f85 	stclmi	15, cr2, [ip, #-532]	; 0xfffffdec
     110:	0200842f 	andeq	r8, r0, #788529152	; 0x2f000000
     114:	842f0104 	strthi	r0, [pc], #-260	; 11c <_start-0x7ee4>
     118:	04020084 	streq	r0, [r2], #-132	; 0x84
     11c:	68842f01 	stmvs	r4, {r0, r8, r9, sl, fp, sp}
     120:	01040200 	mrseq	r0, R12_usr
     124:	2e4b832f 	cdpcs	3, 4, cr8, cr11, cr15, {1}
     128:	022e3d08 	eoreq	r3, lr, #8, 26	; 0x200
     12c:	01010014 	tsteq	r1, r4, lsl r0
     130:	00000102 	andeq	r0, r0, r2, lsl #2
     134:	00eb0002 	rsceq	r0, fp, r2
     138:	01020000 	mrseq	r0, (UNDEF: 2)
     13c:	000d0efb 	strdeq	r0, [sp], -fp
     140:	01010101 	tsteq	r1, r1, lsl #2
     144:	01000000 	mrseq	r0, (UNDEF: 0)
     148:	6c010000 	stcvs	0, cr0, [r1], {-0}
     14c:	00636269 	rsbeq	r6, r3, r9, ror #4
     150:	7273752f 	rsbsvc	r7, r3, #197132288	; 0xbc00000
     154:	636f6c2f 	cmnvs	pc, #12032	; 0x2f00
     158:	432f6c61 	teqmi	pc, #24832	; 0x6100
     15c:	616c6c65 	cmnvs	ip, r5, ror #24
     160:	72612f72 	rsbvc	r2, r1, #456	; 0x1c8
     164:	6f6e2d6d 	svcvs	0x006e2d6d
     168:	652d656e 	strvs	r6, [sp, #-1390]!	; 0x56e
     16c:	2f696261 	svccs	0x00696261
     170:	2e382e34 	mrccs	14, 1, r2, cr8, cr4, {1}
     174:	73632d33 	cmnvc	r3, #3264	; 0xcc0
     178:	65303731 	ldrvs	r3, [r0, #-1841]!	; 0x731
     17c:	62696c2f 	rsbvs	r6, r9, #12032	; 0x2f00
     180:	6363672f 	cmnvs	r3, #12320768	; 0xbc0000
     184:	6d72612f 	ldfvse	f6, [r2, #-188]!	; 0xffffff44
     188:	6e6f6e2d 	cdpvs	14, 6, cr6, cr15, cr13, {1}
     18c:	61652d65 	cmnvs	r5, r5, ror #26
     190:	342f6962 	strtcc	r6, [pc], #-2402	; 198 <_start-0x7e68>
     194:	332e382e 	teqcc	lr, #3014656	; 0x2e0000
     198:	636e692f 	cmnvs	lr, #770048	; 0xbc000
     19c:	6564756c 	strbvs	r7, [r4, #-1388]!	; 0x56c
     1a0:	73552f00 	cmpvc	r5, #0, 30
     1a4:	2f737265 	svccs	0x00737265
     1a8:	61697262 	cmnvs	r9, r2, ror #4
     1ac:	6e756a6e 	vsubvs.f32	s13, s10, s29
     1b0:	7365442f 	cmnvc	r5, #788529152	; 0x2f000000
     1b4:	706f746b 	rsbvc	r7, pc, fp, ror #8
     1b8:	6863732f 	stmdavs	r3!, {r0, r1, r2, r3, r5, r8, r9, ip, sp, lr}^
     1bc:	2f6c6f6f 	svccs	0x006c6f6f
     1c0:	746e6957 	strbtvc	r6, [lr], #-2391	; 0x957
     1c4:	39317265 	ldmdbcc	r1!, {r0, r2, r5, r6, r9, ip, sp, lr}
     1c8:	432f3032 	teqmi	pc, #50	; 0x32
     1cc:	30343153 	eorscc	r3, r4, r3, asr r1
     1d0:	73632f45 	cmnvc	r3, #276	; 0x114
     1d4:	65303431 	ldrvs	r3, [r0, #-1073]!	; 0x431
     1d8:	7730322d 	ldrvc	r3, [r0, -sp, lsr #4]!
     1dc:	6c2f6e69 	stcvs	14, cr6, [pc], #-420	; 40 <_start-0x7fc0>
     1e0:	69706269 	ldmdbvs	r0!, {r0, r3, r5, r6, r9, sp, lr}^
     1e4:	72700000 	rsbsvc	r0, r0, #0
     1e8:	6b746e69 	blvs	1d1bb94 <__bss_end__+0x1d11cec>
     1ec:	0100632e 	tsteq	r0, lr, lsr #6
     1f0:	74730000 	ldrbtvc	r0, [r3], #-0
     1f4:	67726164 	ldrbvs	r6, [r2, -r4, ror #2]!
     1f8:	0200682e 	andeq	r6, r0, #3014656	; 0x2e0000
     1fc:	623c0000 	eorsvs	r0, ip, #0
     200:	746c6975 	strbtvc	r6, [ip], #-2421	; 0x975
     204:	3e6e692d 	cdpcc	9, 6, cr6, cr14, cr13, {1}
     208:	00000000 	andeq	r0, r0, r0
     20c:	2e697072 	mcrcs	0, 3, r7, cr9, cr2, {3}
     210:	00030068 	andeq	r0, r3, r8, rrx
     214:	2d617600 	stclcs	6, cr7, [r1, #-0]
     218:	6e697270 	mcrvs	2, 3, r7, cr9, cr0, {3}
     21c:	682e6b74 	stmdavs	lr!, {r2, r4, r5, r6, r8, r9, fp, sp, lr}
     220:	00000100 	andeq	r0, r0, r0, lsl #2
     224:	02050000 	andeq	r0, r5, #0
     228:	0000814c 	andeq	r8, r0, ip, asr #2
     22c:	bf4b6b17 	svclt	0x004b6b17
     230:	000e0289 	andeq	r0, lr, r9, lsl #5
     234:	008a0101 	addeq	r0, sl, r1, lsl #2
     238:	00020000 	andeq	r0, r2, r0
     23c:	00000072 	andeq	r0, r0, r2, ror r0
     240:	0efb0102 	cdpeq	1, 15, cr0, cr11, cr2, {0}
     244:	0101000d 	tsteq	r1, sp
     248:	00000101 	andeq	r0, r0, r1, lsl #2
     24c:	00000100 	andeq	r0, r0, r0, lsl #2
     250:	62696c01 	rsbvs	r6, r9, #256	; 0x100
     254:	552f0063 	strpl	r0, [pc, #-99]!	; 1f9 <_start-0x7e07>
     258:	73726573 	cmnvc	r2, #482344960	; 0x1cc00000
     25c:	6972622f 	ldmdbvs	r2!, {r0, r1, r2, r3, r5, r9, sp, lr}^
     260:	756a6e61 	strbvc	r6, [sl, #-3681]!	; 0xe61
     264:	65442f6e 	strbvs	r2, [r4, #-3950]	; 0xf6e
     268:	6f746b73 	svcvs	0x00746b73
     26c:	63732f70 	cmnvs	r3, #112, 30	; 0x1c0
     270:	6c6f6f68 	stclvs	15, cr6, [pc], #-416	; d8 <_start-0x7f28>
     274:	6e69572f 	cdpvs	7, 6, cr5, cr9, cr15, {1}
     278:	31726574 	cmncc	r2, r4, ror r5
     27c:	2f303239 	svccs	0x00303239
     280:	34315343 	ldrtcc	r5, [r1], #-835	; 0x343
     284:	632f4530 	teqvs	pc, #48, 10	; 0xc000000
     288:	30343173 	eorscc	r3, r4, r3, ror r1
     28c:	30322d65 	eorscc	r2, r2, r5, ror #26
     290:	2f6e6977 	svccs	0x006e6977
     294:	7062696c 	rsbvc	r6, r2, ip, ror #18
     298:	70000069 	andvc	r0, r0, r9, rrx
     29c:	68637475 	stmdavs	r3!, {r0, r2, r4, r5, r6, sl, ip, sp, lr}^
     2a0:	632e7261 	teqvs	lr, #268435462	; 0x10000006
     2a4:	00000100 	andeq	r0, r0, r0, lsl #2
     2a8:	2e697072 	mcrcs	0, 3, r7, cr9, cr2, {3}
     2ac:	00020068 	andeq	r0, r2, r8, rrx
     2b0:	05000000 	streq	r0, [r0, #-0]
     2b4:	0081a402 	addeq	sl, r1, r2, lsl #8
     2b8:	6b4a1400 	blvs	12852c0 <__bss_end__+0x127b418>
     2bc:	0213bc13 	andseq	fp, r3, #4864	; 0x1300
     2c0:	01010008 	tsteq	r1, r8
     2c4:	00000096 	muleq	r0, r6, r0
     2c8:	006f0002 	rsbeq	r0, pc, r2
     2cc:	01020000 	mrseq	r0, (UNDEF: 2)
     2d0:	000d0efb 	strdeq	r0, [sp], -fp
     2d4:	01010101 	tsteq	r1, r1, lsl #2
     2d8:	01000000 	mrseq	r0, (UNDEF: 0)
     2dc:	6c010000 	stcvs	0, cr0, [r1], {-0}
     2e0:	00636269 	rsbeq	r6, r3, r9, ror #4
     2e4:	6573552f 	ldrbvs	r5, [r3, #-1327]!	; 0x52f
     2e8:	622f7372 	eorvs	r7, pc, #-939524095	; 0xc8000001
     2ec:	6e616972 	mcrvs	9, 3, r6, cr1, cr2, {3}
     2f0:	2f6e756a 	svccs	0x006e756a
     2f4:	6b736544 	blvs	1cd980c <__bss_end__+0x1ccf964>
     2f8:	2f706f74 	svccs	0x00706f74
     2fc:	6f686373 	svcvs	0x00686373
     300:	572f6c6f 	strpl	r6, [pc, -pc, ror #24]!
     304:	65746e69 	ldrbvs	r6, [r4, #-3689]!	; 0xe69
     308:	32393172 	eorscc	r3, r9, #-2147483620	; 0x8000001c
     30c:	53432f30 	movtpl	r2, #16176	; 0x3f30
     310:	45303431 	ldrmi	r3, [r0, #-1073]!	; 0x431
     314:	3173632f 	cmncc	r3, pc, lsr #6
     318:	2d653034 	stclcs	0, cr3, [r5, #-208]!	; 0xffffff30
     31c:	69773032 	ldmdbvs	r7!, {r1, r4, r5, ip, sp}^
     320:	696c2f6e 	stmdbvs	ip!, {r1, r2, r3, r5, r6, r8, r9, sl, fp, sp}^
     324:	00697062 	rsbeq	r7, r9, r2, rrx
     328:	74757000 	ldrbtvc	r7, [r5], #-0
     32c:	00632e6b 	rsbeq	r2, r3, fp, ror #28
     330:	72000001 	andvc	r0, r0, #1
     334:	682e6970 	stmdavs	lr!, {r4, r5, r6, r8, fp, sp, lr}
     338:	00000200 	andeq	r0, r0, r0, lsl #4
     33c:	02050000 	andeq	r0, r5, #0
     340:	000081e0 	andeq	r8, r0, r0, ror #3
     344:	002d4c15 	eoreq	r4, sp, r5, lsl ip
     348:	2f020402 	svccs	0x00020402
     34c:	02040200 	andeq	r0, r4, #0, 4
     350:	04020049 	streq	r0, [r2], #-73	; 0x49
     354:	062e0601 	strteq	r0, [lr], -r1, lsl #12
     358:	0006026b 	andeq	r0, r6, fp, ror #4
     35c:	01e20101 	mvneq	r0, r1, lsl #2
     360:	00020000 	andeq	r0, r2, r0
     364:	000000df 	ldrdeq	r0, [r0], -pc	; <UNPREDICTABLE>
     368:	0efb0102 	cdpeq	1, 15, cr0, cr11, cr2, {0}
     36c:	0101000d 	tsteq	r1, sp
     370:	00000101 	andeq	r0, r0, r1, lsl #2
     374:	00000100 	andeq	r0, r0, r0, lsl #2
     378:	62696c01 	rsbvs	r6, r9, #256	; 0x100
     37c:	752f0063 	strvc	r0, [pc, #-99]!	; 321 <_start-0x7cdf>
     380:	6c2f7273 	sfmvs	f7, 4, [pc], #-460	; 1bc <_start-0x7e44>
     384:	6c61636f 	stclvs	3, cr6, [r1], #-444	; 0xfffffe44
     388:	6c65432f 	stclvs	3, cr4, [r5], #-188	; 0xffffff44
     38c:	2f72616c 	svccs	0x0072616c
     390:	2d6d7261 	sfmcs	f7, 2, [sp, #-388]!	; 0xfffffe7c
     394:	656e6f6e 	strbvs	r6, [lr, #-3950]!	; 0xf6e
     398:	6261652d 	rsbvs	r6, r1, #188743680	; 0xb400000
     39c:	2e342f69 	cdpcs	15, 3, cr2, cr4, cr9, {3}
     3a0:	2d332e38 	ldccs	14, cr2, [r3, #-224]!	; 0xffffff20
     3a4:	37317363 	ldrcc	r7, [r1, -r3, ror #6]!
     3a8:	6c2f6530 	cfstr32vs	mvfx6, [pc], #-192	; 2f0 <_start-0x7d10>
     3ac:	672f6269 	strvs	r6, [pc, -r9, ror #4]!
     3b0:	612f6363 	teqvs	pc, r3, ror #6
     3b4:	6e2d6d72 	mcrvs	13, 1, r6, cr13, cr2, {3}
     3b8:	2d656e6f 	stclcs	14, cr6, [r5, #-444]!	; 0xfffffe44
     3bc:	69626165 	stmdbvs	r2!, {r0, r2, r5, r6, r8, sp, lr}^
     3c0:	382e342f 	stmdacc	lr!, {r0, r1, r2, r3, r5, sl, ip, sp}
     3c4:	692f332e 	stmdbvs	pc!, {r1, r2, r3, r5, r8, r9, ip, sp}	; <UNPREDICTABLE>
     3c8:	756c636e 	strbvc	r6, [ip, #-878]!	; 0x36e
     3cc:	2f006564 	svccs	0x00006564
     3d0:	72657355 	rsbvc	r7, r5, #1409286145	; 0x54000001
     3d4:	72622f73 	rsbvc	r2, r2, #460	; 0x1cc
     3d8:	6a6e6169 	bvs	1b98984 <__bss_end__+0x1b8eadc>
     3dc:	442f6e75 	strtmi	r6, [pc], #-3701	; 3e4 <_start-0x7c1c>
     3e0:	746b7365 	strbtvc	r7, [fp], #-869	; 0x365
     3e4:	732f706f 	teqvc	pc, #111	; 0x6f
     3e8:	6f6f6863 	svcvs	0x006f6863
     3ec:	69572f6c 	ldmdbvs	r7, {r2, r3, r5, r6, r8, r9, sl, fp, sp}^
     3f0:	7265746e 	rsbvc	r7, r5, #1845493760	; 0x6e000000
     3f4:	30323931 	eorscc	r3, r2, r1, lsr r9
     3f8:	3153432f 	cmpcc	r3, pc, lsr #6
     3fc:	2f453034 	svccs	0x00453034
     400:	34317363 	ldrtcc	r7, [r1], #-867	; 0x363
     404:	322d6530 	eorcc	r6, sp, #48, 10	; 0xc000000
     408:	6e697730 	mcrvs	7, 3, r7, cr9, cr0, {1}
     40c:	62696c2f 	rsbvs	r6, r9, #12032	; 0x2f00
     410:	00006970 	andeq	r6, r0, r0, ror r9
     414:	702d6176 	eorvc	r6, sp, r6, ror r1
     418:	746e6972 	strbtvc	r6, [lr], #-2418	; 0x972
     41c:	00632e6b 	rsbeq	r2, r3, fp, ror #28
     420:	73000001 	movwvc	r0, #1
     424:	72616474 	rsbvc	r6, r1, #116, 8	; 0x74000000
     428:	00682e67 	rsbeq	r2, r8, r7, ror #28
     42c:	72000002 	andvc	r0, r0, #2
     430:	682e6970 	stmdavs	lr!, {r4, r5, r6, r8, fp, sp, lr}
     434:	00000300 	andeq	r0, r0, r0, lsl #6
     438:	6975623c 	ldmdbvs	r5!, {r2, r3, r4, r5, r9, sp, lr}^
     43c:	692d746c 	pushvs	{r2, r3, r5, r6, sl, ip, sp, lr}
     440:	00003e6e 	andeq	r3, r0, lr, ror #28
     444:	00000000 	andeq	r0, r0, r0
     448:	82140205 	andshi	r0, r4, #1342177280	; 0x50000000
     44c:	26030000 	strcs	r0, [r3], -r0
     450:	13a50101 			; <UNDEFINED> instruction: 0x13a50101
     454:	02002d31 	andeq	r2, r0, #3136	; 0xc40
     458:	002f0204 	eoreq	r0, pc, r4, lsl #4
     45c:	2d020402 	cfstrscs	mvf0, [r2, #-8]
     460:	02040200 	andeq	r0, r4, #0, 4
     464:	0402002f 	streq	r0, [r2], #-47	; 0x2f
     468:	4c4c2d01 	mcrrmi	13, 0, r2, ip, cr1
     46c:	2f4b1430 	svccs	0x004b1430
     470:	0402004f 	streq	r0, [r2], #-79	; 0x4f
     474:	02006702 	andeq	r6, r0, #524288	; 0x80000
     478:	4c650104 	stfmie	f0, [r5], #-16
     47c:	2fa0304d 	svccs	0x00a0304d
     480:	26023031 			; <UNDEFINED> instruction: 0x26023031
     484:	2c2d8416 	cfstrscs	mvf8, [sp], #-88	; 0xffffffa8
     488:	01040200 	mrseq	r0, R12_usr
     48c:	04020030 	streq	r0, [r2], #-48	; 0x30
     490:	66063301 	strvs	r3, [r6], -r1, lsl #6
     494:	01040200 	mrseq	r0, R12_usr
     498:	0402002e 	streq	r0, [r2], #-46	; 0x2e
     49c:	21080601 	tstcs	r8, r1, lsl #12
     4a0:	73032f67 	movwvc	r2, #16231	; 0x3f67
     4a4:	2e130382 	cdpcs	3, 1, cr0, cr3, cr2, {4}
     4a8:	01040200 	mrseq	r0, R12_usr
     4ac:	02002e06 	andeq	r2, r0, #6, 28	; 0x60
     4b0:	9f060104 	svcls	0x00060104
     4b4:	67034b6a 	strvs	r4, [r3, -sl, ror #22]
     4b8:	2e21032e 	cdpcs	3, 2, cr0, cr1, cr14, {1}
     4bc:	01040200 	mrseq	r0, R12_usr
     4c0:	02002e06 	andeq	r2, r0, #6, 28	; 0x60
     4c4:	9f060104 	svcls	0x00060104
     4c8:	01040200 	mrseq	r0, R12_usr
     4cc:	f323086a 	vsub.i32	q0, <illegal reg q1.5>, q13
     4d0:	087fa603 	ldmdaeq	pc!, {r0, r1, r9, sl, sp, pc}^	; <UNPREDICTABLE>
     4d4:	02004b3c 	andeq	r4, r0, #60, 22	; 0xf000
     4d8:	4a060104 	bmi	1808f0 <__bss_end__+0x176a48>
     4dc:	4b210806 	blmi	8424fc <__bss_end__+0x838654>
     4e0:	d9034b2f 	stmdble	r3, {r0, r1, r2, r3, r5, r8, r9, fp, lr}
     4e4:	4c83f200 	sfmmi	f7, 1, [r3], {0}
     4e8:	2e0e0348 	cdpcs	3, 0, cr0, cr14, cr8, {2}
     4ec:	2f2e7503 	svccs	0x002e7503
     4f0:	2f4b842f 	svccs	0x004b842f
     4f4:	30314d2d 	eorscc	r4, r1, sp, lsr #26
     4f8:	0200832f 	andeq	r8, r0, #-1140850688	; 0xbc000000
     4fc:	a22c0104 	eorge	r0, ip, #4, 2
     500:	01040200 	mrseq	r0, R12_usr
     504:	08064a06 	stmdaeq	r6, {r1, r2, r9, fp, lr}
     508:	16360222 	ldrtne	r0, [r6], -r2, lsr #4
     50c:	08d60e03 	ldmeq	r6, {r0, r1, r9, sl, fp}^
     510:	31f33021 	mvnscc	r3, r1, lsr #32
     514:	30f330f3 	ldrshtcc	r3, [r3], #3
     518:	30f3304b 	rscscc	r3, r3, fp, asr #32
     51c:	2f312308 	svccs	0x00312308
     520:	01040200 	mrseq	r0, R12_usr
     524:	04020065 	streq	r0, [r2], #-101	; 0x65
     528:	004a0602 	subeq	r0, sl, r2, lsl #12
     52c:	06010402 	streq	r0, [r1], -r2, lsl #8
     530:	00664203 	rsbeq	r4, r6, r3, lsl #4
     534:	06020402 	streq	r0, [r2], -r2, lsl #8
     538:	c2030666 	andgt	r0, r3, #106954752	; 0x6600000
     53c:	02684a00 	rsbeq	r4, r8, #0, 20
     540:	01010012 	tsteq	r1, r2, lsl r0
     544:	00000093 	muleq	r0, r3, r0
     548:	007d0002 	rsbseq	r0, sp, r2
     54c:	01020000 	mrseq	r0, (UNDEF: 2)
     550:	000d0efb 	strdeq	r0, [sp], -fp
     554:	01010101 	tsteq	r1, r1, lsl #2
     558:	01000000 	mrseq	r0, (UNDEF: 0)
     55c:	63010000 	movwvs	r0, #4096	; 0x1000
     560:	30343173 	eorscc	r3, r4, r3, ror r1
     564:	72732d65 	rsbsvc	r2, r3, #6464	; 0x1940
     568:	552f0063 	strpl	r0, [pc, #-99]!	; 50d <_start-0x7af3>
     56c:	73726573 	cmnvc	r2, #482344960	; 0x1cc00000
     570:	6972622f 	ldmdbvs	r2!, {r0, r1, r2, r3, r5, r9, sp, lr}^
     574:	756a6e61 	strbvc	r6, [sl, #-3681]!	; 0xe61
     578:	65442f6e 	strbvs	r2, [r4, #-3950]	; 0xf6e
     57c:	6f746b73 	svcvs	0x00746b73
     580:	63732f70 	cmnvs	r3, #112, 30	; 0x1c0
     584:	6c6f6f68 	stclvs	15, cr6, [pc], #-416	; 3ec <_start-0x7c14>
     588:	6e69572f 	cdpvs	7, 6, cr5, cr9, cr15, {1}
     58c:	31726574 	cmncc	r2, r4, ror r5
     590:	2f303239 	svccs	0x00303239
     594:	34315343 	ldrtcc	r5, [r1], #-835	; 0x343
     598:	632f4530 	teqvs	pc, #48, 10	; 0xc000000
     59c:	30343173 	eorscc	r3, r4, r3, ror r1
     5a0:	30322d65 	eorscc	r2, r2, r5, ror #26
     5a4:	2f6e6977 	svccs	0x006e6977
     5a8:	7062696c 	rsbvc	r6, r2, ip, ror #18
     5ac:	63000069 	movwvs	r0, #105	; 0x69
     5b0:	6e61656c 	cdpvs	5, 6, cr6, cr1, cr12, {3}
     5b4:	6265722d 	rsbvs	r7, r5, #-805306366	; 0xd0000002
     5b8:	2e746f6f 	cdpcs	15, 7, cr6, cr4, cr15, {3}
     5bc:	00010063 	andeq	r0, r1, r3, rrx
     5c0:	69707200 	ldmdbvs	r0!, {r9, ip, sp, lr}^
     5c4:	0200682e 	andeq	r6, r0, #3014656	; 0x2e0000
     5c8:	00000000 	andeq	r0, r0, r0
     5cc:	87380205 	ldrhi	r0, [r8, -r5, lsl #4]!
     5d0:	2f150000 	svccs	0x00150000
     5d4:	06024b83 	streq	r4, [r2], -r3, lsl #23
     5d8:	21010100 	mrscs	r0, (UNDEF: 17)
     5dc:	02000001 	andeq	r0, r0, #1
     5e0:	0000f800 	andeq	pc, r0, r0, lsl #16
     5e4:	fb010200 	blx	40dee <__bss_end__+0x36f46>
     5e8:	01000d0e 	tsteq	r0, lr, lsl #26
     5ec:	00010101 	andeq	r0, r1, r1, lsl #2
     5f0:	00010000 	andeq	r0, r1, r0
     5f4:	73630100 	cmnvc	r3, #0, 2
     5f8:	65303431 	ldrvs	r3, [r0, #-1073]!	; 0x431
     5fc:	6372732d 	cmnvs	r2, #-1275068416	; 0xb4000000
     600:	73752f00 	cmnvc	r5, #0, 30
     604:	6f6c2f72 	svcvs	0x006c2f72
     608:	2f6c6163 	svccs	0x006c6163
     60c:	6c6c6543 	cfstr64vs	mvdx6, [ip], #-268	; 0xfffffef4
     610:	612f7261 	teqvs	pc, r1, ror #4
     614:	6e2d6d72 	mcrvs	13, 1, r6, cr13, cr2, {3}
     618:	2d656e6f 	stclcs	14, cr6, [r5, #-444]!	; 0xfffffe44
     61c:	69626165 	stmdbvs	r2!, {r0, r2, r5, r6, r8, sp, lr}^
     620:	382e342f 	stmdacc	lr!, {r0, r1, r2, r3, r5, sl, ip, sp}
     624:	632d332e 	teqvs	sp, #-1207959552	; 0xb8000000
     628:	30373173 	eorscc	r3, r7, r3, ror r1
     62c:	696c2f65 	stmdbvs	ip!, {r0, r2, r5, r6, r8, r9, sl, fp, sp}^
     630:	63672f62 	cmnvs	r7, #392	; 0x188
     634:	72612f63 	rsbvc	r2, r1, #396	; 0x18c
     638:	6f6e2d6d 	svcvs	0x006e2d6d
     63c:	652d656e 	strvs	r6, [sp, #-1390]!	; 0x56e
     640:	2f696261 	svccs	0x00696261
     644:	2e382e34 	mrccs	14, 1, r2, cr8, cr4, {1}
     648:	6e692f33 	mcrvs	15, 3, r2, cr9, cr3, {1}
     64c:	64756c63 	ldrbtvs	r6, [r5], #-3171	; 0xc63
     650:	552f0065 	strpl	r0, [pc, #-101]!	; 5f3 <_start-0x7a0d>
     654:	73726573 	cmnvc	r2, #482344960	; 0x1cc00000
     658:	6972622f 	ldmdbvs	r2!, {r0, r1, r2, r3, r5, r9, sp, lr}^
     65c:	756a6e61 	strbvc	r6, [sl, #-3681]!	; 0xe61
     660:	65442f6e 	strbvs	r2, [r4, #-3950]	; 0xf6e
     664:	6f746b73 	svcvs	0x00746b73
     668:	63732f70 	cmnvs	r3, #112, 30	; 0x1c0
     66c:	6c6f6f68 	stclvs	15, cr6, [pc], #-416	; 4d4 <_start-0x7b2c>
     670:	6e69572f 	cdpvs	7, 6, cr5, cr9, cr15, {1}
     674:	31726574 	cmncc	r2, r4, ror r5
     678:	2f303239 	svccs	0x00303239
     67c:	34315343 	ldrtcc	r5, [r1], #-835	; 0x343
     680:	632f4530 	teqvs	pc, #48, 10	; 0xc000000
     684:	30343173 	eorscc	r3, r4, r3, ror r1
     688:	30322d65 	eorscc	r2, r2, r5, ror #26
     68c:	2f6e6977 	svccs	0x006e6977
     690:	7062696c 	rsbvc	r6, r2, ip, ror #18
     694:	63000069 	movwvs	r0, #105	; 0x69
     698:	72617473 	rsbvc	r7, r1, #1929379840	; 0x73000000
     69c:	00632e74 	rsbeq	r2, r3, r4, ror lr
     6a0:	73000001 	movwvc	r0, #1
     6a4:	6e696474 	mcrvs	4, 3, r6, cr9, cr4, {3}
     6a8:	63672d74 	cmnvs	r7, #116, 26	; 0x1d00
     6ac:	00682e63 	rsbeq	r2, r8, r3, ror #28
     6b0:	73000002 	movwvc	r0, #2
     6b4:	61752d77 	cmnvs	r5, r7, ror sp
     6b8:	682e7472 	stmdavs	lr!, {r1, r4, r5, r6, sl, ip, sp, lr}
     6bc:	00000100 	andeq	r0, r0, r0, lsl #2
     6c0:	746e6f63 	strbtvc	r6, [lr], #-3939	; 0xf63
     6c4:	2d6c6f72 	stclcs	15, cr6, [ip, #-456]!	; 0xfffffe38
     6c8:	636f6c62 	cmnvs	pc, #25088	; 0x6200
     6cc:	00682e6b 	rsbeq	r2, r8, fp, ror #28
     6d0:	72000001 	andvc	r0, r0, #1
     6d4:	682e6970 	stmdavs	lr!, {r4, r5, r6, r8, fp, sp, lr}
     6d8:	00000300 	andeq	r0, r0, r0, lsl #6
     6dc:	02050000 	andeq	r0, r5, #0
     6e0:	00008760 	andeq	r8, r0, r0, ror #14
     6e4:	68684b17 	stmdavs	r8!, {r0, r1, r2, r4, r8, r9, fp, lr}^
     6e8:	2d2f3132 	stfcss	f3, [pc, #-200]!	; 628 <_start-0x79d8>
     6ec:	0402002f 	streq	r0, [r2], #-47	; 0x2f
     6f0:	2f4f4901 	svccs	0x004f4901
     6f4:	8367674b 	cmnhi	r7, #19660800	; 0x12c0000
     6f8:	022f4e67 	eoreq	r4, pc, #1648	; 0x670
     6fc:	01010010 	tsteq	r1, r0, lsl r0
     700:	00000099 	muleq	r0, r9, r0
     704:	00770002 	rsbseq	r0, r7, r2
     708:	01020000 	mrseq	r0, (UNDEF: 2)
     70c:	000d0efb 	strdeq	r0, [sp], -fp
     710:	01010101 	tsteq	r1, r1, lsl #2
     714:	01000000 	mrseq	r0, (UNDEF: 0)
     718:	63010000 	movwvs	r0, #4096	; 0x1000
     71c:	30343173 	eorscc	r3, r4, r3, ror r1
     720:	72732d65 	rsbsvc	r2, r3, #6464	; 0x1940
     724:	552f0063 	strpl	r0, [pc, #-99]!	; 6c9 <_start-0x7937>
     728:	73726573 	cmnvc	r2, #482344960	; 0x1cc00000
     72c:	6972622f 	ldmdbvs	r2!, {r0, r1, r2, r3, r5, r9, sp, lr}^
     730:	756a6e61 	strbvc	r6, [sl, #-3681]!	; 0xe61
     734:	65442f6e 	strbvs	r2, [r4, #-3950]	; 0xf6e
     738:	6f746b73 	svcvs	0x00746b73
     73c:	63732f70 	cmnvs	r3, #112, 30	; 0x1c0
     740:	6c6f6f68 	stclvs	15, cr6, [pc], #-416	; 5a8 <_start-0x7a58>
     744:	6e69572f 	cdpvs	7, 6, cr5, cr9, cr15, {1}
     748:	31726574 	cmncc	r2, r4, ror r5
     74c:	2f303239 	svccs	0x00303239
     750:	34315343 	ldrtcc	r5, [r1], #-835	; 0x343
     754:	632f4530 	teqvs	pc, #48, 10	; 0xc000000
     758:	30343173 	eorscc	r3, r4, r3, ror r1
     75c:	30322d65 	eorscc	r2, r2, r5, ror #26
     760:	2f6e6977 	svccs	0x006e6977
     764:	7062696c 	rsbvc	r6, r2, ip, ror #18
     768:	72000069 	andvc	r0, r0, #105	; 0x69
     76c:	6f6f6265 	svcvs	0x006f6265
     770:	00632e74 	rsbeq	r2, r3, r4, ror lr
     774:	72000001 	andvc	r0, r0, #1
     778:	682e6970 	stmdavs	lr!, {r4, r5, r6, r8, fp, sp, lr}
     77c:	00000200 	andeq	r0, r0, r0, lsl #4
     780:	02050000 	andeq	r0, r5, #0
     784:	00008810 	andeq	r8, r0, r0, lsl r8
     788:	14010d03 	strne	r0, [r1], #-3331	; 0xd03
     78c:	15852f31 	strne	r2, [r5, #3889]	; 0xf31
     790:	2f4d4b2f 	svccs	0x004d4b2f
     794:	67523567 	ldrbvs	r3, [r2, -r7, ror #10]
     798:	01001002 	tsteq	r0, r2
     79c:	0000a301 	andeq	sl, r0, r1, lsl #6
     7a0:	76000200 	strvc	r0, [r0], -r0, lsl #4
     7a4:	02000000 	andeq	r0, r0, #0
     7a8:	0d0efb01 	vstreq	d15, [lr, #-4]
     7ac:	01010100 	mrseq	r0, (UNDEF: 17)
     7b0:	00000001 	andeq	r0, r0, r1
     7b4:	01000001 	tsteq	r0, r1
     7b8:	34317363 	ldrtcc	r7, [r1], #-867	; 0x363
     7bc:	732d6530 	teqvc	sp, #48, 10	; 0xc000000
     7c0:	2f006372 	svccs	0x00006372
     7c4:	72657355 	rsbvc	r7, r5, #1409286145	; 0x54000001
     7c8:	72622f73 	rsbvc	r2, r2, #460	; 0x1cc
     7cc:	6a6e6169 	bvs	1b98d78 <__bss_end__+0x1b8eed0>
     7d0:	442f6e75 	strtmi	r6, [pc], #-3701	; 7d8 <_start-0x7828>
     7d4:	746b7365 	strbtvc	r7, [fp], #-869	; 0x365
     7d8:	732f706f 	teqvc	pc, #111	; 0x6f
     7dc:	6f6f6863 	svcvs	0x006f6863
     7e0:	69572f6c 	ldmdbvs	r7, {r2, r3, r5, r6, r8, r9, sl, fp, sp}^
     7e4:	7265746e 	rsbvc	r7, r5, #1845493760	; 0x6e000000
     7e8:	30323931 	eorscc	r3, r2, r1, lsr r9
     7ec:	3153432f 	cmpcc	r3, pc, lsr #6
     7f0:	2f453034 	svccs	0x00453034
     7f4:	34317363 	ldrtcc	r7, [r1], #-867	; 0x363
     7f8:	322d6530 	eorcc	r6, sp, #48, 10	; 0xc000000
     7fc:	6e697730 	mcrvs	7, 3, r7, cr9, cr0, {1}
     800:	62696c2f 	rsbvs	r6, r9, #12032	; 0x2f00
     804:	00006970 	andeq	r6, r0, r0, ror r9
     808:	656d6974 	strbvs	r6, [sp, #-2420]!	; 0x974
     80c:	00632e72 	rsbeq	r2, r3, r2, ror lr
     810:	72000001 	andvc	r0, r0, #1
     814:	682e6970 	stmdavs	lr!, {r4, r5, r6, r8, fp, sp, lr}
     818:	00000200 	andeq	r0, r0, r0, lsl #4
     81c:	02050000 	andeq	r0, r5, #0
     820:	00008884 	andeq	r8, r0, r4, lsl #17
     824:	2d2f1316 	stccs	3, cr1, [pc, #-88]!	; 7d4 <_start-0x782c>
     828:	01040200 	mrseq	r0, R12_usr
     82c:	68062e06 	stmdavs	r6, {r1, r2, r9, sl, fp, sp}
     830:	4d4b2f31 	stclmi	15, cr2, [fp, #-196]	; 0xffffff3c
     834:	4b303132 	blmi	c0cd04 <__bss_end__+0xc02e5c>
     838:	2f6a2f4c 	svccs	0x006a2f4c
     83c:	022f842f 	eoreq	r8, pc, #788529152	; 0x2f000000
     840:	01010008 	tsteq	r1, r8
     844:	00000349 	andeq	r0, r0, r9, asr #6
     848:	01bd0002 			; <UNDEFINED> instruction: 0x01bd0002
     84c:	01020000 	mrseq	r0, (UNDEF: 2)
     850:	000d0efb 	strdeq	r0, [sp], -fp
     854:	01010101 	tsteq	r1, r1, lsl #2
     858:	01000000 	mrseq	r0, (UNDEF: 0)
     85c:	6d010000 	stcvs	0, cr0, [r1, #-0]
     860:	72732d79 	rsbsvc	r2, r3, #7744	; 0x1e40
     864:	552f0063 	strpl	r0, [pc, #-99]!	; 809 <_start-0x77f7>
     868:	73726573 	cmnvc	r2, #482344960	; 0x1cc00000
     86c:	6972622f 	ldmdbvs	r2!, {r0, r1, r2, r3, r5, r9, sp, lr}^
     870:	756a6e61 	strbvc	r6, [sl, #-3681]!	; 0xe61
     874:	65442f6e 	strbvs	r2, [r4, #-3950]	; 0xf6e
     878:	6f746b73 	svcvs	0x00746b73
     87c:	63732f70 	cmnvs	r3, #112, 30	; 0x1c0
     880:	6c6f6f68 	stclvs	15, cr6, [pc], #-416	; 6e8 <_start-0x7918>
     884:	6e69572f 	cdpvs	7, 6, cr5, cr9, cr15, {1}
     888:	31726574 	cmncc	r2, r4, ror r5
     88c:	2f303239 	svccs	0x00303239
     890:	34315343 	ldrtcc	r5, [r1], #-835	; 0x343
     894:	632f4530 	teqvs	pc, #48, 10	; 0xc000000
     898:	30343173 	eorscc	r3, r4, r3, ror r1
     89c:	30322d65 	eorscc	r2, r2, r5, ror #26
     8a0:	2f6e6977 	svccs	0x006e6977
     8a4:	7062696c 	rsbvc	r6, r2, ip, ror #18
     8a8:	73632f69 	cmnvc	r3, #420	; 0x1a4
     8ac:	65303431 	ldrvs	r3, [r0, #-1073]!	; 0x431
     8b0:	6372732d 	cmnvs	r2, #-1275068416	; 0xb4000000
     8b4:	73752f00 	cmnvc	r5, #0, 30
     8b8:	6f6c2f72 	svcvs	0x006c2f72
     8bc:	2f6c6163 	svccs	0x006c6163
     8c0:	6c6c6543 	cfstr64vs	mvdx6, [ip], #-268	; 0xfffffef4
     8c4:	612f7261 	teqvs	pc, r1, ror #4
     8c8:	6e2d6d72 	mcrvs	13, 1, r6, cr13, cr2, {3}
     8cc:	2d656e6f 	stclcs	14, cr6, [r5, #-444]!	; 0xfffffe44
     8d0:	69626165 	stmdbvs	r2!, {r0, r2, r5, r6, r8, sp, lr}^
     8d4:	382e342f 	stmdacc	lr!, {r0, r1, r2, r3, r5, sl, ip, sp}
     8d8:	632d332e 	teqvs	sp, #-1207959552	; 0xb8000000
     8dc:	30373173 	eorscc	r3, r7, r3, ror r1
     8e0:	696c2f65 	stmdbvs	ip!, {r0, r2, r5, r6, r8, r9, sl, fp, sp}^
     8e4:	63672f62 	cmnvs	r7, #392	; 0x188
     8e8:	72612f63 	rsbvc	r2, r1, #396	; 0x18c
     8ec:	6f6e2d6d 	svcvs	0x006e2d6d
     8f0:	652d656e 	strvs	r6, [sp, #-1390]!	; 0x56e
     8f4:	2f696261 	svccs	0x00696261
     8f8:	2e382e34 	mrccs	14, 1, r2, cr8, cr4, {1}
     8fc:	6e692f33 	mcrvs	15, 3, r2, cr9, cr3, {1}
     900:	64756c63 	ldrbtvs	r6, [r5], #-3171	; 0xc63
     904:	552f0065 	strpl	r0, [pc, #-101]!	; 8a7 <_start-0x7759>
     908:	73726573 	cmnvc	r2, #482344960	; 0x1cc00000
     90c:	6972622f 	ldmdbvs	r2!, {r0, r1, r2, r3, r5, r9, sp, lr}^
     910:	756a6e61 	strbvc	r6, [sl, #-3681]!	; 0xe61
     914:	65442f6e 	strbvs	r2, [r4, #-3950]	; 0xf6e
     918:	6f746b73 	svcvs	0x00746b73
     91c:	63732f70 	cmnvs	r3, #112, 30	; 0x1c0
     920:	6c6f6f68 	stclvs	15, cr6, [pc], #-416	; 788 <_start-0x7878>
     924:	6e69572f 	cdpvs	7, 6, cr5, cr9, cr15, {1}
     928:	31726574 	cmncc	r2, r4, ror r5
     92c:	2f303239 	svccs	0x00303239
     930:	34315343 	ldrtcc	r5, [r1], #-835	; 0x343
     934:	632f4530 	teqvs	pc, #48, 10	; 0xc000000
     938:	30343173 	eorscc	r3, r4, r3, ror r1
     93c:	30322d65 	eorscc	r2, r2, r5, ror #26
     940:	2f6e6977 	svccs	0x006e6977
     944:	7062696c 	rsbvc	r6, r2, ip, ror #18
     948:	552f0069 	strpl	r0, [pc, #-105]!	; 8e7 <_start-0x7719>
     94c:	73726573 	cmnvc	r2, #482344960	; 0x1cc00000
     950:	6972622f 	ldmdbvs	r2!, {r0, r1, r2, r3, r5, r9, sp, lr}^
     954:	756a6e61 	strbvc	r6, [sl, #-3681]!	; 0xe61
     958:	65442f6e 	strbvs	r2, [r4, #-3950]	; 0xf6e
     95c:	6f746b73 	svcvs	0x00746b73
     960:	63732f70 	cmnvs	r3, #112, 30	; 0x1c0
     964:	6c6f6f68 	stclvs	15, cr6, [pc], #-416	; 7cc <_start-0x7834>
     968:	6e69572f 	cdpvs	7, 6, cr5, cr9, cr15, {1}
     96c:	31726574 	cmncc	r2, r4, ror r5
     970:	2f303239 	svccs	0x00303239
     974:	34315343 	ldrtcc	r5, [r1], #-835	; 0x343
     978:	632f4530 	teqvs	pc, #48, 10	; 0xc000000
     97c:	30343173 	eorscc	r3, r4, r3, ror r1
     980:	30322d65 	eorscc	r2, r2, r5, ror #26
     984:	2f6e6977 	svccs	0x006e6977
     988:	7062696c 	rsbvc	r6, r2, ip, ror #18
     98c:	696c2f69 	stmdbvs	ip!, {r0, r3, r5, r6, r8, r9, sl, fp, sp}^
     990:	00006362 	andeq	r6, r0, r2, ror #6
     994:	752d7773 	strvc	r7, [sp, #-1907]!	; 0x773
     998:	2e747261 	cdpcs	2, 7, cr7, cr4, cr1, {3}
     99c:	00010063 	andeq	r0, r1, r3, rrx
     9a0:	63796300 	cmnvs	r9, #0, 6
     9a4:	752d656c 	strvc	r6, [sp, #-1388]!	; 0x56c
     9a8:	2e6c6974 	mcrcs	9, 3, r6, cr12, cr4, {3}
     9ac:	00020068 	andeq	r0, r2, r8, rrx
     9b0:	64747300 	ldrbtvs	r7, [r4], #-768	; 0x300
     9b4:	2d746e69 	ldclcs	14, cr6, [r4, #-420]!	; 0xfffffe5c
     9b8:	2e636367 	cdpcs	3, 6, cr6, cr3, cr7, {3}
     9bc:	00030068 	andeq	r0, r3, r8, rrx
     9c0:	2d777300 	ldclcs	3, cr7, [r7, #-0]
     9c4:	74726175 	ldrbtvc	r6, [r2], #-373	; 0x175
     9c8:	0200682e 	andeq	r6, r0, #3014656	; 0x2e0000
     9cc:	74730000 	ldrbtvc	r0, [r3], #-0
     9d0:	67726164 	ldrbvs	r6, [r2, -r4, ror #2]!
     9d4:	0300682e 	movweq	r6, #2094	; 0x82e
     9d8:	70670000 	rsbvc	r0, r7, r0
     9dc:	682e6f69 	stmdavs	lr!, {r0, r3, r5, r6, r8, r9, sl, fp, sp, lr}
     9e0:	00000200 	andeq	r0, r0, r0, lsl #4
     9e4:	2e697072 	mcrcs	0, 3, r7, cr9, cr2, {3}
     9e8:	00040068 	andeq	r0, r4, r8, rrx
     9ec:	2d617600 	stclcs	6, cr7, [r1, #-0]
     9f0:	6e697270 	mcrvs	2, 3, r7, cr9, cr0, {3}
     9f4:	682e6b74 	stmdavs	lr!, {r2, r4, r5, r6, r8, r9, fp, sp, lr}
     9f8:	00000500 	andeq	r0, r0, r0, lsl #10
     9fc:	6975623c 	ldmdbvs	r5!, {r2, r3, r4, r5, r9, sp, lr}^
     a00:	692d746c 	pushvs	{r2, r3, r5, r6, sl, ip, sp, lr}
     a04:	00003e6e 	andeq	r3, r0, lr, ror #28
     a08:	00000000 	andeq	r0, r0, r0
     a0c:	890c0205 	stmdbhi	ip, {r0, r2, r9}
     a10:	4c1a0000 	ldcmi	0, cr0, [sl], {-0}
     a14:	0204302f 	andeq	r3, r4, #47	; 0x2f
     a18:	032e0b03 	teqeq	lr, #3072	; 0xc00
     a1c:	01046673 	tsteq	r4, r3, ror r6
     a20:	35020488 	strcc	r0, [r2, #-1160]	; 0x488
     a24:	04667303 	strbteq	r7, [r6], #-771	; 0x303
     a28:	02048a01 	andeq	r8, r4, #4096	; 0x1000
     a2c:	66730333 			; <UNDEFINED> instruction: 0x66730333
     a30:	0a030104 	beq	c0e48 <__bss_end__+0xb6fa0>
     a34:	31020482 	smlabbcc	r2, r2, r4, r0
     a38:	04667303 	strbteq	r7, [r6], #-771	; 0x303
     a3c:	820c0301 	andhi	r0, ip, #67108864	; 0x4000000
     a40:	032f0204 	teqeq	pc, #4, 4	; 0x40000000
     a44:	01046673 	tsteq	r4, r3, ror r6
     a48:	04820e03 	streq	r0, [r2], #3587	; 0xe03
     a4c:	73032d02 	movwvc	r2, #15618	; 0x3d02
     a50:	03010466 	movweq	r0, #5222	; 0x1466
     a54:	02048210 	andeq	r8, r4, #16, 4
     a58:	6673032b 	ldrbtvs	r0, [r3], -fp, lsr #6
     a5c:	12030104 	andne	r0, r3, #4, 2
     a60:	29020482 	stmdbcs	r2, {r1, r7, sl}
     a64:	04667303 	strbteq	r7, [r6], #-771	; 0x303
     a68:	82140301 	andshi	r0, r4, #67108864	; 0x4000000
     a6c:	79030204 	stmdbvc	r3, {r2, r9}
     a70:	6673032e 	ldrbtvs	r0, [r3], -lr, lsr #6
     a74:	16030104 	strne	r0, [r3], -r4, lsl #2
     a78:	03020482 	movweq	r0, #9346	; 0x2482
     a7c:	73032e77 	movwvc	r2, #15991	; 0x3e77
     a80:	03010466 	movweq	r0, #5222	; 0x1466
     a84:	10038218 	andne	r8, r3, r8, lsl r2
     a88:	034d4b2e 	movteq	r4, #56110	; 0xdb2e
     a8c:	844c2e70 	strbhi	r2, [ip], #-3696	; 0xe70
     a90:	0d034883 	stceq	8, cr4, [r3, #-524]	; 0xfffffdf4
     a94:	33314e2e 	teqcc	r1, #736	; 0x2e0
     a98:	48030204 	stmdami	r3, {r2, r9}
     a9c:	0301042e 	movweq	r0, #5166	; 0x142e
     aa0:	042f823a 	strteq	r8, [pc], #-570	; aa8 <_start-0x7558>
     aa4:	66450302 	strbvs	r0, [r5], -r2, lsl #6
     aa8:	3d030104 	stfccs	f0, [r3, #-16]
     aac:	02042f82 	andeq	r2, r4, #520	; 0x208
     ab0:	04824203 	streq	r4, [r2], #515	; 0x203
     ab4:	00c00301 	sbceq	r0, r0, r1, lsl #6
     ab8:	02042f82 	andeq	r2, r4, #520	; 0x208
     abc:	827fbf03 	rsbshi	fp, pc, #3, 30
     ac0:	c3030104 	movwgt	r0, #12548	; 0x3104
     ac4:	042f8200 	strteq	r8, [pc], #-512	; acc <_start-0x7534>
     ac8:	7fbc0302 	svcvc	0x00bc0302
     acc:	03010482 	movweq	r0, #5250	; 0x1482
     ad0:	2f8200c6 	svccs	0x008200c6
     ad4:	b9030204 	stmdblt	r3, {r2, r9}
     ad8:	0104827f 	tsteq	r4, pc, ror r2
     adc:	8200c903 	andhi	ip, r0, #49152	; 0xc000
     ae0:	0302042f 	movweq	r0, #9263	; 0x242f
     ae4:	04827fb6 	streq	r7, [r2], #4022	; 0xfb6
     ae8:	00cc0301 	sbceq	r0, ip, r1, lsl #6
     aec:	02042f82 	andeq	r2, r4, #520	; 0x208
     af0:	827fb303 	rsbshi	fp, pc, #201326592	; 0xc000000
     af4:	d0030104 	andle	r0, r3, r4, lsl #2
     af8:	4c038200 	sfmmi	f0, 1, [r3], {-0}
     afc:	83844c82 	orrhi	r4, r4, #33280	; 0x8200
     b00:	2e360348 	cdpcs	3, 3, cr0, cr6, cr8, {2}
     b04:	4a54034e 	bmi	1501844 <__bss_end__+0x14f799c>
     b08:	324a2903 	subcc	r2, sl, #49152	; 0xc000
     b0c:	0200bb34 	andeq	fp, r0, #52, 22	; 0xd000
     b10:	4a060104 	bmi	180f28 <__bss_end__+0x177080>
     b14:	4e210806 	cdpmi	8, 2, cr0, cr1, cr6, {0}
     b18:	002cbb4b 	eoreq	fp, ip, fp, asr #22
     b1c:	06010402 	streq	r0, [r1], -r2, lsl #8
     b20:	4c6d062e 	stclmi	6, cr0, [sp], #-184	; 0xffffff48
     b24:	0200a0dc 	andeq	sl, r0, #220	; 0xdc
     b28:	4a060104 	bmi	180f40 <__bss_end__+0x177098>
     b2c:	4d210806 	stcmi	8, cr0, [r1, #-24]!	; 0xffffffe8
     b30:	02040200 	andeq	r0, r4, #0, 4
     b34:	0402004b 	streq	r0, [r2], #-75	; 0x4b
     b38:	02008102 	andeq	r8, r0, #-2147483648	; 0x80000000
     b3c:	2e060104 	adfcss	f0, f6, f4
     b40:	dd4c4d06 	stclle	13, cr4, [ip, #-24]	; 0xffffffe8
     b44:	4b4b4bd8 	blmi	12d3aac <__bss_end__+0x12c9c04>
     b48:	02002f6a 	andeq	r2, r0, #424	; 0x1a8
     b4c:	82060104 	andhi	r0, r6, #4, 2
     b50:	04020082 	streq	r0, [r2], #-130	; 0x82
     b54:	02009e04 	andeq	r9, r0, #4, 28	; 0x40
     b58:	064a0104 	strbeq	r0, [sl], -r4, lsl #2
     b5c:	f5882308 			; <UNDEFINED> instruction: 0xf5882308
     b60:	084b4b2f 	stmdaeq	fp, {r0, r1, r2, r3, r5, r8, r9, fp, lr}^
     b64:	02006740 	andeq	r6, r0, #64, 14	; 0x1000000
     b68:	002f0204 	eoreq	r0, pc, r4, lsl #4
     b6c:	49020402 	stmdbmi	r2, {r1, sl}
     b70:	01040200 	mrseq	r0, R12_usr
     b74:	68062e06 	stmdavs	r6, {r1, r2, r9, sl, fp, sp}
     b78:	a04b8634 	subge	r8, fp, r4, lsr r6
     b7c:	01040200 	mrseq	r0, R12_usr
     b80:	08066606 	stmdaeq	r6, {r1, r2, r9, sl, sp, lr}
     b84:	3e086821 	cdpcc	8, 0, cr6, cr8, cr1, {1}
     b88:	d84b674b 	stmdale	fp, {r0, r1, r3, r6, r8, r9, sl, sp, lr}^
     b8c:	01000a02 	tsteq	r0, r2, lsl #20
     b90:	00010101 	andeq	r0, r1, r1, lsl #2
     b94:	ca000200 	bgt	139c <_start-0x6c64>
     b98:	02000000 	andeq	r0, r0, #0
     b9c:	0d0efb01 	vstreq	d15, [lr, #-4]
     ba0:	01010100 	mrseq	r0, (UNDEF: 17)
     ba4:	00000001 	andeq	r0, r0, r1
     ba8:	01000001 	tsteq	r0, r1
     bac:	732d796d 	teqvc	sp, #1785856	; 0x1b4000
     bb0:	2f006372 	svccs	0x00006372
     bb4:	72657355 	rsbvc	r7, r5, #1409286145	; 0x54000001
     bb8:	72622f73 	rsbvc	r2, r2, #460	; 0x1cc
     bbc:	6a6e6169 	bvs	1b99168 <__bss_end__+0x1b8f2c0>
     bc0:	442f6e75 	strtmi	r6, [pc], #-3701	; bc8 <_start-0x7438>
     bc4:	746b7365 	strbtvc	r7, [fp], #-869	; 0x365
     bc8:	732f706f 	teqvc	pc, #111	; 0x6f
     bcc:	6f6f6863 	svcvs	0x006f6863
     bd0:	69572f6c 	ldmdbvs	r7, {r2, r3, r5, r6, r8, r9, sl, fp, sp}^
     bd4:	7265746e 	rsbvc	r7, r5, #1845493760	; 0x6e000000
     bd8:	30323931 	eorscc	r3, r2, r1, lsr r9
     bdc:	3153432f 	cmpcc	r3, pc, lsr #6
     be0:	2f453034 	svccs	0x00453034
     be4:	34317363 	ldrtcc	r7, [r1], #-867	; 0x363
     be8:	322d6530 	eorcc	r6, sp, #48, 10	; 0xc000000
     bec:	6e697730 	mcrvs	7, 3, r7, cr9, cr0, {1}
     bf0:	62696c2f 	rsbvs	r6, r9, #12032	; 0x2f00
     bf4:	632f6970 	teqvs	pc, #112, 18	; 0x1c0000
     bf8:	30343173 	eorscc	r3, r4, r3, ror r1
     bfc:	72732d65 	rsbsvc	r2, r3, #6464	; 0x1940
     c00:	552f0063 	strpl	r0, [pc, #-99]!	; ba5 <_start-0x745b>
     c04:	73726573 	cmnvc	r2, #482344960	; 0x1cc00000
     c08:	6972622f 	ldmdbvs	r2!, {r0, r1, r2, r3, r5, r9, sp, lr}^
     c0c:	756a6e61 	strbvc	r6, [sl, #-3681]!	; 0xe61
     c10:	65442f6e 	strbvs	r2, [r4, #-3950]	; 0xf6e
     c14:	6f746b73 	svcvs	0x00746b73
     c18:	63732f70 	cmnvs	r3, #112, 30	; 0x1c0
     c1c:	6c6f6f68 	stclvs	15, cr6, [pc], #-416	; a84 <_start-0x757c>
     c20:	6e69572f 	cdpvs	7, 6, cr5, cr9, cr15, {1}
     c24:	31726574 	cmncc	r2, r4, ror r5
     c28:	2f303239 	svccs	0x00303239
     c2c:	34315343 	ldrtcc	r5, [r1], #-835	; 0x343
     c30:	632f4530 	teqvs	pc, #48, 10	; 0xc000000
     c34:	30343173 	eorscc	r3, r4, r3, ror r1
     c38:	30322d65 	eorscc	r2, r2, r5, ror #26
     c3c:	2f6e6977 	svccs	0x006e6977
     c40:	7062696c 	rsbvc	r6, r2, ip, ror #18
     c44:	75000069 	strvc	r0, [r0, #-105]	; 0x69
     c48:	2e747261 	cdpcs	2, 7, cr7, cr4, cr1, {3}
     c4c:	00010063 	andeq	r0, r1, r3, rrx
     c50:	69706700 	ldmdbvs	r0!, {r8, r9, sl, sp, lr}^
     c54:	00682e6f 	rsbeq	r2, r8, pc, ror #28
     c58:	72000002 	andvc	r0, r0, #2
     c5c:	682e6970 	stmdavs	lr!, {r4, r5, r6, r8, fp, sp, lr}
     c60:	00000300 	andeq	r0, r0, r0, lsl #6
     c64:	02050000 	andeq	r0, r5, #0
     c68:	00008f74 	andeq	r8, r0, r4, ror pc
     c6c:	30013603 	andcc	r3, r1, r3, lsl #12
     c70:	306d6733 	rsbcc	r6, sp, r3, lsr r7
     c74:	676730d8 			; <UNDEFINED> instruction: 0x676730d8
     c78:	68676767 	stmdavs	r7!, {r0, r1, r2, r5, r6, r8, r9, sl, sp, lr}^
     c7c:	6a672f86 	bvs	19cca9c <__bss_end__+0x19c2bf4>
     c80:	69676730 	stmdbvs	r7!, {r4, r5, r8, r9, sl, sp, lr}^
     c84:	4c6a672f 	stclmi	7, cr6, [sl], #-188	; 0xffffff44
     c88:	2f2fc167 	svccs	0x002fc167
     c8c:	49682f30 	stmdbmi	r8!, {r4, r5, r8, r9, sl, fp, sp}^
     c90:	00020230 	andeq	r0, r2, r0, lsr r2
     c94:	017f0101 	cmneq	pc, r1, lsl #2
     c98:	00020000 	andeq	r0, r2, r0
     c9c:	000000ca 	andeq	r0, r0, sl, asr #1
     ca0:	0efb0102 	cdpeq	1, 15, cr0, cr11, cr2, {0}
     ca4:	0101000d 	tsteq	r1, sp
     ca8:	00000101 	andeq	r0, r0, r1, lsl #2
     cac:	00000100 	andeq	r0, r0, r0, lsl #2
     cb0:	2d796d01 	ldclcs	13, cr6, [r9, #-4]!
     cb4:	00637273 	rsbeq	r7, r3, r3, ror r2
     cb8:	6573552f 	ldrbvs	r5, [r3, #-1327]!	; 0x52f
     cbc:	622f7372 	eorvs	r7, pc, #-939524095	; 0xc8000001
     cc0:	6e616972 	mcrvs	9, 3, r6, cr1, cr2, {3}
     cc4:	2f6e756a 	svccs	0x006e756a
     cc8:	6b736544 	blvs	1cda1e0 <__bss_end__+0x1cd0338>
     ccc:	2f706f74 	svccs	0x00706f74
     cd0:	6f686373 	svcvs	0x00686373
     cd4:	572f6c6f 	strpl	r6, [pc, -pc, ror #24]!
     cd8:	65746e69 	ldrbvs	r6, [r4, #-3689]!	; 0xe69
     cdc:	32393172 	eorscc	r3, r9, #-2147483620	; 0x8000001c
     ce0:	53432f30 	movtpl	r2, #16176	; 0x3f30
     ce4:	45303431 	ldrmi	r3, [r0, #-1073]!	; 0x431
     ce8:	3173632f 	cmncc	r3, pc, lsr #6
     cec:	2d653034 	stclcs	0, cr3, [r5, #-208]!	; 0xffffff30
     cf0:	69773032 	ldmdbvs	r7!, {r1, r4, r5, ip, sp}^
     cf4:	696c2f6e 	stmdbvs	ip!, {r1, r2, r3, r5, r6, r8, r9, sl, fp, sp}^
     cf8:	2f697062 	svccs	0x00697062
     cfc:	34317363 	ldrtcc	r7, [r1], #-867	; 0x363
     d00:	732d6530 	teqvc	sp, #48, 10	; 0xc000000
     d04:	2f006372 	svccs	0x00006372
     d08:	72657355 	rsbvc	r7, r5, #1409286145	; 0x54000001
     d0c:	72622f73 	rsbvc	r2, r2, #460	; 0x1cc
     d10:	6a6e6169 	bvs	1b992bc <__bss_end__+0x1b8f414>
     d14:	442f6e75 	strtmi	r6, [pc], #-3701	; d1c <_start-0x72e4>
     d18:	746b7365 	strbtvc	r7, [fp], #-869	; 0x365
     d1c:	732f706f 	teqvc	pc, #111	; 0x6f
     d20:	6f6f6863 	svcvs	0x006f6863
     d24:	69572f6c 	ldmdbvs	r7, {r2, r3, r5, r6, r8, r9, sl, fp, sp}^
     d28:	7265746e 	rsbvc	r7, r5, #1845493760	; 0x6e000000
     d2c:	30323931 	eorscc	r3, r2, r1, lsr r9
     d30:	3153432f 	cmpcc	r3, pc, lsr #6
     d34:	2f453034 	svccs	0x00453034
     d38:	34317363 	ldrtcc	r7, [r1], #-867	; 0x363
     d3c:	322d6530 	eorcc	r6, sp, #48, 10	; 0xc000000
     d40:	6e697730 	mcrvs	7, 3, r7, cr9, cr0, {1}
     d44:	62696c2f 	rsbvs	r6, r9, #12032	; 0x2f00
     d48:	00006970 	andeq	r6, r0, r0, ror r9
     d4c:	6f697067 	svcvs	0x00697067
     d50:	0100632e 	tsteq	r0, lr, lsr #6
     d54:	70670000 	rsbvc	r0, r7, r0
     d58:	682e6f69 	stmdavs	lr!, {r0, r3, r5, r6, r8, r9, sl, fp, sp, lr}
     d5c:	00000200 	andeq	r0, r0, r0, lsl #4
     d60:	2e697072 	mcrcs	0, 3, r7, cr9, cr2, {3}
     d64:	00030068 	andeq	r0, r3, r8, rrx
     d68:	05000000 	streq	r0, [r0, #-0]
     d6c:	00912c02 	addseq	r2, r1, r2, lsl #24
     d70:	013e0300 	teqeq	lr, r0, lsl #6
     d74:	0869504e 	stmdaeq	r9!, {r1, r2, r3, r6, ip, lr}^
     d78:	67676721 	strbvs	r6, [r7, -r1, lsr #14]!
     d7c:	32676767 	rsbcc	r6, r7, #27000832	; 0x19c0000
     d80:	dc22084b 	stcle	8, cr0, [r2], #-300	; 0xfffffed4
     d84:	4e135131 	mrcmi	1, 0, r5, cr3, cr1, {1}
     d88:	31be3050 			; <UNDEFINED> instruction: 0x31be3050
     d8c:	4f4d1350 	svcmi	0x004d1350
     d90:	504cc030 	subpl	ip, ip, r0, lsr r0
     d94:	67210869 	strvs	r0, [r1, -r9, ror #16]!
     d98:	67676767 	strbvs	r6, [r7, -r7, ror #14]!
     d9c:	084b3267 	stmdaeq	fp, {r0, r1, r2, r5, r6, r9, ip, sp}^
     da0:	504ca421 	subpl	sl, ip, r1, lsr #8
     da4:	0369842f 	cmneq	r9, #788529152	; 0x2f000000
     da8:	0c038275 	sfmeq	f0, 1, [r3], {117}	; 0x75
     dac:	4e304d2e 	cdpmi	13, 3, cr4, cr0, cr14, {1}
     db0:	6a4d4c4b 	bvs	1353ee4 <__bss_end__+0x134a03c>
     db4:	2108696b 	tstcs	r8, fp, ror #18
     db8:	67676767 	strbvs	r6, [r7, -r7, ror #14]!
     dbc:	4b326767 	blmi	c9ab60 <__bss_end__+0xc90cb8>
     dc0:	30c02208 	sbccc	r2, r0, r8, lsl #4
     dc4:	504e1351 	subpl	r1, lr, r1, asr r3
     dc8:	ba180330 	blt	601a90 <__bss_end__+0x5f7be8>
     dcc:	2f4c9f31 	svccs	0x004c9f31
     dd0:	2f4e4d52 	svccs	0x004e4d52
     dd4:	684b674b 	stmdavs	fp, {r0, r1, r3, r6, r8, r9, sl, sp, lr}^
     dd8:	2f4c6767 	svccs	0x004c6767
     ddc:	6e4b2f67 	cdpvs	15, 4, cr2, cr11, cr7, {3}
     de0:	4b2f4e4c 	blmi	bd4718 <__bss_end__+0xbca870>
     de4:	67684b67 	strbvs	r4, [r8, -r7, ror #22]!
     de8:	672f4c67 	strvs	r4, [pc, -r7, ror #24]!
     dec:	4b6d4b2f 	blmi	1b53ab0 <__bss_end__+0x1b49c08>
     df0:	674b2f4e 	strbvs	r2, [fp, -lr, asr #30]
     df4:	01040200 	mrseq	r0, R12_usr
     df8:	68066606 	stmdavs	r6, {r1, r2, r9, sl, sp, lr}
     dfc:	02002f9f 	andeq	r2, r0, #636	; 0x27c
     e00:	4a060104 	bmi	181218 <__bss_end__+0x177370>
     e04:	032f6806 	teqeq	pc, #393216	; 0x60000
     e08:	0e034a73 	mcreq	10, 0, r4, cr3, cr3, {3}
     e0c:	4e4c4d2e 	cdpmi	13, 4, cr4, cr12, cr14, {1}
     e10:	bcbc4b2f 	fldmiaxlt	ip!, {d4-d26}	;@ Deprecated
     e14:	01000602 	tsteq	r0, r2, lsl #12
     e18:	00012801 	andeq	r2, r1, r1, lsl #16
     e1c:	0d000200 	sfmeq	f0, 4, [r0, #-0]
     e20:	02000001 	andeq	r0, r0, #1
     e24:	0d0efb01 	vstreq	d15, [lr, #-4]
     e28:	01010100 	mrseq	r0, (UNDEF: 17)
     e2c:	00000001 	andeq	r0, r0, r1
     e30:	01000001 	tsteq	r0, r1
     e34:	34317363 	ldrtcc	r7, [r1], #-867	; 0x363
     e38:	732d6530 	teqvc	sp, #48, 10	; 0xc000000
     e3c:	2f006372 	svccs	0x00006372
     e40:	2f727375 	svccs	0x00727375
     e44:	61636f6c 	cmnvs	r3, ip, ror #30
     e48:	65432f6c 	strbvs	r2, [r3, #-3948]	; 0xf6c
     e4c:	72616c6c 	rsbvc	r6, r1, #108, 24	; 0x6c00
     e50:	6d72612f 	ldfvse	f6, [r2, #-188]!	; 0xffffff44
     e54:	6e6f6e2d 	cdpvs	14, 6, cr6, cr15, cr13, {1}
     e58:	61652d65 	cmnvs	r5, r5, ror #26
     e5c:	342f6962 	strtcc	r6, [pc], #-2402	; e64 <_start-0x719c>
     e60:	332e382e 	teqcc	lr, #3014656	; 0x2e0000
     e64:	3173632d 	cmncc	r3, sp, lsr #6
     e68:	2f653037 	svccs	0x00653037
     e6c:	2f62696c 	svccs	0x0062696c
     e70:	2f636367 	svccs	0x00636367
     e74:	2d6d7261 	sfmcs	f7, 2, [sp, #-388]!	; 0xfffffe7c
     e78:	656e6f6e 	strbvs	r6, [lr, #-3950]!	; 0xf6e
     e7c:	6261652d 	rsbvs	r6, r1, #188743680	; 0xb400000
     e80:	2e342f69 	cdpcs	15, 3, cr2, cr4, cr9, {3}
     e84:	2f332e38 	svccs	0x00332e38
     e88:	6c636e69 	stclvs	14, cr6, [r3], #-420	; 0xfffffe5c
     e8c:	00656475 	rsbeq	r6, r5, r5, ror r4
     e90:	7273752f 	rsbsvc	r7, r3, #197132288	; 0xbc00000
     e94:	636f6c2f 	cmnvs	pc, #12032	; 0x2f00
     e98:	432f6c61 	teqmi	pc, #24832	; 0x6100
     e9c:	616c6c65 	cmnvs	ip, r5, ror #24
     ea0:	72612f72 	rsbvc	r2, r1, #456	; 0x1c8
     ea4:	6f6e2d6d 	svcvs	0x006e2d6d
     ea8:	652d656e 	strvs	r6, [sp, #-1390]!	; 0x56e
     eac:	2f696261 	svccs	0x00696261
     eb0:	2e382e34 	mrccs	14, 1, r2, cr8, cr4, {1}
     eb4:	73632d33 	cmnvc	r3, #3264	; 0xcc0
     eb8:	65303731 	ldrvs	r3, [r0, #-1841]!	; 0x731
     ebc:	6d72612f 	ldfvse	f6, [r2, #-188]!	; 0xffffff44
     ec0:	6e6f6e2d 	cdpvs	14, 6, cr6, cr15, cr13, {1}
     ec4:	61652d65 	cmnvs	r5, r5, ror #26
     ec8:	692f6962 	stmdbvs	pc!, {r1, r5, r6, r8, fp, sp, lr}	; <UNPREDICTABLE>
     ecc:	756c636e 	strbvc	r6, [ip, #-878]!	; 0x36e
     ed0:	00006564 	andeq	r6, r0, r4, ror #10
     ed4:	746e6f63 	strbtvc	r6, [lr], #-3939	; 0xf63
     ed8:	2d6c6f72 	stclcs	15, cr6, [ip, #-456]!	; 0xfffffe38
     edc:	636f6c62 	cmnvs	pc, #25088	; 0x6200
     ee0:	00632e6b 	rsbeq	r2, r3, fp, ror #28
     ee4:	73000001 	movwvc	r0, #1
     ee8:	65646474 	strbvs	r6, [r4, #-1140]!	; 0x474
     eec:	00682e66 	rsbeq	r2, r8, r6, ror #28
     ef0:	73000002 	movwvc	r0, #2
     ef4:	6e696474 	mcrvs	4, 3, r6, cr9, cr4, {3}
     ef8:	63672d74 	cmnvs	r7, #116, 26	; 0x1d00
     efc:	00682e63 	rsbeq	r2, r8, r3, ror #28
     f00:	73000002 	movwvc	r0, #2
     f04:	61752d77 	cmnvs	r5, r7, ror sp
     f08:	682e7472 	stmdavs	lr!, {r1, r4, r5, r6, sl, ip, sp, lr}
     f0c:	00000100 	andeq	r0, r0, r0, lsl #2
     f10:	746e6f63 	strbtvc	r6, [lr], #-3939	; 0xf63
     f14:	2d6c6f72 	stclcs	15, cr6, [ip, #-456]!	; 0xfffffe38
     f18:	636f6c62 	cmnvs	pc, #25088	; 0x6200
     f1c:	00682e6b 	rsbeq	r2, r8, fp, ror #28
     f20:	73000001 	movwvc	r0, #1
     f24:	6e697274 	mcrvs	2, 3, r7, cr9, cr4, {3}
     f28:	00682e67 	rsbeq	r2, r8, r7, ror #28
     f2c:	00000003 	andeq	r0, r0, r3
     f30:	cc020500 	cfstr32gt	mvfx0, [r2], {-0}
     f34:	16000096 			; <UNDEFINED> instruction: 0x16000096
     f38:	4c688330 	stclmi	3, cr8, [r8], #-192	; 0xffffff40
     f3c:	2f4b9f14 	svccs	0x004b9f14
     f40:	01000402 	tsteq	r0, r2, lsl #8
     f44:	0000ec01 	andeq	lr, r0, r1, lsl #24
     f48:	d0000200 	andle	r0, r0, r0, lsl #4
     f4c:	02000000 	andeq	r0, r0, #0
     f50:	0d0efb01 	vstreq	d15, [lr, #-4]
     f54:	01010100 	mrseq	r0, (UNDEF: 17)
     f58:	00000001 	andeq	r0, r0, r1
     f5c:	01000001 	tsteq	r0, r1
     f60:	6362696c 	cmnvs	r2, #108, 18	; 0x1b0000
     f64:	73752f00 	cmnvc	r5, #0, 30
     f68:	6f6c2f72 	svcvs	0x006c2f72
     f6c:	2f6c6163 	svccs	0x006c6163
     f70:	6c6c6543 	cfstr64vs	mvdx6, [ip], #-268	; 0xfffffef4
     f74:	612f7261 	teqvs	pc, r1, ror #4
     f78:	6e2d6d72 	mcrvs	13, 1, r6, cr13, cr2, {3}
     f7c:	2d656e6f 	stclcs	14, cr6, [r5, #-444]!	; 0xfffffe44
     f80:	69626165 	stmdbvs	r2!, {r0, r2, r5, r6, r8, sp, lr}^
     f84:	382e342f 	stmdacc	lr!, {r0, r1, r2, r3, r5, sl, ip, sp}
     f88:	632d332e 	teqvs	sp, #-1207959552	; 0xb8000000
     f8c:	30373173 	eorscc	r3, r7, r3, ror r1
     f90:	696c2f65 	stmdbvs	ip!, {r0, r2, r5, r6, r8, r9, sl, fp, sp}^
     f94:	63672f62 	cmnvs	r7, #392	; 0x188
     f98:	72612f63 	rsbvc	r2, r1, #396	; 0x18c
     f9c:	6f6e2d6d 	svcvs	0x006e2d6d
     fa0:	652d656e 	strvs	r6, [sp, #-1390]!	; 0x56e
     fa4:	2f696261 	svccs	0x00696261
     fa8:	2e382e34 	mrccs	14, 1, r2, cr8, cr4, {1}
     fac:	6e692f33 	mcrvs	15, 3, r2, cr9, cr3, {1}
     fb0:	64756c63 	ldrbtvs	r6, [r5], #-3171	; 0xc63
     fb4:	752f0065 	strvc	r0, [pc, #-101]!	; f57 <_start-0x70a9>
     fb8:	6c2f7273 	sfmvs	f7, 4, [pc], #-460	; df4 <_start-0x720c>
     fbc:	6c61636f 	stclvs	3, cr6, [r1], #-444	; 0xfffffe44
     fc0:	6c65432f 	stclvs	3, cr4, [r5], #-188	; 0xffffff44
     fc4:	2f72616c 	svccs	0x0072616c
     fc8:	2d6d7261 	sfmcs	f7, 2, [sp, #-388]!	; 0xfffffe7c
     fcc:	656e6f6e 	strbvs	r6, [lr, #-3950]!	; 0xf6e
     fd0:	6261652d 	rsbvs	r6, r1, #188743680	; 0xb400000
     fd4:	2e342f69 	cdpcs	15, 3, cr2, cr4, cr9, {3}
     fd8:	2d332e38 	ldccs	14, cr2, [r3, #-224]!	; 0xffffff20
     fdc:	37317363 	ldrcc	r7, [r1, -r3, ror #6]!
     fe0:	612f6530 	teqvs	pc, r0, lsr r5	; <UNPREDICTABLE>
     fe4:	6e2d6d72 	mcrvs	13, 1, r6, cr13, cr2, {3}
     fe8:	2d656e6f 	stclcs	14, cr6, [r5, #-444]!	; 0xfffffe44
     fec:	69626165 	stmdbvs	r2!, {r0, r2, r5, r6, r8, sp, lr}^
     ff0:	636e692f 	cmnvs	lr, #770048	; 0xbc000
     ff4:	6564756c 	strbvs	r7, [r4, #-1388]!	; 0x56c
     ff8:	656d0000 	strbvs	r0, [sp, #-0]!
     ffc:	7465736d 	strbtvc	r7, [r5], #-877	; 0x36d
    1000:	0100632e 	tsteq	r0, lr, lsr #6
    1004:	74730000 	ldrbtvc	r0, [r3], #-0
    1008:	66656464 	strbtvs	r6, [r5], -r4, ror #8
    100c:	0200682e 	andeq	r6, r0, #3014656	; 0x2e0000
    1010:	74730000 	ldrbtvc	r0, [r3], #-0
    1014:	676e6972 			; <UNDEFINED> instruction: 0x676e6972
    1018:	0300682e 	movweq	r6, #2094	; 0x82e
    101c:	00000000 	andeq	r0, r0, r0
    1020:	971c0205 	ldrls	r0, [ip, -r5, lsl #4]
    1024:	13140000 	tstne	r4, #0
    1028:	02002f4c 	andeq	r2, r0, #76, 30	; 0x130
    102c:	4d490104 	stfmie	f0, [r9, #-16]
    1030:	01000202 	tsteq	r0, r2, lsl #4
    1034:	Address 0x0000000000001034 is out of bounds.


Disassembly of section .debug_str:

00000000 <.debug_str>:
   0:	676e6f6c 	strbvs	r6, [lr, -ip, ror #30]!
   4:	6e6f6c20 	cdpvs	12, 6, cr6, cr15, cr0, {1}
   8:	6e692067 	cdpvs	0, 6, cr2, cr9, cr7, {3}
   c:	666f0074 			; <UNDEFINED> instruction: 0x666f0074
  10:	00632e66 	rsbeq	r2, r3, r6, ror #28
  14:	676e6f6c 	strbvs	r6, [lr, -ip, ror #30]!
  18:	6e6f6c20 	cdpvs	12, 6, cr6, cr15, cr0, {1}
  1c:	6e752067 	cdpvs	0, 7, cr2, cr5, cr7, {3}
  20:	6e676973 	mcrvs	9, 3, r6, cr7, cr3, {3}
  24:	69206465 	stmdbvs	r0!, {r0, r2, r5, r6, sl, sp, lr}
  28:	7500746e 	strvc	r7, [r0, #-1134]	; 0x46e
  2c:	6769736e 	strbvs	r7, [r9, -lr, ror #6]!
  30:	2064656e 	rsbcs	r6, r4, lr, ror #10
  34:	72616863 	rsbvc	r6, r1, #6488064	; 0x630000
  38:	72617500 	rsbvc	r7, r1, #0, 10
  3c:	6e695f74 	mcrvs	15, 3, r5, cr9, cr4, {3}
  40:	63007469 	movwvs	r7, #1129	; 0x469
  44:	6e61656c 	cdpvs	5, 6, cr6, cr1, cr12, {3}
  48:	6265725f 	rsbvs	r7, r5, #-268435451	; 0xf0000005
  4c:	00746f6f 	rsbseq	r6, r4, pc, ror #30
  50:	6d746f6e 	ldclvs	15, cr6, [r4, #-440]!	; 0xfffffe48
  54:	006e6961 	rsbeq	r6, lr, r1, ror #18
  58:	6573552f 	ldrbvs	r5, [r3, #-1327]!	; 0x52f
  5c:	622f7372 	eorvs	r7, pc, #-939524095	; 0xc8000001
  60:	6e616972 	mcrvs	9, 3, r6, cr1, cr2, {3}
  64:	2f6e756a 	svccs	0x006e756a
  68:	6b736544 	blvs	1cd9580 <__bss_end__+0x1ccf6d8>
  6c:	2f706f74 	svccs	0x00706f74
  70:	6f686373 	svcvs	0x00686373
  74:	532f6c6f 	teqpl	pc, #28416	; 0x6f00
  78:	6e697270 	mcrvs	2, 3, r7, cr9, cr0, {3}
  7c:	32393167 	eorscc	r3, r9, #-1073741799	; 0xc0000019
  80:	53432f30 	movtpl	r2, #16176	; 0x3f30
  84:	4c303432 	cfldrsmi	mvf3, [r0], #-200	; 0xffffff38
  88:	73632f58 	cmnvc	r3, #88, 30	; 0x160
  8c:	6c303432 	cfldrsvs	mvf3, [r0], #-200	; 0xffffff38
  90:	30322d78 	eorscc	r2, r2, r8, ror sp
  94:	2f727073 	svccs	0x00727073
  98:	7362616c 	cmnvc	r2, #108, 2
  9c:	642d362f 	strtvs	r3, [sp], #-1583	; 0x62f
  a0:	74696769 	strbtvc	r6, [r9], #-1897	; 0x769
  a4:	302f6c61 	eorcc	r6, pc, r1, ror #24
  a8:	6c75702d 	ldclvs	0, cr7, [r5], #-180	; 0xffffff4c
  ac:	2f70756c 	svccs	0x0070756c
  b0:	65646f63 	strbvs	r6, [r4, #-3939]!	; 0xf63
  b4:	6f687300 	svcvs	0x00687300
  b8:	75207472 	strvc	r7, [r0, #-1138]!	; 0x472
  bc:	6769736e 	strbvs	r7, [r9, -lr, ror #6]!
  c0:	2064656e 	rsbcs	r6, r4, lr, ror #10
  c4:	00746e69 	rsbseq	r6, r4, r9, ror #28
  c8:	726f6873 	rsbvc	r6, pc, #7536640	; 0x730000
  cc:	6e692074 	mcrvs	0, 3, r2, cr9, cr4, {3}
  d0:	70670074 	rsbvc	r0, r7, r4, ror r0
  d4:	705f6f69 	subsvc	r6, pc, r9, ror #30
  d8:	6f5f6475 	svcvs	0x005f6475
  dc:	47006666 	strmi	r6, [r0, -r6, ror #12]
  e0:	4320554e 	teqmi	r0, #327155712	; 0x13800000
  e4:	382e3420 	stmdacc	lr!, {r5, sl, ip, sp}
  e8:	2d20332e 	stccs	3, cr3, [r0, #-184]!	; 0xffffff48
  ec:	7570636d 	ldrbvc	r6, [r0, #-877]!	; 0x36d
  f0:	6d72613d 	ldfvse	f6, [r2, #-244]!	; 0xffffff0c
  f4:	36373131 			; <UNDEFINED> instruction: 0x36373131
  f8:	2d667a6a 	vstmdbcs	r6!, {s15-s120}
  fc:	6d2d2073 	stcvs	0, cr2, [sp, #-460]!	; 0xfffffe34
 100:	656e7574 	strbvs	r7, [lr, #-1396]!	; 0x574
 104:	6d72613d 	ldfvse	f6, [r2, #-244]!	; 0xffffff0c
 108:	36373131 			; <UNDEFINED> instruction: 0x36373131
 10c:	2d667a6a 	vstmdbcs	r6!, {s15-s120}
 110:	672d2073 			; <UNDEFINED> instruction: 0x672d2073
 114:	20626467 	rsbcs	r6, r2, r7, ror #8
 118:	20674f2d 	rsbcs	r4, r7, sp, lsr #30
 11c:	6474732d 	ldrbtvs	r7, [r4], #-813	; 0x32d
 120:	756e673d 	strbvc	r6, [lr, #-1853]!	; 0x73d
 124:	2d203939 	stccs	9, cr3, [r0, #-228]!	; 0xffffff1c
 128:	65726666 	ldrbvs	r6, [r2, #-1638]!	; 0x666
 12c:	61747365 	cmnvs	r4, r5, ror #6
 130:	6e69646e 	cdpvs	4, 6, cr6, cr9, cr14, {3}
 134:	662d2067 	strtvs	r2, [sp], -r7, rrx
 138:	67696c61 	strbvs	r6, [r9, -r1, ror #24]!
 13c:	75662d6e 	strbvc	r2, [r6, #-3438]!	; 0xd6e
 140:	6974636e 	ldmdbvs	r4!, {r1, r2, r3, r5, r6, r8, r9, sp, lr}^
 144:	3d736e6f 	ldclcc	14, cr6, [r3, #-444]!	; 0xfffffe44
 148:	69730034 	ldmdbvs	r3!, {r2, r4, r5}^
 14c:	7974657a 	ldmdbvc	r4!, {r1, r3, r4, r5, r6, r8, sl, sp, lr}^
 150:	70006570 	andvc	r6, r0, r0, ror r5
 154:	635f6475 	cmpvs	pc, #1962934272	; 0x75000000
 158:	725f6b6c 	subsvc	r6, pc, #108, 22	; 0x1b000
 15c:	47006765 	strmi	r6, [r0, -r5, ror #14]
 160:	44555050 	ldrbmi	r5, [r5], #-80	; 0x50
 164:	304b4c43 	subcc	r4, fp, r3, asr #24
 168:	50504700 	subspl	r4, r0, r0, lsl #14
 16c:	4c434455 	cfstrdmi	mvd4, [r3], {85}	; 0x55
 170:	4700314b 	strmi	r3, [r0, -fp, asr #2]
 174:	44555050 	ldrbmi	r5, [r5], #-80	; 0x50
 178:	74757000 	ldrbtvc	r7, [r5], #-0
 17c:	70003233 	andvc	r3, r0, r3, lsr r2
 180:	6f5f6475 	svcvs	0x005f6475
 184:	65736666 	ldrbvs	r6, [r3, #-1638]!	; 0x666
 188:	70670074 	rsbvc	r0, r7, r4, ror r0
 18c:	735f6f69 	cmpvc	pc, #420	; 0x1a4
 190:	705f7465 	subsvc	r7, pc, r5, ror #8
 194:	646c6c75 	strbtvs	r6, [ip], #-3189	; 0xc75
 198:	006e776f 	rsbeq	r7, lr, pc, ror #14
 19c:	55465f5f 	strbpl	r5, [r6, #-3935]	; 0xf5f
 1a0:	4954434e 	ldmdbmi	r4, {r1, r2, r3, r6, r8, r9, lr}^
 1a4:	5f5f4e4f 	svcpl	0x005f4e4f
 1a8:	69706700 	ldmdbvs	r0!, {r8, r9, sl, sp, lr}^
 1ac:	75702d6f 	ldrbvc	r2, [r0, #-3439]!	; 0xd6f
 1b0:	00632e64 	rsbeq	r2, r3, r4, ror #28
 1b4:	6f697067 	svcvs	0x00697067
 1b8:	7465735f 	strbtvc	r7, [r5], #-863	; 0x35f
 1bc:	6c75705f 	ldclvs	0, cr7, [r5], #-380	; 0xfffffe84
 1c0:	0070756c 	rsbseq	r7, r0, ip, ror #10
 1c4:	74756f5f 	ldrbtvc	r6, [r5], #-3935	; 0xf5f
 1c8:	69707200 	ldmdbvs	r0!, {r9, ip, sp, lr}^
 1cc:	7365725f 	cmnvc	r5, #-268435451	; 0xf0000005
 1d0:	705f7465 	subsvc	r7, pc, r5, ror #8
 1d4:	00637475 	rsbeq	r7, r3, r5, ror r4
 1d8:	6e675f5f 	mcrvs	15, 3, r5, cr7, cr15, {2}
 1dc:	765f6375 			; <UNDEFINED> instruction: 0x765f6375
 1e0:	696c5f61 	stmdbvs	ip!, {r0, r5, r6, r8, r9, sl, fp, ip, lr}^
 1e4:	6c007473 	cfstrsvs	mvf7, [r0], {115}	; 0x73
 1e8:	2f636269 	svccs	0x00636269
 1ec:	6e697270 	mcrvs	2, 3, r7, cr9, cr0, {3}
 1f0:	632e6b74 	teqvs	lr, #116, 22	; 0x1d000
 1f4:	554e4700 	strbpl	r4, [lr, #-1792]	; 0x700
 1f8:	34204320 	strtcc	r4, [r0], #-800	; 0x320
 1fc:	332e382e 	teqcc	lr, #3014656	; 0x2e0000
 200:	636d2d20 	cmnvs	sp, #32, 26	; 0x800
 204:	613d7570 	teqvs	sp, r0, ror r5
 208:	31316d72 	teqcc	r1, r2, ror sp
 20c:	7a6a3637 	bvc	1a8daf0 <__bss_end__+0x1a83c48>
 210:	20732d66 	rsbscs	r2, r3, r6, ror #26
 214:	75746d2d 	ldrbvc	r6, [r4, #-3373]!	; 0xd2d
 218:	613d656e 	teqvs	sp, lr, ror #10
 21c:	31316d72 	teqcc	r1, r2, ror sp
 220:	7a6a3637 	bvc	1a8db04 <__bss_end__+0x1a83c5c>
 224:	20732d66 	rsbscs	r2, r3, r6, ror #26
 228:	6467672d 	strbtvs	r6, [r7], #-1837	; 0x72d
 22c:	4f2d2062 	svcmi	0x002d2062
 230:	732d2067 	teqvc	sp, #103	; 0x67
 234:	673d6474 			; <UNDEFINED> instruction: 0x673d6474
 238:	3939756e 	ldmdbcc	r9!, {r1, r2, r3, r5, r6, r8, sl, ip, sp, lr}
 23c:	66662d20 	strbtvs	r2, [r6], -r0, lsr #26
 240:	73656572 	cmnvc	r5, #478150656	; 0x1c800000
 244:	646e6174 	strbtvs	r6, [lr], #-372	; 0x174
 248:	00676e69 	rsbeq	r6, r7, r9, ror #28
 24c:	705f6176 	subsvc	r6, pc, r6, ror r1	; <UNPREDICTABLE>
 250:	746e6972 	strbtvc	r6, [lr], #-2418	; 0x972
 254:	5f5f006b 	svcpl	0x005f006b
 258:	6c5f6176 	ldfvse	f6, [pc], {118}	; 0x76
 25c:	00747369 	rsbseq	r7, r4, r9, ror #6
 260:	6573552f 	ldrbvs	r5, [r3, #-1327]!	; 0x52f
 264:	622f7372 	eorvs	r7, pc, #-939524095	; 0xc8000001
 268:	6e616972 	mcrvs	9, 3, r6, cr1, cr2, {3}
 26c:	2f6e756a 	svccs	0x006e756a
 270:	6b736544 	blvs	1cd9788 <__bss_end__+0x1ccf8e0>
 274:	2f706f74 	svccs	0x00706f74
 278:	6f686373 	svcvs	0x00686373
 27c:	572f6c6f 	strpl	r6, [pc, -pc, ror #24]!
 280:	65746e69 	ldrbvs	r6, [r4, #-3689]!	; 0xe69
 284:	32393172 	eorscc	r3, r9, #-2147483620	; 0x8000001c
 288:	53432f30 	movtpl	r2, #16176	; 0x3f30
 28c:	45303431 	ldrmi	r3, [r0, #-1073]!	; 0x431
 290:	3173632f 	cmncc	r3, pc, lsr #6
 294:	2d653034 	stclcs	0, cr3, [r5, #-208]!	; 0xffffff30
 298:	69773032 	ldmdbvs	r7!, {r1, r4, r5, ip, sp}^
 29c:	696c2f6e 	stmdbvs	ip!, {r1, r2, r3, r5, r6, r8, r9, sl, fp, sp}^
 2a0:	00697062 	rsbeq	r7, r9, r2, rrx
 2a4:	73677261 	cmnvc	r7, #268435462	; 0x10000006
 2a8:	615f5f00 	cmpvs	pc, r0, lsl #30
 2ac:	6e690070 	mcrvs	0, 3, r0, cr9, cr0, {3}
 2b0:	6e726574 	mrcvs	5, 3, r6, cr2, cr4, {3}
 2b4:	705f6c61 	subsvc	r6, pc, r1, ror #24
 2b8:	68637475 	stmdavs	r3!, {r0, r2, r4, r5, r6, sl, ip, sp, lr}^
 2bc:	72007261 	andvc	r7, r0, #268435462	; 0x10000006
 2c0:	705f6970 	subsvc	r6, pc, r0, ror r9	; <UNPREDICTABLE>
 2c4:	68637475 	stmdavs	r3!, {r0, r2, r4, r5, r6, sl, ip, sp, lr}^
 2c8:	6c007261 	sfmvs	f7, 4, [r0], {97}	; 0x61
 2cc:	2f636269 	svccs	0x00636269
 2d0:	63747570 	cmnvs	r4, #112, 10	; 0x1c000000
 2d4:	2e726168 	rpwcssz	f6, f2, #0.0
 2d8:	70720063 	rsbsvc	r0, r2, r3, rrx
 2dc:	65735f69 	ldrbvs	r5, [r3, #-3945]!	; 0xf69
 2e0:	75705f74 	ldrbvc	r5, [r0, #-3956]!	; 0xf74
 2e4:	6c006374 	stcvs	3, cr6, [r0], {116}	; 0x74
 2e8:	2f636269 	svccs	0x00636269
 2ec:	6b747570 	blvs	1d1d8b4 <__bss_end__+0x1d13a0c>
 2f0:	6900632e 	stmdbvs	r0, {r1, r2, r3, r5, r8, r9, sp, lr}
 2f4:	7265746e 	rsbvc	r7, r5, #1845493760	; 0x6e000000
 2f8:	5f6c616e 	svcpl	0x006c616e
 2fc:	6b747570 	blvs	1d1d8c4 <__bss_end__+0x1d13a1c>
 300:	67656e00 	strbvs	r6, [r5, -r0, lsl #28]!
 304:	7200705f 	andvc	r7, r0, #95	; 0x5f
 308:	72657665 	rsbvc	r7, r5, #105906176	; 0x6500000
 30c:	69006573 	stmdbvs	r0, {r0, r1, r4, r5, r6, r8, sl, sp, lr}
 310:	67696473 			; <UNDEFINED> instruction: 0x67696473
 314:	70007469 	andvc	r7, r0, r9, ror #8
 318:	5f737475 	svcpl	0x00737475
 31c:	62007066 	andvs	r7, r0, #102	; 0x66
 320:	00657361 	rsbeq	r7, r5, r1, ror #6
 324:	6e676973 	mcrvs	9, 3, r6, cr7, cr3, {3}
 328:	705f6465 	subsvc	r6, pc, r5, ror #8
 32c:	62696c00 	rsbvs	r6, r9, #0, 24
 330:	61762f63 	cmnvs	r6, r3, ror #30
 334:	6972702d 	ldmdbvs	r2!, {r0, r2, r3, r5, ip, sp, lr}^
 338:	2e6b746e 	cdpcs	4, 6, cr7, cr11, cr14, {3}
 33c:	70720063 	rsbsvc	r0, r2, r3, rrx
 340:	65735f69 	ldrbvs	r5, [r3, #-3945]!	; 0xf69
 344:	756f5f74 	strbvc	r5, [pc, #-3956]!	; fffff3d8 <__bss_end__+0xffff5530>
 348:	74757074 	ldrbtvc	r7, [r5], #-116	; 0x74
 34c:	64697700 	strbtvs	r7, [r9], #-1792	; 0x700
 350:	70006874 	andvc	r6, r0, r4, ror r8
 354:	5f637475 	svcpl	0x00637475
 358:	65007066 	strvs	r7, [r0, #-102]	; 0x66
 35c:	0074696d 	rsbseq	r6, r4, sp, ror #18
 360:	5f697072 	svcpl	0x00697072
 364:	6f626572 	svcvs	0x00626572
 368:	6300746f 	movwvs	r7, #1135	; 0x46f
 36c:	30343173 	eorscc	r3, r4, r3, ror r1
 370:	72732d65 	rsbsvc	r2, r3, #6464	; 0x1940
 374:	6c632f63 	stclvs	15, cr2, [r3], #-396	; 0xfffffe74
 378:	2d6e6165 	stfcse	f6, [lr, #-404]!	; 0xfffffe6c
 37c:	6f626572 	svcvs	0x00626572
 380:	632e746f 	teqvs	lr, #1862270976	; 0x6f000000
 384:	6c656400 	cfstrdvs	mvd6, [r5], #-0
 388:	6d5f7961 	ldclvs	9, cr7, [pc, #-388]	; 20c <_start-0x7df4>
 38c:	6e690073 	mcrvs	0, 3, r0, cr9, cr3, {3}
 390:	6e726574 	mrcvs	5, 3, r6, cr2, cr4, {3}
 394:	735f6c61 	cmpvc	pc, #24832	; 0x6100
 398:	75705f77 	ldrbvc	r5, [r0, #-3959]!	; 0xf77
 39c:	61686374 	smcvs	34356	; 0x8634
 3a0:	5f5f0072 	svcpl	0x005f0072
 3a4:	5f737362 	svcpl	0x00737362
 3a8:	72617473 	rsbvc	r7, r1, #1929379840	; 0x73000000
 3ac:	005f5f74 	subseq	r5, pc, r4, ror pc	; <UNPREDICTABLE>
 3b0:	5f737362 	svcpl	0x00737362
 3b4:	00646e65 	rsbeq	r6, r4, r5, ror #28
 3b8:	6c637963 	stclvs	9, cr7, [r3], #-396	; 0xfffffe74
 3bc:	65705f65 	ldrbvs	r5, [r0, #-3941]!	; 0xf65
 3c0:	69625f72 	stmdbvs	r2!, {r1, r4, r5, r6, r8, r9, sl, fp, ip, lr}^
 3c4:	6f630074 	svcvs	0x00630074
 3c8:	6c6f736e 	stclvs	3, cr7, [pc], #-440	; 218 <_start-0x7de8>
 3cc:	61755f65 	cmnvs	r5, r5, ror #30
 3d0:	73007472 	movwvc	r7, #1138	; 0x472
 3d4:	61755f77 	cmnvs	r5, r7, ror pc
 3d8:	705f7472 	subsvc	r7, pc, r2, ror r4	; <UNPREDICTABLE>
 3dc:	746e6972 	strbtvc	r6, [lr], #-2418	; 0x972
 3e0:	5550006b 	ldrbpl	r0, [r0, #-107]	; 0x6b
 3e4:	455f4354 	ldrbmi	r4, [pc, #-852]	; 98 <_start-0x7f68>
 3e8:	555f5053 	ldrbpl	r5, [pc, #-83]	; 39d <_start-0x7c63>
 3ec:	00545241 	subseq	r5, r4, r1, asr #4
 3f0:	755f7773 	ldrbvc	r7, [pc, #-1907]	; fffffc85 <__bss_end__+0xffff5ddd>
 3f4:	5f747261 	svcpl	0x00747261
 3f8:	55500074 	ldrbpl	r0, [r0, #-116]	; 0x74
 3fc:	535f4354 	cmppl	pc, #84, 6	; 0x50000001
 400:	41555f57 	cmpmi	r5, r7, asr pc
 404:	62005452 	andvs	r5, r0, #1375731712	; 0x52000000
 408:	00647561 	rsbeq	r7, r4, r1, ror #10
 40c:	43545550 	cmpmi	r4, #80, 10	; 0x14000000
 410:	5f57485f 	svcpl	0x0057485f
 414:	54524155 	ldrbpl	r4, [r2], #-341	; 0x155
 418:	73635f00 	cmnvc	r3, #0, 30
 41c:	74726174 	ldrbtvc	r6, [r2], #-372	; 0x174
 420:	72617500 	rsbvc	r7, r1, #0, 10
 424:	65645f74 	strbvs	r5, [r4, #-3956]!	; 0xf74
 428:	00745f76 	rsbseq	r5, r4, r6, ror pc
 42c:	755f7773 	ldrbvc	r7, [pc, #-1907]	; fffffcc1 <__bss_end__+0xffff5e19>
 430:	5f747261 	svcpl	0x00747261
 434:	63747570 	cmnvs	r4, #112, 10	; 0x1c000000
 438:	6e697500 	cdpvs	5, 6, cr7, cr9, cr0, {0}
 43c:	745f3874 	ldrbvc	r3, [pc], #-2164	; 444 <_start-0x7bbc>
 440:	6e6f6300 	cdpvs	3, 6, cr6, cr15, cr0, {0}
 444:	6c6f7274 	sfmvs	f7, 2, [pc], #-464	; 27c <_start-0x7d84>
 448:	6b6c625f 	blvs	1b18dcc <__bss_end__+0x1b0ef24>
 44c:	7300745f 	movwvc	r7, #1119	; 0x45f
 450:	61755f77 	cmnvs	r5, r7, ror pc
 454:	63007472 	movwvs	r7, #1138	; 0x472
 458:	65675f62 	strbvs	r5, [r7, #-3938]!	; 0xf62
 45c:	6c625f74 	stclvs	15, cr5, [r2], #-464	; 0xfffffe30
 460:	006b636f 	rsbeq	r6, fp, pc, ror #6
 464:	73625f5f 	cmnvc	r2, #380	; 0x17c
 468:	6e655f73 	mcrvs	15, 3, r5, cr5, cr3, {3}
 46c:	005f5f64 	subseq	r5, pc, r4, ror #30
 470:	34317363 	ldrtcc	r7, [r1], #-867	; 0x363
 474:	732d6530 	teqvc	sp, #48, 10	; 0xc000000
 478:	632f6372 	teqvs	pc, #-939524095	; 0xc8000001
 47c:	72617473 	rsbvc	r7, r1, #1929379840	; 0x73000000
 480:	00632e74 	rsbeq	r2, r3, r4, ror lr
 484:	736e6f63 	cmnvc	lr, #396	; 0x18c
 488:	5f656c6f 	svcpl	0x00656c6f
 48c:	00766564 	rsbseq	r6, r6, r4, ror #10
 490:	746e6975 	strbtvc	r6, [lr], #-2421	; 0x975
 494:	745f3233 	ldrbvc	r3, [pc], #-563	; 49c <_start-0x7b64>
 498:	67616d00 	strbvs	r6, [r1, -r0, lsl #26]!
 49c:	61006369 	tstvs	r0, r9, ror #6
 4a0:	73755f74 	cmnvc	r5, #116, 30	; 0x1d0
 4a4:	6c5f7265 	lfmvs	f7, 2, [pc], {101}	; 0x65
 4a8:	6c657665 	stclvs	6, cr7, [r5], #-404	; 0xfffffe6c
 4ac:	5f4d5000 	svcpl	0x004d5000
 4b0:	53534150 	cmppl	r3, #80, 2
 4b4:	44524f57 	ldrbmi	r4, [r2], #-3927	; 0xf57
 4b8:	31736300 	cmncc	r3, r0, lsl #6
 4bc:	2d653034 	stclcs	0, cr3, [r5, #-208]!	; 0xffffff30
 4c0:	2f637273 	svccs	0x00637273
 4c4:	6f626572 	svcvs	0x00626572
 4c8:	632e746f 	teqvs	lr, #1862270976	; 0x6f000000
 4cc:	5f4d5000 	svcpl	0x004d5000
 4d0:	43545352 	cmpmi	r4, #1207959553	; 0x48000001
 4d4:	4352575f 	cmpmi	r2, #24903680	; 0x17c0000
 4d8:	465f4746 	ldrbmi	r4, [pc], -r6, asr #14
 4dc:	5f4c4c55 	svcpl	0x004c4c55
 4e0:	45534552 	ldrbmi	r4, [r3, #-1362]	; 0x552
 4e4:	4d500054 	ldclmi	0, cr0, [r0, #-336]	; 0xfffffeb0
 4e8:	4f44575f 	svcmi	0x0044575f
 4ec:	65730047 	ldrbvs	r0, [r3, #-71]!	; 0x47
 4f0:	73755f74 	cmnvc	r5, #116, 30	; 0x1d0
 4f4:	6c5f7265 	lfmvs	f7, 2, [pc], {101}	; 0x65
 4f8:	6c657665 	stclvs	6, cr7, [r5], #-404	; 0xfffffe6c
 4fc:	54555000 	ldrbpl	r5, [r5], #-0
 500:	50003233 	andpl	r3, r0, r3, lsr r2
 504:	53525f4d 	cmppl	r2, #308	; 0x134
 508:	63004354 	movwvs	r4, #852	; 0x354
 50c:	00727370 	rsbseq	r7, r2, r0, ror r3
 510:	656d6974 	strbvs	r6, [sp, #-2420]!	; 0x974
 514:	65675f72 	strbvs	r5, [r7, #-3954]!	; 0xf72
 518:	73755f74 	cmnvc	r5, #116, 30	; 0x1d0
 51c:	725f6365 	subsvc	r6, pc, #-1811939327	; 0x94000001
 520:	64007761 	strvs	r7, [r0], #-1889	; 0x761
 524:	79616c65 	stmdbvc	r1!, {r0, r2, r5, r6, sl, fp, sp, lr}^
 528:	6365735f 	cmnvs	r5, #2080374785	; 0x7c000001
 52c:	31736300 	cmncc	r3, r0, lsl #6
 530:	2d653034 	stclcs	0, cr3, [r5, #-208]!	; 0xffffff30
 534:	2f637273 	svccs	0x00637273
 538:	656d6974 	strbvs	r6, [sp, #-2420]!	; 0x974
 53c:	00632e72 	rsbeq	r2, r3, r2, ror lr
 540:	33544547 	cmpcc	r4, #297795584	; 0x11c00000
 544:	69740032 	ldmdbvs	r4!, {r1, r4, r5}^
 548:	00736b63 	rsbseq	r6, r3, r3, ror #22
 54c:	616c6564 	cmnvs	ip, r4, ror #10
 550:	79635f79 	stmdbvc	r3!, {r0, r3, r4, r5, r6, r8, r9, sl, fp, ip, lr}^
 554:	73656c63 	cmnvc	r5, #25344	; 0x6300
 558:	6c656400 	cfstrdvs	mvd6, [r5], #-0
 55c:	755f7961 	ldrbvc	r7, [pc, #-2401]	; fffffc03 <__bss_end__+0xffff5d5b>
 560:	69740073 	ldmdbvs	r4!, {r0, r1, r4, r5, r6}^
 564:	5f72656d 	svcpl	0x0072656d
 568:	5f746567 	svcpl	0x00746567
 56c:	63657375 	cmnvs	r5, #-738197503	; 0xd4000001
 570:	63796300 	cmnvs	r9, #0, 6
 574:	7265705f 	rsbvc	r7, r5, #95	; 0x5f
 578:	7469625f 	strbtvc	r6, [r9], #-607	; 0x25f
 57c:	69727700 	ldmdbvs	r2!, {r8, r9, sl, ip, sp, lr}^
 580:	635f6574 	cmpvs	pc, #116, 10	; 0x1d000000
 584:	755f6379 	ldrbvc	r6, [pc, #-889]	; 213 <_start-0x7ded>
 588:	6c69746e 	cfstrdvs	mvd7, [r9], #-440	; 0xfffffe48
 58c:	5f777300 	svcpl	0x00777300
 590:	74726175 	ldrbtvc	r6, [r2], #-373	; 0x175
 594:	7465675f 	strbtvc	r6, [r5], #-1887	; 0x75f
 598:	69745f63 	ldmdbvs	r4!, {r0, r1, r5, r6, r8, r9, sl, fp, ip, lr}^
 59c:	756f656d 	strbvc	r6, [pc, #-1389]!	; 37 <_start-0x7fc9>
 5a0:	77730074 			; <UNDEFINED> instruction: 0x77730074
 5a4:	7261755f 	rsbvc	r7, r1, #398458880	; 0x17c00000
 5a8:	65675f74 	strbvs	r5, [r7, #-3956]!	; 0xf74
 5ac:	755f7374 	ldrbvc	r7, [pc, #-884]	; 240 <_start-0x7dc0>
 5b0:	6c69746e 	cfstrdvs	mvd7, [r9], #-440	; 0xfffffe48
 5b4:	5f777300 	svcpl	0x00777300
 5b8:	74726175 	ldrbtvc	r6, [r2], #-373	; 0x175
 5bc:	7465675f 	strbtvc	r6, [r5], #-1887	; 0x75f
 5c0:	65640063 	strbvs	r0, [r4, #-99]!	; 0x63
 5c4:	65766972 	ldrbvs	r6, [r6, #-2418]!	; 0x972
 5c8:	65640064 	strbvs	r0, [r4, #-100]!	; 0x64
 5cc:	5f79616c 	svcpl	0x0079616c
 5d0:	6379636e 	cmnvs	r9, #-1207959551	; 0xb8000001
 5d4:	0073656c 	rsbseq	r6, r3, ip, ror #10
 5d8:	755f7773 	ldrbvc	r7, [pc, #-1907]	; fffffe6d <__bss_end__+0xffff5fc5>
 5dc:	5f747261 	svcpl	0x00747261
 5e0:	74696e69 	strbtvc	r6, [r9], #-3689	; 0xe69
 5e4:	6c65685f 	stclvs	8, cr6, [r5], #-380	; 0xfffffe84
 5e8:	00726570 	rsbseq	r6, r2, r0, ror r5
 5ec:	656d6974 	strbvs	r6, [sp, #-2420]!	; 0x974
 5f0:	5f74756f 	svcpl	0x0074756f
 5f4:	63657375 	cmnvs	r5, #-738197503	; 0xd4000001
 5f8:	5f777300 	svcpl	0x00777300
 5fc:	74726175 	ldrbtvc	r6, [r2], #-373	; 0x175
 600:	7475705f 	ldrbtvc	r7, [r5], #-95	; 0x5f
 604:	7067006b 	rsbvc	r0, r7, fp, rrx
 608:	725f6f69 	subsvc	r6, pc, #420	; 0x1a4
 60c:	00646165 	rsbeq	r6, r4, r5, ror #2
 610:	732d796d 	teqvc	sp, #1785856	; 0x1b4000
 614:	732f6372 	teqvc	pc, #-939524095	; 0xc8000001
 618:	61752d77 	cmnvs	r5, r7, ror sp
 61c:	632e7472 	teqvs	lr, #1912602624	; 0x72000000
 620:	61686300 	cmnvs	r8, r0, lsl #6
 624:	6e695f72 	mcrvs	15, 3, r5, cr9, cr2, {3}
 628:	5f777300 	svcpl	0x00777300
 62c:	74726175 	ldrbtvc	r6, [r2], #-373	; 0x175
 630:	7465675f 	strbtvc	r6, [r5], #-1887	; 0x75f
 634:	69745f73 	ldmdbvs	r4!, {r0, r1, r4, r5, r6, r8, r9, sl, fp, ip, lr}^
 638:	756f656d 	strbvc	r6, [pc, #-1389]!	; d3 <_start-0x7f2d>
 63c:	626e0074 	rsbvs	r0, lr, #116	; 0x74
 640:	73657479 	cmnvc	r5, #2030043136	; 0x79000000
 644:	69706700 	ldmdbvs	r0!, {r8, r9, sl, sp, lr}^
 648:	72775f6f 	rsbsvc	r5, r7, #444	; 0x1bc
 64c:	00657469 	rsbeq	r7, r5, r9, ror #8
 650:	63657375 	cmnvs	r5, #-738197503	; 0xd4000001
 654:	6d69745f 	cfstrdvs	mvd7, [r9, #-380]!	; 0xfffffe84
 658:	74756f65 	ldrbtvc	r6, [r5], #-3941	; 0xf65
 65c:	69706700 	ldmdbvs	r0!, {r8, r9, sl, sp, lr}^
 660:	65735f6f 	ldrbvs	r5, [r3, #-3951]!	; 0xf6f
 664:	6e695f74 	mcrvs	15, 3, r5, cr9, cr4, {3}
 668:	00747570 	rsbseq	r7, r4, r0, ror r5
 66c:	755f7773 	ldrbvc	r7, [pc, #-1907]	; ffffff01 <__bss_end__+0xffff6059>
 670:	5f747261 	svcpl	0x00747261
 674:	73746567 	cmnvc	r4, #432013312	; 0x19c00000
 678:	746e755f 	strbtvc	r7, [lr], #-1375	; 0x55f
 67c:	625f6c69 	subsvs	r6, pc, #26880	; 0x6900
 680:	67006b6c 	strvs	r6, [r0, -ip, ror #22]
 684:	5f6f6970 	svcpl	0x006f6970
 688:	5f746573 	svcpl	0x00746573
 68c:	7074756f 	rsbsvc	r7, r4, pc, ror #10
 690:	77007475 	smlsdxvc	r0, r5, r4, r7
 694:	5f746961 	svcpl	0x00746961
 698:	69746e75 	ldmdbvs	r4!, {r0, r2, r4, r5, r6, r9, sl, fp, sp, lr}^
 69c:	73755f6c 	cmnvc	r5, #108, 30	; 0x1b0
 6a0:	41006365 	tstmi	r0, r5, ror #6
 6a4:	4d5f5855 	ldclmi	8, cr5, [pc, #-340]	; 558 <_start-0x7aa8>
 6a8:	434d5f55 	movtmi	r5, #57173	; 0xdf55
 6ac:	45525f52 	ldrbmi	r5, [r2, #-3922]	; 0xf52
 6b0:	55410047 	strbpl	r0, [r1, #-71]	; 0x47
 6b4:	554d5f58 	strbpl	r5, [sp, #-3928]	; 0xf58
 6b8:	5f4f495f 	svcpl	0x004f495f
 6bc:	00474552 	subeq	r4, r7, r2, asr r5
 6c0:	5f585541 	svcpl	0x00585541
 6c4:	4d5f554d 	cfldr64mi	mvdx5, [pc, #-308]	; 598 <_start-0x7a68>
 6c8:	525f5253 	subspl	r5, pc, #805306373	; 0x30000005
 6cc:	47004745 	strmi	r4, [r0, -r5, asr #14]
 6d0:	5f4f4950 	svcpl	0x004f4950
 6d4:	434e5546 	movtmi	r5, #58694	; 0xe546
 6d8:	544c415f 	strbpl	r4, [ip], #-351	; 0x15f
 6dc:	61750030 	cmnvs	r5, r0, lsr r0
 6e0:	635f7472 	cmpvs	pc, #1912602624	; 0x72000000
 6e4:	675f6e61 	ldrbvs	r6, [pc, -r1, ror #28]
 6e8:	00637465 	rsbeq	r7, r3, r5, ror #8
 6ec:	5f585541 	svcpl	0x00585541
 6f0:	435f554d 	cmpmi	pc, #322961408	; 0x13400000
 6f4:	5f4c544e 	svcpl	0x004c544e
 6f8:	00474552 	subeq	r4, r7, r2, asr r5
 6fc:	74726175 	ldrbtvc	r6, [r2], #-373	; 0x175
 700:	7361685f 	cmnvc	r1, #6225920	; 0x5f0000
 704:	7461645f 	strbtvc	r6, [r1], #-1119	; 0x45f
 708:	65640061 	strbvs	r0, [r4, #-97]!	; 0x61
 70c:	61625f76 	smcvs	9718	; 0x25f6
 710:	65697272 	strbvs	r7, [r9, #-626]!	; 0x272
 714:	50470072 	subpl	r0, r7, r2, ror r0
 718:	465f4f49 	ldrbmi	r4, [pc], -r9, asr #30
 71c:	5f434e55 	svcpl	0x00434e55
 720:	5054554f 	subspl	r5, r4, pc, asr #10
 724:	47005455 	smlsdmi	r0, r5, r4, r5
 728:	5f4f4950 	svcpl	0x004f4950
 72c:	434e5546 	movtmi	r5, #58694	; 0xe546
 730:	544c415f 	strbpl	r4, [ip], #-351	; 0x15f
 734:	50470031 	subpl	r0, r7, r1, lsr r0
 738:	465f4f49 	ldrbmi	r4, [pc], -r9, asr #30
 73c:	5f434e55 	svcpl	0x00434e55
 740:	32544c41 	subscc	r4, r4, #16640	; 0x4100
 744:	49504700 	ldmdbmi	r0, {r8, r9, sl, lr}^
 748:	55465f4f 	strbpl	r5, [r6, #-3919]	; 0xf4f
 74c:	415f434e 	cmpmi	pc, lr, asr #6
 750:	0033544c 	eorseq	r5, r3, ip, asr #8
 754:	4f495047 	svcmi	0x00495047
 758:	4e55465f 	mrcmi	6, 2, r4, cr5, cr15, {2}
 75c:	4c415f43 	mcrrmi	15, 4, r5, r1, cr3
 760:	41003554 	tstmi	r0, r4, asr r5
 764:	4d5f5855 	ldclmi	8, cr5, [pc, #-340]	; 618 <_start-0x79e8>
 768:	45495f55 	strbmi	r5, [r9, #-3925]	; 0xf55
 76c:	45525f52 	ldrbmi	r5, [r2, #-3922]	; 0xf52
 770:	55410047 	strbpl	r0, [r1, #-71]	; 0x47
 774:	554d5f58 	strbpl	r5, [sp, #-3928]	; 0xf58
 778:	5249495f 	subpl	r4, r9, #1556480	; 0x17c000
 77c:	4745525f 	smlsldmi	r5, r5, pc, r2	; <UNPREDICTABLE>
 780:	69706700 	ldmdbvs	r0!, {r8, r9, sl, sp, lr}^
 784:	75665f6f 	strbvc	r5, [r6, #-3951]!	; 0xf6f
 788:	745f636e 	ldrbvc	r6, [pc], #-878	; 790 <_start-0x7870>
 78c:	72617500 	rsbvc	r7, r1, #0, 10
 790:	61635f74 	smcvs	13812	; 0x35f4
 794:	75705f6e 	ldrbvc	r5, [r0, #-3950]!	; 0xf6e
 798:	41006374 	tstmi	r0, r4, ror r3
 79c:	455f5855 	ldrbmi	r5, [pc, #-2133]	; ffffff4f <__bss_end__+0xffff60a7>
 7a0:	4c42414e 	stfmie	f4, [r2], {78}	; 0x4e
 7a4:	41005345 	tstmi	r0, r5, asr #6
 7a8:	495f5855 	ldmdbmi	pc, {r0, r2, r4, r6, fp, ip, lr}^	; <UNPREDICTABLE>
 7ac:	41005152 	tstmi	r0, r2, asr r1
 7b0:	4d5f5855 	ldclmi	8, cr5, [pc, #-340]	; 664 <_start-0x799c>
 7b4:	41425f55 	cmpmi	r2, r5, asr pc
 7b8:	525f4455 	subspl	r4, pc, #1426063360	; 0x55000000
 7bc:	41004745 	tstmi	r0, r5, asr #14
 7c0:	4d5f5855 	ldclmi	8, cr5, [pc, #-340]	; 674 <_start-0x798c>
 7c4:	54535f55 	ldrbpl	r5, [r3], #-3925	; 0xf55
 7c8:	525f5441 	subspl	r5, pc, #1090519040	; 0x41000000
 7cc:	47004745 	strmi	r4, [r0, -r5, asr #14]
 7d0:	5f4f4950 	svcpl	0x004f4950
 7d4:	434e5546 	movtmi	r5, #58694	; 0xe546
 7d8:	544c415f 	strbpl	r4, [ip], #-351	; 0x15f
 7dc:	70670034 	rsbvc	r0, r7, r4, lsr r0
 7e0:	735f6f69 	cmpvc	pc, #420	; 0x1a4
 7e4:	665f7465 	ldrbvs	r7, [pc], -r5, ror #8
 7e8:	74636e75 	strbtvc	r6, [r3], #-3701	; 0xe75
 7ec:	006e6f69 	rsbeq	r6, lr, r9, ror #30
 7f0:	5f585541 	svcpl	0x00585541
 7f4:	535f554d 	cmppl	pc, #322961408	; 0x13400000
 7f8:	54415243 	strbpl	r5, [r1], #-579	; 0x243
 7fc:	6d004843 	stcvs	8, cr4, [r0, #-268]	; 0xfffffef4
 800:	72732d79 	rsbsvc	r2, r3, #7744	; 0x1e40
 804:	61752f63 	cmnvs	r5, r3, ror #30
 808:	632e7472 	teqvs	lr, #1912602624	; 0x72000000
 80c:	58554100 	ldmdapl	r5, {r8, lr}^
 810:	5f554d5f 	svcpl	0x00554d5f
 814:	5f52434c 	svcpl	0x0052434c
 818:	00474552 	subeq	r4, r7, r2, asr r5
 81c:	4f495047 	svcmi	0x00495047
 820:	4e55465f 	mrcmi	6, 2, r4, cr5, cr15, {2}
 824:	4e495f43 	cdpmi	15, 4, cr5, cr9, cr3, {2}
 828:	00545550 	subseq	r5, r4, r0, asr r5
 82c:	5f585541 	svcpl	0x00585541
 830:	4c5f554d 	cfldr64mi	mvdx5, [pc], {77}	; 0x4d
 834:	525f5253 	subspl	r5, pc, #805306373	; 0x30000005
 838:	75004745 	strvc	r4, [r0, #-1861]	; 0x745
 83c:	5f747261 	svcpl	0x00747261
 840:	63746567 	cmnvs	r4, #432013312	; 0x19c00000
 844:	7973615f 	ldmdbvc	r3!, {r0, r1, r2, r3, r4, r6, r8, sp, lr}^
 848:	6700636e 	strvs	r6, [r0, -lr, ror #6]
 84c:	32337465 	eorscc	r7, r3, #1694498816	; 0x65000000
 850:	69706700 	ldmdbvs	r0!, {r8, r9, sl, sp, lr}^
 854:	76655f6f 	strbtvc	r5, [r5], -pc, ror #30
 858:	5f746e65 	svcpl	0x00746e65
 85c:	65746564 	ldrbvs	r6, [r4, #-1380]!	; 0x564
 860:	64657463 	strbtvs	r7, [r5], #-1123	; 0x463
 864:	46504700 	ldrbmi	r4, [r0], -r0, lsl #14
 868:	324c4553 	subcc	r4, ip, #348127232	; 0x14c00000
 86c:	43504700 	cmpmi	r0, #0, 14
 870:	0030524c 	eorseq	r5, r0, ip, asr #4
 874:	42414e45 	submi	r4, r1, #1104	; 0x450
 878:	495f454c 	ldmdbmi	pc, {r2, r3, r6, r8, sl, lr}^	; <UNPREDICTABLE>
 87c:	5f535152 	svcpl	0x00535152
 880:	73690032 	cmnvc	r9, #50	; 0x32
 884:	6970675f 	ldmdbvs	r0!, {r0, r1, r2, r3, r4, r6, r8, r9, sl, sp, lr}^
 888:	6e695f6f 	cdpvs	15, 6, cr5, cr9, cr15, {3}
 88c:	70670074 	rsbvc	r0, r7, r4, ror r0
 890:	735f6f69 	cmpvc	pc, #420	; 0x1a4
 894:	6f5f7465 	svcvs	0x005f7465
 898:	6d006666 	stcvs	6, cr6, [r0, #-408]	; 0xfffffe68
 89c:	72732d79 	rsbsvc	r2, r3, #7744	; 0x1e40
 8a0:	70672f63 	rsbvc	r2, r7, r3, ror #30
 8a4:	632e6f69 	teqvs	lr, #420	; 0x1a4
 8a8:	746e6900 	strbtvc	r6, [lr], #-2304	; 0x900
 8ac:	73616d5f 	cmnvc	r1, #6080	; 0x17c0
 8b0:	5047006b 	subpl	r0, r7, fp, rrx
 8b4:	30544553 	subscc	r4, r4, r3, asr r5
 8b8:	53504700 	cmppl	r0, #0, 14
 8bc:	00315445 	eorseq	r5, r1, r5, asr #8
 8c0:	5f676572 	svcpl	0x00676572
 8c4:	74617473 	strbtvc	r7, [r1], #-1139	; 0x473
 8c8:	4c504700 	mrrcmi	7, 0, r4, r0, cr0
 8cc:	00305645 	eorseq	r5, r0, r5, asr #12
 8d0:	454c5047 	strbmi	r5, [ip, #-71]	; 0x47
 8d4:	67003156 	smlsdvs	r0, r6, r1, r3
 8d8:	5f6f6970 	svcpl	0x006f6970
 8dc:	00676572 	rsbeq	r6, r7, r2, ror r5
 8e0:	53465047 	movtpl	r5, #24647	; 0x6047
 8e4:	00304c45 	eorseq	r4, r0, r5, asr #24
 8e8:	53465047 	movtpl	r5, #24647	; 0x6047
 8ec:	00314c45 	eorseq	r4, r1, r5, asr #24
 8f0:	53465047 	movtpl	r5, #24647	; 0x6047
 8f4:	00334c45 	eorseq	r4, r3, r5, asr #24
 8f8:	53465047 	movtpl	r5, #24647	; 0x6047
 8fc:	00344c45 	eorseq	r4, r4, r5, asr #24
 900:	53465047 	movtpl	r5, #24647	; 0x6047
 904:	00354c45 	eorseq	r4, r5, r5, asr #24
 908:	6f697067 	svcvs	0x00697067
 90c:	6573665f 	ldrbvs	r6, [r3, #-1631]!	; 0x65f
 910:	4700306c 	strmi	r3, [r0, -ip, rrx]
 914:	524c4350 	subpl	r4, ip, #80, 6	; 0x40000001
 918:	70670031 	rsbvc	r0, r7, r1, lsr r0
 91c:	695f6f69 	ldmdbvs	pc, {r0, r3, r5, r6, r8, r9, sl, fp, sp, lr}^	; <UNPREDICTABLE>
 920:	725f746e 	subsvc	r7, pc, #1845493760	; 0x6e000000
 924:	6e697369 	cdpvs	3, 6, cr7, cr9, cr9, {3}
 928:	64655f67 	strbtvs	r5, [r5], #-3943	; 0xf67
 92c:	47006567 	strmi	r6, [r0, -r7, ror #10]
 930:	4e455250 	mcrmi	2, 2, r5, cr5, cr0, {2}
 934:	50470030 	subpl	r0, r7, r0, lsr r0
 938:	314e4552 	cmpcc	lr, r2, asr r5
 93c:	69706700 	ldmdbvs	r0!, {r8, r9, sl, sp, lr}^
 940:	76655f6f 	strbtvc	r5, [r5], -pc, ror #30
 944:	5f746e65 	svcpl	0x00746e65
 948:	61656c63 	cmnvs	r5, r3, ror #24
 94c:	52490072 	subpl	r0, r9, #114	; 0x72
 950:	45505f51 	ldrbmi	r5, [r0, #-3921]	; 0xf51
 954:	4e49444e 	cdpmi	4, 4, cr4, cr9, cr14, {2}
 958:	00315f47 	eorseq	r5, r1, r7, asr #30
 95c:	5f515249 	svcpl	0x00515249
 960:	444e4550 	strbmi	r4, [lr], #-1360	; 0x550
 964:	5f474e49 	svcpl	0x00474e49
 968:	69620032 	stmdbvs	r2!, {r1, r4, r5}^
 96c:	73616d74 	cmnvc	r1, #116, 26	; 0x1d00
 970:	7067006b 	rsbvc	r0, r7, fp, rrx
 974:	735f6f69 	cmpvc	pc, #420	; 0x1a4
 978:	00307465 	eorseq	r7, r0, r5, ror #8
 97c:	636e7566 	cmnvs	lr, #427819008	; 0x19800000
 980:	69706700 	ldmdbvs	r0!, {r8, r9, sl, sp, lr}^
 984:	6f745f6f 	svcvs	0x00745f6f
 988:	656c6767 	strbvs	r6, [ip, #-1895]!	; 0x767
 98c:	45504700 	ldrbmi	r4, [r0, #-1792]	; 0x700
 990:	00305344 	eorseq	r5, r0, r4, asr #6
 994:	44455047 	strbmi	r5, [r5], #-71	; 0x47
 998:	67003153 	smlsdvs	r0, r3, r1, r3
 99c:	5f6f6970 	svcpl	0x006f6970
 9a0:	5f746573 	svcpl	0x00746573
 9a4:	47006e6f 	strmi	r6, [r0, -pc, ror #28]
 9a8:	4e454650 	mcrmi	6, 2, r4, cr5, cr0, {2}
 9ac:	50470030 	subpl	r0, r7, r0, lsr r0
 9b0:	314e4546 	cmpcc	lr, r6, asr #10
 9b4:	69706700 	ldmdbvs	r0!, {r8, r9, sl, sp, lr}^
 9b8:	6e695f6f 	cdpvs	15, 6, cr5, cr9, cr15, {3}
 9bc:	61665f74 	smcvs	26100	; 0x65f4
 9c0:	6e696c6c 	cdpvs	12, 6, cr6, cr9, cr12, {3}
 9c4:	64655f67 	strbtvs	r5, [r5], #-3943	; 0xf67
 9c8:	72006567 	andvc	r6, r0, #432013312	; 0x19c00000
 9cc:	735f6765 	cmpvc	pc, #26476544	; 0x1940000
 9d0:	63656c65 	cmnvs	r5, #25856	; 0x6500
 9d4:	70670074 	rsbvc	r0, r7, r4, ror r0
 9d8:	635f6f69 	cmpvs	pc, #420	; 0x1a4
 9dc:	0030726c 	eorseq	r7, r0, ip, ror #4
 9e0:	657a6973 	ldrbvs	r6, [sl, #-2419]!	; 0x973
 9e4:	6d00745f 	cfstrsvs	mvf7, [r0, #-380]	; 0xfffffe84
 9e8:	65736d65 	ldrbvs	r6, [r3, #-3429]!	; 0xd65
 9ec:	62630074 	rsbvs	r0, r3, #116	; 0x74
 9f0:	77656e5f 			; <UNDEFINED> instruction: 0x77656e5f
 9f4:	31736300 	cmncc	r3, r0, lsl #6
 9f8:	2d653034 	stclcs	0, cr3, [r5, #-208]!	; 0xffffff30
 9fc:	2f637273 	svccs	0x00637273
 a00:	746e6f63 	strbtvc	r6, [lr], #-3939	; 0xf63
 a04:	2d6c6f72 	stclcs	15, cr6, [ip, #-456]!	; 0xfffffe38
 a08:	636f6c62 	cmnvs	pc, #25088	; 0x6200
 a0c:	00632e6b 	rsbeq	r2, r3, fp, ror #28
 a10:	6362696c 	cmnvs	r2, #108, 18	; 0x1b0000
 a14:	6d656d2f 	stclvs	13, cr6, [r5, #-188]!	; 0xffffff44
 a18:	2e746573 	mrccs	5, 3, r6, cr4, cr3, {3}
 a1c:	Address 0x0000000000000a1c is out of bounds.


Disassembly of section .debug_frame:

00000000 <.debug_frame>:
   0:	0000000c 	andeq	r0, r0, ip
   4:	ffffffff 			; <UNDEFINED> instruction: 0xffffffff
   8:	7c020001 	stcvc	0, cr0, [r2], {1}
   c:	000d0c0e 	andeq	r0, sp, lr, lsl #24
  10:	00000014 	andeq	r0, r0, r4, lsl r0
  14:	00000000 	andeq	r0, r0, r0
  18:	00008010 	andeq	r8, r0, r0, lsl r0
  1c:	00000030 	andeq	r0, r0, r0, lsr r0
  20:	83080e42 	movwhi	r0, #36418	; 0x8e42
  24:	00018e02 	andeq	r8, r1, r2, lsl #28
  28:	0000000c 	andeq	r0, r0, ip
  2c:	ffffffff 			; <UNDEFINED> instruction: 0xffffffff
  30:	7c020001 	stcvc	0, cr0, [r2], {1}
  34:	000d0c0e 	andeq	r0, sp, lr, lsl #24
  38:	00000018 	andeq	r0, r0, r8, lsl r0
  3c:	00000028 	andeq	r0, r0, r8, lsr #32
  40:	00008040 	andeq	r8, r0, r0, asr #32
  44:	000000b4 	strheq	r0, [r0], -r4
  48:	83100e42 	tsthi	r0, #1056	; 0x420
  4c:	85038404 	strhi	r8, [r3, #-1028]	; 0x404
  50:	00018e02 	andeq	r8, r1, r2, lsl #28
  54:	00000014 	andeq	r0, r0, r4, lsl r0
  58:	00000028 	andeq	r0, r0, r8, lsr #32
  5c:	000080f4 	strdeq	r8, [r0], -r4
  60:	0000002c 	andeq	r0, r0, ip, lsr #32
  64:	83080e42 	movwhi	r0, #36418	; 0x8e42
  68:	00018e02 	andeq	r8, r1, r2, lsl #28
  6c:	00000014 	andeq	r0, r0, r4, lsl r0
  70:	00000028 	andeq	r0, r0, r8, lsr #32
  74:	00008120 	andeq	r8, r0, r0, lsr #2
  78:	0000002c 	andeq	r0, r0, ip, lsr #32
  7c:	83080e42 	movwhi	r0, #36418	; 0x8e42
  80:	00018e02 	andeq	r8, r1, r2, lsl #28
  84:	0000000c 	andeq	r0, r0, ip
  88:	ffffffff 			; <UNDEFINED> instruction: 0xffffffff
  8c:	7c020001 	stcvc	0, cr0, [r2], {1}
  90:	000d0c0e 	andeq	r0, sp, lr, lsl #24
  94:	00000024 	andeq	r0, r0, r4, lsr #32
  98:	00000084 	andeq	r0, r0, r4, lsl #1
  9c:	0000814c 	andeq	r8, r0, ip, asr #2
  a0:	00000058 	andeq	r0, r0, r8, asr r0
  a4:	80100e42 	andshi	r0, r0, r2, asr #28
  a8:	82038104 	andhi	r8, r3, #4, 2
  ac:	42018302 	andmi	r8, r1, #134217728	; 0x8000000
  b0:	07841c0e 	streq	r1, [r4, lr, lsl #24]
  b4:	058e0685 	streq	r0, [lr, #1669]	; 0x685
  b8:	00280e42 	eoreq	r0, r8, r2, asr #28
  bc:	0000000c 	andeq	r0, r0, ip
  c0:	ffffffff 			; <UNDEFINED> instruction: 0xffffffff
  c4:	7c020001 	stcvc	0, cr0, [r2], {1}
  c8:	000d0c0e 	andeq	r0, sp, lr, lsl #24
  cc:	00000014 	andeq	r0, r0, r4, lsl r0
  d0:	000000bc 	strheq	r0, [r0], -ip
  d4:	000081a4 	andeq	r8, r0, r4, lsr #3
  d8:	00000014 	andeq	r0, r0, r4, lsl r0
  dc:	84080e42 	strhi	r0, [r8], #-3650	; 0xe42
  e0:	00018e02 	andeq	r8, r1, r2, lsl #28
  e4:	0000000c 	andeq	r0, r0, ip
  e8:	000000bc 	strheq	r0, [r0], -ip
  ec:	000081b8 			; <UNDEFINED> instruction: 0x000081b8
  f0:	00000018 	andeq	r0, r0, r8, lsl r0
  f4:	0000000c 	andeq	r0, r0, ip
  f8:	000000bc 	strheq	r0, [r0], -ip
  fc:	000081d0 	ldrdeq	r8, [r0], -r0
 100:	00000010 	andeq	r0, r0, r0, lsl r0
 104:	0000000c 	andeq	r0, r0, ip
 108:	ffffffff 			; <UNDEFINED> instruction: 0xffffffff
 10c:	7c020001 	stcvc	0, cr0, [r2], {1}
 110:	000d0c0e 	andeq	r0, sp, lr, lsl #24
 114:	00000018 	andeq	r0, r0, r8, lsl r0
 118:	00000104 	andeq	r0, r0, r4, lsl #2
 11c:	000081e0 	andeq	r8, r0, r0, ror #3
 120:	00000034 	andeq	r0, r0, r4, lsr r0
 124:	83100e42 	tsthi	r0, #1056	; 0x420
 128:	85038404 	strhi	r8, [r3, #-1028]	; 0x404
 12c:	00018e02 	andeq	r8, r1, r2, lsl #28
 130:	0000000c 	andeq	r0, r0, ip
 134:	ffffffff 			; <UNDEFINED> instruction: 0xffffffff
 138:	7c020001 	stcvc	0, cr0, [r2], {1}
 13c:	000d0c0e 	andeq	r0, sp, lr, lsl #24
 140:	0000000c 	andeq	r0, r0, ip
 144:	00000130 	andeq	r0, r0, r0, lsr r1
 148:	00008214 	andeq	r8, r0, r4, lsl r2
 14c:	00000014 	andeq	r0, r0, r4, lsl r0
 150:	0000000c 	andeq	r0, r0, ip
 154:	00000130 	andeq	r0, r0, r0, lsr r1
 158:	00008228 	andeq	r8, r0, r8, lsr #4
 15c:	0000002c 	andeq	r0, r0, ip, lsr #32
 160:	0000000c 	andeq	r0, r0, ip
 164:	00000130 	andeq	r0, r0, r0, lsr r1
 168:	00008254 	andeq	r8, r0, r4, asr r2
 16c:	00000040 	andeq	r0, r0, r0, asr #32
 170:	00000020 	andeq	r0, r0, r0, lsr #32
 174:	00000130 	andeq	r0, r0, r0, lsr r1
 178:	00008294 	muleq	r0, r4, r2
 17c:	000001a8 	andeq	r0, r0, r8, lsr #3
 180:	84180e42 	ldrhi	r0, [r8], #-3650	; 0xe42
 184:	86058506 	strhi	r8, [r5], -r6, lsl #10
 188:	88038704 	stmdahi	r3, {r2, r8, r9, sl, pc}
 18c:	42018e02 	andmi	r8, r1, #2, 28
 190:	0000600e 	andeq	r6, r0, lr
 194:	00000014 	andeq	r0, r0, r4, lsl r0
 198:	00000130 	andeq	r0, r0, r0, lsr r1
 19c:	0000843c 	andeq	r8, r0, ip, lsr r4
 1a0:	00000068 	andeq	r0, r0, r8, rrx
 1a4:	8e040e42 	cdphi	14, 0, cr0, cr4, cr2, {2}
 1a8:	100e4201 	andne	r4, lr, r1, lsl #4
 1ac:	00000028 	andeq	r0, r0, r8, lsr #32
 1b0:	00000130 	andeq	r0, r0, r0, lsr r1
 1b4:	000084a4 	andeq	r8, r0, r4, lsr #9
 1b8:	00000294 	muleq	r0, r4, r2
 1bc:	84240e42 	strthi	r0, [r4], #-3650	; 0xe42
 1c0:	86088509 	strhi	r8, [r8], -r9, lsl #10
 1c4:	88068707 	stmdahi	r6, {r0, r1, r2, r8, r9, sl, pc}
 1c8:	8a048905 	bhi	1225e4 <__bss_end__+0x11873c>
 1cc:	8e028b03 	vmlahi.f64	d8, d2, d3
 1d0:	b00e4201 	andlt	r4, lr, r1, lsl #4
 1d4:	00000001 	andeq	r0, r0, r1
 1d8:	0000000c 	andeq	r0, r0, ip
 1dc:	ffffffff 			; <UNDEFINED> instruction: 0xffffffff
 1e0:	7c020001 	stcvc	0, cr0, [r2], {1}
 1e4:	000d0c0e 	andeq	r0, sp, lr, lsl #24
 1e8:	00000014 	andeq	r0, r0, r4, lsl r0
 1ec:	000001d8 	ldrdeq	r0, [r0], -r8
 1f0:	00008738 	andeq	r8, r0, r8, lsr r7
 1f4:	00000028 	andeq	r0, r0, r8, lsr #32
 1f8:	83080e42 	movwhi	r0, #36418	; 0x8e42
 1fc:	00018e02 	andeq	r8, r1, r2, lsl #28
 200:	0000000c 	andeq	r0, r0, ip
 204:	ffffffff 			; <UNDEFINED> instruction: 0xffffffff
 208:	7c020001 	stcvc	0, cr0, [r2], {1}
 20c:	000d0c0e 	andeq	r0, sp, lr, lsl #24
 210:	00000014 	andeq	r0, r0, r4, lsl r0
 214:	00000200 	andeq	r0, r0, r0, lsl #4
 218:	00008760 	andeq	r8, r0, r0, ror #14
 21c:	00000020 	andeq	r0, r0, r0, lsr #32
 220:	84080e42 	strhi	r0, [r8], #-3650	; 0xe42
 224:	00018e02 	andeq	r8, r1, r2, lsl #28
 228:	00000014 	andeq	r0, r0, r4, lsl r0
 22c:	00000200 	andeq	r0, r0, r0, lsl #4
 230:	00008780 	andeq	r8, r0, r0, lsl #15
 234:	00000090 	muleq	r0, r0, r0
 238:	83080e42 	movwhi	r0, #36418	; 0x8e42
 23c:	00018e02 	andeq	r8, r1, r2, lsl #28
 240:	0000000c 	andeq	r0, r0, ip
 244:	ffffffff 			; <UNDEFINED> instruction: 0xffffffff
 248:	7c020001 	stcvc	0, cr0, [r2], {1}
 24c:	000d0c0e 	andeq	r0, sp, lr, lsl #24
 250:	0000000c 	andeq	r0, r0, ip
 254:	00000240 	andeq	r0, r0, r0, asr #4
 258:	00008810 	andeq	r8, r0, r0, lsl r8
 25c:	00000018 	andeq	r0, r0, r8, lsl r0
 260:	0000000c 	andeq	r0, r0, ip
 264:	00000240 	andeq	r0, r0, r0, asr #4
 268:	00008828 	andeq	r8, r0, r8, lsr #16
 26c:	00000014 	andeq	r0, r0, r4, lsl r0
 270:	00000014 	andeq	r0, r0, r4, lsl r0
 274:	00000240 	andeq	r0, r0, r0, asr #4
 278:	0000883c 	andeq	r8, r0, ip, lsr r8
 27c:	00000048 	andeq	r0, r0, r8, asr #32
 280:	83080e42 	movwhi	r0, #36418	; 0x8e42
 284:	00018e02 	andeq	r8, r1, r2, lsl #28
 288:	0000000c 	andeq	r0, r0, ip
 28c:	ffffffff 			; <UNDEFINED> instruction: 0xffffffff
 290:	7c020001 	stcvc	0, cr0, [r2], {1}
 294:	000d0c0e 	andeq	r0, sp, lr, lsl #24
 298:	0000000c 	andeq	r0, r0, ip
 29c:	00000288 	andeq	r0, r0, r8, lsl #5
 2a0:	00008884 	andeq	r8, r0, r4, lsl #17
 2a4:	0000001c 	andeq	r0, r0, ip, lsl r0
 2a8:	00000014 	andeq	r0, r0, r4, lsl r0
 2ac:	00000288 	andeq	r0, r0, r8, lsl #5
 2b0:	000088a0 	andeq	r8, r0, r0, lsr #17
 2b4:	00000014 	andeq	r0, r0, r4, lsl r0
 2b8:	83080e42 	movwhi	r0, #36418	; 0x8e42
 2bc:	00018e02 	andeq	r8, r1, r2, lsl #28
 2c0:	00000014 	andeq	r0, r0, r4, lsl r0
 2c4:	00000288 	andeq	r0, r0, r8, lsl #5
 2c8:	000088b4 			; <UNDEFINED> instruction: 0x000088b4
 2cc:	0000000c 	andeq	r0, r0, ip
 2d0:	83080e42 	movwhi	r0, #36418	; 0x8e42
 2d4:	00018e02 	andeq	r8, r1, r2, lsl #28
 2d8:	00000018 	andeq	r0, r0, r8, lsl r0
 2dc:	00000288 	andeq	r0, r0, r8, lsl #5
 2e0:	000088c0 	andeq	r8, r0, r0, asr #17
 2e4:	00000024 	andeq	r0, r0, r4, lsr #32
 2e8:	83100e42 	tsthi	r0, #1056	; 0x420
 2ec:	85038404 	strhi	r8, [r3, #-1028]	; 0x404
 2f0:	00018e02 	andeq	r8, r1, r2, lsl #28
 2f4:	00000014 	andeq	r0, r0, r4, lsl r0
 2f8:	00000288 	andeq	r0, r0, r8, lsl #5
 2fc:	000088e4 	andeq	r8, r0, r4, ror #17
 300:	00000014 	andeq	r0, r0, r4, lsl r0
 304:	83080e42 	movwhi	r0, #36418	; 0x8e42
 308:	00018e02 	andeq	r8, r1, r2, lsl #28
 30c:	00000014 	andeq	r0, r0, r4, lsl r0
 310:	00000288 	andeq	r0, r0, r8, lsl #5
 314:	000088f8 	strdeq	r8, [r0], -r8	; <UNPREDICTABLE>
 318:	00000014 	andeq	r0, r0, r4, lsl r0
 31c:	83080e42 	movwhi	r0, #36418	; 0x8e42
 320:	00018e02 	andeq	r8, r1, r2, lsl #28
 324:	0000000c 	andeq	r0, r0, ip
 328:	ffffffff 			; <UNDEFINED> instruction: 0xffffffff
 32c:	7c020001 	stcvc	0, cr0, [r2], {1}
 330:	000d0c0e 	andeq	r0, sp, lr, lsl #24
 334:	0000001c 	andeq	r0, r0, ip, lsl r0
 338:	00000324 	andeq	r0, r0, r4, lsr #6
 33c:	0000890c 	andeq	r8, r0, ip, lsl #18
 340:	00000154 	andeq	r0, r0, r4, asr r1
 344:	84180e42 	ldrhi	r0, [r8], #-3650	; 0xe42
 348:	86058506 	strhi	r8, [r5], -r6, lsl #10
 34c:	88038704 	stmdahi	r3, {r2, r8, r9, sl, pc}
 350:	00018e02 	andeq	r8, r1, r2, lsl #28
 354:	00000020 	andeq	r0, r0, r0, lsr #32
 358:	00000324 	andeq	r0, r0, r4, lsr #6
 35c:	00008a60 	andeq	r8, r0, r0, ror #20
 360:	000001c8 	andeq	r0, r0, r8, asr #3
 364:	83200e42 	teqhi	r0, #1056	; 0x420
 368:	85078408 	strhi	r8, [r7, #-1032]	; 0x408
 36c:	87058606 	strhi	r8, [r5, -r6, lsl #12]
 370:	89038804 	stmdbhi	r3, {r2, fp, pc}
 374:	00018e02 	andeq	r8, r1, r2, lsl #28
 378:	00000024 	andeq	r0, r0, r4, lsr #32
 37c:	00000324 	andeq	r0, r0, r4, lsr #6
 380:	00008c28 	andeq	r8, r0, r8, lsr #24
 384:	000000a4 	andeq	r0, r0, r4, lsr #1
 388:	84200e42 	strthi	r0, [r0], #-3650	; 0xe42
 38c:	86078508 	strhi	r8, [r7], -r8, lsl #10
 390:	88058706 	stmdahi	r5, {r1, r2, r8, r9, sl, pc}
 394:	8a038904 	bhi	e27ac <__bss_end__+0xd8904>
 398:	42018e02 	andmi	r8, r1, #2, 28
 39c:	0000280e 	andeq	r2, r0, lr, lsl #16
 3a0:	00000020 	andeq	r0, r0, r0, lsr #32
 3a4:	00000324 	andeq	r0, r0, r4, lsr #6
 3a8:	00008ccc 	andeq	r8, r0, ip, asr #25
 3ac:	00000090 	muleq	r0, r0, r0
 3b0:	84180e42 	ldrhi	r0, [r8], #-3650	; 0xe42
 3b4:	86058506 	strhi	r8, [r5], -r6, lsl #10
 3b8:	88038704 	stmdahi	r3, {r2, r8, r9, sl, pc}
 3bc:	42018e02 	andmi	r8, r1, #2, 28
 3c0:	0000200e 	andeq	r2, r0, lr
 3c4:	00000020 	andeq	r0, r0, r0, lsr #32
 3c8:	00000324 	andeq	r0, r0, r4, lsr #6
 3cc:	00008d5c 	andeq	r8, r0, ip, asr sp
 3d0:	000000d4 	ldrdeq	r0, [r0], -r4
 3d4:	84180e42 	ldrhi	r0, [r8], #-3650	; 0xe42
 3d8:	86058506 	strhi	r8, [r5], -r6, lsl #10
 3dc:	88038704 	stmdahi	r3, {r2, r8, r9, sl, pc}
 3e0:	42018e02 	andmi	r8, r1, #2, 28
 3e4:	0000200e 	andeq	r2, r0, lr
 3e8:	00000014 	andeq	r0, r0, r4, lsl r0
 3ec:	00000324 	andeq	r0, r0, r4, lsr #6
 3f0:	00008e30 	andeq	r8, r0, r0, lsr lr
 3f4:	0000003c 	andeq	r0, r0, ip, lsr r0
 3f8:	83080e42 	movwhi	r0, #36418	; 0x8e42
 3fc:	00018e02 	andeq	r8, r1, r2, lsl #28
 400:	00000018 	andeq	r0, r0, r8, lsl r0
 404:	00000324 	andeq	r0, r0, r4, lsr #6
 408:	00008e6c 	andeq	r8, r0, ip, ror #28
 40c:	0000002c 	andeq	r0, r0, ip, lsr #32
 410:	83100e42 	tsthi	r0, #1056	; 0x420
 414:	85038404 	strhi	r8, [r3, #-1028]	; 0x404
 418:	00018e02 	andeq	r8, r1, r2, lsl #28
 41c:	00000024 	andeq	r0, r0, r4, lsr #32
 420:	00000324 	andeq	r0, r0, r4, lsr #6
 424:	00008e98 	muleq	r0, r8, lr
 428:	00000090 	muleq	r0, r0, r0
 42c:	810c0e42 	tsthi	ip, r2, asr #28
 430:	83028203 	movwhi	r8, #8707	; 0x2203
 434:	180e4201 	stmdane	lr, {r0, r9, lr}
 438:	05850684 	streq	r0, [r5, #1668]	; 0x684
 43c:	0e42048e 	cdpeq	4, 4, cr0, cr2, cr14, {4}
 440:	000003f0 	strdeq	r0, [r0], -r0	; <UNPREDICTABLE>
 444:	00000014 	andeq	r0, r0, r4, lsl r0
 448:	00000324 	andeq	r0, r0, r4, lsr #6
 44c:	00008f28 	andeq	r8, r0, r8, lsr #30
 450:	0000004c 	andeq	r0, r0, ip, asr #32
 454:	8e040e42 	cdphi	14, 0, cr0, cr4, cr2, {2}
 458:	100e4201 	andne	r4, lr, r1, lsl #4
 45c:	0000000c 	andeq	r0, r0, ip
 460:	ffffffff 			; <UNDEFINED> instruction: 0xffffffff
 464:	7c020001 	stcvc	0, cr0, [r2], {1}
 468:	000d0c0e 	andeq	r0, sp, lr, lsl #24
 46c:	00000018 	andeq	r0, r0, r8, lsl r0
 470:	0000045c 	andeq	r0, r0, ip, asr r4
 474:	00008f74 	andeq	r8, r0, r4, ror pc
 478:	0000009c 	muleq	r0, ip, r0
 47c:	83100e42 	tsthi	r0, #1056	; 0x420
 480:	85038404 	strhi	r8, [r3, #-1028]	; 0x404
 484:	00018e02 	andeq	r8, r1, r2, lsl #28
 488:	00000014 	andeq	r0, r0, r4, lsl r0
 48c:	0000045c 	andeq	r0, r0, ip, asr r4
 490:	00009010 	andeq	r9, r0, r0, lsl r0
 494:	0000001c 	andeq	r0, r0, ip, lsl r0
 498:	83080e42 	movwhi	r0, #36418	; 0x8e42
 49c:	00018e02 	andeq	r8, r1, r2, lsl #28
 4a0:	00000014 	andeq	r0, r0, r4, lsl r0
 4a4:	0000045c 	andeq	r0, r0, ip, asr r4
 4a8:	0000902c 	andeq	r9, r0, ip, lsr #32
 4ac:	00000028 	andeq	r0, r0, r8, lsr #32
 4b0:	83080e42 	movwhi	r0, #36418	; 0x8e42
 4b4:	00018e02 	andeq	r8, r1, r2, lsl #28
 4b8:	00000014 	andeq	r0, r0, r4, lsl r0
 4bc:	0000045c 	andeq	r0, r0, ip, asr r4
 4c0:	00009054 	andeq	r9, r0, r4, asr r0
 4c4:	0000001c 	andeq	r0, r0, ip, lsl r0
 4c8:	83080e42 	movwhi	r0, #36418	; 0x8e42
 4cc:	00018e02 	andeq	r8, r1, r2, lsl #28
 4d0:	00000014 	andeq	r0, r0, r4, lsl r0
 4d4:	0000045c 	andeq	r0, r0, ip, asr r4
 4d8:	00009070 	andeq	r9, r0, r0, ror r0
 4dc:	0000002c 	andeq	r0, r0, ip, lsr #32
 4e0:	84080e42 	strhi	r0, [r8], #-3650	; 0xe42
 4e4:	00018e02 	andeq	r8, r1, r2, lsl #28
 4e8:	00000014 	andeq	r0, r0, r4, lsl r0
 4ec:	0000045c 	andeq	r0, r0, ip, asr r4
 4f0:	0000909c 	muleq	r0, ip, r0
 4f4:	0000000c 	andeq	r0, r0, ip
 4f8:	83080e42 	movwhi	r0, #36418	; 0x8e42
 4fc:	00018e02 	andeq	r8, r1, r2, lsl #28
 500:	00000014 	andeq	r0, r0, r4, lsl r0
 504:	0000045c 	andeq	r0, r0, ip, asr r4
 508:	000090a8 	andeq	r9, r0, r8, lsr #1
 50c:	00000020 	andeq	r0, r0, r0, lsr #32
 510:	83080e42 	movwhi	r0, #36418	; 0x8e42
 514:	00018e02 	andeq	r8, r1, r2, lsl #28
 518:	0000000c 	andeq	r0, r0, ip
 51c:	ffffffff 			; <UNDEFINED> instruction: 0xffffffff
 520:	7c020001 	stcvc	0, cr0, [r2], {1}
 524:	000d0c0e 	andeq	r0, sp, lr, lsl #24
 528:	00000018 	andeq	r0, r0, r8, lsl r0
 52c:	00000518 	andeq	r0, r0, r8, lsl r5
 530:	0000912c 	andeq	r9, r0, ip, lsr #2
 534:	000000d4 	ldrdeq	r0, [r0], -r4
 538:	83100e42 	tsthi	r0, #1056	; 0x420
 53c:	85038404 	strhi	r8, [r3, #-1028]	; 0x404
 540:	00018e02 	andeq	r8, r1, r2, lsl #28
 544:	00000014 	andeq	r0, r0, r4, lsl r0
 548:	00000518 	andeq	r0, r0, r8, lsl r5
 54c:	00009200 	andeq	r9, r0, r0, lsl #4
 550:	00000038 	andeq	r0, r0, r8, lsr r0
 554:	83080e42 	movwhi	r0, #36418	; 0x8e42
 558:	00018e02 	andeq	r8, r1, r2, lsl #28
 55c:	00000014 	andeq	r0, r0, r4, lsl r0
 560:	00000518 	andeq	r0, r0, r8, lsl r5
 564:	00009238 	andeq	r9, r0, r8, lsr r2
 568:	00000038 	andeq	r0, r0, r8, lsr r0
 56c:	83080e42 	movwhi	r0, #36418	; 0x8e42
 570:	00018e02 	andeq	r8, r1, r2, lsl #28
 574:	00000018 	andeq	r0, r0, r8, lsl r0
 578:	00000518 	andeq	r0, r0, r8, lsl r5
 57c:	00009270 	andeq	r9, r0, r0, ror r2
 580:	000000cc 	andeq	r0, r0, ip, asr #1
 584:	83100e42 	tsthi	r0, #1056	; 0x420
 588:	85038404 	strhi	r8, [r3, #-1028]	; 0x404
 58c:	00018e02 	andeq	r8, r1, r2, lsl #28
 590:	00000014 	andeq	r0, r0, r4, lsl r0
 594:	00000518 	andeq	r0, r0, r8, lsl r5
 598:	0000933c 	andeq	r9, r0, ip, lsr r3
 59c:	0000004c 	andeq	r0, r0, ip, asr #32
 5a0:	84080e42 	strhi	r0, [r8], #-3650	; 0xe42
 5a4:	00018e02 	andeq	r8, r1, r2, lsl #28
 5a8:	00000014 	andeq	r0, r0, r4, lsl r0
 5ac:	00000518 	andeq	r0, r0, r8, lsl r5
 5b0:	00009388 	andeq	r9, r0, r8, lsl #7
 5b4:	00000024 	andeq	r0, r0, r4, lsr #32
 5b8:	83080e42 	movwhi	r0, #36418	; 0x8e42
 5bc:	00018e02 	andeq	r8, r1, r2, lsl #28
 5c0:	00000018 	andeq	r0, r0, r8, lsl r0
 5c4:	00000518 	andeq	r0, r0, r8, lsl r5
 5c8:	000093ac 	andeq	r9, r0, ip, lsr #7
 5cc:	000000d8 	ldrdeq	r0, [r0], -r8
 5d0:	84100e42 	ldrhi	r0, [r0], #-3650	; 0xe42
 5d4:	86038504 	strhi	r8, [r3], -r4, lsl #10
 5d8:	00018e02 	andeq	r8, r1, r2, lsl #28
 5dc:	00000014 	andeq	r0, r0, r4, lsl r0
 5e0:	00000518 	andeq	r0, r0, r8, lsl r5
 5e4:	00009484 	andeq	r9, r0, r4, lsl #9
 5e8:	00000038 	andeq	r0, r0, r8, lsr r0
 5ec:	83080e42 	movwhi	r0, #36418	; 0x8e42
 5f0:	00018e02 	andeq	r8, r1, r2, lsl #28
 5f4:	00000014 	andeq	r0, r0, r4, lsl r0
 5f8:	00000518 	andeq	r0, r0, r8, lsl r5
 5fc:	000094bc 			; <UNDEFINED> instruction: 0x000094bc
 600:	0000002c 	andeq	r0, r0, ip, lsr #32
 604:	83080e42 	movwhi	r0, #36418	; 0x8e42
 608:	00018e02 	andeq	r8, r1, r2, lsl #28
 60c:	00000018 	andeq	r0, r0, r8, lsl r0
 610:	00000518 	andeq	r0, r0, r8, lsl r5
 614:	000094e8 	andeq	r9, r0, r8, ror #9
 618:	00000084 	andeq	r0, r0, r4, lsl #1
 61c:	83100e42 	tsthi	r0, #1056	; 0x420
 620:	85038404 	strhi	r8, [r3, #-1028]	; 0x404
 624:	00018e02 	andeq	r8, r1, r2, lsl #28
 628:	00000018 	andeq	r0, r0, r8, lsl r0
 62c:	00000518 	andeq	r0, r0, r8, lsl r5
 630:	0000956c 	andeq	r9, r0, ip, ror #10
 634:	00000084 	andeq	r0, r0, r4, lsl #1
 638:	83100e42 	tsthi	r0, #1056	; 0x420
 63c:	85038404 	strhi	r8, [r3, #-1028]	; 0x404
 640:	00018e02 	andeq	r8, r1, r2, lsl #28
 644:	00000014 	andeq	r0, r0, r4, lsl r0
 648:	00000518 	andeq	r0, r0, r8, lsl r5
 64c:	000095f0 	strdeq	r9, [r0], -r0
 650:	00000084 	andeq	r0, r0, r4, lsl #1
 654:	84080e42 	strhi	r0, [r8], #-3650	; 0xe42
 658:	00018e02 	andeq	r8, r1, r2, lsl #28
 65c:	00000014 	andeq	r0, r0, r4, lsl r0
 660:	00000518 	andeq	r0, r0, r8, lsl r5
 664:	00009674 	andeq	r9, r0, r4, ror r6
 668:	00000058 	andeq	r0, r0, r8, asr r0
 66c:	84080e42 	strhi	r0, [r8], #-3650	; 0xe42
 670:	00018e02 	andeq	r8, r1, r2, lsl #28
 674:	0000000c 	andeq	r0, r0, ip
 678:	ffffffff 			; <UNDEFINED> instruction: 0xffffffff
 67c:	7c020001 	stcvc	0, cr0, [r2], {1}
 680:	000d0c0e 	andeq	r0, sp, lr, lsl #24
 684:	00000014 	andeq	r0, r0, r4, lsl r0
 688:	00000674 	andeq	r0, r0, r4, ror r6
 68c:	000096cc 	andeq	r9, r0, ip, asr #13
 690:	00000028 	andeq	r0, r0, r8, lsr #32
 694:	83080e42 	movwhi	r0, #36418	; 0x8e42
 698:	00018e02 	andeq	r8, r1, r2, lsl #28
 69c:	0000000c 	andeq	r0, r0, ip
 6a0:	00000674 	andeq	r0, r0, r4, ror r6
 6a4:	000096f4 	strdeq	r9, [r0], -r4
 6a8:	00000028 	andeq	r0, r0, r8, lsr #32
 6ac:	0000000c 	andeq	r0, r0, ip
 6b0:	ffffffff 			; <UNDEFINED> instruction: 0xffffffff
 6b4:	7c020001 	stcvc	0, cr0, [r2], {1}
 6b8:	000d0c0e 	andeq	r0, sp, lr, lsl #24
 6bc:	0000000c 	andeq	r0, r0, ip
 6c0:	000006ac 	andeq	r0, r0, ip, lsr #13
 6c4:	0000971c 	andeq	r9, r0, ip, lsl r7
 6c8:	00000020 	andeq	r0, r0, r0, lsr #32

Disassembly of section .debug_loc:

00000000 <.debug_loc>:
       0:	00000000 	andeq	r0, r0, r0
       4:	00000010 	andeq	r0, r0, r0, lsl r0
       8:	10500001 	subsne	r0, r0, r1
       c:	44000000 	strmi	r0, [r0], #-0
      10:	01000000 	mrseq	r0, (UNDEF: 0)
      14:	00445500 	subeq	r5, r4, r0, lsl #10
      18:	00b40000 	adcseq	r0, r4, r0
      1c:	00040000 	andeq	r0, r4, r0
      20:	9f5001f3 	svcls	0x005001f3
	...
      2c:	0000001c 	andeq	r0, r0, ip, lsl r0
      30:	00000053 	andeq	r0, r0, r3, asr r0
      34:	58520001 	ldmdapl	r2, {r0}^
      38:	77000000 	strvc	r0, [r0, -r0]
      3c:	01000000 	mrseq	r0, (UNDEF: 0)
      40:	007c5200 	rsbseq	r5, ip, r0, lsl #4
      44:	00970000 	addseq	r0, r7, r0
      48:	00010000 	andeq	r0, r1, r0
      4c:	00009c52 	andeq	r9, r0, r2, asr ip
      50:	0000b400 	andeq	fp, r0, r0, lsl #8
      54:	52000100 	andpl	r0, r0, #0, 2
	...
      60:	0000002c 	andeq	r0, r0, ip, lsr #32
      64:	00000038 	andeq	r0, r0, r8, lsr r0
      68:	9f300002 	svcls	0x00300002
      6c:	00000038 	andeq	r0, r0, r8, lsr r0
      70:	00000038 	andeq	r0, r0, r8, lsr r0
      74:	38540001 	ldmdacc	r4, {r0}^
      78:	40000000 	andmi	r0, r0, r0
      7c:	02000000 	andeq	r0, r0, #0
      80:	409f3000 	addsmi	r3, pc, r0
      84:	b4000000 	strlt	r0, [r0], #-0
      88:	01000000 	mrseq	r0, (UNDEF: 0)
      8c:	00005400 	andeq	r5, r0, r0, lsl #8
      90:	00000000 	andeq	r0, r0, r0
      94:	001c0000 	andseq	r0, ip, r0
      98:	00530000 	subseq	r0, r3, r0
      9c:	00010000 	andeq	r0, r1, r0
      a0:	00000052 	andeq	r0, r0, r2, asr r0
      a4:	00000000 	andeq	r0, r0, r0
      a8:	00002000 	andeq	r2, r0, r0
      ac:	00002400 	andeq	r2, r0, r0, lsl #8
      b0:	53000100 	movwpl	r0, #256	; 0x100
	...
      bc:	00000058 	andeq	r0, r0, r8, asr r0
      c0:	00000077 	andeq	r0, r0, r7, ror r0
      c4:	00520001 	subseq	r0, r2, r1
      c8:	00000000 	andeq	r0, r0, r0
      cc:	5c000000 	stcpl	0, cr0, [r0], {-0}
      d0:	60000000 	andvs	r0, r0, r0
      d4:	01000000 	mrseq	r0, (UNDEF: 0)
      d8:	00005300 	andeq	r5, r0, r0, lsl #6
      dc:	00000000 	andeq	r0, r0, r0
      e0:	007c0000 	rsbseq	r0, ip, r0
      e4:	00970000 	addseq	r0, r7, r0
      e8:	00010000 	andeq	r0, r1, r0
      ec:	00000052 	andeq	r0, r0, r2, asr r0
      f0:	00000000 	andeq	r0, r0, r0
      f4:	00008000 	andeq	r8, r0, r0
      f8:	00008400 	andeq	r8, r0, r0, lsl #8
      fc:	53000100 	movwpl	r0, #256	; 0x100
	...
     108:	000000a0 	andeq	r0, r0, r0, lsr #1
     10c:	000000a4 	andeq	r0, r0, r4, lsr #1
     110:	00530001 	subseq	r0, r3, r1
     114:	00000000 	andeq	r0, r0, r0
     118:	b4000000 	strlt	r0, [r0], #-0
     11c:	bb000000 	bllt	124 <_start-0x7edc>
     120:	01000000 	mrseq	r0, (UNDEF: 0)
     124:	00bb5000 	adcseq	r5, fp, r0
     128:	00e00000 	rsceq	r0, r0, r0
     12c:	00040000 	andeq	r0, r4, r0
     130:	9f5001f3 	svcls	0x005001f3
	...
     13c:	000000e0 	andeq	r0, r0, r0, ror #1
     140:	000000e7 	andeq	r0, r0, r7, ror #1
     144:	e7500001 	ldrb	r0, [r0, -r1]
     148:	0c000000 	stceq	0, cr0, [r0], {-0}
     14c:	04000001 	streq	r0, [r0], #-1
     150:	5001f300 	andpl	pc, r1, r0, lsl #6
     154:	0000009f 	muleq	r0, pc, r0	; <UNPREDICTABLE>
     158:	00000000 	andeq	r0, r0, r0
     15c:	00002c00 	andeq	r2, r0, r0, lsl #24
     160:	00003800 	andeq	r3, r0, r0, lsl #16
     164:	50000100 	andpl	r0, r0, r0, lsl #2
     168:	00000038 	andeq	r0, r0, r8, lsr r0
     16c:	00000048 	andeq	r0, r0, r8, asr #32
     170:	48550001 	ldmdami	r5, {r0}^
     174:	58000000 	stmdapl	r0, {}	; <UNPREDICTABLE>
     178:	01000000 	mrseq	r0, (UNDEF: 0)
     17c:	00005000 	andeq	r5, r0, r0
	...
     188:	000b0000 	andeq	r0, fp, r0
     18c:	00010000 	andeq	r0, r1, r0
     190:	00000b50 	andeq	r0, r0, r0, asr fp
     194:	00001400 	andeq	r1, r0, r0, lsl #8
     198:	54000100 	strpl	r0, [r0], #-256	; 0x100
	...
     1a8:	00000010 	andeq	r0, r0, r0, lsl r0
     1ac:	10500001 	subsne	r0, r0, r1
     1b0:	34000000 	strcc	r0, [r0], #-0
     1b4:	01000000 	mrseq	r0, (UNDEF: 0)
     1b8:	00005400 	andeq	r5, r0, r0, lsl #8
	...
     1c4:	00040000 	andeq	r0, r4, r0
     1c8:	00010000 	andeq	r0, r1, r0
     1cc:	00000450 	andeq	r0, r0, r0, asr r4
     1d0:	00000c00 	andeq	r0, r0, r0, lsl #24
     1d4:	70000300 	andvc	r0, r0, r0, lsl #6
     1d8:	000c9f30 	andeq	r9, ip, r0, lsr pc
     1dc:	00140000 	andseq	r0, r4, r0
     1e0:	00040000 	andeq	r0, r4, r0
     1e4:	9f5001f3 	svcls	0x005001f3
	...
     1f0:	00000014 	andeq	r0, r0, r4, lsl r0
     1f4:	00000020 	andeq	r0, r0, r0, lsr #32
     1f8:	20500001 	subscs	r0, r0, r1
     1fc:	2c000000 	stccs	0, cr0, [r0], {-0}
     200:	03000000 	movweq	r0, #0
     204:	9f017000 	svcls	0x00017000
     208:	0000002c 	andeq	r0, r0, ip, lsr #32
     20c:	00000040 	andeq	r0, r0, r0, asr #32
     210:	00500001 	subseq	r0, r0, r1
     214:	00000000 	andeq	r0, r0, r0
     218:	14000000 	strne	r0, [r0], #-0
     21c:	18000000 	stmdane	r0, {}	; <UNPREDICTABLE>
     220:	01000000 	mrseq	r0, (UNDEF: 0)
     224:	00185100 	andseq	r5, r8, r0, lsl #2
     228:	00400000 	subeq	r0, r0, r0
     22c:	00040000 	andeq	r0, r4, r0
     230:	9f5101f3 	svcls	0x005101f3
	...
     23c:	00000040 	andeq	r0, r0, r0, asr #32
     240:	00000060 	andeq	r0, r0, r0, rrx
     244:	60500001 	subsvs	r0, r0, r1
     248:	6c000000 	stcvs	0, cr0, [r0], {-0}
     24c:	03000000 	movweq	r0, #0
     250:	9f017100 	svcls	0x00017100
     254:	0000006c 	andeq	r0, r0, ip, rrx
     258:	00000074 	andeq	r0, r0, r4, ror r0
     25c:	74510001 	ldrbvc	r0, [r1], #-1
     260:	80000000 	andhi	r0, r0, r0
     264:	03000000 	movweq	r0, #0
     268:	9f017100 	svcls	0x00017100
	...
     274:	00000040 	andeq	r0, r0, r0, asr #32
     278:	00000050 	andeq	r0, r0, r0, asr r0
     27c:	50510001 	subspl	r0, r1, r1
     280:	80000000 	andhi	r0, r0, r0
     284:	04000000 	streq	r0, [r0], #-0
     288:	5101f300 	mrspl	pc, SP_irq	; <UNPREDICTABLE>
     28c:	0000009f 	muleq	r0, pc, r0	; <UNPREDICTABLE>
     290:	00000000 	andeq	r0, r0, r0
     294:	00004000 	andeq	r4, r0, r0
     298:	00005800 	andeq	r5, r0, r0, lsl #16
     29c:	52000100 	andpl	r0, r0, #0, 2
     2a0:	00000058 	andeq	r0, r0, r8, asr r0
     2a4:	00000064 	andeq	r0, r0, r4, rrx
     2a8:	64520001 	ldrbvs	r0, [r2], #-1
     2ac:	68000000 	stmdavs	r0, {}	; <UNPREDICTABLE>
     2b0:	03000000 	movweq	r0, #0
     2b4:	9f017200 	svcls	0x00017200
     2b8:	00000068 	andeq	r0, r0, r8, rrx
     2bc:	00000080 	andeq	r0, r0, r0, lsl #1
     2c0:	00520001 	subseq	r0, r2, r1
     2c4:	00000000 	andeq	r0, r0, r0
     2c8:	40000000 	andmi	r0, r0, r0
     2cc:	54000000 	strpl	r0, [r0], #-0
     2d0:	01000000 	mrseq	r0, (UNDEF: 0)
     2d4:	00545300 	subseq	r5, r4, r0, lsl #6
     2d8:	00780000 	rsbseq	r0, r8, r0
     2dc:	00010000 	andeq	r0, r1, r0
     2e0:	00000053 	andeq	r0, r0, r3, asr r0
     2e4:	00000000 	andeq	r0, r0, r0
     2e8:	00004800 	andeq	r4, r0, r0, lsl #16
     2ec:	00006000 	andeq	r6, r0, r0
     2f0:	5c000100 	stfpls	f0, [r0], {-0}
     2f4:	00000060 	andeq	r0, r0, r0, rrx
     2f8:	00000080 	andeq	r0, r0, r0, lsl #1
     2fc:	01f3000a 	mvnseq	r0, sl
     300:	5301f352 	movwpl	pc, #4946	; 0x1352	; <UNPREDICTABLE>
     304:	9f01231c 	svcls	0x0001231c
	...
     310:	00000080 	andeq	r0, r0, r0, lsl #1
     314:	000000a4 	andeq	r0, r0, r4, lsr #1
     318:	a4500001 	ldrbge	r0, [r0], #-1
     31c:	18000000 	stmdane	r0, {}	; <UNPREDICTABLE>
     320:	03000001 	movweq	r0, #1
     324:	9f027000 	svcls	0x00027000
     328:	00000118 	andeq	r0, r0, r8, lsl r1
     32c:	00000228 	andeq	r0, r0, r8, lsr #4
     330:	01f30004 	mvnseq	r0, r4
     334:	00009f50 	andeq	r9, r0, r0, asr pc
     338:	00000000 	andeq	r0, r0, r0
     33c:	00800000 	addeq	r0, r0, r0
     340:	00f00000 	rscseq	r0, r0, r0
     344:	00010000 	andeq	r0, r1, r0
     348:	0000f051 	andeq	pc, r0, r1, asr r0	; <UNPREDICTABLE>
     34c:	00016000 	andeq	r6, r1, r0
     350:	55000100 	strpl	r0, [r0, #-256]	; 0x100
     354:	00000160 	andeq	r0, r0, r0, ror #2
     358:	00000168 	andeq	r0, r0, r8, ror #2
     35c:	68510001 	ldmdavs	r1, {r0}^
     360:	88000001 	stmdahi	r0, {r0}
     364:	01000001 	tsteq	r0, r1
     368:	01885500 	orreq	r5, r8, r0, lsl #10
     36c:	019c0000 	orrseq	r0, ip, r0
     370:	00010000 	andeq	r0, r1, r0
     374:	00019c51 	andeq	r9, r1, r1, asr ip
     378:	0001bc00 	andeq	fp, r1, r0, lsl #24
     37c:	55000100 	strpl	r0, [r0, #-256]	; 0x100
     380:	000001bc 			; <UNDEFINED> instruction: 0x000001bc
     384:	000001bf 			; <UNDEFINED> instruction: 0x000001bf
     388:	bf510001 	svclt	0x00510001
     38c:	08000001 	stmdaeq	r0, {r0}
     390:	01000002 	tsteq	r0, r2
     394:	02085500 	andeq	r5, r8, #0, 10
     398:	02280000 	eoreq	r0, r8, #0
     39c:	00040000 	andeq	r0, r4, r0
     3a0:	9f5101f3 	svcls	0x005101f3
	...
     3ac:	00000080 	andeq	r0, r0, r0, lsl #1
     3b0:	00000094 	muleq	r0, r4, r0
     3b4:	94520001 	ldrbls	r0, [r2], #-1
     3b8:	08000000 	stmdaeq	r0, {}	; <UNPREDICTABLE>
     3bc:	01000002 	tsteq	r0, r2
     3c0:	02085400 	andeq	r5, r8, #0, 8
     3c4:	02280000 	eoreq	r0, r8, #0
     3c8:	00040000 	andeq	r0, r4, r0
     3cc:	9f5201f3 	svcls	0x005201f3
	...
     3d8:	00000080 	andeq	r0, r0, r0, lsl #1
     3dc:	00000100 	andeq	r0, r0, r0, lsl #2
     3e0:	04530001 	ldrbeq	r0, [r3], #-1
     3e4:	08000001 	stmdaeq	r0, {r0}
     3e8:	01000001 	tsteq	r0, r1
     3ec:	01605300 	cmneq	r0, r0, lsl #6
     3f0:	01680000 	cmneq	r8, r0
     3f4:	00010000 	andeq	r0, r1, r0
     3f8:	00016853 	andeq	r6, r1, r3, asr r8
     3fc:	00018800 	andeq	r8, r1, r0, lsl #16
     400:	f3000400 	vshl.u8	d0, d0, d0
     404:	889f5301 	ldmhi	pc, {r0, r8, r9, ip, lr}	; <UNPREDICTABLE>
     408:	90000001 	andls	r0, r0, r1
     40c:	01000001 	tsteq	r0, r1
     410:	01905300 	orrseq	r5, r0, r0, lsl #6
     414:	01940000 	orrseq	r0, r4, r0
     418:	00010000 	andeq	r0, r1, r0
     41c:	0001945c 	andeq	r9, r1, ip, asr r4
     420:	00019c00 	andeq	r9, r1, r0, lsl #24
     424:	53000100 	movwpl	r0, #256	; 0x100
     428:	0000019c 	muleq	r0, ip, r1
     42c:	000001bc 			; <UNDEFINED> instruction: 0x000001bc
     430:	01f30004 	mvnseq	r0, r4
     434:	01bc9f53 			; <UNDEFINED> instruction: 0x01bc9f53
     438:	01bf0000 			; <UNDEFINED> instruction: 0x01bf0000
     43c:	00010000 	andeq	r0, r1, r0
     440:	0001bf53 	andeq	fp, r1, r3, asr pc
     444:	0001e000 	andeq	lr, r1, r0
     448:	f3000400 	vshl.u8	d0, d0, d0
     44c:	009f5301 	addseq	r5, pc, r1, lsl #6
     450:	00000000 	andeq	r0, r0, r0
     454:	80000000 	andhi	r0, r0, r0
     458:	9c000000 	stcls	0, cr0, [r0], {-0}
     45c:	02000000 	andeq	r0, r0, #0
     460:	9c009100 	stflsd	f1, [r0], {-0}
     464:	bf000000 	svclt	0x00000000
     468:	01000001 	tsteq	r0, r1
     46c:	01e05200 	mvneq	r5, r0, lsl #4
     470:	01eb0000 	mvneq	r0, r0
     474:	00010000 	andeq	r0, r1, r0
     478:	00000052 	andeq	r0, r0, r2, asr r0
     47c:	00000000 	andeq	r0, r0, r0
     480:	00009c00 	andeq	r9, r0, r0, lsl #24
     484:	00010c00 	andeq	r0, r1, r0, lsl #24
     488:	91000400 	tstls	r0, r0, lsl #8
     48c:	0c9f7fa0 	ldceq	15, cr7, [pc], {160}	; 0xa0
     490:	18000001 	stmdane	r0, {r0}
     494:	01000001 	tsteq	r0, r1
     498:	01185100 	tsteq	r8, r0, lsl #2
     49c:	011c0000 	tsteq	ip, r0
     4a0:	00010000 	andeq	r0, r1, r0
     4a4:	00011c53 	andeq	r1, r1, r3, asr ip
     4a8:	00012000 	andeq	r2, r1, r0
     4ac:	51000100 	mrspl	r0, (UNDEF: 16)
     4b0:	00000120 	andeq	r0, r0, r0, lsr #2
     4b4:	00000160 	andeq	r0, r0, r0, ror #2
     4b8:	60530001 	subsvs	r0, r3, r1
     4bc:	64000001 	strvs	r0, [r0], #-1
     4c0:	04000001 	streq	r0, [r0], #-1
     4c4:	7fa09100 	svcvc	0x00a09100
     4c8:	0001649f 	muleq	r1, pc, r4	; <UNPREDICTABLE>
     4cc:	00016c00 	andeq	r6, r1, r0, lsl #24
     4d0:	5e000100 	adfpls	f0, f0, f0
     4d4:	0000016c 	andeq	r0, r0, ip, ror #2
     4d8:	00000188 	andeq	r0, r0, r8, lsl #3
     4dc:	88530001 	ldmdahi	r3, {r0}^
     4e0:	90000001 	andls	r0, r0, r1
     4e4:	04000001 	streq	r0, [r0], #-1
     4e8:	7fa19100 	svcvc	0x00a19100
     4ec:	0001909f 	muleq	r1, pc, r0	; <UNPREDICTABLE>
     4f0:	00019400 	andeq	r9, r1, r0, lsl #8
     4f4:	53000100 	movwpl	r0, #256	; 0x100
     4f8:	00000194 	muleq	r0, r4, r1
     4fc:	00000198 	muleq	r0, r8, r1
     500:	a0910004 	addsge	r0, r1, r4
     504:	01989f7f 	orrseq	r9, r8, pc, ror pc
     508:	01a00000 	moveq	r0, r0
     50c:	00010000 	andeq	r0, r1, r0
     510:	0001a05e 	andeq	sl, r1, lr, asr r0
     514:	0001bc00 	andeq	fp, r1, r0, lsl #24
     518:	53000100 	movwpl	r0, #256	; 0x100
     51c:	000001bc 			; <UNDEFINED> instruction: 0x000001bc
     520:	000001e0 	andeq	r0, r0, r0, ror #3
     524:	a0910004 	addsge	r0, r1, r4
     528:	01e09f7f 	mvneq	r9, pc, ror pc
     52c:	01eb0000 	mvneq	r0, r0
     530:	00010000 	andeq	r0, r1, r0
     534:	00000053 	andeq	r0, r0, r3, asr r0
     538:	00000000 	andeq	r0, r0, r0
     53c:	0000a000 	andeq	sl, r0, r0
     540:	0000ec00 	andeq	lr, r0, r0, lsl #24
     544:	5c000100 	stfpls	f0, [r0], {-0}
     548:	000000ec 	andeq	r0, r0, ip, ror #1
     54c:	00000100 	andeq	r0, r0, r0, lsl #2
     550:	00530001 	subseq	r0, r3, r1
     554:	04000001 	streq	r0, [r0], #-1
     558:	01000001 	tsteq	r0, r1
     55c:	01045c00 	tsteq	r4, r0, lsl #24
     560:	01080000 	mrseq	r0, (UNDEF: 8)
     564:	00010000 	andeq	r0, r1, r0
     568:	00010853 	andeq	r0, r1, r3, asr r8
     56c:	00011800 	andeq	r1, r1, r0, lsl #16
     570:	5c000100 	stfpls	f0, [r0], {-0}
     574:	00000118 	andeq	r0, r0, r8, lsl r1
     578:	0000011c 	andeq	r0, r0, ip, lsl r1
     57c:	1c500001 	mrrcne	0, 0, r0, r0, cr1	; <UNPREDICTABLE>
     580:	3c000001 	stccc	0, cr0, [r0], {1}
     584:	01000001 	tsteq	r0, r1
     588:	01445c00 	cmpeq	r4, r0, lsl #24
     58c:	01580000 	cmpeq	r8, r0
     590:	00010000 	andeq	r0, r1, r0
     594:	00015850 	andeq	r5, r1, r0, asr r8
     598:	00016000 	andeq	r6, r1, r0
     59c:	5c000100 	stfpls	f0, [r0], {-0}
     5a0:	00000160 	andeq	r0, r0, r0, ror #2
     5a4:	00000168 	andeq	r0, r0, r8, ror #2
     5a8:	68530001 	ldmdavs	r3, {r0}^
     5ac:	78000001 	stmdavc	r0, {r0}
     5b0:	01000001 	tsteq	r0, r1
     5b4:	01785c00 	cmneq	r8, r0, lsl #24
     5b8:	01800000 	orreq	r0, r0, r0
     5bc:	00050000 	andeq	r0, r5, r0
     5c0:	2534007c 	ldrcs	r0, [r4, #-124]!	; 0x7c
     5c4:	0001809f 	muleq	r1, pc, r0	; <UNPREDICTABLE>
     5c8:	00018800 	andeq	r8, r1, r0, lsl #16
     5cc:	5c000100 	stfpls	f0, [r0], {-0}
     5d0:	00000188 	andeq	r0, r0, r8, lsl #3
     5d4:	00000190 	muleq	r0, r0, r1
     5d8:	90530001 	subsls	r0, r3, r1
     5dc:	94000001 	strls	r0, [r0], #-1
     5e0:	01000001 	tsteq	r0, r1
     5e4:	01945c00 	orrseq	r5, r4, r0, lsl #24
     5e8:	019c0000 	orrseq	r0, ip, r0
     5ec:	00010000 	andeq	r0, r1, r0
     5f0:	00019c53 	andeq	r9, r1, r3, asr ip
     5f4:	0001ac00 	andeq	sl, r1, r0, lsl #24
     5f8:	5c000100 	stfpls	f0, [r0], {-0}
     5fc:	000001ac 	andeq	r0, r0, ip, lsr #3
     600:	000001b4 			; <UNDEFINED> instruction: 0x000001b4
     604:	007c0005 	rsbseq	r0, ip, r5
     608:	b49f2531 	ldrlt	r2, [pc], #1329	; 610 <_start-0x79f0>
     60c:	bc000001 	stclt	0, cr0, [r0], {1}
     610:	01000001 	tsteq	r0, r1
     614:	01bc5c00 			; <UNDEFINED> instruction: 0x01bc5c00
     618:	01bf0000 			; <UNDEFINED> instruction: 0x01bf0000
     61c:	00010000 	andeq	r0, r1, r0
     620:	0001bf53 	andeq	fp, r1, r3, asr pc
     624:	0001e000 	andeq	lr, r1, r0
     628:	f3000400 	vshl.u8	d0, d0, d0
     62c:	e09f5301 	adds	r5, pc, r1, lsl #6
     630:	eb000001 	bl	63c <_start-0x79c4>
     634:	01000001 	tsteq	r0, r1
     638:	00005c00 	andeq	r5, r0, r0, lsl #24
     63c:	00000000 	andeq	r0, r0, r0
     640:	00ec0000 	rsceq	r0, ip, r0
     644:	00fc0000 	rscseq	r0, ip, r0
     648:	00020000 	andeq	r0, r2, r0
     64c:	00fc9f30 	rscseq	r9, ip, r0, lsr pc
     650:	01040000 	mrseq	r0, (UNDEF: 4)
     654:	00020000 	andeq	r0, r2, r0
     658:	01049f31 	tsteq	r4, r1, lsr pc
     65c:	01080000 	mrseq	r0, (UNDEF: 8)
     660:	00020000 	andeq	r0, r2, r0
     664:	00009f30 	andeq	r9, r0, r0, lsr pc
     668:	00000000 	andeq	r0, r0, r0
     66c:	02280000 	eoreq	r0, r8, #0
     670:	023b0000 	eorseq	r0, fp, #0
     674:	00010000 	andeq	r0, r1, r0
     678:	00023b50 	andeq	r3, r2, r0, asr fp
     67c:	00025c00 	andeq	r5, r2, r0, lsl #24
     680:	f3000400 	vshl.u8	d0, d0, d0
     684:	5c9f5001 	ldcpl	0, cr5, [pc], {1}
     688:	90000002 	andls	r0, r0, r2
     68c:	01000002 	tsteq	r0, r2
     690:	00005000 	andeq	r5, r0, r0
     694:	00000000 	andeq	r0, r0, r0
     698:	02280000 	eoreq	r0, r8, #0
     69c:	023b0000 	eorseq	r0, fp, #0
     6a0:	00010000 	andeq	r0, r1, r0
     6a4:	00023b51 	andeq	r3, r2, r1, asr fp
     6a8:	00025c00 	andeq	r5, r2, r0, lsl #24
     6ac:	f3000400 	vshl.u8	d0, d0, d0
     6b0:	5c9f5101 	ldfpls	f5, [pc], {1}
     6b4:	90000002 	andls	r0, r0, r2
     6b8:	01000002 	tsteq	r0, r2
     6bc:	00005100 	andeq	r5, r0, r0, lsl #2
     6c0:	00000000 	andeq	r0, r0, r0
     6c4:	02900000 	addseq	r0, r0, #0
     6c8:	02bc0000 	adcseq	r0, ip, #0
     6cc:	00010000 	andeq	r0, r1, r0
     6d0:	0002bc50 	andeq	fp, r2, r0, asr ip
     6d4:	00050c00 	andeq	r0, r5, r0, lsl #24
     6d8:	5a000100 	bpl	ae0 <_start-0x7520>
     6dc:	0000050c 	andeq	r0, r0, ip, lsl #10
     6e0:	00000524 	andeq	r0, r0, r4, lsr #10
     6e4:	01f30004 	mvnseq	r0, r4
     6e8:	00009f50 	andeq	r9, r0, r0, asr pc
     6ec:	00000000 	andeq	r0, r0, r0
     6f0:	02900000 	addseq	r0, r0, #0
     6f4:	02a40000 	adceq	r0, r4, #0
     6f8:	00010000 	andeq	r0, r1, r0
     6fc:	0002a451 	andeq	sl, r2, r1, asr r4
     700:	0002bc00 	andeq	fp, r2, r0, lsl #24
     704:	71000300 	mrsvc	r0, LR_irq
     708:	02bc9f01 	adcseq	r9, ip, #1, 30
     70c:	05240000 	streq	r0, [r4, #-0]!
     710:	00040000 	andeq	r0, r4, r0
     714:	9f5101f3 	svcls	0x005101f3
	...
     720:	00000290 	muleq	r0, r0, r2
     724:	000002c4 	andeq	r0, r0, r4, asr #5
     728:	c4520001 	ldrbgt	r0, [r2], #-1
     72c:	ec000002 	stc	0, cr0, [r0], {2}
     730:	01000002 	tsteq	r0, r2
     734:	02ec5200 	rsceq	r5, ip, #0, 4
     738:	04bc0000 	ldrteq	r0, [ip], #0
     73c:	00010000 	andeq	r0, r1, r0
     740:	0004bc56 	andeq	fp, r4, r6, asr ip
     744:	00052400 	andeq	r2, r5, r0, lsl #8
     748:	52000100 	andpl	r0, r0, #0, 2
	...
     754:	00000290 	muleq	r0, r0, r2
     758:	000002ac 	andeq	r0, r0, ip, lsr #5
     75c:	00530001 	subseq	r0, r3, r1
     760:	00000000 	andeq	r0, r0, r0
     764:	a0000000 	andge	r0, r0, r0
     768:	bc000002 	stclt	0, cr0, [r0], {2}
     76c:	01000002 	tsteq	r0, r2
     770:	02bc5000 	adcseq	r5, ip, #0
     774:	02c00000 	sbceq	r0, r0, #0
     778:	00010000 	andeq	r0, r1, r0
     77c:	0002c054 	andeq	ip, r2, r4, asr r0
     780:	0002cc00 	andeq	ip, r2, r0, lsl #24
     784:	74000300 	strvc	r0, [r0], #-768	; 0x300
     788:	02cc9f01 	sbceq	r9, ip, #1, 30
     78c:	02d80000 	sbcseq	r0, r8, #0
     790:	00010000 	andeq	r0, r1, r0
     794:	0002d854 	andeq	sp, r2, r4, asr r8
     798:	0002e400 	andeq	lr, r2, r0, lsl #8
     79c:	74000300 	strvc	r0, [r0], #-768	; 0x300
     7a0:	02e49f01 	rsceq	r9, r4, #1, 30
     7a4:	04c00000 	strbeq	r0, [r0], #0
     7a8:	00010000 	andeq	r0, r1, r0
     7ac:	0004c054 	andeq	ip, r4, r4, asr r0
     7b0:	0004cc00 	andeq	ip, r4, r0, lsl #24
     7b4:	74000300 	strvc	r0, [r0], #-768	; 0x300
     7b8:	04cc9f01 	strbeq	r9, [ip], #3841	; 0xf01
     7bc:	04f80000 	ldrbteq	r0, [r8], #0
     7c0:	00010000 	andeq	r0, r1, r0
     7c4:	0004f854 	andeq	pc, r4, r4, asr r8	; <UNPREDICTABLE>
     7c8:	00050400 	andeq	r0, r5, r0, lsl #8
     7cc:	50000100 	andpl	r0, r0, r0, lsl #2
     7d0:	00000504 	andeq	r0, r0, r4, lsl #10
     7d4:	0000050c 	andeq	r0, r0, ip, lsl #10
     7d8:	01740003 	cmneq	r4, r3
     7dc:	0000009f 	muleq	r0, pc, r0	; <UNPREDICTABLE>
     7e0:	00000000 	andeq	r0, r0, r0
     7e4:	0002a800 	andeq	sl, r2, r0, lsl #16
     7e8:	00050c00 	andeq	r0, r5, r0, lsl #24
     7ec:	58000100 	stmdapl	r0, {r8}
     7f0:	0000050c 	andeq	r0, r0, ip, lsl #10
     7f4:	00000524 	andeq	r0, r0, r4, lsr #10
     7f8:	01f3000a 	mvnseq	r0, sl
     7fc:	5001f351 	andpl	pc, r1, r1, asr r3	; <UNPREDICTABLE>
     800:	9f1c3122 	svcls	0x001c3122
	...
     80c:	000003f4 	strdeq	r0, [r0], -r4
     810:	000003f8 	strdeq	r0, [r0], -r8
     814:	18500001 	ldmdane	r0, {r0}^
     818:	1c000004 	stcne	0, cr0, [r0], {4}
     81c:	01000004 	tsteq	r0, r4
     820:	043c5000 	ldrteq	r5, [ip], #-0
     824:	04400000 	strbeq	r0, [r0], #-0
     828:	00010000 	andeq	r0, r1, r0
     82c:	00046050 	andeq	r6, r4, r0, asr r0
     830:	00046400 	andeq	r6, r4, r0, lsl #8
     834:	50000100 	andpl	r0, r0, r0, lsl #2
     838:	0000046c 	andeq	r0, r0, ip, ror #8
     83c:	00000470 	andeq	r0, r0, r0, ror r4
     840:	90500001 	subsls	r0, r0, r1
     844:	94000004 	strls	r0, [r0], #-4
     848:	01000004 	tsteq	r0, r4
     84c:	04b85000 	ldrteq	r5, [r8], #0
     850:	04e00000 	strbteq	r0, [r0], #0
     854:	00010000 	andeq	r0, r1, r0
     858:	00000050 	andeq	r0, r0, r0, asr r0
     85c:	00000000 	andeq	r0, r0, r0
     860:	0002ec00 	andeq	lr, r2, r0, lsl #24
     864:	0002f400 	andeq	pc, r2, r0, lsl #8
     868:	30000200 	andcc	r0, r0, r0, lsl #4
     86c:	0002f49f 	muleq	r2, pc, r4	; <UNPREDICTABLE>
     870:	0002f800 	andeq	pc, r2, r0, lsl #16
     874:	57000100 	strpl	r0, [r0, -r0, lsl #2]
     878:	00000304 	andeq	r0, r0, r4, lsl #6
     87c:	000004e0 	andeq	r0, r0, r0, ror #9
     880:	00570001 	subseq	r0, r7, r1
	...
     88c:	0c000000 	stceq	0, cr0, [r0], {-0}
     890:	01000000 	mrseq	r0, (UNDEF: 0)
     894:	000c5000 	andeq	r5, ip, r0
     898:	00200000 	eoreq	r0, r0, r0
     89c:	00010000 	andeq	r0, r1, r0
     8a0:	00000054 	andeq	r0, r0, r4, asr r0
     8a4:	00000000 	andeq	r0, r0, r0
     8a8:	00003400 	andeq	r3, r0, r0, lsl #8
     8ac:	00003c00 	andeq	r3, r0, r0, lsl #24
     8b0:	73000300 	movwvc	r0, #768	; 0x300
     8b4:	003c9f04 	eorseq	r9, ip, r4, lsl #30
     8b8:	00470000 	subeq	r0, r7, r0
     8bc:	00010000 	andeq	r0, r1, r0
     8c0:	00000053 	andeq	r0, r0, r3, asr r0
     8c4:	00000000 	andeq	r0, r0, r0
     8c8:	00004800 	andeq	r4, r0, r0, lsl #16
     8cc:	00007400 	andeq	r7, r0, r0, lsl #8
     8d0:	50000100 	andpl	r0, r0, r0, lsl #2
     8d4:	00000074 	andeq	r0, r0, r4, ror r0
     8d8:	00000083 	andeq	r0, r0, r3, lsl #1
     8dc:	78730003 	ldmdavc	r3!, {r0, r1}^
     8e0:	0000009f 	muleq	r0, pc, r0	; <UNPREDICTABLE>
     8e4:	00000000 	andeq	r0, r0, r0
     8e8:	00881000 	addeq	r1, r8, r0
     8ec:	00881400 	addeq	r1, r8, r0, lsl #8
     8f0:	30000200 	andcc	r0, r0, r0, lsl #4
     8f4:	0088149f 	umulleq	r1, r8, pc, r4	; <UNPREDICTABLE>
     8f8:	00881800 	addeq	r1, r8, r0, lsl #16
     8fc:	50000100 	andpl	r0, r0, r0, lsl #2
	...
     908:	00008828 	andeq	r8, r0, r8, lsr #16
     90c:	0000882c 	andeq	r8, r0, ip, lsr #16
     910:	9f300002 	svcls	0x00300002
     914:	0000882c 	andeq	r8, r0, ip, lsr #16
     918:	00008830 	andeq	r8, r0, r0, lsr r8
     91c:	34530001 	ldrbcc	r0, [r3], #-1
     920:	3c000088 	stccc	0, cr0, [r0], {136}	; 0x88
     924:	01000088 	smlabbeq	r0, r8, r0, r0
     928:	00005300 	andeq	r5, r0, r0, lsl #6
	...
     934:	00040000 	andeq	r0, r4, r0
     938:	00010000 	andeq	r0, r1, r0
     93c:	00000450 	andeq	r0, r0, r0, asr r4
     940:	00000c00 	andeq	r0, r0, r0, lsl #24
     944:	53000100 	movwpl	r0, #256	; 0x100
     948:	0000000c 	andeq	r0, r0, ip
     94c:	00000010 	andeq	r0, r0, r0, lsl r0
     950:	10500001 	subsne	r0, r0, r1
     954:	1c000000 	stcne	0, cr0, [r0], {-0}
     958:	01000000 	mrseq	r0, (UNDEF: 0)
     95c:	00005300 	andeq	r5, r0, r0, lsl #6
     960:	00000000 	andeq	r0, r0, r0
     964:	003c0000 	eorseq	r0, ip, r0
     968:	00470000 	subeq	r0, r7, r0
     96c:	00010000 	andeq	r0, r1, r0
     970:	00004750 	andeq	r4, r0, r0, asr r7
     974:	00006000 	andeq	r6, r0, r0
     978:	55000100 	strpl	r0, [r0, #-256]	; 0x100
	...
     984:	00000050 	andeq	r0, r0, r0, asr r0
     988:	00000054 	andeq	r0, r0, r4, asr r0
     98c:	00500001 	subseq	r0, r0, r1
     990:	00000000 	andeq	r0, r0, r0
     994:	60000000 	andvs	r0, r0, r0
     998:	6c000000 	stcvs	0, cr0, [r0], {-0}
     99c:	01000000 	mrseq	r0, (UNDEF: 0)
     9a0:	006c5000 	rsbeq	r5, ip, r0
     9a4:	00740000 	rsbseq	r0, r4, r0
     9a8:	00040000 	andeq	r0, r4, r0
     9ac:	9f5001f3 	svcls	0x005001f3
	...
     9b8:	00000074 	andeq	r0, r0, r4, ror r0
     9bc:	00000080 	andeq	r0, r0, r0, lsl #1
     9c0:	80500001 	subshi	r0, r0, r1
     9c4:	88000000 	stmdahi	r0, {}	; <UNPREDICTABLE>
     9c8:	04000000 	streq	r0, [r0], #-0
     9cc:	5001f300 	andpl	pc, r1, r0, lsl #6
     9d0:	0000009f 	muleq	r0, pc, r0	; <UNPREDICTABLE>
	...
     9dc:	00001800 	andeq	r1, r0, r0, lsl #16
     9e0:	50000100 	andpl	r0, r0, r0, lsl #2
     9e4:	00000018 	andeq	r0, r0, r8, lsl r0
     9e8:	00000154 	andeq	r0, r0, r4, asr r1
     9ec:	01f30004 	mvnseq	r0, r4
     9f0:	00009f50 	andeq	r9, r0, r0, asr pc
	...
     9fc:	001c0000 	andseq	r0, ip, r0
     a00:	00010000 	andeq	r0, r1, r0
     a04:	00001c51 	andeq	r1, r0, r1, asr ip
     a08:	00015400 	andeq	r5, r1, r0, lsl #8
     a0c:	f3000400 	vshl.u8	d0, d0, d0
     a10:	009f5101 	addseq	r5, pc, r1, lsl #2
     a14:	00000000 	andeq	r0, r0, r0
     a18:	10000000 	andne	r0, r0, r0
     a1c:	34000000 	strcc	r0, [r0], #-0
     a20:	01000001 	tsteq	r0, r1
     a24:	00005500 	andeq	r5, r0, r0, lsl #10
     a28:	00000000 	andeq	r0, r0, r0
     a2c:	00100000 	andseq	r0, r0, r0
     a30:	00340000 	eorseq	r0, r4, r0
     a34:	00010000 	andeq	r0, r1, r0
     a38:	00003455 	andeq	r3, r0, r5, asr r4
     a3c:	00013400 	andeq	r3, r1, r0, lsl #8
     a40:	58000100 	stmdapl	r0, {r8}
     a44:	00000134 	andeq	r0, r0, r4, lsr r1
     a48:	00000154 	andeq	r0, r0, r4, asr r1
     a4c:	00550001 	subseq	r0, r5, r1
     a50:	00000000 	andeq	r0, r0, r0
     a54:	14000000 	strne	r0, [r0], #-0
     a58:	34000000 	strcc	r0, [r0], #-0
     a5c:	01000001 	tsteq	r0, r1
     a60:	00005500 	andeq	r5, r0, r0, lsl #10
     a64:	00000000 	andeq	r0, r0, r0
     a68:	00200000 	eoreq	r0, r0, r0
     a6c:	01340000 	teqeq	r4, r0
     a70:	00010000 	andeq	r0, r1, r0
     a74:	00000055 	andeq	r0, r0, r5, asr r0
     a78:	00000000 	andeq	r0, r0, r0
     a7c:	00002400 	andeq	r2, r0, r0, lsl #8
     a80:	00002800 	andeq	r2, r0, r0, lsl #16
     a84:	53000100 	movwpl	r0, #256	; 0x100
	...
     a90:	00000034 	andeq	r0, r0, r4, lsr r0
     a94:	00000054 	andeq	r0, r0, r4, asr r0
     a98:	54580001 	ldrbpl	r0, [r8], #-1
     a9c:	34000000 	strcc	r0, [r0], #-0
     aa0:	05000001 	streq	r0, [r0, #-1]
     aa4:	31007500 	tstcc	r0, r0, lsl #10
     aa8:	00009f24 	andeq	r9, r0, r4, lsr #30
     aac:	00000000 	andeq	r0, r0, r0
     ab0:	00340000 	eorseq	r0, r4, r0
     ab4:	003c0000 	eorseq	r0, ip, r0
     ab8:	00050000 	andeq	r0, r5, r0
     abc:	1a310077 	bne	c40ca0 <__bss_end__+0xc36df8>
     ac0:	00003c9f 	muleq	r0, pc, ip	; <UNPREDICTABLE>
     ac4:	00003f00 	andeq	r3, r0, r0, lsl #30
     ac8:	51000100 	mrspl	r0, (UNDEF: 16)
     acc:	0000003f 	andeq	r0, r0, pc, lsr r0
     ad0:	00000154 	andeq	r0, r0, r4, asr r1
     ad4:	00770005 	rsbseq	r0, r7, r5
     ad8:	009f1a31 	addseq	r1, pc, r1, lsr sl	; <UNPREDICTABLE>
     adc:	00000000 	andeq	r0, r0, r0
     ae0:	40000000 	andmi	r0, r0, r0
     ae4:	54000000 	strpl	r0, [r0], #-0
     ae8:	01000000 	mrseq	r0, (UNDEF: 0)
     aec:	00545800 	subseq	r5, r4, r0, lsl #16
     af0:	01340000 	teqeq	r4, r0
     af4:	00050000 	andeq	r0, r5, r0
     af8:	24310075 	ldrtcs	r0, [r1], #-117	; 0x75
     afc:	0000009f 	muleq	r0, pc, r0	; <UNPREDICTABLE>
     b00:	00000000 	andeq	r0, r0, r0
     b04:	00004400 	andeq	r4, r0, r0, lsl #8
     b08:	00004800 	andeq	r4, r0, r0, lsl #16
     b0c:	53000100 	movwpl	r0, #256	; 0x100
	...
     b18:	00000054 	andeq	r0, r0, r4, asr r0
     b1c:	00000074 	andeq	r0, r0, r4, ror r0
     b20:	74580001 	ldrbvc	r0, [r8], #-1
     b24:	34000000 	strcc	r0, [r0], #-0
     b28:	08000001 	stmdaeq	r0, {r0}
     b2c:	31007500 	tstcc	r0, r0, lsl #10
     b30:	22007524 	andcs	r7, r0, #36, 10	; 0x9000000
     b34:	0000009f 	muleq	r0, pc, r0	; <UNPREDICTABLE>
     b38:	00000000 	andeq	r0, r0, r0
     b3c:	00006000 	andeq	r6, r0, r0
     b40:	00007400 	andeq	r7, r0, r0, lsl #8
     b44:	58000100 	stmdapl	r0, {r8}
     b48:	00000074 	andeq	r0, r0, r4, ror r0
     b4c:	00000134 	andeq	r0, r0, r4, lsr r1
     b50:	00750008 	rsbseq	r0, r5, r8
     b54:	00752431 	rsbseq	r2, r5, r1, lsr r4
     b58:	00009f22 	andeq	r9, r0, r2, lsr #30
     b5c:	00000000 	andeq	r0, r0, r0
     b60:	00640000 	rsbeq	r0, r4, r0
     b64:	00680000 	rsbeq	r0, r8, r0
     b68:	00010000 	andeq	r0, r1, r0
     b6c:	00000053 	andeq	r0, r0, r3, asr r0
     b70:	00000000 	andeq	r0, r0, r0
     b74:	00007400 	andeq	r7, r0, r0, lsl #8
     b78:	00009400 	andeq	r9, r0, r0, lsl #8
     b7c:	58000100 	stmdapl	r0, {r8}
     b80:	00000094 	muleq	r0, r4, r0
     b84:	00000134 	andeq	r0, r0, r4, lsr r1
     b88:	00750005 	rsbseq	r0, r5, r5
     b8c:	009f2432 	addseq	r2, pc, r2, lsr r4	; <UNPREDICTABLE>
     b90:	00000000 	andeq	r0, r0, r0
     b94:	80000000 	andhi	r0, r0, r0
     b98:	94000000 	strls	r0, [r0], #-0
     b9c:	01000000 	mrseq	r0, (UNDEF: 0)
     ba0:	00945800 	addseq	r5, r4, r0, lsl #16
     ba4:	01340000 	teqeq	r4, r0
     ba8:	00050000 	andeq	r0, r5, r0
     bac:	24320075 	ldrtcs	r0, [r2], #-117	; 0x75
     bb0:	0000009f 	muleq	r0, pc, r0	; <UNPREDICTABLE>
     bb4:	00000000 	andeq	r0, r0, r0
     bb8:	00008400 	andeq	r8, r0, r0, lsl #8
     bbc:	00008800 	andeq	r8, r0, r0, lsl #16
     bc0:	53000100 	movwpl	r0, #256	; 0x100
	...
     bcc:	00000094 	muleq	r0, r4, r0
     bd0:	000000b4 	strheq	r0, [r0], -r4
     bd4:	b4580001 	ldrblt	r0, [r8], #-1
     bd8:	34000000 	strcc	r0, [r0], #-0
     bdc:	08000001 	stmdaeq	r0, {r0}
     be0:	32007500 	andcc	r7, r0, #0, 10
     be4:	22007524 	andcs	r7, r0, #36, 10	; 0x9000000
     be8:	0000009f 	muleq	r0, pc, r0	; <UNPREDICTABLE>
     bec:	00000000 	andeq	r0, r0, r0
     bf0:	0000a000 	andeq	sl, r0, r0
     bf4:	0000b400 	andeq	fp, r0, r0, lsl #8
     bf8:	58000100 	stmdapl	r0, {r8}
     bfc:	000000b4 	strheq	r0, [r0], -r4
     c00:	00000134 	andeq	r0, r0, r4, lsr r1
     c04:	00750008 	rsbseq	r0, r5, r8
     c08:	00752432 	rsbseq	r2, r5, r2, lsr r4
     c0c:	00009f22 	andeq	r9, r0, r2, lsr #30
     c10:	00000000 	andeq	r0, r0, r0
     c14:	00a40000 	adceq	r0, r4, r0
     c18:	00a80000 	adceq	r0, r8, r0
     c1c:	00010000 	andeq	r0, r1, r0
     c20:	00000053 	andeq	r0, r0, r3, asr r0
     c24:	00000000 	andeq	r0, r0, r0
     c28:	0000b400 	andeq	fp, r0, r0, lsl #8
     c2c:	0000d400 	andeq	sp, r0, r0, lsl #8
     c30:	58000100 	stmdapl	r0, {r8}
     c34:	000000d4 	ldrdeq	r0, [r0], -r4
     c38:	00000134 	andeq	r0, r0, r4, lsr r1
     c3c:	0075000a 	rsbseq	r0, r5, sl
     c40:	00752432 	rsbseq	r2, r5, r2, lsr r4
     c44:	9f222431 	svcls	0x00222431
	...
     c50:	000000c0 	andeq	r0, r0, r0, asr #1
     c54:	000000d4 	ldrdeq	r0, [r0], -r4
     c58:	d4580001 	ldrble	r0, [r8], #-1
     c5c:	34000000 	strcc	r0, [r0], #-0
     c60:	0a000001 	beq	c6c <_start-0x7394>
     c64:	32007500 	andcc	r7, r0, #0, 10
     c68:	31007524 	tstcc	r0, r4, lsr #10
     c6c:	009f2224 	addseq	r2, pc, r4, lsr #4
     c70:	00000000 	andeq	r0, r0, r0
     c74:	c4000000 	strgt	r0, [r0], #-0
     c78:	c8000000 	stmdagt	r0, {}	; <UNPREDICTABLE>
     c7c:	01000000 	mrseq	r0, (UNDEF: 0)
     c80:	00005300 	andeq	r5, r0, r0, lsl #6
     c84:	00000000 	andeq	r0, r0, r0
     c88:	00d40000 	sbcseq	r0, r4, r0
     c8c:	00f40000 	rscseq	r0, r4, r0
     c90:	00010000 	andeq	r0, r1, r0
     c94:	0000f458 	andeq	pc, r0, r8, asr r4	; <UNPREDICTABLE>
     c98:	00013400 	andeq	r3, r1, r0, lsl #8
     c9c:	75000d00 	strvc	r0, [r0, #-3328]	; 0xd00
     ca0:	75243200 	strvc	r3, [r4, #-512]!	; 0x200
     ca4:	22243100 	eorcs	r3, r4, #0, 2
     ca8:	9f220075 	svcls	0x00220075
	...
     cb4:	000000e0 	andeq	r0, r0, r0, ror #1
     cb8:	000000f4 	strdeq	r0, [r0], -r4
     cbc:	f4580001 			; <UNDEFINED> instruction: 0xf4580001
     cc0:	34000000 	strcc	r0, [r0], #-0
     cc4:	0d000001 	stceq	0, cr0, [r0, #-4]
     cc8:	32007500 	andcc	r7, r0, #0, 10
     ccc:	31007524 	tstcc	r0, r4, lsr #10
     cd0:	00752224 	rsbseq	r2, r5, r4, lsr #4
     cd4:	00009f22 	andeq	r9, r0, r2, lsr #30
     cd8:	00000000 	andeq	r0, r0, r0
     cdc:	00e40000 	rsceq	r0, r4, r0
     ce0:	00e80000 	rsceq	r0, r8, r0
     ce4:	00010000 	andeq	r0, r1, r0
     ce8:	00000053 	andeq	r0, r0, r3, asr r0
     cec:	00000000 	andeq	r0, r0, r0
     cf0:	0000f400 	andeq	pc, r0, r0, lsl #8
     cf4:	00011400 	andeq	r1, r1, r0, lsl #8
     cf8:	58000100 	stmdapl	r0, {r8}
     cfc:	00000114 	andeq	r0, r0, r4, lsl r1
     d00:	00000134 	andeq	r0, r0, r4, lsr r1
     d04:	00750005 	rsbseq	r0, r5, r5
     d08:	009f2433 	addseq	r2, pc, r3, lsr r4	; <UNPREDICTABLE>
	...
     d14:	14000001 	strne	r0, [r0], #-1
     d18:	01000001 	tsteq	r0, r1
     d1c:	01145800 	tsteq	r4, r0, lsl #16
     d20:	01340000 	teqeq	r4, r0
     d24:	00050000 	andeq	r0, r5, r0
     d28:	24330075 	ldrtcs	r0, [r3], #-117	; 0x75
     d2c:	0000009f 	muleq	r0, pc, r0	; <UNPREDICTABLE>
     d30:	00000000 	andeq	r0, r0, r0
     d34:	00010400 	andeq	r0, r1, r0, lsl #8
     d38:	00010800 	andeq	r0, r1, r0, lsl #16
     d3c:	53000100 	movwpl	r0, #256	; 0x100
	...
     d48:	00000114 	andeq	r0, r0, r4, lsl r1
     d4c:	0000011c 	andeq	r0, r0, ip, lsl r1
     d50:	00770006 	rsbseq	r0, r7, r6
     d54:	9f1a8008 	svcls	0x001a8008
     d58:	0000011c 	andeq	r0, r0, ip, lsl r1
     d5c:	0000011f 	andeq	r0, r0, pc, lsl r1
     d60:	1f510001 	svcne	0x00510001
     d64:	54000001 	strpl	r0, [r0], #-1
     d68:	06000001 	streq	r0, [r0], -r1
     d6c:	08007700 	stmdaeq	r0, {r8, r9, sl, ip, sp, lr}
     d70:	009f1a80 	addseq	r1, pc, r0, lsl #21
     d74:	00000000 	andeq	r0, r0, r0
     d78:	24000000 	strcs	r0, [r0], #-0
     d7c:	28000001 	stmdacs	r0, {r0}
     d80:	01000001 	tsteq	r0, r1
     d84:	00005300 	andeq	r5, r0, r0, lsl #6
     d88:	00000000 	andeq	r0, r0, r0
     d8c:	01440000 	mrseq	r0, (UNDEF: 68)
     d90:	01480000 	mrseq	r0, (UNDEF: 72)
     d94:	00010000 	andeq	r0, r1, r0
     d98:	00000053 	andeq	r0, r0, r3, asr r0
     d9c:	00000000 	andeq	r0, r0, r0
     da0:	00015400 	andeq	r5, r1, r0, lsl #8
     da4:	00016b00 	andeq	r6, r1, r0, lsl #22
     da8:	50000100 	andpl	r0, r0, r0, lsl #2
     dac:	0000016b 	andeq	r0, r0, fp, ror #2
     db0:	000001d0 	ldrdeq	r0, [r0], -r0	; <UNPREDICTABLE>
     db4:	d0590001 	subsle	r0, r9, r1
     db8:	0c000001 	stceq	0, cr0, [r0], {1}
     dbc:	04000003 	streq	r0, [r0], #-3
     dc0:	5001f300 	andpl	pc, r1, r0, lsl #6
     dc4:	00030c9f 	muleq	r3, pc, ip	; <UNPREDICTABLE>
     dc8:	00031400 	andeq	r1, r3, r0, lsl #8
     dcc:	59000100 	stmdbpl	r0, {r8}
     dd0:	00000314 	andeq	r0, r0, r4, lsl r3
     dd4:	0000031c 	andeq	r0, r0, ip, lsl r3
     dd8:	01f30004 	mvnseq	r0, r4
     ddc:	00009f50 	andeq	r9, r0, r0, asr pc
     de0:	00000000 	andeq	r0, r0, r0
     de4:	01540000 	cmpeq	r4, r0
     de8:	016b0000 	cmneq	fp, r0
     dec:	00010000 	andeq	r0, r1, r0
     df0:	00016b51 	andeq	r6, r1, r1, asr fp
     df4:	00031c00 	andeq	r1, r3, r0, lsl #24
     df8:	56000100 	strpl	r0, [r0], -r0, lsl #2
	...
     e04:	000001a8 	andeq	r0, r0, r8, lsr #3
     e08:	00000298 	muleq	r0, r8, r2
     e0c:	00580001 	subseq	r0, r8, r1
     e10:	00000000 	andeq	r0, r0, r0
     e14:	ac000000 	stcge	0, cr0, [r0], {-0}
     e18:	d0000001 	andle	r0, r0, r1
     e1c:	01000002 	tsteq	r0, r2
     e20:	00005400 	andeq	r5, r0, r0, lsl #8
     e24:	00000000 	andeq	r0, r0, r0
     e28:	01ac0000 			; <UNDEFINED> instruction: 0x01ac0000
     e2c:	02d00000 	sbcseq	r0, r0, #0
     e30:	00050000 	andeq	r0, r5, r0
     e34:	25310074 	ldrcs	r0, [r1, #-116]!	; 0x74
     e38:	0000009f 	muleq	r0, pc, r0	; <UNPREDICTABLE>
     e3c:	00000000 	andeq	r0, r0, r0
     e40:	0001ac00 	andeq	sl, r1, r0, lsl #24
     e44:	0001d000 	andeq	sp, r1, r0
     e48:	30000200 	andcc	r0, r0, r0, lsl #4
     e4c:	0001d09f 	muleq	r1, pc, r0	; <UNPREDICTABLE>
     e50:	00030c00 	andeq	r0, r3, r0, lsl #24
     e54:	59000100 	stmdbpl	r0, {r8}
     e58:	00000314 	andeq	r0, r0, r4, lsl r3
     e5c:	0000031c 	andeq	r0, r0, ip, lsl r3
     e60:	00590001 	subseq	r0, r9, r1
     e64:	00000000 	andeq	r0, r0, r0
     e68:	68000000 	stmdavs	r0, {}	; <UNPREDICTABLE>
     e6c:	6b000001 	blvs	e78 <_start-0x7188>
     e70:	01000001 	tsteq	r0, r1
     e74:	016b5100 	cmneq	fp, r0, lsl #2
     e78:	031c0000 	tsteq	ip, #0
     e7c:	00010000 	andeq	r0, r1, r0
     e80:	00000056 	andeq	r0, r0, r6, asr r0
     e84:	00000000 	andeq	r0, r0, r0
     e88:	00017000 	andeq	r7, r1, r0
     e8c:	0001ac00 	andeq	sl, r1, r0, lsl #24
     e90:	54000100 	strpl	r0, [r0], #-256	; 0x100
     e94:	0000030c 	andeq	r0, r0, ip, lsl #6
     e98:	00000314 	andeq	r0, r0, r4, lsl r3
     e9c:	00540001 	subseq	r0, r4, r1
     ea0:	00000000 	andeq	r0, r0, r0
     ea4:	a8000000 	stmdage	r0, {}	; <UNPREDICTABLE>
     ea8:	c4000001 	strgt	r0, [r0], #-1
     eac:	01000001 	tsteq	r0, r1
     eb0:	00005800 	andeq	r5, r0, r0, lsl #16
     eb4:	00000000 	andeq	r0, r0, r0
     eb8:	01b00000 	movseq	r0, r0
     ebc:	01cb0000 	biceq	r0, fp, r0
     ec0:	00010000 	andeq	r0, r1, r0
     ec4:	0001cb52 	andeq	ip, r1, r2, asr fp
     ec8:	0002d000 	andeq	sp, r2, r0
     ecc:	74000800 	strvc	r0, [r0], #-2048	; 0x800
     ed0:	74253100 	strtvc	r3, [r5], #-256	; 0x100
     ed4:	009f2200 	addseq	r2, pc, r0, lsl #4
     ed8:	00000000 	andeq	r0, r0, r0
     edc:	b0000000 	andlt	r0, r0, r0
     ee0:	c4000001 	strgt	r0, [r0], #-1
     ee4:	01000001 	tsteq	r0, r1
     ee8:	00005800 	andeq	r5, r0, r0, lsl #16
     eec:	00000000 	andeq	r0, r0, r0
     ef0:	01b40000 			; <UNDEFINED> instruction: 0x01b40000
     ef4:	01b80000 			; <UNDEFINED> instruction: 0x01b80000
     ef8:	00010000 	andeq	r0, r1, r0
     efc:	00000053 	andeq	r0, r0, r3, asr r0
     f00:	00000000 	andeq	r0, r0, r0
     f04:	0001d000 	andeq	sp, r1, r0
     f08:	0002d000 	andeq	sp, r2, r0
     f0c:	54000100 	strpl	r0, [r0], #-256	; 0x100
	...
     f18:	000001d0 	ldrdeq	r0, [r0], -r0	; <UNPREDICTABLE>
     f1c:	000001e4 	andeq	r0, r0, r4, ror #3
     f20:	00580001 	subseq	r0, r8, r1
     f24:	00000000 	andeq	r0, r0, r0
     f28:	d4000000 	strle	r0, [r0], #-0
     f2c:	d8000001 	stmdale	r0, {r0}
     f30:	01000001 	tsteq	r0, r1
     f34:	00005300 	andeq	r5, r0, r0, lsl #6
     f38:	00000000 	andeq	r0, r0, r0
     f3c:	01f40000 	mvnseq	r0, r0
     f40:	02d00000 	sbcseq	r0, r0, #0
     f44:	00010000 	andeq	r0, r1, r0
     f48:	00000054 	andeq	r0, r0, r4, asr r0
     f4c:	00000000 	andeq	r0, r0, r0
     f50:	0001f400 	andeq	pc, r1, r0, lsl #8
     f54:	00020800 	andeq	r0, r2, r0, lsl #16
     f58:	58000100 	stmdapl	r0, {r8}
	...
     f64:	000001f8 	strdeq	r0, [r0], -r8
     f68:	000001fc 	strdeq	r0, [r0], -ip
     f6c:	00530001 	subseq	r0, r3, r1
     f70:	00000000 	andeq	r0, r0, r0
     f74:	18000000 	stmdane	r0, {}	; <UNPREDICTABLE>
     f78:	d0000002 	andle	r0, r0, r2
     f7c:	01000002 	tsteq	r0, r2
     f80:	00005400 	andeq	r5, r0, r0, lsl #8
     f84:	00000000 	andeq	r0, r0, r0
     f88:	02180000 	andseq	r0, r8, #0
     f8c:	022c0000 	eoreq	r0, ip, #0
     f90:	00010000 	andeq	r0, r1, r0
     f94:	00000058 	andeq	r0, r0, r8, asr r0
     f98:	00000000 	andeq	r0, r0, r0
     f9c:	00021c00 	andeq	r1, r2, r0, lsl #24
     fa0:	00022000 	andeq	r2, r2, r0
     fa4:	53000100 	movwpl	r0, #256	; 0x100
	...
     fb0:	0000023c 	andeq	r0, r0, ip, lsr r2
     fb4:	000002d0 	ldrdeq	r0, [r0], -r0	; <UNPREDICTABLE>
     fb8:	00540001 	subseq	r0, r4, r1
     fbc:	00000000 	andeq	r0, r0, r0
     fc0:	3c000000 	stccc	0, cr0, [r0], {-0}
     fc4:	50000002 	andpl	r0, r0, r2
     fc8:	01000002 	tsteq	r0, r2
     fcc:	00005800 	andeq	r5, r0, r0, lsl #16
     fd0:	00000000 	andeq	r0, r0, r0
     fd4:	02400000 	subeq	r0, r0, #0
     fd8:	02440000 	subeq	r0, r4, #0
     fdc:	00010000 	andeq	r0, r1, r0
     fe0:	00000053 	andeq	r0, r0, r3, asr r0
     fe4:	00000000 	andeq	r0, r0, r0
     fe8:	00026000 	andeq	r6, r2, r0
     fec:	0002d000 	andeq	sp, r2, r0
     ff0:	54000100 	strpl	r0, [r0], #-256	; 0x100
	...
     ffc:	00000260 	andeq	r0, r0, r0, ror #4
    1000:	00000274 	andeq	r0, r0, r4, ror r2
    1004:	00580001 	subseq	r0, r8, r1
    1008:	00000000 	andeq	r0, r0, r0
    100c:	64000000 	strvs	r0, [r0], #-0
    1010:	68000002 	stmdavs	r0, {r1}
    1014:	01000002 	tsteq	r0, r2
    1018:	00005300 	andeq	r5, r0, r0, lsl #6
    101c:	00000000 	andeq	r0, r0, r0
    1020:	02840000 	addeq	r0, r4, #0
    1024:	02d00000 	sbcseq	r0, r0, #0
    1028:	00010000 	andeq	r0, r1, r0
    102c:	00000054 	andeq	r0, r0, r4, asr r0
    1030:	00000000 	andeq	r0, r0, r0
    1034:	00028400 	andeq	r8, r2, r0, lsl #8
    1038:	00029800 	andeq	r9, r2, r0, lsl #16
    103c:	58000100 	stmdapl	r0, {r8}
	...
    1048:	00000288 	andeq	r0, r0, r8, lsl #5
    104c:	0000028c 	andeq	r0, r0, ip, lsl #5
    1050:	00530001 	subseq	r0, r3, r1
    1054:	00000000 	andeq	r0, r0, r0
    1058:	a8000000 	stmdage	r0, {}	; <UNPREDICTABLE>
    105c:	d0000002 	andle	r0, r0, r2
    1060:	01000002 	tsteq	r0, r2
    1064:	00005400 	andeq	r5, r0, r0, lsl #8
    1068:	00000000 	andeq	r0, r0, r0
    106c:	02ac0000 	adceq	r0, ip, #0
    1070:	02b00000 	adcseq	r0, r0, #0
    1074:	00010000 	andeq	r0, r1, r0
    1078:	00000053 	andeq	r0, r0, r3, asr r0
    107c:	00000000 	andeq	r0, r0, r0
    1080:	0002c800 	andeq	ip, r2, r0, lsl #16
    1084:	00030c00 	andeq	r0, r3, r0, lsl #24
    1088:	30000200 	andcc	r0, r0, r0, lsl #4
    108c:	0003149f 	muleq	r3, pc, r4	; <UNPREDICTABLE>
    1090:	00031c00 	andeq	r1, r3, r0, lsl #24
    1094:	30000200 	andcc	r0, r0, r0, lsl #4
    1098:	0000009f 	muleq	r0, pc, r0	; <UNPREDICTABLE>
    109c:	00000000 	andeq	r0, r0, r0
    10a0:	0002c800 	andeq	ip, r2, r0, lsl #16
    10a4:	00030c00 	andeq	r0, r3, r0, lsl #24
    10a8:	55000100 	strpl	r0, [r0, #-256]	; 0x100
    10ac:	00000314 	andeq	r0, r0, r4, lsl r3
    10b0:	0000031c 	andeq	r0, r0, ip, lsl r3
    10b4:	00550001 	subseq	r0, r5, r1
    10b8:	00000000 	andeq	r0, r0, r0
    10bc:	d0000000 	andle	r0, r0, r0
    10c0:	0c000002 	stceq	0, cr0, [r0], {2}
    10c4:	01000003 	tsteq	r0, r3
    10c8:	03145400 	tsteq	r4, #0, 8
    10cc:	031c0000 	tsteq	ip, #0
    10d0:	00010000 	andeq	r0, r1, r0
    10d4:	00000054 	andeq	r0, r0, r4, asr r0
    10d8:	00000000 	andeq	r0, r0, r0
    10dc:	00031c00 	andeq	r1, r3, r0, lsl #24
    10e0:	00033f00 	andeq	r3, r3, r0, lsl #30
    10e4:	50000100 	andpl	r0, r0, r0, lsl #2
    10e8:	0000033f 	andeq	r0, r0, pc, lsr r3
    10ec:	00000360 	andeq	r0, r0, r0, ror #6
    10f0:	60580001 	subsvs	r0, r8, r1
    10f4:	70000003 	andvc	r0, r0, r3
    10f8:	01000003 	tsteq	r0, r3
    10fc:	03705000 	cmneq	r0, #0
    1100:	03b00000 	movseq	r0, #0
    1104:	00010000 	andeq	r0, r1, r0
    1108:	0003b058 	andeq	fp, r3, r8, asr r0
    110c:	0003c000 	andeq	ip, r3, r0
    1110:	f3000400 	vshl.u8	d0, d0, d0
    1114:	009f5001 	addseq	r5, pc, r1
    1118:	00000000 	andeq	r0, r0, r0
    111c:	1c000000 	stcne	0, cr0, [r0], {-0}
    1120:	3f000003 	svccc	0x00000003
    1124:	01000003 	tsteq	r0, r3
    1128:	033f5100 	teqeq	pc, #0, 2
    112c:	03600000 	cmneq	r0, #0
    1130:	00010000 	andeq	r0, r1, r0
    1134:	00036056 	andeq	r6, r3, r6, asr r0
    1138:	00037000 	andeq	r7, r3, r0
    113c:	51000100 	mrspl	r0, (UNDEF: 16)
    1140:	00000370 	andeq	r0, r0, r0, ror r3
    1144:	000003b0 			; <UNDEFINED> instruction: 0x000003b0
    1148:	b0560001 	subslt	r0, r6, r1
    114c:	c0000003 	andgt	r0, r0, r3
    1150:	04000003 	streq	r0, [r0], #-3
    1154:	5101f300 	mrspl	pc, SP_irq	; <UNPREDICTABLE>
    1158:	0000009f 	muleq	r0, pc, r0	; <UNPREDICTABLE>
    115c:	00000000 	andeq	r0, r0, r0
    1160:	00031c00 	andeq	r1, r3, r0, lsl #24
    1164:	00033f00 	andeq	r3, r3, r0, lsl #30
    1168:	52000100 	andpl	r0, r0, #0, 2
    116c:	0000033f 	andeq	r0, r0, pc, lsr r3
    1170:	00000360 	andeq	r0, r0, r0, ror #6
    1174:	01f30004 	mvnseq	r0, r4
    1178:	03609f52 	cmneq	r0, #328	; 0x148
    117c:	03700000 	cmneq	r0, #0
    1180:	00010000 	andeq	r0, r1, r0
    1184:	00037052 	andeq	r7, r3, r2, asr r0
    1188:	0003b000 	andeq	fp, r3, r0
    118c:	77000300 	strvc	r0, [r0, -r0, lsl #6]
    1190:	03b09f01 	movseq	r9, #1, 30
    1194:	03c00000 	biceq	r0, r0, #0
    1198:	00040000 	andeq	r0, r4, r0
    119c:	9f5201f3 	svcls	0x005201f3
	...
    11a8:	0000031c 	andeq	r0, r0, ip, lsl r3
    11ac:	0000033f 	andeq	r0, r0, pc, lsr r3
    11b0:	3f530001 	svccc	0x00530001
    11b4:	60000003 	andvs	r0, r0, r3
    11b8:	04000003 	streq	r0, [r0], #-3
    11bc:	5301f300 	movwpl	pc, #4864	; 0x1300	; <UNPREDICTABLE>
    11c0:	0003609f 	muleq	r3, pc, r0	; <UNPREDICTABLE>
    11c4:	00037000 	andeq	r7, r3, r0
    11c8:	53000100 	movwpl	r0, #256	; 0x100
    11cc:	00000370 	andeq	r0, r0, r0, ror r3
    11d0:	000003c0 	andeq	r0, r0, r0, asr #7
    11d4:	01f30004 	mvnseq	r0, r4
    11d8:	00009f53 	andeq	r9, r0, r3, asr pc
    11dc:	00000000 	andeq	r0, r0, r0
    11e0:	03680000 	cmneq	r8, #0
    11e4:	03700000 	cmneq	r0, #0
    11e8:	00020000 	andeq	r0, r2, r0
    11ec:	03709f30 	cmneq	r0, #48, 30	; 0xc0
    11f0:	03b00000 	movseq	r0, #0
    11f4:	00010000 	andeq	r0, r1, r0
    11f8:	0003b054 	andeq	fp, r3, r4, asr r0
    11fc:	0003c000 	andeq	ip, r3, r0
    1200:	50000100 	andpl	r0, r0, r0, lsl #2
	...
    120c:	00000380 	andeq	r0, r0, r0, lsl #7
    1210:	00000390 	muleq	r0, r0, r3
    1214:	00500001 	subseq	r0, r0, r1
    1218:	00000000 	andeq	r0, r0, r0
    121c:	c0000000 	andgt	r0, r0, r0
    1220:	df000003 	svcle	0x00000003
    1224:	01000003 	tsteq	r0, r3
    1228:	03df5000 	bicseq	r5, pc, #0
    122c:	04000000 	streq	r0, [r0], #-0
    1230:	00010000 	andeq	r0, r1, r0
    1234:	00040057 	andeq	r0, r4, r7, asr r0
    1238:	00041000 	andeq	r1, r4, r0
    123c:	50000100 	andpl	r0, r0, r0, lsl #2
    1240:	00000410 	andeq	r0, r0, r0, lsl r4
    1244:	00000440 	andeq	r0, r0, r0, asr #8
    1248:	40570001 	subsmi	r0, r7, r1
    124c:	50000004 	andpl	r0, r0, r4
    1250:	04000004 	streq	r0, [r0], #-4
    1254:	5001f300 	andpl	pc, r1, r0, lsl #6
    1258:	0000009f 	muleq	r0, pc, r0	; <UNPREDICTABLE>
    125c:	00000000 	andeq	r0, r0, r0
    1260:	0003c000 	andeq	ip, r3, r0
    1264:	0003df00 	andeq	sp, r3, r0, lsl #30
    1268:	51000100 	mrspl	r0, (UNDEF: 16)
    126c:	000003df 	ldrdeq	r0, [r0], -pc	; <UNPREDICTABLE>
    1270:	00000400 	andeq	r0, r0, r0, lsl #8
    1274:	00550001 	subseq	r0, r5, r1
    1278:	10000004 	andne	r0, r0, r4
    127c:	01000004 	tsteq	r0, r4
    1280:	04105100 	ldreq	r5, [r0], #-256	; 0x100
    1284:	04400000 	strbeq	r0, [r0], #-0
    1288:	00010000 	andeq	r0, r1, r0
    128c:	00044055 	andeq	r4, r4, r5, asr r0
    1290:	00045000 	andeq	r5, r4, r0
    1294:	f3000400 	vshl.u8	d0, d0, d0
    1298:	009f5101 	addseq	r5, pc, r1, lsl #2
    129c:	00000000 	andeq	r0, r0, r0
    12a0:	c0000000 	andgt	r0, r0, r0
    12a4:	df000003 	svcle	0x00000003
    12a8:	01000003 	tsteq	r0, r3
    12ac:	03df5200 	bicseq	r5, pc, #0, 4
    12b0:	04000000 	streq	r0, [r0], #-0
    12b4:	00040000 	andeq	r0, r4, r0
    12b8:	9f5201f3 	svcls	0x005201f3
    12bc:	00000400 	andeq	r0, r0, r0, lsl #8
    12c0:	00000410 	andeq	r0, r0, r0, lsl r4
    12c4:	10520001 	subsne	r0, r2, r1
    12c8:	40000004 	andmi	r0, r0, r4
    12cc:	03000004 	movweq	r0, #4
    12d0:	9f017600 	svcls	0x00017600
    12d4:	00000440 	andeq	r0, r0, r0, asr #8
    12d8:	00000450 	andeq	r0, r0, r0, asr r4
    12dc:	01f30004 	mvnseq	r0, r4
    12e0:	00009f52 	andeq	r9, r0, r2, asr pc
    12e4:	00000000 	andeq	r0, r0, r0
    12e8:	03c00000 	biceq	r0, r0, #0
    12ec:	03df0000 	bicseq	r0, pc, #0
    12f0:	00010000 	andeq	r0, r1, r0
    12f4:	0003df53 	andeq	sp, r3, r3, asr pc
    12f8:	00040000 	andeq	r0, r4, r0
    12fc:	58000100 	stmdapl	r0, {r8}
    1300:	00000400 	andeq	r0, r0, r0, lsl #8
    1304:	00000410 	andeq	r0, r0, r0, lsl r4
    1308:	10530001 	subsne	r0, r3, r1
    130c:	40000004 	andmi	r0, r0, r4
    1310:	01000004 	tsteq	r0, r4
    1314:	04405800 	strbeq	r5, [r0], #-2048	; 0x800
    1318:	04500000 	ldrbeq	r0, [r0], #-0
    131c:	00040000 	andeq	r0, r4, r0
    1320:	9f5301f3 	svcls	0x005301f3
	...
    132c:	00000408 	andeq	r0, r0, r8, lsl #8
    1330:	00000410 	andeq	r0, r0, r0, lsl r4
    1334:	9f300002 	svcls	0x00300002
    1338:	00000410 	andeq	r0, r0, r0, lsl r4
    133c:	00000440 	andeq	r0, r0, r0, asr #8
    1340:	40540001 	subsmi	r0, r4, r1
    1344:	50000004 	andpl	r0, r0, r4
    1348:	01000004 	tsteq	r0, r4
    134c:	00005000 	andeq	r5, r0, r0
    1350:	00000000 	andeq	r0, r0, r0
    1354:	04500000 	ldrbeq	r0, [r0], #-0
    1358:	04730000 	ldrbteq	r0, [r3], #-0
    135c:	00010000 	andeq	r0, r1, r0
    1360:	00047351 	andeq	r7, r4, r1, asr r3
    1364:	00052400 	andeq	r2, r5, r0, lsl #8
    1368:	f3000400 	vshl.u8	d0, d0, d0
    136c:	009f5101 	addseq	r5, pc, r1, lsl #2
    1370:	00000000 	andeq	r0, r0, r0
    1374:	50000000 	andpl	r0, r0, r0
    1378:	73000004 	movwvc	r0, #4
    137c:	01000004 	tsteq	r0, r4
    1380:	04735200 	ldrbteq	r5, [r3], #-512	; 0x200
    1384:	05240000 	streq	r0, [r4, #-0]!
    1388:	00040000 	andeq	r0, r4, r0
    138c:	9f5201f3 	svcls	0x005201f3
	...
    1398:	00000450 	andeq	r0, r0, r0, asr r4
    139c:	00000473 	andeq	r0, r0, r3, ror r4
    13a0:	73530001 	cmpvc	r3, #1
    13a4:	10000004 	andne	r0, r0, r4
    13a8:	01000005 	tsteq	r0, r5
    13ac:	05105500 	ldreq	r5, [r0, #-1280]	; 0x500
    13b0:	05240000 	streq	r0, [r4, #-0]!
    13b4:	00020000 	andeq	r0, r2, r0
    13b8:	00000470 	andeq	r0, r0, r0, ror r4
    13bc:	00000000 	andeq	r0, r0, r0
    13c0:	04940000 	ldreq	r0, [r4], #0
    13c4:	04d30000 	ldrbeq	r0, [r3], #0
    13c8:	00010000 	andeq	r0, r1, r0
    13cc:	0004d352 	andeq	sp, r4, r2, asr r3
    13d0:	0004f400 	andeq	pc, r4, r0, lsl #8
    13d4:	75000600 	strvc	r0, [r0, #-1536]	; 0x600
    13d8:	1e007700 	cdpne	7, 0, cr7, cr0, cr0, {0}
    13dc:	0004f49f 	muleq	r4, pc, r4	; <UNPREDICTABLE>
    13e0:	00052400 	andeq	r2, r5, r0, lsl #8
    13e4:	52000100 	andpl	r0, r0, #0, 2
	...
    13f0:	00000524 	andeq	r0, r0, r4, lsr #10
    13f4:	0000052f 	andeq	r0, r0, pc, lsr #10
    13f8:	2f500001 	svccs	0x00500001
    13fc:	60000005 	andvs	r0, r0, r5
    1400:	04000005 	streq	r0, [r0], #-5
    1404:	5001f300 	andpl	pc, r1, r0, lsl #6
    1408:	0000009f 	muleq	r0, pc, r0	; <UNPREDICTABLE>
    140c:	00000000 	andeq	r0, r0, r0
    1410:	00053000 	andeq	r3, r5, r0
    1414:	00053b00 	andeq	r3, r5, r0, lsl #22
    1418:	50000100 	andpl	r0, r0, r0, lsl #2
	...
    1424:	00000560 	andeq	r0, r0, r0, ror #10
    1428:	00000570 	andeq	r0, r0, r0, ror r5
    142c:	70500001 	subsvc	r0, r0, r1
    1430:	8c000005 	stchi	0, cr0, [r0], {5}
    1434:	01000005 	tsteq	r0, r5
    1438:	00005500 	andeq	r5, r0, r0, lsl #10
    143c:	00000000 	andeq	r0, r0, r0
    1440:	05600000 	strbeq	r0, [r0, #-0]!
    1444:	05700000 	ldrbeq	r0, [r0, #-0]!
    1448:	00010000 	andeq	r0, r1, r0
    144c:	00057051 	andeq	r7, r5, r1, asr r0
    1450:	00058c00 	andeq	r8, r5, r0, lsl #24
    1454:	54000100 	strpl	r0, [r0], #-256	; 0x100
	...
    1460:	0000058c 	andeq	r0, r0, ip, lsl #11
    1464:	000005a8 	andeq	r0, r0, r8, lsr #11
    1468:	a8500001 	ldmdage	r0, {r0}^
    146c:	00000005 	andeq	r0, r0, r5
    1470:	01000006 	tsteq	r0, r6
    1474:	06005500 	streq	r5, [r0], -r0, lsl #10
    1478:	061c0000 	ldreq	r0, [ip], -r0
    147c:	00040000 	andeq	r0, r4, r0
    1480:	9f5001f3 	svcls	0x005001f3
	...
    148c:	000005b8 			; <UNDEFINED> instruction: 0x000005b8
    1490:	000005c7 	andeq	r0, r0, r7, asr #11
    1494:	c7500001 	ldrbgt	r0, [r0, -r1]
    1498:	e8000005 	stmda	r0, {r0, r2}
    149c:	01000005 	tsteq	r0, r5
    14a0:	05e85400 	strbeq	r5, [r8, #1024]!	; 0x400
    14a4:	05ec0000 	strbeq	r0, [ip, #0]!
    14a8:	00010000 	andeq	r0, r1, r0
    14ac:	0005ec50 	andeq	lr, r5, r0, asr ip
    14b0:	00060000 	andeq	r0, r6, r0
    14b4:	54000100 	strpl	r0, [r0], #-256	; 0x100
    14b8:	00000600 	andeq	r0, r0, r0, lsl #12
    14bc:	0000061c 	andeq	r0, r0, ip, lsl r6
    14c0:	00500001 	subseq	r0, r0, r1
    14c4:	00000000 	andeq	r0, r0, r0
    14c8:	1c000000 	stcne	0, cr0, [r0], {-0}
    14cc:	2f000006 	svccs	0x00000006
    14d0:	01000006 	tsteq	r0, r6
    14d4:	062f5000 	strteq	r5, [pc], -r0
    14d8:	06680000 	strbteq	r0, [r8], -r0
    14dc:	00040000 	andeq	r0, r4, r0
    14e0:	9f5001f3 	svcls	0x005001f3
	...
    14ec:	0000061c 	andeq	r0, r0, ip, lsl r6
    14f0:	0000062f 	andeq	r0, r0, pc, lsr #12
    14f4:	2f510001 	svccs	0x00510001
    14f8:	68000006 	stmdavs	r0, {r1, r2}
    14fc:	04000006 	streq	r0, [r0], #-6
    1500:	5101f300 	mrspl	pc, SP_irq	; <UNPREDICTABLE>
    1504:	0000009f 	muleq	r0, pc, r0	; <UNPREDICTABLE>
    1508:	00000000 	andeq	r0, r0, r0
    150c:	00061c00 	andeq	r1, r6, r0, lsl #24
    1510:	00062f00 	andeq	r2, r6, r0, lsl #30
    1514:	52000100 	andpl	r0, r0, #0, 2
    1518:	0000062f 	andeq	r0, r0, pc, lsr #12
    151c:	00000668 	andeq	r0, r0, r8, ror #12
    1520:	01f30004 	mvnseq	r0, r4
    1524:	00009f52 	andeq	r9, r0, r2, asr pc
    1528:	00000000 	andeq	r0, r0, r0
    152c:	061c0000 	ldreq	r0, [ip], -r0
    1530:	062f0000 	strteq	r0, [pc], -r0
    1534:	00010000 	andeq	r0, r1, r0
    1538:	00062f53 	andeq	r2, r6, r3, asr pc
    153c:	00066800 	andeq	r6, r6, r0, lsl #16
    1540:	f3000400 	vshl.u8	d0, d0, d0
    1544:	009f5301 	addseq	r5, pc, r1, lsl #6
    1548:	00000000 	andeq	r0, r0, r0
    154c:	30000000 	andcc	r0, r0, r0
    1550:	3b000006 	blcc	1570 <_start-0x6a90>
    1554:	01000006 	tsteq	r0, r6
    1558:	06545000 	ldrbeq	r5, [r4], -r0
    155c:	06680000 	strbteq	r0, [r8], -r0
    1560:	00010000 	andeq	r0, r1, r0
    1564:	00000050 	andeq	r0, r0, r0, asr r0
    1568:	00000000 	andeq	r0, r0, r0
    156c:	0000fc00 	andeq	pc, r0, r0, lsl #24
    1570:	00010400 	andeq	r0, r1, r0, lsl #8
    1574:	50000100 	andpl	r0, r0, r0, lsl #2
    1578:	00000104 	andeq	r0, r0, r4, lsl #2
    157c:	00000128 	andeq	r0, r0, r8, lsr #2
    1580:	00540001 	subseq	r0, r4, r1
	...
    158c:	90000000 	andls	r0, r0, r0
    1590:	01000000 	mrseq	r0, (UNDEF: 0)
    1594:	00905000 	addseq	r5, r0, r0
    1598:	00d40000 	sbcseq	r0, r4, r0
    159c:	00010000 	andeq	r0, r1, r0
    15a0:	00000054 	andeq	r0, r0, r4, asr r0
    15a4:	00000000 	andeq	r0, r0, r0
    15a8:	00004800 	andeq	r4, r0, r0, lsl #16
    15ac:	00004c00 	andeq	r4, r0, r0, lsl #24
    15b0:	55000100 	strpl	r0, [r0, #-256]	; 0x100
    15b4:	00000054 	andeq	r0, r0, r4, asr r0
    15b8:	00000058 	andeq	r0, r0, r8, asr r0
    15bc:	60550001 	subsvs	r0, r5, r1
    15c0:	64000000 	strvs	r0, [r0], #-0
    15c4:	01000000 	mrseq	r0, (UNDEF: 0)
    15c8:	006c5500 	rsbeq	r5, ip, r0, lsl #10
    15cc:	00700000 	rsbseq	r0, r0, r0
    15d0:	00010000 	andeq	r0, r1, r0
    15d4:	00007855 	andeq	r7, r0, r5, asr r8
    15d8:	00007c00 	andeq	r7, r0, r0, lsl #24
    15dc:	55000100 	strpl	r0, [r0, #-256]	; 0x100
    15e0:	00000084 	andeq	r0, r0, r4, lsl #1
    15e4:	00000088 	andeq	r0, r0, r8, lsl #1
    15e8:	8c550001 	mrrchi	0, 0, r0, r5, cr1
    15ec:	d4000000 	strle	r0, [r0], #-0
    15f0:	01000000 	mrseq	r0, (UNDEF: 0)
    15f4:	00005500 	andeq	r5, r0, r0, lsl #10
    15f8:	00000000 	andeq	r0, r0, r0
    15fc:	001c0000 	andseq	r0, ip, r0
    1600:	00440000 	subeq	r0, r4, r0
    1604:	00010000 	andeq	r0, r1, r0
    1608:	00004453 	andeq	r4, r0, r3, asr r4
    160c:	00004c00 	andeq	r4, r0, r0, lsl #24
    1610:	70001c00 	andvc	r1, r0, r0, lsl #24
    1614:	f72cf700 			; <UNDEFINED> instruction: 0xf72cf700
    1618:	0825f425 	stmdaeq	r5!, {r0, r2, r5, sl, ip, sp, lr, pc}
    161c:	cccccccd 	stclgt	12, cr12, [ip], {205}	; 0xcd
    1620:	00000000 	andeq	r0, r0, r0
    1624:	f720081e 			; <UNDEFINED> instruction: 0xf720081e
    1628:	2cf72525 	cfldr64cs	mvdx2, [r7], #148	; 0x94
    162c:	4c9f2533 	cfldr32mi	mvfx2, [pc], {51}	; 0x33
    1630:	50000000 	andpl	r0, r0, r0
    1634:	01000000 	mrseq	r0, (UNDEF: 0)
    1638:	00505300 	subseq	r5, r0, r0, lsl #6
    163c:	00580000 	subseq	r0, r8, r0
    1640:	001c0000 	andseq	r0, ip, r0
    1644:	2cf70070 	ldclcs	0, cr0, [r7], #448	; 0x1c0
    1648:	25f425f7 	ldrbcs	r2, [r4, #1527]!	; 0x5f7
    164c:	cccccd08 	stclgt	13, cr12, [ip], {8}
    1650:	000000cc 	andeq	r0, r0, ip, asr #1
    1654:	20081e00 	andcs	r1, r8, r0, lsl #28
    1658:	f72525f7 			; <UNDEFINED> instruction: 0xf72525f7
    165c:	9f25332c 	svcls	0x0025332c
    1660:	00000058 	andeq	r0, r0, r8, asr r0
    1664:	0000005c 	andeq	r0, r0, ip, asr r0
    1668:	5c530001 	mrrcpl	0, 0, r0, r3, cr1
    166c:	64000000 	strvs	r0, [r0], #-0
    1670:	1c000000 	stcne	0, cr0, [r0], {-0}
    1674:	f7007000 			; <UNDEFINED> instruction: 0xf7007000
    1678:	f425f72c 	vld1.8	{d15}, [r5 :128], ip
    167c:	cccd0825 	stclgt	8, cr0, [sp], {37}	; 0x25
    1680:	0000cccc 	andeq	ip, r0, ip, asr #25
    1684:	081e0000 	ldmdaeq	lr, {}	; <UNPREDICTABLE>
    1688:	2525f720 	strcs	pc, [r5, #-1824]!	; 0x720
    168c:	25332cf7 	ldrcs	r2, [r3, #-3319]!	; 0xcf7
    1690:	0000649f 	muleq	r0, pc, r4	; <UNPREDICTABLE>
    1694:	00006800 	andeq	r6, r0, r0, lsl #16
    1698:	53000100 	movwpl	r0, #256	; 0x100
    169c:	00000068 	andeq	r0, r0, r8, rrx
    16a0:	00000070 	andeq	r0, r0, r0, ror r0
    16a4:	0070001c 	rsbseq	r0, r0, ip, lsl r0
    16a8:	25f72cf7 	ldrbcs	r2, [r7, #3319]!	; 0xcf7
    16ac:	cd0825f4 	cfstr32gt	mvfx2, [r8, #-976]	; 0xfffffc30
    16b0:	00cccccc 	sbceq	ip, ip, ip, asr #25
    16b4:	1e000000 	cdpne	0, 0, cr0, cr0, cr0, {0}
    16b8:	25f72008 	ldrbcs	r2, [r7, #8]!
    16bc:	332cf725 	msrcc	CPSR_fs, #9699328	; 0x940000
    16c0:	00709f25 	rsbseq	r9, r0, r5, lsr #30
    16c4:	00740000 	rsbseq	r0, r4, r0
    16c8:	00010000 	andeq	r0, r1, r0
    16cc:	00007453 	andeq	r7, r0, r3, asr r4
    16d0:	00007c00 	andeq	r7, r0, r0, lsl #24
    16d4:	70001c00 	andvc	r1, r0, r0, lsl #24
    16d8:	f72cf700 			; <UNDEFINED> instruction: 0xf72cf700
    16dc:	0825f425 	stmdaeq	r5!, {r0, r2, r5, sl, ip, sp, lr, pc}
    16e0:	cccccccd 	stclgt	12, cr12, [ip], {205}	; 0xcd
    16e4:	00000000 	andeq	r0, r0, r0
    16e8:	f720081e 			; <UNDEFINED> instruction: 0xf720081e
    16ec:	2cf72525 	cfldr64cs	mvdx2, [r7], #148	; 0x94
    16f0:	7c9f2533 	cfldr32vc	mvfx2, [pc], {51}	; 0x33
    16f4:	80000000 	andhi	r0, r0, r0
    16f8:	01000000 	mrseq	r0, (UNDEF: 0)
    16fc:	00805300 	addeq	r5, r0, r0, lsl #6
    1700:	00880000 	addeq	r0, r8, r0
    1704:	001c0000 	andseq	r0, ip, r0
    1708:	2cf70070 	ldclcs	0, cr0, [r7], #448	; 0x1c0
    170c:	25f425f7 	ldrbcs	r2, [r4, #1527]!	; 0x5f7
    1710:	cccccd08 	stclgt	13, cr12, [ip], {8}
    1714:	000000cc 	andeq	r0, r0, ip, asr #1
    1718:	20081e00 	andcs	r1, r8, r0, lsl #28
    171c:	f72525f7 			; <UNDEFINED> instruction: 0xf72525f7
    1720:	9f25332c 	svcls	0x0025332c
    1724:	00000088 	andeq	r0, r0, r8, lsl #1
    1728:	0000008c 	andeq	r0, r0, ip, lsl #1
    172c:	8c530001 	mrrchi	0, 0, r0, r3, cr1
    1730:	90000000 	andls	r0, r0, r0
    1734:	1c000000 	stcne	0, cr0, [r0], {-0}
    1738:	f7007000 			; <UNDEFINED> instruction: 0xf7007000
    173c:	f425f72c 	vld1.8	{d15}, [r5 :128], ip
    1740:	cccd0825 	stclgt	8, cr0, [sp], {37}	; 0x25
    1744:	0000cccc 	andeq	ip, r0, ip, asr #25
    1748:	081e0000 	ldmdaeq	lr, {}	; <UNPREDICTABLE>
    174c:	2525f720 	strcs	pc, [r5, #-1824]!	; 0x720
    1750:	25332cf7 	ldrcs	r2, [r3, #-3319]!	; 0xcf7
    1754:	0000909f 	muleq	r0, pc, r0	; <UNPREDICTABLE>
    1758:	00009800 	andeq	r9, r0, r0, lsl #16
    175c:	74001c00 	strvc	r1, [r0], #-3072	; 0xc00
    1760:	f72cf700 			; <UNDEFINED> instruction: 0xf72cf700
    1764:	0825f425 	stmdaeq	r5!, {r0, r2, r5, sl, ip, sp, lr, pc}
    1768:	cccccccd 	stclgt	12, cr12, [ip], {205}	; 0xcd
    176c:	00000000 	andeq	r0, r0, r0
    1770:	f720081e 			; <UNDEFINED> instruction: 0xf720081e
    1774:	2cf72525 	cfldr64cs	mvdx2, [r7], #148	; 0x94
    1778:	989f2533 	ldmls	pc, {r0, r1, r4, r5, r8, sl, sp}	; <UNPREDICTABLE>
    177c:	9c000000 	stcls	0, cr0, [r0], {-0}
    1780:	17000000 	strne	r0, [r0, -r0]
    1784:	f7007400 			; <UNDEFINED> instruction: 0xf7007400
    1788:	7125f72c 	msrvc	SP_abt, ip
    178c:	f72cf700 			; <UNDEFINED> instruction: 0xf72cf700
    1790:	20081e25 	andcs	r1, r8, r5, lsr #28
    1794:	f72525f7 			; <UNDEFINED> instruction: 0xf72525f7
    1798:	9f25332c 	svcls	0x0025332c
    179c:	0000009c 	muleq	r0, ip, r0
    17a0:	000000d4 	ldrdeq	r0, [r0], -r4
    17a4:	0074001c 	rsbseq	r0, r4, ip, lsl r0
    17a8:	25f72cf7 	ldrbcs	r2, [r7, #3319]!	; 0xcf7
    17ac:	cd0825f4 	cfstr32gt	mvfx2, [r8, #-976]	; 0xfffffc30
    17b0:	00cccccc 	sbceq	ip, ip, ip, asr #25
    17b4:	1e000000 	cdpne	0, 0, cr0, cr0, cr0, {0}
    17b8:	25f72008 	ldrbcs	r2, [r7, #8]!
    17bc:	332cf725 	msrcc	CPSR_fs, #9699328	; 0x940000
    17c0:	00009f25 	andeq	r9, r0, r5, lsr #30
    17c4:	00000000 	andeq	r0, r0, r0
    17c8:	00940000 	addseq	r0, r4, r0
    17cc:	00b80000 	adcseq	r0, r8, r0
    17d0:	00010000 	andeq	r0, r1, r0
    17d4:	0000b850 	andeq	fp, r0, r0, asr r8
    17d8:	0000c400 	andeq	ip, r0, r0, lsl #8
    17dc:	31000800 	tstcc	r0, r0, lsl #16
    17e0:	73240071 	teqvc	r4, #113	; 0x71
    17e4:	c49f2100 	ldrgt	r2, [pc], #256	; 17ec <_start-0x6814>
    17e8:	c7000000 	strgt	r0, [r0, -r0]
    17ec:	01000000 	mrseq	r0, (UNDEF: 0)
    17f0:	00005100 	andeq	r5, r0, r0, lsl #2
    17f4:	00000000 	andeq	r0, r0, r0
    17f8:	00d40000 	sbcseq	r0, r4, r0
    17fc:	00f80000 	rscseq	r0, r8, r0
    1800:	00010000 	andeq	r0, r1, r0
    1804:	0000f850 	andeq	pc, r0, r0, asr r8	; <UNPREDICTABLE>
    1808:	00010c00 	andeq	r0, r1, r0, lsl #24
    180c:	f3000400 	vshl.u8	d0, d0, d0
    1810:	009f5001 	addseq	r5, pc, r1
    1814:	00000000 	andeq	r0, r0, r0
    1818:	e0000000 	and	r0, r0, r0
    181c:	e8000000 	stmda	r0, {}	; <UNPREDICTABLE>
    1820:	02000000 	andeq	r0, r0, #0
    1824:	e89f3000 	ldm	pc, {ip, sp}	; <UNPREDICTABLE>
    1828:	e8000000 	stmda	r0, {}	; <UNPREDICTABLE>
    182c:	01000000 	mrseq	r0, (UNDEF: 0)
    1830:	00e85200 	rsceq	r5, r8, r0, lsl #4
    1834:	00f00000 	rscseq	r0, r0, r0
    1838:	00020000 	andeq	r0, r2, r0
    183c:	00f09f30 	rscseq	r9, r0, r0, lsr pc
    1840:	01030000 	mrseq	r0, (UNDEF: 3)
    1844:	00010000 	andeq	r0, r1, r0
    1848:	00000052 	andeq	r0, r0, r2, asr r0
    184c:	00000000 	andeq	r0, r0, r0
    1850:	0000e000 	andeq	lr, r0, r0
    1854:	0000f400 	andeq	pc, r0, r0, lsl #8
    1858:	30000200 	andcc	r0, r0, r0, lsl #4
    185c:	0000f49f 	muleq	r0, pc, r4	; <UNPREDICTABLE>
    1860:	00010000 	andeq	r0, r1, r0
    1864:	31000500 	tstcc	r0, r0, lsl #10
    1868:	9f240073 	svcls	0x00240073
    186c:	00000100 	andeq	r0, r0, r0, lsl #2
    1870:	00000103 	andeq	r0, r0, r3, lsl #2
    1874:	03510001 	cmpeq	r1, #1
    1878:	0c000001 	stceq	0, cr0, [r0], {1}
    187c:	08000001 	stmdaeq	r0, {r0}
    1880:	01f33100 	mvnseq	r3, r0, lsl #2
    1884:	241a4f50 	ldrcs	r4, [sl], #-3920	; 0xf50
    1888:	0000009f 	muleq	r0, pc, r0	; <UNPREDICTABLE>
    188c:	00000000 	andeq	r0, r0, r0
    1890:	00010c00 	andeq	r0, r1, r0, lsl #24
    1894:	00013000 	andeq	r3, r1, r0
    1898:	50000100 	andpl	r0, r0, r0, lsl #2
    189c:	00000130 	andeq	r0, r0, r0, lsr r1
    18a0:	00000144 	andeq	r0, r0, r4, asr #2
    18a4:	01f30004 	mvnseq	r0, r4
    18a8:	00009f50 	andeq	r9, r0, r0, asr pc
    18ac:	00000000 	andeq	r0, r0, r0
    18b0:	01180000 	tsteq	r8, r0
    18b4:	01200000 	teqeq	r0, r0
    18b8:	00020000 	andeq	r0, r2, r0
    18bc:	01209f30 	teqeq	r0, r0, lsr pc
    18c0:	01200000 	teqeq	r0, r0
    18c4:	00010000 	andeq	r0, r1, r0
    18c8:	00012052 	andeq	r2, r1, r2, asr r0
    18cc:	00012800 	andeq	r2, r1, r0, lsl #16
    18d0:	30000200 	andcc	r0, r0, r0, lsl #4
    18d4:	0001289f 	muleq	r1, pc, r8	; <UNPREDICTABLE>
    18d8:	00013b00 	andeq	r3, r1, r0, lsl #22
    18dc:	52000100 	andpl	r0, r0, #0, 2
	...
    18e8:	00000118 	andeq	r0, r0, r8, lsl r1
    18ec:	0000012c 	andeq	r0, r0, ip, lsr #2
    18f0:	9f300002 	svcls	0x00300002
    18f4:	0000012c 	andeq	r0, r0, ip, lsr #2
    18f8:	00000138 	andeq	r0, r0, r8, lsr r1
    18fc:	73310005 	teqvc	r1, #5
    1900:	389f2400 	ldmcc	pc, {sl, sp}	; <UNPREDICTABLE>
    1904:	3b000001 	blcc	1910 <_start-0x66f0>
    1908:	01000001 	tsteq	r0, r1
    190c:	013b5100 	teqeq	fp, r0, lsl #2
    1910:	01440000 	mrseq	r0, (UNDEF: 68)
    1914:	00080000 	andeq	r0, r8, r0
    1918:	5001f331 	andpl	pc, r1, r1, lsr r3	; <UNPREDICTABLE>
    191c:	9f241a4f 	svcls	0x00241a4f
	...
    1928:	00000144 	andeq	r0, r0, r4, asr #2
    192c:	000001d4 	ldrdeq	r0, [r0], -r4
    1930:	d4500001 	ldrble	r0, [r0], #-1
    1934:	10000001 	andne	r0, r0, r1
    1938:	01000002 	tsteq	r0, r2
    193c:	00005400 	andeq	r5, r0, r0, lsl #8
    1940:	00000000 	andeq	r0, r0, r0
    1944:	018c0000 	orreq	r0, ip, r0
    1948:	01900000 	orrseq	r0, r0, r0
    194c:	00010000 	andeq	r0, r1, r0
    1950:	00019855 	andeq	r9, r1, r5, asr r8
    1954:	00019c00 	andeq	r9, r1, r0, lsl #24
    1958:	55000100 	strpl	r0, [r0, #-256]	; 0x100
    195c:	000001a4 	andeq	r0, r0, r4, lsr #3
    1960:	000001a8 	andeq	r0, r0, r8, lsr #3
    1964:	b0550001 	subslt	r0, r5, r1
    1968:	b4000001 	strlt	r0, [r0], #-1
    196c:	01000001 	tsteq	r0, r1
    1970:	01bc5500 			; <UNDEFINED> instruction: 0x01bc5500
    1974:	01c00000 	biceq	r0, r0, r0
    1978:	00010000 	andeq	r0, r1, r0
    197c:	0001c855 	andeq	ip, r1, r5, asr r8
    1980:	0001cc00 	andeq	ip, r1, r0, lsl #24
    1984:	55000100 	strpl	r0, [r0, #-256]	; 0x100
    1988:	000001d0 	ldrdeq	r0, [r0], -r0	; <UNPREDICTABLE>
    198c:	00000210 	andeq	r0, r0, r0, lsl r2
    1990:	00550001 	subseq	r0, r5, r1
    1994:	00000000 	andeq	r0, r0, r0
    1998:	60000000 	andvs	r0, r0, r0
    199c:	88000001 	stmdahi	r0, {r0}
    19a0:	01000001 	tsteq	r0, r1
    19a4:	01885300 	orreq	r5, r8, r0, lsl #6
    19a8:	01900000 	orrseq	r0, r0, r0
    19ac:	001c0000 	andseq	r0, ip, r0
    19b0:	2cf70070 	ldclcs	0, cr0, [r7], #448	; 0x1c0
    19b4:	25f425f7 	ldrbcs	r2, [r4, #1527]!	; 0x5f7
    19b8:	cccccd08 	stclgt	13, cr12, [ip], {8}
    19bc:	000000cc 	andeq	r0, r0, ip, asr #1
    19c0:	20081e00 	andcs	r1, r8, r0, lsl #28
    19c4:	f72525f7 			; <UNDEFINED> instruction: 0xf72525f7
    19c8:	9f25332c 	svcls	0x0025332c
    19cc:	00000190 	muleq	r0, r0, r1
    19d0:	00000194 	muleq	r0, r4, r1
    19d4:	94530001 	ldrbls	r0, [r3], #-1
    19d8:	9c000001 	stcls	0, cr0, [r0], {1}
    19dc:	1c000001 	stcne	0, cr0, [r0], {1}
    19e0:	f7007000 			; <UNDEFINED> instruction: 0xf7007000
    19e4:	f425f72c 	vld1.8	{d15}, [r5 :128], ip
    19e8:	cccd0825 	stclgt	8, cr0, [sp], {37}	; 0x25
    19ec:	0000cccc 	andeq	ip, r0, ip, asr #25
    19f0:	081e0000 	ldmdaeq	lr, {}	; <UNPREDICTABLE>
    19f4:	2525f720 	strcs	pc, [r5, #-1824]!	; 0x720
    19f8:	25332cf7 	ldrcs	r2, [r3, #-3319]!	; 0xcf7
    19fc:	00019c9f 	muleq	r1, pc, ip	; <UNPREDICTABLE>
    1a00:	0001a000 	andeq	sl, r1, r0
    1a04:	53000100 	movwpl	r0, #256	; 0x100
    1a08:	000001a0 	andeq	r0, r0, r0, lsr #3
    1a0c:	000001a8 	andeq	r0, r0, r8, lsr #3
    1a10:	0070001c 	rsbseq	r0, r0, ip, lsl r0
    1a14:	25f72cf7 	ldrbcs	r2, [r7, #3319]!	; 0xcf7
    1a18:	cd0825f4 	cfstr32gt	mvfx2, [r8, #-976]	; 0xfffffc30
    1a1c:	00cccccc 	sbceq	ip, ip, ip, asr #25
    1a20:	1e000000 	cdpne	0, 0, cr0, cr0, cr0, {0}
    1a24:	25f72008 	ldrbcs	r2, [r7, #8]!
    1a28:	332cf725 	msrcc	CPSR_fs, #9699328	; 0x940000
    1a2c:	01a89f25 			; <UNDEFINED> instruction: 0x01a89f25
    1a30:	01ac0000 			; <UNDEFINED> instruction: 0x01ac0000
    1a34:	00010000 	andeq	r0, r1, r0
    1a38:	0001ac53 	andeq	sl, r1, r3, asr ip
    1a3c:	0001b400 	andeq	fp, r1, r0, lsl #8
    1a40:	70001c00 	andvc	r1, r0, r0, lsl #24
    1a44:	f72cf700 			; <UNDEFINED> instruction: 0xf72cf700
    1a48:	0825f425 	stmdaeq	r5!, {r0, r2, r5, sl, ip, sp, lr, pc}
    1a4c:	cccccccd 	stclgt	12, cr12, [ip], {205}	; 0xcd
    1a50:	00000000 	andeq	r0, r0, r0
    1a54:	f720081e 			; <UNDEFINED> instruction: 0xf720081e
    1a58:	2cf72525 	cfldr64cs	mvdx2, [r7], #148	; 0x94
    1a5c:	b49f2533 	ldrlt	r2, [pc], #1331	; 1a64 <_start-0x659c>
    1a60:	b8000001 	stmdalt	r0, {r0}
    1a64:	01000001 	tsteq	r0, r1
    1a68:	01b85300 			; <UNDEFINED> instruction: 0x01b85300
    1a6c:	01c00000 	biceq	r0, r0, r0
    1a70:	001c0000 	andseq	r0, ip, r0
    1a74:	2cf70070 	ldclcs	0, cr0, [r7], #448	; 0x1c0
    1a78:	25f425f7 	ldrbcs	r2, [r4, #1527]!	; 0x5f7
    1a7c:	cccccd08 	stclgt	13, cr12, [ip], {8}
    1a80:	000000cc 	andeq	r0, r0, ip, asr #1
    1a84:	20081e00 	andcs	r1, r8, r0, lsl #28
    1a88:	f72525f7 			; <UNDEFINED> instruction: 0xf72525f7
    1a8c:	9f25332c 	svcls	0x0025332c
    1a90:	000001c0 	andeq	r0, r0, r0, asr #3
    1a94:	000001c4 	andeq	r0, r0, r4, asr #3
    1a98:	c4530001 	ldrbgt	r0, [r3], #-1
    1a9c:	cc000001 	stcgt	0, cr0, [r0], {1}
    1aa0:	1c000001 	stcne	0, cr0, [r0], {1}
    1aa4:	f7007000 			; <UNDEFINED> instruction: 0xf7007000
    1aa8:	f425f72c 	vld1.8	{d15}, [r5 :128], ip
    1aac:	cccd0825 	stclgt	8, cr0, [sp], {37}	; 0x25
    1ab0:	0000cccc 	andeq	ip, r0, ip, asr #25
    1ab4:	081e0000 	ldmdaeq	lr, {}	; <UNPREDICTABLE>
    1ab8:	2525f720 	strcs	pc, [r5, #-1824]!	; 0x720
    1abc:	25332cf7 	ldrcs	r2, [r3, #-3319]!	; 0xcf7
    1ac0:	0001cc9f 	muleq	r1, pc, ip	; <UNPREDICTABLE>
    1ac4:	0001d000 	andeq	sp, r1, r0
    1ac8:	53000100 	movwpl	r0, #256	; 0x100
    1acc:	000001d0 	ldrdeq	r0, [r0], -r0	; <UNPREDICTABLE>
    1ad0:	000001d4 	ldrdeq	r0, [r0], -r4
    1ad4:	0070001c 	rsbseq	r0, r0, ip, lsl r0
    1ad8:	25f72cf7 	ldrbcs	r2, [r7, #3319]!	; 0xcf7
    1adc:	cd0825f4 	cfstr32gt	mvfx2, [r8, #-976]	; 0xfffffc30
    1ae0:	00cccccc 	sbceq	ip, ip, ip, asr #25
    1ae4:	1e000000 	cdpne	0, 0, cr0, cr0, cr0, {0}
    1ae8:	25f72008 	ldrbcs	r2, [r7, #8]!
    1aec:	332cf725 	msrcc	CPSR_fs, #9699328	; 0x940000
    1af0:	01d49f25 	bicseq	r9, r4, r5, lsr #30
    1af4:	01dc0000 	bicseq	r0, ip, r0
    1af8:	001c0000 	andseq	r0, ip, r0
    1afc:	2cf70074 	ldclcs	0, cr0, [r7], #464	; 0x1d0
    1b00:	25f425f7 	ldrbcs	r2, [r4, #1527]!	; 0x5f7
    1b04:	cccccd08 	stclgt	13, cr12, [ip], {8}
    1b08:	000000cc 	andeq	r0, r0, ip, asr #1
    1b0c:	20081e00 	andcs	r1, r8, r0, lsl #28
    1b10:	f72525f7 			; <UNDEFINED> instruction: 0xf72525f7
    1b14:	9f25332c 	svcls	0x0025332c
    1b18:	000001dc 	ldrdeq	r0, [r0], -ip
    1b1c:	000001e0 	andeq	r0, r0, r0, ror #3
    1b20:	00740017 	rsbseq	r0, r4, r7, lsl r0
    1b24:	25f72cf7 	ldrbcs	r2, [r7, #3319]!	; 0xcf7
    1b28:	2cf70071 	ldclcs	0, cr0, [r7], #452	; 0x1c4
    1b2c:	081e25f7 	ldmdaeq	lr, {r0, r1, r2, r4, r5, r6, r7, r8, sl, sp}
    1b30:	2525f720 	strcs	pc, [r5, #-1824]!	; 0x720
    1b34:	25332cf7 	ldrcs	r2, [r3, #-3319]!	; 0xcf7
    1b38:	0001e09f 	muleq	r1, pc, r0	; <UNPREDICTABLE>
    1b3c:	00021000 	andeq	r1, r2, r0
    1b40:	74001c00 	strvc	r1, [r0], #-3072	; 0xc00
    1b44:	f72cf700 			; <UNDEFINED> instruction: 0xf72cf700
    1b48:	0825f425 	stmdaeq	r5!, {r0, r2, r5, sl, ip, sp, lr, pc}
    1b4c:	cccccccd 	stclgt	12, cr12, [ip], {205}	; 0xcd
    1b50:	00000000 	andeq	r0, r0, r0
    1b54:	f720081e 			; <UNDEFINED> instruction: 0xf720081e
    1b58:	2cf72525 	cfldr64cs	mvdx2, [r7], #148	; 0x94
    1b5c:	009f2533 	addseq	r2, pc, r3, lsr r5	; <UNPREDICTABLE>
    1b60:	00000000 	andeq	r0, r0, r0
    1b64:	d8000000 	stmdale	r0, {}	; <UNPREDICTABLE>
    1b68:	fc000001 	stc2	0, cr0, [r0], {1}
    1b6c:	01000001 	tsteq	r0, r1
    1b70:	01fc5000 	mvnseq	r5, r0
    1b74:	02030000 	andeq	r0, r3, #0
    1b78:	00010000 	andeq	r0, r1, r0
    1b7c:	00000051 	andeq	r0, r0, r1, asr r0
    1b80:	00000000 	andeq	r0, r0, r0
    1b84:	00021000 	andeq	r1, r2, r0
    1b88:	00022c00 	andeq	r2, r2, r0, lsl #24
    1b8c:	50000100 	andpl	r0, r0, r0, lsl #2
    1b90:	0000022c 	andeq	r0, r0, ip, lsr #4
    1b94:	00000234 	andeq	r0, r0, r4, lsr r2
    1b98:	34540001 	ldrbcc	r0, [r4], #-1
    1b9c:	3c000002 	stccc	0, cr0, [r0], {2}
    1ba0:	01000002 	tsteq	r0, r2
    1ba4:	023c5000 	eorseq	r5, ip, #0
    1ba8:	02440000 	subeq	r0, r4, #0
    1bac:	00010000 	andeq	r0, r1, r0
    1bb0:	00024454 	andeq	r4, r2, r4, asr r4
    1bb4:	00025000 	andeq	r5, r2, r0
    1bb8:	f3000400 	vshl.u8	d0, d0, d0
    1bbc:	509f5001 	addspl	r5, pc, r1
    1bc0:	54000002 	strpl	r0, [r0], #-2
    1bc4:	01000002 	tsteq	r0, r2
    1bc8:	02545000 	subseq	r5, r4, #0
    1bcc:	025c0000 	subseq	r0, ip, #0
    1bd0:	00010000 	andeq	r0, r1, r0
    1bd4:	00000054 	andeq	r0, r0, r4, asr r0
    1bd8:	00000000 	andeq	r0, r0, r0
    1bdc:	00022000 	andeq	r2, r2, r0
    1be0:	00023000 	andeq	r3, r2, r0
    1be4:	30000200 	andcc	r0, r0, r0, lsl #4
    1be8:	0002309f 	muleq	r2, pc, r0	; <UNPREDICTABLE>
    1bec:	00023400 	andeq	r3, r2, r0, lsl #8
    1bf0:	50000100 	andpl	r0, r0, r0, lsl #2
    1bf4:	00000234 	andeq	r0, r0, r4, lsr r2
    1bf8:	00000240 	andeq	r0, r0, r0, asr #4
    1bfc:	9f300002 	svcls	0x00300002
    1c00:	00000240 	andeq	r0, r0, r0, asr #4
    1c04:	0000024c 	andeq	r0, r0, ip, asr #4
    1c08:	00500001 	subseq	r0, r0, r1
    1c0c:	00000000 	andeq	r0, r0, r0
    1c10:	5c000000 	stcpl	0, cr0, [r0], {-0}
    1c14:	73000002 	movwvc	r0, #2
    1c18:	01000002 	tsteq	r0, r2
    1c1c:	02735000 	rsbseq	r5, r3, #0
    1c20:	02780000 	rsbseq	r0, r8, #0
    1c24:	00040000 	andeq	r0, r4, r0
    1c28:	9f5001f3 	svcls	0x005001f3
    1c2c:	00000278 	andeq	r0, r0, r8, ror r2
    1c30:	0000027b 	andeq	r0, r0, fp, ror r2
    1c34:	7b500001 	blvc	1401c40 <__bss_end__+0x13f7d98>
    1c38:	80000002 	andhi	r0, r0, r2
    1c3c:	04000002 	streq	r0, [r0], #-2
    1c40:	5001f300 	andpl	pc, r1, r0, lsl #6
    1c44:	0000009f 	muleq	r0, pc, r0	; <UNPREDICTABLE>
    1c48:	00000000 	andeq	r0, r0, r0
    1c4c:	00025c00 	andeq	r5, r2, r0, lsl #24
    1c50:	00027300 	andeq	r7, r2, r0, lsl #6
    1c54:	51000100 	mrspl	r0, (UNDEF: 16)
    1c58:	00000273 	andeq	r0, r0, r3, ror r2
    1c5c:	00000278 	andeq	r0, r0, r8, ror r2
    1c60:	01f30004 	mvnseq	r0, r4
    1c64:	02789f51 	rsbseq	r9, r8, #324	; 0x144
    1c68:	027b0000 	rsbseq	r0, fp, #0
    1c6c:	00010000 	andeq	r0, r1, r0
    1c70:	00027b51 	andeq	r7, r2, r1, asr fp
    1c74:	00028000 	andeq	r8, r2, r0
    1c78:	f3000400 	vshl.u8	d0, d0, d0
    1c7c:	009f5101 	addseq	r5, pc, r1, lsl #2
    1c80:	00000000 	andeq	r0, r0, r0
    1c84:	80000000 	andhi	r0, r0, r0
    1c88:	18000002 	stmdane	r0, {r1}
    1c8c:	01000003 	tsteq	r0, r3
    1c90:	03185000 	tsteq	r8, #0
    1c94:	03580000 	cmpeq	r8, #0
    1c98:	00010000 	andeq	r0, r1, r0
    1c9c:	00000054 	andeq	r0, r0, r4, asr r0
    1ca0:	00000000 	andeq	r0, r0, r0
    1ca4:	00028000 	andeq	r8, r2, r0
    1ca8:	00031b00 	andeq	r1, r3, r0, lsl #22
    1cac:	51000100 	mrspl	r0, (UNDEF: 16)
    1cb0:	0000031b 	andeq	r0, r0, fp, lsl r3
    1cb4:	00000358 	andeq	r0, r0, r8, asr r3
    1cb8:	01f30004 	mvnseq	r0, r4
    1cbc:	00009f51 	andeq	r9, r0, r1, asr pc
    1cc0:	00000000 	andeq	r0, r0, r0
    1cc4:	02d00000 	sbcseq	r0, r0, #0
    1cc8:	02d40000 	sbcseq	r0, r4, #0
    1ccc:	00010000 	andeq	r0, r1, r0
    1cd0:	0002dc56 	andeq	sp, r2, r6, asr ip
    1cd4:	0002e000 	andeq	lr, r2, r0
    1cd8:	56000100 	strpl	r0, [r0], -r0, lsl #2
    1cdc:	000002e8 	andeq	r0, r0, r8, ror #5
    1ce0:	000002ec 	andeq	r0, r0, ip, ror #5
    1ce4:	f4560001 			; <UNDEFINED> instruction: 0xf4560001
    1ce8:	f8000002 			; <UNDEFINED> instruction: 0xf8000002
    1cec:	01000002 	tsteq	r0, r2
    1cf0:	03005600 	movweq	r5, #1536	; 0x600
    1cf4:	03040000 	movweq	r0, #16384	; 0x4000
    1cf8:	00010000 	andeq	r0, r1, r0
    1cfc:	00030c56 	andeq	r0, r3, r6, asr ip
    1d00:	00031000 	andeq	r1, r3, r0
    1d04:	56000100 	strpl	r0, [r0], -r0, lsl #2
    1d08:	00000314 	andeq	r0, r0, r4, lsl r3
    1d0c:	00000358 	andeq	r0, r0, r8, asr r3
    1d10:	00560001 	subseq	r0, r6, r1
    1d14:	00000000 	andeq	r0, r0, r0
    1d18:	a4000000 	strge	r0, [r0], #-0
    1d1c:	cc000002 	stcgt	0, cr0, [r0], {2}
    1d20:	01000002 	tsteq	r0, r2
    1d24:	02cc5300 	sbceq	r5, ip, #0, 6
    1d28:	02d40000 	sbcseq	r0, r4, #0
    1d2c:	001c0000 	andseq	r0, ip, r0
    1d30:	2cf70070 	ldclcs	0, cr0, [r7], #448	; 0x1c0
    1d34:	25f425f7 	ldrbcs	r2, [r4, #1527]!	; 0x5f7
    1d38:	cccccd08 	stclgt	13, cr12, [ip], {8}
    1d3c:	000000cc 	andeq	r0, r0, ip, asr #1
    1d40:	20081e00 	andcs	r1, r8, r0, lsl #28
    1d44:	f72525f7 			; <UNDEFINED> instruction: 0xf72525f7
    1d48:	9f25332c 	svcls	0x0025332c
    1d4c:	000002d4 	ldrdeq	r0, [r0], -r4
    1d50:	000002d8 	ldrdeq	r0, [r0], -r8
    1d54:	d8530001 	ldmdale	r3, {r0}^
    1d58:	e0000002 	and	r0, r0, r2
    1d5c:	1c000002 	stcne	0, cr0, [r0], {2}
    1d60:	f7007000 			; <UNDEFINED> instruction: 0xf7007000
    1d64:	f425f72c 	vld1.8	{d15}, [r5 :128], ip
    1d68:	cccd0825 	stclgt	8, cr0, [sp], {37}	; 0x25
    1d6c:	0000cccc 	andeq	ip, r0, ip, asr #25
    1d70:	081e0000 	ldmdaeq	lr, {}	; <UNPREDICTABLE>
    1d74:	2525f720 	strcs	pc, [r5, #-1824]!	; 0x720
    1d78:	25332cf7 	ldrcs	r2, [r3, #-3319]!	; 0xcf7
    1d7c:	0002e09f 	muleq	r2, pc, r0	; <UNPREDICTABLE>
    1d80:	0002e400 	andeq	lr, r2, r0, lsl #8
    1d84:	53000100 	movwpl	r0, #256	; 0x100
    1d88:	000002e4 	andeq	r0, r0, r4, ror #5
    1d8c:	000002ec 	andeq	r0, r0, ip, ror #5
    1d90:	0070001c 	rsbseq	r0, r0, ip, lsl r0
    1d94:	25f72cf7 	ldrbcs	r2, [r7, #3319]!	; 0xcf7
    1d98:	cd0825f4 	cfstr32gt	mvfx2, [r8, #-976]	; 0xfffffc30
    1d9c:	00cccccc 	sbceq	ip, ip, ip, asr #25
    1da0:	1e000000 	cdpne	0, 0, cr0, cr0, cr0, {0}
    1da4:	25f72008 	ldrbcs	r2, [r7, #8]!
    1da8:	332cf725 	msrcc	CPSR_fs, #9699328	; 0x940000
    1dac:	02ec9f25 	rsceq	r9, ip, #37, 30	; 0x94
    1db0:	02f00000 	rscseq	r0, r0, #0
    1db4:	00010000 	andeq	r0, r1, r0
    1db8:	0002f053 	andeq	pc, r2, r3, asr r0	; <UNPREDICTABLE>
    1dbc:	0002f800 	andeq	pc, r2, r0, lsl #16
    1dc0:	70001c00 	andvc	r1, r0, r0, lsl #24
    1dc4:	f72cf700 			; <UNDEFINED> instruction: 0xf72cf700
    1dc8:	0825f425 	stmdaeq	r5!, {r0, r2, r5, sl, ip, sp, lr, pc}
    1dcc:	cccccccd 	stclgt	12, cr12, [ip], {205}	; 0xcd
    1dd0:	00000000 	andeq	r0, r0, r0
    1dd4:	f720081e 			; <UNDEFINED> instruction: 0xf720081e
    1dd8:	2cf72525 	cfldr64cs	mvdx2, [r7], #148	; 0x94
    1ddc:	f89f2533 			; <UNDEFINED> instruction: 0xf89f2533
    1de0:	fc000002 	stc2	0, cr0, [r0], {2}
    1de4:	01000002 	tsteq	r0, r2
    1de8:	02fc5300 	rscseq	r5, ip, #0, 6
    1dec:	03040000 	movweq	r0, #16384	; 0x4000
    1df0:	001c0000 	andseq	r0, ip, r0
    1df4:	2cf70070 	ldclcs	0, cr0, [r7], #448	; 0x1c0
    1df8:	25f425f7 	ldrbcs	r2, [r4, #1527]!	; 0x5f7
    1dfc:	cccccd08 	stclgt	13, cr12, [ip], {8}
    1e00:	000000cc 	andeq	r0, r0, ip, asr #1
    1e04:	20081e00 	andcs	r1, r8, r0, lsl #28
    1e08:	f72525f7 			; <UNDEFINED> instruction: 0xf72525f7
    1e0c:	9f25332c 	svcls	0x0025332c
    1e10:	00000304 	andeq	r0, r0, r4, lsl #6
    1e14:	00000308 	andeq	r0, r0, r8, lsl #6
    1e18:	08530001 	ldmdaeq	r3, {r0}^
    1e1c:	10000003 	andne	r0, r0, r3
    1e20:	1c000003 	stcne	0, cr0, [r0], {3}
    1e24:	f7007000 			; <UNDEFINED> instruction: 0xf7007000
    1e28:	f425f72c 	vld1.8	{d15}, [r5 :128], ip
    1e2c:	cccd0825 	stclgt	8, cr0, [sp], {37}	; 0x25
    1e30:	0000cccc 	andeq	ip, r0, ip, asr #25
    1e34:	081e0000 	ldmdaeq	lr, {}	; <UNPREDICTABLE>
    1e38:	2525f720 	strcs	pc, [r5, #-1824]!	; 0x720
    1e3c:	25332cf7 	ldrcs	r2, [r3, #-3319]!	; 0xcf7
    1e40:	0003109f 	muleq	r3, pc, r0	; <UNPREDICTABLE>
    1e44:	00031400 	andeq	r1, r3, r0, lsl #8
    1e48:	53000100 	movwpl	r0, #256	; 0x100
    1e4c:	00000314 	andeq	r0, r0, r4, lsl r3
    1e50:	00000318 	andeq	r0, r0, r8, lsl r3
    1e54:	0070001c 	rsbseq	r0, r0, ip, lsl r0
    1e58:	25f72cf7 	ldrbcs	r2, [r7, #3319]!	; 0xcf7
    1e5c:	cd0825f4 	cfstr32gt	mvfx2, [r8, #-976]	; 0xfffffc30
    1e60:	00cccccc 	sbceq	ip, ip, ip, asr #25
    1e64:	1e000000 	cdpne	0, 0, cr0, cr0, cr0, {0}
    1e68:	25f72008 	ldrbcs	r2, [r7, #8]!
    1e6c:	332cf725 	msrcc	CPSR_fs, #9699328	; 0x940000
    1e70:	03189f25 	tsteq	r8, #37, 30	; 0x94
    1e74:	03200000 	teqeq	r0, #0
    1e78:	001c0000 	andseq	r0, ip, r0
    1e7c:	2cf70074 	ldclcs	0, cr0, [r7], #464	; 0x1d0
    1e80:	25f425f7 	ldrbcs	r2, [r4, #1527]!	; 0x5f7
    1e84:	cccccd08 	stclgt	13, cr12, [ip], {8}
    1e88:	000000cc 	andeq	r0, r0, ip, asr #1
    1e8c:	20081e00 	andcs	r1, r8, r0, lsl #28
    1e90:	f72525f7 			; <UNDEFINED> instruction: 0xf72525f7
    1e94:	9f25332c 	svcls	0x0025332c
    1e98:	00000320 	andeq	r0, r0, r0, lsr #6
    1e9c:	00000324 	andeq	r0, r0, r4, lsr #6
    1ea0:	00740017 	rsbseq	r0, r4, r7, lsl r0
    1ea4:	25f72cf7 	ldrbcs	r2, [r7, #3319]!	; 0xcf7
    1ea8:	2cf70073 	ldclcs	0, cr0, [r7], #460	; 0x1cc
    1eac:	081e25f7 	ldmdaeq	lr, {r0, r1, r2, r4, r5, r6, r7, r8, sl, sp}
    1eb0:	2525f720 	strcs	pc, [r5, #-1824]!	; 0x720
    1eb4:	25332cf7 	ldrcs	r2, [r3, #-3319]!	; 0xcf7
    1eb8:	0003249f 	muleq	r3, pc, r4	; <UNPREDICTABLE>
    1ebc:	00035800 	andeq	r5, r3, r0, lsl #16
    1ec0:	74001c00 	strvc	r1, [r0], #-3072	; 0xc00
    1ec4:	f72cf700 			; <UNDEFINED> instruction: 0xf72cf700
    1ec8:	0825f425 	stmdaeq	r5!, {r0, r2, r5, sl, ip, sp, lr, pc}
    1ecc:	cccccccd 	stclgt	12, cr12, [ip], {205}	; 0xcd
    1ed0:	00000000 	andeq	r0, r0, r0
    1ed4:	f720081e 			; <UNDEFINED> instruction: 0xf720081e
    1ed8:	2cf72525 	cfldr64cs	mvdx2, [r7], #148	; 0x94
    1edc:	009f2533 	addseq	r2, pc, r3, lsr r5	; <UNPREDICTABLE>
    1ee0:	00000000 	andeq	r0, r0, r0
    1ee4:	1c000000 	stcne	0, cr0, [r0], {-0}
    1ee8:	40000003 	andmi	r0, r0, r3
    1eec:	01000003 	tsteq	r0, r3
    1ef0:	03405000 	movteq	r5, #0
    1ef4:	03480000 	movteq	r0, #32768	; 0x8000
    1ef8:	00090000 	andeq	r0, r9, r0
    1efc:	00730075 	rsbseq	r0, r3, r5, ror r0
    1f00:	21007124 	tstcs	r0, r4, lsr #2
    1f04:	0003489f 	muleq	r3, pc, r8	; <UNPREDICTABLE>
    1f08:	00034b00 	andeq	r4, r3, r0, lsl #22
    1f0c:	51000100 	mrspl	r0, (UNDEF: 16)
	...
    1f18:	00000358 	andeq	r0, r0, r8, asr r3
    1f1c:	0000037c 	andeq	r0, r0, ip, ror r3
    1f20:	7c500001 	mrrcvc	0, 0, r0, r0, cr1	; <UNPREDICTABLE>
    1f24:	90000003 	andls	r0, r0, r3
    1f28:	04000003 	streq	r0, [r0], #-3
    1f2c:	5001f300 	andpl	pc, r1, r0, lsl #6
    1f30:	0000009f 	muleq	r0, pc, r0	; <UNPREDICTABLE>
    1f34:	00000000 	andeq	r0, r0, r0
    1f38:	00036400 	andeq	r6, r3, r0, lsl #8
    1f3c:	00036c00 	andeq	r6, r3, r0, lsl #24
    1f40:	30000200 	andcc	r0, r0, r0, lsl #4
    1f44:	00036c9f 	muleq	r3, pc, ip	; <UNPREDICTABLE>
    1f48:	00036c00 	andeq	r6, r3, r0, lsl #24
    1f4c:	52000100 	andpl	r0, r0, #0, 2
    1f50:	0000036c 	andeq	r0, r0, ip, ror #6
    1f54:	00000374 	andeq	r0, r0, r4, ror r3
    1f58:	9f300002 	svcls	0x00300002
    1f5c:	00000374 	andeq	r0, r0, r4, ror r3
    1f60:	00000387 	andeq	r0, r0, r7, lsl #7
    1f64:	00520001 	subseq	r0, r2, r1
    1f68:	00000000 	andeq	r0, r0, r0
    1f6c:	64000000 	strvs	r0, [r0], #-0
    1f70:	78000003 	stmdavc	r0, {r0, r1}
    1f74:	02000003 	andeq	r0, r0, #3
    1f78:	789f3000 	ldmvc	pc, {ip, sp}	; <UNPREDICTABLE>
    1f7c:	84000003 	strhi	r0, [r0], #-3
    1f80:	05000003 	streq	r0, [r0, #-3]
    1f84:	00733100 	rsbseq	r3, r3, r0, lsl #2
    1f88:	03849f24 	orreq	r9, r4, #36, 30	; 0x90
    1f8c:	03870000 	orreq	r0, r7, #0
    1f90:	00010000 	andeq	r0, r1, r0
    1f94:	00038751 	andeq	r8, r3, r1, asr r7
    1f98:	00039000 	andeq	r9, r3, r0
    1f9c:	31000800 	tstcc	r0, r0, lsl #16
    1fa0:	4f5001f3 	svcmi	0x005001f3
    1fa4:	009f241a 	addseq	r2, pc, sl, lsl r4	; <UNPREDICTABLE>
    1fa8:	00000000 	andeq	r0, r0, r0
    1fac:	90000000 	andls	r0, r0, r0
    1fb0:	9c000003 	stcls	0, cr0, [r0], {3}
    1fb4:	01000003 	tsteq	r0, r3
    1fb8:	039c5000 	orrseq	r5, ip, #0
    1fbc:	03bc0000 			; <UNDEFINED> instruction: 0x03bc0000
    1fc0:	00040000 	andeq	r0, r4, r0
    1fc4:	9f5001f3 	svcls	0x005001f3
	...
    1fd0:	000003bc 			; <UNDEFINED> instruction: 0x000003bc
    1fd4:	000003cf 	andeq	r0, r0, pc, asr #7
    1fd8:	cf500001 	svcgt	0x00500001
    1fdc:	08000003 	stmdaeq	r0, {r0, r1}
    1fe0:	01000004 	tsteq	r0, r4
    1fe4:	04085400 	streq	r5, [r8], #-1024	; 0x400
    1fe8:	04400000 	strbeq	r0, [r0], #-0
    1fec:	00040000 	andeq	r0, r4, r0
    1ff0:	9f5001f3 	svcls	0x005001f3
	...
    1ffc:	00000428 	andeq	r0, r0, r8, lsr #8
    2000:	0000042c 	andeq	r0, r0, ip, lsr #8
    2004:	2c500001 	mrrccs	0, 0, r0, r0, cr1	; <UNPREDICTABLE>
    2008:	33000004 	movwcc	r0, #4
    200c:	01000004 	tsteq	r0, r4
    2010:	00005100 	andeq	r5, r0, r0, lsl #2
    2014:	00000000 	andeq	r0, r0, r0
    2018:	03e40000 	mvneq	r0, #0
    201c:	03ec0000 	mvneq	r0, #0
    2020:	00010000 	andeq	r0, r1, r0
    2024:	0003ec50 	andeq	lr, r3, r0, asr ip
    2028:	0003f300 	andeq	pc, r3, r0, lsl #6
    202c:	51000100 	mrspl	r0, (UNDEF: 16)
	...
    2038:	00000404 	andeq	r0, r0, r4, lsl #8
    203c:	00000410 	andeq	r0, r0, r0, lsl r4
    2040:	10500001 	subsne	r0, r0, r1
    2044:	17000004 	strne	r0, [r0, -r4]
    2048:	01000004 	tsteq	r0, r4
    204c:	00005100 	andeq	r5, r0, r0, lsl #2
    2050:	00000000 	andeq	r0, r0, r0
    2054:	04400000 	strbeq	r0, [r0], #-0
    2058:	04530000 	ldrbeq	r0, [r3], #-0
    205c:	00010000 	andeq	r0, r1, r0
    2060:	00045350 	andeq	r5, r4, r0, asr r3
    2064:	00048c00 	andeq	r8, r4, r0, lsl #24
    2068:	54000100 	strpl	r0, [r0], #-256	; 0x100
    206c:	0000048c 	andeq	r0, r0, ip, lsl #9
    2070:	000004c4 	andeq	r0, r0, r4, asr #9
    2074:	01f30004 	mvnseq	r0, r4
    2078:	00009f50 	andeq	r9, r0, r0, asr pc
    207c:	00000000 	andeq	r0, r0, r0
    2080:	04ac0000 	strteq	r0, [ip], #0
    2084:	04b00000 	ldrteq	r0, [r0], #0
    2088:	00010000 	andeq	r0, r1, r0
    208c:	0004b050 	andeq	fp, r4, r0, asr r0
    2090:	0004b700 	andeq	fp, r4, r0, lsl #14
    2094:	51000100 	mrspl	r0, (UNDEF: 16)
	...
    20a0:	00000468 	andeq	r0, r0, r8, ror #8
    20a4:	00000470 	andeq	r0, r0, r0, ror r4
    20a8:	70500001 	subsvc	r0, r0, r1
    20ac:	77000004 	strvc	r0, [r0, -r4]
    20b0:	01000004 	tsteq	r0, r4
    20b4:	00005100 	andeq	r5, r0, r0, lsl #2
    20b8:	00000000 	andeq	r0, r0, r0
    20bc:	04880000 	streq	r0, [r8], #0
    20c0:	04940000 	ldreq	r0, [r4], #0
    20c4:	00010000 	andeq	r0, r1, r0
    20c8:	00049450 	andeq	r9, r4, r0, asr r4
    20cc:	00049b00 	andeq	r9, r4, r0, lsl #22
    20d0:	51000100 	mrspl	r0, (UNDEF: 16)
	...
    20dc:	000004c4 	andeq	r0, r0, r4, asr #9
    20e0:	000004d7 	ldrdeq	r0, [r0], -r7
    20e4:	d7500001 	ldrble	r0, [r0, -r1]
    20e8:	18000004 	stmdane	r0, {r2}
    20ec:	01000005 	tsteq	r0, r5
    20f0:	05185400 	ldreq	r5, [r8, #-1024]	; 0x400
    20f4:	053c0000 	ldreq	r0, [ip, #-0]!
    20f8:	00040000 	andeq	r0, r4, r0
    20fc:	9f5001f3 	svcls	0x005001f3
    2100:	0000053c 	andeq	r0, r0, ip, lsr r5
    2104:	00000540 	andeq	r0, r0, r0, asr #10
    2108:	40500001 	subsmi	r0, r0, r1
    210c:	48000005 	stmdami	r0, {r0, r2}
    2110:	01000005 	tsteq	r0, r5
    2114:	00005400 	andeq	r5, r0, r0, lsl #8
    2118:	00000000 	andeq	r0, r0, r0
    211c:	04ec0000 	strbteq	r0, [ip], #0
    2120:	04fb0000 	ldrbteq	r0, [fp], #0
    2124:	00080000 	andeq	r0, r8, r0
    2128:	24007431 	strcs	r7, [r0], #-1073	; 0x431
    212c:	9f1a0070 	svcls	0x001a0070
	...
    2138:	00000518 	andeq	r0, r0, r8, lsl r5
    213c:	00000530 	andeq	r0, r0, r0, lsr r5
    2140:	00540001 	subseq	r0, r4, r1
    2144:	00000000 	andeq	r0, r0, r0
    2148:	48000000 	stmdami	r0, {}	; <UNPREDICTABLE>
    214c:	5b000005 	blpl	2168 <_start-0x5e98>
    2150:	01000005 	tsteq	r0, r5
    2154:	055b5000 	ldrbeq	r5, [fp, #-0]
    2158:	05800000 	streq	r0, [r0]
    215c:	00010000 	andeq	r0, r1, r0
    2160:	00058054 	andeq	r8, r5, r4, asr r0
    2164:	0005a000 	andeq	sl, r5, r0
    2168:	f3000400 	vshl.u8	d0, d0, d0
    216c:	009f5001 	addseq	r5, pc, r1
	...
    2178:	04000000 	streq	r0, [r0], #-0
    217c:	01000000 	mrseq	r0, (UNDEF: 0)
    2180:	00045200 	andeq	r5, r4, r0, lsl #4
    2184:	00200000 	eoreq	r0, r0, r0
    2188:	00040000 	andeq	r0, r4, r0
    218c:	9f5201f3 	svcls	0x005201f3
	...
    219c:	0000000c 	andeq	r0, r0, ip
    21a0:	0c500001 	mrrceq	0, 0, r0, r0, cr1	; <UNPREDICTABLE>
    21a4:	14000000 	strne	r0, [r0], #-0
    21a8:	03000000 	movweq	r0, #0
    21ac:	9f017300 	svcls	0x00017300
    21b0:	00000014 	andeq	r0, r0, r4, lsl r0
    21b4:	00000020 	andeq	r0, r0, r0, lsr #32
    21b8:	00530001 	subseq	r0, r3, r1
    21bc:	00000000 	andeq	r0, r0, r0
    21c0:	Address 0x00000000000021c0 is out of bounds.


Disassembly of section .debug_ranges:

00000000 <.debug_ranges>:
   0:	000002b4 			; <UNDEFINED> instruction: 0x000002b4
   4:	000002b8 			; <UNDEFINED> instruction: 0x000002b8
   8:	000002e8 	andeq	r0, r0, r8, ror #5
   c:	000004e0 	andeq	r0, r0, r0, ror #9
	...
  18:	00008810 	andeq	r8, r0, r0, lsl r8
  1c:	00008884 	andeq	r8, r0, r4, lsl #17
	...
