
on.elf:     file format elf32-littlearm


Disassembly of section .text:

00008000 <_start>:
    8000:	e3a0d302 	mov	sp, #134217728	; 0x8000000
    8004:	e3a0b000 	mov	fp, #0
    8008:	eb000218 	bl	8870 <_cstart>
    800c:	eb000246 	bl	892c <rpi_reboot>

00008010 <notmain>:
    8010:	e92d4008 	push	{r3, lr}
    8014:	eb00057a 	bl	9604 <uart_init>
    8018:	e3a03001 	mov	r3, #1
    801c:	ee0f3f1c 	mcr	15, 0, r3, cr15, cr12, {0}
    8020:	e3a00015 	mov	r0, #21
    8024:	eb0002c5 	bl	8b40 <gpio_set_input>
    8028:	e3a00015 	mov	r0, #21
    802c:	eb00000c 	bl	8064 <gpio_set_pullup>
    8030:	e59f0024 	ldr	r0, [pc, #36]	; 805c <notmain+0x4c>
    8034:	e3a01015 	mov	r1, #21
    8038:	eb00008e 	bl	8278 <printk>
    803c:	e3a00015 	mov	r0, #21
    8040:	eb0002be 	bl	8b40 <gpio_set_input>
    8044:	e3a00014 	mov	r0, #20
    8048:	eb000032 	bl	8118 <gpio_set_pulldown>
    804c:	e59f000c 	ldr	r0, [pc, #12]	; 8060 <notmain+0x50>
    8050:	e3a01014 	mov	r1, #20
    8054:	eb000087 	bl	8278 <printk>
    8058:	eb0001f2 	bl	8828 <clean_reboot>
    805c:	00009910 	andeq	r9, r0, r0, lsl r9
    8060:	00009984 	andeq	r9, r0, r4, lsl #19

00008064 <gpio_set_pullup>:
    8064:	e92d4038 	push	{r3, r4, r5, lr}
    8068:	e1a05000 	mov	r5, r0
    806c:	e59f30a0 	ldr	r3, [pc, #160]	; 8114 <gpio_set_pullup+0xb0>
    8070:	e5930000 	ldr	r0, [r3]
    8074:	e3a01002 	mov	r1, #2
    8078:	eb0005bc 	bl	9770 <put32>
    807c:	ee1f2f3c 	mrc	15, 0, r2, cr15, cr12, {1}
    8080:	ee1f3f3c 	mrc	15, 0, r3, cr15, cr12, {1}
    8084:	e0623003 	rsb	r3, r2, r3
    8088:	e3530095 	cmp	r3, #149	; 0x95
    808c:	9afffffb 	bls	8080 <gpio_set_pullup+0x1c>
    8090:	e355001f 	cmp	r5, #31
    8094:	959f3078 	ldrls	r3, [pc, #120]	; 8114 <gpio_set_pullup+0xb0>
    8098:	95934004 	ldrls	r4, [r3, #4]
    809c:	859f3070 	ldrhi	r3, [pc, #112]	; 8114 <gpio_set_pullup+0xb0>
    80a0:	85934008 	ldrhi	r4, [r3, #8]
    80a4:	e205501f 	and	r5, r5, #31
    80a8:	e1a00004 	mov	r0, r4
    80ac:	e3a01001 	mov	r1, #1
    80b0:	e1a01511 	lsl	r1, r1, r5
    80b4:	eb0005ad 	bl	9770 <put32>
    80b8:	ee1f2f3c 	mrc	15, 0, r2, cr15, cr12, {1}
    80bc:	ee1f3f3c 	mrc	15, 0, r3, cr15, cr12, {1}
    80c0:	e0623003 	rsb	r3, r2, r3
    80c4:	e3530095 	cmp	r3, #149	; 0x95
    80c8:	9afffffb 	bls	80bc <gpio_set_pullup+0x58>
    80cc:	e59f3040 	ldr	r3, [pc, #64]	; 8114 <gpio_set_pullup+0xb0>
    80d0:	e5930000 	ldr	r0, [r3]
    80d4:	e3a01000 	mov	r1, #0
    80d8:	eb0005a4 	bl	9770 <put32>
    80dc:	ee1f2f3c 	mrc	15, 0, r2, cr15, cr12, {1}
    80e0:	ee1f3f3c 	mrc	15, 0, r3, cr15, cr12, {1}
    80e4:	e0623003 	rsb	r3, r2, r3
    80e8:	e3530095 	cmp	r3, #149	; 0x95
    80ec:	9afffffb 	bls	80e0 <gpio_set_pullup+0x7c>
    80f0:	e1a00004 	mov	r0, r4
    80f4:	e3a01000 	mov	r1, #0
    80f8:	eb00059c 	bl	9770 <put32>
    80fc:	ee1f2f3c 	mrc	15, 0, r2, cr15, cr12, {1}
    8100:	ee1f3f3c 	mrc	15, 0, r3, cr15, cr12, {1}
    8104:	e0623003 	rsb	r3, r2, r3
    8108:	e3530095 	cmp	r3, #149	; 0x95
    810c:	9afffffb 	bls	8100 <gpio_set_pullup+0x9c>
    8110:	e8bd8038 	pop	{r3, r4, r5, pc}
    8114:	00009868 	andeq	r9, r0, r8, ror #16

00008118 <gpio_set_pulldown>:
    8118:	e92d4038 	push	{r3, r4, r5, lr}
    811c:	e1a05000 	mov	r5, r0
    8120:	e59f30a0 	ldr	r3, [pc, #160]	; 81c8 <gpio_set_pulldown+0xb0>
    8124:	e5930000 	ldr	r0, [r3]
    8128:	e3a01001 	mov	r1, #1
    812c:	eb00058f 	bl	9770 <put32>
    8130:	ee1f2f3c 	mrc	15, 0, r2, cr15, cr12, {1}
    8134:	ee1f3f3c 	mrc	15, 0, r3, cr15, cr12, {1}
    8138:	e0623003 	rsb	r3, r2, r3
    813c:	e3530095 	cmp	r3, #149	; 0x95
    8140:	9afffffb 	bls	8134 <gpio_set_pulldown+0x1c>
    8144:	e355001f 	cmp	r5, #31
    8148:	959f3078 	ldrls	r3, [pc, #120]	; 81c8 <gpio_set_pulldown+0xb0>
    814c:	95934004 	ldrls	r4, [r3, #4]
    8150:	859f3070 	ldrhi	r3, [pc, #112]	; 81c8 <gpio_set_pulldown+0xb0>
    8154:	85934008 	ldrhi	r4, [r3, #8]
    8158:	e205501f 	and	r5, r5, #31
    815c:	e1a00004 	mov	r0, r4
    8160:	e3a01001 	mov	r1, #1
    8164:	e1a01511 	lsl	r1, r1, r5
    8168:	eb000580 	bl	9770 <put32>
    816c:	ee1f2f3c 	mrc	15, 0, r2, cr15, cr12, {1}
    8170:	ee1f3f3c 	mrc	15, 0, r3, cr15, cr12, {1}
    8174:	e0623003 	rsb	r3, r2, r3
    8178:	e3530095 	cmp	r3, #149	; 0x95
    817c:	9afffffb 	bls	8170 <gpio_set_pulldown+0x58>
    8180:	e59f3040 	ldr	r3, [pc, #64]	; 81c8 <gpio_set_pulldown+0xb0>
    8184:	e5930000 	ldr	r0, [r3]
    8188:	e3a01000 	mov	r1, #0
    818c:	eb000577 	bl	9770 <put32>
    8190:	ee1f2f3c 	mrc	15, 0, r2, cr15, cr12, {1}
    8194:	ee1f3f3c 	mrc	15, 0, r3, cr15, cr12, {1}
    8198:	e0623003 	rsb	r3, r2, r3
    819c:	e3530095 	cmp	r3, #149	; 0x95
    81a0:	9afffffb 	bls	8194 <gpio_set_pulldown+0x7c>
    81a4:	e1a00004 	mov	r0, r4
    81a8:	e3a01000 	mov	r1, #0
    81ac:	eb00056f 	bl	9770 <put32>
    81b0:	ee1f2f3c 	mrc	15, 0, r2, cr15, cr12, {1}
    81b4:	ee1f3f3c 	mrc	15, 0, r3, cr15, cr12, {1}
    81b8:	e0623003 	rsb	r3, r2, r3
    81bc:	e3530095 	cmp	r3, #149	; 0x95
    81c0:	9afffffb 	bls	81b4 <gpio_set_pulldown+0x9c>
    81c4:	e8bd8038 	pop	{r3, r4, r5, pc}
    81c8:	00009868 	andeq	r9, r0, r8, ror #16

000081cc <gpio_pud_off>:
    81cc:	e92d4010 	push	{r4, lr}
    81d0:	e1a04000 	mov	r4, r0
    81d4:	e59f3098 	ldr	r3, [pc, #152]	; 8274 <gpio_pud_off+0xa8>
    81d8:	e5930000 	ldr	r0, [r3]
    81dc:	e3a01000 	mov	r1, #0
    81e0:	eb000562 	bl	9770 <put32>
    81e4:	ee1f2f3c 	mrc	15, 0, r2, cr15, cr12, {1}
    81e8:	ee1f3f3c 	mrc	15, 0, r3, cr15, cr12, {1}
    81ec:	e0623003 	rsb	r3, r2, r3
    81f0:	e3530095 	cmp	r3, #149	; 0x95
    81f4:	9afffffb 	bls	81e8 <gpio_pud_off+0x1c>
    81f8:	e354001f 	cmp	r4, #31
    81fc:	959f3070 	ldrls	r3, [pc, #112]	; 8274 <gpio_pud_off+0xa8>
    8200:	95934004 	ldrls	r4, [r3, #4]
    8204:	859f3068 	ldrhi	r3, [pc, #104]	; 8274 <gpio_pud_off+0xa8>
    8208:	85934008 	ldrhi	r4, [r3, #8]
    820c:	e1a00004 	mov	r0, r4
    8210:	e3a01000 	mov	r1, #0
    8214:	eb000555 	bl	9770 <put32>
    8218:	ee1f2f3c 	mrc	15, 0, r2, cr15, cr12, {1}
    821c:	ee1f3f3c 	mrc	15, 0, r3, cr15, cr12, {1}
    8220:	e0623003 	rsb	r3, r2, r3
    8224:	e3530095 	cmp	r3, #149	; 0x95
    8228:	9afffffb 	bls	821c <gpio_pud_off+0x50>
    822c:	e59f3040 	ldr	r3, [pc, #64]	; 8274 <gpio_pud_off+0xa8>
    8230:	e5930000 	ldr	r0, [r3]
    8234:	e3a01000 	mov	r1, #0
    8238:	eb00054c 	bl	9770 <put32>
    823c:	ee1f2f3c 	mrc	15, 0, r2, cr15, cr12, {1}
    8240:	ee1f3f3c 	mrc	15, 0, r3, cr15, cr12, {1}
    8244:	e0623003 	rsb	r3, r2, r3
    8248:	e3530095 	cmp	r3, #149	; 0x95
    824c:	9afffffb 	bls	8240 <gpio_pud_off+0x74>
    8250:	e1a00004 	mov	r0, r4
    8254:	e3a01000 	mov	r1, #0
    8258:	eb000544 	bl	9770 <put32>
    825c:	ee1f2f3c 	mrc	15, 0, r2, cr15, cr12, {1}
    8260:	ee1f3f3c 	mrc	15, 0, r3, cr15, cr12, {1}
    8264:	e0623003 	rsb	r3, r2, r3
    8268:	e3530095 	cmp	r3, #149	; 0x95
    826c:	9afffffb 	bls	8260 <gpio_pud_off+0x94>
    8270:	e8bd8010 	pop	{r4, pc}
    8274:	00009868 	andeq	r9, r0, r8, ror #16

00008278 <printk>:
    8278:	e92d000f 	push	{r0, r1, r2, r3}
    827c:	e92d4030 	push	{r4, r5, lr}
    8280:	e24dd00c 	sub	sp, sp, #12
    8284:	e28d301c 	add	r3, sp, #28
    8288:	e58d3004 	str	r3, [sp, #4]
    828c:	e59f4034 	ldr	r4, [pc, #52]	; 82c8 <printk+0x50>
    8290:	e1a00004 	mov	r0, r4
    8294:	e3a01b01 	mov	r1, #1024	; 0x400
    8298:	e59d2018 	ldr	r2, [sp, #24]
    829c:	eb0000bc 	bl	8594 <va_printk>
    82a0:	e1a05000 	mov	r5, r0
    82a4:	e59f3020 	ldr	r3, [pc, #32]	; 82cc <printk+0x54>
    82a8:	e5933000 	ldr	r3, [r3]
    82ac:	e1a00004 	mov	r0, r4
    82b0:	e12fff33 	blx	r3
    82b4:	e1a00005 	mov	r0, r5
    82b8:	e28dd00c 	add	sp, sp, #12
    82bc:	e8bd4030 	pop	{r4, r5, lr}
    82c0:	e28dd010 	add	sp, sp, #16
    82c4:	e12fff1e 	bx	lr
    82c8:	00009c34 	andeq	r9, r0, r4, lsr ip
    82cc:	00009874 	andeq	r9, r0, r4, ror r8

000082d0 <internal_putk>:
    82d0:	e92d4038 	push	{r3, r4, r5, lr}
    82d4:	e1a04000 	mov	r4, r0
    82d8:	e59f5020 	ldr	r5, [pc, #32]	; 8300 <internal_putk+0x30>
    82dc:	ea000002 	b	82ec <internal_putk+0x1c>
    82e0:	e5953000 	ldr	r3, [r5]
    82e4:	e12fff33 	blx	r3
    82e8:	e2844001 	add	r4, r4, #1
    82ec:	e5d40000 	ldrb	r0, [r4]
    82f0:	e3500000 	cmp	r0, #0
    82f4:	1afffff9 	bne	82e0 <internal_putk+0x10>
    82f8:	e3a00001 	mov	r0, #1
    82fc:	e8bd8038 	pop	{r3, r4, r5, pc}
    8300:	0000990c 	andeq	r9, r0, ip, lsl #18

00008304 <isdigit>:
    8304:	e2400030 	sub	r0, r0, #48	; 0x30
    8308:	e3500009 	cmp	r0, #9
    830c:	83a00000 	movhi	r0, #0
    8310:	93a00001 	movls	r0, #1
    8314:	e12fff1e 	bx	lr

00008318 <pad>:
    8318:	e0611000 	rsb	r1, r1, r0
    831c:	e3a03020 	mov	r3, #32
    8320:	ea000002 	b	8330 <pad+0x18>
    8324:	e5c03000 	strb	r3, [r0]
    8328:	e2811001 	add	r1, r1, #1
    832c:	e2800001 	add	r0, r0, #1
    8330:	e1510002 	cmp	r1, r2
    8334:	bafffffa 	blt	8324 <pad+0xc>
    8338:	e3a03000 	mov	r3, #0
    833c:	e5c03000 	strb	r3, [r0]
    8340:	e12fff1e 	bx	lr

00008344 <reverse>:
    8344:	e063c002 	rsb	ip, r3, r2
    8348:	e28cc001 	add	ip, ip, #1
    834c:	e15c0001 	cmp	ip, r1
    8350:	c061100c 	rsbgt	r1, r1, ip
    8354:	c0833001 	addgt	r3, r3, r1
    8358:	e2422001 	sub	r2, r2, #1
    835c:	e1a01000 	mov	r1, r0
    8360:	ea000002 	b	8370 <reverse+0x2c>
    8364:	e452c001 	ldrb	ip, [r2], #-1
    8368:	e5c1c000 	strb	ip, [r1]
    836c:	e2811001 	add	r1, r1, #1
    8370:	e1520003 	cmp	r2, r3
    8374:	2afffffa 	bcs	8364 <reverse+0x20>
    8378:	e3a03000 	mov	r3, #0
    837c:	e5c13000 	strb	r3, [r1]
    8380:	e12fff1e 	bx	lr

00008384 <emit>:
    8384:	e92d41f0 	push	{r4, r5, r6, r7, r8, lr}
    8388:	e24dd048 	sub	sp, sp, #72	; 0x48
    838c:	e1a05001 	mov	r5, r1
    8390:	e1a04002 	mov	r4, r2
    8394:	e59d2060 	ldr	r2, [sp, #96]	; 0x60
    8398:	e1520004 	cmp	r2, r4
    839c:	c2442001 	subgt	r2, r4, #1
    83a0:	e1a0c003 	mov	ip, r3
    83a4:	e2400002 	sub	r0, r0, #2
    83a8:	e350000e 	cmp	r0, #14
    83ac:	979ff100 	ldrls	pc, [pc, r0, lsl #2]
    83b0:	ea000042 	b	84c0 <emit+0x13c>
    83b4:	00008498 	muleq	r0, r8, r4
    83b8:	000084c0 	andeq	r8, r0, r0, asr #9
    83bc:	000084c0 	andeq	r8, r0, r0, asr #9
    83c0:	000084c0 	andeq	r8, r0, r0, asr #9
    83c4:	000084c0 	andeq	r8, r0, r0, asr #9
    83c8:	000084c0 	andeq	r8, r0, r0, asr #9
    83cc:	0000848c 	andeq	r8, r0, ip, lsl #9
    83d0:	000084c0 	andeq	r8, r0, r0, asr #9
    83d4:	000083f0 	strdeq	r8, [r0], -r0
    83d8:	000084c0 	andeq	r8, r0, r0, asr #9
    83dc:	000084c0 	andeq	r8, r0, r0, asr #9
    83e0:	000084c0 	andeq	r8, r0, r0, asr #9
    83e4:	000084c0 	andeq	r8, r0, r0, asr #9
    83e8:	000084c0 	andeq	r8, r0, r0, asr #9
    83ec:	00008464 	andeq	r8, r0, r4, ror #8
    83f0:	e59d1064 	ldr	r1, [sp, #100]	; 0x64
    83f4:	e2911000 	adds	r1, r1, #0
    83f8:	13a01001 	movne	r1, #1
    83fc:	e0111fa3 	ands	r1, r1, r3, lsr #31
    8400:	1263c000 	rsbne	ip, r3, #0
    8404:	13a08001 	movne	r8, #1
    8408:	03a08000 	moveq	r8, #0
    840c:	e28d1008 	add	r1, sp, #8
    8410:	e59f70f4 	ldr	r7, [pc, #244]	; 850c <emit+0x188>
    8414:	e59f60f4 	ldr	r6, [pc, #244]	; 8510 <emit+0x18c>
    8418:	ea000000 	b	8420 <emit+0x9c>
    841c:	e1a01003 	mov	r1, r3
    8420:	e2813001 	add	r3, r1, #1
    8424:	e08e0c97 	umull	r0, lr, r7, ip
    8428:	e1a0e1ae 	lsr	lr, lr, #3
    842c:	e1a0000e 	mov	r0, lr
    8430:	e08ee10e 	add	lr, lr, lr, lsl #2
    8434:	e1a0e08e 	lsl	lr, lr, #1
    8438:	e06ee00c 	rsb	lr, lr, ip
    843c:	e7d6c00e 	ldrb	ip, [r6, lr]
    8440:	e5c1c000 	strb	ip, [r1]
    8444:	e1a0c000 	mov	ip, r0
    8448:	e3500000 	cmp	r0, #0
    844c:	1afffff2 	bne	841c <emit+0x98>
    8450:	e3580000 	cmp	r8, #0
    8454:	12813002 	addne	r3, r1, #2
    8458:	13a0002d 	movne	r0, #45	; 0x2d
    845c:	15c10001 	strbne	r0, [r1, #1]
    8460:	ea00001f 	b	84e4 <emit+0x160>
    8464:	e28de008 	add	lr, sp, #8
    8468:	e59f00a4 	ldr	r0, [pc, #164]	; 8514 <emit+0x190>
    846c:	e28e3001 	add	r3, lr, #1
    8470:	e20c100f 	and	r1, ip, #15
    8474:	e7d01001 	ldrb	r1, [r0, r1]
    8478:	e5ce1000 	strb	r1, [lr]
    847c:	e1a0e003 	mov	lr, r3
    8480:	e1b0c22c 	lsrs	ip, ip, #4
    8484:	1afffff8 	bne	846c <emit+0xe8>
    8488:	ea000015 	b	84e4 <emit+0x160>
    848c:	e5cd3008 	strb	r3, [sp, #8]
    8490:	e28d3009 	add	r3, sp, #9
    8494:	ea000012 	b	84e4 <emit+0x160>
    8498:	e28de008 	add	lr, sp, #8
    849c:	e59f0074 	ldr	r0, [pc, #116]	; 8518 <emit+0x194>
    84a0:	e28e3001 	add	r3, lr, #1
    84a4:	e20c1001 	and	r1, ip, #1
    84a8:	e7d01001 	ldrb	r1, [r0, r1]
    84ac:	e5ce1000 	strb	r1, [lr]
    84b0:	e1a0e003 	mov	lr, r3
    84b4:	e1b0c0ac 	lsrs	ip, ip, #1
    84b8:	1afffff8 	bne	84a0 <emit+0x11c>
    84bc:	ea000008 	b	84e4 <emit+0x160>
    84c0:	eb0004c2 	bl	97d0 <rpi_reset_putc>
    84c4:	e59f3050 	ldr	r3, [pc, #80]	; 851c <emit+0x198>
    84c8:	e58d3000 	str	r3, [sp]
    84cc:	e59f004c 	ldr	r0, [pc, #76]	; 8520 <emit+0x19c>
    84d0:	e59f104c 	ldr	r1, [pc, #76]	; 8524 <emit+0x1a0>
    84d4:	e59f204c 	ldr	r2, [pc, #76]	; 8528 <emit+0x1a4>
    84d8:	e3a03075 	mov	r3, #117	; 0x75
    84dc:	ebffff65 	bl	8278 <printk>
    84e0:	eb0000d0 	bl	8828 <clean_reboot>
    84e4:	e1a00003 	mov	r0, r3
    84e8:	e28d1008 	add	r1, sp, #8
    84ec:	ebffff89 	bl	8318 <pad>
    84f0:	e1a02000 	mov	r2, r0
    84f4:	e1a00005 	mov	r0, r5
    84f8:	e1a01004 	mov	r1, r4
    84fc:	e28d3008 	add	r3, sp, #8
    8500:	ebffff8f 	bl	8344 <reverse>
    8504:	e28dd048 	add	sp, sp, #72	; 0x48
    8508:	e8bd81f0 	pop	{r4, r5, r6, r7, r8, pc}
    850c:	cccccccd 	stclgt	12, cr12, [ip], {205}	; 0xcd
    8510:	00009a48 	andeq	r9, r0, r8, asr #20
    8514:	00009a54 	andeq	r9, r0, r4, asr sl
    8518:	00009a68 	andeq	r9, r0, r8, ror #20
    851c:	00009a44 	andeq	r9, r0, r4, asr #20
    8520:	00009a1c 	andeq	r9, r0, ip, lsl sl
    8524:	00009a30 	andeq	r9, r0, r0, lsr sl
    8528:	000099f8 	strdeq	r9, [r0], -r8

0000852c <rpi_set_output>:
    852c:	e52de004 	push	{lr}		; (str lr, [sp, #-4]!)
    8530:	e24dd00c 	sub	sp, sp, #12
    8534:	e3500000 	cmp	r0, #0
    8538:	1a000008 	bne	8560 <rpi_set_output+0x34>
    853c:	eb0004a3 	bl	97d0 <rpi_reset_putc>
    8540:	e59f3034 	ldr	r3, [pc, #52]	; 857c <rpi_set_output+0x50>
    8544:	e58d3000 	str	r3, [sp]
    8548:	e59f0030 	ldr	r0, [pc, #48]	; 8580 <rpi_set_output+0x54>
    854c:	e59f1030 	ldr	r1, [pc, #48]	; 8584 <rpi_set_output+0x58>
    8550:	e59f2030 	ldr	r2, [pc, #48]	; 8588 <rpi_set_output+0x5c>
    8554:	e3a03020 	mov	r3, #32
    8558:	ebffff46 	bl	8278 <printk>
    855c:	eb0000b1 	bl	8828 <clean_reboot>
    8560:	e59f3024 	ldr	r3, [pc, #36]	; 858c <rpi_set_output+0x60>
    8564:	e5830000 	str	r0, [r3]
    8568:	e3510000 	cmp	r1, #0
    856c:	159f301c 	ldrne	r3, [pc, #28]	; 8590 <rpi_set_output+0x64>
    8570:	15831000 	strne	r1, [r3]
    8574:	e28dd00c 	add	sp, sp, #12
    8578:	e49df004 	pop	{pc}		; (ldr pc, [sp], #4)
    857c:	00009a6c 	andeq	r9, r0, ip, ror #20
    8580:	00009a1c 	andeq	r9, r0, ip, lsl sl
    8584:	00009a30 	andeq	r9, r0, r0, lsr sl
    8588:	00009a00 	andeq	r9, r0, r0, lsl #20
    858c:	0000990c 	andeq	r9, r0, ip, lsl #18
    8590:	00009874 	andeq	r9, r0, r4, ror r8

00008594 <va_printk>:
    8594:	e92d4ff0 	push	{r4, r5, r6, r7, r8, r9, sl, fp, lr}
    8598:	e24dd08c 	sub	sp, sp, #140	; 0x8c
    859c:	e1a0a000 	mov	sl, r0
    85a0:	e1a09003 	mov	r9, r3
    85a4:	e2411001 	sub	r1, r1, #1
    85a8:	e0808001 	add	r8, r0, r1
    85ac:	e3a03000 	mov	r3, #0
    85b0:	e5c03000 	strb	r3, [r0]
    85b4:	e1a04000 	mov	r4, r0
    85b8:	e1a0b003 	mov	fp, r3
    85bc:	ea000088 	b	87e4 <va_printk+0x250>
    85c0:	e3530025 	cmp	r3, #37	; 0x25
    85c4:	12822001 	addne	r2, r2, #1
    85c8:	15c43000 	strbne	r3, [r4]
    85cc:	12844001 	addne	r4, r4, #1
    85d0:	1a000083 	bne	87e4 <va_printk+0x250>
    85d4:	e5d21001 	ldrb	r1, [r2, #1]
    85d8:	e3510025 	cmp	r1, #37	; 0x25
    85dc:	05c43000 	strbeq	r3, [r4]
    85e0:	02822002 	addeq	r2, r2, #2
    85e4:	02844001 	addeq	r4, r4, #1
    85e8:	0a00007d 	beq	87e4 <va_printk+0x250>
    85ec:	e2826001 	add	r6, r2, #1
    85f0:	e1a0700b 	mov	r7, fp
    85f4:	ea000004 	b	860c <va_printk+0x78>
    85f8:	e0877107 	add	r7, r7, r7, lsl #2
    85fc:	e1a07087 	lsl	r7, r7, #1
    8600:	e0877005 	add	r7, r7, r5
    8604:	e2477030 	sub	r7, r7, #48	; 0x30
    8608:	e2866001 	add	r6, r6, #1
    860c:	e5d65000 	ldrb	r5, [r6]
    8610:	e1a00005 	mov	r0, r5
    8614:	ebffff3a 	bl	8304 <isdigit>
    8618:	e3500000 	cmp	r0, #0
    861c:	1afffff5 	bne	85f8 <va_printk+0x64>
    8620:	e357001f 	cmp	r7, #31
    8624:	9a000008 	bls	864c <va_printk+0xb8>
    8628:	eb000468 	bl	97d0 <rpi_reset_putc>
    862c:	e59f31dc 	ldr	r3, [pc, #476]	; 8810 <va_printk+0x27c>
    8630:	e58d3000 	str	r3, [sp]
    8634:	e59f01d8 	ldr	r0, [pc, #472]	; 8814 <va_printk+0x280>
    8638:	e59f11d8 	ldr	r1, [pc, #472]	; 8818 <va_printk+0x284>
    863c:	e59f21d8 	ldr	r2, [pc, #472]	; 881c <va_printk+0x288>
    8640:	e3a03092 	mov	r3, #146	; 0x92
    8644:	ebffff0b 	bl	8278 <printk>
    8648:	eb000076 	bl	8828 <clean_reboot>
    864c:	e2455062 	sub	r5, r5, #98	; 0x62
    8650:	e3550016 	cmp	r5, #22
    8654:	979ff105 	ldrls	pc, [pc, r5, lsl #2]
    8658:	ea00004e 	b	8798 <va_printk+0x204>
    865c:	00008744 	andeq	r8, r0, r4, asr #14
    8660:	00008774 	andeq	r8, r0, r4, ror r7
    8664:	000086d4 	ldrdeq	r8, [r0], -r4
    8668:	00008798 	muleq	r0, r8, r7
    866c:	000086b8 			; <UNDEFINED> instruction: 0x000086b8
    8670:	00008798 	muleq	r0, r8, r7
    8674:	00008798 	muleq	r0, r8, r7
    8678:	00008798 	muleq	r0, r8, r7
    867c:	00008798 	muleq	r0, r8, r7
    8680:	00008798 	muleq	r0, r8, r7
    8684:	00008798 	muleq	r0, r8, r7
    8688:	00008798 	muleq	r0, r8, r7
    868c:	00008798 	muleq	r0, r8, r7
    8690:	00008798 	muleq	r0, r8, r7
    8694:	00008720 	andeq	r8, r0, r0, lsr #14
    8698:	00008798 	muleq	r0, r8, r7
    869c:	00008798 	muleq	r0, r8, r7
    86a0:	00008768 	andeq	r8, r0, r8, ror #14
    86a4:	00008798 	muleq	r0, r8, r7
    86a8:	000086fc 	strdeq	r8, [r0], -ip
    86ac:	00008798 	muleq	r0, r8, r7
    86b0:	00008798 	muleq	r0, r8, r7
    86b4:	00008720 	andeq	r8, r0, r0, lsr #14
    86b8:	eb000444 	bl	97d0 <rpi_reset_putc>
    86bc:	e59f015c 	ldr	r0, [pc, #348]	; 8820 <va_printk+0x28c>
    86c0:	e59f1150 	ldr	r1, [pc, #336]	; 8818 <va_printk+0x284>
    86c4:	e59f2150 	ldr	r2, [pc, #336]	; 881c <va_printk+0x288>
    86c8:	e3a03098 	mov	r3, #152	; 0x98
    86cc:	ebfffee9 	bl	8278 <printk>
    86d0:	eb000054 	bl	8828 <clean_reboot>
    86d4:	e5993000 	ldr	r3, [r9]
    86d8:	e2899004 	add	r9, r9, #4
    86dc:	e58d7000 	str	r7, [sp]
    86e0:	e3a02001 	mov	r2, #1
    86e4:	e58d2004 	str	r2, [sp, #4]
    86e8:	e3a0000a 	mov	r0, #10
    86ec:	e28d1008 	add	r1, sp, #8
    86f0:	e3a02080 	mov	r2, #128	; 0x80
    86f4:	ebffff22 	bl	8384 <emit>
    86f8:	ea00002f 	b	87bc <va_printk+0x228>
    86fc:	e5993000 	ldr	r3, [r9]
    8700:	e2899004 	add	r9, r9, #4
    8704:	e58d7000 	str	r7, [sp]
    8708:	e58db004 	str	fp, [sp, #4]
    870c:	e3a0000a 	mov	r0, #10
    8710:	e28d1008 	add	r1, sp, #8
    8714:	e3a02080 	mov	r2, #128	; 0x80
    8718:	ebffff19 	bl	8384 <emit>
    871c:	ea000026 	b	87bc <va_printk+0x228>
    8720:	e5993000 	ldr	r3, [r9]
    8724:	e2899004 	add	r9, r9, #4
    8728:	e58d7000 	str	r7, [sp]
    872c:	e58db004 	str	fp, [sp, #4]
    8730:	e3a00010 	mov	r0, #16
    8734:	e28d1008 	add	r1, sp, #8
    8738:	e3a02080 	mov	r2, #128	; 0x80
    873c:	ebffff10 	bl	8384 <emit>
    8740:	ea00001d 	b	87bc <va_printk+0x228>
    8744:	e5993000 	ldr	r3, [r9]
    8748:	e2899004 	add	r9, r9, #4
    874c:	e58d7000 	str	r7, [sp]
    8750:	e58db004 	str	fp, [sp, #4]
    8754:	e3a00002 	mov	r0, #2
    8758:	e28d1008 	add	r1, sp, #8
    875c:	e3a02080 	mov	r2, #128	; 0x80
    8760:	ebffff07 	bl	8384 <emit>
    8764:	ea000014 	b	87bc <va_printk+0x228>
    8768:	e5990000 	ldr	r0, [r9]
    876c:	e2899004 	add	r9, r9, #4
    8770:	ea000011 	b	87bc <va_printk+0x228>
    8774:	e5993000 	ldr	r3, [r9]
    8778:	e2899004 	add	r9, r9, #4
    877c:	e58d7000 	str	r7, [sp]
    8780:	e58db004 	str	fp, [sp, #4]
    8784:	e3a00008 	mov	r0, #8
    8788:	e08d1000 	add	r1, sp, r0
    878c:	e3a02080 	mov	r2, #128	; 0x80
    8790:	ebfffefb 	bl	8384 <emit>
    8794:	ea000008 	b	87bc <va_printk+0x228>
    8798:	eb00040c 	bl	97d0 <rpi_reset_putc>
    879c:	e5d63000 	ldrb	r3, [r6]
    87a0:	e58d3000 	str	r3, [sp]
    87a4:	e59f0078 	ldr	r0, [pc, #120]	; 8824 <va_printk+0x290>
    87a8:	e59f1068 	ldr	r1, [pc, #104]	; 8818 <va_printk+0x284>
    87ac:	e59f2068 	ldr	r2, [pc, #104]	; 881c <va_printk+0x288>
    87b0:	e3a030b9 	mov	r3, #185	; 0xb9
    87b4:	ebfffeaf 	bl	8278 <printk>
    87b8:	eb00001a 	bl	8828 <clean_reboot>
    87bc:	e2862001 	add	r2, r6, #1
    87c0:	ea000002 	b	87d0 <va_printk+0x23c>
    87c4:	e2800001 	add	r0, r0, #1
    87c8:	e5c43000 	strb	r3, [r4]
    87cc:	e2844001 	add	r4, r4, #1
    87d0:	e1540008 	cmp	r4, r8
    87d4:	2a000002 	bcs	87e4 <va_printk+0x250>
    87d8:	e5d03000 	ldrb	r3, [r0]
    87dc:	e3530000 	cmp	r3, #0
    87e0:	1afffff7 	bne	87c4 <va_printk+0x230>
    87e4:	e5d23000 	ldrb	r3, [r2]
    87e8:	e3530000 	cmp	r3, #0
    87ec:	0a000001 	beq	87f8 <va_printk+0x264>
    87f0:	e1540008 	cmp	r4, r8
    87f4:	3affff71 	bcc	85c0 <va_printk+0x2c>
    87f8:	e2840001 	add	r0, r4, #1
    87fc:	e3a03000 	mov	r3, #0
    8800:	e5c43000 	strb	r3, [r4]
    8804:	e06a0000 	rsb	r0, sl, r0
    8808:	e28dd08c 	add	sp, sp, #140	; 0x8c
    880c:	e8bd8ff0 	pop	{r4, r5, r6, r7, r8, r9, sl, fp, pc}
    8810:	00009a74 	andeq	r9, r0, r4, ror sl
    8814:	00009a1c 	andeq	r9, r0, ip, lsl sl
    8818:	00009a30 	andeq	r9, r0, r0, lsr sl
    881c:	00009a10 	andeq	r9, r0, r0, lsl sl
    8820:	00009a80 	andeq	r9, r0, r0, lsl #21
    8824:	00009aa8 	andeq	r9, r0, r8, lsr #21

00008828 <clean_reboot>:
    8828:	e92d4008 	push	{r3, lr}
    882c:	e59f3014 	ldr	r3, [pc, #20]	; 8848 <clean_reboot+0x20>
    8830:	e5933000 	ldr	r3, [r3]
    8834:	e59f0010 	ldr	r0, [pc, #16]	; 884c <clean_reboot+0x24>
    8838:	e12fff33 	blx	r3
    883c:	e3a00064 	mov	r0, #100	; 0x64
    8840:	eb000063 	bl	89d4 <delay_ms>
    8844:	eb000038 	bl	892c <rpi_reboot>
    8848:	00009874 	andeq	r9, r0, r4, ror r8
    884c:	00009ae0 	andeq	r9, r0, r0, ror #21

00008850 <internal_sw_putchar>:
    8850:	e92d4010 	push	{r4, lr}
    8854:	e1a04000 	mov	r4, r0
    8858:	e59f000c 	ldr	r0, [pc, #12]	; 886c <internal_sw_putchar+0x1c>
    885c:	e6ef1074 	uxtb	r1, r4
    8860:	eb0001cd 	bl	8f9c <sw_uart_putc>
    8864:	e1a00004 	mov	r0, r4
    8868:	e8bd8010 	pop	{r4, pc}
    886c:	0000a034 	andeq	sl, r0, r4, lsr r0

00008870 <_cstart>:
    8870:	e92d4008 	push	{r3, lr}
    8874:	e59f3068 	ldr	r3, [pc, #104]	; 88e4 <_cstart+0x74>
    8878:	e59f2068 	ldr	r2, [pc, #104]	; 88e8 <_cstart+0x78>
    887c:	e3a01000 	mov	r1, #0
    8880:	ea000001 	b	888c <_cstart+0x1c>
    8884:	e5831000 	str	r1, [r3]
    8888:	e2833004 	add	r3, r3, #4
    888c:	e1530002 	cmp	r3, r2
    8890:	3afffffb 	bcc	8884 <_cstart+0x14>
    8894:	eb0003e1 	bl	9820 <cb_get_block>
    8898:	e3500000 	cmp	r0, #0
    889c:	0a00000e 	beq	88dc <_cstart+0x6c>
    88a0:	e5d02004 	ldrb	r2, [r0, #4]
    88a4:	e3520002 	cmp	r2, #2
    88a8:	1a00000b 	bne	88dc <_cstart+0x6c>
    88ac:	e59f1038 	ldr	r1, [pc, #56]	; 88ec <_cstart+0x7c>
    88b0:	e59f2038 	ldr	r2, [pc, #56]	; 88f0 <_cstart+0x80>
    88b4:	e5821000 	str	r1, [r2]
    88b8:	e59fc034 	ldr	ip, [pc, #52]	; 88f4 <_cstart+0x84>
    88bc:	e2803008 	add	r3, r0, #8
    88c0:	e8930007 	ldm	r3, {r0, r1, r2}
    88c4:	e88c0007 	stm	ip, {r0, r1, r2}
    88c8:	e1a0000c 	mov	r0, ip
    88cc:	e59f1024 	ldr	r1, [pc, #36]	; 88f8 <_cstart+0x88>
    88d0:	eb000314 	bl	9528 <sw_uart_printk>
    88d4:	e59f0020 	ldr	r0, [pc, #32]	; 88fc <_cstart+0x8c>
    88d8:	ebfffe66 	bl	8278 <printk>
    88dc:	ebfffdcb 	bl	8010 <notmain>
    88e0:	eb000011 	bl	892c <rpi_reboot>
    88e4:	00009c34 	andeq	r9, r0, r4, lsr ip
    88e8:	0000a040 	andeq	sl, r0, r0, asr #32
    88ec:	00008850 	andeq	r8, r0, r0, asr r8
    88f0:	0000990c 	andeq	r9, r0, ip, lsl #18
    88f4:	0000a034 	andeq	sl, r0, r4, lsr r0
    88f8:	00009aec 	andeq	r9, r0, ip, ror #21
    88fc:	00009b10 	andeq	r9, r0, r0, lsl fp

00008900 <at_user_level>:
    8900:	e10f0000 	mrs	r0, CPSR
    8904:	e200001f 	and	r0, r0, #31
    8908:	e3500010 	cmp	r0, #16
    890c:	13a00000 	movne	r0, #0
    8910:	03a00001 	moveq	r0, #1
    8914:	e12fff1e 	bx	lr

00008918 <set_user_level>:
    8918:	e10f3000 	mrs	r3, CPSR
    891c:	e3c3301f 	bic	r3, r3, #31
    8920:	e3833010 	orr	r3, r3, #16
    8924:	e129f003 	msr	CPSR_fc, r3
    8928:	e12fff1e 	bx	lr

0000892c <rpi_reboot>:
    892c:	e92d4008 	push	{r3, lr}
    8930:	ebfffff2 	bl	8900 <at_user_level>
    8934:	e3500000 	cmp	r0, #0
    8938:	0a000000 	beq	8940 <rpi_reboot+0x14>
    893c:	ebfffff5 	bl	8918 <set_user_level>
    8940:	e3a0001e 	mov	r0, #30
    8944:	eb000022 	bl	89d4 <delay_ms>
    8948:	e59f0014 	ldr	r0, [pc, #20]	; 8964 <rpi_reboot+0x38>
    894c:	e59f1014 	ldr	r1, [pc, #20]	; 8968 <rpi_reboot+0x3c>
    8950:	eb000388 	bl	9778 <PUT32>
    8954:	e59f0010 	ldr	r0, [pc, #16]	; 896c <rpi_reboot+0x40>
    8958:	e59f1010 	ldr	r1, [pc, #16]	; 8970 <rpi_reboot+0x44>
    895c:	eb000385 	bl	9778 <PUT32>
    8960:	eafffffe 	b	8960 <rpi_reboot+0x34>
    8964:	20100024 	andscs	r0, r0, r4, lsr #32
    8968:	5a000001 	bpl	8974 <delay_cycles>
    896c:	2010001c 	andscs	r0, r0, ip, lsl r0
    8970:	5a000020 	bpl	89f8 <delay_sec+0x10>

00008974 <delay_cycles>:
    8974:	ea000001 	b	8980 <delay_cycles+0xc>
    8978:	e2811000 	add	r1, r1, #0
    897c:	e1a00003 	mov	r0, r3
    8980:	e2403001 	sub	r3, r0, #1
    8984:	e3500000 	cmp	r0, #0
    8988:	1afffffa 	bne	8978 <delay_cycles+0x4>
    898c:	e12fff1e 	bx	lr

00008990 <timer_get_usec_raw>:
    8990:	e92d4008 	push	{r3, lr}
    8994:	e59f0004 	ldr	r0, [pc, #4]	; 89a0 <timer_get_usec_raw+0x10>
    8998:	eb000382 	bl	97a8 <GET32>
    899c:	e8bd8008 	pop	{r3, pc}
    89a0:	20003004 	andcs	r3, r0, r4

000089a4 <timer_get_usec>:
    89a4:	e92d4008 	push	{r3, lr}
    89a8:	ebfffff8 	bl	8990 <timer_get_usec_raw>
    89ac:	e8bd8008 	pop	{r3, pc}

000089b0 <delay_us>:
    89b0:	e92d4038 	push	{r3, r4, r5, lr}
    89b4:	e1a05000 	mov	r5, r0
    89b8:	ebfffff9 	bl	89a4 <timer_get_usec>
    89bc:	e1a04000 	mov	r4, r0
    89c0:	ebfffff7 	bl	89a4 <timer_get_usec>
    89c4:	e0640000 	rsb	r0, r4, r0
    89c8:	e1500005 	cmp	r0, r5
    89cc:	3afffffb 	bcc	89c0 <delay_us+0x10>
    89d0:	e8bd8038 	pop	{r3, r4, r5, pc}

000089d4 <delay_ms>:
    89d4:	e92d4008 	push	{r3, lr}
    89d8:	e3a03ffa 	mov	r3, #1000	; 0x3e8
    89dc:	e0000093 	mul	r0, r3, r0
    89e0:	ebfffff2 	bl	89b0 <delay_us>
    89e4:	e8bd8008 	pop	{r3, pc}

000089e8 <delay_sec>:
    89e8:	e92d4008 	push	{r3, lr}
    89ec:	e3a03ffa 	mov	r3, #1000	; 0x3e8
    89f0:	e0000093 	mul	r0, r3, r0
    89f4:	ebfffff6 	bl	89d4 <delay_ms>
    89f8:	e8bd8008 	pop	{r3, pc}

000089fc <gpio_set_output>:
    89fc:	e92d4038 	push	{r3, r4, r5, lr}
    8a00:	e1a04000 	mov	r4, r0
    8a04:	e350001f 	cmp	r0, #31
    8a08:	88bd8038 	pophi	{r3, r4, r5, pc}
    8a0c:	e59f30b4 	ldr	r3, [pc, #180]	; 8ac8 <gpio_set_output+0xcc>
    8a10:	e0832093 	umull	r2, r3, r3, r0
    8a14:	e1a031a3 	lsr	r3, r3, #3
    8a18:	e3530005 	cmp	r3, #5
    8a1c:	979ff103 	ldrls	pc, [pc, r3, lsl #2]
    8a20:	ea000017 	b	8a84 <gpio_set_output+0x88>
    8a24:	00008a3c 	andeq	r8, r0, ip, lsr sl
    8a28:	00008a48 	andeq	r8, r0, r8, asr #20
    8a2c:	00008a54 	andeq	r8, r0, r4, asr sl
    8a30:	00008a60 	andeq	r8, r0, r0, ror #20
    8a34:	00008a6c 	andeq	r8, r0, ip, ror #20
    8a38:	00008a78 	andeq	r8, r0, r8, ror sl
    8a3c:	e59f3088 	ldr	r3, [pc, #136]	; 8acc <gpio_set_output+0xd0>
    8a40:	e5935000 	ldr	r5, [r3]
    8a44:	ea00000f 	b	8a88 <gpio_set_output+0x8c>
    8a48:	e59f307c 	ldr	r3, [pc, #124]	; 8acc <gpio_set_output+0xd0>
    8a4c:	e5935004 	ldr	r5, [r3, #4]
    8a50:	ea00000c 	b	8a88 <gpio_set_output+0x8c>
    8a54:	e59f3070 	ldr	r3, [pc, #112]	; 8acc <gpio_set_output+0xd0>
    8a58:	e5935008 	ldr	r5, [r3, #8]
    8a5c:	ea000009 	b	8a88 <gpio_set_output+0x8c>
    8a60:	e59f3064 	ldr	r3, [pc, #100]	; 8acc <gpio_set_output+0xd0>
    8a64:	e593500c 	ldr	r5, [r3, #12]
    8a68:	ea000006 	b	8a88 <gpio_set_output+0x8c>
    8a6c:	e59f3058 	ldr	r3, [pc, #88]	; 8acc <gpio_set_output+0xd0>
    8a70:	e5935010 	ldr	r5, [r3, #16]
    8a74:	ea000003 	b	8a88 <gpio_set_output+0x8c>
    8a78:	e59f304c 	ldr	r3, [pc, #76]	; 8acc <gpio_set_output+0xd0>
    8a7c:	e5935014 	ldr	r5, [r3, #20]
    8a80:	ea000000 	b	8a88 <gpio_set_output+0x8c>
    8a84:	e3a05000 	mov	r5, #0
    8a88:	e1a00005 	mov	r0, r5
    8a8c:	eb000343 	bl	97a0 <get32>
    8a90:	e59f1030 	ldr	r1, [pc, #48]	; 8ac8 <gpio_set_output+0xcc>
    8a94:	e0813491 	umull	r3, r1, r1, r4
    8a98:	e1a011a1 	lsr	r1, r1, #3
    8a9c:	e0811101 	add	r1, r1, r1, lsl #2
    8aa0:	e1a01081 	lsl	r1, r1, #1
    8aa4:	e0611004 	rsb	r1, r1, r4
    8aa8:	e0811081 	add	r1, r1, r1, lsl #1
    8aac:	e3a03007 	mov	r3, #7
    8ab0:	e1c03113 	bic	r3, r0, r3, lsl r1
    8ab4:	e1a00005 	mov	r0, r5
    8ab8:	e3a02001 	mov	r2, #1
    8abc:	e1831112 	orr	r1, r3, r2, lsl r1
    8ac0:	eb00032a 	bl	9770 <put32>
    8ac4:	e8bd8038 	pop	{r3, r4, r5, pc}
    8ac8:	cccccccd 	stclgt	12, cr12, [ip], {205}	; 0xcd
    8acc:	00009878 	andeq	r9, r0, r8, ror r8

00008ad0 <gpio_set_on>:
    8ad0:	e92d4008 	push	{r3, lr}
    8ad4:	e350001f 	cmp	r0, #31
    8ad8:	88bd8008 	pophi	{r3, pc}
    8adc:	959f3020 	ldrls	r3, [pc, #32]	; 8b04 <gpio_set_on+0x34>
    8ae0:	95932018 	ldrls	r2, [r3, #24]
    8ae4:	859f3018 	ldrhi	r3, [pc, #24]	; 8b04 <gpio_set_on+0x34>
    8ae8:	8593201c 	ldrhi	r2, [r3, #28]
    8aec:	e200301f 	and	r3, r0, #31
    8af0:	e1a00002 	mov	r0, r2
    8af4:	e3a01001 	mov	r1, #1
    8af8:	e1a01311 	lsl	r1, r1, r3
    8afc:	eb00031b 	bl	9770 <put32>
    8b00:	e8bd8008 	pop	{r3, pc}
    8b04:	00009878 	andeq	r9, r0, r8, ror r8

00008b08 <gpio_set_off>:
    8b08:	e92d4008 	push	{r3, lr}
    8b0c:	e350001f 	cmp	r0, #31
    8b10:	88bd8008 	pophi	{r3, pc}
    8b14:	959f3020 	ldrls	r3, [pc, #32]	; 8b3c <gpio_set_off+0x34>
    8b18:	95932020 	ldrls	r2, [r3, #32]
    8b1c:	859f3018 	ldrhi	r3, [pc, #24]	; 8b3c <gpio_set_off+0x34>
    8b20:	85932024 	ldrhi	r2, [r3, #36]	; 0x24
    8b24:	e200301f 	and	r3, r0, #31
    8b28:	e1a00002 	mov	r0, r2
    8b2c:	e3a01001 	mov	r1, #1
    8b30:	e1a01311 	lsl	r1, r1, r3
    8b34:	eb00030d 	bl	9770 <put32>
    8b38:	e8bd8008 	pop	{r3, pc}
    8b3c:	00009878 	andeq	r9, r0, r8, ror r8

00008b40 <gpio_set_input>:
    8b40:	e92d4038 	push	{r3, r4, r5, lr}
    8b44:	e1a04000 	mov	r4, r0
    8b48:	e350001f 	cmp	r0, #31
    8b4c:	88bd8038 	pophi	{r3, r4, r5, pc}
    8b50:	e59f30ac 	ldr	r3, [pc, #172]	; 8c04 <gpio_set_input+0xc4>
    8b54:	e0832093 	umull	r2, r3, r3, r0
    8b58:	e1a031a3 	lsr	r3, r3, #3
    8b5c:	e3530005 	cmp	r3, #5
    8b60:	979ff103 	ldrls	pc, [pc, r3, lsl #2]
    8b64:	ea000017 	b	8bc8 <gpio_set_input+0x88>
    8b68:	00008b80 	andeq	r8, r0, r0, lsl #23
    8b6c:	00008b8c 	andeq	r8, r0, ip, lsl #23
    8b70:	00008b98 	muleq	r0, r8, fp
    8b74:	00008ba4 	andeq	r8, r0, r4, lsr #23
    8b78:	00008bb0 			; <UNDEFINED> instruction: 0x00008bb0
    8b7c:	00008bbc 			; <UNDEFINED> instruction: 0x00008bbc
    8b80:	e59f3080 	ldr	r3, [pc, #128]	; 8c08 <gpio_set_input+0xc8>
    8b84:	e5935000 	ldr	r5, [r3]
    8b88:	ea00000f 	b	8bcc <gpio_set_input+0x8c>
    8b8c:	e59f3074 	ldr	r3, [pc, #116]	; 8c08 <gpio_set_input+0xc8>
    8b90:	e5935004 	ldr	r5, [r3, #4]
    8b94:	ea00000c 	b	8bcc <gpio_set_input+0x8c>
    8b98:	e59f3068 	ldr	r3, [pc, #104]	; 8c08 <gpio_set_input+0xc8>
    8b9c:	e5935008 	ldr	r5, [r3, #8]
    8ba0:	ea000009 	b	8bcc <gpio_set_input+0x8c>
    8ba4:	e59f305c 	ldr	r3, [pc, #92]	; 8c08 <gpio_set_input+0xc8>
    8ba8:	e593500c 	ldr	r5, [r3, #12]
    8bac:	ea000006 	b	8bcc <gpio_set_input+0x8c>
    8bb0:	e59f3050 	ldr	r3, [pc, #80]	; 8c08 <gpio_set_input+0xc8>
    8bb4:	e5935010 	ldr	r5, [r3, #16]
    8bb8:	ea000003 	b	8bcc <gpio_set_input+0x8c>
    8bbc:	e59f3044 	ldr	r3, [pc, #68]	; 8c08 <gpio_set_input+0xc8>
    8bc0:	e5935014 	ldr	r5, [r3, #20]
    8bc4:	ea000000 	b	8bcc <gpio_set_input+0x8c>
    8bc8:	e3a05000 	mov	r5, #0
    8bcc:	e1a00005 	mov	r0, r5
    8bd0:	eb0002f2 	bl	97a0 <get32>
    8bd4:	e59f1028 	ldr	r1, [pc, #40]	; 8c04 <gpio_set_input+0xc4>
    8bd8:	e0813491 	umull	r3, r1, r1, r4
    8bdc:	e1a011a1 	lsr	r1, r1, #3
    8be0:	e0811101 	add	r1, r1, r1, lsl #2
    8be4:	e1a01081 	lsl	r1, r1, #1
    8be8:	e0611004 	rsb	r1, r1, r4
    8bec:	e0811081 	add	r1, r1, r1, lsl #1
    8bf0:	e3a03007 	mov	r3, #7
    8bf4:	e1c01113 	bic	r1, r0, r3, lsl r1
    8bf8:	e1a00005 	mov	r0, r5
    8bfc:	eb0002db 	bl	9770 <put32>
    8c00:	e8bd8038 	pop	{r3, r4, r5, pc}
    8c04:	cccccccd 	stclgt	12, cr12, [ip], {205}	; 0xcd
    8c08:	00009878 	andeq	r9, r0, r8, ror r8

00008c0c <gpio_read>:
    8c0c:	e92d4010 	push	{r4, lr}
    8c10:	e1a04000 	mov	r4, r0
    8c14:	e350001f 	cmp	r0, #31
    8c18:	8a00000b 	bhi	8c4c <gpio_read+0x40>
    8c1c:	8a000003 	bhi	8c30 <gpio_read+0x24>
    8c20:	e59f302c 	ldr	r3, [pc, #44]	; 8c54 <gpio_read+0x48>
    8c24:	e5930028 	ldr	r0, [r3, #40]	; 0x28
    8c28:	eb0002dc 	bl	97a0 <get32>
    8c2c:	ea000002 	b	8c3c <gpio_read+0x30>
    8c30:	e59f301c 	ldr	r3, [pc, #28]	; 8c54 <gpio_read+0x48>
    8c34:	e593002c 	ldr	r0, [r3, #44]	; 0x2c
    8c38:	eb0002d8 	bl	97a0 <get32>
    8c3c:	e204401f 	and	r4, r4, #31
    8c40:	e3a03001 	mov	r3, #1
    8c44:	e0000413 	and	r0, r0, r3, lsl r4
    8c48:	e8bd8010 	pop	{r4, pc}
    8c4c:	e3e00000 	mvn	r0, #0
    8c50:	e8bd8010 	pop	{r4, pc}
    8c54:	00009878 	andeq	r9, r0, r8, ror r8

00008c58 <gpio_write>:
    8c58:	e92d4008 	push	{r3, lr}
    8c5c:	e350001f 	cmp	r0, #31
    8c60:	88bd8008 	pophi	{r3, pc}
    8c64:	e3510000 	cmp	r1, #0
    8c68:	0a000001 	beq	8c74 <gpio_write+0x1c>
    8c6c:	ebffff97 	bl	8ad0 <gpio_set_on>
    8c70:	e8bd8008 	pop	{r3, pc}
    8c74:	ebffffa3 	bl	8b08 <gpio_set_off>
    8c78:	e8bd8008 	pop	{r3, pc}

00008c7c <gpio_set_function>:
    8c7c:	e92d4070 	push	{r4, r5, r6, lr}
    8c80:	e1a04000 	mov	r4, r0
    8c84:	e1a05001 	mov	r5, r1
    8c88:	e3510007 	cmp	r1, #7
    8c8c:	9350001f 	cmpls	r0, #31
    8c90:	88bd8070 	pophi	{r4, r5, r6, pc}
    8c94:	e59f30b0 	ldr	r3, [pc, #176]	; 8d4c <gpio_set_function+0xd0>
    8c98:	e0832093 	umull	r2, r3, r3, r0
    8c9c:	e1a031a3 	lsr	r3, r3, #3
    8ca0:	e3530005 	cmp	r3, #5
    8ca4:	979ff103 	ldrls	pc, [pc, r3, lsl #2]
    8ca8:	ea000017 	b	8d0c <gpio_set_function+0x90>
    8cac:	00008cc4 	andeq	r8, r0, r4, asr #25
    8cb0:	00008cd0 	ldrdeq	r8, [r0], -r0
    8cb4:	00008cdc 	ldrdeq	r8, [r0], -ip
    8cb8:	00008ce8 	andeq	r8, r0, r8, ror #25
    8cbc:	00008cf4 	strdeq	r8, [r0], -r4
    8cc0:	00008d00 	andeq	r8, r0, r0, lsl #26
    8cc4:	e59f3084 	ldr	r3, [pc, #132]	; 8d50 <gpio_set_function+0xd4>
    8cc8:	e5936000 	ldr	r6, [r3]
    8ccc:	ea00000f 	b	8d10 <gpio_set_function+0x94>
    8cd0:	e59f3078 	ldr	r3, [pc, #120]	; 8d50 <gpio_set_function+0xd4>
    8cd4:	e5936004 	ldr	r6, [r3, #4]
    8cd8:	ea00000c 	b	8d10 <gpio_set_function+0x94>
    8cdc:	e59f306c 	ldr	r3, [pc, #108]	; 8d50 <gpio_set_function+0xd4>
    8ce0:	e5936008 	ldr	r6, [r3, #8]
    8ce4:	ea000009 	b	8d10 <gpio_set_function+0x94>
    8ce8:	e59f3060 	ldr	r3, [pc, #96]	; 8d50 <gpio_set_function+0xd4>
    8cec:	e593600c 	ldr	r6, [r3, #12]
    8cf0:	ea000006 	b	8d10 <gpio_set_function+0x94>
    8cf4:	e59f3054 	ldr	r3, [pc, #84]	; 8d50 <gpio_set_function+0xd4>
    8cf8:	e5936010 	ldr	r6, [r3, #16]
    8cfc:	ea000003 	b	8d10 <gpio_set_function+0x94>
    8d00:	e59f3048 	ldr	r3, [pc, #72]	; 8d50 <gpio_set_function+0xd4>
    8d04:	e5936014 	ldr	r6, [r3, #20]
    8d08:	ea000000 	b	8d10 <gpio_set_function+0x94>
    8d0c:	e3a06000 	mov	r6, #0
    8d10:	e1a00006 	mov	r0, r6
    8d14:	eb0002a1 	bl	97a0 <get32>
    8d18:	e59f302c 	ldr	r3, [pc, #44]	; 8d4c <gpio_set_function+0xd0>
    8d1c:	e0832493 	umull	r2, r3, r3, r4
    8d20:	e1a031a3 	lsr	r3, r3, #3
    8d24:	e0833103 	add	r3, r3, r3, lsl #2
    8d28:	e1a03083 	lsl	r3, r3, #1
    8d2c:	e0633004 	rsb	r3, r3, r4
    8d30:	e0833083 	add	r3, r3, r3, lsl #1
    8d34:	e3a01007 	mov	r1, #7
    8d38:	e1c01311 	bic	r1, r0, r1, lsl r3
    8d3c:	e1a00006 	mov	r0, r6
    8d40:	e1811315 	orr	r1, r1, r5, lsl r3
    8d44:	eb000289 	bl	9770 <put32>
    8d48:	e8bd8070 	pop	{r4, r5, r6, pc}
    8d4c:	cccccccd 	stclgt	12, cr12, [ip], {205}	; 0xcd
    8d50:	00009878 	andeq	r9, r0, r8, ror r8

00008d54 <gpio_toggle>:
    8d54:	e92d4008 	push	{r3, lr}
    8d58:	e350001f 	cmp	r0, #31
    8d5c:	88bd8008 	pophi	{r3, pc}
    8d60:	959f3020 	ldrls	r3, [pc, #32]	; 8d88 <gpio_toggle+0x34>
    8d64:	95932018 	ldrls	r2, [r3, #24]
    8d68:	859f3018 	ldrhi	r3, [pc, #24]	; 8d88 <gpio_toggle+0x34>
    8d6c:	8593201c 	ldrhi	r2, [r3, #28]
    8d70:	e200301f 	and	r3, r0, #31
    8d74:	e1a00002 	mov	r0, r2
    8d78:	e3a01001 	mov	r1, #1
    8d7c:	e1a01311 	lsl	r1, r1, r3
    8d80:	eb00027a 	bl	9770 <put32>
    8d84:	e8bd8008 	pop	{r3, pc}
    8d88:	00009878 	andeq	r9, r0, r8, ror r8

00008d8c <is_gpio_int>:
    8d8c:	e92d4008 	push	{r3, lr}
    8d90:	e59f301c 	ldr	r3, [pc, #28]	; 8db4 <is_gpio_int+0x28>
    8d94:	e5930030 	ldr	r0, [r3, #48]	; 0x30
    8d98:	eb000280 	bl	97a0 <get32>
    8d9c:	e3500000 	cmp	r0, #0
    8da0:	0a000001 	beq	8dac <is_gpio_int+0x20>
    8da4:	e3a00001 	mov	r0, #1
    8da8:	e8bd8008 	pop	{r3, pc}
    8dac:	e3a00000 	mov	r0, #0
    8db0:	e8bd8008 	pop	{r3, pc}
    8db4:	00009878 	andeq	r9, r0, r8, ror r8

00008db8 <gpio_int_rising_edge>:
    8db8:	e92d4038 	push	{r3, r4, r5, lr}
    8dbc:	e1a04000 	mov	r4, r0
    8dc0:	e350001f 	cmp	r0, #31
    8dc4:	88bd8038 	pophi	{r3, r4, r5, pc}
    8dc8:	eb000262 	bl	9758 <dev_barrier>
    8dcc:	e354001f 	cmp	r4, #31
    8dd0:	8a000007 	bhi	8df4 <gpio_int_rising_edge+0x3c>
    8dd4:	e59f505c 	ldr	r5, [pc, #92]	; 8e38 <gpio_int_rising_edge+0x80>
    8dd8:	e5950034 	ldr	r0, [r5, #52]	; 0x34
    8ddc:	eb00026f 	bl	97a0 <get32>
    8de0:	e3a01001 	mov	r1, #1
    8de4:	e1801411 	orr	r1, r0, r1, lsl r4
    8de8:	e5950034 	ldr	r0, [r5, #52]	; 0x34
    8dec:	eb00025f 	bl	9770 <put32>
    8df0:	ea000007 	b	8e14 <gpio_int_rising_edge+0x5c>
    8df4:	e59f503c 	ldr	r5, [pc, #60]	; 8e38 <gpio_int_rising_edge+0x80>
    8df8:	e5950038 	ldr	r0, [r5, #56]	; 0x38
    8dfc:	eb000267 	bl	97a0 <get32>
    8e00:	e204401f 	and	r4, r4, #31
    8e04:	e3a01001 	mov	r1, #1
    8e08:	e1801411 	orr	r1, r0, r1, lsl r4
    8e0c:	e5950038 	ldr	r0, [r5, #56]	; 0x38
    8e10:	eb000256 	bl	9770 <put32>
    8e14:	eb00024f 	bl	9758 <dev_barrier>
    8e18:	e59f4018 	ldr	r4, [pc, #24]	; 8e38 <gpio_int_rising_edge+0x80>
    8e1c:	e594003c 	ldr	r0, [r4, #60]	; 0x3c
    8e20:	eb00025e 	bl	97a0 <get32>
    8e24:	e3801802 	orr	r1, r0, #131072	; 0x20000
    8e28:	e594003c 	ldr	r0, [r4, #60]	; 0x3c
    8e2c:	eb00024f 	bl	9770 <put32>
    8e30:	eb000248 	bl	9758 <dev_barrier>
    8e34:	e8bd8038 	pop	{r3, r4, r5, pc}
    8e38:	00009878 	andeq	r9, r0, r8, ror r8

00008e3c <gpio_int_falling_edge>:
    8e3c:	e92d4038 	push	{r3, r4, r5, lr}
    8e40:	e1a04000 	mov	r4, r0
    8e44:	e350001f 	cmp	r0, #31
    8e48:	88bd8038 	pophi	{r3, r4, r5, pc}
    8e4c:	eb000241 	bl	9758 <dev_barrier>
    8e50:	e354001f 	cmp	r4, #31
    8e54:	8a000007 	bhi	8e78 <gpio_int_falling_edge+0x3c>
    8e58:	e59f505c 	ldr	r5, [pc, #92]	; 8ebc <gpio_int_falling_edge+0x80>
    8e5c:	e5950040 	ldr	r0, [r5, #64]	; 0x40
    8e60:	eb00024e 	bl	97a0 <get32>
    8e64:	e3a01001 	mov	r1, #1
    8e68:	e1801411 	orr	r1, r0, r1, lsl r4
    8e6c:	e5950040 	ldr	r0, [r5, #64]	; 0x40
    8e70:	eb00023e 	bl	9770 <put32>
    8e74:	ea000007 	b	8e98 <gpio_int_falling_edge+0x5c>
    8e78:	e59f503c 	ldr	r5, [pc, #60]	; 8ebc <gpio_int_falling_edge+0x80>
    8e7c:	e5950044 	ldr	r0, [r5, #68]	; 0x44
    8e80:	eb000246 	bl	97a0 <get32>
    8e84:	e204401f 	and	r4, r4, #31
    8e88:	e3a01001 	mov	r1, #1
    8e8c:	e1801411 	orr	r1, r0, r1, lsl r4
    8e90:	e5950044 	ldr	r0, [r5, #68]	; 0x44
    8e94:	eb000235 	bl	9770 <put32>
    8e98:	eb00022e 	bl	9758 <dev_barrier>
    8e9c:	e59f4018 	ldr	r4, [pc, #24]	; 8ebc <gpio_int_falling_edge+0x80>
    8ea0:	e594003c 	ldr	r0, [r4, #60]	; 0x3c
    8ea4:	eb00023d 	bl	97a0 <get32>
    8ea8:	e3801601 	orr	r1, r0, #1048576	; 0x100000
    8eac:	e594003c 	ldr	r0, [r4, #60]	; 0x3c
    8eb0:	eb00022e 	bl	9770 <put32>
    8eb4:	eb000227 	bl	9758 <dev_barrier>
    8eb8:	e8bd8038 	pop	{r3, r4, r5, pc}
    8ebc:	00009878 	andeq	r9, r0, r8, ror r8

00008ec0 <gpio_event_detected>:
    8ec0:	e92d4010 	push	{r4, lr}
    8ec4:	e1a04000 	mov	r4, r0
    8ec8:	e350001f 	cmp	r0, #31
    8ecc:	8a000019 	bhi	8f38 <gpio_event_detected+0x78>
    8ed0:	eb000220 	bl	9758 <dev_barrier>
    8ed4:	e354001f 	cmp	r4, #31
    8ed8:	8a000008 	bhi	8f00 <gpio_event_detected+0x40>
    8edc:	e59f305c 	ldr	r3, [pc, #92]	; 8f40 <gpio_event_detected+0x80>
    8ee0:	e5930048 	ldr	r0, [r3, #72]	; 0x48
    8ee4:	eb00022d 	bl	97a0 <get32>
    8ee8:	e3a03001 	mov	r3, #1
    8eec:	e0103413 	ands	r3, r0, r3, lsl r4
    8ef0:	0a00000d 	beq	8f2c <gpio_event_detected+0x6c>
    8ef4:	eb000217 	bl	9758 <dev_barrier>
    8ef8:	e3a00001 	mov	r0, #1
    8efc:	e8bd8010 	pop	{r4, pc}
    8f00:	e59f3038 	ldr	r3, [pc, #56]	; 8f40 <gpio_event_detected+0x80>
    8f04:	e593004c 	ldr	r0, [r3, #76]	; 0x4c
    8f08:	eb000224 	bl	97a0 <get32>
    8f0c:	e3a03001 	mov	r3, #1
    8f10:	e0004413 	and	r4, r0, r3, lsl r4
    8f14:	eb00020f 	bl	9758 <dev_barrier>
    8f18:	e3540000 	cmp	r4, #0
    8f1c:	0a000002 	beq	8f2c <gpio_event_detected+0x6c>
    8f20:	eb00020c 	bl	9758 <dev_barrier>
    8f24:	e3a00001 	mov	r0, #1
    8f28:	e8bd8010 	pop	{r4, pc}
    8f2c:	eb000209 	bl	9758 <dev_barrier>
    8f30:	e3a00000 	mov	r0, #0
    8f34:	e8bd8010 	pop	{r4, pc}
    8f38:	e3e00000 	mvn	r0, #0
    8f3c:	e8bd8010 	pop	{r4, pc}
    8f40:	00009878 	andeq	r9, r0, r8, ror r8

00008f44 <gpio_event_clear>:
    8f44:	e92d4010 	push	{r4, lr}
    8f48:	e1a04000 	mov	r4, r0
    8f4c:	e350001f 	cmp	r0, #31
    8f50:	88bd8010 	pophi	{r4, pc}
    8f54:	eb0001ff 	bl	9758 <dev_barrier>
    8f58:	e354001f 	cmp	r4, #31
    8f5c:	8a000005 	bhi	8f78 <gpio_event_clear+0x34>
    8f60:	e59f3030 	ldr	r3, [pc, #48]	; 8f98 <gpio_event_clear+0x54>
    8f64:	e5930048 	ldr	r0, [r3, #72]	; 0x48
    8f68:	e3a01001 	mov	r1, #1
    8f6c:	e1a01411 	lsl	r1, r1, r4
    8f70:	eb0001fe 	bl	9770 <put32>
    8f74:	ea000005 	b	8f90 <gpio_event_clear+0x4c>
    8f78:	e204401f 	and	r4, r4, #31
    8f7c:	e59f3014 	ldr	r3, [pc, #20]	; 8f98 <gpio_event_clear+0x54>
    8f80:	e593004c 	ldr	r0, [r3, #76]	; 0x4c
    8f84:	e3a01001 	mov	r1, #1
    8f88:	e1a01411 	lsl	r1, r1, r4
    8f8c:	eb0001f7 	bl	9770 <put32>
    8f90:	eb0001f0 	bl	9758 <dev_barrier>
    8f94:	e8bd8010 	pop	{r4, pc}
    8f98:	00009878 	andeq	r9, r0, r8, ror r8

00008f9c <sw_uart_putc>:
    8f9c:	e92d41f0 	push	{r4, r5, r6, r7, r8, lr}
    8fa0:	e1a07001 	mov	r7, r1
    8fa4:	e5d06000 	ldrb	r6, [r0]
    8fa8:	e5905008 	ldr	r5, [r0, #8]
    8fac:	ee1f4f3c 	mrc	15, 0, r4, cr15, cr12, {1}
    8fb0:	e1a00006 	mov	r0, r6
    8fb4:	e3a01000 	mov	r1, #0
    8fb8:	ebffff26 	bl	8c58 <gpio_write>
    8fbc:	ee1f3f3c 	mrc	15, 0, r3, cr15, cr12, {1}
    8fc0:	e0643003 	rsb	r3, r4, r3
    8fc4:	e1550003 	cmp	r5, r3
    8fc8:	8afffffb 	bhi	8fbc <sw_uart_putc+0x20>
    8fcc:	e1a08085 	lsl	r8, r5, #1
    8fd0:	e1a00006 	mov	r0, r6
    8fd4:	e2071001 	and	r1, r7, #1
    8fd8:	ebffff1e 	bl	8c58 <gpio_write>
    8fdc:	ee1f3f3c 	mrc	15, 0, r3, cr15, cr12, {1}
    8fe0:	e0643003 	rsb	r3, r4, r3
    8fe4:	e1580003 	cmp	r8, r3
    8fe8:	8afffffb 	bhi	8fdc <sw_uart_putc+0x40>
    8fec:	e0888005 	add	r8, r8, r5
    8ff0:	e1a00006 	mov	r0, r6
    8ff4:	e2071002 	and	r1, r7, #2
    8ff8:	ebffff16 	bl	8c58 <gpio_write>
    8ffc:	ee1f3f3c 	mrc	15, 0, r3, cr15, cr12, {1}
    9000:	e0643003 	rsb	r3, r4, r3
    9004:	e1580003 	cmp	r8, r3
    9008:	8afffffb 	bhi	8ffc <sw_uart_putc+0x60>
    900c:	e0888005 	add	r8, r8, r5
    9010:	e1a00006 	mov	r0, r6
    9014:	e2071004 	and	r1, r7, #4
    9018:	ebffff0e 	bl	8c58 <gpio_write>
    901c:	ee1f3f3c 	mrc	15, 0, r3, cr15, cr12, {1}
    9020:	e0643003 	rsb	r3, r4, r3
    9024:	e1580003 	cmp	r8, r3
    9028:	8afffffb 	bhi	901c <sw_uart_putc+0x80>
    902c:	e0888005 	add	r8, r8, r5
    9030:	e1a00006 	mov	r0, r6
    9034:	e2071008 	and	r1, r7, #8
    9038:	ebffff06 	bl	8c58 <gpio_write>
    903c:	ee1f3f3c 	mrc	15, 0, r3, cr15, cr12, {1}
    9040:	e0643003 	rsb	r3, r4, r3
    9044:	e1580003 	cmp	r8, r3
    9048:	8afffffb 	bhi	903c <sw_uart_putc+0xa0>
    904c:	e0888005 	add	r8, r8, r5
    9050:	e1a00006 	mov	r0, r6
    9054:	e2071010 	and	r1, r7, #16
    9058:	ebfffefe 	bl	8c58 <gpio_write>
    905c:	ee1f3f3c 	mrc	15, 0, r3, cr15, cr12, {1}
    9060:	e0643003 	rsb	r3, r4, r3
    9064:	e1580003 	cmp	r8, r3
    9068:	8afffffb 	bhi	905c <sw_uart_putc+0xc0>
    906c:	e0888005 	add	r8, r8, r5
    9070:	e1a00006 	mov	r0, r6
    9074:	e2071020 	and	r1, r7, #32
    9078:	ebfffef6 	bl	8c58 <gpio_write>
    907c:	ee1f3f3c 	mrc	15, 0, r3, cr15, cr12, {1}
    9080:	e0643003 	rsb	r3, r4, r3
    9084:	e1580003 	cmp	r8, r3
    9088:	8afffffb 	bhi	907c <sw_uart_putc+0xe0>
    908c:	e0888005 	add	r8, r8, r5
    9090:	e1a00006 	mov	r0, r6
    9094:	e2071040 	and	r1, r7, #64	; 0x40
    9098:	ebfffeee 	bl	8c58 <gpio_write>
    909c:	ee1f3f3c 	mrc	15, 0, r3, cr15, cr12, {1}
    90a0:	e0643003 	rsb	r3, r4, r3
    90a4:	e1580003 	cmp	r8, r3
    90a8:	8afffffb 	bhi	909c <sw_uart_putc+0x100>
    90ac:	e0888005 	add	r8, r8, r5
    90b0:	e1a00006 	mov	r0, r6
    90b4:	e2071080 	and	r1, r7, #128	; 0x80
    90b8:	ebfffee6 	bl	8c58 <gpio_write>
    90bc:	ee1f3f3c 	mrc	15, 0, r3, cr15, cr12, {1}
    90c0:	e0643003 	rsb	r3, r4, r3
    90c4:	e1580003 	cmp	r8, r3
    90c8:	8afffffb 	bhi	90bc <sw_uart_putc+0x120>
    90cc:	e0885005 	add	r5, r8, r5
    90d0:	e1a00006 	mov	r0, r6
    90d4:	e3a01001 	mov	r1, #1
    90d8:	ebfffede 	bl	8c58 <gpio_write>
    90dc:	ee1f3f3c 	mrc	15, 0, r3, cr15, cr12, {1}
    90e0:	e0643003 	rsb	r3, r4, r3
    90e4:	e1550003 	cmp	r5, r3
    90e8:	8afffffb 	bhi	90dc <sw_uart_putc+0x140>
    90ec:	e8bd81f0 	pop	{r4, r5, r6, r7, r8, pc}

000090f0 <sw_uart_getc_timeout>:
    90f0:	e92d43f8 	push	{r3, r4, r5, r6, r7, r8, r9, lr}
    90f4:	e1a09000 	mov	r9, r0
    90f8:	e5d07001 	ldrb	r7, [r0, #1]
    90fc:	e1a05007 	mov	r5, r7
    9100:	e1a06001 	mov	r6, r1
    9104:	ebfffe21 	bl	8990 <timer_get_usec_raw>
    9108:	e1a04000 	mov	r4, r0
    910c:	e1a00005 	mov	r0, r5
    9110:	ebfffebd 	bl	8c0c <gpio_read>
    9114:	e3500000 	cmp	r0, #0
    9118:	0a000005 	beq	9134 <sw_uart_getc_timeout+0x44>
    911c:	ebfffe1b 	bl	8990 <timer_get_usec_raw>
    9120:	e0640000 	rsb	r0, r4, r0
    9124:	e1560000 	cmp	r6, r0
    9128:	2afffff7 	bcs	910c <sw_uart_getc_timeout+0x1c>
    912c:	e3a03000 	mov	r3, #0
    9130:	ea000000 	b	9138 <sw_uart_getc_timeout+0x48>
    9134:	e3a03001 	mov	r3, #1
    9138:	e3530000 	cmp	r3, #0
    913c:	0a000059 	beq	92a8 <sw_uart_getc_timeout+0x1b8>
    9140:	ee1f8f3c 	mrc	15, 0, r8, cr15, cr12, {1}
    9144:	e5994008 	ldr	r4, [r9, #8]
    9148:	e08420a4 	add	r2, r4, r4, lsr #1
    914c:	ee1f3f3c 	mrc	15, 0, r3, cr15, cr12, {1}
    9150:	e0683003 	rsb	r3, r8, r3
    9154:	e1520003 	cmp	r2, r3
    9158:	8afffffb 	bhi	914c <sw_uart_getc_timeout+0x5c>
    915c:	e0888004 	add	r8, r8, r4
    9160:	e1a00007 	mov	r0, r7
    9164:	ebfffea8 	bl	8c0c <gpio_read>
    9168:	e1a09750 	asr	r9, r0, r7
    916c:	ee1f3f3c 	mrc	15, 0, r3, cr15, cr12, {1}
    9170:	e0683003 	rsb	r3, r8, r3
    9174:	e1540003 	cmp	r4, r3
    9178:	8afffffb 	bhi	916c <sw_uart_getc_timeout+0x7c>
    917c:	e0888004 	add	r8, r8, r4
    9180:	e1a00007 	mov	r0, r7
    9184:	ebfffea0 	bl	8c0c <gpio_read>
    9188:	e1a00750 	asr	r0, r0, r7
    918c:	e1899080 	orr	r9, r9, r0, lsl #1
    9190:	ee1f3f3c 	mrc	15, 0, r3, cr15, cr12, {1}
    9194:	e0683003 	rsb	r3, r8, r3
    9198:	e1540003 	cmp	r4, r3
    919c:	8afffffb 	bhi	9190 <sw_uart_getc_timeout+0xa0>
    91a0:	e0888004 	add	r8, r8, r4
    91a4:	e1a00007 	mov	r0, r7
    91a8:	ebfffe97 	bl	8c0c <gpio_read>
    91ac:	e1a00750 	asr	r0, r0, r7
    91b0:	e1899100 	orr	r9, r9, r0, lsl #2
    91b4:	ee1f3f3c 	mrc	15, 0, r3, cr15, cr12, {1}
    91b8:	e0683003 	rsb	r3, r8, r3
    91bc:	e1540003 	cmp	r4, r3
    91c0:	8afffffb 	bhi	91b4 <sw_uart_getc_timeout+0xc4>
    91c4:	e0888004 	add	r8, r8, r4
    91c8:	e1a00007 	mov	r0, r7
    91cc:	ebfffe8e 	bl	8c0c <gpio_read>
    91d0:	e1a00750 	asr	r0, r0, r7
    91d4:	e1899180 	orr	r9, r9, r0, lsl #3
    91d8:	ee1f3f3c 	mrc	15, 0, r3, cr15, cr12, {1}
    91dc:	e0683003 	rsb	r3, r8, r3
    91e0:	e1540003 	cmp	r4, r3
    91e4:	8afffffb 	bhi	91d8 <sw_uart_getc_timeout+0xe8>
    91e8:	e0888004 	add	r8, r8, r4
    91ec:	e1a00007 	mov	r0, r7
    91f0:	ebfffe85 	bl	8c0c <gpio_read>
    91f4:	e1a00750 	asr	r0, r0, r7
    91f8:	e1899200 	orr	r9, r9, r0, lsl #4
    91fc:	ee1f3f3c 	mrc	15, 0, r3, cr15, cr12, {1}
    9200:	e0683003 	rsb	r3, r8, r3
    9204:	e1540003 	cmp	r4, r3
    9208:	8afffffb 	bhi	91fc <sw_uart_getc_timeout+0x10c>
    920c:	e0888004 	add	r8, r8, r4
    9210:	e1a00007 	mov	r0, r7
    9214:	ebfffe7c 	bl	8c0c <gpio_read>
    9218:	e1a00750 	asr	r0, r0, r7
    921c:	e1899280 	orr	r9, r9, r0, lsl #5
    9220:	ee1f3f3c 	mrc	15, 0, r3, cr15, cr12, {1}
    9224:	e0683003 	rsb	r3, r8, r3
    9228:	e1540003 	cmp	r4, r3
    922c:	8afffffb 	bhi	9220 <sw_uart_getc_timeout+0x130>
    9230:	e0888004 	add	r8, r8, r4
    9234:	e1a00007 	mov	r0, r7
    9238:	ebfffe73 	bl	8c0c <gpio_read>
    923c:	e1a00750 	asr	r0, r0, r7
    9240:	e1899300 	orr	r9, r9, r0, lsl #6
    9244:	ee1f3f3c 	mrc	15, 0, r3, cr15, cr12, {1}
    9248:	e0683003 	rsb	r3, r8, r3
    924c:	e1540003 	cmp	r4, r3
    9250:	8afffffb 	bhi	9244 <sw_uart_getc_timeout+0x154>
    9254:	e1a00007 	mov	r0, r7
    9258:	ebfffe6b 	bl	8c0c <gpio_read>
    925c:	e1a00750 	asr	r0, r0, r7
    9260:	e1899380 	orr	r9, r9, r0, lsl #7
    9264:	ebfffdc9 	bl	8990 <timer_get_usec_raw>
    9268:	e1a04000 	mov	r4, r0
    926c:	e1a00005 	mov	r0, r5
    9270:	ebfffe65 	bl	8c0c <gpio_read>
    9274:	e3500000 	cmp	r0, #0
    9278:	0a000005 	beq	9294 <sw_uart_getc_timeout+0x1a4>
    927c:	ebfffdc3 	bl	8990 <timer_get_usec_raw>
    9280:	e0640000 	rsb	r0, r4, r0
    9284:	e1560000 	cmp	r6, r0
    9288:	2afffff7 	bcs	926c <sw_uart_getc_timeout+0x17c>
    928c:	e3a03000 	mov	r3, #0
    9290:	ea000000 	b	9298 <sw_uart_getc_timeout+0x1a8>
    9294:	e3a03001 	mov	r3, #1
    9298:	e3530000 	cmp	r3, #0
    929c:	0a000003 	beq	92b0 <sw_uart_getc_timeout+0x1c0>
    92a0:	e1a00009 	mov	r0, r9
    92a4:	e8bd83f8 	pop	{r3, r4, r5, r6, r7, r8, r9, pc}
    92a8:	e3e00000 	mvn	r0, #0
    92ac:	e8bd83f8 	pop	{r3, r4, r5, r6, r7, r8, r9, pc}
    92b0:	e3e00000 	mvn	r0, #0
    92b4:	e8bd83f8 	pop	{r3, r4, r5, r6, r7, r8, r9, pc}

000092b8 <sw_uart_gets_until>:
    92b8:	e92d47f0 	push	{r4, r5, r6, r7, r8, r9, sl, lr}
    92bc:	e24dd008 	sub	sp, sp, #8
    92c0:	e1a08000 	mov	r8, r0
    92c4:	e1a06001 	mov	r6, r1
    92c8:	e1a09003 	mov	r9, r3
    92cc:	e59da028 	ldr	sl, [sp, #40]	; 0x28
    92d0:	e3520000 	cmp	r2, #0
    92d4:	1a000008 	bne	92fc <sw_uart_gets_until+0x44>
    92d8:	eb00013c 	bl	97d0 <rpi_reset_putc>
    92dc:	e59f3068 	ldr	r3, [pc, #104]	; 934c <sw_uart_gets_until+0x94>
    92e0:	e58d3000 	str	r3, [sp]
    92e4:	e59f0064 	ldr	r0, [pc, #100]	; 9350 <sw_uart_gets_until+0x98>
    92e8:	e59f1064 	ldr	r1, [pc, #100]	; 9354 <sw_uart_gets_until+0x9c>
    92ec:	e59f2064 	ldr	r2, [pc, #100]	; 9358 <sw_uart_gets_until+0xa0>
    92f0:	e3a0306d 	mov	r3, #109	; 0x6d
    92f4:	ebfffbdf 	bl	8278 <printk>
    92f8:	ebfffd4a 	bl	8828 <clean_reboot>
    92fc:	e3a04000 	mov	r4, #0
    9300:	e5c14000 	strb	r4, [r1]
    9304:	e2427001 	sub	r7, r2, #1
    9308:	ea000007 	b	932c <sw_uart_gets_until+0x74>
    930c:	e1a00008 	mov	r0, r8
    9310:	e1a0100a 	mov	r1, sl
    9314:	ebffff75 	bl	90f0 <sw_uart_getc_timeout>
    9318:	e6ef0070 	uxtb	r0, r0
    931c:	e1500009 	cmp	r0, r9
    9320:	0a000004 	beq	9338 <sw_uart_gets_until+0x80>
    9324:	e7c60005 	strb	r0, [r6, r5]
    9328:	e2844001 	add	r4, r4, #1
    932c:	e1a05004 	mov	r5, r4
    9330:	e1540007 	cmp	r4, r7
    9334:	3afffff4 	bcc	930c <sw_uart_gets_until+0x54>
    9338:	e3a03000 	mov	r3, #0
    933c:	e7c63005 	strb	r3, [r6, r5]
    9340:	e1a00004 	mov	r0, r4
    9344:	e28dd008 	add	sp, sp, #8
    9348:	e8bd87f0 	pop	{r4, r5, r6, r7, r8, r9, sl, pc}
    934c:	00009ba8 	andeq	r9, r0, r8, lsr #23
    9350:	00009a1c 	andeq	r9, r0, ip, lsl sl
    9354:	00009b94 	muleq	r0, r4, fp
    9358:	00009b1c 	andeq	r9, r0, ip, lsl fp

0000935c <sw_uart_gets_timeout>:
    935c:	e92d41f0 	push	{r4, r5, r6, r7, r8, lr}
    9360:	e24dd008 	sub	sp, sp, #8
    9364:	e1a07000 	mov	r7, r0
    9368:	e1a05001 	mov	r5, r1
    936c:	e1a08003 	mov	r8, r3
    9370:	e3520000 	cmp	r2, #0
    9374:	1a000008 	bne	939c <sw_uart_gets_timeout+0x40>
    9378:	eb000114 	bl	97d0 <rpi_reset_putc>
    937c:	e59f3058 	ldr	r3, [pc, #88]	; 93dc <sw_uart_gets_timeout+0x80>
    9380:	e58d3000 	str	r3, [sp]
    9384:	e59f0054 	ldr	r0, [pc, #84]	; 93e0 <sw_uart_gets_timeout+0x84>
    9388:	e59f1054 	ldr	r1, [pc, #84]	; 93e4 <sw_uart_gets_timeout+0x88>
    938c:	e59f2054 	ldr	r2, [pc, #84]	; 93e8 <sw_uart_gets_timeout+0x8c>
    9390:	e3a03083 	mov	r3, #131	; 0x83
    9394:	ebfffbb7 	bl	8278 <printk>
    9398:	ebfffd22 	bl	8828 <clean_reboot>
    939c:	e3a04000 	mov	r4, #0
    93a0:	e5c14000 	strb	r4, [r1]
    93a4:	e2426001 	sub	r6, r2, #1
    93a8:	ea000004 	b	93c0 <sw_uart_gets_timeout+0x64>
    93ac:	e1a00007 	mov	r0, r7
    93b0:	e1a01008 	mov	r1, r8
    93b4:	ebffff4d 	bl	90f0 <sw_uart_getc_timeout>
    93b8:	e7c50004 	strb	r0, [r5, r4]
    93bc:	e2844001 	add	r4, r4, #1
    93c0:	e1540006 	cmp	r4, r6
    93c4:	3afffff8 	bcc	93ac <sw_uart_gets_timeout+0x50>
    93c8:	e3a03000 	mov	r3, #0
    93cc:	e7c53004 	strb	r3, [r5, r4]
    93d0:	e1a00004 	mov	r0, r4
    93d4:	e28dd008 	add	sp, sp, #8
    93d8:	e8bd81f0 	pop	{r4, r5, r6, r7, r8, pc}
    93dc:	00009ba8 	andeq	r9, r0, r8, lsr #23
    93e0:	00009a1c 	andeq	r9, r0, ip, lsl sl
    93e4:	00009b94 	muleq	r0, r4, fp
    93e8:	00009b30 	andeq	r9, r0, r0, lsr fp

000093ec <sw_uart_init_helper>:
    93ec:	e92d41f0 	push	{r4, r5, r6, r7, r8, lr}
    93f0:	e24dd008 	sub	sp, sp, #8
    93f4:	e1a04000 	mov	r4, r0
    93f8:	e1a06001 	mov	r6, r1
    93fc:	e1a08002 	mov	r8, r2
    9400:	e1a05003 	mov	r5, r3
    9404:	e59d7020 	ldr	r7, [sp, #32]
    9408:	e1a00001 	mov	r0, r1
    940c:	ebfffd7a 	bl	89fc <gpio_set_output>
    9410:	e1a00008 	mov	r0, r8
    9414:	ebfffdc9 	bl	8b40 <gpio_set_input>
    9418:	e3a03001 	mov	r3, #1
    941c:	ee0f3f1c 	mcr	15, 0, r3, cr15, cr12, {0}
    9420:	e1a00006 	mov	r0, r6
    9424:	e3a01001 	mov	r1, #1
    9428:	ebfffe0a 	bl	8c58 <gpio_write>
    942c:	e0020795 	mul	r2, r5, r7
    9430:	e59f3074 	ldr	r3, [pc, #116]	; 94ac <sw_uart_init_helper+0xc0>
    9434:	e0653003 	rsb	r3, r5, r3
    9438:	e1530002 	cmp	r3, r2
    943c:	8a000005 	bhi	9458 <sw_uart_init_helper+0x6c>
    9440:	e59f3064 	ldr	r3, [pc, #100]	; 94ac <sw_uart_init_helper+0xc0>
    9444:	e0853003 	add	r3, r5, r3
    9448:	e1530002 	cmp	r3, r2
    944c:	2a000003 	bcs	9460 <sw_uart_init_helper+0x74>
    9450:	e3a03000 	mov	r3, #0
    9454:	ea000002 	b	9464 <sw_uart_init_helper+0x78>
    9458:	e3a03000 	mov	r3, #0
    945c:	ea000000 	b	9464 <sw_uart_init_helper+0x78>
    9460:	e3a03001 	mov	r3, #1
    9464:	e3530000 	cmp	r3, #0
    9468:	1a000008 	bne	9490 <sw_uart_init_helper+0xa4>
    946c:	eb0000d7 	bl	97d0 <rpi_reset_putc>
    9470:	e59f3038 	ldr	r3, [pc, #56]	; 94b0 <sw_uart_init_helper+0xc4>
    9474:	e58d3000 	str	r3, [sp]
    9478:	e59f0034 	ldr	r0, [pc, #52]	; 94b4 <sw_uart_init_helper+0xc8>
    947c:	e59f1034 	ldr	r1, [pc, #52]	; 94b8 <sw_uart_init_helper+0xcc>
    9480:	e59f2034 	ldr	r2, [pc, #52]	; 94bc <sw_uart_init_helper+0xd0>
    9484:	e3a0309d 	mov	r3, #157	; 0x9d
    9488:	ebfffb7a 	bl	8278 <printk>
    948c:	ebfffce5 	bl	8828 <clean_reboot>
    9490:	e5c46000 	strb	r6, [r4]
    9494:	e5c48001 	strb	r8, [r4, #1]
    9498:	e5845004 	str	r5, [r4, #4]
    949c:	e5847008 	str	r7, [r4, #8]
    94a0:	e1a00004 	mov	r0, r4
    94a4:	e28dd008 	add	sp, sp, #8
    94a8:	e8bd81f0 	pop	{r4, r5, r6, r7, r8, pc}
    94ac:	29b92700 	ldmibcs	r9!, {r8, r9, sl, sp}
    94b0:	00009bb4 			; <UNDEFINED> instruction: 0x00009bb4
    94b4:	00009a1c 	andeq	r9, r0, ip, lsl sl
    94b8:	00009b94 	muleq	r0, r4, fp
    94bc:	00009b48 	andeq	r9, r0, r8, asr #22

000094c0 <sw_uart_getc>:
    94c0:	e92d4008 	push	{r3, lr}
    94c4:	e3e01000 	mvn	r1, #0
    94c8:	ebffff08 	bl	90f0 <sw_uart_getc_timeout>
    94cc:	e3500000 	cmp	r0, #0
    94d0:	a8bd8008 	popge	{r3, pc}
    94d4:	eb0000bd 	bl	97d0 <rpi_reset_putc>
    94d8:	e59f0010 	ldr	r0, [pc, #16]	; 94f0 <sw_uart_getc+0x30>
    94dc:	e59f1010 	ldr	r1, [pc, #16]	; 94f4 <sw_uart_getc+0x34>
    94e0:	e59f2010 	ldr	r2, [pc, #16]	; 94f8 <sw_uart_getc+0x38>
    94e4:	e3a030ac 	mov	r3, #172	; 0xac
    94e8:	ebfffb62 	bl	8278 <printk>
    94ec:	ebfffccd 	bl	8828 <clean_reboot>
    94f0:	00009be8 	andeq	r9, r0, r8, ror #23
    94f4:	00009b94 	muleq	r0, r4, fp
    94f8:	00009b5c 	andeq	r9, r0, ip, asr fp

000094fc <sw_uart_putk>:
    94fc:	e92d4038 	push	{r3, r4, r5, lr}
    9500:	e1a05000 	mov	r5, r0
    9504:	e1a04001 	mov	r4, r1
    9508:	ea000002 	b	9518 <sw_uart_putk+0x1c>
    950c:	e1a00005 	mov	r0, r5
    9510:	ebfffea1 	bl	8f9c <sw_uart_putc>
    9514:	e2844001 	add	r4, r4, #1
    9518:	e5d41000 	ldrb	r1, [r4]
    951c:	e3510000 	cmp	r1, #0
    9520:	1afffff9 	bne	950c <sw_uart_putk+0x10>
    9524:	e8bd8038 	pop	{r3, r4, r5, pc}

00009528 <sw_uart_printk>:
    9528:	e92d000e 	push	{r1, r2, r3}
    952c:	e92d4030 	push	{r4, r5, lr}
    9530:	e24ddf76 	sub	sp, sp, #472	; 0x1d8
    9534:	e1a05000 	mov	r5, r0
    9538:	e28d3f7a 	add	r3, sp, #488	; 0x1e8
    953c:	e58d3008 	str	r3, [sp, #8]
    9540:	e28d000c 	add	r0, sp, #12
    9544:	e3a01f73 	mov	r1, #460	; 0x1cc
    9548:	e59d21e4 	ldr	r2, [sp, #484]	; 0x1e4
    954c:	ebfffc10 	bl	8594 <va_printk>
    9550:	e1a04000 	mov	r4, r0
    9554:	e59f3048 	ldr	r3, [pc, #72]	; 95a4 <sw_uart_printk+0x7c>
    9558:	e1500003 	cmp	r0, r3
    955c:	9a000008 	bls	9584 <sw_uart_printk+0x5c>
    9560:	eb00009a 	bl	97d0 <rpi_reset_putc>
    9564:	e59f303c 	ldr	r3, [pc, #60]	; 95a8 <sw_uart_printk+0x80>
    9568:	e58d3000 	str	r3, [sp]
    956c:	e59f0038 	ldr	r0, [pc, #56]	; 95ac <sw_uart_printk+0x84>
    9570:	e59f1038 	ldr	r1, [pc, #56]	; 95b0 <sw_uart_printk+0x88>
    9574:	e59f2038 	ldr	r2, [pc, #56]	; 95b4 <sw_uart_printk+0x8c>
    9578:	e3a030c0 	mov	r3, #192	; 0xc0
    957c:	ebfffb3d 	bl	8278 <printk>
    9580:	ebfffca8 	bl	8828 <clean_reboot>
    9584:	e1a00005 	mov	r0, r5
    9588:	e28d100c 	add	r1, sp, #12
    958c:	ebffffda 	bl	94fc <sw_uart_putk>
    9590:	e1a00004 	mov	r0, r4
    9594:	e28ddf76 	add	sp, sp, #472	; 0x1d8
    9598:	e8bd4030 	pop	{r4, r5, lr}
    959c:	e28dd00c 	add	sp, sp, #12
    95a0:	e12fff1e 	bx	lr
    95a4:	000001ca 	andeq	r0, r0, sl, asr #3
    95a8:	00009c20 	andeq	r9, r0, r0, lsr #24
    95ac:	00009a1c 	andeq	r9, r0, ip, lsl sl
    95b0:	00009b94 	muleq	r0, r4, fp
    95b4:	00009b6c 	andeq	r9, r0, ip, ror #22

000095b8 <sw_uart_gets_until_blk>:
    95b8:	e52de004 	push	{lr}		; (str lr, [sp, #-4]!)
    95bc:	e24dd00c 	sub	sp, sp, #12
    95c0:	e3e0c000 	mvn	ip, #0
    95c4:	e58dc000 	str	ip, [sp]
    95c8:	ebffff3a 	bl	92b8 <sw_uart_gets_until>
    95cc:	e3500000 	cmp	r0, #0
    95d0:	aa000006 	bge	95f0 <sw_uart_gets_until_blk+0x38>
    95d4:	eb00007d 	bl	97d0 <rpi_reset_putc>
    95d8:	e59f0018 	ldr	r0, [pc, #24]	; 95f8 <sw_uart_gets_until_blk+0x40>
    95dc:	e59f1018 	ldr	r1, [pc, #24]	; 95fc <sw_uart_gets_until_blk+0x44>
    95e0:	e59f2018 	ldr	r2, [pc, #24]	; 9600 <sw_uart_gets_until_blk+0x48>
    95e4:	e3a030c8 	mov	r3, #200	; 0xc8
    95e8:	ebfffb22 	bl	8278 <printk>
    95ec:	ebfffc8d 	bl	8828 <clean_reboot>
    95f0:	e28dd00c 	add	sp, sp, #12
    95f4:	e49df004 	pop	{pc}		; (ldr pc, [sp], #4)
    95f8:	00009be8 	andeq	r9, r0, r8, ror #23
    95fc:	00009b94 	muleq	r0, r4, fp
    9600:	00009b7c 	andeq	r9, r0, ip, ror fp

00009604 <uart_init>:
    9604:	e92d4038 	push	{r3, r4, r5, lr}
    9608:	eb000052 	bl	9758 <dev_barrier>
    960c:	e3a0000e 	mov	r0, #14
    9610:	e3a01002 	mov	r1, #2
    9614:	ebfffd98 	bl	8c7c <gpio_set_function>
    9618:	e3a0000f 	mov	r0, #15
    961c:	e3a01002 	mov	r1, #2
    9620:	ebfffd95 	bl	8c7c <gpio_set_function>
    9624:	eb00004b 	bl	9758 <dev_barrier>
    9628:	e59f4068 	ldr	r4, [pc, #104]	; 9698 <uart_init+0x94>
    962c:	e5945000 	ldr	r5, [r4]
    9630:	e1a00005 	mov	r0, r5
    9634:	eb000059 	bl	97a0 <get32>
    9638:	e3801001 	orr	r1, r0, #1
    963c:	e1a00005 	mov	r0, r5
    9640:	eb00004a 	bl	9770 <put32>
    9644:	eb000043 	bl	9758 <dev_barrier>
    9648:	e5940004 	ldr	r0, [r4, #4]
    964c:	e3a01000 	mov	r1, #0
    9650:	eb000046 	bl	9770 <put32>
    9654:	e5940008 	ldr	r0, [r4, #8]
    9658:	e3a01000 	mov	r1, #0
    965c:	eb000043 	bl	9770 <put32>
    9660:	e594000c 	ldr	r0, [r4, #12]
    9664:	e3a01006 	mov	r1, #6
    9668:	eb000040 	bl	9770 <put32>
    966c:	e5940010 	ldr	r0, [r4, #16]
    9670:	e3a01003 	mov	r1, #3
    9674:	eb00003d 	bl	9770 <put32>
    9678:	e5940014 	ldr	r0, [r4, #20]
    967c:	e59f1018 	ldr	r1, [pc, #24]	; 969c <uart_init+0x98>
    9680:	eb00003a 	bl	9770 <put32>
    9684:	e5940004 	ldr	r0, [r4, #4]
    9688:	e3a01003 	mov	r1, #3
    968c:	eb000037 	bl	9770 <put32>
    9690:	eb000030 	bl	9758 <dev_barrier>
    9694:	e8bd8038 	pop	{r3, r4, r5, pc}
    9698:	000098d8 	ldrdeq	r9, [r0], -r8
    969c:	0000010e 	andeq	r0, r0, lr, lsl #2

000096a0 <uart_can_getc>:
    96a0:	e92d4008 	push	{r3, lr}
    96a4:	e59f300c 	ldr	r3, [pc, #12]	; 96b8 <uart_can_getc+0x18>
    96a8:	e5930018 	ldr	r0, [r3, #24]
    96ac:	eb00003b 	bl	97a0 <get32>
    96b0:	e2000001 	and	r0, r0, #1
    96b4:	e8bd8008 	pop	{r3, pc}
    96b8:	000098d8 	ldrdeq	r9, [r0], -r8

000096bc <uart_getc>:
    96bc:	e92d4008 	push	{r3, lr}
    96c0:	ebfffff6 	bl	96a0 <uart_can_getc>
    96c4:	e3500000 	cmp	r0, #0
    96c8:	0afffffc 	beq	96c0 <uart_getc+0x4>
    96cc:	e59f300c 	ldr	r3, [pc, #12]	; 96e0 <uart_getc+0x24>
    96d0:	e593001c 	ldr	r0, [r3, #28]
    96d4:	eb000031 	bl	97a0 <get32>
    96d8:	e6ef0070 	uxtb	r0, r0
    96dc:	e8bd8008 	pop	{r3, pc}
    96e0:	000098d8 	ldrdeq	r9, [r0], -r8

000096e4 <uart_can_putc>:
    96e4:	e92d4008 	push	{r3, lr}
    96e8:	e59f300c 	ldr	r3, [pc, #12]	; 96fc <uart_can_putc+0x18>
    96ec:	e5930018 	ldr	r0, [r3, #24]
    96f0:	eb00002a 	bl	97a0 <get32>
    96f4:	e2000020 	and	r0, r0, #32
    96f8:	e8bd8008 	pop	{r3, pc}
    96fc:	000098d8 	ldrdeq	r9, [r0], -r8

00009700 <uart_putc>:
    9700:	e92d4010 	push	{r4, lr}
    9704:	e1a04000 	mov	r4, r0
    9708:	ebfffff5 	bl	96e4 <uart_can_putc>
    970c:	e3500000 	cmp	r0, #0
    9710:	0afffffc 	beq	9708 <uart_putc+0x8>
    9714:	e59f300c 	ldr	r3, [pc, #12]	; 9728 <uart_putc+0x28>
    9718:	e593001c 	ldr	r0, [r3, #28]
    971c:	e1a01004 	mov	r1, r4
    9720:	eb000012 	bl	9770 <put32>
    9724:	e8bd8010 	pop	{r4, pc}
    9728:	000098d8 	ldrdeq	r9, [r0], -r8

0000972c <uart_has_data>:
    972c:	e92d4008 	push	{r3, lr}
    9730:	ebffffda 	bl	96a0 <uart_can_getc>
    9734:	e8bd8008 	pop	{r3, pc}

00009738 <uart_getc_async>:
    9738:	e92d4008 	push	{r3, lr}
    973c:	ebfffffa 	bl	972c <uart_has_data>
    9740:	e3500000 	cmp	r0, #0
    9744:	0a000001 	beq	9750 <uart_getc_async+0x18>
    9748:	ebffffdb 	bl	96bc <uart_getc>
    974c:	e8bd8008 	pop	{r3, pc}
    9750:	e3e00000 	mvn	r0, #0
    9754:	e8bd8008 	pop	{r3, pc}

00009758 <dev_barrier>:
    9758:	ea000002 	b	9768 <dsb>

0000975c <dmb>:
    975c:	e3a00000 	mov	r0, #0
    9760:	ee070fba 	mcr	15, 0, r0, cr7, cr10, {5}
    9764:	e12fff1e 	bx	lr

00009768 <dsb>:
    9768:	ee070f9a 	mcr	15, 0, r0, cr7, cr10, {4}
    976c:	e12fff1e 	bx	lr

00009770 <put32>:
    9770:	e5801000 	str	r1, [r0]
    9774:	e12fff1e 	bx	lr

00009778 <PUT32>:
    9778:	e5801000 	str	r1, [r0]
    977c:	e12fff1e 	bx	lr

00009780 <put16>:
    9780:	e1c010b0 	strh	r1, [r0]
    9784:	e12fff1e 	bx	lr

00009788 <PUT16>:
    9788:	e1c010b0 	strh	r1, [r0]
    978c:	e12fff1e 	bx	lr

00009790 <put8>:
    9790:	e5c01000 	strb	r1, [r0]
    9794:	e12fff1e 	bx	lr

00009798 <PUT8>:
    9798:	e5c01000 	strb	r1, [r0]
    979c:	e12fff1e 	bx	lr

000097a0 <get32>:
    97a0:	e5900000 	ldr	r0, [r0]
    97a4:	e12fff1e 	bx	lr

000097a8 <GET32>:
    97a8:	e5900000 	ldr	r0, [r0]
    97ac:	e12fff1e 	bx	lr

000097b0 <GETPC>:
    97b0:	e1a0000e 	mov	r0, lr
    97b4:	e12fff1e 	bx	lr

000097b8 <dummy>:
    97b8:	e12fff1e 	bx	lr

000097bc <internal_putchar>:
    97bc:	e92d4010 	push	{r4, lr}
    97c0:	e1a04000 	mov	r4, r0
    97c4:	ebffffcd 	bl	9700 <uart_putc>
    97c8:	e1a00004 	mov	r0, r4
    97cc:	e8bd8010 	pop	{r4, pc}

000097d0 <rpi_reset_putc>:
    97d0:	e59f2008 	ldr	r2, [pc, #8]	; 97e0 <rpi_reset_putc+0x10>
    97d4:	e59f3008 	ldr	r3, [pc, #8]	; 97e4 <rpi_reset_putc+0x14>
    97d8:	e5832000 	str	r2, [r3]
    97dc:	e12fff1e 	bx	lr
    97e0:	000097bc 			; <UNDEFINED> instruction: 0x000097bc
    97e4:	0000990c 	andeq	r9, r0, ip, lsl #18

000097e8 <rpi_set_putc>:
    97e8:	e59f3004 	ldr	r3, [pc, #4]	; 97f4 <rpi_set_putc+0xc>
    97ec:	e5830000 	str	r0, [r3]
    97f0:	e12fff1e 	bx	lr
    97f4:	0000990c 	andeq	r9, r0, ip, lsl #18

000097f8 <cb_new>:
    97f8:	e92d4008 	push	{r3, lr}
    97fc:	e3a00409 	mov	r0, #150994944	; 0x9000000
    9800:	e3a01000 	mov	r1, #0
    9804:	e3a02004 	mov	r2, #4
    9808:	eb00000e 	bl	9848 <memset>
    980c:	e3a00409 	mov	r0, #150994944	; 0x9000000
    9810:	e59f3004 	ldr	r3, [pc, #4]	; 981c <cb_new+0x24>
    9814:	e5803000 	str	r3, [r0]
    9818:	e8bd8008 	pop	{r3, pc}
    981c:	12345678 	eorsne	r5, r4, #120, 12	; 0x7800000

00009820 <cb_get_block>:
    9820:	e3a03409 	mov	r3, #150994944	; 0x9000000
    9824:	e5932000 	ldr	r2, [r3]
    9828:	e59f3014 	ldr	r3, [pc, #20]	; 9844 <cb_get_block+0x24>
    982c:	e1520003 	cmp	r2, r3
    9830:	0a000001 	beq	983c <cb_get_block+0x1c>
    9834:	e3a00000 	mov	r0, #0
    9838:	e12fff1e 	bx	lr
    983c:	e3a00409 	mov	r0, #150994944	; 0x9000000
    9840:	e12fff1e 	bx	lr
    9844:	12345678 	eorsne	r5, r4, #120, 12	; 0x7800000

00009848 <memset>:
    9848:	e0802002 	add	r2, r0, r2
    984c:	e1a03000 	mov	r3, r0
    9850:	ea000001 	b	985c <memset+0x14>
    9854:	e5c31000 	strb	r1, [r3]
    9858:	e2833001 	add	r3, r3, #1
    985c:	e1530002 	cmp	r3, r2
    9860:	3afffffb 	bcc	9854 <memset+0xc>
    9864:	e12fff1e 	bx	lr

Disassembly of section .data:

00009868 <GPPUD>:
    9868:	20200094 	mlacs	r0, r4, r0, r0

0000986c <GPPUDCLK0>:
    986c:	20200098 	mlacs	r0, r8, r0, r0

00009870 <GPPUDCLK1>:
    9870:	2020009c 	mlacs	r0, ip, r0, r0

00009874 <putk>:
    9874:	000082d0 	ldrdeq	r8, [r0], -r0

00009878 <GPFSEL0>:
    9878:	20200000 	eorcs	r0, r0, r0

0000987c <GPFSEL1>:
    987c:	20200004 	eorcs	r0, r0, r4

00009880 <GPFSEL2>:
    9880:	20200008 	eorcs	r0, r0, r8

00009884 <GPFSEL3>:
    9884:	2020000c 	eorcs	r0, r0, ip

00009888 <GPFSEL4>:
    9888:	20200010 	eorcs	r0, r0, r0, lsl r0

0000988c <GPFSEL5>:
    988c:	20200014 	eorcs	r0, r0, r4, lsl r0

00009890 <GPSET0>:
    9890:	2020001c 	eorcs	r0, r0, ip, lsl r0

00009894 <GPSET1>:
    9894:	20200020 	eorcs	r0, r0, r0, lsr #32

00009898 <GPCLR0>:
    9898:	20200028 	eorcs	r0, r0, r8, lsr #32

0000989c <GPCLR1>:
    989c:	2020002c 	eorcs	r0, r0, ip, lsr #32

000098a0 <GPLEV0>:
    98a0:	20200034 	eorcs	r0, r0, r4, lsr r0

000098a4 <GPLEV1>:
    98a4:	20200038 	eorcs	r0, r0, r8, lsr r0

000098a8 <IRQ_PENDING_2>:
    98a8:	2000b208 	andcs	fp, r0, r8, lsl #4

000098ac <GPREN0>:
    98ac:	2020004c 	eorcs	r0, r0, ip, asr #32

000098b0 <GPREN1>:
    98b0:	20200050 	eorcs	r0, r0, r0, asr r0

000098b4 <ENABLE_IRQS_2>:
    98b4:	2000b214 	andcs	fp, r0, r4, lsl r2

000098b8 <GPFEN0>:
    98b8:	20200058 	eorcs	r0, r0, r8, asr r0

000098bc <GPFEN1>:
    98bc:	2020005c 	eorcs	r0, r0, ip, asr r0

000098c0 <GPEDS0>:
    98c0:	20200040 	eorcs	r0, r0, r0, asr #32

000098c4 <GPEDS1>:
    98c4:	20200044 	eorcs	r0, r0, r4, asr #32

000098c8 <IRQ_PENDING_1>:
    98c8:	2000b204 	andcs	fp, r0, r4, lsl #4

000098cc <gpio_clr0>:
    98cc:	20200028 	eorcs	r0, r0, r8, lsr #32

000098d0 <gpio_set0>:
    98d0:	2020001c 	eorcs	r0, r0, ip, lsl r0

000098d4 <gpio_fsel0>:
    98d4:	20200000 	eorcs	r0, r0, r0

000098d8 <AUX_ENABLES>:
    98d8:	20215004 	eorcs	r5, r1, r4

000098dc <AUX_MU_CNTL_REG>:
    98dc:	20215060 	eorcs	r5, r1, r0, rrx

000098e0 <AUX_MU_IER_REG>:
    98e0:	20215044 	eorcs	r5, r1, r4, asr #32

000098e4 <AUX_MU_IIR_REG>:
    98e4:	20215048 	eorcs	r5, r1, r8, asr #32

000098e8 <AUX_MU_LCR_REG>:
    98e8:	2021504c 	eorcs	r5, r1, ip, asr #32

000098ec <AUX_MU_BAUD_REG>:
    98ec:	20215068 	eorcs	r5, r1, r8, rrx

000098f0 <AUX_MU_LSR_REG>:
    98f0:	20215054 	eorcs	r5, r1, r4, asr r0

000098f4 <AUX_MU_IO_REG>:
    98f4:	20215040 	eorcs	r5, r1, r0, asr #32

000098f8 <AUX_MU_STAT_REG>:
    98f8:	20215064 	eorcs	r5, r1, r4, rrx

000098fc <AUX_MU_SCRATCH>:
    98fc:	2021505c 	eorcs	r5, r1, ip, asr r0

00009900 <AUX_MU_MSR_REG>:
    9900:	20215058 	eorcs	r5, r1, r8, asr r0

00009904 <AUX_MU_MCR_REG>:
    9904:	20215050 	eorcs	r5, r1, r0, asr r0

00009908 <AUX_IRQ>:
    9908:	20215000 	eorcs	r5, r1, r0

0000990c <rpi_putchar>:
    990c:	000097bc 			; <UNDEFINED> instruction: 0x000097bc

Disassembly of section .rodata:

00009910 <__FUNCTION__.4265-0xe8>:
    9910:	6c6c7570 	cfstr64vs	mvdx7, [ip], #-448	; 0xfffffe40
    9914:	253d7075 	ldrcs	r7, [sp, #-117]!	; 0x75
    9918:	74202c64 	strtvc	r2, [r0], #-3172	; 0xc64
    991c:	20736968 	rsbscs	r6, r3, r8, ror #18
    9920:	73207369 	teqvc	r0, #-1543503871	; 0xa4000001
    9924:	6b636974 	blvs	18e3efc <__bss_end__+0x18d9ebc>
    9928:	74203a79 	strtvc	r3, [r0], #-2681	; 0xa79
    992c:	6863756f 	stmdavs	r3!, {r0, r1, r2, r3, r5, r6, r8, sl, ip, sp, lr}^
    9930:	64657220 	strbtvs	r7, [r5], #-544	; 0x220
    9934:	61656c20 	cmnvs	r5, r0, lsr #24
    9938:	6f742064 	svcvs	0x00742064
    993c:	69687420 	stmdbvs	r8!, {r5, sl, ip, sp, lr}^
    9940:	69702073 	ldmdbvs	r0!, {r0, r1, r4, r5, r6, sp}^
    9944:	6e61206e 	cdpvs	0, 6, cr2, cr1, cr14, {3}
    9948:	6c622064 	stclvs	0, cr2, [r2], #-400	; 0xfffffe70
    994c:	206b6361 	rsbcs	r6, fp, r1, ror #6
    9950:	67206f74 			; <UNDEFINED> instruction: 0x67206f74
    9954:	6e756f72 	mrcvs	15, 3, r6, cr5, cr2, {3}
    9958:	73203a64 	teqvc	r0, #100, 20	; 0x64000
    995c:	6c756f68 	ldclvs	15, cr6, [r5], #-416	; 0xfffffe60
    9960:	65732064 	ldrbvs	r2, [r3, #-100]!	; 0x64
    9964:	20612065 	rsbcs	r2, r1, r5, rrx
    9968:	2056337e 	subscs	r3, r6, lr, ror r3
    996c:	64616572 	strbtvs	r6, [r1], #-1394	; 0x572
    9970:	20676e69 	rsbcs	r6, r7, r9, ror #28
    9974:	6d206e6f 	stcvs	14, cr6, [r0, #-444]!	; 0xfffffe44
    9978:	69746c75 	ldmdbvs	r4!, {r0, r2, r4, r5, r6, sl, fp, sp, lr}^
    997c:	6574656d 	ldrbvs	r6, [r4, #-1389]!	; 0x56d
    9980:	00000a72 	andeq	r0, r0, r2, ror sl
    9984:	6c6c7570 	cfstr64vs	mvdx7, [ip], #-448	; 0xfffffe40
    9988:	6e776f64 	cdpvs	15, 7, cr6, cr7, cr4, {3}
    998c:	2c64253d 	cfstr64cs	mvdx2, [r4], #-244	; 0xffffff0c
    9990:	69687420 	stmdbvs	r8!, {r5, sl, ip, sp, lr}^
    9994:	73692073 	cmnvc	r9, #115	; 0x73
    9998:	69747320 	ldmdbvs	r4!, {r5, r8, r9, ip, sp, lr}^
    999c:	3a796b63 	bcc	1e64730 <__bss_end__+0x1e5a6f0>
    99a0:	756f7420 	strbvc	r7, [pc, #-1056]!	; 9588 <sw_uart_printk+0x60>
    99a4:	62206863 	eorvs	r6, r0, #6488064	; 0x630000
    99a8:	6b63616c 	blvs	18e1f60 <__bss_end__+0x18d7f20>
    99ac:	61656c20 	cmnvs	r5, r0, lsr #24
    99b0:	6f742064 	svcvs	0x00742064
    99b4:	69687420 	stmdbvs	r8!, {r5, sl, ip, sp, lr}^
    99b8:	69702073 	ldmdbvs	r0!, {r0, r1, r4, r5, r6, sp}^
    99bc:	61202c6e 	teqvs	r0, lr, ror #24
    99c0:	7220646e 	eorvc	r6, r0, #1845493760	; 0x6e000000
    99c4:	74206465 	strtvc	r6, [r0], #-1125	; 0x465
    99c8:	7633206f 	ldrtvc	r2, [r3], -pc, rrx
    99cc:	6873203a 	ldmdavs	r3!, {r1, r3, r4, r5, sp}^
    99d0:	646c756f 	strbtvs	r7, [ip], #-1391	; 0x56f
    99d4:	65657320 	strbvs	r7, [r5, #-800]!	; 0x320
    99d8:	7e206120 	sufvcsp	f6, f0, f0
    99dc:	72205633 	eorvc	r5, r0, #53477376	; 0x3300000
    99e0:	69646165 	stmdbvs	r4!, {r0, r2, r5, r6, r8, sp, lr}^
    99e4:	6f20676e 	svcvs	0x0020676e
    99e8:	756d206e 	strbvc	r2, [sp, #-110]!	; 0x6e
    99ec:	6d69746c 	cfstrdvs	mvd7, [r9, #-432]!	; 0xfffffe50
    99f0:	72657465 	rsbvc	r7, r5, #1694498816	; 0x65000000
    99f4:	0000000a 	andeq	r0, r0, sl

000099f8 <__FUNCTION__.4265>:
    99f8:	74696d65 	strbtvc	r6, [r9], #-3429	; 0xd65
    99fc:	00000000 	andeq	r0, r0, r0

00009a00 <__FUNCTION__.4213>:
    9a00:	5f697072 	svcpl	0x00697072
    9a04:	5f746573 	svcpl	0x00746573
    9a08:	7074756f 	rsbsvc	r7, r4, pc, ror #10
    9a0c:	00007475 	andeq	r7, r0, r5, ror r4

00009a10 <__FUNCTION__.4287>:
    9a10:	705f6176 	subsvc	r6, pc, r6, ror r1	; <UNPREDICTABLE>
    9a14:	746e6972 	strbtvc	r6, [lr], #-2418	; 0x972
    9a18:	0000006b 	andeq	r0, r0, fp, rrx
    9a1c:	494e4150 	stmdbmi	lr, {r4, r6, r8, lr}^
    9a20:	73253a43 	teqvc	r5, #274432	; 0x43000
    9a24:	3a73253a 	bcc	1cd2f14 <__bss_end__+0x1cc8ed4>
    9a28:	253a6425 	ldrcs	r6, [sl, #-1061]!	; 0x425
    9a2c:	00000a73 	andeq	r0, r0, r3, ror sl
    9a30:	6362696c 	cmnvs	r2, #108, 18	; 0x1b0000
    9a34:	2d61762f 	stclcs	6, cr7, [r1, #-188]!	; 0xffffff44
    9a38:	6e697270 	mcrvs	2, 3, r7, cr9, cr0, {3}
    9a3c:	632e6b74 	teqvs	lr, #116, 22	; 0x1d000
    9a40:	00000000 	andeq	r0, r0, r0
    9a44:	00000030 	andeq	r0, r0, r0, lsr r0
    9a48:	33323130 	teqcc	r2, #48, 2
    9a4c:	37363534 			; <UNDEFINED> instruction: 0x37363534
    9a50:	00003938 	andeq	r3, r0, r8, lsr r9
    9a54:	33323130 	teqcc	r2, #48, 2
    9a58:	37363534 			; <UNDEFINED> instruction: 0x37363534
    9a5c:	62613938 	rsbvs	r3, r1, #56, 18	; 0xe0000
    9a60:	66656463 	strbtvs	r6, [r5], -r3, ror #8
    9a64:	00000000 	andeq	r0, r0, r0
    9a68:	00003130 	andeq	r3, r0, r0, lsr r1
    9a6c:	63747570 	cmnvs	r4, #112, 10	; 0x1c000000
    9a70:	0070665f 	rsbseq	r6, r0, pc, asr r6
    9a74:	74646977 	strbtvc	r6, [r4], #-2423	; 0x977
    9a78:	203c2068 	eorscs	r2, ip, r8, rrx
    9a7c:	00003233 	andeq	r3, r0, r3, lsr r2
    9a80:	494e4150 	stmdbmi	lr, {r4, r6, r8, lr}^
    9a84:	73253a43 	teqvc	r5, #274432	; 0x43000
    9a88:	3a73253a 	bcc	1cd2f78 <__bss_end__+0x1cc8f38>
    9a8c:	663a6425 	ldrtvs	r6, [sl], -r5, lsr #8
    9a90:	74616f6c 	strbtvc	r6, [r1], #-3948	; 0xf6c
    9a94:	746f6e20 	strbtvc	r6, [pc], #-3616	; 9a9c <__FUNCTION__.4287+0x8c>
    9a98:	616e6520 	cmnvs	lr, r0, lsr #10
    9a9c:	64656c62 	strbtvs	r6, [r5], #-3170	; 0xc62
    9aa0:	0a212121 	beq	851f2c <__bss_end__+0x847eec>
    9aa4:	00000000 	andeq	r0, r0, r0
    9aa8:	494e4150 	stmdbmi	lr, {r4, r6, r8, lr}^
    9aac:	73253a43 	teqvc	r5, #274432	; 0x43000
    9ab0:	3a73253a 	bcc	1cd2fa0 <__bss_end__+0x1cc8f60>
    9ab4:	703a6425 	eorsvc	r6, sl, r5, lsr #8
    9ab8:	746e6972 	strbtvc	r6, [lr], #-2418	; 0x972
    9abc:	6e203a6b 	vnmulvs.f32	s6, s0, s23
    9ac0:	6820746f 	stmdavs	r0!, {r0, r1, r2, r3, r5, r6, sl, ip, sp, lr}
    9ac4:	6c646e61 	stclvs	14, cr6, [r4], #-388	; 0xfffffe7c
    9ac8:	20676e69 	rsbcs	r6, r7, r9, ror #28
    9acc:	63657073 	cmnvs	r5, #115	; 0x73
    9ad0:	65696669 	strbvs	r6, [r9, #-1641]!	; 0x669
    9ad4:	25272072 	strcs	r2, [r7, #-114]!	; 0x72
    9ad8:	0a0a2763 	beq	29386c <__bss_end__+0x28982c>
    9adc:	00000000 	andeq	r0, r0, r0
    9ae0:	454e4f44 	strbmi	r4, [lr, #-3908]	; 0xf44
    9ae4:	0a212121 	beq	851f70 <__bss_end__+0x847f30>
    9ae8:	00000000 	andeq	r0, r0, r0
    9aec:	756f6261 	strbvc	r6, [pc, #-609]!	; 9893 <GPSET0+0x3>
    9af0:	6f742074 	svcvs	0x00742074
    9af4:	69727020 	ldmdbvs	r2!, {r5, ip, sp, lr}^
    9af8:	6f20746e 	svcvs	0x0020746e
    9afc:	6572206e 	ldrbvs	r2, [r2, #-110]!	; 0x6e
    9b00:	616c7567 	cmnvs	ip, r7, ror #10
    9b04:	72702072 	rsbsvc	r2, r0, #114	; 0x72
    9b08:	66746e69 	ldrbtvs	r6, [r4], -r9, ror #28
    9b0c:	0000000a 	andeq	r0, r0, sl
    9b10:	63637573 	cmnvs	r3, #482344960	; 0x1cc00000
    9b14:	21737365 	cmncs	r3, r5, ror #6
    9b18:	0000000a 	andeq	r0, r0, sl

00009b1c <__FUNCTION__.4314>:
    9b1c:	755f7773 	ldrbvc	r7, [pc, #-1907]	; 93b1 <sw_uart_gets_timeout+0x55>
    9b20:	5f747261 	svcpl	0x00747261
    9b24:	73746567 	cmnvc	r4, #432013312	; 0x19c00000
    9b28:	746e755f 	strbtvc	r7, [lr], #-1375	; 0x55f
    9b2c:	00006c69 	andeq	r6, r0, r9, ror #24

00009b30 <__FUNCTION__.4326>:
    9b30:	755f7773 	ldrbvc	r7, [pc, #-1907]	; 93c5 <sw_uart_gets_timeout+0x69>
    9b34:	5f747261 	svcpl	0x00747261
    9b38:	73746567 	cmnvc	r4, #432013312	; 0x19c00000
    9b3c:	6d69745f 	cfstrdvs	mvd7, [r9, #-380]!	; 0xfffffe84
    9b40:	74756f65 	ldrbtvc	r6, [r5], #-3941	; 0xf65
    9b44:	00000000 	andeq	r0, r0, r0

00009b48 <__FUNCTION__.4340>:
    9b48:	755f7773 	ldrbvc	r7, [pc, #-1907]	; 93dd <sw_uart_gets_timeout+0x81>
    9b4c:	5f747261 	svcpl	0x00747261
    9b50:	74696e69 	strbtvc	r6, [r9], #-3689	; 0xe69
    9b54:	6c65685f 	stclvs	8, cr6, [r5], #-380	; 0xfffffe84
    9b58:	00726570 	rsbseq	r6, r2, r0, ror r5

00009b5c <__FUNCTION__.4346>:
    9b5c:	755f7773 	ldrbvc	r7, [pc, #-1907]	; 93f1 <sw_uart_init_helper+0x5>
    9b60:	5f747261 	svcpl	0x00747261
    9b64:	63746567 	cmnvs	r4, #432013312	; 0x19c00000
    9b68:	00000000 	andeq	r0, r0, r0

00009b6c <__FUNCTION__.4368>:
    9b6c:	755f7773 	ldrbvc	r7, [pc, #-1907]	; 9401 <sw_uart_init_helper+0x15>
    9b70:	5f747261 	svcpl	0x00747261
    9b74:	6e697270 	mcrvs	2, 3, r7, cr9, cr0, {3}
    9b78:	00006b74 	andeq	r6, r0, r4, ror fp

00009b7c <__FUNCTION__.4376>:
    9b7c:	755f7773 	ldrbvc	r7, [pc, #-1907]	; 9411 <sw_uart_init_helper+0x25>
    9b80:	5f747261 	svcpl	0x00747261
    9b84:	73746567 	cmnvc	r4, #432013312	; 0x19c00000
    9b88:	746e755f 	strbtvc	r7, [lr], #-1375	; 0x55f
    9b8c:	625f6c69 	subsvs	r6, pc, #26880	; 0x6900
    9b90:	00006b6c 	andeq	r6, r0, ip, ror #22
    9b94:	732d796d 	teqvc	sp, #1785856	; 0x1b4000
    9b98:	732f6372 	teqvc	pc, #-939524095	; 0xc8000001
    9b9c:	61752d77 	cmnvs	r5, r7, ror sp
    9ba0:	632e7472 	teqvs	lr, #1912602624	; 0x72000000
    9ba4:	00000000 	andeq	r0, r0, r0
    9ba8:	7479626e 	ldrbtvc	r6, [r9], #-622	; 0x26e
    9bac:	303e7365 	eorscc	r7, lr, r5, ror #6
    9bb0:	00000000 	andeq	r0, r0, r0
    9bb4:	7a686d28 	bvc	1a2505c <__bss_end__+0x1a1b01c>
    9bb8:	62202d20 	eorvs	r2, r0, #32, 26	; 0x800
    9bbc:	29647561 	stmdbcs	r4!, {r0, r5, r6, r8, sl, ip, sp, lr}^
    9bc0:	203d3c20 	eorscs	r3, sp, r0, lsr #24
    9bc4:	69726564 	ldmdbvs	r2!, {r2, r5, r6, r8, sl, sp, lr}^
    9bc8:	20646576 	rsbcs	r6, r4, r6, ror r5
    9bcc:	64202626 	strtvs	r2, [r0], #-1574	; 0x626
    9bd0:	76697265 	strbtvc	r7, [r9], -r5, ror #4
    9bd4:	3c206465 	cfstrscc	mvf6, [r0], #-404	; 0xfffffe6c
    9bd8:	6d28203d 	stcvs	0, cr2, [r8, #-244]!	; 0xffffff0c
    9bdc:	2b207a68 	blcs	828584 <__bss_end__+0x81e544>
    9be0:	75616220 	strbvc	r6, [r1, #-544]!	; 0x220
    9be4:	00002964 	andeq	r2, r0, r4, ror #18
    9be8:	494e4150 	stmdbmi	lr, {r4, r6, r8, lr}^
    9bec:	73253a43 	teqvc	r5, #274432	; 0x43000
    9bf0:	3a73253a 	bcc	1cd30e0 <__bss_end__+0x1cc90a0>
    9bf4:	693a6425 	ldmdbvs	sl!, {r0, r2, r5, sl, sp, lr}
    9bf8:	736f706d 	cmnvc	pc, #109	; 0x6d
    9bfc:	6c626973 	stclvs	9, cr6, [r2], #-460	; 0xfffffe34
    9c00:	68203a65 	stmdavs	r0!, {r0, r2, r5, r6, r9, fp, ip, sp}
    9c04:	20657661 	rsbcs	r7, r5, r1, ror #12
    9c08:	69206e61 	stmdbvs	r0!, {r0, r5, r6, r9, sl, fp, sp, lr}
    9c0c:	6e69666e 	cdpvs	6, 6, cr6, cr9, cr14, {3}
    9c10:	20657469 	rsbcs	r7, r5, r9, ror #8
    9c14:	656d6974 	strbvs	r6, [sp, #-2420]!	; 0x974
    9c18:	2174756f 	cmncs	r4, pc, ror #10
    9c1c:	00000a0a 	andeq	r0, r0, sl, lsl #20
    9c20:	3c207a73 	stccc	10, cr7, [r0], #-460	; 0xfffffe34
    9c24:	7a697320 	bvc	1a668ac <__bss_end__+0x1a5c86c>
    9c28:	20666f65 	rsbcs	r6, r6, r5, ror #30
    9c2c:	2d667562 	cfstr64cs	mvdx7, [r6, #-392]!	; 0xfffffe78
    9c30:	00000031 	andeq	r0, r0, r1, lsr r0

Disassembly of section .bss:

00009c34 <__bss_start__>:
	...

0000a034 <console_uart>:
	...

Disassembly of section .ARM.attributes:

00000000 <.ARM.attributes>:
   0:	00002a41 	andeq	r2, r0, r1, asr #20
   4:	61656100 	cmnvs	r5, r0, lsl #2
   8:	01006962 	tsteq	r0, r2, ror #18
   c:	00000020 	andeq	r0, r0, r0, lsr #32
  10:	4b5a3605 	blmi	168d82c <__bss_end__+0x16837ec>
  14:	08070600 	stmdaeq	r7, {r9, sl}
  18:	12010901 	andne	r0, r1, #16384	; 0x4000
  1c:	15011404 	strne	r1, [r1, #-1028]	; 0x404
  20:	18031701 	stmdane	r3, {r0, r8, r9, sl, ip}
  24:	22011a01 	andcs	r1, r1, #4096	; 0x1000
  28:	Address 0x0000000000000028 is out of bounds.


Disassembly of section .comment:

00000000 <.comment>:
   0:	3a434347 	bcc	10d0d24 <__bss_end__+0x10c6ce4>
   4:	4e472820 	cdpmi	8, 4, cr2, cr7, cr0, {1}
   8:	34202955 	strtcc	r2, [r0], #-2389	; 0x955
   c:	332e382e 	teqcc	lr, #3014656	; 0x2e0000
	...

Disassembly of section .debug_info:

00000000 <.debug_info>:
       0:	000001d6 	ldrdeq	r0, [r0], -r6
       4:	00000004 	andeq	r0, r0, r4
       8:	01040000 	mrseq	r0, (UNDEF: 4)
       c:	00000102 	andeq	r0, r0, r2, lsl #2
      10:	00002d01 	andeq	r2, r0, r1, lsl #26
      14:	00008800 	andeq	r8, r0, r0, lsl #16
      18:	00801000 	addeq	r1, r0, r0
      1c:	00005400 	andeq	r5, r0, r0, lsl #8
      20:	00000000 	andeq	r0, r0, r0
      24:	05040200 	streq	r0, [r4, #-512]	; 0x200
      28:	00746e69 	rsbseq	r6, r4, r9, ror #28
      2c:	3c070403 	cfstrscc	mvf0, [r7], {3}
      30:	03000000 	movweq	r0, #0
      34:	004b0601 	subeq	r0, fp, r1, lsl #12
      38:	02030000 	andeq	r0, r3, #0
      3c:	0000f805 	andeq	pc, r0, r5, lsl #16
      40:	05040300 	streq	r0, [r4, #-768]	; 0x300
      44:	00000005 	andeq	r0, r0, r5
      48:	00050803 	andeq	r0, r5, r3, lsl #16
      4c:	03000000 	movweq	r0, #0
      50:	00490801 	subeq	r0, r9, r1, lsl #16
      54:	02030000 	andeq	r0, r3, #0
      58:	0000e507 	andeq	lr, r0, r7, lsl #10
      5c:	07040300 	streq	r0, [r4, -r0, lsl #6]
      60:	00000037 	andeq	r0, r0, r7, lsr r0
      64:	32070803 	andcc	r0, r7, #196608	; 0x30000
      68:	03000000 	movweq	r0, #0
      6c:	016d0704 	cmneq	sp, r4, lsl #14
      70:	01030000 	mrseq	r0, (UNDEF: 3)
      74:	00005208 	andeq	r5, r0, r8, lsl #4
      78:	7f040400 	svcvc	0x00040400
      7c:	05000000 	streq	r0, [r0, #-0]
      80:	00000072 	andeq	r0, r0, r2, ror r0
      84:	00006e06 	andeq	r6, r0, r6, lsl #28
      88:	10050100 	andne	r0, r5, r0, lsl #2
      8c:	54000080 	strpl	r0, [r0], #-128	; 0x80
      90:	01000000 	mrseq	r0, (UNDEF: 0)
      94:	0001829c 	muleq	r1, ip, r2
      98:	70750700 	rsbsvc	r0, r5, r0, lsl #14
      9c:	2c080100 	stfcss	f0, [r8], {-0}
      a0:	15000000 	strne	r0, [r0, #-0]
      a4:	00008308 	andeq	r8, r0, r8, lsl #6
      a8:	2c080100 	stfcss	f0, [r8], {-0}
      ac:	14000000 	strne	r0, [r0], #-0
      b0:	00001d09 	andeq	r1, r0, r9, lsl #26
      b4:	250c0100 	strcs	r0, [ip, #-256]	; 0x100
      b8:	c1000000 	mrsgt	r0, (UNDEF: 0)
      bc:	0a000000 	beq	c4 <_start-0x7f3c>
      c0:	00760900 	rsbseq	r0, r6, r0, lsl #18
      c4:	10010000 	andne	r0, r1, r0
      c8:	00000025 	andeq	r0, r0, r5, lsr #32
      cc:	000000d2 	ldrdeq	r0, [r0], -r2
      d0:	180b000a 	stmdane	fp, {r1, r3}
      d4:	08000080 	stmdaeq	r0, {r7}
      d8:	eb000000 	bl	e0 <_start-0x7f20>
      dc:	07000000 	streq	r0, [r0, -r0]
      e0:	01006e69 	tsteq	r0, r9, ror #28
      e4:	00002c07 	andeq	r2, r0, r7, lsl #24
      e8:	0c000100 	stfeqs	f0, [r0], {-0}
      ec:	00008018 	andeq	r8, r0, r8, lsl r0
      f0:	00000182 	andeq	r0, r0, r2, lsl #3
      f4:	0080280d 	addeq	r2, r0, sp, lsl #16
      f8:	00018900 	andeq	r8, r1, r0, lsl #18
      fc:	00010700 	andeq	r0, r1, r0, lsl #14
     100:	50010e00 	andpl	r0, r1, r0, lsl #28
     104:	0d004501 	cfstr32eq	mvfx4, [r0, #-4]
     108:	00008030 	andeq	r8, r0, r0, lsr r0
     10c:	0000019a 	muleq	r0, sl, r1
     110:	0000011a 	andeq	r0, r0, sl, lsl r1
     114:	0150010e 	cmpeq	r0, lr, lsl #2
     118:	3c0d0045 	stccc	0, cr0, [sp], {69}	; 0x45
     11c:	ab000080 	blge	324 <_start-0x7cdc>
     120:	36000001 	strcc	r0, [r0], -r1
     124:	0e000001 	cdpeq	0, 0, cr0, cr0, cr1, {0}
     128:	45015101 	strmi	r5, [r1, #-257]	; 0x101
     12c:	0550010e 	ldrbeq	r0, [r0, #-270]	; 0x10e
     130:	00991003 	addseq	r1, r9, r3
     134:	440d0000 	strmi	r0, [sp], #-0
     138:	89000080 	stmdbhi	r0, {r7}
     13c:	49000001 	stmdbmi	r0, {r0}
     140:	0e000001 	cdpeq	0, 0, cr0, cr0, cr1, {0}
     144:	45015001 	strmi	r5, [r1, #-1]
     148:	804c0d00 	subhi	r0, ip, r0, lsl #26
     14c:	01c10000 	biceq	r0, r1, r0
     150:	015c0000 	cmpeq	ip, r0
     154:	010e0000 	mrseq	r0, (UNDEF: 14)
     158:	00440150 	subeq	r0, r4, r0, asr r1
     15c:	0080580d 	addeq	r5, r0, sp, lsl #16
     160:	0001ab00 	andeq	sl, r1, r0, lsl #22
     164:	00017800 	andeq	r7, r1, r0, lsl #16
     168:	51010e00 	tstpl	r1, r0, lsl #28
     16c:	010e4401 	tsteq	lr, r1, lsl #8
     170:	84030550 	strhi	r0, [r3], #-1360	; 0x550
     174:	00000099 	muleq	r0, r9, r0
     178:	00805c0c 	addeq	r5, r0, ip, lsl #24
     17c:	0001d200 	andeq	sp, r1, r0, lsl #4
     180:	570f0000 	strpl	r0, [pc, -r0]
     184:	03000000 	movweq	r0, #0
     188:	000e103a 	andeq	r1, lr, sl, lsr r0
     18c:	1c020000 	stcne	0, cr0, [r2], {-0}
     190:	0000019a 	muleq	r0, sl, r1
     194:	00002c11 	andeq	r2, r0, r1, lsl ip
     198:	1d090000 	stcne	0, cr0, [r9, #-0]
     19c:	01000000 	mrseq	r0, (UNDEF: 0)
     1a0:	0000250c 	andeq	r2, r0, ip, lsl #10
     1a4:	0001ab00 	andeq	sl, r1, r0, lsl #22
     1a8:	12000a00 	andne	r0, r0, #0, 20
     1ac:	00000241 	andeq	r0, r0, r1, asr #4
     1b0:	00252903 	eoreq	r2, r5, r3, lsl #18
     1b4:	01c10000 	biceq	r0, r1, r0
     1b8:	79110000 	ldmdbvc	r1, {}	; <UNPREDICTABLE>
     1bc:	0a000000 	beq	1c4 <_start-0x7e3c>
     1c0:	00760900 	rsbseq	r0, r6, r0, lsl #18
     1c4:	10010000 	andne	r0, r1, r0
     1c8:	00000025 	andeq	r0, r0, r5, lsr #32
     1cc:	000001d2 	ldrdeq	r0, [r0], -r2
     1d0:	610f000a 	tstvs	pc, sl
     1d4:	03000000 	movweq	r0, #0
     1d8:	05980066 	ldreq	r0, [r8, #102]	; 0x66
     1dc:	00040000 	andeq	r0, r4, r0
     1e0:	000000f9 	strdeq	r0, [r0], -r9
     1e4:	01020104 	tsteq	r2, r4, lsl #2
     1e8:	81010000 	mrshi	r0, (UNDEF: 1)
     1ec:	88000001 	stmdahi	r0, {r0}
     1f0:	64000000 	strvs	r0, [r0], #-0
     1f4:	14000080 	strne	r0, [r0], #-128	; 0x80
     1f8:	e1000002 	tst	r0, r2
     1fc:	02000000 	andeq	r0, r0, #0
     200:	6e690504 	cdpvs	5, 6, cr0, cr9, cr4, {0}
     204:	04030074 	streq	r0, [r3], #-116	; 0x74
     208:	00003c07 	andeq	r3, r0, r7, lsl #24
     20c:	06010300 	streq	r0, [r1], -r0, lsl #6
     210:	0000004b 	andeq	r0, r0, fp, asr #32
     214:	f8050203 			; <UNDEFINED> instruction: 0xf8050203
     218:	03000000 	movweq	r0, #0
     21c:	00050504 	andeq	r0, r5, r4, lsl #10
     220:	08030000 	stmdaeq	r3, {}	; <UNPREDICTABLE>
     224:	00000005 	andeq	r0, r0, r5
     228:	08010300 	stmdaeq	r1, {r8, r9}
     22c:	00000049 	andeq	r0, r0, r9, asr #32
     230:	e5070203 	str	r0, [r7, #-515]	; 0x203
     234:	03000000 	movweq	r0, #0
     238:	00370704 	eorseq	r0, r7, r4, lsl #14
     23c:	08030000 	stmdaeq	r3, {}	; <UNPREDICTABLE>
     240:	00003207 	andeq	r3, r0, r7, lsl #4
     244:	07040300 	streq	r0, [r4, -r0, lsl #6]
     248:	0000016d 	andeq	r0, r0, sp, ror #2
     24c:	52080103 	andpl	r0, r8, #-1073741824	; 0xc0000000
     250:	04000000 	streq	r0, [r0], #-0
     254:	0000001d 	andeq	r0, r0, sp, lsl r0
     258:	80640901 	rsbhi	r0, r4, r1, lsl #18
     25c:	00b40000 	adcseq	r0, r4, r0
     260:	9c010000 	stcls	0, cr0, [r1], {-0}
     264:	00000212 	andeq	r0, r0, r2, lsl r2
     268:	6e697005 	cdpvs	0, 6, cr7, cr9, cr5, {0}
     26c:	2c090100 	stfcss	f0, [r9], {-0}
     270:	00000000 	andeq	r0, r0, r0
     274:	06000000 	streq	r0, [r0], -r0
     278:	006c6176 	rsbeq	r6, ip, r6, ror r1
     27c:	002c0a01 	eoreq	r0, ip, r1, lsl #20
     280:	07020000 	streq	r0, [r2, -r0]
     284:	000003fc 	strdeq	r0, [r0], -ip
     288:	002c0d01 	eoreq	r0, ip, r1, lsl #26
     28c:	002c0000 	eoreq	r0, ip, r0
     290:	be070000 	cdplt	0, 0, cr0, cr7, cr0, {0}
     294:	01000001 	tsteq	r0, r1
     298:	00021210 	andeq	r1, r2, r0, lsl r2
     29c:	00006000 	andeq	r6, r0, r0
     2a0:	01760800 	cmneq	r6, r0, lsl #16
     2a4:	17010000 	strne	r0, [r1, -r0]
     2a8:	0000002c 	andeq	r0, r0, ip, lsr #32
     2ac:	7c095501 	cfstr32vc	mvfx5, [r9], {1}
     2b0:	04000080 	streq	r0, [r0], #-128	; 0x80
     2b4:	f1000000 	cps	#0
     2b8:	07000000 	streq	r0, [r0, -r0]
     2bc:	000001a6 	andeq	r0, r0, r6, lsr #3
     2c0:	002c0d01 	eoreq	r0, ip, r1, lsl #26
     2c4:	00960000 	addseq	r0, r6, r0
     2c8:	09000000 	stmdbeq	r0, {}	; <UNPREDICTABLE>
     2cc:	00008080 	andeq	r8, r0, r0, lsl #1
     2d0:	00000004 	andeq	r0, r0, r4
     2d4:	0000010e 	andeq	r0, r0, lr, lsl #2
     2d8:	0001a607 	andeq	sl, r1, r7, lsl #12
     2dc:	2c0e0100 	stfcss	f0, [lr], {-0}
     2e0:	a9000000 	stmdbge	r0, {}	; <UNPREDICTABLE>
     2e4:	00000000 	andeq	r0, r0, r0
     2e8:	0080b809 	addeq	fp, r0, r9, lsl #16
     2ec:	00000400 	andeq	r0, r0, r0, lsl #8
     2f0:	00012b00 	andeq	r2, r1, r0, lsl #22
     2f4:	01a60700 			; <UNDEFINED> instruction: 0x01a60700
     2f8:	1a010000 	bne	40300 <__bss_end__+0x362c0>
     2fc:	0000002c 	andeq	r0, r0, ip, lsr #32
     300:	000000bc 	strheq	r0, [r0], -ip
     304:	80bc0900 	adcshi	r0, ip, r0, lsl #18
     308:	00040000 	andeq	r0, r4, r0
     30c:	01480000 	mrseq	r0, (UNDEF: 72)
     310:	a6070000 	strge	r0, [r7], -r0
     314:	01000001 	tsteq	r0, r1
     318:	00002c1b 	andeq	r2, r0, fp, lsl ip
     31c:	0000cf00 	andeq	ip, r0, r0, lsl #30
     320:	dc090000 	stcle	0, cr0, [r9], {-0}
     324:	04000080 	streq	r0, [r0], #-128	; 0x80
     328:	65000000 	strvs	r0, [r0, #-0]
     32c:	07000001 	streq	r0, [r0, -r1]
     330:	000001a6 	andeq	r0, r0, r6, lsr #3
     334:	002c1f01 	eoreq	r1, ip, r1, lsl #30
     338:	00e20000 	rsceq	r0, r2, r0
     33c:	09000000 	stmdbeq	r0, {}	; <UNPREDICTABLE>
     340:	000080e0 	andeq	r8, r0, r0, ror #1
     344:	00000004 	andeq	r0, r0, r4
     348:	00000182 	andeq	r0, r0, r2, lsl #3
     34c:	0001a607 	andeq	sl, r1, r7, lsl #12
     350:	2c200100 	stfcss	f0, [r0], #-0
     354:	f5000000 			; <UNDEFINED> instruction: 0xf5000000
     358:	00000000 	andeq	r0, r0, r0
     35c:	0080fc09 	addeq	pc, r0, r9, lsl #24
     360:	00000400 	andeq	r0, r0, r0, lsl #8
     364:	00019d00 	andeq	r9, r1, r0, lsl #26
     368:	01a60800 			; <UNDEFINED> instruction: 0x01a60800
     36c:	24010000 	strcs	r0, [r1], #-0
     370:	0000002c 	andeq	r0, r0, ip, lsr #32
     374:	09005201 	stmdbeq	r0, {r0, r9, ip, lr}
     378:	00008100 	andeq	r8, r0, r0, lsl #2
     37c:	00000004 	andeq	r0, r0, r4
     380:	000001ba 			; <UNDEFINED> instruction: 0x000001ba
     384:	0001a607 	andeq	sl, r1, r7, lsl #12
     388:	2c250100 	stfcss	f0, [r5], #-0
     38c:	08000000 	stmdaeq	r0, {}	; <UNPREDICTABLE>
     390:	00000001 	andeq	r0, r0, r1
     394:	00807c0a 	addeq	r7, r0, sl, lsl #24
     398:	00057e00 	andeq	r7, r5, r0, lsl #28
     39c:	0001cd00 	andeq	ip, r1, r0, lsl #26
     3a0:	51010b00 	tstpl	r1, r0, lsl #22
     3a4:	0a003201 	beq	cbb0 <__bss_end__+0x2b70>
     3a8:	000080b8 	strheq	r8, [r0], -r8	; <UNPREDICTABLE>
     3ac:	0000057e 	andeq	r0, r0, lr, ror r5
     3b0:	000001e9 	andeq	r0, r0, r9, ror #3
     3b4:	0451010b 	ldrbeq	r0, [r1], #-267	; 0x10b
     3b8:	24007531 	strcs	r7, [r0], #-1329	; 0x531
     3bc:	0250010b 	subseq	r0, r0, #-1073741822	; 0xc0000002
     3c0:	0a000074 	beq	598 <_start-0x7a68>
     3c4:	000080dc 	ldrdeq	r8, [r0], -ip
     3c8:	0000057e 	andeq	r0, r0, lr, ror r5
     3cc:	000001fc 	strdeq	r0, [r0], -ip
     3d0:	0151010b 	cmpeq	r1, fp, lsl #2
     3d4:	fc0c0030 	stc2	0, cr0, [ip], {48}	; 0x30
     3d8:	7e000080 	cdpvc	0, 0, cr0, cr0, cr0, {4}
     3dc:	0b000005 	bleq	3f8 <_start-0x7c08>
     3e0:	30015101 	andcc	r5, r1, r1, lsl #2
     3e4:	0250010b 	subseq	r0, r0, #-1073741822	; 0xc0000002
     3e8:	00000074 	andeq	r0, r0, r4, ror r0
     3ec:	0218040d 	andseq	r0, r8, #218103808	; 0xd000000
     3f0:	2c0e0000 	stccs	0, cr0, [lr], {-0}
     3f4:	04000000 	streq	r0, [r0], #-0
     3f8:	00000076 	andeq	r0, r0, r6, ror r0
     3fc:	81182701 	tsthi	r8, r1, lsl #14
     400:	00b40000 	adcseq	r0, r4, r0
     404:	9c010000 	stcls	0, cr0, [r1], {-0}
     408:	000003b6 			; <UNDEFINED> instruction: 0x000003b6
     40c:	6e697005 	cdpvs	0, 6, cr7, cr9, cr5, {0}
     410:	2c270100 	stfcss	f0, [r7], #-0
     414:	1b000000 	blne	41c <_start-0x7be4>
     418:	06000001 	streq	r0, [r0], -r1
     41c:	006c6176 	rsbeq	r6, ip, r6, ror r1
     420:	002c2801 	eoreq	r2, ip, r1, lsl #16
     424:	07010000 	streq	r0, [r1, -r0]
     428:	000003fc 	strdeq	r0, [r0], -ip
     42c:	002c2b01 	eoreq	r2, ip, r1, lsl #22
     430:	01470000 	mrseq	r0, (UNDEF: 71)
     434:	be070000 	cdplt	0, 0, cr0, cr7, cr0, {0}
     438:	01000001 	tsteq	r0, r1
     43c:	0002122e 	andeq	r1, r2, lr, lsr #4
     440:	00017b00 	andeq	r7, r1, r0, lsl #22
     444:	01760800 	cmneq	r6, r0, lsl #16
     448:	35010000 	strcc	r0, [r1, #-0]
     44c:	0000002c 	andeq	r0, r0, ip, lsr #32
     450:	30095501 	andcc	r5, r9, r1, lsl #10
     454:	04000081 	streq	r0, [r0], #-129	; 0x81
     458:	95000000 	strls	r0, [r0, #-0]
     45c:	07000002 	streq	r0, [r0, -r2]
     460:	000001a6 	andeq	r0, r0, r6, lsr #3
     464:	002c2b01 	eoreq	r2, ip, r1, lsl #22
     468:	01b10000 			; <UNDEFINED> instruction: 0x01b10000
     46c:	09000000 	stmdbeq	r0, {}	; <UNPREDICTABLE>
     470:	00008134 	andeq	r8, r0, r4, lsr r1
     474:	00000004 	andeq	r0, r0, r4
     478:	000002b2 			; <UNDEFINED> instruction: 0x000002b2
     47c:	0001a607 	andeq	sl, r1, r7, lsl #12
     480:	2c2c0100 	stfcss	f0, [ip], #-0
     484:	c4000000 	strgt	r0, [r0], #-0
     488:	00000001 	andeq	r0, r0, r1
     48c:	00816c09 	addeq	r6, r1, r9, lsl #24
     490:	00000400 	andeq	r0, r0, r0, lsl #8
     494:	0002cf00 	andeq	ip, r2, r0, lsl #30
     498:	01a60700 			; <UNDEFINED> instruction: 0x01a60700
     49c:	38010000 	stmdacc	r1, {}	; <UNPREDICTABLE>
     4a0:	0000002c 	andeq	r0, r0, ip, lsr #32
     4a4:	000001d7 	ldrdeq	r0, [r0], -r7
     4a8:	81700900 	cmnhi	r0, r0, lsl #18
     4ac:	00040000 	andeq	r0, r4, r0
     4b0:	02ec0000 	rsceq	r0, ip, #0
     4b4:	a6070000 	strge	r0, [r7], -r0
     4b8:	01000001 	tsteq	r0, r1
     4bc:	00002c39 	andeq	r2, r0, r9, lsr ip
     4c0:	0001ea00 	andeq	lr, r1, r0, lsl #20
     4c4:	90090000 	andls	r0, r9, r0
     4c8:	04000081 	streq	r0, [r0], #-129	; 0x81
     4cc:	09000000 	stmdbeq	r0, {}	; <UNPREDICTABLE>
     4d0:	07000003 	streq	r0, [r0, -r3]
     4d4:	000001a6 	andeq	r0, r0, r6, lsr #3
     4d8:	002c3d01 	eoreq	r3, ip, r1, lsl #26
     4dc:	01fd0000 	mvnseq	r0, r0
     4e0:	09000000 	stmdbeq	r0, {}	; <UNPREDICTABLE>
     4e4:	00008194 	muleq	r0, r4, r1
     4e8:	00000004 	andeq	r0, r0, r4
     4ec:	00000326 	andeq	r0, r0, r6, lsr #6
     4f0:	0001a607 	andeq	sl, r1, r7, lsl #12
     4f4:	2c3e0100 	ldfcss	f0, [lr], #-0
     4f8:	10000000 	andne	r0, r0, r0
     4fc:	00000002 	andeq	r0, r0, r2
     500:	0081b009 	addeq	fp, r1, r9
     504:	00000400 	andeq	r0, r0, r0, lsl #8
     508:	00034100 	andeq	r4, r3, r0, lsl #2
     50c:	01a60800 			; <UNDEFINED> instruction: 0x01a60800
     510:	42010000 	andmi	r0, r1, #0
     514:	0000002c 	andeq	r0, r0, ip, lsr #32
     518:	09005201 	stmdbeq	r0, {r0, r9, ip, lr}
     51c:	000081b4 			; <UNDEFINED> instruction: 0x000081b4
     520:	00000004 	andeq	r0, r0, r4
     524:	0000035e 	andeq	r0, r0, lr, asr r3
     528:	0001a607 	andeq	sl, r1, r7, lsl #12
     52c:	2c430100 	stfcse	f0, [r3], {-0}
     530:	23000000 	movwcs	r0, #0
     534:	00000002 	andeq	r0, r0, r2
     538:	0081300a 	addeq	r3, r1, sl
     53c:	00057e00 	andeq	r7, r5, r0, lsl #28
     540:	00037100 	andeq	r7, r3, r0, lsl #2
     544:	51010b00 	tstpl	r1, r0, lsl #22
     548:	0a003101 	beq	c954 <__bss_end__+0x2914>
     54c:	0000816c 	andeq	r8, r0, ip, ror #2
     550:	0000057e 	andeq	r0, r0, lr, ror r5
     554:	0000038d 	andeq	r0, r0, sp, lsl #7
     558:	0451010b 	ldrbeq	r0, [r1], #-267	; 0x10b
     55c:	24007531 	strcs	r7, [r0], #-1329	; 0x531
     560:	0250010b 	subseq	r0, r0, #-1073741822	; 0xc0000002
     564:	0a000074 	beq	73c <_start-0x78c4>
     568:	00008190 	muleq	r0, r0, r1
     56c:	0000057e 	andeq	r0, r0, lr, ror r5
     570:	000003a0 	andeq	r0, r0, r0, lsr #7
     574:	0151010b 	cmpeq	r1, fp, lsl #2
     578:	b00c0030 	andlt	r0, ip, r0, lsr r0
     57c:	7e000081 	cdpvc	0, 0, cr0, cr0, cr1, {4}
     580:	0b000005 	bleq	59c <_start-0x7a64>
     584:	30015101 	andcc	r5, r1, r1, lsl #2
     588:	0250010b 	subseq	r0, r0, #-1073741822	; 0xc0000002
     58c:	00000074 	andeq	r0, r0, r4, ror r0
     590:	0001b104 	andeq	fp, r1, r4, lsl #2
     594:	cc470100 	stfgte	f0, [r7], {-0}
     598:	ac000081 	stcge	0, cr0, [r0], {129}	; 0x81
     59c:	01000000 	mrseq	r0, (UNDEF: 0)
     5a0:	00054b9c 	muleq	r5, ip, fp
     5a4:	69700500 	ldmdbvs	r0!, {r8, sl}^
     5a8:	4701006e 	strmi	r0, [r1, -lr, rrx]
     5ac:	0000002c 	andeq	r0, r0, ip, lsr #32
     5b0:	00000236 	andeq	r0, r0, r6, lsr r2
     5b4:	6c617606 	stclvs	6, cr7, [r1], #-24	; 0xffffffe8
     5b8:	2c480100 	stfcse	f0, [r8], {-0}
     5bc:	00000000 	andeq	r0, r0, r0
     5c0:	0003fc07 	andeq	pc, r3, r7, lsl #24
     5c4:	2c4b0100 	stfcse	f0, [fp], {-0}
     5c8:	7b000000 	blvc	5d0 <_start-0x7a30>
     5cc:	07000002 	streq	r0, [r0, -r2]
     5d0:	000001be 			; <UNDEFINED> instruction: 0x000001be
     5d4:	02124e01 	andseq	r4, r2, #1, 28
     5d8:	02af0000 	adceq	r0, pc, #0
     5dc:	760f0000 	strvc	r0, [pc], -r0
     5e0:	01000001 	tsteq	r0, r1
     5e4:	00002c55 	andeq	r2, r0, r5, asr ip
     5e8:	e4090000 	str	r0, [r9], #-0
     5ec:	04000081 	streq	r0, [r0], #-129	; 0x81
     5f0:	2d000000 	stccs	0, cr0, [r0, #-0]
     5f4:	07000004 	streq	r0, [r0, -r4]
     5f8:	000001a6 	andeq	r0, r0, r6, lsr #3
     5fc:	002c4b01 	eoreq	r4, ip, r1, lsl #22
     600:	02e50000 	rsceq	r0, r5, #0
     604:	09000000 	stmdbeq	r0, {}	; <UNPREDICTABLE>
     608:	000081e8 	andeq	r8, r0, r8, ror #3
     60c:	00000004 	andeq	r0, r0, r4
     610:	0000044a 	andeq	r0, r0, sl, asr #8
     614:	0001a607 	andeq	sl, r1, r7, lsl #12
     618:	2c4c0100 	stfcse	f0, [ip], {-0}
     61c:	f8000000 			; <UNDEFINED> instruction: 0xf8000000
     620:	00000002 	andeq	r0, r0, r2
     624:	00821809 	addeq	r1, r2, r9, lsl #16
     628:	00000400 	andeq	r0, r0, r0, lsl #8
     62c:	00046700 	andeq	r6, r4, r0, lsl #14
     630:	01a60700 			; <UNDEFINED> instruction: 0x01a60700
     634:	58010000 	stmdapl	r1, {}	; <UNPREDICTABLE>
     638:	0000002c 	andeq	r0, r0, ip, lsr #32
     63c:	0000030b 	andeq	r0, r0, fp, lsl #6
     640:	821c0900 	andshi	r0, ip, #0, 18
     644:	00040000 	andeq	r0, r4, r0
     648:	04840000 	streq	r0, [r4], #0
     64c:	a6070000 	strge	r0, [r7], -r0
     650:	01000001 	tsteq	r0, r1
     654:	00002c59 	andeq	r2, r0, r9, asr ip
     658:	00031e00 	andeq	r1, r3, r0, lsl #28
     65c:	3c090000 	stccc	0, cr0, [r9], {-0}
     660:	04000082 	streq	r0, [r0], #-130	; 0x82
     664:	a1000000 	mrsge	r0, (UNDEF: 0)
     668:	07000004 	streq	r0, [r0, -r4]
     66c:	000001a6 	andeq	r0, r0, r6, lsr #3
     670:	002c5d01 	eoreq	r5, ip, r1, lsl #26
     674:	03310000 	teqeq	r1, #0
     678:	09000000 	stmdbeq	r0, {}	; <UNPREDICTABLE>
     67c:	00008240 	andeq	r8, r0, r0, asr #4
     680:	00000004 	andeq	r0, r0, r4
     684:	000004be 			; <UNDEFINED> instruction: 0x000004be
     688:	0001a607 	andeq	sl, r1, r7, lsl #12
     68c:	2c5e0100 	ldfcse	f0, [lr], {-0}
     690:	44000000 	strmi	r0, [r0], #-0
     694:	00000003 	andeq	r0, r0, r3
     698:	00825c09 	addeq	r5, r2, r9, lsl #24
     69c:	00000400 	andeq	r0, r0, r0, lsl #8
     6a0:	0004d900 	andeq	sp, r4, r0, lsl #18
     6a4:	01a60800 			; <UNDEFINED> instruction: 0x01a60800
     6a8:	62010000 	andvs	r0, r1, #0
     6ac:	0000002c 	andeq	r0, r0, ip, lsr #32
     6b0:	09005201 	stmdbeq	r0, {r0, r9, ip, lr}
     6b4:	00008260 	andeq	r8, r0, r0, ror #4
     6b8:	00000004 	andeq	r0, r0, r4
     6bc:	000004f6 	strdeq	r0, [r0], -r6
     6c0:	0001a607 	andeq	sl, r1, r7, lsl #12
     6c4:	2c630100 	stfcse	f0, [r3], #-0
     6c8:	57000000 	strpl	r0, [r0, -r0]
     6cc:	00000003 	andeq	r0, r0, r3
     6d0:	0081e40a 	addeq	lr, r1, sl, lsl #8
     6d4:	00057e00 	andeq	r7, r5, r0, lsl #28
     6d8:	00050900 	andeq	r0, r5, r0, lsl #18
     6dc:	51010b00 	tstpl	r1, r0, lsl #22
     6e0:	0a003001 	beq	c6ec <__bss_end__+0x26ac>
     6e4:	00008218 	andeq	r8, r0, r8, lsl r2
     6e8:	0000057e 	andeq	r0, r0, lr, ror r5
     6ec:	00000522 	andeq	r0, r0, r2, lsr #10
     6f0:	0151010b 	cmpeq	r1, fp, lsl #2
     6f4:	50010b30 	andpl	r0, r1, r0, lsr fp
     6f8:	00007402 	andeq	r7, r0, r2, lsl #8
     6fc:	00823c0a 	addeq	r3, r2, sl, lsl #24
     700:	00057e00 	andeq	r7, r5, r0, lsl #28
     704:	00053500 	andeq	r3, r5, r0, lsl #10
     708:	51010b00 	tstpl	r1, r0, lsl #22
     70c:	0c003001 	stceq	0, cr3, [r0], {1}
     710:	0000825c 	andeq	r8, r0, ip, asr r2
     714:	0000057e 	andeq	r0, r0, lr, ror r5
     718:	0151010b 	cmpeq	r1, fp, lsl #2
     71c:	50010b30 	andpl	r0, r1, r0, lsr fp
     720:	00007402 	andeq	r7, r0, r2, lsl #8
     724:	01ab1000 			; <UNDEFINED> instruction: 0x01ab1000
     728:	05010000 	streq	r0, [r1, #-0]
     72c:	00000212 	andeq	r0, r0, r2, lsl r2
     730:	98680305 	stmdals	r8!, {r0, r2, r8, r9}^
     734:	8c100000 	ldchi	0, cr0, [r0], {-0}
     738:	01000001 	tsteq	r0, r1
     73c:	00021206 	andeq	r1, r2, r6, lsl #4
     740:	6c030500 	cfstr32vs	mvfx0, [r3], {-0}
     744:	10000098 	mulne	r0, r8, r0
     748:	00000196 	muleq	r0, r6, r1
     74c:	02120701 	andseq	r0, r2, #262144	; 0x40000
     750:	03050000 	movweq	r0, #20480	; 0x5000
     754:	00009870 	andeq	r9, r0, r0, ror r8
     758:	0001a011 	andeq	sl, r1, r1, lsl r0
     75c:	949d0200 	ldrls	r0, [sp], #512	; 0x200
     760:	12000005 	andne	r0, r0, #5
     764:	00000594 	muleq	r0, r4, r5
     768:	00002c12 	andeq	r2, r0, r2, lsl ip
     76c:	040d0000 	streq	r0, [sp], #-0
     770:	0000059a 	muleq	r0, sl, r5
     774:	01910013 	orrseq	r0, r1, r3, lsl r0
     778:	00040000 	andeq	r0, r4, r0
     77c:	000001f7 	strdeq	r0, [r0], -r7
     780:	01e70104 	mvneq	r0, r4, lsl #2
     784:	d9010000 	stmdble	r1, {}	; <UNPREDICTABLE>
     788:	52000001 	andpl	r0, r0, #1
     78c:	78000002 	stmdavc	r0, {r1}
     790:	58000082 	stmdapl	r0, {r1, r7}
     794:	ca000000 	bgt	79c <_start-0x7864>
     798:	02000001 	andeq	r0, r0, #1
     79c:	000001ca 	andeq	r0, r0, sl, asr #3
     7a0:	00302802 	eorseq	r2, r0, r2, lsl #16
     7a4:	48030000 	stmdami	r3, {}	; <UNPREDICTABLE>
     7a8:	04000002 	streq	r0, [r0], #-2
     7ac:	00470003 	subeq	r0, r7, r3
     7b0:	9b040000 	blls	1007b8 <__bss_end__+0xf6778>
     7b4:	47000002 	strmi	r0, [r0, -r2]
     7b8:	00000000 	andeq	r0, r0, r0
     7bc:	02040500 	andeq	r0, r4, #0, 10
     7c0:	0000024a 	andeq	r0, r0, sl, asr #4
     7c4:	00256202 	eoreq	r6, r5, r2, lsl #4
     7c8:	04060000 	streq	r0, [r6], #-0
     7cc:	746e6905 	strbtvc	r6, [lr], #-2309	; 0x905
     7d0:	07040700 	streq	r0, [r4, -r0, lsl #14]
     7d4:	0000003c 	andeq	r0, r0, ip, lsr r0
     7d8:	4b060107 	blmi	180bfc <__bss_end__+0x176bbc>
     7dc:	07000000 	streq	r0, [r0, -r0]
     7e0:	00f80502 	rscseq	r0, r8, r2, lsl #10
     7e4:	04070000 	streq	r0, [r7], #-0
     7e8:	00000505 	andeq	r0, r0, r5, lsl #10
     7ec:	05080700 	streq	r0, [r8, #-1792]	; 0x700
     7f0:	00000000 	andeq	r0, r0, r0
     7f4:	49080107 	stmdbmi	r8, {r0, r1, r2, r8}
     7f8:	07000000 	streq	r0, [r0, -r0]
     7fc:	00e50702 	rsceq	r0, r5, r2, lsl #14
     800:	04070000 	streq	r0, [r7], #-0
     804:	00003707 	andeq	r3, r0, r7, lsl #14
     808:	07080700 	streq	r0, [r8, -r0, lsl #14]
     80c:	00000032 	andeq	r0, r0, r2, lsr r0
     810:	6d070407 	cfstrsvs	mvf0, [r7, #-28]	; 0xffffffe4
     814:	08000001 	stmdaeq	r0, {r0}
     818:	0000a704 	andeq	sl, r0, r4, lsl #14
     81c:	08010700 	stmdaeq	r1, {r8, r9, sl}
     820:	00000052 	andeq	r0, r0, r2, asr r0
     824:	00b40408 	adcseq	r0, r4, r8, lsl #8
     828:	a7090000 	strge	r0, [r9, -r0]
     82c:	0a000000 	beq	834 <_start-0x77cc>
     830:	00000241 	andeq	r0, r0, r1, asr #4
     834:	00540601 	subseq	r0, r4, r1, lsl #12
     838:	82780000 	rsbshi	r0, r8, #0
     83c:	00580000 	subseq	r0, r8, r0
     840:	9c010000 	stcls	0, cr0, [r1], {-0}
     844:	00000143 	andeq	r0, r0, r3, asr #2
     848:	746d660b 	strbtvc	r6, [sp], #-1547	; 0x60b
     84c:	ae060100 	adfges	f0, f6, f0
     850:	02000000 	andeq	r0, r0, #0
     854:	0d0c7091 	stceq	0, cr7, [ip, #-580]	; 0xfffffdbc
     858:	00667562 	rsbeq	r7, r6, r2, ror #10
     85c:	01430801 	cmpeq	r3, r1, lsl #16
     860:	03050000 	movweq	r0, #20480	; 0x5000
     864:	00009c34 	andeq	r9, r0, r4, lsr ip
     868:	0002960e 	andeq	r9, r2, lr, lsl #12
     86c:	49090100 	stmdbmi	r9, {r8}
     870:	02000000 	andeq	r0, r0, #0
     874:	730f5c91 	movwvc	r5, #64657	; 0xfc91
     878:	0c01007a 	stceq	0, cr0, [r1], {122}	; 0x7a
     87c:	00000054 	andeq	r0, r0, r4, asr r0
     880:	0000036a 	andeq	r0, r0, sl, ror #6
     884:	0082a010 	addeq	sl, r2, r0, lsl r0
     888:	00017400 	andeq	r7, r1, r0, lsl #8
     88c:	00013600 	andeq	r3, r1, r0, lsl #12
     890:	53011100 	movwpl	r1, #4352	; 0x1100
     894:	114c9102 	cmpne	ip, r2, lsl #2
     898:	91035201 	tstls	r3, r1, lsl #4
     89c:	01110648 	tsteq	r1, r8, asr #12
     8a0:	000a0351 	andeq	r0, sl, r1, asr r3
     8a4:	50011104 	andpl	r1, r1, r4, lsl #2
     8a8:	00007402 	andeq	r7, r0, r2, lsl #8
     8ac:	0082b412 	addeq	fp, r2, r2, lsl r4
     8b0:	50011100 	andpl	r1, r1, r0, lsl #2
     8b4:	00007402 	andeq	r7, r0, r2, lsl #8
     8b8:	00a71300 	adceq	r1, r7, r0, lsl #6
     8bc:	01540000 	cmpeq	r4, r0
     8c0:	9a140000 	bls	5008c8 <__bss_end__+0x4f6888>
     8c4:	ff000000 			; <UNDEFINED> instruction: 0xff000000
     8c8:	54150003 	ldrpl	r0, [r5], #-3
     8cc:	63000000 	movwvs	r0, #0
     8d0:	16000001 	strne	r0, [r0], -r1
     8d4:	000000ae 	andeq	r0, r0, lr, lsr #1
     8d8:	02b51700 	adcseq	r1, r5, #0, 14
     8dc:	22040000 	andcs	r0, r4, #0
     8e0:	0000016e 	andeq	r0, r0, lr, ror #2
     8e4:	01540408 	cmpeq	r4, r8, lsl #8
     8e8:	3e180000 	cdpcc	0, 1, cr0, cr8, cr0, {0}
     8ec:	05000002 	streq	r0, [r0, #-2]
     8f0:	00005402 	andeq	r5, r0, r2, lsl #8
     8f4:	00a11600 	adceq	r1, r1, r0, lsl #12
     8f8:	54160000 	ldrpl	r0, [r6], #-0
     8fc:	16000000 	strne	r0, [r0], -r0
     900:	000000ae 	andeq	r0, r0, lr, lsr #1
     904:	00004916 	andeq	r4, r0, r6, lsl r9
     908:	ee000000 	cdp	0, 0, cr0, cr0, cr0, {0}
     90c:	04000000 	streq	r0, [r0], #-0
     910:	00032800 	andeq	r2, r3, r0, lsl #16
     914:	e7010400 	str	r0, [r1, -r0, lsl #8]
     918:	01000001 	tsteq	r0, r1
     91c:	000002a0 	andeq	r0, r0, r0, lsr #5
     920:	00000252 	andeq	r0, r0, r2, asr r2
     924:	000082d0 	ldrdeq	r8, [r0], -r0
     928:	00000034 	andeq	r0, r0, r4, lsr r0
     92c:	000002d0 	ldrdeq	r0, [r0], -r0	; <UNPREDICTABLE>
     930:	69050402 	stmdbvs	r5, {r1, sl}
     934:	0300746e 	movweq	r7, #1134	; 0x46e
     938:	003c0704 	eorseq	r0, ip, r4, lsl #14
     93c:	01030000 	mrseq	r0, (UNDEF: 3)
     940:	00004b06 	andeq	r4, r0, r6, lsl #22
     944:	05020300 	streq	r0, [r2, #-768]	; 0x300
     948:	000000f8 	strdeq	r0, [r0], -r8
     94c:	05050403 	streq	r0, [r5, #-1027]	; 0x403
     950:	03000000 	movweq	r0, #0
     954:	00000508 	andeq	r0, r0, r8, lsl #10
     958:	01030000 	mrseq	r0, (UNDEF: 3)
     95c:	00004908 	andeq	r4, r0, r8, lsl #18
     960:	07020300 	streq	r0, [r2, -r0, lsl #6]
     964:	000000e5 	andeq	r0, r0, r5, ror #1
     968:	37070403 	strcc	r0, [r7, -r3, lsl #8]
     96c:	03000000 	movweq	r0, #0
     970:	00320708 	eorseq	r0, r2, r8, lsl #14
     974:	04030000 	streq	r0, [r3], #-0
     978:	00016d07 	andeq	r6, r1, r7, lsl #26
     97c:	08010300 	stmdaeq	r1, {r8, r9}
     980:	00000052 	andeq	r0, r0, r2, asr r0
     984:	007f0404 	rsbseq	r0, pc, r4, lsl #8
     988:	72050000 	andvc	r0, r5, #0
     98c:	06000000 	streq	r0, [r0], -r0
     990:	000002ac 	andeq	r0, r0, ip, lsr #5
     994:	00250401 	eoreq	r0, r5, r1, lsl #8
     998:	82d00000 	sbcshi	r0, r0, #0
     99c:	00340000 	eorseq	r0, r4, r0
     9a0:	9c010000 	stcls	0, cr0, [r1], {-0}
     9a4:	000000ab 	andeq	r0, r0, fp, lsr #1
     9a8:	01007007 	tsteq	r0, r7
     9ac:	00007904 	andeq	r7, r0, r4, lsl #18
     9b0:	00039300 	andeq	r9, r3, r0, lsl #6
     9b4:	25080000 	strcs	r0, [r8, #-0]
     9b8:	ba000000 	blt	9c0 <_start-0x7640>
     9bc:	09000000 	stmdbeq	r0, {}	; <UNPREDICTABLE>
     9c0:	00000025 	andeq	r0, r0, r5, lsr #32
     9c4:	02ba0a00 	adcseq	r0, sl, #0, 20
     9c8:	1d020000 	stcne	0, cr0, [r2, #-0]
     9cc:	000000c5 	andeq	r0, r0, r5, asr #1
     9d0:	00ab0404 	adceq	r0, fp, r4, lsl #8
     9d4:	25080000 	strcs	r0, [r8, #-0]
     9d8:	da000000 	ble	9e0 <_start-0x7620>
     9dc:	09000000 	stmdbeq	r0, {}	; <UNPREDICTABLE>
     9e0:	00000079 	andeq	r0, r0, r9, ror r0
     9e4:	02b50b00 	adcseq	r0, r5, #0, 22
     9e8:	0c010000 	stceq	0, cr0, [r1], {-0}
     9ec:	000000eb 	andeq	r0, r0, fp, ror #1
     9f0:	98740305 	ldmdals	r4!, {r0, r2, r8, r9}^
     9f4:	04040000 	streq	r0, [r4], #-0
     9f8:	000000cb 	andeq	r0, r0, fp, asr #1
     9fc:	0006a100 	andeq	sl, r6, r0, lsl #2
     a00:	c1000400 	tstgt	r0, r0, lsl #8
     a04:	04000003 	streq	r0, [r0], #-3
     a08:	0001e701 	andeq	lr, r1, r1, lsl #14
     a0c:	02ff0100 	rscseq	r0, pc, #0, 2
     a10:	02520000 	subseq	r0, r2, #0
     a14:	83040000 	movwhi	r0, #16384	; 0x4000
     a18:	05240000 	streq	r0, [r4, #-0]!
     a1c:	036a0000 	cmneq	sl, #0
     a20:	04020000 	streq	r0, [r2], #-0
     a24:	746e6905 	strbtvc	r6, [lr], #-2309	; 0x905
     a28:	07040300 	streq	r0, [r4, -r0, lsl #6]
     a2c:	0000003c 	andeq	r0, r0, ip, lsr r0
     a30:	4b060103 	blmi	180e44 <__bss_end__+0x176e04>
     a34:	03000000 	movweq	r0, #0
     a38:	00f80502 	rscseq	r0, r8, r2, lsl #10
     a3c:	04030000 	streq	r0, [r3], #-0
     a40:	00000505 	andeq	r0, r0, r5, lsl #10
     a44:	05080300 	streq	r0, [r8, #-768]	; 0x300
     a48:	00000000 	andeq	r0, r0, r0
     a4c:	49080103 	stmdbmi	r8, {r0, r1, r8}
     a50:	03000000 	movweq	r0, #0
     a54:	00e50702 	rsceq	r0, r5, r2, lsl #14
     a58:	04030000 	streq	r0, [r3], #-0
     a5c:	00003707 	andeq	r3, r0, r7, lsl #14
     a60:	07080300 	streq	r0, [r8, -r0, lsl #6]
     a64:	00000032 	andeq	r0, r0, r2, lsr r0
     a68:	6d070403 	cfstrsvs	mvf0, [r7, #-12]
     a6c:	04000001 	streq	r0, [r0], #-1
     a70:	7a040504 	bvc	101e88 <__bss_end__+0xf7e48>
     a74:	03000000 	movweq	r0, #0
     a78:	00520801 	subseq	r0, r2, r1, lsl #16
     a7c:	04050000 	streq	r0, [r5], #-0
     a80:	00000087 	andeq	r0, r0, r7, lsl #1
     a84:	00007a06 	andeq	r7, r0, r6, lsl #20
     a88:	01ca0700 	biceq	r0, sl, r0, lsl #14
     a8c:	28020000 	stmdacs	r2, {}	; <UNPREDICTABLE>
     a90:	00000097 	muleq	r0, r7, r0
     a94:	00024808 	andeq	r4, r2, r8, lsl #16
     a98:	00040400 	andeq	r0, r4, r0, lsl #8
     a9c:	000000ae 	andeq	r0, r0, lr, lsr #1
     aa0:	00029b09 	andeq	r9, r2, r9, lsl #22
     aa4:	00007200 	andeq	r7, r0, r0, lsl #4
     aa8:	07000000 	streq	r0, [r0, -r0]
     aac:	0000024a 	andeq	r0, r0, sl, asr #4
     ab0:	008c6202 	addeq	r6, ip, r2, lsl #4
     ab4:	d40a0000 	strle	r0, [sl], #-0
     ab8:	01000002 	tsteq	r0, r2
     abc:	00002527 	andeq	r2, r0, r7, lsr #10
     ac0:	00830400 	addeq	r0, r3, r0, lsl #8
     ac4:	00001400 	andeq	r1, r0, r0, lsl #8
     ac8:	e09c0100 	adds	r0, ip, r0, lsl #2
     acc:	0b000000 	bleq	ad4 <_start-0x752c>
     ad0:	27010063 	strcs	r0, [r1, -r3, rrx]
     ad4:	00000025 	andeq	r0, r0, r5, lsr #32
     ad8:	000003b1 			; <UNDEFINED> instruction: 0x000003b1
     adc:	61700c00 	cmnvs	r0, r0, lsl #24
     ae0:	2e010064 	cdpcs	0, 0, cr0, cr1, cr4, {3}
     ae4:	00000074 	andeq	r0, r0, r4, ror r0
     ae8:	00008318 	andeq	r8, r0, r8, lsl r3
     aec:	0000002c 	andeq	r0, r0, ip, lsr #32
     af0:	01309c01 	teqeq	r0, r1, lsl #24
     af4:	700b0000 	andvc	r0, fp, r0
     af8:	742e0100 	strtvc	r0, [lr], #-256	; 0x100
     afc:	df000000 	svcle	0x00000000
     b00:	0d000003 	stceq	0, cr0, [r0, #-12]
     b04:	000002f1 	strdeq	r0, [r0], -r1
     b08:	00742e01 	rsbseq	r2, r4, r1, lsl #28
     b0c:	040a0000 	streq	r0, [sl], #-0
     b10:	1f0e0000 	svcne	0x000e0000
     b14:	01000003 	tsteq	r0, r3
     b18:	0000252e 	andeq	r2, r0, lr, lsr #10
     b1c:	0f520100 	svceq	0x00520100
     b20:	006e656c 	rsbeq	r6, lr, ip, ror #10
     b24:	00252f01 	eoreq	r2, r5, r1, lsl #30
     b28:	51010000 	mrspl	r0, (UNDEF: 1)
     b2c:	02cc0a00 	sbceq	r0, ip, #0, 20
     b30:	37010000 	strcc	r0, [r1, -r0]
     b34:	00000074 	andeq	r0, r0, r4, ror r0
     b38:	00008344 	andeq	r8, r0, r4, asr #6
     b3c:	00000040 	andeq	r0, r0, r0, asr #32
     b40:	019c9c01 	orrseq	r9, ip, r1, lsl #24
     b44:	640b0000 	strvs	r0, [fp], #-0
     b48:	01007473 	tsteq	r0, r3, ror r4
     b4c:	00007437 	andeq	r7, r0, r7, lsr r4
     b50:	00042b00 	andeq	r2, r4, r0, lsl #22
     b54:	006e0b00 	rsbeq	r0, lr, r0, lsl #22
     b58:	00253701 	eoreq	r3, r5, r1, lsl #14
     b5c:	04630000 	strbteq	r0, [r3], #-0
     b60:	700b0000 	andvc	r0, fp, r0
     b64:	74370100 	ldrtvc	r0, [r7], #-256	; 0x100
     b68:	84000000 	strhi	r0, [r0], #-0
     b6c:	0d000004 	stceq	0, cr0, [r0, #-16]
     b70:	000003fc 	strdeq	r0, [r0], -ip
     b74:	00743701 	rsbseq	r3, r4, r1, lsl #14
     b78:	04ba0000 	ldrteq	r0, [sl], #0
     b7c:	6c100000 	ldcvs	0, cr0, [r0], {-0}
     b80:	01006e65 	tsteq	r0, r5, ror #28
     b84:	00002539 	andeq	r2, r0, r9, lsr r5
     b88:	0004d800 	andeq	sp, r4, r0, lsl #16
     b8c:	00730f00 	rsbseq	r0, r3, r0, lsl #30
     b90:	00743d01 	rsbseq	r3, r4, r1, lsl #26
     b94:	50010000 	andpl	r0, r1, r0
     b98:	033c0a00 	teqeq	ip, #0, 20
     b9c:	47010000 	strmi	r0, [r1, -r0]
     ba0:	00000074 	andeq	r0, r0, r4, ror r0
     ba4:	00008384 	andeq	r8, r0, r4, lsl #7
     ba8:	000001a8 	andeq	r0, r0, r8, lsr #3
     bac:	02df9c01 	sbcseq	r9, pc, #256	; 0x100
     bb0:	f10d0000 			; <UNDEFINED> instruction: 0xf10d0000
     bb4:	01000002 	tsteq	r0, r2
     bb8:	00002c47 	andeq	r2, r0, r7, asr #24
     bbc:	0004ff00 	andeq	pc, r4, r0, lsl #30
     bc0:	73640b00 	cmnvc	r4, #0, 22
     bc4:	47010074 	smlsdxmi	r1, r4, r0, r0
     bc8:	00000074 	andeq	r0, r0, r4, ror r0
     bcc:	0000052d 	andeq	r0, r0, sp, lsr #10
     bd0:	01006e0b 	tsteq	r0, fp, lsl #28
     bd4:	00002547 	andeq	r2, r0, r7, asr #10
     bd8:	00059b00 	andeq	r9, r5, r0, lsl #22
     bdc:	61760b00 	cmnvs	r6, r0, lsl #22
     be0:	4701006c 	strmi	r0, [r1, -ip, rrx]
     be4:	00000025 	andeq	r0, r0, r5, lsr #32
     be8:	000005c7 	andeq	r0, r0, r7, asr #11
     bec:	00031f0d 	andeq	r1, r3, sp, lsl #30
     bf0:	25470100 	strbcs	r0, [r7, #-256]	; 0x100
     bf4:	46000000 	strmi	r0, [r0], -r0
     bf8:	0e000006 	cdpeq	0, 0, cr0, cr0, cr6, {0}
     bfc:	000002f6 	strdeq	r0, [r0], -r6
     c00:	00254701 	eoreq	r4, r5, r1, lsl #14
     c04:	91020000 	mrsls	r0, (UNDEF: 2)
     c08:	75620f04 	strbvc	r0, [r2, #-3844]!	; 0xf04
     c0c:	4c010066 	stcmi	0, cr0, [r1], {102}	; 0x66
     c10:	000002df 	ldrdeq	r0, [r0], -pc	; <UNPREDICTABLE>
     c14:	7fa89103 	svcvc	0x00a89103
     c18:	01007010 	tsteq	r0, r0, lsl r0
     c1c:	0000744c 	andeq	r7, r0, ip, asr #8
     c20:	00067000 	andeq	r7, r6, r0
     c24:	00751000 	rsbseq	r1, r5, r0
     c28:	002c4d01 	eoreq	r4, ip, r1, lsl #26
     c2c:	072c0000 	streq	r0, [ip, -r0]!
     c30:	dc110000 	ldcle	0, cr0, [r1], {-0}
     c34:	ff000002 			; <UNDEFINED> instruction: 0xff000002
     c38:	05000002 	streq	r0, [r0, #-2]
     c3c:	0099f803 	addseq	pc, r9, r3, lsl #16
     c40:	83f01200 	mvnshi	r1, #0, 4
     c44:	00740000 	rsbseq	r0, r4, r0
     c48:	02610000 	rsbeq	r0, r1, #0
     c4c:	c6130000 	ldrgt	r0, [r3], -r0
     c50:	01000002 	tsteq	r0, r2
     c54:	00002c52 	andeq	r2, r0, r2, asr ip
     c58:	00083100 	andeq	r3, r8, r0, lsl #2
     c5c:	c4140000 	ldrgt	r0, [r4], #-0
     c60:	80000084 	andhi	r0, r0, r4, lsl #1
     c64:	15000006 	strne	r0, [r0, #-6]
     c68:	000084e0 	andeq	r8, r0, r0, ror #9
     c6c:	00000687 	andeq	r0, r0, r7, lsl #13
     c70:	000002a3 	andeq	r0, r0, r3, lsr #5
     c74:	02530116 	subseq	r0, r3, #-2147483643	; 0x80000005
     c78:	01167508 	tsteq	r6, r8, lsl #10
     c7c:	f8030552 			; <UNDEFINED> instruction: 0xf8030552
     c80:	16000099 			; <UNDEFINED> instruction: 0x16000099
     c84:	03055101 	movweq	r5, #20737	; 0x5101
     c88:	00009a30 	andeq	r9, r0, r0, lsr sl
     c8c:	05500116 	ldrbeq	r0, [r0, #-278]	; 0x116
     c90:	009a1c03 	addseq	r1, sl, r3, lsl #24
     c94:	7d021600 	stcvc	6, cr1, [r2, #-0]
     c98:	44030500 	strmi	r0, [r3], #-1280	; 0x500
     c9c:	0000009a 	muleq	r0, sl, r0
     ca0:	0084e414 	addeq	lr, r4, r4, lsl r4
     ca4:	00069d00 	andeq	r9, r6, r0, lsl #26
     ca8:	84f01500 	ldrbthi	r1, [r0], #1280	; 0x500
     cac:	00e00000 	rsceq	r0, r0, r0
     cb0:	02c10000 	sbceq	r0, r1, #0
     cb4:	01160000 	tsteq	r6, r0
     cb8:	a0910351 	addsge	r0, r1, r1, asr r3
     cbc:	0417007f 	ldreq	r0, [r7], #-127	; 0x7f
     cc0:	30000085 	andcc	r0, r0, r5, lsl #1
     cc4:	16000001 	strne	r0, [r0], -r1
     cc8:	91035301 	tstls	r3, r1, lsl #6
     ccc:	01167fa0 	tsteq	r6, r0, lsr #31
     cd0:	00740251 	rsbseq	r0, r4, r1, asr r2
     cd4:	02500116 	subseq	r0, r0, #-2147483643	; 0x80000005
     cd8:	00000075 	andeq	r0, r0, r5, ror r0
     cdc:	00007a18 	andeq	r7, r0, r8, lsl sl
     ce0:	0002ef00 	andeq	lr, r2, r0, lsl #30
     ce4:	006b1900 	rsbeq	r1, fp, r0, lsl #18
     ce8:	003f0000 	eorseq	r0, pc, r0
     cec:	00007a18 	andeq	r7, r0, r8, lsl sl
     cf0:	0002ff00 	andeq	pc, r2, r0, lsl #30
     cf4:	006b1900 	rsbeq	r1, fp, r0, lsl #18
     cf8:	00040000 	andeq	r0, r4, r0
     cfc:	0002ef06 	andeq	lr, r2, r6, lsl #30
     d00:	03101a00 	tsteq	r0, #0, 20
     d04:	1f010000 	svcne	0x00010000
     d08:	0000852c 	andeq	r8, r0, ip, lsr #10
     d0c:	00000068 	andeq	r0, r0, r8, rrx
     d10:	03929c01 	orrseq	r9, r2, #256	; 0x100
     d14:	250d0000 	strcs	r0, [sp, #-0]
     d18:	01000003 	tsteq	r0, r3
     d1c:	0003a11f 	andeq	sl, r3, pc, lsl r1
     d20:	00085d00 	andeq	r5, r8, r0, lsl #26
     d24:	02e90d00 	rsceq	r0, r9, #0, 26
     d28:	1f010000 	svcne	0x00010000
     d2c:	000003b6 			; <UNDEFINED> instruction: 0x000003b6
     d30:	00000889 	andeq	r0, r0, r9, lsl #17
     d34:	0002dc11 	andeq	sp, r2, r1, lsl ip
     d38:	0003cc00 	andeq	ip, r3, r0, lsl #24
     d3c:	00030500 	andeq	r0, r3, r0, lsl #10
     d40:	1400009a 	strne	r0, [r0], #-154	; 0x9a
     d44:	00008540 	andeq	r8, r0, r0, asr #10
     d48:	00000680 	andeq	r0, r0, r0, lsl #13
     d4c:	00855c15 	addeq	r5, r5, r5, lsl ip
     d50:	00068700 	andeq	r8, r6, r0, lsl #14
     d54:	00038800 	andeq	r8, r3, r0, lsl #16
     d58:	53011600 	movwpl	r1, #5632	; 0x1600
     d5c:	16200802 	strtne	r0, [r0], -r2, lsl #16
     d60:	03055201 	movweq	r5, #20993	; 0x5201
     d64:	00009a00 	andeq	r9, r0, r0, lsl #20
     d68:	05510116 	ldrbeq	r0, [r1, #-278]	; 0x116
     d6c:	009a3003 	addseq	r3, sl, r3
     d70:	50011600 	andpl	r1, r1, r0, lsl #12
     d74:	9a1c0305 	bls	701990 <__bss_end__+0x6f7950>
     d78:	02160000 	andseq	r0, r6, #0
     d7c:	0305007d 	movweq	r0, #20605	; 0x507d
     d80:	00009a6c 	andeq	r9, r0, ip, ror #20
     d84:	85601400 	strbhi	r1, [r0, #-1024]!	; 0x400
     d88:	069d0000 	ldreq	r0, [sp], r0
     d8c:	1b000000 	blne	d94 <_start-0x726c>
     d90:	00000025 	andeq	r0, r0, r5, lsr #32
     d94:	000003a1 	andeq	r0, r0, r1, lsr #7
     d98:	0000251c 	andeq	r2, r0, ip, lsl r5
     d9c:	04050000 	streq	r0, [r5], #-0
     da0:	00000392 	muleq	r0, r2, r3
     da4:	0000251b 	andeq	r2, r0, fp, lsl r5
     da8:	0003b600 	andeq	fp, r3, r0, lsl #12
     dac:	00811c00 	addeq	r1, r1, r0, lsl #24
     db0:	05000000 	streq	r0, [r0, #-0]
     db4:	0003a704 	andeq	sl, r3, r4, lsl #14
     db8:	007a1800 	rsbseq	r1, sl, r0, lsl #16
     dbc:	03cc0000 	biceq	r0, ip, #0
     dc0:	6b190000 	blvs	640dc8 <__bss_end__+0x636d88>
     dc4:	0e000000 	cdpeq	0, 0, cr0, cr0, cr0, {0}
     dc8:	03bc0600 			; <UNDEFINED> instruction: 0x03bc0600
     dcc:	3e1d0000 	cdpcc	0, 1, cr0, cr13, cr0, {0}
     dd0:	01000002 	tsteq	r0, r2
     dd4:	0000257d 	andeq	r2, r0, sp, ror r5
     dd8:	00859400 	addeq	r9, r5, r0, lsl #8
     ddc:	00029400 	andeq	r9, r2, r0, lsl #8
     de0:	459c0100 	ldrmi	r0, [ip, #256]	; 0x100
     de4:	0b000006 	bleq	e04 <_start-0x71fc>
     de8:	00667562 	rsbeq	r7, r6, r2, ror #10
     dec:	00747d01 	rsbseq	r7, r4, r1, lsl #26
     df0:	08b50000 	ldmeq	r5!, {}	; <UNPREDICTABLE>
     df4:	6e0b0000 	cdpvs	0, 0, cr0, cr11, cr0, {0}
     df8:	257d0100 	ldrbcs	r0, [sp, #-256]!	; 0x100
     dfc:	e1000000 	mrs	r0, (UNDEF: 0)
     e00:	0b000008 	bleq	e28 <_start-0x71d8>
     e04:	00746d66 	rsbseq	r6, r4, r6, ror #26
     e08:	00817d01 	addeq	r7, r1, r1, lsl #26
     e0c:	090f0000 	stmdbeq	pc, {}	; <UNPREDICTABLE>
     e10:	960d0000 	strls	r0, [sp], -r0
     e14:	01000002 	tsteq	r0, r2
     e18:	0000ae7d 	andeq	sl, r0, sp, ror lr
     e1c:	00094300 	andeq	r4, r9, r0, lsl #6
     e20:	00701000 	rsbseq	r1, r0, r0
     e24:	00747e01 	rsbseq	r7, r4, r1, lsl #28
     e28:	09560000 	ldmdbeq	r6, {}^	; <UNPREDICTABLE>
     e2c:	65100000 	ldrvs	r0, [r0, #-0]
     e30:	747e0100 	ldrbtvc	r0, [lr], #-256	; 0x100
     e34:	d4000000 	strle	r0, [r0], #-0
     e38:	11000009 	tstne	r0, r9
     e3c:	000002dc 	ldrdeq	r0, [r0], -ip
     e40:	00000655 	andeq	r0, r0, r5, asr r6
     e44:	9a100305 	bls	401a60 <__bss_end__+0x3f7a20>
     e48:	001e0000 	andseq	r0, lr, r0
     e4c:	10000000 	andne	r0, r0, r0
     e50:	8b010073 	blhi	41024 <__bss_end__+0x36fe4>
     e54:	00000074 	andeq	r0, r0, r4, ror r0
     e58:	000009fb 	strdeq	r0, [r0], -fp
     e5c:	6d756e0f 	ldclvs	14, cr6, [r5, #-60]!	; 0xffffffc4
     e60:	5a8b0100 	bpl	fe2c1268 <__bss_end__+0xfe2b7228>
     e64:	03000006 	movweq	r0, #6
     e68:	137ed891 	cmnne	lr, #9502720	; 0x910000
     e6c:	0000031f 	andeq	r0, r0, pc, lsl r3
     e70:	002c8c01 	eoreq	r8, ip, r1, lsl #24
     e74:	0a500000 	beq	1400e7c <__bss_end__+0x13f6e3c>
     e78:	18150000 	ldmdane	r5, {}	; <UNPREDICTABLE>
     e7c:	b9000086 	stmdblt	r0, {r1, r2, r7}
     e80:	91000000 	mrsls	r0, (UNDEF: 0)
     e84:	16000004 	strne	r0, [r0], -r4
     e88:	75025001 	strvc	r5, [r2, #-1]
     e8c:	2c140000 	ldccs	0, cr0, [r4], {-0}
     e90:	80000086 	andhi	r0, r0, r6, lsl #1
     e94:	15000006 	strne	r0, [r0, #-6]
     e98:	00008648 	andeq	r8, r0, r8, asr #12
     e9c:	00000687 	andeq	r0, r0, r7, lsl #13
     ea0:	000004d3 	ldrdeq	r0, [r0], -r3
     ea4:	02530116 	subseq	r0, r3, #-2147483643	; 0x80000005
     ea8:	01169208 	tsteq	r6, r8, lsl #4
     eac:	10030552 	andne	r0, r3, r2, asr r5
     eb0:	1600009a 			; <UNDEFINED> instruction: 0x1600009a
     eb4:	03055101 	movweq	r5, #20737	; 0x5101
     eb8:	00009a30 	andeq	r9, r0, r0, lsr sl
     ebc:	05500116 	ldrbeq	r0, [r0, #-278]	; 0x116
     ec0:	009a1c03 	addseq	r1, sl, r3, lsl #24
     ec4:	7d021600 	stcvc	6, cr1, [r2, #-0]
     ec8:	74030500 	strvc	r0, [r3], #-1280	; 0x500
     ecc:	0000009a 	muleq	r0, sl, r0
     ed0:	00864c14 	addeq	r4, r6, r4, lsl ip
     ed4:	00069d00 	andeq	r9, r6, r0, lsl #26
     ed8:	86bc1400 	ldrthi	r1, [ip], r0, lsl #8
     edc:	06800000 	streq	r0, [r0], r0
     ee0:	d0150000 	andsle	r0, r5, r0
     ee4:	87000086 	strhi	r0, [r0, -r6, lsl #1]
     ee8:	14000006 	strne	r0, [r0], #-6
     eec:	16000005 	strne	r0, [r0], -r5
     ef0:	08025301 	stmdaeq	r2, {r0, r8, r9, ip, lr}
     ef4:	52011698 	andpl	r1, r1, #152, 12	; 0x9800000
     ef8:	9a100305 	bls	401b14 <__bss_end__+0x3f7ad4>
     efc:	01160000 	tsteq	r6, r0
     f00:	30030551 	andcc	r0, r3, r1, asr r5
     f04:	1600009a 			; <UNDEFINED> instruction: 0x1600009a
     f08:	03055001 	movweq	r5, #20481	; 0x5001
     f0c:	00009a80 	andeq	r9, r0, r0, lsl #21
     f10:	86d41400 	ldrbhi	r1, [r4], r0, lsl #8
     f14:	069d0000 	ldreq	r0, [sp], r0
     f18:	f8150000 			; <UNDEFINED> instruction: 0xf8150000
     f1c:	9c000086 	stcls	0, cr0, [r0], {134}	; 0x86
     f20:	4a000001 	bmi	f2c <_start-0x70d4>
     f24:	16000005 	strne	r0, [r0], -r5
     f28:	08025201 	stmdaeq	r2, {r0, r9, ip, lr}
     f2c:	51011680 	smlabbpl	r1, r0, r6, r1
     f30:	7ed09103 	atnvcs	f1, f3
     f34:	01500116 	cmpeq	r0, r6, lsl r1
     f38:	7d02163a 	stcvc	6, cr1, [r2, #-232]	; 0xffffff18
     f3c:	16310104 	ldrtne	r0, [r1], -r4, lsl #2
     f40:	02007d02 	andeq	r7, r0, #2, 26	; 0x80
     f44:	15000077 	strne	r0, [r0, #-119]	; 0x77
     f48:	0000871c 	andeq	r8, r0, ip, lsl r7
     f4c:	0000019c 	muleq	r0, ip, r1
     f50:	00000578 	andeq	r0, r0, r8, ror r5
     f54:	02520116 	subseq	r0, r2, #-2147483643	; 0x80000005
     f58:	01168008 	tsteq	r6, r8
     f5c:	d0910351 	addsle	r0, r1, r1, asr r3
     f60:	5001167e 	andpl	r1, r1, lr, ror r6
     f64:	02163a01 	andseq	r3, r6, #4096	; 0x1000
     f68:	7b02047d 	blvc	82164 <__bss_end__+0x78124>
     f6c:	7d021600 	stcvc	6, cr1, [r2, #-0]
     f70:	00770200 	rsbseq	r0, r7, r0, lsl #4
     f74:	87401500 	strbhi	r1, [r0, -r0, lsl #10]
     f78:	019c0000 	orrseq	r0, ip, r0
     f7c:	05a60000 	streq	r0, [r6, #0]!
     f80:	01160000 	tsteq	r6, r0
     f84:	80080252 	andhi	r0, r8, r2, asr r2
     f88:	03510116 	cmpeq	r1, #-2147483643	; 0x80000005
     f8c:	167ed091 			; <UNDEFINED> instruction: 0x167ed091
     f90:	40015001 	andmi	r5, r1, r1
     f94:	047d0216 	ldrbteq	r0, [sp], #-534	; 0x216
     f98:	16007b02 	strne	r7, [r0], -r2, lsl #22
     f9c:	02007d02 	andeq	r7, r0, #2, 26	; 0x80
     fa0:	15000077 	strne	r0, [r0, #-119]	; 0x77
     fa4:	00008764 	andeq	r8, r0, r4, ror #14
     fa8:	0000019c 	muleq	r0, ip, r1
     fac:	000005d4 	ldrdeq	r0, [r0], -r4
     fb0:	02520116 	subseq	r0, r2, #-2147483643	; 0x80000005
     fb4:	01168008 	tsteq	r6, r8
     fb8:	d0910351 	addsle	r0, r1, r1, asr r3
     fbc:	5001167e 	andpl	r1, r1, lr, ror r6
     fc0:	02163201 	andseq	r3, r6, #268435456	; 0x10000000
     fc4:	7b02047d 	blvc	821c0 <__bss_end__+0x78180>
     fc8:	7d021600 	stcvc	6, cr1, [r2, #-0]
     fcc:	00770200 	rsbseq	r0, r7, r0, lsl #4
     fd0:	87941500 	ldrhi	r1, [r4, r0, lsl #10]
     fd4:	019c0000 	orrseq	r0, ip, r0
     fd8:	06020000 	streq	r0, [r2], -r0
     fdc:	01160000 	tsteq	r6, r0
     fe0:	80080252 	andhi	r0, r8, r2, asr r2
     fe4:	03510116 	cmpeq	r1, #-2147483643	; 0x80000005
     fe8:	167ed091 			; <UNDEFINED> instruction: 0x167ed091
     fec:	38015001 	stmdacc	r1, {r0, ip, lr}
     ff0:	047d0216 	ldrbteq	r0, [sp], #-534	; 0x216
     ff4:	16007b02 	strne	r7, [r0], -r2, lsl #22
     ff8:	02007d02 	andeq	r7, r0, #2, 26	; 0x80
     ffc:	14000077 	strne	r0, [r0], #-119	; 0x77
    1000:	0000879c 	muleq	r0, ip, r7
    1004:	00000680 	andeq	r0, r0, r0, lsl #13
    1008:	0087b815 	addeq	fp, r7, r5, lsl r8
    100c:	00068700 	andeq	r8, r6, r0, lsl #14
    1010:	00063a00 	andeq	r3, r6, r0, lsl #20
    1014:	53011600 	movwpl	r1, #5632	; 0x1600
    1018:	16b90802 	ldrtne	r0, [r9], r2, lsl #16
    101c:	03055201 	movweq	r5, #20993	; 0x5201
    1020:	00009a10 	andeq	r9, r0, r0, lsl sl
    1024:	05510116 	ldrbeq	r0, [r1, #-278]	; 0x116
    1028:	009a3003 	addseq	r3, sl, r3
    102c:	50011600 	andpl	r1, r1, r0, lsl #12
    1030:	9aa80305 	bls	fea01c4c <__bss_end__+0xfe9f7c0c>
    1034:	14000000 	strne	r0, [r0], #-0
    1038:	000087bc 			; <UNDEFINED> instruction: 0x000087bc
    103c:	0000069d 	muleq	r0, sp, r6
    1040:	7a180000 	bvc	601048 <__bss_end__+0x5f7008>
    1044:	55000000 	strpl	r0, [r0, #-0]
    1048:	19000006 	stmdbne	r0, {r1, r2}
    104c:	0000006b 	andeq	r0, r0, fp, rrx
    1050:	45060009 	strmi	r0, [r6, #-9]
    1054:	18000006 	stmdane	r0, {r1, r2}
    1058:	0000007a 	andeq	r0, r0, sl, ror r0
    105c:	0000066a 	andeq	r0, r0, sl, ror #12
    1060:	00006b19 	andeq	r6, r0, r9, lsl fp
    1064:	1f007f00 	svcne	0x00007f00
    1068:	000002ba 			; <UNDEFINED> instruction: 0x000002ba
    106c:	03a11d03 			; <UNDEFINED> instruction: 0x03a11d03
    1070:	b51f0000 	ldrlt	r0, [pc, #-0]	; 1078 <_start-0x6f88>
    1074:	03000002 	movweq	r0, #2
    1078:	0003b622 	andeq	fp, r3, r2, lsr #12
    107c:	032d2000 	teqeq	sp, #0
    1080:	1e030000 	cdpne	0, 0, cr0, cr3, cr0, {0}
    1084:	00024121 	andeq	r4, r2, r1, lsr #2
    1088:	25290300 	strcs	r0, [r9, #-768]!	; 0x300
    108c:	9d000000 	stcls	0, cr0, [r0, #-0]
    1090:	1c000006 	stcne	0, cr0, [r0], {6}
    1094:	00000081 	andeq	r0, r0, r1, lsl #1
    1098:	61200022 	teqvs	r0, r2, lsr #32
    109c:	03000000 	movweq	r0, #0
    10a0:	00ff0066 	rscseq	r0, pc, r6, rrx
    10a4:	00040000 	andeq	r0, r4, r0
    10a8:	0000059d 	muleq	r0, sp, r5
    10ac:	01e70104 	mvneq	r0, r4, lsl #2
    10b0:	4c010000 	stcmi	0, cr0, [r1], {-0}
    10b4:	52000003 	andpl	r0, r0, #3
    10b8:	28000002 	stmdacs	r0, {r1}
    10bc:	28000088 	stmdacs	r0, {r3, r7}
    10c0:	50000000 	andpl	r0, r0, r0
    10c4:	02000005 	andeq	r0, r0, #5
    10c8:	6e690504 	cdpvs	5, 6, cr0, cr9, cr4, {0}
    10cc:	04030074 	streq	r0, [r3], #-116	; 0x74
    10d0:	00003c07 	andeq	r3, r0, r7, lsl #24
    10d4:	06010300 	streq	r0, [r1], -r0, lsl #6
    10d8:	0000004b 	andeq	r0, r0, fp, asr #32
    10dc:	f8050203 			; <UNDEFINED> instruction: 0xf8050203
    10e0:	03000000 	movweq	r0, #0
    10e4:	00050504 	andeq	r0, r5, r4, lsl #10
    10e8:	08030000 	stmdaeq	r3, {}	; <UNPREDICTABLE>
    10ec:	00000005 	andeq	r0, r0, r5
    10f0:	08010300 	stmdaeq	r1, {r8, r9}
    10f4:	00000049 	andeq	r0, r0, r9, asr #32
    10f8:	e5070203 	str	r0, [r7, #-515]	; 0x203
    10fc:	03000000 	movweq	r0, #0
    1100:	00370704 	eorseq	r0, r7, r4, lsl #14
    1104:	08030000 	stmdaeq	r3, {}	; <UNPREDICTABLE>
    1108:	00003207 	andeq	r3, r0, r7, lsl #4
    110c:	07040300 	streq	r0, [r4, -r0, lsl #6]
    1110:	0000016d 	andeq	r0, r0, sp, ror #2
    1114:	52080103 	andpl	r0, r8, #-1073741824	; 0xc0000000
    1118:	04000000 	streq	r0, [r0], #-0
    111c:	00007f04 	andeq	r7, r0, r4, lsl #30
    1120:	00720500 	rsbseq	r0, r2, r0, lsl #10
    1124:	61060000 	mrsvs	r0, (UNDEF: 6)
    1128:	01000000 	mrseq	r0, (UNDEF: 0)
    112c:	00882804 	addeq	r2, r8, r4, lsl #16
    1130:	00002800 	andeq	r2, r0, r0, lsl #16
    1134:	ca9c0100 	bgt	fe70153c <__bss_end__+0xfe6f74fc>
    1138:	07000000 	streq	r0, [r0, -r0]
    113c:	0000883c 	andeq	r8, r0, ip, lsr r8
    1140:	000000ac 	andeq	r0, r0, ip, lsr #1
    1144:	05500108 	ldrbeq	r0, [r0, #-264]	; 0x108
    1148:	009ae003 	addseq	lr, sl, r3
    114c:	44090000 	strmi	r0, [r9], #-0
    1150:	ea000088 	b	1378 <_start-0x6c88>
    1154:	c0000000 	andgt	r0, r0, r0
    1158:	08000000 	stmdaeq	r0, {}	; <UNPREDICTABLE>
    115c:	08025001 	stmdaeq	r2, {r0, ip, lr}
    1160:	480a0064 	stmdami	sl, {r2, r5, r6}
    1164:	fb000088 	blx	138e <_start-0x6c72>
    1168:	00000000 	andeq	r0, r0, r0
    116c:	0000250b 	andeq	r2, r0, fp, lsl #10
    1170:	0000d900 	andeq	sp, r0, r0, lsl #18
    1174:	00790c00 	rsbseq	r0, r9, r0, lsl #24
    1178:	0d000000 	stceq	0, cr0, [r0, #-0]
    117c:	000002b5 			; <UNDEFINED> instruction: 0x000002b5
    1180:	00e42202 	rsceq	r2, r4, r2, lsl #4
    1184:	04040000 	streq	r0, [r4], #-0
    1188:	000000ca 	andeq	r0, r0, sl, asr #1
    118c:	0003660e 	andeq	r6, r3, lr, lsl #12
    1190:	fb500200 	blx	140199a <__bss_end__+0x13f795a>
    1194:	0c000000 	stceq	0, cr0, [r0], {-0}
    1198:	0000002c 	andeq	r0, r0, ip, lsr #32
    119c:	03410f00 	movteq	r0, #7936	; 0x1f00
    11a0:	63020000 	movwvs	r0, #8192	; 0x2000
    11a4:	0002dd00 	andeq	sp, r2, r0, lsl #26
    11a8:	67000400 	strvs	r0, [r0, -r0, lsl #8]
    11ac:	04000006 	streq	r0, [r0], #-6
    11b0:	0001e701 	andeq	lr, r1, r1, lsl #14
    11b4:	04510100 	ldrbeq	r0, [r1], #-256	; 0x100
    11b8:	02520000 	subseq	r0, r2, #0
    11bc:	88500000 	ldmdahi	r0, {}^	; <UNPREDICTABLE>
    11c0:	00b00000 	adcseq	r0, r0, r0
    11c4:	05e70000 	strbeq	r0, [r7, #0]!
    11c8:	04020000 	streq	r0, [r2], #-0
    11cc:	746e6905 	strbtvc	r6, [lr], #-2309	; 0x905
    11d0:	07040300 	streq	r0, [r4, -r0, lsl #6]
    11d4:	0000003c 	andeq	r0, r0, ip, lsr r0
    11d8:	4b060103 	blmi	1815ec <__bss_end__+0x1775ac>
    11dc:	03000000 	movweq	r0, #0
    11e0:	00f80502 	rscseq	r0, r8, r2, lsl #10
    11e4:	04030000 	streq	r0, [r3], #-0
    11e8:	00000505 	andeq	r0, r0, r5, lsl #10
    11ec:	05080300 	streq	r0, [r8, #-768]	; 0x300
    11f0:	00000000 	andeq	r0, r0, r0
    11f4:	00041a04 	andeq	r1, r4, r4, lsl #20
    11f8:	5a2e0200 	bpl	b81a00 <__bss_end__+0xb779c0>
    11fc:	03000000 	movweq	r0, #0
    1200:	00490801 	subeq	r0, r9, r1, lsl #16
    1204:	02030000 	andeq	r0, r3, #0
    1208:	0000e507 	andeq	lr, r0, r7, lsl #10
    120c:	04710400 	ldrbteq	r0, [r1], #-1024	; 0x400
    1210:	34020000 	strcc	r0, [r2], #-0
    1214:	00000073 	andeq	r0, r0, r3, ror r0
    1218:	37070403 	strcc	r0, [r7, -r3, lsl #8]
    121c:	03000000 	movweq	r0, #0
    1220:	00320708 	eorseq	r0, r2, r8, lsl #14
    1224:	04030000 	streq	r0, [r3], #-0
    1228:	00016d07 	andeq	r6, r1, r7, lsl #26
    122c:	08010300 	stmdaeq	r1, {r8, r9}
    1230:	00000052 	andeq	r0, r0, r2, asr r0
    1234:	00950405 	addseq	r0, r5, r5, lsl #8
    1238:	88060000 	stmdahi	r6, {}	; <UNPREDICTABLE>
    123c:	07000000 	streq	r0, [r0, -r0]
    1240:	d10e030c 	tstle	lr, ip, lsl #6
    1244:	08000000 	stmdaeq	r0, {}	; <UNPREDICTABLE>
    1248:	03007874 	movweq	r7, #2164	; 0x874
    124c:	00004f0f 	andeq	r4, r0, pc, lsl #30
    1250:	72080000 	andvc	r0, r8, #0
    1254:	0f030078 	svceq	0x00030078
    1258:	0000004f 	andeq	r0, r0, pc, asr #32
    125c:	03e80901 	mvneq	r0, #16384	; 0x4000
    1260:	10030000 	andne	r0, r3, r0
    1264:	00000068 	andeq	r0, r0, r8, rrx
    1268:	03990904 	orrseq	r0, r9, #4, 18	; 0x10000
    126c:	11030000 	mrsne	r0, (UNDEF: 3)
    1270:	00000068 	andeq	r0, r0, r8, rrx
    1274:	d1040008 	tstle	r4, r8
    1278:	03000003 	movweq	r0, #3
    127c:	00009a12 	andeq	r9, r0, r2, lsl sl
    1280:	04010a00 	streq	r0, [r1], #-2560	; 0xa00
    1284:	0000f710 	andeq	pc, r0, r0, lsl r7	; <UNPREDICTABLE>
    1288:	03ed0b00 	mvneq	r0, #0, 22
    128c:	0b010000 	bleq	41294 <__bss_end__+0x37254>
    1290:	000003db 	ldrdeq	r0, [r0], -fp
    1294:	03c30b02 	biceq	r0, r3, #2048	; 0x800
    1298:	00030000 	andeq	r0, r3, r0
    129c:	00040204 	andeq	r0, r4, r4, lsl #4
    12a0:	dc100400 	cfldrsle	mvf0, [r0], {-0}
    12a4:	07000000 	streq	r0, [r0, -r0]
    12a8:	2f140414 	svccs	0x00140414
    12ac:	09000001 	stmdbeq	r0, {r0}
    12b0:	0000047a 	andeq	r0, r0, sl, ror r4
    12b4:	002c1504 	eoreq	r1, ip, r4, lsl #10
    12b8:	09000000 	stmdbeq	r0, {}	; <UNPREDICTABLE>
    12bc:	00000465 	andeq	r0, r0, r5, ror #8
    12c0:	00f71804 	rscseq	r1, r7, r4, lsl #16
    12c4:	09040000 	stmdbeq	r4, {}	; <UNPREDICTABLE>
    12c8:	00000430 	andeq	r0, r0, r0, lsr r4
    12cc:	00d11b04 	sbcseq	r1, r1, r4, lsl #22
    12d0:	00080000 	andeq	r0, r8, r0
    12d4:	00042204 	andeq	r2, r4, r4, lsl #4
    12d8:	02200400 	eoreq	r0, r0, #0, 8
    12dc:	0c000001 	stceq	0, cr0, [r0], {1}
    12e0:	0000036f 	andeq	r0, r0, pc, ror #6
    12e4:	00250601 	eoreq	r0, r5, r1, lsl #12
    12e8:	88500000 	ldmdahi	r0, {}^	; <UNPREDICTABLE>
    12ec:	00200000 	eoreq	r0, r0, r0
    12f0:	9c010000 	stcls	0, cr0, [r1], {-0}
    12f4:	0000017a 	andeq	r0, r0, sl, ror r1
    12f8:	0100630d 	tsteq	r0, sp, lsl #6
    12fc:	00002506 	andeq	r2, r0, r6, lsl #10
    1300:	000a7a00 	andeq	r7, sl, r0, lsl #20
    1304:	88640e00 	stmdahi	r4!, {r9, sl, fp}^
    1308:	027a0000 	rsbseq	r0, sl, #0
    130c:	010f0000 	mrseq	r0, CPSR
    1310:	00740251 	rsbseq	r0, r4, r1, asr r2
    1314:	0550010f 	ldrbeq	r0, [r0, #-271]	; 0x10f
    1318:	00a03403 	adceq	r3, r0, r3, lsl #8
    131c:	10000000 	andne	r0, r0, r0
    1320:	000003fa 	strdeq	r0, [r0], -sl
    1324:	88700b01 	ldmdahi	r0!, {r0, r8, r9, fp}^
    1328:	00900000 	addseq	r0, r0, r0
    132c:	9c010000 	stcls	0, cr0, [r1], {-0}
    1330:	00000227 	andeq	r0, r0, r7, lsr #4
    1334:	00038311 	andeq	r8, r3, r1, lsl r3
    1338:	250c0100 	strcs	r0, [ip, #-256]	; 0x100
    133c:	11000000 	mrsne	r0, (UNDEF: 0)
    1340:	00000445 	andeq	r0, r0, r5, asr #8
    1344:	00250c01 	eoreq	r0, r5, r1, lsl #24
    1348:	6e120000 	cdpvs	0, 1, cr0, cr2, cr0, {0}
    134c:	01000000 	mrseq	r0, (UNDEF: 0)
    1350:	7362130d 	cmnvc	r2, #872415232	; 0x34000000
    1354:	0f010073 	svceq	0x00010073
    1358:	00000227 	andeq	r0, r0, r7, lsr #4
    135c:	00000a98 	muleq	r0, r8, sl
    1360:	00039114 	andeq	r9, r3, r4, lsl r1
    1364:	27100100 	ldrcs	r0, [r0, -r0, lsl #2]
    1368:	13000002 	movwne	r0, #2
    136c:	01006263 	tsteq	r0, r3, ror #4
    1370:	00022d17 	andeq	r2, r2, r7, lsl sp
    1374:	000ab800 	andeq	fp, sl, r0, lsl #16
    1378:	88981500 	ldmhi	r8, {r8, sl, ip}
    137c:	02960000 	addseq	r0, r6, #0
    1380:	d4160000 	ldrle	r0, [r6], #-0
    1384:	a1000088 	smlabbge	r0, r8, r0, r0
    1388:	fd000002 	stc2	0, cr0, [r0, #-8]
    138c:	0f000001 	svceq	0x00000001
    1390:	03055101 	movweq	r5, #20737	; 0x5101
    1394:	00009aec 	andeq	r9, r0, ip, ror #21
    1398:	0550010f 	ldrbeq	r0, [r0, #-271]	; 0x10f
    139c:	00a03403 	adceq	r3, r0, r3, lsl #8
    13a0:	dc160000 	ldcle	0, cr0, [r6], {-0}
    13a4:	bc000088 	stclt	0, cr0, [r0], {136}	; 0x88
    13a8:	14000002 	strne	r0, [r0], #-2
    13ac:	0f000002 	svceq	0x00000002
    13b0:	03055001 	movweq	r5, #20481	; 0x5001
    13b4:	00009b10 	andeq	r9, r0, r0, lsl fp
    13b8:	88e01500 	stmiahi	r0!, {r8, sl, ip}^
    13bc:	02d20000 	sbcseq	r0, r2, #0
    13c0:	e4150000 	ldr	r0, [r5], #-0
    13c4:	d9000088 	stmdble	r0, {r3, r7}
    13c8:	00000002 	andeq	r0, r0, r2
    13cc:	00250405 	eoreq	r0, r5, r5, lsl #8
    13d0:	04050000 	streq	r0, [r5], #-0
    13d4:	0000012f 	andeq	r0, r0, pc, lsr #2
    13d8:	0003a717 	andeq	sl, r3, r7, lsl r7
    13dc:	d1050100 	mrsle	r0, (UNDEF: 21)
    13e0:	05000000 	streq	r0, [r0, #-0]
    13e4:	00a03403 	adceq	r3, r0, r3, lsl #8
    13e8:	00251800 	eoreq	r1, r5, r0, lsl #16
    13ec:	02530000 	subseq	r0, r3, #0
    13f0:	25190000 	ldrcs	r0, [r9, #-0]
    13f4:	00000000 	andeq	r0, r0, r0
    13f8:	0002ba11 	andeq	fp, r2, r1, lsl sl
    13fc:	5e1d0500 	cfmul32pl	mvfx0, mvfx13, mvfx0
    1400:	05000002 	streq	r0, [r0, #-2]
    1404:	00024404 	andeq	r4, r2, r4, lsl #8
    1408:	03831100 	orreq	r1, r3, #0, 2
    140c:	0c010000 	stceq	0, cr0, [r1], {-0}
    1410:	00000025 	andeq	r0, r0, r5, lsr #32
    1414:	00044511 	andeq	r4, r4, r1, lsl r5
    1418:	250c0100 	strcs	r0, [ip, #-256]	; 0x100
    141c:	1a000000 	bne	1424 <_start-0x6bdc>
    1420:	0000040d 	andeq	r0, r0, sp, lsl #8
    1424:	02904403 	addseq	r4, r0, #50331648	; 0x3000000
    1428:	90190000 	andsls	r0, r9, r0
    142c:	19000002 	stmdbne	r0, {r1}
    1430:	0000005a 	andeq	r0, r0, sl, asr r0
    1434:	d1040500 	tstle	r4, r0, lsl #10
    1438:	1b000000 	blne	1440 <_start-0x6bc0>
    143c:	00000438 	andeq	r0, r0, r8, lsr r4
    1440:	022d2a04 	eoreq	r2, sp, #4, 20	; 0x4000
    1444:	b41c0000 	ldrlt	r0, [ip], #-0
    1448:	03000003 	movweq	r0, #3
    144c:	00002515 	andeq	r2, r0, r5, lsl r5
    1450:	0002bc00 	andeq	fp, r2, r0, lsl #24
    1454:	02901900 	addseq	r1, r0, #0, 18
    1458:	8f190000 	svchi	0x00190000
    145c:	1d000000 	stcne	0, cr0, [r0, #-0]
    1460:	02411c00 	subeq	r1, r1, #0, 24
    1464:	29050000 	stmdbcs	r5, {}	; <UNPREDICTABLE>
    1468:	00000025 	andeq	r0, r0, r5, lsr #32
    146c:	000002d2 	ldrdeq	r0, [r0], -r2
    1470:	00008f19 	andeq	r8, r0, r9, lsl pc
    1474:	12001d00 	andne	r1, r0, #0, 26
    1478:	0000006e 	andeq	r0, r0, lr, rrx
    147c:	4112d105 	tstmi	r2, r5, lsl #2
    1480:	05000003 	streq	r0, [r0, #-3]
    1484:	01ad0063 			; <UNDEFINED> instruction: 0x01ad0063
    1488:	00040000 	andeq	r0, r4, r0
    148c:	000007fe 	strdeq	r0, [r0], -lr
    1490:	01e70104 	mvneq	r0, r4, lsl #2
    1494:	9a010000 	bls	4149c <__bss_end__+0x3745c>
    1498:	52000004 	andpl	r0, r0, #4
    149c:	18000002 	stmdane	r0, {r1}
    14a0:	00000000 	andeq	r0, r0, r0
    14a4:	0c000000 	stceq	0, cr0, [r0], {-0}
    14a8:	02000007 	andeq	r0, r0, #7
    14ac:	6e690504 	cdpvs	5, 6, cr0, cr9, cr4, {0}
    14b0:	04030074 	streq	r0, [r3], #-116	; 0x74
    14b4:	00003c07 	andeq	r3, r0, r7, lsl #24
    14b8:	06010300 	streq	r0, [r1], -r0, lsl #6
    14bc:	0000004b 	andeq	r0, r0, fp, asr #32
    14c0:	f8050203 			; <UNDEFINED> instruction: 0xf8050203
    14c4:	03000000 	movweq	r0, #0
    14c8:	00050504 	andeq	r0, r5, r4, lsl #10
    14cc:	08030000 	stmdaeq	r3, {}	; <UNPREDICTABLE>
    14d0:	00000005 	andeq	r0, r0, r5
    14d4:	08010300 	stmdaeq	r1, {r8, r9}
    14d8:	00000049 	andeq	r0, r0, r9, asr #32
    14dc:	e5070203 	str	r0, [r7, #-515]	; 0x203
    14e0:	03000000 	movweq	r0, #0
    14e4:	00370704 	eorseq	r0, r7, r4, lsl #14
    14e8:	08030000 	stmdaeq	r3, {}	; <UNPREDICTABLE>
    14ec:	00003207 	andeq	r3, r0, r7, lsl #4
    14f0:	07040300 	streq	r0, [r4, -r0, lsl #6]
    14f4:	0000016d 	andeq	r0, r0, sp, ror #2
    14f8:	52080103 	andpl	r0, r8, #-1073741824	; 0xc0000000
    14fc:	04000000 	streq	r0, [r0], #-0
    1500:	00000480 	andeq	r0, r0, r0, lsl #9
    1504:	00250e01 	eoreq	r0, r5, r1, lsl #28
    1508:	89000000 	stmdbhi	r0, {}	; <UNPREDICTABLE>
    150c:	00180000 	andseq	r0, r8, r0
    1510:	9c010000 	stcls	0, cr0, [r1], {-0}
    1514:	000000a2 	andeq	r0, r0, r2, lsr #1
    1518:	0004ec05 	andeq	lr, r4, r5, lsl #24
    151c:	2c0f0100 	stfcss	f0, [pc], {-0}
    1520:	d8000000 	stmdale	r0, {}	; <UNPREDICTABLE>
    1524:	0000000a 	andeq	r0, r0, sl
    1528:	0004cf06 	andeq	ip, r4, r6, lsl #30
    152c:	18170100 	ldmdane	r7, {r8}
    1530:	14000089 	strne	r0, [r0], #-137	; 0x89
    1534:	01000000 	mrseq	r0, (UNDEF: 0)
    1538:	0000c79c 	muleq	r0, ip, r7
    153c:	04ec0500 	strbteq	r0, [ip], #1280	; 0x500
    1540:	18010000 	stmdane	r1, {}	; <UNPREDICTABLE>
    1544:	0000002c 	andeq	r0, r0, ip, lsr #32
    1548:	00000af7 	strdeq	r0, [r0], -r7
    154c:	03410600 	movteq	r0, #5632	; 0x1600
    1550:	1f010000 	svcne	0x00010000
    1554:	0000892c 	andeq	r8, r0, ip, lsr #18
    1558:	00000048 	andeq	r0, r0, r8, asr #32
    155c:	01779c01 	cmneq	r7, r1, lsl #24
    1560:	e4070000 	str	r0, [r7], #-0
    1564:	01000004 	tsteq	r0, r4
    1568:	0001772a 	andeq	r7, r1, sl, lsr #14
    156c:	10001c00 	andne	r1, r0, r0, lsl #24
    1570:	04c70720 	strbeq	r0, [r7], #1824	; 0x720
    1574:	2b010000 	blcs	4157c <__bss_end__+0x3753c>
    1578:	00000177 	andeq	r0, r0, r7, ror r1
    157c:	20100024 	andscs	r0, r0, r4, lsr #32
    1580:	00048e07 	andeq	r8, r4, r7, lsl #28
    1584:	772c0100 	strvc	r0, [ip, -r0, lsl #2]!
    1588:	00000001 	andeq	r0, r0, r1
    158c:	085a0000 	ldmdaeq	sl, {}^	; <UNPREDICTABLE>
    1590:	000004ae 	andeq	r0, r0, lr, lsr #9
    1594:	01772d01 	cmneq	r7, r1, lsl #26
    1598:	09200000 	stmdbeq	r0!, {}	; <UNPREDICTABLE>
    159c:	00008934 	andeq	r8, r0, r4, lsr r9
    15a0:	00000079 	andeq	r0, r0, r9, ror r0
    15a4:	00894009 	addeq	r4, r9, r9
    15a8:	0000a200 	andeq	sl, r0, r0, lsl #4
    15ac:	89480a00 	stmdbhi	r8, {r9, fp}^
    15b0:	018d0000 	orreq	r0, sp, r0
    15b4:	013a0000 	teqeq	sl, r0
    15b8:	010b0000 	mrseq	r0, (UNDEF: 11)
    15bc:	004e0150 	subeq	r0, lr, r0, asr r1
    15c0:	0089540a 	addeq	r5, r9, sl, lsl #8
    15c4:	00019e00 	andeq	r9, r1, r0, lsl #28
    15c8:	00015a00 	andeq	r5, r1, r0, lsl #20
    15cc:	51010b00 	tstpl	r1, r0, lsl #22
    15d0:	00010c05 	andeq	r0, r1, r5, lsl #24
    15d4:	010b5a00 	tsteq	fp, r0, lsl #20
    15d8:	240c0550 	strcs	r0, [ip], #-1360	; 0x550
    15dc:	00201000 	eoreq	r1, r0, r0
    15e0:	0089600c 	addeq	r6, r9, ip
    15e4:	00019e00 	andeq	r9, r1, r0, lsl #28
    15e8:	51010b00 	tstpl	r1, r0, lsl #22
    15ec:	00200c05 	eoreq	r0, r0, r5, lsl #24
    15f0:	010b5a00 	tsteq	fp, r0, lsl #20
    15f4:	1c0c0550 	cfstr32ne	mvfx0, [ip], {80}	; 0x50
    15f8:	00201000 	eoreq	r1, r0, r0
    15fc:	00250d00 	eoreq	r0, r5, r0, lsl #26
    1600:	83080000 	movwhi	r0, #32768	; 0x8000
    1604:	01000004 	tsteq	r0, r4
    1608:	0001880d 	andeq	r8, r1, sp, lsl #16
    160c:	2c0d1000 	stccs	0, cr1, [sp], {-0}
    1610:	0e000000 	cdpeq	0, 0, cr0, cr0, cr0, {0}
    1614:	00000366 	andeq	r0, r0, r6, ror #6
    1618:	019e5002 	orrseq	r5, lr, r2
    161c:	2c0f0000 	stccs	0, cr0, [pc], {-0}
    1620:	00000000 	andeq	r0, r0, r0
    1624:	0004de10 	andeq	sp, r4, r0, lsl lr
    1628:	0f9c0200 	svceq	0x009c0200
    162c:	0000002c 	andeq	r0, r0, ip, lsr #32
    1630:	00002c0f 	andeq	r2, r0, pc, lsl #24
    1634:	d8000000 	stmdale	r0, {}	; <UNPREDICTABLE>
    1638:	04000001 	streq	r0, [r0], #-1
    163c:	0008ec00 	andeq	lr, r8, r0, lsl #24
    1640:	e7010400 	str	r0, [r1, -r0, lsl #8]
    1644:	01000001 	tsteq	r0, r1
    1648:	0000050e 	andeq	r0, r0, lr, lsl #10
    164c:	00000252 	andeq	r0, r0, r2, asr r2
    1650:	00008974 	andeq	r8, r0, r4, ror r9
    1654:	00000088 	andeq	r0, r0, r8, lsl #1
    1658:	000007a9 	andeq	r0, r0, r9, lsr #15
    165c:	69050402 	stmdbvs	r5, {r1, sl}
    1660:	0300746e 	movweq	r7, #1134	; 0x46e
    1664:	003c0704 	eorseq	r0, ip, r4, lsl #14
    1668:	01030000 	mrseq	r0, (UNDEF: 3)
    166c:	00004b06 	andeq	r4, r0, r6, lsl #22
    1670:	05020300 	streq	r0, [r2, #-768]	; 0x300
    1674:	000000f8 	strdeq	r0, [r0], -r8
    1678:	05050403 	streq	r0, [r5, #-1027]	; 0x403
    167c:	03000000 	movweq	r0, #0
    1680:	00000508 	andeq	r0, r0, r8, lsl #10
    1684:	01030000 	mrseq	r0, (UNDEF: 3)
    1688:	00004908 	andeq	r4, r0, r8, lsl #18
    168c:	07020300 	streq	r0, [r2, -r0, lsl #6]
    1690:	000000e5 	andeq	r0, r0, r5, ror #1
    1694:	37070403 	strcc	r0, [r7, -r3, lsl #8]
    1698:	03000000 	movweq	r0, #0
    169c:	00320708 	eorseq	r0, r2, r8, lsl #14
    16a0:	04030000 	streq	r0, [r3], #-0
    16a4:	00016d07 	andeq	r6, r1, r7, lsl #26
    16a8:	08010300 	stmdaeq	r1, {r8, r9}
    16ac:	00000052 	andeq	r0, r0, r2, asr r0
    16b0:	00052d04 	andeq	r2, r5, r4, lsl #26
    16b4:	74050100 	strvc	r0, [r5], #-256	; 0x100
    16b8:	1c000089 	stcne	0, cr0, [r0], {137}	; 0x89
    16bc:	01000000 	mrseq	r0, (UNDEF: 0)
    16c0:	00009e9c 	muleq	r0, ip, lr
    16c4:	05270500 	streq	r0, [r7, #-1280]!	; 0x500
    16c8:	05010000 	streq	r0, [r1, #-0]
    16cc:	0000002c 	andeq	r0, r0, ip, lsr #32
    16d0:	00000b21 	andeq	r0, r0, r1, lsr #22
    16d4:	04f10600 	ldrbteq	r0, [r1], #1536	; 0x600
    16d8:	0b010000 	bleq	416e0 <__bss_end__+0x376a0>
    16dc:	0000002c 	andeq	r0, r0, ip, lsr #32
    16e0:	00008990 	muleq	r0, r0, r9
    16e4:	00000014 	andeq	r0, r0, r4, lsl r0
    16e8:	00cb9c01 	sbceq	r9, fp, r1, lsl #24
    16ec:	9c070000 	stcls	0, cr0, [r7], {-0}
    16f0:	ca000089 	bgt	191c <_start-0x66e4>
    16f4:	08000001 	stmdaeq	r0, {r0}
    16f8:	0c055001 	stceq	0, cr5, [r5], {1}
    16fc:	20003004 	andcs	r3, r0, r4
    1700:	43060000 	movwmi	r0, #24576	; 0x6000
    1704:	01000005 	tsteq	r0, r5
    1708:	00002c10 	andeq	r2, r0, r0, lsl ip
    170c:	0089a400 	addeq	sl, r9, r0, lsl #8
    1710:	00000c00 	andeq	r0, r0, r0, lsl #24
    1714:	f99c0100 			; <UNDEFINED> instruction: 0xf99c0100
    1718:	09000000 	stmdbeq	r0, {}	; <UNPREDICTABLE>
    171c:	14010075 	strne	r0, [r1], #-117	; 0x75
    1720:	0000002c 	andeq	r0, r0, ip, lsr #32
    1724:	ac0a5001 	stcge	0, cr5, [sl], {1}
    1728:	9e000089 	cdpls	0, 0, cr0, cr0, cr9, {4}
    172c:	00000000 	andeq	r0, r0, r0
    1730:	00053a04 	andeq	r3, r5, r4, lsl #20
    1734:	b0190100 	andslt	r0, r9, r0, lsl #2
    1738:	24000089 	strcs	r0, [r0], #-137	; 0x89
    173c:	01000000 	mrseq	r0, (UNDEF: 0)
    1740:	0001579c 	muleq	r1, ip, r7
    1744:	73750b00 	cmnvc	r5, #0, 22
    1748:	2c190100 	ldfcss	f0, [r9], {-0}
    174c:	55000000 	strpl	r0, [r0, #-0]
    1750:	0900000b 	stmdbeq	r0, {r0, r1, r3}
    1754:	01006272 	tsteq	r0, r2, ror r2
    1758:	00002c1a 	andeq	r2, r0, sl, lsl ip
    175c:	0c540100 	ldfeqe	f0, [r4], {-0}
    1760:	000089c0 	andeq	r8, r0, r0, asr #19
    1764:	00000010 	andeq	r0, r0, r0, lsl r0
    1768:	0000014d 	andeq	r0, r0, sp, asr #2
    176c:	0061720d 	rsbeq	r7, r1, sp, lsl #4
    1770:	002c1c01 	eoreq	r1, ip, r1, lsl #24
    1774:	0b730000 	bleq	1cc177c <__bss_end__+0x1cb773c>
    1778:	c40a0000 	strgt	r0, [sl], #-0
    177c:	cb000089 	blgt	19a8 <_start-0x6658>
    1780:	00000000 	andeq	r0, r0, r0
    1784:	0089bc0a 	addeq	fp, r9, sl, lsl #24
    1788:	0000cb00 	andeq	ip, r0, r0, lsl #22
    178c:	66040000 	strvs	r0, [r4], -r0
    1790:	01000003 	tsteq	r0, r3
    1794:	0089d422 	addeq	sp, r9, r2, lsr #8
    1798:	00001400 	andeq	r1, r0, r0, lsl #8
    179c:	909c0100 	addsls	r0, ip, r0, lsl #2
    17a0:	0b000001 	bleq	17ac <_start-0x6854>
    17a4:	0100736d 	tsteq	r0, sp, ror #6
    17a8:	00002c22 	andeq	r2, r0, r2, lsr #24
    17ac:	000b8600 	andeq	r8, fp, r0, lsl #12
    17b0:	89e40700 	stmibhi	r4!, {r8, r9, sl}^
    17b4:	00f90000 	rscseq	r0, r9, r0
    17b8:	01080000 	mrseq	r0, (UNDEF: 8)
    17bc:	01f30750 	mvnseq	r0, r0, asr r7
    17c0:	03e80a50 	mvneq	r0, #80, 20	; 0x50000
    17c4:	0400001e 	streq	r0, [r0], #-30
    17c8:	00000504 	andeq	r0, r0, r4, lsl #10
    17cc:	89e82501 	stmibhi	r8!, {r0, r8, sl, sp}^
    17d0:	00140000 	andseq	r0, r4, r0
    17d4:	9c010000 	stcls	0, cr0, [r1], {-0}
    17d8:	000001ca 	andeq	r0, r0, sl, asr #3
    17dc:	6365730b 	cmnvs	r5, #738197504	; 0x2c000000
    17e0:	2c250100 	stfcss	f0, [r5], #-0
    17e4:	a7000000 	strge	r0, [r0, -r0]
    17e8:	0700000b 	streq	r0, [r0, -fp]
    17ec:	000089f8 	strdeq	r8, [r0], -r8	; <UNPREDICTABLE>
    17f0:	00000157 	andeq	r0, r0, r7, asr r1
    17f4:	07500108 	ldrbeq	r0, [r0, -r8, lsl #2]
    17f8:	0a5001f3 	beq	1401fcc <__bss_end__+0x13f7f8c>
    17fc:	001e03e8 	andseq	r0, lr, r8, ror #7
    1800:	05210e00 	streq	r0, [r1, #-3584]!	; 0xe00
    1804:	a8020000 	stmdage	r2, {}	; <UNPREDICTABLE>
    1808:	0000002c 	andeq	r0, r0, ip, lsr #32
    180c:	00002c0f 	andeq	r2, r0, pc, lsl #24
    1810:	82000000 	andhi	r0, r0, #0
    1814:	04000008 	streq	r0, [r0], #-8
    1818:	0009cf00 	andeq	ip, r9, r0, lsl #30
    181c:	e7010400 	str	r0, [r1, -r0, lsl #8]
    1820:	01000001 	tsteq	r0, r1
    1824:	000005ac 	andeq	r0, r0, ip, lsr #11
    1828:	00000252 	andeq	r0, r0, r2, asr r2
    182c:	000089fc 	strdeq	r8, [r0], -ip
    1830:	000005a0 	andeq	r0, r0, r0, lsr #11
    1834:	00000850 	andeq	r0, r0, r0, asr r8
    1838:	32070802 	andcc	r0, r7, #131072	; 0x20000
    183c:	02000000 	andeq	r0, r0, #0
    1840:	003c0704 	eorseq	r0, ip, r4, lsl #14
    1844:	01020000 	mrseq	r0, (UNDEF: 2)
    1848:	00004b06 	andeq	r4, r0, r6, lsl #22
    184c:	05020200 	streq	r0, [r2, #-512]	; 0x200
    1850:	000000f8 	strdeq	r0, [r0], -r8
    1854:	05050402 	streq	r0, [r5, #-1026]	; 0x402
    1858:	02000000 	andeq	r0, r0, #0
    185c:	00000508 	andeq	r0, r0, r8, lsl #10
    1860:	01020000 	mrseq	r0, (UNDEF: 2)
    1864:	00004908 	andeq	r4, r0, r8, lsl #18
    1868:	07020200 	streq	r0, [r2, -r0, lsl #4]
    186c:	000000e5 	andeq	r0, r0, r5, ror #1
    1870:	37070402 	strcc	r0, [r7, -r2, lsl #8]
    1874:	03000000 	movweq	r0, #0
    1878:	6e690504 	cdpvs	5, 6, cr0, cr9, cr4, {0}
    187c:	04020074 	streq	r0, [r2], #-116	; 0x74
    1880:	00016d07 	andeq	r6, r1, r7, lsl #26
    1884:	08010200 	stmdaeq	r1, {r9}
    1888:	00000052 	andeq	r0, r0, r2, asr r0
    188c:	0c020104 	stfeqs	f0, [r2], {4}
    1890:	000000b2 	strheq	r0, [r0], -r2
    1894:	00058f05 	andeq	r8, r5, r5, lsl #30
    1898:	09050000 	stmdbeq	r5, {}	; <UNPREDICTABLE>
    189c:	01000007 	tsteq	r0, r7
    18a0:	00074205 	andeq	r4, r7, r5, lsl #4
    18a4:	51050400 	tstpl	r5, r0, lsl #8
    18a8:	05000007 	streq	r0, [r0, #-7]
    18ac:	00076005 	andeq	r6, r7, r5
    18b0:	6f050600 	svcvs	0x00050600
    18b4:	07000007 	streq	r0, [r0, -r7]
    18b8:	00077e05 	andeq	r7, r7, r5, lsl #28
    18bc:	8d050300 	stchi	3, cr0, [r5, #-0]
    18c0:	02000007 	andeq	r0, r0, #7
    18c4:	07360600 	ldreq	r0, [r6, -r0, lsl #12]!
    18c8:	15020000 	strne	r0, [r2, #-0]
    18cc:	00000079 	andeq	r0, r0, r9, ror r0
    18d0:	0006f907 	andeq	pc, r6, r7, lsl #18
    18d4:	fc3f0100 	ldc2	1, cr0, [pc], #-0	; 18dc <_start-0x6724>
    18d8:	d4000089 	strle	r0, [r0], #-137	; 0x89
    18dc:	01000000 	mrseq	r0, (UNDEF: 0)
    18e0:	0001339c 	muleq	r1, ip, r3
    18e4:	69700800 	ldmdbvs	r0!, {fp}^
    18e8:	3f01006e 	svccc	0x0001006e
    18ec:	0000002c 	andeq	r0, r0, ip, lsr #32
    18f0:	00000bc8 	andeq	r0, r0, r8, asr #23
    18f4:	0005e809 	andeq	lr, r5, r9, lsl #16
    18f8:	33470100 	movtcc	r0, #28928	; 0x7100
    18fc:	e6000001 	str	r0, [r0], -r1
    1900:	0900000b 	stmdbeq	r0, {r0, r1, r3}
    1904:	0000079c 	muleq	r0, ip, r7
    1908:	002c4901 	eoreq	r4, ip, r1, lsl #18
    190c:	0c3b0000 	ldceq	0, cr0, [fp], #-0
    1910:	a3090000 	movwge	r0, #36864	; 0x9000
    1914:	01000006 	tsteq	r0, r6
    1918:	00002c57 	andeq	r2, r0, r7, asr ip
    191c:	000e0700 	andeq	r0, lr, r0, lsl #14
    1920:	8a900a00 	bhi	fe404128 <__bss_end__+0xfe3fa0e8>
    1924:	08410000 	stmdaeq	r1, {}^	; <UNPREDICTABLE>
    1928:	01220000 	teqeq	r2, r0
    192c:	010b0000 	mrseq	r0, (UNDEF: 11)
    1930:	00750250 	rsbseq	r0, r5, r0, asr r2
    1934:	8ac40c00 	bhi	ff10493c <__bss_end__+0xff0fa8fc>
    1938:	08620000 	stmdaeq	r2!, {}^	; <UNPREDICTABLE>
    193c:	010b0000 	mrseq	r0, (UNDEF: 11)
    1940:	00750250 	rsbseq	r0, r5, r0, asr r2
    1944:	040d0000 	streq	r0, [sp], #-0
    1948:	00000139 	andeq	r0, r0, r9, lsr r1
    194c:	00002c0e 	andeq	r2, r0, lr, lsl #24
    1950:	06df0700 	ldrbeq	r0, [pc], r0, lsl #14
    1954:	60010000 	andvs	r0, r1, r0
    1958:	00008ad0 	ldrdeq	r8, [r0], -r0
    195c:	00000038 	andeq	r0, r0, r8, lsr r0
    1960:	01969c01 	orrseq	r9, r6, r1, lsl #24
    1964:	70080000 	andvc	r0, r8, r0
    1968:	01006e69 	tsteq	r0, r9, ror #28
    196c:	00002c60 	andeq	r2, r0, r0, ror #24
    1970:	000e3700 	andeq	r3, lr, r0, lsl #14
    1974:	05e80900 	strbeq	r0, [r8, #2304]!	; 0x900
    1978:	67010000 	strvs	r0, [r1, -r0]
    197c:	00000133 	andeq	r0, r0, r3, lsr r1
    1980:	00000e58 	andeq	r0, r0, r8, asr lr
    1984:	0006a309 	andeq	sl, r6, r9, lsl #6
    1988:	2c680100 	stfcse	f0, [r8], #-0
    198c:	8e000000 	cdphi	0, 0, cr0, cr0, cr0, {0}
    1990:	0c00000e 	stceq	0, cr0, [r0], {14}
    1994:	00008b00 	andeq	r8, r0, r0, lsl #22
    1998:	00000862 	andeq	r0, r0, r2, ror #16
    199c:	0751010b 	ldrbeq	r0, [r1, -fp, lsl #2]
    19a0:	5001f331 	andpl	pc, r1, r1, lsr r3	; <UNPREDICTABLE>
    19a4:	00241a4f 	eoreq	r1, r4, pc, asr #20
    19a8:	059f0700 	ldreq	r0, [pc, #1792]	; 20b0 <_start-0x5f50>
    19ac:	7b010000 	blvc	419b4 <__bss_end__+0x37974>
    19b0:	00008b08 	andeq	r8, r0, r8, lsl #22
    19b4:	00000038 	andeq	r0, r0, r8, lsr r0
    19b8:	01ee9c01 	mvneq	r9, r1, lsl #24
    19bc:	70080000 	andvc	r0, r8, r0
    19c0:	01006e69 	tsteq	r0, r9, ror #28
    19c4:	00002c7b 	andeq	r2, r0, fp, ror ip
    19c8:	000ece00 	andeq	ip, lr, r0, lsl #28
    19cc:	05e80900 	strbeq	r0, [r8, #2304]!	; 0x900
    19d0:	81010000 	mrshi	r0, (UNDEF: 1)
    19d4:	00000133 	andeq	r0, r0, r3, lsr r1
    19d8:	00000eef 	andeq	r0, r0, pc, ror #29
    19dc:	0006a309 	andeq	sl, r6, r9, lsl #6
    19e0:	2c820100 	stfcss	f0, [r2], {0}
    19e4:	25000000 	strcs	r0, [r0, #-0]
    19e8:	0c00000f 	stceq	0, cr0, [r0], {15}
    19ec:	00008b38 	andeq	r8, r0, r8, lsr fp
    19f0:	00000862 	andeq	r0, r0, r2, ror #16
    19f4:	0751010b 	ldrbeq	r0, [r1, -fp, lsl #2]
    19f8:	5001f331 	andpl	pc, r1, r1, lsr r3	; <UNPREDICTABLE>
    19fc:	00241a4f 	eoreq	r1, r4, pc, asr #20
    1a00:	000e0700 	andeq	r0, lr, r0, lsl #14
    1a04:	95010000 	strls	r0, [r1, #-0]
    1a08:	00008b40 	andeq	r8, r0, r0, asr #22
    1a0c:	000000cc 	andeq	r0, r0, ip, asr #1
    1a10:	02649c01 	rsbeq	r9, r4, #256	; 0x100
    1a14:	70080000 	andvc	r0, r8, r0
    1a18:	01006e69 	tsteq	r0, r9, ror #28
    1a1c:	00002c95 	muleq	r0, r5, ip
    1a20:	000f6500 	andeq	r6, pc, r0, lsl #10
    1a24:	05e80900 	strbeq	r0, [r8, #2304]!	; 0x900
    1a28:	9b010000 	blls	41a30 <__bss_end__+0x379f0>
    1a2c:	00000133 	andeq	r0, r0, r3, lsr r1
    1a30:	00000f83 	andeq	r0, r0, r3, lsl #31
    1a34:	00079c09 	andeq	r9, r7, r9, lsl #24
    1a38:	2c9d0100 	ldfcss	f0, [sp], {0}
    1a3c:	d8000000 	stmdale	r0, {}	; <UNPREDICTABLE>
    1a40:	0900000f 	stmdbeq	r0, {r0, r1, r2, r3}
    1a44:	000006a3 	andeq	r0, r0, r3, lsr #13
    1a48:	002cab01 	eoreq	sl, ip, r1, lsl #22
    1a4c:	11a40000 			; <UNDEFINED> instruction: 0x11a40000
    1a50:	d40a0000 	strle	r0, [sl], #-0
    1a54:	4100008b 	smlabbmi	r0, fp, r0, r0
    1a58:	53000008 	movwpl	r0, #8
    1a5c:	0b000002 	bleq	1a6c <_start-0x6594>
    1a60:	75025001 	strvc	r5, [r2, #-1]
    1a64:	000c0000 	andeq	r0, ip, r0
    1a68:	6200008c 	andvs	r0, r0, #140	; 0x8c
    1a6c:	0b000008 	bleq	1a94 <_start-0x656c>
    1a70:	75025001 	strvc	r5, [r2, #-1]
    1a74:	0f000000 	svceq	0x00000000
    1a78:	00000637 	andeq	r0, r0, r7, lsr r6
    1a7c:	0064b301 	rsbeq	fp, r4, r1, lsl #6
    1a80:	8c0c0000 	stchi	0, cr0, [ip], {-0}
    1a84:	004c0000 	subeq	r0, ip, r0
    1a88:	9c010000 	stcls	0, cr0, [r1], {-0}
    1a8c:	000002ac 	andeq	r0, r0, ip, lsr #5
    1a90:	6e697008 	cdpvs	0, 6, cr7, cr9, cr8, {0}
    1a94:	2cb30100 	ldfcss	f0, [r3]
    1a98:	c2000000 	andgt	r0, r0, #0
    1a9c:	10000011 	andne	r0, r0, r1, lsl r0
    1aa0:	b9010076 	stmdblt	r1, {r1, r2, r4, r5, r6}
    1aa4:	0000002c 	andeq	r0, r0, ip, lsr #32
    1aa8:	0000121a 	andeq	r1, r0, sl, lsl r2
    1aac:	008c2c11 	addeq	r2, ip, r1, lsl ip
    1ab0:	00084100 	andeq	r4, r8, r0, lsl #2
    1ab4:	8c3c1100 	ldfhis	f1, [ip], #-0
    1ab8:	08410000 	stmdaeq	r1, {}^	; <UNPREDICTABLE>
    1abc:	07000000 	streq	r0, [r0, -r0]
    1ac0:	000006ab 	andeq	r0, r0, fp, lsr #13
    1ac4:	8c58c501 	cfldr64hi	mvdx12, [r8], {1}
    1ac8:	00240000 	eoreq	r0, r4, r0
    1acc:	9c010000 	stcls	0, cr0, [r1], {-0}
    1ad0:	000002fc 	strdeq	r0, [r0], -ip
    1ad4:	6e697008 	cdpvs	0, 6, cr7, cr9, cr8, {0}
    1ad8:	2cc50100 	stfcse	f0, [r5], {0}
    1adc:	50000000 	andpl	r0, r0, r0
    1ae0:	08000012 	stmdaeq	r0, {r1, r4}
    1ae4:	c5010076 	strgt	r0, [r1, #-118]	; 0x76
    1ae8:	0000002c 	andeq	r0, r0, ip, lsr #32
    1aec:	0000128a 	andeq	r1, r0, sl, lsl #5
    1af0:	008c700a 	addeq	r7, ip, sl
    1af4:	00013e00 	andeq	r3, r1, r0, lsl #28
    1af8:	0002f200 	andeq	pc, r2, r0, lsl #4
    1afc:	50010b00 	andpl	r0, r1, r0, lsl #22
    1b00:	5001f303 	andpl	pc, r1, r3, lsl #6
    1b04:	8c781100 	ldfhie	f1, [r8], #-0
    1b08:	01960000 	orrseq	r0, r6, r0
    1b0c:	07000000 	streq	r0, [r0, -r0]
    1b10:	00000656 	andeq	r0, r0, r6, asr r6
    1b14:	8c7cd101 	ldfhip	f5, [ip], #-4
    1b18:	00d80000 	sbcseq	r0, r8, r0
    1b1c:	9c010000 	stcls	0, cr0, [r1], {-0}
    1b20:	00000381 	andeq	r0, r0, r1, lsl #7
    1b24:	6e697008 	cdpvs	0, 6, cr7, cr9, cr8, {0}
    1b28:	2cd10100 	ldfcse	f0, [r1], {0}
    1b2c:	c4000000 	strgt	r0, [r0], #-0
    1b30:	12000012 	andne	r0, r0, #18
    1b34:	000006c0 	andeq	r0, r0, r0, asr #13
    1b38:	00b2d101 	adcseq	sp, r2, r1, lsl #2
    1b3c:	12e20000 	rscne	r0, r2, #0
    1b40:	e8090000 	stmda	r9, {}	; <UNPREDICTABLE>
    1b44:	01000005 	tsteq	r0, r5
    1b48:	000133d9 	ldrdeq	r3, [r1], -r9
    1b4c:	00130300 	andseq	r0, r3, r0, lsl #6
    1b50:	079c0900 	ldreq	r0, [ip, r0, lsl #18]
    1b54:	da010000 	ble	41b5c <__bss_end__+0x37b1c>
    1b58:	0000002c 	andeq	r0, r0, ip, lsr #32
    1b5c:	00001358 	andeq	r1, r0, r8, asr r3
    1b60:	0006a309 	andeq	sl, r6, r9, lsl #6
    1b64:	2ce80100 	stfcse	f0, [r8]
    1b68:	24000000 	strcs	r0, [r0], #-0
    1b6c:	0a000015 	beq	1bc8 <_start-0x6438>
    1b70:	00008d18 	andeq	r8, r0, r8, lsl sp
    1b74:	00000841 	andeq	r0, r0, r1, asr #16
    1b78:	00000370 	andeq	r0, r0, r0, ror r3
    1b7c:	0250010b 	subseq	r0, r0, #-1073741822	; 0xc0000002
    1b80:	0c000076 	stceq	0, cr0, [r0], {118}	; 0x76
    1b84:	00008d48 	andeq	r8, r0, r8, asr #26
    1b88:	00000862 	andeq	r0, r0, r2, ror #16
    1b8c:	0250010b 	subseq	r0, r0, #-1073741822	; 0xc0000002
    1b90:	00000076 	andeq	r0, r0, r6, ror r0
    1b94:	0006c507 	andeq	ip, r6, r7, lsl #10
    1b98:	54f10100 	ldrbtpl	r0, [r1], #256	; 0x100
    1b9c:	3800008d 	stmdacc	r0, {r0, r2, r3, r7}
    1ba0:	01000000 	mrseq	r0, (UNDEF: 0)
    1ba4:	0003d99c 	muleq	r3, ip, r9
    1ba8:	69700800 	ldmdbvs	r0!, {fp}^
    1bac:	f101006e 	setend	le
    1bb0:	0000002c 	andeq	r0, r0, ip, lsr #32
    1bb4:	00001555 	andeq	r1, r0, r5, asr r5
    1bb8:	0005e809 	andeq	lr, r5, r9, lsl #16
    1bbc:	33f70100 	mvnscc	r0, #0, 2
    1bc0:	76000001 	strvc	r0, [r0], -r1
    1bc4:	09000015 	stmdbeq	r0, {r0, r2, r4}
    1bc8:	000006a3 	andeq	r0, r0, r3, lsr #13
    1bcc:	002cf801 	eoreq	pc, ip, r1, lsl #16
    1bd0:	15ac0000 	strne	r0, [ip, #0]!
    1bd4:	840c0000 	strhi	r0, [ip], #-0
    1bd8:	6200008d 	andvs	r0, r0, #141	; 0x8d
    1bdc:	0b000008 	bleq	1c04 <_start-0x63fc>
    1be0:	31075101 	tstcc	r7, r1, lsl #2
    1be4:	4f5001f3 	svcmi	0x005001f3
    1be8:	0000241a 	andeq	r2, r0, sl, lsl r4
    1bec:	00058313 	andeq	r8, r5, r3, lsl r3
    1bf0:	011f0100 	tsteq	pc, r0, lsl #2
    1bf4:	00000064 	andeq	r0, r0, r4, rrx
    1bf8:	00008d8c 	andeq	r8, r0, ip, lsl #27
    1bfc:	0000002c 	andeq	r0, r0, ip, lsr #32
    1c00:	040d9c01 	streq	r9, [sp], #-3073	; 0xc01
    1c04:	86140000 	ldrhi	r0, [r4], -r0
    1c08:	01000005 	tsteq	r0, r5
    1c0c:	002c011f 	eoreq	r0, ip, pc, lsl r1
    1c10:	15ec0000 	strbne	r0, [ip, #0]!
    1c14:	9c110000 	ldcls	0, cr0, [r1], {-0}
    1c18:	4100008d 	smlabbmi	r0, sp, r0, r0
    1c1c:	00000008 	andeq	r0, r0, r8
    1c20:	00064115 	andeq	r4, r6, r5, lsl r1
    1c24:	012e0100 	teqeq	lr, r0, lsl #2
    1c28:	00008db8 			; <UNDEFINED> instruction: 0x00008db8
    1c2c:	00000084 	andeq	r0, r0, r4, lsl #1
    1c30:	04d19c01 	ldrbeq	r9, [r1], #3073	; 0xc01
    1c34:	70160000 	andsvc	r0, r6, r0
    1c38:	01006e69 	tsteq	r0, r9, ror #28
    1c3c:	002c012e 	eoreq	r0, ip, lr, lsr #2
    1c40:	160d0000 	strne	r0, [sp], -r0
    1c44:	ba170000 	blt	5c1c4c <__bss_end__+0x5b7c0c>
    1c48:	01000005 	tsteq	r0, r5
    1c4c:	002c0140 	eoreq	r0, ip, r0, asr #2
    1c50:	16390000 	ldrtne	r0, [r9], -r0
    1c54:	d4180000 	ldrle	r0, [r8], #-0
    1c58:	1c00008d 	stcne	0, cr0, [r0], {141}	; 0x8d
    1c5c:	73000000 	movwvc	r0, #0
    1c60:	17000004 	strne	r0, [r0, -r4]
    1c64:	000006a3 	andeq	r0, r0, r3, lsr #13
    1c68:	2c013701 	stccs	7, cr3, [r1], {1}
    1c6c:	57000000 	strpl	r0, [r0, -r0]
    1c70:	11000016 	tstne	r0, r6, lsl r0
    1c74:	00008de0 	andeq	r8, r0, r0, ror #27
    1c78:	00000841 	andeq	r0, r0, r1, asr #16
    1c7c:	008df011 	addeq	pc, sp, r1, lsl r0	; <UNPREDICTABLE>
    1c80:	00086200 	andeq	r6, r8, r0, lsl #4
    1c84:	f4180000 			; <UNDEFINED> instruction: 0xf4180000
    1c88:	2000008d 	andcs	r0, r0, sp, lsl #1
    1c8c:	a3000000 	movwge	r0, #0
    1c90:	17000004 	strne	r0, [r0, -r4]
    1c94:	000006a3 	andeq	r0, r0, r3, lsr #13
    1c98:	2c013b01 	stccs	11, cr3, [r1], {1}
    1c9c:	75000000 	strvc	r0, [r0, #-0]
    1ca0:	11000016 	tstne	r0, r6, lsl r0
    1ca4:	00008e00 	andeq	r8, r0, r0, lsl #28
    1ca8:	00000841 	andeq	r0, r0, r1, asr #16
    1cac:	008e1411 	addeq	r1, lr, r1, lsl r4
    1cb0:	00086200 	andeq	r6, r8, r0, lsl #4
    1cb4:	cc110000 	ldcgt	0, cr0, [r1], {-0}
    1cb8:	7e00008d 	cdpvc	0, 0, cr0, cr0, cr13, {4}
    1cbc:	11000008 	tstne	r0, r8
    1cc0:	00008e18 	andeq	r8, r0, r8, lsl lr
    1cc4:	0000087e 	andeq	r0, r0, lr, ror r8
    1cc8:	008e2411 	addeq	r2, lr, r1, lsl r4
    1ccc:	00084100 	andeq	r4, r8, r0, lsl #2
    1cd0:	8e301100 	rsfhis	f1, f0, f0
    1cd4:	08620000 	stmdaeq	r2!, {}^	; <UNPREDICTABLE>
    1cd8:	34110000 	ldrcc	r0, [r1], #-0
    1cdc:	7e00008e 	cdpvc	0, 0, cr0, cr0, cr14, {4}
    1ce0:	00000008 	andeq	r0, r0, r8
    1ce4:	00072015 	andeq	r2, r7, r5, lsl r0
    1ce8:	014b0100 	mrseq	r0, (UNDEF: 91)
    1cec:	00008e3c 	andeq	r8, r0, ip, lsr lr
    1cf0:	00000084 	andeq	r0, r0, r4, lsl #1
    1cf4:	05959c01 	ldreq	r9, [r5, #3073]	; 0xc01
    1cf8:	70160000 	andsvc	r0, r6, r0
    1cfc:	01006e69 	tsteq	r0, r9, ror #28
    1d00:	002c014b 	eoreq	r0, ip, fp, asr #2
    1d04:	16930000 	ldrne	r0, [r3], r0
    1d08:	ba170000 	blt	5c1d10 <__bss_end__+0x5b7cd0>
    1d0c:	01000005 	tsteq	r0, r5
    1d10:	002c015c 	eoreq	r0, ip, ip, asr r1
    1d14:	16bf0000 	ldrtne	r0, [pc], r0
    1d18:	58180000 	ldmdapl	r8, {}	; <UNPREDICTABLE>
    1d1c:	1c00008e 	stcne	0, cr0, [r0], {142}	; 0x8e
    1d20:	37000000 	strcc	r0, [r0, -r0]
    1d24:	17000005 	strne	r0, [r0, -r5]
    1d28:	000006a3 	andeq	r0, r0, r3, lsr #13
    1d2c:	2c015301 	stccs	3, cr5, [r1], {1}
    1d30:	dd000000 	stcle	0, cr0, [r0, #-0]
    1d34:	11000016 	tstne	r0, r6, lsl r0
    1d38:	00008e64 	andeq	r8, r0, r4, ror #28
    1d3c:	00000841 	andeq	r0, r0, r1, asr #16
    1d40:	008e7411 	addeq	r7, lr, r1, lsl r4
    1d44:	00086200 	andeq	r6, r8, r0, lsl #4
    1d48:	78180000 	ldmdavc	r8, {}	; <UNPREDICTABLE>
    1d4c:	2000008e 	andcs	r0, r0, lr, lsl #1
    1d50:	67000000 	strvs	r0, [r0, -r0]
    1d54:	17000005 	strne	r0, [r0, -r5]
    1d58:	000006a3 	andeq	r0, r0, r3, lsr #13
    1d5c:	2c015701 	stccs	7, cr5, [r1], {1}
    1d60:	fb000000 	blx	1d6a <_start-0x6296>
    1d64:	11000016 	tstne	r0, r6, lsl r0
    1d68:	00008e84 	andeq	r8, r0, r4, lsl #29
    1d6c:	00000841 	andeq	r0, r0, r1, asr #16
    1d70:	008e9811 	addeq	r9, lr, r1, lsl r8
    1d74:	00086200 	andeq	r6, r8, r0, lsl #4
    1d78:	50110000 	andspl	r0, r1, r0
    1d7c:	7e00008e 	cdpvc	0, 0, cr0, cr0, cr14, {4}
    1d80:	11000008 	tstne	r0, r8
    1d84:	00008e9c 	muleq	r0, ip, lr
    1d88:	0000087e 	andeq	r0, r0, lr, ror r8
    1d8c:	008ea811 	addeq	sl, lr, r1, lsl r8
    1d90:	00084100 	andeq	r4, r8, r0, lsl #2
    1d94:	8eb41100 	frdhis	f1, f4, f0
    1d98:	08620000 	stmdaeq	r2!, {}^	; <UNPREDICTABLE>
    1d9c:	b8110000 	ldmdalt	r1, {}	; <UNPREDICTABLE>
    1da0:	7e00008e 	cdpvc	0, 0, cr0, cr0, cr14, {4}
    1da4:	00000008 	andeq	r0, r0, r8
    1da8:	00055213 	andeq	r5, r5, r3, lsl r2
    1dac:	01660100 	cmneq	r6, r0, lsl #2
    1db0:	00000064 	andeq	r0, r0, r4, rrx
    1db4:	00008ec0 	andeq	r8, r0, r0, asr #29
    1db8:	00000084 	andeq	r0, r0, r4, lsl #1
    1dbc:	063b9c01 	ldrteq	r9, [fp], -r1, lsl #24
    1dc0:	70160000 	andsvc	r0, r6, r0
    1dc4:	01006e69 	tsteq	r0, r9, ror #28
    1dc8:	002c0166 	eoreq	r0, ip, r6, ror #2
    1dcc:	17190000 	ldrne	r0, [r9, -r0]
    1dd0:	dc180000 	ldcle	0, cr0, [r8], {-0}
    1dd4:	2400008e 	strcs	r0, [r0], #-142	; 0x8e
    1dd8:	ef000000 	svc	0x00000000
    1ddc:	17000005 	strne	r0, [r0, -r5]
    1de0:	000005d1 	ldrdeq	r0, [r0], -r1
    1de4:	2c016d01 	stccs	13, cr6, [r1], {1}
    1de8:	5b000000 	blpl	1df0 <_start-0x6210>
    1dec:	11000017 	tstne	r0, r7, lsl r0
    1df0:	00008ee8 	andeq	r8, r0, r8, ror #29
    1df4:	00000841 	andeq	r0, r0, r1, asr #16
    1df8:	008ef811 	addeq	pc, lr, r1, lsl r8	; <UNPREDICTABLE>
    1dfc:	00087e00 	andeq	r7, r8, r0, lsl #28
    1e00:	00180000 	andseq	r0, r8, r0
    1e04:	2c00008f 	stccs	0, cr0, [r0], {143}	; 0x8f
    1e08:	28000000 	stmdacs	r0, {}	; <UNPREDICTABLE>
    1e0c:	17000006 	strne	r0, [r0, -r6]
    1e10:	000005d1 	ldrdeq	r0, [r0], -r1
    1e14:	2c017001 	stccs	0, cr7, [r1], {1}
    1e18:	75000000 	strvc	r0, [r0, #-0]
    1e1c:	11000017 	tstne	r0, r7, lsl r0
    1e20:	00008f0c 	andeq	r8, r0, ip, lsl #30
    1e24:	00000841 	andeq	r0, r0, r1, asr #16
    1e28:	008f1811 	addeq	r1, pc, r1, lsl r8	; <UNPREDICTABLE>
    1e2c:	00087e00 	andeq	r7, r8, r0, lsl #28
    1e30:	8f241100 	svchi	0x00241100
    1e34:	087e0000 	ldmdaeq	lr!, {}^	; <UNPREDICTABLE>
    1e38:	11000000 	mrsne	r0, (UNDEF: 0)
    1e3c:	00008ed4 	ldrdeq	r8, [r0], -r4
    1e40:	0000087e 	andeq	r0, r0, lr, ror r8
    1e44:	008f3011 	addeq	r3, pc, r1, lsl r0	; <UNPREDICTABLE>
    1e48:	00087e00 	andeq	r7, r8, r0, lsl #28
    1e4c:	76150000 	ldrvc	r0, [r5], -r0
    1e50:	01000006 	tsteq	r0, r6
    1e54:	8f440179 	svchi	0x00440179
    1e58:	00580000 	subseq	r0, r8, r0
    1e5c:	9c010000 	stcls	0, cr0, [r1], {-0}
    1e60:	000006a0 	andeq	r0, r0, r0, lsr #13
    1e64:	6e697016 	mcrvs	0, 3, r7, cr9, cr6, {0}
    1e68:	01790100 	cmneq	r9, r0, lsl #2
    1e6c:	0000002c 	andeq	r0, r0, ip, lsr #32
    1e70:	00001788 	andeq	r1, r0, r8, lsl #15
    1e74:	008f5811 	addeq	r5, pc, r1, lsl r8	; <UNPREDICTABLE>
    1e78:	00087e00 	andeq	r7, r8, r0, lsl #28
    1e7c:	8f740a00 	svchi	0x00740a00
    1e80:	08620000 	stmdaeq	r2!, {}^	; <UNPREDICTABLE>
    1e84:	06800000 	streq	r0, [r0], r0
    1e88:	010b0000 	mrseq	r0, (UNDEF: 11)
    1e8c:	74310451 	ldrtvc	r0, [r1], #-1105	; 0x451
    1e90:	0a002400 	beq	ae98 <__bss_end__+0xe58>
    1e94:	00008f90 	muleq	r0, r0, pc	; <UNPREDICTABLE>
    1e98:	00000862 	andeq	r0, r0, r2, ror #16
    1e9c:	00000696 	muleq	r0, r6, r6
    1ea0:	0451010b 	ldrbeq	r0, [r1], #-267	; 0x10b
    1ea4:	24007431 	strcs	r7, [r0], #-1073	; 0x431
    1ea8:	8f941100 	svchi	0x00941100
    1eac:	087e0000 	ldmdaeq	lr!, {}^	; <UNPREDICTABLE>
    1eb0:	19000000 	stmdbne	r0, {}	; <UNPREDICTABLE>
    1eb4:	00000625 	andeq	r0, r0, r5, lsr #12
    1eb8:	01332801 	teqeq	r3, r1, lsl #16
    1ebc:	03050000 	movweq	r0, #20480	; 0x5000
    1ec0:	000098d4 	ldrdeq	r9, [r0], -r4
    1ec4:	0006b619 	andeq	fp, r6, r9, lsl r6
    1ec8:	33290100 	teqcc	r9, #0, 2
    1ecc:	05000001 	streq	r0, [r0, #-1]
    1ed0:	0098d003 	addseq	sp, r8, r3
    1ed4:	07a71900 	streq	r1, [r7, r0, lsl #18]!
    1ed8:	2a010000 	bcs	41ee0 <__bss_end__+0x37ea0>
    1edc:	00000133 	andeq	r0, r0, r3, lsr r1
    1ee0:	98cc0305 	stmials	ip, {r0, r2, r8, r9}^
    1ee4:	f1190000 			; <UNDEFINED> instruction: 0xf1190000
    1ee8:	01000005 	tsteq	r0, r5
    1eec:	0001332c 	andeq	r3, r1, ip, lsr #6
    1ef0:	78030500 	stmdavc	r3, {r8, sl}
    1ef4:	19000098 	stmdbne	r0, {r3, r4, r7}
    1ef8:	000005f9 	strdeq	r0, [r0], -r9
    1efc:	01332d01 	teqeq	r3, r1, lsl #26
    1f00:	03050000 	movweq	r0, #20480	; 0x5000
    1f04:	0000987c 	andeq	r9, r0, ip, ror r8
    1f08:	00056619 	andeq	r6, r5, r9, lsl r6
    1f0c:	332e0100 	teqcc	lr, #0, 2
    1f10:	05000001 	streq	r0, [r0, #-1]
    1f14:	00988003 	addseq	r8, r8, r3
    1f18:	06011900 	streq	r1, [r1], -r0, lsl #18
    1f1c:	2f010000 	svccs	0x00010000
    1f20:	00000133 	andeq	r0, r0, r3, lsr r1
    1f24:	98840305 	stmls	r4, {r0, r2, r8, r9}
    1f28:	09190000 	ldmdbeq	r9, {}	; <UNPREDICTABLE>
    1f2c:	01000006 	tsteq	r0, r6
    1f30:	00013330 	andeq	r3, r1, r0, lsr r3
    1f34:	88030500 	stmdahi	r3, {r8, sl}
    1f38:	19000098 	stmdbne	r0, {r3, r4, r7}
    1f3c:	00000611 	andeq	r0, r0, r1, lsl r6
    1f40:	01333101 	teqeq	r3, r1, lsl #2
    1f44:	03050000 	movweq	r0, #20480	; 0x5000
    1f48:	0000988c 	andeq	r9, r0, ip, lsl #17
    1f4c:	0005c319 	andeq	ip, r5, r9, lsl r3
    1f50:	33330100 	teqcc	r3, #0, 2
    1f54:	05000001 	streq	r0, [r0, #-1]
    1f58:	00989003 	addseq	r9, r8, r3
    1f5c:	05ca1900 	strbeq	r1, [sl, #2304]	; 0x900
    1f60:	34010000 	strcc	r0, [r1], #-0
    1f64:	00000133 	andeq	r0, r0, r3, lsr r1
    1f68:	98940305 	ldmls	r4, {r0, r2, r8, r9}
    1f6c:	6e190000 	cdpvs	0, 1, cr0, cr9, cr0, {0}
    1f70:	01000005 	tsteq	r0, r5
    1f74:	00013336 	andeq	r3, r1, r6, lsr r3
    1f78:	98030500 	stmdals	r3, {r8, sl}
    1f7c:	19000098 	stmdbne	r0, {r3, r4, r7}
    1f80:	00000630 	andeq	r0, r0, r0, lsr r6
    1f84:	01333701 	teqeq	r3, r1, lsl #14
    1f88:	03050000 	movweq	r0, #20480	; 0x5000
    1f8c:	0000989c 	muleq	r0, ip, r8
    1f90:	0005da19 	andeq	sp, r5, r9, lsl sl
    1f94:	33390100 	teqcc	r9, #0, 2
    1f98:	05000001 	streq	r0, [r0, #-1]
    1f9c:	0098a003 	addseq	sl, r8, r3
    1fa0:	05e11900 	strbeq	r1, [r1, #2304]!	; 0x900
    1fa4:	3a010000 	bcc	41fac <__bss_end__+0x37f6c>
    1fa8:	00000133 	andeq	r0, r0, r3, lsr r1
    1fac:	98a40305 	stmials	r4!, {r0, r2, r8, r9}
    1fb0:	871a0000 	ldrhi	r0, [sl, -r0]
    1fb4:	01000006 	tsteq	r0, r6
    1fb8:	0133010a 	teqeq	r3, sl, lsl #2
    1fbc:	03050000 	movweq	r0, #20480	; 0x5000
    1fc0:	000098c8 	andeq	r9, r0, r8, asr #17
    1fc4:	0006951a 	andeq	r9, r6, sl, lsl r5
    1fc8:	010b0100 	mrseq	r0, (UNDEF: 27)
    1fcc:	00000133 	andeq	r0, r0, r3, lsr r1
    1fd0:	98a80305 	stmials	r8!, {r0, r2, r8, r9}
    1fd4:	d11a0000 	tstle	sl, r0
    1fd8:	01000006 	tsteq	r0, r6
    1fdc:	0133010d 	teqeq	r3, sp, lsl #2
    1fe0:	03050000 	movweq	r0, #20480	; 0x5000
    1fe4:	000098c0 	andeq	r9, r0, r0, asr #17
    1fe8:	0006d81a 	andeq	sp, r6, sl, lsl r8
    1fec:	010e0100 	mrseq	r0, (UNDEF: 30)
    1ff0:	00000133 	andeq	r0, r0, r3, lsr r1
    1ff4:	98c40305 	stmials	r4, {r0, r2, r8, r9}^
    1ff8:	681a0000 	ldmdavs	sl, {}	; <UNPREDICTABLE>
    1ffc:	01000006 	tsteq	r0, r6
    2000:	01330110 	teqeq	r3, r0, lsl r1
    2004:	03050000 	movweq	r0, #20480	; 0x5000
    2008:	000098ac 	andeq	r9, r0, ip, lsr #17
    200c:	00066f1a 	andeq	r6, r6, sl, lsl pc
    2010:	01110100 	tsteq	r1, r0, lsl #2
    2014:	00000133 	andeq	r0, r0, r3, lsr r1
    2018:	98b00305 	ldmls	r0!, {r0, r2, r8, r9}
    201c:	eb1a0000 	bl	682024 <__bss_end__+0x677fe4>
    2020:	01000006 	tsteq	r0, r6
    2024:	01330113 	teqeq	r3, r3, lsl r1
    2028:	03050000 	movweq	r0, #20480	; 0x5000
    202c:	000098b8 			; <UNDEFINED> instruction: 0x000098b8
    2030:	0006f21a 	andeq	pc, r6, sl, lsl r2	; <UNPREDICTABLE>
    2034:	01140100 	tsteq	r4, r0, lsl #2
    2038:	00000133 	andeq	r0, r0, r3, lsr r1
    203c:	98bc0305 	ldmls	ip!, {r0, r2, r8, r9}
    2040:	751a0000 	ldrvc	r0, [sl, #-0]
    2044:	01000005 	tsteq	r0, r5
    2048:	01330116 	teqeq	r3, r6, lsl r1
    204c:	03050000 	movweq	r0, #20480	; 0x5000
    2050:	000098b4 			; <UNDEFINED> instruction: 0x000098b4
    2054:	00071a1b 	andeq	r1, r7, fp, lsl sl
    2058:	2c200100 	stfcss	f0, [r0], #-0
    205c:	56000000 	strpl	r0, [r0], -r0
    2060:	1c000008 	stcne	0, cr0, [r0], {8}
    2064:	00000856 	andeq	r0, r0, r6, asr r8
    2068:	5c040d00 	stcpl	13, cr0, [r4], {-0}
    206c:	1d000008 	stcne	0, cr0, [r0, #-32]	; 0xffffffe0
    2070:	00000861 	andeq	r0, r0, r1, ror #16
    2074:	01a01f1e 	lsleq	r1, lr, pc
    2078:	1e010000 	cdpne	0, 0, cr0, cr1, cr0, {0}
    207c:	00000878 	andeq	r0, r0, r8, ror r8
    2080:	0008781c 	andeq	r7, r8, ip, lsl r8
    2084:	002c1c00 	eoreq	r1, ip, r0, lsl #24
    2088:	0d000000 	stceq	0, cr0, [r0, #-0]
    208c:	00086104 	andeq	r6, r8, r4, lsl #2
    2090:	06192000 	ldreq	r2, [r9], -r0
    2094:	8a030000 	bhi	c209c <__bss_end__+0xb805c>
    2098:	0011f200 	andseq	pc, r1, r0, lsl #4
    209c:	a9000400 	stmdbge	r0, {sl}
    20a0:	0400000b 	streq	r0, [r0], #-11
    20a4:	0001e701 	andeq	lr, r1, r1, lsl #14
    20a8:	08460100 	stmdaeq	r6, {r8}^
    20ac:	02520000 	subseq	r0, r2, #0
    20b0:	8f9c0000 	svchi	0x009c0000
    20b4:	06680000 	strbteq	r0, [r8], -r0
    20b8:	09d30000 	ldmibeq	r3, {}^	; <UNPREDICTABLE>
    20bc:	04020000 	streq	r0, [r2], #-0
    20c0:	746e6905 	strbtvc	r6, [lr], #-2309	; 0x905
    20c4:	07040300 	streq	r0, [r4, -r0, lsl #6]
    20c8:	0000003c 	andeq	r0, r0, ip, lsr r0
    20cc:	4b060103 	blmi	1824e0 <__bss_end__+0x1784a0>
    20d0:	03000000 	movweq	r0, #0
    20d4:	00f80502 	rscseq	r0, r8, r2, lsl #10
    20d8:	04030000 	streq	r0, [r3], #-0
    20dc:	00000505 	andeq	r0, r0, r5, lsl #10
    20e0:	05080300 	streq	r0, [r8, #-768]	; 0x300
    20e4:	00000000 	andeq	r0, r0, r0
    20e8:	00041a04 	andeq	r1, r4, r4, lsl #20
    20ec:	5a2e0300 	bpl	b82cf4 <__bss_end__+0xb78cb4>
    20f0:	03000000 	movweq	r0, #0
    20f4:	00490801 	subeq	r0, r9, r1, lsl #16
    20f8:	02030000 	andeq	r0, r3, #0
    20fc:	0000e507 	andeq	lr, r0, r7, lsl #10
    2100:	04710400 	ldrbteq	r0, [r1], #-1024	; 0x400
    2104:	34030000 	strcc	r0, [r3], #-0
    2108:	00000073 	andeq	r0, r0, r3, ror r0
    210c:	37070403 	strcc	r0, [r7, -r3, lsl #8]
    2110:	03000000 	movweq	r0, #0
    2114:	00320708 	eorseq	r0, r2, r8, lsl #14
    2118:	04030000 	streq	r0, [r3], #-0
    211c:	00016d07 	andeq	r6, r1, r7, lsl #26
    2120:	06040500 	streq	r0, [r4], -r0, lsl #10
    2124:	00009004 	andeq	r9, r0, r4
    2128:	08010300 	stmdaeq	r1, {r8, r9}
    212c:	00000052 	andeq	r0, r0, r2, asr r0
    2130:	009d0406 	addseq	r0, sp, r6, lsl #8
    2134:	90070000 	andls	r0, r7, r0
    2138:	08000000 	stmdaeq	r0, {}	; <UNPREDICTABLE>
    213c:	d90e040c 	stmdble	lr, {r2, r3, sl}
    2140:	09000000 	stmdbeq	r0, {}	; <UNPREDICTABLE>
    2144:	04007874 	streq	r7, [r0], #-2164	; 0x874
    2148:	00004f0f 	andeq	r4, r0, pc, lsl #30
    214c:	72090000 	andvc	r0, r9, #0
    2150:	0f040078 	svceq	0x00040078
    2154:	0000004f 	andeq	r0, r0, pc, asr #32
    2158:	03e80a01 	mvneq	r0, #4096	; 0x1000
    215c:	10040000 	andne	r0, r4, r0
    2160:	00000068 	andeq	r0, r0, r8, rrx
    2164:	03990a04 	orrseq	r0, r9, #4, 20	; 0x4000
    2168:	11040000 	mrsne	r0, (UNDEF: 4)
    216c:	00000068 	andeq	r0, r0, r8, rrx
    2170:	d1040008 	tstle	r4, r8
    2174:	04000003 	streq	r0, [r0], #-3
    2178:	0000a212 	andeq	sl, r0, r2, lsl r2
    217c:	01ca0400 	biceq	r0, sl, r0, lsl #8
    2180:	28050000 	stmdacs	r5, {}	; <UNPREDICTABLE>
    2184:	000000ef 	andeq	r0, r0, pc, ror #1
    2188:	0002480b 	andeq	r4, r2, fp, lsl #16
    218c:	00090400 	andeq	r0, r9, r0, lsl #8
    2190:	00000106 	andeq	r0, r0, r6, lsl #2
    2194:	00029b0c 	andeq	r9, r2, ip, lsl #22
    2198:	00008800 	andeq	r8, r0, r0, lsl #16
    219c:	04000000 	streq	r0, [r0], #-0
    21a0:	0000024a 	andeq	r0, r0, sl, asr #4
    21a4:	00e46205 	rsceq	r6, r4, r5, lsl #4
    21a8:	0a0d0000 	beq	3421b0 <__bss_end__+0x338170>
    21ac:	02000008 	andeq	r0, r0, #8
    21b0:	013f0309 	teqeq	pc, r9, lsl #6
    21b4:	fc0e0000 	stc2	0, cr0, [lr], {-0}
    21b8:	02000003 	andeq	r0, r0, #3
    21bc:	00002c09 	andeq	r2, r0, r9, lsl #24
    21c0:	006e0f00 	rsbeq	r0, lr, r0, lsl #30
    21c4:	002c0902 	eoreq	r0, ip, r2, lsl #18
    21c8:	11100000 	tstne	r0, r0
    21cc:	000001a6 	andeq	r0, r0, r6, lsr #3
    21d0:	002c0c02 	eoreq	r0, ip, r2, lsl #24
    21d4:	00000000 	andeq	r0, r0, r0
    21d8:	0007bd0d 	andeq	fp, r7, sp, lsl #26
    21dc:	03170200 	tsteq	r7, #0, 4
    21e0:	00000176 	andeq	r0, r0, r6, ror r1
    21e4:	6e69700f 	cdpvs	0, 6, cr7, cr9, cr15, {0}
    21e8:	2c170200 	lfmcs	f0, 4, [r7], {-0}
    21ec:	0f000000 	svceq	0x00000000
    21f0:	17020076 	smlsdxne	r2, r6, r0, r0
    21f4:	0000002c 	andeq	r0, r0, ip, lsr #32
    21f8:	0003fc0e 	andeq	pc, r3, lr, lsl #24
    21fc:	2c170200 	lfmcs	f0, 4, [r7], {-0}
    2200:	0e000000 	cdpeq	0, 0, cr0, cr0, cr0, {0}
    2204:	00000810 	andeq	r0, r0, r0, lsl r8
    2208:	002c1702 	eoreq	r1, ip, r2, lsl #14
    220c:	12000000 	andne	r0, r0, #0
    2210:	0000040d 	andeq	r0, r0, sp, lsl #8
    2214:	8f9c0901 	svchi	0x009c0901
    2218:	01540000 	cmpeq	r4, r0
    221c:	9c010000 	stcls	0, cr0, [r1], {-0}
    2220:	00000722 	andeq	r0, r0, r2, lsr #14
    2224:	0003af13 	andeq	sl, r3, r3, lsl pc
    2228:	22090100 	andcs	r0, r9, #0, 2
    222c:	b4000007 	strlt	r0, [r0], #-7
    2230:	14000017 	strne	r0, [r0], #-23
    2234:	09010063 	stmdbeq	r1, {r0, r1, r5, r6}
    2238:	0000005a 	andeq	r0, r0, sl, asr r0
    223c:	000017d5 	ldrdeq	r1, [r0], -r5
    2240:	00787415 	rsbseq	r7, r8, r5, lsl r4
    2244:	00250b01 	eoreq	r0, r5, r1, lsl #22
    2248:	76060000 	strvc	r0, [r6], -r0
    224c:	1aff0800 	bne	fffc4254 <__bss_end__+0xfffba214>
    2250:	006e169f 	mlseq	lr, pc, r6, r1	; <UNPREDICTABLE>
    2254:	00680c01 	rsbeq	r0, r8, r1, lsl #24
    2258:	17f60000 	ldrbne	r0, [r6, r0]!
    225c:	75160000 	ldrvc	r0, [r6, #-0]
    2260:	680d0100 	stmdavs	sp, {r8}
    2264:	09000000 	stmdbeq	r0, {}	; <UNPREDICTABLE>
    2268:	15000018 	strne	r0, [r0, #-24]
    226c:	0e010073 	mcreq	0, 0, r0, cr1, cr3, {3}
    2270:	00000068 	andeq	r0, r0, r8, rrx
    2274:	ac175401 	cfldrsge	mvf5, [r7], {1}
    2278:	0400008f 	streq	r0, [r0], #-143	; 0x8f
    227c:	f8000000 			; <UNDEFINED> instruction: 0xf8000000
    2280:	18000001 	stmdane	r0, {r0}
    2284:	000001a6 	andeq	r0, r0, r6, lsr #3
    2288:	002c0e01 	eoreq	r0, ip, r1, lsl #28
    228c:	54010000 	strpl	r0, [r1], #-0
    2290:	013f1900 	teqeq	pc, r0, lsl #18
    2294:	8fb00000 	svchi	0x00b00000
    2298:	001c0000 	andseq	r0, ip, r0
    229c:	11010000 	mrsne	r0, (UNDEF: 1)
    22a0:	00000275 	andeq	r0, r0, r5, ror r2
    22a4:	00016a1a 	andeq	r6, r1, sl, lsl sl
    22a8:	00183200 	andseq	r3, r8, r0, lsl #4
    22ac:	015f1b00 	cmpeq	pc, r0, lsl #22
    22b0:	54010000 	strpl	r0, [r1], #-0
    22b4:	0001561c 	andeq	r5, r1, ip, lsl r6
    22b8:	4b1b0000 	blmi	6c22c0 <__bss_end__+0x6b8280>
    22bc:	01000001 	tsteq	r0, r1
    22c0:	01111956 	tsteq	r1, r6, asr r9
    22c4:	8fbc0000 	svchi	0x00bc0000
    22c8:	00100000 	andseq	r0, r0, r0
    22cc:	1a020000 	bne	822d4 <__bss_end__+0x78294>
    22d0:	0000025f 	andeq	r0, r0, pc, asr r2
    22d4:	0001281a 	andeq	r2, r1, sl, lsl r8
    22d8:	00184500 	andseq	r4, r8, r0, lsl #10
    22dc:	011d1b00 	tsteq	sp, r0, lsl #22
    22e0:	54010000 	strpl	r0, [r1], #-0
    22e4:	008fbc1d 	addeq	fp, pc, sp, lsl ip	; <UNPREDICTABLE>
    22e8:	00000400 	andeq	r0, r0, r0, lsl #8
    22ec:	01321e00 	teqeq	r2, r0, lsl #28
    22f0:	18580000 	ldmdane	r8, {}^	; <UNPREDICTABLE>
    22f4:	00000000 	andeq	r0, r0, r0
    22f8:	008fbc1f 	addeq	fp, pc, pc, lsl ip	; <UNPREDICTABLE>
    22fc:	00115900 	andseq	r5, r1, r0, lsl #18
    2300:	51012000 	mrspl	r2, (UNDEF: 1)
    2304:	01203001 	teqeq	r0, r1
    2308:	00760250 	rsbseq	r0, r6, r0, asr r2
    230c:	3f190000 	svccc	0x00190000
    2310:	d0000001 	andle	r0, r0, r1
    2314:	1c00008f 	stcne	0, cr0, [r0], {143}	; 0x8f
    2318:	01000000 	mrseq	r0, (UNDEF: 0)
    231c:	0002f813 	andeq	pc, r2, r3, lsl r8	; <UNPREDICTABLE>
    2320:	016a1a00 	cmneq	sl, r0, lsl #20
    2324:	186b0000 	stmdane	fp!, {}^	; <UNPREDICTABLE>
    2328:	5f1b0000 	svcpl	0x001b0000
    232c:	01000001 	tsteq	r0, r1
    2330:	01561a54 	cmpeq	r6, r4, asr sl
    2334:	188d0000 	stmne	sp, {}	; <UNPREDICTABLE>
    2338:	4b1b0000 	blmi	6c2340 <__bss_end__+0x6b8300>
    233c:	01000001 	tsteq	r0, r1
    2340:	01111956 	tsteq	r1, r6, asr r9
    2344:	8fdc0000 	svchi	0x00dc0000
    2348:	00100000 	andseq	r0, r0, r0
    234c:	1a020000 	bne	82354 <__bss_end__+0x78314>
    2350:	000002df 	ldrdeq	r0, [r0], -pc	; <UNPREDICTABLE>
    2354:	0001281a 	andeq	r2, r1, sl, lsl r8
    2358:	0018be00 	andseq	fp, r8, r0, lsl #28
    235c:	011d1b00 	tsteq	sp, r0, lsl #22
    2360:	54010000 	strpl	r0, [r1], #-0
    2364:	008fdc1d 	addeq	sp, pc, sp, lsl ip	; <UNPREDICTABLE>
    2368:	00000400 	andeq	r0, r0, r0, lsl #8
    236c:	01321e00 	teqeq	r2, r0, lsl #28
    2370:	18e00000 	stmiane	r0!, {}^	; <UNPREDICTABLE>
    2374:	00000000 	andeq	r0, r0, r0
    2378:	008fdc1f 	addeq	sp, pc, pc, lsl ip	; <UNPREDICTABLE>
    237c:	00115900 	andseq	r5, r1, r0, lsl #18
    2380:	51012000 	mrspl	r2, (UNDEF: 1)
    2384:	31007704 	tstcc	r0, r4, lsl #14
    2388:	5001201a 	andpl	r2, r1, sl, lsl r0
    238c:	00007602 	andeq	r7, r0, r2, lsl #12
    2390:	013f1900 	teqeq	pc, r0, lsl #18
    2394:	8ff00000 	svchi	0x00f00000	; IMB
    2398:	001c0000 	andseq	r0, ip, r0
    239c:	15010000 	strne	r0, [r1, #-0]
    23a0:	00000380 	andeq	r0, r0, r0, lsl #7
    23a4:	00016a1a 	andeq	r6, r1, sl, lsl sl
    23a8:	0018f300 	andseq	pc, r8, r0, lsl #6
    23ac:	015f1b00 	cmpeq	pc, r0, lsl #22
    23b0:	54010000 	strpl	r0, [r1], #-0
    23b4:	0001561b 	andeq	r5, r1, fp, lsl r6
    23b8:	00770800 	rsbseq	r0, r7, r0, lsl #16
    23bc:	ff081a32 			; <UNDEFINED> instruction: 0xff081a32
    23c0:	4b1b9f1a 	blmi	6ea030 <__bss_end__+0x6dfff0>
    23c4:	01000001 	tsteq	r0, r1
    23c8:	01111956 	tsteq	r1, r6, asr r9
    23cc:	8ffc0000 	svchi	0x00fc0000
    23d0:	00100000 	andseq	r0, r0, r0
    23d4:	1a020000 	bne	823dc <__bss_end__+0x7839c>
    23d8:	00000367 	andeq	r0, r0, r7, ror #6
    23dc:	0001281a 	andeq	r2, r1, sl, lsl r8
    23e0:	00191800 	andseq	r1, r9, r0, lsl #16
    23e4:	011d1b00 	tsteq	sp, r0, lsl #22
    23e8:	54010000 	strpl	r0, [r1], #-0
    23ec:	008ffc1d 	addeq	pc, pc, sp, lsl ip	; <UNPREDICTABLE>
    23f0:	00000400 	andeq	r0, r0, r0, lsl #8
    23f4:	01321e00 	teqeq	r2, r0, lsl #28
    23f8:	193d0000 	ldmdbne	sp!, {}	; <UNPREDICTABLE>
    23fc:	00000000 	andeq	r0, r0, r0
    2400:	008ffc1f 	addeq	pc, pc, pc, lsl ip	; <UNPREDICTABLE>
    2404:	00115900 	andseq	r5, r1, r0, lsl #18
    2408:	51012000 	mrspl	r2, (UNDEF: 1)
    240c:	32007704 	andcc	r7, r0, #4, 14	; 0x100000
    2410:	5001201a 	andpl	r2, r1, sl, lsl r0
    2414:	00007602 	andeq	r7, r0, r2, lsl #12
    2418:	013f1900 	teqeq	pc, r0, lsl #18
    241c:	90100000 	andsls	r0, r0, r0
    2420:	001c0000 	andseq	r0, ip, r0
    2424:	17010000 	strne	r0, [r1, -r0]
    2428:	00000408 	andeq	r0, r0, r8, lsl #8
    242c:	00016a1a 	andeq	r6, r1, sl, lsl sl
    2430:	00195000 	andseq	r5, r9, r0
    2434:	015f1b00 	cmpeq	pc, r0, lsl #22
    2438:	54010000 	strpl	r0, [r1], #-0
    243c:	0001561b 	andeq	r5, r1, fp, lsl r6
    2440:	00770800 	rsbseq	r0, r7, r0, lsl #16
    2444:	ff081a34 			; <UNDEFINED> instruction: 0xff081a34
    2448:	4b1b9f1a 	blmi	6ea0b8 <__bss_end__+0x6e0078>
    244c:	01000001 	tsteq	r0, r1
    2450:	01111956 	tsteq	r1, r6, asr r9
    2454:	901c0000 	andsls	r0, ip, r0
    2458:	00100000 	andseq	r0, r0, r0
    245c:	1a020000 	bne	82464 <__bss_end__+0x78424>
    2460:	000003ef 	andeq	r0, r0, pc, ror #7
    2464:	0001281a 	andeq	r2, r1, sl, lsl r8
    2468:	00197200 	andseq	r7, r9, r0, lsl #4
    246c:	011d1b00 	tsteq	sp, r0, lsl #22
    2470:	54010000 	strpl	r0, [r1], #-0
    2474:	00901c1d 	addseq	r1, r0, sp, lsl ip
    2478:	00000400 	andeq	r0, r0, r0, lsl #8
    247c:	01321e00 	teqeq	r2, r0, lsl #28
    2480:	19940000 	ldmibne	r4, {}	; <UNPREDICTABLE>
    2484:	00000000 	andeq	r0, r0, r0
    2488:	00901c1f 	addseq	r1, r0, pc, lsl ip
    248c:	00115900 	andseq	r5, r1, r0, lsl #18
    2490:	51012000 	mrspl	r2, (UNDEF: 1)
    2494:	34007704 	strcc	r7, [r0], #-1796	; 0x704
    2498:	5001201a 	andpl	r2, r1, sl, lsl r0
    249c:	00007602 	andeq	r7, r0, r2, lsl #12
    24a0:	013f1900 	teqeq	pc, r0, lsl #18
    24a4:	90300000 	eorsls	r0, r0, r0
    24a8:	001c0000 	andseq	r0, ip, r0
    24ac:	19010000 	stmdbne	r1, {}	; <UNPREDICTABLE>
    24b0:	00000490 	muleq	r0, r0, r4
    24b4:	00016a1a 	andeq	r6, r1, sl, lsl sl
    24b8:	0019a700 	andseq	sl, r9, r0, lsl #14
    24bc:	015f1b00 	cmpeq	pc, r0, lsl #22
    24c0:	54010000 	strpl	r0, [r1], #-0
    24c4:	0001561b 	andeq	r5, r1, fp, lsl r6
    24c8:	00770800 	rsbseq	r0, r7, r0, lsl #16
    24cc:	ff081a38 			; <UNDEFINED> instruction: 0xff081a38
    24d0:	4b1b9f1a 	blmi	6ea140 <__bss_end__+0x6e0100>
    24d4:	01000001 	tsteq	r0, r1
    24d8:	01111956 	tsteq	r1, r6, asr r9
    24dc:	903c0000 	eorsls	r0, ip, r0
    24e0:	00100000 	andseq	r0, r0, r0
    24e4:	1a020000 	bne	824ec <__bss_end__+0x784ac>
    24e8:	00000477 	andeq	r0, r0, r7, ror r4
    24ec:	0001281a 	andeq	r2, r1, sl, lsl r8
    24f0:	0019cc00 	andseq	ip, r9, r0, lsl #24
    24f4:	011d1b00 	tsteq	sp, r0, lsl #22
    24f8:	54010000 	strpl	r0, [r1], #-0
    24fc:	00903c1d 	addseq	r3, r0, sp, lsl ip
    2500:	00000400 	andeq	r0, r0, r0, lsl #8
    2504:	01321e00 	teqeq	r2, r0, lsl #28
    2508:	19f10000 	ldmibne	r1!, {}^	; <UNPREDICTABLE>
    250c:	00000000 	andeq	r0, r0, r0
    2510:	00903c1f 	addseq	r3, r0, pc, lsl ip
    2514:	00115900 	andseq	r5, r1, r0, lsl #18
    2518:	51012000 	mrspl	r2, (UNDEF: 1)
    251c:	38007704 	stmdacc	r0, {r2, r8, r9, sl, ip, sp, lr}
    2520:	5001201a 	andpl	r2, r1, sl, lsl r0
    2524:	00007602 	andeq	r7, r0, r2, lsl #12
    2528:	013f1900 	teqeq	pc, r0, lsl #18
    252c:	90500000 	subsls	r0, r0, r0
    2530:	001c0000 	andseq	r0, ip, r0
    2534:	1b010000 	blne	4253c <__bss_end__+0x384fc>
    2538:	00000518 	andeq	r0, r0, r8, lsl r5
    253c:	00016a1a 	andeq	r6, r1, sl, lsl sl
    2540:	001a0400 	andseq	r0, sl, r0, lsl #8
    2544:	015f1b00 	cmpeq	pc, r0, lsl #22
    2548:	54010000 	strpl	r0, [r1], #-0
    254c:	0001561b 	andeq	r5, r1, fp, lsl r6
    2550:	00770800 	rsbseq	r0, r7, r0, lsl #16
    2554:	ff081a40 			; <UNDEFINED> instruction: 0xff081a40
    2558:	4b1b9f1a 	blmi	6ea1c8 <__bss_end__+0x6e0188>
    255c:	01000001 	tsteq	r0, r1
    2560:	01111956 	tsteq	r1, r6, asr r9
    2564:	905c0000 	subsls	r0, ip, r0
    2568:	00100000 	andseq	r0, r0, r0
    256c:	1a020000 	bne	82574 <__bss_end__+0x78534>
    2570:	000004ff 	strdeq	r0, [r0], -pc	; <UNPREDICTABLE>
    2574:	0001281a 	andeq	r2, r1, sl, lsl r8
    2578:	001a2b00 	andseq	r2, sl, r0, lsl #22
    257c:	011d1b00 	tsteq	sp, r0, lsl #22
    2580:	54010000 	strpl	r0, [r1], #-0
    2584:	00905c1d 	addseq	r5, r0, sp, lsl ip
    2588:	00000400 	andeq	r0, r0, r0, lsl #8
    258c:	01321e00 	teqeq	r2, r0, lsl #28
    2590:	1a520000 	bne	1482598 <__bss_end__+0x1478558>
    2594:	00000000 	andeq	r0, r0, r0
    2598:	00905c1f 	addseq	r5, r0, pc, lsl ip
    259c:	00115900 	andseq	r5, r1, r0, lsl #18
    25a0:	51012000 	mrspl	r2, (UNDEF: 1)
    25a4:	40007704 	andmi	r7, r0, r4, lsl #14
    25a8:	5001201a 	andpl	r2, r1, sl, lsl r0
    25ac:	00007602 	andeq	r7, r0, r2, lsl #12
    25b0:	013f1900 	teqeq	pc, r0, lsl #18
    25b4:	90700000 	rsbsls	r0, r0, r0
    25b8:	001c0000 	andseq	r0, ip, r0
    25bc:	1d010000 	stcne	0, cr0, [r1, #-0]
    25c0:	000005a2 	andeq	r0, r0, r2, lsr #11
    25c4:	00016a1a 	andeq	r6, r1, sl, lsl sl
    25c8:	001a6500 	andseq	r6, sl, r0, lsl #10
    25cc:	015f1b00 	cmpeq	pc, r0, lsl #22
    25d0:	54010000 	strpl	r0, [r1], #-0
    25d4:	0001561b 	andeq	r5, r1, fp, lsl r6
    25d8:	00770900 	rsbseq	r0, r7, r0, lsl #18
    25dc:	081a2008 	ldmdaeq	sl, {r3, sp}
    25e0:	1b9f1aff 	blne	fe7c91e4 <__bss_end__+0xfe7bf1a4>
    25e4:	0000014b 	andeq	r0, r0, fp, asr #2
    25e8:	11195601 	tstne	r9, r1, lsl #12
    25ec:	7c000001 	stcvc	0, cr0, [r0], {1}
    25f0:	10000090 	mulne	r0, r0, r0
    25f4:	02000000 	andeq	r0, r0, #0
    25f8:	0005881a 	andeq	r8, r5, sl, lsl r8
    25fc:	01281a00 	teqeq	r8, r0, lsl #20
    2600:	1a8f0000 	bne	fe3c2608 <__bss_end__+0xfe3b85c8>
    2604:	1d1b0000 	ldcne	0, cr0, [fp, #-0]
    2608:	01000001 	tsteq	r0, r1
    260c:	907c1d54 	rsbsls	r1, ip, r4, asr sp
    2610:	00040000 	andeq	r0, r4, r0
    2614:	321e0000 	andscc	r0, lr, #0
    2618:	b9000001 	stmdblt	r0, {r0}
    261c:	0000001a 	andeq	r0, r0, sl, lsl r0
    2620:	907c1f00 	rsbsls	r1, ip, r0, lsl #30
    2624:	11590000 	cmpne	r9, r0
    2628:	01200000 	teqeq	r0, r0
    262c:	00770551 	rsbseq	r0, r7, r1, asr r5
    2630:	201a2008 	andscs	r2, sl, r8
    2634:	76025001 	strvc	r5, [r2], -r1
    2638:	19000000 	stmdbne	r0, {}	; <UNPREDICTABLE>
    263c:	0000013f 	andeq	r0, r0, pc, lsr r1
    2640:	00009090 	muleq	r0, r0, r0
    2644:	0000001c 	andeq	r0, r0, ip, lsl r0
    2648:	062c1f01 	strteq	r1, [ip], -r1, lsl #30
    264c:	6a1a0000 	bvs	682654 <__bss_end__+0x678614>
    2650:	cc000001 	stcgt	0, cr0, [r0], {1}
    2654:	1b00001a 	blne	26c4 <_start-0x593c>
    2658:	0000015f 	andeq	r0, r0, pc, asr r1
    265c:	561b5401 	ldrpl	r5, [fp], -r1, lsl #8
    2660:	09000001 	stmdbeq	r0, {r0}
    2664:	40080077 	andmi	r0, r8, r7, ror r0
    2668:	1aff081a 	bne	fffc46d8 <__bss_end__+0xfffba698>
    266c:	014b1b9f 			; <UNDEFINED> instruction: 0x014b1b9f
    2670:	56010000 	strpl	r0, [r1], -r0
    2674:	00011119 	andeq	r1, r1, r9, lsl r1
    2678:	00909c00 	addseq	r9, r0, r0, lsl #24
    267c:	00001000 	andeq	r1, r0, r0
    2680:	121a0200 	andsne	r0, sl, #0, 4
    2684:	1a000006 	bne	26a4 <_start-0x595c>
    2688:	00000128 	andeq	r0, r0, r8, lsr #2
    268c:	00001aee 	andeq	r1, r0, lr, ror #21
    2690:	00011d1b 	andeq	r1, r1, fp, lsl sp
    2694:	1d540100 	ldfnee	f0, [r4, #-0]
    2698:	0000909c 	muleq	r0, ip, r0
    269c:	00000004 	andeq	r0, r0, r4
    26a0:	0001321e 	andeq	r3, r1, lr, lsl r2
    26a4:	001b1000 	andseq	r1, fp, r0
    26a8:	1f000000 	svcne	0x00000000
    26ac:	0000909c 	muleq	r0, ip, r0
    26b0:	00001159 	andeq	r1, r0, r9, asr r1
    26b4:	05510120 	ldrbeq	r0, [r1, #-288]	; 0x120
    26b8:	40080077 	andmi	r0, r8, r7, ror r0
    26bc:	5001201a 	andpl	r2, r1, sl, lsl r0
    26c0:	00007602 	andeq	r7, r0, r2, lsl #12
    26c4:	013f1900 	teqeq	pc, r0, lsl #18
    26c8:	90b00000 	adcsls	r0, r0, r0
    26cc:	001c0000 	andseq	r0, ip, r0
    26d0:	21010000 	mrscs	r0, (UNDEF: 1)
    26d4:	000006ac 	andeq	r0, r0, ip, lsr #13
    26d8:	00016a1b 	andeq	r6, r1, fp, lsl sl
    26dc:	1b580100 	blne	1602ae4 <__bss_end__+0x15f8aa4>
    26e0:	0000015f 	andeq	r0, r0, pc, asr r1
    26e4:	561a5401 	ldrpl	r5, [sl], -r1, lsl #8
    26e8:	23000001 	movwcs	r0, #1
    26ec:	1b00001b 	blne	2760 <_start-0x58a0>
    26f0:	0000014b 	andeq	r0, r0, fp, asr #2
    26f4:	11195601 	tstne	r9, r1, lsl #12
    26f8:	bc000001 	stclt	0, cr0, [r0], {1}
    26fc:	10000090 	mulne	r0, r0, r0
    2700:	02000000 	andeq	r0, r0, #0
    2704:	0006921a 	andeq	r9, r6, sl, lsl r2
    2708:	01281b00 	teqeq	r8, r0, lsl #22
    270c:	58010000 	stmdapl	r1, {}	; <UNPREDICTABLE>
    2710:	00011d1b 	andeq	r1, r1, fp, lsl sp
    2714:	1d540100 	ldfnee	f0, [r4, #-0]
    2718:	000090bc 	strheq	r9, [r0], -ip
    271c:	00000004 	andeq	r0, r0, r4
    2720:	0001321e 	andeq	r3, r1, lr, lsl r2
    2724:	001b5600 	andseq	r5, fp, r0, lsl #12
    2728:	1f000000 	svcne	0x00000000
    272c:	000090bc 	strheq	r9, [r0], -ip
    2730:	00001159 	andeq	r1, r0, r9, asr r1
    2734:	05510120 	ldrbeq	r0, [r1, #-288]	; 0x120
    2738:	80080077 	andhi	r0, r8, r7, ror r0
    273c:	5001201a 	andpl	r2, r1, sl, lsl r0
    2740:	00007602 	andeq	r7, r0, r2, lsl #12
    2744:	013f2100 	teqeq	pc, r0, lsl #2
    2748:	90d00000 	sbcsls	r0, r0, r0
    274c:	001c0000 	andseq	r0, ip, r0
    2750:	23010000 	movwcs	r0, #4096	; 0x1000
    2754:	00016a1b 	andeq	r6, r1, fp, lsl sl
    2758:	1b550100 	blne	1542b60 <__bss_end__+0x1538b20>
    275c:	0000015f 	andeq	r0, r0, pc, asr r1
    2760:	561c5401 	ldrpl	r5, [ip], -r1, lsl #8
    2764:	01000001 	tsteq	r0, r1
    2768:	00014b1b 	andeq	r4, r1, fp, lsl fp
    276c:	19560100 	ldmdbne	r6, {r8}^
    2770:	00000111 	andeq	r0, r0, r1, lsl r1
    2774:	000090dc 	ldrdeq	r9, [r0], -ip
    2778:	00000010 	andeq	r0, r0, r0, lsl r0
    277c:	070b1a02 	streq	r1, [fp, -r2, lsl #20]
    2780:	281b0000 	ldmdacs	fp, {}	; <UNPREDICTABLE>
    2784:	01000001 	tsteq	r0, r1
    2788:	011d1b55 	tsteq	sp, r5, asr fp
    278c:	54010000 	strpl	r0, [r1], #-0
    2790:	0090dc1d 	addseq	sp, r0, sp, lsl ip
    2794:	00000400 	andeq	r0, r0, r0, lsl #8
    2798:	01321e00 	teqeq	r2, r0, lsl #28
    279c:	1b690000 	blne	1a427a4 <__bss_end__+0x1a38764>
    27a0:	00000000 	andeq	r0, r0, r0
    27a4:	0090dc1f 	addseq	sp, r0, pc, lsl ip
    27a8:	00115900 	andseq	r5, r1, r0, lsl #18
    27ac:	51012000 	mrspl	r2, (UNDEF: 1)
    27b0:	01203101 	teqeq	r0, r1, lsl #2
    27b4:	00760250 	rsbseq	r0, r6, r0, asr r2
    27b8:	06000000 	streq	r0, [r0], -r0
    27bc:	0000d904 	andeq	sp, r0, r4, lsl #18
    27c0:	089f2200 	ldmeq	pc, {r9, sp}	; <UNPREDICTABLE>
    27c4:	27010000 	strcs	r0, [r1, -r0]
    27c8:	00000025 	andeq	r0, r0, r5, lsr #32
    27cc:	00076203 	andeq	r6, r7, r3, lsl #4
    27d0:	78720f00 	ldmdavc	r2!, {r8, r9, sl, fp}^
    27d4:	25270100 	strcs	r0, [r7, #-256]!	; 0x100
    27d8:	0f000000 	svceq	0x00000000
    27dc:	27010076 	smlsdxcs	r1, r6, r0, r0
    27e0:	00000025 	andeq	r0, r0, r5, lsr #32
    27e4:	00082c0e 	andeq	r2, r8, lr, lsl #24
    27e8:	2c270100 	stfcss	f0, [r7], #-0
    27ec:	11000000 	mrsne	r0, (UNDEF: 0)
    27f0:	000003fc 	strdeq	r0, [r0], -ip
    27f4:	002c2801 	eoreq	r2, ip, r1, lsl #16
    27f8:	23000000 	movwcs	r0, #0
    27fc:	000007cd 	andeq	r0, r0, sp, asr #15
    2800:	00253401 	eoreq	r3, r5, r1, lsl #8
    2804:	90f00000 	rscsls	r0, r0, r0
    2808:	01c80000 	biceq	r0, r8, r0
    280c:	9c010000 	stcls	0, cr0, [r1], {-0}
    2810:	00000b1e 	andeq	r0, r0, lr, lsl fp
    2814:	0003af13 	andeq	sl, r3, r3, lsl pc
    2818:	22340100 	eorscs	r0, r4, #0, 2
    281c:	7c000007 	stcvc	0, cr0, [r0], {7}
    2820:	1300001b 	movwne	r0, #27
    2824:	0000082c 	andeq	r0, r0, ip, lsr #16
    2828:	00253401 	eoreq	r3, r5, r1, lsl #8
    282c:	1bc10000 	blne	ff042834 <__bss_end__+0xff0387f4>
    2830:	72150000 	andsvc	r0, r5, #0
    2834:	35010078 	strcc	r0, [r1, #-120]	; 0x78
    2838:	00000025 	andeq	r0, r0, r5, lsr #32
    283c:	73165501 	tstvc	r6, #4194304	; 0x400000
    2840:	2c3c0100 	ldfcss	f0, [ip], #-0
    2844:	df000000 	svcle	0x00000000
    2848:	1600001b 			; <UNDEFINED> instruction: 0x1600001b
    284c:	3f010075 	svccc	0x00010075
    2850:	00000068 	andeq	r0, r0, r8, rrx
    2854:	00001bf2 	strdeq	r1, [r0], -r2
    2858:	01006e16 	tsteq	r0, r6, lsl lr
    285c:	00002c40 	andeq	r2, r0, r0, asr #24
    2860:	001c0500 	andseq	r0, ip, r0, lsl #10
    2864:	00631600 	rsbeq	r1, r3, r0, lsl #12
    2868:	002c4101 	eoreq	r4, ip, r1, lsl #2
    286c:	1c1c0000 	ldcne	0, cr0, [ip], {-0}
    2870:	28190000 	ldmdacs	r9, {}	; <UNPREDICTABLE>
    2874:	04000007 	streq	r0, [r0], #-7
    2878:	34000091 	strcc	r0, [r0], #-145	; 0x91
    287c:	01000000 	mrseq	r0, (UNDEF: 0)
    2880:	00083c38 	andeq	r3, r8, r8, lsr ip
    2884:	074b1a00 	strbeq	r1, [fp, -r0, lsl #20]
    2888:	1c460000 	marne	acc0, r0, r6
    288c:	421c0000 	andsmi	r0, ip, #0
    2890:	00000007 	andeq	r0, r0, r7
    2894:	0007381b 	andeq	r3, r7, fp, lsl r8
    2898:	1d550100 	ldfnee	f0, [r5, #-0]
    289c:	00009104 	andeq	r9, r0, r4, lsl #2
    28a0:	00000034 	andeq	r0, r0, r4, lsr r0
    28a4:	0007561e 	andeq	r5, r7, lr, lsl r6
    28a8:	001c6400 	andseq	r6, ip, r0, lsl #8
    28ac:	91082400 	tstls	r8, r0, lsl #8
    28b0:	116f0000 	cmnne	pc, r0
    28b4:	14250000 	strtne	r0, [r5], #-0
    28b8:	7a000091 	bvc	2b04 <_start-0x54fc>
    28bc:	31000011 	tstcc	r0, r1, lsl r0
    28c0:	20000008 	andcs	r0, r0, r8
    28c4:	75025001 	strvc	r5, [r2, #-1]
    28c8:	20240000 	eorcs	r0, r4, r0
    28cc:	6f000091 	svcvs	0x00000091
    28d0:	00000011 	andeq	r0, r0, r1, lsl r0
    28d4:	91401700 	cmpls	r0, r0, lsl #14
    28d8:	00040000 	andeq	r0, r4, r0
    28dc:	08590000 	ldmdaeq	r9, {}^	; <UNPREDICTABLE>
    28e0:	a6260000 	strtge	r0, [r6], -r0
    28e4:	01000001 	tsteq	r0, r1
    28e8:	00002c3c 	andeq	r2, r0, ip, lsr ip
    28ec:	001c8200 	andseq	r8, ip, r0, lsl #4
    28f0:	11190000 	tstne	r9, r0
    28f4:	4c000001 	stcmi	0, cr0, [r0], {1}
    28f8:	10000091 	mulne	r0, r1, r0
    28fc:	01000000 	mrseq	r0, (UNDEF: 0)
    2900:	00089244 	andeq	r9, r8, r4, asr #4
    2904:	01281a00 	teqeq	r8, r0, lsl #20
    2908:	1c950000 	ldcne	0, cr0, [r5], {0}
    290c:	1d1a0000 	ldcne	0, cr0, [sl, #-0]
    2910:	ba000001 	blt	291c <_start-0x56e4>
    2914:	1d00001c 	stcne	0, cr0, [r0, #-112]	; 0xffffff90
    2918:	0000914c 	andeq	r9, r0, ip, asr #2
    291c:	00000004 	andeq	r0, r0, r4
    2920:	0001321e 	andeq	r3, r1, lr, lsl r2
    2924:	001ccd00 	andseq	ip, ip, r0, lsl #26
    2928:	19000000 	stmdbne	r0, {}	; <UNPREDICTABLE>
    292c:	00000111 	andeq	r0, r0, r1, lsl r1
    2930:	0000916c 	andeq	r9, r0, ip, ror #2
    2934:	00000010 	andeq	r0, r0, r0, lsl r0
    2938:	08cb4801 	stmiaeq	fp, {r0, fp, lr}^
    293c:	281a0000 	ldmdacs	sl, {}	; <UNPREDICTABLE>
    2940:	e0000001 	and	r0, r0, r1
    2944:	1a00001c 	bne	29bc <_start-0x5644>
    2948:	0000011d 	andeq	r0, r0, sp, lsl r1
    294c:	00001cf3 	strdeq	r1, [r0], -r3
    2950:	00916c1d 	addseq	r6, r1, sp, lsl ip
    2954:	00000400 	andeq	r0, r0, r0, lsl #8
    2958:	01321e00 	teqeq	r2, r0, lsl #28
    295c:	1d060000 	stcne	0, cr0, [r6, #-0]
    2960:	00000000 	andeq	r0, r0, r0
    2964:	00011119 	andeq	r1, r1, r9, lsl r1
    2968:	00919000 	addseq	r9, r1, r0
    296c:	00001000 	andeq	r1, r0, r0
    2970:	044b0100 	strbeq	r0, [fp], #-256	; 0x100
    2974:	1a000009 	bne	29a0 <_start-0x5660>
    2978:	00000128 	andeq	r0, r0, r8, lsr #2
    297c:	00001d19 	andeq	r1, r0, r9, lsl sp
    2980:	00011d1a 	andeq	r1, r1, sl, lsl sp
    2984:	001d2c00 	andseq	r2, sp, r0, lsl #24
    2988:	91901d00 	orrsls	r1, r0, r0, lsl #26
    298c:	00040000 	andeq	r0, r4, r0
    2990:	321e0000 	andscc	r0, lr, #0
    2994:	3f000001 	svccc	0x00000001
    2998:	0000001d 	andeq	r0, r0, sp, lsl r0
    299c:	01111900 	tsteq	r1, r0, lsl #18
    29a0:	91b40000 			; <UNDEFINED> instruction: 0x91b40000
    29a4:	00100000 	andseq	r0, r0, r0
    29a8:	4e010000 	cdpmi	0, 0, cr0, cr1, cr0, {0}
    29ac:	0000093d 	andeq	r0, r0, sp, lsr r9
    29b0:	0001281a 	andeq	r2, r1, sl, lsl r8
    29b4:	001d5200 	andseq	r5, sp, r0, lsl #4
    29b8:	011d1a00 	tsteq	sp, r0, lsl #20
    29bc:	1d650000 	stclne	0, cr0, [r5, #-0]
    29c0:	b41d0000 	ldrlt	r0, [sp], #-0
    29c4:	04000091 	streq	r0, [r0], #-145	; 0x91
    29c8:	1e000000 	cdpne	0, 0, cr0, cr0, cr0, {0}
    29cc:	00000132 	andeq	r0, r0, r2, lsr r1
    29d0:	00001d78 	andeq	r1, r0, r8, ror sp
    29d4:	11190000 	tstne	r9, r0
    29d8:	d8000001 	stmdale	r0, {r0}
    29dc:	10000091 	mulne	r0, r1, r0
    29e0:	01000000 	mrseq	r0, (UNDEF: 0)
    29e4:	00097651 	andeq	r7, r9, r1, asr r6
    29e8:	01281a00 	teqeq	r8, r0, lsl #20
    29ec:	1d8b0000 	stcne	0, cr0, [fp]
    29f0:	1d1a0000 	ldcne	0, cr0, [sl, #-0]
    29f4:	9e000001 	cdpls	0, 0, cr0, cr0, cr1, {0}
    29f8:	1d00001d 	stcne	0, cr0, [r0, #-116]	; 0xffffff8c
    29fc:	000091d8 	ldrdeq	r9, [r0], -r8
    2a00:	00000004 	andeq	r0, r0, r4
    2a04:	0001321e 	andeq	r3, r1, lr, lsl r2
    2a08:	001db100 	andseq	fp, sp, r0, lsl #2
    2a0c:	19000000 	stmdbne	r0, {}	; <UNPREDICTABLE>
    2a10:	00000111 	andeq	r0, r0, r1, lsl r1
    2a14:	000091fc 	strdeq	r9, [r0], -ip
    2a18:	00000010 	andeq	r0, r0, r0, lsl r0
    2a1c:	09af5401 	stmibeq	pc!, {r0, sl, ip, lr}	; <UNPREDICTABLE>
    2a20:	281a0000 	ldmdacs	sl, {}	; <UNPREDICTABLE>
    2a24:	c4000001 	strgt	r0, [r0], #-1
    2a28:	1a00001d 	bne	2aa4 <_start-0x555c>
    2a2c:	0000011d 	andeq	r0, r0, sp, lsl r1
    2a30:	00001dd7 	ldrdeq	r1, [r0], -r7
    2a34:	0091fc1d 	addseq	pc, r1, sp, lsl ip	; <UNPREDICTABLE>
    2a38:	00000400 	andeq	r0, r0, r0, lsl #8
    2a3c:	01321e00 	teqeq	r2, r0, lsl #28
    2a40:	1dea0000 	stclne	0, cr0, [sl]
    2a44:	00000000 	andeq	r0, r0, r0
    2a48:	00011119 	andeq	r1, r1, r9, lsl r1
    2a4c:	00922000 	addseq	r2, r2, r0
    2a50:	00001000 	andeq	r1, r0, r0
    2a54:	e8570100 	ldmda	r7, {r8}^
    2a58:	1a000009 	bne	2a84 <_start-0x557c>
    2a5c:	00000128 	andeq	r0, r0, r8, lsr #2
    2a60:	00001dfd 	strdeq	r1, [r0], -sp
    2a64:	00011d1a 	andeq	r1, r1, sl, lsl sp
    2a68:	001e1000 	andseq	r1, lr, r0
    2a6c:	92201d00 	eorls	r1, r0, #0, 26
    2a70:	00040000 	andeq	r0, r4, r0
    2a74:	321e0000 	andscc	r0, lr, #0
    2a78:	23000001 	movwcs	r0, #1
    2a7c:	0000001e 	andeq	r0, r0, lr, lsl r0
    2a80:	01111900 	tsteq	r1, r0, lsl #18
    2a84:	92440000 	subls	r0, r4, #0
    2a88:	00100000 	andseq	r0, r0, r0
    2a8c:	5a010000 	bpl	42a94 <__bss_end__+0x38a54>
    2a90:	00000a1d 	andeq	r0, r0, sp, lsl sl
    2a94:	0001281a 	andeq	r2, r1, sl, lsl r8
    2a98:	001e3600 	andseq	r3, lr, r0, lsl #12
    2a9c:	011d2700 	tsteq	sp, r0, lsl #14
    2aa0:	441d0000 	ldrmi	r0, [sp], #-0
    2aa4:	04000092 	streq	r0, [r0], #-146	; 0x92
    2aa8:	1e000000 	cdpne	0, 0, cr0, cr0, cr0, {0}
    2aac:	00000132 	andeq	r0, r0, r2, lsr r1
    2ab0:	00001e49 	andeq	r1, r0, r9, asr #28
    2ab4:	28190000 	ldmdacs	r9, {}	; <UNPREDICTABLE>
    2ab8:	64000007 	strvs	r0, [r0], #-7
    2abc:	34000092 	strcc	r0, [r0], #-146	; 0x92
    2ac0:	01000000 	mrseq	r0, (UNDEF: 0)
    2ac4:	000a8161 	andeq	r8, sl, r1, ror #2
    2ac8:	074b2700 	strbeq	r2, [fp, -r0, lsl #14]
    2acc:	421a0000 	andsmi	r0, sl, #0
    2ad0:	5c000007 	stcpl	0, cr0, [r0], {7}
    2ad4:	1a00001e 	bne	2b54 <_start-0x54ac>
    2ad8:	00000738 	andeq	r0, r0, r8, lsr r7
    2adc:	00001e7c 	andeq	r1, r0, ip, ror lr
    2ae0:	0092641d 	addseq	r6, r2, sp, lsl r4
    2ae4:	00003400 	andeq	r3, r0, r0, lsl #8
    2ae8:	07561e00 	ldrbeq	r1, [r6, -r0, lsl #28]
    2aec:	1e9a0000 	cdpne	0, 9, cr0, cr10, cr0, {0}
    2af0:	68240000 	stmdavs	r4!, {}	; <UNPREDICTABLE>
    2af4:	6f000092 	svcvs	0x00000092
    2af8:	25000011 	strcs	r0, [r0, #-17]
    2afc:	00009274 	andeq	r9, r0, r4, ror r2
    2b00:	0000117a 	andeq	r1, r0, sl, ror r1
    2b04:	00000a76 	andeq	r0, r0, r6, ror sl
    2b08:	02500120 	subseq	r0, r0, #32, 2
    2b0c:	24000075 	strcs	r0, [r0], #-117	; 0x75
    2b10:	00009280 	andeq	r9, r0, r0, lsl #5
    2b14:	0000116f 	andeq	r1, r0, pc, ror #2
    2b18:	68250000 	stmdavs	r5!, {}	; <UNPREDICTABLE>
    2b1c:	7a000091 	bvc	2d68 <_start-0x5298>
    2b20:	95000011 	strls	r0, [r0, #-17]
    2b24:	2000000a 	andcs	r0, r0, sl
    2b28:	75025001 	strvc	r5, [r2, #-1]
    2b2c:	88250000 	stmdahi	r5!, {}	; <UNPREDICTABLE>
    2b30:	7a000091 	bvc	2d7c <_start-0x5284>
    2b34:	a9000011 	stmdbge	r0, {r0, r4}
    2b38:	2000000a 	andcs	r0, r0, sl
    2b3c:	75025001 	strvc	r5, [r2, #-1]
    2b40:	ac250000 	stcge	0, cr0, [r5], #-0
    2b44:	7a000091 	bvc	2d90 <_start-0x5270>
    2b48:	bd000011 	stclt	0, cr0, [r0, #-68]	; 0xffffffbc
    2b4c:	2000000a 	andcs	r0, r0, sl
    2b50:	75025001 	strvc	r5, [r2, #-1]
    2b54:	d0250000 	eorle	r0, r5, r0
    2b58:	7a000091 	bvc	2da4 <_start-0x525c>
    2b5c:	d1000011 	tstle	r0, r1, lsl r0
    2b60:	2000000a 	andcs	r0, r0, sl
    2b64:	75025001 	strvc	r5, [r2, #-1]
    2b68:	f4250000 	vld4.8	{d0-d3}, [r5], r0
    2b6c:	7a000091 	bvc	2db8 <_start-0x5248>
    2b70:	e5000011 	str	r0, [r0, #-17]
    2b74:	2000000a 	andcs	r0, r0, sl
    2b78:	75025001 	strvc	r5, [r2, #-1]
    2b7c:	18250000 	stmdane	r5!, {}	; <UNPREDICTABLE>
    2b80:	7a000092 	bvc	2dd0 <_start-0x5230>
    2b84:	f9000011 			; <UNDEFINED> instruction: 0xf9000011
    2b88:	2000000a 	andcs	r0, r0, sl
    2b8c:	75025001 	strvc	r5, [r2, #-1]
    2b90:	3c250000 	stccc	0, cr0, [r5], #-0
    2b94:	7a000092 	bvc	2de4 <_start-0x521c>
    2b98:	0d000011 	stceq	0, cr0, [r0, #-68]	; 0xffffffbc
    2b9c:	2000000b 	andcs	r0, r0, fp
    2ba0:	75025001 	strvc	r5, [r2, #-1]
    2ba4:	5c1f0000 	ldcpl	0, cr0, [pc], {-0}
    2ba8:	7a000092 	bvc	2df8 <_start-0x5208>
    2bac:	20000011 	andcs	r0, r0, r1, lsl r0
    2bb0:	75025001 	strvc	r5, [r2, #-1]
    2bb4:	23000000 	movwcs	r0, #0
    2bb8:	000007e2 	andeq	r0, r0, r2, ror #15
    2bbc:	00256c01 	eoreq	r6, r5, r1, lsl #24
    2bc0:	92b80000 	adcsls	r0, r8, #0
    2bc4:	00a40000 	adceq	r0, r4, r0
    2bc8:	9c010000 	stcls	0, cr0, [r1], {-0}
    2bcc:	00000c0c 	andeq	r0, r0, ip, lsl #24
    2bd0:	01007514 	tsteq	r0, r4, lsl r5
    2bd4:	0007226c 	andeq	r2, r7, ip, ror #4
    2bd8:	001eb800 	andseq	fp, lr, r0, lsl #16
    2bdc:	75621400 	strbvc	r1, [r2, #-1024]!	; 0x400
    2be0:	6c010066 	stcvs	0, cr0, [r1], {102}	; 0x66
    2be4:	00000c0c 	andeq	r0, r0, ip, lsl #24
    2be8:	00001efa 	strdeq	r1, [r0], -sl
    2bec:	00087413 	andeq	r7, r8, r3, lsl r4
    2bf0:	686c0100 	stmdavs	ip!, {r8}^
    2bf4:	3c000000 	stccc	0, cr0, [r0], {-0}
    2bf8:	1400001f 	strne	r0, [r0], #-31
    2bfc:	00646e65 	rsbeq	r6, r4, r5, ror #28
    2c00:	004f6c01 	subeq	r6, pc, r1, lsl #24
    2c04:	1f830000 	svcne	0x00830000
    2c08:	7b280000 	blvc	a02c10 <__bss_end__+0x9f8bd0>
    2c0c:	01000008 	tsteq	r0, r8
    2c10:	0000686c 	andeq	r6, r0, ip, ror #16
    2c14:	00910200 	addseq	r0, r1, r0, lsl #4
    2c18:	0002dc29 	andeq	sp, r2, r9, lsr #24
    2c1c:	000c2200 	andeq	r2, ip, r0, lsl #4
    2c20:	1c030500 	cfstr32ne	mvfx0, [r3], {-0}
    2c24:	1600009b 			; <UNDEFINED> instruction: 0x1600009b
    2c28:	70010069 	andvc	r0, r1, r9, rrx
    2c2c:	00000025 	andeq	r0, r0, r5, lsr #32
    2c30:	00001fbd 			; <UNDEFINED> instruction: 0x00001fbd
    2c34:	00085726 	andeq	r5, r8, r6, lsr #14
    2c38:	4f710100 	svcmi	0x00710100
    2c3c:	e7000000 	str	r0, [r0, -r0]
    2c40:	2400001f 	strcs	r0, [r0], #-31
    2c44:	000092dc 	ldrdeq	r9, [r0], -ip
    2c48:	0000118f 	andeq	r1, r0, pc, lsl #3
    2c4c:	0092f825 	addseq	pc, r2, r5, lsr #16
    2c50:	00119600 	andseq	r9, r1, r0, lsl #12
    2c54:	000bec00 	andeq	lr, fp, r0, lsl #24
    2c58:	53012000 	movwpl	r2, #4096	; 0x1000
    2c5c:	206d0802 	rsbcs	r0, sp, r2, lsl #16
    2c60:	03055201 	movweq	r5, #20993	; 0x5201
    2c64:	00009b1c 	andeq	r9, r0, ip, lsl fp
    2c68:	05510120 	ldrbeq	r0, [r1, #-288]	; 0x120
    2c6c:	009b9403 	addseq	r9, fp, r3, lsl #8
    2c70:	50012000 	andpl	r2, r1, r0
    2c74:	9a1c0305 	bls	703890 <__bss_end__+0x6f9850>
    2c78:	02200000 	eoreq	r0, r0, #0
    2c7c:	0305007d 	movweq	r0, #20605	; 0x507d
    2c80:	00009ba8 	andeq	r9, r0, r8, lsr #23
    2c84:	92fc2400 	rscsls	r2, ip, #0, 8
    2c88:	11ac0000 			; <UNDEFINED> instruction: 0x11ac0000
    2c8c:	181f0000 	ldmdane	pc, {}	; <UNPREDICTABLE>
    2c90:	62000093 	andvs	r0, r0, #147	; 0x93
    2c94:	20000007 	andcs	r0, r0, r7
    2c98:	7a025101 	bvc	970a4 <__bss_end__+0x8d064>
    2c9c:	50012000 	andpl	r2, r1, r0
    2ca0:	00007802 	andeq	r7, r0, r2, lsl #16
    2ca4:	4f040600 	svcmi	0x00040600
    2ca8:	2a000000 	bcs	2cb0 <_start-0x5350>
    2cac:	00000090 	muleq	r0, r0, r0
    2cb0:	00000c22 	andeq	r0, r0, r2, lsr #24
    2cb4:	0000812b 	andeq	r8, r0, fp, lsr #2
    2cb8:	07001200 	streq	r1, [r0, -r0, lsl #4]
    2cbc:	00000c12 	andeq	r0, r0, r2, lsl ip
    2cc0:	00085f23 	andeq	r5, r8, r3, lsr #30
    2cc4:	25800100 	strcs	r0, [r0, #256]	; 0x100
    2cc8:	5c000000 	stcpl	0, cr0, [r0], {-0}
    2ccc:	90000093 	mulls	r0, r3, r0
    2cd0:	01000000 	mrseq	r0, (UNDEF: 0)
    2cd4:	000cf89c 	muleq	ip, ip, r8
    2cd8:	00751400 	rsbseq	r1, r5, r0, lsl #8
    2cdc:	07228001 	streq	r8, [r2, -r1]!
    2ce0:	1ffa0000 	svcne	0x00fa0000
    2ce4:	62140000 	andsvs	r0, r4, #0
    2ce8:	01006675 	tsteq	r0, r5, ror r6
    2cec:	000c0c80 	andeq	r0, ip, r0, lsl #25
    2cf0:	00203c00 	eoreq	r3, r0, r0, lsl #24
    2cf4:	08741300 	ldmdaeq	r4!, {r8, r9, ip}^
    2cf8:	81010000 	mrshi	r0, (UNDEF: 1)
    2cfc:	00000068 	andeq	r0, r0, r8, rrx
    2d00:	0000207e 	andeq	r2, r0, lr, ror r0
    2d04:	00087b13 	andeq	r7, r8, r3, lsl fp
    2d08:	68810100 	stmvs	r1, {r8}
    2d0c:	c5000000 	strgt	r0, [r0, #-0]
    2d10:	29000020 	stmdbcs	r0, {r5}
    2d14:	000002dc 	ldrdeq	r0, [r0], -ip
    2d18:	00000d08 	andeq	r0, r0, r8, lsl #26
    2d1c:	9b300305 	blls	c03938 <__bss_end__+0xbf98f8>
    2d20:	69160000 	ldmdbvs	r6, {}	; <UNPREDICTABLE>
    2d24:	25860100 	strcs	r0, [r6, #256]	; 0x100
    2d28:	07000000 	streq	r0, [r0, -r0]
    2d2c:	24000021 	strcs	r0, [r0], #-33	; 0x21
    2d30:	0000937c 	andeq	r9, r0, ip, ror r3
    2d34:	0000118f 	andeq	r1, r0, pc, lsl #3
    2d38:	00939825 	addseq	r9, r3, r5, lsr #16
    2d3c:	00119600 	andseq	r9, r1, r0, lsl #12
    2d40:	000cd800 	andeq	sp, ip, r0, lsl #16
    2d44:	53012000 	movwpl	r2, #4096	; 0x1000
    2d48:	20830802 	addcs	r0, r3, r2, lsl #16
    2d4c:	03055201 	movweq	r5, #20993	; 0x5201
    2d50:	00009b30 	andeq	r9, r0, r0, lsr fp
    2d54:	05510120 	ldrbeq	r0, [r1, #-288]	; 0x120
    2d58:	009b9403 	addseq	r9, fp, r3, lsl #8
    2d5c:	50012000 	andpl	r2, r1, r0
    2d60:	9a1c0305 	bls	70397c <__bss_end__+0x6f993c>
    2d64:	02200000 	eoreq	r0, r0, #0
    2d68:	0305007d 	movweq	r0, #20605	; 0x507d
    2d6c:	00009ba8 	andeq	r9, r0, r8, lsr #23
    2d70:	939c2400 	orrsls	r2, ip, #0, 8
    2d74:	11ac0000 			; <UNDEFINED> instruction: 0x11ac0000
    2d78:	b81f0000 	ldmdalt	pc, {}	; <UNPREDICTABLE>
    2d7c:	62000093 	andvs	r0, r0, #147	; 0x93
    2d80:	20000007 	andcs	r0, r0, r7
    2d84:	78025101 	stmdavc	r2, {r0, r8, ip, lr}
    2d88:	50012000 	andpl	r2, r1, r0
    2d8c:	00007702 	andeq	r7, r0, r2, lsl #14
    2d90:	00902a00 	addseq	r2, r0, r0, lsl #20
    2d94:	0d080000 	stceq	0, cr0, [r8, #-0]
    2d98:	812b0000 	teqhi	fp, r0
    2d9c:	14000000 	strne	r0, [r0], #-0
    2da0:	0cf80700 	ldcleq	7, cr0, [r8]
    2da4:	18230000 	stmdane	r3!, {}	; <UNPREDICTABLE>
    2da8:	01000008 	tsteq	r0, r8
    2dac:	0000d993 	muleq	r0, r3, r9
    2db0:	0093ec00 	addseq	lr, r3, r0, lsl #24
    2db4:	0000d400 	andeq	sp, r0, r0, lsl #8
    2db8:	329c0100 	addscc	r0, ip, #0, 2
    2dbc:	1400000e 	strne	r0, [r0], #-14
    2dc0:	01007874 	tsteq	r0, r4, ror r8
    2dc4:	00004f93 	muleq	r0, r3, pc	; <UNPREDICTABLE>
    2dc8:	00213100 	eoreq	r3, r1, r0, lsl #2
    2dcc:	78721400 	ldmdavc	r2!, {sl, ip}^
    2dd0:	4f930100 	svcmi	0x00930100
    2dd4:	52000000 	andpl	r0, r0, #0
    2dd8:	13000021 	movwne	r0, #33	; 0x21
    2ddc:	000003e8 	andeq	r0, r0, r8, ror #7
    2de0:	00689301 	rsbeq	r9, r8, r1, lsl #6
    2de4:	21730000 	cmncs	r3, r0
    2de8:	b1280000 	teqlt	r8, r0
    2dec:	01000007 	tsteq	r0, r7
    2df0:	00006893 	muleq	r0, r3, r8
    2df4:	00910200 	addseq	r0, r1, r0, lsl #4
    2df8:	7a686d2c 	bvc	1a1e2b0 <__bss_end__+0x1a14270>
    2dfc:	2c9b0100 	ldfcss	f0, [fp], {0}
    2e00:	00000000 	andeq	r0, r0, r0
    2e04:	2629b927 	strtcs	fp, [r9], -r7, lsr #18
    2e08:	00000802 	andeq	r0, r0, r2, lsl #16
    2e0c:	002c9c01 	eoreq	r9, ip, r1, lsl #24
    2e10:	219d0000 	orrscs	r0, sp, r0
    2e14:	dc290000 	stcle	0, cr0, [r9], #-0
    2e18:	42000002 	andmi	r0, r0, #2
    2e1c:	0500000e 	streq	r0, [r0, #-14]
    2e20:	009b4803 	addseq	r4, fp, r3, lsl #16
    2e24:	94181700 	ldrls	r1, [r8], #-1792	; 0x700
    2e28:	00080000 	andeq	r0, r8, r0
    2e2c:	0da50000 	stceq	0, cr0, [r5]
    2e30:	692d0000 	pushvs	{}	; <UNPREDICTABLE>
    2e34:	9701006e 	strls	r0, [r1, -lr, rrx]
    2e38:	0000002c 	andeq	r0, r0, ip, lsr #32
    2e3c:	10250001 	eorne	r0, r5, r1
    2e40:	b3000094 	movwlt	r0, #148	; 0x94
    2e44:	b9000011 	stmdblt	r0, {r0, r4}
    2e48:	2000000d 	andcs	r0, r0, sp
    2e4c:	76025001 	strvc	r5, [r2], -r1
    2e50:	18250000 	stmdane	r5!, {}	; <UNPREDICTABLE>
    2e54:	c4000094 	strgt	r0, [r0], #-148	; 0x94
    2e58:	cd000011 	stcgt	0, cr0, [r0, #-68]	; 0xffffffbc
    2e5c:	2000000d 	andcs	r0, r0, sp
    2e60:	78025001 	stmdavc	r2, {r0, ip, lr}
    2e64:	2c250000 	stccs	0, cr0, [r5], #-0
    2e68:	59000094 	stmdbpl	r0, {r2, r4, r7}
    2e6c:	e6000011 			; <UNDEFINED> instruction: 0xe6000011
    2e70:	2000000d 	andcs	r0, r0, sp
    2e74:	31015101 	tstcc	r1, r1, lsl #2
    2e78:	02500120 	subseq	r0, r0, #32, 2
    2e7c:	24000076 	strcs	r0, [r0], #-118	; 0x76
    2e80:	00009470 	andeq	r9, r0, r0, ror r4
    2e84:	0000118f 	andeq	r1, r0, pc, lsl #3
    2e88:	00948c25 	addseq	r8, r4, r5, lsr #24
    2e8c:	00119600 	andseq	r9, r1, r0, lsl #12
    2e90:	000e2800 	andeq	r2, lr, r0, lsl #16
    2e94:	53012000 	movwpl	r2, #4096	; 0x1000
    2e98:	209d0802 	addscs	r0, sp, r2, lsl #16
    2e9c:	03055201 	movweq	r5, #20993	; 0x5201
    2ea0:	00009b48 	andeq	r9, r0, r8, asr #22
    2ea4:	05510120 	ldrbeq	r0, [r1, #-288]	; 0x120
    2ea8:	009b9403 	addseq	r9, fp, r3, lsl #8
    2eac:	50012000 	andpl	r2, r1, r0
    2eb0:	9a1c0305 	bls	703acc <__bss_end__+0x6f9a8c>
    2eb4:	02200000 	eoreq	r0, r0, #0
    2eb8:	0305007d 	movweq	r0, #20605	; 0x507d
    2ebc:	00009bb4 			; <UNDEFINED> instruction: 0x00009bb4
    2ec0:	94902400 	ldrls	r2, [r0], #1024	; 0x400
    2ec4:	11ac0000 			; <UNDEFINED> instruction: 0x11ac0000
    2ec8:	2a000000 	bcs	2ed0 <_start-0x5130>
    2ecc:	00000090 	muleq	r0, r0, r0
    2ed0:	00000e42 	andeq	r0, r0, r2, asr #28
    2ed4:	0000812b 	andeq	r8, r0, fp, lsr #2
    2ed8:	07001300 	streq	r1, [r0, -r0, lsl #6]
    2edc:	00000e32 	andeq	r0, r0, r2, lsr lr
    2ee0:	0007f523 	andeq	pc, r7, r3, lsr #10
    2ee4:	25a90100 	strcs	r0, [r9, #256]!	; 0x100
    2ee8:	c0000000 	andgt	r0, r0, r0
    2eec:	3c000094 	stccc	0, cr0, [r0], {148}	; 0x94
    2ef0:	01000000 	mrseq	r0, (UNDEF: 0)
    2ef4:	000eea9c 	muleq	lr, ip, sl
    2ef8:	03af1300 			; <UNDEFINED> instruction: 0x03af1300
    2efc:	a9010000 	stmdbge	r1, {}	; <UNPREDICTABLE>
    2f00:	00000722 	andeq	r0, r0, r2, lsr #14
    2f04:	000021cb 	andeq	r2, r0, fp, asr #3
    2f08:	73657216 	cmnvc	r5, #1610612737	; 0x60000001
    2f0c:	25aa0100 	strcs	r0, [sl, #256]!	; 0x100
    2f10:	ec000000 	stc	0, cr0, [r0], {-0}
    2f14:	29000021 	stmdbcs	r0, {r0, r5}
    2f18:	000002dc 	ldrdeq	r0, [r0], -ip
    2f1c:	00000efa 	strdeq	r0, [r0], -sl
    2f20:	9b5c0305 	blls	1703b3c <__bss_end__+0x16f9afc>
    2f24:	cc250000 	stcgt	0, cr0, [r5], #-0
    2f28:	62000094 	andvs	r0, r0, #148	; 0x94
    2f2c:	a8000007 	stmdage	r0, {r0, r1, r2}
    2f30:	2000000e 	andcs	r0, r0, lr
    2f34:	09025101 	stmdbeq	r2, {r0, r8, ip, lr}
    2f38:	500120ff 	strdpl	r2, [r1], -pc	; <UNPREDICTABLE>
    2f3c:	5001f303 	andpl	pc, r1, r3, lsl #6
    2f40:	94d82400 	ldrbls	r2, [r8], #1024	; 0x400
    2f44:	118f0000 	orrne	r0, pc, r0
    2f48:	ec250000 	stc	0, cr0, [r5], #-0
    2f4c:	96000094 			; <UNDEFINED> instruction: 0x96000094
    2f50:	e0000011 	and	r0, r0, r1, lsl r0
    2f54:	2000000e 	andcs	r0, r0, lr
    2f58:	08025301 	stmdaeq	r2, {r0, r8, r9, ip, lr}
    2f5c:	520120ac 	andpl	r2, r1, #172	; 0xac
    2f60:	9b5c0305 	blls	1703b7c <__bss_end__+0x16f9b3c>
    2f64:	01200000 	teqeq	r0, r0
    2f68:	94030551 	strls	r0, [r3], #-1361	; 0x551
    2f6c:	2000009b 	mulcs	r0, fp, r0
    2f70:	03055001 	movweq	r5, #20481	; 0x5001
    2f74:	00009be8 	andeq	r9, r0, r8, ror #23
    2f78:	94f02400 	ldrbtls	r2, [r0], #1024	; 0x400
    2f7c:	11ac0000 			; <UNDEFINED> instruction: 0x11ac0000
    2f80:	2a000000 	bcs	2f88 <_start-0x5078>
    2f84:	00000090 	muleq	r0, r0, r0
    2f88:	00000efa 	strdeq	r0, [r0], -sl
    2f8c:	0000812b 	andeq	r8, r0, fp, lsr #2
    2f90:	07000c00 	streq	r0, [r0, -r0, lsl #24]
    2f94:	00000eea 	andeq	r0, r0, sl, ror #29
    2f98:	00083912 	andeq	r3, r8, r2, lsl r9
    2f9c:	fcb00100 	ldc2	1, cr0, [r0]
    2fa0:	2c000094 	stccs	0, cr0, [r0], {148}	; 0x94
    2fa4:	01000000 	mrseq	r0, (UNDEF: 0)
    2fa8:	000f439c 	muleq	pc, ip, r3	; <UNPREDICTABLE>
    2fac:	03af1300 			; <UNDEFINED> instruction: 0x03af1300
    2fb0:	b0010000 	andlt	r0, r1, r0
    2fb4:	00000722 	andeq	r0, r0, r2, lsr #14
    2fb8:	000021ff 	strdeq	r2, [r0], -pc	; <UNPREDICTABLE>
    2fbc:	67736d14 			; <UNDEFINED> instruction: 0x67736d14
    2fc0:	97b00100 	ldrls	r0, [r0, r0, lsl #2]!
    2fc4:	1d000000 	stcne	0, cr0, [r0, #-0]
    2fc8:	1f000022 	svcne	0x00000022
    2fcc:	00009514 	andeq	r9, r0, r4, lsl r5
    2fd0:	00000176 	andeq	r0, r0, r6, ror r1
    2fd4:	02500120 	subseq	r0, r0, #32, 2
    2fd8:	00000075 	andeq	r0, r0, r5, ror r0
    2fdc:	0003b423 	andeq	fp, r3, r3, lsr #8
    2fe0:	25b90100 	ldrcs	r0, [r9, #256]!	; 0x100
    2fe4:	28000000 	stmdacs	r0, {}	; <UNPREDICTABLE>
    2fe8:	90000095 	mulls	r0, r5, r0
    2fec:	01000000 	mrseq	r0, (UNDEF: 0)
    2ff0:	0010419c 	mulseq	r0, ip, r1
    2ff4:	03af1300 			; <UNDEFINED> instruction: 0x03af1300
    2ff8:	b9010000 	stmdblt	r1, {}	; <UNPREDICTABLE>
    2ffc:	00000722 	andeq	r0, r0, r2, lsr #14
    3000:	0000223b 	andeq	r2, r0, fp, lsr r2
    3004:	746d662e 	strbtvc	r6, [sp], #-1582	; 0x62e
    3008:	97b90100 	ldrls	r0, [r9, r0, lsl #2]!
    300c:	02000000 	andeq	r0, r0, #0
    3010:	152f7491 	strne	r7, [pc, #-1169]!	; 2b87 <_start-0x5479>
    3014:	00667562 	rsbeq	r7, r6, r2, ror #10
    3018:	1041ba01 	subne	fp, r1, r1, lsl #20
    301c:	91030000 	mrsls	r0, (UNDEF: 3)
    3020:	96187c9c 			; <UNDEFINED> instruction: 0x96187c9c
    3024:	01000002 	tsteq	r0, r2
    3028:	000106bc 			; <UNDEFINED> instruction: 0x000106bc
    302c:	98910300 	ldmls	r1, {r8, r9}
    3030:	7a73167c 	bvc	1cc8a28 <__bss_end__+0x1cbe9e8>
    3034:	25be0100 	ldrcs	r0, [lr, #256]!	; 0x100
    3038:	67000000 	strvs	r0, [r0, -r0]
    303c:	29000022 	stmdbcs	r0, {r1, r5}
    3040:	000002dc 	ldrdeq	r0, [r0], -ip
    3044:	00001062 	andeq	r1, r0, r2, rrx
    3048:	9b6c0305 	blls	1b03c64 <__bss_end__+0x1af9c24>
    304c:	50250000 	eorpl	r0, r5, r0
    3050:	d5000095 	strle	r0, [r0, #-149]	; 0x95
    3054:	de000011 	mcrle	0, 0, r0, cr0, cr1, {0}
    3058:	2000000f 	andcs	r0, r0, pc
    305c:	91025301 	tstls	r2, r1, lsl #6
    3060:	52012058 	andpl	r2, r1, #88	; 0x58
    3064:	06549103 	ldrbeq	r9, [r4], -r3, lsl #2
    3068:	03510120 	cmpeq	r1, #32, 2
    306c:	2001cc0a 	andcs	ip, r1, sl, lsl #24
    3070:	91035001 	tstls	r3, r1
    3074:	24007bfc 	strcs	r7, [r0], #-3068	; 0xbfc
    3078:	00009564 	andeq	r9, r0, r4, ror #10
    307c:	0000118f 	andeq	r1, r0, pc, lsl #3
    3080:	00958025 	addseq	r8, r5, r5, lsr #32
    3084:	00119600 	andseq	r9, r1, r0, lsl #12
    3088:	00102000 	andseq	r2, r0, r0
    308c:	53012000 	movwpl	r2, #4096	; 0x1000
    3090:	20c00802 	sbccs	r0, r0, r2, lsl #16
    3094:	03055201 	movweq	r5, #20993	; 0x5201
    3098:	00009b6c 	andeq	r9, r0, ip, ror #22
    309c:	05510120 	ldrbeq	r0, [r1, #-288]	; 0x120
    30a0:	009b9403 	addseq	r9, fp, r3, lsl #8
    30a4:	50012000 	andpl	r2, r1, r0
    30a8:	9a1c0305 	bls	703cc4 <__bss_end__+0x6f9c84>
    30ac:	02200000 	eoreq	r0, r0, #0
    30b0:	0305007d 	movweq	r0, #20605	; 0x507d
    30b4:	00009c20 	andeq	r9, r0, r0, lsr #24
    30b8:	95842400 	strls	r2, [r4, #1024]	; 0x400
    30bc:	11ac0000 			; <UNDEFINED> instruction: 0x11ac0000
    30c0:	901f0000 	andsls	r0, pc, r0
    30c4:	ff000095 			; <UNDEFINED> instruction: 0xff000095
    30c8:	2000000e 	andcs	r0, r0, lr
    30cc:	91035101 	tstls	r3, r1, lsl #2
    30d0:	01207bfc 	strdeq	r7, [r0, -ip]!
    30d4:	00750250 	rsbseq	r0, r5, r0, asr r2
    30d8:	902a0000 	eorls	r0, sl, r0
    30dc:	52000000 	andpl	r0, r0, #0
    30e0:	30000010 	andcc	r0, r0, r0, lsl r0
    30e4:	00000081 	andeq	r0, r0, r1, lsl #1
    30e8:	2a0001cb 	bcs	381c <_start-0x47e4>
    30ec:	00000090 	muleq	r0, r0, r0
    30f0:	00001062 	andeq	r1, r0, r2, rrx
    30f4:	0000812b 	andeq	r8, r0, fp, lsr #2
    30f8:	07000e00 	streq	r0, [r0, -r0, lsl #28]
    30fc:	00001052 	andeq	r1, r0, r2, asr r0
    3100:	00088823 	andeq	r8, r8, r3, lsr #16
    3104:	25c50100 	strbcs	r0, [r5, #256]	; 0x100
    3108:	b8000000 	stmdalt	r0, {}	; <UNPREDICTABLE>
    310c:	4c000095 	stcmi	0, cr0, [r0], {149}	; 0x95
    3110:	01000000 	mrseq	r0, (UNDEF: 0)
    3114:	0011449c 	mulseq	r1, ip, r4
    3118:	00751400 	rsbseq	r1, r5, r0, lsl #8
    311c:	0722c501 	streq	ip, [r2, -r1, lsl #10]!
    3120:	22a60000 	adccs	r0, r6, #0
    3124:	62140000 	andsvs	r0, r4, #0
    3128:	01006675 	tsteq	r0, r5, ror r6
    312c:	000c0cc5 	andeq	r0, ip, r5, asr #25
    3130:	0022c700 	eoreq	ip, r2, r0, lsl #14
    3134:	08741300 	ldmdaeq	r4!, {r8, r9, ip}^
    3138:	c5010000 	strgt	r0, [r1, #-0]
    313c:	00000068 	andeq	r0, r0, r8, rrx
    3140:	000022e8 	andeq	r2, r0, r8, ror #5
    3144:	646e6514 	strbtvs	r6, [lr], #-1300	; 0x514
    3148:	4fc50100 	svcmi	0x00c50100
    314c:	09000000 	stmdbeq	r0, {}	; <UNPREDICTABLE>
    3150:	16000023 	strne	r0, [r0], -r3, lsr #32
    3154:	00736572 	rsbseq	r6, r3, r2, ror r5
    3158:	0025c601 	eoreq	ip, r5, r1, lsl #12
    315c:	232a0000 	teqcs	sl, #0
    3160:	dc290000 	stcle	0, cr0, [r9], #-0
    3164:	54000002 	strpl	r0, [r0], #-2
    3168:	05000011 	streq	r0, [r0, #-17]
    316c:	009b7c03 	addseq	r7, fp, r3, lsl #24
    3170:	95cc2500 	strbls	r2, [ip, #1280]	; 0x500
    3174:	0b1e0000 	bleq	78317c <__bss_end__+0x77913c>
    3178:	11020000 	mrsne	r0, (UNDEF: 2)
    317c:	01200000 	teqeq	r0, r0
    3180:	01f30352 	mvnseq	r0, r2, asr r3
    3184:	51012052 	qaddpl	r2, r2, r1
    3188:	5101f303 	tstpl	r1, r3, lsl #6
    318c:	03500120 	cmpeq	r0, #32, 2
    3190:	205001f3 	ldrshcs	r0, [r0], #-19	; 0xffffffed
    3194:	02007d02 	andeq	r7, r0, #2, 26	; 0x80
    3198:	2400ff09 	strcs	pc, [r0], #-3849	; 0xf09
    319c:	000095d8 	ldrdeq	r9, [r0], -r8
    31a0:	0000118f 	andeq	r1, r0, pc, lsl #3
    31a4:	0095ec25 	addseq	lr, r5, r5, lsr #24
    31a8:	00119600 	andseq	r9, r1, r0, lsl #12
    31ac:	00113a00 	andseq	r3, r1, r0, lsl #20
    31b0:	53012000 	movwpl	r2, #4096	; 0x1000
    31b4:	20c80802 	sbccs	r0, r8, r2, lsl #16
    31b8:	03055201 	movweq	r5, #20993	; 0x5201
    31bc:	00009b7c 	andeq	r9, r0, ip, ror fp
    31c0:	05510120 	ldrbeq	r0, [r1, #-288]	; 0x120
    31c4:	009b9403 	addseq	r9, fp, r3, lsl #8
    31c8:	50012000 	andpl	r2, r1, r0
    31cc:	9be80305 	blls	ffa03de8 <__bss_end__+0xff9f9da8>
    31d0:	24000000 	strcs	r0, [r0], #-0
    31d4:	000095f0 	strdeq	r9, [r0], -r0
    31d8:	000011ac 	andeq	r1, r0, ip, lsr #3
    31dc:	00902a00 	addseq	r2, r0, r0, lsl #20
    31e0:	11540000 	cmpne	r4, r0
    31e4:	812b0000 	teqhi	fp, r0
    31e8:	16000000 	strne	r0, [r0], -r0
    31ec:	11440700 	cmpne	r4, r0, lsl #14
    31f0:	ab310000 	blge	c431f8 <__bss_end__+0xc391b8>
    31f4:	06000006 	streq	r0, [r0], -r6
    31f8:	00116f21 	andseq	r6, r1, r1, lsr #30
    31fc:	002c3200 	eoreq	r3, ip, r0, lsl #4
    3200:	2c320000 	ldccs	0, cr0, [r2], #-0
    3204:	00000000 	andeq	r0, r0, r0
    3208:	0004f133 	andeq	pc, r4, r3, lsr r1	; <UNPREDICTABLE>
    320c:	2c570700 	mrrccs	7, 0, r0, r7, cr0
    3210:	34000000 	strcc	r0, [r0], #-0
    3214:	00000637 	andeq	r0, r0, r7, lsr r6
    3218:	00252406 	eoreq	r2, r5, r6, lsl #8
    321c:	118f0000 	orrne	r0, pc, r0
    3220:	2c320000 	ldccs	0, cr0, [r2], #-0
    3224:	00000000 	andeq	r0, r0, r0
    3228:	00032d35 	andeq	r2, r3, r5, lsr sp
    322c:	341e0700 	ldrcc	r0, [lr], #-1792	; 0x700
    3230:	00000241 	andeq	r0, r0, r1, asr #4
    3234:	00252907 	eoreq	r2, r5, r7, lsl #18
    3238:	11ac0000 			; <UNDEFINED> instruction: 0x11ac0000
    323c:	97320000 	ldrls	r0, [r2, -r0]!
    3240:	2f000000 	svccs	0x00000000
    3244:	00613500 	rsbeq	r3, r1, r0, lsl #10
    3248:	66070000 	strvs	r0, [r7], -r0
    324c:	0006f931 	andeq	pc, r6, r1, lsr r9	; <UNPREDICTABLE>
    3250:	c41d0600 	ldrgt	r0, [sp], #-1536	; 0x600
    3254:	32000011 	andcc	r0, r0, #17
    3258:	0000002c 	andeq	r0, r0, ip, lsr #32
    325c:	000e3100 	andeq	r3, lr, r0, lsl #2
    3260:	1c060000 	stcne	0, cr0, [r6], {-0}
    3264:	000011d5 	ldrdeq	r1, [r0], -r5
    3268:	00002c32 	andeq	r2, r0, r2, lsr ip
    326c:	3e360000 	cdpcc	0, 3, cr0, cr6, cr0, {0}
    3270:	08000002 	stmdaeq	r0, {r1}
    3274:	00002502 	andeq	r2, r0, r2, lsl #10
    3278:	008a3200 	addeq	r3, sl, r0, lsl #4
    327c:	25320000 	ldrcs	r0, [r2, #-0]!
    3280:	32000000 	andcc	r0, r0, #0
    3284:	00000097 	muleq	r0, r7, r0
    3288:	00010632 	andeq	r0, r1, r2, lsr r6
    328c:	ff000000 			; <UNDEFINED> instruction: 0xff000000
    3290:	04000003 	streq	r0, [r0], #-3
    3294:	000e7b00 	andeq	r7, lr, r0, lsl #22
    3298:	e7010400 	str	r0, [r1, -r0, lsl #8]
    329c:	01000001 	tsteq	r0, r1
    32a0:	00000976 	andeq	r0, r0, r6, ror r9
    32a4:	00000252 	andeq	r0, r0, r2, asr r2
    32a8:	00009604 	andeq	r9, r0, r4, lsl #12
    32ac:	00000154 	andeq	r0, r0, r4, asr r1
    32b0:	00000d20 	andeq	r0, r0, r0, lsr #26
    32b4:	69050402 	stmdbvs	r5, {r1, sl}
    32b8:	0300746e 	movweq	r7, #1134	; 0x46e
    32bc:	003c0704 	eorseq	r0, ip, r4, lsl #14
    32c0:	01030000 	mrseq	r0, (UNDEF: 3)
    32c4:	00004b06 	andeq	r4, r0, r6, lsl #22
    32c8:	05020300 	streq	r0, [r2, #-768]	; 0x300
    32cc:	000000f8 	strdeq	r0, [r0], -r8
    32d0:	05050403 	streq	r0, [r5, #-1027]	; 0x403
    32d4:	03000000 	movweq	r0, #0
    32d8:	00000508 	andeq	r0, r0, r8, lsl #10
    32dc:	01030000 	mrseq	r0, (UNDEF: 3)
    32e0:	00004908 	andeq	r4, r0, r8, lsl #18
    32e4:	07020300 	streq	r0, [r2, -r0, lsl #6]
    32e8:	000000e5 	andeq	r0, r0, r5, ror #1
    32ec:	37070403 	strcc	r0, [r7, -r3, lsl #8]
    32f0:	03000000 	movweq	r0, #0
    32f4:	00320708 	eorseq	r0, r2, r8, lsl #14
    32f8:	04030000 	streq	r0, [r3], #-0
    32fc:	00016d07 	andeq	r6, r1, r7, lsl #26
    3300:	08010300 	stmdaeq	r1, {r8, r9}
    3304:	00000052 	andeq	r0, r0, r2, asr r0
    3308:	0c020104 	stfeqs	f0, [r2], {4}
    330c:	000000b2 	strheq	r0, [r0], -r2
    3310:	00058f05 	andeq	r8, r5, r5, lsl #30
    3314:	09050000 	stmdbeq	r5, {}	; <UNPREDICTABLE>
    3318:	01000007 	tsteq	r0, r7
    331c:	00074205 	andeq	r4, r7, r5, lsl #4
    3320:	51050400 	tstpl	r5, r0, lsl #8
    3324:	05000007 	streq	r0, [r0, #-7]
    3328:	00076005 	andeq	r6, r7, r5
    332c:	6f050600 	svcvs	0x00050600
    3330:	07000007 	streq	r0, [r0, -r7]
    3334:	00077e05 	andeq	r7, r7, r5, lsl #28
    3338:	8d050300 	stchi	3, cr0, [r5, #-0]
    333c:	02000007 	andeq	r0, r0, #7
    3340:	07360600 	ldreq	r0, [r6, -r0, lsl #12]!
    3344:	15020000 	strne	r0, [r2, #-0]
    3348:	00000079 	andeq	r0, r0, r9, ror r0
    334c:	00005707 	andeq	r5, r0, r7, lsl #14
    3350:	04370100 	ldrteq	r0, [r7], #-256	; 0x100
    3354:	9c000096 	stcls	0, cr0, [r0], {150}	; 0x96
    3358:	01000000 	mrseq	r0, (UNDEF: 0)
    335c:	0001c39c 	muleq	r1, ip, r3
    3360:	960c0800 	strls	r0, [ip], -r0, lsl #16
    3364:	03a80000 			; <UNDEFINED> instruction: 0x03a80000
    3368:	18090000 	stmdane	r9, {}	; <UNPREDICTABLE>
    336c:	af000096 	svcge	0x00000096
    3370:	f3000003 	vhadd.u8	d0, d0, d3
    3374:	0a000000 	beq	337c <_start-0x4c84>
    3378:	32015101 	andcc	r5, r1, #1073741824	; 0x40000000
    337c:	0150010a 	cmpeq	r0, sl, lsl #2
    3380:	2409003e 	strcs	r0, [r9], #-62	; 0x3e
    3384:	af000096 	svcge	0x00000096
    3388:	0b000003 	bleq	339c <_start-0x4c64>
    338c:	0a000001 	beq	3398 <_start-0x4c68>
    3390:	32015101 	andcc	r5, r1, #1073741824	; 0x40000000
    3394:	0150010a 	cmpeq	r0, sl, lsl #2
    3398:	2808003f 	stmdacs	r8, {r0, r1, r2, r3, r4, r5}
    339c:	a8000096 	stmdage	r0, {r1, r2, r4, r7}
    33a0:	09000003 	stmdbeq	r0, {r0, r1}
    33a4:	00009638 	andeq	r9, r0, r8, lsr r6
    33a8:	000003c5 	andeq	r0, r0, r5, asr #7
    33ac:	00000128 	andeq	r0, r0, r8, lsr #2
    33b0:	0250010a 	subseq	r0, r0, #-2147483646	; 0x80000002
    33b4:	09000075 	stmdbeq	r0, {r0, r2, r4, r5, r6}
    33b8:	00009644 	andeq	r9, r0, r4, asr #12
    33bc:	000003e6 	andeq	r0, r0, r6, ror #7
    33c0:	0000013c 	andeq	r0, r0, ip, lsr r1
    33c4:	0250010a 	subseq	r0, r0, #-2147483646	; 0x80000002
    33c8:	08000075 	stmdaeq	r0, {r0, r2, r4, r5, r6}
    33cc:	00009648 	andeq	r9, r0, r8, asr #12
    33d0:	000003a8 	andeq	r0, r0, r8, lsr #7
    33d4:	00965409 	addseq	r5, r6, r9, lsl #8
    33d8:	0003e600 	andeq	lr, r3, r0, lsl #12
    33dc:	00015800 	andeq	r5, r1, r0, lsl #16
    33e0:	51010a00 	tstpl	r1, r0, lsl #20
    33e4:	09003001 	stmdbeq	r0, {r0, ip, sp}
    33e8:	00009660 	andeq	r9, r0, r0, ror #12
    33ec:	000003e6 	andeq	r0, r0, r6, ror #7
    33f0:	0000016b 	andeq	r0, r0, fp, ror #2
    33f4:	0151010a 	cmpeq	r1, sl, lsl #2
    33f8:	6c090030 	stcvs	0, cr0, [r9], {48}	; 0x30
    33fc:	e6000096 			; <UNDEFINED> instruction: 0xe6000096
    3400:	7e000003 	cdpvc	0, 0, cr0, cr0, cr3, {0}
    3404:	0a000001 	beq	3410 <_start-0x4bf0>
    3408:	36015101 	strcc	r5, [r1], -r1, lsl #2
    340c:	96780900 	ldrbtls	r0, [r8], -r0, lsl #18
    3410:	03e60000 	mvneq	r0, #0
    3414:	01910000 	orrseq	r0, r1, r0
    3418:	010a0000 	mrseq	r0, (UNDEF: 10)
    341c:	00330151 	eorseq	r0, r3, r1, asr r1
    3420:	00968409 	addseq	r8, r6, r9, lsl #8
    3424:	0003e600 	andeq	lr, r3, r0, lsl #12
    3428:	0001a600 	andeq	sl, r1, r0, lsl #12
    342c:	51010a00 	tstpl	r1, r0, lsl #20
    3430:	010e0a03 	tsteq	lr, r3, lsl #20
    3434:	96900900 	ldrls	r0, [r0], r0, lsl #18
    3438:	03e60000 	mvneq	r0, #0
    343c:	01b90000 			; <UNDEFINED> instruction: 0x01b90000
    3440:	010a0000 	mrseq	r0, (UNDEF: 10)
    3444:	00330151 	eorseq	r0, r3, r1, asr r1
    3448:	00969408 	addseq	r9, r6, r8, lsl #8
    344c:	0003a800 	andeq	sl, r3, r0, lsl #16
    3450:	db0b0000 	blle	2c3458 <__bss_end__+0x2b9418>
    3454:	01000008 	tsteq	r0, r8
    3458:	00002557 	andeq	r2, r0, r7, asr r5
    345c:	0096a000 	addseq	sl, r6, r0
    3460:	00001c00 	andeq	r1, r0, r0, lsl #24
    3464:	e69c0100 	ldr	r0, [ip], r0, lsl #2
    3468:	08000001 	stmdaeq	r0, {r0}
    346c:	000096b0 			; <UNDEFINED> instruction: 0x000096b0
    3470:	000003c5 	andeq	r0, r0, r5, asr #7
    3474:	07f80b00 	ldrbeq	r0, [r8, r0, lsl #22]!
    3478:	5d010000 	stcpl	0, cr0, [r1, #-0]
    347c:	00000025 	andeq	r0, r0, r5, lsr #32
    3480:	000096bc 			; <UNDEFINED> instruction: 0x000096bc
    3484:	00000028 	andeq	r0, r0, r8, lsr #32
    3488:	02129c01 	andseq	r9, r2, #256	; 0x100
    348c:	c4080000 	strgt	r0, [r8], #-0
    3490:	c3000096 	movwgt	r0, #150	; 0x96
    3494:	08000001 	stmdaeq	r0, {r0}
    3498:	000096d8 	ldrdeq	r9, [r0], -r8
    349c:	000003c5 	andeq	r0, r0, r5, asr #7
    34a0:	09250b00 	stmdbeq	r5!, {r8, r9, fp}
    34a4:	64010000 	strvs	r0, [r1], #-0
    34a8:	00000025 	andeq	r0, r0, r5, lsr #32
    34ac:	000096e4 	andeq	r9, r0, r4, ror #13
    34b0:	0000001c 	andeq	r0, r0, ip, lsl r0
    34b4:	02359c01 	eorseq	r9, r5, #256	; 0x100
    34b8:	f4080000 	vst4.8	{d0-d3}, [r8], r0
    34bc:	c5000096 	strgt	r0, [r0, #-150]	; 0x96
    34c0:	00000003 	andeq	r0, r0, r3
    34c4:	00041007 	andeq	r1, r4, r7
    34c8:	006a0100 	rsbeq	r0, sl, r0, lsl #2
    34cc:	2c000097 	stccs	0, cr0, [r0], {151}	; 0x97
    34d0:	01000000 	mrseq	r0, (UNDEF: 0)
    34d4:	0002719c 	muleq	r2, ip, r1
    34d8:	00630c00 	rsbeq	r0, r3, r0, lsl #24
    34dc:	002c6a01 	eoreq	r6, ip, r1, lsl #20
    34e0:	23480000 	movtcs	r0, #32768	; 0x8000
    34e4:	0c080000 	stceq	0, cr0, [r8], {-0}
    34e8:	12000097 	andne	r0, r0, #151	; 0x97
    34ec:	0d000002 	stceq	0, cr0, [r0, #-8]
    34f0:	00009724 	andeq	r9, r0, r4, lsr #14
    34f4:	000003e6 	andeq	r0, r0, r6, ror #7
    34f8:	0251010a 	subseq	r0, r1, #-2147483646	; 0x80000002
    34fc:	00000074 	andeq	r0, r0, r4, ror r0
    3500:	0008f90b 	andeq	pc, r8, fp, lsl #18
    3504:	25740100 	ldrbcs	r0, [r4, #-256]!	; 0x100
    3508:	2c000000 	stccs	0, cr0, [r0], {-0}
    350c:	0c000097 	stceq	0, cr0, [r0], {151}	; 0x97
    3510:	01000000 	mrseq	r0, (UNDEF: 0)
    3514:	0002949c 	muleq	r2, ip, r4
    3518:	97340800 	ldrls	r0, [r4, -r0, lsl #16]!
    351c:	01c30000 	biceq	r0, r3, r0
    3520:	0b000000 	bleq	3528 <_start-0x4ad8>
    3524:	000009a2 	andeq	r0, r0, r2, lsr #19
    3528:	00257801 	eoreq	r7, r5, r1, lsl #16
    352c:	97380000 	ldrls	r0, [r8, -r0]!
    3530:	00200000 	eoreq	r0, r0, r0
    3534:	9c010000 	stcls	0, cr0, [r1], {-0}
    3538:	000002c0 	andeq	r0, r0, r0, asr #5
    353c:	00974008 	addseq	r4, r7, r8
    3540:	00027100 	andeq	r7, r2, r0, lsl #2
    3544:	974c0800 	strbls	r0, [ip, -r0, lsl #16]
    3548:	01e60000 	mvneq	r0, r0
    354c:	0e000000 	cdpeq	0, 0, cr0, cr0, cr0, {0}
    3550:	0000093f 	andeq	r0, r0, pc, lsr r9
    3554:	02d11601 	sbcseq	r1, r1, #1048576	; 0x100000
    3558:	03050000 	movweq	r0, #20480	; 0x5000
    355c:	00009908 	andeq	r9, r0, r8, lsl #18
    3560:	02d7040f 	sbcseq	r0, r7, #251658240	; 0xf000000
    3564:	2c100000 	ldccs	0, cr0, [r0], {-0}
    3568:	0e000000 	cdpeq	0, 0, cr0, cr0, cr0, {0}
    356c:	00000933 	andeq	r0, r0, r3, lsr r9
    3570:	02d11701 	sbcseq	r1, r1, #262144	; 0x40000
    3574:	03050000 	movweq	r0, #20480	; 0x5000
    3578:	000098d8 	ldrdeq	r9, [r0], -r8
    357c:	0008be0e 	andeq	fp, r8, lr, lsl #28
    3580:	d11a0100 	tstle	sl, r0, lsl #2
    3584:	05000002 	streq	r0, [r0, #-2]
    3588:	0098f403 	addseq	pc, r8, r3, lsl #8
    358c:	09070e00 	stmdbeq	r7, {r9, sl, fp}
    3590:	1b010000 	blne	43598 <__bss_end__+0x39558>
    3594:	000002d1 	ldrdeq	r0, [r0], -r1
    3598:	98e00305 	stmials	r0!, {r0, r2, r8, r9}^
    359c:	160e0000 	strne	r0, [lr], -r0
    35a0:	01000009 	tsteq	r0, r9
    35a4:	0002d11c 	andeq	sp, r2, ip, lsl r1
    35a8:	e4030500 	str	r0, [r3], #-1280	; 0x500
    35ac:	0e000098 	mcreq	0, 0, r0, cr0, cr8, {4}
    35b0:	00000984 	andeq	r0, r0, r4, lsl #19
    35b4:	02d11d01 	sbcseq	r1, r1, #1, 26	; 0x40
    35b8:	03050000 	movweq	r0, #20480	; 0x5000
    35bc:	000098e8 	andeq	r9, r0, r8, ror #17
    35c0:	0008af0e 	andeq	sl, r8, lr, lsl #30
    35c4:	d11e0100 	tstle	lr, r0, lsl #2
    35c8:	05000002 	streq	r0, [r0, #-2]
    35cc:	00990403 	addseq	r0, r9, r3, lsl #8
    35d0:	09930e00 	ldmibeq	r3, {r9, sl, fp}
    35d4:	1f010000 	svcne	0x00010000
    35d8:	000002d1 	ldrdeq	r0, [r0], -r1
    35dc:	98f00305 	ldmls	r0!, {r0, r2, r8, r9}^
    35e0:	cc0e0000 	stcgt	0, cr0, [lr], {-0}
    35e4:	01000008 	tsteq	r0, r8
    35e8:	0002d120 	andeq	sp, r2, r0, lsr #2
    35ec:	00030500 	andeq	r0, r3, r0, lsl #10
    35f0:	0e000099 	mcreq	0, 0, r0, cr0, cr9, {4}
    35f4:	00000967 	andeq	r0, r0, r7, ror #18
    35f8:	02d12101 	sbcseq	r2, r1, #1073741824	; 0x40000000
    35fc:	03050000 	movweq	r0, #20480	; 0x5000
    3600:	000098fc 	strdeq	r9, [r0], -ip
    3604:	0008e90e 	andeq	lr, r8, lr, lsl #18
    3608:	d1220100 	teqle	r2, r0, lsl #2
    360c:	05000002 	streq	r0, [r0, #-2]
    3610:	0098dc03 	addseq	sp, r8, r3, lsl #24
    3614:	09570e00 	ldmdbeq	r7, {r9, sl, fp}^
    3618:	23010000 	movwcs	r0, #4096	; 0x1000
    361c:	000002d1 	ldrdeq	r0, [r0], -r1
    3620:	98f80305 	ldmls	r8!, {r0, r2, r8, r9}^
    3624:	470e0000 	strmi	r0, [lr, -r0]
    3628:	01000009 	tsteq	r0, r9
    362c:	0002d124 	andeq	sp, r2, r4, lsr #2
    3630:	ec030500 	cfstr32	mvfx0, [r3], {-0}
    3634:	11000098 	swpne	r0, r8, [r0]	; <UNPREDICTABLE>
    3638:	00000619 	andeq	r0, r0, r9, lsl r6
    363c:	56128a03 	ldrpl	r8, [r2], -r3, lsl #20
    3640:	02000006 	andeq	r0, r0, #6
    3644:	0003c519 	andeq	ip, r3, r9, lsl r5
    3648:	002c1300 	eoreq	r1, ip, r0, lsl #6
    364c:	b2130000 	andslt	r0, r3, #0
    3650:	00000000 	andeq	r0, r0, r0
    3654:	00071a14 	andeq	r1, r7, r4, lsl sl
    3658:	2ca90300 	stccs	3, cr0, [r9]
    365c:	da000000 	ble	3664 <_start-0x499c>
    3660:	13000003 	movwne	r0, #3
    3664:	000003da 	ldrdeq	r0, [r0], -sl
    3668:	e0040f00 	and	r0, r4, r0, lsl #30
    366c:	15000003 	strne	r0, [r0, #-3]
    3670:	000003e5 	andeq	r0, r0, r5, ror #7
    3674:	01a01216 	lsleq	r1, r6, r2
    3678:	9d030000 	stcls	0, cr0, [r3, #-0]
    367c:	000003fc 	strdeq	r0, [r0], -ip
    3680:	0003fc13 	andeq	pc, r3, r3, lsl ip	; <UNPREDICTABLE>
    3684:	002c1300 	eoreq	r1, ip, r0, lsl #6
    3688:	0f000000 	svceq	0x00000000
    368c:	0003e504 	andeq	lr, r3, r4, lsl #10
    3690:	01130000 	tsteq	r3, r0
    3694:	00040000 	andeq	r0, r4, r0
    3698:	00000fa9 	andeq	r0, r0, r9, lsr #31
    369c:	01e70104 	mvneq	r0, r4, lsl #2
    36a0:	c3010000 	movwgt	r0, #4096	; 0x1000
    36a4:	52000009 	andpl	r0, r0, #9
    36a8:	bc000002 	stclt	0, cr0, [r0], {2}
    36ac:	3c000097 	stccc	0, cr0, [r0], {151}	; 0x97
    36b0:	25000000 	strcs	r0, [r0, #-0]
    36b4:	0200000e 	andeq	r0, r0, #14
    36b8:	6e690504 	cdpvs	5, 6, cr0, cr9, cr4, {0}
    36bc:	04030074 	streq	r0, [r3], #-116	; 0x74
    36c0:	00003c07 	andeq	r3, r0, r7, lsl #24
    36c4:	06010300 	streq	r0, [r1], -r0, lsl #6
    36c8:	0000004b 	andeq	r0, r0, fp, asr #32
    36cc:	f8050203 			; <UNDEFINED> instruction: 0xf8050203
    36d0:	03000000 	movweq	r0, #0
    36d4:	00050504 	andeq	r0, r5, r4, lsl #10
    36d8:	08030000 	stmdaeq	r3, {}	; <UNPREDICTABLE>
    36dc:	00000005 	andeq	r0, r0, r5
    36e0:	08010300 	stmdaeq	r1, {r8, r9}
    36e4:	00000049 	andeq	r0, r0, r9, asr #32
    36e8:	e5070203 	str	r0, [r7, #-515]	; 0x203
    36ec:	03000000 	movweq	r0, #0
    36f0:	00370704 	eorseq	r0, r7, r4, lsl #14
    36f4:	08030000 	stmdaeq	r3, {}	; <UNPREDICTABLE>
    36f8:	00003207 	andeq	r3, r0, r7, lsl #4
    36fc:	07040300 	streq	r0, [r4, -r0, lsl #6]
    3700:	0000016d 	andeq	r0, r0, sp, ror #2
    3704:	52080103 	andpl	r0, r8, #-1073741824	; 0xc0000000
    3708:	04000000 	streq	r0, [r0], #-0
    370c:	000009b2 			; <UNDEFINED> instruction: 0x000009b2
    3710:	00250301 	eoreq	r0, r5, r1, lsl #6
    3714:	97bc0000 	ldrls	r0, [ip, r0]!
    3718:	00140000 	andseq	r0, r4, r0
    371c:	9c010000 	stcls	0, cr0, [r1], {-0}
    3720:	000000b0 	strheq	r0, [r0], -r0	; <UNPREDICTABLE>
    3724:	01006305 	tsteq	r0, r5, lsl #6
    3728:	00002503 	andeq	r2, r0, r3, lsl #10
    372c:	00236600 	eoreq	r6, r3, r0, lsl #12
    3730:	97c80600 	strbls	r0, [r8, r0, lsl #12]
    3734:	01090000 	mrseq	r0, (UNDEF: 9)
    3738:	01070000 	mrseq	r0, (UNDEF: 7)
    373c:	00740250 	rsbseq	r0, r4, r0, asr r2
    3740:	2d080000 	stccs	0, cr0, [r8, #-0]
    3744:	01000003 	tsteq	r0, r3
    3748:	0097d008 	addseq	sp, r7, r8
    374c:	00001800 	andeq	r1, r0, r0, lsl #16
    3750:	099c0100 	ldmibeq	ip, {r8}
    3754:	000009d2 	ldrdeq	r0, [r0], -r2
    3758:	97e80b01 	strbls	r0, [r8, r1, lsl #22]!
    375c:	00100000 	andseq	r0, r0, r0
    3760:	9c010000 	stcls	0, cr0, [r1], {-0}
    3764:	000000e3 	andeq	r0, r0, r3, ror #1
    3768:	0070660a 	rsbseq	r6, r0, sl, lsl #12
    376c:	00f20b01 	rscseq	r0, r2, r1, lsl #22
    3770:	50010000 	andpl	r0, r1, r0
    3774:	00250b00 	eoreq	r0, r5, r0, lsl #22
    3778:	00f20000 	rscseq	r0, r2, r0
    377c:	250c0000 	strcs	r0, [ip, #-0]
    3780:	00000000 	andeq	r0, r0, r0
    3784:	00e3040d 	rsceq	r0, r3, sp, lsl #8
    3788:	ba0e0000 	blt	383790 <__bss_end__+0x379750>
    378c:	01000002 	tsteq	r0, r2
    3790:	0000f206 	andeq	pc, r0, r6, lsl #4
    3794:	0c030500 	cfstr32eq	mvfx0, [r3], {-0}
    3798:	0f000099 	svceq	0x00000099
    379c:	00000410 	andeq	r0, r0, r0, lsl r4
    37a0:	2c0c3c02 	stccs	12, cr3, [ip], {2}
    37a4:	00000000 	andeq	r0, r0, r0
    37a8:	0001c300 	andeq	ip, r1, r0, lsl #6
    37ac:	91000400 	tstls	r0, r0, lsl #8
    37b0:	04000010 	streq	r0, [r0], #-16
    37b4:	0001e701 	andeq	lr, r1, r1, lsl #14
    37b8:	09f40100 	ldmibeq	r4!, {r8}^
    37bc:	02520000 	subseq	r0, r2, #0
    37c0:	97f80000 	ldrbls	r0, [r8, r0]!
    37c4:	00500000 	subseq	r0, r0, r0
    37c8:	0eb30000 	cdpeq	0, 11, cr0, cr3, cr0, {0}
    37cc:	04020000 	streq	r0, [r2], #-0
    37d0:	746e6905 	strbtvc	r6, [lr], #-2309	; 0x905
    37d4:	09df0300 	ldmibeq	pc, {r8, r9}^	; <UNPREDICTABLE>
    37d8:	d4020000 	strle	r0, [r2], #-0
    37dc:	00000037 	andeq	r0, r0, r7, lsr r0
    37e0:	3c070404 	cfstrscc	mvf0, [r7], {4}
    37e4:	04000000 	streq	r0, [r0], #-0
    37e8:	004b0601 	subeq	r0, fp, r1, lsl #12
    37ec:	02040000 	andeq	r0, r4, #0
    37f0:	0000f805 	andeq	pc, r0, r5, lsl #16
    37f4:	05040400 	streq	r0, [r4, #-1024]	; 0x400
    37f8:	00000005 	andeq	r0, r0, r5
    37fc:	00050804 	andeq	r0, r5, r4, lsl #16
    3800:	03000000 	movweq	r0, #0
    3804:	0000041a 	andeq	r0, r0, sl, lsl r4
    3808:	00652e03 	rsbeq	r2, r5, r3, lsl #28
    380c:	01040000 	mrseq	r0, (UNDEF: 4)
    3810:	00004908 	andeq	r4, r0, r8, lsl #18
    3814:	07020400 	streq	r0, [r2, -r0, lsl #8]
    3818:	000000e5 	andeq	r0, r0, r5, ror #1
    381c:	00047103 	andeq	r7, r4, r3, lsl #2
    3820:	7e340300 	cdpvc	3, 3, cr0, cr4, cr0, {0}
    3824:	04000000 	streq	r0, [r0], #-0
    3828:	00370704 	eorseq	r0, r7, r4, lsl #14
    382c:	08040000 	stmdaeq	r4, {}	; <UNPREDICTABLE>
    3830:	00003207 	andeq	r3, r0, r7, lsl #4
    3834:	07040400 	streq	r0, [r4, -r0, lsl #8]
    3838:	0000016d 	andeq	r0, r0, sp, ror #2
    383c:	01040405 	tsteq	r4, r5, lsl #8
    3840:	00005208 	andeq	r5, r0, r8, lsl #4
    3844:	040c0600 	streq	r0, [ip], #-1536	; 0x600
    3848:	0000d30e 	andeq	sp, r0, lr, lsl #6
    384c:	78740700 	ldmdavc	r4!, {r8, r9, sl}^
    3850:	5a0f0400 	bpl	3c4858 <__bss_end__+0x3ba818>
    3854:	00000000 	andeq	r0, r0, r0
    3858:	00787207 	rsbseq	r7, r8, r7, lsl #4
    385c:	005a0f04 	subseq	r0, sl, r4, lsl #30
    3860:	08010000 	stmdaeq	r1, {}	; <UNPREDICTABLE>
    3864:	000003e8 	andeq	r0, r0, r8, ror #7
    3868:	00731004 	rsbseq	r1, r3, r4
    386c:	08040000 	stmdaeq	r4, {}	; <UNPREDICTABLE>
    3870:	00000399 	muleq	r0, r9, r3
    3874:	00731104 	rsbseq	r1, r3, r4, lsl #2
    3878:	00080000 	andeq	r0, r8, r0
    387c:	0003d103 	andeq	sp, r3, r3, lsl #2
    3880:	9c120400 	cfldrsls	mvf0, [r2], {-0}
    3884:	09000000 	stmdbeq	r0, {}	; <UNPREDICTABLE>
    3888:	f9100501 			; <UNDEFINED> instruction: 0xf9100501
    388c:	0a000000 	beq	3894 <_start-0x476c>
    3890:	000003ed 	andeq	r0, r0, sp, ror #7
    3894:	03db0a01 	bicseq	r0, fp, #4096	; 0x1000
    3898:	0a020000 	beq	838a0 <__bss_end__+0x79860>
    389c:	000003c3 	andeq	r0, r0, r3, asr #7
    38a0:	02030003 	andeq	r0, r3, #3
    38a4:	05000004 	streq	r0, [r0, #-4]
    38a8:	0000de10 	andeq	sp, r0, r0, lsl lr
    38ac:	05140600 	ldreq	r0, [r4, #-1536]	; 0x600
    38b0:	00013114 	andeq	r3, r1, r4, lsl r1
    38b4:	047a0800 	ldrbteq	r0, [sl], #-2048	; 0x800
    38b8:	15050000 	strne	r0, [r5, #-0]
    38bc:	00000037 	andeq	r0, r0, r7, lsr r0
    38c0:	04650800 	strbteq	r0, [r5], #-2048	; 0x800
    38c4:	18050000 	stmdane	r5, {}	; <UNPREDICTABLE>
    38c8:	000000f9 	strdeq	r0, [r0], -r9
    38cc:	04300804 	ldrteq	r0, [r0], #-2052	; 0x804
    38d0:	1b050000 	blne	1438d8 <__bss_end__+0x139898>
    38d4:	000000d3 	ldrdeq	r0, [r0], -r3
    38d8:	22030008 	andcs	r0, r3, #8
    38dc:	05000004 	streq	r0, [r0, #-4]
    38e0:	00010420 	andeq	r0, r1, r0, lsr #8
    38e4:	09ed0b00 	stmibeq	sp!, {r8, r9, fp}^
    38e8:	05010000 	streq	r0, [r1, #-0]
    38ec:	0000017e 	andeq	r0, r0, lr, ror r1
    38f0:	000097f8 	strdeq	r9, [r0], -r8
    38f4:	00000028 	andeq	r0, r0, r8, lsr #32
    38f8:	017e9c01 	cmneq	lr, r1, lsl #24
    38fc:	630c0000 	movwvs	r0, #49152	; 0xc000
    3900:	7e060100 	adfvcs	f0, f6, f0
    3904:	00000001 	andeq	r0, r0, r1
    3908:	0d090000 	stceq	0, cr0, [r9, #-0]
    390c:	0000980c 	andeq	r9, r0, ip, lsl #16
    3910:	000001ab 	andeq	r0, r0, fp, lsr #3
    3914:	0152010e 	cmpeq	r2, lr, lsl #2
    3918:	51010e34 	tstpl	r1, r4, lsr lr
    391c:	010e3001 	tsteq	lr, r1
    3920:	47420350 	smlsldmi	r0, r2, r0, r3
    3924:	0f000024 	svceq	0x00000024
    3928:	00013104 	andeq	r3, r1, r4, lsl #2
    392c:	04380b00 	ldrteq	r0, [r8], #-2816	; 0xb00
    3930:	0c010000 	stceq	0, cr0, [r1], {-0}
    3934:	0000017e 	andeq	r0, r0, lr, ror r1
    3938:	00009820 	andeq	r9, r0, r0, lsr #16
    393c:	00000028 	andeq	r0, r0, r8, lsr #32
    3940:	01ab9c01 			; <UNDEFINED> instruction: 0x01ab9c01
    3944:	630c0000 	movwvs	r0, #49152	; 0xc000
    3948:	7e0d0100 	adfvce	f0, f5, f0
    394c:	00000001 	andeq	r0, r0, r1
    3950:	00090000 	andeq	r0, r9, r0
    3954:	0009e610 	andeq	lr, r9, r0, lsl r6
    3958:	931b0600 	tstls	fp, #0, 12
    395c:	11000000 	mrsne	r0, (UNDEF: 0)
    3960:	00000093 	muleq	r0, r3, r0
    3964:	00002511 	andeq	r2, r0, r1, lsl r5
    3968:	002c1100 	eoreq	r1, ip, r0, lsl #2
    396c:	00000000 	andeq	r0, r0, r0
    3970:	000000db 	ldrdeq	r0, [r0], -fp
    3974:	11750004 	cmnne	r5, r4
    3978:	01040000 	mrseq	r0, (UNDEF: 4)
    397c:	000001e7 	andeq	r0, r0, r7, ror #3
    3980:	000a0f01 	andeq	r0, sl, r1, lsl #30
    3984:	00025200 	andeq	r5, r2, r0, lsl #4
    3988:	00984800 	addseq	r4, r8, r0, lsl #16
    398c:	00002000 	andeq	r2, r0, r0
    3990:	000fdf00 	andeq	sp, pc, r0, lsl #30
    3994:	06010200 	streq	r0, [r1], -r0, lsl #4
    3998:	0000004b 	andeq	r0, r0, fp, asr #32
    399c:	49080102 	stmdbmi	r8, {r1, r8}
    39a0:	02000000 	andeq	r0, r0, #0
    39a4:	00f80502 	rscseq	r0, r8, r2, lsl #10
    39a8:	02020000 	andeq	r0, r2, #0
    39ac:	0000e507 	andeq	lr, r0, r7, lsl #10
    39b0:	05040300 	streq	r0, [r4, #-768]	; 0x300
    39b4:	00746e69 	rsbseq	r6, r4, r9, ror #28
    39b8:	3c070402 	cfstrscc	mvf0, [r7], {2}
    39bc:	02000000 	andeq	r0, r0, #0
    39c0:	00000508 	andeq	r0, r0, r8, lsl #10
    39c4:	08020000 	stmdaeq	r2, {}	; <UNPREDICTABLE>
    39c8:	00003207 	andeq	r3, r0, r7, lsl #4
    39cc:	05040200 	streq	r0, [r4, #-512]	; 0x200
    39d0:	00000005 	andeq	r0, r0, r5
    39d4:	6d070402 	cfstrsvs	mvf0, [r7, #-8]
    39d8:	04000001 	streq	r0, [r0], #-1
    39dc:	07040204 	streq	r0, [r4, -r4, lsl #4]
    39e0:	00000037 	andeq	r0, r0, r7, lsr r0
    39e4:	007a0405 	rsbseq	r0, sl, r5, lsl #8
    39e8:	01020000 	mrseq	r0, (UNDEF: 2)
    39ec:	00005208 	andeq	r5, r0, r8, lsl #4
    39f0:	09df0600 	ldmibeq	pc, {r9, sl}^	; <UNPREDICTABLE>
    39f4:	d4020000 	strle	r0, [r2], #-0
    39f8:	00000048 	andeq	r0, r0, r8, asr #32
    39fc:	0009e607 	andeq	lr, r9, r7, lsl #12
    3a00:	6b1b0300 	blvs	6c4608 <__bss_end__+0x6ba5c8>
    3a04:	48000000 	stmdami	r0, {}	; <UNPREDICTABLE>
    3a08:	20000098 	mulcs	r0, r8, r0
    3a0c:	01000000 	mrseq	r0, (UNDEF: 0)
    3a10:	705f089c 			; <UNDEFINED> instruction: 0x705f089c
    3a14:	6b030100 	blvs	c3e1c <__bss_end__+0xb9ddc>
    3a18:	01000000 	mrseq	r0, (UNDEF: 0)
    3a1c:	00630850 	rsbeq	r0, r3, r0, asr r8
    3a20:	00410301 	subeq	r0, r1, r1, lsl #6
    3a24:	51010000 	mrspl	r0, (UNDEF: 1)
    3a28:	01006e09 	tsteq	r0, r9, lsl #28
    3a2c:	00008103 	andeq	r8, r0, r3, lsl #2
    3a30:	00238400 	eoreq	r8, r3, r0, lsl #8
    3a34:	00700a00 	rsbseq	r0, r0, r0, lsl #20
    3a38:	00740401 	rsbseq	r0, r4, r1, lsl #8
    3a3c:	23a50000 			; <UNDEFINED> instruction: 0x23a50000
    3a40:	650b0000 	strvs	r0, [fp, #-0]
    3a44:	74040100 	strvc	r0, [r4], #-256	; 0x100
    3a48:	01000000 	mrseq	r0, (UNDEF: 0)
    3a4c:	Address 0x0000000000003a4c is out of bounds.


Disassembly of section .debug_abbrev:

00000000 <.debug_abbrev>:
       0:	25011101 	strcs	r1, [r1, #-257]	; 0x101
       4:	030b130e 	movweq	r1, #45838	; 0xb30e
       8:	110e1b0e 	tstne	lr, lr, lsl #22
       c:	10061201 	andne	r1, r6, r1, lsl #4
      10:	02000017 	andeq	r0, r0, #23
      14:	0b0b0024 	bleq	2c00ac <__bss_end__+0x2b606c>
      18:	08030b3e 	stmdaeq	r3, {r1, r2, r3, r4, r5, r8, r9, fp}
      1c:	24030000 	strcs	r0, [r3], #-0
      20:	3e0b0b00 	vmlacc.f64	d0, d11, d0
      24:	000e030b 	andeq	r0, lr, fp, lsl #6
      28:	000f0400 	andeq	r0, pc, r0, lsl #8
      2c:	13490b0b 	movtne	r0, #39691	; 0x9b0b
      30:	26050000 	strcs	r0, [r5], -r0
      34:	00134900 	andseq	r4, r3, r0, lsl #18
      38:	012e0600 	teqeq	lr, r0, lsl #12
      3c:	0e03193f 	mcreq	9, 0, r1, cr3, cr15, {1}
      40:	0b3b0b3a 	bleq	ec2d30 <__bss_end__+0xeb8cf0>
      44:	01111927 	tsteq	r1, r7, lsr #18
      48:	18400612 	stmdane	r0, {r1, r4, r9, sl}^
      4c:	01194297 			; <UNDEFINED> instruction: 0x01194297
      50:	07000013 	smladeq	r0, r3, r0, r0
      54:	08030034 	stmdaeq	r3, {r2, r4, r5}
      58:	0b3b0b3a 	bleq	ec2d48 <__bss_end__+0xeb8d08>
      5c:	0b1c1349 	bleq	704d88 <__bss_end__+0x6fad48>
      60:	34080000 	strcc	r0, [r8], #-0
      64:	3a0e0300 	bcc	380c6c <__bss_end__+0x376c2c>
      68:	490b3b0b 	stmdbmi	fp, {r0, r1, r3, r8, r9, fp, ip, sp}
      6c:	000b1c13 	andeq	r1, fp, r3, lsl ip
      70:	012e0900 	teqeq	lr, r0, lsl #18
      74:	0e03193f 	mcreq	9, 0, r1, cr3, cr15, {1}
      78:	0b3b0b3a 	bleq	ec2d68 <__bss_end__+0xeb8d28>
      7c:	193c1349 	ldmdbne	ip!, {r0, r3, r6, r8, r9, ip}
      80:	00001301 	andeq	r1, r0, r1, lsl #6
      84:	0000180a 	andeq	r1, r0, sl, lsl #16
      88:	010b0b00 	tsteq	fp, r0, lsl #22
      8c:	06120111 			; <UNDEFINED> instruction: 0x06120111
      90:	00001301 	andeq	r1, r0, r1, lsl #6
      94:	0182890c 	orreq	r8, r2, ip, lsl #18
      98:	31011100 	mrscc	r1, (UNDEF: 17)
      9c:	0d000013 	stceq	0, cr0, [r0, #-76]	; 0xffffffb4
      a0:	01018289 	smlabbeq	r1, r9, r2, r8
      a4:	13310111 	teqne	r1, #1073741828	; 0x40000004
      a8:	00001301 	andeq	r1, r0, r1, lsl #6
      ac:	01828a0e 	orreq	r8, r2, lr, lsl #20
      b0:	91180200 	tstls	r8, r0, lsl #4
      b4:	00001842 	andeq	r1, r0, r2, asr #16
      b8:	3f002e0f 	svccc	0x00002e0f
      bc:	3a0e0319 	bcc	380d28 <__bss_end__+0x376ce8>
      c0:	270b3b0b 	strcs	r3, [fp, -fp, lsl #22]
      c4:	00193c19 	andseq	r3, r9, r9, lsl ip
      c8:	012e1000 	teqeq	lr, r0
      cc:	0e03193f 	mcreq	9, 0, r1, cr3, cr15, {1}
      d0:	0b3b0b3a 	bleq	ec2dc0 <__bss_end__+0xeb8d80>
      d4:	193c1927 	ldmdbne	ip!, {r0, r1, r2, r5, r8, fp, ip}
      d8:	00001301 	andeq	r1, r0, r1, lsl #6
      dc:	49000511 	stmdbmi	r0, {r0, r4, r8, sl}
      e0:	12000013 	andne	r0, r0, #19
      e4:	193f012e 	ldmdbne	pc!, {r1, r2, r3, r5, r8}	; <UNPREDICTABLE>
      e8:	0b3a0e03 	bleq	e838fc <__bss_end__+0xe798bc>
      ec:	19270b3b 	stmdbne	r7!, {r0, r1, r3, r4, r5, r8, r9, fp}
      f0:	193c1349 	ldmdbne	ip!, {r0, r3, r6, r8, r9, ip}
      f4:	00001301 	andeq	r1, r0, r1, lsl #6
      f8:	01110100 	tsteq	r1, r0, lsl #2
      fc:	0b130e25 	bleq	4c3998 <__bss_end__+0x4b9958>
     100:	0e1b0e03 	cdpeq	14, 1, cr0, cr11, cr3, {0}
     104:	06120111 			; <UNDEFINED> instruction: 0x06120111
     108:	00001710 	andeq	r1, r0, r0, lsl r7
     10c:	0b002402 	bleq	911c <sw_uart_getc_timeout+0x2c>
     110:	030b3e0b 	movweq	r3, #48651	; 0xbe0b
     114:	03000008 	movweq	r0, #8
     118:	0b0b0024 	bleq	2c01b0 <__bss_end__+0x2b6170>
     11c:	0e030b3e 	vmoveq.16	d3[0], r0
     120:	2e040000 	cdpcs	0, 0, cr0, cr4, cr0, {0}
     124:	03193f01 	tsteq	r9, #1, 30
     128:	3b0b3a0e 	blcc	2ce968 <__bss_end__+0x2c4928>
     12c:	1119270b 	tstne	r9, fp, lsl #14
     130:	40061201 	andmi	r1, r6, r1, lsl #4
     134:	19429718 	stmdbne	r2, {r3, r4, r8, r9, sl, ip, pc}^
     138:	00001301 	andeq	r1, r0, r1, lsl #6
     13c:	03000505 	movweq	r0, #1285	; 0x505
     140:	3b0b3a08 	blcc	2ce968 <__bss_end__+0x2c4928>
     144:	0213490b 	andseq	r4, r3, #180224	; 0x2c000
     148:	06000017 			; <UNDEFINED> instruction: 0x06000017
     14c:	08030034 	stmdaeq	r3, {r2, r4, r5}
     150:	0b3b0b3a 	bleq	ec2e40 <__bss_end__+0xeb8e00>
     154:	0b1c1349 	bleq	704e80 <__bss_end__+0x6fae40>
     158:	34070000 	strcc	r0, [r7], #-0
     15c:	3a0e0300 	bcc	380d64 <__bss_end__+0x376d24>
     160:	490b3b0b 	stmdbmi	fp, {r0, r1, r3, r8, r9, fp, ip, sp}
     164:	00170213 	andseq	r0, r7, r3, lsl r2
     168:	00340800 	eorseq	r0, r4, r0, lsl #16
     16c:	0b3a0e03 	bleq	e83980 <__bss_end__+0xe79940>
     170:	13490b3b 	movtne	r0, #39739	; 0x9b3b
     174:	00001802 	andeq	r1, r0, r2, lsl #16
     178:	11010b09 	tstne	r1, r9, lsl #22
     17c:	01061201 	tsteq	r6, r1, lsl #4
     180:	0a000013 	beq	1d4 <_start-0x7e2c>
     184:	01018289 	smlabbeq	r1, r9, r2, r8
     188:	13310111 	teqne	r1, #1073741828	; 0x40000004
     18c:	00001301 	andeq	r1, r0, r1, lsl #6
     190:	01828a0b 	orreq	r8, r2, fp, lsl #20
     194:	91180200 	tstls	r8, r0, lsl #4
     198:	00001842 	andeq	r1, r0, r2, asr #16
     19c:	0182890c 	orreq	r8, r2, ip, lsl #18
     1a0:	31011101 	tstcc	r1, r1, lsl #2
     1a4:	0d000013 	stceq	0, cr0, [r0, #-76]	; 0xffffffb4
     1a8:	0b0b000f 	bleq	2c01ec <__bss_end__+0x2b61ac>
     1ac:	00001349 	andeq	r1, r0, r9, asr #6
     1b0:	4900350e 	stmdbmi	r0, {r1, r2, r3, r8, sl, ip, sp}
     1b4:	0f000013 	svceq	0x00000013
     1b8:	0e030034 	mcreq	0, 0, r0, cr3, cr4, {1}
     1bc:	0b3b0b3a 	bleq	ec2eac <__bss_end__+0xeb8e6c>
     1c0:	0b1c1349 	bleq	704eec <__bss_end__+0x6faeac>
     1c4:	34100000 	ldrcc	r0, [r0], #-0
     1c8:	3a0e0300 	bcc	380dd0 <__bss_end__+0x376d90>
     1cc:	490b3b0b 	stmdbmi	fp, {r0, r1, r3, r8, r9, fp, ip, sp}
     1d0:	02193f13 	andseq	r3, r9, #19, 30	; 0x4c
     1d4:	11000018 	tstne	r0, r8, lsl r0
     1d8:	193f012e 	ldmdbne	pc!, {r1, r2, r3, r5, r8}	; <UNPREDICTABLE>
     1dc:	0b3a0e03 	bleq	e839f0 <__bss_end__+0xe799b0>
     1e0:	19270b3b 	stmdbne	r7!, {r0, r1, r3, r4, r5, r8, r9, fp}
     1e4:	1301193c 	movwne	r1, #6460	; 0x193c
     1e8:	05120000 	ldreq	r0, [r2, #-0]
     1ec:	00134900 	andseq	r4, r3, r0, lsl #18
     1f0:	00351300 	eorseq	r1, r5, r0, lsl #6
     1f4:	01000000 	mrseq	r0, (UNDEF: 0)
     1f8:	0e250111 	mcreq	1, 1, r0, cr5, cr1, {0}
     1fc:	0e030b13 	vmoveq.32	d3[0], r0
     200:	01110e1b 	tsteq	r1, fp, lsl lr
     204:	17100612 			; <UNDEFINED> instruction: 0x17100612
     208:	16020000 	strne	r0, [r2], -r0
     20c:	3a0e0300 	bcc	380e14 <__bss_end__+0x376dd4>
     210:	490b3b0b 	stmdbmi	fp, {r0, r1, r3, r8, r9, fp, ip, sp}
     214:	03000013 	movweq	r0, #19
     218:	0e030113 	mcreq	1, 0, r0, cr3, cr3, {0}
     21c:	0b3a0b0b 	bleq	e82e50 <__bss_end__+0xe78e10>
     220:	13010b3b 	movwne	r0, #6971	; 0x1b3b
     224:	0d040000 	stceq	0, cr0, [r4, #-0]
     228:	490e0300 	stmdbmi	lr, {r8, r9}
     22c:	340b3813 	strcc	r3, [fp], #-2067	; 0x813
     230:	05000019 	streq	r0, [r0, #-25]
     234:	0b0b000f 	bleq	2c0278 <__bss_end__+0x2b6238>
     238:	24060000 	strcs	r0, [r6], #-0
     23c:	3e0b0b00 	vmlacc.f64	d0, d11, d0
     240:	0008030b 	andeq	r0, r8, fp, lsl #6
     244:	00240700 	eoreq	r0, r4, r0, lsl #14
     248:	0b3e0b0b 	bleq	f82e7c <__bss_end__+0xf78e3c>
     24c:	00000e03 	andeq	r0, r0, r3, lsl #28
     250:	0b000f08 	bleq	3e78 <_start-0x4188>
     254:	0013490b 	andseq	r4, r3, fp, lsl #18
     258:	00260900 	eoreq	r0, r6, r0, lsl #18
     25c:	00001349 	andeq	r1, r0, r9, asr #6
     260:	3f012e0a 	svccc	0x00012e0a
     264:	3a0e0319 	bcc	380ed0 <__bss_end__+0x376e90>
     268:	270b3b0b 	strcs	r3, [fp, -fp, lsl #22]
     26c:	11134919 	tstne	r3, r9, lsl r9
     270:	40061201 	andmi	r1, r6, r1, lsl #4
     274:	19429718 	stmdbne	r2, {r3, r4, r8, r9, sl, ip, pc}^
     278:	00001301 	andeq	r1, r0, r1, lsl #6
     27c:	0300050b 	movweq	r0, #1291	; 0x50b
     280:	3b0b3a08 	blcc	2ceaa8 <__bss_end__+0x2c4a68>
     284:	0213490b 	andseq	r4, r3, #180224	; 0x2c000
     288:	0c000018 	stceq	0, cr0, [r0], {24}
     28c:	00000018 	andeq	r0, r0, r8, lsl r0
     290:	0300340d 	movweq	r3, #1037	; 0x40d
     294:	3b0b3a08 	blcc	2ceabc <__bss_end__+0x2c4a7c>
     298:	0213490b 	andseq	r4, r3, #180224	; 0x2c000
     29c:	0e000018 	mcreq	0, 0, r0, cr0, cr8, {0}
     2a0:	0e030034 	mcreq	0, 0, r0, cr3, cr4, {1}
     2a4:	0b3b0b3a 	bleq	ec2f94 <__bss_end__+0xeb8f54>
     2a8:	18021349 	stmdane	r2, {r0, r3, r6, r8, r9, ip}
     2ac:	340f0000 	strcc	r0, [pc], #-0	; 2b4 <_start-0x7d4c>
     2b0:	3a080300 	bcc	200eb8 <__bss_end__+0x1f6e78>
     2b4:	490b3b0b 	stmdbmi	fp, {r0, r1, r3, r8, r9, fp, ip, sp}
     2b8:	00170213 	andseq	r0, r7, r3, lsl r2
     2bc:	82891000 	addhi	r1, r9, #0
     2c0:	01110101 	tsteq	r1, r1, lsl #2
     2c4:	13011331 	movwne	r1, #4913	; 0x1331
     2c8:	8a110000 	bhi	4402d0 <__bss_end__+0x436290>
     2cc:	02000182 	andeq	r0, r0, #-2147483616	; 0x80000020
     2d0:	18429118 	stmdane	r2, {r3, r4, r8, ip, pc}^
     2d4:	89120000 	ldmdbhi	r2, {}	; <UNPREDICTABLE>
     2d8:	11010182 	smlabbne	r1, r2, r1, r0
     2dc:	13000001 	movwne	r0, #1
     2e0:	13490101 	movtne	r0, #37121	; 0x9101
     2e4:	00001301 	andeq	r1, r0, r1, lsl #6
     2e8:	49002114 	stmdbmi	r0, {r2, r4, r8, sp}
     2ec:	00052f13 	andeq	r2, r5, r3, lsl pc
     2f0:	01151500 	tsteq	r5, r0, lsl #10
     2f4:	13491927 	movtne	r1, #39207	; 0x9927
     2f8:	00001301 	andeq	r1, r0, r1, lsl #6
     2fc:	49000516 	stmdbmi	r0, {r1, r2, r4, r8, sl}
     300:	17000013 	smladne	r0, r3, r0, r0
     304:	0e030034 	mcreq	0, 0, r0, cr3, cr4, {1}
     308:	0b3b0b3a 	bleq	ec2ff8 <__bss_end__+0xeb8fb8>
     30c:	193f1349 	ldmdbne	pc!, {r0, r3, r6, r8, r9, ip}	; <UNPREDICTABLE>
     310:	0000193c 	andeq	r1, r0, ip, lsr r9
     314:	3f012e18 	svccc	0x00012e18
     318:	3a0e0319 	bcc	380f84 <__bss_end__+0x376f44>
     31c:	270b3b0b 	strcs	r3, [fp, -fp, lsl #22]
     320:	3c134919 	ldccc	9, cr4, [r3], {25}
     324:	00000019 	andeq	r0, r0, r9, lsl r0
     328:	25011101 	strcs	r1, [r1, #-257]	; 0x101
     32c:	030b130e 	movweq	r1, #45838	; 0xb30e
     330:	110e1b0e 	tstne	lr, lr, lsl #22
     334:	10061201 	andne	r1, r6, r1, lsl #4
     338:	02000017 	andeq	r0, r0, #23
     33c:	0b0b0024 	bleq	2c03d4 <__bss_end__+0x2b6394>
     340:	08030b3e 	stmdaeq	r3, {r1, r2, r3, r4, r5, r8, r9, fp}
     344:	24030000 	strcs	r0, [r3], #-0
     348:	3e0b0b00 	vmlacc.f64	d0, d11, d0
     34c:	000e030b 	andeq	r0, lr, fp, lsl #6
     350:	000f0400 	andeq	r0, pc, r0, lsl #8
     354:	13490b0b 	movtne	r0, #39691	; 0x9b0b
     358:	26050000 	strcs	r0, [r5], -r0
     35c:	00134900 	andseq	r4, r3, r0, lsl #18
     360:	012e0600 	teqeq	lr, r0, lsl #12
     364:	0e03193f 	mcreq	9, 0, r1, cr3, cr15, {1}
     368:	0b3b0b3a 	bleq	ec3058 <__bss_end__+0xeb9018>
     36c:	13491927 	movtne	r1, #39207	; 0x9927
     370:	06120111 			; <UNDEFINED> instruction: 0x06120111
     374:	42961840 	addsmi	r1, r6, #64, 16	; 0x400000
     378:	00130119 	andseq	r0, r3, r9, lsl r1
     37c:	00050700 	andeq	r0, r5, r0, lsl #14
     380:	0b3a0803 	bleq	e82394 <__bss_end__+0xe78354>
     384:	13490b3b 	movtne	r0, #39739	; 0x9b3b
     388:	00001702 	andeq	r1, r0, r2, lsl #14
     38c:	27011508 	strcs	r1, [r1, -r8, lsl #10]
     390:	01134919 	tsteq	r3, r9, lsl r9
     394:	09000013 	stmdbeq	r0, {r0, r1, r4}
     398:	13490005 	movtne	r0, #36869	; 0x9005
     39c:	340a0000 	strcc	r0, [sl], #-0
     3a0:	3a0e0300 	bcc	380fa8 <__bss_end__+0x376f68>
     3a4:	490b3b0b 	stmdbmi	fp, {r0, r1, r3, r8, r9, fp, ip, sp}
     3a8:	3c193f13 	ldccc	15, cr3, [r9], {19}
     3ac:	0b000019 	bleq	418 <_start-0x7be8>
     3b0:	0e030034 	mcreq	0, 0, r0, cr3, cr4, {1}
     3b4:	0b3b0b3a 	bleq	ec30a4 <__bss_end__+0xeb9064>
     3b8:	193f1349 	ldmdbne	pc!, {r0, r3, r6, r8, r9, ip}	; <UNPREDICTABLE>
     3bc:	00001802 	andeq	r1, r0, r2, lsl #16
     3c0:	01110100 	tsteq	r1, r0, lsl #2
     3c4:	0b130e25 	bleq	4c3c60 <__bss_end__+0x4b9c20>
     3c8:	0e1b0e03 	cdpeq	14, 1, cr0, cr11, cr3, {0}
     3cc:	06120111 			; <UNDEFINED> instruction: 0x06120111
     3d0:	00001710 	andeq	r1, r0, r0, lsl r7
     3d4:	0b002402 	bleq	93e4 <sw_uart_gets_timeout+0x88>
     3d8:	030b3e0b 	movweq	r3, #48651	; 0xbe0b
     3dc:	03000008 	movweq	r0, #8
     3e0:	0b0b0024 	bleq	2c0478 <__bss_end__+0x2b6438>
     3e4:	0e030b3e 	vmoveq.16	d3[0], r0
     3e8:	0f040000 	svceq	0x00040000
     3ec:	000b0b00 	andeq	r0, fp, r0, lsl #22
     3f0:	000f0500 	andeq	r0, pc, r0, lsl #10
     3f4:	13490b0b 	movtne	r0, #39691	; 0x9b0b
     3f8:	26060000 	strcs	r0, [r6], -r0
     3fc:	00134900 	andseq	r4, r3, r0, lsl #18
     400:	00160700 	andseq	r0, r6, r0, lsl #14
     404:	0b3a0e03 	bleq	e83c18 <__bss_end__+0xe79bd8>
     408:	13490b3b 	movtne	r0, #39739	; 0x9b3b
     40c:	13080000 	movwne	r0, #32768	; 0x8000
     410:	0b0e0301 	bleq	38101c <__bss_end__+0x376fdc>
     414:	3b0b3a0b 	blcc	2cec48 <__bss_end__+0x2c4c08>
     418:	0013010b 	andseq	r0, r3, fp, lsl #2
     41c:	000d0900 	andeq	r0, sp, r0, lsl #18
     420:	13490e03 	movtne	r0, #40451	; 0x9e03
     424:	19340b38 	ldmdbne	r4!, {r3, r4, r5, r8, r9, fp}
     428:	2e0a0000 	cdpcs	0, 0, cr0, cr10, cr0, {0}
     42c:	3a0e0301 	bcc	381038 <__bss_end__+0x376ff8>
     430:	270b3b0b 	strcs	r3, [fp, -fp, lsl #22]
     434:	11134919 	tstne	r3, r9, lsl r9
     438:	40061201 	andmi	r1, r6, r1, lsl #4
     43c:	19429718 	stmdbne	r2, {r3, r4, r8, r9, sl, ip, pc}^
     440:	00001301 	andeq	r1, r0, r1, lsl #6
     444:	0300050b 	movweq	r0, #1291	; 0x50b
     448:	3b0b3a08 	blcc	2cec70 <__bss_end__+0x2c4c30>
     44c:	0213490b 	andseq	r4, r3, #180224	; 0x2c000
     450:	0c000017 	stceq	0, cr0, [r0], {23}
     454:	0803012e 	stmdaeq	r3, {r1, r2, r3, r5, r8}
     458:	0b3b0b3a 	bleq	ec3148 <__bss_end__+0xeb9108>
     45c:	13491927 	movtne	r1, #39207	; 0x9927
     460:	06120111 			; <UNDEFINED> instruction: 0x06120111
     464:	42971840 	addsmi	r1, r7, #64, 16	; 0x400000
     468:	00130119 	andseq	r0, r3, r9, lsl r1
     46c:	00050d00 	andeq	r0, r5, r0, lsl #26
     470:	0b3a0e03 	bleq	e83c84 <__bss_end__+0xe79c44>
     474:	13490b3b 	movtne	r0, #39739	; 0x9b3b
     478:	00001702 	andeq	r1, r0, r2, lsl #14
     47c:	0300050e 	movweq	r0, #1294	; 0x50e
     480:	3b0b3a0e 	blcc	2cecc0 <__bss_end__+0x2c4c80>
     484:	0213490b 	andseq	r4, r3, #180224	; 0x2c000
     488:	0f000018 	svceq	0x00000018
     48c:	08030034 	stmdaeq	r3, {r2, r4, r5}
     490:	0b3b0b3a 	bleq	ec3180 <__bss_end__+0xeb9140>
     494:	18021349 	stmdane	r2, {r0, r3, r6, r8, r9, ip}
     498:	34100000 	ldrcc	r0, [r0], #-0
     49c:	3a080300 	bcc	2010a4 <__bss_end__+0x1f7064>
     4a0:	490b3b0b 	stmdbmi	fp, {r0, r1, r3, r8, r9, fp, ip, sp}
     4a4:	00170213 	andseq	r0, r7, r3, lsl r2
     4a8:	00341100 	eorseq	r1, r4, r0, lsl #2
     4ac:	13490e03 	movtne	r0, #40451	; 0x9e03
     4b0:	18021934 	stmdane	r2, {r2, r4, r5, r8, fp, ip}
     4b4:	0b120000 	bleq	4804bc <__bss_end__+0x47647c>
     4b8:	12011101 	andne	r1, r1, #1073741824	; 0x40000000
     4bc:	00130106 	andseq	r0, r3, r6, lsl #2
     4c0:	00341300 	eorseq	r1, r4, r0, lsl #6
     4c4:	0b3a0e03 	bleq	e83cd8 <__bss_end__+0xe79c98>
     4c8:	13490b3b 	movtne	r0, #39739	; 0x9b3b
     4cc:	00001702 	andeq	r1, r0, r2, lsl #14
     4d0:	01828914 	orreq	r8, r2, r4, lsl r9
     4d4:	31011100 	mrscc	r1, (UNDEF: 17)
     4d8:	15000013 	strne	r0, [r0, #-19]
     4dc:	01018289 	smlabbeq	r1, r9, r2, r8
     4e0:	13310111 	teqne	r1, #1073741828	; 0x40000004
     4e4:	00001301 	andeq	r1, r0, r1, lsl #6
     4e8:	01828a16 	orreq	r8, r2, r6, lsl sl
     4ec:	91180200 	tstls	r8, r0, lsl #4
     4f0:	00001842 	andeq	r1, r0, r2, asr #16
     4f4:	01828917 	orreq	r8, r2, r7, lsl r9
     4f8:	31011101 	tstcc	r1, r1, lsl #2
     4fc:	18000013 	stmdane	r0, {r0, r1, r4}
     500:	13490101 	movtne	r0, #37121	; 0x9101
     504:	00001301 	andeq	r1, r0, r1, lsl #6
     508:	49002119 	stmdbmi	r0, {r0, r3, r4, r8, sp}
     50c:	000b2f13 	andeq	r2, fp, r3, lsl pc
     510:	012e1a00 	teqeq	lr, r0, lsl #20
     514:	0e03193f 	mcreq	9, 0, r1, cr3, cr15, {1}
     518:	0b3b0b3a 	bleq	ec3208 <__bss_end__+0xeb91c8>
     51c:	01111927 	tsteq	r1, r7, lsr #18
     520:	18400612 	stmdane	r0, {r1, r4, r9, sl}^
     524:	01194297 			; <UNDEFINED> instruction: 0x01194297
     528:	1b000013 	blne	57c <_start-0x7a84>
     52c:	19270115 	stmdbne	r7!, {r0, r2, r4, r8}
     530:	13011349 	movwne	r1, #4937	; 0x1349
     534:	051c0000 	ldreq	r0, [ip, #-0]
     538:	00134900 	andseq	r4, r3, r0, lsl #18
     53c:	012e1d00 	teqeq	lr, r0, lsl #26
     540:	0e03193f 	mcreq	9, 0, r1, cr3, cr15, {1}
     544:	0b3b0b3a 	bleq	ec3234 <__bss_end__+0xeb91f4>
     548:	13491927 	movtne	r1, #39207	; 0x9927
     54c:	06120111 			; <UNDEFINED> instruction: 0x06120111
     550:	42971840 	addsmi	r1, r7, #64, 16	; 0x400000
     554:	00130119 	andseq	r0, r3, r9, lsl r1
     558:	010b1e00 	tsteq	fp, r0, lsl #28
     55c:	00001755 	andeq	r1, r0, r5, asr r7
     560:	0300341f 	movweq	r3, #1055	; 0x41f
     564:	3b0b3a0e 	blcc	2ceda4 <__bss_end__+0x2c4d64>
     568:	3f13490b 	svccc	0x0013490b
     56c:	00193c19 	andseq	r3, r9, r9, lsl ip
     570:	002e2000 	eoreq	r2, lr, r0
     574:	0e03193f 	mcreq	9, 0, r1, cr3, cr15, {1}
     578:	0b3b0b3a 	bleq	ec3268 <__bss_end__+0xeb9228>
     57c:	193c1927 	ldmdbne	ip!, {r0, r1, r2, r5, r8, fp, ip}
     580:	2e210000 	cdpcs	0, 2, cr0, cr1, cr0, {0}
     584:	03193f01 	tsteq	r9, #1, 30
     588:	3b0b3a0e 	blcc	2cedc8 <__bss_end__+0x2c4d88>
     58c:	4919270b 	ldmdbmi	r9, {r0, r1, r3, r8, r9, sl, sp}
     590:	01193c13 	tsteq	r9, r3, lsl ip
     594:	22000013 	andcs	r0, r0, #19
     598:	00000018 	andeq	r0, r0, r8, lsl r0
     59c:	01110100 	tsteq	r1, r0, lsl #2
     5a0:	0b130e25 	bleq	4c3e3c <__bss_end__+0x4b9dfc>
     5a4:	0e1b0e03 	cdpeq	14, 1, cr0, cr11, cr3, {0}
     5a8:	06120111 			; <UNDEFINED> instruction: 0x06120111
     5ac:	00001710 	andeq	r1, r0, r0, lsl r7
     5b0:	0b002402 	bleq	95c0 <sw_uart_gets_until_blk+0x8>
     5b4:	030b3e0b 	movweq	r3, #48651	; 0xbe0b
     5b8:	03000008 	movweq	r0, #8
     5bc:	0b0b0024 	bleq	2c0654 <__bss_end__+0x2b6614>
     5c0:	0e030b3e 	vmoveq.16	d3[0], r0
     5c4:	0f040000 	svceq	0x00040000
     5c8:	490b0b00 	stmdbmi	fp, {r8, r9, fp}
     5cc:	05000013 	streq	r0, [r0, #-19]
     5d0:	13490026 	movtne	r0, #36902	; 0x9026
     5d4:	2e060000 	cdpcs	0, 0, cr0, cr6, cr0, {0}
     5d8:	03193f01 	tsteq	r9, #1, 30
     5dc:	3b0b3a0e 	blcc	2cee1c <__bss_end__+0x2c4ddc>
     5e0:	1119270b 	tstne	r9, fp, lsl #14
     5e4:	40061201 	andmi	r1, r6, r1, lsl #4
     5e8:	19429718 	stmdbne	r2, {r3, r4, r8, r9, sl, ip, pc}^
     5ec:	00001301 	andeq	r1, r0, r1, lsl #6
     5f0:	01828907 	orreq	r8, r2, r7, lsl #18
     5f4:	01011101 	tsteq	r1, r1, lsl #2
     5f8:	08000013 	stmdaeq	r0, {r0, r1, r4}
     5fc:	0001828a 	andeq	r8, r1, sl, lsl #5
     600:	42911802 	addsmi	r1, r1, #131072	; 0x20000
     604:	09000018 	stmdbeq	r0, {r3, r4}
     608:	01018289 	smlabbeq	r1, r9, r2, r8
     60c:	13310111 	teqne	r1, #1073741828	; 0x40000004
     610:	00001301 	andeq	r1, r0, r1, lsl #6
     614:	0182890a 	orreq	r8, r2, sl, lsl #18
     618:	31011100 	mrscc	r1, (UNDEF: 17)
     61c:	0b000013 	bleq	670 <_start-0x7990>
     620:	19270115 	stmdbne	r7!, {r0, r2, r4, r8}
     624:	13011349 	movwne	r1, #4937	; 0x1349
     628:	050c0000 	streq	r0, [ip, #-0]
     62c:	00134900 	andseq	r4, r3, r0, lsl #18
     630:	00340d00 	eorseq	r0, r4, r0, lsl #26
     634:	0b3a0e03 	bleq	e83e48 <__bss_end__+0xe79e08>
     638:	13490b3b 	movtne	r0, #39739	; 0x9b3b
     63c:	193c193f 	ldmdbne	ip!, {r0, r1, r2, r3, r4, r5, r8, fp, ip}
     640:	2e0e0000 	cdpcs	0, 0, cr0, cr14, cr0, {0}
     644:	03193f01 	tsteq	r9, #1, 30
     648:	3b0b3a0e 	blcc	2cee88 <__bss_end__+0x2c4e48>
     64c:	3c19270b 	ldccc	7, cr2, [r9], {11}
     650:	00130119 	andseq	r0, r3, r9, lsl r1
     654:	002e0f00 	eoreq	r0, lr, r0, lsl #30
     658:	0e03193f 	mcreq	9, 0, r1, cr3, cr15, {1}
     65c:	0b3b0b3a 	bleq	ec334c <__bss_end__+0xeb930c>
     660:	193c1927 	ldmdbne	ip!, {r0, r1, r2, r5, r8, fp, ip}
     664:	01000000 	mrseq	r0, (UNDEF: 0)
     668:	0e250111 	mcreq	1, 1, r0, cr5, cr1, {0}
     66c:	0e030b13 	vmoveq.32	d3[0], r0
     670:	01110e1b 	tsteq	r1, fp, lsl lr
     674:	17100612 			; <UNDEFINED> instruction: 0x17100612
     678:	24020000 	strcs	r0, [r2], #-0
     67c:	3e0b0b00 	vmlacc.f64	d0, d11, d0
     680:	0008030b 	andeq	r0, r8, fp, lsl #6
     684:	00240300 	eoreq	r0, r4, r0, lsl #6
     688:	0b3e0b0b 	bleq	f832bc <__bss_end__+0xf7927c>
     68c:	00000e03 	andeq	r0, r0, r3, lsl #28
     690:	03001604 	movweq	r1, #1540	; 0x604
     694:	3b0b3a0e 	blcc	2ceed4 <__bss_end__+0x2c4e94>
     698:	0013490b 	andseq	r4, r3, fp, lsl #18
     69c:	000f0500 	andeq	r0, pc, r0, lsl #10
     6a0:	13490b0b 	movtne	r0, #39691	; 0x9b0b
     6a4:	26060000 	strcs	r0, [r6], -r0
     6a8:	00134900 	andseq	r4, r3, r0, lsl #18
     6ac:	01130700 	tsteq	r3, r0, lsl #14
     6b0:	0b3a0b0b 	bleq	e832e4 <__bss_end__+0xe792a4>
     6b4:	13010b3b 	movwne	r0, #6971	; 0x1b3b
     6b8:	0d080000 	stceq	0, cr0, [r8, #-0]
     6bc:	3a080300 	bcc	2012c4 <__bss_end__+0x1f7284>
     6c0:	490b3b0b 	stmdbmi	fp, {r0, r1, r3, r8, r9, fp, ip, sp}
     6c4:	000b3813 	andeq	r3, fp, r3, lsl r8
     6c8:	000d0900 	andeq	r0, sp, r0, lsl #18
     6cc:	0b3a0e03 	bleq	e83ee0 <__bss_end__+0xe79ea0>
     6d0:	13490b3b 	movtne	r0, #39739	; 0x9b3b
     6d4:	00000b38 	andeq	r0, r0, r8, lsr fp
     6d8:	0b01040a 	bleq	41708 <__bss_end__+0x376c8>
     6dc:	3b0b3a0b 	blcc	2cef10 <__bss_end__+0x2c4ed0>
     6e0:	0013010b 	andseq	r0, r3, fp, lsl #2
     6e4:	00280b00 	eoreq	r0, r8, r0, lsl #22
     6e8:	0d1c0e03 	ldceq	14, cr0, [ip, #-12]
     6ec:	2e0c0000 	cdpcs	0, 0, cr0, cr12, cr0, {0}
     6f0:	3a0e0301 	bcc	3812fc <__bss_end__+0x3772bc>
     6f4:	270b3b0b 	strcs	r3, [fp, -fp, lsl #22]
     6f8:	11134919 	tstne	r3, r9, lsl r9
     6fc:	40061201 	andmi	r1, r6, r1, lsl #4
     700:	19429718 	stmdbne	r2, {r3, r4, r8, r9, sl, ip, pc}^
     704:	00001301 	andeq	r1, r0, r1, lsl #6
     708:	0300050d 	movweq	r0, #1293	; 0x50d
     70c:	3b0b3a08 	blcc	2cef34 <__bss_end__+0x2c4ef4>
     710:	0213490b 	andseq	r4, r3, #180224	; 0x2c000
     714:	0e000017 	mcreq	0, 0, r0, cr0, cr7, {0}
     718:	01018289 	smlabbeq	r1, r9, r2, r8
     71c:	13310111 	teqne	r1, #1073741828	; 0x40000004
     720:	8a0f0000 	bhi	3c0728 <__bss_end__+0x3b66e8>
     724:	02000182 	andeq	r0, r0, #-2147483616	; 0x80000020
     728:	18429118 	stmdane	r2, {r3, r4, r8, ip, pc}^
     72c:	2e100000 	cdpcs	0, 1, cr0, cr0, cr0, {0}
     730:	03193f01 	tsteq	r9, #1, 30
     734:	3b0b3a0e 	blcc	2cef74 <__bss_end__+0x2c4f34>
     738:	1201110b 	andne	r1, r1, #-1073741822	; 0xc0000002
     73c:	97184006 	ldrls	r4, [r8, -r6]
     740:	13011942 	movwne	r1, #6466	; 0x1942
     744:	34110000 	ldrcc	r0, [r1], #-0
     748:	3a0e0300 	bcc	381350 <__bss_end__+0x377310>
     74c:	490b3b0b 	stmdbmi	fp, {r0, r1, r3, r8, r9, fp, ip, sp}
     750:	3c193f13 	ldccc	15, cr3, [r9], {19}
     754:	12000019 	andne	r0, r0, #25
     758:	193f002e 	ldmdbne	pc!, {r1, r2, r3, r5}	; <UNPREDICTABLE>
     75c:	0b3a0e03 	bleq	e83f70 <__bss_end__+0xe79f30>
     760:	19270b3b 	stmdbne	r7!, {r0, r1, r3, r4, r5, r8, r9, fp}
     764:	0000193c 	andeq	r1, r0, ip, lsr r9
     768:	03003413 	movweq	r3, #1043	; 0x413
     76c:	3b0b3a08 	blcc	2cef94 <__bss_end__+0x2c4f54>
     770:	0213490b 	andseq	r4, r3, #180224	; 0x2c000
     774:	14000017 	strne	r0, [r0], #-23
     778:	0e030034 	mcreq	0, 0, r0, cr3, cr4, {1}
     77c:	0b3b0b3a 	bleq	ec346c <__bss_end__+0xeb942c>
     780:	00001349 	andeq	r1, r0, r9, asr #6
     784:	01828915 	orreq	r8, r2, r5, lsl r9
     788:	31011100 	mrscc	r1, (UNDEF: 17)
     78c:	16000013 			; <UNDEFINED> instruction: 0x16000013
     790:	01018289 	smlabbeq	r1, r9, r2, r8
     794:	13310111 	teqne	r1, #1073741828	; 0x40000004
     798:	00001301 	andeq	r1, r0, r1, lsl #6
     79c:	03003417 	movweq	r3, #1047	; 0x417
     7a0:	3b0b3a0e 	blcc	2cefe0 <__bss_end__+0x2c4fa0>
     7a4:	0213490b 	andseq	r4, r3, #180224	; 0x2c000
     7a8:	18000018 	stmdane	r0, {r3, r4}
     7ac:	19270115 	stmdbne	r7!, {r0, r2, r4, r8}
     7b0:	13011349 	movwne	r1, #4937	; 0x1349
     7b4:	05190000 	ldreq	r0, [r9, #-0]
     7b8:	00134900 	andseq	r4, r3, r0, lsl #18
     7bc:	012e1a00 	teqeq	lr, r0, lsl #20
     7c0:	0e03193f 	mcreq	9, 0, r1, cr3, cr15, {1}
     7c4:	0b3b0b3a 	bleq	ec34b4 <__bss_end__+0xeb9474>
     7c8:	193c1927 	ldmdbne	ip!, {r0, r1, r2, r5, r8, fp, ip}
     7cc:	00001301 	andeq	r1, r0, r1, lsl #6
     7d0:	3f002e1b 	svccc	0x00002e1b
     7d4:	3a0e0319 	bcc	381440 <__bss_end__+0x377400>
     7d8:	270b3b0b 	strcs	r3, [fp, -fp, lsl #22]
     7dc:	3c134919 	ldccc	9, cr4, [r3], {25}
     7e0:	1c000019 	stcne	0, cr0, [r0], {25}
     7e4:	193f012e 	ldmdbne	pc!, {r1, r2, r3, r5, r8}	; <UNPREDICTABLE>
     7e8:	0b3a0e03 	bleq	e83ffc <__bss_end__+0xe79fbc>
     7ec:	19270b3b 	stmdbne	r7!, {r0, r1, r3, r4, r5, r8, r9, fp}
     7f0:	193c1349 	ldmdbne	ip!, {r0, r3, r6, r8, r9, ip}
     7f4:	00001301 	andeq	r1, r0, r1, lsl #6
     7f8:	0000181d 	andeq	r1, r0, sp, lsl r8
     7fc:	11010000 	mrsne	r0, (UNDEF: 1)
     800:	130e2501 	movwne	r2, #58625	; 0xe501
     804:	1b0e030b 	blne	381438 <__bss_end__+0x3773f8>
     808:	1117550e 	tstne	r7, lr, lsl #10
     80c:	00171001 	andseq	r1, r7, r1
     810:	00240200 	eoreq	r0, r4, r0, lsl #4
     814:	0b3e0b0b 	bleq	f83448 <__bss_end__+0xf79408>
     818:	00000803 	andeq	r0, r0, r3, lsl #16
     81c:	0b002403 	bleq	9830 <cb_get_block+0x10>
     820:	030b3e0b 	movweq	r3, #48651	; 0xbe0b
     824:	0400000e 	streq	r0, [r0], #-14
     828:	193f012e 	ldmdbne	pc!, {r1, r2, r3, r5, r8}	; <UNPREDICTABLE>
     82c:	0b3a0e03 	bleq	e84040 <__bss_end__+0xe7a000>
     830:	19270b3b 	stmdbne	r7!, {r0, r1, r3, r4, r5, r8, r9, fp}
     834:	01111349 	tsteq	r1, r9, asr #6
     838:	18400612 	stmdane	r0, {r1, r4, r9, sl}^
     83c:	01194297 			; <UNDEFINED> instruction: 0x01194297
     840:	05000013 	streq	r0, [r0, #-19]
     844:	0e030034 	mcreq	0, 0, r0, cr3, cr4, {1}
     848:	0b3b0b3a 	bleq	ec3538 <__bss_end__+0xeb94f8>
     84c:	17021349 	strne	r1, [r2, -r9, asr #6]
     850:	2e060000 	cdpcs	0, 0, cr0, cr6, cr0, {0}
     854:	03193f01 	tsteq	r9, #1, 30
     858:	3b0b3a0e 	blcc	2cf098 <__bss_end__+0x2c5058>
     85c:	1119270b 	tstne	r9, fp, lsl #14
     860:	40061201 	andmi	r1, r6, r1, lsl #4
     864:	19429718 	stmdbne	r2, {r3, r4, r8, r9, sl, ip, pc}^
     868:	00001301 	andeq	r1, r0, r1, lsl #6
     86c:	03003407 	movweq	r3, #1031	; 0x407
     870:	3b0b3a0e 	blcc	2cf0b0 <__bss_end__+0x2c5070>
     874:	1c13490b 	ldcne	9, cr4, [r3], {11}
     878:	08000006 	stmdaeq	r0, {r1, r2}
     87c:	0e030034 	mcreq	0, 0, r0, cr3, cr4, {1}
     880:	0b3b0b3a 	bleq	ec3570 <__bss_end__+0xeb9530>
     884:	0b1c1349 	bleq	7055b0 <__bss_end__+0x6fb570>
     888:	89090000 	stmdbhi	r9, {}	; <UNPREDICTABLE>
     88c:	11000182 	smlabbne	r0, r2, r1, r0
     890:	00133101 	andseq	r3, r3, r1, lsl #2
     894:	82890a00 	addhi	r0, r9, #0, 20
     898:	01110101 	tsteq	r1, r1, lsl #2
     89c:	13011331 	movwne	r1, #4913	; 0x1331
     8a0:	8a0b0000 	bhi	2c08a8 <__bss_end__+0x2b6868>
     8a4:	02000182 	andeq	r0, r0, #-2147483616	; 0x80000020
     8a8:	18429118 	stmdane	r2, {r3, r4, r8, ip, pc}^
     8ac:	890c0000 	stmdbhi	ip, {}	; <UNPREDICTABLE>
     8b0:	11010182 	smlabbne	r1, r2, r1, r0
     8b4:	00133101 	andseq	r3, r3, r1, lsl #2
     8b8:	00260d00 	eoreq	r0, r6, r0, lsl #26
     8bc:	00001349 	andeq	r1, r0, r9, asr #6
     8c0:	3f012e0e 	svccc	0x00012e0e
     8c4:	3a0e0319 	bcc	381530 <__bss_end__+0x3774f0>
     8c8:	270b3b0b 	strcs	r3, [fp, -fp, lsl #22]
     8cc:	01193c19 	tsteq	r9, r9, lsl ip
     8d0:	0f000013 	svceq	0x00000013
     8d4:	13490005 	movtne	r0, #36869	; 0x9005
     8d8:	2e100000 	cdpcs	0, 1, cr0, cr0, cr0, {0}
     8dc:	03193f01 	tsteq	r9, #1, 30
     8e0:	3b0b3a0e 	blcc	2cf120 <__bss_end__+0x2c50e0>
     8e4:	3c19270b 	ldccc	7, cr2, [r9], {11}
     8e8:	00000019 	andeq	r0, r0, r9, lsl r0
     8ec:	25011101 	strcs	r1, [r1, #-257]	; 0x101
     8f0:	030b130e 	movweq	r1, #45838	; 0xb30e
     8f4:	110e1b0e 	tstne	lr, lr, lsl #22
     8f8:	10061201 	andne	r1, r6, r1, lsl #4
     8fc:	02000017 	andeq	r0, r0, #23
     900:	0b0b0024 	bleq	2c0998 <__bss_end__+0x2b6958>
     904:	08030b3e 	stmdaeq	r3, {r1, r2, r3, r4, r5, r8, r9, fp}
     908:	24030000 	strcs	r0, [r3], #-0
     90c:	3e0b0b00 	vmlacc.f64	d0, d11, d0
     910:	000e030b 	andeq	r0, lr, fp, lsl #6
     914:	012e0400 	teqeq	lr, r0, lsl #8
     918:	0e03193f 	mcreq	9, 0, r1, cr3, cr15, {1}
     91c:	0b3b0b3a 	bleq	ec360c <__bss_end__+0xeb95cc>
     920:	01111927 	tsteq	r1, r7, lsr #18
     924:	18400612 	stmdane	r0, {r1, r4, r9, sl}^
     928:	01194297 			; <UNDEFINED> instruction: 0x01194297
     92c:	05000013 	streq	r0, [r0, #-19]
     930:	0e030005 	cdpeq	0, 0, cr0, cr3, cr5, {0}
     934:	0b3b0b3a 	bleq	ec3624 <__bss_end__+0xeb95e4>
     938:	17021349 	strne	r1, [r2, -r9, asr #6]
     93c:	2e060000 	cdpcs	0, 0, cr0, cr6, cr0, {0}
     940:	03193f01 	tsteq	r9, #1, 30
     944:	3b0b3a0e 	blcc	2cf184 <__bss_end__+0x2c5144>
     948:	4919270b 	ldmdbmi	r9, {r0, r1, r3, r8, r9, sl, sp}
     94c:	12011113 	andne	r1, r1, #-1073741820	; 0xc0000004
     950:	97184006 	ldrls	r4, [r8, -r6]
     954:	13011942 	movwne	r1, #6466	; 0x1942
     958:	89070000 	stmdbhi	r7, {}	; <UNPREDICTABLE>
     95c:	11010182 	smlabbne	r1, r2, r1, r0
     960:	00133101 	andseq	r3, r3, r1, lsl #2
     964:	828a0800 	addhi	r0, sl, #0, 16
     968:	18020001 	stmdane	r2, {r0}
     96c:	00184291 	mulseq	r8, r1, r2
     970:	00340900 	eorseq	r0, r4, r0, lsl #18
     974:	0b3a0803 	bleq	e82988 <__bss_end__+0xe78948>
     978:	13490b3b 	movtne	r0, #39739	; 0x9b3b
     97c:	00001802 	andeq	r1, r0, r2, lsl #16
     980:	0182890a 	orreq	r8, r2, sl, lsl #18
     984:	31011100 	mrscc	r1, (UNDEF: 17)
     988:	0b000013 	bleq	9dc <_start-0x7624>
     98c:	08030005 	stmdaeq	r3, {r0, r2}
     990:	0b3b0b3a 	bleq	ec3680 <__bss_end__+0xeb9640>
     994:	17021349 	strne	r1, [r2, -r9, asr #6]
     998:	0b0c0000 	bleq	3009a0 <__bss_end__+0x2f6960>
     99c:	12011101 	andne	r1, r1, #1073741824	; 0x40000000
     9a0:	00130106 	andseq	r0, r3, r6, lsl #2
     9a4:	00340d00 	eorseq	r0, r4, r0, lsl #26
     9a8:	0b3a0803 	bleq	e829bc <__bss_end__+0xe7897c>
     9ac:	13490b3b 	movtne	r0, #39739	; 0x9b3b
     9b0:	00001702 	andeq	r1, r0, r2, lsl #14
     9b4:	3f012e0e 	svccc	0x00012e0e
     9b8:	3a0e0319 	bcc	381624 <__bss_end__+0x3775e4>
     9bc:	270b3b0b 	strcs	r3, [fp, -fp, lsl #22]
     9c0:	3c134919 	ldccc	9, cr4, [r3], {25}
     9c4:	0f000019 	svceq	0x00000019
     9c8:	13490005 	movtne	r0, #36869	; 0x9005
     9cc:	01000000 	mrseq	r0, (UNDEF: 0)
     9d0:	0e250111 	mcreq	1, 1, r0, cr5, cr1, {0}
     9d4:	0e030b13 	vmoveq.32	d3[0], r0
     9d8:	01110e1b 	tsteq	r1, fp, lsl lr
     9dc:	17100612 			; <UNDEFINED> instruction: 0x17100612
     9e0:	24020000 	strcs	r0, [r2], #-0
     9e4:	3e0b0b00 	vmlacc.f64	d0, d11, d0
     9e8:	000e030b 	andeq	r0, lr, fp, lsl #6
     9ec:	00240300 	eoreq	r0, r4, r0, lsl #6
     9f0:	0b3e0b0b 	bleq	f83624 <__bss_end__+0xf795e4>
     9f4:	00000803 	andeq	r0, r0, r3, lsl #16
     9f8:	0b010404 	bleq	41a10 <__bss_end__+0x379d0>
     9fc:	3b0b3a0b 	blcc	2cf230 <__bss_end__+0x2c51f0>
     a00:	0013010b 	andseq	r0, r3, fp, lsl #2
     a04:	00280500 	eoreq	r0, r8, r0, lsl #10
     a08:	0d1c0e03 	ldceq	14, cr0, [ip, #-12]
     a0c:	16060000 	strne	r0, [r6], -r0
     a10:	3a0e0300 	bcc	381618 <__bss_end__+0x3775d8>
     a14:	490b3b0b 	stmdbmi	fp, {r0, r1, r3, r8, r9, fp, ip, sp}
     a18:	07000013 	smladeq	r0, r3, r0, r0
     a1c:	193f012e 	ldmdbne	pc!, {r1, r2, r3, r5, r8}	; <UNPREDICTABLE>
     a20:	0b3a0e03 	bleq	e84234 <__bss_end__+0xe7a1f4>
     a24:	19270b3b 	stmdbne	r7!, {r0, r1, r3, r4, r5, r8, r9, fp}
     a28:	06120111 			; <UNDEFINED> instruction: 0x06120111
     a2c:	42971840 	addsmi	r1, r7, #64, 16	; 0x400000
     a30:	00130119 	andseq	r0, r3, r9, lsl r1
     a34:	00050800 	andeq	r0, r5, r0, lsl #16
     a38:	0b3a0803 	bleq	e82a4c <__bss_end__+0xe78a0c>
     a3c:	13490b3b 	movtne	r0, #39739	; 0x9b3b
     a40:	00001702 	andeq	r1, r0, r2, lsl #14
     a44:	03003409 	movweq	r3, #1033	; 0x409
     a48:	3b0b3a0e 	blcc	2cf288 <__bss_end__+0x2c5248>
     a4c:	0213490b 	andseq	r4, r3, #180224	; 0x2c000
     a50:	0a000017 	beq	ab4 <_start-0x754c>
     a54:	01018289 	smlabbeq	r1, r9, r2, r8
     a58:	13310111 	teqne	r1, #1073741828	; 0x40000004
     a5c:	00001301 	andeq	r1, r0, r1, lsl #6
     a60:	01828a0b 	orreq	r8, r2, fp, lsl #20
     a64:	91180200 	tstls	r8, r0, lsl #4
     a68:	00001842 	andeq	r1, r0, r2, asr #16
     a6c:	0182890c 	orreq	r8, r2, ip, lsl #18
     a70:	31011101 	tstcc	r1, r1, lsl #2
     a74:	0d000013 	stceq	0, cr0, [r0, #-76]	; 0xffffffb4
     a78:	0b0b000f 	bleq	2c0abc <__bss_end__+0x2b6a7c>
     a7c:	00001349 	andeq	r1, r0, r9, asr #6
     a80:	4900350e 	stmdbmi	r0, {r1, r2, r3, r8, sl, ip, sp}
     a84:	0f000013 	svceq	0x00000013
     a88:	193f012e 	ldmdbne	pc!, {r1, r2, r3, r5, r8}	; <UNPREDICTABLE>
     a8c:	0b3a0e03 	bleq	e842a0 <__bss_end__+0xe7a260>
     a90:	19270b3b 	stmdbne	r7!, {r0, r1, r3, r4, r5, r8, r9, fp}
     a94:	01111349 	tsteq	r1, r9, asr #6
     a98:	18400612 	stmdane	r0, {r1, r4, r9, sl}^
     a9c:	01194297 			; <UNDEFINED> instruction: 0x01194297
     aa0:	10000013 	andne	r0, r0, r3, lsl r0
     aa4:	08030034 	stmdaeq	r3, {r2, r4, r5}
     aa8:	0b3b0b3a 	bleq	ec3798 <__bss_end__+0xeb9758>
     aac:	17021349 	strne	r1, [r2, -r9, asr #6]
     ab0:	89110000 	ldmdbhi	r1, {}	; <UNPREDICTABLE>
     ab4:	11000182 	smlabbne	r0, r2, r1, r0
     ab8:	00133101 	andseq	r3, r3, r1, lsl #2
     abc:	00051200 	andeq	r1, r5, r0, lsl #4
     ac0:	0b3a0e03 	bleq	e842d4 <__bss_end__+0xe7a294>
     ac4:	13490b3b 	movtne	r0, #39739	; 0x9b3b
     ac8:	00001702 	andeq	r1, r0, r2, lsl #14
     acc:	3f012e13 	svccc	0x00012e13
     ad0:	3a0e0319 	bcc	38173c <__bss_end__+0x3776fc>
     ad4:	27053b0b 	strcs	r3, [r5, -fp, lsl #22]
     ad8:	11134919 	tstne	r3, r9, lsl r9
     adc:	40061201 	andmi	r1, r6, r1, lsl #4
     ae0:	19429718 	stmdbne	r2, {r3, r4, r8, r9, sl, ip, pc}^
     ae4:	00001301 	andeq	r1, r0, r1, lsl #6
     ae8:	03000514 	movweq	r0, #1300	; 0x514
     aec:	3b0b3a0e 	blcc	2cf32c <__bss_end__+0x2c52ec>
     af0:	02134905 	andseq	r4, r3, #81920	; 0x14000
     af4:	15000017 	strne	r0, [r0, #-23]
     af8:	193f012e 	ldmdbne	pc!, {r1, r2, r3, r5, r8}	; <UNPREDICTABLE>
     afc:	0b3a0e03 	bleq	e84310 <__bss_end__+0xe7a2d0>
     b00:	1927053b 	stmdbne	r7!, {r0, r1, r3, r4, r5, r8, sl}
     b04:	06120111 			; <UNDEFINED> instruction: 0x06120111
     b08:	42971840 	addsmi	r1, r7, #64, 16	; 0x400000
     b0c:	00130119 	andseq	r0, r3, r9, lsl r1
     b10:	00051600 	andeq	r1, r5, r0, lsl #12
     b14:	0b3a0803 	bleq	e82b28 <__bss_end__+0xe78ae8>
     b18:	1349053b 	movtne	r0, #38203	; 0x953b
     b1c:	00001702 	andeq	r1, r0, r2, lsl #14
     b20:	03003417 	movweq	r3, #1047	; 0x417
     b24:	3b0b3a0e 	blcc	2cf364 <__bss_end__+0x2c5324>
     b28:	02134905 	andseq	r4, r3, #81920	; 0x14000
     b2c:	18000017 	stmdane	r0, {r0, r1, r2, r4}
     b30:	0111010b 	tsteq	r1, fp, lsl #2
     b34:	13010612 	movwne	r0, #5650	; 0x1612
     b38:	34190000 	ldrcc	r0, [r9], #-0
     b3c:	3a0e0300 	bcc	381744 <__bss_end__+0x377704>
     b40:	490b3b0b 	stmdbmi	fp, {r0, r1, r3, r8, r9, fp, ip, sp}
     b44:	02193f13 	andseq	r3, r9, #19, 30	; 0x4c
     b48:	1a000018 	bne	bb0 <_start-0x7450>
     b4c:	0e030034 	mcreq	0, 0, r0, cr3, cr4, {1}
     b50:	053b0b3a 	ldreq	r0, [fp, #-2874]!	; 0xb3a
     b54:	193f1349 	ldmdbne	pc!, {r0, r3, r6, r8, r9, ip}	; <UNPREDICTABLE>
     b58:	00001802 	andeq	r1, r0, r2, lsl #16
     b5c:	3f012e1b 	svccc	0x00012e1b
     b60:	3a0e0319 	bcc	3817cc <__bss_end__+0x37778c>
     b64:	270b3b0b 	strcs	r3, [fp, -fp, lsl #22]
     b68:	3c134919 	ldccc	9, cr4, [r3], {25}
     b6c:	00130119 	andseq	r0, r3, r9, lsl r1
     b70:	00051c00 	andeq	r1, r5, r0, lsl #24
     b74:	00001349 	andeq	r1, r0, r9, asr #6
     b78:	4900261d 	stmdbmi	r0, {r0, r2, r3, r4, r9, sl, sp}
     b7c:	1e000013 	mcrne	0, 0, r0, cr0, cr3, {0}
     b80:	00000035 	andeq	r0, r0, r5, lsr r0
     b84:	3f012e1f 	svccc	0x00012e1f
     b88:	3a0e0319 	bcc	3817f4 <__bss_end__+0x3777b4>
     b8c:	270b3b0b 	strcs	r3, [fp, -fp, lsl #22]
     b90:	01193c19 	tsteq	r9, r9, lsl ip
     b94:	20000013 	andcs	r0, r0, r3, lsl r0
     b98:	193f002e 	ldmdbne	pc!, {r1, r2, r3, r5}	; <UNPREDICTABLE>
     b9c:	0b3a0e03 	bleq	e843b0 <__bss_end__+0xe7a370>
     ba0:	19270b3b 	stmdbne	r7!, {r0, r1, r3, r4, r5, r8, r9, fp}
     ba4:	0000193c 	andeq	r1, r0, ip, lsr r9
     ba8:	01110100 	tsteq	r1, r0, lsl #2
     bac:	0b130e25 	bleq	4c4448 <__bss_end__+0x4ba408>
     bb0:	0e1b0e03 	cdpeq	14, 1, cr0, cr11, cr3, {0}
     bb4:	06120111 			; <UNDEFINED> instruction: 0x06120111
     bb8:	00001710 	andeq	r1, r0, r0, lsl r7
     bbc:	0b002402 	bleq	9bcc <__FUNCTION__.4376+0x50>
     bc0:	030b3e0b 	movweq	r3, #48651	; 0xbe0b
     bc4:	03000008 	movweq	r0, #8
     bc8:	0b0b0024 	bleq	2c0c60 <__bss_end__+0x2b6c20>
     bcc:	0e030b3e 	vmoveq.16	d3[0], r0
     bd0:	16040000 	strne	r0, [r4], -r0
     bd4:	3a0e0300 	bcc	3817dc <__bss_end__+0x37779c>
     bd8:	490b3b0b 	stmdbmi	fp, {r0, r1, r3, r8, r9, fp, ip, sp}
     bdc:	05000013 	streq	r0, [r0, #-19]
     be0:	0b0b000f 	bleq	2c0c24 <__bss_end__+0x2b6be4>
     be4:	0f060000 	svceq	0x00060000
     be8:	490b0b00 	stmdbmi	fp, {r8, r9, fp}
     bec:	07000013 	smladeq	r0, r3, r0, r0
     bf0:	13490026 	movtne	r0, #36902	; 0x9026
     bf4:	13080000 	movwne	r0, #32768	; 0x8000
     bf8:	3a0b0b01 	bcc	2c3804 <__bss_end__+0x2b97c4>
     bfc:	010b3b0b 	tsteq	fp, fp, lsl #22
     c00:	09000013 	stmdbeq	r0, {r0, r1, r4}
     c04:	0803000d 	stmdaeq	r3, {r0, r2, r3}
     c08:	0b3b0b3a 	bleq	ec38f8 <__bss_end__+0xeb98b8>
     c0c:	0b381349 	bleq	e05938 <__bss_end__+0xdfb8f8>
     c10:	0d0a0000 	stceq	0, cr0, [sl, #-0]
     c14:	3a0e0300 	bcc	38181c <__bss_end__+0x3777dc>
     c18:	490b3b0b 	stmdbmi	fp, {r0, r1, r3, r8, r9, fp, ip, sp}
     c1c:	000b3813 	andeq	r3, fp, r3, lsl r8
     c20:	01130b00 	tsteq	r3, r0, lsl #22
     c24:	0b0b0e03 	bleq	2c4438 <__bss_end__+0x2ba3f8>
     c28:	0b3b0b3a 	bleq	ec3918 <__bss_end__+0xeb98d8>
     c2c:	00001301 	andeq	r1, r0, r1, lsl #6
     c30:	03000d0c 	movweq	r0, #3340	; 0xd0c
     c34:	3813490e 	ldmdacc	r3, {r1, r2, r3, r8, fp, lr}
     c38:	0019340b 	andseq	r3, r9, fp, lsl #8
     c3c:	012e0d00 	teqeq	lr, r0, lsl #26
     c40:	0b3a0e03 	bleq	e84454 <__bss_end__+0xe7a414>
     c44:	19270b3b 	stmdbne	r7!, {r0, r1, r3, r4, r5, r8, r9, fp}
     c48:	13010b20 	movwne	r0, #6944	; 0x1b20
     c4c:	050e0000 	streq	r0, [lr, #-0]
     c50:	3a0e0300 	bcc	381858 <__bss_end__+0x377818>
     c54:	490b3b0b 	stmdbmi	fp, {r0, r1, r3, r8, r9, fp, ip, sp}
     c58:	0f000013 	svceq	0x00000013
     c5c:	08030005 	stmdaeq	r3, {r0, r2}
     c60:	0b3b0b3a 	bleq	ec3950 <__bss_end__+0xeb9910>
     c64:	00001349 	andeq	r1, r0, r9, asr #6
     c68:	00010b10 	andeq	r0, r1, r0, lsl fp
     c6c:	00341100 	eorseq	r1, r4, r0, lsl #2
     c70:	0b3a0e03 	bleq	e84484 <__bss_end__+0xe7a444>
     c74:	13490b3b 	movtne	r0, #39739	; 0x9b3b
     c78:	2e120000 	cdpcs	0, 1, cr0, cr2, cr0, {0}
     c7c:	03193f01 	tsteq	r9, #1, 30
     c80:	3b0b3a0e 	blcc	2cf4c0 <__bss_end__+0x2c5480>
     c84:	1119270b 	tstne	r9, fp, lsl #14
     c88:	40061201 	andmi	r1, r6, r1, lsl #4
     c8c:	19429718 	stmdbne	r2, {r3, r4, r8, r9, sl, ip, pc}^
     c90:	00001301 	andeq	r1, r0, r1, lsl #6
     c94:	03000513 	movweq	r0, #1299	; 0x513
     c98:	3b0b3a0e 	blcc	2cf4d8 <__bss_end__+0x2c5498>
     c9c:	0213490b 	andseq	r4, r3, #180224	; 0x2c000
     ca0:	14000017 	strne	r0, [r0], #-23
     ca4:	08030005 	stmdaeq	r3, {r0, r2}
     ca8:	0b3b0b3a 	bleq	ec3998 <__bss_end__+0xeb9958>
     cac:	17021349 	strne	r1, [r2, -r9, asr #6]
     cb0:	34150000 	ldrcc	r0, [r5], #-0
     cb4:	3a080300 	bcc	2018bc <__bss_end__+0x1f787c>
     cb8:	490b3b0b 	stmdbmi	fp, {r0, r1, r3, r8, r9, fp, ip, sp}
     cbc:	00180213 	andseq	r0, r8, r3, lsl r2
     cc0:	00341600 	eorseq	r1, r4, r0, lsl #12
     cc4:	0b3a0803 	bleq	e82cd8 <__bss_end__+0xe78c98>
     cc8:	13490b3b 	movtne	r0, #39739	; 0x9b3b
     ccc:	00001702 	andeq	r1, r0, r2, lsl #14
     cd0:	11010b17 	tstne	r1, r7, lsl fp
     cd4:	01061201 	tsteq	r6, r1, lsl #4
     cd8:	18000013 	stmdane	r0, {r0, r1, r4}
     cdc:	0e030034 	mcreq	0, 0, r0, cr3, cr4, {1}
     ce0:	0b3b0b3a 	bleq	ec39d0 <__bss_end__+0xeb9990>
     ce4:	18021349 	stmdane	r2, {r0, r3, r6, r8, r9, ip}
     ce8:	1d190000 	ldcne	0, cr0, [r9, #-0]
     cec:	11133101 	tstne	r3, r1, lsl #2
     cf0:	58061201 	stmdapl	r6, {r0, r9, ip}
     cf4:	010b590b 	tsteq	fp, fp, lsl #18
     cf8:	1a000013 	bne	d4c <_start-0x72b4>
     cfc:	13310005 	teqne	r1, #5
     d00:	00001702 	andeq	r1, r0, r2, lsl #14
     d04:	3100051b 	tstcc	r0, fp, lsl r5
     d08:	00180213 	andseq	r0, r8, r3, lsl r2
     d0c:	00051c00 	andeq	r1, r5, r0, lsl #24
     d10:	0b1c1331 	bleq	7059dc <__bss_end__+0x6fb99c>
     d14:	0b1d0000 	bleq	740d1c <__bss_end__+0x736cdc>
     d18:	12011101 	andne	r1, r1, #1073741824	; 0x40000000
     d1c:	1e000006 	cdpne	0, 0, cr0, cr0, cr6, {0}
     d20:	13310034 	teqne	r1, #52	; 0x34
     d24:	00001702 	andeq	r1, r0, r2, lsl #14
     d28:	0182891f 	orreq	r8, r2, pc, lsl r9
     d2c:	31011101 	tstcc	r1, r1, lsl #2
     d30:	20000013 	andcs	r0, r0, r3, lsl r0
     d34:	0001828a 	andeq	r8, r1, sl, lsl #5
     d38:	42911802 	addsmi	r1, r1, #131072	; 0x20000
     d3c:	21000018 	tstcs	r0, r8, lsl r0
     d40:	1331011d 	teqne	r1, #1073741831	; 0x40000007
     d44:	06120111 			; <UNDEFINED> instruction: 0x06120111
     d48:	0b590b58 	bleq	1643ab0 <__bss_end__+0x1639a70>
     d4c:	2e220000 	cdpcs	0, 2, cr0, cr2, cr0, {0}
     d50:	3a0e0301 	bcc	38195c <__bss_end__+0x37791c>
     d54:	270b3b0b 	strcs	r3, [fp, -fp, lsl #22]
     d58:	20134919 	andscs	r4, r3, r9, lsl r9
     d5c:	0013010b 	andseq	r0, r3, fp, lsl #2
     d60:	012e2300 	teqeq	lr, r0, lsl #6
     d64:	0e03193f 	mcreq	9, 0, r1, cr3, cr15, {1}
     d68:	0b3b0b3a 	bleq	ec3a58 <__bss_end__+0xeb9a18>
     d6c:	13491927 	movtne	r1, #39207	; 0x9927
     d70:	06120111 			; <UNDEFINED> instruction: 0x06120111
     d74:	42971840 	addsmi	r1, r7, #64, 16	; 0x400000
     d78:	00130119 	andseq	r0, r3, r9, lsl r1
     d7c:	82892400 	addhi	r2, r9, #0, 8
     d80:	01110001 	tsteq	r1, r1
     d84:	00001331 	andeq	r1, r0, r1, lsr r3
     d88:	01828925 	orreq	r8, r2, r5, lsr #18
     d8c:	31011101 	tstcc	r1, r1, lsl #2
     d90:	00130113 	andseq	r0, r3, r3, lsl r1
     d94:	00342600 	eorseq	r2, r4, r0, lsl #12
     d98:	0b3a0e03 	bleq	e845ac <__bss_end__+0xe7a56c>
     d9c:	13490b3b 	movtne	r0, #39739	; 0x9b3b
     da0:	00001702 	andeq	r1, r0, r2, lsl #14
     da4:	31000527 	tstcc	r0, r7, lsr #10
     da8:	28000013 	stmdacs	r0, {r0, r1, r4}
     dac:	0e030005 	cdpeq	0, 0, cr0, cr3, cr5, {0}
     db0:	0b3b0b3a 	bleq	ec3aa0 <__bss_end__+0xeb9a60>
     db4:	18021349 	stmdane	r2, {r0, r3, r6, r8, r9, ip}
     db8:	34290000 	strtcc	r0, [r9], #-0
     dbc:	490e0300 	stmdbmi	lr, {r8, r9}
     dc0:	02193413 	andseq	r3, r9, #318767104	; 0x13000000
     dc4:	2a000018 	bcs	e2c <_start-0x71d4>
     dc8:	13490101 	movtne	r0, #37121	; 0x9101
     dcc:	00001301 	andeq	r1, r0, r1, lsl #6
     dd0:	4900212b 	stmdbmi	r0, {r0, r1, r3, r5, r8, sp}
     dd4:	000b2f13 	andeq	r2, fp, r3, lsl pc
     dd8:	00342c00 	eorseq	r2, r4, r0, lsl #24
     ddc:	0b3a0803 	bleq	e82df0 <__bss_end__+0xe78db0>
     de0:	13490b3b 	movtne	r0, #39739	; 0x9b3b
     de4:	0000061c 	andeq	r0, r0, ip, lsl r6
     de8:	0300342d 	movweq	r3, #1069	; 0x42d
     dec:	3b0b3a08 	blcc	2cf614 <__bss_end__+0x2c55d4>
     df0:	1c13490b 	ldcne	9, cr4, [r3], {11}
     df4:	2e00000b 	cdpcs	0, 0, cr0, cr0, cr11, {0}
     df8:	08030005 	stmdaeq	r3, {r0, r2}
     dfc:	0b3b0b3a 	bleq	ec3aec <__bss_end__+0xeb9aac>
     e00:	18021349 	stmdane	r2, {r0, r3, r6, r8, r9, ip}
     e04:	182f0000 	stmdane	pc!, {}	; <UNPREDICTABLE>
     e08:	30000000 	andcc	r0, r0, r0
     e0c:	13490021 	movtne	r0, #36897	; 0x9021
     e10:	0000052f 	andeq	r0, r0, pc, lsr #10
     e14:	3f012e31 	svccc	0x00012e31
     e18:	3a0e0319 	bcc	381a84 <__bss_end__+0x377a44>
     e1c:	270b3b0b 	strcs	r3, [fp, -fp, lsl #22]
     e20:	01193c19 	tsteq	r9, r9, lsl ip
     e24:	32000013 	andcc	r0, r0, #19
     e28:	13490005 	movtne	r0, #36869	; 0x9005
     e2c:	2e330000 	cdpcs	0, 3, cr0, cr3, cr0, {0}
     e30:	03193f00 	tsteq	r9, #0, 30
     e34:	3b0b3a0e 	blcc	2cf674 <__bss_end__+0x2c5634>
     e38:	4919270b 	ldmdbmi	r9, {r0, r1, r3, r8, r9, sl, sp}
     e3c:	00193c13 	andseq	r3, r9, r3, lsl ip
     e40:	012e3400 	teqeq	lr, r0, lsl #8
     e44:	0e03193f 	mcreq	9, 0, r1, cr3, cr15, {1}
     e48:	0b3b0b3a 	bleq	ec3b38 <__bss_end__+0xeb9af8>
     e4c:	13491927 	movtne	r1, #39207	; 0x9927
     e50:	1301193c 	movwne	r1, #6460	; 0x193c
     e54:	2e350000 	cdpcs	0, 3, cr0, cr5, cr0, {0}
     e58:	03193f00 	tsteq	r9, #0, 30
     e5c:	3b0b3a0e 	blcc	2cf69c <__bss_end__+0x2c565c>
     e60:	3c19270b 	ldccc	7, cr2, [r9], {11}
     e64:	36000019 			; <UNDEFINED> instruction: 0x36000019
     e68:	193f012e 	ldmdbne	pc!, {r1, r2, r3, r5, r8}	; <UNPREDICTABLE>
     e6c:	0b3a0e03 	bleq	e84680 <__bss_end__+0xe7a640>
     e70:	19270b3b 	stmdbne	r7!, {r0, r1, r3, r4, r5, r8, r9, fp}
     e74:	193c1349 	ldmdbne	ip!, {r0, r3, r6, r8, r9, ip}
     e78:	01000000 	mrseq	r0, (UNDEF: 0)
     e7c:	0e250111 	mcreq	1, 1, r0, cr5, cr1, {0}
     e80:	0e030b13 	vmoveq.32	d3[0], r0
     e84:	01110e1b 	tsteq	r1, fp, lsl lr
     e88:	17100612 			; <UNDEFINED> instruction: 0x17100612
     e8c:	24020000 	strcs	r0, [r2], #-0
     e90:	3e0b0b00 	vmlacc.f64	d0, d11, d0
     e94:	0008030b 	andeq	r0, r8, fp, lsl #6
     e98:	00240300 	eoreq	r0, r4, r0, lsl #6
     e9c:	0b3e0b0b 	bleq	f83ad0 <__bss_end__+0xf79a90>
     ea0:	00000e03 	andeq	r0, r0, r3, lsl #28
     ea4:	0b010404 	bleq	41ebc <__bss_end__+0x37e7c>
     ea8:	3b0b3a0b 	blcc	2cf6dc <__bss_end__+0x2c569c>
     eac:	0013010b 	andseq	r0, r3, fp, lsl #2
     eb0:	00280500 	eoreq	r0, r8, r0, lsl #10
     eb4:	0d1c0e03 	ldceq	14, cr0, [ip, #-12]
     eb8:	16060000 	strne	r0, [r6], -r0
     ebc:	3a0e0300 	bcc	381ac4 <__bss_end__+0x377a84>
     ec0:	490b3b0b 	stmdbmi	fp, {r0, r1, r3, r8, r9, fp, ip, sp}
     ec4:	07000013 	smladeq	r0, r3, r0, r0
     ec8:	193f012e 	ldmdbne	pc!, {r1, r2, r3, r5, r8}	; <UNPREDICTABLE>
     ecc:	0b3a0e03 	bleq	e846e0 <__bss_end__+0xe7a6a0>
     ed0:	19270b3b 	stmdbne	r7!, {r0, r1, r3, r4, r5, r8, r9, fp}
     ed4:	06120111 			; <UNDEFINED> instruction: 0x06120111
     ed8:	42971840 	addsmi	r1, r7, #64, 16	; 0x400000
     edc:	00130119 	andseq	r0, r3, r9, lsl r1
     ee0:	82890800 	addhi	r0, r9, #0, 16
     ee4:	01110001 	tsteq	r1, r1
     ee8:	00001331 	andeq	r1, r0, r1, lsr r3
     eec:	01828909 	orreq	r8, r2, r9, lsl #18
     ef0:	31011101 	tstcc	r1, r1, lsl #2
     ef4:	00130113 	andseq	r0, r3, r3, lsl r1
     ef8:	828a0a00 	addhi	r0, sl, #0, 20
     efc:	18020001 	stmdane	r2, {r0}
     f00:	00184291 	mulseq	r8, r1, r2
     f04:	012e0b00 	teqeq	lr, r0, lsl #22
     f08:	0e03193f 	mcreq	9, 0, r1, cr3, cr15, {1}
     f0c:	0b3b0b3a 	bleq	ec3bfc <__bss_end__+0xeb9bbc>
     f10:	13491927 	movtne	r1, #39207	; 0x9927
     f14:	06120111 			; <UNDEFINED> instruction: 0x06120111
     f18:	42971840 	addsmi	r1, r7, #64, 16	; 0x400000
     f1c:	00130119 	andseq	r0, r3, r9, lsl r1
     f20:	00050c00 	andeq	r0, r5, r0, lsl #24
     f24:	0b3a0803 	bleq	e82f38 <__bss_end__+0xe78ef8>
     f28:	13490b3b 	movtne	r0, #39739	; 0x9b3b
     f2c:	00001702 	andeq	r1, r0, r2, lsl #14
     f30:	0182890d 	orreq	r8, r2, sp, lsl #18
     f34:	31011101 	tstcc	r1, r1, lsl #2
     f38:	0e000013 	mcreq	0, 0, r0, cr0, cr3, {0}
     f3c:	0e030034 	mcreq	0, 0, r0, cr3, cr4, {1}
     f40:	0b3b0b3a 	bleq	ec3c30 <__bss_end__+0xeb9bf0>
     f44:	193f1349 	ldmdbne	pc!, {r0, r3, r6, r8, r9, ip}	; <UNPREDICTABLE>
     f48:	00001802 	andeq	r1, r0, r2, lsl #16
     f4c:	0b000f0f 	bleq	4b90 <_start-0x3470>
     f50:	0013490b 	andseq	r4, r3, fp, lsl #18
     f54:	00351000 	eorseq	r1, r5, r0
     f58:	00001349 	andeq	r1, r0, r9, asr #6
     f5c:	3f002e11 	svccc	0x00002e11
     f60:	3a0e0319 	bcc	381bcc <__bss_end__+0x377b8c>
     f64:	270b3b0b 	strcs	r3, [fp, -fp, lsl #22]
     f68:	00193c19 	andseq	r3, r9, r9, lsl ip
     f6c:	012e1200 	teqeq	lr, r0, lsl #4
     f70:	0e03193f 	mcreq	9, 0, r1, cr3, cr15, {1}
     f74:	0b3b0b3a 	bleq	ec3c64 <__bss_end__+0xeb9c24>
     f78:	193c1927 	ldmdbne	ip!, {r0, r1, r2, r5, r8, fp, ip}
     f7c:	00001301 	andeq	r1, r0, r1, lsl #6
     f80:	49000513 	stmdbmi	r0, {r0, r1, r4, r8, sl}
     f84:	14000013 	strne	r0, [r0], #-19
     f88:	193f012e 	ldmdbne	pc!, {r1, r2, r3, r5, r8}	; <UNPREDICTABLE>
     f8c:	0b3a0e03 	bleq	e847a0 <__bss_end__+0xe7a760>
     f90:	19270b3b 	stmdbne	r7!, {r0, r1, r3, r4, r5, r8, r9, fp}
     f94:	193c1349 	ldmdbne	ip!, {r0, r3, r6, r8, r9, ip}
     f98:	00001301 	andeq	r1, r0, r1, lsl #6
     f9c:	49002615 	stmdbmi	r0, {r0, r2, r4, r9, sl, sp}
     fa0:	16000013 			; <UNDEFINED> instruction: 0x16000013
     fa4:	00000035 	andeq	r0, r0, r5, lsr r0
     fa8:	01110100 	tsteq	r1, r0, lsl #2
     fac:	0b130e25 	bleq	4c4848 <__bss_end__+0x4ba808>
     fb0:	0e1b0e03 	cdpeq	14, 1, cr0, cr11, cr3, {0}
     fb4:	06120111 			; <UNDEFINED> instruction: 0x06120111
     fb8:	00001710 	andeq	r1, r0, r0, lsl r7
     fbc:	0b002402 	bleq	9fcc <__bss_start__+0x398>
     fc0:	030b3e0b 	movweq	r3, #48651	; 0xbe0b
     fc4:	03000008 	movweq	r0, #8
     fc8:	0b0b0024 	bleq	2c1060 <__bss_end__+0x2b7020>
     fcc:	0e030b3e 	vmoveq.16	d3[0], r0
     fd0:	2e040000 	cdpcs	0, 0, cr0, cr4, cr0, {0}
     fd4:	3a0e0301 	bcc	381be0 <__bss_end__+0x377ba0>
     fd8:	270b3b0b 	strcs	r3, [fp, -fp, lsl #22]
     fdc:	11134919 	tstne	r3, r9, lsl r9
     fe0:	40061201 	andmi	r1, r6, r1, lsl #4
     fe4:	19429718 	stmdbne	r2, {r3, r4, r8, r9, sl, ip, pc}^
     fe8:	00001301 	andeq	r1, r0, r1, lsl #6
     fec:	03000505 	movweq	r0, #1285	; 0x505
     ff0:	3b0b3a08 	blcc	2cf818 <__bss_end__+0x2c57d8>
     ff4:	0213490b 	andseq	r4, r3, #180224	; 0x2c000
     ff8:	06000017 			; <UNDEFINED> instruction: 0x06000017
     ffc:	01018289 	smlabbeq	r1, r9, r2, r8
    1000:	13310111 	teqne	r1, #1073741828	; 0x40000004
    1004:	8a070000 	bhi	1c100c <__bss_end__+0x1b6fcc>
    1008:	02000182 	andeq	r0, r0, #-2147483616	; 0x80000020
    100c:	18429118 	stmdane	r2, {r3, r4, r8, ip, pc}^
    1010:	2e080000 	cdpcs	0, 0, cr0, cr8, cr0, {0}
    1014:	03193f00 	tsteq	r9, #0, 30
    1018:	3b0b3a0e 	blcc	2cf858 <__bss_end__+0x2c5818>
    101c:	1119270b 	tstne	r9, fp, lsl #14
    1020:	40061201 	andmi	r1, r6, r1, lsl #4
    1024:	19429718 	stmdbne	r2, {r3, r4, r8, r9, sl, ip, pc}^
    1028:	2e090000 	cdpcs	0, 0, cr0, cr9, cr0, {0}
    102c:	03193f01 	tsteq	r9, #1, 30
    1030:	3b0b3a0e 	blcc	2cf870 <__bss_end__+0x2c5830>
    1034:	1119270b 	tstne	r9, fp, lsl #14
    1038:	40061201 	andmi	r1, r6, r1, lsl #4
    103c:	19429718 	stmdbne	r2, {r3, r4, r8, r9, sl, ip, pc}^
    1040:	00001301 	andeq	r1, r0, r1, lsl #6
    1044:	0300050a 	movweq	r0, #1290	; 0x50a
    1048:	3b0b3a08 	blcc	2cf870 <__bss_end__+0x2c5830>
    104c:	0213490b 	andseq	r4, r3, #180224	; 0x2c000
    1050:	0b000018 	bleq	10b8 <_start-0x6f48>
    1054:	19270115 	stmdbne	r7!, {r0, r2, r4, r8}
    1058:	13011349 	movwne	r1, #4937	; 0x1349
    105c:	050c0000 	streq	r0, [ip, #-0]
    1060:	00134900 	andseq	r4, r3, r0, lsl #18
    1064:	000f0d00 	andeq	r0, pc, r0, lsl #26
    1068:	13490b0b 	movtne	r0, #39691	; 0x9b0b
    106c:	340e0000 	strcc	r0, [lr], #-0
    1070:	3a0e0300 	bcc	381c78 <__bss_end__+0x377c38>
    1074:	490b3b0b 	stmdbmi	fp, {r0, r1, r3, r8, r9, fp, ip, sp}
    1078:	02193f13 	andseq	r3, r9, #19, 30	; 0x4c
    107c:	0f000018 	svceq	0x00000018
    1080:	193f012e 	ldmdbne	pc!, {r1, r2, r3, r5, r8}	; <UNPREDICTABLE>
    1084:	0b3a0e03 	bleq	e84898 <__bss_end__+0xe7a858>
    1088:	19270b3b 	stmdbne	r7!, {r0, r1, r3, r4, r5, r8, r9, fp}
    108c:	0000193c 	andeq	r1, r0, ip, lsr r9
    1090:	01110100 	tsteq	r1, r0, lsl #2
    1094:	0b130e25 	bleq	4c4930 <__bss_end__+0x4ba8f0>
    1098:	0e1b0e03 	cdpeq	14, 1, cr0, cr11, cr3, {0}
    109c:	06120111 			; <UNDEFINED> instruction: 0x06120111
    10a0:	00001710 	andeq	r1, r0, r0, lsl r7
    10a4:	0b002402 	bleq	a0b4 <__bss_end__+0x74>
    10a8:	030b3e0b 	movweq	r3, #48651	; 0xbe0b
    10ac:	03000008 	movweq	r0, #8
    10b0:	0e030016 	mcreq	0, 0, r0, cr3, cr6, {0}
    10b4:	0b3b0b3a 	bleq	ec3da4 <__bss_end__+0xeb9d64>
    10b8:	00001349 	andeq	r1, r0, r9, asr #6
    10bc:	0b002404 	bleq	a0d4 <__bss_end__+0x94>
    10c0:	030b3e0b 	movweq	r3, #48651	; 0xbe0b
    10c4:	0500000e 	streq	r0, [r0, #-14]
    10c8:	0b0b000f 	bleq	2c110c <__bss_end__+0x2b70cc>
    10cc:	13060000 	movwne	r0, #24576	; 0x6000
    10d0:	3a0b0b01 	bcc	2c3cdc <__bss_end__+0x2b9c9c>
    10d4:	010b3b0b 	tsteq	fp, fp, lsl #22
    10d8:	07000013 	smladeq	r0, r3, r0, r0
    10dc:	0803000d 	stmdaeq	r3, {r0, r2, r3}
    10e0:	0b3b0b3a 	bleq	ec3dd0 <__bss_end__+0xeb9d90>
    10e4:	0b381349 	bleq	e05e10 <__bss_end__+0xdfbdd0>
    10e8:	0d080000 	stceq	0, cr0, [r8, #-0]
    10ec:	3a0e0300 	bcc	381cf4 <__bss_end__+0x377cb4>
    10f0:	490b3b0b 	stmdbmi	fp, {r0, r1, r3, r8, r9, fp, ip, sp}
    10f4:	000b3813 	andeq	r3, fp, r3, lsl r8
    10f8:	01040900 	tsteq	r4, r0, lsl #18
    10fc:	0b3a0b0b 	bleq	e83d30 <__bss_end__+0xe79cf0>
    1100:	13010b3b 	movwne	r0, #6971	; 0x1b3b
    1104:	280a0000 	stmdacs	sl, {}	; <UNPREDICTABLE>
    1108:	1c0e0300 	stcne	3, cr0, [lr], {-0}
    110c:	0b00000d 	bleq	1148 <_start-0x6eb8>
    1110:	193f012e 	ldmdbne	pc!, {r1, r2, r3, r5, r8}	; <UNPREDICTABLE>
    1114:	0b3a0e03 	bleq	e84928 <__bss_end__+0xe7a8e8>
    1118:	19270b3b 	stmdbne	r7!, {r0, r1, r3, r4, r5, r8, r9, fp}
    111c:	01111349 	tsteq	r1, r9, asr #6
    1120:	18400612 	stmdane	r0, {r1, r4, r9, sl}^
    1124:	01194297 			; <UNDEFINED> instruction: 0x01194297
    1128:	0c000013 	stceq	0, cr0, [r0], {19}
    112c:	08030034 	stmdaeq	r3, {r2, r4, r5}
    1130:	0b3b0b3a 	bleq	ec3e20 <__bss_end__+0xeb9de0>
    1134:	061c1349 	ldreq	r1, [ip], -r9, asr #6
    1138:	890d0000 	stmdbhi	sp, {}	; <UNPREDICTABLE>
    113c:	11010182 	smlabbne	r1, r2, r1, r0
    1140:	00133101 	andseq	r3, r3, r1, lsl #2
    1144:	828a0e00 	addhi	r0, sl, #0, 28
    1148:	18020001 	stmdane	r2, {r0}
    114c:	00184291 	mulseq	r8, r1, r2
    1150:	000f0f00 	andeq	r0, pc, r0, lsl #30
    1154:	13490b0b 	movtne	r0, #39691	; 0x9b0b
    1158:	2e100000 	cdpcs	0, 1, cr0, cr0, cr0, {0}
    115c:	03193f01 	tsteq	r9, #1, 30
    1160:	3b0b3a0e 	blcc	2cf9a0 <__bss_end__+0x2c5960>
    1164:	4919270b 	ldmdbmi	r9, {r0, r1, r3, r8, r9, sl, sp}
    1168:	00193c13 	andseq	r3, r9, r3, lsl ip
    116c:	00051100 	andeq	r1, r5, r0, lsl #2
    1170:	00001349 	andeq	r1, r0, r9, asr #6
    1174:	01110100 	tsteq	r1, r0, lsl #2
    1178:	0b130e25 	bleq	4c4a14 <__bss_end__+0x4ba9d4>
    117c:	0e1b0e03 	cdpeq	14, 1, cr0, cr11, cr3, {0}
    1180:	06120111 			; <UNDEFINED> instruction: 0x06120111
    1184:	00001710 	andeq	r1, r0, r0, lsl r7
    1188:	0b002402 	bleq	a198 <__bss_end__+0x158>
    118c:	030b3e0b 	movweq	r3, #48651	; 0xbe0b
    1190:	0300000e 	movweq	r0, #14
    1194:	0b0b0024 	bleq	2c122c <__bss_end__+0x2b71ec>
    1198:	08030b3e 	stmdaeq	r3, {r1, r2, r3, r4, r5, r8, r9, fp}
    119c:	0f040000 	svceq	0x00040000
    11a0:	000b0b00 	andeq	r0, fp, r0, lsl #22
    11a4:	000f0500 	andeq	r0, pc, r0, lsl #10
    11a8:	13490b0b 	movtne	r0, #39691	; 0x9b0b
    11ac:	16060000 	strne	r0, [r6], -r0
    11b0:	3a0e0300 	bcc	381db8 <__bss_end__+0x377d78>
    11b4:	490b3b0b 	stmdbmi	fp, {r0, r1, r3, r8, r9, fp, ip, sp}
    11b8:	07000013 	smladeq	r0, r3, r0, r0
    11bc:	193f012e 	ldmdbne	pc!, {r1, r2, r3, r5, r8}	; <UNPREDICTABLE>
    11c0:	0b3a0e03 	bleq	e849d4 <__bss_end__+0xe7a994>
    11c4:	19270b3b 	stmdbne	r7!, {r0, r1, r3, r4, r5, r8, r9, fp}
    11c8:	01111349 	tsteq	r1, r9, asr #6
    11cc:	18400612 	stmdane	r0, {r1, r4, r9, sl}^
    11d0:	00194297 	mulseq	r9, r7, r2
    11d4:	00050800 	andeq	r0, r5, r0, lsl #16
    11d8:	0b3a0803 	bleq	e831ec <__bss_end__+0xe791ac>
    11dc:	13490b3b 	movtne	r0, #39739	; 0x9b3b
    11e0:	00001802 	andeq	r1, r0, r2, lsl #16
    11e4:	03000509 	movweq	r0, #1289	; 0x509
    11e8:	3b0b3a08 	blcc	2cfa10 <__bss_end__+0x2c59d0>
    11ec:	0213490b 	andseq	r4, r3, #180224	; 0x2c000
    11f0:	0a000017 	beq	1254 <_start-0x6dac>
    11f4:	08030034 	stmdaeq	r3, {r2, r4, r5}
    11f8:	0b3b0b3a 	bleq	ec3ee8 <__bss_end__+0xeb9ea8>
    11fc:	17021349 	strne	r1, [r2, -r9, asr #6]
    1200:	340b0000 	strcc	r0, [fp], #-0
    1204:	3a080300 	bcc	201e0c <__bss_end__+0x1f7dcc>
    1208:	490b3b0b 	stmdbmi	fp, {r0, r1, r3, r8, r9, fp, ip, sp}
    120c:	00180213 	andseq	r0, r8, r3, lsl r2
	...

Disassembly of section .debug_aranges:

00000000 <.debug_aranges>:
   0:	0000001c 	andeq	r0, r0, ip, lsl r0
   4:	00000002 	andeq	r0, r0, r2
   8:	00040000 	andeq	r0, r4, r0
   c:	00000000 	andeq	r0, r0, r0
  10:	00008010 	andeq	r8, r0, r0, lsl r0
  14:	00000054 	andeq	r0, r0, r4, asr r0
	...
  20:	0000001c 	andeq	r0, r0, ip, lsl r0
  24:	01da0002 	bicseq	r0, sl, r2
  28:	00040000 	andeq	r0, r4, r0
  2c:	00000000 	andeq	r0, r0, r0
  30:	00008064 	andeq	r8, r0, r4, rrx
  34:	00000214 	andeq	r0, r0, r4, lsl r2
	...
  40:	0000001c 	andeq	r0, r0, ip, lsl r0
  44:	07760002 	ldrbeq	r0, [r6, -r2]!
  48:	00040000 	andeq	r0, r4, r0
  4c:	00000000 	andeq	r0, r0, r0
  50:	00008278 	andeq	r8, r0, r8, ror r2
  54:	00000058 	andeq	r0, r0, r8, asr r0
	...
  60:	0000001c 	andeq	r0, r0, ip, lsl r0
  64:	090b0002 	stmdbeq	fp, {r1}
  68:	00040000 	andeq	r0, r4, r0
  6c:	00000000 	andeq	r0, r0, r0
  70:	000082d0 	ldrdeq	r8, [r0], -r0
  74:	00000034 	andeq	r0, r0, r4, lsr r0
	...
  80:	0000001c 	andeq	r0, r0, ip, lsl r0
  84:	09fd0002 	ldmibeq	sp!, {r1}^
  88:	00040000 	andeq	r0, r4, r0
  8c:	00000000 	andeq	r0, r0, r0
  90:	00008304 	andeq	r8, r0, r4, lsl #6
  94:	00000524 	andeq	r0, r0, r4, lsr #10
	...
  a0:	0000001c 	andeq	r0, r0, ip, lsl r0
  a4:	10a20002 	adcne	r0, r2, r2
  a8:	00040000 	andeq	r0, r4, r0
  ac:	00000000 	andeq	r0, r0, r0
  b0:	00008828 	andeq	r8, r0, r8, lsr #16
  b4:	00000028 	andeq	r0, r0, r8, lsr #32
	...
  c0:	0000001c 	andeq	r0, r0, ip, lsl r0
  c4:	11a50002 			; <UNDEFINED> instruction: 0x11a50002
  c8:	00040000 	andeq	r0, r4, r0
  cc:	00000000 	andeq	r0, r0, r0
  d0:	00008850 	andeq	r8, r0, r0, asr r8
  d4:	000000b0 	strheq	r0, [r0], -r0	; <UNPREDICTABLE>
	...
  e0:	0000001c 	andeq	r0, r0, ip, lsl r0
  e4:	14860002 	strne	r0, [r6], #2
  e8:	00040000 	andeq	r0, r4, r0
  ec:	00000000 	andeq	r0, r0, r0
  f0:	00008900 	andeq	r8, r0, r0, lsl #18
  f4:	00000074 	andeq	r0, r0, r4, ror r0
	...
 100:	0000001c 	andeq	r0, r0, ip, lsl r0
 104:	16370002 	ldrtne	r0, [r7], -r2
 108:	00040000 	andeq	r0, r4, r0
 10c:	00000000 	andeq	r0, r0, r0
 110:	00008974 	andeq	r8, r0, r4, ror r9
 114:	00000088 	andeq	r0, r0, r8, lsl #1
	...
 120:	0000001c 	andeq	r0, r0, ip, lsl r0
 124:	18130002 	ldmdane	r3, {r1}
 128:	00040000 	andeq	r0, r4, r0
 12c:	00000000 	andeq	r0, r0, r0
 130:	000089fc 	strdeq	r8, [r0], -ip
 134:	000005a0 	andeq	r0, r0, r0, lsr #11
	...
 140:	0000001c 	andeq	r0, r0, ip, lsl r0
 144:	20990002 	addscs	r0, r9, r2
 148:	00040000 	andeq	r0, r4, r0
 14c:	00000000 	andeq	r0, r0, r0
 150:	00008f9c 	muleq	r0, ip, pc	; <UNPREDICTABLE>
 154:	00000668 	andeq	r0, r0, r8, ror #12
	...
 160:	0000001c 	andeq	r0, r0, ip, lsl r0
 164:	328f0002 	addcc	r0, pc, #2
 168:	00040000 	andeq	r0, r4, r0
 16c:	00000000 	andeq	r0, r0, r0
 170:	00009604 	andeq	r9, r0, r4, lsl #12
 174:	00000154 	andeq	r0, r0, r4, asr r1
	...
 180:	0000001c 	andeq	r0, r0, ip, lsl r0
 184:	36920002 	ldrcc	r0, [r2], r2
 188:	00040000 	andeq	r0, r4, r0
 18c:	00000000 	andeq	r0, r0, r0
 190:	000097bc 			; <UNDEFINED> instruction: 0x000097bc
 194:	0000003c 	andeq	r0, r0, ip, lsr r0
	...
 1a0:	0000001c 	andeq	r0, r0, ip, lsl r0
 1a4:	37a90002 	strcc	r0, [r9, r2]!
 1a8:	00040000 	andeq	r0, r4, r0
 1ac:	00000000 	andeq	r0, r0, r0
 1b0:	000097f8 	strdeq	r9, [r0], -r8
 1b4:	00000050 	andeq	r0, r0, r0, asr r0
	...
 1c0:	0000001c 	andeq	r0, r0, ip, lsl r0
 1c4:	39700002 	ldmdbcc	r0!, {r1}^
 1c8:	00040000 	andeq	r0, r4, r0
 1cc:	00000000 	andeq	r0, r0, r0
 1d0:	00009848 	andeq	r9, r0, r8, asr #16
 1d4:	00000020 	andeq	r0, r0, r0, lsr #32
	...

Disassembly of section .debug_line:

00000000 <.debug_line>:
       0:	000000dd 	ldrdeq	r0, [r0], -sp
       4:	00c10002 	sbceq	r0, r1, r2
       8:	01020000 	mrseq	r0, (UNDEF: 2)
       c:	000d0efb 	strdeq	r0, [sp], -fp
      10:	01010101 	tsteq	r1, r1, lsl #2
      14:	01000000 	mrseq	r0, (UNDEF: 0)
      18:	2f010000 	svccs	0x00010000
      1c:	72657355 	rsbvc	r7, r5, #1409286145	; 0x54000001
      20:	72622f73 	rsbvc	r2, r2, #460	; 0x1cc
      24:	6a6e6169 	bvs	1b985d0 <__bss_end__+0x1b8e590>
      28:	442f6e75 	strtmi	r6, [pc], #-3701	; 30 <_start-0x7fd0>
      2c:	746b7365 	strbtvc	r7, [fp], #-869	; 0x365
      30:	732f706f 	teqvc	pc, #111	; 0x6f
      34:	6f6f6863 	svcvs	0x006f6863
      38:	69572f6c 	ldmdbvs	r7, {r2, r3, r5, r6, r8, r9, sl, fp, sp}^
      3c:	7265746e 	rsbvc	r7, r5, #1845493760	; 0x6e000000
      40:	30323931 	eorscc	r3, r2, r1, lsr r9
      44:	3153432f 	cmpcc	r3, pc, lsr #6
      48:	2f453034 	svccs	0x00453034
      4c:	34317363 	ldrtcc	r7, [r1], #-867	; 0x363
      50:	322d6530 	eorcc	r6, sp, #48, 10	; 0xc000000
      54:	6e697730 	mcrvs	7, 3, r7, cr9, cr0, {1}
      58:	62696c2f 	rsbvs	r6, r9, #12032	; 0x2f00
      5c:	632f6970 	teqvs	pc, #112, 18	; 0x1c0000
      60:	30343173 	eorscc	r3, r4, r3, ror r1
      64:	72732d65 	rsbsvc	r2, r3, #6464	; 0x1940
      68:	552f0063 	strpl	r0, [pc, #-99]!	; d <_start-0x7ff3>
      6c:	73726573 	cmnvc	r2, #482344960	; 0x1cc00000
      70:	6972622f 	ldmdbvs	r2!, {r0, r1, r2, r3, r5, r9, sp, lr}^
      74:	756a6e61 	strbvc	r6, [sl, #-3681]!	; 0xe61
      78:	65442f6e 	strbvs	r2, [r4, #-3950]	; 0xf6e
      7c:	6f746b73 	svcvs	0x00746b73
      80:	63732f70 	cmnvs	r3, #112, 30	; 0x1c0
      84:	6c6f6f68 	stclvs	15, cr6, [pc], #-416	; fffffeec <__bss_end__+0xffff5eac>
      88:	6e69572f 	cdpvs	7, 6, cr5, cr9, cr15, {1}
      8c:	31726574 	cmncc	r2, r4, ror r5
      90:	2f303239 	svccs	0x00303239
      94:	34315343 	ldrtcc	r5, [r1], #-835	; 0x343
      98:	632f4530 	teqvs	pc, #48, 10	; 0xc000000
      9c:	30343173 	eorscc	r3, r4, r3, ror r1
      a0:	30322d65 	eorscc	r2, r2, r5, ror #26
      a4:	2f6e6977 	svccs	0x006e6977
      a8:	7062696c 	rsbvc	r6, r2, ip, ror #18
      ac:	6f000069 	svcvs	0x00000069
      b0:	00632e6e 	rsbeq	r2, r3, lr, ror #28
      b4:	67000000 	strvs	r0, [r0, -r0]
      b8:	2e6f6970 	mcrcs	9, 3, r6, cr15, cr0, {3}
      bc:	00010068 	andeq	r0, r1, r8, rrx
      c0:	69707200 	ldmdbvs	r0!, {r9, ip, sp, lr}^
      c4:	0200682e 	andeq	r6, r0, #3014656	; 0x2e0000
      c8:	00000000 	andeq	r0, r0, r0
      cc:	80100205 	andshi	r0, r0, r5, lsl #4
      d0:	2f160000 	svccs	0x00160000
      d4:	4b4b4e2f 	blmi	12d3998 <__bss_end__+0x12c9958>
      d8:	684b4b68 	stmdavs	fp, {r3, r5, r6, r8, r9, fp, lr}^
      dc:	01000602 	tsteq	r0, r2, lsl #12
      e0:	0000e501 	andeq	lr, r0, r1, lsl #10
      e4:	6e000200 	cdpvs	2, 0, cr0, cr0, cr0, {0}
      e8:	02000000 	andeq	r0, r0, #0
      ec:	0d0efb01 	vstreq	d15, [lr, #-4]
      f0:	01010100 	mrseq	r0, (UNDEF: 17)
      f4:	00000001 	andeq	r0, r0, r1
      f8:	01000001 	tsteq	r0, r1
      fc:	6573552f 	ldrbvs	r5, [r3, #-1327]!	; 0x52f
     100:	622f7372 	eorvs	r7, pc, #-939524095	; 0xc8000001
     104:	6e616972 	mcrvs	9, 3, r6, cr1, cr2, {3}
     108:	2f6e756a 	svccs	0x006e756a
     10c:	6b736544 	blvs	1cd9624 <__bss_end__+0x1ccf5e4>
     110:	2f706f74 	svccs	0x00706f74
     114:	6f686373 	svcvs	0x00686373
     118:	572f6c6f 	strpl	r6, [pc, -pc, ror #24]!
     11c:	65746e69 	ldrbvs	r6, [r4, #-3689]!	; 0xe69
     120:	32393172 	eorscc	r3, r9, #-2147483620	; 0x8000001c
     124:	53432f30 	movtpl	r2, #16176	; 0x3f30
     128:	45303431 	ldrmi	r3, [r0, #-1073]!	; 0x431
     12c:	3173632f 	cmncc	r3, pc, lsr #6
     130:	2d653034 	stclcs	0, cr3, [r5, #-208]!	; 0xffffff30
     134:	69773032 	ldmdbvs	r7!, {r1, r4, r5, ip, sp}^
     138:	696c2f6e 	stmdbvs	ip!, {r1, r2, r3, r5, r6, r8, r9, sl, fp, sp}^
     13c:	00697062 	rsbeq	r7, r9, r2, rrx
     140:	69706700 	ldmdbvs	r0!, {r8, r9, sl, sp, lr}^
     144:	75702d6f 	ldrbvc	r2, [r0, #-3439]!	; 0xd6f
     148:	00632e64 	rsbeq	r2, r3, r4, ror #28
     14c:	72000000 	andvc	r0, r0, #0
     150:	682e6970 	stmdavs	lr!, {r4, r5, r6, r8, fp, sp, lr}
     154:	00000100 	andeq	r0, r0, r0, lsl #2
     158:	02050000 	andeq	r0, r5, #0
     15c:	00008064 	andeq	r8, r0, r4, rrx
     160:	00844c1a 	addeq	r4, r4, sl, lsl ip
     164:	2f010402 	svccs	0x00010402
     168:	4d4c2f85 	stclmi	15, cr2, [ip, #-532]	; 0xfffffdec
     16c:	0200842f 	andeq	r8, r0, #788529152	; 0x2f000000
     170:	842f0104 	strthi	r0, [pc], #-260	; 178 <_start-0x7e88>
     174:	04020084 	streq	r0, [r2], #-132	; 0x84
     178:	68842f01 	stmvs	r4, {r0, r8, r9, sl, fp, sp}
     17c:	01040200 	mrseq	r0, R12_usr
     180:	4c4b832f 	mcrrmi	3, 2, r8, fp, cr15
     184:	04020084 	streq	r0, [r2], #-132	; 0x84
     188:	2f852f01 	svccs	0x00852f01
     18c:	842f4d4c 	strthi	r4, [pc], #-3404	; 194 <_start-0x7e6c>
     190:	01040200 	mrseq	r0, R12_usr
     194:	0084842f 	addeq	r8, r4, pc, lsr #8
     198:	2f010402 	svccs	0x00010402
     19c:	02006884 	andeq	r6, r0, #132, 16	; 0x840000
     1a0:	832f0104 	teqhi	pc, #4, 2
     1a4:	00844c4d 	addeq	r4, r4, sp, asr #24
     1a8:	2f010402 	svccs	0x00010402
     1ac:	4e4c2f85 	cdpmi	15, 4, cr2, cr12, cr5, {4}
     1b0:	04020068 	streq	r0, [r2], #-104	; 0x68
     1b4:	84842f01 	strhi	r2, [r4], #3841	; 0xf01
     1b8:	01040200 	mrseq	r0, R12_usr
     1bc:	0068842f 	rsbeq	r8, r8, pc, lsr #8
     1c0:	2f010402 	svccs	0x00010402
     1c4:	00040283 	andeq	r0, r4, r3, lsl #5
     1c8:	01020101 	tsteq	r2, r1, lsl #2
     1cc:	00020000 	andeq	r0, r2, r0
     1d0:	000000eb 	andeq	r0, r0, fp, ror #1
     1d4:	0efb0102 	cdpeq	1, 15, cr0, cr11, cr2, {0}
     1d8:	0101000d 	tsteq	r1, sp
     1dc:	00000101 	andeq	r0, r0, r1, lsl #2
     1e0:	00000100 	andeq	r0, r0, r0, lsl #2
     1e4:	62696c01 	rsbvs	r6, r9, #256	; 0x100
     1e8:	752f0063 	strvc	r0, [pc, #-99]!	; 18d <_start-0x7e73>
     1ec:	6c2f7273 	sfmvs	f7, 4, [pc], #-460	; 28 <_start-0x7fd8>
     1f0:	6c61636f 	stclvs	3, cr6, [r1], #-444	; 0xfffffe44
     1f4:	6c65432f 	stclvs	3, cr4, [r5], #-188	; 0xffffff44
     1f8:	2f72616c 	svccs	0x0072616c
     1fc:	2d6d7261 	sfmcs	f7, 2, [sp, #-388]!	; 0xfffffe7c
     200:	656e6f6e 	strbvs	r6, [lr, #-3950]!	; 0xf6e
     204:	6261652d 	rsbvs	r6, r1, #188743680	; 0xb400000
     208:	2e342f69 	cdpcs	15, 3, cr2, cr4, cr9, {3}
     20c:	2d332e38 	ldccs	14, cr2, [r3, #-224]!	; 0xffffff20
     210:	37317363 	ldrcc	r7, [r1, -r3, ror #6]!
     214:	6c2f6530 	cfstr32vs	mvfx6, [pc], #-192	; 15c <_start-0x7ea4>
     218:	672f6269 	strvs	r6, [pc, -r9, ror #4]!
     21c:	612f6363 	teqvs	pc, r3, ror #6
     220:	6e2d6d72 	mcrvs	13, 1, r6, cr13, cr2, {3}
     224:	2d656e6f 	stclcs	14, cr6, [r5, #-444]!	; 0xfffffe44
     228:	69626165 	stmdbvs	r2!, {r0, r2, r5, r6, r8, sp, lr}^
     22c:	382e342f 	stmdacc	lr!, {r0, r1, r2, r3, r5, sl, ip, sp}
     230:	692f332e 	stmdbvs	pc!, {r1, r2, r3, r5, r8, r9, ip, sp}	; <UNPREDICTABLE>
     234:	756c636e 	strbvc	r6, [ip, #-878]!	; 0x36e
     238:	2f006564 	svccs	0x00006564
     23c:	72657355 	rsbvc	r7, r5, #1409286145	; 0x54000001
     240:	72622f73 	rsbvc	r2, r2, #460	; 0x1cc
     244:	6a6e6169 	bvs	1b987f0 <__bss_end__+0x1b8e7b0>
     248:	442f6e75 	strtmi	r6, [pc], #-3701	; 250 <_start-0x7db0>
     24c:	746b7365 	strbtvc	r7, [fp], #-869	; 0x365
     250:	732f706f 	teqvc	pc, #111	; 0x6f
     254:	6f6f6863 	svcvs	0x006f6863
     258:	69572f6c 	ldmdbvs	r7, {r2, r3, r5, r6, r8, r9, sl, fp, sp}^
     25c:	7265746e 	rsbvc	r7, r5, #1845493760	; 0x6e000000
     260:	30323931 	eorscc	r3, r2, r1, lsr r9
     264:	3153432f 	cmpcc	r3, pc, lsr #6
     268:	2f453034 	svccs	0x00453034
     26c:	34317363 	ldrtcc	r7, [r1], #-867	; 0x363
     270:	322d6530 	eorcc	r6, sp, #48, 10	; 0xc000000
     274:	6e697730 	mcrvs	7, 3, r7, cr9, cr0, {1}
     278:	62696c2f 	rsbvs	r6, r9, #12032	; 0x2f00
     27c:	00006970 	andeq	r6, r0, r0, ror r9
     280:	6e697270 	mcrvs	2, 3, r7, cr9, cr0, {3}
     284:	632e6b74 	teqvs	lr, #116, 22	; 0x1d000
     288:	00000100 	andeq	r0, r0, r0, lsl #2
     28c:	61647473 	smcvs	18243	; 0x4743
     290:	682e6772 	stmdavs	lr!, {r1, r4, r5, r6, r8, r9, sl, sp, lr}
     294:	00000200 	andeq	r0, r0, r0, lsl #4
     298:	6975623c 	ldmdbvs	r5!, {r2, r3, r4, r5, r9, sp, lr}^
     29c:	692d746c 	pushvs	{r2, r3, r5, r6, sl, ip, sp, lr}
     2a0:	00003e6e 	andeq	r3, r0, lr, ror #28
     2a4:	70720000 	rsbsvc	r0, r2, r0
     2a8:	00682e69 	rsbeq	r2, r8, r9, ror #28
     2ac:	76000003 	strvc	r0, [r0], -r3
     2b0:	72702d61 	rsbsvc	r2, r0, #6208	; 0x1840
     2b4:	6b746e69 	blvs	1d1bc60 <__bss_end__+0x1d11c20>
     2b8:	0100682e 	tsteq	r0, lr, lsr #16
     2bc:	00000000 	andeq	r0, r0, r0
     2c0:	82780205 	rsbshi	r0, r8, #1342177280	; 0x50000000
     2c4:	6b170000 	blvs	5c02cc <__bss_end__+0x5b628c>
     2c8:	0289bf4b 	addeq	fp, r9, #300	; 0x12c
     2cc:	0101000e 	tsteq	r1, lr
     2d0:	00000096 	muleq	r0, r6, r0
     2d4:	006f0002 	rsbeq	r0, pc, r2
     2d8:	01020000 	mrseq	r0, (UNDEF: 2)
     2dc:	000d0efb 	strdeq	r0, [sp], -fp
     2e0:	01010101 	tsteq	r1, r1, lsl #2
     2e4:	01000000 	mrseq	r0, (UNDEF: 0)
     2e8:	6c010000 	stcvs	0, cr0, [r1], {-0}
     2ec:	00636269 	rsbeq	r6, r3, r9, ror #4
     2f0:	6573552f 	ldrbvs	r5, [r3, #-1327]!	; 0x52f
     2f4:	622f7372 	eorvs	r7, pc, #-939524095	; 0xc8000001
     2f8:	6e616972 	mcrvs	9, 3, r6, cr1, cr2, {3}
     2fc:	2f6e756a 	svccs	0x006e756a
     300:	6b736544 	blvs	1cd9818 <__bss_end__+0x1ccf7d8>
     304:	2f706f74 	svccs	0x00706f74
     308:	6f686373 	svcvs	0x00686373
     30c:	572f6c6f 	strpl	r6, [pc, -pc, ror #24]!
     310:	65746e69 	ldrbvs	r6, [r4, #-3689]!	; 0xe69
     314:	32393172 	eorscc	r3, r9, #-2147483620	; 0x8000001c
     318:	53432f30 	movtpl	r2, #16176	; 0x3f30
     31c:	45303431 	ldrmi	r3, [r0, #-1073]!	; 0x431
     320:	3173632f 	cmncc	r3, pc, lsr #6
     324:	2d653034 	stclcs	0, cr3, [r5, #-208]!	; 0xffffff30
     328:	69773032 	ldmdbvs	r7!, {r1, r4, r5, ip, sp}^
     32c:	696c2f6e 	stmdbvs	ip!, {r1, r2, r3, r5, r6, r8, r9, sl, fp, sp}^
     330:	00697062 	rsbeq	r7, r9, r2, rrx
     334:	74757000 	ldrbtvc	r7, [r5], #-0
     338:	00632e6b 	rsbeq	r2, r3, fp, ror #28
     33c:	72000001 	andvc	r0, r0, #1
     340:	682e6970 	stmdavs	lr!, {r4, r5, r6, r8, fp, sp, lr}
     344:	00000200 	andeq	r0, r0, r0, lsl #4
     348:	02050000 	andeq	r0, r5, #0
     34c:	000082d0 	ldrdeq	r8, [r0], -r0
     350:	002d4c15 	eoreq	r4, sp, r5, lsl ip
     354:	2f020402 	svccs	0x00020402
     358:	02040200 	andeq	r0, r4, #0, 4
     35c:	04020049 	streq	r0, [r2], #-73	; 0x49
     360:	062e0601 	strteq	r0, [lr], -r1, lsl #12
     364:	0006026b 	andeq	r0, r6, fp, ror #4
     368:	01e20101 	mvneq	r0, r1, lsl #2
     36c:	00020000 	andeq	r0, r2, r0
     370:	000000df 	ldrdeq	r0, [r0], -pc	; <UNPREDICTABLE>
     374:	0efb0102 	cdpeq	1, 15, cr0, cr11, cr2, {0}
     378:	0101000d 	tsteq	r1, sp
     37c:	00000101 	andeq	r0, r0, r1, lsl #2
     380:	00000100 	andeq	r0, r0, r0, lsl #2
     384:	62696c01 	rsbvs	r6, r9, #256	; 0x100
     388:	752f0063 	strvc	r0, [pc, #-99]!	; 32d <_start-0x7cd3>
     38c:	6c2f7273 	sfmvs	f7, 4, [pc], #-460	; 1c8 <_start-0x7e38>
     390:	6c61636f 	stclvs	3, cr6, [r1], #-444	; 0xfffffe44
     394:	6c65432f 	stclvs	3, cr4, [r5], #-188	; 0xffffff44
     398:	2f72616c 	svccs	0x0072616c
     39c:	2d6d7261 	sfmcs	f7, 2, [sp, #-388]!	; 0xfffffe7c
     3a0:	656e6f6e 	strbvs	r6, [lr, #-3950]!	; 0xf6e
     3a4:	6261652d 	rsbvs	r6, r1, #188743680	; 0xb400000
     3a8:	2e342f69 	cdpcs	15, 3, cr2, cr4, cr9, {3}
     3ac:	2d332e38 	ldccs	14, cr2, [r3, #-224]!	; 0xffffff20
     3b0:	37317363 	ldrcc	r7, [r1, -r3, ror #6]!
     3b4:	6c2f6530 	cfstr32vs	mvfx6, [pc], #-192	; 2fc <_start-0x7d04>
     3b8:	672f6269 	strvs	r6, [pc, -r9, ror #4]!
     3bc:	612f6363 	teqvs	pc, r3, ror #6
     3c0:	6e2d6d72 	mcrvs	13, 1, r6, cr13, cr2, {3}
     3c4:	2d656e6f 	stclcs	14, cr6, [r5, #-444]!	; 0xfffffe44
     3c8:	69626165 	stmdbvs	r2!, {r0, r2, r5, r6, r8, sp, lr}^
     3cc:	382e342f 	stmdacc	lr!, {r0, r1, r2, r3, r5, sl, ip, sp}
     3d0:	692f332e 	stmdbvs	pc!, {r1, r2, r3, r5, r8, r9, ip, sp}	; <UNPREDICTABLE>
     3d4:	756c636e 	strbvc	r6, [ip, #-878]!	; 0x36e
     3d8:	2f006564 	svccs	0x00006564
     3dc:	72657355 	rsbvc	r7, r5, #1409286145	; 0x54000001
     3e0:	72622f73 	rsbvc	r2, r2, #460	; 0x1cc
     3e4:	6a6e6169 	bvs	1b98990 <__bss_end__+0x1b8e950>
     3e8:	442f6e75 	strtmi	r6, [pc], #-3701	; 3f0 <_start-0x7c10>
     3ec:	746b7365 	strbtvc	r7, [fp], #-869	; 0x365
     3f0:	732f706f 	teqvc	pc, #111	; 0x6f
     3f4:	6f6f6863 	svcvs	0x006f6863
     3f8:	69572f6c 	ldmdbvs	r7, {r2, r3, r5, r6, r8, r9, sl, fp, sp}^
     3fc:	7265746e 	rsbvc	r7, r5, #1845493760	; 0x6e000000
     400:	30323931 	eorscc	r3, r2, r1, lsr r9
     404:	3153432f 	cmpcc	r3, pc, lsr #6
     408:	2f453034 	svccs	0x00453034
     40c:	34317363 	ldrtcc	r7, [r1], #-867	; 0x363
     410:	322d6530 	eorcc	r6, sp, #48, 10	; 0xc000000
     414:	6e697730 	mcrvs	7, 3, r7, cr9, cr0, {1}
     418:	62696c2f 	rsbvs	r6, r9, #12032	; 0x2f00
     41c:	00006970 	andeq	r6, r0, r0, ror r9
     420:	702d6176 	eorvc	r6, sp, r6, ror r1
     424:	746e6972 	strbtvc	r6, [lr], #-2418	; 0x972
     428:	00632e6b 	rsbeq	r2, r3, fp, ror #28
     42c:	73000001 	movwvc	r0, #1
     430:	72616474 	rsbvc	r6, r1, #116, 8	; 0x74000000
     434:	00682e67 	rsbeq	r2, r8, r7, ror #28
     438:	72000002 	andvc	r0, r0, #2
     43c:	682e6970 	stmdavs	lr!, {r4, r5, r6, r8, fp, sp, lr}
     440:	00000300 	andeq	r0, r0, r0, lsl #6
     444:	6975623c 	ldmdbvs	r5!, {r2, r3, r4, r5, r9, sp, lr}^
     448:	692d746c 	pushvs	{r2, r3, r5, r6, sl, ip, sp, lr}
     44c:	00003e6e 	andeq	r3, r0, lr, ror #28
     450:	00000000 	andeq	r0, r0, r0
     454:	83040205 	movwhi	r0, #16901	; 0x4205
     458:	26030000 	strcs	r0, [r3], -r0
     45c:	13a50101 			; <UNDEFINED> instruction: 0x13a50101
     460:	02002d31 	andeq	r2, r0, #3136	; 0xc40
     464:	002f0204 	eoreq	r0, pc, r4, lsl #4
     468:	2d020402 	cfstrscs	mvf0, [r2, #-8]
     46c:	02040200 	andeq	r0, r4, #0, 4
     470:	0402002f 	streq	r0, [r2], #-47	; 0x2f
     474:	4c4c2d01 	mcrrmi	13, 0, r2, ip, cr1
     478:	2f4b1430 	svccs	0x004b1430
     47c:	0402004f 	streq	r0, [r2], #-79	; 0x4f
     480:	02006702 	andeq	r6, r0, #524288	; 0x80000
     484:	4c650104 	stfmie	f0, [r5], #-16
     488:	2fa0304d 	svccs	0x00a0304d
     48c:	26023031 			; <UNDEFINED> instruction: 0x26023031
     490:	2c2d8416 	cfstrscs	mvf8, [sp], #-88	; 0xffffffa8
     494:	01040200 	mrseq	r0, R12_usr
     498:	04020030 	streq	r0, [r2], #-48	; 0x30
     49c:	66063301 	strvs	r3, [r6], -r1, lsl #6
     4a0:	01040200 	mrseq	r0, R12_usr
     4a4:	0402002e 	streq	r0, [r2], #-46	; 0x2e
     4a8:	21080601 	tstcs	r8, r1, lsl #12
     4ac:	73032f67 	movwvc	r2, #16231	; 0x3f67
     4b0:	2e130382 	cdpcs	3, 1, cr0, cr3, cr2, {4}
     4b4:	01040200 	mrseq	r0, R12_usr
     4b8:	02002e06 	andeq	r2, r0, #6, 28	; 0x60
     4bc:	9f060104 	svcls	0x00060104
     4c0:	67034b6a 	strvs	r4, [r3, -sl, ror #22]
     4c4:	2e21032e 	cdpcs	3, 2, cr0, cr1, cr14, {1}
     4c8:	01040200 	mrseq	r0, R12_usr
     4cc:	02002e06 	andeq	r2, r0, #6, 28	; 0x60
     4d0:	9f060104 	svcls	0x00060104
     4d4:	01040200 	mrseq	r0, R12_usr
     4d8:	f323086a 	vsub.i32	q0, <illegal reg q1.5>, q13
     4dc:	087fa603 	ldmdaeq	pc!, {r0, r1, r9, sl, sp, pc}^	; <UNPREDICTABLE>
     4e0:	02004b3c 	andeq	r4, r0, #60, 22	; 0xf000
     4e4:	4a060104 	bmi	1808fc <__bss_end__+0x1768bc>
     4e8:	4b210806 	blmi	842508 <__bss_end__+0x8384c8>
     4ec:	d9034b2f 	stmdble	r3, {r0, r1, r2, r3, r5, r8, r9, fp, lr}
     4f0:	4c83f200 	sfmmi	f7, 1, [r3], {0}
     4f4:	2e0e0348 	cdpcs	3, 0, cr0, cr14, cr8, {2}
     4f8:	2f2e7503 	svccs	0x002e7503
     4fc:	2f4b842f 	svccs	0x004b842f
     500:	30314d2d 	eorscc	r4, r1, sp, lsr #26
     504:	0200832f 	andeq	r8, r0, #-1140850688	; 0xbc000000
     508:	a22c0104 	eorge	r0, ip, #4, 2
     50c:	01040200 	mrseq	r0, R12_usr
     510:	08064a06 	stmdaeq	r6, {r1, r2, r9, fp, lr}
     514:	16360222 	ldrtne	r0, [r6], -r2, lsr #4
     518:	08d60e03 	ldmeq	r6, {r0, r1, r9, sl, fp}^
     51c:	31f33021 	mvnscc	r3, r1, lsr #32
     520:	30f330f3 	ldrshtcc	r3, [r3], #3
     524:	30f3304b 	rscscc	r3, r3, fp, asr #32
     528:	2f312308 	svccs	0x00312308
     52c:	01040200 	mrseq	r0, R12_usr
     530:	04020065 	streq	r0, [r2], #-101	; 0x65
     534:	004a0602 	subeq	r0, sl, r2, lsl #12
     538:	06010402 	streq	r0, [r1], -r2, lsl #8
     53c:	00664203 	rsbeq	r4, r6, r3, lsl #4
     540:	06020402 	streq	r0, [r2], -r2, lsl #8
     544:	c2030666 	andgt	r0, r3, #106954752	; 0x6600000
     548:	02684a00 	rsbeq	r4, r8, #0, 20
     54c:	01010012 	tsteq	r1, r2, lsl r0
     550:	00000093 	muleq	r0, r3, r0
     554:	007d0002 	rsbseq	r0, sp, r2
     558:	01020000 	mrseq	r0, (UNDEF: 2)
     55c:	000d0efb 	strdeq	r0, [sp], -fp
     560:	01010101 	tsteq	r1, r1, lsl #2
     564:	01000000 	mrseq	r0, (UNDEF: 0)
     568:	63010000 	movwvs	r0, #4096	; 0x1000
     56c:	30343173 	eorscc	r3, r4, r3, ror r1
     570:	72732d65 	rsbsvc	r2, r3, #6464	; 0x1940
     574:	552f0063 	strpl	r0, [pc, #-99]!	; 519 <_start-0x7ae7>
     578:	73726573 	cmnvc	r2, #482344960	; 0x1cc00000
     57c:	6972622f 	ldmdbvs	r2!, {r0, r1, r2, r3, r5, r9, sp, lr}^
     580:	756a6e61 	strbvc	r6, [sl, #-3681]!	; 0xe61
     584:	65442f6e 	strbvs	r2, [r4, #-3950]	; 0xf6e
     588:	6f746b73 	svcvs	0x00746b73
     58c:	63732f70 	cmnvs	r3, #112, 30	; 0x1c0
     590:	6c6f6f68 	stclvs	15, cr6, [pc], #-416	; 3f8 <_start-0x7c08>
     594:	6e69572f 	cdpvs	7, 6, cr5, cr9, cr15, {1}
     598:	31726574 	cmncc	r2, r4, ror r5
     59c:	2f303239 	svccs	0x00303239
     5a0:	34315343 	ldrtcc	r5, [r1], #-835	; 0x343
     5a4:	632f4530 	teqvs	pc, #48, 10	; 0xc000000
     5a8:	30343173 	eorscc	r3, r4, r3, ror r1
     5ac:	30322d65 	eorscc	r2, r2, r5, ror #26
     5b0:	2f6e6977 	svccs	0x006e6977
     5b4:	7062696c 	rsbvc	r6, r2, ip, ror #18
     5b8:	63000069 	movwvs	r0, #105	; 0x69
     5bc:	6e61656c 	cdpvs	5, 6, cr6, cr1, cr12, {3}
     5c0:	6265722d 	rsbvs	r7, r5, #-805306366	; 0xd0000002
     5c4:	2e746f6f 	cdpcs	15, 7, cr6, cr4, cr15, {3}
     5c8:	00010063 	andeq	r0, r1, r3, rrx
     5cc:	69707200 	ldmdbvs	r0!, {r9, ip, sp, lr}^
     5d0:	0200682e 	andeq	r6, r0, #3014656	; 0x2e0000
     5d4:	00000000 	andeq	r0, r0, r0
     5d8:	88280205 	stmdahi	r8!, {r0, r2, r9}
     5dc:	2f150000 	svccs	0x00150000
     5e0:	06024b83 	streq	r4, [r2], -r3, lsl #23
     5e4:	21010100 	mrscs	r0, (UNDEF: 17)
     5e8:	02000001 	andeq	r0, r0, #1
     5ec:	0000f800 	andeq	pc, r0, r0, lsl #16
     5f0:	fb010200 	blx	40dfa <__bss_end__+0x36dba>
     5f4:	01000d0e 	tsteq	r0, lr, lsl #26
     5f8:	00010101 	andeq	r0, r1, r1, lsl #2
     5fc:	00010000 	andeq	r0, r1, r0
     600:	73630100 	cmnvc	r3, #0, 2
     604:	65303431 	ldrvs	r3, [r0, #-1073]!	; 0x431
     608:	6372732d 	cmnvs	r2, #-1275068416	; 0xb4000000
     60c:	73752f00 	cmnvc	r5, #0, 30
     610:	6f6c2f72 	svcvs	0x006c2f72
     614:	2f6c6163 	svccs	0x006c6163
     618:	6c6c6543 	cfstr64vs	mvdx6, [ip], #-268	; 0xfffffef4
     61c:	612f7261 	teqvs	pc, r1, ror #4
     620:	6e2d6d72 	mcrvs	13, 1, r6, cr13, cr2, {3}
     624:	2d656e6f 	stclcs	14, cr6, [r5, #-444]!	; 0xfffffe44
     628:	69626165 	stmdbvs	r2!, {r0, r2, r5, r6, r8, sp, lr}^
     62c:	382e342f 	stmdacc	lr!, {r0, r1, r2, r3, r5, sl, ip, sp}
     630:	632d332e 	teqvs	sp, #-1207959552	; 0xb8000000
     634:	30373173 	eorscc	r3, r7, r3, ror r1
     638:	696c2f65 	stmdbvs	ip!, {r0, r2, r5, r6, r8, r9, sl, fp, sp}^
     63c:	63672f62 	cmnvs	r7, #392	; 0x188
     640:	72612f63 	rsbvc	r2, r1, #396	; 0x18c
     644:	6f6e2d6d 	svcvs	0x006e2d6d
     648:	652d656e 	strvs	r6, [sp, #-1390]!	; 0x56e
     64c:	2f696261 	svccs	0x00696261
     650:	2e382e34 	mrccs	14, 1, r2, cr8, cr4, {1}
     654:	6e692f33 	mcrvs	15, 3, r2, cr9, cr3, {1}
     658:	64756c63 	ldrbtvs	r6, [r5], #-3171	; 0xc63
     65c:	552f0065 	strpl	r0, [pc, #-101]!	; 5ff <_start-0x7a01>
     660:	73726573 	cmnvc	r2, #482344960	; 0x1cc00000
     664:	6972622f 	ldmdbvs	r2!, {r0, r1, r2, r3, r5, r9, sp, lr}^
     668:	756a6e61 	strbvc	r6, [sl, #-3681]!	; 0xe61
     66c:	65442f6e 	strbvs	r2, [r4, #-3950]	; 0xf6e
     670:	6f746b73 	svcvs	0x00746b73
     674:	63732f70 	cmnvs	r3, #112, 30	; 0x1c0
     678:	6c6f6f68 	stclvs	15, cr6, [pc], #-416	; 4e0 <_start-0x7b20>
     67c:	6e69572f 	cdpvs	7, 6, cr5, cr9, cr15, {1}
     680:	31726574 	cmncc	r2, r4, ror r5
     684:	2f303239 	svccs	0x00303239
     688:	34315343 	ldrtcc	r5, [r1], #-835	; 0x343
     68c:	632f4530 	teqvs	pc, #48, 10	; 0xc000000
     690:	30343173 	eorscc	r3, r4, r3, ror r1
     694:	30322d65 	eorscc	r2, r2, r5, ror #26
     698:	2f6e6977 	svccs	0x006e6977
     69c:	7062696c 	rsbvc	r6, r2, ip, ror #18
     6a0:	63000069 	movwvs	r0, #105	; 0x69
     6a4:	72617473 	rsbvc	r7, r1, #1929379840	; 0x73000000
     6a8:	00632e74 	rsbeq	r2, r3, r4, ror lr
     6ac:	73000001 	movwvc	r0, #1
     6b0:	6e696474 	mcrvs	4, 3, r6, cr9, cr4, {3}
     6b4:	63672d74 	cmnvs	r7, #116, 26	; 0x1d00
     6b8:	00682e63 	rsbeq	r2, r8, r3, ror #28
     6bc:	73000002 	movwvc	r0, #2
     6c0:	61752d77 	cmnvs	r5, r7, ror sp
     6c4:	682e7472 	stmdavs	lr!, {r1, r4, r5, r6, sl, ip, sp, lr}
     6c8:	00000100 	andeq	r0, r0, r0, lsl #2
     6cc:	746e6f63 	strbtvc	r6, [lr], #-3939	; 0xf63
     6d0:	2d6c6f72 	stclcs	15, cr6, [ip, #-456]!	; 0xfffffe38
     6d4:	636f6c62 	cmnvs	pc, #25088	; 0x6200
     6d8:	00682e6b 	rsbeq	r2, r8, fp, ror #28
     6dc:	72000001 	andvc	r0, r0, #1
     6e0:	682e6970 	stmdavs	lr!, {r4, r5, r6, r8, fp, sp, lr}
     6e4:	00000300 	andeq	r0, r0, r0, lsl #6
     6e8:	02050000 	andeq	r0, r5, #0
     6ec:	00008850 	andeq	r8, r0, r0, asr r8
     6f0:	68684b17 	stmdavs	r8!, {r0, r1, r2, r4, r8, r9, fp, lr}^
     6f4:	2d2f3132 	stfcss	f3, [pc, #-200]!	; 634 <_start-0x79cc>
     6f8:	0402002f 	streq	r0, [r2], #-47	; 0x2f
     6fc:	2f4f4901 	svccs	0x004f4901
     700:	8367674b 	cmnhi	r7, #19660800	; 0x12c0000
     704:	022f4e67 	eoreq	r4, pc, #1648	; 0x670
     708:	01010010 	tsteq	r1, r0, lsl r0
     70c:	00000099 	muleq	r0, r9, r0
     710:	00770002 	rsbseq	r0, r7, r2
     714:	01020000 	mrseq	r0, (UNDEF: 2)
     718:	000d0efb 	strdeq	r0, [sp], -fp
     71c:	01010101 	tsteq	r1, r1, lsl #2
     720:	01000000 	mrseq	r0, (UNDEF: 0)
     724:	63010000 	movwvs	r0, #4096	; 0x1000
     728:	30343173 	eorscc	r3, r4, r3, ror r1
     72c:	72732d65 	rsbsvc	r2, r3, #6464	; 0x1940
     730:	552f0063 	strpl	r0, [pc, #-99]!	; 6d5 <_start-0x792b>
     734:	73726573 	cmnvc	r2, #482344960	; 0x1cc00000
     738:	6972622f 	ldmdbvs	r2!, {r0, r1, r2, r3, r5, r9, sp, lr}^
     73c:	756a6e61 	strbvc	r6, [sl, #-3681]!	; 0xe61
     740:	65442f6e 	strbvs	r2, [r4, #-3950]	; 0xf6e
     744:	6f746b73 	svcvs	0x00746b73
     748:	63732f70 	cmnvs	r3, #112, 30	; 0x1c0
     74c:	6c6f6f68 	stclvs	15, cr6, [pc], #-416	; 5b4 <_start-0x7a4c>
     750:	6e69572f 	cdpvs	7, 6, cr5, cr9, cr15, {1}
     754:	31726574 	cmncc	r2, r4, ror r5
     758:	2f303239 	svccs	0x00303239
     75c:	34315343 	ldrtcc	r5, [r1], #-835	; 0x343
     760:	632f4530 	teqvs	pc, #48, 10	; 0xc000000
     764:	30343173 	eorscc	r3, r4, r3, ror r1
     768:	30322d65 	eorscc	r2, r2, r5, ror #26
     76c:	2f6e6977 	svccs	0x006e6977
     770:	7062696c 	rsbvc	r6, r2, ip, ror #18
     774:	72000069 	andvc	r0, r0, #105	; 0x69
     778:	6f6f6265 	svcvs	0x006f6265
     77c:	00632e74 	rsbeq	r2, r3, r4, ror lr
     780:	72000001 	andvc	r0, r0, #1
     784:	682e6970 	stmdavs	lr!, {r4, r5, r6, r8, fp, sp, lr}
     788:	00000200 	andeq	r0, r0, r0, lsl #4
     78c:	02050000 	andeq	r0, r5, #0
     790:	00008900 	andeq	r8, r0, r0, lsl #18
     794:	14010d03 	strne	r0, [r1], #-3331	; 0xd03
     798:	15852f31 	strne	r2, [r5, #3889]	; 0xf31
     79c:	2f4d4b2f 	svccs	0x004d4b2f
     7a0:	67523567 	ldrbvs	r3, [r2, -r7, ror #10]
     7a4:	01001002 	tsteq	r0, r2
     7a8:	0000a301 	andeq	sl, r0, r1, lsl #6
     7ac:	76000200 	strvc	r0, [r0], -r0, lsl #4
     7b0:	02000000 	andeq	r0, r0, #0
     7b4:	0d0efb01 	vstreq	d15, [lr, #-4]
     7b8:	01010100 	mrseq	r0, (UNDEF: 17)
     7bc:	00000001 	andeq	r0, r0, r1
     7c0:	01000001 	tsteq	r0, r1
     7c4:	34317363 	ldrtcc	r7, [r1], #-867	; 0x363
     7c8:	732d6530 	teqvc	sp, #48, 10	; 0xc000000
     7cc:	2f006372 	svccs	0x00006372
     7d0:	72657355 	rsbvc	r7, r5, #1409286145	; 0x54000001
     7d4:	72622f73 	rsbvc	r2, r2, #460	; 0x1cc
     7d8:	6a6e6169 	bvs	1b98d84 <__bss_end__+0x1b8ed44>
     7dc:	442f6e75 	strtmi	r6, [pc], #-3701	; 7e4 <_start-0x781c>
     7e0:	746b7365 	strbtvc	r7, [fp], #-869	; 0x365
     7e4:	732f706f 	teqvc	pc, #111	; 0x6f
     7e8:	6f6f6863 	svcvs	0x006f6863
     7ec:	69572f6c 	ldmdbvs	r7, {r2, r3, r5, r6, r8, r9, sl, fp, sp}^
     7f0:	7265746e 	rsbvc	r7, r5, #1845493760	; 0x6e000000
     7f4:	30323931 	eorscc	r3, r2, r1, lsr r9
     7f8:	3153432f 	cmpcc	r3, pc, lsr #6
     7fc:	2f453034 	svccs	0x00453034
     800:	34317363 	ldrtcc	r7, [r1], #-867	; 0x363
     804:	322d6530 	eorcc	r6, sp, #48, 10	; 0xc000000
     808:	6e697730 	mcrvs	7, 3, r7, cr9, cr0, {1}
     80c:	62696c2f 	rsbvs	r6, r9, #12032	; 0x2f00
     810:	00006970 	andeq	r6, r0, r0, ror r9
     814:	656d6974 	strbvs	r6, [sp, #-2420]!	; 0x974
     818:	00632e72 	rsbeq	r2, r3, r2, ror lr
     81c:	72000001 	andvc	r0, r0, #1
     820:	682e6970 	stmdavs	lr!, {r4, r5, r6, r8, fp, sp, lr}
     824:	00000200 	andeq	r0, r0, r0, lsl #4
     828:	02050000 	andeq	r0, r5, #0
     82c:	00008974 	andeq	r8, r0, r4, ror r9
     830:	2d2f1316 	stccs	3, cr1, [pc, #-88]!	; 7e0 <_start-0x7820>
     834:	01040200 	mrseq	r0, R12_usr
     838:	68062e06 	stmdavs	r6, {r1, r2, r9, sl, fp, sp}
     83c:	4d4b2f31 	stclmi	15, cr2, [fp, #-196]	; 0xffffff3c
     840:	4b303132 	blmi	c0cd10 <__bss_end__+0xc02cd0>
     844:	2f6a2f4c 	svccs	0x006a2f4c
     848:	022f842f 	eoreq	r8, pc, #788529152	; 0x2f000000
     84c:	01010008 	tsteq	r1, r8
     850:	0000017f 	andeq	r0, r0, pc, ror r1
     854:	00ca0002 	sbceq	r0, sl, r2
     858:	01020000 	mrseq	r0, (UNDEF: 2)
     85c:	000d0efb 	strdeq	r0, [sp], -fp
     860:	01010101 	tsteq	r1, r1, lsl #2
     864:	01000000 	mrseq	r0, (UNDEF: 0)
     868:	6d010000 	stcvs	0, cr0, [r1, #-0]
     86c:	72732d79 	rsbsvc	r2, r3, #7744	; 0x1e40
     870:	552f0063 	strpl	r0, [pc, #-99]!	; 815 <_start-0x77eb>
     874:	73726573 	cmnvc	r2, #482344960	; 0x1cc00000
     878:	6972622f 	ldmdbvs	r2!, {r0, r1, r2, r3, r5, r9, sp, lr}^
     87c:	756a6e61 	strbvc	r6, [sl, #-3681]!	; 0xe61
     880:	65442f6e 	strbvs	r2, [r4, #-3950]	; 0xf6e
     884:	6f746b73 	svcvs	0x00746b73
     888:	63732f70 	cmnvs	r3, #112, 30	; 0x1c0
     88c:	6c6f6f68 	stclvs	15, cr6, [pc], #-416	; 6f4 <_start-0x790c>
     890:	6e69572f 	cdpvs	7, 6, cr5, cr9, cr15, {1}
     894:	31726574 	cmncc	r2, r4, ror r5
     898:	2f303239 	svccs	0x00303239
     89c:	34315343 	ldrtcc	r5, [r1], #-835	; 0x343
     8a0:	632f4530 	teqvs	pc, #48, 10	; 0xc000000
     8a4:	30343173 	eorscc	r3, r4, r3, ror r1
     8a8:	30322d65 	eorscc	r2, r2, r5, ror #26
     8ac:	2f6e6977 	svccs	0x006e6977
     8b0:	7062696c 	rsbvc	r6, r2, ip, ror #18
     8b4:	73632f69 	cmnvc	r3, #420	; 0x1a4
     8b8:	65303431 	ldrvs	r3, [r0, #-1073]!	; 0x431
     8bc:	6372732d 	cmnvs	r2, #-1275068416	; 0xb4000000
     8c0:	73552f00 	cmpvc	r5, #0, 30
     8c4:	2f737265 	svccs	0x00737265
     8c8:	61697262 	cmnvs	r9, r2, ror #4
     8cc:	6e756a6e 	vsubvs.f32	s13, s10, s29
     8d0:	7365442f 	cmnvc	r5, #788529152	; 0x2f000000
     8d4:	706f746b 	rsbvc	r7, pc, fp, ror #8
     8d8:	6863732f 	stmdavs	r3!, {r0, r1, r2, r3, r5, r8, r9, ip, sp, lr}^
     8dc:	2f6c6f6f 	svccs	0x006c6f6f
     8e0:	746e6957 	strbtvc	r6, [lr], #-2391	; 0x957
     8e4:	39317265 	ldmdbcc	r1!, {r0, r2, r5, r6, r9, ip, sp, lr}
     8e8:	432f3032 	teqmi	pc, #50	; 0x32
     8ec:	30343153 	eorscc	r3, r4, r3, asr r1
     8f0:	73632f45 	cmnvc	r3, #276	; 0x114
     8f4:	65303431 	ldrvs	r3, [r0, #-1073]!	; 0x431
     8f8:	7730322d 	ldrvc	r3, [r0, -sp, lsr #4]!
     8fc:	6c2f6e69 	stcvs	14, cr6, [pc], #-420	; 760 <_start-0x78a0>
     900:	69706269 	ldmdbvs	r0!, {r0, r3, r5, r6, r9, sp, lr}^
     904:	70670000 	rsbvc	r0, r7, r0
     908:	632e6f69 	teqvs	lr, #420	; 0x1a4
     90c:	00000100 	andeq	r0, r0, r0, lsl #2
     910:	6f697067 	svcvs	0x00697067
     914:	0200682e 	andeq	r6, r0, #3014656	; 0x2e0000
     918:	70720000 	rsbsvc	r0, r2, r0
     91c:	00682e69 	rsbeq	r2, r8, r9, ror #28
     920:	00000003 	andeq	r0, r0, r3
     924:	fc020500 	stc2	5, cr0, [r2], {-0}
     928:	03000089 	movweq	r0, #137	; 0x89
     92c:	504e013e 	subpl	r0, lr, lr, lsr r1
     930:	67210869 	strvs	r0, [r1, -r9, ror #16]!
     934:	67676767 	strbvs	r6, [r7, -r7, ror #14]!
     938:	084b3267 	stmdaeq	fp, {r0, r1, r2, r5, r6, r9, ip, sp}^
     93c:	5131dc22 	teqpl	r1, r2, lsr #24
     940:	30504e13 	subscc	r4, r0, r3, lsl lr
     944:	135031be 	cmpne	r0, #-2147483601	; 0x8000002f
     948:	c0304f4d 	eorsgt	r4, r0, sp, asr #30
     94c:	0869504c 	stmdaeq	r9!, {r2, r3, r6, ip, lr}^
     950:	67676721 	strbvs	r6, [r7, -r1, lsr #14]!
     954:	32676767 	rsbcc	r6, r7, #27000832	; 0x19c0000
     958:	a421084b 	strtge	r0, [r1], #-2123	; 0x84b
     95c:	842f504c 	strthi	r5, [pc], #-76	; 964 <_start-0x769c>
     960:	82750369 	rsbshi	r0, r5, #-1543503871	; 0xa4000001
     964:	4d2e0c03 	stcmi	12, cr0, [lr, #-12]!
     968:	4c4b4e30 	mcrrmi	14, 3, r4, fp, cr0
     96c:	696b6a4d 	stmdbvs	fp!, {r0, r2, r3, r6, r9, fp, sp, lr}^
     970:	67672108 	strbvs	r2, [r7, -r8, lsl #2]!
     974:	67676767 	strbvs	r6, [r7, -r7, ror #14]!
     978:	22084b32 	andcs	r4, r8, #51200	; 0xc800
     97c:	135130c0 	cmpne	r1, #192	; 0xc0
     980:	0330504e 	teqeq	r0, #78	; 0x4e
     984:	9f31ba18 	svcls	0x0031ba18
     988:	4d522f4c 	ldclmi	15, cr2, [r2, #-304]	; 0xfffffed0
     98c:	674b2f4e 	strbvs	r2, [fp, -lr, asr #30]
     990:	6767684b 	strbvs	r6, [r7, -fp, asr #16]!
     994:	2f672f4c 	svccs	0x00672f4c
     998:	4e4c6e4b 	cdpmi	14, 4, cr6, cr12, cr11, {2}
     99c:	4b674b2f 	blmi	19d3660 <__bss_end__+0x19c9620>
     9a0:	4c676768 	stclmi	7, cr6, [r7], #-416	; 0xfffffe60
     9a4:	4b2f672f 	blmi	bda668 <__bss_end__+0xbd0628>
     9a8:	2f4e4b6d 	svccs	0x004e4b6d
     9ac:	0200674b 	andeq	r6, r0, #19660800	; 0x12c0000
     9b0:	66060104 	strvs	r0, [r6], -r4, lsl #2
     9b4:	2f9f6806 	svccs	0x009f6806
     9b8:	01040200 	mrseq	r0, R12_usr
     9bc:	68064a06 	stmdavs	r6, {r1, r2, r9, fp, lr}
     9c0:	4a73032f 	bmi	1cc1684 <__bss_end__+0x1cb7644>
     9c4:	4d2e0e03 	stcmi	14, cr0, [lr, #-12]!
     9c8:	4b2f4e4c 	blmi	bd4300 <__bss_end__+0xbca2c0>
     9cc:	0602bcbc 			; <UNDEFINED> instruction: 0x0602bcbc
     9d0:	49010100 	stmdbmi	r1, {r8}
     9d4:	02000003 	andeq	r0, r0, #3
     9d8:	0001bd00 	andeq	fp, r1, r0, lsl #26
     9dc:	fb010200 	blx	411e6 <__bss_end__+0x371a6>
     9e0:	01000d0e 	tsteq	r0, lr, lsl #26
     9e4:	00010101 	andeq	r0, r1, r1, lsl #2
     9e8:	00010000 	andeq	r0, r1, r0
     9ec:	796d0100 	stmdbvc	sp!, {r8}^
     9f0:	6372732d 	cmnvs	r2, #-1275068416	; 0xb4000000
     9f4:	73552f00 	cmpvc	r5, #0, 30
     9f8:	2f737265 	svccs	0x00737265
     9fc:	61697262 	cmnvs	r9, r2, ror #4
     a00:	6e756a6e 	vsubvs.f32	s13, s10, s29
     a04:	7365442f 	cmnvc	r5, #788529152	; 0x2f000000
     a08:	706f746b 	rsbvc	r7, pc, fp, ror #8
     a0c:	6863732f 	stmdavs	r3!, {r0, r1, r2, r3, r5, r8, r9, ip, sp, lr}^
     a10:	2f6c6f6f 	svccs	0x006c6f6f
     a14:	746e6957 	strbtvc	r6, [lr], #-2391	; 0x957
     a18:	39317265 	ldmdbcc	r1!, {r0, r2, r5, r6, r9, ip, sp, lr}
     a1c:	432f3032 	teqmi	pc, #50	; 0x32
     a20:	30343153 	eorscc	r3, r4, r3, asr r1
     a24:	73632f45 	cmnvc	r3, #276	; 0x114
     a28:	65303431 	ldrvs	r3, [r0, #-1073]!	; 0x431
     a2c:	7730322d 	ldrvc	r3, [r0, -sp, lsr #4]!
     a30:	6c2f6e69 	stcvs	14, cr6, [pc], #-420	; 894 <_start-0x776c>
     a34:	69706269 	ldmdbvs	r0!, {r0, r3, r5, r6, r9, sp, lr}^
     a38:	3173632f 	cmncc	r3, pc, lsr #6
     a3c:	2d653034 	stclcs	0, cr3, [r5, #-208]!	; 0xffffff30
     a40:	00637273 	rsbeq	r7, r3, r3, ror r2
     a44:	7273752f 	rsbsvc	r7, r3, #197132288	; 0xbc00000
     a48:	636f6c2f 	cmnvs	pc, #12032	; 0x2f00
     a4c:	432f6c61 	teqmi	pc, #24832	; 0x6100
     a50:	616c6c65 	cmnvs	ip, r5, ror #24
     a54:	72612f72 	rsbvc	r2, r1, #456	; 0x1c8
     a58:	6f6e2d6d 	svcvs	0x006e2d6d
     a5c:	652d656e 	strvs	r6, [sp, #-1390]!	; 0x56e
     a60:	2f696261 	svccs	0x00696261
     a64:	2e382e34 	mrccs	14, 1, r2, cr8, cr4, {1}
     a68:	73632d33 	cmnvc	r3, #3264	; 0xcc0
     a6c:	65303731 	ldrvs	r3, [r0, #-1841]!	; 0x731
     a70:	62696c2f 	rsbvs	r6, r9, #12032	; 0x2f00
     a74:	6363672f 	cmnvs	r3, #12320768	; 0xbc0000
     a78:	6d72612f 	ldfvse	f6, [r2, #-188]!	; 0xffffff44
     a7c:	6e6f6e2d 	cdpvs	14, 6, cr6, cr15, cr13, {1}
     a80:	61652d65 	cmnvs	r5, r5, ror #26
     a84:	342f6962 	strtcc	r6, [pc], #-2402	; a8c <_start-0x7574>
     a88:	332e382e 	teqcc	lr, #3014656	; 0x2e0000
     a8c:	636e692f 	cmnvs	lr, #770048	; 0xbc000
     a90:	6564756c 	strbvs	r7, [r4, #-1388]!	; 0x56c
     a94:	73552f00 	cmpvc	r5, #0, 30
     a98:	2f737265 	svccs	0x00737265
     a9c:	61697262 	cmnvs	r9, r2, ror #4
     aa0:	6e756a6e 	vsubvs.f32	s13, s10, s29
     aa4:	7365442f 	cmnvc	r5, #788529152	; 0x2f000000
     aa8:	706f746b 	rsbvc	r7, pc, fp, ror #8
     aac:	6863732f 	stmdavs	r3!, {r0, r1, r2, r3, r5, r8, r9, ip, sp, lr}^
     ab0:	2f6c6f6f 	svccs	0x006c6f6f
     ab4:	746e6957 	strbtvc	r6, [lr], #-2391	; 0x957
     ab8:	39317265 	ldmdbcc	r1!, {r0, r2, r5, r6, r9, ip, sp, lr}
     abc:	432f3032 	teqmi	pc, #50	; 0x32
     ac0:	30343153 	eorscc	r3, r4, r3, asr r1
     ac4:	73632f45 	cmnvc	r3, #276	; 0x114
     ac8:	65303431 	ldrvs	r3, [r0, #-1073]!	; 0x431
     acc:	7730322d 	ldrvc	r3, [r0, -sp, lsr #4]!
     ad0:	6c2f6e69 	stcvs	14, cr6, [pc], #-420	; 934 <_start-0x76cc>
     ad4:	69706269 	ldmdbvs	r0!, {r0, r3, r5, r6, r9, sp, lr}^
     ad8:	73552f00 	cmpvc	r5, #0, 30
     adc:	2f737265 	svccs	0x00737265
     ae0:	61697262 	cmnvs	r9, r2, ror #4
     ae4:	6e756a6e 	vsubvs.f32	s13, s10, s29
     ae8:	7365442f 	cmnvc	r5, #788529152	; 0x2f000000
     aec:	706f746b 	rsbvc	r7, pc, fp, ror #8
     af0:	6863732f 	stmdavs	r3!, {r0, r1, r2, r3, r5, r8, r9, ip, sp, lr}^
     af4:	2f6c6f6f 	svccs	0x006c6f6f
     af8:	746e6957 	strbtvc	r6, [lr], #-2391	; 0x957
     afc:	39317265 	ldmdbcc	r1!, {r0, r2, r5, r6, r9, ip, sp, lr}
     b00:	432f3032 	teqmi	pc, #50	; 0x32
     b04:	30343153 	eorscc	r3, r4, r3, asr r1
     b08:	73632f45 	cmnvc	r3, #276	; 0x114
     b0c:	65303431 	ldrvs	r3, [r0, #-1073]!	; 0x431
     b10:	7730322d 	ldrvc	r3, [r0, -sp, lsr #4]!
     b14:	6c2f6e69 	stcvs	14, cr6, [pc], #-420	; 978 <_start-0x7688>
     b18:	69706269 	ldmdbvs	r0!, {r0, r3, r5, r6, r9, sp, lr}^
     b1c:	62696c2f 	rsbvs	r6, r9, #12032	; 0x2f00
     b20:	73000063 	movwvc	r0, #99	; 0x63
     b24:	61752d77 	cmnvs	r5, r7, ror sp
     b28:	632e7472 	teqvs	lr, #1912602624	; 0x72000000
     b2c:	00000100 	andeq	r0, r0, r0, lsl #2
     b30:	6c637963 	stclvs	9, cr7, [r3], #-396	; 0xfffffe74
     b34:	74752d65 	ldrbtvc	r2, [r5], #-3429	; 0xd65
     b38:	682e6c69 	stmdavs	lr!, {r0, r3, r5, r6, sl, fp, sp, lr}
     b3c:	00000200 	andeq	r0, r0, r0, lsl #4
     b40:	69647473 	stmdbvs	r4!, {r0, r1, r4, r5, r6, sl, ip, sp, lr}^
     b44:	672d746e 	strvs	r7, [sp, -lr, ror #8]!
     b48:	682e6363 	stmdavs	lr!, {r0, r1, r5, r6, r8, r9, sp, lr}
     b4c:	00000300 	andeq	r0, r0, r0, lsl #6
     b50:	752d7773 	strvc	r7, [sp, #-1907]!	; 0x773
     b54:	2e747261 	cdpcs	2, 7, cr7, cr4, cr1, {3}
     b58:	00020068 	andeq	r0, r2, r8, rrx
     b5c:	64747300 	ldrbtvs	r7, [r4], #-768	; 0x300
     b60:	2e677261 	cdpcs	2, 6, cr7, cr7, cr1, {3}
     b64:	00030068 	andeq	r0, r3, r8, rrx
     b68:	69706700 	ldmdbvs	r0!, {r8, r9, sl, sp, lr}^
     b6c:	00682e6f 	rsbeq	r2, r8, pc, ror #28
     b70:	72000002 	andvc	r0, r0, #2
     b74:	682e6970 	stmdavs	lr!, {r4, r5, r6, r8, fp, sp, lr}
     b78:	00000400 	andeq	r0, r0, r0, lsl #8
     b7c:	702d6176 	eorvc	r6, sp, r6, ror r1
     b80:	746e6972 	strbtvc	r6, [lr], #-2418	; 0x972
     b84:	00682e6b 	rsbeq	r2, r8, fp, ror #28
     b88:	3c000005 	stccc	0, cr0, [r0], {5}
     b8c:	6c697562 	cfstr64vs	mvdx7, [r9], #-392	; 0xfffffe78
     b90:	6e692d74 	mcrvs	13, 3, r2, cr9, cr4, {3}
     b94:	0000003e 	andeq	r0, r0, lr, lsr r0
     b98:	05000000 	streq	r0, [r0, #-0]
     b9c:	008f9c02 	addeq	r9, pc, r2, lsl #24
     ba0:	2f4c1a00 	svccs	0x004c1a00
     ba4:	03020430 	movweq	r0, #9264	; 0x2430
     ba8:	73032e0b 	movwvc	r2, #15883	; 0x3e0b
     bac:	88010466 	stmdahi	r1, {r1, r2, r5, r6, sl}
     bb0:	03350204 	teqeq	r5, #4, 4	; 0x40000000
     bb4:	01046673 	tsteq	r4, r3, ror r6
     bb8:	3302048a 	movwcc	r0, #9354	; 0x248a
     bbc:	04667303 	strbteq	r7, [r6], #-771	; 0x303
     bc0:	820a0301 	andhi	r0, sl, #67108864	; 0x4000000
     bc4:	03310204 	teqeq	r1, #4, 4	; 0x40000000
     bc8:	01046673 	tsteq	r4, r3, ror r6
     bcc:	04820c03 	streq	r0, [r2], #3075	; 0xc03
     bd0:	73032f02 	movwvc	r2, #16130	; 0x3f02
     bd4:	03010466 	movweq	r0, #5222	; 0x1466
     bd8:	0204820e 	andeq	r8, r4, #-536870912	; 0xe0000000
     bdc:	6673032d 	ldrbtvs	r0, [r3], -sp, lsr #6
     be0:	10030104 	andne	r0, r3, r4, lsl #2
     be4:	2b020482 	blcs	81df4 <__bss_end__+0x77db4>
     be8:	04667303 	strbteq	r7, [r6], #-771	; 0x303
     bec:	82120301 	andshi	r0, r2, #67108864	; 0x4000000
     bf0:	03290204 	teqeq	r9, #4, 4	; 0x40000000
     bf4:	01046673 	tsteq	r4, r3, ror r6
     bf8:	04821403 	streq	r1, [r2], #1027	; 0x403
     bfc:	2e790302 	cdpcs	3, 7, cr0, cr9, cr2, {0}
     c00:	04667303 	strbteq	r7, [r6], #-771	; 0x303
     c04:	82160301 	andshi	r0, r6, #67108864	; 0x4000000
     c08:	77030204 	strvc	r0, [r3, -r4, lsl #4]
     c0c:	6673032e 	ldrbtvs	r0, [r3], -lr, lsr #6
     c10:	18030104 	stmdane	r3, {r2, r8}
     c14:	2e100382 	cdpcs	3, 1, cr0, cr0, cr2, {4}
     c18:	70034d4b 	andvc	r4, r3, fp, asr #26
     c1c:	83844c2e 	orrhi	r4, r4, #11776	; 0x2e00
     c20:	2e0d0348 	cdpcs	3, 0, cr0, cr13, cr8, {2}
     c24:	0433314e 	ldrteq	r3, [r3], #-334	; 0x14e
     c28:	2e480302 	cdpcs	3, 4, cr0, cr8, cr2, {0}
     c2c:	3a030104 	bcc	c1044 <__bss_end__+0xb7004>
     c30:	02042f82 	andeq	r2, r4, #520	; 0x208
     c34:	04664503 	strbteq	r4, [r6], #-1283	; 0x503
     c38:	823d0301 	eorshi	r0, sp, #67108864	; 0x4000000
     c3c:	0302042f 	movweq	r0, #9263	; 0x242f
     c40:	01048242 	tsteq	r4, r2, asr #4
     c44:	8200c003 	andhi	ip, r0, #3
     c48:	0302042f 	movweq	r0, #9263	; 0x242f
     c4c:	04827fbf 	streq	r7, [r2], #4031	; 0xfbf
     c50:	00c30301 	sbceq	r0, r3, r1, lsl #6
     c54:	02042f82 	andeq	r2, r4, #520	; 0x208
     c58:	827fbc03 	rsbshi	fp, pc, #768	; 0x300
     c5c:	c6030104 	strgt	r0, [r3], -r4, lsl #2
     c60:	042f8200 	strteq	r8, [pc], #-512	; c68 <_start-0x7398>
     c64:	7fb90302 	svcvc	0x00b90302
     c68:	03010482 	movweq	r0, #5250	; 0x1482
     c6c:	2f8200c9 	svccs	0x008200c9
     c70:	b6030204 	strlt	r0, [r3], -r4, lsl #4
     c74:	0104827f 	tsteq	r4, pc, ror r2
     c78:	8200cc03 	andhi	ip, r0, #768	; 0x300
     c7c:	0302042f 	movweq	r0, #9263	; 0x242f
     c80:	04827fb3 	streq	r7, [r2], #4019	; 0xfb3
     c84:	00d00301 	sbcseq	r0, r0, r1, lsl #6
     c88:	824c0382 	subhi	r0, ip, #134217730	; 0x8000002
     c8c:	4883844c 	stmmi	r3, {r2, r3, r6, sl, pc}
     c90:	4e2e3603 	cfmadda32mi	mvax0, mvax3, mvfx14, mvfx3
     c94:	034a5403 	movteq	r5, #41987	; 0xa403
     c98:	34324a29 	ldrtcc	r4, [r2], #-2601	; 0xa29
     c9c:	040200bb 	streq	r0, [r2], #-187	; 0xbb
     ca0:	064a0601 	strbeq	r0, [sl], -r1, lsl #12
     ca4:	4b4e2108 	blmi	13890cc <__bss_end__+0x137f08c>
     ca8:	02002cbb 	andeq	r2, r0, #47872	; 0xbb00
     cac:	2e060104 	adfcss	f0, f6, f4
     cb0:	dc4c6d06 	mcrrle	13, 0, r6, ip, cr6
     cb4:	040200a0 	streq	r0, [r2], #-160	; 0xa0
     cb8:	064a0601 	strbeq	r0, [sl], -r1, lsl #12
     cbc:	004d2108 	subeq	r2, sp, r8, lsl #2
     cc0:	4b020402 	blmi	81cd0 <__bss_end__+0x77c90>
     cc4:	02040200 	andeq	r0, r4, #0, 4
     cc8:	04020081 	streq	r0, [r2], #-129	; 0x81
     ccc:	062e0601 	strteq	r0, [lr], -r1, lsl #12
     cd0:	d8dd4c4d 	ldmle	sp, {r0, r2, r3, r6, sl, fp, lr}^
     cd4:	6a4b4b4b 	bvs	12d3a08 <__bss_end__+0x12c99c8>
     cd8:	0402002f 	streq	r0, [r2], #-47	; 0x2f
     cdc:	82820601 	addhi	r0, r2, #1048576	; 0x100000
     ce0:	04040200 	streq	r0, [r4], #-512	; 0x200
     ce4:	0402009e 	streq	r0, [r2], #-158	; 0x9e
     ce8:	08064a01 	stmdaeq	r6, {r0, r9, fp, lr}
     cec:	2ff58823 	svccs	0x00f58823
     cf0:	40084b4b 	andmi	r4, r8, fp, asr #22
     cf4:	04020067 	streq	r0, [r2], #-103	; 0x67
     cf8:	02002f02 	andeq	r2, r0, #2, 30
     cfc:	00490204 	subeq	r0, r9, r4, lsl #4
     d00:	06010402 	streq	r0, [r1], -r2, lsl #8
     d04:	3468062e 	strbtcc	r0, [r8], #-1582	; 0x62e
     d08:	00a04b86 	adceq	r4, r0, r6, lsl #23
     d0c:	06010402 	streq	r0, [r1], -r2, lsl #8
     d10:	21080666 	tstcs	r8, r6, ror #12
     d14:	4b3e0868 	blmi	f82ebc <__bss_end__+0xf78e7c>
     d18:	02d84b67 	sbcseq	r4, r8, #105472	; 0x19c00
     d1c:	0101000a 	tsteq	r1, sl
     d20:	00000101 	andeq	r0, r0, r1, lsl #2
     d24:	00ca0002 	sbceq	r0, sl, r2
     d28:	01020000 	mrseq	r0, (UNDEF: 2)
     d2c:	000d0efb 	strdeq	r0, [sp], -fp
     d30:	01010101 	tsteq	r1, r1, lsl #2
     d34:	01000000 	mrseq	r0, (UNDEF: 0)
     d38:	6d010000 	stcvs	0, cr0, [r1, #-0]
     d3c:	72732d79 	rsbsvc	r2, r3, #7744	; 0x1e40
     d40:	552f0063 	strpl	r0, [pc, #-99]!	; ce5 <_start-0x731b>
     d44:	73726573 	cmnvc	r2, #482344960	; 0x1cc00000
     d48:	6972622f 	ldmdbvs	r2!, {r0, r1, r2, r3, r5, r9, sp, lr}^
     d4c:	756a6e61 	strbvc	r6, [sl, #-3681]!	; 0xe61
     d50:	65442f6e 	strbvs	r2, [r4, #-3950]	; 0xf6e
     d54:	6f746b73 	svcvs	0x00746b73
     d58:	63732f70 	cmnvs	r3, #112, 30	; 0x1c0
     d5c:	6c6f6f68 	stclvs	15, cr6, [pc], #-416	; bc4 <_start-0x743c>
     d60:	6e69572f 	cdpvs	7, 6, cr5, cr9, cr15, {1}
     d64:	31726574 	cmncc	r2, r4, ror r5
     d68:	2f303239 	svccs	0x00303239
     d6c:	34315343 	ldrtcc	r5, [r1], #-835	; 0x343
     d70:	632f4530 	teqvs	pc, #48, 10	; 0xc000000
     d74:	30343173 	eorscc	r3, r4, r3, ror r1
     d78:	30322d65 	eorscc	r2, r2, r5, ror #26
     d7c:	2f6e6977 	svccs	0x006e6977
     d80:	7062696c 	rsbvc	r6, r2, ip, ror #18
     d84:	73632f69 	cmnvc	r3, #420	; 0x1a4
     d88:	65303431 	ldrvs	r3, [r0, #-1073]!	; 0x431
     d8c:	6372732d 	cmnvs	r2, #-1275068416	; 0xb4000000
     d90:	73552f00 	cmpvc	r5, #0, 30
     d94:	2f737265 	svccs	0x00737265
     d98:	61697262 	cmnvs	r9, r2, ror #4
     d9c:	6e756a6e 	vsubvs.f32	s13, s10, s29
     da0:	7365442f 	cmnvc	r5, #788529152	; 0x2f000000
     da4:	706f746b 	rsbvc	r7, pc, fp, ror #8
     da8:	6863732f 	stmdavs	r3!, {r0, r1, r2, r3, r5, r8, r9, ip, sp, lr}^
     dac:	2f6c6f6f 	svccs	0x006c6f6f
     db0:	746e6957 	strbtvc	r6, [lr], #-2391	; 0x957
     db4:	39317265 	ldmdbcc	r1!, {r0, r2, r5, r6, r9, ip, sp, lr}
     db8:	432f3032 	teqmi	pc, #50	; 0x32
     dbc:	30343153 	eorscc	r3, r4, r3, asr r1
     dc0:	73632f45 	cmnvc	r3, #276	; 0x114
     dc4:	65303431 	ldrvs	r3, [r0, #-1073]!	; 0x431
     dc8:	7730322d 	ldrvc	r3, [r0, -sp, lsr #4]!
     dcc:	6c2f6e69 	stcvs	14, cr6, [pc], #-420	; c30 <_start-0x73d0>
     dd0:	69706269 	ldmdbvs	r0!, {r0, r3, r5, r6, r9, sp, lr}^
     dd4:	61750000 	cmnvs	r5, r0
     dd8:	632e7472 	teqvs	lr, #1912602624	; 0x72000000
     ddc:	00000100 	andeq	r0, r0, r0, lsl #2
     de0:	6f697067 	svcvs	0x00697067
     de4:	0200682e 	andeq	r6, r0, #3014656	; 0x2e0000
     de8:	70720000 	rsbsvc	r0, r2, r0
     dec:	00682e69 	rsbeq	r2, r8, r9, ror #28
     df0:	00000003 	andeq	r0, r0, r3
     df4:	04020500 	streq	r0, [r2], #-1280	; 0x500
     df8:	03000096 	movweq	r0, #150	; 0x96
     dfc:	33300136 	teqcc	r0, #-2147483635	; 0x8000000d
     e00:	d8306d67 	ldmdale	r0!, {r0, r1, r2, r5, r6, r8, sl, fp, sp, lr}
     e04:	67676730 			; <UNDEFINED> instruction: 0x67676730
     e08:	86686767 	strbthi	r6, [r8], -r7, ror #14
     e0c:	306a672f 	rsbcc	r6, sl, pc, lsr #14
     e10:	2f696767 	svccs	0x00696767
     e14:	674c6a67 	strbvs	r6, [ip, -r7, ror #20]
     e18:	302f2fc1 	eorcc	r2, pc, r1, asr #31
     e1c:	3049682f 	subcc	r6, r9, pc, lsr #16
     e20:	01000202 	tsteq	r0, r2, lsl #4
     e24:	00008a01 	andeq	r8, r0, r1, lsl #20
     e28:	72000200 	andvc	r0, r0, #0, 4
     e2c:	02000000 	andeq	r0, r0, #0
     e30:	0d0efb01 	vstreq	d15, [lr, #-4]
     e34:	01010100 	mrseq	r0, (UNDEF: 17)
     e38:	00000001 	andeq	r0, r0, r1
     e3c:	01000001 	tsteq	r0, r1
     e40:	6362696c 	cmnvs	r2, #108, 18	; 0x1b0000
     e44:	73552f00 	cmpvc	r5, #0, 30
     e48:	2f737265 	svccs	0x00737265
     e4c:	61697262 	cmnvs	r9, r2, ror #4
     e50:	6e756a6e 	vsubvs.f32	s13, s10, s29
     e54:	7365442f 	cmnvc	r5, #788529152	; 0x2f000000
     e58:	706f746b 	rsbvc	r7, pc, fp, ror #8
     e5c:	6863732f 	stmdavs	r3!, {r0, r1, r2, r3, r5, r8, r9, ip, sp, lr}^
     e60:	2f6c6f6f 	svccs	0x006c6f6f
     e64:	746e6957 	strbtvc	r6, [lr], #-2391	; 0x957
     e68:	39317265 	ldmdbcc	r1!, {r0, r2, r5, r6, r9, ip, sp, lr}
     e6c:	432f3032 	teqmi	pc, #50	; 0x32
     e70:	30343153 	eorscc	r3, r4, r3, asr r1
     e74:	73632f45 	cmnvc	r3, #276	; 0x114
     e78:	65303431 	ldrvs	r3, [r0, #-1073]!	; 0x431
     e7c:	7730322d 	ldrvc	r3, [r0, -sp, lsr #4]!
     e80:	6c2f6e69 	stcvs	14, cr6, [pc], #-420	; ce4 <_start-0x731c>
     e84:	69706269 	ldmdbvs	r0!, {r0, r3, r5, r6, r9, sp, lr}^
     e88:	75700000 	ldrbvc	r0, [r0, #-0]!
     e8c:	61686374 	smcvs	34356	; 0x8634
     e90:	00632e72 	rsbeq	r2, r3, r2, ror lr
     e94:	72000001 	andvc	r0, r0, #1
     e98:	682e6970 	stmdavs	lr!, {r4, r5, r6, r8, fp, sp, lr}
     e9c:	00000200 	andeq	r0, r0, r0, lsl #4
     ea0:	02050000 	andeq	r0, r5, #0
     ea4:	000097bc 			; <UNDEFINED> instruction: 0x000097bc
     ea8:	136b4a14 	cmnne	fp, #20, 20	; 0x14000
     eac:	080213bc 	stmdaeq	r2, {r2, r3, r4, r5, r7, r8, r9, ip}
     eb0:	28010100 	stmdacs	r1, {r8}
     eb4:	02000001 	andeq	r0, r0, #1
     eb8:	00010d00 	andeq	r0, r1, r0, lsl #26
     ebc:	fb010200 	blx	416c6 <__bss_end__+0x37686>
     ec0:	01000d0e 	tsteq	r0, lr, lsl #26
     ec4:	00010101 	andeq	r0, r1, r1, lsl #2
     ec8:	00010000 	andeq	r0, r1, r0
     ecc:	73630100 	cmnvc	r3, #0, 2
     ed0:	65303431 	ldrvs	r3, [r0, #-1073]!	; 0x431
     ed4:	6372732d 	cmnvs	r2, #-1275068416	; 0xb4000000
     ed8:	73752f00 	cmnvc	r5, #0, 30
     edc:	6f6c2f72 	svcvs	0x006c2f72
     ee0:	2f6c6163 	svccs	0x006c6163
     ee4:	6c6c6543 	cfstr64vs	mvdx6, [ip], #-268	; 0xfffffef4
     ee8:	612f7261 	teqvs	pc, r1, ror #4
     eec:	6e2d6d72 	mcrvs	13, 1, r6, cr13, cr2, {3}
     ef0:	2d656e6f 	stclcs	14, cr6, [r5, #-444]!	; 0xfffffe44
     ef4:	69626165 	stmdbvs	r2!, {r0, r2, r5, r6, r8, sp, lr}^
     ef8:	382e342f 	stmdacc	lr!, {r0, r1, r2, r3, r5, sl, ip, sp}
     efc:	632d332e 	teqvs	sp, #-1207959552	; 0xb8000000
     f00:	30373173 	eorscc	r3, r7, r3, ror r1
     f04:	696c2f65 	stmdbvs	ip!, {r0, r2, r5, r6, r8, r9, sl, fp, sp}^
     f08:	63672f62 	cmnvs	r7, #392	; 0x188
     f0c:	72612f63 	rsbvc	r2, r1, #396	; 0x18c
     f10:	6f6e2d6d 	svcvs	0x006e2d6d
     f14:	652d656e 	strvs	r6, [sp, #-1390]!	; 0x56e
     f18:	2f696261 	svccs	0x00696261
     f1c:	2e382e34 	mrccs	14, 1, r2, cr8, cr4, {1}
     f20:	6e692f33 	mcrvs	15, 3, r2, cr9, cr3, {1}
     f24:	64756c63 	ldrbtvs	r6, [r5], #-3171	; 0xc63
     f28:	752f0065 	strvc	r0, [pc, #-101]!	; ecb <_start-0x7135>
     f2c:	6c2f7273 	sfmvs	f7, 4, [pc], #-460	; d68 <_start-0x7298>
     f30:	6c61636f 	stclvs	3, cr6, [r1], #-444	; 0xfffffe44
     f34:	6c65432f 	stclvs	3, cr4, [r5], #-188	; 0xffffff44
     f38:	2f72616c 	svccs	0x0072616c
     f3c:	2d6d7261 	sfmcs	f7, 2, [sp, #-388]!	; 0xfffffe7c
     f40:	656e6f6e 	strbvs	r6, [lr, #-3950]!	; 0xf6e
     f44:	6261652d 	rsbvs	r6, r1, #188743680	; 0xb400000
     f48:	2e342f69 	cdpcs	15, 3, cr2, cr4, cr9, {3}
     f4c:	2d332e38 	ldccs	14, cr2, [r3, #-224]!	; 0xffffff20
     f50:	37317363 	ldrcc	r7, [r1, -r3, ror #6]!
     f54:	612f6530 	teqvs	pc, r0, lsr r5	; <UNPREDICTABLE>
     f58:	6e2d6d72 	mcrvs	13, 1, r6, cr13, cr2, {3}
     f5c:	2d656e6f 	stclcs	14, cr6, [r5, #-444]!	; 0xfffffe44
     f60:	69626165 	stmdbvs	r2!, {r0, r2, r5, r6, r8, sp, lr}^
     f64:	636e692f 	cmnvs	lr, #770048	; 0xbc000
     f68:	6564756c 	strbvs	r7, [r4, #-1388]!	; 0x56c
     f6c:	6f630000 	svcvs	0x00630000
     f70:	6f72746e 	svcvs	0x0072746e
     f74:	6c622d6c 	stclvs	13, cr2, [r2], #-432	; 0xfffffe50
     f78:	2e6b636f 	cdpcs	3, 6, cr6, cr11, cr15, {3}
     f7c:	00010063 	andeq	r0, r1, r3, rrx
     f80:	64747300 	ldrbtvs	r7, [r4], #-768	; 0x300
     f84:	2e666564 	cdpcs	5, 6, cr6, cr6, cr4, {3}
     f88:	00020068 	andeq	r0, r2, r8, rrx
     f8c:	64747300 	ldrbtvs	r7, [r4], #-768	; 0x300
     f90:	2d746e69 	ldclcs	14, cr6, [r4, #-420]!	; 0xfffffe5c
     f94:	2e636367 	cdpcs	3, 6, cr6, cr3, cr7, {3}
     f98:	00020068 	andeq	r0, r2, r8, rrx
     f9c:	2d777300 	ldclcs	3, cr7, [r7, #-0]
     fa0:	74726175 	ldrbtvc	r6, [r2], #-373	; 0x175
     fa4:	0100682e 	tsteq	r0, lr, lsr #16
     fa8:	6f630000 	svcvs	0x00630000
     fac:	6f72746e 	svcvs	0x0072746e
     fb0:	6c622d6c 	stclvs	13, cr2, [r2], #-432	; 0xfffffe50
     fb4:	2e6b636f 	cdpcs	3, 6, cr6, cr11, cr15, {3}
     fb8:	00010068 	andeq	r0, r1, r8, rrx
     fbc:	72747300 	rsbsvc	r7, r4, #0, 6
     fc0:	2e676e69 	cdpcs	14, 6, cr6, cr7, cr9, {3}
     fc4:	00030068 	andeq	r0, r3, r8, rrx
     fc8:	05000000 	streq	r0, [r0, #-0]
     fcc:	0097f802 	addseq	pc, r7, r2, lsl #16
     fd0:	83301600 	teqhi	r0, #0, 12
     fd4:	9f144c68 	svcls	0x00144c68
     fd8:	04022f4b 	streq	r2, [r2], #-3915	; 0xf4b
     fdc:	ec010100 	stfs	f0, [r1], {-0}
     fe0:	02000000 	andeq	r0, r0, #0
     fe4:	0000d000 	andeq	sp, r0, r0
     fe8:	fb010200 	blx	417f2 <__bss_end__+0x377b2>
     fec:	01000d0e 	tsteq	r0, lr, lsl #26
     ff0:	00010101 	andeq	r0, r1, r1, lsl #2
     ff4:	00010000 	andeq	r0, r1, r0
     ff8:	696c0100 	stmdbvs	ip!, {r8}^
     ffc:	2f006362 	svccs	0x00006362
    1000:	2f727375 	svccs	0x00727375
    1004:	61636f6c 	cmnvs	r3, ip, ror #30
    1008:	65432f6c 	strbvs	r2, [r3, #-3948]	; 0xf6c
    100c:	72616c6c 	rsbvc	r6, r1, #108, 24	; 0x6c00
    1010:	6d72612f 	ldfvse	f6, [r2, #-188]!	; 0xffffff44
    1014:	6e6f6e2d 	cdpvs	14, 6, cr6, cr15, cr13, {1}
    1018:	61652d65 	cmnvs	r5, r5, ror #26
    101c:	342f6962 	strtcc	r6, [pc], #-2402	; 1024 <_start-0x6fdc>
    1020:	332e382e 	teqcc	lr, #3014656	; 0x2e0000
    1024:	3173632d 	cmncc	r3, sp, lsr #6
    1028:	2f653037 	svccs	0x00653037
    102c:	2f62696c 	svccs	0x0062696c
    1030:	2f636367 	svccs	0x00636367
    1034:	2d6d7261 	sfmcs	f7, 2, [sp, #-388]!	; 0xfffffe7c
    1038:	656e6f6e 	strbvs	r6, [lr, #-3950]!	; 0xf6e
    103c:	6261652d 	rsbvs	r6, r1, #188743680	; 0xb400000
    1040:	2e342f69 	cdpcs	15, 3, cr2, cr4, cr9, {3}
    1044:	2f332e38 	svccs	0x00332e38
    1048:	6c636e69 	stclvs	14, cr6, [r3], #-420	; 0xfffffe5c
    104c:	00656475 	rsbeq	r6, r5, r5, ror r4
    1050:	7273752f 	rsbsvc	r7, r3, #197132288	; 0xbc00000
    1054:	636f6c2f 	cmnvs	pc, #12032	; 0x2f00
    1058:	432f6c61 	teqmi	pc, #24832	; 0x6100
    105c:	616c6c65 	cmnvs	ip, r5, ror #24
    1060:	72612f72 	rsbvc	r2, r1, #456	; 0x1c8
    1064:	6f6e2d6d 	svcvs	0x006e2d6d
    1068:	652d656e 	strvs	r6, [sp, #-1390]!	; 0x56e
    106c:	2f696261 	svccs	0x00696261
    1070:	2e382e34 	mrccs	14, 1, r2, cr8, cr4, {1}
    1074:	73632d33 	cmnvc	r3, #3264	; 0xcc0
    1078:	65303731 	ldrvs	r3, [r0, #-1841]!	; 0x731
    107c:	6d72612f 	ldfvse	f6, [r2, #-188]!	; 0xffffff44
    1080:	6e6f6e2d 	cdpvs	14, 6, cr6, cr15, cr13, {1}
    1084:	61652d65 	cmnvs	r5, r5, ror #26
    1088:	692f6962 	stmdbvs	pc!, {r1, r5, r6, r8, fp, sp, lr}	; <UNPREDICTABLE>
    108c:	756c636e 	strbvc	r6, [ip, #-878]!	; 0x36e
    1090:	00006564 	andeq	r6, r0, r4, ror #10
    1094:	736d656d 	cmnvc	sp, #457179136	; 0x1b400000
    1098:	632e7465 	teqvs	lr, #1694498816	; 0x65000000
    109c:	00000100 	andeq	r0, r0, r0, lsl #2
    10a0:	64647473 	strbtvs	r7, [r4], #-1139	; 0x473
    10a4:	682e6665 	stmdavs	lr!, {r0, r2, r5, r6, r9, sl, sp, lr}
    10a8:	00000200 	andeq	r0, r0, r0, lsl #4
    10ac:	69727473 	ldmdbvs	r2!, {r0, r1, r4, r5, r6, sl, ip, sp, lr}^
    10b0:	682e676e 	stmdavs	lr!, {r1, r2, r3, r5, r6, r8, r9, sl, sp, lr}
    10b4:	00000300 	andeq	r0, r0, r0, lsl #6
    10b8:	02050000 	andeq	r0, r5, #0
    10bc:	00009848 	andeq	r9, r0, r8, asr #16
    10c0:	2f4c1314 	svccs	0x004c1314
    10c4:	01040200 	mrseq	r0, R12_usr
    10c8:	02024d49 	andeq	r4, r2, #4672	; 0x1240
    10cc:	Address 0x00000000000010cc is out of bounds.


Disassembly of section .debug_str:

00000000 <.debug_str>:
   0:	676e6f6c 	strbvs	r6, [lr, -ip, ror #30]!
   4:	6e6f6c20 	cdpvs	12, 6, cr6, cr15, cr0, {1}
   8:	6e692067 	cdpvs	0, 6, cr2, cr9, cr7, {3}
   c:	70670074 	rsbvc	r0, r7, r4, ror r0
  10:	735f6f69 	cmpvc	pc, #420	; 0x1a4
  14:	695f7465 	ldmdbvs	pc, {r0, r2, r5, r6, sl, ip, sp, lr}^	; <UNPREDICTABLE>
  18:	7475706e 	ldrbtvc	r7, [r5], #-110	; 0x6e
  1c:	69706700 	ldmdbvs	r0!, {r8, r9, sl, sp, lr}^
  20:	65735f6f 	ldrbvs	r5, [r3, #-3951]!	; 0xf6f
  24:	75705f74 	ldrbvc	r5, [r0, #-3956]!	; 0xf74
  28:	70756c6c 	rsbsvc	r6, r5, ip, ror #24
  2c:	2e6e6f00 	cdpcs	15, 6, cr6, cr14, cr0, {0}
  30:	6f6c0063 	svcvs	0x006c0063
  34:	6c20676e 	stcvs	7, cr6, [r0], #-440	; 0xfffffe48
  38:	20676e6f 	rsbcs	r6, r7, pc, ror #28
  3c:	69736e75 	ldmdbvs	r3!, {r0, r2, r4, r5, r6, r9, sl, fp, sp, lr}^
  40:	64656e67 	strbtvs	r6, [r5], #-3687	; 0xe67
  44:	746e6920 	strbtvc	r6, [lr], #-2336	; 0x920
  48:	736e7500 	cmnvc	lr, #0, 10
  4c:	656e6769 	strbvs	r6, [lr, #-1897]!	; 0x769
  50:	68632064 	stmdavs	r3!, {r2, r5, r6, sp}^
  54:	75007261 	strvc	r7, [r0, #-609]	; 0x261
  58:	5f747261 	svcpl	0x00747261
  5c:	74696e69 	strbtvc	r6, [r9], #-3689	; 0xe69
  60:	656c6300 	strbvs	r6, [ip, #-768]!	; 0x300
  64:	725f6e61 	subsvc	r6, pc, #1552	; 0x610
  68:	6f6f6265 	svcvs	0x006f6265
  6c:	6f6e0074 	svcvs	0x006e0074
  70:	69616d74 	stmdbvs	r1!, {r2, r4, r5, r6, r8, sl, fp, sp, lr}^
  74:	7067006e 	rsbvc	r0, r7, lr, rrx
  78:	735f6f69 	cmpvc	pc, #420	; 0x1a4
  7c:	705f7465 	subsvc	r7, pc, r5, ror #8
  80:	646c6c75 	strbtvs	r6, [ip], #-3189	; 0xc75
  84:	006e776f 	rsbeq	r7, lr, pc, ror #14
  88:	6573552f 	ldrbvs	r5, [r3, #-1327]!	; 0x52f
  8c:	622f7372 	eorvs	r7, pc, #-939524095	; 0xc8000001
  90:	6e616972 	mcrvs	9, 3, r6, cr1, cr2, {3}
  94:	2f6e756a 	svccs	0x006e756a
  98:	6b736544 	blvs	1cd95b0 <__bss_end__+0x1ccf570>
  9c:	2f706f74 	svccs	0x00706f74
  a0:	6f686373 	svcvs	0x00686373
  a4:	532f6c6f 	teqpl	pc, #28416	; 0x6f00
  a8:	6e697270 	mcrvs	2, 3, r7, cr9, cr0, {3}
  ac:	32393167 	eorscc	r3, r9, #-1073741799	; 0xc0000019
  b0:	53432f30 	movtpl	r2, #16176	; 0x3f30
  b4:	4c303432 	cfldrsmi	mvf3, [r0], #-200	; 0xffffff38
  b8:	73632f58 	cmnvc	r3, #88, 30	; 0x160
  bc:	6c303432 	cfldrsvs	mvf3, [r0], #-200	; 0xffffff38
  c0:	30322d78 	eorscc	r2, r2, r8, ror sp
  c4:	2f727073 	svccs	0x00727073
  c8:	7362616c 	cmnvc	r2, #108, 2
  cc:	642d362f 	strtvs	r3, [sp], #-1583	; 0x62f
  d0:	74696769 	strbtvc	r6, [r9], #-1897	; 0x769
  d4:	302f6c61 	eorcc	r6, pc, r1, ror #24
  d8:	6c75702d 	ldclvs	0, cr7, [r5], #-180	; 0xffffff4c
  dc:	2f70756c 	svccs	0x0070756c
  e0:	65646f63 	strbvs	r6, [r4, #-3939]!	; 0xf63
  e4:	6f687300 	svcvs	0x00687300
  e8:	75207472 	strvc	r7, [r0, #-1138]!	; 0x472
  ec:	6769736e 	strbvs	r7, [r9, -lr, ror #6]!
  f0:	2064656e 	rsbcs	r6, r4, lr, ror #10
  f4:	00746e69 	rsbseq	r6, r4, r9, ror #28
  f8:	726f6873 	rsbvc	r6, pc, #7536640	; 0x730000
  fc:	6e692074 	mcrvs	0, 3, r2, cr9, cr4, {3}
 100:	4e470074 	mcrmi	0, 2, r0, cr7, cr4, {3}
 104:	20432055 	subcs	r2, r3, r5, asr r0
 108:	2e382e34 	mrccs	14, 1, r2, cr8, cr4, {1}
 10c:	6d2d2033 	stcvs	0, cr2, [sp, #-204]!	; 0xffffff34
 110:	3d757063 	ldclcc	0, cr7, [r5, #-396]!	; 0xfffffe74
 114:	316d7261 	cmncc	sp, r1, ror #4
 118:	6a363731 	bvs	d8dde4 <__bss_end__+0xd83da4>
 11c:	732d667a 	teqvc	sp, #127926272	; 0x7a00000
 120:	746d2d20 	strbtvc	r2, [sp], #-3360	; 0xd20
 124:	3d656e75 	stclcc	14, cr6, [r5, #-468]!	; 0xfffffe2c
 128:	316d7261 	cmncc	sp, r1, ror #4
 12c:	6a363731 	bvs	d8ddf8 <__bss_end__+0xd83db8>
 130:	732d667a 	teqvc	sp, #127926272	; 0x7a00000
 134:	67672d20 	strbvs	r2, [r7, -r0, lsr #26]!
 138:	2d206264 	sfmcs	f6, 4, [r0, #-400]!	; 0xfffffe70
 13c:	2d20674f 	stccs	7, cr6, [r0, #-316]!	; 0xfffffec4
 140:	3d647473 	cfstrdcc	mvd7, [r4, #-460]!	; 0xfffffe34
 144:	39756e67 	ldmdbcc	r5!, {r0, r1, r2, r5, r6, r9, sl, fp, sp, lr}^
 148:	662d2039 			; <UNDEFINED> instruction: 0x662d2039
 14c:	65657266 	strbvs	r7, [r5, #-614]!	; 0x266
 150:	6e617473 	mcrvs	4, 3, r7, cr1, cr3, {3}
 154:	676e6964 	strbvs	r6, [lr, -r4, ror #18]!
 158:	61662d20 	cmnvs	r6, r0, lsr #26
 15c:	6e67696c 	cdpvs	9, 6, cr6, cr7, cr12, {3}
 160:	6e75662d 	cdpvs	6, 7, cr6, cr5, cr13, {1}
 164:	6f697463 	svcvs	0x00697463
 168:	343d736e 	ldrtcc	r7, [sp], #-878	; 0x36e
 16c:	7a697300 	bvc	1a5cd74 <__bss_end__+0x1a52d34>
 170:	70797465 	rsbsvc	r7, r9, r5, ror #8
 174:	75700065 	ldrbvc	r0, [r0, #-101]!	; 0x65
 178:	666f5f64 	strbtvs	r5, [pc], -r4, ror #30
 17c:	74657366 	strbtvc	r7, [r5], #-870	; 0x366
 180:	69706700 	ldmdbvs	r0!, {r8, r9, sl, sp, lr}^
 184:	75702d6f 	ldrbvc	r2, [r0, #-3439]!	; 0xd6f
 188:	00632e64 	rsbeq	r2, r3, r4, ror #28
 18c:	55505047 	ldrbpl	r5, [r0, #-71]	; 0x47
 190:	4b4c4344 	blmi	1310ea8 <__bss_end__+0x1306e68>
 194:	50470030 	subpl	r0, r7, r0, lsr r0
 198:	43445550 	movtmi	r5, #17744	; 0x4550
 19c:	00314b4c 	eorseq	r4, r1, ip, asr #22
 1a0:	33747570 	cmncc	r4, #112, 10	; 0x1c000000
 1a4:	6f5f0032 	svcvs	0x005f0032
 1a8:	47007475 	smlsdxmi	r0, r5, r4, r7
 1ac:	44555050 	ldrbmi	r5, [r5], #-80	; 0x50
 1b0:	69706700 	ldmdbvs	r0!, {r8, r9, sl, sp, lr}^
 1b4:	75705f6f 	ldrbvc	r5, [r0, #-3951]!	; 0xf6f
 1b8:	666f5f64 	strbtvs	r5, [pc], -r4, ror #30
 1bc:	75700066 	ldrbvc	r0, [r0, #-102]!	; 0x66
 1c0:	6c635f64 	stclvs	15, cr5, [r3], #-400	; 0xfffffe70
 1c4:	65725f6b 	ldrbvs	r5, [r2, #-3947]!	; 0xf6b
 1c8:	5f5f0067 	svcpl	0x005f0067
 1cc:	63756e67 	cmnvs	r5, #1648	; 0x670
 1d0:	5f61765f 	svcpl	0x0061765f
 1d4:	7473696c 	ldrbtvc	r6, [r3], #-2412	; 0x96c
 1d8:	62696c00 	rsbvs	r6, r9, #0, 24
 1dc:	72702f63 	rsbsvc	r2, r0, #396	; 0x18c
 1e0:	6b746e69 	blvs	1d1bb8c <__bss_end__+0x1d11b4c>
 1e4:	4700632e 	strmi	r6, [r0, -lr, lsr #6]
 1e8:	4320554e 	teqmi	r0, #327155712	; 0x13800000
 1ec:	382e3420 	stmdacc	lr!, {r5, sl, ip, sp}
 1f0:	2d20332e 	stccs	3, cr3, [r0, #-184]!	; 0xffffff48
 1f4:	7570636d 	ldrbvc	r6, [r0, #-877]!	; 0x36d
 1f8:	6d72613d 	ldfvse	f6, [r2, #-244]!	; 0xffffff0c
 1fc:	36373131 			; <UNDEFINED> instruction: 0x36373131
 200:	2d667a6a 	vstmdbcs	r6!, {s15-s120}
 204:	6d2d2073 	stcvs	0, cr2, [sp, #-460]!	; 0xfffffe34
 208:	656e7574 	strbvs	r7, [lr, #-1396]!	; 0x574
 20c:	6d72613d 	ldfvse	f6, [r2, #-244]!	; 0xffffff0c
 210:	36373131 			; <UNDEFINED> instruction: 0x36373131
 214:	2d667a6a 	vstmdbcs	r6!, {s15-s120}
 218:	672d2073 			; <UNDEFINED> instruction: 0x672d2073
 21c:	20626467 	rsbcs	r6, r2, r7, ror #8
 220:	20674f2d 	rsbcs	r4, r7, sp, lsr #30
 224:	6474732d 	ldrbtvs	r7, [r4], #-813	; 0x32d
 228:	756e673d 	strbvc	r6, [lr, #-1853]!	; 0x73d
 22c:	2d203939 	stccs	9, cr3, [r0, #-228]!	; 0xffffff1c
 230:	65726666 	ldrbvs	r6, [r2, #-1638]!	; 0x666
 234:	61747365 	cmnvs	r4, r5, ror #6
 238:	6e69646e 	cdpvs	4, 6, cr6, cr9, cr14, {3}
 23c:	61760067 	cmnvs	r6, r7, rrx
 240:	6972705f 	ldmdbvs	r2!, {r0, r1, r2, r3, r4, r6, ip, sp, lr}^
 244:	006b746e 	rsbeq	r7, fp, lr, ror #8
 248:	61765f5f 	cmnvs	r6, pc, asr pc
 24c:	73696c5f 	cmnvc	r9, #24320	; 0x5f00
 250:	552f0074 	strpl	r0, [pc, #-116]!	; 1e4 <_start-0x7e1c>
 254:	73726573 	cmnvc	r2, #482344960	; 0x1cc00000
 258:	6972622f 	ldmdbvs	r2!, {r0, r1, r2, r3, r5, r9, sp, lr}^
 25c:	756a6e61 	strbvc	r6, [sl, #-3681]!	; 0xe61
 260:	65442f6e 	strbvs	r2, [r4, #-3950]	; 0xf6e
 264:	6f746b73 	svcvs	0x00746b73
 268:	63732f70 	cmnvs	r3, #112, 30	; 0x1c0
 26c:	6c6f6f68 	stclvs	15, cr6, [pc], #-416	; d4 <_start-0x7f2c>
 270:	6e69572f 	cdpvs	7, 6, cr5, cr9, cr15, {1}
 274:	31726574 	cmncc	r2, r4, ror r5
 278:	2f303239 	svccs	0x00303239
 27c:	34315343 	ldrtcc	r5, [r1], #-835	; 0x343
 280:	632f4530 	teqvs	pc, #48, 10	; 0xc000000
 284:	30343173 	eorscc	r3, r4, r3, ror r1
 288:	30322d65 	eorscc	r2, r2, r5, ror #26
 28c:	2f6e6977 	svccs	0x006e6977
 290:	7062696c 	rsbvc	r6, r2, ip, ror #18
 294:	72610069 	rsbvc	r0, r1, #105	; 0x69
 298:	5f007367 	svcpl	0x00007367
 29c:	0070615f 	rsbseq	r6, r0, pc, asr r1
 2a0:	6362696c 	cmnvs	r2, #108, 18	; 0x1b0000
 2a4:	7475702f 	ldrbtvc	r7, [r5], #-47	; 0x2f
 2a8:	00632e6b 	rsbeq	r2, r3, fp, ror #28
 2ac:	65746e69 	ldrbvs	r6, [r4, #-3689]!	; 0xe69
 2b0:	6c616e72 	stclvs	14, cr6, [r1], #-456	; 0xfffffe38
 2b4:	7475705f 	ldrbtvc	r7, [r5], #-95	; 0x5f
 2b8:	7072006b 	rsbsvc	r0, r2, fp, rrx
 2bc:	75705f69 	ldrbvc	r5, [r0, #-3945]!	; 0xf69
 2c0:	61686374 	smcvs	34356	; 0x8634
 2c4:	656e0072 	strbvs	r0, [lr, #-114]!	; 0x72
 2c8:	00705f67 	rsbseq	r5, r0, r7, ror #30
 2cc:	65766572 	ldrbvs	r6, [r6, #-1394]!	; 0x572
 2d0:	00657372 	rsbeq	r7, r5, r2, ror r3
 2d4:	69647369 	stmdbvs	r4!, {r0, r3, r5, r6, r8, r9, ip, sp, lr}^
 2d8:	00746967 	rsbseq	r6, r4, r7, ror #18
 2dc:	55465f5f 	strbpl	r5, [r6, #-3935]	; 0xf5f
 2e0:	4954434e 	ldmdbmi	r4, {r1, r2, r3, r6, r8, r9, lr}^
 2e4:	5f5f4e4f 	svcpl	0x005f4e4f
 2e8:	74757000 	ldrbtvc	r7, [r5], #-0
 2ec:	70665f73 	rsbvc	r5, r6, r3, ror pc
 2f0:	73616200 	cmnvc	r1, #0, 4
 2f4:	69730065 	ldmdbvs	r3!, {r0, r2, r5, r6}^
 2f8:	64656e67 	strbtvs	r6, [r5], #-3687	; 0xe67
 2fc:	6c00705f 	stcvs	0, cr7, [r0], {95}	; 0x5f
 300:	2f636269 	svccs	0x00636269
 304:	702d6176 	eorvc	r6, sp, r6, ror r1
 308:	746e6972 	strbtvc	r6, [lr], #-2418	; 0x972
 30c:	00632e6b 	rsbeq	r2, r3, fp, ror #28
 310:	5f697072 	svcpl	0x00697072
 314:	5f746573 	svcpl	0x00746573
 318:	7074756f 	rsbsvc	r7, r4, pc, ror #10
 31c:	77007475 	smlsdxvc	r0, r5, r4, r7
 320:	68746469 	ldmdavs	r4!, {r0, r3, r5, r6, sl, sp, lr}^
 324:	74757000 	ldrbtvc	r7, [r5], #-0
 328:	70665f63 	rsbvc	r5, r6, r3, ror #30
 32c:	69707200 	ldmdbvs	r0!, {r9, ip, sp, lr}^
 330:	7365725f 	cmnvc	r5, #-268435451	; 0xf0000005
 334:	705f7465 	subsvc	r7, pc, r5, ror #8
 338:	00637475 	rsbeq	r7, r3, r5, ror r4
 33c:	74696d65 	strbtvc	r6, [r9], #-3429	; 0xd65
 340:	69707200 	ldmdbvs	r0!, {r9, ip, sp, lr}^
 344:	6265725f 	rsbvs	r7, r5, #-268435451	; 0xf0000005
 348:	00746f6f 	rsbseq	r6, r4, pc, ror #30
 34c:	34317363 	ldrtcc	r7, [r1], #-867	; 0x363
 350:	732d6530 	teqvc	sp, #48, 10	; 0xc000000
 354:	632f6372 	teqvs	pc, #-939524095	; 0xc8000001
 358:	6e61656c 	cdpvs	5, 6, cr6, cr1, cr12, {3}
 35c:	6265722d 	rsbvs	r7, r5, #-805306366	; 0xd0000002
 360:	2e746f6f 	cdpcs	15, 7, cr6, cr4, cr15, {3}
 364:	65640063 	strbvs	r0, [r4, #-99]!	; 0x63
 368:	5f79616c 	svcpl	0x0079616c
 36c:	6900736d 	stmdbvs	r0, {r0, r2, r3, r5, r6, r8, r9, ip, sp, lr}
 370:	7265746e 	rsbvc	r7, r5, #1845493760	; 0x6e000000
 374:	5f6c616e 	svcpl	0x006c616e
 378:	705f7773 	subsvc	r7, pc, r3, ror r7	; <UNPREDICTABLE>
 37c:	68637475 	stmdavs	r3!, {r0, r2, r4, r5, r6, sl, ip, sp, lr}^
 380:	5f007261 	svcpl	0x00007261
 384:	7373625f 	cmnvc	r3, #-268435451	; 0xf0000005
 388:	6174735f 	cmnvs	r4, pc, asr r3
 38c:	5f5f7472 	svcpl	0x005f7472
 390:	73736200 	cmnvc	r3, #0, 4
 394:	646e655f 	strbtvs	r6, [lr], #-1375	; 0x55f
 398:	63796300 	cmnvs	r9, #0, 6
 39c:	705f656c 	subsvc	r6, pc, ip, ror #10
 3a0:	625f7265 	subsvs	r7, pc, #1342177286	; 0x50000006
 3a4:	63007469 	movwvs	r7, #1129	; 0x469
 3a8:	6f736e6f 	svcvs	0x00736e6f
 3ac:	755f656c 	ldrbvc	r6, [pc, #-1388]	; fffffe48 <__bss_end__+0xffff5e08>
 3b0:	00747261 	rsbseq	r7, r4, r1, ror #4
 3b4:	755f7773 	ldrbvc	r7, [pc, #-1907]	; fffffc49 <__bss_end__+0xffff5c09>
 3b8:	5f747261 	svcpl	0x00747261
 3bc:	6e697270 	mcrvs	2, 3, r7, cr9, cr0, {3}
 3c0:	50006b74 	andpl	r6, r0, r4, ror fp
 3c4:	5f435455 	svcpl	0x00435455
 3c8:	5f505345 	svcpl	0x00505345
 3cc:	54524155 	ldrbpl	r4, [r2], #-341	; 0x155
 3d0:	5f777300 	svcpl	0x00777300
 3d4:	74726175 	ldrbtvc	r6, [r2], #-373	; 0x175
 3d8:	5000745f 	andpl	r7, r0, pc, asr r4
 3dc:	5f435455 	svcpl	0x00435455
 3e0:	555f5753 	ldrbpl	r5, [pc, #-1875]	; fffffc95 <__bss_end__+0xffff5c55>
 3e4:	00545241 	subseq	r5, r4, r1, asr #4
 3e8:	64756162 	ldrbtvs	r6, [r5], #-354	; 0x162
 3ec:	54555000 	ldrbpl	r5, [r5], #-0
 3f0:	57485f43 	strbpl	r5, [r8, -r3, asr #30]
 3f4:	5241555f 	subpl	r5, r1, #398458880	; 0x17c00000
 3f8:	635f0054 	cmpvs	pc, #84	; 0x54
 3fc:	72617473 	rsbvc	r7, r1, #1929379840	; 0x73000000
 400:	61750074 	cmnvs	r5, r4, ror r0
 404:	645f7472 	ldrbvs	r7, [pc], #-1138	; 40c <_start-0x7bf4>
 408:	745f7665 	ldrbvc	r7, [pc], #-1637	; 410 <_start-0x7bf0>
 40c:	5f777300 	svcpl	0x00777300
 410:	74726175 	ldrbtvc	r6, [r2], #-373	; 0x175
 414:	7475705f 	ldrbtvc	r7, [r5], #-95	; 0x5f
 418:	69750063 	ldmdbvs	r5!, {r0, r1, r5, r6}^
 41c:	5f38746e 	svcpl	0x0038746e
 420:	6f630074 	svcvs	0x00630074
 424:	6f72746e 	svcvs	0x0072746e
 428:	6c625f6c 	stclvs	15, cr5, [r2], #-432	; 0xfffffe50
 42c:	00745f6b 	rsbseq	r5, r4, fp, ror #30
 430:	755f7773 	ldrbvc	r7, [pc, #-1907]	; fffffcc5 <__bss_end__+0xffff5c85>
 434:	00747261 	rsbseq	r7, r4, r1, ror #4
 438:	675f6263 	ldrbvs	r6, [pc, -r3, ror #4]
 43c:	625f7465 	subsvs	r7, pc, #1694498816	; 0x65000000
 440:	6b636f6c 	blvs	18dc1f8 <__bss_end__+0x18d21b8>
 444:	625f5f00 	subsvs	r5, pc, #0, 30
 448:	655f7373 	ldrbvs	r7, [pc, #-883]	; dd <_start-0x7f23>
 44c:	5f5f646e 	svcpl	0x005f646e
 450:	31736300 	cmncc	r3, r0, lsl #6
 454:	2d653034 	stclcs	0, cr3, [r5, #-208]!	; 0xffffff30
 458:	2f637273 	svccs	0x00637273
 45c:	61747363 	cmnvs	r4, r3, ror #6
 460:	632e7472 	teqvs	lr, #1912602624	; 0x72000000
 464:	6e6f6300 	cdpvs	3, 6, cr6, cr15, cr0, {0}
 468:	656c6f73 	strbvs	r6, [ip, #-3955]!	; 0xf73
 46c:	7665645f 			; <UNDEFINED> instruction: 0x7665645f
 470:	6e697500 	cdpvs	5, 6, cr7, cr9, cr0, {0}
 474:	5f323374 	svcpl	0x00323374
 478:	616d0074 	smcvs	53252	; 0xd004
 47c:	00636967 	rsbeq	r6, r3, r7, ror #18
 480:	755f7461 	ldrbvc	r7, [pc, #-1121]	; 27 <_start-0x7fd9>
 484:	5f726573 	svcpl	0x00726573
 488:	6576656c 	ldrbvs	r6, [r6, #-1388]!	; 0x56c
 48c:	4d50006c 	ldclmi	0, cr0, [r0, #-432]	; 0xfffffe50
 490:	5341505f 	movtpl	r5, #4191	; 0x105f
 494:	524f5753 	subpl	r5, pc, #21757952	; 0x14c0000
 498:	73630044 	cmnvc	r3, #68	; 0x44
 49c:	65303431 	ldrvs	r3, [r0, #-1073]!	; 0x431
 4a0:	6372732d 	cmnvs	r2, #-1275068416	; 0xb4000000
 4a4:	6265722f 	rsbvs	r7, r5, #-268435454	; 0xf0000002
 4a8:	2e746f6f 	cdpcs	15, 7, cr6, cr4, cr15, {3}
 4ac:	4d500063 	ldclmi	0, cr0, [r0, #-396]	; 0xfffffe74
 4b0:	5453525f 	ldrbpl	r5, [r3], #-607	; 0x25f
 4b4:	52575f43 	subspl	r5, r7, #268	; 0x10c
 4b8:	5f474643 	svcpl	0x00474643
 4bc:	4c4c5546 	cfstr64mi	mvdx5, [ip], {70}	; 0x46
 4c0:	5345525f 	movtpl	r5, #21087	; 0x525f
 4c4:	50005445 	andpl	r5, r0, r5, asr #8
 4c8:	44575f4d 	ldrbmi	r5, [r7], #-3917	; 0xf4d
 4cc:	7300474f 	movwvc	r4, #1871	; 0x74f
 4d0:	755f7465 	ldrbvc	r7, [pc, #-1125]	; 73 <_start-0x7f8d>
 4d4:	5f726573 	svcpl	0x00726573
 4d8:	6576656c 	ldrbvs	r6, [r6, #-1388]!	; 0x56c
 4dc:	5550006c 	ldrbpl	r0, [r0, #-108]	; 0x6c
 4e0:	00323354 	eorseq	r3, r2, r4, asr r3
 4e4:	525f4d50 	subspl	r4, pc, #80, 26	; 0x1400
 4e8:	00435453 	subeq	r5, r3, r3, asr r4
 4ec:	72737063 	rsbsvc	r7, r3, #99	; 0x63
 4f0:	6d697400 	cfstrdvs	mvd7, [r9, #-0]
 4f4:	675f7265 	ldrbvs	r7, [pc, -r5, ror #4]
 4f8:	755f7465 	ldrbvc	r7, [pc, #-1125]	; 9b <_start-0x7f65>
 4fc:	5f636573 	svcpl	0x00636573
 500:	00776172 	rsbseq	r6, r7, r2, ror r1
 504:	616c6564 	cmnvs	ip, r4, ror #10
 508:	65735f79 	ldrbvs	r5, [r3, #-3961]!	; 0xf79
 50c:	73630063 	cmnvc	r3, #99	; 0x63
 510:	65303431 	ldrvs	r3, [r0, #-1073]!	; 0x431
 514:	6372732d 	cmnvs	r2, #-1275068416	; 0xb4000000
 518:	6d69742f 	cfstrdvs	mvd7, [r9, #-188]!	; 0xffffff44
 51c:	632e7265 	teqvs	lr, #1342177286	; 0x50000006
 520:	54454700 	strbpl	r4, [r5], #-1792	; 0x700
 524:	74003233 	strvc	r3, [r0], #-563	; 0x233
 528:	736b6369 	cmnvc	fp, #-1543503871	; 0xa4000001
 52c:	6c656400 	cfstrdvs	mvd6, [r5], #-0
 530:	635f7961 	cmpvs	pc, #1589248	; 0x184000
 534:	656c6379 	strbvs	r6, [ip, #-889]!	; 0x379
 538:	65640073 	strbvs	r0, [r4, #-115]!	; 0x73
 53c:	5f79616c 	svcpl	0x0079616c
 540:	74007375 	strvc	r7, [r0], #-885	; 0x375
 544:	72656d69 	rsbvc	r6, r5, #6720	; 0x1a40
 548:	7465675f 	strbtvc	r6, [r5], #-1887	; 0x75f
 54c:	6573755f 	ldrbvs	r7, [r3, #-1375]!	; 0x55f
 550:	70670063 	rsbvc	r0, r7, r3, rrx
 554:	655f6f69 	ldrbvs	r6, [pc, #-3945]	; fffff5f3 <__bss_end__+0xffff55b3>
 558:	746e6576 	strbtvc	r6, [lr], #-1398	; 0x576
 55c:	7465645f 	strbtvc	r6, [r5], #-1119	; 0x45f
 560:	65746365 	ldrbvs	r6, [r4, #-869]!	; 0x365
 564:	50470064 	subpl	r0, r7, r4, rrx
 568:	4c455346 	mcrrmi	3, 4, r5, r5, cr6
 56c:	50470032 	subpl	r0, r7, r2, lsr r0
 570:	30524c43 	subscc	r4, r2, r3, asr #24
 574:	414e4500 	cmpmi	lr, r0, lsl #10
 578:	5f454c42 	svcpl	0x00454c42
 57c:	53515249 	cmppl	r1, #-1879048188	; 0x90000004
 580:	6900325f 	stmdbvs	r0, {r0, r1, r2, r3, r4, r6, r9, ip, sp}
 584:	70675f73 	rsbvc	r5, r7, r3, ror pc
 588:	695f6f69 	ldmdbvs	pc, {r0, r3, r5, r6, r8, r9, sl, fp, sp, lr}^	; <UNPREDICTABLE>
 58c:	4700746e 	strmi	r7, [r0, -lr, ror #8]
 590:	5f4f4950 	svcpl	0x004f4950
 594:	434e5546 	movtmi	r5, #58694	; 0xe546
 598:	504e495f 	subpl	r4, lr, pc, asr r9
 59c:	67005455 	smlsdvs	r0, r5, r4, r5
 5a0:	5f6f6970 	svcpl	0x006f6970
 5a4:	5f746573 	svcpl	0x00746573
 5a8:	0066666f 	rsbeq	r6, r6, pc, ror #12
 5ac:	732d796d 	teqvc	sp, #1785856	; 0x1b4000
 5b0:	672f6372 			; <UNDEFINED> instruction: 0x672f6372
 5b4:	2e6f6970 	mcrcs	9, 3, r6, cr15, cr0, {3}
 5b8:	6e690063 	cdpvs	0, 6, cr0, cr9, cr3, {3}
 5bc:	616d5f74 	smcvs	54772	; 0xd5f4
 5c0:	47006b73 	smlsdxmi	r0, r3, fp, r6
 5c4:	54455350 	strbpl	r5, [r5], #-848	; 0x350
 5c8:	50470030 	subpl	r0, r7, r0, lsr r0
 5cc:	31544553 	cmpcc	r4, r3, asr r5
 5d0:	67657200 	strbvs	r7, [r5, -r0, lsl #4]!
 5d4:	6174735f 	cmnvs	r4, pc, asr r3
 5d8:	50470074 	subpl	r0, r7, r4, ror r0
 5dc:	3056454c 	subscc	r4, r6, ip, asr #10
 5e0:	4c504700 	mrrcmi	7, 0, r4, r0, cr0
 5e4:	00315645 	eorseq	r5, r1, r5, asr #12
 5e8:	6f697067 	svcvs	0x00697067
 5ec:	6765725f 			; <UNDEFINED> instruction: 0x6765725f
 5f0:	46504700 	ldrbmi	r4, [r0], -r0, lsl #14
 5f4:	304c4553 	subcc	r4, ip, r3, asr r5
 5f8:	46504700 	ldrbmi	r4, [r0], -r0, lsl #14
 5fc:	314c4553 	cmpcc	ip, r3, asr r5
 600:	46504700 	ldrbmi	r4, [r0], -r0, lsl #14
 604:	334c4553 	movtcc	r4, #50515	; 0xc553
 608:	46504700 	ldrbmi	r4, [r0], -r0, lsl #14
 60c:	344c4553 	strbcc	r4, [ip], #-1363	; 0x553
 610:	46504700 	ldrbmi	r4, [r0], -r0, lsl #14
 614:	354c4553 	strbcc	r4, [ip, #-1363]	; 0x553
 618:	76656400 	strbtvc	r6, [r5], -r0, lsl #8
 61c:	7261625f 	rsbvc	r6, r1, #-268435451	; 0xf0000005
 620:	72656972 	rsbvc	r6, r5, #1867776	; 0x1c8000
 624:	69706700 	ldmdbvs	r0!, {r8, r9, sl, sp, lr}^
 628:	73665f6f 	cmnvc	r6, #444	; 0x1bc
 62c:	00306c65 	eorseq	r6, r0, r5, ror #24
 630:	4c435047 	mcrrmi	0, 4, r5, r3, cr7
 634:	67003152 	smlsdvs	r0, r2, r1, r3
 638:	5f6f6970 	svcpl	0x006f6970
 63c:	64616572 	strbtvs	r6, [r1], #-1394	; 0x572
 640:	69706700 	ldmdbvs	r0!, {r8, r9, sl, sp, lr}^
 644:	6e695f6f 	cdpvs	15, 6, cr5, cr9, cr15, {3}
 648:	69725f74 	ldmdbvs	r2!, {r2, r4, r5, r6, r8, r9, sl, fp, ip, lr}^
 64c:	676e6973 			; <UNDEFINED> instruction: 0x676e6973
 650:	6764655f 			; <UNDEFINED> instruction: 0x6764655f
 654:	70670065 	rsbvc	r0, r7, r5, rrx
 658:	735f6f69 	cmpvc	pc, #420	; 0x1a4
 65c:	665f7465 	ldrbvs	r7, [pc], -r5, ror #8
 660:	74636e75 	strbtvc	r6, [r3], #-3701	; 0xe75
 664:	006e6f69 	rsbeq	r6, lr, r9, ror #30
 668:	45525047 	ldrbmi	r5, [r2, #-71]	; 0x47
 66c:	4700304e 	strmi	r3, [r0, -lr, asr #32]
 670:	4e455250 	mcrmi	2, 2, r5, cr5, cr0, {2}
 674:	70670031 	rsbvc	r0, r7, r1, lsr r0
 678:	655f6f69 	ldrbvs	r6, [pc, #-3945]	; fffff717 <__bss_end__+0xffff56d7>
 67c:	746e6576 	strbtvc	r6, [lr], #-1398	; 0x576
 680:	656c635f 	strbvs	r6, [ip, #-863]!	; 0x35f
 684:	49007261 	stmdbmi	r0, {r0, r5, r6, r9, ip, sp, lr}
 688:	505f5152 	subspl	r5, pc, r2, asr r1	; <UNPREDICTABLE>
 68c:	49444e45 	stmdbmi	r4, {r0, r2, r6, r9, sl, fp, lr}^
 690:	315f474e 	cmpcc	pc, lr, asr #14
 694:	51524900 	cmppl	r2, r0, lsl #18
 698:	4e45505f 	mcrmi	0, 2, r5, cr5, cr15, {2}
 69c:	474e4944 	strbmi	r4, [lr, -r4, asr #18]
 6a0:	6200325f 	andvs	r3, r0, #-268435451	; 0xf0000005
 6a4:	616d7469 	cmnvs	sp, r9, ror #8
 6a8:	67006b73 	smlsdxvs	r0, r3, fp, r6
 6ac:	5f6f6970 	svcpl	0x006f6970
 6b0:	74697277 	strbtvc	r7, [r9], #-631	; 0x277
 6b4:	70670065 	rsbvc	r0, r7, r5, rrx
 6b8:	735f6f69 	cmpvc	pc, #420	; 0x1a4
 6bc:	00307465 	eorseq	r7, r0, r5, ror #8
 6c0:	636e7566 	cmnvs	lr, #427819008	; 0x19800000
 6c4:	69706700 	ldmdbvs	r0!, {r8, r9, sl, sp, lr}^
 6c8:	6f745f6f 	svcvs	0x00745f6f
 6cc:	656c6767 	strbvs	r6, [ip, #-1895]!	; 0x767
 6d0:	45504700 	ldrbmi	r4, [r0, #-1792]	; 0x700
 6d4:	00305344 	eorseq	r5, r0, r4, asr #6
 6d8:	44455047 	strbmi	r5, [r5], #-71	; 0x47
 6dc:	67003153 	smlsdvs	r0, r3, r1, r3
 6e0:	5f6f6970 	svcpl	0x006f6970
 6e4:	5f746573 	svcpl	0x00746573
 6e8:	47006e6f 	strmi	r6, [r0, -pc, ror #28]
 6ec:	4e454650 	mcrmi	6, 2, r4, cr5, cr0, {2}
 6f0:	50470030 	subpl	r0, r7, r0, lsr r0
 6f4:	314e4546 	cmpcc	lr, r6, asr #10
 6f8:	69706700 	ldmdbvs	r0!, {r8, r9, sl, sp, lr}^
 6fc:	65735f6f 	ldrbvs	r5, [r3, #-3951]!	; 0xf6f
 700:	756f5f74 	strbvc	r5, [pc, #-3956]!	; fffff794 <__bss_end__+0xffff5754>
 704:	74757074 	ldrbtvc	r7, [r5], #-116	; 0x74
 708:	49504700 	ldmdbmi	r0, {r8, r9, sl, lr}^
 70c:	55465f4f 	strbpl	r5, [r6, #-3919]	; 0xf4f
 710:	4f5f434e 	svcmi	0x005f434e
 714:	55505455 	ldrbpl	r5, [r0, #-1109]	; 0x455
 718:	65670054 	strbvs	r0, [r7, #-84]!	; 0x54
 71c:	00323374 	eorseq	r3, r2, r4, ror r3
 720:	6f697067 	svcvs	0x00697067
 724:	746e695f 	strbtvc	r6, [lr], #-2399	; 0x95f
 728:	6c61665f 	stclvs	6, cr6, [r1], #-380	; 0xfffffe84
 72c:	676e696c 	strbvs	r6, [lr, -ip, ror #18]!
 730:	6764655f 			; <UNDEFINED> instruction: 0x6764655f
 734:	70670065 	rsbvc	r0, r7, r5, rrx
 738:	665f6f69 	ldrbvs	r6, [pc], -r9, ror #30
 73c:	5f636e75 	svcpl	0x00636e75
 740:	50470074 	subpl	r0, r7, r4, ror r0
 744:	465f4f49 	ldrbmi	r4, [pc], -r9, asr #30
 748:	5f434e55 	svcpl	0x00434e55
 74c:	30544c41 	subscc	r4, r4, r1, asr #24
 750:	49504700 	ldmdbmi	r0, {r8, r9, sl, lr}^
 754:	55465f4f 	strbpl	r5, [r6, #-3919]	; 0xf4f
 758:	415f434e 	cmpmi	pc, lr, asr #6
 75c:	0031544c 	eorseq	r5, r1, ip, asr #8
 760:	4f495047 	svcmi	0x00495047
 764:	4e55465f 	mrcmi	6, 2, r4, cr5, cr15, {2}
 768:	4c415f43 	mcrrmi	15, 4, r5, r1, cr3
 76c:	47003254 	smlsdmi	r0, r4, r2, r3
 770:	5f4f4950 	svcpl	0x004f4950
 774:	434e5546 	movtmi	r5, #58694	; 0xe546
 778:	544c415f 	strbpl	r4, [ip], #-351	; 0x15f
 77c:	50470033 	subpl	r0, r7, r3, lsr r0
 780:	465f4f49 	ldrbmi	r4, [pc], -r9, asr #30
 784:	5f434e55 	svcpl	0x00434e55
 788:	34544c41 	ldrbcc	r4, [r4], #-3137	; 0xc41
 78c:	49504700 	ldmdbmi	r0, {r8, r9, sl, lr}^
 790:	55465f4f 	strbpl	r5, [r6, #-3919]	; 0xf4f
 794:	415f434e 	cmpmi	pc, lr, asr #6
 798:	0035544c 	eorseq	r5, r5, ip, asr #8
 79c:	5f676572 	svcpl	0x00676572
 7a0:	656c6573 	strbvs	r6, [ip, #-1395]!	; 0x573
 7a4:	67007463 	strvs	r7, [r0, -r3, ror #8]
 7a8:	5f6f6970 	svcpl	0x006f6970
 7ac:	30726c63 	rsbscc	r6, r2, r3, ror #24
 7b0:	63796300 	cmnvs	r9, #0, 6
 7b4:	7265705f 	rsbvc	r7, r5, #95	; 0x5f
 7b8:	7469625f 	strbtvc	r6, [r9], #-607	; 0x25f
 7bc:	69727700 	ldmdbvs	r2!, {r8, r9, sl, ip, sp, lr}^
 7c0:	635f6574 	cmpvs	pc, #116, 10	; 0x1d000000
 7c4:	755f6379 	ldrbvc	r6, [pc, #-889]	; 453 <_start-0x7bad>
 7c8:	6c69746e 	cfstrdvs	mvd7, [r9], #-440	; 0xfffffe48
 7cc:	5f777300 	svcpl	0x00777300
 7d0:	74726175 	ldrbtvc	r6, [r2], #-373	; 0x175
 7d4:	7465675f 	strbtvc	r6, [r5], #-1887	; 0x75f
 7d8:	69745f63 	ldmdbvs	r4!, {r0, r1, r5, r6, r8, r9, sl, fp, ip, lr}^
 7dc:	756f656d 	strbvc	r6, [pc, #-1389]!	; 277 <_start-0x7d89>
 7e0:	77730074 			; <UNDEFINED> instruction: 0x77730074
 7e4:	7261755f 	rsbvc	r7, r1, #398458880	; 0x17c00000
 7e8:	65675f74 	strbvs	r5, [r7, #-3956]!	; 0xf74
 7ec:	755f7374 	ldrbvc	r7, [pc, #-884]	; 480 <_start-0x7b80>
 7f0:	6c69746e 	cfstrdvs	mvd7, [r9], #-440	; 0xfffffe48
 7f4:	5f777300 	svcpl	0x00777300
 7f8:	74726175 	ldrbtvc	r6, [r2], #-373	; 0x175
 7fc:	7465675f 	strbtvc	r6, [r5], #-1887	; 0x75f
 800:	65640063 	strbvs	r0, [r4, #-99]!	; 0x63
 804:	65766972 	ldrbvs	r6, [r6, #-2418]!	; 0x972
 808:	65640064 	strbvs	r0, [r4, #-100]!	; 0x64
 80c:	5f79616c 	svcpl	0x0079616c
 810:	6379636e 	cmnvs	r9, #-1207959551	; 0xb8000001
 814:	0073656c 	rsbseq	r6, r3, ip, ror #10
 818:	755f7773 	ldrbvc	r7, [pc, #-1907]	; ad <_start-0x7f53>
 81c:	5f747261 	svcpl	0x00747261
 820:	74696e69 	strbtvc	r6, [r9], #-3689	; 0xe69
 824:	6c65685f 	stclvs	8, cr6, [r5], #-380	; 0xfffffe84
 828:	00726570 	rsbseq	r6, r2, r0, ror r5
 82c:	656d6974 	strbvs	r6, [sp, #-2420]!	; 0x974
 830:	5f74756f 	svcpl	0x0074756f
 834:	63657375 	cmnvs	r5, #-738197503	; 0xd4000001
 838:	5f777300 	svcpl	0x00777300
 83c:	74726175 	ldrbtvc	r6, [r2], #-373	; 0x175
 840:	7475705f 	ldrbtvc	r7, [r5], #-95	; 0x5f
 844:	796d006b 	stmdbvc	sp!, {r0, r1, r3, r5, r6}^
 848:	6372732d 	cmnvs	r2, #-1275068416	; 0xb4000000
 84c:	2d77732f 	ldclcs	3, cr7, [r7, #-188]!	; 0xffffff44
 850:	74726175 	ldrbtvc	r6, [r2], #-373	; 0x175
 854:	6300632e 	movwvs	r6, #814	; 0x32e
 858:	5f726168 	svcpl	0x00726168
 85c:	73006e69 	movwvc	r6, #3689	; 0xe69
 860:	61755f77 	cmnvs	r5, r7, ror pc
 864:	675f7472 			; <UNDEFINED> instruction: 0x675f7472
 868:	5f737465 	svcpl	0x00737465
 86c:	656d6974 	strbvs	r6, [sp, #-2420]!	; 0x974
 870:	0074756f 	rsbseq	r7, r4, pc, ror #10
 874:	7479626e 	ldrbtvc	r6, [r9], #-622	; 0x26e
 878:	75007365 	strvc	r7, [r0, #-869]	; 0x365
 87c:	5f636573 	svcpl	0x00636573
 880:	656d6974 	strbvs	r6, [sp, #-2420]!	; 0x974
 884:	0074756f 	rsbseq	r7, r4, pc, ror #10
 888:	755f7773 	ldrbvc	r7, [pc, #-1907]	; 11d <_start-0x7ee3>
 88c:	5f747261 	svcpl	0x00747261
 890:	73746567 	cmnvc	r4, #432013312	; 0x19c00000
 894:	746e755f 	strbtvc	r7, [lr], #-1375	; 0x55f
 898:	625f6c69 	subsvs	r6, pc, #26880	; 0x6900
 89c:	77006b6c 	strvc	r6, [r0, -ip, ror #22]
 8a0:	5f746961 	svcpl	0x00746961
 8a4:	69746e75 	ldmdbvs	r4!, {r0, r2, r4, r5, r6, r9, sl, fp, sp, lr}^
 8a8:	73755f6c 	cmnvc	r5, #108, 30	; 0x1b0
 8ac:	41006365 	tstmi	r0, r5, ror #6
 8b0:	4d5f5855 	ldclmi	8, cr5, [pc, #-340]	; 764 <_start-0x789c>
 8b4:	434d5f55 	movtmi	r5, #57173	; 0xdf55
 8b8:	45525f52 	ldrbmi	r5, [r2, #-3922]	; 0xf52
 8bc:	55410047 	strbpl	r0, [r1, #-71]	; 0x47
 8c0:	554d5f58 	strbpl	r5, [sp, #-3928]	; 0xf58
 8c4:	5f4f495f 	svcpl	0x004f495f
 8c8:	00474552 	subeq	r4, r7, r2, asr r5
 8cc:	5f585541 	svcpl	0x00585541
 8d0:	4d5f554d 	cfldr64mi	mvdx5, [pc, #-308]	; 7a4 <_start-0x785c>
 8d4:	525f5253 	subspl	r5, pc, #805306373	; 0x30000005
 8d8:	75004745 	strvc	r4, [r0, #-1861]	; 0x745
 8dc:	5f747261 	svcpl	0x00747261
 8e0:	5f6e6163 	svcpl	0x006e6163
 8e4:	63746567 	cmnvs	r4, #432013312	; 0x19c00000
 8e8:	58554100 	ldmdapl	r5, {r8, lr}^
 8ec:	5f554d5f 	svcpl	0x00554d5f
 8f0:	4c544e43 	mrrcmi	14, 4, r4, r4, cr3	; <UNPREDICTABLE>
 8f4:	4745525f 	smlsldmi	r5, r5, pc, r2	; <UNPREDICTABLE>
 8f8:	72617500 	rsbvc	r7, r1, #0, 10
 8fc:	61685f74 	smcvs	34292	; 0x85f4
 900:	61645f73 	smcvs	17907	; 0x45f3
 904:	41006174 	tstmi	r0, r4, ror r1
 908:	4d5f5855 	ldclmi	8, cr5, [pc, #-340]	; 7bc <_start-0x7844>
 90c:	45495f55 	strbmi	r5, [r9, #-3925]	; 0xf55
 910:	45525f52 	ldrbmi	r5, [r2, #-3922]	; 0xf52
 914:	55410047 	strbpl	r0, [r1, #-71]	; 0x47
 918:	554d5f58 	strbpl	r5, [sp, #-3928]	; 0xf58
 91c:	5249495f 	subpl	r4, r9, #1556480	; 0x17c000
 920:	4745525f 	smlsldmi	r5, r5, pc, r2	; <UNPREDICTABLE>
 924:	72617500 	rsbvc	r7, r1, #0, 10
 928:	61635f74 	smcvs	13812	; 0x35f4
 92c:	75705f6e 	ldrbvc	r5, [r0, #-3950]!	; 0xf6e
 930:	41006374 	tstmi	r0, r4, ror r3
 934:	455f5855 	ldrbmi	r5, [pc, #-2133]	; e7 <_start-0x7f19>
 938:	4c42414e 	stfmie	f4, [r2], {78}	; 0x4e
 93c:	41005345 	tstmi	r0, r5, asr #6
 940:	495f5855 	ldmdbmi	pc, {r0, r2, r4, r6, fp, ip, lr}^	; <UNPREDICTABLE>
 944:	41005152 	tstmi	r0, r2, asr r1
 948:	4d5f5855 	ldclmi	8, cr5, [pc, #-340]	; 7fc <_start-0x7804>
 94c:	41425f55 	cmpmi	r2, r5, asr pc
 950:	525f4455 	subspl	r4, pc, #1426063360	; 0x55000000
 954:	41004745 	tstmi	r0, r5, asr #14
 958:	4d5f5855 	ldclmi	8, cr5, [pc, #-340]	; 80c <_start-0x77f4>
 95c:	54535f55 	ldrbpl	r5, [r3], #-3925	; 0xf55
 960:	525f5441 	subspl	r5, pc, #1090519040	; 0x41000000
 964:	41004745 	tstmi	r0, r5, asr #14
 968:	4d5f5855 	ldclmi	8, cr5, [pc, #-340]	; 81c <_start-0x77e4>
 96c:	43535f55 	cmpmi	r3, #340	; 0x154
 970:	43544152 	cmpmi	r4, #-2147483628	; 0x80000014
 974:	796d0048 	stmdbvc	sp!, {r3, r6}^
 978:	6372732d 	cmnvs	r2, #-1275068416	; 0xb4000000
 97c:	7261752f 	rsbvc	r7, r1, #197132288	; 0xbc00000
 980:	00632e74 	rsbeq	r2, r3, r4, ror lr
 984:	5f585541 	svcpl	0x00585541
 988:	4c5f554d 	cfldr64mi	mvdx5, [pc], {77}	; 0x4d
 98c:	525f5243 	subspl	r5, pc, #805306372	; 0x30000004
 990:	41004745 	tstmi	r0, r5, asr #14
 994:	4d5f5855 	ldclmi	8, cr5, [pc, #-340]	; 848 <_start-0x77b8>
 998:	534c5f55 	movtpl	r5, #53077	; 0xcf55
 99c:	45525f52 	ldrbmi	r5, [r2, #-3922]	; 0xf52
 9a0:	61750047 	cmnvs	r5, r7, asr #32
 9a4:	675f7472 			; <UNDEFINED> instruction: 0x675f7472
 9a8:	5f637465 	svcpl	0x00637465
 9ac:	6e797361 	cdpvs	3, 7, cr7, cr9, cr1, {3}
 9b0:	6e690063 	cdpvs	0, 6, cr0, cr9, cr3, {3}
 9b4:	6e726574 	mrcvs	5, 3, r6, cr2, cr4, {3}
 9b8:	705f6c61 	subsvc	r6, pc, r1, ror #24
 9bc:	68637475 	stmdavs	r3!, {r0, r2, r4, r5, r6, sl, ip, sp, lr}^
 9c0:	6c007261 	sfmvs	f7, 4, [r0], {97}	; 0x61
 9c4:	2f636269 	svccs	0x00636269
 9c8:	63747570 	cmnvs	r4, #112, 10	; 0x1c000000
 9cc:	2e726168 	rpwcssz	f6, f2, #0.0
 9d0:	70720063 	rsbsvc	r0, r2, r3, rrx
 9d4:	65735f69 	ldrbvs	r5, [r3, #-3945]!	; 0xf69
 9d8:	75705f74 	ldrbvc	r5, [r0, #-3956]!	; 0xf74
 9dc:	73006374 	movwvc	r6, #884	; 0x374
 9e0:	5f657a69 	svcpl	0x00657a69
 9e4:	656d0074 	strbvs	r0, [sp, #-116]!	; 0x74
 9e8:	7465736d 	strbtvc	r7, [r5], #-877	; 0x36d
 9ec:	5f626300 	svcpl	0x00626300
 9f0:	0077656e 	rsbseq	r6, r7, lr, ror #10
 9f4:	34317363 	ldrtcc	r7, [r1], #-867	; 0x363
 9f8:	732d6530 	teqvc	sp, #48, 10	; 0xc000000
 9fc:	632f6372 	teqvs	pc, #-939524095	; 0xc8000001
 a00:	72746e6f 	rsbsvc	r6, r4, #1776	; 0x6f0
 a04:	622d6c6f 	eorvs	r6, sp, #28416	; 0x6f00
 a08:	6b636f6c 	blvs	18dc7c0 <__bss_end__+0x18d2780>
 a0c:	6c00632e 	stcvs	3, cr6, [r0], {46}	; 0x2e
 a10:	2f636269 	svccs	0x00636269
 a14:	736d656d 	cmnvc	sp, #457179136	; 0x1b400000
 a18:	632e7465 	teqvs	lr, #1694498816	; 0x65000000
	...

Disassembly of section .debug_frame:

00000000 <.debug_frame>:
   0:	0000000c 	andeq	r0, r0, ip
   4:	ffffffff 			; <UNDEFINED> instruction: 0xffffffff
   8:	7c020001 	stcvc	0, cr0, [r2], {1}
   c:	000d0c0e 	andeq	r0, sp, lr, lsl #24
  10:	00000014 	andeq	r0, r0, r4, lsl r0
  14:	00000000 	andeq	r0, r0, r0
  18:	00008010 	andeq	r8, r0, r0, lsl r0
  1c:	00000054 	andeq	r0, r0, r4, asr r0
  20:	83080e42 	movwhi	r0, #36418	; 0x8e42
  24:	00018e02 	andeq	r8, r1, r2, lsl #28
  28:	0000000c 	andeq	r0, r0, ip
  2c:	ffffffff 			; <UNDEFINED> instruction: 0xffffffff
  30:	7c020001 	stcvc	0, cr0, [r2], {1}
  34:	000d0c0e 	andeq	r0, sp, lr, lsl #24
  38:	00000018 	andeq	r0, r0, r8, lsl r0
  3c:	00000028 	andeq	r0, r0, r8, lsr #32
  40:	00008064 	andeq	r8, r0, r4, rrx
  44:	000000b4 	strheq	r0, [r0], -r4
  48:	83100e42 	tsthi	r0, #1056	; 0x420
  4c:	85038404 	strhi	r8, [r3, #-1028]	; 0x404
  50:	00018e02 	andeq	r8, r1, r2, lsl #28
  54:	00000018 	andeq	r0, r0, r8, lsl r0
  58:	00000028 	andeq	r0, r0, r8, lsr #32
  5c:	00008118 	andeq	r8, r0, r8, lsl r1
  60:	000000b4 	strheq	r0, [r0], -r4
  64:	83100e42 	tsthi	r0, #1056	; 0x420
  68:	85038404 	strhi	r8, [r3, #-1028]	; 0x404
  6c:	00018e02 	andeq	r8, r1, r2, lsl #28
  70:	00000014 	andeq	r0, r0, r4, lsl r0
  74:	00000028 	andeq	r0, r0, r8, lsr #32
  78:	000081cc 	andeq	r8, r0, ip, asr #3
  7c:	000000ac 	andeq	r0, r0, ip, lsr #1
  80:	84080e42 	strhi	r0, [r8], #-3650	; 0xe42
  84:	00018e02 	andeq	r8, r1, r2, lsl #28
  88:	0000000c 	andeq	r0, r0, ip
  8c:	ffffffff 			; <UNDEFINED> instruction: 0xffffffff
  90:	7c020001 	stcvc	0, cr0, [r2], {1}
  94:	000d0c0e 	andeq	r0, sp, lr, lsl #24
  98:	00000024 	andeq	r0, r0, r4, lsr #32
  9c:	00000088 	andeq	r0, r0, r8, lsl #1
  a0:	00008278 	andeq	r8, r0, r8, ror r2
  a4:	00000058 	andeq	r0, r0, r8, asr r0
  a8:	80100e42 	andshi	r0, r0, r2, asr #28
  ac:	82038104 	andhi	r8, r3, #4, 2
  b0:	42018302 	andmi	r8, r1, #134217728	; 0x8000000
  b4:	07841c0e 	streq	r1, [r4, lr, lsl #24]
  b8:	058e0685 	streq	r0, [lr, #1669]	; 0x685
  bc:	00280e42 	eoreq	r0, r8, r2, asr #28
  c0:	0000000c 	andeq	r0, r0, ip
  c4:	ffffffff 			; <UNDEFINED> instruction: 0xffffffff
  c8:	7c020001 	stcvc	0, cr0, [r2], {1}
  cc:	000d0c0e 	andeq	r0, sp, lr, lsl #24
  d0:	00000018 	andeq	r0, r0, r8, lsl r0
  d4:	000000c0 	andeq	r0, r0, r0, asr #1
  d8:	000082d0 	ldrdeq	r8, [r0], -r0
  dc:	00000034 	andeq	r0, r0, r4, lsr r0
  e0:	83100e42 	tsthi	r0, #1056	; 0x420
  e4:	85038404 	strhi	r8, [r3, #-1028]	; 0x404
  e8:	00018e02 	andeq	r8, r1, r2, lsl #28
  ec:	0000000c 	andeq	r0, r0, ip
  f0:	ffffffff 			; <UNDEFINED> instruction: 0xffffffff
  f4:	7c020001 	stcvc	0, cr0, [r2], {1}
  f8:	000d0c0e 	andeq	r0, sp, lr, lsl #24
  fc:	0000000c 	andeq	r0, r0, ip
 100:	000000ec 	andeq	r0, r0, ip, ror #1
 104:	00008304 	andeq	r8, r0, r4, lsl #6
 108:	00000014 	andeq	r0, r0, r4, lsl r0
 10c:	0000000c 	andeq	r0, r0, ip
 110:	000000ec 	andeq	r0, r0, ip, ror #1
 114:	00008318 	andeq	r8, r0, r8, lsl r3
 118:	0000002c 	andeq	r0, r0, ip, lsr #32
 11c:	0000000c 	andeq	r0, r0, ip
 120:	000000ec 	andeq	r0, r0, ip, ror #1
 124:	00008344 	andeq	r8, r0, r4, asr #6
 128:	00000040 	andeq	r0, r0, r0, asr #32
 12c:	00000020 	andeq	r0, r0, r0, lsr #32
 130:	000000ec 	andeq	r0, r0, ip, ror #1
 134:	00008384 	andeq	r8, r0, r4, lsl #7
 138:	000001a8 	andeq	r0, r0, r8, lsr #3
 13c:	84180e42 	ldrhi	r0, [r8], #-3650	; 0xe42
 140:	86058506 	strhi	r8, [r5], -r6, lsl #10
 144:	88038704 	stmdahi	r3, {r2, r8, r9, sl, pc}
 148:	42018e02 	andmi	r8, r1, #2, 28
 14c:	0000600e 	andeq	r6, r0, lr
 150:	00000014 	andeq	r0, r0, r4, lsl r0
 154:	000000ec 	andeq	r0, r0, ip, ror #1
 158:	0000852c 	andeq	r8, r0, ip, lsr #10
 15c:	00000068 	andeq	r0, r0, r8, rrx
 160:	8e040e42 	cdphi	14, 0, cr0, cr4, cr2, {2}
 164:	100e4201 	andne	r4, lr, r1, lsl #4
 168:	00000028 	andeq	r0, r0, r8, lsr #32
 16c:	000000ec 	andeq	r0, r0, ip, ror #1
 170:	00008594 	muleq	r0, r4, r5
 174:	00000294 	muleq	r0, r4, r2
 178:	84240e42 	strthi	r0, [r4], #-3650	; 0xe42
 17c:	86088509 	strhi	r8, [r8], -r9, lsl #10
 180:	88068707 	stmdahi	r6, {r0, r1, r2, r8, r9, sl, pc}
 184:	8a048905 	bhi	1225a0 <__bss_end__+0x118560>
 188:	8e028b03 	vmlahi.f64	d8, d2, d3
 18c:	b00e4201 	andlt	r4, lr, r1, lsl #4
 190:	00000001 	andeq	r0, r0, r1
 194:	0000000c 	andeq	r0, r0, ip
 198:	ffffffff 			; <UNDEFINED> instruction: 0xffffffff
 19c:	7c020001 	stcvc	0, cr0, [r2], {1}
 1a0:	000d0c0e 	andeq	r0, sp, lr, lsl #24
 1a4:	00000014 	andeq	r0, r0, r4, lsl r0
 1a8:	00000194 	muleq	r0, r4, r1
 1ac:	00008828 	andeq	r8, r0, r8, lsr #16
 1b0:	00000028 	andeq	r0, r0, r8, lsr #32
 1b4:	83080e42 	movwhi	r0, #36418	; 0x8e42
 1b8:	00018e02 	andeq	r8, r1, r2, lsl #28
 1bc:	0000000c 	andeq	r0, r0, ip
 1c0:	ffffffff 			; <UNDEFINED> instruction: 0xffffffff
 1c4:	7c020001 	stcvc	0, cr0, [r2], {1}
 1c8:	000d0c0e 	andeq	r0, sp, lr, lsl #24
 1cc:	00000014 	andeq	r0, r0, r4, lsl r0
 1d0:	000001bc 			; <UNDEFINED> instruction: 0x000001bc
 1d4:	00008850 	andeq	r8, r0, r0, asr r8
 1d8:	00000020 	andeq	r0, r0, r0, lsr #32
 1dc:	84080e42 	strhi	r0, [r8], #-3650	; 0xe42
 1e0:	00018e02 	andeq	r8, r1, r2, lsl #28
 1e4:	00000014 	andeq	r0, r0, r4, lsl r0
 1e8:	000001bc 			; <UNDEFINED> instruction: 0x000001bc
 1ec:	00008870 	andeq	r8, r0, r0, ror r8
 1f0:	00000090 	muleq	r0, r0, r0
 1f4:	83080e42 	movwhi	r0, #36418	; 0x8e42
 1f8:	00018e02 	andeq	r8, r1, r2, lsl #28
 1fc:	0000000c 	andeq	r0, r0, ip
 200:	ffffffff 			; <UNDEFINED> instruction: 0xffffffff
 204:	7c020001 	stcvc	0, cr0, [r2], {1}
 208:	000d0c0e 	andeq	r0, sp, lr, lsl #24
 20c:	0000000c 	andeq	r0, r0, ip
 210:	000001fc 	strdeq	r0, [r0], -ip
 214:	00008900 	andeq	r8, r0, r0, lsl #18
 218:	00000018 	andeq	r0, r0, r8, lsl r0
 21c:	0000000c 	andeq	r0, r0, ip
 220:	000001fc 	strdeq	r0, [r0], -ip
 224:	00008918 	andeq	r8, r0, r8, lsl r9
 228:	00000014 	andeq	r0, r0, r4, lsl r0
 22c:	00000014 	andeq	r0, r0, r4, lsl r0
 230:	000001fc 	strdeq	r0, [r0], -ip
 234:	0000892c 	andeq	r8, r0, ip, lsr #18
 238:	00000048 	andeq	r0, r0, r8, asr #32
 23c:	83080e42 	movwhi	r0, #36418	; 0x8e42
 240:	00018e02 	andeq	r8, r1, r2, lsl #28
 244:	0000000c 	andeq	r0, r0, ip
 248:	ffffffff 			; <UNDEFINED> instruction: 0xffffffff
 24c:	7c020001 	stcvc	0, cr0, [r2], {1}
 250:	000d0c0e 	andeq	r0, sp, lr, lsl #24
 254:	0000000c 	andeq	r0, r0, ip
 258:	00000244 	andeq	r0, r0, r4, asr #4
 25c:	00008974 	andeq	r8, r0, r4, ror r9
 260:	0000001c 	andeq	r0, r0, ip, lsl r0
 264:	00000014 	andeq	r0, r0, r4, lsl r0
 268:	00000244 	andeq	r0, r0, r4, asr #4
 26c:	00008990 	muleq	r0, r0, r9
 270:	00000014 	andeq	r0, r0, r4, lsl r0
 274:	83080e42 	movwhi	r0, #36418	; 0x8e42
 278:	00018e02 	andeq	r8, r1, r2, lsl #28
 27c:	00000014 	andeq	r0, r0, r4, lsl r0
 280:	00000244 	andeq	r0, r0, r4, asr #4
 284:	000089a4 	andeq	r8, r0, r4, lsr #19
 288:	0000000c 	andeq	r0, r0, ip
 28c:	83080e42 	movwhi	r0, #36418	; 0x8e42
 290:	00018e02 	andeq	r8, r1, r2, lsl #28
 294:	00000018 	andeq	r0, r0, r8, lsl r0
 298:	00000244 	andeq	r0, r0, r4, asr #4
 29c:	000089b0 			; <UNDEFINED> instruction: 0x000089b0
 2a0:	00000024 	andeq	r0, r0, r4, lsr #32
 2a4:	83100e42 	tsthi	r0, #1056	; 0x420
 2a8:	85038404 	strhi	r8, [r3, #-1028]	; 0x404
 2ac:	00018e02 	andeq	r8, r1, r2, lsl #28
 2b0:	00000014 	andeq	r0, r0, r4, lsl r0
 2b4:	00000244 	andeq	r0, r0, r4, asr #4
 2b8:	000089d4 	ldrdeq	r8, [r0], -r4
 2bc:	00000014 	andeq	r0, r0, r4, lsl r0
 2c0:	83080e42 	movwhi	r0, #36418	; 0x8e42
 2c4:	00018e02 	andeq	r8, r1, r2, lsl #28
 2c8:	00000014 	andeq	r0, r0, r4, lsl r0
 2cc:	00000244 	andeq	r0, r0, r4, asr #4
 2d0:	000089e8 	andeq	r8, r0, r8, ror #19
 2d4:	00000014 	andeq	r0, r0, r4, lsl r0
 2d8:	83080e42 	movwhi	r0, #36418	; 0x8e42
 2dc:	00018e02 	andeq	r8, r1, r2, lsl #28
 2e0:	0000000c 	andeq	r0, r0, ip
 2e4:	ffffffff 			; <UNDEFINED> instruction: 0xffffffff
 2e8:	7c020001 	stcvc	0, cr0, [r2], {1}
 2ec:	000d0c0e 	andeq	r0, sp, lr, lsl #24
 2f0:	00000018 	andeq	r0, r0, r8, lsl r0
 2f4:	000002e0 	andeq	r0, r0, r0, ror #5
 2f8:	000089fc 	strdeq	r8, [r0], -ip
 2fc:	000000d4 	ldrdeq	r0, [r0], -r4
 300:	83100e42 	tsthi	r0, #1056	; 0x420
 304:	85038404 	strhi	r8, [r3, #-1028]	; 0x404
 308:	00018e02 	andeq	r8, r1, r2, lsl #28
 30c:	00000014 	andeq	r0, r0, r4, lsl r0
 310:	000002e0 	andeq	r0, r0, r0, ror #5
 314:	00008ad0 	ldrdeq	r8, [r0], -r0
 318:	00000038 	andeq	r0, r0, r8, lsr r0
 31c:	83080e42 	movwhi	r0, #36418	; 0x8e42
 320:	00018e02 	andeq	r8, r1, r2, lsl #28
 324:	00000014 	andeq	r0, r0, r4, lsl r0
 328:	000002e0 	andeq	r0, r0, r0, ror #5
 32c:	00008b08 	andeq	r8, r0, r8, lsl #22
 330:	00000038 	andeq	r0, r0, r8, lsr r0
 334:	83080e42 	movwhi	r0, #36418	; 0x8e42
 338:	00018e02 	andeq	r8, r1, r2, lsl #28
 33c:	00000018 	andeq	r0, r0, r8, lsl r0
 340:	000002e0 	andeq	r0, r0, r0, ror #5
 344:	00008b40 	andeq	r8, r0, r0, asr #22
 348:	000000cc 	andeq	r0, r0, ip, asr #1
 34c:	83100e42 	tsthi	r0, #1056	; 0x420
 350:	85038404 	strhi	r8, [r3, #-1028]	; 0x404
 354:	00018e02 	andeq	r8, r1, r2, lsl #28
 358:	00000014 	andeq	r0, r0, r4, lsl r0
 35c:	000002e0 	andeq	r0, r0, r0, ror #5
 360:	00008c0c 	andeq	r8, r0, ip, lsl #24
 364:	0000004c 	andeq	r0, r0, ip, asr #32
 368:	84080e42 	strhi	r0, [r8], #-3650	; 0xe42
 36c:	00018e02 	andeq	r8, r1, r2, lsl #28
 370:	00000014 	andeq	r0, r0, r4, lsl r0
 374:	000002e0 	andeq	r0, r0, r0, ror #5
 378:	00008c58 	andeq	r8, r0, r8, asr ip
 37c:	00000024 	andeq	r0, r0, r4, lsr #32
 380:	83080e42 	movwhi	r0, #36418	; 0x8e42
 384:	00018e02 	andeq	r8, r1, r2, lsl #28
 388:	00000018 	andeq	r0, r0, r8, lsl r0
 38c:	000002e0 	andeq	r0, r0, r0, ror #5
 390:	00008c7c 	andeq	r8, r0, ip, ror ip
 394:	000000d8 	ldrdeq	r0, [r0], -r8
 398:	84100e42 	ldrhi	r0, [r0], #-3650	; 0xe42
 39c:	86038504 	strhi	r8, [r3], -r4, lsl #10
 3a0:	00018e02 	andeq	r8, r1, r2, lsl #28
 3a4:	00000014 	andeq	r0, r0, r4, lsl r0
 3a8:	000002e0 	andeq	r0, r0, r0, ror #5
 3ac:	00008d54 	andeq	r8, r0, r4, asr sp
 3b0:	00000038 	andeq	r0, r0, r8, lsr r0
 3b4:	83080e42 	movwhi	r0, #36418	; 0x8e42
 3b8:	00018e02 	andeq	r8, r1, r2, lsl #28
 3bc:	00000014 	andeq	r0, r0, r4, lsl r0
 3c0:	000002e0 	andeq	r0, r0, r0, ror #5
 3c4:	00008d8c 	andeq	r8, r0, ip, lsl #27
 3c8:	0000002c 	andeq	r0, r0, ip, lsr #32
 3cc:	83080e42 	movwhi	r0, #36418	; 0x8e42
 3d0:	00018e02 	andeq	r8, r1, r2, lsl #28
 3d4:	00000018 	andeq	r0, r0, r8, lsl r0
 3d8:	000002e0 	andeq	r0, r0, r0, ror #5
 3dc:	00008db8 			; <UNDEFINED> instruction: 0x00008db8
 3e0:	00000084 	andeq	r0, r0, r4, lsl #1
 3e4:	83100e42 	tsthi	r0, #1056	; 0x420
 3e8:	85038404 	strhi	r8, [r3, #-1028]	; 0x404
 3ec:	00018e02 	andeq	r8, r1, r2, lsl #28
 3f0:	00000018 	andeq	r0, r0, r8, lsl r0
 3f4:	000002e0 	andeq	r0, r0, r0, ror #5
 3f8:	00008e3c 	andeq	r8, r0, ip, lsr lr
 3fc:	00000084 	andeq	r0, r0, r4, lsl #1
 400:	83100e42 	tsthi	r0, #1056	; 0x420
 404:	85038404 	strhi	r8, [r3, #-1028]	; 0x404
 408:	00018e02 	andeq	r8, r1, r2, lsl #28
 40c:	00000014 	andeq	r0, r0, r4, lsl r0
 410:	000002e0 	andeq	r0, r0, r0, ror #5
 414:	00008ec0 	andeq	r8, r0, r0, asr #29
 418:	00000084 	andeq	r0, r0, r4, lsl #1
 41c:	84080e42 	strhi	r0, [r8], #-3650	; 0xe42
 420:	00018e02 	andeq	r8, r1, r2, lsl #28
 424:	00000014 	andeq	r0, r0, r4, lsl r0
 428:	000002e0 	andeq	r0, r0, r0, ror #5
 42c:	00008f44 	andeq	r8, r0, r4, asr #30
 430:	00000058 	andeq	r0, r0, r8, asr r0
 434:	84080e42 	strhi	r0, [r8], #-3650	; 0xe42
 438:	00018e02 	andeq	r8, r1, r2, lsl #28
 43c:	0000000c 	andeq	r0, r0, ip
 440:	ffffffff 			; <UNDEFINED> instruction: 0xffffffff
 444:	7c020001 	stcvc	0, cr0, [r2], {1}
 448:	000d0c0e 	andeq	r0, sp, lr, lsl #24
 44c:	0000001c 	andeq	r0, r0, ip, lsl r0
 450:	0000043c 	andeq	r0, r0, ip, lsr r4
 454:	00008f9c 	muleq	r0, ip, pc	; <UNPREDICTABLE>
 458:	00000154 	andeq	r0, r0, r4, asr r1
 45c:	84180e42 	ldrhi	r0, [r8], #-3650	; 0xe42
 460:	86058506 	strhi	r8, [r5], -r6, lsl #10
 464:	88038704 	stmdahi	r3, {r2, r8, r9, sl, pc}
 468:	00018e02 	andeq	r8, r1, r2, lsl #28
 46c:	00000020 	andeq	r0, r0, r0, lsr #32
 470:	0000043c 	andeq	r0, r0, ip, lsr r4
 474:	000090f0 	strdeq	r9, [r0], -r0
 478:	000001c8 	andeq	r0, r0, r8, asr #3
 47c:	83200e42 	teqhi	r0, #1056	; 0x420
 480:	85078408 	strhi	r8, [r7, #-1032]	; 0x408
 484:	87058606 	strhi	r8, [r5, -r6, lsl #12]
 488:	89038804 	stmdbhi	r3, {r2, fp, pc}
 48c:	00018e02 	andeq	r8, r1, r2, lsl #28
 490:	00000024 	andeq	r0, r0, r4, lsr #32
 494:	0000043c 	andeq	r0, r0, ip, lsr r4
 498:	000092b8 			; <UNDEFINED> instruction: 0x000092b8
 49c:	000000a4 	andeq	r0, r0, r4, lsr #1
 4a0:	84200e42 	strthi	r0, [r0], #-3650	; 0xe42
 4a4:	86078508 	strhi	r8, [r7], -r8, lsl #10
 4a8:	88058706 	stmdahi	r5, {r1, r2, r8, r9, sl, pc}
 4ac:	8a038904 	bhi	e28c4 <__bss_end__+0xd8884>
 4b0:	42018e02 	andmi	r8, r1, #2, 28
 4b4:	0000280e 	andeq	r2, r0, lr, lsl #16
 4b8:	00000020 	andeq	r0, r0, r0, lsr #32
 4bc:	0000043c 	andeq	r0, r0, ip, lsr r4
 4c0:	0000935c 	andeq	r9, r0, ip, asr r3
 4c4:	00000090 	muleq	r0, r0, r0
 4c8:	84180e42 	ldrhi	r0, [r8], #-3650	; 0xe42
 4cc:	86058506 	strhi	r8, [r5], -r6, lsl #10
 4d0:	88038704 	stmdahi	r3, {r2, r8, r9, sl, pc}
 4d4:	42018e02 	andmi	r8, r1, #2, 28
 4d8:	0000200e 	andeq	r2, r0, lr
 4dc:	00000020 	andeq	r0, r0, r0, lsr #32
 4e0:	0000043c 	andeq	r0, r0, ip, lsr r4
 4e4:	000093ec 	andeq	r9, r0, ip, ror #7
 4e8:	000000d4 	ldrdeq	r0, [r0], -r4
 4ec:	84180e42 	ldrhi	r0, [r8], #-3650	; 0xe42
 4f0:	86058506 	strhi	r8, [r5], -r6, lsl #10
 4f4:	88038704 	stmdahi	r3, {r2, r8, r9, sl, pc}
 4f8:	42018e02 	andmi	r8, r1, #2, 28
 4fc:	0000200e 	andeq	r2, r0, lr
 500:	00000014 	andeq	r0, r0, r4, lsl r0
 504:	0000043c 	andeq	r0, r0, ip, lsr r4
 508:	000094c0 	andeq	r9, r0, r0, asr #9
 50c:	0000003c 	andeq	r0, r0, ip, lsr r0
 510:	83080e42 	movwhi	r0, #36418	; 0x8e42
 514:	00018e02 	andeq	r8, r1, r2, lsl #28
 518:	00000018 	andeq	r0, r0, r8, lsl r0
 51c:	0000043c 	andeq	r0, r0, ip, lsr r4
 520:	000094fc 	strdeq	r9, [r0], -ip
 524:	0000002c 	andeq	r0, r0, ip, lsr #32
 528:	83100e42 	tsthi	r0, #1056	; 0x420
 52c:	85038404 	strhi	r8, [r3, #-1028]	; 0x404
 530:	00018e02 	andeq	r8, r1, r2, lsl #28
 534:	00000024 	andeq	r0, r0, r4, lsr #32
 538:	0000043c 	andeq	r0, r0, ip, lsr r4
 53c:	00009528 	andeq	r9, r0, r8, lsr #10
 540:	00000090 	muleq	r0, r0, r0
 544:	810c0e42 	tsthi	ip, r2, asr #28
 548:	83028203 	movwhi	r8, #8707	; 0x2203
 54c:	180e4201 	stmdane	lr, {r0, r9, lr}
 550:	05850684 	streq	r0, [r5, #1668]	; 0x684
 554:	0e42048e 	cdpeq	4, 4, cr0, cr2, cr14, {4}
 558:	000003f0 	strdeq	r0, [r0], -r0	; <UNPREDICTABLE>
 55c:	00000014 	andeq	r0, r0, r4, lsl r0
 560:	0000043c 	andeq	r0, r0, ip, lsr r4
 564:	000095b8 			; <UNDEFINED> instruction: 0x000095b8
 568:	0000004c 	andeq	r0, r0, ip, asr #32
 56c:	8e040e42 	cdphi	14, 0, cr0, cr4, cr2, {2}
 570:	100e4201 	andne	r4, lr, r1, lsl #4
 574:	0000000c 	andeq	r0, r0, ip
 578:	ffffffff 			; <UNDEFINED> instruction: 0xffffffff
 57c:	7c020001 	stcvc	0, cr0, [r2], {1}
 580:	000d0c0e 	andeq	r0, sp, lr, lsl #24
 584:	00000018 	andeq	r0, r0, r8, lsl r0
 588:	00000574 	andeq	r0, r0, r4, ror r5
 58c:	00009604 	andeq	r9, r0, r4, lsl #12
 590:	0000009c 	muleq	r0, ip, r0
 594:	83100e42 	tsthi	r0, #1056	; 0x420
 598:	85038404 	strhi	r8, [r3, #-1028]	; 0x404
 59c:	00018e02 	andeq	r8, r1, r2, lsl #28
 5a0:	00000014 	andeq	r0, r0, r4, lsl r0
 5a4:	00000574 	andeq	r0, r0, r4, ror r5
 5a8:	000096a0 	andeq	r9, r0, r0, lsr #13
 5ac:	0000001c 	andeq	r0, r0, ip, lsl r0
 5b0:	83080e42 	movwhi	r0, #36418	; 0x8e42
 5b4:	00018e02 	andeq	r8, r1, r2, lsl #28
 5b8:	00000014 	andeq	r0, r0, r4, lsl r0
 5bc:	00000574 	andeq	r0, r0, r4, ror r5
 5c0:	000096bc 			; <UNDEFINED> instruction: 0x000096bc
 5c4:	00000028 	andeq	r0, r0, r8, lsr #32
 5c8:	83080e42 	movwhi	r0, #36418	; 0x8e42
 5cc:	00018e02 	andeq	r8, r1, r2, lsl #28
 5d0:	00000014 	andeq	r0, r0, r4, lsl r0
 5d4:	00000574 	andeq	r0, r0, r4, ror r5
 5d8:	000096e4 	andeq	r9, r0, r4, ror #13
 5dc:	0000001c 	andeq	r0, r0, ip, lsl r0
 5e0:	83080e42 	movwhi	r0, #36418	; 0x8e42
 5e4:	00018e02 	andeq	r8, r1, r2, lsl #28
 5e8:	00000014 	andeq	r0, r0, r4, lsl r0
 5ec:	00000574 	andeq	r0, r0, r4, ror r5
 5f0:	00009700 	andeq	r9, r0, r0, lsl #14
 5f4:	0000002c 	andeq	r0, r0, ip, lsr #32
 5f8:	84080e42 	strhi	r0, [r8], #-3650	; 0xe42
 5fc:	00018e02 	andeq	r8, r1, r2, lsl #28
 600:	00000014 	andeq	r0, r0, r4, lsl r0
 604:	00000574 	andeq	r0, r0, r4, ror r5
 608:	0000972c 	andeq	r9, r0, ip, lsr #14
 60c:	0000000c 	andeq	r0, r0, ip
 610:	83080e42 	movwhi	r0, #36418	; 0x8e42
 614:	00018e02 	andeq	r8, r1, r2, lsl #28
 618:	00000014 	andeq	r0, r0, r4, lsl r0
 61c:	00000574 	andeq	r0, r0, r4, ror r5
 620:	00009738 	andeq	r9, r0, r8, lsr r7
 624:	00000020 	andeq	r0, r0, r0, lsr #32
 628:	83080e42 	movwhi	r0, #36418	; 0x8e42
 62c:	00018e02 	andeq	r8, r1, r2, lsl #28
 630:	0000000c 	andeq	r0, r0, ip
 634:	ffffffff 			; <UNDEFINED> instruction: 0xffffffff
 638:	7c020001 	stcvc	0, cr0, [r2], {1}
 63c:	000d0c0e 	andeq	r0, sp, lr, lsl #24
 640:	00000014 	andeq	r0, r0, r4, lsl r0
 644:	00000630 	andeq	r0, r0, r0, lsr r6
 648:	000097bc 			; <UNDEFINED> instruction: 0x000097bc
 64c:	00000014 	andeq	r0, r0, r4, lsl r0
 650:	84080e42 	strhi	r0, [r8], #-3650	; 0xe42
 654:	00018e02 	andeq	r8, r1, r2, lsl #28
 658:	0000000c 	andeq	r0, r0, ip
 65c:	00000630 	andeq	r0, r0, r0, lsr r6
 660:	000097d0 	ldrdeq	r9, [r0], -r0
 664:	00000018 	andeq	r0, r0, r8, lsl r0
 668:	0000000c 	andeq	r0, r0, ip
 66c:	00000630 	andeq	r0, r0, r0, lsr r6
 670:	000097e8 	andeq	r9, r0, r8, ror #15
 674:	00000010 	andeq	r0, r0, r0, lsl r0
 678:	0000000c 	andeq	r0, r0, ip
 67c:	ffffffff 			; <UNDEFINED> instruction: 0xffffffff
 680:	7c020001 	stcvc	0, cr0, [r2], {1}
 684:	000d0c0e 	andeq	r0, sp, lr, lsl #24
 688:	00000014 	andeq	r0, r0, r4, lsl r0
 68c:	00000678 	andeq	r0, r0, r8, ror r6
 690:	000097f8 	strdeq	r9, [r0], -r8
 694:	00000028 	andeq	r0, r0, r8, lsr #32
 698:	83080e42 	movwhi	r0, #36418	; 0x8e42
 69c:	00018e02 	andeq	r8, r1, r2, lsl #28
 6a0:	0000000c 	andeq	r0, r0, ip
 6a4:	00000678 	andeq	r0, r0, r8, ror r6
 6a8:	00009820 	andeq	r9, r0, r0, lsr #16
 6ac:	00000028 	andeq	r0, r0, r8, lsr #32
 6b0:	0000000c 	andeq	r0, r0, ip
 6b4:	ffffffff 			; <UNDEFINED> instruction: 0xffffffff
 6b8:	7c020001 	stcvc	0, cr0, [r2], {1}
 6bc:	000d0c0e 	andeq	r0, sp, lr, lsl #24
 6c0:	0000000c 	andeq	r0, r0, ip
 6c4:	000006b0 			; <UNDEFINED> instruction: 0x000006b0
 6c8:	00009848 	andeq	r9, r0, r8, asr #16
 6cc:	00000020 	andeq	r0, r0, r0, lsr #32

Disassembly of section .debug_loc:

00000000 <.debug_loc>:
       0:	00000000 	andeq	r0, r0, r0
       4:	00000010 	andeq	r0, r0, r0, lsl r0
       8:	10500001 	subsne	r0, r0, r1
       c:	44000000 	strmi	r0, [r0], #-0
      10:	01000000 	mrseq	r0, (UNDEF: 0)
      14:	00445500 	subeq	r5, r4, r0, lsl #10
      18:	00b40000 	adcseq	r0, r4, r0
      1c:	00040000 	andeq	r0, r4, r0
      20:	9f5001f3 	svcls	0x005001f3
	...
      2c:	0000001c 	andeq	r0, r0, ip, lsl r0
      30:	00000053 	andeq	r0, r0, r3, asr r0
      34:	58520001 	ldmdapl	r2, {r0}^
      38:	77000000 	strvc	r0, [r0, -r0]
      3c:	01000000 	mrseq	r0, (UNDEF: 0)
      40:	007c5200 	rsbseq	r5, ip, r0, lsl #4
      44:	00970000 	addseq	r0, r7, r0
      48:	00010000 	andeq	r0, r1, r0
      4c:	00009c52 	andeq	r9, r0, r2, asr ip
      50:	0000b400 	andeq	fp, r0, r0, lsl #8
      54:	52000100 	andpl	r0, r0, #0, 2
	...
      60:	0000002c 	andeq	r0, r0, ip, lsr #32
      64:	00000038 	andeq	r0, r0, r8, lsr r0
      68:	9f300002 	svcls	0x00300002
      6c:	00000038 	andeq	r0, r0, r8, lsr r0
      70:	00000038 	andeq	r0, r0, r8, lsr r0
      74:	38540001 	ldmdacc	r4, {r0}^
      78:	40000000 	andmi	r0, r0, r0
      7c:	02000000 	andeq	r0, r0, #0
      80:	409f3000 	addsmi	r3, pc, r0
      84:	b4000000 	strlt	r0, [r0], #-0
      88:	01000000 	mrseq	r0, (UNDEF: 0)
      8c:	00005400 	andeq	r5, r0, r0, lsl #8
      90:	00000000 	andeq	r0, r0, r0
      94:	001c0000 	andseq	r0, ip, r0
      98:	00530000 	subseq	r0, r3, r0
      9c:	00010000 	andeq	r0, r1, r0
      a0:	00000052 	andeq	r0, r0, r2, asr r0
      a4:	00000000 	andeq	r0, r0, r0
      a8:	00002000 	andeq	r2, r0, r0
      ac:	00002400 	andeq	r2, r0, r0, lsl #8
      b0:	53000100 	movwpl	r0, #256	; 0x100
	...
      bc:	00000058 	andeq	r0, r0, r8, asr r0
      c0:	00000077 	andeq	r0, r0, r7, ror r0
      c4:	00520001 	subseq	r0, r2, r1
      c8:	00000000 	andeq	r0, r0, r0
      cc:	5c000000 	stcpl	0, cr0, [r0], {-0}
      d0:	60000000 	andvs	r0, r0, r0
      d4:	01000000 	mrseq	r0, (UNDEF: 0)
      d8:	00005300 	andeq	r5, r0, r0, lsl #6
      dc:	00000000 	andeq	r0, r0, r0
      e0:	007c0000 	rsbseq	r0, ip, r0
      e4:	00970000 	addseq	r0, r7, r0
      e8:	00010000 	andeq	r0, r1, r0
      ec:	00000052 	andeq	r0, r0, r2, asr r0
      f0:	00000000 	andeq	r0, r0, r0
      f4:	00008000 	andeq	r8, r0, r0
      f8:	00008400 	andeq	r8, r0, r0, lsl #8
      fc:	53000100 	movwpl	r0, #256	; 0x100
	...
     108:	000000a0 	andeq	r0, r0, r0, lsr #1
     10c:	000000a4 	andeq	r0, r0, r4, lsr #1
     110:	00530001 	subseq	r0, r3, r1
     114:	00000000 	andeq	r0, r0, r0
     118:	b4000000 	strlt	r0, [r0], #-0
     11c:	c4000000 	strgt	r0, [r0], #-0
     120:	01000000 	mrseq	r0, (UNDEF: 0)
     124:	00c45000 	sbceq	r5, r4, r0
     128:	00f80000 	rscseq	r0, r8, r0
     12c:	00010000 	andeq	r0, r1, r0
     130:	0000f855 	andeq	pc, r0, r5, asr r8	; <UNPREDICTABLE>
     134:	00016800 	andeq	r6, r1, r0, lsl #16
     138:	f3000400 	vshl.u8	d0, d0, d0
     13c:	009f5001 	addseq	r5, pc, r1
     140:	00000000 	andeq	r0, r0, r0
     144:	d0000000 	andle	r0, r0, r0
     148:	07000000 	streq	r0, [r0, -r0]
     14c:	01000001 	tsteq	r0, r1
     150:	010c5200 	mrseq	r5, R12_fiq
     154:	012b0000 	teqeq	fp, r0
     158:	00010000 	andeq	r0, r1, r0
     15c:	00013052 	andeq	r3, r1, r2, asr r0
     160:	00014b00 	andeq	r4, r1, r0, lsl #22
     164:	52000100 	andpl	r0, r0, #0, 2
     168:	00000150 	andeq	r0, r0, r0, asr r1
     16c:	00000168 	andeq	r0, r0, r8, ror #2
     170:	00520001 	subseq	r0, r2, r1
     174:	00000000 	andeq	r0, r0, r0
     178:	e0000000 	and	r0, r0, r0
     17c:	ec000000 	stc	0, cr0, [r0], {-0}
     180:	02000000 	andeq	r0, r0, #0
     184:	ec9f3000 	ldc	0, cr3, [pc], {0}
     188:	ec000000 	stc	0, cr0, [r0], {-0}
     18c:	01000000 	mrseq	r0, (UNDEF: 0)
     190:	00ec5400 	rsceq	r5, ip, r0, lsl #8
     194:	00f40000 	rscseq	r0, r4, r0
     198:	00020000 	andeq	r0, r2, r0
     19c:	00f49f30 	rscseq	r9, r4, r0, lsr pc
     1a0:	01680000 	cmneq	r8, r0
     1a4:	00010000 	andeq	r0, r1, r0
     1a8:	00000054 	andeq	r0, r0, r4, asr r0
     1ac:	00000000 	andeq	r0, r0, r0
     1b0:	0000d000 	andeq	sp, r0, r0
     1b4:	00010700 	andeq	r0, r1, r0, lsl #14
     1b8:	52000100 	andpl	r0, r0, #0, 2
	...
     1c4:	000000d4 	ldrdeq	r0, [r0], -r4
     1c8:	000000d8 	ldrdeq	r0, [r0], -r8
     1cc:	00530001 	subseq	r0, r3, r1
     1d0:	00000000 	andeq	r0, r0, r0
     1d4:	0c000000 	stceq	0, cr0, [r0], {-0}
     1d8:	2b000001 	blcs	1e4 <_start-0x7e1c>
     1dc:	01000001 	tsteq	r0, r1
     1e0:	00005200 	andeq	r5, r0, r0, lsl #4
     1e4:	00000000 	andeq	r0, r0, r0
     1e8:	01100000 	tsteq	r0, r0
     1ec:	01140000 	tsteq	r4, r0
     1f0:	00010000 	andeq	r0, r1, r0
     1f4:	00000053 	andeq	r0, r0, r3, asr r0
     1f8:	00000000 	andeq	r0, r0, r0
     1fc:	00013000 	andeq	r3, r1, r0
     200:	00014b00 	andeq	r4, r1, r0, lsl #22
     204:	52000100 	andpl	r0, r0, #0, 2
	...
     210:	00000134 	andeq	r0, r0, r4, lsr r1
     214:	00000138 	andeq	r0, r0, r8, lsr r1
     218:	00530001 	subseq	r0, r3, r1
     21c:	00000000 	andeq	r0, r0, r0
     220:	54000000 	strpl	r0, [r0], #-0
     224:	58000001 	stmdapl	r0, {r0}
     228:	01000001 	tsteq	r0, r1
     22c:	00005300 	andeq	r5, r0, r0, lsl #6
     230:	00000000 	andeq	r0, r0, r0
     234:	01680000 	cmneq	r8, r0
     238:	01780000 	cmneq	r8, r0
     23c:	00010000 	andeq	r0, r1, r0
     240:	00017850 	andeq	r7, r1, r0, asr r8
     244:	0001a000 	andeq	sl, r1, r0
     248:	54000100 	strpl	r0, [r0], #-256	; 0x100
     24c:	000001a0 	andeq	r0, r0, r0, lsr #3
     250:	000001a0 	andeq	r0, r0, r0, lsr #3
     254:	01f30004 	mvnseq	r0, r4
     258:	01a09f50 	asreq	r9, r0, pc
     25c:	01a80000 			; <UNDEFINED> instruction: 0x01a80000
     260:	00010000 	andeq	r0, r1, r0
     264:	0001a854 	andeq	sl, r1, r4, asr r8
     268:	00021400 	andeq	r1, r2, r0, lsl #8
     26c:	f3000400 	vshl.u8	d0, d0, d0
     270:	009f5001 	addseq	r5, pc, r1
     274:	00000000 	andeq	r0, r0, r0
     278:	84000000 	strhi	r0, [r0], #-0
     27c:	b3000001 	movwlt	r0, #1
     280:	01000001 	tsteq	r0, r1
     284:	01b85200 			; <UNDEFINED> instruction: 0x01b85200
     288:	01d70000 	bicseq	r0, r7, r0
     28c:	00010000 	andeq	r0, r1, r0
     290:	0001dc52 	andeq	sp, r1, r2, asr ip
     294:	0001f700 	andeq	pc, r1, r0, lsl #14
     298:	52000100 	andpl	r0, r0, #0, 2
     29c:	000001fc 	strdeq	r0, [r0], -ip
     2a0:	00000214 	andeq	r0, r0, r4, lsl r2
     2a4:	00520001 	subseq	r0, r2, r1
     2a8:	00000000 	andeq	r0, r0, r0
     2ac:	94000000 	strls	r0, [r0], #-0
     2b0:	a0000001 	andge	r0, r0, r1
     2b4:	02000001 	andeq	r0, r0, #1
     2b8:	a09f3000 	addsge	r3, pc, r0
     2bc:	a0000001 	andge	r0, r0, r1
     2c0:	01000001 	tsteq	r0, r1
     2c4:	01a05400 	lsleq	r5, r0, #8
     2c8:	01a80000 			; <UNDEFINED> instruction: 0x01a80000
     2cc:	00020000 	andeq	r0, r2, r0
     2d0:	01a89f30 			; <UNDEFINED> instruction: 0x01a89f30
     2d4:	02140000 	andseq	r0, r4, #0
     2d8:	00010000 	andeq	r0, r1, r0
     2dc:	00000054 	andeq	r0, r0, r4, asr r0
     2e0:	00000000 	andeq	r0, r0, r0
     2e4:	00018400 	andeq	r8, r1, r0, lsl #8
     2e8:	0001b300 	andeq	fp, r1, r0, lsl #6
     2ec:	52000100 	andpl	r0, r0, #0, 2
	...
     2f8:	00000188 	andeq	r0, r0, r8, lsl #3
     2fc:	0000018c 	andeq	r0, r0, ip, lsl #3
     300:	00530001 	subseq	r0, r3, r1
     304:	00000000 	andeq	r0, r0, r0
     308:	b8000000 	stmdalt	r0, {}	; <UNPREDICTABLE>
     30c:	d7000001 	strle	r0, [r0, -r1]
     310:	01000001 	tsteq	r0, r1
     314:	00005200 	andeq	r5, r0, r0, lsl #4
     318:	00000000 	andeq	r0, r0, r0
     31c:	01bc0000 			; <UNDEFINED> instruction: 0x01bc0000
     320:	01c00000 	biceq	r0, r0, r0
     324:	00010000 	andeq	r0, r1, r0
     328:	00000053 	andeq	r0, r0, r3, asr r0
     32c:	00000000 	andeq	r0, r0, r0
     330:	0001dc00 	andeq	sp, r1, r0, lsl #24
     334:	0001f700 	andeq	pc, r1, r0, lsl #14
     338:	52000100 	andpl	r0, r0, #0, 2
	...
     344:	000001e0 	andeq	r0, r0, r0, ror #3
     348:	000001e4 	andeq	r0, r0, r4, ror #3
     34c:	00530001 	subseq	r0, r3, r1
	...
     358:	04000002 	streq	r0, [r0], #-2
     35c:	01000002 	tsteq	r0, r2
     360:	00005300 	andeq	r5, r0, r0, lsl #6
     364:	00000000 	andeq	r0, r0, r0
     368:	002c0000 	eoreq	r0, ip, r0
     36c:	00380000 	eorseq	r0, r8, r0
     370:	00010000 	andeq	r0, r1, r0
     374:	00003850 	andeq	r3, r0, r0, asr r8
     378:	00004800 	andeq	r4, r0, r0, lsl #16
     37c:	55000100 	strpl	r0, [r0, #-256]	; 0x100
     380:	00000048 	andeq	r0, r0, r8, asr #32
     384:	00000058 	andeq	r0, r0, r8, asr r0
     388:	00500001 	subseq	r0, r0, r1
	...
     394:	10000000 	andne	r0, r0, r0
     398:	01000000 	mrseq	r0, (UNDEF: 0)
     39c:	00105000 	andseq	r5, r0, r0
     3a0:	00340000 	eorseq	r0, r4, r0
     3a4:	00010000 	andeq	r0, r1, r0
     3a8:	00000054 	andeq	r0, r0, r4, asr r0
	...
     3b4:	00000400 	andeq	r0, r0, r0, lsl #8
     3b8:	50000100 	andpl	r0, r0, r0, lsl #2
     3bc:	00000004 	andeq	r0, r0, r4
     3c0:	0000000c 	andeq	r0, r0, ip
     3c4:	30700003 	rsbscc	r0, r0, r3
     3c8:	00000c9f 	muleq	r0, pc, ip	; <UNPREDICTABLE>
     3cc:	00001400 	andeq	r1, r0, r0, lsl #8
     3d0:	f3000400 	vshl.u8	d0, d0, d0
     3d4:	009f5001 	addseq	r5, pc, r1
     3d8:	00000000 	andeq	r0, r0, r0
     3dc:	14000000 	strne	r0, [r0], #-0
     3e0:	20000000 	andcs	r0, r0, r0
     3e4:	01000000 	mrseq	r0, (UNDEF: 0)
     3e8:	00205000 	eoreq	r5, r0, r0
     3ec:	002c0000 	eoreq	r0, ip, r0
     3f0:	00030000 	andeq	r0, r3, r0
     3f4:	2c9f0170 	ldfcss	f0, [pc], {112}	; 0x70
     3f8:	40000000 	andmi	r0, r0, r0
     3fc:	01000000 	mrseq	r0, (UNDEF: 0)
     400:	00005000 	andeq	r5, r0, r0
     404:	00000000 	andeq	r0, r0, r0
     408:	00140000 	andseq	r0, r4, r0
     40c:	00180000 	andseq	r0, r8, r0
     410:	00010000 	andeq	r0, r1, r0
     414:	00001851 	andeq	r1, r0, r1, asr r8
     418:	00004000 	andeq	r4, r0, r0
     41c:	f3000400 	vshl.u8	d0, d0, d0
     420:	009f5101 	addseq	r5, pc, r1, lsl #2
     424:	00000000 	andeq	r0, r0, r0
     428:	40000000 	andmi	r0, r0, r0
     42c:	60000000 	andvs	r0, r0, r0
     430:	01000000 	mrseq	r0, (UNDEF: 0)
     434:	00605000 	rsbeq	r5, r0, r0
     438:	006c0000 	rsbeq	r0, ip, r0
     43c:	00030000 	andeq	r0, r3, r0
     440:	6c9f0171 	ldfvss	f0, [pc], {113}	; 0x71
     444:	74000000 	strvc	r0, [r0], #-0
     448:	01000000 	mrseq	r0, (UNDEF: 0)
     44c:	00745100 	rsbseq	r5, r4, r0, lsl #2
     450:	00800000 	addeq	r0, r0, r0
     454:	00030000 	andeq	r0, r3, r0
     458:	009f0171 	addseq	r0, pc, r1, ror r1	; <UNPREDICTABLE>
     45c:	00000000 	andeq	r0, r0, r0
     460:	40000000 	andmi	r0, r0, r0
     464:	50000000 	andpl	r0, r0, r0
     468:	01000000 	mrseq	r0, (UNDEF: 0)
     46c:	00505100 	subseq	r5, r0, r0, lsl #2
     470:	00800000 	addeq	r0, r0, r0
     474:	00040000 	andeq	r0, r4, r0
     478:	9f5101f3 	svcls	0x005101f3
	...
     484:	00000040 	andeq	r0, r0, r0, asr #32
     488:	00000058 	andeq	r0, r0, r8, asr r0
     48c:	58520001 	ldmdapl	r2, {r0}^
     490:	64000000 	strvs	r0, [r0], #-0
     494:	01000000 	mrseq	r0, (UNDEF: 0)
     498:	00645200 	rsbeq	r5, r4, r0, lsl #4
     49c:	00680000 	rsbeq	r0, r8, r0
     4a0:	00030000 	andeq	r0, r3, r0
     4a4:	689f0172 	ldmvs	pc, {r1, r4, r5, r6, r8}	; <UNPREDICTABLE>
     4a8:	80000000 	andhi	r0, r0, r0
     4ac:	01000000 	mrseq	r0, (UNDEF: 0)
     4b0:	00005200 	andeq	r5, r0, r0, lsl #4
     4b4:	00000000 	andeq	r0, r0, r0
     4b8:	00400000 	subeq	r0, r0, r0
     4bc:	00540000 	subseq	r0, r4, r0
     4c0:	00010000 	andeq	r0, r1, r0
     4c4:	00005453 	andeq	r5, r0, r3, asr r4
     4c8:	00007800 	andeq	r7, r0, r0, lsl #16
     4cc:	53000100 	movwpl	r0, #256	; 0x100
	...
     4d8:	00000048 	andeq	r0, r0, r8, asr #32
     4dc:	00000060 	andeq	r0, r0, r0, rrx
     4e0:	605c0001 	subsvs	r0, ip, r1
     4e4:	80000000 	andhi	r0, r0, r0
     4e8:	0a000000 	beq	4f0 <_start-0x7b10>
     4ec:	5201f300 	andpl	pc, r1, #0, 6
     4f0:	1c5301f3 	ldfnee	f0, [r3], {243}	; 0xf3
     4f4:	009f0123 	addseq	r0, pc, r3, lsr #2
     4f8:	00000000 	andeq	r0, r0, r0
     4fc:	80000000 	andhi	r0, r0, r0
     500:	a4000000 	strge	r0, [r0], #-0
     504:	01000000 	mrseq	r0, (UNDEF: 0)
     508:	00a45000 	adceq	r5, r4, r0
     50c:	01180000 	tsteq	r8, r0
     510:	00030000 	andeq	r0, r3, r0
     514:	189f0270 	ldmne	pc, {r4, r5, r6, r9}	; <UNPREDICTABLE>
     518:	28000001 	stmdacs	r0, {r0}
     51c:	04000002 	streq	r0, [r0], #-2
     520:	5001f300 	andpl	pc, r1, r0, lsl #6
     524:	0000009f 	muleq	r0, pc, r0	; <UNPREDICTABLE>
     528:	00000000 	andeq	r0, r0, r0
     52c:	00008000 	andeq	r8, r0, r0
     530:	0000f000 	andeq	pc, r0, r0
     534:	51000100 	mrspl	r0, (UNDEF: 16)
     538:	000000f0 	strdeq	r0, [r0], -r0	; <UNPREDICTABLE>
     53c:	00000160 	andeq	r0, r0, r0, ror #2
     540:	60550001 	subsvs	r0, r5, r1
     544:	68000001 	stmdavs	r0, {r0}
     548:	01000001 	tsteq	r0, r1
     54c:	01685100 	cmneq	r8, r0, lsl #2
     550:	01880000 	orreq	r0, r8, r0
     554:	00010000 	andeq	r0, r1, r0
     558:	00018855 	andeq	r8, r1, r5, asr r8
     55c:	00019c00 	andeq	r9, r1, r0, lsl #24
     560:	51000100 	mrspl	r0, (UNDEF: 16)
     564:	0000019c 	muleq	r0, ip, r1
     568:	000001bc 			; <UNDEFINED> instruction: 0x000001bc
     56c:	bc550001 	mrrclt	0, 0, r0, r5, cr1
     570:	bf000001 	svclt	0x00000001
     574:	01000001 	tsteq	r0, r1
     578:	01bf5100 			; <UNDEFINED> instruction: 0x01bf5100
     57c:	02080000 	andeq	r0, r8, #0
     580:	00010000 	andeq	r0, r1, r0
     584:	00020855 	andeq	r0, r2, r5, asr r8
     588:	00022800 	andeq	r2, r2, r0, lsl #16
     58c:	f3000400 	vshl.u8	d0, d0, d0
     590:	009f5101 	addseq	r5, pc, r1, lsl #2
     594:	00000000 	andeq	r0, r0, r0
     598:	80000000 	andhi	r0, r0, r0
     59c:	94000000 	strls	r0, [r0], #-0
     5a0:	01000000 	mrseq	r0, (UNDEF: 0)
     5a4:	00945200 	addseq	r5, r4, r0, lsl #4
     5a8:	02080000 	andeq	r0, r8, #0
     5ac:	00010000 	andeq	r0, r1, r0
     5b0:	00020854 	andeq	r0, r2, r4, asr r8
     5b4:	00022800 	andeq	r2, r2, r0, lsl #16
     5b8:	f3000400 	vshl.u8	d0, d0, d0
     5bc:	009f5201 	addseq	r5, pc, r1, lsl #4
     5c0:	00000000 	andeq	r0, r0, r0
     5c4:	80000000 	andhi	r0, r0, r0
     5c8:	00000000 	andeq	r0, r0, r0
     5cc:	01000001 	tsteq	r0, r1
     5d0:	01045300 	mrseq	r5, LR_abt
     5d4:	01080000 	mrseq	r0, (UNDEF: 8)
     5d8:	00010000 	andeq	r0, r1, r0
     5dc:	00016053 	andeq	r6, r1, r3, asr r0
     5e0:	00016800 	andeq	r6, r1, r0, lsl #16
     5e4:	53000100 	movwpl	r0, #256	; 0x100
     5e8:	00000168 	andeq	r0, r0, r8, ror #2
     5ec:	00000188 	andeq	r0, r0, r8, lsl #3
     5f0:	01f30004 	mvnseq	r0, r4
     5f4:	01889f53 	orreq	r9, r8, r3, asr pc
     5f8:	01900000 	orrseq	r0, r0, r0
     5fc:	00010000 	andeq	r0, r1, r0
     600:	00019053 	andeq	r9, r1, r3, asr r0
     604:	00019400 	andeq	r9, r1, r0, lsl #8
     608:	5c000100 	stfpls	f0, [r0], {-0}
     60c:	00000194 	muleq	r0, r4, r1
     610:	0000019c 	muleq	r0, ip, r1
     614:	9c530001 	mrrcls	0, 0, r0, r3, cr1
     618:	bc000001 	stclt	0, cr0, [r0], {1}
     61c:	04000001 	streq	r0, [r0], #-1
     620:	5301f300 	movwpl	pc, #4864	; 0x1300	; <UNPREDICTABLE>
     624:	0001bc9f 	muleq	r1, pc, ip	; <UNPREDICTABLE>
     628:	0001bf00 	andeq	fp, r1, r0, lsl #30
     62c:	53000100 	movwpl	r0, #256	; 0x100
     630:	000001bf 			; <UNDEFINED> instruction: 0x000001bf
     634:	000001e0 	andeq	r0, r0, r0, ror #3
     638:	01f30004 	mvnseq	r0, r4
     63c:	00009f53 	andeq	r9, r0, r3, asr pc
     640:	00000000 	andeq	r0, r0, r0
     644:	00800000 	addeq	r0, r0, r0
     648:	009c0000 	addseq	r0, ip, r0
     64c:	00020000 	andeq	r0, r2, r0
     650:	009c0091 	umullseq	r0, ip, r1, r0
     654:	01bf0000 			; <UNDEFINED> instruction: 0x01bf0000
     658:	00010000 	andeq	r0, r1, r0
     65c:	0001e052 	andeq	lr, r1, r2, asr r0
     660:	0001eb00 	andeq	lr, r1, r0, lsl #22
     664:	52000100 	andpl	r0, r0, #0, 2
	...
     670:	0000009c 	muleq	r0, ip, r0
     674:	0000010c 	andeq	r0, r0, ip, lsl #2
     678:	a0910004 	addsge	r0, r1, r4
     67c:	010c9f7f 	tsteq	ip, pc, ror pc
     680:	01180000 	tsteq	r8, r0
     684:	00010000 	andeq	r0, r1, r0
     688:	00011851 	andeq	r1, r1, r1, asr r8
     68c:	00011c00 	andeq	r1, r1, r0, lsl #24
     690:	53000100 	movwpl	r0, #256	; 0x100
     694:	0000011c 	andeq	r0, r0, ip, lsl r1
     698:	00000120 	andeq	r0, r0, r0, lsr #2
     69c:	20510001 	subscs	r0, r1, r1
     6a0:	60000001 	andvs	r0, r0, r1
     6a4:	01000001 	tsteq	r0, r1
     6a8:	01605300 	cmneq	r0, r0, lsl #6
     6ac:	01640000 	cmneq	r4, r0
     6b0:	00040000 	andeq	r0, r4, r0
     6b4:	9f7fa091 	svcls	0x007fa091
     6b8:	00000164 	andeq	r0, r0, r4, ror #2
     6bc:	0000016c 	andeq	r0, r0, ip, ror #2
     6c0:	6c5e0001 	mrrcvs	0, 0, r0, lr, cr1
     6c4:	88000001 	stmdahi	r0, {r0}
     6c8:	01000001 	tsteq	r0, r1
     6cc:	01885300 	orreq	r5, r8, r0, lsl #6
     6d0:	01900000 	orrseq	r0, r0, r0
     6d4:	00040000 	andeq	r0, r4, r0
     6d8:	9f7fa191 	svcls	0x007fa191
     6dc:	00000190 	muleq	r0, r0, r1
     6e0:	00000194 	muleq	r0, r4, r1
     6e4:	94530001 	ldrbls	r0, [r3], #-1
     6e8:	98000001 	stmdals	r0, {r0}
     6ec:	04000001 	streq	r0, [r0], #-1
     6f0:	7fa09100 	svcvc	0x00a09100
     6f4:	0001989f 	muleq	r1, pc, r8	; <UNPREDICTABLE>
     6f8:	0001a000 	andeq	sl, r1, r0
     6fc:	5e000100 	adfpls	f0, f0, f0
     700:	000001a0 	andeq	r0, r0, r0, lsr #3
     704:	000001bc 			; <UNDEFINED> instruction: 0x000001bc
     708:	bc530001 	mrrclt	0, 0, r0, r3, cr1
     70c:	e0000001 	and	r0, r0, r1
     710:	04000001 	streq	r0, [r0], #-1
     714:	7fa09100 	svcvc	0x00a09100
     718:	0001e09f 	muleq	r1, pc, r0	; <UNPREDICTABLE>
     71c:	0001eb00 	andeq	lr, r1, r0, lsl #22
     720:	53000100 	movwpl	r0, #256	; 0x100
	...
     72c:	000000a0 	andeq	r0, r0, r0, lsr #1
     730:	000000ec 	andeq	r0, r0, ip, ror #1
     734:	ec5c0001 	mrrc	0, 0, r0, ip, cr1
     738:	00000000 	andeq	r0, r0, r0
     73c:	01000001 	tsteq	r0, r1
     740:	01005300 	mrseq	r5, LR_irq
     744:	01040000 	mrseq	r0, (UNDEF: 4)
     748:	00010000 	andeq	r0, r1, r0
     74c:	0001045c 	andeq	r0, r1, ip, asr r4
     750:	00010800 	andeq	r0, r1, r0, lsl #16
     754:	53000100 	movwpl	r0, #256	; 0x100
     758:	00000108 	andeq	r0, r0, r8, lsl #2
     75c:	00000118 	andeq	r0, r0, r8, lsl r1
     760:	185c0001 	ldmdane	ip, {r0}^
     764:	1c000001 	stcne	0, cr0, [r0], {1}
     768:	01000001 	tsteq	r0, r1
     76c:	011c5000 	tsteq	ip, r0
     770:	013c0000 	teqeq	ip, r0
     774:	00010000 	andeq	r0, r1, r0
     778:	0001445c 	andeq	r4, r1, ip, asr r4
     77c:	00015800 	andeq	r5, r1, r0, lsl #16
     780:	50000100 	andpl	r0, r0, r0, lsl #2
     784:	00000158 	andeq	r0, r0, r8, asr r1
     788:	00000160 	andeq	r0, r0, r0, ror #2
     78c:	605c0001 	subsvs	r0, ip, r1
     790:	68000001 	stmdavs	r0, {r0}
     794:	01000001 	tsteq	r0, r1
     798:	01685300 	cmneq	r8, r0, lsl #6
     79c:	01780000 	cmneq	r8, r0
     7a0:	00010000 	andeq	r0, r1, r0
     7a4:	0001785c 	andeq	r7, r1, ip, asr r8
     7a8:	00018000 	andeq	r8, r1, r0
     7ac:	7c000500 	cfstr32vc	mvfx0, [r0], {-0}
     7b0:	9f253400 	svcls	0x00253400
     7b4:	00000180 	andeq	r0, r0, r0, lsl #3
     7b8:	00000188 	andeq	r0, r0, r8, lsl #3
     7bc:	885c0001 	ldmdahi	ip, {r0}^
     7c0:	90000001 	andls	r0, r0, r1
     7c4:	01000001 	tsteq	r0, r1
     7c8:	01905300 	orrseq	r5, r0, r0, lsl #6
     7cc:	01940000 	orrseq	r0, r4, r0
     7d0:	00010000 	andeq	r0, r1, r0
     7d4:	0001945c 	andeq	r9, r1, ip, asr r4
     7d8:	00019c00 	andeq	r9, r1, r0, lsl #24
     7dc:	53000100 	movwpl	r0, #256	; 0x100
     7e0:	0000019c 	muleq	r0, ip, r1
     7e4:	000001ac 	andeq	r0, r0, ip, lsr #3
     7e8:	ac5c0001 	mrrcge	0, 0, r0, ip, cr1
     7ec:	b4000001 	strlt	r0, [r0], #-1
     7f0:	05000001 	streq	r0, [r0, #-1]
     7f4:	31007c00 	tstcc	r0, r0, lsl #24
     7f8:	01b49f25 			; <UNDEFINED> instruction: 0x01b49f25
     7fc:	01bc0000 			; <UNDEFINED> instruction: 0x01bc0000
     800:	00010000 	andeq	r0, r1, r0
     804:	0001bc5c 	andeq	fp, r1, ip, asr ip
     808:	0001bf00 	andeq	fp, r1, r0, lsl #30
     80c:	53000100 	movwpl	r0, #256	; 0x100
     810:	000001bf 			; <UNDEFINED> instruction: 0x000001bf
     814:	000001e0 	andeq	r0, r0, r0, ror #3
     818:	01f30004 	mvnseq	r0, r4
     81c:	01e09f53 	mvneq	r9, r3, asr pc
     820:	01eb0000 	mvneq	r0, r0
     824:	00010000 	andeq	r0, r1, r0
     828:	0000005c 	andeq	r0, r0, ip, asr r0
     82c:	00000000 	andeq	r0, r0, r0
     830:	0000ec00 	andeq	lr, r0, r0, lsl #24
     834:	0000fc00 	andeq	pc, r0, r0, lsl #24
     838:	30000200 	andcc	r0, r0, r0, lsl #4
     83c:	0000fc9f 	muleq	r0, pc, ip	; <UNPREDICTABLE>
     840:	00010400 	andeq	r0, r1, r0, lsl #8
     844:	31000200 	mrscc	r0, R8_usr
     848:	0001049f 	muleq	r1, pc, r4	; <UNPREDICTABLE>
     84c:	00010800 	andeq	r0, r1, r0, lsl #16
     850:	30000200 	andcc	r0, r0, r0, lsl #4
     854:	0000009f 	muleq	r0, pc, r0	; <UNPREDICTABLE>
     858:	00000000 	andeq	r0, r0, r0
     85c:	00022800 	andeq	r2, r2, r0, lsl #16
     860:	00023b00 	andeq	r3, r2, r0, lsl #22
     864:	50000100 	andpl	r0, r0, r0, lsl #2
     868:	0000023b 	andeq	r0, r0, fp, lsr r2
     86c:	0000025c 	andeq	r0, r0, ip, asr r2
     870:	01f30004 	mvnseq	r0, r4
     874:	025c9f50 	subseq	r9, ip, #80, 30	; 0x140
     878:	02900000 	addseq	r0, r0, #0
     87c:	00010000 	andeq	r0, r1, r0
     880:	00000050 	andeq	r0, r0, r0, asr r0
     884:	00000000 	andeq	r0, r0, r0
     888:	00022800 	andeq	r2, r2, r0, lsl #16
     88c:	00023b00 	andeq	r3, r2, r0, lsl #22
     890:	51000100 	mrspl	r0, (UNDEF: 16)
     894:	0000023b 	andeq	r0, r0, fp, lsr r2
     898:	0000025c 	andeq	r0, r0, ip, asr r2
     89c:	01f30004 	mvnseq	r0, r4
     8a0:	025c9f51 	subseq	r9, ip, #324	; 0x144
     8a4:	02900000 	addseq	r0, r0, #0
     8a8:	00010000 	andeq	r0, r1, r0
     8ac:	00000051 	andeq	r0, r0, r1, asr r0
     8b0:	00000000 	andeq	r0, r0, r0
     8b4:	00029000 	andeq	r9, r2, r0
     8b8:	0002bc00 	andeq	fp, r2, r0, lsl #24
     8bc:	50000100 	andpl	r0, r0, r0, lsl #2
     8c0:	000002bc 			; <UNDEFINED> instruction: 0x000002bc
     8c4:	0000050c 	andeq	r0, r0, ip, lsl #10
     8c8:	0c5a0001 	mrrceq	0, 0, r0, sl, cr1
     8cc:	24000005 	strcs	r0, [r0], #-5
     8d0:	04000005 	streq	r0, [r0], #-5
     8d4:	5001f300 	andpl	pc, r1, r0, lsl #6
     8d8:	0000009f 	muleq	r0, pc, r0	; <UNPREDICTABLE>
     8dc:	00000000 	andeq	r0, r0, r0
     8e0:	00029000 	andeq	r9, r2, r0
     8e4:	0002a400 	andeq	sl, r2, r0, lsl #8
     8e8:	51000100 	mrspl	r0, (UNDEF: 16)
     8ec:	000002a4 	andeq	r0, r0, r4, lsr #5
     8f0:	000002bc 			; <UNDEFINED> instruction: 0x000002bc
     8f4:	01710003 	cmneq	r1, r3
     8f8:	0002bc9f 	muleq	r2, pc, ip	; <UNPREDICTABLE>
     8fc:	00052400 	andeq	r2, r5, r0, lsl #8
     900:	f3000400 	vshl.u8	d0, d0, d0
     904:	009f5101 	addseq	r5, pc, r1, lsl #2
     908:	00000000 	andeq	r0, r0, r0
     90c:	90000000 	andls	r0, r0, r0
     910:	c4000002 	strgt	r0, [r0], #-2
     914:	01000002 	tsteq	r0, r2
     918:	02c45200 	sbceq	r5, r4, #0, 4
     91c:	02ec0000 	rsceq	r0, ip, #0
     920:	00010000 	andeq	r0, r1, r0
     924:	0002ec52 	andeq	lr, r2, r2, asr ip
     928:	0004bc00 	andeq	fp, r4, r0, lsl #24
     92c:	56000100 	strpl	r0, [r0], -r0, lsl #2
     930:	000004bc 			; <UNDEFINED> instruction: 0x000004bc
     934:	00000524 	andeq	r0, r0, r4, lsr #10
     938:	00520001 	subseq	r0, r2, r1
     93c:	00000000 	andeq	r0, r0, r0
     940:	90000000 	andls	r0, r0, r0
     944:	ac000002 	stcge	0, cr0, [r0], {2}
     948:	01000002 	tsteq	r0, r2
     94c:	00005300 	andeq	r5, r0, r0, lsl #6
     950:	00000000 	andeq	r0, r0, r0
     954:	02a00000 	adceq	r0, r0, #0
     958:	02bc0000 	adcseq	r0, ip, #0
     95c:	00010000 	andeq	r0, r1, r0
     960:	0002bc50 	andeq	fp, r2, r0, asr ip
     964:	0002c000 	andeq	ip, r2, r0
     968:	54000100 	strpl	r0, [r0], #-256	; 0x100
     96c:	000002c0 	andeq	r0, r0, r0, asr #5
     970:	000002cc 	andeq	r0, r0, ip, asr #5
     974:	01740003 	cmneq	r4, r3
     978:	0002cc9f 	muleq	r2, pc, ip	; <UNPREDICTABLE>
     97c:	0002d800 	andeq	sp, r2, r0, lsl #16
     980:	54000100 	strpl	r0, [r0], #-256	; 0x100
     984:	000002d8 	ldrdeq	r0, [r0], -r8
     988:	000002e4 	andeq	r0, r0, r4, ror #5
     98c:	01740003 	cmneq	r4, r3
     990:	0002e49f 	muleq	r2, pc, r4	; <UNPREDICTABLE>
     994:	0004c000 	andeq	ip, r4, r0
     998:	54000100 	strpl	r0, [r0], #-256	; 0x100
     99c:	000004c0 	andeq	r0, r0, r0, asr #9
     9a0:	000004cc 	andeq	r0, r0, ip, asr #9
     9a4:	01740003 	cmneq	r4, r3
     9a8:	0004cc9f 	muleq	r4, pc, ip	; <UNPREDICTABLE>
     9ac:	0004f800 	andeq	pc, r4, r0, lsl #16
     9b0:	54000100 	strpl	r0, [r0], #-256	; 0x100
     9b4:	000004f8 	strdeq	r0, [r0], -r8
     9b8:	00000504 	andeq	r0, r0, r4, lsl #10
     9bc:	04500001 	ldrbeq	r0, [r0], #-1
     9c0:	0c000005 	stceq	0, cr0, [r0], {5}
     9c4:	03000005 	movweq	r0, #5
     9c8:	9f017400 	svcls	0x00017400
	...
     9d4:	000002a8 	andeq	r0, r0, r8, lsr #5
     9d8:	0000050c 	andeq	r0, r0, ip, lsl #10
     9dc:	0c580001 	mrrceq	0, 0, r0, r8, cr1
     9e0:	24000005 	strcs	r0, [r0], #-5
     9e4:	0a000005 	beq	a00 <_start-0x7600>
     9e8:	5101f300 	mrspl	pc, SP_irq	; <UNPREDICTABLE>
     9ec:	225001f3 	subscs	r0, r0, #-1073741764	; 0xc000003c
     9f0:	009f1c31 	addseq	r1, pc, r1, lsr ip	; <UNPREDICTABLE>
     9f4:	00000000 	andeq	r0, r0, r0
     9f8:	f4000000 	vst4.8	{d0-d3}, [r0], r0
     9fc:	f8000003 			; <UNDEFINED> instruction: 0xf8000003
     a00:	01000003 	tsteq	r0, r3
     a04:	04185000 	ldreq	r5, [r8], #-0
     a08:	041c0000 	ldreq	r0, [ip], #-0
     a0c:	00010000 	andeq	r0, r1, r0
     a10:	00043c50 	andeq	r3, r4, r0, asr ip
     a14:	00044000 	andeq	r4, r4, r0
     a18:	50000100 	andpl	r0, r0, r0, lsl #2
     a1c:	00000460 	andeq	r0, r0, r0, ror #8
     a20:	00000464 	andeq	r0, r0, r4, ror #8
     a24:	6c500001 	mrrcvs	0, 0, r0, r0, cr1	; <UNPREDICTABLE>
     a28:	70000004 	andvc	r0, r0, r4
     a2c:	01000004 	tsteq	r0, r4
     a30:	04905000 	ldreq	r5, [r0], #0
     a34:	04940000 	ldreq	r0, [r4], #0
     a38:	00010000 	andeq	r0, r1, r0
     a3c:	0004b850 	andeq	fp, r4, r0, asr r8
     a40:	0004e000 	andeq	lr, r4, r0
     a44:	50000100 	andpl	r0, r0, r0, lsl #2
	...
     a50:	000002ec 	andeq	r0, r0, ip, ror #5
     a54:	000002f4 	strdeq	r0, [r0], -r4
     a58:	9f300002 	svcls	0x00300002
     a5c:	000002f4 	strdeq	r0, [r0], -r4
     a60:	000002f8 	strdeq	r0, [r0], -r8
     a64:	04570001 	ldrbeq	r0, [r7], #-1
     a68:	e0000003 	and	r0, r0, r3
     a6c:	01000004 	tsteq	r0, r4
     a70:	00005700 	andeq	r5, r0, r0, lsl #14
	...
     a7c:	000c0000 	andeq	r0, ip, r0
     a80:	00010000 	andeq	r0, r1, r0
     a84:	00000c50 	andeq	r0, r0, r0, asr ip
     a88:	00002000 	andeq	r2, r0, r0
     a8c:	54000100 	strpl	r0, [r0], #-256	; 0x100
	...
     a98:	00000034 	andeq	r0, r0, r4, lsr r0
     a9c:	0000003c 	andeq	r0, r0, ip, lsr r0
     aa0:	04730003 	ldrbteq	r0, [r3], #-3
     aa4:	00003c9f 	muleq	r0, pc, ip	; <UNPREDICTABLE>
     aa8:	00004700 	andeq	r4, r0, r0, lsl #14
     aac:	53000100 	movwpl	r0, #256	; 0x100
	...
     ab8:	00000048 	andeq	r0, r0, r8, asr #32
     abc:	00000074 	andeq	r0, r0, r4, ror r0
     ac0:	74500001 	ldrbvc	r0, [r0], #-1
     ac4:	83000000 	movwhi	r0, #0
     ac8:	03000000 	movweq	r0, #0
     acc:	9f787300 	svcls	0x00787300
	...
     ad8:	00008900 	andeq	r8, r0, r0, lsl #18
     adc:	00008904 	andeq	r8, r0, r4, lsl #18
     ae0:	9f300002 	svcls	0x00300002
     ae4:	00008904 	andeq	r8, r0, r4, lsl #18
     ae8:	00008908 	andeq	r8, r0, r8, lsl #18
     aec:	00500001 	subseq	r0, r0, r1
     af0:	00000000 	andeq	r0, r0, r0
     af4:	18000000 	stmdane	r0, {}	; <UNPREDICTABLE>
     af8:	1c000089 	stcne	0, cr0, [r0], {137}	; 0x89
     afc:	02000089 	andeq	r0, r0, #137	; 0x89
     b00:	1c9f3000 	ldcne	0, cr3, [pc], {0}
     b04:	20000089 	andcs	r0, r0, r9, lsl #1
     b08:	01000089 	smlabbeq	r0, r9, r0, r0
     b0c:	89245300 	stmdbhi	r4!, {r8, r9, ip, lr}
     b10:	892c0000 	stmdbhi	ip!, {}	; <UNPREDICTABLE>
     b14:	00010000 	andeq	r0, r1, r0
     b18:	00000053 	andeq	r0, r0, r3, asr r0
	...
     b24:	00000400 	andeq	r0, r0, r0, lsl #8
     b28:	50000100 	andpl	r0, r0, r0, lsl #2
     b2c:	00000004 	andeq	r0, r0, r4
     b30:	0000000c 	andeq	r0, r0, ip
     b34:	0c530001 	mrrceq	0, 0, r0, r3, cr1
     b38:	10000000 	andne	r0, r0, r0
     b3c:	01000000 	mrseq	r0, (UNDEF: 0)
     b40:	00105000 	andseq	r5, r0, r0
     b44:	001c0000 	andseq	r0, ip, r0
     b48:	00010000 	andeq	r0, r1, r0
     b4c:	00000053 	andeq	r0, r0, r3, asr r0
     b50:	00000000 	andeq	r0, r0, r0
     b54:	00003c00 	andeq	r3, r0, r0, lsl #24
     b58:	00004700 	andeq	r4, r0, r0, lsl #14
     b5c:	50000100 	andpl	r0, r0, r0, lsl #2
     b60:	00000047 	andeq	r0, r0, r7, asr #32
     b64:	00000060 	andeq	r0, r0, r0, rrx
     b68:	00550001 	subseq	r0, r5, r1
     b6c:	00000000 	andeq	r0, r0, r0
     b70:	50000000 	andpl	r0, r0, r0
     b74:	54000000 	strpl	r0, [r0], #-0
     b78:	01000000 	mrseq	r0, (UNDEF: 0)
     b7c:	00005000 	andeq	r5, r0, r0
     b80:	00000000 	andeq	r0, r0, r0
     b84:	00600000 	rsbeq	r0, r0, r0
     b88:	006c0000 	rsbeq	r0, ip, r0
     b8c:	00010000 	andeq	r0, r1, r0
     b90:	00006c50 	andeq	r6, r0, r0, asr ip
     b94:	00007400 	andeq	r7, r0, r0, lsl #8
     b98:	f3000400 	vshl.u8	d0, d0, d0
     b9c:	009f5001 	addseq	r5, pc, r1
     ba0:	00000000 	andeq	r0, r0, r0
     ba4:	74000000 	strvc	r0, [r0], #-0
     ba8:	80000000 	andhi	r0, r0, r0
     bac:	01000000 	mrseq	r0, (UNDEF: 0)
     bb0:	00805000 	addeq	r5, r0, r0
     bb4:	00880000 	addeq	r0, r8, r0
     bb8:	00040000 	andeq	r0, r4, r0
     bbc:	9f5001f3 	svcls	0x005001f3
	...
     bcc:	00000090 	muleq	r0, r0, r0
     bd0:	90500001 	subsls	r0, r0, r1
     bd4:	d4000000 	strle	r0, [r0], #-0
     bd8:	01000000 	mrseq	r0, (UNDEF: 0)
     bdc:	00005400 	andeq	r5, r0, r0, lsl #8
     be0:	00000000 	andeq	r0, r0, r0
     be4:	00480000 	subeq	r0, r8, r0
     be8:	004c0000 	subeq	r0, ip, r0
     bec:	00010000 	andeq	r0, r1, r0
     bf0:	00005455 	andeq	r5, r0, r5, asr r4
     bf4:	00005800 	andeq	r5, r0, r0, lsl #16
     bf8:	55000100 	strpl	r0, [r0, #-256]	; 0x100
     bfc:	00000060 	andeq	r0, r0, r0, rrx
     c00:	00000064 	andeq	r0, r0, r4, rrx
     c04:	6c550001 	mrrcvs	0, 0, r0, r5, cr1
     c08:	70000000 	andvc	r0, r0, r0
     c0c:	01000000 	mrseq	r0, (UNDEF: 0)
     c10:	00785500 	rsbseq	r5, r8, r0, lsl #10
     c14:	007c0000 	rsbseq	r0, ip, r0
     c18:	00010000 	andeq	r0, r1, r0
     c1c:	00008455 	andeq	r8, r0, r5, asr r4
     c20:	00008800 	andeq	r8, r0, r0, lsl #16
     c24:	55000100 	strpl	r0, [r0, #-256]	; 0x100
     c28:	0000008c 	andeq	r0, r0, ip, lsl #1
     c2c:	000000d4 	ldrdeq	r0, [r0], -r4
     c30:	00550001 	subseq	r0, r5, r1
     c34:	00000000 	andeq	r0, r0, r0
     c38:	1c000000 	stcne	0, cr0, [r0], {-0}
     c3c:	44000000 	strmi	r0, [r0], #-0
     c40:	01000000 	mrseq	r0, (UNDEF: 0)
     c44:	00445300 	subeq	r5, r4, r0, lsl #6
     c48:	004c0000 	subeq	r0, ip, r0
     c4c:	001c0000 	andseq	r0, ip, r0
     c50:	2cf70070 	ldclcs	0, cr0, [r7], #448	; 0x1c0
     c54:	25f425f7 	ldrbcs	r2, [r4, #1527]!	; 0x5f7
     c58:	cccccd08 	stclgt	13, cr12, [ip], {8}
     c5c:	000000cc 	andeq	r0, r0, ip, asr #1
     c60:	20081e00 	andcs	r1, r8, r0, lsl #28
     c64:	f72525f7 			; <UNDEFINED> instruction: 0xf72525f7
     c68:	9f25332c 	svcls	0x0025332c
     c6c:	0000004c 	andeq	r0, r0, ip, asr #32
     c70:	00000050 	andeq	r0, r0, r0, asr r0
     c74:	50530001 	subspl	r0, r3, r1
     c78:	58000000 	stmdapl	r0, {}	; <UNPREDICTABLE>
     c7c:	1c000000 	stcne	0, cr0, [r0], {-0}
     c80:	f7007000 			; <UNDEFINED> instruction: 0xf7007000
     c84:	f425f72c 	vld1.8	{d15}, [r5 :128], ip
     c88:	cccd0825 	stclgt	8, cr0, [sp], {37}	; 0x25
     c8c:	0000cccc 	andeq	ip, r0, ip, asr #25
     c90:	081e0000 	ldmdaeq	lr, {}	; <UNPREDICTABLE>
     c94:	2525f720 	strcs	pc, [r5, #-1824]!	; 0x720
     c98:	25332cf7 	ldrcs	r2, [r3, #-3319]!	; 0xcf7
     c9c:	0000589f 	muleq	r0, pc, r8	; <UNPREDICTABLE>
     ca0:	00005c00 	andeq	r5, r0, r0, lsl #24
     ca4:	53000100 	movwpl	r0, #256	; 0x100
     ca8:	0000005c 	andeq	r0, r0, ip, asr r0
     cac:	00000064 	andeq	r0, r0, r4, rrx
     cb0:	0070001c 	rsbseq	r0, r0, ip, lsl r0
     cb4:	25f72cf7 	ldrbcs	r2, [r7, #3319]!	; 0xcf7
     cb8:	cd0825f4 	cfstr32gt	mvfx2, [r8, #-976]	; 0xfffffc30
     cbc:	00cccccc 	sbceq	ip, ip, ip, asr #25
     cc0:	1e000000 	cdpne	0, 0, cr0, cr0, cr0, {0}
     cc4:	25f72008 	ldrbcs	r2, [r7, #8]!
     cc8:	332cf725 	msrcc	CPSR_fs, #9699328	; 0x940000
     ccc:	00649f25 	rsbeq	r9, r4, r5, lsr #30
     cd0:	00680000 	rsbeq	r0, r8, r0
     cd4:	00010000 	andeq	r0, r1, r0
     cd8:	00006853 	andeq	r6, r0, r3, asr r8
     cdc:	00007000 	andeq	r7, r0, r0
     ce0:	70001c00 	andvc	r1, r0, r0, lsl #24
     ce4:	f72cf700 			; <UNDEFINED> instruction: 0xf72cf700
     ce8:	0825f425 	stmdaeq	r5!, {r0, r2, r5, sl, ip, sp, lr, pc}
     cec:	cccccccd 	stclgt	12, cr12, [ip], {205}	; 0xcd
     cf0:	00000000 	andeq	r0, r0, r0
     cf4:	f720081e 			; <UNDEFINED> instruction: 0xf720081e
     cf8:	2cf72525 	cfldr64cs	mvdx2, [r7], #148	; 0x94
     cfc:	709f2533 	addsvc	r2, pc, r3, lsr r5	; <UNPREDICTABLE>
     d00:	74000000 	strvc	r0, [r0], #-0
     d04:	01000000 	mrseq	r0, (UNDEF: 0)
     d08:	00745300 	rsbseq	r5, r4, r0, lsl #6
     d0c:	007c0000 	rsbseq	r0, ip, r0
     d10:	001c0000 	andseq	r0, ip, r0
     d14:	2cf70070 	ldclcs	0, cr0, [r7], #448	; 0x1c0
     d18:	25f425f7 	ldrbcs	r2, [r4, #1527]!	; 0x5f7
     d1c:	cccccd08 	stclgt	13, cr12, [ip], {8}
     d20:	000000cc 	andeq	r0, r0, ip, asr #1
     d24:	20081e00 	andcs	r1, r8, r0, lsl #28
     d28:	f72525f7 			; <UNDEFINED> instruction: 0xf72525f7
     d2c:	9f25332c 	svcls	0x0025332c
     d30:	0000007c 	andeq	r0, r0, ip, ror r0
     d34:	00000080 	andeq	r0, r0, r0, lsl #1
     d38:	80530001 	subshi	r0, r3, r1
     d3c:	88000000 	stmdahi	r0, {}	; <UNPREDICTABLE>
     d40:	1c000000 	stcne	0, cr0, [r0], {-0}
     d44:	f7007000 			; <UNDEFINED> instruction: 0xf7007000
     d48:	f425f72c 	vld1.8	{d15}, [r5 :128], ip
     d4c:	cccd0825 	stclgt	8, cr0, [sp], {37}	; 0x25
     d50:	0000cccc 	andeq	ip, r0, ip, asr #25
     d54:	081e0000 	ldmdaeq	lr, {}	; <UNPREDICTABLE>
     d58:	2525f720 	strcs	pc, [r5, #-1824]!	; 0x720
     d5c:	25332cf7 	ldrcs	r2, [r3, #-3319]!	; 0xcf7
     d60:	0000889f 	muleq	r0, pc, r8	; <UNPREDICTABLE>
     d64:	00008c00 	andeq	r8, r0, r0, lsl #24
     d68:	53000100 	movwpl	r0, #256	; 0x100
     d6c:	0000008c 	andeq	r0, r0, ip, lsl #1
     d70:	00000090 	muleq	r0, r0, r0
     d74:	0070001c 	rsbseq	r0, r0, ip, lsl r0
     d78:	25f72cf7 	ldrbcs	r2, [r7, #3319]!	; 0xcf7
     d7c:	cd0825f4 	cfstr32gt	mvfx2, [r8, #-976]	; 0xfffffc30
     d80:	00cccccc 	sbceq	ip, ip, ip, asr #25
     d84:	1e000000 	cdpne	0, 0, cr0, cr0, cr0, {0}
     d88:	25f72008 	ldrbcs	r2, [r7, #8]!
     d8c:	332cf725 	msrcc	CPSR_fs, #9699328	; 0x940000
     d90:	00909f25 	addseq	r9, r0, r5, lsr #30
     d94:	00980000 	addseq	r0, r8, r0
     d98:	001c0000 	andseq	r0, ip, r0
     d9c:	2cf70074 	ldclcs	0, cr0, [r7], #464	; 0x1d0
     da0:	25f425f7 	ldrbcs	r2, [r4, #1527]!	; 0x5f7
     da4:	cccccd08 	stclgt	13, cr12, [ip], {8}
     da8:	000000cc 	andeq	r0, r0, ip, asr #1
     dac:	20081e00 	andcs	r1, r8, r0, lsl #28
     db0:	f72525f7 			; <UNDEFINED> instruction: 0xf72525f7
     db4:	9f25332c 	svcls	0x0025332c
     db8:	00000098 	muleq	r0, r8, r0
     dbc:	0000009c 	muleq	r0, ip, r0
     dc0:	00740017 	rsbseq	r0, r4, r7, lsl r0
     dc4:	25f72cf7 	ldrbcs	r2, [r7, #3319]!	; 0xcf7
     dc8:	2cf70071 	ldclcs	0, cr0, [r7], #452	; 0x1c4
     dcc:	081e25f7 	ldmdaeq	lr, {r0, r1, r2, r4, r5, r6, r7, r8, sl, sp}
     dd0:	2525f720 	strcs	pc, [r5, #-1824]!	; 0x720
     dd4:	25332cf7 	ldrcs	r2, [r3, #-3319]!	; 0xcf7
     dd8:	00009c9f 	muleq	r0, pc, ip	; <UNPREDICTABLE>
     ddc:	0000d400 	andeq	sp, r0, r0, lsl #8
     de0:	74001c00 	strvc	r1, [r0], #-3072	; 0xc00
     de4:	f72cf700 			; <UNDEFINED> instruction: 0xf72cf700
     de8:	0825f425 	stmdaeq	r5!, {r0, r2, r5, sl, ip, sp, lr, pc}
     dec:	cccccccd 	stclgt	12, cr12, [ip], {205}	; 0xcd
     df0:	00000000 	andeq	r0, r0, r0
     df4:	f720081e 			; <UNDEFINED> instruction: 0xf720081e
     df8:	2cf72525 	cfldr64cs	mvdx2, [r7], #148	; 0x94
     dfc:	009f2533 	addseq	r2, pc, r3, lsr r5	; <UNPREDICTABLE>
     e00:	00000000 	andeq	r0, r0, r0
     e04:	94000000 	strls	r0, [r0], #-0
     e08:	b8000000 	stmdalt	r0, {}	; <UNPREDICTABLE>
     e0c:	01000000 	mrseq	r0, (UNDEF: 0)
     e10:	00b85000 	adcseq	r5, r8, r0
     e14:	00c40000 	sbceq	r0, r4, r0
     e18:	00080000 	andeq	r0, r8, r0
     e1c:	24007131 	strcs	r7, [r0], #-305	; 0x131
     e20:	9f210073 	svcls	0x00210073
     e24:	000000c4 	andeq	r0, r0, r4, asr #1
     e28:	000000c7 	andeq	r0, r0, r7, asr #1
     e2c:	00510001 	subseq	r0, r1, r1
     e30:	00000000 	andeq	r0, r0, r0
     e34:	d4000000 	strle	r0, [r0], #-0
     e38:	f8000000 			; <UNDEFINED> instruction: 0xf8000000
     e3c:	01000000 	mrseq	r0, (UNDEF: 0)
     e40:	00f85000 	rscseq	r5, r8, r0
     e44:	010c0000 	mrseq	r0, (UNDEF: 12)
     e48:	00040000 	andeq	r0, r4, r0
     e4c:	9f5001f3 	svcls	0x005001f3
	...
     e58:	000000e0 	andeq	r0, r0, r0, ror #1
     e5c:	000000e8 	andeq	r0, r0, r8, ror #1
     e60:	9f300002 	svcls	0x00300002
     e64:	000000e8 	andeq	r0, r0, r8, ror #1
     e68:	000000e8 	andeq	r0, r0, r8, ror #1
     e6c:	e8520001 	ldmda	r2, {r0}^
     e70:	f0000000 			; <UNDEFINED> instruction: 0xf0000000
     e74:	02000000 	andeq	r0, r0, #0
     e78:	f09f3000 			; <UNDEFINED> instruction: 0xf09f3000
     e7c:	03000000 	movweq	r0, #0
     e80:	01000001 	tsteq	r0, r1
     e84:	00005200 	andeq	r5, r0, r0, lsl #4
     e88:	00000000 	andeq	r0, r0, r0
     e8c:	00e00000 	rsceq	r0, r0, r0
     e90:	00f40000 	rscseq	r0, r4, r0
     e94:	00020000 	andeq	r0, r2, r0
     e98:	00f49f30 	rscseq	r9, r4, r0, lsr pc
     e9c:	01000000 	mrseq	r0, (UNDEF: 0)
     ea0:	00050000 	andeq	r0, r5, r0
     ea4:	24007331 	strcs	r7, [r0], #-817	; 0x331
     ea8:	0001009f 	muleq	r1, pc, r0	; <UNPREDICTABLE>
     eac:	00010300 	andeq	r0, r1, r0, lsl #6
     eb0:	51000100 	mrspl	r0, (UNDEF: 16)
     eb4:	00000103 	andeq	r0, r0, r3, lsl #2
     eb8:	0000010c 	andeq	r0, r0, ip, lsl #2
     ebc:	f3310008 	vhadd.u<illegal width 64>	d0, d1, d8
     ec0:	1a4f5001 	bne	13d4ecc <__bss_end__+0x13cae8c>
     ec4:	00009f24 	andeq	r9, r0, r4, lsr #30
     ec8:	00000000 	andeq	r0, r0, r0
     ecc:	010c0000 	mrseq	r0, (UNDEF: 12)
     ed0:	01300000 	teqeq	r0, r0
     ed4:	00010000 	andeq	r0, r1, r0
     ed8:	00013050 	andeq	r3, r1, r0, asr r0
     edc:	00014400 	andeq	r4, r1, r0, lsl #8
     ee0:	f3000400 	vshl.u8	d0, d0, d0
     ee4:	009f5001 	addseq	r5, pc, r1
     ee8:	00000000 	andeq	r0, r0, r0
     eec:	18000000 	stmdane	r0, {}	; <UNPREDICTABLE>
     ef0:	20000001 	andcs	r0, r0, r1
     ef4:	02000001 	andeq	r0, r0, #1
     ef8:	209f3000 	addscs	r3, pc, r0
     efc:	20000001 	andcs	r0, r0, r1
     f00:	01000001 	tsteq	r0, r1
     f04:	01205200 	teqeq	r0, r0, lsl #4
     f08:	01280000 	teqeq	r8, r0
     f0c:	00020000 	andeq	r0, r2, r0
     f10:	01289f30 	teqeq	r8, r0, lsr pc
     f14:	013b0000 	teqeq	fp, r0
     f18:	00010000 	andeq	r0, r1, r0
     f1c:	00000052 	andeq	r0, r0, r2, asr r0
     f20:	00000000 	andeq	r0, r0, r0
     f24:	00011800 	andeq	r1, r1, r0, lsl #16
     f28:	00012c00 	andeq	r2, r1, r0, lsl #24
     f2c:	30000200 	andcc	r0, r0, r0, lsl #4
     f30:	00012c9f 	muleq	r1, pc, ip	; <UNPREDICTABLE>
     f34:	00013800 	andeq	r3, r1, r0, lsl #16
     f38:	31000500 	tstcc	r0, r0, lsl #10
     f3c:	9f240073 	svcls	0x00240073
     f40:	00000138 	andeq	r0, r0, r8, lsr r1
     f44:	0000013b 	andeq	r0, r0, fp, lsr r1
     f48:	3b510001 	blcc	1440f54 <__bss_end__+0x1436f14>
     f4c:	44000001 	strmi	r0, [r0], #-1
     f50:	08000001 	stmdaeq	r0, {r0}
     f54:	01f33100 	mvnseq	r3, r0, lsl #2
     f58:	241a4f50 	ldrcs	r4, [sl], #-3920	; 0xf50
     f5c:	0000009f 	muleq	r0, pc, r0	; <UNPREDICTABLE>
     f60:	00000000 	andeq	r0, r0, r0
     f64:	00014400 	andeq	r4, r1, r0, lsl #8
     f68:	0001d400 	andeq	sp, r1, r0, lsl #8
     f6c:	50000100 	andpl	r0, r0, r0, lsl #2
     f70:	000001d4 	ldrdeq	r0, [r0], -r4
     f74:	00000210 	andeq	r0, r0, r0, lsl r2
     f78:	00540001 	subseq	r0, r4, r1
     f7c:	00000000 	andeq	r0, r0, r0
     f80:	8c000000 	stchi	0, cr0, [r0], {-0}
     f84:	90000001 	andls	r0, r0, r1
     f88:	01000001 	tsteq	r0, r1
     f8c:	01985500 	orrseq	r5, r8, r0, lsl #10
     f90:	019c0000 	orrseq	r0, ip, r0
     f94:	00010000 	andeq	r0, r1, r0
     f98:	0001a455 	andeq	sl, r1, r5, asr r4
     f9c:	0001a800 	andeq	sl, r1, r0, lsl #16
     fa0:	55000100 	strpl	r0, [r0, #-256]	; 0x100
     fa4:	000001b0 			; <UNDEFINED> instruction: 0x000001b0
     fa8:	000001b4 			; <UNDEFINED> instruction: 0x000001b4
     fac:	bc550001 	mrrclt	0, 0, r0, r5, cr1
     fb0:	c0000001 	andgt	r0, r0, r1
     fb4:	01000001 	tsteq	r0, r1
     fb8:	01c85500 	biceq	r5, r8, r0, lsl #10
     fbc:	01cc0000 	biceq	r0, ip, r0
     fc0:	00010000 	andeq	r0, r1, r0
     fc4:	0001d055 	andeq	sp, r1, r5, asr r0
     fc8:	00021000 	andeq	r1, r2, r0
     fcc:	55000100 	strpl	r0, [r0, #-256]	; 0x100
	...
     fd8:	00000160 	andeq	r0, r0, r0, ror #2
     fdc:	00000188 	andeq	r0, r0, r8, lsl #3
     fe0:	88530001 	ldmdahi	r3, {r0}^
     fe4:	90000001 	andls	r0, r0, r1
     fe8:	1c000001 	stcne	0, cr0, [r0], {1}
     fec:	f7007000 			; <UNDEFINED> instruction: 0xf7007000
     ff0:	f425f72c 	vld1.8	{d15}, [r5 :128], ip
     ff4:	cccd0825 	stclgt	8, cr0, [sp], {37}	; 0x25
     ff8:	0000cccc 	andeq	ip, r0, ip, asr #25
     ffc:	081e0000 	ldmdaeq	lr, {}	; <UNPREDICTABLE>
    1000:	2525f720 	strcs	pc, [r5, #-1824]!	; 0x720
    1004:	25332cf7 	ldrcs	r2, [r3, #-3319]!	; 0xcf7
    1008:	0001909f 	muleq	r1, pc, r0	; <UNPREDICTABLE>
    100c:	00019400 	andeq	r9, r1, r0, lsl #8
    1010:	53000100 	movwpl	r0, #256	; 0x100
    1014:	00000194 	muleq	r0, r4, r1
    1018:	0000019c 	muleq	r0, ip, r1
    101c:	0070001c 	rsbseq	r0, r0, ip, lsl r0
    1020:	25f72cf7 	ldrbcs	r2, [r7, #3319]!	; 0xcf7
    1024:	cd0825f4 	cfstr32gt	mvfx2, [r8, #-976]	; 0xfffffc30
    1028:	00cccccc 	sbceq	ip, ip, ip, asr #25
    102c:	1e000000 	cdpne	0, 0, cr0, cr0, cr0, {0}
    1030:	25f72008 	ldrbcs	r2, [r7, #8]!
    1034:	332cf725 	msrcc	CPSR_fs, #9699328	; 0x940000
    1038:	019c9f25 	orrseq	r9, ip, r5, lsr #30
    103c:	01a00000 	moveq	r0, r0
    1040:	00010000 	andeq	r0, r1, r0
    1044:	0001a053 	andeq	sl, r1, r3, asr r0
    1048:	0001a800 	andeq	sl, r1, r0, lsl #16
    104c:	70001c00 	andvc	r1, r0, r0, lsl #24
    1050:	f72cf700 			; <UNDEFINED> instruction: 0xf72cf700
    1054:	0825f425 	stmdaeq	r5!, {r0, r2, r5, sl, ip, sp, lr, pc}
    1058:	cccccccd 	stclgt	12, cr12, [ip], {205}	; 0xcd
    105c:	00000000 	andeq	r0, r0, r0
    1060:	f720081e 			; <UNDEFINED> instruction: 0xf720081e
    1064:	2cf72525 	cfldr64cs	mvdx2, [r7], #148	; 0x94
    1068:	a89f2533 	ldmge	pc, {r0, r1, r4, r5, r8, sl, sp}	; <UNPREDICTABLE>
    106c:	ac000001 	stcge	0, cr0, [r0], {1}
    1070:	01000001 	tsteq	r0, r1
    1074:	01ac5300 			; <UNDEFINED> instruction: 0x01ac5300
    1078:	01b40000 			; <UNDEFINED> instruction: 0x01b40000
    107c:	001c0000 	andseq	r0, ip, r0
    1080:	2cf70070 	ldclcs	0, cr0, [r7], #448	; 0x1c0
    1084:	25f425f7 	ldrbcs	r2, [r4, #1527]!	; 0x5f7
    1088:	cccccd08 	stclgt	13, cr12, [ip], {8}
    108c:	000000cc 	andeq	r0, r0, ip, asr #1
    1090:	20081e00 	andcs	r1, r8, r0, lsl #28
    1094:	f72525f7 			; <UNDEFINED> instruction: 0xf72525f7
    1098:	9f25332c 	svcls	0x0025332c
    109c:	000001b4 			; <UNDEFINED> instruction: 0x000001b4
    10a0:	000001b8 			; <UNDEFINED> instruction: 0x000001b8
    10a4:	b8530001 	ldmdalt	r3, {r0}^
    10a8:	c0000001 	andgt	r0, r0, r1
    10ac:	1c000001 	stcne	0, cr0, [r0], {1}
    10b0:	f7007000 			; <UNDEFINED> instruction: 0xf7007000
    10b4:	f425f72c 	vld1.8	{d15}, [r5 :128], ip
    10b8:	cccd0825 	stclgt	8, cr0, [sp], {37}	; 0x25
    10bc:	0000cccc 	andeq	ip, r0, ip, asr #25
    10c0:	081e0000 	ldmdaeq	lr, {}	; <UNPREDICTABLE>
    10c4:	2525f720 	strcs	pc, [r5, #-1824]!	; 0x720
    10c8:	25332cf7 	ldrcs	r2, [r3, #-3319]!	; 0xcf7
    10cc:	0001c09f 	muleq	r1, pc, r0	; <UNPREDICTABLE>
    10d0:	0001c400 	andeq	ip, r1, r0, lsl #8
    10d4:	53000100 	movwpl	r0, #256	; 0x100
    10d8:	000001c4 	andeq	r0, r0, r4, asr #3
    10dc:	000001cc 	andeq	r0, r0, ip, asr #3
    10e0:	0070001c 	rsbseq	r0, r0, ip, lsl r0
    10e4:	25f72cf7 	ldrbcs	r2, [r7, #3319]!	; 0xcf7
    10e8:	cd0825f4 	cfstr32gt	mvfx2, [r8, #-976]	; 0xfffffc30
    10ec:	00cccccc 	sbceq	ip, ip, ip, asr #25
    10f0:	1e000000 	cdpne	0, 0, cr0, cr0, cr0, {0}
    10f4:	25f72008 	ldrbcs	r2, [r7, #8]!
    10f8:	332cf725 	msrcc	CPSR_fs, #9699328	; 0x940000
    10fc:	01cc9f25 	biceq	r9, ip, r5, lsr #30
    1100:	01d00000 	bicseq	r0, r0, r0
    1104:	00010000 	andeq	r0, r1, r0
    1108:	0001d053 	andeq	sp, r1, r3, asr r0
    110c:	0001d400 	andeq	sp, r1, r0, lsl #8
    1110:	70001c00 	andvc	r1, r0, r0, lsl #24
    1114:	f72cf700 			; <UNDEFINED> instruction: 0xf72cf700
    1118:	0825f425 	stmdaeq	r5!, {r0, r2, r5, sl, ip, sp, lr, pc}
    111c:	cccccccd 	stclgt	12, cr12, [ip], {205}	; 0xcd
    1120:	00000000 	andeq	r0, r0, r0
    1124:	f720081e 			; <UNDEFINED> instruction: 0xf720081e
    1128:	2cf72525 	cfldr64cs	mvdx2, [r7], #148	; 0x94
    112c:	d49f2533 	ldrle	r2, [pc], #1331	; 1134 <_start-0x6ecc>
    1130:	dc000001 	stcle	0, cr0, [r0], {1}
    1134:	1c000001 	stcne	0, cr0, [r0], {1}
    1138:	f7007400 			; <UNDEFINED> instruction: 0xf7007400
    113c:	f425f72c 	vld1.8	{d15}, [r5 :128], ip
    1140:	cccd0825 	stclgt	8, cr0, [sp], {37}	; 0x25
    1144:	0000cccc 	andeq	ip, r0, ip, asr #25
    1148:	081e0000 	ldmdaeq	lr, {}	; <UNPREDICTABLE>
    114c:	2525f720 	strcs	pc, [r5, #-1824]!	; 0x720
    1150:	25332cf7 	ldrcs	r2, [r3, #-3319]!	; 0xcf7
    1154:	0001dc9f 	muleq	r1, pc, ip	; <UNPREDICTABLE>
    1158:	0001e000 	andeq	lr, r1, r0
    115c:	74001700 	strvc	r1, [r0], #-1792	; 0x700
    1160:	f72cf700 			; <UNDEFINED> instruction: 0xf72cf700
    1164:	f7007125 			; <UNDEFINED> instruction: 0xf7007125
    1168:	1e25f72c 	cdpne	7, 2, cr15, cr5, cr12, {1}
    116c:	25f72008 	ldrbcs	r2, [r7, #8]!
    1170:	332cf725 	msrcc	CPSR_fs, #9699328	; 0x940000
    1174:	01e09f25 	mvneq	r9, r5, lsr #30
    1178:	02100000 	andseq	r0, r0, #0
    117c:	001c0000 	andseq	r0, ip, r0
    1180:	2cf70074 	ldclcs	0, cr0, [r7], #464	; 0x1d0
    1184:	25f425f7 	ldrbcs	r2, [r4, #1527]!	; 0x5f7
    1188:	cccccd08 	stclgt	13, cr12, [ip], {8}
    118c:	000000cc 	andeq	r0, r0, ip, asr #1
    1190:	20081e00 	andcs	r1, r8, r0, lsl #28
    1194:	f72525f7 			; <UNDEFINED> instruction: 0xf72525f7
    1198:	9f25332c 	svcls	0x0025332c
	...
    11a4:	000001d8 	ldrdeq	r0, [r0], -r8
    11a8:	000001fc 	strdeq	r0, [r0], -ip
    11ac:	fc500001 	mrrc2	0, 0, r0, r0, cr1	; <UNPREDICTABLE>
    11b0:	03000001 	movweq	r0, #1
    11b4:	01000002 	tsteq	r0, r2
    11b8:	00005100 	andeq	r5, r0, r0, lsl #2
    11bc:	00000000 	andeq	r0, r0, r0
    11c0:	02100000 	andseq	r0, r0, #0
    11c4:	022c0000 	eoreq	r0, ip, #0
    11c8:	00010000 	andeq	r0, r1, r0
    11cc:	00022c50 	andeq	r2, r2, r0, asr ip
    11d0:	00023400 	andeq	r3, r2, r0, lsl #8
    11d4:	54000100 	strpl	r0, [r0], #-256	; 0x100
    11d8:	00000234 	andeq	r0, r0, r4, lsr r2
    11dc:	0000023c 	andeq	r0, r0, ip, lsr r2
    11e0:	3c500001 	mrrccc	0, 0, r0, r0, cr1	; <UNPREDICTABLE>
    11e4:	44000002 	strmi	r0, [r0], #-2
    11e8:	01000002 	tsteq	r0, r2
    11ec:	02445400 	subeq	r5, r4, #0, 8
    11f0:	02500000 	subseq	r0, r0, #0
    11f4:	00040000 	andeq	r0, r4, r0
    11f8:	9f5001f3 	svcls	0x005001f3
    11fc:	00000250 	andeq	r0, r0, r0, asr r2
    1200:	00000254 	andeq	r0, r0, r4, asr r2
    1204:	54500001 	ldrbpl	r0, [r0], #-1
    1208:	5c000002 	stcpl	0, cr0, [r0], {2}
    120c:	01000002 	tsteq	r0, r2
    1210:	00005400 	andeq	r5, r0, r0, lsl #8
    1214:	00000000 	andeq	r0, r0, r0
    1218:	02200000 	eoreq	r0, r0, #0
    121c:	02300000 	eorseq	r0, r0, #0
    1220:	00020000 	andeq	r0, r2, r0
    1224:	02309f30 	eorseq	r9, r0, #48, 30	; 0xc0
    1228:	02340000 	eorseq	r0, r4, #0
    122c:	00010000 	andeq	r0, r1, r0
    1230:	00023450 	andeq	r3, r2, r0, asr r4
    1234:	00024000 	andeq	r4, r2, r0
    1238:	30000200 	andcc	r0, r0, r0, lsl #4
    123c:	0002409f 	muleq	r2, pc, r0	; <UNPREDICTABLE>
    1240:	00024c00 	andeq	r4, r2, r0, lsl #24
    1244:	50000100 	andpl	r0, r0, r0, lsl #2
	...
    1250:	0000025c 	andeq	r0, r0, ip, asr r2
    1254:	00000273 	andeq	r0, r0, r3, ror r2
    1258:	73500001 	cmpvc	r0, #1
    125c:	78000002 	stmdavc	r0, {r1}
    1260:	04000002 	streq	r0, [r0], #-2
    1264:	5001f300 	andpl	pc, r1, r0, lsl #6
    1268:	0002789f 	muleq	r2, pc, r8	; <UNPREDICTABLE>
    126c:	00027b00 	andeq	r7, r2, r0, lsl #22
    1270:	50000100 	andpl	r0, r0, r0, lsl #2
    1274:	0000027b 	andeq	r0, r0, fp, ror r2
    1278:	00000280 	andeq	r0, r0, r0, lsl #5
    127c:	01f30004 	mvnseq	r0, r4
    1280:	00009f50 	andeq	r9, r0, r0, asr pc
    1284:	00000000 	andeq	r0, r0, r0
    1288:	025c0000 	subseq	r0, ip, #0
    128c:	02730000 	rsbseq	r0, r3, #0
    1290:	00010000 	andeq	r0, r1, r0
    1294:	00027351 	andeq	r7, r2, r1, asr r3
    1298:	00027800 	andeq	r7, r2, r0, lsl #16
    129c:	f3000400 	vshl.u8	d0, d0, d0
    12a0:	789f5101 	ldmvc	pc, {r0, r8, ip, lr}	; <UNPREDICTABLE>
    12a4:	7b000002 	blvc	12b4 <_start-0x6d4c>
    12a8:	01000002 	tsteq	r0, r2
    12ac:	027b5100 	rsbseq	r5, fp, #0, 2
    12b0:	02800000 	addeq	r0, r0, #0
    12b4:	00040000 	andeq	r0, r4, r0
    12b8:	9f5101f3 	svcls	0x005101f3
	...
    12c4:	00000280 	andeq	r0, r0, r0, lsl #5
    12c8:	00000318 	andeq	r0, r0, r8, lsl r3
    12cc:	18500001 	ldmdane	r0, {r0}^
    12d0:	58000003 	stmdapl	r0, {r0, r1}
    12d4:	01000003 	tsteq	r0, r3
    12d8:	00005400 	andeq	r5, r0, r0, lsl #8
    12dc:	00000000 	andeq	r0, r0, r0
    12e0:	02800000 	addeq	r0, r0, #0
    12e4:	031b0000 	tsteq	fp, #0
    12e8:	00010000 	andeq	r0, r1, r0
    12ec:	00031b51 	andeq	r1, r3, r1, asr fp
    12f0:	00035800 	andeq	r5, r3, r0, lsl #16
    12f4:	f3000400 	vshl.u8	d0, d0, d0
    12f8:	009f5101 	addseq	r5, pc, r1, lsl #2
    12fc:	00000000 	andeq	r0, r0, r0
    1300:	d0000000 	andle	r0, r0, r0
    1304:	d4000002 	strle	r0, [r0], #-2
    1308:	01000002 	tsteq	r0, r2
    130c:	02dc5600 	sbcseq	r5, ip, #0, 12
    1310:	02e00000 	rsceq	r0, r0, #0
    1314:	00010000 	andeq	r0, r1, r0
    1318:	0002e856 	andeq	lr, r2, r6, asr r8
    131c:	0002ec00 	andeq	lr, r2, r0, lsl #24
    1320:	56000100 	strpl	r0, [r0], -r0, lsl #2
    1324:	000002f4 	strdeq	r0, [r0], -r4
    1328:	000002f8 	strdeq	r0, [r0], -r8
    132c:	00560001 	subseq	r0, r6, r1
    1330:	04000003 	streq	r0, [r0], #-3
    1334:	01000003 	tsteq	r0, r3
    1338:	030c5600 	movweq	r5, #50688	; 0xc600
    133c:	03100000 	tsteq	r0, #0
    1340:	00010000 	andeq	r0, r1, r0
    1344:	00031456 	andeq	r1, r3, r6, asr r4
    1348:	00035800 	andeq	r5, r3, r0, lsl #16
    134c:	56000100 	strpl	r0, [r0], -r0, lsl #2
	...
    1358:	000002a4 	andeq	r0, r0, r4, lsr #5
    135c:	000002cc 	andeq	r0, r0, ip, asr #5
    1360:	cc530001 	mrrcgt	0, 0, r0, r3, cr1
    1364:	d4000002 	strle	r0, [r0], #-2
    1368:	1c000002 	stcne	0, cr0, [r0], {2}
    136c:	f7007000 			; <UNDEFINED> instruction: 0xf7007000
    1370:	f425f72c 	vld1.8	{d15}, [r5 :128], ip
    1374:	cccd0825 	stclgt	8, cr0, [sp], {37}	; 0x25
    1378:	0000cccc 	andeq	ip, r0, ip, asr #25
    137c:	081e0000 	ldmdaeq	lr, {}	; <UNPREDICTABLE>
    1380:	2525f720 	strcs	pc, [r5, #-1824]!	; 0x720
    1384:	25332cf7 	ldrcs	r2, [r3, #-3319]!	; 0xcf7
    1388:	0002d49f 	muleq	r2, pc, r4	; <UNPREDICTABLE>
    138c:	0002d800 	andeq	sp, r2, r0, lsl #16
    1390:	53000100 	movwpl	r0, #256	; 0x100
    1394:	000002d8 	ldrdeq	r0, [r0], -r8
    1398:	000002e0 	andeq	r0, r0, r0, ror #5
    139c:	0070001c 	rsbseq	r0, r0, ip, lsl r0
    13a0:	25f72cf7 	ldrbcs	r2, [r7, #3319]!	; 0xcf7
    13a4:	cd0825f4 	cfstr32gt	mvfx2, [r8, #-976]	; 0xfffffc30
    13a8:	00cccccc 	sbceq	ip, ip, ip, asr #25
    13ac:	1e000000 	cdpne	0, 0, cr0, cr0, cr0, {0}
    13b0:	25f72008 	ldrbcs	r2, [r7, #8]!
    13b4:	332cf725 	msrcc	CPSR_fs, #9699328	; 0x940000
    13b8:	02e09f25 	rsceq	r9, r0, #37, 30	; 0x94
    13bc:	02e40000 	rsceq	r0, r4, #0
    13c0:	00010000 	andeq	r0, r1, r0
    13c4:	0002e453 	andeq	lr, r2, r3, asr r4
    13c8:	0002ec00 	andeq	lr, r2, r0, lsl #24
    13cc:	70001c00 	andvc	r1, r0, r0, lsl #24
    13d0:	f72cf700 			; <UNDEFINED> instruction: 0xf72cf700
    13d4:	0825f425 	stmdaeq	r5!, {r0, r2, r5, sl, ip, sp, lr, pc}
    13d8:	cccccccd 	stclgt	12, cr12, [ip], {205}	; 0xcd
    13dc:	00000000 	andeq	r0, r0, r0
    13e0:	f720081e 			; <UNDEFINED> instruction: 0xf720081e
    13e4:	2cf72525 	cfldr64cs	mvdx2, [r7], #148	; 0x94
    13e8:	ec9f2533 	cfldr32	mvfx2, [pc], {51}	; 0x33
    13ec:	f0000002 			; <UNDEFINED> instruction: 0xf0000002
    13f0:	01000002 	tsteq	r0, r2
    13f4:	02f05300 	rscseq	r5, r0, #0, 6
    13f8:	02f80000 	rscseq	r0, r8, #0
    13fc:	001c0000 	andseq	r0, ip, r0
    1400:	2cf70070 	ldclcs	0, cr0, [r7], #448	; 0x1c0
    1404:	25f425f7 	ldrbcs	r2, [r4, #1527]!	; 0x5f7
    1408:	cccccd08 	stclgt	13, cr12, [ip], {8}
    140c:	000000cc 	andeq	r0, r0, ip, asr #1
    1410:	20081e00 	andcs	r1, r8, r0, lsl #28
    1414:	f72525f7 			; <UNDEFINED> instruction: 0xf72525f7
    1418:	9f25332c 	svcls	0x0025332c
    141c:	000002f8 	strdeq	r0, [r0], -r8
    1420:	000002fc 	strdeq	r0, [r0], -ip
    1424:	fc530001 	mrrc2	0, 0, r0, r3, cr1
    1428:	04000002 	streq	r0, [r0], #-2
    142c:	1c000003 	stcne	0, cr0, [r0], {3}
    1430:	f7007000 			; <UNDEFINED> instruction: 0xf7007000
    1434:	f425f72c 	vld1.8	{d15}, [r5 :128], ip
    1438:	cccd0825 	stclgt	8, cr0, [sp], {37}	; 0x25
    143c:	0000cccc 	andeq	ip, r0, ip, asr #25
    1440:	081e0000 	ldmdaeq	lr, {}	; <UNPREDICTABLE>
    1444:	2525f720 	strcs	pc, [r5, #-1824]!	; 0x720
    1448:	25332cf7 	ldrcs	r2, [r3, #-3319]!	; 0xcf7
    144c:	0003049f 	muleq	r3, pc, r4	; <UNPREDICTABLE>
    1450:	00030800 	andeq	r0, r3, r0, lsl #16
    1454:	53000100 	movwpl	r0, #256	; 0x100
    1458:	00000308 	andeq	r0, r0, r8, lsl #6
    145c:	00000310 	andeq	r0, r0, r0, lsl r3
    1460:	0070001c 	rsbseq	r0, r0, ip, lsl r0
    1464:	25f72cf7 	ldrbcs	r2, [r7, #3319]!	; 0xcf7
    1468:	cd0825f4 	cfstr32gt	mvfx2, [r8, #-976]	; 0xfffffc30
    146c:	00cccccc 	sbceq	ip, ip, ip, asr #25
    1470:	1e000000 	cdpne	0, 0, cr0, cr0, cr0, {0}
    1474:	25f72008 	ldrbcs	r2, [r7, #8]!
    1478:	332cf725 	msrcc	CPSR_fs, #9699328	; 0x940000
    147c:	03109f25 	tsteq	r0, #37, 30	; 0x94
    1480:	03140000 	tsteq	r4, #0
    1484:	00010000 	andeq	r0, r1, r0
    1488:	00031453 	andeq	r1, r3, r3, asr r4
    148c:	00031800 	andeq	r1, r3, r0, lsl #16
    1490:	70001c00 	andvc	r1, r0, r0, lsl #24
    1494:	f72cf700 			; <UNDEFINED> instruction: 0xf72cf700
    1498:	0825f425 	stmdaeq	r5!, {r0, r2, r5, sl, ip, sp, lr, pc}
    149c:	cccccccd 	stclgt	12, cr12, [ip], {205}	; 0xcd
    14a0:	00000000 	andeq	r0, r0, r0
    14a4:	f720081e 			; <UNDEFINED> instruction: 0xf720081e
    14a8:	2cf72525 	cfldr64cs	mvdx2, [r7], #148	; 0x94
    14ac:	189f2533 	ldmne	pc, {r0, r1, r4, r5, r8, sl, sp}	; <UNPREDICTABLE>
    14b0:	20000003 	andcs	r0, r0, r3
    14b4:	1c000003 	stcne	0, cr0, [r0], {3}
    14b8:	f7007400 			; <UNDEFINED> instruction: 0xf7007400
    14bc:	f425f72c 	vld1.8	{d15}, [r5 :128], ip
    14c0:	cccd0825 	stclgt	8, cr0, [sp], {37}	; 0x25
    14c4:	0000cccc 	andeq	ip, r0, ip, asr #25
    14c8:	081e0000 	ldmdaeq	lr, {}	; <UNPREDICTABLE>
    14cc:	2525f720 	strcs	pc, [r5, #-1824]!	; 0x720
    14d0:	25332cf7 	ldrcs	r2, [r3, #-3319]!	; 0xcf7
    14d4:	0003209f 	muleq	r3, pc, r0	; <UNPREDICTABLE>
    14d8:	00032400 	andeq	r2, r3, r0, lsl #8
    14dc:	74001700 	strvc	r1, [r0], #-1792	; 0x700
    14e0:	f72cf700 			; <UNDEFINED> instruction: 0xf72cf700
    14e4:	f7007325 			; <UNDEFINED> instruction: 0xf7007325
    14e8:	1e25f72c 	cdpne	7, 2, cr15, cr5, cr12, {1}
    14ec:	25f72008 	ldrbcs	r2, [r7, #8]!
    14f0:	332cf725 	msrcc	CPSR_fs, #9699328	; 0x940000
    14f4:	03249f25 	teqeq	r4, #37, 30	; 0x94
    14f8:	03580000 	cmpeq	r8, #0
    14fc:	001c0000 	andseq	r0, ip, r0
    1500:	2cf70074 	ldclcs	0, cr0, [r7], #464	; 0x1d0
    1504:	25f425f7 	ldrbcs	r2, [r4, #1527]!	; 0x5f7
    1508:	cccccd08 	stclgt	13, cr12, [ip], {8}
    150c:	000000cc 	andeq	r0, r0, ip, asr #1
    1510:	20081e00 	andcs	r1, r8, r0, lsl #28
    1514:	f72525f7 			; <UNDEFINED> instruction: 0xf72525f7
    1518:	9f25332c 	svcls	0x0025332c
	...
    1524:	0000031c 	andeq	r0, r0, ip, lsl r3
    1528:	00000340 	andeq	r0, r0, r0, asr #6
    152c:	40500001 	subsmi	r0, r0, r1
    1530:	48000003 	stmdami	r0, {r0, r1}
    1534:	09000003 	stmdbeq	r0, {r0, r1}
    1538:	73007500 	movwvc	r7, #1280	; 0x500
    153c:	00712400 	rsbseq	r2, r1, r0, lsl #8
    1540:	03489f21 	movteq	r9, #36641	; 0x8f21
    1544:	034b0000 	movteq	r0, #45056	; 0xb000
    1548:	00010000 	andeq	r0, r1, r0
    154c:	00000051 	andeq	r0, r0, r1, asr r0
    1550:	00000000 	andeq	r0, r0, r0
    1554:	00035800 	andeq	r5, r3, r0, lsl #16
    1558:	00037c00 	andeq	r7, r3, r0, lsl #24
    155c:	50000100 	andpl	r0, r0, r0, lsl #2
    1560:	0000037c 	andeq	r0, r0, ip, ror r3
    1564:	00000390 	muleq	r0, r0, r3
    1568:	01f30004 	mvnseq	r0, r4
    156c:	00009f50 	andeq	r9, r0, r0, asr pc
    1570:	00000000 	andeq	r0, r0, r0
    1574:	03640000 	cmneq	r4, #0
    1578:	036c0000 	cmneq	ip, #0
    157c:	00020000 	andeq	r0, r2, r0
    1580:	036c9f30 	cmneq	ip, #48, 30	; 0xc0
    1584:	036c0000 	cmneq	ip, #0
    1588:	00010000 	andeq	r0, r1, r0
    158c:	00036c52 	andeq	r6, r3, r2, asr ip
    1590:	00037400 	andeq	r7, r3, r0, lsl #8
    1594:	30000200 	andcc	r0, r0, r0, lsl #4
    1598:	0003749f 	muleq	r3, pc, r4	; <UNPREDICTABLE>
    159c:	00038700 	andeq	r8, r3, r0, lsl #14
    15a0:	52000100 	andpl	r0, r0, #0, 2
	...
    15ac:	00000364 	andeq	r0, r0, r4, ror #6
    15b0:	00000378 	andeq	r0, r0, r8, ror r3
    15b4:	9f300002 	svcls	0x00300002
    15b8:	00000378 	andeq	r0, r0, r8, ror r3
    15bc:	00000384 	andeq	r0, r0, r4, lsl #7
    15c0:	73310005 	teqvc	r1, #5
    15c4:	849f2400 	ldrhi	r2, [pc], #1024	; 15cc <_start-0x6a34>
    15c8:	87000003 	strhi	r0, [r0, -r3]
    15cc:	01000003 	tsteq	r0, r3
    15d0:	03875100 	orreq	r5, r7, #0, 2
    15d4:	03900000 	orrseq	r0, r0, #0
    15d8:	00080000 	andeq	r0, r8, r0
    15dc:	5001f331 	andpl	pc, r1, r1, lsr r3	; <UNPREDICTABLE>
    15e0:	9f241a4f 	svcls	0x00241a4f
	...
    15ec:	00000390 	muleq	r0, r0, r3
    15f0:	0000039c 	muleq	r0, ip, r3
    15f4:	9c500001 	mrrcls	0, 0, r0, r0, cr1	; <UNPREDICTABLE>
    15f8:	bc000003 	stclt	0, cr0, [r0], {3}
    15fc:	04000003 	streq	r0, [r0], #-3
    1600:	5001f300 	andpl	pc, r1, r0, lsl #6
    1604:	0000009f 	muleq	r0, pc, r0	; <UNPREDICTABLE>
    1608:	00000000 	andeq	r0, r0, r0
    160c:	0003bc00 	andeq	fp, r3, r0, lsl #24
    1610:	0003cf00 	andeq	ip, r3, r0, lsl #30
    1614:	50000100 	andpl	r0, r0, r0, lsl #2
    1618:	000003cf 	andeq	r0, r0, pc, asr #7
    161c:	00000408 	andeq	r0, r0, r8, lsl #8
    1620:	08540001 	ldmdaeq	r4, {r0}^
    1624:	40000004 	andmi	r0, r0, r4
    1628:	04000004 	streq	r0, [r0], #-4
    162c:	5001f300 	andpl	pc, r1, r0, lsl #6
    1630:	0000009f 	muleq	r0, pc, r0	; <UNPREDICTABLE>
    1634:	00000000 	andeq	r0, r0, r0
    1638:	00042800 	andeq	r2, r4, r0, lsl #16
    163c:	00042c00 	andeq	r2, r4, r0, lsl #24
    1640:	50000100 	andpl	r0, r0, r0, lsl #2
    1644:	0000042c 	andeq	r0, r0, ip, lsr #8
    1648:	00000433 	andeq	r0, r0, r3, lsr r4
    164c:	00510001 	subseq	r0, r1, r1
    1650:	00000000 	andeq	r0, r0, r0
    1654:	e4000000 	str	r0, [r0], #-0
    1658:	ec000003 	stc	0, cr0, [r0], {3}
    165c:	01000003 	tsteq	r0, r3
    1660:	03ec5000 	mvneq	r5, #0
    1664:	03f30000 	mvnseq	r0, #0
    1668:	00010000 	andeq	r0, r1, r0
    166c:	00000051 	andeq	r0, r0, r1, asr r0
    1670:	00000000 	andeq	r0, r0, r0
    1674:	00040400 	andeq	r0, r4, r0, lsl #8
    1678:	00041000 	andeq	r1, r4, r0
    167c:	50000100 	andpl	r0, r0, r0, lsl #2
    1680:	00000410 	andeq	r0, r0, r0, lsl r4
    1684:	00000417 	andeq	r0, r0, r7, lsl r4
    1688:	00510001 	subseq	r0, r1, r1
    168c:	00000000 	andeq	r0, r0, r0
    1690:	40000000 	andmi	r0, r0, r0
    1694:	53000004 	movwpl	r0, #4
    1698:	01000004 	tsteq	r0, r4
    169c:	04535000 	ldrbeq	r5, [r3], #-0
    16a0:	048c0000 	streq	r0, [ip], #0
    16a4:	00010000 	andeq	r0, r1, r0
    16a8:	00048c54 	andeq	r8, r4, r4, asr ip
    16ac:	0004c400 	andeq	ip, r4, r0, lsl #8
    16b0:	f3000400 	vshl.u8	d0, d0, d0
    16b4:	009f5001 	addseq	r5, pc, r1
    16b8:	00000000 	andeq	r0, r0, r0
    16bc:	ac000000 	stcge	0, cr0, [r0], {-0}
    16c0:	b0000004 	andlt	r0, r0, r4
    16c4:	01000004 	tsteq	r0, r4
    16c8:	04b05000 	ldrteq	r5, [r0], #0
    16cc:	04b70000 	ldrteq	r0, [r7], #0
    16d0:	00010000 	andeq	r0, r1, r0
    16d4:	00000051 	andeq	r0, r0, r1, asr r0
    16d8:	00000000 	andeq	r0, r0, r0
    16dc:	00046800 	andeq	r6, r4, r0, lsl #16
    16e0:	00047000 	andeq	r7, r4, r0
    16e4:	50000100 	andpl	r0, r0, r0, lsl #2
    16e8:	00000470 	andeq	r0, r0, r0, ror r4
    16ec:	00000477 	andeq	r0, r0, r7, ror r4
    16f0:	00510001 	subseq	r0, r1, r1
    16f4:	00000000 	andeq	r0, r0, r0
    16f8:	88000000 	stmdahi	r0, {}	; <UNPREDICTABLE>
    16fc:	94000004 	strls	r0, [r0], #-4
    1700:	01000004 	tsteq	r0, r4
    1704:	04945000 	ldreq	r5, [r4], #0
    1708:	049b0000 	ldreq	r0, [fp], #0
    170c:	00010000 	andeq	r0, r1, r0
    1710:	00000051 	andeq	r0, r0, r1, asr r0
    1714:	00000000 	andeq	r0, r0, r0
    1718:	0004c400 	andeq	ip, r4, r0, lsl #8
    171c:	0004d700 	andeq	sp, r4, r0, lsl #14
    1720:	50000100 	andpl	r0, r0, r0, lsl #2
    1724:	000004d7 	ldrdeq	r0, [r0], -r7
    1728:	00000518 	andeq	r0, r0, r8, lsl r5
    172c:	18540001 	ldmdane	r4, {r0}^
    1730:	3c000005 	stccc	0, cr0, [r0], {5}
    1734:	04000005 	streq	r0, [r0], #-5
    1738:	5001f300 	andpl	pc, r1, r0, lsl #6
    173c:	00053c9f 	muleq	r5, pc, ip	; <UNPREDICTABLE>
    1740:	00054000 	andeq	r4, r5, r0
    1744:	50000100 	andpl	r0, r0, r0, lsl #2
    1748:	00000540 	andeq	r0, r0, r0, asr #10
    174c:	00000548 	andeq	r0, r0, r8, asr #10
    1750:	00540001 	subseq	r0, r4, r1
    1754:	00000000 	andeq	r0, r0, r0
    1758:	ec000000 	stc	0, cr0, [r0], {-0}
    175c:	fb000004 	blx	1776 <_start-0x688a>
    1760:	08000004 	stmdaeq	r0, {r2}
    1764:	00743100 	rsbseq	r3, r4, r0, lsl #2
    1768:	1a007024 	bne	1d800 <__bss_end__+0x137c0>
    176c:	0000009f 	muleq	r0, pc, r0	; <UNPREDICTABLE>
    1770:	00000000 	andeq	r0, r0, r0
    1774:	00051800 	andeq	r1, r5, r0, lsl #16
    1778:	00053000 	andeq	r3, r5, r0
    177c:	54000100 	strpl	r0, [r0], #-256	; 0x100
	...
    1788:	00000548 	andeq	r0, r0, r8, asr #10
    178c:	0000055b 	andeq	r0, r0, fp, asr r5
    1790:	5b500001 	blpl	140179c <__bss_end__+0x13f775c>
    1794:	80000005 	andhi	r0, r0, r5
    1798:	01000005 	tsteq	r0, r5
    179c:	05805400 	streq	r5, [r0, #1024]	; 0x400
    17a0:	05a00000 	streq	r0, [r0, #0]!
    17a4:	00040000 	andeq	r0, r4, r0
    17a8:	9f5001f3 	svcls	0x005001f3
	...
    17b8:	00000018 	andeq	r0, r0, r8, lsl r0
    17bc:	18500001 	ldmdane	r0, {r0}^
    17c0:	54000000 	strpl	r0, [r0], #-0
    17c4:	04000001 	streq	r0, [r0], #-1
    17c8:	5001f300 	andpl	pc, r1, r0, lsl #6
    17cc:	0000009f 	muleq	r0, pc, r0	; <UNPREDICTABLE>
	...
    17d8:	00001c00 	andeq	r1, r0, r0, lsl #24
    17dc:	51000100 	mrspl	r0, (UNDEF: 16)
    17e0:	0000001c 	andeq	r0, r0, ip, lsl r0
    17e4:	00000154 	andeq	r0, r0, r4, asr r1
    17e8:	01f30004 	mvnseq	r0, r4
    17ec:	00009f51 	andeq	r9, r0, r1, asr pc
    17f0:	00000000 	andeq	r0, r0, r0
    17f4:	00100000 	andseq	r0, r0, r0
    17f8:	01340000 	teqeq	r4, r0
    17fc:	00010000 	andeq	r0, r1, r0
    1800:	00000055 	andeq	r0, r0, r5, asr r0
    1804:	00000000 	andeq	r0, r0, r0
    1808:	00001000 	andeq	r1, r0, r0
    180c:	00003400 	andeq	r3, r0, r0, lsl #8
    1810:	55000100 	strpl	r0, [r0, #-256]	; 0x100
    1814:	00000034 	andeq	r0, r0, r4, lsr r0
    1818:	00000134 	andeq	r0, r0, r4, lsr r1
    181c:	34580001 	ldrbcc	r0, [r8], #-1
    1820:	54000001 	strpl	r0, [r0], #-1
    1824:	01000001 	tsteq	r0, r1
    1828:	00005500 	andeq	r5, r0, r0, lsl #10
    182c:	00000000 	andeq	r0, r0, r0
    1830:	00140000 	andseq	r0, r4, r0
    1834:	01340000 	teqeq	r4, r0
    1838:	00010000 	andeq	r0, r1, r0
    183c:	00000055 	andeq	r0, r0, r5, asr r0
    1840:	00000000 	andeq	r0, r0, r0
    1844:	00002000 	andeq	r2, r0, r0
    1848:	00013400 	andeq	r3, r1, r0, lsl #8
    184c:	55000100 	strpl	r0, [r0, #-256]	; 0x100
	...
    1858:	00000024 	andeq	r0, r0, r4, lsr #32
    185c:	00000028 	andeq	r0, r0, r8, lsr #32
    1860:	00530001 	subseq	r0, r3, r1
    1864:	00000000 	andeq	r0, r0, r0
    1868:	34000000 	strcc	r0, [r0], #-0
    186c:	54000000 	strpl	r0, [r0], #-0
    1870:	01000000 	mrseq	r0, (UNDEF: 0)
    1874:	00545800 	subseq	r5, r4, r0, lsl #16
    1878:	01340000 	teqeq	r4, r0
    187c:	00050000 	andeq	r0, r5, r0
    1880:	24310075 	ldrtcs	r0, [r1], #-117	; 0x75
    1884:	0000009f 	muleq	r0, pc, r0	; <UNPREDICTABLE>
    1888:	00000000 	andeq	r0, r0, r0
    188c:	00003400 	andeq	r3, r0, r0, lsl #8
    1890:	00003c00 	andeq	r3, r0, r0, lsl #24
    1894:	77000500 	strvc	r0, [r0, -r0, lsl #10]
    1898:	9f1a3100 	svcls	0x001a3100
    189c:	0000003c 	andeq	r0, r0, ip, lsr r0
    18a0:	0000003f 	andeq	r0, r0, pc, lsr r0
    18a4:	3f510001 	svccc	0x00510001
    18a8:	54000000 	strpl	r0, [r0], #-0
    18ac:	05000001 	streq	r0, [r0, #-1]
    18b0:	31007700 	tstcc	r0, r0, lsl #14
    18b4:	00009f1a 	andeq	r9, r0, sl, lsl pc
    18b8:	00000000 	andeq	r0, r0, r0
    18bc:	00400000 	subeq	r0, r0, r0
    18c0:	00540000 	subseq	r0, r4, r0
    18c4:	00010000 	andeq	r0, r1, r0
    18c8:	00005458 	andeq	r5, r0, r8, asr r4
    18cc:	00013400 	andeq	r3, r1, r0, lsl #8
    18d0:	75000500 	strvc	r0, [r0, #-1280]	; 0x500
    18d4:	9f243100 	svcls	0x00243100
	...
    18e0:	00000044 	andeq	r0, r0, r4, asr #32
    18e4:	00000048 	andeq	r0, r0, r8, asr #32
    18e8:	00530001 	subseq	r0, r3, r1
    18ec:	00000000 	andeq	r0, r0, r0
    18f0:	54000000 	strpl	r0, [r0], #-0
    18f4:	74000000 	strvc	r0, [r0], #-0
    18f8:	01000000 	mrseq	r0, (UNDEF: 0)
    18fc:	00745800 	rsbseq	r5, r4, r0, lsl #16
    1900:	01340000 	teqeq	r4, r0
    1904:	00080000 	andeq	r0, r8, r0
    1908:	24310075 	ldrtcs	r0, [r1], #-117	; 0x75
    190c:	9f220075 	svcls	0x00220075
	...
    1918:	00000060 	andeq	r0, r0, r0, rrx
    191c:	00000074 	andeq	r0, r0, r4, ror r0
    1920:	74580001 	ldrbvc	r0, [r8], #-1
    1924:	34000000 	strcc	r0, [r0], #-0
    1928:	08000001 	stmdaeq	r0, {r0}
    192c:	31007500 	tstcc	r0, r0, lsl #10
    1930:	22007524 	andcs	r7, r0, #36, 10	; 0x9000000
    1934:	0000009f 	muleq	r0, pc, r0	; <UNPREDICTABLE>
    1938:	00000000 	andeq	r0, r0, r0
    193c:	00006400 	andeq	r6, r0, r0, lsl #8
    1940:	00006800 	andeq	r6, r0, r0, lsl #16
    1944:	53000100 	movwpl	r0, #256	; 0x100
	...
    1950:	00000074 	andeq	r0, r0, r4, ror r0
    1954:	00000094 	muleq	r0, r4, r0
    1958:	94580001 	ldrbls	r0, [r8], #-1
    195c:	34000000 	strcc	r0, [r0], #-0
    1960:	05000001 	streq	r0, [r0, #-1]
    1964:	32007500 	andcc	r7, r0, #0, 10
    1968:	00009f24 	andeq	r9, r0, r4, lsr #30
    196c:	00000000 	andeq	r0, r0, r0
    1970:	00800000 	addeq	r0, r0, r0
    1974:	00940000 	addseq	r0, r4, r0
    1978:	00010000 	andeq	r0, r1, r0
    197c:	00009458 	andeq	r9, r0, r8, asr r4
    1980:	00013400 	andeq	r3, r1, r0, lsl #8
    1984:	75000500 	strvc	r0, [r0, #-1280]	; 0x500
    1988:	9f243200 	svcls	0x00243200
	...
    1994:	00000084 	andeq	r0, r0, r4, lsl #1
    1998:	00000088 	andeq	r0, r0, r8, lsl #1
    199c:	00530001 	subseq	r0, r3, r1
    19a0:	00000000 	andeq	r0, r0, r0
    19a4:	94000000 	strls	r0, [r0], #-0
    19a8:	b4000000 	strlt	r0, [r0], #-0
    19ac:	01000000 	mrseq	r0, (UNDEF: 0)
    19b0:	00b45800 	adcseq	r5, r4, r0, lsl #16
    19b4:	01340000 	teqeq	r4, r0
    19b8:	00080000 	andeq	r0, r8, r0
    19bc:	24320075 	ldrtcs	r0, [r2], #-117	; 0x75
    19c0:	9f220075 	svcls	0x00220075
	...
    19cc:	000000a0 	andeq	r0, r0, r0, lsr #1
    19d0:	000000b4 	strheq	r0, [r0], -r4
    19d4:	b4580001 	ldrblt	r0, [r8], #-1
    19d8:	34000000 	strcc	r0, [r0], #-0
    19dc:	08000001 	stmdaeq	r0, {r0}
    19e0:	32007500 	andcc	r7, r0, #0, 10
    19e4:	22007524 	andcs	r7, r0, #36, 10	; 0x9000000
    19e8:	0000009f 	muleq	r0, pc, r0	; <UNPREDICTABLE>
    19ec:	00000000 	andeq	r0, r0, r0
    19f0:	0000a400 	andeq	sl, r0, r0, lsl #8
    19f4:	0000a800 	andeq	sl, r0, r0, lsl #16
    19f8:	53000100 	movwpl	r0, #256	; 0x100
	...
    1a04:	000000b4 	strheq	r0, [r0], -r4
    1a08:	000000d4 	ldrdeq	r0, [r0], -r4
    1a0c:	d4580001 	ldrble	r0, [r8], #-1
    1a10:	34000000 	strcc	r0, [r0], #-0
    1a14:	0a000001 	beq	1a20 <_start-0x65e0>
    1a18:	32007500 	andcc	r7, r0, #0, 10
    1a1c:	31007524 	tstcc	r0, r4, lsr #10
    1a20:	009f2224 	addseq	r2, pc, r4, lsr #4
    1a24:	00000000 	andeq	r0, r0, r0
    1a28:	c0000000 	andgt	r0, r0, r0
    1a2c:	d4000000 	strle	r0, [r0], #-0
    1a30:	01000000 	mrseq	r0, (UNDEF: 0)
    1a34:	00d45800 	sbcseq	r5, r4, r0, lsl #16
    1a38:	01340000 	teqeq	r4, r0
    1a3c:	000a0000 	andeq	r0, sl, r0
    1a40:	24320075 	ldrtcs	r0, [r2], #-117	; 0x75
    1a44:	24310075 	ldrtcs	r0, [r1], #-117	; 0x75
    1a48:	00009f22 	andeq	r9, r0, r2, lsr #30
    1a4c:	00000000 	andeq	r0, r0, r0
    1a50:	00c40000 	sbceq	r0, r4, r0
    1a54:	00c80000 	sbceq	r0, r8, r0
    1a58:	00010000 	andeq	r0, r1, r0
    1a5c:	00000053 	andeq	r0, r0, r3, asr r0
    1a60:	00000000 	andeq	r0, r0, r0
    1a64:	0000d400 	andeq	sp, r0, r0, lsl #8
    1a68:	0000f400 	andeq	pc, r0, r0, lsl #8
    1a6c:	58000100 	stmdapl	r0, {r8}
    1a70:	000000f4 	strdeq	r0, [r0], -r4
    1a74:	00000134 	andeq	r0, r0, r4, lsr r1
    1a78:	0075000d 	rsbseq	r0, r5, sp
    1a7c:	00752432 	rsbseq	r2, r5, r2, lsr r4
    1a80:	75222431 	strvc	r2, [r2, #-1073]!	; 0x431
    1a84:	009f2200 	addseq	r2, pc, r0, lsl #4
    1a88:	00000000 	andeq	r0, r0, r0
    1a8c:	e0000000 	and	r0, r0, r0
    1a90:	f4000000 	vst4.8	{d0-d3}, [r0], r0
    1a94:	01000000 	mrseq	r0, (UNDEF: 0)
    1a98:	00f45800 	rscseq	r5, r4, r0, lsl #16
    1a9c:	01340000 	teqeq	r4, r0
    1aa0:	000d0000 	andeq	r0, sp, r0
    1aa4:	24320075 	ldrtcs	r0, [r2], #-117	; 0x75
    1aa8:	24310075 	ldrtcs	r0, [r1], #-117	; 0x75
    1aac:	22007522 	andcs	r7, r0, #142606336	; 0x8800000
    1ab0:	0000009f 	muleq	r0, pc, r0	; <UNPREDICTABLE>
    1ab4:	00000000 	andeq	r0, r0, r0
    1ab8:	0000e400 	andeq	lr, r0, r0, lsl #8
    1abc:	0000e800 	andeq	lr, r0, r0, lsl #16
    1ac0:	53000100 	movwpl	r0, #256	; 0x100
	...
    1acc:	000000f4 	strdeq	r0, [r0], -r4
    1ad0:	00000114 	andeq	r0, r0, r4, lsl r1
    1ad4:	14580001 	ldrbne	r0, [r8], #-1
    1ad8:	34000001 	strcc	r0, [r0], #-1
    1adc:	05000001 	streq	r0, [r0, #-1]
    1ae0:	33007500 	movwcc	r7, #1280	; 0x500
    1ae4:	00009f24 	andeq	r9, r0, r4, lsr #30
    1ae8:	00000000 	andeq	r0, r0, r0
    1aec:	01000000 	mrseq	r0, (UNDEF: 0)
    1af0:	01140000 	tsteq	r4, r0
    1af4:	00010000 	andeq	r0, r1, r0
    1af8:	00011458 	andeq	r1, r1, r8, asr r4
    1afc:	00013400 	andeq	r3, r1, r0, lsl #8
    1b00:	75000500 	strvc	r0, [r0, #-1280]	; 0x500
    1b04:	9f243300 	svcls	0x00243300
	...
    1b10:	00000104 	andeq	r0, r0, r4, lsl #2
    1b14:	00000108 	andeq	r0, r0, r8, lsl #2
    1b18:	00530001 	subseq	r0, r3, r1
    1b1c:	00000000 	andeq	r0, r0, r0
    1b20:	14000000 	strne	r0, [r0], #-0
    1b24:	1c000001 	stcne	0, cr0, [r0], {1}
    1b28:	06000001 	streq	r0, [r0], -r1
    1b2c:	08007700 	stmdaeq	r0, {r8, r9, sl, ip, sp, lr}
    1b30:	1c9f1a80 	vldmiane	pc, {s2-s129}
    1b34:	1f000001 	svcne	0x00000001
    1b38:	01000001 	tsteq	r0, r1
    1b3c:	011f5100 	tsteq	pc, r0, lsl #2
    1b40:	01540000 	cmpeq	r4, r0
    1b44:	00060000 	andeq	r0, r6, r0
    1b48:	80080077 	andhi	r0, r8, r7, ror r0
    1b4c:	00009f1a 	andeq	r9, r0, sl, lsl pc
    1b50:	00000000 	andeq	r0, r0, r0
    1b54:	01240000 	teqeq	r4, r0
    1b58:	01280000 	teqeq	r8, r0
    1b5c:	00010000 	andeq	r0, r1, r0
    1b60:	00000053 	andeq	r0, r0, r3, asr r0
    1b64:	00000000 	andeq	r0, r0, r0
    1b68:	00014400 	andeq	r4, r1, r0, lsl #8
    1b6c:	00014800 	andeq	r4, r1, r0, lsl #16
    1b70:	53000100 	movwpl	r0, #256	; 0x100
	...
    1b7c:	00000154 	andeq	r0, r0, r4, asr r1
    1b80:	0000016b 	andeq	r0, r0, fp, ror #2
    1b84:	6b500001 	blvs	1401b90 <__bss_end__+0x13f7b50>
    1b88:	d0000001 	andle	r0, r0, r1
    1b8c:	01000001 	tsteq	r0, r1
    1b90:	01d05900 	bicseq	r5, r0, r0, lsl #18
    1b94:	030c0000 	movweq	r0, #49152	; 0xc000
    1b98:	00040000 	andeq	r0, r4, r0
    1b9c:	9f5001f3 	svcls	0x005001f3
    1ba0:	0000030c 	andeq	r0, r0, ip, lsl #6
    1ba4:	00000314 	andeq	r0, r0, r4, lsl r3
    1ba8:	14590001 	ldrbne	r0, [r9], #-1
    1bac:	1c000003 	stcne	0, cr0, [r0], {3}
    1bb0:	04000003 	streq	r0, [r0], #-3
    1bb4:	5001f300 	andpl	pc, r1, r0, lsl #6
    1bb8:	0000009f 	muleq	r0, pc, r0	; <UNPREDICTABLE>
    1bbc:	00000000 	andeq	r0, r0, r0
    1bc0:	00015400 	andeq	r5, r1, r0, lsl #8
    1bc4:	00016b00 	andeq	r6, r1, r0, lsl #22
    1bc8:	51000100 	mrspl	r0, (UNDEF: 16)
    1bcc:	0000016b 	andeq	r0, r0, fp, ror #2
    1bd0:	0000031c 	andeq	r0, r0, ip, lsl r3
    1bd4:	00560001 	subseq	r0, r6, r1
    1bd8:	00000000 	andeq	r0, r0, r0
    1bdc:	a8000000 	stmdage	r0, {}	; <UNPREDICTABLE>
    1be0:	98000001 	stmdals	r0, {r0}
    1be4:	01000002 	tsteq	r0, r2
    1be8:	00005800 	andeq	r5, r0, r0, lsl #16
    1bec:	00000000 	andeq	r0, r0, r0
    1bf0:	01ac0000 			; <UNDEFINED> instruction: 0x01ac0000
    1bf4:	02d00000 	sbcseq	r0, r0, #0
    1bf8:	00010000 	andeq	r0, r1, r0
    1bfc:	00000054 	andeq	r0, r0, r4, asr r0
    1c00:	00000000 	andeq	r0, r0, r0
    1c04:	0001ac00 	andeq	sl, r1, r0, lsl #24
    1c08:	0002d000 	andeq	sp, r2, r0
    1c0c:	74000500 	strvc	r0, [r0], #-1280	; 0x500
    1c10:	9f253100 	svcls	0x00253100
	...
    1c1c:	000001ac 	andeq	r0, r0, ip, lsr #3
    1c20:	000001d0 	ldrdeq	r0, [r0], -r0	; <UNPREDICTABLE>
    1c24:	9f300002 	svcls	0x00300002
    1c28:	000001d0 	ldrdeq	r0, [r0], -r0	; <UNPREDICTABLE>
    1c2c:	0000030c 	andeq	r0, r0, ip, lsl #6
    1c30:	14590001 	ldrbne	r0, [r9], #-1
    1c34:	1c000003 	stcne	0, cr0, [r0], {3}
    1c38:	01000003 	tsteq	r0, r3
    1c3c:	00005900 	andeq	r5, r0, r0, lsl #18
    1c40:	00000000 	andeq	r0, r0, r0
    1c44:	01680000 	cmneq	r8, r0
    1c48:	016b0000 	cmneq	fp, r0
    1c4c:	00010000 	andeq	r0, r1, r0
    1c50:	00016b51 	andeq	r6, r1, r1, asr fp
    1c54:	00031c00 	andeq	r1, r3, r0, lsl #24
    1c58:	56000100 	strpl	r0, [r0], -r0, lsl #2
	...
    1c64:	00000170 	andeq	r0, r0, r0, ror r1
    1c68:	000001ac 	andeq	r0, r0, ip, lsr #3
    1c6c:	0c540001 	mrrceq	0, 0, r0, r4, cr1
    1c70:	14000003 	strne	r0, [r0], #-3
    1c74:	01000003 	tsteq	r0, r3
    1c78:	00005400 	andeq	r5, r0, r0, lsl #8
    1c7c:	00000000 	andeq	r0, r0, r0
    1c80:	01a80000 			; <UNDEFINED> instruction: 0x01a80000
    1c84:	01c40000 	biceq	r0, r4, r0
    1c88:	00010000 	andeq	r0, r1, r0
    1c8c:	00000058 	andeq	r0, r0, r8, asr r0
    1c90:	00000000 	andeq	r0, r0, r0
    1c94:	0001b000 	andeq	fp, r1, r0
    1c98:	0001cb00 	andeq	ip, r1, r0, lsl #22
    1c9c:	52000100 	andpl	r0, r0, #0, 2
    1ca0:	000001cb 	andeq	r0, r0, fp, asr #3
    1ca4:	000002d0 	ldrdeq	r0, [r0], -r0	; <UNPREDICTABLE>
    1ca8:	00740008 	rsbseq	r0, r4, r8
    1cac:	00742531 	rsbseq	r2, r4, r1, lsr r5
    1cb0:	00009f22 	andeq	r9, r0, r2, lsr #30
    1cb4:	00000000 	andeq	r0, r0, r0
    1cb8:	01b00000 	movseq	r0, r0
    1cbc:	01c40000 	biceq	r0, r4, r0
    1cc0:	00010000 	andeq	r0, r1, r0
    1cc4:	00000058 	andeq	r0, r0, r8, asr r0
    1cc8:	00000000 	andeq	r0, r0, r0
    1ccc:	0001b400 	andeq	fp, r1, r0, lsl #8
    1cd0:	0001b800 	andeq	fp, r1, r0, lsl #16
    1cd4:	53000100 	movwpl	r0, #256	; 0x100
	...
    1ce0:	000001d0 	ldrdeq	r0, [r0], -r0	; <UNPREDICTABLE>
    1ce4:	000002d0 	ldrdeq	r0, [r0], -r0	; <UNPREDICTABLE>
    1ce8:	00540001 	subseq	r0, r4, r1
    1cec:	00000000 	andeq	r0, r0, r0
    1cf0:	d0000000 	andle	r0, r0, r0
    1cf4:	e4000001 	str	r0, [r0], #-1
    1cf8:	01000001 	tsteq	r0, r1
    1cfc:	00005800 	andeq	r5, r0, r0, lsl #16
    1d00:	00000000 	andeq	r0, r0, r0
    1d04:	01d40000 	bicseq	r0, r4, r0
    1d08:	01d80000 	bicseq	r0, r8, r0
    1d0c:	00010000 	andeq	r0, r1, r0
    1d10:	00000053 	andeq	r0, r0, r3, asr r0
    1d14:	00000000 	andeq	r0, r0, r0
    1d18:	0001f400 	andeq	pc, r1, r0, lsl #8
    1d1c:	0002d000 	andeq	sp, r2, r0
    1d20:	54000100 	strpl	r0, [r0], #-256	; 0x100
	...
    1d2c:	000001f4 	strdeq	r0, [r0], -r4
    1d30:	00000208 	andeq	r0, r0, r8, lsl #4
    1d34:	00580001 	subseq	r0, r8, r1
    1d38:	00000000 	andeq	r0, r0, r0
    1d3c:	f8000000 			; <UNDEFINED> instruction: 0xf8000000
    1d40:	fc000001 	stc2	0, cr0, [r0], {1}
    1d44:	01000001 	tsteq	r0, r1
    1d48:	00005300 	andeq	r5, r0, r0, lsl #6
    1d4c:	00000000 	andeq	r0, r0, r0
    1d50:	02180000 	andseq	r0, r8, #0
    1d54:	02d00000 	sbcseq	r0, r0, #0
    1d58:	00010000 	andeq	r0, r1, r0
    1d5c:	00000054 	andeq	r0, r0, r4, asr r0
    1d60:	00000000 	andeq	r0, r0, r0
    1d64:	00021800 	andeq	r1, r2, r0, lsl #16
    1d68:	00022c00 	andeq	r2, r2, r0, lsl #24
    1d6c:	58000100 	stmdapl	r0, {r8}
	...
    1d78:	0000021c 	andeq	r0, r0, ip, lsl r2
    1d7c:	00000220 	andeq	r0, r0, r0, lsr #4
    1d80:	00530001 	subseq	r0, r3, r1
    1d84:	00000000 	andeq	r0, r0, r0
    1d88:	3c000000 	stccc	0, cr0, [r0], {-0}
    1d8c:	d0000002 	andle	r0, r0, r2
    1d90:	01000002 	tsteq	r0, r2
    1d94:	00005400 	andeq	r5, r0, r0, lsl #8
    1d98:	00000000 	andeq	r0, r0, r0
    1d9c:	023c0000 	eorseq	r0, ip, #0
    1da0:	02500000 	subseq	r0, r0, #0
    1da4:	00010000 	andeq	r0, r1, r0
    1da8:	00000058 	andeq	r0, r0, r8, asr r0
    1dac:	00000000 	andeq	r0, r0, r0
    1db0:	00024000 	andeq	r4, r2, r0
    1db4:	00024400 	andeq	r4, r2, r0, lsl #8
    1db8:	53000100 	movwpl	r0, #256	; 0x100
	...
    1dc4:	00000260 	andeq	r0, r0, r0, ror #4
    1dc8:	000002d0 	ldrdeq	r0, [r0], -r0	; <UNPREDICTABLE>
    1dcc:	00540001 	subseq	r0, r4, r1
    1dd0:	00000000 	andeq	r0, r0, r0
    1dd4:	60000000 	andvs	r0, r0, r0
    1dd8:	74000002 	strvc	r0, [r0], #-2
    1ddc:	01000002 	tsteq	r0, r2
    1de0:	00005800 	andeq	r5, r0, r0, lsl #16
    1de4:	00000000 	andeq	r0, r0, r0
    1de8:	02640000 	rsbeq	r0, r4, #0
    1dec:	02680000 	rsbeq	r0, r8, #0
    1df0:	00010000 	andeq	r0, r1, r0
    1df4:	00000053 	andeq	r0, r0, r3, asr r0
    1df8:	00000000 	andeq	r0, r0, r0
    1dfc:	00028400 	andeq	r8, r2, r0, lsl #8
    1e00:	0002d000 	andeq	sp, r2, r0
    1e04:	54000100 	strpl	r0, [r0], #-256	; 0x100
	...
    1e10:	00000284 	andeq	r0, r0, r4, lsl #5
    1e14:	00000298 	muleq	r0, r8, r2
    1e18:	00580001 	subseq	r0, r8, r1
    1e1c:	00000000 	andeq	r0, r0, r0
    1e20:	88000000 	stmdahi	r0, {}	; <UNPREDICTABLE>
    1e24:	8c000002 	stchi	0, cr0, [r0], {2}
    1e28:	01000002 	tsteq	r0, r2
    1e2c:	00005300 	andeq	r5, r0, r0, lsl #6
    1e30:	00000000 	andeq	r0, r0, r0
    1e34:	02a80000 	adceq	r0, r8, #0
    1e38:	02d00000 	sbcseq	r0, r0, #0
    1e3c:	00010000 	andeq	r0, r1, r0
    1e40:	00000054 	andeq	r0, r0, r4, asr r0
    1e44:	00000000 	andeq	r0, r0, r0
    1e48:	0002ac00 	andeq	sl, r2, r0, lsl #24
    1e4c:	0002b000 	andeq	fp, r2, r0
    1e50:	53000100 	movwpl	r0, #256	; 0x100
	...
    1e5c:	000002c8 	andeq	r0, r0, r8, asr #5
    1e60:	0000030c 	andeq	r0, r0, ip, lsl #6
    1e64:	9f300002 	svcls	0x00300002
    1e68:	00000314 	andeq	r0, r0, r4, lsl r3
    1e6c:	0000031c 	andeq	r0, r0, ip, lsl r3
    1e70:	9f300002 	svcls	0x00300002
	...
    1e7c:	000002c8 	andeq	r0, r0, r8, asr #5
    1e80:	0000030c 	andeq	r0, r0, ip, lsl #6
    1e84:	14550001 	ldrbne	r0, [r5], #-1
    1e88:	1c000003 	stcne	0, cr0, [r0], {3}
    1e8c:	01000003 	tsteq	r0, r3
    1e90:	00005500 	andeq	r5, r0, r0, lsl #10
    1e94:	00000000 	andeq	r0, r0, r0
    1e98:	02d00000 	sbcseq	r0, r0, #0
    1e9c:	030c0000 	movweq	r0, #49152	; 0xc000
    1ea0:	00010000 	andeq	r0, r1, r0
    1ea4:	00031454 	andeq	r1, r3, r4, asr r4
    1ea8:	00031c00 	andeq	r1, r3, r0, lsl #24
    1eac:	54000100 	strpl	r0, [r0], #-256	; 0x100
	...
    1eb8:	0000031c 	andeq	r0, r0, ip, lsl r3
    1ebc:	0000033f 	andeq	r0, r0, pc, lsr r3
    1ec0:	3f500001 	svccc	0x00500001
    1ec4:	60000003 	andvs	r0, r0, r3
    1ec8:	01000003 	tsteq	r0, r3
    1ecc:	03605800 	cmneq	r0, #0, 16
    1ed0:	03700000 	cmneq	r0, #0
    1ed4:	00010000 	andeq	r0, r1, r0
    1ed8:	00037050 	andeq	r7, r3, r0, asr r0
    1edc:	0003b000 	andeq	fp, r3, r0
    1ee0:	58000100 	stmdapl	r0, {r8}
    1ee4:	000003b0 			; <UNDEFINED> instruction: 0x000003b0
    1ee8:	000003c0 	andeq	r0, r0, r0, asr #7
    1eec:	01f30004 	mvnseq	r0, r4
    1ef0:	00009f50 	andeq	r9, r0, r0, asr pc
    1ef4:	00000000 	andeq	r0, r0, r0
    1ef8:	031c0000 	tsteq	ip, #0
    1efc:	033f0000 	teqeq	pc, #0
    1f00:	00010000 	andeq	r0, r1, r0
    1f04:	00033f51 	andeq	r3, r3, r1, asr pc
    1f08:	00036000 	andeq	r6, r3, r0
    1f0c:	56000100 	strpl	r0, [r0], -r0, lsl #2
    1f10:	00000360 	andeq	r0, r0, r0, ror #6
    1f14:	00000370 	andeq	r0, r0, r0, ror r3
    1f18:	70510001 	subsvc	r0, r1, r1
    1f1c:	b0000003 	andlt	r0, r0, r3
    1f20:	01000003 	tsteq	r0, r3
    1f24:	03b05600 	movseq	r5, #0, 12
    1f28:	03c00000 	biceq	r0, r0, #0
    1f2c:	00040000 	andeq	r0, r4, r0
    1f30:	9f5101f3 	svcls	0x005101f3
	...
    1f3c:	0000031c 	andeq	r0, r0, ip, lsl r3
    1f40:	0000033f 	andeq	r0, r0, pc, lsr r3
    1f44:	3f520001 	svccc	0x00520001
    1f48:	60000003 	andvs	r0, r0, r3
    1f4c:	04000003 	streq	r0, [r0], #-3
    1f50:	5201f300 	andpl	pc, r1, #0, 6
    1f54:	0003609f 	muleq	r3, pc, r0	; <UNPREDICTABLE>
    1f58:	00037000 	andeq	r7, r3, r0
    1f5c:	52000100 	andpl	r0, r0, #0, 2
    1f60:	00000370 	andeq	r0, r0, r0, ror r3
    1f64:	000003b0 			; <UNDEFINED> instruction: 0x000003b0
    1f68:	01770003 	cmneq	r7, r3
    1f6c:	0003b09f 	muleq	r3, pc, r0	; <UNPREDICTABLE>
    1f70:	0003c000 	andeq	ip, r3, r0
    1f74:	f3000400 	vshl.u8	d0, d0, d0
    1f78:	009f5201 	addseq	r5, pc, r1, lsl #4
    1f7c:	00000000 	andeq	r0, r0, r0
    1f80:	1c000000 	stcne	0, cr0, [r0], {-0}
    1f84:	3f000003 	svccc	0x00000003
    1f88:	01000003 	tsteq	r0, r3
    1f8c:	033f5300 	teqeq	pc, #0, 6
    1f90:	03600000 	cmneq	r0, #0
    1f94:	00040000 	andeq	r0, r4, r0
    1f98:	9f5301f3 	svcls	0x005301f3
    1f9c:	00000360 	andeq	r0, r0, r0, ror #6
    1fa0:	00000370 	andeq	r0, r0, r0, ror r3
    1fa4:	70530001 	subsvc	r0, r3, r1
    1fa8:	c0000003 	andgt	r0, r0, r3
    1fac:	04000003 	streq	r0, [r0], #-3
    1fb0:	5301f300 	movwpl	pc, #4864	; 0x1300	; <UNPREDICTABLE>
    1fb4:	0000009f 	muleq	r0, pc, r0	; <UNPREDICTABLE>
    1fb8:	00000000 	andeq	r0, r0, r0
    1fbc:	00036800 	andeq	r6, r3, r0, lsl #16
    1fc0:	00037000 	andeq	r7, r3, r0
    1fc4:	30000200 	andcc	r0, r0, r0, lsl #4
    1fc8:	0003709f 	muleq	r3, pc, r0	; <UNPREDICTABLE>
    1fcc:	0003b000 	andeq	fp, r3, r0
    1fd0:	54000100 	strpl	r0, [r0], #-256	; 0x100
    1fd4:	000003b0 			; <UNDEFINED> instruction: 0x000003b0
    1fd8:	000003c0 	andeq	r0, r0, r0, asr #7
    1fdc:	00500001 	subseq	r0, r0, r1
    1fe0:	00000000 	andeq	r0, r0, r0
    1fe4:	80000000 	andhi	r0, r0, r0
    1fe8:	90000003 	andls	r0, r0, r3
    1fec:	01000003 	tsteq	r0, r3
    1ff0:	00005000 	andeq	r5, r0, r0
    1ff4:	00000000 	andeq	r0, r0, r0
    1ff8:	03c00000 	biceq	r0, r0, #0
    1ffc:	03df0000 	bicseq	r0, pc, #0
    2000:	00010000 	andeq	r0, r1, r0
    2004:	0003df50 	andeq	sp, r3, r0, asr pc
    2008:	00040000 	andeq	r0, r4, r0
    200c:	57000100 	strpl	r0, [r0, -r0, lsl #2]
    2010:	00000400 	andeq	r0, r0, r0, lsl #8
    2014:	00000410 	andeq	r0, r0, r0, lsl r4
    2018:	10500001 	subsne	r0, r0, r1
    201c:	40000004 	andmi	r0, r0, r4
    2020:	01000004 	tsteq	r0, r4
    2024:	04405700 	strbeq	r5, [r0], #-1792	; 0x700
    2028:	04500000 	ldrbeq	r0, [r0], #-0
    202c:	00040000 	andeq	r0, r4, r0
    2030:	9f5001f3 	svcls	0x005001f3
	...
    203c:	000003c0 	andeq	r0, r0, r0, asr #7
    2040:	000003df 	ldrdeq	r0, [r0], -pc	; <UNPREDICTABLE>
    2044:	df510001 	svcle	0x00510001
    2048:	00000003 	andeq	r0, r0, r3
    204c:	01000004 	tsteq	r0, r4
    2050:	04005500 	streq	r5, [r0], #-1280	; 0x500
    2054:	04100000 	ldreq	r0, [r0], #-0
    2058:	00010000 	andeq	r0, r1, r0
    205c:	00041051 	andeq	r1, r4, r1, asr r0
    2060:	00044000 	andeq	r4, r4, r0
    2064:	55000100 	strpl	r0, [r0, #-256]	; 0x100
    2068:	00000440 	andeq	r0, r0, r0, asr #8
    206c:	00000450 	andeq	r0, r0, r0, asr r4
    2070:	01f30004 	mvnseq	r0, r4
    2074:	00009f51 	andeq	r9, r0, r1, asr pc
    2078:	00000000 	andeq	r0, r0, r0
    207c:	03c00000 	biceq	r0, r0, #0
    2080:	03df0000 	bicseq	r0, pc, #0
    2084:	00010000 	andeq	r0, r1, r0
    2088:	0003df52 	andeq	sp, r3, r2, asr pc
    208c:	00040000 	andeq	r0, r4, r0
    2090:	f3000400 	vshl.u8	d0, d0, d0
    2094:	009f5201 	addseq	r5, pc, r1, lsl #4
    2098:	10000004 	andne	r0, r0, r4
    209c:	01000004 	tsteq	r0, r4
    20a0:	04105200 	ldreq	r5, [r0], #-512	; 0x200
    20a4:	04400000 	strbeq	r0, [r0], #-0
    20a8:	00030000 	andeq	r0, r3, r0
    20ac:	409f0176 	addsmi	r0, pc, r6, ror r1	; <UNPREDICTABLE>
    20b0:	50000004 	andpl	r0, r0, r4
    20b4:	04000004 	streq	r0, [r0], #-4
    20b8:	5201f300 	andpl	pc, r1, #0, 6
    20bc:	0000009f 	muleq	r0, pc, r0	; <UNPREDICTABLE>
    20c0:	00000000 	andeq	r0, r0, r0
    20c4:	0003c000 	andeq	ip, r3, r0
    20c8:	0003df00 	andeq	sp, r3, r0, lsl #30
    20cc:	53000100 	movwpl	r0, #256	; 0x100
    20d0:	000003df 	ldrdeq	r0, [r0], -pc	; <UNPREDICTABLE>
    20d4:	00000400 	andeq	r0, r0, r0, lsl #8
    20d8:	00580001 	subseq	r0, r8, r1
    20dc:	10000004 	andne	r0, r0, r4
    20e0:	01000004 	tsteq	r0, r4
    20e4:	04105300 	ldreq	r5, [r0], #-768	; 0x300
    20e8:	04400000 	strbeq	r0, [r0], #-0
    20ec:	00010000 	andeq	r0, r1, r0
    20f0:	00044058 	andeq	r4, r4, r8, asr r0
    20f4:	00045000 	andeq	r5, r4, r0
    20f8:	f3000400 	vshl.u8	d0, d0, d0
    20fc:	009f5301 	addseq	r5, pc, r1, lsl #6
    2100:	00000000 	andeq	r0, r0, r0
    2104:	08000000 	stmdaeq	r0, {}	; <UNPREDICTABLE>
    2108:	10000004 	andne	r0, r0, r4
    210c:	02000004 	andeq	r0, r0, #4
    2110:	109f3000 	addsne	r3, pc, r0
    2114:	40000004 	andmi	r0, r0, r4
    2118:	01000004 	tsteq	r0, r4
    211c:	04405400 	strbeq	r5, [r0], #-1024	; 0x400
    2120:	04500000 	ldrbeq	r0, [r0], #-0
    2124:	00010000 	andeq	r0, r1, r0
    2128:	00000050 	andeq	r0, r0, r0, asr r0
    212c:	00000000 	andeq	r0, r0, r0
    2130:	00045000 	andeq	r5, r4, r0
    2134:	00047300 	andeq	r7, r4, r0, lsl #6
    2138:	51000100 	mrspl	r0, (UNDEF: 16)
    213c:	00000473 	andeq	r0, r0, r3, ror r4
    2140:	00000524 	andeq	r0, r0, r4, lsr #10
    2144:	01f30004 	mvnseq	r0, r4
    2148:	00009f51 	andeq	r9, r0, r1, asr pc
    214c:	00000000 	andeq	r0, r0, r0
    2150:	04500000 	ldrbeq	r0, [r0], #-0
    2154:	04730000 	ldrbteq	r0, [r3], #-0
    2158:	00010000 	andeq	r0, r1, r0
    215c:	00047352 	andeq	r7, r4, r2, asr r3
    2160:	00052400 	andeq	r2, r5, r0, lsl #8
    2164:	f3000400 	vshl.u8	d0, d0, d0
    2168:	009f5201 	addseq	r5, pc, r1, lsl #4
    216c:	00000000 	andeq	r0, r0, r0
    2170:	50000000 	andpl	r0, r0, r0
    2174:	73000004 	movwvc	r0, #4
    2178:	01000004 	tsteq	r0, r4
    217c:	04735300 	ldrbteq	r5, [r3], #-768	; 0x300
    2180:	05100000 	ldreq	r0, [r0, #-0]
    2184:	00010000 	andeq	r0, r1, r0
    2188:	00051055 	andeq	r1, r5, r5, asr r0
    218c:	00052400 	andeq	r2, r5, r0, lsl #8
    2190:	70000200 	andvc	r0, r0, r0, lsl #4
    2194:	00000004 	andeq	r0, r0, r4
    2198:	00000000 	andeq	r0, r0, r0
    219c:	00049400 	andeq	r9, r4, r0, lsl #8
    21a0:	0004d300 	andeq	sp, r4, r0, lsl #6
    21a4:	52000100 	andpl	r0, r0, #0, 2
    21a8:	000004d3 	ldrdeq	r0, [r0], -r3
    21ac:	000004f4 	strdeq	r0, [r0], -r4
    21b0:	00750006 	rsbseq	r0, r5, r6
    21b4:	9f1e0077 	svcls	0x001e0077
    21b8:	000004f4 	strdeq	r0, [r0], -r4
    21bc:	00000524 	andeq	r0, r0, r4, lsr #10
    21c0:	00520001 	subseq	r0, r2, r1
    21c4:	00000000 	andeq	r0, r0, r0
    21c8:	24000000 	strcs	r0, [r0], #-0
    21cc:	2f000005 	svccs	0x00000005
    21d0:	01000005 	tsteq	r0, r5
    21d4:	052f5000 	streq	r5, [pc, #-0]!	; 21dc <_start-0x5e24>
    21d8:	05600000 	strbeq	r0, [r0, #-0]!
    21dc:	00040000 	andeq	r0, r4, r0
    21e0:	9f5001f3 	svcls	0x005001f3
	...
    21ec:	00000530 	andeq	r0, r0, r0, lsr r5
    21f0:	0000053b 	andeq	r0, r0, fp, lsr r5
    21f4:	00500001 	subseq	r0, r0, r1
    21f8:	00000000 	andeq	r0, r0, r0
    21fc:	60000000 	andvs	r0, r0, r0
    2200:	70000005 	andvc	r0, r0, r5
    2204:	01000005 	tsteq	r0, r5
    2208:	05705000 	ldrbeq	r5, [r0, #-0]!
    220c:	058c0000 	streq	r0, [ip]
    2210:	00010000 	andeq	r0, r1, r0
    2214:	00000055 	andeq	r0, r0, r5, asr r0
    2218:	00000000 	andeq	r0, r0, r0
    221c:	00056000 	andeq	r6, r5, r0
    2220:	00057000 	andeq	r7, r5, r0
    2224:	51000100 	mrspl	r0, (UNDEF: 16)
    2228:	00000570 	andeq	r0, r0, r0, ror r5
    222c:	0000058c 	andeq	r0, r0, ip, lsl #11
    2230:	00540001 	subseq	r0, r4, r1
    2234:	00000000 	andeq	r0, r0, r0
    2238:	8c000000 	stchi	0, cr0, [r0], {-0}
    223c:	a8000005 	stmdage	r0, {r0, r2}
    2240:	01000005 	tsteq	r0, r5
    2244:	05a85000 	streq	r5, [r8, #0]!
    2248:	06000000 	streq	r0, [r0], -r0
    224c:	00010000 	andeq	r0, r1, r0
    2250:	00060055 	andeq	r0, r6, r5, asr r0
    2254:	00061c00 	andeq	r1, r6, r0, lsl #24
    2258:	f3000400 	vshl.u8	d0, d0, d0
    225c:	009f5001 	addseq	r5, pc, r1
    2260:	00000000 	andeq	r0, r0, r0
    2264:	b8000000 	stmdalt	r0, {}	; <UNPREDICTABLE>
    2268:	c7000005 	strgt	r0, [r0, -r5]
    226c:	01000005 	tsteq	r0, r5
    2270:	05c75000 	strbeq	r5, [r7]
    2274:	05e80000 	strbeq	r0, [r8, #0]!
    2278:	00010000 	andeq	r0, r1, r0
    227c:	0005e854 	andeq	lr, r5, r4, asr r8
    2280:	0005ec00 	andeq	lr, r5, r0, lsl #24
    2284:	50000100 	andpl	r0, r0, r0, lsl #2
    2288:	000005ec 	andeq	r0, r0, ip, ror #11
    228c:	00000600 	andeq	r0, r0, r0, lsl #12
    2290:	00540001 	subseq	r0, r4, r1
    2294:	1c000006 	stcne	0, cr0, [r0], {6}
    2298:	01000006 	tsteq	r0, r6
    229c:	00005000 	andeq	r5, r0, r0
    22a0:	00000000 	andeq	r0, r0, r0
    22a4:	061c0000 	ldreq	r0, [ip], -r0
    22a8:	062f0000 	strteq	r0, [pc], -r0
    22ac:	00010000 	andeq	r0, r1, r0
    22b0:	00062f50 	andeq	r2, r6, r0, asr pc
    22b4:	00066800 	andeq	r6, r6, r0, lsl #16
    22b8:	f3000400 	vshl.u8	d0, d0, d0
    22bc:	009f5001 	addseq	r5, pc, r1
    22c0:	00000000 	andeq	r0, r0, r0
    22c4:	1c000000 	stcne	0, cr0, [r0], {-0}
    22c8:	2f000006 	svccs	0x00000006
    22cc:	01000006 	tsteq	r0, r6
    22d0:	062f5100 	strteq	r5, [pc], -r0, lsl #2
    22d4:	06680000 	strbteq	r0, [r8], -r0
    22d8:	00040000 	andeq	r0, r4, r0
    22dc:	9f5101f3 	svcls	0x005101f3
	...
    22e8:	0000061c 	andeq	r0, r0, ip, lsl r6
    22ec:	0000062f 	andeq	r0, r0, pc, lsr #12
    22f0:	2f520001 	svccs	0x00520001
    22f4:	68000006 	stmdavs	r0, {r1, r2}
    22f8:	04000006 	streq	r0, [r0], #-6
    22fc:	5201f300 	andpl	pc, r1, #0, 6
    2300:	0000009f 	muleq	r0, pc, r0	; <UNPREDICTABLE>
    2304:	00000000 	andeq	r0, r0, r0
    2308:	00061c00 	andeq	r1, r6, r0, lsl #24
    230c:	00062f00 	andeq	r2, r6, r0, lsl #30
    2310:	53000100 	movwpl	r0, #256	; 0x100
    2314:	0000062f 	andeq	r0, r0, pc, lsr #12
    2318:	00000668 	andeq	r0, r0, r8, ror #12
    231c:	01f30004 	mvnseq	r0, r4
    2320:	00009f53 	andeq	r9, r0, r3, asr pc
    2324:	00000000 	andeq	r0, r0, r0
    2328:	06300000 	ldrteq	r0, [r0], -r0
    232c:	063b0000 	ldrteq	r0, [fp], -r0
    2330:	00010000 	andeq	r0, r1, r0
    2334:	00065450 	andeq	r5, r6, r0, asr r4
    2338:	00066800 	andeq	r6, r6, r0, lsl #16
    233c:	50000100 	andpl	r0, r0, r0, lsl #2
	...
    2348:	000000fc 	strdeq	r0, [r0], -ip
    234c:	00000104 	andeq	r0, r0, r4, lsl #2
    2350:	04500001 	ldrbeq	r0, [r0], #-1
    2354:	28000001 	stmdacs	r0, {r0}
    2358:	01000001 	tsteq	r0, r1
    235c:	00005400 	andeq	r5, r0, r0, lsl #8
	...
    2368:	000b0000 	andeq	r0, fp, r0
    236c:	00010000 	andeq	r0, r1, r0
    2370:	00000b50 	andeq	r0, r0, r0, asr fp
    2374:	00001400 	andeq	r1, r0, r0, lsl #8
    2378:	54000100 	strpl	r0, [r0], #-256	; 0x100
	...
    2388:	00000004 	andeq	r0, r0, r4
    238c:	04520001 	ldrbeq	r0, [r2], #-1
    2390:	20000000 	andcs	r0, r0, r0
    2394:	04000000 	streq	r0, [r0], #-0
    2398:	5201f300 	andpl	pc, r1, #0, 6
    239c:	0000009f 	muleq	r0, pc, r0	; <UNPREDICTABLE>
	...
    23a8:	00000c00 	andeq	r0, r0, r0, lsl #24
    23ac:	50000100 	andpl	r0, r0, r0, lsl #2
    23b0:	0000000c 	andeq	r0, r0, ip
    23b4:	00000014 	andeq	r0, r0, r4, lsl r0
    23b8:	01730003 	cmneq	r3, r3
    23bc:	0000149f 	muleq	r0, pc, r4	; <UNPREDICTABLE>
    23c0:	00002000 	andeq	r2, r0, r0
    23c4:	53000100 	movwpl	r0, #256	; 0x100
	...

Disassembly of section .debug_ranges:

00000000 <.debug_ranges>:
   0:	000002b4 			; <UNDEFINED> instruction: 0x000002b4
   4:	000002b8 			; <UNDEFINED> instruction: 0x000002b8
   8:	000002e8 	andeq	r0, r0, r8, ror #5
   c:	000004e0 	andeq	r0, r0, r0, ror #9
	...
  18:	00008900 	andeq	r8, r0, r0, lsl #18
  1c:	00008974 	andeq	r8, r0, r4, ror r9
	...
