
on.elf:     file format elf32-littlearm


Disassembly of section .text:

00008000 <_start>:
    8000:	e3a0d302 	mov	sp, #134217728	; 0x8000000
    8004:	e3a0b000 	mov	fp, #0
    8008:	eb000205 	bl	8824 <_cstart>
    800c:	eb00021c 	bl	8884 <rpi_reboot>

00008010 <notmain>:
    8010:	e92d4008 	push	{r3, lr}
    8014:	eb0003b6 	bl	8ef4 <uart_init>
    8018:	e3a03001 	mov	r3, #1
    801c:	ee0f3f1c 	mcr	15, 0, r3, cr15, cr12, {0}
    8020:	e3a00015 	mov	r0, #21
    8024:	eb00029b 	bl	8a98 <gpio_set_input>
    8028:	e3a00015 	mov	r0, #21
    802c:	eb00000c 	bl	8064 <gpio_set_pullup>
    8030:	e59f0024 	ldr	r0, [pc, #36]	; 805c <notmain+0x4c>
    8034:	e3a01015 	mov	r1, #21
    8038:	eb00008e 	bl	8278 <printk>
    803c:	e3a00015 	mov	r0, #21
    8040:	eb000294 	bl	8a98 <gpio_set_input>
    8044:	e3a00014 	mov	r0, #20
    8048:	eb000032 	bl	8118 <gpio_set_pulldown>
    804c:	e59f000c 	ldr	r0, [pc, #12]	; 8060 <notmain+0x50>
    8050:	e3a01014 	mov	r1, #20
    8054:	eb000087 	bl	8278 <printk>
    8058:	eb0001e7 	bl	87fc <clean_reboot>
    805c:	00009190 	muleq	r0, r0, r1
    8060:	00009204 	andeq	r9, r0, r4, lsl #4

00008064 <gpio_set_pullup>:
    8064:	e92d4038 	push	{r3, r4, r5, lr}
    8068:	e1a05000 	mov	r5, r0
    806c:	e59f30a0 	ldr	r3, [pc, #160]	; 8114 <gpio_set_pullup+0xb0>
    8070:	e5930000 	ldr	r0, [r3]
    8074:	e3a01002 	mov	r1, #2
    8078:	eb0003f8 	bl	9060 <put32>
    807c:	ee1f2f3c 	mrc	15, 0, r2, cr15, cr12, {1}
    8080:	ee1f3f3c 	mrc	15, 0, r3, cr15, cr12, {1}
    8084:	e0623003 	rsb	r3, r2, r3
    8088:	e3530095 	cmp	r3, #149	; 0x95
    808c:	9afffffb 	bls	8080 <gpio_set_pullup+0x1c>
    8090:	e355001f 	cmp	r5, #31
    8094:	959f3078 	ldrls	r3, [pc, #120]	; 8114 <gpio_set_pullup+0xb0>
    8098:	95934004 	ldrls	r4, [r3, #4]
    809c:	859f3070 	ldrhi	r3, [pc, #112]	; 8114 <gpio_set_pullup+0xb0>
    80a0:	85934008 	ldrhi	r4, [r3, #8]
    80a4:	e205501f 	and	r5, r5, #31
    80a8:	e1a00004 	mov	r0, r4
    80ac:	e3a01001 	mov	r1, #1
    80b0:	e1a01511 	lsl	r1, r1, r5
    80b4:	eb0003e9 	bl	9060 <put32>
    80b8:	ee1f2f3c 	mrc	15, 0, r2, cr15, cr12, {1}
    80bc:	ee1f3f3c 	mrc	15, 0, r3, cr15, cr12, {1}
    80c0:	e0623003 	rsb	r3, r2, r3
    80c4:	e3530095 	cmp	r3, #149	; 0x95
    80c8:	9afffffb 	bls	80bc <gpio_set_pullup+0x58>
    80cc:	e59f3040 	ldr	r3, [pc, #64]	; 8114 <gpio_set_pullup+0xb0>
    80d0:	e5930000 	ldr	r0, [r3]
    80d4:	e3a01000 	mov	r1, #0
    80d8:	eb0003e0 	bl	9060 <put32>
    80dc:	ee1f2f3c 	mrc	15, 0, r2, cr15, cr12, {1}
    80e0:	ee1f3f3c 	mrc	15, 0, r3, cr15, cr12, {1}
    80e4:	e0623003 	rsb	r3, r2, r3
    80e8:	e3530095 	cmp	r3, #149	; 0x95
    80ec:	9afffffb 	bls	80e0 <gpio_set_pullup+0x7c>
    80f0:	e1a00004 	mov	r0, r4
    80f4:	e3a01000 	mov	r1, #0
    80f8:	eb0003d8 	bl	9060 <put32>
    80fc:	ee1f2f3c 	mrc	15, 0, r2, cr15, cr12, {1}
    8100:	ee1f3f3c 	mrc	15, 0, r3, cr15, cr12, {1}
    8104:	e0623003 	rsb	r3, r2, r3
    8108:	e3530095 	cmp	r3, #149	; 0x95
    810c:	9afffffb 	bls	8100 <gpio_set_pullup+0x9c>
    8110:	e8bd8038 	pop	{r3, r4, r5, pc}
    8114:	000090e8 	andeq	r9, r0, r8, ror #1

00008118 <gpio_set_pulldown>:
    8118:	e92d4038 	push	{r3, r4, r5, lr}
    811c:	e1a05000 	mov	r5, r0
    8120:	e59f30a0 	ldr	r3, [pc, #160]	; 81c8 <gpio_set_pulldown+0xb0>
    8124:	e5930000 	ldr	r0, [r3]
    8128:	e3a01001 	mov	r1, #1
    812c:	eb0003cb 	bl	9060 <put32>
    8130:	ee1f2f3c 	mrc	15, 0, r2, cr15, cr12, {1}
    8134:	ee1f3f3c 	mrc	15, 0, r3, cr15, cr12, {1}
    8138:	e0623003 	rsb	r3, r2, r3
    813c:	e3530095 	cmp	r3, #149	; 0x95
    8140:	9afffffb 	bls	8134 <gpio_set_pulldown+0x1c>
    8144:	e355001f 	cmp	r5, #31
    8148:	959f3078 	ldrls	r3, [pc, #120]	; 81c8 <gpio_set_pulldown+0xb0>
    814c:	95934004 	ldrls	r4, [r3, #4]
    8150:	859f3070 	ldrhi	r3, [pc, #112]	; 81c8 <gpio_set_pulldown+0xb0>
    8154:	85934008 	ldrhi	r4, [r3, #8]
    8158:	e205501f 	and	r5, r5, #31
    815c:	e1a00004 	mov	r0, r4
    8160:	e3a01001 	mov	r1, #1
    8164:	e1a01511 	lsl	r1, r1, r5
    8168:	eb0003bc 	bl	9060 <put32>
    816c:	ee1f2f3c 	mrc	15, 0, r2, cr15, cr12, {1}
    8170:	ee1f3f3c 	mrc	15, 0, r3, cr15, cr12, {1}
    8174:	e0623003 	rsb	r3, r2, r3
    8178:	e3530095 	cmp	r3, #149	; 0x95
    817c:	9afffffb 	bls	8170 <gpio_set_pulldown+0x58>
    8180:	e59f3040 	ldr	r3, [pc, #64]	; 81c8 <gpio_set_pulldown+0xb0>
    8184:	e5930000 	ldr	r0, [r3]
    8188:	e3a01000 	mov	r1, #0
    818c:	eb0003b3 	bl	9060 <put32>
    8190:	ee1f2f3c 	mrc	15, 0, r2, cr15, cr12, {1}
    8194:	ee1f3f3c 	mrc	15, 0, r3, cr15, cr12, {1}
    8198:	e0623003 	rsb	r3, r2, r3
    819c:	e3530095 	cmp	r3, #149	; 0x95
    81a0:	9afffffb 	bls	8194 <gpio_set_pulldown+0x7c>
    81a4:	e1a00004 	mov	r0, r4
    81a8:	e3a01000 	mov	r1, #0
    81ac:	eb0003ab 	bl	9060 <put32>
    81b0:	ee1f2f3c 	mrc	15, 0, r2, cr15, cr12, {1}
    81b4:	ee1f3f3c 	mrc	15, 0, r3, cr15, cr12, {1}
    81b8:	e0623003 	rsb	r3, r2, r3
    81bc:	e3530095 	cmp	r3, #149	; 0x95
    81c0:	9afffffb 	bls	81b4 <gpio_set_pulldown+0x9c>
    81c4:	e8bd8038 	pop	{r3, r4, r5, pc}
    81c8:	000090e8 	andeq	r9, r0, r8, ror #1

000081cc <gpio_pud_off>:
    81cc:	e92d4010 	push	{r4, lr}
    81d0:	e1a04000 	mov	r4, r0
    81d4:	e59f3098 	ldr	r3, [pc, #152]	; 8274 <gpio_pud_off+0xa8>
    81d8:	e5930000 	ldr	r0, [r3]
    81dc:	e3a01000 	mov	r1, #0
    81e0:	eb00039e 	bl	9060 <put32>
    81e4:	ee1f2f3c 	mrc	15, 0, r2, cr15, cr12, {1}
    81e8:	ee1f3f3c 	mrc	15, 0, r3, cr15, cr12, {1}
    81ec:	e0623003 	rsb	r3, r2, r3
    81f0:	e3530095 	cmp	r3, #149	; 0x95
    81f4:	9afffffb 	bls	81e8 <gpio_pud_off+0x1c>
    81f8:	e354001f 	cmp	r4, #31
    81fc:	959f3070 	ldrls	r3, [pc, #112]	; 8274 <gpio_pud_off+0xa8>
    8200:	95934004 	ldrls	r4, [r3, #4]
    8204:	859f3068 	ldrhi	r3, [pc, #104]	; 8274 <gpio_pud_off+0xa8>
    8208:	85934008 	ldrhi	r4, [r3, #8]
    820c:	e1a00004 	mov	r0, r4
    8210:	e3a01000 	mov	r1, #0
    8214:	eb000391 	bl	9060 <put32>
    8218:	ee1f2f3c 	mrc	15, 0, r2, cr15, cr12, {1}
    821c:	ee1f3f3c 	mrc	15, 0, r3, cr15, cr12, {1}
    8220:	e0623003 	rsb	r3, r2, r3
    8224:	e3530095 	cmp	r3, #149	; 0x95
    8228:	9afffffb 	bls	821c <gpio_pud_off+0x50>
    822c:	e59f3040 	ldr	r3, [pc, #64]	; 8274 <gpio_pud_off+0xa8>
    8230:	e5930000 	ldr	r0, [r3]
    8234:	e3a01000 	mov	r1, #0
    8238:	eb000388 	bl	9060 <put32>
    823c:	ee1f2f3c 	mrc	15, 0, r2, cr15, cr12, {1}
    8240:	ee1f3f3c 	mrc	15, 0, r3, cr15, cr12, {1}
    8244:	e0623003 	rsb	r3, r2, r3
    8248:	e3530095 	cmp	r3, #149	; 0x95
    824c:	9afffffb 	bls	8240 <gpio_pud_off+0x74>
    8250:	e1a00004 	mov	r0, r4
    8254:	e3a01000 	mov	r1, #0
    8258:	eb000380 	bl	9060 <put32>
    825c:	ee1f2f3c 	mrc	15, 0, r2, cr15, cr12, {1}
    8260:	ee1f3f3c 	mrc	15, 0, r3, cr15, cr12, {1}
    8264:	e0623003 	rsb	r3, r2, r3
    8268:	e3530095 	cmp	r3, #149	; 0x95
    826c:	9afffffb 	bls	8260 <gpio_pud_off+0x94>
    8270:	e8bd8010 	pop	{r4, pc}
    8274:	000090e8 	andeq	r9, r0, r8, ror #1

00008278 <printk>:
    8278:	e92d000f 	push	{r0, r1, r2, r3}
    827c:	e92d4030 	push	{r4, r5, lr}
    8280:	e24dd00c 	sub	sp, sp, #12
    8284:	e28d301c 	add	r3, sp, #28
    8288:	e58d3004 	str	r3, [sp, #4]
    828c:	e59f4034 	ldr	r4, [pc, #52]	; 82c8 <printk+0x50>
    8290:	e1a00004 	mov	r0, r4
    8294:	e3a01b01 	mov	r1, #1024	; 0x400
    8298:	e59d2018 	ldr	r2, [sp, #24]
    829c:	eb0000b4 	bl	8574 <va_printk>
    82a0:	e1a05000 	mov	r5, r0
    82a4:	e59f3020 	ldr	r3, [pc, #32]	; 82cc <printk+0x54>
    82a8:	e5933000 	ldr	r3, [r3]
    82ac:	e1a00004 	mov	r0, r4
    82b0:	e12fff33 	blx	r3
    82b4:	e1a00005 	mov	r0, r5
    82b8:	e28dd00c 	add	sp, sp, #12
    82bc:	e8bd4030 	pop	{r4, r5, lr}
    82c0:	e28dd010 	add	sp, sp, #16
    82c4:	e12fff1e 	bx	lr
    82c8:	00009388 	andeq	r9, r0, r8, lsl #7
    82cc:	000090f4 	strdeq	r9, [r0], -r4

000082d0 <internal_putk>:
    82d0:	e92d4038 	push	{r3, r4, r5, lr}
    82d4:	e1a04000 	mov	r4, r0
    82d8:	e59f5020 	ldr	r5, [pc, #32]	; 8300 <internal_putk+0x30>
    82dc:	ea000002 	b	82ec <internal_putk+0x1c>
    82e0:	e5953000 	ldr	r3, [r5]
    82e4:	e12fff33 	blx	r3
    82e8:	e2844001 	add	r4, r4, #1
    82ec:	e5d40000 	ldrb	r0, [r4]
    82f0:	e3500000 	cmp	r0, #0
    82f4:	1afffff9 	bne	82e0 <internal_putk+0x10>
    82f8:	e3a00001 	mov	r0, #1
    82fc:	e8bd8038 	pop	{r3, r4, r5, pc}
    8300:	0000918c 	andeq	r9, r0, ip, lsl #3

00008304 <isdigit>:
    8304:	e2400030 	sub	r0, r0, #48	; 0x30
    8308:	e3500009 	cmp	r0, #9
    830c:	83a00000 	movhi	r0, #0
    8310:	93a00001 	movls	r0, #1
    8314:	e12fff1e 	bx	lr

00008318 <pad>:
    8318:	e0611000 	rsb	r1, r1, r0
    831c:	e3a03020 	mov	r3, #32
    8320:	ea000002 	b	8330 <pad+0x18>
    8324:	e5c03000 	strb	r3, [r0]
    8328:	e2811001 	add	r1, r1, #1
    832c:	e2800001 	add	r0, r0, #1
    8330:	e1510002 	cmp	r1, r2
    8334:	bafffffa 	blt	8324 <pad+0xc>
    8338:	e3a03000 	mov	r3, #0
    833c:	e5c03000 	strb	r3, [r0]
    8340:	e12fff1e 	bx	lr

00008344 <reverse>:
    8344:	e063c002 	rsb	ip, r3, r2
    8348:	e28cc001 	add	ip, ip, #1
    834c:	e15c0001 	cmp	ip, r1
    8350:	c061100c 	rsbgt	r1, r1, ip
    8354:	c0833001 	addgt	r3, r3, r1
    8358:	e2422001 	sub	r2, r2, #1
    835c:	e1a01000 	mov	r1, r0
    8360:	ea000002 	b	8370 <reverse+0x2c>
    8364:	e452c001 	ldrb	ip, [r2], #-1
    8368:	e5c1c000 	strb	ip, [r1]
    836c:	e2811001 	add	r1, r1, #1
    8370:	e1520003 	cmp	r2, r3
    8374:	2afffffa 	bcs	8364 <reverse+0x20>
    8378:	e3a03000 	mov	r3, #0
    837c:	e5c13000 	strb	r3, [r1]
    8380:	e12fff1e 	bx	lr

00008384 <emit>:
    8384:	e92d41f0 	push	{r4, r5, r6, r7, r8, lr}
    8388:	e24dd040 	sub	sp, sp, #64	; 0x40
    838c:	e1a05001 	mov	r5, r1
    8390:	e1a04002 	mov	r4, r2
    8394:	e59d2058 	ldr	r2, [sp, #88]	; 0x58
    8398:	e1520004 	cmp	r2, r4
    839c:	c2442001 	subgt	r2, r4, #1
    83a0:	e1a0c003 	mov	ip, r3
    83a4:	e2400002 	sub	r0, r0, #2
    83a8:	e350000e 	cmp	r0, #14
    83ac:	979ff100 	ldrls	pc, [pc, r0, lsl #2]
    83b0:	ea000042 	b	84c0 <emit+0x13c>
    83b4:	00008498 	muleq	r0, r8, r4
    83b8:	000084c0 	andeq	r8, r0, r0, asr #9
    83bc:	000084c0 	andeq	r8, r0, r0, asr #9
    83c0:	000084c0 	andeq	r8, r0, r0, asr #9
    83c4:	000084c0 	andeq	r8, r0, r0, asr #9
    83c8:	000084c0 	andeq	r8, r0, r0, asr #9
    83cc:	0000848c 	andeq	r8, r0, ip, lsl #9
    83d0:	000084c0 	andeq	r8, r0, r0, asr #9
    83d4:	000083f0 	strdeq	r8, [r0], -r0
    83d8:	000084c0 	andeq	r8, r0, r0, asr #9
    83dc:	000084c0 	andeq	r8, r0, r0, asr #9
    83e0:	000084c0 	andeq	r8, r0, r0, asr #9
    83e4:	000084c0 	andeq	r8, r0, r0, asr #9
    83e8:	000084c0 	andeq	r8, r0, r0, asr #9
    83ec:	00008464 	andeq	r8, r0, r4, ror #8
    83f0:	e59d105c 	ldr	r1, [sp, #92]	; 0x5c
    83f4:	e2911000 	adds	r1, r1, #0
    83f8:	13a01001 	movne	r1, #1
    83fc:	e0111fa3 	ands	r1, r1, r3, lsr #31
    8400:	1263c000 	rsbne	ip, r3, #0
    8404:	13a08001 	movne	r8, #1
    8408:	03a08000 	moveq	r8, #0
    840c:	e1a0100d 	mov	r1, sp
    8410:	e59f70ec 	ldr	r7, [pc, #236]	; 8504 <emit+0x180>
    8414:	e59f60ec 	ldr	r6, [pc, #236]	; 8508 <emit+0x184>
    8418:	ea000000 	b	8420 <emit+0x9c>
    841c:	e1a01003 	mov	r1, r3
    8420:	e2813001 	add	r3, r1, #1
    8424:	e08e0c97 	umull	r0, lr, r7, ip
    8428:	e1a0e1ae 	lsr	lr, lr, #3
    842c:	e1a0000e 	mov	r0, lr
    8430:	e08ee10e 	add	lr, lr, lr, lsl #2
    8434:	e1a0e08e 	lsl	lr, lr, #1
    8438:	e06ee00c 	rsb	lr, lr, ip
    843c:	e7d6c00e 	ldrb	ip, [r6, lr]
    8440:	e5c1c000 	strb	ip, [r1]
    8444:	e1a0c000 	mov	ip, r0
    8448:	e3500000 	cmp	r0, #0
    844c:	1afffff2 	bne	841c <emit+0x98>
    8450:	e3580000 	cmp	r8, #0
    8454:	12813002 	addne	r3, r1, #2
    8458:	13a0002d 	movne	r0, #45	; 0x2d
    845c:	15c10001 	strbne	r0, [r1, #1]
    8460:	ea00001d 	b	84dc <emit+0x158>
    8464:	e1a0e00d 	mov	lr, sp
    8468:	e59f009c 	ldr	r0, [pc, #156]	; 850c <emit+0x188>
    846c:	e28e3001 	add	r3, lr, #1
    8470:	e20c100f 	and	r1, ip, #15
    8474:	e7d01001 	ldrb	r1, [r0, r1]
    8478:	e5ce1000 	strb	r1, [lr]
    847c:	e1a0e003 	mov	lr, r3
    8480:	e1b0c22c 	lsrs	ip, ip, #4
    8484:	1afffff8 	bne	846c <emit+0xe8>
    8488:	ea000013 	b	84dc <emit+0x158>
    848c:	e5cd3000 	strb	r3, [sp]
    8490:	e28d3001 	add	r3, sp, #1
    8494:	ea000010 	b	84dc <emit+0x158>
    8498:	e1a0e00d 	mov	lr, sp
    849c:	e59f006c 	ldr	r0, [pc, #108]	; 8510 <emit+0x18c>
    84a0:	e28e3001 	add	r3, lr, #1
    84a4:	e20c1001 	and	r1, ip, #1
    84a8:	e7d01001 	ldrb	r1, [r0, r1]
    84ac:	e5ce1000 	strb	r1, [lr]
    84b0:	e1a0e003 	mov	lr, r3
    84b4:	e1b0c0ac 	lsrs	ip, ip, #1
    84b8:	1afffff8 	bne	84a0 <emit+0x11c>
    84bc:	ea000006 	b	84dc <emit+0x158>
    84c0:	eb0002fe 	bl	90c0 <rpi_reset_putc>
    84c4:	e59f0048 	ldr	r0, [pc, #72]	; 8514 <emit+0x190>
    84c8:	e59f1048 	ldr	r1, [pc, #72]	; 8518 <emit+0x194>
    84cc:	e59f2048 	ldr	r2, [pc, #72]	; 851c <emit+0x198>
    84d0:	e3a03075 	mov	r3, #117	; 0x75
    84d4:	ebffff67 	bl	8278 <printk>
    84d8:	eb0000c7 	bl	87fc <clean_reboot>
    84dc:	e1a00003 	mov	r0, r3
    84e0:	e1a0100d 	mov	r1, sp
    84e4:	ebffff8b 	bl	8318 <pad>
    84e8:	e1a02000 	mov	r2, r0
    84ec:	e1a00005 	mov	r0, r5
    84f0:	e1a01004 	mov	r1, r4
    84f4:	e1a0300d 	mov	r3, sp
    84f8:	ebffff91 	bl	8344 <reverse>
    84fc:	e28dd040 	add	sp, sp, #64	; 0x40
    8500:	e8bd81f0 	pop	{r4, r5, r6, r7, r8, pc}
    8504:	cccccccd 	stclgt	12, cr12, [ip], {205}	; 0xcd
    8508:	000092c4 	andeq	r9, r0, r4, asr #5
    850c:	000092d0 	ldrdeq	r9, [r0], -r0
    8510:	000092e4 	andeq	r9, r0, r4, ror #5
    8514:	0000929c 	muleq	r0, ip, r2
    8518:	000092b0 			; <UNDEFINED> instruction: 0x000092b0
    851c:	00009278 	andeq	r9, r0, r8, ror r2

00008520 <rpi_set_output>:
    8520:	e92d4008 	push	{r3, lr}
    8524:	e3500000 	cmp	r0, #0
    8528:	1a000006 	bne	8548 <rpi_set_output+0x28>
    852c:	eb0002e3 	bl	90c0 <rpi_reset_putc>
    8530:	e59f0028 	ldr	r0, [pc, #40]	; 8560 <rpi_set_output+0x40>
    8534:	e59f1028 	ldr	r1, [pc, #40]	; 8564 <rpi_set_output+0x44>
    8538:	e59f2028 	ldr	r2, [pc, #40]	; 8568 <rpi_set_output+0x48>
    853c:	e3a03020 	mov	r3, #32
    8540:	ebffff4c 	bl	8278 <printk>
    8544:	eb0000ac 	bl	87fc <clean_reboot>
    8548:	e59f301c 	ldr	r3, [pc, #28]	; 856c <rpi_set_output+0x4c>
    854c:	e5830000 	str	r0, [r3]
    8550:	e3510000 	cmp	r1, #0
    8554:	159f3014 	ldrne	r3, [pc, #20]	; 8570 <rpi_set_output+0x50>
    8558:	15831000 	strne	r1, [r3]
    855c:	e8bd8008 	pop	{r3, pc}
    8560:	000092e8 	andeq	r9, r0, r8, ror #5
    8564:	000092b0 			; <UNDEFINED> instruction: 0x000092b0
    8568:	00009280 	andeq	r9, r0, r0, lsl #5
    856c:	0000918c 	andeq	r9, r0, ip, lsl #3
    8570:	000090f4 	strdeq	r9, [r0], -r4

00008574 <va_printk>:
    8574:	e92d4ff0 	push	{r4, r5, r6, r7, r8, r9, sl, fp, lr}
    8578:	e24dd08c 	sub	sp, sp, #140	; 0x8c
    857c:	e1a0a000 	mov	sl, r0
    8580:	e1a09003 	mov	r9, r3
    8584:	e2411001 	sub	r1, r1, #1
    8588:	e0808001 	add	r8, r0, r1
    858c:	e3a03000 	mov	r3, #0
    8590:	e5c03000 	strb	r3, [r0]
    8594:	e1a04000 	mov	r4, r0
    8598:	e1a0b003 	mov	fp, r3
    859c:	ea000086 	b	87bc <va_printk+0x248>
    85a0:	e3530025 	cmp	r3, #37	; 0x25
    85a4:	12822001 	addne	r2, r2, #1
    85a8:	15c43000 	strbne	r3, [r4]
    85ac:	12844001 	addne	r4, r4, #1
    85b0:	1a000081 	bne	87bc <va_printk+0x248>
    85b4:	e5d21001 	ldrb	r1, [r2, #1]
    85b8:	e3510025 	cmp	r1, #37	; 0x25
    85bc:	05c43000 	strbeq	r3, [r4]
    85c0:	02822002 	addeq	r2, r2, #2
    85c4:	02844001 	addeq	r4, r4, #1
    85c8:	0a00007b 	beq	87bc <va_printk+0x248>
    85cc:	e2826001 	add	r6, r2, #1
    85d0:	e1a0700b 	mov	r7, fp
    85d4:	ea000004 	b	85ec <va_printk+0x78>
    85d8:	e0877107 	add	r7, r7, r7, lsl #2
    85dc:	e1a07087 	lsl	r7, r7, #1
    85e0:	e0877005 	add	r7, r7, r5
    85e4:	e2477030 	sub	r7, r7, #48	; 0x30
    85e8:	e2866001 	add	r6, r6, #1
    85ec:	e5d65000 	ldrb	r5, [r6]
    85f0:	e1a00005 	mov	r0, r5
    85f4:	ebffff42 	bl	8304 <isdigit>
    85f8:	e3500000 	cmp	r0, #0
    85fc:	1afffff5 	bne	85d8 <va_printk+0x64>
    8600:	e357001f 	cmp	r7, #31
    8604:	9a000006 	bls	8624 <va_printk+0xb0>
    8608:	eb0002ac 	bl	90c0 <rpi_reset_putc>
    860c:	e59f01d4 	ldr	r0, [pc, #468]	; 87e8 <va_printk+0x274>
    8610:	e59f11d4 	ldr	r1, [pc, #468]	; 87ec <va_printk+0x278>
    8614:	e59f21d4 	ldr	r2, [pc, #468]	; 87f0 <va_printk+0x27c>
    8618:	e3a03092 	mov	r3, #146	; 0x92
    861c:	ebffff15 	bl	8278 <printk>
    8620:	eb000075 	bl	87fc <clean_reboot>
    8624:	e2455062 	sub	r5, r5, #98	; 0x62
    8628:	e3550016 	cmp	r5, #22
    862c:	979ff105 	ldrls	pc, [pc, r5, lsl #2]
    8630:	ea00004e 	b	8770 <va_printk+0x1fc>
    8634:	0000871c 	andeq	r8, r0, ip, lsl r7
    8638:	0000874c 	andeq	r8, r0, ip, asr #14
    863c:	000086ac 	andeq	r8, r0, ip, lsr #13
    8640:	00008770 	andeq	r8, r0, r0, ror r7
    8644:	00008690 	muleq	r0, r0, r6
    8648:	00008770 	andeq	r8, r0, r0, ror r7
    864c:	00008770 	andeq	r8, r0, r0, ror r7
    8650:	00008770 	andeq	r8, r0, r0, ror r7
    8654:	00008770 	andeq	r8, r0, r0, ror r7
    8658:	00008770 	andeq	r8, r0, r0, ror r7
    865c:	00008770 	andeq	r8, r0, r0, ror r7
    8660:	00008770 	andeq	r8, r0, r0, ror r7
    8664:	00008770 	andeq	r8, r0, r0, ror r7
    8668:	00008770 	andeq	r8, r0, r0, ror r7
    866c:	000086f8 	strdeq	r8, [r0], -r8	; <UNPREDICTABLE>
    8670:	00008770 	andeq	r8, r0, r0, ror r7
    8674:	00008770 	andeq	r8, r0, r0, ror r7
    8678:	00008740 	andeq	r8, r0, r0, asr #14
    867c:	00008770 	andeq	r8, r0, r0, ror r7
    8680:	000086d4 	ldrdeq	r8, [r0], -r4
    8684:	00008770 	andeq	r8, r0, r0, ror r7
    8688:	00008770 	andeq	r8, r0, r0, ror r7
    868c:	000086f8 	strdeq	r8, [r0], -r8	; <UNPREDICTABLE>
    8690:	eb00028a 	bl	90c0 <rpi_reset_putc>
    8694:	e59f0158 	ldr	r0, [pc, #344]	; 87f4 <va_printk+0x280>
    8698:	e59f114c 	ldr	r1, [pc, #332]	; 87ec <va_printk+0x278>
    869c:	e59f214c 	ldr	r2, [pc, #332]	; 87f0 <va_printk+0x27c>
    86a0:	e3a03098 	mov	r3, #152	; 0x98
    86a4:	ebfffef3 	bl	8278 <printk>
    86a8:	eb000053 	bl	87fc <clean_reboot>
    86ac:	e5993000 	ldr	r3, [r9]
    86b0:	e2899004 	add	r9, r9, #4
    86b4:	e58d7000 	str	r7, [sp]
    86b8:	e3a02001 	mov	r2, #1
    86bc:	e58d2004 	str	r2, [sp, #4]
    86c0:	e3a0000a 	mov	r0, #10
    86c4:	e28d1008 	add	r1, sp, #8
    86c8:	e3a02080 	mov	r2, #128	; 0x80
    86cc:	ebffff2c 	bl	8384 <emit>
    86d0:	ea00002f 	b	8794 <va_printk+0x220>
    86d4:	e5993000 	ldr	r3, [r9]
    86d8:	e2899004 	add	r9, r9, #4
    86dc:	e58d7000 	str	r7, [sp]
    86e0:	e58db004 	str	fp, [sp, #4]
    86e4:	e3a0000a 	mov	r0, #10
    86e8:	e28d1008 	add	r1, sp, #8
    86ec:	e3a02080 	mov	r2, #128	; 0x80
    86f0:	ebffff23 	bl	8384 <emit>
    86f4:	ea000026 	b	8794 <va_printk+0x220>
    86f8:	e5993000 	ldr	r3, [r9]
    86fc:	e2899004 	add	r9, r9, #4
    8700:	e58d7000 	str	r7, [sp]
    8704:	e58db004 	str	fp, [sp, #4]
    8708:	e3a00010 	mov	r0, #16
    870c:	e28d1008 	add	r1, sp, #8
    8710:	e3a02080 	mov	r2, #128	; 0x80
    8714:	ebffff1a 	bl	8384 <emit>
    8718:	ea00001d 	b	8794 <va_printk+0x220>
    871c:	e5993000 	ldr	r3, [r9]
    8720:	e2899004 	add	r9, r9, #4
    8724:	e58d7000 	str	r7, [sp]
    8728:	e58db004 	str	fp, [sp, #4]
    872c:	e3a00002 	mov	r0, #2
    8730:	e28d1008 	add	r1, sp, #8
    8734:	e3a02080 	mov	r2, #128	; 0x80
    8738:	ebffff11 	bl	8384 <emit>
    873c:	ea000014 	b	8794 <va_printk+0x220>
    8740:	e5990000 	ldr	r0, [r9]
    8744:	e2899004 	add	r9, r9, #4
    8748:	ea000011 	b	8794 <va_printk+0x220>
    874c:	e5993000 	ldr	r3, [r9]
    8750:	e2899004 	add	r9, r9, #4
    8754:	e58d7000 	str	r7, [sp]
    8758:	e58db004 	str	fp, [sp, #4]
    875c:	e3a00008 	mov	r0, #8
    8760:	e08d1000 	add	r1, sp, r0
    8764:	e3a02080 	mov	r2, #128	; 0x80
    8768:	ebffff05 	bl	8384 <emit>
    876c:	ea000008 	b	8794 <va_printk+0x220>
    8770:	eb000252 	bl	90c0 <rpi_reset_putc>
    8774:	e5d63000 	ldrb	r3, [r6]
    8778:	e58d3000 	str	r3, [sp]
    877c:	e59f0074 	ldr	r0, [pc, #116]	; 87f8 <va_printk+0x284>
    8780:	e59f1064 	ldr	r1, [pc, #100]	; 87ec <va_printk+0x278>
    8784:	e59f2064 	ldr	r2, [pc, #100]	; 87f0 <va_printk+0x27c>
    8788:	e3a030b9 	mov	r3, #185	; 0xb9
    878c:	ebfffeb9 	bl	8278 <printk>
    8790:	eb000019 	bl	87fc <clean_reboot>
    8794:	e2862001 	add	r2, r6, #1
    8798:	ea000002 	b	87a8 <va_printk+0x234>
    879c:	e2800001 	add	r0, r0, #1
    87a0:	e5c43000 	strb	r3, [r4]
    87a4:	e2844001 	add	r4, r4, #1
    87a8:	e1540008 	cmp	r4, r8
    87ac:	2a000002 	bcs	87bc <va_printk+0x248>
    87b0:	e5d03000 	ldrb	r3, [r0]
    87b4:	e3530000 	cmp	r3, #0
    87b8:	1afffff7 	bne	879c <va_printk+0x228>
    87bc:	e5d23000 	ldrb	r3, [r2]
    87c0:	e3530000 	cmp	r3, #0
    87c4:	0a000001 	beq	87d0 <va_printk+0x25c>
    87c8:	e1540008 	cmp	r4, r8
    87cc:	3affff73 	bcc	85a0 <va_printk+0x2c>
    87d0:	e2840001 	add	r0, r4, #1
    87d4:	e3a03000 	mov	r3, #0
    87d8:	e5c43000 	strb	r3, [r4]
    87dc:	e06a0000 	rsb	r0, sl, r0
    87e0:	e28dd08c 	add	sp, sp, #140	; 0x8c
    87e4:	e8bd8ff0 	pop	{r4, r5, r6, r7, r8, r9, sl, fp, pc}
    87e8:	00009300 	andeq	r9, r0, r0, lsl #6
    87ec:	000092b0 			; <UNDEFINED> instruction: 0x000092b0
    87f0:	00009290 	muleq	r0, r0, r2
    87f4:	0000931c 	andeq	r9, r0, ip, lsl r3
    87f8:	00009344 	andeq	r9, r0, r4, asr #6

000087fc <clean_reboot>:
    87fc:	e92d4008 	push	{r3, lr}
    8800:	e59f3014 	ldr	r3, [pc, #20]	; 881c <clean_reboot+0x20>
    8804:	e5933000 	ldr	r3, [r3]
    8808:	e59f0010 	ldr	r0, [pc, #16]	; 8820 <clean_reboot+0x24>
    880c:	e12fff33 	blx	r3
    8810:	e3a00064 	mov	r0, #100	; 0x64
    8814:	eb000044 	bl	892c <delay_ms>
    8818:	eb000019 	bl	8884 <rpi_reboot>
    881c:	000090f4 	strdeq	r9, [r0], -r4
    8820:	0000937c 	andeq	r9, r0, ip, ror r3

00008824 <_cstart>:
    8824:	e92d4008 	push	{r3, lr}
    8828:	e59f3020 	ldr	r3, [pc, #32]	; 8850 <_cstart+0x2c>
    882c:	e59f2020 	ldr	r2, [pc, #32]	; 8854 <_cstart+0x30>
    8830:	e3a01000 	mov	r1, #0
    8834:	ea000001 	b	8840 <_cstart+0x1c>
    8838:	e5831000 	str	r1, [r3]
    883c:	e2833004 	add	r3, r3, #4
    8840:	e1530002 	cmp	r3, r2
    8844:	3afffffb 	bcc	8838 <_cstart+0x14>
    8848:	ebfffdf0 	bl	8010 <notmain>
    884c:	eb00000c 	bl	8884 <rpi_reboot>
    8850:	00009388 	andeq	r9, r0, r8, lsl #7
    8854:	00009788 	andeq	r9, r0, r8, lsl #15

00008858 <at_user_level>:
    8858:	e10f0000 	mrs	r0, CPSR
    885c:	e200001f 	and	r0, r0, #31
    8860:	e3500010 	cmp	r0, #16
    8864:	13a00000 	movne	r0, #0
    8868:	03a00001 	moveq	r0, #1
    886c:	e12fff1e 	bx	lr

00008870 <set_user_level>:
    8870:	e10f3000 	mrs	r3, CPSR
    8874:	e3c3301f 	bic	r3, r3, #31
    8878:	e3833010 	orr	r3, r3, #16
    887c:	e129f003 	msr	CPSR_fc, r3
    8880:	e12fff1e 	bx	lr

00008884 <rpi_reboot>:
    8884:	e92d4008 	push	{r3, lr}
    8888:	ebfffff2 	bl	8858 <at_user_level>
    888c:	e3500000 	cmp	r0, #0
    8890:	0a000000 	beq	8898 <rpi_reboot+0x14>
    8894:	ebfffff5 	bl	8870 <set_user_level>
    8898:	e3a0001e 	mov	r0, #30
    889c:	eb000022 	bl	892c <delay_ms>
    88a0:	e59f0014 	ldr	r0, [pc, #20]	; 88bc <rpi_reboot+0x38>
    88a4:	e59f1014 	ldr	r1, [pc, #20]	; 88c0 <rpi_reboot+0x3c>
    88a8:	eb0001ee 	bl	9068 <PUT32>
    88ac:	e59f0010 	ldr	r0, [pc, #16]	; 88c4 <rpi_reboot+0x40>
    88b0:	e59f1010 	ldr	r1, [pc, #16]	; 88c8 <rpi_reboot+0x44>
    88b4:	eb0001eb 	bl	9068 <PUT32>
    88b8:	eafffffe 	b	88b8 <rpi_reboot+0x34>
    88bc:	20100024 	andscs	r0, r0, r4, lsr #32
    88c0:	5a000001 	bpl	88cc <delay_cycles>
    88c4:	2010001c 	andscs	r0, r0, ip, lsl r0
    88c8:	5a000020 	bpl	8950 <delay_sec+0x10>

000088cc <delay_cycles>:
    88cc:	ea000001 	b	88d8 <delay_cycles+0xc>
    88d0:	e2811000 	add	r1, r1, #0
    88d4:	e1a00003 	mov	r0, r3
    88d8:	e2403001 	sub	r3, r0, #1
    88dc:	e3500000 	cmp	r0, #0
    88e0:	1afffffa 	bne	88d0 <delay_cycles+0x4>
    88e4:	e12fff1e 	bx	lr

000088e8 <timer_get_usec_raw>:
    88e8:	e92d4008 	push	{r3, lr}
    88ec:	e59f0004 	ldr	r0, [pc, #4]	; 88f8 <timer_get_usec_raw+0x10>
    88f0:	eb0001e8 	bl	9098 <GET32>
    88f4:	e8bd8008 	pop	{r3, pc}
    88f8:	20003004 	andcs	r3, r0, r4

000088fc <timer_get_usec>:
    88fc:	e92d4008 	push	{r3, lr}
    8900:	ebfffff8 	bl	88e8 <timer_get_usec_raw>
    8904:	e8bd8008 	pop	{r3, pc}

00008908 <delay_us>:
    8908:	e92d4038 	push	{r3, r4, r5, lr}
    890c:	e1a05000 	mov	r5, r0
    8910:	ebfffff9 	bl	88fc <timer_get_usec>
    8914:	e1a04000 	mov	r4, r0
    8918:	ebfffff7 	bl	88fc <timer_get_usec>
    891c:	e0640000 	rsb	r0, r4, r0
    8920:	e1500005 	cmp	r0, r5
    8924:	3afffffb 	bcc	8918 <delay_us+0x10>
    8928:	e8bd8038 	pop	{r3, r4, r5, pc}

0000892c <delay_ms>:
    892c:	e92d4008 	push	{r3, lr}
    8930:	e3a03ffa 	mov	r3, #1000	; 0x3e8
    8934:	e0000093 	mul	r0, r3, r0
    8938:	ebfffff2 	bl	8908 <delay_us>
    893c:	e8bd8008 	pop	{r3, pc}

00008940 <delay_sec>:
    8940:	e92d4008 	push	{r3, lr}
    8944:	e3a03ffa 	mov	r3, #1000	; 0x3e8
    8948:	e0000093 	mul	r0, r3, r0
    894c:	ebfffff6 	bl	892c <delay_ms>
    8950:	e8bd8008 	pop	{r3, pc}

00008954 <gpio_set_output>:
    8954:	e92d4038 	push	{r3, r4, r5, lr}
    8958:	e1a04000 	mov	r4, r0
    895c:	e350001f 	cmp	r0, #31
    8960:	88bd8038 	pophi	{r3, r4, r5, pc}
    8964:	e59f30b4 	ldr	r3, [pc, #180]	; 8a20 <gpio_set_output+0xcc>
    8968:	e0832093 	umull	r2, r3, r3, r0
    896c:	e1a031a3 	lsr	r3, r3, #3
    8970:	e3530005 	cmp	r3, #5
    8974:	979ff103 	ldrls	pc, [pc, r3, lsl #2]
    8978:	ea000017 	b	89dc <gpio_set_output+0x88>
    897c:	00008994 	muleq	r0, r4, r9
    8980:	000089a0 	andeq	r8, r0, r0, lsr #19
    8984:	000089ac 	andeq	r8, r0, ip, lsr #19
    8988:	000089b8 			; <UNDEFINED> instruction: 0x000089b8
    898c:	000089c4 	andeq	r8, r0, r4, asr #19
    8990:	000089d0 	ldrdeq	r8, [r0], -r0
    8994:	e59f3088 	ldr	r3, [pc, #136]	; 8a24 <gpio_set_output+0xd0>
    8998:	e5935000 	ldr	r5, [r3]
    899c:	ea00000f 	b	89e0 <gpio_set_output+0x8c>
    89a0:	e59f307c 	ldr	r3, [pc, #124]	; 8a24 <gpio_set_output+0xd0>
    89a4:	e5935004 	ldr	r5, [r3, #4]
    89a8:	ea00000c 	b	89e0 <gpio_set_output+0x8c>
    89ac:	e59f3070 	ldr	r3, [pc, #112]	; 8a24 <gpio_set_output+0xd0>
    89b0:	e5935008 	ldr	r5, [r3, #8]
    89b4:	ea000009 	b	89e0 <gpio_set_output+0x8c>
    89b8:	e59f3064 	ldr	r3, [pc, #100]	; 8a24 <gpio_set_output+0xd0>
    89bc:	e593500c 	ldr	r5, [r3, #12]
    89c0:	ea000006 	b	89e0 <gpio_set_output+0x8c>
    89c4:	e59f3058 	ldr	r3, [pc, #88]	; 8a24 <gpio_set_output+0xd0>
    89c8:	e5935010 	ldr	r5, [r3, #16]
    89cc:	ea000003 	b	89e0 <gpio_set_output+0x8c>
    89d0:	e59f304c 	ldr	r3, [pc, #76]	; 8a24 <gpio_set_output+0xd0>
    89d4:	e5935014 	ldr	r5, [r3, #20]
    89d8:	ea000000 	b	89e0 <gpio_set_output+0x8c>
    89dc:	e3a05000 	mov	r5, #0
    89e0:	e1a00005 	mov	r0, r5
    89e4:	eb0001a9 	bl	9090 <get32>
    89e8:	e59f1030 	ldr	r1, [pc, #48]	; 8a20 <gpio_set_output+0xcc>
    89ec:	e0813491 	umull	r3, r1, r1, r4
    89f0:	e1a011a1 	lsr	r1, r1, #3
    89f4:	e0811101 	add	r1, r1, r1, lsl #2
    89f8:	e1a01081 	lsl	r1, r1, #1
    89fc:	e0611004 	rsb	r1, r1, r4
    8a00:	e0811081 	add	r1, r1, r1, lsl #1
    8a04:	e3a03007 	mov	r3, #7
    8a08:	e1c03113 	bic	r3, r0, r3, lsl r1
    8a0c:	e1a00005 	mov	r0, r5
    8a10:	e3a02001 	mov	r2, #1
    8a14:	e1831112 	orr	r1, r3, r2, lsl r1
    8a18:	eb000190 	bl	9060 <put32>
    8a1c:	e8bd8038 	pop	{r3, r4, r5, pc}
    8a20:	cccccccd 	stclgt	12, cr12, [ip], {205}	; 0xcd
    8a24:	000090f8 	strdeq	r9, [r0], -r8

00008a28 <gpio_set_on>:
    8a28:	e92d4008 	push	{r3, lr}
    8a2c:	e350001f 	cmp	r0, #31
    8a30:	88bd8008 	pophi	{r3, pc}
    8a34:	959f3020 	ldrls	r3, [pc, #32]	; 8a5c <gpio_set_on+0x34>
    8a38:	95932018 	ldrls	r2, [r3, #24]
    8a3c:	859f3018 	ldrhi	r3, [pc, #24]	; 8a5c <gpio_set_on+0x34>
    8a40:	8593201c 	ldrhi	r2, [r3, #28]
    8a44:	e200301f 	and	r3, r0, #31
    8a48:	e1a00002 	mov	r0, r2
    8a4c:	e3a01001 	mov	r1, #1
    8a50:	e1a01311 	lsl	r1, r1, r3
    8a54:	eb000181 	bl	9060 <put32>
    8a58:	e8bd8008 	pop	{r3, pc}
    8a5c:	000090f8 	strdeq	r9, [r0], -r8

00008a60 <gpio_set_off>:
    8a60:	e92d4008 	push	{r3, lr}
    8a64:	e350001f 	cmp	r0, #31
    8a68:	88bd8008 	pophi	{r3, pc}
    8a6c:	959f3020 	ldrls	r3, [pc, #32]	; 8a94 <gpio_set_off+0x34>
    8a70:	95932020 	ldrls	r2, [r3, #32]
    8a74:	859f3018 	ldrhi	r3, [pc, #24]	; 8a94 <gpio_set_off+0x34>
    8a78:	85932024 	ldrhi	r2, [r3, #36]	; 0x24
    8a7c:	e200301f 	and	r3, r0, #31
    8a80:	e1a00002 	mov	r0, r2
    8a84:	e3a01001 	mov	r1, #1
    8a88:	e1a01311 	lsl	r1, r1, r3
    8a8c:	eb000173 	bl	9060 <put32>
    8a90:	e8bd8008 	pop	{r3, pc}
    8a94:	000090f8 	strdeq	r9, [r0], -r8

00008a98 <gpio_set_input>:
    8a98:	e92d4038 	push	{r3, r4, r5, lr}
    8a9c:	e1a04000 	mov	r4, r0
    8aa0:	e350001f 	cmp	r0, #31
    8aa4:	88bd8038 	pophi	{r3, r4, r5, pc}
    8aa8:	e59f30ac 	ldr	r3, [pc, #172]	; 8b5c <gpio_set_input+0xc4>
    8aac:	e0832093 	umull	r2, r3, r3, r0
    8ab0:	e1a031a3 	lsr	r3, r3, #3
    8ab4:	e3530005 	cmp	r3, #5
    8ab8:	979ff103 	ldrls	pc, [pc, r3, lsl #2]
    8abc:	ea000017 	b	8b20 <gpio_set_input+0x88>
    8ac0:	00008ad8 	ldrdeq	r8, [r0], -r8	; <UNPREDICTABLE>
    8ac4:	00008ae4 	andeq	r8, r0, r4, ror #21
    8ac8:	00008af0 	strdeq	r8, [r0], -r0
    8acc:	00008afc 	strdeq	r8, [r0], -ip
    8ad0:	00008b08 	andeq	r8, r0, r8, lsl #22
    8ad4:	00008b14 	andeq	r8, r0, r4, lsl fp
    8ad8:	e59f3080 	ldr	r3, [pc, #128]	; 8b60 <gpio_set_input+0xc8>
    8adc:	e5935000 	ldr	r5, [r3]
    8ae0:	ea00000f 	b	8b24 <gpio_set_input+0x8c>
    8ae4:	e59f3074 	ldr	r3, [pc, #116]	; 8b60 <gpio_set_input+0xc8>
    8ae8:	e5935004 	ldr	r5, [r3, #4]
    8aec:	ea00000c 	b	8b24 <gpio_set_input+0x8c>
    8af0:	e59f3068 	ldr	r3, [pc, #104]	; 8b60 <gpio_set_input+0xc8>
    8af4:	e5935008 	ldr	r5, [r3, #8]
    8af8:	ea000009 	b	8b24 <gpio_set_input+0x8c>
    8afc:	e59f305c 	ldr	r3, [pc, #92]	; 8b60 <gpio_set_input+0xc8>
    8b00:	e593500c 	ldr	r5, [r3, #12]
    8b04:	ea000006 	b	8b24 <gpio_set_input+0x8c>
    8b08:	e59f3050 	ldr	r3, [pc, #80]	; 8b60 <gpio_set_input+0xc8>
    8b0c:	e5935010 	ldr	r5, [r3, #16]
    8b10:	ea000003 	b	8b24 <gpio_set_input+0x8c>
    8b14:	e59f3044 	ldr	r3, [pc, #68]	; 8b60 <gpio_set_input+0xc8>
    8b18:	e5935014 	ldr	r5, [r3, #20]
    8b1c:	ea000000 	b	8b24 <gpio_set_input+0x8c>
    8b20:	e3a05000 	mov	r5, #0
    8b24:	e1a00005 	mov	r0, r5
    8b28:	eb000158 	bl	9090 <get32>
    8b2c:	e59f1028 	ldr	r1, [pc, #40]	; 8b5c <gpio_set_input+0xc4>
    8b30:	e0813491 	umull	r3, r1, r1, r4
    8b34:	e1a011a1 	lsr	r1, r1, #3
    8b38:	e0811101 	add	r1, r1, r1, lsl #2
    8b3c:	e1a01081 	lsl	r1, r1, #1
    8b40:	e0611004 	rsb	r1, r1, r4
    8b44:	e0811081 	add	r1, r1, r1, lsl #1
    8b48:	e3a03007 	mov	r3, #7
    8b4c:	e1c01113 	bic	r1, r0, r3, lsl r1
    8b50:	e1a00005 	mov	r0, r5
    8b54:	eb000141 	bl	9060 <put32>
    8b58:	e8bd8038 	pop	{r3, r4, r5, pc}
    8b5c:	cccccccd 	stclgt	12, cr12, [ip], {205}	; 0xcd
    8b60:	000090f8 	strdeq	r9, [r0], -r8

00008b64 <gpio_read>:
    8b64:	e92d4010 	push	{r4, lr}
    8b68:	e1a04000 	mov	r4, r0
    8b6c:	e350001f 	cmp	r0, #31
    8b70:	8a00000b 	bhi	8ba4 <gpio_read+0x40>
    8b74:	8a000003 	bhi	8b88 <gpio_read+0x24>
    8b78:	e59f302c 	ldr	r3, [pc, #44]	; 8bac <gpio_read+0x48>
    8b7c:	e5930028 	ldr	r0, [r3, #40]	; 0x28
    8b80:	eb000142 	bl	9090 <get32>
    8b84:	ea000002 	b	8b94 <gpio_read+0x30>
    8b88:	e59f301c 	ldr	r3, [pc, #28]	; 8bac <gpio_read+0x48>
    8b8c:	e593002c 	ldr	r0, [r3, #44]	; 0x2c
    8b90:	eb00013e 	bl	9090 <get32>
    8b94:	e204401f 	and	r4, r4, #31
    8b98:	e3a03001 	mov	r3, #1
    8b9c:	e0000413 	and	r0, r0, r3, lsl r4
    8ba0:	e8bd8010 	pop	{r4, pc}
    8ba4:	e3e00000 	mvn	r0, #0
    8ba8:	e8bd8010 	pop	{r4, pc}
    8bac:	000090f8 	strdeq	r9, [r0], -r8

00008bb0 <gpio_write>:
    8bb0:	e92d4008 	push	{r3, lr}
    8bb4:	e350001f 	cmp	r0, #31
    8bb8:	88bd8008 	pophi	{r3, pc}
    8bbc:	e3510000 	cmp	r1, #0
    8bc0:	0a000001 	beq	8bcc <gpio_write+0x1c>
    8bc4:	ebffff97 	bl	8a28 <gpio_set_on>
    8bc8:	e8bd8008 	pop	{r3, pc}
    8bcc:	ebffffa3 	bl	8a60 <gpio_set_off>
    8bd0:	e8bd8008 	pop	{r3, pc}

00008bd4 <gpio_set_function>:
    8bd4:	e92d4070 	push	{r4, r5, r6, lr}
    8bd8:	e1a04000 	mov	r4, r0
    8bdc:	e1a05001 	mov	r5, r1
    8be0:	e3510007 	cmp	r1, #7
    8be4:	9350001f 	cmpls	r0, #31
    8be8:	88bd8070 	pophi	{r4, r5, r6, pc}
    8bec:	e59f30b0 	ldr	r3, [pc, #176]	; 8ca4 <gpio_set_function+0xd0>
    8bf0:	e0832093 	umull	r2, r3, r3, r0
    8bf4:	e1a031a3 	lsr	r3, r3, #3
    8bf8:	e3530005 	cmp	r3, #5
    8bfc:	979ff103 	ldrls	pc, [pc, r3, lsl #2]
    8c00:	ea000017 	b	8c64 <gpio_set_function+0x90>
    8c04:	00008c1c 	andeq	r8, r0, ip, lsl ip
    8c08:	00008c28 	andeq	r8, r0, r8, lsr #24
    8c0c:	00008c34 	andeq	r8, r0, r4, lsr ip
    8c10:	00008c40 	andeq	r8, r0, r0, asr #24
    8c14:	00008c4c 	andeq	r8, r0, ip, asr #24
    8c18:	00008c58 	andeq	r8, r0, r8, asr ip
    8c1c:	e59f3084 	ldr	r3, [pc, #132]	; 8ca8 <gpio_set_function+0xd4>
    8c20:	e5936000 	ldr	r6, [r3]
    8c24:	ea00000f 	b	8c68 <gpio_set_function+0x94>
    8c28:	e59f3078 	ldr	r3, [pc, #120]	; 8ca8 <gpio_set_function+0xd4>
    8c2c:	e5936004 	ldr	r6, [r3, #4]
    8c30:	ea00000c 	b	8c68 <gpio_set_function+0x94>
    8c34:	e59f306c 	ldr	r3, [pc, #108]	; 8ca8 <gpio_set_function+0xd4>
    8c38:	e5936008 	ldr	r6, [r3, #8]
    8c3c:	ea000009 	b	8c68 <gpio_set_function+0x94>
    8c40:	e59f3060 	ldr	r3, [pc, #96]	; 8ca8 <gpio_set_function+0xd4>
    8c44:	e593600c 	ldr	r6, [r3, #12]
    8c48:	ea000006 	b	8c68 <gpio_set_function+0x94>
    8c4c:	e59f3054 	ldr	r3, [pc, #84]	; 8ca8 <gpio_set_function+0xd4>
    8c50:	e5936010 	ldr	r6, [r3, #16]
    8c54:	ea000003 	b	8c68 <gpio_set_function+0x94>
    8c58:	e59f3048 	ldr	r3, [pc, #72]	; 8ca8 <gpio_set_function+0xd4>
    8c5c:	e5936014 	ldr	r6, [r3, #20]
    8c60:	ea000000 	b	8c68 <gpio_set_function+0x94>
    8c64:	e3a06000 	mov	r6, #0
    8c68:	e1a00006 	mov	r0, r6
    8c6c:	eb000107 	bl	9090 <get32>
    8c70:	e59f302c 	ldr	r3, [pc, #44]	; 8ca4 <gpio_set_function+0xd0>
    8c74:	e0832493 	umull	r2, r3, r3, r4
    8c78:	e1a031a3 	lsr	r3, r3, #3
    8c7c:	e0833103 	add	r3, r3, r3, lsl #2
    8c80:	e1a03083 	lsl	r3, r3, #1
    8c84:	e0633004 	rsb	r3, r3, r4
    8c88:	e0833083 	add	r3, r3, r3, lsl #1
    8c8c:	e3a01007 	mov	r1, #7
    8c90:	e1c01311 	bic	r1, r0, r1, lsl r3
    8c94:	e1a00006 	mov	r0, r6
    8c98:	e1811315 	orr	r1, r1, r5, lsl r3
    8c9c:	eb0000ef 	bl	9060 <put32>
    8ca0:	e8bd8070 	pop	{r4, r5, r6, pc}
    8ca4:	cccccccd 	stclgt	12, cr12, [ip], {205}	; 0xcd
    8ca8:	000090f8 	strdeq	r9, [r0], -r8

00008cac <gpio_toggle>:
    8cac:	e92d4008 	push	{r3, lr}
    8cb0:	e350001f 	cmp	r0, #31
    8cb4:	88bd8008 	pophi	{r3, pc}
    8cb8:	959f3020 	ldrls	r3, [pc, #32]	; 8ce0 <gpio_toggle+0x34>
    8cbc:	95932018 	ldrls	r2, [r3, #24]
    8cc0:	859f3018 	ldrhi	r3, [pc, #24]	; 8ce0 <gpio_toggle+0x34>
    8cc4:	8593201c 	ldrhi	r2, [r3, #28]
    8cc8:	e200301f 	and	r3, r0, #31
    8ccc:	e1a00002 	mov	r0, r2
    8cd0:	e3a01001 	mov	r1, #1
    8cd4:	e1a01311 	lsl	r1, r1, r3
    8cd8:	eb0000e0 	bl	9060 <put32>
    8cdc:	e8bd8008 	pop	{r3, pc}
    8ce0:	000090f8 	strdeq	r9, [r0], -r8

00008ce4 <is_gpio_int>:
    8ce4:	e92d4008 	push	{r3, lr}
    8ce8:	e59f301c 	ldr	r3, [pc, #28]	; 8d0c <is_gpio_int+0x28>
    8cec:	e5930030 	ldr	r0, [r3, #48]	; 0x30
    8cf0:	eb0000e6 	bl	9090 <get32>
    8cf4:	e3500000 	cmp	r0, #0
    8cf8:	0a000001 	beq	8d04 <is_gpio_int+0x20>
    8cfc:	e3a00001 	mov	r0, #1
    8d00:	e8bd8008 	pop	{r3, pc}
    8d04:	e3a00000 	mov	r0, #0
    8d08:	e8bd8008 	pop	{r3, pc}
    8d0c:	000090f8 	strdeq	r9, [r0], -r8

00008d10 <gpio_int_rising_edge>:
    8d10:	e92d4038 	push	{r3, r4, r5, lr}
    8d14:	e1a04000 	mov	r4, r0
    8d18:	e350001f 	cmp	r0, #31
    8d1c:	88bd8038 	pophi	{r3, r4, r5, pc}
    8d20:	eb0000c8 	bl	9048 <dev_barrier>
    8d24:	e354001f 	cmp	r4, #31
    8d28:	8a000007 	bhi	8d4c <gpio_int_rising_edge+0x3c>
    8d2c:	e59f505c 	ldr	r5, [pc, #92]	; 8d90 <gpio_int_rising_edge+0x80>
    8d30:	e5950034 	ldr	r0, [r5, #52]	; 0x34
    8d34:	eb0000d5 	bl	9090 <get32>
    8d38:	e3a01001 	mov	r1, #1
    8d3c:	e1801411 	orr	r1, r0, r1, lsl r4
    8d40:	e5950034 	ldr	r0, [r5, #52]	; 0x34
    8d44:	eb0000c5 	bl	9060 <put32>
    8d48:	ea000007 	b	8d6c <gpio_int_rising_edge+0x5c>
    8d4c:	e59f503c 	ldr	r5, [pc, #60]	; 8d90 <gpio_int_rising_edge+0x80>
    8d50:	e5950038 	ldr	r0, [r5, #56]	; 0x38
    8d54:	eb0000cd 	bl	9090 <get32>
    8d58:	e204401f 	and	r4, r4, #31
    8d5c:	e3a01001 	mov	r1, #1
    8d60:	e1801411 	orr	r1, r0, r1, lsl r4
    8d64:	e5950038 	ldr	r0, [r5, #56]	; 0x38
    8d68:	eb0000bc 	bl	9060 <put32>
    8d6c:	eb0000b5 	bl	9048 <dev_barrier>
    8d70:	e59f4018 	ldr	r4, [pc, #24]	; 8d90 <gpio_int_rising_edge+0x80>
    8d74:	e594003c 	ldr	r0, [r4, #60]	; 0x3c
    8d78:	eb0000c4 	bl	9090 <get32>
    8d7c:	e3801802 	orr	r1, r0, #131072	; 0x20000
    8d80:	e594003c 	ldr	r0, [r4, #60]	; 0x3c
    8d84:	eb0000b5 	bl	9060 <put32>
    8d88:	eb0000ae 	bl	9048 <dev_barrier>
    8d8c:	e8bd8038 	pop	{r3, r4, r5, pc}
    8d90:	000090f8 	strdeq	r9, [r0], -r8

00008d94 <gpio_int_falling_edge>:
    8d94:	e92d4038 	push	{r3, r4, r5, lr}
    8d98:	e1a04000 	mov	r4, r0
    8d9c:	e350001f 	cmp	r0, #31
    8da0:	88bd8038 	pophi	{r3, r4, r5, pc}
    8da4:	eb0000a7 	bl	9048 <dev_barrier>
    8da8:	e354001f 	cmp	r4, #31
    8dac:	8a000007 	bhi	8dd0 <gpio_int_falling_edge+0x3c>
    8db0:	e59f505c 	ldr	r5, [pc, #92]	; 8e14 <gpio_int_falling_edge+0x80>
    8db4:	e5950040 	ldr	r0, [r5, #64]	; 0x40
    8db8:	eb0000b4 	bl	9090 <get32>
    8dbc:	e3a01001 	mov	r1, #1
    8dc0:	e1801411 	orr	r1, r0, r1, lsl r4
    8dc4:	e5950040 	ldr	r0, [r5, #64]	; 0x40
    8dc8:	eb0000a4 	bl	9060 <put32>
    8dcc:	ea000007 	b	8df0 <gpio_int_falling_edge+0x5c>
    8dd0:	e59f503c 	ldr	r5, [pc, #60]	; 8e14 <gpio_int_falling_edge+0x80>
    8dd4:	e5950044 	ldr	r0, [r5, #68]	; 0x44
    8dd8:	eb0000ac 	bl	9090 <get32>
    8ddc:	e204401f 	and	r4, r4, #31
    8de0:	e3a01001 	mov	r1, #1
    8de4:	e1801411 	orr	r1, r0, r1, lsl r4
    8de8:	e5950044 	ldr	r0, [r5, #68]	; 0x44
    8dec:	eb00009b 	bl	9060 <put32>
    8df0:	eb000094 	bl	9048 <dev_barrier>
    8df4:	e59f4018 	ldr	r4, [pc, #24]	; 8e14 <gpio_int_falling_edge+0x80>
    8df8:	e594003c 	ldr	r0, [r4, #60]	; 0x3c
    8dfc:	eb0000a3 	bl	9090 <get32>
    8e00:	e3801601 	orr	r1, r0, #1048576	; 0x100000
    8e04:	e594003c 	ldr	r0, [r4, #60]	; 0x3c
    8e08:	eb000094 	bl	9060 <put32>
    8e0c:	eb00008d 	bl	9048 <dev_barrier>
    8e10:	e8bd8038 	pop	{r3, r4, r5, pc}
    8e14:	000090f8 	strdeq	r9, [r0], -r8

00008e18 <gpio_event_detected>:
    8e18:	e92d4010 	push	{r4, lr}
    8e1c:	e1a04000 	mov	r4, r0
    8e20:	e350001f 	cmp	r0, #31
    8e24:	8a000019 	bhi	8e90 <gpio_event_detected+0x78>
    8e28:	eb000086 	bl	9048 <dev_barrier>
    8e2c:	e354001f 	cmp	r4, #31
    8e30:	8a000008 	bhi	8e58 <gpio_event_detected+0x40>
    8e34:	e59f305c 	ldr	r3, [pc, #92]	; 8e98 <gpio_event_detected+0x80>
    8e38:	e5930048 	ldr	r0, [r3, #72]	; 0x48
    8e3c:	eb000093 	bl	9090 <get32>
    8e40:	e3a03001 	mov	r3, #1
    8e44:	e0103413 	ands	r3, r0, r3, lsl r4
    8e48:	0a00000d 	beq	8e84 <gpio_event_detected+0x6c>
    8e4c:	eb00007d 	bl	9048 <dev_barrier>
    8e50:	e3a00001 	mov	r0, #1
    8e54:	e8bd8010 	pop	{r4, pc}
    8e58:	e59f3038 	ldr	r3, [pc, #56]	; 8e98 <gpio_event_detected+0x80>
    8e5c:	e593004c 	ldr	r0, [r3, #76]	; 0x4c
    8e60:	eb00008a 	bl	9090 <get32>
    8e64:	e3a03001 	mov	r3, #1
    8e68:	e0004413 	and	r4, r0, r3, lsl r4
    8e6c:	eb000075 	bl	9048 <dev_barrier>
    8e70:	e3540000 	cmp	r4, #0
    8e74:	0a000002 	beq	8e84 <gpio_event_detected+0x6c>
    8e78:	eb000072 	bl	9048 <dev_barrier>
    8e7c:	e3a00001 	mov	r0, #1
    8e80:	e8bd8010 	pop	{r4, pc}
    8e84:	eb00006f 	bl	9048 <dev_barrier>
    8e88:	e3a00000 	mov	r0, #0
    8e8c:	e8bd8010 	pop	{r4, pc}
    8e90:	e3e00000 	mvn	r0, #0
    8e94:	e8bd8010 	pop	{r4, pc}
    8e98:	000090f8 	strdeq	r9, [r0], -r8

00008e9c <gpio_event_clear>:
    8e9c:	e92d4010 	push	{r4, lr}
    8ea0:	e1a04000 	mov	r4, r0
    8ea4:	e350001f 	cmp	r0, #31
    8ea8:	88bd8010 	pophi	{r4, pc}
    8eac:	eb000065 	bl	9048 <dev_barrier>
    8eb0:	e354001f 	cmp	r4, #31
    8eb4:	8a000005 	bhi	8ed0 <gpio_event_clear+0x34>
    8eb8:	e59f3030 	ldr	r3, [pc, #48]	; 8ef0 <gpio_event_clear+0x54>
    8ebc:	e5930048 	ldr	r0, [r3, #72]	; 0x48
    8ec0:	e3a01001 	mov	r1, #1
    8ec4:	e1a01411 	lsl	r1, r1, r4
    8ec8:	eb000064 	bl	9060 <put32>
    8ecc:	ea000005 	b	8ee8 <gpio_event_clear+0x4c>
    8ed0:	e204401f 	and	r4, r4, #31
    8ed4:	e59f3014 	ldr	r3, [pc, #20]	; 8ef0 <gpio_event_clear+0x54>
    8ed8:	e593004c 	ldr	r0, [r3, #76]	; 0x4c
    8edc:	e3a01001 	mov	r1, #1
    8ee0:	e1a01411 	lsl	r1, r1, r4
    8ee4:	eb00005d 	bl	9060 <put32>
    8ee8:	eb000056 	bl	9048 <dev_barrier>
    8eec:	e8bd8010 	pop	{r4, pc}
    8ef0:	000090f8 	strdeq	r9, [r0], -r8

00008ef4 <uart_init>:
    8ef4:	e92d4038 	push	{r3, r4, r5, lr}
    8ef8:	eb000052 	bl	9048 <dev_barrier>
    8efc:	e3a0000e 	mov	r0, #14
    8f00:	e3a01002 	mov	r1, #2
    8f04:	ebffff32 	bl	8bd4 <gpio_set_function>
    8f08:	e3a0000f 	mov	r0, #15
    8f0c:	e3a01002 	mov	r1, #2
    8f10:	ebffff2f 	bl	8bd4 <gpio_set_function>
    8f14:	eb00004b 	bl	9048 <dev_barrier>
    8f18:	e59f4068 	ldr	r4, [pc, #104]	; 8f88 <uart_init+0x94>
    8f1c:	e5945000 	ldr	r5, [r4]
    8f20:	e1a00005 	mov	r0, r5
    8f24:	eb000059 	bl	9090 <get32>
    8f28:	e3801001 	orr	r1, r0, #1
    8f2c:	e1a00005 	mov	r0, r5
    8f30:	eb00004a 	bl	9060 <put32>
    8f34:	eb000043 	bl	9048 <dev_barrier>
    8f38:	e5940004 	ldr	r0, [r4, #4]
    8f3c:	e3a01000 	mov	r1, #0
    8f40:	eb000046 	bl	9060 <put32>
    8f44:	e5940008 	ldr	r0, [r4, #8]
    8f48:	e3a01000 	mov	r1, #0
    8f4c:	eb000043 	bl	9060 <put32>
    8f50:	e594000c 	ldr	r0, [r4, #12]
    8f54:	e3a01006 	mov	r1, #6
    8f58:	eb000040 	bl	9060 <put32>
    8f5c:	e5940010 	ldr	r0, [r4, #16]
    8f60:	e3a01003 	mov	r1, #3
    8f64:	eb00003d 	bl	9060 <put32>
    8f68:	e5940014 	ldr	r0, [r4, #20]
    8f6c:	e59f1018 	ldr	r1, [pc, #24]	; 8f8c <uart_init+0x98>
    8f70:	eb00003a 	bl	9060 <put32>
    8f74:	e5940004 	ldr	r0, [r4, #4]
    8f78:	e3a01003 	mov	r1, #3
    8f7c:	eb000037 	bl	9060 <put32>
    8f80:	eb000030 	bl	9048 <dev_barrier>
    8f84:	e8bd8038 	pop	{r3, r4, r5, pc}
    8f88:	00009158 	andeq	r9, r0, r8, asr r1
    8f8c:	0000010e 	andeq	r0, r0, lr, lsl #2

00008f90 <uart_can_getc>:
    8f90:	e92d4008 	push	{r3, lr}
    8f94:	e59f300c 	ldr	r3, [pc, #12]	; 8fa8 <uart_can_getc+0x18>
    8f98:	e5930018 	ldr	r0, [r3, #24]
    8f9c:	eb00003b 	bl	9090 <get32>
    8fa0:	e2000001 	and	r0, r0, #1
    8fa4:	e8bd8008 	pop	{r3, pc}
    8fa8:	00009158 	andeq	r9, r0, r8, asr r1

00008fac <uart_getc>:
    8fac:	e92d4008 	push	{r3, lr}
    8fb0:	ebfffff6 	bl	8f90 <uart_can_getc>
    8fb4:	e3500000 	cmp	r0, #0
    8fb8:	0afffffc 	beq	8fb0 <uart_getc+0x4>
    8fbc:	e59f300c 	ldr	r3, [pc, #12]	; 8fd0 <uart_getc+0x24>
    8fc0:	e593001c 	ldr	r0, [r3, #28]
    8fc4:	eb000031 	bl	9090 <get32>
    8fc8:	e6ef0070 	uxtb	r0, r0
    8fcc:	e8bd8008 	pop	{r3, pc}
    8fd0:	00009158 	andeq	r9, r0, r8, asr r1

00008fd4 <uart_can_putc>:
    8fd4:	e92d4008 	push	{r3, lr}
    8fd8:	e59f300c 	ldr	r3, [pc, #12]	; 8fec <uart_can_putc+0x18>
    8fdc:	e5930018 	ldr	r0, [r3, #24]
    8fe0:	eb00002a 	bl	9090 <get32>
    8fe4:	e2000020 	and	r0, r0, #32
    8fe8:	e8bd8008 	pop	{r3, pc}
    8fec:	00009158 	andeq	r9, r0, r8, asr r1

00008ff0 <uart_putc>:
    8ff0:	e92d4010 	push	{r4, lr}
    8ff4:	e1a04000 	mov	r4, r0
    8ff8:	ebfffff5 	bl	8fd4 <uart_can_putc>
    8ffc:	e3500000 	cmp	r0, #0
    9000:	0afffffc 	beq	8ff8 <uart_putc+0x8>
    9004:	e59f300c 	ldr	r3, [pc, #12]	; 9018 <uart_putc+0x28>
    9008:	e593001c 	ldr	r0, [r3, #28]
    900c:	e1a01004 	mov	r1, r4
    9010:	eb000012 	bl	9060 <put32>
    9014:	e8bd8010 	pop	{r4, pc}
    9018:	00009158 	andeq	r9, r0, r8, asr r1

0000901c <uart_has_data>:
    901c:	e92d4008 	push	{r3, lr}
    9020:	ebffffda 	bl	8f90 <uart_can_getc>
    9024:	e8bd8008 	pop	{r3, pc}

00009028 <uart_getc_async>:
    9028:	e92d4008 	push	{r3, lr}
    902c:	ebfffffa 	bl	901c <uart_has_data>
    9030:	e3500000 	cmp	r0, #0
    9034:	0a000001 	beq	9040 <uart_getc_async+0x18>
    9038:	ebffffdb 	bl	8fac <uart_getc>
    903c:	e8bd8008 	pop	{r3, pc}
    9040:	e3e00000 	mvn	r0, #0
    9044:	e8bd8008 	pop	{r3, pc}

00009048 <dev_barrier>:
    9048:	ea000002 	b	9058 <dsb>

0000904c <dmb>:
    904c:	e3a00000 	mov	r0, #0
    9050:	ee070fba 	mcr	15, 0, r0, cr7, cr10, {5}
    9054:	e12fff1e 	bx	lr

00009058 <dsb>:
    9058:	ee070f9a 	mcr	15, 0, r0, cr7, cr10, {4}
    905c:	e12fff1e 	bx	lr

00009060 <put32>:
    9060:	e5801000 	str	r1, [r0]
    9064:	e12fff1e 	bx	lr

00009068 <PUT32>:
    9068:	e5801000 	str	r1, [r0]
    906c:	e12fff1e 	bx	lr

00009070 <put16>:
    9070:	e1c010b0 	strh	r1, [r0]
    9074:	e12fff1e 	bx	lr

00009078 <PUT16>:
    9078:	e1c010b0 	strh	r1, [r0]
    907c:	e12fff1e 	bx	lr

00009080 <put8>:
    9080:	e5c01000 	strb	r1, [r0]
    9084:	e12fff1e 	bx	lr

00009088 <PUT8>:
    9088:	e5c01000 	strb	r1, [r0]
    908c:	e12fff1e 	bx	lr

00009090 <get32>:
    9090:	e5900000 	ldr	r0, [r0]
    9094:	e12fff1e 	bx	lr

00009098 <GET32>:
    9098:	e5900000 	ldr	r0, [r0]
    909c:	e12fff1e 	bx	lr

000090a0 <GETPC>:
    90a0:	e1a0000e 	mov	r0, lr
    90a4:	e12fff1e 	bx	lr

000090a8 <dummy>:
    90a8:	e12fff1e 	bx	lr

000090ac <internal_putchar>:
    90ac:	e92d4010 	push	{r4, lr}
    90b0:	e1a04000 	mov	r4, r0
    90b4:	ebffffcd 	bl	8ff0 <uart_putc>
    90b8:	e1a00004 	mov	r0, r4
    90bc:	e8bd8010 	pop	{r4, pc}

000090c0 <rpi_reset_putc>:
    90c0:	e59f2008 	ldr	r2, [pc, #8]	; 90d0 <rpi_reset_putc+0x10>
    90c4:	e59f3008 	ldr	r3, [pc, #8]	; 90d4 <rpi_reset_putc+0x14>
    90c8:	e5832000 	str	r2, [r3]
    90cc:	e12fff1e 	bx	lr
    90d0:	000090ac 	andeq	r9, r0, ip, lsr #1
    90d4:	0000918c 	andeq	r9, r0, ip, lsl #3

000090d8 <rpi_set_putc>:
    90d8:	e59f3004 	ldr	r3, [pc, #4]	; 90e4 <rpi_set_putc+0xc>
    90dc:	e5830000 	str	r0, [r3]
    90e0:	e12fff1e 	bx	lr
    90e4:	0000918c 	andeq	r9, r0, ip, lsl #3

Disassembly of section .data:

000090e8 <GPPUD>:
    90e8:	20200094 	mlacs	r0, r4, r0, r0

000090ec <GPPUDCLK0>:
    90ec:	20200098 	mlacs	r0, r8, r0, r0

000090f0 <GPPUDCLK1>:
    90f0:	2020009c 	mlacs	r0, ip, r0, r0

000090f4 <putk>:
    90f4:	000082d0 	ldrdeq	r8, [r0], -r0

000090f8 <GPFSEL0>:
    90f8:	20200000 	eorcs	r0, r0, r0

000090fc <GPFSEL1>:
    90fc:	20200004 	eorcs	r0, r0, r4

00009100 <GPFSEL2>:
    9100:	20200008 	eorcs	r0, r0, r8

00009104 <GPFSEL3>:
    9104:	2020000c 	eorcs	r0, r0, ip

00009108 <GPFSEL4>:
    9108:	20200010 	eorcs	r0, r0, r0, lsl r0

0000910c <GPFSEL5>:
    910c:	20200014 	eorcs	r0, r0, r4, lsl r0

00009110 <GPSET0>:
    9110:	2020001c 	eorcs	r0, r0, ip, lsl r0

00009114 <GPSET1>:
    9114:	20200020 	eorcs	r0, r0, r0, lsr #32

00009118 <GPCLR0>:
    9118:	20200028 	eorcs	r0, r0, r8, lsr #32

0000911c <GPCLR1>:
    911c:	2020002c 	eorcs	r0, r0, ip, lsr #32

00009120 <GPLEV0>:
    9120:	20200034 	eorcs	r0, r0, r4, lsr r0

00009124 <GPLEV1>:
    9124:	20200038 	eorcs	r0, r0, r8, lsr r0

00009128 <IRQ_PENDING_2>:
    9128:	2000b208 	andcs	fp, r0, r8, lsl #4

0000912c <GPREN0>:
    912c:	2020004c 	eorcs	r0, r0, ip, asr #32

00009130 <GPREN1>:
    9130:	20200050 	eorcs	r0, r0, r0, asr r0

00009134 <ENABLE_IRQS_2>:
    9134:	2000b214 	andcs	fp, r0, r4, lsl r2

00009138 <GPFEN0>:
    9138:	20200058 	eorcs	r0, r0, r8, asr r0

0000913c <GPFEN1>:
    913c:	2020005c 	eorcs	r0, r0, ip, asr r0

00009140 <GPEDS0>:
    9140:	20200040 	eorcs	r0, r0, r0, asr #32

00009144 <GPEDS1>:
    9144:	20200044 	eorcs	r0, r0, r4, asr #32

00009148 <IRQ_PENDING_1>:
    9148:	2000b204 	andcs	fp, r0, r4, lsl #4

0000914c <gpio_clr0>:
    914c:	20200028 	eorcs	r0, r0, r8, lsr #32

00009150 <gpio_set0>:
    9150:	2020001c 	eorcs	r0, r0, ip, lsl r0

00009154 <gpio_fsel0>:
    9154:	20200000 	eorcs	r0, r0, r0

00009158 <AUX_ENABLES>:
    9158:	20215004 	eorcs	r5, r1, r4

0000915c <AUX_MU_CNTL_REG>:
    915c:	20215060 	eorcs	r5, r1, r0, rrx

00009160 <AUX_MU_IER_REG>:
    9160:	20215044 	eorcs	r5, r1, r4, asr #32

00009164 <AUX_MU_IIR_REG>:
    9164:	20215048 	eorcs	r5, r1, r8, asr #32

00009168 <AUX_MU_LCR_REG>:
    9168:	2021504c 	eorcs	r5, r1, ip, asr #32

0000916c <AUX_MU_BAUD_REG>:
    916c:	20215068 	eorcs	r5, r1, r8, rrx

00009170 <AUX_MU_LSR_REG>:
    9170:	20215054 	eorcs	r5, r1, r4, asr r0

00009174 <AUX_MU_IO_REG>:
    9174:	20215040 	eorcs	r5, r1, r0, asr #32

00009178 <AUX_MU_STAT_REG>:
    9178:	20215064 	eorcs	r5, r1, r4, rrx

0000917c <AUX_MU_SCRATCH>:
    917c:	2021505c 	eorcs	r5, r1, ip, asr r0

00009180 <AUX_MU_MSR_REG>:
    9180:	20215058 	eorcs	r5, r1, r8, asr r0

00009184 <AUX_MU_MCR_REG>:
    9184:	20215050 	eorcs	r5, r1, r0, asr r0

00009188 <AUX_IRQ>:
    9188:	20215000 	eorcs	r5, r1, r0

0000918c <rpi_putchar>:
    918c:	000090ac 	andeq	r9, r0, ip, lsr #1

Disassembly of section .rodata:

00009190 <__FUNCTION__.4271-0xe8>:
    9190:	6c6c7570 	cfstr64vs	mvdx7, [ip], #-448	; 0xfffffe40
    9194:	253d7075 	ldrcs	r7, [sp, #-117]!	; 0x75
    9198:	74202c64 	strtvc	r2, [r0], #-3172	; 0xc64
    919c:	20736968 	rsbscs	r6, r3, r8, ror #18
    91a0:	73207369 	teqvc	r0, #-1543503871	; 0xa4000001
    91a4:	6b636974 	blvs	18e377c <__bss_end__+0x18d9ff4>
    91a8:	74203a79 	strtvc	r3, [r0], #-2681	; 0xa79
    91ac:	6863756f 	stmdavs	r3!, {r0, r1, r2, r3, r5, r6, r8, sl, ip, sp, lr}^
    91b0:	64657220 	strbtvs	r7, [r5], #-544	; 0x220
    91b4:	61656c20 	cmnvs	r5, r0, lsr #24
    91b8:	6f742064 	svcvs	0x00742064
    91bc:	69687420 	stmdbvs	r8!, {r5, sl, ip, sp, lr}^
    91c0:	69702073 	ldmdbvs	r0!, {r0, r1, r4, r5, r6, sp}^
    91c4:	6e61206e 	cdpvs	0, 6, cr2, cr1, cr14, {3}
    91c8:	6c622064 	stclvs	0, cr2, [r2], #-400	; 0xfffffe70
    91cc:	206b6361 	rsbcs	r6, fp, r1, ror #6
    91d0:	67206f74 			; <UNDEFINED> instruction: 0x67206f74
    91d4:	6e756f72 	mrcvs	15, 3, r6, cr5, cr2, {3}
    91d8:	73203a64 	teqvc	r0, #100, 20	; 0x64000
    91dc:	6c756f68 	ldclvs	15, cr6, [r5], #-416	; 0xfffffe60
    91e0:	65732064 	ldrbvs	r2, [r3, #-100]!	; 0x64
    91e4:	20612065 	rsbcs	r2, r1, r5, rrx
    91e8:	2056337e 	subscs	r3, r6, lr, ror r3
    91ec:	64616572 	strbtvs	r6, [r1], #-1394	; 0x572
    91f0:	20676e69 	rsbcs	r6, r7, r9, ror #28
    91f4:	6d206e6f 	stcvs	14, cr6, [r0, #-444]!	; 0xfffffe44
    91f8:	69746c75 	ldmdbvs	r4!, {r0, r2, r4, r5, r6, sl, fp, sp, lr}^
    91fc:	6574656d 	ldrbvs	r6, [r4, #-1389]!	; 0x56d
    9200:	00000a72 	andeq	r0, r0, r2, ror sl
    9204:	6c6c7570 	cfstr64vs	mvdx7, [ip], #-448	; 0xfffffe40
    9208:	6e776f64 	cdpvs	15, 7, cr6, cr7, cr4, {3}
    920c:	2c64253d 	cfstr64cs	mvdx2, [r4], #-244	; 0xffffff0c
    9210:	69687420 	stmdbvs	r8!, {r5, sl, ip, sp, lr}^
    9214:	73692073 	cmnvc	r9, #115	; 0x73
    9218:	69747320 	ldmdbvs	r4!, {r5, r8, r9, ip, sp, lr}^
    921c:	3a796b63 	bcc	1e63fb0 <__bss_end__+0x1e5a828>
    9220:	756f7420 	strbvc	r7, [pc, #-1056]!	; 8e08 <gpio_int_falling_edge+0x74>
    9224:	62206863 	eorvs	r6, r0, #6488064	; 0x630000
    9228:	6b63616c 	blvs	18e17e0 <__bss_end__+0x18d8058>
    922c:	61656c20 	cmnvs	r5, r0, lsr #24
    9230:	6f742064 	svcvs	0x00742064
    9234:	69687420 	stmdbvs	r8!, {r5, sl, ip, sp, lr}^
    9238:	69702073 	ldmdbvs	r0!, {r0, r1, r4, r5, r6, sp}^
    923c:	61202c6e 	teqvs	r0, lr, ror #24
    9240:	7220646e 	eorvc	r6, r0, #1845493760	; 0x6e000000
    9244:	74206465 	strtvc	r6, [r0], #-1125	; 0x465
    9248:	7633206f 	ldrtvc	r2, [r3], -pc, rrx
    924c:	6873203a 	ldmdavs	r3!, {r1, r3, r4, r5, sp}^
    9250:	646c756f 	strbtvs	r7, [ip], #-1391	; 0x56f
    9254:	65657320 	strbvs	r7, [r5, #-800]!	; 0x320
    9258:	7e206120 	sufvcsp	f6, f0, f0
    925c:	72205633 	eorvc	r5, r0, #53477376	; 0x3300000
    9260:	69646165 	stmdbvs	r4!, {r0, r2, r5, r6, r8, sp, lr}^
    9264:	6f20676e 	svcvs	0x0020676e
    9268:	756d206e 	strbvc	r2, [sp, #-110]!	; 0x6e
    926c:	6d69746c 	cfstrdvs	mvd7, [r9, #-432]!	; 0xfffffe50
    9270:	72657465 	rsbvc	r7, r5, #1694498816	; 0x65000000
    9274:	0000000a 	andeq	r0, r0, sl

00009278 <__FUNCTION__.4271>:
    9278:	74696d65 	strbtvc	r6, [r9], #-3429	; 0xd65
    927c:	00000000 	andeq	r0, r0, r0

00009280 <__FUNCTION__.4219>:
    9280:	5f697072 	svcpl	0x00697072
    9284:	5f746573 	svcpl	0x00746573
    9288:	7074756f 	rsbsvc	r7, r4, pc, ror #10
    928c:	00007475 	andeq	r7, r0, r5, ror r4

00009290 <__FUNCTION__.4293>:
    9290:	705f6176 	subsvc	r6, pc, r6, ror r1	; <UNPREDICTABLE>
    9294:	746e6972 	strbtvc	r6, [lr], #-2418	; 0x972
    9298:	0000006b 	andeq	r0, r0, fp, rrx
    929c:	494e4150 	stmdbmi	lr, {r4, r6, r8, lr}^
    92a0:	73253a43 	teqvc	r5, #274432	; 0x43000
    92a4:	3a73253a 	bcc	1cd2794 <__bss_end__+0x1cc900c>
    92a8:	303a6425 	eorscc	r6, sl, r5, lsr #8
    92ac:	0000000a 	andeq	r0, r0, sl
    92b0:	6362696c 	cmnvs	r2, #108, 18	; 0x1b0000
    92b4:	2d61762f 	stclcs	6, cr7, [r1, #-188]!	; 0xffffff44
    92b8:	6e697270 	mcrvs	2, 3, r7, cr9, cr0, {3}
    92bc:	632e6b74 	teqvs	lr, #116, 22	; 0x1d000
    92c0:	00000000 	andeq	r0, r0, r0
    92c4:	33323130 	teqcc	r2, #48, 2
    92c8:	37363534 			; <UNDEFINED> instruction: 0x37363534
    92cc:	00003938 	andeq	r3, r0, r8, lsr r9
    92d0:	33323130 	teqcc	r2, #48, 2
    92d4:	37363534 			; <UNDEFINED> instruction: 0x37363534
    92d8:	62613938 	rsbvs	r3, r1, #56, 18	; 0xe0000
    92dc:	66656463 	strbtvs	r6, [r5], -r3, ror #8
    92e0:	00000000 	andeq	r0, r0, r0
    92e4:	00003130 	andeq	r3, r0, r0, lsr r1
    92e8:	494e4150 	stmdbmi	lr, {r4, r6, r8, lr}^
    92ec:	73253a43 	teqvc	r5, #274432	; 0x43000
    92f0:	3a73253a 	bcc	1cd27e0 <__bss_end__+0x1cc9058>
    92f4:	703a6425 	eorsvc	r6, sl, r5, lsr #8
    92f8:	5f637475 	svcpl	0x00637475
    92fc:	000a7066 	andeq	r7, sl, r6, rrx
    9300:	494e4150 	stmdbmi	lr, {r4, r6, r8, lr}^
    9304:	73253a43 	teqvc	r5, #274432	; 0x43000
    9308:	3a73253a 	bcc	1cd27f8 <__bss_end__+0x1cc9070>
    930c:	773a6425 	ldrvc	r6, [sl, -r5, lsr #8]!
    9310:	68746469 	ldmdavs	r4!, {r0, r3, r5, r6, sl, sp, lr}^
    9314:	33203c20 	teqcc	r0, #32, 24	; 0x2000
    9318:	00000a32 	andeq	r0, r0, r2, lsr sl
    931c:	494e4150 	stmdbmi	lr, {r4, r6, r8, lr}^
    9320:	73253a43 	teqvc	r5, #274432	; 0x43000
    9324:	3a73253a 	bcc	1cd2814 <__bss_end__+0x1cc908c>
    9328:	663a6425 	ldrtvs	r6, [sl], -r5, lsr #8
    932c:	74616f6c 	strbtvc	r6, [r1], #-3948	; 0xf6c
    9330:	746f6e20 	strbtvc	r6, [pc], #-3616	; 9338 <__FUNCTION__.4293+0xa8>
    9334:	616e6520 	cmnvs	lr, r0, lsr #10
    9338:	64656c62 	strbtvs	r6, [r5], #-3170	; 0xc62
    933c:	0a212121 	beq	8517c8 <__bss_end__+0x848040>
    9340:	00000000 	andeq	r0, r0, r0
    9344:	494e4150 	stmdbmi	lr, {r4, r6, r8, lr}^
    9348:	73253a43 	teqvc	r5, #274432	; 0x43000
    934c:	3a73253a 	bcc	1cd283c <__bss_end__+0x1cc90b4>
    9350:	703a6425 	eorsvc	r6, sl, r5, lsr #8
    9354:	746e6972 	strbtvc	r6, [lr], #-2418	; 0x972
    9358:	6e203a6b 	vnmulvs.f32	s6, s0, s23
    935c:	6820746f 	stmdavs	r0!, {r0, r1, r2, r3, r5, r6, sl, ip, sp, lr}
    9360:	6c646e61 	stclvs	14, cr6, [r4], #-388	; 0xfffffe7c
    9364:	20676e69 	rsbcs	r6, r7, r9, ror #28
    9368:	63657073 	cmnvs	r5, #115	; 0x73
    936c:	65696669 	strbvs	r6, [r9, #-1641]!	; 0x669
    9370:	25272072 	strcs	r2, [r7, #-114]!	; 0x72
    9374:	0a0a2763 	beq	293108 <__bss_end__+0x289980>
    9378:	00000000 	andeq	r0, r0, r0
    937c:	454e4f44 	strbmi	r4, [lr, #-3908]	; 0xf44
    9380:	0a212121 	beq	85180c <__bss_end__+0x848084>
    9384:	00000000 	andeq	r0, r0, r0

Disassembly of section .bss:

00009388 <__bss_start__>:
	...

Disassembly of section .ARM.attributes:

00000000 <.ARM.attributes>:
   0:	00002a41 	andeq	r2, r0, r1, asr #20
   4:	61656100 	cmnvs	r5, r0, lsl #2
   8:	01006962 	tsteq	r0, r2, ror #18
   c:	00000020 	andeq	r0, r0, r0, lsr #32
  10:	4b5a3605 	blmi	168d82c <__bss_end__+0x16840a4>
  14:	08070600 	stmdaeq	r7, {r9, sl}
  18:	12010901 	andne	r0, r1, #16384	; 0x4000
  1c:	15011404 	strne	r1, [r1, #-1028]	; 0x404
  20:	18031701 	stmdane	r3, {r0, r8, r9, sl, ip}
  24:	22011a01 	andcs	r1, r1, #4096	; 0x1000
  28:	Address 0x0000000000000028 is out of bounds.


Disassembly of section .comment:

00000000 <.comment>:
   0:	3a434347 	bcc	10d0d24 <__bss_end__+0x10c759c>
   4:	4e472820 	cdpmi	8, 4, cr2, cr7, cr0, {1}
   8:	34202955 	strtcc	r2, [r0], #-2389	; 0x955
   c:	332e382e 	teqcc	lr, #3014656	; 0x2e0000
	...

Disassembly of section .debug_info:

00000000 <.debug_info>:
       0:	000001b4 			; <UNDEFINED> instruction: 0x000001b4
       4:	00000004 	andeq	r0, r0, r4
       8:	01040000 	mrseq	r0, (UNDEF: 4)
       c:	00000102 	andeq	r0, r0, r2, lsl #2
      10:	00002d01 	andeq	r2, r0, r1, lsl #26
      14:	00008800 	andeq	r8, r0, r0, lsl #16
      18:	00801000 	addeq	r1, r0, r0
      1c:	00005400 	andeq	r5, r0, r0, lsl #8
      20:	00000000 	andeq	r0, r0, r0
      24:	05040200 	streq	r0, [r4, #-512]	; 0x200
      28:	00746e69 	rsbseq	r6, r4, r9, ror #28
      2c:	3c070403 	cfstrscc	mvf0, [r7], {3}
      30:	03000000 	movweq	r0, #0
      34:	004b0601 	subeq	r0, fp, r1, lsl #12
      38:	02030000 	andeq	r0, r3, #0
      3c:	0000f805 	andeq	pc, r0, r5, lsl #16
      40:	05040300 	streq	r0, [r4, #-768]	; 0x300
      44:	00000005 	andeq	r0, r0, r5
      48:	00050803 	andeq	r0, r5, r3, lsl #16
      4c:	03000000 	movweq	r0, #0
      50:	00490801 	subeq	r0, r9, r1, lsl #16
      54:	02030000 	andeq	r0, r3, #0
      58:	0000e507 	andeq	lr, r0, r7, lsl #10
      5c:	07040300 	streq	r0, [r4, -r0, lsl #6]
      60:	00000037 	andeq	r0, r0, r7, lsr r0
      64:	32070803 	andcc	r0, r7, #196608	; 0x30000
      68:	03000000 	movweq	r0, #0
      6c:	016d0704 	cmneq	sp, r4, lsl #14
      70:	01030000 	mrseq	r0, (UNDEF: 3)
      74:	00005208 	andeq	r5, r0, r8, lsl #4
      78:	7f040400 	svcvc	0x00040400
      7c:	05000000 	streq	r0, [r0, #-0]
      80:	00000072 	andeq	r0, r0, r2, ror r0
      84:	00006e06 	andeq	r6, r0, r6, lsl #28
      88:	10050100 	andne	r0, r5, r0, lsl #2
      8c:	54000080 	strpl	r0, [r0], #-128	; 0x80
      90:	01000000 	mrseq	r0, (UNDEF: 0)
      94:	0001609c 	muleq	r1, ip, r0
      98:	70750700 	rsbsvc	r0, r5, r0, lsl #14
      9c:	2c080100 	stfcss	f0, [r8], {-0}
      a0:	15000000 	strne	r0, [r0, #-0]
      a4:	00008308 	andeq	r8, r0, r8, lsl #6
      a8:	2c080100 	stfcss	f0, [r8], {-0}
      ac:	14000000 	strne	r0, [r0], #-0
      b0:	00801809 	addeq	r1, r0, r9, lsl #16
      b4:	00000800 	andeq	r0, r0, r0, lsl #16
      b8:	0000c900 	andeq	ip, r0, r0, lsl #18
      bc:	6e690700 	cdpvs	7, 6, cr0, cr9, cr0, {0}
      c0:	2c070100 	stfcss	f0, [r7], {-0}
      c4:	01000000 	mrseq	r0, (UNDEF: 0)
      c8:	80180a00 	andshi	r0, r8, r0, lsl #20
      cc:	01600000 	cmneq	r0, r0
      d0:	280b0000 	stmdacs	fp, {}	; <UNPREDICTABLE>
      d4:	67000080 	strvs	r0, [r0, -r0, lsl #1]
      d8:	e5000001 	str	r0, [r0, #-1]
      dc:	0c000000 	stceq	0, cr0, [r0], {-0}
      e0:	45015001 	strmi	r5, [r1, #-1]
      e4:	80300b00 	eorshi	r0, r0, r0, lsl #22
      e8:	01780000 	cmneq	r8, r0
      ec:	00f80000 	rscseq	r0, r8, r0
      f0:	010c0000 	mrseq	r0, (UNDEF: 12)
      f4:	00450150 	subeq	r0, r5, r0, asr r1
      f8:	00803c0b 	addeq	r3, r0, fp, lsl #24
      fc:	00018900 	andeq	r8, r1, r0, lsl #18
     100:	00011400 	andeq	r1, r1, r0, lsl #8
     104:	51010c00 	tstpl	r1, r0, lsl #24
     108:	010c4501 	tsteq	ip, r1, lsl #10
     10c:	90030550 	andls	r0, r3, r0, asr r5
     110:	00000091 	muleq	r0, r1, r0
     114:	0080440b 	addeq	r4, r0, fp, lsl #8
     118:	00016700 	andeq	r6, r1, r0, lsl #14
     11c:	00012700 	andeq	r2, r1, r0, lsl #14
     120:	50010c00 	andpl	r0, r1, r0, lsl #24
     124:	0b004501 	bleq	11530 <__bss_end__+0x7da8>
     128:	0000804c 	andeq	r8, r0, ip, asr #32
     12c:	0000019f 	muleq	r0, pc, r1	; <UNPREDICTABLE>
     130:	0000013a 	andeq	r0, r0, sl, lsr r1
     134:	0150010c 	cmpeq	r0, ip, lsl #2
     138:	580b0044 	stmdapl	fp, {r2, r6}
     13c:	89000080 	stmdbhi	r0, {r7}
     140:	56000001 	strpl	r0, [r0], -r1
     144:	0c000001 	stceq	0, cr0, [r0], {1}
     148:	44015101 	strmi	r5, [r1], #-257	; 0x101
     14c:	0550010c 	ldrbeq	r0, [r0, #-268]	; 0x10c
     150:	00920403 	addseq	r0, r2, r3, lsl #8
     154:	5c0a0000 	stcpl	0, cr0, [sl], {-0}
     158:	b0000080 	andlt	r0, r0, r0, lsl #1
     15c:	00000001 	andeq	r0, r0, r1
     160:	0000570d 	andeq	r5, r0, sp, lsl #14
     164:	0e3a0300 	cdpeq	3, 3, cr0, cr10, cr0, {0}
     168:	0000000e 	andeq	r0, r0, lr
     16c:	01781c02 	cmneq	r8, r2, lsl #24
     170:	2c0f0000 	stccs	0, cr0, [pc], {-0}
     174:	00000000 	andeq	r0, r0, r0
     178:	00001d0e 	andeq	r1, r0, lr, lsl #26
     17c:	89300200 	ldmdbhi	r0!, {r9}
     180:	0f000001 	svceq	0x00000001
     184:	0000002c 	andeq	r0, r0, ip, lsr #32
     188:	02411000 	subeq	r1, r1, #0
     18c:	29030000 	stmdbcs	r3, {}	; <UNPREDICTABLE>
     190:	00000025 	andeq	r0, r0, r5, lsr #32
     194:	0000019f 	muleq	r0, pc, r1	; <UNPREDICTABLE>
     198:	0000790f 	andeq	r7, r0, pc, lsl #18
     19c:	0e001100 	adfeqs	f1, f0, f0
     1a0:	00000076 	andeq	r0, r0, r6, ror r0
     1a4:	01b03202 	lslseq	r3, r2, #4
     1a8:	2c0f0000 	stccs	0, cr0, [pc], {-0}
     1ac:	00000000 	andeq	r0, r0, r0
     1b0:	0000610d 	andeq	r6, r0, sp, lsl #2
     1b4:	00660300 	rsbeq	r0, r6, r0, lsl #6
     1b8:	00000598 	muleq	r0, r8, r5
     1bc:	00e60004 	rsceq	r0, r6, r4
     1c0:	01040000 	mrseq	r0, (UNDEF: 4)
     1c4:	00000102 	andeq	r0, r0, r2, lsl #2
     1c8:	00018101 	andeq	r8, r1, r1, lsl #2
     1cc:	00008800 	andeq	r8, r0, r0, lsl #16
     1d0:	00806400 	addeq	r6, r0, r0, lsl #8
     1d4:	00021400 	andeq	r1, r2, r0, lsl #8
     1d8:	0000e100 	andeq	lr, r0, r0, lsl #2
     1dc:	05040200 	streq	r0, [r4, #-512]	; 0x200
     1e0:	00746e69 	rsbseq	r6, r4, r9, ror #28
     1e4:	3c070403 	cfstrscc	mvf0, [r7], {3}
     1e8:	03000000 	movweq	r0, #0
     1ec:	004b0601 	subeq	r0, fp, r1, lsl #12
     1f0:	02030000 	andeq	r0, r3, #0
     1f4:	0000f805 	andeq	pc, r0, r5, lsl #16
     1f8:	05040300 	streq	r0, [r4, #-768]	; 0x300
     1fc:	00000005 	andeq	r0, r0, r5
     200:	00050803 	andeq	r0, r5, r3, lsl #16
     204:	03000000 	movweq	r0, #0
     208:	00490801 	subeq	r0, r9, r1, lsl #16
     20c:	02030000 	andeq	r0, r3, #0
     210:	0000e507 	andeq	lr, r0, r7, lsl #10
     214:	07040300 	streq	r0, [r4, -r0, lsl #6]
     218:	00000037 	andeq	r0, r0, r7, lsr r0
     21c:	32070803 	andcc	r0, r7, #196608	; 0x30000
     220:	03000000 	movweq	r0, #0
     224:	016d0704 	cmneq	sp, r4, lsl #14
     228:	01030000 	mrseq	r0, (UNDEF: 3)
     22c:	00005208 	andeq	r5, r0, r8, lsl #4
     230:	001d0400 	andseq	r0, sp, r0, lsl #8
     234:	09010000 	stmdbeq	r1, {}	; <UNPREDICTABLE>
     238:	00008064 	andeq	r8, r0, r4, rrx
     23c:	000000b4 	strheq	r0, [r0], -r4
     240:	02129c01 	andseq	r9, r2, #256	; 0x100
     244:	70050000 	andvc	r0, r5, r0
     248:	01006e69 	tsteq	r0, r9, ror #28
     24c:	00002c09 	andeq	r2, r0, r9, lsl #24
     250:	00000000 	andeq	r0, r0, r0
     254:	61760600 	cmnvs	r6, r0, lsl #12
     258:	0a01006c 	beq	40410 <__bss_end__+0x36c88>
     25c:	0000002c 	andeq	r0, r0, ip, lsr #32
     260:	03a70702 			; <UNDEFINED> instruction: 0x03a70702
     264:	0d010000 	stceq	0, cr0, [r1, #-0]
     268:	0000002c 	andeq	r0, r0, ip, lsr #32
     26c:	0000002c 	andeq	r0, r0, ip, lsr #32
     270:	0001be07 	andeq	fp, r1, r7, lsl #28
     274:	12100100 	andsne	r0, r0, #0, 2
     278:	60000002 	andvs	r0, r0, r2
     27c:	08000000 	stmdaeq	r0, {}	; <UNPREDICTABLE>
     280:	00000176 	andeq	r0, r0, r6, ror r1
     284:	002c1701 	eoreq	r1, ip, r1, lsl #14
     288:	55010000 	strpl	r0, [r1, #-0]
     28c:	00807c09 	addeq	r7, r0, r9, lsl #24
     290:	00000400 	andeq	r0, r0, r0, lsl #8
     294:	0000f100 	andeq	pc, r0, r0, lsl #2
     298:	01a60700 			; <UNDEFINED> instruction: 0x01a60700
     29c:	0d010000 	stceq	0, cr0, [r1, #-0]
     2a0:	0000002c 	andeq	r0, r0, ip, lsr #32
     2a4:	00000096 	muleq	r0, r6, r0
     2a8:	80800900 	addhi	r0, r0, r0, lsl #18
     2ac:	00040000 	andeq	r0, r4, r0
     2b0:	010e0000 	mrseq	r0, (UNDEF: 14)
     2b4:	a6070000 	strge	r0, [r7], -r0
     2b8:	01000001 	tsteq	r0, r1
     2bc:	00002c0e 	andeq	r2, r0, lr, lsl #24
     2c0:	0000a900 	andeq	sl, r0, r0, lsl #18
     2c4:	b8090000 	stmdalt	r9, {}	; <UNPREDICTABLE>
     2c8:	04000080 	streq	r0, [r0], #-128	; 0x80
     2cc:	2b000000 	blcs	2d4 <_start-0x7d2c>
     2d0:	07000001 	streq	r0, [r0, -r1]
     2d4:	000001a6 	andeq	r0, r0, r6, lsr #3
     2d8:	002c1a01 	eoreq	r1, ip, r1, lsl #20
     2dc:	00bc0000 	adcseq	r0, ip, r0
     2e0:	09000000 	stmdbeq	r0, {}	; <UNPREDICTABLE>
     2e4:	000080bc 	strheq	r8, [r0], -ip
     2e8:	00000004 	andeq	r0, r0, r4
     2ec:	00000148 	andeq	r0, r0, r8, asr #2
     2f0:	0001a607 	andeq	sl, r1, r7, lsl #12
     2f4:	2c1b0100 	ldfcss	f0, [fp], {-0}
     2f8:	cf000000 	svcgt	0x00000000
     2fc:	00000000 	andeq	r0, r0, r0
     300:	0080dc09 	addeq	sp, r0, r9, lsl #24
     304:	00000400 	andeq	r0, r0, r0, lsl #8
     308:	00016500 	andeq	r6, r1, r0, lsl #10
     30c:	01a60700 			; <UNDEFINED> instruction: 0x01a60700
     310:	1f010000 	svcne	0x00010000
     314:	0000002c 	andeq	r0, r0, ip, lsr #32
     318:	000000e2 	andeq	r0, r0, r2, ror #1
     31c:	80e00900 	rschi	r0, r0, r0, lsl #18
     320:	00040000 	andeq	r0, r4, r0
     324:	01820000 	orreq	r0, r2, r0
     328:	a6070000 	strge	r0, [r7], -r0
     32c:	01000001 	tsteq	r0, r1
     330:	00002c20 	andeq	r2, r0, r0, lsr #24
     334:	0000f500 	andeq	pc, r0, r0, lsl #10
     338:	fc090000 	stc2	0, cr0, [r9], {-0}
     33c:	04000080 	streq	r0, [r0], #-128	; 0x80
     340:	9d000000 	stcls	0, cr0, [r0, #-0]
     344:	08000001 	stmdaeq	r0, {r0}
     348:	000001a6 	andeq	r0, r0, r6, lsr #3
     34c:	002c2401 	eoreq	r2, ip, r1, lsl #8
     350:	52010000 	andpl	r0, r1, #0
     354:	81000900 	tsthi	r0, r0, lsl #18
     358:	00040000 	andeq	r0, r4, r0
     35c:	01ba0000 			; <UNDEFINED> instruction: 0x01ba0000
     360:	a6070000 	strge	r0, [r7], -r0
     364:	01000001 	tsteq	r0, r1
     368:	00002c25 	andeq	r2, r0, r5, lsr #24
     36c:	00010800 	andeq	r0, r1, r0, lsl #16
     370:	7c0a0000 	stcvc	0, cr0, [sl], {-0}
     374:	7e000080 	cdpvc	0, 0, cr0, cr0, cr0, {4}
     378:	cd000005 	stcgt	0, cr0, [r0, #-20]	; 0xffffffec
     37c:	0b000001 	bleq	388 <_start-0x7c78>
     380:	32015101 	andcc	r5, r1, #1073741824	; 0x40000000
     384:	80b80a00 	adcshi	r0, r8, r0, lsl #20
     388:	057e0000 	ldrbeq	r0, [lr, #-0]!
     38c:	01e90000 	mvneq	r0, r0
     390:	010b0000 	mrseq	r0, (UNDEF: 11)
     394:	75310451 	ldrvc	r0, [r1, #-1105]!	; 0x451
     398:	010b2400 	tsteq	fp, r0, lsl #8
     39c:	00740250 	rsbseq	r0, r4, r0, asr r2
     3a0:	80dc0a00 	sbcshi	r0, ip, r0, lsl #20
     3a4:	057e0000 	ldrbeq	r0, [lr, #-0]!
     3a8:	01fc0000 	mvnseq	r0, r0
     3ac:	010b0000 	mrseq	r0, (UNDEF: 11)
     3b0:	00300151 	eorseq	r0, r0, r1, asr r1
     3b4:	0080fc0c 	addeq	pc, r0, ip, lsl #24
     3b8:	00057e00 	andeq	r7, r5, r0, lsl #28
     3bc:	51010b00 	tstpl	r1, r0, lsl #22
     3c0:	010b3001 	tsteq	fp, r1
     3c4:	00740250 	rsbseq	r0, r4, r0, asr r2
     3c8:	040d0000 	streq	r0, [sp], #-0
     3cc:	00000218 	andeq	r0, r0, r8, lsl r2
     3d0:	00002c0e 	andeq	r2, r0, lr, lsl #24
     3d4:	00760400 	rsbseq	r0, r6, r0, lsl #8
     3d8:	27010000 	strcs	r0, [r1, -r0]
     3dc:	00008118 	andeq	r8, r0, r8, lsl r1
     3e0:	000000b4 	strheq	r0, [r0], -r4
     3e4:	03b69c01 			; <UNDEFINED> instruction: 0x03b69c01
     3e8:	70050000 	andvc	r0, r5, r0
     3ec:	01006e69 	tsteq	r0, r9, ror #28
     3f0:	00002c27 	andeq	r2, r0, r7, lsr #24
     3f4:	00011b00 	andeq	r1, r1, r0, lsl #22
     3f8:	61760600 	cmnvs	r6, r0, lsl #12
     3fc:	2801006c 	stmdacs	r1, {r2, r3, r5, r6}
     400:	0000002c 	andeq	r0, r0, ip, lsr #32
     404:	03a70701 			; <UNDEFINED> instruction: 0x03a70701
     408:	2b010000 	blcs	40410 <__bss_end__+0x36c88>
     40c:	0000002c 	andeq	r0, r0, ip, lsr #32
     410:	00000147 	andeq	r0, r0, r7, asr #2
     414:	0001be07 	andeq	fp, r1, r7, lsl #28
     418:	122e0100 	eorne	r0, lr, #0, 2
     41c:	7b000002 	blvc	42c <_start-0x7bd4>
     420:	08000001 	stmdaeq	r0, {r0}
     424:	00000176 	andeq	r0, r0, r6, ror r1
     428:	002c3501 	eoreq	r3, ip, r1, lsl #10
     42c:	55010000 	strpl	r0, [r1, #-0]
     430:	00813009 	addeq	r3, r1, r9
     434:	00000400 	andeq	r0, r0, r0, lsl #8
     438:	00029500 	andeq	r9, r2, r0, lsl #10
     43c:	01a60700 			; <UNDEFINED> instruction: 0x01a60700
     440:	2b010000 	blcs	40448 <__bss_end__+0x36cc0>
     444:	0000002c 	andeq	r0, r0, ip, lsr #32
     448:	000001b1 			; <UNDEFINED> instruction: 0x000001b1
     44c:	81340900 	teqhi	r4, r0, lsl #18
     450:	00040000 	andeq	r0, r4, r0
     454:	02b20000 	adcseq	r0, r2, #0
     458:	a6070000 	strge	r0, [r7], -r0
     45c:	01000001 	tsteq	r0, r1
     460:	00002c2c 	andeq	r2, r0, ip, lsr #24
     464:	0001c400 	andeq	ip, r1, r0, lsl #8
     468:	6c090000 	stcvs	0, cr0, [r9], {-0}
     46c:	04000081 	streq	r0, [r0], #-129	; 0x81
     470:	cf000000 	svcgt	0x00000000
     474:	07000002 	streq	r0, [r0, -r2]
     478:	000001a6 	andeq	r0, r0, r6, lsr #3
     47c:	002c3801 	eoreq	r3, ip, r1, lsl #16
     480:	01d70000 	bicseq	r0, r7, r0
     484:	09000000 	stmdbeq	r0, {}	; <UNPREDICTABLE>
     488:	00008170 	andeq	r8, r0, r0, ror r1
     48c:	00000004 	andeq	r0, r0, r4
     490:	000002ec 	andeq	r0, r0, ip, ror #5
     494:	0001a607 	andeq	sl, r1, r7, lsl #12
     498:	2c390100 	ldfcss	f0, [r9], #-0
     49c:	ea000000 	b	4a4 <_start-0x7b5c>
     4a0:	00000001 	andeq	r0, r0, r1
     4a4:	00819009 	addeq	r9, r1, r9
     4a8:	00000400 	andeq	r0, r0, r0, lsl #8
     4ac:	00030900 	andeq	r0, r3, r0, lsl #18
     4b0:	01a60700 			; <UNDEFINED> instruction: 0x01a60700
     4b4:	3d010000 	stccc	0, cr0, [r1, #-0]
     4b8:	0000002c 	andeq	r0, r0, ip, lsr #32
     4bc:	000001fd 	strdeq	r0, [r0], -sp
     4c0:	81940900 	orrshi	r0, r4, r0, lsl #18
     4c4:	00040000 	andeq	r0, r4, r0
     4c8:	03260000 	teqeq	r6, #0
     4cc:	a6070000 	strge	r0, [r7], -r0
     4d0:	01000001 	tsteq	r0, r1
     4d4:	00002c3e 	andeq	r2, r0, lr, lsr ip
     4d8:	00021000 	andeq	r1, r2, r0
     4dc:	b0090000 	andlt	r0, r9, r0
     4e0:	04000081 	streq	r0, [r0], #-129	; 0x81
     4e4:	41000000 	mrsmi	r0, (UNDEF: 0)
     4e8:	08000003 	stmdaeq	r0, {r0, r1}
     4ec:	000001a6 	andeq	r0, r0, r6, lsr #3
     4f0:	002c4201 	eoreq	r4, ip, r1, lsl #4
     4f4:	52010000 	andpl	r0, r1, #0
     4f8:	81b40900 			; <UNDEFINED> instruction: 0x81b40900
     4fc:	00040000 	andeq	r0, r4, r0
     500:	035e0000 	cmpeq	lr, #0
     504:	a6070000 	strge	r0, [r7], -r0
     508:	01000001 	tsteq	r0, r1
     50c:	00002c43 	andeq	r2, r0, r3, asr #24
     510:	00022300 	andeq	r2, r2, r0, lsl #6
     514:	300a0000 	andcc	r0, sl, r0
     518:	7e000081 	cdpvc	0, 0, cr0, cr0, cr1, {4}
     51c:	71000005 	tstvc	r0, r5
     520:	0b000003 	bleq	534 <_start-0x7acc>
     524:	31015101 	tstcc	r1, r1, lsl #2
     528:	816c0a00 	cmnhi	ip, r0, lsl #20
     52c:	057e0000 	ldrbeq	r0, [lr, #-0]!
     530:	038d0000 	orreq	r0, sp, #0
     534:	010b0000 	mrseq	r0, (UNDEF: 11)
     538:	75310451 	ldrvc	r0, [r1, #-1105]!	; 0x451
     53c:	010b2400 	tsteq	fp, r0, lsl #8
     540:	00740250 	rsbseq	r0, r4, r0, asr r2
     544:	81900a00 	orrshi	r0, r0, r0, lsl #20
     548:	057e0000 	ldrbeq	r0, [lr, #-0]!
     54c:	03a00000 	moveq	r0, #0
     550:	010b0000 	mrseq	r0, (UNDEF: 11)
     554:	00300151 	eorseq	r0, r0, r1, asr r1
     558:	0081b00c 	addeq	fp, r1, ip
     55c:	00057e00 	andeq	r7, r5, r0, lsl #28
     560:	51010b00 	tstpl	r1, r0, lsl #22
     564:	010b3001 	tsteq	fp, r1
     568:	00740250 	rsbseq	r0, r4, r0, asr r2
     56c:	b1040000 	mrslt	r0, (UNDEF: 4)
     570:	01000001 	tsteq	r0, r1
     574:	0081cc47 	addeq	ip, r1, r7, asr #24
     578:	0000ac00 	andeq	sl, r0, r0, lsl #24
     57c:	4b9c0100 	blmi	fe700984 <__bss_end__+0xfe6f71fc>
     580:	05000005 	streq	r0, [r0, #-5]
     584:	006e6970 	rsbeq	r6, lr, r0, ror r9
     588:	002c4701 	eoreq	r4, ip, r1, lsl #14
     58c:	02360000 	eorseq	r0, r6, #0
     590:	76060000 	strvc	r0, [r6], -r0
     594:	01006c61 	tsteq	r0, r1, ror #24
     598:	00002c48 	andeq	r2, r0, r8, asr #24
     59c:	a7070000 	strge	r0, [r7, -r0]
     5a0:	01000003 	tsteq	r0, r3
     5a4:	00002c4b 	andeq	r2, r0, fp, asr #24
     5a8:	00027b00 	andeq	r7, r2, r0, lsl #22
     5ac:	01be0700 			; <UNDEFINED> instruction: 0x01be0700
     5b0:	4e010000 	cdpmi	0, 0, cr0, cr1, cr0, {0}
     5b4:	00000212 	andeq	r0, r0, r2, lsl r2
     5b8:	000002af 	andeq	r0, r0, pc, lsr #5
     5bc:	0001760f 	andeq	r7, r1, pc, lsl #12
     5c0:	2c550100 	ldfcse	f0, [r5], {-0}
     5c4:	00000000 	andeq	r0, r0, r0
     5c8:	0081e409 	addeq	lr, r1, r9, lsl #8
     5cc:	00000400 	andeq	r0, r0, r0, lsl #8
     5d0:	00042d00 	andeq	r2, r4, r0, lsl #26
     5d4:	01a60700 			; <UNDEFINED> instruction: 0x01a60700
     5d8:	4b010000 	blmi	405e0 <__bss_end__+0x36e58>
     5dc:	0000002c 	andeq	r0, r0, ip, lsr #32
     5e0:	000002e5 	andeq	r0, r0, r5, ror #5
     5e4:	81e80900 	mvnhi	r0, r0, lsl #18
     5e8:	00040000 	andeq	r0, r4, r0
     5ec:	044a0000 	strbeq	r0, [sl], #-0
     5f0:	a6070000 	strge	r0, [r7], -r0
     5f4:	01000001 	tsteq	r0, r1
     5f8:	00002c4c 	andeq	r2, r0, ip, asr #24
     5fc:	0002f800 	andeq	pc, r2, r0, lsl #16
     600:	18090000 	stmdane	r9, {}	; <UNPREDICTABLE>
     604:	04000082 	streq	r0, [r0], #-130	; 0x82
     608:	67000000 	strvs	r0, [r0, -r0]
     60c:	07000004 	streq	r0, [r0, -r4]
     610:	000001a6 	andeq	r0, r0, r6, lsr #3
     614:	002c5801 	eoreq	r5, ip, r1, lsl #16
     618:	030b0000 	movweq	r0, #45056	; 0xb000
     61c:	09000000 	stmdbeq	r0, {}	; <UNPREDICTABLE>
     620:	0000821c 	andeq	r8, r0, ip, lsl r2
     624:	00000004 	andeq	r0, r0, r4
     628:	00000484 	andeq	r0, r0, r4, lsl #9
     62c:	0001a607 	andeq	sl, r1, r7, lsl #12
     630:	2c590100 	ldfcse	f0, [r9], {-0}
     634:	1e000000 	cdpne	0, 0, cr0, cr0, cr0, {0}
     638:	00000003 	andeq	r0, r0, r3
     63c:	00823c09 	addeq	r3, r2, r9, lsl #24
     640:	00000400 	andeq	r0, r0, r0, lsl #8
     644:	0004a100 	andeq	sl, r4, r0, lsl #2
     648:	01a60700 			; <UNDEFINED> instruction: 0x01a60700
     64c:	5d010000 	stcpl	0, cr0, [r1, #-0]
     650:	0000002c 	andeq	r0, r0, ip, lsr #32
     654:	00000331 	andeq	r0, r0, r1, lsr r3
     658:	82400900 	subhi	r0, r0, #0, 18
     65c:	00040000 	andeq	r0, r4, r0
     660:	04be0000 	ldrteq	r0, [lr], #0
     664:	a6070000 	strge	r0, [r7], -r0
     668:	01000001 	tsteq	r0, r1
     66c:	00002c5e 	andeq	r2, r0, lr, asr ip
     670:	00034400 	andeq	r4, r3, r0, lsl #8
     674:	5c090000 	stcpl	0, cr0, [r9], {-0}
     678:	04000082 	streq	r0, [r0], #-130	; 0x82
     67c:	d9000000 	stmdble	r0, {}	; <UNPREDICTABLE>
     680:	08000004 	stmdaeq	r0, {r2}
     684:	000001a6 	andeq	r0, r0, r6, lsr #3
     688:	002c6201 	eoreq	r6, ip, r1, lsl #4
     68c:	52010000 	andpl	r0, r1, #0
     690:	82600900 	rsbhi	r0, r0, #0, 18
     694:	00040000 	andeq	r0, r4, r0
     698:	04f60000 	ldrbteq	r0, [r6], #0
     69c:	a6070000 	strge	r0, [r7], -r0
     6a0:	01000001 	tsteq	r0, r1
     6a4:	00002c63 	andeq	r2, r0, r3, ror #24
     6a8:	00035700 	andeq	r5, r3, r0, lsl #14
     6ac:	e40a0000 	str	r0, [sl], #-0
     6b0:	7e000081 	cdpvc	0, 0, cr0, cr0, cr1, {4}
     6b4:	09000005 	stmdbeq	r0, {r0, r2}
     6b8:	0b000005 	bleq	6d4 <_start-0x792c>
     6bc:	30015101 	andcc	r5, r1, r1, lsl #2
     6c0:	82180a00 	andshi	r0, r8, #0, 20
     6c4:	057e0000 	ldrbeq	r0, [lr, #-0]!
     6c8:	05220000 	streq	r0, [r2, #-0]!
     6cc:	010b0000 	mrseq	r0, (UNDEF: 11)
     6d0:	0b300151 	bleq	c00c1c <__bss_end__+0xbf7494>
     6d4:	74025001 	strvc	r5, [r2], #-1
     6d8:	3c0a0000 	stccc	0, cr0, [sl], {-0}
     6dc:	7e000082 	cdpvc	0, 0, cr0, cr0, cr2, {4}
     6e0:	35000005 	strcc	r0, [r0, #-5]
     6e4:	0b000005 	bleq	700 <_start-0x7900>
     6e8:	30015101 	andcc	r5, r1, r1, lsl #2
     6ec:	825c0c00 	subshi	r0, ip, #0, 24
     6f0:	057e0000 	ldrbeq	r0, [lr, #-0]!
     6f4:	010b0000 	mrseq	r0, (UNDEF: 11)
     6f8:	0b300151 	bleq	c00c44 <__bss_end__+0xbf74bc>
     6fc:	74025001 	strvc	r5, [r2], #-1
     700:	10000000 	andne	r0, r0, r0
     704:	000001ab 	andeq	r0, r0, fp, lsr #3
     708:	02120501 	andseq	r0, r2, #4194304	; 0x400000
     70c:	03050000 	movweq	r0, #20480	; 0x5000
     710:	000090e8 	andeq	r9, r0, r8, ror #1
     714:	00018c10 	andeq	r8, r1, r0, lsl ip
     718:	12060100 	andne	r0, r6, #0, 2
     71c:	05000002 	streq	r0, [r0, #-2]
     720:	0090ec03 	addseq	lr, r0, r3, lsl #24
     724:	01961000 	orrseq	r1, r6, r0
     728:	07010000 	streq	r0, [r1, -r0]
     72c:	00000212 	andeq	r0, r0, r2, lsl r2
     730:	90f00305 	rscsls	r0, r0, r5, lsl #6
     734:	a0110000 	andsge	r0, r1, r0
     738:	02000001 	andeq	r0, r0, #1
     73c:	0005949d 	muleq	r5, sp, r4
     740:	05941200 	ldreq	r1, [r4, #512]	; 0x200
     744:	2c120000 	ldccs	0, cr0, [r2], {-0}
     748:	00000000 	andeq	r0, r0, r0
     74c:	059a040d 	ldreq	r0, [sl, #1037]	; 0x40d
     750:	00130000 	andseq	r0, r3, r0
     754:	00000191 	muleq	r0, r1, r1
     758:	01e40004 	mvneq	r0, r4
     75c:	01040000 	mrseq	r0, (UNDEF: 4)
     760:	000001e7 	andeq	r0, r0, r7, ror #3
     764:	0001d901 	andeq	sp, r1, r1, lsl #18
     768:	00025200 	andeq	r5, r2, r0, lsl #4
     76c:	00827800 	addeq	r7, r2, r0, lsl #16
     770:	00005800 	andeq	r5, r0, r0, lsl #16
     774:	0001ca00 	andeq	ip, r1, r0, lsl #20
     778:	01ca0200 	biceq	r0, sl, r0, lsl #4
     77c:	28020000 	stmdacs	r2, {}	; <UNPREDICTABLE>
     780:	00000030 	andeq	r0, r0, r0, lsr r0
     784:	00024803 	andeq	r4, r2, r3, lsl #16
     788:	00030400 	andeq	r0, r3, r0, lsl #8
     78c:	00000047 	andeq	r0, r0, r7, asr #32
     790:	00029b04 	andeq	r9, r2, r4, lsl #22
     794:	00004700 	andeq	r4, r0, r0, lsl #14
     798:	05000000 	streq	r0, [r0, #-0]
     79c:	024a0204 	subeq	r0, sl, #4, 4	; 0x40000000
     7a0:	62020000 	andvs	r0, r2, #0
     7a4:	00000025 	andeq	r0, r0, r5, lsr #32
     7a8:	69050406 	stmdbvs	r5, {r1, r2, sl}
     7ac:	0700746e 	streq	r7, [r0, -lr, ror #8]
     7b0:	003c0704 	eorseq	r0, ip, r4, lsl #14
     7b4:	01070000 	mrseq	r0, (UNDEF: 7)
     7b8:	00004b06 	andeq	r4, r0, r6, lsl #22
     7bc:	05020700 	streq	r0, [r2, #-1792]	; 0x700
     7c0:	000000f8 	strdeq	r0, [r0], -r8
     7c4:	05050407 	streq	r0, [r5, #-1031]	; 0x407
     7c8:	07000000 	streq	r0, [r0, -r0]
     7cc:	00000508 	andeq	r0, r0, r8, lsl #10
     7d0:	01070000 	mrseq	r0, (UNDEF: 7)
     7d4:	00004908 	andeq	r4, r0, r8, lsl #18
     7d8:	07020700 	streq	r0, [r2, -r0, lsl #14]
     7dc:	000000e5 	andeq	r0, r0, r5, ror #1
     7e0:	37070407 	strcc	r0, [r7, -r7, lsl #8]
     7e4:	07000000 	streq	r0, [r0, -r0]
     7e8:	00320708 	eorseq	r0, r2, r8, lsl #14
     7ec:	04070000 	streq	r0, [r7], #-0
     7f0:	00016d07 	andeq	r6, r1, r7, lsl #26
     7f4:	a7040800 	strge	r0, [r4, -r0, lsl #16]
     7f8:	07000000 	streq	r0, [r0, -r0]
     7fc:	00520801 	subseq	r0, r2, r1, lsl #16
     800:	04080000 	streq	r0, [r8], #-0
     804:	000000b4 	strheq	r0, [r0], -r4
     808:	0000a709 	andeq	sl, r0, r9, lsl #14
     80c:	02410a00 	subeq	r0, r1, #0, 20
     810:	06010000 	streq	r0, [r1], -r0
     814:	00000054 	andeq	r0, r0, r4, asr r0
     818:	00008278 	andeq	r8, r0, r8, ror r2
     81c:	00000058 	andeq	r0, r0, r8, asr r0
     820:	01439c01 	cmpeq	r3, r1, lsl #24
     824:	660b0000 	strvs	r0, [fp], -r0
     828:	0100746d 	tsteq	r0, sp, ror #8
     82c:	0000ae06 	andeq	sl, r0, r6, lsl #28
     830:	70910200 	addsvc	r0, r1, r0, lsl #4
     834:	75620d0c 	strbvc	r0, [r2, #-3340]!	; 0xd0c
     838:	08010066 	stmdaeq	r1, {r1, r2, r5, r6}
     83c:	00000143 	andeq	r0, r0, r3, asr #2
     840:	93880305 	orrls	r0, r8, #335544320	; 0x14000000
     844:	960e0000 	strls	r0, [lr], -r0
     848:	01000002 	tsteq	r0, r2
     84c:	00004909 	andeq	r4, r0, r9, lsl #18
     850:	5c910200 	lfmpl	f0, 4, [r1], {0}
     854:	007a730f 	rsbseq	r7, sl, pc, lsl #6
     858:	00540c01 	subseq	r0, r4, r1, lsl #24
     85c:	036a0000 	cmneq	sl, #0
     860:	a0100000 	andsge	r0, r0, r0
     864:	74000082 	strvc	r0, [r0], #-130	; 0x82
     868:	36000001 	strcc	r0, [r0], -r1
     86c:	11000001 	tstne	r0, r1
     870:	91025301 	tstls	r2, r1, lsl #6
     874:	5201114c 	andpl	r1, r1, #76, 2
     878:	06489103 	strbeq	r9, [r8], -r3, lsl #2
     87c:	03510111 	cmpeq	r1, #1073741828	; 0x40000004
     880:	1104000a 	tstne	r4, sl
     884:	74025001 	strvc	r5, [r2], #-1
     888:	b4120000 	ldrlt	r0, [r2], #-0
     88c:	11000082 	smlabbne	r0, r2, r0, r0
     890:	74025001 	strvc	r5, [r2], #-1
     894:	13000000 	movwne	r0, #0
     898:	000000a7 	andeq	r0, r0, r7, lsr #1
     89c:	00000154 	andeq	r0, r0, r4, asr r1
     8a0:	00009a14 	andeq	r9, r0, r4, lsl sl
     8a4:	0003ff00 	andeq	pc, r3, r0, lsl #30
     8a8:	00005415 	andeq	r5, r0, r5, lsl r4
     8ac:	00016300 	andeq	r6, r1, r0, lsl #6
     8b0:	00ae1600 	adceq	r1, lr, r0, lsl #12
     8b4:	17000000 	strne	r0, [r0, -r0]
     8b8:	000002b5 			; <UNDEFINED> instruction: 0x000002b5
     8bc:	016e2204 	cmneq	lr, r4, lsl #4
     8c0:	04080000 	streq	r0, [r8], #-0
     8c4:	00000154 	andeq	r0, r0, r4, asr r1
     8c8:	00023e18 	andeq	r3, r2, r8, lsl lr
     8cc:	54020500 	strpl	r0, [r2], #-1280	; 0x500
     8d0:	16000000 	strne	r0, [r0], -r0
     8d4:	000000a1 	andeq	r0, r0, r1, lsr #1
     8d8:	00005416 	andeq	r5, r0, r6, lsl r4
     8dc:	00ae1600 	adceq	r1, lr, r0, lsl #12
     8e0:	49160000 	ldmdbmi	r6, {}	; <UNPREDICTABLE>
     8e4:	00000000 	andeq	r0, r0, r0
     8e8:	0000ee00 	andeq	lr, r0, r0, lsl #28
     8ec:	15000400 	strne	r0, [r0, #-1024]	; 0x400
     8f0:	04000003 	streq	r0, [r0], #-3
     8f4:	0001e701 	andeq	lr, r1, r1, lsl #14
     8f8:	02a00100 	adceq	r0, r0, #0, 2
     8fc:	02520000 	subseq	r0, r2, #0
     900:	82d00000 	sbcshi	r0, r0, #0
     904:	00340000 	eorseq	r0, r4, r0
     908:	02d00000 	sbcseq	r0, r0, #0
     90c:	04020000 	streq	r0, [r2], #-0
     910:	746e6905 	strbtvc	r6, [lr], #-2309	; 0x905
     914:	07040300 	streq	r0, [r4, -r0, lsl #6]
     918:	0000003c 	andeq	r0, r0, ip, lsr r0
     91c:	4b060103 	blmi	180d30 <__bss_end__+0x1775a8>
     920:	03000000 	movweq	r0, #0
     924:	00f80502 	rscseq	r0, r8, r2, lsl #10
     928:	04030000 	streq	r0, [r3], #-0
     92c:	00000505 	andeq	r0, r0, r5, lsl #10
     930:	05080300 	streq	r0, [r8, #-768]	; 0x300
     934:	00000000 	andeq	r0, r0, r0
     938:	49080103 	stmdbmi	r8, {r0, r1, r8}
     93c:	03000000 	movweq	r0, #0
     940:	00e50702 	rsceq	r0, r5, r2, lsl #14
     944:	04030000 	streq	r0, [r3], #-0
     948:	00003707 	andeq	r3, r0, r7, lsl #14
     94c:	07080300 	streq	r0, [r8, -r0, lsl #6]
     950:	00000032 	andeq	r0, r0, r2, lsr r0
     954:	6d070403 	cfstrsvs	mvf0, [r7, #-12]
     958:	03000001 	movweq	r0, #1
     95c:	00520801 	subseq	r0, r2, r1, lsl #16
     960:	04040000 	streq	r0, [r4], #-0
     964:	0000007f 	andeq	r0, r0, pc, ror r0
     968:	00007205 	andeq	r7, r0, r5, lsl #4
     96c:	02ac0600 	adceq	r0, ip, #0, 12
     970:	04010000 	streq	r0, [r1], #-0
     974:	00000025 	andeq	r0, r0, r5, lsr #32
     978:	000082d0 	ldrdeq	r8, [r0], -r0
     97c:	00000034 	andeq	r0, r0, r4, lsr r0
     980:	00ab9c01 	adceq	r9, fp, r1, lsl #24
     984:	70070000 	andvc	r0, r7, r0
     988:	79040100 	stmdbvc	r4, {r8}
     98c:	93000000 	movwls	r0, #0
     990:	00000003 	andeq	r0, r0, r3
     994:	00002508 	andeq	r2, r0, r8, lsl #10
     998:	0000ba00 	andeq	fp, r0, r0, lsl #20
     99c:	00250900 	eoreq	r0, r5, r0, lsl #18
     9a0:	0a000000 	beq	9a8 <_start-0x7658>
     9a4:	000002ba 			; <UNDEFINED> instruction: 0x000002ba
     9a8:	00c51d02 	sbceq	r1, r5, r2, lsl #26
     9ac:	04040000 	streq	r0, [r4], #-0
     9b0:	000000ab 	andeq	r0, r0, fp, lsr #1
     9b4:	00002508 	andeq	r2, r0, r8, lsl #10
     9b8:	0000da00 	andeq	sp, r0, r0, lsl #20
     9bc:	00790900 	rsbseq	r0, r9, r0, lsl #18
     9c0:	0b000000 	bleq	9c8 <_start-0x7638>
     9c4:	000002b5 			; <UNDEFINED> instruction: 0x000002b5
     9c8:	00eb0c01 	rsceq	r0, fp, r1, lsl #24
     9cc:	03050000 	movweq	r0, #20480	; 0x5000
     9d0:	000090f4 	strdeq	r9, [r0], -r4
     9d4:	00cb0404 	sbceq	r0, fp, r4, lsl #8
     9d8:	81000000 	mrshi	r0, (UNDEF: 0)
     9dc:	04000006 	streq	r0, [r0], #-6
     9e0:	0003ae00 	andeq	sl, r3, r0, lsl #28
     9e4:	e7010400 	str	r0, [r1, -r0, lsl #8]
     9e8:	01000001 	tsteq	r0, r1
     9ec:	000002ff 	strdeq	r0, [r0], -pc	; <UNPREDICTABLE>
     9f0:	00000252 	andeq	r0, r0, r2, asr r2
     9f4:	00008304 	andeq	r8, r0, r4, lsl #6
     9f8:	000004f8 	strdeq	r0, [r0], -r8
     9fc:	0000036a 	andeq	r0, r0, sl, ror #6
     a00:	69050402 	stmdbvs	r5, {r1, sl}
     a04:	0300746e 	movweq	r7, #1134	; 0x46e
     a08:	003c0704 	eorseq	r0, ip, r4, lsl #14
     a0c:	01030000 	mrseq	r0, (UNDEF: 3)
     a10:	00004b06 	andeq	r4, r0, r6, lsl #22
     a14:	05020300 	streq	r0, [r2, #-768]	; 0x300
     a18:	000000f8 	strdeq	r0, [r0], -r8
     a1c:	05050403 	streq	r0, [r5, #-1027]	; 0x403
     a20:	03000000 	movweq	r0, #0
     a24:	00000508 	andeq	r0, r0, r8, lsl #10
     a28:	01030000 	mrseq	r0, (UNDEF: 3)
     a2c:	00004908 	andeq	r4, r0, r8, lsl #18
     a30:	07020300 	streq	r0, [r2, -r0, lsl #6]
     a34:	000000e5 	andeq	r0, r0, r5, ror #1
     a38:	37070403 	strcc	r0, [r7, -r3, lsl #8]
     a3c:	03000000 	movweq	r0, #0
     a40:	00320708 	eorseq	r0, r2, r8, lsl #14
     a44:	04030000 	streq	r0, [r3], #-0
     a48:	00016d07 	andeq	r6, r1, r7, lsl #26
     a4c:	05040400 	streq	r0, [r4, #-1024]	; 0x400
     a50:	00007a04 	andeq	r7, r0, r4, lsl #20
     a54:	08010300 	stmdaeq	r1, {r8, r9}
     a58:	00000052 	andeq	r0, r0, r2, asr r0
     a5c:	00870405 	addeq	r0, r7, r5, lsl #8
     a60:	7a060000 	bvc	180a68 <__bss_end__+0x1772e0>
     a64:	07000000 	streq	r0, [r0, -r0]
     a68:	000001ca 	andeq	r0, r0, sl, asr #3
     a6c:	00972802 	addseq	r2, r7, r2, lsl #16
     a70:	48080000 	stmdami	r8, {}	; <UNPREDICTABLE>
     a74:	04000002 	streq	r0, [r0], #-2
     a78:	00ae0004 	adceq	r0, lr, r4
     a7c:	9b090000 	blls	240a84 <__bss_end__+0x2372fc>
     a80:	72000002 	andvc	r0, r0, #2
     a84:	00000000 	andeq	r0, r0, r0
     a88:	024a0700 	subeq	r0, sl, #0, 14
     a8c:	62020000 	andvs	r0, r2, #0
     a90:	0000008c 	andeq	r0, r0, ip, lsl #1
     a94:	0002d40a 	andeq	sp, r2, sl, lsl #8
     a98:	25270100 	strcs	r0, [r7, #-256]!	; 0x100
     a9c:	04000000 	streq	r0, [r0], #-0
     aa0:	14000083 	strne	r0, [r0], #-131	; 0x83
     aa4:	01000000 	mrseq	r0, (UNDEF: 0)
     aa8:	0000e09c 	muleq	r0, ip, r0
     aac:	00630b00 	rsbeq	r0, r3, r0, lsl #22
     ab0:	00252701 	eoreq	r2, r5, r1, lsl #14
     ab4:	03b10000 			; <UNDEFINED> instruction: 0x03b10000
     ab8:	0c000000 	stceq	0, cr0, [r0], {-0}
     abc:	00646170 	rsbeq	r6, r4, r0, ror r1
     ac0:	00742e01 	rsbseq	r2, r4, r1, lsl #28
     ac4:	83180000 	tsthi	r8, #0
     ac8:	002c0000 	eoreq	r0, ip, r0
     acc:	9c010000 	stcls	0, cr0, [r1], {-0}
     ad0:	00000130 	andeq	r0, r0, r0, lsr r1
     ad4:	0100700b 	tsteq	r0, fp
     ad8:	0000742e 	andeq	r7, r0, lr, lsr #8
     adc:	0003df00 	andeq	sp, r3, r0, lsl #30
     ae0:	02f10d00 	rscseq	r0, r1, #0, 26
     ae4:	2e010000 	cdpcs	0, 0, cr0, cr1, cr0, {0}
     ae8:	00000074 	andeq	r0, r0, r4, ror r0
     aec:	0000040a 	andeq	r0, r0, sl, lsl #8
     af0:	00031f0e 	andeq	r1, r3, lr, lsl #30
     af4:	252e0100 	strcs	r0, [lr, #-256]!	; 0x100
     af8:	01000000 	mrseq	r0, (UNDEF: 0)
     afc:	656c0f52 	strbvs	r0, [ip, #-3922]!	; 0xf52
     b00:	2f01006e 	svccs	0x0001006e
     b04:	00000025 	andeq	r0, r0, r5, lsr #32
     b08:	0a005101 	beq	14f14 <__bss_end__+0xb78c>
     b0c:	000002cc 	andeq	r0, r0, ip, asr #5
     b10:	00743701 	rsbseq	r3, r4, r1, lsl #14
     b14:	83440000 	movthi	r0, #16384	; 0x4000
     b18:	00400000 	subeq	r0, r0, r0
     b1c:	9c010000 	stcls	0, cr0, [r1], {-0}
     b20:	0000019c 	muleq	r0, ip, r1
     b24:	7473640b 	ldrbtvc	r6, [r3], #-1035	; 0x40b
     b28:	74370100 	ldrtvc	r0, [r7], #-256	; 0x100
     b2c:	2b000000 	blcs	b34 <_start-0x74cc>
     b30:	0b000004 	bleq	b48 <_start-0x74b8>
     b34:	3701006e 	strcc	r0, [r1, -lr, rrx]
     b38:	00000025 	andeq	r0, r0, r5, lsr #32
     b3c:	00000463 	andeq	r0, r0, r3, ror #8
     b40:	0100700b 	tsteq	r0, fp
     b44:	00007437 	andeq	r7, r0, r7, lsr r4
     b48:	00048400 	andeq	r8, r4, r0, lsl #8
     b4c:	03a70d00 			; <UNDEFINED> instruction: 0x03a70d00
     b50:	37010000 	strcc	r0, [r1, -r0]
     b54:	00000074 	andeq	r0, r0, r4, ror r0
     b58:	000004ba 			; <UNDEFINED> instruction: 0x000004ba
     b5c:	6e656c10 	mcrvs	12, 3, r6, cr5, cr0, {0}
     b60:	25390100 	ldrcs	r0, [r9, #-256]!	; 0x100
     b64:	d8000000 	stmdale	r0, {}	; <UNPREDICTABLE>
     b68:	0f000004 	svceq	0x00000004
     b6c:	3d010073 	stccc	0, cr0, [r1, #-460]	; 0xfffffe34
     b70:	00000074 	andeq	r0, r0, r4, ror r0
     b74:	0a005001 	beq	14b80 <__bss_end__+0xb3f8>
     b78:	0000033c 	andeq	r0, r0, ip, lsr r3
     b7c:	00744701 	rsbseq	r4, r4, r1, lsl #14
     b80:	83840000 	orrhi	r0, r4, #0
     b84:	019c0000 	orrseq	r0, ip, r0
     b88:	9c010000 	stcls	0, cr0, [r1], {-0}
     b8c:	000002d3 	ldrdeq	r0, [r0], -r3
     b90:	0002f10d 	andeq	pc, r2, sp, lsl #2
     b94:	2c470100 	stfcse	f0, [r7], {-0}
     b98:	ff000000 			; <UNDEFINED> instruction: 0xff000000
     b9c:	0b000004 	bleq	bb4 <_start-0x744c>
     ba0:	00747364 	rsbseq	r7, r4, r4, ror #6
     ba4:	00744701 	rsbseq	r4, r4, r1, lsl #14
     ba8:	052d0000 	streq	r0, [sp, #-0]!
     bac:	6e0b0000 	cdpvs	0, 0, cr0, cr11, cr0, {0}
     bb0:	25470100 	strbcs	r0, [r7, #-256]	; 0x100
     bb4:	9b000000 	blls	bbc <_start-0x7444>
     bb8:	0b000005 	bleq	bd4 <_start-0x742c>
     bbc:	006c6176 	rsbeq	r6, ip, r6, ror r1
     bc0:	00254701 	eoreq	r4, r5, r1, lsl #14
     bc4:	05c70000 	strbeq	r0, [r7]
     bc8:	1f0d0000 	svcne	0x000d0000
     bcc:	01000003 	tsteq	r0, r3
     bd0:	00002547 	andeq	r2, r0, r7, asr #10
     bd4:	00064600 	andeq	r4, r6, r0, lsl #12
     bd8:	02f60e00 	rscseq	r0, r6, #0, 28
     bdc:	47010000 	strmi	r0, [r1, -r0]
     be0:	00000025 	andeq	r0, r0, r5, lsr #32
     be4:	0f049102 	svceq	0x00049102
     be8:	00667562 	rsbeq	r7, r6, r2, ror #10
     bec:	02d34c01 	sbcseq	r4, r3, #256	; 0x100
     bf0:	91030000 	mrsls	r0, (UNDEF: 3)
     bf4:	70107fa8 	andsvc	r7, r0, r8, lsr #31
     bf8:	744c0100 	strbvc	r0, [ip], #-256	; 0x100
     bfc:	70000000 	andvc	r0, r0, r0
     c00:	10000006 	andne	r0, r0, r6
     c04:	4d010075 	stcmi	0, cr0, [r1, #-468]	; 0xfffffe2c
     c08:	0000002c 	andeq	r0, r0, ip, lsr #32
     c0c:	00000715 	andeq	r0, r0, r5, lsl r7
     c10:	0002dc11 	andeq	sp, r2, r1, lsl ip
     c14:	0002f300 	andeq	pc, r2, r0, lsl #6
     c18:	78030500 	stmdavc	r3, {r8, sl}
     c1c:	12000092 	andne	r0, r0, #146	; 0x92
     c20:	000083f0 	strdeq	r8, [r0], -r0
     c24:	00000074 	andeq	r0, r0, r4, ror r0
     c28:	00000261 	andeq	r0, r0, r1, ror #4
     c2c:	0002c613 	andeq	ip, r2, r3, lsl r6
     c30:	2c520100 	ldfcse	f0, [r2], {-0}
     c34:	1a000000 	bne	c3c <_start-0x73c4>
     c38:	00000008 	andeq	r0, r0, r8
     c3c:	0084c414 	addeq	ip, r4, r4, lsl r4
     c40:	00066000 	andeq	r6, r6, r0
     c44:	84d81500 	ldrbhi	r1, [r8], #1280	; 0x500
     c48:	06670000 	strbteq	r0, [r7], -r0
     c4c:	02990000 	addseq	r0, r9, #0
     c50:	01160000 	tsteq	r6, r0
     c54:	75080253 	strvc	r0, [r8, #-595]	; 0x253
     c58:	05520116 	ldrbeq	r0, [r2, #-278]	; 0x116
     c5c:	00927803 	addseq	r7, r2, r3, lsl #16
     c60:	51011600 	tstpl	r1, r0, lsl #12
     c64:	92b00305 	adcsls	r0, r0, #335544320	; 0x14000000
     c68:	01160000 	tsteq	r6, r0
     c6c:	9c030550 	cfstr32ls	mvfx0, [r3], {80}	; 0x50
     c70:	00000092 	muleq	r0, r2, r0
     c74:	0084dc14 	addeq	sp, r4, r4, lsl ip
     c78:	00067d00 	andeq	r7, r6, r0, lsl #26
     c7c:	84e81500 	strbthi	r1, [r8], #1280	; 0x500
     c80:	00e00000 	rsceq	r0, r0, r0
     c84:	02b60000 	adcseq	r0, r6, #0
     c88:	01160000 	tsteq	r6, r0
     c8c:	007d0251 	rsbseq	r0, sp, r1, asr r2
     c90:	84fc1700 	ldrbthi	r1, [ip], #1792	; 0x700
     c94:	01300000 	teqeq	r0, r0
     c98:	01160000 	tsteq	r6, r0
     c9c:	007d0253 	rsbseq	r0, sp, r3, asr r2
     ca0:	02510116 	subseq	r0, r1, #-2147483643	; 0x80000005
     ca4:	01160074 	tsteq	r6, r4, ror r0
     ca8:	00750250 	rsbseq	r0, r5, r0, asr r2
     cac:	7a180000 	bvc	600cb4 <__bss_end__+0x5f752c>
     cb0:	e3000000 	movw	r0, #0
     cb4:	19000002 	stmdbne	r0, {r1}
     cb8:	0000006b 	andeq	r0, r0, fp, rrx
     cbc:	7a18003f 	bvc	600dc0 <__bss_end__+0x5f7638>
     cc0:	f3000000 	vhadd.u8	d0, d0, d0
     cc4:	19000002 	stmdbne	r0, {r1}
     cc8:	0000006b 	andeq	r0, r0, fp, rrx
     ccc:	e3060004 	movw	r0, #24580	; 0x6004
     cd0:	1a000002 	bne	ce0 <_start-0x7320>
     cd4:	00000310 	andeq	r0, r0, r0, lsl r3
     cd8:	85201f01 	strhi	r1, [r0, #-3841]!	; 0xf01
     cdc:	00540000 	subseq	r0, r4, r0
     ce0:	9c010000 	stcls	0, cr0, [r1], {-0}
     ce4:	0000037c 	andeq	r0, r0, ip, ror r3
     ce8:	0003250d 	andeq	r2, r3, sp, lsl #10
     cec:	8b1f0100 	blhi	7c10f4 <__bss_end__+0x7b796c>
     cf0:	46000003 	strmi	r0, [r0], -r3
     cf4:	0d000008 	stceq	0, cr0, [r0, #-32]	; 0xffffffe0
     cf8:	000002e9 	andeq	r0, r0, r9, ror #5
     cfc:	03a01f01 	moveq	r1, #1, 30
     d00:	08720000 	ldmdaeq	r2!, {}^	; <UNPREDICTABLE>
     d04:	dc110000 	ldcle	0, cr0, [r1], {-0}
     d08:	b6000002 	strlt	r0, [r0], -r2
     d0c:	05000003 	streq	r0, [r0, #-3]
     d10:	00928003 	addseq	r8, r2, r3
     d14:	85301400 	ldrhi	r1, [r0, #-1024]!	; 0x400
     d18:	06600000 	strbteq	r0, [r0], -r0
     d1c:	44150000 	ldrmi	r0, [r5], #-0
     d20:	67000085 	strvs	r0, [r0, -r5, lsl #1]
     d24:	72000006 	andvc	r0, r0, #6
     d28:	16000003 	strne	r0, [r0], -r3
     d2c:	08025301 	stmdaeq	r2, {r0, r8, r9, ip, lr}
     d30:	52011620 	andpl	r1, r1, #32, 12	; 0x2000000
     d34:	92800305 	addls	r0, r0, #335544320	; 0x14000000
     d38:	01160000 	tsteq	r6, r0
     d3c:	b0030551 	andlt	r0, r3, r1, asr r5
     d40:	16000092 			; <UNDEFINED> instruction: 0x16000092
     d44:	03055001 	movweq	r5, #20481	; 0x5001
     d48:	000092e8 	andeq	r9, r0, r8, ror #5
     d4c:	85481400 	strbhi	r1, [r8, #-1024]	; 0x400
     d50:	067d0000 	ldrbteq	r0, [sp], -r0
     d54:	1b000000 	blne	d5c <_start-0x72a4>
     d58:	00000025 	andeq	r0, r0, r5, lsr #32
     d5c:	0000038b 	andeq	r0, r0, fp, lsl #7
     d60:	0000251c 	andeq	r2, r0, ip, lsl r5
     d64:	04050000 	streq	r0, [r5], #-0
     d68:	0000037c 	andeq	r0, r0, ip, ror r3
     d6c:	0000251b 	andeq	r2, r0, fp, lsl r5
     d70:	0003a000 	andeq	sl, r3, r0
     d74:	00811c00 	addeq	r1, r1, r0, lsl #24
     d78:	05000000 	streq	r0, [r0, #-0]
     d7c:	00039104 	andeq	r9, r3, r4, lsl #2
     d80:	007a1800 	rsbseq	r1, sl, r0, lsl #16
     d84:	03b60000 			; <UNDEFINED> instruction: 0x03b60000
     d88:	6b190000 	blvs	640d90 <__bss_end__+0x637608>
     d8c:	0e000000 	cdpeq	0, 0, cr0, cr0, cr0, {0}
     d90:	03a60600 			; <UNDEFINED> instruction: 0x03a60600
     d94:	3e1d0000 	cdpcc	0, 1, cr0, cr13, cr0, {0}
     d98:	01000002 	tsteq	r0, r2
     d9c:	0000257d 	andeq	r2, r0, sp, ror r5
     da0:	00857400 	addeq	r7, r5, r0, lsl #8
     da4:	00028800 	andeq	r8, r2, r0, lsl #16
     da8:	259c0100 	ldrcs	r0, [ip, #256]	; 0x100
     dac:	0b000006 	bleq	dcc <_start-0x7234>
     db0:	00667562 	rsbeq	r7, r6, r2, ror #10
     db4:	00747d01 	rsbseq	r7, r4, r1, lsl #26
     db8:	089e0000 	ldmeq	lr, {}	; <UNPREDICTABLE>
     dbc:	6e0b0000 	cdpvs	0, 0, cr0, cr11, cr0, {0}
     dc0:	257d0100 	ldrbcs	r0, [sp, #-256]!	; 0x100
     dc4:	ca000000 	bgt	dcc <_start-0x7234>
     dc8:	0b000008 	bleq	df0 <_start-0x7210>
     dcc:	00746d66 	rsbseq	r6, r4, r6, ror #26
     dd0:	00817d01 	addeq	r7, r1, r1, lsl #26
     dd4:	08f80000 	ldmeq	r8!, {}^	; <UNPREDICTABLE>
     dd8:	960d0000 	strls	r0, [sp], -r0
     ddc:	01000002 	tsteq	r0, r2
     de0:	0000ae7d 	andeq	sl, r0, sp, ror lr
     de4:	00092c00 	andeq	r2, r9, r0, lsl #24
     de8:	00701000 	rsbseq	r1, r0, r0
     dec:	00747e01 	rsbseq	r7, r4, r1, lsl #28
     df0:	093f0000 	ldmdbeq	pc!, {}	; <UNPREDICTABLE>
     df4:	65100000 	ldrvs	r0, [r0, #-0]
     df8:	747e0100 	ldrbtvc	r0, [lr], #-256	; 0x100
     dfc:	bd000000 	stclt	0, cr0, [r0, #-0]
     e00:	11000009 	tstne	r0, r9
     e04:	000002dc 	ldrdeq	r0, [r0], -ip
     e08:	00000635 	andeq	r0, r0, r5, lsr r6
     e0c:	92900305 	addsls	r0, r0, #335544320	; 0x14000000
     e10:	001e0000 	andseq	r0, lr, r0
     e14:	10000000 	andne	r0, r0, r0
     e18:	8b010073 	blhi	40fec <__bss_end__+0x37864>
     e1c:	00000074 	andeq	r0, r0, r4, ror r0
     e20:	000009e4 	andeq	r0, r0, r4, ror #19
     e24:	6d756e0f 	ldclvs	14, cr6, [r5, #-60]!	; 0xffffffc4
     e28:	3a8b0100 	bcc	fe2c1230 <__bss_end__+0xfe2b7aa8>
     e2c:	03000006 	movweq	r0, #6
     e30:	137ed891 	cmnne	lr, #9502720	; 0x910000
     e34:	0000031f 	andeq	r0, r0, pc, lsl r3
     e38:	002c8c01 	eoreq	r8, ip, r1, lsl #24
     e3c:	0a390000 	beq	e40e44 <__bss_end__+0xe376bc>
     e40:	f8150000 			; <UNDEFINED> instruction: 0xf8150000
     e44:	b9000085 	stmdblt	r0, {r0, r2, r7}
     e48:	7b000000 	blvc	e50 <_start-0x71b0>
     e4c:	16000004 	strne	r0, [r0], -r4
     e50:	75025001 	strvc	r5, [r2, #-1]
     e54:	0c140000 	ldceq	0, cr0, [r4], {-0}
     e58:	60000086 	andvs	r0, r0, r6, lsl #1
     e5c:	15000006 	strne	r0, [r0, #-6]
     e60:	00008620 	andeq	r8, r0, r0, lsr #12
     e64:	00000667 	andeq	r0, r0, r7, ror #12
     e68:	000004b3 			; <UNDEFINED> instruction: 0x000004b3
     e6c:	02530116 	subseq	r0, r3, #-2147483643	; 0x80000005
     e70:	01169208 	tsteq	r6, r8, lsl #4
     e74:	90030552 	andls	r0, r3, r2, asr r5
     e78:	16000092 			; <UNDEFINED> instruction: 0x16000092
     e7c:	03055101 	movweq	r5, #20737	; 0x5101
     e80:	000092b0 			; <UNDEFINED> instruction: 0x000092b0
     e84:	05500116 	ldrbeq	r0, [r0, #-278]	; 0x116
     e88:	00930003 	addseq	r0, r3, r3
     e8c:	24140000 	ldrcs	r0, [r4], #-0
     e90:	7d000086 	stcvc	0, cr0, [r0, #-536]	; 0xfffffde8
     e94:	14000006 	strne	r0, [r0], #-6
     e98:	00008694 	muleq	r0, r4, r6
     e9c:	00000660 	andeq	r0, r0, r0, ror #12
     ea0:	0086a815 	addeq	sl, r6, r5, lsl r8
     ea4:	00066700 	andeq	r6, r6, r0, lsl #14
     ea8:	0004f400 	andeq	pc, r4, r0, lsl #8
     eac:	53011600 	movwpl	r1, #5632	; 0x1600
     eb0:	16980802 	ldrne	r0, [r8], r2, lsl #16
     eb4:	03055201 	movweq	r5, #20993	; 0x5201
     eb8:	00009290 	muleq	r0, r0, r2
     ebc:	05510116 	ldrbeq	r0, [r1, #-278]	; 0x116
     ec0:	0092b003 	addseq	fp, r2, r3
     ec4:	50011600 	andpl	r1, r1, r0, lsl #12
     ec8:	931c0305 	tstls	ip, #335544320	; 0x14000000
     ecc:	14000000 	strne	r0, [r0], #-0
     ed0:	000086ac 	andeq	r8, r0, ip, lsr #13
     ed4:	0000067d 	andeq	r0, r0, sp, ror r6
     ed8:	0086d015 	addeq	sp, r6, r5, lsl r0
     edc:	00019c00 	andeq	r9, r1, r0, lsl #24
     ee0:	00052a00 	andeq	r2, r5, r0, lsl #20
     ee4:	52011600 	andpl	r1, r1, #0, 12
     ee8:	16800802 	strne	r0, [r0], r2, lsl #16
     eec:	91035101 	tstls	r3, r1, lsl #2
     ef0:	01167ed0 			; <UNDEFINED> instruction: 0x01167ed0
     ef4:	163a0150 			; <UNDEFINED> instruction: 0x163a0150
     ef8:	01047d02 	tsteq	r4, r2, lsl #26
     efc:	7d021631 	stcvc	6, cr1, [r2, #-196]	; 0xffffff3c
     f00:	00770200 	rsbseq	r0, r7, r0, lsl #4
     f04:	86f41500 	ldrbthi	r1, [r4], r0, lsl #10
     f08:	019c0000 	orrseq	r0, ip, r0
     f0c:	05580000 	ldrbeq	r0, [r8, #-0]
     f10:	01160000 	tsteq	r6, r0
     f14:	80080252 	andhi	r0, r8, r2, asr r2
     f18:	03510116 	cmpeq	r1, #-2147483643	; 0x80000005
     f1c:	167ed091 			; <UNDEFINED> instruction: 0x167ed091
     f20:	3a015001 	bcc	54f2c <__bss_end__+0x4b7a4>
     f24:	047d0216 	ldrbteq	r0, [sp], #-534	; 0x216
     f28:	16007b02 	strne	r7, [r0], -r2, lsl #22
     f2c:	02007d02 	andeq	r7, r0, #2, 26	; 0x80
     f30:	15000077 	strne	r0, [r0, #-119]	; 0x77
     f34:	00008718 	andeq	r8, r0, r8, lsl r7
     f38:	0000019c 	muleq	r0, ip, r1
     f3c:	00000586 	andeq	r0, r0, r6, lsl #11
     f40:	02520116 	subseq	r0, r2, #-2147483643	; 0x80000005
     f44:	01168008 	tsteq	r6, r8
     f48:	d0910351 	addsle	r0, r1, r1, asr r3
     f4c:	5001167e 	andpl	r1, r1, lr, ror r6
     f50:	02164001 	andseq	r4, r6, #1
     f54:	7b02047d 	blvc	82150 <__bss_end__+0x789c8>
     f58:	7d021600 	stcvc	6, cr1, [r2, #-0]
     f5c:	00770200 	rsbseq	r0, r7, r0, lsl #4
     f60:	873c1500 	ldrhi	r1, [ip, -r0, lsl #10]!
     f64:	019c0000 	orrseq	r0, ip, r0
     f68:	05b40000 	ldreq	r0, [r4, #0]!
     f6c:	01160000 	tsteq	r6, r0
     f70:	80080252 	andhi	r0, r8, r2, asr r2
     f74:	03510116 	cmpeq	r1, #-2147483643	; 0x80000005
     f78:	167ed091 			; <UNDEFINED> instruction: 0x167ed091
     f7c:	32015001 	andcc	r5, r1, #1
     f80:	047d0216 	ldrbteq	r0, [sp], #-534	; 0x216
     f84:	16007b02 	strne	r7, [r0], -r2, lsl #22
     f88:	02007d02 	andeq	r7, r0, #2, 26	; 0x80
     f8c:	15000077 	strne	r0, [r0, #-119]	; 0x77
     f90:	0000876c 	andeq	r8, r0, ip, ror #14
     f94:	0000019c 	muleq	r0, ip, r1
     f98:	000005e2 	andeq	r0, r0, r2, ror #11
     f9c:	02520116 	subseq	r0, r2, #-2147483643	; 0x80000005
     fa0:	01168008 	tsteq	r6, r8
     fa4:	d0910351 	addsle	r0, r1, r1, asr r3
     fa8:	5001167e 	andpl	r1, r1, lr, ror r6
     fac:	02163801 	andseq	r3, r6, #65536	; 0x10000
     fb0:	7b02047d 	blvc	821ac <__bss_end__+0x78a24>
     fb4:	7d021600 	stcvc	6, cr1, [r2, #-0]
     fb8:	00770200 	rsbseq	r0, r7, r0, lsl #4
     fbc:	87741400 	ldrbhi	r1, [r4, -r0, lsl #8]!
     fc0:	06600000 	strbteq	r0, [r0], -r0
     fc4:	90150000 	andsls	r0, r5, r0
     fc8:	67000087 	strvs	r0, [r0, -r7, lsl #1]
     fcc:	1a000006 	bne	fec <_start-0x7014>
     fd0:	16000006 	strne	r0, [r0], -r6
     fd4:	08025301 	stmdaeq	r2, {r0, r8, r9, ip, lr}
     fd8:	520116b9 	andpl	r1, r1, #193986560	; 0xb900000
     fdc:	92900305 	addsls	r0, r0, #335544320	; 0x14000000
     fe0:	01160000 	tsteq	r6, r0
     fe4:	b0030551 	andlt	r0, r3, r1, asr r5
     fe8:	16000092 			; <UNDEFINED> instruction: 0x16000092
     fec:	03055001 	movweq	r5, #20481	; 0x5001
     ff0:	00009344 	andeq	r9, r0, r4, asr #6
     ff4:	87941400 	ldrhi	r1, [r4, r0, lsl #8]
     ff8:	067d0000 	ldrbteq	r0, [sp], -r0
     ffc:	00000000 	andeq	r0, r0, r0
    1000:	00007a18 	andeq	r7, r0, r8, lsl sl
    1004:	00063500 	andeq	r3, r6, r0, lsl #10
    1008:	006b1900 	rsbeq	r1, fp, r0, lsl #18
    100c:	00090000 	andeq	r0, r9, r0
    1010:	00062506 	andeq	r2, r6, r6, lsl #10
    1014:	007a1800 	rsbseq	r1, sl, r0, lsl #16
    1018:	064a0000 	strbeq	r0, [sl], -r0
    101c:	6b190000 	blvs	641024 <__bss_end__+0x63789c>
    1020:	7f000000 	svcvc	0x00000000
    1024:	02ba1f00 	adcseq	r1, sl, #0, 30
    1028:	1d030000 	stcne	0, cr0, [r3, #-0]
    102c:	0000038b 	andeq	r0, r0, fp, lsl #7
    1030:	0002b51f 	andeq	fp, r2, pc, lsl r5
    1034:	a0220300 	eorge	r0, r2, r0, lsl #6
    1038:	20000003 	andcs	r0, r0, r3
    103c:	0000032d 	andeq	r0, r0, sp, lsr #6
    1040:	41211e03 	teqmi	r1, r3, lsl #28
    1044:	03000002 	movweq	r0, #2
    1048:	00002529 	andeq	r2, r0, r9, lsr #10
    104c:	00067d00 	andeq	r7, r6, r0, lsl #26
    1050:	00811c00 	addeq	r1, r1, r0, lsl #24
    1054:	00220000 	eoreq	r0, r2, r0
    1058:	00006120 	andeq	r6, r0, r0, lsr #2
    105c:	00660300 	rsbeq	r0, r6, r0, lsl #6
    1060:	000000ff 	strdeq	r0, [r0], -pc	; <UNPREDICTABLE>
    1064:	058a0004 	streq	r0, [sl, #4]
    1068:	01040000 	mrseq	r0, (UNDEF: 4)
    106c:	000001e7 	andeq	r0, r0, r7, ror #3
    1070:	00034c01 	andeq	r4, r3, r1, lsl #24
    1074:	00025200 	andeq	r5, r2, r0, lsl #4
    1078:	0087fc00 	addeq	pc, r7, r0, lsl #24
    107c:	00002800 	andeq	r2, r0, r0, lsl #16
    1080:	00054c00 	andeq	r4, r5, r0, lsl #24
    1084:	05040200 	streq	r0, [r4, #-512]	; 0x200
    1088:	00746e69 	rsbseq	r6, r4, r9, ror #28
    108c:	3c070403 	cfstrscc	mvf0, [r7], {3}
    1090:	03000000 	movweq	r0, #0
    1094:	004b0601 	subeq	r0, fp, r1, lsl #12
    1098:	02030000 	andeq	r0, r3, #0
    109c:	0000f805 	andeq	pc, r0, r5, lsl #16
    10a0:	05040300 	streq	r0, [r4, #-768]	; 0x300
    10a4:	00000005 	andeq	r0, r0, r5
    10a8:	00050803 	andeq	r0, r5, r3, lsl #16
    10ac:	03000000 	movweq	r0, #0
    10b0:	00490801 	subeq	r0, r9, r1, lsl #16
    10b4:	02030000 	andeq	r0, r3, #0
    10b8:	0000e507 	andeq	lr, r0, r7, lsl #10
    10bc:	07040300 	streq	r0, [r4, -r0, lsl #6]
    10c0:	00000037 	andeq	r0, r0, r7, lsr r0
    10c4:	32070803 	andcc	r0, r7, #196608	; 0x30000
    10c8:	03000000 	movweq	r0, #0
    10cc:	016d0704 	cmneq	sp, r4, lsl #14
    10d0:	01030000 	mrseq	r0, (UNDEF: 3)
    10d4:	00005208 	andeq	r5, r0, r8, lsl #4
    10d8:	7f040400 	svcvc	0x00040400
    10dc:	05000000 	streq	r0, [r0, #-0]
    10e0:	00000072 	andeq	r0, r0, r2, ror r0
    10e4:	00006106 	andeq	r6, r0, r6, lsl #2
    10e8:	fc040100 	stc2	1, cr0, [r4], {-0}
    10ec:	28000087 	stmdacs	r0, {r0, r1, r2, r7}
    10f0:	01000000 	mrseq	r0, (UNDEF: 0)
    10f4:	0000ca9c 	muleq	r0, ip, sl
    10f8:	88100700 	ldmdahi	r0, {r8, r9, sl}
    10fc:	00ac0000 	adceq	r0, ip, r0
    1100:	01080000 	mrseq	r0, (UNDEF: 8)
    1104:	7c030550 	cfstr32vc	mvfx0, [r3], {80}	; 0x50
    1108:	00000093 	muleq	r0, r3, r0
    110c:	00881809 	addeq	r1, r8, r9, lsl #16
    1110:	0000ea00 	andeq	lr, r0, r0, lsl #20
    1114:	0000c000 	andeq	ip, r0, r0
    1118:	50010800 	andpl	r0, r1, r0, lsl #16
    111c:	00640802 	rsbeq	r0, r4, r2, lsl #16
    1120:	00881c0a 	addeq	r1, r8, sl, lsl #24
    1124:	0000fb00 	andeq	pc, r0, r0, lsl #22
    1128:	250b0000 	strcs	r0, [fp, #-0]
    112c:	d9000000 	stmdble	r0, {}	; <UNPREDICTABLE>
    1130:	0c000000 	stceq	0, cr0, [r0], {-0}
    1134:	00000079 	andeq	r0, r0, r9, ror r0
    1138:	02b50d00 	adcseq	r0, r5, #0, 26
    113c:	22020000 	andcs	r0, r2, #0
    1140:	000000e4 	andeq	r0, r0, r4, ror #1
    1144:	00ca0404 	sbceq	r0, sl, r4, lsl #8
    1148:	660e0000 	strvs	r0, [lr], -r0
    114c:	02000003 	andeq	r0, r0, #3
    1150:	0000fb50 	andeq	pc, r0, r0, asr fp	; <UNPREDICTABLE>
    1154:	002c0c00 	eoreq	r0, ip, r0, lsl #24
    1158:	0f000000 	svceq	0x00000000
    115c:	00000341 	andeq	r0, r0, r1, asr #6
    1160:	ff006302 			; <UNDEFINED> instruction: 0xff006302
    1164:	04000000 	streq	r0, [r0], #-0
    1168:	00065400 	andeq	r5, r6, r0, lsl #8
    116c:	e7010400 	str	r0, [r1, -r0, lsl #8]
    1170:	01000001 	tsteq	r0, r1
    1174:	0000036f 	andeq	r0, r0, pc, ror #6
    1178:	00000252 	andeq	r0, r0, r2, asr r2
    117c:	00008824 	andeq	r8, r0, r4, lsr #16
    1180:	00000034 	andeq	r0, r0, r4, lsr r0
    1184:	000005e3 	andeq	r0, r0, r3, ror #11
    1188:	69050402 	stmdbvs	r5, {r1, sl}
    118c:	0300746e 	movweq	r7, #1134	; 0x46e
    1190:	003c0704 	eorseq	r0, ip, r4, lsl #14
    1194:	01030000 	mrseq	r0, (UNDEF: 3)
    1198:	00004b06 	andeq	r4, r0, r6, lsl #22
    119c:	05020300 	streq	r0, [r2, #-768]	; 0x300
    11a0:	000000f8 	strdeq	r0, [r0], -r8
    11a4:	05050403 	streq	r0, [r5, #-1027]	; 0x403
    11a8:	03000000 	movweq	r0, #0
    11ac:	00000508 	andeq	r0, r0, r8, lsl #10
    11b0:	01030000 	mrseq	r0, (UNDEF: 3)
    11b4:	00004908 	andeq	r4, r0, r8, lsl #18
    11b8:	07020300 	streq	r0, [r2, -r0, lsl #6]
    11bc:	000000e5 	andeq	r0, r0, r5, ror #1
    11c0:	37070403 	strcc	r0, [r7, -r3, lsl #8]
    11c4:	03000000 	movweq	r0, #0
    11c8:	00320708 	eorseq	r0, r2, r8, lsl #14
    11cc:	04030000 	streq	r0, [r3], #-0
    11d0:	00016d07 	andeq	r6, r1, r7, lsl #26
    11d4:	08010300 	stmdaeq	r1, {r8, r9}
    11d8:	00000052 	andeq	r0, r0, r2, asr r0
    11dc:	0003a504 	andeq	sl, r3, r4, lsl #10
    11e0:	240d0100 	strcs	r0, [sp], #-256	; 0x100
    11e4:	34000088 	strcc	r0, [r0], #-136	; 0x88
    11e8:	01000000 	mrseq	r0, (UNDEF: 0)
    11ec:	0000d89c 	muleq	r0, ip, r8
    11f0:	03830500 	orreq	r0, r3, #0, 10
    11f4:	0e010000 	cdpeq	0, 0, cr0, cr1, cr0, {0}
    11f8:	00000025 	andeq	r0, r0, r5, lsr #32
    11fc:	00039105 	andeq	r9, r3, r5, lsl #2
    1200:	250e0100 	strcs	r0, [lr, #-256]	; 0x100
    1204:	06000000 	streq	r0, [r0], -r0
    1208:	0000006e 	andeq	r0, r0, lr, rrx
    120c:	62070f01 	andvs	r0, r7, #1, 30
    1210:	01007373 	tsteq	r0, r3, ror r3
    1214:	0000d811 	andeq	sp, r0, r1, lsl r8
    1218:	000a6300 	andeq	r6, sl, r0, lsl #6
    121c:	039d0800 	orrseq	r0, sp, #0, 16
    1220:	12010000 	andne	r0, r1, #0
    1224:	000000d8 	ldrdeq	r0, [r0], -r8
    1228:	00884c09 	addeq	r4, r8, r9, lsl #24
    122c:	0000f400 	andeq	pc, r0, r0, lsl #8
    1230:	88500900 	ldmdahi	r0, {r8, fp}^
    1234:	00fb0000 	rscseq	r0, fp, r0
    1238:	0a000000 	beq	1240 <_start-0x6dc0>
    123c:	00002504 	andeq	r2, r0, r4, lsl #10
    1240:	03830500 	orreq	r0, r3, #0, 10
    1244:	0e010000 	cdpeq	0, 0, cr0, cr1, cr0, {0}
    1248:	00000025 	andeq	r0, r0, r5, lsr #32
    124c:	00039105 	andeq	r9, r3, r5, lsl #2
    1250:	250e0100 	strcs	r0, [lr, #-256]	; 0x100
    1254:	06000000 	streq	r0, [r0], -r0
    1258:	0000006e 	andeq	r0, r0, lr, rrx
    125c:	4106d802 	tstmi	r6, r2, lsl #16
    1260:	02000003 	andeq	r0, r0, #3
    1264:	01ad0063 			; <UNDEFINED> instruction: 0x01ad0063
    1268:	00040000 	andeq	r0, r4, r0
    126c:	000006e8 	andeq	r0, r0, r8, ror #13
    1270:	01e70104 	mvneq	r0, r4, lsl #2
    1274:	c7010000 	strgt	r0, [r1, -r0]
    1278:	52000003 	andpl	r0, r0, #3
    127c:	18000002 	stmdane	r0, {r1}
    1280:	00000000 	andeq	r0, r0, r0
    1284:	81000000 	mrshi	r0, (UNDEF: 0)
    1288:	02000006 	andeq	r0, r0, #6
    128c:	6e690504 	cdpvs	5, 6, cr0, cr9, cr4, {0}
    1290:	04030074 	streq	r0, [r3], #-116	; 0x74
    1294:	00003c07 	andeq	r3, r0, r7, lsl #24
    1298:	06010300 	streq	r0, [r1], -r0, lsl #6
    129c:	0000004b 	andeq	r0, r0, fp, asr #32
    12a0:	f8050203 			; <UNDEFINED> instruction: 0xf8050203
    12a4:	03000000 	movweq	r0, #0
    12a8:	00050504 	andeq	r0, r5, r4, lsl #10
    12ac:	08030000 	stmdaeq	r3, {}	; <UNPREDICTABLE>
    12b0:	00000005 	andeq	r0, r0, r5
    12b4:	08010300 	stmdaeq	r1, {r8, r9}
    12b8:	00000049 	andeq	r0, r0, r9, asr #32
    12bc:	e5070203 	str	r0, [r7, #-515]	; 0x203
    12c0:	03000000 	movweq	r0, #0
    12c4:	00370704 	eorseq	r0, r7, r4, lsl #14
    12c8:	08030000 	stmdaeq	r3, {}	; <UNPREDICTABLE>
    12cc:	00003207 	andeq	r3, r0, r7, lsl #4
    12d0:	07040300 	streq	r0, [r4, -r0, lsl #6]
    12d4:	0000016d 	andeq	r0, r0, sp, ror #2
    12d8:	52080103 	andpl	r0, r8, #-1073741824	; 0xc0000000
    12dc:	04000000 	streq	r0, [r0], #-0
    12e0:	000003ad 	andeq	r0, r0, sp, lsr #7
    12e4:	00250e01 	eoreq	r0, r5, r1, lsl #28
    12e8:	88580000 	ldmdahi	r8, {}^	; <UNPREDICTABLE>
    12ec:	00180000 	andseq	r0, r8, r0
    12f0:	9c010000 	stcls	0, cr0, [r1], {-0}
    12f4:	000000a2 	andeq	r0, r0, r2, lsr #1
    12f8:	00041905 	andeq	r1, r4, r5, lsl #18
    12fc:	2c0f0100 	stfcss	f0, [pc], {-0}
    1300:	83000000 	movwhi	r0, #0
    1304:	0000000a 	andeq	r0, r0, sl
    1308:	0003fc06 	andeq	pc, r3, r6, lsl #24
    130c:	70170100 	andsvc	r0, r7, r0, lsl #2
    1310:	14000088 	strne	r0, [r0], #-136	; 0x88
    1314:	01000000 	mrseq	r0, (UNDEF: 0)
    1318:	0000c79c 	muleq	r0, ip, r7
    131c:	04190500 	ldreq	r0, [r9], #-1280	; 0x500
    1320:	18010000 	stmdane	r1, {}	; <UNPREDICTABLE>
    1324:	0000002c 	andeq	r0, r0, ip, lsr #32
    1328:	00000aa2 	andeq	r0, r0, r2, lsr #21
    132c:	03410600 	movteq	r0, #5632	; 0x1600
    1330:	1f010000 	svcne	0x00010000
    1334:	00008884 	andeq	r8, r0, r4, lsl #17
    1338:	00000048 	andeq	r0, r0, r8, asr #32
    133c:	01779c01 	cmneq	r7, r1, lsl #24
    1340:	11070000 	mrsne	r0, (UNDEF: 7)
    1344:	01000004 	tsteq	r0, r4
    1348:	0001772a 	andeq	r7, r1, sl, lsr #14
    134c:	10001c00 	andne	r1, r0, r0, lsl #24
    1350:	03f40720 	mvnseq	r0, #32, 14	; 0x800000
    1354:	2b010000 	blcs	4135c <__bss_end__+0x37bd4>
    1358:	00000177 	andeq	r0, r0, r7, ror r1
    135c:	20100024 	andscs	r0, r0, r4, lsr #32
    1360:	0003bb07 	andeq	fp, r3, r7, lsl #22
    1364:	772c0100 	strvc	r0, [ip, -r0, lsl #2]!
    1368:	00000001 	andeq	r0, r0, r1
    136c:	085a0000 	ldmdaeq	sl, {}^	; <UNPREDICTABLE>
    1370:	000003db 	ldrdeq	r0, [r0], -fp
    1374:	01772d01 	cmneq	r7, r1, lsl #26
    1378:	09200000 	stmdbeq	r0!, {}	; <UNPREDICTABLE>
    137c:	0000888c 	andeq	r8, r0, ip, lsl #17
    1380:	00000079 	andeq	r0, r0, r9, ror r0
    1384:	00889809 	addeq	r9, r8, r9, lsl #16
    1388:	0000a200 	andeq	sl, r0, r0, lsl #4
    138c:	88a00a00 	stmiahi	r0!, {r9, fp}
    1390:	018d0000 	orreq	r0, sp, r0
    1394:	013a0000 	teqeq	sl, r0
    1398:	010b0000 	mrseq	r0, (UNDEF: 11)
    139c:	004e0150 	subeq	r0, lr, r0, asr r1
    13a0:	0088ac0a 	addeq	sl, r8, sl, lsl #24
    13a4:	00019e00 	andeq	r9, r1, r0, lsl #28
    13a8:	00015a00 	andeq	r5, r1, r0, lsl #20
    13ac:	51010b00 	tstpl	r1, r0, lsl #22
    13b0:	00010c05 	andeq	r0, r1, r5, lsl #24
    13b4:	010b5a00 	tsteq	fp, r0, lsl #20
    13b8:	240c0550 	strcs	r0, [ip], #-1360	; 0x550
    13bc:	00201000 	eoreq	r1, r0, r0
    13c0:	0088b80c 	addeq	fp, r8, ip, lsl #16
    13c4:	00019e00 	andeq	r9, r1, r0, lsl #28
    13c8:	51010b00 	tstpl	r1, r0, lsl #22
    13cc:	00200c05 	eoreq	r0, r0, r5, lsl #24
    13d0:	010b5a00 	tsteq	fp, r0, lsl #20
    13d4:	1c0c0550 	cfstr32ne	mvfx0, [ip], {80}	; 0x50
    13d8:	00201000 	eoreq	r1, r0, r0
    13dc:	00250d00 	eoreq	r0, r5, r0, lsl #26
    13e0:	b0080000 	andlt	r0, r8, r0
    13e4:	01000003 	tsteq	r0, r3
    13e8:	0001880d 	andeq	r8, r1, sp, lsl #16
    13ec:	2c0d1000 	stccs	0, cr1, [sp], {-0}
    13f0:	0e000000 	cdpeq	0, 0, cr0, cr0, cr0, {0}
    13f4:	00000366 	andeq	r0, r0, r6, ror #6
    13f8:	019e5002 	orrseq	r5, lr, r2
    13fc:	2c0f0000 	stccs	0, cr0, [pc], {-0}
    1400:	00000000 	andeq	r0, r0, r0
    1404:	00040b10 	andeq	r0, r4, r0, lsl fp
    1408:	0f9c0200 	svceq	0x009c0200
    140c:	0000002c 	andeq	r0, r0, ip, lsr #32
    1410:	00002c0f 	andeq	r2, r0, pc, lsl #24
    1414:	d8000000 	stmdale	r0, {}	; <UNPREDICTABLE>
    1418:	04000001 	streq	r0, [r0], #-1
    141c:	0007d600 	andeq	sp, r7, r0, lsl #12
    1420:	e7010400 	str	r0, [r1, -r0, lsl #8]
    1424:	01000001 	tsteq	r0, r1
    1428:	0000043b 	andeq	r0, r0, fp, lsr r4
    142c:	00000252 	andeq	r0, r0, r2, asr r2
    1430:	000088cc 	andeq	r8, r0, ip, asr #17
    1434:	00000088 	andeq	r0, r0, r8, lsl #1
    1438:	0000071e 	andeq	r0, r0, lr, lsl r7
    143c:	69050402 	stmdbvs	r5, {r1, sl}
    1440:	0300746e 	movweq	r7, #1134	; 0x46e
    1444:	003c0704 	eorseq	r0, ip, r4, lsl #14
    1448:	01030000 	mrseq	r0, (UNDEF: 3)
    144c:	00004b06 	andeq	r4, r0, r6, lsl #22
    1450:	05020300 	streq	r0, [r2, #-768]	; 0x300
    1454:	000000f8 	strdeq	r0, [r0], -r8
    1458:	05050403 	streq	r0, [r5, #-1027]	; 0x403
    145c:	03000000 	movweq	r0, #0
    1460:	00000508 	andeq	r0, r0, r8, lsl #10
    1464:	01030000 	mrseq	r0, (UNDEF: 3)
    1468:	00004908 	andeq	r4, r0, r8, lsl #18
    146c:	07020300 	streq	r0, [r2, -r0, lsl #6]
    1470:	000000e5 	andeq	r0, r0, r5, ror #1
    1474:	37070403 	strcc	r0, [r7, -r3, lsl #8]
    1478:	03000000 	movweq	r0, #0
    147c:	00320708 	eorseq	r0, r2, r8, lsl #14
    1480:	04030000 	streq	r0, [r3], #-0
    1484:	00016d07 	andeq	r6, r1, r7, lsl #26
    1488:	08010300 	stmdaeq	r1, {r8, r9}
    148c:	00000052 	andeq	r0, r0, r2, asr r0
    1490:	00045a04 	andeq	r5, r4, r4, lsl #20
    1494:	cc050100 	stfgts	f0, [r5], {-0}
    1498:	1c000088 	stcne	0, cr0, [r0], {136}	; 0x88
    149c:	01000000 	mrseq	r0, (UNDEF: 0)
    14a0:	00009e9c 	muleq	r0, ip, lr
    14a4:	04540500 	ldrbeq	r0, [r4], #-1280	; 0x500
    14a8:	05010000 	streq	r0, [r1, #-0]
    14ac:	0000002c 	andeq	r0, r0, ip, lsr #32
    14b0:	00000acc 	andeq	r0, r0, ip, asr #21
    14b4:	041e0600 	ldreq	r0, [lr], #-1536	; 0x600
    14b8:	11010000 	mrsne	r0, (UNDEF: 1)
    14bc:	0000002c 	andeq	r0, r0, ip, lsr #32
    14c0:	000088e8 	andeq	r8, r0, r8, ror #17
    14c4:	00000014 	andeq	r0, r0, r4, lsl r0
    14c8:	00cb9c01 	sbceq	r9, fp, r1, lsl #24
    14cc:	f4070000 	vst4.8	{d0-d3}, [r7], r0
    14d0:	ca000088 	bgt	16f8 <_start-0x6908>
    14d4:	08000001 	stmdaeq	r0, {r0}
    14d8:	0c055001 	stceq	0, cr5, [r5], {1}
    14dc:	20003004 	andcs	r3, r0, r4
    14e0:	70060000 	andvc	r0, r6, r0
    14e4:	01000004 	tsteq	r0, r4
    14e8:	00002c16 	andeq	r2, r0, r6, lsl ip
    14ec:	0088fc00 	addeq	pc, r8, r0, lsl #24
    14f0:	00000c00 	andeq	r0, r0, r0, lsl #24
    14f4:	f99c0100 			; <UNDEFINED> instruction: 0xf99c0100
    14f8:	09000000 	stmdbeq	r0, {}	; <UNPREDICTABLE>
    14fc:	1a010075 	bne	416d8 <__bss_end__+0x37f50>
    1500:	0000002c 	andeq	r0, r0, ip, lsr #32
    1504:	040a5001 	streq	r5, [sl], #-1
    1508:	9e000089 	cdpls	0, 0, cr0, cr0, cr9, {4}
    150c:	00000000 	andeq	r0, r0, r0
    1510:	00046704 	andeq	r6, r4, r4, lsl #14
    1514:	081f0100 	ldmdaeq	pc, {r8}	; <UNPREDICTABLE>
    1518:	24000089 	strcs	r0, [r0], #-137	; 0x89
    151c:	01000000 	mrseq	r0, (UNDEF: 0)
    1520:	0001579c 	muleq	r1, ip, r7
    1524:	73750b00 	cmnvc	r5, #0, 22
    1528:	2c1f0100 	ldfcss	f0, [pc], {-0}
    152c:	00000000 	andeq	r0, r0, r0
    1530:	0900000b 	stmdbeq	r0, {r0, r1, r3}
    1534:	01006272 	tsteq	r0, r2, ror r2
    1538:	00002c20 	andeq	r2, r0, r0, lsr #24
    153c:	0c540100 	ldfeqe	f0, [r4], {-0}
    1540:	00008918 	andeq	r8, r0, r8, lsl r9
    1544:	00000010 	andeq	r0, r0, r0, lsl r0
    1548:	0000014d 	andeq	r0, r0, sp, asr #2
    154c:	0061720d 	rsbeq	r7, r1, sp, lsl #4
    1550:	002c2201 	eoreq	r2, ip, r1, lsl #4
    1554:	0b1e0000 	bleq	78155c <__bss_end__+0x777dd4>
    1558:	1c0a0000 	stcne	0, cr0, [sl], {-0}
    155c:	cb000089 	blgt	1788 <_start-0x6878>
    1560:	00000000 	andeq	r0, r0, r0
    1564:	0089140a 	addeq	r1, r9, sl, lsl #8
    1568:	0000cb00 	andeq	ip, r0, r0, lsl #22
    156c:	66040000 	strvs	r0, [r4], -r0
    1570:	01000003 	tsteq	r0, r3
    1574:	00892c28 	addeq	r2, r9, r8, lsr #24
    1578:	00001400 	andeq	r1, r0, r0, lsl #8
    157c:	909c0100 	addsls	r0, ip, r0, lsl #2
    1580:	0b000001 	bleq	158c <_start-0x6a74>
    1584:	0100736d 	tsteq	r0, sp, ror #6
    1588:	00002c28 	andeq	r2, r0, r8, lsr #24
    158c:	000b3100 	andeq	r3, fp, r0, lsl #2
    1590:	893c0700 	ldmdbhi	ip!, {r8, r9, sl}
    1594:	00f90000 	rscseq	r0, r9, r0
    1598:	01080000 	mrseq	r0, (UNDEF: 8)
    159c:	01f30750 	mvnseq	r0, r0, asr r7
    15a0:	03e80a50 	mvneq	r0, #80, 20	; 0x50000
    15a4:	0400001e 	streq	r0, [r0], #-30
    15a8:	00000431 	andeq	r0, r0, r1, lsr r4
    15ac:	89402b01 	stmdbhi	r0, {r0, r8, r9, fp, sp}^
    15b0:	00140000 	andseq	r0, r4, r0
    15b4:	9c010000 	stcls	0, cr0, [r1], {-0}
    15b8:	000001ca 	andeq	r0, r0, sl, asr #3
    15bc:	6365730b 	cmnvs	r5, #738197504	; 0x2c000000
    15c0:	2c2b0100 	stfcss	f0, [fp], #-0
    15c4:	52000000 	andpl	r0, r0, #0
    15c8:	0700000b 	streq	r0, [r0, -fp]
    15cc:	00008950 	andeq	r8, r0, r0, asr r9
    15d0:	00000157 	andeq	r0, r0, r7, asr r1
    15d4:	07500108 	ldrbeq	r0, [r0, -r8, lsl #2]
    15d8:	0a5001f3 	beq	1401dac <__bss_end__+0x13f8624>
    15dc:	001e03e8 	andseq	r0, lr, r8, ror #7
    15e0:	044e0e00 	strbeq	r0, [lr], #-3584	; 0xe00
    15e4:	a8020000 	stmdage	r2, {}	; <UNPREDICTABLE>
    15e8:	0000002c 	andeq	r0, r0, ip, lsr #32
    15ec:	00002c0f 	andeq	r2, r0, pc, lsl #24
    15f0:	82000000 	andhi	r0, r0, #0
    15f4:	04000008 	streq	r0, [r0], #-8
    15f8:	0008b900 	andeq	fp, r8, r0, lsl #18
    15fc:	e7010400 	str	r0, [r1, -r0, lsl #8]
    1600:	01000001 	tsteq	r0, r1
    1604:	000004d9 	ldrdeq	r0, [r0], -r9
    1608:	00000252 	andeq	r0, r0, r2, asr r2
    160c:	00008954 	andeq	r8, r0, r4, asr r9
    1610:	000005a0 	andeq	r0, r0, r0, lsr #11
    1614:	000007c5 	andeq	r0, r0, r5, asr #15
    1618:	32070802 	andcc	r0, r7, #131072	; 0x20000
    161c:	02000000 	andeq	r0, r0, #0
    1620:	003c0704 	eorseq	r0, ip, r4, lsl #14
    1624:	01020000 	mrseq	r0, (UNDEF: 2)
    1628:	00004b06 	andeq	r4, r0, r6, lsl #22
    162c:	05020200 	streq	r0, [r2, #-512]	; 0x200
    1630:	000000f8 	strdeq	r0, [r0], -r8
    1634:	05050402 	streq	r0, [r5, #-1026]	; 0x402
    1638:	02000000 	andeq	r0, r0, #0
    163c:	00000508 	andeq	r0, r0, r8, lsl #10
    1640:	01020000 	mrseq	r0, (UNDEF: 2)
    1644:	00004908 	andeq	r4, r0, r8, lsl #18
    1648:	07020200 	streq	r0, [r2, -r0, lsl #4]
    164c:	000000e5 	andeq	r0, r0, r5, ror #1
    1650:	37070402 	strcc	r0, [r7, -r2, lsl #8]
    1654:	03000000 	movweq	r0, #0
    1658:	6e690504 	cdpvs	5, 6, cr0, cr9, cr4, {0}
    165c:	04020074 	streq	r0, [r2], #-116	; 0x74
    1660:	00016d07 	andeq	r6, r1, r7, lsl #26
    1664:	08010200 	stmdaeq	r1, {r9}
    1668:	00000052 	andeq	r0, r0, r2, asr r0
    166c:	0c020104 	stfeqs	f0, [r2], {4}
    1670:	000000b2 	strheq	r0, [r0], -r2
    1674:	0004bc05 	andeq	fp, r4, r5, lsl #24
    1678:	36050000 	strcc	r0, [r5], -r0
    167c:	01000006 	tsteq	r0, r6
    1680:	00066f05 	andeq	r6, r6, r5, lsl #30
    1684:	7e050400 	cfcpysvc	mvf0, mvf5
    1688:	05000006 	streq	r0, [r0, #-6]
    168c:	00068d05 	andeq	r8, r6, r5, lsl #26
    1690:	9c050600 	stcls	6, cr0, [r5], {-0}
    1694:	07000006 	streq	r0, [r0, -r6]
    1698:	0006ab05 	andeq	sl, r6, r5, lsl #22
    169c:	ba050300 	blt	1422a4 <__bss_end__+0x138b1c>
    16a0:	02000006 	andeq	r0, r0, #6
    16a4:	06630600 	strbteq	r0, [r3], -r0, lsl #12
    16a8:	15020000 	strne	r0, [r2, #-0]
    16ac:	00000079 	andeq	r0, r0, r9, ror r0
    16b0:	00062607 	andeq	r2, r6, r7, lsl #12
    16b4:	543f0100 	ldrtpl	r0, [pc], #-256	; 16bc <_start-0x6944>
    16b8:	d4000089 	strle	r0, [r0], #-137	; 0x89
    16bc:	01000000 	mrseq	r0, (UNDEF: 0)
    16c0:	0001339c 	muleq	r1, ip, r3
    16c4:	69700800 	ldmdbvs	r0!, {fp}^
    16c8:	3f01006e 	svccc	0x0001006e
    16cc:	0000002c 	andeq	r0, r0, ip, lsr #32
    16d0:	00000b73 	andeq	r0, r0, r3, ror fp
    16d4:	00051509 	andeq	r1, r5, r9, lsl #10
    16d8:	33470100 	movtcc	r0, #28928	; 0x7100
    16dc:	91000001 	tstls	r0, r1
    16e0:	0900000b 	stmdbeq	r0, {r0, r1, r3}
    16e4:	000006c9 	andeq	r0, r0, r9, asr #13
    16e8:	002c4901 	eoreq	r4, ip, r1, lsl #18
    16ec:	0be60000 	bleq	ff9816f4 <__bss_end__+0xff977f6c>
    16f0:	d0090000 	andle	r0, r9, r0
    16f4:	01000005 	tsteq	r0, r5
    16f8:	00002c57 	andeq	r2, r0, r7, asr ip
    16fc:	000db200 	andeq	fp, sp, r0, lsl #4
    1700:	89e80a00 	stmibhi	r8!, {r9, fp}^
    1704:	08410000 	stmdaeq	r1, {}^	; <UNPREDICTABLE>
    1708:	01220000 	teqeq	r2, r0
    170c:	010b0000 	mrseq	r0, (UNDEF: 11)
    1710:	00750250 	rsbseq	r0, r5, r0, asr r2
    1714:	8a1c0c00 	bhi	70471c <__bss_end__+0x6faf94>
    1718:	08620000 	stmdaeq	r2!, {}^	; <UNPREDICTABLE>
    171c:	010b0000 	mrseq	r0, (UNDEF: 11)
    1720:	00750250 	rsbseq	r0, r5, r0, asr r2
    1724:	040d0000 	streq	r0, [sp], #-0
    1728:	00000139 	andeq	r0, r0, r9, lsr r1
    172c:	00002c0e 	andeq	r2, r0, lr, lsl #24
    1730:	060c0700 	streq	r0, [ip], -r0, lsl #14
    1734:	60010000 	andvs	r0, r1, r0
    1738:	00008a28 	andeq	r8, r0, r8, lsr #20
    173c:	00000038 	andeq	r0, r0, r8, lsr r0
    1740:	01969c01 	orrseq	r9, r6, r1, lsl #24
    1744:	70080000 	andvc	r0, r8, r0
    1748:	01006e69 	tsteq	r0, r9, ror #28
    174c:	00002c60 	andeq	r2, r0, r0, ror #24
    1750:	000de200 	andeq	lr, sp, r0, lsl #4
    1754:	05150900 	ldreq	r0, [r5, #-2304]	; 0x900
    1758:	67010000 	strvs	r0, [r1, -r0]
    175c:	00000133 	andeq	r0, r0, r3, lsr r1
    1760:	00000e03 	andeq	r0, r0, r3, lsl #28
    1764:	0005d009 	andeq	sp, r5, r9
    1768:	2c680100 	stfcse	f0, [r8], #-0
    176c:	39000000 	stmdbcc	r0, {}	; <UNPREDICTABLE>
    1770:	0c00000e 	stceq	0, cr0, [r0], {14}
    1774:	00008a58 	andeq	r8, r0, r8, asr sl
    1778:	00000862 	andeq	r0, r0, r2, ror #16
    177c:	0751010b 	ldrbeq	r0, [r1, -fp, lsl #2]
    1780:	5001f331 	andpl	pc, r1, r1, lsr r3	; <UNPREDICTABLE>
    1784:	00241a4f 	eoreq	r1, r4, pc, asr #20
    1788:	04cc0700 	strbeq	r0, [ip], #1792	; 0x700
    178c:	7b010000 	blvc	41794 <__bss_end__+0x3800c>
    1790:	00008a60 	andeq	r8, r0, r0, ror #20
    1794:	00000038 	andeq	r0, r0, r8, lsr r0
    1798:	01ee9c01 	mvneq	r9, r1, lsl #24
    179c:	70080000 	andvc	r0, r8, r0
    17a0:	01006e69 	tsteq	r0, r9, ror #28
    17a4:	00002c7b 	andeq	r2, r0, fp, ror ip
    17a8:	000e7900 	andeq	r7, lr, r0, lsl #18
    17ac:	05150900 	ldreq	r0, [r5, #-2304]	; 0x900
    17b0:	81010000 	mrshi	r0, (UNDEF: 1)
    17b4:	00000133 	andeq	r0, r0, r3, lsr r1
    17b8:	00000e9a 	muleq	r0, sl, lr
    17bc:	0005d009 	andeq	sp, r5, r9
    17c0:	2c820100 	stfcss	f0, [r2], {0}
    17c4:	d0000000 	andle	r0, r0, r0
    17c8:	0c00000e 	stceq	0, cr0, [r0], {14}
    17cc:	00008a90 	muleq	r0, r0, sl
    17d0:	00000862 	andeq	r0, r0, r2, ror #16
    17d4:	0751010b 	ldrbeq	r0, [r1, -fp, lsl #2]
    17d8:	5001f331 	andpl	pc, r1, r1, lsr r3	; <UNPREDICTABLE>
    17dc:	00241a4f 	eoreq	r1, r4, pc, asr #20
    17e0:	000e0700 	andeq	r0, lr, r0, lsl #14
    17e4:	95010000 	strls	r0, [r1, #-0]
    17e8:	00008a98 	muleq	r0, r8, sl
    17ec:	000000cc 	andeq	r0, r0, ip, asr #1
    17f0:	02649c01 	rsbeq	r9, r4, #256	; 0x100
    17f4:	70080000 	andvc	r0, r8, r0
    17f8:	01006e69 	tsteq	r0, r9, ror #28
    17fc:	00002c95 	muleq	r0, r5, ip
    1800:	000f1000 	andeq	r1, pc, r0
    1804:	05150900 	ldreq	r0, [r5, #-2304]	; 0x900
    1808:	9b010000 	blls	41810 <__bss_end__+0x38088>
    180c:	00000133 	andeq	r0, r0, r3, lsr r1
    1810:	00000f2e 	andeq	r0, r0, lr, lsr #30
    1814:	0006c909 	andeq	ip, r6, r9, lsl #18
    1818:	2c9d0100 	ldfcss	f0, [sp], {0}
    181c:	83000000 	movwhi	r0, #0
    1820:	0900000f 	stmdbeq	r0, {r0, r1, r2, r3}
    1824:	000005d0 	ldrdeq	r0, [r0], -r0	; <UNPREDICTABLE>
    1828:	002cab01 	eoreq	sl, ip, r1, lsl #22
    182c:	114f0000 	mrsne	r0, SPSR
    1830:	2c0a0000 	stccs	0, cr0, [sl], {-0}
    1834:	4100008b 	smlabbmi	r0, fp, r0, r0
    1838:	53000008 	movwpl	r0, #8
    183c:	0b000002 	bleq	184c <_start-0x67b4>
    1840:	75025001 	strvc	r5, [r2, #-1]
    1844:	580c0000 	stmdapl	ip, {}	; <UNPREDICTABLE>
    1848:	6200008b 	andvs	r0, r0, #139	; 0x8b
    184c:	0b000008 	bleq	1874 <_start-0x678c>
    1850:	75025001 	strvc	r5, [r2, #-1]
    1854:	0f000000 	svceq	0x00000000
    1858:	00000564 	andeq	r0, r0, r4, ror #10
    185c:	0064b301 	rsbeq	fp, r4, r1, lsl #6
    1860:	8b640000 	blhi	1901868 <__bss_end__+0x18f80e0>
    1864:	004c0000 	subeq	r0, ip, r0
    1868:	9c010000 	stcls	0, cr0, [r1], {-0}
    186c:	000002ac 	andeq	r0, r0, ip, lsr #5
    1870:	6e697008 	cdpvs	0, 6, cr7, cr9, cr8, {0}
    1874:	2cb30100 	ldfcss	f0, [r3]
    1878:	6d000000 	stcvs	0, cr0, [r0, #-0]
    187c:	10000011 	andne	r0, r0, r1, lsl r0
    1880:	b9010076 	stmdblt	r1, {r1, r2, r4, r5, r6}
    1884:	0000002c 	andeq	r0, r0, ip, lsr #32
    1888:	000011c5 	andeq	r1, r0, r5, asr #3
    188c:	008b8411 	addeq	r8, fp, r1, lsl r4
    1890:	00084100 	andeq	r4, r8, r0, lsl #2
    1894:	8b941100 	blhi	fe505c9c <__bss_end__+0xfe4fc514>
    1898:	08410000 	stmdaeq	r1, {}^	; <UNPREDICTABLE>
    189c:	07000000 	streq	r0, [r0, -r0]
    18a0:	000005d8 	ldrdeq	r0, [r0], -r8
    18a4:	8bb0c501 	blhi	fec32cb0 <__bss_end__+0xfec29528>
    18a8:	00240000 	eoreq	r0, r4, r0
    18ac:	9c010000 	stcls	0, cr0, [r1], {-0}
    18b0:	000002fc 	strdeq	r0, [r0], -ip
    18b4:	6e697008 	cdpvs	0, 6, cr7, cr9, cr8, {0}
    18b8:	2cc50100 	stfcse	f0, [r5], {0}
    18bc:	fb000000 	blx	18c6 <_start-0x673a>
    18c0:	08000011 	stmdaeq	r0, {r0, r4}
    18c4:	c5010076 	strgt	r0, [r1, #-118]	; 0x76
    18c8:	0000002c 	andeq	r0, r0, ip, lsr #32
    18cc:	00001235 	andeq	r1, r0, r5, lsr r2
    18d0:	008bc80a 	addeq	ip, fp, sl, lsl #16
    18d4:	00013e00 	andeq	r3, r1, r0, lsl #28
    18d8:	0002f200 	andeq	pc, r2, r0, lsl #4
    18dc:	50010b00 	andpl	r0, r1, r0, lsl #22
    18e0:	5001f303 	andpl	pc, r1, r3, lsl #6
    18e4:	8bd01100 	blhi	ff405cec <__bss_end__+0xff3fc564>
    18e8:	01960000 	orrseq	r0, r6, r0
    18ec:	07000000 	streq	r0, [r0, -r0]
    18f0:	00000583 	andeq	r0, r0, r3, lsl #11
    18f4:	8bd4d101 	blhi	ff535d00 <__bss_end__+0xff52c578>
    18f8:	00d80000 	sbcseq	r0, r8, r0
    18fc:	9c010000 	stcls	0, cr0, [r1], {-0}
    1900:	00000381 	andeq	r0, r0, r1, lsl #7
    1904:	6e697008 	cdpvs	0, 6, cr7, cr9, cr8, {0}
    1908:	2cd10100 	ldfcse	f0, [r1], {0}
    190c:	6f000000 	svcvs	0x00000000
    1910:	12000012 	andne	r0, r0, #18
    1914:	000005ed 	andeq	r0, r0, sp, ror #11
    1918:	00b2d101 	adcseq	sp, r2, r1, lsl #2
    191c:	128d0000 	addne	r0, sp, #0
    1920:	15090000 	strne	r0, [r9, #-0]
    1924:	01000005 	tsteq	r0, r5
    1928:	000133d9 	ldrdeq	r3, [r1], -r9
    192c:	0012ae00 	andseq	sl, r2, r0, lsl #28
    1930:	06c90900 	strbeq	r0, [r9], r0, lsl #18
    1934:	da010000 	ble	4193c <__bss_end__+0x381b4>
    1938:	0000002c 	andeq	r0, r0, ip, lsr #32
    193c:	00001303 	andeq	r1, r0, r3, lsl #6
    1940:	0005d009 	andeq	sp, r5, r9
    1944:	2ce80100 	stfcse	f0, [r8]
    1948:	cf000000 	svcgt	0x00000000
    194c:	0a000014 	beq	19a4 <_start-0x665c>
    1950:	00008c70 	andeq	r8, r0, r0, ror ip
    1954:	00000841 	andeq	r0, r0, r1, asr #16
    1958:	00000370 	andeq	r0, r0, r0, ror r3
    195c:	0250010b 	subseq	r0, r0, #-1073741822	; 0xc0000002
    1960:	0c000076 	stceq	0, cr0, [r0], {118}	; 0x76
    1964:	00008ca0 	andeq	r8, r0, r0, lsr #25
    1968:	00000862 	andeq	r0, r0, r2, ror #16
    196c:	0250010b 	subseq	r0, r0, #-1073741822	; 0xc0000002
    1970:	00000076 	andeq	r0, r0, r6, ror r0
    1974:	0005f207 	andeq	pc, r5, r7, lsl #4
    1978:	acf10100 	ldfgee	f0, [r1]
    197c:	3800008c 	stmdacc	r0, {r2, r3, r7}
    1980:	01000000 	mrseq	r0, (UNDEF: 0)
    1984:	0003d99c 	muleq	r3, ip, r9
    1988:	69700800 	ldmdbvs	r0!, {fp}^
    198c:	f101006e 	setend	le
    1990:	0000002c 	andeq	r0, r0, ip, lsr #32
    1994:	00001500 	andeq	r1, r0, r0, lsl #10
    1998:	00051509 	andeq	r1, r5, r9, lsl #10
    199c:	33f70100 	mvnscc	r0, #0, 2
    19a0:	21000001 	tstcs	r0, r1
    19a4:	09000015 	stmdbeq	r0, {r0, r2, r4}
    19a8:	000005d0 	ldrdeq	r0, [r0], -r0	; <UNPREDICTABLE>
    19ac:	002cf801 	eoreq	pc, ip, r1, lsl #16
    19b0:	15570000 	ldrbne	r0, [r7, #-0]
    19b4:	dc0c0000 	stcle	0, cr0, [ip], {-0}
    19b8:	6200008c 	andvs	r0, r0, #140	; 0x8c
    19bc:	0b000008 	bleq	19e4 <_start-0x661c>
    19c0:	31075101 	tstcc	r7, r1, lsl #2
    19c4:	4f5001f3 	svcmi	0x005001f3
    19c8:	0000241a 	andeq	r2, r0, sl, lsl r4
    19cc:	0004b013 	andeq	fp, r4, r3, lsl r0
    19d0:	011f0100 	tsteq	pc, r0, lsl #2
    19d4:	00000064 	andeq	r0, r0, r4, rrx
    19d8:	00008ce4 	andeq	r8, r0, r4, ror #25
    19dc:	0000002c 	andeq	r0, r0, ip, lsr #32
    19e0:	040d9c01 	streq	r9, [sp], #-3073	; 0xc01
    19e4:	b3140000 	tstlt	r4, #0
    19e8:	01000004 	tsteq	r0, r4
    19ec:	002c011f 	eoreq	r0, ip, pc, lsl r1
    19f0:	15970000 	ldrne	r0, [r7]
    19f4:	f4110000 			; <UNDEFINED> instruction: 0xf4110000
    19f8:	4100008c 	smlabbmi	r0, ip, r0, r0
    19fc:	00000008 	andeq	r0, r0, r8
    1a00:	00056e15 	andeq	r6, r5, r5, lsl lr
    1a04:	012e0100 	teqeq	lr, r0, lsl #2
    1a08:	00008d10 	andeq	r8, r0, r0, lsl sp
    1a0c:	00000084 	andeq	r0, r0, r4, lsl #1
    1a10:	04d19c01 	ldrbeq	r9, [r1], #3073	; 0xc01
    1a14:	70160000 	andsvc	r0, r6, r0
    1a18:	01006e69 	tsteq	r0, r9, ror #28
    1a1c:	002c012e 	eoreq	r0, ip, lr, lsr #2
    1a20:	15b80000 	ldrne	r0, [r8, #0]!
    1a24:	e7170000 	ldr	r0, [r7, -r0]
    1a28:	01000004 	tsteq	r0, r4
    1a2c:	002c0140 	eoreq	r0, ip, r0, asr #2
    1a30:	15e40000 	strbne	r0, [r4, #0]!
    1a34:	2c180000 	ldccs	0, cr0, [r8], {-0}
    1a38:	1c00008d 	stcne	0, cr0, [r0], {141}	; 0x8d
    1a3c:	73000000 	movwvc	r0, #0
    1a40:	17000004 	strne	r0, [r0, -r4]
    1a44:	000005d0 	ldrdeq	r0, [r0], -r0	; <UNPREDICTABLE>
    1a48:	2c013701 	stccs	7, cr3, [r1], {1}
    1a4c:	02000000 	andeq	r0, r0, #0
    1a50:	11000016 	tstne	r0, r6, lsl r0
    1a54:	00008d38 	andeq	r8, r0, r8, lsr sp
    1a58:	00000841 	andeq	r0, r0, r1, asr #16
    1a5c:	008d4811 	addeq	r4, sp, r1, lsl r8
    1a60:	00086200 	andeq	r6, r8, r0, lsl #4
    1a64:	4c180000 	ldcmi	0, cr0, [r8], {-0}
    1a68:	2000008d 	andcs	r0, r0, sp, lsl #1
    1a6c:	a3000000 	movwge	r0, #0
    1a70:	17000004 	strne	r0, [r0, -r4]
    1a74:	000005d0 	ldrdeq	r0, [r0], -r0	; <UNPREDICTABLE>
    1a78:	2c013b01 	stccs	11, cr3, [r1], {1}
    1a7c:	20000000 	andcs	r0, r0, r0
    1a80:	11000016 	tstne	r0, r6, lsl r0
    1a84:	00008d58 	andeq	r8, r0, r8, asr sp
    1a88:	00000841 	andeq	r0, r0, r1, asr #16
    1a8c:	008d6c11 	addeq	r6, sp, r1, lsl ip
    1a90:	00086200 	andeq	r6, r8, r0, lsl #4
    1a94:	24110000 	ldrcs	r0, [r1], #-0
    1a98:	7e00008d 	cdpvc	0, 0, cr0, cr0, cr13, {4}
    1a9c:	11000008 	tstne	r0, r8
    1aa0:	00008d70 	andeq	r8, r0, r0, ror sp
    1aa4:	0000087e 	andeq	r0, r0, lr, ror r8
    1aa8:	008d7c11 	addeq	r7, sp, r1, lsl ip
    1aac:	00084100 	andeq	r4, r8, r0, lsl #2
    1ab0:	8d881100 	stfhis	f1, [r8]
    1ab4:	08620000 	stmdaeq	r2!, {}^	; <UNPREDICTABLE>
    1ab8:	8c110000 	ldchi	0, cr0, [r1], {-0}
    1abc:	7e00008d 	cdpvc	0, 0, cr0, cr0, cr13, {4}
    1ac0:	00000008 	andeq	r0, r0, r8
    1ac4:	00064d15 	andeq	r4, r6, r5, lsl sp
    1ac8:	014b0100 	mrseq	r0, (UNDEF: 91)
    1acc:	00008d94 	muleq	r0, r4, sp
    1ad0:	00000084 	andeq	r0, r0, r4, lsl #1
    1ad4:	05959c01 	ldreq	r9, [r5, #3073]	; 0xc01
    1ad8:	70160000 	andsvc	r0, r6, r0
    1adc:	01006e69 	tsteq	r0, r9, ror #28
    1ae0:	002c014b 	eoreq	r0, ip, fp, asr #2
    1ae4:	163e0000 	ldrtne	r0, [lr], -r0
    1ae8:	e7170000 	ldr	r0, [r7, -r0]
    1aec:	01000004 	tsteq	r0, r4
    1af0:	002c015c 	eoreq	r0, ip, ip, asr r1
    1af4:	166a0000 	strbtne	r0, [sl], -r0
    1af8:	b0180000 	andslt	r0, r8, r0
    1afc:	1c00008d 	stcne	0, cr0, [r0], {141}	; 0x8d
    1b00:	37000000 	strcc	r0, [r0, -r0]
    1b04:	17000005 	strne	r0, [r0, -r5]
    1b08:	000005d0 	ldrdeq	r0, [r0], -r0	; <UNPREDICTABLE>
    1b0c:	2c015301 	stccs	3, cr5, [r1], {1}
    1b10:	88000000 	stmdahi	r0, {}	; <UNPREDICTABLE>
    1b14:	11000016 	tstne	r0, r6, lsl r0
    1b18:	00008dbc 			; <UNDEFINED> instruction: 0x00008dbc
    1b1c:	00000841 	andeq	r0, r0, r1, asr #16
    1b20:	008dcc11 	addeq	ip, sp, r1, lsl ip
    1b24:	00086200 	andeq	r6, r8, r0, lsl #4
    1b28:	d0180000 	andsle	r0, r8, r0
    1b2c:	2000008d 	andcs	r0, r0, sp, lsl #1
    1b30:	67000000 	strvs	r0, [r0, -r0]
    1b34:	17000005 	strne	r0, [r0, -r5]
    1b38:	000005d0 	ldrdeq	r0, [r0], -r0	; <UNPREDICTABLE>
    1b3c:	2c015701 	stccs	7, cr5, [r1], {1}
    1b40:	a6000000 	strge	r0, [r0], -r0
    1b44:	11000016 	tstne	r0, r6, lsl r0
    1b48:	00008ddc 	ldrdeq	r8, [r0], -ip
    1b4c:	00000841 	andeq	r0, r0, r1, asr #16
    1b50:	008df011 	addeq	pc, sp, r1, lsl r0	; <UNPREDICTABLE>
    1b54:	00086200 	andeq	r6, r8, r0, lsl #4
    1b58:	a8110000 	ldmdage	r1, {}	; <UNPREDICTABLE>
    1b5c:	7e00008d 	cdpvc	0, 0, cr0, cr0, cr13, {4}
    1b60:	11000008 	tstne	r0, r8
    1b64:	00008df4 	strdeq	r8, [r0], -r4
    1b68:	0000087e 	andeq	r0, r0, lr, ror r8
    1b6c:	008e0011 	addeq	r0, lr, r1, lsl r0
    1b70:	00084100 	andeq	r4, r8, r0, lsl #2
    1b74:	8e0c1100 	adfhie	f1, f4, f0
    1b78:	08620000 	stmdaeq	r2!, {}^	; <UNPREDICTABLE>
    1b7c:	10110000 	andsne	r0, r1, r0
    1b80:	7e00008e 	cdpvc	0, 0, cr0, cr0, cr14, {4}
    1b84:	00000008 	andeq	r0, r0, r8
    1b88:	00047f13 	andeq	r7, r4, r3, lsl pc
    1b8c:	01660100 	cmneq	r6, r0, lsl #2
    1b90:	00000064 	andeq	r0, r0, r4, rrx
    1b94:	00008e18 	andeq	r8, r0, r8, lsl lr
    1b98:	00000084 	andeq	r0, r0, r4, lsl #1
    1b9c:	063b9c01 	ldrteq	r9, [fp], -r1, lsl #24
    1ba0:	70160000 	andsvc	r0, r6, r0
    1ba4:	01006e69 	tsteq	r0, r9, ror #28
    1ba8:	002c0166 	eoreq	r0, ip, r6, ror #2
    1bac:	16c40000 	strbne	r0, [r4], r0
    1bb0:	34180000 	ldrcc	r0, [r8], #-0
    1bb4:	2400008e 	strcs	r0, [r0], #-142	; 0x8e
    1bb8:	ef000000 	svc	0x00000000
    1bbc:	17000005 	strne	r0, [r0, -r5]
    1bc0:	000004fe 	strdeq	r0, [r0], -lr
    1bc4:	2c016d01 	stccs	13, cr6, [r1], {1}
    1bc8:	06000000 	streq	r0, [r0], -r0
    1bcc:	11000017 	tstne	r0, r7, lsl r0
    1bd0:	00008e40 	andeq	r8, r0, r0, asr #28
    1bd4:	00000841 	andeq	r0, r0, r1, asr #16
    1bd8:	008e5011 	addeq	r5, lr, r1, lsl r0
    1bdc:	00087e00 	andeq	r7, r8, r0, lsl #28
    1be0:	58180000 	ldmdapl	r8, {}	; <UNPREDICTABLE>
    1be4:	2c00008e 	stccs	0, cr0, [r0], {142}	; 0x8e
    1be8:	28000000 	stmdacs	r0, {}	; <UNPREDICTABLE>
    1bec:	17000006 	strne	r0, [r0, -r6]
    1bf0:	000004fe 	strdeq	r0, [r0], -lr
    1bf4:	2c017001 	stccs	0, cr7, [r1], {1}
    1bf8:	20000000 	andcs	r0, r0, r0
    1bfc:	11000017 	tstne	r0, r7, lsl r0
    1c00:	00008e64 	andeq	r8, r0, r4, ror #28
    1c04:	00000841 	andeq	r0, r0, r1, asr #16
    1c08:	008e7011 	addeq	r7, lr, r1, lsl r0
    1c0c:	00087e00 	andeq	r7, r8, r0, lsl #28
    1c10:	8e7c1100 	rpwhie	f1, f4, f0
    1c14:	087e0000 	ldmdaeq	lr!, {}^	; <UNPREDICTABLE>
    1c18:	11000000 	mrsne	r0, (UNDEF: 0)
    1c1c:	00008e2c 	andeq	r8, r0, ip, lsr #28
    1c20:	0000087e 	andeq	r0, r0, lr, ror r8
    1c24:	008e8811 	addeq	r8, lr, r1, lsl r8
    1c28:	00087e00 	andeq	r7, r8, r0, lsl #28
    1c2c:	a3150000 	tstge	r5, #0
    1c30:	01000005 	tsteq	r0, r5
    1c34:	8e9c0179 	mrchi	1, 4, r0, cr12, cr9, {3}
    1c38:	00580000 	subseq	r0, r8, r0
    1c3c:	9c010000 	stcls	0, cr0, [r1], {-0}
    1c40:	000006a0 	andeq	r0, r0, r0, lsr #13
    1c44:	6e697016 	mcrvs	0, 3, r7, cr9, cr6, {0}
    1c48:	01790100 	cmneq	r9, r0, lsl #2
    1c4c:	0000002c 	andeq	r0, r0, ip, lsr #32
    1c50:	00001733 	andeq	r1, r0, r3, lsr r7
    1c54:	008eb011 	addeq	fp, lr, r1, lsl r0
    1c58:	00087e00 	andeq	r7, r8, r0, lsl #28
    1c5c:	8ecc0a00 	vdivhi.f32	s1, s24, s0
    1c60:	08620000 	stmdaeq	r2!, {}^	; <UNPREDICTABLE>
    1c64:	06800000 	streq	r0, [r0], r0
    1c68:	010b0000 	mrseq	r0, (UNDEF: 11)
    1c6c:	74310451 	ldrtvc	r0, [r1], #-1105	; 0x451
    1c70:	0a002400 	beq	ac78 <__bss_end__+0x14f0>
    1c74:	00008ee8 	andeq	r8, r0, r8, ror #29
    1c78:	00000862 	andeq	r0, r0, r2, ror #16
    1c7c:	00000696 	muleq	r0, r6, r6
    1c80:	0451010b 	ldrbeq	r0, [r1], #-267	; 0x10b
    1c84:	24007431 	strcs	r7, [r0], #-1073	; 0x431
    1c88:	8eec1100 	cdphi	1, 14, cr1, cr12, cr0, {0}
    1c8c:	087e0000 	ldmdaeq	lr!, {}^	; <UNPREDICTABLE>
    1c90:	19000000 	stmdbne	r0, {}	; <UNPREDICTABLE>
    1c94:	00000552 	andeq	r0, r0, r2, asr r5
    1c98:	01332801 	teqeq	r3, r1, lsl #16
    1c9c:	03050000 	movweq	r0, #20480	; 0x5000
    1ca0:	00009154 	andeq	r9, r0, r4, asr r1
    1ca4:	0005e319 	andeq	lr, r5, r9, lsl r3
    1ca8:	33290100 	teqcc	r9, #0, 2
    1cac:	05000001 	streq	r0, [r0, #-1]
    1cb0:	00915003 	addseq	r5, r1, r3
    1cb4:	06d41900 	ldrbeq	r1, [r4], r0, lsl #18
    1cb8:	2a010000 	bcs	41cc0 <__bss_end__+0x38538>
    1cbc:	00000133 	andeq	r0, r0, r3, lsr r1
    1cc0:	914c0305 	cmpls	ip, r5, lsl #6
    1cc4:	1e190000 	cdpne	0, 1, cr0, cr9, cr0, {0}
    1cc8:	01000005 	tsteq	r0, r5
    1ccc:	0001332c 	andeq	r3, r1, ip, lsr #6
    1cd0:	f8030500 			; <UNDEFINED> instruction: 0xf8030500
    1cd4:	19000090 	stmdbne	r0, {r4, r7}
    1cd8:	00000526 	andeq	r0, r0, r6, lsr #10
    1cdc:	01332d01 	teqeq	r3, r1, lsl #26
    1ce0:	03050000 	movweq	r0, #20480	; 0x5000
    1ce4:	000090fc 	strdeq	r9, [r0], -ip
    1ce8:	00049319 	andeq	r9, r4, r9, lsl r3
    1cec:	332e0100 	teqcc	lr, #0, 2
    1cf0:	05000001 	streq	r0, [r0, #-1]
    1cf4:	00910003 	addseq	r0, r1, r3
    1cf8:	052e1900 	streq	r1, [lr, #-2304]!	; 0x900
    1cfc:	2f010000 	svccs	0x00010000
    1d00:	00000133 	andeq	r0, r0, r3, lsr r1
    1d04:	91040305 	tstls	r4, r5, lsl #6
    1d08:	36190000 	ldrcc	r0, [r9], -r0
    1d0c:	01000005 	tsteq	r0, r5
    1d10:	00013330 	andeq	r3, r1, r0, lsr r3
    1d14:	08030500 	stmdaeq	r3, {r8, sl}
    1d18:	19000091 	stmdbne	r0, {r0, r4, r7}
    1d1c:	0000053e 	andeq	r0, r0, lr, lsr r5
    1d20:	01333101 	teqeq	r3, r1, lsl #2
    1d24:	03050000 	movweq	r0, #20480	; 0x5000
    1d28:	0000910c 	andeq	r9, r0, ip, lsl #2
    1d2c:	0004f019 	andeq	pc, r4, r9, lsl r0	; <UNPREDICTABLE>
    1d30:	33330100 	teqcc	r3, #0, 2
    1d34:	05000001 	streq	r0, [r0, #-1]
    1d38:	00911003 	addseq	r1, r1, r3
    1d3c:	04f71900 	ldrbteq	r1, [r7], #2304	; 0x900
    1d40:	34010000 	strcc	r0, [r1], #-0
    1d44:	00000133 	andeq	r0, r0, r3, lsr r1
    1d48:	91140305 	tstls	r4, r5, lsl #6
    1d4c:	9b190000 	blls	641d54 <__bss_end__+0x6385cc>
    1d50:	01000004 	tsteq	r0, r4
    1d54:	00013336 	andeq	r3, r1, r6, lsr r3
    1d58:	18030500 	stmdane	r3, {r8, sl}
    1d5c:	19000091 	stmdbne	r0, {r0, r4, r7}
    1d60:	0000055d 	andeq	r0, r0, sp, asr r5
    1d64:	01333701 	teqeq	r3, r1, lsl #14
    1d68:	03050000 	movweq	r0, #20480	; 0x5000
    1d6c:	0000911c 	andeq	r9, r0, ip, lsl r1
    1d70:	00050719 	andeq	r0, r5, r9, lsl r7
    1d74:	33390100 	teqcc	r9, #0, 2
    1d78:	05000001 	streq	r0, [r0, #-1]
    1d7c:	00912003 	addseq	r2, r1, r3
    1d80:	050e1900 	streq	r1, [lr, #-2304]	; 0x900
    1d84:	3a010000 	bcc	41d8c <__bss_end__+0x38604>
    1d88:	00000133 	andeq	r0, r0, r3, lsr r1
    1d8c:	91240305 	teqls	r4, r5, lsl #6
    1d90:	b41a0000 	ldrlt	r0, [sl], #-0
    1d94:	01000005 	tsteq	r0, r5
    1d98:	0133010a 	teqeq	r3, sl, lsl #2
    1d9c:	03050000 	movweq	r0, #20480	; 0x5000
    1da0:	00009148 	andeq	r9, r0, r8, asr #2
    1da4:	0005c21a 	andeq	ip, r5, sl, lsl r2
    1da8:	010b0100 	mrseq	r0, (UNDEF: 27)
    1dac:	00000133 	andeq	r0, r0, r3, lsr r1
    1db0:	91280305 	teqls	r8, r5, lsl #6
    1db4:	fe1a0000 	cdp2	0, 1, cr0, cr10, cr0, {0}
    1db8:	01000005 	tsteq	r0, r5
    1dbc:	0133010d 	teqeq	r3, sp, lsl #2
    1dc0:	03050000 	movweq	r0, #20480	; 0x5000
    1dc4:	00009140 	andeq	r9, r0, r0, asr #2
    1dc8:	0006051a 	andeq	r0, r6, sl, lsl r5
    1dcc:	010e0100 	mrseq	r0, (UNDEF: 30)
    1dd0:	00000133 	andeq	r0, r0, r3, lsr r1
    1dd4:	91440305 	cmpls	r4, r5, lsl #6
    1dd8:	951a0000 	ldrls	r0, [sl, #-0]
    1ddc:	01000005 	tsteq	r0, r5
    1de0:	01330110 	teqeq	r3, r0, lsl r1
    1de4:	03050000 	movweq	r0, #20480	; 0x5000
    1de8:	0000912c 	andeq	r9, r0, ip, lsr #2
    1dec:	00059c1a 	andeq	r9, r5, sl, lsl ip
    1df0:	01110100 	tsteq	r1, r0, lsl #2
    1df4:	00000133 	andeq	r0, r0, r3, lsr r1
    1df8:	91300305 	teqls	r0, r5, lsl #6
    1dfc:	181a0000 	ldmdane	sl, {}	; <UNPREDICTABLE>
    1e00:	01000006 	tsteq	r0, r6
    1e04:	01330113 	teqeq	r3, r3, lsl r1
    1e08:	03050000 	movweq	r0, #20480	; 0x5000
    1e0c:	00009138 	andeq	r9, r0, r8, lsr r1
    1e10:	00061f1a 	andeq	r1, r6, sl, lsl pc
    1e14:	01140100 	tsteq	r4, r0, lsl #2
    1e18:	00000133 	andeq	r0, r0, r3, lsr r1
    1e1c:	913c0305 	teqls	ip, r5, lsl #6
    1e20:	a21a0000 	andsge	r0, sl, #0
    1e24:	01000004 	tsteq	r0, r4
    1e28:	01330116 	teqeq	r3, r6, lsl r1
    1e2c:	03050000 	movweq	r0, #20480	; 0x5000
    1e30:	00009134 	andeq	r9, r0, r4, lsr r1
    1e34:	0006471b 	andeq	r4, r6, fp, lsl r7
    1e38:	2c200100 	stfcss	f0, [r0], #-0
    1e3c:	56000000 	strpl	r0, [r0], -r0
    1e40:	1c000008 	stcne	0, cr0, [r0], {8}
    1e44:	00000856 	andeq	r0, r0, r6, asr r8
    1e48:	5c040d00 	stcpl	13, cr0, [r4], {-0}
    1e4c:	1d000008 	stcne	0, cr0, [r0, #-32]	; 0xffffffe0
    1e50:	00000861 	andeq	r0, r0, r1, ror #16
    1e54:	01a01f1e 	lsleq	r1, lr, pc
    1e58:	1e010000 	cdpne	0, 0, cr0, cr1, cr0, {0}
    1e5c:	00000878 	andeq	r0, r0, r8, ror r8
    1e60:	0008781c 	andeq	r7, r8, ip, lsl r8
    1e64:	002c1c00 	eoreq	r1, ip, r0, lsl #24
    1e68:	0d000000 	stceq	0, cr0, [r0, #-0]
    1e6c:	00086104 	andeq	r6, r8, r4, lsl #2
    1e70:	05462000 	strbeq	r2, [r6, #-0]
    1e74:	8a030000 	bhi	c1e7c <__bss_end__+0xb86f4>
    1e78:	0003ff00 	andeq	pc, r3, r0, lsl #30
    1e7c:	93000400 	movwls	r0, #1024	; 0x400
    1e80:	0400000a 	streq	r0, [r0], #-10
    1e84:	0001e701 	andeq	lr, r1, r1, lsl #14
    1e88:	07b90100 	ldreq	r0, [r9, r0, lsl #2]!
    1e8c:	02520000 	subseq	r0, r2, #0
    1e90:	8ef40000 	cdphi	0, 15, cr0, cr4, cr0, {0}
    1e94:	01540000 	cmpeq	r4, r0
    1e98:	09480000 	stmdbeq	r8, {}^	; <UNPREDICTABLE>
    1e9c:	04020000 	streq	r0, [r2], #-0
    1ea0:	746e6905 	strbtvc	r6, [lr], #-2309	; 0x905
    1ea4:	07040300 	streq	r0, [r4, -r0, lsl #6]
    1ea8:	0000003c 	andeq	r0, r0, ip, lsr r0
    1eac:	4b060103 	blmi	1822c0 <__bss_end__+0x178b38>
    1eb0:	03000000 	movweq	r0, #0
    1eb4:	00f80502 	rscseq	r0, r8, r2, lsl #10
    1eb8:	04030000 	streq	r0, [r3], #-0
    1ebc:	00000505 	andeq	r0, r0, r5, lsl #10
    1ec0:	05080300 	streq	r0, [r8, #-768]	; 0x300
    1ec4:	00000000 	andeq	r0, r0, r0
    1ec8:	49080103 	stmdbmi	r8, {r0, r1, r8}
    1ecc:	03000000 	movweq	r0, #0
    1ed0:	00e50702 	rsceq	r0, r5, r2, lsl #14
    1ed4:	04030000 	streq	r0, [r3], #-0
    1ed8:	00003707 	andeq	r3, r0, r7, lsl #14
    1edc:	07080300 	streq	r0, [r8, -r0, lsl #6]
    1ee0:	00000032 	andeq	r0, r0, r2, lsr r0
    1ee4:	6d070403 	cfstrsvs	mvf0, [r7, #-12]
    1ee8:	03000001 	movweq	r0, #1
    1eec:	00520801 	subseq	r0, r2, r1, lsl #16
    1ef0:	01040000 	mrseq	r0, (UNDEF: 4)
    1ef4:	00b20c02 	adcseq	r0, r2, r2, lsl #24
    1ef8:	bc050000 	stclt	0, cr0, [r5], {-0}
    1efc:	00000004 	andeq	r0, r0, r4
    1f00:	00063605 	andeq	r3, r6, r5, lsl #12
    1f04:	6f050100 	svcvs	0x00050100
    1f08:	04000006 	streq	r0, [r0], #-6
    1f0c:	00067e05 	andeq	r7, r6, r5, lsl #28
    1f10:	8d050500 	cfstr32hi	mvfx0, [r5, #-0]
    1f14:	06000006 	streq	r0, [r0], -r6
    1f18:	00069c05 	andeq	r9, r6, r5, lsl #24
    1f1c:	ab050700 	blge	143b24 <__bss_end__+0x13a39c>
    1f20:	03000006 	movweq	r0, #6
    1f24:	0006ba05 	andeq	fp, r6, r5, lsl #20
    1f28:	06000200 	streq	r0, [r0], -r0, lsl #4
    1f2c:	00000663 	andeq	r0, r0, r3, ror #12
    1f30:	00791502 	rsbseq	r1, r9, r2, lsl #10
    1f34:	57070000 	strpl	r0, [r7, -r0]
    1f38:	01000000 	mrseq	r0, (UNDEF: 0)
    1f3c:	008ef437 	addeq	pc, lr, r7, lsr r4	; <UNPREDICTABLE>
    1f40:	00009c00 	andeq	r9, r0, r0, lsl #24
    1f44:	c39c0100 	orrsgt	r0, ip, #0, 2
    1f48:	08000001 	stmdaeq	r0, {r0}
    1f4c:	00008efc 	strdeq	r8, [r0], -ip
    1f50:	000003a8 	andeq	r0, r0, r8, lsr #7
    1f54:	008f0809 	addeq	r0, pc, r9, lsl #16
    1f58:	0003af00 	andeq	sl, r3, r0, lsl #30
    1f5c:	0000f300 	andeq	pc, r0, r0, lsl #6
    1f60:	51010a00 	tstpl	r1, r0, lsl #20
    1f64:	010a3201 	tsteq	sl, r1, lsl #4
    1f68:	003e0150 	eorseq	r0, lr, r0, asr r1
    1f6c:	008f1409 	addeq	r1, pc, r9, lsl #8
    1f70:	0003af00 	andeq	sl, r3, r0, lsl #30
    1f74:	00010b00 	andeq	r0, r1, r0, lsl #22
    1f78:	51010a00 	tstpl	r1, r0, lsl #20
    1f7c:	010a3201 	tsteq	sl, r1, lsl #4
    1f80:	003f0150 	eorseq	r0, pc, r0, asr r1	; <UNPREDICTABLE>
    1f84:	008f1808 	addeq	r1, pc, r8, lsl #16
    1f88:	0003a800 	andeq	sl, r3, r0, lsl #16
    1f8c:	8f280900 	svchi	0x00280900
    1f90:	03c50000 	biceq	r0, r5, #0
    1f94:	01280000 	teqeq	r8, r0
    1f98:	010a0000 	mrseq	r0, (UNDEF: 10)
    1f9c:	00750250 	rsbseq	r0, r5, r0, asr r2
    1fa0:	8f340900 	svchi	0x00340900
    1fa4:	03e60000 	mvneq	r0, #0
    1fa8:	013c0000 	teqeq	ip, r0
    1fac:	010a0000 	mrseq	r0, (UNDEF: 10)
    1fb0:	00750250 	rsbseq	r0, r5, r0, asr r2
    1fb4:	8f380800 	svchi	0x00380800
    1fb8:	03a80000 			; <UNDEFINED> instruction: 0x03a80000
    1fbc:	44090000 	strmi	r0, [r9], #-0
    1fc0:	e600008f 	str	r0, [r0], -pc, lsl #1
    1fc4:	58000003 	stmdapl	r0, {r0, r1}
    1fc8:	0a000001 	beq	1fd4 <_start-0x602c>
    1fcc:	30015101 	andcc	r5, r1, r1, lsl #2
    1fd0:	8f500900 	svchi	0x00500900
    1fd4:	03e60000 	mvneq	r0, #0
    1fd8:	016b0000 	cmneq	fp, r0
    1fdc:	010a0000 	mrseq	r0, (UNDEF: 10)
    1fe0:	00300151 	eorseq	r0, r0, r1, asr r1
    1fe4:	008f5c09 	addeq	r5, pc, r9, lsl #24
    1fe8:	0003e600 	andeq	lr, r3, r0, lsl #12
    1fec:	00017e00 	andeq	r7, r1, r0, lsl #28
    1ff0:	51010a00 	tstpl	r1, r0, lsl #20
    1ff4:	09003601 	stmdbeq	r0, {r0, r9, sl, ip, sp}
    1ff8:	00008f68 	andeq	r8, r0, r8, ror #30
    1ffc:	000003e6 	andeq	r0, r0, r6, ror #7
    2000:	00000191 	muleq	r0, r1, r1
    2004:	0151010a 	cmpeq	r1, sl, lsl #2
    2008:	74090033 	strvc	r0, [r9], #-51	; 0x33
    200c:	e600008f 	str	r0, [r0], -pc, lsl #1
    2010:	a6000003 	strge	r0, [r0], -r3
    2014:	0a000001 	beq	2020 <_start-0x5fe0>
    2018:	0a035101 	beq	d6424 <__bss_end__+0xccc9c>
    201c:	0900010e 	stmdbeq	r0, {r1, r2, r3, r8}
    2020:	00008f80 	andeq	r8, r0, r0, lsl #31
    2024:	000003e6 	andeq	r0, r0, r6, ror #7
    2028:	000001b9 			; <UNDEFINED> instruction: 0x000001b9
    202c:	0151010a 	cmpeq	r1, sl, lsl #2
    2030:	84080033 	strhi	r0, [r8], #-51	; 0x33
    2034:	a800008f 	stmdage	r0, {r0, r1, r2, r3, r7}
    2038:	00000003 	andeq	r0, r0, r3
    203c:	00070a0b 	andeq	r0, r7, fp, lsl #20
    2040:	25570100 	ldrbcs	r0, [r7, #-256]	; 0x100
    2044:	90000000 	andls	r0, r0, r0
    2048:	1c00008f 	stcne	0, cr0, [r0], {143}	; 0x8f
    204c:	01000000 	mrseq	r0, (UNDEF: 0)
    2050:	0001e69c 	muleq	r1, ip, r6
    2054:	8fa00800 	svchi	0x00a00800
    2058:	03c50000 	biceq	r0, r5, #0
    205c:	0b000000 	bleq	2064 <_start-0x5f9c>
    2060:	00000745 	andeq	r0, r0, r5, asr #14
    2064:	00255d01 	eoreq	r5, r5, r1, lsl #26
    2068:	8fac0000 	svchi	0x00ac0000
    206c:	00280000 	eoreq	r0, r8, r0
    2070:	9c010000 	stcls	0, cr0, [r1], {-0}
    2074:	00000212 	andeq	r0, r0, r2, lsl r2
    2078:	008fb408 	addeq	fp, pc, r8, lsl #8
    207c:	0001c300 	andeq	ip, r1, r0, lsl #6
    2080:	8fc80800 	svchi	0x00c80800
    2084:	03c50000 	biceq	r0, r5, #0
    2088:	0b000000 	bleq	2090 <_start-0x5f70>
    208c:	0000075e 	andeq	r0, r0, lr, asr r7
    2090:	00256401 	eoreq	r6, r5, r1, lsl #8
    2094:	8fd40000 	svchi	0x00d40000
    2098:	001c0000 	andseq	r0, ip, r0
    209c:	9c010000 	stcls	0, cr0, [r1], {-0}
    20a0:	00000235 	andeq	r0, r0, r5, lsr r2
    20a4:	008fe408 	addeq	lr, pc, r8, lsl #8
    20a8:	0003c500 	andeq	ip, r3, r0, lsl #10
    20ac:	af070000 	svcge	0x00070000
    20b0:	01000007 	tsteq	r0, r7
    20b4:	008ff06a 	addeq	pc, pc, sl, rrx
    20b8:	00002c00 	andeq	r2, r0, r0, lsl #24
    20bc:	719c0100 	orrsvc	r0, ip, r0, lsl #2
    20c0:	0c000002 	stceq	0, cr0, [r0], {2}
    20c4:	6a010063 	bvs	42258 <__bss_end__+0x38ad0>
    20c8:	0000002c 	andeq	r0, r0, ip, lsr #32
    20cc:	0000175f 	andeq	r1, r0, pc, asr r7
    20d0:	008ffc08 	addeq	pc, pc, r8, lsl #24
    20d4:	00021200 	andeq	r1, r2, r0, lsl #4
    20d8:	90140d00 	andsls	r0, r4, r0, lsl #26
    20dc:	03e60000 	mvneq	r0, #0
    20e0:	010a0000 	mrseq	r0, (UNDEF: 10)
    20e4:	00740251 	rsbseq	r0, r4, r1, asr r2
    20e8:	280b0000 	stmdacs	fp, {}	; <UNPREDICTABLE>
    20ec:	01000007 	tsteq	r0, r7
    20f0:	00002574 	andeq	r2, r0, r4, ror r5
    20f4:	00901c00 	addseq	r1, r0, r0, lsl #24
    20f8:	00000c00 	andeq	r0, r0, r0, lsl #24
    20fc:	949c0100 	ldrls	r0, [ip], #256	; 0x100
    2100:	08000002 	stmdaeq	r0, {r1}
    2104:	00009024 	andeq	r9, r0, r4, lsr #32
    2108:	000001c3 	andeq	r0, r0, r3, asr #3
    210c:	07e50b00 	strbeq	r0, [r5, r0, lsl #22]!
    2110:	78010000 	stmdavc	r1, {}	; <UNPREDICTABLE>
    2114:	00000025 	andeq	r0, r0, r5, lsr #32
    2118:	00009028 	andeq	r9, r0, r8, lsr #32
    211c:	00000020 	andeq	r0, r0, r0, lsr #32
    2120:	02c09c01 	sbceq	r9, r0, #256	; 0x100
    2124:	30080000 	andcc	r0, r8, r0
    2128:	71000090 	swpvc	r0, r0, [r0]	; <UNPREDICTABLE>
    212c:	08000002 	stmdaeq	r0, {r1}
    2130:	0000903c 	andeq	r9, r0, ip, lsr r0
    2134:	000001e6 	andeq	r0, r0, r6, ror #3
    2138:	07780e00 	ldrbeq	r0, [r8, -r0, lsl #28]!
    213c:	16010000 	strne	r0, [r1], -r0
    2140:	000002d1 	ldrdeq	r0, [r0], -r1
    2144:	91880305 	orrls	r0, r8, r5, lsl #6
    2148:	040f0000 	streq	r0, [pc], #-0	; 2150 <_start-0x5eb0>
    214c:	000002d7 	ldrdeq	r0, [r0], -r7
    2150:	00002c10 	andeq	r2, r0, r0, lsl ip
    2154:	076c0e00 	strbeq	r0, [ip, -r0, lsl #28]!
    2158:	17010000 	strne	r0, [r1, -r0]
    215c:	000002d1 	ldrdeq	r0, [r0], -r1
    2160:	91580305 	cmpls	r8, r5, lsl #6
    2164:	ed0e0000 	stc	0, cr0, [lr, #-0]
    2168:	01000006 	tsteq	r0, r6
    216c:	0002d11a 	andeq	sp, r2, sl, lsl r1
    2170:	74030500 	strvc	r0, [r3], #-1280	; 0x500
    2174:	0e000091 	mcreq	0, 0, r0, cr0, cr1, {4}
    2178:	00000736 	andeq	r0, r0, r6, lsr r7
    217c:	02d11b01 	sbcseq	r1, r1, #1024	; 0x400
    2180:	03050000 	movweq	r0, #20480	; 0x5000
    2184:	00009160 	andeq	r9, r0, r0, ror #2
    2188:	00074f0e 	andeq	r4, r7, lr, lsl #30
    218c:	d11c0100 	tstle	ip, r0, lsl #2
    2190:	05000002 	streq	r0, [r0, #-2]
    2194:	00916403 	addseq	r6, r1, r3, lsl #8
    2198:	07c70e00 	strbeq	r0, [r7, r0, lsl #28]
    219c:	1d010000 	stcne	0, cr0, [r1, #-0]
    21a0:	000002d1 	ldrdeq	r0, [r0], -r1
    21a4:	91680305 	cmnls	r8, r5, lsl #6
    21a8:	de0e0000 	cdple	0, 0, cr0, cr14, cr0, {0}
    21ac:	01000006 	tsteq	r0, r6
    21b0:	0002d11e 	andeq	sp, r2, lr, lsl r1
    21b4:	84030500 	strhi	r0, [r3], #-1280	; 0x500
    21b8:	0e000091 	mcreq	0, 0, r0, cr0, cr1, {4}
    21bc:	000007d6 	ldrdeq	r0, [r0], -r6
    21c0:	02d11f01 	sbcseq	r1, r1, #1, 30
    21c4:	03050000 	movweq	r0, #20480	; 0x5000
    21c8:	00009170 	andeq	r9, r0, r0, ror r1
    21cc:	0006fb0e 	andeq	pc, r6, lr, lsl #22
    21d0:	d1200100 	teqle	r0, r0, lsl #2
    21d4:	05000002 	streq	r0, [r0, #-2]
    21d8:	00918003 	addseq	r8, r1, r3
    21dc:	07a00e00 	streq	r0, [r0, r0, lsl #28]!
    21e0:	21010000 	mrscs	r0, (UNDEF: 1)
    21e4:	000002d1 	ldrdeq	r0, [r0], -r1
    21e8:	917c0305 	cmnls	ip, r5, lsl #6
    21ec:	180e0000 	stmdane	lr, {}	; <UNPREDICTABLE>
    21f0:	01000007 	tsteq	r0, r7
    21f4:	0002d122 	andeq	sp, r2, r2, lsr #2
    21f8:	5c030500 	cfstr32pl	mvfx0, [r3], {-0}
    21fc:	0e000091 	mcreq	0, 0, r0, cr0, cr1, {4}
    2200:	00000790 	muleq	r0, r0, r7
    2204:	02d12301 	sbcseq	r2, r1, #67108864	; 0x4000000
    2208:	03050000 	movweq	r0, #20480	; 0x5000
    220c:	00009178 	andeq	r9, r0, r8, ror r1
    2210:	0007800e 	andeq	r8, r7, lr
    2214:	d1240100 	teqle	r4, r0, lsl #2
    2218:	05000002 	streq	r0, [r0, #-2]
    221c:	00916c03 	addseq	r6, r1, r3, lsl #24
    2220:	05461100 	strbeq	r1, [r6, #-256]	; 0x100
    2224:	8a030000 	bhi	c222c <__bss_end__+0xb8aa4>
    2228:	00058312 	andeq	r8, r5, r2, lsl r3
    222c:	c5190200 	ldrgt	r0, [r9, #-512]	; 0x200
    2230:	13000003 	movwne	r0, #3
    2234:	0000002c 	andeq	r0, r0, ip, lsr #32
    2238:	0000b213 	andeq	fp, r0, r3, lsl r2
    223c:	47140000 	ldrmi	r0, [r4, -r0]
    2240:	03000006 	movweq	r0, #6
    2244:	00002ca9 	andeq	r2, r0, r9, lsr #25
    2248:	0003da00 	andeq	sp, r3, r0, lsl #20
    224c:	03da1300 	bicseq	r1, sl, #0, 6
    2250:	0f000000 	svceq	0x00000000
    2254:	0003e004 	andeq	lr, r3, r4
    2258:	03e51500 	mvneq	r1, #0, 10
    225c:	12160000 	andsne	r0, r6, #0
    2260:	000001a0 	andeq	r0, r0, r0, lsr #3
    2264:	03fc9d03 	mvnseq	r9, #3, 26	; 0xc0
    2268:	fc130000 	ldc2	0, cr0, [r3], {-0}
    226c:	13000003 	movwne	r0, #3
    2270:	0000002c 	andeq	r0, r0, ip, lsr #32
    2274:	e5040f00 	str	r0, [r4, #-3840]	; 0xf00
    2278:	00000003 	andeq	r0, r0, r3
    227c:	00000113 	andeq	r0, r0, r3, lsl r1
    2280:	0bc10004 	bleq	ff042298 <__bss_end__+0xff038b10>
    2284:	01040000 	mrseq	r0, (UNDEF: 4)
    2288:	000001e7 	andeq	r0, r0, r7, ror #3
    228c:	00080601 	andeq	r0, r8, r1, lsl #12
    2290:	00025200 	andeq	r5, r2, r0, lsl #4
    2294:	0090ac00 	addseq	sl, r0, r0, lsl #24
    2298:	00003c00 	andeq	r3, r0, r0, lsl #24
    229c:	000a4d00 	andeq	r4, sl, r0, lsl #26
    22a0:	05040200 	streq	r0, [r4, #-512]	; 0x200
    22a4:	00746e69 	rsbseq	r6, r4, r9, ror #28
    22a8:	3c070403 	cfstrscc	mvf0, [r7], {3}
    22ac:	03000000 	movweq	r0, #0
    22b0:	004b0601 	subeq	r0, fp, r1, lsl #12
    22b4:	02030000 	andeq	r0, r3, #0
    22b8:	0000f805 	andeq	pc, r0, r5, lsl #16
    22bc:	05040300 	streq	r0, [r4, #-768]	; 0x300
    22c0:	00000005 	andeq	r0, r0, r5
    22c4:	00050803 	andeq	r0, r5, r3, lsl #16
    22c8:	03000000 	movweq	r0, #0
    22cc:	00490801 	subeq	r0, r9, r1, lsl #16
    22d0:	02030000 	andeq	r0, r3, #0
    22d4:	0000e507 	andeq	lr, r0, r7, lsl #10
    22d8:	07040300 	streq	r0, [r4, -r0, lsl #6]
    22dc:	00000037 	andeq	r0, r0, r7, lsr r0
    22e0:	32070803 	andcc	r0, r7, #196608	; 0x30000
    22e4:	03000000 	movweq	r0, #0
    22e8:	016d0704 	cmneq	sp, r4, lsl #14
    22ec:	01030000 	mrseq	r0, (UNDEF: 3)
    22f0:	00005208 	andeq	r5, r0, r8, lsl #4
    22f4:	07f50400 	ldrbeq	r0, [r5, r0, lsl #8]!
    22f8:	03010000 	movweq	r0, #4096	; 0x1000
    22fc:	00000025 	andeq	r0, r0, r5, lsr #32
    2300:	000090ac 	andeq	r9, r0, ip, lsr #1
    2304:	00000014 	andeq	r0, r0, r4, lsl r0
    2308:	00b09c01 	adcseq	r9, r0, r1, lsl #24
    230c:	63050000 	movwvs	r0, #20480	; 0x5000
    2310:	25030100 	strcs	r0, [r3, #-256]	; 0x100
    2314:	7d000000 	stcvc	0, cr0, [r0, #-0]
    2318:	06000017 			; <UNDEFINED> instruction: 0x06000017
    231c:	000090b8 	strheq	r9, [r0], -r8
    2320:	00000109 	andeq	r0, r0, r9, lsl #2
    2324:	02500107 	subseq	r0, r0, #-1073741823	; 0xc0000001
    2328:	00000074 	andeq	r0, r0, r4, ror r0
    232c:	00032d08 	andeq	r2, r3, r8, lsl #26
    2330:	c0080100 	andgt	r0, r8, r0, lsl #2
    2334:	18000090 	stmdane	r0, {r4, r7}
    2338:	01000000 	mrseq	r0, (UNDEF: 0)
    233c:	0815099c 	ldmdaeq	r5, {r2, r3, r4, r7, r8, fp}
    2340:	0b010000 	bleq	42348 <__bss_end__+0x38bc0>
    2344:	000090d8 	ldrdeq	r9, [r0], -r8
    2348:	00000010 	andeq	r0, r0, r0, lsl r0
    234c:	00e39c01 	rsceq	r9, r3, r1, lsl #24
    2350:	660a0000 	strvs	r0, [sl], -r0
    2354:	0b010070 	bleq	4251c <__bss_end__+0x38d94>
    2358:	000000f2 	strdeq	r0, [r0], -r2
    235c:	0b005001 	bleq	16368 <__bss_end__+0xcbe0>
    2360:	00000025 	andeq	r0, r0, r5, lsr #32
    2364:	000000f2 	strdeq	r0, [r0], -r2
    2368:	0000250c 	andeq	r2, r0, ip, lsl #10
    236c:	040d0000 	streq	r0, [sp], #-0
    2370:	000000e3 	andeq	r0, r0, r3, ror #1
    2374:	0002ba0e 	andeq	fp, r2, lr, lsl #20
    2378:	f2060100 	vrhadd.s8	d0, d6, d0
    237c:	05000000 	streq	r0, [r0, #-0]
    2380:	00918c03 	addseq	r8, r1, r3, lsl #24
    2384:	07af0f00 	streq	r0, [pc, r0, lsl #30]!
    2388:	3c020000 	stccc	0, cr0, [r2], {-0}
    238c:	00002c0c 	andeq	r2, r0, ip, lsl #24
    2390:	Address 0x0000000000002390 is out of bounds.


Disassembly of section .debug_abbrev:

00000000 <.debug_abbrev>:
   0:	25011101 	strcs	r1, [r1, #-257]	; 0x101
   4:	030b130e 	movweq	r1, #45838	; 0xb30e
   8:	110e1b0e 	tstne	lr, lr, lsl #22
   c:	10061201 	andne	r1, r6, r1, lsl #4
  10:	02000017 	andeq	r0, r0, #23
  14:	0b0b0024 	bleq	2c00ac <__bss_end__+0x2b6924>
  18:	08030b3e 	stmdaeq	r3, {r1, r2, r3, r4, r5, r8, r9, fp}
  1c:	24030000 	strcs	r0, [r3], #-0
  20:	3e0b0b00 	vmlacc.f64	d0, d11, d0
  24:	000e030b 	andeq	r0, lr, fp, lsl #6
  28:	000f0400 	andeq	r0, pc, r0, lsl #8
  2c:	13490b0b 	movtne	r0, #39691	; 0x9b0b
  30:	26050000 	strcs	r0, [r5], -r0
  34:	00134900 	andseq	r4, r3, r0, lsl #18
  38:	012e0600 	teqeq	lr, r0, lsl #12
  3c:	0e03193f 	mcreq	9, 0, r1, cr3, cr15, {1}
  40:	0b3b0b3a 	bleq	ec2d30 <__bss_end__+0xeb95a8>
  44:	01111927 	tsteq	r1, r7, lsr #18
  48:	18400612 	stmdane	r0, {r1, r4, r9, sl}^
  4c:	01194297 			; <UNDEFINED> instruction: 0x01194297
  50:	07000013 	smladeq	r0, r3, r0, r0
  54:	08030034 	stmdaeq	r3, {r2, r4, r5}
  58:	0b3b0b3a 	bleq	ec2d48 <__bss_end__+0xeb95c0>
  5c:	0b1c1349 	bleq	704d88 <__bss_end__+0x6fb600>
  60:	34080000 	strcc	r0, [r8], #-0
  64:	3a0e0300 	bcc	380c6c <__bss_end__+0x3774e4>
  68:	490b3b0b 	stmdbmi	fp, {r0, r1, r3, r8, r9, fp, ip, sp}
  6c:	000b1c13 	andeq	r1, fp, r3, lsl ip
  70:	010b0900 	tsteq	fp, r0, lsl #18
  74:	06120111 			; <UNDEFINED> instruction: 0x06120111
  78:	00001301 	andeq	r1, r0, r1, lsl #6
  7c:	0182890a 	orreq	r8, r2, sl, lsl #18
  80:	31011100 	mrscc	r1, (UNDEF: 17)
  84:	0b000013 	bleq	d8 <_start-0x7f28>
  88:	01018289 	smlabbeq	r1, r9, r2, r8
  8c:	13310111 	teqne	r1, #1073741828	; 0x40000004
  90:	00001301 	andeq	r1, r0, r1, lsl #6
  94:	01828a0c 	orreq	r8, r2, ip, lsl #20
  98:	91180200 	tstls	r8, r0, lsl #4
  9c:	00001842 	andeq	r1, r0, r2, asr #16
  a0:	3f002e0d 	svccc	0x00002e0d
  a4:	3a0e0319 	bcc	380d10 <__bss_end__+0x377588>
  a8:	270b3b0b 	strcs	r3, [fp, -fp, lsl #22]
  ac:	00193c19 	andseq	r3, r9, r9, lsl ip
  b0:	012e0e00 	teqeq	lr, r0, lsl #28
  b4:	0e03193f 	mcreq	9, 0, r1, cr3, cr15, {1}
  b8:	0b3b0b3a 	bleq	ec2da8 <__bss_end__+0xeb9620>
  bc:	193c1927 	ldmdbne	ip!, {r0, r1, r2, r5, r8, fp, ip}
  c0:	00001301 	andeq	r1, r0, r1, lsl #6
  c4:	4900050f 	stmdbmi	r0, {r0, r1, r2, r3, r8, sl}
  c8:	10000013 	andne	r0, r0, r3, lsl r0
  cc:	193f012e 	ldmdbne	pc!, {r1, r2, r3, r5, r8}	; <UNPREDICTABLE>
  d0:	0b3a0e03 	bleq	e838e4 <__bss_end__+0xe7a15c>
  d4:	19270b3b 	stmdbne	r7!, {r0, r1, r3, r4, r5, r8, r9, fp}
  d8:	193c1349 	ldmdbne	ip!, {r0, r3, r6, r8, r9, ip}
  dc:	00001301 	andeq	r1, r0, r1, lsl #6
  e0:	00001811 	andeq	r1, r0, r1, lsl r8
  e4:	11010000 	mrsne	r0, (UNDEF: 1)
  e8:	130e2501 	movwne	r2, #58625	; 0xe501
  ec:	1b0e030b 	blne	380d20 <__bss_end__+0x377598>
  f0:	1201110e 	andne	r1, r1, #-2147483645	; 0x80000003
  f4:	00171006 	andseq	r1, r7, r6
  f8:	00240200 	eoreq	r0, r4, r0, lsl #4
  fc:	0b3e0b0b 	bleq	f82d30 <__bss_end__+0xf795a8>
 100:	00000803 	andeq	r0, r0, r3, lsl #16
 104:	0b002403 	bleq	9118 <GPCLR0>
 108:	030b3e0b 	movweq	r3, #48651	; 0xbe0b
 10c:	0400000e 	streq	r0, [r0], #-14
 110:	193f012e 	ldmdbne	pc!, {r1, r2, r3, r5, r8}	; <UNPREDICTABLE>
 114:	0b3a0e03 	bleq	e83928 <__bss_end__+0xe7a1a0>
 118:	19270b3b 	stmdbne	r7!, {r0, r1, r3, r4, r5, r8, r9, fp}
 11c:	06120111 			; <UNDEFINED> instruction: 0x06120111
 120:	42971840 	addsmi	r1, r7, #64, 16	; 0x400000
 124:	00130119 	andseq	r0, r3, r9, lsl r1
 128:	00050500 	andeq	r0, r5, r0, lsl #10
 12c:	0b3a0803 	bleq	e82140 <__bss_end__+0xe789b8>
 130:	13490b3b 	movtne	r0, #39739	; 0x9b3b
 134:	00001702 	andeq	r1, r0, r2, lsl #14
 138:	03003406 	movweq	r3, #1030	; 0x406
 13c:	3b0b3a08 	blcc	2ce964 <__bss_end__+0x2c51dc>
 140:	1c13490b 	ldcne	9, cr4, [r3], {11}
 144:	0700000b 	streq	r0, [r0, -fp]
 148:	0e030034 	mcreq	0, 0, r0, cr3, cr4, {1}
 14c:	0b3b0b3a 	bleq	ec2e3c <__bss_end__+0xeb96b4>
 150:	17021349 	strne	r1, [r2, -r9, asr #6]
 154:	34080000 	strcc	r0, [r8], #-0
 158:	3a0e0300 	bcc	380d60 <__bss_end__+0x3775d8>
 15c:	490b3b0b 	stmdbmi	fp, {r0, r1, r3, r8, r9, fp, ip, sp}
 160:	00180213 	andseq	r0, r8, r3, lsl r2
 164:	010b0900 	tsteq	fp, r0, lsl #18
 168:	06120111 			; <UNDEFINED> instruction: 0x06120111
 16c:	00001301 	andeq	r1, r0, r1, lsl #6
 170:	0182890a 	orreq	r8, r2, sl, lsl #18
 174:	31011101 	tstcc	r1, r1, lsl #2
 178:	00130113 	andseq	r0, r3, r3, lsl r1
 17c:	828a0b00 	addhi	r0, sl, #0, 22
 180:	18020001 	stmdane	r2, {r0}
 184:	00184291 	mulseq	r8, r1, r2
 188:	82890c00 	addhi	r0, r9, #0, 24
 18c:	01110101 	tsteq	r1, r1, lsl #2
 190:	00001331 	andeq	r1, r0, r1, lsr r3
 194:	0b000f0d 	bleq	3dd0 <_start-0x4230>
 198:	0013490b 	andseq	r4, r3, fp, lsl #18
 19c:	00350e00 	eorseq	r0, r5, r0, lsl #28
 1a0:	00001349 	andeq	r1, r0, r9, asr #6
 1a4:	0300340f 	movweq	r3, #1039	; 0x40f
 1a8:	3b0b3a0e 	blcc	2ce9e8 <__bss_end__+0x2c5260>
 1ac:	1c13490b 	ldcne	9, cr4, [r3], {11}
 1b0:	1000000b 	andne	r0, r0, fp
 1b4:	0e030034 	mcreq	0, 0, r0, cr3, cr4, {1}
 1b8:	0b3b0b3a 	bleq	ec2ea8 <__bss_end__+0xeb9720>
 1bc:	193f1349 	ldmdbne	pc!, {r0, r3, r6, r8, r9, ip}	; <UNPREDICTABLE>
 1c0:	00001802 	andeq	r1, r0, r2, lsl #16
 1c4:	3f012e11 	svccc	0x00012e11
 1c8:	3a0e0319 	bcc	380e34 <__bss_end__+0x3776ac>
 1cc:	270b3b0b 	strcs	r3, [fp, -fp, lsl #22]
 1d0:	01193c19 	tsteq	r9, r9, lsl ip
 1d4:	12000013 	andne	r0, r0, #19
 1d8:	13490005 	movtne	r0, #36869	; 0x9005
 1dc:	35130000 	ldrcc	r0, [r3, #-0]
 1e0:	00000000 	andeq	r0, r0, r0
 1e4:	25011101 	strcs	r1, [r1, #-257]	; 0x101
 1e8:	030b130e 	movweq	r1, #45838	; 0xb30e
 1ec:	110e1b0e 	tstne	lr, lr, lsl #22
 1f0:	10061201 	andne	r1, r6, r1, lsl #4
 1f4:	02000017 	andeq	r0, r0, #23
 1f8:	0e030016 	mcreq	0, 0, r0, cr3, cr6, {0}
 1fc:	0b3b0b3a 	bleq	ec2eec <__bss_end__+0xeb9764>
 200:	00001349 	andeq	r1, r0, r9, asr #6
 204:	03011303 	movweq	r1, #4867	; 0x1303
 208:	3a0b0b0e 	bcc	2c2e48 <__bss_end__+0x2b96c0>
 20c:	010b3b0b 	tsteq	fp, fp, lsl #22
 210:	04000013 	streq	r0, [r0], #-19
 214:	0e03000d 	cdpeq	0, 0, cr0, cr3, cr13, {0}
 218:	0b381349 	bleq	e04f44 <__bss_end__+0xdfb7bc>
 21c:	00001934 	andeq	r1, r0, r4, lsr r9
 220:	0b000f05 	bleq	3e3c <_start-0x41c4>
 224:	0600000b 	streq	r0, [r0], -fp
 228:	0b0b0024 	bleq	2c02c0 <__bss_end__+0x2b6b38>
 22c:	08030b3e 	stmdaeq	r3, {r1, r2, r3, r4, r5, r8, r9, fp}
 230:	24070000 	strcs	r0, [r7], #-0
 234:	3e0b0b00 	vmlacc.f64	d0, d11, d0
 238:	000e030b 	andeq	r0, lr, fp, lsl #6
 23c:	000f0800 	andeq	r0, pc, r0, lsl #16
 240:	13490b0b 	movtne	r0, #39691	; 0x9b0b
 244:	26090000 	strcs	r0, [r9], -r0
 248:	00134900 	andseq	r4, r3, r0, lsl #18
 24c:	012e0a00 	teqeq	lr, r0, lsl #20
 250:	0e03193f 	mcreq	9, 0, r1, cr3, cr15, {1}
 254:	0b3b0b3a 	bleq	ec2f44 <__bss_end__+0xeb97bc>
 258:	13491927 	movtne	r1, #39207	; 0x9927
 25c:	06120111 			; <UNDEFINED> instruction: 0x06120111
 260:	42971840 	addsmi	r1, r7, #64, 16	; 0x400000
 264:	00130119 	andseq	r0, r3, r9, lsl r1
 268:	00050b00 	andeq	r0, r5, r0, lsl #22
 26c:	0b3a0803 	bleq	e82280 <__bss_end__+0xe78af8>
 270:	13490b3b 	movtne	r0, #39739	; 0x9b3b
 274:	00001802 	andeq	r1, r0, r2, lsl #16
 278:	0000180c 	andeq	r1, r0, ip, lsl #16
 27c:	00340d00 	eorseq	r0, r4, r0, lsl #26
 280:	0b3a0803 	bleq	e82294 <__bss_end__+0xe78b0c>
 284:	13490b3b 	movtne	r0, #39739	; 0x9b3b
 288:	00001802 	andeq	r1, r0, r2, lsl #16
 28c:	0300340e 	movweq	r3, #1038	; 0x40e
 290:	3b0b3a0e 	blcc	2cead0 <__bss_end__+0x2c5348>
 294:	0213490b 	andseq	r4, r3, #180224	; 0x2c000
 298:	0f000018 	svceq	0x00000018
 29c:	08030034 	stmdaeq	r3, {r2, r4, r5}
 2a0:	0b3b0b3a 	bleq	ec2f90 <__bss_end__+0xeb9808>
 2a4:	17021349 	strne	r1, [r2, -r9, asr #6]
 2a8:	89100000 	ldmdbhi	r0, {}	; <UNPREDICTABLE>
 2ac:	11010182 	smlabbne	r1, r2, r1, r0
 2b0:	01133101 	tsteq	r3, r1, lsl #2
 2b4:	11000013 	tstne	r0, r3, lsl r0
 2b8:	0001828a 	andeq	r8, r1, sl, lsl #5
 2bc:	42911802 	addsmi	r1, r1, #131072	; 0x20000
 2c0:	12000018 	andne	r0, r0, #24
 2c4:	01018289 	smlabbeq	r1, r9, r2, r8
 2c8:	00000111 	andeq	r0, r0, r1, lsl r1
 2cc:	49010113 	stmdbmi	r1, {r0, r1, r4, r8}
 2d0:	00130113 	andseq	r0, r3, r3, lsl r1
 2d4:	00211400 	eoreq	r1, r1, r0, lsl #8
 2d8:	052f1349 	streq	r1, [pc, #-841]!	; ffffff97 <__bss_end__+0xffff680f>
 2dc:	15150000 	ldrne	r0, [r5, #-0]
 2e0:	49192701 	ldmdbmi	r9, {r0, r8, r9, sl, sp}
 2e4:	00130113 	andseq	r0, r3, r3, lsl r1
 2e8:	00051600 	andeq	r1, r5, r0, lsl #12
 2ec:	00001349 	andeq	r1, r0, r9, asr #6
 2f0:	03003417 	movweq	r3, #1047	; 0x417
 2f4:	3b0b3a0e 	blcc	2ceb34 <__bss_end__+0x2c53ac>
 2f8:	3f13490b 	svccc	0x0013490b
 2fc:	00193c19 	andseq	r3, r9, r9, lsl ip
 300:	012e1800 	teqeq	lr, r0, lsl #16
 304:	0e03193f 	mcreq	9, 0, r1, cr3, cr15, {1}
 308:	0b3b0b3a 	bleq	ec2ff8 <__bss_end__+0xeb9870>
 30c:	13491927 	movtne	r1, #39207	; 0x9927
 310:	0000193c 	andeq	r1, r0, ip, lsr r9
 314:	01110100 	tsteq	r1, r0, lsl #2
 318:	0b130e25 	bleq	4c3bb4 <__bss_end__+0x4ba42c>
 31c:	0e1b0e03 	cdpeq	14, 1, cr0, cr11, cr3, {0}
 320:	06120111 			; <UNDEFINED> instruction: 0x06120111
 324:	00001710 	andeq	r1, r0, r0, lsl r7
 328:	0b002402 	bleq	9338 <__FUNCTION__.4293+0xa8>
 32c:	030b3e0b 	movweq	r3, #48651	; 0xbe0b
 330:	03000008 	movweq	r0, #8
 334:	0b0b0024 	bleq	2c03cc <__bss_end__+0x2b6c44>
 338:	0e030b3e 	vmoveq.16	d3[0], r0
 33c:	0f040000 	svceq	0x00040000
 340:	490b0b00 	stmdbmi	fp, {r8, r9, fp}
 344:	05000013 	streq	r0, [r0, #-19]
 348:	13490026 	movtne	r0, #36902	; 0x9026
 34c:	2e060000 	cdpcs	0, 0, cr0, cr6, cr0, {0}
 350:	03193f01 	tsteq	r9, #1, 30
 354:	3b0b3a0e 	blcc	2ceb94 <__bss_end__+0x2c540c>
 358:	4919270b 	ldmdbmi	r9, {r0, r1, r3, r8, r9, sl, sp}
 35c:	12011113 	andne	r1, r1, #-1073741820	; 0xc0000004
 360:	96184006 	ldrls	r4, [r8], -r6
 364:	13011942 	movwne	r1, #6466	; 0x1942
 368:	05070000 	streq	r0, [r7, #-0]
 36c:	3a080300 	bcc	200f74 <__bss_end__+0x1f77ec>
 370:	490b3b0b 	stmdbmi	fp, {r0, r1, r3, r8, r9, fp, ip, sp}
 374:	00170213 	andseq	r0, r7, r3, lsl r2
 378:	01150800 	tsteq	r5, r0, lsl #16
 37c:	13491927 	movtne	r1, #39207	; 0x9927
 380:	00001301 	andeq	r1, r0, r1, lsl #6
 384:	49000509 	stmdbmi	r0, {r0, r3, r8, sl}
 388:	0a000013 	beq	3dc <_start-0x7c24>
 38c:	0e030034 	mcreq	0, 0, r0, cr3, cr4, {1}
 390:	0b3b0b3a 	bleq	ec3080 <__bss_end__+0xeb98f8>
 394:	193f1349 	ldmdbne	pc!, {r0, r3, r6, r8, r9, ip}	; <UNPREDICTABLE>
 398:	0000193c 	andeq	r1, r0, ip, lsr r9
 39c:	0300340b 	movweq	r3, #1035	; 0x40b
 3a0:	3b0b3a0e 	blcc	2cebe0 <__bss_end__+0x2c5458>
 3a4:	3f13490b 	svccc	0x0013490b
 3a8:	00180219 	andseq	r0, r8, r9, lsl r2
 3ac:	11010000 	mrsne	r0, (UNDEF: 1)
 3b0:	130e2501 	movwne	r2, #58625	; 0xe501
 3b4:	1b0e030b 	blne	380fe8 <__bss_end__+0x377860>
 3b8:	1201110e 	andne	r1, r1, #-2147483645	; 0x80000003
 3bc:	00171006 	andseq	r1, r7, r6
 3c0:	00240200 	eoreq	r0, r4, r0, lsl #4
 3c4:	0b3e0b0b 	bleq	f82ff8 <__bss_end__+0xf79870>
 3c8:	00000803 	andeq	r0, r0, r3, lsl #16
 3cc:	0b002403 	bleq	93e0 <__bss_start__+0x58>
 3d0:	030b3e0b 	movweq	r3, #48651	; 0xbe0b
 3d4:	0400000e 	streq	r0, [r0], #-14
 3d8:	0b0b000f 	bleq	2c041c <__bss_end__+0x2b6c94>
 3dc:	0f050000 	svceq	0x00050000
 3e0:	490b0b00 	stmdbmi	fp, {r8, r9, fp}
 3e4:	06000013 			; <UNDEFINED> instruction: 0x06000013
 3e8:	13490026 	movtne	r0, #36902	; 0x9026
 3ec:	16070000 	strne	r0, [r7], -r0
 3f0:	3a0e0300 	bcc	380ff8 <__bss_end__+0x377870>
 3f4:	490b3b0b 	stmdbmi	fp, {r0, r1, r3, r8, r9, fp, ip, sp}
 3f8:	08000013 	stmdaeq	r0, {r0, r1, r4}
 3fc:	0e030113 	mcreq	1, 0, r0, cr3, cr3, {0}
 400:	0b3a0b0b 	bleq	e83034 <__bss_end__+0xe798ac>
 404:	13010b3b 	movwne	r0, #6971	; 0x1b3b
 408:	0d090000 	stceq	0, cr0, [r9, #-0]
 40c:	490e0300 	stmdbmi	lr, {r8, r9}
 410:	340b3813 	strcc	r3, [fp], #-2067	; 0x813
 414:	0a000019 	beq	480 <_start-0x7b80>
 418:	0e03012e 	adfeqsp	f0, f3, #0.5
 41c:	0b3b0b3a 	bleq	ec310c <__bss_end__+0xeb9984>
 420:	13491927 	movtne	r1, #39207	; 0x9927
 424:	06120111 			; <UNDEFINED> instruction: 0x06120111
 428:	42971840 	addsmi	r1, r7, #64, 16	; 0x400000
 42c:	00130119 	andseq	r0, r3, r9, lsl r1
 430:	00050b00 	andeq	r0, r5, r0, lsl #22
 434:	0b3a0803 	bleq	e82448 <__bss_end__+0xe78cc0>
 438:	13490b3b 	movtne	r0, #39739	; 0x9b3b
 43c:	00001702 	andeq	r1, r0, r2, lsl #14
 440:	03012e0c 	movweq	r2, #7692	; 0x1e0c
 444:	3b0b3a08 	blcc	2cec6c <__bss_end__+0x2c54e4>
 448:	4919270b 	ldmdbmi	r9, {r0, r1, r3, r8, r9, sl, sp}
 44c:	12011113 	andne	r1, r1, #-1073741820	; 0xc0000004
 450:	97184006 	ldrls	r4, [r8, -r6]
 454:	13011942 	movwne	r1, #6466	; 0x1942
 458:	050d0000 	streq	r0, [sp, #-0]
 45c:	3a0e0300 	bcc	381064 <__bss_end__+0x3778dc>
 460:	490b3b0b 	stmdbmi	fp, {r0, r1, r3, r8, r9, fp, ip, sp}
 464:	00170213 	andseq	r0, r7, r3, lsl r2
 468:	00050e00 	andeq	r0, r5, r0, lsl #28
 46c:	0b3a0e03 	bleq	e83c80 <__bss_end__+0xe7a4f8>
 470:	13490b3b 	movtne	r0, #39739	; 0x9b3b
 474:	00001802 	andeq	r1, r0, r2, lsl #16
 478:	0300340f 	movweq	r3, #1039	; 0x40f
 47c:	3b0b3a08 	blcc	2ceca4 <__bss_end__+0x2c551c>
 480:	0213490b 	andseq	r4, r3, #180224	; 0x2c000
 484:	10000018 	andne	r0, r0, r8, lsl r0
 488:	08030034 	stmdaeq	r3, {r2, r4, r5}
 48c:	0b3b0b3a 	bleq	ec317c <__bss_end__+0xeb99f4>
 490:	17021349 	strne	r1, [r2, -r9, asr #6]
 494:	34110000 	ldrcc	r0, [r1], #-0
 498:	490e0300 	stmdbmi	lr, {r8, r9}
 49c:	02193413 	andseq	r3, r9, #318767104	; 0x13000000
 4a0:	12000018 	andne	r0, r0, #24
 4a4:	0111010b 	tsteq	r1, fp, lsl #2
 4a8:	13010612 	movwne	r0, #5650	; 0x1612
 4ac:	34130000 	ldrcc	r0, [r3], #-0
 4b0:	3a0e0300 	bcc	3810b8 <__bss_end__+0x377930>
 4b4:	490b3b0b 	stmdbmi	fp, {r0, r1, r3, r8, r9, fp, ip, sp}
 4b8:	00170213 	andseq	r0, r7, r3, lsl r2
 4bc:	82891400 	addhi	r1, r9, #0, 8
 4c0:	01110001 	tsteq	r1, r1
 4c4:	00001331 	andeq	r1, r0, r1, lsr r3
 4c8:	01828915 	orreq	r8, r2, r5, lsl r9
 4cc:	31011101 	tstcc	r1, r1, lsl #2
 4d0:	00130113 	andseq	r0, r3, r3, lsl r1
 4d4:	828a1600 	addhi	r1, sl, #0, 12
 4d8:	18020001 	stmdane	r2, {r0}
 4dc:	00184291 	mulseq	r8, r1, r2
 4e0:	82891700 	addhi	r1, r9, #0, 14
 4e4:	01110101 	tsteq	r1, r1, lsl #2
 4e8:	00001331 	andeq	r1, r0, r1, lsr r3
 4ec:	49010118 	stmdbmi	r1, {r3, r4, r8}
 4f0:	00130113 	andseq	r0, r3, r3, lsl r1
 4f4:	00211900 	eoreq	r1, r1, r0, lsl #18
 4f8:	0b2f1349 	bleq	bc5224 <__bss_end__+0xbbba9c>
 4fc:	2e1a0000 	cdpcs	0, 1, cr0, cr10, cr0, {0}
 500:	03193f01 	tsteq	r9, #1, 30
 504:	3b0b3a0e 	blcc	2ced44 <__bss_end__+0x2c55bc>
 508:	1119270b 	tstne	r9, fp, lsl #14
 50c:	40061201 	andmi	r1, r6, r1, lsl #4
 510:	19429718 	stmdbne	r2, {r3, r4, r8, r9, sl, ip, pc}^
 514:	00001301 	andeq	r1, r0, r1, lsl #6
 518:	2701151b 	smladcs	r1, fp, r5, r1
 51c:	01134919 	tsteq	r3, r9, lsl r9
 520:	1c000013 	stcne	0, cr0, [r0], {19}
 524:	13490005 	movtne	r0, #36869	; 0x9005
 528:	2e1d0000 	cdpcs	0, 1, cr0, cr13, cr0, {0}
 52c:	03193f01 	tsteq	r9, #1, 30
 530:	3b0b3a0e 	blcc	2ced70 <__bss_end__+0x2c55e8>
 534:	4919270b 	ldmdbmi	r9, {r0, r1, r3, r8, r9, sl, sp}
 538:	12011113 	andne	r1, r1, #-1073741820	; 0xc0000004
 53c:	97184006 	ldrls	r4, [r8, -r6]
 540:	13011942 	movwne	r1, #6466	; 0x1942
 544:	0b1e0000 	bleq	78054c <__bss_end__+0x776dc4>
 548:	00175501 	andseq	r5, r7, r1, lsl #10
 54c:	00341f00 	eorseq	r1, r4, r0, lsl #30
 550:	0b3a0e03 	bleq	e83d64 <__bss_end__+0xe7a5dc>
 554:	13490b3b 	movtne	r0, #39739	; 0x9b3b
 558:	193c193f 	ldmdbne	ip!, {r0, r1, r2, r3, r4, r5, r8, fp, ip}
 55c:	2e200000 	cdpcs	0, 2, cr0, cr0, cr0, {0}
 560:	03193f00 	tsteq	r9, #0, 30
 564:	3b0b3a0e 	blcc	2ceda4 <__bss_end__+0x2c561c>
 568:	3c19270b 	ldccc	7, cr2, [r9], {11}
 56c:	21000019 	tstcs	r0, r9, lsl r0
 570:	193f012e 	ldmdbne	pc!, {r1, r2, r3, r5, r8}	; <UNPREDICTABLE>
 574:	0b3a0e03 	bleq	e83d88 <__bss_end__+0xe7a600>
 578:	19270b3b 	stmdbne	r7!, {r0, r1, r3, r4, r5, r8, r9, fp}
 57c:	193c1349 	ldmdbne	ip!, {r0, r3, r6, r8, r9, ip}
 580:	00001301 	andeq	r1, r0, r1, lsl #6
 584:	00001822 	andeq	r1, r0, r2, lsr #16
 588:	11010000 	mrsne	r0, (UNDEF: 1)
 58c:	130e2501 	movwne	r2, #58625	; 0xe501
 590:	1b0e030b 	blne	3811c4 <__bss_end__+0x377a3c>
 594:	1201110e 	andne	r1, r1, #-2147483645	; 0x80000003
 598:	00171006 	andseq	r1, r7, r6
 59c:	00240200 	eoreq	r0, r4, r0, lsl #4
 5a0:	0b3e0b0b 	bleq	f831d4 <__bss_end__+0xf79a4c>
 5a4:	00000803 	andeq	r0, r0, r3, lsl #16
 5a8:	0b002403 	bleq	95bc <__bss_start__+0x234>
 5ac:	030b3e0b 	movweq	r3, #48651	; 0xbe0b
 5b0:	0400000e 	streq	r0, [r0], #-14
 5b4:	0b0b000f 	bleq	2c05f8 <__bss_end__+0x2b6e70>
 5b8:	00001349 	andeq	r1, r0, r9, asr #6
 5bc:	49002605 	stmdbmi	r0, {r0, r2, r9, sl, sp}
 5c0:	06000013 			; <UNDEFINED> instruction: 0x06000013
 5c4:	193f012e 	ldmdbne	pc!, {r1, r2, r3, r5, r8}	; <UNPREDICTABLE>
 5c8:	0b3a0e03 	bleq	e83ddc <__bss_end__+0xe7a654>
 5cc:	19270b3b 	stmdbne	r7!, {r0, r1, r3, r4, r5, r8, r9, fp}
 5d0:	06120111 			; <UNDEFINED> instruction: 0x06120111
 5d4:	42971840 	addsmi	r1, r7, #64, 16	; 0x400000
 5d8:	00130119 	andseq	r0, r3, r9, lsl r1
 5dc:	82890700 	addhi	r0, r9, #0, 14
 5e0:	01110101 	tsteq	r1, r1, lsl #2
 5e4:	00001301 	andeq	r1, r0, r1, lsl #6
 5e8:	01828a08 	orreq	r8, r2, r8, lsl #20
 5ec:	91180200 	tstls	r8, r0, lsl #4
 5f0:	00001842 	andeq	r1, r0, r2, asr #16
 5f4:	01828909 	orreq	r8, r2, r9, lsl #18
 5f8:	31011101 	tstcc	r1, r1, lsl #2
 5fc:	00130113 	andseq	r0, r3, r3, lsl r1
 600:	82890a00 	addhi	r0, r9, #0, 20
 604:	01110001 	tsteq	r1, r1
 608:	00001331 	andeq	r1, r0, r1, lsr r3
 60c:	2701150b 	strcs	r1, [r1, -fp, lsl #10]
 610:	01134919 	tsteq	r3, r9, lsl r9
 614:	0c000013 	stceq	0, cr0, [r0], {19}
 618:	13490005 	movtne	r0, #36869	; 0x9005
 61c:	340d0000 	strcc	r0, [sp], #-0
 620:	3a0e0300 	bcc	381228 <__bss_end__+0x377aa0>
 624:	490b3b0b 	stmdbmi	fp, {r0, r1, r3, r8, r9, fp, ip, sp}
 628:	3c193f13 	ldccc	15, cr3, [r9], {19}
 62c:	0e000019 	mcreq	0, 0, r0, cr0, cr9, {0}
 630:	193f012e 	ldmdbne	pc!, {r1, r2, r3, r5, r8}	; <UNPREDICTABLE>
 634:	0b3a0e03 	bleq	e83e48 <__bss_end__+0xe7a6c0>
 638:	19270b3b 	stmdbne	r7!, {r0, r1, r3, r4, r5, r8, r9, fp}
 63c:	1301193c 	movwne	r1, #6460	; 0x193c
 640:	2e0f0000 	cdpcs	0, 0, cr0, cr15, cr0, {0}
 644:	03193f00 	tsteq	r9, #0, 30
 648:	3b0b3a0e 	blcc	2cee88 <__bss_end__+0x2c5700>
 64c:	3c19270b 	ldccc	7, cr2, [r9], {11}
 650:	00000019 	andeq	r0, r0, r9, lsl r0
 654:	25011101 	strcs	r1, [r1, #-257]	; 0x101
 658:	030b130e 	movweq	r1, #45838	; 0xb30e
 65c:	110e1b0e 	tstne	lr, lr, lsl #22
 660:	10061201 	andne	r1, r6, r1, lsl #4
 664:	02000017 	andeq	r0, r0, #23
 668:	0b0b0024 	bleq	2c0700 <__bss_end__+0x2b6f78>
 66c:	08030b3e 	stmdaeq	r3, {r1, r2, r3, r4, r5, r8, r9, fp}
 670:	24030000 	strcs	r0, [r3], #-0
 674:	3e0b0b00 	vmlacc.f64	d0, d11, d0
 678:	000e030b 	andeq	r0, lr, fp, lsl #6
 67c:	012e0400 	teqeq	lr, r0, lsl #8
 680:	0e03193f 	mcreq	9, 0, r1, cr3, cr15, {1}
 684:	0b3b0b3a 	bleq	ec3374 <__bss_end__+0xeb9bec>
 688:	06120111 			; <UNDEFINED> instruction: 0x06120111
 68c:	42971840 	addsmi	r1, r7, #64, 16	; 0x400000
 690:	00130119 	andseq	r0, r3, r9, lsl r1
 694:	00340500 	eorseq	r0, r4, r0, lsl #10
 698:	0b3a0e03 	bleq	e83eac <__bss_end__+0xe7a724>
 69c:	13490b3b 	movtne	r0, #39739	; 0x9b3b
 6a0:	193c193f 	ldmdbne	ip!, {r0, r1, r2, r3, r4, r5, r8, fp, ip}
 6a4:	2e060000 	cdpcs	0, 0, cr0, cr6, cr0, {0}
 6a8:	03193f00 	tsteq	r9, #0, 30
 6ac:	3b0b3a0e 	blcc	2ceeec <__bss_end__+0x2c5764>
 6b0:	3c19270b 	ldccc	7, cr2, [r9], {11}
 6b4:	07000019 	smladeq	r0, r9, r0, r0
 6b8:	08030034 	stmdaeq	r3, {r2, r4, r5}
 6bc:	0b3b0b3a 	bleq	ec33ac <__bss_end__+0xeb9c24>
 6c0:	17021349 	strne	r1, [r2, -r9, asr #6]
 6c4:	34080000 	strcc	r0, [r8], #-0
 6c8:	3a0e0300 	bcc	3812d0 <__bss_end__+0x377b48>
 6cc:	490b3b0b 	stmdbmi	fp, {r0, r1, r3, r8, r9, fp, ip, sp}
 6d0:	09000013 	stmdbeq	r0, {r0, r1, r4}
 6d4:	00018289 	andeq	r8, r1, r9, lsl #5
 6d8:	13310111 	teqne	r1, #1073741828	; 0x40000004
 6dc:	0f0a0000 	svceq	0x000a0000
 6e0:	490b0b00 	stmdbmi	fp, {r8, r9, fp}
 6e4:	00000013 	andeq	r0, r0, r3, lsl r0
 6e8:	25011101 	strcs	r1, [r1, #-257]	; 0x101
 6ec:	030b130e 	movweq	r1, #45838	; 0xb30e
 6f0:	550e1b0e 	strpl	r1, [lr, #-2830]	; 0xb0e
 6f4:	10011117 	andne	r1, r1, r7, lsl r1
 6f8:	02000017 	andeq	r0, r0, #23
 6fc:	0b0b0024 	bleq	2c0794 <__bss_end__+0x2b700c>
 700:	08030b3e 	stmdaeq	r3, {r1, r2, r3, r4, r5, r8, r9, fp}
 704:	24030000 	strcs	r0, [r3], #-0
 708:	3e0b0b00 	vmlacc.f64	d0, d11, d0
 70c:	000e030b 	andeq	r0, lr, fp, lsl #6
 710:	012e0400 	teqeq	lr, r0, lsl #8
 714:	0e03193f 	mcreq	9, 0, r1, cr3, cr15, {1}
 718:	0b3b0b3a 	bleq	ec3408 <__bss_end__+0xeb9c80>
 71c:	13491927 	movtne	r1, #39207	; 0x9927
 720:	06120111 			; <UNDEFINED> instruction: 0x06120111
 724:	42971840 	addsmi	r1, r7, #64, 16	; 0x400000
 728:	00130119 	andseq	r0, r3, r9, lsl r1
 72c:	00340500 	eorseq	r0, r4, r0, lsl #10
 730:	0b3a0e03 	bleq	e83f44 <__bss_end__+0xe7a7bc>
 734:	13490b3b 	movtne	r0, #39739	; 0x9b3b
 738:	00001702 	andeq	r1, r0, r2, lsl #14
 73c:	3f012e06 	svccc	0x00012e06
 740:	3a0e0319 	bcc	3813ac <__bss_end__+0x377c24>
 744:	270b3b0b 	strcs	r3, [fp, -fp, lsl #22]
 748:	12011119 	andne	r1, r1, #1073741830	; 0x40000006
 74c:	97184006 	ldrls	r4, [r8, -r6]
 750:	13011942 	movwne	r1, #6466	; 0x1942
 754:	34070000 	strcc	r0, [r7], #-0
 758:	3a0e0300 	bcc	381360 <__bss_end__+0x377bd8>
 75c:	490b3b0b 	stmdbmi	fp, {r0, r1, r3, r8, r9, fp, ip, sp}
 760:	00061c13 	andeq	r1, r6, r3, lsl ip
 764:	00340800 	eorseq	r0, r4, r0, lsl #16
 768:	0b3a0e03 	bleq	e83f7c <__bss_end__+0xe7a7f4>
 76c:	13490b3b 	movtne	r0, #39739	; 0x9b3b
 770:	00000b1c 	andeq	r0, r0, ip, lsl fp
 774:	01828909 	orreq	r8, r2, r9, lsl #18
 778:	31011100 	mrscc	r1, (UNDEF: 17)
 77c:	0a000013 	beq	7d0 <_start-0x7830>
 780:	01018289 	smlabbeq	r1, r9, r2, r8
 784:	13310111 	teqne	r1, #1073741828	; 0x40000004
 788:	00001301 	andeq	r1, r0, r1, lsl #6
 78c:	01828a0b 	orreq	r8, r2, fp, lsl #20
 790:	91180200 	tstls	r8, r0, lsl #4
 794:	00001842 	andeq	r1, r0, r2, asr #16
 798:	0182890c 	orreq	r8, r2, ip, lsl #18
 79c:	31011101 	tstcc	r1, r1, lsl #2
 7a0:	0d000013 	stceq	0, cr0, [r0, #-76]	; 0xffffffb4
 7a4:	13490026 	movtne	r0, #36902	; 0x9026
 7a8:	2e0e0000 	cdpcs	0, 0, cr0, cr14, cr0, {0}
 7ac:	03193f01 	tsteq	r9, #1, 30
 7b0:	3b0b3a0e 	blcc	2ceff0 <__bss_end__+0x2c5868>
 7b4:	3c19270b 	ldccc	7, cr2, [r9], {11}
 7b8:	00130119 	andseq	r0, r3, r9, lsl r1
 7bc:	00050f00 	andeq	r0, r5, r0, lsl #30
 7c0:	00001349 	andeq	r1, r0, r9, asr #6
 7c4:	3f012e10 	svccc	0x00012e10
 7c8:	3a0e0319 	bcc	381434 <__bss_end__+0x377cac>
 7cc:	270b3b0b 	strcs	r3, [fp, -fp, lsl #22]
 7d0:	00193c19 	andseq	r3, r9, r9, lsl ip
 7d4:	11010000 	mrsne	r0, (UNDEF: 1)
 7d8:	130e2501 	movwne	r2, #58625	; 0xe501
 7dc:	1b0e030b 	blne	381410 <__bss_end__+0x377c88>
 7e0:	1201110e 	andne	r1, r1, #-2147483645	; 0x80000003
 7e4:	00171006 	andseq	r1, r7, r6
 7e8:	00240200 	eoreq	r0, r4, r0, lsl #4
 7ec:	0b3e0b0b 	bleq	f83420 <__bss_end__+0xf79c98>
 7f0:	00000803 	andeq	r0, r0, r3, lsl #16
 7f4:	0b002403 	bleq	9808 <__bss_end__+0x80>
 7f8:	030b3e0b 	movweq	r3, #48651	; 0xbe0b
 7fc:	0400000e 	streq	r0, [r0], #-14
 800:	193f012e 	ldmdbne	pc!, {r1, r2, r3, r5, r8}	; <UNPREDICTABLE>
 804:	0b3a0e03 	bleq	e84018 <__bss_end__+0xe7a890>
 808:	19270b3b 	stmdbne	r7!, {r0, r1, r3, r4, r5, r8, r9, fp}
 80c:	06120111 			; <UNDEFINED> instruction: 0x06120111
 810:	42971840 	addsmi	r1, r7, #64, 16	; 0x400000
 814:	00130119 	andseq	r0, r3, r9, lsl r1
 818:	00050500 	andeq	r0, r5, r0, lsl #10
 81c:	0b3a0e03 	bleq	e84030 <__bss_end__+0xe7a8a8>
 820:	13490b3b 	movtne	r0, #39739	; 0x9b3b
 824:	00001702 	andeq	r1, r0, r2, lsl #14
 828:	3f012e06 	svccc	0x00012e06
 82c:	3a0e0319 	bcc	381498 <__bss_end__+0x377d10>
 830:	270b3b0b 	strcs	r3, [fp, -fp, lsl #22]
 834:	11134919 	tstne	r3, r9, lsl r9
 838:	40061201 	andmi	r1, r6, r1, lsl #4
 83c:	19429718 	stmdbne	r2, {r3, r4, r8, r9, sl, ip, pc}^
 840:	00001301 	andeq	r1, r0, r1, lsl #6
 844:	01828907 	orreq	r8, r2, r7, lsl #18
 848:	31011101 	tstcc	r1, r1, lsl #2
 84c:	08000013 	stmdaeq	r0, {r0, r1, r4}
 850:	0001828a 	andeq	r8, r1, sl, lsl #5
 854:	42911802 	addsmi	r1, r1, #131072	; 0x20000
 858:	09000018 	stmdbeq	r0, {r3, r4}
 85c:	08030034 	stmdaeq	r3, {r2, r4, r5}
 860:	0b3b0b3a 	bleq	ec3550 <__bss_end__+0xeb9dc8>
 864:	18021349 	stmdane	r2, {r0, r3, r6, r8, r9, ip}
 868:	890a0000 	stmdbhi	sl, {}	; <UNPREDICTABLE>
 86c:	11000182 	smlabbne	r0, r2, r1, r0
 870:	00133101 	andseq	r3, r3, r1, lsl #2
 874:	00050b00 	andeq	r0, r5, r0, lsl #22
 878:	0b3a0803 	bleq	e8288c <__bss_end__+0xe79104>
 87c:	13490b3b 	movtne	r0, #39739	; 0x9b3b
 880:	00001702 	andeq	r1, r0, r2, lsl #14
 884:	11010b0c 	tstne	r1, ip, lsl #22
 888:	01061201 	tsteq	r6, r1, lsl #4
 88c:	0d000013 	stceq	0, cr0, [r0, #-76]	; 0xffffffb4
 890:	08030034 	stmdaeq	r3, {r2, r4, r5}
 894:	0b3b0b3a 	bleq	ec3584 <__bss_end__+0xeb9dfc>
 898:	17021349 	strne	r1, [r2, -r9, asr #6]
 89c:	2e0e0000 	cdpcs	0, 0, cr0, cr14, cr0, {0}
 8a0:	03193f01 	tsteq	r9, #1, 30
 8a4:	3b0b3a0e 	blcc	2cf0e4 <__bss_end__+0x2c595c>
 8a8:	4919270b 	ldmdbmi	r9, {r0, r1, r3, r8, r9, sl, sp}
 8ac:	00193c13 	andseq	r3, r9, r3, lsl ip
 8b0:	00050f00 	andeq	r0, r5, r0, lsl #30
 8b4:	00001349 	andeq	r1, r0, r9, asr #6
 8b8:	01110100 	tsteq	r1, r0, lsl #2
 8bc:	0b130e25 	bleq	4c4158 <__bss_end__+0x4ba9d0>
 8c0:	0e1b0e03 	cdpeq	14, 1, cr0, cr11, cr3, {0}
 8c4:	06120111 			; <UNDEFINED> instruction: 0x06120111
 8c8:	00001710 	andeq	r1, r0, r0, lsl r7
 8cc:	0b002402 	bleq	98dc <__bss_end__+0x154>
 8d0:	030b3e0b 	movweq	r3, #48651	; 0xbe0b
 8d4:	0300000e 	movweq	r0, #14
 8d8:	0b0b0024 	bleq	2c0970 <__bss_end__+0x2b71e8>
 8dc:	08030b3e 	stmdaeq	r3, {r1, r2, r3, r4, r5, r8, r9, fp}
 8e0:	04040000 	streq	r0, [r4], #-0
 8e4:	3a0b0b01 	bcc	2c34f0 <__bss_end__+0x2b9d68>
 8e8:	010b3b0b 	tsteq	fp, fp, lsl #22
 8ec:	05000013 	streq	r0, [r0, #-19]
 8f0:	0e030028 	cdpeq	0, 0, cr0, cr3, cr8, {1}
 8f4:	00000d1c 	andeq	r0, r0, ip, lsl sp
 8f8:	03001606 	movweq	r1, #1542	; 0x606
 8fc:	3b0b3a0e 	blcc	2cf13c <__bss_end__+0x2c59b4>
 900:	0013490b 	andseq	r4, r3, fp, lsl #18
 904:	012e0700 	teqeq	lr, r0, lsl #14
 908:	0e03193f 	mcreq	9, 0, r1, cr3, cr15, {1}
 90c:	0b3b0b3a 	bleq	ec35fc <__bss_end__+0xeb9e74>
 910:	01111927 	tsteq	r1, r7, lsr #18
 914:	18400612 	stmdane	r0, {r1, r4, r9, sl}^
 918:	01194297 			; <UNDEFINED> instruction: 0x01194297
 91c:	08000013 	stmdaeq	r0, {r0, r1, r4}
 920:	08030005 	stmdaeq	r3, {r0, r2}
 924:	0b3b0b3a 	bleq	ec3614 <__bss_end__+0xeb9e8c>
 928:	17021349 	strne	r1, [r2, -r9, asr #6]
 92c:	34090000 	strcc	r0, [r9], #-0
 930:	3a0e0300 	bcc	381538 <__bss_end__+0x377db0>
 934:	490b3b0b 	stmdbmi	fp, {r0, r1, r3, r8, r9, fp, ip, sp}
 938:	00170213 	andseq	r0, r7, r3, lsl r2
 93c:	82890a00 	addhi	r0, r9, #0, 20
 940:	01110101 	tsteq	r1, r1, lsl #2
 944:	13011331 	movwne	r1, #4913	; 0x1331
 948:	8a0b0000 	bhi	2c0950 <__bss_end__+0x2b71c8>
 94c:	02000182 	andeq	r0, r0, #-2147483616	; 0x80000020
 950:	18429118 	stmdane	r2, {r3, r4, r8, ip, pc}^
 954:	890c0000 	stmdbhi	ip, {}	; <UNPREDICTABLE>
 958:	11010182 	smlabbne	r1, r2, r1, r0
 95c:	00133101 	andseq	r3, r3, r1, lsl #2
 960:	000f0d00 	andeq	r0, pc, r0, lsl #26
 964:	13490b0b 	movtne	r0, #39691	; 0x9b0b
 968:	350e0000 	strcc	r0, [lr, #-0]
 96c:	00134900 	andseq	r4, r3, r0, lsl #18
 970:	012e0f00 	teqeq	lr, r0, lsl #30
 974:	0e03193f 	mcreq	9, 0, r1, cr3, cr15, {1}
 978:	0b3b0b3a 	bleq	ec3668 <__bss_end__+0xeb9ee0>
 97c:	13491927 	movtne	r1, #39207	; 0x9927
 980:	06120111 			; <UNDEFINED> instruction: 0x06120111
 984:	42971840 	addsmi	r1, r7, #64, 16	; 0x400000
 988:	00130119 	andseq	r0, r3, r9, lsl r1
 98c:	00341000 	eorseq	r1, r4, r0
 990:	0b3a0803 	bleq	e829a4 <__bss_end__+0xe7921c>
 994:	13490b3b 	movtne	r0, #39739	; 0x9b3b
 998:	00001702 	andeq	r1, r0, r2, lsl #14
 99c:	01828911 	orreq	r8, r2, r1, lsl r9
 9a0:	31011100 	mrscc	r1, (UNDEF: 17)
 9a4:	12000013 	andne	r0, r0, #19
 9a8:	0e030005 	cdpeq	0, 0, cr0, cr3, cr5, {0}
 9ac:	0b3b0b3a 	bleq	ec369c <__bss_end__+0xeb9f14>
 9b0:	17021349 	strne	r1, [r2, -r9, asr #6]
 9b4:	2e130000 	cdpcs	0, 1, cr0, cr3, cr0, {0}
 9b8:	03193f01 	tsteq	r9, #1, 30
 9bc:	3b0b3a0e 	blcc	2cf1fc <__bss_end__+0x2c5a74>
 9c0:	49192705 	ldmdbmi	r9, {r0, r2, r8, r9, sl, sp}
 9c4:	12011113 	andne	r1, r1, #-1073741820	; 0xc0000004
 9c8:	97184006 	ldrls	r4, [r8, -r6]
 9cc:	13011942 	movwne	r1, #6466	; 0x1942
 9d0:	05140000 	ldreq	r0, [r4, #-0]
 9d4:	3a0e0300 	bcc	3815dc <__bss_end__+0x377e54>
 9d8:	49053b0b 	stmdbmi	r5, {r0, r1, r3, r8, r9, fp, ip, sp}
 9dc:	00170213 	andseq	r0, r7, r3, lsl r2
 9e0:	012e1500 	teqeq	lr, r0, lsl #10
 9e4:	0e03193f 	mcreq	9, 0, r1, cr3, cr15, {1}
 9e8:	053b0b3a 	ldreq	r0, [fp, #-2874]!	; 0xb3a
 9ec:	01111927 	tsteq	r1, r7, lsr #18
 9f0:	18400612 	stmdane	r0, {r1, r4, r9, sl}^
 9f4:	01194297 			; <UNDEFINED> instruction: 0x01194297
 9f8:	16000013 			; <UNDEFINED> instruction: 0x16000013
 9fc:	08030005 	stmdaeq	r3, {r0, r2}
 a00:	053b0b3a 	ldreq	r0, [fp, #-2874]!	; 0xb3a
 a04:	17021349 	strne	r1, [r2, -r9, asr #6]
 a08:	34170000 	ldrcc	r0, [r7], #-0
 a0c:	3a0e0300 	bcc	381614 <__bss_end__+0x377e8c>
 a10:	49053b0b 	stmdbmi	r5, {r0, r1, r3, r8, r9, fp, ip, sp}
 a14:	00170213 	andseq	r0, r7, r3, lsl r2
 a18:	010b1800 	tsteq	fp, r0, lsl #16
 a1c:	06120111 			; <UNDEFINED> instruction: 0x06120111
 a20:	00001301 	andeq	r1, r0, r1, lsl #6
 a24:	03003419 	movweq	r3, #1049	; 0x419
 a28:	3b0b3a0e 	blcc	2cf268 <__bss_end__+0x2c5ae0>
 a2c:	3f13490b 	svccc	0x0013490b
 a30:	00180219 	andseq	r0, r8, r9, lsl r2
 a34:	00341a00 	eorseq	r1, r4, r0, lsl #20
 a38:	0b3a0e03 	bleq	e8424c <__bss_end__+0xe7aac4>
 a3c:	1349053b 	movtne	r0, #38203	; 0x953b
 a40:	1802193f 	stmdane	r2, {r0, r1, r2, r3, r4, r5, r8, fp, ip}
 a44:	2e1b0000 	cdpcs	0, 1, cr0, cr11, cr0, {0}
 a48:	03193f01 	tsteq	r9, #1, 30
 a4c:	3b0b3a0e 	blcc	2cf28c <__bss_end__+0x2c5b04>
 a50:	4919270b 	ldmdbmi	r9, {r0, r1, r3, r8, r9, sl, sp}
 a54:	01193c13 	tsteq	r9, r3, lsl ip
 a58:	1c000013 	stcne	0, cr0, [r0], {19}
 a5c:	13490005 	movtne	r0, #36869	; 0x9005
 a60:	261d0000 	ldrcs	r0, [sp], -r0
 a64:	00134900 	andseq	r4, r3, r0, lsl #18
 a68:	00351e00 	eorseq	r1, r5, r0, lsl #28
 a6c:	2e1f0000 	cdpcs	0, 1, cr0, cr15, cr0, {0}
 a70:	03193f01 	tsteq	r9, #1, 30
 a74:	3b0b3a0e 	blcc	2cf2b4 <__bss_end__+0x2c5b2c>
 a78:	3c19270b 	ldccc	7, cr2, [r9], {11}
 a7c:	00130119 	andseq	r0, r3, r9, lsl r1
 a80:	002e2000 	eoreq	r2, lr, r0
 a84:	0e03193f 	mcreq	9, 0, r1, cr3, cr15, {1}
 a88:	0b3b0b3a 	bleq	ec3778 <__bss_end__+0xeb9ff0>
 a8c:	193c1927 	ldmdbne	ip!, {r0, r1, r2, r5, r8, fp, ip}
 a90:	01000000 	mrseq	r0, (UNDEF: 0)
 a94:	0e250111 	mcreq	1, 1, r0, cr5, cr1, {0}
 a98:	0e030b13 	vmoveq.32	d3[0], r0
 a9c:	01110e1b 	tsteq	r1, fp, lsl lr
 aa0:	17100612 			; <UNDEFINED> instruction: 0x17100612
 aa4:	24020000 	strcs	r0, [r2], #-0
 aa8:	3e0b0b00 	vmlacc.f64	d0, d11, d0
 aac:	0008030b 	andeq	r0, r8, fp, lsl #6
 ab0:	00240300 	eoreq	r0, r4, r0, lsl #6
 ab4:	0b3e0b0b 	bleq	f836e8 <__bss_end__+0xf79f60>
 ab8:	00000e03 	andeq	r0, r0, r3, lsl #28
 abc:	0b010404 	bleq	41ad4 <__bss_end__+0x3834c>
 ac0:	3b0b3a0b 	blcc	2cf2f4 <__bss_end__+0x2c5b6c>
 ac4:	0013010b 	andseq	r0, r3, fp, lsl #2
 ac8:	00280500 	eoreq	r0, r8, r0, lsl #10
 acc:	0d1c0e03 	ldceq	14, cr0, [ip, #-12]
 ad0:	16060000 	strne	r0, [r6], -r0
 ad4:	3a0e0300 	bcc	3816dc <__bss_end__+0x377f54>
 ad8:	490b3b0b 	stmdbmi	fp, {r0, r1, r3, r8, r9, fp, ip, sp}
 adc:	07000013 	smladeq	r0, r3, r0, r0
 ae0:	193f012e 	ldmdbne	pc!, {r1, r2, r3, r5, r8}	; <UNPREDICTABLE>
 ae4:	0b3a0e03 	bleq	e842f8 <__bss_end__+0xe7ab70>
 ae8:	19270b3b 	stmdbne	r7!, {r0, r1, r3, r4, r5, r8, r9, fp}
 aec:	06120111 			; <UNDEFINED> instruction: 0x06120111
 af0:	42971840 	addsmi	r1, r7, #64, 16	; 0x400000
 af4:	00130119 	andseq	r0, r3, r9, lsl r1
 af8:	82890800 	addhi	r0, r9, #0, 16
 afc:	01110001 	tsteq	r1, r1
 b00:	00001331 	andeq	r1, r0, r1, lsr r3
 b04:	01828909 	orreq	r8, r2, r9, lsl #18
 b08:	31011101 	tstcc	r1, r1, lsl #2
 b0c:	00130113 	andseq	r0, r3, r3, lsl r1
 b10:	828a0a00 	addhi	r0, sl, #0, 20
 b14:	18020001 	stmdane	r2, {r0}
 b18:	00184291 	mulseq	r8, r1, r2
 b1c:	012e0b00 	teqeq	lr, r0, lsl #22
 b20:	0e03193f 	mcreq	9, 0, r1, cr3, cr15, {1}
 b24:	0b3b0b3a 	bleq	ec3814 <__bss_end__+0xeba08c>
 b28:	13491927 	movtne	r1, #39207	; 0x9927
 b2c:	06120111 			; <UNDEFINED> instruction: 0x06120111
 b30:	42971840 	addsmi	r1, r7, #64, 16	; 0x400000
 b34:	00130119 	andseq	r0, r3, r9, lsl r1
 b38:	00050c00 	andeq	r0, r5, r0, lsl #24
 b3c:	0b3a0803 	bleq	e82b50 <__bss_end__+0xe793c8>
 b40:	13490b3b 	movtne	r0, #39739	; 0x9b3b
 b44:	00001702 	andeq	r1, r0, r2, lsl #14
 b48:	0182890d 	orreq	r8, r2, sp, lsl #18
 b4c:	31011101 	tstcc	r1, r1, lsl #2
 b50:	0e000013 	mcreq	0, 0, r0, cr0, cr3, {0}
 b54:	0e030034 	mcreq	0, 0, r0, cr3, cr4, {1}
 b58:	0b3b0b3a 	bleq	ec3848 <__bss_end__+0xeba0c0>
 b5c:	193f1349 	ldmdbne	pc!, {r0, r3, r6, r8, r9, ip}	; <UNPREDICTABLE>
 b60:	00001802 	andeq	r1, r0, r2, lsl #16
 b64:	0b000f0f 	bleq	47a8 <_start-0x3858>
 b68:	0013490b 	andseq	r4, r3, fp, lsl #18
 b6c:	00351000 	eorseq	r1, r5, r0
 b70:	00001349 	andeq	r1, r0, r9, asr #6
 b74:	3f002e11 	svccc	0x00002e11
 b78:	3a0e0319 	bcc	3817e4 <__bss_end__+0x37805c>
 b7c:	270b3b0b 	strcs	r3, [fp, -fp, lsl #22]
 b80:	00193c19 	andseq	r3, r9, r9, lsl ip
 b84:	012e1200 	teqeq	lr, r0, lsl #4
 b88:	0e03193f 	mcreq	9, 0, r1, cr3, cr15, {1}
 b8c:	0b3b0b3a 	bleq	ec387c <__bss_end__+0xeba0f4>
 b90:	193c1927 	ldmdbne	ip!, {r0, r1, r2, r5, r8, fp, ip}
 b94:	00001301 	andeq	r1, r0, r1, lsl #6
 b98:	49000513 	stmdbmi	r0, {r0, r1, r4, r8, sl}
 b9c:	14000013 	strne	r0, [r0], #-19
 ba0:	193f012e 	ldmdbne	pc!, {r1, r2, r3, r5, r8}	; <UNPREDICTABLE>
 ba4:	0b3a0e03 	bleq	e843b8 <__bss_end__+0xe7ac30>
 ba8:	19270b3b 	stmdbne	r7!, {r0, r1, r3, r4, r5, r8, r9, fp}
 bac:	193c1349 	ldmdbne	ip!, {r0, r3, r6, r8, r9, ip}
 bb0:	00001301 	andeq	r1, r0, r1, lsl #6
 bb4:	49002615 	stmdbmi	r0, {r0, r2, r4, r9, sl, sp}
 bb8:	16000013 			; <UNDEFINED> instruction: 0x16000013
 bbc:	00000035 	andeq	r0, r0, r5, lsr r0
 bc0:	01110100 	tsteq	r1, r0, lsl #2
 bc4:	0b130e25 	bleq	4c4460 <__bss_end__+0x4bacd8>
 bc8:	0e1b0e03 	cdpeq	14, 1, cr0, cr11, cr3, {0}
 bcc:	06120111 			; <UNDEFINED> instruction: 0x06120111
 bd0:	00001710 	andeq	r1, r0, r0, lsl r7
 bd4:	0b002402 	bleq	9be4 <__bss_end__+0x45c>
 bd8:	030b3e0b 	movweq	r3, #48651	; 0xbe0b
 bdc:	03000008 	movweq	r0, #8
 be0:	0b0b0024 	bleq	2c0c78 <__bss_end__+0x2b74f0>
 be4:	0e030b3e 	vmoveq.16	d3[0], r0
 be8:	2e040000 	cdpcs	0, 0, cr0, cr4, cr0, {0}
 bec:	3a0e0301 	bcc	3817f8 <__bss_end__+0x378070>
 bf0:	270b3b0b 	strcs	r3, [fp, -fp, lsl #22]
 bf4:	11134919 	tstne	r3, r9, lsl r9
 bf8:	40061201 	andmi	r1, r6, r1, lsl #4
 bfc:	19429718 	stmdbne	r2, {r3, r4, r8, r9, sl, ip, pc}^
 c00:	00001301 	andeq	r1, r0, r1, lsl #6
 c04:	03000505 	movweq	r0, #1285	; 0x505
 c08:	3b0b3a08 	blcc	2cf430 <__bss_end__+0x2c5ca8>
 c0c:	0213490b 	andseq	r4, r3, #180224	; 0x2c000
 c10:	06000017 			; <UNDEFINED> instruction: 0x06000017
 c14:	01018289 	smlabbeq	r1, r9, r2, r8
 c18:	13310111 	teqne	r1, #1073741828	; 0x40000004
 c1c:	8a070000 	bhi	1c0c24 <__bss_end__+0x1b749c>
 c20:	02000182 	andeq	r0, r0, #-2147483616	; 0x80000020
 c24:	18429118 	stmdane	r2, {r3, r4, r8, ip, pc}^
 c28:	2e080000 	cdpcs	0, 0, cr0, cr8, cr0, {0}
 c2c:	03193f00 	tsteq	r9, #0, 30
 c30:	3b0b3a0e 	blcc	2cf470 <__bss_end__+0x2c5ce8>
 c34:	1119270b 	tstne	r9, fp, lsl #14
 c38:	40061201 	andmi	r1, r6, r1, lsl #4
 c3c:	19429718 	stmdbne	r2, {r3, r4, r8, r9, sl, ip, pc}^
 c40:	2e090000 	cdpcs	0, 0, cr0, cr9, cr0, {0}
 c44:	03193f01 	tsteq	r9, #1, 30
 c48:	3b0b3a0e 	blcc	2cf488 <__bss_end__+0x2c5d00>
 c4c:	1119270b 	tstne	r9, fp, lsl #14
 c50:	40061201 	andmi	r1, r6, r1, lsl #4
 c54:	19429718 	stmdbne	r2, {r3, r4, r8, r9, sl, ip, pc}^
 c58:	00001301 	andeq	r1, r0, r1, lsl #6
 c5c:	0300050a 	movweq	r0, #1290	; 0x50a
 c60:	3b0b3a08 	blcc	2cf488 <__bss_end__+0x2c5d00>
 c64:	0213490b 	andseq	r4, r3, #180224	; 0x2c000
 c68:	0b000018 	bleq	cd0 <_start-0x7330>
 c6c:	19270115 	stmdbne	r7!, {r0, r2, r4, r8}
 c70:	13011349 	movwne	r1, #4937	; 0x1349
 c74:	050c0000 	streq	r0, [ip, #-0]
 c78:	00134900 	andseq	r4, r3, r0, lsl #18
 c7c:	000f0d00 	andeq	r0, pc, r0, lsl #26
 c80:	13490b0b 	movtne	r0, #39691	; 0x9b0b
 c84:	340e0000 	strcc	r0, [lr], #-0
 c88:	3a0e0300 	bcc	381890 <__bss_end__+0x378108>
 c8c:	490b3b0b 	stmdbmi	fp, {r0, r1, r3, r8, r9, fp, ip, sp}
 c90:	02193f13 	andseq	r3, r9, #19, 30	; 0x4c
 c94:	0f000018 	svceq	0x00000018
 c98:	193f012e 	ldmdbne	pc!, {r1, r2, r3, r5, r8}	; <UNPREDICTABLE>
 c9c:	0b3a0e03 	bleq	e844b0 <__bss_end__+0xe7ad28>
 ca0:	19270b3b 	stmdbne	r7!, {r0, r1, r3, r4, r5, r8, r9, fp}
 ca4:	0000193c 	andeq	r1, r0, ip, lsr r9
	...

Disassembly of section .debug_aranges:

00000000 <.debug_aranges>:
   0:	0000001c 	andeq	r0, r0, ip, lsl r0
   4:	00000002 	andeq	r0, r0, r2
   8:	00040000 	andeq	r0, r4, r0
   c:	00000000 	andeq	r0, r0, r0
  10:	00008010 	andeq	r8, r0, r0, lsl r0
  14:	00000054 	andeq	r0, r0, r4, asr r0
	...
  20:	0000001c 	andeq	r0, r0, ip, lsl r0
  24:	01b80002 			; <UNDEFINED> instruction: 0x01b80002
  28:	00040000 	andeq	r0, r4, r0
  2c:	00000000 	andeq	r0, r0, r0
  30:	00008064 	andeq	r8, r0, r4, rrx
  34:	00000214 	andeq	r0, r0, r4, lsl r2
	...
  40:	0000001c 	andeq	r0, r0, ip, lsl r0
  44:	07540002 	ldrbeq	r0, [r4, -r2]
  48:	00040000 	andeq	r0, r4, r0
  4c:	00000000 	andeq	r0, r0, r0
  50:	00008278 	andeq	r8, r0, r8, ror r2
  54:	00000058 	andeq	r0, r0, r8, asr r0
	...
  60:	0000001c 	andeq	r0, r0, ip, lsl r0
  64:	08e90002 	stmiaeq	r9!, {r1}^
  68:	00040000 	andeq	r0, r4, r0
  6c:	00000000 	andeq	r0, r0, r0
  70:	000082d0 	ldrdeq	r8, [r0], -r0
  74:	00000034 	andeq	r0, r0, r4, lsr r0
	...
  80:	0000001c 	andeq	r0, r0, ip, lsl r0
  84:	09db0002 	ldmibeq	fp, {r1}^
  88:	00040000 	andeq	r0, r4, r0
  8c:	00000000 	andeq	r0, r0, r0
  90:	00008304 	andeq	r8, r0, r4, lsl #6
  94:	000004f8 	strdeq	r0, [r0], -r8
	...
  a0:	0000001c 	andeq	r0, r0, ip, lsl r0
  a4:	10600002 	rsbne	r0, r0, r2
  a8:	00040000 	andeq	r0, r4, r0
  ac:	00000000 	andeq	r0, r0, r0
  b0:	000087fc 	strdeq	r8, [r0], -ip
  b4:	00000028 	andeq	r0, r0, r8, lsr #32
	...
  c0:	0000001c 	andeq	r0, r0, ip, lsl r0
  c4:	11630002 	cmnne	r3, r2
  c8:	00040000 	andeq	r0, r4, r0
  cc:	00000000 	andeq	r0, r0, r0
  d0:	00008824 	andeq	r8, r0, r4, lsr #16
  d4:	00000034 	andeq	r0, r0, r4, lsr r0
	...
  e0:	0000001c 	andeq	r0, r0, ip, lsl r0
  e4:	12660002 	rsbne	r0, r6, #2
  e8:	00040000 	andeq	r0, r4, r0
  ec:	00000000 	andeq	r0, r0, r0
  f0:	00008858 	andeq	r8, r0, r8, asr r8
  f4:	00000074 	andeq	r0, r0, r4, ror r0
	...
 100:	0000001c 	andeq	r0, r0, ip, lsl r0
 104:	14170002 	ldrne	r0, [r7], #-2
 108:	00040000 	andeq	r0, r4, r0
 10c:	00000000 	andeq	r0, r0, r0
 110:	000088cc 	andeq	r8, r0, ip, asr #17
 114:	00000088 	andeq	r0, r0, r8, lsl #1
	...
 120:	0000001c 	andeq	r0, r0, ip, lsl r0
 124:	15f30002 	ldrbne	r0, [r3, #2]!
 128:	00040000 	andeq	r0, r4, r0
 12c:	00000000 	andeq	r0, r0, r0
 130:	00008954 	andeq	r8, r0, r4, asr r9
 134:	000005a0 	andeq	r0, r0, r0, lsr #11
	...
 140:	0000001c 	andeq	r0, r0, ip, lsl r0
 144:	1e790002 	cdpne	0, 7, cr0, cr9, cr2, {0}
 148:	00040000 	andeq	r0, r4, r0
 14c:	00000000 	andeq	r0, r0, r0
 150:	00008ef4 	strdeq	r8, [r0], -r4
 154:	00000154 	andeq	r0, r0, r4, asr r1
	...
 160:	0000001c 	andeq	r0, r0, ip, lsl r0
 164:	227c0002 	rsbscs	r0, ip, #2
 168:	00040000 	andeq	r0, r4, r0
 16c:	00000000 	andeq	r0, r0, r0
 170:	000090ac 	andeq	r9, r0, ip, lsr #1
 174:	0000003c 	andeq	r0, r0, ip, lsr r0
	...

Disassembly of section .debug_line:

00000000 <.debug_line>:
   0:	000000dd 	ldrdeq	r0, [r0], -sp
   4:	00c10002 	sbceq	r0, r1, r2
   8:	01020000 	mrseq	r0, (UNDEF: 2)
   c:	000d0efb 	strdeq	r0, [sp], -fp
  10:	01010101 	tsteq	r1, r1, lsl #2
  14:	01000000 	mrseq	r0, (UNDEF: 0)
  18:	2f010000 	svccs	0x00010000
  1c:	72657355 	rsbvc	r7, r5, #1409286145	; 0x54000001
  20:	72622f73 	rsbvc	r2, r2, #460	; 0x1cc
  24:	6a6e6169 	bvs	1b985d0 <__bss_end__+0x1b8ee48>
  28:	442f6e75 	strtmi	r6, [pc], #-3701	; 30 <_start-0x7fd0>
  2c:	746b7365 	strbtvc	r7, [fp], #-869	; 0x365
  30:	732f706f 	teqvc	pc, #111	; 0x6f
  34:	6f6f6863 	svcvs	0x006f6863
  38:	69572f6c 	ldmdbvs	r7, {r2, r3, r5, r6, r8, r9, sl, fp, sp}^
  3c:	7265746e 	rsbvc	r7, r5, #1845493760	; 0x6e000000
  40:	30323931 	eorscc	r3, r2, r1, lsr r9
  44:	3153432f 	cmpcc	r3, pc, lsr #6
  48:	2f453034 	svccs	0x00453034
  4c:	34317363 	ldrtcc	r7, [r1], #-867	; 0x363
  50:	322d6530 	eorcc	r6, sp, #48, 10	; 0xc000000
  54:	6e697730 	mcrvs	7, 3, r7, cr9, cr0, {1}
  58:	62696c2f 	rsbvs	r6, r9, #12032	; 0x2f00
  5c:	632f6970 	teqvs	pc, #112, 18	; 0x1c0000
  60:	30343173 	eorscc	r3, r4, r3, ror r1
  64:	72732d65 	rsbsvc	r2, r3, #6464	; 0x1940
  68:	552f0063 	strpl	r0, [pc, #-99]!	; d <_start-0x7ff3>
  6c:	73726573 	cmnvc	r2, #482344960	; 0x1cc00000
  70:	6972622f 	ldmdbvs	r2!, {r0, r1, r2, r3, r5, r9, sp, lr}^
  74:	756a6e61 	strbvc	r6, [sl, #-3681]!	; 0xe61
  78:	65442f6e 	strbvs	r2, [r4, #-3950]	; 0xf6e
  7c:	6f746b73 	svcvs	0x00746b73
  80:	63732f70 	cmnvs	r3, #112, 30	; 0x1c0
  84:	6c6f6f68 	stclvs	15, cr6, [pc], #-416	; fffffeec <__bss_end__+0xffff6764>
  88:	6e69572f 	cdpvs	7, 6, cr5, cr9, cr15, {1}
  8c:	31726574 	cmncc	r2, r4, ror r5
  90:	2f303239 	svccs	0x00303239
  94:	34315343 	ldrtcc	r5, [r1], #-835	; 0x343
  98:	632f4530 	teqvs	pc, #48, 10	; 0xc000000
  9c:	30343173 	eorscc	r3, r4, r3, ror r1
  a0:	30322d65 	eorscc	r2, r2, r5, ror #26
  a4:	2f6e6977 	svccs	0x006e6977
  a8:	7062696c 	rsbvc	r6, r2, ip, ror #18
  ac:	6f000069 	svcvs	0x00000069
  b0:	00632e6e 	rsbeq	r2, r3, lr, ror #28
  b4:	67000000 	strvs	r0, [r0, -r0]
  b8:	2e6f6970 	mcrcs	9, 3, r6, cr15, cr0, {3}
  bc:	00010068 	andeq	r0, r1, r8, rrx
  c0:	69707200 	ldmdbvs	r0!, {r9, ip, sp, lr}^
  c4:	0200682e 	andeq	r6, r0, #3014656	; 0x2e0000
  c8:	00000000 	andeq	r0, r0, r0
  cc:	80100205 	andshi	r0, r0, r5, lsl #4
  d0:	2f160000 	svccs	0x00160000
  d4:	4b4b4e2f 	blmi	12d3998 <__bss_end__+0x12ca210>
  d8:	684b4b68 	stmdavs	fp, {r3, r5, r6, r8, r9, fp, lr}^
  dc:	01000602 	tsteq	r0, r2, lsl #12
  e0:	0000e501 	andeq	lr, r0, r1, lsl #10
  e4:	6e000200 	cdpvs	2, 0, cr0, cr0, cr0, {0}
  e8:	02000000 	andeq	r0, r0, #0
  ec:	0d0efb01 	vstreq	d15, [lr, #-4]
  f0:	01010100 	mrseq	r0, (UNDEF: 17)
  f4:	00000001 	andeq	r0, r0, r1
  f8:	01000001 	tsteq	r0, r1
  fc:	6573552f 	ldrbvs	r5, [r3, #-1327]!	; 0x52f
 100:	622f7372 	eorvs	r7, pc, #-939524095	; 0xc8000001
 104:	6e616972 	mcrvs	9, 3, r6, cr1, cr2, {3}
 108:	2f6e756a 	svccs	0x006e756a
 10c:	6b736544 	blvs	1cd9624 <__bss_end__+0x1ccfe9c>
 110:	2f706f74 	svccs	0x00706f74
 114:	6f686373 	svcvs	0x00686373
 118:	572f6c6f 	strpl	r6, [pc, -pc, ror #24]!
 11c:	65746e69 	ldrbvs	r6, [r4, #-3689]!	; 0xe69
 120:	32393172 	eorscc	r3, r9, #-2147483620	; 0x8000001c
 124:	53432f30 	movtpl	r2, #16176	; 0x3f30
 128:	45303431 	ldrmi	r3, [r0, #-1073]!	; 0x431
 12c:	3173632f 	cmncc	r3, pc, lsr #6
 130:	2d653034 	stclcs	0, cr3, [r5, #-208]!	; 0xffffff30
 134:	69773032 	ldmdbvs	r7!, {r1, r4, r5, ip, sp}^
 138:	696c2f6e 	stmdbvs	ip!, {r1, r2, r3, r5, r6, r8, r9, sl, fp, sp}^
 13c:	00697062 	rsbeq	r7, r9, r2, rrx
 140:	69706700 	ldmdbvs	r0!, {r8, r9, sl, sp, lr}^
 144:	75702d6f 	ldrbvc	r2, [r0, #-3439]!	; 0xd6f
 148:	00632e64 	rsbeq	r2, r3, r4, ror #28
 14c:	72000000 	andvc	r0, r0, #0
 150:	682e6970 	stmdavs	lr!, {r4, r5, r6, r8, fp, sp, lr}
 154:	00000100 	andeq	r0, r0, r0, lsl #2
 158:	02050000 	andeq	r0, r5, #0
 15c:	00008064 	andeq	r8, r0, r4, rrx
 160:	00844c1a 	addeq	r4, r4, sl, lsl ip
 164:	2f010402 	svccs	0x00010402
 168:	4d4c2f85 	stclmi	15, cr2, [ip, #-532]	; 0xfffffdec
 16c:	0200842f 	andeq	r8, r0, #788529152	; 0x2f000000
 170:	842f0104 	strthi	r0, [pc], #-260	; 178 <_start-0x7e88>
 174:	04020084 	streq	r0, [r2], #-132	; 0x84
 178:	68842f01 	stmvs	r4, {r0, r8, r9, sl, fp, sp}
 17c:	01040200 	mrseq	r0, R12_usr
 180:	4c4b832f 	mcrrmi	3, 2, r8, fp, cr15
 184:	04020084 	streq	r0, [r2], #-132	; 0x84
 188:	2f852f01 	svccs	0x00852f01
 18c:	842f4d4c 	strthi	r4, [pc], #-3404	; 194 <_start-0x7e6c>
 190:	01040200 	mrseq	r0, R12_usr
 194:	0084842f 	addeq	r8, r4, pc, lsr #8
 198:	2f010402 	svccs	0x00010402
 19c:	02006884 	andeq	r6, r0, #132, 16	; 0x840000
 1a0:	832f0104 	teqhi	pc, #4, 2
 1a4:	00844c4d 	addeq	r4, r4, sp, asr #24
 1a8:	2f010402 	svccs	0x00010402
 1ac:	4e4c2f85 	cdpmi	15, 4, cr2, cr12, cr5, {4}
 1b0:	04020068 	streq	r0, [r2], #-104	; 0x68
 1b4:	84842f01 	strhi	r2, [r4], #3841	; 0xf01
 1b8:	01040200 	mrseq	r0, R12_usr
 1bc:	0068842f 	rsbeq	r8, r8, pc, lsr #8
 1c0:	2f010402 	svccs	0x00010402
 1c4:	00040283 	andeq	r0, r4, r3, lsl #5
 1c8:	01020101 	tsteq	r2, r1, lsl #2
 1cc:	00020000 	andeq	r0, r2, r0
 1d0:	000000eb 	andeq	r0, r0, fp, ror #1
 1d4:	0efb0102 	cdpeq	1, 15, cr0, cr11, cr2, {0}
 1d8:	0101000d 	tsteq	r1, sp
 1dc:	00000101 	andeq	r0, r0, r1, lsl #2
 1e0:	00000100 	andeq	r0, r0, r0, lsl #2
 1e4:	62696c01 	rsbvs	r6, r9, #256	; 0x100
 1e8:	752f0063 	strvc	r0, [pc, #-99]!	; 18d <_start-0x7e73>
 1ec:	6c2f7273 	sfmvs	f7, 4, [pc], #-460	; 28 <_start-0x7fd8>
 1f0:	6c61636f 	stclvs	3, cr6, [r1], #-444	; 0xfffffe44
 1f4:	6c65432f 	stclvs	3, cr4, [r5], #-188	; 0xffffff44
 1f8:	2f72616c 	svccs	0x0072616c
 1fc:	2d6d7261 	sfmcs	f7, 2, [sp, #-388]!	; 0xfffffe7c
 200:	656e6f6e 	strbvs	r6, [lr, #-3950]!	; 0xf6e
 204:	6261652d 	rsbvs	r6, r1, #188743680	; 0xb400000
 208:	2e342f69 	cdpcs	15, 3, cr2, cr4, cr9, {3}
 20c:	2d332e38 	ldccs	14, cr2, [r3, #-224]!	; 0xffffff20
 210:	37317363 	ldrcc	r7, [r1, -r3, ror #6]!
 214:	6c2f6530 	cfstr32vs	mvfx6, [pc], #-192	; 15c <_start-0x7ea4>
 218:	672f6269 	strvs	r6, [pc, -r9, ror #4]!
 21c:	612f6363 	teqvs	pc, r3, ror #6
 220:	6e2d6d72 	mcrvs	13, 1, r6, cr13, cr2, {3}
 224:	2d656e6f 	stclcs	14, cr6, [r5, #-444]!	; 0xfffffe44
 228:	69626165 	stmdbvs	r2!, {r0, r2, r5, r6, r8, sp, lr}^
 22c:	382e342f 	stmdacc	lr!, {r0, r1, r2, r3, r5, sl, ip, sp}
 230:	692f332e 	stmdbvs	pc!, {r1, r2, r3, r5, r8, r9, ip, sp}	; <UNPREDICTABLE>
 234:	756c636e 	strbvc	r6, [ip, #-878]!	; 0x36e
 238:	2f006564 	svccs	0x00006564
 23c:	72657355 	rsbvc	r7, r5, #1409286145	; 0x54000001
 240:	72622f73 	rsbvc	r2, r2, #460	; 0x1cc
 244:	6a6e6169 	bvs	1b987f0 <__bss_end__+0x1b8f068>
 248:	442f6e75 	strtmi	r6, [pc], #-3701	; 250 <_start-0x7db0>
 24c:	746b7365 	strbtvc	r7, [fp], #-869	; 0x365
 250:	732f706f 	teqvc	pc, #111	; 0x6f
 254:	6f6f6863 	svcvs	0x006f6863
 258:	69572f6c 	ldmdbvs	r7, {r2, r3, r5, r6, r8, r9, sl, fp, sp}^
 25c:	7265746e 	rsbvc	r7, r5, #1845493760	; 0x6e000000
 260:	30323931 	eorscc	r3, r2, r1, lsr r9
 264:	3153432f 	cmpcc	r3, pc, lsr #6
 268:	2f453034 	svccs	0x00453034
 26c:	34317363 	ldrtcc	r7, [r1], #-867	; 0x363
 270:	322d6530 	eorcc	r6, sp, #48, 10	; 0xc000000
 274:	6e697730 	mcrvs	7, 3, r7, cr9, cr0, {1}
 278:	62696c2f 	rsbvs	r6, r9, #12032	; 0x2f00
 27c:	00006970 	andeq	r6, r0, r0, ror r9
 280:	6e697270 	mcrvs	2, 3, r7, cr9, cr0, {3}
 284:	632e6b74 	teqvs	lr, #116, 22	; 0x1d000
 288:	00000100 	andeq	r0, r0, r0, lsl #2
 28c:	61647473 	smcvs	18243	; 0x4743
 290:	682e6772 	stmdavs	lr!, {r1, r4, r5, r6, r8, r9, sl, sp, lr}
 294:	00000200 	andeq	r0, r0, r0, lsl #4
 298:	6975623c 	ldmdbvs	r5!, {r2, r3, r4, r5, r9, sp, lr}^
 29c:	692d746c 	pushvs	{r2, r3, r5, r6, sl, ip, sp, lr}
 2a0:	00003e6e 	andeq	r3, r0, lr, ror #28
 2a4:	70720000 	rsbsvc	r0, r2, r0
 2a8:	00682e69 	rsbeq	r2, r8, r9, ror #28
 2ac:	76000003 	strvc	r0, [r0], -r3
 2b0:	72702d61 	rsbsvc	r2, r0, #6208	; 0x1840
 2b4:	6b746e69 	blvs	1d1bc60 <__bss_end__+0x1d124d8>
 2b8:	0100682e 	tsteq	r0, lr, lsr #16
 2bc:	00000000 	andeq	r0, r0, r0
 2c0:	82780205 	rsbshi	r0, r8, #1342177280	; 0x50000000
 2c4:	6b170000 	blvs	5c02cc <__bss_end__+0x5b6b44>
 2c8:	0289bf4b 	addeq	fp, r9, #300	; 0x12c
 2cc:	0101000e 	tsteq	r1, lr
 2d0:	00000096 	muleq	r0, r6, r0
 2d4:	006f0002 	rsbeq	r0, pc, r2
 2d8:	01020000 	mrseq	r0, (UNDEF: 2)
 2dc:	000d0efb 	strdeq	r0, [sp], -fp
 2e0:	01010101 	tsteq	r1, r1, lsl #2
 2e4:	01000000 	mrseq	r0, (UNDEF: 0)
 2e8:	6c010000 	stcvs	0, cr0, [r1], {-0}
 2ec:	00636269 	rsbeq	r6, r3, r9, ror #4
 2f0:	6573552f 	ldrbvs	r5, [r3, #-1327]!	; 0x52f
 2f4:	622f7372 	eorvs	r7, pc, #-939524095	; 0xc8000001
 2f8:	6e616972 	mcrvs	9, 3, r6, cr1, cr2, {3}
 2fc:	2f6e756a 	svccs	0x006e756a
 300:	6b736544 	blvs	1cd9818 <__bss_end__+0x1cd0090>
 304:	2f706f74 	svccs	0x00706f74
 308:	6f686373 	svcvs	0x00686373
 30c:	572f6c6f 	strpl	r6, [pc, -pc, ror #24]!
 310:	65746e69 	ldrbvs	r6, [r4, #-3689]!	; 0xe69
 314:	32393172 	eorscc	r3, r9, #-2147483620	; 0x8000001c
 318:	53432f30 	movtpl	r2, #16176	; 0x3f30
 31c:	45303431 	ldrmi	r3, [r0, #-1073]!	; 0x431
 320:	3173632f 	cmncc	r3, pc, lsr #6
 324:	2d653034 	stclcs	0, cr3, [r5, #-208]!	; 0xffffff30
 328:	69773032 	ldmdbvs	r7!, {r1, r4, r5, ip, sp}^
 32c:	696c2f6e 	stmdbvs	ip!, {r1, r2, r3, r5, r6, r8, r9, sl, fp, sp}^
 330:	00697062 	rsbeq	r7, r9, r2, rrx
 334:	74757000 	ldrbtvc	r7, [r5], #-0
 338:	00632e6b 	rsbeq	r2, r3, fp, ror #28
 33c:	72000001 	andvc	r0, r0, #1
 340:	682e6970 	stmdavs	lr!, {r4, r5, r6, r8, fp, sp, lr}
 344:	00000200 	andeq	r0, r0, r0, lsl #4
 348:	02050000 	andeq	r0, r5, #0
 34c:	000082d0 	ldrdeq	r8, [r0], -r0
 350:	002d4c15 	eoreq	r4, sp, r5, lsl ip
 354:	2f020402 	svccs	0x00020402
 358:	02040200 	andeq	r0, r4, #0, 4
 35c:	04020049 	streq	r0, [r2], #-73	; 0x49
 360:	062e0601 	strteq	r0, [lr], -r1, lsl #12
 364:	0006026b 	andeq	r0, r6, fp, ror #4
 368:	01de0101 	bicseq	r0, lr, r1, lsl #2
 36c:	00020000 	andeq	r0, r2, r0
 370:	000000df 	ldrdeq	r0, [r0], -pc	; <UNPREDICTABLE>
 374:	0efb0102 	cdpeq	1, 15, cr0, cr11, cr2, {0}
 378:	0101000d 	tsteq	r1, sp
 37c:	00000101 	andeq	r0, r0, r1, lsl #2
 380:	00000100 	andeq	r0, r0, r0, lsl #2
 384:	62696c01 	rsbvs	r6, r9, #256	; 0x100
 388:	752f0063 	strvc	r0, [pc, #-99]!	; 32d <_start-0x7cd3>
 38c:	6c2f7273 	sfmvs	f7, 4, [pc], #-460	; 1c8 <_start-0x7e38>
 390:	6c61636f 	stclvs	3, cr6, [r1], #-444	; 0xfffffe44
 394:	6c65432f 	stclvs	3, cr4, [r5], #-188	; 0xffffff44
 398:	2f72616c 	svccs	0x0072616c
 39c:	2d6d7261 	sfmcs	f7, 2, [sp, #-388]!	; 0xfffffe7c
 3a0:	656e6f6e 	strbvs	r6, [lr, #-3950]!	; 0xf6e
 3a4:	6261652d 	rsbvs	r6, r1, #188743680	; 0xb400000
 3a8:	2e342f69 	cdpcs	15, 3, cr2, cr4, cr9, {3}
 3ac:	2d332e38 	ldccs	14, cr2, [r3, #-224]!	; 0xffffff20
 3b0:	37317363 	ldrcc	r7, [r1, -r3, ror #6]!
 3b4:	6c2f6530 	cfstr32vs	mvfx6, [pc], #-192	; 2fc <_start-0x7d04>
 3b8:	672f6269 	strvs	r6, [pc, -r9, ror #4]!
 3bc:	612f6363 	teqvs	pc, r3, ror #6
 3c0:	6e2d6d72 	mcrvs	13, 1, r6, cr13, cr2, {3}
 3c4:	2d656e6f 	stclcs	14, cr6, [r5, #-444]!	; 0xfffffe44
 3c8:	69626165 	stmdbvs	r2!, {r0, r2, r5, r6, r8, sp, lr}^
 3cc:	382e342f 	stmdacc	lr!, {r0, r1, r2, r3, r5, sl, ip, sp}
 3d0:	692f332e 	stmdbvs	pc!, {r1, r2, r3, r5, r8, r9, ip, sp}	; <UNPREDICTABLE>
 3d4:	756c636e 	strbvc	r6, [ip, #-878]!	; 0x36e
 3d8:	2f006564 	svccs	0x00006564
 3dc:	72657355 	rsbvc	r7, r5, #1409286145	; 0x54000001
 3e0:	72622f73 	rsbvc	r2, r2, #460	; 0x1cc
 3e4:	6a6e6169 	bvs	1b98990 <__bss_end__+0x1b8f208>
 3e8:	442f6e75 	strtmi	r6, [pc], #-3701	; 3f0 <_start-0x7c10>
 3ec:	746b7365 	strbtvc	r7, [fp], #-869	; 0x365
 3f0:	732f706f 	teqvc	pc, #111	; 0x6f
 3f4:	6f6f6863 	svcvs	0x006f6863
 3f8:	69572f6c 	ldmdbvs	r7, {r2, r3, r5, r6, r8, r9, sl, fp, sp}^
 3fc:	7265746e 	rsbvc	r7, r5, #1845493760	; 0x6e000000
 400:	30323931 	eorscc	r3, r2, r1, lsr r9
 404:	3153432f 	cmpcc	r3, pc, lsr #6
 408:	2f453034 	svccs	0x00453034
 40c:	34317363 	ldrtcc	r7, [r1], #-867	; 0x363
 410:	322d6530 	eorcc	r6, sp, #48, 10	; 0xc000000
 414:	6e697730 	mcrvs	7, 3, r7, cr9, cr0, {1}
 418:	62696c2f 	rsbvs	r6, r9, #12032	; 0x2f00
 41c:	00006970 	andeq	r6, r0, r0, ror r9
 420:	702d6176 	eorvc	r6, sp, r6, ror r1
 424:	746e6972 	strbtvc	r6, [lr], #-2418	; 0x972
 428:	00632e6b 	rsbeq	r2, r3, fp, ror #28
 42c:	73000001 	movwvc	r0, #1
 430:	72616474 	rsbvc	r6, r1, #116, 8	; 0x74000000
 434:	00682e67 	rsbeq	r2, r8, r7, ror #28
 438:	72000002 	andvc	r0, r0, #2
 43c:	682e6970 	stmdavs	lr!, {r4, r5, r6, r8, fp, sp, lr}
 440:	00000300 	andeq	r0, r0, r0, lsl #6
 444:	6975623c 	ldmdbvs	r5!, {r2, r3, r4, r5, r9, sp, lr}^
 448:	692d746c 	pushvs	{r2, r3, r5, r6, sl, ip, sp, lr}
 44c:	00003e6e 	andeq	r3, r0, lr, ror #28
 450:	00000000 	andeq	r0, r0, r0
 454:	83040205 	movwhi	r0, #16901	; 0x4205
 458:	26030000 	strcs	r0, [r3], -r0
 45c:	13a50101 			; <UNDEFINED> instruction: 0x13a50101
 460:	02002d31 	andeq	r2, r0, #3136	; 0xc40
 464:	002f0204 	eoreq	r0, pc, r4, lsl #4
 468:	2d020402 	cfstrscs	mvf0, [r2, #-8]
 46c:	02040200 	andeq	r0, r4, #0, 4
 470:	0402002f 	streq	r0, [r2], #-47	; 0x2f
 474:	4c4c2d01 	mcrrmi	13, 0, r2, ip, cr1
 478:	2f4b1430 	svccs	0x004b1430
 47c:	0402004f 	streq	r0, [r2], #-79	; 0x4f
 480:	02006702 	andeq	r6, r0, #524288	; 0x80000
 484:	4c650104 	stfmie	f0, [r5], #-16
 488:	2fa0304d 	svccs	0x00a0304d
 48c:	26023031 			; <UNDEFINED> instruction: 0x26023031
 490:	2c2d8416 	cfstrscs	mvf8, [sp], #-88	; 0xffffffa8
 494:	01040200 	mrseq	r0, R12_usr
 498:	04020030 	streq	r0, [r2], #-48	; 0x30
 49c:	66063301 	strvs	r3, [r6], -r1, lsl #6
 4a0:	01040200 	mrseq	r0, R12_usr
 4a4:	0402002e 	streq	r0, [r2], #-46	; 0x2e
 4a8:	21080601 	tstcs	r8, r1, lsl #12
 4ac:	73032f67 	movwvc	r2, #16231	; 0x3f67
 4b0:	2e130382 	cdpcs	3, 1, cr0, cr3, cr2, {4}
 4b4:	01040200 	mrseq	r0, R12_usr
 4b8:	02002e06 	andeq	r2, r0, #6, 28	; 0x60
 4bc:	9f060104 	svcls	0x00060104
 4c0:	67034b6a 	strvs	r4, [r3, -sl, ror #22]
 4c4:	2e21032e 	cdpcs	3, 2, cr0, cr1, cr14, {1}
 4c8:	01040200 	mrseq	r0, R12_usr
 4cc:	02002e06 	andeq	r2, r0, #6, 28	; 0x60
 4d0:	9f060104 	svcls	0x00060104
 4d4:	01040200 	mrseq	r0, R12_usr
 4d8:	03f3d96a 	mvnseq	sp, #1736704	; 0x1a8000
 4dc:	20087fa6 	andcs	r7, r8, r6, lsr #31
 4e0:	0402002f 	streq	r0, [r2], #-47	; 0x2f
 4e4:	064a0601 	strbeq	r0, [sl], -r1, lsl #12
 4e8:	032f4bd7 	teqeq	pc, #220160	; 0x35c00
 4ec:	83f200da 	mvnshi	r0, #218	; 0xda
 4f0:	0e03484c 	cdpeq	8, 0, cr4, cr3, cr12, {2}
 4f4:	2e75032e 	cdpcs	3, 7, cr0, cr5, cr14, {1}
 4f8:	4b842f2f 	blmi	fe10c1bc <__bss_end__+0xfe102a34>
 4fc:	314d2d2f 	cmpcc	sp, pc, lsr #26
 500:	00832f30 	addeq	r2, r3, r0, lsr pc
 504:	2c010402 	cfstrscs	mvf0, [r1], {2}
 508:	040200a2 	streq	r0, [r2], #-162	; 0xa2
 50c:	064a0601 	strbeq	r0, [sl], -r1, lsl #12
 510:	163602d8 			; <UNDEFINED> instruction: 0x163602d8
 514:	08d60e03 	ldmeq	r6, {r0, r1, r9, sl, fp}^
 518:	31f33021 	mvnscc	r3, r1, lsr #32
 51c:	30f330f3 	ldrshtcc	r3, [r3], #3
 520:	30f3304b 	rscscc	r3, r3, fp, asr #32
 524:	2f312308 	svccs	0x00312308
 528:	01040200 	mrseq	r0, R12_usr
 52c:	04020065 	streq	r0, [r2], #-101	; 0x65
 530:	004a0602 	subeq	r0, sl, r2, lsl #12
 534:	06010402 	streq	r0, [r1], -r2, lsl #8
 538:	00664203 	rsbeq	r4, r6, r3, lsl #4
 53c:	06020402 	streq	r0, [r2], -r2, lsl #8
 540:	c2030666 	andgt	r0, r3, #106954752	; 0x6600000
 544:	02684a00 	rsbeq	r4, r8, #0, 20
 548:	01010010 	tsteq	r1, r0, lsl r0
 54c:	00000093 	muleq	r0, r3, r0
 550:	007d0002 	rsbseq	r0, sp, r2
 554:	01020000 	mrseq	r0, (UNDEF: 2)
 558:	000d0efb 	strdeq	r0, [sp], -fp
 55c:	01010101 	tsteq	r1, r1, lsl #2
 560:	01000000 	mrseq	r0, (UNDEF: 0)
 564:	63010000 	movwvs	r0, #4096	; 0x1000
 568:	30343173 	eorscc	r3, r4, r3, ror r1
 56c:	72732d65 	rsbsvc	r2, r3, #6464	; 0x1940
 570:	552f0063 	strpl	r0, [pc, #-99]!	; 515 <_start-0x7aeb>
 574:	73726573 	cmnvc	r2, #482344960	; 0x1cc00000
 578:	6972622f 	ldmdbvs	r2!, {r0, r1, r2, r3, r5, r9, sp, lr}^
 57c:	756a6e61 	strbvc	r6, [sl, #-3681]!	; 0xe61
 580:	65442f6e 	strbvs	r2, [r4, #-3950]	; 0xf6e
 584:	6f746b73 	svcvs	0x00746b73
 588:	63732f70 	cmnvs	r3, #112, 30	; 0x1c0
 58c:	6c6f6f68 	stclvs	15, cr6, [pc], #-416	; 3f4 <_start-0x7c0c>
 590:	6e69572f 	cdpvs	7, 6, cr5, cr9, cr15, {1}
 594:	31726574 	cmncc	r2, r4, ror r5
 598:	2f303239 	svccs	0x00303239
 59c:	34315343 	ldrtcc	r5, [r1], #-835	; 0x343
 5a0:	632f4530 	teqvs	pc, #48, 10	; 0xc000000
 5a4:	30343173 	eorscc	r3, r4, r3, ror r1
 5a8:	30322d65 	eorscc	r2, r2, r5, ror #26
 5ac:	2f6e6977 	svccs	0x006e6977
 5b0:	7062696c 	rsbvc	r6, r2, ip, ror #18
 5b4:	63000069 	movwvs	r0, #105	; 0x69
 5b8:	6e61656c 	cdpvs	5, 6, cr6, cr1, cr12, {3}
 5bc:	6265722d 	rsbvs	r7, r5, #-805306366	; 0xd0000002
 5c0:	2e746f6f 	cdpcs	15, 7, cr6, cr4, cr15, {3}
 5c4:	00010063 	andeq	r0, r1, r3, rrx
 5c8:	69707200 	ldmdbvs	r0!, {r9, ip, sp, lr}^
 5cc:	0200682e 	andeq	r6, r0, #3014656	; 0x2e0000
 5d0:	00000000 	andeq	r0, r0, r0
 5d4:	87fc0205 	ldrbhi	r0, [ip, r5, lsl #4]!
 5d8:	2f150000 	svccs	0x00150000
 5dc:	06024b83 	streq	r4, [r2], -r3, lsl #23
 5e0:	9a010100 	bls	409e8 <__bss_end__+0x37260>
 5e4:	02000000 	andeq	r0, r0, #0
 5e8:	00007700 	andeq	r7, r0, r0, lsl #14
 5ec:	fb010200 	blx	40df6 <__bss_end__+0x3766e>
 5f0:	01000d0e 	tsteq	r0, lr, lsl #26
 5f4:	00010101 	andeq	r0, r1, r1, lsl #2
 5f8:	00010000 	andeq	r0, r1, r0
 5fc:	73630100 	cmnvc	r3, #0, 2
 600:	65303431 	ldrvs	r3, [r0, #-1073]!	; 0x431
 604:	6372732d 	cmnvs	r2, #-1275068416	; 0xb4000000
 608:	73552f00 	cmpvc	r5, #0, 30
 60c:	2f737265 	svccs	0x00737265
 610:	61697262 	cmnvs	r9, r2, ror #4
 614:	6e756a6e 	vsubvs.f32	s13, s10, s29
 618:	7365442f 	cmnvc	r5, #788529152	; 0x2f000000
 61c:	706f746b 	rsbvc	r7, pc, fp, ror #8
 620:	6863732f 	stmdavs	r3!, {r0, r1, r2, r3, r5, r8, r9, ip, sp, lr}^
 624:	2f6c6f6f 	svccs	0x006c6f6f
 628:	746e6957 	strbtvc	r6, [lr], #-2391	; 0x957
 62c:	39317265 	ldmdbcc	r1!, {r0, r2, r5, r6, r9, ip, sp, lr}
 630:	432f3032 	teqmi	pc, #50	; 0x32
 634:	30343153 	eorscc	r3, r4, r3, asr r1
 638:	73632f45 	cmnvc	r3, #276	; 0x114
 63c:	65303431 	ldrvs	r3, [r0, #-1073]!	; 0x431
 640:	7730322d 	ldrvc	r3, [r0, -sp, lsr #4]!
 644:	6c2f6e69 	stcvs	14, cr6, [pc], #-420	; 4a8 <_start-0x7b58>
 648:	69706269 	ldmdbvs	r0!, {r0, r3, r5, r6, r9, sp, lr}^
 64c:	73630000 	cmnvc	r3, #0
 650:	74726174 	ldrbtvc	r6, [r2], #-372	; 0x174
 654:	0100632e 	tsteq	r0, lr, lsr #6
 658:	70720000 	rsbsvc	r0, r2, r0
 65c:	00682e69 	rsbeq	r2, r8, r9, ror #28
 660:	00000002 	andeq	r0, r0, r2
 664:	24020500 	strcs	r0, [r2], #-1280	; 0x500
 668:	03000088 	movweq	r0, #136	; 0x88
 66c:	3132010c 	teqcc	r2, ip, lsl #2
 670:	002f2d2f 	eoreq	r2, pc, pc, lsr #26
 674:	49010402 	stmdbmi	r1, {r1, sl}
 678:	2f4a0f03 	svccs	0x004a0f03
 67c:	01000602 	tsteq	r0, r2, lsl #12
 680:	00009901 	andeq	r9, r0, r1, lsl #18
 684:	77000200 	strvc	r0, [r0, -r0, lsl #4]
 688:	02000000 	andeq	r0, r0, #0
 68c:	0d0efb01 	vstreq	d15, [lr, #-4]
 690:	01010100 	mrseq	r0, (UNDEF: 17)
 694:	00000001 	andeq	r0, r0, r1
 698:	01000001 	tsteq	r0, r1
 69c:	34317363 	ldrtcc	r7, [r1], #-867	; 0x363
 6a0:	732d6530 	teqvc	sp, #48, 10	; 0xc000000
 6a4:	2f006372 	svccs	0x00006372
 6a8:	72657355 	rsbvc	r7, r5, #1409286145	; 0x54000001
 6ac:	72622f73 	rsbvc	r2, r2, #460	; 0x1cc
 6b0:	6a6e6169 	bvs	1b98c5c <__bss_end__+0x1b8f4d4>
 6b4:	442f6e75 	strtmi	r6, [pc], #-3701	; 6bc <_start-0x7944>
 6b8:	746b7365 	strbtvc	r7, [fp], #-869	; 0x365
 6bc:	732f706f 	teqvc	pc, #111	; 0x6f
 6c0:	6f6f6863 	svcvs	0x006f6863
 6c4:	69572f6c 	ldmdbvs	r7, {r2, r3, r5, r6, r8, r9, sl, fp, sp}^
 6c8:	7265746e 	rsbvc	r7, r5, #1845493760	; 0x6e000000
 6cc:	30323931 	eorscc	r3, r2, r1, lsr r9
 6d0:	3153432f 	cmpcc	r3, pc, lsr #6
 6d4:	2f453034 	svccs	0x00453034
 6d8:	34317363 	ldrtcc	r7, [r1], #-867	; 0x363
 6dc:	322d6530 	eorcc	r6, sp, #48, 10	; 0xc000000
 6e0:	6e697730 	mcrvs	7, 3, r7, cr9, cr0, {1}
 6e4:	62696c2f 	rsbvs	r6, r9, #12032	; 0x2f00
 6e8:	00006970 	andeq	r6, r0, r0, ror r9
 6ec:	6f626572 	svcvs	0x00626572
 6f0:	632e746f 	teqvs	lr, #1862270976	; 0x6f000000
 6f4:	00000100 	andeq	r0, r0, r0, lsl #2
 6f8:	2e697072 	mcrcs	0, 3, r7, cr9, cr2, {3}
 6fc:	00020068 	andeq	r0, r2, r8, rrx
 700:	05000000 	streq	r0, [r0, #-0]
 704:	00885802 	addeq	r5, r8, r2, lsl #16
 708:	010d0300 	mrseq	r0, SP_mon
 70c:	852f3114 	strhi	r3, [pc, #-276]!	; 600 <_start-0x7a00>
 710:	4d4b2f15 	stclmi	15, cr2, [fp, #-84]	; 0xffffffac
 714:	5235672f 	eorspl	r6, r5, #12320768	; 0xbc0000
 718:	00100267 	andseq	r0, r0, r7, ror #4
 71c:	00a30101 	adceq	r0, r3, r1, lsl #2
 720:	00020000 	andeq	r0, r2, r0
 724:	00000076 	andeq	r0, r0, r6, ror r0
 728:	0efb0102 	cdpeq	1, 15, cr0, cr11, cr2, {0}
 72c:	0101000d 	tsteq	r1, sp
 730:	00000101 	andeq	r0, r0, r1, lsl #2
 734:	00000100 	andeq	r0, r0, r0, lsl #2
 738:	31736301 	cmncc	r3, r1, lsl #6
 73c:	2d653034 	stclcs	0, cr3, [r5, #-208]!	; 0xffffff30
 740:	00637273 	rsbeq	r7, r3, r3, ror r2
 744:	6573552f 	ldrbvs	r5, [r3, #-1327]!	; 0x52f
 748:	622f7372 	eorvs	r7, pc, #-939524095	; 0xc8000001
 74c:	6e616972 	mcrvs	9, 3, r6, cr1, cr2, {3}
 750:	2f6e756a 	svccs	0x006e756a
 754:	6b736544 	blvs	1cd9c6c <__bss_end__+0x1cd04e4>
 758:	2f706f74 	svccs	0x00706f74
 75c:	6f686373 	svcvs	0x00686373
 760:	572f6c6f 	strpl	r6, [pc, -pc, ror #24]!
 764:	65746e69 	ldrbvs	r6, [r4, #-3689]!	; 0xe69
 768:	32393172 	eorscc	r3, r9, #-2147483620	; 0x8000001c
 76c:	53432f30 	movtpl	r2, #16176	; 0x3f30
 770:	45303431 	ldrmi	r3, [r0, #-1073]!	; 0x431
 774:	3173632f 	cmncc	r3, pc, lsr #6
 778:	2d653034 	stclcs	0, cr3, [r5, #-208]!	; 0xffffff30
 77c:	69773032 	ldmdbvs	r7!, {r1, r4, r5, ip, sp}^
 780:	696c2f6e 	stmdbvs	ip!, {r1, r2, r3, r5, r6, r8, r9, sl, fp, sp}^
 784:	00697062 	rsbeq	r7, r9, r2, rrx
 788:	6d697400 	cfstrdvs	mvd7, [r9, #-0]
 78c:	632e7265 	teqvs	lr, #1342177286	; 0x50000006
 790:	00000100 	andeq	r0, r0, r0, lsl #2
 794:	2e697072 	mcrcs	0, 3, r7, cr9, cr2, {3}
 798:	00020068 	andeq	r0, r2, r8, rrx
 79c:	05000000 	streq	r0, [r0, #-0]
 7a0:	0088cc02 	addeq	ip, r8, r2, lsl #24
 7a4:	2f141600 	svccs	0x00141600
 7a8:	0402002d 	streq	r0, [r2], #-45	; 0x2d
 7ac:	062e0601 	strteq	r0, [lr], -r1, lsl #12
 7b0:	4b2f316d 	blmi	bccd6c <__bss_end__+0xbc35e4>
 7b4:	3031324d 	eorscc	r3, r1, sp, asr #4
 7b8:	6a2f4c4b 	bvs	bd38ec <__bss_end__+0xbca164>
 7bc:	2f842f2f 	svccs	0x00842f2f
 7c0:	01000802 	tsteq	r0, r2, lsl #16
 7c4:	00017f01 	andeq	r7, r1, r1, lsl #30
 7c8:	ca000200 	bgt	fd0 <_start-0x7030>
 7cc:	02000000 	andeq	r0, r0, #0
 7d0:	0d0efb01 	vstreq	d15, [lr, #-4]
 7d4:	01010100 	mrseq	r0, (UNDEF: 17)
 7d8:	00000001 	andeq	r0, r0, r1
 7dc:	01000001 	tsteq	r0, r1
 7e0:	732d796d 	teqvc	sp, #1785856	; 0x1b4000
 7e4:	2f006372 	svccs	0x00006372
 7e8:	72657355 	rsbvc	r7, r5, #1409286145	; 0x54000001
 7ec:	72622f73 	rsbvc	r2, r2, #460	; 0x1cc
 7f0:	6a6e6169 	bvs	1b98d9c <__bss_end__+0x1b8f614>
 7f4:	442f6e75 	strtmi	r6, [pc], #-3701	; 7fc <_start-0x7804>
 7f8:	746b7365 	strbtvc	r7, [fp], #-869	; 0x365
 7fc:	732f706f 	teqvc	pc, #111	; 0x6f
 800:	6f6f6863 	svcvs	0x006f6863
 804:	69572f6c 	ldmdbvs	r7, {r2, r3, r5, r6, r8, r9, sl, fp, sp}^
 808:	7265746e 	rsbvc	r7, r5, #1845493760	; 0x6e000000
 80c:	30323931 	eorscc	r3, r2, r1, lsr r9
 810:	3153432f 	cmpcc	r3, pc, lsr #6
 814:	2f453034 	svccs	0x00453034
 818:	34317363 	ldrtcc	r7, [r1], #-867	; 0x363
 81c:	322d6530 	eorcc	r6, sp, #48, 10	; 0xc000000
 820:	6e697730 	mcrvs	7, 3, r7, cr9, cr0, {1}
 824:	62696c2f 	rsbvs	r6, r9, #12032	; 0x2f00
 828:	632f6970 	teqvs	pc, #112, 18	; 0x1c0000
 82c:	30343173 	eorscc	r3, r4, r3, ror r1
 830:	72732d65 	rsbsvc	r2, r3, #6464	; 0x1940
 834:	552f0063 	strpl	r0, [pc, #-99]!	; 7d9 <_start-0x7827>
 838:	73726573 	cmnvc	r2, #482344960	; 0x1cc00000
 83c:	6972622f 	ldmdbvs	r2!, {r0, r1, r2, r3, r5, r9, sp, lr}^
 840:	756a6e61 	strbvc	r6, [sl, #-3681]!	; 0xe61
 844:	65442f6e 	strbvs	r2, [r4, #-3950]	; 0xf6e
 848:	6f746b73 	svcvs	0x00746b73
 84c:	63732f70 	cmnvs	r3, #112, 30	; 0x1c0
 850:	6c6f6f68 	stclvs	15, cr6, [pc], #-416	; 6b8 <_start-0x7948>
 854:	6e69572f 	cdpvs	7, 6, cr5, cr9, cr15, {1}
 858:	31726574 	cmncc	r2, r4, ror r5
 85c:	2f303239 	svccs	0x00303239
 860:	34315343 	ldrtcc	r5, [r1], #-835	; 0x343
 864:	632f4530 	teqvs	pc, #48, 10	; 0xc000000
 868:	30343173 	eorscc	r3, r4, r3, ror r1
 86c:	30322d65 	eorscc	r2, r2, r5, ror #26
 870:	2f6e6977 	svccs	0x006e6977
 874:	7062696c 	rsbvc	r6, r2, ip, ror #18
 878:	67000069 	strvs	r0, [r0, -r9, rrx]
 87c:	2e6f6970 	mcrcs	9, 3, r6, cr15, cr0, {3}
 880:	00010063 	andeq	r0, r1, r3, rrx
 884:	69706700 	ldmdbvs	r0!, {r8, r9, sl, sp, lr}^
 888:	00682e6f 	rsbeq	r2, r8, pc, ror #28
 88c:	72000002 	andvc	r0, r0, #2
 890:	682e6970 	stmdavs	lr!, {r4, r5, r6, r8, fp, sp, lr}
 894:	00000300 	andeq	r0, r0, r0, lsl #6
 898:	02050000 	andeq	r0, r5, #0
 89c:	00008954 	andeq	r8, r0, r4, asr r9
 8a0:	4e013e03 	cdpmi	14, 0, cr3, cr1, cr3, {0}
 8a4:	21086950 	tstcs	r8, r0, asr r9
 8a8:	67676767 	strbvs	r6, [r7, -r7, ror #14]!
 8ac:	4b326767 	blmi	c9a650 <__bss_end__+0xc90ec8>
 8b0:	31dc2208 	bicscc	r2, ip, r8, lsl #4
 8b4:	504e1351 	subpl	r1, lr, r1, asr r3
 8b8:	5031be30 	eorspl	fp, r1, r0, lsr lr
 8bc:	304f4d13 	subcc	r4, pc, r3, lsl sp	; <UNPREDICTABLE>
 8c0:	69504cc0 	ldmdbvs	r0, {r6, r7, sl, fp, lr}^
 8c4:	67672108 	strbvs	r2, [r7, -r8, lsl #2]!
 8c8:	67676767 	strbvs	r6, [r7, -r7, ror #14]!
 8cc:	21084b32 	tstcs	r8, r2, lsr fp
 8d0:	2f504ca4 	svccs	0x00504ca4
 8d4:	75036984 	strvc	r6, [r3, #-2436]	; 0x984
 8d8:	2e0c0382 	cdpcs	3, 0, cr0, cr12, cr2, {4}
 8dc:	4b4e304d 	blmi	138ca18 <__bss_end__+0x1383290>
 8e0:	6b6a4d4c 	blvs	1a93e18 <__bss_end__+0x1a8a690>
 8e4:	67210869 	strvs	r0, [r1, -r9, ror #16]!
 8e8:	67676767 	strbvs	r6, [r7, -r7, ror #14]!
 8ec:	084b3267 	stmdaeq	fp, {r0, r1, r2, r5, r6, r9, ip, sp}^
 8f0:	5130c022 	teqpl	r0, r2, lsr #32
 8f4:	30504e13 	subscc	r4, r0, r3, lsl lr
 8f8:	31ba1803 			; <UNDEFINED> instruction: 0x31ba1803
 8fc:	522f4c9f 	eorpl	r4, pc, #40704	; 0x9f00
 900:	4b2f4e4d 	blmi	bd423c <__bss_end__+0xbcaab4>
 904:	67684b67 	strbvs	r4, [r8, -r7, ror #22]!
 908:	672f4c67 	strvs	r4, [pc, -r7, ror #24]!
 90c:	4c6e4b2f 	stclmi	11, cr4, [lr], #-188	; 0xffffff44
 910:	674b2f4e 	strbvs	r2, [fp, -lr, asr #30]
 914:	6767684b 	strbvs	r6, [r7, -fp, asr #16]!
 918:	2f672f4c 	svccs	0x00672f4c
 91c:	4e4b6d4b 	cdpmi	13, 4, cr6, cr11, cr11, {2}
 920:	00674b2f 	rsbeq	r4, r7, pc, lsr #22
 924:	06010402 	streq	r0, [r1], -r2, lsl #8
 928:	9f680666 	svcls	0x00680666
 92c:	0402002f 	streq	r0, [r2], #-47	; 0x2f
 930:	064a0601 	strbeq	r0, [sl], -r1, lsl #12
 934:	73032f68 	movwvc	r2, #16232	; 0x3f68
 938:	2e0e034a 	cdpcs	3, 0, cr0, cr14, cr10, {2}
 93c:	2f4e4c4d 	svccs	0x004e4c4d
 940:	02bcbc4b 	adcseq	fp, ip, #19200	; 0x4b00
 944:	01010006 	tsteq	r1, r6
 948:	00000101 	andeq	r0, r0, r1, lsl #2
 94c:	00ca0002 	sbceq	r0, sl, r2
 950:	01020000 	mrseq	r0, (UNDEF: 2)
 954:	000d0efb 	strdeq	r0, [sp], -fp
 958:	01010101 	tsteq	r1, r1, lsl #2
 95c:	01000000 	mrseq	r0, (UNDEF: 0)
 960:	6d010000 	stcvs	0, cr0, [r1, #-0]
 964:	72732d79 	rsbsvc	r2, r3, #7744	; 0x1e40
 968:	552f0063 	strpl	r0, [pc, #-99]!	; 90d <_start-0x76f3>
 96c:	73726573 	cmnvc	r2, #482344960	; 0x1cc00000
 970:	6972622f 	ldmdbvs	r2!, {r0, r1, r2, r3, r5, r9, sp, lr}^
 974:	756a6e61 	strbvc	r6, [sl, #-3681]!	; 0xe61
 978:	65442f6e 	strbvs	r2, [r4, #-3950]	; 0xf6e
 97c:	6f746b73 	svcvs	0x00746b73
 980:	63732f70 	cmnvs	r3, #112, 30	; 0x1c0
 984:	6c6f6f68 	stclvs	15, cr6, [pc], #-416	; 7ec <_start-0x7814>
 988:	6e69572f 	cdpvs	7, 6, cr5, cr9, cr15, {1}
 98c:	31726574 	cmncc	r2, r4, ror r5
 990:	2f303239 	svccs	0x00303239
 994:	34315343 	ldrtcc	r5, [r1], #-835	; 0x343
 998:	632f4530 	teqvs	pc, #48, 10	; 0xc000000
 99c:	30343173 	eorscc	r3, r4, r3, ror r1
 9a0:	30322d65 	eorscc	r2, r2, r5, ror #26
 9a4:	2f6e6977 	svccs	0x006e6977
 9a8:	7062696c 	rsbvc	r6, r2, ip, ror #18
 9ac:	73632f69 	cmnvc	r3, #420	; 0x1a4
 9b0:	65303431 	ldrvs	r3, [r0, #-1073]!	; 0x431
 9b4:	6372732d 	cmnvs	r2, #-1275068416	; 0xb4000000
 9b8:	73552f00 	cmpvc	r5, #0, 30
 9bc:	2f737265 	svccs	0x00737265
 9c0:	61697262 	cmnvs	r9, r2, ror #4
 9c4:	6e756a6e 	vsubvs.f32	s13, s10, s29
 9c8:	7365442f 	cmnvc	r5, #788529152	; 0x2f000000
 9cc:	706f746b 	rsbvc	r7, pc, fp, ror #8
 9d0:	6863732f 	stmdavs	r3!, {r0, r1, r2, r3, r5, r8, r9, ip, sp, lr}^
 9d4:	2f6c6f6f 	svccs	0x006c6f6f
 9d8:	746e6957 	strbtvc	r6, [lr], #-2391	; 0x957
 9dc:	39317265 	ldmdbcc	r1!, {r0, r2, r5, r6, r9, ip, sp, lr}
 9e0:	432f3032 	teqmi	pc, #50	; 0x32
 9e4:	30343153 	eorscc	r3, r4, r3, asr r1
 9e8:	73632f45 	cmnvc	r3, #276	; 0x114
 9ec:	65303431 	ldrvs	r3, [r0, #-1073]!	; 0x431
 9f0:	7730322d 	ldrvc	r3, [r0, -sp, lsr #4]!
 9f4:	6c2f6e69 	stcvs	14, cr6, [pc], #-420	; 858 <_start-0x77a8>
 9f8:	69706269 	ldmdbvs	r0!, {r0, r3, r5, r6, r9, sp, lr}^
 9fc:	61750000 	cmnvs	r5, r0
 a00:	632e7472 	teqvs	lr, #1912602624	; 0x72000000
 a04:	00000100 	andeq	r0, r0, r0, lsl #2
 a08:	6f697067 	svcvs	0x00697067
 a0c:	0200682e 	andeq	r6, r0, #3014656	; 0x2e0000
 a10:	70720000 	rsbsvc	r0, r2, r0
 a14:	00682e69 	rsbeq	r2, r8, r9, ror #28
 a18:	00000003 	andeq	r0, r0, r3
 a1c:	f4020500 	vst3.8	{d0,d2,d4}, [r2], r0
 a20:	0300008e 	movweq	r0, #142	; 0x8e
 a24:	33300136 	teqcc	r0, #-2147483635	; 0x8000000d
 a28:	d8306d67 	ldmdale	r0!, {r0, r1, r2, r5, r6, r8, sl, fp, sp, lr}
 a2c:	67676730 			; <UNDEFINED> instruction: 0x67676730
 a30:	86686767 	strbthi	r6, [r8], -r7, ror #14
 a34:	306a672f 	rsbcc	r6, sl, pc, lsr #14
 a38:	2f696767 	svccs	0x00696767
 a3c:	674c6a67 	strbvs	r6, [ip, -r7, ror #20]
 a40:	302f2fc1 	eorcc	r2, pc, r1, asr #31
 a44:	3049682f 	subcc	r6, r9, pc, lsr #16
 a48:	01000202 	tsteq	r0, r2, lsl #4
 a4c:	00008a01 	andeq	r8, r0, r1, lsl #20
 a50:	72000200 	andvc	r0, r0, #0, 4
 a54:	02000000 	andeq	r0, r0, #0
 a58:	0d0efb01 	vstreq	d15, [lr, #-4]
 a5c:	01010100 	mrseq	r0, (UNDEF: 17)
 a60:	00000001 	andeq	r0, r0, r1
 a64:	01000001 	tsteq	r0, r1
 a68:	6362696c 	cmnvs	r2, #108, 18	; 0x1b0000
 a6c:	73552f00 	cmpvc	r5, #0, 30
 a70:	2f737265 	svccs	0x00737265
 a74:	61697262 	cmnvs	r9, r2, ror #4
 a78:	6e756a6e 	vsubvs.f32	s13, s10, s29
 a7c:	7365442f 	cmnvc	r5, #788529152	; 0x2f000000
 a80:	706f746b 	rsbvc	r7, pc, fp, ror #8
 a84:	6863732f 	stmdavs	r3!, {r0, r1, r2, r3, r5, r8, r9, ip, sp, lr}^
 a88:	2f6c6f6f 	svccs	0x006c6f6f
 a8c:	746e6957 	strbtvc	r6, [lr], #-2391	; 0x957
 a90:	39317265 	ldmdbcc	r1!, {r0, r2, r5, r6, r9, ip, sp, lr}
 a94:	432f3032 	teqmi	pc, #50	; 0x32
 a98:	30343153 	eorscc	r3, r4, r3, asr r1
 a9c:	73632f45 	cmnvc	r3, #276	; 0x114
 aa0:	65303431 	ldrvs	r3, [r0, #-1073]!	; 0x431
 aa4:	7730322d 	ldrvc	r3, [r0, -sp, lsr #4]!
 aa8:	6c2f6e69 	stcvs	14, cr6, [pc], #-420	; 90c <_start-0x76f4>
 aac:	69706269 	ldmdbvs	r0!, {r0, r3, r5, r6, r9, sp, lr}^
 ab0:	75700000 	ldrbvc	r0, [r0, #-0]!
 ab4:	61686374 	smcvs	34356	; 0x8634
 ab8:	00632e72 	rsbeq	r2, r3, r2, ror lr
 abc:	72000001 	andvc	r0, r0, #1
 ac0:	682e6970 	stmdavs	lr!, {r4, r5, r6, r8, fp, sp, lr}
 ac4:	00000200 	andeq	r0, r0, r0, lsl #4
 ac8:	02050000 	andeq	r0, r5, #0
 acc:	000090ac 	andeq	r9, r0, ip, lsr #1
 ad0:	136b4a14 	cmnne	fp, #20, 20	; 0x14000
 ad4:	080213bc 	stmdaeq	r2, {r2, r3, r4, r5, r7, r8, r9, ip}
 ad8:	Address 0x0000000000000ad8 is out of bounds.


Disassembly of section .debug_str:

00000000 <.debug_str>:
   0:	676e6f6c 	strbvs	r6, [lr, -ip, ror #30]!
   4:	6e6f6c20 	cdpvs	12, 6, cr6, cr15, cr0, {1}
   8:	6e692067 	cdpvs	0, 6, cr2, cr9, cr7, {3}
   c:	70670074 	rsbvc	r0, r7, r4, ror r0
  10:	735f6f69 	cmpvc	pc, #420	; 0x1a4
  14:	695f7465 	ldmdbvs	pc, {r0, r2, r5, r6, sl, ip, sp, lr}^	; <UNPREDICTABLE>
  18:	7475706e 	ldrbtvc	r7, [r5], #-110	; 0x6e
  1c:	69706700 	ldmdbvs	r0!, {r8, r9, sl, sp, lr}^
  20:	65735f6f 	ldrbvs	r5, [r3, #-3951]!	; 0xf6f
  24:	75705f74 	ldrbvc	r5, [r0, #-3956]!	; 0xf74
  28:	70756c6c 	rsbsvc	r6, r5, ip, ror #24
  2c:	2e6e6f00 	cdpcs	15, 6, cr6, cr14, cr0, {0}
  30:	6f6c0063 	svcvs	0x006c0063
  34:	6c20676e 	stcvs	7, cr6, [r0], #-440	; 0xfffffe48
  38:	20676e6f 	rsbcs	r6, r7, pc, ror #28
  3c:	69736e75 	ldmdbvs	r3!, {r0, r2, r4, r5, r6, r9, sl, fp, sp, lr}^
  40:	64656e67 	strbtvs	r6, [r5], #-3687	; 0xe67
  44:	746e6920 	strbtvc	r6, [lr], #-2336	; 0x920
  48:	736e7500 	cmnvc	lr, #0, 10
  4c:	656e6769 	strbvs	r6, [lr, #-1897]!	; 0x769
  50:	68632064 	stmdavs	r3!, {r2, r5, r6, sp}^
  54:	75007261 	strvc	r7, [r0, #-609]	; 0x261
  58:	5f747261 	svcpl	0x00747261
  5c:	74696e69 	strbtvc	r6, [r9], #-3689	; 0xe69
  60:	656c6300 	strbvs	r6, [ip, #-768]!	; 0x300
  64:	725f6e61 	subsvc	r6, pc, #1552	; 0x610
  68:	6f6f6265 	svcvs	0x006f6265
  6c:	6f6e0074 	svcvs	0x006e0074
  70:	69616d74 	stmdbvs	r1!, {r2, r4, r5, r6, r8, sl, fp, sp, lr}^
  74:	7067006e 	rsbvc	r0, r7, lr, rrx
  78:	735f6f69 	cmpvc	pc, #420	; 0x1a4
  7c:	705f7465 	subsvc	r7, pc, r5, ror #8
  80:	646c6c75 	strbtvs	r6, [ip], #-3189	; 0xc75
  84:	006e776f 	rsbeq	r7, lr, pc, ror #14
  88:	6573552f 	ldrbvs	r5, [r3, #-1327]!	; 0x52f
  8c:	622f7372 	eorvs	r7, pc, #-939524095	; 0xc8000001
  90:	6e616972 	mcrvs	9, 3, r6, cr1, cr2, {3}
  94:	2f6e756a 	svccs	0x006e756a
  98:	6b736544 	blvs	1cd95b0 <__bss_end__+0x1ccfe28>
  9c:	2f706f74 	svccs	0x00706f74
  a0:	6f686373 	svcvs	0x00686373
  a4:	532f6c6f 	teqpl	pc, #28416	; 0x6f00
  a8:	6e697270 	mcrvs	2, 3, r7, cr9, cr0, {3}
  ac:	32393167 	eorscc	r3, r9, #-1073741799	; 0xc0000019
  b0:	53432f30 	movtpl	r2, #16176	; 0x3f30
  b4:	4c303432 	cfldrsmi	mvf3, [r0], #-200	; 0xffffff38
  b8:	73632f58 	cmnvc	r3, #88, 30	; 0x160
  bc:	6c303432 	cfldrsvs	mvf3, [r0], #-200	; 0xffffff38
  c0:	30322d78 	eorscc	r2, r2, r8, ror sp
  c4:	2f727073 	svccs	0x00727073
  c8:	7362616c 	cmnvc	r2, #108, 2
  cc:	642d362f 	strtvs	r3, [sp], #-1583	; 0x62f
  d0:	74696769 	strbtvc	r6, [r9], #-1897	; 0x769
  d4:	302f6c61 	eorcc	r6, pc, r1, ror #24
  d8:	6c75702d 	ldclvs	0, cr7, [r5], #-180	; 0xffffff4c
  dc:	2f70756c 	svccs	0x0070756c
  e0:	65646f63 	strbvs	r6, [r4, #-3939]!	; 0xf63
  e4:	6f687300 	svcvs	0x00687300
  e8:	75207472 	strvc	r7, [r0, #-1138]!	; 0x472
  ec:	6769736e 	strbvs	r7, [r9, -lr, ror #6]!
  f0:	2064656e 	rsbcs	r6, r4, lr, ror #10
  f4:	00746e69 	rsbseq	r6, r4, r9, ror #28
  f8:	726f6873 	rsbvc	r6, pc, #7536640	; 0x730000
  fc:	6e692074 	mcrvs	0, 3, r2, cr9, cr4, {3}
 100:	4e470074 	mcrmi	0, 2, r0, cr7, cr4, {3}
 104:	20432055 	subcs	r2, r3, r5, asr r0
 108:	2e382e34 	mrccs	14, 1, r2, cr8, cr4, {1}
 10c:	6d2d2033 	stcvs	0, cr2, [sp, #-204]!	; 0xffffff34
 110:	3d757063 	ldclcc	0, cr7, [r5, #-396]!	; 0xfffffe74
 114:	316d7261 	cmncc	sp, r1, ror #4
 118:	6a363731 	bvs	d8dde4 <__bss_end__+0xd8465c>
 11c:	732d667a 	teqvc	sp, #127926272	; 0x7a00000
 120:	746d2d20 	strbtvc	r2, [sp], #-3360	; 0xd20
 124:	3d656e75 	stclcc	14, cr6, [r5, #-468]!	; 0xfffffe2c
 128:	316d7261 	cmncc	sp, r1, ror #4
 12c:	6a363731 	bvs	d8ddf8 <__bss_end__+0xd84670>
 130:	732d667a 	teqvc	sp, #127926272	; 0x7a00000
 134:	67672d20 	strbvs	r2, [r7, -r0, lsr #26]!
 138:	2d206264 	sfmcs	f6, 4, [r0, #-400]!	; 0xfffffe70
 13c:	2d20674f 	stccs	7, cr6, [r0, #-316]!	; 0xfffffec4
 140:	3d647473 	cfstrdcc	mvd7, [r4, #-460]!	; 0xfffffe34
 144:	39756e67 	ldmdbcc	r5!, {r0, r1, r2, r5, r6, r9, sl, fp, sp, lr}^
 148:	662d2039 			; <UNDEFINED> instruction: 0x662d2039
 14c:	65657266 	strbvs	r7, [r5, #-614]!	; 0x266
 150:	6e617473 	mcrvs	4, 3, r7, cr1, cr3, {3}
 154:	676e6964 	strbvs	r6, [lr, -r4, ror #18]!
 158:	61662d20 	cmnvs	r6, r0, lsr #26
 15c:	6e67696c 	cdpvs	9, 6, cr6, cr7, cr12, {3}
 160:	6e75662d 	cdpvs	6, 7, cr6, cr5, cr13, {1}
 164:	6f697463 	svcvs	0x00697463
 168:	343d736e 	ldrtcc	r7, [sp], #-878	; 0x36e
 16c:	7a697300 	bvc	1a5cd74 <__bss_end__+0x1a535ec>
 170:	70797465 	rsbsvc	r7, r9, r5, ror #8
 174:	75700065 	ldrbvc	r0, [r0, #-101]!	; 0x65
 178:	666f5f64 	strbtvs	r5, [pc], -r4, ror #30
 17c:	74657366 	strbtvc	r7, [r5], #-870	; 0x366
 180:	69706700 	ldmdbvs	r0!, {r8, r9, sl, sp, lr}^
 184:	75702d6f 	ldrbvc	r2, [r0, #-3439]!	; 0xd6f
 188:	00632e64 	rsbeq	r2, r3, r4, ror #28
 18c:	55505047 	ldrbpl	r5, [r0, #-71]	; 0x47
 190:	4b4c4344 	blmi	1310ea8 <__bss_end__+0x1307720>
 194:	50470030 	subpl	r0, r7, r0, lsr r0
 198:	43445550 	movtmi	r5, #17744	; 0x4550
 19c:	00314b4c 	eorseq	r4, r1, ip, asr #22
 1a0:	33747570 	cmncc	r4, #112, 10	; 0x1c000000
 1a4:	6f5f0032 	svcvs	0x005f0032
 1a8:	47007475 	smlsdxmi	r0, r5, r4, r7
 1ac:	44555050 	ldrbmi	r5, [r5], #-80	; 0x50
 1b0:	69706700 	ldmdbvs	r0!, {r8, r9, sl, sp, lr}^
 1b4:	75705f6f 	ldrbvc	r5, [r0, #-3951]!	; 0xf6f
 1b8:	666f5f64 	strbtvs	r5, [pc], -r4, ror #30
 1bc:	75700066 	ldrbvc	r0, [r0, #-102]!	; 0x66
 1c0:	6c635f64 	stclvs	15, cr5, [r3], #-400	; 0xfffffe70
 1c4:	65725f6b 	ldrbvs	r5, [r2, #-3947]!	; 0xf6b
 1c8:	5f5f0067 	svcpl	0x005f0067
 1cc:	63756e67 	cmnvs	r5, #1648	; 0x670
 1d0:	5f61765f 	svcpl	0x0061765f
 1d4:	7473696c 	ldrbtvc	r6, [r3], #-2412	; 0x96c
 1d8:	62696c00 	rsbvs	r6, r9, #0, 24
 1dc:	72702f63 	rsbsvc	r2, r0, #396	; 0x18c
 1e0:	6b746e69 	blvs	1d1bb8c <__bss_end__+0x1d12404>
 1e4:	4700632e 	strmi	r6, [r0, -lr, lsr #6]
 1e8:	4320554e 	teqmi	r0, #327155712	; 0x13800000
 1ec:	382e3420 	stmdacc	lr!, {r5, sl, ip, sp}
 1f0:	2d20332e 	stccs	3, cr3, [r0, #-184]!	; 0xffffff48
 1f4:	7570636d 	ldrbvc	r6, [r0, #-877]!	; 0x36d
 1f8:	6d72613d 	ldfvse	f6, [r2, #-244]!	; 0xffffff0c
 1fc:	36373131 			; <UNDEFINED> instruction: 0x36373131
 200:	2d667a6a 	vstmdbcs	r6!, {s15-s120}
 204:	6d2d2073 	stcvs	0, cr2, [sp, #-460]!	; 0xfffffe34
 208:	656e7574 	strbvs	r7, [lr, #-1396]!	; 0x574
 20c:	6d72613d 	ldfvse	f6, [r2, #-244]!	; 0xffffff0c
 210:	36373131 			; <UNDEFINED> instruction: 0x36373131
 214:	2d667a6a 	vstmdbcs	r6!, {s15-s120}
 218:	672d2073 			; <UNDEFINED> instruction: 0x672d2073
 21c:	20626467 	rsbcs	r6, r2, r7, ror #8
 220:	20674f2d 	rsbcs	r4, r7, sp, lsr #30
 224:	6474732d 	ldrbtvs	r7, [r4], #-813	; 0x32d
 228:	756e673d 	strbvc	r6, [lr, #-1853]!	; 0x73d
 22c:	2d203939 	stccs	9, cr3, [r0, #-228]!	; 0xffffff1c
 230:	65726666 	ldrbvs	r6, [r2, #-1638]!	; 0x666
 234:	61747365 	cmnvs	r4, r5, ror #6
 238:	6e69646e 	cdpvs	4, 6, cr6, cr9, cr14, {3}
 23c:	61760067 	cmnvs	r6, r7, rrx
 240:	6972705f 	ldmdbvs	r2!, {r0, r1, r2, r3, r4, r6, ip, sp, lr}^
 244:	006b746e 	rsbeq	r7, fp, lr, ror #8
 248:	61765f5f 	cmnvs	r6, pc, asr pc
 24c:	73696c5f 	cmnvc	r9, #24320	; 0x5f00
 250:	552f0074 	strpl	r0, [pc, #-116]!	; 1e4 <_start-0x7e1c>
 254:	73726573 	cmnvc	r2, #482344960	; 0x1cc00000
 258:	6972622f 	ldmdbvs	r2!, {r0, r1, r2, r3, r5, r9, sp, lr}^
 25c:	756a6e61 	strbvc	r6, [sl, #-3681]!	; 0xe61
 260:	65442f6e 	strbvs	r2, [r4, #-3950]	; 0xf6e
 264:	6f746b73 	svcvs	0x00746b73
 268:	63732f70 	cmnvs	r3, #112, 30	; 0x1c0
 26c:	6c6f6f68 	stclvs	15, cr6, [pc], #-416	; d4 <_start-0x7f2c>
 270:	6e69572f 	cdpvs	7, 6, cr5, cr9, cr15, {1}
 274:	31726574 	cmncc	r2, r4, ror r5
 278:	2f303239 	svccs	0x00303239
 27c:	34315343 	ldrtcc	r5, [r1], #-835	; 0x343
 280:	632f4530 	teqvs	pc, #48, 10	; 0xc000000
 284:	30343173 	eorscc	r3, r4, r3, ror r1
 288:	30322d65 	eorscc	r2, r2, r5, ror #26
 28c:	2f6e6977 	svccs	0x006e6977
 290:	7062696c 	rsbvc	r6, r2, ip, ror #18
 294:	72610069 	rsbvc	r0, r1, #105	; 0x69
 298:	5f007367 	svcpl	0x00007367
 29c:	0070615f 	rsbseq	r6, r0, pc, asr r1
 2a0:	6362696c 	cmnvs	r2, #108, 18	; 0x1b0000
 2a4:	7475702f 	ldrbtvc	r7, [r5], #-47	; 0x2f
 2a8:	00632e6b 	rsbeq	r2, r3, fp, ror #28
 2ac:	65746e69 	ldrbvs	r6, [r4, #-3689]!	; 0xe69
 2b0:	6c616e72 	stclvs	14, cr6, [r1], #-456	; 0xfffffe38
 2b4:	7475705f 	ldrbtvc	r7, [r5], #-95	; 0x5f
 2b8:	7072006b 	rsbsvc	r0, r2, fp, rrx
 2bc:	75705f69 	ldrbvc	r5, [r0, #-3945]!	; 0xf69
 2c0:	61686374 	smcvs	34356	; 0x8634
 2c4:	656e0072 	strbvs	r0, [lr, #-114]!	; 0x72
 2c8:	00705f67 	rsbseq	r5, r0, r7, ror #30
 2cc:	65766572 	ldrbvs	r6, [r6, #-1394]!	; 0x572
 2d0:	00657372 	rsbeq	r7, r5, r2, ror r3
 2d4:	69647369 	stmdbvs	r4!, {r0, r3, r5, r6, r8, r9, ip, sp, lr}^
 2d8:	00746967 	rsbseq	r6, r4, r7, ror #18
 2dc:	55465f5f 	strbpl	r5, [r6, #-3935]	; 0xf5f
 2e0:	4954434e 	ldmdbmi	r4, {r1, r2, r3, r6, r8, r9, lr}^
 2e4:	5f5f4e4f 	svcpl	0x005f4e4f
 2e8:	74757000 	ldrbtvc	r7, [r5], #-0
 2ec:	70665f73 	rsbvc	r5, r6, r3, ror pc
 2f0:	73616200 	cmnvc	r1, #0, 4
 2f4:	69730065 	ldmdbvs	r3!, {r0, r2, r5, r6}^
 2f8:	64656e67 	strbtvs	r6, [r5], #-3687	; 0xe67
 2fc:	6c00705f 	stcvs	0, cr7, [r0], {95}	; 0x5f
 300:	2f636269 	svccs	0x00636269
 304:	702d6176 	eorvc	r6, sp, r6, ror r1
 308:	746e6972 	strbtvc	r6, [lr], #-2418	; 0x972
 30c:	00632e6b 	rsbeq	r2, r3, fp, ror #28
 310:	5f697072 	svcpl	0x00697072
 314:	5f746573 	svcpl	0x00746573
 318:	7074756f 	rsbsvc	r7, r4, pc, ror #10
 31c:	77007475 	smlsdxvc	r0, r5, r4, r7
 320:	68746469 	ldmdavs	r4!, {r0, r3, r5, r6, sl, sp, lr}^
 324:	74757000 	ldrbtvc	r7, [r5], #-0
 328:	70665f63 	rsbvc	r5, r6, r3, ror #30
 32c:	69707200 	ldmdbvs	r0!, {r9, ip, sp, lr}^
 330:	7365725f 	cmnvc	r5, #-268435451	; 0xf0000005
 334:	705f7465 	subsvc	r7, pc, r5, ror #8
 338:	00637475 	rsbeq	r7, r3, r5, ror r4
 33c:	74696d65 	strbtvc	r6, [r9], #-3429	; 0xd65
 340:	69707200 	ldmdbvs	r0!, {r9, ip, sp, lr}^
 344:	6265725f 	rsbvs	r7, r5, #-268435451	; 0xf0000005
 348:	00746f6f 	rsbseq	r6, r4, pc, ror #30
 34c:	34317363 	ldrtcc	r7, [r1], #-867	; 0x363
 350:	732d6530 	teqvc	sp, #48, 10	; 0xc000000
 354:	632f6372 	teqvs	pc, #-939524095	; 0xc8000001
 358:	6e61656c 	cdpvs	5, 6, cr6, cr1, cr12, {3}
 35c:	6265722d 	rsbvs	r7, r5, #-805306366	; 0xd0000002
 360:	2e746f6f 	cdpcs	15, 7, cr6, cr4, cr15, {3}
 364:	65640063 	strbvs	r0, [r4, #-99]!	; 0x63
 368:	5f79616c 	svcpl	0x0079616c
 36c:	6300736d 	movwvs	r7, #877	; 0x36d
 370:	30343173 	eorscc	r3, r4, r3, ror r1
 374:	72732d65 	rsbsvc	r2, r3, #6464	; 0x1940
 378:	73632f63 	cmnvc	r3, #396	; 0x18c
 37c:	74726174 	ldrbtvc	r6, [r2], #-372	; 0x174
 380:	5f00632e 	svcpl	0x0000632e
 384:	7373625f 	cmnvc	r3, #-268435451	; 0xf0000005
 388:	6174735f 	cmnvs	r4, pc, asr r3
 38c:	5f5f7472 	svcpl	0x005f7472
 390:	625f5f00 	subsvs	r5, pc, #0, 30
 394:	655f7373 	ldrbvs	r7, [pc, #-883]	; 29 <_start-0x7fd7>
 398:	5f5f646e 	svcpl	0x005f646e
 39c:	73736200 	cmnvc	r3, #0, 4
 3a0:	646e655f 	strbtvs	r6, [lr], #-1375	; 0x55f
 3a4:	73635f00 	cmnvc	r3, #0, 30
 3a8:	74726174 	ldrbtvc	r6, [r2], #-372	; 0x174
 3ac:	5f746100 	svcpl	0x00746100
 3b0:	72657375 	rsbvc	r7, r5, #-738197503	; 0xd4000001
 3b4:	76656c5f 			; <UNDEFINED> instruction: 0x76656c5f
 3b8:	50006c65 	andpl	r6, r0, r5, ror #24
 3bc:	41505f4d 	cmpmi	r0, sp, asr #30
 3c0:	4f575353 	svcmi	0x00575353
 3c4:	63004452 	movwvs	r4, #1106	; 0x452
 3c8:	30343173 	eorscc	r3, r4, r3, ror r1
 3cc:	72732d65 	rsbsvc	r2, r3, #6464	; 0x1940
 3d0:	65722f63 	ldrbvs	r2, [r2, #-3939]!	; 0xf63
 3d4:	746f6f62 	strbtvc	r6, [pc], #-3938	; 3dc <_start-0x7c24>
 3d8:	5000632e 	andpl	r6, r0, lr, lsr #6
 3dc:	53525f4d 	cmppl	r2, #308	; 0x134
 3e0:	575f4354 			; <UNDEFINED> instruction: 0x575f4354
 3e4:	47464352 	smlsldmi	r4, r6, r2, r3
 3e8:	4c55465f 	mrrcmi	6, 5, r4, r5, cr15
 3ec:	45525f4c 	ldrbmi	r5, [r2, #-3916]	; 0xf4c
 3f0:	00544553 	subseq	r4, r4, r3, asr r5
 3f4:	575f4d50 			; <UNDEFINED> instruction: 0x575f4d50
 3f8:	00474f44 	subeq	r4, r7, r4, asr #30
 3fc:	5f746573 	svcpl	0x00746573
 400:	72657375 	rsbvc	r7, r5, #-738197503	; 0xd4000001
 404:	76656c5f 			; <UNDEFINED> instruction: 0x76656c5f
 408:	50006c65 	andpl	r6, r0, r5, ror #24
 40c:	32335455 	eorscc	r5, r3, #1426063360	; 0x55000000
 410:	5f4d5000 	svcpl	0x004d5000
 414:	43545352 	cmpmi	r4, #1207959553	; 0x48000001
 418:	73706300 	cmnvc	r0, #0, 6
 41c:	69740072 	ldmdbvs	r4!, {r1, r4, r5, r6}^
 420:	5f72656d 	svcpl	0x0072656d
 424:	5f746567 	svcpl	0x00746567
 428:	63657375 	cmnvs	r5, #-738197503	; 0xd4000001
 42c:	7761725f 			; <UNDEFINED> instruction: 0x7761725f
 430:	6c656400 	cfstrdvs	mvd6, [r5], #-0
 434:	735f7961 	cmpvc	pc, #1589248	; 0x184000
 438:	63006365 	movwvs	r6, #869	; 0x365
 43c:	30343173 	eorscc	r3, r4, r3, ror r1
 440:	72732d65 	rsbsvc	r2, r3, #6464	; 0x1940
 444:	69742f63 	ldmdbvs	r4!, {r0, r1, r5, r6, r8, r9, sl, fp, sp}^
 448:	2e72656d 	cdpcs	5, 7, cr6, cr2, cr13, {3}
 44c:	45470063 	strbmi	r0, [r7, #-99]	; 0x63
 450:	00323354 	eorseq	r3, r2, r4, asr r3
 454:	6b636974 	blvs	18daa2c <__bss_end__+0x18d12a4>
 458:	65640073 	strbvs	r0, [r4, #-115]!	; 0x73
 45c:	5f79616c 	svcpl	0x0079616c
 460:	6c637963 	stclvs	9, cr7, [r3], #-396	; 0xfffffe74
 464:	64007365 	strvs	r7, [r0], #-869	; 0x365
 468:	79616c65 	stmdbvc	r1!, {r0, r2, r5, r6, sl, fp, sp, lr}^
 46c:	0073755f 	rsbseq	r7, r3, pc, asr r5
 470:	656d6974 	strbvs	r6, [sp, #-2420]!	; 0x974
 474:	65675f72 	strbvs	r5, [r7, #-3954]!	; 0xf72
 478:	73755f74 	cmnvc	r5, #116, 30	; 0x1d0
 47c:	67006365 	strvs	r6, [r0, -r5, ror #6]
 480:	5f6f6970 	svcpl	0x006f6970
 484:	6e657665 	cdpvs	6, 6, cr7, cr5, cr5, {3}
 488:	65645f74 	strbvs	r5, [r4, #-3956]!	; 0xf74
 48c:	74636574 	strbtvc	r6, [r3], #-1396	; 0x574
 490:	47006465 	strmi	r6, [r0, -r5, ror #8]
 494:	45534650 	ldrbmi	r4, [r3, #-1616]	; 0x650
 498:	4700324c 	strmi	r3, [r0, -ip, asr #4]
 49c:	524c4350 	subpl	r4, ip, #80, 6	; 0x40000001
 4a0:	4e450030 	mcrmi	0, 2, r0, cr5, cr0, {1}
 4a4:	454c4241 	strbmi	r4, [ip, #-577]	; 0x241
 4a8:	5152495f 	cmppl	r2, pc, asr r9
 4ac:	00325f53 	eorseq	r5, r2, r3, asr pc
 4b0:	675f7369 	ldrbvs	r7, [pc, -r9, ror #6]
 4b4:	5f6f6970 	svcpl	0x006f6970
 4b8:	00746e69 	rsbseq	r6, r4, r9, ror #28
 4bc:	4f495047 	svcmi	0x00495047
 4c0:	4e55465f 	mrcmi	6, 2, r4, cr5, cr15, {2}
 4c4:	4e495f43 	cdpmi	15, 4, cr5, cr9, cr3, {2}
 4c8:	00545550 	subseq	r5, r4, r0, asr r5
 4cc:	6f697067 	svcvs	0x00697067
 4d0:	7465735f 	strbtvc	r7, [r5], #-863	; 0x35f
 4d4:	66666f5f 	uqsaxvs	r6, r6, pc	; <UNPREDICTABLE>
 4d8:	2d796d00 	ldclcs	13, cr6, [r9, #-0]
 4dc:	2f637273 	svccs	0x00637273
 4e0:	6f697067 	svcvs	0x00697067
 4e4:	6900632e 	stmdbvs	r0, {r1, r2, r3, r5, r8, r9, sp, lr}
 4e8:	6d5f746e 	cfldrdvs	mvd7, [pc, #-440]	; 338 <_start-0x7cc8>
 4ec:	006b7361 	rsbeq	r7, fp, r1, ror #6
 4f0:	45535047 	ldrbmi	r5, [r3, #-71]	; 0x47
 4f4:	47003054 	smlsdmi	r0, r4, r0, r3
 4f8:	54455350 	strbpl	r5, [r5], #-848	; 0x350
 4fc:	65720031 	ldrbvs	r0, [r2, #-49]!	; 0x31
 500:	74735f67 	ldrbtvc	r5, [r3], #-3943	; 0xf67
 504:	47007461 	strmi	r7, [r0, -r1, ror #8]
 508:	56454c50 			; <UNDEFINED> instruction: 0x56454c50
 50c:	50470030 	subpl	r0, r7, r0, lsr r0
 510:	3156454c 	cmpcc	r6, ip, asr #10
 514:	69706700 	ldmdbvs	r0!, {r8, r9, sl, sp, lr}^
 518:	65725f6f 	ldrbvs	r5, [r2, #-3951]!	; 0xf6f
 51c:	50470067 	subpl	r0, r7, r7, rrx
 520:	4c455346 	mcrrmi	3, 4, r5, r5, cr6
 524:	50470030 	subpl	r0, r7, r0, lsr r0
 528:	4c455346 	mcrrmi	3, 4, r5, r5, cr6
 52c:	50470031 	subpl	r0, r7, r1, lsr r0
 530:	4c455346 	mcrrmi	3, 4, r5, r5, cr6
 534:	50470033 	subpl	r0, r7, r3, lsr r0
 538:	4c455346 	mcrrmi	3, 4, r5, r5, cr6
 53c:	50470034 	subpl	r0, r7, r4, lsr r0
 540:	4c455346 	mcrrmi	3, 4, r5, r5, cr6
 544:	65640035 	strbvs	r0, [r4, #-53]!	; 0x35
 548:	61625f76 	smcvs	9718	; 0x25f6
 54c:	65697272 	strbvs	r7, [r9, #-626]!	; 0x272
 550:	70670072 	rsbvc	r0, r7, r2, ror r0
 554:	665f6f69 	ldrbvs	r6, [pc], -r9, ror #30
 558:	306c6573 	rsbcc	r6, ip, r3, ror r5
 55c:	43504700 	cmpmi	r0, #0, 14
 560:	0031524c 	eorseq	r5, r1, ip, asr #4
 564:	6f697067 	svcvs	0x00697067
 568:	6165725f 	cmnvs	r5, pc, asr r2
 56c:	70670064 	rsbvc	r0, r7, r4, rrx
 570:	695f6f69 	ldmdbvs	pc, {r0, r3, r5, r6, r8, r9, sl, fp, sp, lr}^	; <UNPREDICTABLE>
 574:	725f746e 	subsvc	r7, pc, #1845493760	; 0x6e000000
 578:	6e697369 	cdpvs	3, 6, cr7, cr9, cr9, {3}
 57c:	64655f67 	strbtvs	r5, [r5], #-3943	; 0xf67
 580:	67006567 	strvs	r6, [r0, -r7, ror #10]
 584:	5f6f6970 	svcpl	0x006f6970
 588:	5f746573 	svcpl	0x00746573
 58c:	636e7566 	cmnvs	lr, #427819008	; 0x19800000
 590:	6e6f6974 	mcrvs	9, 3, r6, cr15, cr4, {3}
 594:	52504700 	subspl	r4, r0, #0, 14
 598:	00304e45 	eorseq	r4, r0, r5, asr #28
 59c:	45525047 	ldrbmi	r5, [r2, #-71]	; 0x47
 5a0:	6700314e 	strvs	r3, [r0, -lr, asr #2]
 5a4:	5f6f6970 	svcpl	0x006f6970
 5a8:	6e657665 	cdpvs	6, 6, cr7, cr5, cr5, {3}
 5ac:	6c635f74 	stclvs	15, cr5, [r3], #-464	; 0xfffffe30
 5b0:	00726165 	rsbseq	r6, r2, r5, ror #2
 5b4:	5f515249 	svcpl	0x00515249
 5b8:	444e4550 	strbmi	r4, [lr], #-1360	; 0x550
 5bc:	5f474e49 	svcpl	0x00474e49
 5c0:	52490031 	subpl	r0, r9, #49	; 0x31
 5c4:	45505f51 	ldrbmi	r5, [r0, #-3921]	; 0xf51
 5c8:	4e49444e 	cdpmi	4, 4, cr4, cr9, cr14, {2}
 5cc:	00325f47 	eorseq	r5, r2, r7, asr #30
 5d0:	6d746962 	ldclvs	9, cr6, [r4, #-392]!	; 0xfffffe78
 5d4:	006b7361 	rsbeq	r7, fp, r1, ror #6
 5d8:	6f697067 	svcvs	0x00697067
 5dc:	6972775f 	ldmdbvs	r2!, {r0, r1, r2, r3, r4, r6, r8, r9, sl, ip, sp, lr}^
 5e0:	67006574 	smlsdxvs	r0, r4, r5, r6
 5e4:	5f6f6970 	svcpl	0x006f6970
 5e8:	30746573 	rsbscc	r6, r4, r3, ror r5
 5ec:	6e756600 	cdpvs	6, 7, cr6, cr5, cr0, {0}
 5f0:	70670063 	rsbvc	r0, r7, r3, rrx
 5f4:	745f6f69 	ldrbvc	r6, [pc], #-3945	; 5fc <_start-0x7a04>
 5f8:	6c67676f 	stclvs	7, cr6, [r7], #-444	; 0xfffffe44
 5fc:	50470065 	subpl	r0, r7, r5, rrx
 600:	30534445 	subscc	r4, r3, r5, asr #8
 604:	45504700 	ldrbmi	r4, [r0, #-1792]	; 0x700
 608:	00315344 	eorseq	r5, r1, r4, asr #6
 60c:	6f697067 	svcvs	0x00697067
 610:	7465735f 	strbtvc	r7, [r5], #-863	; 0x35f
 614:	006e6f5f 	rsbeq	r6, lr, pc, asr pc
 618:	45465047 	strbmi	r5, [r6, #-71]	; 0x47
 61c:	4700304e 	strmi	r3, [r0, -lr, asr #32]
 620:	4e454650 	mcrmi	6, 2, r4, cr5, cr0, {2}
 624:	70670031 	rsbvc	r0, r7, r1, lsr r0
 628:	735f6f69 	cmpvc	pc, #420	; 0x1a4
 62c:	6f5f7465 	svcvs	0x005f7465
 630:	75707475 	ldrbvc	r7, [r0, #-1141]!	; 0x475
 634:	50470074 	subpl	r0, r7, r4, ror r0
 638:	465f4f49 	ldrbmi	r4, [pc], -r9, asr #30
 63c:	5f434e55 	svcpl	0x00434e55
 640:	5054554f 	subspl	r5, r4, pc, asr #10
 644:	67005455 	smlsdvs	r0, r5, r4, r5
 648:	32337465 	eorscc	r7, r3, #1694498816	; 0x65000000
 64c:	69706700 	ldmdbvs	r0!, {r8, r9, sl, sp, lr}^
 650:	6e695f6f 	cdpvs	15, 6, cr5, cr9, cr15, {3}
 654:	61665f74 	smcvs	26100	; 0x65f4
 658:	6e696c6c 	cdpvs	12, 6, cr6, cr9, cr12, {3}
 65c:	64655f67 	strbtvs	r5, [r5], #-3943	; 0xf67
 660:	67006567 	strvs	r6, [r0, -r7, ror #10]
 664:	5f6f6970 	svcpl	0x006f6970
 668:	636e7566 	cmnvs	lr, #427819008	; 0x19800000
 66c:	4700745f 	smlsdmi	r0, pc, r4, r7	; <UNPREDICTABLE>
 670:	5f4f4950 	svcpl	0x004f4950
 674:	434e5546 	movtmi	r5, #58694	; 0xe546
 678:	544c415f 	strbpl	r4, [ip], #-351	; 0x15f
 67c:	50470030 	subpl	r0, r7, r0, lsr r0
 680:	465f4f49 	ldrbmi	r4, [pc], -r9, asr #30
 684:	5f434e55 	svcpl	0x00434e55
 688:	31544c41 	cmpcc	r4, r1, asr #24
 68c:	49504700 	ldmdbmi	r0, {r8, r9, sl, lr}^
 690:	55465f4f 	strbpl	r5, [r6, #-3919]	; 0xf4f
 694:	415f434e 	cmpmi	pc, lr, asr #6
 698:	0032544c 	eorseq	r5, r2, ip, asr #8
 69c:	4f495047 	svcmi	0x00495047
 6a0:	4e55465f 	mrcmi	6, 2, r4, cr5, cr15, {2}
 6a4:	4c415f43 	mcrrmi	15, 4, r5, r1, cr3
 6a8:	47003354 	smlsdmi	r0, r4, r3, r3
 6ac:	5f4f4950 	svcpl	0x004f4950
 6b0:	434e5546 	movtmi	r5, #58694	; 0xe546
 6b4:	544c415f 	strbpl	r4, [ip], #-351	; 0x15f
 6b8:	50470034 	subpl	r0, r7, r4, lsr r0
 6bc:	465f4f49 	ldrbmi	r4, [pc], -r9, asr #30
 6c0:	5f434e55 	svcpl	0x00434e55
 6c4:	35544c41 	ldrbcc	r4, [r4, #-3137]	; 0xc41
 6c8:	67657200 	strbvs	r7, [r5, -r0, lsl #4]!
 6cc:	6c65735f 	stclvs	3, cr7, [r5], #-380	; 0xfffffe84
 6d0:	00746365 	rsbseq	r6, r4, r5, ror #6
 6d4:	6f697067 	svcvs	0x00697067
 6d8:	726c635f 	rsbvc	r6, ip, #2080374785	; 0x7c000001
 6dc:	55410030 	strbpl	r0, [r1, #-48]	; 0x30
 6e0:	554d5f58 	strbpl	r5, [sp, #-3928]	; 0xf58
 6e4:	52434d5f 	subpl	r4, r3, #6080	; 0x17c0
 6e8:	4745525f 	smlsldmi	r5, r5, pc, r2	; <UNPREDICTABLE>
 6ec:	58554100 	ldmdapl	r5, {r8, lr}^
 6f0:	5f554d5f 	svcpl	0x00554d5f
 6f4:	525f4f49 	subspl	r4, pc, #292	; 0x124
 6f8:	41004745 	tstmi	r0, r5, asr #14
 6fc:	4d5f5855 	ldclmi	8, cr5, [pc, #-340]	; 5b0 <_start-0x7a50>
 700:	534d5f55 	movtpl	r5, #57173	; 0xdf55
 704:	45525f52 	ldrbmi	r5, [r2, #-3922]	; 0xf52
 708:	61750047 	cmnvs	r5, r7, asr #32
 70c:	635f7472 	cmpvs	pc, #1912602624	; 0x72000000
 710:	675f6e61 	ldrbvs	r6, [pc, -r1, ror #28]
 714:	00637465 	rsbeq	r7, r3, r5, ror #8
 718:	5f585541 	svcpl	0x00585541
 71c:	435f554d 	cmpmi	pc, #322961408	; 0x13400000
 720:	5f4c544e 	svcpl	0x004c544e
 724:	00474552 	subeq	r4, r7, r2, asr r5
 728:	74726175 	ldrbtvc	r6, [r2], #-373	; 0x175
 72c:	7361685f 	cmnvc	r1, #6225920	; 0x5f0000
 730:	7461645f 	strbtvc	r6, [r1], #-1119	; 0x45f
 734:	55410061 	strbpl	r0, [r1, #-97]	; 0x61
 738:	554d5f58 	strbpl	r5, [sp, #-3928]	; 0xf58
 73c:	5245495f 	subpl	r4, r5, #1556480	; 0x17c000
 740:	4745525f 	smlsldmi	r5, r5, pc, r2	; <UNPREDICTABLE>
 744:	72617500 	rsbvc	r7, r1, #0, 10
 748:	65675f74 	strbvs	r5, [r7, #-3956]!	; 0xf74
 74c:	41006374 	tstmi	r0, r4, ror r3
 750:	4d5f5855 	ldclmi	8, cr5, [pc, #-340]	; 604 <_start-0x79fc>
 754:	49495f55 	stmdbmi	r9, {r0, r2, r4, r6, r8, r9, sl, fp, ip, lr}^
 758:	45525f52 	ldrbmi	r5, [r2, #-3922]	; 0xf52
 75c:	61750047 	cmnvs	r5, r7, asr #32
 760:	635f7472 	cmpvs	pc, #1912602624	; 0x72000000
 764:	705f6e61 	subsvc	r6, pc, r1, ror #28
 768:	00637475 	rsbeq	r7, r3, r5, ror r4
 76c:	5f585541 	svcpl	0x00585541
 770:	42414e45 	submi	r4, r1, #1104	; 0x450
 774:	0053454c 	subseq	r4, r3, ip, asr #10
 778:	5f585541 	svcpl	0x00585541
 77c:	00515249 	subseq	r5, r1, r9, asr #4
 780:	5f585541 	svcpl	0x00585541
 784:	425f554d 	subsmi	r5, pc, #322961408	; 0x13400000
 788:	5f445541 	svcpl	0x00445541
 78c:	00474552 	subeq	r4, r7, r2, asr r5
 790:	5f585541 	svcpl	0x00585541
 794:	535f554d 	cmppl	pc, #322961408	; 0x13400000
 798:	5f544154 	svcpl	0x00544154
 79c:	00474552 	subeq	r4, r7, r2, asr r5
 7a0:	5f585541 	svcpl	0x00585541
 7a4:	535f554d 	cmppl	pc, #322961408	; 0x13400000
 7a8:	54415243 	strbpl	r5, [r1], #-579	; 0x243
 7ac:	75004843 	strvc	r4, [r0, #-2115]	; 0x843
 7b0:	5f747261 	svcpl	0x00747261
 7b4:	63747570 	cmnvs	r4, #112, 10	; 0x1c000000
 7b8:	2d796d00 	ldclcs	13, cr6, [r9, #-0]
 7bc:	2f637273 	svccs	0x00637273
 7c0:	74726175 	ldrbtvc	r6, [r2], #-373	; 0x175
 7c4:	4100632e 	tstmi	r0, lr, lsr #6
 7c8:	4d5f5855 	ldclmi	8, cr5, [pc, #-340]	; 67c <_start-0x7984>
 7cc:	434c5f55 	movtmi	r5, #53077	; 0xcf55
 7d0:	45525f52 	ldrbmi	r5, [r2, #-3922]	; 0xf52
 7d4:	55410047 	strbpl	r0, [r1, #-71]	; 0x47
 7d8:	554d5f58 	strbpl	r5, [sp, #-3928]	; 0xf58
 7dc:	52534c5f 	subspl	r4, r3, #24320	; 0x5f00
 7e0:	4745525f 	smlsldmi	r5, r5, pc, r2	; <UNPREDICTABLE>
 7e4:	72617500 	rsbvc	r7, r1, #0, 10
 7e8:	65675f74 	strbvs	r5, [r7, #-3956]!	; 0xf74
 7ec:	615f6374 	cmpvs	pc, r4, ror r3	; <UNPREDICTABLE>
 7f0:	636e7973 	cmnvs	lr, #1884160	; 0x1cc000
 7f4:	746e6900 	strbtvc	r6, [lr], #-2304	; 0x900
 7f8:	616e7265 	cmnvs	lr, r5, ror #4
 7fc:	75705f6c 	ldrbvc	r5, [r0, #-3948]!	; 0xf6c
 800:	61686374 	smcvs	34356	; 0x8634
 804:	696c0072 	stmdbvs	ip!, {r1, r4, r5, r6}^
 808:	702f6362 	eorvc	r6, pc, r2, ror #6
 80c:	68637475 	stmdavs	r3!, {r0, r2, r4, r5, r6, sl, ip, sp, lr}^
 810:	632e7261 	teqvs	lr, #268435462	; 0x10000006
 814:	69707200 	ldmdbvs	r0!, {r9, ip, sp, lr}^
 818:	7465735f 	strbtvc	r7, [r5], #-863	; 0x35f
 81c:	7475705f 	ldrbtvc	r7, [r5], #-95	; 0x5f
 820:	Address 0x0000000000000820 is out of bounds.


Disassembly of section .debug_frame:

00000000 <.debug_frame>:
   0:	0000000c 	andeq	r0, r0, ip
   4:	ffffffff 			; <UNDEFINED> instruction: 0xffffffff
   8:	7c020001 	stcvc	0, cr0, [r2], {1}
   c:	000d0c0e 	andeq	r0, sp, lr, lsl #24
  10:	00000014 	andeq	r0, r0, r4, lsl r0
  14:	00000000 	andeq	r0, r0, r0
  18:	00008010 	andeq	r8, r0, r0, lsl r0
  1c:	00000054 	andeq	r0, r0, r4, asr r0
  20:	83080e42 	movwhi	r0, #36418	; 0x8e42
  24:	00018e02 	andeq	r8, r1, r2, lsl #28
  28:	0000000c 	andeq	r0, r0, ip
  2c:	ffffffff 			; <UNDEFINED> instruction: 0xffffffff
  30:	7c020001 	stcvc	0, cr0, [r2], {1}
  34:	000d0c0e 	andeq	r0, sp, lr, lsl #24
  38:	00000018 	andeq	r0, r0, r8, lsl r0
  3c:	00000028 	andeq	r0, r0, r8, lsr #32
  40:	00008064 	andeq	r8, r0, r4, rrx
  44:	000000b4 	strheq	r0, [r0], -r4
  48:	83100e42 	tsthi	r0, #1056	; 0x420
  4c:	85038404 	strhi	r8, [r3, #-1028]	; 0x404
  50:	00018e02 	andeq	r8, r1, r2, lsl #28
  54:	00000018 	andeq	r0, r0, r8, lsl r0
  58:	00000028 	andeq	r0, r0, r8, lsr #32
  5c:	00008118 	andeq	r8, r0, r8, lsl r1
  60:	000000b4 	strheq	r0, [r0], -r4
  64:	83100e42 	tsthi	r0, #1056	; 0x420
  68:	85038404 	strhi	r8, [r3, #-1028]	; 0x404
  6c:	00018e02 	andeq	r8, r1, r2, lsl #28
  70:	00000014 	andeq	r0, r0, r4, lsl r0
  74:	00000028 	andeq	r0, r0, r8, lsr #32
  78:	000081cc 	andeq	r8, r0, ip, asr #3
  7c:	000000ac 	andeq	r0, r0, ip, lsr #1
  80:	84080e42 	strhi	r0, [r8], #-3650	; 0xe42
  84:	00018e02 	andeq	r8, r1, r2, lsl #28
  88:	0000000c 	andeq	r0, r0, ip
  8c:	ffffffff 			; <UNDEFINED> instruction: 0xffffffff
  90:	7c020001 	stcvc	0, cr0, [r2], {1}
  94:	000d0c0e 	andeq	r0, sp, lr, lsl #24
  98:	00000024 	andeq	r0, r0, r4, lsr #32
  9c:	00000088 	andeq	r0, r0, r8, lsl #1
  a0:	00008278 	andeq	r8, r0, r8, ror r2
  a4:	00000058 	andeq	r0, r0, r8, asr r0
  a8:	80100e42 	andshi	r0, r0, r2, asr #28
  ac:	82038104 	andhi	r8, r3, #4, 2
  b0:	42018302 	andmi	r8, r1, #134217728	; 0x8000000
  b4:	07841c0e 	streq	r1, [r4, lr, lsl #24]
  b8:	058e0685 	streq	r0, [lr, #1669]	; 0x685
  bc:	00280e42 	eoreq	r0, r8, r2, asr #28
  c0:	0000000c 	andeq	r0, r0, ip
  c4:	ffffffff 			; <UNDEFINED> instruction: 0xffffffff
  c8:	7c020001 	stcvc	0, cr0, [r2], {1}
  cc:	000d0c0e 	andeq	r0, sp, lr, lsl #24
  d0:	00000018 	andeq	r0, r0, r8, lsl r0
  d4:	000000c0 	andeq	r0, r0, r0, asr #1
  d8:	000082d0 	ldrdeq	r8, [r0], -r0
  dc:	00000034 	andeq	r0, r0, r4, lsr r0
  e0:	83100e42 	tsthi	r0, #1056	; 0x420
  e4:	85038404 	strhi	r8, [r3, #-1028]	; 0x404
  e8:	00018e02 	andeq	r8, r1, r2, lsl #28
  ec:	0000000c 	andeq	r0, r0, ip
  f0:	ffffffff 			; <UNDEFINED> instruction: 0xffffffff
  f4:	7c020001 	stcvc	0, cr0, [r2], {1}
  f8:	000d0c0e 	andeq	r0, sp, lr, lsl #24
  fc:	0000000c 	andeq	r0, r0, ip
 100:	000000ec 	andeq	r0, r0, ip, ror #1
 104:	00008304 	andeq	r8, r0, r4, lsl #6
 108:	00000014 	andeq	r0, r0, r4, lsl r0
 10c:	0000000c 	andeq	r0, r0, ip
 110:	000000ec 	andeq	r0, r0, ip, ror #1
 114:	00008318 	andeq	r8, r0, r8, lsl r3
 118:	0000002c 	andeq	r0, r0, ip, lsr #32
 11c:	0000000c 	andeq	r0, r0, ip
 120:	000000ec 	andeq	r0, r0, ip, ror #1
 124:	00008344 	andeq	r8, r0, r4, asr #6
 128:	00000040 	andeq	r0, r0, r0, asr #32
 12c:	00000020 	andeq	r0, r0, r0, lsr #32
 130:	000000ec 	andeq	r0, r0, ip, ror #1
 134:	00008384 	andeq	r8, r0, r4, lsl #7
 138:	0000019c 	muleq	r0, ip, r1
 13c:	84180e42 	ldrhi	r0, [r8], #-3650	; 0xe42
 140:	86058506 	strhi	r8, [r5], -r6, lsl #10
 144:	88038704 	stmdahi	r3, {r2, r8, r9, sl, pc}
 148:	42018e02 	andmi	r8, r1, #2, 28
 14c:	0000580e 	andeq	r5, r0, lr, lsl #16
 150:	00000014 	andeq	r0, r0, r4, lsl r0
 154:	000000ec 	andeq	r0, r0, ip, ror #1
 158:	00008520 	andeq	r8, r0, r0, lsr #10
 15c:	00000054 	andeq	r0, r0, r4, asr r0
 160:	83080e42 	movwhi	r0, #36418	; 0x8e42
 164:	00018e02 	andeq	r8, r1, r2, lsl #28
 168:	00000028 	andeq	r0, r0, r8, lsr #32
 16c:	000000ec 	andeq	r0, r0, ip, ror #1
 170:	00008574 	andeq	r8, r0, r4, ror r5
 174:	00000288 	andeq	r0, r0, r8, lsl #5
 178:	84240e42 	strthi	r0, [r4], #-3650	; 0xe42
 17c:	86088509 	strhi	r8, [r8], -r9, lsl #10
 180:	88068707 	stmdahi	r6, {r0, r1, r2, r8, r9, sl, pc}
 184:	8a048905 	bhi	1225a0 <__bss_end__+0x118e18>
 188:	8e028b03 	vmlahi.f64	d8, d2, d3
 18c:	b00e4201 	andlt	r4, lr, r1, lsl #4
 190:	00000001 	andeq	r0, r0, r1
 194:	0000000c 	andeq	r0, r0, ip
 198:	ffffffff 			; <UNDEFINED> instruction: 0xffffffff
 19c:	7c020001 	stcvc	0, cr0, [r2], {1}
 1a0:	000d0c0e 	andeq	r0, sp, lr, lsl #24
 1a4:	00000014 	andeq	r0, r0, r4, lsl r0
 1a8:	00000194 	muleq	r0, r4, r1
 1ac:	000087fc 	strdeq	r8, [r0], -ip
 1b0:	00000028 	andeq	r0, r0, r8, lsr #32
 1b4:	83080e42 	movwhi	r0, #36418	; 0x8e42
 1b8:	00018e02 	andeq	r8, r1, r2, lsl #28
 1bc:	0000000c 	andeq	r0, r0, ip
 1c0:	ffffffff 			; <UNDEFINED> instruction: 0xffffffff
 1c4:	7c020001 	stcvc	0, cr0, [r2], {1}
 1c8:	000d0c0e 	andeq	r0, sp, lr, lsl #24
 1cc:	00000014 	andeq	r0, r0, r4, lsl r0
 1d0:	000001bc 			; <UNDEFINED> instruction: 0x000001bc
 1d4:	00008824 	andeq	r8, r0, r4, lsr #16
 1d8:	00000034 	andeq	r0, r0, r4, lsr r0
 1dc:	83080e42 	movwhi	r0, #36418	; 0x8e42
 1e0:	00018e02 	andeq	r8, r1, r2, lsl #28
 1e4:	0000000c 	andeq	r0, r0, ip
 1e8:	ffffffff 			; <UNDEFINED> instruction: 0xffffffff
 1ec:	7c020001 	stcvc	0, cr0, [r2], {1}
 1f0:	000d0c0e 	andeq	r0, sp, lr, lsl #24
 1f4:	0000000c 	andeq	r0, r0, ip
 1f8:	000001e4 	andeq	r0, r0, r4, ror #3
 1fc:	00008858 	andeq	r8, r0, r8, asr r8
 200:	00000018 	andeq	r0, r0, r8, lsl r0
 204:	0000000c 	andeq	r0, r0, ip
 208:	000001e4 	andeq	r0, r0, r4, ror #3
 20c:	00008870 	andeq	r8, r0, r0, ror r8
 210:	00000014 	andeq	r0, r0, r4, lsl r0
 214:	00000014 	andeq	r0, r0, r4, lsl r0
 218:	000001e4 	andeq	r0, r0, r4, ror #3
 21c:	00008884 	andeq	r8, r0, r4, lsl #17
 220:	00000048 	andeq	r0, r0, r8, asr #32
 224:	83080e42 	movwhi	r0, #36418	; 0x8e42
 228:	00018e02 	andeq	r8, r1, r2, lsl #28
 22c:	0000000c 	andeq	r0, r0, ip
 230:	ffffffff 			; <UNDEFINED> instruction: 0xffffffff
 234:	7c020001 	stcvc	0, cr0, [r2], {1}
 238:	000d0c0e 	andeq	r0, sp, lr, lsl #24
 23c:	0000000c 	andeq	r0, r0, ip
 240:	0000022c 	andeq	r0, r0, ip, lsr #4
 244:	000088cc 	andeq	r8, r0, ip, asr #17
 248:	0000001c 	andeq	r0, r0, ip, lsl r0
 24c:	00000014 	andeq	r0, r0, r4, lsl r0
 250:	0000022c 	andeq	r0, r0, ip, lsr #4
 254:	000088e8 	andeq	r8, r0, r8, ror #17
 258:	00000014 	andeq	r0, r0, r4, lsl r0
 25c:	83080e42 	movwhi	r0, #36418	; 0x8e42
 260:	00018e02 	andeq	r8, r1, r2, lsl #28
 264:	00000014 	andeq	r0, r0, r4, lsl r0
 268:	0000022c 	andeq	r0, r0, ip, lsr #4
 26c:	000088fc 	strdeq	r8, [r0], -ip
 270:	0000000c 	andeq	r0, r0, ip
 274:	83080e42 	movwhi	r0, #36418	; 0x8e42
 278:	00018e02 	andeq	r8, r1, r2, lsl #28
 27c:	00000018 	andeq	r0, r0, r8, lsl r0
 280:	0000022c 	andeq	r0, r0, ip, lsr #4
 284:	00008908 	andeq	r8, r0, r8, lsl #18
 288:	00000024 	andeq	r0, r0, r4, lsr #32
 28c:	83100e42 	tsthi	r0, #1056	; 0x420
 290:	85038404 	strhi	r8, [r3, #-1028]	; 0x404
 294:	00018e02 	andeq	r8, r1, r2, lsl #28
 298:	00000014 	andeq	r0, r0, r4, lsl r0
 29c:	0000022c 	andeq	r0, r0, ip, lsr #4
 2a0:	0000892c 	andeq	r8, r0, ip, lsr #18
 2a4:	00000014 	andeq	r0, r0, r4, lsl r0
 2a8:	83080e42 	movwhi	r0, #36418	; 0x8e42
 2ac:	00018e02 	andeq	r8, r1, r2, lsl #28
 2b0:	00000014 	andeq	r0, r0, r4, lsl r0
 2b4:	0000022c 	andeq	r0, r0, ip, lsr #4
 2b8:	00008940 	andeq	r8, r0, r0, asr #18
 2bc:	00000014 	andeq	r0, r0, r4, lsl r0
 2c0:	83080e42 	movwhi	r0, #36418	; 0x8e42
 2c4:	00018e02 	andeq	r8, r1, r2, lsl #28
 2c8:	0000000c 	andeq	r0, r0, ip
 2cc:	ffffffff 			; <UNDEFINED> instruction: 0xffffffff
 2d0:	7c020001 	stcvc	0, cr0, [r2], {1}
 2d4:	000d0c0e 	andeq	r0, sp, lr, lsl #24
 2d8:	00000018 	andeq	r0, r0, r8, lsl r0
 2dc:	000002c8 	andeq	r0, r0, r8, asr #5
 2e0:	00008954 	andeq	r8, r0, r4, asr r9
 2e4:	000000d4 	ldrdeq	r0, [r0], -r4
 2e8:	83100e42 	tsthi	r0, #1056	; 0x420
 2ec:	85038404 	strhi	r8, [r3, #-1028]	; 0x404
 2f0:	00018e02 	andeq	r8, r1, r2, lsl #28
 2f4:	00000014 	andeq	r0, r0, r4, lsl r0
 2f8:	000002c8 	andeq	r0, r0, r8, asr #5
 2fc:	00008a28 	andeq	r8, r0, r8, lsr #20
 300:	00000038 	andeq	r0, r0, r8, lsr r0
 304:	83080e42 	movwhi	r0, #36418	; 0x8e42
 308:	00018e02 	andeq	r8, r1, r2, lsl #28
 30c:	00000014 	andeq	r0, r0, r4, lsl r0
 310:	000002c8 	andeq	r0, r0, r8, asr #5
 314:	00008a60 	andeq	r8, r0, r0, ror #20
 318:	00000038 	andeq	r0, r0, r8, lsr r0
 31c:	83080e42 	movwhi	r0, #36418	; 0x8e42
 320:	00018e02 	andeq	r8, r1, r2, lsl #28
 324:	00000018 	andeq	r0, r0, r8, lsl r0
 328:	000002c8 	andeq	r0, r0, r8, asr #5
 32c:	00008a98 	muleq	r0, r8, sl
 330:	000000cc 	andeq	r0, r0, ip, asr #1
 334:	83100e42 	tsthi	r0, #1056	; 0x420
 338:	85038404 	strhi	r8, [r3, #-1028]	; 0x404
 33c:	00018e02 	andeq	r8, r1, r2, lsl #28
 340:	00000014 	andeq	r0, r0, r4, lsl r0
 344:	000002c8 	andeq	r0, r0, r8, asr #5
 348:	00008b64 	andeq	r8, r0, r4, ror #22
 34c:	0000004c 	andeq	r0, r0, ip, asr #32
 350:	84080e42 	strhi	r0, [r8], #-3650	; 0xe42
 354:	00018e02 	andeq	r8, r1, r2, lsl #28
 358:	00000014 	andeq	r0, r0, r4, lsl r0
 35c:	000002c8 	andeq	r0, r0, r8, asr #5
 360:	00008bb0 			; <UNDEFINED> instruction: 0x00008bb0
 364:	00000024 	andeq	r0, r0, r4, lsr #32
 368:	83080e42 	movwhi	r0, #36418	; 0x8e42
 36c:	00018e02 	andeq	r8, r1, r2, lsl #28
 370:	00000018 	andeq	r0, r0, r8, lsl r0
 374:	000002c8 	andeq	r0, r0, r8, asr #5
 378:	00008bd4 	ldrdeq	r8, [r0], -r4
 37c:	000000d8 	ldrdeq	r0, [r0], -r8
 380:	84100e42 	ldrhi	r0, [r0], #-3650	; 0xe42
 384:	86038504 	strhi	r8, [r3], -r4, lsl #10
 388:	00018e02 	andeq	r8, r1, r2, lsl #28
 38c:	00000014 	andeq	r0, r0, r4, lsl r0
 390:	000002c8 	andeq	r0, r0, r8, asr #5
 394:	00008cac 	andeq	r8, r0, ip, lsr #25
 398:	00000038 	andeq	r0, r0, r8, lsr r0
 39c:	83080e42 	movwhi	r0, #36418	; 0x8e42
 3a0:	00018e02 	andeq	r8, r1, r2, lsl #28
 3a4:	00000014 	andeq	r0, r0, r4, lsl r0
 3a8:	000002c8 	andeq	r0, r0, r8, asr #5
 3ac:	00008ce4 	andeq	r8, r0, r4, ror #25
 3b0:	0000002c 	andeq	r0, r0, ip, lsr #32
 3b4:	83080e42 	movwhi	r0, #36418	; 0x8e42
 3b8:	00018e02 	andeq	r8, r1, r2, lsl #28
 3bc:	00000018 	andeq	r0, r0, r8, lsl r0
 3c0:	000002c8 	andeq	r0, r0, r8, asr #5
 3c4:	00008d10 	andeq	r8, r0, r0, lsl sp
 3c8:	00000084 	andeq	r0, r0, r4, lsl #1
 3cc:	83100e42 	tsthi	r0, #1056	; 0x420
 3d0:	85038404 	strhi	r8, [r3, #-1028]	; 0x404
 3d4:	00018e02 	andeq	r8, r1, r2, lsl #28
 3d8:	00000018 	andeq	r0, r0, r8, lsl r0
 3dc:	000002c8 	andeq	r0, r0, r8, asr #5
 3e0:	00008d94 	muleq	r0, r4, sp
 3e4:	00000084 	andeq	r0, r0, r4, lsl #1
 3e8:	83100e42 	tsthi	r0, #1056	; 0x420
 3ec:	85038404 	strhi	r8, [r3, #-1028]	; 0x404
 3f0:	00018e02 	andeq	r8, r1, r2, lsl #28
 3f4:	00000014 	andeq	r0, r0, r4, lsl r0
 3f8:	000002c8 	andeq	r0, r0, r8, asr #5
 3fc:	00008e18 	andeq	r8, r0, r8, lsl lr
 400:	00000084 	andeq	r0, r0, r4, lsl #1
 404:	84080e42 	strhi	r0, [r8], #-3650	; 0xe42
 408:	00018e02 	andeq	r8, r1, r2, lsl #28
 40c:	00000014 	andeq	r0, r0, r4, lsl r0
 410:	000002c8 	andeq	r0, r0, r8, asr #5
 414:	00008e9c 	muleq	r0, ip, lr
 418:	00000058 	andeq	r0, r0, r8, asr r0
 41c:	84080e42 	strhi	r0, [r8], #-3650	; 0xe42
 420:	00018e02 	andeq	r8, r1, r2, lsl #28
 424:	0000000c 	andeq	r0, r0, ip
 428:	ffffffff 			; <UNDEFINED> instruction: 0xffffffff
 42c:	7c020001 	stcvc	0, cr0, [r2], {1}
 430:	000d0c0e 	andeq	r0, sp, lr, lsl #24
 434:	00000018 	andeq	r0, r0, r8, lsl r0
 438:	00000424 	andeq	r0, r0, r4, lsr #8
 43c:	00008ef4 	strdeq	r8, [r0], -r4
 440:	0000009c 	muleq	r0, ip, r0
 444:	83100e42 	tsthi	r0, #1056	; 0x420
 448:	85038404 	strhi	r8, [r3, #-1028]	; 0x404
 44c:	00018e02 	andeq	r8, r1, r2, lsl #28
 450:	00000014 	andeq	r0, r0, r4, lsl r0
 454:	00000424 	andeq	r0, r0, r4, lsr #8
 458:	00008f90 	muleq	r0, r0, pc	; <UNPREDICTABLE>
 45c:	0000001c 	andeq	r0, r0, ip, lsl r0
 460:	83080e42 	movwhi	r0, #36418	; 0x8e42
 464:	00018e02 	andeq	r8, r1, r2, lsl #28
 468:	00000014 	andeq	r0, r0, r4, lsl r0
 46c:	00000424 	andeq	r0, r0, r4, lsr #8
 470:	00008fac 	andeq	r8, r0, ip, lsr #31
 474:	00000028 	andeq	r0, r0, r8, lsr #32
 478:	83080e42 	movwhi	r0, #36418	; 0x8e42
 47c:	00018e02 	andeq	r8, r1, r2, lsl #28
 480:	00000014 	andeq	r0, r0, r4, lsl r0
 484:	00000424 	andeq	r0, r0, r4, lsr #8
 488:	00008fd4 	ldrdeq	r8, [r0], -r4
 48c:	0000001c 	andeq	r0, r0, ip, lsl r0
 490:	83080e42 	movwhi	r0, #36418	; 0x8e42
 494:	00018e02 	andeq	r8, r1, r2, lsl #28
 498:	00000014 	andeq	r0, r0, r4, lsl r0
 49c:	00000424 	andeq	r0, r0, r4, lsr #8
 4a0:	00008ff0 	strdeq	r8, [r0], -r0
 4a4:	0000002c 	andeq	r0, r0, ip, lsr #32
 4a8:	84080e42 	strhi	r0, [r8], #-3650	; 0xe42
 4ac:	00018e02 	andeq	r8, r1, r2, lsl #28
 4b0:	00000014 	andeq	r0, r0, r4, lsl r0
 4b4:	00000424 	andeq	r0, r0, r4, lsr #8
 4b8:	0000901c 	andeq	r9, r0, ip, lsl r0
 4bc:	0000000c 	andeq	r0, r0, ip
 4c0:	83080e42 	movwhi	r0, #36418	; 0x8e42
 4c4:	00018e02 	andeq	r8, r1, r2, lsl #28
 4c8:	00000014 	andeq	r0, r0, r4, lsl r0
 4cc:	00000424 	andeq	r0, r0, r4, lsr #8
 4d0:	00009028 	andeq	r9, r0, r8, lsr #32
 4d4:	00000020 	andeq	r0, r0, r0, lsr #32
 4d8:	83080e42 	movwhi	r0, #36418	; 0x8e42
 4dc:	00018e02 	andeq	r8, r1, r2, lsl #28
 4e0:	0000000c 	andeq	r0, r0, ip
 4e4:	ffffffff 			; <UNDEFINED> instruction: 0xffffffff
 4e8:	7c020001 	stcvc	0, cr0, [r2], {1}
 4ec:	000d0c0e 	andeq	r0, sp, lr, lsl #24
 4f0:	00000014 	andeq	r0, r0, r4, lsl r0
 4f4:	000004e0 	andeq	r0, r0, r0, ror #9
 4f8:	000090ac 	andeq	r9, r0, ip, lsr #1
 4fc:	00000014 	andeq	r0, r0, r4, lsl r0
 500:	84080e42 	strhi	r0, [r8], #-3650	; 0xe42
 504:	00018e02 	andeq	r8, r1, r2, lsl #28
 508:	0000000c 	andeq	r0, r0, ip
 50c:	000004e0 	andeq	r0, r0, r0, ror #9
 510:	000090c0 	andeq	r9, r0, r0, asr #1
 514:	00000018 	andeq	r0, r0, r8, lsl r0
 518:	0000000c 	andeq	r0, r0, ip
 51c:	000004e0 	andeq	r0, r0, r0, ror #9
 520:	000090d8 	ldrdeq	r9, [r0], -r8
 524:	00000010 	andeq	r0, r0, r0, lsl r0

Disassembly of section .debug_loc:

00000000 <.debug_loc>:
       0:	00000000 	andeq	r0, r0, r0
       4:	00000010 	andeq	r0, r0, r0, lsl r0
       8:	10500001 	subsne	r0, r0, r1
       c:	44000000 	strmi	r0, [r0], #-0
      10:	01000000 	mrseq	r0, (UNDEF: 0)
      14:	00445500 	subeq	r5, r4, r0, lsl #10
      18:	00b40000 	adcseq	r0, r4, r0
      1c:	00040000 	andeq	r0, r4, r0
      20:	9f5001f3 	svcls	0x005001f3
	...
      2c:	0000001c 	andeq	r0, r0, ip, lsl r0
      30:	00000053 	andeq	r0, r0, r3, asr r0
      34:	58520001 	ldmdapl	r2, {r0}^
      38:	77000000 	strvc	r0, [r0, -r0]
      3c:	01000000 	mrseq	r0, (UNDEF: 0)
      40:	007c5200 	rsbseq	r5, ip, r0, lsl #4
      44:	00970000 	addseq	r0, r7, r0
      48:	00010000 	andeq	r0, r1, r0
      4c:	00009c52 	andeq	r9, r0, r2, asr ip
      50:	0000b400 	andeq	fp, r0, r0, lsl #8
      54:	52000100 	andpl	r0, r0, #0, 2
	...
      60:	0000002c 	andeq	r0, r0, ip, lsr #32
      64:	00000038 	andeq	r0, r0, r8, lsr r0
      68:	9f300002 	svcls	0x00300002
      6c:	00000038 	andeq	r0, r0, r8, lsr r0
      70:	00000038 	andeq	r0, r0, r8, lsr r0
      74:	38540001 	ldmdacc	r4, {r0}^
      78:	40000000 	andmi	r0, r0, r0
      7c:	02000000 	andeq	r0, r0, #0
      80:	409f3000 	addsmi	r3, pc, r0
      84:	b4000000 	strlt	r0, [r0], #-0
      88:	01000000 	mrseq	r0, (UNDEF: 0)
      8c:	00005400 	andeq	r5, r0, r0, lsl #8
      90:	00000000 	andeq	r0, r0, r0
      94:	001c0000 	andseq	r0, ip, r0
      98:	00530000 	subseq	r0, r3, r0
      9c:	00010000 	andeq	r0, r1, r0
      a0:	00000052 	andeq	r0, r0, r2, asr r0
      a4:	00000000 	andeq	r0, r0, r0
      a8:	00002000 	andeq	r2, r0, r0
      ac:	00002400 	andeq	r2, r0, r0, lsl #8
      b0:	53000100 	movwpl	r0, #256	; 0x100
	...
      bc:	00000058 	andeq	r0, r0, r8, asr r0
      c0:	00000077 	andeq	r0, r0, r7, ror r0
      c4:	00520001 	subseq	r0, r2, r1
      c8:	00000000 	andeq	r0, r0, r0
      cc:	5c000000 	stcpl	0, cr0, [r0], {-0}
      d0:	60000000 	andvs	r0, r0, r0
      d4:	01000000 	mrseq	r0, (UNDEF: 0)
      d8:	00005300 	andeq	r5, r0, r0, lsl #6
      dc:	00000000 	andeq	r0, r0, r0
      e0:	007c0000 	rsbseq	r0, ip, r0
      e4:	00970000 	addseq	r0, r7, r0
      e8:	00010000 	andeq	r0, r1, r0
      ec:	00000052 	andeq	r0, r0, r2, asr r0
      f0:	00000000 	andeq	r0, r0, r0
      f4:	00008000 	andeq	r8, r0, r0
      f8:	00008400 	andeq	r8, r0, r0, lsl #8
      fc:	53000100 	movwpl	r0, #256	; 0x100
	...
     108:	000000a0 	andeq	r0, r0, r0, lsr #1
     10c:	000000a4 	andeq	r0, r0, r4, lsr #1
     110:	00530001 	subseq	r0, r3, r1
     114:	00000000 	andeq	r0, r0, r0
     118:	b4000000 	strlt	r0, [r0], #-0
     11c:	c4000000 	strgt	r0, [r0], #-0
     120:	01000000 	mrseq	r0, (UNDEF: 0)
     124:	00c45000 	sbceq	r5, r4, r0
     128:	00f80000 	rscseq	r0, r8, r0
     12c:	00010000 	andeq	r0, r1, r0
     130:	0000f855 	andeq	pc, r0, r5, asr r8	; <UNPREDICTABLE>
     134:	00016800 	andeq	r6, r1, r0, lsl #16
     138:	f3000400 	vshl.u8	d0, d0, d0
     13c:	009f5001 	addseq	r5, pc, r1
     140:	00000000 	andeq	r0, r0, r0
     144:	d0000000 	andle	r0, r0, r0
     148:	07000000 	streq	r0, [r0, -r0]
     14c:	01000001 	tsteq	r0, r1
     150:	010c5200 	mrseq	r5, R12_fiq
     154:	012b0000 	teqeq	fp, r0
     158:	00010000 	andeq	r0, r1, r0
     15c:	00013052 	andeq	r3, r1, r2, asr r0
     160:	00014b00 	andeq	r4, r1, r0, lsl #22
     164:	52000100 	andpl	r0, r0, #0, 2
     168:	00000150 	andeq	r0, r0, r0, asr r1
     16c:	00000168 	andeq	r0, r0, r8, ror #2
     170:	00520001 	subseq	r0, r2, r1
     174:	00000000 	andeq	r0, r0, r0
     178:	e0000000 	and	r0, r0, r0
     17c:	ec000000 	stc	0, cr0, [r0], {-0}
     180:	02000000 	andeq	r0, r0, #0
     184:	ec9f3000 	ldc	0, cr3, [pc], {0}
     188:	ec000000 	stc	0, cr0, [r0], {-0}
     18c:	01000000 	mrseq	r0, (UNDEF: 0)
     190:	00ec5400 	rsceq	r5, ip, r0, lsl #8
     194:	00f40000 	rscseq	r0, r4, r0
     198:	00020000 	andeq	r0, r2, r0
     19c:	00f49f30 	rscseq	r9, r4, r0, lsr pc
     1a0:	01680000 	cmneq	r8, r0
     1a4:	00010000 	andeq	r0, r1, r0
     1a8:	00000054 	andeq	r0, r0, r4, asr r0
     1ac:	00000000 	andeq	r0, r0, r0
     1b0:	0000d000 	andeq	sp, r0, r0
     1b4:	00010700 	andeq	r0, r1, r0, lsl #14
     1b8:	52000100 	andpl	r0, r0, #0, 2
	...
     1c4:	000000d4 	ldrdeq	r0, [r0], -r4
     1c8:	000000d8 	ldrdeq	r0, [r0], -r8
     1cc:	00530001 	subseq	r0, r3, r1
     1d0:	00000000 	andeq	r0, r0, r0
     1d4:	0c000000 	stceq	0, cr0, [r0], {-0}
     1d8:	2b000001 	blcs	1e4 <_start-0x7e1c>
     1dc:	01000001 	tsteq	r0, r1
     1e0:	00005200 	andeq	r5, r0, r0, lsl #4
     1e4:	00000000 	andeq	r0, r0, r0
     1e8:	01100000 	tsteq	r0, r0
     1ec:	01140000 	tsteq	r4, r0
     1f0:	00010000 	andeq	r0, r1, r0
     1f4:	00000053 	andeq	r0, r0, r3, asr r0
     1f8:	00000000 	andeq	r0, r0, r0
     1fc:	00013000 	andeq	r3, r1, r0
     200:	00014b00 	andeq	r4, r1, r0, lsl #22
     204:	52000100 	andpl	r0, r0, #0, 2
	...
     210:	00000134 	andeq	r0, r0, r4, lsr r1
     214:	00000138 	andeq	r0, r0, r8, lsr r1
     218:	00530001 	subseq	r0, r3, r1
     21c:	00000000 	andeq	r0, r0, r0
     220:	54000000 	strpl	r0, [r0], #-0
     224:	58000001 	stmdapl	r0, {r0}
     228:	01000001 	tsteq	r0, r1
     22c:	00005300 	andeq	r5, r0, r0, lsl #6
     230:	00000000 	andeq	r0, r0, r0
     234:	01680000 	cmneq	r8, r0
     238:	01780000 	cmneq	r8, r0
     23c:	00010000 	andeq	r0, r1, r0
     240:	00017850 	andeq	r7, r1, r0, asr r8
     244:	0001a000 	andeq	sl, r1, r0
     248:	54000100 	strpl	r0, [r0], #-256	; 0x100
     24c:	000001a0 	andeq	r0, r0, r0, lsr #3
     250:	000001a0 	andeq	r0, r0, r0, lsr #3
     254:	01f30004 	mvnseq	r0, r4
     258:	01a09f50 	asreq	r9, r0, pc
     25c:	01a80000 			; <UNDEFINED> instruction: 0x01a80000
     260:	00010000 	andeq	r0, r1, r0
     264:	0001a854 	andeq	sl, r1, r4, asr r8
     268:	00021400 	andeq	r1, r2, r0, lsl #8
     26c:	f3000400 	vshl.u8	d0, d0, d0
     270:	009f5001 	addseq	r5, pc, r1
     274:	00000000 	andeq	r0, r0, r0
     278:	84000000 	strhi	r0, [r0], #-0
     27c:	b3000001 	movwlt	r0, #1
     280:	01000001 	tsteq	r0, r1
     284:	01b85200 			; <UNDEFINED> instruction: 0x01b85200
     288:	01d70000 	bicseq	r0, r7, r0
     28c:	00010000 	andeq	r0, r1, r0
     290:	0001dc52 	andeq	sp, r1, r2, asr ip
     294:	0001f700 	andeq	pc, r1, r0, lsl #14
     298:	52000100 	andpl	r0, r0, #0, 2
     29c:	000001fc 	strdeq	r0, [r0], -ip
     2a0:	00000214 	andeq	r0, r0, r4, lsl r2
     2a4:	00520001 	subseq	r0, r2, r1
     2a8:	00000000 	andeq	r0, r0, r0
     2ac:	94000000 	strls	r0, [r0], #-0
     2b0:	a0000001 	andge	r0, r0, r1
     2b4:	02000001 	andeq	r0, r0, #1
     2b8:	a09f3000 	addsge	r3, pc, r0
     2bc:	a0000001 	andge	r0, r0, r1
     2c0:	01000001 	tsteq	r0, r1
     2c4:	01a05400 	lsleq	r5, r0, #8
     2c8:	01a80000 			; <UNDEFINED> instruction: 0x01a80000
     2cc:	00020000 	andeq	r0, r2, r0
     2d0:	01a89f30 			; <UNDEFINED> instruction: 0x01a89f30
     2d4:	02140000 	andseq	r0, r4, #0
     2d8:	00010000 	andeq	r0, r1, r0
     2dc:	00000054 	andeq	r0, r0, r4, asr r0
     2e0:	00000000 	andeq	r0, r0, r0
     2e4:	00018400 	andeq	r8, r1, r0, lsl #8
     2e8:	0001b300 	andeq	fp, r1, r0, lsl #6
     2ec:	52000100 	andpl	r0, r0, #0, 2
	...
     2f8:	00000188 	andeq	r0, r0, r8, lsl #3
     2fc:	0000018c 	andeq	r0, r0, ip, lsl #3
     300:	00530001 	subseq	r0, r3, r1
     304:	00000000 	andeq	r0, r0, r0
     308:	b8000000 	stmdalt	r0, {}	; <UNPREDICTABLE>
     30c:	d7000001 	strle	r0, [r0, -r1]
     310:	01000001 	tsteq	r0, r1
     314:	00005200 	andeq	r5, r0, r0, lsl #4
     318:	00000000 	andeq	r0, r0, r0
     31c:	01bc0000 			; <UNDEFINED> instruction: 0x01bc0000
     320:	01c00000 	biceq	r0, r0, r0
     324:	00010000 	andeq	r0, r1, r0
     328:	00000053 	andeq	r0, r0, r3, asr r0
     32c:	00000000 	andeq	r0, r0, r0
     330:	0001dc00 	andeq	sp, r1, r0, lsl #24
     334:	0001f700 	andeq	pc, r1, r0, lsl #14
     338:	52000100 	andpl	r0, r0, #0, 2
	...
     344:	000001e0 	andeq	r0, r0, r0, ror #3
     348:	000001e4 	andeq	r0, r0, r4, ror #3
     34c:	00530001 	subseq	r0, r3, r1
	...
     358:	04000002 	streq	r0, [r0], #-2
     35c:	01000002 	tsteq	r0, r2
     360:	00005300 	andeq	r5, r0, r0, lsl #6
     364:	00000000 	andeq	r0, r0, r0
     368:	002c0000 	eoreq	r0, ip, r0
     36c:	00380000 	eorseq	r0, r8, r0
     370:	00010000 	andeq	r0, r1, r0
     374:	00003850 	andeq	r3, r0, r0, asr r8
     378:	00004800 	andeq	r4, r0, r0, lsl #16
     37c:	55000100 	strpl	r0, [r0, #-256]	; 0x100
     380:	00000048 	andeq	r0, r0, r8, asr #32
     384:	00000058 	andeq	r0, r0, r8, asr r0
     388:	00500001 	subseq	r0, r0, r1
	...
     394:	10000000 	andne	r0, r0, r0
     398:	01000000 	mrseq	r0, (UNDEF: 0)
     39c:	00105000 	andseq	r5, r0, r0
     3a0:	00340000 	eorseq	r0, r4, r0
     3a4:	00010000 	andeq	r0, r1, r0
     3a8:	00000054 	andeq	r0, r0, r4, asr r0
	...
     3b4:	00000400 	andeq	r0, r0, r0, lsl #8
     3b8:	50000100 	andpl	r0, r0, r0, lsl #2
     3bc:	00000004 	andeq	r0, r0, r4
     3c0:	0000000c 	andeq	r0, r0, ip
     3c4:	30700003 	rsbscc	r0, r0, r3
     3c8:	00000c9f 	muleq	r0, pc, ip	; <UNPREDICTABLE>
     3cc:	00001400 	andeq	r1, r0, r0, lsl #8
     3d0:	f3000400 	vshl.u8	d0, d0, d0
     3d4:	009f5001 	addseq	r5, pc, r1
     3d8:	00000000 	andeq	r0, r0, r0
     3dc:	14000000 	strne	r0, [r0], #-0
     3e0:	20000000 	andcs	r0, r0, r0
     3e4:	01000000 	mrseq	r0, (UNDEF: 0)
     3e8:	00205000 	eoreq	r5, r0, r0
     3ec:	002c0000 	eoreq	r0, ip, r0
     3f0:	00030000 	andeq	r0, r3, r0
     3f4:	2c9f0170 	ldfcss	f0, [pc], {112}	; 0x70
     3f8:	40000000 	andmi	r0, r0, r0
     3fc:	01000000 	mrseq	r0, (UNDEF: 0)
     400:	00005000 	andeq	r5, r0, r0
     404:	00000000 	andeq	r0, r0, r0
     408:	00140000 	andseq	r0, r4, r0
     40c:	00180000 	andseq	r0, r8, r0
     410:	00010000 	andeq	r0, r1, r0
     414:	00001851 	andeq	r1, r0, r1, asr r8
     418:	00004000 	andeq	r4, r0, r0
     41c:	f3000400 	vshl.u8	d0, d0, d0
     420:	009f5101 	addseq	r5, pc, r1, lsl #2
     424:	00000000 	andeq	r0, r0, r0
     428:	40000000 	andmi	r0, r0, r0
     42c:	60000000 	andvs	r0, r0, r0
     430:	01000000 	mrseq	r0, (UNDEF: 0)
     434:	00605000 	rsbeq	r5, r0, r0
     438:	006c0000 	rsbeq	r0, ip, r0
     43c:	00030000 	andeq	r0, r3, r0
     440:	6c9f0171 	ldfvss	f0, [pc], {113}	; 0x71
     444:	74000000 	strvc	r0, [r0], #-0
     448:	01000000 	mrseq	r0, (UNDEF: 0)
     44c:	00745100 	rsbseq	r5, r4, r0, lsl #2
     450:	00800000 	addeq	r0, r0, r0
     454:	00030000 	andeq	r0, r3, r0
     458:	009f0171 	addseq	r0, pc, r1, ror r1	; <UNPREDICTABLE>
     45c:	00000000 	andeq	r0, r0, r0
     460:	40000000 	andmi	r0, r0, r0
     464:	50000000 	andpl	r0, r0, r0
     468:	01000000 	mrseq	r0, (UNDEF: 0)
     46c:	00505100 	subseq	r5, r0, r0, lsl #2
     470:	00800000 	addeq	r0, r0, r0
     474:	00040000 	andeq	r0, r4, r0
     478:	9f5101f3 	svcls	0x005101f3
	...
     484:	00000040 	andeq	r0, r0, r0, asr #32
     488:	00000058 	andeq	r0, r0, r8, asr r0
     48c:	58520001 	ldmdapl	r2, {r0}^
     490:	64000000 	strvs	r0, [r0], #-0
     494:	01000000 	mrseq	r0, (UNDEF: 0)
     498:	00645200 	rsbeq	r5, r4, r0, lsl #4
     49c:	00680000 	rsbeq	r0, r8, r0
     4a0:	00030000 	andeq	r0, r3, r0
     4a4:	689f0172 	ldmvs	pc, {r1, r4, r5, r6, r8}	; <UNPREDICTABLE>
     4a8:	80000000 	andhi	r0, r0, r0
     4ac:	01000000 	mrseq	r0, (UNDEF: 0)
     4b0:	00005200 	andeq	r5, r0, r0, lsl #4
     4b4:	00000000 	andeq	r0, r0, r0
     4b8:	00400000 	subeq	r0, r0, r0
     4bc:	00540000 	subseq	r0, r4, r0
     4c0:	00010000 	andeq	r0, r1, r0
     4c4:	00005453 	andeq	r5, r0, r3, asr r4
     4c8:	00007800 	andeq	r7, r0, r0, lsl #16
     4cc:	53000100 	movwpl	r0, #256	; 0x100
	...
     4d8:	00000048 	andeq	r0, r0, r8, asr #32
     4dc:	00000060 	andeq	r0, r0, r0, rrx
     4e0:	605c0001 	subsvs	r0, ip, r1
     4e4:	80000000 	andhi	r0, r0, r0
     4e8:	0a000000 	beq	4f0 <_start-0x7b10>
     4ec:	5201f300 	andpl	pc, r1, #0, 6
     4f0:	1c5301f3 	ldfnee	f0, [r3], {243}	; 0xf3
     4f4:	009f0123 	addseq	r0, pc, r3, lsr #2
     4f8:	00000000 	andeq	r0, r0, r0
     4fc:	80000000 	andhi	r0, r0, r0
     500:	a4000000 	strge	r0, [r0], #-0
     504:	01000000 	mrseq	r0, (UNDEF: 0)
     508:	00a45000 	adceq	r5, r4, r0
     50c:	01180000 	tsteq	r8, r0
     510:	00030000 	andeq	r0, r3, r0
     514:	189f0270 	ldmne	pc, {r4, r5, r6, r9}	; <UNPREDICTABLE>
     518:	1c000001 	stcne	0, cr0, [r0], {1}
     51c:	04000002 	streq	r0, [r0], #-2
     520:	5001f300 	andpl	pc, r1, r0, lsl #6
     524:	0000009f 	muleq	r0, pc, r0	; <UNPREDICTABLE>
     528:	00000000 	andeq	r0, r0, r0
     52c:	00008000 	andeq	r8, r0, r0
     530:	0000f000 	andeq	pc, r0, r0
     534:	51000100 	mrspl	r0, (UNDEF: 16)
     538:	000000f0 	strdeq	r0, [r0], -r0	; <UNPREDICTABLE>
     53c:	00000160 	andeq	r0, r0, r0, ror #2
     540:	60550001 	subsvs	r0, r5, r1
     544:	68000001 	stmdavs	r0, {r0}
     548:	01000001 	tsteq	r0, r1
     54c:	01685100 	cmneq	r8, r0, lsl #2
     550:	01880000 	orreq	r0, r8, r0
     554:	00010000 	andeq	r0, r1, r0
     558:	00018855 	andeq	r8, r1, r5, asr r8
     55c:	00019c00 	andeq	r9, r1, r0, lsl #24
     560:	51000100 	mrspl	r0, (UNDEF: 16)
     564:	0000019c 	muleq	r0, ip, r1
     568:	000001bc 			; <UNDEFINED> instruction: 0x000001bc
     56c:	bc550001 	mrrclt	0, 0, r0, r5, cr1
     570:	bf000001 	svclt	0x00000001
     574:	01000001 	tsteq	r0, r1
     578:	01bf5100 			; <UNDEFINED> instruction: 0x01bf5100
     57c:	02000000 	andeq	r0, r0, #0
     580:	00010000 	andeq	r0, r1, r0
     584:	00020055 	andeq	r0, r2, r5, asr r0
     588:	00021c00 	andeq	r1, r2, r0, lsl #24
     58c:	f3000400 	vshl.u8	d0, d0, d0
     590:	009f5101 	addseq	r5, pc, r1, lsl #2
     594:	00000000 	andeq	r0, r0, r0
     598:	80000000 	andhi	r0, r0, r0
     59c:	94000000 	strls	r0, [r0], #-0
     5a0:	01000000 	mrseq	r0, (UNDEF: 0)
     5a4:	00945200 	addseq	r5, r4, r0, lsl #4
     5a8:	02000000 	andeq	r0, r0, #0
     5ac:	00010000 	andeq	r0, r1, r0
     5b0:	00020054 	andeq	r0, r2, r4, asr r0
     5b4:	00021c00 	andeq	r1, r2, r0, lsl #24
     5b8:	f3000400 	vshl.u8	d0, d0, d0
     5bc:	009f5201 	addseq	r5, pc, r1, lsl #4
     5c0:	00000000 	andeq	r0, r0, r0
     5c4:	80000000 	andhi	r0, r0, r0
     5c8:	00000000 	andeq	r0, r0, r0
     5cc:	01000001 	tsteq	r0, r1
     5d0:	01045300 	mrseq	r5, LR_abt
     5d4:	01080000 	mrseq	r0, (UNDEF: 8)
     5d8:	00010000 	andeq	r0, r1, r0
     5dc:	00016053 	andeq	r6, r1, r3, asr r0
     5e0:	00016800 	andeq	r6, r1, r0, lsl #16
     5e4:	53000100 	movwpl	r0, #256	; 0x100
     5e8:	00000168 	andeq	r0, r0, r8, ror #2
     5ec:	00000188 	andeq	r0, r0, r8, lsl #3
     5f0:	01f30004 	mvnseq	r0, r4
     5f4:	01889f53 	orreq	r9, r8, r3, asr pc
     5f8:	01900000 	orrseq	r0, r0, r0
     5fc:	00010000 	andeq	r0, r1, r0
     600:	00019053 	andeq	r9, r1, r3, asr r0
     604:	00019400 	andeq	r9, r1, r0, lsl #8
     608:	5c000100 	stfpls	f0, [r0], {-0}
     60c:	00000194 	muleq	r0, r4, r1
     610:	0000019c 	muleq	r0, ip, r1
     614:	9c530001 	mrrcls	0, 0, r0, r3, cr1
     618:	bc000001 	stclt	0, cr0, [r0], {1}
     61c:	04000001 	streq	r0, [r0], #-1
     620:	5301f300 	movwpl	pc, #4864	; 0x1300	; <UNPREDICTABLE>
     624:	0001bc9f 	muleq	r1, pc, ip	; <UNPREDICTABLE>
     628:	0001bf00 	andeq	fp, r1, r0, lsl #30
     62c:	53000100 	movwpl	r0, #256	; 0x100
     630:	000001bf 			; <UNDEFINED> instruction: 0x000001bf
     634:	000001d8 	ldrdeq	r0, [r0], -r8
     638:	01f30004 	mvnseq	r0, r4
     63c:	00009f53 	andeq	r9, r0, r3, asr pc
     640:	00000000 	andeq	r0, r0, r0
     644:	00800000 	addeq	r0, r0, r0
     648:	009c0000 	addseq	r0, ip, r0
     64c:	00020000 	andeq	r0, r2, r0
     650:	009c0091 	umullseq	r0, ip, r1, r0
     654:	01bf0000 			; <UNDEFINED> instruction: 0x01bf0000
     658:	00010000 	andeq	r0, r1, r0
     65c:	0001d852 	andeq	sp, r1, r2, asr r8
     660:	0001e300 	andeq	lr, r1, r0, lsl #6
     664:	52000100 	andpl	r0, r0, #0, 2
	...
     670:	0000009c 	muleq	r0, ip, r0
     674:	00000118 	andeq	r0, r0, r8, lsl r1
     678:	185d0001 	ldmdane	sp, {r0}^
     67c:	1c000001 	stcne	0, cr0, [r0], {1}
     680:	01000001 	tsteq	r0, r1
     684:	011c5300 	tsteq	ip, r0, lsl #6
     688:	01200000 	teqeq	r0, r0
     68c:	00010000 	andeq	r0, r1, r0
     690:	00012051 	andeq	r2, r1, r1, asr r0
     694:	00016000 	andeq	r6, r1, r0
     698:	53000100 	movwpl	r0, #256	; 0x100
     69c:	00000160 	andeq	r0, r0, r0, ror #2
     6a0:	00000168 	andeq	r0, r0, r8, ror #2
     6a4:	685d0001 	ldmdavs	sp, {r0}^
     6a8:	6c000001 	stcvs	0, cr0, [r0], {1}
     6ac:	01000001 	tsteq	r0, r1
     6b0:	016c5e00 	cmneq	ip, r0, lsl #28
     6b4:	01880000 	orreq	r0, r8, r0
     6b8:	00010000 	andeq	r0, r1, r0
     6bc:	00018853 	andeq	r8, r1, r3, asr r8
     6c0:	00019000 	andeq	r9, r1, r0
     6c4:	91000400 	tstls	r0, r0, lsl #8
     6c8:	909f7fa1 	addsls	r7, pc, r1, lsr #31
     6cc:	94000001 	strls	r0, [r0], #-1
     6d0:	01000001 	tsteq	r0, r1
     6d4:	01945300 	orrseq	r5, r4, r0, lsl #6
     6d8:	019c0000 	orrseq	r0, ip, r0
     6dc:	00010000 	andeq	r0, r1, r0
     6e0:	00019c5d 	andeq	r9, r1, sp, asr ip
     6e4:	0001a000 	andeq	sl, r1, r0
     6e8:	5e000100 	adfpls	f0, f0, f0
     6ec:	000001a0 	andeq	r0, r0, r0, lsr #3
     6f0:	000001bc 			; <UNDEFINED> instruction: 0x000001bc
     6f4:	bc530001 	mrrclt	0, 0, r0, r3, cr1
     6f8:	d8000001 	stmdale	r0, {r0}
     6fc:	01000001 	tsteq	r0, r1
     700:	01d85d00 	bicseq	r5, r8, r0, lsl #26
     704:	01e30000 	mvneq	r0, r0
     708:	00010000 	andeq	r0, r1, r0
     70c:	00000053 	andeq	r0, r0, r3, asr r0
     710:	00000000 	andeq	r0, r0, r0
     714:	0000a000 	andeq	sl, r0, r0
     718:	0000ec00 	andeq	lr, r0, r0, lsl #24
     71c:	5c000100 	stfpls	f0, [r0], {-0}
     720:	000000ec 	andeq	r0, r0, ip, ror #1
     724:	00000100 	andeq	r0, r0, r0, lsl #2
     728:	00530001 	subseq	r0, r3, r1
     72c:	04000001 	streq	r0, [r0], #-1
     730:	01000001 	tsteq	r0, r1
     734:	01045c00 	tsteq	r4, r0, lsl #24
     738:	01080000 	mrseq	r0, (UNDEF: 8)
     73c:	00010000 	andeq	r0, r1, r0
     740:	00010853 	andeq	r0, r1, r3, asr r8
     744:	00011800 	andeq	r1, r1, r0, lsl #16
     748:	5c000100 	stfpls	f0, [r0], {-0}
     74c:	00000118 	andeq	r0, r0, r8, lsl r1
     750:	0000011c 	andeq	r0, r0, ip, lsl r1
     754:	1c500001 	mrrcne	0, 0, r0, r0, cr1	; <UNPREDICTABLE>
     758:	3c000001 	stccc	0, cr0, [r0], {1}
     75c:	01000001 	tsteq	r0, r1
     760:	01445c00 	cmpeq	r4, r0, lsl #24
     764:	01580000 	cmpeq	r8, r0
     768:	00010000 	andeq	r0, r1, r0
     76c:	00015850 	andeq	r5, r1, r0, asr r8
     770:	00016000 	andeq	r6, r1, r0
     774:	5c000100 	stfpls	f0, [r0], {-0}
     778:	00000160 	andeq	r0, r0, r0, ror #2
     77c:	00000168 	andeq	r0, r0, r8, ror #2
     780:	68530001 	ldmdavs	r3, {r0}^
     784:	78000001 	stmdavc	r0, {r0}
     788:	01000001 	tsteq	r0, r1
     78c:	01785c00 	cmneq	r8, r0, lsl #24
     790:	01800000 	orreq	r0, r0, r0
     794:	00050000 	andeq	r0, r5, r0
     798:	2534007c 	ldrcs	r0, [r4, #-124]!	; 0x7c
     79c:	0001809f 	muleq	r1, pc, r0	; <UNPREDICTABLE>
     7a0:	00018800 	andeq	r8, r1, r0, lsl #16
     7a4:	5c000100 	stfpls	f0, [r0], {-0}
     7a8:	00000188 	andeq	r0, r0, r8, lsl #3
     7ac:	00000190 	muleq	r0, r0, r1
     7b0:	90530001 	subsls	r0, r3, r1
     7b4:	94000001 	strls	r0, [r0], #-1
     7b8:	01000001 	tsteq	r0, r1
     7bc:	01945c00 	orrseq	r5, r4, r0, lsl #24
     7c0:	019c0000 	orrseq	r0, ip, r0
     7c4:	00010000 	andeq	r0, r1, r0
     7c8:	00019c53 	andeq	r9, r1, r3, asr ip
     7cc:	0001ac00 	andeq	sl, r1, r0, lsl #24
     7d0:	5c000100 	stfpls	f0, [r0], {-0}
     7d4:	000001ac 	andeq	r0, r0, ip, lsr #3
     7d8:	000001b4 			; <UNDEFINED> instruction: 0x000001b4
     7dc:	007c0005 	rsbseq	r0, ip, r5
     7e0:	b49f2531 	ldrlt	r2, [pc], #1329	; 7e8 <_start-0x7818>
     7e4:	bc000001 	stclt	0, cr0, [r0], {1}
     7e8:	01000001 	tsteq	r0, r1
     7ec:	01bc5c00 			; <UNDEFINED> instruction: 0x01bc5c00
     7f0:	01bf0000 			; <UNDEFINED> instruction: 0x01bf0000
     7f4:	00010000 	andeq	r0, r1, r0
     7f8:	0001bf53 	andeq	fp, r1, r3, asr pc
     7fc:	0001d800 	andeq	sp, r1, r0, lsl #16
     800:	f3000400 	vshl.u8	d0, d0, d0
     804:	d89f5301 	ldmle	pc, {r0, r8, r9, ip, lr}	; <UNPREDICTABLE>
     808:	e3000001 	movw	r0, #1
     80c:	01000001 	tsteq	r0, r1
     810:	00005c00 	andeq	r5, r0, r0, lsl #24
     814:	00000000 	andeq	r0, r0, r0
     818:	00ec0000 	rsceq	r0, ip, r0
     81c:	00fc0000 	rscseq	r0, ip, r0
     820:	00020000 	andeq	r0, r2, r0
     824:	00fc9f30 	rscseq	r9, ip, r0, lsr pc
     828:	01040000 	mrseq	r0, (UNDEF: 4)
     82c:	00020000 	andeq	r0, r2, r0
     830:	01049f31 	tsteq	r4, r1, lsr pc
     834:	01080000 	mrseq	r0, (UNDEF: 8)
     838:	00020000 	andeq	r0, r2, r0
     83c:	00009f30 	andeq	r9, r0, r0, lsr pc
     840:	00000000 	andeq	r0, r0, r0
     844:	021c0000 	andseq	r0, ip, #0
     848:	022b0000 	eoreq	r0, fp, #0
     84c:	00010000 	andeq	r0, r1, r0
     850:	00022b50 	andeq	r2, r2, r0, asr fp
     854:	00024400 	andeq	r4, r2, r0, lsl #8
     858:	f3000400 	vshl.u8	d0, d0, d0
     85c:	449f5001 	ldrmi	r5, [pc], #1	; 864 <_start-0x779c>
     860:	70000002 	andvc	r0, r0, r2
     864:	01000002 	tsteq	r0, r2
     868:	00005000 	andeq	r5, r0, r0
     86c:	00000000 	andeq	r0, r0, r0
     870:	021c0000 	andseq	r0, ip, #0
     874:	022b0000 	eoreq	r0, fp, #0
     878:	00010000 	andeq	r0, r1, r0
     87c:	00022b51 	andeq	r2, r2, r1, asr fp
     880:	00024400 	andeq	r4, r2, r0, lsl #8
     884:	f3000400 	vshl.u8	d0, d0, d0
     888:	449f5101 	ldrmi	r5, [pc], #257	; 890 <_start-0x7770>
     88c:	70000002 	andvc	r0, r0, r2
     890:	01000002 	tsteq	r0, r2
     894:	00005100 	andeq	r5, r0, r0, lsl #2
     898:	00000000 	andeq	r0, r0, r0
     89c:	02700000 	rsbseq	r0, r0, #0
     8a0:	029c0000 	addseq	r0, ip, #0
     8a4:	00010000 	andeq	r0, r1, r0
     8a8:	00029c50 	andeq	r9, r2, r0, asr ip
     8ac:	0004e400 	andeq	lr, r4, r0, lsl #8
     8b0:	5a000100 	bpl	cb8 <_start-0x7348>
     8b4:	000004e4 	andeq	r0, r0, r4, ror #9
     8b8:	000004f8 	strdeq	r0, [r0], -r8
     8bc:	01f30004 	mvnseq	r0, r4
     8c0:	00009f50 	andeq	r9, r0, r0, asr pc
     8c4:	00000000 	andeq	r0, r0, r0
     8c8:	02700000 	rsbseq	r0, r0, #0
     8cc:	02840000 	addeq	r0, r4, #0
     8d0:	00010000 	andeq	r0, r1, r0
     8d4:	00028451 	andeq	r8, r2, r1, asr r4
     8d8:	00029c00 	andeq	r9, r2, r0, lsl #24
     8dc:	71000300 	mrsvc	r0, LR_irq
     8e0:	029c9f01 	addseq	r9, ip, #1, 30
     8e4:	04f80000 	ldrbteq	r0, [r8], #0
     8e8:	00040000 	andeq	r0, r4, r0
     8ec:	9f5101f3 	svcls	0x005101f3
	...
     8f8:	00000270 	andeq	r0, r0, r0, ror r2
     8fc:	000002a4 	andeq	r0, r0, r4, lsr #5
     900:	a4520001 	ldrbge	r0, [r2], #-1
     904:	cc000002 	stcgt	0, cr0, [r0], {2}
     908:	01000002 	tsteq	r0, r2
     90c:	02cc5200 	sbceq	r5, ip, #0, 4
     910:	04940000 	ldreq	r0, [r4], #0
     914:	00010000 	andeq	r0, r1, r0
     918:	00049456 	andeq	r9, r4, r6, asr r4
     91c:	0004f800 	andeq	pc, r4, r0, lsl #16
     920:	52000100 	andpl	r0, r0, #0, 2
	...
     92c:	00000270 	andeq	r0, r0, r0, ror r2
     930:	0000028c 	andeq	r0, r0, ip, lsl #5
     934:	00530001 	subseq	r0, r3, r1
     938:	00000000 	andeq	r0, r0, r0
     93c:	80000000 	andhi	r0, r0, r0
     940:	9c000002 	stcls	0, cr0, [r0], {2}
     944:	01000002 	tsteq	r0, r2
     948:	029c5000 	addseq	r5, ip, #0
     94c:	02a00000 	adceq	r0, r0, #0
     950:	00010000 	andeq	r0, r1, r0
     954:	0002a054 	andeq	sl, r2, r4, asr r0
     958:	0002ac00 	andeq	sl, r2, r0, lsl #24
     95c:	74000300 	strvc	r0, [r0], #-768	; 0x300
     960:	02ac9f01 	adceq	r9, ip, #1, 30
     964:	02b80000 	adcseq	r0, r8, #0
     968:	00010000 	andeq	r0, r1, r0
     96c:	0002b854 	andeq	fp, r2, r4, asr r8
     970:	0002c400 	andeq	ip, r2, r0, lsl #8
     974:	74000300 	strvc	r0, [r0], #-768	; 0x300
     978:	02c49f01 	sbceq	r9, r4, #1, 30
     97c:	04980000 	ldreq	r0, [r8], #0
     980:	00010000 	andeq	r0, r1, r0
     984:	00049854 	andeq	r9, r4, r4, asr r8
     988:	0004a400 	andeq	sl, r4, r0, lsl #8
     98c:	74000300 	strvc	r0, [r0], #-768	; 0x300
     990:	04a49f01 	strteq	r9, [r4], #3841	; 0xf01
     994:	04d00000 	ldrbeq	r0, [r0], #0
     998:	00010000 	andeq	r0, r1, r0
     99c:	0004d054 	andeq	sp, r4, r4, asr r0
     9a0:	0004dc00 	andeq	sp, r4, r0, lsl #24
     9a4:	50000100 	andpl	r0, r0, r0, lsl #2
     9a8:	000004dc 	ldrdeq	r0, [r0], -ip
     9ac:	000004e4 	andeq	r0, r0, r4, ror #9
     9b0:	01740003 	cmneq	r4, r3
     9b4:	0000009f 	muleq	r0, pc, r0	; <UNPREDICTABLE>
     9b8:	00000000 	andeq	r0, r0, r0
     9bc:	00028800 	andeq	r8, r2, r0, lsl #16
     9c0:	0004e400 	andeq	lr, r4, r0, lsl #8
     9c4:	58000100 	stmdapl	r0, {r8}
     9c8:	000004e4 	andeq	r0, r0, r4, ror #9
     9cc:	000004f8 	strdeq	r0, [r0], -r8
     9d0:	01f3000a 	mvnseq	r0, sl
     9d4:	5001f351 	andpl	pc, r1, r1, asr r3	; <UNPREDICTABLE>
     9d8:	9f1c3122 	svcls	0x001c3122
	...
     9e4:	000003cc 	andeq	r0, r0, ip, asr #7
     9e8:	000003d0 	ldrdeq	r0, [r0], -r0	; <UNPREDICTABLE>
     9ec:	f0500001 			; <UNDEFINED> instruction: 0xf0500001
     9f0:	f4000003 	vst4.8	{d0-d3}, [r0], r3
     9f4:	01000003 	tsteq	r0, r3
     9f8:	04145000 	ldreq	r5, [r4], #-0
     9fc:	04180000 	ldreq	r0, [r8], #-0
     a00:	00010000 	andeq	r0, r1, r0
     a04:	00043850 	andeq	r3, r4, r0, asr r8
     a08:	00043c00 	andeq	r3, r4, r0, lsl #24
     a0c:	50000100 	andpl	r0, r0, r0, lsl #2
     a10:	00000444 	andeq	r0, r0, r4, asr #8
     a14:	00000448 	andeq	r0, r0, r8, asr #8
     a18:	68500001 	ldmdavs	r0, {r0}^
     a1c:	6c000004 	stcvs	0, cr0, [r0], {4}
     a20:	01000004 	tsteq	r0, r4
     a24:	04905000 	ldreq	r5, [r0], #0
     a28:	04b80000 	ldrteq	r0, [r8], #0
     a2c:	00010000 	andeq	r0, r1, r0
     a30:	00000050 	andeq	r0, r0, r0, asr r0
     a34:	00000000 	andeq	r0, r0, r0
     a38:	0002cc00 	andeq	ip, r2, r0, lsl #24
     a3c:	0002d400 	andeq	sp, r2, r0, lsl #8
     a40:	30000200 	andcc	r0, r0, r0, lsl #4
     a44:	0002d49f 	muleq	r2, pc, r4	; <UNPREDICTABLE>
     a48:	0002d800 	andeq	sp, r2, r0, lsl #16
     a4c:	57000100 	strpl	r0, [r0, -r0, lsl #2]
     a50:	000002e4 	andeq	r0, r0, r4, ror #5
     a54:	000004b8 			; <UNDEFINED> instruction: 0x000004b8
     a58:	00570001 	subseq	r0, r7, r1
     a5c:	00000000 	andeq	r0, r0, r0
     a60:	14000000 	strne	r0, [r0], #-0
     a64:	1c000000 	stcne	0, cr0, [r0], {-0}
     a68:	03000000 	movweq	r0, #0
     a6c:	9f047300 	svcls	0x00047300
     a70:	0000001c 	andeq	r0, r0, ip, lsl r0
     a74:	00000027 	andeq	r0, r0, r7, lsr #32
     a78:	00530001 	subseq	r0, r3, r1
     a7c:	00000000 	andeq	r0, r0, r0
     a80:	58000000 	stmdapl	r0, {}	; <UNPREDICTABLE>
     a84:	5c000088 	stcpl	0, cr0, [r0], {136}	; 0x88
     a88:	02000088 	andeq	r0, r0, #136	; 0x88
     a8c:	5c9f3000 	ldcpl	0, cr3, [pc], {0}
     a90:	60000088 	andvs	r0, r0, r8, lsl #1
     a94:	01000088 	smlabbeq	r0, r8, r0, r0
     a98:	00005000 	andeq	r5, r0, r0
     a9c:	00000000 	andeq	r0, r0, r0
     aa0:	88700000 	ldmdahi	r0!, {}^	; <UNPREDICTABLE>
     aa4:	88740000 	ldmdahi	r4!, {}^	; <UNPREDICTABLE>
     aa8:	00020000 	andeq	r0, r2, r0
     aac:	88749f30 	ldmdahi	r4!, {r4, r5, r8, r9, sl, fp, ip, pc}^
     ab0:	88780000 	ldmdahi	r8!, {}^	; <UNPREDICTABLE>
     ab4:	00010000 	andeq	r0, r1, r0
     ab8:	00887c53 	addeq	r7, r8, r3, asr ip
     abc:	00888400 	addeq	r8, r8, r0, lsl #8
     ac0:	53000100 	movwpl	r0, #256	; 0x100
	...
     ad0:	00000004 	andeq	r0, r0, r4
     ad4:	04500001 	ldrbeq	r0, [r0], #-1
     ad8:	0c000000 	stceq	0, cr0, [r0], {-0}
     adc:	01000000 	mrseq	r0, (UNDEF: 0)
     ae0:	000c5300 	andeq	r5, ip, r0, lsl #6
     ae4:	00100000 	andseq	r0, r0, r0
     ae8:	00010000 	andeq	r0, r1, r0
     aec:	00001050 	andeq	r1, r0, r0, asr r0
     af0:	00001c00 	andeq	r1, r0, r0, lsl #24
     af4:	53000100 	movwpl	r0, #256	; 0x100
	...
     b00:	0000003c 	andeq	r0, r0, ip, lsr r0
     b04:	00000047 	andeq	r0, r0, r7, asr #32
     b08:	47500001 	ldrbmi	r0, [r0, -r1]
     b0c:	60000000 	andvs	r0, r0, r0
     b10:	01000000 	mrseq	r0, (UNDEF: 0)
     b14:	00005500 	andeq	r5, r0, r0, lsl #10
     b18:	00000000 	andeq	r0, r0, r0
     b1c:	00500000 	subseq	r0, r0, r0
     b20:	00540000 	subseq	r0, r4, r0
     b24:	00010000 	andeq	r0, r1, r0
     b28:	00000050 	andeq	r0, r0, r0, asr r0
     b2c:	00000000 	andeq	r0, r0, r0
     b30:	00006000 	andeq	r6, r0, r0
     b34:	00006c00 	andeq	r6, r0, r0, lsl #24
     b38:	50000100 	andpl	r0, r0, r0, lsl #2
     b3c:	0000006c 	andeq	r0, r0, ip, rrx
     b40:	00000074 	andeq	r0, r0, r4, ror r0
     b44:	01f30004 	mvnseq	r0, r4
     b48:	00009f50 	andeq	r9, r0, r0, asr pc
     b4c:	00000000 	andeq	r0, r0, r0
     b50:	00740000 	rsbseq	r0, r4, r0
     b54:	00800000 	addeq	r0, r0, r0
     b58:	00010000 	andeq	r0, r1, r0
     b5c:	00008050 	andeq	r8, r0, r0, asr r0
     b60:	00008800 	andeq	r8, r0, r0, lsl #16
     b64:	f3000400 	vshl.u8	d0, d0, d0
     b68:	009f5001 	addseq	r5, pc, r1
	...
     b74:	90000000 	andls	r0, r0, r0
     b78:	01000000 	mrseq	r0, (UNDEF: 0)
     b7c:	00905000 	addseq	r5, r0, r0
     b80:	00d40000 	sbcseq	r0, r4, r0
     b84:	00010000 	andeq	r0, r1, r0
     b88:	00000054 	andeq	r0, r0, r4, asr r0
     b8c:	00000000 	andeq	r0, r0, r0
     b90:	00004800 	andeq	r4, r0, r0, lsl #16
     b94:	00004c00 	andeq	r4, r0, r0, lsl #24
     b98:	55000100 	strpl	r0, [r0, #-256]	; 0x100
     b9c:	00000054 	andeq	r0, r0, r4, asr r0
     ba0:	00000058 	andeq	r0, r0, r8, asr r0
     ba4:	60550001 	subsvs	r0, r5, r1
     ba8:	64000000 	strvs	r0, [r0], #-0
     bac:	01000000 	mrseq	r0, (UNDEF: 0)
     bb0:	006c5500 	rsbeq	r5, ip, r0, lsl #10
     bb4:	00700000 	rsbseq	r0, r0, r0
     bb8:	00010000 	andeq	r0, r1, r0
     bbc:	00007855 	andeq	r7, r0, r5, asr r8
     bc0:	00007c00 	andeq	r7, r0, r0, lsl #24
     bc4:	55000100 	strpl	r0, [r0, #-256]	; 0x100
     bc8:	00000084 	andeq	r0, r0, r4, lsl #1
     bcc:	00000088 	andeq	r0, r0, r8, lsl #1
     bd0:	8c550001 	mrrchi	0, 0, r0, r5, cr1
     bd4:	d4000000 	strle	r0, [r0], #-0
     bd8:	01000000 	mrseq	r0, (UNDEF: 0)
     bdc:	00005500 	andeq	r5, r0, r0, lsl #10
     be0:	00000000 	andeq	r0, r0, r0
     be4:	001c0000 	andseq	r0, ip, r0
     be8:	00440000 	subeq	r0, r4, r0
     bec:	00010000 	andeq	r0, r1, r0
     bf0:	00004453 	andeq	r4, r0, r3, asr r4
     bf4:	00004c00 	andeq	r4, r0, r0, lsl #24
     bf8:	70001c00 	andvc	r1, r0, r0, lsl #24
     bfc:	f72cf700 			; <UNDEFINED> instruction: 0xf72cf700
     c00:	0825f425 	stmdaeq	r5!, {r0, r2, r5, sl, ip, sp, lr, pc}
     c04:	cccccccd 	stclgt	12, cr12, [ip], {205}	; 0xcd
     c08:	00000000 	andeq	r0, r0, r0
     c0c:	f720081e 			; <UNDEFINED> instruction: 0xf720081e
     c10:	2cf72525 	cfldr64cs	mvdx2, [r7], #148	; 0x94
     c14:	4c9f2533 	cfldr32mi	mvfx2, [pc], {51}	; 0x33
     c18:	50000000 	andpl	r0, r0, r0
     c1c:	01000000 	mrseq	r0, (UNDEF: 0)
     c20:	00505300 	subseq	r5, r0, r0, lsl #6
     c24:	00580000 	subseq	r0, r8, r0
     c28:	001c0000 	andseq	r0, ip, r0
     c2c:	2cf70070 	ldclcs	0, cr0, [r7], #448	; 0x1c0
     c30:	25f425f7 	ldrbcs	r2, [r4, #1527]!	; 0x5f7
     c34:	cccccd08 	stclgt	13, cr12, [ip], {8}
     c38:	000000cc 	andeq	r0, r0, ip, asr #1
     c3c:	20081e00 	andcs	r1, r8, r0, lsl #28
     c40:	f72525f7 			; <UNDEFINED> instruction: 0xf72525f7
     c44:	9f25332c 	svcls	0x0025332c
     c48:	00000058 	andeq	r0, r0, r8, asr r0
     c4c:	0000005c 	andeq	r0, r0, ip, asr r0
     c50:	5c530001 	mrrcpl	0, 0, r0, r3, cr1
     c54:	64000000 	strvs	r0, [r0], #-0
     c58:	1c000000 	stcne	0, cr0, [r0], {-0}
     c5c:	f7007000 			; <UNDEFINED> instruction: 0xf7007000
     c60:	f425f72c 	vld1.8	{d15}, [r5 :128], ip
     c64:	cccd0825 	stclgt	8, cr0, [sp], {37}	; 0x25
     c68:	0000cccc 	andeq	ip, r0, ip, asr #25
     c6c:	081e0000 	ldmdaeq	lr, {}	; <UNPREDICTABLE>
     c70:	2525f720 	strcs	pc, [r5, #-1824]!	; 0x720
     c74:	25332cf7 	ldrcs	r2, [r3, #-3319]!	; 0xcf7
     c78:	0000649f 	muleq	r0, pc, r4	; <UNPREDICTABLE>
     c7c:	00006800 	andeq	r6, r0, r0, lsl #16
     c80:	53000100 	movwpl	r0, #256	; 0x100
     c84:	00000068 	andeq	r0, r0, r8, rrx
     c88:	00000070 	andeq	r0, r0, r0, ror r0
     c8c:	0070001c 	rsbseq	r0, r0, ip, lsl r0
     c90:	25f72cf7 	ldrbcs	r2, [r7, #3319]!	; 0xcf7
     c94:	cd0825f4 	cfstr32gt	mvfx2, [r8, #-976]	; 0xfffffc30
     c98:	00cccccc 	sbceq	ip, ip, ip, asr #25
     c9c:	1e000000 	cdpne	0, 0, cr0, cr0, cr0, {0}
     ca0:	25f72008 	ldrbcs	r2, [r7, #8]!
     ca4:	332cf725 	msrcc	CPSR_fs, #9699328	; 0x940000
     ca8:	00709f25 	rsbseq	r9, r0, r5, lsr #30
     cac:	00740000 	rsbseq	r0, r4, r0
     cb0:	00010000 	andeq	r0, r1, r0
     cb4:	00007453 	andeq	r7, r0, r3, asr r4
     cb8:	00007c00 	andeq	r7, r0, r0, lsl #24
     cbc:	70001c00 	andvc	r1, r0, r0, lsl #24
     cc0:	f72cf700 			; <UNDEFINED> instruction: 0xf72cf700
     cc4:	0825f425 	stmdaeq	r5!, {r0, r2, r5, sl, ip, sp, lr, pc}
     cc8:	cccccccd 	stclgt	12, cr12, [ip], {205}	; 0xcd
     ccc:	00000000 	andeq	r0, r0, r0
     cd0:	f720081e 			; <UNDEFINED> instruction: 0xf720081e
     cd4:	2cf72525 	cfldr64cs	mvdx2, [r7], #148	; 0x94
     cd8:	7c9f2533 	cfldr32vc	mvfx2, [pc], {51}	; 0x33
     cdc:	80000000 	andhi	r0, r0, r0
     ce0:	01000000 	mrseq	r0, (UNDEF: 0)
     ce4:	00805300 	addeq	r5, r0, r0, lsl #6
     ce8:	00880000 	addeq	r0, r8, r0
     cec:	001c0000 	andseq	r0, ip, r0
     cf0:	2cf70070 	ldclcs	0, cr0, [r7], #448	; 0x1c0
     cf4:	25f425f7 	ldrbcs	r2, [r4, #1527]!	; 0x5f7
     cf8:	cccccd08 	stclgt	13, cr12, [ip], {8}
     cfc:	000000cc 	andeq	r0, r0, ip, asr #1
     d00:	20081e00 	andcs	r1, r8, r0, lsl #28
     d04:	f72525f7 			; <UNDEFINED> instruction: 0xf72525f7
     d08:	9f25332c 	svcls	0x0025332c
     d0c:	00000088 	andeq	r0, r0, r8, lsl #1
     d10:	0000008c 	andeq	r0, r0, ip, lsl #1
     d14:	8c530001 	mrrchi	0, 0, r0, r3, cr1
     d18:	90000000 	andls	r0, r0, r0
     d1c:	1c000000 	stcne	0, cr0, [r0], {-0}
     d20:	f7007000 			; <UNDEFINED> instruction: 0xf7007000
     d24:	f425f72c 	vld1.8	{d15}, [r5 :128], ip
     d28:	cccd0825 	stclgt	8, cr0, [sp], {37}	; 0x25
     d2c:	0000cccc 	andeq	ip, r0, ip, asr #25
     d30:	081e0000 	ldmdaeq	lr, {}	; <UNPREDICTABLE>
     d34:	2525f720 	strcs	pc, [r5, #-1824]!	; 0x720
     d38:	25332cf7 	ldrcs	r2, [r3, #-3319]!	; 0xcf7
     d3c:	0000909f 	muleq	r0, pc, r0	; <UNPREDICTABLE>
     d40:	00009800 	andeq	r9, r0, r0, lsl #16
     d44:	74001c00 	strvc	r1, [r0], #-3072	; 0xc00
     d48:	f72cf700 			; <UNDEFINED> instruction: 0xf72cf700
     d4c:	0825f425 	stmdaeq	r5!, {r0, r2, r5, sl, ip, sp, lr, pc}
     d50:	cccccccd 	stclgt	12, cr12, [ip], {205}	; 0xcd
     d54:	00000000 	andeq	r0, r0, r0
     d58:	f720081e 			; <UNDEFINED> instruction: 0xf720081e
     d5c:	2cf72525 	cfldr64cs	mvdx2, [r7], #148	; 0x94
     d60:	989f2533 	ldmls	pc, {r0, r1, r4, r5, r8, sl, sp}	; <UNPREDICTABLE>
     d64:	9c000000 	stcls	0, cr0, [r0], {-0}
     d68:	17000000 	strne	r0, [r0, -r0]
     d6c:	f7007400 			; <UNDEFINED> instruction: 0xf7007400
     d70:	7125f72c 	msrvc	SP_abt, ip
     d74:	f72cf700 			; <UNDEFINED> instruction: 0xf72cf700
     d78:	20081e25 	andcs	r1, r8, r5, lsr #28
     d7c:	f72525f7 			; <UNDEFINED> instruction: 0xf72525f7
     d80:	9f25332c 	svcls	0x0025332c
     d84:	0000009c 	muleq	r0, ip, r0
     d88:	000000d4 	ldrdeq	r0, [r0], -r4
     d8c:	0074001c 	rsbseq	r0, r4, ip, lsl r0
     d90:	25f72cf7 	ldrbcs	r2, [r7, #3319]!	; 0xcf7
     d94:	cd0825f4 	cfstr32gt	mvfx2, [r8, #-976]	; 0xfffffc30
     d98:	00cccccc 	sbceq	ip, ip, ip, asr #25
     d9c:	1e000000 	cdpne	0, 0, cr0, cr0, cr0, {0}
     da0:	25f72008 	ldrbcs	r2, [r7, #8]!
     da4:	332cf725 	msrcc	CPSR_fs, #9699328	; 0x940000
     da8:	00009f25 	andeq	r9, r0, r5, lsr #30
     dac:	00000000 	andeq	r0, r0, r0
     db0:	00940000 	addseq	r0, r4, r0
     db4:	00b80000 	adcseq	r0, r8, r0
     db8:	00010000 	andeq	r0, r1, r0
     dbc:	0000b850 	andeq	fp, r0, r0, asr r8
     dc0:	0000c400 	andeq	ip, r0, r0, lsl #8
     dc4:	31000800 	tstcc	r0, r0, lsl #16
     dc8:	73240071 	teqvc	r4, #113	; 0x71
     dcc:	c49f2100 	ldrgt	r2, [pc], #256	; dd4 <_start-0x722c>
     dd0:	c7000000 	strgt	r0, [r0, -r0]
     dd4:	01000000 	mrseq	r0, (UNDEF: 0)
     dd8:	00005100 	andeq	r5, r0, r0, lsl #2
     ddc:	00000000 	andeq	r0, r0, r0
     de0:	00d40000 	sbcseq	r0, r4, r0
     de4:	00f80000 	rscseq	r0, r8, r0
     de8:	00010000 	andeq	r0, r1, r0
     dec:	0000f850 	andeq	pc, r0, r0, asr r8	; <UNPREDICTABLE>
     df0:	00010c00 	andeq	r0, r1, r0, lsl #24
     df4:	f3000400 	vshl.u8	d0, d0, d0
     df8:	009f5001 	addseq	r5, pc, r1
     dfc:	00000000 	andeq	r0, r0, r0
     e00:	e0000000 	and	r0, r0, r0
     e04:	e8000000 	stmda	r0, {}	; <UNPREDICTABLE>
     e08:	02000000 	andeq	r0, r0, #0
     e0c:	e89f3000 	ldm	pc, {ip, sp}	; <UNPREDICTABLE>
     e10:	e8000000 	stmda	r0, {}	; <UNPREDICTABLE>
     e14:	01000000 	mrseq	r0, (UNDEF: 0)
     e18:	00e85200 	rsceq	r5, r8, r0, lsl #4
     e1c:	00f00000 	rscseq	r0, r0, r0
     e20:	00020000 	andeq	r0, r2, r0
     e24:	00f09f30 	rscseq	r9, r0, r0, lsr pc
     e28:	01030000 	mrseq	r0, (UNDEF: 3)
     e2c:	00010000 	andeq	r0, r1, r0
     e30:	00000052 	andeq	r0, r0, r2, asr r0
     e34:	00000000 	andeq	r0, r0, r0
     e38:	0000e000 	andeq	lr, r0, r0
     e3c:	0000f400 	andeq	pc, r0, r0, lsl #8
     e40:	30000200 	andcc	r0, r0, r0, lsl #4
     e44:	0000f49f 	muleq	r0, pc, r4	; <UNPREDICTABLE>
     e48:	00010000 	andeq	r0, r1, r0
     e4c:	31000500 	tstcc	r0, r0, lsl #10
     e50:	9f240073 	svcls	0x00240073
     e54:	00000100 	andeq	r0, r0, r0, lsl #2
     e58:	00000103 	andeq	r0, r0, r3, lsl #2
     e5c:	03510001 	cmpeq	r1, #1
     e60:	0c000001 	stceq	0, cr0, [r0], {1}
     e64:	08000001 	stmdaeq	r0, {r0}
     e68:	01f33100 	mvnseq	r3, r0, lsl #2
     e6c:	241a4f50 	ldrcs	r4, [sl], #-3920	; 0xf50
     e70:	0000009f 	muleq	r0, pc, r0	; <UNPREDICTABLE>
     e74:	00000000 	andeq	r0, r0, r0
     e78:	00010c00 	andeq	r0, r1, r0, lsl #24
     e7c:	00013000 	andeq	r3, r1, r0
     e80:	50000100 	andpl	r0, r0, r0, lsl #2
     e84:	00000130 	andeq	r0, r0, r0, lsr r1
     e88:	00000144 	andeq	r0, r0, r4, asr #2
     e8c:	01f30004 	mvnseq	r0, r4
     e90:	00009f50 	andeq	r9, r0, r0, asr pc
     e94:	00000000 	andeq	r0, r0, r0
     e98:	01180000 	tsteq	r8, r0
     e9c:	01200000 	teqeq	r0, r0
     ea0:	00020000 	andeq	r0, r2, r0
     ea4:	01209f30 	teqeq	r0, r0, lsr pc
     ea8:	01200000 	teqeq	r0, r0
     eac:	00010000 	andeq	r0, r1, r0
     eb0:	00012052 	andeq	r2, r1, r2, asr r0
     eb4:	00012800 	andeq	r2, r1, r0, lsl #16
     eb8:	30000200 	andcc	r0, r0, r0, lsl #4
     ebc:	0001289f 	muleq	r1, pc, r8	; <UNPREDICTABLE>
     ec0:	00013b00 	andeq	r3, r1, r0, lsl #22
     ec4:	52000100 	andpl	r0, r0, #0, 2
	...
     ed0:	00000118 	andeq	r0, r0, r8, lsl r1
     ed4:	0000012c 	andeq	r0, r0, ip, lsr #2
     ed8:	9f300002 	svcls	0x00300002
     edc:	0000012c 	andeq	r0, r0, ip, lsr #2
     ee0:	00000138 	andeq	r0, r0, r8, lsr r1
     ee4:	73310005 	teqvc	r1, #5
     ee8:	389f2400 	ldmcc	pc, {sl, sp}	; <UNPREDICTABLE>
     eec:	3b000001 	blcc	ef8 <_start-0x7108>
     ef0:	01000001 	tsteq	r0, r1
     ef4:	013b5100 	teqeq	fp, r0, lsl #2
     ef8:	01440000 	mrseq	r0, (UNDEF: 68)
     efc:	00080000 	andeq	r0, r8, r0
     f00:	5001f331 	andpl	pc, r1, r1, lsr r3	; <UNPREDICTABLE>
     f04:	9f241a4f 	svcls	0x00241a4f
	...
     f10:	00000144 	andeq	r0, r0, r4, asr #2
     f14:	000001d4 	ldrdeq	r0, [r0], -r4
     f18:	d4500001 	ldrble	r0, [r0], #-1
     f1c:	10000001 	andne	r0, r0, r1
     f20:	01000002 	tsteq	r0, r2
     f24:	00005400 	andeq	r5, r0, r0, lsl #8
     f28:	00000000 	andeq	r0, r0, r0
     f2c:	018c0000 	orreq	r0, ip, r0
     f30:	01900000 	orrseq	r0, r0, r0
     f34:	00010000 	andeq	r0, r1, r0
     f38:	00019855 	andeq	r9, r1, r5, asr r8
     f3c:	00019c00 	andeq	r9, r1, r0, lsl #24
     f40:	55000100 	strpl	r0, [r0, #-256]	; 0x100
     f44:	000001a4 	andeq	r0, r0, r4, lsr #3
     f48:	000001a8 	andeq	r0, r0, r8, lsr #3
     f4c:	b0550001 	subslt	r0, r5, r1
     f50:	b4000001 	strlt	r0, [r0], #-1
     f54:	01000001 	tsteq	r0, r1
     f58:	01bc5500 			; <UNDEFINED> instruction: 0x01bc5500
     f5c:	01c00000 	biceq	r0, r0, r0
     f60:	00010000 	andeq	r0, r1, r0
     f64:	0001c855 	andeq	ip, r1, r5, asr r8
     f68:	0001cc00 	andeq	ip, r1, r0, lsl #24
     f6c:	55000100 	strpl	r0, [r0, #-256]	; 0x100
     f70:	000001d0 	ldrdeq	r0, [r0], -r0	; <UNPREDICTABLE>
     f74:	00000210 	andeq	r0, r0, r0, lsl r2
     f78:	00550001 	subseq	r0, r5, r1
     f7c:	00000000 	andeq	r0, r0, r0
     f80:	60000000 	andvs	r0, r0, r0
     f84:	88000001 	stmdahi	r0, {r0}
     f88:	01000001 	tsteq	r0, r1
     f8c:	01885300 	orreq	r5, r8, r0, lsl #6
     f90:	01900000 	orrseq	r0, r0, r0
     f94:	001c0000 	andseq	r0, ip, r0
     f98:	2cf70070 	ldclcs	0, cr0, [r7], #448	; 0x1c0
     f9c:	25f425f7 	ldrbcs	r2, [r4, #1527]!	; 0x5f7
     fa0:	cccccd08 	stclgt	13, cr12, [ip], {8}
     fa4:	000000cc 	andeq	r0, r0, ip, asr #1
     fa8:	20081e00 	andcs	r1, r8, r0, lsl #28
     fac:	f72525f7 			; <UNDEFINED> instruction: 0xf72525f7
     fb0:	9f25332c 	svcls	0x0025332c
     fb4:	00000190 	muleq	r0, r0, r1
     fb8:	00000194 	muleq	r0, r4, r1
     fbc:	94530001 	ldrbls	r0, [r3], #-1
     fc0:	9c000001 	stcls	0, cr0, [r0], {1}
     fc4:	1c000001 	stcne	0, cr0, [r0], {1}
     fc8:	f7007000 			; <UNDEFINED> instruction: 0xf7007000
     fcc:	f425f72c 	vld1.8	{d15}, [r5 :128], ip
     fd0:	cccd0825 	stclgt	8, cr0, [sp], {37}	; 0x25
     fd4:	0000cccc 	andeq	ip, r0, ip, asr #25
     fd8:	081e0000 	ldmdaeq	lr, {}	; <UNPREDICTABLE>
     fdc:	2525f720 	strcs	pc, [r5, #-1824]!	; 0x720
     fe0:	25332cf7 	ldrcs	r2, [r3, #-3319]!	; 0xcf7
     fe4:	00019c9f 	muleq	r1, pc, ip	; <UNPREDICTABLE>
     fe8:	0001a000 	andeq	sl, r1, r0
     fec:	53000100 	movwpl	r0, #256	; 0x100
     ff0:	000001a0 	andeq	r0, r0, r0, lsr #3
     ff4:	000001a8 	andeq	r0, r0, r8, lsr #3
     ff8:	0070001c 	rsbseq	r0, r0, ip, lsl r0
     ffc:	25f72cf7 	ldrbcs	r2, [r7, #3319]!	; 0xcf7
    1000:	cd0825f4 	cfstr32gt	mvfx2, [r8, #-976]	; 0xfffffc30
    1004:	00cccccc 	sbceq	ip, ip, ip, asr #25
    1008:	1e000000 	cdpne	0, 0, cr0, cr0, cr0, {0}
    100c:	25f72008 	ldrbcs	r2, [r7, #8]!
    1010:	332cf725 	msrcc	CPSR_fs, #9699328	; 0x940000
    1014:	01a89f25 			; <UNDEFINED> instruction: 0x01a89f25
    1018:	01ac0000 			; <UNDEFINED> instruction: 0x01ac0000
    101c:	00010000 	andeq	r0, r1, r0
    1020:	0001ac53 	andeq	sl, r1, r3, asr ip
    1024:	0001b400 	andeq	fp, r1, r0, lsl #8
    1028:	70001c00 	andvc	r1, r0, r0, lsl #24
    102c:	f72cf700 			; <UNDEFINED> instruction: 0xf72cf700
    1030:	0825f425 	stmdaeq	r5!, {r0, r2, r5, sl, ip, sp, lr, pc}
    1034:	cccccccd 	stclgt	12, cr12, [ip], {205}	; 0xcd
    1038:	00000000 	andeq	r0, r0, r0
    103c:	f720081e 			; <UNDEFINED> instruction: 0xf720081e
    1040:	2cf72525 	cfldr64cs	mvdx2, [r7], #148	; 0x94
    1044:	b49f2533 	ldrlt	r2, [pc], #1331	; 104c <_start-0x6fb4>
    1048:	b8000001 	stmdalt	r0, {r0}
    104c:	01000001 	tsteq	r0, r1
    1050:	01b85300 			; <UNDEFINED> instruction: 0x01b85300
    1054:	01c00000 	biceq	r0, r0, r0
    1058:	001c0000 	andseq	r0, ip, r0
    105c:	2cf70070 	ldclcs	0, cr0, [r7], #448	; 0x1c0
    1060:	25f425f7 	ldrbcs	r2, [r4, #1527]!	; 0x5f7
    1064:	cccccd08 	stclgt	13, cr12, [ip], {8}
    1068:	000000cc 	andeq	r0, r0, ip, asr #1
    106c:	20081e00 	andcs	r1, r8, r0, lsl #28
    1070:	f72525f7 			; <UNDEFINED> instruction: 0xf72525f7
    1074:	9f25332c 	svcls	0x0025332c
    1078:	000001c0 	andeq	r0, r0, r0, asr #3
    107c:	000001c4 	andeq	r0, r0, r4, asr #3
    1080:	c4530001 	ldrbgt	r0, [r3], #-1
    1084:	cc000001 	stcgt	0, cr0, [r0], {1}
    1088:	1c000001 	stcne	0, cr0, [r0], {1}
    108c:	f7007000 			; <UNDEFINED> instruction: 0xf7007000
    1090:	f425f72c 	vld1.8	{d15}, [r5 :128], ip
    1094:	cccd0825 	stclgt	8, cr0, [sp], {37}	; 0x25
    1098:	0000cccc 	andeq	ip, r0, ip, asr #25
    109c:	081e0000 	ldmdaeq	lr, {}	; <UNPREDICTABLE>
    10a0:	2525f720 	strcs	pc, [r5, #-1824]!	; 0x720
    10a4:	25332cf7 	ldrcs	r2, [r3, #-3319]!	; 0xcf7
    10a8:	0001cc9f 	muleq	r1, pc, ip	; <UNPREDICTABLE>
    10ac:	0001d000 	andeq	sp, r1, r0
    10b0:	53000100 	movwpl	r0, #256	; 0x100
    10b4:	000001d0 	ldrdeq	r0, [r0], -r0	; <UNPREDICTABLE>
    10b8:	000001d4 	ldrdeq	r0, [r0], -r4
    10bc:	0070001c 	rsbseq	r0, r0, ip, lsl r0
    10c0:	25f72cf7 	ldrbcs	r2, [r7, #3319]!	; 0xcf7
    10c4:	cd0825f4 	cfstr32gt	mvfx2, [r8, #-976]	; 0xfffffc30
    10c8:	00cccccc 	sbceq	ip, ip, ip, asr #25
    10cc:	1e000000 	cdpne	0, 0, cr0, cr0, cr0, {0}
    10d0:	25f72008 	ldrbcs	r2, [r7, #8]!
    10d4:	332cf725 	msrcc	CPSR_fs, #9699328	; 0x940000
    10d8:	01d49f25 	bicseq	r9, r4, r5, lsr #30
    10dc:	01dc0000 	bicseq	r0, ip, r0
    10e0:	001c0000 	andseq	r0, ip, r0
    10e4:	2cf70074 	ldclcs	0, cr0, [r7], #464	; 0x1d0
    10e8:	25f425f7 	ldrbcs	r2, [r4, #1527]!	; 0x5f7
    10ec:	cccccd08 	stclgt	13, cr12, [ip], {8}
    10f0:	000000cc 	andeq	r0, r0, ip, asr #1
    10f4:	20081e00 	andcs	r1, r8, r0, lsl #28
    10f8:	f72525f7 			; <UNDEFINED> instruction: 0xf72525f7
    10fc:	9f25332c 	svcls	0x0025332c
    1100:	000001dc 	ldrdeq	r0, [r0], -ip
    1104:	000001e0 	andeq	r0, r0, r0, ror #3
    1108:	00740017 	rsbseq	r0, r4, r7, lsl r0
    110c:	25f72cf7 	ldrbcs	r2, [r7, #3319]!	; 0xcf7
    1110:	2cf70071 	ldclcs	0, cr0, [r7], #452	; 0x1c4
    1114:	081e25f7 	ldmdaeq	lr, {r0, r1, r2, r4, r5, r6, r7, r8, sl, sp}
    1118:	2525f720 	strcs	pc, [r5, #-1824]!	; 0x720
    111c:	25332cf7 	ldrcs	r2, [r3, #-3319]!	; 0xcf7
    1120:	0001e09f 	muleq	r1, pc, r0	; <UNPREDICTABLE>
    1124:	00021000 	andeq	r1, r2, r0
    1128:	74001c00 	strvc	r1, [r0], #-3072	; 0xc00
    112c:	f72cf700 			; <UNDEFINED> instruction: 0xf72cf700
    1130:	0825f425 	stmdaeq	r5!, {r0, r2, r5, sl, ip, sp, lr, pc}
    1134:	cccccccd 	stclgt	12, cr12, [ip], {205}	; 0xcd
    1138:	00000000 	andeq	r0, r0, r0
    113c:	f720081e 			; <UNDEFINED> instruction: 0xf720081e
    1140:	2cf72525 	cfldr64cs	mvdx2, [r7], #148	; 0x94
    1144:	009f2533 	addseq	r2, pc, r3, lsr r5	; <UNPREDICTABLE>
    1148:	00000000 	andeq	r0, r0, r0
    114c:	d8000000 	stmdale	r0, {}	; <UNPREDICTABLE>
    1150:	fc000001 	stc2	0, cr0, [r0], {1}
    1154:	01000001 	tsteq	r0, r1
    1158:	01fc5000 	mvnseq	r5, r0
    115c:	02030000 	andeq	r0, r3, #0
    1160:	00010000 	andeq	r0, r1, r0
    1164:	00000051 	andeq	r0, r0, r1, asr r0
    1168:	00000000 	andeq	r0, r0, r0
    116c:	00021000 	andeq	r1, r2, r0
    1170:	00022c00 	andeq	r2, r2, r0, lsl #24
    1174:	50000100 	andpl	r0, r0, r0, lsl #2
    1178:	0000022c 	andeq	r0, r0, ip, lsr #4
    117c:	00000234 	andeq	r0, r0, r4, lsr r2
    1180:	34540001 	ldrbcc	r0, [r4], #-1
    1184:	3c000002 	stccc	0, cr0, [r0], {2}
    1188:	01000002 	tsteq	r0, r2
    118c:	023c5000 	eorseq	r5, ip, #0
    1190:	02440000 	subeq	r0, r4, #0
    1194:	00010000 	andeq	r0, r1, r0
    1198:	00024454 	andeq	r4, r2, r4, asr r4
    119c:	00025000 	andeq	r5, r2, r0
    11a0:	f3000400 	vshl.u8	d0, d0, d0
    11a4:	509f5001 	addspl	r5, pc, r1
    11a8:	54000002 	strpl	r0, [r0], #-2
    11ac:	01000002 	tsteq	r0, r2
    11b0:	02545000 	subseq	r5, r4, #0
    11b4:	025c0000 	subseq	r0, ip, #0
    11b8:	00010000 	andeq	r0, r1, r0
    11bc:	00000054 	andeq	r0, r0, r4, asr r0
    11c0:	00000000 	andeq	r0, r0, r0
    11c4:	00022000 	andeq	r2, r2, r0
    11c8:	00023000 	andeq	r3, r2, r0
    11cc:	30000200 	andcc	r0, r0, r0, lsl #4
    11d0:	0002309f 	muleq	r2, pc, r0	; <UNPREDICTABLE>
    11d4:	00023400 	andeq	r3, r2, r0, lsl #8
    11d8:	50000100 	andpl	r0, r0, r0, lsl #2
    11dc:	00000234 	andeq	r0, r0, r4, lsr r2
    11e0:	00000240 	andeq	r0, r0, r0, asr #4
    11e4:	9f300002 	svcls	0x00300002
    11e8:	00000240 	andeq	r0, r0, r0, asr #4
    11ec:	0000024c 	andeq	r0, r0, ip, asr #4
    11f0:	00500001 	subseq	r0, r0, r1
    11f4:	00000000 	andeq	r0, r0, r0
    11f8:	5c000000 	stcpl	0, cr0, [r0], {-0}
    11fc:	73000002 	movwvc	r0, #2
    1200:	01000002 	tsteq	r0, r2
    1204:	02735000 	rsbseq	r5, r3, #0
    1208:	02780000 	rsbseq	r0, r8, #0
    120c:	00040000 	andeq	r0, r4, r0
    1210:	9f5001f3 	svcls	0x005001f3
    1214:	00000278 	andeq	r0, r0, r8, ror r2
    1218:	0000027b 	andeq	r0, r0, fp, ror r2
    121c:	7b500001 	blvc	1401228 <__bss_end__+0x13f7aa0>
    1220:	80000002 	andhi	r0, r0, r2
    1224:	04000002 	streq	r0, [r0], #-2
    1228:	5001f300 	andpl	pc, r1, r0, lsl #6
    122c:	0000009f 	muleq	r0, pc, r0	; <UNPREDICTABLE>
    1230:	00000000 	andeq	r0, r0, r0
    1234:	00025c00 	andeq	r5, r2, r0, lsl #24
    1238:	00027300 	andeq	r7, r2, r0, lsl #6
    123c:	51000100 	mrspl	r0, (UNDEF: 16)
    1240:	00000273 	andeq	r0, r0, r3, ror r2
    1244:	00000278 	andeq	r0, r0, r8, ror r2
    1248:	01f30004 	mvnseq	r0, r4
    124c:	02789f51 	rsbseq	r9, r8, #324	; 0x144
    1250:	027b0000 	rsbseq	r0, fp, #0
    1254:	00010000 	andeq	r0, r1, r0
    1258:	00027b51 	andeq	r7, r2, r1, asr fp
    125c:	00028000 	andeq	r8, r2, r0
    1260:	f3000400 	vshl.u8	d0, d0, d0
    1264:	009f5101 	addseq	r5, pc, r1, lsl #2
    1268:	00000000 	andeq	r0, r0, r0
    126c:	80000000 	andhi	r0, r0, r0
    1270:	18000002 	stmdane	r0, {r1}
    1274:	01000003 	tsteq	r0, r3
    1278:	03185000 	tsteq	r8, #0
    127c:	03580000 	cmpeq	r8, #0
    1280:	00010000 	andeq	r0, r1, r0
    1284:	00000054 	andeq	r0, r0, r4, asr r0
    1288:	00000000 	andeq	r0, r0, r0
    128c:	00028000 	andeq	r8, r2, r0
    1290:	00031b00 	andeq	r1, r3, r0, lsl #22
    1294:	51000100 	mrspl	r0, (UNDEF: 16)
    1298:	0000031b 	andeq	r0, r0, fp, lsl r3
    129c:	00000358 	andeq	r0, r0, r8, asr r3
    12a0:	01f30004 	mvnseq	r0, r4
    12a4:	00009f51 	andeq	r9, r0, r1, asr pc
    12a8:	00000000 	andeq	r0, r0, r0
    12ac:	02d00000 	sbcseq	r0, r0, #0
    12b0:	02d40000 	sbcseq	r0, r4, #0
    12b4:	00010000 	andeq	r0, r1, r0
    12b8:	0002dc56 	andeq	sp, r2, r6, asr ip
    12bc:	0002e000 	andeq	lr, r2, r0
    12c0:	56000100 	strpl	r0, [r0], -r0, lsl #2
    12c4:	000002e8 	andeq	r0, r0, r8, ror #5
    12c8:	000002ec 	andeq	r0, r0, ip, ror #5
    12cc:	f4560001 			; <UNDEFINED> instruction: 0xf4560001
    12d0:	f8000002 			; <UNDEFINED> instruction: 0xf8000002
    12d4:	01000002 	tsteq	r0, r2
    12d8:	03005600 	movweq	r5, #1536	; 0x600
    12dc:	03040000 	movweq	r0, #16384	; 0x4000
    12e0:	00010000 	andeq	r0, r1, r0
    12e4:	00030c56 	andeq	r0, r3, r6, asr ip
    12e8:	00031000 	andeq	r1, r3, r0
    12ec:	56000100 	strpl	r0, [r0], -r0, lsl #2
    12f0:	00000314 	andeq	r0, r0, r4, lsl r3
    12f4:	00000358 	andeq	r0, r0, r8, asr r3
    12f8:	00560001 	subseq	r0, r6, r1
    12fc:	00000000 	andeq	r0, r0, r0
    1300:	a4000000 	strge	r0, [r0], #-0
    1304:	cc000002 	stcgt	0, cr0, [r0], {2}
    1308:	01000002 	tsteq	r0, r2
    130c:	02cc5300 	sbceq	r5, ip, #0, 6
    1310:	02d40000 	sbcseq	r0, r4, #0
    1314:	001c0000 	andseq	r0, ip, r0
    1318:	2cf70070 	ldclcs	0, cr0, [r7], #448	; 0x1c0
    131c:	25f425f7 	ldrbcs	r2, [r4, #1527]!	; 0x5f7
    1320:	cccccd08 	stclgt	13, cr12, [ip], {8}
    1324:	000000cc 	andeq	r0, r0, ip, asr #1
    1328:	20081e00 	andcs	r1, r8, r0, lsl #28
    132c:	f72525f7 			; <UNDEFINED> instruction: 0xf72525f7
    1330:	9f25332c 	svcls	0x0025332c
    1334:	000002d4 	ldrdeq	r0, [r0], -r4
    1338:	000002d8 	ldrdeq	r0, [r0], -r8
    133c:	d8530001 	ldmdale	r3, {r0}^
    1340:	e0000002 	and	r0, r0, r2
    1344:	1c000002 	stcne	0, cr0, [r0], {2}
    1348:	f7007000 			; <UNDEFINED> instruction: 0xf7007000
    134c:	f425f72c 	vld1.8	{d15}, [r5 :128], ip
    1350:	cccd0825 	stclgt	8, cr0, [sp], {37}	; 0x25
    1354:	0000cccc 	andeq	ip, r0, ip, asr #25
    1358:	081e0000 	ldmdaeq	lr, {}	; <UNPREDICTABLE>
    135c:	2525f720 	strcs	pc, [r5, #-1824]!	; 0x720
    1360:	25332cf7 	ldrcs	r2, [r3, #-3319]!	; 0xcf7
    1364:	0002e09f 	muleq	r2, pc, r0	; <UNPREDICTABLE>
    1368:	0002e400 	andeq	lr, r2, r0, lsl #8
    136c:	53000100 	movwpl	r0, #256	; 0x100
    1370:	000002e4 	andeq	r0, r0, r4, ror #5
    1374:	000002ec 	andeq	r0, r0, ip, ror #5
    1378:	0070001c 	rsbseq	r0, r0, ip, lsl r0
    137c:	25f72cf7 	ldrbcs	r2, [r7, #3319]!	; 0xcf7
    1380:	cd0825f4 	cfstr32gt	mvfx2, [r8, #-976]	; 0xfffffc30
    1384:	00cccccc 	sbceq	ip, ip, ip, asr #25
    1388:	1e000000 	cdpne	0, 0, cr0, cr0, cr0, {0}
    138c:	25f72008 	ldrbcs	r2, [r7, #8]!
    1390:	332cf725 	msrcc	CPSR_fs, #9699328	; 0x940000
    1394:	02ec9f25 	rsceq	r9, ip, #37, 30	; 0x94
    1398:	02f00000 	rscseq	r0, r0, #0
    139c:	00010000 	andeq	r0, r1, r0
    13a0:	0002f053 	andeq	pc, r2, r3, asr r0	; <UNPREDICTABLE>
    13a4:	0002f800 	andeq	pc, r2, r0, lsl #16
    13a8:	70001c00 	andvc	r1, r0, r0, lsl #24
    13ac:	f72cf700 			; <UNDEFINED> instruction: 0xf72cf700
    13b0:	0825f425 	stmdaeq	r5!, {r0, r2, r5, sl, ip, sp, lr, pc}
    13b4:	cccccccd 	stclgt	12, cr12, [ip], {205}	; 0xcd
    13b8:	00000000 	andeq	r0, r0, r0
    13bc:	f720081e 			; <UNDEFINED> instruction: 0xf720081e
    13c0:	2cf72525 	cfldr64cs	mvdx2, [r7], #148	; 0x94
    13c4:	f89f2533 			; <UNDEFINED> instruction: 0xf89f2533
    13c8:	fc000002 	stc2	0, cr0, [r0], {2}
    13cc:	01000002 	tsteq	r0, r2
    13d0:	02fc5300 	rscseq	r5, ip, #0, 6
    13d4:	03040000 	movweq	r0, #16384	; 0x4000
    13d8:	001c0000 	andseq	r0, ip, r0
    13dc:	2cf70070 	ldclcs	0, cr0, [r7], #448	; 0x1c0
    13e0:	25f425f7 	ldrbcs	r2, [r4, #1527]!	; 0x5f7
    13e4:	cccccd08 	stclgt	13, cr12, [ip], {8}
    13e8:	000000cc 	andeq	r0, r0, ip, asr #1
    13ec:	20081e00 	andcs	r1, r8, r0, lsl #28
    13f0:	f72525f7 			; <UNDEFINED> instruction: 0xf72525f7
    13f4:	9f25332c 	svcls	0x0025332c
    13f8:	00000304 	andeq	r0, r0, r4, lsl #6
    13fc:	00000308 	andeq	r0, r0, r8, lsl #6
    1400:	08530001 	ldmdaeq	r3, {r0}^
    1404:	10000003 	andne	r0, r0, r3
    1408:	1c000003 	stcne	0, cr0, [r0], {3}
    140c:	f7007000 			; <UNDEFINED> instruction: 0xf7007000
    1410:	f425f72c 	vld1.8	{d15}, [r5 :128], ip
    1414:	cccd0825 	stclgt	8, cr0, [sp], {37}	; 0x25
    1418:	0000cccc 	andeq	ip, r0, ip, asr #25
    141c:	081e0000 	ldmdaeq	lr, {}	; <UNPREDICTABLE>
    1420:	2525f720 	strcs	pc, [r5, #-1824]!	; 0x720
    1424:	25332cf7 	ldrcs	r2, [r3, #-3319]!	; 0xcf7
    1428:	0003109f 	muleq	r3, pc, r0	; <UNPREDICTABLE>
    142c:	00031400 	andeq	r1, r3, r0, lsl #8
    1430:	53000100 	movwpl	r0, #256	; 0x100
    1434:	00000314 	andeq	r0, r0, r4, lsl r3
    1438:	00000318 	andeq	r0, r0, r8, lsl r3
    143c:	0070001c 	rsbseq	r0, r0, ip, lsl r0
    1440:	25f72cf7 	ldrbcs	r2, [r7, #3319]!	; 0xcf7
    1444:	cd0825f4 	cfstr32gt	mvfx2, [r8, #-976]	; 0xfffffc30
    1448:	00cccccc 	sbceq	ip, ip, ip, asr #25
    144c:	1e000000 	cdpne	0, 0, cr0, cr0, cr0, {0}
    1450:	25f72008 	ldrbcs	r2, [r7, #8]!
    1454:	332cf725 	msrcc	CPSR_fs, #9699328	; 0x940000
    1458:	03189f25 	tsteq	r8, #37, 30	; 0x94
    145c:	03200000 	teqeq	r0, #0
    1460:	001c0000 	andseq	r0, ip, r0
    1464:	2cf70074 	ldclcs	0, cr0, [r7], #464	; 0x1d0
    1468:	25f425f7 	ldrbcs	r2, [r4, #1527]!	; 0x5f7
    146c:	cccccd08 	stclgt	13, cr12, [ip], {8}
    1470:	000000cc 	andeq	r0, r0, ip, asr #1
    1474:	20081e00 	andcs	r1, r8, r0, lsl #28
    1478:	f72525f7 			; <UNDEFINED> instruction: 0xf72525f7
    147c:	9f25332c 	svcls	0x0025332c
    1480:	00000320 	andeq	r0, r0, r0, lsr #6
    1484:	00000324 	andeq	r0, r0, r4, lsr #6
    1488:	00740017 	rsbseq	r0, r4, r7, lsl r0
    148c:	25f72cf7 	ldrbcs	r2, [r7, #3319]!	; 0xcf7
    1490:	2cf70073 	ldclcs	0, cr0, [r7], #460	; 0x1cc
    1494:	081e25f7 	ldmdaeq	lr, {r0, r1, r2, r4, r5, r6, r7, r8, sl, sp}
    1498:	2525f720 	strcs	pc, [r5, #-1824]!	; 0x720
    149c:	25332cf7 	ldrcs	r2, [r3, #-3319]!	; 0xcf7
    14a0:	0003249f 	muleq	r3, pc, r4	; <UNPREDICTABLE>
    14a4:	00035800 	andeq	r5, r3, r0, lsl #16
    14a8:	74001c00 	strvc	r1, [r0], #-3072	; 0xc00
    14ac:	f72cf700 			; <UNDEFINED> instruction: 0xf72cf700
    14b0:	0825f425 	stmdaeq	r5!, {r0, r2, r5, sl, ip, sp, lr, pc}
    14b4:	cccccccd 	stclgt	12, cr12, [ip], {205}	; 0xcd
    14b8:	00000000 	andeq	r0, r0, r0
    14bc:	f720081e 			; <UNDEFINED> instruction: 0xf720081e
    14c0:	2cf72525 	cfldr64cs	mvdx2, [r7], #148	; 0x94
    14c4:	009f2533 	addseq	r2, pc, r3, lsr r5	; <UNPREDICTABLE>
    14c8:	00000000 	andeq	r0, r0, r0
    14cc:	1c000000 	stcne	0, cr0, [r0], {-0}
    14d0:	40000003 	andmi	r0, r0, r3
    14d4:	01000003 	tsteq	r0, r3
    14d8:	03405000 	movteq	r5, #0
    14dc:	03480000 	movteq	r0, #32768	; 0x8000
    14e0:	00090000 	andeq	r0, r9, r0
    14e4:	00730075 	rsbseq	r0, r3, r5, ror r0
    14e8:	21007124 	tstcs	r0, r4, lsr #2
    14ec:	0003489f 	muleq	r3, pc, r8	; <UNPREDICTABLE>
    14f0:	00034b00 	andeq	r4, r3, r0, lsl #22
    14f4:	51000100 	mrspl	r0, (UNDEF: 16)
	...
    1500:	00000358 	andeq	r0, r0, r8, asr r3
    1504:	0000037c 	andeq	r0, r0, ip, ror r3
    1508:	7c500001 	mrrcvc	0, 0, r0, r0, cr1	; <UNPREDICTABLE>
    150c:	90000003 	andls	r0, r0, r3
    1510:	04000003 	streq	r0, [r0], #-3
    1514:	5001f300 	andpl	pc, r1, r0, lsl #6
    1518:	0000009f 	muleq	r0, pc, r0	; <UNPREDICTABLE>
    151c:	00000000 	andeq	r0, r0, r0
    1520:	00036400 	andeq	r6, r3, r0, lsl #8
    1524:	00036c00 	andeq	r6, r3, r0, lsl #24
    1528:	30000200 	andcc	r0, r0, r0, lsl #4
    152c:	00036c9f 	muleq	r3, pc, ip	; <UNPREDICTABLE>
    1530:	00036c00 	andeq	r6, r3, r0, lsl #24
    1534:	52000100 	andpl	r0, r0, #0, 2
    1538:	0000036c 	andeq	r0, r0, ip, ror #6
    153c:	00000374 	andeq	r0, r0, r4, ror r3
    1540:	9f300002 	svcls	0x00300002
    1544:	00000374 	andeq	r0, r0, r4, ror r3
    1548:	00000387 	andeq	r0, r0, r7, lsl #7
    154c:	00520001 	subseq	r0, r2, r1
    1550:	00000000 	andeq	r0, r0, r0
    1554:	64000000 	strvs	r0, [r0], #-0
    1558:	78000003 	stmdavc	r0, {r0, r1}
    155c:	02000003 	andeq	r0, r0, #3
    1560:	789f3000 	ldmvc	pc, {ip, sp}	; <UNPREDICTABLE>
    1564:	84000003 	strhi	r0, [r0], #-3
    1568:	05000003 	streq	r0, [r0, #-3]
    156c:	00733100 	rsbseq	r3, r3, r0, lsl #2
    1570:	03849f24 	orreq	r9, r4, #36, 30	; 0x90
    1574:	03870000 	orreq	r0, r7, #0
    1578:	00010000 	andeq	r0, r1, r0
    157c:	00038751 	andeq	r8, r3, r1, asr r7
    1580:	00039000 	andeq	r9, r3, r0
    1584:	31000800 	tstcc	r0, r0, lsl #16
    1588:	4f5001f3 	svcmi	0x005001f3
    158c:	009f241a 	addseq	r2, pc, sl, lsl r4	; <UNPREDICTABLE>
    1590:	00000000 	andeq	r0, r0, r0
    1594:	90000000 	andls	r0, r0, r0
    1598:	9c000003 	stcls	0, cr0, [r0], {3}
    159c:	01000003 	tsteq	r0, r3
    15a0:	039c5000 	orrseq	r5, ip, #0
    15a4:	03bc0000 			; <UNDEFINED> instruction: 0x03bc0000
    15a8:	00040000 	andeq	r0, r4, r0
    15ac:	9f5001f3 	svcls	0x005001f3
	...
    15b8:	000003bc 			; <UNDEFINED> instruction: 0x000003bc
    15bc:	000003cf 	andeq	r0, r0, pc, asr #7
    15c0:	cf500001 	svcgt	0x00500001
    15c4:	08000003 	stmdaeq	r0, {r0, r1}
    15c8:	01000004 	tsteq	r0, r4
    15cc:	04085400 	streq	r5, [r8], #-1024	; 0x400
    15d0:	04400000 	strbeq	r0, [r0], #-0
    15d4:	00040000 	andeq	r0, r4, r0
    15d8:	9f5001f3 	svcls	0x005001f3
	...
    15e4:	00000428 	andeq	r0, r0, r8, lsr #8
    15e8:	0000042c 	andeq	r0, r0, ip, lsr #8
    15ec:	2c500001 	mrrccs	0, 0, r0, r0, cr1	; <UNPREDICTABLE>
    15f0:	33000004 	movwcc	r0, #4
    15f4:	01000004 	tsteq	r0, r4
    15f8:	00005100 	andeq	r5, r0, r0, lsl #2
    15fc:	00000000 	andeq	r0, r0, r0
    1600:	03e40000 	mvneq	r0, #0
    1604:	03ec0000 	mvneq	r0, #0
    1608:	00010000 	andeq	r0, r1, r0
    160c:	0003ec50 	andeq	lr, r3, r0, asr ip
    1610:	0003f300 	andeq	pc, r3, r0, lsl #6
    1614:	51000100 	mrspl	r0, (UNDEF: 16)
	...
    1620:	00000404 	andeq	r0, r0, r4, lsl #8
    1624:	00000410 	andeq	r0, r0, r0, lsl r4
    1628:	10500001 	subsne	r0, r0, r1
    162c:	17000004 	strne	r0, [r0, -r4]
    1630:	01000004 	tsteq	r0, r4
    1634:	00005100 	andeq	r5, r0, r0, lsl #2
    1638:	00000000 	andeq	r0, r0, r0
    163c:	04400000 	strbeq	r0, [r0], #-0
    1640:	04530000 	ldrbeq	r0, [r3], #-0
    1644:	00010000 	andeq	r0, r1, r0
    1648:	00045350 	andeq	r5, r4, r0, asr r3
    164c:	00048c00 	andeq	r8, r4, r0, lsl #24
    1650:	54000100 	strpl	r0, [r0], #-256	; 0x100
    1654:	0000048c 	andeq	r0, r0, ip, lsl #9
    1658:	000004c4 	andeq	r0, r0, r4, asr #9
    165c:	01f30004 	mvnseq	r0, r4
    1660:	00009f50 	andeq	r9, r0, r0, asr pc
    1664:	00000000 	andeq	r0, r0, r0
    1668:	04ac0000 	strteq	r0, [ip], #0
    166c:	04b00000 	ldrteq	r0, [r0], #0
    1670:	00010000 	andeq	r0, r1, r0
    1674:	0004b050 	andeq	fp, r4, r0, asr r0
    1678:	0004b700 	andeq	fp, r4, r0, lsl #14
    167c:	51000100 	mrspl	r0, (UNDEF: 16)
	...
    1688:	00000468 	andeq	r0, r0, r8, ror #8
    168c:	00000470 	andeq	r0, r0, r0, ror r4
    1690:	70500001 	subsvc	r0, r0, r1
    1694:	77000004 	strvc	r0, [r0, -r4]
    1698:	01000004 	tsteq	r0, r4
    169c:	00005100 	andeq	r5, r0, r0, lsl #2
    16a0:	00000000 	andeq	r0, r0, r0
    16a4:	04880000 	streq	r0, [r8], #0
    16a8:	04940000 	ldreq	r0, [r4], #0
    16ac:	00010000 	andeq	r0, r1, r0
    16b0:	00049450 	andeq	r9, r4, r0, asr r4
    16b4:	00049b00 	andeq	r9, r4, r0, lsl #22
    16b8:	51000100 	mrspl	r0, (UNDEF: 16)
	...
    16c4:	000004c4 	andeq	r0, r0, r4, asr #9
    16c8:	000004d7 	ldrdeq	r0, [r0], -r7
    16cc:	d7500001 	ldrble	r0, [r0, -r1]
    16d0:	18000004 	stmdane	r0, {r2}
    16d4:	01000005 	tsteq	r0, r5
    16d8:	05185400 	ldreq	r5, [r8, #-1024]	; 0x400
    16dc:	053c0000 	ldreq	r0, [ip, #-0]!
    16e0:	00040000 	andeq	r0, r4, r0
    16e4:	9f5001f3 	svcls	0x005001f3
    16e8:	0000053c 	andeq	r0, r0, ip, lsr r5
    16ec:	00000540 	andeq	r0, r0, r0, asr #10
    16f0:	40500001 	subsmi	r0, r0, r1
    16f4:	48000005 	stmdami	r0, {r0, r2}
    16f8:	01000005 	tsteq	r0, r5
    16fc:	00005400 	andeq	r5, r0, r0, lsl #8
    1700:	00000000 	andeq	r0, r0, r0
    1704:	04ec0000 	strbteq	r0, [ip], #0
    1708:	04fb0000 	ldrbteq	r0, [fp], #0
    170c:	00080000 	andeq	r0, r8, r0
    1710:	24007431 	strcs	r7, [r0], #-1073	; 0x431
    1714:	9f1a0070 	svcls	0x001a0070
	...
    1720:	00000518 	andeq	r0, r0, r8, lsl r5
    1724:	00000530 	andeq	r0, r0, r0, lsr r5
    1728:	00540001 	subseq	r0, r4, r1
    172c:	00000000 	andeq	r0, r0, r0
    1730:	48000000 	stmdami	r0, {}	; <UNPREDICTABLE>
    1734:	5b000005 	blpl	1750 <_start-0x68b0>
    1738:	01000005 	tsteq	r0, r5
    173c:	055b5000 	ldrbeq	r5, [fp, #-0]
    1740:	05800000 	streq	r0, [r0]
    1744:	00010000 	andeq	r0, r1, r0
    1748:	00058054 	andeq	r8, r5, r4, asr r0
    174c:	0005a000 	andeq	sl, r5, r0
    1750:	f3000400 	vshl.u8	d0, d0, d0
    1754:	009f5001 	addseq	r5, pc, r1
    1758:	00000000 	andeq	r0, r0, r0
    175c:	fc000000 	stc2	0, cr0, [r0], {-0}
    1760:	04000000 	streq	r0, [r0], #-0
    1764:	01000001 	tsteq	r0, r1
    1768:	01045000 	mrseq	r5, (UNDEF: 4)
    176c:	01280000 	teqeq	r8, r0
    1770:	00010000 	andeq	r0, r1, r0
    1774:	00000054 	andeq	r0, r0, r4, asr r0
	...
    1780:	00000b00 	andeq	r0, r0, r0, lsl #22
    1784:	50000100 	andpl	r0, r0, r0, lsl #2
    1788:	0000000b 	andeq	r0, r0, fp
    178c:	00000014 	andeq	r0, r0, r4, lsl r0
    1790:	00540001 	subseq	r0, r4, r1
    1794:	00000000 	andeq	r0, r0, r0
    1798:	Address 0x0000000000001798 is out of bounds.


Disassembly of section .debug_ranges:

00000000 <.debug_ranges>:
   0:	00000294 	muleq	r0, r4, r2
   4:	00000298 	muleq	r0, r8, r2
   8:	000002c8 	andeq	r0, r0, r8, asr #5
   c:	000004b8 			; <UNDEFINED> instruction: 0x000004b8
	...
  18:	00008858 	andeq	r8, r0, r8, asr r8
  1c:	000088cc 	andeq	r8, r0, ip, asr #17
	...
