
on.elf:     file format elf32-littlearm


Disassembly of section .text:

00008000 <_start>:
    8000:	e3a0d302 	mov	sp, #134217728	; 0x8000000
    8004:	e3a0b000 	mov	fp, #0
    8008:	eb0001dd 	bl	8784 <_cstart>
    800c:	eb00020b 	bl	8840 <rpi_reboot>

00008010 <notmain>:
    8010:	e92d4008 	push	{r3, lr}
    8014:	eb00053f 	bl	9518 <uart_init>
    8018:	e3a03001 	mov	r3, #1
    801c:	ee0f3f1c 	mcr	15, 0, r3, cr15, cr12, {0}
    8020:	e3a00015 	mov	r0, #21
    8024:	eb00028a 	bl	8a54 <gpio_set_input>
    8028:	e3a00015 	mov	r0, #21
    802c:	eb000004 	bl	8044 <gpio_set_pullup>
    8030:	e59f0008 	ldr	r0, [pc, #8]	; 8040 <notmain+0x30>
    8034:	e3a01015 	mov	r1, #21
    8038:	eb000044 	bl	8150 <printk>
    803c:	eafffffe 	b	803c <notmain+0x2c>
    8040:	000097e8 	andeq	r9, r0, r8, ror #15

00008044 <gpio_set_pullup>:
    8044:	e92d4038 	push	{r3, r4, r5, lr}
    8048:	e1a05000 	mov	r5, r0
    804c:	e59f30a0 	ldr	r3, [pc, #160]	; 80f4 <gpio_set_pullup+0xb0>
    8050:	e5930000 	ldr	r0, [r3]
    8054:	e3a01002 	mov	r1, #2
    8058:	eb000589 	bl	9684 <put32>
    805c:	ee1f2f3c 	mrc	15, 0, r2, cr15, cr12, {1}
    8060:	ee1f3f3c 	mrc	15, 0, r3, cr15, cr12, {1}
    8064:	e0623003 	rsb	r3, r2, r3
    8068:	e3530095 	cmp	r3, #149	; 0x95
    806c:	9afffffb 	bls	8060 <gpio_set_pullup+0x1c>
    8070:	e355001f 	cmp	r5, #31
    8074:	959f3078 	ldrls	r3, [pc, #120]	; 80f4 <gpio_set_pullup+0xb0>
    8078:	95934004 	ldrls	r4, [r3, #4]
    807c:	859f3070 	ldrhi	r3, [pc, #112]	; 80f4 <gpio_set_pullup+0xb0>
    8080:	85934008 	ldrhi	r4, [r3, #8]
    8084:	e205501f 	and	r5, r5, #31
    8088:	e1a00004 	mov	r0, r4
    808c:	e3a01001 	mov	r1, #1
    8090:	e1a01511 	lsl	r1, r1, r5
    8094:	eb00057a 	bl	9684 <put32>
    8098:	ee1f2f3c 	mrc	15, 0, r2, cr15, cr12, {1}
    809c:	ee1f3f3c 	mrc	15, 0, r3, cr15, cr12, {1}
    80a0:	e0623003 	rsb	r3, r2, r3
    80a4:	e3530095 	cmp	r3, #149	; 0x95
    80a8:	9afffffb 	bls	809c <gpio_set_pullup+0x58>
    80ac:	e59f3040 	ldr	r3, [pc, #64]	; 80f4 <gpio_set_pullup+0xb0>
    80b0:	e5930000 	ldr	r0, [r3]
    80b4:	e3a01000 	mov	r1, #0
    80b8:	eb000571 	bl	9684 <put32>
    80bc:	ee1f2f3c 	mrc	15, 0, r2, cr15, cr12, {1}
    80c0:	ee1f3f3c 	mrc	15, 0, r3, cr15, cr12, {1}
    80c4:	e0623003 	rsb	r3, r2, r3
    80c8:	e3530095 	cmp	r3, #149	; 0x95
    80cc:	9afffffb 	bls	80c0 <gpio_set_pullup+0x7c>
    80d0:	e1a00004 	mov	r0, r4
    80d4:	e3a01000 	mov	r1, #0
    80d8:	eb000569 	bl	9684 <put32>
    80dc:	ee1f2f3c 	mrc	15, 0, r2, cr15, cr12, {1}
    80e0:	ee1f3f3c 	mrc	15, 0, r3, cr15, cr12, {1}
    80e4:	e0623003 	rsb	r3, r2, r3
    80e8:	e3530095 	cmp	r3, #149	; 0x95
    80ec:	9afffffb 	bls	80e0 <gpio_set_pullup+0x9c>
    80f0:	e8bd8038 	pop	{r3, r4, r5, pc}
    80f4:	00009740 	andeq	r9, r0, r0, asr #14

000080f8 <gpio_set_pulldown>:
    80f8:	e92d4008 	push	{r3, lr}
    80fc:	eb00002e 	bl	81bc <rpi_reset_putc>
    8100:	e59f0010 	ldr	r0, [pc, #16]	; 8118 <gpio_set_pulldown+0x20>
    8104:	e59f1010 	ldr	r1, [pc, #16]	; 811c <gpio_set_pulldown+0x24>
    8108:	e59f2010 	ldr	r2, [pc, #16]	; 8120 <gpio_set_pulldown+0x28>
    810c:	e3a03027 	mov	r3, #39	; 0x27
    8110:	eb00000e 	bl	8150 <printk>
    8114:	eb000188 	bl	873c <clean_reboot>
    8118:	00009880 	andeq	r9, r0, r0, lsl #17
    811c:	000098ac 	andeq	r9, r0, ip, lsr #17
    8120:	0000985c 	andeq	r9, r0, ip, asr r8

00008124 <gpio_pud_off>:
    8124:	e92d4008 	push	{r3, lr}
    8128:	eb000023 	bl	81bc <rpi_reset_putc>
    812c:	e59f0010 	ldr	r0, [pc, #16]	; 8144 <gpio_pud_off+0x20>
    8130:	e59f1010 	ldr	r1, [pc, #16]	; 8148 <gpio_pud_off+0x24>
    8134:	e59f2010 	ldr	r2, [pc, #16]	; 814c <gpio_pud_off+0x28>
    8138:	e3a03028 	mov	r3, #40	; 0x28
    813c:	eb000003 	bl	8150 <printk>
    8140:	eb00017d 	bl	873c <clean_reboot>
    8144:	00009880 	andeq	r9, r0, r0, lsl #17
    8148:	000098ac 	andeq	r9, r0, ip, lsr #17
    814c:	00009870 	andeq	r9, r0, r0, ror r8

00008150 <printk>:
    8150:	e92d000f 	push	{r0, r1, r2, r3}
    8154:	e92d4030 	push	{r4, r5, lr}
    8158:	e24dd00c 	sub	sp, sp, #12
    815c:	e28d301c 	add	r3, sp, #28
    8160:	e58d3004 	str	r3, [sp, #4]
    8164:	e59f4034 	ldr	r4, [pc, #52]	; 81a0 <printk+0x50>
    8168:	e1a00004 	mov	r0, r4
    816c:	e3a01b01 	mov	r1, #1024	; 0x400
    8170:	e59d2018 	ldr	r2, [sp, #24]
    8174:	eb0000cb 	bl	84a8 <va_printk>
    8178:	e1a05000 	mov	r5, r0
    817c:	e59f3020 	ldr	r3, [pc, #32]	; 81a4 <printk+0x54>
    8180:	e5933000 	ldr	r3, [r3]
    8184:	e1a00004 	mov	r0, r4
    8188:	e12fff33 	blx	r3
    818c:	e1a00005 	mov	r0, r5
    8190:	e28dd00c 	add	sp, sp, #12
    8194:	e8bd4030 	pop	{r4, r5, lr}
    8198:	e28dd010 	add	sp, sp, #16
    819c:	e12fff1e 	bx	lr
    81a0:	00009af4 	strdeq	r9, [r0], -r4
    81a4:	00009750 	andeq	r9, r0, r0, asr r7

000081a8 <internal_putchar>:
    81a8:	e92d4010 	push	{r4, lr}
    81ac:	e1a04000 	mov	r4, r0
    81b0:	eb000517 	bl	9614 <uart_putc>
    81b4:	e1a00004 	mov	r0, r4
    81b8:	e8bd8010 	pop	{r4, pc}

000081bc <rpi_reset_putc>:
    81bc:	e59f2008 	ldr	r2, [pc, #8]	; 81cc <rpi_reset_putc+0x10>
    81c0:	e59f3008 	ldr	r3, [pc, #8]	; 81d0 <rpi_reset_putc+0x14>
    81c4:	e5832000 	str	r2, [r3]
    81c8:	e12fff1e 	bx	lr
    81cc:	000081a8 	andeq	r8, r0, r8, lsr #3
    81d0:	0000974c 	andeq	r9, r0, ip, asr #14

000081d4 <rpi_set_putc>:
    81d4:	e59f3004 	ldr	r3, [pc, #4]	; 81e0 <rpi_set_putc+0xc>
    81d8:	e5830000 	str	r0, [r3]
    81dc:	e12fff1e 	bx	lr
    81e0:	0000974c 	andeq	r9, r0, ip, asr #14

000081e4 <internal_putk>:
    81e4:	e92d4038 	push	{r3, r4, r5, lr}
    81e8:	e1a04000 	mov	r4, r0
    81ec:	e59f5020 	ldr	r5, [pc, #32]	; 8214 <internal_putk+0x30>
    81f0:	ea000002 	b	8200 <internal_putk+0x1c>
    81f4:	e5953000 	ldr	r3, [r5]
    81f8:	e12fff33 	blx	r3
    81fc:	e2844001 	add	r4, r4, #1
    8200:	e5d40000 	ldrb	r0, [r4]
    8204:	e3500000 	cmp	r0, #0
    8208:	1afffff9 	bne	81f4 <internal_putk+0x10>
    820c:	e3a00001 	mov	r0, #1
    8210:	e8bd8038 	pop	{r3, r4, r5, pc}
    8214:	0000974c 	andeq	r9, r0, ip, asr #14

00008218 <isdigit>:
    8218:	e2400030 	sub	r0, r0, #48	; 0x30
    821c:	e3500009 	cmp	r0, #9
    8220:	83a00000 	movhi	r0, #0
    8224:	93a00001 	movls	r0, #1
    8228:	e12fff1e 	bx	lr

0000822c <pad>:
    822c:	e0611000 	rsb	r1, r1, r0
    8230:	e3a03020 	mov	r3, #32
    8234:	ea000002 	b	8244 <pad+0x18>
    8238:	e5c03000 	strb	r3, [r0]
    823c:	e2811001 	add	r1, r1, #1
    8240:	e2800001 	add	r0, r0, #1
    8244:	e1510002 	cmp	r1, r2
    8248:	bafffffa 	blt	8238 <pad+0xc>
    824c:	e3a03000 	mov	r3, #0
    8250:	e5c03000 	strb	r3, [r0]
    8254:	e12fff1e 	bx	lr

00008258 <reverse>:
    8258:	e063c002 	rsb	ip, r3, r2
    825c:	e28cc001 	add	ip, ip, #1
    8260:	e15c0001 	cmp	ip, r1
    8264:	c061100c 	rsbgt	r1, r1, ip
    8268:	c0833001 	addgt	r3, r3, r1
    826c:	e2422001 	sub	r2, r2, #1
    8270:	e1a01000 	mov	r1, r0
    8274:	ea000002 	b	8284 <reverse+0x2c>
    8278:	e452c001 	ldrb	ip, [r2], #-1
    827c:	e5c1c000 	strb	ip, [r1]
    8280:	e2811001 	add	r1, r1, #1
    8284:	e1520003 	cmp	r2, r3
    8288:	2afffffa 	bcs	8278 <reverse+0x20>
    828c:	e3a03000 	mov	r3, #0
    8290:	e5c13000 	strb	r3, [r1]
    8294:	e12fff1e 	bx	lr

00008298 <emit>:
    8298:	e92d41f0 	push	{r4, r5, r6, r7, r8, lr}
    829c:	e24dd048 	sub	sp, sp, #72	; 0x48
    82a0:	e1a05001 	mov	r5, r1
    82a4:	e1a04002 	mov	r4, r2
    82a8:	e59d2060 	ldr	r2, [sp, #96]	; 0x60
    82ac:	e1520004 	cmp	r2, r4
    82b0:	c2442001 	subgt	r2, r4, #1
    82b4:	e1a0c003 	mov	ip, r3
    82b8:	e2400002 	sub	r0, r0, #2
    82bc:	e350000e 	cmp	r0, #14
    82c0:	979ff100 	ldrls	pc, [pc, r0, lsl #2]
    82c4:	ea000042 	b	83d4 <emit+0x13c>
    82c8:	000083ac 	andeq	r8, r0, ip, lsr #7
    82cc:	000083d4 	ldrdeq	r8, [r0], -r4
    82d0:	000083d4 	ldrdeq	r8, [r0], -r4
    82d4:	000083d4 	ldrdeq	r8, [r0], -r4
    82d8:	000083d4 	ldrdeq	r8, [r0], -r4
    82dc:	000083d4 	ldrdeq	r8, [r0], -r4
    82e0:	000083a0 	andeq	r8, r0, r0, lsr #7
    82e4:	000083d4 	ldrdeq	r8, [r0], -r4
    82e8:	00008304 	andeq	r8, r0, r4, lsl #6
    82ec:	000083d4 	ldrdeq	r8, [r0], -r4
    82f0:	000083d4 	ldrdeq	r8, [r0], -r4
    82f4:	000083d4 	ldrdeq	r8, [r0], -r4
    82f8:	000083d4 	ldrdeq	r8, [r0], -r4
    82fc:	000083d4 	ldrdeq	r8, [r0], -r4
    8300:	00008378 	andeq	r8, r0, r8, ror r3
    8304:	e59d1064 	ldr	r1, [sp, #100]	; 0x64
    8308:	e2911000 	adds	r1, r1, #0
    830c:	13a01001 	movne	r1, #1
    8310:	e0111fa3 	ands	r1, r1, r3, lsr #31
    8314:	1263c000 	rsbne	ip, r3, #0
    8318:	13a08001 	movne	r8, #1
    831c:	03a08000 	moveq	r8, #0
    8320:	e28d1008 	add	r1, sp, #8
    8324:	e59f70f4 	ldr	r7, [pc, #244]	; 8420 <emit+0x188>
    8328:	e59f60f4 	ldr	r6, [pc, #244]	; 8424 <emit+0x18c>
    832c:	ea000000 	b	8334 <emit+0x9c>
    8330:	e1a01003 	mov	r1, r3
    8334:	e2813001 	add	r3, r1, #1
    8338:	e08e0c97 	umull	r0, lr, r7, ip
    833c:	e1a0e1ae 	lsr	lr, lr, #3
    8340:	e1a0000e 	mov	r0, lr
    8344:	e08ee10e 	add	lr, lr, lr, lsl #2
    8348:	e1a0e08e 	lsl	lr, lr, #1
    834c:	e06ee00c 	rsb	lr, lr, ip
    8350:	e7d6c00e 	ldrb	ip, [r6, lr]
    8354:	e5c1c000 	strb	ip, [r1]
    8358:	e1a0c000 	mov	ip, r0
    835c:	e3500000 	cmp	r0, #0
    8360:	1afffff2 	bne	8330 <emit+0x98>
    8364:	e3580000 	cmp	r8, #0
    8368:	12813002 	addne	r3, r1, #2
    836c:	13a0002d 	movne	r0, #45	; 0x2d
    8370:	15c10001 	strbne	r0, [r1, #1]
    8374:	ea00001f 	b	83f8 <emit+0x160>
    8378:	e28de008 	add	lr, sp, #8
    837c:	e59f00a4 	ldr	r0, [pc, #164]	; 8428 <emit+0x190>
    8380:	e28e3001 	add	r3, lr, #1
    8384:	e20c100f 	and	r1, ip, #15
    8388:	e7d01001 	ldrb	r1, [r0, r1]
    838c:	e5ce1000 	strb	r1, [lr]
    8390:	e1a0e003 	mov	lr, r3
    8394:	e1b0c22c 	lsrs	ip, ip, #4
    8398:	1afffff8 	bne	8380 <emit+0xe8>
    839c:	ea000015 	b	83f8 <emit+0x160>
    83a0:	e5cd3008 	strb	r3, [sp, #8]
    83a4:	e28d3009 	add	r3, sp, #9
    83a8:	ea000012 	b	83f8 <emit+0x160>
    83ac:	e28de008 	add	lr, sp, #8
    83b0:	e59f0074 	ldr	r0, [pc, #116]	; 842c <emit+0x194>
    83b4:	e28e3001 	add	r3, lr, #1
    83b8:	e20c1001 	and	r1, ip, #1
    83bc:	e7d01001 	ldrb	r1, [r0, r1]
    83c0:	e5ce1000 	strb	r1, [lr]
    83c4:	e1a0e003 	mov	lr, r3
    83c8:	e1b0c0ac 	lsrs	ip, ip, #1
    83cc:	1afffff8 	bne	83b4 <emit+0x11c>
    83d0:	ea000008 	b	83f8 <emit+0x160>
    83d4:	ebffff78 	bl	81bc <rpi_reset_putc>
    83d8:	e59f3050 	ldr	r3, [pc, #80]	; 8430 <emit+0x198>
    83dc:	e58d3000 	str	r3, [sp]
    83e0:	e59f004c 	ldr	r0, [pc, #76]	; 8434 <emit+0x19c>
    83e4:	e59f104c 	ldr	r1, [pc, #76]	; 8438 <emit+0x1a0>
    83e8:	e59f204c 	ldr	r2, [pc, #76]	; 843c <emit+0x1a4>
    83ec:	e3a03075 	mov	r3, #117	; 0x75
    83f0:	ebffff56 	bl	8150 <printk>
    83f4:	eb0000d0 	bl	873c <clean_reboot>
    83f8:	e1a00003 	mov	r0, r3
    83fc:	e28d1008 	add	r1, sp, #8
    8400:	ebffff89 	bl	822c <pad>
    8404:	e1a02000 	mov	r2, r0
    8408:	e1a00005 	mov	r0, r5
    840c:	e1a01004 	mov	r1, r4
    8410:	e28d3008 	add	r3, sp, #8
    8414:	ebffff8f 	bl	8258 <reverse>
    8418:	e28dd048 	add	sp, sp, #72	; 0x48
    841c:	e8bd81f0 	pop	{r4, r5, r6, r7, r8, pc}
    8420:	cccccccd 	stclgt	12, cr12, [ip], {205}	; 0xcd
    8424:	00009908 	andeq	r9, r0, r8, lsl #18
    8428:	00009914 	andeq	r9, r0, r4, lsl r9
    842c:	00009928 	andeq	r9, r0, r8, lsr #18
    8430:	00009904 	andeq	r9, r0, r4, lsl #18
    8434:	000098dc 	ldrdeq	r9, [r0], -ip
    8438:	000098f0 	strdeq	r9, [r0], -r0
    843c:	000098b8 			; <UNDEFINED> instruction: 0x000098b8

00008440 <rpi_set_output>:
    8440:	e52de004 	push	{lr}		; (str lr, [sp, #-4]!)
    8444:	e24dd00c 	sub	sp, sp, #12
    8448:	e3500000 	cmp	r0, #0
    844c:	1a000008 	bne	8474 <rpi_set_output+0x34>
    8450:	ebffff59 	bl	81bc <rpi_reset_putc>
    8454:	e59f3034 	ldr	r3, [pc, #52]	; 8490 <rpi_set_output+0x50>
    8458:	e58d3000 	str	r3, [sp]
    845c:	e59f0030 	ldr	r0, [pc, #48]	; 8494 <rpi_set_output+0x54>
    8460:	e59f1030 	ldr	r1, [pc, #48]	; 8498 <rpi_set_output+0x58>
    8464:	e59f2030 	ldr	r2, [pc, #48]	; 849c <rpi_set_output+0x5c>
    8468:	e3a03020 	mov	r3, #32
    846c:	ebffff37 	bl	8150 <printk>
    8470:	eb0000b1 	bl	873c <clean_reboot>
    8474:	e59f3024 	ldr	r3, [pc, #36]	; 84a0 <rpi_set_output+0x60>
    8478:	e5830000 	str	r0, [r3]
    847c:	e3510000 	cmp	r1, #0
    8480:	159f301c 	ldrne	r3, [pc, #28]	; 84a4 <rpi_set_output+0x64>
    8484:	15831000 	strne	r1, [r3]
    8488:	e28dd00c 	add	sp, sp, #12
    848c:	e49df004 	pop	{pc}		; (ldr pc, [sp], #4)
    8490:	0000992c 	andeq	r9, r0, ip, lsr #18
    8494:	000098dc 	ldrdeq	r9, [r0], -ip
    8498:	000098f0 	strdeq	r9, [r0], -r0
    849c:	000098c0 	andeq	r9, r0, r0, asr #17
    84a0:	0000974c 	andeq	r9, r0, ip, asr #14
    84a4:	00009750 	andeq	r9, r0, r0, asr r7

000084a8 <va_printk>:
    84a8:	e92d4ff0 	push	{r4, r5, r6, r7, r8, r9, sl, fp, lr}
    84ac:	e24dd08c 	sub	sp, sp, #140	; 0x8c
    84b0:	e1a0a000 	mov	sl, r0
    84b4:	e1a09003 	mov	r9, r3
    84b8:	e2411001 	sub	r1, r1, #1
    84bc:	e0808001 	add	r8, r0, r1
    84c0:	e3a03000 	mov	r3, #0
    84c4:	e5c03000 	strb	r3, [r0]
    84c8:	e1a04000 	mov	r4, r0
    84cc:	e1a0b003 	mov	fp, r3
    84d0:	ea000088 	b	86f8 <va_printk+0x250>
    84d4:	e3530025 	cmp	r3, #37	; 0x25
    84d8:	12822001 	addne	r2, r2, #1
    84dc:	15c43000 	strbne	r3, [r4]
    84e0:	12844001 	addne	r4, r4, #1
    84e4:	1a000083 	bne	86f8 <va_printk+0x250>
    84e8:	e5d21001 	ldrb	r1, [r2, #1]
    84ec:	e3510025 	cmp	r1, #37	; 0x25
    84f0:	05c43000 	strbeq	r3, [r4]
    84f4:	02822002 	addeq	r2, r2, #2
    84f8:	02844001 	addeq	r4, r4, #1
    84fc:	0a00007d 	beq	86f8 <va_printk+0x250>
    8500:	e2826001 	add	r6, r2, #1
    8504:	e1a0700b 	mov	r7, fp
    8508:	ea000004 	b	8520 <va_printk+0x78>
    850c:	e0877107 	add	r7, r7, r7, lsl #2
    8510:	e1a07087 	lsl	r7, r7, #1
    8514:	e0877005 	add	r7, r7, r5
    8518:	e2477030 	sub	r7, r7, #48	; 0x30
    851c:	e2866001 	add	r6, r6, #1
    8520:	e5d65000 	ldrb	r5, [r6]
    8524:	e1a00005 	mov	r0, r5
    8528:	ebffff3a 	bl	8218 <isdigit>
    852c:	e3500000 	cmp	r0, #0
    8530:	1afffff5 	bne	850c <va_printk+0x64>
    8534:	e357001f 	cmp	r7, #31
    8538:	9a000008 	bls	8560 <va_printk+0xb8>
    853c:	ebffff1e 	bl	81bc <rpi_reset_putc>
    8540:	e59f31dc 	ldr	r3, [pc, #476]	; 8724 <va_printk+0x27c>
    8544:	e58d3000 	str	r3, [sp]
    8548:	e59f01d8 	ldr	r0, [pc, #472]	; 8728 <va_printk+0x280>
    854c:	e59f11d8 	ldr	r1, [pc, #472]	; 872c <va_printk+0x284>
    8550:	e59f21d8 	ldr	r2, [pc, #472]	; 8730 <va_printk+0x288>
    8554:	e3a03092 	mov	r3, #146	; 0x92
    8558:	ebfffefc 	bl	8150 <printk>
    855c:	eb000076 	bl	873c <clean_reboot>
    8560:	e2455062 	sub	r5, r5, #98	; 0x62
    8564:	e3550016 	cmp	r5, #22
    8568:	979ff105 	ldrls	pc, [pc, r5, lsl #2]
    856c:	ea00004e 	b	86ac <va_printk+0x204>
    8570:	00008658 	andeq	r8, r0, r8, asr r6
    8574:	00008688 	andeq	r8, r0, r8, lsl #13
    8578:	000085e8 	andeq	r8, r0, r8, ror #11
    857c:	000086ac 	andeq	r8, r0, ip, lsr #13
    8580:	000085cc 	andeq	r8, r0, ip, asr #11
    8584:	000086ac 	andeq	r8, r0, ip, lsr #13
    8588:	000086ac 	andeq	r8, r0, ip, lsr #13
    858c:	000086ac 	andeq	r8, r0, ip, lsr #13
    8590:	000086ac 	andeq	r8, r0, ip, lsr #13
    8594:	000086ac 	andeq	r8, r0, ip, lsr #13
    8598:	000086ac 	andeq	r8, r0, ip, lsr #13
    859c:	000086ac 	andeq	r8, r0, ip, lsr #13
    85a0:	000086ac 	andeq	r8, r0, ip, lsr #13
    85a4:	000086ac 	andeq	r8, r0, ip, lsr #13
    85a8:	00008634 	andeq	r8, r0, r4, lsr r6
    85ac:	000086ac 	andeq	r8, r0, ip, lsr #13
    85b0:	000086ac 	andeq	r8, r0, ip, lsr #13
    85b4:	0000867c 	andeq	r8, r0, ip, ror r6
    85b8:	000086ac 	andeq	r8, r0, ip, lsr #13
    85bc:	00008610 	andeq	r8, r0, r0, lsl r6
    85c0:	000086ac 	andeq	r8, r0, ip, lsr #13
    85c4:	000086ac 	andeq	r8, r0, ip, lsr #13
    85c8:	00008634 	andeq	r8, r0, r4, lsr r6
    85cc:	ebfffefa 	bl	81bc <rpi_reset_putc>
    85d0:	e59f015c 	ldr	r0, [pc, #348]	; 8734 <va_printk+0x28c>
    85d4:	e59f1150 	ldr	r1, [pc, #336]	; 872c <va_printk+0x284>
    85d8:	e59f2150 	ldr	r2, [pc, #336]	; 8730 <va_printk+0x288>
    85dc:	e3a03098 	mov	r3, #152	; 0x98
    85e0:	ebfffeda 	bl	8150 <printk>
    85e4:	eb000054 	bl	873c <clean_reboot>
    85e8:	e5993000 	ldr	r3, [r9]
    85ec:	e2899004 	add	r9, r9, #4
    85f0:	e58d7000 	str	r7, [sp]
    85f4:	e3a02001 	mov	r2, #1
    85f8:	e58d2004 	str	r2, [sp, #4]
    85fc:	e3a0000a 	mov	r0, #10
    8600:	e28d1008 	add	r1, sp, #8
    8604:	e3a02080 	mov	r2, #128	; 0x80
    8608:	ebffff22 	bl	8298 <emit>
    860c:	ea00002f 	b	86d0 <va_printk+0x228>
    8610:	e5993000 	ldr	r3, [r9]
    8614:	e2899004 	add	r9, r9, #4
    8618:	e58d7000 	str	r7, [sp]
    861c:	e58db004 	str	fp, [sp, #4]
    8620:	e3a0000a 	mov	r0, #10
    8624:	e28d1008 	add	r1, sp, #8
    8628:	e3a02080 	mov	r2, #128	; 0x80
    862c:	ebffff19 	bl	8298 <emit>
    8630:	ea000026 	b	86d0 <va_printk+0x228>
    8634:	e5993000 	ldr	r3, [r9]
    8638:	e2899004 	add	r9, r9, #4
    863c:	e58d7000 	str	r7, [sp]
    8640:	e58db004 	str	fp, [sp, #4]
    8644:	e3a00010 	mov	r0, #16
    8648:	e28d1008 	add	r1, sp, #8
    864c:	e3a02080 	mov	r2, #128	; 0x80
    8650:	ebffff10 	bl	8298 <emit>
    8654:	ea00001d 	b	86d0 <va_printk+0x228>
    8658:	e5993000 	ldr	r3, [r9]
    865c:	e2899004 	add	r9, r9, #4
    8660:	e58d7000 	str	r7, [sp]
    8664:	e58db004 	str	fp, [sp, #4]
    8668:	e3a00002 	mov	r0, #2
    866c:	e28d1008 	add	r1, sp, #8
    8670:	e3a02080 	mov	r2, #128	; 0x80
    8674:	ebffff07 	bl	8298 <emit>
    8678:	ea000014 	b	86d0 <va_printk+0x228>
    867c:	e5990000 	ldr	r0, [r9]
    8680:	e2899004 	add	r9, r9, #4
    8684:	ea000011 	b	86d0 <va_printk+0x228>
    8688:	e5993000 	ldr	r3, [r9]
    868c:	e2899004 	add	r9, r9, #4
    8690:	e58d7000 	str	r7, [sp]
    8694:	e58db004 	str	fp, [sp, #4]
    8698:	e3a00008 	mov	r0, #8
    869c:	e08d1000 	add	r1, sp, r0
    86a0:	e3a02080 	mov	r2, #128	; 0x80
    86a4:	ebfffefb 	bl	8298 <emit>
    86a8:	ea000008 	b	86d0 <va_printk+0x228>
    86ac:	ebfffec2 	bl	81bc <rpi_reset_putc>
    86b0:	e5d63000 	ldrb	r3, [r6]
    86b4:	e58d3000 	str	r3, [sp]
    86b8:	e59f0078 	ldr	r0, [pc, #120]	; 8738 <va_printk+0x290>
    86bc:	e59f1068 	ldr	r1, [pc, #104]	; 872c <va_printk+0x284>
    86c0:	e59f2068 	ldr	r2, [pc, #104]	; 8730 <va_printk+0x288>
    86c4:	e3a030b9 	mov	r3, #185	; 0xb9
    86c8:	ebfffea0 	bl	8150 <printk>
    86cc:	eb00001a 	bl	873c <clean_reboot>
    86d0:	e2862001 	add	r2, r6, #1
    86d4:	ea000002 	b	86e4 <va_printk+0x23c>
    86d8:	e2800001 	add	r0, r0, #1
    86dc:	e5c43000 	strb	r3, [r4]
    86e0:	e2844001 	add	r4, r4, #1
    86e4:	e1540008 	cmp	r4, r8
    86e8:	2a000002 	bcs	86f8 <va_printk+0x250>
    86ec:	e5d03000 	ldrb	r3, [r0]
    86f0:	e3530000 	cmp	r3, #0
    86f4:	1afffff7 	bne	86d8 <va_printk+0x230>
    86f8:	e5d23000 	ldrb	r3, [r2]
    86fc:	e3530000 	cmp	r3, #0
    8700:	0a000001 	beq	870c <va_printk+0x264>
    8704:	e1540008 	cmp	r4, r8
    8708:	3affff71 	bcc	84d4 <va_printk+0x2c>
    870c:	e2840001 	add	r0, r4, #1
    8710:	e3a03000 	mov	r3, #0
    8714:	e5c43000 	strb	r3, [r4]
    8718:	e06a0000 	rsb	r0, sl, r0
    871c:	e28dd08c 	add	sp, sp, #140	; 0x8c
    8720:	e8bd8ff0 	pop	{r4, r5, r6, r7, r8, r9, sl, fp, pc}
    8724:	00009934 	andeq	r9, r0, r4, lsr r9
    8728:	000098dc 	ldrdeq	r9, [r0], -ip
    872c:	000098f0 	strdeq	r9, [r0], -r0
    8730:	000098d0 	ldrdeq	r9, [r0], -r0
    8734:	00009940 	andeq	r9, r0, r0, asr #18
    8738:	00009968 	andeq	r9, r0, r8, ror #18

0000873c <clean_reboot>:
    873c:	e92d4008 	push	{r3, lr}
    8740:	e59f3014 	ldr	r3, [pc, #20]	; 875c <clean_reboot+0x20>
    8744:	e5933000 	ldr	r3, [r3]
    8748:	e59f0010 	ldr	r0, [pc, #16]	; 8760 <clean_reboot+0x24>
    874c:	e12fff33 	blx	r3
    8750:	e3a00064 	mov	r0, #100	; 0x64
    8754:	eb000063 	bl	88e8 <delay_ms>
    8758:	eb000038 	bl	8840 <rpi_reboot>
    875c:	00009750 	andeq	r9, r0, r0, asr r7
    8760:	000099a0 	andeq	r9, r0, r0, lsr #19

00008764 <internal_sw_putchar>:
    8764:	e92d4010 	push	{r4, lr}
    8768:	e1a04000 	mov	r4, r0
    876c:	e59f000c 	ldr	r0, [pc, #12]	; 8780 <internal_sw_putchar+0x1c>
    8770:	e6ef1074 	uxtb	r1, r4
    8774:	eb0001cd 	bl	8eb0 <sw_uart_putc>
    8778:	e1a00004 	mov	r0, r4
    877c:	e8bd8010 	pop	{r4, pc}
    8780:	00009ef4 	strdeq	r9, [r0], -r4

00008784 <_cstart>:
    8784:	e92d4008 	push	{r3, lr}
    8788:	e59f3068 	ldr	r3, [pc, #104]	; 87f8 <_cstart+0x74>
    878c:	e59f2068 	ldr	r2, [pc, #104]	; 87fc <_cstart+0x78>
    8790:	e3a01000 	mov	r1, #0
    8794:	ea000001 	b	87a0 <_cstart+0x1c>
    8798:	e5831000 	str	r1, [r3]
    879c:	e2833004 	add	r3, r3, #4
    87a0:	e1530002 	cmp	r3, r2
    87a4:	3afffffb 	bcc	8798 <_cstart+0x14>
    87a8:	eb0003d2 	bl	96f8 <cb_get_block>
    87ac:	e3500000 	cmp	r0, #0
    87b0:	0a00000e 	beq	87f0 <_cstart+0x6c>
    87b4:	e5d02004 	ldrb	r2, [r0, #4]
    87b8:	e3520002 	cmp	r2, #2
    87bc:	1a00000b 	bne	87f0 <_cstart+0x6c>
    87c0:	e59f1038 	ldr	r1, [pc, #56]	; 8800 <_cstart+0x7c>
    87c4:	e59f2038 	ldr	r2, [pc, #56]	; 8804 <_cstart+0x80>
    87c8:	e5821000 	str	r1, [r2]
    87cc:	e59fc034 	ldr	ip, [pc, #52]	; 8808 <_cstart+0x84>
    87d0:	e2803008 	add	r3, r0, #8
    87d4:	e8930007 	ldm	r3, {r0, r1, r2}
    87d8:	e88c0007 	stm	ip, {r0, r1, r2}
    87dc:	e1a0000c 	mov	r0, ip
    87e0:	e59f1024 	ldr	r1, [pc, #36]	; 880c <_cstart+0x88>
    87e4:	eb000314 	bl	943c <sw_uart_printk>
    87e8:	e59f0020 	ldr	r0, [pc, #32]	; 8810 <_cstart+0x8c>
    87ec:	ebfffe57 	bl	8150 <printk>
    87f0:	ebfffe06 	bl	8010 <notmain>
    87f4:	eb000011 	bl	8840 <rpi_reboot>
    87f8:	00009af4 	strdeq	r9, [r0], -r4
    87fc:	00009f00 	andeq	r9, r0, r0, lsl #30
    8800:	00008764 	andeq	r8, r0, r4, ror #14
    8804:	0000974c 	andeq	r9, r0, ip, asr #14
    8808:	00009ef4 	strdeq	r9, [r0], -r4
    880c:	000099ac 	andeq	r9, r0, ip, lsr #19
    8810:	000099d0 	ldrdeq	r9, [r0], -r0

00008814 <at_user_level>:
    8814:	e10f0000 	mrs	r0, CPSR
    8818:	e200001f 	and	r0, r0, #31
    881c:	e3500010 	cmp	r0, #16
    8820:	13a00000 	movne	r0, #0
    8824:	03a00001 	moveq	r0, #1
    8828:	e12fff1e 	bx	lr

0000882c <set_user_level>:
    882c:	e10f3000 	mrs	r3, CPSR
    8830:	e3c3301f 	bic	r3, r3, #31
    8834:	e3833010 	orr	r3, r3, #16
    8838:	e129f003 	msr	CPSR_fc, r3
    883c:	e12fff1e 	bx	lr

00008840 <rpi_reboot>:
    8840:	e92d4008 	push	{r3, lr}
    8844:	ebfffff2 	bl	8814 <at_user_level>
    8848:	e3500000 	cmp	r0, #0
    884c:	0a000000 	beq	8854 <rpi_reboot+0x14>
    8850:	ebfffff5 	bl	882c <set_user_level>
    8854:	e3a0001e 	mov	r0, #30
    8858:	eb000022 	bl	88e8 <delay_ms>
    885c:	e59f0014 	ldr	r0, [pc, #20]	; 8878 <rpi_reboot+0x38>
    8860:	e59f1014 	ldr	r1, [pc, #20]	; 887c <rpi_reboot+0x3c>
    8864:	eb000388 	bl	968c <PUT32>
    8868:	e59f0010 	ldr	r0, [pc, #16]	; 8880 <rpi_reboot+0x40>
    886c:	e59f1010 	ldr	r1, [pc, #16]	; 8884 <rpi_reboot+0x44>
    8870:	eb000385 	bl	968c <PUT32>
    8874:	eafffffe 	b	8874 <rpi_reboot+0x34>
    8878:	20100024 	andscs	r0, r0, r4, lsr #32
    887c:	5a000001 	bpl	8888 <delay_cycles>
    8880:	2010001c 	andscs	r0, r0, ip, lsl r0
    8884:	5a000020 	bpl	890c <delay_sec+0x10>

00008888 <delay_cycles>:
    8888:	ea000001 	b	8894 <delay_cycles+0xc>
    888c:	e2811000 	add	r1, r1, #0
    8890:	e1a00003 	mov	r0, r3
    8894:	e2403001 	sub	r3, r0, #1
    8898:	e3500000 	cmp	r0, #0
    889c:	1afffffa 	bne	888c <delay_cycles+0x4>
    88a0:	e12fff1e 	bx	lr

000088a4 <timer_get_usec_raw>:
    88a4:	e92d4008 	push	{r3, lr}
    88a8:	e59f0004 	ldr	r0, [pc, #4]	; 88b4 <timer_get_usec_raw+0x10>
    88ac:	eb000382 	bl	96bc <GET32>
    88b0:	e8bd8008 	pop	{r3, pc}
    88b4:	20003004 	andcs	r3, r0, r4

000088b8 <timer_get_usec>:
    88b8:	e92d4008 	push	{r3, lr}
    88bc:	ebfffff8 	bl	88a4 <timer_get_usec_raw>
    88c0:	e8bd8008 	pop	{r3, pc}

000088c4 <delay_us>:
    88c4:	e92d4038 	push	{r3, r4, r5, lr}
    88c8:	e1a05000 	mov	r5, r0
    88cc:	ebfffff9 	bl	88b8 <timer_get_usec>
    88d0:	e1a04000 	mov	r4, r0
    88d4:	ebfffff7 	bl	88b8 <timer_get_usec>
    88d8:	e0640000 	rsb	r0, r4, r0
    88dc:	e1500005 	cmp	r0, r5
    88e0:	3afffffb 	bcc	88d4 <delay_us+0x10>
    88e4:	e8bd8038 	pop	{r3, r4, r5, pc}

000088e8 <delay_ms>:
    88e8:	e92d4008 	push	{r3, lr}
    88ec:	e3a03ffa 	mov	r3, #1000	; 0x3e8
    88f0:	e0000093 	mul	r0, r3, r0
    88f4:	ebfffff2 	bl	88c4 <delay_us>
    88f8:	e8bd8008 	pop	{r3, pc}

000088fc <delay_sec>:
    88fc:	e92d4008 	push	{r3, lr}
    8900:	e3a03ffa 	mov	r3, #1000	; 0x3e8
    8904:	e0000093 	mul	r0, r3, r0
    8908:	ebfffff6 	bl	88e8 <delay_ms>
    890c:	e8bd8008 	pop	{r3, pc}

00008910 <gpio_set_output>:
    8910:	e92d4038 	push	{r3, r4, r5, lr}
    8914:	e1a04000 	mov	r4, r0
    8918:	e350001f 	cmp	r0, #31
    891c:	88bd8038 	pophi	{r3, r4, r5, pc}
    8920:	e59f30b4 	ldr	r3, [pc, #180]	; 89dc <gpio_set_output+0xcc>
    8924:	e0832093 	umull	r2, r3, r3, r0
    8928:	e1a031a3 	lsr	r3, r3, #3
    892c:	e3530005 	cmp	r3, #5
    8930:	979ff103 	ldrls	pc, [pc, r3, lsl #2]
    8934:	ea000017 	b	8998 <gpio_set_output+0x88>
    8938:	00008950 	andeq	r8, r0, r0, asr r9
    893c:	0000895c 	andeq	r8, r0, ip, asr r9
    8940:	00008968 	andeq	r8, r0, r8, ror #18
    8944:	00008974 	andeq	r8, r0, r4, ror r9
    8948:	00008980 	andeq	r8, r0, r0, lsl #19
    894c:	0000898c 	andeq	r8, r0, ip, lsl #19
    8950:	e59f3088 	ldr	r3, [pc, #136]	; 89e0 <gpio_set_output+0xd0>
    8954:	e5935000 	ldr	r5, [r3]
    8958:	ea00000f 	b	899c <gpio_set_output+0x8c>
    895c:	e59f307c 	ldr	r3, [pc, #124]	; 89e0 <gpio_set_output+0xd0>
    8960:	e5935004 	ldr	r5, [r3, #4]
    8964:	ea00000c 	b	899c <gpio_set_output+0x8c>
    8968:	e59f3070 	ldr	r3, [pc, #112]	; 89e0 <gpio_set_output+0xd0>
    896c:	e5935008 	ldr	r5, [r3, #8]
    8970:	ea000009 	b	899c <gpio_set_output+0x8c>
    8974:	e59f3064 	ldr	r3, [pc, #100]	; 89e0 <gpio_set_output+0xd0>
    8978:	e593500c 	ldr	r5, [r3, #12]
    897c:	ea000006 	b	899c <gpio_set_output+0x8c>
    8980:	e59f3058 	ldr	r3, [pc, #88]	; 89e0 <gpio_set_output+0xd0>
    8984:	e5935010 	ldr	r5, [r3, #16]
    8988:	ea000003 	b	899c <gpio_set_output+0x8c>
    898c:	e59f304c 	ldr	r3, [pc, #76]	; 89e0 <gpio_set_output+0xd0>
    8990:	e5935014 	ldr	r5, [r3, #20]
    8994:	ea000000 	b	899c <gpio_set_output+0x8c>
    8998:	e3a05000 	mov	r5, #0
    899c:	e1a00005 	mov	r0, r5
    89a0:	eb000343 	bl	96b4 <get32>
    89a4:	e59f1030 	ldr	r1, [pc, #48]	; 89dc <gpio_set_output+0xcc>
    89a8:	e0813491 	umull	r3, r1, r1, r4
    89ac:	e1a011a1 	lsr	r1, r1, #3
    89b0:	e0811101 	add	r1, r1, r1, lsl #2
    89b4:	e1a01081 	lsl	r1, r1, #1
    89b8:	e0611004 	rsb	r1, r1, r4
    89bc:	e0811081 	add	r1, r1, r1, lsl #1
    89c0:	e3a03007 	mov	r3, #7
    89c4:	e1c03113 	bic	r3, r0, r3, lsl r1
    89c8:	e1a00005 	mov	r0, r5
    89cc:	e3a02001 	mov	r2, #1
    89d0:	e1831112 	orr	r1, r3, r2, lsl r1
    89d4:	eb00032a 	bl	9684 <put32>
    89d8:	e8bd8038 	pop	{r3, r4, r5, pc}
    89dc:	cccccccd 	stclgt	12, cr12, [ip], {205}	; 0xcd
    89e0:	00009754 	andeq	r9, r0, r4, asr r7

000089e4 <gpio_set_on>:
    89e4:	e92d4008 	push	{r3, lr}
    89e8:	e350001f 	cmp	r0, #31
    89ec:	88bd8008 	pophi	{r3, pc}
    89f0:	959f3020 	ldrls	r3, [pc, #32]	; 8a18 <gpio_set_on+0x34>
    89f4:	95932018 	ldrls	r2, [r3, #24]
    89f8:	859f3018 	ldrhi	r3, [pc, #24]	; 8a18 <gpio_set_on+0x34>
    89fc:	8593201c 	ldrhi	r2, [r3, #28]
    8a00:	e200301f 	and	r3, r0, #31
    8a04:	e1a00002 	mov	r0, r2
    8a08:	e3a01001 	mov	r1, #1
    8a0c:	e1a01311 	lsl	r1, r1, r3
    8a10:	eb00031b 	bl	9684 <put32>
    8a14:	e8bd8008 	pop	{r3, pc}
    8a18:	00009754 	andeq	r9, r0, r4, asr r7

00008a1c <gpio_set_off>:
    8a1c:	e92d4008 	push	{r3, lr}
    8a20:	e350001f 	cmp	r0, #31
    8a24:	88bd8008 	pophi	{r3, pc}
    8a28:	959f3020 	ldrls	r3, [pc, #32]	; 8a50 <gpio_set_off+0x34>
    8a2c:	95932020 	ldrls	r2, [r3, #32]
    8a30:	859f3018 	ldrhi	r3, [pc, #24]	; 8a50 <gpio_set_off+0x34>
    8a34:	85932024 	ldrhi	r2, [r3, #36]	; 0x24
    8a38:	e200301f 	and	r3, r0, #31
    8a3c:	e1a00002 	mov	r0, r2
    8a40:	e3a01001 	mov	r1, #1
    8a44:	e1a01311 	lsl	r1, r1, r3
    8a48:	eb00030d 	bl	9684 <put32>
    8a4c:	e8bd8008 	pop	{r3, pc}
    8a50:	00009754 	andeq	r9, r0, r4, asr r7

00008a54 <gpio_set_input>:
    8a54:	e92d4038 	push	{r3, r4, r5, lr}
    8a58:	e1a04000 	mov	r4, r0
    8a5c:	e350001f 	cmp	r0, #31
    8a60:	88bd8038 	pophi	{r3, r4, r5, pc}
    8a64:	e59f30ac 	ldr	r3, [pc, #172]	; 8b18 <gpio_set_input+0xc4>
    8a68:	e0832093 	umull	r2, r3, r3, r0
    8a6c:	e1a031a3 	lsr	r3, r3, #3
    8a70:	e3530005 	cmp	r3, #5
    8a74:	979ff103 	ldrls	pc, [pc, r3, lsl #2]
    8a78:	ea000017 	b	8adc <gpio_set_input+0x88>
    8a7c:	00008a94 	muleq	r0, r4, sl
    8a80:	00008aa0 	andeq	r8, r0, r0, lsr #21
    8a84:	00008aac 	andeq	r8, r0, ip, lsr #21
    8a88:	00008ab8 			; <UNDEFINED> instruction: 0x00008ab8
    8a8c:	00008ac4 	andeq	r8, r0, r4, asr #21
    8a90:	00008ad0 	ldrdeq	r8, [r0], -r0
    8a94:	e59f3080 	ldr	r3, [pc, #128]	; 8b1c <gpio_set_input+0xc8>
    8a98:	e5935000 	ldr	r5, [r3]
    8a9c:	ea00000f 	b	8ae0 <gpio_set_input+0x8c>
    8aa0:	e59f3074 	ldr	r3, [pc, #116]	; 8b1c <gpio_set_input+0xc8>
    8aa4:	e5935004 	ldr	r5, [r3, #4]
    8aa8:	ea00000c 	b	8ae0 <gpio_set_input+0x8c>
    8aac:	e59f3068 	ldr	r3, [pc, #104]	; 8b1c <gpio_set_input+0xc8>
    8ab0:	e5935008 	ldr	r5, [r3, #8]
    8ab4:	ea000009 	b	8ae0 <gpio_set_input+0x8c>
    8ab8:	e59f305c 	ldr	r3, [pc, #92]	; 8b1c <gpio_set_input+0xc8>
    8abc:	e593500c 	ldr	r5, [r3, #12]
    8ac0:	ea000006 	b	8ae0 <gpio_set_input+0x8c>
    8ac4:	e59f3050 	ldr	r3, [pc, #80]	; 8b1c <gpio_set_input+0xc8>
    8ac8:	e5935010 	ldr	r5, [r3, #16]
    8acc:	ea000003 	b	8ae0 <gpio_set_input+0x8c>
    8ad0:	e59f3044 	ldr	r3, [pc, #68]	; 8b1c <gpio_set_input+0xc8>
    8ad4:	e5935014 	ldr	r5, [r3, #20]
    8ad8:	ea000000 	b	8ae0 <gpio_set_input+0x8c>
    8adc:	e3a05000 	mov	r5, #0
    8ae0:	e1a00005 	mov	r0, r5
    8ae4:	eb0002f2 	bl	96b4 <get32>
    8ae8:	e59f1028 	ldr	r1, [pc, #40]	; 8b18 <gpio_set_input+0xc4>
    8aec:	e0813491 	umull	r3, r1, r1, r4
    8af0:	e1a011a1 	lsr	r1, r1, #3
    8af4:	e0811101 	add	r1, r1, r1, lsl #2
    8af8:	e1a01081 	lsl	r1, r1, #1
    8afc:	e0611004 	rsb	r1, r1, r4
    8b00:	e0811081 	add	r1, r1, r1, lsl #1
    8b04:	e3a03007 	mov	r3, #7
    8b08:	e1c01113 	bic	r1, r0, r3, lsl r1
    8b0c:	e1a00005 	mov	r0, r5
    8b10:	eb0002db 	bl	9684 <put32>
    8b14:	e8bd8038 	pop	{r3, r4, r5, pc}
    8b18:	cccccccd 	stclgt	12, cr12, [ip], {205}	; 0xcd
    8b1c:	00009754 	andeq	r9, r0, r4, asr r7

00008b20 <gpio_read>:
    8b20:	e92d4010 	push	{r4, lr}
    8b24:	e1a04000 	mov	r4, r0
    8b28:	e350001f 	cmp	r0, #31
    8b2c:	8a00000b 	bhi	8b60 <gpio_read+0x40>
    8b30:	8a000003 	bhi	8b44 <gpio_read+0x24>
    8b34:	e59f302c 	ldr	r3, [pc, #44]	; 8b68 <gpio_read+0x48>
    8b38:	e5930028 	ldr	r0, [r3, #40]	; 0x28
    8b3c:	eb0002dc 	bl	96b4 <get32>
    8b40:	ea000002 	b	8b50 <gpio_read+0x30>
    8b44:	e59f301c 	ldr	r3, [pc, #28]	; 8b68 <gpio_read+0x48>
    8b48:	e593002c 	ldr	r0, [r3, #44]	; 0x2c
    8b4c:	eb0002d8 	bl	96b4 <get32>
    8b50:	e204401f 	and	r4, r4, #31
    8b54:	e3a03001 	mov	r3, #1
    8b58:	e0000413 	and	r0, r0, r3, lsl r4
    8b5c:	e8bd8010 	pop	{r4, pc}
    8b60:	e3e00000 	mvn	r0, #0
    8b64:	e8bd8010 	pop	{r4, pc}
    8b68:	00009754 	andeq	r9, r0, r4, asr r7

00008b6c <gpio_write>:
    8b6c:	e92d4008 	push	{r3, lr}
    8b70:	e350001f 	cmp	r0, #31
    8b74:	88bd8008 	pophi	{r3, pc}
    8b78:	e3510000 	cmp	r1, #0
    8b7c:	0a000001 	beq	8b88 <gpio_write+0x1c>
    8b80:	ebffff97 	bl	89e4 <gpio_set_on>
    8b84:	e8bd8008 	pop	{r3, pc}
    8b88:	ebffffa3 	bl	8a1c <gpio_set_off>
    8b8c:	e8bd8008 	pop	{r3, pc}

00008b90 <gpio_set_function>:
    8b90:	e92d4070 	push	{r4, r5, r6, lr}
    8b94:	e1a04000 	mov	r4, r0
    8b98:	e1a05001 	mov	r5, r1
    8b9c:	e3510007 	cmp	r1, #7
    8ba0:	9350001f 	cmpls	r0, #31
    8ba4:	88bd8070 	pophi	{r4, r5, r6, pc}
    8ba8:	e59f30b0 	ldr	r3, [pc, #176]	; 8c60 <gpio_set_function+0xd0>
    8bac:	e0832093 	umull	r2, r3, r3, r0
    8bb0:	e1a031a3 	lsr	r3, r3, #3
    8bb4:	e3530005 	cmp	r3, #5
    8bb8:	979ff103 	ldrls	pc, [pc, r3, lsl #2]
    8bbc:	ea000017 	b	8c20 <gpio_set_function+0x90>
    8bc0:	00008bd8 	ldrdeq	r8, [r0], -r8	; <UNPREDICTABLE>
    8bc4:	00008be4 	andeq	r8, r0, r4, ror #23
    8bc8:	00008bf0 	strdeq	r8, [r0], -r0
    8bcc:	00008bfc 	strdeq	r8, [r0], -ip
    8bd0:	00008c08 	andeq	r8, r0, r8, lsl #24
    8bd4:	00008c14 	andeq	r8, r0, r4, lsl ip
    8bd8:	e59f3084 	ldr	r3, [pc, #132]	; 8c64 <gpio_set_function+0xd4>
    8bdc:	e5936000 	ldr	r6, [r3]
    8be0:	ea00000f 	b	8c24 <gpio_set_function+0x94>
    8be4:	e59f3078 	ldr	r3, [pc, #120]	; 8c64 <gpio_set_function+0xd4>
    8be8:	e5936004 	ldr	r6, [r3, #4]
    8bec:	ea00000c 	b	8c24 <gpio_set_function+0x94>
    8bf0:	e59f306c 	ldr	r3, [pc, #108]	; 8c64 <gpio_set_function+0xd4>
    8bf4:	e5936008 	ldr	r6, [r3, #8]
    8bf8:	ea000009 	b	8c24 <gpio_set_function+0x94>
    8bfc:	e59f3060 	ldr	r3, [pc, #96]	; 8c64 <gpio_set_function+0xd4>
    8c00:	e593600c 	ldr	r6, [r3, #12]
    8c04:	ea000006 	b	8c24 <gpio_set_function+0x94>
    8c08:	e59f3054 	ldr	r3, [pc, #84]	; 8c64 <gpio_set_function+0xd4>
    8c0c:	e5936010 	ldr	r6, [r3, #16]
    8c10:	ea000003 	b	8c24 <gpio_set_function+0x94>
    8c14:	e59f3048 	ldr	r3, [pc, #72]	; 8c64 <gpio_set_function+0xd4>
    8c18:	e5936014 	ldr	r6, [r3, #20]
    8c1c:	ea000000 	b	8c24 <gpio_set_function+0x94>
    8c20:	e3a06000 	mov	r6, #0
    8c24:	e1a00006 	mov	r0, r6
    8c28:	eb0002a1 	bl	96b4 <get32>
    8c2c:	e59f302c 	ldr	r3, [pc, #44]	; 8c60 <gpio_set_function+0xd0>
    8c30:	e0832493 	umull	r2, r3, r3, r4
    8c34:	e1a031a3 	lsr	r3, r3, #3
    8c38:	e0833103 	add	r3, r3, r3, lsl #2
    8c3c:	e1a03083 	lsl	r3, r3, #1
    8c40:	e0633004 	rsb	r3, r3, r4
    8c44:	e0833083 	add	r3, r3, r3, lsl #1
    8c48:	e3a01007 	mov	r1, #7
    8c4c:	e1c01311 	bic	r1, r0, r1, lsl r3
    8c50:	e1a00006 	mov	r0, r6
    8c54:	e1811315 	orr	r1, r1, r5, lsl r3
    8c58:	eb000289 	bl	9684 <put32>
    8c5c:	e8bd8070 	pop	{r4, r5, r6, pc}
    8c60:	cccccccd 	stclgt	12, cr12, [ip], {205}	; 0xcd
    8c64:	00009754 	andeq	r9, r0, r4, asr r7

00008c68 <gpio_toggle>:
    8c68:	e92d4008 	push	{r3, lr}
    8c6c:	e350001f 	cmp	r0, #31
    8c70:	88bd8008 	pophi	{r3, pc}
    8c74:	959f3020 	ldrls	r3, [pc, #32]	; 8c9c <gpio_toggle+0x34>
    8c78:	95932018 	ldrls	r2, [r3, #24]
    8c7c:	859f3018 	ldrhi	r3, [pc, #24]	; 8c9c <gpio_toggle+0x34>
    8c80:	8593201c 	ldrhi	r2, [r3, #28]
    8c84:	e200301f 	and	r3, r0, #31
    8c88:	e1a00002 	mov	r0, r2
    8c8c:	e3a01001 	mov	r1, #1
    8c90:	e1a01311 	lsl	r1, r1, r3
    8c94:	eb00027a 	bl	9684 <put32>
    8c98:	e8bd8008 	pop	{r3, pc}
    8c9c:	00009754 	andeq	r9, r0, r4, asr r7

00008ca0 <is_gpio_int>:
    8ca0:	e92d4008 	push	{r3, lr}
    8ca4:	e59f301c 	ldr	r3, [pc, #28]	; 8cc8 <is_gpio_int+0x28>
    8ca8:	e5930030 	ldr	r0, [r3, #48]	; 0x30
    8cac:	eb000280 	bl	96b4 <get32>
    8cb0:	e3500000 	cmp	r0, #0
    8cb4:	0a000001 	beq	8cc0 <is_gpio_int+0x20>
    8cb8:	e3a00001 	mov	r0, #1
    8cbc:	e8bd8008 	pop	{r3, pc}
    8cc0:	e3a00000 	mov	r0, #0
    8cc4:	e8bd8008 	pop	{r3, pc}
    8cc8:	00009754 	andeq	r9, r0, r4, asr r7

00008ccc <gpio_int_rising_edge>:
    8ccc:	e92d4038 	push	{r3, r4, r5, lr}
    8cd0:	e1a04000 	mov	r4, r0
    8cd4:	e350001f 	cmp	r0, #31
    8cd8:	88bd8038 	pophi	{r3, r4, r5, pc}
    8cdc:	eb000262 	bl	966c <dev_barrier>
    8ce0:	e354001f 	cmp	r4, #31
    8ce4:	8a000007 	bhi	8d08 <gpio_int_rising_edge+0x3c>
    8ce8:	e59f505c 	ldr	r5, [pc, #92]	; 8d4c <gpio_int_rising_edge+0x80>
    8cec:	e5950034 	ldr	r0, [r5, #52]	; 0x34
    8cf0:	eb00026f 	bl	96b4 <get32>
    8cf4:	e3a01001 	mov	r1, #1
    8cf8:	e1801411 	orr	r1, r0, r1, lsl r4
    8cfc:	e5950034 	ldr	r0, [r5, #52]	; 0x34
    8d00:	eb00025f 	bl	9684 <put32>
    8d04:	ea000007 	b	8d28 <gpio_int_rising_edge+0x5c>
    8d08:	e59f503c 	ldr	r5, [pc, #60]	; 8d4c <gpio_int_rising_edge+0x80>
    8d0c:	e5950038 	ldr	r0, [r5, #56]	; 0x38
    8d10:	eb000267 	bl	96b4 <get32>
    8d14:	e204401f 	and	r4, r4, #31
    8d18:	e3a01001 	mov	r1, #1
    8d1c:	e1801411 	orr	r1, r0, r1, lsl r4
    8d20:	e5950038 	ldr	r0, [r5, #56]	; 0x38
    8d24:	eb000256 	bl	9684 <put32>
    8d28:	eb00024f 	bl	966c <dev_barrier>
    8d2c:	e59f4018 	ldr	r4, [pc, #24]	; 8d4c <gpio_int_rising_edge+0x80>
    8d30:	e594003c 	ldr	r0, [r4, #60]	; 0x3c
    8d34:	eb00025e 	bl	96b4 <get32>
    8d38:	e3801802 	orr	r1, r0, #131072	; 0x20000
    8d3c:	e594003c 	ldr	r0, [r4, #60]	; 0x3c
    8d40:	eb00024f 	bl	9684 <put32>
    8d44:	eb000248 	bl	966c <dev_barrier>
    8d48:	e8bd8038 	pop	{r3, r4, r5, pc}
    8d4c:	00009754 	andeq	r9, r0, r4, asr r7

00008d50 <gpio_int_falling_edge>:
    8d50:	e92d4038 	push	{r3, r4, r5, lr}
    8d54:	e1a04000 	mov	r4, r0
    8d58:	e350001f 	cmp	r0, #31
    8d5c:	88bd8038 	pophi	{r3, r4, r5, pc}
    8d60:	eb000241 	bl	966c <dev_barrier>
    8d64:	e354001f 	cmp	r4, #31
    8d68:	8a000007 	bhi	8d8c <gpio_int_falling_edge+0x3c>
    8d6c:	e59f505c 	ldr	r5, [pc, #92]	; 8dd0 <gpio_int_falling_edge+0x80>
    8d70:	e5950040 	ldr	r0, [r5, #64]	; 0x40
    8d74:	eb00024e 	bl	96b4 <get32>
    8d78:	e3a01001 	mov	r1, #1
    8d7c:	e1801411 	orr	r1, r0, r1, lsl r4
    8d80:	e5950040 	ldr	r0, [r5, #64]	; 0x40
    8d84:	eb00023e 	bl	9684 <put32>
    8d88:	ea000007 	b	8dac <gpio_int_falling_edge+0x5c>
    8d8c:	e59f503c 	ldr	r5, [pc, #60]	; 8dd0 <gpio_int_falling_edge+0x80>
    8d90:	e5950044 	ldr	r0, [r5, #68]	; 0x44
    8d94:	eb000246 	bl	96b4 <get32>
    8d98:	e204401f 	and	r4, r4, #31
    8d9c:	e3a01001 	mov	r1, #1
    8da0:	e1801411 	orr	r1, r0, r1, lsl r4
    8da4:	e5950044 	ldr	r0, [r5, #68]	; 0x44
    8da8:	eb000235 	bl	9684 <put32>
    8dac:	eb00022e 	bl	966c <dev_barrier>
    8db0:	e59f4018 	ldr	r4, [pc, #24]	; 8dd0 <gpio_int_falling_edge+0x80>
    8db4:	e594003c 	ldr	r0, [r4, #60]	; 0x3c
    8db8:	eb00023d 	bl	96b4 <get32>
    8dbc:	e3801601 	orr	r1, r0, #1048576	; 0x100000
    8dc0:	e594003c 	ldr	r0, [r4, #60]	; 0x3c
    8dc4:	eb00022e 	bl	9684 <put32>
    8dc8:	eb000227 	bl	966c <dev_barrier>
    8dcc:	e8bd8038 	pop	{r3, r4, r5, pc}
    8dd0:	00009754 	andeq	r9, r0, r4, asr r7

00008dd4 <gpio_event_detected>:
    8dd4:	e92d4010 	push	{r4, lr}
    8dd8:	e1a04000 	mov	r4, r0
    8ddc:	e350001f 	cmp	r0, #31
    8de0:	8a000019 	bhi	8e4c <gpio_event_detected+0x78>
    8de4:	eb000220 	bl	966c <dev_barrier>
    8de8:	e354001f 	cmp	r4, #31
    8dec:	8a000008 	bhi	8e14 <gpio_event_detected+0x40>
    8df0:	e59f305c 	ldr	r3, [pc, #92]	; 8e54 <gpio_event_detected+0x80>
    8df4:	e5930048 	ldr	r0, [r3, #72]	; 0x48
    8df8:	eb00022d 	bl	96b4 <get32>
    8dfc:	e3a03001 	mov	r3, #1
    8e00:	e0103413 	ands	r3, r0, r3, lsl r4
    8e04:	0a00000d 	beq	8e40 <gpio_event_detected+0x6c>
    8e08:	eb000217 	bl	966c <dev_barrier>
    8e0c:	e3a00001 	mov	r0, #1
    8e10:	e8bd8010 	pop	{r4, pc}
    8e14:	e59f3038 	ldr	r3, [pc, #56]	; 8e54 <gpio_event_detected+0x80>
    8e18:	e593004c 	ldr	r0, [r3, #76]	; 0x4c
    8e1c:	eb000224 	bl	96b4 <get32>
    8e20:	e3a03001 	mov	r3, #1
    8e24:	e0004413 	and	r4, r0, r3, lsl r4
    8e28:	eb00020f 	bl	966c <dev_barrier>
    8e2c:	e3540000 	cmp	r4, #0
    8e30:	0a000002 	beq	8e40 <gpio_event_detected+0x6c>
    8e34:	eb00020c 	bl	966c <dev_barrier>
    8e38:	e3a00001 	mov	r0, #1
    8e3c:	e8bd8010 	pop	{r4, pc}
    8e40:	eb000209 	bl	966c <dev_barrier>
    8e44:	e3a00000 	mov	r0, #0
    8e48:	e8bd8010 	pop	{r4, pc}
    8e4c:	e3e00000 	mvn	r0, #0
    8e50:	e8bd8010 	pop	{r4, pc}
    8e54:	00009754 	andeq	r9, r0, r4, asr r7

00008e58 <gpio_event_clear>:
    8e58:	e92d4010 	push	{r4, lr}
    8e5c:	e1a04000 	mov	r4, r0
    8e60:	e350001f 	cmp	r0, #31
    8e64:	88bd8010 	pophi	{r4, pc}
    8e68:	eb0001ff 	bl	966c <dev_barrier>
    8e6c:	e354001f 	cmp	r4, #31
    8e70:	8a000005 	bhi	8e8c <gpio_event_clear+0x34>
    8e74:	e59f3030 	ldr	r3, [pc, #48]	; 8eac <gpio_event_clear+0x54>
    8e78:	e5930048 	ldr	r0, [r3, #72]	; 0x48
    8e7c:	e3a01001 	mov	r1, #1
    8e80:	e1a01411 	lsl	r1, r1, r4
    8e84:	eb0001fe 	bl	9684 <put32>
    8e88:	ea000005 	b	8ea4 <gpio_event_clear+0x4c>
    8e8c:	e204401f 	and	r4, r4, #31
    8e90:	e59f3014 	ldr	r3, [pc, #20]	; 8eac <gpio_event_clear+0x54>
    8e94:	e593004c 	ldr	r0, [r3, #76]	; 0x4c
    8e98:	e3a01001 	mov	r1, #1
    8e9c:	e1a01411 	lsl	r1, r1, r4
    8ea0:	eb0001f7 	bl	9684 <put32>
    8ea4:	eb0001f0 	bl	966c <dev_barrier>
    8ea8:	e8bd8010 	pop	{r4, pc}
    8eac:	00009754 	andeq	r9, r0, r4, asr r7

00008eb0 <sw_uart_putc>:
    8eb0:	e92d41f0 	push	{r4, r5, r6, r7, r8, lr}
    8eb4:	e1a07001 	mov	r7, r1
    8eb8:	e5d06000 	ldrb	r6, [r0]
    8ebc:	e5905008 	ldr	r5, [r0, #8]
    8ec0:	ee1f4f3c 	mrc	15, 0, r4, cr15, cr12, {1}
    8ec4:	e1a00006 	mov	r0, r6
    8ec8:	e3a01000 	mov	r1, #0
    8ecc:	ebffff26 	bl	8b6c <gpio_write>
    8ed0:	ee1f3f3c 	mrc	15, 0, r3, cr15, cr12, {1}
    8ed4:	e0643003 	rsb	r3, r4, r3
    8ed8:	e1550003 	cmp	r5, r3
    8edc:	8afffffb 	bhi	8ed0 <sw_uart_putc+0x20>
    8ee0:	e1a08085 	lsl	r8, r5, #1
    8ee4:	e1a00006 	mov	r0, r6
    8ee8:	e2071001 	and	r1, r7, #1
    8eec:	ebffff1e 	bl	8b6c <gpio_write>
    8ef0:	ee1f3f3c 	mrc	15, 0, r3, cr15, cr12, {1}
    8ef4:	e0643003 	rsb	r3, r4, r3
    8ef8:	e1580003 	cmp	r8, r3
    8efc:	8afffffb 	bhi	8ef0 <sw_uart_putc+0x40>
    8f00:	e0888005 	add	r8, r8, r5
    8f04:	e1a00006 	mov	r0, r6
    8f08:	e2071002 	and	r1, r7, #2
    8f0c:	ebffff16 	bl	8b6c <gpio_write>
    8f10:	ee1f3f3c 	mrc	15, 0, r3, cr15, cr12, {1}
    8f14:	e0643003 	rsb	r3, r4, r3
    8f18:	e1580003 	cmp	r8, r3
    8f1c:	8afffffb 	bhi	8f10 <sw_uart_putc+0x60>
    8f20:	e0888005 	add	r8, r8, r5
    8f24:	e1a00006 	mov	r0, r6
    8f28:	e2071004 	and	r1, r7, #4
    8f2c:	ebffff0e 	bl	8b6c <gpio_write>
    8f30:	ee1f3f3c 	mrc	15, 0, r3, cr15, cr12, {1}
    8f34:	e0643003 	rsb	r3, r4, r3
    8f38:	e1580003 	cmp	r8, r3
    8f3c:	8afffffb 	bhi	8f30 <sw_uart_putc+0x80>
    8f40:	e0888005 	add	r8, r8, r5
    8f44:	e1a00006 	mov	r0, r6
    8f48:	e2071008 	and	r1, r7, #8
    8f4c:	ebffff06 	bl	8b6c <gpio_write>
    8f50:	ee1f3f3c 	mrc	15, 0, r3, cr15, cr12, {1}
    8f54:	e0643003 	rsb	r3, r4, r3
    8f58:	e1580003 	cmp	r8, r3
    8f5c:	8afffffb 	bhi	8f50 <sw_uart_putc+0xa0>
    8f60:	e0888005 	add	r8, r8, r5
    8f64:	e1a00006 	mov	r0, r6
    8f68:	e2071010 	and	r1, r7, #16
    8f6c:	ebfffefe 	bl	8b6c <gpio_write>
    8f70:	ee1f3f3c 	mrc	15, 0, r3, cr15, cr12, {1}
    8f74:	e0643003 	rsb	r3, r4, r3
    8f78:	e1580003 	cmp	r8, r3
    8f7c:	8afffffb 	bhi	8f70 <sw_uart_putc+0xc0>
    8f80:	e0888005 	add	r8, r8, r5
    8f84:	e1a00006 	mov	r0, r6
    8f88:	e2071020 	and	r1, r7, #32
    8f8c:	ebfffef6 	bl	8b6c <gpio_write>
    8f90:	ee1f3f3c 	mrc	15, 0, r3, cr15, cr12, {1}
    8f94:	e0643003 	rsb	r3, r4, r3
    8f98:	e1580003 	cmp	r8, r3
    8f9c:	8afffffb 	bhi	8f90 <sw_uart_putc+0xe0>
    8fa0:	e0888005 	add	r8, r8, r5
    8fa4:	e1a00006 	mov	r0, r6
    8fa8:	e2071040 	and	r1, r7, #64	; 0x40
    8fac:	ebfffeee 	bl	8b6c <gpio_write>
    8fb0:	ee1f3f3c 	mrc	15, 0, r3, cr15, cr12, {1}
    8fb4:	e0643003 	rsb	r3, r4, r3
    8fb8:	e1580003 	cmp	r8, r3
    8fbc:	8afffffb 	bhi	8fb0 <sw_uart_putc+0x100>
    8fc0:	e0888005 	add	r8, r8, r5
    8fc4:	e1a00006 	mov	r0, r6
    8fc8:	e2071080 	and	r1, r7, #128	; 0x80
    8fcc:	ebfffee6 	bl	8b6c <gpio_write>
    8fd0:	ee1f3f3c 	mrc	15, 0, r3, cr15, cr12, {1}
    8fd4:	e0643003 	rsb	r3, r4, r3
    8fd8:	e1580003 	cmp	r8, r3
    8fdc:	8afffffb 	bhi	8fd0 <sw_uart_putc+0x120>
    8fe0:	e0885005 	add	r5, r8, r5
    8fe4:	e1a00006 	mov	r0, r6
    8fe8:	e3a01001 	mov	r1, #1
    8fec:	ebfffede 	bl	8b6c <gpio_write>
    8ff0:	ee1f3f3c 	mrc	15, 0, r3, cr15, cr12, {1}
    8ff4:	e0643003 	rsb	r3, r4, r3
    8ff8:	e1550003 	cmp	r5, r3
    8ffc:	8afffffb 	bhi	8ff0 <sw_uart_putc+0x140>
    9000:	e8bd81f0 	pop	{r4, r5, r6, r7, r8, pc}

00009004 <sw_uart_getc_timeout>:
    9004:	e92d43f8 	push	{r3, r4, r5, r6, r7, r8, r9, lr}
    9008:	e1a09000 	mov	r9, r0
    900c:	e5d07001 	ldrb	r7, [r0, #1]
    9010:	e1a05007 	mov	r5, r7
    9014:	e1a06001 	mov	r6, r1
    9018:	ebfffe21 	bl	88a4 <timer_get_usec_raw>
    901c:	e1a04000 	mov	r4, r0
    9020:	e1a00005 	mov	r0, r5
    9024:	ebfffebd 	bl	8b20 <gpio_read>
    9028:	e3500000 	cmp	r0, #0
    902c:	0a000005 	beq	9048 <sw_uart_getc_timeout+0x44>
    9030:	ebfffe1b 	bl	88a4 <timer_get_usec_raw>
    9034:	e0640000 	rsb	r0, r4, r0
    9038:	e1560000 	cmp	r6, r0
    903c:	2afffff7 	bcs	9020 <sw_uart_getc_timeout+0x1c>
    9040:	e3a03000 	mov	r3, #0
    9044:	ea000000 	b	904c <sw_uart_getc_timeout+0x48>
    9048:	e3a03001 	mov	r3, #1
    904c:	e3530000 	cmp	r3, #0
    9050:	0a000059 	beq	91bc <sw_uart_getc_timeout+0x1b8>
    9054:	ee1f8f3c 	mrc	15, 0, r8, cr15, cr12, {1}
    9058:	e5994008 	ldr	r4, [r9, #8]
    905c:	e08420a4 	add	r2, r4, r4, lsr #1
    9060:	ee1f3f3c 	mrc	15, 0, r3, cr15, cr12, {1}
    9064:	e0683003 	rsb	r3, r8, r3
    9068:	e1520003 	cmp	r2, r3
    906c:	8afffffb 	bhi	9060 <sw_uart_getc_timeout+0x5c>
    9070:	e0888004 	add	r8, r8, r4
    9074:	e1a00007 	mov	r0, r7
    9078:	ebfffea8 	bl	8b20 <gpio_read>
    907c:	e1a09750 	asr	r9, r0, r7
    9080:	ee1f3f3c 	mrc	15, 0, r3, cr15, cr12, {1}
    9084:	e0683003 	rsb	r3, r8, r3
    9088:	e1540003 	cmp	r4, r3
    908c:	8afffffb 	bhi	9080 <sw_uart_getc_timeout+0x7c>
    9090:	e0888004 	add	r8, r8, r4
    9094:	e1a00007 	mov	r0, r7
    9098:	ebfffea0 	bl	8b20 <gpio_read>
    909c:	e1a00750 	asr	r0, r0, r7
    90a0:	e1899080 	orr	r9, r9, r0, lsl #1
    90a4:	ee1f3f3c 	mrc	15, 0, r3, cr15, cr12, {1}
    90a8:	e0683003 	rsb	r3, r8, r3
    90ac:	e1540003 	cmp	r4, r3
    90b0:	8afffffb 	bhi	90a4 <sw_uart_getc_timeout+0xa0>
    90b4:	e0888004 	add	r8, r8, r4
    90b8:	e1a00007 	mov	r0, r7
    90bc:	ebfffe97 	bl	8b20 <gpio_read>
    90c0:	e1a00750 	asr	r0, r0, r7
    90c4:	e1899100 	orr	r9, r9, r0, lsl #2
    90c8:	ee1f3f3c 	mrc	15, 0, r3, cr15, cr12, {1}
    90cc:	e0683003 	rsb	r3, r8, r3
    90d0:	e1540003 	cmp	r4, r3
    90d4:	8afffffb 	bhi	90c8 <sw_uart_getc_timeout+0xc4>
    90d8:	e0888004 	add	r8, r8, r4
    90dc:	e1a00007 	mov	r0, r7
    90e0:	ebfffe8e 	bl	8b20 <gpio_read>
    90e4:	e1a00750 	asr	r0, r0, r7
    90e8:	e1899180 	orr	r9, r9, r0, lsl #3
    90ec:	ee1f3f3c 	mrc	15, 0, r3, cr15, cr12, {1}
    90f0:	e0683003 	rsb	r3, r8, r3
    90f4:	e1540003 	cmp	r4, r3
    90f8:	8afffffb 	bhi	90ec <sw_uart_getc_timeout+0xe8>
    90fc:	e0888004 	add	r8, r8, r4
    9100:	e1a00007 	mov	r0, r7
    9104:	ebfffe85 	bl	8b20 <gpio_read>
    9108:	e1a00750 	asr	r0, r0, r7
    910c:	e1899200 	orr	r9, r9, r0, lsl #4
    9110:	ee1f3f3c 	mrc	15, 0, r3, cr15, cr12, {1}
    9114:	e0683003 	rsb	r3, r8, r3
    9118:	e1540003 	cmp	r4, r3
    911c:	8afffffb 	bhi	9110 <sw_uart_getc_timeout+0x10c>
    9120:	e0888004 	add	r8, r8, r4
    9124:	e1a00007 	mov	r0, r7
    9128:	ebfffe7c 	bl	8b20 <gpio_read>
    912c:	e1a00750 	asr	r0, r0, r7
    9130:	e1899280 	orr	r9, r9, r0, lsl #5
    9134:	ee1f3f3c 	mrc	15, 0, r3, cr15, cr12, {1}
    9138:	e0683003 	rsb	r3, r8, r3
    913c:	e1540003 	cmp	r4, r3
    9140:	8afffffb 	bhi	9134 <sw_uart_getc_timeout+0x130>
    9144:	e0888004 	add	r8, r8, r4
    9148:	e1a00007 	mov	r0, r7
    914c:	ebfffe73 	bl	8b20 <gpio_read>
    9150:	e1a00750 	asr	r0, r0, r7
    9154:	e1899300 	orr	r9, r9, r0, lsl #6
    9158:	ee1f3f3c 	mrc	15, 0, r3, cr15, cr12, {1}
    915c:	e0683003 	rsb	r3, r8, r3
    9160:	e1540003 	cmp	r4, r3
    9164:	8afffffb 	bhi	9158 <sw_uart_getc_timeout+0x154>
    9168:	e1a00007 	mov	r0, r7
    916c:	ebfffe6b 	bl	8b20 <gpio_read>
    9170:	e1a00750 	asr	r0, r0, r7
    9174:	e1899380 	orr	r9, r9, r0, lsl #7
    9178:	ebfffdc9 	bl	88a4 <timer_get_usec_raw>
    917c:	e1a04000 	mov	r4, r0
    9180:	e1a00005 	mov	r0, r5
    9184:	ebfffe65 	bl	8b20 <gpio_read>
    9188:	e3500000 	cmp	r0, #0
    918c:	0a000005 	beq	91a8 <sw_uart_getc_timeout+0x1a4>
    9190:	ebfffdc3 	bl	88a4 <timer_get_usec_raw>
    9194:	e0640000 	rsb	r0, r4, r0
    9198:	e1560000 	cmp	r6, r0
    919c:	2afffff7 	bcs	9180 <sw_uart_getc_timeout+0x17c>
    91a0:	e3a03000 	mov	r3, #0
    91a4:	ea000000 	b	91ac <sw_uart_getc_timeout+0x1a8>
    91a8:	e3a03001 	mov	r3, #1
    91ac:	e3530000 	cmp	r3, #0
    91b0:	0a000003 	beq	91c4 <sw_uart_getc_timeout+0x1c0>
    91b4:	e1a00009 	mov	r0, r9
    91b8:	e8bd83f8 	pop	{r3, r4, r5, r6, r7, r8, r9, pc}
    91bc:	e3e00000 	mvn	r0, #0
    91c0:	e8bd83f8 	pop	{r3, r4, r5, r6, r7, r8, r9, pc}
    91c4:	e3e00000 	mvn	r0, #0
    91c8:	e8bd83f8 	pop	{r3, r4, r5, r6, r7, r8, r9, pc}

000091cc <sw_uart_gets_until>:
    91cc:	e92d47f0 	push	{r4, r5, r6, r7, r8, r9, sl, lr}
    91d0:	e24dd008 	sub	sp, sp, #8
    91d4:	e1a08000 	mov	r8, r0
    91d8:	e1a06001 	mov	r6, r1
    91dc:	e1a09003 	mov	r9, r3
    91e0:	e59da028 	ldr	sl, [sp, #40]	; 0x28
    91e4:	e3520000 	cmp	r2, #0
    91e8:	1a000008 	bne	9210 <sw_uart_gets_until+0x44>
    91ec:	ebfffbf2 	bl	81bc <rpi_reset_putc>
    91f0:	e59f3068 	ldr	r3, [pc, #104]	; 9260 <sw_uart_gets_until+0x94>
    91f4:	e58d3000 	str	r3, [sp]
    91f8:	e59f0064 	ldr	r0, [pc, #100]	; 9264 <sw_uart_gets_until+0x98>
    91fc:	e59f1064 	ldr	r1, [pc, #100]	; 9268 <sw_uart_gets_until+0x9c>
    9200:	e59f2064 	ldr	r2, [pc, #100]	; 926c <sw_uart_gets_until+0xa0>
    9204:	e3a0306d 	mov	r3, #109	; 0x6d
    9208:	ebfffbd0 	bl	8150 <printk>
    920c:	ebfffd4a 	bl	873c <clean_reboot>
    9210:	e3a04000 	mov	r4, #0
    9214:	e5c14000 	strb	r4, [r1]
    9218:	e2427001 	sub	r7, r2, #1
    921c:	ea000007 	b	9240 <sw_uart_gets_until+0x74>
    9220:	e1a00008 	mov	r0, r8
    9224:	e1a0100a 	mov	r1, sl
    9228:	ebffff75 	bl	9004 <sw_uart_getc_timeout>
    922c:	e6ef0070 	uxtb	r0, r0
    9230:	e1500009 	cmp	r0, r9
    9234:	0a000004 	beq	924c <sw_uart_gets_until+0x80>
    9238:	e7c60005 	strb	r0, [r6, r5]
    923c:	e2844001 	add	r4, r4, #1
    9240:	e1a05004 	mov	r5, r4
    9244:	e1540007 	cmp	r4, r7
    9248:	3afffff4 	bcc	9220 <sw_uart_gets_until+0x54>
    924c:	e3a03000 	mov	r3, #0
    9250:	e7c63005 	strb	r3, [r6, r5]
    9254:	e1a00004 	mov	r0, r4
    9258:	e28dd008 	add	sp, sp, #8
    925c:	e8bd87f0 	pop	{r4, r5, r6, r7, r8, r9, sl, pc}
    9260:	00009a68 	andeq	r9, r0, r8, ror #20
    9264:	000098dc 	ldrdeq	r9, [r0], -ip
    9268:	00009a54 	andeq	r9, r0, r4, asr sl
    926c:	000099dc 	ldrdeq	r9, [r0], -ip

00009270 <sw_uart_gets_timeout>:
    9270:	e92d41f0 	push	{r4, r5, r6, r7, r8, lr}
    9274:	e24dd008 	sub	sp, sp, #8
    9278:	e1a07000 	mov	r7, r0
    927c:	e1a05001 	mov	r5, r1
    9280:	e1a08003 	mov	r8, r3
    9284:	e3520000 	cmp	r2, #0
    9288:	1a000008 	bne	92b0 <sw_uart_gets_timeout+0x40>
    928c:	ebfffbca 	bl	81bc <rpi_reset_putc>
    9290:	e59f3058 	ldr	r3, [pc, #88]	; 92f0 <sw_uart_gets_timeout+0x80>
    9294:	e58d3000 	str	r3, [sp]
    9298:	e59f0054 	ldr	r0, [pc, #84]	; 92f4 <sw_uart_gets_timeout+0x84>
    929c:	e59f1054 	ldr	r1, [pc, #84]	; 92f8 <sw_uart_gets_timeout+0x88>
    92a0:	e59f2054 	ldr	r2, [pc, #84]	; 92fc <sw_uart_gets_timeout+0x8c>
    92a4:	e3a03083 	mov	r3, #131	; 0x83
    92a8:	ebfffba8 	bl	8150 <printk>
    92ac:	ebfffd22 	bl	873c <clean_reboot>
    92b0:	e3a04000 	mov	r4, #0
    92b4:	e5c14000 	strb	r4, [r1]
    92b8:	e2426001 	sub	r6, r2, #1
    92bc:	ea000004 	b	92d4 <sw_uart_gets_timeout+0x64>
    92c0:	e1a00007 	mov	r0, r7
    92c4:	e1a01008 	mov	r1, r8
    92c8:	ebffff4d 	bl	9004 <sw_uart_getc_timeout>
    92cc:	e7c50004 	strb	r0, [r5, r4]
    92d0:	e2844001 	add	r4, r4, #1
    92d4:	e1540006 	cmp	r4, r6
    92d8:	3afffff8 	bcc	92c0 <sw_uart_gets_timeout+0x50>
    92dc:	e3a03000 	mov	r3, #0
    92e0:	e7c53004 	strb	r3, [r5, r4]
    92e4:	e1a00004 	mov	r0, r4
    92e8:	e28dd008 	add	sp, sp, #8
    92ec:	e8bd81f0 	pop	{r4, r5, r6, r7, r8, pc}
    92f0:	00009a68 	andeq	r9, r0, r8, ror #20
    92f4:	000098dc 	ldrdeq	r9, [r0], -ip
    92f8:	00009a54 	andeq	r9, r0, r4, asr sl
    92fc:	000099f0 	strdeq	r9, [r0], -r0

00009300 <sw_uart_init_helper>:
    9300:	e92d41f0 	push	{r4, r5, r6, r7, r8, lr}
    9304:	e24dd008 	sub	sp, sp, #8
    9308:	e1a04000 	mov	r4, r0
    930c:	e1a06001 	mov	r6, r1
    9310:	e1a08002 	mov	r8, r2
    9314:	e1a05003 	mov	r5, r3
    9318:	e59d7020 	ldr	r7, [sp, #32]
    931c:	e1a00001 	mov	r0, r1
    9320:	ebfffd7a 	bl	8910 <gpio_set_output>
    9324:	e1a00008 	mov	r0, r8
    9328:	ebfffdc9 	bl	8a54 <gpio_set_input>
    932c:	e3a03001 	mov	r3, #1
    9330:	ee0f3f1c 	mcr	15, 0, r3, cr15, cr12, {0}
    9334:	e1a00006 	mov	r0, r6
    9338:	e3a01001 	mov	r1, #1
    933c:	ebfffe0a 	bl	8b6c <gpio_write>
    9340:	e0020795 	mul	r2, r5, r7
    9344:	e59f3074 	ldr	r3, [pc, #116]	; 93c0 <sw_uart_init_helper+0xc0>
    9348:	e0653003 	rsb	r3, r5, r3
    934c:	e1530002 	cmp	r3, r2
    9350:	8a000005 	bhi	936c <sw_uart_init_helper+0x6c>
    9354:	e59f3064 	ldr	r3, [pc, #100]	; 93c0 <sw_uart_init_helper+0xc0>
    9358:	e0853003 	add	r3, r5, r3
    935c:	e1530002 	cmp	r3, r2
    9360:	2a000003 	bcs	9374 <sw_uart_init_helper+0x74>
    9364:	e3a03000 	mov	r3, #0
    9368:	ea000002 	b	9378 <sw_uart_init_helper+0x78>
    936c:	e3a03000 	mov	r3, #0
    9370:	ea000000 	b	9378 <sw_uart_init_helper+0x78>
    9374:	e3a03001 	mov	r3, #1
    9378:	e3530000 	cmp	r3, #0
    937c:	1a000008 	bne	93a4 <sw_uart_init_helper+0xa4>
    9380:	ebfffb8d 	bl	81bc <rpi_reset_putc>
    9384:	e59f3038 	ldr	r3, [pc, #56]	; 93c4 <sw_uart_init_helper+0xc4>
    9388:	e58d3000 	str	r3, [sp]
    938c:	e59f0034 	ldr	r0, [pc, #52]	; 93c8 <sw_uart_init_helper+0xc8>
    9390:	e59f1034 	ldr	r1, [pc, #52]	; 93cc <sw_uart_init_helper+0xcc>
    9394:	e59f2034 	ldr	r2, [pc, #52]	; 93d0 <sw_uart_init_helper+0xd0>
    9398:	e3a0309d 	mov	r3, #157	; 0x9d
    939c:	ebfffb6b 	bl	8150 <printk>
    93a0:	ebfffce5 	bl	873c <clean_reboot>
    93a4:	e5c46000 	strb	r6, [r4]
    93a8:	e5c48001 	strb	r8, [r4, #1]
    93ac:	e5845004 	str	r5, [r4, #4]
    93b0:	e5847008 	str	r7, [r4, #8]
    93b4:	e1a00004 	mov	r0, r4
    93b8:	e28dd008 	add	sp, sp, #8
    93bc:	e8bd81f0 	pop	{r4, r5, r6, r7, r8, pc}
    93c0:	29b92700 	ldmibcs	r9!, {r8, r9, sl, sp}
    93c4:	00009a74 	andeq	r9, r0, r4, ror sl
    93c8:	000098dc 	ldrdeq	r9, [r0], -ip
    93cc:	00009a54 	andeq	r9, r0, r4, asr sl
    93d0:	00009a08 	andeq	r9, r0, r8, lsl #20

000093d4 <sw_uart_getc>:
    93d4:	e92d4008 	push	{r3, lr}
    93d8:	e3e01000 	mvn	r1, #0
    93dc:	ebffff08 	bl	9004 <sw_uart_getc_timeout>
    93e0:	e3500000 	cmp	r0, #0
    93e4:	a8bd8008 	popge	{r3, pc}
    93e8:	ebfffb73 	bl	81bc <rpi_reset_putc>
    93ec:	e59f0010 	ldr	r0, [pc, #16]	; 9404 <sw_uart_getc+0x30>
    93f0:	e59f1010 	ldr	r1, [pc, #16]	; 9408 <sw_uart_getc+0x34>
    93f4:	e59f2010 	ldr	r2, [pc, #16]	; 940c <sw_uart_getc+0x38>
    93f8:	e3a030ac 	mov	r3, #172	; 0xac
    93fc:	ebfffb53 	bl	8150 <printk>
    9400:	ebfffccd 	bl	873c <clean_reboot>
    9404:	00009aa8 	andeq	r9, r0, r8, lsr #21
    9408:	00009a54 	andeq	r9, r0, r4, asr sl
    940c:	00009a1c 	andeq	r9, r0, ip, lsl sl

00009410 <sw_uart_putk>:
    9410:	e92d4038 	push	{r3, r4, r5, lr}
    9414:	e1a05000 	mov	r5, r0
    9418:	e1a04001 	mov	r4, r1
    941c:	ea000002 	b	942c <sw_uart_putk+0x1c>
    9420:	e1a00005 	mov	r0, r5
    9424:	ebfffea1 	bl	8eb0 <sw_uart_putc>
    9428:	e2844001 	add	r4, r4, #1
    942c:	e5d41000 	ldrb	r1, [r4]
    9430:	e3510000 	cmp	r1, #0
    9434:	1afffff9 	bne	9420 <sw_uart_putk+0x10>
    9438:	e8bd8038 	pop	{r3, r4, r5, pc}

0000943c <sw_uart_printk>:
    943c:	e92d000e 	push	{r1, r2, r3}
    9440:	e92d4030 	push	{r4, r5, lr}
    9444:	e24ddf76 	sub	sp, sp, #472	; 0x1d8
    9448:	e1a05000 	mov	r5, r0
    944c:	e28d3f7a 	add	r3, sp, #488	; 0x1e8
    9450:	e58d3008 	str	r3, [sp, #8]
    9454:	e28d000c 	add	r0, sp, #12
    9458:	e3a01f73 	mov	r1, #460	; 0x1cc
    945c:	e59d21e4 	ldr	r2, [sp, #484]	; 0x1e4
    9460:	ebfffc10 	bl	84a8 <va_printk>
    9464:	e1a04000 	mov	r4, r0
    9468:	e59f3048 	ldr	r3, [pc, #72]	; 94b8 <sw_uart_printk+0x7c>
    946c:	e1500003 	cmp	r0, r3
    9470:	9a000008 	bls	9498 <sw_uart_printk+0x5c>
    9474:	ebfffb50 	bl	81bc <rpi_reset_putc>
    9478:	e59f303c 	ldr	r3, [pc, #60]	; 94bc <sw_uart_printk+0x80>
    947c:	e58d3000 	str	r3, [sp]
    9480:	e59f0038 	ldr	r0, [pc, #56]	; 94c0 <sw_uart_printk+0x84>
    9484:	e59f1038 	ldr	r1, [pc, #56]	; 94c4 <sw_uart_printk+0x88>
    9488:	e59f2038 	ldr	r2, [pc, #56]	; 94c8 <sw_uart_printk+0x8c>
    948c:	e3a030c0 	mov	r3, #192	; 0xc0
    9490:	ebfffb2e 	bl	8150 <printk>
    9494:	ebfffca8 	bl	873c <clean_reboot>
    9498:	e1a00005 	mov	r0, r5
    949c:	e28d100c 	add	r1, sp, #12
    94a0:	ebffffda 	bl	9410 <sw_uart_putk>
    94a4:	e1a00004 	mov	r0, r4
    94a8:	e28ddf76 	add	sp, sp, #472	; 0x1d8
    94ac:	e8bd4030 	pop	{r4, r5, lr}
    94b0:	e28dd00c 	add	sp, sp, #12
    94b4:	e12fff1e 	bx	lr
    94b8:	000001ca 	andeq	r0, r0, sl, asr #3
    94bc:	00009ae0 	andeq	r9, r0, r0, ror #21
    94c0:	000098dc 	ldrdeq	r9, [r0], -ip
    94c4:	00009a54 	andeq	r9, r0, r4, asr sl
    94c8:	00009a2c 	andeq	r9, r0, ip, lsr #20

000094cc <sw_uart_gets_until_blk>:
    94cc:	e52de004 	push	{lr}		; (str lr, [sp, #-4]!)
    94d0:	e24dd00c 	sub	sp, sp, #12
    94d4:	e3e0c000 	mvn	ip, #0
    94d8:	e58dc000 	str	ip, [sp]
    94dc:	ebffff3a 	bl	91cc <sw_uart_gets_until>
    94e0:	e3500000 	cmp	r0, #0
    94e4:	aa000006 	bge	9504 <sw_uart_gets_until_blk+0x38>
    94e8:	ebfffb33 	bl	81bc <rpi_reset_putc>
    94ec:	e59f0018 	ldr	r0, [pc, #24]	; 950c <sw_uart_gets_until_blk+0x40>
    94f0:	e59f1018 	ldr	r1, [pc, #24]	; 9510 <sw_uart_gets_until_blk+0x44>
    94f4:	e59f2018 	ldr	r2, [pc, #24]	; 9514 <sw_uart_gets_until_blk+0x48>
    94f8:	e3a030c8 	mov	r3, #200	; 0xc8
    94fc:	ebfffb13 	bl	8150 <printk>
    9500:	ebfffc8d 	bl	873c <clean_reboot>
    9504:	e28dd00c 	add	sp, sp, #12
    9508:	e49df004 	pop	{pc}		; (ldr pc, [sp], #4)
    950c:	00009aa8 	andeq	r9, r0, r8, lsr #21
    9510:	00009a54 	andeq	r9, r0, r4, asr sl
    9514:	00009a3c 	andeq	r9, r0, ip, lsr sl

00009518 <uart_init>:
    9518:	e92d4038 	push	{r3, r4, r5, lr}
    951c:	eb000052 	bl	966c <dev_barrier>
    9520:	e3a0000e 	mov	r0, #14
    9524:	e3a01002 	mov	r1, #2
    9528:	ebfffd98 	bl	8b90 <gpio_set_function>
    952c:	e3a0000f 	mov	r0, #15
    9530:	e3a01002 	mov	r1, #2
    9534:	ebfffd95 	bl	8b90 <gpio_set_function>
    9538:	eb00004b 	bl	966c <dev_barrier>
    953c:	e59f4068 	ldr	r4, [pc, #104]	; 95ac <uart_init+0x94>
    9540:	e5945000 	ldr	r5, [r4]
    9544:	e1a00005 	mov	r0, r5
    9548:	eb000059 	bl	96b4 <get32>
    954c:	e3801001 	orr	r1, r0, #1
    9550:	e1a00005 	mov	r0, r5
    9554:	eb00004a 	bl	9684 <put32>
    9558:	eb000043 	bl	966c <dev_barrier>
    955c:	e5940004 	ldr	r0, [r4, #4]
    9560:	e3a01000 	mov	r1, #0
    9564:	eb000046 	bl	9684 <put32>
    9568:	e5940008 	ldr	r0, [r4, #8]
    956c:	e3a01000 	mov	r1, #0
    9570:	eb000043 	bl	9684 <put32>
    9574:	e594000c 	ldr	r0, [r4, #12]
    9578:	e3a01006 	mov	r1, #6
    957c:	eb000040 	bl	9684 <put32>
    9580:	e5940010 	ldr	r0, [r4, #16]
    9584:	e3a01003 	mov	r1, #3
    9588:	eb00003d 	bl	9684 <put32>
    958c:	e5940014 	ldr	r0, [r4, #20]
    9590:	e59f1018 	ldr	r1, [pc, #24]	; 95b0 <uart_init+0x98>
    9594:	eb00003a 	bl	9684 <put32>
    9598:	e5940004 	ldr	r0, [r4, #4]
    959c:	e3a01003 	mov	r1, #3
    95a0:	eb000037 	bl	9684 <put32>
    95a4:	eb000030 	bl	966c <dev_barrier>
    95a8:	e8bd8038 	pop	{r3, r4, r5, pc}
    95ac:	000097b4 			; <UNDEFINED> instruction: 0x000097b4
    95b0:	0000010e 	andeq	r0, r0, lr, lsl #2

000095b4 <uart_can_getc>:
    95b4:	e92d4008 	push	{r3, lr}
    95b8:	e59f300c 	ldr	r3, [pc, #12]	; 95cc <uart_can_getc+0x18>
    95bc:	e5930018 	ldr	r0, [r3, #24]
    95c0:	eb00003b 	bl	96b4 <get32>
    95c4:	e2000001 	and	r0, r0, #1
    95c8:	e8bd8008 	pop	{r3, pc}
    95cc:	000097b4 			; <UNDEFINED> instruction: 0x000097b4

000095d0 <uart_getc>:
    95d0:	e92d4008 	push	{r3, lr}
    95d4:	ebfffff6 	bl	95b4 <uart_can_getc>
    95d8:	e3500000 	cmp	r0, #0
    95dc:	0afffffc 	beq	95d4 <uart_getc+0x4>
    95e0:	e59f300c 	ldr	r3, [pc, #12]	; 95f4 <uart_getc+0x24>
    95e4:	e593001c 	ldr	r0, [r3, #28]
    95e8:	eb000031 	bl	96b4 <get32>
    95ec:	e6ef0070 	uxtb	r0, r0
    95f0:	e8bd8008 	pop	{r3, pc}
    95f4:	000097b4 			; <UNDEFINED> instruction: 0x000097b4

000095f8 <uart_can_putc>:
    95f8:	e92d4008 	push	{r3, lr}
    95fc:	e59f300c 	ldr	r3, [pc, #12]	; 9610 <uart_can_putc+0x18>
    9600:	e5930018 	ldr	r0, [r3, #24]
    9604:	eb00002a 	bl	96b4 <get32>
    9608:	e2000020 	and	r0, r0, #32
    960c:	e8bd8008 	pop	{r3, pc}
    9610:	000097b4 			; <UNDEFINED> instruction: 0x000097b4

00009614 <uart_putc>:
    9614:	e92d4010 	push	{r4, lr}
    9618:	e1a04000 	mov	r4, r0
    961c:	ebfffff5 	bl	95f8 <uart_can_putc>
    9620:	e3500000 	cmp	r0, #0
    9624:	0afffffc 	beq	961c <uart_putc+0x8>
    9628:	e59f300c 	ldr	r3, [pc, #12]	; 963c <uart_putc+0x28>
    962c:	e593001c 	ldr	r0, [r3, #28]
    9630:	e1a01004 	mov	r1, r4
    9634:	eb000012 	bl	9684 <put32>
    9638:	e8bd8010 	pop	{r4, pc}
    963c:	000097b4 			; <UNDEFINED> instruction: 0x000097b4

00009640 <uart_has_data>:
    9640:	e92d4008 	push	{r3, lr}
    9644:	ebffffda 	bl	95b4 <uart_can_getc>
    9648:	e8bd8008 	pop	{r3, pc}

0000964c <uart_getc_async>:
    964c:	e92d4008 	push	{r3, lr}
    9650:	ebfffffa 	bl	9640 <uart_has_data>
    9654:	e3500000 	cmp	r0, #0
    9658:	0a000001 	beq	9664 <uart_getc_async+0x18>
    965c:	ebffffdb 	bl	95d0 <uart_getc>
    9660:	e8bd8008 	pop	{r3, pc}
    9664:	e3e00000 	mvn	r0, #0
    9668:	e8bd8008 	pop	{r3, pc}

0000966c <dev_barrier>:
    966c:	ea000002 	b	967c <dsb>

00009670 <dmb>:
    9670:	e3a00000 	mov	r0, #0
    9674:	ee070fba 	mcr	15, 0, r0, cr7, cr10, {5}
    9678:	e12fff1e 	bx	lr

0000967c <dsb>:
    967c:	ee070f9a 	mcr	15, 0, r0, cr7, cr10, {4}
    9680:	e12fff1e 	bx	lr

00009684 <put32>:
    9684:	e5801000 	str	r1, [r0]
    9688:	e12fff1e 	bx	lr

0000968c <PUT32>:
    968c:	e5801000 	str	r1, [r0]
    9690:	e12fff1e 	bx	lr

00009694 <put16>:
    9694:	e1c010b0 	strh	r1, [r0]
    9698:	e12fff1e 	bx	lr

0000969c <PUT16>:
    969c:	e1c010b0 	strh	r1, [r0]
    96a0:	e12fff1e 	bx	lr

000096a4 <put8>:
    96a4:	e5c01000 	strb	r1, [r0]
    96a8:	e12fff1e 	bx	lr

000096ac <PUT8>:
    96ac:	e5c01000 	strb	r1, [r0]
    96b0:	e12fff1e 	bx	lr

000096b4 <get32>:
    96b4:	e5900000 	ldr	r0, [r0]
    96b8:	e12fff1e 	bx	lr

000096bc <GET32>:
    96bc:	e5900000 	ldr	r0, [r0]
    96c0:	e12fff1e 	bx	lr

000096c4 <GETPC>:
    96c4:	e1a0000e 	mov	r0, lr
    96c8:	e12fff1e 	bx	lr

000096cc <dummy>:
    96cc:	e12fff1e 	bx	lr

000096d0 <cb_new>:
    96d0:	e92d4008 	push	{r3, lr}
    96d4:	e3a00409 	mov	r0, #150994944	; 0x9000000
    96d8:	e3a01000 	mov	r1, #0
    96dc:	e3a02004 	mov	r2, #4
    96e0:	eb00000e 	bl	9720 <memset>
    96e4:	e3a00409 	mov	r0, #150994944	; 0x9000000
    96e8:	e59f3004 	ldr	r3, [pc, #4]	; 96f4 <cb_new+0x24>
    96ec:	e5803000 	str	r3, [r0]
    96f0:	e8bd8008 	pop	{r3, pc}
    96f4:	12345678 	eorsne	r5, r4, #120, 12	; 0x7800000

000096f8 <cb_get_block>:
    96f8:	e3a03409 	mov	r3, #150994944	; 0x9000000
    96fc:	e5932000 	ldr	r2, [r3]
    9700:	e59f3014 	ldr	r3, [pc, #20]	; 971c <cb_get_block+0x24>
    9704:	e1520003 	cmp	r2, r3
    9708:	0a000001 	beq	9714 <cb_get_block+0x1c>
    970c:	e3a00000 	mov	r0, #0
    9710:	e12fff1e 	bx	lr
    9714:	e3a00409 	mov	r0, #150994944	; 0x9000000
    9718:	e12fff1e 	bx	lr
    971c:	12345678 	eorsne	r5, r4, #120, 12	; 0x7800000

00009720 <memset>:
    9720:	e0802002 	add	r2, r0, r2
    9724:	e1a03000 	mov	r3, r0
    9728:	ea000001 	b	9734 <memset+0x14>
    972c:	e5c31000 	strb	r1, [r3]
    9730:	e2833001 	add	r3, r3, #1
    9734:	e1530002 	cmp	r3, r2
    9738:	3afffffb 	bcc	972c <memset+0xc>
    973c:	e12fff1e 	bx	lr

Disassembly of section .data:

00009740 <GPPUD>:
    9740:	20200094 	mlacs	r0, r4, r0, r0

00009744 <GPPUDCLK0>:
    9744:	20200098 	mlacs	r0, r8, r0, r0

00009748 <GPPUDCLK1>:
    9748:	2020009c 	mlacs	r0, ip, r0, r0

0000974c <rpi_putchar>:
    974c:	000081a8 	andeq	r8, r0, r8, lsr #3

00009750 <putk>:
    9750:	000081e4 	andeq	r8, r0, r4, ror #3

00009754 <GPFSEL0>:
    9754:	20200000 	eorcs	r0, r0, r0

00009758 <GPFSEL1>:
    9758:	20200004 	eorcs	r0, r0, r4

0000975c <GPFSEL2>:
    975c:	20200008 	eorcs	r0, r0, r8

00009760 <GPFSEL3>:
    9760:	2020000c 	eorcs	r0, r0, ip

00009764 <GPFSEL4>:
    9764:	20200010 	eorcs	r0, r0, r0, lsl r0

00009768 <GPFSEL5>:
    9768:	20200014 	eorcs	r0, r0, r4, lsl r0

0000976c <GPSET0>:
    976c:	2020001c 	eorcs	r0, r0, ip, lsl r0

00009770 <GPSET1>:
    9770:	20200020 	eorcs	r0, r0, r0, lsr #32

00009774 <GPCLR0>:
    9774:	20200028 	eorcs	r0, r0, r8, lsr #32

00009778 <GPCLR1>:
    9778:	2020002c 	eorcs	r0, r0, ip, lsr #32

0000977c <GPLEV0>:
    977c:	20200034 	eorcs	r0, r0, r4, lsr r0

00009780 <GPLEV1>:
    9780:	20200038 	eorcs	r0, r0, r8, lsr r0

00009784 <IRQ_PENDING_2>:
    9784:	2000b208 	andcs	fp, r0, r8, lsl #4

00009788 <GPREN0>:
    9788:	2020004c 	eorcs	r0, r0, ip, asr #32

0000978c <GPREN1>:
    978c:	20200050 	eorcs	r0, r0, r0, asr r0

00009790 <ENABLE_IRQS_2>:
    9790:	2000b214 	andcs	fp, r0, r4, lsl r2

00009794 <GPFEN0>:
    9794:	20200058 	eorcs	r0, r0, r8, asr r0

00009798 <GPFEN1>:
    9798:	2020005c 	eorcs	r0, r0, ip, asr r0

0000979c <GPEDS0>:
    979c:	20200040 	eorcs	r0, r0, r0, asr #32

000097a0 <GPEDS1>:
    97a0:	20200044 	eorcs	r0, r0, r4, asr #32

000097a4 <IRQ_PENDING_1>:
    97a4:	2000b204 	andcs	fp, r0, r4, lsl #4

000097a8 <gpio_clr0>:
    97a8:	20200028 	eorcs	r0, r0, r8, lsr #32

000097ac <gpio_set0>:
    97ac:	2020001c 	eorcs	r0, r0, ip, lsl r0

000097b0 <gpio_fsel0>:
    97b0:	20200000 	eorcs	r0, r0, r0

000097b4 <AUX_ENABLES>:
    97b4:	20215004 	eorcs	r5, r1, r4

000097b8 <AUX_MU_CNTL_REG>:
    97b8:	20215060 	eorcs	r5, r1, r0, rrx

000097bc <AUX_MU_IER_REG>:
    97bc:	20215044 	eorcs	r5, r1, r4, asr #32

000097c0 <AUX_MU_IIR_REG>:
    97c0:	20215048 	eorcs	r5, r1, r8, asr #32

000097c4 <AUX_MU_LCR_REG>:
    97c4:	2021504c 	eorcs	r5, r1, ip, asr #32

000097c8 <AUX_MU_BAUD_REG>:
    97c8:	20215068 	eorcs	r5, r1, r8, rrx

000097cc <AUX_MU_LSR_REG>:
    97cc:	20215054 	eorcs	r5, r1, r4, asr r0

000097d0 <AUX_MU_IO_REG>:
    97d0:	20215040 	eorcs	r5, r1, r0, asr #32

000097d4 <AUX_MU_STAT_REG>:
    97d4:	20215064 	eorcs	r5, r1, r4, rrx

000097d8 <AUX_MU_SCRATCH>:
    97d8:	2021505c 	eorcs	r5, r1, ip, asr r0

000097dc <AUX_MU_MSR_REG>:
    97dc:	20215058 	eorcs	r5, r1, r8, asr r0

000097e0 <AUX_MU_MCR_REG>:
    97e0:	20215050 	eorcs	r5, r1, r0, asr r0

000097e4 <AUX_IRQ>:
    97e4:	20215000 	eorcs	r5, r1, r0

Disassembly of section .rodata:

000097e8 <__FUNCTION__.4244-0x74>:
    97e8:	6c6c7570 	cfstr64vs	mvdx7, [ip], #-448	; 0xfffffe40
    97ec:	253d7075 	ldrcs	r7, [sp, #-117]!	; 0x75
    97f0:	74202c64 	strtvc	r2, [r0], #-3172	; 0xc64
    97f4:	20736968 	rsbscs	r6, r3, r8, ror #18
    97f8:	73207369 	teqvc	r0, #-1543503871	; 0xa4000001
    97fc:	6b636974 	blvs	18e3dd4 <__bss_end__+0x18d9ed4>
    9800:	74203a79 	strtvc	r3, [r0], #-2681	; 0xa79
    9804:	6863756f 	stmdavs	r3!, {r0, r1, r2, r3, r5, r6, r8, sl, ip, sp, lr}^
    9808:	64657220 	strbtvs	r7, [r5], #-544	; 0x220
    980c:	61656c20 	cmnvs	r5, r0, lsr #24
    9810:	6f742064 	svcvs	0x00742064
    9814:	69687420 	stmdbvs	r8!, {r5, sl, ip, sp, lr}^
    9818:	69702073 	ldmdbvs	r0!, {r0, r1, r4, r5, r6, sp}^
    981c:	6e61206e 	cdpvs	0, 6, cr2, cr1, cr14, {3}
    9820:	6c622064 	stclvs	0, cr2, [r2], #-400	; 0xfffffe70
    9824:	206b6361 	rsbcs	r6, fp, r1, ror #6
    9828:	67206f74 			; <UNDEFINED> instruction: 0x67206f74
    982c:	6e756f72 	mrcvs	15, 3, r6, cr5, cr2, {3}
    9830:	73203a64 	teqvc	r0, #100, 20	; 0x64000
    9834:	6c756f68 	ldclvs	15, cr6, [r5], #-416	; 0xfffffe60
    9838:	65732064 	ldrbvs	r2, [r3, #-100]!	; 0x64
    983c:	20612065 	rsbcs	r2, r1, r5, rrx
    9840:	2056337e 	subscs	r3, r6, lr, ror r3
    9844:	64616572 	strbtvs	r6, [r1], #-1394	; 0x572
    9848:	20676e69 	rsbcs	r6, r7, r9, ror #28
    984c:	6d206e6f 	stcvs	14, cr6, [r0, #-444]!	; 0xfffffe44
    9850:	69746c75 	ldmdbvs	r4!, {r0, r2, r4, r5, r6, sl, fp, sp, lr}^
    9854:	6574656d 	ldrbvs	r6, [r4, #-1389]!	; 0x56d
    9858:	00000a72 	andeq	r0, r0, r2, ror sl

0000985c <__FUNCTION__.4244>:
    985c:	6f697067 	svcvs	0x00697067
    9860:	7465735f 	strbtvc	r7, [r5], #-863	; 0x35f
    9864:	6c75705f 	ldclvs	0, cr7, [r5], #-380	; 0xfffffe84
    9868:	776f646c 	strbvc	r6, [pc, -ip, ror #8]!
    986c:	0000006e 	andeq	r0, r0, lr, rrx

00009870 <__FUNCTION__.4248>:
    9870:	6f697067 	svcvs	0x00697067
    9874:	6475705f 	ldrbtvs	r7, [r5], #-95	; 0x5f
    9878:	66666f5f 	uqsaxvs	r6, r6, pc	; <UNPREDICTABLE>
    987c:	00000000 	andeq	r0, r0, r0
    9880:	494e4150 	stmdbmi	lr, {r4, r6, r8, lr}^
    9884:	73253a43 	teqvc	r5, #274432	; 0x43000
    9888:	3a73253a 	bcc	1cd2d78 <__bss_end__+0x1cc8e78>
    988c:	693a6425 	ldmdbvs	sl!, {r0, r2, r5, sl, sp, lr}
    9890:	656c706d 	strbvs	r7, [ip, #-109]!	; 0x6d
    9894:	746e656d 	strbtvc	r6, [lr], #-1389	; 0x56d
    9898:	69687420 	stmdbvs	r8!, {r5, sl, ip, sp, lr}^
    989c:	75662073 	strbvc	r2, [r6, #-115]!	; 0x73
    98a0:	6974636e 	ldmdbvs	r4!, {r1, r2, r3, r5, r6, r8, r9, sp, lr}^
    98a4:	0a216e6f 	beq	865268 <__bss_end__+0x85b368>
    98a8:	0000000a 	andeq	r0, r0, sl
    98ac:	6f697067 	svcvs	0x00697067
    98b0:	6475702d 	ldrbtvs	r7, [r5], #-45	; 0x2d
    98b4:	0000632e 	andeq	r6, r0, lr, lsr #6

000098b8 <__FUNCTION__.4265>:
    98b8:	74696d65 	strbtvc	r6, [r9], #-3429	; 0xd65
    98bc:	00000000 	andeq	r0, r0, r0

000098c0 <__FUNCTION__.4213>:
    98c0:	5f697072 	svcpl	0x00697072
    98c4:	5f746573 	svcpl	0x00746573
    98c8:	7074756f 	rsbsvc	r7, r4, pc, ror #10
    98cc:	00007475 	andeq	r7, r0, r5, ror r4

000098d0 <__FUNCTION__.4287>:
    98d0:	705f6176 	subsvc	r6, pc, r6, ror r1	; <UNPREDICTABLE>
    98d4:	746e6972 	strbtvc	r6, [lr], #-2418	; 0x972
    98d8:	0000006b 	andeq	r0, r0, fp, rrx
    98dc:	494e4150 	stmdbmi	lr, {r4, r6, r8, lr}^
    98e0:	73253a43 	teqvc	r5, #274432	; 0x43000
    98e4:	3a73253a 	bcc	1cd2dd4 <__bss_end__+0x1cc8ed4>
    98e8:	253a6425 	ldrcs	r6, [sl, #-1061]!	; 0x425
    98ec:	00000a73 	andeq	r0, r0, r3, ror sl
    98f0:	6362696c 	cmnvs	r2, #108, 18	; 0x1b0000
    98f4:	2d61762f 	stclcs	6, cr7, [r1, #-188]!	; 0xffffff44
    98f8:	6e697270 	mcrvs	2, 3, r7, cr9, cr0, {3}
    98fc:	632e6b74 	teqvs	lr, #116, 22	; 0x1d000
    9900:	00000000 	andeq	r0, r0, r0
    9904:	00000030 	andeq	r0, r0, r0, lsr r0
    9908:	33323130 	teqcc	r2, #48, 2
    990c:	37363534 			; <UNDEFINED> instruction: 0x37363534
    9910:	00003938 	andeq	r3, r0, r8, lsr r9
    9914:	33323130 	teqcc	r2, #48, 2
    9918:	37363534 			; <UNDEFINED> instruction: 0x37363534
    991c:	62613938 	rsbvs	r3, r1, #56, 18	; 0xe0000
    9920:	66656463 	strbtvs	r6, [r5], -r3, ror #8
    9924:	00000000 	andeq	r0, r0, r0
    9928:	00003130 	andeq	r3, r0, r0, lsr r1
    992c:	63747570 	cmnvs	r4, #112, 10	; 0x1c000000
    9930:	0070665f 	rsbseq	r6, r0, pc, asr r6
    9934:	74646977 	strbtvc	r6, [r4], #-2423	; 0x977
    9938:	203c2068 	eorscs	r2, ip, r8, rrx
    993c:	00003233 	andeq	r3, r0, r3, lsr r2
    9940:	494e4150 	stmdbmi	lr, {r4, r6, r8, lr}^
    9944:	73253a43 	teqvc	r5, #274432	; 0x43000
    9948:	3a73253a 	bcc	1cd2e38 <__bss_end__+0x1cc8f38>
    994c:	663a6425 	ldrtvs	r6, [sl], -r5, lsr #8
    9950:	74616f6c 	strbtvc	r6, [r1], #-3948	; 0xf6c
    9954:	746f6e20 	strbtvc	r6, [pc], #-3616	; 995c <__FUNCTION__.4287+0x8c>
    9958:	616e6520 	cmnvs	lr, r0, lsr #10
    995c:	64656c62 	strbtvs	r6, [r5], #-3170	; 0xc62
    9960:	0a212121 	beq	851dec <__bss_end__+0x847eec>
    9964:	00000000 	andeq	r0, r0, r0
    9968:	494e4150 	stmdbmi	lr, {r4, r6, r8, lr}^
    996c:	73253a43 	teqvc	r5, #274432	; 0x43000
    9970:	3a73253a 	bcc	1cd2e60 <__bss_end__+0x1cc8f60>
    9974:	703a6425 	eorsvc	r6, sl, r5, lsr #8
    9978:	746e6972 	strbtvc	r6, [lr], #-2418	; 0x972
    997c:	6e203a6b 	vnmulvs.f32	s6, s0, s23
    9980:	6820746f 	stmdavs	r0!, {r0, r1, r2, r3, r5, r6, sl, ip, sp, lr}
    9984:	6c646e61 	stclvs	14, cr6, [r4], #-388	; 0xfffffe7c
    9988:	20676e69 	rsbcs	r6, r7, r9, ror #28
    998c:	63657073 	cmnvs	r5, #115	; 0x73
    9990:	65696669 	strbvs	r6, [r9, #-1641]!	; 0x669
    9994:	25272072 	strcs	r2, [r7, #-114]!	; 0x72
    9998:	0a0a2763 	beq	29372c <__bss_end__+0x28982c>
    999c:	00000000 	andeq	r0, r0, r0
    99a0:	454e4f44 	strbmi	r4, [lr, #-3908]	; 0xf44
    99a4:	0a212121 	beq	851e30 <__bss_end__+0x847f30>
    99a8:	00000000 	andeq	r0, r0, r0
    99ac:	756f6261 	strbvc	r6, [pc, #-609]!	; 9753 <putk+0x3>
    99b0:	6f742074 	svcvs	0x00742074
    99b4:	69727020 	ldmdbvs	r2!, {r5, ip, sp, lr}^
    99b8:	6f20746e 	svcvs	0x0020746e
    99bc:	6572206e 	ldrbvs	r2, [r2, #-110]!	; 0x6e
    99c0:	616c7567 	cmnvs	ip, r7, ror #10
    99c4:	72702072 	rsbsvc	r2, r0, #114	; 0x72
    99c8:	66746e69 	ldrbtvs	r6, [r4], -r9, ror #28
    99cc:	0000000a 	andeq	r0, r0, sl
    99d0:	63637573 	cmnvs	r3, #482344960	; 0x1cc00000
    99d4:	21737365 	cmncs	r3, r5, ror #6
    99d8:	0000000a 	andeq	r0, r0, sl

000099dc <__FUNCTION__.4314>:
    99dc:	755f7773 	ldrbvc	r7, [pc, #-1907]	; 9271 <sw_uart_gets_timeout+0x1>
    99e0:	5f747261 	svcpl	0x00747261
    99e4:	73746567 	cmnvc	r4, #432013312	; 0x19c00000
    99e8:	746e755f 	strbtvc	r7, [lr], #-1375	; 0x55f
    99ec:	00006c69 	andeq	r6, r0, r9, ror #24

000099f0 <__FUNCTION__.4326>:
    99f0:	755f7773 	ldrbvc	r7, [pc, #-1907]	; 9285 <sw_uart_gets_timeout+0x15>
    99f4:	5f747261 	svcpl	0x00747261
    99f8:	73746567 	cmnvc	r4, #432013312	; 0x19c00000
    99fc:	6d69745f 	cfstrdvs	mvd7, [r9, #-380]!	; 0xfffffe84
    9a00:	74756f65 	ldrbtvc	r6, [r5], #-3941	; 0xf65
    9a04:	00000000 	andeq	r0, r0, r0

00009a08 <__FUNCTION__.4340>:
    9a08:	755f7773 	ldrbvc	r7, [pc, #-1907]	; 929d <sw_uart_gets_timeout+0x2d>
    9a0c:	5f747261 	svcpl	0x00747261
    9a10:	74696e69 	strbtvc	r6, [r9], #-3689	; 0xe69
    9a14:	6c65685f 	stclvs	8, cr6, [r5], #-380	; 0xfffffe84
    9a18:	00726570 	rsbseq	r6, r2, r0, ror r5

00009a1c <__FUNCTION__.4346>:
    9a1c:	755f7773 	ldrbvc	r7, [pc, #-1907]	; 92b1 <sw_uart_gets_timeout+0x41>
    9a20:	5f747261 	svcpl	0x00747261
    9a24:	63746567 	cmnvs	r4, #432013312	; 0x19c00000
    9a28:	00000000 	andeq	r0, r0, r0

00009a2c <__FUNCTION__.4368>:
    9a2c:	755f7773 	ldrbvc	r7, [pc, #-1907]	; 92c1 <sw_uart_gets_timeout+0x51>
    9a30:	5f747261 	svcpl	0x00747261
    9a34:	6e697270 	mcrvs	2, 3, r7, cr9, cr0, {3}
    9a38:	00006b74 	andeq	r6, r0, r4, ror fp

00009a3c <__FUNCTION__.4376>:
    9a3c:	755f7773 	ldrbvc	r7, [pc, #-1907]	; 92d1 <sw_uart_gets_timeout+0x61>
    9a40:	5f747261 	svcpl	0x00747261
    9a44:	73746567 	cmnvc	r4, #432013312	; 0x19c00000
    9a48:	746e755f 	strbtvc	r7, [lr], #-1375	; 0x55f
    9a4c:	625f6c69 	subsvs	r6, pc, #26880	; 0x6900
    9a50:	00006b6c 	andeq	r6, r0, ip, ror #22
    9a54:	732d796d 	teqvc	sp, #1785856	; 0x1b4000
    9a58:	732f6372 	teqvc	pc, #-939524095	; 0xc8000001
    9a5c:	61752d77 	cmnvs	r5, r7, ror sp
    9a60:	632e7472 	teqvs	lr, #1912602624	; 0x72000000
    9a64:	00000000 	andeq	r0, r0, r0
    9a68:	7479626e 	ldrbtvc	r6, [r9], #-622	; 0x26e
    9a6c:	303e7365 	eorscc	r7, lr, r5, ror #6
    9a70:	00000000 	andeq	r0, r0, r0
    9a74:	7a686d28 	bvc	1a24f1c <__bss_end__+0x1a1b01c>
    9a78:	62202d20 	eorvs	r2, r0, #32, 26	; 0x800
    9a7c:	29647561 	stmdbcs	r4!, {r0, r5, r6, r8, sl, ip, sp, lr}^
    9a80:	203d3c20 	eorscs	r3, sp, r0, lsr #24
    9a84:	69726564 	ldmdbvs	r2!, {r2, r5, r6, r8, sl, sp, lr}^
    9a88:	20646576 	rsbcs	r6, r4, r6, ror r5
    9a8c:	64202626 	strtvs	r2, [r0], #-1574	; 0x626
    9a90:	76697265 	strbtvc	r7, [r9], -r5, ror #4
    9a94:	3c206465 	cfstrscc	mvf6, [r0], #-404	; 0xfffffe6c
    9a98:	6d28203d 	stcvs	0, cr2, [r8, #-244]!	; 0xffffff0c
    9a9c:	2b207a68 	blcs	828444 <__bss_end__+0x81e544>
    9aa0:	75616220 	strbvc	r6, [r1, #-544]!	; 0x220
    9aa4:	00002964 	andeq	r2, r0, r4, ror #18
    9aa8:	494e4150 	stmdbmi	lr, {r4, r6, r8, lr}^
    9aac:	73253a43 	teqvc	r5, #274432	; 0x43000
    9ab0:	3a73253a 	bcc	1cd2fa0 <__bss_end__+0x1cc90a0>
    9ab4:	693a6425 	ldmdbvs	sl!, {r0, r2, r5, sl, sp, lr}
    9ab8:	736f706d 	cmnvc	pc, #109	; 0x6d
    9abc:	6c626973 	stclvs	9, cr6, [r2], #-460	; 0xfffffe34
    9ac0:	68203a65 	stmdavs	r0!, {r0, r2, r5, r6, r9, fp, ip, sp}
    9ac4:	20657661 	rsbcs	r7, r5, r1, ror #12
    9ac8:	69206e61 	stmdbvs	r0!, {r0, r5, r6, r9, sl, fp, sp, lr}
    9acc:	6e69666e 	cdpvs	6, 6, cr6, cr9, cr14, {3}
    9ad0:	20657469 	rsbcs	r7, r5, r9, ror #8
    9ad4:	656d6974 	strbvs	r6, [sp, #-2420]!	; 0x974
    9ad8:	2174756f 	cmncs	r4, pc, ror #10
    9adc:	00000a0a 	andeq	r0, r0, sl, lsl #20
    9ae0:	3c207a73 	stccc	10, cr7, [r0], #-460	; 0xfffffe34
    9ae4:	7a697320 	bvc	1a6676c <__bss_end__+0x1a5c86c>
    9ae8:	20666f65 	rsbcs	r6, r6, r5, ror #30
    9aec:	2d667562 	cfstr64cs	mvdx7, [r6, #-392]!	; 0xfffffe78
    9af0:	00000031 	andeq	r0, r0, r1, lsr r0

Disassembly of section .bss:

00009af4 <__bss_start__>:
	...

00009ef4 <console_uart>:
	...

Disassembly of section .ARM.attributes:

00000000 <.ARM.attributes>:
   0:	00002a41 	andeq	r2, r0, r1, asr #20
   4:	61656100 	cmnvs	r5, r0, lsl #2
   8:	01006962 	tsteq	r0, r2, ror #18
   c:	00000020 	andeq	r0, r0, r0, lsr #32
  10:	4b5a3605 	blmi	168d82c <__bss_end__+0x168392c>
  14:	08070600 	stmdaeq	r7, {r9, sl}
  18:	12010901 	andne	r0, r1, #16384	; 0x4000
  1c:	15011404 	strne	r1, [r1, #-1028]	; 0x404
  20:	18031701 	stmdane	r3, {r0, r8, r9, sl, ip}
  24:	22011a01 	andcs	r1, r1, #4096	; 0x1000
  28:	Address 0x0000000000000028 is out of bounds.


Disassembly of section .comment:

00000000 <.comment>:
   0:	3a434347 	bcc	10d0d24 <__bss_end__+0x10c6e24>
   4:	4e472820 	cdpmi	8, 4, cr2, cr7, cr0, {1}
   8:	34202955 	strtcc	r2, [r0], #-2389	; 0x955
   c:	332e382e 	teqcc	lr, #3014656	; 0x2e0000
	...

Disassembly of section .debug_info:

00000000 <.debug_info>:
       0:	0000016b 	andeq	r0, r0, fp, ror #2
       4:	00000004 	andeq	r0, r0, r4
       8:	01040000 	mrseq	r0, (UNDEF: 4)
       c:	000000f5 	strdeq	r0, [r0], -r5
      10:	00002d01 	andeq	r2, r0, r1, lsl #26
      14:	00007b00 	andeq	r7, r0, r0, lsl #22
      18:	00801000 	addeq	r1, r0, r0
      1c:	00003400 	andeq	r3, r0, r0, lsl #8
      20:	00000000 	andeq	r0, r0, r0
      24:	05040200 	streq	r0, [r4, #-512]	; 0x200
      28:	00746e69 	rsbseq	r6, r4, r9, ror #28
      2c:	3c070403 	cfstrscc	mvf0, [r7], {3}
      30:	03000000 	movweq	r0, #0
      34:	004b0601 	subeq	r0, fp, r1, lsl #12
      38:	02030000 	andeq	r0, r3, #0
      3c:	0000eb05 	andeq	lr, r0, r5, lsl #22
      40:	05040300 	streq	r0, [r4, #-768]	; 0x300
      44:	00000005 	andeq	r0, r0, r5
      48:	00050803 	andeq	r0, r5, r3, lsl #16
      4c:	03000000 	movweq	r0, #0
      50:	00490801 	subeq	r0, r9, r1, lsl #16
      54:	02030000 	andeq	r0, r3, #0
      58:	0000d807 	andeq	sp, r0, r7, lsl #16
      5c:	07040300 	streq	r0, [r4, -r0, lsl #6]
      60:	00000037 	andeq	r0, r0, r7, lsr r0
      64:	32070803 	andcc	r0, r7, #196608	; 0x30000
      68:	03000000 	movweq	r0, #0
      6c:	01600704 	cmneq	r0, r4, lsl #14
      70:	01030000 	mrseq	r0, (UNDEF: 3)
      74:	00005208 	andeq	r5, r0, r8, lsl #4
      78:	7f040400 	svcvc	0x00040400
      7c:	05000000 	streq	r0, [r0, #-0]
      80:	00000072 	andeq	r0, r0, r2, ror r0
      84:	00006106 	andeq	r6, r0, r6, lsl #2
      88:	10050100 	andne	r0, r5, r0, lsl #2
      8c:	34000080 	strcc	r0, [r0], #-128	; 0x80
      90:	01000000 	mrseq	r0, (UNDEF: 0)
      94:	0001339c 	muleq	r1, ip, r3
      98:	70750700 	rsbsvc	r0, r5, r0, lsl #14
      9c:	2c080100 	stfcss	f0, [r8], {-0}
      a0:	15000000 	strne	r0, [r0, #-0]
      a4:	00007608 	andeq	r7, r0, r8, lsl #12
      a8:	2c080100 	stfcss	f0, [r8], {-0}
      ac:	14000000 	strne	r0, [r0], #-0
      b0:	00001d09 	andeq	r1, r0, r9, lsl #26
      b4:	250c0100 	strcs	r0, [ip, #-256]	; 0x100
      b8:	c1000000 	mrsgt	r0, (UNDEF: 0)
      bc:	0a000000 	beq	c4 <_start-0x7f3c>
      c0:	00690900 	rsbeq	r0, r9, r0, lsl #18
      c4:	10010000 	andne	r0, r1, r0
      c8:	00000025 	andeq	r0, r0, r5, lsr #32
      cc:	000000d2 	ldrdeq	r0, [r0], -r2
      d0:	180b000a 	stmdane	fp, {r1, r3}
      d4:	08000080 	stmdaeq	r0, {r7}
      d8:	eb000000 	bl	e0 <_start-0x7f20>
      dc:	07000000 	streq	r0, [r0, -r0]
      e0:	01006e69 	tsteq	r0, r9, ror #28
      e4:	00002c07 	andeq	r2, r0, r7, lsl #24
      e8:	0c000100 	stfeqs	f0, [r0], {-0}
      ec:	00008018 	andeq	r8, r0, r8, lsl r0
      f0:	00000133 	andeq	r0, r0, r3, lsr r1
      f4:	0080280d 	addeq	r2, r0, sp, lsl #16
      f8:	00013a00 	andeq	r3, r1, r0, lsl #20
      fc:	00010700 	andeq	r0, r1, r0, lsl #14
     100:	50010e00 	andpl	r0, r1, r0, lsl #28
     104:	0d004501 	cfstr32eq	mvfx4, [r0, #-4]
     108:	00008030 	andeq	r8, r0, r0, lsr r0
     10c:	0000014b 	andeq	r0, r0, fp, asr #2
     110:	0000011a 	andeq	r0, r0, sl, lsl r1
     114:	0150010e 	cmpeq	r0, lr, lsl #2
     118:	3c0f0045 	stccc	0, cr0, [pc], {69}	; 0x45
     11c:	5c000080 	stcpl	0, cr0, [r0], {128}	; 0x80
     120:	0e000001 	cdpeq	0, 0, cr0, cr0, cr1, {0}
     124:	45015101 	strmi	r5, [r1, #-257]	; 0x101
     128:	0550010e 	ldrbeq	r0, [r0, #-270]	; 0x10e
     12c:	0097e803 	addseq	lr, r7, r3, lsl #16
     130:	10000000 	andne	r0, r0, r0
     134:	00000057 	andeq	r0, r0, r7, asr r0
     138:	0e113a03 	vnmlseq.f32	s6, s2, s6
     13c:	02000000 	andeq	r0, r0, #0
     140:	00014b1c 	andeq	r4, r1, ip, lsl fp
     144:	002c1200 	eoreq	r1, ip, r0, lsl #4
     148:	09000000 	stmdbeq	r0, {}	; <UNPREDICTABLE>
     14c:	0000001d 	andeq	r0, r0, sp, lsl r0
     150:	00250c01 	eoreq	r0, r5, r1, lsl #24
     154:	015c0000 	cmpeq	ip, r0
     158:	000a0000 	andeq	r0, sl, r0
     15c:	00025d13 	andeq	r5, r2, r3, lsl sp
     160:	25290300 	strcs	r0, [r9, #-768]!	; 0x300
     164:	12000000 	andne	r0, r0, #0
     168:	00000079 	andeq	r0, r0, r9, ror r0
     16c:	ad00000a 	stcge	0, cr0, [r0, #-40]	; 0xffffffd8
     170:	04000003 	streq	r0, [r0], #-3
     174:	00010200 	andeq	r0, r1, r0, lsl #4
     178:	f5010400 			; <UNDEFINED> instruction: 0xf5010400
     17c:	01000000 	mrseq	r0, (UNDEF: 0)
     180:	000001ba 			; <UNDEFINED> instruction: 0x000001ba
     184:	0000007b 	andeq	r0, r0, fp, ror r0
     188:	00008044 	andeq	r8, r0, r4, asr #32
     18c:	0000010c 	andeq	r0, r0, ip, lsl #2
     190:	000000dd 	ldrdeq	r0, [r0], -sp
     194:	69050402 	stmdbvs	r5, {r1, sl}
     198:	0300746e 	movweq	r7, #1134	; 0x46e
     19c:	003c0704 	eorseq	r0, ip, r4, lsl #14
     1a0:	01030000 	mrseq	r0, (UNDEF: 3)
     1a4:	00004b06 	andeq	r4, r0, r6, lsl #22
     1a8:	05020300 	streq	r0, [r2, #-768]	; 0x300
     1ac:	000000eb 	andeq	r0, r0, fp, ror #1
     1b0:	05050403 	streq	r0, [r5, #-1027]	; 0x403
     1b4:	03000000 	movweq	r0, #0
     1b8:	00000508 	andeq	r0, r0, r8, lsl #10
     1bc:	01030000 	mrseq	r0, (UNDEF: 3)
     1c0:	00004908 	andeq	r4, r0, r8, lsl #18
     1c4:	07020300 	streq	r0, [r2, -r0, lsl #6]
     1c8:	000000d8 	ldrdeq	r0, [r0], -r8
     1cc:	37070403 	strcc	r0, [r7, -r3, lsl #8]
     1d0:	03000000 	movweq	r0, #0
     1d4:	00320708 	eorseq	r0, r2, r8, lsl #14
     1d8:	04030000 	streq	r0, [r3], #-0
     1dc:	00016007 	andeq	r6, r1, r7
     1e0:	08010300 	stmdaeq	r1, {r8, r9}
     1e4:	00000052 	andeq	r0, r0, r2, asr r0
     1e8:	007f0404 	rsbseq	r0, pc, r4, lsl #8
     1ec:	72050000 	andvc	r0, r5, #0
     1f0:	06000000 	streq	r0, [r0], -r0
     1f4:	0000001d 	andeq	r0, r0, sp, lsl r0
     1f8:	80440901 	subhi	r0, r4, r1, lsl #18
     1fc:	00b40000 	adcseq	r0, r4, r0
     200:	9c010000 	stcls	0, cr0, [r1], {-0}
     204:	0000021d 	andeq	r0, r0, sp, lsl r2
     208:	6e697007 	cdpvs	0, 6, cr7, cr9, cr7, {0}
     20c:	2c090100 	stfcss	f0, [r9], {-0}
     210:	00000000 	andeq	r0, r0, r0
     214:	08000000 	stmdaeq	r0, {}	; <UNPREDICTABLE>
     218:	006c6176 	rsbeq	r6, ip, r6, ror r1
     21c:	002c0a01 	eoreq	r0, ip, r1, lsl #20
     220:	09020000 	stmdbeq	r2, {}	; <UNPREDICTABLE>
     224:	00000429 	andeq	r0, r0, r9, lsr #8
     228:	002c0d01 	eoreq	r0, ip, r1, lsl #26
     22c:	002c0000 	eoreq	r0, ip, r0
     230:	69090000 	stmdbvs	r9, {}	; <UNPREDICTABLE>
     234:	01000001 	tsteq	r0, r1
     238:	00021d10 	andeq	r1, r2, r0, lsl sp
     23c:	00006000 	andeq	r6, r0, r0
     240:	01a20a00 			; <UNDEFINED> instruction: 0x01a20a00
     244:	17010000 	strne	r0, [r1, -r0]
     248:	0000002c 	andeq	r0, r0, ip, lsr #32
     24c:	5c0b5501 	cfstr32pl	mvfx5, [fp], {1}
     250:	04000080 	streq	r0, [r0], #-128	; 0x80
     254:	fc000000 	stc2	0, cr0, [r0], {-0}
     258:	09000000 	stmdbeq	r0, {}	; <UNPREDICTABLE>
     25c:	000001c5 	andeq	r0, r0, r5, asr #3
     260:	002c0d01 	eoreq	r0, ip, r1, lsl #26
     264:	00960000 	addseq	r0, r6, r0
     268:	0b000000 	bleq	270 <_start-0x7d90>
     26c:	00008060 	andeq	r8, r0, r0, rrx
     270:	00000004 	andeq	r0, r0, r4
     274:	00000119 	andeq	r0, r0, r9, lsl r1
     278:	0001c509 	andeq	ip, r1, r9, lsl #10
     27c:	2c0e0100 	stfcss	f0, [lr], {-0}
     280:	a9000000 	stmdbge	r0, {}	; <UNPREDICTABLE>
     284:	00000000 	andeq	r0, r0, r0
     288:	0080980b 	addeq	r9, r0, fp, lsl #16
     28c:	00000400 	andeq	r0, r0, r0, lsl #8
     290:	00013600 	andeq	r3, r1, r0, lsl #12
     294:	01c50900 	biceq	r0, r5, r0, lsl #18
     298:	1a010000 	bne	402a0 <__bss_end__+0x363a0>
     29c:	0000002c 	andeq	r0, r0, ip, lsr #32
     2a0:	000000bc 	strheq	r0, [r0], -ip
     2a4:	809c0b00 	addshi	r0, ip, r0, lsl #22
     2a8:	00040000 	andeq	r0, r4, r0
     2ac:	01530000 	cmpeq	r3, r0
     2b0:	c5090000 	strgt	r0, [r9, #-0]
     2b4:	01000001 	tsteq	r0, r1
     2b8:	00002c1b 	andeq	r2, r0, fp, lsl ip
     2bc:	0000cf00 	andeq	ip, r0, r0, lsl #30
     2c0:	bc0b0000 	stclt	0, cr0, [fp], {-0}
     2c4:	04000080 	streq	r0, [r0], #-128	; 0x80
     2c8:	70000000 	andvc	r0, r0, r0
     2cc:	09000001 	stmdbeq	r0, {r0}
     2d0:	000001c5 	andeq	r0, r0, r5, asr #3
     2d4:	002c1f01 	eoreq	r1, ip, r1, lsl #30
     2d8:	00e20000 	rsceq	r0, r2, r0
     2dc:	0b000000 	bleq	2e4 <_start-0x7d1c>
     2e0:	000080c0 	andeq	r8, r0, r0, asr #1
     2e4:	00000004 	andeq	r0, r0, r4
     2e8:	0000018d 	andeq	r0, r0, sp, lsl #3
     2ec:	0001c509 	andeq	ip, r1, r9, lsl #10
     2f0:	2c200100 	stfcss	f0, [r0], #-0
     2f4:	f5000000 			; <UNDEFINED> instruction: 0xf5000000
     2f8:	00000000 	andeq	r0, r0, r0
     2fc:	0080dc0b 	addeq	sp, r0, fp, lsl #24
     300:	00000400 	andeq	r0, r0, r0, lsl #8
     304:	0001a800 	andeq	sl, r1, r0, lsl #16
     308:	01c50a00 	biceq	r0, r5, r0, lsl #20
     30c:	24010000 	strcs	r0, [r1], #-0
     310:	0000002c 	andeq	r0, r0, ip, lsr #32
     314:	0b005201 	bleq	14b20 <__bss_end__+0xac20>
     318:	000080e0 	andeq	r8, r0, r0, ror #1
     31c:	00000004 	andeq	r0, r0, r4
     320:	000001c5 	andeq	r0, r0, r5, asr #3
     324:	0001c509 	andeq	ip, r1, r9, lsl #10
     328:	2c250100 	stfcss	f0, [r5], #-0
     32c:	08000000 	stmdaeq	r0, {}	; <UNPREDICTABLE>
     330:	00000001 	andeq	r0, r0, r1
     334:	00805c0c 	addeq	r5, r0, ip, lsl #24
     338:	00036f00 	andeq	r6, r3, r0, lsl #30
     33c:	0001d800 	andeq	sp, r1, r0, lsl #16
     340:	51010d00 	tstpl	r1, r0, lsl #26
     344:	0c003201 	sfmeq	f3, 4, [r0], {1}
     348:	00008098 	muleq	r0, r8, r0
     34c:	0000036f 	andeq	r0, r0, pc, ror #6
     350:	000001f4 	strdeq	r0, [r0], -r4
     354:	0451010d 	ldrbeq	r0, [r1], #-269	; 0x10d
     358:	24007531 	strcs	r7, [r0], #-1329	; 0x531
     35c:	0250010d 	subseq	r0, r0, #1073741827	; 0x40000003
     360:	0c000074 	stceq	0, cr0, [r0], {116}	; 0x74
     364:	000080bc 	strheq	r8, [r0], -ip
     368:	0000036f 	andeq	r0, r0, pc, ror #6
     36c:	00000207 	andeq	r0, r0, r7, lsl #4
     370:	0151010d 	cmpeq	r1, sp, lsl #2
     374:	dc0e0030 	stcle	0, cr0, [lr], {48}	; 0x30
     378:	6f000080 	svcvs	0x00000080
     37c:	0d000003 	stceq	0, cr0, [r0, #-12]
     380:	30015101 	andcc	r5, r1, r1, lsl #2
     384:	0250010d 	subseq	r0, r0, #1073741827	; 0x40000003
     388:	00000074 	andeq	r0, r0, r4, ror r0
     38c:	02230404 	eoreq	r0, r3, #4, 8	; 0x4000000
     390:	2c0f0000 	stccs	0, cr0, [pc], {-0}
     394:	06000000 	streq	r0, [r0], -r0
     398:	00000069 	andeq	r0, r0, r9, rrx
     39c:	80f82701 	rscshi	r2, r8, r1, lsl #14
     3a0:	002c0000 	eoreq	r0, ip, r0
     3a4:	9c010000 	stcls	0, cr0, [r1], {-0}
     3a8:	0000029d 	muleq	r0, sp, r2
     3ac:	6e697007 	cdpvs	0, 6, cr7, cr9, cr7, {0}
     3b0:	2c270100 	stfcss	f0, [r7], #-0
     3b4:	1b000000 	blne	3bc <_start-0x7c44>
     3b8:	10000001 	andne	r0, r0, r1
     3bc:	000001ad 	andeq	r0, r0, sp, lsr #3
     3c0:	000002ad 	andeq	r0, r0, sp, lsr #5
     3c4:	985c0305 	ldmdals	ip, {r0, r2, r8, r9}^
     3c8:	00110000 	andseq	r0, r1, r0
     3cc:	8c000081 	stchi	0, cr0, [r0], {129}	; 0x81
     3d0:	0c000003 	stceq	0, cr0, [r0], {3}
     3d4:	00008114 	andeq	r8, r0, r4, lsl r1
     3d8:	00000393 	muleq	r0, r3, r3
     3dc:	00000293 	muleq	r0, r3, r2
     3e0:	0253010d 	subseq	r0, r3, #1073741827	; 0x40000003
     3e4:	010d2708 	tsteq	sp, r8, lsl #14
     3e8:	5c030552 	cfstr32pl	mvfx0, [r3], {82}	; 0x52
     3ec:	0d000098 	stceq	0, cr0, [r0, #-608]	; 0xfffffda0
     3f0:	03055101 	movweq	r5, #20737	; 0x5101
     3f4:	000098ac 	andeq	r9, r0, ip, lsr #17
     3f8:	0550010d 	ldrbeq	r0, [r0, #-269]	; 0x10d
     3fc:	00988003 	addseq	r8, r8, r3
     400:	18110000 	ldmdane	r1, {}	; <UNPREDICTABLE>
     404:	a9000081 	stmdbge	r0, {r0, r7}
     408:	00000003 	andeq	r0, r0, r3
     40c:	00007212 	andeq	r7, r0, r2, lsl r2
     410:	0002ad00 	andeq	sl, r2, r0, lsl #26
     414:	006b1300 	rsbeq	r1, fp, r0, lsl #6
     418:	00110000 	andseq	r0, r1, r0
     41c:	00029d05 	andeq	r9, r2, r5, lsl #26
     420:	01ca0600 	biceq	r0, sl, r0, lsl #12
     424:	28010000 	stmdacs	r1, {}	; <UNPREDICTABLE>
     428:	00008124 	andeq	r8, r0, r4, lsr #2
     42c:	0000002c 	andeq	r0, r0, ip, lsr #32
     430:	03279c01 	teqeq	r7, #256	; 0x100
     434:	70070000 	andvc	r0, r7, r0
     438:	01006e69 	tsteq	r0, r9, ror #28
     43c:	00002c28 	andeq	r2, r0, r8, lsr #24
     440:	00013c00 	andeq	r3, r1, r0, lsl #24
     444:	01ad1000 			; <UNDEFINED> instruction: 0x01ad1000
     448:	03370000 	teqeq	r7, #0
     44c:	03050000 	movweq	r0, #20480	; 0x5000
     450:	00009870 	andeq	r9, r0, r0, ror r8
     454:	00812c11 	addeq	r2, r1, r1, lsl ip
     458:	00038c00 	andeq	r8, r3, r0, lsl #24
     45c:	81400c00 	cmphi	r0, r0, lsl #24
     460:	03930000 	orrseq	r0, r3, #0
     464:	031d0000 	tsteq	sp, #0
     468:	010d0000 	mrseq	r0, (UNDEF: 13)
     46c:	28080253 	stmdacs	r8, {r0, r1, r4, r6, r9}
     470:	0552010d 	ldrbeq	r0, [r2, #-269]	; 0x10d
     474:	00987003 	addseq	r7, r8, r3
     478:	51010d00 	tstpl	r1, r0, lsl #26
     47c:	98ac0305 	stmials	ip!, {r0, r2, r8, r9}
     480:	010d0000 	mrseq	r0, (UNDEF: 13)
     484:	80030550 	andhi	r0, r3, r0, asr r5
     488:	00000098 	muleq	r0, r8, r0
     48c:	00814411 	addeq	r4, r1, r1, lsl r4
     490:	0003a900 	andeq	sl, r3, r0, lsl #18
     494:	72120000 	andsvc	r0, r2, #0
     498:	37000000 	strcc	r0, [r0, -r0]
     49c:	13000003 	movwne	r0, #3
     4a0:	0000006b 	andeq	r0, r0, fp, rrx
     4a4:	2705000c 	strcs	r0, [r5, -ip]
     4a8:	14000003 	strne	r0, [r0], #-3
     4ac:	00000189 	andeq	r0, r0, r9, lsl #3
     4b0:	021d0501 	andseq	r0, sp, #4194304	; 0x400000
     4b4:	03050000 	movweq	r0, #20480	; 0x5000
     4b8:	00009740 	andeq	r9, r0, r0, asr #14
     4bc:	00017514 	andeq	r7, r1, r4, lsl r5
     4c0:	1d060100 	stfnes	f0, [r6, #-0]
     4c4:	05000002 	streq	r0, [r0, #-2]
     4c8:	00974403 	addseq	r4, r7, r3, lsl #8
     4cc:	017f1400 	cmneq	pc, r0, lsl #8
     4d0:	07010000 	streq	r0, [r1, -r0]
     4d4:	0000021d 	andeq	r0, r0, sp, lsl r2
     4d8:	97480305 	strbls	r0, [r8, -r5, lsl #6]
     4dc:	9c150000 	ldcls	0, cr0, [r5], {-0}
     4e0:	02000001 	andeq	r0, r0, #1
     4e4:	0003859d 	muleq	r3, sp, r5
     4e8:	03851600 	orreq	r1, r5, #0, 12
     4ec:	2c160000 	ldccs	0, cr0, [r6], {-0}
     4f0:	00000000 	andeq	r0, r0, r0
     4f4:	038b0404 	orreq	r0, fp, #4, 8	; 0x4000000
     4f8:	18170000 	ldmdane	r7, {}	; <UNPREDICTABLE>
     4fc:	000001d7 	ldrdeq	r0, [r0], -r7
     500:	5d191e02 	ldcpl	14, cr1, [r9, #-8]
     504:	02000002 	andeq	r0, r0, #2
     508:	00002529 	andeq	r2, r0, r9, lsr #10
     50c:	0003a900 	andeq	sl, r3, r0, lsl #18
     510:	00791600 	rsbseq	r1, r9, r0, lsl #12
     514:	001a0000 	andseq	r0, sl, r0
     518:	00018f18 	andeq	r8, r1, r8, lsl pc
     51c:	00660200 	rsbeq	r0, r6, r0, lsl #4
     520:	00000191 	muleq	r0, r1, r1
     524:	024d0004 	subeq	r0, sp, #4
     528:	01040000 	mrseq	r0, (UNDEF: 4)
     52c:	00000203 	andeq	r0, r0, r3, lsl #4
     530:	0001f501 	andeq	pc, r1, r1, lsl #10
     534:	00026e00 	andeq	r6, r2, r0, lsl #28
     538:	00815000 	addeq	r5, r1, r0
     53c:	00005800 	andeq	r5, r0, r0, lsl #16
     540:	00018800 	andeq	r8, r1, r0, lsl #16
     544:	01e60200 	mvneq	r0, r0, lsl #4
     548:	28020000 	stmdacs	r2, {}	; <UNPREDICTABLE>
     54c:	00000030 	andeq	r0, r0, r0, lsr r0
     550:	00026403 	andeq	r6, r2, r3, lsl #8
     554:	00030400 	andeq	r0, r3, r0, lsl #8
     558:	00000047 	andeq	r0, r0, r7, asr #32
     55c:	0002b704 	andeq	fp, r2, r4, lsl #14
     560:	00004700 	andeq	r4, r0, r0, lsl #14
     564:	05000000 	streq	r0, [r0, #-0]
     568:	02660204 	rsbeq	r0, r6, #4, 4	; 0x40000000
     56c:	62020000 	andvs	r0, r2, #0
     570:	00000025 	andeq	r0, r0, r5, lsr #32
     574:	69050406 	stmdbvs	r5, {r1, r2, sl}
     578:	0700746e 	streq	r7, [r0, -lr, ror #8]
     57c:	003c0704 	eorseq	r0, ip, r4, lsl #14
     580:	01070000 	mrseq	r0, (UNDEF: 7)
     584:	00004b06 	andeq	r4, r0, r6, lsl #22
     588:	05020700 	streq	r0, [r2, #-1792]	; 0x700
     58c:	000000eb 	andeq	r0, r0, fp, ror #1
     590:	05050407 	streq	r0, [r5, #-1031]	; 0x407
     594:	07000000 	streq	r0, [r0, -r0]
     598:	00000508 	andeq	r0, r0, r8, lsl #10
     59c:	01070000 	mrseq	r0, (UNDEF: 7)
     5a0:	00004908 	andeq	r4, r0, r8, lsl #18
     5a4:	07020700 	streq	r0, [r2, -r0, lsl #14]
     5a8:	000000d8 	ldrdeq	r0, [r0], -r8
     5ac:	37070407 	strcc	r0, [r7, -r7, lsl #8]
     5b0:	07000000 	streq	r0, [r0, -r0]
     5b4:	00320708 	eorseq	r0, r2, r8, lsl #14
     5b8:	04070000 	streq	r0, [r7], #-0
     5bc:	00016007 	andeq	r6, r1, r7
     5c0:	a7040800 	strge	r0, [r4, -r0, lsl #16]
     5c4:	07000000 	streq	r0, [r0, -r0]
     5c8:	00520801 	subseq	r0, r2, r1, lsl #16
     5cc:	04080000 	streq	r0, [r8], #-0
     5d0:	000000b4 	strheq	r0, [r0], -r4
     5d4:	0000a709 	andeq	sl, r0, r9, lsl #14
     5d8:	025d0a00 	subseq	r0, sp, #0, 20
     5dc:	06010000 	streq	r0, [r1], -r0
     5e0:	00000054 	andeq	r0, r0, r4, asr r0
     5e4:	00008150 	andeq	r8, r0, r0, asr r1
     5e8:	00000058 	andeq	r0, r0, r8, asr r0
     5ec:	01439c01 	cmpeq	r3, r1, lsl #24
     5f0:	660b0000 	strvs	r0, [fp], -r0
     5f4:	0100746d 	tsteq	r0, sp, ror #8
     5f8:	0000ae06 	andeq	sl, r0, r6, lsl #28
     5fc:	70910200 	addsvc	r0, r1, r0, lsl #4
     600:	75620d0c 	strbvc	r0, [r2, #-3340]!	; 0xd0c
     604:	08010066 	stmdaeq	r1, {r1, r2, r5, r6}
     608:	00000143 	andeq	r0, r0, r3, asr #2
     60c:	9af40305 	bls	ffd01228 <__bss_end__+0xffcf7328>
     610:	b20e0000 	andlt	r0, lr, #0
     614:	01000002 	tsteq	r0, r2
     618:	00004909 	andeq	r4, r0, r9, lsl #18
     61c:	5c910200 	lfmpl	f0, 4, [r1], {0}
     620:	007a730f 	rsbseq	r7, sl, pc, lsl #6
     624:	00540c01 	subseq	r0, r4, r1, lsl #24
     628:	015d0000 	cmpeq	sp, r0
     62c:	78100000 	ldmdavc	r0, {}	; <UNPREDICTABLE>
     630:	74000081 	strvc	r0, [r0], #-129	; 0x81
     634:	36000001 	strcc	r0, [r0], -r1
     638:	11000001 	tstne	r0, r1
     63c:	91025301 	tstls	r2, r1, lsl #6
     640:	5201114c 	andpl	r1, r1, #76, 2
     644:	06489103 	strbeq	r9, [r8], -r3, lsl #2
     648:	03510111 	cmpeq	r1, #1073741828	; 0x40000004
     64c:	1104000a 	tstne	r4, sl
     650:	74025001 	strvc	r5, [r2], #-1
     654:	8c120000 	ldchi	0, cr0, [r2], {-0}
     658:	11000081 	smlabbne	r0, r1, r0, r0
     65c:	74025001 	strvc	r5, [r2], #-1
     660:	13000000 	movwne	r0, #0
     664:	000000a7 	andeq	r0, r0, r7, lsr #1
     668:	00000154 	andeq	r0, r0, r4, asr r1
     66c:	00009a14 	andeq	r9, r0, r4, lsl sl
     670:	0003ff00 	andeq	pc, r3, r0, lsl #30
     674:	00005415 	andeq	r5, r0, r5, lsl r4
     678:	00016300 	andeq	r6, r1, r0, lsl #6
     67c:	00ae1600 	adceq	r1, lr, r0, lsl #12
     680:	17000000 	strne	r0, [r0, -r0]
     684:	0000030a 	andeq	r0, r0, sl, lsl #6
     688:	016e2204 	cmneq	lr, r4, lsl #4
     68c:	04080000 	streq	r0, [r8], #-0
     690:	00000154 	andeq	r0, r0, r4, asr r1
     694:	00025a18 	andeq	r5, r2, r8, lsl sl
     698:	54020500 	strpl	r0, [r2], #-1280	; 0x500
     69c:	16000000 	strne	r0, [r0], -r0
     6a0:	000000a1 	andeq	r0, r0, r1, lsr #1
     6a4:	00005416 	andeq	r5, r0, r6, lsl r4
     6a8:	00ae1600 	adceq	r1, lr, r0, lsl #12
     6ac:	49160000 	ldmdbmi	r6, {}	; <UNPREDICTABLE>
     6b0:	00000000 	andeq	r0, r0, r0
     6b4:	00011300 	andeq	r1, r1, r0, lsl #6
     6b8:	7e000400 	cfcpysvc	mvf0, mvf0
     6bc:	04000003 	streq	r0, [r0], #-3
     6c0:	00020301 	andeq	r0, r2, r1, lsl #6
     6c4:	02d90100 	sbcseq	r0, r9, #0, 2
     6c8:	026e0000 	rsbeq	r0, lr, #0
     6cc:	81a80000 			; <UNDEFINED> instruction: 0x81a80000
     6d0:	003c0000 	eorseq	r0, ip, r0
     6d4:	028e0000 	addeq	r0, lr, #0
     6d8:	04020000 	streq	r0, [r2], #-0
     6dc:	746e6905 	strbtvc	r6, [lr], #-2309	; 0x905
     6e0:	07040300 	streq	r0, [r4, -r0, lsl #6]
     6e4:	0000003c 	andeq	r0, r0, ip, lsr r0
     6e8:	4b060103 	blmi	180afc <__bss_end__+0x176bfc>
     6ec:	03000000 	movweq	r0, #0
     6f0:	00eb0502 	rsceq	r0, fp, r2, lsl #10
     6f4:	04030000 	streq	r0, [r3], #-0
     6f8:	00000505 	andeq	r0, r0, r5, lsl #10
     6fc:	05080300 	streq	r0, [r8, #-768]	; 0x300
     700:	00000000 	andeq	r0, r0, r0
     704:	49080103 	stmdbmi	r8, {r0, r1, r8}
     708:	03000000 	movweq	r0, #0
     70c:	00d80702 	sbcseq	r0, r8, r2, lsl #14
     710:	04030000 	streq	r0, [r3], #-0
     714:	00003707 	andeq	r3, r0, r7, lsl #14
     718:	07080300 	streq	r0, [r8, -r0, lsl #6]
     71c:	00000032 	andeq	r0, r0, r2, lsr r0
     720:	60070403 	andvs	r0, r7, r3, lsl #8
     724:	03000001 	movweq	r0, #1
     728:	00520801 	subseq	r0, r2, r1, lsl #16
     72c:	bc040000 	stclt	0, cr0, [r4], {-0}
     730:	01000002 	tsteq	r0, r2
     734:	00002503 	andeq	r2, r0, r3, lsl #10
     738:	0081a800 	addeq	sl, r1, r0, lsl #16
     73c:	00001400 	andeq	r1, r0, r0, lsl #8
     740:	b09c0100 	addslt	r0, ip, r0, lsl #2
     744:	05000000 	streq	r0, [r0, #-0]
     748:	03010063 	movweq	r0, #4195	; 0x1063
     74c:	00000025 	andeq	r0, r0, r5, lsr #32
     750:	00000186 	andeq	r0, r0, r6, lsl #3
     754:	0081b406 	addeq	fp, r1, r6, lsl #8
     758:	00010900 	andeq	r0, r1, r0, lsl #18
     75c:	50010700 	andpl	r0, r1, r0, lsl #14
     760:	00007402 	andeq	r7, r0, r2, lsl #8
     764:	01d70800 	bicseq	r0, r7, r0, lsl #16
     768:	08010000 	stmdaeq	r1, {}	; <UNPREDICTABLE>
     76c:	000081bc 			; <UNDEFINED> instruction: 0x000081bc
     770:	00000018 	andeq	r0, r0, r8, lsl r0
     774:	e8099c01 	stmda	r9, {r0, sl, fp, ip, pc}
     778:	01000002 	tsteq	r0, r2
     77c:	0081d40b 	addeq	sp, r1, fp, lsl #8
     780:	00001000 	andeq	r1, r0, r0
     784:	e39c0100 	orrs	r0, ip, #0, 2
     788:	0a000000 	beq	790 <_start-0x7870>
     78c:	01007066 	tsteq	r0, r6, rrx
     790:	0000f20b 	andeq	pc, r0, fp, lsl #4
     794:	00500100 	subseq	r0, r0, r0, lsl #2
     798:	0000250b 	andeq	r2, r0, fp, lsl #10
     79c:	0000f200 	andeq	pc, r0, r0, lsl #4
     7a0:	00250c00 	eoreq	r0, r5, r0, lsl #24
     7a4:	0d000000 	stceq	0, cr0, [r0, #-0]
     7a8:	0000e304 	andeq	lr, r0, r4, lsl #6
     7ac:	02cd0e00 	sbceq	r0, sp, #0, 28
     7b0:	06010000 	streq	r0, [r1], -r0
     7b4:	000000f2 	strdeq	r0, [r0], -r2
     7b8:	974c0305 	strbls	r0, [ip, -r5, lsl #6]
     7bc:	3d0f0000 	stccc	0, cr0, [pc, #-0]	; 7c4 <_start-0x783c>
     7c0:	02000004 	andeq	r0, r0, #4
     7c4:	002c0c3c 	eoreq	r0, ip, ip, lsr ip
     7c8:	00000000 	andeq	r0, r0, r0
     7cc:	000000ee 	andeq	r0, r0, lr, ror #1
     7d0:	04660004 	strbteq	r0, [r6], #-4
     7d4:	01040000 	mrseq	r0, (UNDEF: 4)
     7d8:	00000203 	andeq	r0, r0, r3, lsl #4
     7dc:	0002f501 	andeq	pc, r2, r1, lsl #10
     7e0:	00026e00 	andeq	r6, r2, r0, lsl #28
     7e4:	0081e400 	addeq	lr, r1, r0, lsl #8
     7e8:	00003400 	andeq	r3, r0, r0, lsl #8
     7ec:	00031c00 	andeq	r1, r3, r0, lsl #24
     7f0:	05040200 	streq	r0, [r4, #-512]	; 0x200
     7f4:	00746e69 	rsbseq	r6, r4, r9, ror #28
     7f8:	3c070403 	cfstrscc	mvf0, [r7], {3}
     7fc:	03000000 	movweq	r0, #0
     800:	004b0601 	subeq	r0, fp, r1, lsl #12
     804:	02030000 	andeq	r0, r3, #0
     808:	0000eb05 	andeq	lr, r0, r5, lsl #22
     80c:	05040300 	streq	r0, [r4, #-768]	; 0x300
     810:	00000005 	andeq	r0, r0, r5
     814:	00050803 	andeq	r0, r5, r3, lsl #16
     818:	03000000 	movweq	r0, #0
     81c:	00490801 	subeq	r0, r9, r1, lsl #16
     820:	02030000 	andeq	r0, r3, #0
     824:	0000d807 	andeq	sp, r0, r7, lsl #16
     828:	07040300 	streq	r0, [r4, -r0, lsl #6]
     82c:	00000037 	andeq	r0, r0, r7, lsr r0
     830:	32070803 	andcc	r0, r7, #196608	; 0x30000
     834:	03000000 	movweq	r0, #0
     838:	01600704 	cmneq	r0, r4, lsl #14
     83c:	01030000 	mrseq	r0, (UNDEF: 3)
     840:	00005208 	andeq	r5, r0, r8, lsl #4
     844:	7f040400 	svcvc	0x00040400
     848:	05000000 	streq	r0, [r0, #-0]
     84c:	00000072 	andeq	r0, r0, r2, ror r0
     850:	00030106 	andeq	r0, r3, r6, lsl #2
     854:	25040100 	strcs	r0, [r4, #-256]	; 0x100
     858:	e4000000 	str	r0, [r0], #-0
     85c:	34000081 	strcc	r0, [r0], #-129	; 0x81
     860:	01000000 	mrseq	r0, (UNDEF: 0)
     864:	0000ab9c 	muleq	r0, ip, fp
     868:	00700700 	rsbseq	r0, r0, r0, lsl #14
     86c:	00790401 	rsbseq	r0, r9, r1, lsl #8
     870:	01a40000 			; <UNDEFINED> instruction: 0x01a40000
     874:	08000000 	stmdaeq	r0, {}	; <UNPREDICTABLE>
     878:	00000025 	andeq	r0, r0, r5, lsr #32
     87c:	000000ba 	strheq	r0, [r0], -sl
     880:	00002509 	andeq	r2, r0, r9, lsl #10
     884:	cd0a0000 	stcgt	0, cr0, [sl, #-0]
     888:	02000002 	andeq	r0, r0, #2
     88c:	0000c51d 	andeq	ip, r0, sp, lsl r5
     890:	ab040400 	blge	101898 <__bss_end__+0xf7998>
     894:	08000000 	stmdaeq	r0, {}	; <UNPREDICTABLE>
     898:	00000025 	andeq	r0, r0, r5, lsr #32
     89c:	000000da 	ldrdeq	r0, [r0], -sl
     8a0:	00007909 	andeq	r7, r0, r9, lsl #18
     8a4:	0a0b0000 	beq	2c08ac <__bss_end__+0x2b69ac>
     8a8:	01000003 	tsteq	r0, r3
     8ac:	0000eb0c 	andeq	lr, r0, ip, lsl #22
     8b0:	50030500 	andpl	r0, r3, r0, lsl #10
     8b4:	04000097 	streq	r0, [r0], #-151	; 0x97
     8b8:	0000cb04 	andeq	ip, r0, r4, lsl #22
     8bc:	06a10000 	strteq	r0, [r1], r0
     8c0:	00040000 	andeq	r0, r4, r0
     8c4:	000004ff 	strdeq	r0, [r0], -pc	; <UNPREDICTABLE>
     8c8:	02030104 	andeq	r0, r3, #4, 2
     8cc:	3b010000 	blcc	408d4 <__bss_end__+0x369d4>
     8d0:	6e000003 	cdpvs	0, 0, cr0, cr0, cr3, {0}
     8d4:	18000002 	stmdane	r0, {r1}
     8d8:	24000082 	strcs	r0, [r0], #-130	; 0x82
     8dc:	b6000005 	strlt	r0, [r0], -r5
     8e0:	02000003 	andeq	r0, r0, #3
     8e4:	6e690504 	cdpvs	5, 6, cr0, cr9, cr4, {0}
     8e8:	04030074 	streq	r0, [r3], #-116	; 0x74
     8ec:	00003c07 	andeq	r3, r0, r7, lsl #24
     8f0:	06010300 	streq	r0, [r1], -r0, lsl #6
     8f4:	0000004b 	andeq	r0, r0, fp, asr #32
     8f8:	eb050203 	bl	14110c <__bss_end__+0x13720c>
     8fc:	03000000 	movweq	r0, #0
     900:	00050504 	andeq	r0, r5, r4, lsl #10
     904:	08030000 	stmdaeq	r3, {}	; <UNPREDICTABLE>
     908:	00000005 	andeq	r0, r0, r5
     90c:	08010300 	stmdaeq	r1, {r8, r9}
     910:	00000049 	andeq	r0, r0, r9, asr #32
     914:	d8070203 	stmdale	r7, {r0, r1, r9}
     918:	03000000 	movweq	r0, #0
     91c:	00370704 	eorseq	r0, r7, r4, lsl #14
     920:	08030000 	stmdaeq	r3, {}	; <UNPREDICTABLE>
     924:	00003207 	andeq	r3, r0, r7, lsl #4
     928:	07040300 	streq	r0, [r4, -r0, lsl #6]
     92c:	00000160 	andeq	r0, r0, r0, ror #2
     930:	04050404 	streq	r0, [r5], #-1028	; 0x404
     934:	0000007a 	andeq	r0, r0, sl, ror r0
     938:	52080103 	andpl	r0, r8, #-1073741824	; 0xc0000000
     93c:	05000000 	streq	r0, [r0, #-0]
     940:	00008704 	andeq	r8, r0, r4, lsl #14
     944:	007a0600 	rsbseq	r0, sl, r0, lsl #12
     948:	e6070000 	str	r0, [r7], -r0
     94c:	02000001 	andeq	r0, r0, #1
     950:	00009728 	andeq	r9, r0, r8, lsr #14
     954:	02640800 	rsbeq	r0, r4, #0, 16
     958:	04040000 	streq	r0, [r4], #-0
     95c:	0000ae00 	andeq	sl, r0, r0, lsl #28
     960:	02b70900 	adcseq	r0, r7, #0, 18
     964:	00720000 	rsbseq	r0, r2, r0
     968:	00000000 	andeq	r0, r0, r0
     96c:	00026607 	andeq	r6, r2, r7, lsl #12
     970:	8c620200 	sfmhi	f0, 2, [r2], #-0
     974:	0a000000 	beq	97c <_start-0x7684>
     978:	0000031d 	andeq	r0, r0, sp, lsl r3
     97c:	00252701 	eoreq	r2, r5, r1, lsl #14
     980:	82180000 	andshi	r0, r8, #0
     984:	00140000 	andseq	r0, r4, r0
     988:	9c010000 	stcls	0, cr0, [r1], {-0}
     98c:	000000e0 	andeq	r0, r0, r0, ror #1
     990:	0100630b 	tsteq	r0, fp, lsl #6
     994:	00002527 	andeq	r2, r0, r7, lsr #10
     998:	0001c200 	andeq	ip, r1, r0, lsl #4
     99c:	700c0000 	andvc	r0, ip, r0
     9a0:	01006461 	tsteq	r0, r1, ror #8
     9a4:	0000742e 	andeq	r7, r0, lr, lsr #8
     9a8:	00822c00 	addeq	r2, r2, r0, lsl #24
     9ac:	00002c00 	andeq	r2, r0, r0, lsl #24
     9b0:	309c0100 	addscc	r0, ip, r0, lsl #2
     9b4:	0b000001 	bleq	9c0 <_start-0x7640>
     9b8:	2e010070 	mcrcs	0, 0, r0, cr1, cr0, {3}
     9bc:	00000074 	andeq	r0, r0, r4, ror r0
     9c0:	000001f0 	strdeq	r0, [r0], -r0	; <UNPREDICTABLE>
     9c4:	00032d0d 	andeq	r2, r3, sp, lsl #26
     9c8:	742e0100 	strtvc	r0, [lr], #-256	; 0x100
     9cc:	1b000000 	blne	9d4 <_start-0x762c>
     9d0:	0e000002 	cdpeq	0, 0, cr0, cr0, cr2, {0}
     9d4:	0000035b 	andeq	r0, r0, fp, asr r3
     9d8:	00252e01 	eoreq	r2, r5, r1, lsl #28
     9dc:	52010000 	andpl	r0, r1, #0
     9e0:	6e656c0f 	cdpvs	12, 6, cr6, cr5, cr15, {0}
     9e4:	252f0100 	strcs	r0, [pc, #-256]!	; 8ec <_start-0x7714>
     9e8:	01000000 	mrseq	r0, (UNDEF: 0)
     9ec:	150a0051 	strne	r0, [sl, #-81]	; 0x51
     9f0:	01000003 	tsteq	r0, r3
     9f4:	00007437 	andeq	r7, r0, r7, lsr r4
     9f8:	00825800 	addeq	r5, r2, r0, lsl #16
     9fc:	00004000 	andeq	r4, r0, r0
     a00:	9c9c0100 	ldflss	f0, [ip], {0}
     a04:	0b000001 	bleq	a10 <_start-0x75f0>
     a08:	00747364 	rsbseq	r7, r4, r4, ror #6
     a0c:	00743701 	rsbseq	r3, r4, r1, lsl #14
     a10:	023c0000 	eorseq	r0, ip, #0
     a14:	6e0b0000 	cdpvs	0, 0, cr0, cr11, cr0, {0}
     a18:	25370100 	ldrcs	r0, [r7, #-256]!	; 0x100
     a1c:	74000000 	strvc	r0, [r0], #-0
     a20:	0b000002 	bleq	a30 <_start-0x75d0>
     a24:	37010070 	smlsdxcc	r1, r0, r0, r0
     a28:	00000074 	andeq	r0, r0, r4, ror r0
     a2c:	00000295 	muleq	r0, r5, r2
     a30:	0004290d 	andeq	r2, r4, sp, lsl #18
     a34:	74370100 	ldrtvc	r0, [r7], #-256	; 0x100
     a38:	cb000000 	blgt	a40 <_start-0x75c0>
     a3c:	10000002 	andne	r0, r0, r2
     a40:	006e656c 	rsbeq	r6, lr, ip, ror #10
     a44:	00253901 	eoreq	r3, r5, r1, lsl #18
     a48:	02e90000 	rsceq	r0, r9, #0
     a4c:	730f0000 	movwvc	r0, #61440	; 0xf000
     a50:	743d0100 	ldrtvc	r0, [sp], #-256	; 0x100
     a54:	01000000 	mrseq	r0, (UNDEF: 0)
     a58:	690a0050 	stmdbvs	sl, {r4, r6}
     a5c:	01000003 	tsteq	r0, r3
     a60:	00007447 	andeq	r7, r0, r7, asr #8
     a64:	00829800 	addeq	r9, r2, r0, lsl #16
     a68:	0001a800 	andeq	sl, r1, r0, lsl #16
     a6c:	df9c0100 	svcle	0x009c0100
     a70:	0d000002 	stceq	0, cr0, [r0, #-8]
     a74:	0000032d 	andeq	r0, r0, sp, lsr #6
     a78:	002c4701 	eoreq	r4, ip, r1, lsl #14
     a7c:	03100000 	tsteq	r0, #0
     a80:	640b0000 	strvs	r0, [fp], #-0
     a84:	01007473 	tsteq	r0, r3, ror r4
     a88:	00007447 	andeq	r7, r0, r7, asr #8
     a8c:	00033e00 	andeq	r3, r3, r0, lsl #28
     a90:	006e0b00 	rsbeq	r0, lr, r0, lsl #22
     a94:	00254701 	eoreq	r4, r5, r1, lsl #14
     a98:	03ac0000 			; <UNDEFINED> instruction: 0x03ac0000
     a9c:	760b0000 	strvc	r0, [fp], -r0
     aa0:	01006c61 	tsteq	r0, r1, ror #24
     aa4:	00002547 	andeq	r2, r0, r7, asr #10
     aa8:	0003d800 	andeq	sp, r3, r0, lsl #16
     aac:	035b0d00 	cmpeq	fp, #0, 26
     ab0:	47010000 	strmi	r0, [r1, -r0]
     ab4:	00000025 	andeq	r0, r0, r5, lsr #32
     ab8:	00000457 	andeq	r0, r0, r7, asr r4
     abc:	0003320e 	andeq	r3, r3, lr, lsl #4
     ac0:	25470100 	strbcs	r0, [r7, #-256]	; 0x100
     ac4:	02000000 	andeq	r0, r0, #0
     ac8:	620f0491 	andvs	r0, pc, #-1862270976	; 0x91000000
     acc:	01006675 	tsteq	r0, r5, ror r6
     ad0:	0002df4c 	andeq	sp, r2, ip, asr #30
     ad4:	a8910300 	ldmge	r1, {r8, r9}
     ad8:	0070107f 	rsbseq	r1, r0, pc, ror r0
     adc:	00744c01 	rsbseq	r4, r4, r1, lsl #24
     ae0:	04810000 	streq	r0, [r1], #0
     ae4:	75100000 	ldrvc	r0, [r0, #-0]
     ae8:	2c4d0100 	stfcse	f0, [sp], {-0}
     aec:	3d000000 	stccc	0, cr0, [r0, #-0]
     af0:	11000005 	tstne	r0, r5
     af4:	000001ad 	andeq	r0, r0, sp, lsr #3
     af8:	000002ff 	strdeq	r0, [r0], -pc	; <UNPREDICTABLE>
     afc:	98b80305 	ldmls	r8!, {r0, r2, r8, r9}
     b00:	04120000 	ldreq	r0, [r2], #-0
     b04:	74000083 	strvc	r0, [r0], #-131	; 0x83
     b08:	61000000 	mrsvs	r0, (UNDEF: 0)
     b0c:	13000002 	movwne	r0, #2
     b10:	0000030f 	andeq	r0, r0, pc, lsl #6
     b14:	002c5201 	eoreq	r5, ip, r1, lsl #4
     b18:	06420000 	strbeq	r0, [r2], -r0
     b1c:	14000000 	strne	r0, [r0], #-0
     b20:	000083d8 	ldrdeq	r8, [r0], -r8	; <UNPREDICTABLE>
     b24:	00000680 	andeq	r0, r0, r0, lsl #13
     b28:	0083f415 	addeq	pc, r3, r5, lsl r4	; <UNPREDICTABLE>
     b2c:	00068700 	andeq	r8, r6, r0, lsl #14
     b30:	0002a300 	andeq	sl, r2, r0, lsl #6
     b34:	53011600 	movwpl	r1, #5632	; 0x1600
     b38:	16750802 	ldrbtne	r0, [r5], -r2, lsl #16
     b3c:	03055201 	movweq	r5, #20993	; 0x5201
     b40:	000098b8 			; <UNDEFINED> instruction: 0x000098b8
     b44:	05510116 	ldrbeq	r0, [r1, #-278]	; 0x116
     b48:	0098f003 	addseq	pc, r8, r3
     b4c:	50011600 	andpl	r1, r1, r0, lsl #12
     b50:	98dc0305 	ldmls	ip, {r0, r2, r8, r9}^
     b54:	02160000 	andseq	r0, r6, #0
     b58:	0305007d 	movweq	r0, #20605	; 0x507d
     b5c:	00009904 	andeq	r9, r0, r4, lsl #18
     b60:	83f81400 	mvnshi	r1, #0, 8
     b64:	069d0000 	ldreq	r0, [sp], r0
     b68:	04150000 	ldreq	r0, [r5], #-0
     b6c:	e0000084 	and	r0, r0, r4, lsl #1
     b70:	c1000000 	mrsgt	r0, (UNDEF: 0)
     b74:	16000002 	strne	r0, [r0], -r2
     b78:	91035101 	tstls	r3, r1, lsl #2
     b7c:	17007fa0 	strne	r7, [r0, -r0, lsr #31]
     b80:	00008418 	andeq	r8, r0, r8, lsl r4
     b84:	00000130 	andeq	r0, r0, r0, lsr r1
     b88:	03530116 	cmpeq	r3, #-2147483643	; 0x80000005
     b8c:	167fa091 			; <UNDEFINED> instruction: 0x167fa091
     b90:	74025101 	strvc	r5, [r2], #-257	; 0x101
     b94:	50011600 	andpl	r1, r1, r0, lsl #12
     b98:	00007502 	andeq	r7, r0, r2, lsl #10
     b9c:	007a1800 	rsbseq	r1, sl, r0, lsl #16
     ba0:	02ef0000 	rsceq	r0, pc, #0
     ba4:	6b190000 	blvs	640bac <__bss_end__+0x636cac>
     ba8:	3f000000 	svccc	0x00000000
     bac:	007a1800 	rsbseq	r1, sl, r0, lsl #16
     bb0:	02ff0000 	rscseq	r0, pc, #0
     bb4:	6b190000 	blvs	640bbc <__bss_end__+0x636cbc>
     bb8:	04000000 	streq	r0, [r0], #-0
     bbc:	02ef0600 	rsceq	r0, pc, #0, 12
     bc0:	4c1a0000 	ldcmi	0, cr0, [sl], {-0}
     bc4:	01000003 	tsteq	r0, r3
     bc8:	0084401f 	addeq	r4, r4, pc, lsl r0
     bcc:	00006800 	andeq	r6, r0, r0, lsl #16
     bd0:	929c0100 	addsls	r0, ip, #0, 2
     bd4:	0d000003 	stceq	0, cr0, [r0, #-12]
     bd8:	00000361 	andeq	r0, r0, r1, ror #6
     bdc:	03a11f01 			; <UNDEFINED> instruction: 0x03a11f01
     be0:	066e0000 	strbteq	r0, [lr], -r0
     be4:	250d0000 	strcs	r0, [sp, #-0]
     be8:	01000003 	tsteq	r0, r3
     bec:	0003b61f 	andeq	fp, r3, pc, lsl r6
     bf0:	00069a00 	andeq	r9, r6, r0, lsl #20
     bf4:	01ad1100 			; <UNDEFINED> instruction: 0x01ad1100
     bf8:	03cc0000 	biceq	r0, ip, #0
     bfc:	03050000 	movweq	r0, #20480	; 0x5000
     c00:	000098c0 	andeq	r9, r0, r0, asr #17
     c04:	00845414 	addeq	r5, r4, r4, lsl r4
     c08:	00068000 	andeq	r8, r6, r0
     c0c:	84701500 	ldrbthi	r1, [r0], #-1280	; 0x500
     c10:	06870000 	streq	r0, [r7], r0
     c14:	03880000 	orreq	r0, r8, #0
     c18:	01160000 	tsteq	r6, r0
     c1c:	20080253 	andcs	r0, r8, r3, asr r2
     c20:	05520116 	ldrbeq	r0, [r2, #-278]	; 0x116
     c24:	0098c003 	addseq	ip, r8, r3
     c28:	51011600 	tstpl	r1, r0, lsl #12
     c2c:	98f00305 	ldmls	r0!, {r0, r2, r8, r9}^
     c30:	01160000 	tsteq	r6, r0
     c34:	dc030550 	cfstr32le	mvfx0, [r3], {80}	; 0x50
     c38:	16000098 			; <UNDEFINED> instruction: 0x16000098
     c3c:	05007d02 	streq	r7, [r0, #-3330]	; 0xd02
     c40:	00992c03 	addseq	r2, r9, r3, lsl #24
     c44:	74140000 	ldrvc	r0, [r4], #-0
     c48:	9d000084 	stcls	0, cr0, [r0, #-528]	; 0xfffffdf0
     c4c:	00000006 	andeq	r0, r0, r6
     c50:	0000251b 	andeq	r2, r0, fp, lsl r5
     c54:	0003a100 	andeq	sl, r3, r0, lsl #2
     c58:	00251c00 	eoreq	r1, r5, r0, lsl #24
     c5c:	05000000 	streq	r0, [r0, #-0]
     c60:	00039204 	andeq	r9, r3, r4, lsl #4
     c64:	00251b00 	eoreq	r1, r5, r0, lsl #22
     c68:	03b60000 			; <UNDEFINED> instruction: 0x03b60000
     c6c:	811c0000 	tsthi	ip, r0
     c70:	00000000 	andeq	r0, r0, r0
     c74:	03a70405 			; <UNDEFINED> instruction: 0x03a70405
     c78:	7a180000 	bvc	600c80 <__bss_end__+0x5f6d80>
     c7c:	cc000000 	stcgt	0, cr0, [r0], {-0}
     c80:	19000003 	stmdbne	r0, {r0, r1}
     c84:	0000006b 	andeq	r0, r0, fp, rrx
     c88:	bc06000e 	stclt	0, cr0, [r6], {14}
     c8c:	1d000003 	stcne	0, cr0, [r0, #-12]
     c90:	0000025a 	andeq	r0, r0, sl, asr r2
     c94:	00257d01 	eoreq	r7, r5, r1, lsl #26
     c98:	84a80000 	strthi	r0, [r8], #0
     c9c:	02940000 	addseq	r0, r4, #0
     ca0:	9c010000 	stcls	0, cr0, [r1], {-0}
     ca4:	00000645 	andeq	r0, r0, r5, asr #12
     ca8:	6675620b 	ldrbtvs	r6, [r5], -fp, lsl #4
     cac:	747d0100 	ldrbtvc	r0, [sp], #-256	; 0x100
     cb0:	c6000000 	strgt	r0, [r0], -r0
     cb4:	0b000006 	bleq	cd4 <_start-0x732c>
     cb8:	7d01006e 	stcvc	0, cr0, [r1, #-440]	; 0xfffffe48
     cbc:	00000025 	andeq	r0, r0, r5, lsr #32
     cc0:	000006f2 	strdeq	r0, [r0], -r2
     cc4:	746d660b 	strbtvc	r6, [sp], #-1547	; 0x60b
     cc8:	817d0100 	cmnhi	sp, r0, lsl #2
     ccc:	20000000 	andcs	r0, r0, r0
     cd0:	0d000007 	stceq	0, cr0, [r0, #-28]	; 0xffffffe4
     cd4:	000002b2 			; <UNDEFINED> instruction: 0x000002b2
     cd8:	00ae7d01 	adceq	r7, lr, r1, lsl #26
     cdc:	07540000 	ldrbeq	r0, [r4, -r0]
     ce0:	70100000 	andsvc	r0, r0, r0
     ce4:	747e0100 	ldrbtvc	r0, [lr], #-256	; 0x100
     ce8:	67000000 	strvs	r0, [r0, -r0]
     cec:	10000007 	andne	r0, r0, r7
     cf0:	7e010065 	cdpvc	0, 0, cr0, cr1, cr5, {3}
     cf4:	00000074 	andeq	r0, r0, r4, ror r0
     cf8:	000007e5 	andeq	r0, r0, r5, ror #15
     cfc:	0001ad11 	andeq	sl, r1, r1, lsl sp
     d00:	00065500 	andeq	r5, r6, r0, lsl #10
     d04:	d0030500 	andle	r0, r3, r0, lsl #10
     d08:	1e000098 	mcrne	0, 0, r0, cr0, cr8, {4}
     d0c:	00000000 	andeq	r0, r0, r0
     d10:	01007310 	tsteq	r0, r0, lsl r3
     d14:	0000748b 	andeq	r7, r0, fp, lsl #9
     d18:	00080c00 	andeq	r0, r8, r0, lsl #24
     d1c:	756e0f00 	strbvc	r0, [lr, #-3840]!	; 0xf00
     d20:	8b01006d 	blhi	40edc <__bss_end__+0x36fdc>
     d24:	0000065a 	andeq	r0, r0, sl, asr r6
     d28:	7ed89103 	atnvce	f1, f3
     d2c:	00035b13 	andeq	r5, r3, r3, lsl fp
     d30:	2c8c0100 	stfcss	f0, [ip], {0}
     d34:	61000000 	mrsvs	r0, (UNDEF: 0)
     d38:	15000008 	strne	r0, [r0, #-8]
     d3c:	0000852c 	andeq	r8, r0, ip, lsr #10
     d40:	000000b9 	strheq	r0, [r0], -r9
     d44:	00000491 	muleq	r0, r1, r4
     d48:	02500116 	subseq	r0, r0, #-2147483643	; 0x80000005
     d4c:	14000075 	strne	r0, [r0], #-117	; 0x75
     d50:	00008540 	andeq	r8, r0, r0, asr #10
     d54:	00000680 	andeq	r0, r0, r0, lsl #13
     d58:	00855c15 	addeq	r5, r5, r5, lsl ip
     d5c:	00068700 	andeq	r8, r6, r0, lsl #14
     d60:	0004d300 	andeq	sp, r4, r0, lsl #6
     d64:	53011600 	movwpl	r1, #5632	; 0x1600
     d68:	16920802 	ldrne	r0, [r2], r2, lsl #16
     d6c:	03055201 	movweq	r5, #20993	; 0x5201
     d70:	000098d0 	ldrdeq	r9, [r0], -r0
     d74:	05510116 	ldrbeq	r0, [r1, #-278]	; 0x116
     d78:	0098f003 	addseq	pc, r8, r3
     d7c:	50011600 	andpl	r1, r1, r0, lsl #12
     d80:	98dc0305 	ldmls	ip, {r0, r2, r8, r9}^
     d84:	02160000 	andseq	r0, r6, #0
     d88:	0305007d 	movweq	r0, #20605	; 0x507d
     d8c:	00009934 	andeq	r9, r0, r4, lsr r9
     d90:	85601400 	strbhi	r1, [r0, #-1024]!	; 0x400
     d94:	069d0000 	ldreq	r0, [sp], r0
     d98:	d0140000 	andsle	r0, r4, r0
     d9c:	80000085 	andhi	r0, r0, r5, lsl #1
     da0:	15000006 	strne	r0, [r0, #-6]
     da4:	000085e4 	andeq	r8, r0, r4, ror #11
     da8:	00000687 	andeq	r0, r0, r7, lsl #13
     dac:	00000514 	andeq	r0, r0, r4, lsl r5
     db0:	02530116 	subseq	r0, r3, #-2147483643	; 0x80000005
     db4:	01169808 	tsteq	r6, r8, lsl #16
     db8:	d0030552 	andle	r0, r3, r2, asr r5
     dbc:	16000098 			; <UNDEFINED> instruction: 0x16000098
     dc0:	03055101 	movweq	r5, #20737	; 0x5101
     dc4:	000098f0 	strdeq	r9, [r0], -r0
     dc8:	05500116 	ldrbeq	r0, [r0, #-278]	; 0x116
     dcc:	00994003 	addseq	r4, r9, r3
     dd0:	e8140000 	ldmda	r4, {}	; <UNPREDICTABLE>
     dd4:	9d000085 	stcls	0, cr0, [r0, #-532]	; 0xfffffdec
     dd8:	15000006 	strne	r0, [r0, #-6]
     ddc:	0000860c 	andeq	r8, r0, ip, lsl #12
     de0:	0000019c 	muleq	r0, ip, r1
     de4:	0000054a 	andeq	r0, r0, sl, asr #10
     de8:	02520116 	subseq	r0, r2, #-2147483643	; 0x80000005
     dec:	01168008 	tsteq	r6, r8
     df0:	d0910351 	addsle	r0, r1, r1, asr r3
     df4:	5001167e 	andpl	r1, r1, lr, ror r6
     df8:	02163a01 	andseq	r3, r6, #4096	; 0x1000
     dfc:	3101047d 	tstcc	r1, sp, ror r4
     e00:	007d0216 	rsbseq	r0, sp, r6, lsl r2
     e04:	00007702 	andeq	r7, r0, r2, lsl #14
     e08:	00863015 	addeq	r3, r6, r5, lsl r0
     e0c:	00019c00 	andeq	r9, r1, r0, lsl #24
     e10:	00057800 	andeq	r7, r5, r0, lsl #16
     e14:	52011600 	andpl	r1, r1, #0, 12
     e18:	16800802 	strne	r0, [r0], r2, lsl #16
     e1c:	91035101 	tstls	r3, r1, lsl #2
     e20:	01167ed0 			; <UNDEFINED> instruction: 0x01167ed0
     e24:	163a0150 			; <UNDEFINED> instruction: 0x163a0150
     e28:	02047d02 	andeq	r7, r4, #2, 26	; 0x80
     e2c:	0216007b 	andseq	r0, r6, #123	; 0x7b
     e30:	7702007d 	smlsdxvc	r2, sp, r0, r0
     e34:	54150000 	ldrpl	r0, [r5], #-0
     e38:	9c000086 	stcls	0, cr0, [r0], {134}	; 0x86
     e3c:	a6000001 	strge	r0, [r0], -r1
     e40:	16000005 	strne	r0, [r0], -r5
     e44:	08025201 	stmdaeq	r2, {r0, r9, ip, lr}
     e48:	51011680 	smlabbpl	r1, r0, r6, r1
     e4c:	7ed09103 	atnvcs	f1, f3
     e50:	01500116 	cmpeq	r0, r6, lsl r1
     e54:	7d021640 	stcvc	6, cr1, [r2, #-256]	; 0xffffff00
     e58:	007b0204 	rsbseq	r0, fp, r4, lsl #4
     e5c:	007d0216 	rsbseq	r0, sp, r6, lsl r2
     e60:	00007702 	andeq	r7, r0, r2, lsl #14
     e64:	00867815 	addeq	r7, r6, r5, lsl r8
     e68:	00019c00 	andeq	r9, r1, r0, lsl #24
     e6c:	0005d400 	andeq	sp, r5, r0, lsl #8
     e70:	52011600 	andpl	r1, r1, #0, 12
     e74:	16800802 	strne	r0, [r0], r2, lsl #16
     e78:	91035101 	tstls	r3, r1, lsl #2
     e7c:	01167ed0 			; <UNDEFINED> instruction: 0x01167ed0
     e80:	16320150 			; <UNDEFINED> instruction: 0x16320150
     e84:	02047d02 	andeq	r7, r4, #2, 26	; 0x80
     e88:	0216007b 	andseq	r0, r6, #123	; 0x7b
     e8c:	7702007d 	smlsdxvc	r2, sp, r0, r0
     e90:	a8150000 	ldmdage	r5, {}	; <UNPREDICTABLE>
     e94:	9c000086 	stcls	0, cr0, [r0], {134}	; 0x86
     e98:	02000001 	andeq	r0, r0, #1
     e9c:	16000006 	strne	r0, [r0], -r6
     ea0:	08025201 	stmdaeq	r2, {r0, r9, ip, lr}
     ea4:	51011680 	smlabbpl	r1, r0, r6, r1
     ea8:	7ed09103 	atnvcs	f1, f3
     eac:	01500116 	cmpeq	r0, r6, lsl r1
     eb0:	7d021638 	stcvc	6, cr1, [r2, #-224]	; 0xffffff20
     eb4:	007b0204 	rsbseq	r0, fp, r4, lsl #4
     eb8:	007d0216 	rsbseq	r0, sp, r6, lsl r2
     ebc:	00007702 	andeq	r7, r0, r2, lsl #14
     ec0:	0086b014 	addeq	fp, r6, r4, lsl r0
     ec4:	00068000 	andeq	r8, r6, r0
     ec8:	86cc1500 	strbhi	r1, [ip], r0, lsl #10
     ecc:	06870000 	streq	r0, [r7], r0
     ed0:	063a0000 	ldrteq	r0, [sl], -r0
     ed4:	01160000 	tsteq	r6, r0
     ed8:	b9080253 	stmdblt	r8, {r0, r1, r4, r6, r9}
     edc:	05520116 	ldrbeq	r0, [r2, #-278]	; 0x116
     ee0:	0098d003 	addseq	sp, r8, r3
     ee4:	51011600 	tstpl	r1, r0, lsl #12
     ee8:	98f00305 	ldmls	r0!, {r0, r2, r8, r9}^
     eec:	01160000 	tsteq	r6, r0
     ef0:	68030550 	stmdavs	r3, {r4, r6, r8, sl}
     ef4:	00000099 	muleq	r0, r9, r0
     ef8:	0086d014 	addeq	sp, r6, r4, lsl r0
     efc:	00069d00 	andeq	r9, r6, r0, lsl #26
     f00:	18000000 	stmdane	r0, {}	; <UNPREDICTABLE>
     f04:	0000007a 	andeq	r0, r0, sl, ror r0
     f08:	00000655 	andeq	r0, r0, r5, asr r6
     f0c:	00006b19 	andeq	r6, r0, r9, lsl fp
     f10:	06000900 	streq	r0, [r0], -r0, lsl #18
     f14:	00000645 	andeq	r0, r0, r5, asr #12
     f18:	00007a18 	andeq	r7, r0, r8, lsl sl
     f1c:	00066a00 	andeq	r6, r6, r0, lsl #20
     f20:	006b1900 	rsbeq	r1, fp, r0, lsl #18
     f24:	007f0000 	rsbseq	r0, pc, r0
     f28:	0002cd1f 	andeq	ip, r2, pc, lsl sp
     f2c:	a11d0300 	tstge	sp, r0, lsl #6
     f30:	1f000003 	svcne	0x00000003
     f34:	0000030a 	andeq	r0, r0, sl, lsl #6
     f38:	03b62203 			; <UNDEFINED> instruction: 0x03b62203
     f3c:	d7200000 	strle	r0, [r0, -r0]!
     f40:	03000001 	movweq	r0, #1
     f44:	025d211e 	subseq	r2, sp, #-2147483641	; 0x80000007
     f48:	29030000 	stmdbcs	r3, {}	; <UNPREDICTABLE>
     f4c:	00000025 	andeq	r0, r0, r5, lsr #32
     f50:	0000069d 	muleq	r0, sp, r6
     f54:	0000811c 	andeq	r8, r0, ip, lsl r1
     f58:	20002200 	andcs	r2, r0, r0, lsl #4
     f5c:	0000018f 	andeq	r0, r0, pc, lsl #3
     f60:	ff006603 			; <UNDEFINED> instruction: 0xff006603
     f64:	04000000 	streq	r0, [r0], #-0
     f68:	0006db00 	andeq	sp, r6, r0, lsl #22
     f6c:	03010400 	movweq	r0, #5120	; 0x1400
     f70:	01000002 	tsteq	r0, r2
     f74:	00000379 	andeq	r0, r0, r9, ror r3
     f78:	0000026e 	andeq	r0, r0, lr, ror #4
     f7c:	0000873c 	andeq	r8, r0, ip, lsr r7
     f80:	00000028 	andeq	r0, r0, r8, lsr #32
     f84:	0000059c 	muleq	r0, ip, r5
     f88:	69050402 	stmdbvs	r5, {r1, sl}
     f8c:	0300746e 	movweq	r7, #1134	; 0x46e
     f90:	003c0704 	eorseq	r0, ip, r4, lsl #14
     f94:	01030000 	mrseq	r0, (UNDEF: 3)
     f98:	00004b06 	andeq	r4, r0, r6, lsl #22
     f9c:	05020300 	streq	r0, [r2, #-768]	; 0x300
     fa0:	000000eb 	andeq	r0, r0, fp, ror #1
     fa4:	05050403 	streq	r0, [r5, #-1027]	; 0x403
     fa8:	03000000 	movweq	r0, #0
     fac:	00000508 	andeq	r0, r0, r8, lsl #10
     fb0:	01030000 	mrseq	r0, (UNDEF: 3)
     fb4:	00004908 	andeq	r4, r0, r8, lsl #18
     fb8:	07020300 	streq	r0, [r2, -r0, lsl #6]
     fbc:	000000d8 	ldrdeq	r0, [r0], -r8
     fc0:	37070403 	strcc	r0, [r7, -r3, lsl #8]
     fc4:	03000000 	movweq	r0, #0
     fc8:	00320708 	eorseq	r0, r2, r8, lsl #14
     fcc:	04030000 	streq	r0, [r3], #-0
     fd0:	00016007 	andeq	r6, r1, r7
     fd4:	08010300 	stmdaeq	r1, {r8, r9}
     fd8:	00000052 	andeq	r0, r0, r2, asr r0
     fdc:	007f0404 	rsbseq	r0, pc, r4, lsl #8
     fe0:	72050000 	andvc	r0, r5, #0
     fe4:	06000000 	streq	r0, [r0], -r0
     fe8:	0000018f 	andeq	r0, r0, pc, lsl #3
     fec:	873c0401 	ldrhi	r0, [ip, -r1, lsl #8]!
     ff0:	00280000 	eoreq	r0, r8, r0
     ff4:	9c010000 	stcls	0, cr0, [r1], {-0}
     ff8:	000000ca 	andeq	r0, r0, sl, asr #1
     ffc:	00875007 	addeq	r5, r7, r7
    1000:	0000ac00 	andeq	sl, r0, r0, lsl #24
    1004:	50010800 	andpl	r0, r1, r0, lsl #16
    1008:	99a00305 	stmibls	r0!, {r0, r2, r8, r9}
    100c:	09000000 	stmdbeq	r0, {}	; <UNPREDICTABLE>
    1010:	00008758 	andeq	r8, r0, r8, asr r7
    1014:	000000ea 	andeq	r0, r0, sl, ror #1
    1018:	000000c0 	andeq	r0, r0, r0, asr #1
    101c:	02500108 	subseq	r0, r0, #8, 2
    1020:	0a006408 	beq	1a048 <__bss_end__+0x10148>
    1024:	0000875c 	andeq	r8, r0, ip, asr r7
    1028:	000000fb 	strdeq	r0, [r0], -fp
    102c:	00250b00 	eoreq	r0, r5, r0, lsl #22
    1030:	00d90000 	sbcseq	r0, r9, r0
    1034:	790c0000 	stmdbvc	ip, {}	; <UNPREDICTABLE>
    1038:	00000000 	andeq	r0, r0, r0
    103c:	00030a0d 	andeq	r0, r3, sp, lsl #20
    1040:	e4220200 	strt	r0, [r2], #-512	; 0x200
    1044:	04000000 	streq	r0, [r0], #-0
    1048:	0000ca04 	andeq	ip, r0, r4, lsl #20
    104c:	03930e00 	orrseq	r0, r3, #0, 28
    1050:	50020000 	andpl	r0, r2, r0
    1054:	000000fb 	strdeq	r0, [r0], -fp
    1058:	00002c0c 	andeq	r2, r0, ip, lsl #24
    105c:	6e0f0000 	cdpvs	0, 0, cr0, cr15, cr0, {0}
    1060:	02000003 	andeq	r0, r0, #3
    1064:	02dd0063 	sbcseq	r0, sp, #99	; 0x63
    1068:	00040000 	andeq	r0, r4, r0
    106c:	000007a5 	andeq	r0, r0, r5, lsr #15
    1070:	02030104 	andeq	r0, r3, #4, 2
    1074:	7e010000 	cdpvc	0, 0, cr0, cr1, cr0, {0}
    1078:	6e000004 	cdpvs	0, 0, cr0, cr0, cr4, {0}
    107c:	64000002 	strvs	r0, [r0], #-2
    1080:	b0000087 	andlt	r0, r0, r7, lsl #1
    1084:	33000000 	movwcc	r0, #0
    1088:	02000006 	andeq	r0, r0, #6
    108c:	6e690504 	cdpvs	5, 6, cr0, cr9, cr4, {0}
    1090:	04030074 	streq	r0, [r3], #-116	; 0x74
    1094:	00003c07 	andeq	r3, r0, r7, lsl #24
    1098:	06010300 	streq	r0, [r1], -r0, lsl #6
    109c:	0000004b 	andeq	r0, r0, fp, asr #32
    10a0:	eb050203 	bl	1418b4 <__bss_end__+0x1379b4>
    10a4:	03000000 	movweq	r0, #0
    10a8:	00050504 	andeq	r0, r5, r4, lsl #10
    10ac:	08030000 	stmdaeq	r3, {}	; <UNPREDICTABLE>
    10b0:	00000005 	andeq	r0, r0, r5
    10b4:	04470400 	strbeq	r0, [r7], #-1024	; 0x400
    10b8:	2e020000 	cdpcs	0, 0, cr0, cr2, cr0, {0}
    10bc:	0000005a 	andeq	r0, r0, sl, asr r0
    10c0:	49080103 	stmdbmi	r8, {r0, r1, r8}
    10c4:	03000000 	movweq	r0, #0
    10c8:	00d80702 	sbcseq	r0, r8, r2, lsl #14
    10cc:	9e040000 	cdpls	0, 0, cr0, cr4, cr0, {0}
    10d0:	02000004 	andeq	r0, r0, #4
    10d4:	00007334 	andeq	r7, r0, r4, lsr r3
    10d8:	07040300 	streq	r0, [r4, -r0, lsl #6]
    10dc:	00000037 	andeq	r0, r0, r7, lsr r0
    10e0:	32070803 	andcc	r0, r7, #196608	; 0x30000
    10e4:	03000000 	movweq	r0, #0
    10e8:	01600704 	cmneq	r0, r4, lsl #14
    10ec:	01030000 	mrseq	r0, (UNDEF: 3)
    10f0:	00005208 	andeq	r5, r0, r8, lsl #4
    10f4:	95040500 	strls	r0, [r4, #-1280]	; 0x500
    10f8:	06000000 	streq	r0, [r0], -r0
    10fc:	00000088 	andeq	r0, r0, r8, lsl #1
    1100:	0e030c07 	cdpeq	12, 0, cr0, cr3, cr7, {0}
    1104:	000000d1 	ldrdeq	r0, [r0], -r1
    1108:	00787408 	rsbseq	r7, r8, r8, lsl #8
    110c:	004f0f03 	subeq	r0, pc, r3, lsl #30
    1110:	08000000 	stmdaeq	r0, {}	; <UNPREDICTABLE>
    1114:	03007872 	movweq	r7, #2162	; 0x872
    1118:	00004f0f 	andeq	r4, r0, pc, lsl #30
    111c:	15090100 	strne	r0, [r9, #-256]	; 0x100
    1120:	03000004 	movweq	r0, #4
    1124:	00006810 	andeq	r6, r0, r0, lsl r8
    1128:	c6090400 	strgt	r0, [r9], -r0, lsl #8
    112c:	03000003 	movweq	r0, #3
    1130:	00006811 	andeq	r6, r0, r1, lsl r8
    1134:	04000800 	streq	r0, [r0], #-2048	; 0x800
    1138:	000003fe 	strdeq	r0, [r0], -lr
    113c:	009a1203 	addseq	r1, sl, r3, lsl #4
    1140:	010a0000 	mrseq	r0, (UNDEF: 10)
    1144:	00f71004 	rscseq	r1, r7, r4
    1148:	1a0b0000 	bne	2c1150 <__bss_end__+0x2b7250>
    114c:	01000004 	tsteq	r0, r4
    1150:	0004080b 	andeq	r0, r4, fp, lsl #16
    1154:	f00b0200 			; <UNDEFINED> instruction: 0xf00b0200
    1158:	03000003 	movweq	r0, #3
    115c:	042f0400 	strteq	r0, [pc], #-1024	; 1164 <_start-0x6e9c>
    1160:	10040000 	andne	r0, r4, r0
    1164:	000000dc 	ldrdeq	r0, [r0], -ip
    1168:	14041407 	strne	r1, [r4], #-1031	; 0x407
    116c:	0000012f 	andeq	r0, r0, pc, lsr #2
    1170:	0004a709 	andeq	sl, r4, r9, lsl #14
    1174:	2c150400 	cfldrscs	mvf0, [r5], {-0}
    1178:	00000000 	andeq	r0, r0, r0
    117c:	00049209 	andeq	r9, r4, r9, lsl #4
    1180:	f7180400 			; <UNDEFINED> instruction: 0xf7180400
    1184:	04000000 	streq	r0, [r0], #-0
    1188:	00045d09 	andeq	r5, r4, r9, lsl #26
    118c:	d11b0400 	tstle	fp, r0, lsl #8
    1190:	08000000 	stmdaeq	r0, {}	; <UNPREDICTABLE>
    1194:	044f0400 	strbeq	r0, [pc], #-1024	; 119c <_start-0x6e64>
    1198:	20040000 	andcs	r0, r4, r0
    119c:	00000102 	andeq	r0, r0, r2, lsl #2
    11a0:	00039c0c 	andeq	r9, r3, ip, lsl #24
    11a4:	25060100 	strcs	r0, [r6, #-256]	; 0x100
    11a8:	64000000 	strvs	r0, [r0], #-0
    11ac:	20000087 	andcs	r0, r0, r7, lsl #1
    11b0:	01000000 	mrseq	r0, (UNDEF: 0)
    11b4:	00017a9c 	muleq	r1, ip, sl
    11b8:	00630d00 	rsbeq	r0, r3, r0, lsl #26
    11bc:	00250601 	eoreq	r0, r5, r1, lsl #12
    11c0:	088b0000 	stmeq	fp, {}	; <UNPREDICTABLE>
    11c4:	780e0000 	stmdavc	lr, {}	; <UNPREDICTABLE>
    11c8:	7a000087 	bvc	13ec <_start-0x6c14>
    11cc:	0f000002 	svceq	0x00000002
    11d0:	74025101 	strvc	r5, [r2], #-257	; 0x101
    11d4:	50010f00 	andpl	r0, r1, r0, lsl #30
    11d8:	9ef40305 	cdpls	3, 15, cr0, cr4, cr5, {0}
    11dc:	00000000 	andeq	r0, r0, r0
    11e0:	00042710 	andeq	r2, r4, r0, lsl r7
    11e4:	840b0100 	strhi	r0, [fp], #-256	; 0x100
    11e8:	90000087 	andls	r0, r0, r7, lsl #1
    11ec:	01000000 	mrseq	r0, (UNDEF: 0)
    11f0:	0002279c 	muleq	r2, ip, r7
    11f4:	03b01100 	movseq	r1, #0, 2
    11f8:	0c010000 	stceq	0, cr0, [r1], {-0}
    11fc:	00000025 	andeq	r0, r0, r5, lsr #32
    1200:	00047211 	andeq	r7, r4, r1, lsl r2
    1204:	250c0100 	strcs	r0, [ip, #-256]	; 0x100
    1208:	12000000 	andne	r0, r0, #0
    120c:	00000061 	andeq	r0, r0, r1, rrx
    1210:	62130d01 	andsvs	r0, r3, #1, 26	; 0x40
    1214:	01007373 	tsteq	r0, r3, ror r3
    1218:	0002270f 	andeq	r2, r2, pc, lsl #14
    121c:	0008a900 	andeq	sl, r8, r0, lsl #18
    1220:	03be1400 			; <UNDEFINED> instruction: 0x03be1400
    1224:	10010000 	andne	r0, r1, r0
    1228:	00000227 	andeq	r0, r0, r7, lsr #4
    122c:	00626313 	rsbeq	r6, r2, r3, lsl r3
    1230:	022d1701 	eoreq	r1, sp, #262144	; 0x40000
    1234:	08c90000 	stmiaeq	r9, {}^	; <UNPREDICTABLE>
    1238:	ac150000 	ldcge	0, cr0, [r5], {-0}
    123c:	96000087 	strls	r0, [r0], -r7, lsl #1
    1240:	16000002 	strne	r0, [r0], -r2
    1244:	000087e8 	andeq	r8, r0, r8, ror #15
    1248:	000002a1 	andeq	r0, r0, r1, lsr #5
    124c:	000001fd 	strdeq	r0, [r0], -sp
    1250:	0551010f 	ldrbeq	r0, [r1, #-271]	; 0x10f
    1254:	0099ac03 	addseq	sl, r9, r3, lsl #24
    1258:	50010f00 	andpl	r0, r1, r0, lsl #30
    125c:	9ef40305 	cdpls	3, 15, cr0, cr4, cr5, {0}
    1260:	16000000 	strne	r0, [r0], -r0
    1264:	000087f0 	strdeq	r8, [r0], -r0
    1268:	000002bc 			; <UNDEFINED> instruction: 0x000002bc
    126c:	00000214 	andeq	r0, r0, r4, lsl r2
    1270:	0550010f 	ldrbeq	r0, [r0, #-271]	; 0x10f
    1274:	0099d003 	addseq	sp, r9, r3
    1278:	f4150000 			; <UNDEFINED> instruction: 0xf4150000
    127c:	d2000087 	andle	r0, r0, #135	; 0x87
    1280:	15000002 	strne	r0, [r0, #-2]
    1284:	000087f8 	strdeq	r8, [r0], -r8	; <UNPREDICTABLE>
    1288:	000002d9 	ldrdeq	r0, [r0], -r9
    128c:	25040500 	strcs	r0, [r4, #-1280]	; 0x500
    1290:	05000000 	streq	r0, [r0, #-0]
    1294:	00012f04 	andeq	r2, r1, r4, lsl #30
    1298:	03d41700 	bicseq	r1, r4, #0, 14
    129c:	05010000 	streq	r0, [r1, #-0]
    12a0:	000000d1 	ldrdeq	r0, [r0], -r1
    12a4:	9ef40305 	cdpls	3, 15, cr0, cr4, cr5, {0}
    12a8:	25180000 	ldrcs	r0, [r8, #-0]
    12ac:	53000000 	movwpl	r0, #0
    12b0:	19000002 	stmdbne	r0, {r1}
    12b4:	00000025 	andeq	r0, r0, r5, lsr #32
    12b8:	02cd1100 	sbceq	r1, sp, #0, 2
    12bc:	1d050000 	stcne	0, cr0, [r5, #-0]
    12c0:	0000025e 	andeq	r0, r0, lr, asr r2
    12c4:	02440405 	subeq	r0, r4, #83886080	; 0x5000000
    12c8:	b0110000 	andslt	r0, r1, r0
    12cc:	01000003 	tsteq	r0, r3
    12d0:	0000250c 	andeq	r2, r0, ip, lsl #10
    12d4:	04721100 	ldrbteq	r1, [r2], #-256	; 0x100
    12d8:	0c010000 	stceq	0, cr0, [r1], {-0}
    12dc:	00000025 	andeq	r0, r0, r5, lsr #32
    12e0:	00043a1a 	andeq	r3, r4, sl, lsl sl
    12e4:	90440300 	subls	r0, r4, r0, lsl #6
    12e8:	19000002 	stmdbne	r0, {r1}
    12ec:	00000290 	muleq	r0, r0, r2
    12f0:	00005a19 	andeq	r5, r0, r9, lsl sl
    12f4:	04050000 	streq	r0, [r5], #-0
    12f8:	000000d1 	ldrdeq	r0, [r0], -r1
    12fc:	0004651b 	andeq	r6, r4, fp, lsl r5
    1300:	2d2a0400 	cfstrscs	mvf0, [sl, #-0]
    1304:	1c000002 	stcne	0, cr0, [r0], {2}
    1308:	000003e1 	andeq	r0, r0, r1, ror #7
    130c:	00251503 	eoreq	r1, r5, r3, lsl #10
    1310:	02bc0000 	adcseq	r0, ip, #0
    1314:	90190000 	andsls	r0, r9, r0
    1318:	19000002 	stmdbne	r0, {r1}
    131c:	0000008f 	andeq	r0, r0, pc, lsl #1
    1320:	5d1c001d 	ldcpl	0, cr0, [ip, #-116]	; 0xffffff8c
    1324:	05000002 	streq	r0, [r0, #-2]
    1328:	00002529 	andeq	r2, r0, r9, lsr #10
    132c:	0002d200 	andeq	sp, r2, r0, lsl #4
    1330:	008f1900 	addeq	r1, pc, r0, lsl #18
    1334:	001d0000 	andseq	r0, sp, r0
    1338:	00006112 	andeq	r6, r0, r2, lsl r1
    133c:	12d10500 	sbcsne	r0, r1, #0, 10
    1340:	0000036e 	andeq	r0, r0, lr, ror #6
    1344:	ad006305 	stcge	3, cr6, [r0, #-20]	; 0xffffffec
    1348:	04000001 	streq	r0, [r0], #-1
    134c:	00093c00 	andeq	r3, r9, r0, lsl #24
    1350:	03010400 	movweq	r0, #5120	; 0x1400
    1354:	01000002 	tsteq	r0, r2
    1358:	000004c7 	andeq	r0, r0, r7, asr #9
    135c:	0000026e 	andeq	r0, r0, lr, ror #4
    1360:	00000018 	andeq	r0, r0, r8, lsl r0
    1364:	00000000 	andeq	r0, r0, r0
    1368:	00000758 	andeq	r0, r0, r8, asr r7
    136c:	69050402 	stmdbvs	r5, {r1, sl}
    1370:	0300746e 	movweq	r7, #1134	; 0x46e
    1374:	003c0704 	eorseq	r0, ip, r4, lsl #14
    1378:	01030000 	mrseq	r0, (UNDEF: 3)
    137c:	00004b06 	andeq	r4, r0, r6, lsl #22
    1380:	05020300 	streq	r0, [r2, #-768]	; 0x300
    1384:	000000eb 	andeq	r0, r0, fp, ror #1
    1388:	05050403 	streq	r0, [r5, #-1027]	; 0x403
    138c:	03000000 	movweq	r0, #0
    1390:	00000508 	andeq	r0, r0, r8, lsl #10
    1394:	01030000 	mrseq	r0, (UNDEF: 3)
    1398:	00004908 	andeq	r4, r0, r8, lsl #18
    139c:	07020300 	streq	r0, [r2, -r0, lsl #6]
    13a0:	000000d8 	ldrdeq	r0, [r0], -r8
    13a4:	37070403 	strcc	r0, [r7, -r3, lsl #8]
    13a8:	03000000 	movweq	r0, #0
    13ac:	00320708 	eorseq	r0, r2, r8, lsl #14
    13b0:	04030000 	streq	r0, [r3], #-0
    13b4:	00016007 	andeq	r6, r1, r7
    13b8:	08010300 	stmdaeq	r1, {r8, r9}
    13bc:	00000052 	andeq	r0, r0, r2, asr r0
    13c0:	0004ad04 	andeq	sl, r4, r4, lsl #26
    13c4:	250e0100 	strcs	r0, [lr, #-256]	; 0x100
    13c8:	14000000 	strne	r0, [r0], #-0
    13cc:	18000088 	stmdane	r0, {r3, r7}
    13d0:	01000000 	mrseq	r0, (UNDEF: 0)
    13d4:	0000a29c 	muleq	r0, ip, r2
    13d8:	05190500 	ldreq	r0, [r9, #-1280]	; 0x500
    13dc:	0f010000 	svceq	0x00010000
    13e0:	0000002c 	andeq	r0, r0, ip, lsr #32
    13e4:	000008e9 	andeq	r0, r0, r9, ror #17
    13e8:	04fc0600 	ldrbteq	r0, [ip], #1536	; 0x600
    13ec:	17010000 	strne	r0, [r1, -r0]
    13f0:	0000882c 	andeq	r8, r0, ip, lsr #16
    13f4:	00000014 	andeq	r0, r0, r4, lsl r0
    13f8:	00c79c01 	sbceq	r9, r7, r1, lsl #24
    13fc:	19050000 	stmdbne	r5, {}	; <UNPREDICTABLE>
    1400:	01000005 	tsteq	r0, r5
    1404:	00002c18 	andeq	r2, r0, r8, lsl ip
    1408:	00090800 	andeq	r0, r9, r0, lsl #16
    140c:	6e060000 	cdpvs	0, 0, cr0, cr6, cr0, {0}
    1410:	01000003 	tsteq	r0, r3
    1414:	0088401f 	addeq	r4, r8, pc, lsl r0
    1418:	00004800 	andeq	r4, r0, r0, lsl #16
    141c:	779c0100 	ldrvc	r0, [ip, r0, lsl #2]
    1420:	07000001 	streq	r0, [r0, -r1]
    1424:	00000511 	andeq	r0, r0, r1, lsl r5
    1428:	01772a01 	cmneq	r7, r1, lsl #20
    142c:	001c0000 	andseq	r0, ip, r0
    1430:	f4072010 	vst4.8	{d2-d5}, [r7 :64], r0
    1434:	01000004 	tsteq	r0, r4
    1438:	0001772b 	andeq	r7, r1, fp, lsr #14
    143c:	10002400 	andne	r2, r0, r0, lsl #8
    1440:	04bb0720 	ldrteq	r0, [fp], #1824	; 0x720
    1444:	2c010000 	stccs	0, cr0, [r1], {-0}
    1448:	00000177 	andeq	r0, r0, r7, ror r1
    144c:	5a000000 	bpl	1454 <_start-0x6bac>
    1450:	0004db08 	andeq	sp, r4, r8, lsl #22
    1454:	772d0100 	strvc	r0, [sp, -r0, lsl #2]!
    1458:	20000001 	andcs	r0, r0, r1
    145c:	00884809 	addeq	r4, r8, r9, lsl #16
    1460:	00007900 	andeq	r7, r0, r0, lsl #18
    1464:	88540900 	ldmdahi	r4, {r8, fp}^
    1468:	00a20000 	adceq	r0, r2, r0
    146c:	5c0a0000 	stcpl	0, cr0, [sl], {-0}
    1470:	8d000088 	stchi	0, cr0, [r0, #-544]	; 0xfffffde0
    1474:	3a000001 	bcc	1480 <_start-0x6b80>
    1478:	0b000001 	bleq	1484 <_start-0x6b7c>
    147c:	4e015001 	cdpmi	0, 0, cr5, cr1, cr1, {0}
    1480:	88680a00 	stmdahi	r8!, {r9, fp}^
    1484:	019e0000 	orrseq	r0, lr, r0
    1488:	015a0000 	cmpeq	sl, r0
    148c:	010b0000 	mrseq	r0, (UNDEF: 11)
    1490:	010c0551 	tsteq	ip, r1, asr r5
    1494:	0b5a0000 	bleq	168149c <__bss_end__+0x167759c>
    1498:	0c055001 	stceq	0, cr5, [r5], {1}
    149c:	20100024 	andscs	r0, r0, r4, lsr #32
    14a0:	88740c00 	ldmdahi	r4!, {sl, fp}^
    14a4:	019e0000 	orrseq	r0, lr, r0
    14a8:	010b0000 	mrseq	r0, (UNDEF: 11)
    14ac:	200c0551 	andcs	r0, ip, r1, asr r5
    14b0:	0b5a0000 	bleq	16814b8 <__bss_end__+0x16775b8>
    14b4:	0c055001 	stceq	0, cr5, [r5], {1}
    14b8:	2010001c 	andscs	r0, r0, ip, lsl r0
    14bc:	250d0000 	strcs	r0, [sp, #-0]
    14c0:	08000000 	stmdaeq	r0, {}	; <UNPREDICTABLE>
    14c4:	000004b0 			; <UNDEFINED> instruction: 0x000004b0
    14c8:	01880d01 	orreq	r0, r8, r1, lsl #26
    14cc:	0d100000 	ldceq	0, cr0, [r0, #-0]
    14d0:	0000002c 	andeq	r0, r0, ip, lsr #32
    14d4:	0003930e 	andeq	r9, r3, lr, lsl #6
    14d8:	9e500200 	cdpls	2, 5, cr0, cr0, cr0, {0}
    14dc:	0f000001 	svceq	0x00000001
    14e0:	0000002c 	andeq	r0, r0, ip, lsr #32
    14e4:	050b1000 	streq	r1, [fp, #-0]
    14e8:	9c020000 	stcls	0, cr0, [r2], {-0}
    14ec:	00002c0f 	andeq	r2, r0, pc, lsl #24
    14f0:	002c0f00 	eoreq	r0, ip, r0, lsl #30
    14f4:	00000000 	andeq	r0, r0, r0
    14f8:	000001d8 	ldrdeq	r0, [r0], -r8
    14fc:	0a2a0004 	beq	a81514 <__bss_end__+0xa77614>
    1500:	01040000 	mrseq	r0, (UNDEF: 4)
    1504:	00000203 	andeq	r0, r0, r3, lsl #4
    1508:	00053b01 	andeq	r3, r5, r1, lsl #22
    150c:	00026e00 	andeq	r6, r2, r0, lsl #28
    1510:	00888800 	addeq	r8, r8, r0, lsl #16
    1514:	00008800 	andeq	r8, r0, r0, lsl #16
    1518:	0007f500 	andeq	pc, r7, r0, lsl #10
    151c:	05040200 	streq	r0, [r4, #-512]	; 0x200
    1520:	00746e69 	rsbseq	r6, r4, r9, ror #28
    1524:	3c070403 	cfstrscc	mvf0, [r7], {3}
    1528:	03000000 	movweq	r0, #0
    152c:	004b0601 	subeq	r0, fp, r1, lsl #12
    1530:	02030000 	andeq	r0, r3, #0
    1534:	0000eb05 	andeq	lr, r0, r5, lsl #22
    1538:	05040300 	streq	r0, [r4, #-768]	; 0x300
    153c:	00000005 	andeq	r0, r0, r5
    1540:	00050803 	andeq	r0, r5, r3, lsl #16
    1544:	03000000 	movweq	r0, #0
    1548:	00490801 	subeq	r0, r9, r1, lsl #16
    154c:	02030000 	andeq	r0, r3, #0
    1550:	0000d807 	andeq	sp, r0, r7, lsl #16
    1554:	07040300 	streq	r0, [r4, -r0, lsl #6]
    1558:	00000037 	andeq	r0, r0, r7, lsr r0
    155c:	32070803 	andcc	r0, r7, #196608	; 0x30000
    1560:	03000000 	movweq	r0, #0
    1564:	01600704 	cmneq	r0, r4, lsl #14
    1568:	01030000 	mrseq	r0, (UNDEF: 3)
    156c:	00005208 	andeq	r5, r0, r8, lsl #4
    1570:	055a0400 	ldrbeq	r0, [sl, #-1024]	; 0x400
    1574:	05010000 	streq	r0, [r1, #-0]
    1578:	00008888 	andeq	r8, r0, r8, lsl #17
    157c:	0000001c 	andeq	r0, r0, ip, lsl r0
    1580:	009e9c01 	addseq	r9, lr, r1, lsl #24
    1584:	54050000 	strpl	r0, [r5], #-0
    1588:	01000005 	tsteq	r0, r5
    158c:	00002c05 	andeq	r2, r0, r5, lsl #24
    1590:	00093200 	andeq	r3, r9, r0, lsl #4
    1594:	1e060000 	cdpne	0, 0, cr0, cr6, cr0, {0}
    1598:	01000005 	tsteq	r0, r5
    159c:	00002c0b 	andeq	r2, r0, fp, lsl #24
    15a0:	0088a400 	addeq	sl, r8, r0, lsl #8
    15a4:	00001400 	andeq	r1, r0, r0, lsl #8
    15a8:	cb9c0100 	blgt	fe7019b0 <__bss_end__+0xfe6f7ab0>
    15ac:	07000000 	streq	r0, [r0, -r0]
    15b0:	000088b0 			; <UNDEFINED> instruction: 0x000088b0
    15b4:	000001ca 	andeq	r0, r0, sl, asr #3
    15b8:	05500108 	ldrbeq	r0, [r0, #-264]	; 0x108
    15bc:	0030040c 	eorseq	r0, r0, ip, lsl #8
    15c0:	06000020 	streq	r0, [r0], -r0, lsr #32
    15c4:	00000570 	andeq	r0, r0, r0, ror r5
    15c8:	002c1001 	eoreq	r1, ip, r1
    15cc:	88b80000 	ldmhi	r8!, {}	; <UNPREDICTABLE>
    15d0:	000c0000 	andeq	r0, ip, r0
    15d4:	9c010000 	stcls	0, cr0, [r1], {-0}
    15d8:	000000f9 	strdeq	r0, [r0], -r9
    15dc:	01007509 	tsteq	r0, r9, lsl #10
    15e0:	00002c14 	andeq	r2, r0, r4, lsl ip
    15e4:	0a500100 	beq	14019ec <__bss_end__+0x13f7aec>
    15e8:	000088c0 	andeq	r8, r0, r0, asr #17
    15ec:	0000009e 	muleq	r0, lr, r0
    15f0:	05670400 	strbeq	r0, [r7, #-1024]!	; 0x400
    15f4:	19010000 	stmdbne	r1, {}	; <UNPREDICTABLE>
    15f8:	000088c4 	andeq	r8, r0, r4, asr #17
    15fc:	00000024 	andeq	r0, r0, r4, lsr #32
    1600:	01579c01 	cmpeq	r7, r1, lsl #24
    1604:	750b0000 	strvc	r0, [fp, #-0]
    1608:	19010073 	stmdbne	r1, {r0, r1, r4, r5, r6}
    160c:	0000002c 	andeq	r0, r0, ip, lsr #32
    1610:	00000966 	andeq	r0, r0, r6, ror #18
    1614:	00627209 	rsbeq	r7, r2, r9, lsl #4
    1618:	002c1a01 	eoreq	r1, ip, r1, lsl #20
    161c:	54010000 	strpl	r0, [r1], #-0
    1620:	0088d40c 	addeq	sp, r8, ip, lsl #8
    1624:	00001000 	andeq	r1, r0, r0
    1628:	00014d00 	andeq	r4, r1, r0, lsl #26
    162c:	61720d00 	cmnvs	r2, r0, lsl #26
    1630:	2c1c0100 	ldfcss	f0, [ip], {-0}
    1634:	84000000 	strhi	r0, [r0], #-0
    1638:	0a000009 	beq	1664 <_start-0x699c>
    163c:	000088d8 	ldrdeq	r8, [r0], -r8	; <UNPREDICTABLE>
    1640:	000000cb 	andeq	r0, r0, fp, asr #1
    1644:	88d00a00 	ldmhi	r0, {r9, fp}^
    1648:	00cb0000 	sbceq	r0, fp, r0
    164c:	04000000 	streq	r0, [r0], #-0
    1650:	00000393 	muleq	r0, r3, r3
    1654:	88e82201 	stmiahi	r8!, {r0, r9, sp}^
    1658:	00140000 	andseq	r0, r4, r0
    165c:	9c010000 	stcls	0, cr0, [r1], {-0}
    1660:	00000190 	muleq	r0, r0, r1
    1664:	00736d0b 	rsbseq	r6, r3, fp, lsl #26
    1668:	002c2201 	eoreq	r2, ip, r1, lsl #4
    166c:	09970000 	ldmibeq	r7, {}	; <UNPREDICTABLE>
    1670:	f8070000 			; <UNDEFINED> instruction: 0xf8070000
    1674:	f9000088 			; <UNDEFINED> instruction: 0xf9000088
    1678:	08000000 	stmdaeq	r0, {}	; <UNPREDICTABLE>
    167c:	f3075001 	vhadd.u8	d5, d7, d1
    1680:	e80a5001 	stmda	sl, {r0, ip, lr}
    1684:	00001e03 	andeq	r1, r0, r3, lsl #28
    1688:	00053104 	andeq	r3, r5, r4, lsl #2
    168c:	fc250100 	stc2	1, cr0, [r5], #-0
    1690:	14000088 	strne	r0, [r0], #-136	; 0x88
    1694:	01000000 	mrseq	r0, (UNDEF: 0)
    1698:	0001ca9c 	muleq	r1, ip, sl
    169c:	65730b00 	ldrbvs	r0, [r3, #-2816]!	; 0xb00
    16a0:	25010063 	strcs	r0, [r1, #-99]	; 0x63
    16a4:	0000002c 	andeq	r0, r0, ip, lsr #32
    16a8:	000009b8 			; <UNDEFINED> instruction: 0x000009b8
    16ac:	00890c07 	addeq	r0, r9, r7, lsl #24
    16b0:	00015700 	andeq	r5, r1, r0, lsl #14
    16b4:	50010800 	andpl	r0, r1, r0, lsl #16
    16b8:	5001f307 	andpl	pc, r1, r7, lsl #6
    16bc:	1e03e80a 	cdpne	8, 0, cr14, cr3, cr10, {0}
    16c0:	4e0e0000 	cdpmi	0, 0, cr0, cr14, cr0, {0}
    16c4:	02000005 	andeq	r0, r0, #5
    16c8:	00002ca8 	andeq	r2, r0, r8, lsr #25
    16cc:	002c0f00 	eoreq	r0, ip, r0, lsl #30
    16d0:	00000000 	andeq	r0, r0, r0
    16d4:	00000882 	andeq	r0, r0, r2, lsl #17
    16d8:	0b0d0004 	bleq	3416f0 <__bss_end__+0x3377f0>
    16dc:	01040000 	mrseq	r0, (UNDEF: 4)
    16e0:	00000203 	andeq	r0, r0, r3, lsl #4
    16e4:	0005d901 	andeq	sp, r5, r1, lsl #18
    16e8:	00026e00 	andeq	r6, r2, r0, lsl #28
    16ec:	00891000 	addeq	r1, r9, r0
    16f0:	0005a000 	andeq	sl, r5, r0
    16f4:	00089c00 	andeq	r9, r8, r0, lsl #24
    16f8:	07080200 	streq	r0, [r8, -r0, lsl #4]
    16fc:	00000032 	andeq	r0, r0, r2, lsr r0
    1700:	3c070402 	cfstrscc	mvf0, [r7], {2}
    1704:	02000000 	andeq	r0, r0, #0
    1708:	004b0601 	subeq	r0, fp, r1, lsl #12
    170c:	02020000 	andeq	r0, r2, #0
    1710:	0000eb05 	andeq	lr, r0, r5, lsl #22
    1714:	05040200 	streq	r0, [r4, #-512]	; 0x200
    1718:	00000005 	andeq	r0, r0, r5
    171c:	00050802 	andeq	r0, r5, r2, lsl #16
    1720:	02000000 	andeq	r0, r0, #0
    1724:	00490801 	subeq	r0, r9, r1, lsl #16
    1728:	02020000 	andeq	r0, r2, #0
    172c:	0000d807 	andeq	sp, r0, r7, lsl #16
    1730:	07040200 	streq	r0, [r4, -r0, lsl #4]
    1734:	00000037 	andeq	r0, r0, r7, lsr r0
    1738:	69050403 	stmdbvs	r5, {r0, r1, sl}
    173c:	0200746e 	andeq	r7, r0, #1845493760	; 0x6e000000
    1740:	01600704 	cmneq	r0, r4, lsl #14
    1744:	01020000 	mrseq	r0, (UNDEF: 2)
    1748:	00005208 	andeq	r5, r0, r8, lsl #4
    174c:	02010400 	andeq	r0, r1, #0, 8
    1750:	0000b20c 	andeq	fp, r0, ip, lsl #4
    1754:	05bc0500 	ldreq	r0, [ip, #1280]!	; 0x500
    1758:	05000000 	streq	r0, [r0, #-0]
    175c:	00000736 	andeq	r0, r0, r6, lsr r7
    1760:	076f0501 	strbeq	r0, [pc, -r1, lsl #10]!
    1764:	05040000 	streq	r0, [r4, #-0]
    1768:	0000077e 	andeq	r0, r0, lr, ror r7
    176c:	078d0505 	streq	r0, [sp, r5, lsl #10]
    1770:	05060000 	streq	r0, [r6, #-0]
    1774:	0000079c 	muleq	r0, ip, r7
    1778:	07ab0507 	streq	r0, [fp, r7, lsl #10]!
    177c:	05030000 	streq	r0, [r3, #-0]
    1780:	000007ba 			; <UNDEFINED> instruction: 0x000007ba
    1784:	63060002 	movwvs	r0, #24578	; 0x6002
    1788:	02000007 	andeq	r0, r0, #7
    178c:	00007915 	andeq	r7, r0, r5, lsl r9
    1790:	07260700 	streq	r0, [r6, -r0, lsl #14]!
    1794:	3f010000 	svccc	0x00010000
    1798:	00008910 	andeq	r8, r0, r0, lsl r9
    179c:	000000d4 	ldrdeq	r0, [r0], -r4
    17a0:	01339c01 	teqeq	r3, r1, lsl #24
    17a4:	70080000 	andvc	r0, r8, r0
    17a8:	01006e69 	tsteq	r0, r9, ror #28
    17ac:	00002c3f 	andeq	r2, r0, pc, lsr ip
    17b0:	0009d900 	andeq	sp, r9, r0, lsl #18
    17b4:	06150900 	ldreq	r0, [r5], -r0, lsl #18
    17b8:	47010000 	strmi	r0, [r1, -r0]
    17bc:	00000133 	andeq	r0, r0, r3, lsr r1
    17c0:	000009f7 	strdeq	r0, [r0], -r7
    17c4:	0007c909 	andeq	ip, r7, r9, lsl #18
    17c8:	2c490100 	stfcse	f0, [r9], {-0}
    17cc:	4c000000 	stcmi	0, cr0, [r0], {-0}
    17d0:	0900000a 	stmdbeq	r0, {r1, r3}
    17d4:	000006d0 	ldrdeq	r0, [r0], -r0	; <UNPREDICTABLE>
    17d8:	002c5701 	eoreq	r5, ip, r1, lsl #14
    17dc:	0c180000 	ldceq	0, cr0, [r8], {-0}
    17e0:	a40a0000 	strge	r0, [sl], #-0
    17e4:	41000089 	smlabbmi	r0, r9, r0, r0
    17e8:	22000008 	andcs	r0, r0, #8
    17ec:	0b000001 	bleq	17f8 <_start-0x6808>
    17f0:	75025001 	strvc	r5, [r2, #-1]
    17f4:	d80c0000 	stmdale	ip, {}	; <UNPREDICTABLE>
    17f8:	62000089 	andvs	r0, r0, #137	; 0x89
    17fc:	0b000008 	bleq	1824 <_start-0x67dc>
    1800:	75025001 	strvc	r5, [r2, #-1]
    1804:	0d000000 	stceq	0, cr0, [r0, #-0]
    1808:	00013904 	andeq	r3, r1, r4, lsl #18
    180c:	002c0e00 	eoreq	r0, ip, r0, lsl #28
    1810:	0c070000 	stceq	0, cr0, [r7], {-0}
    1814:	01000007 	tsteq	r0, r7
    1818:	0089e460 	addeq	lr, r9, r0, ror #8
    181c:	00003800 	andeq	r3, r0, r0, lsl #16
    1820:	969c0100 	ldrls	r0, [ip], r0, lsl #2
    1824:	08000001 	stmdaeq	r0, {r0}
    1828:	006e6970 	rsbeq	r6, lr, r0, ror r9
    182c:	002c6001 	eoreq	r6, ip, r1
    1830:	0c480000 	mareq	acc0, r0, r8
    1834:	15090000 	strne	r0, [r9, #-0]
    1838:	01000006 	tsteq	r0, r6
    183c:	00013367 	andeq	r3, r1, r7, ror #6
    1840:	000c6900 	andeq	r6, ip, r0, lsl #18
    1844:	06d00900 	ldrbeq	r0, [r0], r0, lsl #18
    1848:	68010000 	stmdavs	r1, {}	; <UNPREDICTABLE>
    184c:	0000002c 	andeq	r0, r0, ip, lsr #32
    1850:	00000c9f 	muleq	r0, pc, ip	; <UNPREDICTABLE>
    1854:	008a140c 	addeq	r1, sl, ip, lsl #8
    1858:	00086200 	andeq	r6, r8, r0, lsl #4
    185c:	51010b00 	tstpl	r1, r0, lsl #22
    1860:	01f33107 	mvnseq	r3, r7, lsl #2
    1864:	241a4f50 	ldrcs	r4, [sl], #-3920	; 0xf50
    1868:	cc070000 	stcgt	0, cr0, [r7], {-0}
    186c:	01000005 	tsteq	r0, r5
    1870:	008a1c7b 	addeq	r1, sl, fp, ror ip
    1874:	00003800 	andeq	r3, r0, r0, lsl #16
    1878:	ee9c0100 	fmle	f0, f4, f0
    187c:	08000001 	stmdaeq	r0, {r0}
    1880:	006e6970 	rsbeq	r6, lr, r0, ror r9
    1884:	002c7b01 	eoreq	r7, ip, r1, lsl #22
    1888:	0cdf0000 	ldcleq	0, cr0, [pc], {0}
    188c:	15090000 	strne	r0, [r9, #-0]
    1890:	01000006 	tsteq	r0, r6
    1894:	00013381 	andeq	r3, r1, r1, lsl #7
    1898:	000d0000 	andeq	r0, sp, r0
    189c:	06d00900 	ldrbeq	r0, [r0], r0, lsl #18
    18a0:	82010000 	andhi	r0, r1, #0
    18a4:	0000002c 	andeq	r0, r0, ip, lsr #32
    18a8:	00000d36 	andeq	r0, r0, r6, lsr sp
    18ac:	008a4c0c 	addeq	r4, sl, ip, lsl #24
    18b0:	00086200 	andeq	r6, r8, r0, lsl #4
    18b4:	51010b00 	tstpl	r1, r0, lsl #22
    18b8:	01f33107 	mvnseq	r3, r7, lsl #2
    18bc:	241a4f50 	ldrcs	r4, [sl], #-3920	; 0xf50
    18c0:	0e070000 	cdpeq	0, 0, cr0, cr7, cr0, {0}
    18c4:	01000000 	mrseq	r0, (UNDEF: 0)
    18c8:	008a5495 	umulleq	r5, sl, r5, r4
    18cc:	0000cc00 	andeq	ip, r0, r0, lsl #24
    18d0:	649c0100 	ldrvs	r0, [ip], #256	; 0x100
    18d4:	08000002 	stmdaeq	r0, {r1}
    18d8:	006e6970 	rsbeq	r6, lr, r0, ror r9
    18dc:	002c9501 	eoreq	r9, ip, r1, lsl #10
    18e0:	0d760000 	ldcleq	0, cr0, [r6, #-0]
    18e4:	15090000 	strne	r0, [r9, #-0]
    18e8:	01000006 	tsteq	r0, r6
    18ec:	0001339b 	muleq	r1, fp, r3
    18f0:	000d9400 	andeq	r9, sp, r0, lsl #8
    18f4:	07c90900 	strbeq	r0, [r9, r0, lsl #18]
    18f8:	9d010000 	stcls	0, cr0, [r1, #-0]
    18fc:	0000002c 	andeq	r0, r0, ip, lsr #32
    1900:	00000de9 	andeq	r0, r0, r9, ror #27
    1904:	0006d009 	andeq	sp, r6, r9
    1908:	2cab0100 	stfcss	f0, [fp]
    190c:	b5000000 	strlt	r0, [r0, #-0]
    1910:	0a00000f 	beq	1954 <_start-0x66ac>
    1914:	00008ae8 	andeq	r8, r0, r8, ror #21
    1918:	00000841 	andeq	r0, r0, r1, asr #16
    191c:	00000253 	andeq	r0, r0, r3, asr r2
    1920:	0250010b 	subseq	r0, r0, #-1073741822	; 0xc0000002
    1924:	0c000075 	stceq	0, cr0, [r0], {117}	; 0x75
    1928:	00008b14 	andeq	r8, r0, r4, lsl fp
    192c:	00000862 	andeq	r0, r0, r2, ror #16
    1930:	0250010b 	subseq	r0, r0, #-1073741822	; 0xc0000002
    1934:	00000075 	andeq	r0, r0, r5, ror r0
    1938:	0006640f 	andeq	r6, r6, pc, lsl #8
    193c:	64b30100 	ldrtvs	r0, [r3], #256	; 0x100
    1940:	20000000 	andcs	r0, r0, r0
    1944:	4c00008b 	stcmi	0, cr0, [r0], {139}	; 0x8b
    1948:	01000000 	mrseq	r0, (UNDEF: 0)
    194c:	0002ac9c 	muleq	r2, ip, ip
    1950:	69700800 	ldmdbvs	r0!, {fp}^
    1954:	b301006e 	movwlt	r0, #4206	; 0x106e
    1958:	0000002c 	andeq	r0, r0, ip, lsr #32
    195c:	00000fd3 	ldrdeq	r0, [r0], -r3
    1960:	01007610 	tsteq	r0, r0, lsl r6
    1964:	00002cb9 			; <UNDEFINED> instruction: 0x00002cb9
    1968:	00102b00 	andseq	r2, r0, r0, lsl #22
    196c:	8b401100 	blhi	1005d74 <__bss_end__+0xffbe74>
    1970:	08410000 	stmdaeq	r1, {}^	; <UNPREDICTABLE>
    1974:	50110000 	andspl	r0, r1, r0
    1978:	4100008b 	smlabbmi	r0, fp, r0, r0
    197c:	00000008 	andeq	r0, r0, r8
    1980:	0006d807 	andeq	sp, r6, r7, lsl #16
    1984:	6cc50100 	stfvse	f0, [r5], {0}
    1988:	2400008b 	strcs	r0, [r0], #-139	; 0x8b
    198c:	01000000 	mrseq	r0, (UNDEF: 0)
    1990:	0002fc9c 	muleq	r2, ip, ip
    1994:	69700800 	ldmdbvs	r0!, {fp}^
    1998:	c501006e 	strgt	r0, [r1, #-110]	; 0x6e
    199c:	0000002c 	andeq	r0, r0, ip, lsr #32
    19a0:	00001061 	andeq	r1, r0, r1, rrx
    19a4:	01007608 	tsteq	r0, r8, lsl #12
    19a8:	00002cc5 	andeq	r2, r0, r5, asr #25
    19ac:	00109b00 	andseq	r9, r0, r0, lsl #22
    19b0:	8b840a00 	blhi	fe1041b8 <__bss_end__+0xfe0fa2b8>
    19b4:	013e0000 	teqeq	lr, r0
    19b8:	02f20000 	rscseq	r0, r2, #0
    19bc:	010b0000 	mrseq	r0, (UNDEF: 11)
    19c0:	01f30350 	mvnseq	r0, r0, asr r3
    19c4:	8c110050 	ldchi	0, cr0, [r1], {80}	; 0x50
    19c8:	9600008b 	strls	r0, [r0], -fp, lsl #1
    19cc:	00000001 	andeq	r0, r0, r1
    19d0:	00068307 	andeq	r8, r6, r7, lsl #6
    19d4:	90d10100 	sbcsls	r0, r1, r0, lsl #2
    19d8:	d800008b 	stmdale	r0, {r0, r1, r3, r7}
    19dc:	01000000 	mrseq	r0, (UNDEF: 0)
    19e0:	0003819c 	muleq	r3, ip, r1
    19e4:	69700800 	ldmdbvs	r0!, {fp}^
    19e8:	d101006e 	tstle	r1, lr, rrx
    19ec:	0000002c 	andeq	r0, r0, ip, lsr #32
    19f0:	000010d5 	ldrdeq	r1, [r0], -r5
    19f4:	0006ed12 	andeq	lr, r6, r2, lsl sp
    19f8:	b2d10100 	sbcslt	r0, r1, #0, 2
    19fc:	f3000000 	vhadd.u8	d0, d0, d0
    1a00:	09000010 	stmdbeq	r0, {r4}
    1a04:	00000615 	andeq	r0, r0, r5, lsl r6
    1a08:	0133d901 	teqeq	r3, r1, lsl #18
    1a0c:	11140000 	tstne	r4, r0
    1a10:	c9090000 	stmdbgt	r9, {}	; <UNPREDICTABLE>
    1a14:	01000007 	tsteq	r0, r7
    1a18:	00002cda 	ldrdeq	r2, [r0], -sl
    1a1c:	00116900 	andseq	r6, r1, r0, lsl #18
    1a20:	06d00900 	ldrbeq	r0, [r0], r0, lsl #18
    1a24:	e8010000 	stmda	r1, {}	; <UNPREDICTABLE>
    1a28:	0000002c 	andeq	r0, r0, ip, lsr #32
    1a2c:	00001335 	andeq	r1, r0, r5, lsr r3
    1a30:	008c2c0a 	addeq	r2, ip, sl, lsl #24
    1a34:	00084100 	andeq	r4, r8, r0, lsl #2
    1a38:	00037000 	andeq	r7, r3, r0
    1a3c:	50010b00 	andpl	r0, r1, r0, lsl #22
    1a40:	00007602 	andeq	r7, r0, r2, lsl #12
    1a44:	008c5c0c 	addeq	r5, ip, ip, lsl #24
    1a48:	00086200 	andeq	r6, r8, r0, lsl #4
    1a4c:	50010b00 	andpl	r0, r1, r0, lsl #22
    1a50:	00007602 	andeq	r7, r0, r2, lsl #12
    1a54:	06f20700 	ldrbteq	r0, [r2], r0, lsl #14
    1a58:	f1010000 	setend	le
    1a5c:	00008c68 	andeq	r8, r0, r8, ror #24
    1a60:	00000038 	andeq	r0, r0, r8, lsr r0
    1a64:	03d99c01 	bicseq	r9, r9, #256	; 0x100
    1a68:	70080000 	andvc	r0, r8, r0
    1a6c:	01006e69 	tsteq	r0, r9, ror #28
    1a70:	00002cf1 	strdeq	r2, [r0], -r1
    1a74:	00136600 	andseq	r6, r3, r0, lsl #12
    1a78:	06150900 	ldreq	r0, [r5], -r0, lsl #18
    1a7c:	f7010000 			; <UNDEFINED> instruction: 0xf7010000
    1a80:	00000133 	andeq	r0, r0, r3, lsr r1
    1a84:	00001387 	andeq	r1, r0, r7, lsl #7
    1a88:	0006d009 	andeq	sp, r6, r9
    1a8c:	2cf80100 	ldfcse	f0, [r8]
    1a90:	bd000000 	stclt	0, cr0, [r0, #-0]
    1a94:	0c000013 	stceq	0, cr0, [r0], {19}
    1a98:	00008c98 	muleq	r0, r8, ip
    1a9c:	00000862 	andeq	r0, r0, r2, ror #16
    1aa0:	0751010b 	ldrbeq	r0, [r1, -fp, lsl #2]
    1aa4:	5001f331 	andpl	pc, r1, r1, lsr r3	; <UNPREDICTABLE>
    1aa8:	00241a4f 	eoreq	r1, r4, pc, asr #20
    1aac:	05b01300 	ldreq	r1, [r0, #768]!	; 0x300
    1ab0:	1f010000 	svcne	0x00010000
    1ab4:	00006401 	andeq	r6, r0, r1, lsl #8
    1ab8:	008ca000 	addeq	sl, ip, r0
    1abc:	00002c00 	andeq	r2, r0, r0, lsl #24
    1ac0:	0d9c0100 	ldfeqs	f0, [ip]
    1ac4:	14000004 	strne	r0, [r0], #-4
    1ac8:	000005b3 			; <UNDEFINED> instruction: 0x000005b3
    1acc:	2c011f01 	stccs	15, cr1, [r1], {1}
    1ad0:	fd000000 	stc2	0, cr0, [r0, #-0]
    1ad4:	11000013 	tstne	r0, r3, lsl r0
    1ad8:	00008cb0 			; <UNDEFINED> instruction: 0x00008cb0
    1adc:	00000841 	andeq	r0, r0, r1, asr #16
    1ae0:	066e1500 	strbteq	r1, [lr], -r0, lsl #10
    1ae4:	2e010000 	cdpcs	0, 0, cr0, cr1, cr0, {0}
    1ae8:	008ccc01 	addeq	ip, ip, r1, lsl #24
    1aec:	00008400 	andeq	r8, r0, r0, lsl #8
    1af0:	d19c0100 	orrsle	r0, ip, r0, lsl #2
    1af4:	16000004 	strne	r0, [r0], -r4
    1af8:	006e6970 	rsbeq	r6, lr, r0, ror r9
    1afc:	2c012e01 	stccs	14, cr2, [r1], {1}
    1b00:	1e000000 	cdpne	0, 0, cr0, cr0, cr0, {0}
    1b04:	17000014 	smladne	r0, r4, r0, r0
    1b08:	000005e7 	andeq	r0, r0, r7, ror #11
    1b0c:	2c014001 	stccs	0, cr4, [r1], {1}
    1b10:	4a000000 	bmi	1b18 <_start-0x64e8>
    1b14:	18000014 	stmdane	r0, {r2, r4}
    1b18:	00008ce8 	andeq	r8, r0, r8, ror #25
    1b1c:	0000001c 	andeq	r0, r0, ip, lsl r0
    1b20:	00000473 	andeq	r0, r0, r3, ror r4
    1b24:	0006d017 	andeq	sp, r6, r7, lsl r0
    1b28:	01370100 	teqeq	r7, r0, lsl #2
    1b2c:	0000002c 	andeq	r0, r0, ip, lsr #32
    1b30:	00001468 	andeq	r1, r0, r8, ror #8
    1b34:	008cf411 	addeq	pc, ip, r1, lsl r4	; <UNPREDICTABLE>
    1b38:	00084100 	andeq	r4, r8, r0, lsl #2
    1b3c:	8d041100 	stfhis	f1, [r4, #-0]
    1b40:	08620000 	stmdaeq	r2!, {}^	; <UNPREDICTABLE>
    1b44:	18000000 	stmdane	r0, {}	; <UNPREDICTABLE>
    1b48:	00008d08 	andeq	r8, r0, r8, lsl #26
    1b4c:	00000020 	andeq	r0, r0, r0, lsr #32
    1b50:	000004a3 	andeq	r0, r0, r3, lsr #9
    1b54:	0006d017 	andeq	sp, r6, r7, lsl r0
    1b58:	013b0100 	teqeq	fp, r0, lsl #2
    1b5c:	0000002c 	andeq	r0, r0, ip, lsr #32
    1b60:	00001486 	andeq	r1, r0, r6, lsl #9
    1b64:	008d1411 	addeq	r1, sp, r1, lsl r4
    1b68:	00084100 	andeq	r4, r8, r0, lsl #2
    1b6c:	8d281100 	stfhis	f1, [r8, #-0]
    1b70:	08620000 	stmdaeq	r2!, {}^	; <UNPREDICTABLE>
    1b74:	11000000 	mrsne	r0, (UNDEF: 0)
    1b78:	00008ce0 	andeq	r8, r0, r0, ror #25
    1b7c:	0000087e 	andeq	r0, r0, lr, ror r8
    1b80:	008d2c11 	addeq	r2, sp, r1, lsl ip
    1b84:	00087e00 	andeq	r7, r8, r0, lsl #28
    1b88:	8d381100 	ldfhis	f1, [r8, #-0]
    1b8c:	08410000 	stmdaeq	r1, {}^	; <UNPREDICTABLE>
    1b90:	44110000 	ldrmi	r0, [r1], #-0
    1b94:	6200008d 	andvs	r0, r0, #141	; 0x8d
    1b98:	11000008 	tstne	r0, r8
    1b9c:	00008d48 	andeq	r8, r0, r8, asr #26
    1ba0:	0000087e 	andeq	r0, r0, lr, ror r8
    1ba4:	074d1500 	strbeq	r1, [sp, -r0, lsl #10]
    1ba8:	4b010000 	blmi	41bb0 <__bss_end__+0x37cb0>
    1bac:	008d5001 	addeq	r5, sp, r1
    1bb0:	00008400 	andeq	r8, r0, r0, lsl #8
    1bb4:	959c0100 	ldrls	r0, [ip, #256]	; 0x100
    1bb8:	16000005 	strne	r0, [r0], -r5
    1bbc:	006e6970 	rsbeq	r6, lr, r0, ror r9
    1bc0:	2c014b01 	stccs	11, cr4, [r1], {1}
    1bc4:	a4000000 	strge	r0, [r0], #-0
    1bc8:	17000014 	smladne	r0, r4, r0, r0
    1bcc:	000005e7 	andeq	r0, r0, r7, ror #11
    1bd0:	2c015c01 	stccs	12, cr5, [r1], {1}
    1bd4:	d0000000 	andle	r0, r0, r0
    1bd8:	18000014 	stmdane	r0, {r2, r4}
    1bdc:	00008d6c 	andeq	r8, r0, ip, ror #26
    1be0:	0000001c 	andeq	r0, r0, ip, lsl r0
    1be4:	00000537 	andeq	r0, r0, r7, lsr r5
    1be8:	0006d017 	andeq	sp, r6, r7, lsl r0
    1bec:	01530100 	cmpeq	r3, r0, lsl #2
    1bf0:	0000002c 	andeq	r0, r0, ip, lsr #32
    1bf4:	000014ee 	andeq	r1, r0, lr, ror #9
    1bf8:	008d7811 	addeq	r7, sp, r1, lsl r8
    1bfc:	00084100 	andeq	r4, r8, r0, lsl #2
    1c00:	8d881100 	stfhis	f1, [r8]
    1c04:	08620000 	stmdaeq	r2!, {}^	; <UNPREDICTABLE>
    1c08:	18000000 	stmdane	r0, {}	; <UNPREDICTABLE>
    1c0c:	00008d8c 	andeq	r8, r0, ip, lsl #27
    1c10:	00000020 	andeq	r0, r0, r0, lsr #32
    1c14:	00000567 	andeq	r0, r0, r7, ror #10
    1c18:	0006d017 	andeq	sp, r6, r7, lsl r0
    1c1c:	01570100 	cmpeq	r7, r0, lsl #2
    1c20:	0000002c 	andeq	r0, r0, ip, lsr #32
    1c24:	0000150c 	andeq	r1, r0, ip, lsl #10
    1c28:	008d9811 	addeq	r9, sp, r1, lsl r8
    1c2c:	00084100 	andeq	r4, r8, r0, lsl #2
    1c30:	8dac1100 	stfhis	f1, [ip]
    1c34:	08620000 	stmdaeq	r2!, {}^	; <UNPREDICTABLE>
    1c38:	11000000 	mrsne	r0, (UNDEF: 0)
    1c3c:	00008d64 	andeq	r8, r0, r4, ror #26
    1c40:	0000087e 	andeq	r0, r0, lr, ror r8
    1c44:	008db011 	addeq	fp, sp, r1, lsl r0
    1c48:	00087e00 	andeq	r7, r8, r0, lsl #28
    1c4c:	8dbc1100 	ldfhis	f1, [ip]
    1c50:	08410000 	stmdaeq	r1, {}^	; <UNPREDICTABLE>
    1c54:	c8110000 	ldmdagt	r1, {}	; <UNPREDICTABLE>
    1c58:	6200008d 	andvs	r0, r0, #141	; 0x8d
    1c5c:	11000008 	tstne	r0, r8
    1c60:	00008dcc 	andeq	r8, r0, ip, asr #27
    1c64:	0000087e 	andeq	r0, r0, lr, ror r8
    1c68:	057f1300 	ldrbeq	r1, [pc, #-768]!	; 1970 <_start-0x6690>
    1c6c:	66010000 	strvs	r0, [r1], -r0
    1c70:	00006401 	andeq	r6, r0, r1, lsl #8
    1c74:	008dd400 	addeq	sp, sp, r0, lsl #8
    1c78:	00008400 	andeq	r8, r0, r0, lsl #8
    1c7c:	3b9c0100 	blcc	fe702084 <__bss_end__+0xfe6f8184>
    1c80:	16000006 	strne	r0, [r0], -r6
    1c84:	006e6970 	rsbeq	r6, lr, r0, ror r9
    1c88:	2c016601 	stccs	6, cr6, [r1], {1}
    1c8c:	2a000000 	bcs	1c94 <_start-0x636c>
    1c90:	18000015 	stmdane	r0, {r0, r2, r4}
    1c94:	00008df0 	strdeq	r8, [r0], -r0
    1c98:	00000024 	andeq	r0, r0, r4, lsr #32
    1c9c:	000005ef 	andeq	r0, r0, pc, ror #11
    1ca0:	0005fe17 	andeq	pc, r5, r7, lsl lr	; <UNPREDICTABLE>
    1ca4:	016d0100 	cmneq	sp, r0, lsl #2
    1ca8:	0000002c 	andeq	r0, r0, ip, lsr #32
    1cac:	0000156c 	andeq	r1, r0, ip, ror #10
    1cb0:	008dfc11 	addeq	pc, sp, r1, lsl ip	; <UNPREDICTABLE>
    1cb4:	00084100 	andeq	r4, r8, r0, lsl #2
    1cb8:	8e0c1100 	adfhie	f1, f4, f0
    1cbc:	087e0000 	ldmdaeq	lr!, {}^	; <UNPREDICTABLE>
    1cc0:	18000000 	stmdane	r0, {}	; <UNPREDICTABLE>
    1cc4:	00008e14 	andeq	r8, r0, r4, lsl lr
    1cc8:	0000002c 	andeq	r0, r0, ip, lsr #32
    1ccc:	00000628 	andeq	r0, r0, r8, lsr #12
    1cd0:	0005fe17 	andeq	pc, r5, r7, lsl lr	; <UNPREDICTABLE>
    1cd4:	01700100 	cmneq	r0, r0, lsl #2
    1cd8:	0000002c 	andeq	r0, r0, ip, lsr #32
    1cdc:	00001586 	andeq	r1, r0, r6, lsl #11
    1ce0:	008e2011 	addeq	r2, lr, r1, lsl r0
    1ce4:	00084100 	andeq	r4, r8, r0, lsl #2
    1ce8:	8e2c1100 	sufhie	f1, f4, f0
    1cec:	087e0000 	ldmdaeq	lr!, {}^	; <UNPREDICTABLE>
    1cf0:	38110000 	ldmdacc	r1, {}	; <UNPREDICTABLE>
    1cf4:	7e00008e 	cdpvc	0, 0, cr0, cr0, cr14, {4}
    1cf8:	00000008 	andeq	r0, r0, r8
    1cfc:	008de811 	addeq	lr, sp, r1, lsl r8
    1d00:	00087e00 	andeq	r7, r8, r0, lsl #28
    1d04:	8e441100 	dvfhis	f1, f4, f0
    1d08:	087e0000 	ldmdaeq	lr!, {}^	; <UNPREDICTABLE>
    1d0c:	15000000 	strne	r0, [r0, #-0]
    1d10:	000006a3 	andeq	r0, r0, r3, lsr #13
    1d14:	58017901 	stmdapl	r1, {r0, r8, fp, ip, sp, lr}
    1d18:	5800008e 	stmdapl	r0, {r1, r2, r3, r7}
    1d1c:	01000000 	mrseq	r0, (UNDEF: 0)
    1d20:	0006a09c 	muleq	r6, ip, r0
    1d24:	69701600 	ldmdbvs	r0!, {r9, sl, ip}^
    1d28:	7901006e 	stmdbvc	r1, {r1, r2, r3, r5, r6}
    1d2c:	00002c01 	andeq	r2, r0, r1, lsl #24
    1d30:	00159900 	andseq	r9, r5, r0, lsl #18
    1d34:	8e6c1100 	powhie	f1, f4, f0
    1d38:	087e0000 	ldmdaeq	lr!, {}^	; <UNPREDICTABLE>
    1d3c:	880a0000 	stmdahi	sl, {}	; <UNPREDICTABLE>
    1d40:	6200008e 	andvs	r0, r0, #142	; 0x8e
    1d44:	80000008 	andhi	r0, r0, r8
    1d48:	0b000006 	bleq	1d68 <_start-0x6298>
    1d4c:	31045101 	tstcc	r4, r1, lsl #2
    1d50:	00240074 	eoreq	r0, r4, r4, ror r0
    1d54:	008ea40a 	addeq	sl, lr, sl, lsl #8
    1d58:	00086200 	andeq	r6, r8, r0, lsl #4
    1d5c:	00069600 	andeq	r9, r6, r0, lsl #12
    1d60:	51010b00 	tstpl	r1, r0, lsl #22
    1d64:	00743104 	rsbseq	r3, r4, r4, lsl #2
    1d68:	a8110024 	ldmdage	r1, {r2, r5}
    1d6c:	7e00008e 	cdpvc	0, 0, cr0, cr0, cr14, {4}
    1d70:	00000008 	andeq	r0, r0, r8
    1d74:	00065219 	andeq	r5, r6, r9, lsl r2
    1d78:	33280100 	teqcc	r8, #0, 2
    1d7c:	05000001 	streq	r0, [r0, #-1]
    1d80:	0097b003 	addseq	fp, r7, r3
    1d84:	06e31900 	strbteq	r1, [r3], r0, lsl #18
    1d88:	29010000 	stmdbcs	r1, {}	; <UNPREDICTABLE>
    1d8c:	00000133 	andeq	r0, r0, r3, lsr r1
    1d90:	97ac0305 	strls	r0, [ip, r5, lsl #6]!
    1d94:	d4190000 	ldrle	r0, [r9], #-0
    1d98:	01000007 	tsteq	r0, r7
    1d9c:	0001332a 	andeq	r3, r1, sl, lsr #6
    1da0:	a8030500 	stmdage	r3, {r8, sl}
    1da4:	19000097 	stmdbne	r0, {r0, r1, r2, r4, r7}
    1da8:	0000061e 	andeq	r0, r0, lr, lsl r6
    1dac:	01332c01 	teqeq	r3, r1, lsl #24
    1db0:	03050000 	movweq	r0, #20480	; 0x5000
    1db4:	00009754 	andeq	r9, r0, r4, asr r7
    1db8:	00062619 	andeq	r2, r6, r9, lsl r6
    1dbc:	332d0100 	teqcc	sp, #0, 2
    1dc0:	05000001 	streq	r0, [r0, #-1]
    1dc4:	00975803 	addseq	r5, r7, r3, lsl #16
    1dc8:	05931900 	ldreq	r1, [r3, #2304]	; 0x900
    1dcc:	2e010000 	cdpcs	0, 0, cr0, cr1, cr0, {0}
    1dd0:	00000133 	andeq	r0, r0, r3, lsr r1
    1dd4:	975c0305 	ldrbls	r0, [ip, -r5, lsl #6]
    1dd8:	2e190000 	cdpcs	0, 1, cr0, cr9, cr0, {0}
    1ddc:	01000006 	tsteq	r0, r6
    1de0:	0001332f 	andeq	r3, r1, pc, lsr #6
    1de4:	60030500 	andvs	r0, r3, r0, lsl #10
    1de8:	19000097 	stmdbne	r0, {r0, r1, r2, r4, r7}
    1dec:	00000636 	andeq	r0, r0, r6, lsr r6
    1df0:	01333001 	teqeq	r3, r1
    1df4:	03050000 	movweq	r0, #20480	; 0x5000
    1df8:	00009764 	andeq	r9, r0, r4, ror #14
    1dfc:	00063e19 	andeq	r3, r6, r9, lsl lr
    1e00:	33310100 	teqcc	r1, #0, 2
    1e04:	05000001 	streq	r0, [r0, #-1]
    1e08:	00976803 	addseq	r6, r7, r3, lsl #16
    1e0c:	05f01900 	ldrbeq	r1, [r0, #2304]!	; 0x900
    1e10:	33010000 	movwcc	r0, #4096	; 0x1000
    1e14:	00000133 	andeq	r0, r0, r3, lsr r1
    1e18:	976c0305 	strbls	r0, [ip, -r5, lsl #6]!
    1e1c:	f7190000 			; <UNDEFINED> instruction: 0xf7190000
    1e20:	01000005 	tsteq	r0, r5
    1e24:	00013334 	andeq	r3, r1, r4, lsr r3
    1e28:	70030500 	andvc	r0, r3, r0, lsl #10
    1e2c:	19000097 	stmdbne	r0, {r0, r1, r2, r4, r7}
    1e30:	0000059b 	muleq	r0, fp, r5
    1e34:	01333601 	teqeq	r3, r1, lsl #12
    1e38:	03050000 	movweq	r0, #20480	; 0x5000
    1e3c:	00009774 	andeq	r9, r0, r4, ror r7
    1e40:	00065d19 	andeq	r5, r6, r9, lsl sp
    1e44:	33370100 	teqcc	r7, #0, 2
    1e48:	05000001 	streq	r0, [r0, #-1]
    1e4c:	00977803 	addseq	r7, r7, r3, lsl #16
    1e50:	06071900 	streq	r1, [r7], -r0, lsl #18
    1e54:	39010000 	stmdbcc	r1, {}	; <UNPREDICTABLE>
    1e58:	00000133 	andeq	r0, r0, r3, lsr r1
    1e5c:	977c0305 	ldrbls	r0, [ip, -r5, lsl #6]!
    1e60:	0e190000 	cdpeq	0, 1, cr0, cr9, cr0, {0}
    1e64:	01000006 	tsteq	r0, r6
    1e68:	0001333a 	andeq	r3, r1, sl, lsr r3
    1e6c:	80030500 	andhi	r0, r3, r0, lsl #10
    1e70:	1a000097 	bne	20d4 <_start-0x5f2c>
    1e74:	000006b4 			; <UNDEFINED> instruction: 0x000006b4
    1e78:	33010a01 	movwcc	r0, #6657	; 0x1a01
    1e7c:	05000001 	streq	r0, [r0, #-1]
    1e80:	0097a403 	addseq	sl, r7, r3, lsl #8
    1e84:	06c21a00 	strbeq	r1, [r2], r0, lsl #20
    1e88:	0b010000 	bleq	41e90 <__bss_end__+0x37f90>
    1e8c:	00013301 	andeq	r3, r1, r1, lsl #6
    1e90:	84030500 	strhi	r0, [r3], #-1280	; 0x500
    1e94:	1a000097 	bne	20f8 <_start-0x5f08>
    1e98:	000006fe 	strdeq	r0, [r0], -lr
    1e9c:	33010d01 	movwcc	r0, #7425	; 0x1d01
    1ea0:	05000001 	streq	r0, [r0, #-1]
    1ea4:	00979c03 	addseq	r9, r7, r3, lsl #24
    1ea8:	07051a00 	streq	r1, [r5, -r0, lsl #20]
    1eac:	0e010000 	cdpeq	0, 0, cr0, cr1, cr0, {0}
    1eb0:	00013301 	andeq	r3, r1, r1, lsl #6
    1eb4:	a0030500 	andge	r0, r3, r0, lsl #10
    1eb8:	1a000097 	bne	211c <_start-0x5ee4>
    1ebc:	00000695 	muleq	r0, r5, r6
    1ec0:	33011001 	movwcc	r1, #4097	; 0x1001
    1ec4:	05000001 	streq	r0, [r0, #-1]
    1ec8:	00978803 	addseq	r8, r7, r3, lsl #16
    1ecc:	069c1a00 	ldreq	r1, [ip], r0, lsl #20
    1ed0:	11010000 	mrsne	r0, (UNDEF: 1)
    1ed4:	00013301 	andeq	r3, r1, r1, lsl #6
    1ed8:	8c030500 	cfstr32hi	mvfx0, [r3], {-0}
    1edc:	1a000097 	bne	2140 <_start-0x5ec0>
    1ee0:	00000718 	andeq	r0, r0, r8, lsl r7
    1ee4:	33011301 	movwcc	r1, #4865	; 0x1301
    1ee8:	05000001 	streq	r0, [r0, #-1]
    1eec:	00979403 	addseq	r9, r7, r3, lsl #8
    1ef0:	071f1a00 	ldreq	r1, [pc, -r0, lsl #20]
    1ef4:	14010000 	strne	r0, [r1], #-0
    1ef8:	00013301 	andeq	r3, r1, r1, lsl #6
    1efc:	98030500 	stmdals	r3, {r8, sl}
    1f00:	1a000097 	bne	2164 <_start-0x5e9c>
    1f04:	000005a2 	andeq	r0, r0, r2, lsr #11
    1f08:	33011601 	movwcc	r1, #5633	; 0x1601
    1f0c:	05000001 	streq	r0, [r0, #-1]
    1f10:	00979003 	addseq	r9, r7, r3
    1f14:	07471b00 	strbeq	r1, [r7, -r0, lsl #22]
    1f18:	20010000 	andcs	r0, r1, r0
    1f1c:	0000002c 	andeq	r0, r0, ip, lsr #32
    1f20:	00000856 	andeq	r0, r0, r6, asr r8
    1f24:	0008561c 	andeq	r5, r8, ip, lsl r6
    1f28:	040d0000 	streq	r0, [sp], #-0
    1f2c:	0000085c 	andeq	r0, r0, ip, asr r8
    1f30:	0008611d 	andeq	r6, r8, sp, lsl r1
    1f34:	9c1f1e00 	ldcls	14, cr1, [pc], {-0}
    1f38:	01000001 	tsteq	r0, r1
    1f3c:	0008781e 	andeq	r7, r8, lr, lsl r8
    1f40:	08781c00 	ldmdaeq	r8!, {sl, fp, ip}^
    1f44:	2c1c0000 	ldccs	0, cr0, [ip], {-0}
    1f48:	00000000 	andeq	r0, r0, r0
    1f4c:	0861040d 	stmdaeq	r1!, {r0, r2, r3, sl}^
    1f50:	46200000 	strtmi	r0, [r0], -r0
    1f54:	03000006 	movweq	r0, #6
    1f58:	11f2008a 	mvnsne	r0, sl, lsl #1
    1f5c:	00040000 	andeq	r0, r4, r0
    1f60:	00000ce7 	andeq	r0, r0, r7, ror #25
    1f64:	02030104 	andeq	r0, r3, #4, 2
    1f68:	73010000 	movwvc	r0, #4096	; 0x1000
    1f6c:	6e000008 	cdpvs	0, 0, cr0, cr0, cr8, {0}
    1f70:	b0000002 	andlt	r0, r0, r2
    1f74:	6800008e 	stmdavs	r0, {r1, r2, r3, r7}
    1f78:	1f000006 	svcne	0x00000006
    1f7c:	0200000a 	andeq	r0, r0, #10
    1f80:	6e690504 	cdpvs	5, 6, cr0, cr9, cr4, {0}
    1f84:	04030074 	streq	r0, [r3], #-116	; 0x74
    1f88:	00003c07 	andeq	r3, r0, r7, lsl #24
    1f8c:	06010300 	streq	r0, [r1], -r0, lsl #6
    1f90:	0000004b 	andeq	r0, r0, fp, asr #32
    1f94:	eb050203 	bl	1427a8 <__bss_end__+0x1388a8>
    1f98:	03000000 	movweq	r0, #0
    1f9c:	00050504 	andeq	r0, r5, r4, lsl #10
    1fa0:	08030000 	stmdaeq	r3, {}	; <UNPREDICTABLE>
    1fa4:	00000005 	andeq	r0, r0, r5
    1fa8:	04470400 	strbeq	r0, [r7], #-1024	; 0x400
    1fac:	2e030000 	cdpcs	0, 0, cr0, cr3, cr0, {0}
    1fb0:	0000005a 	andeq	r0, r0, sl, asr r0
    1fb4:	49080103 	stmdbmi	r8, {r0, r1, r8}
    1fb8:	03000000 	movweq	r0, #0
    1fbc:	00d80702 	sbcseq	r0, r8, r2, lsl #14
    1fc0:	9e040000 	cdpls	0, 0, cr0, cr4, cr0, {0}
    1fc4:	03000004 	movweq	r0, #4
    1fc8:	00007334 	andeq	r7, r0, r4, lsr r3
    1fcc:	07040300 	streq	r0, [r4, -r0, lsl #6]
    1fd0:	00000037 	andeq	r0, r0, r7, lsr r0
    1fd4:	32070803 	andcc	r0, r7, #196608	; 0x30000
    1fd8:	03000000 	movweq	r0, #0
    1fdc:	01600704 	cmneq	r0, r4, lsl #14
    1fe0:	04050000 	streq	r0, [r5], #-0
    1fe4:	00900406 	addseq	r0, r0, r6, lsl #8
    1fe8:	01030000 	mrseq	r0, (UNDEF: 3)
    1fec:	00005208 	andeq	r5, r0, r8, lsl #4
    1ff0:	9d040600 	stcls	6, cr0, [r4, #-0]
    1ff4:	07000000 	streq	r0, [r0, -r0]
    1ff8:	00000090 	muleq	r0, r0, r0
    1ffc:	0e040c08 	cdpeq	12, 0, cr0, cr4, cr8, {0}
    2000:	000000d9 	ldrdeq	r0, [r0], -r9
    2004:	00787409 	rsbseq	r7, r8, r9, lsl #8
    2008:	004f0f04 	subeq	r0, pc, r4, lsl #30
    200c:	09000000 	stmdbeq	r0, {}	; <UNPREDICTABLE>
    2010:	04007872 	streq	r7, [r0], #-2162	; 0x872
    2014:	00004f0f 	andeq	r4, r0, pc, lsl #30
    2018:	150a0100 	strne	r0, [sl, #-256]	; 0x100
    201c:	04000004 	streq	r0, [r0], #-4
    2020:	00006810 	andeq	r6, r0, r0, lsl r8
    2024:	c60a0400 	strgt	r0, [sl], -r0, lsl #8
    2028:	04000003 	streq	r0, [r0], #-3
    202c:	00006811 	andeq	r6, r0, r1, lsl r8
    2030:	04000800 	streq	r0, [r0], #-2048	; 0x800
    2034:	000003fe 	strdeq	r0, [r0], -lr
    2038:	00a21204 	adceq	r1, r2, r4, lsl #4
    203c:	e6040000 	str	r0, [r4], -r0
    2040:	05000001 	streq	r0, [r0, #-1]
    2044:	0000ef28 	andeq	lr, r0, r8, lsr #30
    2048:	02640b00 	rsbeq	r0, r4, #0, 22
    204c:	09040000 	stmdbeq	r4, {}	; <UNPREDICTABLE>
    2050:	00010600 	andeq	r0, r1, r0, lsl #12
    2054:	02b70c00 	adcseq	r0, r7, #0, 24
    2058:	00880000 	addeq	r0, r8, r0
    205c:	00000000 	andeq	r0, r0, r0
    2060:	00026604 	andeq	r6, r2, r4, lsl #12
    2064:	e4620500 	strbt	r0, [r2], #-1280	; 0x500
    2068:	0d000000 	stceq	0, cr0, [r0, #-0]
    206c:	00000837 	andeq	r0, r0, r7, lsr r8
    2070:	3f030902 	svccc	0x00030902
    2074:	0e000001 	cdpeq	0, 0, cr0, cr0, cr1, {0}
    2078:	00000429 	andeq	r0, r0, r9, lsr #8
    207c:	002c0902 	eoreq	r0, ip, r2, lsl #18
    2080:	6e0f0000 	cdpvs	0, 0, cr0, cr15, cr0, {0}
    2084:	2c090200 	sfmcs	f0, 4, [r9], {-0}
    2088:	10000000 	andne	r0, r0, r0
    208c:	0001c511 	andeq	ip, r1, r1, lsl r5
    2090:	2c0c0200 	sfmcs	f0, 4, [ip], {-0}
    2094:	00000000 	andeq	r0, r0, r0
    2098:	07ea0d00 	strbeq	r0, [sl, r0, lsl #26]!
    209c:	17020000 	strne	r0, [r2, -r0]
    20a0:	00017603 	andeq	r7, r1, r3, lsl #12
    20a4:	69700f00 	ldmdbvs	r0!, {r8, r9, sl, fp}^
    20a8:	1702006e 	strne	r0, [r2, -lr, rrx]
    20ac:	0000002c 	andeq	r0, r0, ip, lsr #32
    20b0:	0200760f 	andeq	r7, r0, #15728640	; 0xf00000
    20b4:	00002c17 	andeq	r2, r0, r7, lsl ip
    20b8:	04290e00 	strteq	r0, [r9], #-3584	; 0xe00
    20bc:	17020000 	strne	r0, [r2, -r0]
    20c0:	0000002c 	andeq	r0, r0, ip, lsr #32
    20c4:	00083d0e 	andeq	r3, r8, lr, lsl #26
    20c8:	2c170200 	lfmcs	f0, 4, [r7], {-0}
    20cc:	00000000 	andeq	r0, r0, r0
    20d0:	00043a12 	andeq	r3, r4, r2, lsl sl
    20d4:	b0090100 	andlt	r0, r9, r0, lsl #2
    20d8:	5400008e 	strpl	r0, [r0], #-142	; 0x8e
    20dc:	01000001 	tsteq	r0, r1
    20e0:	0007229c 	muleq	r7, ip, r2
    20e4:	03dc1300 	bicseq	r1, ip, #0, 6
    20e8:	09010000 	stmdbeq	r1, {}	; <UNPREDICTABLE>
    20ec:	00000722 	andeq	r0, r0, r2, lsr #14
    20f0:	000015c5 	andeq	r1, r0, r5, asr #11
    20f4:	01006314 	tsteq	r0, r4, lsl r3
    20f8:	00005a09 	andeq	r5, r0, r9, lsl #20
    20fc:	0015e600 	andseq	lr, r5, r0, lsl #12
    2100:	78741500 	ldmdavc	r4!, {r8, sl, ip}^
    2104:	250b0100 	strcs	r0, [fp, #-256]	; 0x100
    2108:	06000000 	streq	r0, [r0], -r0
    210c:	ff080076 			; <UNDEFINED> instruction: 0xff080076
    2110:	6e169f1a 	mrcvs	15, 0, r9, cr6, cr10, {0}
    2114:	680c0100 	stmdavs	ip, {r8}
    2118:	07000000 	streq	r0, [r0, -r0]
    211c:	16000016 			; <UNDEFINED> instruction: 0x16000016
    2120:	0d010075 	stceq	0, cr0, [r1, #-468]	; 0xfffffe2c
    2124:	00000068 	andeq	r0, r0, r8, rrx
    2128:	0000161a 	andeq	r1, r0, sl, lsl r6
    212c:	01007315 	tsteq	r0, r5, lsl r3
    2130:	0000680e 	andeq	r6, r0, lr, lsl #16
    2134:	17540100 	ldrbne	r0, [r4, -r0, lsl #2]
    2138:	00008ec0 	andeq	r8, r0, r0, asr #29
    213c:	00000004 	andeq	r0, r0, r4
    2140:	000001f8 	strdeq	r0, [r0], -r8
    2144:	0001c518 	andeq	ip, r1, r8, lsl r5
    2148:	2c0e0100 	stfcss	f0, [lr], {-0}
    214c:	01000000 	mrseq	r0, (UNDEF: 0)
    2150:	3f190054 	svccc	0x00190054
    2154:	c4000001 	strgt	r0, [r0], #-1
    2158:	1c00008e 	stcne	0, cr0, [r0], {142}	; 0x8e
    215c:	01000000 	mrseq	r0, (UNDEF: 0)
    2160:	00027511 	andeq	r7, r2, r1, lsl r5
    2164:	016a1a00 	cmneq	sl, r0, lsl #20
    2168:	16430000 	strbne	r0, [r3], -r0
    216c:	5f1b0000 	svcpl	0x001b0000
    2170:	01000001 	tsteq	r0, r1
    2174:	01561c54 	cmpeq	r6, r4, asr ip
    2178:	1b000000 	blne	2180 <_start-0x5e80>
    217c:	0000014b 	andeq	r0, r0, fp, asr #2
    2180:	11195601 	tstne	r9, r1, lsl #12
    2184:	d0000001 	andle	r0, r0, r1
    2188:	1000008e 	andne	r0, r0, lr, lsl #1
    218c:	02000000 	andeq	r0, r0, #0
    2190:	00025f1a 	andeq	r5, r2, sl, lsl pc
    2194:	01281a00 	teqeq	r8, r0, lsl #20
    2198:	16560000 	ldrbne	r0, [r6], -r0
    219c:	1d1b0000 	ldcne	0, cr0, [fp, #-0]
    21a0:	01000001 	tsteq	r0, r1
    21a4:	8ed01d54 	mrchi	13, 6, r1, cr0, cr4, {2}
    21a8:	00040000 	andeq	r0, r4, r0
    21ac:	321e0000 	andscc	r0, lr, #0
    21b0:	69000001 	stmdbvs	r0, {r0}
    21b4:	00000016 	andeq	r0, r0, r6, lsl r0
    21b8:	8ed01f00 	cdphi	15, 13, cr1, cr0, cr0, {0}
    21bc:	11590000 	cmpne	r9, r0
    21c0:	01200000 	teqeq	r0, r0
    21c4:	20300151 	eorscs	r0, r0, r1, asr r1
    21c8:	76025001 	strvc	r5, [r2], -r1
    21cc:	19000000 	stmdbne	r0, {}	; <UNPREDICTABLE>
    21d0:	0000013f 	andeq	r0, r0, pc, lsr r1
    21d4:	00008ee4 	andeq	r8, r0, r4, ror #29
    21d8:	0000001c 	andeq	r0, r0, ip, lsl r0
    21dc:	02f81301 	rscseq	r1, r8, #67108864	; 0x4000000
    21e0:	6a1a0000 	bvs	6821e8 <__bss_end__+0x6782e8>
    21e4:	7c000001 	stcvc	0, cr0, [r0], {1}
    21e8:	1b000016 	blne	2248 <_start-0x5db8>
    21ec:	0000015f 	andeq	r0, r0, pc, asr r1
    21f0:	561a5401 	ldrpl	r5, [sl], -r1, lsl #8
    21f4:	9e000001 	cdpls	0, 0, cr0, cr0, cr1, {0}
    21f8:	1b000016 	blne	2258 <_start-0x5da8>
    21fc:	0000014b 	andeq	r0, r0, fp, asr #2
    2200:	11195601 	tstne	r9, r1, lsl #12
    2204:	f0000001 			; <UNDEFINED> instruction: 0xf0000001
    2208:	1000008e 	andne	r0, r0, lr, lsl #1
    220c:	02000000 	andeq	r0, r0, #0
    2210:	0002df1a 	andeq	sp, r2, sl, lsl pc
    2214:	01281a00 	teqeq	r8, r0, lsl #20
    2218:	16cf0000 	strbne	r0, [pc], r0
    221c:	1d1b0000 	ldcne	0, cr0, [fp, #-0]
    2220:	01000001 	tsteq	r0, r1
    2224:	8ef01d54 	mrchi	13, 7, r1, cr0, cr4, {2}
    2228:	00040000 	andeq	r0, r4, r0
    222c:	321e0000 	andscc	r0, lr, #0
    2230:	f1000001 	cps	#1
    2234:	00000016 	andeq	r0, r0, r6, lsl r0
    2238:	8ef01f00 	cdphi	15, 15, cr1, cr0, cr0, {0}
    223c:	11590000 	cmpne	r9, r0
    2240:	01200000 	teqeq	r0, r0
    2244:	00770451 	rsbseq	r0, r7, r1, asr r4
    2248:	01201a31 	teqeq	r0, r1, lsr sl
    224c:	00760250 	rsbseq	r0, r6, r0, asr r2
    2250:	3f190000 	svccc	0x00190000
    2254:	04000001 	streq	r0, [r0], #-1
    2258:	1c00008f 	stcne	0, cr0, [r0], {143}	; 0x8f
    225c:	01000000 	mrseq	r0, (UNDEF: 0)
    2260:	00038015 	andeq	r8, r3, r5, lsl r0
    2264:	016a1a00 	cmneq	sl, r0, lsl #20
    2268:	17040000 	strne	r0, [r4, -r0]
    226c:	5f1b0000 	svcpl	0x001b0000
    2270:	01000001 	tsteq	r0, r1
    2274:	01561b54 	cmpeq	r6, r4, asr fp
    2278:	77080000 	strvc	r0, [r8, -r0]
    227c:	081a3200 	ldmdaeq	sl, {r9, ip, sp}
    2280:	1b9f1aff 	blne	fe7c8e84 <__bss_end__+0xfe7bef84>
    2284:	0000014b 	andeq	r0, r0, fp, asr #2
    2288:	11195601 	tstne	r9, r1, lsl #12
    228c:	10000001 	andne	r0, r0, r1
    2290:	1000008f 	andne	r0, r0, pc, lsl #1
    2294:	02000000 	andeq	r0, r0, #0
    2298:	0003671a 	andeq	r6, r3, sl, lsl r7
    229c:	01281a00 	teqeq	r8, r0, lsl #20
    22a0:	17290000 	strne	r0, [r9, -r0]!
    22a4:	1d1b0000 	ldcne	0, cr0, [fp, #-0]
    22a8:	01000001 	tsteq	r0, r1
    22ac:	8f101d54 	svchi	0x00101d54
    22b0:	00040000 	andeq	r0, r4, r0
    22b4:	321e0000 	andscc	r0, lr, #0
    22b8:	4e000001 	cdpmi	0, 0, cr0, cr0, cr1, {0}
    22bc:	00000017 	andeq	r0, r0, r7, lsl r0
    22c0:	8f101f00 	svchi	0x00101f00
    22c4:	11590000 	cmpne	r9, r0
    22c8:	01200000 	teqeq	r0, r0
    22cc:	00770451 	rsbseq	r0, r7, r1, asr r4
    22d0:	01201a32 	teqeq	r0, r2, lsr sl
    22d4:	00760250 	rsbseq	r0, r6, r0, asr r2
    22d8:	3f190000 	svccc	0x00190000
    22dc:	24000001 	strcs	r0, [r0], #-1
    22e0:	1c00008f 	stcne	0, cr0, [r0], {143}	; 0x8f
    22e4:	01000000 	mrseq	r0, (UNDEF: 0)
    22e8:	00040817 	andeq	r0, r4, r7, lsl r8
    22ec:	016a1a00 	cmneq	sl, r0, lsl #20
    22f0:	17610000 	strbne	r0, [r1, -r0]!
    22f4:	5f1b0000 	svcpl	0x001b0000
    22f8:	01000001 	tsteq	r0, r1
    22fc:	01561b54 	cmpeq	r6, r4, asr fp
    2300:	77080000 	strvc	r0, [r8, -r0]
    2304:	081a3400 	ldmdaeq	sl, {sl, ip, sp}
    2308:	1b9f1aff 	blne	fe7c8f0c <__bss_end__+0xfe7bf00c>
    230c:	0000014b 	andeq	r0, r0, fp, asr #2
    2310:	11195601 	tstne	r9, r1, lsl #12
    2314:	30000001 	andcc	r0, r0, r1
    2318:	1000008f 	andne	r0, r0, pc, lsl #1
    231c:	02000000 	andeq	r0, r0, #0
    2320:	0003ef1a 	andeq	lr, r3, sl, lsl pc
    2324:	01281a00 	teqeq	r8, r0, lsl #20
    2328:	17830000 	strne	r0, [r3, r0]
    232c:	1d1b0000 	ldcne	0, cr0, [fp, #-0]
    2330:	01000001 	tsteq	r0, r1
    2334:	8f301d54 	svchi	0x00301d54
    2338:	00040000 	andeq	r0, r4, r0
    233c:	321e0000 	andscc	r0, lr, #0
    2340:	a5000001 	strge	r0, [r0, #-1]
    2344:	00000017 	andeq	r0, r0, r7, lsl r0
    2348:	8f301f00 	svchi	0x00301f00
    234c:	11590000 	cmpne	r9, r0
    2350:	01200000 	teqeq	r0, r0
    2354:	00770451 	rsbseq	r0, r7, r1, asr r4
    2358:	01201a34 	teqeq	r0, r4, lsr sl
    235c:	00760250 	rsbseq	r0, r6, r0, asr r2
    2360:	3f190000 	svccc	0x00190000
    2364:	44000001 	strmi	r0, [r0], #-1
    2368:	1c00008f 	stcne	0, cr0, [r0], {143}	; 0x8f
    236c:	01000000 	mrseq	r0, (UNDEF: 0)
    2370:	00049019 	andeq	r9, r4, r9, lsl r0
    2374:	016a1a00 	cmneq	sl, r0, lsl #20
    2378:	17b80000 	ldrne	r0, [r8, r0]!
    237c:	5f1b0000 	svcpl	0x001b0000
    2380:	01000001 	tsteq	r0, r1
    2384:	01561b54 	cmpeq	r6, r4, asr fp
    2388:	77080000 	strvc	r0, [r8, -r0]
    238c:	081a3800 	ldmdaeq	sl, {fp, ip, sp}
    2390:	1b9f1aff 	blne	fe7c8f94 <__bss_end__+0xfe7bf094>
    2394:	0000014b 	andeq	r0, r0, fp, asr #2
    2398:	11195601 	tstne	r9, r1, lsl #12
    239c:	50000001 	andpl	r0, r0, r1
    23a0:	1000008f 	andne	r0, r0, pc, lsl #1
    23a4:	02000000 	andeq	r0, r0, #0
    23a8:	0004771a 	andeq	r7, r4, sl, lsl r7
    23ac:	01281a00 	teqeq	r8, r0, lsl #20
    23b0:	17dd0000 	ldrbne	r0, [sp, r0]
    23b4:	1d1b0000 	ldcne	0, cr0, [fp, #-0]
    23b8:	01000001 	tsteq	r0, r1
    23bc:	8f501d54 	svchi	0x00501d54
    23c0:	00040000 	andeq	r0, r4, r0
    23c4:	321e0000 	andscc	r0, lr, #0
    23c8:	02000001 	andeq	r0, r0, #1
    23cc:	00000018 	andeq	r0, r0, r8, lsl r0
    23d0:	8f501f00 	svchi	0x00501f00
    23d4:	11590000 	cmpne	r9, r0
    23d8:	01200000 	teqeq	r0, r0
    23dc:	00770451 	rsbseq	r0, r7, r1, asr r4
    23e0:	01201a38 	teqeq	r0, r8, lsr sl
    23e4:	00760250 	rsbseq	r0, r6, r0, asr r2
    23e8:	3f190000 	svccc	0x00190000
    23ec:	64000001 	strvs	r0, [r0], #-1
    23f0:	1c00008f 	stcne	0, cr0, [r0], {143}	; 0x8f
    23f4:	01000000 	mrseq	r0, (UNDEF: 0)
    23f8:	0005181b 	andeq	r1, r5, fp, lsl r8
    23fc:	016a1a00 	cmneq	sl, r0, lsl #20
    2400:	18150000 	ldmdane	r5, {}	; <UNPREDICTABLE>
    2404:	5f1b0000 	svcpl	0x001b0000
    2408:	01000001 	tsteq	r0, r1
    240c:	01561b54 	cmpeq	r6, r4, asr fp
    2410:	77080000 	strvc	r0, [r8, -r0]
    2414:	081a4000 	ldmdaeq	sl, {lr}
    2418:	1b9f1aff 	blne	fe7c901c <__bss_end__+0xfe7bf11c>
    241c:	0000014b 	andeq	r0, r0, fp, asr #2
    2420:	11195601 	tstne	r9, r1, lsl #12
    2424:	70000001 	andvc	r0, r0, r1
    2428:	1000008f 	andne	r0, r0, pc, lsl #1
    242c:	02000000 	andeq	r0, r0, #0
    2430:	0004ff1a 	andeq	pc, r4, sl, lsl pc	; <UNPREDICTABLE>
    2434:	01281a00 	teqeq	r8, r0, lsl #20
    2438:	183c0000 	ldmdane	ip!, {}	; <UNPREDICTABLE>
    243c:	1d1b0000 	ldcne	0, cr0, [fp, #-0]
    2440:	01000001 	tsteq	r0, r1
    2444:	8f701d54 	svchi	0x00701d54
    2448:	00040000 	andeq	r0, r4, r0
    244c:	321e0000 	andscc	r0, lr, #0
    2450:	63000001 	movwvs	r0, #1
    2454:	00000018 	andeq	r0, r0, r8, lsl r0
    2458:	8f701f00 	svchi	0x00701f00
    245c:	11590000 	cmpne	r9, r0
    2460:	01200000 	teqeq	r0, r0
    2464:	00770451 	rsbseq	r0, r7, r1, asr r4
    2468:	01201a40 	teqeq	r0, r0, asr #20
    246c:	00760250 	rsbseq	r0, r6, r0, asr r2
    2470:	3f190000 	svccc	0x00190000
    2474:	84000001 	strhi	r0, [r0], #-1
    2478:	1c00008f 	stcne	0, cr0, [r0], {143}	; 0x8f
    247c:	01000000 	mrseq	r0, (UNDEF: 0)
    2480:	0005a21d 	andeq	sl, r5, sp, lsl r2
    2484:	016a1a00 	cmneq	sl, r0, lsl #20
    2488:	18760000 	ldmdane	r6!, {}^	; <UNPREDICTABLE>
    248c:	5f1b0000 	svcpl	0x001b0000
    2490:	01000001 	tsteq	r0, r1
    2494:	01561b54 	cmpeq	r6, r4, asr fp
    2498:	77090000 	strvc	r0, [r9, -r0]
    249c:	1a200800 	bne	8044a4 <__bss_end__+0x7fa5a4>
    24a0:	9f1aff08 	svcls	0x001aff08
    24a4:	00014b1b 	andeq	r4, r1, fp, lsl fp
    24a8:	19560100 	ldmdbne	r6, {r8}^
    24ac:	00000111 	andeq	r0, r0, r1, lsl r1
    24b0:	00008f90 	muleq	r0, r0, pc	; <UNPREDICTABLE>
    24b4:	00000010 	andeq	r0, r0, r0, lsl r0
    24b8:	05881a02 	streq	r1, [r8, #2562]	; 0xa02
    24bc:	281a0000 	ldmdacs	sl, {}	; <UNPREDICTABLE>
    24c0:	a0000001 	andge	r0, r0, r1
    24c4:	1b000018 	blne	252c <_start-0x5ad4>
    24c8:	0000011d 	andeq	r0, r0, sp, lsl r1
    24cc:	901d5401 	andsls	r5, sp, r1, lsl #8
    24d0:	0400008f 	streq	r0, [r0], #-143	; 0x8f
    24d4:	1e000000 	cdpne	0, 0, cr0, cr0, cr0, {0}
    24d8:	00000132 	andeq	r0, r0, r2, lsr r1
    24dc:	000018ca 	andeq	r1, r0, sl, asr #17
    24e0:	901f0000 	andsls	r0, pc, r0
    24e4:	5900008f 	stmdbpl	r0, {r0, r1, r2, r3, r7}
    24e8:	20000011 	andcs	r0, r0, r1, lsl r0
    24ec:	77055101 	strvc	r5, [r5, -r1, lsl #2]
    24f0:	1a200800 	bne	8044f8 <__bss_end__+0x7fa5f8>
    24f4:	02500120 	subseq	r0, r0, #32, 2
    24f8:	00000076 	andeq	r0, r0, r6, ror r0
    24fc:	00013f19 	andeq	r3, r1, r9, lsl pc
    2500:	008fa400 	addeq	sl, pc, r0, lsl #8
    2504:	00001c00 	andeq	r1, r0, r0, lsl #24
    2508:	2c1f0100 	ldfcss	f0, [pc], {-0}
    250c:	1a000006 	bne	252c <_start-0x5ad4>
    2510:	0000016a 	andeq	r0, r0, sl, ror #2
    2514:	000018dd 	ldrdeq	r1, [r0], -sp
    2518:	00015f1b 	andeq	r5, r1, fp, lsl pc
    251c:	1b540100 	blne	1502924 <__bss_end__+0x14f8a24>
    2520:	00000156 	andeq	r0, r0, r6, asr r1
    2524:	08007709 	stmdaeq	r0, {r0, r3, r8, r9, sl, ip, sp, lr}
    2528:	ff081a40 			; <UNDEFINED> instruction: 0xff081a40
    252c:	4b1b9f1a 	blmi	6ea19c <__bss_end__+0x6e029c>
    2530:	01000001 	tsteq	r0, r1
    2534:	01111956 	tsteq	r1, r6, asr r9
    2538:	8fb00000 	svchi	0x00b00000
    253c:	00100000 	andseq	r0, r0, r0
    2540:	1a020000 	bne	82548 <__bss_end__+0x78648>
    2544:	00000612 	andeq	r0, r0, r2, lsl r6
    2548:	0001281a 	andeq	r2, r1, sl, lsl r8
    254c:	0018ff00 	andseq	pc, r8, r0, lsl #30
    2550:	011d1b00 	tsteq	sp, r0, lsl #22
    2554:	54010000 	strpl	r0, [r1], #-0
    2558:	008fb01d 	addeq	fp, pc, sp, lsl r0	; <UNPREDICTABLE>
    255c:	00000400 	andeq	r0, r0, r0, lsl #8
    2560:	01321e00 	teqeq	r2, r0, lsl #28
    2564:	19210000 	stmdbne	r1!, {}	; <UNPREDICTABLE>
    2568:	00000000 	andeq	r0, r0, r0
    256c:	008fb01f 	addeq	fp, pc, pc, lsl r0	; <UNPREDICTABLE>
    2570:	00115900 	andseq	r5, r1, r0, lsl #18
    2574:	51012000 	mrspl	r2, (UNDEF: 1)
    2578:	08007705 	stmdaeq	r0, {r0, r2, r8, r9, sl, ip, sp, lr}
    257c:	01201a40 	teqeq	r0, r0, asr #20
    2580:	00760250 	rsbseq	r0, r6, r0, asr r2
    2584:	3f190000 	svccc	0x00190000
    2588:	c4000001 	strgt	r0, [r0], #-1
    258c:	1c00008f 	stcne	0, cr0, [r0], {143}	; 0x8f
    2590:	01000000 	mrseq	r0, (UNDEF: 0)
    2594:	0006ac21 	andeq	sl, r6, r1, lsr #24
    2598:	016a1b00 	cmneq	sl, r0, lsl #22
    259c:	58010000 	stmdapl	r1, {}	; <UNPREDICTABLE>
    25a0:	00015f1b 	andeq	r5, r1, fp, lsl pc
    25a4:	1a540100 	bne	15029ac <__bss_end__+0x14f8aac>
    25a8:	00000156 	andeq	r0, r0, r6, asr r1
    25ac:	00001934 	andeq	r1, r0, r4, lsr r9
    25b0:	00014b1b 	andeq	r4, r1, fp, lsl fp
    25b4:	19560100 	ldmdbne	r6, {r8}^
    25b8:	00000111 	andeq	r0, r0, r1, lsl r1
    25bc:	00008fd0 	ldrdeq	r8, [r0], -r0
    25c0:	00000010 	andeq	r0, r0, r0, lsl r0
    25c4:	06921a02 	ldreq	r1, [r2], r2, lsl #20
    25c8:	281b0000 	ldmdacs	fp, {}	; <UNPREDICTABLE>
    25cc:	01000001 	tsteq	r0, r1
    25d0:	011d1b58 	tsteq	sp, r8, asr fp
    25d4:	54010000 	strpl	r0, [r1], #-0
    25d8:	008fd01d 	addeq	sp, pc, sp, lsl r0	; <UNPREDICTABLE>
    25dc:	00000400 	andeq	r0, r0, r0, lsl #8
    25e0:	01321e00 	teqeq	r2, r0, lsl #28
    25e4:	19670000 	stmdbne	r7!, {}^	; <UNPREDICTABLE>
    25e8:	00000000 	andeq	r0, r0, r0
    25ec:	008fd01f 	addeq	sp, pc, pc, lsl r0	; <UNPREDICTABLE>
    25f0:	00115900 	andseq	r5, r1, r0, lsl #18
    25f4:	51012000 	mrspl	r2, (UNDEF: 1)
    25f8:	08007705 	stmdaeq	r0, {r0, r2, r8, r9, sl, ip, sp, lr}
    25fc:	01201a80 	smlawbeq	r0, r0, sl, r1
    2600:	00760250 	rsbseq	r0, r6, r0, asr r2
    2604:	3f210000 	svccc	0x00210000
    2608:	e4000001 	str	r0, [r0], #-1
    260c:	1c00008f 	stcne	0, cr0, [r0], {143}	; 0x8f
    2610:	01000000 	mrseq	r0, (UNDEF: 0)
    2614:	016a1b23 	cmneq	sl, r3, lsr #22
    2618:	55010000 	strpl	r0, [r1, #-0]
    261c:	00015f1b 	andeq	r5, r1, fp, lsl pc
    2620:	1c540100 	ldfnee	f0, [r4], {-0}
    2624:	00000156 	andeq	r0, r0, r6, asr r1
    2628:	014b1b01 	cmpeq	fp, r1, lsl #22
    262c:	56010000 	strpl	r0, [r1], -r0
    2630:	00011119 	andeq	r1, r1, r9, lsl r1
    2634:	008ff000 	addeq	pc, pc, r0
    2638:	00001000 	andeq	r1, r0, r0
    263c:	0b1a0200 	bleq	682e44 <__bss_end__+0x678f44>
    2640:	1b000007 	blne	2664 <_start-0x599c>
    2644:	00000128 	andeq	r0, r0, r8, lsr #2
    2648:	1d1b5501 	cfldr32ne	mvfx5, [fp, #-4]
    264c:	01000001 	tsteq	r0, r1
    2650:	8ff01d54 	svchi	0x00f01d54
    2654:	00040000 	andeq	r0, r4, r0
    2658:	321e0000 	andscc	r0, lr, #0
    265c:	7a000001 	bvc	2668 <_start-0x5998>
    2660:	00000019 	andeq	r0, r0, r9, lsl r0
    2664:	8ff01f00 	svchi	0x00f01f00
    2668:	11590000 	cmpne	r9, r0
    266c:	01200000 	teqeq	r0, r0
    2670:	20310151 	eorscs	r0, r1, r1, asr r1
    2674:	76025001 	strvc	r5, [r2], -r1
    2678:	00000000 	andeq	r0, r0, r0
    267c:	00d90406 	sbcseq	r0, r9, r6, lsl #8
    2680:	cc220000 	stcgt	0, cr0, [r2], #-0
    2684:	01000008 	tsteq	r0, r8
    2688:	00002527 	andeq	r2, r0, r7, lsr #10
    268c:	07620300 	strbeq	r0, [r2, -r0, lsl #6]!
    2690:	720f0000 	andvc	r0, pc, #0
    2694:	27010078 	smlsdxcs	r1, r8, r0, r0
    2698:	00000025 	andeq	r0, r0, r5, lsr #32
    269c:	0100760f 	tsteq	r0, pc, lsl #12
    26a0:	00002527 	andeq	r2, r0, r7, lsr #10
    26a4:	08590e00 	ldmdaeq	r9, {r9, sl, fp}^
    26a8:	27010000 	strcs	r0, [r1, -r0]
    26ac:	0000002c 	andeq	r0, r0, ip, lsr #32
    26b0:	00042911 	andeq	r2, r4, r1, lsl r9
    26b4:	2c280100 	stfcss	f0, [r8], #-0
    26b8:	00000000 	andeq	r0, r0, r0
    26bc:	0007fa23 	andeq	pc, r7, r3, lsr #20
    26c0:	25340100 	ldrcs	r0, [r4, #-256]!	; 0x100
    26c4:	04000000 	streq	r0, [r0], #-0
    26c8:	c8000090 	stmdagt	r0, {r4, r7}
    26cc:	01000001 	tsteq	r0, r1
    26d0:	000b1e9c 	muleq	fp, ip, lr
    26d4:	03dc1300 	bicseq	r1, ip, #0, 6
    26d8:	34010000 	strcc	r0, [r1], #-0
    26dc:	00000722 	andeq	r0, r0, r2, lsr #14
    26e0:	0000198d 	andeq	r1, r0, sp, lsl #19
    26e4:	00085913 	andeq	r5, r8, r3, lsl r9
    26e8:	25340100 	ldrcs	r0, [r4, #-256]!	; 0x100
    26ec:	d2000000 	andle	r0, r0, #0
    26f0:	15000019 	strne	r0, [r0, #-25]
    26f4:	01007872 	tsteq	r0, r2, ror r8
    26f8:	00002535 	andeq	r2, r0, r5, lsr r5
    26fc:	16550100 	ldrbne	r0, [r5], -r0, lsl #2
    2700:	3c010073 	stccc	0, cr0, [r1], {115}	; 0x73
    2704:	0000002c 	andeq	r0, r0, ip, lsr #32
    2708:	000019f0 	strdeq	r1, [r0], -r0
    270c:	01007516 	tsteq	r0, r6, lsl r5
    2710:	0000683f 	andeq	r6, r0, pc, lsr r8
    2714:	001a0300 	andseq	r0, sl, r0, lsl #6
    2718:	006e1600 	rsbeq	r1, lr, r0, lsl #12
    271c:	002c4001 	eoreq	r4, ip, r1
    2720:	1a160000 	bne	582728 <__bss_end__+0x578828>
    2724:	63160000 	tstvs	r6, #0
    2728:	2c410100 	stfcse	f0, [r1], {-0}
    272c:	2d000000 	stccs	0, cr0, [r0, #-0]
    2730:	1900001a 	stmdbne	r0, {r1, r3, r4}
    2734:	00000728 	andeq	r0, r0, r8, lsr #14
    2738:	00009018 	andeq	r9, r0, r8, lsl r0
    273c:	00000034 	andeq	r0, r0, r4, lsr r0
    2740:	083c3801 	ldmdaeq	ip!, {r0, fp, ip, sp}
    2744:	4b1a0000 	blmi	68274c <__bss_end__+0x67884c>
    2748:	57000007 	strpl	r0, [r0, -r7]
    274c:	1c00001a 	stcne	0, cr0, [r0], {26}
    2750:	00000742 	andeq	r0, r0, r2, asr #14
    2754:	07381b00 	ldreq	r1, [r8, -r0, lsl #22]!
    2758:	55010000 	strpl	r0, [r1, #-0]
    275c:	0090181d 	addseq	r1, r0, sp, lsl r8
    2760:	00003400 	andeq	r3, r0, r0, lsl #8
    2764:	07561e00 	ldrbeq	r1, [r6, -r0, lsl #28]
    2768:	1a750000 	bne	1d42770 <__bss_end__+0x1d38870>
    276c:	1c240000 	stcne	0, cr0, [r4], #-0
    2770:	6f000090 	svcvs	0x00000090
    2774:	25000011 	strcs	r0, [r0, #-17]
    2778:	00009028 	andeq	r9, r0, r8, lsr #32
    277c:	0000117a 	andeq	r1, r0, sl, ror r1
    2780:	00000831 	andeq	r0, r0, r1, lsr r8
    2784:	02500120 	subseq	r0, r0, #32, 2
    2788:	24000075 	strcs	r0, [r0], #-117	; 0x75
    278c:	00009034 	andeq	r9, r0, r4, lsr r0
    2790:	0000116f 	andeq	r1, r0, pc, ror #2
    2794:	54170000 	ldrpl	r0, [r7], #-0
    2798:	04000090 	streq	r0, [r0], #-144	; 0x90
    279c:	59000000 	stmdbpl	r0, {}	; <UNPREDICTABLE>
    27a0:	26000008 	strcs	r0, [r0], -r8
    27a4:	000001c5 	andeq	r0, r0, r5, asr #3
    27a8:	002c3c01 	eoreq	r3, ip, r1, lsl #24
    27ac:	1a930000 	bne	fe4c27b4 <__bss_end__+0xfe4b88b4>
    27b0:	19000000 	stmdbne	r0, {}	; <UNPREDICTABLE>
    27b4:	00000111 	andeq	r0, r0, r1, lsl r1
    27b8:	00009060 	andeq	r9, r0, r0, rrx
    27bc:	00000010 	andeq	r0, r0, r0, lsl r0
    27c0:	08924401 	ldmeq	r2, {r0, sl, lr}
    27c4:	281a0000 	ldmdacs	sl, {}	; <UNPREDICTABLE>
    27c8:	a6000001 	strge	r0, [r0], -r1
    27cc:	1a00001a 	bne	283c <_start-0x57c4>
    27d0:	0000011d 	andeq	r0, r0, sp, lsl r1
    27d4:	00001acb 	andeq	r1, r0, fp, asr #21
    27d8:	0090601d 	addseq	r6, r0, sp, lsl r0
    27dc:	00000400 	andeq	r0, r0, r0, lsl #8
    27e0:	01321e00 	teqeq	r2, r0, lsl #28
    27e4:	1ade0000 	bne	ff7827ec <__bss_end__+0xff7788ec>
    27e8:	00000000 	andeq	r0, r0, r0
    27ec:	00011119 	andeq	r1, r1, r9, lsl r1
    27f0:	00908000 	addseq	r8, r0, r0
    27f4:	00001000 	andeq	r1, r0, r0
    27f8:	cb480100 	blgt	1202c00 <__bss_end__+0x11f8d00>
    27fc:	1a000008 	bne	2824 <_start-0x57dc>
    2800:	00000128 	andeq	r0, r0, r8, lsr #2
    2804:	00001af1 	strdeq	r1, [r0], -r1	; <UNPREDICTABLE>
    2808:	00011d1a 	andeq	r1, r1, sl, lsl sp
    280c:	001b0400 	andseq	r0, fp, r0, lsl #8
    2810:	90801d00 	addls	r1, r0, r0, lsl #26
    2814:	00040000 	andeq	r0, r4, r0
    2818:	321e0000 	andscc	r0, lr, #0
    281c:	17000001 	strne	r0, [r0, -r1]
    2820:	0000001b 	andeq	r0, r0, fp, lsl r0
    2824:	01111900 	tsteq	r1, r0, lsl #18
    2828:	90a40000 	adcls	r0, r4, r0
    282c:	00100000 	andseq	r0, r0, r0
    2830:	4b010000 	blmi	42838 <__bss_end__+0x38938>
    2834:	00000904 	andeq	r0, r0, r4, lsl #18
    2838:	0001281a 	andeq	r2, r1, sl, lsl r8
    283c:	001b2a00 	andseq	r2, fp, r0, lsl #20
    2840:	011d1a00 	tsteq	sp, r0, lsl #20
    2844:	1b3d0000 	blne	f4284c <__bss_end__+0xf3894c>
    2848:	a41d0000 	ldrge	r0, [sp], #-0
    284c:	04000090 	streq	r0, [r0], #-144	; 0x90
    2850:	1e000000 	cdpne	0, 0, cr0, cr0, cr0, {0}
    2854:	00000132 	andeq	r0, r0, r2, lsr r1
    2858:	00001b50 	andeq	r1, r0, r0, asr fp
    285c:	11190000 	tstne	r9, r0
    2860:	c8000001 	stmdagt	r0, {r0}
    2864:	10000090 	mulne	r0, r0, r0
    2868:	01000000 	mrseq	r0, (UNDEF: 0)
    286c:	00093d4e 	andeq	r3, r9, lr, asr #26
    2870:	01281a00 	teqeq	r8, r0, lsl #20
    2874:	1b630000 	blne	18c287c <__bss_end__+0x18b897c>
    2878:	1d1a0000 	ldcne	0, cr0, [sl, #-0]
    287c:	76000001 	strvc	r0, [r0], -r1
    2880:	1d00001b 	stcne	0, cr0, [r0, #-108]	; 0xffffff94
    2884:	000090c8 	andeq	r9, r0, r8, asr #1
    2888:	00000004 	andeq	r0, r0, r4
    288c:	0001321e 	andeq	r3, r1, lr, lsl r2
    2890:	001b8900 	andseq	r8, fp, r0, lsl #18
    2894:	19000000 	stmdbne	r0, {}	; <UNPREDICTABLE>
    2898:	00000111 	andeq	r0, r0, r1, lsl r1
    289c:	000090ec 	andeq	r9, r0, ip, ror #1
    28a0:	00000010 	andeq	r0, r0, r0, lsl r0
    28a4:	09765101 	ldmdbeq	r6!, {r0, r8, ip, lr}^
    28a8:	281a0000 	ldmdacs	sl, {}	; <UNPREDICTABLE>
    28ac:	9c000001 	stcls	0, cr0, [r0], {1}
    28b0:	1a00001b 	bne	2924 <_start-0x56dc>
    28b4:	0000011d 	andeq	r0, r0, sp, lsl r1
    28b8:	00001baf 	andeq	r1, r0, pc, lsr #23
    28bc:	0090ec1d 	addseq	lr, r0, sp, lsl ip
    28c0:	00000400 	andeq	r0, r0, r0, lsl #8
    28c4:	01321e00 	teqeq	r2, r0, lsl #28
    28c8:	1bc20000 	blne	ff0828d0 <__bss_end__+0xff0789d0>
    28cc:	00000000 	andeq	r0, r0, r0
    28d0:	00011119 	andeq	r1, r1, r9, lsl r1
    28d4:	00911000 	addseq	r1, r1, r0
    28d8:	00001000 	andeq	r1, r0, r0
    28dc:	af540100 	svcge	0x00540100
    28e0:	1a000009 	bne	290c <_start-0x56f4>
    28e4:	00000128 	andeq	r0, r0, r8, lsr #2
    28e8:	00001bd5 	ldrdeq	r1, [r0], -r5
    28ec:	00011d1a 	andeq	r1, r1, sl, lsl sp
    28f0:	001be800 	andseq	lr, fp, r0, lsl #16
    28f4:	91101d00 	tstls	r0, r0, lsl #26
    28f8:	00040000 	andeq	r0, r4, r0
    28fc:	321e0000 	andscc	r0, lr, #0
    2900:	fb000001 	blx	290e <_start-0x56f2>
    2904:	0000001b 	andeq	r0, r0, fp, lsl r0
    2908:	01111900 	tsteq	r1, r0, lsl #18
    290c:	91340000 	teqls	r4, r0
    2910:	00100000 	andseq	r0, r0, r0
    2914:	57010000 	strpl	r0, [r1, -r0]
    2918:	000009e8 	andeq	r0, r0, r8, ror #19
    291c:	0001281a 	andeq	r2, r1, sl, lsl r8
    2920:	001c0e00 	andseq	r0, ip, r0, lsl #28
    2924:	011d1a00 	tsteq	sp, r0, lsl #20
    2928:	1c210000 	stcne	0, cr0, [r1], #-0
    292c:	341d0000 	ldrcc	r0, [sp], #-0
    2930:	04000091 	streq	r0, [r0], #-145	; 0x91
    2934:	1e000000 	cdpne	0, 0, cr0, cr0, cr0, {0}
    2938:	00000132 	andeq	r0, r0, r2, lsr r1
    293c:	00001c34 	andeq	r1, r0, r4, lsr ip
    2940:	11190000 	tstne	r9, r0
    2944:	58000001 	stmdapl	r0, {r0}
    2948:	10000091 	mulne	r0, r1, r0
    294c:	01000000 	mrseq	r0, (UNDEF: 0)
    2950:	000a1d5a 	andeq	r1, sl, sl, asr sp
    2954:	01281a00 	teqeq	r8, r0, lsl #20
    2958:	1c470000 	marne	acc0, r0, r7
    295c:	1d270000 	stcne	0, cr0, [r7, #-0]
    2960:	1d000001 	stcne	0, cr0, [r0, #-4]
    2964:	00009158 	andeq	r9, r0, r8, asr r1
    2968:	00000004 	andeq	r0, r0, r4
    296c:	0001321e 	andeq	r3, r1, lr, lsl r2
    2970:	001c5a00 	andseq	r5, ip, r0, lsl #20
    2974:	19000000 	stmdbne	r0, {}	; <UNPREDICTABLE>
    2978:	00000728 	andeq	r0, r0, r8, lsr #14
    297c:	00009178 	andeq	r9, r0, r8, ror r1
    2980:	00000034 	andeq	r0, r0, r4, lsr r0
    2984:	0a816101 	beq	fe05ad90 <__bss_end__+0xfe050e90>
    2988:	4b270000 	blmi	9c2990 <__bss_end__+0x9b8a90>
    298c:	1a000007 	bne	29b0 <_start-0x5650>
    2990:	00000742 	andeq	r0, r0, r2, asr #14
    2994:	00001c6d 	andeq	r1, r0, sp, ror #24
    2998:	0007381a 	andeq	r3, r7, sl, lsl r8
    299c:	001c8d00 	andseq	r8, ip, r0, lsl #26
    29a0:	91781d00 	cmnls	r8, r0, lsl #26
    29a4:	00340000 	eorseq	r0, r4, r0
    29a8:	561e0000 	ldrpl	r0, [lr], -r0
    29ac:	ab000007 	blge	29d0 <_start-0x5630>
    29b0:	2400001c 	strcs	r0, [r0], #-28
    29b4:	0000917c 	andeq	r9, r0, ip, ror r1
    29b8:	0000116f 	andeq	r1, r0, pc, ror #2
    29bc:	00918825 	addseq	r8, r1, r5, lsr #16
    29c0:	00117a00 	andseq	r7, r1, r0, lsl #20
    29c4:	000a7600 	andeq	r7, sl, r0, lsl #12
    29c8:	50012000 	andpl	r2, r1, r0
    29cc:	00007502 	andeq	r7, r0, r2, lsl #10
    29d0:	00919424 	addseq	r9, r1, r4, lsr #8
    29d4:	00116f00 	andseq	r6, r1, r0, lsl #30
    29d8:	25000000 	strcs	r0, [r0, #-0]
    29dc:	0000907c 	andeq	r9, r0, ip, ror r0
    29e0:	0000117a 	andeq	r1, r0, sl, ror r1
    29e4:	00000a95 	muleq	r0, r5, sl
    29e8:	02500120 	subseq	r0, r0, #32, 2
    29ec:	25000075 	strcs	r0, [r0, #-117]	; 0x75
    29f0:	0000909c 	muleq	r0, ip, r0
    29f4:	0000117a 	andeq	r1, r0, sl, ror r1
    29f8:	00000aa9 	andeq	r0, r0, r9, lsr #21
    29fc:	02500120 	subseq	r0, r0, #32, 2
    2a00:	25000075 	strcs	r0, [r0, #-117]	; 0x75
    2a04:	000090c0 	andeq	r9, r0, r0, asr #1
    2a08:	0000117a 	andeq	r1, r0, sl, ror r1
    2a0c:	00000abd 			; <UNDEFINED> instruction: 0x00000abd
    2a10:	02500120 	subseq	r0, r0, #32, 2
    2a14:	25000075 	strcs	r0, [r0, #-117]	; 0x75
    2a18:	000090e4 	andeq	r9, r0, r4, ror #1
    2a1c:	0000117a 	andeq	r1, r0, sl, ror r1
    2a20:	00000ad1 	ldrdeq	r0, [r0], -r1
    2a24:	02500120 	subseq	r0, r0, #32, 2
    2a28:	25000075 	strcs	r0, [r0, #-117]	; 0x75
    2a2c:	00009108 	andeq	r9, r0, r8, lsl #2
    2a30:	0000117a 	andeq	r1, r0, sl, ror r1
    2a34:	00000ae5 	andeq	r0, r0, r5, ror #21
    2a38:	02500120 	subseq	r0, r0, #32, 2
    2a3c:	25000075 	strcs	r0, [r0, #-117]	; 0x75
    2a40:	0000912c 	andeq	r9, r0, ip, lsr #2
    2a44:	0000117a 	andeq	r1, r0, sl, ror r1
    2a48:	00000af9 	strdeq	r0, [r0], -r9
    2a4c:	02500120 	subseq	r0, r0, #32, 2
    2a50:	25000075 	strcs	r0, [r0, #-117]	; 0x75
    2a54:	00009150 	andeq	r9, r0, r0, asr r1
    2a58:	0000117a 	andeq	r1, r0, sl, ror r1
    2a5c:	00000b0d 	andeq	r0, r0, sp, lsl #22
    2a60:	02500120 	subseq	r0, r0, #32, 2
    2a64:	1f000075 	svcne	0x00000075
    2a68:	00009170 	andeq	r9, r0, r0, ror r1
    2a6c:	0000117a 	andeq	r1, r0, sl, ror r1
    2a70:	02500120 	subseq	r0, r0, #32, 2
    2a74:	00000075 	andeq	r0, r0, r5, ror r0
    2a78:	00080f23 	andeq	r0, r8, r3, lsr #30
    2a7c:	256c0100 	strbcs	r0, [ip, #-256]!	; 0x100
    2a80:	cc000000 	stcgt	0, cr0, [r0], {-0}
    2a84:	a4000091 	strge	r0, [r0], #-145	; 0x91
    2a88:	01000000 	mrseq	r0, (UNDEF: 0)
    2a8c:	000c0c9c 	muleq	ip, ip, ip
    2a90:	00751400 	rsbseq	r1, r5, r0, lsl #8
    2a94:	07226c01 	streq	r6, [r2, -r1, lsl #24]!
    2a98:	1cc90000 	stclne	0, cr0, [r9], {0}
    2a9c:	62140000 	andsvs	r0, r4, #0
    2aa0:	01006675 	tsteq	r0, r5, ror r6
    2aa4:	000c0c6c 	andeq	r0, ip, ip, ror #24
    2aa8:	001d0b00 	andseq	r0, sp, r0, lsl #22
    2aac:	08a11300 	stmiaeq	r1!, {r8, r9, ip}
    2ab0:	6c010000 	stcvs	0, cr0, [r1], {-0}
    2ab4:	00000068 	andeq	r0, r0, r8, rrx
    2ab8:	00001d4d 	andeq	r1, r0, sp, asr #26
    2abc:	646e6514 	strbtvs	r6, [lr], #-1300	; 0x514
    2ac0:	4f6c0100 	svcmi	0x006c0100
    2ac4:	94000000 	strls	r0, [r0], #-0
    2ac8:	2800001d 	stmdacs	r0, {r0, r2, r3, r4}
    2acc:	000008a8 	andeq	r0, r0, r8, lsr #17
    2ad0:	00686c01 	rsbeq	r6, r8, r1, lsl #24
    2ad4:	91020000 	mrsls	r0, (UNDEF: 2)
    2ad8:	01ad2900 			; <UNDEFINED> instruction: 0x01ad2900
    2adc:	0c220000 	stceq	0, cr0, [r2], #-0
    2ae0:	03050000 	movweq	r0, #20480	; 0x5000
    2ae4:	000099dc 	ldrdeq	r9, [r0], -ip
    2ae8:	01006916 	tsteq	r0, r6, lsl r9
    2aec:	00002570 	andeq	r2, r0, r0, ror r5
    2af0:	001dce00 	andseq	ip, sp, r0, lsl #28
    2af4:	08842600 	stmeq	r4, {r9, sl, sp}
    2af8:	71010000 	mrsvc	r0, (UNDEF: 1)
    2afc:	0000004f 	andeq	r0, r0, pc, asr #32
    2b00:	00001df8 	strdeq	r1, [r0], -r8
    2b04:	0091f024 	addseq	pc, r1, r4, lsr #32
    2b08:	00118f00 	andseq	r8, r1, r0, lsl #30
    2b0c:	920c2500 	andls	r2, ip, #0, 10
    2b10:	11960000 	orrsne	r0, r6, r0
    2b14:	0bec0000 	bleq	ffb02b1c <__bss_end__+0xffaf8c1c>
    2b18:	01200000 	teqeq	r0, r0
    2b1c:	6d080253 	sfmvs	f0, 4, [r8, #-332]	; 0xfffffeb4
    2b20:	05520120 	ldrbeq	r0, [r2, #-288]	; 0x120
    2b24:	0099dc03 	addseq	sp, r9, r3, lsl #24
    2b28:	51012000 	mrspl	r2, (UNDEF: 1)
    2b2c:	9a540305 	bls	1503748 <__bss_end__+0x14f9848>
    2b30:	01200000 	teqeq	r0, r0
    2b34:	dc030550 	cfstr32le	mvfx0, [r3], {80}	; 0x50
    2b38:	20000098 	mulcs	r0, r8, r0
    2b3c:	05007d02 	streq	r7, [r0, #-3330]	; 0xd02
    2b40:	009a6803 	addseq	r6, sl, r3, lsl #16
    2b44:	10240000 	eorne	r0, r4, r0
    2b48:	ac000092 	stcge	0, cr0, [r0], {146}	; 0x92
    2b4c:	1f000011 	svcne	0x00000011
    2b50:	0000922c 	andeq	r9, r0, ip, lsr #4
    2b54:	00000762 	andeq	r0, r0, r2, ror #14
    2b58:	02510120 	subseq	r0, r1, #32, 2
    2b5c:	0120007a 	teqeq	r0, sl, ror r0
    2b60:	00780250 	rsbseq	r0, r8, r0, asr r2
    2b64:	04060000 	streq	r0, [r6], #-0
    2b68:	0000004f 	andeq	r0, r0, pc, asr #32
    2b6c:	0000902a 	andeq	r9, r0, sl, lsr #32
    2b70:	000c2200 	andeq	r2, ip, r0, lsl #4
    2b74:	00812b00 	addeq	r2, r1, r0, lsl #22
    2b78:	00120000 	andseq	r0, r2, r0
    2b7c:	000c1207 	andeq	r1, ip, r7, lsl #4
    2b80:	088c2300 	stmeq	ip, {r8, r9, sp}
    2b84:	80010000 	andhi	r0, r1, r0
    2b88:	00000025 	andeq	r0, r0, r5, lsr #32
    2b8c:	00009270 	andeq	r9, r0, r0, ror r2
    2b90:	00000090 	muleq	r0, r0, r0
    2b94:	0cf89c01 	ldcleq	12, cr9, [r8], #4
    2b98:	75140000 	ldrvc	r0, [r4, #-0]
    2b9c:	22800100 	addcs	r0, r0, #0, 2
    2ba0:	0b000007 	bleq	2bc4 <_start-0x543c>
    2ba4:	1400001e 	strne	r0, [r0], #-30
    2ba8:	00667562 	rsbeq	r7, r6, r2, ror #10
    2bac:	0c0c8001 	stceq	0, cr8, [ip], {1}
    2bb0:	1e4d0000 	cdpne	0, 4, cr0, cr13, cr0, {0}
    2bb4:	a1130000 	tstge	r3, r0
    2bb8:	01000008 	tsteq	r0, r8
    2bbc:	00006881 	andeq	r6, r0, r1, lsl #17
    2bc0:	001e8f00 	andseq	r8, lr, r0, lsl #30
    2bc4:	08a81300 	stmiaeq	r8!, {r8, r9, ip}
    2bc8:	81010000 	mrshi	r0, (UNDEF: 1)
    2bcc:	00000068 	andeq	r0, r0, r8, rrx
    2bd0:	00001ed6 	ldrdeq	r1, [r0], -r6
    2bd4:	0001ad29 	andeq	sl, r1, r9, lsr #26
    2bd8:	000d0800 	andeq	r0, sp, r0, lsl #16
    2bdc:	f0030500 			; <UNDEFINED> instruction: 0xf0030500
    2be0:	16000099 			; <UNDEFINED> instruction: 0x16000099
    2be4:	86010069 	strhi	r0, [r1], -r9, rrx
    2be8:	00000025 	andeq	r0, r0, r5, lsr #32
    2bec:	00001f18 	andeq	r1, r0, r8, lsl pc
    2bf0:	00929024 	addseq	r9, r2, r4, lsr #32
    2bf4:	00118f00 	andseq	r8, r1, r0, lsl #30
    2bf8:	92ac2500 	adcls	r2, ip, #0, 10
    2bfc:	11960000 	orrsne	r0, r6, r0
    2c00:	0cd80000 	ldcleq	0, cr0, [r8], {0}
    2c04:	01200000 	teqeq	r0, r0
    2c08:	83080253 	movwhi	r0, #33363	; 0x8253
    2c0c:	05520120 	ldrbeq	r0, [r2, #-288]	; 0x120
    2c10:	0099f003 	addseq	pc, r9, r3
    2c14:	51012000 	mrspl	r2, (UNDEF: 1)
    2c18:	9a540305 	bls	1503834 <__bss_end__+0x14f9934>
    2c1c:	01200000 	teqeq	r0, r0
    2c20:	dc030550 	cfstr32le	mvfx0, [r3], {80}	; 0x50
    2c24:	20000098 	mulcs	r0, r8, r0
    2c28:	05007d02 	streq	r7, [r0, #-3330]	; 0xd02
    2c2c:	009a6803 	addseq	r6, sl, r3, lsl #16
    2c30:	b0240000 	eorlt	r0, r4, r0
    2c34:	ac000092 	stcge	0, cr0, [r0], {146}	; 0x92
    2c38:	1f000011 	svcne	0x00000011
    2c3c:	000092cc 	andeq	r9, r0, ip, asr #5
    2c40:	00000762 	andeq	r0, r0, r2, ror #14
    2c44:	02510120 	subseq	r0, r1, #32, 2
    2c48:	01200078 	teqeq	r0, r8, ror r0
    2c4c:	00770250 	rsbseq	r0, r7, r0, asr r2
    2c50:	902a0000 	eorls	r0, sl, r0
    2c54:	08000000 	stmdaeq	r0, {}	; <UNPREDICTABLE>
    2c58:	2b00000d 	blcs	2c94 <_start-0x536c>
    2c5c:	00000081 	andeq	r0, r0, r1, lsl #1
    2c60:	f8070014 			; <UNDEFINED> instruction: 0xf8070014
    2c64:	2300000c 	movwcs	r0, #12
    2c68:	00000845 	andeq	r0, r0, r5, asr #16
    2c6c:	00d99301 	sbcseq	r9, r9, r1, lsl #6
    2c70:	93000000 	movwls	r0, #0
    2c74:	00d40000 	sbcseq	r0, r4, r0
    2c78:	9c010000 	stcls	0, cr0, [r1], {-0}
    2c7c:	00000e32 	andeq	r0, r0, r2, lsr lr
    2c80:	00787414 	rsbseq	r7, r8, r4, lsl r4
    2c84:	004f9301 	subeq	r9, pc, r1, lsl #6
    2c88:	1f420000 	svcne	0x00420000
    2c8c:	72140000 	andsvc	r0, r4, #0
    2c90:	93010078 	movwls	r0, #4216	; 0x1078
    2c94:	0000004f 	andeq	r0, r0, pc, asr #32
    2c98:	00001f63 	andeq	r1, r0, r3, ror #30
    2c9c:	00041513 	andeq	r1, r4, r3, lsl r5
    2ca0:	68930100 	ldmvs	r3, {r8}
    2ca4:	84000000 	strhi	r0, [r0], #-0
    2ca8:	2800001f 	stmdacs	r0, {r0, r1, r2, r3, r4}
    2cac:	000007de 	ldrdeq	r0, [r0], -lr
    2cb0:	00689301 	rsbeq	r9, r8, r1, lsl #6
    2cb4:	91020000 	mrsls	r0, (UNDEF: 2)
    2cb8:	686d2c00 	stmdavs	sp!, {sl, fp, sp}^
    2cbc:	9b01007a 	blls	42eac <__bss_end__+0x38fac>
    2cc0:	0000002c 	andeq	r0, r0, ip, lsr #32
    2cc4:	29b92700 	ldmibcs	r9!, {r8, r9, sl, sp}
    2cc8:	00082f26 	andeq	r2, r8, r6, lsr #30
    2ccc:	2c9c0100 	ldfcss	f0, [ip], {0}
    2cd0:	ae000000 	cdpge	0, 0, cr0, cr0, cr0, {0}
    2cd4:	2900001f 	stmdbcs	r0, {r0, r1, r2, r3, r4}
    2cd8:	000001ad 	andeq	r0, r0, sp, lsr #3
    2cdc:	00000e42 	andeq	r0, r0, r2, asr #28
    2ce0:	9a080305 	bls	2038fc <__bss_end__+0x1f99fc>
    2ce4:	2c170000 	ldccs	0, cr0, [r7], {-0}
    2ce8:	08000093 	stmdaeq	r0, {r0, r1, r4, r7}
    2cec:	a5000000 	strge	r0, [r0, #-0]
    2cf0:	2d00000d 	stccs	0, cr0, [r0, #-52]	; 0xffffffcc
    2cf4:	01006e69 	tsteq	r0, r9, ror #28
    2cf8:	00002c97 	muleq	r0, r7, ip
    2cfc:	25000100 	strcs	r0, [r0, #-256]	; 0x100
    2d00:	00009324 	andeq	r9, r0, r4, lsr #6
    2d04:	000011b3 			; <UNDEFINED> instruction: 0x000011b3
    2d08:	00000db9 			; <UNDEFINED> instruction: 0x00000db9
    2d0c:	02500120 	subseq	r0, r0, #32, 2
    2d10:	25000076 	strcs	r0, [r0, #-118]	; 0x76
    2d14:	0000932c 	andeq	r9, r0, ip, lsr #6
    2d18:	000011c4 	andeq	r1, r0, r4, asr #3
    2d1c:	00000dcd 	andeq	r0, r0, sp, asr #27
    2d20:	02500120 	subseq	r0, r0, #32, 2
    2d24:	25000078 	strcs	r0, [r0, #-120]	; 0x78
    2d28:	00009340 	andeq	r9, r0, r0, asr #6
    2d2c:	00001159 	andeq	r1, r0, r9, asr r1
    2d30:	00000de6 	andeq	r0, r0, r6, ror #27
    2d34:	01510120 	cmpeq	r1, r0, lsr #2
    2d38:	50012031 	andpl	r2, r1, r1, lsr r0
    2d3c:	00007602 	andeq	r7, r0, r2, lsl #12
    2d40:	00938424 	addseq	r8, r3, r4, lsr #8
    2d44:	00118f00 	andseq	r8, r1, r0, lsl #30
    2d48:	93a02500 	movls	r2, #0, 10
    2d4c:	11960000 	orrsne	r0, r6, r0
    2d50:	0e280000 	cdpeq	0, 2, cr0, cr8, cr0, {0}
    2d54:	01200000 	teqeq	r0, r0
    2d58:	9d080253 	sfmls	f0, 4, [r8, #-332]	; 0xfffffeb4
    2d5c:	05520120 	ldrbeq	r0, [r2, #-288]	; 0x120
    2d60:	009a0803 	addseq	r0, sl, r3, lsl #16
    2d64:	51012000 	mrspl	r2, (UNDEF: 1)
    2d68:	9a540305 	bls	1503984 <__bss_end__+0x14f9a84>
    2d6c:	01200000 	teqeq	r0, r0
    2d70:	dc030550 	cfstr32le	mvfx0, [r3], {80}	; 0x50
    2d74:	20000098 	mulcs	r0, r8, r0
    2d78:	05007d02 	streq	r7, [r0, #-3330]	; 0xd02
    2d7c:	009a7403 	addseq	r7, sl, r3, lsl #8
    2d80:	a4240000 	strtge	r0, [r4], #-0
    2d84:	ac000093 	stcge	0, cr0, [r0], {147}	; 0x93
    2d88:	00000011 	andeq	r0, r0, r1, lsl r0
    2d8c:	0000902a 	andeq	r9, r0, sl, lsr #32
    2d90:	000e4200 	andeq	r4, lr, r0, lsl #4
    2d94:	00812b00 	addeq	r2, r1, r0, lsl #22
    2d98:	00130000 	andseq	r0, r3, r0
    2d9c:	000e3207 	andeq	r3, lr, r7, lsl #4
    2da0:	08222300 	stmdaeq	r2!, {r8, r9, sp}
    2da4:	a9010000 	stmdbge	r1, {}	; <UNPREDICTABLE>
    2da8:	00000025 	andeq	r0, r0, r5, lsr #32
    2dac:	000093d4 	ldrdeq	r9, [r0], -r4
    2db0:	0000003c 	andeq	r0, r0, ip, lsr r0
    2db4:	0eea9c01 	cdpeq	12, 14, cr9, cr10, cr1, {0}
    2db8:	dc130000 	ldcle	0, cr0, [r3], {-0}
    2dbc:	01000003 	tsteq	r0, r3
    2dc0:	000722a9 	andeq	r2, r7, r9, lsr #5
    2dc4:	001fdc00 	andseq	sp, pc, r0, lsl #24
    2dc8:	65721600 	ldrbvs	r1, [r2, #-1536]!	; 0x600
    2dcc:	aa010073 	bge	42fa0 <__bss_end__+0x390a0>
    2dd0:	00000025 	andeq	r0, r0, r5, lsr #32
    2dd4:	00001ffd 	strdeq	r1, [r0], -sp
    2dd8:	0001ad29 	andeq	sl, r1, r9, lsr #26
    2ddc:	000efa00 	andeq	pc, lr, r0, lsl #20
    2de0:	1c030500 	cfstr32ne	mvfx0, [r3], {-0}
    2de4:	2500009a 	strcs	r0, [r0, #-154]	; 0x9a
    2de8:	000093e0 	andeq	r9, r0, r0, ror #7
    2dec:	00000762 	andeq	r0, r0, r2, ror #14
    2df0:	00000ea8 	andeq	r0, r0, r8, lsr #29
    2df4:	02510120 	subseq	r0, r1, #32, 2
    2df8:	0120ff09 	msreq	LR_irq, r9
    2dfc:	01f30350 	mvnseq	r0, r0, asr r3
    2e00:	ec240050 	stc	0, cr0, [r4], #-320	; 0xfffffec0
    2e04:	8f000093 	svchi	0x00000093
    2e08:	25000011 	strcs	r0, [r0, #-17]
    2e0c:	00009400 	andeq	r9, r0, r0, lsl #8
    2e10:	00001196 	muleq	r0, r6, r1
    2e14:	00000ee0 	andeq	r0, r0, r0, ror #29
    2e18:	02530120 	subseq	r0, r3, #32, 2
    2e1c:	0120ac08 	teqeq	r0, r8, lsl #24
    2e20:	1c030552 	cfstr32ne	mvfx0, [r3], {82}	; 0x52
    2e24:	2000009a 	mulcs	r0, sl, r0
    2e28:	03055101 	movweq	r5, #20737	; 0x5101
    2e2c:	00009a54 	andeq	r9, r0, r4, asr sl
    2e30:	05500120 	ldrbeq	r0, [r0, #-288]	; 0x120
    2e34:	009aa803 	addseq	sl, sl, r3, lsl #16
    2e38:	04240000 	strteq	r0, [r4], #-0
    2e3c:	ac000094 	stcge	0, cr0, [r0], {148}	; 0x94
    2e40:	00000011 	andeq	r0, r0, r1, lsl r0
    2e44:	0000902a 	andeq	r9, r0, sl, lsr #32
    2e48:	000efa00 	andeq	pc, lr, r0, lsl #20
    2e4c:	00812b00 	addeq	r2, r1, r0, lsl #22
    2e50:	000c0000 	andeq	r0, ip, r0
    2e54:	000eea07 	andeq	lr, lr, r7, lsl #20
    2e58:	08661200 	stmdaeq	r6!, {r9, ip}^
    2e5c:	b0010000 	andlt	r0, r1, r0
    2e60:	00009410 	andeq	r9, r0, r0, lsl r4
    2e64:	0000002c 	andeq	r0, r0, ip, lsr #32
    2e68:	0f439c01 	svceq	0x00439c01
    2e6c:	dc130000 	ldcle	0, cr0, [r3], {-0}
    2e70:	01000003 	tsteq	r0, r3
    2e74:	000722b0 			; <UNDEFINED> instruction: 0x000722b0
    2e78:	00201000 	eoreq	r1, r0, r0
    2e7c:	736d1400 	cmnvc	sp, #0, 8
    2e80:	b0010067 	andlt	r0, r1, r7, rrx
    2e84:	00000097 	muleq	r0, r7, r0
    2e88:	0000202e 	andeq	r2, r0, lr, lsr #32
    2e8c:	0094281f 	addseq	r2, r4, pc, lsl r8
    2e90:	00017600 	andeq	r7, r1, r0, lsl #12
    2e94:	50012000 	andpl	r2, r1, r0
    2e98:	00007502 	andeq	r7, r0, r2, lsl #10
    2e9c:	03e12300 	mvneq	r2, #0, 6
    2ea0:	b9010000 	stmdblt	r1, {}	; <UNPREDICTABLE>
    2ea4:	00000025 	andeq	r0, r0, r5, lsr #32
    2ea8:	0000943c 	andeq	r9, r0, ip, lsr r4
    2eac:	00000090 	muleq	r0, r0, r0
    2eb0:	10419c01 	subne	r9, r1, r1, lsl #24
    2eb4:	dc130000 	ldcle	0, cr0, [r3], {-0}
    2eb8:	01000003 	tsteq	r0, r3
    2ebc:	000722b9 			; <UNDEFINED> instruction: 0x000722b9
    2ec0:	00204c00 	eoreq	r4, r0, r0, lsl #24
    2ec4:	6d662e00 	stclvs	14, cr2, [r6, #-0]
    2ec8:	b9010074 	stmdblt	r1, {r2, r4, r5, r6}
    2ecc:	00000097 	muleq	r0, r7, r0
    2ed0:	2f749102 	svccs	0x00749102
    2ed4:	66756215 			; <UNDEFINED> instruction: 0x66756215
    2ed8:	41ba0100 			; <UNDEFINED> instruction: 0x41ba0100
    2edc:	03000010 	movweq	r0, #16
    2ee0:	187c9c91 	ldmdane	ip!, {r0, r4, r7, sl, fp, ip, pc}^
    2ee4:	000002b2 			; <UNDEFINED> instruction: 0x000002b2
    2ee8:	0106bc01 	tsteq	r6, r1, lsl #24
    2eec:	91030000 	mrsls	r0, (UNDEF: 3)
    2ef0:	73167c98 	tstvc	r6, #152, 24	; 0x9800
    2ef4:	be01007a 	mcrlt	0, 0, r0, cr1, cr10, {3}
    2ef8:	00000025 	andeq	r0, r0, r5, lsr #32
    2efc:	00002078 	andeq	r2, r0, r8, ror r0
    2f00:	0001ad29 	andeq	sl, r1, r9, lsr #26
    2f04:	00106200 	andseq	r6, r0, r0, lsl #4
    2f08:	2c030500 	cfstr32cs	mvfx0, [r3], {-0}
    2f0c:	2500009a 	strcs	r0, [r0, #-154]	; 0x9a
    2f10:	00009464 	andeq	r9, r0, r4, ror #8
    2f14:	000011d5 	ldrdeq	r1, [r0], -r5
    2f18:	00000fde 	ldrdeq	r0, [r0], -lr
    2f1c:	02530120 	subseq	r0, r3, #32, 2
    2f20:	01205891 			; <UNDEFINED> instruction: 0x01205891
    2f24:	54910352 	ldrpl	r0, [r1], #850	; 0x352
    2f28:	51012006 	tstpl	r1, r6
    2f2c:	01cc0a03 	biceq	r0, ip, r3, lsl #20
    2f30:	03500120 	cmpeq	r0, #32, 2
    2f34:	007bfc91 			; <UNDEFINED> instruction: 0x007bfc91
    2f38:	00947824 	addseq	r7, r4, r4, lsr #16
    2f3c:	00118f00 	andseq	r8, r1, r0, lsl #30
    2f40:	94942500 	ldrls	r2, [r4], #1280	; 0x500
    2f44:	11960000 	orrsne	r0, r6, r0
    2f48:	10200000 	eorne	r0, r0, r0
    2f4c:	01200000 	teqeq	r0, r0
    2f50:	c0080253 	andgt	r0, r8, r3, asr r2
    2f54:	05520120 	ldrbeq	r0, [r2, #-288]	; 0x120
    2f58:	009a2c03 	addseq	r2, sl, r3, lsl #24
    2f5c:	51012000 	mrspl	r2, (UNDEF: 1)
    2f60:	9a540305 	bls	1503b7c <__bss_end__+0x14f9c7c>
    2f64:	01200000 	teqeq	r0, r0
    2f68:	dc030550 	cfstr32le	mvfx0, [r3], {80}	; 0x50
    2f6c:	20000098 	mulcs	r0, r8, r0
    2f70:	05007d02 	streq	r7, [r0, #-3330]	; 0xd02
    2f74:	009ae003 	addseq	lr, sl, r3
    2f78:	98240000 	stmdals	r4!, {}	; <UNPREDICTABLE>
    2f7c:	ac000094 	stcge	0, cr0, [r0], {148}	; 0x94
    2f80:	1f000011 	svcne	0x00000011
    2f84:	000094a4 	andeq	r9, r0, r4, lsr #9
    2f88:	00000eff 	strdeq	r0, [r0], -pc	; <UNPREDICTABLE>
    2f8c:	03510120 	cmpeq	r1, #32, 2
    2f90:	207bfc91 			; <UNDEFINED> instruction: 0x207bfc91
    2f94:	75025001 	strvc	r5, [r2, #-1]
    2f98:	2a000000 	bcs	2fa0 <_start-0x5060>
    2f9c:	00000090 	muleq	r0, r0, r0
    2fa0:	00001052 	andeq	r1, r0, r2, asr r0
    2fa4:	00008130 	andeq	r8, r0, r0, lsr r1
    2fa8:	0001cb00 	andeq	ip, r1, r0, lsl #22
    2fac:	0000902a 	andeq	r9, r0, sl, lsr #32
    2fb0:	00106200 	andseq	r6, r0, r0, lsl #4
    2fb4:	00812b00 	addeq	r2, r1, r0, lsl #22
    2fb8:	000e0000 	andeq	r0, lr, r0
    2fbc:	00105207 	andseq	r5, r0, r7, lsl #4
    2fc0:	08b52300 	ldmeq	r5!, {r8, r9, sp}
    2fc4:	c5010000 	strgt	r0, [r1, #-0]
    2fc8:	00000025 	andeq	r0, r0, r5, lsr #32
    2fcc:	000094cc 	andeq	r9, r0, ip, asr #9
    2fd0:	0000004c 	andeq	r0, r0, ip, asr #32
    2fd4:	11449c01 	cmpne	r4, r1, lsl #24
    2fd8:	75140000 	ldrvc	r0, [r4, #-0]
    2fdc:	22c50100 	sbccs	r0, r5, #0, 2
    2fe0:	b7000007 	strlt	r0, [r0, -r7]
    2fe4:	14000020 	strne	r0, [r0], #-32
    2fe8:	00667562 	rsbeq	r7, r6, r2, ror #10
    2fec:	0c0cc501 	cfstr32eq	mvfx12, [ip], {1}
    2ff0:	20d80000 	sbcscs	r0, r8, r0
    2ff4:	a1130000 	tstge	r3, r0
    2ff8:	01000008 	tsteq	r0, r8
    2ffc:	000068c5 	andeq	r6, r0, r5, asr #17
    3000:	0020f900 	eoreq	pc, r0, r0, lsl #18
    3004:	6e651400 	cdpvs	4, 6, cr1, cr5, cr0, {0}
    3008:	c5010064 	strgt	r0, [r1, #-100]	; 0x64
    300c:	0000004f 	andeq	r0, r0, pc, asr #32
    3010:	0000211a 	andeq	r2, r0, sl, lsl r1
    3014:	73657216 	cmnvc	r5, #1610612737	; 0x60000001
    3018:	25c60100 	strbcs	r0, [r6, #256]	; 0x100
    301c:	3b000000 	blcc	3024 <_start-0x4fdc>
    3020:	29000021 	stmdbcs	r0, {r0, r5}
    3024:	000001ad 	andeq	r0, r0, sp, lsr #3
    3028:	00001154 	andeq	r1, r0, r4, asr r1
    302c:	9a3c0305 	bls	f03c48 <__bss_end__+0xef9d48>
    3030:	e0250000 	eor	r0, r5, r0
    3034:	1e000094 	mcrne	0, 0, r0, cr0, cr4, {4}
    3038:	0200000b 	andeq	r0, r0, #11
    303c:	20000011 	andcs	r0, r0, r1, lsl r0
    3040:	f3035201 	vhsub.u8	d5, d3, d1
    3044:	01205201 	teqeq	r0, r1, lsl #4
    3048:	01f30351 	mvnseq	r0, r1, asr r3
    304c:	50012051 	andpl	r2, r1, r1, asr r0
    3050:	5001f303 	andpl	pc, r1, r3, lsl #6
    3054:	007d0220 	rsbseq	r0, sp, r0, lsr #4
    3058:	00ff0902 	rscseq	r0, pc, r2, lsl #18
    305c:	0094ec24 	addseq	lr, r4, r4, lsr #24
    3060:	00118f00 	andseq	r8, r1, r0, lsl #30
    3064:	95002500 	strls	r2, [r0, #-1280]	; 0x500
    3068:	11960000 	orrsne	r0, r6, r0
    306c:	113a0000 	teqne	sl, r0
    3070:	01200000 	teqeq	r0, r0
    3074:	c8080253 	stmdagt	r8, {r0, r1, r4, r6, r9}
    3078:	05520120 	ldrbeq	r0, [r2, #-288]	; 0x120
    307c:	009a3c03 	addseq	r3, sl, r3, lsl #24
    3080:	51012000 	mrspl	r2, (UNDEF: 1)
    3084:	9a540305 	bls	1503ca0 <__bss_end__+0x14f9da0>
    3088:	01200000 	teqeq	r0, r0
    308c:	a8030550 	stmdage	r3, {r4, r6, r8, sl}
    3090:	0000009a 	muleq	r0, sl, r0
    3094:	00950424 	addseq	r0, r5, r4, lsr #8
    3098:	0011ac00 	andseq	sl, r1, r0, lsl #24
    309c:	902a0000 	eorls	r0, sl, r0
    30a0:	54000000 	strpl	r0, [r0], #-0
    30a4:	2b000011 	blcs	30f0 <_start-0x4f10>
    30a8:	00000081 	andeq	r0, r0, r1, lsl #1
    30ac:	44070016 	strmi	r0, [r7], #-22
    30b0:	31000011 	tstcc	r0, r1, lsl r0
    30b4:	000006d8 	ldrdeq	r0, [r0], -r8
    30b8:	116f2106 	cmnne	pc, r6, lsl #2
    30bc:	2c320000 	ldccs	0, cr0, [r2], #-0
    30c0:	32000000 	andcc	r0, r0, #0
    30c4:	0000002c 	andeq	r0, r0, ip, lsr #32
    30c8:	051e3300 	ldreq	r3, [lr, #-768]	; 0x300
    30cc:	57070000 	strpl	r0, [r7, -r0]
    30d0:	0000002c 	andeq	r0, r0, ip, lsr #32
    30d4:	00066434 	andeq	r6, r6, r4, lsr r4
    30d8:	25240600 	strcs	r0, [r4, #-1536]!	; 0x600
    30dc:	8f000000 	svchi	0x00000000
    30e0:	32000011 	andcc	r0, r0, #17
    30e4:	0000002c 	andeq	r0, r0, ip, lsr #32
    30e8:	01d73500 	bicseq	r3, r7, r0, lsl #10
    30ec:	1e070000 	cdpne	0, 0, cr0, cr7, cr0, {0}
    30f0:	00025d34 	andeq	r5, r2, r4, lsr sp
    30f4:	25290700 	strcs	r0, [r9, #-1792]!	; 0x700
    30f8:	ac000000 	stcge	0, cr0, [r0], {-0}
    30fc:	32000011 	andcc	r0, r0, #17
    3100:	00000097 	muleq	r0, r7, r0
    3104:	8f35002f 	svchi	0x0035002f
    3108:	07000001 	streq	r0, [r0, -r1]
    310c:	07263166 	streq	r3, [r6, -r6, ror #2]!
    3110:	1d060000 	stcne	0, cr0, [r6, #-0]
    3114:	000011c4 	andeq	r1, r0, r4, asr #3
    3118:	00002c32 	andeq	r2, r0, r2, lsr ip
    311c:	0e310000 	cdpeq	0, 3, cr0, cr1, cr0, {0}
    3120:	06000000 	streq	r0, [r0], -r0
    3124:	0011d51c 	andseq	sp, r1, ip, lsl r5
    3128:	002c3200 	eoreq	r3, ip, r0, lsl #4
    312c:	36000000 	strcc	r0, [r0], -r0
    3130:	0000025a 	andeq	r0, r0, sl, asr r2
    3134:	00250208 	eoreq	r0, r5, r8, lsl #4
    3138:	8a320000 	bhi	c83140 <__bss_end__+0xc79240>
    313c:	32000000 	andcc	r0, r0, #0
    3140:	00000025 	andeq	r0, r0, r5, lsr #32
    3144:	00009732 	andeq	r9, r0, r2, lsr r7
    3148:	01063200 	mrseq	r3, LR_usr
    314c:	00000000 	andeq	r0, r0, r0
    3150:	000003ff 	strdeq	r0, [r0], -pc	; <UNPREDICTABLE>
    3154:	0fb90004 	svceq	0x00b90004
    3158:	01040000 	mrseq	r0, (UNDEF: 4)
    315c:	00000203 	andeq	r0, r0, r3, lsl #4
    3160:	0009a301 	andeq	sl, r9, r1, lsl #6
    3164:	00026e00 	andeq	r6, r2, r0, lsl #28
    3168:	00951800 	addseq	r1, r5, r0, lsl #16
    316c:	00015400 	andeq	r5, r1, r0, lsl #8
    3170:	000d6c00 	andeq	r6, sp, r0, lsl #24
    3174:	05040200 	streq	r0, [r4, #-512]	; 0x200
    3178:	00746e69 	rsbseq	r6, r4, r9, ror #28
    317c:	3c070403 	cfstrscc	mvf0, [r7], {3}
    3180:	03000000 	movweq	r0, #0
    3184:	004b0601 	subeq	r0, fp, r1, lsl #12
    3188:	02030000 	andeq	r0, r3, #0
    318c:	0000eb05 	andeq	lr, r0, r5, lsl #22
    3190:	05040300 	streq	r0, [r4, #-768]	; 0x300
    3194:	00000005 	andeq	r0, r0, r5
    3198:	00050803 	andeq	r0, r5, r3, lsl #16
    319c:	03000000 	movweq	r0, #0
    31a0:	00490801 	subeq	r0, r9, r1, lsl #16
    31a4:	02030000 	andeq	r0, r3, #0
    31a8:	0000d807 	andeq	sp, r0, r7, lsl #16
    31ac:	07040300 	streq	r0, [r4, -r0, lsl #6]
    31b0:	00000037 	andeq	r0, r0, r7, lsr r0
    31b4:	32070803 	andcc	r0, r7, #196608	; 0x30000
    31b8:	03000000 	movweq	r0, #0
    31bc:	01600704 	cmneq	r0, r4, lsl #14
    31c0:	01030000 	mrseq	r0, (UNDEF: 3)
    31c4:	00005208 	andeq	r5, r0, r8, lsl #4
    31c8:	02010400 	andeq	r0, r1, #0, 8
    31cc:	0000b20c 	andeq	fp, r0, ip, lsl #4
    31d0:	05bc0500 	ldreq	r0, [ip, #1280]!	; 0x500
    31d4:	05000000 	streq	r0, [r0, #-0]
    31d8:	00000736 	andeq	r0, r0, r6, lsr r7
    31dc:	076f0501 	strbeq	r0, [pc, -r1, lsl #10]!
    31e0:	05040000 	streq	r0, [r4, #-0]
    31e4:	0000077e 	andeq	r0, r0, lr, ror r7
    31e8:	078d0505 	streq	r0, [sp, r5, lsl #10]
    31ec:	05060000 	streq	r0, [r6, #-0]
    31f0:	0000079c 	muleq	r0, ip, r7
    31f4:	07ab0507 	streq	r0, [fp, r7, lsl #10]!
    31f8:	05030000 	streq	r0, [r3, #-0]
    31fc:	000007ba 			; <UNDEFINED> instruction: 0x000007ba
    3200:	63060002 	movwvs	r0, #24578	; 0x6002
    3204:	02000007 	andeq	r0, r0, #7
    3208:	00007915 	andeq	r7, r0, r5, lsl r9
    320c:	00570700 	subseq	r0, r7, r0, lsl #14
    3210:	37010000 	strcc	r0, [r1, -r0]
    3214:	00009518 	andeq	r9, r0, r8, lsl r5
    3218:	0000009c 	muleq	r0, ip, r0
    321c:	01c39c01 	biceq	r9, r3, r1, lsl #24
    3220:	20080000 	andcs	r0, r8, r0
    3224:	a8000095 	stmdage	r0, {r0, r2, r4, r7}
    3228:	09000003 	stmdbeq	r0, {r0, r1}
    322c:	0000952c 	andeq	r9, r0, ip, lsr #10
    3230:	000003af 	andeq	r0, r0, pc, lsr #7
    3234:	000000f3 	strdeq	r0, [r0], -r3
    3238:	0151010a 	cmpeq	r1, sl, lsl #2
    323c:	50010a32 	andpl	r0, r1, r2, lsr sl
    3240:	09003e01 	stmdbeq	r0, {r0, r9, sl, fp, ip, sp}
    3244:	00009538 	andeq	r9, r0, r8, lsr r5
    3248:	000003af 	andeq	r0, r0, pc, lsr #7
    324c:	0000010b 	andeq	r0, r0, fp, lsl #2
    3250:	0151010a 	cmpeq	r1, sl, lsl #2
    3254:	50010a32 	andpl	r0, r1, r2, lsr sl
    3258:	08003f01 	stmdaeq	r0, {r0, r8, r9, sl, fp, ip, sp}
    325c:	0000953c 	andeq	r9, r0, ip, lsr r5
    3260:	000003a8 	andeq	r0, r0, r8, lsr #7
    3264:	00954c09 	addseq	r4, r5, r9, lsl #24
    3268:	0003c500 	andeq	ip, r3, r0, lsl #10
    326c:	00012800 	andeq	r2, r1, r0, lsl #16
    3270:	50010a00 	andpl	r0, r1, r0, lsl #20
    3274:	00007502 	andeq	r7, r0, r2, lsl #10
    3278:	00955809 	addseq	r5, r5, r9, lsl #16
    327c:	0003e600 	andeq	lr, r3, r0, lsl #12
    3280:	00013c00 	andeq	r3, r1, r0, lsl #24
    3284:	50010a00 	andpl	r0, r1, r0, lsl #20
    3288:	00007502 	andeq	r7, r0, r2, lsl #10
    328c:	00955c08 	addseq	r5, r5, r8, lsl #24
    3290:	0003a800 	andeq	sl, r3, r0, lsl #16
    3294:	95680900 	strbls	r0, [r8, #-2304]!	; 0x900
    3298:	03e60000 	mvneq	r0, #0
    329c:	01580000 	cmpeq	r8, r0
    32a0:	010a0000 	mrseq	r0, (UNDEF: 10)
    32a4:	00300151 	eorseq	r0, r0, r1, asr r1
    32a8:	00957409 	addseq	r7, r5, r9, lsl #8
    32ac:	0003e600 	andeq	lr, r3, r0, lsl #12
    32b0:	00016b00 	andeq	r6, r1, r0, lsl #22
    32b4:	51010a00 	tstpl	r1, r0, lsl #20
    32b8:	09003001 	stmdbeq	r0, {r0, ip, sp}
    32bc:	00009580 	andeq	r9, r0, r0, lsl #11
    32c0:	000003e6 	andeq	r0, r0, r6, ror #7
    32c4:	0000017e 	andeq	r0, r0, lr, ror r1
    32c8:	0151010a 	cmpeq	r1, sl, lsl #2
    32cc:	8c090036 	stchi	0, cr0, [r9], {54}	; 0x36
    32d0:	e6000095 			; <UNDEFINED> instruction: 0xe6000095
    32d4:	91000003 	tstls	r0, r3
    32d8:	0a000001 	beq	32e4 <_start-0x4d1c>
    32dc:	33015101 	movwcc	r5, #4353	; 0x1101
    32e0:	95980900 	ldrls	r0, [r8, #2304]	; 0x900
    32e4:	03e60000 	mvneq	r0, #0
    32e8:	01a60000 			; <UNDEFINED> instruction: 0x01a60000
    32ec:	010a0000 	mrseq	r0, (UNDEF: 10)
    32f0:	0e0a0351 	mcreq	3, 0, r0, cr10, cr1, {2}
    32f4:	a4090001 	strge	r0, [r9], #-1
    32f8:	e6000095 			; <UNDEFINED> instruction: 0xe6000095
    32fc:	b9000003 	stmdblt	r0, {r0, r1}
    3300:	0a000001 	beq	330c <_start-0x4cf4>
    3304:	33015101 	movwcc	r5, #4353	; 0x1101
    3308:	95a80800 	strls	r0, [r8, #2048]!	; 0x800
    330c:	03a80000 			; <UNDEFINED> instruction: 0x03a80000
    3310:	0b000000 	bleq	3318 <_start-0x4ce8>
    3314:	00000908 	andeq	r0, r0, r8, lsl #18
    3318:	00255701 	eoreq	r5, r5, r1, lsl #14
    331c:	95b40000 	ldrls	r0, [r4, #0]!
    3320:	001c0000 	andseq	r0, ip, r0
    3324:	9c010000 	stcls	0, cr0, [r1], {-0}
    3328:	000001e6 	andeq	r0, r0, r6, ror #3
    332c:	0095c408 	addseq	ip, r5, r8, lsl #8
    3330:	0003c500 	andeq	ip, r3, r0, lsl #10
    3334:	250b0000 	strcs	r0, [fp, #-0]
    3338:	01000008 	tsteq	r0, r8
    333c:	0000255d 	andeq	r2, r0, sp, asr r5
    3340:	0095d000 	addseq	sp, r5, r0
    3344:	00002800 	andeq	r2, r0, r0, lsl #16
    3348:	129c0100 	addsne	r0, ip, #0, 2
    334c:	08000002 	stmdaeq	r0, {r1}
    3350:	000095d8 	ldrdeq	r9, [r0], -r8
    3354:	000001c3 	andeq	r0, r0, r3, asr #3
    3358:	0095ec08 	addseq	lr, r5, r8, lsl #24
    335c:	0003c500 	andeq	ip, r3, r0, lsl #10
    3360:	520b0000 	andpl	r0, fp, #0
    3364:	01000009 	tsteq	r0, r9
    3368:	00002564 	andeq	r2, r0, r4, ror #10
    336c:	0095f800 	addseq	pc, r5, r0, lsl #16
    3370:	00001c00 	andeq	r1, r0, r0, lsl #24
    3374:	359c0100 	ldrcc	r0, [ip, #256]	; 0x100
    3378:	08000002 	stmdaeq	r0, {r1}
    337c:	00009608 	andeq	r9, r0, r8, lsl #12
    3380:	000003c5 	andeq	r0, r0, r5, asr #7
    3384:	043d0700 	ldrteq	r0, [sp], #-1792	; 0x700
    3388:	6a010000 	bvs	43390 <__bss_end__+0x39490>
    338c:	00009614 	andeq	r9, r0, r4, lsl r6
    3390:	0000002c 	andeq	r0, r0, ip, lsr #32
    3394:	02719c01 	rsbseq	r9, r1, #256	; 0x100
    3398:	630c0000 	movwvs	r0, #49152	; 0xc000
    339c:	2c6a0100 	stfcse	f0, [sl], #-0
    33a0:	59000000 	stmdbpl	r0, {}	; <UNPREDICTABLE>
    33a4:	08000021 	stmdaeq	r0, {r0, r5}
    33a8:	00009620 	andeq	r9, r0, r0, lsr #12
    33ac:	00000212 	andeq	r0, r0, r2, lsl r2
    33b0:	0096380d 	addseq	r3, r6, sp, lsl #16
    33b4:	0003e600 	andeq	lr, r3, r0, lsl #12
    33b8:	51010a00 	tstpl	r1, r0, lsl #20
    33bc:	00007402 	andeq	r7, r0, r2, lsl #8
    33c0:	09260b00 	stmdbeq	r6!, {r8, r9, fp}
    33c4:	74010000 	strvc	r0, [r1], #-0
    33c8:	00000025 	andeq	r0, r0, r5, lsr #32
    33cc:	00009640 	andeq	r9, r0, r0, asr #12
    33d0:	0000000c 	andeq	r0, r0, ip
    33d4:	02949c01 	addseq	r9, r4, #256	; 0x100
    33d8:	48080000 	stmdami	r8, {}	; <UNPREDICTABLE>
    33dc:	c3000096 	movwgt	r0, #150	; 0x96
    33e0:	00000001 	andeq	r0, r0, r1
    33e4:	0009cf0b 	andeq	ip, r9, fp, lsl #30
    33e8:	25780100 	ldrbcs	r0, [r8, #-256]!	; 0x100
    33ec:	4c000000 	stcmi	0, cr0, [r0], {-0}
    33f0:	20000096 	mulcs	r0, r6, r0
    33f4:	01000000 	mrseq	r0, (UNDEF: 0)
    33f8:	0002c09c 	muleq	r2, ip, r0
    33fc:	96540800 	ldrbls	r0, [r4], -r0, lsl #16
    3400:	02710000 	rsbseq	r0, r1, #0
    3404:	60080000 	andvs	r0, r8, r0
    3408:	e6000096 			; <UNDEFINED> instruction: 0xe6000096
    340c:	00000001 	andeq	r0, r0, r1
    3410:	00096c0e 	andeq	r6, r9, lr, lsl #24
    3414:	d1160100 	tstle	r6, r0, lsl #2
    3418:	05000002 	streq	r0, [r0, #-2]
    341c:	0097e403 	addseq	lr, r7, r3, lsl #8
    3420:	d7040f00 	strle	r0, [r4, -r0, lsl #30]
    3424:	10000002 	andne	r0, r0, r2
    3428:	0000002c 	andeq	r0, r0, ip, lsr #32
    342c:	0009600e 	andeq	r6, r9, lr
    3430:	d1170100 	tstle	r7, r0, lsl #2
    3434:	05000002 	streq	r0, [r0, #-2]
    3438:	0097b403 	addseq	fp, r7, r3, lsl #8
    343c:	08eb0e00 	stmiaeq	fp!, {r9, sl, fp}^
    3440:	1a010000 	bne	43448 <__bss_end__+0x39548>
    3444:	000002d1 	ldrdeq	r0, [r0], -r1
    3448:	97d00305 	ldrbls	r0, [r0, r5, lsl #6]
    344c:	340e0000 	strcc	r0, [lr], #-0
    3450:	01000009 	tsteq	r0, r9
    3454:	0002d11b 	andeq	sp, r2, fp, lsl r1
    3458:	bc030500 	cfstr32lt	mvfx0, [r3], {-0}
    345c:	0e000097 	mcreq	0, 0, r0, cr0, cr7, {4}
    3460:	00000943 	andeq	r0, r0, r3, asr #18
    3464:	02d11c01 	sbcseq	r1, r1, #256	; 0x100
    3468:	03050000 	movweq	r0, #20480	; 0x5000
    346c:	000097c0 	andeq	r9, r0, r0, asr #15
    3470:	0009b10e 	andeq	fp, r9, lr, lsl #2
    3474:	d11d0100 	tstle	sp, r0, lsl #2
    3478:	05000002 	streq	r0, [r0, #-2]
    347c:	0097c403 	addseq	ip, r7, r3, lsl #8
    3480:	08dc0e00 	ldmeq	ip, {r9, sl, fp}^
    3484:	1e010000 	cdpne	0, 0, cr0, cr1, cr0, {0}
    3488:	000002d1 	ldrdeq	r0, [r0], -r1
    348c:	97e00305 	strbls	r0, [r0, r5, lsl #6]!
    3490:	c00e0000 	andgt	r0, lr, r0
    3494:	01000009 	tsteq	r0, r9
    3498:	0002d11f 	andeq	sp, r2, pc, lsl r1
    349c:	cc030500 	cfstr32gt	mvfx0, [r3], {-0}
    34a0:	0e000097 	mcreq	0, 0, r0, cr0, cr7, {4}
    34a4:	000008f9 	strdeq	r0, [r0], -r9
    34a8:	02d12001 	sbcseq	r2, r1, #1
    34ac:	03050000 	movweq	r0, #20480	; 0x5000
    34b0:	000097dc 	ldrdeq	r9, [r0], -ip
    34b4:	0009940e 	andeq	r9, r9, lr, lsl #8
    34b8:	d1210100 	teqle	r1, r0, lsl #2
    34bc:	05000002 	streq	r0, [r0, #-2]
    34c0:	0097d803 	addseq	sp, r7, r3, lsl #16
    34c4:	09160e00 	ldmdbeq	r6, {r9, sl, fp}
    34c8:	22010000 	andcs	r0, r1, #0
    34cc:	000002d1 	ldrdeq	r0, [r0], -r1
    34d0:	97b80305 	ldrls	r0, [r8, r5, lsl #6]!
    34d4:	840e0000 	strhi	r0, [lr], #-0
    34d8:	01000009 	tsteq	r0, r9
    34dc:	0002d123 	andeq	sp, r2, r3, lsr #2
    34e0:	d4030500 	strle	r0, [r3], #-1280	; 0x500
    34e4:	0e000097 	mcreq	0, 0, r0, cr0, cr7, {4}
    34e8:	00000974 	andeq	r0, r0, r4, ror r9
    34ec:	02d12401 	sbcseq	r2, r1, #16777216	; 0x1000000
    34f0:	03050000 	movweq	r0, #20480	; 0x5000
    34f4:	000097c8 	andeq	r9, r0, r8, asr #15
    34f8:	00064611 	andeq	r4, r6, r1, lsl r6
    34fc:	128a0300 	addne	r0, sl, #0, 6
    3500:	00000683 	andeq	r0, r0, r3, lsl #13
    3504:	03c51902 	biceq	r1, r5, #32768	; 0x8000
    3508:	2c130000 	ldccs	0, cr0, [r3], {-0}
    350c:	13000000 	movwne	r0, #0
    3510:	000000b2 	strheq	r0, [r0], -r2
    3514:	07471400 	strbeq	r1, [r7, -r0, lsl #8]
    3518:	a9030000 	stmdbge	r3, {}	; <UNPREDICTABLE>
    351c:	0000002c 	andeq	r0, r0, ip, lsr #32
    3520:	000003da 	ldrdeq	r0, [r0], -sl
    3524:	0003da13 	andeq	sp, r3, r3, lsl sl
    3528:	040f0000 	streq	r0, [pc], #-0	; 3530 <_start-0x4ad0>
    352c:	000003e0 	andeq	r0, r0, r0, ror #7
    3530:	0003e515 	andeq	lr, r3, r5, lsl r5
    3534:	9c121600 	ldcls	6, cr1, [r2], {-0}
    3538:	03000001 	movweq	r0, #1
    353c:	0003fc9d 	muleq	r3, sp, ip
    3540:	03fc1300 	mvnseq	r1, #0, 6
    3544:	2c130000 	ldccs	0, cr0, [r3], {-0}
    3548:	00000000 	andeq	r0, r0, r0
    354c:	03e5040f 	mvneq	r0, #251658240	; 0xf000000
    3550:	c3000000 	movwgt	r0, #0
    3554:	04000001 	streq	r0, [r0], #-1
    3558:	0010e700 	andseq	lr, r0, r0, lsl #14
    355c:	03010400 	movweq	r0, #5120	; 0x1400
    3560:	01000002 	tsteq	r0, r2
    3564:	000009f4 	strdeq	r0, [r0], -r4
    3568:	0000026e 	andeq	r0, r0, lr, ror #4
    356c:	000096d0 	ldrdeq	r9, [r0], -r0
    3570:	00000050 	andeq	r0, r0, r0, asr r0
    3574:	00000e71 	andeq	r0, r0, r1, ror lr
    3578:	69050402 	stmdbvs	r5, {r1, sl}
    357c:	0300746e 	movweq	r7, #1134	; 0x46e
    3580:	000009df 	ldrdeq	r0, [r0], -pc	; <UNPREDICTABLE>
    3584:	0037d402 	eorseq	sp, r7, r2, lsl #8
    3588:	04040000 	streq	r0, [r4], #-0
    358c:	00003c07 	andeq	r3, r0, r7, lsl #24
    3590:	06010400 	streq	r0, [r1], -r0, lsl #8
    3594:	0000004b 	andeq	r0, r0, fp, asr #32
    3598:	eb050204 	bl	143db0 <__bss_end__+0x139eb0>
    359c:	04000000 	streq	r0, [r0], #-0
    35a0:	00050504 	andeq	r0, r5, r4, lsl #10
    35a4:	08040000 	stmdaeq	r4, {}	; <UNPREDICTABLE>
    35a8:	00000005 	andeq	r0, r0, r5
    35ac:	04470300 	strbeq	r0, [r7], #-768	; 0x300
    35b0:	2e030000 	cdpcs	0, 0, cr0, cr3, cr0, {0}
    35b4:	00000065 	andeq	r0, r0, r5, rrx
    35b8:	49080104 	stmdbmi	r8, {r2, r8}
    35bc:	04000000 	streq	r0, [r0], #-0
    35c0:	00d80702 	sbcseq	r0, r8, r2, lsl #14
    35c4:	9e030000 	cdpls	0, 0, cr0, cr3, cr0, {0}
    35c8:	03000004 	movweq	r0, #4
    35cc:	00007e34 	andeq	r7, r0, r4, lsr lr
    35d0:	07040400 	streq	r0, [r4, -r0, lsl #8]
    35d4:	00000037 	andeq	r0, r0, r7, lsr r0
    35d8:	32070804 	andcc	r0, r7, #4, 16	; 0x40000
    35dc:	04000000 	streq	r0, [r0], #-0
    35e0:	01600704 	cmneq	r0, r4, lsl #14
    35e4:	04050000 	streq	r0, [r5], #-0
    35e8:	52080104 	andpl	r0, r8, #4, 2
    35ec:	06000000 	streq	r0, [r0], -r0
    35f0:	d30e040c 	movwle	r0, #58380	; 0xe40c
    35f4:	07000000 	streq	r0, [r0, -r0]
    35f8:	04007874 	streq	r7, [r0], #-2164	; 0x874
    35fc:	00005a0f 	andeq	r5, r0, pc, lsl #20
    3600:	72070000 	andvc	r0, r7, #0
    3604:	0f040078 	svceq	0x00040078
    3608:	0000005a 	andeq	r0, r0, sl, asr r0
    360c:	04150801 	ldreq	r0, [r5], #-2049	; 0x801
    3610:	10040000 	andne	r0, r4, r0
    3614:	00000073 	andeq	r0, r0, r3, ror r0
    3618:	03c60804 	biceq	r0, r6, #4, 16	; 0x40000
    361c:	11040000 	mrsne	r0, (UNDEF: 4)
    3620:	00000073 	andeq	r0, r0, r3, ror r0
    3624:	fe030008 	cdp2	0, 0, cr0, cr3, cr8, {0}
    3628:	04000003 	streq	r0, [r0], #-3
    362c:	00009c12 	andeq	r9, r0, r2, lsl ip
    3630:	05010900 	streq	r0, [r1, #-2304]	; 0x900
    3634:	0000f910 	andeq	pc, r0, r0, lsl r9	; <UNPREDICTABLE>
    3638:	041a0a00 	ldreq	r0, [sl], #-2560	; 0xa00
    363c:	0a010000 	beq	43644 <__bss_end__+0x39744>
    3640:	00000408 	andeq	r0, r0, r8, lsl #8
    3644:	03f00a02 	mvnseq	r0, #8192	; 0x2000
    3648:	00030000 	andeq	r0, r3, r0
    364c:	00042f03 	andeq	r2, r4, r3, lsl #30
    3650:	de100500 	cfmul32le	mvfx0, mvfx0, mvfx0
    3654:	06000000 	streq	r0, [r0], -r0
    3658:	31140514 	tstcc	r4, r4, lsl r5
    365c:	08000001 	stmdaeq	r0, {r0}
    3660:	000004a7 	andeq	r0, r0, r7, lsr #9
    3664:	00371505 	eorseq	r1, r7, r5, lsl #10
    3668:	08000000 	stmdaeq	r0, {}	; <UNPREDICTABLE>
    366c:	00000492 	muleq	r0, r2, r4
    3670:	00f91805 	rscseq	r1, r9, r5, lsl #16
    3674:	08040000 	stmdaeq	r4, {}	; <UNPREDICTABLE>
    3678:	0000045d 	andeq	r0, r0, sp, asr r4
    367c:	00d31b05 	sbcseq	r1, r3, r5, lsl #22
    3680:	00080000 	andeq	r0, r8, r0
    3684:	00044f03 	andeq	r4, r4, r3, lsl #30
    3688:	04200500 	strteq	r0, [r0], #-1280	; 0x500
    368c:	0b000001 	bleq	3698 <_start-0x4968>
    3690:	000009ed 	andeq	r0, r0, sp, ror #19
    3694:	017e0501 	cmneq	lr, r1, lsl #10
    3698:	96d00000 	ldrbls	r0, [r0], r0
    369c:	00280000 	eoreq	r0, r8, r0
    36a0:	9c010000 	stcls	0, cr0, [r1], {-0}
    36a4:	0000017e 	andeq	r0, r0, lr, ror r1
    36a8:	0100630c 	tsteq	r0, ip, lsl #6
    36ac:	00017e06 	andeq	r7, r1, r6, lsl #28
    36b0:	00000000 	andeq	r0, r0, r0
    36b4:	96e40d09 	strbtls	r0, [r4], r9, lsl #26
    36b8:	01ab0000 			; <UNDEFINED> instruction: 0x01ab0000
    36bc:	010e0000 	mrseq	r0, (UNDEF: 14)
    36c0:	0e340152 	mrceq	1, 1, r0, cr4, cr2, {2}
    36c4:	30015101 	andcc	r5, r1, r1, lsl #2
    36c8:	0350010e 	cmpeq	r0, #-2147483645	; 0x80000003
    36cc:	00244742 	eoreq	r4, r4, r2, asr #14
    36d0:	31040f00 	tstcc	r4, r0, lsl #30
    36d4:	0b000001 	bleq	36e0 <_start-0x4920>
    36d8:	00000465 	andeq	r0, r0, r5, ror #8
    36dc:	017e0c01 	cmneq	lr, r1, lsl #24
    36e0:	96f80000 	ldrbtls	r0, [r8], r0
    36e4:	00280000 	eoreq	r0, r8, r0
    36e8:	9c010000 	stcls	0, cr0, [r1], {-0}
    36ec:	000001ab 	andeq	r0, r0, fp, lsr #3
    36f0:	0100630c 	tsteq	r0, ip, lsl #6
    36f4:	00017e0d 	andeq	r7, r1, sp, lsl #28
    36f8:	00000000 	andeq	r0, r0, r0
    36fc:	e6100009 	ldr	r0, [r0], -r9
    3700:	06000009 	streq	r0, [r0], -r9
    3704:	0000931b 	andeq	r9, r0, fp, lsl r3
    3708:	00931100 	addseq	r1, r3, r0, lsl #2
    370c:	25110000 	ldrcs	r0, [r1, #-0]
    3710:	11000000 	mrsne	r0, (UNDEF: 0)
    3714:	0000002c 	andeq	r0, r0, ip, lsr #32
    3718:	00db0000 	sbcseq	r0, fp, r0
    371c:	00040000 	andeq	r0, r4, r0
    3720:	000011cb 	andeq	r1, r0, fp, asr #3
    3724:	02030104 	andeq	r0, r3, #4, 2
    3728:	0f010000 	svceq	0x00010000
    372c:	6e00000a 	cdpvs	0, 0, cr0, cr0, cr10, {0}
    3730:	20000002 	andcs	r0, r0, r2
    3734:	20000097 	mulcs	r0, r7, r0
    3738:	9d000000 	stcls	0, cr0, [r0, #-0]
    373c:	0200000f 	andeq	r0, r0, #15
    3740:	004b0601 	subeq	r0, fp, r1, lsl #12
    3744:	01020000 	mrseq	r0, (UNDEF: 2)
    3748:	00004908 	andeq	r4, r0, r8, lsl #18
    374c:	05020200 	streq	r0, [r2, #-512]	; 0x200
    3750:	000000eb 	andeq	r0, r0, fp, ror #1
    3754:	d8070202 	stmdale	r7, {r1, r9}
    3758:	03000000 	movweq	r0, #0
    375c:	6e690504 	cdpvs	5, 6, cr0, cr9, cr4, {0}
    3760:	04020074 	streq	r0, [r2], #-116	; 0x74
    3764:	00003c07 	andeq	r3, r0, r7, lsl #24
    3768:	05080200 	streq	r0, [r8, #-512]	; 0x200
    376c:	00000000 	andeq	r0, r0, r0
    3770:	32070802 	andcc	r0, r7, #131072	; 0x20000
    3774:	02000000 	andeq	r0, r0, #0
    3778:	00050504 	andeq	r0, r5, r4, lsl #10
    377c:	04020000 	streq	r0, [r2], #-0
    3780:	00016007 	andeq	r6, r1, r7
    3784:	02040400 	andeq	r0, r4, #0, 8
    3788:	00370704 	eorseq	r0, r7, r4, lsl #14
    378c:	04050000 	streq	r0, [r5], #-0
    3790:	0000007a 	andeq	r0, r0, sl, ror r0
    3794:	52080102 	andpl	r0, r8, #-2147483648	; 0x80000000
    3798:	06000000 	streq	r0, [r0], -r0
    379c:	000009df 	ldrdeq	r0, [r0], -pc	; <UNPREDICTABLE>
    37a0:	0048d402 	subeq	sp, r8, r2, lsl #8
    37a4:	e6070000 	str	r0, [r7], -r0
    37a8:	03000009 	movweq	r0, #9
    37ac:	00006b1b 	andeq	r6, r0, fp, lsl fp
    37b0:	00972000 	addseq	r2, r7, r0
    37b4:	00002000 	andeq	r2, r0, r0
    37b8:	089c0100 	ldmeq	ip, {r8}
    37bc:	0100705f 	qaddeq	r7, pc, r0	; <UNPREDICTABLE>
    37c0:	00006b03 	andeq	r6, r0, r3, lsl #22
    37c4:	08500100 	ldmdaeq	r0, {r8}^
    37c8:	03010063 	movweq	r0, #4195	; 0x1063
    37cc:	00000041 	andeq	r0, r0, r1, asr #32
    37d0:	6e095101 	adfvse	f5, f1, f1
    37d4:	81030100 	mrshi	r0, (UNDEF: 19)
    37d8:	77000000 	strvc	r0, [r0, -r0]
    37dc:	0a000021 	beq	3868 <_start-0x4798>
    37e0:	04010070 	streq	r0, [r1], #-112	; 0x70
    37e4:	00000074 	andeq	r0, r0, r4, ror r0
    37e8:	00002198 	muleq	r0, r8, r1
    37ec:	0100650b 	tsteq	r0, fp, lsl #10
    37f0:	00007404 	andeq	r7, r0, r4, lsl #8
    37f4:	00520100 	subseq	r0, r2, r0, lsl #2
	...

Disassembly of section .debug_abbrev:

00000000 <.debug_abbrev>:
       0:	25011101 	strcs	r1, [r1, #-257]	; 0x101
       4:	030b130e 	movweq	r1, #45838	; 0xb30e
       8:	110e1b0e 	tstne	lr, lr, lsl #22
       c:	10061201 	andne	r1, r6, r1, lsl #4
      10:	02000017 	andeq	r0, r0, #23
      14:	0b0b0024 	bleq	2c00ac <__bss_end__+0x2b61ac>
      18:	08030b3e 	stmdaeq	r3, {r1, r2, r3, r4, r5, r8, r9, fp}
      1c:	24030000 	strcs	r0, [r3], #-0
      20:	3e0b0b00 	vmlacc.f64	d0, d11, d0
      24:	000e030b 	andeq	r0, lr, fp, lsl #6
      28:	000f0400 	andeq	r0, pc, r0, lsl #8
      2c:	13490b0b 	movtne	r0, #39691	; 0x9b0b
      30:	26050000 	strcs	r0, [r5], -r0
      34:	00134900 	andseq	r4, r3, r0, lsl #18
      38:	012e0600 	teqeq	lr, r0, lsl #12
      3c:	0e03193f 	mcreq	9, 0, r1, cr3, cr15, {1}
      40:	0b3b0b3a 	bleq	ec2d30 <__bss_end__+0xeb8e30>
      44:	01111927 	tsteq	r1, r7, lsr #18
      48:	18400612 	stmdane	r0, {r1, r4, r9, sl}^
      4c:	01194297 			; <UNDEFINED> instruction: 0x01194297
      50:	07000013 	smladeq	r0, r3, r0, r0
      54:	08030034 	stmdaeq	r3, {r2, r4, r5}
      58:	0b3b0b3a 	bleq	ec2d48 <__bss_end__+0xeb8e48>
      5c:	0b1c1349 	bleq	704d88 <__bss_end__+0x6fae88>
      60:	34080000 	strcc	r0, [r8], #-0
      64:	3a0e0300 	bcc	380c6c <__bss_end__+0x376d6c>
      68:	490b3b0b 	stmdbmi	fp, {r0, r1, r3, r8, r9, fp, ip, sp}
      6c:	000b1c13 	andeq	r1, fp, r3, lsl ip
      70:	012e0900 	teqeq	lr, r0, lsl #18
      74:	0e03193f 	mcreq	9, 0, r1, cr3, cr15, {1}
      78:	0b3b0b3a 	bleq	ec2d68 <__bss_end__+0xeb8e68>
      7c:	193c1349 	ldmdbne	ip!, {r0, r3, r6, r8, r9, ip}
      80:	00001301 	andeq	r1, r0, r1, lsl #6
      84:	0000180a 	andeq	r1, r0, sl, lsl #16
      88:	010b0b00 	tsteq	fp, r0, lsl #22
      8c:	06120111 			; <UNDEFINED> instruction: 0x06120111
      90:	00001301 	andeq	r1, r0, r1, lsl #6
      94:	0182890c 	orreq	r8, r2, ip, lsl #18
      98:	31011100 	mrscc	r1, (UNDEF: 17)
      9c:	0d000013 	stceq	0, cr0, [r0, #-76]	; 0xffffffb4
      a0:	01018289 	smlabbeq	r1, r9, r2, r8
      a4:	13310111 	teqne	r1, #1073741828	; 0x40000004
      a8:	00001301 	andeq	r1, r0, r1, lsl #6
      ac:	01828a0e 	orreq	r8, r2, lr, lsl #20
      b0:	91180200 	tstls	r8, r0, lsl #4
      b4:	00001842 	andeq	r1, r0, r2, asr #16
      b8:	0182890f 	orreq	r8, r2, pc, lsl #18
      bc:	31011101 	tstcc	r1, r1, lsl #2
      c0:	10000013 	andne	r0, r0, r3, lsl r0
      c4:	193f002e 	ldmdbne	pc!, {r1, r2, r3, r5}	; <UNPREDICTABLE>
      c8:	0b3a0e03 	bleq	e838dc <__bss_end__+0xe799dc>
      cc:	19270b3b 	stmdbne	r7!, {r0, r1, r3, r4, r5, r8, r9, fp}
      d0:	0000193c 	andeq	r1, r0, ip, lsr r9
      d4:	3f012e11 	svccc	0x00012e11
      d8:	3a0e0319 	bcc	380d44 <__bss_end__+0x376e44>
      dc:	270b3b0b 	strcs	r3, [fp, -fp, lsl #22]
      e0:	01193c19 	tsteq	r9, r9, lsl ip
      e4:	12000013 	andne	r0, r0, #19
      e8:	13490005 	movtne	r0, #36869	; 0x9005
      ec:	2e130000 	cdpcs	0, 1, cr0, cr3, cr0, {0}
      f0:	03193f01 	tsteq	r9, #1, 30
      f4:	3b0b3a0e 	blcc	2ce934 <__bss_end__+0x2c4a34>
      f8:	4919270b 	ldmdbmi	r9, {r0, r1, r3, r8, r9, sl, sp}
      fc:	00193c13 	andseq	r3, r9, r3, lsl ip
     100:	11010000 	mrsne	r0, (UNDEF: 1)
     104:	130e2501 	movwne	r2, #58625	; 0xe501
     108:	1b0e030b 	blne	380d3c <__bss_end__+0x376e3c>
     10c:	1201110e 	andne	r1, r1, #-2147483645	; 0x80000003
     110:	00171006 	andseq	r1, r7, r6
     114:	00240200 	eoreq	r0, r4, r0, lsl #4
     118:	0b3e0b0b 	bleq	f82d4c <__bss_end__+0xf78e4c>
     11c:	00000803 	andeq	r0, r0, r3, lsl #16
     120:	0b002403 	bleq	9134 <sw_uart_getc_timeout+0x130>
     124:	030b3e0b 	movweq	r3, #48651	; 0xbe0b
     128:	0400000e 	streq	r0, [r0], #-14
     12c:	0b0b000f 	bleq	2c0170 <__bss_end__+0x2b6270>
     130:	00001349 	andeq	r1, r0, r9, asr #6
     134:	49002605 	stmdbmi	r0, {r0, r2, r9, sl, sp}
     138:	06000013 			; <UNDEFINED> instruction: 0x06000013
     13c:	193f012e 	ldmdbne	pc!, {r1, r2, r3, r5, r8}	; <UNPREDICTABLE>
     140:	0b3a0e03 	bleq	e83954 <__bss_end__+0xe79a54>
     144:	19270b3b 	stmdbne	r7!, {r0, r1, r3, r4, r5, r8, r9, fp}
     148:	06120111 			; <UNDEFINED> instruction: 0x06120111
     14c:	42971840 	addsmi	r1, r7, #64, 16	; 0x400000
     150:	00130119 	andseq	r0, r3, r9, lsl r1
     154:	00050700 	andeq	r0, r5, r0, lsl #14
     158:	0b3a0803 	bleq	e8216c <__bss_end__+0xe7826c>
     15c:	13490b3b 	movtne	r0, #39739	; 0x9b3b
     160:	00001702 	andeq	r1, r0, r2, lsl #14
     164:	03003408 	movweq	r3, #1032	; 0x408
     168:	3b0b3a08 	blcc	2ce990 <__bss_end__+0x2c4a90>
     16c:	1c13490b 	ldcne	9, cr4, [r3], {11}
     170:	0900000b 	stmdbeq	r0, {r0, r1, r3}
     174:	0e030034 	mcreq	0, 0, r0, cr3, cr4, {1}
     178:	0b3b0b3a 	bleq	ec2e68 <__bss_end__+0xeb8f68>
     17c:	17021349 	strne	r1, [r2, -r9, asr #6]
     180:	340a0000 	strcc	r0, [sl], #-0
     184:	3a0e0300 	bcc	380d8c <__bss_end__+0x376e8c>
     188:	490b3b0b 	stmdbmi	fp, {r0, r1, r3, r8, r9, fp, ip, sp}
     18c:	00180213 	andseq	r0, r8, r3, lsl r2
     190:	010b0b00 	tsteq	fp, r0, lsl #22
     194:	06120111 			; <UNDEFINED> instruction: 0x06120111
     198:	00001301 	andeq	r1, r0, r1, lsl #6
     19c:	0182890c 	orreq	r8, r2, ip, lsl #18
     1a0:	31011101 	tstcc	r1, r1, lsl #2
     1a4:	00130113 	andseq	r0, r3, r3, lsl r1
     1a8:	828a0d00 	addhi	r0, sl, #0, 26
     1ac:	18020001 	stmdane	r2, {r0}
     1b0:	00184291 	mulseq	r8, r1, r2
     1b4:	82890e00 	addhi	r0, r9, #0, 28
     1b8:	01110101 	tsteq	r1, r1, lsl #2
     1bc:	00001331 	andeq	r1, r0, r1, lsr r3
     1c0:	4900350f 	stmdbmi	r0, {r0, r1, r2, r3, r8, sl, ip, sp}
     1c4:	10000013 	andne	r0, r0, r3, lsl r0
     1c8:	0e030034 	mcreq	0, 0, r0, cr3, cr4, {1}
     1cc:	19341349 	ldmdbne	r4!, {r0, r3, r6, r8, r9, ip}
     1d0:	00001802 	andeq	r1, r0, r2, lsl #16
     1d4:	01828911 	orreq	r8, r2, r1, lsl r9
     1d8:	31011100 	mrscc	r1, (UNDEF: 17)
     1dc:	12000013 	andne	r0, r0, #19
     1e0:	13490101 	movtne	r0, #37121	; 0x9101
     1e4:	00001301 	andeq	r1, r0, r1, lsl #6
     1e8:	49002113 	stmdbmi	r0, {r0, r1, r4, r8, sp}
     1ec:	000b2f13 	andeq	r2, fp, r3, lsl pc
     1f0:	00341400 	eorseq	r1, r4, r0, lsl #8
     1f4:	0b3a0e03 	bleq	e83a08 <__bss_end__+0xe79b08>
     1f8:	13490b3b 	movtne	r0, #39739	; 0x9b3b
     1fc:	1802193f 	stmdane	r2, {r0, r1, r2, r3, r4, r5, r8, fp, ip}
     200:	2e150000 	cdpcs	0, 1, cr0, cr5, cr0, {0}
     204:	03193f01 	tsteq	r9, #1, 30
     208:	3b0b3a0e 	blcc	2cea48 <__bss_end__+0x2c4b48>
     20c:	3c19270b 	ldccc	7, cr2, [r9], {11}
     210:	00130119 	andseq	r0, r3, r9, lsl r1
     214:	00051600 	andeq	r1, r5, r0, lsl #12
     218:	00001349 	andeq	r1, r0, r9, asr #6
     21c:	00003517 	andeq	r3, r0, r7, lsl r5
     220:	002e1800 	eoreq	r1, lr, r0, lsl #16
     224:	0e03193f 	mcreq	9, 0, r1, cr3, cr15, {1}
     228:	0b3b0b3a 	bleq	ec2f18 <__bss_end__+0xeb9018>
     22c:	193c1927 	ldmdbne	ip!, {r0, r1, r2, r5, r8, fp, ip}
     230:	2e190000 	cdpcs	0, 1, cr0, cr9, cr0, {0}
     234:	03193f01 	tsteq	r9, #1, 30
     238:	3b0b3a0e 	blcc	2cea78 <__bss_end__+0x2c4b78>
     23c:	4919270b 	ldmdbmi	r9, {r0, r1, r3, r8, r9, sl, sp}
     240:	01193c13 	tsteq	r9, r3, lsl ip
     244:	1a000013 	bne	298 <_start-0x7d68>
     248:	00000018 	andeq	r0, r0, r8, lsl r0
     24c:	01110100 	tsteq	r1, r0, lsl #2
     250:	0b130e25 	bleq	4c3aec <__bss_end__+0x4b9bec>
     254:	0e1b0e03 	cdpeq	14, 1, cr0, cr11, cr3, {0}
     258:	06120111 			; <UNDEFINED> instruction: 0x06120111
     25c:	00001710 	andeq	r1, r0, r0, lsl r7
     260:	03001602 	movweq	r1, #1538	; 0x602
     264:	3b0b3a0e 	blcc	2ceaa4 <__bss_end__+0x2c4ba4>
     268:	0013490b 	andseq	r4, r3, fp, lsl #18
     26c:	01130300 	tsteq	r3, r0, lsl #6
     270:	0b0b0e03 	bleq	2c3a84 <__bss_end__+0x2b9b84>
     274:	0b3b0b3a 	bleq	ec2f64 <__bss_end__+0xeb9064>
     278:	00001301 	andeq	r1, r0, r1, lsl #6
     27c:	03000d04 	movweq	r0, #3332	; 0xd04
     280:	3813490e 	ldmdacc	r3, {r1, r2, r3, r8, fp, lr}
     284:	0019340b 	andseq	r3, r9, fp, lsl #8
     288:	000f0500 	andeq	r0, pc, r0, lsl #10
     28c:	00000b0b 	andeq	r0, r0, fp, lsl #22
     290:	0b002406 	bleq	92b0 <sw_uart_gets_timeout+0x40>
     294:	030b3e0b 	movweq	r3, #48651	; 0xbe0b
     298:	07000008 	streq	r0, [r0, -r8]
     29c:	0b0b0024 	bleq	2c0334 <__bss_end__+0x2b6434>
     2a0:	0e030b3e 	vmoveq.16	d3[0], r0
     2a4:	0f080000 	svceq	0x00080000
     2a8:	490b0b00 	stmdbmi	fp, {r8, r9, fp}
     2ac:	09000013 	stmdbeq	r0, {r0, r1, r4}
     2b0:	13490026 	movtne	r0, #36902	; 0x9026
     2b4:	2e0a0000 	cdpcs	0, 0, cr0, cr10, cr0, {0}
     2b8:	03193f01 	tsteq	r9, #1, 30
     2bc:	3b0b3a0e 	blcc	2ceafc <__bss_end__+0x2c4bfc>
     2c0:	4919270b 	ldmdbmi	r9, {r0, r1, r3, r8, r9, sl, sp}
     2c4:	12011113 	andne	r1, r1, #-1073741820	; 0xc0000004
     2c8:	97184006 	ldrls	r4, [r8, -r6]
     2cc:	13011942 	movwne	r1, #6466	; 0x1942
     2d0:	050b0000 	streq	r0, [fp, #-0]
     2d4:	3a080300 	bcc	200edc <__bss_end__+0x1f6fdc>
     2d8:	490b3b0b 	stmdbmi	fp, {r0, r1, r3, r8, r9, fp, ip, sp}
     2dc:	00180213 	andseq	r0, r8, r3, lsl r2
     2e0:	00180c00 	andseq	r0, r8, r0, lsl #24
     2e4:	340d0000 	strcc	r0, [sp], #-0
     2e8:	3a080300 	bcc	200ef0 <__bss_end__+0x1f6ff0>
     2ec:	490b3b0b 	stmdbmi	fp, {r0, r1, r3, r8, r9, fp, ip, sp}
     2f0:	00180213 	andseq	r0, r8, r3, lsl r2
     2f4:	00340e00 	eorseq	r0, r4, r0, lsl #28
     2f8:	0b3a0e03 	bleq	e83b0c <__bss_end__+0xe79c0c>
     2fc:	13490b3b 	movtne	r0, #39739	; 0x9b3b
     300:	00001802 	andeq	r1, r0, r2, lsl #16
     304:	0300340f 	movweq	r3, #1039	; 0x40f
     308:	3b0b3a08 	blcc	2ceb30 <__bss_end__+0x2c4c30>
     30c:	0213490b 	andseq	r4, r3, #180224	; 0x2c000
     310:	10000017 	andne	r0, r0, r7, lsl r0
     314:	01018289 	smlabbeq	r1, r9, r2, r8
     318:	13310111 	teqne	r1, #1073741828	; 0x40000004
     31c:	00001301 	andeq	r1, r0, r1, lsl #6
     320:	01828a11 	orreq	r8, r2, r1, lsl sl
     324:	91180200 	tstls	r8, r0, lsl #4
     328:	00001842 	andeq	r1, r0, r2, asr #16
     32c:	01828912 	orreq	r8, r2, r2, lsl r9
     330:	00011101 	andeq	r1, r1, r1, lsl #2
     334:	01011300 	mrseq	r1, SP_irq
     338:	13011349 	movwne	r1, #4937	; 0x1349
     33c:	21140000 	tstcs	r4, r0
     340:	2f134900 	svccs	0x00134900
     344:	15000005 	strne	r0, [r0, #-5]
     348:	19270115 	stmdbne	r7!, {r0, r2, r4, r8}
     34c:	13011349 	movwne	r1, #4937	; 0x1349
     350:	05160000 	ldreq	r0, [r6, #-0]
     354:	00134900 	andseq	r4, r3, r0, lsl #18
     358:	00341700 	eorseq	r1, r4, r0, lsl #14
     35c:	0b3a0e03 	bleq	e83b70 <__bss_end__+0xe79c70>
     360:	13490b3b 	movtne	r0, #39739	; 0x9b3b
     364:	193c193f 	ldmdbne	ip!, {r0, r1, r2, r3, r4, r5, r8, fp, ip}
     368:	2e180000 	cdpcs	0, 1, cr0, cr8, cr0, {0}
     36c:	03193f01 	tsteq	r9, #1, 30
     370:	3b0b3a0e 	blcc	2cebb0 <__bss_end__+0x2c4cb0>
     374:	4919270b 	ldmdbmi	r9, {r0, r1, r3, r8, r9, sl, sp}
     378:	00193c13 	andseq	r3, r9, r3, lsl ip
     37c:	11010000 	mrsne	r0, (UNDEF: 1)
     380:	130e2501 	movwne	r2, #58625	; 0xe501
     384:	1b0e030b 	blne	380fb8 <__bss_end__+0x3770b8>
     388:	1201110e 	andne	r1, r1, #-2147483645	; 0x80000003
     38c:	00171006 	andseq	r1, r7, r6
     390:	00240200 	eoreq	r0, r4, r0, lsl #4
     394:	0b3e0b0b 	bleq	f82fc8 <__bss_end__+0xf790c8>
     398:	00000803 	andeq	r0, r0, r3, lsl #16
     39c:	0b002403 	bleq	93b0 <sw_uart_init_helper+0xb0>
     3a0:	030b3e0b 	movweq	r3, #48651	; 0xbe0b
     3a4:	0400000e 	streq	r0, [r0], #-14
     3a8:	0e03012e 	adfeqsp	f0, f3, #0.5
     3ac:	0b3b0b3a 	bleq	ec309c <__bss_end__+0xeb919c>
     3b0:	13491927 	movtne	r1, #39207	; 0x9927
     3b4:	06120111 			; <UNDEFINED> instruction: 0x06120111
     3b8:	42971840 	addsmi	r1, r7, #64, 16	; 0x400000
     3bc:	00130119 	andseq	r0, r3, r9, lsl r1
     3c0:	00050500 	andeq	r0, r5, r0, lsl #10
     3c4:	0b3a0803 	bleq	e823d8 <__bss_end__+0xe784d8>
     3c8:	13490b3b 	movtne	r0, #39739	; 0x9b3b
     3cc:	00001702 	andeq	r1, r0, r2, lsl #14
     3d0:	01828906 	orreq	r8, r2, r6, lsl #18
     3d4:	31011101 	tstcc	r1, r1, lsl #2
     3d8:	07000013 	smladeq	r0, r3, r0, r0
     3dc:	0001828a 	andeq	r8, r1, sl, lsl #5
     3e0:	42911802 	addsmi	r1, r1, #131072	; 0x20000
     3e4:	08000018 	stmdaeq	r0, {r3, r4}
     3e8:	193f002e 	ldmdbne	pc!, {r1, r2, r3, r5}	; <UNPREDICTABLE>
     3ec:	0b3a0e03 	bleq	e83c00 <__bss_end__+0xe79d00>
     3f0:	19270b3b 	stmdbne	r7!, {r0, r1, r3, r4, r5, r8, r9, fp}
     3f4:	06120111 			; <UNDEFINED> instruction: 0x06120111
     3f8:	42971840 	addsmi	r1, r7, #64, 16	; 0x400000
     3fc:	09000019 	stmdbeq	r0, {r0, r3, r4}
     400:	193f012e 	ldmdbne	pc!, {r1, r2, r3, r5, r8}	; <UNPREDICTABLE>
     404:	0b3a0e03 	bleq	e83c18 <__bss_end__+0xe79d18>
     408:	19270b3b 	stmdbne	r7!, {r0, r1, r3, r4, r5, r8, r9, fp}
     40c:	06120111 			; <UNDEFINED> instruction: 0x06120111
     410:	42971840 	addsmi	r1, r7, #64, 16	; 0x400000
     414:	00130119 	andseq	r0, r3, r9, lsl r1
     418:	00050a00 	andeq	r0, r5, r0, lsl #20
     41c:	0b3a0803 	bleq	e82430 <__bss_end__+0xe78530>
     420:	13490b3b 	movtne	r0, #39739	; 0x9b3b
     424:	00001802 	andeq	r1, r0, r2, lsl #16
     428:	2701150b 	strcs	r1, [r1, -fp, lsl #10]
     42c:	01134919 	tsteq	r3, r9, lsl r9
     430:	0c000013 	stceq	0, cr0, [r0], {19}
     434:	13490005 	movtne	r0, #36869	; 0x9005
     438:	0f0d0000 	svceq	0x000d0000
     43c:	490b0b00 	stmdbmi	fp, {r8, r9, fp}
     440:	0e000013 	mcreq	0, 0, r0, cr0, cr3, {0}
     444:	0e030034 	mcreq	0, 0, r0, cr3, cr4, {1}
     448:	0b3b0b3a 	bleq	ec3138 <__bss_end__+0xeb9238>
     44c:	193f1349 	ldmdbne	pc!, {r0, r3, r6, r8, r9, ip}	; <UNPREDICTABLE>
     450:	00001802 	andeq	r1, r0, r2, lsl #16
     454:	3f012e0f 	svccc	0x00012e0f
     458:	3a0e0319 	bcc	3810c4 <__bss_end__+0x3771c4>
     45c:	270b3b0b 	strcs	r3, [fp, -fp, lsl #22]
     460:	00193c19 	andseq	r3, r9, r9, lsl ip
     464:	11010000 	mrsne	r0, (UNDEF: 1)
     468:	130e2501 	movwne	r2, #58625	; 0xe501
     46c:	1b0e030b 	blne	3810a0 <__bss_end__+0x3771a0>
     470:	1201110e 	andne	r1, r1, #-2147483645	; 0x80000003
     474:	00171006 	andseq	r1, r7, r6
     478:	00240200 	eoreq	r0, r4, r0, lsl #4
     47c:	0b3e0b0b 	bleq	f830b0 <__bss_end__+0xf791b0>
     480:	00000803 	andeq	r0, r0, r3, lsl #16
     484:	0b002403 	bleq	9498 <sw_uart_printk+0x5c>
     488:	030b3e0b 	movweq	r3, #48651	; 0xbe0b
     48c:	0400000e 	streq	r0, [r0], #-14
     490:	0b0b000f 	bleq	2c04d4 <__bss_end__+0x2b65d4>
     494:	00001349 	andeq	r1, r0, r9, asr #6
     498:	49002605 	stmdbmi	r0, {r0, r2, r9, sl, sp}
     49c:	06000013 			; <UNDEFINED> instruction: 0x06000013
     4a0:	193f012e 	ldmdbne	pc!, {r1, r2, r3, r5, r8}	; <UNPREDICTABLE>
     4a4:	0b3a0e03 	bleq	e83cb8 <__bss_end__+0xe79db8>
     4a8:	19270b3b 	stmdbne	r7!, {r0, r1, r3, r4, r5, r8, r9, fp}
     4ac:	01111349 	tsteq	r1, r9, asr #6
     4b0:	18400612 	stmdane	r0, {r1, r4, r9, sl}^
     4b4:	01194296 			; <UNDEFINED> instruction: 0x01194296
     4b8:	07000013 	smladeq	r0, r3, r0, r0
     4bc:	08030005 	stmdaeq	r3, {r0, r2}
     4c0:	0b3b0b3a 	bleq	ec31b0 <__bss_end__+0xeb92b0>
     4c4:	17021349 	strne	r1, [r2, -r9, asr #6]
     4c8:	15080000 	strne	r0, [r8, #-0]
     4cc:	49192701 	ldmdbmi	r9, {r0, r8, r9, sl, sp}
     4d0:	00130113 	andseq	r0, r3, r3, lsl r1
     4d4:	00050900 	andeq	r0, r5, r0, lsl #18
     4d8:	00001349 	andeq	r1, r0, r9, asr #6
     4dc:	0300340a 	movweq	r3, #1034	; 0x40a
     4e0:	3b0b3a0e 	blcc	2ced20 <__bss_end__+0x2c4e20>
     4e4:	3f13490b 	svccc	0x0013490b
     4e8:	00193c19 	andseq	r3, r9, r9, lsl ip
     4ec:	00340b00 	eorseq	r0, r4, r0, lsl #22
     4f0:	0b3a0e03 	bleq	e83d04 <__bss_end__+0xe79e04>
     4f4:	13490b3b 	movtne	r0, #39739	; 0x9b3b
     4f8:	1802193f 	stmdane	r2, {r0, r1, r2, r3, r4, r5, r8, fp, ip}
     4fc:	01000000 	mrseq	r0, (UNDEF: 0)
     500:	0e250111 	mcreq	1, 1, r0, cr5, cr1, {0}
     504:	0e030b13 	vmoveq.32	d3[0], r0
     508:	01110e1b 	tsteq	r1, fp, lsl lr
     50c:	17100612 			; <UNDEFINED> instruction: 0x17100612
     510:	24020000 	strcs	r0, [r2], #-0
     514:	3e0b0b00 	vmlacc.f64	d0, d11, d0
     518:	0008030b 	andeq	r0, r8, fp, lsl #6
     51c:	00240300 	eoreq	r0, r4, r0, lsl #6
     520:	0b3e0b0b 	bleq	f83154 <__bss_end__+0xf79254>
     524:	00000e03 	andeq	r0, r0, r3, lsl #28
     528:	0b000f04 	bleq	4140 <_start-0x3ec0>
     52c:	0500000b 	streq	r0, [r0, #-11]
     530:	0b0b000f 	bleq	2c0574 <__bss_end__+0x2b6674>
     534:	00001349 	andeq	r1, r0, r9, asr #6
     538:	49002606 	stmdbmi	r0, {r1, r2, r9, sl, sp}
     53c:	07000013 	smladeq	r0, r3, r0, r0
     540:	0e030016 	mcreq	0, 0, r0, cr3, cr6, {0}
     544:	0b3b0b3a 	bleq	ec3234 <__bss_end__+0xeb9334>
     548:	00001349 	andeq	r1, r0, r9, asr #6
     54c:	03011308 	movweq	r1, #4872	; 0x1308
     550:	3a0b0b0e 	bcc	2c3190 <__bss_end__+0x2b9290>
     554:	010b3b0b 	tsteq	fp, fp, lsl #22
     558:	09000013 	stmdbeq	r0, {r0, r1, r4}
     55c:	0e03000d 	cdpeq	0, 0, cr0, cr3, cr13, {0}
     560:	0b381349 	bleq	e0528c <__bss_end__+0xdfb38c>
     564:	00001934 	andeq	r1, r0, r4, lsr r9
     568:	03012e0a 	movweq	r2, #7690	; 0x1e0a
     56c:	3b0b3a0e 	blcc	2cedac <__bss_end__+0x2c4eac>
     570:	4919270b 	ldmdbmi	r9, {r0, r1, r3, r8, r9, sl, sp}
     574:	12011113 	andne	r1, r1, #-1073741820	; 0xc0000004
     578:	97184006 	ldrls	r4, [r8, -r6]
     57c:	13011942 	movwne	r1, #6466	; 0x1942
     580:	050b0000 	streq	r0, [fp, #-0]
     584:	3a080300 	bcc	20118c <__bss_end__+0x1f728c>
     588:	490b3b0b 	stmdbmi	fp, {r0, r1, r3, r8, r9, fp, ip, sp}
     58c:	00170213 	andseq	r0, r7, r3, lsl r2
     590:	012e0c00 	teqeq	lr, r0, lsl #24
     594:	0b3a0803 	bleq	e825a8 <__bss_end__+0xe786a8>
     598:	19270b3b 	stmdbne	r7!, {r0, r1, r3, r4, r5, r8, r9, fp}
     59c:	01111349 	tsteq	r1, r9, asr #6
     5a0:	18400612 	stmdane	r0, {r1, r4, r9, sl}^
     5a4:	01194297 			; <UNDEFINED> instruction: 0x01194297
     5a8:	0d000013 	stceq	0, cr0, [r0, #-76]	; 0xffffffb4
     5ac:	0e030005 	cdpeq	0, 0, cr0, cr3, cr5, {0}
     5b0:	0b3b0b3a 	bleq	ec32a0 <__bss_end__+0xeb93a0>
     5b4:	17021349 	strne	r1, [r2, -r9, asr #6]
     5b8:	050e0000 	streq	r0, [lr, #-0]
     5bc:	3a0e0300 	bcc	3811c4 <__bss_end__+0x3772c4>
     5c0:	490b3b0b 	stmdbmi	fp, {r0, r1, r3, r8, r9, fp, ip, sp}
     5c4:	00180213 	andseq	r0, r8, r3, lsl r2
     5c8:	00340f00 	eorseq	r0, r4, r0, lsl #30
     5cc:	0b3a0803 	bleq	e825e0 <__bss_end__+0xe786e0>
     5d0:	13490b3b 	movtne	r0, #39739	; 0x9b3b
     5d4:	00001802 	andeq	r1, r0, r2, lsl #16
     5d8:	03003410 	movweq	r3, #1040	; 0x410
     5dc:	3b0b3a08 	blcc	2cee04 <__bss_end__+0x2c4f04>
     5e0:	0213490b 	andseq	r4, r3, #180224	; 0x2c000
     5e4:	11000017 	tstne	r0, r7, lsl r0
     5e8:	0e030034 	mcreq	0, 0, r0, cr3, cr4, {1}
     5ec:	19341349 	ldmdbne	r4!, {r0, r3, r6, r8, r9, ip}
     5f0:	00001802 	andeq	r1, r0, r2, lsl #16
     5f4:	11010b12 	tstne	r1, r2, lsl fp
     5f8:	01061201 	tsteq	r6, r1, lsl #4
     5fc:	13000013 	movwne	r0, #19
     600:	0e030034 	mcreq	0, 0, r0, cr3, cr4, {1}
     604:	0b3b0b3a 	bleq	ec32f4 <__bss_end__+0xeb93f4>
     608:	17021349 	strne	r1, [r2, -r9, asr #6]
     60c:	89140000 	ldmdbhi	r4, {}	; <UNPREDICTABLE>
     610:	11000182 	smlabbne	r0, r2, r1, r0
     614:	00133101 	andseq	r3, r3, r1, lsl #2
     618:	82891500 	addhi	r1, r9, #0, 10
     61c:	01110101 	tsteq	r1, r1, lsl #2
     620:	13011331 	movwne	r1, #4913	; 0x1331
     624:	8a160000 	bhi	58062c <__bss_end__+0x57672c>
     628:	02000182 	andeq	r0, r0, #-2147483616	; 0x80000020
     62c:	18429118 	stmdane	r2, {r3, r4, r8, ip, pc}^
     630:	89170000 	ldmdbhi	r7, {}	; <UNPREDICTABLE>
     634:	11010182 	smlabbne	r1, r2, r1, r0
     638:	00133101 	andseq	r3, r3, r1, lsl #2
     63c:	01011800 	tsteq	r1, r0, lsl #16
     640:	13011349 	movwne	r1, #4937	; 0x1349
     644:	21190000 	tstcs	r9, r0
     648:	2f134900 	svccs	0x00134900
     64c:	1a00000b 	bne	680 <_start-0x7980>
     650:	193f012e 	ldmdbne	pc!, {r1, r2, r3, r5, r8}	; <UNPREDICTABLE>
     654:	0b3a0e03 	bleq	e83e68 <__bss_end__+0xe79f68>
     658:	19270b3b 	stmdbne	r7!, {r0, r1, r3, r4, r5, r8, r9, fp}
     65c:	06120111 			; <UNDEFINED> instruction: 0x06120111
     660:	42971840 	addsmi	r1, r7, #64, 16	; 0x400000
     664:	00130119 	andseq	r0, r3, r9, lsl r1
     668:	01151b00 	tsteq	r5, r0, lsl #22
     66c:	13491927 	movtne	r1, #39207	; 0x9927
     670:	00001301 	andeq	r1, r0, r1, lsl #6
     674:	4900051c 	stmdbmi	r0, {r2, r3, r4, r8, sl}
     678:	1d000013 	stcne	0, cr0, [r0, #-76]	; 0xffffffb4
     67c:	193f012e 	ldmdbne	pc!, {r1, r2, r3, r5, r8}	; <UNPREDICTABLE>
     680:	0b3a0e03 	bleq	e83e94 <__bss_end__+0xe79f94>
     684:	19270b3b 	stmdbne	r7!, {r0, r1, r3, r4, r5, r8, r9, fp}
     688:	01111349 	tsteq	r1, r9, asr #6
     68c:	18400612 	stmdane	r0, {r1, r4, r9, sl}^
     690:	01194297 			; <UNDEFINED> instruction: 0x01194297
     694:	1e000013 	mcrne	0, 0, r0, cr0, cr3, {0}
     698:	1755010b 	ldrbne	r0, [r5, -fp, lsl #2]
     69c:	341f0000 	ldrcc	r0, [pc], #-0	; 6a4 <_start-0x795c>
     6a0:	3a0e0300 	bcc	3812a8 <__bss_end__+0x3773a8>
     6a4:	490b3b0b 	stmdbmi	fp, {r0, r1, r3, r8, r9, fp, ip, sp}
     6a8:	3c193f13 	ldccc	15, cr3, [r9], {19}
     6ac:	20000019 	andcs	r0, r0, r9, lsl r0
     6b0:	193f002e 	ldmdbne	pc!, {r1, r2, r3, r5}	; <UNPREDICTABLE>
     6b4:	0b3a0e03 	bleq	e83ec8 <__bss_end__+0xe79fc8>
     6b8:	19270b3b 	stmdbne	r7!, {r0, r1, r3, r4, r5, r8, r9, fp}
     6bc:	0000193c 	andeq	r1, r0, ip, lsr r9
     6c0:	3f012e21 	svccc	0x00012e21
     6c4:	3a0e0319 	bcc	381330 <__bss_end__+0x377430>
     6c8:	270b3b0b 	strcs	r3, [fp, -fp, lsl #22]
     6cc:	3c134919 	ldccc	9, cr4, [r3], {25}
     6d0:	00130119 	andseq	r0, r3, r9, lsl r1
     6d4:	00182200 	andseq	r2, r8, r0, lsl #4
     6d8:	01000000 	mrseq	r0, (UNDEF: 0)
     6dc:	0e250111 	mcreq	1, 1, r0, cr5, cr1, {0}
     6e0:	0e030b13 	vmoveq.32	d3[0], r0
     6e4:	01110e1b 	tsteq	r1, fp, lsl lr
     6e8:	17100612 			; <UNDEFINED> instruction: 0x17100612
     6ec:	24020000 	strcs	r0, [r2], #-0
     6f0:	3e0b0b00 	vmlacc.f64	d0, d11, d0
     6f4:	0008030b 	andeq	r0, r8, fp, lsl #6
     6f8:	00240300 	eoreq	r0, r4, r0, lsl #6
     6fc:	0b3e0b0b 	bleq	f83330 <__bss_end__+0xf79430>
     700:	00000e03 	andeq	r0, r0, r3, lsl #28
     704:	0b000f04 	bleq	431c <_start-0x3ce4>
     708:	0013490b 	andseq	r4, r3, fp, lsl #18
     70c:	00260500 	eoreq	r0, r6, r0, lsl #10
     710:	00001349 	andeq	r1, r0, r9, asr #6
     714:	3f012e06 	svccc	0x00012e06
     718:	3a0e0319 	bcc	381384 <__bss_end__+0x377484>
     71c:	270b3b0b 	strcs	r3, [fp, -fp, lsl #22]
     720:	12011119 	andne	r1, r1, #1073741830	; 0x40000006
     724:	97184006 	ldrls	r4, [r8, -r6]
     728:	13011942 	movwne	r1, #6466	; 0x1942
     72c:	89070000 	stmdbhi	r7, {}	; <UNPREDICTABLE>
     730:	11010182 	smlabbne	r1, r2, r1, r0
     734:	00130101 	andseq	r0, r3, r1, lsl #2
     738:	828a0800 	addhi	r0, sl, #0, 16
     73c:	18020001 	stmdane	r2, {r0}
     740:	00184291 	mulseq	r8, r1, r2
     744:	82890900 	addhi	r0, r9, #0, 18
     748:	01110101 	tsteq	r1, r1, lsl #2
     74c:	13011331 	movwne	r1, #4913	; 0x1331
     750:	890a0000 	stmdbhi	sl, {}	; <UNPREDICTABLE>
     754:	11000182 	smlabbne	r0, r2, r1, r0
     758:	00133101 	andseq	r3, r3, r1, lsl #2
     75c:	01150b00 	tsteq	r5, r0, lsl #22
     760:	13491927 	movtne	r1, #39207	; 0x9927
     764:	00001301 	andeq	r1, r0, r1, lsl #6
     768:	4900050c 	stmdbmi	r0, {r2, r3, r8, sl}
     76c:	0d000013 	stceq	0, cr0, [r0, #-76]	; 0xffffffb4
     770:	0e030034 	mcreq	0, 0, r0, cr3, cr4, {1}
     774:	0b3b0b3a 	bleq	ec3464 <__bss_end__+0xeb9564>
     778:	193f1349 	ldmdbne	pc!, {r0, r3, r6, r8, r9, ip}	; <UNPREDICTABLE>
     77c:	0000193c 	andeq	r1, r0, ip, lsr r9
     780:	3f012e0e 	svccc	0x00012e0e
     784:	3a0e0319 	bcc	3813f0 <__bss_end__+0x3774f0>
     788:	270b3b0b 	strcs	r3, [fp, -fp, lsl #22]
     78c:	01193c19 	tsteq	r9, r9, lsl ip
     790:	0f000013 	svceq	0x00000013
     794:	193f002e 	ldmdbne	pc!, {r1, r2, r3, r5}	; <UNPREDICTABLE>
     798:	0b3a0e03 	bleq	e83fac <__bss_end__+0xe7a0ac>
     79c:	19270b3b 	stmdbne	r7!, {r0, r1, r3, r4, r5, r8, r9, fp}
     7a0:	0000193c 	andeq	r1, r0, ip, lsr r9
     7a4:	01110100 	tsteq	r1, r0, lsl #2
     7a8:	0b130e25 	bleq	4c4044 <__bss_end__+0x4ba144>
     7ac:	0e1b0e03 	cdpeq	14, 1, cr0, cr11, cr3, {0}
     7b0:	06120111 			; <UNDEFINED> instruction: 0x06120111
     7b4:	00001710 	andeq	r1, r0, r0, lsl r7
     7b8:	0b002402 	bleq	97c8 <AUX_MU_BAUD_REG>
     7bc:	030b3e0b 	movweq	r3, #48651	; 0xbe0b
     7c0:	03000008 	movweq	r0, #8
     7c4:	0b0b0024 	bleq	2c085c <__bss_end__+0x2b695c>
     7c8:	0e030b3e 	vmoveq.16	d3[0], r0
     7cc:	16040000 	strne	r0, [r4], -r0
     7d0:	3a0e0300 	bcc	3813d8 <__bss_end__+0x3774d8>
     7d4:	490b3b0b 	stmdbmi	fp, {r0, r1, r3, r8, r9, fp, ip, sp}
     7d8:	05000013 	streq	r0, [r0, #-19]
     7dc:	0b0b000f 	bleq	2c0820 <__bss_end__+0x2b6920>
     7e0:	00001349 	andeq	r1, r0, r9, asr #6
     7e4:	49002606 	stmdbmi	r0, {r1, r2, r9, sl, sp}
     7e8:	07000013 	smladeq	r0, r3, r0, r0
     7ec:	0b0b0113 	bleq	2c0c40 <__bss_end__+0x2b6d40>
     7f0:	0b3b0b3a 	bleq	ec34e0 <__bss_end__+0xeb95e0>
     7f4:	00001301 	andeq	r1, r0, r1, lsl #6
     7f8:	03000d08 	movweq	r0, #3336	; 0xd08
     7fc:	3b0b3a08 	blcc	2cf024 <__bss_end__+0x2c5124>
     800:	3813490b 	ldmdacc	r3, {r0, r1, r3, r8, fp, lr}
     804:	0900000b 	stmdbeq	r0, {r0, r1, r3}
     808:	0e03000d 	cdpeq	0, 0, cr0, cr3, cr13, {0}
     80c:	0b3b0b3a 	bleq	ec34fc <__bss_end__+0xeb95fc>
     810:	0b381349 	bleq	e0553c <__bss_end__+0xdfb63c>
     814:	040a0000 	streq	r0, [sl], #-0
     818:	3a0b0b01 	bcc	2c3424 <__bss_end__+0x2b9524>
     81c:	010b3b0b 	tsteq	fp, fp, lsl #22
     820:	0b000013 	bleq	874 <_start-0x778c>
     824:	0e030028 	cdpeq	0, 0, cr0, cr3, cr8, {1}
     828:	00000d1c 	andeq	r0, r0, ip, lsl sp
     82c:	03012e0c 	movweq	r2, #7692	; 0x1e0c
     830:	3b0b3a0e 	blcc	2cf070 <__bss_end__+0x2c5170>
     834:	4919270b 	ldmdbmi	r9, {r0, r1, r3, r8, r9, sl, sp}
     838:	12011113 	andne	r1, r1, #-1073741820	; 0xc0000004
     83c:	97184006 	ldrls	r4, [r8, -r6]
     840:	13011942 	movwne	r1, #6466	; 0x1942
     844:	050d0000 	streq	r0, [sp, #-0]
     848:	3a080300 	bcc	201450 <__bss_end__+0x1f7550>
     84c:	490b3b0b 	stmdbmi	fp, {r0, r1, r3, r8, r9, fp, ip, sp}
     850:	00170213 	andseq	r0, r7, r3, lsl r2
     854:	82890e00 	addhi	r0, r9, #0, 28
     858:	01110101 	tsteq	r1, r1, lsl #2
     85c:	00001331 	andeq	r1, r0, r1, lsr r3
     860:	01828a0f 	orreq	r8, r2, pc, lsl #20
     864:	91180200 	tstls	r8, r0, lsl #4
     868:	00001842 	andeq	r1, r0, r2, asr #16
     86c:	3f012e10 	svccc	0x00012e10
     870:	3a0e0319 	bcc	3814dc <__bss_end__+0x3775dc>
     874:	110b3b0b 	tstne	fp, fp, lsl #22
     878:	40061201 	andmi	r1, r6, r1, lsl #4
     87c:	19429718 	stmdbne	r2, {r3, r4, r8, r9, sl, ip, pc}^
     880:	00001301 	andeq	r1, r0, r1, lsl #6
     884:	03003411 	movweq	r3, #1041	; 0x411
     888:	3b0b3a0e 	blcc	2cf0c8 <__bss_end__+0x2c51c8>
     88c:	3f13490b 	svccc	0x0013490b
     890:	00193c19 	andseq	r3, r9, r9, lsl ip
     894:	002e1200 	eoreq	r1, lr, r0, lsl #4
     898:	0e03193f 	mcreq	9, 0, r1, cr3, cr15, {1}
     89c:	0b3b0b3a 	bleq	ec358c <__bss_end__+0xeb968c>
     8a0:	193c1927 	ldmdbne	ip!, {r0, r1, r2, r5, r8, fp, ip}
     8a4:	34130000 	ldrcc	r0, [r3], #-0
     8a8:	3a080300 	bcc	2014b0 <__bss_end__+0x1f75b0>
     8ac:	490b3b0b 	stmdbmi	fp, {r0, r1, r3, r8, r9, fp, ip, sp}
     8b0:	00170213 	andseq	r0, r7, r3, lsl r2
     8b4:	00341400 	eorseq	r1, r4, r0, lsl #8
     8b8:	0b3a0e03 	bleq	e840cc <__bss_end__+0xe7a1cc>
     8bc:	13490b3b 	movtne	r0, #39739	; 0x9b3b
     8c0:	89150000 	ldmdbhi	r5, {}	; <UNPREDICTABLE>
     8c4:	11000182 	smlabbne	r0, r2, r1, r0
     8c8:	00133101 	andseq	r3, r3, r1, lsl #2
     8cc:	82891600 	addhi	r1, r9, #0, 12
     8d0:	01110101 	tsteq	r1, r1, lsl #2
     8d4:	13011331 	movwne	r1, #4913	; 0x1331
     8d8:	34170000 	ldrcc	r0, [r7], #-0
     8dc:	3a0e0300 	bcc	3814e4 <__bss_end__+0x3775e4>
     8e0:	490b3b0b 	stmdbmi	fp, {r0, r1, r3, r8, r9, fp, ip, sp}
     8e4:	00180213 	andseq	r0, r8, r3, lsl r2
     8e8:	01151800 	tsteq	r5, r0, lsl #16
     8ec:	13491927 	movtne	r1, #39207	; 0x9927
     8f0:	00001301 	andeq	r1, r0, r1, lsl #6
     8f4:	49000519 	stmdbmi	r0, {r0, r3, r4, r8, sl}
     8f8:	1a000013 	bne	94c <_start-0x76b4>
     8fc:	193f012e 	ldmdbne	pc!, {r1, r2, r3, r5, r8}	; <UNPREDICTABLE>
     900:	0b3a0e03 	bleq	e84114 <__bss_end__+0xe7a214>
     904:	19270b3b 	stmdbne	r7!, {r0, r1, r3, r4, r5, r8, r9, fp}
     908:	1301193c 	movwne	r1, #6460	; 0x193c
     90c:	2e1b0000 	cdpcs	0, 1, cr0, cr11, cr0, {0}
     910:	03193f00 	tsteq	r9, #0, 30
     914:	3b0b3a0e 	blcc	2cf154 <__bss_end__+0x2c5254>
     918:	4919270b 	ldmdbmi	r9, {r0, r1, r3, r8, r9, sl, sp}
     91c:	00193c13 	andseq	r3, r9, r3, lsl ip
     920:	012e1c00 	teqeq	lr, r0, lsl #24
     924:	0e03193f 	mcreq	9, 0, r1, cr3, cr15, {1}
     928:	0b3b0b3a 	bleq	ec3618 <__bss_end__+0xeb9718>
     92c:	13491927 	movtne	r1, #39207	; 0x9927
     930:	1301193c 	movwne	r1, #6460	; 0x193c
     934:	181d0000 	ldmdane	sp, {}	; <UNPREDICTABLE>
     938:	00000000 	andeq	r0, r0, r0
     93c:	25011101 	strcs	r1, [r1, #-257]	; 0x101
     940:	030b130e 	movweq	r1, #45838	; 0xb30e
     944:	550e1b0e 	strpl	r1, [lr, #-2830]	; 0xb0e
     948:	10011117 	andne	r1, r1, r7, lsl r1
     94c:	02000017 	andeq	r0, r0, #23
     950:	0b0b0024 	bleq	2c09e8 <__bss_end__+0x2b6ae8>
     954:	08030b3e 	stmdaeq	r3, {r1, r2, r3, r4, r5, r8, r9, fp}
     958:	24030000 	strcs	r0, [r3], #-0
     95c:	3e0b0b00 	vmlacc.f64	d0, d11, d0
     960:	000e030b 	andeq	r0, lr, fp, lsl #6
     964:	012e0400 	teqeq	lr, r0, lsl #8
     968:	0e03193f 	mcreq	9, 0, r1, cr3, cr15, {1}
     96c:	0b3b0b3a 	bleq	ec365c <__bss_end__+0xeb975c>
     970:	13491927 	movtne	r1, #39207	; 0x9927
     974:	06120111 			; <UNDEFINED> instruction: 0x06120111
     978:	42971840 	addsmi	r1, r7, #64, 16	; 0x400000
     97c:	00130119 	andseq	r0, r3, r9, lsl r1
     980:	00340500 	eorseq	r0, r4, r0, lsl #10
     984:	0b3a0e03 	bleq	e84198 <__bss_end__+0xe7a298>
     988:	13490b3b 	movtne	r0, #39739	; 0x9b3b
     98c:	00001702 	andeq	r1, r0, r2, lsl #14
     990:	3f012e06 	svccc	0x00012e06
     994:	3a0e0319 	bcc	381600 <__bss_end__+0x377700>
     998:	270b3b0b 	strcs	r3, [fp, -fp, lsl #22]
     99c:	12011119 	andne	r1, r1, #1073741830	; 0x40000006
     9a0:	97184006 	ldrls	r4, [r8, -r6]
     9a4:	13011942 	movwne	r1, #6466	; 0x1942
     9a8:	34070000 	strcc	r0, [r7], #-0
     9ac:	3a0e0300 	bcc	3815b4 <__bss_end__+0x3776b4>
     9b0:	490b3b0b 	stmdbmi	fp, {r0, r1, r3, r8, r9, fp, ip, sp}
     9b4:	00061c13 	andeq	r1, r6, r3, lsl ip
     9b8:	00340800 	eorseq	r0, r4, r0, lsl #16
     9bc:	0b3a0e03 	bleq	e841d0 <__bss_end__+0xe7a2d0>
     9c0:	13490b3b 	movtne	r0, #39739	; 0x9b3b
     9c4:	00000b1c 	andeq	r0, r0, ip, lsl fp
     9c8:	01828909 	orreq	r8, r2, r9, lsl #18
     9cc:	31011100 	mrscc	r1, (UNDEF: 17)
     9d0:	0a000013 	beq	a24 <_start-0x75dc>
     9d4:	01018289 	smlabbeq	r1, r9, r2, r8
     9d8:	13310111 	teqne	r1, #1073741828	; 0x40000004
     9dc:	00001301 	andeq	r1, r0, r1, lsl #6
     9e0:	01828a0b 	orreq	r8, r2, fp, lsl #20
     9e4:	91180200 	tstls	r8, r0, lsl #4
     9e8:	00001842 	andeq	r1, r0, r2, asr #16
     9ec:	0182890c 	orreq	r8, r2, ip, lsl #18
     9f0:	31011101 	tstcc	r1, r1, lsl #2
     9f4:	0d000013 	stceq	0, cr0, [r0, #-76]	; 0xffffffb4
     9f8:	13490026 	movtne	r0, #36902	; 0x9026
     9fc:	2e0e0000 	cdpcs	0, 0, cr0, cr14, cr0, {0}
     a00:	03193f01 	tsteq	r9, #1, 30
     a04:	3b0b3a0e 	blcc	2cf244 <__bss_end__+0x2c5344>
     a08:	3c19270b 	ldccc	7, cr2, [r9], {11}
     a0c:	00130119 	andseq	r0, r3, r9, lsl r1
     a10:	00050f00 	andeq	r0, r5, r0, lsl #30
     a14:	00001349 	andeq	r1, r0, r9, asr #6
     a18:	3f012e10 	svccc	0x00012e10
     a1c:	3a0e0319 	bcc	381688 <__bss_end__+0x377788>
     a20:	270b3b0b 	strcs	r3, [fp, -fp, lsl #22]
     a24:	00193c19 	andseq	r3, r9, r9, lsl ip
     a28:	11010000 	mrsne	r0, (UNDEF: 1)
     a2c:	130e2501 	movwne	r2, #58625	; 0xe501
     a30:	1b0e030b 	blne	381664 <__bss_end__+0x377764>
     a34:	1201110e 	andne	r1, r1, #-2147483645	; 0x80000003
     a38:	00171006 	andseq	r1, r7, r6
     a3c:	00240200 	eoreq	r0, r4, r0, lsl #4
     a40:	0b3e0b0b 	bleq	f83674 <__bss_end__+0xf79774>
     a44:	00000803 	andeq	r0, r0, r3, lsl #16
     a48:	0b002403 	bleq	9a5c <__FUNCTION__.4376+0x20>
     a4c:	030b3e0b 	movweq	r3, #48651	; 0xbe0b
     a50:	0400000e 	streq	r0, [r0], #-14
     a54:	193f012e 	ldmdbne	pc!, {r1, r2, r3, r5, r8}	; <UNPREDICTABLE>
     a58:	0b3a0e03 	bleq	e8426c <__bss_end__+0xe7a36c>
     a5c:	19270b3b 	stmdbne	r7!, {r0, r1, r3, r4, r5, r8, r9, fp}
     a60:	06120111 			; <UNDEFINED> instruction: 0x06120111
     a64:	42971840 	addsmi	r1, r7, #64, 16	; 0x400000
     a68:	00130119 	andseq	r0, r3, r9, lsl r1
     a6c:	00050500 	andeq	r0, r5, r0, lsl #10
     a70:	0b3a0e03 	bleq	e84284 <__bss_end__+0xe7a384>
     a74:	13490b3b 	movtne	r0, #39739	; 0x9b3b
     a78:	00001702 	andeq	r1, r0, r2, lsl #14
     a7c:	3f012e06 	svccc	0x00012e06
     a80:	3a0e0319 	bcc	3816ec <__bss_end__+0x3777ec>
     a84:	270b3b0b 	strcs	r3, [fp, -fp, lsl #22]
     a88:	11134919 	tstne	r3, r9, lsl r9
     a8c:	40061201 	andmi	r1, r6, r1, lsl #4
     a90:	19429718 	stmdbne	r2, {r3, r4, r8, r9, sl, ip, pc}^
     a94:	00001301 	andeq	r1, r0, r1, lsl #6
     a98:	01828907 	orreq	r8, r2, r7, lsl #18
     a9c:	31011101 	tstcc	r1, r1, lsl #2
     aa0:	08000013 	stmdaeq	r0, {r0, r1, r4}
     aa4:	0001828a 	andeq	r8, r1, sl, lsl #5
     aa8:	42911802 	addsmi	r1, r1, #131072	; 0x20000
     aac:	09000018 	stmdbeq	r0, {r3, r4}
     ab0:	08030034 	stmdaeq	r3, {r2, r4, r5}
     ab4:	0b3b0b3a 	bleq	ec37a4 <__bss_end__+0xeb98a4>
     ab8:	18021349 	stmdane	r2, {r0, r3, r6, r8, r9, ip}
     abc:	890a0000 	stmdbhi	sl, {}	; <UNPREDICTABLE>
     ac0:	11000182 	smlabbne	r0, r2, r1, r0
     ac4:	00133101 	andseq	r3, r3, r1, lsl #2
     ac8:	00050b00 	andeq	r0, r5, r0, lsl #22
     acc:	0b3a0803 	bleq	e82ae0 <__bss_end__+0xe78be0>
     ad0:	13490b3b 	movtne	r0, #39739	; 0x9b3b
     ad4:	00001702 	andeq	r1, r0, r2, lsl #14
     ad8:	11010b0c 	tstne	r1, ip, lsl #22
     adc:	01061201 	tsteq	r6, r1, lsl #4
     ae0:	0d000013 	stceq	0, cr0, [r0, #-76]	; 0xffffffb4
     ae4:	08030034 	stmdaeq	r3, {r2, r4, r5}
     ae8:	0b3b0b3a 	bleq	ec37d8 <__bss_end__+0xeb98d8>
     aec:	17021349 	strne	r1, [r2, -r9, asr #6]
     af0:	2e0e0000 	cdpcs	0, 0, cr0, cr14, cr0, {0}
     af4:	03193f01 	tsteq	r9, #1, 30
     af8:	3b0b3a0e 	blcc	2cf338 <__bss_end__+0x2c5438>
     afc:	4919270b 	ldmdbmi	r9, {r0, r1, r3, r8, r9, sl, sp}
     b00:	00193c13 	andseq	r3, r9, r3, lsl ip
     b04:	00050f00 	andeq	r0, r5, r0, lsl #30
     b08:	00001349 	andeq	r1, r0, r9, asr #6
     b0c:	01110100 	tsteq	r1, r0, lsl #2
     b10:	0b130e25 	bleq	4c43ac <__bss_end__+0x4ba4ac>
     b14:	0e1b0e03 	cdpeq	14, 1, cr0, cr11, cr3, {0}
     b18:	06120111 			; <UNDEFINED> instruction: 0x06120111
     b1c:	00001710 	andeq	r1, r0, r0, lsl r7
     b20:	0b002402 	bleq	9b30 <__bss_start__+0x3c>
     b24:	030b3e0b 	movweq	r3, #48651	; 0xbe0b
     b28:	0300000e 	movweq	r0, #14
     b2c:	0b0b0024 	bleq	2c0bc4 <__bss_end__+0x2b6cc4>
     b30:	08030b3e 	stmdaeq	r3, {r1, r2, r3, r4, r5, r8, r9, fp}
     b34:	04040000 	streq	r0, [r4], #-0
     b38:	3a0b0b01 	bcc	2c3744 <__bss_end__+0x2b9844>
     b3c:	010b3b0b 	tsteq	fp, fp, lsl #22
     b40:	05000013 	streq	r0, [r0, #-19]
     b44:	0e030028 	cdpeq	0, 0, cr0, cr3, cr8, {1}
     b48:	00000d1c 	andeq	r0, r0, ip, lsl sp
     b4c:	03001606 	movweq	r1, #1542	; 0x606
     b50:	3b0b3a0e 	blcc	2cf390 <__bss_end__+0x2c5490>
     b54:	0013490b 	andseq	r4, r3, fp, lsl #18
     b58:	012e0700 	teqeq	lr, r0, lsl #14
     b5c:	0e03193f 	mcreq	9, 0, r1, cr3, cr15, {1}
     b60:	0b3b0b3a 	bleq	ec3850 <__bss_end__+0xeb9950>
     b64:	01111927 	tsteq	r1, r7, lsr #18
     b68:	18400612 	stmdane	r0, {r1, r4, r9, sl}^
     b6c:	01194297 			; <UNDEFINED> instruction: 0x01194297
     b70:	08000013 	stmdaeq	r0, {r0, r1, r4}
     b74:	08030005 	stmdaeq	r3, {r0, r2}
     b78:	0b3b0b3a 	bleq	ec3868 <__bss_end__+0xeb9968>
     b7c:	17021349 	strne	r1, [r2, -r9, asr #6]
     b80:	34090000 	strcc	r0, [r9], #-0
     b84:	3a0e0300 	bcc	38178c <__bss_end__+0x37788c>
     b88:	490b3b0b 	stmdbmi	fp, {r0, r1, r3, r8, r9, fp, ip, sp}
     b8c:	00170213 	andseq	r0, r7, r3, lsl r2
     b90:	82890a00 	addhi	r0, r9, #0, 20
     b94:	01110101 	tsteq	r1, r1, lsl #2
     b98:	13011331 	movwne	r1, #4913	; 0x1331
     b9c:	8a0b0000 	bhi	2c0ba4 <__bss_end__+0x2b6ca4>
     ba0:	02000182 	andeq	r0, r0, #-2147483616	; 0x80000020
     ba4:	18429118 	stmdane	r2, {r3, r4, r8, ip, pc}^
     ba8:	890c0000 	stmdbhi	ip, {}	; <UNPREDICTABLE>
     bac:	11010182 	smlabbne	r1, r2, r1, r0
     bb0:	00133101 	andseq	r3, r3, r1, lsl #2
     bb4:	000f0d00 	andeq	r0, pc, r0, lsl #26
     bb8:	13490b0b 	movtne	r0, #39691	; 0x9b0b
     bbc:	350e0000 	strcc	r0, [lr, #-0]
     bc0:	00134900 	andseq	r4, r3, r0, lsl #18
     bc4:	012e0f00 	teqeq	lr, r0, lsl #30
     bc8:	0e03193f 	mcreq	9, 0, r1, cr3, cr15, {1}
     bcc:	0b3b0b3a 	bleq	ec38bc <__bss_end__+0xeb99bc>
     bd0:	13491927 	movtne	r1, #39207	; 0x9927
     bd4:	06120111 			; <UNDEFINED> instruction: 0x06120111
     bd8:	42971840 	addsmi	r1, r7, #64, 16	; 0x400000
     bdc:	00130119 	andseq	r0, r3, r9, lsl r1
     be0:	00341000 	eorseq	r1, r4, r0
     be4:	0b3a0803 	bleq	e82bf8 <__bss_end__+0xe78cf8>
     be8:	13490b3b 	movtne	r0, #39739	; 0x9b3b
     bec:	00001702 	andeq	r1, r0, r2, lsl #14
     bf0:	01828911 	orreq	r8, r2, r1, lsl r9
     bf4:	31011100 	mrscc	r1, (UNDEF: 17)
     bf8:	12000013 	andne	r0, r0, #19
     bfc:	0e030005 	cdpeq	0, 0, cr0, cr3, cr5, {0}
     c00:	0b3b0b3a 	bleq	ec38f0 <__bss_end__+0xeb99f0>
     c04:	17021349 	strne	r1, [r2, -r9, asr #6]
     c08:	2e130000 	cdpcs	0, 1, cr0, cr3, cr0, {0}
     c0c:	03193f01 	tsteq	r9, #1, 30
     c10:	3b0b3a0e 	blcc	2cf450 <__bss_end__+0x2c5550>
     c14:	49192705 	ldmdbmi	r9, {r0, r2, r8, r9, sl, sp}
     c18:	12011113 	andne	r1, r1, #-1073741820	; 0xc0000004
     c1c:	97184006 	ldrls	r4, [r8, -r6]
     c20:	13011942 	movwne	r1, #6466	; 0x1942
     c24:	05140000 	ldreq	r0, [r4, #-0]
     c28:	3a0e0300 	bcc	381830 <__bss_end__+0x377930>
     c2c:	49053b0b 	stmdbmi	r5, {r0, r1, r3, r8, r9, fp, ip, sp}
     c30:	00170213 	andseq	r0, r7, r3, lsl r2
     c34:	012e1500 	teqeq	lr, r0, lsl #10
     c38:	0e03193f 	mcreq	9, 0, r1, cr3, cr15, {1}
     c3c:	053b0b3a 	ldreq	r0, [fp, #-2874]!	; 0xb3a
     c40:	01111927 	tsteq	r1, r7, lsr #18
     c44:	18400612 	stmdane	r0, {r1, r4, r9, sl}^
     c48:	01194297 			; <UNDEFINED> instruction: 0x01194297
     c4c:	16000013 			; <UNDEFINED> instruction: 0x16000013
     c50:	08030005 	stmdaeq	r3, {r0, r2}
     c54:	053b0b3a 	ldreq	r0, [fp, #-2874]!	; 0xb3a
     c58:	17021349 	strne	r1, [r2, -r9, asr #6]
     c5c:	34170000 	ldrcc	r0, [r7], #-0
     c60:	3a0e0300 	bcc	381868 <__bss_end__+0x377968>
     c64:	49053b0b 	stmdbmi	r5, {r0, r1, r3, r8, r9, fp, ip, sp}
     c68:	00170213 	andseq	r0, r7, r3, lsl r2
     c6c:	010b1800 	tsteq	fp, r0, lsl #16
     c70:	06120111 			; <UNDEFINED> instruction: 0x06120111
     c74:	00001301 	andeq	r1, r0, r1, lsl #6
     c78:	03003419 	movweq	r3, #1049	; 0x419
     c7c:	3b0b3a0e 	blcc	2cf4bc <__bss_end__+0x2c55bc>
     c80:	3f13490b 	svccc	0x0013490b
     c84:	00180219 	andseq	r0, r8, r9, lsl r2
     c88:	00341a00 	eorseq	r1, r4, r0, lsl #20
     c8c:	0b3a0e03 	bleq	e844a0 <__bss_end__+0xe7a5a0>
     c90:	1349053b 	movtne	r0, #38203	; 0x953b
     c94:	1802193f 	stmdane	r2, {r0, r1, r2, r3, r4, r5, r8, fp, ip}
     c98:	2e1b0000 	cdpcs	0, 1, cr0, cr11, cr0, {0}
     c9c:	03193f01 	tsteq	r9, #1, 30
     ca0:	3b0b3a0e 	blcc	2cf4e0 <__bss_end__+0x2c55e0>
     ca4:	4919270b 	ldmdbmi	r9, {r0, r1, r3, r8, r9, sl, sp}
     ca8:	01193c13 	tsteq	r9, r3, lsl ip
     cac:	1c000013 	stcne	0, cr0, [r0], {19}
     cb0:	13490005 	movtne	r0, #36869	; 0x9005
     cb4:	261d0000 	ldrcs	r0, [sp], -r0
     cb8:	00134900 	andseq	r4, r3, r0, lsl #18
     cbc:	00351e00 	eorseq	r1, r5, r0, lsl #28
     cc0:	2e1f0000 	cdpcs	0, 1, cr0, cr15, cr0, {0}
     cc4:	03193f01 	tsteq	r9, #1, 30
     cc8:	3b0b3a0e 	blcc	2cf508 <__bss_end__+0x2c5608>
     ccc:	3c19270b 	ldccc	7, cr2, [r9], {11}
     cd0:	00130119 	andseq	r0, r3, r9, lsl r1
     cd4:	002e2000 	eoreq	r2, lr, r0
     cd8:	0e03193f 	mcreq	9, 0, r1, cr3, cr15, {1}
     cdc:	0b3b0b3a 	bleq	ec39cc <__bss_end__+0xeb9acc>
     ce0:	193c1927 	ldmdbne	ip!, {r0, r1, r2, r5, r8, fp, ip}
     ce4:	01000000 	mrseq	r0, (UNDEF: 0)
     ce8:	0e250111 	mcreq	1, 1, r0, cr5, cr1, {0}
     cec:	0e030b13 	vmoveq.32	d3[0], r0
     cf0:	01110e1b 	tsteq	r1, fp, lsl lr
     cf4:	17100612 			; <UNDEFINED> instruction: 0x17100612
     cf8:	24020000 	strcs	r0, [r2], #-0
     cfc:	3e0b0b00 	vmlacc.f64	d0, d11, d0
     d00:	0008030b 	andeq	r0, r8, fp, lsl #6
     d04:	00240300 	eoreq	r0, r4, r0, lsl #6
     d08:	0b3e0b0b 	bleq	f8393c <__bss_end__+0xf79a3c>
     d0c:	00000e03 	andeq	r0, r0, r3, lsl #28
     d10:	03001604 	movweq	r1, #1540	; 0x604
     d14:	3b0b3a0e 	blcc	2cf554 <__bss_end__+0x2c5654>
     d18:	0013490b 	andseq	r4, r3, fp, lsl #18
     d1c:	000f0500 	andeq	r0, pc, r0, lsl #10
     d20:	00000b0b 	andeq	r0, r0, fp, lsl #22
     d24:	0b000f06 	bleq	4944 <_start-0x36bc>
     d28:	0013490b 	andseq	r4, r3, fp, lsl #18
     d2c:	00260700 	eoreq	r0, r6, r0, lsl #14
     d30:	00001349 	andeq	r1, r0, r9, asr #6
     d34:	0b011308 	bleq	4595c <__bss_end__+0x3ba5c>
     d38:	3b0b3a0b 	blcc	2cf56c <__bss_end__+0x2c566c>
     d3c:	0013010b 	andseq	r0, r3, fp, lsl #2
     d40:	000d0900 	andeq	r0, sp, r0, lsl #18
     d44:	0b3a0803 	bleq	e82d58 <__bss_end__+0xe78e58>
     d48:	13490b3b 	movtne	r0, #39739	; 0x9b3b
     d4c:	00000b38 	andeq	r0, r0, r8, lsr fp
     d50:	03000d0a 	movweq	r0, #3338	; 0xd0a
     d54:	3b0b3a0e 	blcc	2cf594 <__bss_end__+0x2c5694>
     d58:	3813490b 	ldmdacc	r3, {r0, r1, r3, r8, fp, lr}
     d5c:	0b00000b 	bleq	d90 <_start-0x7270>
     d60:	0e030113 	mcreq	1, 0, r0, cr3, cr3, {0}
     d64:	0b3a0b0b 	bleq	e83998 <__bss_end__+0xe79a98>
     d68:	13010b3b 	movwne	r0, #6971	; 0x1b3b
     d6c:	0d0c0000 	stceq	0, cr0, [ip, #-0]
     d70:	490e0300 	stmdbmi	lr, {r8, r9}
     d74:	340b3813 	strcc	r3, [fp], #-2067	; 0x813
     d78:	0d000019 	stceq	0, cr0, [r0, #-100]	; 0xffffff9c
     d7c:	0e03012e 	adfeqsp	f0, f3, #0.5
     d80:	0b3b0b3a 	bleq	ec3a70 <__bss_end__+0xeb9b70>
     d84:	0b201927 	bleq	807228 <__bss_end__+0x7fd328>
     d88:	00001301 	andeq	r1, r0, r1, lsl #6
     d8c:	0300050e 	movweq	r0, #1294	; 0x50e
     d90:	3b0b3a0e 	blcc	2cf5d0 <__bss_end__+0x2c56d0>
     d94:	0013490b 	andseq	r4, r3, fp, lsl #18
     d98:	00050f00 	andeq	r0, r5, r0, lsl #30
     d9c:	0b3a0803 	bleq	e82db0 <__bss_end__+0xe78eb0>
     da0:	13490b3b 	movtne	r0, #39739	; 0x9b3b
     da4:	0b100000 	bleq	400dac <__bss_end__+0x3f6eac>
     da8:	11000001 	tstne	r0, r1
     dac:	0e030034 	mcreq	0, 0, r0, cr3, cr4, {1}
     db0:	0b3b0b3a 	bleq	ec3aa0 <__bss_end__+0xeb9ba0>
     db4:	00001349 	andeq	r1, r0, r9, asr #6
     db8:	3f012e12 	svccc	0x00012e12
     dbc:	3a0e0319 	bcc	381a28 <__bss_end__+0x377b28>
     dc0:	270b3b0b 	strcs	r3, [fp, -fp, lsl #22]
     dc4:	12011119 	andne	r1, r1, #1073741830	; 0x40000006
     dc8:	97184006 	ldrls	r4, [r8, -r6]
     dcc:	13011942 	movwne	r1, #6466	; 0x1942
     dd0:	05130000 	ldreq	r0, [r3, #-0]
     dd4:	3a0e0300 	bcc	3819dc <__bss_end__+0x377adc>
     dd8:	490b3b0b 	stmdbmi	fp, {r0, r1, r3, r8, r9, fp, ip, sp}
     ddc:	00170213 	andseq	r0, r7, r3, lsl r2
     de0:	00051400 	andeq	r1, r5, r0, lsl #8
     de4:	0b3a0803 	bleq	e82df8 <__bss_end__+0xe78ef8>
     de8:	13490b3b 	movtne	r0, #39739	; 0x9b3b
     dec:	00001702 	andeq	r1, r0, r2, lsl #14
     df0:	03003415 	movweq	r3, #1045	; 0x415
     df4:	3b0b3a08 	blcc	2cf61c <__bss_end__+0x2c571c>
     df8:	0213490b 	andseq	r4, r3, #180224	; 0x2c000
     dfc:	16000018 			; <UNDEFINED> instruction: 0x16000018
     e00:	08030034 	stmdaeq	r3, {r2, r4, r5}
     e04:	0b3b0b3a 	bleq	ec3af4 <__bss_end__+0xeb9bf4>
     e08:	17021349 	strne	r1, [r2, -r9, asr #6]
     e0c:	0b170000 	bleq	5c0e14 <__bss_end__+0x5b6f14>
     e10:	12011101 	andne	r1, r1, #1073741824	; 0x40000000
     e14:	00130106 	andseq	r0, r3, r6, lsl #2
     e18:	00341800 	eorseq	r1, r4, r0, lsl #16
     e1c:	0b3a0e03 	bleq	e84630 <__bss_end__+0xe7a730>
     e20:	13490b3b 	movtne	r0, #39739	; 0x9b3b
     e24:	00001802 	andeq	r1, r0, r2, lsl #16
     e28:	31011d19 	tstcc	r1, r9, lsl sp
     e2c:	12011113 	andne	r1, r1, #-1073741820	; 0xc0000004
     e30:	590b5806 	stmdbpl	fp, {r1, r2, fp, ip, lr}
     e34:	0013010b 	andseq	r0, r3, fp, lsl #2
     e38:	00051a00 	andeq	r1, r5, r0, lsl #20
     e3c:	17021331 	smladxne	r2, r1, r3, r1
     e40:	051b0000 	ldreq	r0, [fp, #-0]
     e44:	02133100 	andseq	r3, r3, #0, 2
     e48:	1c000018 	stcne	0, cr0, [r0], {24}
     e4c:	13310005 	teqne	r1, #5
     e50:	00000b1c 	andeq	r0, r0, ip, lsl fp
     e54:	11010b1d 	tstne	r1, sp, lsl fp
     e58:	00061201 	andeq	r1, r6, r1, lsl #4
     e5c:	00341e00 	eorseq	r1, r4, r0, lsl #28
     e60:	17021331 	smladxne	r2, r1, r3, r1
     e64:	891f0000 	ldmdbhi	pc, {}	; <UNPREDICTABLE>
     e68:	11010182 	smlabbne	r1, r2, r1, r0
     e6c:	00133101 	andseq	r3, r3, r1, lsl #2
     e70:	828a2000 	addhi	r2, sl, #0
     e74:	18020001 	stmdane	r2, {r0}
     e78:	00184291 	mulseq	r8, r1, r2
     e7c:	011d2100 	tsteq	sp, r0, lsl #2
     e80:	01111331 	tsteq	r1, r1, lsr r3
     e84:	0b580612 	bleq	16026d4 <__bss_end__+0x15f87d4>
     e88:	00000b59 	andeq	r0, r0, r9, asr fp
     e8c:	03012e22 	movweq	r2, #7714	; 0x1e22
     e90:	3b0b3a0e 	blcc	2cf6d0 <__bss_end__+0x2c57d0>
     e94:	4919270b 	ldmdbmi	r9, {r0, r1, r3, r8, r9, sl, sp}
     e98:	010b2013 	tsteq	fp, r3, lsl r0
     e9c:	23000013 	movwcs	r0, #19
     ea0:	193f012e 	ldmdbne	pc!, {r1, r2, r3, r5, r8}	; <UNPREDICTABLE>
     ea4:	0b3a0e03 	bleq	e846b8 <__bss_end__+0xe7a7b8>
     ea8:	19270b3b 	stmdbne	r7!, {r0, r1, r3, r4, r5, r8, r9, fp}
     eac:	01111349 	tsteq	r1, r9, asr #6
     eb0:	18400612 	stmdane	r0, {r1, r4, r9, sl}^
     eb4:	01194297 			; <UNDEFINED> instruction: 0x01194297
     eb8:	24000013 	strcs	r0, [r0], #-19
     ebc:	00018289 	andeq	r8, r1, r9, lsl #5
     ec0:	13310111 	teqne	r1, #1073741828	; 0x40000004
     ec4:	89250000 	stmdbhi	r5!, {}	; <UNPREDICTABLE>
     ec8:	11010182 	smlabbne	r1, r2, r1, r0
     ecc:	01133101 	tsteq	r3, r1, lsl #2
     ed0:	26000013 			; <UNDEFINED> instruction: 0x26000013
     ed4:	0e030034 	mcreq	0, 0, r0, cr3, cr4, {1}
     ed8:	0b3b0b3a 	bleq	ec3bc8 <__bss_end__+0xeb9cc8>
     edc:	17021349 	strne	r1, [r2, -r9, asr #6]
     ee0:	05270000 	streq	r0, [r7, #-0]!
     ee4:	00133100 	andseq	r3, r3, r0, lsl #2
     ee8:	00052800 	andeq	r2, r5, r0, lsl #16
     eec:	0b3a0e03 	bleq	e84700 <__bss_end__+0xe7a800>
     ef0:	13490b3b 	movtne	r0, #39739	; 0x9b3b
     ef4:	00001802 	andeq	r1, r0, r2, lsl #16
     ef8:	03003429 	movweq	r3, #1065	; 0x429
     efc:	3413490e 	ldrcc	r4, [r3], #-2318	; 0x90e
     f00:	00180219 	andseq	r0, r8, r9, lsl r2
     f04:	01012a00 	tsteq	r1, r0, lsl #20
     f08:	13011349 	movwne	r1, #4937	; 0x1349
     f0c:	212b0000 	teqcs	fp, r0
     f10:	2f134900 	svccs	0x00134900
     f14:	2c00000b 	stccs	0, cr0, [r0], {11}
     f18:	08030034 	stmdaeq	r3, {r2, r4, r5}
     f1c:	0b3b0b3a 	bleq	ec3c0c <__bss_end__+0xeb9d0c>
     f20:	061c1349 	ldreq	r1, [ip], -r9, asr #6
     f24:	342d0000 	strtcc	r0, [sp], #-0
     f28:	3a080300 	bcc	201b30 <__bss_end__+0x1f7c30>
     f2c:	490b3b0b 	stmdbmi	fp, {r0, r1, r3, r8, r9, fp, ip, sp}
     f30:	000b1c13 	andeq	r1, fp, r3, lsl ip
     f34:	00052e00 	andeq	r2, r5, r0, lsl #28
     f38:	0b3a0803 	bleq	e82f4c <__bss_end__+0xe7904c>
     f3c:	13490b3b 	movtne	r0, #39739	; 0x9b3b
     f40:	00001802 	andeq	r1, r0, r2, lsl #16
     f44:	0000182f 	andeq	r1, r0, pc, lsr #16
     f48:	00213000 	eoreq	r3, r1, r0
     f4c:	052f1349 	streq	r1, [pc, #-841]!	; c0b <_start-0x73f5>
     f50:	2e310000 	cdpcs	0, 3, cr0, cr1, cr0, {0}
     f54:	03193f01 	tsteq	r9, #1, 30
     f58:	3b0b3a0e 	blcc	2cf798 <__bss_end__+0x2c5898>
     f5c:	3c19270b 	ldccc	7, cr2, [r9], {11}
     f60:	00130119 	andseq	r0, r3, r9, lsl r1
     f64:	00053200 	andeq	r3, r5, r0, lsl #4
     f68:	00001349 	andeq	r1, r0, r9, asr #6
     f6c:	3f002e33 	svccc	0x00002e33
     f70:	3a0e0319 	bcc	381bdc <__bss_end__+0x377cdc>
     f74:	270b3b0b 	strcs	r3, [fp, -fp, lsl #22]
     f78:	3c134919 	ldccc	9, cr4, [r3], {25}
     f7c:	34000019 	strcc	r0, [r0], #-25
     f80:	193f012e 	ldmdbne	pc!, {r1, r2, r3, r5, r8}	; <UNPREDICTABLE>
     f84:	0b3a0e03 	bleq	e84798 <__bss_end__+0xe7a898>
     f88:	19270b3b 	stmdbne	r7!, {r0, r1, r3, r4, r5, r8, r9, fp}
     f8c:	193c1349 	ldmdbne	ip!, {r0, r3, r6, r8, r9, ip}
     f90:	00001301 	andeq	r1, r0, r1, lsl #6
     f94:	3f002e35 	svccc	0x00002e35
     f98:	3a0e0319 	bcc	381c04 <__bss_end__+0x377d04>
     f9c:	270b3b0b 	strcs	r3, [fp, -fp, lsl #22]
     fa0:	00193c19 	andseq	r3, r9, r9, lsl ip
     fa4:	012e3600 	teqeq	lr, r0, lsl #12
     fa8:	0e03193f 	mcreq	9, 0, r1, cr3, cr15, {1}
     fac:	0b3b0b3a 	bleq	ec3c9c <__bss_end__+0xeb9d9c>
     fb0:	13491927 	movtne	r1, #39207	; 0x9927
     fb4:	0000193c 	andeq	r1, r0, ip, lsr r9
     fb8:	01110100 	tsteq	r1, r0, lsl #2
     fbc:	0b130e25 	bleq	4c4858 <__bss_end__+0x4ba958>
     fc0:	0e1b0e03 	cdpeq	14, 1, cr0, cr11, cr3, {0}
     fc4:	06120111 			; <UNDEFINED> instruction: 0x06120111
     fc8:	00001710 	andeq	r1, r0, r0, lsl r7
     fcc:	0b002402 	bleq	9fdc <__bss_end__+0xdc>
     fd0:	030b3e0b 	movweq	r3, #48651	; 0xbe0b
     fd4:	03000008 	movweq	r0, #8
     fd8:	0b0b0024 	bleq	2c1070 <__bss_end__+0x2b7170>
     fdc:	0e030b3e 	vmoveq.16	d3[0], r0
     fe0:	04040000 	streq	r0, [r4], #-0
     fe4:	3a0b0b01 	bcc	2c3bf0 <__bss_end__+0x2b9cf0>
     fe8:	010b3b0b 	tsteq	fp, fp, lsl #22
     fec:	05000013 	streq	r0, [r0, #-19]
     ff0:	0e030028 	cdpeq	0, 0, cr0, cr3, cr8, {1}
     ff4:	00000d1c 	andeq	r0, r0, ip, lsl sp
     ff8:	03001606 	movweq	r1, #1542	; 0x606
     ffc:	3b0b3a0e 	blcc	2cf83c <__bss_end__+0x2c593c>
    1000:	0013490b 	andseq	r4, r3, fp, lsl #18
    1004:	012e0700 	teqeq	lr, r0, lsl #14
    1008:	0e03193f 	mcreq	9, 0, r1, cr3, cr15, {1}
    100c:	0b3b0b3a 	bleq	ec3cfc <__bss_end__+0xeb9dfc>
    1010:	01111927 	tsteq	r1, r7, lsr #18
    1014:	18400612 	stmdane	r0, {r1, r4, r9, sl}^
    1018:	01194297 			; <UNDEFINED> instruction: 0x01194297
    101c:	08000013 	stmdaeq	r0, {r0, r1, r4}
    1020:	00018289 	andeq	r8, r1, r9, lsl #5
    1024:	13310111 	teqne	r1, #1073741828	; 0x40000004
    1028:	89090000 	stmdbhi	r9, {}	; <UNPREDICTABLE>
    102c:	11010182 	smlabbne	r1, r2, r1, r0
    1030:	01133101 	tsteq	r3, r1, lsl #2
    1034:	0a000013 	beq	1088 <_start-0x6f78>
    1038:	0001828a 	andeq	r8, r1, sl, lsl #5
    103c:	42911802 	addsmi	r1, r1, #131072	; 0x20000
    1040:	0b000018 	bleq	10a8 <_start-0x6f58>
    1044:	193f012e 	ldmdbne	pc!, {r1, r2, r3, r5, r8}	; <UNPREDICTABLE>
    1048:	0b3a0e03 	bleq	e8485c <__bss_end__+0xe7a95c>
    104c:	19270b3b 	stmdbne	r7!, {r0, r1, r3, r4, r5, r8, r9, fp}
    1050:	01111349 	tsteq	r1, r9, asr #6
    1054:	18400612 	stmdane	r0, {r1, r4, r9, sl}^
    1058:	01194297 			; <UNDEFINED> instruction: 0x01194297
    105c:	0c000013 	stceq	0, cr0, [r0], {19}
    1060:	08030005 	stmdaeq	r3, {r0, r2}
    1064:	0b3b0b3a 	bleq	ec3d54 <__bss_end__+0xeb9e54>
    1068:	17021349 	strne	r1, [r2, -r9, asr #6]
    106c:	890d0000 	stmdbhi	sp, {}	; <UNPREDICTABLE>
    1070:	11010182 	smlabbne	r1, r2, r1, r0
    1074:	00133101 	andseq	r3, r3, r1, lsl #2
    1078:	00340e00 	eorseq	r0, r4, r0, lsl #28
    107c:	0b3a0e03 	bleq	e84890 <__bss_end__+0xe7a990>
    1080:	13490b3b 	movtne	r0, #39739	; 0x9b3b
    1084:	1802193f 	stmdane	r2, {r0, r1, r2, r3, r4, r5, r8, fp, ip}
    1088:	0f0f0000 	svceq	0x000f0000
    108c:	490b0b00 	stmdbmi	fp, {r8, r9, fp}
    1090:	10000013 	andne	r0, r0, r3, lsl r0
    1094:	13490035 	movtne	r0, #36917	; 0x9035
    1098:	2e110000 	cdpcs	0, 1, cr0, cr1, cr0, {0}
    109c:	03193f00 	tsteq	r9, #0, 30
    10a0:	3b0b3a0e 	blcc	2cf8e0 <__bss_end__+0x2c59e0>
    10a4:	3c19270b 	ldccc	7, cr2, [r9], {11}
    10a8:	12000019 	andne	r0, r0, #25
    10ac:	193f012e 	ldmdbne	pc!, {r1, r2, r3, r5, r8}	; <UNPREDICTABLE>
    10b0:	0b3a0e03 	bleq	e848c4 <__bss_end__+0xe7a9c4>
    10b4:	19270b3b 	stmdbne	r7!, {r0, r1, r3, r4, r5, r8, r9, fp}
    10b8:	1301193c 	movwne	r1, #6460	; 0x193c
    10bc:	05130000 	ldreq	r0, [r3, #-0]
    10c0:	00134900 	andseq	r4, r3, r0, lsl #18
    10c4:	012e1400 	teqeq	lr, r0, lsl #8
    10c8:	0e03193f 	mcreq	9, 0, r1, cr3, cr15, {1}
    10cc:	0b3b0b3a 	bleq	ec3dbc <__bss_end__+0xeb9ebc>
    10d0:	13491927 	movtne	r1, #39207	; 0x9927
    10d4:	1301193c 	movwne	r1, #6460	; 0x193c
    10d8:	26150000 	ldrcs	r0, [r5], -r0
    10dc:	00134900 	andseq	r4, r3, r0, lsl #18
    10e0:	00351600 	eorseq	r1, r5, r0, lsl #12
    10e4:	01000000 	mrseq	r0, (UNDEF: 0)
    10e8:	0e250111 	mcreq	1, 1, r0, cr5, cr1, {0}
    10ec:	0e030b13 	vmoveq.32	d3[0], r0
    10f0:	01110e1b 	tsteq	r1, fp, lsl lr
    10f4:	17100612 			; <UNDEFINED> instruction: 0x17100612
    10f8:	24020000 	strcs	r0, [r2], #-0
    10fc:	3e0b0b00 	vmlacc.f64	d0, d11, d0
    1100:	0008030b 	andeq	r0, r8, fp, lsl #6
    1104:	00160300 	andseq	r0, r6, r0, lsl #6
    1108:	0b3a0e03 	bleq	e8491c <__bss_end__+0xe7aa1c>
    110c:	13490b3b 	movtne	r0, #39739	; 0x9b3b
    1110:	24040000 	strcs	r0, [r4], #-0
    1114:	3e0b0b00 	vmlacc.f64	d0, d11, d0
    1118:	000e030b 	andeq	r0, lr, fp, lsl #6
    111c:	000f0500 	andeq	r0, pc, r0, lsl #10
    1120:	00000b0b 	andeq	r0, r0, fp, lsl #22
    1124:	0b011306 	bleq	45d44 <__bss_end__+0x3be44>
    1128:	3b0b3a0b 	blcc	2cf95c <__bss_end__+0x2c5a5c>
    112c:	0013010b 	andseq	r0, r3, fp, lsl #2
    1130:	000d0700 	andeq	r0, sp, r0, lsl #14
    1134:	0b3a0803 	bleq	e83148 <__bss_end__+0xe79248>
    1138:	13490b3b 	movtne	r0, #39739	; 0x9b3b
    113c:	00000b38 	andeq	r0, r0, r8, lsr fp
    1140:	03000d08 	movweq	r0, #3336	; 0xd08
    1144:	3b0b3a0e 	blcc	2cf984 <__bss_end__+0x2c5a84>
    1148:	3813490b 	ldmdacc	r3, {r0, r1, r3, r8, fp, lr}
    114c:	0900000b 	stmdbeq	r0, {r0, r1, r3}
    1150:	0b0b0104 	bleq	2c1568 <__bss_end__+0x2b7668>
    1154:	0b3b0b3a 	bleq	ec3e44 <__bss_end__+0xeb9f44>
    1158:	00001301 	andeq	r1, r0, r1, lsl #6
    115c:	0300280a 	movweq	r2, #2058	; 0x80a
    1160:	000d1c0e 	andeq	r1, sp, lr, lsl #24
    1164:	012e0b00 	teqeq	lr, r0, lsl #22
    1168:	0e03193f 	mcreq	9, 0, r1, cr3, cr15, {1}
    116c:	0b3b0b3a 	bleq	ec3e5c <__bss_end__+0xeb9f5c>
    1170:	13491927 	movtne	r1, #39207	; 0x9927
    1174:	06120111 			; <UNDEFINED> instruction: 0x06120111
    1178:	42971840 	addsmi	r1, r7, #64, 16	; 0x400000
    117c:	00130119 	andseq	r0, r3, r9, lsl r1
    1180:	00340c00 	eorseq	r0, r4, r0, lsl #24
    1184:	0b3a0803 	bleq	e83198 <__bss_end__+0xe79298>
    1188:	13490b3b 	movtne	r0, #39739	; 0x9b3b
    118c:	0000061c 	andeq	r0, r0, ip, lsl r6
    1190:	0182890d 	orreq	r8, r2, sp, lsl #18
    1194:	31011101 	tstcc	r1, r1, lsl #2
    1198:	0e000013 	mcreq	0, 0, r0, cr0, cr3, {0}
    119c:	0001828a 	andeq	r8, r1, sl, lsl #5
    11a0:	42911802 	addsmi	r1, r1, #131072	; 0x20000
    11a4:	0f000018 	svceq	0x00000018
    11a8:	0b0b000f 	bleq	2c11ec <__bss_end__+0x2b72ec>
    11ac:	00001349 	andeq	r1, r0, r9, asr #6
    11b0:	3f012e10 	svccc	0x00012e10
    11b4:	3a0e0319 	bcc	381e20 <__bss_end__+0x377f20>
    11b8:	270b3b0b 	strcs	r3, [fp, -fp, lsl #22]
    11bc:	3c134919 	ldccc	9, cr4, [r3], {25}
    11c0:	11000019 	tstne	r0, r9, lsl r0
    11c4:	13490005 	movtne	r0, #36869	; 0x9005
    11c8:	01000000 	mrseq	r0, (UNDEF: 0)
    11cc:	0e250111 	mcreq	1, 1, r0, cr5, cr1, {0}
    11d0:	0e030b13 	vmoveq.32	d3[0], r0
    11d4:	01110e1b 	tsteq	r1, fp, lsl lr
    11d8:	17100612 			; <UNDEFINED> instruction: 0x17100612
    11dc:	24020000 	strcs	r0, [r2], #-0
    11e0:	3e0b0b00 	vmlacc.f64	d0, d11, d0
    11e4:	000e030b 	andeq	r0, lr, fp, lsl #6
    11e8:	00240300 	eoreq	r0, r4, r0, lsl #6
    11ec:	0b3e0b0b 	bleq	f83e20 <__bss_end__+0xf79f20>
    11f0:	00000803 	andeq	r0, r0, r3, lsl #16
    11f4:	0b000f04 	bleq	4e0c <_start-0x31f4>
    11f8:	0500000b 	streq	r0, [r0, #-11]
    11fc:	0b0b000f 	bleq	2c1240 <__bss_end__+0x2b7340>
    1200:	00001349 	andeq	r1, r0, r9, asr #6
    1204:	03001606 	movweq	r1, #1542	; 0x606
    1208:	3b0b3a0e 	blcc	2cfa48 <__bss_end__+0x2c5b48>
    120c:	0013490b 	andseq	r4, r3, fp, lsl #18
    1210:	012e0700 	teqeq	lr, r0, lsl #14
    1214:	0e03193f 	mcreq	9, 0, r1, cr3, cr15, {1}
    1218:	0b3b0b3a 	bleq	ec3f08 <__bss_end__+0xeba008>
    121c:	13491927 	movtne	r1, #39207	; 0x9927
    1220:	06120111 			; <UNDEFINED> instruction: 0x06120111
    1224:	42971840 	addsmi	r1, r7, #64, 16	; 0x400000
    1228:	08000019 	stmdaeq	r0, {r0, r3, r4}
    122c:	08030005 	stmdaeq	r3, {r0, r2}
    1230:	0b3b0b3a 	bleq	ec3f20 <__bss_end__+0xeba020>
    1234:	18021349 	stmdane	r2, {r0, r3, r6, r8, r9, ip}
    1238:	05090000 	streq	r0, [r9, #-0]
    123c:	3a080300 	bcc	201e44 <__bss_end__+0x1f7f44>
    1240:	490b3b0b 	stmdbmi	fp, {r0, r1, r3, r8, r9, fp, ip, sp}
    1244:	00170213 	andseq	r0, r7, r3, lsl r2
    1248:	00340a00 	eorseq	r0, r4, r0, lsl #20
    124c:	0b3a0803 	bleq	e83260 <__bss_end__+0xe79360>
    1250:	13490b3b 	movtne	r0, #39739	; 0x9b3b
    1254:	00001702 	andeq	r1, r0, r2, lsl #14
    1258:	0300340b 	movweq	r3, #1035	; 0x40b
    125c:	3b0b3a08 	blcc	2cfa84 <__bss_end__+0x2c5b84>
    1260:	0213490b 	andseq	r4, r3, #180224	; 0x2c000
    1264:	00000018 	andeq	r0, r0, r8, lsl r0

Disassembly of section .debug_aranges:

00000000 <.debug_aranges>:
   0:	0000001c 	andeq	r0, r0, ip, lsl r0
   4:	00000002 	andeq	r0, r0, r2
   8:	00040000 	andeq	r0, r4, r0
   c:	00000000 	andeq	r0, r0, r0
  10:	00008010 	andeq	r8, r0, r0, lsl r0
  14:	00000034 	andeq	r0, r0, r4, lsr r0
	...
  20:	0000001c 	andeq	r0, r0, ip, lsl r0
  24:	016f0002 	cmneq	pc, r2
  28:	00040000 	andeq	r0, r4, r0
  2c:	00000000 	andeq	r0, r0, r0
  30:	00008044 	andeq	r8, r0, r4, asr #32
  34:	0000010c 	andeq	r0, r0, ip, lsl #2
	...
  40:	0000001c 	andeq	r0, r0, ip, lsl r0
  44:	05200002 	streq	r0, [r0, #-2]!
  48:	00040000 	andeq	r0, r4, r0
  4c:	00000000 	andeq	r0, r0, r0
  50:	00008150 	andeq	r8, r0, r0, asr r1
  54:	00000058 	andeq	r0, r0, r8, asr r0
	...
  60:	0000001c 	andeq	r0, r0, ip, lsl r0
  64:	06b50002 	ldrteq	r0, [r5], r2
  68:	00040000 	andeq	r0, r4, r0
  6c:	00000000 	andeq	r0, r0, r0
  70:	000081a8 	andeq	r8, r0, r8, lsr #3
  74:	0000003c 	andeq	r0, r0, ip, lsr r0
	...
  80:	0000001c 	andeq	r0, r0, ip, lsl r0
  84:	07cc0002 	strbeq	r0, [ip, r2]
  88:	00040000 	andeq	r0, r4, r0
  8c:	00000000 	andeq	r0, r0, r0
  90:	000081e4 	andeq	r8, r0, r4, ror #3
  94:	00000034 	andeq	r0, r0, r4, lsr r0
	...
  a0:	0000001c 	andeq	r0, r0, ip, lsl r0
  a4:	08be0002 	ldmeq	lr!, {r1}
  a8:	00040000 	andeq	r0, r4, r0
  ac:	00000000 	andeq	r0, r0, r0
  b0:	00008218 	andeq	r8, r0, r8, lsl r2
  b4:	00000524 	andeq	r0, r0, r4, lsr #10
	...
  c0:	0000001c 	andeq	r0, r0, ip, lsl r0
  c4:	0f630002 	svceq	0x00630002
  c8:	00040000 	andeq	r0, r4, r0
  cc:	00000000 	andeq	r0, r0, r0
  d0:	0000873c 	andeq	r8, r0, ip, lsr r7
  d4:	00000028 	andeq	r0, r0, r8, lsr #32
	...
  e0:	0000001c 	andeq	r0, r0, ip, lsl r0
  e4:	10660002 	rsbne	r0, r6, r2
  e8:	00040000 	andeq	r0, r4, r0
  ec:	00000000 	andeq	r0, r0, r0
  f0:	00008764 	andeq	r8, r0, r4, ror #14
  f4:	000000b0 	strheq	r0, [r0], -r0	; <UNPREDICTABLE>
	...
 100:	0000001c 	andeq	r0, r0, ip, lsl r0
 104:	13470002 	movtne	r0, #28674	; 0x7002
 108:	00040000 	andeq	r0, r4, r0
 10c:	00000000 	andeq	r0, r0, r0
 110:	00008814 	andeq	r8, r0, r4, lsl r8
 114:	00000074 	andeq	r0, r0, r4, ror r0
	...
 120:	0000001c 	andeq	r0, r0, ip, lsl r0
 124:	14f80002 	ldrbtne	r0, [r8], #2
 128:	00040000 	andeq	r0, r4, r0
 12c:	00000000 	andeq	r0, r0, r0
 130:	00008888 	andeq	r8, r0, r8, lsl #17
 134:	00000088 	andeq	r0, r0, r8, lsl #1
	...
 140:	0000001c 	andeq	r0, r0, ip, lsl r0
 144:	16d40002 	ldrbne	r0, [r4], r2
 148:	00040000 	andeq	r0, r4, r0
 14c:	00000000 	andeq	r0, r0, r0
 150:	00008910 	andeq	r8, r0, r0, lsl r9
 154:	000005a0 	andeq	r0, r0, r0, lsr #11
	...
 160:	0000001c 	andeq	r0, r0, ip, lsl r0
 164:	1f5a0002 	svcne	0x005a0002
 168:	00040000 	andeq	r0, r4, r0
 16c:	00000000 	andeq	r0, r0, r0
 170:	00008eb0 			; <UNDEFINED> instruction: 0x00008eb0
 174:	00000668 	andeq	r0, r0, r8, ror #12
	...
 180:	0000001c 	andeq	r0, r0, ip, lsl r0
 184:	31500002 	cmpcc	r0, r2
 188:	00040000 	andeq	r0, r4, r0
 18c:	00000000 	andeq	r0, r0, r0
 190:	00009518 	andeq	r9, r0, r8, lsl r5
 194:	00000154 	andeq	r0, r0, r4, asr r1
	...
 1a0:	0000001c 	andeq	r0, r0, ip, lsl r0
 1a4:	35530002 	ldrbcc	r0, [r3, #-2]
 1a8:	00040000 	andeq	r0, r4, r0
 1ac:	00000000 	andeq	r0, r0, r0
 1b0:	000096d0 	ldrdeq	r9, [r0], -r0
 1b4:	00000050 	andeq	r0, r0, r0, asr r0
	...
 1c0:	0000001c 	andeq	r0, r0, ip, lsl r0
 1c4:	371a0002 	ldrcc	r0, [sl, -r2]
 1c8:	00040000 	andeq	r0, r4, r0
 1cc:	00000000 	andeq	r0, r0, r0
 1d0:	00009720 	andeq	r9, r0, r0, lsr #14
 1d4:	00000020 	andeq	r0, r0, r0, lsr #32
	...

Disassembly of section .debug_line:

00000000 <.debug_line>:
       0:	000000d9 	ldrdeq	r0, [r0], -r9
       4:	00c10002 	sbceq	r0, r1, r2
       8:	01020000 	mrseq	r0, (UNDEF: 2)
       c:	000d0efb 	strdeq	r0, [sp], -fp
      10:	01010101 	tsteq	r1, r1, lsl #2
      14:	01000000 	mrseq	r0, (UNDEF: 0)
      18:	2f010000 	svccs	0x00010000
      1c:	72657355 	rsbvc	r7, r5, #1409286145	; 0x54000001
      20:	72622f73 	rsbvc	r2, r2, #460	; 0x1cc
      24:	6a6e6169 	bvs	1b985d0 <__bss_end__+0x1b8e6d0>
      28:	442f6e75 	strtmi	r6, [pc], #-3701	; 30 <_start-0x7fd0>
      2c:	746b7365 	strbtvc	r7, [fp], #-869	; 0x365
      30:	732f706f 	teqvc	pc, #111	; 0x6f
      34:	6f6f6863 	svcvs	0x006f6863
      38:	69572f6c 	ldmdbvs	r7, {r2, r3, r5, r6, r8, r9, sl, fp, sp}^
      3c:	7265746e 	rsbvc	r7, r5, #1845493760	; 0x6e000000
      40:	30323931 	eorscc	r3, r2, r1, lsr r9
      44:	3153432f 	cmpcc	r3, pc, lsr #6
      48:	2f453034 	svccs	0x00453034
      4c:	34317363 	ldrtcc	r7, [r1], #-867	; 0x363
      50:	322d6530 	eorcc	r6, sp, #48, 10	; 0xc000000
      54:	6e697730 	mcrvs	7, 3, r7, cr9, cr0, {1}
      58:	62696c2f 	rsbvs	r6, r9, #12032	; 0x2f00
      5c:	632f6970 	teqvs	pc, #112, 18	; 0x1c0000
      60:	30343173 	eorscc	r3, r4, r3, ror r1
      64:	72732d65 	rsbsvc	r2, r3, #6464	; 0x1940
      68:	552f0063 	strpl	r0, [pc, #-99]!	; d <_start-0x7ff3>
      6c:	73726573 	cmnvc	r2, #482344960	; 0x1cc00000
      70:	6972622f 	ldmdbvs	r2!, {r0, r1, r2, r3, r5, r9, sp, lr}^
      74:	756a6e61 	strbvc	r6, [sl, #-3681]!	; 0xe61
      78:	65442f6e 	strbvs	r2, [r4, #-3950]	; 0xf6e
      7c:	6f746b73 	svcvs	0x00746b73
      80:	63732f70 	cmnvs	r3, #112, 30	; 0x1c0
      84:	6c6f6f68 	stclvs	15, cr6, [pc], #-416	; fffffeec <__bss_end__+0xffff5fec>
      88:	6e69572f 	cdpvs	7, 6, cr5, cr9, cr15, {1}
      8c:	31726574 	cmncc	r2, r4, ror r5
      90:	2f303239 	svccs	0x00303239
      94:	34315343 	ldrtcc	r5, [r1], #-835	; 0x343
      98:	632f4530 	teqvs	pc, #48, 10	; 0xc000000
      9c:	30343173 	eorscc	r3, r4, r3, ror r1
      a0:	30322d65 	eorscc	r2, r2, r5, ror #26
      a4:	2f6e6977 	svccs	0x006e6977
      a8:	7062696c 	rsbvc	r6, r2, ip, ror #18
      ac:	6f000069 	svcvs	0x00000069
      b0:	00632e6e 	rsbeq	r2, r3, lr, ror #28
      b4:	67000000 	strvs	r0, [r0, -r0]
      b8:	2e6f6970 	mcrcs	9, 3, r6, cr15, cr0, {3}
      bc:	00010068 	andeq	r0, r1, r8, rrx
      c0:	69707200 	ldmdbvs	r0!, {r9, ip, sp, lr}^
      c4:	0200682e 	andeq	r6, r0, #3014656	; 0x2e0000
      c8:	00000000 	andeq	r0, r0, r0
      cc:	80100205 	andshi	r0, r0, r5, lsl #4
      d0:	2f160000 	svccs	0x00160000
      d4:	4b4b4e2f 	blmi	12d3998 <__bss_end__+0x12c9a98>
      d8:	01000a02 	tsteq	r0, r2, lsl #20
      dc:	0000a701 	andeq	sl, r0, r1, lsl #14
      e0:	6e000200 	cdpvs	2, 0, cr0, cr0, cr0, {0}
      e4:	02000000 	andeq	r0, r0, #0
      e8:	0d0efb01 	vstreq	d15, [lr, #-4]
      ec:	01010100 	mrseq	r0, (UNDEF: 17)
      f0:	00000001 	andeq	r0, r0, r1
      f4:	01000001 	tsteq	r0, r1
      f8:	6573552f 	ldrbvs	r5, [r3, #-1327]!	; 0x52f
      fc:	622f7372 	eorvs	r7, pc, #-939524095	; 0xc8000001
     100:	6e616972 	mcrvs	9, 3, r6, cr1, cr2, {3}
     104:	2f6e756a 	svccs	0x006e756a
     108:	6b736544 	blvs	1cd9620 <__bss_end__+0x1ccf720>
     10c:	2f706f74 	svccs	0x00706f74
     110:	6f686373 	svcvs	0x00686373
     114:	572f6c6f 	strpl	r6, [pc, -pc, ror #24]!
     118:	65746e69 	ldrbvs	r6, [r4, #-3689]!	; 0xe69
     11c:	32393172 	eorscc	r3, r9, #-2147483620	; 0x8000001c
     120:	53432f30 	movtpl	r2, #16176	; 0x3f30
     124:	45303431 	ldrmi	r3, [r0, #-1073]!	; 0x431
     128:	3173632f 	cmncc	r3, pc, lsr #6
     12c:	2d653034 	stclcs	0, cr3, [r5, #-208]!	; 0xffffff30
     130:	69773032 	ldmdbvs	r7!, {r1, r4, r5, ip, sp}^
     134:	696c2f6e 	stmdbvs	ip!, {r1, r2, r3, r5, r6, r8, r9, sl, fp, sp}^
     138:	00697062 	rsbeq	r7, r9, r2, rrx
     13c:	69706700 	ldmdbvs	r0!, {r8, r9, sl, sp, lr}^
     140:	75702d6f 	ldrbvc	r2, [r0, #-3439]!	; 0xd6f
     144:	00632e64 	rsbeq	r2, r3, r4, ror #28
     148:	72000000 	andvc	r0, r0, #0
     14c:	682e6970 	stmdavs	lr!, {r4, r5, r6, r8, fp, sp, lr}
     150:	00000100 	andeq	r0, r0, r0, lsl #2
     154:	02050000 	andeq	r0, r5, #0
     158:	00008044 	andeq	r8, r0, r4, asr #32
     15c:	00844c1a 	addeq	r4, r4, sl, lsl ip
     160:	2f010402 	svccs	0x00010402
     164:	4d4c2f85 	stclmi	15, cr2, [ip, #-532]	; 0xfffffdec
     168:	0200842f 	andeq	r8, r0, #788529152	; 0x2f000000
     16c:	842f0104 	strthi	r0, [pc], #-260	; 174 <_start-0x7e8c>
     170:	04020084 	streq	r0, [r2], #-132	; 0x84
     174:	68842f01 	stmvs	r4, {r0, r8, r9, sl, fp, sp}
     178:	01040200 	mrseq	r0, R12_usr
     17c:	2e4b832f 	cdpcs	3, 4, cr8, cr11, cr15, {1}
     180:	022e3d08 	eoreq	r3, lr, #8, 26	; 0x200
     184:	01010014 	tsteq	r1, r4, lsl r0
     188:	00000102 	andeq	r0, r0, r2, lsl #2
     18c:	00eb0002 	rsceq	r0, fp, r2
     190:	01020000 	mrseq	r0, (UNDEF: 2)
     194:	000d0efb 	strdeq	r0, [sp], -fp
     198:	01010101 	tsteq	r1, r1, lsl #2
     19c:	01000000 	mrseq	r0, (UNDEF: 0)
     1a0:	6c010000 	stcvs	0, cr0, [r1], {-0}
     1a4:	00636269 	rsbeq	r6, r3, r9, ror #4
     1a8:	7273752f 	rsbsvc	r7, r3, #197132288	; 0xbc00000
     1ac:	636f6c2f 	cmnvs	pc, #12032	; 0x2f00
     1b0:	432f6c61 	teqmi	pc, #24832	; 0x6100
     1b4:	616c6c65 	cmnvs	ip, r5, ror #24
     1b8:	72612f72 	rsbvc	r2, r1, #456	; 0x1c8
     1bc:	6f6e2d6d 	svcvs	0x006e2d6d
     1c0:	652d656e 	strvs	r6, [sp, #-1390]!	; 0x56e
     1c4:	2f696261 	svccs	0x00696261
     1c8:	2e382e34 	mrccs	14, 1, r2, cr8, cr4, {1}
     1cc:	73632d33 	cmnvc	r3, #3264	; 0xcc0
     1d0:	65303731 	ldrvs	r3, [r0, #-1841]!	; 0x731
     1d4:	62696c2f 	rsbvs	r6, r9, #12032	; 0x2f00
     1d8:	6363672f 	cmnvs	r3, #12320768	; 0xbc0000
     1dc:	6d72612f 	ldfvse	f6, [r2, #-188]!	; 0xffffff44
     1e0:	6e6f6e2d 	cdpvs	14, 6, cr6, cr15, cr13, {1}
     1e4:	61652d65 	cmnvs	r5, r5, ror #26
     1e8:	342f6962 	strtcc	r6, [pc], #-2402	; 1f0 <_start-0x7e10>
     1ec:	332e382e 	teqcc	lr, #3014656	; 0x2e0000
     1f0:	636e692f 	cmnvs	lr, #770048	; 0xbc000
     1f4:	6564756c 	strbvs	r7, [r4, #-1388]!	; 0x56c
     1f8:	73552f00 	cmpvc	r5, #0, 30
     1fc:	2f737265 	svccs	0x00737265
     200:	61697262 	cmnvs	r9, r2, ror #4
     204:	6e756a6e 	vsubvs.f32	s13, s10, s29
     208:	7365442f 	cmnvc	r5, #788529152	; 0x2f000000
     20c:	706f746b 	rsbvc	r7, pc, fp, ror #8
     210:	6863732f 	stmdavs	r3!, {r0, r1, r2, r3, r5, r8, r9, ip, sp, lr}^
     214:	2f6c6f6f 	svccs	0x006c6f6f
     218:	746e6957 	strbtvc	r6, [lr], #-2391	; 0x957
     21c:	39317265 	ldmdbcc	r1!, {r0, r2, r5, r6, r9, ip, sp, lr}
     220:	432f3032 	teqmi	pc, #50	; 0x32
     224:	30343153 	eorscc	r3, r4, r3, asr r1
     228:	73632f45 	cmnvc	r3, #276	; 0x114
     22c:	65303431 	ldrvs	r3, [r0, #-1073]!	; 0x431
     230:	7730322d 	ldrvc	r3, [r0, -sp, lsr #4]!
     234:	6c2f6e69 	stcvs	14, cr6, [pc], #-420	; 98 <_start-0x7f68>
     238:	69706269 	ldmdbvs	r0!, {r0, r3, r5, r6, r9, sp, lr}^
     23c:	72700000 	rsbsvc	r0, r0, #0
     240:	6b746e69 	blvs	1d1bbec <__bss_end__+0x1d11cec>
     244:	0100632e 	tsteq	r0, lr, lsr #6
     248:	74730000 	ldrbtvc	r0, [r3], #-0
     24c:	67726164 	ldrbvs	r6, [r2, -r4, ror #2]!
     250:	0200682e 	andeq	r6, r0, #3014656	; 0x2e0000
     254:	623c0000 	eorsvs	r0, ip, #0
     258:	746c6975 	strbtvc	r6, [ip], #-2421	; 0x975
     25c:	3e6e692d 	cdpcc	9, 6, cr6, cr14, cr13, {1}
     260:	00000000 	andeq	r0, r0, r0
     264:	2e697072 	mcrcs	0, 3, r7, cr9, cr2, {3}
     268:	00030068 	andeq	r0, r3, r8, rrx
     26c:	2d617600 	stclcs	6, cr7, [r1, #-0]
     270:	6e697270 	mcrvs	2, 3, r7, cr9, cr0, {3}
     274:	682e6b74 	stmdavs	lr!, {r2, r4, r5, r6, r8, r9, fp, sp, lr}
     278:	00000100 	andeq	r0, r0, r0, lsl #2
     27c:	02050000 	andeq	r0, r5, #0
     280:	00008150 	andeq	r8, r0, r0, asr r1
     284:	bf4b6b17 	svclt	0x004b6b17
     288:	000e0289 	andeq	r0, lr, r9, lsl #5
     28c:	008a0101 	addeq	r0, sl, r1, lsl #2
     290:	00020000 	andeq	r0, r2, r0
     294:	00000072 	andeq	r0, r0, r2, ror r0
     298:	0efb0102 	cdpeq	1, 15, cr0, cr11, cr2, {0}
     29c:	0101000d 	tsteq	r1, sp
     2a0:	00000101 	andeq	r0, r0, r1, lsl #2
     2a4:	00000100 	andeq	r0, r0, r0, lsl #2
     2a8:	62696c01 	rsbvs	r6, r9, #256	; 0x100
     2ac:	552f0063 	strpl	r0, [pc, #-99]!	; 251 <_start-0x7daf>
     2b0:	73726573 	cmnvc	r2, #482344960	; 0x1cc00000
     2b4:	6972622f 	ldmdbvs	r2!, {r0, r1, r2, r3, r5, r9, sp, lr}^
     2b8:	756a6e61 	strbvc	r6, [sl, #-3681]!	; 0xe61
     2bc:	65442f6e 	strbvs	r2, [r4, #-3950]	; 0xf6e
     2c0:	6f746b73 	svcvs	0x00746b73
     2c4:	63732f70 	cmnvs	r3, #112, 30	; 0x1c0
     2c8:	6c6f6f68 	stclvs	15, cr6, [pc], #-416	; 130 <_start-0x7ed0>
     2cc:	6e69572f 	cdpvs	7, 6, cr5, cr9, cr15, {1}
     2d0:	31726574 	cmncc	r2, r4, ror r5
     2d4:	2f303239 	svccs	0x00303239
     2d8:	34315343 	ldrtcc	r5, [r1], #-835	; 0x343
     2dc:	632f4530 	teqvs	pc, #48, 10	; 0xc000000
     2e0:	30343173 	eorscc	r3, r4, r3, ror r1
     2e4:	30322d65 	eorscc	r2, r2, r5, ror #26
     2e8:	2f6e6977 	svccs	0x006e6977
     2ec:	7062696c 	rsbvc	r6, r2, ip, ror #18
     2f0:	70000069 	andvc	r0, r0, r9, rrx
     2f4:	68637475 	stmdavs	r3!, {r0, r2, r4, r5, r6, sl, ip, sp, lr}^
     2f8:	632e7261 	teqvs	lr, #268435462	; 0x10000006
     2fc:	00000100 	andeq	r0, r0, r0, lsl #2
     300:	2e697072 	mcrcs	0, 3, r7, cr9, cr2, {3}
     304:	00020068 	andeq	r0, r2, r8, rrx
     308:	05000000 	streq	r0, [r0, #-0]
     30c:	0081a802 	addeq	sl, r1, r2, lsl #16
     310:	6b4a1400 	blvs	1285318 <__bss_end__+0x127b418>
     314:	0213bc13 	andseq	fp, r3, #4864	; 0x1300
     318:	01010008 	tsteq	r1, r8
     31c:	00000096 	muleq	r0, r6, r0
     320:	006f0002 	rsbeq	r0, pc, r2
     324:	01020000 	mrseq	r0, (UNDEF: 2)
     328:	000d0efb 	strdeq	r0, [sp], -fp
     32c:	01010101 	tsteq	r1, r1, lsl #2
     330:	01000000 	mrseq	r0, (UNDEF: 0)
     334:	6c010000 	stcvs	0, cr0, [r1], {-0}
     338:	00636269 	rsbeq	r6, r3, r9, ror #4
     33c:	6573552f 	ldrbvs	r5, [r3, #-1327]!	; 0x52f
     340:	622f7372 	eorvs	r7, pc, #-939524095	; 0xc8000001
     344:	6e616972 	mcrvs	9, 3, r6, cr1, cr2, {3}
     348:	2f6e756a 	svccs	0x006e756a
     34c:	6b736544 	blvs	1cd9864 <__bss_end__+0x1ccf964>
     350:	2f706f74 	svccs	0x00706f74
     354:	6f686373 	svcvs	0x00686373
     358:	572f6c6f 	strpl	r6, [pc, -pc, ror #24]!
     35c:	65746e69 	ldrbvs	r6, [r4, #-3689]!	; 0xe69
     360:	32393172 	eorscc	r3, r9, #-2147483620	; 0x8000001c
     364:	53432f30 	movtpl	r2, #16176	; 0x3f30
     368:	45303431 	ldrmi	r3, [r0, #-1073]!	; 0x431
     36c:	3173632f 	cmncc	r3, pc, lsr #6
     370:	2d653034 	stclcs	0, cr3, [r5, #-208]!	; 0xffffff30
     374:	69773032 	ldmdbvs	r7!, {r1, r4, r5, ip, sp}^
     378:	696c2f6e 	stmdbvs	ip!, {r1, r2, r3, r5, r6, r8, r9, sl, fp, sp}^
     37c:	00697062 	rsbeq	r7, r9, r2, rrx
     380:	74757000 	ldrbtvc	r7, [r5], #-0
     384:	00632e6b 	rsbeq	r2, r3, fp, ror #28
     388:	72000001 	andvc	r0, r0, #1
     38c:	682e6970 	stmdavs	lr!, {r4, r5, r6, r8, fp, sp, lr}
     390:	00000200 	andeq	r0, r0, r0, lsl #4
     394:	02050000 	andeq	r0, r5, #0
     398:	000081e4 	andeq	r8, r0, r4, ror #3
     39c:	002d4c15 	eoreq	r4, sp, r5, lsl ip
     3a0:	2f020402 	svccs	0x00020402
     3a4:	02040200 	andeq	r0, r4, #0, 4
     3a8:	04020049 	streq	r0, [r2], #-73	; 0x49
     3ac:	062e0601 	strteq	r0, [lr], -r1, lsl #12
     3b0:	0006026b 	andeq	r0, r6, fp, ror #4
     3b4:	01e20101 	mvneq	r0, r1, lsl #2
     3b8:	00020000 	andeq	r0, r2, r0
     3bc:	000000df 	ldrdeq	r0, [r0], -pc	; <UNPREDICTABLE>
     3c0:	0efb0102 	cdpeq	1, 15, cr0, cr11, cr2, {0}
     3c4:	0101000d 	tsteq	r1, sp
     3c8:	00000101 	andeq	r0, r0, r1, lsl #2
     3cc:	00000100 	andeq	r0, r0, r0, lsl #2
     3d0:	62696c01 	rsbvs	r6, r9, #256	; 0x100
     3d4:	752f0063 	strvc	r0, [pc, #-99]!	; 379 <_start-0x7c87>
     3d8:	6c2f7273 	sfmvs	f7, 4, [pc], #-460	; 214 <_start-0x7dec>
     3dc:	6c61636f 	stclvs	3, cr6, [r1], #-444	; 0xfffffe44
     3e0:	6c65432f 	stclvs	3, cr4, [r5], #-188	; 0xffffff44
     3e4:	2f72616c 	svccs	0x0072616c
     3e8:	2d6d7261 	sfmcs	f7, 2, [sp, #-388]!	; 0xfffffe7c
     3ec:	656e6f6e 	strbvs	r6, [lr, #-3950]!	; 0xf6e
     3f0:	6261652d 	rsbvs	r6, r1, #188743680	; 0xb400000
     3f4:	2e342f69 	cdpcs	15, 3, cr2, cr4, cr9, {3}
     3f8:	2d332e38 	ldccs	14, cr2, [r3, #-224]!	; 0xffffff20
     3fc:	37317363 	ldrcc	r7, [r1, -r3, ror #6]!
     400:	6c2f6530 	cfstr32vs	mvfx6, [pc], #-192	; 348 <_start-0x7cb8>
     404:	672f6269 	strvs	r6, [pc, -r9, ror #4]!
     408:	612f6363 	teqvs	pc, r3, ror #6
     40c:	6e2d6d72 	mcrvs	13, 1, r6, cr13, cr2, {3}
     410:	2d656e6f 	stclcs	14, cr6, [r5, #-444]!	; 0xfffffe44
     414:	69626165 	stmdbvs	r2!, {r0, r2, r5, r6, r8, sp, lr}^
     418:	382e342f 	stmdacc	lr!, {r0, r1, r2, r3, r5, sl, ip, sp}
     41c:	692f332e 	stmdbvs	pc!, {r1, r2, r3, r5, r8, r9, ip, sp}	; <UNPREDICTABLE>
     420:	756c636e 	strbvc	r6, [ip, #-878]!	; 0x36e
     424:	2f006564 	svccs	0x00006564
     428:	72657355 	rsbvc	r7, r5, #1409286145	; 0x54000001
     42c:	72622f73 	rsbvc	r2, r2, #460	; 0x1cc
     430:	6a6e6169 	bvs	1b989dc <__bss_end__+0x1b8eadc>
     434:	442f6e75 	strtmi	r6, [pc], #-3701	; 43c <_start-0x7bc4>
     438:	746b7365 	strbtvc	r7, [fp], #-869	; 0x365
     43c:	732f706f 	teqvc	pc, #111	; 0x6f
     440:	6f6f6863 	svcvs	0x006f6863
     444:	69572f6c 	ldmdbvs	r7, {r2, r3, r5, r6, r8, r9, sl, fp, sp}^
     448:	7265746e 	rsbvc	r7, r5, #1845493760	; 0x6e000000
     44c:	30323931 	eorscc	r3, r2, r1, lsr r9
     450:	3153432f 	cmpcc	r3, pc, lsr #6
     454:	2f453034 	svccs	0x00453034
     458:	34317363 	ldrtcc	r7, [r1], #-867	; 0x363
     45c:	322d6530 	eorcc	r6, sp, #48, 10	; 0xc000000
     460:	6e697730 	mcrvs	7, 3, r7, cr9, cr0, {1}
     464:	62696c2f 	rsbvs	r6, r9, #12032	; 0x2f00
     468:	00006970 	andeq	r6, r0, r0, ror r9
     46c:	702d6176 	eorvc	r6, sp, r6, ror r1
     470:	746e6972 	strbtvc	r6, [lr], #-2418	; 0x972
     474:	00632e6b 	rsbeq	r2, r3, fp, ror #28
     478:	73000001 	movwvc	r0, #1
     47c:	72616474 	rsbvc	r6, r1, #116, 8	; 0x74000000
     480:	00682e67 	rsbeq	r2, r8, r7, ror #28
     484:	72000002 	andvc	r0, r0, #2
     488:	682e6970 	stmdavs	lr!, {r4, r5, r6, r8, fp, sp, lr}
     48c:	00000300 	andeq	r0, r0, r0, lsl #6
     490:	6975623c 	ldmdbvs	r5!, {r2, r3, r4, r5, r9, sp, lr}^
     494:	692d746c 	pushvs	{r2, r3, r5, r6, sl, ip, sp, lr}
     498:	00003e6e 	andeq	r3, r0, lr, ror #28
     49c:	00000000 	andeq	r0, r0, r0
     4a0:	82180205 	andshi	r0, r8, #1342177280	; 0x50000000
     4a4:	26030000 	strcs	r0, [r3], -r0
     4a8:	13a50101 			; <UNDEFINED> instruction: 0x13a50101
     4ac:	02002d31 	andeq	r2, r0, #3136	; 0xc40
     4b0:	002f0204 	eoreq	r0, pc, r4, lsl #4
     4b4:	2d020402 	cfstrscs	mvf0, [r2, #-8]
     4b8:	02040200 	andeq	r0, r4, #0, 4
     4bc:	0402002f 	streq	r0, [r2], #-47	; 0x2f
     4c0:	4c4c2d01 	mcrrmi	13, 0, r2, ip, cr1
     4c4:	2f4b1430 	svccs	0x004b1430
     4c8:	0402004f 	streq	r0, [r2], #-79	; 0x4f
     4cc:	02006702 	andeq	r6, r0, #524288	; 0x80000
     4d0:	4c650104 	stfmie	f0, [r5], #-16
     4d4:	2fa0304d 	svccs	0x00a0304d
     4d8:	26023031 			; <UNDEFINED> instruction: 0x26023031
     4dc:	2c2d8416 	cfstrscs	mvf8, [sp], #-88	; 0xffffffa8
     4e0:	01040200 	mrseq	r0, R12_usr
     4e4:	04020030 	streq	r0, [r2], #-48	; 0x30
     4e8:	66063301 	strvs	r3, [r6], -r1, lsl #6
     4ec:	01040200 	mrseq	r0, R12_usr
     4f0:	0402002e 	streq	r0, [r2], #-46	; 0x2e
     4f4:	21080601 	tstcs	r8, r1, lsl #12
     4f8:	73032f67 	movwvc	r2, #16231	; 0x3f67
     4fc:	2e130382 	cdpcs	3, 1, cr0, cr3, cr2, {4}
     500:	01040200 	mrseq	r0, R12_usr
     504:	02002e06 	andeq	r2, r0, #6, 28	; 0x60
     508:	9f060104 	svcls	0x00060104
     50c:	67034b6a 	strvs	r4, [r3, -sl, ror #22]
     510:	2e21032e 	cdpcs	3, 2, cr0, cr1, cr14, {1}
     514:	01040200 	mrseq	r0, R12_usr
     518:	02002e06 	andeq	r2, r0, #6, 28	; 0x60
     51c:	9f060104 	svcls	0x00060104
     520:	01040200 	mrseq	r0, R12_usr
     524:	f323086a 	vsub.i32	q0, <illegal reg q1.5>, q13
     528:	087fa603 	ldmdaeq	pc!, {r0, r1, r9, sl, sp, pc}^	; <UNPREDICTABLE>
     52c:	02004b3c 	andeq	r4, r0, #60, 22	; 0xf000
     530:	4a060104 	bmi	180948 <__bss_end__+0x176a48>
     534:	4b210806 	blmi	842554 <__bss_end__+0x838654>
     538:	d9034b2f 	stmdble	r3, {r0, r1, r2, r3, r5, r8, r9, fp, lr}
     53c:	4c83f200 	sfmmi	f7, 1, [r3], {0}
     540:	2e0e0348 	cdpcs	3, 0, cr0, cr14, cr8, {2}
     544:	2f2e7503 	svccs	0x002e7503
     548:	2f4b842f 	svccs	0x004b842f
     54c:	30314d2d 	eorscc	r4, r1, sp, lsr #26
     550:	0200832f 	andeq	r8, r0, #-1140850688	; 0xbc000000
     554:	a22c0104 	eorge	r0, ip, #4, 2
     558:	01040200 	mrseq	r0, R12_usr
     55c:	08064a06 	stmdaeq	r6, {r1, r2, r9, fp, lr}
     560:	16360222 	ldrtne	r0, [r6], -r2, lsr #4
     564:	08d60e03 	ldmeq	r6, {r0, r1, r9, sl, fp}^
     568:	31f33021 	mvnscc	r3, r1, lsr #32
     56c:	30f330f3 	ldrshtcc	r3, [r3], #3
     570:	30f3304b 	rscscc	r3, r3, fp, asr #32
     574:	2f312308 	svccs	0x00312308
     578:	01040200 	mrseq	r0, R12_usr
     57c:	04020065 	streq	r0, [r2], #-101	; 0x65
     580:	004a0602 	subeq	r0, sl, r2, lsl #12
     584:	06010402 	streq	r0, [r1], -r2, lsl #8
     588:	00664203 	rsbeq	r4, r6, r3, lsl #4
     58c:	06020402 	streq	r0, [r2], -r2, lsl #8
     590:	c2030666 	andgt	r0, r3, #106954752	; 0x6600000
     594:	02684a00 	rsbeq	r4, r8, #0, 20
     598:	01010012 	tsteq	r1, r2, lsl r0
     59c:	00000093 	muleq	r0, r3, r0
     5a0:	007d0002 	rsbseq	r0, sp, r2
     5a4:	01020000 	mrseq	r0, (UNDEF: 2)
     5a8:	000d0efb 	strdeq	r0, [sp], -fp
     5ac:	01010101 	tsteq	r1, r1, lsl #2
     5b0:	01000000 	mrseq	r0, (UNDEF: 0)
     5b4:	63010000 	movwvs	r0, #4096	; 0x1000
     5b8:	30343173 	eorscc	r3, r4, r3, ror r1
     5bc:	72732d65 	rsbsvc	r2, r3, #6464	; 0x1940
     5c0:	552f0063 	strpl	r0, [pc, #-99]!	; 565 <_start-0x7a9b>
     5c4:	73726573 	cmnvc	r2, #482344960	; 0x1cc00000
     5c8:	6972622f 	ldmdbvs	r2!, {r0, r1, r2, r3, r5, r9, sp, lr}^
     5cc:	756a6e61 	strbvc	r6, [sl, #-3681]!	; 0xe61
     5d0:	65442f6e 	strbvs	r2, [r4, #-3950]	; 0xf6e
     5d4:	6f746b73 	svcvs	0x00746b73
     5d8:	63732f70 	cmnvs	r3, #112, 30	; 0x1c0
     5dc:	6c6f6f68 	stclvs	15, cr6, [pc], #-416	; 444 <_start-0x7bbc>
     5e0:	6e69572f 	cdpvs	7, 6, cr5, cr9, cr15, {1}
     5e4:	31726574 	cmncc	r2, r4, ror r5
     5e8:	2f303239 	svccs	0x00303239
     5ec:	34315343 	ldrtcc	r5, [r1], #-835	; 0x343
     5f0:	632f4530 	teqvs	pc, #48, 10	; 0xc000000
     5f4:	30343173 	eorscc	r3, r4, r3, ror r1
     5f8:	30322d65 	eorscc	r2, r2, r5, ror #26
     5fc:	2f6e6977 	svccs	0x006e6977
     600:	7062696c 	rsbvc	r6, r2, ip, ror #18
     604:	63000069 	movwvs	r0, #105	; 0x69
     608:	6e61656c 	cdpvs	5, 6, cr6, cr1, cr12, {3}
     60c:	6265722d 	rsbvs	r7, r5, #-805306366	; 0xd0000002
     610:	2e746f6f 	cdpcs	15, 7, cr6, cr4, cr15, {3}
     614:	00010063 	andeq	r0, r1, r3, rrx
     618:	69707200 	ldmdbvs	r0!, {r9, ip, sp, lr}^
     61c:	0200682e 	andeq	r6, r0, #3014656	; 0x2e0000
     620:	00000000 	andeq	r0, r0, r0
     624:	873c0205 	ldrhi	r0, [ip, -r5, lsl #4]!
     628:	2f150000 	svccs	0x00150000
     62c:	06024b83 	streq	r4, [r2], -r3, lsl #23
     630:	21010100 	mrscs	r0, (UNDEF: 17)
     634:	02000001 	andeq	r0, r0, #1
     638:	0000f800 	andeq	pc, r0, r0, lsl #16
     63c:	fb010200 	blx	40e46 <__bss_end__+0x36f46>
     640:	01000d0e 	tsteq	r0, lr, lsl #26
     644:	00010101 	andeq	r0, r1, r1, lsl #2
     648:	00010000 	andeq	r0, r1, r0
     64c:	73630100 	cmnvc	r3, #0, 2
     650:	65303431 	ldrvs	r3, [r0, #-1073]!	; 0x431
     654:	6372732d 	cmnvs	r2, #-1275068416	; 0xb4000000
     658:	73752f00 	cmnvc	r5, #0, 30
     65c:	6f6c2f72 	svcvs	0x006c2f72
     660:	2f6c6163 	svccs	0x006c6163
     664:	6c6c6543 	cfstr64vs	mvdx6, [ip], #-268	; 0xfffffef4
     668:	612f7261 	teqvs	pc, r1, ror #4
     66c:	6e2d6d72 	mcrvs	13, 1, r6, cr13, cr2, {3}
     670:	2d656e6f 	stclcs	14, cr6, [r5, #-444]!	; 0xfffffe44
     674:	69626165 	stmdbvs	r2!, {r0, r2, r5, r6, r8, sp, lr}^
     678:	382e342f 	stmdacc	lr!, {r0, r1, r2, r3, r5, sl, ip, sp}
     67c:	632d332e 	teqvs	sp, #-1207959552	; 0xb8000000
     680:	30373173 	eorscc	r3, r7, r3, ror r1
     684:	696c2f65 	stmdbvs	ip!, {r0, r2, r5, r6, r8, r9, sl, fp, sp}^
     688:	63672f62 	cmnvs	r7, #392	; 0x188
     68c:	72612f63 	rsbvc	r2, r1, #396	; 0x18c
     690:	6f6e2d6d 	svcvs	0x006e2d6d
     694:	652d656e 	strvs	r6, [sp, #-1390]!	; 0x56e
     698:	2f696261 	svccs	0x00696261
     69c:	2e382e34 	mrccs	14, 1, r2, cr8, cr4, {1}
     6a0:	6e692f33 	mcrvs	15, 3, r2, cr9, cr3, {1}
     6a4:	64756c63 	ldrbtvs	r6, [r5], #-3171	; 0xc63
     6a8:	552f0065 	strpl	r0, [pc, #-101]!	; 64b <_start-0x79b5>
     6ac:	73726573 	cmnvc	r2, #482344960	; 0x1cc00000
     6b0:	6972622f 	ldmdbvs	r2!, {r0, r1, r2, r3, r5, r9, sp, lr}^
     6b4:	756a6e61 	strbvc	r6, [sl, #-3681]!	; 0xe61
     6b8:	65442f6e 	strbvs	r2, [r4, #-3950]	; 0xf6e
     6bc:	6f746b73 	svcvs	0x00746b73
     6c0:	63732f70 	cmnvs	r3, #112, 30	; 0x1c0
     6c4:	6c6f6f68 	stclvs	15, cr6, [pc], #-416	; 52c <_start-0x7ad4>
     6c8:	6e69572f 	cdpvs	7, 6, cr5, cr9, cr15, {1}
     6cc:	31726574 	cmncc	r2, r4, ror r5
     6d0:	2f303239 	svccs	0x00303239
     6d4:	34315343 	ldrtcc	r5, [r1], #-835	; 0x343
     6d8:	632f4530 	teqvs	pc, #48, 10	; 0xc000000
     6dc:	30343173 	eorscc	r3, r4, r3, ror r1
     6e0:	30322d65 	eorscc	r2, r2, r5, ror #26
     6e4:	2f6e6977 	svccs	0x006e6977
     6e8:	7062696c 	rsbvc	r6, r2, ip, ror #18
     6ec:	63000069 	movwvs	r0, #105	; 0x69
     6f0:	72617473 	rsbvc	r7, r1, #1929379840	; 0x73000000
     6f4:	00632e74 	rsbeq	r2, r3, r4, ror lr
     6f8:	73000001 	movwvc	r0, #1
     6fc:	6e696474 	mcrvs	4, 3, r6, cr9, cr4, {3}
     700:	63672d74 	cmnvs	r7, #116, 26	; 0x1d00
     704:	00682e63 	rsbeq	r2, r8, r3, ror #28
     708:	73000002 	movwvc	r0, #2
     70c:	61752d77 	cmnvs	r5, r7, ror sp
     710:	682e7472 	stmdavs	lr!, {r1, r4, r5, r6, sl, ip, sp, lr}
     714:	00000100 	andeq	r0, r0, r0, lsl #2
     718:	746e6f63 	strbtvc	r6, [lr], #-3939	; 0xf63
     71c:	2d6c6f72 	stclcs	15, cr6, [ip, #-456]!	; 0xfffffe38
     720:	636f6c62 	cmnvs	pc, #25088	; 0x6200
     724:	00682e6b 	rsbeq	r2, r8, fp, ror #28
     728:	72000001 	andvc	r0, r0, #1
     72c:	682e6970 	stmdavs	lr!, {r4, r5, r6, r8, fp, sp, lr}
     730:	00000300 	andeq	r0, r0, r0, lsl #6
     734:	02050000 	andeq	r0, r5, #0
     738:	00008764 	andeq	r8, r0, r4, ror #14
     73c:	68684b17 	stmdavs	r8!, {r0, r1, r2, r4, r8, r9, fp, lr}^
     740:	2d2f3132 	stfcss	f3, [pc, #-200]!	; 680 <_start-0x7980>
     744:	0402002f 	streq	r0, [r2], #-47	; 0x2f
     748:	2f4f4901 	svccs	0x004f4901
     74c:	8367674b 	cmnhi	r7, #19660800	; 0x12c0000
     750:	022f4e67 	eoreq	r4, pc, #1648	; 0x670
     754:	01010010 	tsteq	r1, r0, lsl r0
     758:	00000099 	muleq	r0, r9, r0
     75c:	00770002 	rsbseq	r0, r7, r2
     760:	01020000 	mrseq	r0, (UNDEF: 2)
     764:	000d0efb 	strdeq	r0, [sp], -fp
     768:	01010101 	tsteq	r1, r1, lsl #2
     76c:	01000000 	mrseq	r0, (UNDEF: 0)
     770:	63010000 	movwvs	r0, #4096	; 0x1000
     774:	30343173 	eorscc	r3, r4, r3, ror r1
     778:	72732d65 	rsbsvc	r2, r3, #6464	; 0x1940
     77c:	552f0063 	strpl	r0, [pc, #-99]!	; 721 <_start-0x78df>
     780:	73726573 	cmnvc	r2, #482344960	; 0x1cc00000
     784:	6972622f 	ldmdbvs	r2!, {r0, r1, r2, r3, r5, r9, sp, lr}^
     788:	756a6e61 	strbvc	r6, [sl, #-3681]!	; 0xe61
     78c:	65442f6e 	strbvs	r2, [r4, #-3950]	; 0xf6e
     790:	6f746b73 	svcvs	0x00746b73
     794:	63732f70 	cmnvs	r3, #112, 30	; 0x1c0
     798:	6c6f6f68 	stclvs	15, cr6, [pc], #-416	; 600 <_start-0x7a00>
     79c:	6e69572f 	cdpvs	7, 6, cr5, cr9, cr15, {1}
     7a0:	31726574 	cmncc	r2, r4, ror r5
     7a4:	2f303239 	svccs	0x00303239
     7a8:	34315343 	ldrtcc	r5, [r1], #-835	; 0x343
     7ac:	632f4530 	teqvs	pc, #48, 10	; 0xc000000
     7b0:	30343173 	eorscc	r3, r4, r3, ror r1
     7b4:	30322d65 	eorscc	r2, r2, r5, ror #26
     7b8:	2f6e6977 	svccs	0x006e6977
     7bc:	7062696c 	rsbvc	r6, r2, ip, ror #18
     7c0:	72000069 	andvc	r0, r0, #105	; 0x69
     7c4:	6f6f6265 	svcvs	0x006f6265
     7c8:	00632e74 	rsbeq	r2, r3, r4, ror lr
     7cc:	72000001 	andvc	r0, r0, #1
     7d0:	682e6970 	stmdavs	lr!, {r4, r5, r6, r8, fp, sp, lr}
     7d4:	00000200 	andeq	r0, r0, r0, lsl #4
     7d8:	02050000 	andeq	r0, r5, #0
     7dc:	00008814 	andeq	r8, r0, r4, lsl r8
     7e0:	14010d03 	strne	r0, [r1], #-3331	; 0xd03
     7e4:	15852f31 	strne	r2, [r5, #3889]	; 0xf31
     7e8:	2f4d4b2f 	svccs	0x004d4b2f
     7ec:	67523567 	ldrbvs	r3, [r2, -r7, ror #10]
     7f0:	01001002 	tsteq	r0, r2
     7f4:	0000a301 	andeq	sl, r0, r1, lsl #6
     7f8:	76000200 	strvc	r0, [r0], -r0, lsl #4
     7fc:	02000000 	andeq	r0, r0, #0
     800:	0d0efb01 	vstreq	d15, [lr, #-4]
     804:	01010100 	mrseq	r0, (UNDEF: 17)
     808:	00000001 	andeq	r0, r0, r1
     80c:	01000001 	tsteq	r0, r1
     810:	34317363 	ldrtcc	r7, [r1], #-867	; 0x363
     814:	732d6530 	teqvc	sp, #48, 10	; 0xc000000
     818:	2f006372 	svccs	0x00006372
     81c:	72657355 	rsbvc	r7, r5, #1409286145	; 0x54000001
     820:	72622f73 	rsbvc	r2, r2, #460	; 0x1cc
     824:	6a6e6169 	bvs	1b98dd0 <__bss_end__+0x1b8eed0>
     828:	442f6e75 	strtmi	r6, [pc], #-3701	; 830 <_start-0x77d0>
     82c:	746b7365 	strbtvc	r7, [fp], #-869	; 0x365
     830:	732f706f 	teqvc	pc, #111	; 0x6f
     834:	6f6f6863 	svcvs	0x006f6863
     838:	69572f6c 	ldmdbvs	r7, {r2, r3, r5, r6, r8, r9, sl, fp, sp}^
     83c:	7265746e 	rsbvc	r7, r5, #1845493760	; 0x6e000000
     840:	30323931 	eorscc	r3, r2, r1, lsr r9
     844:	3153432f 	cmpcc	r3, pc, lsr #6
     848:	2f453034 	svccs	0x00453034
     84c:	34317363 	ldrtcc	r7, [r1], #-867	; 0x363
     850:	322d6530 	eorcc	r6, sp, #48, 10	; 0xc000000
     854:	6e697730 	mcrvs	7, 3, r7, cr9, cr0, {1}
     858:	62696c2f 	rsbvs	r6, r9, #12032	; 0x2f00
     85c:	00006970 	andeq	r6, r0, r0, ror r9
     860:	656d6974 	strbvs	r6, [sp, #-2420]!	; 0x974
     864:	00632e72 	rsbeq	r2, r3, r2, ror lr
     868:	72000001 	andvc	r0, r0, #1
     86c:	682e6970 	stmdavs	lr!, {r4, r5, r6, r8, fp, sp, lr}
     870:	00000200 	andeq	r0, r0, r0, lsl #4
     874:	02050000 	andeq	r0, r5, #0
     878:	00008888 	andeq	r8, r0, r8, lsl #17
     87c:	2d2f1316 	stccs	3, cr1, [pc, #-88]!	; 82c <_start-0x77d4>
     880:	01040200 	mrseq	r0, R12_usr
     884:	68062e06 	stmdavs	r6, {r1, r2, r9, sl, fp, sp}
     888:	4d4b2f31 	stclmi	15, cr2, [fp, #-196]	; 0xffffff3c
     88c:	4b303132 	blmi	c0cd5c <__bss_end__+0xc02e5c>
     890:	2f6a2f4c 	svccs	0x006a2f4c
     894:	022f842f 	eoreq	r8, pc, #788529152	; 0x2f000000
     898:	01010008 	tsteq	r1, r8
     89c:	0000017f 	andeq	r0, r0, pc, ror r1
     8a0:	00ca0002 	sbceq	r0, sl, r2
     8a4:	01020000 	mrseq	r0, (UNDEF: 2)
     8a8:	000d0efb 	strdeq	r0, [sp], -fp
     8ac:	01010101 	tsteq	r1, r1, lsl #2
     8b0:	01000000 	mrseq	r0, (UNDEF: 0)
     8b4:	6d010000 	stcvs	0, cr0, [r1, #-0]
     8b8:	72732d79 	rsbsvc	r2, r3, #7744	; 0x1e40
     8bc:	552f0063 	strpl	r0, [pc, #-99]!	; 861 <_start-0x779f>
     8c0:	73726573 	cmnvc	r2, #482344960	; 0x1cc00000
     8c4:	6972622f 	ldmdbvs	r2!, {r0, r1, r2, r3, r5, r9, sp, lr}^
     8c8:	756a6e61 	strbvc	r6, [sl, #-3681]!	; 0xe61
     8cc:	65442f6e 	strbvs	r2, [r4, #-3950]	; 0xf6e
     8d0:	6f746b73 	svcvs	0x00746b73
     8d4:	63732f70 	cmnvs	r3, #112, 30	; 0x1c0
     8d8:	6c6f6f68 	stclvs	15, cr6, [pc], #-416	; 740 <_start-0x78c0>
     8dc:	6e69572f 	cdpvs	7, 6, cr5, cr9, cr15, {1}
     8e0:	31726574 	cmncc	r2, r4, ror r5
     8e4:	2f303239 	svccs	0x00303239
     8e8:	34315343 	ldrtcc	r5, [r1], #-835	; 0x343
     8ec:	632f4530 	teqvs	pc, #48, 10	; 0xc000000
     8f0:	30343173 	eorscc	r3, r4, r3, ror r1
     8f4:	30322d65 	eorscc	r2, r2, r5, ror #26
     8f8:	2f6e6977 	svccs	0x006e6977
     8fc:	7062696c 	rsbvc	r6, r2, ip, ror #18
     900:	73632f69 	cmnvc	r3, #420	; 0x1a4
     904:	65303431 	ldrvs	r3, [r0, #-1073]!	; 0x431
     908:	6372732d 	cmnvs	r2, #-1275068416	; 0xb4000000
     90c:	73552f00 	cmpvc	r5, #0, 30
     910:	2f737265 	svccs	0x00737265
     914:	61697262 	cmnvs	r9, r2, ror #4
     918:	6e756a6e 	vsubvs.f32	s13, s10, s29
     91c:	7365442f 	cmnvc	r5, #788529152	; 0x2f000000
     920:	706f746b 	rsbvc	r7, pc, fp, ror #8
     924:	6863732f 	stmdavs	r3!, {r0, r1, r2, r3, r5, r8, r9, ip, sp, lr}^
     928:	2f6c6f6f 	svccs	0x006c6f6f
     92c:	746e6957 	strbtvc	r6, [lr], #-2391	; 0x957
     930:	39317265 	ldmdbcc	r1!, {r0, r2, r5, r6, r9, ip, sp, lr}
     934:	432f3032 	teqmi	pc, #50	; 0x32
     938:	30343153 	eorscc	r3, r4, r3, asr r1
     93c:	73632f45 	cmnvc	r3, #276	; 0x114
     940:	65303431 	ldrvs	r3, [r0, #-1073]!	; 0x431
     944:	7730322d 	ldrvc	r3, [r0, -sp, lsr #4]!
     948:	6c2f6e69 	stcvs	14, cr6, [pc], #-420	; 7ac <_start-0x7854>
     94c:	69706269 	ldmdbvs	r0!, {r0, r3, r5, r6, r9, sp, lr}^
     950:	70670000 	rsbvc	r0, r7, r0
     954:	632e6f69 	teqvs	lr, #420	; 0x1a4
     958:	00000100 	andeq	r0, r0, r0, lsl #2
     95c:	6f697067 	svcvs	0x00697067
     960:	0200682e 	andeq	r6, r0, #3014656	; 0x2e0000
     964:	70720000 	rsbsvc	r0, r2, r0
     968:	00682e69 	rsbeq	r2, r8, r9, ror #28
     96c:	00000003 	andeq	r0, r0, r3
     970:	10020500 	andne	r0, r2, r0, lsl #10
     974:	03000089 	movweq	r0, #137	; 0x89
     978:	504e013e 	subpl	r0, lr, lr, lsr r1
     97c:	67210869 	strvs	r0, [r1, -r9, ror #16]!
     980:	67676767 	strbvs	r6, [r7, -r7, ror #14]!
     984:	084b3267 	stmdaeq	fp, {r0, r1, r2, r5, r6, r9, ip, sp}^
     988:	5131dc22 	teqpl	r1, r2, lsr #24
     98c:	30504e13 	subscc	r4, r0, r3, lsl lr
     990:	135031be 	cmpne	r0, #-2147483601	; 0x8000002f
     994:	c0304f4d 	eorsgt	r4, r0, sp, asr #30
     998:	0869504c 	stmdaeq	r9!, {r2, r3, r6, ip, lr}^
     99c:	67676721 	strbvs	r6, [r7, -r1, lsr #14]!
     9a0:	32676767 	rsbcc	r6, r7, #27000832	; 0x19c0000
     9a4:	a421084b 	strtge	r0, [r1], #-2123	; 0x84b
     9a8:	842f504c 	strthi	r5, [pc], #-76	; 9b0 <_start-0x7650>
     9ac:	82750369 	rsbshi	r0, r5, #-1543503871	; 0xa4000001
     9b0:	4d2e0c03 	stcmi	12, cr0, [lr, #-12]!
     9b4:	4c4b4e30 	mcrrmi	14, 3, r4, fp, cr0
     9b8:	696b6a4d 	stmdbvs	fp!, {r0, r2, r3, r6, r9, fp, sp, lr}^
     9bc:	67672108 	strbvs	r2, [r7, -r8, lsl #2]!
     9c0:	67676767 	strbvs	r6, [r7, -r7, ror #14]!
     9c4:	22084b32 	andcs	r4, r8, #51200	; 0xc800
     9c8:	135130c0 	cmpne	r1, #192	; 0xc0
     9cc:	0330504e 	teqeq	r0, #78	; 0x4e
     9d0:	9f31ba18 	svcls	0x0031ba18
     9d4:	4d522f4c 	ldclmi	15, cr2, [r2, #-304]	; 0xfffffed0
     9d8:	674b2f4e 	strbvs	r2, [fp, -lr, asr #30]
     9dc:	6767684b 	strbvs	r6, [r7, -fp, asr #16]!
     9e0:	2f672f4c 	svccs	0x00672f4c
     9e4:	4e4c6e4b 	cdpmi	14, 4, cr6, cr12, cr11, {2}
     9e8:	4b674b2f 	blmi	19d36ac <__bss_end__+0x19c97ac>
     9ec:	4c676768 	stclmi	7, cr6, [r7], #-416	; 0xfffffe60
     9f0:	4b2f672f 	blmi	bda6b4 <__bss_end__+0xbd07b4>
     9f4:	2f4e4b6d 	svccs	0x004e4b6d
     9f8:	0200674b 	andeq	r6, r0, #19660800	; 0x12c0000
     9fc:	66060104 	strvs	r0, [r6], -r4, lsl #2
     a00:	2f9f6806 	svccs	0x009f6806
     a04:	01040200 	mrseq	r0, R12_usr
     a08:	68064a06 	stmdavs	r6, {r1, r2, r9, fp, lr}
     a0c:	4a73032f 	bmi	1cc16d0 <__bss_end__+0x1cb77d0>
     a10:	4d2e0e03 	stcmi	14, cr0, [lr, #-12]!
     a14:	4b2f4e4c 	blmi	bd434c <__bss_end__+0xbca44c>
     a18:	0602bcbc 			; <UNDEFINED> instruction: 0x0602bcbc
     a1c:	49010100 	stmdbmi	r1, {r8}
     a20:	02000003 	andeq	r0, r0, #3
     a24:	0001bd00 	andeq	fp, r1, r0, lsl #26
     a28:	fb010200 	blx	41232 <__bss_end__+0x37332>
     a2c:	01000d0e 	tsteq	r0, lr, lsl #26
     a30:	00010101 	andeq	r0, r1, r1, lsl #2
     a34:	00010000 	andeq	r0, r1, r0
     a38:	796d0100 	stmdbvc	sp!, {r8}^
     a3c:	6372732d 	cmnvs	r2, #-1275068416	; 0xb4000000
     a40:	73552f00 	cmpvc	r5, #0, 30
     a44:	2f737265 	svccs	0x00737265
     a48:	61697262 	cmnvs	r9, r2, ror #4
     a4c:	6e756a6e 	vsubvs.f32	s13, s10, s29
     a50:	7365442f 	cmnvc	r5, #788529152	; 0x2f000000
     a54:	706f746b 	rsbvc	r7, pc, fp, ror #8
     a58:	6863732f 	stmdavs	r3!, {r0, r1, r2, r3, r5, r8, r9, ip, sp, lr}^
     a5c:	2f6c6f6f 	svccs	0x006c6f6f
     a60:	746e6957 	strbtvc	r6, [lr], #-2391	; 0x957
     a64:	39317265 	ldmdbcc	r1!, {r0, r2, r5, r6, r9, ip, sp, lr}
     a68:	432f3032 	teqmi	pc, #50	; 0x32
     a6c:	30343153 	eorscc	r3, r4, r3, asr r1
     a70:	73632f45 	cmnvc	r3, #276	; 0x114
     a74:	65303431 	ldrvs	r3, [r0, #-1073]!	; 0x431
     a78:	7730322d 	ldrvc	r3, [r0, -sp, lsr #4]!
     a7c:	6c2f6e69 	stcvs	14, cr6, [pc], #-420	; 8e0 <_start-0x7720>
     a80:	69706269 	ldmdbvs	r0!, {r0, r3, r5, r6, r9, sp, lr}^
     a84:	3173632f 	cmncc	r3, pc, lsr #6
     a88:	2d653034 	stclcs	0, cr3, [r5, #-208]!	; 0xffffff30
     a8c:	00637273 	rsbeq	r7, r3, r3, ror r2
     a90:	7273752f 	rsbsvc	r7, r3, #197132288	; 0xbc00000
     a94:	636f6c2f 	cmnvs	pc, #12032	; 0x2f00
     a98:	432f6c61 	teqmi	pc, #24832	; 0x6100
     a9c:	616c6c65 	cmnvs	ip, r5, ror #24
     aa0:	72612f72 	rsbvc	r2, r1, #456	; 0x1c8
     aa4:	6f6e2d6d 	svcvs	0x006e2d6d
     aa8:	652d656e 	strvs	r6, [sp, #-1390]!	; 0x56e
     aac:	2f696261 	svccs	0x00696261
     ab0:	2e382e34 	mrccs	14, 1, r2, cr8, cr4, {1}
     ab4:	73632d33 	cmnvc	r3, #3264	; 0xcc0
     ab8:	65303731 	ldrvs	r3, [r0, #-1841]!	; 0x731
     abc:	62696c2f 	rsbvs	r6, r9, #12032	; 0x2f00
     ac0:	6363672f 	cmnvs	r3, #12320768	; 0xbc0000
     ac4:	6d72612f 	ldfvse	f6, [r2, #-188]!	; 0xffffff44
     ac8:	6e6f6e2d 	cdpvs	14, 6, cr6, cr15, cr13, {1}
     acc:	61652d65 	cmnvs	r5, r5, ror #26
     ad0:	342f6962 	strtcc	r6, [pc], #-2402	; ad8 <_start-0x7528>
     ad4:	332e382e 	teqcc	lr, #3014656	; 0x2e0000
     ad8:	636e692f 	cmnvs	lr, #770048	; 0xbc000
     adc:	6564756c 	strbvs	r7, [r4, #-1388]!	; 0x56c
     ae0:	73552f00 	cmpvc	r5, #0, 30
     ae4:	2f737265 	svccs	0x00737265
     ae8:	61697262 	cmnvs	r9, r2, ror #4
     aec:	6e756a6e 	vsubvs.f32	s13, s10, s29
     af0:	7365442f 	cmnvc	r5, #788529152	; 0x2f000000
     af4:	706f746b 	rsbvc	r7, pc, fp, ror #8
     af8:	6863732f 	stmdavs	r3!, {r0, r1, r2, r3, r5, r8, r9, ip, sp, lr}^
     afc:	2f6c6f6f 	svccs	0x006c6f6f
     b00:	746e6957 	strbtvc	r6, [lr], #-2391	; 0x957
     b04:	39317265 	ldmdbcc	r1!, {r0, r2, r5, r6, r9, ip, sp, lr}
     b08:	432f3032 	teqmi	pc, #50	; 0x32
     b0c:	30343153 	eorscc	r3, r4, r3, asr r1
     b10:	73632f45 	cmnvc	r3, #276	; 0x114
     b14:	65303431 	ldrvs	r3, [r0, #-1073]!	; 0x431
     b18:	7730322d 	ldrvc	r3, [r0, -sp, lsr #4]!
     b1c:	6c2f6e69 	stcvs	14, cr6, [pc], #-420	; 980 <_start-0x7680>
     b20:	69706269 	ldmdbvs	r0!, {r0, r3, r5, r6, r9, sp, lr}^
     b24:	73552f00 	cmpvc	r5, #0, 30
     b28:	2f737265 	svccs	0x00737265
     b2c:	61697262 	cmnvs	r9, r2, ror #4
     b30:	6e756a6e 	vsubvs.f32	s13, s10, s29
     b34:	7365442f 	cmnvc	r5, #788529152	; 0x2f000000
     b38:	706f746b 	rsbvc	r7, pc, fp, ror #8
     b3c:	6863732f 	stmdavs	r3!, {r0, r1, r2, r3, r5, r8, r9, ip, sp, lr}^
     b40:	2f6c6f6f 	svccs	0x006c6f6f
     b44:	746e6957 	strbtvc	r6, [lr], #-2391	; 0x957
     b48:	39317265 	ldmdbcc	r1!, {r0, r2, r5, r6, r9, ip, sp, lr}
     b4c:	432f3032 	teqmi	pc, #50	; 0x32
     b50:	30343153 	eorscc	r3, r4, r3, asr r1
     b54:	73632f45 	cmnvc	r3, #276	; 0x114
     b58:	65303431 	ldrvs	r3, [r0, #-1073]!	; 0x431
     b5c:	7730322d 	ldrvc	r3, [r0, -sp, lsr #4]!
     b60:	6c2f6e69 	stcvs	14, cr6, [pc], #-420	; 9c4 <_start-0x763c>
     b64:	69706269 	ldmdbvs	r0!, {r0, r3, r5, r6, r9, sp, lr}^
     b68:	62696c2f 	rsbvs	r6, r9, #12032	; 0x2f00
     b6c:	73000063 	movwvc	r0, #99	; 0x63
     b70:	61752d77 	cmnvs	r5, r7, ror sp
     b74:	632e7472 	teqvs	lr, #1912602624	; 0x72000000
     b78:	00000100 	andeq	r0, r0, r0, lsl #2
     b7c:	6c637963 	stclvs	9, cr7, [r3], #-396	; 0xfffffe74
     b80:	74752d65 	ldrbtvc	r2, [r5], #-3429	; 0xd65
     b84:	682e6c69 	stmdavs	lr!, {r0, r3, r5, r6, sl, fp, sp, lr}
     b88:	00000200 	andeq	r0, r0, r0, lsl #4
     b8c:	69647473 	stmdbvs	r4!, {r0, r1, r4, r5, r6, sl, ip, sp, lr}^
     b90:	672d746e 	strvs	r7, [sp, -lr, ror #8]!
     b94:	682e6363 	stmdavs	lr!, {r0, r1, r5, r6, r8, r9, sp, lr}
     b98:	00000300 	andeq	r0, r0, r0, lsl #6
     b9c:	752d7773 	strvc	r7, [sp, #-1907]!	; 0x773
     ba0:	2e747261 	cdpcs	2, 7, cr7, cr4, cr1, {3}
     ba4:	00020068 	andeq	r0, r2, r8, rrx
     ba8:	64747300 	ldrbtvs	r7, [r4], #-768	; 0x300
     bac:	2e677261 	cdpcs	2, 6, cr7, cr7, cr1, {3}
     bb0:	00030068 	andeq	r0, r3, r8, rrx
     bb4:	69706700 	ldmdbvs	r0!, {r8, r9, sl, sp, lr}^
     bb8:	00682e6f 	rsbeq	r2, r8, pc, ror #28
     bbc:	72000002 	andvc	r0, r0, #2
     bc0:	682e6970 	stmdavs	lr!, {r4, r5, r6, r8, fp, sp, lr}
     bc4:	00000400 	andeq	r0, r0, r0, lsl #8
     bc8:	702d6176 	eorvc	r6, sp, r6, ror r1
     bcc:	746e6972 	strbtvc	r6, [lr], #-2418	; 0x972
     bd0:	00682e6b 	rsbeq	r2, r8, fp, ror #28
     bd4:	3c000005 	stccc	0, cr0, [r0], {5}
     bd8:	6c697562 	cfstr64vs	mvdx7, [r9], #-392	; 0xfffffe78
     bdc:	6e692d74 	mcrvs	13, 3, r2, cr9, cr4, {3}
     be0:	0000003e 	andeq	r0, r0, lr, lsr r0
     be4:	05000000 	streq	r0, [r0, #-0]
     be8:	008eb002 	addeq	fp, lr, r2
     bec:	2f4c1a00 	svccs	0x004c1a00
     bf0:	03020430 	movweq	r0, #9264	; 0x2430
     bf4:	73032e0b 	movwvc	r2, #15883	; 0x3e0b
     bf8:	88010466 	stmdahi	r1, {r1, r2, r5, r6, sl}
     bfc:	03350204 	teqeq	r5, #4, 4	; 0x40000000
     c00:	01046673 	tsteq	r4, r3, ror r6
     c04:	3302048a 	movwcc	r0, #9354	; 0x248a
     c08:	04667303 	strbteq	r7, [r6], #-771	; 0x303
     c0c:	820a0301 	andhi	r0, sl, #67108864	; 0x4000000
     c10:	03310204 	teqeq	r1, #4, 4	; 0x40000000
     c14:	01046673 	tsteq	r4, r3, ror r6
     c18:	04820c03 	streq	r0, [r2], #3075	; 0xc03
     c1c:	73032f02 	movwvc	r2, #16130	; 0x3f02
     c20:	03010466 	movweq	r0, #5222	; 0x1466
     c24:	0204820e 	andeq	r8, r4, #-536870912	; 0xe0000000
     c28:	6673032d 	ldrbtvs	r0, [r3], -sp, lsr #6
     c2c:	10030104 	andne	r0, r3, r4, lsl #2
     c30:	2b020482 	blcs	81e40 <__bss_end__+0x77f40>
     c34:	04667303 	strbteq	r7, [r6], #-771	; 0x303
     c38:	82120301 	andshi	r0, r2, #67108864	; 0x4000000
     c3c:	03290204 	teqeq	r9, #4, 4	; 0x40000000
     c40:	01046673 	tsteq	r4, r3, ror r6
     c44:	04821403 	streq	r1, [r2], #1027	; 0x403
     c48:	2e790302 	cdpcs	3, 7, cr0, cr9, cr2, {0}
     c4c:	04667303 	strbteq	r7, [r6], #-771	; 0x303
     c50:	82160301 	andshi	r0, r6, #67108864	; 0x4000000
     c54:	77030204 	strvc	r0, [r3, -r4, lsl #4]
     c58:	6673032e 	ldrbtvs	r0, [r3], -lr, lsr #6
     c5c:	18030104 	stmdane	r3, {r2, r8}
     c60:	2e100382 	cdpcs	3, 1, cr0, cr0, cr2, {4}
     c64:	70034d4b 	andvc	r4, r3, fp, asr #26
     c68:	83844c2e 	orrhi	r4, r4, #11776	; 0x2e00
     c6c:	2e0d0348 	cdpcs	3, 0, cr0, cr13, cr8, {2}
     c70:	0433314e 	ldrteq	r3, [r3], #-334	; 0x14e
     c74:	2e480302 	cdpcs	3, 4, cr0, cr8, cr2, {0}
     c78:	3a030104 	bcc	c1090 <__bss_end__+0xb7190>
     c7c:	02042f82 	andeq	r2, r4, #520	; 0x208
     c80:	04664503 	strbteq	r4, [r6], #-1283	; 0x503
     c84:	823d0301 	eorshi	r0, sp, #67108864	; 0x4000000
     c88:	0302042f 	movweq	r0, #9263	; 0x242f
     c8c:	01048242 	tsteq	r4, r2, asr #4
     c90:	8200c003 	andhi	ip, r0, #3
     c94:	0302042f 	movweq	r0, #9263	; 0x242f
     c98:	04827fbf 	streq	r7, [r2], #4031	; 0xfbf
     c9c:	00c30301 	sbceq	r0, r3, r1, lsl #6
     ca0:	02042f82 	andeq	r2, r4, #520	; 0x208
     ca4:	827fbc03 	rsbshi	fp, pc, #768	; 0x300
     ca8:	c6030104 	strgt	r0, [r3], -r4, lsl #2
     cac:	042f8200 	strteq	r8, [pc], #-512	; cb4 <_start-0x734c>
     cb0:	7fb90302 	svcvc	0x00b90302
     cb4:	03010482 	movweq	r0, #5250	; 0x1482
     cb8:	2f8200c9 	svccs	0x008200c9
     cbc:	b6030204 	strlt	r0, [r3], -r4, lsl #4
     cc0:	0104827f 	tsteq	r4, pc, ror r2
     cc4:	8200cc03 	andhi	ip, r0, #768	; 0x300
     cc8:	0302042f 	movweq	r0, #9263	; 0x242f
     ccc:	04827fb3 	streq	r7, [r2], #4019	; 0xfb3
     cd0:	00d00301 	sbcseq	r0, r0, r1, lsl #6
     cd4:	824c0382 	subhi	r0, ip, #134217730	; 0x8000002
     cd8:	4883844c 	stmmi	r3, {r2, r3, r6, sl, pc}
     cdc:	4e2e3603 	cfmadda32mi	mvax0, mvax3, mvfx14, mvfx3
     ce0:	034a5403 	movteq	r5, #41987	; 0xa403
     ce4:	34324a29 	ldrtcc	r4, [r2], #-2601	; 0xa29
     ce8:	040200bb 	streq	r0, [r2], #-187	; 0xbb
     cec:	064a0601 	strbeq	r0, [sl], -r1, lsl #12
     cf0:	4b4e2108 	blmi	1389118 <__bss_end__+0x137f218>
     cf4:	02002cbb 	andeq	r2, r0, #47872	; 0xbb00
     cf8:	2e060104 	adfcss	f0, f6, f4
     cfc:	dc4c6d06 	mcrrle	13, 0, r6, ip, cr6
     d00:	040200a0 	streq	r0, [r2], #-160	; 0xa0
     d04:	064a0601 	strbeq	r0, [sl], -r1, lsl #12
     d08:	004d2108 	subeq	r2, sp, r8, lsl #2
     d0c:	4b020402 	blmi	81d1c <__bss_end__+0x77e1c>
     d10:	02040200 	andeq	r0, r4, #0, 4
     d14:	04020081 	streq	r0, [r2], #-129	; 0x81
     d18:	062e0601 	strteq	r0, [lr], -r1, lsl #12
     d1c:	d8dd4c4d 	ldmle	sp, {r0, r2, r3, r6, sl, fp, lr}^
     d20:	6a4b4b4b 	bvs	12d3a54 <__bss_end__+0x12c9b54>
     d24:	0402002f 	streq	r0, [r2], #-47	; 0x2f
     d28:	82820601 	addhi	r0, r2, #1048576	; 0x100000
     d2c:	04040200 	streq	r0, [r4], #-512	; 0x200
     d30:	0402009e 	streq	r0, [r2], #-158	; 0x9e
     d34:	08064a01 	stmdaeq	r6, {r0, r9, fp, lr}
     d38:	2ff58823 	svccs	0x00f58823
     d3c:	40084b4b 	andmi	r4, r8, fp, asr #22
     d40:	04020067 	streq	r0, [r2], #-103	; 0x67
     d44:	02002f02 	andeq	r2, r0, #2, 30
     d48:	00490204 	subeq	r0, r9, r4, lsl #4
     d4c:	06010402 	streq	r0, [r1], -r2, lsl #8
     d50:	3468062e 	strbtcc	r0, [r8], #-1582	; 0x62e
     d54:	00a04b86 	adceq	r4, r0, r6, lsl #23
     d58:	06010402 	streq	r0, [r1], -r2, lsl #8
     d5c:	21080666 	tstcs	r8, r6, ror #12
     d60:	4b3e0868 	blmi	f82f08 <__bss_end__+0xf79008>
     d64:	02d84b67 	sbcseq	r4, r8, #105472	; 0x19c00
     d68:	0101000a 	tsteq	r1, sl
     d6c:	00000101 	andeq	r0, r0, r1, lsl #2
     d70:	00ca0002 	sbceq	r0, sl, r2
     d74:	01020000 	mrseq	r0, (UNDEF: 2)
     d78:	000d0efb 	strdeq	r0, [sp], -fp
     d7c:	01010101 	tsteq	r1, r1, lsl #2
     d80:	01000000 	mrseq	r0, (UNDEF: 0)
     d84:	6d010000 	stcvs	0, cr0, [r1, #-0]
     d88:	72732d79 	rsbsvc	r2, r3, #7744	; 0x1e40
     d8c:	552f0063 	strpl	r0, [pc, #-99]!	; d31 <_start-0x72cf>
     d90:	73726573 	cmnvc	r2, #482344960	; 0x1cc00000
     d94:	6972622f 	ldmdbvs	r2!, {r0, r1, r2, r3, r5, r9, sp, lr}^
     d98:	756a6e61 	strbvc	r6, [sl, #-3681]!	; 0xe61
     d9c:	65442f6e 	strbvs	r2, [r4, #-3950]	; 0xf6e
     da0:	6f746b73 	svcvs	0x00746b73
     da4:	63732f70 	cmnvs	r3, #112, 30	; 0x1c0
     da8:	6c6f6f68 	stclvs	15, cr6, [pc], #-416	; c10 <_start-0x73f0>
     dac:	6e69572f 	cdpvs	7, 6, cr5, cr9, cr15, {1}
     db0:	31726574 	cmncc	r2, r4, ror r5
     db4:	2f303239 	svccs	0x00303239
     db8:	34315343 	ldrtcc	r5, [r1], #-835	; 0x343
     dbc:	632f4530 	teqvs	pc, #48, 10	; 0xc000000
     dc0:	30343173 	eorscc	r3, r4, r3, ror r1
     dc4:	30322d65 	eorscc	r2, r2, r5, ror #26
     dc8:	2f6e6977 	svccs	0x006e6977
     dcc:	7062696c 	rsbvc	r6, r2, ip, ror #18
     dd0:	73632f69 	cmnvc	r3, #420	; 0x1a4
     dd4:	65303431 	ldrvs	r3, [r0, #-1073]!	; 0x431
     dd8:	6372732d 	cmnvs	r2, #-1275068416	; 0xb4000000
     ddc:	73552f00 	cmpvc	r5, #0, 30
     de0:	2f737265 	svccs	0x00737265
     de4:	61697262 	cmnvs	r9, r2, ror #4
     de8:	6e756a6e 	vsubvs.f32	s13, s10, s29
     dec:	7365442f 	cmnvc	r5, #788529152	; 0x2f000000
     df0:	706f746b 	rsbvc	r7, pc, fp, ror #8
     df4:	6863732f 	stmdavs	r3!, {r0, r1, r2, r3, r5, r8, r9, ip, sp, lr}^
     df8:	2f6c6f6f 	svccs	0x006c6f6f
     dfc:	746e6957 	strbtvc	r6, [lr], #-2391	; 0x957
     e00:	39317265 	ldmdbcc	r1!, {r0, r2, r5, r6, r9, ip, sp, lr}
     e04:	432f3032 	teqmi	pc, #50	; 0x32
     e08:	30343153 	eorscc	r3, r4, r3, asr r1
     e0c:	73632f45 	cmnvc	r3, #276	; 0x114
     e10:	65303431 	ldrvs	r3, [r0, #-1073]!	; 0x431
     e14:	7730322d 	ldrvc	r3, [r0, -sp, lsr #4]!
     e18:	6c2f6e69 	stcvs	14, cr6, [pc], #-420	; c7c <_start-0x7384>
     e1c:	69706269 	ldmdbvs	r0!, {r0, r3, r5, r6, r9, sp, lr}^
     e20:	61750000 	cmnvs	r5, r0
     e24:	632e7472 	teqvs	lr, #1912602624	; 0x72000000
     e28:	00000100 	andeq	r0, r0, r0, lsl #2
     e2c:	6f697067 	svcvs	0x00697067
     e30:	0200682e 	andeq	r6, r0, #3014656	; 0x2e0000
     e34:	70720000 	rsbsvc	r0, r2, r0
     e38:	00682e69 	rsbeq	r2, r8, r9, ror #28
     e3c:	00000003 	andeq	r0, r0, r3
     e40:	18020500 	stmdane	r2, {r8, sl}
     e44:	03000095 	movweq	r0, #149	; 0x95
     e48:	33300136 	teqcc	r0, #-2147483635	; 0x8000000d
     e4c:	d8306d67 	ldmdale	r0!, {r0, r1, r2, r5, r6, r8, sl, fp, sp, lr}
     e50:	67676730 			; <UNDEFINED> instruction: 0x67676730
     e54:	86686767 	strbthi	r6, [r8], -r7, ror #14
     e58:	306a672f 	rsbcc	r6, sl, pc, lsr #14
     e5c:	2f696767 	svccs	0x00696767
     e60:	674c6a67 	strbvs	r6, [ip, -r7, ror #20]
     e64:	302f2fc1 	eorcc	r2, pc, r1, asr #31
     e68:	3049682f 	subcc	r6, r9, pc, lsr #16
     e6c:	01000202 	tsteq	r0, r2, lsl #4
     e70:	00012801 	andeq	r2, r1, r1, lsl #16
     e74:	0d000200 	sfmeq	f0, 4, [r0, #-0]
     e78:	02000001 	andeq	r0, r0, #1
     e7c:	0d0efb01 	vstreq	d15, [lr, #-4]
     e80:	01010100 	mrseq	r0, (UNDEF: 17)
     e84:	00000001 	andeq	r0, r0, r1
     e88:	01000001 	tsteq	r0, r1
     e8c:	34317363 	ldrtcc	r7, [r1], #-867	; 0x363
     e90:	732d6530 	teqvc	sp, #48, 10	; 0xc000000
     e94:	2f006372 	svccs	0x00006372
     e98:	2f727375 	svccs	0x00727375
     e9c:	61636f6c 	cmnvs	r3, ip, ror #30
     ea0:	65432f6c 	strbvs	r2, [r3, #-3948]	; 0xf6c
     ea4:	72616c6c 	rsbvc	r6, r1, #108, 24	; 0x6c00
     ea8:	6d72612f 	ldfvse	f6, [r2, #-188]!	; 0xffffff44
     eac:	6e6f6e2d 	cdpvs	14, 6, cr6, cr15, cr13, {1}
     eb0:	61652d65 	cmnvs	r5, r5, ror #26
     eb4:	342f6962 	strtcc	r6, [pc], #-2402	; ebc <_start-0x7144>
     eb8:	332e382e 	teqcc	lr, #3014656	; 0x2e0000
     ebc:	3173632d 	cmncc	r3, sp, lsr #6
     ec0:	2f653037 	svccs	0x00653037
     ec4:	2f62696c 	svccs	0x0062696c
     ec8:	2f636367 	svccs	0x00636367
     ecc:	2d6d7261 	sfmcs	f7, 2, [sp, #-388]!	; 0xfffffe7c
     ed0:	656e6f6e 	strbvs	r6, [lr, #-3950]!	; 0xf6e
     ed4:	6261652d 	rsbvs	r6, r1, #188743680	; 0xb400000
     ed8:	2e342f69 	cdpcs	15, 3, cr2, cr4, cr9, {3}
     edc:	2f332e38 	svccs	0x00332e38
     ee0:	6c636e69 	stclvs	14, cr6, [r3], #-420	; 0xfffffe5c
     ee4:	00656475 	rsbeq	r6, r5, r5, ror r4
     ee8:	7273752f 	rsbsvc	r7, r3, #197132288	; 0xbc00000
     eec:	636f6c2f 	cmnvs	pc, #12032	; 0x2f00
     ef0:	432f6c61 	teqmi	pc, #24832	; 0x6100
     ef4:	616c6c65 	cmnvs	ip, r5, ror #24
     ef8:	72612f72 	rsbvc	r2, r1, #456	; 0x1c8
     efc:	6f6e2d6d 	svcvs	0x006e2d6d
     f00:	652d656e 	strvs	r6, [sp, #-1390]!	; 0x56e
     f04:	2f696261 	svccs	0x00696261
     f08:	2e382e34 	mrccs	14, 1, r2, cr8, cr4, {1}
     f0c:	73632d33 	cmnvc	r3, #3264	; 0xcc0
     f10:	65303731 	ldrvs	r3, [r0, #-1841]!	; 0x731
     f14:	6d72612f 	ldfvse	f6, [r2, #-188]!	; 0xffffff44
     f18:	6e6f6e2d 	cdpvs	14, 6, cr6, cr15, cr13, {1}
     f1c:	61652d65 	cmnvs	r5, r5, ror #26
     f20:	692f6962 	stmdbvs	pc!, {r1, r5, r6, r8, fp, sp, lr}	; <UNPREDICTABLE>
     f24:	756c636e 	strbvc	r6, [ip, #-878]!	; 0x36e
     f28:	00006564 	andeq	r6, r0, r4, ror #10
     f2c:	746e6f63 	strbtvc	r6, [lr], #-3939	; 0xf63
     f30:	2d6c6f72 	stclcs	15, cr6, [ip, #-456]!	; 0xfffffe38
     f34:	636f6c62 	cmnvs	pc, #25088	; 0x6200
     f38:	00632e6b 	rsbeq	r2, r3, fp, ror #28
     f3c:	73000001 	movwvc	r0, #1
     f40:	65646474 	strbvs	r6, [r4, #-1140]!	; 0x474
     f44:	00682e66 	rsbeq	r2, r8, r6, ror #28
     f48:	73000002 	movwvc	r0, #2
     f4c:	6e696474 	mcrvs	4, 3, r6, cr9, cr4, {3}
     f50:	63672d74 	cmnvs	r7, #116, 26	; 0x1d00
     f54:	00682e63 	rsbeq	r2, r8, r3, ror #28
     f58:	73000002 	movwvc	r0, #2
     f5c:	61752d77 	cmnvs	r5, r7, ror sp
     f60:	682e7472 	stmdavs	lr!, {r1, r4, r5, r6, sl, ip, sp, lr}
     f64:	00000100 	andeq	r0, r0, r0, lsl #2
     f68:	746e6f63 	strbtvc	r6, [lr], #-3939	; 0xf63
     f6c:	2d6c6f72 	stclcs	15, cr6, [ip, #-456]!	; 0xfffffe38
     f70:	636f6c62 	cmnvs	pc, #25088	; 0x6200
     f74:	00682e6b 	rsbeq	r2, r8, fp, ror #28
     f78:	73000001 	movwvc	r0, #1
     f7c:	6e697274 	mcrvs	2, 3, r7, cr9, cr4, {3}
     f80:	00682e67 	rsbeq	r2, r8, r7, ror #28
     f84:	00000003 	andeq	r0, r0, r3
     f88:	d0020500 	andle	r0, r2, r0, lsl #10
     f8c:	16000096 			; <UNDEFINED> instruction: 0x16000096
     f90:	4c688330 	stclmi	3, cr8, [r8], #-192	; 0xffffff40
     f94:	2f4b9f14 	svccs	0x004b9f14
     f98:	01000402 	tsteq	r0, r2, lsl #8
     f9c:	0000ec01 	andeq	lr, r0, r1, lsl #24
     fa0:	d0000200 	andle	r0, r0, r0, lsl #4
     fa4:	02000000 	andeq	r0, r0, #0
     fa8:	0d0efb01 	vstreq	d15, [lr, #-4]
     fac:	01010100 	mrseq	r0, (UNDEF: 17)
     fb0:	00000001 	andeq	r0, r0, r1
     fb4:	01000001 	tsteq	r0, r1
     fb8:	6362696c 	cmnvs	r2, #108, 18	; 0x1b0000
     fbc:	73752f00 	cmnvc	r5, #0, 30
     fc0:	6f6c2f72 	svcvs	0x006c2f72
     fc4:	2f6c6163 	svccs	0x006c6163
     fc8:	6c6c6543 	cfstr64vs	mvdx6, [ip], #-268	; 0xfffffef4
     fcc:	612f7261 	teqvs	pc, r1, ror #4
     fd0:	6e2d6d72 	mcrvs	13, 1, r6, cr13, cr2, {3}
     fd4:	2d656e6f 	stclcs	14, cr6, [r5, #-444]!	; 0xfffffe44
     fd8:	69626165 	stmdbvs	r2!, {r0, r2, r5, r6, r8, sp, lr}^
     fdc:	382e342f 	stmdacc	lr!, {r0, r1, r2, r3, r5, sl, ip, sp}
     fe0:	632d332e 	teqvs	sp, #-1207959552	; 0xb8000000
     fe4:	30373173 	eorscc	r3, r7, r3, ror r1
     fe8:	696c2f65 	stmdbvs	ip!, {r0, r2, r5, r6, r8, r9, sl, fp, sp}^
     fec:	63672f62 	cmnvs	r7, #392	; 0x188
     ff0:	72612f63 	rsbvc	r2, r1, #396	; 0x18c
     ff4:	6f6e2d6d 	svcvs	0x006e2d6d
     ff8:	652d656e 	strvs	r6, [sp, #-1390]!	; 0x56e
     ffc:	2f696261 	svccs	0x00696261
    1000:	2e382e34 	mrccs	14, 1, r2, cr8, cr4, {1}
    1004:	6e692f33 	mcrvs	15, 3, r2, cr9, cr3, {1}
    1008:	64756c63 	ldrbtvs	r6, [r5], #-3171	; 0xc63
    100c:	752f0065 	strvc	r0, [pc, #-101]!	; faf <_start-0x7051>
    1010:	6c2f7273 	sfmvs	f7, 4, [pc], #-460	; e4c <_start-0x71b4>
    1014:	6c61636f 	stclvs	3, cr6, [r1], #-444	; 0xfffffe44
    1018:	6c65432f 	stclvs	3, cr4, [r5], #-188	; 0xffffff44
    101c:	2f72616c 	svccs	0x0072616c
    1020:	2d6d7261 	sfmcs	f7, 2, [sp, #-388]!	; 0xfffffe7c
    1024:	656e6f6e 	strbvs	r6, [lr, #-3950]!	; 0xf6e
    1028:	6261652d 	rsbvs	r6, r1, #188743680	; 0xb400000
    102c:	2e342f69 	cdpcs	15, 3, cr2, cr4, cr9, {3}
    1030:	2d332e38 	ldccs	14, cr2, [r3, #-224]!	; 0xffffff20
    1034:	37317363 	ldrcc	r7, [r1, -r3, ror #6]!
    1038:	612f6530 	teqvs	pc, r0, lsr r5	; <UNPREDICTABLE>
    103c:	6e2d6d72 	mcrvs	13, 1, r6, cr13, cr2, {3}
    1040:	2d656e6f 	stclcs	14, cr6, [r5, #-444]!	; 0xfffffe44
    1044:	69626165 	stmdbvs	r2!, {r0, r2, r5, r6, r8, sp, lr}^
    1048:	636e692f 	cmnvs	lr, #770048	; 0xbc000
    104c:	6564756c 	strbvs	r7, [r4, #-1388]!	; 0x56c
    1050:	656d0000 	strbvs	r0, [sp, #-0]!
    1054:	7465736d 	strbtvc	r7, [r5], #-877	; 0x36d
    1058:	0100632e 	tsteq	r0, lr, lsr #6
    105c:	74730000 	ldrbtvc	r0, [r3], #-0
    1060:	66656464 	strbtvs	r6, [r5], -r4, ror #8
    1064:	0200682e 	andeq	r6, r0, #3014656	; 0x2e0000
    1068:	74730000 	ldrbtvc	r0, [r3], #-0
    106c:	676e6972 			; <UNDEFINED> instruction: 0x676e6972
    1070:	0300682e 	movweq	r6, #2094	; 0x82e
    1074:	00000000 	andeq	r0, r0, r0
    1078:	97200205 	strls	r0, [r0, -r5, lsl #4]!
    107c:	13140000 	tstne	r4, #0
    1080:	02002f4c 	andeq	r2, r0, #76, 30	; 0x130
    1084:	4d490104 	stfmie	f0, [r9, #-16]
    1088:	01000202 	tsteq	r0, r2, lsl #4
    108c:	Address 0x000000000000108c is out of bounds.


Disassembly of section .debug_str:

00000000 <.debug_str>:
   0:	676e6f6c 	strbvs	r6, [lr, -ip, ror #30]!
   4:	6e6f6c20 	cdpvs	12, 6, cr6, cr15, cr0, {1}
   8:	6e692067 	cdpvs	0, 6, cr2, cr9, cr7, {3}
   c:	70670074 	rsbvc	r0, r7, r4, ror r0
  10:	735f6f69 	cmpvc	pc, #420	; 0x1a4
  14:	695f7465 	ldmdbvs	pc, {r0, r2, r5, r6, sl, ip, sp, lr}^	; <UNPREDICTABLE>
  18:	7475706e 	ldrbtvc	r7, [r5], #-110	; 0x6e
  1c:	69706700 	ldmdbvs	r0!, {r8, r9, sl, sp, lr}^
  20:	65735f6f 	ldrbvs	r5, [r3, #-3951]!	; 0xf6f
  24:	75705f74 	ldrbvc	r5, [r0, #-3956]!	; 0xf74
  28:	70756c6c 	rsbsvc	r6, r5, ip, ror #24
  2c:	2e6e6f00 	cdpcs	15, 6, cr6, cr14, cr0, {0}
  30:	6f6c0063 	svcvs	0x006c0063
  34:	6c20676e 	stcvs	7, cr6, [r0], #-440	; 0xfffffe48
  38:	20676e6f 	rsbcs	r6, r7, pc, ror #28
  3c:	69736e75 	ldmdbvs	r3!, {r0, r2, r4, r5, r6, r9, sl, fp, sp, lr}^
  40:	64656e67 	strbtvs	r6, [r5], #-3687	; 0xe67
  44:	746e6920 	strbtvc	r6, [lr], #-2336	; 0x920
  48:	736e7500 	cmnvc	lr, #0, 10
  4c:	656e6769 	strbvs	r6, [lr, #-1897]!	; 0x769
  50:	68632064 	stmdavs	r3!, {r2, r5, r6, sp}^
  54:	75007261 	strvc	r7, [r0, #-609]	; 0x261
  58:	5f747261 	svcpl	0x00747261
  5c:	74696e69 	strbtvc	r6, [r9], #-3689	; 0xe69
  60:	746f6e00 	strbtvc	r6, [pc], #-3584	; 68 <_start-0x7f98>
  64:	6e69616d 	powvsez	f6, f1, #5.0
  68:	69706700 	ldmdbvs	r0!, {r8, r9, sl, sp, lr}^
  6c:	65735f6f 	ldrbvs	r5, [r3, #-3951]!	; 0xf6f
  70:	75705f74 	ldrbvc	r5, [r0, #-3956]!	; 0xf74
  74:	6f646c6c 	svcvs	0x00646c6c
  78:	2f006e77 	svccs	0x00006e77
  7c:	72657355 	rsbvc	r7, r5, #1409286145	; 0x54000001
  80:	72622f73 	rsbvc	r2, r2, #460	; 0x1cc
  84:	6a6e6169 	bvs	1b98630 <__bss_end__+0x1b8e730>
  88:	442f6e75 	strtmi	r6, [pc], #-3701	; 90 <_start-0x7f70>
  8c:	746b7365 	strbtvc	r7, [fp], #-869	; 0x365
  90:	732f706f 	teqvc	pc, #111	; 0x6f
  94:	6f6f6863 	svcvs	0x006f6863
  98:	70532f6c 	subsvc	r2, r3, ip, ror #30
  9c:	676e6972 			; <UNDEFINED> instruction: 0x676e6972
  a0:	30323931 	eorscc	r3, r2, r1, lsr r9
  a4:	3253432f 	subscc	r4, r3, #-1140850688	; 0xbc000000
  a8:	584c3034 	stmdapl	ip, {r2, r4, r5, ip, sp}^
  ac:	3273632f 	rsbscc	r6, r3, #-1140850688	; 0xbc000000
  b0:	786c3034 	stmdavc	ip!, {r2, r4, r5, ip, sp}^
  b4:	7330322d 	teqvc	r0, #-805306366	; 0xd0000002
  b8:	6c2f7270 	sfmvs	f7, 4, [pc], #-448	; ffffff00 <__bss_end__+0xffff6000>
  bc:	2f736261 	svccs	0x00736261
  c0:	69642d36 	stmdbvs	r4!, {r1, r2, r4, r5, r8, sl, fp, sp}^
  c4:	61746967 	cmnvs	r4, r7, ror #18
  c8:	2d302f6c 	ldccs	15, cr2, [r0, #-432]!	; 0xfffffe50
  cc:	6c6c7570 	cfstr64vs	mvdx7, [ip], #-448	; 0xfffffe40
  d0:	632f7075 	teqvs	pc, #117	; 0x75
  d4:	0065646f 	rsbeq	r6, r5, pc, ror #8
  d8:	726f6873 	rsbvc	r6, pc, #7536640	; 0x730000
  dc:	6e752074 	mrcvs	0, 3, r2, cr5, cr4, {3}
  e0:	6e676973 	mcrvs	9, 3, r6, cr7, cr3, {3}
  e4:	69206465 	stmdbvs	r0!, {r0, r2, r5, r6, sl, sp, lr}
  e8:	7300746e 	movwvc	r7, #1134	; 0x46e
  ec:	74726f68 	ldrbtvc	r6, [r2], #-3944	; 0xf68
  f0:	746e6920 	strbtvc	r6, [lr], #-2336	; 0x920
  f4:	554e4700 	strbpl	r4, [lr, #-1792]	; 0x700
  f8:	34204320 	strtcc	r4, [r0], #-800	; 0x320
  fc:	332e382e 	teqcc	lr, #3014656	; 0x2e0000
 100:	636d2d20 	cmnvs	sp, #32, 26	; 0x800
 104:	613d7570 	teqvs	sp, r0, ror r5
 108:	31316d72 	teqcc	r1, r2, ror sp
 10c:	7a6a3637 	bvc	1a8d9f0 <__bss_end__+0x1a83af0>
 110:	20732d66 	rsbscs	r2, r3, r6, ror #26
 114:	75746d2d 	ldrbvc	r6, [r4, #-3373]!	; 0xd2d
 118:	613d656e 	teqvs	sp, lr, ror #10
 11c:	31316d72 	teqcc	r1, r2, ror sp
 120:	7a6a3637 	bvc	1a8da04 <__bss_end__+0x1a83b04>
 124:	20732d66 	rsbscs	r2, r3, r6, ror #26
 128:	6467672d 	strbtvs	r6, [r7], #-1837	; 0x72d
 12c:	4f2d2062 	svcmi	0x002d2062
 130:	732d2067 	teqvc	sp, #103	; 0x67
 134:	673d6474 			; <UNDEFINED> instruction: 0x673d6474
 138:	3939756e 	ldmdbcc	r9!, {r1, r2, r3, r5, r6, r8, sl, ip, sp, lr}
 13c:	66662d20 	strbtvs	r2, [r6], -r0, lsr #26
 140:	73656572 	cmnvc	r5, #478150656	; 0x1c800000
 144:	646e6174 	strbtvs	r6, [lr], #-372	; 0x174
 148:	20676e69 	rsbcs	r6, r7, r9, ror #28
 14c:	6c61662d 	stclvs	6, cr6, [r1], #-180	; 0xffffff4c
 150:	2d6e6769 	stclcs	7, cr6, [lr, #-420]!	; 0xfffffe5c
 154:	636e7566 	cmnvs	lr, #427819008	; 0x19800000
 158:	6e6f6974 	mcrvs	9, 3, r6, cr15, cr4, {3}
 15c:	00343d73 	eorseq	r3, r4, r3, ror sp
 160:	657a6973 	ldrbvs	r6, [sl, #-2419]!	; 0x973
 164:	65707974 	ldrbvs	r7, [r0, #-2420]!	; 0x974
 168:	64757000 	ldrbtvs	r7, [r5], #-0
 16c:	6b6c635f 	blvs	1b18ef0 <__bss_end__+0x1b0eff0>
 170:	6765725f 			; <UNDEFINED> instruction: 0x6765725f
 174:	50504700 	subspl	r4, r0, r0, lsl #14
 178:	4c434455 	cfstrdmi	mvd4, [r3], {85}	; 0x55
 17c:	4700304b 	strmi	r3, [r0, -fp, asr #32]
 180:	44555050 	ldrbmi	r5, [r5], #-80	; 0x50
 184:	314b4c43 	cmpcc	fp, r3, asr #24
 188:	50504700 	subspl	r4, r0, r0, lsl #14
 18c:	63004455 	movwvs	r4, #1109	; 0x455
 190:	6e61656c 	cdpvs	5, 6, cr6, cr1, cr12, {3}
 194:	6265725f 	rsbvs	r7, r5, #-268435451	; 0xf0000005
 198:	00746f6f 	rsbseq	r6, r4, pc, ror #30
 19c:	33747570 	cmncc	r4, #112, 10	; 0x1c000000
 1a0:	75700032 	ldrbvc	r0, [r0, #-50]!	; 0x32
 1a4:	666f5f64 	strbtvs	r5, [pc], -r4, ror #30
 1a8:	74657366 	strbtvc	r7, [r5], #-870	; 0x366
 1ac:	465f5f00 	ldrbmi	r5, [pc], -r0, lsl #30
 1b0:	54434e55 	strbpl	r4, [r3], #-3669	; 0xe55
 1b4:	5f4e4f49 	svcpl	0x004e4f49
 1b8:	7067005f 	rsbvc	r0, r7, pc, asr r0
 1bc:	702d6f69 	eorvc	r6, sp, r9, ror #30
 1c0:	632e6475 	teqvs	lr, #1962934272	; 0x75000000
 1c4:	756f5f00 	strbvc	r5, [pc, #-3840]!	; fffff2cc <__bss_end__+0xffff53cc>
 1c8:	70670074 	rsbvc	r0, r7, r4, ror r0
 1cc:	705f6f69 	subsvc	r6, pc, r9, ror #30
 1d0:	6f5f6475 	svcvs	0x005f6475
 1d4:	72006666 	andvc	r6, r0, #106954752	; 0x6600000
 1d8:	725f6970 	subsvc	r6, pc, #112, 18	; 0x1c0000
 1dc:	74657365 	strbtvc	r7, [r5], #-869	; 0x365
 1e0:	7475705f 	ldrbtvc	r7, [r5], #-95	; 0x5f
 1e4:	5f5f0063 	svcpl	0x005f0063
 1e8:	63756e67 	cmnvs	r5, #1648	; 0x670
 1ec:	5f61765f 	svcpl	0x0061765f
 1f0:	7473696c 	ldrbtvc	r6, [r3], #-2412	; 0x96c
 1f4:	62696c00 	rsbvs	r6, r9, #0, 24
 1f8:	72702f63 	rsbsvc	r2, r0, #396	; 0x18c
 1fc:	6b746e69 	blvs	1d1bba8 <__bss_end__+0x1d11ca8>
 200:	4700632e 	strmi	r6, [r0, -lr, lsr #6]
 204:	4320554e 	teqmi	r0, #327155712	; 0x13800000
 208:	382e3420 	stmdacc	lr!, {r5, sl, ip, sp}
 20c:	2d20332e 	stccs	3, cr3, [r0, #-184]!	; 0xffffff48
 210:	7570636d 	ldrbvc	r6, [r0, #-877]!	; 0x36d
 214:	6d72613d 	ldfvse	f6, [r2, #-244]!	; 0xffffff0c
 218:	36373131 			; <UNDEFINED> instruction: 0x36373131
 21c:	2d667a6a 	vstmdbcs	r6!, {s15-s120}
 220:	6d2d2073 	stcvs	0, cr2, [sp, #-460]!	; 0xfffffe34
 224:	656e7574 	strbvs	r7, [lr, #-1396]!	; 0x574
 228:	6d72613d 	ldfvse	f6, [r2, #-244]!	; 0xffffff0c
 22c:	36373131 			; <UNDEFINED> instruction: 0x36373131
 230:	2d667a6a 	vstmdbcs	r6!, {s15-s120}
 234:	672d2073 			; <UNDEFINED> instruction: 0x672d2073
 238:	20626467 	rsbcs	r6, r2, r7, ror #8
 23c:	20674f2d 	rsbcs	r4, r7, sp, lsr #30
 240:	6474732d 	ldrbtvs	r7, [r4], #-813	; 0x32d
 244:	756e673d 	strbvc	r6, [lr, #-1853]!	; 0x73d
 248:	2d203939 	stccs	9, cr3, [r0, #-228]!	; 0xffffff1c
 24c:	65726666 	ldrbvs	r6, [r2, #-1638]!	; 0x666
 250:	61747365 	cmnvs	r4, r5, ror #6
 254:	6e69646e 	cdpvs	4, 6, cr6, cr9, cr14, {3}
 258:	61760067 	cmnvs	r6, r7, rrx
 25c:	6972705f 	ldmdbvs	r2!, {r0, r1, r2, r3, r4, r6, ip, sp, lr}^
 260:	006b746e 	rsbeq	r7, fp, lr, ror #8
 264:	61765f5f 	cmnvs	r6, pc, asr pc
 268:	73696c5f 	cmnvc	r9, #24320	; 0x5f00
 26c:	552f0074 	strpl	r0, [pc, #-116]!	; 200 <_start-0x7e00>
 270:	73726573 	cmnvc	r2, #482344960	; 0x1cc00000
 274:	6972622f 	ldmdbvs	r2!, {r0, r1, r2, r3, r5, r9, sp, lr}^
 278:	756a6e61 	strbvc	r6, [sl, #-3681]!	; 0xe61
 27c:	65442f6e 	strbvs	r2, [r4, #-3950]	; 0xf6e
 280:	6f746b73 	svcvs	0x00746b73
 284:	63732f70 	cmnvs	r3, #112, 30	; 0x1c0
 288:	6c6f6f68 	stclvs	15, cr6, [pc], #-416	; f0 <_start-0x7f10>
 28c:	6e69572f 	cdpvs	7, 6, cr5, cr9, cr15, {1}
 290:	31726574 	cmncc	r2, r4, ror r5
 294:	2f303239 	svccs	0x00303239
 298:	34315343 	ldrtcc	r5, [r1], #-835	; 0x343
 29c:	632f4530 	teqvs	pc, #48, 10	; 0xc000000
 2a0:	30343173 	eorscc	r3, r4, r3, ror r1
 2a4:	30322d65 	eorscc	r2, r2, r5, ror #26
 2a8:	2f6e6977 	svccs	0x006e6977
 2ac:	7062696c 	rsbvc	r6, r2, ip, ror #18
 2b0:	72610069 	rsbvc	r0, r1, #105	; 0x69
 2b4:	5f007367 	svcpl	0x00007367
 2b8:	0070615f 	rsbseq	r6, r0, pc, asr r1
 2bc:	65746e69 	ldrbvs	r6, [r4, #-3689]!	; 0xe69
 2c0:	6c616e72 	stclvs	14, cr6, [r1], #-456	; 0xfffffe38
 2c4:	7475705f 	ldrbtvc	r7, [r5], #-95	; 0x5f
 2c8:	72616863 	rsbvc	r6, r1, #6488064	; 0x630000
 2cc:	69707200 	ldmdbvs	r0!, {r9, ip, sp, lr}^
 2d0:	7475705f 	ldrbtvc	r7, [r5], #-95	; 0x5f
 2d4:	72616863 	rsbvc	r6, r1, #6488064	; 0x630000
 2d8:	62696c00 	rsbvs	r6, r9, #0, 24
 2dc:	75702f63 	ldrbvc	r2, [r0, #-3939]!	; 0xf63
 2e0:	61686374 	smcvs	34356	; 0x8634
 2e4:	00632e72 	rsbeq	r2, r3, r2, ror lr
 2e8:	5f697072 	svcpl	0x00697072
 2ec:	5f746573 	svcpl	0x00746573
 2f0:	63747570 	cmnvs	r4, #112, 10	; 0x1c000000
 2f4:	62696c00 	rsbvs	r6, r9, #0, 24
 2f8:	75702f63 	ldrbvc	r2, [r0, #-3939]!	; 0xf63
 2fc:	632e6b74 	teqvs	lr, #116, 22	; 0x1d000
 300:	746e6900 	strbtvc	r6, [lr], #-2304	; 0x900
 304:	616e7265 	cmnvs	lr, r5, ror #4
 308:	75705f6c 	ldrbvc	r5, [r0, #-3948]!	; 0xf6c
 30c:	6e006b74 	vmovvs.16	d0[1], r6
 310:	705f6765 	subsvc	r6, pc, r5, ror #14
 314:	76657200 	strbtvc	r7, [r5], -r0, lsl #4
 318:	65737265 	ldrbvs	r7, [r3, #-613]!	; 0x265
 31c:	64736900 	ldrbtvs	r6, [r3], #-2304	; 0x900
 320:	74696769 	strbtvc	r6, [r9], #-1897	; 0x769
 324:	74757000 	ldrbtvc	r7, [r5], #-0
 328:	70665f73 	rsbvc	r5, r6, r3, ror pc
 32c:	73616200 	cmnvc	r1, #0, 4
 330:	69730065 	ldmdbvs	r3!, {r0, r2, r5, r6}^
 334:	64656e67 	strbtvs	r6, [r5], #-3687	; 0xe67
 338:	6c00705f 	stcvs	0, cr7, [r0], {95}	; 0x5f
 33c:	2f636269 	svccs	0x00636269
 340:	702d6176 	eorvc	r6, sp, r6, ror r1
 344:	746e6972 	strbtvc	r6, [lr], #-2418	; 0x972
 348:	00632e6b 	rsbeq	r2, r3, fp, ror #28
 34c:	5f697072 	svcpl	0x00697072
 350:	5f746573 	svcpl	0x00746573
 354:	7074756f 	rsbsvc	r7, r4, pc, ror #10
 358:	77007475 	smlsdxvc	r0, r5, r4, r7
 35c:	68746469 	ldmdavs	r4!, {r0, r3, r5, r6, sl, sp, lr}^
 360:	74757000 	ldrbtvc	r7, [r5], #-0
 364:	70665f63 	rsbvc	r5, r6, r3, ror #30
 368:	696d6500 	stmdbvs	sp!, {r8, sl, sp, lr}^
 36c:	70720074 	rsbsvc	r0, r2, r4, ror r0
 370:	65725f69 	ldrbvs	r5, [r2, #-3945]!	; 0xf69
 374:	746f6f62 	strbtvc	r6, [pc], #-3938	; 37c <_start-0x7c84>
 378:	31736300 	cmncc	r3, r0, lsl #6
 37c:	2d653034 	stclcs	0, cr3, [r5, #-208]!	; 0xffffff30
 380:	2f637273 	svccs	0x00637273
 384:	61656c63 	cmnvs	r5, r3, ror #24
 388:	65722d6e 	ldrbvs	r2, [r2, #-3438]!	; 0xd6e
 38c:	746f6f62 	strbtvc	r6, [pc], #-3938	; 394 <_start-0x7c6c>
 390:	6400632e 	strvs	r6, [r0], #-814	; 0x32e
 394:	79616c65 	stmdbvc	r1!, {r0, r2, r5, r6, sl, fp, sp, lr}^
 398:	00736d5f 	rsbseq	r6, r3, pc, asr sp
 39c:	65746e69 	ldrbvs	r6, [r4, #-3689]!	; 0xe69
 3a0:	6c616e72 	stclvs	14, cr6, [r1], #-456	; 0xfffffe38
 3a4:	5f77735f 	svcpl	0x0077735f
 3a8:	63747570 	cmnvs	r4, #112, 10	; 0x1c000000
 3ac:	00726168 	rsbseq	r6, r2, r8, ror #2
 3b0:	73625f5f 	cmnvc	r2, #380	; 0x17c
 3b4:	74735f73 	ldrbtvc	r5, [r3], #-3955	; 0xf73
 3b8:	5f747261 	svcpl	0x00747261
 3bc:	7362005f 	cmnvc	r2, #95	; 0x5f
 3c0:	6e655f73 	mcrvs	15, 3, r5, cr5, cr3, {3}
 3c4:	79630064 	stmdbvc	r3!, {r2, r5, r6}^
 3c8:	5f656c63 	svcpl	0x00656c63
 3cc:	5f726570 	svcpl	0x00726570
 3d0:	00746962 	rsbseq	r6, r4, r2, ror #18
 3d4:	736e6f63 	cmnvc	lr, #396	; 0x18c
 3d8:	5f656c6f 	svcpl	0x00656c6f
 3dc:	74726175 	ldrbtvc	r6, [r2], #-373	; 0x175
 3e0:	5f777300 	svcpl	0x00777300
 3e4:	74726175 	ldrbtvc	r6, [r2], #-373	; 0x175
 3e8:	6972705f 	ldmdbvs	r2!, {r0, r1, r2, r3, r4, r6, ip, sp, lr}^
 3ec:	006b746e 	rsbeq	r7, fp, lr, ror #8
 3f0:	43545550 	cmpmi	r4, #80, 10	; 0x14000000
 3f4:	5053455f 	subspl	r4, r3, pc, asr r5
 3f8:	5241555f 	subpl	r5, r1, #398458880	; 0x17c00000
 3fc:	77730054 			; <UNDEFINED> instruction: 0x77730054
 400:	7261755f 	rsbvc	r7, r1, #398458880	; 0x17c00000
 404:	00745f74 	rsbseq	r5, r4, r4, ror pc
 408:	43545550 	cmpmi	r4, #80, 10	; 0x14000000
 40c:	5f57535f 	svcpl	0x0057535f
 410:	54524155 	ldrbpl	r4, [r2], #-341	; 0x155
 414:	75616200 	strbvc	r6, [r1, #-512]!	; 0x200
 418:	55500064 	ldrbpl	r0, [r0, #-100]	; 0x64
 41c:	485f4354 	ldmdami	pc, {r2, r4, r6, r8, r9, lr}^	; <UNPREDICTABLE>
 420:	41555f57 	cmpmi	r5, r7, asr pc
 424:	5f005452 	svcpl	0x00005452
 428:	61747363 	cmnvs	r4, r3, ror #6
 42c:	75007472 	strvc	r7, [r0, #-1138]	; 0x472
 430:	5f747261 	svcpl	0x00747261
 434:	5f766564 	svcpl	0x00766564
 438:	77730074 			; <UNDEFINED> instruction: 0x77730074
 43c:	7261755f 	rsbvc	r7, r1, #398458880	; 0x17c00000
 440:	75705f74 	ldrbvc	r5, [r0, #-3956]!	; 0xf74
 444:	75006374 	strvc	r6, [r0, #-884]	; 0x374
 448:	38746e69 	ldmdacc	r4!, {r0, r3, r5, r6, r9, sl, fp, sp, lr}^
 44c:	6300745f 	movwvs	r7, #1119	; 0x45f
 450:	72746e6f 	rsbsvc	r6, r4, #1776	; 0x6f0
 454:	625f6c6f 	subsvs	r6, pc, #28416	; 0x6f00
 458:	745f6b6c 	ldrbvc	r6, [pc], #-2924	; 460 <_start-0x7ba0>
 45c:	5f777300 	svcpl	0x00777300
 460:	74726175 	ldrbtvc	r6, [r2], #-373	; 0x175
 464:	5f626300 	svcpl	0x00626300
 468:	5f746567 	svcpl	0x00746567
 46c:	636f6c62 	cmnvs	pc, #25088	; 0x6200
 470:	5f5f006b 	svcpl	0x005f006b
 474:	5f737362 	svcpl	0x00737362
 478:	5f646e65 	svcpl	0x00646e65
 47c:	7363005f 	cmnvc	r3, #95	; 0x5f
 480:	65303431 	ldrvs	r3, [r0, #-1073]!	; 0x431
 484:	6372732d 	cmnvs	r2, #-1275068416	; 0xb4000000
 488:	7473632f 	ldrbtvc	r6, [r3], #-815	; 0x32f
 48c:	2e747261 	cdpcs	2, 7, cr7, cr4, cr1, {3}
 490:	6f630063 	svcvs	0x00630063
 494:	6c6f736e 	stclvs	3, cr7, [pc], #-440	; 2e4 <_start-0x7d1c>
 498:	65645f65 	strbvs	r5, [r4, #-3941]!	; 0xf65
 49c:	69750076 	ldmdbvs	r5!, {r1, r2, r4, r5, r6}^
 4a0:	3233746e 	eorscc	r7, r3, #1845493760	; 0x6e000000
 4a4:	6d00745f 	cfstrsvs	mvf7, [r0, #-380]	; 0xfffffe84
 4a8:	63696761 	cmnvs	r9, #25427968	; 0x1840000
 4ac:	5f746100 	svcpl	0x00746100
 4b0:	72657375 	rsbvc	r7, r5, #-738197503	; 0xd4000001
 4b4:	76656c5f 			; <UNDEFINED> instruction: 0x76656c5f
 4b8:	50006c65 	andpl	r6, r0, r5, ror #24
 4bc:	41505f4d 	cmpmi	r0, sp, asr #30
 4c0:	4f575353 	svcmi	0x00575353
 4c4:	63004452 	movwvs	r4, #1106	; 0x452
 4c8:	30343173 	eorscc	r3, r4, r3, ror r1
 4cc:	72732d65 	rsbsvc	r2, r3, #6464	; 0x1940
 4d0:	65722f63 	ldrbvs	r2, [r2, #-3939]!	; 0xf63
 4d4:	746f6f62 	strbtvc	r6, [pc], #-3938	; 4dc <_start-0x7b24>
 4d8:	5000632e 	andpl	r6, r0, lr, lsr #6
 4dc:	53525f4d 	cmppl	r2, #308	; 0x134
 4e0:	575f4354 			; <UNDEFINED> instruction: 0x575f4354
 4e4:	47464352 	smlsldmi	r4, r6, r2, r3
 4e8:	4c55465f 	mrrcmi	6, 5, r4, r5, cr15
 4ec:	45525f4c 	ldrbmi	r5, [r2, #-3916]	; 0xf4c
 4f0:	00544553 	subseq	r4, r4, r3, asr r5
 4f4:	575f4d50 			; <UNDEFINED> instruction: 0x575f4d50
 4f8:	00474f44 	subeq	r4, r7, r4, asr #30
 4fc:	5f746573 	svcpl	0x00746573
 500:	72657375 	rsbvc	r7, r5, #-738197503	; 0xd4000001
 504:	76656c5f 			; <UNDEFINED> instruction: 0x76656c5f
 508:	50006c65 	andpl	r6, r0, r5, ror #24
 50c:	32335455 	eorscc	r5, r3, #1426063360	; 0x55000000
 510:	5f4d5000 	svcpl	0x004d5000
 514:	43545352 	cmpmi	r4, #1207959553	; 0x48000001
 518:	73706300 	cmnvc	r0, #0, 6
 51c:	69740072 	ldmdbvs	r4!, {r1, r4, r5, r6}^
 520:	5f72656d 	svcpl	0x0072656d
 524:	5f746567 	svcpl	0x00746567
 528:	63657375 	cmnvs	r5, #-738197503	; 0xd4000001
 52c:	7761725f 			; <UNDEFINED> instruction: 0x7761725f
 530:	6c656400 	cfstrdvs	mvd6, [r5], #-0
 534:	735f7961 	cmpvc	pc, #1589248	; 0x184000
 538:	63006365 	movwvs	r6, #869	; 0x365
 53c:	30343173 	eorscc	r3, r4, r3, ror r1
 540:	72732d65 	rsbsvc	r2, r3, #6464	; 0x1940
 544:	69742f63 	ldmdbvs	r4!, {r0, r1, r5, r6, r8, r9, sl, fp, sp}^
 548:	2e72656d 	cdpcs	5, 7, cr6, cr2, cr13, {3}
 54c:	45470063 	strbmi	r0, [r7, #-99]	; 0x63
 550:	00323354 	eorseq	r3, r2, r4, asr r3
 554:	6b636974 	blvs	18dab2c <__bss_end__+0x18d0c2c>
 558:	65640073 	strbvs	r0, [r4, #-115]!	; 0x73
 55c:	5f79616c 	svcpl	0x0079616c
 560:	6c637963 	stclvs	9, cr7, [r3], #-396	; 0xfffffe74
 564:	64007365 	strvs	r7, [r0], #-869	; 0x365
 568:	79616c65 	stmdbvc	r1!, {r0, r2, r5, r6, sl, fp, sp, lr}^
 56c:	0073755f 	rsbseq	r7, r3, pc, asr r5
 570:	656d6974 	strbvs	r6, [sp, #-2420]!	; 0x974
 574:	65675f72 	strbvs	r5, [r7, #-3954]!	; 0xf72
 578:	73755f74 	cmnvc	r5, #116, 30	; 0x1d0
 57c:	67006365 	strvs	r6, [r0, -r5, ror #6]
 580:	5f6f6970 	svcpl	0x006f6970
 584:	6e657665 	cdpvs	6, 6, cr7, cr5, cr5, {3}
 588:	65645f74 	strbvs	r5, [r4, #-3956]!	; 0xf74
 58c:	74636574 	strbtvc	r6, [r3], #-1396	; 0x574
 590:	47006465 	strmi	r6, [r0, -r5, ror #8]
 594:	45534650 	ldrbmi	r4, [r3, #-1616]	; 0x650
 598:	4700324c 	strmi	r3, [r0, -ip, asr #4]
 59c:	524c4350 	subpl	r4, ip, #80, 6	; 0x40000001
 5a0:	4e450030 	mcrmi	0, 2, r0, cr5, cr0, {1}
 5a4:	454c4241 	strbmi	r4, [ip, #-577]	; 0x241
 5a8:	5152495f 	cmppl	r2, pc, asr r9
 5ac:	00325f53 	eorseq	r5, r2, r3, asr pc
 5b0:	675f7369 	ldrbvs	r7, [pc, -r9, ror #6]
 5b4:	5f6f6970 	svcpl	0x006f6970
 5b8:	00746e69 	rsbseq	r6, r4, r9, ror #28
 5bc:	4f495047 	svcmi	0x00495047
 5c0:	4e55465f 	mrcmi	6, 2, r4, cr5, cr15, {2}
 5c4:	4e495f43 	cdpmi	15, 4, cr5, cr9, cr3, {2}
 5c8:	00545550 	subseq	r5, r4, r0, asr r5
 5cc:	6f697067 	svcvs	0x00697067
 5d0:	7465735f 	strbtvc	r7, [r5], #-863	; 0x35f
 5d4:	66666f5f 	uqsaxvs	r6, r6, pc	; <UNPREDICTABLE>
 5d8:	2d796d00 	ldclcs	13, cr6, [r9, #-0]
 5dc:	2f637273 	svccs	0x00637273
 5e0:	6f697067 	svcvs	0x00697067
 5e4:	6900632e 	stmdbvs	r0, {r1, r2, r3, r5, r8, r9, sp, lr}
 5e8:	6d5f746e 	cfldrdvs	mvd7, [pc, #-440]	; 438 <_start-0x7bc8>
 5ec:	006b7361 	rsbeq	r7, fp, r1, ror #6
 5f0:	45535047 	ldrbmi	r5, [r3, #-71]	; 0x47
 5f4:	47003054 	smlsdmi	r0, r4, r0, r3
 5f8:	54455350 	strbpl	r5, [r5], #-848	; 0x350
 5fc:	65720031 	ldrbvs	r0, [r2, #-49]!	; 0x31
 600:	74735f67 	ldrbtvc	r5, [r3], #-3943	; 0xf67
 604:	47007461 	strmi	r7, [r0, -r1, ror #8]
 608:	56454c50 			; <UNDEFINED> instruction: 0x56454c50
 60c:	50470030 	subpl	r0, r7, r0, lsr r0
 610:	3156454c 	cmpcc	r6, ip, asr #10
 614:	69706700 	ldmdbvs	r0!, {r8, r9, sl, sp, lr}^
 618:	65725f6f 	ldrbvs	r5, [r2, #-3951]!	; 0xf6f
 61c:	50470067 	subpl	r0, r7, r7, rrx
 620:	4c455346 	mcrrmi	3, 4, r5, r5, cr6
 624:	50470030 	subpl	r0, r7, r0, lsr r0
 628:	4c455346 	mcrrmi	3, 4, r5, r5, cr6
 62c:	50470031 	subpl	r0, r7, r1, lsr r0
 630:	4c455346 	mcrrmi	3, 4, r5, r5, cr6
 634:	50470033 	subpl	r0, r7, r3, lsr r0
 638:	4c455346 	mcrrmi	3, 4, r5, r5, cr6
 63c:	50470034 	subpl	r0, r7, r4, lsr r0
 640:	4c455346 	mcrrmi	3, 4, r5, r5, cr6
 644:	65640035 	strbvs	r0, [r4, #-53]!	; 0x35
 648:	61625f76 	smcvs	9718	; 0x25f6
 64c:	65697272 	strbvs	r7, [r9, #-626]!	; 0x272
 650:	70670072 	rsbvc	r0, r7, r2, ror r0
 654:	665f6f69 	ldrbvs	r6, [pc], -r9, ror #30
 658:	306c6573 	rsbcc	r6, ip, r3, ror r5
 65c:	43504700 	cmpmi	r0, #0, 14
 660:	0031524c 	eorseq	r5, r1, ip, asr #4
 664:	6f697067 	svcvs	0x00697067
 668:	6165725f 	cmnvs	r5, pc, asr r2
 66c:	70670064 	rsbvc	r0, r7, r4, rrx
 670:	695f6f69 	ldmdbvs	pc, {r0, r3, r5, r6, r8, r9, sl, fp, sp, lr}^	; <UNPREDICTABLE>
 674:	725f746e 	subsvc	r7, pc, #1845493760	; 0x6e000000
 678:	6e697369 	cdpvs	3, 6, cr7, cr9, cr9, {3}
 67c:	64655f67 	strbtvs	r5, [r5], #-3943	; 0xf67
 680:	67006567 	strvs	r6, [r0, -r7, ror #10]
 684:	5f6f6970 	svcpl	0x006f6970
 688:	5f746573 	svcpl	0x00746573
 68c:	636e7566 	cmnvs	lr, #427819008	; 0x19800000
 690:	6e6f6974 	mcrvs	9, 3, r6, cr15, cr4, {3}
 694:	52504700 	subspl	r4, r0, #0, 14
 698:	00304e45 	eorseq	r4, r0, r5, asr #28
 69c:	45525047 	ldrbmi	r5, [r2, #-71]	; 0x47
 6a0:	6700314e 	strvs	r3, [r0, -lr, asr #2]
 6a4:	5f6f6970 	svcpl	0x006f6970
 6a8:	6e657665 	cdpvs	6, 6, cr7, cr5, cr5, {3}
 6ac:	6c635f74 	stclvs	15, cr5, [r3], #-464	; 0xfffffe30
 6b0:	00726165 	rsbseq	r6, r2, r5, ror #2
 6b4:	5f515249 	svcpl	0x00515249
 6b8:	444e4550 	strbmi	r4, [lr], #-1360	; 0x550
 6bc:	5f474e49 	svcpl	0x00474e49
 6c0:	52490031 	subpl	r0, r9, #49	; 0x31
 6c4:	45505f51 	ldrbmi	r5, [r0, #-3921]	; 0xf51
 6c8:	4e49444e 	cdpmi	4, 4, cr4, cr9, cr14, {2}
 6cc:	00325f47 	eorseq	r5, r2, r7, asr #30
 6d0:	6d746962 	ldclvs	9, cr6, [r4, #-392]!	; 0xfffffe78
 6d4:	006b7361 	rsbeq	r7, fp, r1, ror #6
 6d8:	6f697067 	svcvs	0x00697067
 6dc:	6972775f 	ldmdbvs	r2!, {r0, r1, r2, r3, r4, r6, r8, r9, sl, ip, sp, lr}^
 6e0:	67006574 	smlsdxvs	r0, r4, r5, r6
 6e4:	5f6f6970 	svcpl	0x006f6970
 6e8:	30746573 	rsbscc	r6, r4, r3, ror r5
 6ec:	6e756600 	cdpvs	6, 7, cr6, cr5, cr0, {0}
 6f0:	70670063 	rsbvc	r0, r7, r3, rrx
 6f4:	745f6f69 	ldrbvc	r6, [pc], #-3945	; 6fc <_start-0x7904>
 6f8:	6c67676f 	stclvs	7, cr6, [r7], #-444	; 0xfffffe44
 6fc:	50470065 	subpl	r0, r7, r5, rrx
 700:	30534445 	subscc	r4, r3, r5, asr #8
 704:	45504700 	ldrbmi	r4, [r0, #-1792]	; 0x700
 708:	00315344 	eorseq	r5, r1, r4, asr #6
 70c:	6f697067 	svcvs	0x00697067
 710:	7465735f 	strbtvc	r7, [r5], #-863	; 0x35f
 714:	006e6f5f 	rsbeq	r6, lr, pc, asr pc
 718:	45465047 	strbmi	r5, [r6, #-71]	; 0x47
 71c:	4700304e 	strmi	r3, [r0, -lr, asr #32]
 720:	4e454650 	mcrmi	6, 2, r4, cr5, cr0, {2}
 724:	70670031 	rsbvc	r0, r7, r1, lsr r0
 728:	735f6f69 	cmpvc	pc, #420	; 0x1a4
 72c:	6f5f7465 	svcvs	0x005f7465
 730:	75707475 	ldrbvc	r7, [r0, #-1141]!	; 0x475
 734:	50470074 	subpl	r0, r7, r4, ror r0
 738:	465f4f49 	ldrbmi	r4, [pc], -r9, asr #30
 73c:	5f434e55 	svcpl	0x00434e55
 740:	5054554f 	subspl	r5, r4, pc, asr #10
 744:	67005455 	smlsdvs	r0, r5, r4, r5
 748:	32337465 	eorscc	r7, r3, #1694498816	; 0x65000000
 74c:	69706700 	ldmdbvs	r0!, {r8, r9, sl, sp, lr}^
 750:	6e695f6f 	cdpvs	15, 6, cr5, cr9, cr15, {3}
 754:	61665f74 	smcvs	26100	; 0x65f4
 758:	6e696c6c 	cdpvs	12, 6, cr6, cr9, cr12, {3}
 75c:	64655f67 	strbtvs	r5, [r5], #-3943	; 0xf67
 760:	67006567 	strvs	r6, [r0, -r7, ror #10]
 764:	5f6f6970 	svcpl	0x006f6970
 768:	636e7566 	cmnvs	lr, #427819008	; 0x19800000
 76c:	4700745f 	smlsdmi	r0, pc, r4, r7	; <UNPREDICTABLE>
 770:	5f4f4950 	svcpl	0x004f4950
 774:	434e5546 	movtmi	r5, #58694	; 0xe546
 778:	544c415f 	strbpl	r4, [ip], #-351	; 0x15f
 77c:	50470030 	subpl	r0, r7, r0, lsr r0
 780:	465f4f49 	ldrbmi	r4, [pc], -r9, asr #30
 784:	5f434e55 	svcpl	0x00434e55
 788:	31544c41 	cmpcc	r4, r1, asr #24
 78c:	49504700 	ldmdbmi	r0, {r8, r9, sl, lr}^
 790:	55465f4f 	strbpl	r5, [r6, #-3919]	; 0xf4f
 794:	415f434e 	cmpmi	pc, lr, asr #6
 798:	0032544c 	eorseq	r5, r2, ip, asr #8
 79c:	4f495047 	svcmi	0x00495047
 7a0:	4e55465f 	mrcmi	6, 2, r4, cr5, cr15, {2}
 7a4:	4c415f43 	mcrrmi	15, 4, r5, r1, cr3
 7a8:	47003354 	smlsdmi	r0, r4, r3, r3
 7ac:	5f4f4950 	svcpl	0x004f4950
 7b0:	434e5546 	movtmi	r5, #58694	; 0xe546
 7b4:	544c415f 	strbpl	r4, [ip], #-351	; 0x15f
 7b8:	50470034 	subpl	r0, r7, r4, lsr r0
 7bc:	465f4f49 	ldrbmi	r4, [pc], -r9, asr #30
 7c0:	5f434e55 	svcpl	0x00434e55
 7c4:	35544c41 	ldrbcc	r4, [r4, #-3137]	; 0xc41
 7c8:	67657200 	strbvs	r7, [r5, -r0, lsl #4]!
 7cc:	6c65735f 	stclvs	3, cr7, [r5], #-380	; 0xfffffe84
 7d0:	00746365 	rsbseq	r6, r4, r5, ror #6
 7d4:	6f697067 	svcvs	0x00697067
 7d8:	726c635f 	rsbvc	r6, ip, #2080374785	; 0x7c000001
 7dc:	79630030 	stmdbvc	r3!, {r4, r5}^
 7e0:	65705f63 	ldrbvs	r5, [r0, #-3939]!	; 0xf63
 7e4:	69625f72 	stmdbvs	r2!, {r1, r4, r5, r6, r8, r9, sl, fp, ip, lr}^
 7e8:	72770074 	rsbsvc	r0, r7, #116	; 0x74
 7ec:	5f657469 	svcpl	0x00657469
 7f0:	5f637963 	svcpl	0x00637963
 7f4:	69746e75 	ldmdbvs	r4!, {r0, r2, r4, r5, r6, r9, sl, fp, sp, lr}^
 7f8:	7773006c 	ldrbvc	r0, [r3, -ip, rrx]!
 7fc:	7261755f 	rsbvc	r7, r1, #398458880	; 0x17c00000
 800:	65675f74 	strbvs	r5, [r7, #-3956]!	; 0xf74
 804:	745f6374 	ldrbvc	r6, [pc], #-884	; 80c <_start-0x77f4>
 808:	6f656d69 	svcvs	0x00656d69
 80c:	73007475 	movwvc	r7, #1141	; 0x475
 810:	61755f77 	cmnvs	r5, r7, ror pc
 814:	675f7472 			; <UNDEFINED> instruction: 0x675f7472
 818:	5f737465 	svcpl	0x00737465
 81c:	69746e75 	ldmdbvs	r4!, {r0, r2, r4, r5, r6, r9, sl, fp, sp, lr}^
 820:	7773006c 	ldrbvc	r0, [r3, -ip, rrx]!
 824:	7261755f 	rsbvc	r7, r1, #398458880	; 0x17c00000
 828:	65675f74 	strbvs	r5, [r7, #-3956]!	; 0xf74
 82c:	64006374 	strvs	r6, [r0], #-884	; 0x374
 830:	76697265 	strbtvc	r7, [r9], -r5, ror #4
 834:	64006465 	strvs	r6, [r0], #-1125	; 0x465
 838:	79616c65 	stmdbvc	r1!, {r0, r2, r5, r6, sl, fp, sp, lr}^
 83c:	79636e5f 	stmdbvc	r3!, {r0, r1, r2, r3, r4, r6, r9, sl, fp, sp, lr}^
 840:	73656c63 	cmnvc	r5, #25344	; 0x6300
 844:	5f777300 	svcpl	0x00777300
 848:	74726175 	ldrbtvc	r6, [r2], #-373	; 0x175
 84c:	696e695f 	stmdbvs	lr!, {r0, r1, r2, r3, r4, r6, r8, fp, sp, lr}^
 850:	65685f74 	strbvs	r5, [r8, #-3956]!	; 0xf74
 854:	7265706c 	rsbvc	r7, r5, #108	; 0x6c
 858:	6d697400 	cfstrdvs	mvd7, [r9, #-0]
 85c:	74756f65 	ldrbtvc	r6, [r5], #-3941	; 0xf65
 860:	6573755f 	ldrbvs	r7, [r3, #-1375]!	; 0x55f
 864:	77730063 	ldrbvc	r0, [r3, -r3, rrx]!
 868:	7261755f 	rsbvc	r7, r1, #398458880	; 0x17c00000
 86c:	75705f74 	ldrbvc	r5, [r0, #-3956]!	; 0xf74
 870:	6d006b74 	vstrvs	d6, [r0, #-464]	; 0xfffffe30
 874:	72732d79 	rsbsvc	r2, r3, #7744	; 0x1e40
 878:	77732f63 	ldrbvc	r2, [r3, -r3, ror #30]!
 87c:	7261752d 	rsbvc	r7, r1, #188743680	; 0xb400000
 880:	00632e74 	rsbeq	r2, r3, r4, ror lr
 884:	72616863 	rsbvc	r6, r1, #6488064	; 0x630000
 888:	006e695f 	rsbeq	r6, lr, pc, asr r9
 88c:	755f7773 	ldrbvc	r7, [pc, #-1907]	; 121 <_start-0x7edf>
 890:	5f747261 	svcpl	0x00747261
 894:	73746567 	cmnvc	r4, #432013312	; 0x19c00000
 898:	6d69745f 	cfstrdvs	mvd7, [r9, #-380]!	; 0xfffffe84
 89c:	74756f65 	ldrbtvc	r6, [r5], #-3941	; 0xf65
 8a0:	79626e00 	stmdbvc	r2!, {r9, sl, fp, sp, lr}^
 8a4:	00736574 	rsbseq	r6, r3, r4, ror r5
 8a8:	63657375 	cmnvs	r5, #-738197503	; 0xd4000001
 8ac:	6d69745f 	cfstrdvs	mvd7, [r9, #-380]!	; 0xfffffe84
 8b0:	74756f65 	ldrbtvc	r6, [r5], #-3941	; 0xf65
 8b4:	5f777300 	svcpl	0x00777300
 8b8:	74726175 	ldrbtvc	r6, [r2], #-373	; 0x175
 8bc:	7465675f 	strbtvc	r6, [r5], #-1887	; 0x75f
 8c0:	6e755f73 	mrcvs	15, 3, r5, cr5, cr3, {3}
 8c4:	5f6c6974 	svcpl	0x006c6974
 8c8:	006b6c62 	rsbeq	r6, fp, r2, ror #24
 8cc:	74696177 	strbtvc	r6, [r9], #-375	; 0x177
 8d0:	746e755f 	strbtvc	r7, [lr], #-1375	; 0x55f
 8d4:	755f6c69 	ldrbvc	r6, [pc, #-3177]	; fffffc73 <__bss_end__+0xffff5d73>
 8d8:	00636573 	rsbeq	r6, r3, r3, ror r5
 8dc:	5f585541 	svcpl	0x00585541
 8e0:	4d5f554d 	cfldr64mi	mvdx5, [pc, #-308]	; 7b4 <_start-0x784c>
 8e4:	525f5243 	subspl	r5, pc, #805306372	; 0x30000004
 8e8:	41004745 	tstmi	r0, r5, asr #14
 8ec:	4d5f5855 	ldclmi	8, cr5, [pc, #-340]	; 7a0 <_start-0x7860>
 8f0:	4f495f55 	svcmi	0x00495f55
 8f4:	4745525f 	smlsldmi	r5, r5, pc, r2	; <UNPREDICTABLE>
 8f8:	58554100 	ldmdapl	r5, {r8, lr}^
 8fc:	5f554d5f 	svcpl	0x00554d5f
 900:	5f52534d 	svcpl	0x0052534d
 904:	00474552 	subeq	r4, r7, r2, asr r5
 908:	74726175 	ldrbtvc	r6, [r2], #-373	; 0x175
 90c:	6e61635f 	mcrvs	3, 3, r6, cr1, cr15, {2}
 910:	7465675f 	strbtvc	r6, [r5], #-1887	; 0x75f
 914:	55410063 	strbpl	r0, [r1, #-99]	; 0x63
 918:	554d5f58 	strbpl	r5, [sp, #-3928]	; 0xf58
 91c:	544e435f 	strbpl	r4, [lr], #-863	; 0x35f
 920:	45525f4c 	ldrbmi	r5, [r2, #-3916]	; 0xf4c
 924:	61750047 	cmnvs	r5, r7, asr #32
 928:	685f7472 	ldmdavs	pc, {r1, r4, r5, r6, sl, ip, sp, lr}^	; <UNPREDICTABLE>
 92c:	645f7361 	ldrbvs	r7, [pc], #-865	; 934 <_start-0x76cc>
 930:	00617461 	rsbeq	r7, r1, r1, ror #8
 934:	5f585541 	svcpl	0x00585541
 938:	495f554d 	ldmdbmi	pc, {r0, r2, r3, r6, r8, sl, ip, lr}^	; <UNPREDICTABLE>
 93c:	525f5245 	subspl	r5, pc, #1342177284	; 0x50000004
 940:	41004745 	tstmi	r0, r5, asr #14
 944:	4d5f5855 	ldclmi	8, cr5, [pc, #-340]	; 7f8 <_start-0x7808>
 948:	49495f55 	stmdbmi	r9, {r0, r2, r4, r6, r8, r9, sl, fp, ip, lr}^
 94c:	45525f52 	ldrbmi	r5, [r2, #-3922]	; 0xf52
 950:	61750047 	cmnvs	r5, r7, asr #32
 954:	635f7472 	cmpvs	pc, #1912602624	; 0x72000000
 958:	705f6e61 	subsvc	r6, pc, r1, ror #28
 95c:	00637475 	rsbeq	r7, r3, r5, ror r4
 960:	5f585541 	svcpl	0x00585541
 964:	42414e45 	submi	r4, r1, #1104	; 0x450
 968:	0053454c 	subseq	r4, r3, ip, asr #10
 96c:	5f585541 	svcpl	0x00585541
 970:	00515249 	subseq	r5, r1, r9, asr #4
 974:	5f585541 	svcpl	0x00585541
 978:	425f554d 	subsmi	r5, pc, #322961408	; 0x13400000
 97c:	5f445541 	svcpl	0x00445541
 980:	00474552 	subeq	r4, r7, r2, asr r5
 984:	5f585541 	svcpl	0x00585541
 988:	535f554d 	cmppl	pc, #322961408	; 0x13400000
 98c:	5f544154 	svcpl	0x00544154
 990:	00474552 	subeq	r4, r7, r2, asr r5
 994:	5f585541 	svcpl	0x00585541
 998:	535f554d 	cmppl	pc, #322961408	; 0x13400000
 99c:	54415243 	strbpl	r5, [r1], #-579	; 0x243
 9a0:	6d004843 	stcvs	8, cr4, [r0, #-268]	; 0xfffffef4
 9a4:	72732d79 	rsbsvc	r2, r3, #7744	; 0x1e40
 9a8:	61752f63 	cmnvs	r5, r3, ror #30
 9ac:	632e7472 	teqvs	lr, #1912602624	; 0x72000000
 9b0:	58554100 	ldmdapl	r5, {r8, lr}^
 9b4:	5f554d5f 	svcpl	0x00554d5f
 9b8:	5f52434c 	svcpl	0x0052434c
 9bc:	00474552 	subeq	r4, r7, r2, asr r5
 9c0:	5f585541 	svcpl	0x00585541
 9c4:	4c5f554d 	cfldr64mi	mvdx5, [pc], {77}	; 0x4d
 9c8:	525f5253 	subspl	r5, pc, #805306373	; 0x30000005
 9cc:	75004745 	strvc	r4, [r0, #-1861]	; 0x745
 9d0:	5f747261 	svcpl	0x00747261
 9d4:	63746567 	cmnvs	r4, #432013312	; 0x19c00000
 9d8:	7973615f 	ldmdbvc	r3!, {r0, r1, r2, r3, r4, r6, r8, sp, lr}^
 9dc:	7300636e 	movwvc	r6, #878	; 0x36e
 9e0:	5f657a69 	svcpl	0x00657a69
 9e4:	656d0074 	strbvs	r0, [sp, #-116]!	; 0x74
 9e8:	7465736d 	strbtvc	r7, [r5], #-877	; 0x36d
 9ec:	5f626300 	svcpl	0x00626300
 9f0:	0077656e 	rsbseq	r6, r7, lr, ror #10
 9f4:	34317363 	ldrtcc	r7, [r1], #-867	; 0x363
 9f8:	732d6530 	teqvc	sp, #48, 10	; 0xc000000
 9fc:	632f6372 	teqvs	pc, #-939524095	; 0xc8000001
 a00:	72746e6f 	rsbsvc	r6, r4, #1776	; 0x6f0
 a04:	622d6c6f 	eorvs	r6, sp, #28416	; 0x6f00
 a08:	6b636f6c 	blvs	18dc7c0 <__bss_end__+0x18d28c0>
 a0c:	6c00632e 	stcvs	3, cr6, [r0], {46}	; 0x2e
 a10:	2f636269 	svccs	0x00636269
 a14:	736d656d 	cmnvc	sp, #457179136	; 0x1b400000
 a18:	632e7465 	teqvs	lr, #1694498816	; 0x65000000
	...

Disassembly of section .debug_frame:

00000000 <.debug_frame>:
   0:	0000000c 	andeq	r0, r0, ip
   4:	ffffffff 			; <UNDEFINED> instruction: 0xffffffff
   8:	7c020001 	stcvc	0, cr0, [r2], {1}
   c:	000d0c0e 	andeq	r0, sp, lr, lsl #24
  10:	00000014 	andeq	r0, r0, r4, lsl r0
  14:	00000000 	andeq	r0, r0, r0
  18:	00008010 	andeq	r8, r0, r0, lsl r0
  1c:	00000034 	andeq	r0, r0, r4, lsr r0
  20:	83080e42 	movwhi	r0, #36418	; 0x8e42
  24:	00018e02 	andeq	r8, r1, r2, lsl #28
  28:	0000000c 	andeq	r0, r0, ip
  2c:	ffffffff 			; <UNDEFINED> instruction: 0xffffffff
  30:	7c020001 	stcvc	0, cr0, [r2], {1}
  34:	000d0c0e 	andeq	r0, sp, lr, lsl #24
  38:	00000018 	andeq	r0, r0, r8, lsl r0
  3c:	00000028 	andeq	r0, r0, r8, lsr #32
  40:	00008044 	andeq	r8, r0, r4, asr #32
  44:	000000b4 	strheq	r0, [r0], -r4
  48:	83100e42 	tsthi	r0, #1056	; 0x420
  4c:	85038404 	strhi	r8, [r3, #-1028]	; 0x404
  50:	00018e02 	andeq	r8, r1, r2, lsl #28
  54:	00000014 	andeq	r0, r0, r4, lsl r0
  58:	00000028 	andeq	r0, r0, r8, lsr #32
  5c:	000080f8 	strdeq	r8, [r0], -r8	; <UNPREDICTABLE>
  60:	0000002c 	andeq	r0, r0, ip, lsr #32
  64:	83080e42 	movwhi	r0, #36418	; 0x8e42
  68:	00018e02 	andeq	r8, r1, r2, lsl #28
  6c:	00000014 	andeq	r0, r0, r4, lsl r0
  70:	00000028 	andeq	r0, r0, r8, lsr #32
  74:	00008124 	andeq	r8, r0, r4, lsr #2
  78:	0000002c 	andeq	r0, r0, ip, lsr #32
  7c:	83080e42 	movwhi	r0, #36418	; 0x8e42
  80:	00018e02 	andeq	r8, r1, r2, lsl #28
  84:	0000000c 	andeq	r0, r0, ip
  88:	ffffffff 			; <UNDEFINED> instruction: 0xffffffff
  8c:	7c020001 	stcvc	0, cr0, [r2], {1}
  90:	000d0c0e 	andeq	r0, sp, lr, lsl #24
  94:	00000024 	andeq	r0, r0, r4, lsr #32
  98:	00000084 	andeq	r0, r0, r4, lsl #1
  9c:	00008150 	andeq	r8, r0, r0, asr r1
  a0:	00000058 	andeq	r0, r0, r8, asr r0
  a4:	80100e42 	andshi	r0, r0, r2, asr #28
  a8:	82038104 	andhi	r8, r3, #4, 2
  ac:	42018302 	andmi	r8, r1, #134217728	; 0x8000000
  b0:	07841c0e 	streq	r1, [r4, lr, lsl #24]
  b4:	058e0685 	streq	r0, [lr, #1669]	; 0x685
  b8:	00280e42 	eoreq	r0, r8, r2, asr #28
  bc:	0000000c 	andeq	r0, r0, ip
  c0:	ffffffff 			; <UNDEFINED> instruction: 0xffffffff
  c4:	7c020001 	stcvc	0, cr0, [r2], {1}
  c8:	000d0c0e 	andeq	r0, sp, lr, lsl #24
  cc:	00000014 	andeq	r0, r0, r4, lsl r0
  d0:	000000bc 	strheq	r0, [r0], -ip
  d4:	000081a8 	andeq	r8, r0, r8, lsr #3
  d8:	00000014 	andeq	r0, r0, r4, lsl r0
  dc:	84080e42 	strhi	r0, [r8], #-3650	; 0xe42
  e0:	00018e02 	andeq	r8, r1, r2, lsl #28
  e4:	0000000c 	andeq	r0, r0, ip
  e8:	000000bc 	strheq	r0, [r0], -ip
  ec:	000081bc 			; <UNDEFINED> instruction: 0x000081bc
  f0:	00000018 	andeq	r0, r0, r8, lsl r0
  f4:	0000000c 	andeq	r0, r0, ip
  f8:	000000bc 	strheq	r0, [r0], -ip
  fc:	000081d4 	ldrdeq	r8, [r0], -r4
 100:	00000010 	andeq	r0, r0, r0, lsl r0
 104:	0000000c 	andeq	r0, r0, ip
 108:	ffffffff 			; <UNDEFINED> instruction: 0xffffffff
 10c:	7c020001 	stcvc	0, cr0, [r2], {1}
 110:	000d0c0e 	andeq	r0, sp, lr, lsl #24
 114:	00000018 	andeq	r0, r0, r8, lsl r0
 118:	00000104 	andeq	r0, r0, r4, lsl #2
 11c:	000081e4 	andeq	r8, r0, r4, ror #3
 120:	00000034 	andeq	r0, r0, r4, lsr r0
 124:	83100e42 	tsthi	r0, #1056	; 0x420
 128:	85038404 	strhi	r8, [r3, #-1028]	; 0x404
 12c:	00018e02 	andeq	r8, r1, r2, lsl #28
 130:	0000000c 	andeq	r0, r0, ip
 134:	ffffffff 			; <UNDEFINED> instruction: 0xffffffff
 138:	7c020001 	stcvc	0, cr0, [r2], {1}
 13c:	000d0c0e 	andeq	r0, sp, lr, lsl #24
 140:	0000000c 	andeq	r0, r0, ip
 144:	00000130 	andeq	r0, r0, r0, lsr r1
 148:	00008218 	andeq	r8, r0, r8, lsl r2
 14c:	00000014 	andeq	r0, r0, r4, lsl r0
 150:	0000000c 	andeq	r0, r0, ip
 154:	00000130 	andeq	r0, r0, r0, lsr r1
 158:	0000822c 	andeq	r8, r0, ip, lsr #4
 15c:	0000002c 	andeq	r0, r0, ip, lsr #32
 160:	0000000c 	andeq	r0, r0, ip
 164:	00000130 	andeq	r0, r0, r0, lsr r1
 168:	00008258 	andeq	r8, r0, r8, asr r2
 16c:	00000040 	andeq	r0, r0, r0, asr #32
 170:	00000020 	andeq	r0, r0, r0, lsr #32
 174:	00000130 	andeq	r0, r0, r0, lsr r1
 178:	00008298 	muleq	r0, r8, r2
 17c:	000001a8 	andeq	r0, r0, r8, lsr #3
 180:	84180e42 	ldrhi	r0, [r8], #-3650	; 0xe42
 184:	86058506 	strhi	r8, [r5], -r6, lsl #10
 188:	88038704 	stmdahi	r3, {r2, r8, r9, sl, pc}
 18c:	42018e02 	andmi	r8, r1, #2, 28
 190:	0000600e 	andeq	r6, r0, lr
 194:	00000014 	andeq	r0, r0, r4, lsl r0
 198:	00000130 	andeq	r0, r0, r0, lsr r1
 19c:	00008440 	andeq	r8, r0, r0, asr #8
 1a0:	00000068 	andeq	r0, r0, r8, rrx
 1a4:	8e040e42 	cdphi	14, 0, cr0, cr4, cr2, {2}
 1a8:	100e4201 	andne	r4, lr, r1, lsl #4
 1ac:	00000028 	andeq	r0, r0, r8, lsr #32
 1b0:	00000130 	andeq	r0, r0, r0, lsr r1
 1b4:	000084a8 	andeq	r8, r0, r8, lsr #9
 1b8:	00000294 	muleq	r0, r4, r2
 1bc:	84240e42 	strthi	r0, [r4], #-3650	; 0xe42
 1c0:	86088509 	strhi	r8, [r8], -r9, lsl #10
 1c4:	88068707 	stmdahi	r6, {r0, r1, r2, r8, r9, sl, pc}
 1c8:	8a048905 	bhi	1225e4 <__bss_end__+0x1186e4>
 1cc:	8e028b03 	vmlahi.f64	d8, d2, d3
 1d0:	b00e4201 	andlt	r4, lr, r1, lsl #4
 1d4:	00000001 	andeq	r0, r0, r1
 1d8:	0000000c 	andeq	r0, r0, ip
 1dc:	ffffffff 			; <UNDEFINED> instruction: 0xffffffff
 1e0:	7c020001 	stcvc	0, cr0, [r2], {1}
 1e4:	000d0c0e 	andeq	r0, sp, lr, lsl #24
 1e8:	00000014 	andeq	r0, r0, r4, lsl r0
 1ec:	000001d8 	ldrdeq	r0, [r0], -r8
 1f0:	0000873c 	andeq	r8, r0, ip, lsr r7
 1f4:	00000028 	andeq	r0, r0, r8, lsr #32
 1f8:	83080e42 	movwhi	r0, #36418	; 0x8e42
 1fc:	00018e02 	andeq	r8, r1, r2, lsl #28
 200:	0000000c 	andeq	r0, r0, ip
 204:	ffffffff 			; <UNDEFINED> instruction: 0xffffffff
 208:	7c020001 	stcvc	0, cr0, [r2], {1}
 20c:	000d0c0e 	andeq	r0, sp, lr, lsl #24
 210:	00000014 	andeq	r0, r0, r4, lsl r0
 214:	00000200 	andeq	r0, r0, r0, lsl #4
 218:	00008764 	andeq	r8, r0, r4, ror #14
 21c:	00000020 	andeq	r0, r0, r0, lsr #32
 220:	84080e42 	strhi	r0, [r8], #-3650	; 0xe42
 224:	00018e02 	andeq	r8, r1, r2, lsl #28
 228:	00000014 	andeq	r0, r0, r4, lsl r0
 22c:	00000200 	andeq	r0, r0, r0, lsl #4
 230:	00008784 	andeq	r8, r0, r4, lsl #15
 234:	00000090 	muleq	r0, r0, r0
 238:	83080e42 	movwhi	r0, #36418	; 0x8e42
 23c:	00018e02 	andeq	r8, r1, r2, lsl #28
 240:	0000000c 	andeq	r0, r0, ip
 244:	ffffffff 			; <UNDEFINED> instruction: 0xffffffff
 248:	7c020001 	stcvc	0, cr0, [r2], {1}
 24c:	000d0c0e 	andeq	r0, sp, lr, lsl #24
 250:	0000000c 	andeq	r0, r0, ip
 254:	00000240 	andeq	r0, r0, r0, asr #4
 258:	00008814 	andeq	r8, r0, r4, lsl r8
 25c:	00000018 	andeq	r0, r0, r8, lsl r0
 260:	0000000c 	andeq	r0, r0, ip
 264:	00000240 	andeq	r0, r0, r0, asr #4
 268:	0000882c 	andeq	r8, r0, ip, lsr #16
 26c:	00000014 	andeq	r0, r0, r4, lsl r0
 270:	00000014 	andeq	r0, r0, r4, lsl r0
 274:	00000240 	andeq	r0, r0, r0, asr #4
 278:	00008840 	andeq	r8, r0, r0, asr #16
 27c:	00000048 	andeq	r0, r0, r8, asr #32
 280:	83080e42 	movwhi	r0, #36418	; 0x8e42
 284:	00018e02 	andeq	r8, r1, r2, lsl #28
 288:	0000000c 	andeq	r0, r0, ip
 28c:	ffffffff 			; <UNDEFINED> instruction: 0xffffffff
 290:	7c020001 	stcvc	0, cr0, [r2], {1}
 294:	000d0c0e 	andeq	r0, sp, lr, lsl #24
 298:	0000000c 	andeq	r0, r0, ip
 29c:	00000288 	andeq	r0, r0, r8, lsl #5
 2a0:	00008888 	andeq	r8, r0, r8, lsl #17
 2a4:	0000001c 	andeq	r0, r0, ip, lsl r0
 2a8:	00000014 	andeq	r0, r0, r4, lsl r0
 2ac:	00000288 	andeq	r0, r0, r8, lsl #5
 2b0:	000088a4 	andeq	r8, r0, r4, lsr #17
 2b4:	00000014 	andeq	r0, r0, r4, lsl r0
 2b8:	83080e42 	movwhi	r0, #36418	; 0x8e42
 2bc:	00018e02 	andeq	r8, r1, r2, lsl #28
 2c0:	00000014 	andeq	r0, r0, r4, lsl r0
 2c4:	00000288 	andeq	r0, r0, r8, lsl #5
 2c8:	000088b8 			; <UNDEFINED> instruction: 0x000088b8
 2cc:	0000000c 	andeq	r0, r0, ip
 2d0:	83080e42 	movwhi	r0, #36418	; 0x8e42
 2d4:	00018e02 	andeq	r8, r1, r2, lsl #28
 2d8:	00000018 	andeq	r0, r0, r8, lsl r0
 2dc:	00000288 	andeq	r0, r0, r8, lsl #5
 2e0:	000088c4 	andeq	r8, r0, r4, asr #17
 2e4:	00000024 	andeq	r0, r0, r4, lsr #32
 2e8:	83100e42 	tsthi	r0, #1056	; 0x420
 2ec:	85038404 	strhi	r8, [r3, #-1028]	; 0x404
 2f0:	00018e02 	andeq	r8, r1, r2, lsl #28
 2f4:	00000014 	andeq	r0, r0, r4, lsl r0
 2f8:	00000288 	andeq	r0, r0, r8, lsl #5
 2fc:	000088e8 	andeq	r8, r0, r8, ror #17
 300:	00000014 	andeq	r0, r0, r4, lsl r0
 304:	83080e42 	movwhi	r0, #36418	; 0x8e42
 308:	00018e02 	andeq	r8, r1, r2, lsl #28
 30c:	00000014 	andeq	r0, r0, r4, lsl r0
 310:	00000288 	andeq	r0, r0, r8, lsl #5
 314:	000088fc 	strdeq	r8, [r0], -ip
 318:	00000014 	andeq	r0, r0, r4, lsl r0
 31c:	83080e42 	movwhi	r0, #36418	; 0x8e42
 320:	00018e02 	andeq	r8, r1, r2, lsl #28
 324:	0000000c 	andeq	r0, r0, ip
 328:	ffffffff 			; <UNDEFINED> instruction: 0xffffffff
 32c:	7c020001 	stcvc	0, cr0, [r2], {1}
 330:	000d0c0e 	andeq	r0, sp, lr, lsl #24
 334:	00000018 	andeq	r0, r0, r8, lsl r0
 338:	00000324 	andeq	r0, r0, r4, lsr #6
 33c:	00008910 	andeq	r8, r0, r0, lsl r9
 340:	000000d4 	ldrdeq	r0, [r0], -r4
 344:	83100e42 	tsthi	r0, #1056	; 0x420
 348:	85038404 	strhi	r8, [r3, #-1028]	; 0x404
 34c:	00018e02 	andeq	r8, r1, r2, lsl #28
 350:	00000014 	andeq	r0, r0, r4, lsl r0
 354:	00000324 	andeq	r0, r0, r4, lsr #6
 358:	000089e4 	andeq	r8, r0, r4, ror #19
 35c:	00000038 	andeq	r0, r0, r8, lsr r0
 360:	83080e42 	movwhi	r0, #36418	; 0x8e42
 364:	00018e02 	andeq	r8, r1, r2, lsl #28
 368:	00000014 	andeq	r0, r0, r4, lsl r0
 36c:	00000324 	andeq	r0, r0, r4, lsr #6
 370:	00008a1c 	andeq	r8, r0, ip, lsl sl
 374:	00000038 	andeq	r0, r0, r8, lsr r0
 378:	83080e42 	movwhi	r0, #36418	; 0x8e42
 37c:	00018e02 	andeq	r8, r1, r2, lsl #28
 380:	00000018 	andeq	r0, r0, r8, lsl r0
 384:	00000324 	andeq	r0, r0, r4, lsr #6
 388:	00008a54 	andeq	r8, r0, r4, asr sl
 38c:	000000cc 	andeq	r0, r0, ip, asr #1
 390:	83100e42 	tsthi	r0, #1056	; 0x420
 394:	85038404 	strhi	r8, [r3, #-1028]	; 0x404
 398:	00018e02 	andeq	r8, r1, r2, lsl #28
 39c:	00000014 	andeq	r0, r0, r4, lsl r0
 3a0:	00000324 	andeq	r0, r0, r4, lsr #6
 3a4:	00008b20 	andeq	r8, r0, r0, lsr #22
 3a8:	0000004c 	andeq	r0, r0, ip, asr #32
 3ac:	84080e42 	strhi	r0, [r8], #-3650	; 0xe42
 3b0:	00018e02 	andeq	r8, r1, r2, lsl #28
 3b4:	00000014 	andeq	r0, r0, r4, lsl r0
 3b8:	00000324 	andeq	r0, r0, r4, lsr #6
 3bc:	00008b6c 	andeq	r8, r0, ip, ror #22
 3c0:	00000024 	andeq	r0, r0, r4, lsr #32
 3c4:	83080e42 	movwhi	r0, #36418	; 0x8e42
 3c8:	00018e02 	andeq	r8, r1, r2, lsl #28
 3cc:	00000018 	andeq	r0, r0, r8, lsl r0
 3d0:	00000324 	andeq	r0, r0, r4, lsr #6
 3d4:	00008b90 	muleq	r0, r0, fp
 3d8:	000000d8 	ldrdeq	r0, [r0], -r8
 3dc:	84100e42 	ldrhi	r0, [r0], #-3650	; 0xe42
 3e0:	86038504 	strhi	r8, [r3], -r4, lsl #10
 3e4:	00018e02 	andeq	r8, r1, r2, lsl #28
 3e8:	00000014 	andeq	r0, r0, r4, lsl r0
 3ec:	00000324 	andeq	r0, r0, r4, lsr #6
 3f0:	00008c68 	andeq	r8, r0, r8, ror #24
 3f4:	00000038 	andeq	r0, r0, r8, lsr r0
 3f8:	83080e42 	movwhi	r0, #36418	; 0x8e42
 3fc:	00018e02 	andeq	r8, r1, r2, lsl #28
 400:	00000014 	andeq	r0, r0, r4, lsl r0
 404:	00000324 	andeq	r0, r0, r4, lsr #6
 408:	00008ca0 	andeq	r8, r0, r0, lsr #25
 40c:	0000002c 	andeq	r0, r0, ip, lsr #32
 410:	83080e42 	movwhi	r0, #36418	; 0x8e42
 414:	00018e02 	andeq	r8, r1, r2, lsl #28
 418:	00000018 	andeq	r0, r0, r8, lsl r0
 41c:	00000324 	andeq	r0, r0, r4, lsr #6
 420:	00008ccc 	andeq	r8, r0, ip, asr #25
 424:	00000084 	andeq	r0, r0, r4, lsl #1
 428:	83100e42 	tsthi	r0, #1056	; 0x420
 42c:	85038404 	strhi	r8, [r3, #-1028]	; 0x404
 430:	00018e02 	andeq	r8, r1, r2, lsl #28
 434:	00000018 	andeq	r0, r0, r8, lsl r0
 438:	00000324 	andeq	r0, r0, r4, lsr #6
 43c:	00008d50 	andeq	r8, r0, r0, asr sp
 440:	00000084 	andeq	r0, r0, r4, lsl #1
 444:	83100e42 	tsthi	r0, #1056	; 0x420
 448:	85038404 	strhi	r8, [r3, #-1028]	; 0x404
 44c:	00018e02 	andeq	r8, r1, r2, lsl #28
 450:	00000014 	andeq	r0, r0, r4, lsl r0
 454:	00000324 	andeq	r0, r0, r4, lsr #6
 458:	00008dd4 	ldrdeq	r8, [r0], -r4
 45c:	00000084 	andeq	r0, r0, r4, lsl #1
 460:	84080e42 	strhi	r0, [r8], #-3650	; 0xe42
 464:	00018e02 	andeq	r8, r1, r2, lsl #28
 468:	00000014 	andeq	r0, r0, r4, lsl r0
 46c:	00000324 	andeq	r0, r0, r4, lsr #6
 470:	00008e58 	andeq	r8, r0, r8, asr lr
 474:	00000058 	andeq	r0, r0, r8, asr r0
 478:	84080e42 	strhi	r0, [r8], #-3650	; 0xe42
 47c:	00018e02 	andeq	r8, r1, r2, lsl #28
 480:	0000000c 	andeq	r0, r0, ip
 484:	ffffffff 			; <UNDEFINED> instruction: 0xffffffff
 488:	7c020001 	stcvc	0, cr0, [r2], {1}
 48c:	000d0c0e 	andeq	r0, sp, lr, lsl #24
 490:	0000001c 	andeq	r0, r0, ip, lsl r0
 494:	00000480 	andeq	r0, r0, r0, lsl #9
 498:	00008eb0 			; <UNDEFINED> instruction: 0x00008eb0
 49c:	00000154 	andeq	r0, r0, r4, asr r1
 4a0:	84180e42 	ldrhi	r0, [r8], #-3650	; 0xe42
 4a4:	86058506 	strhi	r8, [r5], -r6, lsl #10
 4a8:	88038704 	stmdahi	r3, {r2, r8, r9, sl, pc}
 4ac:	00018e02 	andeq	r8, r1, r2, lsl #28
 4b0:	00000020 	andeq	r0, r0, r0, lsr #32
 4b4:	00000480 	andeq	r0, r0, r0, lsl #9
 4b8:	00009004 	andeq	r9, r0, r4
 4bc:	000001c8 	andeq	r0, r0, r8, asr #3
 4c0:	83200e42 	teqhi	r0, #1056	; 0x420
 4c4:	85078408 	strhi	r8, [r7, #-1032]	; 0x408
 4c8:	87058606 	strhi	r8, [r5, -r6, lsl #12]
 4cc:	89038804 	stmdbhi	r3, {r2, fp, pc}
 4d0:	00018e02 	andeq	r8, r1, r2, lsl #28
 4d4:	00000024 	andeq	r0, r0, r4, lsr #32
 4d8:	00000480 	andeq	r0, r0, r0, lsl #9
 4dc:	000091cc 	andeq	r9, r0, ip, asr #3
 4e0:	000000a4 	andeq	r0, r0, r4, lsr #1
 4e4:	84200e42 	strthi	r0, [r0], #-3650	; 0xe42
 4e8:	86078508 	strhi	r8, [r7], -r8, lsl #10
 4ec:	88058706 	stmdahi	r5, {r1, r2, r8, r9, sl, pc}
 4f0:	8a038904 	bhi	e2908 <__bss_end__+0xd8a08>
 4f4:	42018e02 	andmi	r8, r1, #2, 28
 4f8:	0000280e 	andeq	r2, r0, lr, lsl #16
 4fc:	00000020 	andeq	r0, r0, r0, lsr #32
 500:	00000480 	andeq	r0, r0, r0, lsl #9
 504:	00009270 	andeq	r9, r0, r0, ror r2
 508:	00000090 	muleq	r0, r0, r0
 50c:	84180e42 	ldrhi	r0, [r8], #-3650	; 0xe42
 510:	86058506 	strhi	r8, [r5], -r6, lsl #10
 514:	88038704 	stmdahi	r3, {r2, r8, r9, sl, pc}
 518:	42018e02 	andmi	r8, r1, #2, 28
 51c:	0000200e 	andeq	r2, r0, lr
 520:	00000020 	andeq	r0, r0, r0, lsr #32
 524:	00000480 	andeq	r0, r0, r0, lsl #9
 528:	00009300 	andeq	r9, r0, r0, lsl #6
 52c:	000000d4 	ldrdeq	r0, [r0], -r4
 530:	84180e42 	ldrhi	r0, [r8], #-3650	; 0xe42
 534:	86058506 	strhi	r8, [r5], -r6, lsl #10
 538:	88038704 	stmdahi	r3, {r2, r8, r9, sl, pc}
 53c:	42018e02 	andmi	r8, r1, #2, 28
 540:	0000200e 	andeq	r2, r0, lr
 544:	00000014 	andeq	r0, r0, r4, lsl r0
 548:	00000480 	andeq	r0, r0, r0, lsl #9
 54c:	000093d4 	ldrdeq	r9, [r0], -r4
 550:	0000003c 	andeq	r0, r0, ip, lsr r0
 554:	83080e42 	movwhi	r0, #36418	; 0x8e42
 558:	00018e02 	andeq	r8, r1, r2, lsl #28
 55c:	00000018 	andeq	r0, r0, r8, lsl r0
 560:	00000480 	andeq	r0, r0, r0, lsl #9
 564:	00009410 	andeq	r9, r0, r0, lsl r4
 568:	0000002c 	andeq	r0, r0, ip, lsr #32
 56c:	83100e42 	tsthi	r0, #1056	; 0x420
 570:	85038404 	strhi	r8, [r3, #-1028]	; 0x404
 574:	00018e02 	andeq	r8, r1, r2, lsl #28
 578:	00000024 	andeq	r0, r0, r4, lsr #32
 57c:	00000480 	andeq	r0, r0, r0, lsl #9
 580:	0000943c 	andeq	r9, r0, ip, lsr r4
 584:	00000090 	muleq	r0, r0, r0
 588:	810c0e42 	tsthi	ip, r2, asr #28
 58c:	83028203 	movwhi	r8, #8707	; 0x2203
 590:	180e4201 	stmdane	lr, {r0, r9, lr}
 594:	05850684 	streq	r0, [r5, #1668]	; 0x684
 598:	0e42048e 	cdpeq	4, 4, cr0, cr2, cr14, {4}
 59c:	000003f0 	strdeq	r0, [r0], -r0	; <UNPREDICTABLE>
 5a0:	00000014 	andeq	r0, r0, r4, lsl r0
 5a4:	00000480 	andeq	r0, r0, r0, lsl #9
 5a8:	000094cc 	andeq	r9, r0, ip, asr #9
 5ac:	0000004c 	andeq	r0, r0, ip, asr #32
 5b0:	8e040e42 	cdphi	14, 0, cr0, cr4, cr2, {2}
 5b4:	100e4201 	andne	r4, lr, r1, lsl #4
 5b8:	0000000c 	andeq	r0, r0, ip
 5bc:	ffffffff 			; <UNDEFINED> instruction: 0xffffffff
 5c0:	7c020001 	stcvc	0, cr0, [r2], {1}
 5c4:	000d0c0e 	andeq	r0, sp, lr, lsl #24
 5c8:	00000018 	andeq	r0, r0, r8, lsl r0
 5cc:	000005b8 			; <UNDEFINED> instruction: 0x000005b8
 5d0:	00009518 	andeq	r9, r0, r8, lsl r5
 5d4:	0000009c 	muleq	r0, ip, r0
 5d8:	83100e42 	tsthi	r0, #1056	; 0x420
 5dc:	85038404 	strhi	r8, [r3, #-1028]	; 0x404
 5e0:	00018e02 	andeq	r8, r1, r2, lsl #28
 5e4:	00000014 	andeq	r0, r0, r4, lsl r0
 5e8:	000005b8 			; <UNDEFINED> instruction: 0x000005b8
 5ec:	000095b4 			; <UNDEFINED> instruction: 0x000095b4
 5f0:	0000001c 	andeq	r0, r0, ip, lsl r0
 5f4:	83080e42 	movwhi	r0, #36418	; 0x8e42
 5f8:	00018e02 	andeq	r8, r1, r2, lsl #28
 5fc:	00000014 	andeq	r0, r0, r4, lsl r0
 600:	000005b8 			; <UNDEFINED> instruction: 0x000005b8
 604:	000095d0 	ldrdeq	r9, [r0], -r0
 608:	00000028 	andeq	r0, r0, r8, lsr #32
 60c:	83080e42 	movwhi	r0, #36418	; 0x8e42
 610:	00018e02 	andeq	r8, r1, r2, lsl #28
 614:	00000014 	andeq	r0, r0, r4, lsl r0
 618:	000005b8 			; <UNDEFINED> instruction: 0x000005b8
 61c:	000095f8 	strdeq	r9, [r0], -r8
 620:	0000001c 	andeq	r0, r0, ip, lsl r0
 624:	83080e42 	movwhi	r0, #36418	; 0x8e42
 628:	00018e02 	andeq	r8, r1, r2, lsl #28
 62c:	00000014 	andeq	r0, r0, r4, lsl r0
 630:	000005b8 			; <UNDEFINED> instruction: 0x000005b8
 634:	00009614 	andeq	r9, r0, r4, lsl r6
 638:	0000002c 	andeq	r0, r0, ip, lsr #32
 63c:	84080e42 	strhi	r0, [r8], #-3650	; 0xe42
 640:	00018e02 	andeq	r8, r1, r2, lsl #28
 644:	00000014 	andeq	r0, r0, r4, lsl r0
 648:	000005b8 			; <UNDEFINED> instruction: 0x000005b8
 64c:	00009640 	andeq	r9, r0, r0, asr #12
 650:	0000000c 	andeq	r0, r0, ip
 654:	83080e42 	movwhi	r0, #36418	; 0x8e42
 658:	00018e02 	andeq	r8, r1, r2, lsl #28
 65c:	00000014 	andeq	r0, r0, r4, lsl r0
 660:	000005b8 			; <UNDEFINED> instruction: 0x000005b8
 664:	0000964c 	andeq	r9, r0, ip, asr #12
 668:	00000020 	andeq	r0, r0, r0, lsr #32
 66c:	83080e42 	movwhi	r0, #36418	; 0x8e42
 670:	00018e02 	andeq	r8, r1, r2, lsl #28
 674:	0000000c 	andeq	r0, r0, ip
 678:	ffffffff 			; <UNDEFINED> instruction: 0xffffffff
 67c:	7c020001 	stcvc	0, cr0, [r2], {1}
 680:	000d0c0e 	andeq	r0, sp, lr, lsl #24
 684:	00000014 	andeq	r0, r0, r4, lsl r0
 688:	00000674 	andeq	r0, r0, r4, ror r6
 68c:	000096d0 	ldrdeq	r9, [r0], -r0
 690:	00000028 	andeq	r0, r0, r8, lsr #32
 694:	83080e42 	movwhi	r0, #36418	; 0x8e42
 698:	00018e02 	andeq	r8, r1, r2, lsl #28
 69c:	0000000c 	andeq	r0, r0, ip
 6a0:	00000674 	andeq	r0, r0, r4, ror r6
 6a4:	000096f8 	strdeq	r9, [r0], -r8
 6a8:	00000028 	andeq	r0, r0, r8, lsr #32
 6ac:	0000000c 	andeq	r0, r0, ip
 6b0:	ffffffff 			; <UNDEFINED> instruction: 0xffffffff
 6b4:	7c020001 	stcvc	0, cr0, [r2], {1}
 6b8:	000d0c0e 	andeq	r0, sp, lr, lsl #24
 6bc:	0000000c 	andeq	r0, r0, ip
 6c0:	000006ac 	andeq	r0, r0, ip, lsr #13
 6c4:	00009720 	andeq	r9, r0, r0, lsr #14
 6c8:	00000020 	andeq	r0, r0, r0, lsr #32

Disassembly of section .debug_loc:

00000000 <.debug_loc>:
       0:	00000000 	andeq	r0, r0, r0
       4:	00000010 	andeq	r0, r0, r0, lsl r0
       8:	10500001 	subsne	r0, r0, r1
       c:	44000000 	strmi	r0, [r0], #-0
      10:	01000000 	mrseq	r0, (UNDEF: 0)
      14:	00445500 	subeq	r5, r4, r0, lsl #10
      18:	00b40000 	adcseq	r0, r4, r0
      1c:	00040000 	andeq	r0, r4, r0
      20:	9f5001f3 	svcls	0x005001f3
	...
      2c:	0000001c 	andeq	r0, r0, ip, lsl r0
      30:	00000053 	andeq	r0, r0, r3, asr r0
      34:	58520001 	ldmdapl	r2, {r0}^
      38:	77000000 	strvc	r0, [r0, -r0]
      3c:	01000000 	mrseq	r0, (UNDEF: 0)
      40:	007c5200 	rsbseq	r5, ip, r0, lsl #4
      44:	00970000 	addseq	r0, r7, r0
      48:	00010000 	andeq	r0, r1, r0
      4c:	00009c52 	andeq	r9, r0, r2, asr ip
      50:	0000b400 	andeq	fp, r0, r0, lsl #8
      54:	52000100 	andpl	r0, r0, #0, 2
	...
      60:	0000002c 	andeq	r0, r0, ip, lsr #32
      64:	00000038 	andeq	r0, r0, r8, lsr r0
      68:	9f300002 	svcls	0x00300002
      6c:	00000038 	andeq	r0, r0, r8, lsr r0
      70:	00000038 	andeq	r0, r0, r8, lsr r0
      74:	38540001 	ldmdacc	r4, {r0}^
      78:	40000000 	andmi	r0, r0, r0
      7c:	02000000 	andeq	r0, r0, #0
      80:	409f3000 	addsmi	r3, pc, r0
      84:	b4000000 	strlt	r0, [r0], #-0
      88:	01000000 	mrseq	r0, (UNDEF: 0)
      8c:	00005400 	andeq	r5, r0, r0, lsl #8
      90:	00000000 	andeq	r0, r0, r0
      94:	001c0000 	andseq	r0, ip, r0
      98:	00530000 	subseq	r0, r3, r0
      9c:	00010000 	andeq	r0, r1, r0
      a0:	00000052 	andeq	r0, r0, r2, asr r0
      a4:	00000000 	andeq	r0, r0, r0
      a8:	00002000 	andeq	r2, r0, r0
      ac:	00002400 	andeq	r2, r0, r0, lsl #8
      b0:	53000100 	movwpl	r0, #256	; 0x100
	...
      bc:	00000058 	andeq	r0, r0, r8, asr r0
      c0:	00000077 	andeq	r0, r0, r7, ror r0
      c4:	00520001 	subseq	r0, r2, r1
      c8:	00000000 	andeq	r0, r0, r0
      cc:	5c000000 	stcpl	0, cr0, [r0], {-0}
      d0:	60000000 	andvs	r0, r0, r0
      d4:	01000000 	mrseq	r0, (UNDEF: 0)
      d8:	00005300 	andeq	r5, r0, r0, lsl #6
      dc:	00000000 	andeq	r0, r0, r0
      e0:	007c0000 	rsbseq	r0, ip, r0
      e4:	00970000 	addseq	r0, r7, r0
      e8:	00010000 	andeq	r0, r1, r0
      ec:	00000052 	andeq	r0, r0, r2, asr r0
      f0:	00000000 	andeq	r0, r0, r0
      f4:	00008000 	andeq	r8, r0, r0
      f8:	00008400 	andeq	r8, r0, r0, lsl #8
      fc:	53000100 	movwpl	r0, #256	; 0x100
	...
     108:	000000a0 	andeq	r0, r0, r0, lsr #1
     10c:	000000a4 	andeq	r0, r0, r4, lsr #1
     110:	00530001 	subseq	r0, r3, r1
     114:	00000000 	andeq	r0, r0, r0
     118:	b4000000 	strlt	r0, [r0], #-0
     11c:	bb000000 	bllt	124 <_start-0x7edc>
     120:	01000000 	mrseq	r0, (UNDEF: 0)
     124:	00bb5000 	adcseq	r5, fp, r0
     128:	00e00000 	rsceq	r0, r0, r0
     12c:	00040000 	andeq	r0, r4, r0
     130:	9f5001f3 	svcls	0x005001f3
	...
     13c:	000000e0 	andeq	r0, r0, r0, ror #1
     140:	000000e7 	andeq	r0, r0, r7, ror #1
     144:	e7500001 	ldrb	r0, [r0, -r1]
     148:	0c000000 	stceq	0, cr0, [r0], {-0}
     14c:	04000001 	streq	r0, [r0], #-1
     150:	5001f300 	andpl	pc, r1, r0, lsl #6
     154:	0000009f 	muleq	r0, pc, r0	; <UNPREDICTABLE>
     158:	00000000 	andeq	r0, r0, r0
     15c:	00002c00 	andeq	r2, r0, r0, lsl #24
     160:	00003800 	andeq	r3, r0, r0, lsl #16
     164:	50000100 	andpl	r0, r0, r0, lsl #2
     168:	00000038 	andeq	r0, r0, r8, lsr r0
     16c:	00000048 	andeq	r0, r0, r8, asr #32
     170:	48550001 	ldmdami	r5, {r0}^
     174:	58000000 	stmdapl	r0, {}	; <UNPREDICTABLE>
     178:	01000000 	mrseq	r0, (UNDEF: 0)
     17c:	00005000 	andeq	r5, r0, r0
	...
     188:	000b0000 	andeq	r0, fp, r0
     18c:	00010000 	andeq	r0, r1, r0
     190:	00000b50 	andeq	r0, r0, r0, asr fp
     194:	00001400 	andeq	r1, r0, r0, lsl #8
     198:	54000100 	strpl	r0, [r0], #-256	; 0x100
	...
     1a8:	00000010 	andeq	r0, r0, r0, lsl r0
     1ac:	10500001 	subsne	r0, r0, r1
     1b0:	34000000 	strcc	r0, [r0], #-0
     1b4:	01000000 	mrseq	r0, (UNDEF: 0)
     1b8:	00005400 	andeq	r5, r0, r0, lsl #8
	...
     1c4:	00040000 	andeq	r0, r4, r0
     1c8:	00010000 	andeq	r0, r1, r0
     1cc:	00000450 	andeq	r0, r0, r0, asr r4
     1d0:	00000c00 	andeq	r0, r0, r0, lsl #24
     1d4:	70000300 	andvc	r0, r0, r0, lsl #6
     1d8:	000c9f30 	andeq	r9, ip, r0, lsr pc
     1dc:	00140000 	andseq	r0, r4, r0
     1e0:	00040000 	andeq	r0, r4, r0
     1e4:	9f5001f3 	svcls	0x005001f3
	...
     1f0:	00000014 	andeq	r0, r0, r4, lsl r0
     1f4:	00000020 	andeq	r0, r0, r0, lsr #32
     1f8:	20500001 	subscs	r0, r0, r1
     1fc:	2c000000 	stccs	0, cr0, [r0], {-0}
     200:	03000000 	movweq	r0, #0
     204:	9f017000 	svcls	0x00017000
     208:	0000002c 	andeq	r0, r0, ip, lsr #32
     20c:	00000040 	andeq	r0, r0, r0, asr #32
     210:	00500001 	subseq	r0, r0, r1
     214:	00000000 	andeq	r0, r0, r0
     218:	14000000 	strne	r0, [r0], #-0
     21c:	18000000 	stmdane	r0, {}	; <UNPREDICTABLE>
     220:	01000000 	mrseq	r0, (UNDEF: 0)
     224:	00185100 	andseq	r5, r8, r0, lsl #2
     228:	00400000 	subeq	r0, r0, r0
     22c:	00040000 	andeq	r0, r4, r0
     230:	9f5101f3 	svcls	0x005101f3
	...
     23c:	00000040 	andeq	r0, r0, r0, asr #32
     240:	00000060 	andeq	r0, r0, r0, rrx
     244:	60500001 	subsvs	r0, r0, r1
     248:	6c000000 	stcvs	0, cr0, [r0], {-0}
     24c:	03000000 	movweq	r0, #0
     250:	9f017100 	svcls	0x00017100
     254:	0000006c 	andeq	r0, r0, ip, rrx
     258:	00000074 	andeq	r0, r0, r4, ror r0
     25c:	74510001 	ldrbvc	r0, [r1], #-1
     260:	80000000 	andhi	r0, r0, r0
     264:	03000000 	movweq	r0, #0
     268:	9f017100 	svcls	0x00017100
	...
     274:	00000040 	andeq	r0, r0, r0, asr #32
     278:	00000050 	andeq	r0, r0, r0, asr r0
     27c:	50510001 	subspl	r0, r1, r1
     280:	80000000 	andhi	r0, r0, r0
     284:	04000000 	streq	r0, [r0], #-0
     288:	5101f300 	mrspl	pc, SP_irq	; <UNPREDICTABLE>
     28c:	0000009f 	muleq	r0, pc, r0	; <UNPREDICTABLE>
     290:	00000000 	andeq	r0, r0, r0
     294:	00004000 	andeq	r4, r0, r0
     298:	00005800 	andeq	r5, r0, r0, lsl #16
     29c:	52000100 	andpl	r0, r0, #0, 2
     2a0:	00000058 	andeq	r0, r0, r8, asr r0
     2a4:	00000064 	andeq	r0, r0, r4, rrx
     2a8:	64520001 	ldrbvs	r0, [r2], #-1
     2ac:	68000000 	stmdavs	r0, {}	; <UNPREDICTABLE>
     2b0:	03000000 	movweq	r0, #0
     2b4:	9f017200 	svcls	0x00017200
     2b8:	00000068 	andeq	r0, r0, r8, rrx
     2bc:	00000080 	andeq	r0, r0, r0, lsl #1
     2c0:	00520001 	subseq	r0, r2, r1
     2c4:	00000000 	andeq	r0, r0, r0
     2c8:	40000000 	andmi	r0, r0, r0
     2cc:	54000000 	strpl	r0, [r0], #-0
     2d0:	01000000 	mrseq	r0, (UNDEF: 0)
     2d4:	00545300 	subseq	r5, r4, r0, lsl #6
     2d8:	00780000 	rsbseq	r0, r8, r0
     2dc:	00010000 	andeq	r0, r1, r0
     2e0:	00000053 	andeq	r0, r0, r3, asr r0
     2e4:	00000000 	andeq	r0, r0, r0
     2e8:	00004800 	andeq	r4, r0, r0, lsl #16
     2ec:	00006000 	andeq	r6, r0, r0
     2f0:	5c000100 	stfpls	f0, [r0], {-0}
     2f4:	00000060 	andeq	r0, r0, r0, rrx
     2f8:	00000080 	andeq	r0, r0, r0, lsl #1
     2fc:	01f3000a 	mvnseq	r0, sl
     300:	5301f352 	movwpl	pc, #4946	; 0x1352	; <UNPREDICTABLE>
     304:	9f01231c 	svcls	0x0001231c
	...
     310:	00000080 	andeq	r0, r0, r0, lsl #1
     314:	000000a4 	andeq	r0, r0, r4, lsr #1
     318:	a4500001 	ldrbge	r0, [r0], #-1
     31c:	18000000 	stmdane	r0, {}	; <UNPREDICTABLE>
     320:	03000001 	movweq	r0, #1
     324:	9f027000 	svcls	0x00027000
     328:	00000118 	andeq	r0, r0, r8, lsl r1
     32c:	00000228 	andeq	r0, r0, r8, lsr #4
     330:	01f30004 	mvnseq	r0, r4
     334:	00009f50 	andeq	r9, r0, r0, asr pc
     338:	00000000 	andeq	r0, r0, r0
     33c:	00800000 	addeq	r0, r0, r0
     340:	00f00000 	rscseq	r0, r0, r0
     344:	00010000 	andeq	r0, r1, r0
     348:	0000f051 	andeq	pc, r0, r1, asr r0	; <UNPREDICTABLE>
     34c:	00016000 	andeq	r6, r1, r0
     350:	55000100 	strpl	r0, [r0, #-256]	; 0x100
     354:	00000160 	andeq	r0, r0, r0, ror #2
     358:	00000168 	andeq	r0, r0, r8, ror #2
     35c:	68510001 	ldmdavs	r1, {r0}^
     360:	88000001 	stmdahi	r0, {r0}
     364:	01000001 	tsteq	r0, r1
     368:	01885500 	orreq	r5, r8, r0, lsl #10
     36c:	019c0000 	orrseq	r0, ip, r0
     370:	00010000 	andeq	r0, r1, r0
     374:	00019c51 	andeq	r9, r1, r1, asr ip
     378:	0001bc00 	andeq	fp, r1, r0, lsl #24
     37c:	55000100 	strpl	r0, [r0, #-256]	; 0x100
     380:	000001bc 			; <UNDEFINED> instruction: 0x000001bc
     384:	000001bf 			; <UNDEFINED> instruction: 0x000001bf
     388:	bf510001 	svclt	0x00510001
     38c:	08000001 	stmdaeq	r0, {r0}
     390:	01000002 	tsteq	r0, r2
     394:	02085500 	andeq	r5, r8, #0, 10
     398:	02280000 	eoreq	r0, r8, #0
     39c:	00040000 	andeq	r0, r4, r0
     3a0:	9f5101f3 	svcls	0x005101f3
	...
     3ac:	00000080 	andeq	r0, r0, r0, lsl #1
     3b0:	00000094 	muleq	r0, r4, r0
     3b4:	94520001 	ldrbls	r0, [r2], #-1
     3b8:	08000000 	stmdaeq	r0, {}	; <UNPREDICTABLE>
     3bc:	01000002 	tsteq	r0, r2
     3c0:	02085400 	andeq	r5, r8, #0, 8
     3c4:	02280000 	eoreq	r0, r8, #0
     3c8:	00040000 	andeq	r0, r4, r0
     3cc:	9f5201f3 	svcls	0x005201f3
	...
     3d8:	00000080 	andeq	r0, r0, r0, lsl #1
     3dc:	00000100 	andeq	r0, r0, r0, lsl #2
     3e0:	04530001 	ldrbeq	r0, [r3], #-1
     3e4:	08000001 	stmdaeq	r0, {r0}
     3e8:	01000001 	tsteq	r0, r1
     3ec:	01605300 	cmneq	r0, r0, lsl #6
     3f0:	01680000 	cmneq	r8, r0
     3f4:	00010000 	andeq	r0, r1, r0
     3f8:	00016853 	andeq	r6, r1, r3, asr r8
     3fc:	00018800 	andeq	r8, r1, r0, lsl #16
     400:	f3000400 	vshl.u8	d0, d0, d0
     404:	889f5301 	ldmhi	pc, {r0, r8, r9, ip, lr}	; <UNPREDICTABLE>
     408:	90000001 	andls	r0, r0, r1
     40c:	01000001 	tsteq	r0, r1
     410:	01905300 	orrseq	r5, r0, r0, lsl #6
     414:	01940000 	orrseq	r0, r4, r0
     418:	00010000 	andeq	r0, r1, r0
     41c:	0001945c 	andeq	r9, r1, ip, asr r4
     420:	00019c00 	andeq	r9, r1, r0, lsl #24
     424:	53000100 	movwpl	r0, #256	; 0x100
     428:	0000019c 	muleq	r0, ip, r1
     42c:	000001bc 			; <UNDEFINED> instruction: 0x000001bc
     430:	01f30004 	mvnseq	r0, r4
     434:	01bc9f53 			; <UNDEFINED> instruction: 0x01bc9f53
     438:	01bf0000 			; <UNDEFINED> instruction: 0x01bf0000
     43c:	00010000 	andeq	r0, r1, r0
     440:	0001bf53 	andeq	fp, r1, r3, asr pc
     444:	0001e000 	andeq	lr, r1, r0
     448:	f3000400 	vshl.u8	d0, d0, d0
     44c:	009f5301 	addseq	r5, pc, r1, lsl #6
     450:	00000000 	andeq	r0, r0, r0
     454:	80000000 	andhi	r0, r0, r0
     458:	9c000000 	stcls	0, cr0, [r0], {-0}
     45c:	02000000 	andeq	r0, r0, #0
     460:	9c009100 	stflsd	f1, [r0], {-0}
     464:	bf000000 	svclt	0x00000000
     468:	01000001 	tsteq	r0, r1
     46c:	01e05200 	mvneq	r5, r0, lsl #4
     470:	01eb0000 	mvneq	r0, r0
     474:	00010000 	andeq	r0, r1, r0
     478:	00000052 	andeq	r0, r0, r2, asr r0
     47c:	00000000 	andeq	r0, r0, r0
     480:	00009c00 	andeq	r9, r0, r0, lsl #24
     484:	00010c00 	andeq	r0, r1, r0, lsl #24
     488:	91000400 	tstls	r0, r0, lsl #8
     48c:	0c9f7fa0 	ldceq	15, cr7, [pc], {160}	; 0xa0
     490:	18000001 	stmdane	r0, {r0}
     494:	01000001 	tsteq	r0, r1
     498:	01185100 	tsteq	r8, r0, lsl #2
     49c:	011c0000 	tsteq	ip, r0
     4a0:	00010000 	andeq	r0, r1, r0
     4a4:	00011c53 	andeq	r1, r1, r3, asr ip
     4a8:	00012000 	andeq	r2, r1, r0
     4ac:	51000100 	mrspl	r0, (UNDEF: 16)
     4b0:	00000120 	andeq	r0, r0, r0, lsr #2
     4b4:	00000160 	andeq	r0, r0, r0, ror #2
     4b8:	60530001 	subsvs	r0, r3, r1
     4bc:	64000001 	strvs	r0, [r0], #-1
     4c0:	04000001 	streq	r0, [r0], #-1
     4c4:	7fa09100 	svcvc	0x00a09100
     4c8:	0001649f 	muleq	r1, pc, r4	; <UNPREDICTABLE>
     4cc:	00016c00 	andeq	r6, r1, r0, lsl #24
     4d0:	5e000100 	adfpls	f0, f0, f0
     4d4:	0000016c 	andeq	r0, r0, ip, ror #2
     4d8:	00000188 	andeq	r0, r0, r8, lsl #3
     4dc:	88530001 	ldmdahi	r3, {r0}^
     4e0:	90000001 	andls	r0, r0, r1
     4e4:	04000001 	streq	r0, [r0], #-1
     4e8:	7fa19100 	svcvc	0x00a19100
     4ec:	0001909f 	muleq	r1, pc, r0	; <UNPREDICTABLE>
     4f0:	00019400 	andeq	r9, r1, r0, lsl #8
     4f4:	53000100 	movwpl	r0, #256	; 0x100
     4f8:	00000194 	muleq	r0, r4, r1
     4fc:	00000198 	muleq	r0, r8, r1
     500:	a0910004 	addsge	r0, r1, r4
     504:	01989f7f 	orrseq	r9, r8, pc, ror pc
     508:	01a00000 	moveq	r0, r0
     50c:	00010000 	andeq	r0, r1, r0
     510:	0001a05e 	andeq	sl, r1, lr, asr r0
     514:	0001bc00 	andeq	fp, r1, r0, lsl #24
     518:	53000100 	movwpl	r0, #256	; 0x100
     51c:	000001bc 			; <UNDEFINED> instruction: 0x000001bc
     520:	000001e0 	andeq	r0, r0, r0, ror #3
     524:	a0910004 	addsge	r0, r1, r4
     528:	01e09f7f 	mvneq	r9, pc, ror pc
     52c:	01eb0000 	mvneq	r0, r0
     530:	00010000 	andeq	r0, r1, r0
     534:	00000053 	andeq	r0, r0, r3, asr r0
     538:	00000000 	andeq	r0, r0, r0
     53c:	0000a000 	andeq	sl, r0, r0
     540:	0000ec00 	andeq	lr, r0, r0, lsl #24
     544:	5c000100 	stfpls	f0, [r0], {-0}
     548:	000000ec 	andeq	r0, r0, ip, ror #1
     54c:	00000100 	andeq	r0, r0, r0, lsl #2
     550:	00530001 	subseq	r0, r3, r1
     554:	04000001 	streq	r0, [r0], #-1
     558:	01000001 	tsteq	r0, r1
     55c:	01045c00 	tsteq	r4, r0, lsl #24
     560:	01080000 	mrseq	r0, (UNDEF: 8)
     564:	00010000 	andeq	r0, r1, r0
     568:	00010853 	andeq	r0, r1, r3, asr r8
     56c:	00011800 	andeq	r1, r1, r0, lsl #16
     570:	5c000100 	stfpls	f0, [r0], {-0}
     574:	00000118 	andeq	r0, r0, r8, lsl r1
     578:	0000011c 	andeq	r0, r0, ip, lsl r1
     57c:	1c500001 	mrrcne	0, 0, r0, r0, cr1	; <UNPREDICTABLE>
     580:	3c000001 	stccc	0, cr0, [r0], {1}
     584:	01000001 	tsteq	r0, r1
     588:	01445c00 	cmpeq	r4, r0, lsl #24
     58c:	01580000 	cmpeq	r8, r0
     590:	00010000 	andeq	r0, r1, r0
     594:	00015850 	andeq	r5, r1, r0, asr r8
     598:	00016000 	andeq	r6, r1, r0
     59c:	5c000100 	stfpls	f0, [r0], {-0}
     5a0:	00000160 	andeq	r0, r0, r0, ror #2
     5a4:	00000168 	andeq	r0, r0, r8, ror #2
     5a8:	68530001 	ldmdavs	r3, {r0}^
     5ac:	78000001 	stmdavc	r0, {r0}
     5b0:	01000001 	tsteq	r0, r1
     5b4:	01785c00 	cmneq	r8, r0, lsl #24
     5b8:	01800000 	orreq	r0, r0, r0
     5bc:	00050000 	andeq	r0, r5, r0
     5c0:	2534007c 	ldrcs	r0, [r4, #-124]!	; 0x7c
     5c4:	0001809f 	muleq	r1, pc, r0	; <UNPREDICTABLE>
     5c8:	00018800 	andeq	r8, r1, r0, lsl #16
     5cc:	5c000100 	stfpls	f0, [r0], {-0}
     5d0:	00000188 	andeq	r0, r0, r8, lsl #3
     5d4:	00000190 	muleq	r0, r0, r1
     5d8:	90530001 	subsls	r0, r3, r1
     5dc:	94000001 	strls	r0, [r0], #-1
     5e0:	01000001 	tsteq	r0, r1
     5e4:	01945c00 	orrseq	r5, r4, r0, lsl #24
     5e8:	019c0000 	orrseq	r0, ip, r0
     5ec:	00010000 	andeq	r0, r1, r0
     5f0:	00019c53 	andeq	r9, r1, r3, asr ip
     5f4:	0001ac00 	andeq	sl, r1, r0, lsl #24
     5f8:	5c000100 	stfpls	f0, [r0], {-0}
     5fc:	000001ac 	andeq	r0, r0, ip, lsr #3
     600:	000001b4 			; <UNDEFINED> instruction: 0x000001b4
     604:	007c0005 	rsbseq	r0, ip, r5
     608:	b49f2531 	ldrlt	r2, [pc], #1329	; 610 <_start-0x79f0>
     60c:	bc000001 	stclt	0, cr0, [r0], {1}
     610:	01000001 	tsteq	r0, r1
     614:	01bc5c00 			; <UNDEFINED> instruction: 0x01bc5c00
     618:	01bf0000 			; <UNDEFINED> instruction: 0x01bf0000
     61c:	00010000 	andeq	r0, r1, r0
     620:	0001bf53 	andeq	fp, r1, r3, asr pc
     624:	0001e000 	andeq	lr, r1, r0
     628:	f3000400 	vshl.u8	d0, d0, d0
     62c:	e09f5301 	adds	r5, pc, r1, lsl #6
     630:	eb000001 	bl	63c <_start-0x79c4>
     634:	01000001 	tsteq	r0, r1
     638:	00005c00 	andeq	r5, r0, r0, lsl #24
     63c:	00000000 	andeq	r0, r0, r0
     640:	00ec0000 	rsceq	r0, ip, r0
     644:	00fc0000 	rscseq	r0, ip, r0
     648:	00020000 	andeq	r0, r2, r0
     64c:	00fc9f30 	rscseq	r9, ip, r0, lsr pc
     650:	01040000 	mrseq	r0, (UNDEF: 4)
     654:	00020000 	andeq	r0, r2, r0
     658:	01049f31 	tsteq	r4, r1, lsr pc
     65c:	01080000 	mrseq	r0, (UNDEF: 8)
     660:	00020000 	andeq	r0, r2, r0
     664:	00009f30 	andeq	r9, r0, r0, lsr pc
     668:	00000000 	andeq	r0, r0, r0
     66c:	02280000 	eoreq	r0, r8, #0
     670:	023b0000 	eorseq	r0, fp, #0
     674:	00010000 	andeq	r0, r1, r0
     678:	00023b50 	andeq	r3, r2, r0, asr fp
     67c:	00025c00 	andeq	r5, r2, r0, lsl #24
     680:	f3000400 	vshl.u8	d0, d0, d0
     684:	5c9f5001 	ldcpl	0, cr5, [pc], {1}
     688:	90000002 	andls	r0, r0, r2
     68c:	01000002 	tsteq	r0, r2
     690:	00005000 	andeq	r5, r0, r0
     694:	00000000 	andeq	r0, r0, r0
     698:	02280000 	eoreq	r0, r8, #0
     69c:	023b0000 	eorseq	r0, fp, #0
     6a0:	00010000 	andeq	r0, r1, r0
     6a4:	00023b51 	andeq	r3, r2, r1, asr fp
     6a8:	00025c00 	andeq	r5, r2, r0, lsl #24
     6ac:	f3000400 	vshl.u8	d0, d0, d0
     6b0:	5c9f5101 	ldfpls	f5, [pc], {1}
     6b4:	90000002 	andls	r0, r0, r2
     6b8:	01000002 	tsteq	r0, r2
     6bc:	00005100 	andeq	r5, r0, r0, lsl #2
     6c0:	00000000 	andeq	r0, r0, r0
     6c4:	02900000 	addseq	r0, r0, #0
     6c8:	02bc0000 	adcseq	r0, ip, #0
     6cc:	00010000 	andeq	r0, r1, r0
     6d0:	0002bc50 	andeq	fp, r2, r0, asr ip
     6d4:	00050c00 	andeq	r0, r5, r0, lsl #24
     6d8:	5a000100 	bpl	ae0 <_start-0x7520>
     6dc:	0000050c 	andeq	r0, r0, ip, lsl #10
     6e0:	00000524 	andeq	r0, r0, r4, lsr #10
     6e4:	01f30004 	mvnseq	r0, r4
     6e8:	00009f50 	andeq	r9, r0, r0, asr pc
     6ec:	00000000 	andeq	r0, r0, r0
     6f0:	02900000 	addseq	r0, r0, #0
     6f4:	02a40000 	adceq	r0, r4, #0
     6f8:	00010000 	andeq	r0, r1, r0
     6fc:	0002a451 	andeq	sl, r2, r1, asr r4
     700:	0002bc00 	andeq	fp, r2, r0, lsl #24
     704:	71000300 	mrsvc	r0, LR_irq
     708:	02bc9f01 	adcseq	r9, ip, #1, 30
     70c:	05240000 	streq	r0, [r4, #-0]!
     710:	00040000 	andeq	r0, r4, r0
     714:	9f5101f3 	svcls	0x005101f3
	...
     720:	00000290 	muleq	r0, r0, r2
     724:	000002c4 	andeq	r0, r0, r4, asr #5
     728:	c4520001 	ldrbgt	r0, [r2], #-1
     72c:	ec000002 	stc	0, cr0, [r0], {2}
     730:	01000002 	tsteq	r0, r2
     734:	02ec5200 	rsceq	r5, ip, #0, 4
     738:	04bc0000 	ldrteq	r0, [ip], #0
     73c:	00010000 	andeq	r0, r1, r0
     740:	0004bc56 	andeq	fp, r4, r6, asr ip
     744:	00052400 	andeq	r2, r5, r0, lsl #8
     748:	52000100 	andpl	r0, r0, #0, 2
	...
     754:	00000290 	muleq	r0, r0, r2
     758:	000002ac 	andeq	r0, r0, ip, lsr #5
     75c:	00530001 	subseq	r0, r3, r1
     760:	00000000 	andeq	r0, r0, r0
     764:	a0000000 	andge	r0, r0, r0
     768:	bc000002 	stclt	0, cr0, [r0], {2}
     76c:	01000002 	tsteq	r0, r2
     770:	02bc5000 	adcseq	r5, ip, #0
     774:	02c00000 	sbceq	r0, r0, #0
     778:	00010000 	andeq	r0, r1, r0
     77c:	0002c054 	andeq	ip, r2, r4, asr r0
     780:	0002cc00 	andeq	ip, r2, r0, lsl #24
     784:	74000300 	strvc	r0, [r0], #-768	; 0x300
     788:	02cc9f01 	sbceq	r9, ip, #1, 30
     78c:	02d80000 	sbcseq	r0, r8, #0
     790:	00010000 	andeq	r0, r1, r0
     794:	0002d854 	andeq	sp, r2, r4, asr r8
     798:	0002e400 	andeq	lr, r2, r0, lsl #8
     79c:	74000300 	strvc	r0, [r0], #-768	; 0x300
     7a0:	02e49f01 	rsceq	r9, r4, #1, 30
     7a4:	04c00000 	strbeq	r0, [r0], #0
     7a8:	00010000 	andeq	r0, r1, r0
     7ac:	0004c054 	andeq	ip, r4, r4, asr r0
     7b0:	0004cc00 	andeq	ip, r4, r0, lsl #24
     7b4:	74000300 	strvc	r0, [r0], #-768	; 0x300
     7b8:	04cc9f01 	strbeq	r9, [ip], #3841	; 0xf01
     7bc:	04f80000 	ldrbteq	r0, [r8], #0
     7c0:	00010000 	andeq	r0, r1, r0
     7c4:	0004f854 	andeq	pc, r4, r4, asr r8	; <UNPREDICTABLE>
     7c8:	00050400 	andeq	r0, r5, r0, lsl #8
     7cc:	50000100 	andpl	r0, r0, r0, lsl #2
     7d0:	00000504 	andeq	r0, r0, r4, lsl #10
     7d4:	0000050c 	andeq	r0, r0, ip, lsl #10
     7d8:	01740003 	cmneq	r4, r3
     7dc:	0000009f 	muleq	r0, pc, r0	; <UNPREDICTABLE>
     7e0:	00000000 	andeq	r0, r0, r0
     7e4:	0002a800 	andeq	sl, r2, r0, lsl #16
     7e8:	00050c00 	andeq	r0, r5, r0, lsl #24
     7ec:	58000100 	stmdapl	r0, {r8}
     7f0:	0000050c 	andeq	r0, r0, ip, lsl #10
     7f4:	00000524 	andeq	r0, r0, r4, lsr #10
     7f8:	01f3000a 	mvnseq	r0, sl
     7fc:	5001f351 	andpl	pc, r1, r1, asr r3	; <UNPREDICTABLE>
     800:	9f1c3122 	svcls	0x001c3122
	...
     80c:	000003f4 	strdeq	r0, [r0], -r4
     810:	000003f8 	strdeq	r0, [r0], -r8
     814:	18500001 	ldmdane	r0, {r0}^
     818:	1c000004 	stcne	0, cr0, [r0], {4}
     81c:	01000004 	tsteq	r0, r4
     820:	043c5000 	ldrteq	r5, [ip], #-0
     824:	04400000 	strbeq	r0, [r0], #-0
     828:	00010000 	andeq	r0, r1, r0
     82c:	00046050 	andeq	r6, r4, r0, asr r0
     830:	00046400 	andeq	r6, r4, r0, lsl #8
     834:	50000100 	andpl	r0, r0, r0, lsl #2
     838:	0000046c 	andeq	r0, r0, ip, ror #8
     83c:	00000470 	andeq	r0, r0, r0, ror r4
     840:	90500001 	subsls	r0, r0, r1
     844:	94000004 	strls	r0, [r0], #-4
     848:	01000004 	tsteq	r0, r4
     84c:	04b85000 	ldrteq	r5, [r8], #0
     850:	04e00000 	strbteq	r0, [r0], #0
     854:	00010000 	andeq	r0, r1, r0
     858:	00000050 	andeq	r0, r0, r0, asr r0
     85c:	00000000 	andeq	r0, r0, r0
     860:	0002ec00 	andeq	lr, r2, r0, lsl #24
     864:	0002f400 	andeq	pc, r2, r0, lsl #8
     868:	30000200 	andcc	r0, r0, r0, lsl #4
     86c:	0002f49f 	muleq	r2, pc, r4	; <UNPREDICTABLE>
     870:	0002f800 	andeq	pc, r2, r0, lsl #16
     874:	57000100 	strpl	r0, [r0, -r0, lsl #2]
     878:	00000304 	andeq	r0, r0, r4, lsl #6
     87c:	000004e0 	andeq	r0, r0, r0, ror #9
     880:	00570001 	subseq	r0, r7, r1
	...
     88c:	0c000000 	stceq	0, cr0, [r0], {-0}
     890:	01000000 	mrseq	r0, (UNDEF: 0)
     894:	000c5000 	andeq	r5, ip, r0
     898:	00200000 	eoreq	r0, r0, r0
     89c:	00010000 	andeq	r0, r1, r0
     8a0:	00000054 	andeq	r0, r0, r4, asr r0
     8a4:	00000000 	andeq	r0, r0, r0
     8a8:	00003400 	andeq	r3, r0, r0, lsl #8
     8ac:	00003c00 	andeq	r3, r0, r0, lsl #24
     8b0:	73000300 	movwvc	r0, #768	; 0x300
     8b4:	003c9f04 	eorseq	r9, ip, r4, lsl #30
     8b8:	00470000 	subeq	r0, r7, r0
     8bc:	00010000 	andeq	r0, r1, r0
     8c0:	00000053 	andeq	r0, r0, r3, asr r0
     8c4:	00000000 	andeq	r0, r0, r0
     8c8:	00004800 	andeq	r4, r0, r0, lsl #16
     8cc:	00007400 	andeq	r7, r0, r0, lsl #8
     8d0:	50000100 	andpl	r0, r0, r0, lsl #2
     8d4:	00000074 	andeq	r0, r0, r4, ror r0
     8d8:	00000083 	andeq	r0, r0, r3, lsl #1
     8dc:	78730003 	ldmdavc	r3!, {r0, r1}^
     8e0:	0000009f 	muleq	r0, pc, r0	; <UNPREDICTABLE>
     8e4:	00000000 	andeq	r0, r0, r0
     8e8:	00881400 	addeq	r1, r8, r0, lsl #8
     8ec:	00881800 	addeq	r1, r8, r0, lsl #16
     8f0:	30000200 	andcc	r0, r0, r0, lsl #4
     8f4:	0088189f 	umulleq	r1, r8, pc, r8	; <UNPREDICTABLE>
     8f8:	00881c00 	addeq	r1, r8, r0, lsl #24
     8fc:	50000100 	andpl	r0, r0, r0, lsl #2
	...
     908:	0000882c 	andeq	r8, r0, ip, lsr #16
     90c:	00008830 	andeq	r8, r0, r0, lsr r8
     910:	9f300002 	svcls	0x00300002
     914:	00008830 	andeq	r8, r0, r0, lsr r8
     918:	00008834 	andeq	r8, r0, r4, lsr r8
     91c:	38530001 	ldmdacc	r3, {r0}^
     920:	40000088 	andmi	r0, r0, r8, lsl #1
     924:	01000088 	smlabbeq	r0, r8, r0, r0
     928:	00005300 	andeq	r5, r0, r0, lsl #6
	...
     934:	00040000 	andeq	r0, r4, r0
     938:	00010000 	andeq	r0, r1, r0
     93c:	00000450 	andeq	r0, r0, r0, asr r4
     940:	00000c00 	andeq	r0, r0, r0, lsl #24
     944:	53000100 	movwpl	r0, #256	; 0x100
     948:	0000000c 	andeq	r0, r0, ip
     94c:	00000010 	andeq	r0, r0, r0, lsl r0
     950:	10500001 	subsne	r0, r0, r1
     954:	1c000000 	stcne	0, cr0, [r0], {-0}
     958:	01000000 	mrseq	r0, (UNDEF: 0)
     95c:	00005300 	andeq	r5, r0, r0, lsl #6
     960:	00000000 	andeq	r0, r0, r0
     964:	003c0000 	eorseq	r0, ip, r0
     968:	00470000 	subeq	r0, r7, r0
     96c:	00010000 	andeq	r0, r1, r0
     970:	00004750 	andeq	r4, r0, r0, asr r7
     974:	00006000 	andeq	r6, r0, r0
     978:	55000100 	strpl	r0, [r0, #-256]	; 0x100
	...
     984:	00000050 	andeq	r0, r0, r0, asr r0
     988:	00000054 	andeq	r0, r0, r4, asr r0
     98c:	00500001 	subseq	r0, r0, r1
     990:	00000000 	andeq	r0, r0, r0
     994:	60000000 	andvs	r0, r0, r0
     998:	6c000000 	stcvs	0, cr0, [r0], {-0}
     99c:	01000000 	mrseq	r0, (UNDEF: 0)
     9a0:	006c5000 	rsbeq	r5, ip, r0
     9a4:	00740000 	rsbseq	r0, r4, r0
     9a8:	00040000 	andeq	r0, r4, r0
     9ac:	9f5001f3 	svcls	0x005001f3
	...
     9b8:	00000074 	andeq	r0, r0, r4, ror r0
     9bc:	00000080 	andeq	r0, r0, r0, lsl #1
     9c0:	80500001 	subshi	r0, r0, r1
     9c4:	88000000 	stmdahi	r0, {}	; <UNPREDICTABLE>
     9c8:	04000000 	streq	r0, [r0], #-0
     9cc:	5001f300 	andpl	pc, r1, r0, lsl #6
     9d0:	0000009f 	muleq	r0, pc, r0	; <UNPREDICTABLE>
	...
     9dc:	00009000 	andeq	r9, r0, r0
     9e0:	50000100 	andpl	r0, r0, r0, lsl #2
     9e4:	00000090 	muleq	r0, r0, r0
     9e8:	000000d4 	ldrdeq	r0, [r0], -r4
     9ec:	00540001 	subseq	r0, r4, r1
     9f0:	00000000 	andeq	r0, r0, r0
     9f4:	48000000 	stmdami	r0, {}	; <UNPREDICTABLE>
     9f8:	4c000000 	stcmi	0, cr0, [r0], {-0}
     9fc:	01000000 	mrseq	r0, (UNDEF: 0)
     a00:	00545500 	subseq	r5, r4, r0, lsl #10
     a04:	00580000 	subseq	r0, r8, r0
     a08:	00010000 	andeq	r0, r1, r0
     a0c:	00006055 	andeq	r6, r0, r5, asr r0
     a10:	00006400 	andeq	r6, r0, r0, lsl #8
     a14:	55000100 	strpl	r0, [r0, #-256]	; 0x100
     a18:	0000006c 	andeq	r0, r0, ip, rrx
     a1c:	00000070 	andeq	r0, r0, r0, ror r0
     a20:	78550001 	ldmdavc	r5, {r0}^
     a24:	7c000000 	stcvc	0, cr0, [r0], {-0}
     a28:	01000000 	mrseq	r0, (UNDEF: 0)
     a2c:	00845500 	addeq	r5, r4, r0, lsl #10
     a30:	00880000 	addeq	r0, r8, r0
     a34:	00010000 	andeq	r0, r1, r0
     a38:	00008c55 	andeq	r8, r0, r5, asr ip
     a3c:	0000d400 	andeq	sp, r0, r0, lsl #8
     a40:	55000100 	strpl	r0, [r0, #-256]	; 0x100
	...
     a4c:	0000001c 	andeq	r0, r0, ip, lsl r0
     a50:	00000044 	andeq	r0, r0, r4, asr #32
     a54:	44530001 	ldrbmi	r0, [r3], #-1
     a58:	4c000000 	stcmi	0, cr0, [r0], {-0}
     a5c:	1c000000 	stcne	0, cr0, [r0], {-0}
     a60:	f7007000 			; <UNDEFINED> instruction: 0xf7007000
     a64:	f425f72c 	vld1.8	{d15}, [r5 :128], ip
     a68:	cccd0825 	stclgt	8, cr0, [sp], {37}	; 0x25
     a6c:	0000cccc 	andeq	ip, r0, ip, asr #25
     a70:	081e0000 	ldmdaeq	lr, {}	; <UNPREDICTABLE>
     a74:	2525f720 	strcs	pc, [r5, #-1824]!	; 0x720
     a78:	25332cf7 	ldrcs	r2, [r3, #-3319]!	; 0xcf7
     a7c:	00004c9f 	muleq	r0, pc, ip	; <UNPREDICTABLE>
     a80:	00005000 	andeq	r5, r0, r0
     a84:	53000100 	movwpl	r0, #256	; 0x100
     a88:	00000050 	andeq	r0, r0, r0, asr r0
     a8c:	00000058 	andeq	r0, r0, r8, asr r0
     a90:	0070001c 	rsbseq	r0, r0, ip, lsl r0
     a94:	25f72cf7 	ldrbcs	r2, [r7, #3319]!	; 0xcf7
     a98:	cd0825f4 	cfstr32gt	mvfx2, [r8, #-976]	; 0xfffffc30
     a9c:	00cccccc 	sbceq	ip, ip, ip, asr #25
     aa0:	1e000000 	cdpne	0, 0, cr0, cr0, cr0, {0}
     aa4:	25f72008 	ldrbcs	r2, [r7, #8]!
     aa8:	332cf725 	msrcc	CPSR_fs, #9699328	; 0x940000
     aac:	00589f25 	subseq	r9, r8, r5, lsr #30
     ab0:	005c0000 	subseq	r0, ip, r0
     ab4:	00010000 	andeq	r0, r1, r0
     ab8:	00005c53 	andeq	r5, r0, r3, asr ip
     abc:	00006400 	andeq	r6, r0, r0, lsl #8
     ac0:	70001c00 	andvc	r1, r0, r0, lsl #24
     ac4:	f72cf700 			; <UNDEFINED> instruction: 0xf72cf700
     ac8:	0825f425 	stmdaeq	r5!, {r0, r2, r5, sl, ip, sp, lr, pc}
     acc:	cccccccd 	stclgt	12, cr12, [ip], {205}	; 0xcd
     ad0:	00000000 	andeq	r0, r0, r0
     ad4:	f720081e 			; <UNDEFINED> instruction: 0xf720081e
     ad8:	2cf72525 	cfldr64cs	mvdx2, [r7], #148	; 0x94
     adc:	649f2533 	ldrvs	r2, [pc], #1331	; ae4 <_start-0x751c>
     ae0:	68000000 	stmdavs	r0, {}	; <UNPREDICTABLE>
     ae4:	01000000 	mrseq	r0, (UNDEF: 0)
     ae8:	00685300 	rsbeq	r5, r8, r0, lsl #6
     aec:	00700000 	rsbseq	r0, r0, r0
     af0:	001c0000 	andseq	r0, ip, r0
     af4:	2cf70070 	ldclcs	0, cr0, [r7], #448	; 0x1c0
     af8:	25f425f7 	ldrbcs	r2, [r4, #1527]!	; 0x5f7
     afc:	cccccd08 	stclgt	13, cr12, [ip], {8}
     b00:	000000cc 	andeq	r0, r0, ip, asr #1
     b04:	20081e00 	andcs	r1, r8, r0, lsl #28
     b08:	f72525f7 			; <UNDEFINED> instruction: 0xf72525f7
     b0c:	9f25332c 	svcls	0x0025332c
     b10:	00000070 	andeq	r0, r0, r0, ror r0
     b14:	00000074 	andeq	r0, r0, r4, ror r0
     b18:	74530001 	ldrbvc	r0, [r3], #-1
     b1c:	7c000000 	stcvc	0, cr0, [r0], {-0}
     b20:	1c000000 	stcne	0, cr0, [r0], {-0}
     b24:	f7007000 			; <UNDEFINED> instruction: 0xf7007000
     b28:	f425f72c 	vld1.8	{d15}, [r5 :128], ip
     b2c:	cccd0825 	stclgt	8, cr0, [sp], {37}	; 0x25
     b30:	0000cccc 	andeq	ip, r0, ip, asr #25
     b34:	081e0000 	ldmdaeq	lr, {}	; <UNPREDICTABLE>
     b38:	2525f720 	strcs	pc, [r5, #-1824]!	; 0x720
     b3c:	25332cf7 	ldrcs	r2, [r3, #-3319]!	; 0xcf7
     b40:	00007c9f 	muleq	r0, pc, ip	; <UNPREDICTABLE>
     b44:	00008000 	andeq	r8, r0, r0
     b48:	53000100 	movwpl	r0, #256	; 0x100
     b4c:	00000080 	andeq	r0, r0, r0, lsl #1
     b50:	00000088 	andeq	r0, r0, r8, lsl #1
     b54:	0070001c 	rsbseq	r0, r0, ip, lsl r0
     b58:	25f72cf7 	ldrbcs	r2, [r7, #3319]!	; 0xcf7
     b5c:	cd0825f4 	cfstr32gt	mvfx2, [r8, #-976]	; 0xfffffc30
     b60:	00cccccc 	sbceq	ip, ip, ip, asr #25
     b64:	1e000000 	cdpne	0, 0, cr0, cr0, cr0, {0}
     b68:	25f72008 	ldrbcs	r2, [r7, #8]!
     b6c:	332cf725 	msrcc	CPSR_fs, #9699328	; 0x940000
     b70:	00889f25 	addeq	r9, r8, r5, lsr #30
     b74:	008c0000 	addeq	r0, ip, r0
     b78:	00010000 	andeq	r0, r1, r0
     b7c:	00008c53 	andeq	r8, r0, r3, asr ip
     b80:	00009000 	andeq	r9, r0, r0
     b84:	70001c00 	andvc	r1, r0, r0, lsl #24
     b88:	f72cf700 			; <UNDEFINED> instruction: 0xf72cf700
     b8c:	0825f425 	stmdaeq	r5!, {r0, r2, r5, sl, ip, sp, lr, pc}
     b90:	cccccccd 	stclgt	12, cr12, [ip], {205}	; 0xcd
     b94:	00000000 	andeq	r0, r0, r0
     b98:	f720081e 			; <UNDEFINED> instruction: 0xf720081e
     b9c:	2cf72525 	cfldr64cs	mvdx2, [r7], #148	; 0x94
     ba0:	909f2533 	addsls	r2, pc, r3, lsr r5	; <UNPREDICTABLE>
     ba4:	98000000 	stmdals	r0, {}	; <UNPREDICTABLE>
     ba8:	1c000000 	stcne	0, cr0, [r0], {-0}
     bac:	f7007400 			; <UNDEFINED> instruction: 0xf7007400
     bb0:	f425f72c 	vld1.8	{d15}, [r5 :128], ip
     bb4:	cccd0825 	stclgt	8, cr0, [sp], {37}	; 0x25
     bb8:	0000cccc 	andeq	ip, r0, ip, asr #25
     bbc:	081e0000 	ldmdaeq	lr, {}	; <UNPREDICTABLE>
     bc0:	2525f720 	strcs	pc, [r5, #-1824]!	; 0x720
     bc4:	25332cf7 	ldrcs	r2, [r3, #-3319]!	; 0xcf7
     bc8:	0000989f 	muleq	r0, pc, r8	; <UNPREDICTABLE>
     bcc:	00009c00 	andeq	r9, r0, r0, lsl #24
     bd0:	74001700 	strvc	r1, [r0], #-1792	; 0x700
     bd4:	f72cf700 			; <UNDEFINED> instruction: 0xf72cf700
     bd8:	f7007125 			; <UNDEFINED> instruction: 0xf7007125
     bdc:	1e25f72c 	cdpne	7, 2, cr15, cr5, cr12, {1}
     be0:	25f72008 	ldrbcs	r2, [r7, #8]!
     be4:	332cf725 	msrcc	CPSR_fs, #9699328	; 0x940000
     be8:	009c9f25 	addseq	r9, ip, r5, lsr #30
     bec:	00d40000 	sbcseq	r0, r4, r0
     bf0:	001c0000 	andseq	r0, ip, r0
     bf4:	2cf70074 	ldclcs	0, cr0, [r7], #464	; 0x1d0
     bf8:	25f425f7 	ldrbcs	r2, [r4, #1527]!	; 0x5f7
     bfc:	cccccd08 	stclgt	13, cr12, [ip], {8}
     c00:	000000cc 	andeq	r0, r0, ip, asr #1
     c04:	20081e00 	andcs	r1, r8, r0, lsl #28
     c08:	f72525f7 			; <UNDEFINED> instruction: 0xf72525f7
     c0c:	9f25332c 	svcls	0x0025332c
	...
     c18:	00000094 	muleq	r0, r4, r0
     c1c:	000000b8 	strheq	r0, [r0], -r8
     c20:	b8500001 	ldmdalt	r0, {r0}^
     c24:	c4000000 	strgt	r0, [r0], #-0
     c28:	08000000 	stmdaeq	r0, {}	; <UNPREDICTABLE>
     c2c:	00713100 	rsbseq	r3, r1, r0, lsl #2
     c30:	21007324 	tstcs	r0, r4, lsr #6
     c34:	0000c49f 	muleq	r0, pc, r4	; <UNPREDICTABLE>
     c38:	0000c700 	andeq	ip, r0, r0, lsl #14
     c3c:	51000100 	mrspl	r0, (UNDEF: 16)
	...
     c48:	000000d4 	ldrdeq	r0, [r0], -r4
     c4c:	000000f8 	strdeq	r0, [r0], -r8
     c50:	f8500001 			; <UNDEFINED> instruction: 0xf8500001
     c54:	0c000000 	stceq	0, cr0, [r0], {-0}
     c58:	04000001 	streq	r0, [r0], #-1
     c5c:	5001f300 	andpl	pc, r1, r0, lsl #6
     c60:	0000009f 	muleq	r0, pc, r0	; <UNPREDICTABLE>
     c64:	00000000 	andeq	r0, r0, r0
     c68:	0000e000 	andeq	lr, r0, r0
     c6c:	0000e800 	andeq	lr, r0, r0, lsl #16
     c70:	30000200 	andcc	r0, r0, r0, lsl #4
     c74:	0000e89f 	muleq	r0, pc, r8	; <UNPREDICTABLE>
     c78:	0000e800 	andeq	lr, r0, r0, lsl #16
     c7c:	52000100 	andpl	r0, r0, #0, 2
     c80:	000000e8 	andeq	r0, r0, r8, ror #1
     c84:	000000f0 	strdeq	r0, [r0], -r0	; <UNPREDICTABLE>
     c88:	9f300002 	svcls	0x00300002
     c8c:	000000f0 	strdeq	r0, [r0], -r0	; <UNPREDICTABLE>
     c90:	00000103 	andeq	r0, r0, r3, lsl #2
     c94:	00520001 	subseq	r0, r2, r1
     c98:	00000000 	andeq	r0, r0, r0
     c9c:	e0000000 	and	r0, r0, r0
     ca0:	f4000000 	vst4.8	{d0-d3}, [r0], r0
     ca4:	02000000 	andeq	r0, r0, #0
     ca8:	f49f3000 			; <UNDEFINED> instruction: 0xf49f3000
     cac:	00000000 	andeq	r0, r0, r0
     cb0:	05000001 	streq	r0, [r0, #-1]
     cb4:	00733100 	rsbseq	r3, r3, r0, lsl #2
     cb8:	01009f24 	tsteq	r0, r4, lsr #30
     cbc:	01030000 	mrseq	r0, (UNDEF: 3)
     cc0:	00010000 	andeq	r0, r1, r0
     cc4:	00010351 	andeq	r0, r1, r1, asr r3
     cc8:	00010c00 	andeq	r0, r1, r0, lsl #24
     ccc:	31000800 	tstcc	r0, r0, lsl #16
     cd0:	4f5001f3 	svcmi	0x005001f3
     cd4:	009f241a 	addseq	r2, pc, sl, lsl r4	; <UNPREDICTABLE>
     cd8:	00000000 	andeq	r0, r0, r0
     cdc:	0c000000 	stceq	0, cr0, [r0], {-0}
     ce0:	30000001 	andcc	r0, r0, r1
     ce4:	01000001 	tsteq	r0, r1
     ce8:	01305000 	teqeq	r0, r0
     cec:	01440000 	mrseq	r0, (UNDEF: 68)
     cf0:	00040000 	andeq	r0, r4, r0
     cf4:	9f5001f3 	svcls	0x005001f3
	...
     d00:	00000118 	andeq	r0, r0, r8, lsl r1
     d04:	00000120 	andeq	r0, r0, r0, lsr #2
     d08:	9f300002 	svcls	0x00300002
     d0c:	00000120 	andeq	r0, r0, r0, lsr #2
     d10:	00000120 	andeq	r0, r0, r0, lsr #2
     d14:	20520001 	subscs	r0, r2, r1
     d18:	28000001 	stmdacs	r0, {r0}
     d1c:	02000001 	andeq	r0, r0, #1
     d20:	289f3000 	ldmcs	pc, {ip, sp}	; <UNPREDICTABLE>
     d24:	3b000001 	blcc	d30 <_start-0x72d0>
     d28:	01000001 	tsteq	r0, r1
     d2c:	00005200 	andeq	r5, r0, r0, lsl #4
     d30:	00000000 	andeq	r0, r0, r0
     d34:	01180000 	tsteq	r8, r0
     d38:	012c0000 	teqeq	ip, r0
     d3c:	00020000 	andeq	r0, r2, r0
     d40:	012c9f30 	teqeq	ip, r0, lsr pc
     d44:	01380000 	teqeq	r8, r0
     d48:	00050000 	andeq	r0, r5, r0
     d4c:	24007331 	strcs	r7, [r0], #-817	; 0x331
     d50:	0001389f 	muleq	r1, pc, r8	; <UNPREDICTABLE>
     d54:	00013b00 	andeq	r3, r1, r0, lsl #22
     d58:	51000100 	mrspl	r0, (UNDEF: 16)
     d5c:	0000013b 	andeq	r0, r0, fp, lsr r1
     d60:	00000144 	andeq	r0, r0, r4, asr #2
     d64:	f3310008 	vhadd.u<illegal width 64>	d0, d1, d8
     d68:	1a4f5001 	bne	13d4d74 <__bss_end__+0x13cae74>
     d6c:	00009f24 	andeq	r9, r0, r4, lsr #30
     d70:	00000000 	andeq	r0, r0, r0
     d74:	01440000 	mrseq	r0, (UNDEF: 68)
     d78:	01d40000 	bicseq	r0, r4, r0
     d7c:	00010000 	andeq	r0, r1, r0
     d80:	0001d450 	andeq	sp, r1, r0, asr r4
     d84:	00021000 	andeq	r1, r2, r0
     d88:	54000100 	strpl	r0, [r0], #-256	; 0x100
	...
     d94:	0000018c 	andeq	r0, r0, ip, lsl #3
     d98:	00000190 	muleq	r0, r0, r1
     d9c:	98550001 	ldmdals	r5, {r0}^
     da0:	9c000001 	stcls	0, cr0, [r0], {1}
     da4:	01000001 	tsteq	r0, r1
     da8:	01a45500 			; <UNDEFINED> instruction: 0x01a45500
     dac:	01a80000 			; <UNDEFINED> instruction: 0x01a80000
     db0:	00010000 	andeq	r0, r1, r0
     db4:	0001b055 	andeq	fp, r1, r5, asr r0
     db8:	0001b400 	andeq	fp, r1, r0, lsl #8
     dbc:	55000100 	strpl	r0, [r0, #-256]	; 0x100
     dc0:	000001bc 			; <UNDEFINED> instruction: 0x000001bc
     dc4:	000001c0 	andeq	r0, r0, r0, asr #3
     dc8:	c8550001 	ldmdagt	r5, {r0}^
     dcc:	cc000001 	stcgt	0, cr0, [r0], {1}
     dd0:	01000001 	tsteq	r0, r1
     dd4:	01d05500 	bicseq	r5, r0, r0, lsl #10
     dd8:	02100000 	andseq	r0, r0, #0
     ddc:	00010000 	andeq	r0, r1, r0
     de0:	00000055 	andeq	r0, r0, r5, asr r0
     de4:	00000000 	andeq	r0, r0, r0
     de8:	00016000 	andeq	r6, r1, r0
     dec:	00018800 	andeq	r8, r1, r0, lsl #16
     df0:	53000100 	movwpl	r0, #256	; 0x100
     df4:	00000188 	andeq	r0, r0, r8, lsl #3
     df8:	00000190 	muleq	r0, r0, r1
     dfc:	0070001c 	rsbseq	r0, r0, ip, lsl r0
     e00:	25f72cf7 	ldrbcs	r2, [r7, #3319]!	; 0xcf7
     e04:	cd0825f4 	cfstr32gt	mvfx2, [r8, #-976]	; 0xfffffc30
     e08:	00cccccc 	sbceq	ip, ip, ip, asr #25
     e0c:	1e000000 	cdpne	0, 0, cr0, cr0, cr0, {0}
     e10:	25f72008 	ldrbcs	r2, [r7, #8]!
     e14:	332cf725 	msrcc	CPSR_fs, #9699328	; 0x940000
     e18:	01909f25 	orrseq	r9, r0, r5, lsr #30
     e1c:	01940000 	orrseq	r0, r4, r0
     e20:	00010000 	andeq	r0, r1, r0
     e24:	00019453 	andeq	r9, r1, r3, asr r4
     e28:	00019c00 	andeq	r9, r1, r0, lsl #24
     e2c:	70001c00 	andvc	r1, r0, r0, lsl #24
     e30:	f72cf700 			; <UNDEFINED> instruction: 0xf72cf700
     e34:	0825f425 	stmdaeq	r5!, {r0, r2, r5, sl, ip, sp, lr, pc}
     e38:	cccccccd 	stclgt	12, cr12, [ip], {205}	; 0xcd
     e3c:	00000000 	andeq	r0, r0, r0
     e40:	f720081e 			; <UNDEFINED> instruction: 0xf720081e
     e44:	2cf72525 	cfldr64cs	mvdx2, [r7], #148	; 0x94
     e48:	9c9f2533 	cfldr32ls	mvfx2, [pc], {51}	; 0x33
     e4c:	a0000001 	andge	r0, r0, r1
     e50:	01000001 	tsteq	r0, r1
     e54:	01a05300 	lsleq	r5, r0, #6
     e58:	01a80000 			; <UNDEFINED> instruction: 0x01a80000
     e5c:	001c0000 	andseq	r0, ip, r0
     e60:	2cf70070 	ldclcs	0, cr0, [r7], #448	; 0x1c0
     e64:	25f425f7 	ldrbcs	r2, [r4, #1527]!	; 0x5f7
     e68:	cccccd08 	stclgt	13, cr12, [ip], {8}
     e6c:	000000cc 	andeq	r0, r0, ip, asr #1
     e70:	20081e00 	andcs	r1, r8, r0, lsl #28
     e74:	f72525f7 			; <UNDEFINED> instruction: 0xf72525f7
     e78:	9f25332c 	svcls	0x0025332c
     e7c:	000001a8 	andeq	r0, r0, r8, lsr #3
     e80:	000001ac 	andeq	r0, r0, ip, lsr #3
     e84:	ac530001 	mrrcge	0, 0, r0, r3, cr1
     e88:	b4000001 	strlt	r0, [r0], #-1
     e8c:	1c000001 	stcne	0, cr0, [r0], {1}
     e90:	f7007000 			; <UNDEFINED> instruction: 0xf7007000
     e94:	f425f72c 	vld1.8	{d15}, [r5 :128], ip
     e98:	cccd0825 	stclgt	8, cr0, [sp], {37}	; 0x25
     e9c:	0000cccc 	andeq	ip, r0, ip, asr #25
     ea0:	081e0000 	ldmdaeq	lr, {}	; <UNPREDICTABLE>
     ea4:	2525f720 	strcs	pc, [r5, #-1824]!	; 0x720
     ea8:	25332cf7 	ldrcs	r2, [r3, #-3319]!	; 0xcf7
     eac:	0001b49f 	muleq	r1, pc, r4	; <UNPREDICTABLE>
     eb0:	0001b800 	andeq	fp, r1, r0, lsl #16
     eb4:	53000100 	movwpl	r0, #256	; 0x100
     eb8:	000001b8 			; <UNDEFINED> instruction: 0x000001b8
     ebc:	000001c0 	andeq	r0, r0, r0, asr #3
     ec0:	0070001c 	rsbseq	r0, r0, ip, lsl r0
     ec4:	25f72cf7 	ldrbcs	r2, [r7, #3319]!	; 0xcf7
     ec8:	cd0825f4 	cfstr32gt	mvfx2, [r8, #-976]	; 0xfffffc30
     ecc:	00cccccc 	sbceq	ip, ip, ip, asr #25
     ed0:	1e000000 	cdpne	0, 0, cr0, cr0, cr0, {0}
     ed4:	25f72008 	ldrbcs	r2, [r7, #8]!
     ed8:	332cf725 	msrcc	CPSR_fs, #9699328	; 0x940000
     edc:	01c09f25 	biceq	r9, r0, r5, lsr #30
     ee0:	01c40000 	biceq	r0, r4, r0
     ee4:	00010000 	andeq	r0, r1, r0
     ee8:	0001c453 	andeq	ip, r1, r3, asr r4
     eec:	0001cc00 	andeq	ip, r1, r0, lsl #24
     ef0:	70001c00 	andvc	r1, r0, r0, lsl #24
     ef4:	f72cf700 			; <UNDEFINED> instruction: 0xf72cf700
     ef8:	0825f425 	stmdaeq	r5!, {r0, r2, r5, sl, ip, sp, lr, pc}
     efc:	cccccccd 	stclgt	12, cr12, [ip], {205}	; 0xcd
     f00:	00000000 	andeq	r0, r0, r0
     f04:	f720081e 			; <UNDEFINED> instruction: 0xf720081e
     f08:	2cf72525 	cfldr64cs	mvdx2, [r7], #148	; 0x94
     f0c:	cc9f2533 	cfldr32gt	mvfx2, [pc], {51}	; 0x33
     f10:	d0000001 	andle	r0, r0, r1
     f14:	01000001 	tsteq	r0, r1
     f18:	01d05300 	bicseq	r5, r0, r0, lsl #6
     f1c:	01d40000 	bicseq	r0, r4, r0
     f20:	001c0000 	andseq	r0, ip, r0
     f24:	2cf70070 	ldclcs	0, cr0, [r7], #448	; 0x1c0
     f28:	25f425f7 	ldrbcs	r2, [r4, #1527]!	; 0x5f7
     f2c:	cccccd08 	stclgt	13, cr12, [ip], {8}
     f30:	000000cc 	andeq	r0, r0, ip, asr #1
     f34:	20081e00 	andcs	r1, r8, r0, lsl #28
     f38:	f72525f7 			; <UNDEFINED> instruction: 0xf72525f7
     f3c:	9f25332c 	svcls	0x0025332c
     f40:	000001d4 	ldrdeq	r0, [r0], -r4
     f44:	000001dc 	ldrdeq	r0, [r0], -ip
     f48:	0074001c 	rsbseq	r0, r4, ip, lsl r0
     f4c:	25f72cf7 	ldrbcs	r2, [r7, #3319]!	; 0xcf7
     f50:	cd0825f4 	cfstr32gt	mvfx2, [r8, #-976]	; 0xfffffc30
     f54:	00cccccc 	sbceq	ip, ip, ip, asr #25
     f58:	1e000000 	cdpne	0, 0, cr0, cr0, cr0, {0}
     f5c:	25f72008 	ldrbcs	r2, [r7, #8]!
     f60:	332cf725 	msrcc	CPSR_fs, #9699328	; 0x940000
     f64:	01dc9f25 	bicseq	r9, ip, r5, lsr #30
     f68:	01e00000 	mvneq	r0, r0
     f6c:	00170000 	andseq	r0, r7, r0
     f70:	2cf70074 	ldclcs	0, cr0, [r7], #464	; 0x1d0
     f74:	007125f7 	ldrshteq	r2, [r1], #-87	; 0xffffffa9
     f78:	25f72cf7 	ldrbcs	r2, [r7, #3319]!	; 0xcf7
     f7c:	f720081e 			; <UNDEFINED> instruction: 0xf720081e
     f80:	2cf72525 	cfldr64cs	mvdx2, [r7], #148	; 0x94
     f84:	e09f2533 	adds	r2, pc, r3, lsr r5	; <UNPREDICTABLE>
     f88:	10000001 	andne	r0, r0, r1
     f8c:	1c000002 	stcne	0, cr0, [r0], {2}
     f90:	f7007400 			; <UNDEFINED> instruction: 0xf7007400
     f94:	f425f72c 	vld1.8	{d15}, [r5 :128], ip
     f98:	cccd0825 	stclgt	8, cr0, [sp], {37}	; 0x25
     f9c:	0000cccc 	andeq	ip, r0, ip, asr #25
     fa0:	081e0000 	ldmdaeq	lr, {}	; <UNPREDICTABLE>
     fa4:	2525f720 	strcs	pc, [r5, #-1824]!	; 0x720
     fa8:	25332cf7 	ldrcs	r2, [r3, #-3319]!	; 0xcf7
     fac:	0000009f 	muleq	r0, pc, r0	; <UNPREDICTABLE>
     fb0:	00000000 	andeq	r0, r0, r0
     fb4:	0001d800 	andeq	sp, r1, r0, lsl #16
     fb8:	0001fc00 	andeq	pc, r1, r0, lsl #24
     fbc:	50000100 	andpl	r0, r0, r0, lsl #2
     fc0:	000001fc 	strdeq	r0, [r0], -ip
     fc4:	00000203 	andeq	r0, r0, r3, lsl #4
     fc8:	00510001 	subseq	r0, r1, r1
     fcc:	00000000 	andeq	r0, r0, r0
     fd0:	10000000 	andne	r0, r0, r0
     fd4:	2c000002 	stccs	0, cr0, [r0], {2}
     fd8:	01000002 	tsteq	r0, r2
     fdc:	022c5000 	eoreq	r5, ip, #0
     fe0:	02340000 	eorseq	r0, r4, #0
     fe4:	00010000 	andeq	r0, r1, r0
     fe8:	00023454 	andeq	r3, r2, r4, asr r4
     fec:	00023c00 	andeq	r3, r2, r0, lsl #24
     ff0:	50000100 	andpl	r0, r0, r0, lsl #2
     ff4:	0000023c 	andeq	r0, r0, ip, lsr r2
     ff8:	00000244 	andeq	r0, r0, r4, asr #4
     ffc:	44540001 	ldrbmi	r0, [r4], #-1
    1000:	50000002 	andpl	r0, r0, r2
    1004:	04000002 	streq	r0, [r0], #-2
    1008:	5001f300 	andpl	pc, r1, r0, lsl #6
    100c:	0002509f 	muleq	r2, pc, r0	; <UNPREDICTABLE>
    1010:	00025400 	andeq	r5, r2, r0, lsl #8
    1014:	50000100 	andpl	r0, r0, r0, lsl #2
    1018:	00000254 	andeq	r0, r0, r4, asr r2
    101c:	0000025c 	andeq	r0, r0, ip, asr r2
    1020:	00540001 	subseq	r0, r4, r1
    1024:	00000000 	andeq	r0, r0, r0
    1028:	20000000 	andcs	r0, r0, r0
    102c:	30000002 	andcc	r0, r0, r2
    1030:	02000002 	andeq	r0, r0, #2
    1034:	309f3000 	addscc	r3, pc, r0
    1038:	34000002 	strcc	r0, [r0], #-2
    103c:	01000002 	tsteq	r0, r2
    1040:	02345000 	eorseq	r5, r4, #0
    1044:	02400000 	subeq	r0, r0, #0
    1048:	00020000 	andeq	r0, r2, r0
    104c:	02409f30 	subeq	r9, r0, #48, 30	; 0xc0
    1050:	024c0000 	subeq	r0, ip, #0
    1054:	00010000 	andeq	r0, r1, r0
    1058:	00000050 	andeq	r0, r0, r0, asr r0
    105c:	00000000 	andeq	r0, r0, r0
    1060:	00025c00 	andeq	r5, r2, r0, lsl #24
    1064:	00027300 	andeq	r7, r2, r0, lsl #6
    1068:	50000100 	andpl	r0, r0, r0, lsl #2
    106c:	00000273 	andeq	r0, r0, r3, ror r2
    1070:	00000278 	andeq	r0, r0, r8, ror r2
    1074:	01f30004 	mvnseq	r0, r4
    1078:	02789f50 	rsbseq	r9, r8, #80, 30	; 0x140
    107c:	027b0000 	rsbseq	r0, fp, #0
    1080:	00010000 	andeq	r0, r1, r0
    1084:	00027b50 	andeq	r7, r2, r0, asr fp
    1088:	00028000 	andeq	r8, r2, r0
    108c:	f3000400 	vshl.u8	d0, d0, d0
    1090:	009f5001 	addseq	r5, pc, r1
    1094:	00000000 	andeq	r0, r0, r0
    1098:	5c000000 	stcpl	0, cr0, [r0], {-0}
    109c:	73000002 	movwvc	r0, #2
    10a0:	01000002 	tsteq	r0, r2
    10a4:	02735100 	rsbseq	r5, r3, #0, 2
    10a8:	02780000 	rsbseq	r0, r8, #0
    10ac:	00040000 	andeq	r0, r4, r0
    10b0:	9f5101f3 	svcls	0x005101f3
    10b4:	00000278 	andeq	r0, r0, r8, ror r2
    10b8:	0000027b 	andeq	r0, r0, fp, ror r2
    10bc:	7b510001 	blvc	14410c8 <__bss_end__+0x14371c8>
    10c0:	80000002 	andhi	r0, r0, r2
    10c4:	04000002 	streq	r0, [r0], #-2
    10c8:	5101f300 	mrspl	pc, SP_irq	; <UNPREDICTABLE>
    10cc:	0000009f 	muleq	r0, pc, r0	; <UNPREDICTABLE>
    10d0:	00000000 	andeq	r0, r0, r0
    10d4:	00028000 	andeq	r8, r2, r0
    10d8:	00031800 	andeq	r1, r3, r0, lsl #16
    10dc:	50000100 	andpl	r0, r0, r0, lsl #2
    10e0:	00000318 	andeq	r0, r0, r8, lsl r3
    10e4:	00000358 	andeq	r0, r0, r8, asr r3
    10e8:	00540001 	subseq	r0, r4, r1
    10ec:	00000000 	andeq	r0, r0, r0
    10f0:	80000000 	andhi	r0, r0, r0
    10f4:	1b000002 	blne	1104 <_start-0x6efc>
    10f8:	01000003 	tsteq	r0, r3
    10fc:	031b5100 	tsteq	fp, #0, 2
    1100:	03580000 	cmpeq	r8, #0
    1104:	00040000 	andeq	r0, r4, r0
    1108:	9f5101f3 	svcls	0x005101f3
	...
    1114:	000002d0 	ldrdeq	r0, [r0], -r0	; <UNPREDICTABLE>
    1118:	000002d4 	ldrdeq	r0, [r0], -r4
    111c:	dc560001 	mrrcle	0, 0, r0, r6, cr1
    1120:	e0000002 	and	r0, r0, r2
    1124:	01000002 	tsteq	r0, r2
    1128:	02e85600 	rsceq	r5, r8, #0, 12
    112c:	02ec0000 	rsceq	r0, ip, #0
    1130:	00010000 	andeq	r0, r1, r0
    1134:	0002f456 	andeq	pc, r2, r6, asr r4	; <UNPREDICTABLE>
    1138:	0002f800 	andeq	pc, r2, r0, lsl #16
    113c:	56000100 	strpl	r0, [r0], -r0, lsl #2
    1140:	00000300 	andeq	r0, r0, r0, lsl #6
    1144:	00000304 	andeq	r0, r0, r4, lsl #6
    1148:	0c560001 	mrrceq	0, 0, r0, r6, cr1
    114c:	10000003 	andne	r0, r0, r3
    1150:	01000003 	tsteq	r0, r3
    1154:	03145600 	tsteq	r4, #0, 12
    1158:	03580000 	cmpeq	r8, #0
    115c:	00010000 	andeq	r0, r1, r0
    1160:	00000056 	andeq	r0, r0, r6, asr r0
    1164:	00000000 	andeq	r0, r0, r0
    1168:	0002a400 	andeq	sl, r2, r0, lsl #8
    116c:	0002cc00 	andeq	ip, r2, r0, lsl #24
    1170:	53000100 	movwpl	r0, #256	; 0x100
    1174:	000002cc 	andeq	r0, r0, ip, asr #5
    1178:	000002d4 	ldrdeq	r0, [r0], -r4
    117c:	0070001c 	rsbseq	r0, r0, ip, lsl r0
    1180:	25f72cf7 	ldrbcs	r2, [r7, #3319]!	; 0xcf7
    1184:	cd0825f4 	cfstr32gt	mvfx2, [r8, #-976]	; 0xfffffc30
    1188:	00cccccc 	sbceq	ip, ip, ip, asr #25
    118c:	1e000000 	cdpne	0, 0, cr0, cr0, cr0, {0}
    1190:	25f72008 	ldrbcs	r2, [r7, #8]!
    1194:	332cf725 	msrcc	CPSR_fs, #9699328	; 0x940000
    1198:	02d49f25 	sbcseq	r9, r4, #37, 30	; 0x94
    119c:	02d80000 	sbcseq	r0, r8, #0
    11a0:	00010000 	andeq	r0, r1, r0
    11a4:	0002d853 	andeq	sp, r2, r3, asr r8
    11a8:	0002e000 	andeq	lr, r2, r0
    11ac:	70001c00 	andvc	r1, r0, r0, lsl #24
    11b0:	f72cf700 			; <UNDEFINED> instruction: 0xf72cf700
    11b4:	0825f425 	stmdaeq	r5!, {r0, r2, r5, sl, ip, sp, lr, pc}
    11b8:	cccccccd 	stclgt	12, cr12, [ip], {205}	; 0xcd
    11bc:	00000000 	andeq	r0, r0, r0
    11c0:	f720081e 			; <UNDEFINED> instruction: 0xf720081e
    11c4:	2cf72525 	cfldr64cs	mvdx2, [r7], #148	; 0x94
    11c8:	e09f2533 	adds	r2, pc, r3, lsr r5	; <UNPREDICTABLE>
    11cc:	e4000002 	str	r0, [r0], #-2
    11d0:	01000002 	tsteq	r0, r2
    11d4:	02e45300 	rsceq	r5, r4, #0, 6
    11d8:	02ec0000 	rsceq	r0, ip, #0
    11dc:	001c0000 	andseq	r0, ip, r0
    11e0:	2cf70070 	ldclcs	0, cr0, [r7], #448	; 0x1c0
    11e4:	25f425f7 	ldrbcs	r2, [r4, #1527]!	; 0x5f7
    11e8:	cccccd08 	stclgt	13, cr12, [ip], {8}
    11ec:	000000cc 	andeq	r0, r0, ip, asr #1
    11f0:	20081e00 	andcs	r1, r8, r0, lsl #28
    11f4:	f72525f7 			; <UNDEFINED> instruction: 0xf72525f7
    11f8:	9f25332c 	svcls	0x0025332c
    11fc:	000002ec 	andeq	r0, r0, ip, ror #5
    1200:	000002f0 	strdeq	r0, [r0], -r0	; <UNPREDICTABLE>
    1204:	f0530001 			; <UNDEFINED> instruction: 0xf0530001
    1208:	f8000002 			; <UNDEFINED> instruction: 0xf8000002
    120c:	1c000002 	stcne	0, cr0, [r0], {2}
    1210:	f7007000 			; <UNDEFINED> instruction: 0xf7007000
    1214:	f425f72c 	vld1.8	{d15}, [r5 :128], ip
    1218:	cccd0825 	stclgt	8, cr0, [sp], {37}	; 0x25
    121c:	0000cccc 	andeq	ip, r0, ip, asr #25
    1220:	081e0000 	ldmdaeq	lr, {}	; <UNPREDICTABLE>
    1224:	2525f720 	strcs	pc, [r5, #-1824]!	; 0x720
    1228:	25332cf7 	ldrcs	r2, [r3, #-3319]!	; 0xcf7
    122c:	0002f89f 	muleq	r2, pc, r8	; <UNPREDICTABLE>
    1230:	0002fc00 	andeq	pc, r2, r0, lsl #24
    1234:	53000100 	movwpl	r0, #256	; 0x100
    1238:	000002fc 	strdeq	r0, [r0], -ip
    123c:	00000304 	andeq	r0, r0, r4, lsl #6
    1240:	0070001c 	rsbseq	r0, r0, ip, lsl r0
    1244:	25f72cf7 	ldrbcs	r2, [r7, #3319]!	; 0xcf7
    1248:	cd0825f4 	cfstr32gt	mvfx2, [r8, #-976]	; 0xfffffc30
    124c:	00cccccc 	sbceq	ip, ip, ip, asr #25
    1250:	1e000000 	cdpne	0, 0, cr0, cr0, cr0, {0}
    1254:	25f72008 	ldrbcs	r2, [r7, #8]!
    1258:	332cf725 	msrcc	CPSR_fs, #9699328	; 0x940000
    125c:	03049f25 	movweq	r9, #20261	; 0x4f25
    1260:	03080000 	movweq	r0, #32768	; 0x8000
    1264:	00010000 	andeq	r0, r1, r0
    1268:	00030853 	andeq	r0, r3, r3, asr r8
    126c:	00031000 	andeq	r1, r3, r0
    1270:	70001c00 	andvc	r1, r0, r0, lsl #24
    1274:	f72cf700 			; <UNDEFINED> instruction: 0xf72cf700
    1278:	0825f425 	stmdaeq	r5!, {r0, r2, r5, sl, ip, sp, lr, pc}
    127c:	cccccccd 	stclgt	12, cr12, [ip], {205}	; 0xcd
    1280:	00000000 	andeq	r0, r0, r0
    1284:	f720081e 			; <UNDEFINED> instruction: 0xf720081e
    1288:	2cf72525 	cfldr64cs	mvdx2, [r7], #148	; 0x94
    128c:	109f2533 	addsne	r2, pc, r3, lsr r5	; <UNPREDICTABLE>
    1290:	14000003 	strne	r0, [r0], #-3
    1294:	01000003 	tsteq	r0, r3
    1298:	03145300 	tsteq	r4, #0, 6
    129c:	03180000 	tsteq	r8, #0
    12a0:	001c0000 	andseq	r0, ip, r0
    12a4:	2cf70070 	ldclcs	0, cr0, [r7], #448	; 0x1c0
    12a8:	25f425f7 	ldrbcs	r2, [r4, #1527]!	; 0x5f7
    12ac:	cccccd08 	stclgt	13, cr12, [ip], {8}
    12b0:	000000cc 	andeq	r0, r0, ip, asr #1
    12b4:	20081e00 	andcs	r1, r8, r0, lsl #28
    12b8:	f72525f7 			; <UNDEFINED> instruction: 0xf72525f7
    12bc:	9f25332c 	svcls	0x0025332c
    12c0:	00000318 	andeq	r0, r0, r8, lsl r3
    12c4:	00000320 	andeq	r0, r0, r0, lsr #6
    12c8:	0074001c 	rsbseq	r0, r4, ip, lsl r0
    12cc:	25f72cf7 	ldrbcs	r2, [r7, #3319]!	; 0xcf7
    12d0:	cd0825f4 	cfstr32gt	mvfx2, [r8, #-976]	; 0xfffffc30
    12d4:	00cccccc 	sbceq	ip, ip, ip, asr #25
    12d8:	1e000000 	cdpne	0, 0, cr0, cr0, cr0, {0}
    12dc:	25f72008 	ldrbcs	r2, [r7, #8]!
    12e0:	332cf725 	msrcc	CPSR_fs, #9699328	; 0x940000
    12e4:	03209f25 	teqeq	r0, #37, 30	; 0x94
    12e8:	03240000 	teqeq	r4, #0
    12ec:	00170000 	andseq	r0, r7, r0
    12f0:	2cf70074 	ldclcs	0, cr0, [r7], #464	; 0x1d0
    12f4:	007325f7 	ldrshteq	r2, [r3], #-87	; 0xffffffa9
    12f8:	25f72cf7 	ldrbcs	r2, [r7, #3319]!	; 0xcf7
    12fc:	f720081e 			; <UNDEFINED> instruction: 0xf720081e
    1300:	2cf72525 	cfldr64cs	mvdx2, [r7], #148	; 0x94
    1304:	249f2533 	ldrcs	r2, [pc], #1331	; 130c <_start-0x6cf4>
    1308:	58000003 	stmdapl	r0, {r0, r1}
    130c:	1c000003 	stcne	0, cr0, [r0], {3}
    1310:	f7007400 			; <UNDEFINED> instruction: 0xf7007400
    1314:	f425f72c 	vld1.8	{d15}, [r5 :128], ip
    1318:	cccd0825 	stclgt	8, cr0, [sp], {37}	; 0x25
    131c:	0000cccc 	andeq	ip, r0, ip, asr #25
    1320:	081e0000 	ldmdaeq	lr, {}	; <UNPREDICTABLE>
    1324:	2525f720 	strcs	pc, [r5, #-1824]!	; 0x720
    1328:	25332cf7 	ldrcs	r2, [r3, #-3319]!	; 0xcf7
    132c:	0000009f 	muleq	r0, pc, r0	; <UNPREDICTABLE>
    1330:	00000000 	andeq	r0, r0, r0
    1334:	00031c00 	andeq	r1, r3, r0, lsl #24
    1338:	00034000 	andeq	r4, r3, r0
    133c:	50000100 	andpl	r0, r0, r0, lsl #2
    1340:	00000340 	andeq	r0, r0, r0, asr #6
    1344:	00000348 	andeq	r0, r0, r8, asr #6
    1348:	00750009 	rsbseq	r0, r5, r9
    134c:	71240073 	teqvc	r4, r3, ror r0
    1350:	489f2100 	ldmmi	pc, {r8, sp}	; <UNPREDICTABLE>
    1354:	4b000003 	blmi	1368 <_start-0x6c98>
    1358:	01000003 	tsteq	r0, r3
    135c:	00005100 	andeq	r5, r0, r0, lsl #2
    1360:	00000000 	andeq	r0, r0, r0
    1364:	03580000 	cmpeq	r8, #0
    1368:	037c0000 	cmneq	ip, #0
    136c:	00010000 	andeq	r0, r1, r0
    1370:	00037c50 	andeq	r7, r3, r0, asr ip
    1374:	00039000 	andeq	r9, r3, r0
    1378:	f3000400 	vshl.u8	d0, d0, d0
    137c:	009f5001 	addseq	r5, pc, r1
    1380:	00000000 	andeq	r0, r0, r0
    1384:	64000000 	strvs	r0, [r0], #-0
    1388:	6c000003 	stcvs	0, cr0, [r0], {3}
    138c:	02000003 	andeq	r0, r0, #3
    1390:	6c9f3000 	ldcvs	0, cr3, [pc], {0}
    1394:	6c000003 	stcvs	0, cr0, [r0], {3}
    1398:	01000003 	tsteq	r0, r3
    139c:	036c5200 	cmneq	ip, #0, 4
    13a0:	03740000 	cmneq	r4, #0
    13a4:	00020000 	andeq	r0, r2, r0
    13a8:	03749f30 	cmneq	r4, #48, 30	; 0xc0
    13ac:	03870000 	orreq	r0, r7, #0
    13b0:	00010000 	andeq	r0, r1, r0
    13b4:	00000052 	andeq	r0, r0, r2, asr r0
    13b8:	00000000 	andeq	r0, r0, r0
    13bc:	00036400 	andeq	r6, r3, r0, lsl #8
    13c0:	00037800 	andeq	r7, r3, r0, lsl #16
    13c4:	30000200 	andcc	r0, r0, r0, lsl #4
    13c8:	0003789f 	muleq	r3, pc, r8	; <UNPREDICTABLE>
    13cc:	00038400 	andeq	r8, r3, r0, lsl #8
    13d0:	31000500 	tstcc	r0, r0, lsl #10
    13d4:	9f240073 	svcls	0x00240073
    13d8:	00000384 	andeq	r0, r0, r4, lsl #7
    13dc:	00000387 	andeq	r0, r0, r7, lsl #7
    13e0:	87510001 	ldrbhi	r0, [r1, -r1]
    13e4:	90000003 	andls	r0, r0, r3
    13e8:	08000003 	stmdaeq	r0, {r0, r1}
    13ec:	01f33100 	mvnseq	r3, r0, lsl #2
    13f0:	241a4f50 	ldrcs	r4, [sl], #-3920	; 0xf50
    13f4:	0000009f 	muleq	r0, pc, r0	; <UNPREDICTABLE>
    13f8:	00000000 	andeq	r0, r0, r0
    13fc:	00039000 	andeq	r9, r3, r0
    1400:	00039c00 	andeq	r9, r3, r0, lsl #24
    1404:	50000100 	andpl	r0, r0, r0, lsl #2
    1408:	0000039c 	muleq	r0, ip, r3
    140c:	000003bc 			; <UNDEFINED> instruction: 0x000003bc
    1410:	01f30004 	mvnseq	r0, r4
    1414:	00009f50 	andeq	r9, r0, r0, asr pc
    1418:	00000000 	andeq	r0, r0, r0
    141c:	03bc0000 			; <UNDEFINED> instruction: 0x03bc0000
    1420:	03cf0000 	biceq	r0, pc, #0
    1424:	00010000 	andeq	r0, r1, r0
    1428:	0003cf50 	andeq	ip, r3, r0, asr pc
    142c:	00040800 	andeq	r0, r4, r0, lsl #16
    1430:	54000100 	strpl	r0, [r0], #-256	; 0x100
    1434:	00000408 	andeq	r0, r0, r8, lsl #8
    1438:	00000440 	andeq	r0, r0, r0, asr #8
    143c:	01f30004 	mvnseq	r0, r4
    1440:	00009f50 	andeq	r9, r0, r0, asr pc
    1444:	00000000 	andeq	r0, r0, r0
    1448:	04280000 	strteq	r0, [r8], #-0
    144c:	042c0000 	strteq	r0, [ip], #-0
    1450:	00010000 	andeq	r0, r1, r0
    1454:	00042c50 	andeq	r2, r4, r0, asr ip
    1458:	00043300 	andeq	r3, r4, r0, lsl #6
    145c:	51000100 	mrspl	r0, (UNDEF: 16)
	...
    1468:	000003e4 	andeq	r0, r0, r4, ror #7
    146c:	000003ec 	andeq	r0, r0, ip, ror #7
    1470:	ec500001 	mrrc	0, 0, r0, r0, cr1	; <UNPREDICTABLE>
    1474:	f3000003 	vhadd.u8	d0, d0, d3
    1478:	01000003 	tsteq	r0, r3
    147c:	00005100 	andeq	r5, r0, r0, lsl #2
    1480:	00000000 	andeq	r0, r0, r0
    1484:	04040000 	streq	r0, [r4], #-0
    1488:	04100000 	ldreq	r0, [r0], #-0
    148c:	00010000 	andeq	r0, r1, r0
    1490:	00041050 	andeq	r1, r4, r0, asr r0
    1494:	00041700 	andeq	r1, r4, r0, lsl #14
    1498:	51000100 	mrspl	r0, (UNDEF: 16)
	...
    14a4:	00000440 	andeq	r0, r0, r0, asr #8
    14a8:	00000453 	andeq	r0, r0, r3, asr r4
    14ac:	53500001 	cmppl	r0, #1
    14b0:	8c000004 	stchi	0, cr0, [r0], {4}
    14b4:	01000004 	tsteq	r0, r4
    14b8:	048c5400 	streq	r5, [ip], #1024	; 0x400
    14bc:	04c40000 	strbeq	r0, [r4], #0
    14c0:	00040000 	andeq	r0, r4, r0
    14c4:	9f5001f3 	svcls	0x005001f3
	...
    14d0:	000004ac 	andeq	r0, r0, ip, lsr #9
    14d4:	000004b0 			; <UNDEFINED> instruction: 0x000004b0
    14d8:	b0500001 	subslt	r0, r0, r1
    14dc:	b7000004 	strlt	r0, [r0, -r4]
    14e0:	01000004 	tsteq	r0, r4
    14e4:	00005100 	andeq	r5, r0, r0, lsl #2
    14e8:	00000000 	andeq	r0, r0, r0
    14ec:	04680000 	strbteq	r0, [r8], #-0
    14f0:	04700000 	ldrbteq	r0, [r0], #-0
    14f4:	00010000 	andeq	r0, r1, r0
    14f8:	00047050 	andeq	r7, r4, r0, asr r0
    14fc:	00047700 	andeq	r7, r4, r0, lsl #14
    1500:	51000100 	mrspl	r0, (UNDEF: 16)
	...
    150c:	00000488 	andeq	r0, r0, r8, lsl #9
    1510:	00000494 	muleq	r0, r4, r4
    1514:	94500001 	ldrbls	r0, [r0], #-1
    1518:	9b000004 	blls	1530 <_start-0x6ad0>
    151c:	01000004 	tsteq	r0, r4
    1520:	00005100 	andeq	r5, r0, r0, lsl #2
    1524:	00000000 	andeq	r0, r0, r0
    1528:	04c40000 	strbeq	r0, [r4], #0
    152c:	04d70000 	ldrbeq	r0, [r7], #0
    1530:	00010000 	andeq	r0, r1, r0
    1534:	0004d750 	andeq	sp, r4, r0, asr r7
    1538:	00051800 	andeq	r1, r5, r0, lsl #16
    153c:	54000100 	strpl	r0, [r0], #-256	; 0x100
    1540:	00000518 	andeq	r0, r0, r8, lsl r5
    1544:	0000053c 	andeq	r0, r0, ip, lsr r5
    1548:	01f30004 	mvnseq	r0, r4
    154c:	053c9f50 	ldreq	r9, [ip, #-3920]!	; 0xf50
    1550:	05400000 	strbeq	r0, [r0, #-0]
    1554:	00010000 	andeq	r0, r1, r0
    1558:	00054050 	andeq	r4, r5, r0, asr r0
    155c:	00054800 	andeq	r4, r5, r0, lsl #16
    1560:	54000100 	strpl	r0, [r0], #-256	; 0x100
	...
    156c:	000004ec 	andeq	r0, r0, ip, ror #9
    1570:	000004fb 	strdeq	r0, [r0], -fp
    1574:	74310008 	ldrtvc	r0, [r1], #-8
    1578:	00702400 	rsbseq	r2, r0, r0, lsl #8
    157c:	00009f1a 	andeq	r9, r0, sl, lsl pc
    1580:	00000000 	andeq	r0, r0, r0
    1584:	05180000 	ldreq	r0, [r8, #-0]
    1588:	05300000 	ldreq	r0, [r0, #-0]!
    158c:	00010000 	andeq	r0, r1, r0
    1590:	00000054 	andeq	r0, r0, r4, asr r0
    1594:	00000000 	andeq	r0, r0, r0
    1598:	00054800 	andeq	r4, r5, r0, lsl #16
    159c:	00055b00 	andeq	r5, r5, r0, lsl #22
    15a0:	50000100 	andpl	r0, r0, r0, lsl #2
    15a4:	0000055b 	andeq	r0, r0, fp, asr r5
    15a8:	00000580 	andeq	r0, r0, r0, lsl #11
    15ac:	80540001 	subshi	r0, r4, r1
    15b0:	a0000005 	andge	r0, r0, r5
    15b4:	04000005 	streq	r0, [r0], #-5
    15b8:	5001f300 	andpl	pc, r1, r0, lsl #6
    15bc:	0000009f 	muleq	r0, pc, r0	; <UNPREDICTABLE>
	...
    15c8:	00001800 	andeq	r1, r0, r0, lsl #16
    15cc:	50000100 	andpl	r0, r0, r0, lsl #2
    15d0:	00000018 	andeq	r0, r0, r8, lsl r0
    15d4:	00000154 	andeq	r0, r0, r4, asr r1
    15d8:	01f30004 	mvnseq	r0, r4
    15dc:	00009f50 	andeq	r9, r0, r0, asr pc
	...
    15e8:	001c0000 	andseq	r0, ip, r0
    15ec:	00010000 	andeq	r0, r1, r0
    15f0:	00001c51 	andeq	r1, r0, r1, asr ip
    15f4:	00015400 	andeq	r5, r1, r0, lsl #8
    15f8:	f3000400 	vshl.u8	d0, d0, d0
    15fc:	009f5101 	addseq	r5, pc, r1, lsl #2
    1600:	00000000 	andeq	r0, r0, r0
    1604:	10000000 	andne	r0, r0, r0
    1608:	34000000 	strcc	r0, [r0], #-0
    160c:	01000001 	tsteq	r0, r1
    1610:	00005500 	andeq	r5, r0, r0, lsl #10
    1614:	00000000 	andeq	r0, r0, r0
    1618:	00100000 	andseq	r0, r0, r0
    161c:	00340000 	eorseq	r0, r4, r0
    1620:	00010000 	andeq	r0, r1, r0
    1624:	00003455 	andeq	r3, r0, r5, asr r4
    1628:	00013400 	andeq	r3, r1, r0, lsl #8
    162c:	58000100 	stmdapl	r0, {r8}
    1630:	00000134 	andeq	r0, r0, r4, lsr r1
    1634:	00000154 	andeq	r0, r0, r4, asr r1
    1638:	00550001 	subseq	r0, r5, r1
    163c:	00000000 	andeq	r0, r0, r0
    1640:	14000000 	strne	r0, [r0], #-0
    1644:	34000000 	strcc	r0, [r0], #-0
    1648:	01000001 	tsteq	r0, r1
    164c:	00005500 	andeq	r5, r0, r0, lsl #10
    1650:	00000000 	andeq	r0, r0, r0
    1654:	00200000 	eoreq	r0, r0, r0
    1658:	01340000 	teqeq	r4, r0
    165c:	00010000 	andeq	r0, r1, r0
    1660:	00000055 	andeq	r0, r0, r5, asr r0
    1664:	00000000 	andeq	r0, r0, r0
    1668:	00002400 	andeq	r2, r0, r0, lsl #8
    166c:	00002800 	andeq	r2, r0, r0, lsl #16
    1670:	53000100 	movwpl	r0, #256	; 0x100
	...
    167c:	00000034 	andeq	r0, r0, r4, lsr r0
    1680:	00000054 	andeq	r0, r0, r4, asr r0
    1684:	54580001 	ldrbpl	r0, [r8], #-1
    1688:	34000000 	strcc	r0, [r0], #-0
    168c:	05000001 	streq	r0, [r0, #-1]
    1690:	31007500 	tstcc	r0, r0, lsl #10
    1694:	00009f24 	andeq	r9, r0, r4, lsr #30
    1698:	00000000 	andeq	r0, r0, r0
    169c:	00340000 	eorseq	r0, r4, r0
    16a0:	003c0000 	eorseq	r0, ip, r0
    16a4:	00050000 	andeq	r0, r5, r0
    16a8:	1a310077 	bne	c4188c <__bss_end__+0xc3798c>
    16ac:	00003c9f 	muleq	r0, pc, ip	; <UNPREDICTABLE>
    16b0:	00003f00 	andeq	r3, r0, r0, lsl #30
    16b4:	51000100 	mrspl	r0, (UNDEF: 16)
    16b8:	0000003f 	andeq	r0, r0, pc, lsr r0
    16bc:	00000154 	andeq	r0, r0, r4, asr r1
    16c0:	00770005 	rsbseq	r0, r7, r5
    16c4:	009f1a31 	addseq	r1, pc, r1, lsr sl	; <UNPREDICTABLE>
    16c8:	00000000 	andeq	r0, r0, r0
    16cc:	40000000 	andmi	r0, r0, r0
    16d0:	54000000 	strpl	r0, [r0], #-0
    16d4:	01000000 	mrseq	r0, (UNDEF: 0)
    16d8:	00545800 	subseq	r5, r4, r0, lsl #16
    16dc:	01340000 	teqeq	r4, r0
    16e0:	00050000 	andeq	r0, r5, r0
    16e4:	24310075 	ldrtcs	r0, [r1], #-117	; 0x75
    16e8:	0000009f 	muleq	r0, pc, r0	; <UNPREDICTABLE>
    16ec:	00000000 	andeq	r0, r0, r0
    16f0:	00004400 	andeq	r4, r0, r0, lsl #8
    16f4:	00004800 	andeq	r4, r0, r0, lsl #16
    16f8:	53000100 	movwpl	r0, #256	; 0x100
	...
    1704:	00000054 	andeq	r0, r0, r4, asr r0
    1708:	00000074 	andeq	r0, r0, r4, ror r0
    170c:	74580001 	ldrbvc	r0, [r8], #-1
    1710:	34000000 	strcc	r0, [r0], #-0
    1714:	08000001 	stmdaeq	r0, {r0}
    1718:	31007500 	tstcc	r0, r0, lsl #10
    171c:	22007524 	andcs	r7, r0, #36, 10	; 0x9000000
    1720:	0000009f 	muleq	r0, pc, r0	; <UNPREDICTABLE>
    1724:	00000000 	andeq	r0, r0, r0
    1728:	00006000 	andeq	r6, r0, r0
    172c:	00007400 	andeq	r7, r0, r0, lsl #8
    1730:	58000100 	stmdapl	r0, {r8}
    1734:	00000074 	andeq	r0, r0, r4, ror r0
    1738:	00000134 	andeq	r0, r0, r4, lsr r1
    173c:	00750008 	rsbseq	r0, r5, r8
    1740:	00752431 	rsbseq	r2, r5, r1, lsr r4
    1744:	00009f22 	andeq	r9, r0, r2, lsr #30
    1748:	00000000 	andeq	r0, r0, r0
    174c:	00640000 	rsbeq	r0, r4, r0
    1750:	00680000 	rsbeq	r0, r8, r0
    1754:	00010000 	andeq	r0, r1, r0
    1758:	00000053 	andeq	r0, r0, r3, asr r0
    175c:	00000000 	andeq	r0, r0, r0
    1760:	00007400 	andeq	r7, r0, r0, lsl #8
    1764:	00009400 	andeq	r9, r0, r0, lsl #8
    1768:	58000100 	stmdapl	r0, {r8}
    176c:	00000094 	muleq	r0, r4, r0
    1770:	00000134 	andeq	r0, r0, r4, lsr r1
    1774:	00750005 	rsbseq	r0, r5, r5
    1778:	009f2432 	addseq	r2, pc, r2, lsr r4	; <UNPREDICTABLE>
    177c:	00000000 	andeq	r0, r0, r0
    1780:	80000000 	andhi	r0, r0, r0
    1784:	94000000 	strls	r0, [r0], #-0
    1788:	01000000 	mrseq	r0, (UNDEF: 0)
    178c:	00945800 	addseq	r5, r4, r0, lsl #16
    1790:	01340000 	teqeq	r4, r0
    1794:	00050000 	andeq	r0, r5, r0
    1798:	24320075 	ldrtcs	r0, [r2], #-117	; 0x75
    179c:	0000009f 	muleq	r0, pc, r0	; <UNPREDICTABLE>
    17a0:	00000000 	andeq	r0, r0, r0
    17a4:	00008400 	andeq	r8, r0, r0, lsl #8
    17a8:	00008800 	andeq	r8, r0, r0, lsl #16
    17ac:	53000100 	movwpl	r0, #256	; 0x100
	...
    17b8:	00000094 	muleq	r0, r4, r0
    17bc:	000000b4 	strheq	r0, [r0], -r4
    17c0:	b4580001 	ldrblt	r0, [r8], #-1
    17c4:	34000000 	strcc	r0, [r0], #-0
    17c8:	08000001 	stmdaeq	r0, {r0}
    17cc:	32007500 	andcc	r7, r0, #0, 10
    17d0:	22007524 	andcs	r7, r0, #36, 10	; 0x9000000
    17d4:	0000009f 	muleq	r0, pc, r0	; <UNPREDICTABLE>
    17d8:	00000000 	andeq	r0, r0, r0
    17dc:	0000a000 	andeq	sl, r0, r0
    17e0:	0000b400 	andeq	fp, r0, r0, lsl #8
    17e4:	58000100 	stmdapl	r0, {r8}
    17e8:	000000b4 	strheq	r0, [r0], -r4
    17ec:	00000134 	andeq	r0, r0, r4, lsr r1
    17f0:	00750008 	rsbseq	r0, r5, r8
    17f4:	00752432 	rsbseq	r2, r5, r2, lsr r4
    17f8:	00009f22 	andeq	r9, r0, r2, lsr #30
    17fc:	00000000 	andeq	r0, r0, r0
    1800:	00a40000 	adceq	r0, r4, r0
    1804:	00a80000 	adceq	r0, r8, r0
    1808:	00010000 	andeq	r0, r1, r0
    180c:	00000053 	andeq	r0, r0, r3, asr r0
    1810:	00000000 	andeq	r0, r0, r0
    1814:	0000b400 	andeq	fp, r0, r0, lsl #8
    1818:	0000d400 	andeq	sp, r0, r0, lsl #8
    181c:	58000100 	stmdapl	r0, {r8}
    1820:	000000d4 	ldrdeq	r0, [r0], -r4
    1824:	00000134 	andeq	r0, r0, r4, lsr r1
    1828:	0075000a 	rsbseq	r0, r5, sl
    182c:	00752432 	rsbseq	r2, r5, r2, lsr r4
    1830:	9f222431 	svcls	0x00222431
	...
    183c:	000000c0 	andeq	r0, r0, r0, asr #1
    1840:	000000d4 	ldrdeq	r0, [r0], -r4
    1844:	d4580001 	ldrble	r0, [r8], #-1
    1848:	34000000 	strcc	r0, [r0], #-0
    184c:	0a000001 	beq	1858 <_start-0x67a8>
    1850:	32007500 	andcc	r7, r0, #0, 10
    1854:	31007524 	tstcc	r0, r4, lsr #10
    1858:	009f2224 	addseq	r2, pc, r4, lsr #4
    185c:	00000000 	andeq	r0, r0, r0
    1860:	c4000000 	strgt	r0, [r0], #-0
    1864:	c8000000 	stmdagt	r0, {}	; <UNPREDICTABLE>
    1868:	01000000 	mrseq	r0, (UNDEF: 0)
    186c:	00005300 	andeq	r5, r0, r0, lsl #6
    1870:	00000000 	andeq	r0, r0, r0
    1874:	00d40000 	sbcseq	r0, r4, r0
    1878:	00f40000 	rscseq	r0, r4, r0
    187c:	00010000 	andeq	r0, r1, r0
    1880:	0000f458 	andeq	pc, r0, r8, asr r4	; <UNPREDICTABLE>
    1884:	00013400 	andeq	r3, r1, r0, lsl #8
    1888:	75000d00 	strvc	r0, [r0, #-3328]	; 0xd00
    188c:	75243200 	strvc	r3, [r4, #-512]!	; 0x200
    1890:	22243100 	eorcs	r3, r4, #0, 2
    1894:	9f220075 	svcls	0x00220075
	...
    18a0:	000000e0 	andeq	r0, r0, r0, ror #1
    18a4:	000000f4 	strdeq	r0, [r0], -r4
    18a8:	f4580001 			; <UNDEFINED> instruction: 0xf4580001
    18ac:	34000000 	strcc	r0, [r0], #-0
    18b0:	0d000001 	stceq	0, cr0, [r0, #-4]
    18b4:	32007500 	andcc	r7, r0, #0, 10
    18b8:	31007524 	tstcc	r0, r4, lsr #10
    18bc:	00752224 	rsbseq	r2, r5, r4, lsr #4
    18c0:	00009f22 	andeq	r9, r0, r2, lsr #30
    18c4:	00000000 	andeq	r0, r0, r0
    18c8:	00e40000 	rsceq	r0, r4, r0
    18cc:	00e80000 	rsceq	r0, r8, r0
    18d0:	00010000 	andeq	r0, r1, r0
    18d4:	00000053 	andeq	r0, r0, r3, asr r0
    18d8:	00000000 	andeq	r0, r0, r0
    18dc:	0000f400 	andeq	pc, r0, r0, lsl #8
    18e0:	00011400 	andeq	r1, r1, r0, lsl #8
    18e4:	58000100 	stmdapl	r0, {r8}
    18e8:	00000114 	andeq	r0, r0, r4, lsl r1
    18ec:	00000134 	andeq	r0, r0, r4, lsr r1
    18f0:	00750005 	rsbseq	r0, r5, r5
    18f4:	009f2433 	addseq	r2, pc, r3, lsr r4	; <UNPREDICTABLE>
	...
    1900:	14000001 	strne	r0, [r0], #-1
    1904:	01000001 	tsteq	r0, r1
    1908:	01145800 	tsteq	r4, r0, lsl #16
    190c:	01340000 	teqeq	r4, r0
    1910:	00050000 	andeq	r0, r5, r0
    1914:	24330075 	ldrtcs	r0, [r3], #-117	; 0x75
    1918:	0000009f 	muleq	r0, pc, r0	; <UNPREDICTABLE>
    191c:	00000000 	andeq	r0, r0, r0
    1920:	00010400 	andeq	r0, r1, r0, lsl #8
    1924:	00010800 	andeq	r0, r1, r0, lsl #16
    1928:	53000100 	movwpl	r0, #256	; 0x100
	...
    1934:	00000114 	andeq	r0, r0, r4, lsl r1
    1938:	0000011c 	andeq	r0, r0, ip, lsl r1
    193c:	00770006 	rsbseq	r0, r7, r6
    1940:	9f1a8008 	svcls	0x001a8008
    1944:	0000011c 	andeq	r0, r0, ip, lsl r1
    1948:	0000011f 	andeq	r0, r0, pc, lsl r1
    194c:	1f510001 	svcne	0x00510001
    1950:	54000001 	strpl	r0, [r0], #-1
    1954:	06000001 	streq	r0, [r0], -r1
    1958:	08007700 	stmdaeq	r0, {r8, r9, sl, ip, sp, lr}
    195c:	009f1a80 	addseq	r1, pc, r0, lsl #21
    1960:	00000000 	andeq	r0, r0, r0
    1964:	24000000 	strcs	r0, [r0], #-0
    1968:	28000001 	stmdacs	r0, {r0}
    196c:	01000001 	tsteq	r0, r1
    1970:	00005300 	andeq	r5, r0, r0, lsl #6
    1974:	00000000 	andeq	r0, r0, r0
    1978:	01440000 	mrseq	r0, (UNDEF: 68)
    197c:	01480000 	mrseq	r0, (UNDEF: 72)
    1980:	00010000 	andeq	r0, r1, r0
    1984:	00000053 	andeq	r0, r0, r3, asr r0
    1988:	00000000 	andeq	r0, r0, r0
    198c:	00015400 	andeq	r5, r1, r0, lsl #8
    1990:	00016b00 	andeq	r6, r1, r0, lsl #22
    1994:	50000100 	andpl	r0, r0, r0, lsl #2
    1998:	0000016b 	andeq	r0, r0, fp, ror #2
    199c:	000001d0 	ldrdeq	r0, [r0], -r0	; <UNPREDICTABLE>
    19a0:	d0590001 	subsle	r0, r9, r1
    19a4:	0c000001 	stceq	0, cr0, [r0], {1}
    19a8:	04000003 	streq	r0, [r0], #-3
    19ac:	5001f300 	andpl	pc, r1, r0, lsl #6
    19b0:	00030c9f 	muleq	r3, pc, ip	; <UNPREDICTABLE>
    19b4:	00031400 	andeq	r1, r3, r0, lsl #8
    19b8:	59000100 	stmdbpl	r0, {r8}
    19bc:	00000314 	andeq	r0, r0, r4, lsl r3
    19c0:	0000031c 	andeq	r0, r0, ip, lsl r3
    19c4:	01f30004 	mvnseq	r0, r4
    19c8:	00009f50 	andeq	r9, r0, r0, asr pc
    19cc:	00000000 	andeq	r0, r0, r0
    19d0:	01540000 	cmpeq	r4, r0
    19d4:	016b0000 	cmneq	fp, r0
    19d8:	00010000 	andeq	r0, r1, r0
    19dc:	00016b51 	andeq	r6, r1, r1, asr fp
    19e0:	00031c00 	andeq	r1, r3, r0, lsl #24
    19e4:	56000100 	strpl	r0, [r0], -r0, lsl #2
	...
    19f0:	000001a8 	andeq	r0, r0, r8, lsr #3
    19f4:	00000298 	muleq	r0, r8, r2
    19f8:	00580001 	subseq	r0, r8, r1
    19fc:	00000000 	andeq	r0, r0, r0
    1a00:	ac000000 	stcge	0, cr0, [r0], {-0}
    1a04:	d0000001 	andle	r0, r0, r1
    1a08:	01000002 	tsteq	r0, r2
    1a0c:	00005400 	andeq	r5, r0, r0, lsl #8
    1a10:	00000000 	andeq	r0, r0, r0
    1a14:	01ac0000 			; <UNDEFINED> instruction: 0x01ac0000
    1a18:	02d00000 	sbcseq	r0, r0, #0
    1a1c:	00050000 	andeq	r0, r5, r0
    1a20:	25310074 	ldrcs	r0, [r1, #-116]!	; 0x74
    1a24:	0000009f 	muleq	r0, pc, r0	; <UNPREDICTABLE>
    1a28:	00000000 	andeq	r0, r0, r0
    1a2c:	0001ac00 	andeq	sl, r1, r0, lsl #24
    1a30:	0001d000 	andeq	sp, r1, r0
    1a34:	30000200 	andcc	r0, r0, r0, lsl #4
    1a38:	0001d09f 	muleq	r1, pc, r0	; <UNPREDICTABLE>
    1a3c:	00030c00 	andeq	r0, r3, r0, lsl #24
    1a40:	59000100 	stmdbpl	r0, {r8}
    1a44:	00000314 	andeq	r0, r0, r4, lsl r3
    1a48:	0000031c 	andeq	r0, r0, ip, lsl r3
    1a4c:	00590001 	subseq	r0, r9, r1
    1a50:	00000000 	andeq	r0, r0, r0
    1a54:	68000000 	stmdavs	r0, {}	; <UNPREDICTABLE>
    1a58:	6b000001 	blvs	1a64 <_start-0x659c>
    1a5c:	01000001 	tsteq	r0, r1
    1a60:	016b5100 	cmneq	fp, r0, lsl #2
    1a64:	031c0000 	tsteq	ip, #0
    1a68:	00010000 	andeq	r0, r1, r0
    1a6c:	00000056 	andeq	r0, r0, r6, asr r0
    1a70:	00000000 	andeq	r0, r0, r0
    1a74:	00017000 	andeq	r7, r1, r0
    1a78:	0001ac00 	andeq	sl, r1, r0, lsl #24
    1a7c:	54000100 	strpl	r0, [r0], #-256	; 0x100
    1a80:	0000030c 	andeq	r0, r0, ip, lsl #6
    1a84:	00000314 	andeq	r0, r0, r4, lsl r3
    1a88:	00540001 	subseq	r0, r4, r1
    1a8c:	00000000 	andeq	r0, r0, r0
    1a90:	a8000000 	stmdage	r0, {}	; <UNPREDICTABLE>
    1a94:	c4000001 	strgt	r0, [r0], #-1
    1a98:	01000001 	tsteq	r0, r1
    1a9c:	00005800 	andeq	r5, r0, r0, lsl #16
    1aa0:	00000000 	andeq	r0, r0, r0
    1aa4:	01b00000 	movseq	r0, r0
    1aa8:	01cb0000 	biceq	r0, fp, r0
    1aac:	00010000 	andeq	r0, r1, r0
    1ab0:	0001cb52 	andeq	ip, r1, r2, asr fp
    1ab4:	0002d000 	andeq	sp, r2, r0
    1ab8:	74000800 	strvc	r0, [r0], #-2048	; 0x800
    1abc:	74253100 	strtvc	r3, [r5], #-256	; 0x100
    1ac0:	009f2200 	addseq	r2, pc, r0, lsl #4
    1ac4:	00000000 	andeq	r0, r0, r0
    1ac8:	b0000000 	andlt	r0, r0, r0
    1acc:	c4000001 	strgt	r0, [r0], #-1
    1ad0:	01000001 	tsteq	r0, r1
    1ad4:	00005800 	andeq	r5, r0, r0, lsl #16
    1ad8:	00000000 	andeq	r0, r0, r0
    1adc:	01b40000 			; <UNDEFINED> instruction: 0x01b40000
    1ae0:	01b80000 			; <UNDEFINED> instruction: 0x01b80000
    1ae4:	00010000 	andeq	r0, r1, r0
    1ae8:	00000053 	andeq	r0, r0, r3, asr r0
    1aec:	00000000 	andeq	r0, r0, r0
    1af0:	0001d000 	andeq	sp, r1, r0
    1af4:	0002d000 	andeq	sp, r2, r0
    1af8:	54000100 	strpl	r0, [r0], #-256	; 0x100
	...
    1b04:	000001d0 	ldrdeq	r0, [r0], -r0	; <UNPREDICTABLE>
    1b08:	000001e4 	andeq	r0, r0, r4, ror #3
    1b0c:	00580001 	subseq	r0, r8, r1
    1b10:	00000000 	andeq	r0, r0, r0
    1b14:	d4000000 	strle	r0, [r0], #-0
    1b18:	d8000001 	stmdale	r0, {r0}
    1b1c:	01000001 	tsteq	r0, r1
    1b20:	00005300 	andeq	r5, r0, r0, lsl #6
    1b24:	00000000 	andeq	r0, r0, r0
    1b28:	01f40000 	mvnseq	r0, r0
    1b2c:	02d00000 	sbcseq	r0, r0, #0
    1b30:	00010000 	andeq	r0, r1, r0
    1b34:	00000054 	andeq	r0, r0, r4, asr r0
    1b38:	00000000 	andeq	r0, r0, r0
    1b3c:	0001f400 	andeq	pc, r1, r0, lsl #8
    1b40:	00020800 	andeq	r0, r2, r0, lsl #16
    1b44:	58000100 	stmdapl	r0, {r8}
	...
    1b50:	000001f8 	strdeq	r0, [r0], -r8
    1b54:	000001fc 	strdeq	r0, [r0], -ip
    1b58:	00530001 	subseq	r0, r3, r1
    1b5c:	00000000 	andeq	r0, r0, r0
    1b60:	18000000 	stmdane	r0, {}	; <UNPREDICTABLE>
    1b64:	d0000002 	andle	r0, r0, r2
    1b68:	01000002 	tsteq	r0, r2
    1b6c:	00005400 	andeq	r5, r0, r0, lsl #8
    1b70:	00000000 	andeq	r0, r0, r0
    1b74:	02180000 	andseq	r0, r8, #0
    1b78:	022c0000 	eoreq	r0, ip, #0
    1b7c:	00010000 	andeq	r0, r1, r0
    1b80:	00000058 	andeq	r0, r0, r8, asr r0
    1b84:	00000000 	andeq	r0, r0, r0
    1b88:	00021c00 	andeq	r1, r2, r0, lsl #24
    1b8c:	00022000 	andeq	r2, r2, r0
    1b90:	53000100 	movwpl	r0, #256	; 0x100
	...
    1b9c:	0000023c 	andeq	r0, r0, ip, lsr r2
    1ba0:	000002d0 	ldrdeq	r0, [r0], -r0	; <UNPREDICTABLE>
    1ba4:	00540001 	subseq	r0, r4, r1
    1ba8:	00000000 	andeq	r0, r0, r0
    1bac:	3c000000 	stccc	0, cr0, [r0], {-0}
    1bb0:	50000002 	andpl	r0, r0, r2
    1bb4:	01000002 	tsteq	r0, r2
    1bb8:	00005800 	andeq	r5, r0, r0, lsl #16
    1bbc:	00000000 	andeq	r0, r0, r0
    1bc0:	02400000 	subeq	r0, r0, #0
    1bc4:	02440000 	subeq	r0, r4, #0
    1bc8:	00010000 	andeq	r0, r1, r0
    1bcc:	00000053 	andeq	r0, r0, r3, asr r0
    1bd0:	00000000 	andeq	r0, r0, r0
    1bd4:	00026000 	andeq	r6, r2, r0
    1bd8:	0002d000 	andeq	sp, r2, r0
    1bdc:	54000100 	strpl	r0, [r0], #-256	; 0x100
	...
    1be8:	00000260 	andeq	r0, r0, r0, ror #4
    1bec:	00000274 	andeq	r0, r0, r4, ror r2
    1bf0:	00580001 	subseq	r0, r8, r1
    1bf4:	00000000 	andeq	r0, r0, r0
    1bf8:	64000000 	strvs	r0, [r0], #-0
    1bfc:	68000002 	stmdavs	r0, {r1}
    1c00:	01000002 	tsteq	r0, r2
    1c04:	00005300 	andeq	r5, r0, r0, lsl #6
    1c08:	00000000 	andeq	r0, r0, r0
    1c0c:	02840000 	addeq	r0, r4, #0
    1c10:	02d00000 	sbcseq	r0, r0, #0
    1c14:	00010000 	andeq	r0, r1, r0
    1c18:	00000054 	andeq	r0, r0, r4, asr r0
    1c1c:	00000000 	andeq	r0, r0, r0
    1c20:	00028400 	andeq	r8, r2, r0, lsl #8
    1c24:	00029800 	andeq	r9, r2, r0, lsl #16
    1c28:	58000100 	stmdapl	r0, {r8}
	...
    1c34:	00000288 	andeq	r0, r0, r8, lsl #5
    1c38:	0000028c 	andeq	r0, r0, ip, lsl #5
    1c3c:	00530001 	subseq	r0, r3, r1
    1c40:	00000000 	andeq	r0, r0, r0
    1c44:	a8000000 	stmdage	r0, {}	; <UNPREDICTABLE>
    1c48:	d0000002 	andle	r0, r0, r2
    1c4c:	01000002 	tsteq	r0, r2
    1c50:	00005400 	andeq	r5, r0, r0, lsl #8
    1c54:	00000000 	andeq	r0, r0, r0
    1c58:	02ac0000 	adceq	r0, ip, #0
    1c5c:	02b00000 	adcseq	r0, r0, #0
    1c60:	00010000 	andeq	r0, r1, r0
    1c64:	00000053 	andeq	r0, r0, r3, asr r0
    1c68:	00000000 	andeq	r0, r0, r0
    1c6c:	0002c800 	andeq	ip, r2, r0, lsl #16
    1c70:	00030c00 	andeq	r0, r3, r0, lsl #24
    1c74:	30000200 	andcc	r0, r0, r0, lsl #4
    1c78:	0003149f 	muleq	r3, pc, r4	; <UNPREDICTABLE>
    1c7c:	00031c00 	andeq	r1, r3, r0, lsl #24
    1c80:	30000200 	andcc	r0, r0, r0, lsl #4
    1c84:	0000009f 	muleq	r0, pc, r0	; <UNPREDICTABLE>
    1c88:	00000000 	andeq	r0, r0, r0
    1c8c:	0002c800 	andeq	ip, r2, r0, lsl #16
    1c90:	00030c00 	andeq	r0, r3, r0, lsl #24
    1c94:	55000100 	strpl	r0, [r0, #-256]	; 0x100
    1c98:	00000314 	andeq	r0, r0, r4, lsl r3
    1c9c:	0000031c 	andeq	r0, r0, ip, lsl r3
    1ca0:	00550001 	subseq	r0, r5, r1
    1ca4:	00000000 	andeq	r0, r0, r0
    1ca8:	d0000000 	andle	r0, r0, r0
    1cac:	0c000002 	stceq	0, cr0, [r0], {2}
    1cb0:	01000003 	tsteq	r0, r3
    1cb4:	03145400 	tsteq	r4, #0, 8
    1cb8:	031c0000 	tsteq	ip, #0
    1cbc:	00010000 	andeq	r0, r1, r0
    1cc0:	00000054 	andeq	r0, r0, r4, asr r0
    1cc4:	00000000 	andeq	r0, r0, r0
    1cc8:	00031c00 	andeq	r1, r3, r0, lsl #24
    1ccc:	00033f00 	andeq	r3, r3, r0, lsl #30
    1cd0:	50000100 	andpl	r0, r0, r0, lsl #2
    1cd4:	0000033f 	andeq	r0, r0, pc, lsr r3
    1cd8:	00000360 	andeq	r0, r0, r0, ror #6
    1cdc:	60580001 	subsvs	r0, r8, r1
    1ce0:	70000003 	andvc	r0, r0, r3
    1ce4:	01000003 	tsteq	r0, r3
    1ce8:	03705000 	cmneq	r0, #0
    1cec:	03b00000 	movseq	r0, #0
    1cf0:	00010000 	andeq	r0, r1, r0
    1cf4:	0003b058 	andeq	fp, r3, r8, asr r0
    1cf8:	0003c000 	andeq	ip, r3, r0
    1cfc:	f3000400 	vshl.u8	d0, d0, d0
    1d00:	009f5001 	addseq	r5, pc, r1
    1d04:	00000000 	andeq	r0, r0, r0
    1d08:	1c000000 	stcne	0, cr0, [r0], {-0}
    1d0c:	3f000003 	svccc	0x00000003
    1d10:	01000003 	tsteq	r0, r3
    1d14:	033f5100 	teqeq	pc, #0, 2
    1d18:	03600000 	cmneq	r0, #0
    1d1c:	00010000 	andeq	r0, r1, r0
    1d20:	00036056 	andeq	r6, r3, r6, asr r0
    1d24:	00037000 	andeq	r7, r3, r0
    1d28:	51000100 	mrspl	r0, (UNDEF: 16)
    1d2c:	00000370 	andeq	r0, r0, r0, ror r3
    1d30:	000003b0 			; <UNDEFINED> instruction: 0x000003b0
    1d34:	b0560001 	subslt	r0, r6, r1
    1d38:	c0000003 	andgt	r0, r0, r3
    1d3c:	04000003 	streq	r0, [r0], #-3
    1d40:	5101f300 	mrspl	pc, SP_irq	; <UNPREDICTABLE>
    1d44:	0000009f 	muleq	r0, pc, r0	; <UNPREDICTABLE>
    1d48:	00000000 	andeq	r0, r0, r0
    1d4c:	00031c00 	andeq	r1, r3, r0, lsl #24
    1d50:	00033f00 	andeq	r3, r3, r0, lsl #30
    1d54:	52000100 	andpl	r0, r0, #0, 2
    1d58:	0000033f 	andeq	r0, r0, pc, lsr r3
    1d5c:	00000360 	andeq	r0, r0, r0, ror #6
    1d60:	01f30004 	mvnseq	r0, r4
    1d64:	03609f52 	cmneq	r0, #328	; 0x148
    1d68:	03700000 	cmneq	r0, #0
    1d6c:	00010000 	andeq	r0, r1, r0
    1d70:	00037052 	andeq	r7, r3, r2, asr r0
    1d74:	0003b000 	andeq	fp, r3, r0
    1d78:	77000300 	strvc	r0, [r0, -r0, lsl #6]
    1d7c:	03b09f01 	movseq	r9, #1, 30
    1d80:	03c00000 	biceq	r0, r0, #0
    1d84:	00040000 	andeq	r0, r4, r0
    1d88:	9f5201f3 	svcls	0x005201f3
	...
    1d94:	0000031c 	andeq	r0, r0, ip, lsl r3
    1d98:	0000033f 	andeq	r0, r0, pc, lsr r3
    1d9c:	3f530001 	svccc	0x00530001
    1da0:	60000003 	andvs	r0, r0, r3
    1da4:	04000003 	streq	r0, [r0], #-3
    1da8:	5301f300 	movwpl	pc, #4864	; 0x1300	; <UNPREDICTABLE>
    1dac:	0003609f 	muleq	r3, pc, r0	; <UNPREDICTABLE>
    1db0:	00037000 	andeq	r7, r3, r0
    1db4:	53000100 	movwpl	r0, #256	; 0x100
    1db8:	00000370 	andeq	r0, r0, r0, ror r3
    1dbc:	000003c0 	andeq	r0, r0, r0, asr #7
    1dc0:	01f30004 	mvnseq	r0, r4
    1dc4:	00009f53 	andeq	r9, r0, r3, asr pc
    1dc8:	00000000 	andeq	r0, r0, r0
    1dcc:	03680000 	cmneq	r8, #0
    1dd0:	03700000 	cmneq	r0, #0
    1dd4:	00020000 	andeq	r0, r2, r0
    1dd8:	03709f30 	cmneq	r0, #48, 30	; 0xc0
    1ddc:	03b00000 	movseq	r0, #0
    1de0:	00010000 	andeq	r0, r1, r0
    1de4:	0003b054 	andeq	fp, r3, r4, asr r0
    1de8:	0003c000 	andeq	ip, r3, r0
    1dec:	50000100 	andpl	r0, r0, r0, lsl #2
	...
    1df8:	00000380 	andeq	r0, r0, r0, lsl #7
    1dfc:	00000390 	muleq	r0, r0, r3
    1e00:	00500001 	subseq	r0, r0, r1
    1e04:	00000000 	andeq	r0, r0, r0
    1e08:	c0000000 	andgt	r0, r0, r0
    1e0c:	df000003 	svcle	0x00000003
    1e10:	01000003 	tsteq	r0, r3
    1e14:	03df5000 	bicseq	r5, pc, #0
    1e18:	04000000 	streq	r0, [r0], #-0
    1e1c:	00010000 	andeq	r0, r1, r0
    1e20:	00040057 	andeq	r0, r4, r7, asr r0
    1e24:	00041000 	andeq	r1, r4, r0
    1e28:	50000100 	andpl	r0, r0, r0, lsl #2
    1e2c:	00000410 	andeq	r0, r0, r0, lsl r4
    1e30:	00000440 	andeq	r0, r0, r0, asr #8
    1e34:	40570001 	subsmi	r0, r7, r1
    1e38:	50000004 	andpl	r0, r0, r4
    1e3c:	04000004 	streq	r0, [r0], #-4
    1e40:	5001f300 	andpl	pc, r1, r0, lsl #6
    1e44:	0000009f 	muleq	r0, pc, r0	; <UNPREDICTABLE>
    1e48:	00000000 	andeq	r0, r0, r0
    1e4c:	0003c000 	andeq	ip, r3, r0
    1e50:	0003df00 	andeq	sp, r3, r0, lsl #30
    1e54:	51000100 	mrspl	r0, (UNDEF: 16)
    1e58:	000003df 	ldrdeq	r0, [r0], -pc	; <UNPREDICTABLE>
    1e5c:	00000400 	andeq	r0, r0, r0, lsl #8
    1e60:	00550001 	subseq	r0, r5, r1
    1e64:	10000004 	andne	r0, r0, r4
    1e68:	01000004 	tsteq	r0, r4
    1e6c:	04105100 	ldreq	r5, [r0], #-256	; 0x100
    1e70:	04400000 	strbeq	r0, [r0], #-0
    1e74:	00010000 	andeq	r0, r1, r0
    1e78:	00044055 	andeq	r4, r4, r5, asr r0
    1e7c:	00045000 	andeq	r5, r4, r0
    1e80:	f3000400 	vshl.u8	d0, d0, d0
    1e84:	009f5101 	addseq	r5, pc, r1, lsl #2
    1e88:	00000000 	andeq	r0, r0, r0
    1e8c:	c0000000 	andgt	r0, r0, r0
    1e90:	df000003 	svcle	0x00000003
    1e94:	01000003 	tsteq	r0, r3
    1e98:	03df5200 	bicseq	r5, pc, #0, 4
    1e9c:	04000000 	streq	r0, [r0], #-0
    1ea0:	00040000 	andeq	r0, r4, r0
    1ea4:	9f5201f3 	svcls	0x005201f3
    1ea8:	00000400 	andeq	r0, r0, r0, lsl #8
    1eac:	00000410 	andeq	r0, r0, r0, lsl r4
    1eb0:	10520001 	subsne	r0, r2, r1
    1eb4:	40000004 	andmi	r0, r0, r4
    1eb8:	03000004 	movweq	r0, #4
    1ebc:	9f017600 	svcls	0x00017600
    1ec0:	00000440 	andeq	r0, r0, r0, asr #8
    1ec4:	00000450 	andeq	r0, r0, r0, asr r4
    1ec8:	01f30004 	mvnseq	r0, r4
    1ecc:	00009f52 	andeq	r9, r0, r2, asr pc
    1ed0:	00000000 	andeq	r0, r0, r0
    1ed4:	03c00000 	biceq	r0, r0, #0
    1ed8:	03df0000 	bicseq	r0, pc, #0
    1edc:	00010000 	andeq	r0, r1, r0
    1ee0:	0003df53 	andeq	sp, r3, r3, asr pc
    1ee4:	00040000 	andeq	r0, r4, r0
    1ee8:	58000100 	stmdapl	r0, {r8}
    1eec:	00000400 	andeq	r0, r0, r0, lsl #8
    1ef0:	00000410 	andeq	r0, r0, r0, lsl r4
    1ef4:	10530001 	subsne	r0, r3, r1
    1ef8:	40000004 	andmi	r0, r0, r4
    1efc:	01000004 	tsteq	r0, r4
    1f00:	04405800 	strbeq	r5, [r0], #-2048	; 0x800
    1f04:	04500000 	ldrbeq	r0, [r0], #-0
    1f08:	00040000 	andeq	r0, r4, r0
    1f0c:	9f5301f3 	svcls	0x005301f3
	...
    1f18:	00000408 	andeq	r0, r0, r8, lsl #8
    1f1c:	00000410 	andeq	r0, r0, r0, lsl r4
    1f20:	9f300002 	svcls	0x00300002
    1f24:	00000410 	andeq	r0, r0, r0, lsl r4
    1f28:	00000440 	andeq	r0, r0, r0, asr #8
    1f2c:	40540001 	subsmi	r0, r4, r1
    1f30:	50000004 	andpl	r0, r0, r4
    1f34:	01000004 	tsteq	r0, r4
    1f38:	00005000 	andeq	r5, r0, r0
    1f3c:	00000000 	andeq	r0, r0, r0
    1f40:	04500000 	ldrbeq	r0, [r0], #-0
    1f44:	04730000 	ldrbteq	r0, [r3], #-0
    1f48:	00010000 	andeq	r0, r1, r0
    1f4c:	00047351 	andeq	r7, r4, r1, asr r3
    1f50:	00052400 	andeq	r2, r5, r0, lsl #8
    1f54:	f3000400 	vshl.u8	d0, d0, d0
    1f58:	009f5101 	addseq	r5, pc, r1, lsl #2
    1f5c:	00000000 	andeq	r0, r0, r0
    1f60:	50000000 	andpl	r0, r0, r0
    1f64:	73000004 	movwvc	r0, #4
    1f68:	01000004 	tsteq	r0, r4
    1f6c:	04735200 	ldrbteq	r5, [r3], #-512	; 0x200
    1f70:	05240000 	streq	r0, [r4, #-0]!
    1f74:	00040000 	andeq	r0, r4, r0
    1f78:	9f5201f3 	svcls	0x005201f3
	...
    1f84:	00000450 	andeq	r0, r0, r0, asr r4
    1f88:	00000473 	andeq	r0, r0, r3, ror r4
    1f8c:	73530001 	cmpvc	r3, #1
    1f90:	10000004 	andne	r0, r0, r4
    1f94:	01000005 	tsteq	r0, r5
    1f98:	05105500 	ldreq	r5, [r0, #-1280]	; 0x500
    1f9c:	05240000 	streq	r0, [r4, #-0]!
    1fa0:	00020000 	andeq	r0, r2, r0
    1fa4:	00000470 	andeq	r0, r0, r0, ror r4
    1fa8:	00000000 	andeq	r0, r0, r0
    1fac:	04940000 	ldreq	r0, [r4], #0
    1fb0:	04d30000 	ldrbeq	r0, [r3], #0
    1fb4:	00010000 	andeq	r0, r1, r0
    1fb8:	0004d352 	andeq	sp, r4, r2, asr r3
    1fbc:	0004f400 	andeq	pc, r4, r0, lsl #8
    1fc0:	75000600 	strvc	r0, [r0, #-1536]	; 0x600
    1fc4:	1e007700 	cdpne	7, 0, cr7, cr0, cr0, {0}
    1fc8:	0004f49f 	muleq	r4, pc, r4	; <UNPREDICTABLE>
    1fcc:	00052400 	andeq	r2, r5, r0, lsl #8
    1fd0:	52000100 	andpl	r0, r0, #0, 2
	...
    1fdc:	00000524 	andeq	r0, r0, r4, lsr #10
    1fe0:	0000052f 	andeq	r0, r0, pc, lsr #10
    1fe4:	2f500001 	svccs	0x00500001
    1fe8:	60000005 	andvs	r0, r0, r5
    1fec:	04000005 	streq	r0, [r0], #-5
    1ff0:	5001f300 	andpl	pc, r1, r0, lsl #6
    1ff4:	0000009f 	muleq	r0, pc, r0	; <UNPREDICTABLE>
    1ff8:	00000000 	andeq	r0, r0, r0
    1ffc:	00053000 	andeq	r3, r5, r0
    2000:	00053b00 	andeq	r3, r5, r0, lsl #22
    2004:	50000100 	andpl	r0, r0, r0, lsl #2
	...
    2010:	00000560 	andeq	r0, r0, r0, ror #10
    2014:	00000570 	andeq	r0, r0, r0, ror r5
    2018:	70500001 	subsvc	r0, r0, r1
    201c:	8c000005 	stchi	0, cr0, [r0], {5}
    2020:	01000005 	tsteq	r0, r5
    2024:	00005500 	andeq	r5, r0, r0, lsl #10
    2028:	00000000 	andeq	r0, r0, r0
    202c:	05600000 	strbeq	r0, [r0, #-0]!
    2030:	05700000 	ldrbeq	r0, [r0, #-0]!
    2034:	00010000 	andeq	r0, r1, r0
    2038:	00057051 	andeq	r7, r5, r1, asr r0
    203c:	00058c00 	andeq	r8, r5, r0, lsl #24
    2040:	54000100 	strpl	r0, [r0], #-256	; 0x100
	...
    204c:	0000058c 	andeq	r0, r0, ip, lsl #11
    2050:	000005a8 	andeq	r0, r0, r8, lsr #11
    2054:	a8500001 	ldmdage	r0, {r0}^
    2058:	00000005 	andeq	r0, r0, r5
    205c:	01000006 	tsteq	r0, r6
    2060:	06005500 	streq	r5, [r0], -r0, lsl #10
    2064:	061c0000 	ldreq	r0, [ip], -r0
    2068:	00040000 	andeq	r0, r4, r0
    206c:	9f5001f3 	svcls	0x005001f3
	...
    2078:	000005b8 			; <UNDEFINED> instruction: 0x000005b8
    207c:	000005c7 	andeq	r0, r0, r7, asr #11
    2080:	c7500001 	ldrbgt	r0, [r0, -r1]
    2084:	e8000005 	stmda	r0, {r0, r2}
    2088:	01000005 	tsteq	r0, r5
    208c:	05e85400 	strbeq	r5, [r8, #1024]!	; 0x400
    2090:	05ec0000 	strbeq	r0, [ip, #0]!
    2094:	00010000 	andeq	r0, r1, r0
    2098:	0005ec50 	andeq	lr, r5, r0, asr ip
    209c:	00060000 	andeq	r0, r6, r0
    20a0:	54000100 	strpl	r0, [r0], #-256	; 0x100
    20a4:	00000600 	andeq	r0, r0, r0, lsl #12
    20a8:	0000061c 	andeq	r0, r0, ip, lsl r6
    20ac:	00500001 	subseq	r0, r0, r1
    20b0:	00000000 	andeq	r0, r0, r0
    20b4:	1c000000 	stcne	0, cr0, [r0], {-0}
    20b8:	2f000006 	svccs	0x00000006
    20bc:	01000006 	tsteq	r0, r6
    20c0:	062f5000 	strteq	r5, [pc], -r0
    20c4:	06680000 	strbteq	r0, [r8], -r0
    20c8:	00040000 	andeq	r0, r4, r0
    20cc:	9f5001f3 	svcls	0x005001f3
	...
    20d8:	0000061c 	andeq	r0, r0, ip, lsl r6
    20dc:	0000062f 	andeq	r0, r0, pc, lsr #12
    20e0:	2f510001 	svccs	0x00510001
    20e4:	68000006 	stmdavs	r0, {r1, r2}
    20e8:	04000006 	streq	r0, [r0], #-6
    20ec:	5101f300 	mrspl	pc, SP_irq	; <UNPREDICTABLE>
    20f0:	0000009f 	muleq	r0, pc, r0	; <UNPREDICTABLE>
    20f4:	00000000 	andeq	r0, r0, r0
    20f8:	00061c00 	andeq	r1, r6, r0, lsl #24
    20fc:	00062f00 	andeq	r2, r6, r0, lsl #30
    2100:	52000100 	andpl	r0, r0, #0, 2
    2104:	0000062f 	andeq	r0, r0, pc, lsr #12
    2108:	00000668 	andeq	r0, r0, r8, ror #12
    210c:	01f30004 	mvnseq	r0, r4
    2110:	00009f52 	andeq	r9, r0, r2, asr pc
    2114:	00000000 	andeq	r0, r0, r0
    2118:	061c0000 	ldreq	r0, [ip], -r0
    211c:	062f0000 	strteq	r0, [pc], -r0
    2120:	00010000 	andeq	r0, r1, r0
    2124:	00062f53 	andeq	r2, r6, r3, asr pc
    2128:	00066800 	andeq	r6, r6, r0, lsl #16
    212c:	f3000400 	vshl.u8	d0, d0, d0
    2130:	009f5301 	addseq	r5, pc, r1, lsl #6
    2134:	00000000 	andeq	r0, r0, r0
    2138:	30000000 	andcc	r0, r0, r0
    213c:	3b000006 	blcc	215c <_start-0x5ea4>
    2140:	01000006 	tsteq	r0, r6
    2144:	06545000 	ldrbeq	r5, [r4], -r0
    2148:	06680000 	strbteq	r0, [r8], -r0
    214c:	00010000 	andeq	r0, r1, r0
    2150:	00000050 	andeq	r0, r0, r0, asr r0
    2154:	00000000 	andeq	r0, r0, r0
    2158:	0000fc00 	andeq	pc, r0, r0, lsl #24
    215c:	00010400 	andeq	r0, r1, r0, lsl #8
    2160:	50000100 	andpl	r0, r0, r0, lsl #2
    2164:	00000104 	andeq	r0, r0, r4, lsl #2
    2168:	00000128 	andeq	r0, r0, r8, lsr #2
    216c:	00540001 	subseq	r0, r4, r1
	...
    2178:	04000000 	streq	r0, [r0], #-0
    217c:	01000000 	mrseq	r0, (UNDEF: 0)
    2180:	00045200 	andeq	r5, r4, r0, lsl #4
    2184:	00200000 	eoreq	r0, r0, r0
    2188:	00040000 	andeq	r0, r4, r0
    218c:	9f5201f3 	svcls	0x005201f3
	...
    219c:	0000000c 	andeq	r0, r0, ip
    21a0:	0c500001 	mrrceq	0, 0, r0, r0, cr1	; <UNPREDICTABLE>
    21a4:	14000000 	strne	r0, [r0], #-0
    21a8:	03000000 	movweq	r0, #0
    21ac:	9f017300 	svcls	0x00017300
    21b0:	00000014 	andeq	r0, r0, r4, lsl r0
    21b4:	00000020 	andeq	r0, r0, r0, lsr #32
    21b8:	00530001 	subseq	r0, r3, r1
    21bc:	00000000 	andeq	r0, r0, r0
    21c0:	Address 0x00000000000021c0 is out of bounds.


Disassembly of section .debug_ranges:

00000000 <.debug_ranges>:
   0:	000002b4 			; <UNDEFINED> instruction: 0x000002b4
   4:	000002b8 			; <UNDEFINED> instruction: 0x000002b8
   8:	000002e8 	andeq	r0, r0, r8, ror #5
   c:	000004e0 	andeq	r0, r0, r0, ror #9
	...
  18:	00008814 	andeq	r8, r0, r4, lsl r8
  1c:	00008888 	andeq	r8, r0, r8, lsl #17
	...
