
on.elf:     file format elf32-littlearm


Disassembly of section .text:

00008000 <_start>:
    8000:	e3a0d302 	mov	sp, #134217728	; 0x8000000
    8004:	e3a0b000 	mov	fp, #0
    8008:	eb000207 	bl	882c <_cstart>
    800c:	eb000235 	bl	88e8 <rpi_reboot>

00008010 <notmain>:
    8010:	e92d4008 	push	{r3, lr}
    8014:	eb000569 	bl	95c0 <uart_init>
    8018:	e3a03001 	mov	r3, #1
    801c:	ee0f3f1c 	mcr	15, 0, r3, cr15, cr12, {0}
    8020:	e3a00015 	mov	r0, #21
    8024:	eb0002b4 	bl	8afc <gpio_set_input>
    8028:	e3a00015 	mov	r0, #21
    802c:	eb00000c 	bl	8064 <gpio_set_pullup>
    8030:	e59f0024 	ldr	r0, [pc, #36]	; 805c <notmain+0x4c>
    8034:	e3a01015 	mov	r1, #21
    8038:	eb00006e 	bl	81f8 <printk>
    803c:	e3a00015 	mov	r0, #21
    8040:	eb0002ad 	bl	8afc <gpio_set_input>
    8044:	e3a00014 	mov	r0, #20
    8048:	eb000032 	bl	8118 <gpio_set_pulldown>
    804c:	e59f000c 	ldr	r0, [pc, #12]	; 8060 <notmain+0x50>
    8050:	e3a01014 	mov	r1, #20
    8054:	eb000067 	bl	81f8 <printk>
    8058:	eb0001e1 	bl	87e4 <clean_reboot>
    805c:	00009890 	muleq	r0, r0, r8
    8060:	00009904 	andeq	r9, r0, r4, lsl #18

00008064 <gpio_set_pullup>:
    8064:	e92d4038 	push	{r3, r4, r5, lr}
    8068:	e1a05000 	mov	r5, r0
    806c:	e59f30a0 	ldr	r3, [pc, #160]	; 8114 <gpio_set_pullup+0xb0>
    8070:	e5930000 	ldr	r0, [r3]
    8074:	e3a01002 	mov	r1, #2
    8078:	eb0005ab 	bl	972c <put32>
    807c:	ee1f2f3c 	mrc	15, 0, r2, cr15, cr12, {1}
    8080:	ee1f3f3c 	mrc	15, 0, r3, cr15, cr12, {1}
    8084:	e0623003 	rsb	r3, r2, r3
    8088:	e3530095 	cmp	r3, #149	; 0x95
    808c:	9afffffb 	bls	8080 <gpio_set_pullup+0x1c>
    8090:	e355001f 	cmp	r5, #31
    8094:	959f3078 	ldrls	r3, [pc, #120]	; 8114 <gpio_set_pullup+0xb0>
    8098:	95934004 	ldrls	r4, [r3, #4]
    809c:	859f3070 	ldrhi	r3, [pc, #112]	; 8114 <gpio_set_pullup+0xb0>
    80a0:	85934008 	ldrhi	r4, [r3, #8]
    80a4:	e205501f 	and	r5, r5, #31
    80a8:	e1a00004 	mov	r0, r4
    80ac:	e3a01001 	mov	r1, #1
    80b0:	e1a01511 	lsl	r1, r1, r5
    80b4:	eb00059c 	bl	972c <put32>
    80b8:	ee1f2f3c 	mrc	15, 0, r2, cr15, cr12, {1}
    80bc:	ee1f3f3c 	mrc	15, 0, r3, cr15, cr12, {1}
    80c0:	e0623003 	rsb	r3, r2, r3
    80c4:	e3530095 	cmp	r3, #149	; 0x95
    80c8:	9afffffb 	bls	80bc <gpio_set_pullup+0x58>
    80cc:	e59f3040 	ldr	r3, [pc, #64]	; 8114 <gpio_set_pullup+0xb0>
    80d0:	e5930000 	ldr	r0, [r3]
    80d4:	e3a01000 	mov	r1, #0
    80d8:	eb000593 	bl	972c <put32>
    80dc:	ee1f2f3c 	mrc	15, 0, r2, cr15, cr12, {1}
    80e0:	ee1f3f3c 	mrc	15, 0, r3, cr15, cr12, {1}
    80e4:	e0623003 	rsb	r3, r2, r3
    80e8:	e3530095 	cmp	r3, #149	; 0x95
    80ec:	9afffffb 	bls	80e0 <gpio_set_pullup+0x7c>
    80f0:	e1a00004 	mov	r0, r4
    80f4:	e3a01000 	mov	r1, #0
    80f8:	eb00058b 	bl	972c <put32>
    80fc:	ee1f2f3c 	mrc	15, 0, r2, cr15, cr12, {1}
    8100:	ee1f3f3c 	mrc	15, 0, r3, cr15, cr12, {1}
    8104:	e0623003 	rsb	r3, r2, r3
    8108:	e3530095 	cmp	r3, #149	; 0x95
    810c:	9afffffb 	bls	8100 <gpio_set_pullup+0x9c>
    8110:	e8bd8038 	pop	{r3, r4, r5, pc}
    8114:	000097e8 	andeq	r9, r0, r8, ror #15

00008118 <gpio_set_pulldown>:
    8118:	e92d4038 	push	{r3, r4, r5, lr}
    811c:	e1a05000 	mov	r5, r0
    8120:	e59f30a0 	ldr	r3, [pc, #160]	; 81c8 <gpio_set_pulldown+0xb0>
    8124:	e5930000 	ldr	r0, [r3]
    8128:	e3a01001 	mov	r1, #1
    812c:	eb00057e 	bl	972c <put32>
    8130:	ee1f2f3c 	mrc	15, 0, r2, cr15, cr12, {1}
    8134:	ee1f3f3c 	mrc	15, 0, r3, cr15, cr12, {1}
    8138:	e0623003 	rsb	r3, r2, r3
    813c:	e3530095 	cmp	r3, #149	; 0x95
    8140:	9afffffb 	bls	8134 <gpio_set_pulldown+0x1c>
    8144:	e355001f 	cmp	r5, #31
    8148:	959f3078 	ldrls	r3, [pc, #120]	; 81c8 <gpio_set_pulldown+0xb0>
    814c:	95934004 	ldrls	r4, [r3, #4]
    8150:	859f3070 	ldrhi	r3, [pc, #112]	; 81c8 <gpio_set_pulldown+0xb0>
    8154:	85934008 	ldrhi	r4, [r3, #8]
    8158:	e205501f 	and	r5, r5, #31
    815c:	e1a00004 	mov	r0, r4
    8160:	e3a01001 	mov	r1, #1
    8164:	e1a01511 	lsl	r1, r1, r5
    8168:	eb00056f 	bl	972c <put32>
    816c:	ee1f2f3c 	mrc	15, 0, r2, cr15, cr12, {1}
    8170:	ee1f3f3c 	mrc	15, 0, r3, cr15, cr12, {1}
    8174:	e0623003 	rsb	r3, r2, r3
    8178:	e3530095 	cmp	r3, #149	; 0x95
    817c:	9afffffb 	bls	8170 <gpio_set_pulldown+0x58>
    8180:	e59f3040 	ldr	r3, [pc, #64]	; 81c8 <gpio_set_pulldown+0xb0>
    8184:	e5930000 	ldr	r0, [r3]
    8188:	e3a01000 	mov	r1, #0
    818c:	eb000566 	bl	972c <put32>
    8190:	ee1f2f3c 	mrc	15, 0, r2, cr15, cr12, {1}
    8194:	ee1f3f3c 	mrc	15, 0, r3, cr15, cr12, {1}
    8198:	e0623003 	rsb	r3, r2, r3
    819c:	e3530095 	cmp	r3, #149	; 0x95
    81a0:	9afffffb 	bls	8194 <gpio_set_pulldown+0x7c>
    81a4:	e1a00004 	mov	r0, r4
    81a8:	e3a01000 	mov	r1, #0
    81ac:	eb00055e 	bl	972c <put32>
    81b0:	ee1f2f3c 	mrc	15, 0, r2, cr15, cr12, {1}
    81b4:	ee1f3f3c 	mrc	15, 0, r3, cr15, cr12, {1}
    81b8:	e0623003 	rsb	r3, r2, r3
    81bc:	e3530095 	cmp	r3, #149	; 0x95
    81c0:	9afffffb 	bls	81b4 <gpio_set_pulldown+0x9c>
    81c4:	e8bd8038 	pop	{r3, r4, r5, pc}
    81c8:	000097e8 	andeq	r9, r0, r8, ror #15

000081cc <gpio_pud_off>:
    81cc:	e92d4008 	push	{r3, lr}
    81d0:	eb000023 	bl	8264 <rpi_reset_putc>
    81d4:	e59f0010 	ldr	r0, [pc, #16]	; 81ec <gpio_pud_off+0x20>
    81d8:	e59f1010 	ldr	r1, [pc, #16]	; 81f0 <gpio_pud_off+0x24>
    81dc:	e59f2010 	ldr	r2, [pc, #16]	; 81f4 <gpio_pud_off+0x28>
    81e0:	e3a03047 	mov	r3, #71	; 0x47
    81e4:	eb000003 	bl	81f8 <printk>
    81e8:	eb00017d 	bl	87e4 <clean_reboot>
    81ec:	00009988 	andeq	r9, r0, r8, lsl #19
    81f0:	000099b4 			; <UNDEFINED> instruction: 0x000099b4
    81f4:	00009978 	andeq	r9, r0, r8, ror r9

000081f8 <printk>:
    81f8:	e92d000f 	push	{r0, r1, r2, r3}
    81fc:	e92d4030 	push	{r4, r5, lr}
    8200:	e24dd00c 	sub	sp, sp, #12
    8204:	e28d301c 	add	r3, sp, #28
    8208:	e58d3004 	str	r3, [sp, #4]
    820c:	e59f4034 	ldr	r4, [pc, #52]	; 8248 <printk+0x50>
    8210:	e1a00004 	mov	r0, r4
    8214:	e3a01b01 	mov	r1, #1024	; 0x400
    8218:	e59d2018 	ldr	r2, [sp, #24]
    821c:	eb0000cb 	bl	8550 <va_printk>
    8220:	e1a05000 	mov	r5, r0
    8224:	e59f3020 	ldr	r3, [pc, #32]	; 824c <printk+0x54>
    8228:	e5933000 	ldr	r3, [r3]
    822c:	e1a00004 	mov	r0, r4
    8230:	e12fff33 	blx	r3
    8234:	e1a00005 	mov	r0, r5
    8238:	e28dd00c 	add	sp, sp, #12
    823c:	e8bd4030 	pop	{r4, r5, lr}
    8240:	e28dd010 	add	sp, sp, #16
    8244:	e12fff1e 	bx	lr
    8248:	00009bfc 	strdeq	r9, [r0], -ip
    824c:	000097f8 	strdeq	r9, [r0], -r8

00008250 <internal_putchar>:
    8250:	e92d4010 	push	{r4, lr}
    8254:	e1a04000 	mov	r4, r0
    8258:	eb000517 	bl	96bc <uart_putc>
    825c:	e1a00004 	mov	r0, r4
    8260:	e8bd8010 	pop	{r4, pc}

00008264 <rpi_reset_putc>:
    8264:	e59f2008 	ldr	r2, [pc, #8]	; 8274 <rpi_reset_putc+0x10>
    8268:	e59f3008 	ldr	r3, [pc, #8]	; 8278 <rpi_reset_putc+0x14>
    826c:	e5832000 	str	r2, [r3]
    8270:	e12fff1e 	bx	lr
    8274:	00008250 	andeq	r8, r0, r0, asr r2
    8278:	000097f4 	strdeq	r9, [r0], -r4

0000827c <rpi_set_putc>:
    827c:	e59f3004 	ldr	r3, [pc, #4]	; 8288 <rpi_set_putc+0xc>
    8280:	e5830000 	str	r0, [r3]
    8284:	e12fff1e 	bx	lr
    8288:	000097f4 	strdeq	r9, [r0], -r4

0000828c <internal_putk>:
    828c:	e92d4038 	push	{r3, r4, r5, lr}
    8290:	e1a04000 	mov	r4, r0
    8294:	e59f5020 	ldr	r5, [pc, #32]	; 82bc <internal_putk+0x30>
    8298:	ea000002 	b	82a8 <internal_putk+0x1c>
    829c:	e5953000 	ldr	r3, [r5]
    82a0:	e12fff33 	blx	r3
    82a4:	e2844001 	add	r4, r4, #1
    82a8:	e5d40000 	ldrb	r0, [r4]
    82ac:	e3500000 	cmp	r0, #0
    82b0:	1afffff9 	bne	829c <internal_putk+0x10>
    82b4:	e3a00001 	mov	r0, #1
    82b8:	e8bd8038 	pop	{r3, r4, r5, pc}
    82bc:	000097f4 	strdeq	r9, [r0], -r4

000082c0 <isdigit>:
    82c0:	e2400030 	sub	r0, r0, #48	; 0x30
    82c4:	e3500009 	cmp	r0, #9
    82c8:	83a00000 	movhi	r0, #0
    82cc:	93a00001 	movls	r0, #1
    82d0:	e12fff1e 	bx	lr

000082d4 <pad>:
    82d4:	e0611000 	rsb	r1, r1, r0
    82d8:	e3a03020 	mov	r3, #32
    82dc:	ea000002 	b	82ec <pad+0x18>
    82e0:	e5c03000 	strb	r3, [r0]
    82e4:	e2811001 	add	r1, r1, #1
    82e8:	e2800001 	add	r0, r0, #1
    82ec:	e1510002 	cmp	r1, r2
    82f0:	bafffffa 	blt	82e0 <pad+0xc>
    82f4:	e3a03000 	mov	r3, #0
    82f8:	e5c03000 	strb	r3, [r0]
    82fc:	e12fff1e 	bx	lr

00008300 <reverse>:
    8300:	e063c002 	rsb	ip, r3, r2
    8304:	e28cc001 	add	ip, ip, #1
    8308:	e15c0001 	cmp	ip, r1
    830c:	c061100c 	rsbgt	r1, r1, ip
    8310:	c0833001 	addgt	r3, r3, r1
    8314:	e2422001 	sub	r2, r2, #1
    8318:	e1a01000 	mov	r1, r0
    831c:	ea000002 	b	832c <reverse+0x2c>
    8320:	e452c001 	ldrb	ip, [r2], #-1
    8324:	e5c1c000 	strb	ip, [r1]
    8328:	e2811001 	add	r1, r1, #1
    832c:	e1520003 	cmp	r2, r3
    8330:	2afffffa 	bcs	8320 <reverse+0x20>
    8334:	e3a03000 	mov	r3, #0
    8338:	e5c13000 	strb	r3, [r1]
    833c:	e12fff1e 	bx	lr

00008340 <emit>:
    8340:	e92d41f0 	push	{r4, r5, r6, r7, r8, lr}
    8344:	e24dd048 	sub	sp, sp, #72	; 0x48
    8348:	e1a05001 	mov	r5, r1
    834c:	e1a04002 	mov	r4, r2
    8350:	e59d2060 	ldr	r2, [sp, #96]	; 0x60
    8354:	e1520004 	cmp	r2, r4
    8358:	c2442001 	subgt	r2, r4, #1
    835c:	e1a0c003 	mov	ip, r3
    8360:	e2400002 	sub	r0, r0, #2
    8364:	e350000e 	cmp	r0, #14
    8368:	979ff100 	ldrls	pc, [pc, r0, lsl #2]
    836c:	ea000042 	b	847c <emit+0x13c>
    8370:	00008454 	andeq	r8, r0, r4, asr r4
    8374:	0000847c 	andeq	r8, r0, ip, ror r4
    8378:	0000847c 	andeq	r8, r0, ip, ror r4
    837c:	0000847c 	andeq	r8, r0, ip, ror r4
    8380:	0000847c 	andeq	r8, r0, ip, ror r4
    8384:	0000847c 	andeq	r8, r0, ip, ror r4
    8388:	00008448 	andeq	r8, r0, r8, asr #8
    838c:	0000847c 	andeq	r8, r0, ip, ror r4
    8390:	000083ac 	andeq	r8, r0, ip, lsr #7
    8394:	0000847c 	andeq	r8, r0, ip, ror r4
    8398:	0000847c 	andeq	r8, r0, ip, ror r4
    839c:	0000847c 	andeq	r8, r0, ip, ror r4
    83a0:	0000847c 	andeq	r8, r0, ip, ror r4
    83a4:	0000847c 	andeq	r8, r0, ip, ror r4
    83a8:	00008420 	andeq	r8, r0, r0, lsr #8
    83ac:	e59d1064 	ldr	r1, [sp, #100]	; 0x64
    83b0:	e2911000 	adds	r1, r1, #0
    83b4:	13a01001 	movne	r1, #1
    83b8:	e0111fa3 	ands	r1, r1, r3, lsr #31
    83bc:	1263c000 	rsbne	ip, r3, #0
    83c0:	13a08001 	movne	r8, #1
    83c4:	03a08000 	moveq	r8, #0
    83c8:	e28d1008 	add	r1, sp, #8
    83cc:	e59f70f4 	ldr	r7, [pc, #244]	; 84c8 <emit+0x188>
    83d0:	e59f60f4 	ldr	r6, [pc, #244]	; 84cc <emit+0x18c>
    83d4:	ea000000 	b	83dc <emit+0x9c>
    83d8:	e1a01003 	mov	r1, r3
    83dc:	e2813001 	add	r3, r1, #1
    83e0:	e08e0c97 	umull	r0, lr, r7, ip
    83e4:	e1a0e1ae 	lsr	lr, lr, #3
    83e8:	e1a0000e 	mov	r0, lr
    83ec:	e08ee10e 	add	lr, lr, lr, lsl #2
    83f0:	e1a0e08e 	lsl	lr, lr, #1
    83f4:	e06ee00c 	rsb	lr, lr, ip
    83f8:	e7d6c00e 	ldrb	ip, [r6, lr]
    83fc:	e5c1c000 	strb	ip, [r1]
    8400:	e1a0c000 	mov	ip, r0
    8404:	e3500000 	cmp	r0, #0
    8408:	1afffff2 	bne	83d8 <emit+0x98>
    840c:	e3580000 	cmp	r8, #0
    8410:	12813002 	addne	r3, r1, #2
    8414:	13a0002d 	movne	r0, #45	; 0x2d
    8418:	15c10001 	strbne	r0, [r1, #1]
    841c:	ea00001f 	b	84a0 <emit+0x160>
    8420:	e28de008 	add	lr, sp, #8
    8424:	e59f00a4 	ldr	r0, [pc, #164]	; 84d0 <emit+0x190>
    8428:	e28e3001 	add	r3, lr, #1
    842c:	e20c100f 	and	r1, ip, #15
    8430:	e7d01001 	ldrb	r1, [r0, r1]
    8434:	e5ce1000 	strb	r1, [lr]
    8438:	e1a0e003 	mov	lr, r3
    843c:	e1b0c22c 	lsrs	ip, ip, #4
    8440:	1afffff8 	bne	8428 <emit+0xe8>
    8444:	ea000015 	b	84a0 <emit+0x160>
    8448:	e5cd3008 	strb	r3, [sp, #8]
    844c:	e28d3009 	add	r3, sp, #9
    8450:	ea000012 	b	84a0 <emit+0x160>
    8454:	e28de008 	add	lr, sp, #8
    8458:	e59f0074 	ldr	r0, [pc, #116]	; 84d4 <emit+0x194>
    845c:	e28e3001 	add	r3, lr, #1
    8460:	e20c1001 	and	r1, ip, #1
    8464:	e7d01001 	ldrb	r1, [r0, r1]
    8468:	e5ce1000 	strb	r1, [lr]
    846c:	e1a0e003 	mov	lr, r3
    8470:	e1b0c0ac 	lsrs	ip, ip, #1
    8474:	1afffff8 	bne	845c <emit+0x11c>
    8478:	ea000008 	b	84a0 <emit+0x160>
    847c:	ebffff78 	bl	8264 <rpi_reset_putc>
    8480:	e59f3050 	ldr	r3, [pc, #80]	; 84d8 <emit+0x198>
    8484:	e58d3000 	str	r3, [sp]
    8488:	e59f004c 	ldr	r0, [pc, #76]	; 84dc <emit+0x19c>
    848c:	e59f104c 	ldr	r1, [pc, #76]	; 84e0 <emit+0x1a0>
    8490:	e59f204c 	ldr	r2, [pc, #76]	; 84e4 <emit+0x1a4>
    8494:	e3a03075 	mov	r3, #117	; 0x75
    8498:	ebffff56 	bl	81f8 <printk>
    849c:	eb0000d0 	bl	87e4 <clean_reboot>
    84a0:	e1a00003 	mov	r0, r3
    84a4:	e28d1008 	add	r1, sp, #8
    84a8:	ebffff89 	bl	82d4 <pad>
    84ac:	e1a02000 	mov	r2, r0
    84b0:	e1a00005 	mov	r0, r5
    84b4:	e1a01004 	mov	r1, r4
    84b8:	e28d3008 	add	r3, sp, #8
    84bc:	ebffff8f 	bl	8300 <reverse>
    84c0:	e28dd048 	add	sp, sp, #72	; 0x48
    84c4:	e8bd81f0 	pop	{r4, r5, r6, r7, r8, pc}
    84c8:	cccccccd 	stclgt	12, cr12, [ip], {205}	; 0xcd
    84cc:	00009a10 	andeq	r9, r0, r0, lsl sl
    84d0:	00009a1c 	andeq	r9, r0, ip, lsl sl
    84d4:	00009a30 	andeq	r9, r0, r0, lsr sl
    84d8:	00009a0c 	andeq	r9, r0, ip, lsl #20
    84dc:	000099e4 	andeq	r9, r0, r4, ror #19
    84e0:	000099f8 	strdeq	r9, [r0], -r8
    84e4:	000099c0 	andeq	r9, r0, r0, asr #19

000084e8 <rpi_set_output>:
    84e8:	e52de004 	push	{lr}		; (str lr, [sp, #-4]!)
    84ec:	e24dd00c 	sub	sp, sp, #12
    84f0:	e3500000 	cmp	r0, #0
    84f4:	1a000008 	bne	851c <rpi_set_output+0x34>
    84f8:	ebffff59 	bl	8264 <rpi_reset_putc>
    84fc:	e59f3034 	ldr	r3, [pc, #52]	; 8538 <rpi_set_output+0x50>
    8500:	e58d3000 	str	r3, [sp]
    8504:	e59f0030 	ldr	r0, [pc, #48]	; 853c <rpi_set_output+0x54>
    8508:	e59f1030 	ldr	r1, [pc, #48]	; 8540 <rpi_set_output+0x58>
    850c:	e59f2030 	ldr	r2, [pc, #48]	; 8544 <rpi_set_output+0x5c>
    8510:	e3a03020 	mov	r3, #32
    8514:	ebffff37 	bl	81f8 <printk>
    8518:	eb0000b1 	bl	87e4 <clean_reboot>
    851c:	e59f3024 	ldr	r3, [pc, #36]	; 8548 <rpi_set_output+0x60>
    8520:	e5830000 	str	r0, [r3]
    8524:	e3510000 	cmp	r1, #0
    8528:	159f301c 	ldrne	r3, [pc, #28]	; 854c <rpi_set_output+0x64>
    852c:	15831000 	strne	r1, [r3]
    8530:	e28dd00c 	add	sp, sp, #12
    8534:	e49df004 	pop	{pc}		; (ldr pc, [sp], #4)
    8538:	00009a34 	andeq	r9, r0, r4, lsr sl
    853c:	000099e4 	andeq	r9, r0, r4, ror #19
    8540:	000099f8 	strdeq	r9, [r0], -r8
    8544:	000099c8 	andeq	r9, r0, r8, asr #19
    8548:	000097f4 	strdeq	r9, [r0], -r4
    854c:	000097f8 	strdeq	r9, [r0], -r8

00008550 <va_printk>:
    8550:	e92d4ff0 	push	{r4, r5, r6, r7, r8, r9, sl, fp, lr}
    8554:	e24dd08c 	sub	sp, sp, #140	; 0x8c
    8558:	e1a0a000 	mov	sl, r0
    855c:	e1a09003 	mov	r9, r3
    8560:	e2411001 	sub	r1, r1, #1
    8564:	e0808001 	add	r8, r0, r1
    8568:	e3a03000 	mov	r3, #0
    856c:	e5c03000 	strb	r3, [r0]
    8570:	e1a04000 	mov	r4, r0
    8574:	e1a0b003 	mov	fp, r3
    8578:	ea000088 	b	87a0 <va_printk+0x250>
    857c:	e3530025 	cmp	r3, #37	; 0x25
    8580:	12822001 	addne	r2, r2, #1
    8584:	15c43000 	strbne	r3, [r4]
    8588:	12844001 	addne	r4, r4, #1
    858c:	1a000083 	bne	87a0 <va_printk+0x250>
    8590:	e5d21001 	ldrb	r1, [r2, #1]
    8594:	e3510025 	cmp	r1, #37	; 0x25
    8598:	05c43000 	strbeq	r3, [r4]
    859c:	02822002 	addeq	r2, r2, #2
    85a0:	02844001 	addeq	r4, r4, #1
    85a4:	0a00007d 	beq	87a0 <va_printk+0x250>
    85a8:	e2826001 	add	r6, r2, #1
    85ac:	e1a0700b 	mov	r7, fp
    85b0:	ea000004 	b	85c8 <va_printk+0x78>
    85b4:	e0877107 	add	r7, r7, r7, lsl #2
    85b8:	e1a07087 	lsl	r7, r7, #1
    85bc:	e0877005 	add	r7, r7, r5
    85c0:	e2477030 	sub	r7, r7, #48	; 0x30
    85c4:	e2866001 	add	r6, r6, #1
    85c8:	e5d65000 	ldrb	r5, [r6]
    85cc:	e1a00005 	mov	r0, r5
    85d0:	ebffff3a 	bl	82c0 <isdigit>
    85d4:	e3500000 	cmp	r0, #0
    85d8:	1afffff5 	bne	85b4 <va_printk+0x64>
    85dc:	e357001f 	cmp	r7, #31
    85e0:	9a000008 	bls	8608 <va_printk+0xb8>
    85e4:	ebffff1e 	bl	8264 <rpi_reset_putc>
    85e8:	e59f31dc 	ldr	r3, [pc, #476]	; 87cc <va_printk+0x27c>
    85ec:	e58d3000 	str	r3, [sp]
    85f0:	e59f01d8 	ldr	r0, [pc, #472]	; 87d0 <va_printk+0x280>
    85f4:	e59f11d8 	ldr	r1, [pc, #472]	; 87d4 <va_printk+0x284>
    85f8:	e59f21d8 	ldr	r2, [pc, #472]	; 87d8 <va_printk+0x288>
    85fc:	e3a03092 	mov	r3, #146	; 0x92
    8600:	ebfffefc 	bl	81f8 <printk>
    8604:	eb000076 	bl	87e4 <clean_reboot>
    8608:	e2455062 	sub	r5, r5, #98	; 0x62
    860c:	e3550016 	cmp	r5, #22
    8610:	979ff105 	ldrls	pc, [pc, r5, lsl #2]
    8614:	ea00004e 	b	8754 <va_printk+0x204>
    8618:	00008700 	andeq	r8, r0, r0, lsl #14
    861c:	00008730 	andeq	r8, r0, r0, lsr r7
    8620:	00008690 	muleq	r0, r0, r6
    8624:	00008754 	andeq	r8, r0, r4, asr r7
    8628:	00008674 	andeq	r8, r0, r4, ror r6
    862c:	00008754 	andeq	r8, r0, r4, asr r7
    8630:	00008754 	andeq	r8, r0, r4, asr r7
    8634:	00008754 	andeq	r8, r0, r4, asr r7
    8638:	00008754 	andeq	r8, r0, r4, asr r7
    863c:	00008754 	andeq	r8, r0, r4, asr r7
    8640:	00008754 	andeq	r8, r0, r4, asr r7
    8644:	00008754 	andeq	r8, r0, r4, asr r7
    8648:	00008754 	andeq	r8, r0, r4, asr r7
    864c:	00008754 	andeq	r8, r0, r4, asr r7
    8650:	000086dc 	ldrdeq	r8, [r0], -ip
    8654:	00008754 	andeq	r8, r0, r4, asr r7
    8658:	00008754 	andeq	r8, r0, r4, asr r7
    865c:	00008724 	andeq	r8, r0, r4, lsr #14
    8660:	00008754 	andeq	r8, r0, r4, asr r7
    8664:	000086b8 			; <UNDEFINED> instruction: 0x000086b8
    8668:	00008754 	andeq	r8, r0, r4, asr r7
    866c:	00008754 	andeq	r8, r0, r4, asr r7
    8670:	000086dc 	ldrdeq	r8, [r0], -ip
    8674:	ebfffefa 	bl	8264 <rpi_reset_putc>
    8678:	e59f015c 	ldr	r0, [pc, #348]	; 87dc <va_printk+0x28c>
    867c:	e59f1150 	ldr	r1, [pc, #336]	; 87d4 <va_printk+0x284>
    8680:	e59f2150 	ldr	r2, [pc, #336]	; 87d8 <va_printk+0x288>
    8684:	e3a03098 	mov	r3, #152	; 0x98
    8688:	ebfffeda 	bl	81f8 <printk>
    868c:	eb000054 	bl	87e4 <clean_reboot>
    8690:	e5993000 	ldr	r3, [r9]
    8694:	e2899004 	add	r9, r9, #4
    8698:	e58d7000 	str	r7, [sp]
    869c:	e3a02001 	mov	r2, #1
    86a0:	e58d2004 	str	r2, [sp, #4]
    86a4:	e3a0000a 	mov	r0, #10
    86a8:	e28d1008 	add	r1, sp, #8
    86ac:	e3a02080 	mov	r2, #128	; 0x80
    86b0:	ebffff22 	bl	8340 <emit>
    86b4:	ea00002f 	b	8778 <va_printk+0x228>
    86b8:	e5993000 	ldr	r3, [r9]
    86bc:	e2899004 	add	r9, r9, #4
    86c0:	e58d7000 	str	r7, [sp]
    86c4:	e58db004 	str	fp, [sp, #4]
    86c8:	e3a0000a 	mov	r0, #10
    86cc:	e28d1008 	add	r1, sp, #8
    86d0:	e3a02080 	mov	r2, #128	; 0x80
    86d4:	ebffff19 	bl	8340 <emit>
    86d8:	ea000026 	b	8778 <va_printk+0x228>
    86dc:	e5993000 	ldr	r3, [r9]
    86e0:	e2899004 	add	r9, r9, #4
    86e4:	e58d7000 	str	r7, [sp]
    86e8:	e58db004 	str	fp, [sp, #4]
    86ec:	e3a00010 	mov	r0, #16
    86f0:	e28d1008 	add	r1, sp, #8
    86f4:	e3a02080 	mov	r2, #128	; 0x80
    86f8:	ebffff10 	bl	8340 <emit>
    86fc:	ea00001d 	b	8778 <va_printk+0x228>
    8700:	e5993000 	ldr	r3, [r9]
    8704:	e2899004 	add	r9, r9, #4
    8708:	e58d7000 	str	r7, [sp]
    870c:	e58db004 	str	fp, [sp, #4]
    8710:	e3a00002 	mov	r0, #2
    8714:	e28d1008 	add	r1, sp, #8
    8718:	e3a02080 	mov	r2, #128	; 0x80
    871c:	ebffff07 	bl	8340 <emit>
    8720:	ea000014 	b	8778 <va_printk+0x228>
    8724:	e5990000 	ldr	r0, [r9]
    8728:	e2899004 	add	r9, r9, #4
    872c:	ea000011 	b	8778 <va_printk+0x228>
    8730:	e5993000 	ldr	r3, [r9]
    8734:	e2899004 	add	r9, r9, #4
    8738:	e58d7000 	str	r7, [sp]
    873c:	e58db004 	str	fp, [sp, #4]
    8740:	e3a00008 	mov	r0, #8
    8744:	e08d1000 	add	r1, sp, r0
    8748:	e3a02080 	mov	r2, #128	; 0x80
    874c:	ebfffefb 	bl	8340 <emit>
    8750:	ea000008 	b	8778 <va_printk+0x228>
    8754:	ebfffec2 	bl	8264 <rpi_reset_putc>
    8758:	e5d63000 	ldrb	r3, [r6]
    875c:	e58d3000 	str	r3, [sp]
    8760:	e59f0078 	ldr	r0, [pc, #120]	; 87e0 <va_printk+0x290>
    8764:	e59f1068 	ldr	r1, [pc, #104]	; 87d4 <va_printk+0x284>
    8768:	e59f2068 	ldr	r2, [pc, #104]	; 87d8 <va_printk+0x288>
    876c:	e3a030b9 	mov	r3, #185	; 0xb9
    8770:	ebfffea0 	bl	81f8 <printk>
    8774:	eb00001a 	bl	87e4 <clean_reboot>
    8778:	e2862001 	add	r2, r6, #1
    877c:	ea000002 	b	878c <va_printk+0x23c>
    8780:	e2800001 	add	r0, r0, #1
    8784:	e5c43000 	strb	r3, [r4]
    8788:	e2844001 	add	r4, r4, #1
    878c:	e1540008 	cmp	r4, r8
    8790:	2a000002 	bcs	87a0 <va_printk+0x250>
    8794:	e5d03000 	ldrb	r3, [r0]
    8798:	e3530000 	cmp	r3, #0
    879c:	1afffff7 	bne	8780 <va_printk+0x230>
    87a0:	e5d23000 	ldrb	r3, [r2]
    87a4:	e3530000 	cmp	r3, #0
    87a8:	0a000001 	beq	87b4 <va_printk+0x264>
    87ac:	e1540008 	cmp	r4, r8
    87b0:	3affff71 	bcc	857c <va_printk+0x2c>
    87b4:	e2840001 	add	r0, r4, #1
    87b8:	e3a03000 	mov	r3, #0
    87bc:	e5c43000 	strb	r3, [r4]
    87c0:	e06a0000 	rsb	r0, sl, r0
    87c4:	e28dd08c 	add	sp, sp, #140	; 0x8c
    87c8:	e8bd8ff0 	pop	{r4, r5, r6, r7, r8, r9, sl, fp, pc}
    87cc:	00009a3c 	andeq	r9, r0, ip, lsr sl
    87d0:	000099e4 	andeq	r9, r0, r4, ror #19
    87d4:	000099f8 	strdeq	r9, [r0], -r8
    87d8:	000099d8 	ldrdeq	r9, [r0], -r8
    87dc:	00009a48 	andeq	r9, r0, r8, asr #20
    87e0:	00009a70 	andeq	r9, r0, r0, ror sl

000087e4 <clean_reboot>:
    87e4:	e92d4008 	push	{r3, lr}
    87e8:	e59f3014 	ldr	r3, [pc, #20]	; 8804 <clean_reboot+0x20>
    87ec:	e5933000 	ldr	r3, [r3]
    87f0:	e59f0010 	ldr	r0, [pc, #16]	; 8808 <clean_reboot+0x24>
    87f4:	e12fff33 	blx	r3
    87f8:	e3a00064 	mov	r0, #100	; 0x64
    87fc:	eb000063 	bl	8990 <delay_ms>
    8800:	eb000038 	bl	88e8 <rpi_reboot>
    8804:	000097f8 	strdeq	r9, [r0], -r8
    8808:	00009aa8 	andeq	r9, r0, r8, lsr #21

0000880c <internal_sw_putchar>:
    880c:	e92d4010 	push	{r4, lr}
    8810:	e1a04000 	mov	r4, r0
    8814:	e59f000c 	ldr	r0, [pc, #12]	; 8828 <internal_sw_putchar+0x1c>
    8818:	e6ef1074 	uxtb	r1, r4
    881c:	eb0001cd 	bl	8f58 <sw_uart_putc>
    8820:	e1a00004 	mov	r0, r4
    8824:	e8bd8010 	pop	{r4, pc}
    8828:	00009ffc 	strdeq	r9, [r0], -ip

0000882c <_cstart>:
    882c:	e92d4008 	push	{r3, lr}
    8830:	e59f3068 	ldr	r3, [pc, #104]	; 88a0 <_cstart+0x74>
    8834:	e59f2068 	ldr	r2, [pc, #104]	; 88a4 <_cstart+0x78>
    8838:	e3a01000 	mov	r1, #0
    883c:	ea000001 	b	8848 <_cstart+0x1c>
    8840:	e5831000 	str	r1, [r3]
    8844:	e2833004 	add	r3, r3, #4
    8848:	e1530002 	cmp	r3, r2
    884c:	3afffffb 	bcc	8840 <_cstart+0x14>
    8850:	eb0003d2 	bl	97a0 <cb_get_block>
    8854:	e3500000 	cmp	r0, #0
    8858:	0a00000e 	beq	8898 <_cstart+0x6c>
    885c:	e5d02004 	ldrb	r2, [r0, #4]
    8860:	e3520002 	cmp	r2, #2
    8864:	1a00000b 	bne	8898 <_cstart+0x6c>
    8868:	e59f1038 	ldr	r1, [pc, #56]	; 88a8 <_cstart+0x7c>
    886c:	e59f2038 	ldr	r2, [pc, #56]	; 88ac <_cstart+0x80>
    8870:	e5821000 	str	r1, [r2]
    8874:	e59fc034 	ldr	ip, [pc, #52]	; 88b0 <_cstart+0x84>
    8878:	e2803008 	add	r3, r0, #8
    887c:	e8930007 	ldm	r3, {r0, r1, r2}
    8880:	e88c0007 	stm	ip, {r0, r1, r2}
    8884:	e1a0000c 	mov	r0, ip
    8888:	e59f1024 	ldr	r1, [pc, #36]	; 88b4 <_cstart+0x88>
    888c:	eb000314 	bl	94e4 <sw_uart_printk>
    8890:	e59f0020 	ldr	r0, [pc, #32]	; 88b8 <_cstart+0x8c>
    8894:	ebfffe57 	bl	81f8 <printk>
    8898:	ebfffddc 	bl	8010 <notmain>
    889c:	eb000011 	bl	88e8 <rpi_reboot>
    88a0:	00009bfc 	strdeq	r9, [r0], -ip
    88a4:	0000a008 	andeq	sl, r0, r8
    88a8:	0000880c 	andeq	r8, r0, ip, lsl #16
    88ac:	000097f4 	strdeq	r9, [r0], -r4
    88b0:	00009ffc 	strdeq	r9, [r0], -ip
    88b4:	00009ab4 			; <UNDEFINED> instruction: 0x00009ab4
    88b8:	00009ad8 	ldrdeq	r9, [r0], -r8

000088bc <at_user_level>:
    88bc:	e10f0000 	mrs	r0, CPSR
    88c0:	e200001f 	and	r0, r0, #31
    88c4:	e3500010 	cmp	r0, #16
    88c8:	13a00000 	movne	r0, #0
    88cc:	03a00001 	moveq	r0, #1
    88d0:	e12fff1e 	bx	lr

000088d4 <set_user_level>:
    88d4:	e10f3000 	mrs	r3, CPSR
    88d8:	e3c3301f 	bic	r3, r3, #31
    88dc:	e3833010 	orr	r3, r3, #16
    88e0:	e129f003 	msr	CPSR_fc, r3
    88e4:	e12fff1e 	bx	lr

000088e8 <rpi_reboot>:
    88e8:	e92d4008 	push	{r3, lr}
    88ec:	ebfffff2 	bl	88bc <at_user_level>
    88f0:	e3500000 	cmp	r0, #0
    88f4:	0a000000 	beq	88fc <rpi_reboot+0x14>
    88f8:	ebfffff5 	bl	88d4 <set_user_level>
    88fc:	e3a0001e 	mov	r0, #30
    8900:	eb000022 	bl	8990 <delay_ms>
    8904:	e59f0014 	ldr	r0, [pc, #20]	; 8920 <rpi_reboot+0x38>
    8908:	e59f1014 	ldr	r1, [pc, #20]	; 8924 <rpi_reboot+0x3c>
    890c:	eb000388 	bl	9734 <PUT32>
    8910:	e59f0010 	ldr	r0, [pc, #16]	; 8928 <rpi_reboot+0x40>
    8914:	e59f1010 	ldr	r1, [pc, #16]	; 892c <rpi_reboot+0x44>
    8918:	eb000385 	bl	9734 <PUT32>
    891c:	eafffffe 	b	891c <rpi_reboot+0x34>
    8920:	20100024 	andscs	r0, r0, r4, lsr #32
    8924:	5a000001 	bpl	8930 <delay_cycles>
    8928:	2010001c 	andscs	r0, r0, ip, lsl r0
    892c:	5a000020 	bpl	89b4 <delay_sec+0x10>

00008930 <delay_cycles>:
    8930:	ea000001 	b	893c <delay_cycles+0xc>
    8934:	e2811000 	add	r1, r1, #0
    8938:	e1a00003 	mov	r0, r3
    893c:	e2403001 	sub	r3, r0, #1
    8940:	e3500000 	cmp	r0, #0
    8944:	1afffffa 	bne	8934 <delay_cycles+0x4>
    8948:	e12fff1e 	bx	lr

0000894c <timer_get_usec_raw>:
    894c:	e92d4008 	push	{r3, lr}
    8950:	e59f0004 	ldr	r0, [pc, #4]	; 895c <timer_get_usec_raw+0x10>
    8954:	eb000382 	bl	9764 <GET32>
    8958:	e8bd8008 	pop	{r3, pc}
    895c:	20003004 	andcs	r3, r0, r4

00008960 <timer_get_usec>:
    8960:	e92d4008 	push	{r3, lr}
    8964:	ebfffff8 	bl	894c <timer_get_usec_raw>
    8968:	e8bd8008 	pop	{r3, pc}

0000896c <delay_us>:
    896c:	e92d4038 	push	{r3, r4, r5, lr}
    8970:	e1a05000 	mov	r5, r0
    8974:	ebfffff9 	bl	8960 <timer_get_usec>
    8978:	e1a04000 	mov	r4, r0
    897c:	ebfffff7 	bl	8960 <timer_get_usec>
    8980:	e0640000 	rsb	r0, r4, r0
    8984:	e1500005 	cmp	r0, r5
    8988:	3afffffb 	bcc	897c <delay_us+0x10>
    898c:	e8bd8038 	pop	{r3, r4, r5, pc}

00008990 <delay_ms>:
    8990:	e92d4008 	push	{r3, lr}
    8994:	e3a03ffa 	mov	r3, #1000	; 0x3e8
    8998:	e0000093 	mul	r0, r3, r0
    899c:	ebfffff2 	bl	896c <delay_us>
    89a0:	e8bd8008 	pop	{r3, pc}

000089a4 <delay_sec>:
    89a4:	e92d4008 	push	{r3, lr}
    89a8:	e3a03ffa 	mov	r3, #1000	; 0x3e8
    89ac:	e0000093 	mul	r0, r3, r0
    89b0:	ebfffff6 	bl	8990 <delay_ms>
    89b4:	e8bd8008 	pop	{r3, pc}

000089b8 <gpio_set_output>:
    89b8:	e92d4038 	push	{r3, r4, r5, lr}
    89bc:	e1a04000 	mov	r4, r0
    89c0:	e350001f 	cmp	r0, #31
    89c4:	88bd8038 	pophi	{r3, r4, r5, pc}
    89c8:	e59f30b4 	ldr	r3, [pc, #180]	; 8a84 <gpio_set_output+0xcc>
    89cc:	e0832093 	umull	r2, r3, r3, r0
    89d0:	e1a031a3 	lsr	r3, r3, #3
    89d4:	e3530005 	cmp	r3, #5
    89d8:	979ff103 	ldrls	pc, [pc, r3, lsl #2]
    89dc:	ea000017 	b	8a40 <gpio_set_output+0x88>
    89e0:	000089f8 	strdeq	r8, [r0], -r8	; <UNPREDICTABLE>
    89e4:	00008a04 	andeq	r8, r0, r4, lsl #20
    89e8:	00008a10 	andeq	r8, r0, r0, lsl sl
    89ec:	00008a1c 	andeq	r8, r0, ip, lsl sl
    89f0:	00008a28 	andeq	r8, r0, r8, lsr #20
    89f4:	00008a34 	andeq	r8, r0, r4, lsr sl
    89f8:	e59f3088 	ldr	r3, [pc, #136]	; 8a88 <gpio_set_output+0xd0>
    89fc:	e5935000 	ldr	r5, [r3]
    8a00:	ea00000f 	b	8a44 <gpio_set_output+0x8c>
    8a04:	e59f307c 	ldr	r3, [pc, #124]	; 8a88 <gpio_set_output+0xd0>
    8a08:	e5935004 	ldr	r5, [r3, #4]
    8a0c:	ea00000c 	b	8a44 <gpio_set_output+0x8c>
    8a10:	e59f3070 	ldr	r3, [pc, #112]	; 8a88 <gpio_set_output+0xd0>
    8a14:	e5935008 	ldr	r5, [r3, #8]
    8a18:	ea000009 	b	8a44 <gpio_set_output+0x8c>
    8a1c:	e59f3064 	ldr	r3, [pc, #100]	; 8a88 <gpio_set_output+0xd0>
    8a20:	e593500c 	ldr	r5, [r3, #12]
    8a24:	ea000006 	b	8a44 <gpio_set_output+0x8c>
    8a28:	e59f3058 	ldr	r3, [pc, #88]	; 8a88 <gpio_set_output+0xd0>
    8a2c:	e5935010 	ldr	r5, [r3, #16]
    8a30:	ea000003 	b	8a44 <gpio_set_output+0x8c>
    8a34:	e59f304c 	ldr	r3, [pc, #76]	; 8a88 <gpio_set_output+0xd0>
    8a38:	e5935014 	ldr	r5, [r3, #20]
    8a3c:	ea000000 	b	8a44 <gpio_set_output+0x8c>
    8a40:	e3a05000 	mov	r5, #0
    8a44:	e1a00005 	mov	r0, r5
    8a48:	eb000343 	bl	975c <get32>
    8a4c:	e59f1030 	ldr	r1, [pc, #48]	; 8a84 <gpio_set_output+0xcc>
    8a50:	e0813491 	umull	r3, r1, r1, r4
    8a54:	e1a011a1 	lsr	r1, r1, #3
    8a58:	e0811101 	add	r1, r1, r1, lsl #2
    8a5c:	e1a01081 	lsl	r1, r1, #1
    8a60:	e0611004 	rsb	r1, r1, r4
    8a64:	e0811081 	add	r1, r1, r1, lsl #1
    8a68:	e3a03007 	mov	r3, #7
    8a6c:	e1c03113 	bic	r3, r0, r3, lsl r1
    8a70:	e1a00005 	mov	r0, r5
    8a74:	e3a02001 	mov	r2, #1
    8a78:	e1831112 	orr	r1, r3, r2, lsl r1
    8a7c:	eb00032a 	bl	972c <put32>
    8a80:	e8bd8038 	pop	{r3, r4, r5, pc}
    8a84:	cccccccd 	stclgt	12, cr12, [ip], {205}	; 0xcd
    8a88:	000097fc 	strdeq	r9, [r0], -ip

00008a8c <gpio_set_on>:
    8a8c:	e92d4008 	push	{r3, lr}
    8a90:	e350001f 	cmp	r0, #31
    8a94:	88bd8008 	pophi	{r3, pc}
    8a98:	959f3020 	ldrls	r3, [pc, #32]	; 8ac0 <gpio_set_on+0x34>
    8a9c:	95932018 	ldrls	r2, [r3, #24]
    8aa0:	859f3018 	ldrhi	r3, [pc, #24]	; 8ac0 <gpio_set_on+0x34>
    8aa4:	8593201c 	ldrhi	r2, [r3, #28]
    8aa8:	e200301f 	and	r3, r0, #31
    8aac:	e1a00002 	mov	r0, r2
    8ab0:	e3a01001 	mov	r1, #1
    8ab4:	e1a01311 	lsl	r1, r1, r3
    8ab8:	eb00031b 	bl	972c <put32>
    8abc:	e8bd8008 	pop	{r3, pc}
    8ac0:	000097fc 	strdeq	r9, [r0], -ip

00008ac4 <gpio_set_off>:
    8ac4:	e92d4008 	push	{r3, lr}
    8ac8:	e350001f 	cmp	r0, #31
    8acc:	88bd8008 	pophi	{r3, pc}
    8ad0:	959f3020 	ldrls	r3, [pc, #32]	; 8af8 <gpio_set_off+0x34>
    8ad4:	95932020 	ldrls	r2, [r3, #32]
    8ad8:	859f3018 	ldrhi	r3, [pc, #24]	; 8af8 <gpio_set_off+0x34>
    8adc:	85932024 	ldrhi	r2, [r3, #36]	; 0x24
    8ae0:	e200301f 	and	r3, r0, #31
    8ae4:	e1a00002 	mov	r0, r2
    8ae8:	e3a01001 	mov	r1, #1
    8aec:	e1a01311 	lsl	r1, r1, r3
    8af0:	eb00030d 	bl	972c <put32>
    8af4:	e8bd8008 	pop	{r3, pc}
    8af8:	000097fc 	strdeq	r9, [r0], -ip

00008afc <gpio_set_input>:
    8afc:	e92d4038 	push	{r3, r4, r5, lr}
    8b00:	e1a04000 	mov	r4, r0
    8b04:	e350001f 	cmp	r0, #31
    8b08:	88bd8038 	pophi	{r3, r4, r5, pc}
    8b0c:	e59f30ac 	ldr	r3, [pc, #172]	; 8bc0 <gpio_set_input+0xc4>
    8b10:	e0832093 	umull	r2, r3, r3, r0
    8b14:	e1a031a3 	lsr	r3, r3, #3
    8b18:	e3530005 	cmp	r3, #5
    8b1c:	979ff103 	ldrls	pc, [pc, r3, lsl #2]
    8b20:	ea000017 	b	8b84 <gpio_set_input+0x88>
    8b24:	00008b3c 	andeq	r8, r0, ip, lsr fp
    8b28:	00008b48 	andeq	r8, r0, r8, asr #22
    8b2c:	00008b54 	andeq	r8, r0, r4, asr fp
    8b30:	00008b60 	andeq	r8, r0, r0, ror #22
    8b34:	00008b6c 	andeq	r8, r0, ip, ror #22
    8b38:	00008b78 	andeq	r8, r0, r8, ror fp
    8b3c:	e59f3080 	ldr	r3, [pc, #128]	; 8bc4 <gpio_set_input+0xc8>
    8b40:	e5935000 	ldr	r5, [r3]
    8b44:	ea00000f 	b	8b88 <gpio_set_input+0x8c>
    8b48:	e59f3074 	ldr	r3, [pc, #116]	; 8bc4 <gpio_set_input+0xc8>
    8b4c:	e5935004 	ldr	r5, [r3, #4]
    8b50:	ea00000c 	b	8b88 <gpio_set_input+0x8c>
    8b54:	e59f3068 	ldr	r3, [pc, #104]	; 8bc4 <gpio_set_input+0xc8>
    8b58:	e5935008 	ldr	r5, [r3, #8]
    8b5c:	ea000009 	b	8b88 <gpio_set_input+0x8c>
    8b60:	e59f305c 	ldr	r3, [pc, #92]	; 8bc4 <gpio_set_input+0xc8>
    8b64:	e593500c 	ldr	r5, [r3, #12]
    8b68:	ea000006 	b	8b88 <gpio_set_input+0x8c>
    8b6c:	e59f3050 	ldr	r3, [pc, #80]	; 8bc4 <gpio_set_input+0xc8>
    8b70:	e5935010 	ldr	r5, [r3, #16]
    8b74:	ea000003 	b	8b88 <gpio_set_input+0x8c>
    8b78:	e59f3044 	ldr	r3, [pc, #68]	; 8bc4 <gpio_set_input+0xc8>
    8b7c:	e5935014 	ldr	r5, [r3, #20]
    8b80:	ea000000 	b	8b88 <gpio_set_input+0x8c>
    8b84:	e3a05000 	mov	r5, #0
    8b88:	e1a00005 	mov	r0, r5
    8b8c:	eb0002f2 	bl	975c <get32>
    8b90:	e59f1028 	ldr	r1, [pc, #40]	; 8bc0 <gpio_set_input+0xc4>
    8b94:	e0813491 	umull	r3, r1, r1, r4
    8b98:	e1a011a1 	lsr	r1, r1, #3
    8b9c:	e0811101 	add	r1, r1, r1, lsl #2
    8ba0:	e1a01081 	lsl	r1, r1, #1
    8ba4:	e0611004 	rsb	r1, r1, r4
    8ba8:	e0811081 	add	r1, r1, r1, lsl #1
    8bac:	e3a03007 	mov	r3, #7
    8bb0:	e1c01113 	bic	r1, r0, r3, lsl r1
    8bb4:	e1a00005 	mov	r0, r5
    8bb8:	eb0002db 	bl	972c <put32>
    8bbc:	e8bd8038 	pop	{r3, r4, r5, pc}
    8bc0:	cccccccd 	stclgt	12, cr12, [ip], {205}	; 0xcd
    8bc4:	000097fc 	strdeq	r9, [r0], -ip

00008bc8 <gpio_read>:
    8bc8:	e92d4010 	push	{r4, lr}
    8bcc:	e1a04000 	mov	r4, r0
    8bd0:	e350001f 	cmp	r0, #31
    8bd4:	8a00000b 	bhi	8c08 <gpio_read+0x40>
    8bd8:	8a000003 	bhi	8bec <gpio_read+0x24>
    8bdc:	e59f302c 	ldr	r3, [pc, #44]	; 8c10 <gpio_read+0x48>
    8be0:	e5930028 	ldr	r0, [r3, #40]	; 0x28
    8be4:	eb0002dc 	bl	975c <get32>
    8be8:	ea000002 	b	8bf8 <gpio_read+0x30>
    8bec:	e59f301c 	ldr	r3, [pc, #28]	; 8c10 <gpio_read+0x48>
    8bf0:	e593002c 	ldr	r0, [r3, #44]	; 0x2c
    8bf4:	eb0002d8 	bl	975c <get32>
    8bf8:	e204401f 	and	r4, r4, #31
    8bfc:	e3a03001 	mov	r3, #1
    8c00:	e0000413 	and	r0, r0, r3, lsl r4
    8c04:	e8bd8010 	pop	{r4, pc}
    8c08:	e3e00000 	mvn	r0, #0
    8c0c:	e8bd8010 	pop	{r4, pc}
    8c10:	000097fc 	strdeq	r9, [r0], -ip

00008c14 <gpio_write>:
    8c14:	e92d4008 	push	{r3, lr}
    8c18:	e350001f 	cmp	r0, #31
    8c1c:	88bd8008 	pophi	{r3, pc}
    8c20:	e3510000 	cmp	r1, #0
    8c24:	0a000001 	beq	8c30 <gpio_write+0x1c>
    8c28:	ebffff97 	bl	8a8c <gpio_set_on>
    8c2c:	e8bd8008 	pop	{r3, pc}
    8c30:	ebffffa3 	bl	8ac4 <gpio_set_off>
    8c34:	e8bd8008 	pop	{r3, pc}

00008c38 <gpio_set_function>:
    8c38:	e92d4070 	push	{r4, r5, r6, lr}
    8c3c:	e1a04000 	mov	r4, r0
    8c40:	e1a05001 	mov	r5, r1
    8c44:	e3510007 	cmp	r1, #7
    8c48:	9350001f 	cmpls	r0, #31
    8c4c:	88bd8070 	pophi	{r4, r5, r6, pc}
    8c50:	e59f30b0 	ldr	r3, [pc, #176]	; 8d08 <gpio_set_function+0xd0>
    8c54:	e0832093 	umull	r2, r3, r3, r0
    8c58:	e1a031a3 	lsr	r3, r3, #3
    8c5c:	e3530005 	cmp	r3, #5
    8c60:	979ff103 	ldrls	pc, [pc, r3, lsl #2]
    8c64:	ea000017 	b	8cc8 <gpio_set_function+0x90>
    8c68:	00008c80 	andeq	r8, r0, r0, lsl #25
    8c6c:	00008c8c 	andeq	r8, r0, ip, lsl #25
    8c70:	00008c98 	muleq	r0, r8, ip
    8c74:	00008ca4 	andeq	r8, r0, r4, lsr #25
    8c78:	00008cb0 			; <UNDEFINED> instruction: 0x00008cb0
    8c7c:	00008cbc 			; <UNDEFINED> instruction: 0x00008cbc
    8c80:	e59f3084 	ldr	r3, [pc, #132]	; 8d0c <gpio_set_function+0xd4>
    8c84:	e5936000 	ldr	r6, [r3]
    8c88:	ea00000f 	b	8ccc <gpio_set_function+0x94>
    8c8c:	e59f3078 	ldr	r3, [pc, #120]	; 8d0c <gpio_set_function+0xd4>
    8c90:	e5936004 	ldr	r6, [r3, #4]
    8c94:	ea00000c 	b	8ccc <gpio_set_function+0x94>
    8c98:	e59f306c 	ldr	r3, [pc, #108]	; 8d0c <gpio_set_function+0xd4>
    8c9c:	e5936008 	ldr	r6, [r3, #8]
    8ca0:	ea000009 	b	8ccc <gpio_set_function+0x94>
    8ca4:	e59f3060 	ldr	r3, [pc, #96]	; 8d0c <gpio_set_function+0xd4>
    8ca8:	e593600c 	ldr	r6, [r3, #12]
    8cac:	ea000006 	b	8ccc <gpio_set_function+0x94>
    8cb0:	e59f3054 	ldr	r3, [pc, #84]	; 8d0c <gpio_set_function+0xd4>
    8cb4:	e5936010 	ldr	r6, [r3, #16]
    8cb8:	ea000003 	b	8ccc <gpio_set_function+0x94>
    8cbc:	e59f3048 	ldr	r3, [pc, #72]	; 8d0c <gpio_set_function+0xd4>
    8cc0:	e5936014 	ldr	r6, [r3, #20]
    8cc4:	ea000000 	b	8ccc <gpio_set_function+0x94>
    8cc8:	e3a06000 	mov	r6, #0
    8ccc:	e1a00006 	mov	r0, r6
    8cd0:	eb0002a1 	bl	975c <get32>
    8cd4:	e59f302c 	ldr	r3, [pc, #44]	; 8d08 <gpio_set_function+0xd0>
    8cd8:	e0832493 	umull	r2, r3, r3, r4
    8cdc:	e1a031a3 	lsr	r3, r3, #3
    8ce0:	e0833103 	add	r3, r3, r3, lsl #2
    8ce4:	e1a03083 	lsl	r3, r3, #1
    8ce8:	e0633004 	rsb	r3, r3, r4
    8cec:	e0833083 	add	r3, r3, r3, lsl #1
    8cf0:	e3a01007 	mov	r1, #7
    8cf4:	e1c01311 	bic	r1, r0, r1, lsl r3
    8cf8:	e1a00006 	mov	r0, r6
    8cfc:	e1811315 	orr	r1, r1, r5, lsl r3
    8d00:	eb000289 	bl	972c <put32>
    8d04:	e8bd8070 	pop	{r4, r5, r6, pc}
    8d08:	cccccccd 	stclgt	12, cr12, [ip], {205}	; 0xcd
    8d0c:	000097fc 	strdeq	r9, [r0], -ip

00008d10 <gpio_toggle>:
    8d10:	e92d4008 	push	{r3, lr}
    8d14:	e350001f 	cmp	r0, #31
    8d18:	88bd8008 	pophi	{r3, pc}
    8d1c:	959f3020 	ldrls	r3, [pc, #32]	; 8d44 <gpio_toggle+0x34>
    8d20:	95932018 	ldrls	r2, [r3, #24]
    8d24:	859f3018 	ldrhi	r3, [pc, #24]	; 8d44 <gpio_toggle+0x34>
    8d28:	8593201c 	ldrhi	r2, [r3, #28]
    8d2c:	e200301f 	and	r3, r0, #31
    8d30:	e1a00002 	mov	r0, r2
    8d34:	e3a01001 	mov	r1, #1
    8d38:	e1a01311 	lsl	r1, r1, r3
    8d3c:	eb00027a 	bl	972c <put32>
    8d40:	e8bd8008 	pop	{r3, pc}
    8d44:	000097fc 	strdeq	r9, [r0], -ip

00008d48 <is_gpio_int>:
    8d48:	e92d4008 	push	{r3, lr}
    8d4c:	e59f301c 	ldr	r3, [pc, #28]	; 8d70 <is_gpio_int+0x28>
    8d50:	e5930030 	ldr	r0, [r3, #48]	; 0x30
    8d54:	eb000280 	bl	975c <get32>
    8d58:	e3500000 	cmp	r0, #0
    8d5c:	0a000001 	beq	8d68 <is_gpio_int+0x20>
    8d60:	e3a00001 	mov	r0, #1
    8d64:	e8bd8008 	pop	{r3, pc}
    8d68:	e3a00000 	mov	r0, #0
    8d6c:	e8bd8008 	pop	{r3, pc}
    8d70:	000097fc 	strdeq	r9, [r0], -ip

00008d74 <gpio_int_rising_edge>:
    8d74:	e92d4038 	push	{r3, r4, r5, lr}
    8d78:	e1a04000 	mov	r4, r0
    8d7c:	e350001f 	cmp	r0, #31
    8d80:	88bd8038 	pophi	{r3, r4, r5, pc}
    8d84:	eb000262 	bl	9714 <dev_barrier>
    8d88:	e354001f 	cmp	r4, #31
    8d8c:	8a000007 	bhi	8db0 <gpio_int_rising_edge+0x3c>
    8d90:	e59f505c 	ldr	r5, [pc, #92]	; 8df4 <gpio_int_rising_edge+0x80>
    8d94:	e5950034 	ldr	r0, [r5, #52]	; 0x34
    8d98:	eb00026f 	bl	975c <get32>
    8d9c:	e3a01001 	mov	r1, #1
    8da0:	e1801411 	orr	r1, r0, r1, lsl r4
    8da4:	e5950034 	ldr	r0, [r5, #52]	; 0x34
    8da8:	eb00025f 	bl	972c <put32>
    8dac:	ea000007 	b	8dd0 <gpio_int_rising_edge+0x5c>
    8db0:	e59f503c 	ldr	r5, [pc, #60]	; 8df4 <gpio_int_rising_edge+0x80>
    8db4:	e5950038 	ldr	r0, [r5, #56]	; 0x38
    8db8:	eb000267 	bl	975c <get32>
    8dbc:	e204401f 	and	r4, r4, #31
    8dc0:	e3a01001 	mov	r1, #1
    8dc4:	e1801411 	orr	r1, r0, r1, lsl r4
    8dc8:	e5950038 	ldr	r0, [r5, #56]	; 0x38
    8dcc:	eb000256 	bl	972c <put32>
    8dd0:	eb00024f 	bl	9714 <dev_barrier>
    8dd4:	e59f4018 	ldr	r4, [pc, #24]	; 8df4 <gpio_int_rising_edge+0x80>
    8dd8:	e594003c 	ldr	r0, [r4, #60]	; 0x3c
    8ddc:	eb00025e 	bl	975c <get32>
    8de0:	e3801802 	orr	r1, r0, #131072	; 0x20000
    8de4:	e594003c 	ldr	r0, [r4, #60]	; 0x3c
    8de8:	eb00024f 	bl	972c <put32>
    8dec:	eb000248 	bl	9714 <dev_barrier>
    8df0:	e8bd8038 	pop	{r3, r4, r5, pc}
    8df4:	000097fc 	strdeq	r9, [r0], -ip

00008df8 <gpio_int_falling_edge>:
    8df8:	e92d4038 	push	{r3, r4, r5, lr}
    8dfc:	e1a04000 	mov	r4, r0
    8e00:	e350001f 	cmp	r0, #31
    8e04:	88bd8038 	pophi	{r3, r4, r5, pc}
    8e08:	eb000241 	bl	9714 <dev_barrier>
    8e0c:	e354001f 	cmp	r4, #31
    8e10:	8a000007 	bhi	8e34 <gpio_int_falling_edge+0x3c>
    8e14:	e59f505c 	ldr	r5, [pc, #92]	; 8e78 <gpio_int_falling_edge+0x80>
    8e18:	e5950040 	ldr	r0, [r5, #64]	; 0x40
    8e1c:	eb00024e 	bl	975c <get32>
    8e20:	e3a01001 	mov	r1, #1
    8e24:	e1801411 	orr	r1, r0, r1, lsl r4
    8e28:	e5950040 	ldr	r0, [r5, #64]	; 0x40
    8e2c:	eb00023e 	bl	972c <put32>
    8e30:	ea000007 	b	8e54 <gpio_int_falling_edge+0x5c>
    8e34:	e59f503c 	ldr	r5, [pc, #60]	; 8e78 <gpio_int_falling_edge+0x80>
    8e38:	e5950044 	ldr	r0, [r5, #68]	; 0x44
    8e3c:	eb000246 	bl	975c <get32>
    8e40:	e204401f 	and	r4, r4, #31
    8e44:	e3a01001 	mov	r1, #1
    8e48:	e1801411 	orr	r1, r0, r1, lsl r4
    8e4c:	e5950044 	ldr	r0, [r5, #68]	; 0x44
    8e50:	eb000235 	bl	972c <put32>
    8e54:	eb00022e 	bl	9714 <dev_barrier>
    8e58:	e59f4018 	ldr	r4, [pc, #24]	; 8e78 <gpio_int_falling_edge+0x80>
    8e5c:	e594003c 	ldr	r0, [r4, #60]	; 0x3c
    8e60:	eb00023d 	bl	975c <get32>
    8e64:	e3801601 	orr	r1, r0, #1048576	; 0x100000
    8e68:	e594003c 	ldr	r0, [r4, #60]	; 0x3c
    8e6c:	eb00022e 	bl	972c <put32>
    8e70:	eb000227 	bl	9714 <dev_barrier>
    8e74:	e8bd8038 	pop	{r3, r4, r5, pc}
    8e78:	000097fc 	strdeq	r9, [r0], -ip

00008e7c <gpio_event_detected>:
    8e7c:	e92d4010 	push	{r4, lr}
    8e80:	e1a04000 	mov	r4, r0
    8e84:	e350001f 	cmp	r0, #31
    8e88:	8a000019 	bhi	8ef4 <gpio_event_detected+0x78>
    8e8c:	eb000220 	bl	9714 <dev_barrier>
    8e90:	e354001f 	cmp	r4, #31
    8e94:	8a000008 	bhi	8ebc <gpio_event_detected+0x40>
    8e98:	e59f305c 	ldr	r3, [pc, #92]	; 8efc <gpio_event_detected+0x80>
    8e9c:	e5930048 	ldr	r0, [r3, #72]	; 0x48
    8ea0:	eb00022d 	bl	975c <get32>
    8ea4:	e3a03001 	mov	r3, #1
    8ea8:	e0103413 	ands	r3, r0, r3, lsl r4
    8eac:	0a00000d 	beq	8ee8 <gpio_event_detected+0x6c>
    8eb0:	eb000217 	bl	9714 <dev_barrier>
    8eb4:	e3a00001 	mov	r0, #1
    8eb8:	e8bd8010 	pop	{r4, pc}
    8ebc:	e59f3038 	ldr	r3, [pc, #56]	; 8efc <gpio_event_detected+0x80>
    8ec0:	e593004c 	ldr	r0, [r3, #76]	; 0x4c
    8ec4:	eb000224 	bl	975c <get32>
    8ec8:	e3a03001 	mov	r3, #1
    8ecc:	e0004413 	and	r4, r0, r3, lsl r4
    8ed0:	eb00020f 	bl	9714 <dev_barrier>
    8ed4:	e3540000 	cmp	r4, #0
    8ed8:	0a000002 	beq	8ee8 <gpio_event_detected+0x6c>
    8edc:	eb00020c 	bl	9714 <dev_barrier>
    8ee0:	e3a00001 	mov	r0, #1
    8ee4:	e8bd8010 	pop	{r4, pc}
    8ee8:	eb000209 	bl	9714 <dev_barrier>
    8eec:	e3a00000 	mov	r0, #0
    8ef0:	e8bd8010 	pop	{r4, pc}
    8ef4:	e3e00000 	mvn	r0, #0
    8ef8:	e8bd8010 	pop	{r4, pc}
    8efc:	000097fc 	strdeq	r9, [r0], -ip

00008f00 <gpio_event_clear>:
    8f00:	e92d4010 	push	{r4, lr}
    8f04:	e1a04000 	mov	r4, r0
    8f08:	e350001f 	cmp	r0, #31
    8f0c:	88bd8010 	pophi	{r4, pc}
    8f10:	eb0001ff 	bl	9714 <dev_barrier>
    8f14:	e354001f 	cmp	r4, #31
    8f18:	8a000005 	bhi	8f34 <gpio_event_clear+0x34>
    8f1c:	e59f3030 	ldr	r3, [pc, #48]	; 8f54 <gpio_event_clear+0x54>
    8f20:	e5930048 	ldr	r0, [r3, #72]	; 0x48
    8f24:	e3a01001 	mov	r1, #1
    8f28:	e1a01411 	lsl	r1, r1, r4
    8f2c:	eb0001fe 	bl	972c <put32>
    8f30:	ea000005 	b	8f4c <gpio_event_clear+0x4c>
    8f34:	e204401f 	and	r4, r4, #31
    8f38:	e59f3014 	ldr	r3, [pc, #20]	; 8f54 <gpio_event_clear+0x54>
    8f3c:	e593004c 	ldr	r0, [r3, #76]	; 0x4c
    8f40:	e3a01001 	mov	r1, #1
    8f44:	e1a01411 	lsl	r1, r1, r4
    8f48:	eb0001f7 	bl	972c <put32>
    8f4c:	eb0001f0 	bl	9714 <dev_barrier>
    8f50:	e8bd8010 	pop	{r4, pc}
    8f54:	000097fc 	strdeq	r9, [r0], -ip

00008f58 <sw_uart_putc>:
    8f58:	e92d41f0 	push	{r4, r5, r6, r7, r8, lr}
    8f5c:	e1a07001 	mov	r7, r1
    8f60:	e5d06000 	ldrb	r6, [r0]
    8f64:	e5905008 	ldr	r5, [r0, #8]
    8f68:	ee1f4f3c 	mrc	15, 0, r4, cr15, cr12, {1}
    8f6c:	e1a00006 	mov	r0, r6
    8f70:	e3a01000 	mov	r1, #0
    8f74:	ebffff26 	bl	8c14 <gpio_write>
    8f78:	ee1f3f3c 	mrc	15, 0, r3, cr15, cr12, {1}
    8f7c:	e0643003 	rsb	r3, r4, r3
    8f80:	e1550003 	cmp	r5, r3
    8f84:	8afffffb 	bhi	8f78 <sw_uart_putc+0x20>
    8f88:	e1a08085 	lsl	r8, r5, #1
    8f8c:	e1a00006 	mov	r0, r6
    8f90:	e2071001 	and	r1, r7, #1
    8f94:	ebffff1e 	bl	8c14 <gpio_write>
    8f98:	ee1f3f3c 	mrc	15, 0, r3, cr15, cr12, {1}
    8f9c:	e0643003 	rsb	r3, r4, r3
    8fa0:	e1580003 	cmp	r8, r3
    8fa4:	8afffffb 	bhi	8f98 <sw_uart_putc+0x40>
    8fa8:	e0888005 	add	r8, r8, r5
    8fac:	e1a00006 	mov	r0, r6
    8fb0:	e2071002 	and	r1, r7, #2
    8fb4:	ebffff16 	bl	8c14 <gpio_write>
    8fb8:	ee1f3f3c 	mrc	15, 0, r3, cr15, cr12, {1}
    8fbc:	e0643003 	rsb	r3, r4, r3
    8fc0:	e1580003 	cmp	r8, r3
    8fc4:	8afffffb 	bhi	8fb8 <sw_uart_putc+0x60>
    8fc8:	e0888005 	add	r8, r8, r5
    8fcc:	e1a00006 	mov	r0, r6
    8fd0:	e2071004 	and	r1, r7, #4
    8fd4:	ebffff0e 	bl	8c14 <gpio_write>
    8fd8:	ee1f3f3c 	mrc	15, 0, r3, cr15, cr12, {1}
    8fdc:	e0643003 	rsb	r3, r4, r3
    8fe0:	e1580003 	cmp	r8, r3
    8fe4:	8afffffb 	bhi	8fd8 <sw_uart_putc+0x80>
    8fe8:	e0888005 	add	r8, r8, r5
    8fec:	e1a00006 	mov	r0, r6
    8ff0:	e2071008 	and	r1, r7, #8
    8ff4:	ebffff06 	bl	8c14 <gpio_write>
    8ff8:	ee1f3f3c 	mrc	15, 0, r3, cr15, cr12, {1}
    8ffc:	e0643003 	rsb	r3, r4, r3
    9000:	e1580003 	cmp	r8, r3
    9004:	8afffffb 	bhi	8ff8 <sw_uart_putc+0xa0>
    9008:	e0888005 	add	r8, r8, r5
    900c:	e1a00006 	mov	r0, r6
    9010:	e2071010 	and	r1, r7, #16
    9014:	ebfffefe 	bl	8c14 <gpio_write>
    9018:	ee1f3f3c 	mrc	15, 0, r3, cr15, cr12, {1}
    901c:	e0643003 	rsb	r3, r4, r3
    9020:	e1580003 	cmp	r8, r3
    9024:	8afffffb 	bhi	9018 <sw_uart_putc+0xc0>
    9028:	e0888005 	add	r8, r8, r5
    902c:	e1a00006 	mov	r0, r6
    9030:	e2071020 	and	r1, r7, #32
    9034:	ebfffef6 	bl	8c14 <gpio_write>
    9038:	ee1f3f3c 	mrc	15, 0, r3, cr15, cr12, {1}
    903c:	e0643003 	rsb	r3, r4, r3
    9040:	e1580003 	cmp	r8, r3
    9044:	8afffffb 	bhi	9038 <sw_uart_putc+0xe0>
    9048:	e0888005 	add	r8, r8, r5
    904c:	e1a00006 	mov	r0, r6
    9050:	e2071040 	and	r1, r7, #64	; 0x40
    9054:	ebfffeee 	bl	8c14 <gpio_write>
    9058:	ee1f3f3c 	mrc	15, 0, r3, cr15, cr12, {1}
    905c:	e0643003 	rsb	r3, r4, r3
    9060:	e1580003 	cmp	r8, r3
    9064:	8afffffb 	bhi	9058 <sw_uart_putc+0x100>
    9068:	e0888005 	add	r8, r8, r5
    906c:	e1a00006 	mov	r0, r6
    9070:	e2071080 	and	r1, r7, #128	; 0x80
    9074:	ebfffee6 	bl	8c14 <gpio_write>
    9078:	ee1f3f3c 	mrc	15, 0, r3, cr15, cr12, {1}
    907c:	e0643003 	rsb	r3, r4, r3
    9080:	e1580003 	cmp	r8, r3
    9084:	8afffffb 	bhi	9078 <sw_uart_putc+0x120>
    9088:	e0885005 	add	r5, r8, r5
    908c:	e1a00006 	mov	r0, r6
    9090:	e3a01001 	mov	r1, #1
    9094:	ebfffede 	bl	8c14 <gpio_write>
    9098:	ee1f3f3c 	mrc	15, 0, r3, cr15, cr12, {1}
    909c:	e0643003 	rsb	r3, r4, r3
    90a0:	e1550003 	cmp	r5, r3
    90a4:	8afffffb 	bhi	9098 <sw_uart_putc+0x140>
    90a8:	e8bd81f0 	pop	{r4, r5, r6, r7, r8, pc}

000090ac <sw_uart_getc_timeout>:
    90ac:	e92d43f8 	push	{r3, r4, r5, r6, r7, r8, r9, lr}
    90b0:	e1a09000 	mov	r9, r0
    90b4:	e5d07001 	ldrb	r7, [r0, #1]
    90b8:	e1a05007 	mov	r5, r7
    90bc:	e1a06001 	mov	r6, r1
    90c0:	ebfffe21 	bl	894c <timer_get_usec_raw>
    90c4:	e1a04000 	mov	r4, r0
    90c8:	e1a00005 	mov	r0, r5
    90cc:	ebfffebd 	bl	8bc8 <gpio_read>
    90d0:	e3500000 	cmp	r0, #0
    90d4:	0a000005 	beq	90f0 <sw_uart_getc_timeout+0x44>
    90d8:	ebfffe1b 	bl	894c <timer_get_usec_raw>
    90dc:	e0640000 	rsb	r0, r4, r0
    90e0:	e1560000 	cmp	r6, r0
    90e4:	2afffff7 	bcs	90c8 <sw_uart_getc_timeout+0x1c>
    90e8:	e3a03000 	mov	r3, #0
    90ec:	ea000000 	b	90f4 <sw_uart_getc_timeout+0x48>
    90f0:	e3a03001 	mov	r3, #1
    90f4:	e3530000 	cmp	r3, #0
    90f8:	0a000059 	beq	9264 <sw_uart_getc_timeout+0x1b8>
    90fc:	ee1f8f3c 	mrc	15, 0, r8, cr15, cr12, {1}
    9100:	e5994008 	ldr	r4, [r9, #8]
    9104:	e08420a4 	add	r2, r4, r4, lsr #1
    9108:	ee1f3f3c 	mrc	15, 0, r3, cr15, cr12, {1}
    910c:	e0683003 	rsb	r3, r8, r3
    9110:	e1520003 	cmp	r2, r3
    9114:	8afffffb 	bhi	9108 <sw_uart_getc_timeout+0x5c>
    9118:	e0888004 	add	r8, r8, r4
    911c:	e1a00007 	mov	r0, r7
    9120:	ebfffea8 	bl	8bc8 <gpio_read>
    9124:	e1a09750 	asr	r9, r0, r7
    9128:	ee1f3f3c 	mrc	15, 0, r3, cr15, cr12, {1}
    912c:	e0683003 	rsb	r3, r8, r3
    9130:	e1540003 	cmp	r4, r3
    9134:	8afffffb 	bhi	9128 <sw_uart_getc_timeout+0x7c>
    9138:	e0888004 	add	r8, r8, r4
    913c:	e1a00007 	mov	r0, r7
    9140:	ebfffea0 	bl	8bc8 <gpio_read>
    9144:	e1a00750 	asr	r0, r0, r7
    9148:	e1899080 	orr	r9, r9, r0, lsl #1
    914c:	ee1f3f3c 	mrc	15, 0, r3, cr15, cr12, {1}
    9150:	e0683003 	rsb	r3, r8, r3
    9154:	e1540003 	cmp	r4, r3
    9158:	8afffffb 	bhi	914c <sw_uart_getc_timeout+0xa0>
    915c:	e0888004 	add	r8, r8, r4
    9160:	e1a00007 	mov	r0, r7
    9164:	ebfffe97 	bl	8bc8 <gpio_read>
    9168:	e1a00750 	asr	r0, r0, r7
    916c:	e1899100 	orr	r9, r9, r0, lsl #2
    9170:	ee1f3f3c 	mrc	15, 0, r3, cr15, cr12, {1}
    9174:	e0683003 	rsb	r3, r8, r3
    9178:	e1540003 	cmp	r4, r3
    917c:	8afffffb 	bhi	9170 <sw_uart_getc_timeout+0xc4>
    9180:	e0888004 	add	r8, r8, r4
    9184:	e1a00007 	mov	r0, r7
    9188:	ebfffe8e 	bl	8bc8 <gpio_read>
    918c:	e1a00750 	asr	r0, r0, r7
    9190:	e1899180 	orr	r9, r9, r0, lsl #3
    9194:	ee1f3f3c 	mrc	15, 0, r3, cr15, cr12, {1}
    9198:	e0683003 	rsb	r3, r8, r3
    919c:	e1540003 	cmp	r4, r3
    91a0:	8afffffb 	bhi	9194 <sw_uart_getc_timeout+0xe8>
    91a4:	e0888004 	add	r8, r8, r4
    91a8:	e1a00007 	mov	r0, r7
    91ac:	ebfffe85 	bl	8bc8 <gpio_read>
    91b0:	e1a00750 	asr	r0, r0, r7
    91b4:	e1899200 	orr	r9, r9, r0, lsl #4
    91b8:	ee1f3f3c 	mrc	15, 0, r3, cr15, cr12, {1}
    91bc:	e0683003 	rsb	r3, r8, r3
    91c0:	e1540003 	cmp	r4, r3
    91c4:	8afffffb 	bhi	91b8 <sw_uart_getc_timeout+0x10c>
    91c8:	e0888004 	add	r8, r8, r4
    91cc:	e1a00007 	mov	r0, r7
    91d0:	ebfffe7c 	bl	8bc8 <gpio_read>
    91d4:	e1a00750 	asr	r0, r0, r7
    91d8:	e1899280 	orr	r9, r9, r0, lsl #5
    91dc:	ee1f3f3c 	mrc	15, 0, r3, cr15, cr12, {1}
    91e0:	e0683003 	rsb	r3, r8, r3
    91e4:	e1540003 	cmp	r4, r3
    91e8:	8afffffb 	bhi	91dc <sw_uart_getc_timeout+0x130>
    91ec:	e0888004 	add	r8, r8, r4
    91f0:	e1a00007 	mov	r0, r7
    91f4:	ebfffe73 	bl	8bc8 <gpio_read>
    91f8:	e1a00750 	asr	r0, r0, r7
    91fc:	e1899300 	orr	r9, r9, r0, lsl #6
    9200:	ee1f3f3c 	mrc	15, 0, r3, cr15, cr12, {1}
    9204:	e0683003 	rsb	r3, r8, r3
    9208:	e1540003 	cmp	r4, r3
    920c:	8afffffb 	bhi	9200 <sw_uart_getc_timeout+0x154>
    9210:	e1a00007 	mov	r0, r7
    9214:	ebfffe6b 	bl	8bc8 <gpio_read>
    9218:	e1a00750 	asr	r0, r0, r7
    921c:	e1899380 	orr	r9, r9, r0, lsl #7
    9220:	ebfffdc9 	bl	894c <timer_get_usec_raw>
    9224:	e1a04000 	mov	r4, r0
    9228:	e1a00005 	mov	r0, r5
    922c:	ebfffe65 	bl	8bc8 <gpio_read>
    9230:	e3500000 	cmp	r0, #0
    9234:	0a000005 	beq	9250 <sw_uart_getc_timeout+0x1a4>
    9238:	ebfffdc3 	bl	894c <timer_get_usec_raw>
    923c:	e0640000 	rsb	r0, r4, r0
    9240:	e1560000 	cmp	r6, r0
    9244:	2afffff7 	bcs	9228 <sw_uart_getc_timeout+0x17c>
    9248:	e3a03000 	mov	r3, #0
    924c:	ea000000 	b	9254 <sw_uart_getc_timeout+0x1a8>
    9250:	e3a03001 	mov	r3, #1
    9254:	e3530000 	cmp	r3, #0
    9258:	0a000003 	beq	926c <sw_uart_getc_timeout+0x1c0>
    925c:	e1a00009 	mov	r0, r9
    9260:	e8bd83f8 	pop	{r3, r4, r5, r6, r7, r8, r9, pc}
    9264:	e3e00000 	mvn	r0, #0
    9268:	e8bd83f8 	pop	{r3, r4, r5, r6, r7, r8, r9, pc}
    926c:	e3e00000 	mvn	r0, #0
    9270:	e8bd83f8 	pop	{r3, r4, r5, r6, r7, r8, r9, pc}

00009274 <sw_uart_gets_until>:
    9274:	e92d47f0 	push	{r4, r5, r6, r7, r8, r9, sl, lr}
    9278:	e24dd008 	sub	sp, sp, #8
    927c:	e1a08000 	mov	r8, r0
    9280:	e1a06001 	mov	r6, r1
    9284:	e1a09003 	mov	r9, r3
    9288:	e59da028 	ldr	sl, [sp, #40]	; 0x28
    928c:	e3520000 	cmp	r2, #0
    9290:	1a000008 	bne	92b8 <sw_uart_gets_until+0x44>
    9294:	ebfffbf2 	bl	8264 <rpi_reset_putc>
    9298:	e59f3068 	ldr	r3, [pc, #104]	; 9308 <sw_uart_gets_until+0x94>
    929c:	e58d3000 	str	r3, [sp]
    92a0:	e59f0064 	ldr	r0, [pc, #100]	; 930c <sw_uart_gets_until+0x98>
    92a4:	e59f1064 	ldr	r1, [pc, #100]	; 9310 <sw_uart_gets_until+0x9c>
    92a8:	e59f2064 	ldr	r2, [pc, #100]	; 9314 <sw_uart_gets_until+0xa0>
    92ac:	e3a0306d 	mov	r3, #109	; 0x6d
    92b0:	ebfffbd0 	bl	81f8 <printk>
    92b4:	ebfffd4a 	bl	87e4 <clean_reboot>
    92b8:	e3a04000 	mov	r4, #0
    92bc:	e5c14000 	strb	r4, [r1]
    92c0:	e2427001 	sub	r7, r2, #1
    92c4:	ea000007 	b	92e8 <sw_uart_gets_until+0x74>
    92c8:	e1a00008 	mov	r0, r8
    92cc:	e1a0100a 	mov	r1, sl
    92d0:	ebffff75 	bl	90ac <sw_uart_getc_timeout>
    92d4:	e6ef0070 	uxtb	r0, r0
    92d8:	e1500009 	cmp	r0, r9
    92dc:	0a000004 	beq	92f4 <sw_uart_gets_until+0x80>
    92e0:	e7c60005 	strb	r0, [r6, r5]
    92e4:	e2844001 	add	r4, r4, #1
    92e8:	e1a05004 	mov	r5, r4
    92ec:	e1540007 	cmp	r4, r7
    92f0:	3afffff4 	bcc	92c8 <sw_uart_gets_until+0x54>
    92f4:	e3a03000 	mov	r3, #0
    92f8:	e7c63005 	strb	r3, [r6, r5]
    92fc:	e1a00004 	mov	r0, r4
    9300:	e28dd008 	add	sp, sp, #8
    9304:	e8bd87f0 	pop	{r4, r5, r6, r7, r8, r9, sl, pc}
    9308:	00009b70 	andeq	r9, r0, r0, ror fp
    930c:	000099e4 	andeq	r9, r0, r4, ror #19
    9310:	00009b5c 	andeq	r9, r0, ip, asr fp
    9314:	00009ae4 	andeq	r9, r0, r4, ror #21

00009318 <sw_uart_gets_timeout>:
    9318:	e92d41f0 	push	{r4, r5, r6, r7, r8, lr}
    931c:	e24dd008 	sub	sp, sp, #8
    9320:	e1a07000 	mov	r7, r0
    9324:	e1a05001 	mov	r5, r1
    9328:	e1a08003 	mov	r8, r3
    932c:	e3520000 	cmp	r2, #0
    9330:	1a000008 	bne	9358 <sw_uart_gets_timeout+0x40>
    9334:	ebfffbca 	bl	8264 <rpi_reset_putc>
    9338:	e59f3058 	ldr	r3, [pc, #88]	; 9398 <sw_uart_gets_timeout+0x80>
    933c:	e58d3000 	str	r3, [sp]
    9340:	e59f0054 	ldr	r0, [pc, #84]	; 939c <sw_uart_gets_timeout+0x84>
    9344:	e59f1054 	ldr	r1, [pc, #84]	; 93a0 <sw_uart_gets_timeout+0x88>
    9348:	e59f2054 	ldr	r2, [pc, #84]	; 93a4 <sw_uart_gets_timeout+0x8c>
    934c:	e3a03083 	mov	r3, #131	; 0x83
    9350:	ebfffba8 	bl	81f8 <printk>
    9354:	ebfffd22 	bl	87e4 <clean_reboot>
    9358:	e3a04000 	mov	r4, #0
    935c:	e5c14000 	strb	r4, [r1]
    9360:	e2426001 	sub	r6, r2, #1
    9364:	ea000004 	b	937c <sw_uart_gets_timeout+0x64>
    9368:	e1a00007 	mov	r0, r7
    936c:	e1a01008 	mov	r1, r8
    9370:	ebffff4d 	bl	90ac <sw_uart_getc_timeout>
    9374:	e7c50004 	strb	r0, [r5, r4]
    9378:	e2844001 	add	r4, r4, #1
    937c:	e1540006 	cmp	r4, r6
    9380:	3afffff8 	bcc	9368 <sw_uart_gets_timeout+0x50>
    9384:	e3a03000 	mov	r3, #0
    9388:	e7c53004 	strb	r3, [r5, r4]
    938c:	e1a00004 	mov	r0, r4
    9390:	e28dd008 	add	sp, sp, #8
    9394:	e8bd81f0 	pop	{r4, r5, r6, r7, r8, pc}
    9398:	00009b70 	andeq	r9, r0, r0, ror fp
    939c:	000099e4 	andeq	r9, r0, r4, ror #19
    93a0:	00009b5c 	andeq	r9, r0, ip, asr fp
    93a4:	00009af8 	strdeq	r9, [r0], -r8

000093a8 <sw_uart_init_helper>:
    93a8:	e92d41f0 	push	{r4, r5, r6, r7, r8, lr}
    93ac:	e24dd008 	sub	sp, sp, #8
    93b0:	e1a04000 	mov	r4, r0
    93b4:	e1a06001 	mov	r6, r1
    93b8:	e1a08002 	mov	r8, r2
    93bc:	e1a05003 	mov	r5, r3
    93c0:	e59d7020 	ldr	r7, [sp, #32]
    93c4:	e1a00001 	mov	r0, r1
    93c8:	ebfffd7a 	bl	89b8 <gpio_set_output>
    93cc:	e1a00008 	mov	r0, r8
    93d0:	ebfffdc9 	bl	8afc <gpio_set_input>
    93d4:	e3a03001 	mov	r3, #1
    93d8:	ee0f3f1c 	mcr	15, 0, r3, cr15, cr12, {0}
    93dc:	e1a00006 	mov	r0, r6
    93e0:	e3a01001 	mov	r1, #1
    93e4:	ebfffe0a 	bl	8c14 <gpio_write>
    93e8:	e0020795 	mul	r2, r5, r7
    93ec:	e59f3074 	ldr	r3, [pc, #116]	; 9468 <sw_uart_init_helper+0xc0>
    93f0:	e0653003 	rsb	r3, r5, r3
    93f4:	e1530002 	cmp	r3, r2
    93f8:	8a000005 	bhi	9414 <sw_uart_init_helper+0x6c>
    93fc:	e59f3064 	ldr	r3, [pc, #100]	; 9468 <sw_uart_init_helper+0xc0>
    9400:	e0853003 	add	r3, r5, r3
    9404:	e1530002 	cmp	r3, r2
    9408:	2a000003 	bcs	941c <sw_uart_init_helper+0x74>
    940c:	e3a03000 	mov	r3, #0
    9410:	ea000002 	b	9420 <sw_uart_init_helper+0x78>
    9414:	e3a03000 	mov	r3, #0
    9418:	ea000000 	b	9420 <sw_uart_init_helper+0x78>
    941c:	e3a03001 	mov	r3, #1
    9420:	e3530000 	cmp	r3, #0
    9424:	1a000008 	bne	944c <sw_uart_init_helper+0xa4>
    9428:	ebfffb8d 	bl	8264 <rpi_reset_putc>
    942c:	e59f3038 	ldr	r3, [pc, #56]	; 946c <sw_uart_init_helper+0xc4>
    9430:	e58d3000 	str	r3, [sp]
    9434:	e59f0034 	ldr	r0, [pc, #52]	; 9470 <sw_uart_init_helper+0xc8>
    9438:	e59f1034 	ldr	r1, [pc, #52]	; 9474 <sw_uart_init_helper+0xcc>
    943c:	e59f2034 	ldr	r2, [pc, #52]	; 9478 <sw_uart_init_helper+0xd0>
    9440:	e3a0309d 	mov	r3, #157	; 0x9d
    9444:	ebfffb6b 	bl	81f8 <printk>
    9448:	ebfffce5 	bl	87e4 <clean_reboot>
    944c:	e5c46000 	strb	r6, [r4]
    9450:	e5c48001 	strb	r8, [r4, #1]
    9454:	e5845004 	str	r5, [r4, #4]
    9458:	e5847008 	str	r7, [r4, #8]
    945c:	e1a00004 	mov	r0, r4
    9460:	e28dd008 	add	sp, sp, #8
    9464:	e8bd81f0 	pop	{r4, r5, r6, r7, r8, pc}
    9468:	29b92700 	ldmibcs	r9!, {r8, r9, sl, sp}
    946c:	00009b7c 	andeq	r9, r0, ip, ror fp
    9470:	000099e4 	andeq	r9, r0, r4, ror #19
    9474:	00009b5c 	andeq	r9, r0, ip, asr fp
    9478:	00009b10 	andeq	r9, r0, r0, lsl fp

0000947c <sw_uart_getc>:
    947c:	e92d4008 	push	{r3, lr}
    9480:	e3e01000 	mvn	r1, #0
    9484:	ebffff08 	bl	90ac <sw_uart_getc_timeout>
    9488:	e3500000 	cmp	r0, #0
    948c:	a8bd8008 	popge	{r3, pc}
    9490:	ebfffb73 	bl	8264 <rpi_reset_putc>
    9494:	e59f0010 	ldr	r0, [pc, #16]	; 94ac <sw_uart_getc+0x30>
    9498:	e59f1010 	ldr	r1, [pc, #16]	; 94b0 <sw_uart_getc+0x34>
    949c:	e59f2010 	ldr	r2, [pc, #16]	; 94b4 <sw_uart_getc+0x38>
    94a0:	e3a030ac 	mov	r3, #172	; 0xac
    94a4:	ebfffb53 	bl	81f8 <printk>
    94a8:	ebfffccd 	bl	87e4 <clean_reboot>
    94ac:	00009bb0 			; <UNDEFINED> instruction: 0x00009bb0
    94b0:	00009b5c 	andeq	r9, r0, ip, asr fp
    94b4:	00009b24 	andeq	r9, r0, r4, lsr #22

000094b8 <sw_uart_putk>:
    94b8:	e92d4038 	push	{r3, r4, r5, lr}
    94bc:	e1a05000 	mov	r5, r0
    94c0:	e1a04001 	mov	r4, r1
    94c4:	ea000002 	b	94d4 <sw_uart_putk+0x1c>
    94c8:	e1a00005 	mov	r0, r5
    94cc:	ebfffea1 	bl	8f58 <sw_uart_putc>
    94d0:	e2844001 	add	r4, r4, #1
    94d4:	e5d41000 	ldrb	r1, [r4]
    94d8:	e3510000 	cmp	r1, #0
    94dc:	1afffff9 	bne	94c8 <sw_uart_putk+0x10>
    94e0:	e8bd8038 	pop	{r3, r4, r5, pc}

000094e4 <sw_uart_printk>:
    94e4:	e92d000e 	push	{r1, r2, r3}
    94e8:	e92d4030 	push	{r4, r5, lr}
    94ec:	e24ddf76 	sub	sp, sp, #472	; 0x1d8
    94f0:	e1a05000 	mov	r5, r0
    94f4:	e28d3f7a 	add	r3, sp, #488	; 0x1e8
    94f8:	e58d3008 	str	r3, [sp, #8]
    94fc:	e28d000c 	add	r0, sp, #12
    9500:	e3a01f73 	mov	r1, #460	; 0x1cc
    9504:	e59d21e4 	ldr	r2, [sp, #484]	; 0x1e4
    9508:	ebfffc10 	bl	8550 <va_printk>
    950c:	e1a04000 	mov	r4, r0
    9510:	e59f3048 	ldr	r3, [pc, #72]	; 9560 <sw_uart_printk+0x7c>
    9514:	e1500003 	cmp	r0, r3
    9518:	9a000008 	bls	9540 <sw_uart_printk+0x5c>
    951c:	ebfffb50 	bl	8264 <rpi_reset_putc>
    9520:	e59f303c 	ldr	r3, [pc, #60]	; 9564 <sw_uart_printk+0x80>
    9524:	e58d3000 	str	r3, [sp]
    9528:	e59f0038 	ldr	r0, [pc, #56]	; 9568 <sw_uart_printk+0x84>
    952c:	e59f1038 	ldr	r1, [pc, #56]	; 956c <sw_uart_printk+0x88>
    9530:	e59f2038 	ldr	r2, [pc, #56]	; 9570 <sw_uart_printk+0x8c>
    9534:	e3a030c0 	mov	r3, #192	; 0xc0
    9538:	ebfffb2e 	bl	81f8 <printk>
    953c:	ebfffca8 	bl	87e4 <clean_reboot>
    9540:	e1a00005 	mov	r0, r5
    9544:	e28d100c 	add	r1, sp, #12
    9548:	ebffffda 	bl	94b8 <sw_uart_putk>
    954c:	e1a00004 	mov	r0, r4
    9550:	e28ddf76 	add	sp, sp, #472	; 0x1d8
    9554:	e8bd4030 	pop	{r4, r5, lr}
    9558:	e28dd00c 	add	sp, sp, #12
    955c:	e12fff1e 	bx	lr
    9560:	000001ca 	andeq	r0, r0, sl, asr #3
    9564:	00009be8 	andeq	r9, r0, r8, ror #23
    9568:	000099e4 	andeq	r9, r0, r4, ror #19
    956c:	00009b5c 	andeq	r9, r0, ip, asr fp
    9570:	00009b34 	andeq	r9, r0, r4, lsr fp

00009574 <sw_uart_gets_until_blk>:
    9574:	e52de004 	push	{lr}		; (str lr, [sp, #-4]!)
    9578:	e24dd00c 	sub	sp, sp, #12
    957c:	e3e0c000 	mvn	ip, #0
    9580:	e58dc000 	str	ip, [sp]
    9584:	ebffff3a 	bl	9274 <sw_uart_gets_until>
    9588:	e3500000 	cmp	r0, #0
    958c:	aa000006 	bge	95ac <sw_uart_gets_until_blk+0x38>
    9590:	ebfffb33 	bl	8264 <rpi_reset_putc>
    9594:	e59f0018 	ldr	r0, [pc, #24]	; 95b4 <sw_uart_gets_until_blk+0x40>
    9598:	e59f1018 	ldr	r1, [pc, #24]	; 95b8 <sw_uart_gets_until_blk+0x44>
    959c:	e59f2018 	ldr	r2, [pc, #24]	; 95bc <sw_uart_gets_until_blk+0x48>
    95a0:	e3a030c8 	mov	r3, #200	; 0xc8
    95a4:	ebfffb13 	bl	81f8 <printk>
    95a8:	ebfffc8d 	bl	87e4 <clean_reboot>
    95ac:	e28dd00c 	add	sp, sp, #12
    95b0:	e49df004 	pop	{pc}		; (ldr pc, [sp], #4)
    95b4:	00009bb0 			; <UNDEFINED> instruction: 0x00009bb0
    95b8:	00009b5c 	andeq	r9, r0, ip, asr fp
    95bc:	00009b44 	andeq	r9, r0, r4, asr #22

000095c0 <uart_init>:
    95c0:	e92d4038 	push	{r3, r4, r5, lr}
    95c4:	eb000052 	bl	9714 <dev_barrier>
    95c8:	e3a0000e 	mov	r0, #14
    95cc:	e3a01002 	mov	r1, #2
    95d0:	ebfffd98 	bl	8c38 <gpio_set_function>
    95d4:	e3a0000f 	mov	r0, #15
    95d8:	e3a01002 	mov	r1, #2
    95dc:	ebfffd95 	bl	8c38 <gpio_set_function>
    95e0:	eb00004b 	bl	9714 <dev_barrier>
    95e4:	e59f4068 	ldr	r4, [pc, #104]	; 9654 <uart_init+0x94>
    95e8:	e5945000 	ldr	r5, [r4]
    95ec:	e1a00005 	mov	r0, r5
    95f0:	eb000059 	bl	975c <get32>
    95f4:	e3801001 	orr	r1, r0, #1
    95f8:	e1a00005 	mov	r0, r5
    95fc:	eb00004a 	bl	972c <put32>
    9600:	eb000043 	bl	9714 <dev_barrier>
    9604:	e5940004 	ldr	r0, [r4, #4]
    9608:	e3a01000 	mov	r1, #0
    960c:	eb000046 	bl	972c <put32>
    9610:	e5940008 	ldr	r0, [r4, #8]
    9614:	e3a01000 	mov	r1, #0
    9618:	eb000043 	bl	972c <put32>
    961c:	e594000c 	ldr	r0, [r4, #12]
    9620:	e3a01006 	mov	r1, #6
    9624:	eb000040 	bl	972c <put32>
    9628:	e5940010 	ldr	r0, [r4, #16]
    962c:	e3a01003 	mov	r1, #3
    9630:	eb00003d 	bl	972c <put32>
    9634:	e5940014 	ldr	r0, [r4, #20]
    9638:	e59f1018 	ldr	r1, [pc, #24]	; 9658 <uart_init+0x98>
    963c:	eb00003a 	bl	972c <put32>
    9640:	e5940004 	ldr	r0, [r4, #4]
    9644:	e3a01003 	mov	r1, #3
    9648:	eb000037 	bl	972c <put32>
    964c:	eb000030 	bl	9714 <dev_barrier>
    9650:	e8bd8038 	pop	{r3, r4, r5, pc}
    9654:	0000985c 	andeq	r9, r0, ip, asr r8
    9658:	0000010e 	andeq	r0, r0, lr, lsl #2

0000965c <uart_can_getc>:
    965c:	e92d4008 	push	{r3, lr}
    9660:	e59f300c 	ldr	r3, [pc, #12]	; 9674 <uart_can_getc+0x18>
    9664:	e5930018 	ldr	r0, [r3, #24]
    9668:	eb00003b 	bl	975c <get32>
    966c:	e2000001 	and	r0, r0, #1
    9670:	e8bd8008 	pop	{r3, pc}
    9674:	0000985c 	andeq	r9, r0, ip, asr r8

00009678 <uart_getc>:
    9678:	e92d4008 	push	{r3, lr}
    967c:	ebfffff6 	bl	965c <uart_can_getc>
    9680:	e3500000 	cmp	r0, #0
    9684:	0afffffc 	beq	967c <uart_getc+0x4>
    9688:	e59f300c 	ldr	r3, [pc, #12]	; 969c <uart_getc+0x24>
    968c:	e593001c 	ldr	r0, [r3, #28]
    9690:	eb000031 	bl	975c <get32>
    9694:	e6ef0070 	uxtb	r0, r0
    9698:	e8bd8008 	pop	{r3, pc}
    969c:	0000985c 	andeq	r9, r0, ip, asr r8

000096a0 <uart_can_putc>:
    96a0:	e92d4008 	push	{r3, lr}
    96a4:	e59f300c 	ldr	r3, [pc, #12]	; 96b8 <uart_can_putc+0x18>
    96a8:	e5930018 	ldr	r0, [r3, #24]
    96ac:	eb00002a 	bl	975c <get32>
    96b0:	e2000020 	and	r0, r0, #32
    96b4:	e8bd8008 	pop	{r3, pc}
    96b8:	0000985c 	andeq	r9, r0, ip, asr r8

000096bc <uart_putc>:
    96bc:	e92d4010 	push	{r4, lr}
    96c0:	e1a04000 	mov	r4, r0
    96c4:	ebfffff5 	bl	96a0 <uart_can_putc>
    96c8:	e3500000 	cmp	r0, #0
    96cc:	0afffffc 	beq	96c4 <uart_putc+0x8>
    96d0:	e59f300c 	ldr	r3, [pc, #12]	; 96e4 <uart_putc+0x28>
    96d4:	e593001c 	ldr	r0, [r3, #28]
    96d8:	e1a01004 	mov	r1, r4
    96dc:	eb000012 	bl	972c <put32>
    96e0:	e8bd8010 	pop	{r4, pc}
    96e4:	0000985c 	andeq	r9, r0, ip, asr r8

000096e8 <uart_has_data>:
    96e8:	e92d4008 	push	{r3, lr}
    96ec:	ebffffda 	bl	965c <uart_can_getc>
    96f0:	e8bd8008 	pop	{r3, pc}

000096f4 <uart_getc_async>:
    96f4:	e92d4008 	push	{r3, lr}
    96f8:	ebfffffa 	bl	96e8 <uart_has_data>
    96fc:	e3500000 	cmp	r0, #0
    9700:	0a000001 	beq	970c <uart_getc_async+0x18>
    9704:	ebffffdb 	bl	9678 <uart_getc>
    9708:	e8bd8008 	pop	{r3, pc}
    970c:	e3e00000 	mvn	r0, #0
    9710:	e8bd8008 	pop	{r3, pc}

00009714 <dev_barrier>:
    9714:	ea000002 	b	9724 <dsb>

00009718 <dmb>:
    9718:	e3a00000 	mov	r0, #0
    971c:	ee070fba 	mcr	15, 0, r0, cr7, cr10, {5}
    9720:	e12fff1e 	bx	lr

00009724 <dsb>:
    9724:	ee070f9a 	mcr	15, 0, r0, cr7, cr10, {4}
    9728:	e12fff1e 	bx	lr

0000972c <put32>:
    972c:	e5801000 	str	r1, [r0]
    9730:	e12fff1e 	bx	lr

00009734 <PUT32>:
    9734:	e5801000 	str	r1, [r0]
    9738:	e12fff1e 	bx	lr

0000973c <put16>:
    973c:	e1c010b0 	strh	r1, [r0]
    9740:	e12fff1e 	bx	lr

00009744 <PUT16>:
    9744:	e1c010b0 	strh	r1, [r0]
    9748:	e12fff1e 	bx	lr

0000974c <put8>:
    974c:	e5c01000 	strb	r1, [r0]
    9750:	e12fff1e 	bx	lr

00009754 <PUT8>:
    9754:	e5c01000 	strb	r1, [r0]
    9758:	e12fff1e 	bx	lr

0000975c <get32>:
    975c:	e5900000 	ldr	r0, [r0]
    9760:	e12fff1e 	bx	lr

00009764 <GET32>:
    9764:	e5900000 	ldr	r0, [r0]
    9768:	e12fff1e 	bx	lr

0000976c <GETPC>:
    976c:	e1a0000e 	mov	r0, lr
    9770:	e12fff1e 	bx	lr

00009774 <dummy>:
    9774:	e12fff1e 	bx	lr

00009778 <cb_new>:
    9778:	e92d4008 	push	{r3, lr}
    977c:	e3a00409 	mov	r0, #150994944	; 0x9000000
    9780:	e3a01000 	mov	r1, #0
    9784:	e3a02004 	mov	r2, #4
    9788:	eb00000e 	bl	97c8 <memset>
    978c:	e3a00409 	mov	r0, #150994944	; 0x9000000
    9790:	e59f3004 	ldr	r3, [pc, #4]	; 979c <cb_new+0x24>
    9794:	e5803000 	str	r3, [r0]
    9798:	e8bd8008 	pop	{r3, pc}
    979c:	12345678 	eorsne	r5, r4, #120, 12	; 0x7800000

000097a0 <cb_get_block>:
    97a0:	e3a03409 	mov	r3, #150994944	; 0x9000000
    97a4:	e5932000 	ldr	r2, [r3]
    97a8:	e59f3014 	ldr	r3, [pc, #20]	; 97c4 <cb_get_block+0x24>
    97ac:	e1520003 	cmp	r2, r3
    97b0:	0a000001 	beq	97bc <cb_get_block+0x1c>
    97b4:	e3a00000 	mov	r0, #0
    97b8:	e12fff1e 	bx	lr
    97bc:	e3a00409 	mov	r0, #150994944	; 0x9000000
    97c0:	e12fff1e 	bx	lr
    97c4:	12345678 	eorsne	r5, r4, #120, 12	; 0x7800000

000097c8 <memset>:
    97c8:	e0802002 	add	r2, r0, r2
    97cc:	e1a03000 	mov	r3, r0
    97d0:	ea000001 	b	97dc <memset+0x14>
    97d4:	e5c31000 	strb	r1, [r3]
    97d8:	e2833001 	add	r3, r3, #1
    97dc:	e1530002 	cmp	r3, r2
    97e0:	3afffffb 	bcc	97d4 <memset+0xc>
    97e4:	e12fff1e 	bx	lr

Disassembly of section .data:

000097e8 <GPPUD>:
    97e8:	20200094 	mlacs	r0, r4, r0, r0

000097ec <GPPUDCLK0>:
    97ec:	20200098 	mlacs	r0, r8, r0, r0

000097f0 <GPPUDCLK1>:
    97f0:	2020009c 	mlacs	r0, ip, r0, r0

000097f4 <rpi_putchar>:
    97f4:	00008250 	andeq	r8, r0, r0, asr r2

000097f8 <putk>:
    97f8:	0000828c 	andeq	r8, r0, ip, lsl #5

000097fc <GPFSEL0>:
    97fc:	20200000 	eorcs	r0, r0, r0

00009800 <GPFSEL1>:
    9800:	20200004 	eorcs	r0, r0, r4

00009804 <GPFSEL2>:
    9804:	20200008 	eorcs	r0, r0, r8

00009808 <GPFSEL3>:
    9808:	2020000c 	eorcs	r0, r0, ip

0000980c <GPFSEL4>:
    980c:	20200010 	eorcs	r0, r0, r0, lsl r0

00009810 <GPFSEL5>:
    9810:	20200014 	eorcs	r0, r0, r4, lsl r0

00009814 <GPSET0>:
    9814:	2020001c 	eorcs	r0, r0, ip, lsl r0

00009818 <GPSET1>:
    9818:	20200020 	eorcs	r0, r0, r0, lsr #32

0000981c <GPCLR0>:
    981c:	20200028 	eorcs	r0, r0, r8, lsr #32

00009820 <GPCLR1>:
    9820:	2020002c 	eorcs	r0, r0, ip, lsr #32

00009824 <GPLEV0>:
    9824:	20200034 	eorcs	r0, r0, r4, lsr r0

00009828 <GPLEV1>:
    9828:	20200038 	eorcs	r0, r0, r8, lsr r0

0000982c <IRQ_PENDING_2>:
    982c:	2000b208 	andcs	fp, r0, r8, lsl #4

00009830 <GPREN0>:
    9830:	2020004c 	eorcs	r0, r0, ip, asr #32

00009834 <GPREN1>:
    9834:	20200050 	eorcs	r0, r0, r0, asr r0

00009838 <ENABLE_IRQS_2>:
    9838:	2000b214 	andcs	fp, r0, r4, lsl r2

0000983c <GPFEN0>:
    983c:	20200058 	eorcs	r0, r0, r8, asr r0

00009840 <GPFEN1>:
    9840:	2020005c 	eorcs	r0, r0, ip, asr r0

00009844 <GPEDS0>:
    9844:	20200040 	eorcs	r0, r0, r0, asr #32

00009848 <GPEDS1>:
    9848:	20200044 	eorcs	r0, r0, r4, asr #32

0000984c <IRQ_PENDING_1>:
    984c:	2000b204 	andcs	fp, r0, r4, lsl #4

00009850 <gpio_clr0>:
    9850:	20200028 	eorcs	r0, r0, r8, lsr #32

00009854 <gpio_set0>:
    9854:	2020001c 	eorcs	r0, r0, ip, lsl r0

00009858 <gpio_fsel0>:
    9858:	20200000 	eorcs	r0, r0, r0

0000985c <AUX_ENABLES>:
    985c:	20215004 	eorcs	r5, r1, r4

00009860 <AUX_MU_CNTL_REG>:
    9860:	20215060 	eorcs	r5, r1, r0, rrx

00009864 <AUX_MU_IER_REG>:
    9864:	20215044 	eorcs	r5, r1, r4, asr #32

00009868 <AUX_MU_IIR_REG>:
    9868:	20215048 	eorcs	r5, r1, r8, asr #32

0000986c <AUX_MU_LCR_REG>:
    986c:	2021504c 	eorcs	r5, r1, ip, asr #32

00009870 <AUX_MU_BAUD_REG>:
    9870:	20215068 	eorcs	r5, r1, r8, rrx

00009874 <AUX_MU_LSR_REG>:
    9874:	20215054 	eorcs	r5, r1, r4, asr r0

00009878 <AUX_MU_IO_REG>:
    9878:	20215040 	eorcs	r5, r1, r0, asr #32

0000987c <AUX_MU_STAT_REG>:
    987c:	20215064 	eorcs	r5, r1, r4, rrx

00009880 <AUX_MU_SCRATCH>:
    9880:	2021505c 	eorcs	r5, r1, ip, asr r0

00009884 <AUX_MU_MSR_REG>:
    9884:	20215058 	eorcs	r5, r1, r8, asr r0

00009888 <AUX_MU_MCR_REG>:
    9888:	20215050 	eorcs	r5, r1, r0, asr r0

0000988c <AUX_IRQ>:
    988c:	20215000 	eorcs	r5, r1, r0

Disassembly of section .rodata:

00009890 <__FUNCTION__.4279-0xe8>:
    9890:	6c6c7570 	cfstr64vs	mvdx7, [ip], #-448	; 0xfffffe40
    9894:	253d7075 	ldrcs	r7, [sp, #-117]!	; 0x75
    9898:	74202c64 	strtvc	r2, [r0], #-3172	; 0xc64
    989c:	20736968 	rsbscs	r6, r3, r8, ror #18
    98a0:	73207369 	teqvc	r0, #-1543503871	; 0xa4000001
    98a4:	6b636974 	blvs	18e3e7c <__bss_end__+0x18d9e74>
    98a8:	74203a79 	strtvc	r3, [r0], #-2681	; 0xa79
    98ac:	6863756f 	stmdavs	r3!, {r0, r1, r2, r3, r5, r6, r8, sl, ip, sp, lr}^
    98b0:	64657220 	strbtvs	r7, [r5], #-544	; 0x220
    98b4:	61656c20 	cmnvs	r5, r0, lsr #24
    98b8:	6f742064 	svcvs	0x00742064
    98bc:	69687420 	stmdbvs	r8!, {r5, sl, ip, sp, lr}^
    98c0:	69702073 	ldmdbvs	r0!, {r0, r1, r4, r5, r6, sp}^
    98c4:	6e61206e 	cdpvs	0, 6, cr2, cr1, cr14, {3}
    98c8:	6c622064 	stclvs	0, cr2, [r2], #-400	; 0xfffffe70
    98cc:	206b6361 	rsbcs	r6, fp, r1, ror #6
    98d0:	67206f74 			; <UNDEFINED> instruction: 0x67206f74
    98d4:	6e756f72 	mrcvs	15, 3, r6, cr5, cr2, {3}
    98d8:	73203a64 	teqvc	r0, #100, 20	; 0x64000
    98dc:	6c756f68 	ldclvs	15, cr6, [r5], #-416	; 0xfffffe60
    98e0:	65732064 	ldrbvs	r2, [r3, #-100]!	; 0x64
    98e4:	20612065 	rsbcs	r2, r1, r5, rrx
    98e8:	2056337e 	subscs	r3, r6, lr, ror r3
    98ec:	64616572 	strbtvs	r6, [r1], #-1394	; 0x572
    98f0:	20676e69 	rsbcs	r6, r7, r9, ror #28
    98f4:	6d206e6f 	stcvs	14, cr6, [r0, #-444]!	; 0xfffffe44
    98f8:	69746c75 	ldmdbvs	r4!, {r0, r2, r4, r5, r6, sl, fp, sp, lr}^
    98fc:	6574656d 	ldrbvs	r6, [r4, #-1389]!	; 0x56d
    9900:	00000a72 	andeq	r0, r0, r2, ror sl
    9904:	6c6c7570 	cfstr64vs	mvdx7, [ip], #-448	; 0xfffffe40
    9908:	6e776f64 	cdpvs	15, 7, cr6, cr7, cr4, {3}
    990c:	2c64253d 	cfstr64cs	mvdx2, [r4], #-244	; 0xffffff0c
    9910:	69687420 	stmdbvs	r8!, {r5, sl, ip, sp, lr}^
    9914:	73692073 	cmnvc	r9, #115	; 0x73
    9918:	69747320 	ldmdbvs	r4!, {r5, r8, r9, ip, sp, lr}^
    991c:	3a796b63 	bcc	1e646b0 <__bss_end__+0x1e5a6a8>
    9920:	756f7420 	strbvc	r7, [pc, #-1056]!	; 9508 <sw_uart_printk+0x24>
    9924:	62206863 	eorvs	r6, r0, #6488064	; 0x630000
    9928:	6b63616c 	blvs	18e1ee0 <__bss_end__+0x18d7ed8>
    992c:	61656c20 	cmnvs	r5, r0, lsr #24
    9930:	6f742064 	svcvs	0x00742064
    9934:	69687420 	stmdbvs	r8!, {r5, sl, ip, sp, lr}^
    9938:	69702073 	ldmdbvs	r0!, {r0, r1, r4, r5, r6, sp}^
    993c:	61202c6e 	teqvs	r0, lr, ror #24
    9940:	7220646e 	eorvc	r6, r0, #1845493760	; 0x6e000000
    9944:	74206465 	strtvc	r6, [r0], #-1125	; 0x465
    9948:	7633206f 	ldrtvc	r2, [r3], -pc, rrx
    994c:	6873203a 	ldmdavs	r3!, {r1, r3, r4, r5, sp}^
    9950:	646c756f 	strbtvs	r7, [ip], #-1391	; 0x56f
    9954:	65657320 	strbvs	r7, [r5, #-800]!	; 0x320
    9958:	7e206120 	sufvcsp	f6, f0, f0
    995c:	72205633 	eorvc	r5, r0, #53477376	; 0x3300000
    9960:	69646165 	stmdbvs	r4!, {r0, r2, r5, r6, r8, sp, lr}^
    9964:	6f20676e 	svcvs	0x0020676e
    9968:	756d206e 	strbvc	r2, [sp, #-110]!	; 0x6e
    996c:	6d69746c 	cfstrdvs	mvd7, [r9, #-432]!	; 0xfffffe50
    9970:	72657465 	rsbvc	r7, r5, #1694498816	; 0x65000000
    9974:	0000000a 	andeq	r0, r0, sl

00009978 <__FUNCTION__.4279>:
    9978:	6f697067 	svcvs	0x00697067
    997c:	6475705f 	ldrbtvs	r7, [r5], #-95	; 0x5f
    9980:	66666f5f 	uqsaxvs	r6, r6, pc	; <UNPREDICTABLE>
    9984:	00000000 	andeq	r0, r0, r0
    9988:	494e4150 	stmdbmi	lr, {r4, r6, r8, lr}^
    998c:	73253a43 	teqvc	r5, #274432	; 0x43000
    9990:	3a73253a 	bcc	1cd2e80 <__bss_end__+0x1cc8e78>
    9994:	693a6425 	ldmdbvs	sl!, {r0, r2, r5, sl, sp, lr}
    9998:	656c706d 	strbvs	r7, [ip, #-109]!	; 0x6d
    999c:	746e656d 	strbtvc	r6, [lr], #-1389	; 0x56d
    99a0:	69687420 	stmdbvs	r8!, {r5, sl, ip, sp, lr}^
    99a4:	75662073 	strbvc	r2, [r6, #-115]!	; 0x73
    99a8:	6974636e 	ldmdbvs	r4!, {r1, r2, r3, r5, r6, r8, r9, sp, lr}^
    99ac:	0a216e6f 	beq	865370 <__bss_end__+0x85b368>
    99b0:	0000000a 	andeq	r0, r0, sl
    99b4:	6f697067 	svcvs	0x00697067
    99b8:	6475702d 	ldrbtvs	r7, [r5], #-45	; 0x2d
    99bc:	0000632e 	andeq	r6, r0, lr, lsr #6

000099c0 <__FUNCTION__.4265>:
    99c0:	74696d65 	strbtvc	r6, [r9], #-3429	; 0xd65
    99c4:	00000000 	andeq	r0, r0, r0

000099c8 <__FUNCTION__.4213>:
    99c8:	5f697072 	svcpl	0x00697072
    99cc:	5f746573 	svcpl	0x00746573
    99d0:	7074756f 	rsbsvc	r7, r4, pc, ror #10
    99d4:	00007475 	andeq	r7, r0, r5, ror r4

000099d8 <__FUNCTION__.4287>:
    99d8:	705f6176 	subsvc	r6, pc, r6, ror r1	; <UNPREDICTABLE>
    99dc:	746e6972 	strbtvc	r6, [lr], #-2418	; 0x972
    99e0:	0000006b 	andeq	r0, r0, fp, rrx
    99e4:	494e4150 	stmdbmi	lr, {r4, r6, r8, lr}^
    99e8:	73253a43 	teqvc	r5, #274432	; 0x43000
    99ec:	3a73253a 	bcc	1cd2edc <__bss_end__+0x1cc8ed4>
    99f0:	253a6425 	ldrcs	r6, [sl, #-1061]!	; 0x425
    99f4:	00000a73 	andeq	r0, r0, r3, ror sl
    99f8:	6362696c 	cmnvs	r2, #108, 18	; 0x1b0000
    99fc:	2d61762f 	stclcs	6, cr7, [r1, #-188]!	; 0xffffff44
    9a00:	6e697270 	mcrvs	2, 3, r7, cr9, cr0, {3}
    9a04:	632e6b74 	teqvs	lr, #116, 22	; 0x1d000
    9a08:	00000000 	andeq	r0, r0, r0
    9a0c:	00000030 	andeq	r0, r0, r0, lsr r0
    9a10:	33323130 	teqcc	r2, #48, 2
    9a14:	37363534 			; <UNDEFINED> instruction: 0x37363534
    9a18:	00003938 	andeq	r3, r0, r8, lsr r9
    9a1c:	33323130 	teqcc	r2, #48, 2
    9a20:	37363534 			; <UNDEFINED> instruction: 0x37363534
    9a24:	62613938 	rsbvs	r3, r1, #56, 18	; 0xe0000
    9a28:	66656463 	strbtvs	r6, [r5], -r3, ror #8
    9a2c:	00000000 	andeq	r0, r0, r0
    9a30:	00003130 	andeq	r3, r0, r0, lsr r1
    9a34:	63747570 	cmnvs	r4, #112, 10	; 0x1c000000
    9a38:	0070665f 	rsbseq	r6, r0, pc, asr r6
    9a3c:	74646977 	strbtvc	r6, [r4], #-2423	; 0x977
    9a40:	203c2068 	eorscs	r2, ip, r8, rrx
    9a44:	00003233 	andeq	r3, r0, r3, lsr r2
    9a48:	494e4150 	stmdbmi	lr, {r4, r6, r8, lr}^
    9a4c:	73253a43 	teqvc	r5, #274432	; 0x43000
    9a50:	3a73253a 	bcc	1cd2f40 <__bss_end__+0x1cc8f38>
    9a54:	663a6425 	ldrtvs	r6, [sl], -r5, lsr #8
    9a58:	74616f6c 	strbtvc	r6, [r1], #-3948	; 0xf6c
    9a5c:	746f6e20 	strbtvc	r6, [pc], #-3616	; 9a64 <__FUNCTION__.4287+0x8c>
    9a60:	616e6520 	cmnvs	lr, r0, lsr #10
    9a64:	64656c62 	strbtvs	r6, [r5], #-3170	; 0xc62
    9a68:	0a212121 	beq	851ef4 <__bss_end__+0x847eec>
    9a6c:	00000000 	andeq	r0, r0, r0
    9a70:	494e4150 	stmdbmi	lr, {r4, r6, r8, lr}^
    9a74:	73253a43 	teqvc	r5, #274432	; 0x43000
    9a78:	3a73253a 	bcc	1cd2f68 <__bss_end__+0x1cc8f60>
    9a7c:	703a6425 	eorsvc	r6, sl, r5, lsr #8
    9a80:	746e6972 	strbtvc	r6, [lr], #-2418	; 0x972
    9a84:	6e203a6b 	vnmulvs.f32	s6, s0, s23
    9a88:	6820746f 	stmdavs	r0!, {r0, r1, r2, r3, r5, r6, sl, ip, sp, lr}
    9a8c:	6c646e61 	stclvs	14, cr6, [r4], #-388	; 0xfffffe7c
    9a90:	20676e69 	rsbcs	r6, r7, r9, ror #28
    9a94:	63657073 	cmnvs	r5, #115	; 0x73
    9a98:	65696669 	strbvs	r6, [r9, #-1641]!	; 0x669
    9a9c:	25272072 	strcs	r2, [r7, #-114]!	; 0x72
    9aa0:	0a0a2763 	beq	293834 <__bss_end__+0x28982c>
    9aa4:	00000000 	andeq	r0, r0, r0
    9aa8:	454e4f44 	strbmi	r4, [lr, #-3908]	; 0xf44
    9aac:	0a212121 	beq	851f38 <__bss_end__+0x847f30>
    9ab0:	00000000 	andeq	r0, r0, r0
    9ab4:	756f6261 	strbvc	r6, [pc, #-609]!	; 985b <gpio_fsel0+0x3>
    9ab8:	6f742074 	svcvs	0x00742074
    9abc:	69727020 	ldmdbvs	r2!, {r5, ip, sp, lr}^
    9ac0:	6f20746e 	svcvs	0x0020746e
    9ac4:	6572206e 	ldrbvs	r2, [r2, #-110]!	; 0x6e
    9ac8:	616c7567 	cmnvs	ip, r7, ror #10
    9acc:	72702072 	rsbsvc	r2, r0, #114	; 0x72
    9ad0:	66746e69 	ldrbtvs	r6, [r4], -r9, ror #28
    9ad4:	0000000a 	andeq	r0, r0, sl
    9ad8:	63637573 	cmnvs	r3, #482344960	; 0x1cc00000
    9adc:	21737365 	cmncs	r3, r5, ror #6
    9ae0:	0000000a 	andeq	r0, r0, sl

00009ae4 <__FUNCTION__.4314>:
    9ae4:	755f7773 	ldrbvc	r7, [pc, #-1907]	; 9379 <sw_uart_gets_timeout+0x61>
    9ae8:	5f747261 	svcpl	0x00747261
    9aec:	73746567 	cmnvc	r4, #432013312	; 0x19c00000
    9af0:	746e755f 	strbtvc	r7, [lr], #-1375	; 0x55f
    9af4:	00006c69 	andeq	r6, r0, r9, ror #24

00009af8 <__FUNCTION__.4326>:
    9af8:	755f7773 	ldrbvc	r7, [pc, #-1907]	; 938d <sw_uart_gets_timeout+0x75>
    9afc:	5f747261 	svcpl	0x00747261
    9b00:	73746567 	cmnvc	r4, #432013312	; 0x19c00000
    9b04:	6d69745f 	cfstrdvs	mvd7, [r9, #-380]!	; 0xfffffe84
    9b08:	74756f65 	ldrbtvc	r6, [r5], #-3941	; 0xf65
    9b0c:	00000000 	andeq	r0, r0, r0

00009b10 <__FUNCTION__.4340>:
    9b10:	755f7773 	ldrbvc	r7, [pc, #-1907]	; 93a5 <sw_uart_gets_timeout+0x8d>
    9b14:	5f747261 	svcpl	0x00747261
    9b18:	74696e69 	strbtvc	r6, [r9], #-3689	; 0xe69
    9b1c:	6c65685f 	stclvs	8, cr6, [r5], #-380	; 0xfffffe84
    9b20:	00726570 	rsbseq	r6, r2, r0, ror r5

00009b24 <__FUNCTION__.4346>:
    9b24:	755f7773 	ldrbvc	r7, [pc, #-1907]	; 93b9 <sw_uart_init_helper+0x11>
    9b28:	5f747261 	svcpl	0x00747261
    9b2c:	63746567 	cmnvs	r4, #432013312	; 0x19c00000
    9b30:	00000000 	andeq	r0, r0, r0

00009b34 <__FUNCTION__.4368>:
    9b34:	755f7773 	ldrbvc	r7, [pc, #-1907]	; 93c9 <sw_uart_init_helper+0x21>
    9b38:	5f747261 	svcpl	0x00747261
    9b3c:	6e697270 	mcrvs	2, 3, r7, cr9, cr0, {3}
    9b40:	00006b74 	andeq	r6, r0, r4, ror fp

00009b44 <__FUNCTION__.4376>:
    9b44:	755f7773 	ldrbvc	r7, [pc, #-1907]	; 93d9 <sw_uart_init_helper+0x31>
    9b48:	5f747261 	svcpl	0x00747261
    9b4c:	73746567 	cmnvc	r4, #432013312	; 0x19c00000
    9b50:	746e755f 	strbtvc	r7, [lr], #-1375	; 0x55f
    9b54:	625f6c69 	subsvs	r6, pc, #26880	; 0x6900
    9b58:	00006b6c 	andeq	r6, r0, ip, ror #22
    9b5c:	732d796d 	teqvc	sp, #1785856	; 0x1b4000
    9b60:	732f6372 	teqvc	pc, #-939524095	; 0xc8000001
    9b64:	61752d77 	cmnvs	r5, r7, ror sp
    9b68:	632e7472 	teqvs	lr, #1912602624	; 0x72000000
    9b6c:	00000000 	andeq	r0, r0, r0
    9b70:	7479626e 	ldrbtvc	r6, [r9], #-622	; 0x26e
    9b74:	303e7365 	eorscc	r7, lr, r5, ror #6
    9b78:	00000000 	andeq	r0, r0, r0
    9b7c:	7a686d28 	bvc	1a25024 <__bss_end__+0x1a1b01c>
    9b80:	62202d20 	eorvs	r2, r0, #32, 26	; 0x800
    9b84:	29647561 	stmdbcs	r4!, {r0, r5, r6, r8, sl, ip, sp, lr}^
    9b88:	203d3c20 	eorscs	r3, sp, r0, lsr #24
    9b8c:	69726564 	ldmdbvs	r2!, {r2, r5, r6, r8, sl, sp, lr}^
    9b90:	20646576 	rsbcs	r6, r4, r6, ror r5
    9b94:	64202626 	strtvs	r2, [r0], #-1574	; 0x626
    9b98:	76697265 	strbtvc	r7, [r9], -r5, ror #4
    9b9c:	3c206465 	cfstrscc	mvf6, [r0], #-404	; 0xfffffe6c
    9ba0:	6d28203d 	stcvs	0, cr2, [r8, #-244]!	; 0xffffff0c
    9ba4:	2b207a68 	blcs	82854c <__bss_end__+0x81e544>
    9ba8:	75616220 	strbvc	r6, [r1, #-544]!	; 0x220
    9bac:	00002964 	andeq	r2, r0, r4, ror #18
    9bb0:	494e4150 	stmdbmi	lr, {r4, r6, r8, lr}^
    9bb4:	73253a43 	teqvc	r5, #274432	; 0x43000
    9bb8:	3a73253a 	bcc	1cd30a8 <__bss_end__+0x1cc90a0>
    9bbc:	693a6425 	ldmdbvs	sl!, {r0, r2, r5, sl, sp, lr}
    9bc0:	736f706d 	cmnvc	pc, #109	; 0x6d
    9bc4:	6c626973 	stclvs	9, cr6, [r2], #-460	; 0xfffffe34
    9bc8:	68203a65 	stmdavs	r0!, {r0, r2, r5, r6, r9, fp, ip, sp}
    9bcc:	20657661 	rsbcs	r7, r5, r1, ror #12
    9bd0:	69206e61 	stmdbvs	r0!, {r0, r5, r6, r9, sl, fp, sp, lr}
    9bd4:	6e69666e 	cdpvs	6, 6, cr6, cr9, cr14, {3}
    9bd8:	20657469 	rsbcs	r7, r5, r9, ror #8
    9bdc:	656d6974 	strbvs	r6, [sp, #-2420]!	; 0x974
    9be0:	2174756f 	cmncs	r4, pc, ror #10
    9be4:	00000a0a 	andeq	r0, r0, sl, lsl #20
    9be8:	3c207a73 	stccc	10, cr7, [r0], #-460	; 0xfffffe34
    9bec:	7a697320 	bvc	1a66874 <__bss_end__+0x1a5c86c>
    9bf0:	20666f65 	rsbcs	r6, r6, r5, ror #30
    9bf4:	2d667562 	cfstr64cs	mvdx7, [r6, #-392]!	; 0xfffffe78
    9bf8:	00000031 	andeq	r0, r0, r1, lsr r0

Disassembly of section .bss:

00009bfc <__bss_start__>:
	...

00009ffc <console_uart>:
	...

Disassembly of section .ARM.attributes:

00000000 <.ARM.attributes>:
   0:	00002a41 	andeq	r2, r0, r1, asr #20
   4:	61656100 	cmnvs	r5, r0, lsl #2
   8:	01006962 	tsteq	r0, r2, ror #18
   c:	00000020 	andeq	r0, r0, r0, lsr #32
  10:	4b5a3605 	blmi	168d82c <__bss_end__+0x1683824>
  14:	08070600 	stmdaeq	r7, {r9, sl}
  18:	12010901 	andne	r0, r1, #16384	; 0x4000
  1c:	15011404 	strne	r1, [r1, #-1028]	; 0x404
  20:	18031701 	stmdane	r3, {r0, r8, r9, sl, ip}
  24:	22011a01 	andcs	r1, r1, #4096	; 0x1000
  28:	Address 0x0000000000000028 is out of bounds.


Disassembly of section .comment:

00000000 <.comment>:
   0:	3a434347 	bcc	10d0d24 <__bss_end__+0x10c6d1c>
   4:	4e472820 	cdpmi	8, 4, cr2, cr7, cr0, {1}
   8:	34202955 	strtcc	r2, [r0], #-2389	; 0x955
   c:	332e382e 	teqcc	lr, #3014656	; 0x2e0000
	...

Disassembly of section .debug_info:

00000000 <.debug_info>:
       0:	000001d6 	ldrdeq	r0, [r0], -r6
       4:	00000004 	andeq	r0, r0, r4
       8:	01040000 	mrseq	r0, (UNDEF: 4)
       c:	00000102 	andeq	r0, r0, r2, lsl #2
      10:	00002d01 	andeq	r2, r0, r1, lsl #26
      14:	00008800 	andeq	r8, r0, r0, lsl #16
      18:	00801000 	addeq	r1, r0, r0
      1c:	00005400 	andeq	r5, r0, r0, lsl #8
      20:	00000000 	andeq	r0, r0, r0
      24:	05040200 	streq	r0, [r4, #-512]	; 0x200
      28:	00746e69 	rsbseq	r6, r4, r9, ror #28
      2c:	3c070403 	cfstrscc	mvf0, [r7], {3}
      30:	03000000 	movweq	r0, #0
      34:	004b0601 	subeq	r0, fp, r1, lsl #12
      38:	02030000 	andeq	r0, r3, #0
      3c:	0000f805 	andeq	pc, r0, r5, lsl #16
      40:	05040300 	streq	r0, [r4, #-768]	; 0x300
      44:	00000005 	andeq	r0, r0, r5
      48:	00050803 	andeq	r0, r5, r3, lsl #16
      4c:	03000000 	movweq	r0, #0
      50:	00490801 	subeq	r0, r9, r1, lsl #16
      54:	02030000 	andeq	r0, r3, #0
      58:	0000e507 	andeq	lr, r0, r7, lsl #10
      5c:	07040300 	streq	r0, [r4, -r0, lsl #6]
      60:	00000037 	andeq	r0, r0, r7, lsr r0
      64:	32070803 	andcc	r0, r7, #196608	; 0x30000
      68:	03000000 	movweq	r0, #0
      6c:	016d0704 	cmneq	sp, r4, lsl #14
      70:	01030000 	mrseq	r0, (UNDEF: 3)
      74:	00005208 	andeq	r5, r0, r8, lsl #4
      78:	7f040400 	svcvc	0x00040400
      7c:	05000000 	streq	r0, [r0, #-0]
      80:	00000072 	andeq	r0, r0, r2, ror r0
      84:	00006e06 	andeq	r6, r0, r6, lsl #28
      88:	10050100 	andne	r0, r5, r0, lsl #2
      8c:	54000080 	strpl	r0, [r0], #-128	; 0x80
      90:	01000000 	mrseq	r0, (UNDEF: 0)
      94:	0001829c 	muleq	r1, ip, r2
      98:	70750700 	rsbsvc	r0, r5, r0, lsl #14
      9c:	2c080100 	stfcss	f0, [r8], {-0}
      a0:	15000000 	strne	r0, [r0, #-0]
      a4:	00008308 	andeq	r8, r0, r8, lsl #6
      a8:	2c080100 	stfcss	f0, [r8], {-0}
      ac:	14000000 	strne	r0, [r0], #-0
      b0:	00001d09 	andeq	r1, r0, r9, lsl #26
      b4:	250c0100 	strcs	r0, [ip, #-256]	; 0x100
      b8:	c1000000 	mrsgt	r0, (UNDEF: 0)
      bc:	0a000000 	beq	c4 <_start-0x7f3c>
      c0:	00760900 	rsbseq	r0, r6, r0, lsl #18
      c4:	10010000 	andne	r0, r1, r0
      c8:	00000025 	andeq	r0, r0, r5, lsr #32
      cc:	000000d2 	ldrdeq	r0, [r0], -r2
      d0:	180b000a 	stmdane	fp, {r1, r3}
      d4:	08000080 	stmdaeq	r0, {r7}
      d8:	eb000000 	bl	e0 <_start-0x7f20>
      dc:	07000000 	streq	r0, [r0, -r0]
      e0:	01006e69 	tsteq	r0, r9, ror #28
      e4:	00002c07 	andeq	r2, r0, r7, lsl #24
      e8:	0c000100 	stfeqs	f0, [r0], {-0}
      ec:	00008018 	andeq	r8, r0, r8, lsl r0
      f0:	00000182 	andeq	r0, r0, r2, lsl #3
      f4:	0080280d 	addeq	r2, r0, sp, lsl #16
      f8:	00018900 	andeq	r8, r1, r0, lsl #18
      fc:	00010700 	andeq	r0, r1, r0, lsl #14
     100:	50010e00 	andpl	r0, r1, r0, lsl #28
     104:	0d004501 	cfstr32eq	mvfx4, [r0, #-4]
     108:	00008030 	andeq	r8, r0, r0, lsr r0
     10c:	0000019a 	muleq	r0, sl, r1
     110:	0000011a 	andeq	r0, r0, sl, lsl r1
     114:	0150010e 	cmpeq	r0, lr, lsl #2
     118:	3c0d0045 	stccc	0, cr0, [sp], {69}	; 0x45
     11c:	ab000080 	blge	324 <_start-0x7cdc>
     120:	36000001 	strcc	r0, [r0], -r1
     124:	0e000001 	cdpeq	0, 0, cr0, cr0, cr1, {0}
     128:	45015101 	strmi	r5, [r1, #-257]	; 0x101
     12c:	0550010e 	ldrbeq	r0, [r0, #-270]	; 0x10e
     130:	00989003 	addseq	r9, r8, r3
     134:	440d0000 	strmi	r0, [sp], #-0
     138:	89000080 	stmdbhi	r0, {r7}
     13c:	49000001 	stmdbmi	r0, {r0}
     140:	0e000001 	cdpeq	0, 0, cr0, cr0, cr1, {0}
     144:	45015001 	strmi	r5, [r1, #-1]
     148:	804c0d00 	subhi	r0, ip, r0, lsl #26
     14c:	01c10000 	biceq	r0, r1, r0
     150:	015c0000 	cmpeq	ip, r0
     154:	010e0000 	mrseq	r0, (UNDEF: 14)
     158:	00440150 	subeq	r0, r4, r0, asr r1
     15c:	0080580d 	addeq	r5, r0, sp, lsl #16
     160:	0001ab00 	andeq	sl, r1, r0, lsl #22
     164:	00017800 	andeq	r7, r1, r0, lsl #16
     168:	51010e00 	tstpl	r1, r0, lsl #28
     16c:	010e4401 	tsteq	lr, r1, lsl #8
     170:	04030550 	streq	r0, [r3], #-1360	; 0x550
     174:	00000099 	muleq	r0, r9, r0
     178:	00805c0c 	addeq	r5, r0, ip, lsl #24
     17c:	0001d200 	andeq	sp, r1, r0, lsl #4
     180:	570f0000 	strpl	r0, [pc, -r0]
     184:	03000000 	movweq	r0, #0
     188:	000e103a 	andeq	r1, lr, sl, lsr r0
     18c:	1c020000 	stcne	0, cr0, [r2], {-0}
     190:	0000019a 	muleq	r0, sl, r1
     194:	00002c11 	andeq	r2, r0, r1, lsl ip
     198:	1d090000 	stcne	0, cr0, [r9, #-0]
     19c:	01000000 	mrseq	r0, (UNDEF: 0)
     1a0:	0000250c 	andeq	r2, r0, ip, lsl #10
     1a4:	0001ab00 	andeq	sl, r1, r0, lsl #22
     1a8:	12000a00 	andne	r0, r0, #0, 20
     1ac:	0000025d 	andeq	r0, r0, sp, asr r2
     1b0:	00252903 	eoreq	r2, r5, r3, lsl #18
     1b4:	01c10000 	biceq	r0, r1, r0
     1b8:	79110000 	ldmdbvc	r1, {}	; <UNPREDICTABLE>
     1bc:	0a000000 	beq	1c4 <_start-0x7e3c>
     1c0:	00760900 	rsbseq	r0, r6, r0, lsl #18
     1c4:	10010000 	andne	r0, r1, r0
     1c8:	00000025 	andeq	r0, r0, r5, lsr #32
     1cc:	000001d2 	ldrdeq	r0, [r0], -r2
     1d0:	610f000a 	tstvs	pc, sl
     1d4:	03000000 	movweq	r0, #0
     1d8:	04bc0066 	ldrteq	r0, [ip], #102	; 0x66
     1dc:	00040000 	andeq	r0, r4, r0
     1e0:	000000f9 	strdeq	r0, [r0], -r9
     1e4:	01020104 	tsteq	r2, r4, lsl #2
     1e8:	ba010000 	blt	401f0 <__bss_end__+0x361e8>
     1ec:	88000001 	stmdahi	r0, {r0}
     1f0:	64000000 	strvs	r0, [r0], #-0
     1f4:	94000080 	strls	r0, [r0], #-128	; 0x80
     1f8:	e1000001 	tst	r0, r1
     1fc:	02000000 	andeq	r0, r0, #0
     200:	6e690504 	cdpvs	5, 6, cr0, cr9, cr4, {0}
     204:	04030074 	streq	r0, [r3], #-116	; 0x74
     208:	00003c07 	andeq	r3, r0, r7, lsl #24
     20c:	06010300 	streq	r0, [r1], -r0, lsl #6
     210:	0000004b 	andeq	r0, r0, fp, asr #32
     214:	f8050203 			; <UNDEFINED> instruction: 0xf8050203
     218:	03000000 	movweq	r0, #0
     21c:	00050504 	andeq	r0, r5, r4, lsl #10
     220:	08030000 	stmdaeq	r3, {}	; <UNPREDICTABLE>
     224:	00000005 	andeq	r0, r0, r5
     228:	08010300 	stmdaeq	r1, {r8, r9}
     22c:	00000049 	andeq	r0, r0, r9, asr #32
     230:	e5070203 	str	r0, [r7, #-515]	; 0x203
     234:	03000000 	movweq	r0, #0
     238:	00370704 	eorseq	r0, r7, r4, lsl #14
     23c:	08030000 	stmdaeq	r3, {}	; <UNPREDICTABLE>
     240:	00003207 	andeq	r3, r0, r7, lsl #4
     244:	07040300 	streq	r0, [r4, -r0, lsl #6]
     248:	0000016d 	andeq	r0, r0, sp, ror #2
     24c:	52080103 	andpl	r0, r8, #-1073741824	; 0xc0000000
     250:	04000000 	streq	r0, [r0], #-0
     254:	00007f04 	andeq	r7, r0, r4, lsl #30
     258:	00720500 	rsbseq	r0, r2, r0, lsl #10
     25c:	1d060000 	stcne	0, cr0, [r6, #-0]
     260:	01000000 	mrseq	r0, (UNDEF: 0)
     264:	00806409 	addeq	r6, r0, r9, lsl #8
     268:	0000b400 	andeq	fp, r0, r0, lsl #8
     26c:	1d9c0100 	ldfnes	f0, [ip]
     270:	07000002 	streq	r0, [r0, -r2]
     274:	006e6970 	rsbeq	r6, lr, r0, ror r9
     278:	002c0901 	eoreq	r0, ip, r1, lsl #18
     27c:	00000000 	andeq	r0, r0, r0
     280:	76080000 	strvc	r0, [r8], -r0
     284:	01006c61 	tsteq	r0, r1, ror #24
     288:	00002c0a 	andeq	r2, r0, sl, lsl #24
     28c:	29090200 	stmdbcs	r9, {r9}
     290:	01000004 	tsteq	r0, r4
     294:	00002c0d 	andeq	r2, r0, sp, lsl #24
     298:	00002c00 	andeq	r2, r0, r0, lsl #24
     29c:	01760900 	cmneq	r6, r0, lsl #18
     2a0:	10010000 	andne	r0, r1, r0
     2a4:	0000021d 	andeq	r0, r0, sp, lsl r2
     2a8:	00000060 	andeq	r0, r0, r0, rrx
     2ac:	0001a20a 	andeq	sl, r1, sl, lsl #4
     2b0:	2c170100 	ldfcss	f0, [r7], {-0}
     2b4:	01000000 	mrseq	r0, (UNDEF: 0)
     2b8:	807c0b55 	rsbshi	r0, ip, r5, asr fp
     2bc:	00040000 	andeq	r0, r4, r0
     2c0:	00fc0000 	rscseq	r0, ip, r0
     2c4:	c5090000 	strgt	r0, [r9, #-0]
     2c8:	01000001 	tsteq	r0, r1
     2cc:	00002c0d 	andeq	r2, r0, sp, lsl #24
     2d0:	00009600 	andeq	r9, r0, r0, lsl #12
     2d4:	800b0000 	andhi	r0, fp, r0
     2d8:	04000080 	streq	r0, [r0], #-128	; 0x80
     2dc:	19000000 	stmdbne	r0, {}	; <UNPREDICTABLE>
     2e0:	09000001 	stmdbeq	r0, {r0}
     2e4:	000001c5 	andeq	r0, r0, r5, asr #3
     2e8:	002c0e01 	eoreq	r0, ip, r1, lsl #28
     2ec:	00a90000 	adceq	r0, r9, r0
     2f0:	0b000000 	bleq	2f8 <_start-0x7d08>
     2f4:	000080b8 	strheq	r8, [r0], -r8	; <UNPREDICTABLE>
     2f8:	00000004 	andeq	r0, r0, r4
     2fc:	00000136 	andeq	r0, r0, r6, lsr r1
     300:	0001c509 	andeq	ip, r1, r9, lsl #10
     304:	2c1a0100 	ldfcss	f0, [sl], {-0}
     308:	bc000000 	stclt	0, cr0, [r0], {-0}
     30c:	00000000 	andeq	r0, r0, r0
     310:	0080bc0b 	addeq	fp, r0, fp, lsl #24
     314:	00000400 	andeq	r0, r0, r0, lsl #8
     318:	00015300 	andeq	r5, r1, r0, lsl #6
     31c:	01c50900 	biceq	r0, r5, r0, lsl #18
     320:	1b010000 	blne	40328 <__bss_end__+0x36320>
     324:	0000002c 	andeq	r0, r0, ip, lsr #32
     328:	000000cf 	andeq	r0, r0, pc, asr #1
     32c:	80dc0b00 	sbcshi	r0, ip, r0, lsl #22
     330:	00040000 	andeq	r0, r4, r0
     334:	01700000 	cmneq	r0, r0
     338:	c5090000 	strgt	r0, [r9, #-0]
     33c:	01000001 	tsteq	r0, r1
     340:	00002c1f 	andeq	r2, r0, pc, lsl ip
     344:	0000e200 	andeq	lr, r0, r0, lsl #4
     348:	e00b0000 	and	r0, fp, r0
     34c:	04000080 	streq	r0, [r0], #-128	; 0x80
     350:	8d000000 	stchi	0, cr0, [r0, #-0]
     354:	09000001 	stmdbeq	r0, {r0}
     358:	000001c5 	andeq	r0, r0, r5, asr #3
     35c:	002c2001 	eoreq	r2, ip, r1
     360:	00f50000 	rscseq	r0, r5, r0
     364:	0b000000 	bleq	36c <_start-0x7c94>
     368:	000080fc 	strdeq	r8, [r0], -ip
     36c:	00000004 	andeq	r0, r0, r4
     370:	000001a8 	andeq	r0, r0, r8, lsr #3
     374:	0001c50a 	andeq	ip, r1, sl, lsl #10
     378:	2c240100 	stfcss	f0, [r4], #-0
     37c:	01000000 	mrseq	r0, (UNDEF: 0)
     380:	000b0052 	andeq	r0, fp, r2, asr r0
     384:	04000081 	streq	r0, [r0], #-129	; 0x81
     388:	c5000000 	strgt	r0, [r0, #-0]
     38c:	09000001 	stmdbeq	r0, {r0}
     390:	000001c5 	andeq	r0, r0, r5, asr #3
     394:	002c2501 	eoreq	r2, ip, r1, lsl #10
     398:	01080000 	mrseq	r0, (UNDEF: 8)
     39c:	0c000000 	stceq	0, cr0, [r0], {-0}
     3a0:	0000807c 	andeq	r8, r0, ip, ror r0
     3a4:	0000047e 	andeq	r0, r0, lr, ror r4
     3a8:	000001d8 	ldrdeq	r0, [r0], -r8
     3ac:	0151010d 	cmpeq	r1, sp, lsl #2
     3b0:	b80c0032 	stmdalt	ip, {r1, r4, r5}
     3b4:	7e000080 	cdpvc	0, 0, cr0, cr0, cr0, {4}
     3b8:	f4000004 	vst4.8	{d0-d3}, [r0], r4
     3bc:	0d000001 	stceq	0, cr0, [r0, #-4]
     3c0:	31045101 	tstcc	r4, r1, lsl #2
     3c4:	0d240075 	stceq	0, cr0, [r4, #-468]!	; 0xfffffe2c
     3c8:	74025001 	strvc	r5, [r2], #-1
     3cc:	dc0c0000 	stcle	0, cr0, [ip], {-0}
     3d0:	7e000080 	cdpvc	0, 0, cr0, cr0, cr0, {4}
     3d4:	07000004 	streq	r0, [r0, -r4]
     3d8:	0d000002 	stceq	0, cr0, [r0, #-8]
     3dc:	30015101 	andcc	r5, r1, r1, lsl #2
     3e0:	80fc0e00 	rscshi	r0, ip, r0, lsl #28
     3e4:	047e0000 	ldrbteq	r0, [lr], #-0
     3e8:	010d0000 	mrseq	r0, (UNDEF: 13)
     3ec:	0d300151 	ldfeqs	f0, [r0, #-324]!	; 0xfffffebc
     3f0:	74025001 	strvc	r5, [r2], #-1
     3f4:	04000000 	streq	r0, [r0], #-0
     3f8:	00022304 	andeq	r2, r2, r4, lsl #6
     3fc:	002c0f00 	eoreq	r0, ip, r0, lsl #30
     400:	76060000 	strvc	r0, [r6], -r0
     404:	01000000 	mrseq	r0, (UNDEF: 0)
     408:	00811827 	addeq	r1, r1, r7, lsr #16
     40c:	0000b400 	andeq	fp, r0, r0, lsl #8
     410:	c19c0100 	orrsgt	r0, ip, r0, lsl #2
     414:	07000003 	streq	r0, [r0, -r3]
     418:	006e6970 	rsbeq	r6, lr, r0, ror r9
     41c:	002c2701 	eoreq	r2, ip, r1, lsl #14
     420:	011b0000 	tsteq	fp, r0
     424:	76080000 	strvc	r0, [r8], -r0
     428:	01006c61 	tsteq	r0, r1, ror #24
     42c:	00002c28 	andeq	r2, r0, r8, lsr #24
     430:	29090100 	stmdbcs	r9, {r8}
     434:	01000004 	tsteq	r0, r4
     438:	00002c2b 	andeq	r2, r0, fp, lsr #24
     43c:	00014700 	andeq	r4, r1, r0, lsl #14
     440:	01760900 	cmneq	r6, r0, lsl #18
     444:	2e010000 	cdpcs	0, 0, cr0, cr1, cr0, {0}
     448:	0000021d 	andeq	r0, r0, sp, lsl r2
     44c:	0000017b 	andeq	r0, r0, fp, ror r1
     450:	0001a20a 	andeq	sl, r1, sl, lsl #4
     454:	2c350100 	ldfcss	f0, [r5], #-0
     458:	01000000 	mrseq	r0, (UNDEF: 0)
     45c:	81300b55 	teqhi	r0, r5, asr fp
     460:	00040000 	andeq	r0, r4, r0
     464:	02a00000 	adceq	r0, r0, #0
     468:	c5090000 	strgt	r0, [r9, #-0]
     46c:	01000001 	tsteq	r0, r1
     470:	00002c2b 	andeq	r2, r0, fp, lsr #24
     474:	0001b100 	andeq	fp, r1, r0, lsl #2
     478:	340b0000 	strcc	r0, [fp], #-0
     47c:	04000081 	streq	r0, [r0], #-129	; 0x81
     480:	bd000000 	stclt	0, cr0, [r0, #-0]
     484:	09000002 	stmdbeq	r0, {r1}
     488:	000001c5 	andeq	r0, r0, r5, asr #3
     48c:	002c2c01 	eoreq	r2, ip, r1, lsl #24
     490:	01c40000 	biceq	r0, r4, r0
     494:	0b000000 	bleq	49c <_start-0x7b64>
     498:	0000816c 	andeq	r8, r0, ip, ror #2
     49c:	00000004 	andeq	r0, r0, r4
     4a0:	000002da 	ldrdeq	r0, [r0], -sl
     4a4:	0001c509 	andeq	ip, r1, r9, lsl #10
     4a8:	2c380100 	ldfcss	f0, [r8], #-0
     4ac:	d7000000 	strle	r0, [r0, -r0]
     4b0:	00000001 	andeq	r0, r0, r1
     4b4:	0081700b 	addeq	r7, r1, fp
     4b8:	00000400 	andeq	r0, r0, r0, lsl #8
     4bc:	0002f700 	andeq	pc, r2, r0, lsl #14
     4c0:	01c50900 	biceq	r0, r5, r0, lsl #18
     4c4:	39010000 	stmdbcc	r1, {}	; <UNPREDICTABLE>
     4c8:	0000002c 	andeq	r0, r0, ip, lsr #32
     4cc:	000001ea 	andeq	r0, r0, sl, ror #3
     4d0:	81900b00 	orrshi	r0, r0, r0, lsl #22
     4d4:	00040000 	andeq	r0, r4, r0
     4d8:	03140000 	tsteq	r4, #0
     4dc:	c5090000 	strgt	r0, [r9, #-0]
     4e0:	01000001 	tsteq	r0, r1
     4e4:	00002c3d 	andeq	r2, r0, sp, lsr ip
     4e8:	0001fd00 	andeq	pc, r1, r0, lsl #26
     4ec:	940b0000 	strls	r0, [fp], #-0
     4f0:	04000081 	streq	r0, [r0], #-129	; 0x81
     4f4:	31000000 	mrscc	r0, (UNDEF: 0)
     4f8:	09000003 	stmdbeq	r0, {r0, r1}
     4fc:	000001c5 	andeq	r0, r0, r5, asr #3
     500:	002c3e01 	eoreq	r3, ip, r1, lsl #28
     504:	02100000 	andseq	r0, r0, #0
     508:	0b000000 	bleq	510 <_start-0x7af0>
     50c:	000081b0 			; <UNDEFINED> instruction: 0x000081b0
     510:	00000004 	andeq	r0, r0, r4
     514:	0000034c 	andeq	r0, r0, ip, asr #6
     518:	0001c50a 	andeq	ip, r1, sl, lsl #10
     51c:	2c420100 	stfcse	f0, [r2], {-0}
     520:	01000000 	mrseq	r0, (UNDEF: 0)
     524:	b40b0052 	strlt	r0, [fp], #-82	; 0x52
     528:	04000081 	streq	r0, [r0], #-129	; 0x81
     52c:	69000000 	stmdbvs	r0, {}	; <UNPREDICTABLE>
     530:	09000003 	stmdbeq	r0, {r0, r1}
     534:	000001c5 	andeq	r0, r0, r5, asr #3
     538:	002c4301 	eoreq	r4, ip, r1, lsl #6
     53c:	02230000 	eoreq	r0, r3, #0
     540:	0c000000 	stceq	0, cr0, [r0], {-0}
     544:	00008130 	andeq	r8, r0, r0, lsr r1
     548:	0000047e 	andeq	r0, r0, lr, ror r4
     54c:	0000037c 	andeq	r0, r0, ip, ror r3
     550:	0151010d 	cmpeq	r1, sp, lsl #2
     554:	6c0c0031 	stcvs	0, cr0, [ip], {49}	; 0x31
     558:	7e000081 	cdpvc	0, 0, cr0, cr0, cr1, {4}
     55c:	98000004 	stmdals	r0, {r2}
     560:	0d000003 	stceq	0, cr0, [r0, #-12]
     564:	31045101 	tstcc	r4, r1, lsl #2
     568:	0d240075 	stceq	0, cr0, [r4, #-468]!	; 0xfffffe2c
     56c:	74025001 	strvc	r5, [r2], #-1
     570:	900c0000 	andls	r0, ip, r0
     574:	7e000081 	cdpvc	0, 0, cr0, cr0, cr1, {4}
     578:	ab000004 	blge	590 <_start-0x7a70>
     57c:	0d000003 	stceq	0, cr0, [r0, #-12]
     580:	30015101 	andcc	r5, r1, r1, lsl #2
     584:	81b00e00 	lslshi	r0, r0, #28
     588:	047e0000 	ldrbteq	r0, [lr], #-0
     58c:	010d0000 	mrseq	r0, (UNDEF: 13)
     590:	0d300151 	ldfeqs	f0, [r0, #-324]!	; 0xfffffebc
     594:	74025001 	strvc	r5, [r2], #-1
     598:	06000000 	streq	r0, [r0], -r0
     59c:	000001ca 	andeq	r0, r0, sl, asr #3
     5a0:	81cc4701 	bichi	r4, ip, r1, lsl #14
     5a4:	002c0000 	eoreq	r0, ip, r0
     5a8:	9c010000 	stcls	0, cr0, [r1], {-0}
     5ac:	00000436 	andeq	r0, r0, r6, lsr r4
     5b0:	6e697007 	cdpvs	0, 6, cr7, cr9, cr7, {0}
     5b4:	2c470100 	stfcse	f0, [r7], {-0}
     5b8:	36000000 	strcc	r0, [r0], -r0
     5bc:	10000002 	andne	r0, r0, r2
     5c0:	000001ad 	andeq	r0, r0, sp, lsr #3
     5c4:	00000446 	andeq	r0, r0, r6, asr #8
     5c8:	99780305 	ldmdbls	r8!, {r0, r2, r8, r9}^
     5cc:	d4110000 	ldrle	r0, [r1], #-0
     5d0:	9b000081 	blls	7dc <_start-0x7824>
     5d4:	0c000004 	stceq	0, cr0, [r0], {4}
     5d8:	000081e8 	andeq	r8, r0, r8, ror #3
     5dc:	000004a2 	andeq	r0, r0, r2, lsr #9
     5e0:	0000042c 	andeq	r0, r0, ip, lsr #8
     5e4:	0253010d 	subseq	r0, r3, #1073741827	; 0x40000003
     5e8:	010d4708 	tsteq	sp, r8, lsl #14
     5ec:	78030552 	stmdavc	r3, {r1, r4, r6, r8, sl}
     5f0:	0d000099 	stceq	0, cr0, [r0, #-612]	; 0xfffffd9c
     5f4:	03055101 	movweq	r5, #20737	; 0x5101
     5f8:	000099b4 			; <UNDEFINED> instruction: 0x000099b4
     5fc:	0550010d 	ldrbeq	r0, [r0, #-269]	; 0x10d
     600:	00998803 	addseq	r8, r9, r3, lsl #16
     604:	ec110000 	ldc	0, cr0, [r1], {-0}
     608:	b8000081 	stmdalt	r0, {r0, r7}
     60c:	00000004 	andeq	r0, r0, r4
     610:	00007212 	andeq	r7, r0, r2, lsl r2
     614:	00044600 	andeq	r4, r4, r0, lsl #12
     618:	006b1300 	rsbeq	r1, fp, r0, lsl #6
     61c:	000c0000 	andeq	r0, ip, r0
     620:	00043605 	andeq	r3, r4, r5, lsl #12
     624:	01961400 	orrseq	r1, r6, r0, lsl #8
     628:	05010000 	streq	r0, [r1, #-0]
     62c:	0000021d 	andeq	r0, r0, sp, lsl r2
     630:	97e80305 	strbls	r0, [r8, r5, lsl #6]!
     634:	82140000 	andshi	r0, r4, #0
     638:	01000001 	tsteq	r0, r1
     63c:	00021d06 	andeq	r1, r2, r6, lsl #26
     640:	ec030500 	cfstr32	mvfx0, [r3], {-0}
     644:	14000097 	strne	r0, [r0], #-151	; 0x97
     648:	0000018c 	andeq	r0, r0, ip, lsl #3
     64c:	021d0701 	andseq	r0, sp, #262144	; 0x40000
     650:	03050000 	movweq	r0, #20480	; 0x5000
     654:	000097f0 	strdeq	r9, [r0], -r0
     658:	00019c15 	andeq	r9, r1, r5, lsl ip
     65c:	949d0200 	ldrls	r0, [sp], #512	; 0x200
     660:	16000004 	strne	r0, [r0], -r4
     664:	00000494 	muleq	r0, r4, r4
     668:	00002c16 	andeq	r2, r0, r6, lsl ip
     66c:	04040000 	streq	r0, [r4], #-0
     670:	0000049a 	muleq	r0, sl, r4
     674:	01d71817 	bicseq	r1, r7, r7, lsl r8
     678:	1e020000 	cdpne	0, 0, cr0, cr2, cr0, {0}
     67c:	00025d19 	andeq	r5, r2, r9, lsl sp
     680:	25290200 	strcs	r0, [r9, #-512]!	; 0x200
     684:	b8000000 	stmdalt	r0, {}	; <UNPREDICTABLE>
     688:	16000004 	strne	r0, [r0], -r4
     68c:	00000079 	andeq	r0, r0, r9, ror r0
     690:	6118001a 	tstvs	r8, sl, lsl r0
     694:	02000000 	andeq	r0, r0, #0
     698:	01910066 	orrseq	r0, r1, r6, rrx
     69c:	00040000 	andeq	r0, r4, r0
     6a0:	00000244 	andeq	r0, r0, r4, asr #4
     6a4:	02030104 	andeq	r0, r3, #4, 2
     6a8:	f5010000 			; <UNDEFINED> instruction: 0xf5010000
     6ac:	6e000001 	cdpvs	0, 0, cr0, cr0, cr1, {0}
     6b0:	f8000002 			; <UNDEFINED> instruction: 0xf8000002
     6b4:	58000081 	stmdapl	r0, {r0, r7}
     6b8:	ab000000 	blge	6c0 <_start-0x7940>
     6bc:	02000001 	andeq	r0, r0, #1
     6c0:	000001e6 	andeq	r0, r0, r6, ror #3
     6c4:	00302802 	eorseq	r2, r0, r2, lsl #16
     6c8:	64030000 	strvs	r0, [r3], #-0
     6cc:	04000002 	streq	r0, [r0], #-2
     6d0:	00470003 	subeq	r0, r7, r3
     6d4:	b7040000 	strlt	r0, [r4, -r0]
     6d8:	47000002 	strmi	r0, [r0, -r2]
     6dc:	00000000 	andeq	r0, r0, r0
     6e0:	02040500 	andeq	r0, r4, #0, 10
     6e4:	00000266 	andeq	r0, r0, r6, ror #4
     6e8:	00256202 	eoreq	r6, r5, r2, lsl #4
     6ec:	04060000 	streq	r0, [r6], #-0
     6f0:	746e6905 	strbtvc	r6, [lr], #-2309	; 0x905
     6f4:	07040700 	streq	r0, [r4, -r0, lsl #14]
     6f8:	0000003c 	andeq	r0, r0, ip, lsr r0
     6fc:	4b060107 	blmi	180b20 <__bss_end__+0x176b18>
     700:	07000000 	streq	r0, [r0, -r0]
     704:	00f80502 	rscseq	r0, r8, r2, lsl #10
     708:	04070000 	streq	r0, [r7], #-0
     70c:	00000505 	andeq	r0, r0, r5, lsl #10
     710:	05080700 	streq	r0, [r8, #-1792]	; 0x700
     714:	00000000 	andeq	r0, r0, r0
     718:	49080107 	stmdbmi	r8, {r0, r1, r2, r8}
     71c:	07000000 	streq	r0, [r0, -r0]
     720:	00e50702 	rsceq	r0, r5, r2, lsl #14
     724:	04070000 	streq	r0, [r7], #-0
     728:	00003707 	andeq	r3, r0, r7, lsl #14
     72c:	07080700 	streq	r0, [r8, -r0, lsl #14]
     730:	00000032 	andeq	r0, r0, r2, lsr r0
     734:	6d070407 	cfstrsvs	mvf0, [r7, #-28]	; 0xffffffe4
     738:	08000001 	stmdaeq	r0, {r0}
     73c:	0000a704 	andeq	sl, r0, r4, lsl #14
     740:	08010700 	stmdaeq	r1, {r8, r9, sl}
     744:	00000052 	andeq	r0, r0, r2, asr r0
     748:	00b40408 	adcseq	r0, r4, r8, lsl #8
     74c:	a7090000 	strge	r0, [r9, -r0]
     750:	0a000000 	beq	758 <_start-0x78a8>
     754:	0000025d 	andeq	r0, r0, sp, asr r2
     758:	00540601 	subseq	r0, r4, r1, lsl #12
     75c:	81f80000 	mvnshi	r0, r0
     760:	00580000 	subseq	r0, r8, r0
     764:	9c010000 	stcls	0, cr0, [r1], {-0}
     768:	00000143 	andeq	r0, r0, r3, asr #2
     76c:	746d660b 	strbtvc	r6, [sp], #-1547	; 0x60b
     770:	ae060100 	adfges	f0, f6, f0
     774:	02000000 	andeq	r0, r0, #0
     778:	0d0c7091 	stceq	0, cr7, [ip, #-580]	; 0xfffffdbc
     77c:	00667562 	rsbeq	r7, r6, r2, ror #10
     780:	01430801 	cmpeq	r3, r1, lsl #16
     784:	03050000 	movweq	r0, #20480	; 0x5000
     788:	00009bfc 	strdeq	r9, [r0], -ip
     78c:	0002b20e 	andeq	fp, r2, lr, lsl #4
     790:	49090100 	stmdbmi	r9, {r8}
     794:	02000000 	andeq	r0, r0, #0
     798:	730f5c91 	movwvc	r5, #64657	; 0xfc91
     79c:	0c01007a 	stceq	0, cr0, [r1], {122}	; 0x7a
     7a0:	00000054 	andeq	r0, r0, r4, asr r0
     7a4:	00000257 	andeq	r0, r0, r7, asr r2
     7a8:	00822010 	addeq	r2, r2, r0, lsl r0
     7ac:	00017400 	andeq	r7, r1, r0, lsl #8
     7b0:	00013600 	andeq	r3, r1, r0, lsl #12
     7b4:	53011100 	movwpl	r1, #4352	; 0x1100
     7b8:	114c9102 	cmpne	ip, r2, lsl #2
     7bc:	91035201 	tstls	r3, r1, lsl #4
     7c0:	01110648 	tsteq	r1, r8, asr #12
     7c4:	000a0351 	andeq	r0, sl, r1, asr r3
     7c8:	50011104 	andpl	r1, r1, r4, lsl #2
     7cc:	00007402 	andeq	r7, r0, r2, lsl #8
     7d0:	00823412 	addeq	r3, r2, r2, lsl r4
     7d4:	50011100 	andpl	r1, r1, r0, lsl #2
     7d8:	00007402 	andeq	r7, r0, r2, lsl #8
     7dc:	00a71300 	adceq	r1, r7, r0, lsl #6
     7e0:	01540000 	cmpeq	r4, r0
     7e4:	9a140000 	bls	5007ec <__bss_end__+0x4f67e4>
     7e8:	ff000000 			; <UNDEFINED> instruction: 0xff000000
     7ec:	54150003 	ldrpl	r0, [r5], #-3
     7f0:	63000000 	movwvs	r0, #0
     7f4:	16000001 	strne	r0, [r0], -r1
     7f8:	000000ae 	andeq	r0, r0, lr, lsr #1
     7fc:	030a1700 	movweq	r1, #42752	; 0xa700
     800:	22040000 	andcs	r0, r4, #0
     804:	0000016e 	andeq	r0, r0, lr, ror #2
     808:	01540408 	cmpeq	r4, r8, lsl #8
     80c:	5a180000 	bpl	600814 <__bss_end__+0x5f680c>
     810:	05000002 	streq	r0, [r0, #-2]
     814:	00005402 	andeq	r5, r0, r2, lsl #8
     818:	00a11600 	adceq	r1, r1, r0, lsl #12
     81c:	54160000 	ldrpl	r0, [r6], #-0
     820:	16000000 	strne	r0, [r0], -r0
     824:	000000ae 	andeq	r0, r0, lr, lsr #1
     828:	00004916 	andeq	r4, r0, r6, lsl r9
     82c:	13000000 	movwne	r0, #0
     830:	04000001 	streq	r0, [r0], #-1
     834:	00037500 	andeq	r7, r3, r0, lsl #10
     838:	03010400 	movweq	r0, #5120	; 0x1400
     83c:	01000002 	tsteq	r0, r2
     840:	000002d9 	ldrdeq	r0, [r0], -r9
     844:	0000026e 	andeq	r0, r0, lr, ror #4
     848:	00008250 	andeq	r8, r0, r0, asr r2
     84c:	0000003c 	andeq	r0, r0, ip, lsr r0
     850:	000002b1 			; <UNDEFINED> instruction: 0x000002b1
     854:	69050402 	stmdbvs	r5, {r1, sl}
     858:	0300746e 	movweq	r7, #1134	; 0x46e
     85c:	003c0704 	eorseq	r0, ip, r4, lsl #14
     860:	01030000 	mrseq	r0, (UNDEF: 3)
     864:	00004b06 	andeq	r4, r0, r6, lsl #22
     868:	05020300 	streq	r0, [r2, #-768]	; 0x300
     86c:	000000f8 	strdeq	r0, [r0], -r8
     870:	05050403 	streq	r0, [r5, #-1027]	; 0x403
     874:	03000000 	movweq	r0, #0
     878:	00000508 	andeq	r0, r0, r8, lsl #10
     87c:	01030000 	mrseq	r0, (UNDEF: 3)
     880:	00004908 	andeq	r4, r0, r8, lsl #18
     884:	07020300 	streq	r0, [r2, -r0, lsl #6]
     888:	000000e5 	andeq	r0, r0, r5, ror #1
     88c:	37070403 	strcc	r0, [r7, -r3, lsl #8]
     890:	03000000 	movweq	r0, #0
     894:	00320708 	eorseq	r0, r2, r8, lsl #14
     898:	04030000 	streq	r0, [r3], #-0
     89c:	00016d07 	andeq	r6, r1, r7, lsl #26
     8a0:	08010300 	stmdaeq	r1, {r8, r9}
     8a4:	00000052 	andeq	r0, r0, r2, asr r0
     8a8:	0002bc04 	andeq	fp, r2, r4, lsl #24
     8ac:	25030100 	strcs	r0, [r3, #-256]	; 0x100
     8b0:	50000000 	andpl	r0, r0, r0
     8b4:	14000082 	strne	r0, [r0], #-130	; 0x82
     8b8:	01000000 	mrseq	r0, (UNDEF: 0)
     8bc:	0000b09c 	muleq	r0, ip, r0
     8c0:	00630500 	rsbeq	r0, r3, r0, lsl #10
     8c4:	00250301 	eoreq	r0, r5, r1, lsl #6
     8c8:	02800000 	addeq	r0, r0, #0
     8cc:	5c060000 	stcpl	0, cr0, [r6], {-0}
     8d0:	09000082 	stmdbeq	r0, {r1, r7}
     8d4:	07000001 	streq	r0, [r0, -r1]
     8d8:	74025001 	strvc	r5, [r2], #-1
     8dc:	08000000 	stmdaeq	r0, {}	; <UNPREDICTABLE>
     8e0:	000001d7 	ldrdeq	r0, [r0], -r7
     8e4:	82640801 	rsbhi	r0, r4, #65536	; 0x10000
     8e8:	00180000 	andseq	r0, r8, r0
     8ec:	9c010000 	stcls	0, cr0, [r1], {-0}
     8f0:	0002e809 	andeq	lr, r2, r9, lsl #16
     8f4:	7c0b0100 	stfvcs	f0, [fp], {-0}
     8f8:	10000082 	andne	r0, r0, r2, lsl #1
     8fc:	01000000 	mrseq	r0, (UNDEF: 0)
     900:	0000e39c 	muleq	r0, ip, r3
     904:	70660a00 	rsbvc	r0, r6, r0, lsl #20
     908:	f20b0100 	vrhadd.s8	d0, d11, d0
     90c:	01000000 	mrseq	r0, (UNDEF: 0)
     910:	250b0050 	strcs	r0, [fp, #-80]	; 0x50
     914:	f2000000 	vhadd.s8	d0, d0, d0
     918:	0c000000 	stceq	0, cr0, [r0], {-0}
     91c:	00000025 	andeq	r0, r0, r5, lsr #32
     920:	e3040d00 	movw	r0, #19712	; 0x4d00
     924:	0e000000 	cdpeq	0, 0, cr0, cr0, cr0, {0}
     928:	000002cd 	andeq	r0, r0, sp, asr #5
     92c:	00f20601 	rscseq	r0, r2, r1, lsl #12
     930:	03050000 	movweq	r0, #20480	; 0x5000
     934:	000097f4 	strdeq	r9, [r0], -r4
     938:	00043d0f 	andeq	r3, r4, pc, lsl #26
     93c:	0c3c0200 	lfmeq	f0, 4, [ip], #-0
     940:	0000002c 	andeq	r0, r0, ip, lsr #32
     944:	00ee0000 	rsceq	r0, lr, r0
     948:	00040000 	andeq	r0, r4, r0
     94c:	0000045d 	andeq	r0, r0, sp, asr r4
     950:	02030104 	andeq	r0, r3, #4, 2
     954:	f5010000 			; <UNDEFINED> instruction: 0xf5010000
     958:	6e000002 	cdpvs	0, 0, cr0, cr0, cr2, {0}
     95c:	8c000002 	stchi	0, cr0, [r0], {2}
     960:	34000082 	strcc	r0, [r0], #-130	; 0x82
     964:	3f000000 	svccc	0x00000000
     968:	02000003 	andeq	r0, r0, #3
     96c:	6e690504 	cdpvs	5, 6, cr0, cr9, cr4, {0}
     970:	04030074 	streq	r0, [r3], #-116	; 0x74
     974:	00003c07 	andeq	r3, r0, r7, lsl #24
     978:	06010300 	streq	r0, [r1], -r0, lsl #6
     97c:	0000004b 	andeq	r0, r0, fp, asr #32
     980:	f8050203 			; <UNDEFINED> instruction: 0xf8050203
     984:	03000000 	movweq	r0, #0
     988:	00050504 	andeq	r0, r5, r4, lsl #10
     98c:	08030000 	stmdaeq	r3, {}	; <UNPREDICTABLE>
     990:	00000005 	andeq	r0, r0, r5
     994:	08010300 	stmdaeq	r1, {r8, r9}
     998:	00000049 	andeq	r0, r0, r9, asr #32
     99c:	e5070203 	str	r0, [r7, #-515]	; 0x203
     9a0:	03000000 	movweq	r0, #0
     9a4:	00370704 	eorseq	r0, r7, r4, lsl #14
     9a8:	08030000 	stmdaeq	r3, {}	; <UNPREDICTABLE>
     9ac:	00003207 	andeq	r3, r0, r7, lsl #4
     9b0:	07040300 	streq	r0, [r4, -r0, lsl #6]
     9b4:	0000016d 	andeq	r0, r0, sp, ror #2
     9b8:	52080103 	andpl	r0, r8, #-1073741824	; 0xc0000000
     9bc:	04000000 	streq	r0, [r0], #-0
     9c0:	00007f04 	andeq	r7, r0, r4, lsl #30
     9c4:	00720500 	rsbseq	r0, r2, r0, lsl #10
     9c8:	01060000 	mrseq	r0, (UNDEF: 6)
     9cc:	01000003 	tsteq	r0, r3
     9d0:	00002504 	andeq	r2, r0, r4, lsl #10
     9d4:	00828c00 	addeq	r8, r2, r0, lsl #24
     9d8:	00003400 	andeq	r3, r0, r0, lsl #8
     9dc:	ab9c0100 	blge	fe700de4 <__bss_end__+0xfe6f6ddc>
     9e0:	07000000 	streq	r0, [r0, -r0]
     9e4:	04010070 	streq	r0, [r1], #-112	; 0x70
     9e8:	00000079 	andeq	r0, r0, r9, ror r0
     9ec:	0000029e 	muleq	r0, lr, r2
     9f0:	00250800 	eoreq	r0, r5, r0, lsl #16
     9f4:	00ba0000 	adcseq	r0, sl, r0
     9f8:	25090000 	strcs	r0, [r9, #-0]
     9fc:	00000000 	andeq	r0, r0, r0
     a00:	0002cd0a 	andeq	ip, r2, sl, lsl #26
     a04:	c51d0200 	ldrgt	r0, [sp, #-512]	; 0x200
     a08:	04000000 	streq	r0, [r0], #-0
     a0c:	0000ab04 	andeq	sl, r0, r4, lsl #22
     a10:	00250800 	eoreq	r0, r5, r0, lsl #16
     a14:	00da0000 	sbcseq	r0, sl, r0
     a18:	79090000 	stmdbvc	r9, {}	; <UNPREDICTABLE>
     a1c:	00000000 	andeq	r0, r0, r0
     a20:	00030a0b 	andeq	r0, r3, fp, lsl #20
     a24:	eb0c0100 	bl	300e2c <__bss_end__+0x2f6e24>
     a28:	05000000 	streq	r0, [r0, #-0]
     a2c:	0097f803 	addseq	pc, r7, r3, lsl #16
     a30:	cb040400 	blgt	101a38 <__bss_end__+0xf7a30>
     a34:	00000000 	andeq	r0, r0, r0
     a38:	000006a1 	andeq	r0, r0, r1, lsr #13
     a3c:	04f60004 	ldrbteq	r0, [r6], #4
     a40:	01040000 	mrseq	r0, (UNDEF: 4)
     a44:	00000203 	andeq	r0, r0, r3, lsl #4
     a48:	00033b01 	andeq	r3, r3, r1, lsl #22
     a4c:	00026e00 	andeq	r6, r2, r0, lsl #28
     a50:	0082c000 	addeq	ip, r2, r0
     a54:	00052400 	andeq	r2, r5, r0, lsl #8
     a58:	0003d900 	andeq	sp, r3, r0, lsl #18
     a5c:	05040200 	streq	r0, [r4, #-512]	; 0x200
     a60:	00746e69 	rsbseq	r6, r4, r9, ror #28
     a64:	3c070403 	cfstrscc	mvf0, [r7], {3}
     a68:	03000000 	movweq	r0, #0
     a6c:	004b0601 	subeq	r0, fp, r1, lsl #12
     a70:	02030000 	andeq	r0, r3, #0
     a74:	0000f805 	andeq	pc, r0, r5, lsl #16
     a78:	05040300 	streq	r0, [r4, #-768]	; 0x300
     a7c:	00000005 	andeq	r0, r0, r5
     a80:	00050803 	andeq	r0, r5, r3, lsl #16
     a84:	03000000 	movweq	r0, #0
     a88:	00490801 	subeq	r0, r9, r1, lsl #16
     a8c:	02030000 	andeq	r0, r3, #0
     a90:	0000e507 	andeq	lr, r0, r7, lsl #10
     a94:	07040300 	streq	r0, [r4, -r0, lsl #6]
     a98:	00000037 	andeq	r0, r0, r7, lsr r0
     a9c:	32070803 	andcc	r0, r7, #196608	; 0x30000
     aa0:	03000000 	movweq	r0, #0
     aa4:	016d0704 	cmneq	sp, r4, lsl #14
     aa8:	04040000 	streq	r0, [r4], #-0
     aac:	007a0405 	rsbseq	r0, sl, r5, lsl #8
     ab0:	01030000 	mrseq	r0, (UNDEF: 3)
     ab4:	00005208 	andeq	r5, r0, r8, lsl #4
     ab8:	87040500 	strhi	r0, [r4, -r0, lsl #10]
     abc:	06000000 	streq	r0, [r0], -r0
     ac0:	0000007a 	andeq	r0, r0, sl, ror r0
     ac4:	0001e607 	andeq	lr, r1, r7, lsl #12
     ac8:	97280200 	strls	r0, [r8, -r0, lsl #4]!
     acc:	08000000 	stmdaeq	r0, {}	; <UNPREDICTABLE>
     ad0:	00000264 	andeq	r0, r0, r4, ror #4
     ad4:	ae000404 	cdpge	4, 0, cr0, cr0, cr4, {0}
     ad8:	09000000 	stmdbeq	r0, {}	; <UNPREDICTABLE>
     adc:	000002b7 			; <UNDEFINED> instruction: 0x000002b7
     ae0:	00000072 	andeq	r0, r0, r2, ror r0
     ae4:	66070000 	strvs	r0, [r7], -r0
     ae8:	02000002 	andeq	r0, r0, #2
     aec:	00008c62 	andeq	r8, r0, r2, ror #24
     af0:	031d0a00 	tsteq	sp, #0, 20
     af4:	27010000 	strcs	r0, [r1, -r0]
     af8:	00000025 	andeq	r0, r0, r5, lsr #32
     afc:	000082c0 	andeq	r8, r0, r0, asr #5
     b00:	00000014 	andeq	r0, r0, r4, lsl r0
     b04:	00e09c01 	rsceq	r9, r0, r1, lsl #24
     b08:	630b0000 	movwvs	r0, #45056	; 0xb000
     b0c:	25270100 	strcs	r0, [r7, #-256]!	; 0x100
     b10:	bc000000 	stclt	0, cr0, [r0], {-0}
     b14:	00000002 	andeq	r0, r0, r2
     b18:	6461700c 	strbtvs	r7, [r1], #-12
     b1c:	742e0100 	strtvc	r0, [lr], #-256	; 0x100
     b20:	d4000000 	strle	r0, [r0], #-0
     b24:	2c000082 	stccs	0, cr0, [r0], {130}	; 0x82
     b28:	01000000 	mrseq	r0, (UNDEF: 0)
     b2c:	0001309c 	muleq	r1, ip, r0
     b30:	00700b00 	rsbseq	r0, r0, r0, lsl #22
     b34:	00742e01 	rsbseq	r2, r4, r1, lsl #28
     b38:	02ea0000 	rsceq	r0, sl, #0
     b3c:	2d0d0000 	stccs	0, cr0, [sp, #-0]
     b40:	01000003 	tsteq	r0, r3
     b44:	0000742e 	andeq	r7, r0, lr, lsr #8
     b48:	00031500 	andeq	r1, r3, r0, lsl #10
     b4c:	035b0e00 	cmpeq	fp, #0, 28
     b50:	2e010000 	cdpcs	0, 0, cr0, cr1, cr0, {0}
     b54:	00000025 	andeq	r0, r0, r5, lsr #32
     b58:	6c0f5201 	sfmvs	f5, 4, [pc], {1}
     b5c:	01006e65 	tsteq	r0, r5, ror #28
     b60:	0000252f 	andeq	r2, r0, pc, lsr #10
     b64:	00510100 	subseq	r0, r1, r0, lsl #2
     b68:	0003150a 	andeq	r1, r3, sl, lsl #10
     b6c:	74370100 	ldrtvc	r0, [r7], #-256	; 0x100
     b70:	00000000 	andeq	r0, r0, r0
     b74:	40000083 	andmi	r0, r0, r3, lsl #1
     b78:	01000000 	mrseq	r0, (UNDEF: 0)
     b7c:	00019c9c 	muleq	r1, ip, ip
     b80:	73640b00 	cmnvc	r4, #0, 22
     b84:	37010074 	smlsdxcc	r1, r4, r0, r0
     b88:	00000074 	andeq	r0, r0, r4, ror r0
     b8c:	00000336 	andeq	r0, r0, r6, lsr r3
     b90:	01006e0b 	tsteq	r0, fp, lsl #28
     b94:	00002537 	andeq	r2, r0, r7, lsr r5
     b98:	00036e00 	andeq	r6, r3, r0, lsl #28
     b9c:	00700b00 	rsbseq	r0, r0, r0, lsl #22
     ba0:	00743701 	rsbseq	r3, r4, r1, lsl #14
     ba4:	038f0000 	orreq	r0, pc, #0
     ba8:	290d0000 	stmdbcs	sp, {}	; <UNPREDICTABLE>
     bac:	01000004 	tsteq	r0, r4
     bb0:	00007437 	andeq	r7, r0, r7, lsr r4
     bb4:	0003c500 	andeq	ip, r3, r0, lsl #10
     bb8:	656c1000 	strbvs	r1, [ip, #-0]!
     bbc:	3901006e 	stmdbcc	r1, {r1, r2, r3, r5, r6}
     bc0:	00000025 	andeq	r0, r0, r5, lsr #32
     bc4:	000003e3 	andeq	r0, r0, r3, ror #7
     bc8:	0100730f 	tsteq	r0, pc, lsl #6
     bcc:	0000743d 	andeq	r7, r0, sp, lsr r4
     bd0:	00500100 	subseq	r0, r0, r0, lsl #2
     bd4:	0003690a 	andeq	r6, r3, sl, lsl #18
     bd8:	74470100 	strbvc	r0, [r7], #-256	; 0x100
     bdc:	40000000 	andmi	r0, r0, r0
     be0:	a8000083 	stmdage	r0, {r0, r1, r7}
     be4:	01000001 	tsteq	r0, r1
     be8:	0002df9c 	muleq	r2, ip, pc	; <UNPREDICTABLE>
     bec:	032d0d00 	teqeq	sp, #0, 26
     bf0:	47010000 	strmi	r0, [r1, -r0]
     bf4:	0000002c 	andeq	r0, r0, ip, lsr #32
     bf8:	0000040a 	andeq	r0, r0, sl, lsl #8
     bfc:	7473640b 	ldrbtvc	r6, [r3], #-1035	; 0x40b
     c00:	74470100 	strbvc	r0, [r7], #-256	; 0x100
     c04:	38000000 	stmdacc	r0, {}	; <UNPREDICTABLE>
     c08:	0b000004 	bleq	c20 <_start-0x73e0>
     c0c:	4701006e 	strmi	r0, [r1, -lr, rrx]
     c10:	00000025 	andeq	r0, r0, r5, lsr #32
     c14:	000004a6 	andeq	r0, r0, r6, lsr #9
     c18:	6c61760b 	stclvs	6, cr7, [r1], #-44	; 0xffffffd4
     c1c:	25470100 	strbcs	r0, [r7, #-256]	; 0x100
     c20:	d2000000 	andle	r0, r0, #0
     c24:	0d000004 	stceq	0, cr0, [r0, #-16]
     c28:	0000035b 	andeq	r0, r0, fp, asr r3
     c2c:	00254701 	eoreq	r4, r5, r1, lsl #14
     c30:	05510000 	ldrbeq	r0, [r1, #-0]
     c34:	320e0000 	andcc	r0, lr, #0
     c38:	01000003 	tsteq	r0, r3
     c3c:	00002547 	andeq	r2, r0, r7, asr #10
     c40:	04910200 	ldreq	r0, [r1], #512	; 0x200
     c44:	6675620f 	ldrbtvs	r6, [r5], -pc, lsl #4
     c48:	df4c0100 	svcle	0x004c0100
     c4c:	03000002 	movweq	r0, #2
     c50:	107fa891 			; <UNDEFINED> instruction: 0x107fa891
     c54:	4c010070 	stcmi	0, cr0, [r1], {112}	; 0x70
     c58:	00000074 	andeq	r0, r0, r4, ror r0
     c5c:	0000057b 	andeq	r0, r0, fp, ror r5
     c60:	01007510 	tsteq	r0, r0, lsl r5
     c64:	00002c4d 	andeq	r2, r0, sp, asr #24
     c68:	00063700 	andeq	r3, r6, r0, lsl #14
     c6c:	01ad1100 			; <UNDEFINED> instruction: 0x01ad1100
     c70:	02ff0000 	rscseq	r0, pc, #0
     c74:	03050000 	movweq	r0, #20480	; 0x5000
     c78:	000099c0 	andeq	r9, r0, r0, asr #19
     c7c:	0083ac12 	addeq	sl, r3, r2, lsl ip
     c80:	00007400 	andeq	r7, r0, r0, lsl #8
     c84:	00026100 	andeq	r6, r2, r0, lsl #2
     c88:	030f1300 	movweq	r1, #62208	; 0xf300
     c8c:	52010000 	andpl	r0, r1, #0
     c90:	0000002c 	andeq	r0, r0, ip, lsr #32
     c94:	0000073c 	andeq	r0, r0, ip, lsr r7
     c98:	84801400 	strhi	r1, [r0], #1024	; 0x400
     c9c:	06800000 	streq	r0, [r0], r0
     ca0:	9c150000 	ldcls	0, cr0, [r5], {-0}
     ca4:	87000084 	strhi	r0, [r0, -r4, lsl #1]
     ca8:	a3000006 	movwge	r0, #6
     cac:	16000002 	strne	r0, [r0], -r2
     cb0:	08025301 	stmdaeq	r2, {r0, r8, r9, ip, lr}
     cb4:	52011675 	andpl	r1, r1, #122683392	; 0x7500000
     cb8:	99c00305 	stmibls	r0, {r0, r2, r8, r9}^
     cbc:	01160000 	tsteq	r6, r0
     cc0:	f8030551 			; <UNDEFINED> instruction: 0xf8030551
     cc4:	16000099 			; <UNDEFINED> instruction: 0x16000099
     cc8:	03055001 	movweq	r5, #20481	; 0x5001
     ccc:	000099e4 	andeq	r9, r0, r4, ror #19
     cd0:	007d0216 	rsbseq	r0, sp, r6, lsl r2
     cd4:	9a0c0305 	bls	3018f0 <__bss_end__+0x2f78e8>
     cd8:	14000000 	strne	r0, [r0], #-0
     cdc:	000084a0 	andeq	r8, r0, r0, lsr #9
     ce0:	0000069d 	muleq	r0, sp, r6
     ce4:	0084ac15 	addeq	sl, r4, r5, lsl ip
     ce8:	0000e000 	andeq	lr, r0, r0
     cec:	0002c100 	andeq	ip, r2, r0, lsl #2
     cf0:	51011600 	tstpl	r1, r0, lsl #12
     cf4:	7fa09103 	svcvc	0x00a09103
     cf8:	84c01700 	strbhi	r1, [r0], #1792	; 0x700
     cfc:	01300000 	teqeq	r0, r0
     d00:	01160000 	tsteq	r6, r0
     d04:	a0910353 	addsge	r0, r1, r3, asr r3
     d08:	5101167f 	tstpl	r1, pc, ror r6
     d0c:	16007402 	strne	r7, [r0], -r2, lsl #8
     d10:	75025001 	strvc	r5, [r2, #-1]
     d14:	18000000 	stmdane	r0, {}	; <UNPREDICTABLE>
     d18:	0000007a 	andeq	r0, r0, sl, ror r0
     d1c:	000002ef 	andeq	r0, r0, pc, ror #5
     d20:	00006b19 	andeq	r6, r0, r9, lsl fp
     d24:	18003f00 	stmdane	r0, {r8, r9, sl, fp, ip, sp}
     d28:	0000007a 	andeq	r0, r0, sl, ror r0
     d2c:	000002ff 	strdeq	r0, [r0], -pc	; <UNPREDICTABLE>
     d30:	00006b19 	andeq	r6, r0, r9, lsl fp
     d34:	06000400 	streq	r0, [r0], -r0, lsl #8
     d38:	000002ef 	andeq	r0, r0, pc, ror #5
     d3c:	00034c1a 	andeq	r4, r3, sl, lsl ip
     d40:	e81f0100 	ldmda	pc, {r8}	; <UNPREDICTABLE>
     d44:	68000084 	stmdavs	r0, {r2, r7}
     d48:	01000000 	mrseq	r0, (UNDEF: 0)
     d4c:	0003929c 	muleq	r3, ip, r2
     d50:	03610d00 	cmneq	r1, #0, 26
     d54:	1f010000 	svcne	0x00010000
     d58:	000003a1 	andeq	r0, r0, r1, lsr #7
     d5c:	00000768 	andeq	r0, r0, r8, ror #14
     d60:	0003250d 	andeq	r2, r3, sp, lsl #10
     d64:	b61f0100 	ldrlt	r0, [pc], -r0, lsl #2
     d68:	94000003 	strls	r0, [r0], #-3
     d6c:	11000007 	tstne	r0, r7
     d70:	000001ad 	andeq	r0, r0, sp, lsr #3
     d74:	000003cc 	andeq	r0, r0, ip, asr #7
     d78:	99c80305 	stmibls	r8, {r0, r2, r8, r9}^
     d7c:	fc140000 	ldc2	0, cr0, [r4], {-0}
     d80:	80000084 	andhi	r0, r0, r4, lsl #1
     d84:	15000006 	strne	r0, [r0, #-6]
     d88:	00008518 	andeq	r8, r0, r8, lsl r5
     d8c:	00000687 	andeq	r0, r0, r7, lsl #13
     d90:	00000388 	andeq	r0, r0, r8, lsl #7
     d94:	02530116 	subseq	r0, r3, #-2147483643	; 0x80000005
     d98:	01162008 	tsteq	r6, r8
     d9c:	c8030552 	stmdagt	r3, {r1, r4, r6, r8, sl}
     da0:	16000099 			; <UNDEFINED> instruction: 0x16000099
     da4:	03055101 	movweq	r5, #20737	; 0x5101
     da8:	000099f8 	strdeq	r9, [r0], -r8
     dac:	05500116 	ldrbeq	r0, [r0, #-278]	; 0x116
     db0:	0099e403 	addseq	lr, r9, r3, lsl #8
     db4:	7d021600 	stcvc	6, cr1, [r2, #-0]
     db8:	34030500 	strcc	r0, [r3], #-1280	; 0x500
     dbc:	0000009a 	muleq	r0, sl, r0
     dc0:	00851c14 	addeq	r1, r5, r4, lsl ip
     dc4:	00069d00 	andeq	r9, r6, r0, lsl #26
     dc8:	251b0000 	ldrcs	r0, [fp, #-0]
     dcc:	a1000000 	mrsge	r0, (UNDEF: 0)
     dd0:	1c000003 	stcne	0, cr0, [r0], {3}
     dd4:	00000025 	andeq	r0, r0, r5, lsr #32
     dd8:	92040500 	andls	r0, r4, #0, 10
     ddc:	1b000003 	blne	df0 <_start-0x7210>
     de0:	00000025 	andeq	r0, r0, r5, lsr #32
     de4:	000003b6 			; <UNDEFINED> instruction: 0x000003b6
     de8:	0000811c 	andeq	r8, r0, ip, lsl r1
     dec:	04050000 	streq	r0, [r5], #-0
     df0:	000003a7 	andeq	r0, r0, r7, lsr #7
     df4:	00007a18 	andeq	r7, r0, r8, lsl sl
     df8:	0003cc00 	andeq	ip, r3, r0, lsl #24
     dfc:	006b1900 	rsbeq	r1, fp, r0, lsl #18
     e00:	000e0000 	andeq	r0, lr, r0
     e04:	0003bc06 	andeq	fp, r3, r6, lsl #24
     e08:	025a1d00 	subseq	r1, sl, #0, 26
     e0c:	7d010000 	stcvc	0, cr0, [r1, #-0]
     e10:	00000025 	andeq	r0, r0, r5, lsr #32
     e14:	00008550 	andeq	r8, r0, r0, asr r5
     e18:	00000294 	muleq	r0, r4, r2
     e1c:	06459c01 	strbeq	r9, [r5], -r1, lsl #24
     e20:	620b0000 	andvs	r0, fp, #0
     e24:	01006675 	tsteq	r0, r5, ror r6
     e28:	0000747d 	andeq	r7, r0, sp, ror r4
     e2c:	0007c000 	andeq	ip, r7, r0
     e30:	006e0b00 	rsbeq	r0, lr, r0, lsl #22
     e34:	00257d01 	eoreq	r7, r5, r1, lsl #26
     e38:	07ec0000 	strbeq	r0, [ip, r0]!
     e3c:	660b0000 	strvs	r0, [fp], -r0
     e40:	0100746d 	tsteq	r0, sp, ror #8
     e44:	0000817d 	andeq	r8, r0, sp, ror r1
     e48:	00081a00 	andeq	r1, r8, r0, lsl #20
     e4c:	02b20d00 	adcseq	r0, r2, #0, 26
     e50:	7d010000 	stcvc	0, cr0, [r1, #-0]
     e54:	000000ae 	andeq	r0, r0, lr, lsr #1
     e58:	0000084e 	andeq	r0, r0, lr, asr #16
     e5c:	01007010 	tsteq	r0, r0, lsl r0
     e60:	0000747e 	andeq	r7, r0, lr, ror r4
     e64:	00086100 	andeq	r6, r8, r0, lsl #2
     e68:	00651000 	rsbeq	r1, r5, r0
     e6c:	00747e01 	rsbseq	r7, r4, r1, lsl #28
     e70:	08df0000 	ldmeq	pc, {}^	; <UNPREDICTABLE>
     e74:	ad110000 	ldcge	0, cr0, [r1, #-0]
     e78:	55000001 	strpl	r0, [r0, #-1]
     e7c:	05000006 	streq	r0, [r0, #-6]
     e80:	0099d803 	addseq	sp, r9, r3, lsl #16
     e84:	00001e00 	andeq	r1, r0, r0, lsl #28
     e88:	73100000 	tstvc	r0, #0
     e8c:	748b0100 	strvc	r0, [fp], #256	; 0x100
     e90:	06000000 	streq	r0, [r0], -r0
     e94:	0f000009 	svceq	0x00000009
     e98:	006d756e 	rsbeq	r7, sp, lr, ror #10
     e9c:	065a8b01 	ldrbeq	r8, [sl], -r1, lsl #22
     ea0:	91030000 	mrsls	r0, (UNDEF: 3)
     ea4:	5b137ed8 	blpl	4e0a0c <__bss_end__+0x4d6a04>
     ea8:	01000003 	tsteq	r0, r3
     eac:	00002c8c 	andeq	r2, r0, ip, lsl #25
     eb0:	00095b00 	andeq	r5, r9, r0, lsl #22
     eb4:	85d41500 	ldrbhi	r1, [r4, #1280]	; 0x500
     eb8:	00b90000 	adcseq	r0, r9, r0
     ebc:	04910000 	ldreq	r0, [r1], #0
     ec0:	01160000 	tsteq	r6, r0
     ec4:	00750250 	rsbseq	r0, r5, r0, asr r2
     ec8:	85e81400 	strbhi	r1, [r8, #1024]!	; 0x400
     ecc:	06800000 	streq	r0, [r0], r0
     ed0:	04150000 	ldreq	r0, [r5], #-0
     ed4:	87000086 	strhi	r0, [r0, -r6, lsl #1]
     ed8:	d3000006 	movwle	r0, #6
     edc:	16000004 	strne	r0, [r0], -r4
     ee0:	08025301 	stmdaeq	r2, {r0, r8, r9, ip, lr}
     ee4:	52011692 	andpl	r1, r1, #153092096	; 0x9200000
     ee8:	99d80305 	ldmibls	r8, {r0, r2, r8, r9}^
     eec:	01160000 	tsteq	r6, r0
     ef0:	f8030551 			; <UNDEFINED> instruction: 0xf8030551
     ef4:	16000099 			; <UNDEFINED> instruction: 0x16000099
     ef8:	03055001 	movweq	r5, #20481	; 0x5001
     efc:	000099e4 	andeq	r9, r0, r4, ror #19
     f00:	007d0216 	rsbseq	r0, sp, r6, lsl r2
     f04:	9a3c0305 	bls	f01b20 <__bss_end__+0xef7b18>
     f08:	14000000 	strne	r0, [r0], #-0
     f0c:	00008608 	andeq	r8, r0, r8, lsl #12
     f10:	0000069d 	muleq	r0, sp, r6
     f14:	00867814 	addeq	r7, r6, r4, lsl r8
     f18:	00068000 	andeq	r8, r6, r0
     f1c:	868c1500 	strhi	r1, [ip], r0, lsl #10
     f20:	06870000 	streq	r0, [r7], r0
     f24:	05140000 	ldreq	r0, [r4, #-0]
     f28:	01160000 	tsteq	r6, r0
     f2c:	98080253 	stmdals	r8, {r0, r1, r4, r6, r9}
     f30:	05520116 	ldrbeq	r0, [r2, #-278]	; 0x116
     f34:	0099d803 	addseq	sp, r9, r3, lsl #16
     f38:	51011600 	tstpl	r1, r0, lsl #12
     f3c:	99f80305 	ldmibls	r8!, {r0, r2, r8, r9}^
     f40:	01160000 	tsteq	r6, r0
     f44:	48030550 	stmdami	r3, {r4, r6, r8, sl}
     f48:	0000009a 	muleq	r0, sl, r0
     f4c:	00869014 	addeq	r9, r6, r4, lsl r0
     f50:	00069d00 	andeq	r9, r6, r0, lsl #26
     f54:	86b41500 	ldrthi	r1, [r4], r0, lsl #10
     f58:	019c0000 	orrseq	r0, ip, r0
     f5c:	054a0000 	strbeq	r0, [sl, #-0]
     f60:	01160000 	tsteq	r6, r0
     f64:	80080252 	andhi	r0, r8, r2, asr r2
     f68:	03510116 	cmpeq	r1, #-2147483643	; 0x80000005
     f6c:	167ed091 			; <UNDEFINED> instruction: 0x167ed091
     f70:	3a015001 	bcc	54f7c <__bss_end__+0x4af74>
     f74:	047d0216 	ldrbteq	r0, [sp], #-534	; 0x216
     f78:	02163101 	andseq	r3, r6, #1073741824	; 0x40000000
     f7c:	7702007d 	smlsdxvc	r2, sp, r0, r0
     f80:	d8150000 	ldmdale	r5, {}	; <UNPREDICTABLE>
     f84:	9c000086 	stcls	0, cr0, [r0], {134}	; 0x86
     f88:	78000001 	stmdavc	r0, {r0}
     f8c:	16000005 	strne	r0, [r0], -r5
     f90:	08025201 	stmdaeq	r2, {r0, r9, ip, lr}
     f94:	51011680 	smlabbpl	r1, r0, r6, r1
     f98:	7ed09103 	atnvcs	f1, f3
     f9c:	01500116 	cmpeq	r0, r6, lsl r1
     fa0:	7d02163a 	stcvc	6, cr1, [r2, #-232]	; 0xffffff18
     fa4:	007b0204 	rsbseq	r0, fp, r4, lsl #4
     fa8:	007d0216 	rsbseq	r0, sp, r6, lsl r2
     fac:	00007702 	andeq	r7, r0, r2, lsl #14
     fb0:	0086fc15 	addeq	pc, r6, r5, lsl ip	; <UNPREDICTABLE>
     fb4:	00019c00 	andeq	r9, r1, r0, lsl #24
     fb8:	0005a600 	andeq	sl, r5, r0, lsl #12
     fbc:	52011600 	andpl	r1, r1, #0, 12
     fc0:	16800802 	strne	r0, [r0], r2, lsl #16
     fc4:	91035101 	tstls	r3, r1, lsl #2
     fc8:	01167ed0 			; <UNDEFINED> instruction: 0x01167ed0
     fcc:	16400150 			; <UNDEFINED> instruction: 0x16400150
     fd0:	02047d02 	andeq	r7, r4, #2, 26	; 0x80
     fd4:	0216007b 	andseq	r0, r6, #123	; 0x7b
     fd8:	7702007d 	smlsdxvc	r2, sp, r0, r0
     fdc:	20150000 	andscs	r0, r5, r0
     fe0:	9c000087 	stcls	0, cr0, [r0], {135}	; 0x87
     fe4:	d4000001 	strle	r0, [r0], #-1
     fe8:	16000005 	strne	r0, [r0], -r5
     fec:	08025201 	stmdaeq	r2, {r0, r9, ip, lr}
     ff0:	51011680 	smlabbpl	r1, r0, r6, r1
     ff4:	7ed09103 	atnvcs	f1, f3
     ff8:	01500116 	cmpeq	r0, r6, lsl r1
     ffc:	7d021632 	stcvc	6, cr1, [r2, #-200]	; 0xffffff38
    1000:	007b0204 	rsbseq	r0, fp, r4, lsl #4
    1004:	007d0216 	rsbseq	r0, sp, r6, lsl r2
    1008:	00007702 	andeq	r7, r0, r2, lsl #14
    100c:	00875015 	addeq	r5, r7, r5, lsl r0
    1010:	00019c00 	andeq	r9, r1, r0, lsl #24
    1014:	00060200 	andeq	r0, r6, r0, lsl #4
    1018:	52011600 	andpl	r1, r1, #0, 12
    101c:	16800802 	strne	r0, [r0], r2, lsl #16
    1020:	91035101 	tstls	r3, r1, lsl #2
    1024:	01167ed0 			; <UNDEFINED> instruction: 0x01167ed0
    1028:	16380150 			; <UNDEFINED> instruction: 0x16380150
    102c:	02047d02 	andeq	r7, r4, #2, 26	; 0x80
    1030:	0216007b 	andseq	r0, r6, #123	; 0x7b
    1034:	7702007d 	smlsdxvc	r2, sp, r0, r0
    1038:	58140000 	ldmdapl	r4, {}	; <UNPREDICTABLE>
    103c:	80000087 	andhi	r0, r0, r7, lsl #1
    1040:	15000006 	strne	r0, [r0, #-6]
    1044:	00008774 	andeq	r8, r0, r4, ror r7
    1048:	00000687 	andeq	r0, r0, r7, lsl #13
    104c:	0000063a 	andeq	r0, r0, sl, lsr r6
    1050:	02530116 	subseq	r0, r3, #-2147483643	; 0x80000005
    1054:	0116b908 	tsteq	r6, r8, lsl #18
    1058:	d8030552 	stmdale	r3, {r1, r4, r6, r8, sl}
    105c:	16000099 			; <UNDEFINED> instruction: 0x16000099
    1060:	03055101 	movweq	r5, #20737	; 0x5101
    1064:	000099f8 	strdeq	r9, [r0], -r8
    1068:	05500116 	ldrbeq	r0, [r0, #-278]	; 0x116
    106c:	009a7003 	addseq	r7, sl, r3
    1070:	78140000 	ldmdavc	r4, {}	; <UNPREDICTABLE>
    1074:	9d000087 	stcls	0, cr0, [r0, #-540]	; 0xfffffde4
    1078:	00000006 	andeq	r0, r0, r6
    107c:	007a1800 	rsbseq	r1, sl, r0, lsl #16
    1080:	06550000 	ldrbeq	r0, [r5], -r0
    1084:	6b190000 	blvs	64108c <__bss_end__+0x637084>
    1088:	09000000 	stmdbeq	r0, {}	; <UNPREDICTABLE>
    108c:	06450600 	strbeq	r0, [r5], -r0, lsl #12
    1090:	7a180000 	bvc	601098 <__bss_end__+0x5f7090>
    1094:	6a000000 	bvs	109c <_start-0x6f64>
    1098:	19000006 	stmdbne	r0, {r1, r2}
    109c:	0000006b 	andeq	r0, r0, fp, rrx
    10a0:	cd1f007f 	ldcgt	0, cr0, [pc, #-508]	; eac <_start-0x7154>
    10a4:	03000002 	movweq	r0, #2
    10a8:	0003a11d 	andeq	sl, r3, sp, lsl r1
    10ac:	030a1f00 	movweq	r1, #44800	; 0xaf00
    10b0:	22030000 	andcs	r0, r3, #0
    10b4:	000003b6 			; <UNDEFINED> instruction: 0x000003b6
    10b8:	0001d720 	andeq	sp, r1, r0, lsr #14
    10bc:	211e0300 	tstcs	lr, r0, lsl #6
    10c0:	0000025d 	andeq	r0, r0, sp, asr r2
    10c4:	00252903 	eoreq	r2, r5, r3, lsl #18
    10c8:	069d0000 	ldreq	r0, [sp], r0
    10cc:	811c0000 	tsthi	ip, r0
    10d0:	22000000 	andcs	r0, r0, #0
    10d4:	00612000 	rsbeq	r2, r1, r0
    10d8:	66030000 	strvs	r0, [r3], -r0
    10dc:	0000ff00 	andeq	pc, r0, r0, lsl #30
    10e0:	d2000400 	andle	r0, r0, #0, 8
    10e4:	04000006 	streq	r0, [r0], #-6
    10e8:	00020301 	andeq	r0, r2, r1, lsl #6
    10ec:	03790100 	cmneq	r9, #0, 2
    10f0:	026e0000 	rsbeq	r0, lr, #0
    10f4:	87e40000 	strbhi	r0, [r4, r0]!
    10f8:	00280000 	eoreq	r0, r8, r0
    10fc:	05bf0000 	ldreq	r0, [pc, #0]!	; 1104 <_start-0x6efc>
    1100:	04020000 	streq	r0, [r2], #-0
    1104:	746e6905 	strbtvc	r6, [lr], #-2309	; 0x905
    1108:	07040300 	streq	r0, [r4, -r0, lsl #6]
    110c:	0000003c 	andeq	r0, r0, ip, lsr r0
    1110:	4b060103 	blmi	181524 <__bss_end__+0x17751c>
    1114:	03000000 	movweq	r0, #0
    1118:	00f80502 	rscseq	r0, r8, r2, lsl #10
    111c:	04030000 	streq	r0, [r3], #-0
    1120:	00000505 	andeq	r0, r0, r5, lsl #10
    1124:	05080300 	streq	r0, [r8, #-768]	; 0x300
    1128:	00000000 	andeq	r0, r0, r0
    112c:	49080103 	stmdbmi	r8, {r0, r1, r8}
    1130:	03000000 	movweq	r0, #0
    1134:	00e50702 	rsceq	r0, r5, r2, lsl #14
    1138:	04030000 	streq	r0, [r3], #-0
    113c:	00003707 	andeq	r3, r0, r7, lsl #14
    1140:	07080300 	streq	r0, [r8, -r0, lsl #6]
    1144:	00000032 	andeq	r0, r0, r2, lsr r0
    1148:	6d070403 	cfstrsvs	mvf0, [r7, #-12]
    114c:	03000001 	movweq	r0, #1
    1150:	00520801 	subseq	r0, r2, r1, lsl #16
    1154:	04040000 	streq	r0, [r4], #-0
    1158:	0000007f 	andeq	r0, r0, pc, ror r0
    115c:	00007205 	andeq	r7, r0, r5, lsl #4
    1160:	00610600 	rsbeq	r0, r1, r0, lsl #12
    1164:	04010000 	streq	r0, [r1], #-0
    1168:	000087e4 	andeq	r8, r0, r4, ror #15
    116c:	00000028 	andeq	r0, r0, r8, lsr #32
    1170:	00ca9c01 	sbceq	r9, sl, r1, lsl #24
    1174:	f8070000 			; <UNDEFINED> instruction: 0xf8070000
    1178:	ac000087 	stcge	0, cr0, [r0], {135}	; 0x87
    117c:	08000000 	stmdaeq	r0, {}	; <UNPREDICTABLE>
    1180:	03055001 	movweq	r5, #20481	; 0x5001
    1184:	00009aa8 	andeq	r9, r0, r8, lsr #21
    1188:	88000900 	stmdahi	r0, {r8, fp}
    118c:	00ea0000 	rsceq	r0, sl, r0
    1190:	00c00000 	sbceq	r0, r0, r0
    1194:	01080000 	mrseq	r0, (UNDEF: 8)
    1198:	64080250 	strvs	r0, [r8], #-592	; 0x250
    119c:	88040a00 	stmdahi	r4, {r9, fp}
    11a0:	00fb0000 	rscseq	r0, fp, r0
    11a4:	0b000000 	bleq	11ac <_start-0x6e54>
    11a8:	00000025 	andeq	r0, r0, r5, lsr #32
    11ac:	000000d9 	ldrdeq	r0, [r0], -r9
    11b0:	0000790c 	andeq	r7, r0, ip, lsl #18
    11b4:	0a0d0000 	beq	3411bc <__bss_end__+0x3371b4>
    11b8:	02000003 	andeq	r0, r0, #3
    11bc:	0000e422 	andeq	lr, r0, r2, lsr #8
    11c0:	ca040400 	bgt	1021c8 <__bss_end__+0xf81c0>
    11c4:	0e000000 	cdpeq	0, 0, cr0, cr0, cr0, {0}
    11c8:	00000393 	muleq	r0, r3, r3
    11cc:	00fb5002 	rscseq	r5, fp, r2
    11d0:	2c0c0000 	stccs	0, cr0, [ip], {-0}
    11d4:	00000000 	andeq	r0, r0, r0
    11d8:	00036e0f 	andeq	r6, r3, pc, lsl #28
    11dc:	00630200 	rsbeq	r0, r3, r0, lsl #4
    11e0:	000002dd 	ldrdeq	r0, [r0], -sp
    11e4:	079c0004 	ldreq	r0, [ip, r4]
    11e8:	01040000 	mrseq	r0, (UNDEF: 4)
    11ec:	00000203 	andeq	r0, r0, r3, lsl #4
    11f0:	00047e01 	andeq	r7, r4, r1, lsl #28
    11f4:	00026e00 	andeq	r6, r2, r0, lsl #28
    11f8:	00880c00 	addeq	r0, r8, r0, lsl #24
    11fc:	0000b000 	andeq	fp, r0, r0
    1200:	00065600 	andeq	r5, r6, r0, lsl #12
    1204:	05040200 	streq	r0, [r4, #-512]	; 0x200
    1208:	00746e69 	rsbseq	r6, r4, r9, ror #28
    120c:	3c070403 	cfstrscc	mvf0, [r7], {3}
    1210:	03000000 	movweq	r0, #0
    1214:	004b0601 	subeq	r0, fp, r1, lsl #12
    1218:	02030000 	andeq	r0, r3, #0
    121c:	0000f805 	andeq	pc, r0, r5, lsl #16
    1220:	05040300 	streq	r0, [r4, #-768]	; 0x300
    1224:	00000005 	andeq	r0, r0, r5
    1228:	00050803 	andeq	r0, r5, r3, lsl #16
    122c:	04000000 	streq	r0, [r0], #-0
    1230:	00000447 	andeq	r0, r0, r7, asr #8
    1234:	005a2e02 	subseq	r2, sl, r2, lsl #28
    1238:	01030000 	mrseq	r0, (UNDEF: 3)
    123c:	00004908 	andeq	r4, r0, r8, lsl #18
    1240:	07020300 	streq	r0, [r2, -r0, lsl #6]
    1244:	000000e5 	andeq	r0, r0, r5, ror #1
    1248:	00049e04 	andeq	r9, r4, r4, lsl #28
    124c:	73340200 	teqvc	r4, #0, 4
    1250:	03000000 	movweq	r0, #0
    1254:	00370704 	eorseq	r0, r7, r4, lsl #14
    1258:	08030000 	stmdaeq	r3, {}	; <UNPREDICTABLE>
    125c:	00003207 	andeq	r3, r0, r7, lsl #4
    1260:	07040300 	streq	r0, [r4, -r0, lsl #6]
    1264:	0000016d 	andeq	r0, r0, sp, ror #2
    1268:	52080103 	andpl	r0, r8, #-1073741824	; 0xc0000000
    126c:	05000000 	streq	r0, [r0, #-0]
    1270:	00009504 	andeq	r9, r0, r4, lsl #10
    1274:	00880600 	addeq	r0, r8, r0, lsl #12
    1278:	0c070000 	stceq	0, cr0, [r7], {-0}
    127c:	00d10e03 	sbcseq	r0, r1, r3, lsl #28
    1280:	74080000 	strvc	r0, [r8], #-0
    1284:	0f030078 	svceq	0x00030078
    1288:	0000004f 	andeq	r0, r0, pc, asr #32
    128c:	78720800 	ldmdavc	r2!, {fp}^
    1290:	4f0f0300 	svcmi	0x000f0300
    1294:	01000000 	mrseq	r0, (UNDEF: 0)
    1298:	00041509 	andeq	r1, r4, r9, lsl #10
    129c:	68100300 	ldmdavs	r0, {r8, r9}
    12a0:	04000000 	streq	r0, [r0], #-0
    12a4:	0003c609 	andeq	ip, r3, r9, lsl #12
    12a8:	68110300 	ldmdavs	r1, {r8, r9}
    12ac:	08000000 	stmdaeq	r0, {}	; <UNPREDICTABLE>
    12b0:	03fe0400 	mvnseq	r0, #0, 8
    12b4:	12030000 	andne	r0, r3, #0
    12b8:	0000009a 	muleq	r0, sl, r0
    12bc:	1004010a 	andne	r0, r4, sl, lsl #2
    12c0:	000000f7 	strdeq	r0, [r0], -r7
    12c4:	00041a0b 	andeq	r1, r4, fp, lsl #20
    12c8:	080b0100 	stmdaeq	fp, {r8}
    12cc:	02000004 	andeq	r0, r0, #4
    12d0:	0003f00b 	andeq	pc, r3, fp
    12d4:	04000300 	streq	r0, [r0], #-768	; 0x300
    12d8:	0000042f 	andeq	r0, r0, pc, lsr #8
    12dc:	00dc1004 	sbcseq	r1, ip, r4
    12e0:	14070000 	strne	r0, [r7], #-0
    12e4:	012f1404 	teqeq	pc, r4, lsl #8
    12e8:	a7090000 	strge	r0, [r9, -r0]
    12ec:	04000004 	streq	r0, [r0], #-4
    12f0:	00002c15 	andeq	r2, r0, r5, lsl ip
    12f4:	92090000 	andls	r0, r9, #0
    12f8:	04000004 	streq	r0, [r0], #-4
    12fc:	0000f718 	andeq	pc, r0, r8, lsl r7	; <UNPREDICTABLE>
    1300:	5d090400 	cfstrspl	mvf0, [r9, #-0]
    1304:	04000004 	streq	r0, [r0], #-4
    1308:	0000d11b 	andeq	sp, r0, fp, lsl r1
    130c:	04000800 	streq	r0, [r0], #-2048	; 0x800
    1310:	0000044f 	andeq	r0, r0, pc, asr #8
    1314:	01022004 	tsteq	r2, r4
    1318:	9c0c0000 	stcls	0, cr0, [ip], {-0}
    131c:	01000003 	tsteq	r0, r3
    1320:	00002506 	andeq	r2, r0, r6, lsl #10
    1324:	00880c00 	addeq	r0, r8, r0, lsl #24
    1328:	00002000 	andeq	r2, r0, r0
    132c:	7a9c0100 	bvc	fe701734 <__bss_end__+0xfe6f772c>
    1330:	0d000001 	stceq	0, cr0, [r0, #-4]
    1334:	06010063 	streq	r0, [r1], -r3, rrx
    1338:	00000025 	andeq	r0, r0, r5, lsr #32
    133c:	00000985 	andeq	r0, r0, r5, lsl #19
    1340:	0088200e 	addeq	r2, r8, lr
    1344:	00027a00 	andeq	r7, r2, r0, lsl #20
    1348:	51010f00 	tstpl	r1, r0, lsl #30
    134c:	0f007402 	svceq	0x00007402
    1350:	03055001 	movweq	r5, #20481	; 0x5001
    1354:	00009ffc 	strdeq	r9, [r0], -ip
    1358:	27100000 	ldrcs	r0, [r0, -r0]
    135c:	01000004 	tsteq	r0, r4
    1360:	00882c0b 	addeq	r2, r8, fp, lsl #24
    1364:	00009000 	andeq	r9, r0, r0
    1368:	279c0100 	ldrcs	r0, [ip, r0, lsl #2]
    136c:	11000002 	tstne	r0, r2
    1370:	000003b0 			; <UNDEFINED> instruction: 0x000003b0
    1374:	00250c01 	eoreq	r0, r5, r1, lsl #24
    1378:	72110000 	andsvc	r0, r1, #0
    137c:	01000004 	tsteq	r0, r4
    1380:	0000250c 	andeq	r2, r0, ip, lsl #10
    1384:	006e1200 	rsbeq	r1, lr, r0, lsl #4
    1388:	0d010000 	stceq	0, cr0, [r1, #-0]
    138c:	73736213 	cmnvc	r3, #805306369	; 0x30000001
    1390:	270f0100 	strcs	r0, [pc, -r0, lsl #2]
    1394:	a3000002 	movwge	r0, #2
    1398:	14000009 	strne	r0, [r0], #-9
    139c:	000003be 			; <UNDEFINED> instruction: 0x000003be
    13a0:	02271001 	eoreq	r1, r7, #1
    13a4:	63130000 	tstvs	r3, #0
    13a8:	17010062 	strne	r0, [r1, -r2, rrx]
    13ac:	0000022d 	andeq	r0, r0, sp, lsr #4
    13b0:	000009c3 	andeq	r0, r0, r3, asr #19
    13b4:	00885415 	addeq	r5, r8, r5, lsl r4
    13b8:	00029600 	andeq	r9, r2, r0, lsl #12
    13bc:	88901600 	ldmhi	r0, {r9, sl, ip}
    13c0:	02a10000 	adceq	r0, r1, #0
    13c4:	01fd0000 	mvnseq	r0, r0
    13c8:	010f0000 	mrseq	r0, CPSR
    13cc:	b4030551 	strlt	r0, [r3], #-1361	; 0x551
    13d0:	0f00009a 	svceq	0x0000009a
    13d4:	03055001 	movweq	r5, #20481	; 0x5001
    13d8:	00009ffc 	strdeq	r9, [r0], -ip
    13dc:	88981600 	ldmhi	r8, {r9, sl, ip}
    13e0:	02bc0000 	adcseq	r0, ip, #0
    13e4:	02140000 	andseq	r0, r4, #0
    13e8:	010f0000 	mrseq	r0, CPSR
    13ec:	d8030550 	stmdale	r3, {r4, r6, r8, sl}
    13f0:	0000009a 	muleq	r0, sl, r0
    13f4:	00889c15 	addeq	r9, r8, r5, lsl ip
    13f8:	0002d200 	andeq	sp, r2, r0, lsl #4
    13fc:	88a01500 	stmiahi	r0!, {r8, sl, ip}
    1400:	02d90000 	sbcseq	r0, r9, #0
    1404:	05000000 	streq	r0, [r0, #-0]
    1408:	00002504 	andeq	r2, r0, r4, lsl #10
    140c:	2f040500 	svccs	0x00040500
    1410:	17000001 	strne	r0, [r0, -r1]
    1414:	000003d4 	ldrdeq	r0, [r0], -r4
    1418:	00d10501 	sbcseq	r0, r1, r1, lsl #10
    141c:	03050000 	movweq	r0, #20480	; 0x5000
    1420:	00009ffc 	strdeq	r9, [r0], -ip
    1424:	00002518 	andeq	r2, r0, r8, lsl r5
    1428:	00025300 	andeq	r5, r2, r0, lsl #6
    142c:	00251900 	eoreq	r1, r5, r0, lsl #18
    1430:	11000000 	mrsne	r0, (UNDEF: 0)
    1434:	000002cd 	andeq	r0, r0, sp, asr #5
    1438:	025e1d05 	subseq	r1, lr, #320	; 0x140
    143c:	04050000 	streq	r0, [r5], #-0
    1440:	00000244 	andeq	r0, r0, r4, asr #4
    1444:	0003b011 	andeq	fp, r3, r1, lsl r0
    1448:	250c0100 	strcs	r0, [ip, #-256]	; 0x100
    144c:	11000000 	mrsne	r0, (UNDEF: 0)
    1450:	00000472 	andeq	r0, r0, r2, ror r4
    1454:	00250c01 	eoreq	r0, r5, r1, lsl #24
    1458:	3a1a0000 	bcc	681460 <__bss_end__+0x677458>
    145c:	03000004 	movweq	r0, #4
    1460:	00029044 	andeq	r9, r2, r4, asr #32
    1464:	02901900 	addseq	r1, r0, #0, 18
    1468:	5a190000 	bpl	641470 <__bss_end__+0x637468>
    146c:	00000000 	andeq	r0, r0, r0
    1470:	00d10405 	sbcseq	r0, r1, r5, lsl #8
    1474:	651b0000 	ldrvs	r0, [fp, #-0]
    1478:	04000004 	streq	r0, [r0], #-4
    147c:	00022d2a 	andeq	r2, r2, sl, lsr #26
    1480:	03e11c00 	mvneq	r1, #0, 24
    1484:	15030000 	strne	r0, [r3, #-0]
    1488:	00000025 	andeq	r0, r0, r5, lsr #32
    148c:	000002bc 			; <UNDEFINED> instruction: 0x000002bc
    1490:	00029019 	andeq	r9, r2, r9, lsl r0
    1494:	008f1900 	addeq	r1, pc, r0, lsl #18
    1498:	001d0000 	andseq	r0, sp, r0
    149c:	00025d1c 	andeq	r5, r2, ip, lsl sp
    14a0:	25290500 	strcs	r0, [r9, #-1280]!	; 0x500
    14a4:	d2000000 	andle	r0, r0, #0
    14a8:	19000002 	stmdbne	r0, {r1}
    14ac:	0000008f 	andeq	r0, r0, pc, lsl #1
    14b0:	6e12001d 	mrcvs	0, 0, r0, cr2, cr13, {0}
    14b4:	05000000 	streq	r0, [r0, #-0]
    14b8:	036e12d1 	cmneq	lr, #268435469	; 0x1000000d
    14bc:	63050000 	movwvs	r0, #20480	; 0x5000
    14c0:	0001ad00 	andeq	sl, r1, r0, lsl #26
    14c4:	33000400 	movwcc	r0, #1024	; 0x400
    14c8:	04000009 	streq	r0, [r0], #-9
    14cc:	00020301 	andeq	r0, r2, r1, lsl #6
    14d0:	04c70100 	strbeq	r0, [r7], #256	; 0x100
    14d4:	026e0000 	rsbeq	r0, lr, #0
    14d8:	00180000 	andseq	r0, r8, r0
    14dc:	00000000 	andeq	r0, r0, r0
    14e0:	077b0000 	ldrbeq	r0, [fp, -r0]!
    14e4:	04020000 	streq	r0, [r2], #-0
    14e8:	746e6905 	strbtvc	r6, [lr], #-2309	; 0x905
    14ec:	07040300 	streq	r0, [r4, -r0, lsl #6]
    14f0:	0000003c 	andeq	r0, r0, ip, lsr r0
    14f4:	4b060103 	blmi	181908 <__bss_end__+0x177900>
    14f8:	03000000 	movweq	r0, #0
    14fc:	00f80502 	rscseq	r0, r8, r2, lsl #10
    1500:	04030000 	streq	r0, [r3], #-0
    1504:	00000505 	andeq	r0, r0, r5, lsl #10
    1508:	05080300 	streq	r0, [r8, #-768]	; 0x300
    150c:	00000000 	andeq	r0, r0, r0
    1510:	49080103 	stmdbmi	r8, {r0, r1, r8}
    1514:	03000000 	movweq	r0, #0
    1518:	00e50702 	rsceq	r0, r5, r2, lsl #14
    151c:	04030000 	streq	r0, [r3], #-0
    1520:	00003707 	andeq	r3, r0, r7, lsl #14
    1524:	07080300 	streq	r0, [r8, -r0, lsl #6]
    1528:	00000032 	andeq	r0, r0, r2, lsr r0
    152c:	6d070403 	cfstrsvs	mvf0, [r7, #-12]
    1530:	03000001 	movweq	r0, #1
    1534:	00520801 	subseq	r0, r2, r1, lsl #16
    1538:	ad040000 	stcge	0, cr0, [r4, #-0]
    153c:	01000004 	tsteq	r0, r4
    1540:	0000250e 	andeq	r2, r0, lr, lsl #10
    1544:	0088bc00 	addeq	fp, r8, r0, lsl #24
    1548:	00001800 	andeq	r1, r0, r0, lsl #16
    154c:	a29c0100 	addsge	r0, ip, #0, 2
    1550:	05000000 	streq	r0, [r0, #-0]
    1554:	00000519 	andeq	r0, r0, r9, lsl r5
    1558:	002c0f01 	eoreq	r0, ip, r1, lsl #30
    155c:	09e30000 	stmibeq	r3!, {}^	; <UNPREDICTABLE>
    1560:	06000000 	streq	r0, [r0], -r0
    1564:	000004fc 	strdeq	r0, [r0], -ip
    1568:	88d41701 	ldmhi	r4, {r0, r8, r9, sl, ip}^
    156c:	00140000 	andseq	r0, r4, r0
    1570:	9c010000 	stcls	0, cr0, [r1], {-0}
    1574:	000000c7 	andeq	r0, r0, r7, asr #1
    1578:	00051905 	andeq	r1, r5, r5, lsl #18
    157c:	2c180100 	ldfcss	f0, [r8], {-0}
    1580:	02000000 	andeq	r0, r0, #0
    1584:	0000000a 	andeq	r0, r0, sl
    1588:	00036e06 	andeq	r6, r3, r6, lsl #28
    158c:	e81f0100 	ldmda	pc, {r8}	; <UNPREDICTABLE>
    1590:	48000088 	stmdami	r0, {r3, r7}
    1594:	01000000 	mrseq	r0, (UNDEF: 0)
    1598:	0001779c 	muleq	r1, ip, r7
    159c:	05110700 	ldreq	r0, [r1, #-1792]	; 0x700
    15a0:	2a010000 	bcs	415a8 <__bss_end__+0x375a0>
    15a4:	00000177 	andeq	r0, r0, r7, ror r1
    15a8:	2010001c 	andscs	r0, r0, ip, lsl r0
    15ac:	0004f407 	andeq	pc, r4, r7, lsl #8
    15b0:	772b0100 	strvc	r0, [fp, -r0, lsl #2]!
    15b4:	24000001 	strcs	r0, [r0], #-1
    15b8:	07201000 	streq	r1, [r0, -r0]!
    15bc:	000004bb 			; <UNDEFINED> instruction: 0x000004bb
    15c0:	01772c01 	cmneq	r7, r1, lsl #24
    15c4:	00000000 	andeq	r0, r0, r0
    15c8:	db085a00 	blle	217dd0 <__bss_end__+0x20ddc8>
    15cc:	01000004 	tsteq	r0, r4
    15d0:	0001772d 	andeq	r7, r1, sp, lsr #14
    15d4:	f0092000 			; <UNDEFINED> instruction: 0xf0092000
    15d8:	79000088 	stmdbvc	r0, {r3, r7}
    15dc:	09000000 	stmdbeq	r0, {}	; <UNPREDICTABLE>
    15e0:	000088fc 	strdeq	r8, [r0], -ip
    15e4:	000000a2 	andeq	r0, r0, r2, lsr #1
    15e8:	0089040a 	addeq	r0, r9, sl, lsl #8
    15ec:	00018d00 	andeq	r8, r1, r0, lsl #26
    15f0:	00013a00 	andeq	r3, r1, r0, lsl #20
    15f4:	50010b00 	andpl	r0, r1, r0, lsl #22
    15f8:	0a004e01 	beq	14e04 <__bss_end__+0xadfc>
    15fc:	00008910 	andeq	r8, r0, r0, lsl r9
    1600:	0000019e 	muleq	r0, lr, r1
    1604:	0000015a 	andeq	r0, r0, sl, asr r1
    1608:	0551010b 	ldrbeq	r0, [r1, #-267]	; 0x10b
    160c:	0000010c 	andeq	r0, r0, ip, lsl #2
    1610:	50010b5a 	andpl	r0, r1, sl, asr fp
    1614:	00240c05 	eoreq	r0, r4, r5, lsl #24
    1618:	0c002010 	stceq	0, cr2, [r0], {16}
    161c:	0000891c 	andeq	r8, r0, ip, lsl r9
    1620:	0000019e 	muleq	r0, lr, r1
    1624:	0551010b 	ldrbeq	r0, [r1, #-267]	; 0x10b
    1628:	0000200c 	andeq	r2, r0, ip
    162c:	50010b5a 	andpl	r0, r1, sl, asr fp
    1630:	001c0c05 	andseq	r0, ip, r5, lsl #24
    1634:	00002010 	andeq	r2, r0, r0, lsl r0
    1638:	0000250d 	andeq	r2, r0, sp, lsl #10
    163c:	04b00800 	ldrteq	r0, [r0], #2048	; 0x800
    1640:	0d010000 	stceq	0, cr0, [r1, #-0]
    1644:	00000188 	andeq	r0, r0, r8, lsl #3
    1648:	002c0d10 	eoreq	r0, ip, r0, lsl sp
    164c:	930e0000 	movwls	r0, #57344	; 0xe000
    1650:	02000003 	andeq	r0, r0, #3
    1654:	00019e50 	andeq	r9, r1, r0, asr lr
    1658:	002c0f00 	eoreq	r0, ip, r0, lsl #30
    165c:	10000000 	andne	r0, r0, r0
    1660:	0000050b 	andeq	r0, r0, fp, lsl #10
    1664:	2c0f9c02 	stccs	12, cr9, [pc], {2}
    1668:	0f000000 	svceq	0x00000000
    166c:	0000002c 	andeq	r0, r0, ip, lsr #32
    1670:	01d80000 	bicseq	r0, r8, r0
    1674:	00040000 	andeq	r0, r4, r0
    1678:	00000a21 	andeq	r0, r0, r1, lsr #20
    167c:	02030104 	andeq	r0, r3, #4, 2
    1680:	3b010000 	blcc	41688 <__bss_end__+0x37680>
    1684:	6e000005 	cdpvs	0, 0, cr0, cr0, cr5, {0}
    1688:	30000002 	andcc	r0, r0, r2
    168c:	88000089 	stmdahi	r0, {r0, r3, r7}
    1690:	18000000 	stmdane	r0, {}	; <UNPREDICTABLE>
    1694:	02000008 	andeq	r0, r0, #8
    1698:	6e690504 	cdpvs	5, 6, cr0, cr9, cr4, {0}
    169c:	04030074 	streq	r0, [r3], #-116	; 0x74
    16a0:	00003c07 	andeq	r3, r0, r7, lsl #24
    16a4:	06010300 	streq	r0, [r1], -r0, lsl #6
    16a8:	0000004b 	andeq	r0, r0, fp, asr #32
    16ac:	f8050203 			; <UNDEFINED> instruction: 0xf8050203
    16b0:	03000000 	movweq	r0, #0
    16b4:	00050504 	andeq	r0, r5, r4, lsl #10
    16b8:	08030000 	stmdaeq	r3, {}	; <UNPREDICTABLE>
    16bc:	00000005 	andeq	r0, r0, r5
    16c0:	08010300 	stmdaeq	r1, {r8, r9}
    16c4:	00000049 	andeq	r0, r0, r9, asr #32
    16c8:	e5070203 	str	r0, [r7, #-515]	; 0x203
    16cc:	03000000 	movweq	r0, #0
    16d0:	00370704 	eorseq	r0, r7, r4, lsl #14
    16d4:	08030000 	stmdaeq	r3, {}	; <UNPREDICTABLE>
    16d8:	00003207 	andeq	r3, r0, r7, lsl #4
    16dc:	07040300 	streq	r0, [r4, -r0, lsl #6]
    16e0:	0000016d 	andeq	r0, r0, sp, ror #2
    16e4:	52080103 	andpl	r0, r8, #-1073741824	; 0xc0000000
    16e8:	04000000 	streq	r0, [r0], #-0
    16ec:	0000055a 	andeq	r0, r0, sl, asr r5
    16f0:	89300501 	ldmdbhi	r0!, {r0, r8, sl}
    16f4:	001c0000 	andseq	r0, ip, r0
    16f8:	9c010000 	stcls	0, cr0, [r1], {-0}
    16fc:	0000009e 	muleq	r0, lr, r0
    1700:	00055405 	andeq	r5, r5, r5, lsl #8
    1704:	2c050100 	stfcss	f0, [r5], {-0}
    1708:	2c000000 	stccs	0, cr0, [r0], {-0}
    170c:	0000000a 	andeq	r0, r0, sl
    1710:	00051e06 	andeq	r1, r5, r6, lsl #28
    1714:	2c0b0100 	stfcss	f0, [fp], {-0}
    1718:	4c000000 	stcmi	0, cr0, [r0], {-0}
    171c:	14000089 	strne	r0, [r0], #-137	; 0x89
    1720:	01000000 	mrseq	r0, (UNDEF: 0)
    1724:	0000cb9c 	muleq	r0, ip, fp
    1728:	89580700 	ldmdbhi	r8, {r8, r9, sl}^
    172c:	01ca0000 	biceq	r0, sl, r0
    1730:	01080000 	mrseq	r0, (UNDEF: 8)
    1734:	040c0550 	streq	r0, [ip], #-1360	; 0x550
    1738:	00200030 	eoreq	r0, r0, r0, lsr r0
    173c:	05700600 	ldrbeq	r0, [r0, #-1536]!	; 0x600
    1740:	10010000 	andne	r0, r1, r0
    1744:	0000002c 	andeq	r0, r0, ip, lsr #32
    1748:	00008960 	andeq	r8, r0, r0, ror #18
    174c:	0000000c 	andeq	r0, r0, ip
    1750:	00f99c01 	rscseq	r9, r9, r1, lsl #24
    1754:	75090000 	strvc	r0, [r9, #-0]
    1758:	2c140100 	ldfcss	f0, [r4], {-0}
    175c:	01000000 	mrseq	r0, (UNDEF: 0)
    1760:	89680a50 	stmdbhi	r8!, {r4, r6, r9, fp}^
    1764:	009e0000 	addseq	r0, lr, r0
    1768:	04000000 	streq	r0, [r0], #-0
    176c:	00000567 	andeq	r0, r0, r7, ror #10
    1770:	896c1901 	stmdbhi	ip!, {r0, r8, fp, ip}^
    1774:	00240000 	eoreq	r0, r4, r0
    1778:	9c010000 	stcls	0, cr0, [r1], {-0}
    177c:	00000157 	andeq	r0, r0, r7, asr r1
    1780:	0073750b 	rsbseq	r7, r3, fp, lsl #10
    1784:	002c1901 	eoreq	r1, ip, r1, lsl #18
    1788:	0a600000 	beq	1801790 <__bss_end__+0x17f7788>
    178c:	72090000 	andvc	r0, r9, #0
    1790:	1a010062 	bne	41920 <__bss_end__+0x37918>
    1794:	0000002c 	andeq	r0, r0, ip, lsr #32
    1798:	7c0c5401 	cfstrsvc	mvf5, [ip], {1}
    179c:	10000089 	andne	r0, r0, r9, lsl #1
    17a0:	4d000000 	stcmi	0, cr0, [r0, #-0]
    17a4:	0d000001 	stceq	0, cr0, [r0, #-4]
    17a8:	01006172 	tsteq	r0, r2, ror r1
    17ac:	00002c1c 	andeq	r2, r0, ip, lsl ip
    17b0:	000a7e00 	andeq	r7, sl, r0, lsl #28
    17b4:	89800a00 	stmibhi	r0, {r9, fp}
    17b8:	00cb0000 	sbceq	r0, fp, r0
    17bc:	0a000000 	beq	17c4 <_start-0x683c>
    17c0:	00008978 	andeq	r8, r0, r8, ror r9
    17c4:	000000cb 	andeq	r0, r0, fp, asr #1
    17c8:	03930400 	orrseq	r0, r3, #0, 8
    17cc:	22010000 	andcs	r0, r1, #0
    17d0:	00008990 	muleq	r0, r0, r9
    17d4:	00000014 	andeq	r0, r0, r4, lsl r0
    17d8:	01909c01 	orrseq	r9, r0, r1, lsl #24
    17dc:	6d0b0000 	stcvs	0, cr0, [fp, #-0]
    17e0:	22010073 	andcs	r0, r1, #115	; 0x73
    17e4:	0000002c 	andeq	r0, r0, ip, lsr #32
    17e8:	00000a91 	muleq	r0, r1, sl
    17ec:	0089a007 	addeq	sl, r9, r7
    17f0:	0000f900 	andeq	pc, r0, r0, lsl #18
    17f4:	50010800 	andpl	r0, r1, r0, lsl #16
    17f8:	5001f307 	andpl	pc, r1, r7, lsl #6
    17fc:	1e03e80a 	cdpne	8, 0, cr14, cr3, cr10, {0}
    1800:	31040000 	mrscc	r0, (UNDEF: 4)
    1804:	01000005 	tsteq	r0, r5
    1808:	0089a425 	addeq	sl, r9, r5, lsr #8
    180c:	00001400 	andeq	r1, r0, r0, lsl #8
    1810:	ca9c0100 	bgt	fe701c18 <__bss_end__+0xfe6f7c10>
    1814:	0b000001 	bleq	1820 <_start-0x67e0>
    1818:	00636573 	rsbeq	r6, r3, r3, ror r5
    181c:	002c2501 	eoreq	r2, ip, r1, lsl #10
    1820:	0ab20000 	beq	fec81828 <__bss_end__+0xfec77820>
    1824:	b4070000 	strlt	r0, [r7], #-0
    1828:	57000089 	strpl	r0, [r0, -r9, lsl #1]
    182c:	08000001 	stmdaeq	r0, {r0}
    1830:	f3075001 	vhadd.u8	d5, d7, d1
    1834:	e80a5001 	stmda	sl, {r0, ip, lr}
    1838:	00001e03 	andeq	r1, r0, r3, lsl #28
    183c:	00054e0e 	andeq	r4, r5, lr, lsl #28
    1840:	2ca80200 	sfmcs	f0, 4, [r8]
    1844:	0f000000 	svceq	0x00000000
    1848:	0000002c 	andeq	r0, r0, ip, lsr #32
    184c:	08820000 	stmeq	r2, {}	; <UNPREDICTABLE>
    1850:	00040000 	andeq	r0, r4, r0
    1854:	00000b04 	andeq	r0, r0, r4, lsl #22
    1858:	02030104 	andeq	r0, r3, #4, 2
    185c:	d9010000 	stmdble	r1, {}	; <UNPREDICTABLE>
    1860:	6e000005 	cdpvs	0, 0, cr0, cr0, cr5, {0}
    1864:	b8000002 	stmdalt	r0, {r1}
    1868:	a0000089 	andge	r0, r0, r9, lsl #1
    186c:	bf000005 	svclt	0x00000005
    1870:	02000008 	andeq	r0, r0, #8
    1874:	00320708 	eorseq	r0, r2, r8, lsl #14
    1878:	04020000 	streq	r0, [r2], #-0
    187c:	00003c07 	andeq	r3, r0, r7, lsl #24
    1880:	06010200 	streq	r0, [r1], -r0, lsl #4
    1884:	0000004b 	andeq	r0, r0, fp, asr #32
    1888:	f8050202 			; <UNDEFINED> instruction: 0xf8050202
    188c:	02000000 	andeq	r0, r0, #0
    1890:	00050504 	andeq	r0, r5, r4, lsl #10
    1894:	08020000 	stmdaeq	r2, {}	; <UNPREDICTABLE>
    1898:	00000005 	andeq	r0, r0, r5
    189c:	08010200 	stmdaeq	r1, {r9}
    18a0:	00000049 	andeq	r0, r0, r9, asr #32
    18a4:	e5070202 	str	r0, [r7, #-514]	; 0x202
    18a8:	02000000 	andeq	r0, r0, #0
    18ac:	00370704 	eorseq	r0, r7, r4, lsl #14
    18b0:	04030000 	streq	r0, [r3], #-0
    18b4:	746e6905 	strbtvc	r6, [lr], #-2309	; 0x905
    18b8:	07040200 	streq	r0, [r4, -r0, lsl #4]
    18bc:	0000016d 	andeq	r0, r0, sp, ror #2
    18c0:	52080102 	andpl	r0, r8, #-2147483648	; 0x80000000
    18c4:	04000000 	streq	r0, [r0], #-0
    18c8:	b20c0201 	andlt	r0, ip, #268435456	; 0x10000000
    18cc:	05000000 	streq	r0, [r0, #-0]
    18d0:	000005bc 			; <UNDEFINED> instruction: 0x000005bc
    18d4:	07360500 	ldreq	r0, [r6, -r0, lsl #10]!
    18d8:	05010000 	streq	r0, [r1, #-0]
    18dc:	0000076f 	andeq	r0, r0, pc, ror #14
    18e0:	077e0504 	ldrbeq	r0, [lr, -r4, lsl #10]!
    18e4:	05050000 	streq	r0, [r5, #-0]
    18e8:	0000078d 	andeq	r0, r0, sp, lsl #15
    18ec:	079c0506 	ldreq	r0, [ip, r6, lsl #10]
    18f0:	05070000 	streq	r0, [r7, #-0]
    18f4:	000007ab 	andeq	r0, r0, fp, lsr #15
    18f8:	07ba0503 	ldreq	r0, [sl, r3, lsl #10]!
    18fc:	00020000 	andeq	r0, r2, r0
    1900:	00076306 	andeq	r6, r7, r6, lsl #6
    1904:	79150200 	ldmdbvc	r5, {r9}
    1908:	07000000 	streq	r0, [r0, -r0]
    190c:	00000726 	andeq	r0, r0, r6, lsr #14
    1910:	89b83f01 	ldmibhi	r8!, {r0, r8, r9, sl, fp, ip, sp}
    1914:	00d40000 	sbcseq	r0, r4, r0
    1918:	9c010000 	stcls	0, cr0, [r1], {-0}
    191c:	00000133 	andeq	r0, r0, r3, lsr r1
    1920:	6e697008 	cdpvs	0, 6, cr7, cr9, cr8, {0}
    1924:	2c3f0100 	ldfcss	f0, [pc], #-0	; 192c <_start-0x66d4>
    1928:	d3000000 	movwle	r0, #0
    192c:	0900000a 	stmdbeq	r0, {r1, r3}
    1930:	00000615 	andeq	r0, r0, r5, lsl r6
    1934:	01334701 	teqeq	r3, r1, lsl #14
    1938:	0af10000 	beq	ffc41940 <__bss_end__+0xffc37938>
    193c:	c9090000 	stmdbgt	r9, {}	; <UNPREDICTABLE>
    1940:	01000007 	tsteq	r0, r7
    1944:	00002c49 	andeq	r2, r0, r9, asr #24
    1948:	000b4600 	andeq	r4, fp, r0, lsl #12
    194c:	06d00900 	ldrbeq	r0, [r0], r0, lsl #18
    1950:	57010000 	strpl	r0, [r1, -r0]
    1954:	0000002c 	andeq	r0, r0, ip, lsr #32
    1958:	00000d12 	andeq	r0, r0, r2, lsl sp
    195c:	008a4c0a 	addeq	r4, sl, sl, lsl #24
    1960:	00084100 	andeq	r4, r8, r0, lsl #2
    1964:	00012200 	andeq	r2, r1, r0, lsl #4
    1968:	50010b00 	andpl	r0, r1, r0, lsl #22
    196c:	00007502 	andeq	r7, r0, r2, lsl #10
    1970:	008a800c 	addeq	r8, sl, ip
    1974:	00086200 	andeq	r6, r8, r0, lsl #4
    1978:	50010b00 	andpl	r0, r1, r0, lsl #22
    197c:	00007502 	andeq	r7, r0, r2, lsl #10
    1980:	39040d00 	stmdbcc	r4, {r8, sl, fp}
    1984:	0e000001 	cdpeq	0, 0, cr0, cr0, cr1, {0}
    1988:	0000002c 	andeq	r0, r0, ip, lsr #32
    198c:	00070c07 	andeq	r0, r7, r7, lsl #24
    1990:	8c600100 	stfhie	f0, [r0], #-0
    1994:	3800008a 	stmdacc	r0, {r1, r3, r7}
    1998:	01000000 	mrseq	r0, (UNDEF: 0)
    199c:	0001969c 	muleq	r1, ip, r6
    19a0:	69700800 	ldmdbvs	r0!, {fp}^
    19a4:	6001006e 	andvs	r0, r1, lr, rrx
    19a8:	0000002c 	andeq	r0, r0, ip, lsr #32
    19ac:	00000d42 	andeq	r0, r0, r2, asr #26
    19b0:	00061509 	andeq	r1, r6, r9, lsl #10
    19b4:	33670100 	cmncc	r7, #0, 2
    19b8:	63000001 	movwvs	r0, #1
    19bc:	0900000d 	stmdbeq	r0, {r0, r2, r3}
    19c0:	000006d0 	ldrdeq	r0, [r0], -r0	; <UNPREDICTABLE>
    19c4:	002c6801 	eoreq	r6, ip, r1, lsl #16
    19c8:	0d990000 	ldceq	0, cr0, [r9]
    19cc:	bc0c0000 	stclt	0, cr0, [ip], {-0}
    19d0:	6200008a 	andvs	r0, r0, #138	; 0x8a
    19d4:	0b000008 	bleq	19fc <_start-0x6604>
    19d8:	31075101 	tstcc	r7, r1, lsl #2
    19dc:	4f5001f3 	svcmi	0x005001f3
    19e0:	0000241a 	andeq	r2, r0, sl, lsl r4
    19e4:	0005cc07 	andeq	ip, r5, r7, lsl #24
    19e8:	c47b0100 	ldrbtgt	r0, [fp], #-256	; 0x100
    19ec:	3800008a 	stmdacc	r0, {r1, r3, r7}
    19f0:	01000000 	mrseq	r0, (UNDEF: 0)
    19f4:	0001ee9c 	muleq	r1, ip, lr
    19f8:	69700800 	ldmdbvs	r0!, {fp}^
    19fc:	7b01006e 	blvc	41bbc <__bss_end__+0x37bb4>
    1a00:	0000002c 	andeq	r0, r0, ip, lsr #32
    1a04:	00000dd9 	ldrdeq	r0, [r0], -r9
    1a08:	00061509 	andeq	r1, r6, r9, lsl #10
    1a0c:	33810100 	orrcc	r0, r1, #0, 2
    1a10:	fa000001 	blx	1a1c <_start-0x65e4>
    1a14:	0900000d 	stmdbeq	r0, {r0, r2, r3}
    1a18:	000006d0 	ldrdeq	r0, [r0], -r0	; <UNPREDICTABLE>
    1a1c:	002c8201 	eoreq	r8, ip, r1, lsl #4
    1a20:	0e300000 	cdpeq	0, 3, cr0, cr0, cr0, {0}
    1a24:	f40c0000 	vst4.8	{d0-d3}, [ip], r0
    1a28:	6200008a 	andvs	r0, r0, #138	; 0x8a
    1a2c:	0b000008 	bleq	1a54 <_start-0x65ac>
    1a30:	31075101 	tstcc	r7, r1, lsl #2
    1a34:	4f5001f3 	svcmi	0x005001f3
    1a38:	0000241a 	andeq	r2, r0, sl, lsl r4
    1a3c:	00000e07 	andeq	r0, r0, r7, lsl #28
    1a40:	fc950100 	ldc2	1, cr0, [r5], {0}
    1a44:	cc00008a 	stcgt	0, cr0, [r0], {138}	; 0x8a
    1a48:	01000000 	mrseq	r0, (UNDEF: 0)
    1a4c:	0002649c 	muleq	r2, ip, r4
    1a50:	69700800 	ldmdbvs	r0!, {fp}^
    1a54:	9501006e 	strls	r0, [r1, #-110]	; 0x6e
    1a58:	0000002c 	andeq	r0, r0, ip, lsr #32
    1a5c:	00000e70 	andeq	r0, r0, r0, ror lr
    1a60:	00061509 	andeq	r1, r6, r9, lsl #10
    1a64:	339b0100 	orrscc	r0, fp, #0, 2
    1a68:	8e000001 	cdphi	0, 0, cr0, cr0, cr1, {0}
    1a6c:	0900000e 	stmdbeq	r0, {r1, r2, r3}
    1a70:	000007c9 	andeq	r0, r0, r9, asr #15
    1a74:	002c9d01 	eoreq	r9, ip, r1, lsl #26
    1a78:	0ee30000 	cdpeq	0, 14, cr0, cr3, cr0, {0}
    1a7c:	d0090000 	andle	r0, r9, r0
    1a80:	01000006 	tsteq	r0, r6
    1a84:	00002cab 	andeq	r2, r0, fp, lsr #25
    1a88:	0010af00 	andseq	sl, r0, r0, lsl #30
    1a8c:	8b900a00 	blhi	fe404294 <__bss_end__+0xfe3fa28c>
    1a90:	08410000 	stmdaeq	r1, {}^	; <UNPREDICTABLE>
    1a94:	02530000 	subseq	r0, r3, #0
    1a98:	010b0000 	mrseq	r0, (UNDEF: 11)
    1a9c:	00750250 	rsbseq	r0, r5, r0, asr r2
    1aa0:	8bbc0c00 	blhi	fef04aa8 <__bss_end__+0xfeefaaa0>
    1aa4:	08620000 	stmdaeq	r2!, {}^	; <UNPREDICTABLE>
    1aa8:	010b0000 	mrseq	r0, (UNDEF: 11)
    1aac:	00750250 	rsbseq	r0, r5, r0, asr r2
    1ab0:	640f0000 	strvs	r0, [pc], #-0	; 1ab8 <_start-0x6548>
    1ab4:	01000006 	tsteq	r0, r6
    1ab8:	000064b3 			; <UNDEFINED> instruction: 0x000064b3
    1abc:	008bc800 	addeq	ip, fp, r0, lsl #16
    1ac0:	00004c00 	andeq	r4, r0, r0, lsl #24
    1ac4:	ac9c0100 	ldfges	f0, [ip], {0}
    1ac8:	08000002 	stmdaeq	r0, {r1}
    1acc:	006e6970 	rsbeq	r6, lr, r0, ror r9
    1ad0:	002cb301 	eoreq	fp, ip, r1, lsl #6
    1ad4:	10cd0000 	sbcne	r0, sp, r0
    1ad8:	76100000 	ldrvc	r0, [r0], -r0
    1adc:	2cb90100 	ldfcss	f0, [r9]
    1ae0:	25000000 	strcs	r0, [r0, #-0]
    1ae4:	11000011 	tstne	r0, r1, lsl r0
    1ae8:	00008be8 	andeq	r8, r0, r8, ror #23
    1aec:	00000841 	andeq	r0, r0, r1, asr #16
    1af0:	008bf811 	addeq	pc, fp, r1, lsl r8	; <UNPREDICTABLE>
    1af4:	00084100 	andeq	r4, r8, r0, lsl #2
    1af8:	d8070000 	stmdale	r7, {}	; <UNPREDICTABLE>
    1afc:	01000006 	tsteq	r0, r6
    1b00:	008c14c5 	addeq	r1, ip, r5, asr #9
    1b04:	00002400 	andeq	r2, r0, r0, lsl #8
    1b08:	fc9c0100 	ldc2	1, cr0, [ip], {0}
    1b0c:	08000002 	stmdaeq	r0, {r1}
    1b10:	006e6970 	rsbeq	r6, lr, r0, ror r9
    1b14:	002cc501 	eoreq	ip, ip, r1, lsl #10
    1b18:	115b0000 	cmpne	fp, r0
    1b1c:	76080000 	strvc	r0, [r8], -r0
    1b20:	2cc50100 	stfcse	f0, [r5], {0}
    1b24:	95000000 	strls	r0, [r0, #-0]
    1b28:	0a000011 	beq	1b74 <_start-0x648c>
    1b2c:	00008c2c 	andeq	r8, r0, ip, lsr #24
    1b30:	0000013e 	andeq	r0, r0, lr, lsr r1
    1b34:	000002f2 	strdeq	r0, [r0], -r2
    1b38:	0350010b 	cmpeq	r0, #-1073741822	; 0xc0000002
    1b3c:	005001f3 	ldrsheq	r0, [r0], #-19	; 0xffffffed
    1b40:	008c3411 	addeq	r3, ip, r1, lsl r4
    1b44:	00019600 	andeq	r9, r1, r0, lsl #12
    1b48:	83070000 	movwhi	r0, #28672	; 0x7000
    1b4c:	01000006 	tsteq	r0, r6
    1b50:	008c38d1 	ldrdeq	r3, [ip], r1
    1b54:	0000d800 	andeq	sp, r0, r0, lsl #16
    1b58:	819c0100 	orrshi	r0, ip, r0, lsl #2
    1b5c:	08000003 	stmdaeq	r0, {r0, r1}
    1b60:	006e6970 	rsbeq	r6, lr, r0, ror r9
    1b64:	002cd101 	eoreq	sp, ip, r1, lsl #2
    1b68:	11cf0000 	bicne	r0, pc, r0
    1b6c:	ed120000 	ldc	0, cr0, [r2, #-0]
    1b70:	01000006 	tsteq	r0, r6
    1b74:	0000b2d1 	ldrdeq	fp, [r0], -r1
    1b78:	0011ed00 	andseq	lr, r1, r0, lsl #26
    1b7c:	06150900 	ldreq	r0, [r5], -r0, lsl #18
    1b80:	d9010000 	stmdble	r1, {}	; <UNPREDICTABLE>
    1b84:	00000133 	andeq	r0, r0, r3, lsr r1
    1b88:	0000120e 	andeq	r1, r0, lr, lsl #4
    1b8c:	0007c909 	andeq	ip, r7, r9, lsl #18
    1b90:	2cda0100 	ldfcse	f0, [sl], {0}
    1b94:	63000000 	movwvs	r0, #0
    1b98:	09000012 	stmdbeq	r0, {r1, r4}
    1b9c:	000006d0 	ldrdeq	r0, [r0], -r0	; <UNPREDICTABLE>
    1ba0:	002ce801 	eoreq	lr, ip, r1, lsl #16
    1ba4:	142f0000 	strtne	r0, [pc], #-0	; 1bac <_start-0x6454>
    1ba8:	d40a0000 	strle	r0, [sl], #-0
    1bac:	4100008c 	smlabbmi	r0, ip, r0, r0
    1bb0:	70000008 	andvc	r0, r0, r8
    1bb4:	0b000003 	bleq	1bc8 <_start-0x6438>
    1bb8:	76025001 	strvc	r5, [r2], -r1
    1bbc:	040c0000 	streq	r0, [ip], #-0
    1bc0:	6200008d 	andvs	r0, r0, #141	; 0x8d
    1bc4:	0b000008 	bleq	1bec <_start-0x6414>
    1bc8:	76025001 	strvc	r5, [r2], -r1
    1bcc:	07000000 	streq	r0, [r0, -r0]
    1bd0:	000006f2 	strdeq	r0, [r0], -r2
    1bd4:	8d10f101 	ldfhid	f7, [r0, #-4]
    1bd8:	00380000 	eorseq	r0, r8, r0
    1bdc:	9c010000 	stcls	0, cr0, [r1], {-0}
    1be0:	000003d9 	ldrdeq	r0, [r0], -r9
    1be4:	6e697008 	cdpvs	0, 6, cr7, cr9, cr8, {0}
    1be8:	2cf10100 	ldfcse	f0, [r1]
    1bec:	60000000 	andvs	r0, r0, r0
    1bf0:	09000014 	stmdbeq	r0, {r2, r4}
    1bf4:	00000615 	andeq	r0, r0, r5, lsl r6
    1bf8:	0133f701 	teqeq	r3, r1, lsl #14
    1bfc:	14810000 	strne	r0, [r1], #0
    1c00:	d0090000 	andle	r0, r9, r0
    1c04:	01000006 	tsteq	r0, r6
    1c08:	00002cf8 	strdeq	r2, [r0], -r8
    1c0c:	0014b700 	andseq	fp, r4, r0, lsl #14
    1c10:	8d400c00 	stclhi	12, cr0, [r0, #-0]
    1c14:	08620000 	stmdaeq	r2!, {}^	; <UNPREDICTABLE>
    1c18:	010b0000 	mrseq	r0, (UNDEF: 11)
    1c1c:	f3310751 	vaba.u<illegal width 64>	q0, <illegal reg q0.5>, <illegal reg q0.5>
    1c20:	1a4f5001 	bne	13d5c2c <__bss_end__+0x13cbc24>
    1c24:	13000024 	movwne	r0, #36	; 0x24
    1c28:	000005b0 			; <UNDEFINED> instruction: 0x000005b0
    1c2c:	64011f01 	strvs	r1, [r1], #-3841	; 0xf01
    1c30:	48000000 	stmdami	r0, {}	; <UNPREDICTABLE>
    1c34:	2c00008d 	stccs	0, cr0, [r0], {141}	; 0x8d
    1c38:	01000000 	mrseq	r0, (UNDEF: 0)
    1c3c:	00040d9c 	muleq	r4, ip, sp
    1c40:	05b31400 	ldreq	r1, [r3, #1024]!	; 0x400
    1c44:	1f010000 	svcne	0x00010000
    1c48:	00002c01 	andeq	r2, r0, r1, lsl #24
    1c4c:	0014f700 	andseq	pc, r4, r0, lsl #14
    1c50:	8d581100 	ldfhie	f1, [r8, #-0]
    1c54:	08410000 	stmdaeq	r1, {}^	; <UNPREDICTABLE>
    1c58:	15000000 	strne	r0, [r0, #-0]
    1c5c:	0000066e 	andeq	r0, r0, lr, ror #12
    1c60:	74012e01 	strvc	r2, [r1], #-3585	; 0xe01
    1c64:	8400008d 	strhi	r0, [r0], #-141	; 0x8d
    1c68:	01000000 	mrseq	r0, (UNDEF: 0)
    1c6c:	0004d19c 	muleq	r4, ip, r1
    1c70:	69701600 	ldmdbvs	r0!, {r9, sl, ip}^
    1c74:	2e01006e 	cdpcs	0, 0, cr0, cr1, cr14, {3}
    1c78:	00002c01 	andeq	r2, r0, r1, lsl #24
    1c7c:	00151800 	andseq	r1, r5, r0, lsl #16
    1c80:	05e71700 	strbeq	r1, [r7, #1792]!	; 0x700
    1c84:	40010000 	andmi	r0, r1, r0
    1c88:	00002c01 	andeq	r2, r0, r1, lsl #24
    1c8c:	00154400 	andseq	r4, r5, r0, lsl #8
    1c90:	8d901800 	ldchi	8, cr1, [r0]
    1c94:	001c0000 	andseq	r0, ip, r0
    1c98:	04730000 	ldrbteq	r0, [r3], #-0
    1c9c:	d0170000 	andsle	r0, r7, r0
    1ca0:	01000006 	tsteq	r0, r6
    1ca4:	002c0137 	eoreq	r0, ip, r7, lsr r1
    1ca8:	15620000 	strbne	r0, [r2, #-0]!
    1cac:	9c110000 	ldcls	0, cr0, [r1], {-0}
    1cb0:	4100008d 	smlabbmi	r0, sp, r0, r0
    1cb4:	11000008 	tstne	r0, r8
    1cb8:	00008dac 	andeq	r8, r0, ip, lsr #27
    1cbc:	00000862 	andeq	r0, r0, r2, ror #16
    1cc0:	8db01800 	ldchi	8, cr1, [r0]
    1cc4:	00200000 	eoreq	r0, r0, r0
    1cc8:	04a30000 	strteq	r0, [r3], #0
    1ccc:	d0170000 	andsle	r0, r7, r0
    1cd0:	01000006 	tsteq	r0, r6
    1cd4:	002c013b 	eoreq	r0, ip, fp, lsr r1
    1cd8:	15800000 	strne	r0, [r0]
    1cdc:	bc110000 	ldclt	0, cr0, [r1], {-0}
    1ce0:	4100008d 	smlabbmi	r0, sp, r0, r0
    1ce4:	11000008 	tstne	r0, r8
    1ce8:	00008dd0 	ldrdeq	r8, [r0], -r0
    1cec:	00000862 	andeq	r0, r0, r2, ror #16
    1cf0:	8d881100 	stfhis	f1, [r8]
    1cf4:	087e0000 	ldmdaeq	lr!, {}^	; <UNPREDICTABLE>
    1cf8:	d4110000 	ldrle	r0, [r1], #-0
    1cfc:	7e00008d 	cdpvc	0, 0, cr0, cr0, cr13, {4}
    1d00:	11000008 	tstne	r0, r8
    1d04:	00008de0 	andeq	r8, r0, r0, ror #27
    1d08:	00000841 	andeq	r0, r0, r1, asr #16
    1d0c:	008dec11 	addeq	lr, sp, r1, lsl ip
    1d10:	00086200 	andeq	r6, r8, r0, lsl #4
    1d14:	8df01100 	ldfhie	f1, [r0]
    1d18:	087e0000 	ldmdaeq	lr!, {}^	; <UNPREDICTABLE>
    1d1c:	15000000 	strne	r0, [r0, #-0]
    1d20:	0000074d 	andeq	r0, r0, sp, asr #14
    1d24:	f8014b01 			; <UNDEFINED> instruction: 0xf8014b01
    1d28:	8400008d 	strhi	r0, [r0], #-141	; 0x8d
    1d2c:	01000000 	mrseq	r0, (UNDEF: 0)
    1d30:	0005959c 	muleq	r5, ip, r5
    1d34:	69701600 	ldmdbvs	r0!, {r9, sl, ip}^
    1d38:	4b01006e 	blmi	41ef8 <__bss_end__+0x37ef0>
    1d3c:	00002c01 	andeq	r2, r0, r1, lsl #24
    1d40:	00159e00 	andseq	r9, r5, r0, lsl #28
    1d44:	05e71700 	strbeq	r1, [r7, #1792]!	; 0x700
    1d48:	5c010000 	stcpl	0, cr0, [r1], {-0}
    1d4c:	00002c01 	andeq	r2, r0, r1, lsl #24
    1d50:	0015ca00 	andseq	ip, r5, r0, lsl #20
    1d54:	8e141800 	cdphi	8, 1, cr1, cr4, cr0, {0}
    1d58:	001c0000 	andseq	r0, ip, r0
    1d5c:	05370000 	ldreq	r0, [r7, #-0]!
    1d60:	d0170000 	andsle	r0, r7, r0
    1d64:	01000006 	tsteq	r0, r6
    1d68:	002c0153 	eoreq	r0, ip, r3, asr r1
    1d6c:	15e80000 	strbne	r0, [r8, #0]!
    1d70:	20110000 	andscs	r0, r1, r0
    1d74:	4100008e 	smlabbmi	r0, lr, r0, r0
    1d78:	11000008 	tstne	r0, r8
    1d7c:	00008e30 	andeq	r8, r0, r0, lsr lr
    1d80:	00000862 	andeq	r0, r0, r2, ror #16
    1d84:	8e341800 	cdphi	8, 3, cr1, cr4, cr0, {0}
    1d88:	00200000 	eoreq	r0, r0, r0
    1d8c:	05670000 	strbeq	r0, [r7, #-0]!
    1d90:	d0170000 	andsle	r0, r7, r0
    1d94:	01000006 	tsteq	r0, r6
    1d98:	002c0157 	eoreq	r0, ip, r7, asr r1
    1d9c:	16060000 	strne	r0, [r6], -r0
    1da0:	40110000 	andsmi	r0, r1, r0
    1da4:	4100008e 	smlabbmi	r0, lr, r0, r0
    1da8:	11000008 	tstne	r0, r8
    1dac:	00008e54 	andeq	r8, r0, r4, asr lr
    1db0:	00000862 	andeq	r0, r0, r2, ror #16
    1db4:	8e0c1100 	adfhie	f1, f4, f0
    1db8:	087e0000 	ldmdaeq	lr!, {}^	; <UNPREDICTABLE>
    1dbc:	58110000 	ldmdapl	r1, {}	; <UNPREDICTABLE>
    1dc0:	7e00008e 	cdpvc	0, 0, cr0, cr0, cr14, {4}
    1dc4:	11000008 	tstne	r0, r8
    1dc8:	00008e64 	andeq	r8, r0, r4, ror #28
    1dcc:	00000841 	andeq	r0, r0, r1, asr #16
    1dd0:	008e7011 	addeq	r7, lr, r1, lsl r0
    1dd4:	00086200 	andeq	r6, r8, r0, lsl #4
    1dd8:	8e741100 	rpwhis	f1, f4, f0
    1ddc:	087e0000 	ldmdaeq	lr!, {}^	; <UNPREDICTABLE>
    1de0:	13000000 	movwne	r0, #0
    1de4:	0000057f 	andeq	r0, r0, pc, ror r5
    1de8:	64016601 	strvs	r6, [r1], #-1537	; 0x601
    1dec:	7c000000 	stcvc	0, cr0, [r0], {-0}
    1df0:	8400008e 	strhi	r0, [r0], #-142	; 0x8e
    1df4:	01000000 	mrseq	r0, (UNDEF: 0)
    1df8:	00063b9c 	muleq	r6, ip, fp
    1dfc:	69701600 	ldmdbvs	r0!, {r9, sl, ip}^
    1e00:	6601006e 	strvs	r0, [r1], -lr, rrx
    1e04:	00002c01 	andeq	r2, r0, r1, lsl #24
    1e08:	00162400 	andseq	r2, r6, r0, lsl #8
    1e0c:	8e981800 	cdphi	8, 9, cr1, cr8, cr0, {0}
    1e10:	00240000 	eoreq	r0, r4, r0
    1e14:	05ef0000 	strbeq	r0, [pc, #0]!	; 1e1c <_start-0x61e4>
    1e18:	fe170000 	cdp2	0, 1, cr0, cr7, cr0, {0}
    1e1c:	01000005 	tsteq	r0, r5
    1e20:	002c016d 	eoreq	r0, ip, sp, ror #2
    1e24:	16660000 	strbtne	r0, [r6], -r0
    1e28:	a4110000 	ldrge	r0, [r1], #-0
    1e2c:	4100008e 	smlabbmi	r0, lr, r0, r0
    1e30:	11000008 	tstne	r0, r8
    1e34:	00008eb4 			; <UNDEFINED> instruction: 0x00008eb4
    1e38:	0000087e 	andeq	r0, r0, lr, ror r8
    1e3c:	8ebc1800 	cdphi	8, 11, cr1, cr12, cr0, {0}
    1e40:	002c0000 	eoreq	r0, ip, r0
    1e44:	06280000 	strteq	r0, [r8], -r0
    1e48:	fe170000 	cdp2	0, 1, cr0, cr7, cr0, {0}
    1e4c:	01000005 	tsteq	r0, r5
    1e50:	002c0170 	eoreq	r0, ip, r0, ror r1
    1e54:	16800000 	strne	r0, [r0], r0
    1e58:	c8110000 	ldmdagt	r1, {}	; <UNPREDICTABLE>
    1e5c:	4100008e 	smlabbmi	r0, lr, r0, r0
    1e60:	11000008 	tstne	r0, r8
    1e64:	00008ed4 	ldrdeq	r8, [r0], -r4
    1e68:	0000087e 	andeq	r0, r0, lr, ror r8
    1e6c:	008ee011 	addeq	lr, lr, r1, lsl r0
    1e70:	00087e00 	andeq	r7, r8, r0, lsl #28
    1e74:	90110000 	andsls	r0, r1, r0
    1e78:	7e00008e 	cdpvc	0, 0, cr0, cr0, cr14, {4}
    1e7c:	11000008 	tstne	r0, r8
    1e80:	00008eec 	andeq	r8, r0, ip, ror #29
    1e84:	0000087e 	andeq	r0, r0, lr, ror r8
    1e88:	06a31500 	strteq	r1, [r3], r0, lsl #10
    1e8c:	79010000 	stmdbvc	r1, {}	; <UNPREDICTABLE>
    1e90:	008f0001 	addeq	r0, pc, r1
    1e94:	00005800 	andeq	r5, r0, r0, lsl #16
    1e98:	a09c0100 	addsge	r0, ip, r0, lsl #2
    1e9c:	16000006 	strne	r0, [r0], -r6
    1ea0:	006e6970 	rsbeq	r6, lr, r0, ror r9
    1ea4:	2c017901 	stccs	9, cr7, [r1], {1}
    1ea8:	93000000 	movwls	r0, #0
    1eac:	11000016 	tstne	r0, r6, lsl r0
    1eb0:	00008f14 	andeq	r8, r0, r4, lsl pc
    1eb4:	0000087e 	andeq	r0, r0, lr, ror r8
    1eb8:	008f300a 	addeq	r3, pc, sl
    1ebc:	00086200 	andeq	r6, r8, r0, lsl #4
    1ec0:	00068000 	andeq	r8, r6, r0
    1ec4:	51010b00 	tstpl	r1, r0, lsl #22
    1ec8:	00743104 	rsbseq	r3, r4, r4, lsl #2
    1ecc:	4c0a0024 	stcmi	0, cr0, [sl], {36}	; 0x24
    1ed0:	6200008f 	andvs	r0, r0, #143	; 0x8f
    1ed4:	96000008 	strls	r0, [r0], -r8
    1ed8:	0b000006 	bleq	1ef8 <_start-0x6108>
    1edc:	31045101 	tstcc	r4, r1, lsl #2
    1ee0:	00240074 	eoreq	r0, r4, r4, ror r0
    1ee4:	008f5011 	addeq	r5, pc, r1, lsl r0	; <UNPREDICTABLE>
    1ee8:	00087e00 	andeq	r7, r8, r0, lsl #28
    1eec:	52190000 	andspl	r0, r9, #0
    1ef0:	01000006 	tsteq	r0, r6
    1ef4:	00013328 	andeq	r3, r1, r8, lsr #6
    1ef8:	58030500 	stmdapl	r3, {r8, sl}
    1efc:	19000098 	stmdbne	r0, {r3, r4, r7}
    1f00:	000006e3 	andeq	r0, r0, r3, ror #13
    1f04:	01332901 	teqeq	r3, r1, lsl #18
    1f08:	03050000 	movweq	r0, #20480	; 0x5000
    1f0c:	00009854 	andeq	r9, r0, r4, asr r8
    1f10:	0007d419 	andeq	sp, r7, r9, lsl r4
    1f14:	332a0100 	teqcc	sl, #0, 2
    1f18:	05000001 	streq	r0, [r0, #-1]
    1f1c:	00985003 	addseq	r5, r8, r3
    1f20:	061e1900 	ldreq	r1, [lr], -r0, lsl #18
    1f24:	2c010000 	stccs	0, cr0, [r1], {-0}
    1f28:	00000133 	andeq	r0, r0, r3, lsr r1
    1f2c:	97fc0305 	ldrbls	r0, [ip, r5, lsl #6]!
    1f30:	26190000 	ldrcs	r0, [r9], -r0
    1f34:	01000006 	tsteq	r0, r6
    1f38:	0001332d 	andeq	r3, r1, sp, lsr #6
    1f3c:	00030500 	andeq	r0, r3, r0, lsl #10
    1f40:	19000098 	stmdbne	r0, {r3, r4, r7}
    1f44:	00000593 	muleq	r0, r3, r5
    1f48:	01332e01 	teqeq	r3, r1, lsl #28
    1f4c:	03050000 	movweq	r0, #20480	; 0x5000
    1f50:	00009804 	andeq	r9, r0, r4, lsl #16
    1f54:	00062e19 	andeq	r2, r6, r9, lsl lr
    1f58:	332f0100 	teqcc	pc, #0, 2
    1f5c:	05000001 	streq	r0, [r0, #-1]
    1f60:	00980803 	addseq	r0, r8, r3, lsl #16
    1f64:	06361900 	ldrteq	r1, [r6], -r0, lsl #18
    1f68:	30010000 	andcc	r0, r1, r0
    1f6c:	00000133 	andeq	r0, r0, r3, lsr r1
    1f70:	980c0305 	stmdals	ip, {r0, r2, r8, r9}
    1f74:	3e190000 	cdpcc	0, 1, cr0, cr9, cr0, {0}
    1f78:	01000006 	tsteq	r0, r6
    1f7c:	00013331 	andeq	r3, r1, r1, lsr r3
    1f80:	10030500 	andne	r0, r3, r0, lsl #10
    1f84:	19000098 	stmdbne	r0, {r3, r4, r7}
    1f88:	000005f0 	strdeq	r0, [r0], -r0	; <UNPREDICTABLE>
    1f8c:	01333301 	teqeq	r3, r1, lsl #6
    1f90:	03050000 	movweq	r0, #20480	; 0x5000
    1f94:	00009814 	andeq	r9, r0, r4, lsl r8
    1f98:	0005f719 	andeq	pc, r5, r9, lsl r7	; <UNPREDICTABLE>
    1f9c:	33340100 	teqcc	r4, #0, 2
    1fa0:	05000001 	streq	r0, [r0, #-1]
    1fa4:	00981803 	addseq	r1, r8, r3, lsl #16
    1fa8:	059b1900 	ldreq	r1, [fp, #2304]	; 0x900
    1fac:	36010000 	strcc	r0, [r1], -r0
    1fb0:	00000133 	andeq	r0, r0, r3, lsr r1
    1fb4:	981c0305 	ldmdals	ip, {r0, r2, r8, r9}
    1fb8:	5d190000 	ldcpl	0, cr0, [r9, #-0]
    1fbc:	01000006 	tsteq	r0, r6
    1fc0:	00013337 	andeq	r3, r1, r7, lsr r3
    1fc4:	20030500 	andcs	r0, r3, r0, lsl #10
    1fc8:	19000098 	stmdbne	r0, {r3, r4, r7}
    1fcc:	00000607 	andeq	r0, r0, r7, lsl #12
    1fd0:	01333901 	teqeq	r3, r1, lsl #18
    1fd4:	03050000 	movweq	r0, #20480	; 0x5000
    1fd8:	00009824 	andeq	r9, r0, r4, lsr #16
    1fdc:	00060e19 	andeq	r0, r6, r9, lsl lr
    1fe0:	333a0100 	teqcc	sl, #0, 2
    1fe4:	05000001 	streq	r0, [r0, #-1]
    1fe8:	00982803 	addseq	r2, r8, r3, lsl #16
    1fec:	06b41a00 	ldrteq	r1, [r4], r0, lsl #20
    1ff0:	0a010000 	beq	41ff8 <__bss_end__+0x37ff0>
    1ff4:	00013301 	andeq	r3, r1, r1, lsl #6
    1ff8:	4c030500 	cfstr32mi	mvfx0, [r3], {-0}
    1ffc:	1a000098 	bne	2264 <_start-0x5d9c>
    2000:	000006c2 	andeq	r0, r0, r2, asr #13
    2004:	33010b01 	movwcc	r0, #6913	; 0x1b01
    2008:	05000001 	streq	r0, [r0, #-1]
    200c:	00982c03 	addseq	r2, r8, r3, lsl #24
    2010:	06fe1a00 	ldrbteq	r1, [lr], r0, lsl #20
    2014:	0d010000 	stceq	0, cr0, [r1, #-0]
    2018:	00013301 	andeq	r3, r1, r1, lsl #6
    201c:	44030500 	strmi	r0, [r3], #-1280	; 0x500
    2020:	1a000098 	bne	2288 <_start-0x5d78>
    2024:	00000705 	andeq	r0, r0, r5, lsl #14
    2028:	33010e01 	movwcc	r0, #7681	; 0x1e01
    202c:	05000001 	streq	r0, [r0, #-1]
    2030:	00984803 	addseq	r4, r8, r3, lsl #16
    2034:	06951a00 	ldreq	r1, [r5], r0, lsl #20
    2038:	10010000 	andne	r0, r1, r0
    203c:	00013301 	andeq	r3, r1, r1, lsl #6
    2040:	30030500 	andcc	r0, r3, r0, lsl #10
    2044:	1a000098 	bne	22ac <_start-0x5d54>
    2048:	0000069c 	muleq	r0, ip, r6
    204c:	33011101 	movwcc	r1, #4353	; 0x1101
    2050:	05000001 	streq	r0, [r0, #-1]
    2054:	00983403 	addseq	r3, r8, r3, lsl #8
    2058:	07181a00 	ldreq	r1, [r8, -r0, lsl #20]
    205c:	13010000 	movwne	r0, #4096	; 0x1000
    2060:	00013301 	andeq	r3, r1, r1, lsl #6
    2064:	3c030500 	cfstr32cc	mvfx0, [r3], {-0}
    2068:	1a000098 	bne	22d0 <_start-0x5d30>
    206c:	0000071f 	andeq	r0, r0, pc, lsl r7
    2070:	33011401 	movwcc	r1, #5121	; 0x1401
    2074:	05000001 	streq	r0, [r0, #-1]
    2078:	00984003 	addseq	r4, r8, r3
    207c:	05a21a00 	streq	r1, [r2, #2560]!	; 0xa00
    2080:	16010000 	strne	r0, [r1], -r0
    2084:	00013301 	andeq	r3, r1, r1, lsl #6
    2088:	38030500 	stmdacc	r3, {r8, sl}
    208c:	1b000098 	blne	22f4 <_start-0x5d0c>
    2090:	00000747 	andeq	r0, r0, r7, asr #14
    2094:	002c2001 	eoreq	r2, ip, r1
    2098:	08560000 	ldmdaeq	r6, {}^	; <UNPREDICTABLE>
    209c:	561c0000 	ldrpl	r0, [ip], -r0
    20a0:	00000008 	andeq	r0, r0, r8
    20a4:	085c040d 	ldmdaeq	ip, {r0, r2, r3, sl}^
    20a8:	611d0000 	tstvs	sp, r0
    20ac:	1e000008 	cdpne	0, 0, cr0, cr0, cr8, {0}
    20b0:	00019c1f 	andeq	r9, r1, pc, lsl ip
    20b4:	781e0100 	ldmdavc	lr, {r8}
    20b8:	1c000008 	stcne	0, cr0, [r0], {8}
    20bc:	00000878 	andeq	r0, r0, r8, ror r8
    20c0:	00002c1c 	andeq	r2, r0, ip, lsl ip
    20c4:	040d0000 	streq	r0, [sp], #-0
    20c8:	00000861 	andeq	r0, r0, r1, ror #16
    20cc:	00064620 	andeq	r4, r6, r0, lsr #12
    20d0:	008a0300 	addeq	r0, sl, r0, lsl #6
    20d4:	000011f2 	strdeq	r1, [r0], -r2
    20d8:	0cde0004 	ldcleq	0, cr0, [lr], {4}
    20dc:	01040000 	mrseq	r0, (UNDEF: 4)
    20e0:	00000203 	andeq	r0, r0, r3, lsl #4
    20e4:	00087301 	andeq	r7, r8, r1, lsl #6
    20e8:	00026e00 	andeq	r6, r2, r0, lsl #28
    20ec:	008f5800 	addeq	r5, pc, r0, lsl #16
    20f0:	00066800 	andeq	r6, r6, r0, lsl #16
    20f4:	000a4200 	andeq	r4, sl, r0, lsl #4
    20f8:	05040200 	streq	r0, [r4, #-512]	; 0x200
    20fc:	00746e69 	rsbseq	r6, r4, r9, ror #28
    2100:	3c070403 	cfstrscc	mvf0, [r7], {3}
    2104:	03000000 	movweq	r0, #0
    2108:	004b0601 	subeq	r0, fp, r1, lsl #12
    210c:	02030000 	andeq	r0, r3, #0
    2110:	0000f805 	andeq	pc, r0, r5, lsl #16
    2114:	05040300 	streq	r0, [r4, #-768]	; 0x300
    2118:	00000005 	andeq	r0, r0, r5
    211c:	00050803 	andeq	r0, r5, r3, lsl #16
    2120:	04000000 	streq	r0, [r0], #-0
    2124:	00000447 	andeq	r0, r0, r7, asr #8
    2128:	005a2e03 	subseq	r2, sl, r3, lsl #28
    212c:	01030000 	mrseq	r0, (UNDEF: 3)
    2130:	00004908 	andeq	r4, r0, r8, lsl #18
    2134:	07020300 	streq	r0, [r2, -r0, lsl #6]
    2138:	000000e5 	andeq	r0, r0, r5, ror #1
    213c:	00049e04 	andeq	r9, r4, r4, lsl #28
    2140:	73340300 	teqvc	r4, #0, 6
    2144:	03000000 	movweq	r0, #0
    2148:	00370704 	eorseq	r0, r7, r4, lsl #14
    214c:	08030000 	stmdaeq	r3, {}	; <UNPREDICTABLE>
    2150:	00003207 	andeq	r3, r0, r7, lsl #4
    2154:	07040300 	streq	r0, [r4, -r0, lsl #6]
    2158:	0000016d 	andeq	r0, r0, sp, ror #2
    215c:	04060405 	streq	r0, [r6], #-1029	; 0x405
    2160:	00000090 	muleq	r0, r0, r0
    2164:	52080103 	andpl	r0, r8, #-1073741824	; 0xc0000000
    2168:	06000000 	streq	r0, [r0], -r0
    216c:	00009d04 	andeq	r9, r0, r4, lsl #26
    2170:	00900700 	addseq	r0, r0, r0, lsl #14
    2174:	0c080000 	stceq	0, cr0, [r8], {-0}
    2178:	00d90e04 	sbcseq	r0, r9, r4, lsl #28
    217c:	74090000 	strvc	r0, [r9], #-0
    2180:	0f040078 	svceq	0x00040078
    2184:	0000004f 	andeq	r0, r0, pc, asr #32
    2188:	78720900 	ldmdavc	r2!, {r8, fp}^
    218c:	4f0f0400 	svcmi	0x000f0400
    2190:	01000000 	mrseq	r0, (UNDEF: 0)
    2194:	0004150a 	andeq	r1, r4, sl, lsl #10
    2198:	68100400 	ldmdavs	r0, {sl}
    219c:	04000000 	streq	r0, [r0], #-0
    21a0:	0003c60a 	andeq	ip, r3, sl, lsl #12
    21a4:	68110400 	ldmdavs	r1, {sl}
    21a8:	08000000 	stmdaeq	r0, {}	; <UNPREDICTABLE>
    21ac:	03fe0400 	mvnseq	r0, #0, 8
    21b0:	12040000 	andne	r0, r4, #0
    21b4:	000000a2 	andeq	r0, r0, r2, lsr #1
    21b8:	0001e604 	andeq	lr, r1, r4, lsl #12
    21bc:	ef280500 	svc	0x00280500
    21c0:	0b000000 	bleq	21c8 <_start-0x5e38>
    21c4:	00000264 	andeq	r0, r0, r4, ror #4
    21c8:	06000904 	streq	r0, [r0], -r4, lsl #18
    21cc:	0c000001 	stceq	0, cr0, [r0], {1}
    21d0:	000002b7 			; <UNDEFINED> instruction: 0x000002b7
    21d4:	00000088 	andeq	r0, r0, r8, lsl #1
    21d8:	66040000 	strvs	r0, [r4], -r0
    21dc:	05000002 	streq	r0, [r0, #-2]
    21e0:	0000e462 	andeq	lr, r0, r2, ror #8
    21e4:	08370d00 	ldmdaeq	r7!, {r8, sl, fp}
    21e8:	09020000 	stmdbeq	r2, {}	; <UNPREDICTABLE>
    21ec:	00013f03 	andeq	r3, r1, r3, lsl #30
    21f0:	04290e00 	strteq	r0, [r9], #-3584	; 0xe00
    21f4:	09020000 	stmdbeq	r2, {}	; <UNPREDICTABLE>
    21f8:	0000002c 	andeq	r0, r0, ip, lsr #32
    21fc:	02006e0f 	andeq	r6, r0, #15, 28	; 0xf0
    2200:	00002c09 	andeq	r2, r0, r9, lsl #24
    2204:	c5111000 	ldrgt	r1, [r1, #-0]
    2208:	02000001 	andeq	r0, r0, #1
    220c:	00002c0c 	andeq	r2, r0, ip, lsl #24
    2210:	0d000000 	stceq	0, cr0, [r0, #-0]
    2214:	000007ea 	andeq	r0, r0, sl, ror #15
    2218:	76031702 	strvc	r1, [r3], -r2, lsl #14
    221c:	0f000001 	svceq	0x00000001
    2220:	006e6970 	rsbeq	r6, lr, r0, ror r9
    2224:	002c1702 	eoreq	r1, ip, r2, lsl #14
    2228:	760f0000 	strvc	r0, [pc], -r0
    222c:	2c170200 	lfmcs	f0, 4, [r7], {-0}
    2230:	0e000000 	cdpeq	0, 0, cr0, cr0, cr0, {0}
    2234:	00000429 	andeq	r0, r0, r9, lsr #8
    2238:	002c1702 	eoreq	r1, ip, r2, lsl #14
    223c:	3d0e0000 	stccc	0, cr0, [lr, #-0]
    2240:	02000008 	andeq	r0, r0, #8
    2244:	00002c17 	andeq	r2, r0, r7, lsl ip
    2248:	3a120000 	bcc	482250 <__bss_end__+0x478248>
    224c:	01000004 	tsteq	r0, r4
    2250:	008f5809 	addeq	r5, pc, r9, lsl #16
    2254:	00015400 	andeq	r5, r1, r0, lsl #8
    2258:	229c0100 	addscs	r0, ip, #0, 2
    225c:	13000007 	movwne	r0, #7
    2260:	000003dc 	ldrdeq	r0, [r0], -ip
    2264:	07220901 	streq	r0, [r2, -r1, lsl #18]!
    2268:	16bf0000 	ldrtne	r0, [pc], r0
    226c:	63140000 	tstvs	r4, #0
    2270:	5a090100 	bpl	242678 <__bss_end__+0x238670>
    2274:	e0000000 	and	r0, r0, r0
    2278:	15000016 	strne	r0, [r0, #-22]
    227c:	01007874 	tsteq	r0, r4, ror r8
    2280:	0000250b 	andeq	r2, r0, fp, lsl #10
    2284:	00760600 	rsbseq	r0, r6, r0, lsl #12
    2288:	9f1aff08 	svcls	0x001aff08
    228c:	01006e16 	tsteq	r0, r6, lsl lr
    2290:	0000680c 	andeq	r6, r0, ip, lsl #16
    2294:	00170100 	andseq	r0, r7, r0, lsl #2
    2298:	00751600 	rsbseq	r1, r5, r0, lsl #12
    229c:	00680d01 	rsbeq	r0, r8, r1, lsl #26
    22a0:	17140000 	ldrne	r0, [r4, -r0]
    22a4:	73150000 	tstvc	r5, #0
    22a8:	680e0100 	stmdavs	lr, {r8}
    22ac:	01000000 	mrseq	r0, (UNDEF: 0)
    22b0:	8f681754 	svchi	0x00681754
    22b4:	00040000 	andeq	r0, r4, r0
    22b8:	01f80000 	mvnseq	r0, r0
    22bc:	c5180000 	ldrgt	r0, [r8, #-0]
    22c0:	01000001 	tsteq	r0, r1
    22c4:	00002c0e 	andeq	r2, r0, lr, lsl #24
    22c8:	00540100 	subseq	r0, r4, r0, lsl #2
    22cc:	00013f19 	andeq	r3, r1, r9, lsl pc
    22d0:	008f6c00 	addeq	r6, pc, r0, lsl #24
    22d4:	00001c00 	andeq	r1, r0, r0, lsl #24
    22d8:	75110100 	ldrvc	r0, [r1, #-256]	; 0x100
    22dc:	1a000002 	bne	22ec <_start-0x5d14>
    22e0:	0000016a 	andeq	r0, r0, sl, ror #2
    22e4:	0000173d 	andeq	r1, r0, sp, lsr r7
    22e8:	00015f1b 	andeq	r5, r1, fp, lsl pc
    22ec:	1c540100 	ldfnee	f0, [r4], {-0}
    22f0:	00000156 	andeq	r0, r0, r6, asr r1
    22f4:	014b1b00 	cmpeq	fp, r0, lsl #22
    22f8:	56010000 	strpl	r0, [r1], -r0
    22fc:	00011119 	andeq	r1, r1, r9, lsl r1
    2300:	008f7800 	addeq	r7, pc, r0, lsl #16
    2304:	00001000 	andeq	r1, r0, r0
    2308:	5f1a0200 	svcpl	0x001a0200
    230c:	1a000002 	bne	231c <_start-0x5ce4>
    2310:	00000128 	andeq	r0, r0, r8, lsr #2
    2314:	00001750 	andeq	r1, r0, r0, asr r7
    2318:	00011d1b 	andeq	r1, r1, fp, lsl sp
    231c:	1d540100 	ldfnee	f0, [r4, #-0]
    2320:	00008f78 	andeq	r8, r0, r8, ror pc
    2324:	00000004 	andeq	r0, r0, r4
    2328:	0001321e 	andeq	r3, r1, lr, lsl r2
    232c:	00176300 	andseq	r6, r7, r0, lsl #6
    2330:	1f000000 	svcne	0x00000000
    2334:	00008f78 	andeq	r8, r0, r8, ror pc
    2338:	00001159 	andeq	r1, r0, r9, asr r1
    233c:	01510120 	cmpeq	r1, r0, lsr #2
    2340:	50012030 	andpl	r2, r1, r0, lsr r0
    2344:	00007602 	andeq	r7, r0, r2, lsl #12
    2348:	013f1900 	teqeq	pc, r0, lsl #18
    234c:	8f8c0000 	svchi	0x008c0000
    2350:	001c0000 	andseq	r0, ip, r0
    2354:	13010000 	movwne	r0, #4096	; 0x1000
    2358:	000002f8 	strdeq	r0, [r0], -r8
    235c:	00016a1a 	andeq	r6, r1, sl, lsl sl
    2360:	00177600 	andseq	r7, r7, r0, lsl #12
    2364:	015f1b00 	cmpeq	pc, r0, lsl #22
    2368:	54010000 	strpl	r0, [r1], #-0
    236c:	0001561a 	andeq	r5, r1, sl, lsl r6
    2370:	00179800 	andseq	r9, r7, r0, lsl #16
    2374:	014b1b00 	cmpeq	fp, r0, lsl #22
    2378:	56010000 	strpl	r0, [r1], -r0
    237c:	00011119 	andeq	r1, r1, r9, lsl r1
    2380:	008f9800 	addeq	r9, pc, r0, lsl #16
    2384:	00001000 	andeq	r1, r0, r0
    2388:	df1a0200 	svcle	0x001a0200
    238c:	1a000002 	bne	239c <_start-0x5c64>
    2390:	00000128 	andeq	r0, r0, r8, lsr #2
    2394:	000017c9 	andeq	r1, r0, r9, asr #15
    2398:	00011d1b 	andeq	r1, r1, fp, lsl sp
    239c:	1d540100 	ldfnee	f0, [r4, #-0]
    23a0:	00008f98 	muleq	r0, r8, pc	; <UNPREDICTABLE>
    23a4:	00000004 	andeq	r0, r0, r4
    23a8:	0001321e 	andeq	r3, r1, lr, lsl r2
    23ac:	0017eb00 	andseq	lr, r7, r0, lsl #22
    23b0:	1f000000 	svcne	0x00000000
    23b4:	00008f98 	muleq	r0, r8, pc	; <UNPREDICTABLE>
    23b8:	00001159 	andeq	r1, r0, r9, asr r1
    23bc:	04510120 	ldrbeq	r0, [r1], #-288	; 0x120
    23c0:	1a310077 	bne	c425a4 <__bss_end__+0xc3859c>
    23c4:	02500120 	subseq	r0, r0, #32, 2
    23c8:	00000076 	andeq	r0, r0, r6, ror r0
    23cc:	00013f19 	andeq	r3, r1, r9, lsl pc
    23d0:	008fac00 	addeq	sl, pc, r0, lsl #24
    23d4:	00001c00 	andeq	r1, r0, r0, lsl #24
    23d8:	80150100 	andshi	r0, r5, r0, lsl #2
    23dc:	1a000003 	bne	23f0 <_start-0x5c10>
    23e0:	0000016a 	andeq	r0, r0, sl, ror #2
    23e4:	000017fe 	strdeq	r1, [r0], -lr
    23e8:	00015f1b 	andeq	r5, r1, fp, lsl pc
    23ec:	1b540100 	blne	15027f4 <__bss_end__+0x14f87ec>
    23f0:	00000156 	andeq	r0, r0, r6, asr r1
    23f4:	32007708 	andcc	r7, r0, #8, 14	; 0x200000
    23f8:	1aff081a 	bne	fffc4468 <__bss_end__+0xfffba460>
    23fc:	014b1b9f 			; <UNDEFINED> instruction: 0x014b1b9f
    2400:	56010000 	strpl	r0, [r1], -r0
    2404:	00011119 	andeq	r1, r1, r9, lsl r1
    2408:	008fb800 	addeq	fp, pc, r0, lsl #16
    240c:	00001000 	andeq	r1, r0, r0
    2410:	671a0200 	ldrvs	r0, [sl, -r0, lsl #4]
    2414:	1a000003 	bne	2428 <_start-0x5bd8>
    2418:	00000128 	andeq	r0, r0, r8, lsr #2
    241c:	00001823 	andeq	r1, r0, r3, lsr #16
    2420:	00011d1b 	andeq	r1, r1, fp, lsl sp
    2424:	1d540100 	ldfnee	f0, [r4, #-0]
    2428:	00008fb8 			; <UNDEFINED> instruction: 0x00008fb8
    242c:	00000004 	andeq	r0, r0, r4
    2430:	0001321e 	andeq	r3, r1, lr, lsl r2
    2434:	00184800 	andseq	r4, r8, r0, lsl #16
    2438:	1f000000 	svcne	0x00000000
    243c:	00008fb8 			; <UNDEFINED> instruction: 0x00008fb8
    2440:	00001159 	andeq	r1, r0, r9, asr r1
    2444:	04510120 	ldrbeq	r0, [r1], #-288	; 0x120
    2448:	1a320077 	bne	c8262c <__bss_end__+0xc78624>
    244c:	02500120 	subseq	r0, r0, #32, 2
    2450:	00000076 	andeq	r0, r0, r6, ror r0
    2454:	00013f19 	andeq	r3, r1, r9, lsl pc
    2458:	008fcc00 	addeq	ip, pc, r0, lsl #24
    245c:	00001c00 	andeq	r1, r0, r0, lsl #24
    2460:	08170100 	ldmdaeq	r7, {r8}
    2464:	1a000004 	bne	247c <_start-0x5b84>
    2468:	0000016a 	andeq	r0, r0, sl, ror #2
    246c:	0000185b 	andeq	r1, r0, fp, asr r8
    2470:	00015f1b 	andeq	r5, r1, fp, lsl pc
    2474:	1b540100 	blne	150287c <__bss_end__+0x14f8874>
    2478:	00000156 	andeq	r0, r0, r6, asr r1
    247c:	34007708 	strcc	r7, [r0], #-1800	; 0x708
    2480:	1aff081a 	bne	fffc44f0 <__bss_end__+0xfffba4e8>
    2484:	014b1b9f 			; <UNDEFINED> instruction: 0x014b1b9f
    2488:	56010000 	strpl	r0, [r1], -r0
    248c:	00011119 	andeq	r1, r1, r9, lsl r1
    2490:	008fd800 	addeq	sp, pc, r0, lsl #16
    2494:	00001000 	andeq	r1, r0, r0
    2498:	ef1a0200 	svc	0x001a0200
    249c:	1a000003 	bne	24b0 <_start-0x5b50>
    24a0:	00000128 	andeq	r0, r0, r8, lsr #2
    24a4:	0000187d 	andeq	r1, r0, sp, ror r8
    24a8:	00011d1b 	andeq	r1, r1, fp, lsl sp
    24ac:	1d540100 	ldfnee	f0, [r4, #-0]
    24b0:	00008fd8 	ldrdeq	r8, [r0], -r8	; <UNPREDICTABLE>
    24b4:	00000004 	andeq	r0, r0, r4
    24b8:	0001321e 	andeq	r3, r1, lr, lsl r2
    24bc:	00189f00 	andseq	r9, r8, r0, lsl #30
    24c0:	1f000000 	svcne	0x00000000
    24c4:	00008fd8 	ldrdeq	r8, [r0], -r8	; <UNPREDICTABLE>
    24c8:	00001159 	andeq	r1, r0, r9, asr r1
    24cc:	04510120 	ldrbeq	r0, [r1], #-288	; 0x120
    24d0:	1a340077 	bne	d026b4 <__bss_end__+0xcf86ac>
    24d4:	02500120 	subseq	r0, r0, #32, 2
    24d8:	00000076 	andeq	r0, r0, r6, ror r0
    24dc:	00013f19 	andeq	r3, r1, r9, lsl pc
    24e0:	008fec00 	addeq	lr, pc, r0, lsl #24
    24e4:	00001c00 	andeq	r1, r0, r0, lsl #24
    24e8:	90190100 	andsls	r0, r9, r0, lsl #2
    24ec:	1a000004 	bne	2504 <_start-0x5afc>
    24f0:	0000016a 	andeq	r0, r0, sl, ror #2
    24f4:	000018b2 			; <UNDEFINED> instruction: 0x000018b2
    24f8:	00015f1b 	andeq	r5, r1, fp, lsl pc
    24fc:	1b540100 	blne	1502904 <__bss_end__+0x14f88fc>
    2500:	00000156 	andeq	r0, r0, r6, asr r1
    2504:	38007708 	stmdacc	r0, {r3, r8, r9, sl, ip, sp, lr}
    2508:	1aff081a 	bne	fffc4578 <__bss_end__+0xfffba570>
    250c:	014b1b9f 			; <UNDEFINED> instruction: 0x014b1b9f
    2510:	56010000 	strpl	r0, [r1], -r0
    2514:	00011119 	andeq	r1, r1, r9, lsl r1
    2518:	008ff800 	addeq	pc, pc, r0, lsl #16
    251c:	00001000 	andeq	r1, r0, r0
    2520:	771a0200 	ldrvc	r0, [sl, -r0, lsl #4]
    2524:	1a000004 	bne	253c <_start-0x5ac4>
    2528:	00000128 	andeq	r0, r0, r8, lsr #2
    252c:	000018d7 	ldrdeq	r1, [r0], -r7
    2530:	00011d1b 	andeq	r1, r1, fp, lsl sp
    2534:	1d540100 	ldfnee	f0, [r4, #-0]
    2538:	00008ff8 	strdeq	r8, [r0], -r8	; <UNPREDICTABLE>
    253c:	00000004 	andeq	r0, r0, r4
    2540:	0001321e 	andeq	r3, r1, lr, lsl r2
    2544:	0018fc00 	andseq	pc, r8, r0, lsl #24
    2548:	1f000000 	svcne	0x00000000
    254c:	00008ff8 	strdeq	r8, [r0], -r8	; <UNPREDICTABLE>
    2550:	00001159 	andeq	r1, r0, r9, asr r1
    2554:	04510120 	ldrbeq	r0, [r1], #-288	; 0x120
    2558:	1a380077 	bne	e0273c <__bss_end__+0xdf8734>
    255c:	02500120 	subseq	r0, r0, #32, 2
    2560:	00000076 	andeq	r0, r0, r6, ror r0
    2564:	00013f19 	andeq	r3, r1, r9, lsl pc
    2568:	00900c00 	addseq	r0, r0, r0, lsl #24
    256c:	00001c00 	andeq	r1, r0, r0, lsl #24
    2570:	181b0100 	ldmdane	fp, {r8}
    2574:	1a000005 	bne	2590 <_start-0x5a70>
    2578:	0000016a 	andeq	r0, r0, sl, ror #2
    257c:	0000190f 	andeq	r1, r0, pc, lsl #18
    2580:	00015f1b 	andeq	r5, r1, fp, lsl pc
    2584:	1b540100 	blne	150298c <__bss_end__+0x14f8984>
    2588:	00000156 	andeq	r0, r0, r6, asr r1
    258c:	40007708 	andmi	r7, r0, r8, lsl #14
    2590:	1aff081a 	bne	fffc4600 <__bss_end__+0xfffba5f8>
    2594:	014b1b9f 			; <UNDEFINED> instruction: 0x014b1b9f
    2598:	56010000 	strpl	r0, [r1], -r0
    259c:	00011119 	andeq	r1, r1, r9, lsl r1
    25a0:	00901800 	addseq	r1, r0, r0, lsl #16
    25a4:	00001000 	andeq	r1, r0, r0
    25a8:	ff1a0200 			; <UNDEFINED> instruction: 0xff1a0200
    25ac:	1a000004 	bne	25c4 <_start-0x5a3c>
    25b0:	00000128 	andeq	r0, r0, r8, lsr #2
    25b4:	00001936 	andeq	r1, r0, r6, lsr r9
    25b8:	00011d1b 	andeq	r1, r1, fp, lsl sp
    25bc:	1d540100 	ldfnee	f0, [r4, #-0]
    25c0:	00009018 	andeq	r9, r0, r8, lsl r0
    25c4:	00000004 	andeq	r0, r0, r4
    25c8:	0001321e 	andeq	r3, r1, lr, lsl r2
    25cc:	00195d00 	andseq	r5, r9, r0, lsl #26
    25d0:	1f000000 	svcne	0x00000000
    25d4:	00009018 	andeq	r9, r0, r8, lsl r0
    25d8:	00001159 	andeq	r1, r0, r9, asr r1
    25dc:	04510120 	ldrbeq	r0, [r1], #-288	; 0x120
    25e0:	1a400077 	bne	10027c4 <__bss_end__+0xff87bc>
    25e4:	02500120 	subseq	r0, r0, #32, 2
    25e8:	00000076 	andeq	r0, r0, r6, ror r0
    25ec:	00013f19 	andeq	r3, r1, r9, lsl pc
    25f0:	00902c00 	addseq	r2, r0, r0, lsl #24
    25f4:	00001c00 	andeq	r1, r0, r0, lsl #24
    25f8:	a21d0100 	andsge	r0, sp, #0, 2
    25fc:	1a000005 	bne	2618 <_start-0x59e8>
    2600:	0000016a 	andeq	r0, r0, sl, ror #2
    2604:	00001970 	andeq	r1, r0, r0, ror r9
    2608:	00015f1b 	andeq	r5, r1, fp, lsl pc
    260c:	1b540100 	blne	1502a14 <__bss_end__+0x14f8a0c>
    2610:	00000156 	andeq	r0, r0, r6, asr r1
    2614:	08007709 	stmdaeq	r0, {r0, r3, r8, r9, sl, ip, sp, lr}
    2618:	ff081a20 			; <UNDEFINED> instruction: 0xff081a20
    261c:	4b1b9f1a 	blmi	6ea28c <__bss_end__+0x6e0284>
    2620:	01000001 	tsteq	r0, r1
    2624:	01111956 	tsteq	r1, r6, asr r9
    2628:	90380000 	eorsls	r0, r8, r0
    262c:	00100000 	andseq	r0, r0, r0
    2630:	1a020000 	bne	82638 <__bss_end__+0x78630>
    2634:	00000588 	andeq	r0, r0, r8, lsl #11
    2638:	0001281a 	andeq	r2, r1, sl, lsl r8
    263c:	00199a00 	andseq	r9, r9, r0, lsl #20
    2640:	011d1b00 	tsteq	sp, r0, lsl #22
    2644:	54010000 	strpl	r0, [r1], #-0
    2648:	0090381d 	addseq	r3, r0, sp, lsl r8
    264c:	00000400 	andeq	r0, r0, r0, lsl #8
    2650:	01321e00 	teqeq	r2, r0, lsl #28
    2654:	19c40000 	stmibne	r4, {}^	; <UNPREDICTABLE>
    2658:	00000000 	andeq	r0, r0, r0
    265c:	0090381f 	addseq	r3, r0, pc, lsl r8
    2660:	00115900 	andseq	r5, r1, r0, lsl #18
    2664:	51012000 	mrspl	r2, (UNDEF: 1)
    2668:	08007705 	stmdaeq	r0, {r0, r2, r8, r9, sl, ip, sp, lr}
    266c:	01201a20 	teqeq	r0, r0, lsr #20
    2670:	00760250 	rsbseq	r0, r6, r0, asr r2
    2674:	3f190000 	svccc	0x00190000
    2678:	4c000001 	stcmi	0, cr0, [r0], {1}
    267c:	1c000090 	stcne	0, cr0, [r0], {144}	; 0x90
    2680:	01000000 	mrseq	r0, (UNDEF: 0)
    2684:	00062c1f 	andeq	r2, r6, pc, lsl ip
    2688:	016a1a00 	cmneq	sl, r0, lsl #20
    268c:	19d70000 	ldmibne	r7, {}^	; <UNPREDICTABLE>
    2690:	5f1b0000 	svcpl	0x001b0000
    2694:	01000001 	tsteq	r0, r1
    2698:	01561b54 	cmpeq	r6, r4, asr fp
    269c:	77090000 	strvc	r0, [r9, -r0]
    26a0:	1a400800 	bne	10046a8 <__bss_end__+0xffa6a0>
    26a4:	9f1aff08 	svcls	0x001aff08
    26a8:	00014b1b 	andeq	r4, r1, fp, lsl fp
    26ac:	19560100 	ldmdbne	r6, {r8}^
    26b0:	00000111 	andeq	r0, r0, r1, lsl r1
    26b4:	00009058 	andeq	r9, r0, r8, asr r0
    26b8:	00000010 	andeq	r0, r0, r0, lsl r0
    26bc:	06121a02 	ldreq	r1, [r2], -r2, lsl #20
    26c0:	281a0000 	ldmdacs	sl, {}	; <UNPREDICTABLE>
    26c4:	f9000001 			; <UNDEFINED> instruction: 0xf9000001
    26c8:	1b000019 	blne	2734 <_start-0x58cc>
    26cc:	0000011d 	andeq	r0, r0, sp, lsl r1
    26d0:	581d5401 	ldmdapl	sp, {r0, sl, ip, lr}
    26d4:	04000090 	streq	r0, [r0], #-144	; 0x90
    26d8:	1e000000 	cdpne	0, 0, cr0, cr0, cr0, {0}
    26dc:	00000132 	andeq	r0, r0, r2, lsr r1
    26e0:	00001a1b 	andeq	r1, r0, fp, lsl sl
    26e4:	581f0000 	ldmdapl	pc, {}	; <UNPREDICTABLE>
    26e8:	59000090 	stmdbpl	r0, {r4, r7}
    26ec:	20000011 	andcs	r0, r0, r1, lsl r0
    26f0:	77055101 	strvc	r5, [r5, -r1, lsl #2]
    26f4:	1a400800 	bne	10046fc <__bss_end__+0xffa6f4>
    26f8:	02500120 	subseq	r0, r0, #32, 2
    26fc:	00000076 	andeq	r0, r0, r6, ror r0
    2700:	00013f19 	andeq	r3, r1, r9, lsl pc
    2704:	00906c00 	addseq	r6, r0, r0, lsl #24
    2708:	00001c00 	andeq	r1, r0, r0, lsl #24
    270c:	ac210100 	stfges	f0, [r1], #-0
    2710:	1b000006 	blne	2730 <_start-0x58d0>
    2714:	0000016a 	andeq	r0, r0, sl, ror #2
    2718:	5f1b5801 	svcpl	0x001b5801
    271c:	01000001 	tsteq	r0, r1
    2720:	01561a54 	cmpeq	r6, r4, asr sl
    2724:	1a2e0000 	bne	b8272c <__bss_end__+0xb78724>
    2728:	4b1b0000 	blmi	6c2730 <__bss_end__+0x6b8728>
    272c:	01000001 	tsteq	r0, r1
    2730:	01111956 	tsteq	r1, r6, asr r9
    2734:	90780000 	rsbsls	r0, r8, r0
    2738:	00100000 	andseq	r0, r0, r0
    273c:	1a020000 	bne	82744 <__bss_end__+0x7873c>
    2740:	00000692 	muleq	r0, r2, r6
    2744:	0001281b 	andeq	r2, r1, fp, lsl r8
    2748:	1b580100 	blne	1602b50 <__bss_end__+0x15f8b48>
    274c:	0000011d 	andeq	r0, r0, sp, lsl r1
    2750:	781d5401 	ldmdavc	sp, {r0, sl, ip, lr}
    2754:	04000090 	streq	r0, [r0], #-144	; 0x90
    2758:	1e000000 	cdpne	0, 0, cr0, cr0, cr0, {0}
    275c:	00000132 	andeq	r0, r0, r2, lsr r1
    2760:	00001a61 	andeq	r1, r0, r1, ror #20
    2764:	781f0000 	ldmdavc	pc, {}	; <UNPREDICTABLE>
    2768:	59000090 	stmdbpl	r0, {r4, r7}
    276c:	20000011 	andcs	r0, r0, r1, lsl r0
    2770:	77055101 	strvc	r5, [r5, -r1, lsl #2]
    2774:	1a800800 	bne	fe00477c <__bss_end__+0xfdffa774>
    2778:	02500120 	subseq	r0, r0, #32, 2
    277c:	00000076 	andeq	r0, r0, r6, ror r0
    2780:	00013f21 	andeq	r3, r1, r1, lsr #30
    2784:	00908c00 	addseq	r8, r0, r0, lsl #24
    2788:	00001c00 	andeq	r1, r0, r0, lsl #24
    278c:	1b230100 	blne	8c2b94 <__bss_end__+0x8b8b8c>
    2790:	0000016a 	andeq	r0, r0, sl, ror #2
    2794:	5f1b5501 	svcpl	0x001b5501
    2798:	01000001 	tsteq	r0, r1
    279c:	01561c54 	cmpeq	r6, r4, asr ip
    27a0:	1b010000 	blne	427a8 <__bss_end__+0x387a0>
    27a4:	0000014b 	andeq	r0, r0, fp, asr #2
    27a8:	11195601 	tstne	r9, r1, lsl #12
    27ac:	98000001 	stmdals	r0, {r0}
    27b0:	10000090 	mulne	r0, r0, r0
    27b4:	02000000 	andeq	r0, r0, #0
    27b8:	00070b1a 	andeq	r0, r7, sl, lsl fp
    27bc:	01281b00 	teqeq	r8, r0, lsl #22
    27c0:	55010000 	strpl	r0, [r1, #-0]
    27c4:	00011d1b 	andeq	r1, r1, fp, lsl sp
    27c8:	1d540100 	ldfnee	f0, [r4, #-0]
    27cc:	00009098 	muleq	r0, r8, r0
    27d0:	00000004 	andeq	r0, r0, r4
    27d4:	0001321e 	andeq	r3, r1, lr, lsl r2
    27d8:	001a7400 	andseq	r7, sl, r0, lsl #8
    27dc:	1f000000 	svcne	0x00000000
    27e0:	00009098 	muleq	r0, r8, r0
    27e4:	00001159 	andeq	r1, r0, r9, asr r1
    27e8:	01510120 	cmpeq	r1, r0, lsr #2
    27ec:	50012031 	andpl	r2, r1, r1, lsr r0
    27f0:	00007602 	andeq	r7, r0, r2, lsl #12
    27f4:	04060000 	streq	r0, [r6], #-0
    27f8:	000000d9 	ldrdeq	r0, [r0], -r9
    27fc:	0008cc22 	andeq	ip, r8, r2, lsr #24
    2800:	25270100 	strcs	r0, [r7, #-256]!	; 0x100
    2804:	03000000 	movweq	r0, #0
    2808:	00000762 	andeq	r0, r0, r2, ror #14
    280c:	0078720f 	rsbseq	r7, r8, pc, lsl #4
    2810:	00252701 	eoreq	r2, r5, r1, lsl #14
    2814:	760f0000 	strvc	r0, [pc], -r0
    2818:	25270100 	strcs	r0, [r7, #-256]!	; 0x100
    281c:	0e000000 	cdpeq	0, 0, cr0, cr0, cr0, {0}
    2820:	00000859 	andeq	r0, r0, r9, asr r8
    2824:	002c2701 	eoreq	r2, ip, r1, lsl #14
    2828:	29110000 	ldmdbcs	r1, {}	; <UNPREDICTABLE>
    282c:	01000004 	tsteq	r0, r4
    2830:	00002c28 	andeq	r2, r0, r8, lsr #24
    2834:	fa230000 	blx	8c283c <__bss_end__+0x8b8834>
    2838:	01000007 	tsteq	r0, r7
    283c:	00002534 	andeq	r2, r0, r4, lsr r5
    2840:	0090ac00 	addseq	sl, r0, r0, lsl #24
    2844:	0001c800 	andeq	ip, r1, r0, lsl #16
    2848:	1e9c0100 	fmlnee	f0, f4, f0
    284c:	1300000b 	movwne	r0, #11
    2850:	000003dc 	ldrdeq	r0, [r0], -ip
    2854:	07223401 	streq	r3, [r2, -r1, lsl #8]!
    2858:	1a870000 	bne	fe1c2860 <__bss_end__+0xfe1b8858>
    285c:	59130000 	ldmdbpl	r3, {}	; <UNPREDICTABLE>
    2860:	01000008 	tsteq	r0, r8
    2864:	00002534 	andeq	r2, r0, r4, lsr r5
    2868:	001acc00 	andseq	ip, sl, r0, lsl #24
    286c:	78721500 	ldmdavc	r2!, {r8, sl, ip}^
    2870:	25350100 	ldrcs	r0, [r5, #-256]!	; 0x100
    2874:	01000000 	mrseq	r0, (UNDEF: 0)
    2878:	00731655 	rsbseq	r1, r3, r5, asr r6
    287c:	002c3c01 	eoreq	r3, ip, r1, lsl #24
    2880:	1aea0000 	bne	ffa82888 <__bss_end__+0xffa78880>
    2884:	75160000 	ldrvc	r0, [r6, #-0]
    2888:	683f0100 	ldmdavs	pc!, {r8}	; <UNPREDICTABLE>
    288c:	fd000000 	stc2	0, cr0, [r0, #-0]
    2890:	1600001a 			; <UNDEFINED> instruction: 0x1600001a
    2894:	4001006e 	andmi	r0, r1, lr, rrx
    2898:	0000002c 	andeq	r0, r0, ip, lsr #32
    289c:	00001b10 	andeq	r1, r0, r0, lsl fp
    28a0:	01006316 	tsteq	r0, r6, lsl r3
    28a4:	00002c41 	andeq	r2, r0, r1, asr #24
    28a8:	001b2700 	andseq	r2, fp, r0, lsl #14
    28ac:	07281900 	streq	r1, [r8, -r0, lsl #18]!
    28b0:	90c00000 	sbcls	r0, r0, r0
    28b4:	00340000 	eorseq	r0, r4, r0
    28b8:	38010000 	stmdacc	r1, {}	; <UNPREDICTABLE>
    28bc:	0000083c 	andeq	r0, r0, ip, lsr r8
    28c0:	00074b1a 	andeq	r4, r7, sl, lsl fp
    28c4:	001b5100 	andseq	r5, fp, r0, lsl #2
    28c8:	07421c00 	strbeq	r1, [r2, -r0, lsl #24]
    28cc:	1b000000 	blne	28d4 <_start-0x572c>
    28d0:	00000738 	andeq	r0, r0, r8, lsr r7
    28d4:	c01d5501 	andsgt	r5, sp, r1, lsl #10
    28d8:	34000090 	strcc	r0, [r0], #-144	; 0x90
    28dc:	1e000000 	cdpne	0, 0, cr0, cr0, cr0, {0}
    28e0:	00000756 	andeq	r0, r0, r6, asr r7
    28e4:	00001b6f 	andeq	r1, r0, pc, ror #22
    28e8:	0090c424 	addseq	ip, r0, r4, lsr #8
    28ec:	00116f00 	andseq	r6, r1, r0, lsl #30
    28f0:	90d02500 	sbcsls	r2, r0, r0, lsl #10
    28f4:	117a0000 	cmnne	sl, r0
    28f8:	08310000 	ldmdaeq	r1!, {}	; <UNPREDICTABLE>
    28fc:	01200000 	teqeq	r0, r0
    2900:	00750250 	rsbseq	r0, r5, r0, asr r2
    2904:	90dc2400 	sbcsls	r2, ip, r0, lsl #8
    2908:	116f0000 	cmnne	pc, r0
    290c:	00000000 	andeq	r0, r0, r0
    2910:	0090fc17 	addseq	pc, r0, r7, lsl ip	; <UNPREDICTABLE>
    2914:	00000400 	andeq	r0, r0, r0, lsl #8
    2918:	00085900 	andeq	r5, r8, r0, lsl #18
    291c:	01c52600 	biceq	r2, r5, r0, lsl #12
    2920:	3c010000 	stccc	0, cr0, [r1], {-0}
    2924:	0000002c 	andeq	r0, r0, ip, lsr #32
    2928:	00001b8d 	andeq	r1, r0, sp, lsl #23
    292c:	01111900 	tsteq	r1, r0, lsl #18
    2930:	91080000 	mrsls	r0, (UNDEF: 8)
    2934:	00100000 	andseq	r0, r0, r0
    2938:	44010000 	strmi	r0, [r1], #-0
    293c:	00000892 	muleq	r0, r2, r8
    2940:	0001281a 	andeq	r2, r1, sl, lsl r8
    2944:	001ba000 	andseq	sl, fp, r0
    2948:	011d1a00 	tsteq	sp, r0, lsl #20
    294c:	1bc50000 	blne	ff142954 <__bss_end__+0xff13894c>
    2950:	081d0000 	ldmdaeq	sp, {}	; <UNPREDICTABLE>
    2954:	04000091 	streq	r0, [r0], #-145	; 0x91
    2958:	1e000000 	cdpne	0, 0, cr0, cr0, cr0, {0}
    295c:	00000132 	andeq	r0, r0, r2, lsr r1
    2960:	00001bd8 	ldrdeq	r1, [r0], -r8
    2964:	11190000 	tstne	r9, r0
    2968:	28000001 	stmdacs	r0, {r0}
    296c:	10000091 	mulne	r0, r1, r0
    2970:	01000000 	mrseq	r0, (UNDEF: 0)
    2974:	0008cb48 	andeq	ip, r8, r8, asr #22
    2978:	01281a00 	teqeq	r8, r0, lsl #20
    297c:	1beb0000 	blne	ffac2984 <__bss_end__+0xffab897c>
    2980:	1d1a0000 	ldcne	0, cr0, [sl, #-0]
    2984:	fe000001 	cdp2	0, 0, cr0, cr0, cr1, {0}
    2988:	1d00001b 	stcne	0, cr0, [r0, #-108]	; 0xffffff94
    298c:	00009128 	andeq	r9, r0, r8, lsr #2
    2990:	00000004 	andeq	r0, r0, r4
    2994:	0001321e 	andeq	r3, r1, lr, lsl r2
    2998:	001c1100 	andseq	r1, ip, r0, lsl #2
    299c:	19000000 	stmdbne	r0, {}	; <UNPREDICTABLE>
    29a0:	00000111 	andeq	r0, r0, r1, lsl r1
    29a4:	0000914c 	andeq	r9, r0, ip, asr #2
    29a8:	00000010 	andeq	r0, r0, r0, lsl r0
    29ac:	09044b01 	stmdbeq	r4, {r0, r8, r9, fp, lr}
    29b0:	281a0000 	ldmdacs	sl, {}	; <UNPREDICTABLE>
    29b4:	24000001 	strcs	r0, [r0], #-1
    29b8:	1a00001c 	bne	2a30 <_start-0x55d0>
    29bc:	0000011d 	andeq	r0, r0, sp, lsl r1
    29c0:	00001c37 	andeq	r1, r0, r7, lsr ip
    29c4:	00914c1d 	addseq	r4, r1, sp, lsl ip
    29c8:	00000400 	andeq	r0, r0, r0, lsl #8
    29cc:	01321e00 	teqeq	r2, r0, lsl #28
    29d0:	1c4a0000 	marne	acc0, r0, sl
    29d4:	00000000 	andeq	r0, r0, r0
    29d8:	00011119 	andeq	r1, r1, r9, lsl r1
    29dc:	00917000 	addseq	r7, r1, r0
    29e0:	00001000 	andeq	r1, r0, r0
    29e4:	3d4e0100 	stfcce	f0, [lr, #-0]
    29e8:	1a000009 	bne	2a14 <_start-0x55ec>
    29ec:	00000128 	andeq	r0, r0, r8, lsr #2
    29f0:	00001c5d 	andeq	r1, r0, sp, asr ip
    29f4:	00011d1a 	andeq	r1, r1, sl, lsl sp
    29f8:	001c7000 	andseq	r7, ip, r0
    29fc:	91701d00 	cmnls	r0, r0, lsl #26
    2a00:	00040000 	andeq	r0, r4, r0
    2a04:	321e0000 	andscc	r0, lr, #0
    2a08:	83000001 	movwhi	r0, #1
    2a0c:	0000001c 	andeq	r0, r0, ip, lsl r0
    2a10:	01111900 	tsteq	r1, r0, lsl #18
    2a14:	91940000 	orrsls	r0, r4, r0
    2a18:	00100000 	andseq	r0, r0, r0
    2a1c:	51010000 	mrspl	r0, (UNDEF: 1)
    2a20:	00000976 	andeq	r0, r0, r6, ror r9
    2a24:	0001281a 	andeq	r2, r1, sl, lsl r8
    2a28:	001c9600 	andseq	r9, ip, r0, lsl #12
    2a2c:	011d1a00 	tsteq	sp, r0, lsl #20
    2a30:	1ca90000 	stcne	0, cr0, [r9]
    2a34:	941d0000 	ldrls	r0, [sp], #-0
    2a38:	04000091 	streq	r0, [r0], #-145	; 0x91
    2a3c:	1e000000 	cdpne	0, 0, cr0, cr0, cr0, {0}
    2a40:	00000132 	andeq	r0, r0, r2, lsr r1
    2a44:	00001cbc 			; <UNDEFINED> instruction: 0x00001cbc
    2a48:	11190000 	tstne	r9, r0
    2a4c:	b8000001 	stmdalt	r0, {r0}
    2a50:	10000091 	mulne	r0, r1, r0
    2a54:	01000000 	mrseq	r0, (UNDEF: 0)
    2a58:	0009af54 	andeq	sl, r9, r4, asr pc
    2a5c:	01281a00 	teqeq	r8, r0, lsl #20
    2a60:	1ccf0000 	stclne	0, cr0, [pc], {0}
    2a64:	1d1a0000 	ldcne	0, cr0, [sl, #-0]
    2a68:	e2000001 	and	r0, r0, #1
    2a6c:	1d00001c 	stcne	0, cr0, [r0, #-112]	; 0xffffff90
    2a70:	000091b8 			; <UNDEFINED> instruction: 0x000091b8
    2a74:	00000004 	andeq	r0, r0, r4
    2a78:	0001321e 	andeq	r3, r1, lr, lsl r2
    2a7c:	001cf500 	andseq	pc, ip, r0, lsl #10
    2a80:	19000000 	stmdbne	r0, {}	; <UNPREDICTABLE>
    2a84:	00000111 	andeq	r0, r0, r1, lsl r1
    2a88:	000091dc 	ldrdeq	r9, [r0], -ip
    2a8c:	00000010 	andeq	r0, r0, r0, lsl r0
    2a90:	09e85701 	stmibeq	r8!, {r0, r8, r9, sl, ip, lr}^
    2a94:	281a0000 	ldmdacs	sl, {}	; <UNPREDICTABLE>
    2a98:	08000001 	stmdaeq	r0, {r0}
    2a9c:	1a00001d 	bne	2b18 <_start-0x54e8>
    2aa0:	0000011d 	andeq	r0, r0, sp, lsl r1
    2aa4:	00001d1b 	andeq	r1, r0, fp, lsl sp
    2aa8:	0091dc1d 	addseq	sp, r1, sp, lsl ip
    2aac:	00000400 	andeq	r0, r0, r0, lsl #8
    2ab0:	01321e00 	teqeq	r2, r0, lsl #28
    2ab4:	1d2e0000 	stcne	0, cr0, [lr, #-0]
    2ab8:	00000000 	andeq	r0, r0, r0
    2abc:	00011119 	andeq	r1, r1, r9, lsl r1
    2ac0:	00920000 	addseq	r0, r2, r0
    2ac4:	00001000 	andeq	r1, r0, r0
    2ac8:	1d5a0100 	ldfnee	f0, [sl, #-0]
    2acc:	1a00000a 	bne	2afc <_start-0x5504>
    2ad0:	00000128 	andeq	r0, r0, r8, lsr #2
    2ad4:	00001d41 	andeq	r1, r0, r1, asr #26
    2ad8:	00011d27 	andeq	r1, r1, r7, lsr #26
    2adc:	92001d00 	andls	r1, r0, #0, 26
    2ae0:	00040000 	andeq	r0, r4, r0
    2ae4:	321e0000 	andscc	r0, lr, #0
    2ae8:	54000001 	strpl	r0, [r0], #-1
    2aec:	0000001d 	andeq	r0, r0, sp, lsl r0
    2af0:	07281900 	streq	r1, [r8, -r0, lsl #18]!
    2af4:	92200000 	eorls	r0, r0, #0
    2af8:	00340000 	eorseq	r0, r4, r0
    2afc:	61010000 	mrsvs	r0, (UNDEF: 1)
    2b00:	00000a81 	andeq	r0, r0, r1, lsl #21
    2b04:	00074b27 	andeq	r4, r7, r7, lsr #22
    2b08:	07421a00 	strbeq	r1, [r2, -r0, lsl #20]
    2b0c:	1d670000 	stclne	0, cr0, [r7, #-0]
    2b10:	381a0000 	ldmdacc	sl, {}	; <UNPREDICTABLE>
    2b14:	87000007 	strhi	r0, [r0, -r7]
    2b18:	1d00001d 	stcne	0, cr0, [r0, #-116]	; 0xffffff8c
    2b1c:	00009220 	andeq	r9, r0, r0, lsr #4
    2b20:	00000034 	andeq	r0, r0, r4, lsr r0
    2b24:	0007561e 	andeq	r5, r7, lr, lsl r6
    2b28:	001da500 	andseq	sl, sp, r0, lsl #10
    2b2c:	92242400 	eorls	r2, r4, #0, 8
    2b30:	116f0000 	cmnne	pc, r0
    2b34:	30250000 	eorcc	r0, r5, r0
    2b38:	7a000092 	bvc	2d88 <_start-0x5278>
    2b3c:	76000011 			; <UNDEFINED> instruction: 0x76000011
    2b40:	2000000a 	andcs	r0, r0, sl
    2b44:	75025001 	strvc	r5, [r2, #-1]
    2b48:	3c240000 	stccc	0, cr0, [r4], #-0
    2b4c:	6f000092 	svcvs	0x00000092
    2b50:	00000011 	andeq	r0, r0, r1, lsl r0
    2b54:	91242500 	teqls	r4, r0, lsl #10
    2b58:	117a0000 	cmnne	sl, r0
    2b5c:	0a950000 	beq	fe542b64 <__bss_end__+0xfe538b5c>
    2b60:	01200000 	teqeq	r0, r0
    2b64:	00750250 	rsbseq	r0, r5, r0, asr r2
    2b68:	91442500 	cmpls	r4, r0, lsl #10
    2b6c:	117a0000 	cmnne	sl, r0
    2b70:	0aa90000 	beq	fea42b78 <__bss_end__+0xfea38b70>
    2b74:	01200000 	teqeq	r0, r0
    2b78:	00750250 	rsbseq	r0, r5, r0, asr r2
    2b7c:	91682500 	cmnls	r8, r0, lsl #10
    2b80:	117a0000 	cmnne	sl, r0
    2b84:	0abd0000 	beq	fef42b8c <__bss_end__+0xfef38b84>
    2b88:	01200000 	teqeq	r0, r0
    2b8c:	00750250 	rsbseq	r0, r5, r0, asr r2
    2b90:	918c2500 	orrls	r2, ip, r0, lsl #10
    2b94:	117a0000 	cmnne	sl, r0
    2b98:	0ad10000 	beq	ff442ba0 <__bss_end__+0xff438b98>
    2b9c:	01200000 	teqeq	r0, r0
    2ba0:	00750250 	rsbseq	r0, r5, r0, asr r2
    2ba4:	91b02500 	lslsls	r2, r0, #10
    2ba8:	117a0000 	cmnne	sl, r0
    2bac:	0ae50000 	beq	ff942bb4 <__bss_end__+0xff938bac>
    2bb0:	01200000 	teqeq	r0, r0
    2bb4:	00750250 	rsbseq	r0, r5, r0, asr r2
    2bb8:	91d42500 	bicsls	r2, r4, r0, lsl #10
    2bbc:	117a0000 	cmnne	sl, r0
    2bc0:	0af90000 	beq	ffe42bc8 <__bss_end__+0xffe38bc0>
    2bc4:	01200000 	teqeq	r0, r0
    2bc8:	00750250 	rsbseq	r0, r5, r0, asr r2
    2bcc:	91f82500 	mvnsls	r2, r0, lsl #10
    2bd0:	117a0000 	cmnne	sl, r0
    2bd4:	0b0d0000 	bleq	342bdc <__bss_end__+0x338bd4>
    2bd8:	01200000 	teqeq	r0, r0
    2bdc:	00750250 	rsbseq	r0, r5, r0, asr r2
    2be0:	92181f00 	andsls	r1, r8, #0, 30
    2be4:	117a0000 	cmnne	sl, r0
    2be8:	01200000 	teqeq	r0, r0
    2bec:	00750250 	rsbseq	r0, r5, r0, asr r2
    2bf0:	0f230000 	svceq	0x00230000
    2bf4:	01000008 	tsteq	r0, r8
    2bf8:	0000256c 	andeq	r2, r0, ip, ror #10
    2bfc:	00927400 	addseq	r7, r2, r0, lsl #8
    2c00:	0000a400 	andeq	sl, r0, r0, lsl #8
    2c04:	0c9c0100 	ldfeqs	f0, [ip], {0}
    2c08:	1400000c 	strne	r0, [r0], #-12
    2c0c:	6c010075 	stcvs	0, cr0, [r1], {117}	; 0x75
    2c10:	00000722 	andeq	r0, r0, r2, lsr #14
    2c14:	00001dc3 	andeq	r1, r0, r3, asr #27
    2c18:	66756214 			; <UNDEFINED> instruction: 0x66756214
    2c1c:	0c6c0100 	stfeqe	f0, [ip], #-0
    2c20:	0500000c 	streq	r0, [r0, #-12]
    2c24:	1300001e 	movwne	r0, #30
    2c28:	000008a1 	andeq	r0, r0, r1, lsr #17
    2c2c:	00686c01 	rsbeq	r6, r8, r1, lsl #24
    2c30:	1e470000 	cdpne	0, 4, cr0, cr7, cr0, {0}
    2c34:	65140000 	ldrvs	r0, [r4, #-0]
    2c38:	0100646e 	tsteq	r0, lr, ror #8
    2c3c:	00004f6c 	andeq	r4, r0, ip, ror #30
    2c40:	001e8e00 	andseq	r8, lr, r0, lsl #28
    2c44:	08a82800 	stmiaeq	r8!, {fp, sp}
    2c48:	6c010000 	stcvs	0, cr0, [r1], {-0}
    2c4c:	00000068 	andeq	r0, r0, r8, rrx
    2c50:	29009102 	stmdbcs	r0, {r1, r8, ip, pc}
    2c54:	000001ad 	andeq	r0, r0, sp, lsr #3
    2c58:	00000c22 	andeq	r0, r0, r2, lsr #24
    2c5c:	9ae40305 	bls	ff903878 <__bss_end__+0xff8f9870>
    2c60:	69160000 	ldmdbvs	r6, {}	; <UNPREDICTABLE>
    2c64:	25700100 	ldrbcs	r0, [r0, #-256]!	; 0x100
    2c68:	c8000000 	stmdagt	r0, {}	; <UNPREDICTABLE>
    2c6c:	2600001e 			; <UNDEFINED> instruction: 0x2600001e
    2c70:	00000884 	andeq	r0, r0, r4, lsl #17
    2c74:	004f7101 	subeq	r7, pc, r1, lsl #2
    2c78:	1ef20000 	cdpne	0, 15, cr0, cr2, cr0, {0}
    2c7c:	98240000 	stmdals	r4!, {}	; <UNPREDICTABLE>
    2c80:	8f000092 	svchi	0x00000092
    2c84:	25000011 	strcs	r0, [r0, #-17]
    2c88:	000092b4 			; <UNDEFINED> instruction: 0x000092b4
    2c8c:	00001196 	muleq	r0, r6, r1
    2c90:	00000bec 	andeq	r0, r0, ip, ror #23
    2c94:	02530120 	subseq	r0, r3, #32, 2
    2c98:	01206d08 	teqeq	r0, r8, lsl #26
    2c9c:	e4030552 	str	r0, [r3], #-1362	; 0x552
    2ca0:	2000009a 	mulcs	r0, sl, r0
    2ca4:	03055101 	movweq	r5, #20737	; 0x5101
    2ca8:	00009b5c 	andeq	r9, r0, ip, asr fp
    2cac:	05500120 	ldrbeq	r0, [r0, #-288]	; 0x120
    2cb0:	0099e403 	addseq	lr, r9, r3, lsl #8
    2cb4:	7d022000 	stcvc	0, cr2, [r2, #-0]
    2cb8:	70030500 	andvc	r0, r3, r0, lsl #10
    2cbc:	0000009b 	muleq	r0, fp, r0
    2cc0:	0092b824 	addseq	fp, r2, r4, lsr #16
    2cc4:	0011ac00 	andseq	sl, r1, r0, lsl #24
    2cc8:	92d41f00 	sbcsls	r1, r4, #0, 30
    2ccc:	07620000 	strbeq	r0, [r2, -r0]!
    2cd0:	01200000 	teqeq	r0, r0
    2cd4:	007a0251 	rsbseq	r0, sl, r1, asr r2
    2cd8:	02500120 	subseq	r0, r0, #32, 2
    2cdc:	00000078 	andeq	r0, r0, r8, ror r0
    2ce0:	004f0406 	subeq	r0, pc, r6, lsl #8
    2ce4:	902a0000 	eorls	r0, sl, r0
    2ce8:	22000000 	andcs	r0, r0, #0
    2cec:	2b00000c 	blcs	2d24 <_start-0x52dc>
    2cf0:	00000081 	andeq	r0, r0, r1, lsl #1
    2cf4:	12070012 	andne	r0, r7, #18
    2cf8:	2300000c 	movwcs	r0, #12
    2cfc:	0000088c 	andeq	r0, r0, ip, lsl #17
    2d00:	00258001 	eoreq	r8, r5, r1
    2d04:	93180000 	tstls	r8, #0
    2d08:	00900000 	addseq	r0, r0, r0
    2d0c:	9c010000 	stcls	0, cr0, [r1], {-0}
    2d10:	00000cf8 	strdeq	r0, [r0], -r8
    2d14:	01007514 	tsteq	r0, r4, lsl r5
    2d18:	00072280 	andeq	r2, r7, r0, lsl #5
    2d1c:	001f0500 	andseq	r0, pc, r0, lsl #10
    2d20:	75621400 	strbvc	r1, [r2, #-1024]!	; 0x400
    2d24:	80010066 	andhi	r0, r1, r6, rrx
    2d28:	00000c0c 	andeq	r0, r0, ip, lsl #24
    2d2c:	00001f47 	andeq	r1, r0, r7, asr #30
    2d30:	0008a113 	andeq	sl, r8, r3, lsl r1
    2d34:	68810100 	stmvs	r1, {r8}
    2d38:	89000000 	stmdbhi	r0, {}	; <UNPREDICTABLE>
    2d3c:	1300001f 	movwne	r0, #31
    2d40:	000008a8 	andeq	r0, r0, r8, lsr #17
    2d44:	00688101 	rsbeq	r8, r8, r1, lsl #2
    2d48:	1fd00000 	svcne	0x00d00000
    2d4c:	ad290000 	stcge	0, cr0, [r9, #-0]
    2d50:	08000001 	stmdaeq	r0, {r0}
    2d54:	0500000d 	streq	r0, [r0, #-13]
    2d58:	009af803 	addseq	pc, sl, r3, lsl #16
    2d5c:	00691600 	rsbeq	r1, r9, r0, lsl #12
    2d60:	00258601 	eoreq	r8, r5, r1, lsl #12
    2d64:	20120000 	andscs	r0, r2, r0
    2d68:	38240000 	stmdacc	r4!, {}	; <UNPREDICTABLE>
    2d6c:	8f000093 	svchi	0x00000093
    2d70:	25000011 	strcs	r0, [r0, #-17]
    2d74:	00009354 	andeq	r9, r0, r4, asr r3
    2d78:	00001196 	muleq	r0, r6, r1
    2d7c:	00000cd8 	ldrdeq	r0, [r0], -r8
    2d80:	02530120 	subseq	r0, r3, #32, 2
    2d84:	01208308 	teqeq	r0, r8, lsl #6
    2d88:	f8030552 			; <UNDEFINED> instruction: 0xf8030552
    2d8c:	2000009a 	mulcs	r0, sl, r0
    2d90:	03055101 	movweq	r5, #20737	; 0x5101
    2d94:	00009b5c 	andeq	r9, r0, ip, asr fp
    2d98:	05500120 	ldrbeq	r0, [r0, #-288]	; 0x120
    2d9c:	0099e403 	addseq	lr, r9, r3, lsl #8
    2da0:	7d022000 	stcvc	0, cr2, [r2, #-0]
    2da4:	70030500 	andvc	r0, r3, r0, lsl #10
    2da8:	0000009b 	muleq	r0, fp, r0
    2dac:	00935824 	addseq	r5, r3, r4, lsr #16
    2db0:	0011ac00 	andseq	sl, r1, r0, lsl #24
    2db4:	93741f00 	cmnls	r4, #0, 30
    2db8:	07620000 	strbeq	r0, [r2, -r0]!
    2dbc:	01200000 	teqeq	r0, r0
    2dc0:	00780251 	rsbseq	r0, r8, r1, asr r2
    2dc4:	02500120 	subseq	r0, r0, #32, 2
    2dc8:	00000077 	andeq	r0, r0, r7, ror r0
    2dcc:	0000902a 	andeq	r9, r0, sl, lsr #32
    2dd0:	000d0800 	andeq	r0, sp, r0, lsl #16
    2dd4:	00812b00 	addeq	r2, r1, r0, lsl #22
    2dd8:	00140000 	andseq	r0, r4, r0
    2ddc:	000cf807 	andeq	pc, ip, r7, lsl #16
    2de0:	08452300 	stmdaeq	r5, {r8, r9, sp}^
    2de4:	93010000 	movwls	r0, #4096	; 0x1000
    2de8:	000000d9 	ldrdeq	r0, [r0], -r9
    2dec:	000093a8 	andeq	r9, r0, r8, lsr #7
    2df0:	000000d4 	ldrdeq	r0, [r0], -r4
    2df4:	0e329c01 	cdpeq	12, 3, cr9, cr2, cr1, {0}
    2df8:	74140000 	ldrvc	r0, [r4], #-0
    2dfc:	93010078 	movwls	r0, #4216	; 0x1078
    2e00:	0000004f 	andeq	r0, r0, pc, asr #32
    2e04:	0000203c 	andeq	r2, r0, ip, lsr r0
    2e08:	00787214 	rsbseq	r7, r8, r4, lsl r2
    2e0c:	004f9301 	subeq	r9, pc, r1, lsl #6
    2e10:	205d0000 	subscs	r0, sp, r0
    2e14:	15130000 	ldrne	r0, [r3, #-0]
    2e18:	01000004 	tsteq	r0, r4
    2e1c:	00006893 	muleq	r0, r3, r8
    2e20:	00207e00 	eoreq	r7, r0, r0, lsl #28
    2e24:	07de2800 	ldrbeq	r2, [lr, r0, lsl #16]
    2e28:	93010000 	movwls	r0, #4096	; 0x1000
    2e2c:	00000068 	andeq	r0, r0, r8, rrx
    2e30:	2c009102 	stfcsd	f1, [r0], {2}
    2e34:	007a686d 	rsbseq	r6, sl, sp, ror #16
    2e38:	002c9b01 	eoreq	r9, ip, r1, lsl #22
    2e3c:	27000000 	strcs	r0, [r0, -r0]
    2e40:	2f2629b9 	svccs	0x002629b9
    2e44:	01000008 	tsteq	r0, r8
    2e48:	00002c9c 	muleq	r0, ip, ip
    2e4c:	0020a800 	eoreq	sl, r0, r0, lsl #16
    2e50:	01ad2900 			; <UNDEFINED> instruction: 0x01ad2900
    2e54:	0e420000 	cdpeq	0, 4, cr0, cr2, cr0, {0}
    2e58:	03050000 	movweq	r0, #20480	; 0x5000
    2e5c:	00009b10 	andeq	r9, r0, r0, lsl fp
    2e60:	0093d417 	addseq	sp, r3, r7, lsl r4
    2e64:	00000800 	andeq	r0, r0, r0, lsl #16
    2e68:	000da500 	andeq	sl, sp, r0, lsl #10
    2e6c:	6e692d00 	cdpvs	13, 6, cr2, cr9, cr0, {0}
    2e70:	2c970100 	ldfcss	f0, [r7], {0}
    2e74:	01000000 	mrseq	r0, (UNDEF: 0)
    2e78:	93cc2500 	bicls	r2, ip, #0, 10
    2e7c:	11b30000 			; <UNDEFINED> instruction: 0x11b30000
    2e80:	0db90000 	ldceq	0, cr0, [r9]
    2e84:	01200000 	teqeq	r0, r0
    2e88:	00760250 	rsbseq	r0, r6, r0, asr r2
    2e8c:	93d42500 	bicsls	r2, r4, #0, 10
    2e90:	11c40000 	bicne	r0, r4, r0
    2e94:	0dcd0000 	stcleq	0, cr0, [sp]
    2e98:	01200000 	teqeq	r0, r0
    2e9c:	00780250 	rsbseq	r0, r8, r0, asr r2
    2ea0:	93e82500 	mvnls	r2, #0, 10
    2ea4:	11590000 	cmpne	r9, r0
    2ea8:	0de60000 	stcleq	0, cr0, [r6]
    2eac:	01200000 	teqeq	r0, r0
    2eb0:	20310151 	eorscs	r0, r1, r1, asr r1
    2eb4:	76025001 	strvc	r5, [r2], -r1
    2eb8:	2c240000 	stccs	0, cr0, [r4], #-0
    2ebc:	8f000094 	svchi	0x00000094
    2ec0:	25000011 	strcs	r0, [r0, #-17]
    2ec4:	00009448 	andeq	r9, r0, r8, asr #8
    2ec8:	00001196 	muleq	r0, r6, r1
    2ecc:	00000e28 	andeq	r0, r0, r8, lsr #28
    2ed0:	02530120 	subseq	r0, r3, #32, 2
    2ed4:	01209d08 	teqeq	r0, r8, lsl #26
    2ed8:	10030552 	andne	r0, r3, r2, asr r5
    2edc:	2000009b 	mulcs	r0, fp, r0
    2ee0:	03055101 	movweq	r5, #20737	; 0x5101
    2ee4:	00009b5c 	andeq	r9, r0, ip, asr fp
    2ee8:	05500120 	ldrbeq	r0, [r0, #-288]	; 0x120
    2eec:	0099e403 	addseq	lr, r9, r3, lsl #8
    2ef0:	7d022000 	stcvc	0, cr2, [r2, #-0]
    2ef4:	7c030500 	cfstr32vc	mvfx0, [r3], {-0}
    2ef8:	0000009b 	muleq	r0, fp, r0
    2efc:	00944c24 	addseq	r4, r4, r4, lsr #24
    2f00:	0011ac00 	andseq	sl, r1, r0, lsl #24
    2f04:	902a0000 	eorls	r0, sl, r0
    2f08:	42000000 	andmi	r0, r0, #0
    2f0c:	2b00000e 	blcs	2f4c <_start-0x50b4>
    2f10:	00000081 	andeq	r0, r0, r1, lsl #1
    2f14:	32070013 	andcc	r0, r7, #19
    2f18:	2300000e 	movwcs	r0, #14
    2f1c:	00000822 	andeq	r0, r0, r2, lsr #16
    2f20:	0025a901 	eoreq	sl, r5, r1, lsl #18
    2f24:	947c0000 	ldrbtls	r0, [ip], #-0
    2f28:	003c0000 	eorseq	r0, ip, r0
    2f2c:	9c010000 	stcls	0, cr0, [r1], {-0}
    2f30:	00000eea 	andeq	r0, r0, sl, ror #29
    2f34:	0003dc13 	andeq	sp, r3, r3, lsl ip
    2f38:	22a90100 	adccs	r0, r9, #0, 2
    2f3c:	d6000007 	strle	r0, [r0], -r7
    2f40:	16000020 	strne	r0, [r0], -r0, lsr #32
    2f44:	00736572 	rsbseq	r6, r3, r2, ror r5
    2f48:	0025aa01 	eoreq	sl, r5, r1, lsl #20
    2f4c:	20f70000 	rscscs	r0, r7, r0
    2f50:	ad290000 	stcge	0, cr0, [r9, #-0]
    2f54:	fa000001 	blx	2f60 <_start-0x50a0>
    2f58:	0500000e 	streq	r0, [r0, #-14]
    2f5c:	009b2403 	addseq	r2, fp, r3, lsl #8
    2f60:	94882500 	strls	r2, [r8], #1280	; 0x500
    2f64:	07620000 	strbeq	r0, [r2, -r0]!
    2f68:	0ea80000 	cdpeq	0, 10, cr0, cr8, cr0, {0}
    2f6c:	01200000 	teqeq	r0, r0
    2f70:	ff090251 			; <UNDEFINED> instruction: 0xff090251
    2f74:	03500120 	cmpeq	r0, #32, 2
    2f78:	005001f3 	ldrsheq	r0, [r0], #-19	; 0xffffffed
    2f7c:	00949424 	addseq	r9, r4, r4, lsr #8
    2f80:	00118f00 	andseq	r8, r1, r0, lsl #30
    2f84:	94a82500 	strtls	r2, [r8], #1280	; 0x500
    2f88:	11960000 	orrsne	r0, r6, r0
    2f8c:	0ee00000 	cdpeq	0, 14, cr0, cr0, cr0, {0}
    2f90:	01200000 	teqeq	r0, r0
    2f94:	ac080253 	sfmge	f0, 4, [r8], {83}	; 0x53
    2f98:	05520120 	ldrbeq	r0, [r2, #-288]	; 0x120
    2f9c:	009b2403 	addseq	r2, fp, r3, lsl #8
    2fa0:	51012000 	mrspl	r2, (UNDEF: 1)
    2fa4:	9b5c0305 	blls	1703bc0 <__bss_end__+0x16f9bb8>
    2fa8:	01200000 	teqeq	r0, r0
    2fac:	b0030550 	andlt	r0, r3, r0, asr r5
    2fb0:	0000009b 	muleq	r0, fp, r0
    2fb4:	0094ac24 	addseq	sl, r4, r4, lsr #24
    2fb8:	0011ac00 	andseq	sl, r1, r0, lsl #24
    2fbc:	902a0000 	eorls	r0, sl, r0
    2fc0:	fa000000 	blx	2fc8 <_start-0x5038>
    2fc4:	2b00000e 	blcs	3004 <_start-0x4ffc>
    2fc8:	00000081 	andeq	r0, r0, r1, lsl #1
    2fcc:	ea07000c 	b	1c3004 <__bss_end__+0x1b8ffc>
    2fd0:	1200000e 	andne	r0, r0, #14
    2fd4:	00000866 	andeq	r0, r0, r6, ror #16
    2fd8:	94b8b001 	ldrtls	fp, [r8], #1
    2fdc:	002c0000 	eoreq	r0, ip, r0
    2fe0:	9c010000 	stcls	0, cr0, [r1], {-0}
    2fe4:	00000f43 	andeq	r0, r0, r3, asr #30
    2fe8:	0003dc13 	andeq	sp, r3, r3, lsl ip
    2fec:	22b00100 	adcscs	r0, r0, #0, 2
    2ff0:	0a000007 	beq	3014 <_start-0x4fec>
    2ff4:	14000021 	strne	r0, [r0], #-33	; 0x21
    2ff8:	0067736d 	rsbeq	r7, r7, sp, ror #6
    2ffc:	0097b001 	addseq	fp, r7, r1
    3000:	21280000 	teqcs	r8, r0
    3004:	d01f0000 	andsle	r0, pc, r0
    3008:	76000094 			; <UNDEFINED> instruction: 0x76000094
    300c:	20000001 	andcs	r0, r0, r1
    3010:	75025001 	strvc	r5, [r2, #-1]
    3014:	23000000 	movwcs	r0, #0
    3018:	000003e1 	andeq	r0, r0, r1, ror #7
    301c:	0025b901 	eoreq	fp, r5, r1, lsl #18
    3020:	94e40000 	strbtls	r0, [r4], #0
    3024:	00900000 	addseq	r0, r0, r0
    3028:	9c010000 	stcls	0, cr0, [r1], {-0}
    302c:	00001041 	andeq	r1, r0, r1, asr #32
    3030:	0003dc13 	andeq	sp, r3, r3, lsl ip
    3034:	22b90100 	adcscs	r0, r9, #0, 2
    3038:	46000007 	strmi	r0, [r0], -r7
    303c:	2e000021 	cdpcs	0, 0, cr0, cr0, cr1, {1}
    3040:	00746d66 	rsbseq	r6, r4, r6, ror #26
    3044:	0097b901 	addseq	fp, r7, r1, lsl #18
    3048:	91020000 	mrsls	r0, (UNDEF: 2)
    304c:	62152f74 	andsvs	r2, r5, #116, 30	; 0x1d0
    3050:	01006675 	tsteq	r0, r5, ror r6
    3054:	001041ba 			; <UNDEFINED> instruction: 0x001041ba
    3058:	9c910300 	ldcls	3, cr0, [r1], {0}
    305c:	02b2187c 	adcseq	r1, r2, #124, 16	; 0x7c0000
    3060:	bc010000 	stclt	0, cr0, [r1], {-0}
    3064:	00000106 	andeq	r0, r0, r6, lsl #2
    3068:	7c989103 	ldfvcd	f1, [r8], {3}
    306c:	007a7316 	rsbseq	r7, sl, r6, lsl r3
    3070:	0025be01 	eoreq	fp, r5, r1, lsl #28
    3074:	21720000 	cmncs	r2, r0
    3078:	ad290000 	stcge	0, cr0, [r9, #-0]
    307c:	62000001 	andvs	r0, r0, #1
    3080:	05000010 	streq	r0, [r0, #-16]
    3084:	009b3403 	addseq	r3, fp, r3, lsl #8
    3088:	950c2500 	strls	r2, [ip, #-1280]	; 0x500
    308c:	11d50000 	bicsne	r0, r5, r0
    3090:	0fde0000 	svceq	0x00de0000
    3094:	01200000 	teqeq	r0, r0
    3098:	58910253 	ldmpl	r1, {r0, r1, r4, r6, r9}
    309c:	03520120 	cmpeq	r2, #32, 2
    30a0:	20065491 	mulcs	r6, r1, r4
    30a4:	0a035101 	beq	d74b0 <__bss_end__+0xcd4a8>
    30a8:	012001cc 	smlawteq	r0, ip, r1, r0
    30ac:	fc910350 	ldc2	3, cr0, [r1], {80}	; 0x50
    30b0:	2024007b 	eorcs	r0, r4, fp, ror r0
    30b4:	8f000095 	svchi	0x00000095
    30b8:	25000011 	strcs	r0, [r0, #-17]
    30bc:	0000953c 	andeq	r9, r0, ip, lsr r5
    30c0:	00001196 	muleq	r0, r6, r1
    30c4:	00001020 	andeq	r1, r0, r0, lsr #32
    30c8:	02530120 	subseq	r0, r3, #32, 2
    30cc:	0120c008 	teqeq	r0, r8
    30d0:	34030552 	strcc	r0, [r3], #-1362	; 0x552
    30d4:	2000009b 	mulcs	r0, fp, r0
    30d8:	03055101 	movweq	r5, #20737	; 0x5101
    30dc:	00009b5c 	andeq	r9, r0, ip, asr fp
    30e0:	05500120 	ldrbeq	r0, [r0, #-288]	; 0x120
    30e4:	0099e403 	addseq	lr, r9, r3, lsl #8
    30e8:	7d022000 	stcvc	0, cr2, [r2, #-0]
    30ec:	e8030500 	stmda	r3, {r8, sl}
    30f0:	0000009b 	muleq	r0, fp, r0
    30f4:	00954024 	addseq	r4, r5, r4, lsr #32
    30f8:	0011ac00 	andseq	sl, r1, r0, lsl #24
    30fc:	954c1f00 	strbls	r1, [ip, #-3840]	; 0xf00
    3100:	0eff0000 	cdpeq	0, 15, cr0, cr15, cr0, {0}
    3104:	01200000 	teqeq	r0, r0
    3108:	fc910351 	ldc2	3, cr0, [r1], {81}	; 0x51
    310c:	5001207b 	andpl	r2, r1, fp, ror r0
    3110:	00007502 	andeq	r7, r0, r2, lsl #10
    3114:	00902a00 	addseq	r2, r0, r0, lsl #20
    3118:	10520000 	subsne	r0, r2, r0
    311c:	81300000 	teqhi	r0, r0
    3120:	cb000000 	blgt	3128 <_start-0x4ed8>
    3124:	902a0001 	eorls	r0, sl, r1
    3128:	62000000 	andvs	r0, r0, #0
    312c:	2b000010 	blcs	3174 <_start-0x4e8c>
    3130:	00000081 	andeq	r0, r0, r1, lsl #1
    3134:	5207000e 	andpl	r0, r7, #14
    3138:	23000010 	movwcs	r0, #16
    313c:	000008b5 			; <UNDEFINED> instruction: 0x000008b5
    3140:	0025c501 	eoreq	ip, r5, r1, lsl #10
    3144:	95740000 	ldrbls	r0, [r4, #-0]!
    3148:	004c0000 	subeq	r0, ip, r0
    314c:	9c010000 	stcls	0, cr0, [r1], {-0}
    3150:	00001144 	andeq	r1, r0, r4, asr #2
    3154:	01007514 	tsteq	r0, r4, lsl r5
    3158:	000722c5 	andeq	r2, r7, r5, asr #5
    315c:	0021b100 	eoreq	fp, r1, r0, lsl #2
    3160:	75621400 	strbvc	r1, [r2, #-1024]!	; 0x400
    3164:	c5010066 	strgt	r0, [r1, #-102]	; 0x66
    3168:	00000c0c 	andeq	r0, r0, ip, lsl #24
    316c:	000021d2 	ldrdeq	r2, [r0], -r2	; <UNPREDICTABLE>
    3170:	0008a113 	andeq	sl, r8, r3, lsl r1
    3174:	68c50100 	stmiavs	r5, {r8}^
    3178:	f3000000 	vhadd.u8	d0, d0, d0
    317c:	14000021 	strne	r0, [r0], #-33	; 0x21
    3180:	00646e65 	rsbeq	r6, r4, r5, ror #28
    3184:	004fc501 	subeq	ip, pc, r1, lsl #10
    3188:	22140000 	andscs	r0, r4, #0
    318c:	72160000 	andsvc	r0, r6, #0
    3190:	01007365 	tsteq	r0, r5, ror #6
    3194:	000025c6 	andeq	r2, r0, r6, asr #11
    3198:	00223500 	eoreq	r3, r2, r0, lsl #10
    319c:	01ad2900 			; <UNDEFINED> instruction: 0x01ad2900
    31a0:	11540000 	cmpne	r4, r0
    31a4:	03050000 	movweq	r0, #20480	; 0x5000
    31a8:	00009b44 	andeq	r9, r0, r4, asr #22
    31ac:	00958825 	addseq	r8, r5, r5, lsr #16
    31b0:	000b1e00 	andeq	r1, fp, r0, lsl #28
    31b4:	00110200 	andseq	r0, r1, r0, lsl #4
    31b8:	52012000 	andpl	r2, r1, #0
    31bc:	5201f303 	andpl	pc, r1, #201326592	; 0xc000000
    31c0:	03510120 	cmpeq	r1, #32, 2
    31c4:	205101f3 	ldrshcs	r0, [r1], #-19	; 0xffffffed
    31c8:	f3035001 	vhadd.u8	d5, d3, d1
    31cc:	02205001 	eoreq	r5, r0, #1
    31d0:	0902007d 	stmdbeq	r2, {r0, r2, r3, r4, r5, r6}
    31d4:	942400ff 	strtls	r0, [r4], #-255	; 0xff
    31d8:	8f000095 	svchi	0x00000095
    31dc:	25000011 	strcs	r0, [r0, #-17]
    31e0:	000095a8 	andeq	r9, r0, r8, lsr #11
    31e4:	00001196 	muleq	r0, r6, r1
    31e8:	0000113a 	andeq	r1, r0, sl, lsr r1
    31ec:	02530120 	subseq	r0, r3, #32, 2
    31f0:	0120c808 	teqeq	r0, r8, lsl #16
    31f4:	44030552 	strmi	r0, [r3], #-1362	; 0x552
    31f8:	2000009b 	mulcs	r0, fp, r0
    31fc:	03055101 	movweq	r5, #20737	; 0x5101
    3200:	00009b5c 	andeq	r9, r0, ip, asr fp
    3204:	05500120 	ldrbeq	r0, [r0, #-288]	; 0x120
    3208:	009bb003 	addseq	fp, fp, r3
    320c:	ac240000 	stcge	0, cr0, [r4], #-0
    3210:	ac000095 	stcge	0, cr0, [r0], {149}	; 0x95
    3214:	00000011 	andeq	r0, r0, r1, lsl r0
    3218:	0000902a 	andeq	r9, r0, sl, lsr #32
    321c:	00115400 	andseq	r5, r1, r0, lsl #8
    3220:	00812b00 	addeq	r2, r1, r0, lsl #22
    3224:	00160000 	andseq	r0, r6, r0
    3228:	00114407 	andseq	r4, r1, r7, lsl #8
    322c:	06d83100 	ldrbeq	r3, [r8], r0, lsl #2
    3230:	21060000 	mrscs	r0, (UNDEF: 6)
    3234:	0000116f 	andeq	r1, r0, pc, ror #2
    3238:	00002c32 	andeq	r2, r0, r2, lsr ip
    323c:	002c3200 	eoreq	r3, ip, r0, lsl #4
    3240:	33000000 	movwcc	r0, #0
    3244:	0000051e 	andeq	r0, r0, lr, lsl r5
    3248:	002c5707 	eoreq	r5, ip, r7, lsl #14
    324c:	64340000 	ldrtvs	r0, [r4], #-0
    3250:	06000006 	streq	r0, [r0], -r6
    3254:	00002524 	andeq	r2, r0, r4, lsr #10
    3258:	00118f00 	andseq	r8, r1, r0, lsl #30
    325c:	002c3200 	eoreq	r3, ip, r0, lsl #4
    3260:	35000000 	strcc	r0, [r0, #-0]
    3264:	000001d7 	ldrdeq	r0, [r0], -r7
    3268:	5d341e07 	ldcpl	14, cr1, [r4, #-28]!	; 0xffffffe4
    326c:	07000002 	streq	r0, [r0, -r2]
    3270:	00002529 	andeq	r2, r0, r9, lsr #10
    3274:	0011ac00 	andseq	sl, r1, r0, lsl #24
    3278:	00973200 	addseq	r3, r7, r0, lsl #4
    327c:	002f0000 	eoreq	r0, pc, r0
    3280:	00006135 	andeq	r6, r0, r5, lsr r1
    3284:	31660700 	cmncc	r6, r0, lsl #14
    3288:	00000726 	andeq	r0, r0, r6, lsr #14
    328c:	11c41d06 	bicne	r1, r4, r6, lsl #26
    3290:	2c320000 	ldccs	0, cr0, [r2], #-0
    3294:	00000000 	andeq	r0, r0, r0
    3298:	00000e31 	andeq	r0, r0, r1, lsr lr
    329c:	d51c0600 	ldrle	r0, [ip, #-1536]	; 0x600
    32a0:	32000011 	andcc	r0, r0, #17
    32a4:	0000002c 	andeq	r0, r0, ip, lsr #32
    32a8:	025a3600 	subseq	r3, sl, #0, 12
    32ac:	02080000 	andeq	r0, r8, #0
    32b0:	00000025 	andeq	r0, r0, r5, lsr #32
    32b4:	00008a32 	andeq	r8, r0, r2, lsr sl
    32b8:	00253200 	eoreq	r3, r5, r0, lsl #4
    32bc:	97320000 	ldrls	r0, [r2, -r0]!
    32c0:	32000000 	andcc	r0, r0, #0
    32c4:	00000106 	andeq	r0, r0, r6, lsl #2
    32c8:	03ff0000 	mvnseq	r0, #0
    32cc:	00040000 	andeq	r0, r4, r0
    32d0:	00000fb0 			; <UNDEFINED> instruction: 0x00000fb0
    32d4:	02030104 	andeq	r0, r3, #4, 2
    32d8:	a3010000 	movwge	r0, #4096	; 0x1000
    32dc:	6e000009 	cdpvs	0, 0, cr0, cr0, cr9, {0}
    32e0:	c0000002 	andgt	r0, r0, r2
    32e4:	54000095 	strpl	r0, [r0], #-149	; 0x95
    32e8:	8f000001 	svchi	0x00000001
    32ec:	0200000d 	andeq	r0, r0, #13
    32f0:	6e690504 	cdpvs	5, 6, cr0, cr9, cr4, {0}
    32f4:	04030074 	streq	r0, [r3], #-116	; 0x74
    32f8:	00003c07 	andeq	r3, r0, r7, lsl #24
    32fc:	06010300 	streq	r0, [r1], -r0, lsl #6
    3300:	0000004b 	andeq	r0, r0, fp, asr #32
    3304:	f8050203 			; <UNDEFINED> instruction: 0xf8050203
    3308:	03000000 	movweq	r0, #0
    330c:	00050504 	andeq	r0, r5, r4, lsl #10
    3310:	08030000 	stmdaeq	r3, {}	; <UNPREDICTABLE>
    3314:	00000005 	andeq	r0, r0, r5
    3318:	08010300 	stmdaeq	r1, {r8, r9}
    331c:	00000049 	andeq	r0, r0, r9, asr #32
    3320:	e5070203 	str	r0, [r7, #-515]	; 0x203
    3324:	03000000 	movweq	r0, #0
    3328:	00370704 	eorseq	r0, r7, r4, lsl #14
    332c:	08030000 	stmdaeq	r3, {}	; <UNPREDICTABLE>
    3330:	00003207 	andeq	r3, r0, r7, lsl #4
    3334:	07040300 	streq	r0, [r4, -r0, lsl #6]
    3338:	0000016d 	andeq	r0, r0, sp, ror #2
    333c:	52080103 	andpl	r0, r8, #-1073741824	; 0xc0000000
    3340:	04000000 	streq	r0, [r0], #-0
    3344:	b20c0201 	andlt	r0, ip, #268435456	; 0x10000000
    3348:	05000000 	streq	r0, [r0, #-0]
    334c:	000005bc 			; <UNDEFINED> instruction: 0x000005bc
    3350:	07360500 	ldreq	r0, [r6, -r0, lsl #10]!
    3354:	05010000 	streq	r0, [r1, #-0]
    3358:	0000076f 	andeq	r0, r0, pc, ror #14
    335c:	077e0504 	ldrbeq	r0, [lr, -r4, lsl #10]!
    3360:	05050000 	streq	r0, [r5, #-0]
    3364:	0000078d 	andeq	r0, r0, sp, lsl #15
    3368:	079c0506 	ldreq	r0, [ip, r6, lsl #10]
    336c:	05070000 	streq	r0, [r7, #-0]
    3370:	000007ab 	andeq	r0, r0, fp, lsr #15
    3374:	07ba0503 	ldreq	r0, [sl, r3, lsl #10]!
    3378:	00020000 	andeq	r0, r2, r0
    337c:	00076306 	andeq	r6, r7, r6, lsl #6
    3380:	79150200 	ldmdbvc	r5, {r9}
    3384:	07000000 	streq	r0, [r0, -r0]
    3388:	00000057 	andeq	r0, r0, r7, asr r0
    338c:	95c03701 	strbls	r3, [r0, #1793]	; 0x701
    3390:	009c0000 	addseq	r0, ip, r0
    3394:	9c010000 	stcls	0, cr0, [r1], {-0}
    3398:	000001c3 	andeq	r0, r0, r3, asr #3
    339c:	0095c808 	addseq	ip, r5, r8, lsl #16
    33a0:	0003a800 	andeq	sl, r3, r0, lsl #16
    33a4:	95d40900 	ldrbls	r0, [r4, #2304]	; 0x900
    33a8:	03af0000 			; <UNDEFINED> instruction: 0x03af0000
    33ac:	00f30000 	rscseq	r0, r3, r0
    33b0:	010a0000 	mrseq	r0, (UNDEF: 10)
    33b4:	0a320151 	beq	c83900 <__bss_end__+0xc798f8>
    33b8:	3e015001 	cdpcc	0, 0, cr5, cr1, cr1, {0}
    33bc:	95e00900 	strbls	r0, [r0, #2304]!	; 0x900
    33c0:	03af0000 			; <UNDEFINED> instruction: 0x03af0000
    33c4:	010b0000 	mrseq	r0, (UNDEF: 11)
    33c8:	010a0000 	mrseq	r0, (UNDEF: 10)
    33cc:	0a320151 	beq	c83918 <__bss_end__+0xc79910>
    33d0:	3f015001 	svccc	0x00015001
    33d4:	95e40800 	strbls	r0, [r4, #2048]!	; 0x800
    33d8:	03a80000 			; <UNDEFINED> instruction: 0x03a80000
    33dc:	f4090000 	vst4.8	{d0-d3}, [r9], r0
    33e0:	c5000095 	strgt	r0, [r0, #-149]	; 0x95
    33e4:	28000003 	stmdacs	r0, {r0, r1}
    33e8:	0a000001 	beq	33f4 <_start-0x4c0c>
    33ec:	75025001 	strvc	r5, [r2, #-1]
    33f0:	00090000 	andeq	r0, r9, r0
    33f4:	e6000096 			; <UNDEFINED> instruction: 0xe6000096
    33f8:	3c000003 	stccc	0, cr0, [r0], {3}
    33fc:	0a000001 	beq	3408 <_start-0x4bf8>
    3400:	75025001 	strvc	r5, [r2, #-1]
    3404:	04080000 	streq	r0, [r8], #-0
    3408:	a8000096 	stmdage	r0, {r1, r2, r4, r7}
    340c:	09000003 	stmdbeq	r0, {r0, r1}
    3410:	00009610 	andeq	r9, r0, r0, lsl r6
    3414:	000003e6 	andeq	r0, r0, r6, ror #7
    3418:	00000158 	andeq	r0, r0, r8, asr r1
    341c:	0151010a 	cmpeq	r1, sl, lsl #2
    3420:	1c090030 	stcne	0, cr0, [r9], {48}	; 0x30
    3424:	e6000096 			; <UNDEFINED> instruction: 0xe6000096
    3428:	6b000003 	blvs	343c <_start-0x4bc4>
    342c:	0a000001 	beq	3438 <_start-0x4bc8>
    3430:	30015101 	andcc	r5, r1, r1, lsl #2
    3434:	96280900 	strtls	r0, [r8], -r0, lsl #18
    3438:	03e60000 	mvneq	r0, #0
    343c:	017e0000 	cmneq	lr, r0
    3440:	010a0000 	mrseq	r0, (UNDEF: 10)
    3444:	00360151 	eorseq	r0, r6, r1, asr r1
    3448:	00963409 	addseq	r3, r6, r9, lsl #8
    344c:	0003e600 	andeq	lr, r3, r0, lsl #12
    3450:	00019100 	andeq	r9, r1, r0, lsl #2
    3454:	51010a00 	tstpl	r1, r0, lsl #20
    3458:	09003301 	stmdbeq	r0, {r0, r8, r9, ip, sp}
    345c:	00009640 	andeq	r9, r0, r0, asr #12
    3460:	000003e6 	andeq	r0, r0, r6, ror #7
    3464:	000001a6 	andeq	r0, r0, r6, lsr #3
    3468:	0351010a 	cmpeq	r1, #-2147483646	; 0x80000002
    346c:	00010e0a 	andeq	r0, r1, sl, lsl #28
    3470:	00964c09 	addseq	r4, r6, r9, lsl #24
    3474:	0003e600 	andeq	lr, r3, r0, lsl #12
    3478:	0001b900 	andeq	fp, r1, r0, lsl #18
    347c:	51010a00 	tstpl	r1, r0, lsl #20
    3480:	08003301 	stmdaeq	r0, {r0, r8, r9, ip, sp}
    3484:	00009650 	andeq	r9, r0, r0, asr r6
    3488:	000003a8 	andeq	r0, r0, r8, lsr #7
    348c:	09080b00 	stmdbeq	r8, {r8, r9, fp}
    3490:	57010000 	strpl	r0, [r1, -r0]
    3494:	00000025 	andeq	r0, r0, r5, lsr #32
    3498:	0000965c 	andeq	r9, r0, ip, asr r6
    349c:	0000001c 	andeq	r0, r0, ip, lsl r0
    34a0:	01e69c01 	mvneq	r9, r1, lsl #24
    34a4:	6c080000 	stcvs	0, cr0, [r8], {-0}
    34a8:	c5000096 	strgt	r0, [r0, #-150]	; 0x96
    34ac:	00000003 	andeq	r0, r0, r3
    34b0:	0008250b 	andeq	r2, r8, fp, lsl #10
    34b4:	255d0100 	ldrbcs	r0, [sp, #-256]	; 0x100
    34b8:	78000000 	stmdavc	r0, {}	; <UNPREDICTABLE>
    34bc:	28000096 	stmdacs	r0, {r1, r2, r4, r7}
    34c0:	01000000 	mrseq	r0, (UNDEF: 0)
    34c4:	0002129c 	muleq	r2, ip, r2
    34c8:	96800800 	strls	r0, [r0], r0, lsl #16
    34cc:	01c30000 	biceq	r0, r3, r0
    34d0:	94080000 	strls	r0, [r8], #-0
    34d4:	c5000096 	strgt	r0, [r0, #-150]	; 0x96
    34d8:	00000003 	andeq	r0, r0, r3
    34dc:	0009520b 	andeq	r5, r9, fp, lsl #4
    34e0:	25640100 	strbcs	r0, [r4, #-256]!	; 0x100
    34e4:	a0000000 	andge	r0, r0, r0
    34e8:	1c000096 	stcne	0, cr0, [r0], {150}	; 0x96
    34ec:	01000000 	mrseq	r0, (UNDEF: 0)
    34f0:	0002359c 	muleq	r2, ip, r5
    34f4:	96b00800 	ldrtls	r0, [r0], r0, lsl #16
    34f8:	03c50000 	biceq	r0, r5, #0
    34fc:	07000000 	streq	r0, [r0, -r0]
    3500:	0000043d 	andeq	r0, r0, sp, lsr r4
    3504:	96bc6a01 	ldrtls	r6, [ip], r1, lsl #20
    3508:	002c0000 	eoreq	r0, ip, r0
    350c:	9c010000 	stcls	0, cr0, [r1], {-0}
    3510:	00000271 	andeq	r0, r0, r1, ror r2
    3514:	0100630c 	tsteq	r0, ip, lsl #6
    3518:	00002c6a 	andeq	r2, r0, sl, ror #24
    351c:	00225300 	eoreq	r5, r2, r0, lsl #6
    3520:	96c80800 	strbls	r0, [r8], r0, lsl #16
    3524:	02120000 	andseq	r0, r2, #0
    3528:	e00d0000 	and	r0, sp, r0
    352c:	e6000096 			; <UNDEFINED> instruction: 0xe6000096
    3530:	0a000003 	beq	3544 <_start-0x4abc>
    3534:	74025101 	strvc	r5, [r2], #-257	; 0x101
    3538:	0b000000 	bleq	3540 <_start-0x4ac0>
    353c:	00000926 	andeq	r0, r0, r6, lsr #18
    3540:	00257401 	eoreq	r7, r5, r1, lsl #8
    3544:	96e80000 	strbtls	r0, [r8], r0
    3548:	000c0000 	andeq	r0, ip, r0
    354c:	9c010000 	stcls	0, cr0, [r1], {-0}
    3550:	00000294 	muleq	r0, r4, r2
    3554:	0096f008 	addseq	pc, r6, r8
    3558:	0001c300 	andeq	ip, r1, r0, lsl #6
    355c:	cf0b0000 	svcgt	0x000b0000
    3560:	01000009 	tsteq	r0, r9
    3564:	00002578 	andeq	r2, r0, r8, ror r5
    3568:	0096f400 	addseq	pc, r6, r0, lsl #8
    356c:	00002000 	andeq	r2, r0, r0
    3570:	c09c0100 	addsgt	r0, ip, r0, lsl #2
    3574:	08000002 	stmdaeq	r0, {r1}
    3578:	000096fc 	strdeq	r9, [r0], -ip
    357c:	00000271 	andeq	r0, r0, r1, ror r2
    3580:	00970808 	addseq	r0, r7, r8, lsl #16
    3584:	0001e600 	andeq	lr, r1, r0, lsl #12
    3588:	6c0e0000 	stcvs	0, cr0, [lr], {-0}
    358c:	01000009 	tsteq	r0, r9
    3590:	0002d116 	andeq	sp, r2, r6, lsl r1
    3594:	8c030500 	cfstr32hi	mvfx0, [r3], {-0}
    3598:	0f000098 	svceq	0x00000098
    359c:	0002d704 	andeq	sp, r2, r4, lsl #14
    35a0:	002c1000 	eoreq	r1, ip, r0
    35a4:	600e0000 	andvs	r0, lr, r0
    35a8:	01000009 	tsteq	r0, r9
    35ac:	0002d117 	andeq	sp, r2, r7, lsl r1
    35b0:	5c030500 	cfstr32pl	mvfx0, [r3], {-0}
    35b4:	0e000098 	mcreq	0, 0, r0, cr0, cr8, {4}
    35b8:	000008eb 	andeq	r0, r0, fp, ror #17
    35bc:	02d11a01 	sbcseq	r1, r1, #4096	; 0x1000
    35c0:	03050000 	movweq	r0, #20480	; 0x5000
    35c4:	00009878 	andeq	r9, r0, r8, ror r8
    35c8:	0009340e 	andeq	r3, r9, lr, lsl #8
    35cc:	d11b0100 	tstle	fp, r0, lsl #2
    35d0:	05000002 	streq	r0, [r0, #-2]
    35d4:	00986403 	addseq	r6, r8, r3, lsl #8
    35d8:	09430e00 	stmdbeq	r3, {r9, sl, fp}^
    35dc:	1c010000 	stcne	0, cr0, [r1], {-0}
    35e0:	000002d1 	ldrdeq	r0, [r0], -r1
    35e4:	98680305 	stmdals	r8!, {r0, r2, r8, r9}^
    35e8:	b10e0000 	mrslt	r0, (UNDEF: 14)
    35ec:	01000009 	tsteq	r0, r9
    35f0:	0002d11d 	andeq	sp, r2, sp, lsl r1
    35f4:	6c030500 	cfstr32vs	mvfx0, [r3], {-0}
    35f8:	0e000098 	mcreq	0, 0, r0, cr0, cr8, {4}
    35fc:	000008dc 	ldrdeq	r0, [r0], -ip
    3600:	02d11e01 	sbcseq	r1, r1, #1, 28
    3604:	03050000 	movweq	r0, #20480	; 0x5000
    3608:	00009888 	andeq	r9, r0, r8, lsl #17
    360c:	0009c00e 	andeq	ip, r9, lr
    3610:	d11f0100 	tstle	pc, r0, lsl #2
    3614:	05000002 	streq	r0, [r0, #-2]
    3618:	00987403 	addseq	r7, r8, r3, lsl #8
    361c:	08f90e00 	ldmeq	r9!, {r9, sl, fp}^
    3620:	20010000 	andcs	r0, r1, r0
    3624:	000002d1 	ldrdeq	r0, [r0], -r1
    3628:	98840305 	stmls	r4, {r0, r2, r8, r9}
    362c:	940e0000 	strls	r0, [lr], #-0
    3630:	01000009 	tsteq	r0, r9
    3634:	0002d121 	andeq	sp, r2, r1, lsr #2
    3638:	80030500 	andhi	r0, r3, r0, lsl #10
    363c:	0e000098 	mcreq	0, 0, r0, cr0, cr8, {4}
    3640:	00000916 	andeq	r0, r0, r6, lsl r9
    3644:	02d12201 	sbcseq	r2, r1, #268435456	; 0x10000000
    3648:	03050000 	movweq	r0, #20480	; 0x5000
    364c:	00009860 	andeq	r9, r0, r0, ror #16
    3650:	0009840e 	andeq	r8, r9, lr, lsl #8
    3654:	d1230100 	teqle	r3, r0, lsl #2
    3658:	05000002 	streq	r0, [r0, #-2]
    365c:	00987c03 	addseq	r7, r8, r3, lsl #24
    3660:	09740e00 	ldmdbeq	r4!, {r9, sl, fp}^
    3664:	24010000 	strcs	r0, [r1], #-0
    3668:	000002d1 	ldrdeq	r0, [r0], -r1
    366c:	98700305 	ldmdals	r0!, {r0, r2, r8, r9}^
    3670:	46110000 	ldrmi	r0, [r1], -r0
    3674:	03000006 	movweq	r0, #6
    3678:	0683128a 	streq	r1, [r3], sl, lsl #5
    367c:	19020000 	stmdbne	r2, {}	; <UNPREDICTABLE>
    3680:	000003c5 	andeq	r0, r0, r5, asr #7
    3684:	00002c13 	andeq	r2, r0, r3, lsl ip
    3688:	00b21300 	adcseq	r1, r2, r0, lsl #6
    368c:	14000000 	strne	r0, [r0], #-0
    3690:	00000747 	andeq	r0, r0, r7, asr #14
    3694:	002ca903 	eoreq	sl, ip, r3, lsl #18
    3698:	03da0000 	bicseq	r0, sl, #0
    369c:	da130000 	ble	4c36a4 <__bss_end__+0x4b969c>
    36a0:	00000003 	andeq	r0, r0, r3
    36a4:	03e0040f 	mvneq	r0, #251658240	; 0xf000000
    36a8:	e5150000 	ldr	r0, [r5, #-0]
    36ac:	16000003 	strne	r0, [r0], -r3
    36b0:	00019c12 	andeq	r9, r1, r2, lsl ip
    36b4:	fc9d0300 	ldc2	3, cr0, [sp], {0}
    36b8:	13000003 	movwne	r0, #3
    36bc:	000003fc 	strdeq	r0, [r0], -ip
    36c0:	00002c13 	andeq	r2, r0, r3, lsl ip
    36c4:	040f0000 	streq	r0, [pc], #-0	; 36cc <_start-0x4934>
    36c8:	000003e5 	andeq	r0, r0, r5, ror #7
    36cc:	0001c300 	andeq	ip, r1, r0, lsl #6
    36d0:	de000400 	cfcpysle	mvf0, mvf0
    36d4:	04000010 	streq	r0, [r0], #-16
    36d8:	00020301 	andeq	r0, r2, r1, lsl #6
    36dc:	09f40100 	ldmibeq	r4!, {r8}^
    36e0:	026e0000 	rsbeq	r0, lr, #0
    36e4:	97780000 	ldrbls	r0, [r8, -r0]!
    36e8:	00500000 	subseq	r0, r0, r0
    36ec:	0e940000 	cdpeq	0, 9, cr0, cr4, cr0, {0}
    36f0:	04020000 	streq	r0, [r2], #-0
    36f4:	746e6905 	strbtvc	r6, [lr], #-2309	; 0x905
    36f8:	09df0300 	ldmibeq	pc, {r8, r9}^	; <UNPREDICTABLE>
    36fc:	d4020000 	strle	r0, [r2], #-0
    3700:	00000037 	andeq	r0, r0, r7, lsr r0
    3704:	3c070404 	cfstrscc	mvf0, [r7], {4}
    3708:	04000000 	streq	r0, [r0], #-0
    370c:	004b0601 	subeq	r0, fp, r1, lsl #12
    3710:	02040000 	andeq	r0, r4, #0
    3714:	0000f805 	andeq	pc, r0, r5, lsl #16
    3718:	05040400 	streq	r0, [r4, #-1024]	; 0x400
    371c:	00000005 	andeq	r0, r0, r5
    3720:	00050804 	andeq	r0, r5, r4, lsl #16
    3724:	03000000 	movweq	r0, #0
    3728:	00000447 	andeq	r0, r0, r7, asr #8
    372c:	00652e03 	rsbeq	r2, r5, r3, lsl #28
    3730:	01040000 	mrseq	r0, (UNDEF: 4)
    3734:	00004908 	andeq	r4, r0, r8, lsl #18
    3738:	07020400 	streq	r0, [r2, -r0, lsl #8]
    373c:	000000e5 	andeq	r0, r0, r5, ror #1
    3740:	00049e03 	andeq	r9, r4, r3, lsl #28
    3744:	7e340300 	cdpvc	3, 3, cr0, cr4, cr0, {0}
    3748:	04000000 	streq	r0, [r0], #-0
    374c:	00370704 	eorseq	r0, r7, r4, lsl #14
    3750:	08040000 	stmdaeq	r4, {}	; <UNPREDICTABLE>
    3754:	00003207 	andeq	r3, r0, r7, lsl #4
    3758:	07040400 	streq	r0, [r4, -r0, lsl #8]
    375c:	0000016d 	andeq	r0, r0, sp, ror #2
    3760:	01040405 	tsteq	r4, r5, lsl #8
    3764:	00005208 	andeq	r5, r0, r8, lsl #4
    3768:	040c0600 	streq	r0, [ip], #-1536	; 0x600
    376c:	0000d30e 	andeq	sp, r0, lr, lsl #6
    3770:	78740700 	ldmdavc	r4!, {r8, r9, sl}^
    3774:	5a0f0400 	bpl	3c477c <__bss_end__+0x3ba774>
    3778:	00000000 	andeq	r0, r0, r0
    377c:	00787207 	rsbseq	r7, r8, r7, lsl #4
    3780:	005a0f04 	subseq	r0, sl, r4, lsl #30
    3784:	08010000 	stmdaeq	r1, {}	; <UNPREDICTABLE>
    3788:	00000415 	andeq	r0, r0, r5, lsl r4
    378c:	00731004 	rsbseq	r1, r3, r4
    3790:	08040000 	stmdaeq	r4, {}	; <UNPREDICTABLE>
    3794:	000003c6 	andeq	r0, r0, r6, asr #7
    3798:	00731104 	rsbseq	r1, r3, r4, lsl #2
    379c:	00080000 	andeq	r0, r8, r0
    37a0:	0003fe03 	andeq	pc, r3, r3, lsl #28
    37a4:	9c120400 	cfldrsls	mvf0, [r2], {-0}
    37a8:	09000000 	stmdbeq	r0, {}	; <UNPREDICTABLE>
    37ac:	f9100501 			; <UNDEFINED> instruction: 0xf9100501
    37b0:	0a000000 	beq	37b8 <_start-0x4848>
    37b4:	0000041a 	andeq	r0, r0, sl, lsl r4
    37b8:	04080a01 	streq	r0, [r8], #-2561	; 0xa01
    37bc:	0a020000 	beq	837c4 <__bss_end__+0x797bc>
    37c0:	000003f0 	strdeq	r0, [r0], -r0	; <UNPREDICTABLE>
    37c4:	2f030003 	svccs	0x00030003
    37c8:	05000004 	streq	r0, [r0, #-4]
    37cc:	0000de10 	andeq	sp, r0, r0, lsl lr
    37d0:	05140600 	ldreq	r0, [r4, #-1536]	; 0x600
    37d4:	00013114 	andeq	r3, r1, r4, lsl r1
    37d8:	04a70800 	strteq	r0, [r7], #2048	; 0x800
    37dc:	15050000 	strne	r0, [r5, #-0]
    37e0:	00000037 	andeq	r0, r0, r7, lsr r0
    37e4:	04920800 	ldreq	r0, [r2], #2048	; 0x800
    37e8:	18050000 	stmdane	r5, {}	; <UNPREDICTABLE>
    37ec:	000000f9 	strdeq	r0, [r0], -r9
    37f0:	045d0804 	ldrbeq	r0, [sp], #-2052	; 0x804
    37f4:	1b050000 	blne	1437fc <__bss_end__+0x1397f4>
    37f8:	000000d3 	ldrdeq	r0, [r0], -r3
    37fc:	4f030008 	svcmi	0x00030008
    3800:	05000004 	streq	r0, [r0, #-4]
    3804:	00010420 	andeq	r0, r1, r0, lsr #8
    3808:	09ed0b00 	stmibeq	sp!, {r8, r9, fp}^
    380c:	05010000 	streq	r0, [r1, #-0]
    3810:	0000017e 	andeq	r0, r0, lr, ror r1
    3814:	00009778 	andeq	r9, r0, r8, ror r7
    3818:	00000028 	andeq	r0, r0, r8, lsr #32
    381c:	017e9c01 	cmneq	lr, r1, lsl #24
    3820:	630c0000 	movwvs	r0, #49152	; 0xc000
    3824:	7e060100 	adfvcs	f0, f6, f0
    3828:	00000001 	andeq	r0, r0, r1
    382c:	0d090000 	stceq	0, cr0, [r9, #-0]
    3830:	0000978c 	andeq	r9, r0, ip, lsl #15
    3834:	000001ab 	andeq	r0, r0, fp, lsr #3
    3838:	0152010e 	cmpeq	r2, lr, lsl #2
    383c:	51010e34 	tstpl	r1, r4, lsr lr
    3840:	010e3001 	tsteq	lr, r1
    3844:	47420350 	smlsldmi	r0, r2, r0, r3
    3848:	0f000024 	svceq	0x00000024
    384c:	00013104 	andeq	r3, r1, r4, lsl #2
    3850:	04650b00 	strbteq	r0, [r5], #-2816	; 0xb00
    3854:	0c010000 	stceq	0, cr0, [r1], {-0}
    3858:	0000017e 	andeq	r0, r0, lr, ror r1
    385c:	000097a0 	andeq	r9, r0, r0, lsr #15
    3860:	00000028 	andeq	r0, r0, r8, lsr #32
    3864:	01ab9c01 			; <UNDEFINED> instruction: 0x01ab9c01
    3868:	630c0000 	movwvs	r0, #49152	; 0xc000
    386c:	7e0d0100 	adfvce	f0, f5, f0
    3870:	00000001 	andeq	r0, r0, r1
    3874:	00090000 	andeq	r0, r9, r0
    3878:	0009e610 	andeq	lr, r9, r0, lsl r6
    387c:	931b0600 	tstls	fp, #0, 12
    3880:	11000000 	mrsne	r0, (UNDEF: 0)
    3884:	00000093 	muleq	r0, r3, r0
    3888:	00002511 	andeq	r2, r0, r1, lsl r5
    388c:	002c1100 	eoreq	r1, ip, r0, lsl #2
    3890:	00000000 	andeq	r0, r0, r0
    3894:	000000db 	ldrdeq	r0, [r0], -fp
    3898:	11c20004 	bicne	r0, r2, r4
    389c:	01040000 	mrseq	r0, (UNDEF: 4)
    38a0:	00000203 	andeq	r0, r0, r3, lsl #4
    38a4:	000a0f01 	andeq	r0, sl, r1, lsl #30
    38a8:	00026e00 	andeq	r6, r2, r0, lsl #28
    38ac:	0097c800 	addseq	ip, r7, r0, lsl #16
    38b0:	00002000 	andeq	r2, r0, r0
    38b4:	000fc000 	andeq	ip, pc, r0
    38b8:	06010200 	streq	r0, [r1], -r0, lsl #4
    38bc:	0000004b 	andeq	r0, r0, fp, asr #32
    38c0:	49080102 	stmdbmi	r8, {r1, r8}
    38c4:	02000000 	andeq	r0, r0, #0
    38c8:	00f80502 	rscseq	r0, r8, r2, lsl #10
    38cc:	02020000 	andeq	r0, r2, #0
    38d0:	0000e507 	andeq	lr, r0, r7, lsl #10
    38d4:	05040300 	streq	r0, [r4, #-768]	; 0x300
    38d8:	00746e69 	rsbseq	r6, r4, r9, ror #28
    38dc:	3c070402 	cfstrscc	mvf0, [r7], {2}
    38e0:	02000000 	andeq	r0, r0, #0
    38e4:	00000508 	andeq	r0, r0, r8, lsl #10
    38e8:	08020000 	stmdaeq	r2, {}	; <UNPREDICTABLE>
    38ec:	00003207 	andeq	r3, r0, r7, lsl #4
    38f0:	05040200 	streq	r0, [r4, #-512]	; 0x200
    38f4:	00000005 	andeq	r0, r0, r5
    38f8:	6d070402 	cfstrsvs	mvf0, [r7, #-8]
    38fc:	04000001 	streq	r0, [r0], #-1
    3900:	07040204 	streq	r0, [r4, -r4, lsl #4]
    3904:	00000037 	andeq	r0, r0, r7, lsr r0
    3908:	007a0405 	rsbseq	r0, sl, r5, lsl #8
    390c:	01020000 	mrseq	r0, (UNDEF: 2)
    3910:	00005208 	andeq	r5, r0, r8, lsl #4
    3914:	09df0600 	ldmibeq	pc, {r9, sl}^	; <UNPREDICTABLE>
    3918:	d4020000 	strle	r0, [r2], #-0
    391c:	00000048 	andeq	r0, r0, r8, asr #32
    3920:	0009e607 	andeq	lr, r9, r7, lsl #12
    3924:	6b1b0300 	blvs	6c452c <__bss_end__+0x6ba524>
    3928:	c8000000 	stmdagt	r0, {}	; <UNPREDICTABLE>
    392c:	20000097 	mulcs	r0, r7, r0
    3930:	01000000 	mrseq	r0, (UNDEF: 0)
    3934:	705f089c 			; <UNDEFINED> instruction: 0x705f089c
    3938:	6b030100 	blvs	c3d40 <__bss_end__+0xb9d38>
    393c:	01000000 	mrseq	r0, (UNDEF: 0)
    3940:	00630850 	rsbeq	r0, r3, r0, asr r8
    3944:	00410301 	subeq	r0, r1, r1, lsl #6
    3948:	51010000 	mrspl	r0, (UNDEF: 1)
    394c:	01006e09 	tsteq	r0, r9, lsl #28
    3950:	00008103 	andeq	r8, r0, r3, lsl #2
    3954:	00227100 	eoreq	r7, r2, r0, lsl #2
    3958:	00700a00 	rsbseq	r0, r0, r0, lsl #20
    395c:	00740401 	rsbseq	r0, r4, r1, lsl #8
    3960:	22920000 	addscs	r0, r2, #0
    3964:	650b0000 	strvs	r0, [fp, #-0]
    3968:	74040100 	strvc	r0, [r4], #-256	; 0x100
    396c:	01000000 	mrseq	r0, (UNDEF: 0)
    3970:	Address 0x0000000000003970 is out of bounds.


Disassembly of section .debug_abbrev:

00000000 <.debug_abbrev>:
       0:	25011101 	strcs	r1, [r1, #-257]	; 0x101
       4:	030b130e 	movweq	r1, #45838	; 0xb30e
       8:	110e1b0e 	tstne	lr, lr, lsl #22
       c:	10061201 	andne	r1, r6, r1, lsl #4
      10:	02000017 	andeq	r0, r0, #23
      14:	0b0b0024 	bleq	2c00ac <__bss_end__+0x2b60a4>
      18:	08030b3e 	stmdaeq	r3, {r1, r2, r3, r4, r5, r8, r9, fp}
      1c:	24030000 	strcs	r0, [r3], #-0
      20:	3e0b0b00 	vmlacc.f64	d0, d11, d0
      24:	000e030b 	andeq	r0, lr, fp, lsl #6
      28:	000f0400 	andeq	r0, pc, r0, lsl #8
      2c:	13490b0b 	movtne	r0, #39691	; 0x9b0b
      30:	26050000 	strcs	r0, [r5], -r0
      34:	00134900 	andseq	r4, r3, r0, lsl #18
      38:	012e0600 	teqeq	lr, r0, lsl #12
      3c:	0e03193f 	mcreq	9, 0, r1, cr3, cr15, {1}
      40:	0b3b0b3a 	bleq	ec2d30 <__bss_end__+0xeb8d28>
      44:	01111927 	tsteq	r1, r7, lsr #18
      48:	18400612 	stmdane	r0, {r1, r4, r9, sl}^
      4c:	01194297 			; <UNDEFINED> instruction: 0x01194297
      50:	07000013 	smladeq	r0, r3, r0, r0
      54:	08030034 	stmdaeq	r3, {r2, r4, r5}
      58:	0b3b0b3a 	bleq	ec2d48 <__bss_end__+0xeb8d40>
      5c:	0b1c1349 	bleq	704d88 <__bss_end__+0x6fad80>
      60:	34080000 	strcc	r0, [r8], #-0
      64:	3a0e0300 	bcc	380c6c <__bss_end__+0x376c64>
      68:	490b3b0b 	stmdbmi	fp, {r0, r1, r3, r8, r9, fp, ip, sp}
      6c:	000b1c13 	andeq	r1, fp, r3, lsl ip
      70:	012e0900 	teqeq	lr, r0, lsl #18
      74:	0e03193f 	mcreq	9, 0, r1, cr3, cr15, {1}
      78:	0b3b0b3a 	bleq	ec2d68 <__bss_end__+0xeb8d60>
      7c:	193c1349 	ldmdbne	ip!, {r0, r3, r6, r8, r9, ip}
      80:	00001301 	andeq	r1, r0, r1, lsl #6
      84:	0000180a 	andeq	r1, r0, sl, lsl #16
      88:	010b0b00 	tsteq	fp, r0, lsl #22
      8c:	06120111 			; <UNDEFINED> instruction: 0x06120111
      90:	00001301 	andeq	r1, r0, r1, lsl #6
      94:	0182890c 	orreq	r8, r2, ip, lsl #18
      98:	31011100 	mrscc	r1, (UNDEF: 17)
      9c:	0d000013 	stceq	0, cr0, [r0, #-76]	; 0xffffffb4
      a0:	01018289 	smlabbeq	r1, r9, r2, r8
      a4:	13310111 	teqne	r1, #1073741828	; 0x40000004
      a8:	00001301 	andeq	r1, r0, r1, lsl #6
      ac:	01828a0e 	orreq	r8, r2, lr, lsl #20
      b0:	91180200 	tstls	r8, r0, lsl #4
      b4:	00001842 	andeq	r1, r0, r2, asr #16
      b8:	3f002e0f 	svccc	0x00002e0f
      bc:	3a0e0319 	bcc	380d28 <__bss_end__+0x376d20>
      c0:	270b3b0b 	strcs	r3, [fp, -fp, lsl #22]
      c4:	00193c19 	andseq	r3, r9, r9, lsl ip
      c8:	012e1000 	teqeq	lr, r0
      cc:	0e03193f 	mcreq	9, 0, r1, cr3, cr15, {1}
      d0:	0b3b0b3a 	bleq	ec2dc0 <__bss_end__+0xeb8db8>
      d4:	193c1927 	ldmdbne	ip!, {r0, r1, r2, r5, r8, fp, ip}
      d8:	00001301 	andeq	r1, r0, r1, lsl #6
      dc:	49000511 	stmdbmi	r0, {r0, r4, r8, sl}
      e0:	12000013 	andne	r0, r0, #19
      e4:	193f012e 	ldmdbne	pc!, {r1, r2, r3, r5, r8}	; <UNPREDICTABLE>
      e8:	0b3a0e03 	bleq	e838fc <__bss_end__+0xe798f4>
      ec:	19270b3b 	stmdbne	r7!, {r0, r1, r3, r4, r5, r8, r9, fp}
      f0:	193c1349 	ldmdbne	ip!, {r0, r3, r6, r8, r9, ip}
      f4:	00001301 	andeq	r1, r0, r1, lsl #6
      f8:	01110100 	tsteq	r1, r0, lsl #2
      fc:	0b130e25 	bleq	4c3998 <__bss_end__+0x4b9990>
     100:	0e1b0e03 	cdpeq	14, 1, cr0, cr11, cr3, {0}
     104:	06120111 			; <UNDEFINED> instruction: 0x06120111
     108:	00001710 	andeq	r1, r0, r0, lsl r7
     10c:	0b002402 	bleq	911c <sw_uart_getc_timeout+0x70>
     110:	030b3e0b 	movweq	r3, #48651	; 0xbe0b
     114:	03000008 	movweq	r0, #8
     118:	0b0b0024 	bleq	2c01b0 <__bss_end__+0x2b61a8>
     11c:	0e030b3e 	vmoveq.16	d3[0], r0
     120:	0f040000 	svceq	0x00040000
     124:	490b0b00 	stmdbmi	fp, {r8, r9, fp}
     128:	05000013 	streq	r0, [r0, #-19]
     12c:	13490026 	movtne	r0, #36902	; 0x9026
     130:	2e060000 	cdpcs	0, 0, cr0, cr6, cr0, {0}
     134:	03193f01 	tsteq	r9, #1, 30
     138:	3b0b3a0e 	blcc	2ce978 <__bss_end__+0x2c4970>
     13c:	1119270b 	tstne	r9, fp, lsl #14
     140:	40061201 	andmi	r1, r6, r1, lsl #4
     144:	19429718 	stmdbne	r2, {r3, r4, r8, r9, sl, ip, pc}^
     148:	00001301 	andeq	r1, r0, r1, lsl #6
     14c:	03000507 	movweq	r0, #1287	; 0x507
     150:	3b0b3a08 	blcc	2ce978 <__bss_end__+0x2c4970>
     154:	0213490b 	andseq	r4, r3, #180224	; 0x2c000
     158:	08000017 	stmdaeq	r0, {r0, r1, r2, r4}
     15c:	08030034 	stmdaeq	r3, {r2, r4, r5}
     160:	0b3b0b3a 	bleq	ec2e50 <__bss_end__+0xeb8e48>
     164:	0b1c1349 	bleq	704e90 <__bss_end__+0x6fae88>
     168:	34090000 	strcc	r0, [r9], #-0
     16c:	3a0e0300 	bcc	380d74 <__bss_end__+0x376d6c>
     170:	490b3b0b 	stmdbmi	fp, {r0, r1, r3, r8, r9, fp, ip, sp}
     174:	00170213 	andseq	r0, r7, r3, lsl r2
     178:	00340a00 	eorseq	r0, r4, r0, lsl #20
     17c:	0b3a0e03 	bleq	e83990 <__bss_end__+0xe79988>
     180:	13490b3b 	movtne	r0, #39739	; 0x9b3b
     184:	00001802 	andeq	r1, r0, r2, lsl #16
     188:	11010b0b 	tstne	r1, fp, lsl #22
     18c:	01061201 	tsteq	r6, r1, lsl #4
     190:	0c000013 	stceq	0, cr0, [r0], {19}
     194:	01018289 	smlabbeq	r1, r9, r2, r8
     198:	13310111 	teqne	r1, #1073741828	; 0x40000004
     19c:	00001301 	andeq	r1, r0, r1, lsl #6
     1a0:	01828a0d 	orreq	r8, r2, sp, lsl #20
     1a4:	91180200 	tstls	r8, r0, lsl #4
     1a8:	00001842 	andeq	r1, r0, r2, asr #16
     1ac:	0182890e 	orreq	r8, r2, lr, lsl #18
     1b0:	31011101 	tstcc	r1, r1, lsl #2
     1b4:	0f000013 	svceq	0x00000013
     1b8:	13490035 	movtne	r0, #36917	; 0x9035
     1bc:	34100000 	ldrcc	r0, [r0], #-0
     1c0:	490e0300 	stmdbmi	lr, {r8, r9}
     1c4:	02193413 	andseq	r3, r9, #318767104	; 0x13000000
     1c8:	11000018 	tstne	r0, r8, lsl r0
     1cc:	00018289 	andeq	r8, r1, r9, lsl #5
     1d0:	13310111 	teqne	r1, #1073741828	; 0x40000004
     1d4:	01120000 	tsteq	r2, r0
     1d8:	01134901 	tsteq	r3, r1, lsl #18
     1dc:	13000013 	movwne	r0, #19
     1e0:	13490021 	movtne	r0, #36897	; 0x9021
     1e4:	00000b2f 	andeq	r0, r0, pc, lsr #22
     1e8:	03003414 	movweq	r3, #1044	; 0x414
     1ec:	3b0b3a0e 	blcc	2cea2c <__bss_end__+0x2c4a24>
     1f0:	3f13490b 	svccc	0x0013490b
     1f4:	00180219 	andseq	r0, r8, r9, lsl r2
     1f8:	012e1500 	teqeq	lr, r0, lsl #10
     1fc:	0e03193f 	mcreq	9, 0, r1, cr3, cr15, {1}
     200:	0b3b0b3a 	bleq	ec2ef0 <__bss_end__+0xeb8ee8>
     204:	193c1927 	ldmdbne	ip!, {r0, r1, r2, r5, r8, fp, ip}
     208:	00001301 	andeq	r1, r0, r1, lsl #6
     20c:	49000516 	stmdbmi	r0, {r1, r2, r4, r8, sl}
     210:	17000013 	smladne	r0, r3, r0, r0
     214:	00000035 	andeq	r0, r0, r5, lsr r0
     218:	3f002e18 	svccc	0x00002e18
     21c:	3a0e0319 	bcc	380e88 <__bss_end__+0x376e80>
     220:	270b3b0b 	strcs	r3, [fp, -fp, lsl #22]
     224:	00193c19 	andseq	r3, r9, r9, lsl ip
     228:	012e1900 	teqeq	lr, r0, lsl #18
     22c:	0e03193f 	mcreq	9, 0, r1, cr3, cr15, {1}
     230:	0b3b0b3a 	bleq	ec2f20 <__bss_end__+0xeb8f18>
     234:	13491927 	movtne	r1, #39207	; 0x9927
     238:	1301193c 	movwne	r1, #6460	; 0x193c
     23c:	181a0000 	ldmdane	sl, {}	; <UNPREDICTABLE>
     240:	00000000 	andeq	r0, r0, r0
     244:	25011101 	strcs	r1, [r1, #-257]	; 0x101
     248:	030b130e 	movweq	r1, #45838	; 0xb30e
     24c:	110e1b0e 	tstne	lr, lr, lsl #22
     250:	10061201 	andne	r1, r6, r1, lsl #4
     254:	02000017 	andeq	r0, r0, #23
     258:	0e030016 	mcreq	0, 0, r0, cr3, cr6, {0}
     25c:	0b3b0b3a 	bleq	ec2f4c <__bss_end__+0xeb8f44>
     260:	00001349 	andeq	r1, r0, r9, asr #6
     264:	03011303 	movweq	r1, #4867	; 0x1303
     268:	3a0b0b0e 	bcc	2c2ea8 <__bss_end__+0x2b8ea0>
     26c:	010b3b0b 	tsteq	fp, fp, lsl #22
     270:	04000013 	streq	r0, [r0], #-19
     274:	0e03000d 	cdpeq	0, 0, cr0, cr3, cr13, {0}
     278:	0b381349 	bleq	e04fa4 <__bss_end__+0xdfaf9c>
     27c:	00001934 	andeq	r1, r0, r4, lsr r9
     280:	0b000f05 	bleq	3e9c <_start-0x4164>
     284:	0600000b 	streq	r0, [r0], -fp
     288:	0b0b0024 	bleq	2c0320 <__bss_end__+0x2b6318>
     28c:	08030b3e 	stmdaeq	r3, {r1, r2, r3, r4, r5, r8, r9, fp}
     290:	24070000 	strcs	r0, [r7], #-0
     294:	3e0b0b00 	vmlacc.f64	d0, d11, d0
     298:	000e030b 	andeq	r0, lr, fp, lsl #6
     29c:	000f0800 	andeq	r0, pc, r0, lsl #16
     2a0:	13490b0b 	movtne	r0, #39691	; 0x9b0b
     2a4:	26090000 	strcs	r0, [r9], -r0
     2a8:	00134900 	andseq	r4, r3, r0, lsl #18
     2ac:	012e0a00 	teqeq	lr, r0, lsl #20
     2b0:	0e03193f 	mcreq	9, 0, r1, cr3, cr15, {1}
     2b4:	0b3b0b3a 	bleq	ec2fa4 <__bss_end__+0xeb8f9c>
     2b8:	13491927 	movtne	r1, #39207	; 0x9927
     2bc:	06120111 			; <UNDEFINED> instruction: 0x06120111
     2c0:	42971840 	addsmi	r1, r7, #64, 16	; 0x400000
     2c4:	00130119 	andseq	r0, r3, r9, lsl r1
     2c8:	00050b00 	andeq	r0, r5, r0, lsl #22
     2cc:	0b3a0803 	bleq	e822e0 <__bss_end__+0xe782d8>
     2d0:	13490b3b 	movtne	r0, #39739	; 0x9b3b
     2d4:	00001802 	andeq	r1, r0, r2, lsl #16
     2d8:	0000180c 	andeq	r1, r0, ip, lsl #16
     2dc:	00340d00 	eorseq	r0, r4, r0, lsl #26
     2e0:	0b3a0803 	bleq	e822f4 <__bss_end__+0xe782ec>
     2e4:	13490b3b 	movtne	r0, #39739	; 0x9b3b
     2e8:	00001802 	andeq	r1, r0, r2, lsl #16
     2ec:	0300340e 	movweq	r3, #1038	; 0x40e
     2f0:	3b0b3a0e 	blcc	2ceb30 <__bss_end__+0x2c4b28>
     2f4:	0213490b 	andseq	r4, r3, #180224	; 0x2c000
     2f8:	0f000018 	svceq	0x00000018
     2fc:	08030034 	stmdaeq	r3, {r2, r4, r5}
     300:	0b3b0b3a 	bleq	ec2ff0 <__bss_end__+0xeb8fe8>
     304:	17021349 	strne	r1, [r2, -r9, asr #6]
     308:	89100000 	ldmdbhi	r0, {}	; <UNPREDICTABLE>
     30c:	11010182 	smlabbne	r1, r2, r1, r0
     310:	01133101 	tsteq	r3, r1, lsl #2
     314:	11000013 	tstne	r0, r3, lsl r0
     318:	0001828a 	andeq	r8, r1, sl, lsl #5
     31c:	42911802 	addsmi	r1, r1, #131072	; 0x20000
     320:	12000018 	andne	r0, r0, #24
     324:	01018289 	smlabbeq	r1, r9, r2, r8
     328:	00000111 	andeq	r0, r0, r1, lsl r1
     32c:	49010113 	stmdbmi	r1, {r0, r1, r4, r8}
     330:	00130113 	andseq	r0, r3, r3, lsl r1
     334:	00211400 	eoreq	r1, r1, r0, lsl #8
     338:	052f1349 	streq	r1, [pc, #-841]!	; fffffff7 <__bss_end__+0xffff5fef>
     33c:	15150000 	ldrne	r0, [r5, #-0]
     340:	49192701 	ldmdbmi	r9, {r0, r8, r9, sl, sp}
     344:	00130113 	andseq	r0, r3, r3, lsl r1
     348:	00051600 	andeq	r1, r5, r0, lsl #12
     34c:	00001349 	andeq	r1, r0, r9, asr #6
     350:	03003417 	movweq	r3, #1047	; 0x417
     354:	3b0b3a0e 	blcc	2ceb94 <__bss_end__+0x2c4b8c>
     358:	3f13490b 	svccc	0x0013490b
     35c:	00193c19 	andseq	r3, r9, r9, lsl ip
     360:	012e1800 	teqeq	lr, r0, lsl #16
     364:	0e03193f 	mcreq	9, 0, r1, cr3, cr15, {1}
     368:	0b3b0b3a 	bleq	ec3058 <__bss_end__+0xeb9050>
     36c:	13491927 	movtne	r1, #39207	; 0x9927
     370:	0000193c 	andeq	r1, r0, ip, lsr r9
     374:	01110100 	tsteq	r1, r0, lsl #2
     378:	0b130e25 	bleq	4c3c14 <__bss_end__+0x4b9c0c>
     37c:	0e1b0e03 	cdpeq	14, 1, cr0, cr11, cr3, {0}
     380:	06120111 			; <UNDEFINED> instruction: 0x06120111
     384:	00001710 	andeq	r1, r0, r0, lsl r7
     388:	0b002402 	bleq	9398 <sw_uart_gets_timeout+0x80>
     38c:	030b3e0b 	movweq	r3, #48651	; 0xbe0b
     390:	03000008 	movweq	r0, #8
     394:	0b0b0024 	bleq	2c042c <__bss_end__+0x2b6424>
     398:	0e030b3e 	vmoveq.16	d3[0], r0
     39c:	2e040000 	cdpcs	0, 0, cr0, cr4, cr0, {0}
     3a0:	3a0e0301 	bcc	380fac <__bss_end__+0x376fa4>
     3a4:	270b3b0b 	strcs	r3, [fp, -fp, lsl #22]
     3a8:	11134919 	tstne	r3, r9, lsl r9
     3ac:	40061201 	andmi	r1, r6, r1, lsl #4
     3b0:	19429718 	stmdbne	r2, {r3, r4, r8, r9, sl, ip, pc}^
     3b4:	00001301 	andeq	r1, r0, r1, lsl #6
     3b8:	03000505 	movweq	r0, #1285	; 0x505
     3bc:	3b0b3a08 	blcc	2cebe4 <__bss_end__+0x2c4bdc>
     3c0:	0213490b 	andseq	r4, r3, #180224	; 0x2c000
     3c4:	06000017 			; <UNDEFINED> instruction: 0x06000017
     3c8:	01018289 	smlabbeq	r1, r9, r2, r8
     3cc:	13310111 	teqne	r1, #1073741828	; 0x40000004
     3d0:	8a070000 	bhi	1c03d8 <__bss_end__+0x1b63d0>
     3d4:	02000182 	andeq	r0, r0, #-2147483616	; 0x80000020
     3d8:	18429118 	stmdane	r2, {r3, r4, r8, ip, pc}^
     3dc:	2e080000 	cdpcs	0, 0, cr0, cr8, cr0, {0}
     3e0:	03193f00 	tsteq	r9, #0, 30
     3e4:	3b0b3a0e 	blcc	2cec24 <__bss_end__+0x2c4c1c>
     3e8:	1119270b 	tstne	r9, fp, lsl #14
     3ec:	40061201 	andmi	r1, r6, r1, lsl #4
     3f0:	19429718 	stmdbne	r2, {r3, r4, r8, r9, sl, ip, pc}^
     3f4:	2e090000 	cdpcs	0, 0, cr0, cr9, cr0, {0}
     3f8:	03193f01 	tsteq	r9, #1, 30
     3fc:	3b0b3a0e 	blcc	2cec3c <__bss_end__+0x2c4c34>
     400:	1119270b 	tstne	r9, fp, lsl #14
     404:	40061201 	andmi	r1, r6, r1, lsl #4
     408:	19429718 	stmdbne	r2, {r3, r4, r8, r9, sl, ip, pc}^
     40c:	00001301 	andeq	r1, r0, r1, lsl #6
     410:	0300050a 	movweq	r0, #1290	; 0x50a
     414:	3b0b3a08 	blcc	2cec3c <__bss_end__+0x2c4c34>
     418:	0213490b 	andseq	r4, r3, #180224	; 0x2c000
     41c:	0b000018 	bleq	484 <_start-0x7b7c>
     420:	19270115 	stmdbne	r7!, {r0, r2, r4, r8}
     424:	13011349 	movwne	r1, #4937	; 0x1349
     428:	050c0000 	streq	r0, [ip, #-0]
     42c:	00134900 	andseq	r4, r3, r0, lsl #18
     430:	000f0d00 	andeq	r0, pc, r0, lsl #26
     434:	13490b0b 	movtne	r0, #39691	; 0x9b0b
     438:	340e0000 	strcc	r0, [lr], #-0
     43c:	3a0e0300 	bcc	381044 <__bss_end__+0x37703c>
     440:	490b3b0b 	stmdbmi	fp, {r0, r1, r3, r8, r9, fp, ip, sp}
     444:	02193f13 	andseq	r3, r9, #19, 30	; 0x4c
     448:	0f000018 	svceq	0x00000018
     44c:	193f012e 	ldmdbne	pc!, {r1, r2, r3, r5, r8}	; <UNPREDICTABLE>
     450:	0b3a0e03 	bleq	e83c64 <__bss_end__+0xe79c5c>
     454:	19270b3b 	stmdbne	r7!, {r0, r1, r3, r4, r5, r8, r9, fp}
     458:	0000193c 	andeq	r1, r0, ip, lsr r9
     45c:	01110100 	tsteq	r1, r0, lsl #2
     460:	0b130e25 	bleq	4c3cfc <__bss_end__+0x4b9cf4>
     464:	0e1b0e03 	cdpeq	14, 1, cr0, cr11, cr3, {0}
     468:	06120111 			; <UNDEFINED> instruction: 0x06120111
     46c:	00001710 	andeq	r1, r0, r0, lsl r7
     470:	0b002402 	bleq	9480 <sw_uart_getc+0x4>
     474:	030b3e0b 	movweq	r3, #48651	; 0xbe0b
     478:	03000008 	movweq	r0, #8
     47c:	0b0b0024 	bleq	2c0514 <__bss_end__+0x2b650c>
     480:	0e030b3e 	vmoveq.16	d3[0], r0
     484:	0f040000 	svceq	0x00040000
     488:	490b0b00 	stmdbmi	fp, {r8, r9, fp}
     48c:	05000013 	streq	r0, [r0, #-19]
     490:	13490026 	movtne	r0, #36902	; 0x9026
     494:	2e060000 	cdpcs	0, 0, cr0, cr6, cr0, {0}
     498:	03193f01 	tsteq	r9, #1, 30
     49c:	3b0b3a0e 	blcc	2cecdc <__bss_end__+0x2c4cd4>
     4a0:	4919270b 	ldmdbmi	r9, {r0, r1, r3, r8, r9, sl, sp}
     4a4:	12011113 	andne	r1, r1, #-1073741820	; 0xc0000004
     4a8:	96184006 	ldrls	r4, [r8], -r6
     4ac:	13011942 	movwne	r1, #6466	; 0x1942
     4b0:	05070000 	streq	r0, [r7, #-0]
     4b4:	3a080300 	bcc	2010bc <__bss_end__+0x1f70b4>
     4b8:	490b3b0b 	stmdbmi	fp, {r0, r1, r3, r8, r9, fp, ip, sp}
     4bc:	00170213 	andseq	r0, r7, r3, lsl r2
     4c0:	01150800 	tsteq	r5, r0, lsl #16
     4c4:	13491927 	movtne	r1, #39207	; 0x9927
     4c8:	00001301 	andeq	r1, r0, r1, lsl #6
     4cc:	49000509 	stmdbmi	r0, {r0, r3, r8, sl}
     4d0:	0a000013 	beq	524 <_start-0x7adc>
     4d4:	0e030034 	mcreq	0, 0, r0, cr3, cr4, {1}
     4d8:	0b3b0b3a 	bleq	ec31c8 <__bss_end__+0xeb91c0>
     4dc:	193f1349 	ldmdbne	pc!, {r0, r3, r6, r8, r9, ip}	; <UNPREDICTABLE>
     4e0:	0000193c 	andeq	r1, r0, ip, lsr r9
     4e4:	0300340b 	movweq	r3, #1035	; 0x40b
     4e8:	3b0b3a0e 	blcc	2ced28 <__bss_end__+0x2c4d20>
     4ec:	3f13490b 	svccc	0x0013490b
     4f0:	00180219 	andseq	r0, r8, r9, lsl r2
     4f4:	11010000 	mrsne	r0, (UNDEF: 1)
     4f8:	130e2501 	movwne	r2, #58625	; 0xe501
     4fc:	1b0e030b 	blne	381130 <__bss_end__+0x377128>
     500:	1201110e 	andne	r1, r1, #-2147483645	; 0x80000003
     504:	00171006 	andseq	r1, r7, r6
     508:	00240200 	eoreq	r0, r4, r0, lsl #4
     50c:	0b3e0b0b 	bleq	f83140 <__bss_end__+0xf79138>
     510:	00000803 	andeq	r0, r0, r3, lsl #16
     514:	0b002403 	bleq	9528 <sw_uart_printk+0x44>
     518:	030b3e0b 	movweq	r3, #48651	; 0xbe0b
     51c:	0400000e 	streq	r0, [r0], #-14
     520:	0b0b000f 	bleq	2c0564 <__bss_end__+0x2b655c>
     524:	0f050000 	svceq	0x00050000
     528:	490b0b00 	stmdbmi	fp, {r8, r9, fp}
     52c:	06000013 			; <UNDEFINED> instruction: 0x06000013
     530:	13490026 	movtne	r0, #36902	; 0x9026
     534:	16070000 	strne	r0, [r7], -r0
     538:	3a0e0300 	bcc	381140 <__bss_end__+0x377138>
     53c:	490b3b0b 	stmdbmi	fp, {r0, r1, r3, r8, r9, fp, ip, sp}
     540:	08000013 	stmdaeq	r0, {r0, r1, r4}
     544:	0e030113 	mcreq	1, 0, r0, cr3, cr3, {0}
     548:	0b3a0b0b 	bleq	e8317c <__bss_end__+0xe79174>
     54c:	13010b3b 	movwne	r0, #6971	; 0x1b3b
     550:	0d090000 	stceq	0, cr0, [r9, #-0]
     554:	490e0300 	stmdbmi	lr, {r8, r9}
     558:	340b3813 	strcc	r3, [fp], #-2067	; 0x813
     55c:	0a000019 	beq	5c8 <_start-0x7a38>
     560:	0e03012e 	adfeqsp	f0, f3, #0.5
     564:	0b3b0b3a 	bleq	ec3254 <__bss_end__+0xeb924c>
     568:	13491927 	movtne	r1, #39207	; 0x9927
     56c:	06120111 			; <UNDEFINED> instruction: 0x06120111
     570:	42971840 	addsmi	r1, r7, #64, 16	; 0x400000
     574:	00130119 	andseq	r0, r3, r9, lsl r1
     578:	00050b00 	andeq	r0, r5, r0, lsl #22
     57c:	0b3a0803 	bleq	e82590 <__bss_end__+0xe78588>
     580:	13490b3b 	movtne	r0, #39739	; 0x9b3b
     584:	00001702 	andeq	r1, r0, r2, lsl #14
     588:	03012e0c 	movweq	r2, #7692	; 0x1e0c
     58c:	3b0b3a08 	blcc	2cedb4 <__bss_end__+0x2c4dac>
     590:	4919270b 	ldmdbmi	r9, {r0, r1, r3, r8, r9, sl, sp}
     594:	12011113 	andne	r1, r1, #-1073741820	; 0xc0000004
     598:	97184006 	ldrls	r4, [r8, -r6]
     59c:	13011942 	movwne	r1, #6466	; 0x1942
     5a0:	050d0000 	streq	r0, [sp, #-0]
     5a4:	3a0e0300 	bcc	3811ac <__bss_end__+0x3771a4>
     5a8:	490b3b0b 	stmdbmi	fp, {r0, r1, r3, r8, r9, fp, ip, sp}
     5ac:	00170213 	andseq	r0, r7, r3, lsl r2
     5b0:	00050e00 	andeq	r0, r5, r0, lsl #28
     5b4:	0b3a0e03 	bleq	e83dc8 <__bss_end__+0xe79dc0>
     5b8:	13490b3b 	movtne	r0, #39739	; 0x9b3b
     5bc:	00001802 	andeq	r1, r0, r2, lsl #16
     5c0:	0300340f 	movweq	r3, #1039	; 0x40f
     5c4:	3b0b3a08 	blcc	2cedec <__bss_end__+0x2c4de4>
     5c8:	0213490b 	andseq	r4, r3, #180224	; 0x2c000
     5cc:	10000018 	andne	r0, r0, r8, lsl r0
     5d0:	08030034 	stmdaeq	r3, {r2, r4, r5}
     5d4:	0b3b0b3a 	bleq	ec32c4 <__bss_end__+0xeb92bc>
     5d8:	17021349 	strne	r1, [r2, -r9, asr #6]
     5dc:	34110000 	ldrcc	r0, [r1], #-0
     5e0:	490e0300 	stmdbmi	lr, {r8, r9}
     5e4:	02193413 	andseq	r3, r9, #318767104	; 0x13000000
     5e8:	12000018 	andne	r0, r0, #24
     5ec:	0111010b 	tsteq	r1, fp, lsl #2
     5f0:	13010612 	movwne	r0, #5650	; 0x1612
     5f4:	34130000 	ldrcc	r0, [r3], #-0
     5f8:	3a0e0300 	bcc	381200 <__bss_end__+0x3771f8>
     5fc:	490b3b0b 	stmdbmi	fp, {r0, r1, r3, r8, r9, fp, ip, sp}
     600:	00170213 	andseq	r0, r7, r3, lsl r2
     604:	82891400 	addhi	r1, r9, #0, 8
     608:	01110001 	tsteq	r1, r1
     60c:	00001331 	andeq	r1, r0, r1, lsr r3
     610:	01828915 	orreq	r8, r2, r5, lsl r9
     614:	31011101 	tstcc	r1, r1, lsl #2
     618:	00130113 	andseq	r0, r3, r3, lsl r1
     61c:	828a1600 	addhi	r1, sl, #0, 12
     620:	18020001 	stmdane	r2, {r0}
     624:	00184291 	mulseq	r8, r1, r2
     628:	82891700 	addhi	r1, r9, #0, 14
     62c:	01110101 	tsteq	r1, r1, lsl #2
     630:	00001331 	andeq	r1, r0, r1, lsr r3
     634:	49010118 	stmdbmi	r1, {r3, r4, r8}
     638:	00130113 	andseq	r0, r3, r3, lsl r1
     63c:	00211900 	eoreq	r1, r1, r0, lsl #18
     640:	0b2f1349 	bleq	bc536c <__bss_end__+0xbbb364>
     644:	2e1a0000 	cdpcs	0, 1, cr0, cr10, cr0, {0}
     648:	03193f01 	tsteq	r9, #1, 30
     64c:	3b0b3a0e 	blcc	2cee8c <__bss_end__+0x2c4e84>
     650:	1119270b 	tstne	r9, fp, lsl #14
     654:	40061201 	andmi	r1, r6, r1, lsl #4
     658:	19429718 	stmdbne	r2, {r3, r4, r8, r9, sl, ip, pc}^
     65c:	00001301 	andeq	r1, r0, r1, lsl #6
     660:	2701151b 	smladcs	r1, fp, r5, r1
     664:	01134919 	tsteq	r3, r9, lsl r9
     668:	1c000013 	stcne	0, cr0, [r0], {19}
     66c:	13490005 	movtne	r0, #36869	; 0x9005
     670:	2e1d0000 	cdpcs	0, 1, cr0, cr13, cr0, {0}
     674:	03193f01 	tsteq	r9, #1, 30
     678:	3b0b3a0e 	blcc	2ceeb8 <__bss_end__+0x2c4eb0>
     67c:	4919270b 	ldmdbmi	r9, {r0, r1, r3, r8, r9, sl, sp}
     680:	12011113 	andne	r1, r1, #-1073741820	; 0xc0000004
     684:	97184006 	ldrls	r4, [r8, -r6]
     688:	13011942 	movwne	r1, #6466	; 0x1942
     68c:	0b1e0000 	bleq	780694 <__bss_end__+0x77668c>
     690:	00175501 	andseq	r5, r7, r1, lsl #10
     694:	00341f00 	eorseq	r1, r4, r0, lsl #30
     698:	0b3a0e03 	bleq	e83eac <__bss_end__+0xe79ea4>
     69c:	13490b3b 	movtne	r0, #39739	; 0x9b3b
     6a0:	193c193f 	ldmdbne	ip!, {r0, r1, r2, r3, r4, r5, r8, fp, ip}
     6a4:	2e200000 	cdpcs	0, 2, cr0, cr0, cr0, {0}
     6a8:	03193f00 	tsteq	r9, #0, 30
     6ac:	3b0b3a0e 	blcc	2ceeec <__bss_end__+0x2c4ee4>
     6b0:	3c19270b 	ldccc	7, cr2, [r9], {11}
     6b4:	21000019 	tstcs	r0, r9, lsl r0
     6b8:	193f012e 	ldmdbne	pc!, {r1, r2, r3, r5, r8}	; <UNPREDICTABLE>
     6bc:	0b3a0e03 	bleq	e83ed0 <__bss_end__+0xe79ec8>
     6c0:	19270b3b 	stmdbne	r7!, {r0, r1, r3, r4, r5, r8, r9, fp}
     6c4:	193c1349 	ldmdbne	ip!, {r0, r3, r6, r8, r9, ip}
     6c8:	00001301 	andeq	r1, r0, r1, lsl #6
     6cc:	00001822 	andeq	r1, r0, r2, lsr #16
     6d0:	11010000 	mrsne	r0, (UNDEF: 1)
     6d4:	130e2501 	movwne	r2, #58625	; 0xe501
     6d8:	1b0e030b 	blne	38130c <__bss_end__+0x377304>
     6dc:	1201110e 	andne	r1, r1, #-2147483645	; 0x80000003
     6e0:	00171006 	andseq	r1, r7, r6
     6e4:	00240200 	eoreq	r0, r4, r0, lsl #4
     6e8:	0b3e0b0b 	bleq	f8331c <__bss_end__+0xf79314>
     6ec:	00000803 	andeq	r0, r0, r3, lsl #16
     6f0:	0b002403 	bleq	9704 <uart_getc_async+0x10>
     6f4:	030b3e0b 	movweq	r3, #48651	; 0xbe0b
     6f8:	0400000e 	streq	r0, [r0], #-14
     6fc:	0b0b000f 	bleq	2c0740 <__bss_end__+0x2b6738>
     700:	00001349 	andeq	r1, r0, r9, asr #6
     704:	49002605 	stmdbmi	r0, {r0, r2, r9, sl, sp}
     708:	06000013 			; <UNDEFINED> instruction: 0x06000013
     70c:	193f012e 	ldmdbne	pc!, {r1, r2, r3, r5, r8}	; <UNPREDICTABLE>
     710:	0b3a0e03 	bleq	e83f24 <__bss_end__+0xe79f1c>
     714:	19270b3b 	stmdbne	r7!, {r0, r1, r3, r4, r5, r8, r9, fp}
     718:	06120111 			; <UNDEFINED> instruction: 0x06120111
     71c:	42971840 	addsmi	r1, r7, #64, 16	; 0x400000
     720:	00130119 	andseq	r0, r3, r9, lsl r1
     724:	82890700 	addhi	r0, r9, #0, 14
     728:	01110101 	tsteq	r1, r1, lsl #2
     72c:	00001301 	andeq	r1, r0, r1, lsl #6
     730:	01828a08 	orreq	r8, r2, r8, lsl #20
     734:	91180200 	tstls	r8, r0, lsl #4
     738:	00001842 	andeq	r1, r0, r2, asr #16
     73c:	01828909 	orreq	r8, r2, r9, lsl #18
     740:	31011101 	tstcc	r1, r1, lsl #2
     744:	00130113 	andseq	r0, r3, r3, lsl r1
     748:	82890a00 	addhi	r0, r9, #0, 20
     74c:	01110001 	tsteq	r1, r1
     750:	00001331 	andeq	r1, r0, r1, lsr r3
     754:	2701150b 	strcs	r1, [r1, -fp, lsl #10]
     758:	01134919 	tsteq	r3, r9, lsl r9
     75c:	0c000013 	stceq	0, cr0, [r0], {19}
     760:	13490005 	movtne	r0, #36869	; 0x9005
     764:	340d0000 	strcc	r0, [sp], #-0
     768:	3a0e0300 	bcc	381370 <__bss_end__+0x377368>
     76c:	490b3b0b 	stmdbmi	fp, {r0, r1, r3, r8, r9, fp, ip, sp}
     770:	3c193f13 	ldccc	15, cr3, [r9], {19}
     774:	0e000019 	mcreq	0, 0, r0, cr0, cr9, {0}
     778:	193f012e 	ldmdbne	pc!, {r1, r2, r3, r5, r8}	; <UNPREDICTABLE>
     77c:	0b3a0e03 	bleq	e83f90 <__bss_end__+0xe79f88>
     780:	19270b3b 	stmdbne	r7!, {r0, r1, r3, r4, r5, r8, r9, fp}
     784:	1301193c 	movwne	r1, #6460	; 0x193c
     788:	2e0f0000 	cdpcs	0, 0, cr0, cr15, cr0, {0}
     78c:	03193f00 	tsteq	r9, #0, 30
     790:	3b0b3a0e 	blcc	2cefd0 <__bss_end__+0x2c4fc8>
     794:	3c19270b 	ldccc	7, cr2, [r9], {11}
     798:	00000019 	andeq	r0, r0, r9, lsl r0
     79c:	25011101 	strcs	r1, [r1, #-257]	; 0x101
     7a0:	030b130e 	movweq	r1, #45838	; 0xb30e
     7a4:	110e1b0e 	tstne	lr, lr, lsl #22
     7a8:	10061201 	andne	r1, r6, r1, lsl #4
     7ac:	02000017 	andeq	r0, r0, #23
     7b0:	0b0b0024 	bleq	2c0848 <__bss_end__+0x2b6840>
     7b4:	08030b3e 	stmdaeq	r3, {r1, r2, r3, r4, r5, r8, r9, fp}
     7b8:	24030000 	strcs	r0, [r3], #-0
     7bc:	3e0b0b00 	vmlacc.f64	d0, d11, d0
     7c0:	000e030b 	andeq	r0, lr, fp, lsl #6
     7c4:	00160400 	andseq	r0, r6, r0, lsl #8
     7c8:	0b3a0e03 	bleq	e83fdc <__bss_end__+0xe79fd4>
     7cc:	13490b3b 	movtne	r0, #39739	; 0x9b3b
     7d0:	0f050000 	svceq	0x00050000
     7d4:	490b0b00 	stmdbmi	fp, {r8, r9, fp}
     7d8:	06000013 			; <UNDEFINED> instruction: 0x06000013
     7dc:	13490026 	movtne	r0, #36902	; 0x9026
     7e0:	13070000 	movwne	r0, #28672	; 0x7000
     7e4:	3a0b0b01 	bcc	2c33f0 <__bss_end__+0x2b93e8>
     7e8:	010b3b0b 	tsteq	fp, fp, lsl #22
     7ec:	08000013 	stmdaeq	r0, {r0, r1, r4}
     7f0:	0803000d 	stmdaeq	r3, {r0, r2, r3}
     7f4:	0b3b0b3a 	bleq	ec34e4 <__bss_end__+0xeb94dc>
     7f8:	0b381349 	bleq	e05524 <__bss_end__+0xdfb51c>
     7fc:	0d090000 	stceq	0, cr0, [r9, #-0]
     800:	3a0e0300 	bcc	381408 <__bss_end__+0x377400>
     804:	490b3b0b 	stmdbmi	fp, {r0, r1, r3, r8, r9, fp, ip, sp}
     808:	000b3813 	andeq	r3, fp, r3, lsl r8
     80c:	01040a00 	tsteq	r4, r0, lsl #20
     810:	0b3a0b0b 	bleq	e83444 <__bss_end__+0xe7943c>
     814:	13010b3b 	movwne	r0, #6971	; 0x1b3b
     818:	280b0000 	stmdacs	fp, {}	; <UNPREDICTABLE>
     81c:	1c0e0300 	stcne	3, cr0, [lr], {-0}
     820:	0c00000d 	stceq	0, cr0, [r0], {13}
     824:	0e03012e 	adfeqsp	f0, f3, #0.5
     828:	0b3b0b3a 	bleq	ec3518 <__bss_end__+0xeb9510>
     82c:	13491927 	movtne	r1, #39207	; 0x9927
     830:	06120111 			; <UNDEFINED> instruction: 0x06120111
     834:	42971840 	addsmi	r1, r7, #64, 16	; 0x400000
     838:	00130119 	andseq	r0, r3, r9, lsl r1
     83c:	00050d00 	andeq	r0, r5, r0, lsl #26
     840:	0b3a0803 	bleq	e82854 <__bss_end__+0xe7884c>
     844:	13490b3b 	movtne	r0, #39739	; 0x9b3b
     848:	00001702 	andeq	r1, r0, r2, lsl #14
     84c:	0182890e 	orreq	r8, r2, lr, lsl #18
     850:	31011101 	tstcc	r1, r1, lsl #2
     854:	0f000013 	svceq	0x00000013
     858:	0001828a 	andeq	r8, r1, sl, lsl #5
     85c:	42911802 	addsmi	r1, r1, #131072	; 0x20000
     860:	10000018 	andne	r0, r0, r8, lsl r0
     864:	193f012e 	ldmdbne	pc!, {r1, r2, r3, r5, r8}	; <UNPREDICTABLE>
     868:	0b3a0e03 	bleq	e8407c <__bss_end__+0xe7a074>
     86c:	01110b3b 	tsteq	r1, fp, lsr fp
     870:	18400612 	stmdane	r0, {r1, r4, r9, sl}^
     874:	01194297 			; <UNDEFINED> instruction: 0x01194297
     878:	11000013 	tstne	r0, r3, lsl r0
     87c:	0e030034 	mcreq	0, 0, r0, cr3, cr4, {1}
     880:	0b3b0b3a 	bleq	ec3570 <__bss_end__+0xeb9568>
     884:	193f1349 	ldmdbne	pc!, {r0, r3, r6, r8, r9, ip}	; <UNPREDICTABLE>
     888:	0000193c 	andeq	r1, r0, ip, lsr r9
     88c:	3f002e12 	svccc	0x00002e12
     890:	3a0e0319 	bcc	3814fc <__bss_end__+0x3774f4>
     894:	270b3b0b 	strcs	r3, [fp, -fp, lsl #22]
     898:	00193c19 	andseq	r3, r9, r9, lsl ip
     89c:	00341300 	eorseq	r1, r4, r0, lsl #6
     8a0:	0b3a0803 	bleq	e828b4 <__bss_end__+0xe788ac>
     8a4:	13490b3b 	movtne	r0, #39739	; 0x9b3b
     8a8:	00001702 	andeq	r1, r0, r2, lsl #14
     8ac:	03003414 	movweq	r3, #1044	; 0x414
     8b0:	3b0b3a0e 	blcc	2cf0f0 <__bss_end__+0x2c50e8>
     8b4:	0013490b 	andseq	r4, r3, fp, lsl #18
     8b8:	82891500 	addhi	r1, r9, #0, 10
     8bc:	01110001 	tsteq	r1, r1
     8c0:	00001331 	andeq	r1, r0, r1, lsr r3
     8c4:	01828916 	orreq	r8, r2, r6, lsl r9
     8c8:	31011101 	tstcc	r1, r1, lsl #2
     8cc:	00130113 	andseq	r0, r3, r3, lsl r1
     8d0:	00341700 	eorseq	r1, r4, r0, lsl #14
     8d4:	0b3a0e03 	bleq	e840e8 <__bss_end__+0xe7a0e0>
     8d8:	13490b3b 	movtne	r0, #39739	; 0x9b3b
     8dc:	00001802 	andeq	r1, r0, r2, lsl #16
     8e0:	27011518 	smladcs	r1, r8, r5, r1
     8e4:	01134919 	tsteq	r3, r9, lsl r9
     8e8:	19000013 	stmdbne	r0, {r0, r1, r4}
     8ec:	13490005 	movtne	r0, #36869	; 0x9005
     8f0:	2e1a0000 	cdpcs	0, 1, cr0, cr10, cr0, {0}
     8f4:	03193f01 	tsteq	r9, #1, 30
     8f8:	3b0b3a0e 	blcc	2cf138 <__bss_end__+0x2c5130>
     8fc:	3c19270b 	ldccc	7, cr2, [r9], {11}
     900:	00130119 	andseq	r0, r3, r9, lsl r1
     904:	002e1b00 	eoreq	r1, lr, r0, lsl #22
     908:	0e03193f 	mcreq	9, 0, r1, cr3, cr15, {1}
     90c:	0b3b0b3a 	bleq	ec35fc <__bss_end__+0xeb95f4>
     910:	13491927 	movtne	r1, #39207	; 0x9927
     914:	0000193c 	andeq	r1, r0, ip, lsr r9
     918:	3f012e1c 	svccc	0x00012e1c
     91c:	3a0e0319 	bcc	381588 <__bss_end__+0x377580>
     920:	270b3b0b 	strcs	r3, [fp, -fp, lsl #22]
     924:	3c134919 	ldccc	9, cr4, [r3], {25}
     928:	00130119 	andseq	r0, r3, r9, lsl r1
     92c:	00181d00 	andseq	r1, r8, r0, lsl #26
     930:	01000000 	mrseq	r0, (UNDEF: 0)
     934:	0e250111 	mcreq	1, 1, r0, cr5, cr1, {0}
     938:	0e030b13 	vmoveq.32	d3[0], r0
     93c:	17550e1b 	smmlane	r5, fp, lr, r0
     940:	17100111 			; <UNDEFINED> instruction: 0x17100111
     944:	24020000 	strcs	r0, [r2], #-0
     948:	3e0b0b00 	vmlacc.f64	d0, d11, d0
     94c:	0008030b 	andeq	r0, r8, fp, lsl #6
     950:	00240300 	eoreq	r0, r4, r0, lsl #6
     954:	0b3e0b0b 	bleq	f83588 <__bss_end__+0xf79580>
     958:	00000e03 	andeq	r0, r0, r3, lsl #28
     95c:	3f012e04 	svccc	0x00012e04
     960:	3a0e0319 	bcc	3815cc <__bss_end__+0x3775c4>
     964:	270b3b0b 	strcs	r3, [fp, -fp, lsl #22]
     968:	11134919 	tstne	r3, r9, lsl r9
     96c:	40061201 	andmi	r1, r6, r1, lsl #4
     970:	19429718 	stmdbne	r2, {r3, r4, r8, r9, sl, ip, pc}^
     974:	00001301 	andeq	r1, r0, r1, lsl #6
     978:	03003405 	movweq	r3, #1029	; 0x405
     97c:	3b0b3a0e 	blcc	2cf1bc <__bss_end__+0x2c51b4>
     980:	0213490b 	andseq	r4, r3, #180224	; 0x2c000
     984:	06000017 			; <UNDEFINED> instruction: 0x06000017
     988:	193f012e 	ldmdbne	pc!, {r1, r2, r3, r5, r8}	; <UNPREDICTABLE>
     98c:	0b3a0e03 	bleq	e841a0 <__bss_end__+0xe7a198>
     990:	19270b3b 	stmdbne	r7!, {r0, r1, r3, r4, r5, r8, r9, fp}
     994:	06120111 			; <UNDEFINED> instruction: 0x06120111
     998:	42971840 	addsmi	r1, r7, #64, 16	; 0x400000
     99c:	00130119 	andseq	r0, r3, r9, lsl r1
     9a0:	00340700 	eorseq	r0, r4, r0, lsl #14
     9a4:	0b3a0e03 	bleq	e841b8 <__bss_end__+0xe7a1b0>
     9a8:	13490b3b 	movtne	r0, #39739	; 0x9b3b
     9ac:	0000061c 	andeq	r0, r0, ip, lsl r6
     9b0:	03003408 	movweq	r3, #1032	; 0x408
     9b4:	3b0b3a0e 	blcc	2cf1f4 <__bss_end__+0x2c51ec>
     9b8:	1c13490b 	ldcne	9, cr4, [r3], {11}
     9bc:	0900000b 	stmdbeq	r0, {r0, r1, r3}
     9c0:	00018289 	andeq	r8, r1, r9, lsl #5
     9c4:	13310111 	teqne	r1, #1073741828	; 0x40000004
     9c8:	890a0000 	stmdbhi	sl, {}	; <UNPREDICTABLE>
     9cc:	11010182 	smlabbne	r1, r2, r1, r0
     9d0:	01133101 	tsteq	r3, r1, lsl #2
     9d4:	0b000013 	bleq	a28 <_start-0x75d8>
     9d8:	0001828a 	andeq	r8, r1, sl, lsl #5
     9dc:	42911802 	addsmi	r1, r1, #131072	; 0x20000
     9e0:	0c000018 	stceq	0, cr0, [r0], {24}
     9e4:	01018289 	smlabbeq	r1, r9, r2, r8
     9e8:	13310111 	teqne	r1, #1073741828	; 0x40000004
     9ec:	260d0000 	strcs	r0, [sp], -r0
     9f0:	00134900 	andseq	r4, r3, r0, lsl #18
     9f4:	012e0e00 	teqeq	lr, r0, lsl #28
     9f8:	0e03193f 	mcreq	9, 0, r1, cr3, cr15, {1}
     9fc:	0b3b0b3a 	bleq	ec36ec <__bss_end__+0xeb96e4>
     a00:	193c1927 	ldmdbne	ip!, {r0, r1, r2, r5, r8, fp, ip}
     a04:	00001301 	andeq	r1, r0, r1, lsl #6
     a08:	4900050f 	stmdbmi	r0, {r0, r1, r2, r3, r8, sl}
     a0c:	10000013 	andne	r0, r0, r3, lsl r0
     a10:	193f012e 	ldmdbne	pc!, {r1, r2, r3, r5, r8}	; <UNPREDICTABLE>
     a14:	0b3a0e03 	bleq	e84228 <__bss_end__+0xe7a220>
     a18:	19270b3b 	stmdbne	r7!, {r0, r1, r3, r4, r5, r8, r9, fp}
     a1c:	0000193c 	andeq	r1, r0, ip, lsr r9
     a20:	01110100 	tsteq	r1, r0, lsl #2
     a24:	0b130e25 	bleq	4c42c0 <__bss_end__+0x4ba2b8>
     a28:	0e1b0e03 	cdpeq	14, 1, cr0, cr11, cr3, {0}
     a2c:	06120111 			; <UNDEFINED> instruction: 0x06120111
     a30:	00001710 	andeq	r1, r0, r0, lsl r7
     a34:	0b002402 	bleq	9a44 <__FUNCTION__.4287+0x6c>
     a38:	030b3e0b 	movweq	r3, #48651	; 0xbe0b
     a3c:	03000008 	movweq	r0, #8
     a40:	0b0b0024 	bleq	2c0ad8 <__bss_end__+0x2b6ad0>
     a44:	0e030b3e 	vmoveq.16	d3[0], r0
     a48:	2e040000 	cdpcs	0, 0, cr0, cr4, cr0, {0}
     a4c:	03193f01 	tsteq	r9, #1, 30
     a50:	3b0b3a0e 	blcc	2cf290 <__bss_end__+0x2c5288>
     a54:	1119270b 	tstne	r9, fp, lsl #14
     a58:	40061201 	andmi	r1, r6, r1, lsl #4
     a5c:	19429718 	stmdbne	r2, {r3, r4, r8, r9, sl, ip, pc}^
     a60:	00001301 	andeq	r1, r0, r1, lsl #6
     a64:	03000505 	movweq	r0, #1285	; 0x505
     a68:	3b0b3a0e 	blcc	2cf2a8 <__bss_end__+0x2c52a0>
     a6c:	0213490b 	andseq	r4, r3, #180224	; 0x2c000
     a70:	06000017 			; <UNDEFINED> instruction: 0x06000017
     a74:	193f012e 	ldmdbne	pc!, {r1, r2, r3, r5, r8}	; <UNPREDICTABLE>
     a78:	0b3a0e03 	bleq	e8428c <__bss_end__+0xe7a284>
     a7c:	19270b3b 	stmdbne	r7!, {r0, r1, r3, r4, r5, r8, r9, fp}
     a80:	01111349 	tsteq	r1, r9, asr #6
     a84:	18400612 	stmdane	r0, {r1, r4, r9, sl}^
     a88:	01194297 			; <UNDEFINED> instruction: 0x01194297
     a8c:	07000013 	smladeq	r0, r3, r0, r0
     a90:	01018289 	smlabbeq	r1, r9, r2, r8
     a94:	13310111 	teqne	r1, #1073741828	; 0x40000004
     a98:	8a080000 	bhi	200aa0 <__bss_end__+0x1f6a98>
     a9c:	02000182 	andeq	r0, r0, #-2147483616	; 0x80000020
     aa0:	18429118 	stmdane	r2, {r3, r4, r8, ip, pc}^
     aa4:	34090000 	strcc	r0, [r9], #-0
     aa8:	3a080300 	bcc	2016b0 <__bss_end__+0x1f76a8>
     aac:	490b3b0b 	stmdbmi	fp, {r0, r1, r3, r8, r9, fp, ip, sp}
     ab0:	00180213 	andseq	r0, r8, r3, lsl r2
     ab4:	82890a00 	addhi	r0, r9, #0, 20
     ab8:	01110001 	tsteq	r1, r1
     abc:	00001331 	andeq	r1, r0, r1, lsr r3
     ac0:	0300050b 	movweq	r0, #1291	; 0x50b
     ac4:	3b0b3a08 	blcc	2cf2ec <__bss_end__+0x2c52e4>
     ac8:	0213490b 	andseq	r4, r3, #180224	; 0x2c000
     acc:	0c000017 	stceq	0, cr0, [r0], {23}
     ad0:	0111010b 	tsteq	r1, fp, lsl #2
     ad4:	13010612 	movwne	r0, #5650	; 0x1612
     ad8:	340d0000 	strcc	r0, [sp], #-0
     adc:	3a080300 	bcc	2016e4 <__bss_end__+0x1f76dc>
     ae0:	490b3b0b 	stmdbmi	fp, {r0, r1, r3, r8, r9, fp, ip, sp}
     ae4:	00170213 	andseq	r0, r7, r3, lsl r2
     ae8:	012e0e00 	teqeq	lr, r0, lsl #28
     aec:	0e03193f 	mcreq	9, 0, r1, cr3, cr15, {1}
     af0:	0b3b0b3a 	bleq	ec37e0 <__bss_end__+0xeb97d8>
     af4:	13491927 	movtne	r1, #39207	; 0x9927
     af8:	0000193c 	andeq	r1, r0, ip, lsr r9
     afc:	4900050f 	stmdbmi	r0, {r0, r1, r2, r3, r8, sl}
     b00:	00000013 	andeq	r0, r0, r3, lsl r0
     b04:	25011101 	strcs	r1, [r1, #-257]	; 0x101
     b08:	030b130e 	movweq	r1, #45838	; 0xb30e
     b0c:	110e1b0e 	tstne	lr, lr, lsl #22
     b10:	10061201 	andne	r1, r6, r1, lsl #4
     b14:	02000017 	andeq	r0, r0, #23
     b18:	0b0b0024 	bleq	2c0bb0 <__bss_end__+0x2b6ba8>
     b1c:	0e030b3e 	vmoveq.16	d3[0], r0
     b20:	24030000 	strcs	r0, [r3], #-0
     b24:	3e0b0b00 	vmlacc.f64	d0, d11, d0
     b28:	0008030b 	andeq	r0, r8, fp, lsl #6
     b2c:	01040400 	tsteq	r4, r0, lsl #8
     b30:	0b3a0b0b 	bleq	e83764 <__bss_end__+0xe7975c>
     b34:	13010b3b 	movwne	r0, #6971	; 0x1b3b
     b38:	28050000 	stmdacs	r5, {}	; <UNPREDICTABLE>
     b3c:	1c0e0300 	stcne	3, cr0, [lr], {-0}
     b40:	0600000d 	streq	r0, [r0], -sp
     b44:	0e030016 	mcreq	0, 0, r0, cr3, cr6, {0}
     b48:	0b3b0b3a 	bleq	ec3838 <__bss_end__+0xeb9830>
     b4c:	00001349 	andeq	r1, r0, r9, asr #6
     b50:	3f012e07 	svccc	0x00012e07
     b54:	3a0e0319 	bcc	3817c0 <__bss_end__+0x3777b8>
     b58:	270b3b0b 	strcs	r3, [fp, -fp, lsl #22]
     b5c:	12011119 	andne	r1, r1, #1073741830	; 0x40000006
     b60:	97184006 	ldrls	r4, [r8, -r6]
     b64:	13011942 	movwne	r1, #6466	; 0x1942
     b68:	05080000 	streq	r0, [r8, #-0]
     b6c:	3a080300 	bcc	201774 <__bss_end__+0x1f776c>
     b70:	490b3b0b 	stmdbmi	fp, {r0, r1, r3, r8, r9, fp, ip, sp}
     b74:	00170213 	andseq	r0, r7, r3, lsl r2
     b78:	00340900 	eorseq	r0, r4, r0, lsl #18
     b7c:	0b3a0e03 	bleq	e84390 <__bss_end__+0xe7a388>
     b80:	13490b3b 	movtne	r0, #39739	; 0x9b3b
     b84:	00001702 	andeq	r1, r0, r2, lsl #14
     b88:	0182890a 	orreq	r8, r2, sl, lsl #18
     b8c:	31011101 	tstcc	r1, r1, lsl #2
     b90:	00130113 	andseq	r0, r3, r3, lsl r1
     b94:	828a0b00 	addhi	r0, sl, #0, 22
     b98:	18020001 	stmdane	r2, {r0}
     b9c:	00184291 	mulseq	r8, r1, r2
     ba0:	82890c00 	addhi	r0, r9, #0, 24
     ba4:	01110101 	tsteq	r1, r1, lsl #2
     ba8:	00001331 	andeq	r1, r0, r1, lsr r3
     bac:	0b000f0d 	bleq	47e8 <_start-0x3818>
     bb0:	0013490b 	andseq	r4, r3, fp, lsl #18
     bb4:	00350e00 	eorseq	r0, r5, r0, lsl #28
     bb8:	00001349 	andeq	r1, r0, r9, asr #6
     bbc:	3f012e0f 	svccc	0x00012e0f
     bc0:	3a0e0319 	bcc	38182c <__bss_end__+0x377824>
     bc4:	270b3b0b 	strcs	r3, [fp, -fp, lsl #22]
     bc8:	11134919 	tstne	r3, r9, lsl r9
     bcc:	40061201 	andmi	r1, r6, r1, lsl #4
     bd0:	19429718 	stmdbne	r2, {r3, r4, r8, r9, sl, ip, pc}^
     bd4:	00001301 	andeq	r1, r0, r1, lsl #6
     bd8:	03003410 	movweq	r3, #1040	; 0x410
     bdc:	3b0b3a08 	blcc	2cf404 <__bss_end__+0x2c53fc>
     be0:	0213490b 	andseq	r4, r3, #180224	; 0x2c000
     be4:	11000017 	tstne	r0, r7, lsl r0
     be8:	00018289 	andeq	r8, r1, r9, lsl #5
     bec:	13310111 	teqne	r1, #1073741828	; 0x40000004
     bf0:	05120000 	ldreq	r0, [r2, #-0]
     bf4:	3a0e0300 	bcc	3817fc <__bss_end__+0x3777f4>
     bf8:	490b3b0b 	stmdbmi	fp, {r0, r1, r3, r8, r9, fp, ip, sp}
     bfc:	00170213 	andseq	r0, r7, r3, lsl r2
     c00:	012e1300 	teqeq	lr, r0, lsl #6
     c04:	0e03193f 	mcreq	9, 0, r1, cr3, cr15, {1}
     c08:	053b0b3a 	ldreq	r0, [fp, #-2874]!	; 0xb3a
     c0c:	13491927 	movtne	r1, #39207	; 0x9927
     c10:	06120111 			; <UNDEFINED> instruction: 0x06120111
     c14:	42971840 	addsmi	r1, r7, #64, 16	; 0x400000
     c18:	00130119 	andseq	r0, r3, r9, lsl r1
     c1c:	00051400 	andeq	r1, r5, r0, lsl #8
     c20:	0b3a0e03 	bleq	e84434 <__bss_end__+0xe7a42c>
     c24:	1349053b 	movtne	r0, #38203	; 0x953b
     c28:	00001702 	andeq	r1, r0, r2, lsl #14
     c2c:	3f012e15 	svccc	0x00012e15
     c30:	3a0e0319 	bcc	38189c <__bss_end__+0x377894>
     c34:	27053b0b 	strcs	r3, [r5, -fp, lsl #22]
     c38:	12011119 	andne	r1, r1, #1073741830	; 0x40000006
     c3c:	97184006 	ldrls	r4, [r8, -r6]
     c40:	13011942 	movwne	r1, #6466	; 0x1942
     c44:	05160000 	ldreq	r0, [r6, #-0]
     c48:	3a080300 	bcc	201850 <__bss_end__+0x1f7848>
     c4c:	49053b0b 	stmdbmi	r5, {r0, r1, r3, r8, r9, fp, ip, sp}
     c50:	00170213 	andseq	r0, r7, r3, lsl r2
     c54:	00341700 	eorseq	r1, r4, r0, lsl #14
     c58:	0b3a0e03 	bleq	e8446c <__bss_end__+0xe7a464>
     c5c:	1349053b 	movtne	r0, #38203	; 0x953b
     c60:	00001702 	andeq	r1, r0, r2, lsl #14
     c64:	11010b18 	tstne	r1, r8, lsl fp
     c68:	01061201 	tsteq	r6, r1, lsl #4
     c6c:	19000013 	stmdbne	r0, {r0, r1, r4}
     c70:	0e030034 	mcreq	0, 0, r0, cr3, cr4, {1}
     c74:	0b3b0b3a 	bleq	ec3964 <__bss_end__+0xeb995c>
     c78:	193f1349 	ldmdbne	pc!, {r0, r3, r6, r8, r9, ip}	; <UNPREDICTABLE>
     c7c:	00001802 	andeq	r1, r0, r2, lsl #16
     c80:	0300341a 	movweq	r3, #1050	; 0x41a
     c84:	3b0b3a0e 	blcc	2cf4c4 <__bss_end__+0x2c54bc>
     c88:	3f134905 	svccc	0x00134905
     c8c:	00180219 	andseq	r0, r8, r9, lsl r2
     c90:	012e1b00 	teqeq	lr, r0, lsl #22
     c94:	0e03193f 	mcreq	9, 0, r1, cr3, cr15, {1}
     c98:	0b3b0b3a 	bleq	ec3988 <__bss_end__+0xeb9980>
     c9c:	13491927 	movtne	r1, #39207	; 0x9927
     ca0:	1301193c 	movwne	r1, #6460	; 0x193c
     ca4:	051c0000 	ldreq	r0, [ip, #-0]
     ca8:	00134900 	andseq	r4, r3, r0, lsl #18
     cac:	00261d00 	eoreq	r1, r6, r0, lsl #26
     cb0:	00001349 	andeq	r1, r0, r9, asr #6
     cb4:	0000351e 	andeq	r3, r0, lr, lsl r5
     cb8:	012e1f00 	teqeq	lr, r0, lsl #30
     cbc:	0e03193f 	mcreq	9, 0, r1, cr3, cr15, {1}
     cc0:	0b3b0b3a 	bleq	ec39b0 <__bss_end__+0xeb99a8>
     cc4:	193c1927 	ldmdbne	ip!, {r0, r1, r2, r5, r8, fp, ip}
     cc8:	00001301 	andeq	r1, r0, r1, lsl #6
     ccc:	3f002e20 	svccc	0x00002e20
     cd0:	3a0e0319 	bcc	38193c <__bss_end__+0x377934>
     cd4:	270b3b0b 	strcs	r3, [fp, -fp, lsl #22]
     cd8:	00193c19 	andseq	r3, r9, r9, lsl ip
     cdc:	11010000 	mrsne	r0, (UNDEF: 1)
     ce0:	130e2501 	movwne	r2, #58625	; 0xe501
     ce4:	1b0e030b 	blne	381918 <__bss_end__+0x377910>
     ce8:	1201110e 	andne	r1, r1, #-2147483645	; 0x80000003
     cec:	00171006 	andseq	r1, r7, r6
     cf0:	00240200 	eoreq	r0, r4, r0, lsl #4
     cf4:	0b3e0b0b 	bleq	f83928 <__bss_end__+0xf79920>
     cf8:	00000803 	andeq	r0, r0, r3, lsl #16
     cfc:	0b002403 	bleq	9d10 <__bss_start__+0x114>
     d00:	030b3e0b 	movweq	r3, #48651	; 0xbe0b
     d04:	0400000e 	streq	r0, [r0], #-14
     d08:	0e030016 	mcreq	0, 0, r0, cr3, cr6, {0}
     d0c:	0b3b0b3a 	bleq	ec39fc <__bss_end__+0xeb99f4>
     d10:	00001349 	andeq	r1, r0, r9, asr #6
     d14:	0b000f05 	bleq	4930 <_start-0x36d0>
     d18:	0600000b 	streq	r0, [r0], -fp
     d1c:	0b0b000f 	bleq	2c0d60 <__bss_end__+0x2b6d58>
     d20:	00001349 	andeq	r1, r0, r9, asr #6
     d24:	49002607 	stmdbmi	r0, {r0, r1, r2, r9, sl, sp}
     d28:	08000013 	stmdaeq	r0, {r0, r1, r4}
     d2c:	0b0b0113 	bleq	2c1180 <__bss_end__+0x2b7178>
     d30:	0b3b0b3a 	bleq	ec3a20 <__bss_end__+0xeb9a18>
     d34:	00001301 	andeq	r1, r0, r1, lsl #6
     d38:	03000d09 	movweq	r0, #3337	; 0xd09
     d3c:	3b0b3a08 	blcc	2cf564 <__bss_end__+0x2c555c>
     d40:	3813490b 	ldmdacc	r3, {r0, r1, r3, r8, fp, lr}
     d44:	0a00000b 	beq	d78 <_start-0x7288>
     d48:	0e03000d 	cdpeq	0, 0, cr0, cr3, cr13, {0}
     d4c:	0b3b0b3a 	bleq	ec3a3c <__bss_end__+0xeb9a34>
     d50:	0b381349 	bleq	e05a7c <__bss_end__+0xdfba74>
     d54:	130b0000 	movwne	r0, #45056	; 0xb000
     d58:	0b0e0301 	bleq	381964 <__bss_end__+0x37795c>
     d5c:	3b0b3a0b 	blcc	2cf590 <__bss_end__+0x2c5588>
     d60:	0013010b 	andseq	r0, r3, fp, lsl #2
     d64:	000d0c00 	andeq	r0, sp, r0, lsl #24
     d68:	13490e03 	movtne	r0, #40451	; 0x9e03
     d6c:	19340b38 	ldmdbne	r4!, {r3, r4, r5, r8, r9, fp}
     d70:	2e0d0000 	cdpcs	0, 0, cr0, cr13, cr0, {0}
     d74:	3a0e0301 	bcc	381980 <__bss_end__+0x377978>
     d78:	270b3b0b 	strcs	r3, [fp, -fp, lsl #22]
     d7c:	010b2019 	tsteq	fp, r9, lsl r0
     d80:	0e000013 	mcreq	0, 0, r0, cr0, cr3, {0}
     d84:	0e030005 	cdpeq	0, 0, cr0, cr3, cr5, {0}
     d88:	0b3b0b3a 	bleq	ec3a78 <__bss_end__+0xeb9a70>
     d8c:	00001349 	andeq	r1, r0, r9, asr #6
     d90:	0300050f 	movweq	r0, #1295	; 0x50f
     d94:	3b0b3a08 	blcc	2cf5bc <__bss_end__+0x2c55b4>
     d98:	0013490b 	andseq	r4, r3, fp, lsl #18
     d9c:	010b1000 	mrseq	r1, (UNDEF: 11)
     da0:	34110000 	ldrcc	r0, [r1], #-0
     da4:	3a0e0300 	bcc	3819ac <__bss_end__+0x3779a4>
     da8:	490b3b0b 	stmdbmi	fp, {r0, r1, r3, r8, r9, fp, ip, sp}
     dac:	12000013 	andne	r0, r0, #19
     db0:	193f012e 	ldmdbne	pc!, {r1, r2, r3, r5, r8}	; <UNPREDICTABLE>
     db4:	0b3a0e03 	bleq	e845c8 <__bss_end__+0xe7a5c0>
     db8:	19270b3b 	stmdbne	r7!, {r0, r1, r3, r4, r5, r8, r9, fp}
     dbc:	06120111 			; <UNDEFINED> instruction: 0x06120111
     dc0:	42971840 	addsmi	r1, r7, #64, 16	; 0x400000
     dc4:	00130119 	andseq	r0, r3, r9, lsl r1
     dc8:	00051300 	andeq	r1, r5, r0, lsl #6
     dcc:	0b3a0e03 	bleq	e845e0 <__bss_end__+0xe7a5d8>
     dd0:	13490b3b 	movtne	r0, #39739	; 0x9b3b
     dd4:	00001702 	andeq	r1, r0, r2, lsl #14
     dd8:	03000514 	movweq	r0, #1300	; 0x514
     ddc:	3b0b3a08 	blcc	2cf604 <__bss_end__+0x2c55fc>
     de0:	0213490b 	andseq	r4, r3, #180224	; 0x2c000
     de4:	15000017 	strne	r0, [r0, #-23]
     de8:	08030034 	stmdaeq	r3, {r2, r4, r5}
     dec:	0b3b0b3a 	bleq	ec3adc <__bss_end__+0xeb9ad4>
     df0:	18021349 	stmdane	r2, {r0, r3, r6, r8, r9, ip}
     df4:	34160000 	ldrcc	r0, [r6], #-0
     df8:	3a080300 	bcc	201a00 <__bss_end__+0x1f79f8>
     dfc:	490b3b0b 	stmdbmi	fp, {r0, r1, r3, r8, r9, fp, ip, sp}
     e00:	00170213 	andseq	r0, r7, r3, lsl r2
     e04:	010b1700 	tsteq	fp, r0, lsl #14
     e08:	06120111 			; <UNDEFINED> instruction: 0x06120111
     e0c:	00001301 	andeq	r1, r0, r1, lsl #6
     e10:	03003418 	movweq	r3, #1048	; 0x418
     e14:	3b0b3a0e 	blcc	2cf654 <__bss_end__+0x2c564c>
     e18:	0213490b 	andseq	r4, r3, #180224	; 0x2c000
     e1c:	19000018 	stmdbne	r0, {r3, r4}
     e20:	1331011d 	teqne	r1, #1073741831	; 0x40000007
     e24:	06120111 			; <UNDEFINED> instruction: 0x06120111
     e28:	0b590b58 	bleq	1643b90 <__bss_end__+0x1639b88>
     e2c:	00001301 	andeq	r1, r0, r1, lsl #6
     e30:	3100051a 	tstcc	r0, sl, lsl r5
     e34:	00170213 	andseq	r0, r7, r3, lsl r2
     e38:	00051b00 	andeq	r1, r5, r0, lsl #22
     e3c:	18021331 	stmdane	r2, {r0, r4, r5, r8, r9, ip}
     e40:	051c0000 	ldreq	r0, [ip, #-0]
     e44:	1c133100 	ldfnes	f3, [r3], {-0}
     e48:	1d00000b 	stcne	0, cr0, [r0, #-44]	; 0xffffffd4
     e4c:	0111010b 	tsteq	r1, fp, lsl #2
     e50:	00000612 	andeq	r0, r0, r2, lsl r6
     e54:	3100341e 	tstcc	r0, lr, lsl r4
     e58:	00170213 	andseq	r0, r7, r3, lsl r2
     e5c:	82891f00 	addhi	r1, r9, #0, 30
     e60:	01110101 	tsteq	r1, r1, lsl #2
     e64:	00001331 	andeq	r1, r0, r1, lsr r3
     e68:	01828a20 	orreq	r8, r2, r0, lsr #20
     e6c:	91180200 	tstls	r8, r0, lsl #4
     e70:	00001842 	andeq	r1, r0, r2, asr #16
     e74:	31011d21 	tstcc	r1, r1, lsr #26
     e78:	12011113 	andne	r1, r1, #-1073741820	; 0xc0000004
     e7c:	590b5806 	stmdbpl	fp, {r1, r2, fp, ip, lr}
     e80:	2200000b 	andcs	r0, r0, #11
     e84:	0e03012e 	adfeqsp	f0, f3, #0.5
     e88:	0b3b0b3a 	bleq	ec3b78 <__bss_end__+0xeb9b70>
     e8c:	13491927 	movtne	r1, #39207	; 0x9927
     e90:	13010b20 	movwne	r0, #6944	; 0x1b20
     e94:	2e230000 	cdpcs	0, 2, cr0, cr3, cr0, {0}
     e98:	03193f01 	tsteq	r9, #1, 30
     e9c:	3b0b3a0e 	blcc	2cf6dc <__bss_end__+0x2c56d4>
     ea0:	4919270b 	ldmdbmi	r9, {r0, r1, r3, r8, r9, sl, sp}
     ea4:	12011113 	andne	r1, r1, #-1073741820	; 0xc0000004
     ea8:	97184006 	ldrls	r4, [r8, -r6]
     eac:	13011942 	movwne	r1, #6466	; 0x1942
     eb0:	89240000 	stmdbhi	r4!, {}	; <UNPREDICTABLE>
     eb4:	11000182 	smlabbne	r0, r2, r1, r0
     eb8:	00133101 	andseq	r3, r3, r1, lsl #2
     ebc:	82892500 	addhi	r2, r9, #0, 10
     ec0:	01110101 	tsteq	r1, r1, lsl #2
     ec4:	13011331 	movwne	r1, #4913	; 0x1331
     ec8:	34260000 	strtcc	r0, [r6], #-0
     ecc:	3a0e0300 	bcc	381ad4 <__bss_end__+0x377acc>
     ed0:	490b3b0b 	stmdbmi	fp, {r0, r1, r3, r8, r9, fp, ip, sp}
     ed4:	00170213 	andseq	r0, r7, r3, lsl r2
     ed8:	00052700 	andeq	r2, r5, r0, lsl #14
     edc:	00001331 	andeq	r1, r0, r1, lsr r3
     ee0:	03000528 	movweq	r0, #1320	; 0x528
     ee4:	3b0b3a0e 	blcc	2cf724 <__bss_end__+0x2c571c>
     ee8:	0213490b 	andseq	r4, r3, #180224	; 0x2c000
     eec:	29000018 	stmdbcs	r0, {r3, r4}
     ef0:	0e030034 	mcreq	0, 0, r0, cr3, cr4, {1}
     ef4:	19341349 	ldmdbne	r4!, {r0, r3, r6, r8, r9, ip}
     ef8:	00001802 	andeq	r1, r0, r2, lsl #16
     efc:	4901012a 	stmdbmi	r1, {r1, r3, r5, r8}
     f00:	00130113 	andseq	r0, r3, r3, lsl r1
     f04:	00212b00 	eoreq	r2, r1, r0, lsl #22
     f08:	0b2f1349 	bleq	bc5c34 <__bss_end__+0xbbbc2c>
     f0c:	342c0000 	strtcc	r0, [ip], #-0
     f10:	3a080300 	bcc	201b18 <__bss_end__+0x1f7b10>
     f14:	490b3b0b 	stmdbmi	fp, {r0, r1, r3, r8, r9, fp, ip, sp}
     f18:	00061c13 	andeq	r1, r6, r3, lsl ip
     f1c:	00342d00 	eorseq	r2, r4, r0, lsl #26
     f20:	0b3a0803 	bleq	e82f34 <__bss_end__+0xe78f2c>
     f24:	13490b3b 	movtne	r0, #39739	; 0x9b3b
     f28:	00000b1c 	andeq	r0, r0, ip, lsl fp
     f2c:	0300052e 	movweq	r0, #1326	; 0x52e
     f30:	3b0b3a08 	blcc	2cf758 <__bss_end__+0x2c5750>
     f34:	0213490b 	andseq	r4, r3, #180224	; 0x2c000
     f38:	2f000018 	svccs	0x00000018
     f3c:	00000018 	andeq	r0, r0, r8, lsl r0
     f40:	49002130 	stmdbmi	r0, {r4, r5, r8, sp}
     f44:	00052f13 	andeq	r2, r5, r3, lsl pc
     f48:	012e3100 	teqeq	lr, r0, lsl #2
     f4c:	0e03193f 	mcreq	9, 0, r1, cr3, cr15, {1}
     f50:	0b3b0b3a 	bleq	ec3c40 <__bss_end__+0xeb9c38>
     f54:	193c1927 	ldmdbne	ip!, {r0, r1, r2, r5, r8, fp, ip}
     f58:	00001301 	andeq	r1, r0, r1, lsl #6
     f5c:	49000532 	stmdbmi	r0, {r1, r4, r5, r8, sl}
     f60:	33000013 	movwcc	r0, #19
     f64:	193f002e 	ldmdbne	pc!, {r1, r2, r3, r5}	; <UNPREDICTABLE>
     f68:	0b3a0e03 	bleq	e8477c <__bss_end__+0xe7a774>
     f6c:	19270b3b 	stmdbne	r7!, {r0, r1, r3, r4, r5, r8, r9, fp}
     f70:	193c1349 	ldmdbne	ip!, {r0, r3, r6, r8, r9, ip}
     f74:	2e340000 	cdpcs	0, 3, cr0, cr4, cr0, {0}
     f78:	03193f01 	tsteq	r9, #1, 30
     f7c:	3b0b3a0e 	blcc	2cf7bc <__bss_end__+0x2c57b4>
     f80:	4919270b 	ldmdbmi	r9, {r0, r1, r3, r8, r9, sl, sp}
     f84:	01193c13 	tsteq	r9, r3, lsl ip
     f88:	35000013 	strcc	r0, [r0, #-19]
     f8c:	193f002e 	ldmdbne	pc!, {r1, r2, r3, r5}	; <UNPREDICTABLE>
     f90:	0b3a0e03 	bleq	e847a4 <__bss_end__+0xe7a79c>
     f94:	19270b3b 	stmdbne	r7!, {r0, r1, r3, r4, r5, r8, r9, fp}
     f98:	0000193c 	andeq	r1, r0, ip, lsr r9
     f9c:	3f012e36 	svccc	0x00012e36
     fa0:	3a0e0319 	bcc	381c0c <__bss_end__+0x377c04>
     fa4:	270b3b0b 	strcs	r3, [fp, -fp, lsl #22]
     fa8:	3c134919 	ldccc	9, cr4, [r3], {25}
     fac:	00000019 	andeq	r0, r0, r9, lsl r0
     fb0:	25011101 	strcs	r1, [r1, #-257]	; 0x101
     fb4:	030b130e 	movweq	r1, #45838	; 0xb30e
     fb8:	110e1b0e 	tstne	lr, lr, lsl #22
     fbc:	10061201 	andne	r1, r6, r1, lsl #4
     fc0:	02000017 	andeq	r0, r0, #23
     fc4:	0b0b0024 	bleq	2c105c <__bss_end__+0x2b7054>
     fc8:	08030b3e 	stmdaeq	r3, {r1, r2, r3, r4, r5, r8, r9, fp}
     fcc:	24030000 	strcs	r0, [r3], #-0
     fd0:	3e0b0b00 	vmlacc.f64	d0, d11, d0
     fd4:	000e030b 	andeq	r0, lr, fp, lsl #6
     fd8:	01040400 	tsteq	r4, r0, lsl #8
     fdc:	0b3a0b0b 	bleq	e83c10 <__bss_end__+0xe79c08>
     fe0:	13010b3b 	movwne	r0, #6971	; 0x1b3b
     fe4:	28050000 	stmdacs	r5, {}	; <UNPREDICTABLE>
     fe8:	1c0e0300 	stcne	3, cr0, [lr], {-0}
     fec:	0600000d 	streq	r0, [r0], -sp
     ff0:	0e030016 	mcreq	0, 0, r0, cr3, cr6, {0}
     ff4:	0b3b0b3a 	bleq	ec3ce4 <__bss_end__+0xeb9cdc>
     ff8:	00001349 	andeq	r1, r0, r9, asr #6
     ffc:	3f012e07 	svccc	0x00012e07
    1000:	3a0e0319 	bcc	381c6c <__bss_end__+0x377c64>
    1004:	270b3b0b 	strcs	r3, [fp, -fp, lsl #22]
    1008:	12011119 	andne	r1, r1, #1073741830	; 0x40000006
    100c:	97184006 	ldrls	r4, [r8, -r6]
    1010:	13011942 	movwne	r1, #6466	; 0x1942
    1014:	89080000 	stmdbhi	r8, {}	; <UNPREDICTABLE>
    1018:	11000182 	smlabbne	r0, r2, r1, r0
    101c:	00133101 	andseq	r3, r3, r1, lsl #2
    1020:	82890900 	addhi	r0, r9, #0, 18
    1024:	01110101 	tsteq	r1, r1, lsl #2
    1028:	13011331 	movwne	r1, #4913	; 0x1331
    102c:	8a0a0000 	bhi	281034 <__bss_end__+0x27702c>
    1030:	02000182 	andeq	r0, r0, #-2147483616	; 0x80000020
    1034:	18429118 	stmdane	r2, {r3, r4, r8, ip, pc}^
    1038:	2e0b0000 	cdpcs	0, 0, cr0, cr11, cr0, {0}
    103c:	03193f01 	tsteq	r9, #1, 30
    1040:	3b0b3a0e 	blcc	2cf880 <__bss_end__+0x2c5878>
    1044:	4919270b 	ldmdbmi	r9, {r0, r1, r3, r8, r9, sl, sp}
    1048:	12011113 	andne	r1, r1, #-1073741820	; 0xc0000004
    104c:	97184006 	ldrls	r4, [r8, -r6]
    1050:	13011942 	movwne	r1, #6466	; 0x1942
    1054:	050c0000 	streq	r0, [ip, #-0]
    1058:	3a080300 	bcc	201c60 <__bss_end__+0x1f7c58>
    105c:	490b3b0b 	stmdbmi	fp, {r0, r1, r3, r8, r9, fp, ip, sp}
    1060:	00170213 	andseq	r0, r7, r3, lsl r2
    1064:	82890d00 	addhi	r0, r9, #0, 26
    1068:	01110101 	tsteq	r1, r1, lsl #2
    106c:	00001331 	andeq	r1, r0, r1, lsr r3
    1070:	0300340e 	movweq	r3, #1038	; 0x40e
    1074:	3b0b3a0e 	blcc	2cf8b4 <__bss_end__+0x2c58ac>
    1078:	3f13490b 	svccc	0x0013490b
    107c:	00180219 	andseq	r0, r8, r9, lsl r2
    1080:	000f0f00 	andeq	r0, pc, r0, lsl #30
    1084:	13490b0b 	movtne	r0, #39691	; 0x9b0b
    1088:	35100000 	ldrcc	r0, [r0, #-0]
    108c:	00134900 	andseq	r4, r3, r0, lsl #18
    1090:	002e1100 	eoreq	r1, lr, r0, lsl #2
    1094:	0e03193f 	mcreq	9, 0, r1, cr3, cr15, {1}
    1098:	0b3b0b3a 	bleq	ec3d88 <__bss_end__+0xeb9d80>
    109c:	193c1927 	ldmdbne	ip!, {r0, r1, r2, r5, r8, fp, ip}
    10a0:	2e120000 	cdpcs	0, 1, cr0, cr2, cr0, {0}
    10a4:	03193f01 	tsteq	r9, #1, 30
    10a8:	3b0b3a0e 	blcc	2cf8e8 <__bss_end__+0x2c58e0>
    10ac:	3c19270b 	ldccc	7, cr2, [r9], {11}
    10b0:	00130119 	andseq	r0, r3, r9, lsl r1
    10b4:	00051300 	andeq	r1, r5, r0, lsl #6
    10b8:	00001349 	andeq	r1, r0, r9, asr #6
    10bc:	3f012e14 	svccc	0x00012e14
    10c0:	3a0e0319 	bcc	381d2c <__bss_end__+0x377d24>
    10c4:	270b3b0b 	strcs	r3, [fp, -fp, lsl #22]
    10c8:	3c134919 	ldccc	9, cr4, [r3], {25}
    10cc:	00130119 	andseq	r0, r3, r9, lsl r1
    10d0:	00261500 	eoreq	r1, r6, r0, lsl #10
    10d4:	00001349 	andeq	r1, r0, r9, asr #6
    10d8:	00003516 	andeq	r3, r0, r6, lsl r5
    10dc:	11010000 	mrsne	r0, (UNDEF: 1)
    10e0:	130e2501 	movwne	r2, #58625	; 0xe501
    10e4:	1b0e030b 	blne	381d18 <__bss_end__+0x377d10>
    10e8:	1201110e 	andne	r1, r1, #-2147483645	; 0x80000003
    10ec:	00171006 	andseq	r1, r7, r6
    10f0:	00240200 	eoreq	r0, r4, r0, lsl #4
    10f4:	0b3e0b0b 	bleq	f83d28 <__bss_end__+0xf79d20>
    10f8:	00000803 	andeq	r0, r0, r3, lsl #16
    10fc:	03001603 	movweq	r1, #1539	; 0x603
    1100:	3b0b3a0e 	blcc	2cf940 <__bss_end__+0x2c5938>
    1104:	0013490b 	andseq	r4, r3, fp, lsl #18
    1108:	00240400 	eoreq	r0, r4, r0, lsl #8
    110c:	0b3e0b0b 	bleq	f83d40 <__bss_end__+0xf79d38>
    1110:	00000e03 	andeq	r0, r0, r3, lsl #28
    1114:	0b000f05 	bleq	4d30 <_start-0x32d0>
    1118:	0600000b 	streq	r0, [r0], -fp
    111c:	0b0b0113 	bleq	2c1570 <__bss_end__+0x2b7568>
    1120:	0b3b0b3a 	bleq	ec3e10 <__bss_end__+0xeb9e08>
    1124:	00001301 	andeq	r1, r0, r1, lsl #6
    1128:	03000d07 	movweq	r0, #3335	; 0xd07
    112c:	3b0b3a08 	blcc	2cf954 <__bss_end__+0x2c594c>
    1130:	3813490b 	ldmdacc	r3, {r0, r1, r3, r8, fp, lr}
    1134:	0800000b 	stmdaeq	r0, {r0, r1, r3}
    1138:	0e03000d 	cdpeq	0, 0, cr0, cr3, cr13, {0}
    113c:	0b3b0b3a 	bleq	ec3e2c <__bss_end__+0xeb9e24>
    1140:	0b381349 	bleq	e05e6c <__bss_end__+0xdfbe64>
    1144:	04090000 	streq	r0, [r9], #-0
    1148:	3a0b0b01 	bcc	2c3d54 <__bss_end__+0x2b9d4c>
    114c:	010b3b0b 	tsteq	fp, fp, lsl #22
    1150:	0a000013 	beq	11a4 <_start-0x6e5c>
    1154:	0e030028 	cdpeq	0, 0, cr0, cr3, cr8, {1}
    1158:	00000d1c 	andeq	r0, r0, ip, lsl sp
    115c:	3f012e0b 	svccc	0x00012e0b
    1160:	3a0e0319 	bcc	381dcc <__bss_end__+0x377dc4>
    1164:	270b3b0b 	strcs	r3, [fp, -fp, lsl #22]
    1168:	11134919 	tstne	r3, r9, lsl r9
    116c:	40061201 	andmi	r1, r6, r1, lsl #4
    1170:	19429718 	stmdbne	r2, {r3, r4, r8, r9, sl, ip, pc}^
    1174:	00001301 	andeq	r1, r0, r1, lsl #6
    1178:	0300340c 	movweq	r3, #1036	; 0x40c
    117c:	3b0b3a08 	blcc	2cf9a4 <__bss_end__+0x2c599c>
    1180:	1c13490b 	ldcne	9, cr4, [r3], {11}
    1184:	0d000006 	stceq	0, cr0, [r0, #-24]	; 0xffffffe8
    1188:	01018289 	smlabbeq	r1, r9, r2, r8
    118c:	13310111 	teqne	r1, #1073741828	; 0x40000004
    1190:	8a0e0000 	bhi	381198 <__bss_end__+0x377190>
    1194:	02000182 	andeq	r0, r0, #-2147483616	; 0x80000020
    1198:	18429118 	stmdane	r2, {r3, r4, r8, ip, pc}^
    119c:	0f0f0000 	svceq	0x000f0000
    11a0:	490b0b00 	stmdbmi	fp, {r8, r9, fp}
    11a4:	10000013 	andne	r0, r0, r3, lsl r0
    11a8:	193f012e 	ldmdbne	pc!, {r1, r2, r3, r5, r8}	; <UNPREDICTABLE>
    11ac:	0b3a0e03 	bleq	e849c0 <__bss_end__+0xe7a9b8>
    11b0:	19270b3b 	stmdbne	r7!, {r0, r1, r3, r4, r5, r8, r9, fp}
    11b4:	193c1349 	ldmdbne	ip!, {r0, r3, r6, r8, r9, ip}
    11b8:	05110000 	ldreq	r0, [r1, #-0]
    11bc:	00134900 	andseq	r4, r3, r0, lsl #18
    11c0:	11010000 	mrsne	r0, (UNDEF: 1)
    11c4:	130e2501 	movwne	r2, #58625	; 0xe501
    11c8:	1b0e030b 	blne	381dfc <__bss_end__+0x377df4>
    11cc:	1201110e 	andne	r1, r1, #-2147483645	; 0x80000003
    11d0:	00171006 	andseq	r1, r7, r6
    11d4:	00240200 	eoreq	r0, r4, r0, lsl #4
    11d8:	0b3e0b0b 	bleq	f83e0c <__bss_end__+0xf79e04>
    11dc:	00000e03 	andeq	r0, r0, r3, lsl #28
    11e0:	0b002403 	bleq	a1f4 <__bss_end__+0x1ec>
    11e4:	030b3e0b 	movweq	r3, #48651	; 0xbe0b
    11e8:	04000008 	streq	r0, [r0], #-8
    11ec:	0b0b000f 	bleq	2c1230 <__bss_end__+0x2b7228>
    11f0:	0f050000 	svceq	0x00050000
    11f4:	490b0b00 	stmdbmi	fp, {r8, r9, fp}
    11f8:	06000013 			; <UNDEFINED> instruction: 0x06000013
    11fc:	0e030016 	mcreq	0, 0, r0, cr3, cr6, {0}
    1200:	0b3b0b3a 	bleq	ec3ef0 <__bss_end__+0xeb9ee8>
    1204:	00001349 	andeq	r1, r0, r9, asr #6
    1208:	3f012e07 	svccc	0x00012e07
    120c:	3a0e0319 	bcc	381e78 <__bss_end__+0x377e70>
    1210:	270b3b0b 	strcs	r3, [fp, -fp, lsl #22]
    1214:	11134919 	tstne	r3, r9, lsl r9
    1218:	40061201 	andmi	r1, r6, r1, lsl #4
    121c:	19429718 	stmdbne	r2, {r3, r4, r8, r9, sl, ip, pc}^
    1220:	05080000 	streq	r0, [r8, #-0]
    1224:	3a080300 	bcc	201e2c <__bss_end__+0x1f7e24>
    1228:	490b3b0b 	stmdbmi	fp, {r0, r1, r3, r8, r9, fp, ip, sp}
    122c:	00180213 	andseq	r0, r8, r3, lsl r2
    1230:	00050900 	andeq	r0, r5, r0, lsl #18
    1234:	0b3a0803 	bleq	e83248 <__bss_end__+0xe79240>
    1238:	13490b3b 	movtne	r0, #39739	; 0x9b3b
    123c:	00001702 	andeq	r1, r0, r2, lsl #14
    1240:	0300340a 	movweq	r3, #1034	; 0x40a
    1244:	3b0b3a08 	blcc	2cfa6c <__bss_end__+0x2c5a64>
    1248:	0213490b 	andseq	r4, r3, #180224	; 0x2c000
    124c:	0b000017 	bleq	12b0 <_start-0x6d50>
    1250:	08030034 	stmdaeq	r3, {r2, r4, r5}
    1254:	0b3b0b3a 	bleq	ec3f44 <__bss_end__+0xeb9f3c>
    1258:	18021349 	stmdane	r2, {r0, r3, r6, r8, r9, ip}
    125c:	Address 0x000000000000125c is out of bounds.


Disassembly of section .debug_aranges:

00000000 <.debug_aranges>:
   0:	0000001c 	andeq	r0, r0, ip, lsl r0
   4:	00000002 	andeq	r0, r0, r2
   8:	00040000 	andeq	r0, r4, r0
   c:	00000000 	andeq	r0, r0, r0
  10:	00008010 	andeq	r8, r0, r0, lsl r0
  14:	00000054 	andeq	r0, r0, r4, asr r0
	...
  20:	0000001c 	andeq	r0, r0, ip, lsl r0
  24:	01da0002 	bicseq	r0, sl, r2
  28:	00040000 	andeq	r0, r4, r0
  2c:	00000000 	andeq	r0, r0, r0
  30:	00008064 	andeq	r8, r0, r4, rrx
  34:	00000194 	muleq	r0, r4, r1
	...
  40:	0000001c 	andeq	r0, r0, ip, lsl r0
  44:	069a0002 	ldreq	r0, [sl], r2
  48:	00040000 	andeq	r0, r4, r0
  4c:	00000000 	andeq	r0, r0, r0
  50:	000081f8 	strdeq	r8, [r0], -r8	; <UNPREDICTABLE>
  54:	00000058 	andeq	r0, r0, r8, asr r0
	...
  60:	0000001c 	andeq	r0, r0, ip, lsl r0
  64:	082f0002 	stmdaeq	pc!, {r1}	; <UNPREDICTABLE>
  68:	00040000 	andeq	r0, r4, r0
  6c:	00000000 	andeq	r0, r0, r0
  70:	00008250 	andeq	r8, r0, r0, asr r2
  74:	0000003c 	andeq	r0, r0, ip, lsr r0
	...
  80:	0000001c 	andeq	r0, r0, ip, lsl r0
  84:	09460002 	stmdbeq	r6, {r1}^
  88:	00040000 	andeq	r0, r4, r0
  8c:	00000000 	andeq	r0, r0, r0
  90:	0000828c 	andeq	r8, r0, ip, lsl #5
  94:	00000034 	andeq	r0, r0, r4, lsr r0
	...
  a0:	0000001c 	andeq	r0, r0, ip, lsl r0
  a4:	0a380002 	beq	e000b4 <__bss_end__+0xdf60ac>
  a8:	00040000 	andeq	r0, r4, r0
  ac:	00000000 	andeq	r0, r0, r0
  b0:	000082c0 	andeq	r8, r0, r0, asr #5
  b4:	00000524 	andeq	r0, r0, r4, lsr #10
	...
  c0:	0000001c 	andeq	r0, r0, ip, lsl r0
  c4:	10dd0002 	sbcsne	r0, sp, r2
  c8:	00040000 	andeq	r0, r4, r0
  cc:	00000000 	andeq	r0, r0, r0
  d0:	000087e4 	andeq	r8, r0, r4, ror #15
  d4:	00000028 	andeq	r0, r0, r8, lsr #32
	...
  e0:	0000001c 	andeq	r0, r0, ip, lsl r0
  e4:	11e00002 	mvnne	r0, r2
  e8:	00040000 	andeq	r0, r4, r0
  ec:	00000000 	andeq	r0, r0, r0
  f0:	0000880c 	andeq	r8, r0, ip, lsl #16
  f4:	000000b0 	strheq	r0, [r0], -r0	; <UNPREDICTABLE>
	...
 100:	0000001c 	andeq	r0, r0, ip, lsl r0
 104:	14c10002 	strbne	r0, [r1], #2
 108:	00040000 	andeq	r0, r4, r0
 10c:	00000000 	andeq	r0, r0, r0
 110:	000088bc 			; <UNDEFINED> instruction: 0x000088bc
 114:	00000074 	andeq	r0, r0, r4, ror r0
	...
 120:	0000001c 	andeq	r0, r0, ip, lsl r0
 124:	16720002 	ldrbtne	r0, [r2], -r2
 128:	00040000 	andeq	r0, r4, r0
 12c:	00000000 	andeq	r0, r0, r0
 130:	00008930 	andeq	r8, r0, r0, lsr r9
 134:	00000088 	andeq	r0, r0, r8, lsl #1
	...
 140:	0000001c 	andeq	r0, r0, ip, lsl r0
 144:	184e0002 	stmdane	lr, {r1}^
 148:	00040000 	andeq	r0, r4, r0
 14c:	00000000 	andeq	r0, r0, r0
 150:	000089b8 			; <UNDEFINED> instruction: 0x000089b8
 154:	000005a0 	andeq	r0, r0, r0, lsr #11
	...
 160:	0000001c 	andeq	r0, r0, ip, lsl r0
 164:	20d40002 	sbcscs	r0, r4, r2
 168:	00040000 	andeq	r0, r4, r0
 16c:	00000000 	andeq	r0, r0, r0
 170:	00008f58 	andeq	r8, r0, r8, asr pc
 174:	00000668 	andeq	r0, r0, r8, ror #12
	...
 180:	0000001c 	andeq	r0, r0, ip, lsl r0
 184:	32ca0002 	sbccc	r0, sl, #2
 188:	00040000 	andeq	r0, r4, r0
 18c:	00000000 	andeq	r0, r0, r0
 190:	000095c0 	andeq	r9, r0, r0, asr #11
 194:	00000154 	andeq	r0, r0, r4, asr r1
	...
 1a0:	0000001c 	andeq	r0, r0, ip, lsl r0
 1a4:	36cd0002 	strbcc	r0, [sp], r2
 1a8:	00040000 	andeq	r0, r4, r0
 1ac:	00000000 	andeq	r0, r0, r0
 1b0:	00009778 	andeq	r9, r0, r8, ror r7
 1b4:	00000050 	andeq	r0, r0, r0, asr r0
	...
 1c0:	0000001c 	andeq	r0, r0, ip, lsl r0
 1c4:	38940002 	ldmcc	r4, {r1}
 1c8:	00040000 	andeq	r0, r4, r0
 1cc:	00000000 	andeq	r0, r0, r0
 1d0:	000097c8 	andeq	r9, r0, r8, asr #15
 1d4:	00000020 	andeq	r0, r0, r0, lsr #32
	...

Disassembly of section .debug_line:

00000000 <.debug_line>:
       0:	000000dd 	ldrdeq	r0, [r0], -sp
       4:	00c10002 	sbceq	r0, r1, r2
       8:	01020000 	mrseq	r0, (UNDEF: 2)
       c:	000d0efb 	strdeq	r0, [sp], -fp
      10:	01010101 	tsteq	r1, r1, lsl #2
      14:	01000000 	mrseq	r0, (UNDEF: 0)
      18:	2f010000 	svccs	0x00010000
      1c:	72657355 	rsbvc	r7, r5, #1409286145	; 0x54000001
      20:	72622f73 	rsbvc	r2, r2, #460	; 0x1cc
      24:	6a6e6169 	bvs	1b985d0 <__bss_end__+0x1b8e5c8>
      28:	442f6e75 	strtmi	r6, [pc], #-3701	; 30 <_start-0x7fd0>
      2c:	746b7365 	strbtvc	r7, [fp], #-869	; 0x365
      30:	732f706f 	teqvc	pc, #111	; 0x6f
      34:	6f6f6863 	svcvs	0x006f6863
      38:	69572f6c 	ldmdbvs	r7, {r2, r3, r5, r6, r8, r9, sl, fp, sp}^
      3c:	7265746e 	rsbvc	r7, r5, #1845493760	; 0x6e000000
      40:	30323931 	eorscc	r3, r2, r1, lsr r9
      44:	3153432f 	cmpcc	r3, pc, lsr #6
      48:	2f453034 	svccs	0x00453034
      4c:	34317363 	ldrtcc	r7, [r1], #-867	; 0x363
      50:	322d6530 	eorcc	r6, sp, #48, 10	; 0xc000000
      54:	6e697730 	mcrvs	7, 3, r7, cr9, cr0, {1}
      58:	62696c2f 	rsbvs	r6, r9, #12032	; 0x2f00
      5c:	632f6970 	teqvs	pc, #112, 18	; 0x1c0000
      60:	30343173 	eorscc	r3, r4, r3, ror r1
      64:	72732d65 	rsbsvc	r2, r3, #6464	; 0x1940
      68:	552f0063 	strpl	r0, [pc, #-99]!	; d <_start-0x7ff3>
      6c:	73726573 	cmnvc	r2, #482344960	; 0x1cc00000
      70:	6972622f 	ldmdbvs	r2!, {r0, r1, r2, r3, r5, r9, sp, lr}^
      74:	756a6e61 	strbvc	r6, [sl, #-3681]!	; 0xe61
      78:	65442f6e 	strbvs	r2, [r4, #-3950]	; 0xf6e
      7c:	6f746b73 	svcvs	0x00746b73
      80:	63732f70 	cmnvs	r3, #112, 30	; 0x1c0
      84:	6c6f6f68 	stclvs	15, cr6, [pc], #-416	; fffffeec <__bss_end__+0xffff5ee4>
      88:	6e69572f 	cdpvs	7, 6, cr5, cr9, cr15, {1}
      8c:	31726574 	cmncc	r2, r4, ror r5
      90:	2f303239 	svccs	0x00303239
      94:	34315343 	ldrtcc	r5, [r1], #-835	; 0x343
      98:	632f4530 	teqvs	pc, #48, 10	; 0xc000000
      9c:	30343173 	eorscc	r3, r4, r3, ror r1
      a0:	30322d65 	eorscc	r2, r2, r5, ror #26
      a4:	2f6e6977 	svccs	0x006e6977
      a8:	7062696c 	rsbvc	r6, r2, ip, ror #18
      ac:	6f000069 	svcvs	0x00000069
      b0:	00632e6e 	rsbeq	r2, r3, lr, ror #28
      b4:	67000000 	strvs	r0, [r0, -r0]
      b8:	2e6f6970 	mcrcs	9, 3, r6, cr15, cr0, {3}
      bc:	00010068 	andeq	r0, r1, r8, rrx
      c0:	69707200 	ldmdbvs	r0!, {r9, ip, sp, lr}^
      c4:	0200682e 	andeq	r6, r0, #3014656	; 0x2e0000
      c8:	00000000 	andeq	r0, r0, r0
      cc:	80100205 	andshi	r0, r0, r5, lsl #4
      d0:	2f160000 	svccs	0x00160000
      d4:	4b4b4e2f 	blmi	12d3998 <__bss_end__+0x12c9990>
      d8:	684b4b68 	stmdavs	fp, {r3, r5, r6, r8, r9, fp, lr}^
      dc:	01000602 	tsteq	r0, r2, lsl #12
      e0:	0000c601 	andeq	ip, r0, r1, lsl #12
      e4:	6e000200 	cdpvs	2, 0, cr0, cr0, cr0, {0}
      e8:	02000000 	andeq	r0, r0, #0
      ec:	0d0efb01 	vstreq	d15, [lr, #-4]
      f0:	01010100 	mrseq	r0, (UNDEF: 17)
      f4:	00000001 	andeq	r0, r0, r1
      f8:	01000001 	tsteq	r0, r1
      fc:	6573552f 	ldrbvs	r5, [r3, #-1327]!	; 0x52f
     100:	622f7372 	eorvs	r7, pc, #-939524095	; 0xc8000001
     104:	6e616972 	mcrvs	9, 3, r6, cr1, cr2, {3}
     108:	2f6e756a 	svccs	0x006e756a
     10c:	6b736544 	blvs	1cd9624 <__bss_end__+0x1ccf61c>
     110:	2f706f74 	svccs	0x00706f74
     114:	6f686373 	svcvs	0x00686373
     118:	572f6c6f 	strpl	r6, [pc, -pc, ror #24]!
     11c:	65746e69 	ldrbvs	r6, [r4, #-3689]!	; 0xe69
     120:	32393172 	eorscc	r3, r9, #-2147483620	; 0x8000001c
     124:	53432f30 	movtpl	r2, #16176	; 0x3f30
     128:	45303431 	ldrmi	r3, [r0, #-1073]!	; 0x431
     12c:	3173632f 	cmncc	r3, pc, lsr #6
     130:	2d653034 	stclcs	0, cr3, [r5, #-208]!	; 0xffffff30
     134:	69773032 	ldmdbvs	r7!, {r1, r4, r5, ip, sp}^
     138:	696c2f6e 	stmdbvs	ip!, {r1, r2, r3, r5, r6, r8, r9, sl, fp, sp}^
     13c:	00697062 	rsbeq	r7, r9, r2, rrx
     140:	69706700 	ldmdbvs	r0!, {r8, r9, sl, sp, lr}^
     144:	75702d6f 	ldrbvc	r2, [r0, #-3439]!	; 0xd6f
     148:	00632e64 	rsbeq	r2, r3, r4, ror #28
     14c:	72000000 	andvc	r0, r0, #0
     150:	682e6970 	stmdavs	lr!, {r4, r5, r6, r8, fp, sp, lr}
     154:	00000100 	andeq	r0, r0, r0, lsl #2
     158:	02050000 	andeq	r0, r5, #0
     15c:	00008064 	andeq	r8, r0, r4, rrx
     160:	00844c1a 	addeq	r4, r4, sl, lsl ip
     164:	2f010402 	svccs	0x00010402
     168:	4d4c2f85 	stclmi	15, cr2, [ip, #-532]	; 0xfffffdec
     16c:	0200842f 	andeq	r8, r0, #788529152	; 0x2f000000
     170:	842f0104 	strthi	r0, [pc], #-260	; 178 <_start-0x7e88>
     174:	04020084 	streq	r0, [r2], #-132	; 0x84
     178:	68842f01 	stmvs	r4, {r0, r8, r9, sl, fp, sp}
     17c:	01040200 	mrseq	r0, R12_usr
     180:	4c4b832f 	mcrrmi	3, 2, r8, fp, cr15
     184:	04020084 	streq	r0, [r2], #-132	; 0x84
     188:	2f852f01 	svccs	0x00852f01
     18c:	842f4d4c 	strthi	r4, [pc], #-3404	; 194 <_start-0x7e6c>
     190:	01040200 	mrseq	r0, R12_usr
     194:	0084842f 	addeq	r8, r4, pc, lsr #8
     198:	2f010402 	svccs	0x00010402
     19c:	02006884 	andeq	r6, r0, #132, 16	; 0x840000
     1a0:	832f0104 	teqhi	pc, #4, 2
     1a4:	14022e4d 	strne	r2, [r2], #-3661	; 0xe4d
     1a8:	02010100 	andeq	r0, r1, #0, 2
     1ac:	02000001 	andeq	r0, r0, #1
     1b0:	0000eb00 	andeq	lr, r0, r0, lsl #22
     1b4:	fb010200 	blx	409be <__bss_end__+0x369b6>
     1b8:	01000d0e 	tsteq	r0, lr, lsl #26
     1bc:	00010101 	andeq	r0, r1, r1, lsl #2
     1c0:	00010000 	andeq	r0, r1, r0
     1c4:	696c0100 	stmdbvs	ip!, {r8}^
     1c8:	2f006362 	svccs	0x00006362
     1cc:	2f727375 	svccs	0x00727375
     1d0:	61636f6c 	cmnvs	r3, ip, ror #30
     1d4:	65432f6c 	strbvs	r2, [r3, #-3948]	; 0xf6c
     1d8:	72616c6c 	rsbvc	r6, r1, #108, 24	; 0x6c00
     1dc:	6d72612f 	ldfvse	f6, [r2, #-188]!	; 0xffffff44
     1e0:	6e6f6e2d 	cdpvs	14, 6, cr6, cr15, cr13, {1}
     1e4:	61652d65 	cmnvs	r5, r5, ror #26
     1e8:	342f6962 	strtcc	r6, [pc], #-2402	; 1f0 <_start-0x7e10>
     1ec:	332e382e 	teqcc	lr, #3014656	; 0x2e0000
     1f0:	3173632d 	cmncc	r3, sp, lsr #6
     1f4:	2f653037 	svccs	0x00653037
     1f8:	2f62696c 	svccs	0x0062696c
     1fc:	2f636367 	svccs	0x00636367
     200:	2d6d7261 	sfmcs	f7, 2, [sp, #-388]!	; 0xfffffe7c
     204:	656e6f6e 	strbvs	r6, [lr, #-3950]!	; 0xf6e
     208:	6261652d 	rsbvs	r6, r1, #188743680	; 0xb400000
     20c:	2e342f69 	cdpcs	15, 3, cr2, cr4, cr9, {3}
     210:	2f332e38 	svccs	0x00332e38
     214:	6c636e69 	stclvs	14, cr6, [r3], #-420	; 0xfffffe5c
     218:	00656475 	rsbeq	r6, r5, r5, ror r4
     21c:	6573552f 	ldrbvs	r5, [r3, #-1327]!	; 0x52f
     220:	622f7372 	eorvs	r7, pc, #-939524095	; 0xc8000001
     224:	6e616972 	mcrvs	9, 3, r6, cr1, cr2, {3}
     228:	2f6e756a 	svccs	0x006e756a
     22c:	6b736544 	blvs	1cd9744 <__bss_end__+0x1ccf73c>
     230:	2f706f74 	svccs	0x00706f74
     234:	6f686373 	svcvs	0x00686373
     238:	572f6c6f 	strpl	r6, [pc, -pc, ror #24]!
     23c:	65746e69 	ldrbvs	r6, [r4, #-3689]!	; 0xe69
     240:	32393172 	eorscc	r3, r9, #-2147483620	; 0x8000001c
     244:	53432f30 	movtpl	r2, #16176	; 0x3f30
     248:	45303431 	ldrmi	r3, [r0, #-1073]!	; 0x431
     24c:	3173632f 	cmncc	r3, pc, lsr #6
     250:	2d653034 	stclcs	0, cr3, [r5, #-208]!	; 0xffffff30
     254:	69773032 	ldmdbvs	r7!, {r1, r4, r5, ip, sp}^
     258:	696c2f6e 	stmdbvs	ip!, {r1, r2, r3, r5, r6, r8, r9, sl, fp, sp}^
     25c:	00697062 	rsbeq	r7, r9, r2, rrx
     260:	69727000 	ldmdbvs	r2!, {ip, sp, lr}^
     264:	2e6b746e 	cdpcs	4, 6, cr7, cr11, cr14, {3}
     268:	00010063 	andeq	r0, r1, r3, rrx
     26c:	64747300 	ldrbtvs	r7, [r4], #-768	; 0x300
     270:	2e677261 	cdpcs	2, 6, cr7, cr7, cr1, {3}
     274:	00020068 	andeq	r0, r2, r8, rrx
     278:	75623c00 	strbvc	r3, [r2, #-3072]!	; 0xc00
     27c:	2d746c69 	ldclcs	12, cr6, [r4, #-420]!	; 0xfffffe5c
     280:	003e6e69 	eorseq	r6, lr, r9, ror #28
     284:	72000000 	andvc	r0, r0, #0
     288:	682e6970 	stmdavs	lr!, {r4, r5, r6, r8, fp, sp, lr}
     28c:	00000300 	andeq	r0, r0, r0, lsl #6
     290:	702d6176 	eorvc	r6, sp, r6, ror r1
     294:	746e6972 	strbtvc	r6, [lr], #-2418	; 0x972
     298:	00682e6b 	rsbeq	r2, r8, fp, ror #28
     29c:	00000001 	andeq	r0, r0, r1
     2a0:	f8020500 			; <UNDEFINED> instruction: 0xf8020500
     2a4:	17000081 	strne	r0, [r0, -r1, lsl #1]
     2a8:	89bf4b6b 	ldmibhi	pc!, {r0, r1, r3, r5, r6, r8, r9, fp, lr}	; <UNPREDICTABLE>
     2ac:	01000e02 	tsteq	r0, r2, lsl #28
     2b0:	00008a01 	andeq	r8, r0, r1, lsl #20
     2b4:	72000200 	andvc	r0, r0, #0, 4
     2b8:	02000000 	andeq	r0, r0, #0
     2bc:	0d0efb01 	vstreq	d15, [lr, #-4]
     2c0:	01010100 	mrseq	r0, (UNDEF: 17)
     2c4:	00000001 	andeq	r0, r0, r1
     2c8:	01000001 	tsteq	r0, r1
     2cc:	6362696c 	cmnvs	r2, #108, 18	; 0x1b0000
     2d0:	73552f00 	cmpvc	r5, #0, 30
     2d4:	2f737265 	svccs	0x00737265
     2d8:	61697262 	cmnvs	r9, r2, ror #4
     2dc:	6e756a6e 	vsubvs.f32	s13, s10, s29
     2e0:	7365442f 	cmnvc	r5, #788529152	; 0x2f000000
     2e4:	706f746b 	rsbvc	r7, pc, fp, ror #8
     2e8:	6863732f 	stmdavs	r3!, {r0, r1, r2, r3, r5, r8, r9, ip, sp, lr}^
     2ec:	2f6c6f6f 	svccs	0x006c6f6f
     2f0:	746e6957 	strbtvc	r6, [lr], #-2391	; 0x957
     2f4:	39317265 	ldmdbcc	r1!, {r0, r2, r5, r6, r9, ip, sp, lr}
     2f8:	432f3032 	teqmi	pc, #50	; 0x32
     2fc:	30343153 	eorscc	r3, r4, r3, asr r1
     300:	73632f45 	cmnvc	r3, #276	; 0x114
     304:	65303431 	ldrvs	r3, [r0, #-1073]!	; 0x431
     308:	7730322d 	ldrvc	r3, [r0, -sp, lsr #4]!
     30c:	6c2f6e69 	stcvs	14, cr6, [pc], #-420	; 170 <_start-0x7e90>
     310:	69706269 	ldmdbvs	r0!, {r0, r3, r5, r6, r9, sp, lr}^
     314:	75700000 	ldrbvc	r0, [r0, #-0]!
     318:	61686374 	smcvs	34356	; 0x8634
     31c:	00632e72 	rsbeq	r2, r3, r2, ror lr
     320:	72000001 	andvc	r0, r0, #1
     324:	682e6970 	stmdavs	lr!, {r4, r5, r6, r8, fp, sp, lr}
     328:	00000200 	andeq	r0, r0, r0, lsl #4
     32c:	02050000 	andeq	r0, r5, #0
     330:	00008250 	andeq	r8, r0, r0, asr r2
     334:	136b4a14 	cmnne	fp, #20, 20	; 0x14000
     338:	080213bc 	stmdaeq	r2, {r2, r3, r4, r5, r7, r8, r9, ip}
     33c:	96010100 	strls	r0, [r1], -r0, lsl #2
     340:	02000000 	andeq	r0, r0, #0
     344:	00006f00 	andeq	r6, r0, r0, lsl #30
     348:	fb010200 	blx	40b52 <__bss_end__+0x36b4a>
     34c:	01000d0e 	tsteq	r0, lr, lsl #26
     350:	00010101 	andeq	r0, r1, r1, lsl #2
     354:	00010000 	andeq	r0, r1, r0
     358:	696c0100 	stmdbvs	ip!, {r8}^
     35c:	2f006362 	svccs	0x00006362
     360:	72657355 	rsbvc	r7, r5, #1409286145	; 0x54000001
     364:	72622f73 	rsbvc	r2, r2, #460	; 0x1cc
     368:	6a6e6169 	bvs	1b98914 <__bss_end__+0x1b8e90c>
     36c:	442f6e75 	strtmi	r6, [pc], #-3701	; 374 <_start-0x7c8c>
     370:	746b7365 	strbtvc	r7, [fp], #-869	; 0x365
     374:	732f706f 	teqvc	pc, #111	; 0x6f
     378:	6f6f6863 	svcvs	0x006f6863
     37c:	69572f6c 	ldmdbvs	r7, {r2, r3, r5, r6, r8, r9, sl, fp, sp}^
     380:	7265746e 	rsbvc	r7, r5, #1845493760	; 0x6e000000
     384:	30323931 	eorscc	r3, r2, r1, lsr r9
     388:	3153432f 	cmpcc	r3, pc, lsr #6
     38c:	2f453034 	svccs	0x00453034
     390:	34317363 	ldrtcc	r7, [r1], #-867	; 0x363
     394:	322d6530 	eorcc	r6, sp, #48, 10	; 0xc000000
     398:	6e697730 	mcrvs	7, 3, r7, cr9, cr0, {1}
     39c:	62696c2f 	rsbvs	r6, r9, #12032	; 0x2f00
     3a0:	00006970 	andeq	r6, r0, r0, ror r9
     3a4:	6b747570 	blvs	1d1d96c <__bss_end__+0x1d13964>
     3a8:	0100632e 	tsteq	r0, lr, lsr #6
     3ac:	70720000 	rsbsvc	r0, r2, r0
     3b0:	00682e69 	rsbeq	r2, r8, r9, ror #28
     3b4:	00000002 	andeq	r0, r0, r2
     3b8:	8c020500 	cfstr32hi	mvfx0, [r2], {-0}
     3bc:	15000082 	strne	r0, [r0, #-130]	; 0x82
     3c0:	02002d4c 	andeq	r2, r0, #76, 26	; 0x1300
     3c4:	002f0204 	eoreq	r0, pc, r4, lsl #4
     3c8:	49020402 	stmdbmi	r2, {r1, sl}
     3cc:	01040200 	mrseq	r0, R12_usr
     3d0:	6b062e06 	blvs	18bbf0 <__bss_end__+0x181be8>
     3d4:	01000602 	tsteq	r0, r2, lsl #12
     3d8:	0001e201 	andeq	lr, r1, r1, lsl #4
     3dc:	df000200 	svcle	0x00000200
     3e0:	02000000 	andeq	r0, r0, #0
     3e4:	0d0efb01 	vstreq	d15, [lr, #-4]
     3e8:	01010100 	mrseq	r0, (UNDEF: 17)
     3ec:	00000001 	andeq	r0, r0, r1
     3f0:	01000001 	tsteq	r0, r1
     3f4:	6362696c 	cmnvs	r2, #108, 18	; 0x1b0000
     3f8:	73752f00 	cmnvc	r5, #0, 30
     3fc:	6f6c2f72 	svcvs	0x006c2f72
     400:	2f6c6163 	svccs	0x006c6163
     404:	6c6c6543 	cfstr64vs	mvdx6, [ip], #-268	; 0xfffffef4
     408:	612f7261 	teqvs	pc, r1, ror #4
     40c:	6e2d6d72 	mcrvs	13, 1, r6, cr13, cr2, {3}
     410:	2d656e6f 	stclcs	14, cr6, [r5, #-444]!	; 0xfffffe44
     414:	69626165 	stmdbvs	r2!, {r0, r2, r5, r6, r8, sp, lr}^
     418:	382e342f 	stmdacc	lr!, {r0, r1, r2, r3, r5, sl, ip, sp}
     41c:	632d332e 	teqvs	sp, #-1207959552	; 0xb8000000
     420:	30373173 	eorscc	r3, r7, r3, ror r1
     424:	696c2f65 	stmdbvs	ip!, {r0, r2, r5, r6, r8, r9, sl, fp, sp}^
     428:	63672f62 	cmnvs	r7, #392	; 0x188
     42c:	72612f63 	rsbvc	r2, r1, #396	; 0x18c
     430:	6f6e2d6d 	svcvs	0x006e2d6d
     434:	652d656e 	strvs	r6, [sp, #-1390]!	; 0x56e
     438:	2f696261 	svccs	0x00696261
     43c:	2e382e34 	mrccs	14, 1, r2, cr8, cr4, {1}
     440:	6e692f33 	mcrvs	15, 3, r2, cr9, cr3, {1}
     444:	64756c63 	ldrbtvs	r6, [r5], #-3171	; 0xc63
     448:	552f0065 	strpl	r0, [pc, #-101]!	; 3eb <_start-0x7c15>
     44c:	73726573 	cmnvc	r2, #482344960	; 0x1cc00000
     450:	6972622f 	ldmdbvs	r2!, {r0, r1, r2, r3, r5, r9, sp, lr}^
     454:	756a6e61 	strbvc	r6, [sl, #-3681]!	; 0xe61
     458:	65442f6e 	strbvs	r2, [r4, #-3950]	; 0xf6e
     45c:	6f746b73 	svcvs	0x00746b73
     460:	63732f70 	cmnvs	r3, #112, 30	; 0x1c0
     464:	6c6f6f68 	stclvs	15, cr6, [pc], #-416	; 2cc <_start-0x7d34>
     468:	6e69572f 	cdpvs	7, 6, cr5, cr9, cr15, {1}
     46c:	31726574 	cmncc	r2, r4, ror r5
     470:	2f303239 	svccs	0x00303239
     474:	34315343 	ldrtcc	r5, [r1], #-835	; 0x343
     478:	632f4530 	teqvs	pc, #48, 10	; 0xc000000
     47c:	30343173 	eorscc	r3, r4, r3, ror r1
     480:	30322d65 	eorscc	r2, r2, r5, ror #26
     484:	2f6e6977 	svccs	0x006e6977
     488:	7062696c 	rsbvc	r6, r2, ip, ror #18
     48c:	76000069 	strvc	r0, [r0], -r9, rrx
     490:	72702d61 	rsbsvc	r2, r0, #6208	; 0x1840
     494:	6b746e69 	blvs	1d1be40 <__bss_end__+0x1d11e38>
     498:	0100632e 	tsteq	r0, lr, lsr #6
     49c:	74730000 	ldrbtvc	r0, [r3], #-0
     4a0:	67726164 	ldrbvs	r6, [r2, -r4, ror #2]!
     4a4:	0200682e 	andeq	r6, r0, #3014656	; 0x2e0000
     4a8:	70720000 	rsbsvc	r0, r2, r0
     4ac:	00682e69 	rsbeq	r2, r8, r9, ror #28
     4b0:	3c000003 	stccc	0, cr0, [r0], {3}
     4b4:	6c697562 	cfstr64vs	mvdx7, [r9], #-392	; 0xfffffe78
     4b8:	6e692d74 	mcrvs	13, 3, r2, cr9, cr4, {3}
     4bc:	0000003e 	andeq	r0, r0, lr, lsr r0
     4c0:	05000000 	streq	r0, [r0, #-0]
     4c4:	0082c002 	addeq	ip, r2, r2
     4c8:	01260300 	teqeq	r6, r0, lsl #6
     4cc:	3113a501 	tstcc	r3, r1, lsl #10
     4d0:	0402002d 	streq	r0, [r2], #-45	; 0x2d
     4d4:	02002f02 	andeq	r2, r0, #2, 30
     4d8:	002d0204 	eoreq	r0, sp, r4, lsl #4
     4dc:	2f020402 	svccs	0x00020402
     4e0:	01040200 	mrseq	r0, R12_usr
     4e4:	304c4c2d 	subcc	r4, ip, sp, lsr #24
     4e8:	4f2f4b14 	svcmi	0x002f4b14
     4ec:	02040200 	andeq	r0, r4, #0, 4
     4f0:	04020067 	streq	r0, [r2], #-103	; 0x67
     4f4:	4d4c6501 	cfstr64mi	mvdx6, [ip, #-4]
     4f8:	312fa030 	teqcc	pc, r0, lsr r0	; <UNPREDICTABLE>
     4fc:	16260230 			; <UNDEFINED> instruction: 0x16260230
     500:	002c2d84 	eoreq	r2, ip, r4, lsl #27
     504:	30010402 	andcc	r0, r1, r2, lsl #8
     508:	01040200 	mrseq	r0, R12_usr
     50c:	00660633 	rsbeq	r0, r6, r3, lsr r6
     510:	2e010402 	cdpcs	4, 0, cr0, cr1, cr2, {0}
     514:	01040200 	mrseq	r0, R12_usr
     518:	67210806 	strvs	r0, [r1, -r6, lsl #16]!
     51c:	8273032f 	rsbshi	r0, r3, #-1140850688	; 0xbc000000
     520:	002e1303 	eoreq	r1, lr, r3, lsl #6
     524:	06010402 	streq	r0, [r1], -r2, lsl #8
     528:	0402002e 	streq	r0, [r2], #-46	; 0x2e
     52c:	6a9f0601 	bvs	fe7c1d38 <__bss_end__+0xfe7b7d30>
     530:	2e67034b 	cdpcs	3, 6, cr0, cr7, cr11, {2}
     534:	002e2103 	eoreq	r2, lr, r3, lsl #2
     538:	06010402 	streq	r0, [r1], -r2, lsl #8
     53c:	0402002e 	streq	r0, [r2], #-46	; 0x2e
     540:	009f0601 	addseq	r0, pc, r1, lsl #12
     544:	6a010402 	bvs	41554 <__bss_end__+0x3754c>
     548:	03f32308 	mvnseq	r2, #8, 6	; 0x20000000
     54c:	3c087fa6 	stccc	15, cr7, [r8], {166}	; 0xa6
     550:	0402004b 	streq	r0, [r2], #-75	; 0x4b
     554:	064a0601 	strbeq	r0, [sl], -r1, lsl #12
     558:	2f4b2108 	svccs	0x004b2108
     55c:	00d9034b 	sbcseq	r0, r9, fp, asr #6
     560:	484c83f2 	stmdami	ip, {r1, r4, r5, r6, r7, r8, r9, pc}^
     564:	032e0e03 	teqeq	lr, #3, 28	; 0x30
     568:	2f2f2e75 	svccs	0x002f2e75
     56c:	2d2f4b84 	vstmdbcs	pc!, {d4-d5}
     570:	2f30314d 	svccs	0x0030314d
     574:	04020083 	streq	r0, [r2], #-131	; 0x83
     578:	00a22c01 	adceq	r2, r2, r1, lsl #24
     57c:	06010402 	streq	r0, [r1], -r2, lsl #8
     580:	2208064a 	andcs	r0, r8, #77594624	; 0x4a00000
     584:	03163602 	tsteq	r6, #2097152	; 0x200000
     588:	2108d60e 	tstcs	r8, lr, lsl #12
     58c:	f331f330 	vcge.u<illegal width 64>	d15, d1, d16
     590:	4b30f330 	blmi	c3d258 <__bss_end__+0xc33250>
     594:	0830f330 	ldmdaeq	r0!, {r4, r5, r8, r9, ip, sp, lr, pc}
     598:	002f3123 	eoreq	r3, pc, r3, lsr #2
     59c:	65010402 	strvs	r0, [r1, #-1026]	; 0x402
     5a0:	02040200 	andeq	r0, r4, #0, 4
     5a4:	02004a06 	andeq	r4, r0, #24576	; 0x6000
     5a8:	03060104 	movweq	r0, #24836	; 0x6104
     5ac:	02006642 	andeq	r6, r0, #69206016	; 0x4200000
     5b0:	66060204 	strvs	r0, [r6], -r4, lsl #4
     5b4:	00c20306 	sbceq	r0, r2, r6, lsl #6
     5b8:	1202684a 	andne	r6, r2, #4849664	; 0x4a0000
     5bc:	93010100 	movwls	r0, #4352	; 0x1100
     5c0:	02000000 	andeq	r0, r0, #0
     5c4:	00007d00 	andeq	r7, r0, r0, lsl #26
     5c8:	fb010200 	blx	40dd2 <__bss_end__+0x36dca>
     5cc:	01000d0e 	tsteq	r0, lr, lsl #26
     5d0:	00010101 	andeq	r0, r1, r1, lsl #2
     5d4:	00010000 	andeq	r0, r1, r0
     5d8:	73630100 	cmnvc	r3, #0, 2
     5dc:	65303431 	ldrvs	r3, [r0, #-1073]!	; 0x431
     5e0:	6372732d 	cmnvs	r2, #-1275068416	; 0xb4000000
     5e4:	73552f00 	cmpvc	r5, #0, 30
     5e8:	2f737265 	svccs	0x00737265
     5ec:	61697262 	cmnvs	r9, r2, ror #4
     5f0:	6e756a6e 	vsubvs.f32	s13, s10, s29
     5f4:	7365442f 	cmnvc	r5, #788529152	; 0x2f000000
     5f8:	706f746b 	rsbvc	r7, pc, fp, ror #8
     5fc:	6863732f 	stmdavs	r3!, {r0, r1, r2, r3, r5, r8, r9, ip, sp, lr}^
     600:	2f6c6f6f 	svccs	0x006c6f6f
     604:	746e6957 	strbtvc	r6, [lr], #-2391	; 0x957
     608:	39317265 	ldmdbcc	r1!, {r0, r2, r5, r6, r9, ip, sp, lr}
     60c:	432f3032 	teqmi	pc, #50	; 0x32
     610:	30343153 	eorscc	r3, r4, r3, asr r1
     614:	73632f45 	cmnvc	r3, #276	; 0x114
     618:	65303431 	ldrvs	r3, [r0, #-1073]!	; 0x431
     61c:	7730322d 	ldrvc	r3, [r0, -sp, lsr #4]!
     620:	6c2f6e69 	stcvs	14, cr6, [pc], #-420	; 484 <_start-0x7b7c>
     624:	69706269 	ldmdbvs	r0!, {r0, r3, r5, r6, r9, sp, lr}^
     628:	6c630000 	stclvs	0, cr0, [r3], #-0
     62c:	2d6e6165 	stfcse	f6, [lr, #-404]!	; 0xfffffe6c
     630:	6f626572 	svcvs	0x00626572
     634:	632e746f 	teqvs	lr, #1862270976	; 0x6f000000
     638:	00000100 	andeq	r0, r0, r0, lsl #2
     63c:	2e697072 	mcrcs	0, 3, r7, cr9, cr2, {3}
     640:	00020068 	andeq	r0, r2, r8, rrx
     644:	05000000 	streq	r0, [r0, #-0]
     648:	0087e402 	addeq	lr, r7, r2, lsl #8
     64c:	832f1500 	teqhi	pc, #0, 10
     650:	0006024b 	andeq	r0, r6, fp, asr #4
     654:	01210101 	teqeq	r1, r1, lsl #2
     658:	00020000 	andeq	r0, r2, r0
     65c:	000000f8 	strdeq	r0, [r0], -r8
     660:	0efb0102 	cdpeq	1, 15, cr0, cr11, cr2, {0}
     664:	0101000d 	tsteq	r1, sp
     668:	00000101 	andeq	r0, r0, r1, lsl #2
     66c:	00000100 	andeq	r0, r0, r0, lsl #2
     670:	31736301 	cmncc	r3, r1, lsl #6
     674:	2d653034 	stclcs	0, cr3, [r5, #-208]!	; 0xffffff30
     678:	00637273 	rsbeq	r7, r3, r3, ror r2
     67c:	7273752f 	rsbsvc	r7, r3, #197132288	; 0xbc00000
     680:	636f6c2f 	cmnvs	pc, #12032	; 0x2f00
     684:	432f6c61 	teqmi	pc, #24832	; 0x6100
     688:	616c6c65 	cmnvs	ip, r5, ror #24
     68c:	72612f72 	rsbvc	r2, r1, #456	; 0x1c8
     690:	6f6e2d6d 	svcvs	0x006e2d6d
     694:	652d656e 	strvs	r6, [sp, #-1390]!	; 0x56e
     698:	2f696261 	svccs	0x00696261
     69c:	2e382e34 	mrccs	14, 1, r2, cr8, cr4, {1}
     6a0:	73632d33 	cmnvc	r3, #3264	; 0xcc0
     6a4:	65303731 	ldrvs	r3, [r0, #-1841]!	; 0x731
     6a8:	62696c2f 	rsbvs	r6, r9, #12032	; 0x2f00
     6ac:	6363672f 	cmnvs	r3, #12320768	; 0xbc0000
     6b0:	6d72612f 	ldfvse	f6, [r2, #-188]!	; 0xffffff44
     6b4:	6e6f6e2d 	cdpvs	14, 6, cr6, cr15, cr13, {1}
     6b8:	61652d65 	cmnvs	r5, r5, ror #26
     6bc:	342f6962 	strtcc	r6, [pc], #-2402	; 6c4 <_start-0x793c>
     6c0:	332e382e 	teqcc	lr, #3014656	; 0x2e0000
     6c4:	636e692f 	cmnvs	lr, #770048	; 0xbc000
     6c8:	6564756c 	strbvs	r7, [r4, #-1388]!	; 0x56c
     6cc:	73552f00 	cmpvc	r5, #0, 30
     6d0:	2f737265 	svccs	0x00737265
     6d4:	61697262 	cmnvs	r9, r2, ror #4
     6d8:	6e756a6e 	vsubvs.f32	s13, s10, s29
     6dc:	7365442f 	cmnvc	r5, #788529152	; 0x2f000000
     6e0:	706f746b 	rsbvc	r7, pc, fp, ror #8
     6e4:	6863732f 	stmdavs	r3!, {r0, r1, r2, r3, r5, r8, r9, ip, sp, lr}^
     6e8:	2f6c6f6f 	svccs	0x006c6f6f
     6ec:	746e6957 	strbtvc	r6, [lr], #-2391	; 0x957
     6f0:	39317265 	ldmdbcc	r1!, {r0, r2, r5, r6, r9, ip, sp, lr}
     6f4:	432f3032 	teqmi	pc, #50	; 0x32
     6f8:	30343153 	eorscc	r3, r4, r3, asr r1
     6fc:	73632f45 	cmnvc	r3, #276	; 0x114
     700:	65303431 	ldrvs	r3, [r0, #-1073]!	; 0x431
     704:	7730322d 	ldrvc	r3, [r0, -sp, lsr #4]!
     708:	6c2f6e69 	stcvs	14, cr6, [pc], #-420	; 56c <_start-0x7a94>
     70c:	69706269 	ldmdbvs	r0!, {r0, r3, r5, r6, r9, sp, lr}^
     710:	73630000 	cmnvc	r3, #0
     714:	74726174 	ldrbtvc	r6, [r2], #-372	; 0x174
     718:	0100632e 	tsteq	r0, lr, lsr #6
     71c:	74730000 	ldrbtvc	r0, [r3], #-0
     720:	746e6964 	strbtvc	r6, [lr], #-2404	; 0x964
     724:	6363672d 	cmnvs	r3, #11796480	; 0xb40000
     728:	0200682e 	andeq	r6, r0, #3014656	; 0x2e0000
     72c:	77730000 	ldrbvc	r0, [r3, -r0]!
     730:	7261752d 	rsbvc	r7, r1, #188743680	; 0xb400000
     734:	00682e74 	rsbeq	r2, r8, r4, ror lr
     738:	63000001 	movwvs	r0, #1
     73c:	72746e6f 	rsbsvc	r6, r4, #1776	; 0x6f0
     740:	622d6c6f 	eorvs	r6, sp, #28416	; 0x6f00
     744:	6b636f6c 	blvs	18dc4fc <__bss_end__+0x18d24f4>
     748:	0100682e 	tsteq	r0, lr, lsr #16
     74c:	70720000 	rsbsvc	r0, r2, r0
     750:	00682e69 	rsbeq	r2, r8, r9, ror #28
     754:	00000003 	andeq	r0, r0, r3
     758:	0c020500 	cfstr32eq	mvfx0, [r2], {-0}
     75c:	17000088 	strne	r0, [r0, -r8, lsl #1]
     760:	3268684b 	rsbcc	r6, r8, #4915200	; 0x4b0000
     764:	2f2d2f31 	svccs	0x002d2f31
     768:	01040200 	mrseq	r0, R12_usr
     76c:	4b2f4f49 	blmi	bd4498 <__bss_end__+0xbca490>
     770:	67836767 	strvs	r6, [r3, r7, ror #14]
     774:	10022f4e 	andne	r2, r2, lr, asr #30
     778:	99010100 	stmdbls	r1, {r8}
     77c:	02000000 	andeq	r0, r0, #0
     780:	00007700 	andeq	r7, r0, r0, lsl #14
     784:	fb010200 	blx	40f8e <__bss_end__+0x36f86>
     788:	01000d0e 	tsteq	r0, lr, lsl #26
     78c:	00010101 	andeq	r0, r1, r1, lsl #2
     790:	00010000 	andeq	r0, r1, r0
     794:	73630100 	cmnvc	r3, #0, 2
     798:	65303431 	ldrvs	r3, [r0, #-1073]!	; 0x431
     79c:	6372732d 	cmnvs	r2, #-1275068416	; 0xb4000000
     7a0:	73552f00 	cmpvc	r5, #0, 30
     7a4:	2f737265 	svccs	0x00737265
     7a8:	61697262 	cmnvs	r9, r2, ror #4
     7ac:	6e756a6e 	vsubvs.f32	s13, s10, s29
     7b0:	7365442f 	cmnvc	r5, #788529152	; 0x2f000000
     7b4:	706f746b 	rsbvc	r7, pc, fp, ror #8
     7b8:	6863732f 	stmdavs	r3!, {r0, r1, r2, r3, r5, r8, r9, ip, sp, lr}^
     7bc:	2f6c6f6f 	svccs	0x006c6f6f
     7c0:	746e6957 	strbtvc	r6, [lr], #-2391	; 0x957
     7c4:	39317265 	ldmdbcc	r1!, {r0, r2, r5, r6, r9, ip, sp, lr}
     7c8:	432f3032 	teqmi	pc, #50	; 0x32
     7cc:	30343153 	eorscc	r3, r4, r3, asr r1
     7d0:	73632f45 	cmnvc	r3, #276	; 0x114
     7d4:	65303431 	ldrvs	r3, [r0, #-1073]!	; 0x431
     7d8:	7730322d 	ldrvc	r3, [r0, -sp, lsr #4]!
     7dc:	6c2f6e69 	stcvs	14, cr6, [pc], #-420	; 640 <_start-0x79c0>
     7e0:	69706269 	ldmdbvs	r0!, {r0, r3, r5, r6, r9, sp, lr}^
     7e4:	65720000 	ldrbvs	r0, [r2, #-0]!
     7e8:	746f6f62 	strbtvc	r6, [pc], #-3938	; 7f0 <_start-0x7810>
     7ec:	0100632e 	tsteq	r0, lr, lsr #6
     7f0:	70720000 	rsbsvc	r0, r2, r0
     7f4:	00682e69 	rsbeq	r2, r8, r9, ror #28
     7f8:	00000002 	andeq	r0, r0, r2
     7fc:	bc020500 	cfstr32lt	mvfx0, [r2], {-0}
     800:	03000088 	movweq	r0, #136	; 0x88
     804:	3114010d 	tstcc	r4, sp, lsl #2
     808:	2f15852f 	svccs	0x0015852f
     80c:	672f4d4b 	strvs	r4, [pc, -fp, asr #26]!
     810:	02675235 	rsbeq	r5, r7, #1342177283	; 0x50000003
     814:	01010010 	tsteq	r1, r0, lsl r0
     818:	000000a3 	andeq	r0, r0, r3, lsr #1
     81c:	00760002 	rsbseq	r0, r6, r2
     820:	01020000 	mrseq	r0, (UNDEF: 2)
     824:	000d0efb 	strdeq	r0, [sp], -fp
     828:	01010101 	tsteq	r1, r1, lsl #2
     82c:	01000000 	mrseq	r0, (UNDEF: 0)
     830:	63010000 	movwvs	r0, #4096	; 0x1000
     834:	30343173 	eorscc	r3, r4, r3, ror r1
     838:	72732d65 	rsbsvc	r2, r3, #6464	; 0x1940
     83c:	552f0063 	strpl	r0, [pc, #-99]!	; 7e1 <_start-0x781f>
     840:	73726573 	cmnvc	r2, #482344960	; 0x1cc00000
     844:	6972622f 	ldmdbvs	r2!, {r0, r1, r2, r3, r5, r9, sp, lr}^
     848:	756a6e61 	strbvc	r6, [sl, #-3681]!	; 0xe61
     84c:	65442f6e 	strbvs	r2, [r4, #-3950]	; 0xf6e
     850:	6f746b73 	svcvs	0x00746b73
     854:	63732f70 	cmnvs	r3, #112, 30	; 0x1c0
     858:	6c6f6f68 	stclvs	15, cr6, [pc], #-416	; 6c0 <_start-0x7940>
     85c:	6e69572f 	cdpvs	7, 6, cr5, cr9, cr15, {1}
     860:	31726574 	cmncc	r2, r4, ror r5
     864:	2f303239 	svccs	0x00303239
     868:	34315343 	ldrtcc	r5, [r1], #-835	; 0x343
     86c:	632f4530 	teqvs	pc, #48, 10	; 0xc000000
     870:	30343173 	eorscc	r3, r4, r3, ror r1
     874:	30322d65 	eorscc	r2, r2, r5, ror #26
     878:	2f6e6977 	svccs	0x006e6977
     87c:	7062696c 	rsbvc	r6, r2, ip, ror #18
     880:	74000069 	strvc	r0, [r0], #-105	; 0x69
     884:	72656d69 	rsbvc	r6, r5, #6720	; 0x1a40
     888:	0100632e 	tsteq	r0, lr, lsr #6
     88c:	70720000 	rsbsvc	r0, r2, r0
     890:	00682e69 	rsbeq	r2, r8, r9, ror #28
     894:	00000002 	andeq	r0, r0, r2
     898:	30020500 	andcc	r0, r2, r0, lsl #10
     89c:	16000089 	strne	r0, [r0], -r9, lsl #1
     8a0:	002d2f13 	eoreq	r2, sp, r3, lsl pc
     8a4:	06010402 	streq	r0, [r1], -r2, lsl #8
     8a8:	3168062e 	cmncc	r8, lr, lsr #12
     8ac:	324d4b2f 	subcc	r4, sp, #48128	; 0xbc00
     8b0:	4c4b3031 	mcrrmi	0, 3, r3, fp, cr1
     8b4:	2f2f6a2f 	svccs	0x002f6a2f
     8b8:	08022f84 	stmdaeq	r2, {r2, r7, r8, r9, sl, fp, sp}
     8bc:	7f010100 	svcvc	0x00010100
     8c0:	02000001 	andeq	r0, r0, #1
     8c4:	0000ca00 	andeq	ip, r0, r0, lsl #20
     8c8:	fb010200 	blx	410d2 <__bss_end__+0x370ca>
     8cc:	01000d0e 	tsteq	r0, lr, lsl #26
     8d0:	00010101 	andeq	r0, r1, r1, lsl #2
     8d4:	00010000 	andeq	r0, r1, r0
     8d8:	796d0100 	stmdbvc	sp!, {r8}^
     8dc:	6372732d 	cmnvs	r2, #-1275068416	; 0xb4000000
     8e0:	73552f00 	cmpvc	r5, #0, 30
     8e4:	2f737265 	svccs	0x00737265
     8e8:	61697262 	cmnvs	r9, r2, ror #4
     8ec:	6e756a6e 	vsubvs.f32	s13, s10, s29
     8f0:	7365442f 	cmnvc	r5, #788529152	; 0x2f000000
     8f4:	706f746b 	rsbvc	r7, pc, fp, ror #8
     8f8:	6863732f 	stmdavs	r3!, {r0, r1, r2, r3, r5, r8, r9, ip, sp, lr}^
     8fc:	2f6c6f6f 	svccs	0x006c6f6f
     900:	746e6957 	strbtvc	r6, [lr], #-2391	; 0x957
     904:	39317265 	ldmdbcc	r1!, {r0, r2, r5, r6, r9, ip, sp, lr}
     908:	432f3032 	teqmi	pc, #50	; 0x32
     90c:	30343153 	eorscc	r3, r4, r3, asr r1
     910:	73632f45 	cmnvc	r3, #276	; 0x114
     914:	65303431 	ldrvs	r3, [r0, #-1073]!	; 0x431
     918:	7730322d 	ldrvc	r3, [r0, -sp, lsr #4]!
     91c:	6c2f6e69 	stcvs	14, cr6, [pc], #-420	; 780 <_start-0x7880>
     920:	69706269 	ldmdbvs	r0!, {r0, r3, r5, r6, r9, sp, lr}^
     924:	3173632f 	cmncc	r3, pc, lsr #6
     928:	2d653034 	stclcs	0, cr3, [r5, #-208]!	; 0xffffff30
     92c:	00637273 	rsbeq	r7, r3, r3, ror r2
     930:	6573552f 	ldrbvs	r5, [r3, #-1327]!	; 0x52f
     934:	622f7372 	eorvs	r7, pc, #-939524095	; 0xc8000001
     938:	6e616972 	mcrvs	9, 3, r6, cr1, cr2, {3}
     93c:	2f6e756a 	svccs	0x006e756a
     940:	6b736544 	blvs	1cd9e58 <__bss_end__+0x1ccfe50>
     944:	2f706f74 	svccs	0x00706f74
     948:	6f686373 	svcvs	0x00686373
     94c:	572f6c6f 	strpl	r6, [pc, -pc, ror #24]!
     950:	65746e69 	ldrbvs	r6, [r4, #-3689]!	; 0xe69
     954:	32393172 	eorscc	r3, r9, #-2147483620	; 0x8000001c
     958:	53432f30 	movtpl	r2, #16176	; 0x3f30
     95c:	45303431 	ldrmi	r3, [r0, #-1073]!	; 0x431
     960:	3173632f 	cmncc	r3, pc, lsr #6
     964:	2d653034 	stclcs	0, cr3, [r5, #-208]!	; 0xffffff30
     968:	69773032 	ldmdbvs	r7!, {r1, r4, r5, ip, sp}^
     96c:	696c2f6e 	stmdbvs	ip!, {r1, r2, r3, r5, r6, r8, r9, sl, fp, sp}^
     970:	00697062 	rsbeq	r7, r9, r2, rrx
     974:	69706700 	ldmdbvs	r0!, {r8, r9, sl, sp, lr}^
     978:	00632e6f 	rsbeq	r2, r3, pc, ror #28
     97c:	67000001 	strvs	r0, [r0, -r1]
     980:	2e6f6970 	mcrcs	9, 3, r6, cr15, cr0, {3}
     984:	00020068 	andeq	r0, r2, r8, rrx
     988:	69707200 	ldmdbvs	r0!, {r9, ip, sp, lr}^
     98c:	0300682e 	movweq	r6, #2094	; 0x82e
     990:	00000000 	andeq	r0, r0, r0
     994:	89b80205 	ldmibhi	r8!, {r0, r2, r9}
     998:	3e030000 	cdpcc	0, 0, cr0, cr3, cr0, {0}
     99c:	69504e01 	ldmdbvs	r0, {r0, r9, sl, fp, lr}^
     9a0:	67672108 	strbvs	r2, [r7, -r8, lsl #2]!
     9a4:	67676767 	strbvs	r6, [r7, -r7, ror #14]!
     9a8:	22084b32 	andcs	r4, r8, #51200	; 0xc800
     9ac:	135131dc 	cmpne	r1, #220, 2	; 0x37
     9b0:	be30504e 	cdplt	0, 3, cr5, cr0, cr14, {2}
     9b4:	4d135031 	ldcmi	0, cr5, [r3, #-196]	; 0xffffff3c
     9b8:	4cc0304f 	stclmi	0, cr3, [r0], {79}	; 0x4f
     9bc:	21086950 	tstcs	r8, r0, asr r9
     9c0:	67676767 	strbvs	r6, [r7, -r7, ror #14]!
     9c4:	4b326767 	blmi	c9a768 <__bss_end__+0xc90760>
     9c8:	4ca42108 	stfmis	f2, [r4], #32
     9cc:	69842f50 	stmibvs	r4, {r4, r6, r8, r9, sl, fp, sp}
     9d0:	03827503 	orreq	r7, r2, #12582912	; 0xc00000
     9d4:	304d2e0c 	subcc	r2, sp, ip, lsl #28
     9d8:	4d4c4b4e 	vstrmi	d20, [ip, #-312]	; 0xfffffec8
     9dc:	08696b6a 	stmdaeq	r9!, {r1, r3, r5, r6, r8, r9, fp, sp, lr}^
     9e0:	67676721 	strbvs	r6, [r7, -r1, lsr #14]!
     9e4:	32676767 	rsbcc	r6, r7, #27000832	; 0x19c0000
     9e8:	c022084b 	eorgt	r0, r2, fp, asr #16
     9ec:	4e135130 	mrcmi	1, 0, r5, cr3, cr0, {1}
     9f0:	18033050 	stmdane	r3, {r4, r6, ip, sp}
     9f4:	4c9f31ba 	ldfmis	f3, [pc], {186}	; 0xba
     9f8:	4e4d522f 	cdpmi	2, 4, cr5, cr13, cr15, {1}
     9fc:	4b674b2f 	blmi	19d36c0 <__bss_end__+0x19c96b8>
     a00:	4c676768 	stclmi	7, cr6, [r7], #-416	; 0xfffffe60
     a04:	4b2f672f 	blmi	bda6c8 <__bss_end__+0xbd06c0>
     a08:	2f4e4c6e 	svccs	0x004e4c6e
     a0c:	684b674b 	stmdavs	fp, {r0, r1, r3, r6, r8, r9, sl, sp, lr}^
     a10:	2f4c6767 	svccs	0x004c6767
     a14:	6d4b2f67 	stclvs	15, cr2, [fp, #-412]	; 0xfffffe64
     a18:	4b2f4e4b 	blmi	bd434c <__bss_end__+0xbca344>
     a1c:	04020067 	streq	r0, [r2], #-103	; 0x67
     a20:	06660601 	strbteq	r0, [r6], -r1, lsl #12
     a24:	002f9f68 	eoreq	r9, pc, r8, ror #30
     a28:	06010402 	streq	r0, [r1], -r2, lsl #8
     a2c:	2f68064a 	svccs	0x0068064a
     a30:	034a7303 	movteq	r7, #41731	; 0xa303
     a34:	4c4d2e0e 	mcrrmi	14, 0, r2, sp, cr14
     a38:	bc4b2f4e 	mcrrlt	15, 4, r2, fp, cr14
     a3c:	000602bc 			; <UNDEFINED> instruction: 0x000602bc
     a40:	03490101 	movteq	r0, #37121	; 0x9101
     a44:	00020000 	andeq	r0, r2, r0
     a48:	000001bd 			; <UNDEFINED> instruction: 0x000001bd
     a4c:	0efb0102 	cdpeq	1, 15, cr0, cr11, cr2, {0}
     a50:	0101000d 	tsteq	r1, sp
     a54:	00000101 	andeq	r0, r0, r1, lsl #2
     a58:	00000100 	andeq	r0, r0, r0, lsl #2
     a5c:	2d796d01 	ldclcs	13, cr6, [r9, #-4]!
     a60:	00637273 	rsbeq	r7, r3, r3, ror r2
     a64:	6573552f 	ldrbvs	r5, [r3, #-1327]!	; 0x52f
     a68:	622f7372 	eorvs	r7, pc, #-939524095	; 0xc8000001
     a6c:	6e616972 	mcrvs	9, 3, r6, cr1, cr2, {3}
     a70:	2f6e756a 	svccs	0x006e756a
     a74:	6b736544 	blvs	1cd9f8c <__bss_end__+0x1ccff84>
     a78:	2f706f74 	svccs	0x00706f74
     a7c:	6f686373 	svcvs	0x00686373
     a80:	572f6c6f 	strpl	r6, [pc, -pc, ror #24]!
     a84:	65746e69 	ldrbvs	r6, [r4, #-3689]!	; 0xe69
     a88:	32393172 	eorscc	r3, r9, #-2147483620	; 0x8000001c
     a8c:	53432f30 	movtpl	r2, #16176	; 0x3f30
     a90:	45303431 	ldrmi	r3, [r0, #-1073]!	; 0x431
     a94:	3173632f 	cmncc	r3, pc, lsr #6
     a98:	2d653034 	stclcs	0, cr3, [r5, #-208]!	; 0xffffff30
     a9c:	69773032 	ldmdbvs	r7!, {r1, r4, r5, ip, sp}^
     aa0:	696c2f6e 	stmdbvs	ip!, {r1, r2, r3, r5, r6, r8, r9, sl, fp, sp}^
     aa4:	2f697062 	svccs	0x00697062
     aa8:	34317363 	ldrtcc	r7, [r1], #-867	; 0x363
     aac:	732d6530 	teqvc	sp, #48, 10	; 0xc000000
     ab0:	2f006372 	svccs	0x00006372
     ab4:	2f727375 	svccs	0x00727375
     ab8:	61636f6c 	cmnvs	r3, ip, ror #30
     abc:	65432f6c 	strbvs	r2, [r3, #-3948]	; 0xf6c
     ac0:	72616c6c 	rsbvc	r6, r1, #108, 24	; 0x6c00
     ac4:	6d72612f 	ldfvse	f6, [r2, #-188]!	; 0xffffff44
     ac8:	6e6f6e2d 	cdpvs	14, 6, cr6, cr15, cr13, {1}
     acc:	61652d65 	cmnvs	r5, r5, ror #26
     ad0:	342f6962 	strtcc	r6, [pc], #-2402	; ad8 <_start-0x7528>
     ad4:	332e382e 	teqcc	lr, #3014656	; 0x2e0000
     ad8:	3173632d 	cmncc	r3, sp, lsr #6
     adc:	2f653037 	svccs	0x00653037
     ae0:	2f62696c 	svccs	0x0062696c
     ae4:	2f636367 	svccs	0x00636367
     ae8:	2d6d7261 	sfmcs	f7, 2, [sp, #-388]!	; 0xfffffe7c
     aec:	656e6f6e 	strbvs	r6, [lr, #-3950]!	; 0xf6e
     af0:	6261652d 	rsbvs	r6, r1, #188743680	; 0xb400000
     af4:	2e342f69 	cdpcs	15, 3, cr2, cr4, cr9, {3}
     af8:	2f332e38 	svccs	0x00332e38
     afc:	6c636e69 	stclvs	14, cr6, [r3], #-420	; 0xfffffe5c
     b00:	00656475 	rsbeq	r6, r5, r5, ror r4
     b04:	6573552f 	ldrbvs	r5, [r3, #-1327]!	; 0x52f
     b08:	622f7372 	eorvs	r7, pc, #-939524095	; 0xc8000001
     b0c:	6e616972 	mcrvs	9, 3, r6, cr1, cr2, {3}
     b10:	2f6e756a 	svccs	0x006e756a
     b14:	6b736544 	blvs	1cda02c <__bss_end__+0x1cd0024>
     b18:	2f706f74 	svccs	0x00706f74
     b1c:	6f686373 	svcvs	0x00686373
     b20:	572f6c6f 	strpl	r6, [pc, -pc, ror #24]!
     b24:	65746e69 	ldrbvs	r6, [r4, #-3689]!	; 0xe69
     b28:	32393172 	eorscc	r3, r9, #-2147483620	; 0x8000001c
     b2c:	53432f30 	movtpl	r2, #16176	; 0x3f30
     b30:	45303431 	ldrmi	r3, [r0, #-1073]!	; 0x431
     b34:	3173632f 	cmncc	r3, pc, lsr #6
     b38:	2d653034 	stclcs	0, cr3, [r5, #-208]!	; 0xffffff30
     b3c:	69773032 	ldmdbvs	r7!, {r1, r4, r5, ip, sp}^
     b40:	696c2f6e 	stmdbvs	ip!, {r1, r2, r3, r5, r6, r8, r9, sl, fp, sp}^
     b44:	00697062 	rsbeq	r7, r9, r2, rrx
     b48:	6573552f 	ldrbvs	r5, [r3, #-1327]!	; 0x52f
     b4c:	622f7372 	eorvs	r7, pc, #-939524095	; 0xc8000001
     b50:	6e616972 	mcrvs	9, 3, r6, cr1, cr2, {3}
     b54:	2f6e756a 	svccs	0x006e756a
     b58:	6b736544 	blvs	1cda070 <__bss_end__+0x1cd0068>
     b5c:	2f706f74 	svccs	0x00706f74
     b60:	6f686373 	svcvs	0x00686373
     b64:	572f6c6f 	strpl	r6, [pc, -pc, ror #24]!
     b68:	65746e69 	ldrbvs	r6, [r4, #-3689]!	; 0xe69
     b6c:	32393172 	eorscc	r3, r9, #-2147483620	; 0x8000001c
     b70:	53432f30 	movtpl	r2, #16176	; 0x3f30
     b74:	45303431 	ldrmi	r3, [r0, #-1073]!	; 0x431
     b78:	3173632f 	cmncc	r3, pc, lsr #6
     b7c:	2d653034 	stclcs	0, cr3, [r5, #-208]!	; 0xffffff30
     b80:	69773032 	ldmdbvs	r7!, {r1, r4, r5, ip, sp}^
     b84:	696c2f6e 	stmdbvs	ip!, {r1, r2, r3, r5, r6, r8, r9, sl, fp, sp}^
     b88:	2f697062 	svccs	0x00697062
     b8c:	6362696c 	cmnvs	r2, #108, 18	; 0x1b0000
     b90:	77730000 	ldrbvc	r0, [r3, -r0]!
     b94:	7261752d 	rsbvc	r7, r1, #188743680	; 0xb400000
     b98:	00632e74 	rsbeq	r2, r3, r4, ror lr
     b9c:	63000001 	movwvs	r0, #1
     ba0:	656c6379 	strbvs	r6, [ip, #-889]!	; 0x379
     ba4:	6974752d 	ldmdbvs	r4!, {r0, r2, r3, r5, r8, sl, ip, sp, lr}^
     ba8:	00682e6c 	rsbeq	r2, r8, ip, ror #28
     bac:	73000002 	movwvc	r0, #2
     bb0:	6e696474 	mcrvs	4, 3, r6, cr9, cr4, {3}
     bb4:	63672d74 	cmnvs	r7, #116, 26	; 0x1d00
     bb8:	00682e63 	rsbeq	r2, r8, r3, ror #28
     bbc:	73000003 	movwvc	r0, #3
     bc0:	61752d77 	cmnvs	r5, r7, ror sp
     bc4:	682e7472 	stmdavs	lr!, {r1, r4, r5, r6, sl, ip, sp, lr}
     bc8:	00000200 	andeq	r0, r0, r0, lsl #4
     bcc:	61647473 	smcvs	18243	; 0x4743
     bd0:	682e6772 	stmdavs	lr!, {r1, r4, r5, r6, r8, r9, sl, sp, lr}
     bd4:	00000300 	andeq	r0, r0, r0, lsl #6
     bd8:	6f697067 	svcvs	0x00697067
     bdc:	0200682e 	andeq	r6, r0, #3014656	; 0x2e0000
     be0:	70720000 	rsbsvc	r0, r2, r0
     be4:	00682e69 	rsbeq	r2, r8, r9, ror #28
     be8:	76000004 	strvc	r0, [r0], -r4
     bec:	72702d61 	rsbsvc	r2, r0, #6208	; 0x1840
     bf0:	6b746e69 	blvs	1d1c59c <__bss_end__+0x1d12594>
     bf4:	0500682e 	streq	r6, [r0, #-2094]	; 0x82e
     bf8:	623c0000 	eorsvs	r0, ip, #0
     bfc:	746c6975 	strbtvc	r6, [ip], #-2421	; 0x975
     c00:	3e6e692d 	cdpcc	9, 6, cr6, cr14, cr13, {1}
     c04:	00000000 	andeq	r0, r0, r0
     c08:	02050000 	andeq	r0, r5, #0
     c0c:	00008f58 	andeq	r8, r0, r8, asr pc
     c10:	302f4c1a 	eorcc	r4, pc, sl, lsl ip	; <UNPREDICTABLE>
     c14:	0b030204 	bleq	c142c <__bss_end__+0xb7424>
     c18:	6673032e 	ldrbtvs	r0, [r3], -lr, lsr #6
     c1c:	04880104 	streq	r0, [r8], #260	; 0x104
     c20:	73033502 	movwvc	r3, #13570	; 0x3502
     c24:	8a010466 	bhi	41dc4 <__bss_end__+0x37dbc>
     c28:	03330204 	teqeq	r3, #4, 4	; 0x40000000
     c2c:	01046673 	tsteq	r4, r3, ror r6
     c30:	04820a03 	streq	r0, [r2], #2563	; 0xa03
     c34:	73033102 	movwvc	r3, #12546	; 0x3102
     c38:	03010466 	movweq	r0, #5222	; 0x1466
     c3c:	0204820c 	andeq	r8, r4, #12, 4	; 0xc0000000
     c40:	6673032f 	ldrbtvs	r0, [r3], -pc, lsr #6
     c44:	0e030104 	adfeqs	f0, f3, f4
     c48:	2d020482 	cfstrscs	mvf0, [r2, #-520]	; 0xfffffdf8
     c4c:	04667303 	strbteq	r7, [r6], #-771	; 0x303
     c50:	82100301 	andshi	r0, r0, #67108864	; 0x4000000
     c54:	032b0204 	teqeq	fp, #4, 4	; 0x40000000
     c58:	01046673 	tsteq	r4, r3, ror r6
     c5c:	04821203 	streq	r1, [r2], #515	; 0x203
     c60:	73032902 	movwvc	r2, #14594	; 0x3902
     c64:	03010466 	movweq	r0, #5222	; 0x1466
     c68:	02048214 	andeq	r8, r4, #20, 4	; 0x40000001
     c6c:	032e7903 	teqeq	lr, #49152	; 0xc000
     c70:	01046673 	tsteq	r4, r3, ror r6
     c74:	04821603 	streq	r1, [r2], #1539	; 0x603
     c78:	2e770302 	cdpcs	3, 7, cr0, cr7, cr2, {0}
     c7c:	04667303 	strbteq	r7, [r6], #-771	; 0x303
     c80:	82180301 	andshi	r0, r8, #67108864	; 0x4000000
     c84:	4b2e1003 	blmi	b84c98 <__bss_end__+0xb7ac90>
     c88:	2e70034d 	cdpcs	3, 7, cr0, cr0, cr13, {2}
     c8c:	4883844c 	stmmi	r3, {r2, r3, r6, sl, pc}
     c90:	4e2e0d03 	cdpmi	13, 2, cr0, cr14, cr3, {0}
     c94:	02043331 	andeq	r3, r4, #-1006632960	; 0xc4000000
     c98:	042e4803 	strteq	r4, [lr], #-2051	; 0x803
     c9c:	823a0301 	eorshi	r0, sl, #67108864	; 0x4000000
     ca0:	0302042f 	movweq	r0, #9263	; 0x242f
     ca4:	01046645 	tsteq	r4, r5, asr #12
     ca8:	2f823d03 	svccs	0x00823d03
     cac:	42030204 	andmi	r0, r3, #4, 4	; 0x40000000
     cb0:	03010482 	movweq	r0, #5250	; 0x1482
     cb4:	2f8200c0 	svccs	0x008200c0
     cb8:	bf030204 	svclt	0x00030204
     cbc:	0104827f 	tsteq	r4, pc, ror r2
     cc0:	8200c303 	andhi	ip, r0, #201326592	; 0xc000000
     cc4:	0302042f 	movweq	r0, #9263	; 0x242f
     cc8:	04827fbc 	streq	r7, [r2], #4028	; 0xfbc
     ccc:	00c60301 	sbceq	r0, r6, r1, lsl #6
     cd0:	02042f82 	andeq	r2, r4, #520	; 0x208
     cd4:	827fb903 	rsbshi	fp, pc, #49152	; 0xc000
     cd8:	c9030104 	stmdbgt	r3, {r2, r8}
     cdc:	042f8200 	strteq	r8, [pc], #-512	; ce4 <_start-0x731c>
     ce0:	7fb60302 	svcvc	0x00b60302
     ce4:	03010482 	movweq	r0, #5250	; 0x1482
     ce8:	2f8200cc 	svccs	0x008200cc
     cec:	b3030204 	movwlt	r0, #12804	; 0x3204
     cf0:	0104827f 	tsteq	r4, pc, ror r2
     cf4:	8200d003 	andhi	sp, r0, #3
     cf8:	4c824c03 	stcmi	12, cr4, [r2], {3}
     cfc:	03488384 	movteq	r8, #33668	; 0x8384
     d00:	034e2e36 	movteq	r2, #60982	; 0xee36
     d04:	29034a54 	stmdbcs	r3, {r2, r4, r6, r9, fp, lr}
     d08:	bb34324a 	bllt	d0d638 <__bss_end__+0xd03630>
     d0c:	01040200 	mrseq	r0, R12_usr
     d10:	08064a06 	stmdaeq	r6, {r1, r2, r9, fp, lr}
     d14:	bb4b4e21 	bllt	12d45a0 <__bss_end__+0x12ca598>
     d18:	0402002c 	streq	r0, [r2], #-44	; 0x2c
     d1c:	062e0601 	strteq	r0, [lr], -r1, lsl #12
     d20:	a0dc4c6d 	sbcsge	r4, ip, sp, ror #24
     d24:	01040200 	mrseq	r0, R12_usr
     d28:	08064a06 	stmdaeq	r6, {r1, r2, r9, fp, lr}
     d2c:	02004d21 	andeq	r4, r0, #2112	; 0x840
     d30:	004b0204 	subeq	r0, fp, r4, lsl #4
     d34:	81020402 	tsthi	r2, r2, lsl #8
     d38:	01040200 	mrseq	r0, R12_usr
     d3c:	4d062e06 	stcmi	14, cr2, [r6, #-24]	; 0xffffffe8
     d40:	4bd8dd4c 	blmi	ff638278 <__bss_end__+0xff62e270>
     d44:	2f6a4b4b 	svccs	0x006a4b4b
     d48:	01040200 	mrseq	r0, R12_usr
     d4c:	00828206 	addeq	r8, r2, r6, lsl #4
     d50:	9e040402 	cdpls	4, 0, cr0, cr4, cr2, {0}
     d54:	01040200 	mrseq	r0, R12_usr
     d58:	2308064a 	movwcs	r0, #34378	; 0x864a
     d5c:	4b2ff588 	blmi	bfe384 <__bss_end__+0xbf437c>
     d60:	6740084b 	strbvs	r0, [r0, -fp, asr #16]
     d64:	02040200 	andeq	r0, r4, #0, 4
     d68:	0402002f 	streq	r0, [r2], #-47	; 0x2f
     d6c:	02004902 	andeq	r4, r0, #32768	; 0x8000
     d70:	2e060104 	adfcss	f0, f6, f4
     d74:	86346806 	ldrthi	r6, [r4], -r6, lsl #16
     d78:	0200a04b 	andeq	sl, r0, #75	; 0x4b
     d7c:	66060104 	strvs	r0, [r6], -r4, lsl #2
     d80:	68210806 	stmdavs	r1!, {r1, r2, fp}
     d84:	674b3e08 	strbvs	r3, [fp, -r8, lsl #28]
     d88:	0a02d84b 	beq	b6ebc <__bss_end__+0xaceb4>
     d8c:	01010100 	mrseq	r0, (UNDEF: 17)
     d90:	02000001 	andeq	r0, r0, #1
     d94:	0000ca00 	andeq	ip, r0, r0, lsl #20
     d98:	fb010200 	blx	415a2 <__bss_end__+0x3759a>
     d9c:	01000d0e 	tsteq	r0, lr, lsl #26
     da0:	00010101 	andeq	r0, r1, r1, lsl #2
     da4:	00010000 	andeq	r0, r1, r0
     da8:	796d0100 	stmdbvc	sp!, {r8}^
     dac:	6372732d 	cmnvs	r2, #-1275068416	; 0xb4000000
     db0:	73552f00 	cmpvc	r5, #0, 30
     db4:	2f737265 	svccs	0x00737265
     db8:	61697262 	cmnvs	r9, r2, ror #4
     dbc:	6e756a6e 	vsubvs.f32	s13, s10, s29
     dc0:	7365442f 	cmnvc	r5, #788529152	; 0x2f000000
     dc4:	706f746b 	rsbvc	r7, pc, fp, ror #8
     dc8:	6863732f 	stmdavs	r3!, {r0, r1, r2, r3, r5, r8, r9, ip, sp, lr}^
     dcc:	2f6c6f6f 	svccs	0x006c6f6f
     dd0:	746e6957 	strbtvc	r6, [lr], #-2391	; 0x957
     dd4:	39317265 	ldmdbcc	r1!, {r0, r2, r5, r6, r9, ip, sp, lr}
     dd8:	432f3032 	teqmi	pc, #50	; 0x32
     ddc:	30343153 	eorscc	r3, r4, r3, asr r1
     de0:	73632f45 	cmnvc	r3, #276	; 0x114
     de4:	65303431 	ldrvs	r3, [r0, #-1073]!	; 0x431
     de8:	7730322d 	ldrvc	r3, [r0, -sp, lsr #4]!
     dec:	6c2f6e69 	stcvs	14, cr6, [pc], #-420	; c50 <_start-0x73b0>
     df0:	69706269 	ldmdbvs	r0!, {r0, r3, r5, r6, r9, sp, lr}^
     df4:	3173632f 	cmncc	r3, pc, lsr #6
     df8:	2d653034 	stclcs	0, cr3, [r5, #-208]!	; 0xffffff30
     dfc:	00637273 	rsbeq	r7, r3, r3, ror r2
     e00:	6573552f 	ldrbvs	r5, [r3, #-1327]!	; 0x52f
     e04:	622f7372 	eorvs	r7, pc, #-939524095	; 0xc8000001
     e08:	6e616972 	mcrvs	9, 3, r6, cr1, cr2, {3}
     e0c:	2f6e756a 	svccs	0x006e756a
     e10:	6b736544 	blvs	1cda328 <__bss_end__+0x1cd0320>
     e14:	2f706f74 	svccs	0x00706f74
     e18:	6f686373 	svcvs	0x00686373
     e1c:	572f6c6f 	strpl	r6, [pc, -pc, ror #24]!
     e20:	65746e69 	ldrbvs	r6, [r4, #-3689]!	; 0xe69
     e24:	32393172 	eorscc	r3, r9, #-2147483620	; 0x8000001c
     e28:	53432f30 	movtpl	r2, #16176	; 0x3f30
     e2c:	45303431 	ldrmi	r3, [r0, #-1073]!	; 0x431
     e30:	3173632f 	cmncc	r3, pc, lsr #6
     e34:	2d653034 	stclcs	0, cr3, [r5, #-208]!	; 0xffffff30
     e38:	69773032 	ldmdbvs	r7!, {r1, r4, r5, ip, sp}^
     e3c:	696c2f6e 	stmdbvs	ip!, {r1, r2, r3, r5, r6, r8, r9, sl, fp, sp}^
     e40:	00697062 	rsbeq	r7, r9, r2, rrx
     e44:	72617500 	rsbvc	r7, r1, #0, 10
     e48:	00632e74 	rsbeq	r2, r3, r4, ror lr
     e4c:	67000001 	strvs	r0, [r0, -r1]
     e50:	2e6f6970 	mcrcs	9, 3, r6, cr15, cr0, {3}
     e54:	00020068 	andeq	r0, r2, r8, rrx
     e58:	69707200 	ldmdbvs	r0!, {r9, ip, sp, lr}^
     e5c:	0300682e 	movweq	r6, #2094	; 0x82e
     e60:	00000000 	andeq	r0, r0, r0
     e64:	95c00205 	strbls	r0, [r0, #517]	; 0x205
     e68:	36030000 	strcc	r0, [r3], -r0
     e6c:	67333001 	ldrvs	r3, [r3, -r1]!
     e70:	30d8306d 	sbcscc	r3, r8, sp, rrx
     e74:	67676767 	strbvs	r6, [r7, -r7, ror #14]!
     e78:	2f866867 	svccs	0x00866867
     e7c:	67306a67 	ldrvs	r6, [r0, -r7, ror #20]!
     e80:	672f6967 	strvs	r6, [pc, -r7, ror #18]!
     e84:	c1674c6a 	cmngt	r7, sl, ror #24
     e88:	2f302f2f 	svccs	0x00302f2f
     e8c:	02304968 	eorseq	r4, r0, #104, 18	; 0x1a0000
     e90:	01010002 	tsteq	r1, r2
     e94:	00000128 	andeq	r0, r0, r8, lsr #2
     e98:	010d0002 	tsteq	sp, r2
     e9c:	01020000 	mrseq	r0, (UNDEF: 2)
     ea0:	000d0efb 	strdeq	r0, [sp], -fp
     ea4:	01010101 	tsteq	r1, r1, lsl #2
     ea8:	01000000 	mrseq	r0, (UNDEF: 0)
     eac:	63010000 	movwvs	r0, #4096	; 0x1000
     eb0:	30343173 	eorscc	r3, r4, r3, ror r1
     eb4:	72732d65 	rsbsvc	r2, r3, #6464	; 0x1940
     eb8:	752f0063 	strvc	r0, [pc, #-99]!	; e5d <_start-0x71a3>
     ebc:	6c2f7273 	sfmvs	f7, 4, [pc], #-460	; cf8 <_start-0x7308>
     ec0:	6c61636f 	stclvs	3, cr6, [r1], #-444	; 0xfffffe44
     ec4:	6c65432f 	stclvs	3, cr4, [r5], #-188	; 0xffffff44
     ec8:	2f72616c 	svccs	0x0072616c
     ecc:	2d6d7261 	sfmcs	f7, 2, [sp, #-388]!	; 0xfffffe7c
     ed0:	656e6f6e 	strbvs	r6, [lr, #-3950]!	; 0xf6e
     ed4:	6261652d 	rsbvs	r6, r1, #188743680	; 0xb400000
     ed8:	2e342f69 	cdpcs	15, 3, cr2, cr4, cr9, {3}
     edc:	2d332e38 	ldccs	14, cr2, [r3, #-224]!	; 0xffffff20
     ee0:	37317363 	ldrcc	r7, [r1, -r3, ror #6]!
     ee4:	6c2f6530 	cfstr32vs	mvfx6, [pc], #-192	; e2c <_start-0x71d4>
     ee8:	672f6269 	strvs	r6, [pc, -r9, ror #4]!
     eec:	612f6363 	teqvs	pc, r3, ror #6
     ef0:	6e2d6d72 	mcrvs	13, 1, r6, cr13, cr2, {3}
     ef4:	2d656e6f 	stclcs	14, cr6, [r5, #-444]!	; 0xfffffe44
     ef8:	69626165 	stmdbvs	r2!, {r0, r2, r5, r6, r8, sp, lr}^
     efc:	382e342f 	stmdacc	lr!, {r0, r1, r2, r3, r5, sl, ip, sp}
     f00:	692f332e 	stmdbvs	pc!, {r1, r2, r3, r5, r8, r9, ip, sp}	; <UNPREDICTABLE>
     f04:	756c636e 	strbvc	r6, [ip, #-878]!	; 0x36e
     f08:	2f006564 	svccs	0x00006564
     f0c:	2f727375 	svccs	0x00727375
     f10:	61636f6c 	cmnvs	r3, ip, ror #30
     f14:	65432f6c 	strbvs	r2, [r3, #-3948]	; 0xf6c
     f18:	72616c6c 	rsbvc	r6, r1, #108, 24	; 0x6c00
     f1c:	6d72612f 	ldfvse	f6, [r2, #-188]!	; 0xffffff44
     f20:	6e6f6e2d 	cdpvs	14, 6, cr6, cr15, cr13, {1}
     f24:	61652d65 	cmnvs	r5, r5, ror #26
     f28:	342f6962 	strtcc	r6, [pc], #-2402	; f30 <_start-0x70d0>
     f2c:	332e382e 	teqcc	lr, #3014656	; 0x2e0000
     f30:	3173632d 	cmncc	r3, sp, lsr #6
     f34:	2f653037 	svccs	0x00653037
     f38:	2d6d7261 	sfmcs	f7, 2, [sp, #-388]!	; 0xfffffe7c
     f3c:	656e6f6e 	strbvs	r6, [lr, #-3950]!	; 0xf6e
     f40:	6261652d 	rsbvs	r6, r1, #188743680	; 0xb400000
     f44:	6e692f69 	cdpvs	15, 6, cr2, cr9, cr9, {3}
     f48:	64756c63 	ldrbtvs	r6, [r5], #-3171	; 0xc63
     f4c:	63000065 	movwvs	r0, #101	; 0x65
     f50:	72746e6f 	rsbsvc	r6, r4, #1776	; 0x6f0
     f54:	622d6c6f 	eorvs	r6, sp, #28416	; 0x6f00
     f58:	6b636f6c 	blvs	18dcd10 <__bss_end__+0x18d2d08>
     f5c:	0100632e 	tsteq	r0, lr, lsr #6
     f60:	74730000 	ldrbtvc	r0, [r3], #-0
     f64:	66656464 	strbtvs	r6, [r5], -r4, ror #8
     f68:	0200682e 	andeq	r6, r0, #3014656	; 0x2e0000
     f6c:	74730000 	ldrbtvc	r0, [r3], #-0
     f70:	746e6964 	strbtvc	r6, [lr], #-2404	; 0x964
     f74:	6363672d 	cmnvs	r3, #11796480	; 0xb40000
     f78:	0200682e 	andeq	r6, r0, #3014656	; 0x2e0000
     f7c:	77730000 	ldrbvc	r0, [r3, -r0]!
     f80:	7261752d 	rsbvc	r7, r1, #188743680	; 0xb400000
     f84:	00682e74 	rsbeq	r2, r8, r4, ror lr
     f88:	63000001 	movwvs	r0, #1
     f8c:	72746e6f 	rsbsvc	r6, r4, #1776	; 0x6f0
     f90:	622d6c6f 	eorvs	r6, sp, #28416	; 0x6f00
     f94:	6b636f6c 	blvs	18dcd4c <__bss_end__+0x18d2d44>
     f98:	0100682e 	tsteq	r0, lr, lsr #16
     f9c:	74730000 	ldrbtvc	r0, [r3], #-0
     fa0:	676e6972 			; <UNDEFINED> instruction: 0x676e6972
     fa4:	0300682e 	movweq	r6, #2094	; 0x82e
     fa8:	00000000 	andeq	r0, r0, r0
     fac:	97780205 	ldrbls	r0, [r8, -r5, lsl #4]!
     fb0:	30160000 	andscc	r0, r6, r0
     fb4:	144c6883 	strbne	r6, [ip], #-2179	; 0x883
     fb8:	022f4b9f 	eoreq	r4, pc, #162816	; 0x27c00
     fbc:	01010004 	tsteq	r1, r4
     fc0:	000000ec 	andeq	r0, r0, ip, ror #1
     fc4:	00d00002 	sbcseq	r0, r0, r2
     fc8:	01020000 	mrseq	r0, (UNDEF: 2)
     fcc:	000d0efb 	strdeq	r0, [sp], -fp
     fd0:	01010101 	tsteq	r1, r1, lsl #2
     fd4:	01000000 	mrseq	r0, (UNDEF: 0)
     fd8:	6c010000 	stcvs	0, cr0, [r1], {-0}
     fdc:	00636269 	rsbeq	r6, r3, r9, ror #4
     fe0:	7273752f 	rsbsvc	r7, r3, #197132288	; 0xbc00000
     fe4:	636f6c2f 	cmnvs	pc, #12032	; 0x2f00
     fe8:	432f6c61 	teqmi	pc, #24832	; 0x6100
     fec:	616c6c65 	cmnvs	ip, r5, ror #24
     ff0:	72612f72 	rsbvc	r2, r1, #456	; 0x1c8
     ff4:	6f6e2d6d 	svcvs	0x006e2d6d
     ff8:	652d656e 	strvs	r6, [sp, #-1390]!	; 0x56e
     ffc:	2f696261 	svccs	0x00696261
    1000:	2e382e34 	mrccs	14, 1, r2, cr8, cr4, {1}
    1004:	73632d33 	cmnvc	r3, #3264	; 0xcc0
    1008:	65303731 	ldrvs	r3, [r0, #-1841]!	; 0x731
    100c:	62696c2f 	rsbvs	r6, r9, #12032	; 0x2f00
    1010:	6363672f 	cmnvs	r3, #12320768	; 0xbc0000
    1014:	6d72612f 	ldfvse	f6, [r2, #-188]!	; 0xffffff44
    1018:	6e6f6e2d 	cdpvs	14, 6, cr6, cr15, cr13, {1}
    101c:	61652d65 	cmnvs	r5, r5, ror #26
    1020:	342f6962 	strtcc	r6, [pc], #-2402	; 1028 <_start-0x6fd8>
    1024:	332e382e 	teqcc	lr, #3014656	; 0x2e0000
    1028:	636e692f 	cmnvs	lr, #770048	; 0xbc000
    102c:	6564756c 	strbvs	r7, [r4, #-1388]!	; 0x56c
    1030:	73752f00 	cmnvc	r5, #0, 30
    1034:	6f6c2f72 	svcvs	0x006c2f72
    1038:	2f6c6163 	svccs	0x006c6163
    103c:	6c6c6543 	cfstr64vs	mvdx6, [ip], #-268	; 0xfffffef4
    1040:	612f7261 	teqvs	pc, r1, ror #4
    1044:	6e2d6d72 	mcrvs	13, 1, r6, cr13, cr2, {3}
    1048:	2d656e6f 	stclcs	14, cr6, [r5, #-444]!	; 0xfffffe44
    104c:	69626165 	stmdbvs	r2!, {r0, r2, r5, r6, r8, sp, lr}^
    1050:	382e342f 	stmdacc	lr!, {r0, r1, r2, r3, r5, sl, ip, sp}
    1054:	632d332e 	teqvs	sp, #-1207959552	; 0xb8000000
    1058:	30373173 	eorscc	r3, r7, r3, ror r1
    105c:	72612f65 	rsbvc	r2, r1, #404	; 0x194
    1060:	6f6e2d6d 	svcvs	0x006e2d6d
    1064:	652d656e 	strvs	r6, [sp, #-1390]!	; 0x56e
    1068:	2f696261 	svccs	0x00696261
    106c:	6c636e69 	stclvs	14, cr6, [r3], #-420	; 0xfffffe5c
    1070:	00656475 	rsbeq	r6, r5, r5, ror r4
    1074:	6d656d00 	stclvs	13, cr6, [r5, #-0]
    1078:	2e746573 	mrccs	5, 3, r6, cr4, cr3, {3}
    107c:	00010063 	andeq	r0, r1, r3, rrx
    1080:	64747300 	ldrbtvs	r7, [r4], #-768	; 0x300
    1084:	2e666564 	cdpcs	5, 6, cr6, cr6, cr4, {3}
    1088:	00020068 	andeq	r0, r2, r8, rrx
    108c:	72747300 	rsbsvc	r7, r4, #0, 6
    1090:	2e676e69 	cdpcs	14, 6, cr6, cr7, cr9, {3}
    1094:	00030068 	andeq	r0, r3, r8, rrx
    1098:	05000000 	streq	r0, [r0, #-0]
    109c:	0097c802 	addseq	ip, r7, r2, lsl #16
    10a0:	4c131400 	cfldrsmi	mvf1, [r3], {-0}
    10a4:	0402002f 	streq	r0, [r2], #-47	; 0x2f
    10a8:	024d4901 	subeq	r4, sp, #16384	; 0x4000
    10ac:	01010002 	tsteq	r1, r2

Disassembly of section .debug_str:

00000000 <.debug_str>:
   0:	676e6f6c 	strbvs	r6, [lr, -ip, ror #30]!
   4:	6e6f6c20 	cdpvs	12, 6, cr6, cr15, cr0, {1}
   8:	6e692067 	cdpvs	0, 6, cr2, cr9, cr7, {3}
   c:	70670074 	rsbvc	r0, r7, r4, ror r0
  10:	735f6f69 	cmpvc	pc, #420	; 0x1a4
  14:	695f7465 	ldmdbvs	pc, {r0, r2, r5, r6, sl, ip, sp, lr}^	; <UNPREDICTABLE>
  18:	7475706e 	ldrbtvc	r7, [r5], #-110	; 0x6e
  1c:	69706700 	ldmdbvs	r0!, {r8, r9, sl, sp, lr}^
  20:	65735f6f 	ldrbvs	r5, [r3, #-3951]!	; 0xf6f
  24:	75705f74 	ldrbvc	r5, [r0, #-3956]!	; 0xf74
  28:	70756c6c 	rsbsvc	r6, r5, ip, ror #24
  2c:	2e6e6f00 	cdpcs	15, 6, cr6, cr14, cr0, {0}
  30:	6f6c0063 	svcvs	0x006c0063
  34:	6c20676e 	stcvs	7, cr6, [r0], #-440	; 0xfffffe48
  38:	20676e6f 	rsbcs	r6, r7, pc, ror #28
  3c:	69736e75 	ldmdbvs	r3!, {r0, r2, r4, r5, r6, r9, sl, fp, sp, lr}^
  40:	64656e67 	strbtvs	r6, [r5], #-3687	; 0xe67
  44:	746e6920 	strbtvc	r6, [lr], #-2336	; 0x920
  48:	736e7500 	cmnvc	lr, #0, 10
  4c:	656e6769 	strbvs	r6, [lr, #-1897]!	; 0x769
  50:	68632064 	stmdavs	r3!, {r2, r5, r6, sp}^
  54:	75007261 	strvc	r7, [r0, #-609]	; 0x261
  58:	5f747261 	svcpl	0x00747261
  5c:	74696e69 	strbtvc	r6, [r9], #-3689	; 0xe69
  60:	656c6300 	strbvs	r6, [ip, #-768]!	; 0x300
  64:	725f6e61 	subsvc	r6, pc, #1552	; 0x610
  68:	6f6f6265 	svcvs	0x006f6265
  6c:	6f6e0074 	svcvs	0x006e0074
  70:	69616d74 	stmdbvs	r1!, {r2, r4, r5, r6, r8, sl, fp, sp, lr}^
  74:	7067006e 	rsbvc	r0, r7, lr, rrx
  78:	735f6f69 	cmpvc	pc, #420	; 0x1a4
  7c:	705f7465 	subsvc	r7, pc, r5, ror #8
  80:	646c6c75 	strbtvs	r6, [ip], #-3189	; 0xc75
  84:	006e776f 	rsbeq	r7, lr, pc, ror #14
  88:	6573552f 	ldrbvs	r5, [r3, #-1327]!	; 0x52f
  8c:	622f7372 	eorvs	r7, pc, #-939524095	; 0xc8000001
  90:	6e616972 	mcrvs	9, 3, r6, cr1, cr2, {3}
  94:	2f6e756a 	svccs	0x006e756a
  98:	6b736544 	blvs	1cd95b0 <__bss_end__+0x1ccf5a8>
  9c:	2f706f74 	svccs	0x00706f74
  a0:	6f686373 	svcvs	0x00686373
  a4:	532f6c6f 	teqpl	pc, #28416	; 0x6f00
  a8:	6e697270 	mcrvs	2, 3, r7, cr9, cr0, {3}
  ac:	32393167 	eorscc	r3, r9, #-1073741799	; 0xc0000019
  b0:	53432f30 	movtpl	r2, #16176	; 0x3f30
  b4:	4c303432 	cfldrsmi	mvf3, [r0], #-200	; 0xffffff38
  b8:	73632f58 	cmnvc	r3, #88, 30	; 0x160
  bc:	6c303432 	cfldrsvs	mvf3, [r0], #-200	; 0xffffff38
  c0:	30322d78 	eorscc	r2, r2, r8, ror sp
  c4:	2f727073 	svccs	0x00727073
  c8:	7362616c 	cmnvc	r2, #108, 2
  cc:	642d362f 	strtvs	r3, [sp], #-1583	; 0x62f
  d0:	74696769 	strbtvc	r6, [r9], #-1897	; 0x769
  d4:	302f6c61 	eorcc	r6, pc, r1, ror #24
  d8:	6c75702d 	ldclvs	0, cr7, [r5], #-180	; 0xffffff4c
  dc:	2f70756c 	svccs	0x0070756c
  e0:	65646f63 	strbvs	r6, [r4, #-3939]!	; 0xf63
  e4:	6f687300 	svcvs	0x00687300
  e8:	75207472 	strvc	r7, [r0, #-1138]!	; 0x472
  ec:	6769736e 	strbvs	r7, [r9, -lr, ror #6]!
  f0:	2064656e 	rsbcs	r6, r4, lr, ror #10
  f4:	00746e69 	rsbseq	r6, r4, r9, ror #28
  f8:	726f6873 	rsbvc	r6, pc, #7536640	; 0x730000
  fc:	6e692074 	mcrvs	0, 3, r2, cr9, cr4, {3}
 100:	4e470074 	mcrmi	0, 2, r0, cr7, cr4, {3}
 104:	20432055 	subcs	r2, r3, r5, asr r0
 108:	2e382e34 	mrccs	14, 1, r2, cr8, cr4, {1}
 10c:	6d2d2033 	stcvs	0, cr2, [sp, #-204]!	; 0xffffff34
 110:	3d757063 	ldclcc	0, cr7, [r5, #-396]!	; 0xfffffe74
 114:	316d7261 	cmncc	sp, r1, ror #4
 118:	6a363731 	bvs	d8dde4 <__bss_end__+0xd83ddc>
 11c:	732d667a 	teqvc	sp, #127926272	; 0x7a00000
 120:	746d2d20 	strbtvc	r2, [sp], #-3360	; 0xd20
 124:	3d656e75 	stclcc	14, cr6, [r5, #-468]!	; 0xfffffe2c
 128:	316d7261 	cmncc	sp, r1, ror #4
 12c:	6a363731 	bvs	d8ddf8 <__bss_end__+0xd83df0>
 130:	732d667a 	teqvc	sp, #127926272	; 0x7a00000
 134:	67672d20 	strbvs	r2, [r7, -r0, lsr #26]!
 138:	2d206264 	sfmcs	f6, 4, [r0, #-400]!	; 0xfffffe70
 13c:	2d20674f 	stccs	7, cr6, [r0, #-316]!	; 0xfffffec4
 140:	3d647473 	cfstrdcc	mvd7, [r4, #-460]!	; 0xfffffe34
 144:	39756e67 	ldmdbcc	r5!, {r0, r1, r2, r5, r6, r9, sl, fp, sp, lr}^
 148:	662d2039 			; <UNDEFINED> instruction: 0x662d2039
 14c:	65657266 	strbvs	r7, [r5, #-614]!	; 0x266
 150:	6e617473 	mcrvs	4, 3, r7, cr1, cr3, {3}
 154:	676e6964 	strbvs	r6, [lr, -r4, ror #18]!
 158:	61662d20 	cmnvs	r6, r0, lsr #26
 15c:	6e67696c 	cdpvs	9, 6, cr6, cr7, cr12, {3}
 160:	6e75662d 	cdpvs	6, 7, cr6, cr5, cr13, {1}
 164:	6f697463 	svcvs	0x00697463
 168:	343d736e 	ldrtcc	r7, [sp], #-878	; 0x36e
 16c:	7a697300 	bvc	1a5cd74 <__bss_end__+0x1a52d6c>
 170:	70797465 	rsbsvc	r7, r9, r5, ror #8
 174:	75700065 	ldrbvc	r0, [r0, #-101]!	; 0x65
 178:	6c635f64 	stclvs	15, cr5, [r3], #-400	; 0xfffffe70
 17c:	65725f6b 	ldrbvs	r5, [r2, #-3947]!	; 0xf6b
 180:	50470067 	subpl	r0, r7, r7, rrx
 184:	43445550 	movtmi	r5, #17744	; 0x4550
 188:	00304b4c 	eorseq	r4, r0, ip, asr #22
 18c:	55505047 	ldrbpl	r5, [r0, #-71]	; 0x47
 190:	4b4c4344 	blmi	1310ea8 <__bss_end__+0x1306ea0>
 194:	50470031 	subpl	r0, r7, r1, lsr r0
 198:	00445550 	subeq	r5, r4, r0, asr r5
 19c:	33747570 	cmncc	r4, #112, 10	; 0x1c000000
 1a0:	75700032 	ldrbvc	r0, [r0, #-50]!	; 0x32
 1a4:	666f5f64 	strbtvs	r5, [pc], -r4, ror #30
 1a8:	74657366 	strbtvc	r7, [r5], #-870	; 0x366
 1ac:	465f5f00 	ldrbmi	r5, [pc], -r0, lsl #30
 1b0:	54434e55 	strbpl	r4, [r3], #-3669	; 0xe55
 1b4:	5f4e4f49 	svcpl	0x004e4f49
 1b8:	7067005f 	rsbvc	r0, r7, pc, asr r0
 1bc:	702d6f69 	eorvc	r6, sp, r9, ror #30
 1c0:	632e6475 	teqvs	lr, #1962934272	; 0x75000000
 1c4:	756f5f00 	strbvc	r5, [pc, #-3840]!	; fffff2cc <__bss_end__+0xffff52c4>
 1c8:	70670074 	rsbvc	r0, r7, r4, ror r0
 1cc:	705f6f69 	subsvc	r6, pc, r9, ror #30
 1d0:	6f5f6475 	svcvs	0x005f6475
 1d4:	72006666 	andvc	r6, r0, #106954752	; 0x6600000
 1d8:	725f6970 	subsvc	r6, pc, #112, 18	; 0x1c0000
 1dc:	74657365 	strbtvc	r7, [r5], #-869	; 0x365
 1e0:	7475705f 	ldrbtvc	r7, [r5], #-95	; 0x5f
 1e4:	5f5f0063 	svcpl	0x005f0063
 1e8:	63756e67 	cmnvs	r5, #1648	; 0x670
 1ec:	5f61765f 	svcpl	0x0061765f
 1f0:	7473696c 	ldrbtvc	r6, [r3], #-2412	; 0x96c
 1f4:	62696c00 	rsbvs	r6, r9, #0, 24
 1f8:	72702f63 	rsbsvc	r2, r0, #396	; 0x18c
 1fc:	6b746e69 	blvs	1d1bba8 <__bss_end__+0x1d11ba0>
 200:	4700632e 	strmi	r6, [r0, -lr, lsr #6]
 204:	4320554e 	teqmi	r0, #327155712	; 0x13800000
 208:	382e3420 	stmdacc	lr!, {r5, sl, ip, sp}
 20c:	2d20332e 	stccs	3, cr3, [r0, #-184]!	; 0xffffff48
 210:	7570636d 	ldrbvc	r6, [r0, #-877]!	; 0x36d
 214:	6d72613d 	ldfvse	f6, [r2, #-244]!	; 0xffffff0c
 218:	36373131 			; <UNDEFINED> instruction: 0x36373131
 21c:	2d667a6a 	vstmdbcs	r6!, {s15-s120}
 220:	6d2d2073 	stcvs	0, cr2, [sp, #-460]!	; 0xfffffe34
 224:	656e7574 	strbvs	r7, [lr, #-1396]!	; 0x574
 228:	6d72613d 	ldfvse	f6, [r2, #-244]!	; 0xffffff0c
 22c:	36373131 			; <UNDEFINED> instruction: 0x36373131
 230:	2d667a6a 	vstmdbcs	r6!, {s15-s120}
 234:	672d2073 			; <UNDEFINED> instruction: 0x672d2073
 238:	20626467 	rsbcs	r6, r2, r7, ror #8
 23c:	20674f2d 	rsbcs	r4, r7, sp, lsr #30
 240:	6474732d 	ldrbtvs	r7, [r4], #-813	; 0x32d
 244:	756e673d 	strbvc	r6, [lr, #-1853]!	; 0x73d
 248:	2d203939 	stccs	9, cr3, [r0, #-228]!	; 0xffffff1c
 24c:	65726666 	ldrbvs	r6, [r2, #-1638]!	; 0x666
 250:	61747365 	cmnvs	r4, r5, ror #6
 254:	6e69646e 	cdpvs	4, 6, cr6, cr9, cr14, {3}
 258:	61760067 	cmnvs	r6, r7, rrx
 25c:	6972705f 	ldmdbvs	r2!, {r0, r1, r2, r3, r4, r6, ip, sp, lr}^
 260:	006b746e 	rsbeq	r7, fp, lr, ror #8
 264:	61765f5f 	cmnvs	r6, pc, asr pc
 268:	73696c5f 	cmnvc	r9, #24320	; 0x5f00
 26c:	552f0074 	strpl	r0, [pc, #-116]!	; 200 <_start-0x7e00>
 270:	73726573 	cmnvc	r2, #482344960	; 0x1cc00000
 274:	6972622f 	ldmdbvs	r2!, {r0, r1, r2, r3, r5, r9, sp, lr}^
 278:	756a6e61 	strbvc	r6, [sl, #-3681]!	; 0xe61
 27c:	65442f6e 	strbvs	r2, [r4, #-3950]	; 0xf6e
 280:	6f746b73 	svcvs	0x00746b73
 284:	63732f70 	cmnvs	r3, #112, 30	; 0x1c0
 288:	6c6f6f68 	stclvs	15, cr6, [pc], #-416	; f0 <_start-0x7f10>
 28c:	6e69572f 	cdpvs	7, 6, cr5, cr9, cr15, {1}
 290:	31726574 	cmncc	r2, r4, ror r5
 294:	2f303239 	svccs	0x00303239
 298:	34315343 	ldrtcc	r5, [r1], #-835	; 0x343
 29c:	632f4530 	teqvs	pc, #48, 10	; 0xc000000
 2a0:	30343173 	eorscc	r3, r4, r3, ror r1
 2a4:	30322d65 	eorscc	r2, r2, r5, ror #26
 2a8:	2f6e6977 	svccs	0x006e6977
 2ac:	7062696c 	rsbvc	r6, r2, ip, ror #18
 2b0:	72610069 	rsbvc	r0, r1, #105	; 0x69
 2b4:	5f007367 	svcpl	0x00007367
 2b8:	0070615f 	rsbseq	r6, r0, pc, asr r1
 2bc:	65746e69 	ldrbvs	r6, [r4, #-3689]!	; 0xe69
 2c0:	6c616e72 	stclvs	14, cr6, [r1], #-456	; 0xfffffe38
 2c4:	7475705f 	ldrbtvc	r7, [r5], #-95	; 0x5f
 2c8:	72616863 	rsbvc	r6, r1, #6488064	; 0x630000
 2cc:	69707200 	ldmdbvs	r0!, {r9, ip, sp, lr}^
 2d0:	7475705f 	ldrbtvc	r7, [r5], #-95	; 0x5f
 2d4:	72616863 	rsbvc	r6, r1, #6488064	; 0x630000
 2d8:	62696c00 	rsbvs	r6, r9, #0, 24
 2dc:	75702f63 	ldrbvc	r2, [r0, #-3939]!	; 0xf63
 2e0:	61686374 	smcvs	34356	; 0x8634
 2e4:	00632e72 	rsbeq	r2, r3, r2, ror lr
 2e8:	5f697072 	svcpl	0x00697072
 2ec:	5f746573 	svcpl	0x00746573
 2f0:	63747570 	cmnvs	r4, #112, 10	; 0x1c000000
 2f4:	62696c00 	rsbvs	r6, r9, #0, 24
 2f8:	75702f63 	ldrbvc	r2, [r0, #-3939]!	; 0xf63
 2fc:	632e6b74 	teqvs	lr, #116, 22	; 0x1d000
 300:	746e6900 	strbtvc	r6, [lr], #-2304	; 0x900
 304:	616e7265 	cmnvs	lr, r5, ror #4
 308:	75705f6c 	ldrbvc	r5, [r0, #-3948]!	; 0xf6c
 30c:	6e006b74 	vmovvs.16	d0[1], r6
 310:	705f6765 	subsvc	r6, pc, r5, ror #14
 314:	76657200 	strbtvc	r7, [r5], -r0, lsl #4
 318:	65737265 	ldrbvs	r7, [r3, #-613]!	; 0x265
 31c:	64736900 	ldrbtvs	r6, [r3], #-2304	; 0x900
 320:	74696769 	strbtvc	r6, [r9], #-1897	; 0x769
 324:	74757000 	ldrbtvc	r7, [r5], #-0
 328:	70665f73 	rsbvc	r5, r6, r3, ror pc
 32c:	73616200 	cmnvc	r1, #0, 4
 330:	69730065 	ldmdbvs	r3!, {r0, r2, r5, r6}^
 334:	64656e67 	strbtvs	r6, [r5], #-3687	; 0xe67
 338:	6c00705f 	stcvs	0, cr7, [r0], {95}	; 0x5f
 33c:	2f636269 	svccs	0x00636269
 340:	702d6176 	eorvc	r6, sp, r6, ror r1
 344:	746e6972 	strbtvc	r6, [lr], #-2418	; 0x972
 348:	00632e6b 	rsbeq	r2, r3, fp, ror #28
 34c:	5f697072 	svcpl	0x00697072
 350:	5f746573 	svcpl	0x00746573
 354:	7074756f 	rsbsvc	r7, r4, pc, ror #10
 358:	77007475 	smlsdxvc	r0, r5, r4, r7
 35c:	68746469 	ldmdavs	r4!, {r0, r3, r5, r6, sl, sp, lr}^
 360:	74757000 	ldrbtvc	r7, [r5], #-0
 364:	70665f63 	rsbvc	r5, r6, r3, ror #30
 368:	696d6500 	stmdbvs	sp!, {r8, sl, sp, lr}^
 36c:	70720074 	rsbsvc	r0, r2, r4, ror r0
 370:	65725f69 	ldrbvs	r5, [r2, #-3945]!	; 0xf69
 374:	746f6f62 	strbtvc	r6, [pc], #-3938	; 37c <_start-0x7c84>
 378:	31736300 	cmncc	r3, r0, lsl #6
 37c:	2d653034 	stclcs	0, cr3, [r5, #-208]!	; 0xffffff30
 380:	2f637273 	svccs	0x00637273
 384:	61656c63 	cmnvs	r5, r3, ror #24
 388:	65722d6e 	ldrbvs	r2, [r2, #-3438]!	; 0xd6e
 38c:	746f6f62 	strbtvc	r6, [pc], #-3938	; 394 <_start-0x7c6c>
 390:	6400632e 	strvs	r6, [r0], #-814	; 0x32e
 394:	79616c65 	stmdbvc	r1!, {r0, r2, r5, r6, sl, fp, sp, lr}^
 398:	00736d5f 	rsbseq	r6, r3, pc, asr sp
 39c:	65746e69 	ldrbvs	r6, [r4, #-3689]!	; 0xe69
 3a0:	6c616e72 	stclvs	14, cr6, [r1], #-456	; 0xfffffe38
 3a4:	5f77735f 	svcpl	0x0077735f
 3a8:	63747570 	cmnvs	r4, #112, 10	; 0x1c000000
 3ac:	00726168 	rsbseq	r6, r2, r8, ror #2
 3b0:	73625f5f 	cmnvc	r2, #380	; 0x17c
 3b4:	74735f73 	ldrbtvc	r5, [r3], #-3955	; 0xf73
 3b8:	5f747261 	svcpl	0x00747261
 3bc:	7362005f 	cmnvc	r2, #95	; 0x5f
 3c0:	6e655f73 	mcrvs	15, 3, r5, cr5, cr3, {3}
 3c4:	79630064 	stmdbvc	r3!, {r2, r5, r6}^
 3c8:	5f656c63 	svcpl	0x00656c63
 3cc:	5f726570 	svcpl	0x00726570
 3d0:	00746962 	rsbseq	r6, r4, r2, ror #18
 3d4:	736e6f63 	cmnvc	lr, #396	; 0x18c
 3d8:	5f656c6f 	svcpl	0x00656c6f
 3dc:	74726175 	ldrbtvc	r6, [r2], #-373	; 0x175
 3e0:	5f777300 	svcpl	0x00777300
 3e4:	74726175 	ldrbtvc	r6, [r2], #-373	; 0x175
 3e8:	6972705f 	ldmdbvs	r2!, {r0, r1, r2, r3, r4, r6, ip, sp, lr}^
 3ec:	006b746e 	rsbeq	r7, fp, lr, ror #8
 3f0:	43545550 	cmpmi	r4, #80, 10	; 0x14000000
 3f4:	5053455f 	subspl	r4, r3, pc, asr r5
 3f8:	5241555f 	subpl	r5, r1, #398458880	; 0x17c00000
 3fc:	77730054 			; <UNDEFINED> instruction: 0x77730054
 400:	7261755f 	rsbvc	r7, r1, #398458880	; 0x17c00000
 404:	00745f74 	rsbseq	r5, r4, r4, ror pc
 408:	43545550 	cmpmi	r4, #80, 10	; 0x14000000
 40c:	5f57535f 	svcpl	0x0057535f
 410:	54524155 	ldrbpl	r4, [r2], #-341	; 0x155
 414:	75616200 	strbvc	r6, [r1, #-512]!	; 0x200
 418:	55500064 	ldrbpl	r0, [r0, #-100]	; 0x64
 41c:	485f4354 	ldmdami	pc, {r2, r4, r6, r8, r9, lr}^	; <UNPREDICTABLE>
 420:	41555f57 	cmpmi	r5, r7, asr pc
 424:	5f005452 	svcpl	0x00005452
 428:	61747363 	cmnvs	r4, r3, ror #6
 42c:	75007472 	strvc	r7, [r0, #-1138]	; 0x472
 430:	5f747261 	svcpl	0x00747261
 434:	5f766564 	svcpl	0x00766564
 438:	77730074 			; <UNDEFINED> instruction: 0x77730074
 43c:	7261755f 	rsbvc	r7, r1, #398458880	; 0x17c00000
 440:	75705f74 	ldrbvc	r5, [r0, #-3956]!	; 0xf74
 444:	75006374 	strvc	r6, [r0, #-884]	; 0x374
 448:	38746e69 	ldmdacc	r4!, {r0, r3, r5, r6, r9, sl, fp, sp, lr}^
 44c:	6300745f 	movwvs	r7, #1119	; 0x45f
 450:	72746e6f 	rsbsvc	r6, r4, #1776	; 0x6f0
 454:	625f6c6f 	subsvs	r6, pc, #28416	; 0x6f00
 458:	745f6b6c 	ldrbvc	r6, [pc], #-2924	; 460 <_start-0x7ba0>
 45c:	5f777300 	svcpl	0x00777300
 460:	74726175 	ldrbtvc	r6, [r2], #-373	; 0x175
 464:	5f626300 	svcpl	0x00626300
 468:	5f746567 	svcpl	0x00746567
 46c:	636f6c62 	cmnvs	pc, #25088	; 0x6200
 470:	5f5f006b 	svcpl	0x005f006b
 474:	5f737362 	svcpl	0x00737362
 478:	5f646e65 	svcpl	0x00646e65
 47c:	7363005f 	cmnvc	r3, #95	; 0x5f
 480:	65303431 	ldrvs	r3, [r0, #-1073]!	; 0x431
 484:	6372732d 	cmnvs	r2, #-1275068416	; 0xb4000000
 488:	7473632f 	ldrbtvc	r6, [r3], #-815	; 0x32f
 48c:	2e747261 	cdpcs	2, 7, cr7, cr4, cr1, {3}
 490:	6f630063 	svcvs	0x00630063
 494:	6c6f736e 	stclvs	3, cr7, [pc], #-440	; 2e4 <_start-0x7d1c>
 498:	65645f65 	strbvs	r5, [r4, #-3941]!	; 0xf65
 49c:	69750076 	ldmdbvs	r5!, {r1, r2, r4, r5, r6}^
 4a0:	3233746e 	eorscc	r7, r3, #1845493760	; 0x6e000000
 4a4:	6d00745f 	cfstrsvs	mvf7, [r0, #-380]	; 0xfffffe84
 4a8:	63696761 	cmnvs	r9, #25427968	; 0x1840000
 4ac:	5f746100 	svcpl	0x00746100
 4b0:	72657375 	rsbvc	r7, r5, #-738197503	; 0xd4000001
 4b4:	76656c5f 			; <UNDEFINED> instruction: 0x76656c5f
 4b8:	50006c65 	andpl	r6, r0, r5, ror #24
 4bc:	41505f4d 	cmpmi	r0, sp, asr #30
 4c0:	4f575353 	svcmi	0x00575353
 4c4:	63004452 	movwvs	r4, #1106	; 0x452
 4c8:	30343173 	eorscc	r3, r4, r3, ror r1
 4cc:	72732d65 	rsbsvc	r2, r3, #6464	; 0x1940
 4d0:	65722f63 	ldrbvs	r2, [r2, #-3939]!	; 0xf63
 4d4:	746f6f62 	strbtvc	r6, [pc], #-3938	; 4dc <_start-0x7b24>
 4d8:	5000632e 	andpl	r6, r0, lr, lsr #6
 4dc:	53525f4d 	cmppl	r2, #308	; 0x134
 4e0:	575f4354 			; <UNDEFINED> instruction: 0x575f4354
 4e4:	47464352 	smlsldmi	r4, r6, r2, r3
 4e8:	4c55465f 	mrrcmi	6, 5, r4, r5, cr15
 4ec:	45525f4c 	ldrbmi	r5, [r2, #-3916]	; 0xf4c
 4f0:	00544553 	subseq	r4, r4, r3, asr r5
 4f4:	575f4d50 			; <UNDEFINED> instruction: 0x575f4d50
 4f8:	00474f44 	subeq	r4, r7, r4, asr #30
 4fc:	5f746573 	svcpl	0x00746573
 500:	72657375 	rsbvc	r7, r5, #-738197503	; 0xd4000001
 504:	76656c5f 			; <UNDEFINED> instruction: 0x76656c5f
 508:	50006c65 	andpl	r6, r0, r5, ror #24
 50c:	32335455 	eorscc	r5, r3, #1426063360	; 0x55000000
 510:	5f4d5000 	svcpl	0x004d5000
 514:	43545352 	cmpmi	r4, #1207959553	; 0x48000001
 518:	73706300 	cmnvc	r0, #0, 6
 51c:	69740072 	ldmdbvs	r4!, {r1, r4, r5, r6}^
 520:	5f72656d 	svcpl	0x0072656d
 524:	5f746567 	svcpl	0x00746567
 528:	63657375 	cmnvs	r5, #-738197503	; 0xd4000001
 52c:	7761725f 			; <UNDEFINED> instruction: 0x7761725f
 530:	6c656400 	cfstrdvs	mvd6, [r5], #-0
 534:	735f7961 	cmpvc	pc, #1589248	; 0x184000
 538:	63006365 	movwvs	r6, #869	; 0x365
 53c:	30343173 	eorscc	r3, r4, r3, ror r1
 540:	72732d65 	rsbsvc	r2, r3, #6464	; 0x1940
 544:	69742f63 	ldmdbvs	r4!, {r0, r1, r5, r6, r8, r9, sl, fp, sp}^
 548:	2e72656d 	cdpcs	5, 7, cr6, cr2, cr13, {3}
 54c:	45470063 	strbmi	r0, [r7, #-99]	; 0x63
 550:	00323354 	eorseq	r3, r2, r4, asr r3
 554:	6b636974 	blvs	18dab2c <__bss_end__+0x18d0b24>
 558:	65640073 	strbvs	r0, [r4, #-115]!	; 0x73
 55c:	5f79616c 	svcpl	0x0079616c
 560:	6c637963 	stclvs	9, cr7, [r3], #-396	; 0xfffffe74
 564:	64007365 	strvs	r7, [r0], #-869	; 0x365
 568:	79616c65 	stmdbvc	r1!, {r0, r2, r5, r6, sl, fp, sp, lr}^
 56c:	0073755f 	rsbseq	r7, r3, pc, asr r5
 570:	656d6974 	strbvs	r6, [sp, #-2420]!	; 0x974
 574:	65675f72 	strbvs	r5, [r7, #-3954]!	; 0xf72
 578:	73755f74 	cmnvc	r5, #116, 30	; 0x1d0
 57c:	67006365 	strvs	r6, [r0, -r5, ror #6]
 580:	5f6f6970 	svcpl	0x006f6970
 584:	6e657665 	cdpvs	6, 6, cr7, cr5, cr5, {3}
 588:	65645f74 	strbvs	r5, [r4, #-3956]!	; 0xf74
 58c:	74636574 	strbtvc	r6, [r3], #-1396	; 0x574
 590:	47006465 	strmi	r6, [r0, -r5, ror #8]
 594:	45534650 	ldrbmi	r4, [r3, #-1616]	; 0x650
 598:	4700324c 	strmi	r3, [r0, -ip, asr #4]
 59c:	524c4350 	subpl	r4, ip, #80, 6	; 0x40000001
 5a0:	4e450030 	mcrmi	0, 2, r0, cr5, cr0, {1}
 5a4:	454c4241 	strbmi	r4, [ip, #-577]	; 0x241
 5a8:	5152495f 	cmppl	r2, pc, asr r9
 5ac:	00325f53 	eorseq	r5, r2, r3, asr pc
 5b0:	675f7369 	ldrbvs	r7, [pc, -r9, ror #6]
 5b4:	5f6f6970 	svcpl	0x006f6970
 5b8:	00746e69 	rsbseq	r6, r4, r9, ror #28
 5bc:	4f495047 	svcmi	0x00495047
 5c0:	4e55465f 	mrcmi	6, 2, r4, cr5, cr15, {2}
 5c4:	4e495f43 	cdpmi	15, 4, cr5, cr9, cr3, {2}
 5c8:	00545550 	subseq	r5, r4, r0, asr r5
 5cc:	6f697067 	svcvs	0x00697067
 5d0:	7465735f 	strbtvc	r7, [r5], #-863	; 0x35f
 5d4:	66666f5f 	uqsaxvs	r6, r6, pc	; <UNPREDICTABLE>
 5d8:	2d796d00 	ldclcs	13, cr6, [r9, #-0]
 5dc:	2f637273 	svccs	0x00637273
 5e0:	6f697067 	svcvs	0x00697067
 5e4:	6900632e 	stmdbvs	r0, {r1, r2, r3, r5, r8, r9, sp, lr}
 5e8:	6d5f746e 	cfldrdvs	mvd7, [pc, #-440]	; 438 <_start-0x7bc8>
 5ec:	006b7361 	rsbeq	r7, fp, r1, ror #6
 5f0:	45535047 	ldrbmi	r5, [r3, #-71]	; 0x47
 5f4:	47003054 	smlsdmi	r0, r4, r0, r3
 5f8:	54455350 	strbpl	r5, [r5], #-848	; 0x350
 5fc:	65720031 	ldrbvs	r0, [r2, #-49]!	; 0x31
 600:	74735f67 	ldrbtvc	r5, [r3], #-3943	; 0xf67
 604:	47007461 	strmi	r7, [r0, -r1, ror #8]
 608:	56454c50 			; <UNDEFINED> instruction: 0x56454c50
 60c:	50470030 	subpl	r0, r7, r0, lsr r0
 610:	3156454c 	cmpcc	r6, ip, asr #10
 614:	69706700 	ldmdbvs	r0!, {r8, r9, sl, sp, lr}^
 618:	65725f6f 	ldrbvs	r5, [r2, #-3951]!	; 0xf6f
 61c:	50470067 	subpl	r0, r7, r7, rrx
 620:	4c455346 	mcrrmi	3, 4, r5, r5, cr6
 624:	50470030 	subpl	r0, r7, r0, lsr r0
 628:	4c455346 	mcrrmi	3, 4, r5, r5, cr6
 62c:	50470031 	subpl	r0, r7, r1, lsr r0
 630:	4c455346 	mcrrmi	3, 4, r5, r5, cr6
 634:	50470033 	subpl	r0, r7, r3, lsr r0
 638:	4c455346 	mcrrmi	3, 4, r5, r5, cr6
 63c:	50470034 	subpl	r0, r7, r4, lsr r0
 640:	4c455346 	mcrrmi	3, 4, r5, r5, cr6
 644:	65640035 	strbvs	r0, [r4, #-53]!	; 0x35
 648:	61625f76 	smcvs	9718	; 0x25f6
 64c:	65697272 	strbvs	r7, [r9, #-626]!	; 0x272
 650:	70670072 	rsbvc	r0, r7, r2, ror r0
 654:	665f6f69 	ldrbvs	r6, [pc], -r9, ror #30
 658:	306c6573 	rsbcc	r6, ip, r3, ror r5
 65c:	43504700 	cmpmi	r0, #0, 14
 660:	0031524c 	eorseq	r5, r1, ip, asr #4
 664:	6f697067 	svcvs	0x00697067
 668:	6165725f 	cmnvs	r5, pc, asr r2
 66c:	70670064 	rsbvc	r0, r7, r4, rrx
 670:	695f6f69 	ldmdbvs	pc, {r0, r3, r5, r6, r8, r9, sl, fp, sp, lr}^	; <UNPREDICTABLE>
 674:	725f746e 	subsvc	r7, pc, #1845493760	; 0x6e000000
 678:	6e697369 	cdpvs	3, 6, cr7, cr9, cr9, {3}
 67c:	64655f67 	strbtvs	r5, [r5], #-3943	; 0xf67
 680:	67006567 	strvs	r6, [r0, -r7, ror #10]
 684:	5f6f6970 	svcpl	0x006f6970
 688:	5f746573 	svcpl	0x00746573
 68c:	636e7566 	cmnvs	lr, #427819008	; 0x19800000
 690:	6e6f6974 	mcrvs	9, 3, r6, cr15, cr4, {3}
 694:	52504700 	subspl	r4, r0, #0, 14
 698:	00304e45 	eorseq	r4, r0, r5, asr #28
 69c:	45525047 	ldrbmi	r5, [r2, #-71]	; 0x47
 6a0:	6700314e 	strvs	r3, [r0, -lr, asr #2]
 6a4:	5f6f6970 	svcpl	0x006f6970
 6a8:	6e657665 	cdpvs	6, 6, cr7, cr5, cr5, {3}
 6ac:	6c635f74 	stclvs	15, cr5, [r3], #-464	; 0xfffffe30
 6b0:	00726165 	rsbseq	r6, r2, r5, ror #2
 6b4:	5f515249 	svcpl	0x00515249
 6b8:	444e4550 	strbmi	r4, [lr], #-1360	; 0x550
 6bc:	5f474e49 	svcpl	0x00474e49
 6c0:	52490031 	subpl	r0, r9, #49	; 0x31
 6c4:	45505f51 	ldrbmi	r5, [r0, #-3921]	; 0xf51
 6c8:	4e49444e 	cdpmi	4, 4, cr4, cr9, cr14, {2}
 6cc:	00325f47 	eorseq	r5, r2, r7, asr #30
 6d0:	6d746962 	ldclvs	9, cr6, [r4, #-392]!	; 0xfffffe78
 6d4:	006b7361 	rsbeq	r7, fp, r1, ror #6
 6d8:	6f697067 	svcvs	0x00697067
 6dc:	6972775f 	ldmdbvs	r2!, {r0, r1, r2, r3, r4, r6, r8, r9, sl, ip, sp, lr}^
 6e0:	67006574 	smlsdxvs	r0, r4, r5, r6
 6e4:	5f6f6970 	svcpl	0x006f6970
 6e8:	30746573 	rsbscc	r6, r4, r3, ror r5
 6ec:	6e756600 	cdpvs	6, 7, cr6, cr5, cr0, {0}
 6f0:	70670063 	rsbvc	r0, r7, r3, rrx
 6f4:	745f6f69 	ldrbvc	r6, [pc], #-3945	; 6fc <_start-0x7904>
 6f8:	6c67676f 	stclvs	7, cr6, [r7], #-444	; 0xfffffe44
 6fc:	50470065 	subpl	r0, r7, r5, rrx
 700:	30534445 	subscc	r4, r3, r5, asr #8
 704:	45504700 	ldrbmi	r4, [r0, #-1792]	; 0x700
 708:	00315344 	eorseq	r5, r1, r4, asr #6
 70c:	6f697067 	svcvs	0x00697067
 710:	7465735f 	strbtvc	r7, [r5], #-863	; 0x35f
 714:	006e6f5f 	rsbeq	r6, lr, pc, asr pc
 718:	45465047 	strbmi	r5, [r6, #-71]	; 0x47
 71c:	4700304e 	strmi	r3, [r0, -lr, asr #32]
 720:	4e454650 	mcrmi	6, 2, r4, cr5, cr0, {2}
 724:	70670031 	rsbvc	r0, r7, r1, lsr r0
 728:	735f6f69 	cmpvc	pc, #420	; 0x1a4
 72c:	6f5f7465 	svcvs	0x005f7465
 730:	75707475 	ldrbvc	r7, [r0, #-1141]!	; 0x475
 734:	50470074 	subpl	r0, r7, r4, ror r0
 738:	465f4f49 	ldrbmi	r4, [pc], -r9, asr #30
 73c:	5f434e55 	svcpl	0x00434e55
 740:	5054554f 	subspl	r5, r4, pc, asr #10
 744:	67005455 	smlsdvs	r0, r5, r4, r5
 748:	32337465 	eorscc	r7, r3, #1694498816	; 0x65000000
 74c:	69706700 	ldmdbvs	r0!, {r8, r9, sl, sp, lr}^
 750:	6e695f6f 	cdpvs	15, 6, cr5, cr9, cr15, {3}
 754:	61665f74 	smcvs	26100	; 0x65f4
 758:	6e696c6c 	cdpvs	12, 6, cr6, cr9, cr12, {3}
 75c:	64655f67 	strbtvs	r5, [r5], #-3943	; 0xf67
 760:	67006567 	strvs	r6, [r0, -r7, ror #10]
 764:	5f6f6970 	svcpl	0x006f6970
 768:	636e7566 	cmnvs	lr, #427819008	; 0x19800000
 76c:	4700745f 	smlsdmi	r0, pc, r4, r7	; <UNPREDICTABLE>
 770:	5f4f4950 	svcpl	0x004f4950
 774:	434e5546 	movtmi	r5, #58694	; 0xe546
 778:	544c415f 	strbpl	r4, [ip], #-351	; 0x15f
 77c:	50470030 	subpl	r0, r7, r0, lsr r0
 780:	465f4f49 	ldrbmi	r4, [pc], -r9, asr #30
 784:	5f434e55 	svcpl	0x00434e55
 788:	31544c41 	cmpcc	r4, r1, asr #24
 78c:	49504700 	ldmdbmi	r0, {r8, r9, sl, lr}^
 790:	55465f4f 	strbpl	r5, [r6, #-3919]	; 0xf4f
 794:	415f434e 	cmpmi	pc, lr, asr #6
 798:	0032544c 	eorseq	r5, r2, ip, asr #8
 79c:	4f495047 	svcmi	0x00495047
 7a0:	4e55465f 	mrcmi	6, 2, r4, cr5, cr15, {2}
 7a4:	4c415f43 	mcrrmi	15, 4, r5, r1, cr3
 7a8:	47003354 	smlsdmi	r0, r4, r3, r3
 7ac:	5f4f4950 	svcpl	0x004f4950
 7b0:	434e5546 	movtmi	r5, #58694	; 0xe546
 7b4:	544c415f 	strbpl	r4, [ip], #-351	; 0x15f
 7b8:	50470034 	subpl	r0, r7, r4, lsr r0
 7bc:	465f4f49 	ldrbmi	r4, [pc], -r9, asr #30
 7c0:	5f434e55 	svcpl	0x00434e55
 7c4:	35544c41 	ldrbcc	r4, [r4, #-3137]	; 0xc41
 7c8:	67657200 	strbvs	r7, [r5, -r0, lsl #4]!
 7cc:	6c65735f 	stclvs	3, cr7, [r5], #-380	; 0xfffffe84
 7d0:	00746365 	rsbseq	r6, r4, r5, ror #6
 7d4:	6f697067 	svcvs	0x00697067
 7d8:	726c635f 	rsbvc	r6, ip, #2080374785	; 0x7c000001
 7dc:	79630030 	stmdbvc	r3!, {r4, r5}^
 7e0:	65705f63 	ldrbvs	r5, [r0, #-3939]!	; 0xf63
 7e4:	69625f72 	stmdbvs	r2!, {r1, r4, r5, r6, r8, r9, sl, fp, ip, lr}^
 7e8:	72770074 	rsbsvc	r0, r7, #116	; 0x74
 7ec:	5f657469 	svcpl	0x00657469
 7f0:	5f637963 	svcpl	0x00637963
 7f4:	69746e75 	ldmdbvs	r4!, {r0, r2, r4, r5, r6, r9, sl, fp, sp, lr}^
 7f8:	7773006c 	ldrbvc	r0, [r3, -ip, rrx]!
 7fc:	7261755f 	rsbvc	r7, r1, #398458880	; 0x17c00000
 800:	65675f74 	strbvs	r5, [r7, #-3956]!	; 0xf74
 804:	745f6374 	ldrbvc	r6, [pc], #-884	; 80c <_start-0x77f4>
 808:	6f656d69 	svcvs	0x00656d69
 80c:	73007475 	movwvc	r7, #1141	; 0x475
 810:	61755f77 	cmnvs	r5, r7, ror pc
 814:	675f7472 			; <UNDEFINED> instruction: 0x675f7472
 818:	5f737465 	svcpl	0x00737465
 81c:	69746e75 	ldmdbvs	r4!, {r0, r2, r4, r5, r6, r9, sl, fp, sp, lr}^
 820:	7773006c 	ldrbvc	r0, [r3, -ip, rrx]!
 824:	7261755f 	rsbvc	r7, r1, #398458880	; 0x17c00000
 828:	65675f74 	strbvs	r5, [r7, #-3956]!	; 0xf74
 82c:	64006374 	strvs	r6, [r0], #-884	; 0x374
 830:	76697265 	strbtvc	r7, [r9], -r5, ror #4
 834:	64006465 	strvs	r6, [r0], #-1125	; 0x465
 838:	79616c65 	stmdbvc	r1!, {r0, r2, r5, r6, sl, fp, sp, lr}^
 83c:	79636e5f 	stmdbvc	r3!, {r0, r1, r2, r3, r4, r6, r9, sl, fp, sp, lr}^
 840:	73656c63 	cmnvc	r5, #25344	; 0x6300
 844:	5f777300 	svcpl	0x00777300
 848:	74726175 	ldrbtvc	r6, [r2], #-373	; 0x175
 84c:	696e695f 	stmdbvs	lr!, {r0, r1, r2, r3, r4, r6, r8, fp, sp, lr}^
 850:	65685f74 	strbvs	r5, [r8, #-3956]!	; 0xf74
 854:	7265706c 	rsbvc	r7, r5, #108	; 0x6c
 858:	6d697400 	cfstrdvs	mvd7, [r9, #-0]
 85c:	74756f65 	ldrbtvc	r6, [r5], #-3941	; 0xf65
 860:	6573755f 	ldrbvs	r7, [r3, #-1375]!	; 0x55f
 864:	77730063 	ldrbvc	r0, [r3, -r3, rrx]!
 868:	7261755f 	rsbvc	r7, r1, #398458880	; 0x17c00000
 86c:	75705f74 	ldrbvc	r5, [r0, #-3956]!	; 0xf74
 870:	6d006b74 	vstrvs	d6, [r0, #-464]	; 0xfffffe30
 874:	72732d79 	rsbsvc	r2, r3, #7744	; 0x1e40
 878:	77732f63 	ldrbvc	r2, [r3, -r3, ror #30]!
 87c:	7261752d 	rsbvc	r7, r1, #188743680	; 0xb400000
 880:	00632e74 	rsbeq	r2, r3, r4, ror lr
 884:	72616863 	rsbvc	r6, r1, #6488064	; 0x630000
 888:	006e695f 	rsbeq	r6, lr, pc, asr r9
 88c:	755f7773 	ldrbvc	r7, [pc, #-1907]	; 121 <_start-0x7edf>
 890:	5f747261 	svcpl	0x00747261
 894:	73746567 	cmnvc	r4, #432013312	; 0x19c00000
 898:	6d69745f 	cfstrdvs	mvd7, [r9, #-380]!	; 0xfffffe84
 89c:	74756f65 	ldrbtvc	r6, [r5], #-3941	; 0xf65
 8a0:	79626e00 	stmdbvc	r2!, {r9, sl, fp, sp, lr}^
 8a4:	00736574 	rsbseq	r6, r3, r4, ror r5
 8a8:	63657375 	cmnvs	r5, #-738197503	; 0xd4000001
 8ac:	6d69745f 	cfstrdvs	mvd7, [r9, #-380]!	; 0xfffffe84
 8b0:	74756f65 	ldrbtvc	r6, [r5], #-3941	; 0xf65
 8b4:	5f777300 	svcpl	0x00777300
 8b8:	74726175 	ldrbtvc	r6, [r2], #-373	; 0x175
 8bc:	7465675f 	strbtvc	r6, [r5], #-1887	; 0x75f
 8c0:	6e755f73 	mrcvs	15, 3, r5, cr5, cr3, {3}
 8c4:	5f6c6974 	svcpl	0x006c6974
 8c8:	006b6c62 	rsbeq	r6, fp, r2, ror #24
 8cc:	74696177 	strbtvc	r6, [r9], #-375	; 0x177
 8d0:	746e755f 	strbtvc	r7, [lr], #-1375	; 0x55f
 8d4:	755f6c69 	ldrbvc	r6, [pc, #-3177]	; fffffc73 <__bss_end__+0xffff5c6b>
 8d8:	00636573 	rsbeq	r6, r3, r3, ror r5
 8dc:	5f585541 	svcpl	0x00585541
 8e0:	4d5f554d 	cfldr64mi	mvdx5, [pc, #-308]	; 7b4 <_start-0x784c>
 8e4:	525f5243 	subspl	r5, pc, #805306372	; 0x30000004
 8e8:	41004745 	tstmi	r0, r5, asr #14
 8ec:	4d5f5855 	ldclmi	8, cr5, [pc, #-340]	; 7a0 <_start-0x7860>
 8f0:	4f495f55 	svcmi	0x00495f55
 8f4:	4745525f 	smlsldmi	r5, r5, pc, r2	; <UNPREDICTABLE>
 8f8:	58554100 	ldmdapl	r5, {r8, lr}^
 8fc:	5f554d5f 	svcpl	0x00554d5f
 900:	5f52534d 	svcpl	0x0052534d
 904:	00474552 	subeq	r4, r7, r2, asr r5
 908:	74726175 	ldrbtvc	r6, [r2], #-373	; 0x175
 90c:	6e61635f 	mcrvs	3, 3, r6, cr1, cr15, {2}
 910:	7465675f 	strbtvc	r6, [r5], #-1887	; 0x75f
 914:	55410063 	strbpl	r0, [r1, #-99]	; 0x63
 918:	554d5f58 	strbpl	r5, [sp, #-3928]	; 0xf58
 91c:	544e435f 	strbpl	r4, [lr], #-863	; 0x35f
 920:	45525f4c 	ldrbmi	r5, [r2, #-3916]	; 0xf4c
 924:	61750047 	cmnvs	r5, r7, asr #32
 928:	685f7472 	ldmdavs	pc, {r1, r4, r5, r6, sl, ip, sp, lr}^	; <UNPREDICTABLE>
 92c:	645f7361 	ldrbvs	r7, [pc], #-865	; 934 <_start-0x76cc>
 930:	00617461 	rsbeq	r7, r1, r1, ror #8
 934:	5f585541 	svcpl	0x00585541
 938:	495f554d 	ldmdbmi	pc, {r0, r2, r3, r6, r8, sl, ip, lr}^	; <UNPREDICTABLE>
 93c:	525f5245 	subspl	r5, pc, #1342177284	; 0x50000004
 940:	41004745 	tstmi	r0, r5, asr #14
 944:	4d5f5855 	ldclmi	8, cr5, [pc, #-340]	; 7f8 <_start-0x7808>
 948:	49495f55 	stmdbmi	r9, {r0, r2, r4, r6, r8, r9, sl, fp, ip, lr}^
 94c:	45525f52 	ldrbmi	r5, [r2, #-3922]	; 0xf52
 950:	61750047 	cmnvs	r5, r7, asr #32
 954:	635f7472 	cmpvs	pc, #1912602624	; 0x72000000
 958:	705f6e61 	subsvc	r6, pc, r1, ror #28
 95c:	00637475 	rsbeq	r7, r3, r5, ror r4
 960:	5f585541 	svcpl	0x00585541
 964:	42414e45 	submi	r4, r1, #1104	; 0x450
 968:	0053454c 	subseq	r4, r3, ip, asr #10
 96c:	5f585541 	svcpl	0x00585541
 970:	00515249 	subseq	r5, r1, r9, asr #4
 974:	5f585541 	svcpl	0x00585541
 978:	425f554d 	subsmi	r5, pc, #322961408	; 0x13400000
 97c:	5f445541 	svcpl	0x00445541
 980:	00474552 	subeq	r4, r7, r2, asr r5
 984:	5f585541 	svcpl	0x00585541
 988:	535f554d 	cmppl	pc, #322961408	; 0x13400000
 98c:	5f544154 	svcpl	0x00544154
 990:	00474552 	subeq	r4, r7, r2, asr r5
 994:	5f585541 	svcpl	0x00585541
 998:	535f554d 	cmppl	pc, #322961408	; 0x13400000
 99c:	54415243 	strbpl	r5, [r1], #-579	; 0x243
 9a0:	6d004843 	stcvs	8, cr4, [r0, #-268]	; 0xfffffef4
 9a4:	72732d79 	rsbsvc	r2, r3, #7744	; 0x1e40
 9a8:	61752f63 	cmnvs	r5, r3, ror #30
 9ac:	632e7472 	teqvs	lr, #1912602624	; 0x72000000
 9b0:	58554100 	ldmdapl	r5, {r8, lr}^
 9b4:	5f554d5f 	svcpl	0x00554d5f
 9b8:	5f52434c 	svcpl	0x0052434c
 9bc:	00474552 	subeq	r4, r7, r2, asr r5
 9c0:	5f585541 	svcpl	0x00585541
 9c4:	4c5f554d 	cfldr64mi	mvdx5, [pc], {77}	; 0x4d
 9c8:	525f5253 	subspl	r5, pc, #805306373	; 0x30000005
 9cc:	75004745 	strvc	r4, [r0, #-1861]	; 0x745
 9d0:	5f747261 	svcpl	0x00747261
 9d4:	63746567 	cmnvs	r4, #432013312	; 0x19c00000
 9d8:	7973615f 	ldmdbvc	r3!, {r0, r1, r2, r3, r4, r6, r8, sp, lr}^
 9dc:	7300636e 	movwvc	r6, #878	; 0x36e
 9e0:	5f657a69 	svcpl	0x00657a69
 9e4:	656d0074 	strbvs	r0, [sp, #-116]!	; 0x74
 9e8:	7465736d 	strbtvc	r7, [r5], #-877	; 0x36d
 9ec:	5f626300 	svcpl	0x00626300
 9f0:	0077656e 	rsbseq	r6, r7, lr, ror #10
 9f4:	34317363 	ldrtcc	r7, [r1], #-867	; 0x363
 9f8:	732d6530 	teqvc	sp, #48, 10	; 0xc000000
 9fc:	632f6372 	teqvs	pc, #-939524095	; 0xc8000001
 a00:	72746e6f 	rsbsvc	r6, r4, #1776	; 0x6f0
 a04:	622d6c6f 	eorvs	r6, sp, #28416	; 0x6f00
 a08:	6b636f6c 	blvs	18dc7c0 <__bss_end__+0x18d27b8>
 a0c:	6c00632e 	stcvs	3, cr6, [r0], {46}	; 0x2e
 a10:	2f636269 	svccs	0x00636269
 a14:	736d656d 	cmnvc	sp, #457179136	; 0x1b400000
 a18:	632e7465 	teqvs	lr, #1694498816	; 0x65000000
	...

Disassembly of section .debug_frame:

00000000 <.debug_frame>:
   0:	0000000c 	andeq	r0, r0, ip
   4:	ffffffff 			; <UNDEFINED> instruction: 0xffffffff
   8:	7c020001 	stcvc	0, cr0, [r2], {1}
   c:	000d0c0e 	andeq	r0, sp, lr, lsl #24
  10:	00000014 	andeq	r0, r0, r4, lsl r0
  14:	00000000 	andeq	r0, r0, r0
  18:	00008010 	andeq	r8, r0, r0, lsl r0
  1c:	00000054 	andeq	r0, r0, r4, asr r0
  20:	83080e42 	movwhi	r0, #36418	; 0x8e42
  24:	00018e02 	andeq	r8, r1, r2, lsl #28
  28:	0000000c 	andeq	r0, r0, ip
  2c:	ffffffff 			; <UNDEFINED> instruction: 0xffffffff
  30:	7c020001 	stcvc	0, cr0, [r2], {1}
  34:	000d0c0e 	andeq	r0, sp, lr, lsl #24
  38:	00000018 	andeq	r0, r0, r8, lsl r0
  3c:	00000028 	andeq	r0, r0, r8, lsr #32
  40:	00008064 	andeq	r8, r0, r4, rrx
  44:	000000b4 	strheq	r0, [r0], -r4
  48:	83100e42 	tsthi	r0, #1056	; 0x420
  4c:	85038404 	strhi	r8, [r3, #-1028]	; 0x404
  50:	00018e02 	andeq	r8, r1, r2, lsl #28
  54:	00000018 	andeq	r0, r0, r8, lsl r0
  58:	00000028 	andeq	r0, r0, r8, lsr #32
  5c:	00008118 	andeq	r8, r0, r8, lsl r1
  60:	000000b4 	strheq	r0, [r0], -r4
  64:	83100e42 	tsthi	r0, #1056	; 0x420
  68:	85038404 	strhi	r8, [r3, #-1028]	; 0x404
  6c:	00018e02 	andeq	r8, r1, r2, lsl #28
  70:	00000014 	andeq	r0, r0, r4, lsl r0
  74:	00000028 	andeq	r0, r0, r8, lsr #32
  78:	000081cc 	andeq	r8, r0, ip, asr #3
  7c:	0000002c 	andeq	r0, r0, ip, lsr #32
  80:	83080e42 	movwhi	r0, #36418	; 0x8e42
  84:	00018e02 	andeq	r8, r1, r2, lsl #28
  88:	0000000c 	andeq	r0, r0, ip
  8c:	ffffffff 			; <UNDEFINED> instruction: 0xffffffff
  90:	7c020001 	stcvc	0, cr0, [r2], {1}
  94:	000d0c0e 	andeq	r0, sp, lr, lsl #24
  98:	00000024 	andeq	r0, r0, r4, lsr #32
  9c:	00000088 	andeq	r0, r0, r8, lsl #1
  a0:	000081f8 	strdeq	r8, [r0], -r8	; <UNPREDICTABLE>
  a4:	00000058 	andeq	r0, r0, r8, asr r0
  a8:	80100e42 	andshi	r0, r0, r2, asr #28
  ac:	82038104 	andhi	r8, r3, #4, 2
  b0:	42018302 	andmi	r8, r1, #134217728	; 0x8000000
  b4:	07841c0e 	streq	r1, [r4, lr, lsl #24]
  b8:	058e0685 	streq	r0, [lr, #1669]	; 0x685
  bc:	00280e42 	eoreq	r0, r8, r2, asr #28
  c0:	0000000c 	andeq	r0, r0, ip
  c4:	ffffffff 			; <UNDEFINED> instruction: 0xffffffff
  c8:	7c020001 	stcvc	0, cr0, [r2], {1}
  cc:	000d0c0e 	andeq	r0, sp, lr, lsl #24
  d0:	00000014 	andeq	r0, r0, r4, lsl r0
  d4:	000000c0 	andeq	r0, r0, r0, asr #1
  d8:	00008250 	andeq	r8, r0, r0, asr r2
  dc:	00000014 	andeq	r0, r0, r4, lsl r0
  e0:	84080e42 	strhi	r0, [r8], #-3650	; 0xe42
  e4:	00018e02 	andeq	r8, r1, r2, lsl #28
  e8:	0000000c 	andeq	r0, r0, ip
  ec:	000000c0 	andeq	r0, r0, r0, asr #1
  f0:	00008264 	andeq	r8, r0, r4, ror #4
  f4:	00000018 	andeq	r0, r0, r8, lsl r0
  f8:	0000000c 	andeq	r0, r0, ip
  fc:	000000c0 	andeq	r0, r0, r0, asr #1
 100:	0000827c 	andeq	r8, r0, ip, ror r2
 104:	00000010 	andeq	r0, r0, r0, lsl r0
 108:	0000000c 	andeq	r0, r0, ip
 10c:	ffffffff 			; <UNDEFINED> instruction: 0xffffffff
 110:	7c020001 	stcvc	0, cr0, [r2], {1}
 114:	000d0c0e 	andeq	r0, sp, lr, lsl #24
 118:	00000018 	andeq	r0, r0, r8, lsl r0
 11c:	00000108 	andeq	r0, r0, r8, lsl #2
 120:	0000828c 	andeq	r8, r0, ip, lsl #5
 124:	00000034 	andeq	r0, r0, r4, lsr r0
 128:	83100e42 	tsthi	r0, #1056	; 0x420
 12c:	85038404 	strhi	r8, [r3, #-1028]	; 0x404
 130:	00018e02 	andeq	r8, r1, r2, lsl #28
 134:	0000000c 	andeq	r0, r0, ip
 138:	ffffffff 			; <UNDEFINED> instruction: 0xffffffff
 13c:	7c020001 	stcvc	0, cr0, [r2], {1}
 140:	000d0c0e 	andeq	r0, sp, lr, lsl #24
 144:	0000000c 	andeq	r0, r0, ip
 148:	00000134 	andeq	r0, r0, r4, lsr r1
 14c:	000082c0 	andeq	r8, r0, r0, asr #5
 150:	00000014 	andeq	r0, r0, r4, lsl r0
 154:	0000000c 	andeq	r0, r0, ip
 158:	00000134 	andeq	r0, r0, r4, lsr r1
 15c:	000082d4 	ldrdeq	r8, [r0], -r4
 160:	0000002c 	andeq	r0, r0, ip, lsr #32
 164:	0000000c 	andeq	r0, r0, ip
 168:	00000134 	andeq	r0, r0, r4, lsr r1
 16c:	00008300 	andeq	r8, r0, r0, lsl #6
 170:	00000040 	andeq	r0, r0, r0, asr #32
 174:	00000020 	andeq	r0, r0, r0, lsr #32
 178:	00000134 	andeq	r0, r0, r4, lsr r1
 17c:	00008340 	andeq	r8, r0, r0, asr #6
 180:	000001a8 	andeq	r0, r0, r8, lsr #3
 184:	84180e42 	ldrhi	r0, [r8], #-3650	; 0xe42
 188:	86058506 	strhi	r8, [r5], -r6, lsl #10
 18c:	88038704 	stmdahi	r3, {r2, r8, r9, sl, pc}
 190:	42018e02 	andmi	r8, r1, #2, 28
 194:	0000600e 	andeq	r6, r0, lr
 198:	00000014 	andeq	r0, r0, r4, lsl r0
 19c:	00000134 	andeq	r0, r0, r4, lsr r1
 1a0:	000084e8 	andeq	r8, r0, r8, ror #9
 1a4:	00000068 	andeq	r0, r0, r8, rrx
 1a8:	8e040e42 	cdphi	14, 0, cr0, cr4, cr2, {2}
 1ac:	100e4201 	andne	r4, lr, r1, lsl #4
 1b0:	00000028 	andeq	r0, r0, r8, lsr #32
 1b4:	00000134 	andeq	r0, r0, r4, lsr r1
 1b8:	00008550 	andeq	r8, r0, r0, asr r5
 1bc:	00000294 	muleq	r0, r4, r2
 1c0:	84240e42 	strthi	r0, [r4], #-3650	; 0xe42
 1c4:	86088509 	strhi	r8, [r8], -r9, lsl #10
 1c8:	88068707 	stmdahi	r6, {r0, r1, r2, r8, r9, sl, pc}
 1cc:	8a048905 	bhi	1225e8 <__bss_end__+0x1185e0>
 1d0:	8e028b03 	vmlahi.f64	d8, d2, d3
 1d4:	b00e4201 	andlt	r4, lr, r1, lsl #4
 1d8:	00000001 	andeq	r0, r0, r1
 1dc:	0000000c 	andeq	r0, r0, ip
 1e0:	ffffffff 			; <UNDEFINED> instruction: 0xffffffff
 1e4:	7c020001 	stcvc	0, cr0, [r2], {1}
 1e8:	000d0c0e 	andeq	r0, sp, lr, lsl #24
 1ec:	00000014 	andeq	r0, r0, r4, lsl r0
 1f0:	000001dc 	ldrdeq	r0, [r0], -ip
 1f4:	000087e4 	andeq	r8, r0, r4, ror #15
 1f8:	00000028 	andeq	r0, r0, r8, lsr #32
 1fc:	83080e42 	movwhi	r0, #36418	; 0x8e42
 200:	00018e02 	andeq	r8, r1, r2, lsl #28
 204:	0000000c 	andeq	r0, r0, ip
 208:	ffffffff 			; <UNDEFINED> instruction: 0xffffffff
 20c:	7c020001 	stcvc	0, cr0, [r2], {1}
 210:	000d0c0e 	andeq	r0, sp, lr, lsl #24
 214:	00000014 	andeq	r0, r0, r4, lsl r0
 218:	00000204 	andeq	r0, r0, r4, lsl #4
 21c:	0000880c 	andeq	r8, r0, ip, lsl #16
 220:	00000020 	andeq	r0, r0, r0, lsr #32
 224:	84080e42 	strhi	r0, [r8], #-3650	; 0xe42
 228:	00018e02 	andeq	r8, r1, r2, lsl #28
 22c:	00000014 	andeq	r0, r0, r4, lsl r0
 230:	00000204 	andeq	r0, r0, r4, lsl #4
 234:	0000882c 	andeq	r8, r0, ip, lsr #16
 238:	00000090 	muleq	r0, r0, r0
 23c:	83080e42 	movwhi	r0, #36418	; 0x8e42
 240:	00018e02 	andeq	r8, r1, r2, lsl #28
 244:	0000000c 	andeq	r0, r0, ip
 248:	ffffffff 			; <UNDEFINED> instruction: 0xffffffff
 24c:	7c020001 	stcvc	0, cr0, [r2], {1}
 250:	000d0c0e 	andeq	r0, sp, lr, lsl #24
 254:	0000000c 	andeq	r0, r0, ip
 258:	00000244 	andeq	r0, r0, r4, asr #4
 25c:	000088bc 			; <UNDEFINED> instruction: 0x000088bc
 260:	00000018 	andeq	r0, r0, r8, lsl r0
 264:	0000000c 	andeq	r0, r0, ip
 268:	00000244 	andeq	r0, r0, r4, asr #4
 26c:	000088d4 	ldrdeq	r8, [r0], -r4
 270:	00000014 	andeq	r0, r0, r4, lsl r0
 274:	00000014 	andeq	r0, r0, r4, lsl r0
 278:	00000244 	andeq	r0, r0, r4, asr #4
 27c:	000088e8 	andeq	r8, r0, r8, ror #17
 280:	00000048 	andeq	r0, r0, r8, asr #32
 284:	83080e42 	movwhi	r0, #36418	; 0x8e42
 288:	00018e02 	andeq	r8, r1, r2, lsl #28
 28c:	0000000c 	andeq	r0, r0, ip
 290:	ffffffff 			; <UNDEFINED> instruction: 0xffffffff
 294:	7c020001 	stcvc	0, cr0, [r2], {1}
 298:	000d0c0e 	andeq	r0, sp, lr, lsl #24
 29c:	0000000c 	andeq	r0, r0, ip
 2a0:	0000028c 	andeq	r0, r0, ip, lsl #5
 2a4:	00008930 	andeq	r8, r0, r0, lsr r9
 2a8:	0000001c 	andeq	r0, r0, ip, lsl r0
 2ac:	00000014 	andeq	r0, r0, r4, lsl r0
 2b0:	0000028c 	andeq	r0, r0, ip, lsl #5
 2b4:	0000894c 	andeq	r8, r0, ip, asr #18
 2b8:	00000014 	andeq	r0, r0, r4, lsl r0
 2bc:	83080e42 	movwhi	r0, #36418	; 0x8e42
 2c0:	00018e02 	andeq	r8, r1, r2, lsl #28
 2c4:	00000014 	andeq	r0, r0, r4, lsl r0
 2c8:	0000028c 	andeq	r0, r0, ip, lsl #5
 2cc:	00008960 	andeq	r8, r0, r0, ror #18
 2d0:	0000000c 	andeq	r0, r0, ip
 2d4:	83080e42 	movwhi	r0, #36418	; 0x8e42
 2d8:	00018e02 	andeq	r8, r1, r2, lsl #28
 2dc:	00000018 	andeq	r0, r0, r8, lsl r0
 2e0:	0000028c 	andeq	r0, r0, ip, lsl #5
 2e4:	0000896c 	andeq	r8, r0, ip, ror #18
 2e8:	00000024 	andeq	r0, r0, r4, lsr #32
 2ec:	83100e42 	tsthi	r0, #1056	; 0x420
 2f0:	85038404 	strhi	r8, [r3, #-1028]	; 0x404
 2f4:	00018e02 	andeq	r8, r1, r2, lsl #28
 2f8:	00000014 	andeq	r0, r0, r4, lsl r0
 2fc:	0000028c 	andeq	r0, r0, ip, lsl #5
 300:	00008990 	muleq	r0, r0, r9
 304:	00000014 	andeq	r0, r0, r4, lsl r0
 308:	83080e42 	movwhi	r0, #36418	; 0x8e42
 30c:	00018e02 	andeq	r8, r1, r2, lsl #28
 310:	00000014 	andeq	r0, r0, r4, lsl r0
 314:	0000028c 	andeq	r0, r0, ip, lsl #5
 318:	000089a4 	andeq	r8, r0, r4, lsr #19
 31c:	00000014 	andeq	r0, r0, r4, lsl r0
 320:	83080e42 	movwhi	r0, #36418	; 0x8e42
 324:	00018e02 	andeq	r8, r1, r2, lsl #28
 328:	0000000c 	andeq	r0, r0, ip
 32c:	ffffffff 			; <UNDEFINED> instruction: 0xffffffff
 330:	7c020001 	stcvc	0, cr0, [r2], {1}
 334:	000d0c0e 	andeq	r0, sp, lr, lsl #24
 338:	00000018 	andeq	r0, r0, r8, lsl r0
 33c:	00000328 	andeq	r0, r0, r8, lsr #6
 340:	000089b8 			; <UNDEFINED> instruction: 0x000089b8
 344:	000000d4 	ldrdeq	r0, [r0], -r4
 348:	83100e42 	tsthi	r0, #1056	; 0x420
 34c:	85038404 	strhi	r8, [r3, #-1028]	; 0x404
 350:	00018e02 	andeq	r8, r1, r2, lsl #28
 354:	00000014 	andeq	r0, r0, r4, lsl r0
 358:	00000328 	andeq	r0, r0, r8, lsr #6
 35c:	00008a8c 	andeq	r8, r0, ip, lsl #21
 360:	00000038 	andeq	r0, r0, r8, lsr r0
 364:	83080e42 	movwhi	r0, #36418	; 0x8e42
 368:	00018e02 	andeq	r8, r1, r2, lsl #28
 36c:	00000014 	andeq	r0, r0, r4, lsl r0
 370:	00000328 	andeq	r0, r0, r8, lsr #6
 374:	00008ac4 	andeq	r8, r0, r4, asr #21
 378:	00000038 	andeq	r0, r0, r8, lsr r0
 37c:	83080e42 	movwhi	r0, #36418	; 0x8e42
 380:	00018e02 	andeq	r8, r1, r2, lsl #28
 384:	00000018 	andeq	r0, r0, r8, lsl r0
 388:	00000328 	andeq	r0, r0, r8, lsr #6
 38c:	00008afc 	strdeq	r8, [r0], -ip
 390:	000000cc 	andeq	r0, r0, ip, asr #1
 394:	83100e42 	tsthi	r0, #1056	; 0x420
 398:	85038404 	strhi	r8, [r3, #-1028]	; 0x404
 39c:	00018e02 	andeq	r8, r1, r2, lsl #28
 3a0:	00000014 	andeq	r0, r0, r4, lsl r0
 3a4:	00000328 	andeq	r0, r0, r8, lsr #6
 3a8:	00008bc8 	andeq	r8, r0, r8, asr #23
 3ac:	0000004c 	andeq	r0, r0, ip, asr #32
 3b0:	84080e42 	strhi	r0, [r8], #-3650	; 0xe42
 3b4:	00018e02 	andeq	r8, r1, r2, lsl #28
 3b8:	00000014 	andeq	r0, r0, r4, lsl r0
 3bc:	00000328 	andeq	r0, r0, r8, lsr #6
 3c0:	00008c14 	andeq	r8, r0, r4, lsl ip
 3c4:	00000024 	andeq	r0, r0, r4, lsr #32
 3c8:	83080e42 	movwhi	r0, #36418	; 0x8e42
 3cc:	00018e02 	andeq	r8, r1, r2, lsl #28
 3d0:	00000018 	andeq	r0, r0, r8, lsl r0
 3d4:	00000328 	andeq	r0, r0, r8, lsr #6
 3d8:	00008c38 	andeq	r8, r0, r8, lsr ip
 3dc:	000000d8 	ldrdeq	r0, [r0], -r8
 3e0:	84100e42 	ldrhi	r0, [r0], #-3650	; 0xe42
 3e4:	86038504 	strhi	r8, [r3], -r4, lsl #10
 3e8:	00018e02 	andeq	r8, r1, r2, lsl #28
 3ec:	00000014 	andeq	r0, r0, r4, lsl r0
 3f0:	00000328 	andeq	r0, r0, r8, lsr #6
 3f4:	00008d10 	andeq	r8, r0, r0, lsl sp
 3f8:	00000038 	andeq	r0, r0, r8, lsr r0
 3fc:	83080e42 	movwhi	r0, #36418	; 0x8e42
 400:	00018e02 	andeq	r8, r1, r2, lsl #28
 404:	00000014 	andeq	r0, r0, r4, lsl r0
 408:	00000328 	andeq	r0, r0, r8, lsr #6
 40c:	00008d48 	andeq	r8, r0, r8, asr #26
 410:	0000002c 	andeq	r0, r0, ip, lsr #32
 414:	83080e42 	movwhi	r0, #36418	; 0x8e42
 418:	00018e02 	andeq	r8, r1, r2, lsl #28
 41c:	00000018 	andeq	r0, r0, r8, lsl r0
 420:	00000328 	andeq	r0, r0, r8, lsr #6
 424:	00008d74 	andeq	r8, r0, r4, ror sp
 428:	00000084 	andeq	r0, r0, r4, lsl #1
 42c:	83100e42 	tsthi	r0, #1056	; 0x420
 430:	85038404 	strhi	r8, [r3, #-1028]	; 0x404
 434:	00018e02 	andeq	r8, r1, r2, lsl #28
 438:	00000018 	andeq	r0, r0, r8, lsl r0
 43c:	00000328 	andeq	r0, r0, r8, lsr #6
 440:	00008df8 	strdeq	r8, [r0], -r8	; <UNPREDICTABLE>
 444:	00000084 	andeq	r0, r0, r4, lsl #1
 448:	83100e42 	tsthi	r0, #1056	; 0x420
 44c:	85038404 	strhi	r8, [r3, #-1028]	; 0x404
 450:	00018e02 	andeq	r8, r1, r2, lsl #28
 454:	00000014 	andeq	r0, r0, r4, lsl r0
 458:	00000328 	andeq	r0, r0, r8, lsr #6
 45c:	00008e7c 	andeq	r8, r0, ip, ror lr
 460:	00000084 	andeq	r0, r0, r4, lsl #1
 464:	84080e42 	strhi	r0, [r8], #-3650	; 0xe42
 468:	00018e02 	andeq	r8, r1, r2, lsl #28
 46c:	00000014 	andeq	r0, r0, r4, lsl r0
 470:	00000328 	andeq	r0, r0, r8, lsr #6
 474:	00008f00 	andeq	r8, r0, r0, lsl #30
 478:	00000058 	andeq	r0, r0, r8, asr r0
 47c:	84080e42 	strhi	r0, [r8], #-3650	; 0xe42
 480:	00018e02 	andeq	r8, r1, r2, lsl #28
 484:	0000000c 	andeq	r0, r0, ip
 488:	ffffffff 			; <UNDEFINED> instruction: 0xffffffff
 48c:	7c020001 	stcvc	0, cr0, [r2], {1}
 490:	000d0c0e 	andeq	r0, sp, lr, lsl #24
 494:	0000001c 	andeq	r0, r0, ip, lsl r0
 498:	00000484 	andeq	r0, r0, r4, lsl #9
 49c:	00008f58 	andeq	r8, r0, r8, asr pc
 4a0:	00000154 	andeq	r0, r0, r4, asr r1
 4a4:	84180e42 	ldrhi	r0, [r8], #-3650	; 0xe42
 4a8:	86058506 	strhi	r8, [r5], -r6, lsl #10
 4ac:	88038704 	stmdahi	r3, {r2, r8, r9, sl, pc}
 4b0:	00018e02 	andeq	r8, r1, r2, lsl #28
 4b4:	00000020 	andeq	r0, r0, r0, lsr #32
 4b8:	00000484 	andeq	r0, r0, r4, lsl #9
 4bc:	000090ac 	andeq	r9, r0, ip, lsr #1
 4c0:	000001c8 	andeq	r0, r0, r8, asr #3
 4c4:	83200e42 	teqhi	r0, #1056	; 0x420
 4c8:	85078408 	strhi	r8, [r7, #-1032]	; 0x408
 4cc:	87058606 	strhi	r8, [r5, -r6, lsl #12]
 4d0:	89038804 	stmdbhi	r3, {r2, fp, pc}
 4d4:	00018e02 	andeq	r8, r1, r2, lsl #28
 4d8:	00000024 	andeq	r0, r0, r4, lsr #32
 4dc:	00000484 	andeq	r0, r0, r4, lsl #9
 4e0:	00009274 	andeq	r9, r0, r4, ror r2
 4e4:	000000a4 	andeq	r0, r0, r4, lsr #1
 4e8:	84200e42 	strthi	r0, [r0], #-3650	; 0xe42
 4ec:	86078508 	strhi	r8, [r7], -r8, lsl #10
 4f0:	88058706 	stmdahi	r5, {r1, r2, r8, r9, sl, pc}
 4f4:	8a038904 	bhi	e290c <__bss_end__+0xd8904>
 4f8:	42018e02 	andmi	r8, r1, #2, 28
 4fc:	0000280e 	andeq	r2, r0, lr, lsl #16
 500:	00000020 	andeq	r0, r0, r0, lsr #32
 504:	00000484 	andeq	r0, r0, r4, lsl #9
 508:	00009318 	andeq	r9, r0, r8, lsl r3
 50c:	00000090 	muleq	r0, r0, r0
 510:	84180e42 	ldrhi	r0, [r8], #-3650	; 0xe42
 514:	86058506 	strhi	r8, [r5], -r6, lsl #10
 518:	88038704 	stmdahi	r3, {r2, r8, r9, sl, pc}
 51c:	42018e02 	andmi	r8, r1, #2, 28
 520:	0000200e 	andeq	r2, r0, lr
 524:	00000020 	andeq	r0, r0, r0, lsr #32
 528:	00000484 	andeq	r0, r0, r4, lsl #9
 52c:	000093a8 	andeq	r9, r0, r8, lsr #7
 530:	000000d4 	ldrdeq	r0, [r0], -r4
 534:	84180e42 	ldrhi	r0, [r8], #-3650	; 0xe42
 538:	86058506 	strhi	r8, [r5], -r6, lsl #10
 53c:	88038704 	stmdahi	r3, {r2, r8, r9, sl, pc}
 540:	42018e02 	andmi	r8, r1, #2, 28
 544:	0000200e 	andeq	r2, r0, lr
 548:	00000014 	andeq	r0, r0, r4, lsl r0
 54c:	00000484 	andeq	r0, r0, r4, lsl #9
 550:	0000947c 	andeq	r9, r0, ip, ror r4
 554:	0000003c 	andeq	r0, r0, ip, lsr r0
 558:	83080e42 	movwhi	r0, #36418	; 0x8e42
 55c:	00018e02 	andeq	r8, r1, r2, lsl #28
 560:	00000018 	andeq	r0, r0, r8, lsl r0
 564:	00000484 	andeq	r0, r0, r4, lsl #9
 568:	000094b8 			; <UNDEFINED> instruction: 0x000094b8
 56c:	0000002c 	andeq	r0, r0, ip, lsr #32
 570:	83100e42 	tsthi	r0, #1056	; 0x420
 574:	85038404 	strhi	r8, [r3, #-1028]	; 0x404
 578:	00018e02 	andeq	r8, r1, r2, lsl #28
 57c:	00000024 	andeq	r0, r0, r4, lsr #32
 580:	00000484 	andeq	r0, r0, r4, lsl #9
 584:	000094e4 	andeq	r9, r0, r4, ror #9
 588:	00000090 	muleq	r0, r0, r0
 58c:	810c0e42 	tsthi	ip, r2, asr #28
 590:	83028203 	movwhi	r8, #8707	; 0x2203
 594:	180e4201 	stmdane	lr, {r0, r9, lr}
 598:	05850684 	streq	r0, [r5, #1668]	; 0x684
 59c:	0e42048e 	cdpeq	4, 4, cr0, cr2, cr14, {4}
 5a0:	000003f0 	strdeq	r0, [r0], -r0	; <UNPREDICTABLE>
 5a4:	00000014 	andeq	r0, r0, r4, lsl r0
 5a8:	00000484 	andeq	r0, r0, r4, lsl #9
 5ac:	00009574 	andeq	r9, r0, r4, ror r5
 5b0:	0000004c 	andeq	r0, r0, ip, asr #32
 5b4:	8e040e42 	cdphi	14, 0, cr0, cr4, cr2, {2}
 5b8:	100e4201 	andne	r4, lr, r1, lsl #4
 5bc:	0000000c 	andeq	r0, r0, ip
 5c0:	ffffffff 			; <UNDEFINED> instruction: 0xffffffff
 5c4:	7c020001 	stcvc	0, cr0, [r2], {1}
 5c8:	000d0c0e 	andeq	r0, sp, lr, lsl #24
 5cc:	00000018 	andeq	r0, r0, r8, lsl r0
 5d0:	000005bc 			; <UNDEFINED> instruction: 0x000005bc
 5d4:	000095c0 	andeq	r9, r0, r0, asr #11
 5d8:	0000009c 	muleq	r0, ip, r0
 5dc:	83100e42 	tsthi	r0, #1056	; 0x420
 5e0:	85038404 	strhi	r8, [r3, #-1028]	; 0x404
 5e4:	00018e02 	andeq	r8, r1, r2, lsl #28
 5e8:	00000014 	andeq	r0, r0, r4, lsl r0
 5ec:	000005bc 			; <UNDEFINED> instruction: 0x000005bc
 5f0:	0000965c 	andeq	r9, r0, ip, asr r6
 5f4:	0000001c 	andeq	r0, r0, ip, lsl r0
 5f8:	83080e42 	movwhi	r0, #36418	; 0x8e42
 5fc:	00018e02 	andeq	r8, r1, r2, lsl #28
 600:	00000014 	andeq	r0, r0, r4, lsl r0
 604:	000005bc 			; <UNDEFINED> instruction: 0x000005bc
 608:	00009678 	andeq	r9, r0, r8, ror r6
 60c:	00000028 	andeq	r0, r0, r8, lsr #32
 610:	83080e42 	movwhi	r0, #36418	; 0x8e42
 614:	00018e02 	andeq	r8, r1, r2, lsl #28
 618:	00000014 	andeq	r0, r0, r4, lsl r0
 61c:	000005bc 			; <UNDEFINED> instruction: 0x000005bc
 620:	000096a0 	andeq	r9, r0, r0, lsr #13
 624:	0000001c 	andeq	r0, r0, ip, lsl r0
 628:	83080e42 	movwhi	r0, #36418	; 0x8e42
 62c:	00018e02 	andeq	r8, r1, r2, lsl #28
 630:	00000014 	andeq	r0, r0, r4, lsl r0
 634:	000005bc 			; <UNDEFINED> instruction: 0x000005bc
 638:	000096bc 			; <UNDEFINED> instruction: 0x000096bc
 63c:	0000002c 	andeq	r0, r0, ip, lsr #32
 640:	84080e42 	strhi	r0, [r8], #-3650	; 0xe42
 644:	00018e02 	andeq	r8, r1, r2, lsl #28
 648:	00000014 	andeq	r0, r0, r4, lsl r0
 64c:	000005bc 			; <UNDEFINED> instruction: 0x000005bc
 650:	000096e8 	andeq	r9, r0, r8, ror #13
 654:	0000000c 	andeq	r0, r0, ip
 658:	83080e42 	movwhi	r0, #36418	; 0x8e42
 65c:	00018e02 	andeq	r8, r1, r2, lsl #28
 660:	00000014 	andeq	r0, r0, r4, lsl r0
 664:	000005bc 			; <UNDEFINED> instruction: 0x000005bc
 668:	000096f4 	strdeq	r9, [r0], -r4
 66c:	00000020 	andeq	r0, r0, r0, lsr #32
 670:	83080e42 	movwhi	r0, #36418	; 0x8e42
 674:	00018e02 	andeq	r8, r1, r2, lsl #28
 678:	0000000c 	andeq	r0, r0, ip
 67c:	ffffffff 			; <UNDEFINED> instruction: 0xffffffff
 680:	7c020001 	stcvc	0, cr0, [r2], {1}
 684:	000d0c0e 	andeq	r0, sp, lr, lsl #24
 688:	00000014 	andeq	r0, r0, r4, lsl r0
 68c:	00000678 	andeq	r0, r0, r8, ror r6
 690:	00009778 	andeq	r9, r0, r8, ror r7
 694:	00000028 	andeq	r0, r0, r8, lsr #32
 698:	83080e42 	movwhi	r0, #36418	; 0x8e42
 69c:	00018e02 	andeq	r8, r1, r2, lsl #28
 6a0:	0000000c 	andeq	r0, r0, ip
 6a4:	00000678 	andeq	r0, r0, r8, ror r6
 6a8:	000097a0 	andeq	r9, r0, r0, lsr #15
 6ac:	00000028 	andeq	r0, r0, r8, lsr #32
 6b0:	0000000c 	andeq	r0, r0, ip
 6b4:	ffffffff 			; <UNDEFINED> instruction: 0xffffffff
 6b8:	7c020001 	stcvc	0, cr0, [r2], {1}
 6bc:	000d0c0e 	andeq	r0, sp, lr, lsl #24
 6c0:	0000000c 	andeq	r0, r0, ip
 6c4:	000006b0 			; <UNDEFINED> instruction: 0x000006b0
 6c8:	000097c8 	andeq	r9, r0, r8, asr #15
 6cc:	00000020 	andeq	r0, r0, r0, lsr #32

Disassembly of section .debug_loc:

00000000 <.debug_loc>:
       0:	00000000 	andeq	r0, r0, r0
       4:	00000010 	andeq	r0, r0, r0, lsl r0
       8:	10500001 	subsne	r0, r0, r1
       c:	44000000 	strmi	r0, [r0], #-0
      10:	01000000 	mrseq	r0, (UNDEF: 0)
      14:	00445500 	subeq	r5, r4, r0, lsl #10
      18:	00b40000 	adcseq	r0, r4, r0
      1c:	00040000 	andeq	r0, r4, r0
      20:	9f5001f3 	svcls	0x005001f3
	...
      2c:	0000001c 	andeq	r0, r0, ip, lsl r0
      30:	00000053 	andeq	r0, r0, r3, asr r0
      34:	58520001 	ldmdapl	r2, {r0}^
      38:	77000000 	strvc	r0, [r0, -r0]
      3c:	01000000 	mrseq	r0, (UNDEF: 0)
      40:	007c5200 	rsbseq	r5, ip, r0, lsl #4
      44:	00970000 	addseq	r0, r7, r0
      48:	00010000 	andeq	r0, r1, r0
      4c:	00009c52 	andeq	r9, r0, r2, asr ip
      50:	0000b400 	andeq	fp, r0, r0, lsl #8
      54:	52000100 	andpl	r0, r0, #0, 2
	...
      60:	0000002c 	andeq	r0, r0, ip, lsr #32
      64:	00000038 	andeq	r0, r0, r8, lsr r0
      68:	9f300002 	svcls	0x00300002
      6c:	00000038 	andeq	r0, r0, r8, lsr r0
      70:	00000038 	andeq	r0, r0, r8, lsr r0
      74:	38540001 	ldmdacc	r4, {r0}^
      78:	40000000 	andmi	r0, r0, r0
      7c:	02000000 	andeq	r0, r0, #0
      80:	409f3000 	addsmi	r3, pc, r0
      84:	b4000000 	strlt	r0, [r0], #-0
      88:	01000000 	mrseq	r0, (UNDEF: 0)
      8c:	00005400 	andeq	r5, r0, r0, lsl #8
      90:	00000000 	andeq	r0, r0, r0
      94:	001c0000 	andseq	r0, ip, r0
      98:	00530000 	subseq	r0, r3, r0
      9c:	00010000 	andeq	r0, r1, r0
      a0:	00000052 	andeq	r0, r0, r2, asr r0
      a4:	00000000 	andeq	r0, r0, r0
      a8:	00002000 	andeq	r2, r0, r0
      ac:	00002400 	andeq	r2, r0, r0, lsl #8
      b0:	53000100 	movwpl	r0, #256	; 0x100
	...
      bc:	00000058 	andeq	r0, r0, r8, asr r0
      c0:	00000077 	andeq	r0, r0, r7, ror r0
      c4:	00520001 	subseq	r0, r2, r1
      c8:	00000000 	andeq	r0, r0, r0
      cc:	5c000000 	stcpl	0, cr0, [r0], {-0}
      d0:	60000000 	andvs	r0, r0, r0
      d4:	01000000 	mrseq	r0, (UNDEF: 0)
      d8:	00005300 	andeq	r5, r0, r0, lsl #6
      dc:	00000000 	andeq	r0, r0, r0
      e0:	007c0000 	rsbseq	r0, ip, r0
      e4:	00970000 	addseq	r0, r7, r0
      e8:	00010000 	andeq	r0, r1, r0
      ec:	00000052 	andeq	r0, r0, r2, asr r0
      f0:	00000000 	andeq	r0, r0, r0
      f4:	00008000 	andeq	r8, r0, r0
      f8:	00008400 	andeq	r8, r0, r0, lsl #8
      fc:	53000100 	movwpl	r0, #256	; 0x100
	...
     108:	000000a0 	andeq	r0, r0, r0, lsr #1
     10c:	000000a4 	andeq	r0, r0, r4, lsr #1
     110:	00530001 	subseq	r0, r3, r1
     114:	00000000 	andeq	r0, r0, r0
     118:	b4000000 	strlt	r0, [r0], #-0
     11c:	c4000000 	strgt	r0, [r0], #-0
     120:	01000000 	mrseq	r0, (UNDEF: 0)
     124:	00c45000 	sbceq	r5, r4, r0
     128:	00f80000 	rscseq	r0, r8, r0
     12c:	00010000 	andeq	r0, r1, r0
     130:	0000f855 	andeq	pc, r0, r5, asr r8	; <UNPREDICTABLE>
     134:	00016800 	andeq	r6, r1, r0, lsl #16
     138:	f3000400 	vshl.u8	d0, d0, d0
     13c:	009f5001 	addseq	r5, pc, r1
     140:	00000000 	andeq	r0, r0, r0
     144:	d0000000 	andle	r0, r0, r0
     148:	07000000 	streq	r0, [r0, -r0]
     14c:	01000001 	tsteq	r0, r1
     150:	010c5200 	mrseq	r5, R12_fiq
     154:	012b0000 	teqeq	fp, r0
     158:	00010000 	andeq	r0, r1, r0
     15c:	00013052 	andeq	r3, r1, r2, asr r0
     160:	00014b00 	andeq	r4, r1, r0, lsl #22
     164:	52000100 	andpl	r0, r0, #0, 2
     168:	00000150 	andeq	r0, r0, r0, asr r1
     16c:	00000168 	andeq	r0, r0, r8, ror #2
     170:	00520001 	subseq	r0, r2, r1
     174:	00000000 	andeq	r0, r0, r0
     178:	e0000000 	and	r0, r0, r0
     17c:	ec000000 	stc	0, cr0, [r0], {-0}
     180:	02000000 	andeq	r0, r0, #0
     184:	ec9f3000 	ldc	0, cr3, [pc], {0}
     188:	ec000000 	stc	0, cr0, [r0], {-0}
     18c:	01000000 	mrseq	r0, (UNDEF: 0)
     190:	00ec5400 	rsceq	r5, ip, r0, lsl #8
     194:	00f40000 	rscseq	r0, r4, r0
     198:	00020000 	andeq	r0, r2, r0
     19c:	00f49f30 	rscseq	r9, r4, r0, lsr pc
     1a0:	01680000 	cmneq	r8, r0
     1a4:	00010000 	andeq	r0, r1, r0
     1a8:	00000054 	andeq	r0, r0, r4, asr r0
     1ac:	00000000 	andeq	r0, r0, r0
     1b0:	0000d000 	andeq	sp, r0, r0
     1b4:	00010700 	andeq	r0, r1, r0, lsl #14
     1b8:	52000100 	andpl	r0, r0, #0, 2
	...
     1c4:	000000d4 	ldrdeq	r0, [r0], -r4
     1c8:	000000d8 	ldrdeq	r0, [r0], -r8
     1cc:	00530001 	subseq	r0, r3, r1
     1d0:	00000000 	andeq	r0, r0, r0
     1d4:	0c000000 	stceq	0, cr0, [r0], {-0}
     1d8:	2b000001 	blcs	1e4 <_start-0x7e1c>
     1dc:	01000001 	tsteq	r0, r1
     1e0:	00005200 	andeq	r5, r0, r0, lsl #4
     1e4:	00000000 	andeq	r0, r0, r0
     1e8:	01100000 	tsteq	r0, r0
     1ec:	01140000 	tsteq	r4, r0
     1f0:	00010000 	andeq	r0, r1, r0
     1f4:	00000053 	andeq	r0, r0, r3, asr r0
     1f8:	00000000 	andeq	r0, r0, r0
     1fc:	00013000 	andeq	r3, r1, r0
     200:	00014b00 	andeq	r4, r1, r0, lsl #22
     204:	52000100 	andpl	r0, r0, #0, 2
	...
     210:	00000134 	andeq	r0, r0, r4, lsr r1
     214:	00000138 	andeq	r0, r0, r8, lsr r1
     218:	00530001 	subseq	r0, r3, r1
     21c:	00000000 	andeq	r0, r0, r0
     220:	54000000 	strpl	r0, [r0], #-0
     224:	58000001 	stmdapl	r0, {r0}
     228:	01000001 	tsteq	r0, r1
     22c:	00005300 	andeq	r5, r0, r0, lsl #6
     230:	00000000 	andeq	r0, r0, r0
     234:	01680000 	cmneq	r8, r0
     238:	016f0000 	cmneq	pc, r0
     23c:	00010000 	andeq	r0, r1, r0
     240:	00016f50 	andeq	r6, r1, r0, asr pc
     244:	00019400 	andeq	r9, r1, r0, lsl #8
     248:	f3000400 	vshl.u8	d0, d0, d0
     24c:	009f5001 	addseq	r5, pc, r1
     250:	00000000 	andeq	r0, r0, r0
     254:	2c000000 	stccs	0, cr0, [r0], {-0}
     258:	38000000 	stmdacc	r0, {}	; <UNPREDICTABLE>
     25c:	01000000 	mrseq	r0, (UNDEF: 0)
     260:	00385000 	eorseq	r5, r8, r0
     264:	00480000 	subeq	r0, r8, r0
     268:	00010000 	andeq	r0, r1, r0
     26c:	00004855 	andeq	r4, r0, r5, asr r8
     270:	00005800 	andeq	r5, r0, r0, lsl #16
     274:	50000100 	andpl	r0, r0, r0, lsl #2
	...
     284:	0000000b 	andeq	r0, r0, fp
     288:	0b500001 	bleq	1400294 <__bss_end__+0x13f628c>
     28c:	14000000 	strne	r0, [r0], #-0
     290:	01000000 	mrseq	r0, (UNDEF: 0)
     294:	00005400 	andeq	r5, r0, r0, lsl #8
	...
     2a0:	00100000 	andseq	r0, r0, r0
     2a4:	00010000 	andeq	r0, r1, r0
     2a8:	00001050 	andeq	r1, r0, r0, asr r0
     2ac:	00003400 	andeq	r3, r0, r0, lsl #8
     2b0:	54000100 	strpl	r0, [r0], #-256	; 0x100
	...
     2c0:	00000004 	andeq	r0, r0, r4
     2c4:	04500001 	ldrbeq	r0, [r0], #-1
     2c8:	0c000000 	stceq	0, cr0, [r0], {-0}
     2cc:	03000000 	movweq	r0, #0
     2d0:	9f307000 	svcls	0x00307000
     2d4:	0000000c 	andeq	r0, r0, ip
     2d8:	00000014 	andeq	r0, r0, r4, lsl r0
     2dc:	01f30004 	mvnseq	r0, r4
     2e0:	00009f50 	andeq	r9, r0, r0, asr pc
     2e4:	00000000 	andeq	r0, r0, r0
     2e8:	00140000 	andseq	r0, r4, r0
     2ec:	00200000 	eoreq	r0, r0, r0
     2f0:	00010000 	andeq	r0, r1, r0
     2f4:	00002050 	andeq	r2, r0, r0, asr r0
     2f8:	00002c00 	andeq	r2, r0, r0, lsl #24
     2fc:	70000300 	andvc	r0, r0, r0, lsl #6
     300:	002c9f01 	eoreq	r9, ip, r1, lsl #30
     304:	00400000 	subeq	r0, r0, r0
     308:	00010000 	andeq	r0, r1, r0
     30c:	00000050 	andeq	r0, r0, r0, asr r0
     310:	00000000 	andeq	r0, r0, r0
     314:	00001400 	andeq	r1, r0, r0, lsl #8
     318:	00001800 	andeq	r1, r0, r0, lsl #16
     31c:	51000100 	mrspl	r0, (UNDEF: 16)
     320:	00000018 	andeq	r0, r0, r8, lsl r0
     324:	00000040 	andeq	r0, r0, r0, asr #32
     328:	01f30004 	mvnseq	r0, r4
     32c:	00009f51 	andeq	r9, r0, r1, asr pc
     330:	00000000 	andeq	r0, r0, r0
     334:	00400000 	subeq	r0, r0, r0
     338:	00600000 	rsbeq	r0, r0, r0
     33c:	00010000 	andeq	r0, r1, r0
     340:	00006050 	andeq	r6, r0, r0, asr r0
     344:	00006c00 	andeq	r6, r0, r0, lsl #24
     348:	71000300 	mrsvc	r0, LR_irq
     34c:	006c9f01 	rsbeq	r9, ip, r1, lsl #30
     350:	00740000 	rsbseq	r0, r4, r0
     354:	00010000 	andeq	r0, r1, r0
     358:	00007451 	andeq	r7, r0, r1, asr r4
     35c:	00008000 	andeq	r8, r0, r0
     360:	71000300 	mrsvc	r0, LR_irq
     364:	00009f01 	andeq	r9, r0, r1, lsl #30
     368:	00000000 	andeq	r0, r0, r0
     36c:	00400000 	subeq	r0, r0, r0
     370:	00500000 	subseq	r0, r0, r0
     374:	00010000 	andeq	r0, r1, r0
     378:	00005051 	andeq	r5, r0, r1, asr r0
     37c:	00008000 	andeq	r8, r0, r0
     380:	f3000400 	vshl.u8	d0, d0, d0
     384:	009f5101 	addseq	r5, pc, r1, lsl #2
     388:	00000000 	andeq	r0, r0, r0
     38c:	40000000 	andmi	r0, r0, r0
     390:	58000000 	stmdapl	r0, {}	; <UNPREDICTABLE>
     394:	01000000 	mrseq	r0, (UNDEF: 0)
     398:	00585200 	subseq	r5, r8, r0, lsl #4
     39c:	00640000 	rsbeq	r0, r4, r0
     3a0:	00010000 	andeq	r0, r1, r0
     3a4:	00006452 	andeq	r6, r0, r2, asr r4
     3a8:	00006800 	andeq	r6, r0, r0, lsl #16
     3ac:	72000300 	andvc	r0, r0, #0, 6
     3b0:	00689f01 	rsbeq	r9, r8, r1, lsl #30
     3b4:	00800000 	addeq	r0, r0, r0
     3b8:	00010000 	andeq	r0, r1, r0
     3bc:	00000052 	andeq	r0, r0, r2, asr r0
     3c0:	00000000 	andeq	r0, r0, r0
     3c4:	00004000 	andeq	r4, r0, r0
     3c8:	00005400 	andeq	r5, r0, r0, lsl #8
     3cc:	53000100 	movwpl	r0, #256	; 0x100
     3d0:	00000054 	andeq	r0, r0, r4, asr r0
     3d4:	00000078 	andeq	r0, r0, r8, ror r0
     3d8:	00530001 	subseq	r0, r3, r1
     3dc:	00000000 	andeq	r0, r0, r0
     3e0:	48000000 	stmdami	r0, {}	; <UNPREDICTABLE>
     3e4:	60000000 	andvs	r0, r0, r0
     3e8:	01000000 	mrseq	r0, (UNDEF: 0)
     3ec:	00605c00 	rsbeq	r5, r0, r0, lsl #24
     3f0:	00800000 	addeq	r0, r0, r0
     3f4:	000a0000 	andeq	r0, sl, r0
     3f8:	f35201f3 	vbsl	q8, q9, <illegal reg q9.5>
     3fc:	231c5301 	tstcs	ip, #67108864	; 0x4000000
     400:	00009f01 	andeq	r9, r0, r1, lsl #30
     404:	00000000 	andeq	r0, r0, r0
     408:	00800000 	addeq	r0, r0, r0
     40c:	00a40000 	adceq	r0, r4, r0
     410:	00010000 	andeq	r0, r1, r0
     414:	0000a450 	andeq	sl, r0, r0, asr r4
     418:	00011800 	andeq	r1, r1, r0, lsl #16
     41c:	70000300 	andvc	r0, r0, r0, lsl #6
     420:	01189f02 	tsteq	r8, r2, lsl #30
     424:	02280000 	eoreq	r0, r8, #0
     428:	00040000 	andeq	r0, r4, r0
     42c:	9f5001f3 	svcls	0x005001f3
	...
     438:	00000080 	andeq	r0, r0, r0, lsl #1
     43c:	000000f0 	strdeq	r0, [r0], -r0	; <UNPREDICTABLE>
     440:	f0510001 			; <UNDEFINED> instruction: 0xf0510001
     444:	60000000 	andvs	r0, r0, r0
     448:	01000001 	tsteq	r0, r1
     44c:	01605500 	cmneq	r0, r0, lsl #10
     450:	01680000 	cmneq	r8, r0
     454:	00010000 	andeq	r0, r1, r0
     458:	00016851 	andeq	r6, r1, r1, asr r8
     45c:	00018800 	andeq	r8, r1, r0, lsl #16
     460:	55000100 	strpl	r0, [r0, #-256]	; 0x100
     464:	00000188 	andeq	r0, r0, r8, lsl #3
     468:	0000019c 	muleq	r0, ip, r1
     46c:	9c510001 	mrrcls	0, 0, r0, r1, cr1
     470:	bc000001 	stclt	0, cr0, [r0], {1}
     474:	01000001 	tsteq	r0, r1
     478:	01bc5500 			; <UNDEFINED> instruction: 0x01bc5500
     47c:	01bf0000 			; <UNDEFINED> instruction: 0x01bf0000
     480:	00010000 	andeq	r0, r1, r0
     484:	0001bf51 	andeq	fp, r1, r1, asr pc
     488:	00020800 	andeq	r0, r2, r0, lsl #16
     48c:	55000100 	strpl	r0, [r0, #-256]	; 0x100
     490:	00000208 	andeq	r0, r0, r8, lsl #4
     494:	00000228 	andeq	r0, r0, r8, lsr #4
     498:	01f30004 	mvnseq	r0, r4
     49c:	00009f51 	andeq	r9, r0, r1, asr pc
     4a0:	00000000 	andeq	r0, r0, r0
     4a4:	00800000 	addeq	r0, r0, r0
     4a8:	00940000 	addseq	r0, r4, r0
     4ac:	00010000 	andeq	r0, r1, r0
     4b0:	00009452 	andeq	r9, r0, r2, asr r4
     4b4:	00020800 	andeq	r0, r2, r0, lsl #16
     4b8:	54000100 	strpl	r0, [r0], #-256	; 0x100
     4bc:	00000208 	andeq	r0, r0, r8, lsl #4
     4c0:	00000228 	andeq	r0, r0, r8, lsr #4
     4c4:	01f30004 	mvnseq	r0, r4
     4c8:	00009f52 	andeq	r9, r0, r2, asr pc
     4cc:	00000000 	andeq	r0, r0, r0
     4d0:	00800000 	addeq	r0, r0, r0
     4d4:	01000000 	mrseq	r0, (UNDEF: 0)
     4d8:	00010000 	andeq	r0, r1, r0
     4dc:	00010453 	andeq	r0, r1, r3, asr r4
     4e0:	00010800 	andeq	r0, r1, r0, lsl #16
     4e4:	53000100 	movwpl	r0, #256	; 0x100
     4e8:	00000160 	andeq	r0, r0, r0, ror #2
     4ec:	00000168 	andeq	r0, r0, r8, ror #2
     4f0:	68530001 	ldmdavs	r3, {r0}^
     4f4:	88000001 	stmdahi	r0, {r0}
     4f8:	04000001 	streq	r0, [r0], #-1
     4fc:	5301f300 	movwpl	pc, #4864	; 0x1300	; <UNPREDICTABLE>
     500:	0001889f 	muleq	r1, pc, r8	; <UNPREDICTABLE>
     504:	00019000 	andeq	r9, r1, r0
     508:	53000100 	movwpl	r0, #256	; 0x100
     50c:	00000190 	muleq	r0, r0, r1
     510:	00000194 	muleq	r0, r4, r1
     514:	945c0001 	ldrbls	r0, [ip], #-1
     518:	9c000001 	stcls	0, cr0, [r0], {1}
     51c:	01000001 	tsteq	r0, r1
     520:	019c5300 	orrseq	r5, ip, r0, lsl #6
     524:	01bc0000 			; <UNDEFINED> instruction: 0x01bc0000
     528:	00040000 	andeq	r0, r4, r0
     52c:	9f5301f3 	svcls	0x005301f3
     530:	000001bc 			; <UNDEFINED> instruction: 0x000001bc
     534:	000001bf 			; <UNDEFINED> instruction: 0x000001bf
     538:	bf530001 	svclt	0x00530001
     53c:	e0000001 	and	r0, r0, r1
     540:	04000001 	streq	r0, [r0], #-1
     544:	5301f300 	movwpl	pc, #4864	; 0x1300	; <UNPREDICTABLE>
     548:	0000009f 	muleq	r0, pc, r0	; <UNPREDICTABLE>
     54c:	00000000 	andeq	r0, r0, r0
     550:	00008000 	andeq	r8, r0, r0
     554:	00009c00 	andeq	r9, r0, r0, lsl #24
     558:	91000200 	mrsls	r0, R8_usr
     55c:	00009c00 	andeq	r9, r0, r0, lsl #24
     560:	0001bf00 	andeq	fp, r1, r0, lsl #30
     564:	52000100 	andpl	r0, r0, #0, 2
     568:	000001e0 	andeq	r0, r0, r0, ror #3
     56c:	000001eb 	andeq	r0, r0, fp, ror #3
     570:	00520001 	subseq	r0, r2, r1
     574:	00000000 	andeq	r0, r0, r0
     578:	9c000000 	stcls	0, cr0, [r0], {-0}
     57c:	0c000000 	stceq	0, cr0, [r0], {-0}
     580:	04000001 	streq	r0, [r0], #-1
     584:	7fa09100 	svcvc	0x00a09100
     588:	00010c9f 	muleq	r1, pc, ip	; <UNPREDICTABLE>
     58c:	00011800 	andeq	r1, r1, r0, lsl #16
     590:	51000100 	mrspl	r0, (UNDEF: 16)
     594:	00000118 	andeq	r0, r0, r8, lsl r1
     598:	0000011c 	andeq	r0, r0, ip, lsl r1
     59c:	1c530001 	mrrcne	0, 0, r0, r3, cr1
     5a0:	20000001 	andcs	r0, r0, r1
     5a4:	01000001 	tsteq	r0, r1
     5a8:	01205100 	teqeq	r0, r0, lsl #2
     5ac:	01600000 	cmneq	r0, r0
     5b0:	00010000 	andeq	r0, r1, r0
     5b4:	00016053 	andeq	r6, r1, r3, asr r0
     5b8:	00016400 	andeq	r6, r1, r0, lsl #8
     5bc:	91000400 	tstls	r0, r0, lsl #8
     5c0:	649f7fa0 	ldrvs	r7, [pc], #4000	; 5c8 <_start-0x7a38>
     5c4:	6c000001 	stcvs	0, cr0, [r0], {1}
     5c8:	01000001 	tsteq	r0, r1
     5cc:	016c5e00 	cmneq	ip, r0, lsl #28
     5d0:	01880000 	orreq	r0, r8, r0
     5d4:	00010000 	andeq	r0, r1, r0
     5d8:	00018853 	andeq	r8, r1, r3, asr r8
     5dc:	00019000 	andeq	r9, r1, r0
     5e0:	91000400 	tstls	r0, r0, lsl #8
     5e4:	909f7fa1 	addsls	r7, pc, r1, lsr #31
     5e8:	94000001 	strls	r0, [r0], #-1
     5ec:	01000001 	tsteq	r0, r1
     5f0:	01945300 	orrseq	r5, r4, r0, lsl #6
     5f4:	01980000 	orrseq	r0, r8, r0
     5f8:	00040000 	andeq	r0, r4, r0
     5fc:	9f7fa091 	svcls	0x007fa091
     600:	00000198 	muleq	r0, r8, r1
     604:	000001a0 	andeq	r0, r0, r0, lsr #3
     608:	a05e0001 	subsge	r0, lr, r1
     60c:	bc000001 	stclt	0, cr0, [r0], {1}
     610:	01000001 	tsteq	r0, r1
     614:	01bc5300 			; <UNDEFINED> instruction: 0x01bc5300
     618:	01e00000 	mvneq	r0, r0
     61c:	00040000 	andeq	r0, r4, r0
     620:	9f7fa091 	svcls	0x007fa091
     624:	000001e0 	andeq	r0, r0, r0, ror #3
     628:	000001eb 	andeq	r0, r0, fp, ror #3
     62c:	00530001 	subseq	r0, r3, r1
     630:	00000000 	andeq	r0, r0, r0
     634:	a0000000 	andge	r0, r0, r0
     638:	ec000000 	stc	0, cr0, [r0], {-0}
     63c:	01000000 	mrseq	r0, (UNDEF: 0)
     640:	00ec5c00 	rsceq	r5, ip, r0, lsl #24
     644:	01000000 	mrseq	r0, (UNDEF: 0)
     648:	00010000 	andeq	r0, r1, r0
     64c:	00010053 	andeq	r0, r1, r3, asr r0
     650:	00010400 	andeq	r0, r1, r0, lsl #8
     654:	5c000100 	stfpls	f0, [r0], {-0}
     658:	00000104 	andeq	r0, r0, r4, lsl #2
     65c:	00000108 	andeq	r0, r0, r8, lsl #2
     660:	08530001 	ldmdaeq	r3, {r0}^
     664:	18000001 	stmdane	r0, {r0}
     668:	01000001 	tsteq	r0, r1
     66c:	01185c00 	tsteq	r8, r0, lsl #24
     670:	011c0000 	tsteq	ip, r0
     674:	00010000 	andeq	r0, r1, r0
     678:	00011c50 	andeq	r1, r1, r0, asr ip
     67c:	00013c00 	andeq	r3, r1, r0, lsl #24
     680:	5c000100 	stfpls	f0, [r0], {-0}
     684:	00000144 	andeq	r0, r0, r4, asr #2
     688:	00000158 	andeq	r0, r0, r8, asr r1
     68c:	58500001 	ldmdapl	r0, {r0}^
     690:	60000001 	andvs	r0, r0, r1
     694:	01000001 	tsteq	r0, r1
     698:	01605c00 	cmneq	r0, r0, lsl #24
     69c:	01680000 	cmneq	r8, r0
     6a0:	00010000 	andeq	r0, r1, r0
     6a4:	00016853 	andeq	r6, r1, r3, asr r8
     6a8:	00017800 	andeq	r7, r1, r0, lsl #16
     6ac:	5c000100 	stfpls	f0, [r0], {-0}
     6b0:	00000178 	andeq	r0, r0, r8, ror r1
     6b4:	00000180 	andeq	r0, r0, r0, lsl #3
     6b8:	007c0005 	rsbseq	r0, ip, r5
     6bc:	809f2534 	addshi	r2, pc, r4, lsr r5	; <UNPREDICTABLE>
     6c0:	88000001 	stmdahi	r0, {r0}
     6c4:	01000001 	tsteq	r0, r1
     6c8:	01885c00 	orreq	r5, r8, r0, lsl #24
     6cc:	01900000 	orrseq	r0, r0, r0
     6d0:	00010000 	andeq	r0, r1, r0
     6d4:	00019053 	andeq	r9, r1, r3, asr r0
     6d8:	00019400 	andeq	r9, r1, r0, lsl #8
     6dc:	5c000100 	stfpls	f0, [r0], {-0}
     6e0:	00000194 	muleq	r0, r4, r1
     6e4:	0000019c 	muleq	r0, ip, r1
     6e8:	9c530001 	mrrcls	0, 0, r0, r3, cr1
     6ec:	ac000001 	stcge	0, cr0, [r0], {1}
     6f0:	01000001 	tsteq	r0, r1
     6f4:	01ac5c00 			; <UNDEFINED> instruction: 0x01ac5c00
     6f8:	01b40000 			; <UNDEFINED> instruction: 0x01b40000
     6fc:	00050000 	andeq	r0, r5, r0
     700:	2531007c 	ldrcs	r0, [r1, #-124]!	; 0x7c
     704:	0001b49f 	muleq	r1, pc, r4	; <UNPREDICTABLE>
     708:	0001bc00 	andeq	fp, r1, r0, lsl #24
     70c:	5c000100 	stfpls	f0, [r0], {-0}
     710:	000001bc 			; <UNDEFINED> instruction: 0x000001bc
     714:	000001bf 			; <UNDEFINED> instruction: 0x000001bf
     718:	bf530001 	svclt	0x00530001
     71c:	e0000001 	and	r0, r0, r1
     720:	04000001 	streq	r0, [r0], #-1
     724:	5301f300 	movwpl	pc, #4864	; 0x1300	; <UNPREDICTABLE>
     728:	0001e09f 	muleq	r1, pc, r0	; <UNPREDICTABLE>
     72c:	0001eb00 	andeq	lr, r1, r0, lsl #22
     730:	5c000100 	stfpls	f0, [r0], {-0}
	...
     73c:	000000ec 	andeq	r0, r0, ip, ror #1
     740:	000000fc 	strdeq	r0, [r0], -ip
     744:	9f300002 	svcls	0x00300002
     748:	000000fc 	strdeq	r0, [r0], -ip
     74c:	00000104 	andeq	r0, r0, r4, lsl #2
     750:	9f310002 	svcls	0x00310002
     754:	00000104 	andeq	r0, r0, r4, lsl #2
     758:	00000108 	andeq	r0, r0, r8, lsl #2
     75c:	9f300002 	svcls	0x00300002
	...
     768:	00000228 	andeq	r0, r0, r8, lsr #4
     76c:	0000023b 	andeq	r0, r0, fp, lsr r2
     770:	3b500001 	blcc	140077c <__bss_end__+0x13f6774>
     774:	5c000002 	stcpl	0, cr0, [r0], {2}
     778:	04000002 	streq	r0, [r0], #-2
     77c:	5001f300 	andpl	pc, r1, r0, lsl #6
     780:	00025c9f 	muleq	r2, pc, ip	; <UNPREDICTABLE>
     784:	00029000 	andeq	r9, r2, r0
     788:	50000100 	andpl	r0, r0, r0, lsl #2
	...
     794:	00000228 	andeq	r0, r0, r8, lsr #4
     798:	0000023b 	andeq	r0, r0, fp, lsr r2
     79c:	3b510001 	blcc	14407a8 <__bss_end__+0x14367a0>
     7a0:	5c000002 	stcpl	0, cr0, [r0], {2}
     7a4:	04000002 	streq	r0, [r0], #-2
     7a8:	5101f300 	mrspl	pc, SP_irq	; <UNPREDICTABLE>
     7ac:	00025c9f 	muleq	r2, pc, ip	; <UNPREDICTABLE>
     7b0:	00029000 	andeq	r9, r2, r0
     7b4:	51000100 	mrspl	r0, (UNDEF: 16)
	...
     7c0:	00000290 	muleq	r0, r0, r2
     7c4:	000002bc 			; <UNDEFINED> instruction: 0x000002bc
     7c8:	bc500001 	mrrclt	0, 0, r0, r0, cr1	; <UNPREDICTABLE>
     7cc:	0c000002 	stceq	0, cr0, [r0], {2}
     7d0:	01000005 	tsteq	r0, r5
     7d4:	050c5a00 	streq	r5, [ip, #-2560]	; 0xa00
     7d8:	05240000 	streq	r0, [r4, #-0]!
     7dc:	00040000 	andeq	r0, r4, r0
     7e0:	9f5001f3 	svcls	0x005001f3
	...
     7ec:	00000290 	muleq	r0, r0, r2
     7f0:	000002a4 	andeq	r0, r0, r4, lsr #5
     7f4:	a4510001 	ldrbge	r0, [r1], #-1
     7f8:	bc000002 	stclt	0, cr0, [r0], {2}
     7fc:	03000002 	movweq	r0, #2
     800:	9f017100 	svcls	0x00017100
     804:	000002bc 			; <UNDEFINED> instruction: 0x000002bc
     808:	00000524 	andeq	r0, r0, r4, lsr #10
     80c:	01f30004 	mvnseq	r0, r4
     810:	00009f51 	andeq	r9, r0, r1, asr pc
     814:	00000000 	andeq	r0, r0, r0
     818:	02900000 	addseq	r0, r0, #0
     81c:	02c40000 	sbceq	r0, r4, #0
     820:	00010000 	andeq	r0, r1, r0
     824:	0002c452 	andeq	ip, r2, r2, asr r4
     828:	0002ec00 	andeq	lr, r2, r0, lsl #24
     82c:	52000100 	andpl	r0, r0, #0, 2
     830:	000002ec 	andeq	r0, r0, ip, ror #5
     834:	000004bc 			; <UNDEFINED> instruction: 0x000004bc
     838:	bc560001 	mrrclt	0, 0, r0, r6, cr1
     83c:	24000004 	strcs	r0, [r0], #-4
     840:	01000005 	tsteq	r0, r5
     844:	00005200 	andeq	r5, r0, r0, lsl #4
     848:	00000000 	andeq	r0, r0, r0
     84c:	02900000 	addseq	r0, r0, #0
     850:	02ac0000 	adceq	r0, ip, #0
     854:	00010000 	andeq	r0, r1, r0
     858:	00000053 	andeq	r0, r0, r3, asr r0
     85c:	00000000 	andeq	r0, r0, r0
     860:	0002a000 	andeq	sl, r2, r0
     864:	0002bc00 	andeq	fp, r2, r0, lsl #24
     868:	50000100 	andpl	r0, r0, r0, lsl #2
     86c:	000002bc 			; <UNDEFINED> instruction: 0x000002bc
     870:	000002c0 	andeq	r0, r0, r0, asr #5
     874:	c0540001 	subsgt	r0, r4, r1
     878:	cc000002 	stcgt	0, cr0, [r0], {2}
     87c:	03000002 	movweq	r0, #2
     880:	9f017400 	svcls	0x00017400
     884:	000002cc 	andeq	r0, r0, ip, asr #5
     888:	000002d8 	ldrdeq	r0, [r0], -r8
     88c:	d8540001 	ldmdale	r4, {r0}^
     890:	e4000002 	str	r0, [r0], #-2
     894:	03000002 	movweq	r0, #2
     898:	9f017400 	svcls	0x00017400
     89c:	000002e4 	andeq	r0, r0, r4, ror #5
     8a0:	000004c0 	andeq	r0, r0, r0, asr #9
     8a4:	c0540001 	subsgt	r0, r4, r1
     8a8:	cc000004 	stcgt	0, cr0, [r0], {4}
     8ac:	03000004 	movweq	r0, #4
     8b0:	9f017400 	svcls	0x00017400
     8b4:	000004cc 	andeq	r0, r0, ip, asr #9
     8b8:	000004f8 	strdeq	r0, [r0], -r8
     8bc:	f8540001 			; <UNDEFINED> instruction: 0xf8540001
     8c0:	04000004 	streq	r0, [r0], #-4
     8c4:	01000005 	tsteq	r0, r5
     8c8:	05045000 	streq	r5, [r4, #-0]
     8cc:	050c0000 	streq	r0, [ip, #-0]
     8d0:	00030000 	andeq	r0, r3, r0
     8d4:	009f0174 	addseq	r0, pc, r4, ror r1	; <UNPREDICTABLE>
     8d8:	00000000 	andeq	r0, r0, r0
     8dc:	a8000000 	stmdage	r0, {}	; <UNPREDICTABLE>
     8e0:	0c000002 	stceq	0, cr0, [r0], {2}
     8e4:	01000005 	tsteq	r0, r5
     8e8:	050c5800 	streq	r5, [ip, #-2048]	; 0x800
     8ec:	05240000 	streq	r0, [r4, #-0]!
     8f0:	000a0000 	andeq	r0, sl, r0
     8f4:	f35101f3 	vbsl	q8, <illegal reg q8.5>, <illegal reg q9.5>
     8f8:	31225001 	teqcc	r2, r1
     8fc:	00009f1c 	andeq	r9, r0, ip, lsl pc
     900:	00000000 	andeq	r0, r0, r0
     904:	03f40000 	mvnseq	r0, #0
     908:	03f80000 	mvnseq	r0, #0
     90c:	00010000 	andeq	r0, r1, r0
     910:	00041850 	andeq	r1, r4, r0, asr r8
     914:	00041c00 	andeq	r1, r4, r0, lsl #24
     918:	50000100 	andpl	r0, r0, r0, lsl #2
     91c:	0000043c 	andeq	r0, r0, ip, lsr r4
     920:	00000440 	andeq	r0, r0, r0, asr #8
     924:	60500001 	subsvs	r0, r0, r1
     928:	64000004 	strvs	r0, [r0], #-4
     92c:	01000004 	tsteq	r0, r4
     930:	046c5000 	strbteq	r5, [ip], #-0
     934:	04700000 	ldrbteq	r0, [r0], #-0
     938:	00010000 	andeq	r0, r1, r0
     93c:	00049050 	andeq	r9, r4, r0, asr r0
     940:	00049400 	andeq	r9, r4, r0, lsl #8
     944:	50000100 	andpl	r0, r0, r0, lsl #2
     948:	000004b8 			; <UNDEFINED> instruction: 0x000004b8
     94c:	000004e0 	andeq	r0, r0, r0, ror #9
     950:	00500001 	subseq	r0, r0, r1
     954:	00000000 	andeq	r0, r0, r0
     958:	ec000000 	stc	0, cr0, [r0], {-0}
     95c:	f4000002 	vst4.8	{d0-d3}, [r0], r2
     960:	02000002 	andeq	r0, r0, #2
     964:	f49f3000 			; <UNDEFINED> instruction: 0xf49f3000
     968:	f8000002 			; <UNDEFINED> instruction: 0xf8000002
     96c:	01000002 	tsteq	r0, r2
     970:	03045700 	movweq	r5, #18176	; 0x4700
     974:	04e00000 	strbteq	r0, [r0], #0
     978:	00010000 	andeq	r0, r1, r0
     97c:	00000057 	andeq	r0, r0, r7, asr r0
	...
     988:	00000c00 	andeq	r0, r0, r0, lsl #24
     98c:	50000100 	andpl	r0, r0, r0, lsl #2
     990:	0000000c 	andeq	r0, r0, ip
     994:	00000020 	andeq	r0, r0, r0, lsr #32
     998:	00540001 	subseq	r0, r4, r1
     99c:	00000000 	andeq	r0, r0, r0
     9a0:	34000000 	strcc	r0, [r0], #-0
     9a4:	3c000000 	stccc	0, cr0, [r0], {-0}
     9a8:	03000000 	movweq	r0, #0
     9ac:	9f047300 	svcls	0x00047300
     9b0:	0000003c 	andeq	r0, r0, ip, lsr r0
     9b4:	00000047 	andeq	r0, r0, r7, asr #32
     9b8:	00530001 	subseq	r0, r3, r1
     9bc:	00000000 	andeq	r0, r0, r0
     9c0:	48000000 	stmdami	r0, {}	; <UNPREDICTABLE>
     9c4:	74000000 	strvc	r0, [r0], #-0
     9c8:	01000000 	mrseq	r0, (UNDEF: 0)
     9cc:	00745000 	rsbseq	r5, r4, r0
     9d0:	00830000 	addeq	r0, r3, r0
     9d4:	00030000 	andeq	r0, r3, r0
     9d8:	009f7873 	addseq	r7, pc, r3, ror r8	; <UNPREDICTABLE>
     9dc:	00000000 	andeq	r0, r0, r0
     9e0:	bc000000 	stclt	0, cr0, [r0], {-0}
     9e4:	c0000088 	andgt	r0, r0, r8, lsl #1
     9e8:	02000088 	andeq	r0, r0, #136	; 0x88
     9ec:	c09f3000 	addsgt	r3, pc, r0
     9f0:	c4000088 	strgt	r0, [r0], #-136	; 0x88
     9f4:	01000088 	smlabbeq	r0, r8, r0, r0
     9f8:	00005000 	andeq	r5, r0, r0
     9fc:	00000000 	andeq	r0, r0, r0
     a00:	88d40000 	ldmhi	r4, {}^	; <UNPREDICTABLE>
     a04:	88d80000 	ldmhi	r8, {}^	; <UNPREDICTABLE>
     a08:	00020000 	andeq	r0, r2, r0
     a0c:	88d89f30 	ldmhi	r8, {r4, r5, r8, r9, sl, fp, ip, pc}^
     a10:	88dc0000 	ldmhi	ip, {}^	; <UNPREDICTABLE>
     a14:	00010000 	andeq	r0, r1, r0
     a18:	0088e053 	addeq	lr, r8, r3, asr r0
     a1c:	0088e800 	addeq	lr, r8, r0, lsl #16
     a20:	53000100 	movwpl	r0, #256	; 0x100
	...
     a30:	00000004 	andeq	r0, r0, r4
     a34:	04500001 	ldrbeq	r0, [r0], #-1
     a38:	0c000000 	stceq	0, cr0, [r0], {-0}
     a3c:	01000000 	mrseq	r0, (UNDEF: 0)
     a40:	000c5300 	andeq	r5, ip, r0, lsl #6
     a44:	00100000 	andseq	r0, r0, r0
     a48:	00010000 	andeq	r0, r1, r0
     a4c:	00001050 	andeq	r1, r0, r0, asr r0
     a50:	00001c00 	andeq	r1, r0, r0, lsl #24
     a54:	53000100 	movwpl	r0, #256	; 0x100
	...
     a60:	0000003c 	andeq	r0, r0, ip, lsr r0
     a64:	00000047 	andeq	r0, r0, r7, asr #32
     a68:	47500001 	ldrbmi	r0, [r0, -r1]
     a6c:	60000000 	andvs	r0, r0, r0
     a70:	01000000 	mrseq	r0, (UNDEF: 0)
     a74:	00005500 	andeq	r5, r0, r0, lsl #10
     a78:	00000000 	andeq	r0, r0, r0
     a7c:	00500000 	subseq	r0, r0, r0
     a80:	00540000 	subseq	r0, r4, r0
     a84:	00010000 	andeq	r0, r1, r0
     a88:	00000050 	andeq	r0, r0, r0, asr r0
     a8c:	00000000 	andeq	r0, r0, r0
     a90:	00006000 	andeq	r6, r0, r0
     a94:	00006c00 	andeq	r6, r0, r0, lsl #24
     a98:	50000100 	andpl	r0, r0, r0, lsl #2
     a9c:	0000006c 	andeq	r0, r0, ip, rrx
     aa0:	00000074 	andeq	r0, r0, r4, ror r0
     aa4:	01f30004 	mvnseq	r0, r4
     aa8:	00009f50 	andeq	r9, r0, r0, asr pc
     aac:	00000000 	andeq	r0, r0, r0
     ab0:	00740000 	rsbseq	r0, r4, r0
     ab4:	00800000 	addeq	r0, r0, r0
     ab8:	00010000 	andeq	r0, r1, r0
     abc:	00008050 	andeq	r8, r0, r0, asr r0
     ac0:	00008800 	andeq	r8, r0, r0, lsl #16
     ac4:	f3000400 	vshl.u8	d0, d0, d0
     ac8:	009f5001 	addseq	r5, pc, r1
	...
     ad4:	90000000 	andls	r0, r0, r0
     ad8:	01000000 	mrseq	r0, (UNDEF: 0)
     adc:	00905000 	addseq	r5, r0, r0
     ae0:	00d40000 	sbcseq	r0, r4, r0
     ae4:	00010000 	andeq	r0, r1, r0
     ae8:	00000054 	andeq	r0, r0, r4, asr r0
     aec:	00000000 	andeq	r0, r0, r0
     af0:	00004800 	andeq	r4, r0, r0, lsl #16
     af4:	00004c00 	andeq	r4, r0, r0, lsl #24
     af8:	55000100 	strpl	r0, [r0, #-256]	; 0x100
     afc:	00000054 	andeq	r0, r0, r4, asr r0
     b00:	00000058 	andeq	r0, r0, r8, asr r0
     b04:	60550001 	subsvs	r0, r5, r1
     b08:	64000000 	strvs	r0, [r0], #-0
     b0c:	01000000 	mrseq	r0, (UNDEF: 0)
     b10:	006c5500 	rsbeq	r5, ip, r0, lsl #10
     b14:	00700000 	rsbseq	r0, r0, r0
     b18:	00010000 	andeq	r0, r1, r0
     b1c:	00007855 	andeq	r7, r0, r5, asr r8
     b20:	00007c00 	andeq	r7, r0, r0, lsl #24
     b24:	55000100 	strpl	r0, [r0, #-256]	; 0x100
     b28:	00000084 	andeq	r0, r0, r4, lsl #1
     b2c:	00000088 	andeq	r0, r0, r8, lsl #1
     b30:	8c550001 	mrrchi	0, 0, r0, r5, cr1
     b34:	d4000000 	strle	r0, [r0], #-0
     b38:	01000000 	mrseq	r0, (UNDEF: 0)
     b3c:	00005500 	andeq	r5, r0, r0, lsl #10
     b40:	00000000 	andeq	r0, r0, r0
     b44:	001c0000 	andseq	r0, ip, r0
     b48:	00440000 	subeq	r0, r4, r0
     b4c:	00010000 	andeq	r0, r1, r0
     b50:	00004453 	andeq	r4, r0, r3, asr r4
     b54:	00004c00 	andeq	r4, r0, r0, lsl #24
     b58:	70001c00 	andvc	r1, r0, r0, lsl #24
     b5c:	f72cf700 			; <UNDEFINED> instruction: 0xf72cf700
     b60:	0825f425 	stmdaeq	r5!, {r0, r2, r5, sl, ip, sp, lr, pc}
     b64:	cccccccd 	stclgt	12, cr12, [ip], {205}	; 0xcd
     b68:	00000000 	andeq	r0, r0, r0
     b6c:	f720081e 			; <UNDEFINED> instruction: 0xf720081e
     b70:	2cf72525 	cfldr64cs	mvdx2, [r7], #148	; 0x94
     b74:	4c9f2533 	cfldr32mi	mvfx2, [pc], {51}	; 0x33
     b78:	50000000 	andpl	r0, r0, r0
     b7c:	01000000 	mrseq	r0, (UNDEF: 0)
     b80:	00505300 	subseq	r5, r0, r0, lsl #6
     b84:	00580000 	subseq	r0, r8, r0
     b88:	001c0000 	andseq	r0, ip, r0
     b8c:	2cf70070 	ldclcs	0, cr0, [r7], #448	; 0x1c0
     b90:	25f425f7 	ldrbcs	r2, [r4, #1527]!	; 0x5f7
     b94:	cccccd08 	stclgt	13, cr12, [ip], {8}
     b98:	000000cc 	andeq	r0, r0, ip, asr #1
     b9c:	20081e00 	andcs	r1, r8, r0, lsl #28
     ba0:	f72525f7 			; <UNDEFINED> instruction: 0xf72525f7
     ba4:	9f25332c 	svcls	0x0025332c
     ba8:	00000058 	andeq	r0, r0, r8, asr r0
     bac:	0000005c 	andeq	r0, r0, ip, asr r0
     bb0:	5c530001 	mrrcpl	0, 0, r0, r3, cr1
     bb4:	64000000 	strvs	r0, [r0], #-0
     bb8:	1c000000 	stcne	0, cr0, [r0], {-0}
     bbc:	f7007000 			; <UNDEFINED> instruction: 0xf7007000
     bc0:	f425f72c 	vld1.8	{d15}, [r5 :128], ip
     bc4:	cccd0825 	stclgt	8, cr0, [sp], {37}	; 0x25
     bc8:	0000cccc 	andeq	ip, r0, ip, asr #25
     bcc:	081e0000 	ldmdaeq	lr, {}	; <UNPREDICTABLE>
     bd0:	2525f720 	strcs	pc, [r5, #-1824]!	; 0x720
     bd4:	25332cf7 	ldrcs	r2, [r3, #-3319]!	; 0xcf7
     bd8:	0000649f 	muleq	r0, pc, r4	; <UNPREDICTABLE>
     bdc:	00006800 	andeq	r6, r0, r0, lsl #16
     be0:	53000100 	movwpl	r0, #256	; 0x100
     be4:	00000068 	andeq	r0, r0, r8, rrx
     be8:	00000070 	andeq	r0, r0, r0, ror r0
     bec:	0070001c 	rsbseq	r0, r0, ip, lsl r0
     bf0:	25f72cf7 	ldrbcs	r2, [r7, #3319]!	; 0xcf7
     bf4:	cd0825f4 	cfstr32gt	mvfx2, [r8, #-976]	; 0xfffffc30
     bf8:	00cccccc 	sbceq	ip, ip, ip, asr #25
     bfc:	1e000000 	cdpne	0, 0, cr0, cr0, cr0, {0}
     c00:	25f72008 	ldrbcs	r2, [r7, #8]!
     c04:	332cf725 	msrcc	CPSR_fs, #9699328	; 0x940000
     c08:	00709f25 	rsbseq	r9, r0, r5, lsr #30
     c0c:	00740000 	rsbseq	r0, r4, r0
     c10:	00010000 	andeq	r0, r1, r0
     c14:	00007453 	andeq	r7, r0, r3, asr r4
     c18:	00007c00 	andeq	r7, r0, r0, lsl #24
     c1c:	70001c00 	andvc	r1, r0, r0, lsl #24
     c20:	f72cf700 			; <UNDEFINED> instruction: 0xf72cf700
     c24:	0825f425 	stmdaeq	r5!, {r0, r2, r5, sl, ip, sp, lr, pc}
     c28:	cccccccd 	stclgt	12, cr12, [ip], {205}	; 0xcd
     c2c:	00000000 	andeq	r0, r0, r0
     c30:	f720081e 			; <UNDEFINED> instruction: 0xf720081e
     c34:	2cf72525 	cfldr64cs	mvdx2, [r7], #148	; 0x94
     c38:	7c9f2533 	cfldr32vc	mvfx2, [pc], {51}	; 0x33
     c3c:	80000000 	andhi	r0, r0, r0
     c40:	01000000 	mrseq	r0, (UNDEF: 0)
     c44:	00805300 	addeq	r5, r0, r0, lsl #6
     c48:	00880000 	addeq	r0, r8, r0
     c4c:	001c0000 	andseq	r0, ip, r0
     c50:	2cf70070 	ldclcs	0, cr0, [r7], #448	; 0x1c0
     c54:	25f425f7 	ldrbcs	r2, [r4, #1527]!	; 0x5f7
     c58:	cccccd08 	stclgt	13, cr12, [ip], {8}
     c5c:	000000cc 	andeq	r0, r0, ip, asr #1
     c60:	20081e00 	andcs	r1, r8, r0, lsl #28
     c64:	f72525f7 			; <UNDEFINED> instruction: 0xf72525f7
     c68:	9f25332c 	svcls	0x0025332c
     c6c:	00000088 	andeq	r0, r0, r8, lsl #1
     c70:	0000008c 	andeq	r0, r0, ip, lsl #1
     c74:	8c530001 	mrrchi	0, 0, r0, r3, cr1
     c78:	90000000 	andls	r0, r0, r0
     c7c:	1c000000 	stcne	0, cr0, [r0], {-0}
     c80:	f7007000 			; <UNDEFINED> instruction: 0xf7007000
     c84:	f425f72c 	vld1.8	{d15}, [r5 :128], ip
     c88:	cccd0825 	stclgt	8, cr0, [sp], {37}	; 0x25
     c8c:	0000cccc 	andeq	ip, r0, ip, asr #25
     c90:	081e0000 	ldmdaeq	lr, {}	; <UNPREDICTABLE>
     c94:	2525f720 	strcs	pc, [r5, #-1824]!	; 0x720
     c98:	25332cf7 	ldrcs	r2, [r3, #-3319]!	; 0xcf7
     c9c:	0000909f 	muleq	r0, pc, r0	; <UNPREDICTABLE>
     ca0:	00009800 	andeq	r9, r0, r0, lsl #16
     ca4:	74001c00 	strvc	r1, [r0], #-3072	; 0xc00
     ca8:	f72cf700 			; <UNDEFINED> instruction: 0xf72cf700
     cac:	0825f425 	stmdaeq	r5!, {r0, r2, r5, sl, ip, sp, lr, pc}
     cb0:	cccccccd 	stclgt	12, cr12, [ip], {205}	; 0xcd
     cb4:	00000000 	andeq	r0, r0, r0
     cb8:	f720081e 			; <UNDEFINED> instruction: 0xf720081e
     cbc:	2cf72525 	cfldr64cs	mvdx2, [r7], #148	; 0x94
     cc0:	989f2533 	ldmls	pc, {r0, r1, r4, r5, r8, sl, sp}	; <UNPREDICTABLE>
     cc4:	9c000000 	stcls	0, cr0, [r0], {-0}
     cc8:	17000000 	strne	r0, [r0, -r0]
     ccc:	f7007400 			; <UNDEFINED> instruction: 0xf7007400
     cd0:	7125f72c 	msrvc	SP_abt, ip
     cd4:	f72cf700 			; <UNDEFINED> instruction: 0xf72cf700
     cd8:	20081e25 	andcs	r1, r8, r5, lsr #28
     cdc:	f72525f7 			; <UNDEFINED> instruction: 0xf72525f7
     ce0:	9f25332c 	svcls	0x0025332c
     ce4:	0000009c 	muleq	r0, ip, r0
     ce8:	000000d4 	ldrdeq	r0, [r0], -r4
     cec:	0074001c 	rsbseq	r0, r4, ip, lsl r0
     cf0:	25f72cf7 	ldrbcs	r2, [r7, #3319]!	; 0xcf7
     cf4:	cd0825f4 	cfstr32gt	mvfx2, [r8, #-976]	; 0xfffffc30
     cf8:	00cccccc 	sbceq	ip, ip, ip, asr #25
     cfc:	1e000000 	cdpne	0, 0, cr0, cr0, cr0, {0}
     d00:	25f72008 	ldrbcs	r2, [r7, #8]!
     d04:	332cf725 	msrcc	CPSR_fs, #9699328	; 0x940000
     d08:	00009f25 	andeq	r9, r0, r5, lsr #30
     d0c:	00000000 	andeq	r0, r0, r0
     d10:	00940000 	addseq	r0, r4, r0
     d14:	00b80000 	adcseq	r0, r8, r0
     d18:	00010000 	andeq	r0, r1, r0
     d1c:	0000b850 	andeq	fp, r0, r0, asr r8
     d20:	0000c400 	andeq	ip, r0, r0, lsl #8
     d24:	31000800 	tstcc	r0, r0, lsl #16
     d28:	73240071 	teqvc	r4, #113	; 0x71
     d2c:	c49f2100 	ldrgt	r2, [pc], #256	; d34 <_start-0x72cc>
     d30:	c7000000 	strgt	r0, [r0, -r0]
     d34:	01000000 	mrseq	r0, (UNDEF: 0)
     d38:	00005100 	andeq	r5, r0, r0, lsl #2
     d3c:	00000000 	andeq	r0, r0, r0
     d40:	00d40000 	sbcseq	r0, r4, r0
     d44:	00f80000 	rscseq	r0, r8, r0
     d48:	00010000 	andeq	r0, r1, r0
     d4c:	0000f850 	andeq	pc, r0, r0, asr r8	; <UNPREDICTABLE>
     d50:	00010c00 	andeq	r0, r1, r0, lsl #24
     d54:	f3000400 	vshl.u8	d0, d0, d0
     d58:	009f5001 	addseq	r5, pc, r1
     d5c:	00000000 	andeq	r0, r0, r0
     d60:	e0000000 	and	r0, r0, r0
     d64:	e8000000 	stmda	r0, {}	; <UNPREDICTABLE>
     d68:	02000000 	andeq	r0, r0, #0
     d6c:	e89f3000 	ldm	pc, {ip, sp}	; <UNPREDICTABLE>
     d70:	e8000000 	stmda	r0, {}	; <UNPREDICTABLE>
     d74:	01000000 	mrseq	r0, (UNDEF: 0)
     d78:	00e85200 	rsceq	r5, r8, r0, lsl #4
     d7c:	00f00000 	rscseq	r0, r0, r0
     d80:	00020000 	andeq	r0, r2, r0
     d84:	00f09f30 	rscseq	r9, r0, r0, lsr pc
     d88:	01030000 	mrseq	r0, (UNDEF: 3)
     d8c:	00010000 	andeq	r0, r1, r0
     d90:	00000052 	andeq	r0, r0, r2, asr r0
     d94:	00000000 	andeq	r0, r0, r0
     d98:	0000e000 	andeq	lr, r0, r0
     d9c:	0000f400 	andeq	pc, r0, r0, lsl #8
     da0:	30000200 	andcc	r0, r0, r0, lsl #4
     da4:	0000f49f 	muleq	r0, pc, r4	; <UNPREDICTABLE>
     da8:	00010000 	andeq	r0, r1, r0
     dac:	31000500 	tstcc	r0, r0, lsl #10
     db0:	9f240073 	svcls	0x00240073
     db4:	00000100 	andeq	r0, r0, r0, lsl #2
     db8:	00000103 	andeq	r0, r0, r3, lsl #2
     dbc:	03510001 	cmpeq	r1, #1
     dc0:	0c000001 	stceq	0, cr0, [r0], {1}
     dc4:	08000001 	stmdaeq	r0, {r0}
     dc8:	01f33100 	mvnseq	r3, r0, lsl #2
     dcc:	241a4f50 	ldrcs	r4, [sl], #-3920	; 0xf50
     dd0:	0000009f 	muleq	r0, pc, r0	; <UNPREDICTABLE>
     dd4:	00000000 	andeq	r0, r0, r0
     dd8:	00010c00 	andeq	r0, r1, r0, lsl #24
     ddc:	00013000 	andeq	r3, r1, r0
     de0:	50000100 	andpl	r0, r0, r0, lsl #2
     de4:	00000130 	andeq	r0, r0, r0, lsr r1
     de8:	00000144 	andeq	r0, r0, r4, asr #2
     dec:	01f30004 	mvnseq	r0, r4
     df0:	00009f50 	andeq	r9, r0, r0, asr pc
     df4:	00000000 	andeq	r0, r0, r0
     df8:	01180000 	tsteq	r8, r0
     dfc:	01200000 	teqeq	r0, r0
     e00:	00020000 	andeq	r0, r2, r0
     e04:	01209f30 	teqeq	r0, r0, lsr pc
     e08:	01200000 	teqeq	r0, r0
     e0c:	00010000 	andeq	r0, r1, r0
     e10:	00012052 	andeq	r2, r1, r2, asr r0
     e14:	00012800 	andeq	r2, r1, r0, lsl #16
     e18:	30000200 	andcc	r0, r0, r0, lsl #4
     e1c:	0001289f 	muleq	r1, pc, r8	; <UNPREDICTABLE>
     e20:	00013b00 	andeq	r3, r1, r0, lsl #22
     e24:	52000100 	andpl	r0, r0, #0, 2
	...
     e30:	00000118 	andeq	r0, r0, r8, lsl r1
     e34:	0000012c 	andeq	r0, r0, ip, lsr #2
     e38:	9f300002 	svcls	0x00300002
     e3c:	0000012c 	andeq	r0, r0, ip, lsr #2
     e40:	00000138 	andeq	r0, r0, r8, lsr r1
     e44:	73310005 	teqvc	r1, #5
     e48:	389f2400 	ldmcc	pc, {sl, sp}	; <UNPREDICTABLE>
     e4c:	3b000001 	blcc	e58 <_start-0x71a8>
     e50:	01000001 	tsteq	r0, r1
     e54:	013b5100 	teqeq	fp, r0, lsl #2
     e58:	01440000 	mrseq	r0, (UNDEF: 68)
     e5c:	00080000 	andeq	r0, r8, r0
     e60:	5001f331 	andpl	pc, r1, r1, lsr r3	; <UNPREDICTABLE>
     e64:	9f241a4f 	svcls	0x00241a4f
	...
     e70:	00000144 	andeq	r0, r0, r4, asr #2
     e74:	000001d4 	ldrdeq	r0, [r0], -r4
     e78:	d4500001 	ldrble	r0, [r0], #-1
     e7c:	10000001 	andne	r0, r0, r1
     e80:	01000002 	tsteq	r0, r2
     e84:	00005400 	andeq	r5, r0, r0, lsl #8
     e88:	00000000 	andeq	r0, r0, r0
     e8c:	018c0000 	orreq	r0, ip, r0
     e90:	01900000 	orrseq	r0, r0, r0
     e94:	00010000 	andeq	r0, r1, r0
     e98:	00019855 	andeq	r9, r1, r5, asr r8
     e9c:	00019c00 	andeq	r9, r1, r0, lsl #24
     ea0:	55000100 	strpl	r0, [r0, #-256]	; 0x100
     ea4:	000001a4 	andeq	r0, r0, r4, lsr #3
     ea8:	000001a8 	andeq	r0, r0, r8, lsr #3
     eac:	b0550001 	subslt	r0, r5, r1
     eb0:	b4000001 	strlt	r0, [r0], #-1
     eb4:	01000001 	tsteq	r0, r1
     eb8:	01bc5500 			; <UNDEFINED> instruction: 0x01bc5500
     ebc:	01c00000 	biceq	r0, r0, r0
     ec0:	00010000 	andeq	r0, r1, r0
     ec4:	0001c855 	andeq	ip, r1, r5, asr r8
     ec8:	0001cc00 	andeq	ip, r1, r0, lsl #24
     ecc:	55000100 	strpl	r0, [r0, #-256]	; 0x100
     ed0:	000001d0 	ldrdeq	r0, [r0], -r0	; <UNPREDICTABLE>
     ed4:	00000210 	andeq	r0, r0, r0, lsl r2
     ed8:	00550001 	subseq	r0, r5, r1
     edc:	00000000 	andeq	r0, r0, r0
     ee0:	60000000 	andvs	r0, r0, r0
     ee4:	88000001 	stmdahi	r0, {r0}
     ee8:	01000001 	tsteq	r0, r1
     eec:	01885300 	orreq	r5, r8, r0, lsl #6
     ef0:	01900000 	orrseq	r0, r0, r0
     ef4:	001c0000 	andseq	r0, ip, r0
     ef8:	2cf70070 	ldclcs	0, cr0, [r7], #448	; 0x1c0
     efc:	25f425f7 	ldrbcs	r2, [r4, #1527]!	; 0x5f7
     f00:	cccccd08 	stclgt	13, cr12, [ip], {8}
     f04:	000000cc 	andeq	r0, r0, ip, asr #1
     f08:	20081e00 	andcs	r1, r8, r0, lsl #28
     f0c:	f72525f7 			; <UNDEFINED> instruction: 0xf72525f7
     f10:	9f25332c 	svcls	0x0025332c
     f14:	00000190 	muleq	r0, r0, r1
     f18:	00000194 	muleq	r0, r4, r1
     f1c:	94530001 	ldrbls	r0, [r3], #-1
     f20:	9c000001 	stcls	0, cr0, [r0], {1}
     f24:	1c000001 	stcne	0, cr0, [r0], {1}
     f28:	f7007000 			; <UNDEFINED> instruction: 0xf7007000
     f2c:	f425f72c 	vld1.8	{d15}, [r5 :128], ip
     f30:	cccd0825 	stclgt	8, cr0, [sp], {37}	; 0x25
     f34:	0000cccc 	andeq	ip, r0, ip, asr #25
     f38:	081e0000 	ldmdaeq	lr, {}	; <UNPREDICTABLE>
     f3c:	2525f720 	strcs	pc, [r5, #-1824]!	; 0x720
     f40:	25332cf7 	ldrcs	r2, [r3, #-3319]!	; 0xcf7
     f44:	00019c9f 	muleq	r1, pc, ip	; <UNPREDICTABLE>
     f48:	0001a000 	andeq	sl, r1, r0
     f4c:	53000100 	movwpl	r0, #256	; 0x100
     f50:	000001a0 	andeq	r0, r0, r0, lsr #3
     f54:	000001a8 	andeq	r0, r0, r8, lsr #3
     f58:	0070001c 	rsbseq	r0, r0, ip, lsl r0
     f5c:	25f72cf7 	ldrbcs	r2, [r7, #3319]!	; 0xcf7
     f60:	cd0825f4 	cfstr32gt	mvfx2, [r8, #-976]	; 0xfffffc30
     f64:	00cccccc 	sbceq	ip, ip, ip, asr #25
     f68:	1e000000 	cdpne	0, 0, cr0, cr0, cr0, {0}
     f6c:	25f72008 	ldrbcs	r2, [r7, #8]!
     f70:	332cf725 	msrcc	CPSR_fs, #9699328	; 0x940000
     f74:	01a89f25 			; <UNDEFINED> instruction: 0x01a89f25
     f78:	01ac0000 			; <UNDEFINED> instruction: 0x01ac0000
     f7c:	00010000 	andeq	r0, r1, r0
     f80:	0001ac53 	andeq	sl, r1, r3, asr ip
     f84:	0001b400 	andeq	fp, r1, r0, lsl #8
     f88:	70001c00 	andvc	r1, r0, r0, lsl #24
     f8c:	f72cf700 			; <UNDEFINED> instruction: 0xf72cf700
     f90:	0825f425 	stmdaeq	r5!, {r0, r2, r5, sl, ip, sp, lr, pc}
     f94:	cccccccd 	stclgt	12, cr12, [ip], {205}	; 0xcd
     f98:	00000000 	andeq	r0, r0, r0
     f9c:	f720081e 			; <UNDEFINED> instruction: 0xf720081e
     fa0:	2cf72525 	cfldr64cs	mvdx2, [r7], #148	; 0x94
     fa4:	b49f2533 	ldrlt	r2, [pc], #1331	; fac <_start-0x7054>
     fa8:	b8000001 	stmdalt	r0, {r0}
     fac:	01000001 	tsteq	r0, r1
     fb0:	01b85300 			; <UNDEFINED> instruction: 0x01b85300
     fb4:	01c00000 	biceq	r0, r0, r0
     fb8:	001c0000 	andseq	r0, ip, r0
     fbc:	2cf70070 	ldclcs	0, cr0, [r7], #448	; 0x1c0
     fc0:	25f425f7 	ldrbcs	r2, [r4, #1527]!	; 0x5f7
     fc4:	cccccd08 	stclgt	13, cr12, [ip], {8}
     fc8:	000000cc 	andeq	r0, r0, ip, asr #1
     fcc:	20081e00 	andcs	r1, r8, r0, lsl #28
     fd0:	f72525f7 			; <UNDEFINED> instruction: 0xf72525f7
     fd4:	9f25332c 	svcls	0x0025332c
     fd8:	000001c0 	andeq	r0, r0, r0, asr #3
     fdc:	000001c4 	andeq	r0, r0, r4, asr #3
     fe0:	c4530001 	ldrbgt	r0, [r3], #-1
     fe4:	cc000001 	stcgt	0, cr0, [r0], {1}
     fe8:	1c000001 	stcne	0, cr0, [r0], {1}
     fec:	f7007000 			; <UNDEFINED> instruction: 0xf7007000
     ff0:	f425f72c 	vld1.8	{d15}, [r5 :128], ip
     ff4:	cccd0825 	stclgt	8, cr0, [sp], {37}	; 0x25
     ff8:	0000cccc 	andeq	ip, r0, ip, asr #25
     ffc:	081e0000 	ldmdaeq	lr, {}	; <UNPREDICTABLE>
    1000:	2525f720 	strcs	pc, [r5, #-1824]!	; 0x720
    1004:	25332cf7 	ldrcs	r2, [r3, #-3319]!	; 0xcf7
    1008:	0001cc9f 	muleq	r1, pc, ip	; <UNPREDICTABLE>
    100c:	0001d000 	andeq	sp, r1, r0
    1010:	53000100 	movwpl	r0, #256	; 0x100
    1014:	000001d0 	ldrdeq	r0, [r0], -r0	; <UNPREDICTABLE>
    1018:	000001d4 	ldrdeq	r0, [r0], -r4
    101c:	0070001c 	rsbseq	r0, r0, ip, lsl r0
    1020:	25f72cf7 	ldrbcs	r2, [r7, #3319]!	; 0xcf7
    1024:	cd0825f4 	cfstr32gt	mvfx2, [r8, #-976]	; 0xfffffc30
    1028:	00cccccc 	sbceq	ip, ip, ip, asr #25
    102c:	1e000000 	cdpne	0, 0, cr0, cr0, cr0, {0}
    1030:	25f72008 	ldrbcs	r2, [r7, #8]!
    1034:	332cf725 	msrcc	CPSR_fs, #9699328	; 0x940000
    1038:	01d49f25 	bicseq	r9, r4, r5, lsr #30
    103c:	01dc0000 	bicseq	r0, ip, r0
    1040:	001c0000 	andseq	r0, ip, r0
    1044:	2cf70074 	ldclcs	0, cr0, [r7], #464	; 0x1d0
    1048:	25f425f7 	ldrbcs	r2, [r4, #1527]!	; 0x5f7
    104c:	cccccd08 	stclgt	13, cr12, [ip], {8}
    1050:	000000cc 	andeq	r0, r0, ip, asr #1
    1054:	20081e00 	andcs	r1, r8, r0, lsl #28
    1058:	f72525f7 			; <UNDEFINED> instruction: 0xf72525f7
    105c:	9f25332c 	svcls	0x0025332c
    1060:	000001dc 	ldrdeq	r0, [r0], -ip
    1064:	000001e0 	andeq	r0, r0, r0, ror #3
    1068:	00740017 	rsbseq	r0, r4, r7, lsl r0
    106c:	25f72cf7 	ldrbcs	r2, [r7, #3319]!	; 0xcf7
    1070:	2cf70071 	ldclcs	0, cr0, [r7], #452	; 0x1c4
    1074:	081e25f7 	ldmdaeq	lr, {r0, r1, r2, r4, r5, r6, r7, r8, sl, sp}
    1078:	2525f720 	strcs	pc, [r5, #-1824]!	; 0x720
    107c:	25332cf7 	ldrcs	r2, [r3, #-3319]!	; 0xcf7
    1080:	0001e09f 	muleq	r1, pc, r0	; <UNPREDICTABLE>
    1084:	00021000 	andeq	r1, r2, r0
    1088:	74001c00 	strvc	r1, [r0], #-3072	; 0xc00
    108c:	f72cf700 			; <UNDEFINED> instruction: 0xf72cf700
    1090:	0825f425 	stmdaeq	r5!, {r0, r2, r5, sl, ip, sp, lr, pc}
    1094:	cccccccd 	stclgt	12, cr12, [ip], {205}	; 0xcd
    1098:	00000000 	andeq	r0, r0, r0
    109c:	f720081e 			; <UNDEFINED> instruction: 0xf720081e
    10a0:	2cf72525 	cfldr64cs	mvdx2, [r7], #148	; 0x94
    10a4:	009f2533 	addseq	r2, pc, r3, lsr r5	; <UNPREDICTABLE>
    10a8:	00000000 	andeq	r0, r0, r0
    10ac:	d8000000 	stmdale	r0, {}	; <UNPREDICTABLE>
    10b0:	fc000001 	stc2	0, cr0, [r0], {1}
    10b4:	01000001 	tsteq	r0, r1
    10b8:	01fc5000 	mvnseq	r5, r0
    10bc:	02030000 	andeq	r0, r3, #0
    10c0:	00010000 	andeq	r0, r1, r0
    10c4:	00000051 	andeq	r0, r0, r1, asr r0
    10c8:	00000000 	andeq	r0, r0, r0
    10cc:	00021000 	andeq	r1, r2, r0
    10d0:	00022c00 	andeq	r2, r2, r0, lsl #24
    10d4:	50000100 	andpl	r0, r0, r0, lsl #2
    10d8:	0000022c 	andeq	r0, r0, ip, lsr #4
    10dc:	00000234 	andeq	r0, r0, r4, lsr r2
    10e0:	34540001 	ldrbcc	r0, [r4], #-1
    10e4:	3c000002 	stccc	0, cr0, [r0], {2}
    10e8:	01000002 	tsteq	r0, r2
    10ec:	023c5000 	eorseq	r5, ip, #0
    10f0:	02440000 	subeq	r0, r4, #0
    10f4:	00010000 	andeq	r0, r1, r0
    10f8:	00024454 	andeq	r4, r2, r4, asr r4
    10fc:	00025000 	andeq	r5, r2, r0
    1100:	f3000400 	vshl.u8	d0, d0, d0
    1104:	509f5001 	addspl	r5, pc, r1
    1108:	54000002 	strpl	r0, [r0], #-2
    110c:	01000002 	tsteq	r0, r2
    1110:	02545000 	subseq	r5, r4, #0
    1114:	025c0000 	subseq	r0, ip, #0
    1118:	00010000 	andeq	r0, r1, r0
    111c:	00000054 	andeq	r0, r0, r4, asr r0
    1120:	00000000 	andeq	r0, r0, r0
    1124:	00022000 	andeq	r2, r2, r0
    1128:	00023000 	andeq	r3, r2, r0
    112c:	30000200 	andcc	r0, r0, r0, lsl #4
    1130:	0002309f 	muleq	r2, pc, r0	; <UNPREDICTABLE>
    1134:	00023400 	andeq	r3, r2, r0, lsl #8
    1138:	50000100 	andpl	r0, r0, r0, lsl #2
    113c:	00000234 	andeq	r0, r0, r4, lsr r2
    1140:	00000240 	andeq	r0, r0, r0, asr #4
    1144:	9f300002 	svcls	0x00300002
    1148:	00000240 	andeq	r0, r0, r0, asr #4
    114c:	0000024c 	andeq	r0, r0, ip, asr #4
    1150:	00500001 	subseq	r0, r0, r1
    1154:	00000000 	andeq	r0, r0, r0
    1158:	5c000000 	stcpl	0, cr0, [r0], {-0}
    115c:	73000002 	movwvc	r0, #2
    1160:	01000002 	tsteq	r0, r2
    1164:	02735000 	rsbseq	r5, r3, #0
    1168:	02780000 	rsbseq	r0, r8, #0
    116c:	00040000 	andeq	r0, r4, r0
    1170:	9f5001f3 	svcls	0x005001f3
    1174:	00000278 	andeq	r0, r0, r8, ror r2
    1178:	0000027b 	andeq	r0, r0, fp, ror r2
    117c:	7b500001 	blvc	1401188 <__bss_end__+0x13f7180>
    1180:	80000002 	andhi	r0, r0, r2
    1184:	04000002 	streq	r0, [r0], #-2
    1188:	5001f300 	andpl	pc, r1, r0, lsl #6
    118c:	0000009f 	muleq	r0, pc, r0	; <UNPREDICTABLE>
    1190:	00000000 	andeq	r0, r0, r0
    1194:	00025c00 	andeq	r5, r2, r0, lsl #24
    1198:	00027300 	andeq	r7, r2, r0, lsl #6
    119c:	51000100 	mrspl	r0, (UNDEF: 16)
    11a0:	00000273 	andeq	r0, r0, r3, ror r2
    11a4:	00000278 	andeq	r0, r0, r8, ror r2
    11a8:	01f30004 	mvnseq	r0, r4
    11ac:	02789f51 	rsbseq	r9, r8, #324	; 0x144
    11b0:	027b0000 	rsbseq	r0, fp, #0
    11b4:	00010000 	andeq	r0, r1, r0
    11b8:	00027b51 	andeq	r7, r2, r1, asr fp
    11bc:	00028000 	andeq	r8, r2, r0
    11c0:	f3000400 	vshl.u8	d0, d0, d0
    11c4:	009f5101 	addseq	r5, pc, r1, lsl #2
    11c8:	00000000 	andeq	r0, r0, r0
    11cc:	80000000 	andhi	r0, r0, r0
    11d0:	18000002 	stmdane	r0, {r1}
    11d4:	01000003 	tsteq	r0, r3
    11d8:	03185000 	tsteq	r8, #0
    11dc:	03580000 	cmpeq	r8, #0
    11e0:	00010000 	andeq	r0, r1, r0
    11e4:	00000054 	andeq	r0, r0, r4, asr r0
    11e8:	00000000 	andeq	r0, r0, r0
    11ec:	00028000 	andeq	r8, r2, r0
    11f0:	00031b00 	andeq	r1, r3, r0, lsl #22
    11f4:	51000100 	mrspl	r0, (UNDEF: 16)
    11f8:	0000031b 	andeq	r0, r0, fp, lsl r3
    11fc:	00000358 	andeq	r0, r0, r8, asr r3
    1200:	01f30004 	mvnseq	r0, r4
    1204:	00009f51 	andeq	r9, r0, r1, asr pc
    1208:	00000000 	andeq	r0, r0, r0
    120c:	02d00000 	sbcseq	r0, r0, #0
    1210:	02d40000 	sbcseq	r0, r4, #0
    1214:	00010000 	andeq	r0, r1, r0
    1218:	0002dc56 	andeq	sp, r2, r6, asr ip
    121c:	0002e000 	andeq	lr, r2, r0
    1220:	56000100 	strpl	r0, [r0], -r0, lsl #2
    1224:	000002e8 	andeq	r0, r0, r8, ror #5
    1228:	000002ec 	andeq	r0, r0, ip, ror #5
    122c:	f4560001 			; <UNDEFINED> instruction: 0xf4560001
    1230:	f8000002 			; <UNDEFINED> instruction: 0xf8000002
    1234:	01000002 	tsteq	r0, r2
    1238:	03005600 	movweq	r5, #1536	; 0x600
    123c:	03040000 	movweq	r0, #16384	; 0x4000
    1240:	00010000 	andeq	r0, r1, r0
    1244:	00030c56 	andeq	r0, r3, r6, asr ip
    1248:	00031000 	andeq	r1, r3, r0
    124c:	56000100 	strpl	r0, [r0], -r0, lsl #2
    1250:	00000314 	andeq	r0, r0, r4, lsl r3
    1254:	00000358 	andeq	r0, r0, r8, asr r3
    1258:	00560001 	subseq	r0, r6, r1
    125c:	00000000 	andeq	r0, r0, r0
    1260:	a4000000 	strge	r0, [r0], #-0
    1264:	cc000002 	stcgt	0, cr0, [r0], {2}
    1268:	01000002 	tsteq	r0, r2
    126c:	02cc5300 	sbceq	r5, ip, #0, 6
    1270:	02d40000 	sbcseq	r0, r4, #0
    1274:	001c0000 	andseq	r0, ip, r0
    1278:	2cf70070 	ldclcs	0, cr0, [r7], #448	; 0x1c0
    127c:	25f425f7 	ldrbcs	r2, [r4, #1527]!	; 0x5f7
    1280:	cccccd08 	stclgt	13, cr12, [ip], {8}
    1284:	000000cc 	andeq	r0, r0, ip, asr #1
    1288:	20081e00 	andcs	r1, r8, r0, lsl #28
    128c:	f72525f7 			; <UNDEFINED> instruction: 0xf72525f7
    1290:	9f25332c 	svcls	0x0025332c
    1294:	000002d4 	ldrdeq	r0, [r0], -r4
    1298:	000002d8 	ldrdeq	r0, [r0], -r8
    129c:	d8530001 	ldmdale	r3, {r0}^
    12a0:	e0000002 	and	r0, r0, r2
    12a4:	1c000002 	stcne	0, cr0, [r0], {2}
    12a8:	f7007000 			; <UNDEFINED> instruction: 0xf7007000
    12ac:	f425f72c 	vld1.8	{d15}, [r5 :128], ip
    12b0:	cccd0825 	stclgt	8, cr0, [sp], {37}	; 0x25
    12b4:	0000cccc 	andeq	ip, r0, ip, asr #25
    12b8:	081e0000 	ldmdaeq	lr, {}	; <UNPREDICTABLE>
    12bc:	2525f720 	strcs	pc, [r5, #-1824]!	; 0x720
    12c0:	25332cf7 	ldrcs	r2, [r3, #-3319]!	; 0xcf7
    12c4:	0002e09f 	muleq	r2, pc, r0	; <UNPREDICTABLE>
    12c8:	0002e400 	andeq	lr, r2, r0, lsl #8
    12cc:	53000100 	movwpl	r0, #256	; 0x100
    12d0:	000002e4 	andeq	r0, r0, r4, ror #5
    12d4:	000002ec 	andeq	r0, r0, ip, ror #5
    12d8:	0070001c 	rsbseq	r0, r0, ip, lsl r0
    12dc:	25f72cf7 	ldrbcs	r2, [r7, #3319]!	; 0xcf7
    12e0:	cd0825f4 	cfstr32gt	mvfx2, [r8, #-976]	; 0xfffffc30
    12e4:	00cccccc 	sbceq	ip, ip, ip, asr #25
    12e8:	1e000000 	cdpne	0, 0, cr0, cr0, cr0, {0}
    12ec:	25f72008 	ldrbcs	r2, [r7, #8]!
    12f0:	332cf725 	msrcc	CPSR_fs, #9699328	; 0x940000
    12f4:	02ec9f25 	rsceq	r9, ip, #37, 30	; 0x94
    12f8:	02f00000 	rscseq	r0, r0, #0
    12fc:	00010000 	andeq	r0, r1, r0
    1300:	0002f053 	andeq	pc, r2, r3, asr r0	; <UNPREDICTABLE>
    1304:	0002f800 	andeq	pc, r2, r0, lsl #16
    1308:	70001c00 	andvc	r1, r0, r0, lsl #24
    130c:	f72cf700 			; <UNDEFINED> instruction: 0xf72cf700
    1310:	0825f425 	stmdaeq	r5!, {r0, r2, r5, sl, ip, sp, lr, pc}
    1314:	cccccccd 	stclgt	12, cr12, [ip], {205}	; 0xcd
    1318:	00000000 	andeq	r0, r0, r0
    131c:	f720081e 			; <UNDEFINED> instruction: 0xf720081e
    1320:	2cf72525 	cfldr64cs	mvdx2, [r7], #148	; 0x94
    1324:	f89f2533 			; <UNDEFINED> instruction: 0xf89f2533
    1328:	fc000002 	stc2	0, cr0, [r0], {2}
    132c:	01000002 	tsteq	r0, r2
    1330:	02fc5300 	rscseq	r5, ip, #0, 6
    1334:	03040000 	movweq	r0, #16384	; 0x4000
    1338:	001c0000 	andseq	r0, ip, r0
    133c:	2cf70070 	ldclcs	0, cr0, [r7], #448	; 0x1c0
    1340:	25f425f7 	ldrbcs	r2, [r4, #1527]!	; 0x5f7
    1344:	cccccd08 	stclgt	13, cr12, [ip], {8}
    1348:	000000cc 	andeq	r0, r0, ip, asr #1
    134c:	20081e00 	andcs	r1, r8, r0, lsl #28
    1350:	f72525f7 			; <UNDEFINED> instruction: 0xf72525f7
    1354:	9f25332c 	svcls	0x0025332c
    1358:	00000304 	andeq	r0, r0, r4, lsl #6
    135c:	00000308 	andeq	r0, r0, r8, lsl #6
    1360:	08530001 	ldmdaeq	r3, {r0}^
    1364:	10000003 	andne	r0, r0, r3
    1368:	1c000003 	stcne	0, cr0, [r0], {3}
    136c:	f7007000 			; <UNDEFINED> instruction: 0xf7007000
    1370:	f425f72c 	vld1.8	{d15}, [r5 :128], ip
    1374:	cccd0825 	stclgt	8, cr0, [sp], {37}	; 0x25
    1378:	0000cccc 	andeq	ip, r0, ip, asr #25
    137c:	081e0000 	ldmdaeq	lr, {}	; <UNPREDICTABLE>
    1380:	2525f720 	strcs	pc, [r5, #-1824]!	; 0x720
    1384:	25332cf7 	ldrcs	r2, [r3, #-3319]!	; 0xcf7
    1388:	0003109f 	muleq	r3, pc, r0	; <UNPREDICTABLE>
    138c:	00031400 	andeq	r1, r3, r0, lsl #8
    1390:	53000100 	movwpl	r0, #256	; 0x100
    1394:	00000314 	andeq	r0, r0, r4, lsl r3
    1398:	00000318 	andeq	r0, r0, r8, lsl r3
    139c:	0070001c 	rsbseq	r0, r0, ip, lsl r0
    13a0:	25f72cf7 	ldrbcs	r2, [r7, #3319]!	; 0xcf7
    13a4:	cd0825f4 	cfstr32gt	mvfx2, [r8, #-976]	; 0xfffffc30
    13a8:	00cccccc 	sbceq	ip, ip, ip, asr #25
    13ac:	1e000000 	cdpne	0, 0, cr0, cr0, cr0, {0}
    13b0:	25f72008 	ldrbcs	r2, [r7, #8]!
    13b4:	332cf725 	msrcc	CPSR_fs, #9699328	; 0x940000
    13b8:	03189f25 	tsteq	r8, #37, 30	; 0x94
    13bc:	03200000 	teqeq	r0, #0
    13c0:	001c0000 	andseq	r0, ip, r0
    13c4:	2cf70074 	ldclcs	0, cr0, [r7], #464	; 0x1d0
    13c8:	25f425f7 	ldrbcs	r2, [r4, #1527]!	; 0x5f7
    13cc:	cccccd08 	stclgt	13, cr12, [ip], {8}
    13d0:	000000cc 	andeq	r0, r0, ip, asr #1
    13d4:	20081e00 	andcs	r1, r8, r0, lsl #28
    13d8:	f72525f7 			; <UNDEFINED> instruction: 0xf72525f7
    13dc:	9f25332c 	svcls	0x0025332c
    13e0:	00000320 	andeq	r0, r0, r0, lsr #6
    13e4:	00000324 	andeq	r0, r0, r4, lsr #6
    13e8:	00740017 	rsbseq	r0, r4, r7, lsl r0
    13ec:	25f72cf7 	ldrbcs	r2, [r7, #3319]!	; 0xcf7
    13f0:	2cf70073 	ldclcs	0, cr0, [r7], #460	; 0x1cc
    13f4:	081e25f7 	ldmdaeq	lr, {r0, r1, r2, r4, r5, r6, r7, r8, sl, sp}
    13f8:	2525f720 	strcs	pc, [r5, #-1824]!	; 0x720
    13fc:	25332cf7 	ldrcs	r2, [r3, #-3319]!	; 0xcf7
    1400:	0003249f 	muleq	r3, pc, r4	; <UNPREDICTABLE>
    1404:	00035800 	andeq	r5, r3, r0, lsl #16
    1408:	74001c00 	strvc	r1, [r0], #-3072	; 0xc00
    140c:	f72cf700 			; <UNDEFINED> instruction: 0xf72cf700
    1410:	0825f425 	stmdaeq	r5!, {r0, r2, r5, sl, ip, sp, lr, pc}
    1414:	cccccccd 	stclgt	12, cr12, [ip], {205}	; 0xcd
    1418:	00000000 	andeq	r0, r0, r0
    141c:	f720081e 			; <UNDEFINED> instruction: 0xf720081e
    1420:	2cf72525 	cfldr64cs	mvdx2, [r7], #148	; 0x94
    1424:	009f2533 	addseq	r2, pc, r3, lsr r5	; <UNPREDICTABLE>
    1428:	00000000 	andeq	r0, r0, r0
    142c:	1c000000 	stcne	0, cr0, [r0], {-0}
    1430:	40000003 	andmi	r0, r0, r3
    1434:	01000003 	tsteq	r0, r3
    1438:	03405000 	movteq	r5, #0
    143c:	03480000 	movteq	r0, #32768	; 0x8000
    1440:	00090000 	andeq	r0, r9, r0
    1444:	00730075 	rsbseq	r0, r3, r5, ror r0
    1448:	21007124 	tstcs	r0, r4, lsr #2
    144c:	0003489f 	muleq	r3, pc, r8	; <UNPREDICTABLE>
    1450:	00034b00 	andeq	r4, r3, r0, lsl #22
    1454:	51000100 	mrspl	r0, (UNDEF: 16)
	...
    1460:	00000358 	andeq	r0, r0, r8, asr r3
    1464:	0000037c 	andeq	r0, r0, ip, ror r3
    1468:	7c500001 	mrrcvc	0, 0, r0, r0, cr1	; <UNPREDICTABLE>
    146c:	90000003 	andls	r0, r0, r3
    1470:	04000003 	streq	r0, [r0], #-3
    1474:	5001f300 	andpl	pc, r1, r0, lsl #6
    1478:	0000009f 	muleq	r0, pc, r0	; <UNPREDICTABLE>
    147c:	00000000 	andeq	r0, r0, r0
    1480:	00036400 	andeq	r6, r3, r0, lsl #8
    1484:	00036c00 	andeq	r6, r3, r0, lsl #24
    1488:	30000200 	andcc	r0, r0, r0, lsl #4
    148c:	00036c9f 	muleq	r3, pc, ip	; <UNPREDICTABLE>
    1490:	00036c00 	andeq	r6, r3, r0, lsl #24
    1494:	52000100 	andpl	r0, r0, #0, 2
    1498:	0000036c 	andeq	r0, r0, ip, ror #6
    149c:	00000374 	andeq	r0, r0, r4, ror r3
    14a0:	9f300002 	svcls	0x00300002
    14a4:	00000374 	andeq	r0, r0, r4, ror r3
    14a8:	00000387 	andeq	r0, r0, r7, lsl #7
    14ac:	00520001 	subseq	r0, r2, r1
    14b0:	00000000 	andeq	r0, r0, r0
    14b4:	64000000 	strvs	r0, [r0], #-0
    14b8:	78000003 	stmdavc	r0, {r0, r1}
    14bc:	02000003 	andeq	r0, r0, #3
    14c0:	789f3000 	ldmvc	pc, {ip, sp}	; <UNPREDICTABLE>
    14c4:	84000003 	strhi	r0, [r0], #-3
    14c8:	05000003 	streq	r0, [r0, #-3]
    14cc:	00733100 	rsbseq	r3, r3, r0, lsl #2
    14d0:	03849f24 	orreq	r9, r4, #36, 30	; 0x90
    14d4:	03870000 	orreq	r0, r7, #0
    14d8:	00010000 	andeq	r0, r1, r0
    14dc:	00038751 	andeq	r8, r3, r1, asr r7
    14e0:	00039000 	andeq	r9, r3, r0
    14e4:	31000800 	tstcc	r0, r0, lsl #16
    14e8:	4f5001f3 	svcmi	0x005001f3
    14ec:	009f241a 	addseq	r2, pc, sl, lsl r4	; <UNPREDICTABLE>
    14f0:	00000000 	andeq	r0, r0, r0
    14f4:	90000000 	andls	r0, r0, r0
    14f8:	9c000003 	stcls	0, cr0, [r0], {3}
    14fc:	01000003 	tsteq	r0, r3
    1500:	039c5000 	orrseq	r5, ip, #0
    1504:	03bc0000 			; <UNDEFINED> instruction: 0x03bc0000
    1508:	00040000 	andeq	r0, r4, r0
    150c:	9f5001f3 	svcls	0x005001f3
	...
    1518:	000003bc 			; <UNDEFINED> instruction: 0x000003bc
    151c:	000003cf 	andeq	r0, r0, pc, asr #7
    1520:	cf500001 	svcgt	0x00500001
    1524:	08000003 	stmdaeq	r0, {r0, r1}
    1528:	01000004 	tsteq	r0, r4
    152c:	04085400 	streq	r5, [r8], #-1024	; 0x400
    1530:	04400000 	strbeq	r0, [r0], #-0
    1534:	00040000 	andeq	r0, r4, r0
    1538:	9f5001f3 	svcls	0x005001f3
	...
    1544:	00000428 	andeq	r0, r0, r8, lsr #8
    1548:	0000042c 	andeq	r0, r0, ip, lsr #8
    154c:	2c500001 	mrrccs	0, 0, r0, r0, cr1	; <UNPREDICTABLE>
    1550:	33000004 	movwcc	r0, #4
    1554:	01000004 	tsteq	r0, r4
    1558:	00005100 	andeq	r5, r0, r0, lsl #2
    155c:	00000000 	andeq	r0, r0, r0
    1560:	03e40000 	mvneq	r0, #0
    1564:	03ec0000 	mvneq	r0, #0
    1568:	00010000 	andeq	r0, r1, r0
    156c:	0003ec50 	andeq	lr, r3, r0, asr ip
    1570:	0003f300 	andeq	pc, r3, r0, lsl #6
    1574:	51000100 	mrspl	r0, (UNDEF: 16)
	...
    1580:	00000404 	andeq	r0, r0, r4, lsl #8
    1584:	00000410 	andeq	r0, r0, r0, lsl r4
    1588:	10500001 	subsne	r0, r0, r1
    158c:	17000004 	strne	r0, [r0, -r4]
    1590:	01000004 	tsteq	r0, r4
    1594:	00005100 	andeq	r5, r0, r0, lsl #2
    1598:	00000000 	andeq	r0, r0, r0
    159c:	04400000 	strbeq	r0, [r0], #-0
    15a0:	04530000 	ldrbeq	r0, [r3], #-0
    15a4:	00010000 	andeq	r0, r1, r0
    15a8:	00045350 	andeq	r5, r4, r0, asr r3
    15ac:	00048c00 	andeq	r8, r4, r0, lsl #24
    15b0:	54000100 	strpl	r0, [r0], #-256	; 0x100
    15b4:	0000048c 	andeq	r0, r0, ip, lsl #9
    15b8:	000004c4 	andeq	r0, r0, r4, asr #9
    15bc:	01f30004 	mvnseq	r0, r4
    15c0:	00009f50 	andeq	r9, r0, r0, asr pc
    15c4:	00000000 	andeq	r0, r0, r0
    15c8:	04ac0000 	strteq	r0, [ip], #0
    15cc:	04b00000 	ldrteq	r0, [r0], #0
    15d0:	00010000 	andeq	r0, r1, r0
    15d4:	0004b050 	andeq	fp, r4, r0, asr r0
    15d8:	0004b700 	andeq	fp, r4, r0, lsl #14
    15dc:	51000100 	mrspl	r0, (UNDEF: 16)
	...
    15e8:	00000468 	andeq	r0, r0, r8, ror #8
    15ec:	00000470 	andeq	r0, r0, r0, ror r4
    15f0:	70500001 	subsvc	r0, r0, r1
    15f4:	77000004 	strvc	r0, [r0, -r4]
    15f8:	01000004 	tsteq	r0, r4
    15fc:	00005100 	andeq	r5, r0, r0, lsl #2
    1600:	00000000 	andeq	r0, r0, r0
    1604:	04880000 	streq	r0, [r8], #0
    1608:	04940000 	ldreq	r0, [r4], #0
    160c:	00010000 	andeq	r0, r1, r0
    1610:	00049450 	andeq	r9, r4, r0, asr r4
    1614:	00049b00 	andeq	r9, r4, r0, lsl #22
    1618:	51000100 	mrspl	r0, (UNDEF: 16)
	...
    1624:	000004c4 	andeq	r0, r0, r4, asr #9
    1628:	000004d7 	ldrdeq	r0, [r0], -r7
    162c:	d7500001 	ldrble	r0, [r0, -r1]
    1630:	18000004 	stmdane	r0, {r2}
    1634:	01000005 	tsteq	r0, r5
    1638:	05185400 	ldreq	r5, [r8, #-1024]	; 0x400
    163c:	053c0000 	ldreq	r0, [ip, #-0]!
    1640:	00040000 	andeq	r0, r4, r0
    1644:	9f5001f3 	svcls	0x005001f3
    1648:	0000053c 	andeq	r0, r0, ip, lsr r5
    164c:	00000540 	andeq	r0, r0, r0, asr #10
    1650:	40500001 	subsmi	r0, r0, r1
    1654:	48000005 	stmdami	r0, {r0, r2}
    1658:	01000005 	tsteq	r0, r5
    165c:	00005400 	andeq	r5, r0, r0, lsl #8
    1660:	00000000 	andeq	r0, r0, r0
    1664:	04ec0000 	strbteq	r0, [ip], #0
    1668:	04fb0000 	ldrbteq	r0, [fp], #0
    166c:	00080000 	andeq	r0, r8, r0
    1670:	24007431 	strcs	r7, [r0], #-1073	; 0x431
    1674:	9f1a0070 	svcls	0x001a0070
	...
    1680:	00000518 	andeq	r0, r0, r8, lsl r5
    1684:	00000530 	andeq	r0, r0, r0, lsr r5
    1688:	00540001 	subseq	r0, r4, r1
    168c:	00000000 	andeq	r0, r0, r0
    1690:	48000000 	stmdami	r0, {}	; <UNPREDICTABLE>
    1694:	5b000005 	blpl	16b0 <_start-0x6950>
    1698:	01000005 	tsteq	r0, r5
    169c:	055b5000 	ldrbeq	r5, [fp, #-0]
    16a0:	05800000 	streq	r0, [r0]
    16a4:	00010000 	andeq	r0, r1, r0
    16a8:	00058054 	andeq	r8, r5, r4, asr r0
    16ac:	0005a000 	andeq	sl, r5, r0
    16b0:	f3000400 	vshl.u8	d0, d0, d0
    16b4:	009f5001 	addseq	r5, pc, r1
	...
    16c0:	18000000 	stmdane	r0, {}	; <UNPREDICTABLE>
    16c4:	01000000 	mrseq	r0, (UNDEF: 0)
    16c8:	00185000 	andseq	r5, r8, r0
    16cc:	01540000 	cmpeq	r4, r0
    16d0:	00040000 	andeq	r0, r4, r0
    16d4:	9f5001f3 	svcls	0x005001f3
	...
    16e4:	0000001c 	andeq	r0, r0, ip, lsl r0
    16e8:	1c510001 	mrrcne	0, 0, r0, r1, cr1
    16ec:	54000000 	strpl	r0, [r0], #-0
    16f0:	04000001 	streq	r0, [r0], #-1
    16f4:	5101f300 	mrspl	pc, SP_irq	; <UNPREDICTABLE>
    16f8:	0000009f 	muleq	r0, pc, r0	; <UNPREDICTABLE>
    16fc:	00000000 	andeq	r0, r0, r0
    1700:	00001000 	andeq	r1, r0, r0
    1704:	00013400 	andeq	r3, r1, r0, lsl #8
    1708:	55000100 	strpl	r0, [r0, #-256]	; 0x100
	...
    1714:	00000010 	andeq	r0, r0, r0, lsl r0
    1718:	00000034 	andeq	r0, r0, r4, lsr r0
    171c:	34550001 	ldrbcc	r0, [r5], #-1
    1720:	34000000 	strcc	r0, [r0], #-0
    1724:	01000001 	tsteq	r0, r1
    1728:	01345800 	teqeq	r4, r0, lsl #16
    172c:	01540000 	cmpeq	r4, r0
    1730:	00010000 	andeq	r0, r1, r0
    1734:	00000055 	andeq	r0, r0, r5, asr r0
    1738:	00000000 	andeq	r0, r0, r0
    173c:	00001400 	andeq	r1, r0, r0, lsl #8
    1740:	00013400 	andeq	r3, r1, r0, lsl #8
    1744:	55000100 	strpl	r0, [r0, #-256]	; 0x100
	...
    1750:	00000020 	andeq	r0, r0, r0, lsr #32
    1754:	00000134 	andeq	r0, r0, r4, lsr r1
    1758:	00550001 	subseq	r0, r5, r1
    175c:	00000000 	andeq	r0, r0, r0
    1760:	24000000 	strcs	r0, [r0], #-0
    1764:	28000000 	stmdacs	r0, {}	; <UNPREDICTABLE>
    1768:	01000000 	mrseq	r0, (UNDEF: 0)
    176c:	00005300 	andeq	r5, r0, r0, lsl #6
    1770:	00000000 	andeq	r0, r0, r0
    1774:	00340000 	eorseq	r0, r4, r0
    1778:	00540000 	subseq	r0, r4, r0
    177c:	00010000 	andeq	r0, r1, r0
    1780:	00005458 	andeq	r5, r0, r8, asr r4
    1784:	00013400 	andeq	r3, r1, r0, lsl #8
    1788:	75000500 	strvc	r0, [r0, #-1280]	; 0x500
    178c:	9f243100 	svcls	0x00243100
	...
    1798:	00000034 	andeq	r0, r0, r4, lsr r0
    179c:	0000003c 	andeq	r0, r0, ip, lsr r0
    17a0:	00770005 	rsbseq	r0, r7, r5
    17a4:	3c9f1a31 	vldmiacc	pc, {s2-s50}
    17a8:	3f000000 	svccc	0x00000000
    17ac:	01000000 	mrseq	r0, (UNDEF: 0)
    17b0:	003f5100 	eorseq	r5, pc, r0, lsl #2
    17b4:	01540000 	cmpeq	r4, r0
    17b8:	00050000 	andeq	r0, r5, r0
    17bc:	1a310077 	bne	c419a0 <__bss_end__+0xc37998>
    17c0:	0000009f 	muleq	r0, pc, r0	; <UNPREDICTABLE>
    17c4:	00000000 	andeq	r0, r0, r0
    17c8:	00004000 	andeq	r4, r0, r0
    17cc:	00005400 	andeq	r5, r0, r0, lsl #8
    17d0:	58000100 	stmdapl	r0, {r8}
    17d4:	00000054 	andeq	r0, r0, r4, asr r0
    17d8:	00000134 	andeq	r0, r0, r4, lsr r1
    17dc:	00750005 	rsbseq	r0, r5, r5
    17e0:	009f2431 	addseq	r2, pc, r1, lsr r4	; <UNPREDICTABLE>
    17e4:	00000000 	andeq	r0, r0, r0
    17e8:	44000000 	strmi	r0, [r0], #-0
    17ec:	48000000 	stmdami	r0, {}	; <UNPREDICTABLE>
    17f0:	01000000 	mrseq	r0, (UNDEF: 0)
    17f4:	00005300 	andeq	r5, r0, r0, lsl #6
    17f8:	00000000 	andeq	r0, r0, r0
    17fc:	00540000 	subseq	r0, r4, r0
    1800:	00740000 	rsbseq	r0, r4, r0
    1804:	00010000 	andeq	r0, r1, r0
    1808:	00007458 	andeq	r7, r0, r8, asr r4
    180c:	00013400 	andeq	r3, r1, r0, lsl #8
    1810:	75000800 	strvc	r0, [r0, #-2048]	; 0x800
    1814:	75243100 	strvc	r3, [r4, #-256]!	; 0x100
    1818:	009f2200 	addseq	r2, pc, r0, lsl #4
    181c:	00000000 	andeq	r0, r0, r0
    1820:	60000000 	andvs	r0, r0, r0
    1824:	74000000 	strvc	r0, [r0], #-0
    1828:	01000000 	mrseq	r0, (UNDEF: 0)
    182c:	00745800 	rsbseq	r5, r4, r0, lsl #16
    1830:	01340000 	teqeq	r4, r0
    1834:	00080000 	andeq	r0, r8, r0
    1838:	24310075 	ldrtcs	r0, [r1], #-117	; 0x75
    183c:	9f220075 	svcls	0x00220075
	...
    1848:	00000064 	andeq	r0, r0, r4, rrx
    184c:	00000068 	andeq	r0, r0, r8, rrx
    1850:	00530001 	subseq	r0, r3, r1
    1854:	00000000 	andeq	r0, r0, r0
    1858:	74000000 	strvc	r0, [r0], #-0
    185c:	94000000 	strls	r0, [r0], #-0
    1860:	01000000 	mrseq	r0, (UNDEF: 0)
    1864:	00945800 	addseq	r5, r4, r0, lsl #16
    1868:	01340000 	teqeq	r4, r0
    186c:	00050000 	andeq	r0, r5, r0
    1870:	24320075 	ldrtcs	r0, [r2], #-117	; 0x75
    1874:	0000009f 	muleq	r0, pc, r0	; <UNPREDICTABLE>
    1878:	00000000 	andeq	r0, r0, r0
    187c:	00008000 	andeq	r8, r0, r0
    1880:	00009400 	andeq	r9, r0, r0, lsl #8
    1884:	58000100 	stmdapl	r0, {r8}
    1888:	00000094 	muleq	r0, r4, r0
    188c:	00000134 	andeq	r0, r0, r4, lsr r1
    1890:	00750005 	rsbseq	r0, r5, r5
    1894:	009f2432 	addseq	r2, pc, r2, lsr r4	; <UNPREDICTABLE>
    1898:	00000000 	andeq	r0, r0, r0
    189c:	84000000 	strhi	r0, [r0], #-0
    18a0:	88000000 	stmdahi	r0, {}	; <UNPREDICTABLE>
    18a4:	01000000 	mrseq	r0, (UNDEF: 0)
    18a8:	00005300 	andeq	r5, r0, r0, lsl #6
    18ac:	00000000 	andeq	r0, r0, r0
    18b0:	00940000 	addseq	r0, r4, r0
    18b4:	00b40000 	adcseq	r0, r4, r0
    18b8:	00010000 	andeq	r0, r1, r0
    18bc:	0000b458 	andeq	fp, r0, r8, asr r4
    18c0:	00013400 	andeq	r3, r1, r0, lsl #8
    18c4:	75000800 	strvc	r0, [r0, #-2048]	; 0x800
    18c8:	75243200 	strvc	r3, [r4, #-512]!	; 0x200
    18cc:	009f2200 	addseq	r2, pc, r0, lsl #4
    18d0:	00000000 	andeq	r0, r0, r0
    18d4:	a0000000 	andge	r0, r0, r0
    18d8:	b4000000 	strlt	r0, [r0], #-0
    18dc:	01000000 	mrseq	r0, (UNDEF: 0)
    18e0:	00b45800 	adcseq	r5, r4, r0, lsl #16
    18e4:	01340000 	teqeq	r4, r0
    18e8:	00080000 	andeq	r0, r8, r0
    18ec:	24320075 	ldrtcs	r0, [r2], #-117	; 0x75
    18f0:	9f220075 	svcls	0x00220075
	...
    18fc:	000000a4 	andeq	r0, r0, r4, lsr #1
    1900:	000000a8 	andeq	r0, r0, r8, lsr #1
    1904:	00530001 	subseq	r0, r3, r1
    1908:	00000000 	andeq	r0, r0, r0
    190c:	b4000000 	strlt	r0, [r0], #-0
    1910:	d4000000 	strle	r0, [r0], #-0
    1914:	01000000 	mrseq	r0, (UNDEF: 0)
    1918:	00d45800 	sbcseq	r5, r4, r0, lsl #16
    191c:	01340000 	teqeq	r4, r0
    1920:	000a0000 	andeq	r0, sl, r0
    1924:	24320075 	ldrtcs	r0, [r2], #-117	; 0x75
    1928:	24310075 	ldrtcs	r0, [r1], #-117	; 0x75
    192c:	00009f22 	andeq	r9, r0, r2, lsr #30
    1930:	00000000 	andeq	r0, r0, r0
    1934:	00c00000 	sbceq	r0, r0, r0
    1938:	00d40000 	sbcseq	r0, r4, r0
    193c:	00010000 	andeq	r0, r1, r0
    1940:	0000d458 	andeq	sp, r0, r8, asr r4
    1944:	00013400 	andeq	r3, r1, r0, lsl #8
    1948:	75000a00 	strvc	r0, [r0, #-2560]	; 0xa00
    194c:	75243200 	strvc	r3, [r4, #-512]!	; 0x200
    1950:	22243100 	eorcs	r3, r4, #0, 2
    1954:	0000009f 	muleq	r0, pc, r0	; <UNPREDICTABLE>
    1958:	00000000 	andeq	r0, r0, r0
    195c:	0000c400 	andeq	ip, r0, r0, lsl #8
    1960:	0000c800 	andeq	ip, r0, r0, lsl #16
    1964:	53000100 	movwpl	r0, #256	; 0x100
	...
    1970:	000000d4 	ldrdeq	r0, [r0], -r4
    1974:	000000f4 	strdeq	r0, [r0], -r4
    1978:	f4580001 			; <UNDEFINED> instruction: 0xf4580001
    197c:	34000000 	strcc	r0, [r0], #-0
    1980:	0d000001 	stceq	0, cr0, [r0, #-4]
    1984:	32007500 	andcc	r7, r0, #0, 10
    1988:	31007524 	tstcc	r0, r4, lsr #10
    198c:	00752224 	rsbseq	r2, r5, r4, lsr #4
    1990:	00009f22 	andeq	r9, r0, r2, lsr #30
    1994:	00000000 	andeq	r0, r0, r0
    1998:	00e00000 	rsceq	r0, r0, r0
    199c:	00f40000 	rscseq	r0, r4, r0
    19a0:	00010000 	andeq	r0, r1, r0
    19a4:	0000f458 	andeq	pc, r0, r8, asr r4	; <UNPREDICTABLE>
    19a8:	00013400 	andeq	r3, r1, r0, lsl #8
    19ac:	75000d00 	strvc	r0, [r0, #-3328]	; 0xd00
    19b0:	75243200 	strvc	r3, [r4, #-512]!	; 0x200
    19b4:	22243100 	eorcs	r3, r4, #0, 2
    19b8:	9f220075 	svcls	0x00220075
	...
    19c4:	000000e4 	andeq	r0, r0, r4, ror #1
    19c8:	000000e8 	andeq	r0, r0, r8, ror #1
    19cc:	00530001 	subseq	r0, r3, r1
    19d0:	00000000 	andeq	r0, r0, r0
    19d4:	f4000000 	vst4.8	{d0-d3}, [r0], r0
    19d8:	14000000 	strne	r0, [r0], #-0
    19dc:	01000001 	tsteq	r0, r1
    19e0:	01145800 	tsteq	r4, r0, lsl #16
    19e4:	01340000 	teqeq	r4, r0
    19e8:	00050000 	andeq	r0, r5, r0
    19ec:	24330075 	ldrtcs	r0, [r3], #-117	; 0x75
    19f0:	0000009f 	muleq	r0, pc, r0	; <UNPREDICTABLE>
    19f4:	00000000 	andeq	r0, r0, r0
    19f8:	00010000 	andeq	r0, r1, r0
    19fc:	00011400 	andeq	r1, r1, r0, lsl #8
    1a00:	58000100 	stmdapl	r0, {r8}
    1a04:	00000114 	andeq	r0, r0, r4, lsl r1
    1a08:	00000134 	andeq	r0, r0, r4, lsr r1
    1a0c:	00750005 	rsbseq	r0, r5, r5
    1a10:	009f2433 	addseq	r2, pc, r3, lsr r4	; <UNPREDICTABLE>
    1a14:	00000000 	andeq	r0, r0, r0
    1a18:	04000000 	streq	r0, [r0], #-0
    1a1c:	08000001 	stmdaeq	r0, {r0}
    1a20:	01000001 	tsteq	r0, r1
    1a24:	00005300 	andeq	r5, r0, r0, lsl #6
    1a28:	00000000 	andeq	r0, r0, r0
    1a2c:	01140000 	tsteq	r4, r0
    1a30:	011c0000 	tsteq	ip, r0
    1a34:	00060000 	andeq	r0, r6, r0
    1a38:	80080077 	andhi	r0, r8, r7, ror r0
    1a3c:	011c9f1a 	tsteq	ip, sl, lsl pc
    1a40:	011f0000 	tsteq	pc, r0
    1a44:	00010000 	andeq	r0, r1, r0
    1a48:	00011f51 	andeq	r1, r1, r1, asr pc
    1a4c:	00015400 	andeq	r5, r1, r0, lsl #8
    1a50:	77000600 	strvc	r0, [r0, -r0, lsl #12]
    1a54:	1a800800 	bne	fe003a5c <__bss_end__+0xfdff9a54>
    1a58:	0000009f 	muleq	r0, pc, r0	; <UNPREDICTABLE>
    1a5c:	00000000 	andeq	r0, r0, r0
    1a60:	00012400 	andeq	r2, r1, r0, lsl #8
    1a64:	00012800 	andeq	r2, r1, r0, lsl #16
    1a68:	53000100 	movwpl	r0, #256	; 0x100
	...
    1a74:	00000144 	andeq	r0, r0, r4, asr #2
    1a78:	00000148 	andeq	r0, r0, r8, asr #2
    1a7c:	00530001 	subseq	r0, r3, r1
    1a80:	00000000 	andeq	r0, r0, r0
    1a84:	54000000 	strpl	r0, [r0], #-0
    1a88:	6b000001 	blvs	1a94 <_start-0x656c>
    1a8c:	01000001 	tsteq	r0, r1
    1a90:	016b5000 	cmneq	fp, r0
    1a94:	01d00000 	bicseq	r0, r0, r0
    1a98:	00010000 	andeq	r0, r1, r0
    1a9c:	0001d059 	andeq	sp, r1, r9, asr r0
    1aa0:	00030c00 	andeq	r0, r3, r0, lsl #24
    1aa4:	f3000400 	vshl.u8	d0, d0, d0
    1aa8:	0c9f5001 	ldceq	0, cr5, [pc], {1}
    1aac:	14000003 	strne	r0, [r0], #-3
    1ab0:	01000003 	tsteq	r0, r3
    1ab4:	03145900 	tsteq	r4, #0, 18
    1ab8:	031c0000 	tsteq	ip, #0
    1abc:	00040000 	andeq	r0, r4, r0
    1ac0:	9f5001f3 	svcls	0x005001f3
	...
    1acc:	00000154 	andeq	r0, r0, r4, asr r1
    1ad0:	0000016b 	andeq	r0, r0, fp, ror #2
    1ad4:	6b510001 	blvs	1441ae0 <__bss_end__+0x1437ad8>
    1ad8:	1c000001 	stcne	0, cr0, [r0], {1}
    1adc:	01000003 	tsteq	r0, r3
    1ae0:	00005600 	andeq	r5, r0, r0, lsl #12
    1ae4:	00000000 	andeq	r0, r0, r0
    1ae8:	01a80000 			; <UNDEFINED> instruction: 0x01a80000
    1aec:	02980000 	addseq	r0, r8, #0
    1af0:	00010000 	andeq	r0, r1, r0
    1af4:	00000058 	andeq	r0, r0, r8, asr r0
    1af8:	00000000 	andeq	r0, r0, r0
    1afc:	0001ac00 	andeq	sl, r1, r0, lsl #24
    1b00:	0002d000 	andeq	sp, r2, r0
    1b04:	54000100 	strpl	r0, [r0], #-256	; 0x100
	...
    1b10:	000001ac 	andeq	r0, r0, ip, lsr #3
    1b14:	000002d0 	ldrdeq	r0, [r0], -r0	; <UNPREDICTABLE>
    1b18:	00740005 	rsbseq	r0, r4, r5
    1b1c:	009f2531 	addseq	r2, pc, r1, lsr r5	; <UNPREDICTABLE>
    1b20:	00000000 	andeq	r0, r0, r0
    1b24:	ac000000 	stcge	0, cr0, [r0], {-0}
    1b28:	d0000001 	andle	r0, r0, r1
    1b2c:	02000001 	andeq	r0, r0, #1
    1b30:	d09f3000 	addsle	r3, pc, r0
    1b34:	0c000001 	stceq	0, cr0, [r0], {1}
    1b38:	01000003 	tsteq	r0, r3
    1b3c:	03145900 	tsteq	r4, #0, 18
    1b40:	031c0000 	tsteq	ip, #0
    1b44:	00010000 	andeq	r0, r1, r0
    1b48:	00000059 	andeq	r0, r0, r9, asr r0
    1b4c:	00000000 	andeq	r0, r0, r0
    1b50:	00016800 	andeq	r6, r1, r0, lsl #16
    1b54:	00016b00 	andeq	r6, r1, r0, lsl #22
    1b58:	51000100 	mrspl	r0, (UNDEF: 16)
    1b5c:	0000016b 	andeq	r0, r0, fp, ror #2
    1b60:	0000031c 	andeq	r0, r0, ip, lsl r3
    1b64:	00560001 	subseq	r0, r6, r1
    1b68:	00000000 	andeq	r0, r0, r0
    1b6c:	70000000 	andvc	r0, r0, r0
    1b70:	ac000001 	stcge	0, cr0, [r0], {1}
    1b74:	01000001 	tsteq	r0, r1
    1b78:	030c5400 	movweq	r5, #50176	; 0xc400
    1b7c:	03140000 	tsteq	r4, #0
    1b80:	00010000 	andeq	r0, r1, r0
    1b84:	00000054 	andeq	r0, r0, r4, asr r0
    1b88:	00000000 	andeq	r0, r0, r0
    1b8c:	0001a800 	andeq	sl, r1, r0, lsl #16
    1b90:	0001c400 	andeq	ip, r1, r0, lsl #8
    1b94:	58000100 	stmdapl	r0, {r8}
	...
    1ba0:	000001b0 			; <UNDEFINED> instruction: 0x000001b0
    1ba4:	000001cb 	andeq	r0, r0, fp, asr #3
    1ba8:	cb520001 	blgt	1481bb4 <__bss_end__+0x1477bac>
    1bac:	d0000001 	andle	r0, r0, r1
    1bb0:	08000002 	stmdaeq	r0, {r1}
    1bb4:	31007400 	tstcc	r0, r0, lsl #8
    1bb8:	22007425 	andcs	r7, r0, #620756992	; 0x25000000
    1bbc:	0000009f 	muleq	r0, pc, r0	; <UNPREDICTABLE>
    1bc0:	00000000 	andeq	r0, r0, r0
    1bc4:	0001b000 	andeq	fp, r1, r0
    1bc8:	0001c400 	andeq	ip, r1, r0, lsl #8
    1bcc:	58000100 	stmdapl	r0, {r8}
	...
    1bd8:	000001b4 			; <UNDEFINED> instruction: 0x000001b4
    1bdc:	000001b8 			; <UNDEFINED> instruction: 0x000001b8
    1be0:	00530001 	subseq	r0, r3, r1
    1be4:	00000000 	andeq	r0, r0, r0
    1be8:	d0000000 	andle	r0, r0, r0
    1bec:	d0000001 	andle	r0, r0, r1
    1bf0:	01000002 	tsteq	r0, r2
    1bf4:	00005400 	andeq	r5, r0, r0, lsl #8
    1bf8:	00000000 	andeq	r0, r0, r0
    1bfc:	01d00000 	bicseq	r0, r0, r0
    1c00:	01e40000 	mvneq	r0, r0
    1c04:	00010000 	andeq	r0, r1, r0
    1c08:	00000058 	andeq	r0, r0, r8, asr r0
    1c0c:	00000000 	andeq	r0, r0, r0
    1c10:	0001d400 	andeq	sp, r1, r0, lsl #8
    1c14:	0001d800 	andeq	sp, r1, r0, lsl #16
    1c18:	53000100 	movwpl	r0, #256	; 0x100
	...
    1c24:	000001f4 	strdeq	r0, [r0], -r4
    1c28:	000002d0 	ldrdeq	r0, [r0], -r0	; <UNPREDICTABLE>
    1c2c:	00540001 	subseq	r0, r4, r1
    1c30:	00000000 	andeq	r0, r0, r0
    1c34:	f4000000 	vst4.8	{d0-d3}, [r0], r0
    1c38:	08000001 	stmdaeq	r0, {r0}
    1c3c:	01000002 	tsteq	r0, r2
    1c40:	00005800 	andeq	r5, r0, r0, lsl #16
    1c44:	00000000 	andeq	r0, r0, r0
    1c48:	01f80000 	mvnseq	r0, r0
    1c4c:	01fc0000 	mvnseq	r0, r0
    1c50:	00010000 	andeq	r0, r1, r0
    1c54:	00000053 	andeq	r0, r0, r3, asr r0
    1c58:	00000000 	andeq	r0, r0, r0
    1c5c:	00021800 	andeq	r1, r2, r0, lsl #16
    1c60:	0002d000 	andeq	sp, r2, r0
    1c64:	54000100 	strpl	r0, [r0], #-256	; 0x100
	...
    1c70:	00000218 	andeq	r0, r0, r8, lsl r2
    1c74:	0000022c 	andeq	r0, r0, ip, lsr #4
    1c78:	00580001 	subseq	r0, r8, r1
    1c7c:	00000000 	andeq	r0, r0, r0
    1c80:	1c000000 	stcne	0, cr0, [r0], {-0}
    1c84:	20000002 	andcs	r0, r0, r2
    1c88:	01000002 	tsteq	r0, r2
    1c8c:	00005300 	andeq	r5, r0, r0, lsl #6
    1c90:	00000000 	andeq	r0, r0, r0
    1c94:	023c0000 	eorseq	r0, ip, #0
    1c98:	02d00000 	sbcseq	r0, r0, #0
    1c9c:	00010000 	andeq	r0, r1, r0
    1ca0:	00000054 	andeq	r0, r0, r4, asr r0
    1ca4:	00000000 	andeq	r0, r0, r0
    1ca8:	00023c00 	andeq	r3, r2, r0, lsl #24
    1cac:	00025000 	andeq	r5, r2, r0
    1cb0:	58000100 	stmdapl	r0, {r8}
	...
    1cbc:	00000240 	andeq	r0, r0, r0, asr #4
    1cc0:	00000244 	andeq	r0, r0, r4, asr #4
    1cc4:	00530001 	subseq	r0, r3, r1
    1cc8:	00000000 	andeq	r0, r0, r0
    1ccc:	60000000 	andvs	r0, r0, r0
    1cd0:	d0000002 	andle	r0, r0, r2
    1cd4:	01000002 	tsteq	r0, r2
    1cd8:	00005400 	andeq	r5, r0, r0, lsl #8
    1cdc:	00000000 	andeq	r0, r0, r0
    1ce0:	02600000 	rsbeq	r0, r0, #0
    1ce4:	02740000 	rsbseq	r0, r4, #0
    1ce8:	00010000 	andeq	r0, r1, r0
    1cec:	00000058 	andeq	r0, r0, r8, asr r0
    1cf0:	00000000 	andeq	r0, r0, r0
    1cf4:	00026400 	andeq	r6, r2, r0, lsl #8
    1cf8:	00026800 	andeq	r6, r2, r0, lsl #16
    1cfc:	53000100 	movwpl	r0, #256	; 0x100
	...
    1d08:	00000284 	andeq	r0, r0, r4, lsl #5
    1d0c:	000002d0 	ldrdeq	r0, [r0], -r0	; <UNPREDICTABLE>
    1d10:	00540001 	subseq	r0, r4, r1
    1d14:	00000000 	andeq	r0, r0, r0
    1d18:	84000000 	strhi	r0, [r0], #-0
    1d1c:	98000002 	stmdals	r0, {r1}
    1d20:	01000002 	tsteq	r0, r2
    1d24:	00005800 	andeq	r5, r0, r0, lsl #16
    1d28:	00000000 	andeq	r0, r0, r0
    1d2c:	02880000 	addeq	r0, r8, #0
    1d30:	028c0000 	addeq	r0, ip, #0
    1d34:	00010000 	andeq	r0, r1, r0
    1d38:	00000053 	andeq	r0, r0, r3, asr r0
    1d3c:	00000000 	andeq	r0, r0, r0
    1d40:	0002a800 	andeq	sl, r2, r0, lsl #16
    1d44:	0002d000 	andeq	sp, r2, r0
    1d48:	54000100 	strpl	r0, [r0], #-256	; 0x100
	...
    1d54:	000002ac 	andeq	r0, r0, ip, lsr #5
    1d58:	000002b0 			; <UNDEFINED> instruction: 0x000002b0
    1d5c:	00530001 	subseq	r0, r3, r1
    1d60:	00000000 	andeq	r0, r0, r0
    1d64:	c8000000 	stmdagt	r0, {}	; <UNPREDICTABLE>
    1d68:	0c000002 	stceq	0, cr0, [r0], {2}
    1d6c:	02000003 	andeq	r0, r0, #3
    1d70:	149f3000 	ldrne	r3, [pc], #0	; 1d78 <_start-0x6288>
    1d74:	1c000003 	stcne	0, cr0, [r0], {3}
    1d78:	02000003 	andeq	r0, r0, #3
    1d7c:	009f3000 	addseq	r3, pc, r0
    1d80:	00000000 	andeq	r0, r0, r0
    1d84:	c8000000 	stmdagt	r0, {}	; <UNPREDICTABLE>
    1d88:	0c000002 	stceq	0, cr0, [r0], {2}
    1d8c:	01000003 	tsteq	r0, r3
    1d90:	03145500 	tsteq	r4, #0, 10
    1d94:	031c0000 	tsteq	ip, #0
    1d98:	00010000 	andeq	r0, r1, r0
    1d9c:	00000055 	andeq	r0, r0, r5, asr r0
    1da0:	00000000 	andeq	r0, r0, r0
    1da4:	0002d000 	andeq	sp, r2, r0
    1da8:	00030c00 	andeq	r0, r3, r0, lsl #24
    1dac:	54000100 	strpl	r0, [r0], #-256	; 0x100
    1db0:	00000314 	andeq	r0, r0, r4, lsl r3
    1db4:	0000031c 	andeq	r0, r0, ip, lsl r3
    1db8:	00540001 	subseq	r0, r4, r1
    1dbc:	00000000 	andeq	r0, r0, r0
    1dc0:	1c000000 	stcne	0, cr0, [r0], {-0}
    1dc4:	3f000003 	svccc	0x00000003
    1dc8:	01000003 	tsteq	r0, r3
    1dcc:	033f5000 	teqeq	pc, #0
    1dd0:	03600000 	cmneq	r0, #0
    1dd4:	00010000 	andeq	r0, r1, r0
    1dd8:	00036058 	andeq	r6, r3, r8, asr r0
    1ddc:	00037000 	andeq	r7, r3, r0
    1de0:	50000100 	andpl	r0, r0, r0, lsl #2
    1de4:	00000370 	andeq	r0, r0, r0, ror r3
    1de8:	000003b0 			; <UNDEFINED> instruction: 0x000003b0
    1dec:	b0580001 	subslt	r0, r8, r1
    1df0:	c0000003 	andgt	r0, r0, r3
    1df4:	04000003 	streq	r0, [r0], #-3
    1df8:	5001f300 	andpl	pc, r1, r0, lsl #6
    1dfc:	0000009f 	muleq	r0, pc, r0	; <UNPREDICTABLE>
    1e00:	00000000 	andeq	r0, r0, r0
    1e04:	00031c00 	andeq	r1, r3, r0, lsl #24
    1e08:	00033f00 	andeq	r3, r3, r0, lsl #30
    1e0c:	51000100 	mrspl	r0, (UNDEF: 16)
    1e10:	0000033f 	andeq	r0, r0, pc, lsr r3
    1e14:	00000360 	andeq	r0, r0, r0, ror #6
    1e18:	60560001 	subsvs	r0, r6, r1
    1e1c:	70000003 	andvc	r0, r0, r3
    1e20:	01000003 	tsteq	r0, r3
    1e24:	03705100 	cmneq	r0, #0, 2
    1e28:	03b00000 	movseq	r0, #0
    1e2c:	00010000 	andeq	r0, r1, r0
    1e30:	0003b056 	andeq	fp, r3, r6, asr r0
    1e34:	0003c000 	andeq	ip, r3, r0
    1e38:	f3000400 	vshl.u8	d0, d0, d0
    1e3c:	009f5101 	addseq	r5, pc, r1, lsl #2
    1e40:	00000000 	andeq	r0, r0, r0
    1e44:	1c000000 	stcne	0, cr0, [r0], {-0}
    1e48:	3f000003 	svccc	0x00000003
    1e4c:	01000003 	tsteq	r0, r3
    1e50:	033f5200 	teqeq	pc, #0, 4
    1e54:	03600000 	cmneq	r0, #0
    1e58:	00040000 	andeq	r0, r4, r0
    1e5c:	9f5201f3 	svcls	0x005201f3
    1e60:	00000360 	andeq	r0, r0, r0, ror #6
    1e64:	00000370 	andeq	r0, r0, r0, ror r3
    1e68:	70520001 	subsvc	r0, r2, r1
    1e6c:	b0000003 	andlt	r0, r0, r3
    1e70:	03000003 	movweq	r0, #3
    1e74:	9f017700 	svcls	0x00017700
    1e78:	000003b0 			; <UNDEFINED> instruction: 0x000003b0
    1e7c:	000003c0 	andeq	r0, r0, r0, asr #7
    1e80:	01f30004 	mvnseq	r0, r4
    1e84:	00009f52 	andeq	r9, r0, r2, asr pc
    1e88:	00000000 	andeq	r0, r0, r0
    1e8c:	031c0000 	tsteq	ip, #0
    1e90:	033f0000 	teqeq	pc, #0
    1e94:	00010000 	andeq	r0, r1, r0
    1e98:	00033f53 	andeq	r3, r3, r3, asr pc
    1e9c:	00036000 	andeq	r6, r3, r0
    1ea0:	f3000400 	vshl.u8	d0, d0, d0
    1ea4:	609f5301 	addsvs	r5, pc, r1, lsl #6
    1ea8:	70000003 	andvc	r0, r0, r3
    1eac:	01000003 	tsteq	r0, r3
    1eb0:	03705300 	cmneq	r0, #0, 6
    1eb4:	03c00000 	biceq	r0, r0, #0
    1eb8:	00040000 	andeq	r0, r4, r0
    1ebc:	9f5301f3 	svcls	0x005301f3
	...
    1ec8:	00000368 	andeq	r0, r0, r8, ror #6
    1ecc:	00000370 	andeq	r0, r0, r0, ror r3
    1ed0:	9f300002 	svcls	0x00300002
    1ed4:	00000370 	andeq	r0, r0, r0, ror r3
    1ed8:	000003b0 			; <UNDEFINED> instruction: 0x000003b0
    1edc:	b0540001 	subslt	r0, r4, r1
    1ee0:	c0000003 	andgt	r0, r0, r3
    1ee4:	01000003 	tsteq	r0, r3
    1ee8:	00005000 	andeq	r5, r0, r0
    1eec:	00000000 	andeq	r0, r0, r0
    1ef0:	03800000 	orreq	r0, r0, #0
    1ef4:	03900000 	orrseq	r0, r0, #0
    1ef8:	00010000 	andeq	r0, r1, r0
    1efc:	00000050 	andeq	r0, r0, r0, asr r0
    1f00:	00000000 	andeq	r0, r0, r0
    1f04:	0003c000 	andeq	ip, r3, r0
    1f08:	0003df00 	andeq	sp, r3, r0, lsl #30
    1f0c:	50000100 	andpl	r0, r0, r0, lsl #2
    1f10:	000003df 	ldrdeq	r0, [r0], -pc	; <UNPREDICTABLE>
    1f14:	00000400 	andeq	r0, r0, r0, lsl #8
    1f18:	00570001 	subseq	r0, r7, r1
    1f1c:	10000004 	andne	r0, r0, r4
    1f20:	01000004 	tsteq	r0, r4
    1f24:	04105000 	ldreq	r5, [r0], #-0
    1f28:	04400000 	strbeq	r0, [r0], #-0
    1f2c:	00010000 	andeq	r0, r1, r0
    1f30:	00044057 	andeq	r4, r4, r7, asr r0
    1f34:	00045000 	andeq	r5, r4, r0
    1f38:	f3000400 	vshl.u8	d0, d0, d0
    1f3c:	009f5001 	addseq	r5, pc, r1
    1f40:	00000000 	andeq	r0, r0, r0
    1f44:	c0000000 	andgt	r0, r0, r0
    1f48:	df000003 	svcle	0x00000003
    1f4c:	01000003 	tsteq	r0, r3
    1f50:	03df5100 	bicseq	r5, pc, #0, 2
    1f54:	04000000 	streq	r0, [r0], #-0
    1f58:	00010000 	andeq	r0, r1, r0
    1f5c:	00040055 	andeq	r0, r4, r5, asr r0
    1f60:	00041000 	andeq	r1, r4, r0
    1f64:	51000100 	mrspl	r0, (UNDEF: 16)
    1f68:	00000410 	andeq	r0, r0, r0, lsl r4
    1f6c:	00000440 	andeq	r0, r0, r0, asr #8
    1f70:	40550001 	subsmi	r0, r5, r1
    1f74:	50000004 	andpl	r0, r0, r4
    1f78:	04000004 	streq	r0, [r0], #-4
    1f7c:	5101f300 	mrspl	pc, SP_irq	; <UNPREDICTABLE>
    1f80:	0000009f 	muleq	r0, pc, r0	; <UNPREDICTABLE>
    1f84:	00000000 	andeq	r0, r0, r0
    1f88:	0003c000 	andeq	ip, r3, r0
    1f8c:	0003df00 	andeq	sp, r3, r0, lsl #30
    1f90:	52000100 	andpl	r0, r0, #0, 2
    1f94:	000003df 	ldrdeq	r0, [r0], -pc	; <UNPREDICTABLE>
    1f98:	00000400 	andeq	r0, r0, r0, lsl #8
    1f9c:	01f30004 	mvnseq	r0, r4
    1fa0:	04009f52 	streq	r9, [r0], #-3922	; 0xf52
    1fa4:	04100000 	ldreq	r0, [r0], #-0
    1fa8:	00010000 	andeq	r0, r1, r0
    1fac:	00041052 	andeq	r1, r4, r2, asr r0
    1fb0:	00044000 	andeq	r4, r4, r0
    1fb4:	76000300 	strvc	r0, [r0], -r0, lsl #6
    1fb8:	04409f01 	strbeq	r9, [r0], #-3841	; 0xf01
    1fbc:	04500000 	ldrbeq	r0, [r0], #-0
    1fc0:	00040000 	andeq	r0, r4, r0
    1fc4:	9f5201f3 	svcls	0x005201f3
	...
    1fd0:	000003c0 	andeq	r0, r0, r0, asr #7
    1fd4:	000003df 	ldrdeq	r0, [r0], -pc	; <UNPREDICTABLE>
    1fd8:	df530001 	svcle	0x00530001
    1fdc:	00000003 	andeq	r0, r0, r3
    1fe0:	01000004 	tsteq	r0, r4
    1fe4:	04005800 	streq	r5, [r0], #-2048	; 0x800
    1fe8:	04100000 	ldreq	r0, [r0], #-0
    1fec:	00010000 	andeq	r0, r1, r0
    1ff0:	00041053 	andeq	r1, r4, r3, asr r0
    1ff4:	00044000 	andeq	r4, r4, r0
    1ff8:	58000100 	stmdapl	r0, {r8}
    1ffc:	00000440 	andeq	r0, r0, r0, asr #8
    2000:	00000450 	andeq	r0, r0, r0, asr r4
    2004:	01f30004 	mvnseq	r0, r4
    2008:	00009f53 	andeq	r9, r0, r3, asr pc
    200c:	00000000 	andeq	r0, r0, r0
    2010:	04080000 	streq	r0, [r8], #-0
    2014:	04100000 	ldreq	r0, [r0], #-0
    2018:	00020000 	andeq	r0, r2, r0
    201c:	04109f30 	ldreq	r9, [r0], #-3888	; 0xf30
    2020:	04400000 	strbeq	r0, [r0], #-0
    2024:	00010000 	andeq	r0, r1, r0
    2028:	00044054 	andeq	r4, r4, r4, asr r0
    202c:	00045000 	andeq	r5, r4, r0
    2030:	50000100 	andpl	r0, r0, r0, lsl #2
	...
    203c:	00000450 	andeq	r0, r0, r0, asr r4
    2040:	00000473 	andeq	r0, r0, r3, ror r4
    2044:	73510001 	cmpvc	r1, #1
    2048:	24000004 	strcs	r0, [r0], #-4
    204c:	04000005 	streq	r0, [r0], #-5
    2050:	5101f300 	mrspl	pc, SP_irq	; <UNPREDICTABLE>
    2054:	0000009f 	muleq	r0, pc, r0	; <UNPREDICTABLE>
    2058:	00000000 	andeq	r0, r0, r0
    205c:	00045000 	andeq	r5, r4, r0
    2060:	00047300 	andeq	r7, r4, r0, lsl #6
    2064:	52000100 	andpl	r0, r0, #0, 2
    2068:	00000473 	andeq	r0, r0, r3, ror r4
    206c:	00000524 	andeq	r0, r0, r4, lsr #10
    2070:	01f30004 	mvnseq	r0, r4
    2074:	00009f52 	andeq	r9, r0, r2, asr pc
    2078:	00000000 	andeq	r0, r0, r0
    207c:	04500000 	ldrbeq	r0, [r0], #-0
    2080:	04730000 	ldrbteq	r0, [r3], #-0
    2084:	00010000 	andeq	r0, r1, r0
    2088:	00047353 	andeq	r7, r4, r3, asr r3
    208c:	00051000 	andeq	r1, r5, r0
    2090:	55000100 	strpl	r0, [r0, #-256]	; 0x100
    2094:	00000510 	andeq	r0, r0, r0, lsl r5
    2098:	00000524 	andeq	r0, r0, r4, lsr #10
    209c:	04700002 	ldrbteq	r0, [r0], #-2
	...
    20a8:	00000494 	muleq	r0, r4, r4
    20ac:	000004d3 	ldrdeq	r0, [r0], -r3
    20b0:	d3520001 	cmple	r2, #1
    20b4:	f4000004 	vst4.8	{d0-d3}, [r0], r4
    20b8:	06000004 	streq	r0, [r0], -r4
    20bc:	77007500 	strvc	r7, [r0, -r0, lsl #10]
    20c0:	f49f1e00 			; <UNDEFINED> instruction: 0xf49f1e00
    20c4:	24000004 	strcs	r0, [r0], #-4
    20c8:	01000005 	tsteq	r0, r5
    20cc:	00005200 	andeq	r5, r0, r0, lsl #4
    20d0:	00000000 	andeq	r0, r0, r0
    20d4:	05240000 	streq	r0, [r4, #-0]!
    20d8:	052f0000 	streq	r0, [pc, #-0]!	; 20e0 <_start-0x5f20>
    20dc:	00010000 	andeq	r0, r1, r0
    20e0:	00052f50 	andeq	r2, r5, r0, asr pc
    20e4:	00056000 	andeq	r6, r5, r0
    20e8:	f3000400 	vshl.u8	d0, d0, d0
    20ec:	009f5001 	addseq	r5, pc, r1
    20f0:	00000000 	andeq	r0, r0, r0
    20f4:	30000000 	andcc	r0, r0, r0
    20f8:	3b000005 	blcc	2114 <_start-0x5eec>
    20fc:	01000005 	tsteq	r0, r5
    2100:	00005000 	andeq	r5, r0, r0
    2104:	00000000 	andeq	r0, r0, r0
    2108:	05600000 	strbeq	r0, [r0, #-0]!
    210c:	05700000 	ldrbeq	r0, [r0, #-0]!
    2110:	00010000 	andeq	r0, r1, r0
    2114:	00057050 	andeq	r7, r5, r0, asr r0
    2118:	00058c00 	andeq	r8, r5, r0, lsl #24
    211c:	55000100 	strpl	r0, [r0, #-256]	; 0x100
	...
    2128:	00000560 	andeq	r0, r0, r0, ror #10
    212c:	00000570 	andeq	r0, r0, r0, ror r5
    2130:	70510001 	subsvc	r0, r1, r1
    2134:	8c000005 	stchi	0, cr0, [r0], {5}
    2138:	01000005 	tsteq	r0, r5
    213c:	00005400 	andeq	r5, r0, r0, lsl #8
    2140:	00000000 	andeq	r0, r0, r0
    2144:	058c0000 	streq	r0, [ip]
    2148:	05a80000 	streq	r0, [r8, #0]!
    214c:	00010000 	andeq	r0, r1, r0
    2150:	0005a850 	andeq	sl, r5, r0, asr r8
    2154:	00060000 	andeq	r0, r6, r0
    2158:	55000100 	strpl	r0, [r0, #-256]	; 0x100
    215c:	00000600 	andeq	r0, r0, r0, lsl #12
    2160:	0000061c 	andeq	r0, r0, ip, lsl r6
    2164:	01f30004 	mvnseq	r0, r4
    2168:	00009f50 	andeq	r9, r0, r0, asr pc
    216c:	00000000 	andeq	r0, r0, r0
    2170:	05b80000 	ldreq	r0, [r8, #0]!
    2174:	05c70000 	strbeq	r0, [r7]
    2178:	00010000 	andeq	r0, r1, r0
    217c:	0005c750 	andeq	ip, r5, r0, asr r7
    2180:	0005e800 	andeq	lr, r5, r0, lsl #16
    2184:	54000100 	strpl	r0, [r0], #-256	; 0x100
    2188:	000005e8 	andeq	r0, r0, r8, ror #11
    218c:	000005ec 	andeq	r0, r0, ip, ror #11
    2190:	ec500001 	mrrc	0, 0, r0, r0, cr1	; <UNPREDICTABLE>
    2194:	00000005 	andeq	r0, r0, r5
    2198:	01000006 	tsteq	r0, r6
    219c:	06005400 	streq	r5, [r0], -r0, lsl #8
    21a0:	061c0000 	ldreq	r0, [ip], -r0
    21a4:	00010000 	andeq	r0, r1, r0
    21a8:	00000050 	andeq	r0, r0, r0, asr r0
    21ac:	00000000 	andeq	r0, r0, r0
    21b0:	00061c00 	andeq	r1, r6, r0, lsl #24
    21b4:	00062f00 	andeq	r2, r6, r0, lsl #30
    21b8:	50000100 	andpl	r0, r0, r0, lsl #2
    21bc:	0000062f 	andeq	r0, r0, pc, lsr #12
    21c0:	00000668 	andeq	r0, r0, r8, ror #12
    21c4:	01f30004 	mvnseq	r0, r4
    21c8:	00009f50 	andeq	r9, r0, r0, asr pc
    21cc:	00000000 	andeq	r0, r0, r0
    21d0:	061c0000 	ldreq	r0, [ip], -r0
    21d4:	062f0000 	strteq	r0, [pc], -r0
    21d8:	00010000 	andeq	r0, r1, r0
    21dc:	00062f51 	andeq	r2, r6, r1, asr pc
    21e0:	00066800 	andeq	r6, r6, r0, lsl #16
    21e4:	f3000400 	vshl.u8	d0, d0, d0
    21e8:	009f5101 	addseq	r5, pc, r1, lsl #2
    21ec:	00000000 	andeq	r0, r0, r0
    21f0:	1c000000 	stcne	0, cr0, [r0], {-0}
    21f4:	2f000006 	svccs	0x00000006
    21f8:	01000006 	tsteq	r0, r6
    21fc:	062f5200 	strteq	r5, [pc], -r0, lsl #4
    2200:	06680000 	strbteq	r0, [r8], -r0
    2204:	00040000 	andeq	r0, r4, r0
    2208:	9f5201f3 	svcls	0x005201f3
	...
    2214:	0000061c 	andeq	r0, r0, ip, lsl r6
    2218:	0000062f 	andeq	r0, r0, pc, lsr #12
    221c:	2f530001 	svccs	0x00530001
    2220:	68000006 	stmdavs	r0, {r1, r2}
    2224:	04000006 	streq	r0, [r0], #-6
    2228:	5301f300 	movwpl	pc, #4864	; 0x1300	; <UNPREDICTABLE>
    222c:	0000009f 	muleq	r0, pc, r0	; <UNPREDICTABLE>
    2230:	00000000 	andeq	r0, r0, r0
    2234:	00063000 	andeq	r3, r6, r0
    2238:	00063b00 	andeq	r3, r6, r0, lsl #22
    223c:	50000100 	andpl	r0, r0, r0, lsl #2
    2240:	00000654 	andeq	r0, r0, r4, asr r6
    2244:	00000668 	andeq	r0, r0, r8, ror #12
    2248:	00500001 	subseq	r0, r0, r1
    224c:	00000000 	andeq	r0, r0, r0
    2250:	fc000000 	stc2	0, cr0, [r0], {-0}
    2254:	04000000 	streq	r0, [r0], #-0
    2258:	01000001 	tsteq	r0, r1
    225c:	01045000 	mrseq	r5, (UNDEF: 4)
    2260:	01280000 	teqeq	r8, r0
    2264:	00010000 	andeq	r0, r1, r0
    2268:	00000054 	andeq	r0, r0, r4, asr r0
	...
    2274:	00000400 	andeq	r0, r0, r0, lsl #8
    2278:	52000100 	andpl	r0, r0, #0, 2
    227c:	00000004 	andeq	r0, r0, r4
    2280:	00000020 	andeq	r0, r0, r0, lsr #32
    2284:	01f30004 	mvnseq	r0, r4
    2288:	00009f52 	andeq	r9, r0, r2, asr pc
	...
    2294:	000c0000 	andeq	r0, ip, r0
    2298:	00010000 	andeq	r0, r1, r0
    229c:	00000c50 	andeq	r0, r0, r0, asr ip
    22a0:	00001400 	andeq	r1, r0, r0, lsl #8
    22a4:	73000300 	movwvc	r0, #768	; 0x300
    22a8:	00149f01 	andseq	r9, r4, r1, lsl #30
    22ac:	00200000 	eoreq	r0, r0, r0
    22b0:	00010000 	andeq	r0, r1, r0
    22b4:	00000053 	andeq	r0, r0, r3, asr r0
    22b8:	00000000 	andeq	r0, r0, r0
	...

Disassembly of section .debug_ranges:

00000000 <.debug_ranges>:
   0:	000002b4 			; <UNDEFINED> instruction: 0x000002b4
   4:	000002b8 			; <UNDEFINED> instruction: 0x000002b8
   8:	000002e8 	andeq	r0, r0, r8, ror #5
   c:	000004e0 	andeq	r0, r0, r0, ror #9
	...
  18:	000088bc 			; <UNDEFINED> instruction: 0x000088bc
  1c:	00008930 	andeq	r8, r0, r0, lsr r9
	...
