
scope.elf:     file format elf32-littlearm


Disassembly of section .text:

00008000 <_start>:
    8000:	e3a0d302 	mov	sp, #134217728	; 0x8000000
    8004:	e3a0b000 	mov	fp, #0
    8008:	eb000427 	bl	90ac <_cstart>
    800c:	eb00043e 	bl	910c <rpi_reboot>

00008010 <cycles_per_sec>:
    8010:	e3500001 	cmp	r0, #1
    8014:	e92d4010 	push	{r4, lr}
    8018:	8a000006 	bhi	8038 <cycles_per_sec+0x28>
    801c:	ee1f4f3c 	mrc	15, 0, r4, cr15, cr12, {1}
    8020:	e3a03ffa 	mov	r3, #1000	; 0x3e8
    8024:	e0000093 	mul	r0, r3, r0
    8028:	eb000461 	bl	91b4 <delay_ms>
    802c:	ee1f0f3c 	mrc	15, 0, r0, cr15, cr12, {1}
    8030:	e0640000 	rsb	r0, r4, r0
    8034:	e8bd8010 	pop	{r4, pc}
    8038:	eb0002b4 	bl	8b10 <rpi_reset_putc>
    803c:	e59f1010 	ldr	r1, [pc, #16]	; 8054 <cycles_per_sec+0x44>
    8040:	e59f2010 	ldr	r2, [pc, #16]	; 8058 <cycles_per_sec+0x48>
    8044:	e3a03041 	mov	r3, #65	; 0x41
    8048:	e59f000c 	ldr	r0, [pc, #12]	; 805c <cycles_per_sec+0x4c>
    804c:	eb000294 	bl	8aa4 <printk>
    8050:	eb00040b 	bl	9084 <clean_reboot>
    8054:	00009a10 	andeq	r9, r0, r0, lsl sl
    8058:	000099d0 	ldrdeq	r9, [r0], -r0
    805c:	000099e0 	andeq	r9, r0, r0, ror #19

00008060 <sw_uart_get8>:
    8060:	e5901004 	ldr	r1, [r0, #4]
    8064:	e3a0c001 	mov	ip, #1
    8068:	e1a0c11c 	lsl	ip, ip, r1
    806c:	e92d00f0 	push	{r4, r5, r6, r7}
    8070:	e590400c 	ldr	r4, [r0, #12]
    8074:	e59f21a4 	ldr	r2, [pc, #420]	; 8220 <sw_uart_get8+0x1c0>
    8078:	e1a050a4 	lsr	r5, r4, #1
    807c:	e5923034 	ldr	r3, [r2, #52]	; 0x34
    8080:	e00c3003 	and	r3, ip, r3
    8084:	e1b03133 	lsrs	r3, r3, r1
    8088:	1afffffb 	bne	807c <sw_uart_get8+0x1c>
    808c:	ee1f3f3c 	mrc	15, 0, r3, cr15, cr12, {1}
    8090:	ee1f2f3c 	mrc	15, 0, r2, cr15, cr12, {1}
    8094:	e0632002 	rsb	r2, r3, r2
    8098:	e1550002 	cmp	r5, r2
    809c:	8afffffb 	bhi	8090 <sw_uart_get8+0x30>
    80a0:	e0855004 	add	r5, r5, r4
    80a4:	ee1f2f3c 	mrc	15, 0, r2, cr15, cr12, {1}
    80a8:	e0632002 	rsb	r2, r3, r2
    80ac:	e1520005 	cmp	r2, r5
    80b0:	3afffffb 	bcc	80a4 <sw_uart_get8+0x44>
    80b4:	e59f2164 	ldr	r2, [pc, #356]	; 8220 <sw_uart_get8+0x1c0>
    80b8:	e0855004 	add	r5, r5, r4
    80bc:	e5927034 	ldr	r7, [r2, #52]	; 0x34
    80c0:	e007700c 	and	r7, r7, ip
    80c4:	e1a07137 	lsr	r7, r7, r1
    80c8:	e2077001 	and	r7, r7, #1
    80cc:	ee1f2f3c 	mrc	15, 0, r2, cr15, cr12, {1}
    80d0:	e0632002 	rsb	r2, r3, r2
    80d4:	e1520005 	cmp	r2, r5
    80d8:	3afffffb 	bcc	80cc <sw_uart_get8+0x6c>
    80dc:	e59f213c 	ldr	r2, [pc, #316]	; 8220 <sw_uart_get8+0x1c0>
    80e0:	e0855004 	add	r5, r5, r4
    80e4:	e5920034 	ldr	r0, [r2, #52]	; 0x34
    80e8:	e000000c 	and	r0, r0, ip
    80ec:	e1a00130 	lsr	r0, r0, r1
    80f0:	e2000001 	and	r0, r0, #1
    80f4:	e1a00080 	lsl	r0, r0, #1
    80f8:	ee1f2f3c 	mrc	15, 0, r2, cr15, cr12, {1}
    80fc:	e0632002 	rsb	r2, r3, r2
    8100:	e1520005 	cmp	r2, r5
    8104:	3afffffb 	bcc	80f8 <sw_uart_get8+0x98>
    8108:	e59f2110 	ldr	r2, [pc, #272]	; 8220 <sw_uart_get8+0x1c0>
    810c:	e0855004 	add	r5, r5, r4
    8110:	e5926034 	ldr	r6, [r2, #52]	; 0x34
    8114:	e006600c 	and	r6, r6, ip
    8118:	e1a06136 	lsr	r6, r6, r1
    811c:	e2066001 	and	r6, r6, #1
    8120:	e1806106 	orr	r6, r0, r6, lsl #2
    8124:	e1866007 	orr	r6, r6, r7
    8128:	ee1f2f3c 	mrc	15, 0, r2, cr15, cr12, {1}
    812c:	e0632002 	rsb	r2, r3, r2
    8130:	e1520005 	cmp	r2, r5
    8134:	3afffffb 	bcc	8128 <sw_uart_get8+0xc8>
    8138:	e59f20e0 	ldr	r2, [pc, #224]	; 8220 <sw_uart_get8+0x1c0>
    813c:	e0855004 	add	r5, r5, r4
    8140:	e5920034 	ldr	r0, [r2, #52]	; 0x34
    8144:	e000000c 	and	r0, r0, ip
    8148:	e1a00130 	lsr	r0, r0, r1
    814c:	e2000001 	and	r0, r0, #1
    8150:	e1860180 	orr	r0, r6, r0, lsl #3
    8154:	ee1f2f3c 	mrc	15, 0, r2, cr15, cr12, {1}
    8158:	e0632002 	rsb	r2, r3, r2
    815c:	e1520005 	cmp	r2, r5
    8160:	3afffffb 	bcc	8154 <sw_uart_get8+0xf4>
    8164:	e59f20b4 	ldr	r2, [pc, #180]	; 8220 <sw_uart_get8+0x1c0>
    8168:	e0855004 	add	r5, r5, r4
    816c:	e5927034 	ldr	r7, [r2, #52]	; 0x34
    8170:	e007700c 	and	r7, r7, ip
    8174:	e1a07137 	lsr	r7, r7, r1
    8178:	e2077001 	and	r7, r7, #1
    817c:	e1807207 	orr	r7, r0, r7, lsl #4
    8180:	ee1f2f3c 	mrc	15, 0, r2, cr15, cr12, {1}
    8184:	e0632002 	rsb	r2, r3, r2
    8188:	e1520005 	cmp	r2, r5
    818c:	3afffffb 	bcc	8180 <sw_uart_get8+0x120>
    8190:	e59f2088 	ldr	r2, [pc, #136]	; 8220 <sw_uart_get8+0x1c0>
    8194:	e0855004 	add	r5, r5, r4
    8198:	e5926034 	ldr	r6, [r2, #52]	; 0x34
    819c:	e006600c 	and	r6, r6, ip
    81a0:	e1a06136 	lsr	r6, r6, r1
    81a4:	e2066001 	and	r6, r6, #1
    81a8:	e1876286 	orr	r6, r7, r6, lsl #5
    81ac:	ee1f2f3c 	mrc	15, 0, r2, cr15, cr12, {1}
    81b0:	e0632002 	rsb	r2, r3, r2
    81b4:	e1520005 	cmp	r2, r5
    81b8:	3afffffb 	bcc	81ac <sw_uart_get8+0x14c>
    81bc:	e59f205c 	ldr	r2, [pc, #92]	; 8220 <sw_uart_get8+0x1c0>
    81c0:	e0855004 	add	r5, r5, r4
    81c4:	e5920034 	ldr	r0, [r2, #52]	; 0x34
    81c8:	e000000c 	and	r0, r0, ip
    81cc:	e1a00130 	lsr	r0, r0, r1
    81d0:	e2000001 	and	r0, r0, #1
    81d4:	e1860300 	orr	r0, r6, r0, lsl #6
    81d8:	ee1f2f3c 	mrc	15, 0, r2, cr15, cr12, {1}
    81dc:	e0632002 	rsb	r2, r3, r2
    81e0:	e1520005 	cmp	r2, r5
    81e4:	3afffffb 	bcc	81d8 <sw_uart_get8+0x178>
    81e8:	e59f2030 	ldr	r2, [pc, #48]	; 8220 <sw_uart_get8+0x1c0>
    81ec:	e0854004 	add	r4, r5, r4
    81f0:	e5922034 	ldr	r2, [r2, #52]	; 0x34
    81f4:	e002c00c 	and	ip, r2, ip
    81f8:	e1a0113c 	lsr	r1, ip, r1
    81fc:	e1a01381 	lsl	r1, r1, #7
    8200:	e6ef1071 	uxtb	r1, r1
    8204:	e1800001 	orr	r0, r0, r1
    8208:	ee1f2f3c 	mrc	15, 0, r2, cr15, cr12, {1}
    820c:	e0632002 	rsb	r2, r3, r2
    8210:	e1520004 	cmp	r2, r4
    8214:	3afffffb 	bcc	8208 <sw_uart_get8+0x1a8>
    8218:	e8bd00f0 	pop	{r4, r5, r6, r7}
    821c:	e12fff1e 	bx	lr
    8220:	20200000 	eorcs	r0, r0, r0

00008224 <sw_uart_put8>:
    8224:	e92d0070 	push	{r4, r5, r6}
    8228:	ee1f3f3c 	mrc	15, 0, r3, cr15, cr12, {1}
    822c:	e5905000 	ldr	r5, [r0]
    8230:	e3a04001 	mov	r4, #1
    8234:	e1a04514 	lsl	r4, r4, r5
    8238:	e59f6270 	ldr	r6, [pc, #624]	; 84b0 <sw_uart_put8+0x28c>
    823c:	e5962034 	ldr	r2, [r6, #52]	; 0x34
    8240:	e59fc268 	ldr	ip, [pc, #616]	; 84b0 <sw_uart_put8+0x28c>
    8244:	e0042002 	and	r2, r4, r2
    8248:	e1b02532 	lsrs	r2, r2, r5
    824c:	0afffffa 	beq	823c <sw_uart_put8+0x18>
    8250:	e59c2028 	ldr	r2, [ip, #40]	; 0x28
    8254:	e1824004 	orr	r4, r2, r4
    8258:	e58c4028 	str	r4, [ip, #40]	; 0x28
    825c:	e590c00c 	ldr	ip, [r0, #12]
    8260:	ee1f2f3c 	mrc	15, 0, r2, cr15, cr12, {1}
    8264:	e0632002 	rsb	r2, r3, r2
    8268:	e152000c 	cmp	r2, ip
    826c:	3afffffb 	bcc	8260 <sw_uart_put8+0x3c>
    8270:	e59fc238 	ldr	ip, [pc, #568]	; 84b0 <sw_uart_put8+0x28c>
    8274:	e3110080 	tst	r1, #128	; 0x80
    8278:	e5902000 	ldr	r2, [r0]
    827c:	159c401c 	ldrne	r4, [ip, #28]
    8280:	059c4028 	ldreq	r4, [ip, #40]	; 0x28
    8284:	e3a05001 	mov	r5, #1
    8288:	11842215 	orrne	r2, r4, r5, lsl r2
    828c:	01842215 	orreq	r2, r4, r5, lsl r2
    8290:	158c201c 	strne	r2, [ip, #28]
    8294:	058c2028 	streq	r2, [ip, #40]	; 0x28
    8298:	e590c00c 	ldr	ip, [r0, #12]
    829c:	e1a0c08c 	lsl	ip, ip, #1
    82a0:	ee1f2f3c 	mrc	15, 0, r2, cr15, cr12, {1}
    82a4:	e0632002 	rsb	r2, r3, r2
    82a8:	e152000c 	cmp	r2, ip
    82ac:	3afffffb 	bcc	82a0 <sw_uart_put8+0x7c>
    82b0:	e59fc1f8 	ldr	ip, [pc, #504]	; 84b0 <sw_uart_put8+0x28c>
    82b4:	e3110040 	tst	r1, #64	; 0x40
    82b8:	e5902000 	ldr	r2, [r0]
    82bc:	159c401c 	ldrne	r4, [ip, #28]
    82c0:	059c4028 	ldreq	r4, [ip, #40]	; 0x28
    82c4:	e3a05001 	mov	r5, #1
    82c8:	11842215 	orrne	r2, r4, r5, lsl r2
    82cc:	01842215 	orreq	r2, r4, r5, lsl r2
    82d0:	158c201c 	strne	r2, [ip, #28]
    82d4:	058c2028 	streq	r2, [ip, #40]	; 0x28
    82d8:	e590c00c 	ldr	ip, [r0, #12]
    82dc:	e08cc08c 	add	ip, ip, ip, lsl #1
    82e0:	ee1f2f3c 	mrc	15, 0, r2, cr15, cr12, {1}
    82e4:	e0632002 	rsb	r2, r3, r2
    82e8:	e152000c 	cmp	r2, ip
    82ec:	3afffffb 	bcc	82e0 <sw_uart_put8+0xbc>
    82f0:	e59fc1b8 	ldr	ip, [pc, #440]	; 84b0 <sw_uart_put8+0x28c>
    82f4:	e3110020 	tst	r1, #32
    82f8:	e5902000 	ldr	r2, [r0]
    82fc:	159c401c 	ldrne	r4, [ip, #28]
    8300:	059c4028 	ldreq	r4, [ip, #40]	; 0x28
    8304:	e3a05001 	mov	r5, #1
    8308:	11842215 	orrne	r2, r4, r5, lsl r2
    830c:	01842215 	orreq	r2, r4, r5, lsl r2
    8310:	158c201c 	strne	r2, [ip, #28]
    8314:	058c2028 	streq	r2, [ip, #40]	; 0x28
    8318:	e590c00c 	ldr	ip, [r0, #12]
    831c:	e1a0c10c 	lsl	ip, ip, #2
    8320:	ee1f2f3c 	mrc	15, 0, r2, cr15, cr12, {1}
    8324:	e0632002 	rsb	r2, r3, r2
    8328:	e152000c 	cmp	r2, ip
    832c:	3afffffb 	bcc	8320 <sw_uart_put8+0xfc>
    8330:	e59fc178 	ldr	ip, [pc, #376]	; 84b0 <sw_uart_put8+0x28c>
    8334:	e3110010 	tst	r1, #16
    8338:	e5902000 	ldr	r2, [r0]
    833c:	159c401c 	ldrne	r4, [ip, #28]
    8340:	059c4028 	ldreq	r4, [ip, #40]	; 0x28
    8344:	e3a05001 	mov	r5, #1
    8348:	11842215 	orrne	r2, r4, r5, lsl r2
    834c:	01842215 	orreq	r2, r4, r5, lsl r2
    8350:	158c201c 	strne	r2, [ip, #28]
    8354:	058c2028 	streq	r2, [ip, #40]	; 0x28
    8358:	e590c00c 	ldr	ip, [r0, #12]
    835c:	e08cc10c 	add	ip, ip, ip, lsl #2
    8360:	ee1f2f3c 	mrc	15, 0, r2, cr15, cr12, {1}
    8364:	e0632002 	rsb	r2, r3, r2
    8368:	e152000c 	cmp	r2, ip
    836c:	3afffffb 	bcc	8360 <sw_uart_put8+0x13c>
    8370:	e59fc138 	ldr	ip, [pc, #312]	; 84b0 <sw_uart_put8+0x28c>
    8374:	e3110008 	tst	r1, #8
    8378:	e5902000 	ldr	r2, [r0]
    837c:	159c401c 	ldrne	r4, [ip, #28]
    8380:	059c4028 	ldreq	r4, [ip, #40]	; 0x28
    8384:	e3a05001 	mov	r5, #1
    8388:	11842215 	orrne	r2, r4, r5, lsl r2
    838c:	01842215 	orreq	r2, r4, r5, lsl r2
    8390:	158c201c 	strne	r2, [ip, #28]
    8394:	058c2028 	streq	r2, [ip, #40]	; 0x28
    8398:	e590c00c 	ldr	ip, [r0, #12]
    839c:	e08cc08c 	add	ip, ip, ip, lsl #1
    83a0:	e1a0c08c 	lsl	ip, ip, #1
    83a4:	ee1f2f3c 	mrc	15, 0, r2, cr15, cr12, {1}
    83a8:	e0632002 	rsb	r2, r3, r2
    83ac:	e152000c 	cmp	r2, ip
    83b0:	3afffffb 	bcc	83a4 <sw_uart_put8+0x180>
    83b4:	e59fc0f4 	ldr	ip, [pc, #244]	; 84b0 <sw_uart_put8+0x28c>
    83b8:	e3110004 	tst	r1, #4
    83bc:	e5902000 	ldr	r2, [r0]
    83c0:	159c401c 	ldrne	r4, [ip, #28]
    83c4:	059c4028 	ldreq	r4, [ip, #40]	; 0x28
    83c8:	e3a05001 	mov	r5, #1
    83cc:	11842215 	orrne	r2, r4, r5, lsl r2
    83d0:	01842215 	orreq	r2, r4, r5, lsl r2
    83d4:	158c201c 	strne	r2, [ip, #28]
    83d8:	058c2028 	streq	r2, [ip, #40]	; 0x28
    83dc:	e590c00c 	ldr	ip, [r0, #12]
    83e0:	e06cc18c 	rsb	ip, ip, ip, lsl #3
    83e4:	ee1f2f3c 	mrc	15, 0, r2, cr15, cr12, {1}
    83e8:	e0632002 	rsb	r2, r3, r2
    83ec:	e152000c 	cmp	r2, ip
    83f0:	3afffffb 	bcc	83e4 <sw_uart_put8+0x1c0>
    83f4:	e59fc0b4 	ldr	ip, [pc, #180]	; 84b0 <sw_uart_put8+0x28c>
    83f8:	e3110002 	tst	r1, #2
    83fc:	e5902000 	ldr	r2, [r0]
    8400:	159c401c 	ldrne	r4, [ip, #28]
    8404:	059c4028 	ldreq	r4, [ip, #40]	; 0x28
    8408:	e3a05001 	mov	r5, #1
    840c:	11842215 	orrne	r2, r4, r5, lsl r2
    8410:	01842215 	orreq	r2, r4, r5, lsl r2
    8414:	158c201c 	strne	r2, [ip, #28]
    8418:	058c2028 	streq	r2, [ip, #40]	; 0x28
    841c:	e590c00c 	ldr	ip, [r0, #12]
    8420:	e1a0c18c 	lsl	ip, ip, #3
    8424:	ee1f2f3c 	mrc	15, 0, r2, cr15, cr12, {1}
    8428:	e0632002 	rsb	r2, r3, r2
    842c:	e152000c 	cmp	r2, ip
    8430:	3afffffb 	bcc	8424 <sw_uart_put8+0x200>
    8434:	e3110001 	tst	r1, #1
    8438:	e59f1070 	ldr	r1, [pc, #112]	; 84b0 <sw_uart_put8+0x28c>
    843c:	e5902000 	ldr	r2, [r0]
    8440:	1591c01c 	ldrne	ip, [r1, #28]
    8444:	0591c028 	ldreq	ip, [r1, #40]	; 0x28
    8448:	e3a04001 	mov	r4, #1
    844c:	118c2214 	orrne	r2, ip, r4, lsl r2
    8450:	018c2214 	orreq	r2, ip, r4, lsl r2
    8454:	1581201c 	strne	r2, [r1, #28]
    8458:	05812028 	streq	r2, [r1, #40]	; 0x28
    845c:	e590100c 	ldr	r1, [r0, #12]
    8460:	e0811181 	add	r1, r1, r1, lsl #3
    8464:	ee1f2f3c 	mrc	15, 0, r2, cr15, cr12, {1}
    8468:	e0632002 	rsb	r2, r3, r2
    846c:	e1520001 	cmp	r2, r1
    8470:	3afffffb 	bcc	8464 <sw_uart_put8+0x240>
    8474:	e59f2034 	ldr	r2, [pc, #52]	; 84b0 <sw_uart_put8+0x28c>
    8478:	e5901000 	ldr	r1, [r0]
    847c:	e592c01c 	ldr	ip, [r2, #28]
    8480:	e3a04001 	mov	r4, #1
    8484:	e18c1114 	orr	r1, ip, r4, lsl r1
    8488:	e582101c 	str	r1, [r2, #28]
    848c:	e590100c 	ldr	r1, [r0, #12]
    8490:	e0811101 	add	r1, r1, r1, lsl #2
    8494:	e1a01411 	lsl	r1, r1, r4
    8498:	ee1f2f3c 	mrc	15, 0, r2, cr15, cr12, {1}
    849c:	e0632002 	rsb	r2, r3, r2
    84a0:	e1520001 	cmp	r2, r1
    84a4:	3afffffb 	bcc	8498 <sw_uart_put8+0x274>
    84a8:	e8bd0070 	pop	{r4, r5, r6}
    84ac:	e12fff1e 	bx	lr
    84b0:	20200000 	eorcs	r0, r0, r0

000084b4 <scope>:
    84b4:	e92d07f0 	push	{r4, r5, r6, r7, r8, r9, sl}
    84b8:	e59f344c 	ldr	r3, [pc, #1100]	; 890c <scope+0x458>
    84bc:	e24dd054 	sub	sp, sp, #84	; 0x54
    84c0:	e5938034 	ldr	r8, [r3, #52]	; 0x34
    84c4:	e1a06000 	mov	r6, r0
    84c8:	e2088602 	and	r8, r8, #2097152	; 0x200000
    84cc:	e593c034 	ldr	ip, [r3, #52]	; 0x34
    84d0:	e20cc602 	and	ip, ip, #2097152	; 0x200000
    84d4:	e15c0008 	cmp	ip, r8
    84d8:	0afffffb 	beq	84cc <scope+0x18>
    84dc:	ee1f7f3c 	mrc	15, 0, r7, cr15, cr12, {1}
    84e0:	e59f5428 	ldr	r5, [pc, #1064]	; 8910 <scope+0x45c>
    84e4:	e59f3420 	ldr	r3, [pc, #1056]	; 890c <scope+0x458>
    84e8:	e3a00001 	mov	r0, #1
    84ec:	ea000001 	b	84f8 <scope+0x44>
    84f0:	e2555001 	subs	r5, r5, #1
    84f4:	0a000049 	beq	8620 <scope+0x16c>
    84f8:	e5934034 	ldr	r4, [r3, #52]	; 0x34
    84fc:	e2044602 	and	r4, r4, #2097152	; 0x200000
    8500:	e15c0004 	cmp	ip, r4
    8504:	0a000004 	beq	851c <scope+0x68>
    8508:	ee1f9f3c 	mrc	15, 0, r9, cr15, cr12, {1}
    850c:	e28da050 	add	sl, sp, #80	; 0x50
    8510:	e08ac100 	add	ip, sl, r0, lsl #2
    8514:	e50c9050 	str	r9, [ip, #-80]	; 0x50
    8518:	e2800001 	add	r0, r0, #1
    851c:	e593c034 	ldr	ip, [r3, #52]	; 0x34
    8520:	e20cc602 	and	ip, ip, #2097152	; 0x200000
    8524:	e154000c 	cmp	r4, ip
    8528:	0a000004 	beq	8540 <scope+0x8c>
    852c:	ee1f9f3c 	mrc	15, 0, r9, cr15, cr12, {1}
    8530:	e28da050 	add	sl, sp, #80	; 0x50
    8534:	e08a4100 	add	r4, sl, r0, lsl #2
    8538:	e5049050 	str	r9, [r4, #-80]	; 0x50
    853c:	e2800001 	add	r0, r0, #1
    8540:	e5934034 	ldr	r4, [r3, #52]	; 0x34
    8544:	e2044602 	and	r4, r4, #2097152	; 0x200000
    8548:	e15c0004 	cmp	ip, r4
    854c:	0a000004 	beq	8564 <scope+0xb0>
    8550:	ee1f9f3c 	mrc	15, 0, r9, cr15, cr12, {1}
    8554:	e28da050 	add	sl, sp, #80	; 0x50
    8558:	e08ac100 	add	ip, sl, r0, lsl #2
    855c:	e50c9050 	str	r9, [ip, #-80]	; 0x50
    8560:	e2800001 	add	r0, r0, #1
    8564:	e593c034 	ldr	ip, [r3, #52]	; 0x34
    8568:	e20cc602 	and	ip, ip, #2097152	; 0x200000
    856c:	e154000c 	cmp	r4, ip
    8570:	0a000004 	beq	8588 <scope+0xd4>
    8574:	ee1f9f3c 	mrc	15, 0, r9, cr15, cr12, {1}
    8578:	e28da050 	add	sl, sp, #80	; 0x50
    857c:	e08a4100 	add	r4, sl, r0, lsl #2
    8580:	e5049050 	str	r9, [r4, #-80]	; 0x50
    8584:	e2800001 	add	r0, r0, #1
    8588:	e5934034 	ldr	r4, [r3, #52]	; 0x34
    858c:	e2044602 	and	r4, r4, #2097152	; 0x200000
    8590:	e15c0004 	cmp	ip, r4
    8594:	0a000004 	beq	85ac <scope+0xf8>
    8598:	ee1f9f3c 	mrc	15, 0, r9, cr15, cr12, {1}
    859c:	e28da050 	add	sl, sp, #80	; 0x50
    85a0:	e08ac100 	add	ip, sl, r0, lsl #2
    85a4:	e50c9050 	str	r9, [ip, #-80]	; 0x50
    85a8:	e2800001 	add	r0, r0, #1
    85ac:	e593c034 	ldr	ip, [r3, #52]	; 0x34
    85b0:	e20cc602 	and	ip, ip, #2097152	; 0x200000
    85b4:	e154000c 	cmp	r4, ip
    85b8:	0a000004 	beq	85d0 <scope+0x11c>
    85bc:	ee1f9f3c 	mrc	15, 0, r9, cr15, cr12, {1}
    85c0:	e28da050 	add	sl, sp, #80	; 0x50
    85c4:	e08a4100 	add	r4, sl, r0, lsl #2
    85c8:	e5049050 	str	r9, [r4, #-80]	; 0x50
    85cc:	e2800001 	add	r0, r0, #1
    85d0:	e5934034 	ldr	r4, [r3, #52]	; 0x34
    85d4:	e2044602 	and	r4, r4, #2097152	; 0x200000
    85d8:	e15c0004 	cmp	ip, r4
    85dc:	0a000004 	beq	85f4 <scope+0x140>
    85e0:	ee1f9f3c 	mrc	15, 0, r9, cr15, cr12, {1}
    85e4:	e28da050 	add	sl, sp, #80	; 0x50
    85e8:	e08ac100 	add	ip, sl, r0, lsl #2
    85ec:	e50c9050 	str	r9, [ip, #-80]	; 0x50
    85f0:	e2800001 	add	r0, r0, #1
    85f4:	e593c034 	ldr	ip, [r3, #52]	; 0x34
    85f8:	e20cc602 	and	ip, ip, #2097152	; 0x200000
    85fc:	e154000c 	cmp	r4, ip
    8600:	0a000004 	beq	8618 <scope+0x164>
    8604:	ee1f9f3c 	mrc	15, 0, r9, cr15, cr12, {1}
    8608:	e28da050 	add	sl, sp, #80	; 0x50
    860c:	e08a4100 	add	r4, sl, r0, lsl #2
    8610:	e5049050 	str	r9, [r4, #-80]	; 0x50
    8614:	e2800001 	add	r0, r0, #1
    8618:	e1500002 	cmp	r0, r2
    861c:	9affffb3 	bls	84f0 <scope+0x3c>
    8620:	e3a03001 	mov	r3, #1
    8624:	e0088613 	and	r8, r8, r3, lsl r6
    8628:	e1a06638 	lsr	r6, r8, r6
    862c:	e3500000 	cmp	r0, #0
    8630:	e0664003 	rsb	r4, r6, r3
    8634:	e1a0c004 	mov	ip, r4
    8638:	13a03000 	movne	r3, #0
    863c:	0a000094 	beq	8894 <scope+0x3e0>
    8640:	e2833001 	add	r3, r3, #1
    8644:	e1530000 	cmp	r3, r0
    8648:	1afffffc 	bne	8640 <scope+0x18c>
    864c:	e3500002 	cmp	r0, #2
    8650:	e58d7000 	str	r7, [sp]
    8654:	e2403001 	sub	r3, r0, #1
    8658:	9a000090 	bls	88a0 <scope+0x3ec>
    865c:	e99d0104 	ldmib	sp, {r2, r8}
    8660:	e0677002 	rsb	r7, r7, r2
    8664:	e0622008 	rsb	r2, r2, r8
    8668:	e3570000 	cmp	r7, #0
    866c:	b2677000 	rsblt	r7, r7, #0
    8670:	e3520000 	cmp	r2, #0
    8674:	b2622000 	rsblt	r2, r2, #0
    8678:	e3530003 	cmp	r3, #3
    867c:	e5814000 	str	r4, [r1]
    8680:	e5816008 	str	r6, [r1, #8]
    8684:	e5817004 	str	r7, [r1, #4]
    8688:	e581200c 	str	r2, [r1, #12]
    868c:	e1a0c004 	mov	ip, r4
    8690:	9a000085 	bls	88ac <scope+0x3f8>
    8694:	e59d200c 	ldr	r2, [sp, #12]
    8698:	e59d5010 	ldr	r5, [sp, #16]
    869c:	e0688002 	rsb	r8, r8, r2
    86a0:	e0622005 	rsb	r2, r2, r5
    86a4:	e3580000 	cmp	r8, #0
    86a8:	b2688000 	rsblt	r8, r8, #0
    86ac:	e3520000 	cmp	r2, #0
    86b0:	b2622000 	rsblt	r2, r2, #0
    86b4:	e3530005 	cmp	r3, #5
    86b8:	e5814010 	str	r4, [r1, #16]
    86bc:	e5816018 	str	r6, [r1, #24]
    86c0:	e5818014 	str	r8, [r1, #20]
    86c4:	e581201c 	str	r2, [r1, #28]
    86c8:	9a00007a 	bls	88b8 <scope+0x404>
    86cc:	e59d2014 	ldr	r2, [sp, #20]
    86d0:	e59d7018 	ldr	r7, [sp, #24]
    86d4:	e0655002 	rsb	r5, r5, r2
    86d8:	e0622007 	rsb	r2, r2, r7
    86dc:	e3550000 	cmp	r5, #0
    86e0:	b2655000 	rsblt	r5, r5, #0
    86e4:	e3520000 	cmp	r2, #0
    86e8:	b2622000 	rsblt	r2, r2, #0
    86ec:	e3530007 	cmp	r3, #7
    86f0:	e5814020 	str	r4, [r1, #32]
    86f4:	e5816028 	str	r6, [r1, #40]	; 0x28
    86f8:	e5815024 	str	r5, [r1, #36]	; 0x24
    86fc:	e581202c 	str	r2, [r1, #44]	; 0x2c
    8700:	9a00006f 	bls	88c4 <scope+0x410>
    8704:	e59d201c 	ldr	r2, [sp, #28]
    8708:	e59d5020 	ldr	r5, [sp, #32]
    870c:	e0677002 	rsb	r7, r7, r2
    8710:	e0622005 	rsb	r2, r2, r5
    8714:	e3570000 	cmp	r7, #0
    8718:	b2677000 	rsblt	r7, r7, #0
    871c:	e3520000 	cmp	r2, #0
    8720:	b2622000 	rsblt	r2, r2, #0
    8724:	e3530009 	cmp	r3, #9
    8728:	e5814030 	str	r4, [r1, #48]	; 0x30
    872c:	e5816038 	str	r6, [r1, #56]	; 0x38
    8730:	e5817034 	str	r7, [r1, #52]	; 0x34
    8734:	e581203c 	str	r2, [r1, #60]	; 0x3c
    8738:	9a000064 	bls	88d0 <scope+0x41c>
    873c:	e59d2024 	ldr	r2, [sp, #36]	; 0x24
    8740:	e59d7028 	ldr	r7, [sp, #40]	; 0x28
    8744:	e0655002 	rsb	r5, r5, r2
    8748:	e0622007 	rsb	r2, r2, r7
    874c:	e3550000 	cmp	r5, #0
    8750:	b2655000 	rsblt	r5, r5, #0
    8754:	e3520000 	cmp	r2, #0
    8758:	b2622000 	rsblt	r2, r2, #0
    875c:	e353000b 	cmp	r3, #11
    8760:	e5814040 	str	r4, [r1, #64]	; 0x40
    8764:	e5816048 	str	r6, [r1, #72]	; 0x48
    8768:	e5815044 	str	r5, [r1, #68]	; 0x44
    876c:	e581204c 	str	r2, [r1, #76]	; 0x4c
    8770:	9a000059 	bls	88dc <scope+0x428>
    8774:	e59d202c 	ldr	r2, [sp, #44]	; 0x2c
    8778:	e59d5030 	ldr	r5, [sp, #48]	; 0x30
    877c:	e0677002 	rsb	r7, r7, r2
    8780:	e0622005 	rsb	r2, r2, r5
    8784:	e3570000 	cmp	r7, #0
    8788:	b2677000 	rsblt	r7, r7, #0
    878c:	e3520000 	cmp	r2, #0
    8790:	b2622000 	rsblt	r2, r2, #0
    8794:	e353000d 	cmp	r3, #13
    8798:	e5814050 	str	r4, [r1, #80]	; 0x50
    879c:	e5816058 	str	r6, [r1, #88]	; 0x58
    87a0:	e5817054 	str	r7, [r1, #84]	; 0x54
    87a4:	e581205c 	str	r2, [r1, #92]	; 0x5c
    87a8:	9a00004e 	bls	88e8 <scope+0x434>
    87ac:	e59d2034 	ldr	r2, [sp, #52]	; 0x34
    87b0:	e59d7038 	ldr	r7, [sp, #56]	; 0x38
    87b4:	e0655002 	rsb	r5, r5, r2
    87b8:	e0622007 	rsb	r2, r2, r7
    87bc:	e3550000 	cmp	r5, #0
    87c0:	b2655000 	rsblt	r5, r5, #0
    87c4:	e3520000 	cmp	r2, #0
    87c8:	b2622000 	rsblt	r2, r2, #0
    87cc:	e353000f 	cmp	r3, #15
    87d0:	e5814060 	str	r4, [r1, #96]	; 0x60
    87d4:	e5816068 	str	r6, [r1, #104]	; 0x68
    87d8:	e5815064 	str	r5, [r1, #100]	; 0x64
    87dc:	e581206c 	str	r2, [r1, #108]	; 0x6c
    87e0:	9a000043 	bls	88f4 <scope+0x440>
    87e4:	e59d503c 	ldr	r5, [sp, #60]	; 0x3c
    87e8:	e59d2040 	ldr	r2, [sp, #64]	; 0x40
    87ec:	e0677005 	rsb	r7, r7, r5
    87f0:	e0655002 	rsb	r5, r5, r2
    87f4:	e3570000 	cmp	r7, #0
    87f8:	b2677000 	rsblt	r7, r7, #0
    87fc:	e3550000 	cmp	r5, #0
    8800:	b2655000 	rsblt	r5, r5, #0
    8804:	e3530011 	cmp	r3, #17
    8808:	e5814070 	str	r4, [r1, #112]	; 0x70
    880c:	e5816078 	str	r6, [r1, #120]	; 0x78
    8810:	e5817074 	str	r7, [r1, #116]	; 0x74
    8814:	e581507c 	str	r5, [r1, #124]	; 0x7c
    8818:	9a000038 	bls	8900 <scope+0x44c>
    881c:	e59d3044 	ldr	r3, [sp, #68]	; 0x44
    8820:	e59dc048 	ldr	ip, [sp, #72]	; 0x48
    8824:	e0622003 	rsb	r2, r2, r3
    8828:	e063300c 	rsb	r3, r3, ip
    882c:	e0225fc2 	eor	r5, r2, r2, asr #31
    8830:	e0455fc2 	sub	r5, r5, r2, asr #31
    8834:	e3530000 	cmp	r3, #0
    8838:	b2633000 	rsblt	r3, r3, #0
    883c:	e3a02012 	mov	r2, #18
    8840:	e581308c 	str	r3, [r1, #140]	; 0x8c
    8844:	e5814080 	str	r4, [r1, #128]	; 0x80
    8848:	e5816088 	str	r6, [r1, #136]	; 0x88
    884c:	e1a0c004 	mov	ip, r4
    8850:	e5815084 	str	r5, [r1, #132]	; 0x84
    8854:	e1a03002 	mov	r3, r2
    8858:	e28d5000 	add	r5, sp, #0
    885c:	e0854103 	add	r4, r5, r3, lsl #2
    8860:	e5946004 	ldr	r6, [r4, #4]
    8864:	e4945004 	ldr	r5, [r4], #4
    8868:	e2833001 	add	r3, r3, #1
    886c:	e0656006 	rsb	r6, r5, r6
    8870:	e3560000 	cmp	r6, #0
    8874:	b2666000 	rsblt	r6, r6, #0
    8878:	e0815182 	add	r5, r1, r2, lsl #3
    887c:	e1530000 	cmp	r3, r0
    8880:	e781c182 	str	ip, [r1, r2, lsl #3]
    8884:	e26cc001 	rsb	ip, ip, #1
    8888:	e5856004 	str	r6, [r5, #4]
    888c:	e1a02003 	mov	r2, r3
    8890:	3afffff2 	bcc	8860 <scope+0x3ac>
    8894:	e28dd054 	add	sp, sp, #84	; 0x54
    8898:	e8bd07f0 	pop	{r4, r5, r6, r7, r8, r9, sl}
    889c:	e12fff1e 	bx	lr
    88a0:	e3a02000 	mov	r2, #0
    88a4:	e1a03002 	mov	r3, r2
    88a8:	eaffffea 	b	8858 <scope+0x3a4>
    88ac:	e3a02002 	mov	r2, #2
    88b0:	e1a03002 	mov	r3, r2
    88b4:	eaffffe7 	b	8858 <scope+0x3a4>
    88b8:	e3a02004 	mov	r2, #4
    88bc:	e1a03002 	mov	r3, r2
    88c0:	eaffffe4 	b	8858 <scope+0x3a4>
    88c4:	e3a02006 	mov	r2, #6
    88c8:	e1a03002 	mov	r3, r2
    88cc:	eaffffe1 	b	8858 <scope+0x3a4>
    88d0:	e3a02008 	mov	r2, #8
    88d4:	e1a03002 	mov	r3, r2
    88d8:	eaffffde 	b	8858 <scope+0x3a4>
    88dc:	e3a0200a 	mov	r2, #10
    88e0:	e1a03002 	mov	r3, r2
    88e4:	eaffffdb 	b	8858 <scope+0x3a4>
    88e8:	e3a0200c 	mov	r2, #12
    88ec:	e1a03002 	mov	r3, r2
    88f0:	eaffffd8 	b	8858 <scope+0x3a4>
    88f4:	e3a0200e 	mov	r2, #14
    88f8:	e1a03002 	mov	r3, r2
    88fc:	eaffffd5 	b	8858 <scope+0x3a4>
    8900:	e3a02010 	mov	r2, #16
    8904:	e1a03002 	mov	r3, r2
    8908:	eaffffd2 	b	8858 <scope+0x3a4>
    890c:	20200000 	eorcs	r0, r0, r0
    8910:	00007530 	andeq	r7, r0, r0, lsr r5

00008914 <dump_samples>:
    8914:	e92d47f0 	push	{r4, r5, r6, r7, r8, r9, sl, lr}
    8918:	e2519001 	subs	r9, r1, #1
    891c:	e24dd010 	sub	sp, sp, #16
    8920:	e1a0a000 	mov	sl, r0
    8924:	e1a08002 	mov	r8, r2
    8928:	0a00001a 	beq	8998 <dump_samples+0x84>
    892c:	e3a02000 	mov	r2, #0
    8930:	e1a01002 	mov	r1, r2
    8934:	e1a06002 	mov	r6, r2
    8938:	e1a05002 	mov	r5, r2
    893c:	e1a04008 	mov	r4, r8
    8940:	ea000001 	b	894c <dump_samples+0x38>
    8944:	e1a01007 	mov	r1, r7
    8948:	e1a02007 	mov	r2, r7
    894c:	e1a02182 	lsl	r2, r2, #3
    8950:	e08a3002 	add	r3, sl, r2
    8954:	e5933004 	ldr	r3, [r3, #4]
    8958:	e79a2002 	ldr	r2, [sl, r2]
    895c:	e0855003 	add	r5, r5, r3
    8960:	e1550004 	cmp	r5, r4
    8964:	80640005 	rsbhi	r0, r4, r5
    8968:	90650004 	rsbls	r0, r5, r4
    896c:	e0866000 	add	r6, r6, r0
    8970:	e2817001 	add	r7, r1, #1
    8974:	e58d4004 	str	r4, [sp, #4]
    8978:	e58d0008 	str	r0, [sp, #8]
    897c:	e58d600c 	str	r6, [sp, #12]
    8980:	e58d5000 	str	r5, [sp]
    8984:	e59f0014 	ldr	r0, [pc, #20]	; 89a0 <dump_samples+0x8c>
    8988:	eb000045 	bl	8aa4 <printk>
    898c:	e1570009 	cmp	r7, r9
    8990:	e0844008 	add	r4, r4, r8
    8994:	1affffea 	bne	8944 <dump_samples+0x30>
    8998:	e28dd010 	add	sp, sp, #16
    899c:	e8bd87f0 	pop	{r4, r5, r6, r7, r8, r9, sl, pc}
    89a0:	00009a18 	andeq	r9, r0, r8, lsl sl

000089a4 <interpret>:
    89a4:	e2511001 	subs	r1, r1, #1
    89a8:	012fff1e 	bxeq	lr
    89ac:	e3a02000 	mov	r2, #0
    89b0:	e59fc07c 	ldr	ip, [pc, #124]	; 8a34 <interpret+0x90>
    89b4:	e1a03002 	mov	r3, r2
    89b8:	e0802182 	add	r2, r0, r2, lsl #3
    89bc:	e3530004 	cmp	r3, #4
    89c0:	e5922004 	ldr	r2, [r2, #4]
    89c4:	0a000008 	beq	89ec <interpret+0x48>
    89c8:	e3530008 	cmp	r3, #8
    89cc:	0a000012 	beq	8a1c <interpret+0x78>
    89d0:	e353000c 	cmp	r3, #12
    89d4:	0a00000a 	beq	8a04 <interpret+0x60>
    89d8:	e2833001 	add	r3, r3, #1
    89dc:	e1530001 	cmp	r3, r1
    89e0:	e1a02003 	mov	r2, r3
    89e4:	1afffff3 	bne	89b8 <interpret+0x14>
    89e8:	e12fff1e 	bx	lr
    89ec:	e2422a61 	sub	r2, r2, #397312	; 0x61000
    89f0:	e2422d2a 	sub	r2, r2, #2688	; 0xa80
    89f4:	e152000c 	cmp	r2, ip
    89f8:	8afffff6 	bhi	89d8 <interpret+0x34>
    89fc:	e59f0034 	ldr	r0, [pc, #52]	; 8a38 <interpret+0x94>
    8a00:	ea000027 	b	8aa4 <printk>
    8a04:	e2422ac3 	sub	r2, r2, #798720	; 0xc3000
    8a08:	e2422c05 	sub	r2, r2, #1280	; 0x500
    8a0c:	e152000c 	cmp	r2, ip
    8a10:	8afffff0 	bhi	89d8 <interpret+0x34>
    8a14:	e59f0020 	ldr	r0, [pc, #32]	; 8a3c <interpret+0x98>
    8a18:	ea000021 	b	8aa4 <printk>
    8a1c:	e2422ac3 	sub	r2, r2, #798720	; 0xc3000
    8a20:	e2422c05 	sub	r2, r2, #1280	; 0x500
    8a24:	e152000c 	cmp	r2, ip
    8a28:	8affffea 	bhi	89d8 <interpret+0x34>
    8a2c:	e59f000c 	ldr	r0, [pc, #12]	; 8a40 <interpret+0x9c>
    8a30:	ea00001b 	b	8aa4 <printk>
    8a34:	000186a0 	andeq	r8, r1, r0, lsr #13
    8a38:	00009a54 	andeq	r9, r0, r4, asr sl
    8a3c:	00009a68 	andeq	r9, r0, r8, ror #20
    8a40:	00009a5c 	andeq	r9, r0, ip, asr sl

00008a44 <notmain>:
    8a44:	e92d4010 	push	{r4, lr}
    8a48:	e24dd0a8 	sub	sp, sp, #168	; 0xa8
    8a4c:	eb000184 	bl	9064 <enable_cache>
    8a50:	e3a00015 	mov	r0, #21
    8a54:	eb000231 	bl	9320 <gpio_set_input>
    8a58:	e3a03001 	mov	r3, #1
    8a5c:	ee0f3f1c 	mcr	15, 0, r3, cr15, cr12, {0}
    8a60:	e3a00001 	mov	r0, #1
    8a64:	ebfffd69 	bl	8010 <cycles_per_sec>
    8a68:	e1a0100d 	mov	r1, sp
    8a6c:	e1a03000 	mov	r3, r0
    8a70:	e3a02014 	mov	r2, #20
    8a74:	e3a00015 	mov	r0, #21
    8a78:	ebfffe8d 	bl	84b4 <scope>
    8a7c:	e1a04000 	mov	r4, r0
    8a80:	e1a01004 	mov	r1, r4
    8a84:	e1a0000d 	mov	r0, sp
    8a88:	e59f2010 	ldr	r2, [pc, #16]	; 8aa0 <notmain+0x5c>
    8a8c:	ebffffa0 	bl	8914 <dump_samples>
    8a90:	e1a0000d 	mov	r0, sp
    8a94:	e1a01004 	mov	r1, r4
    8a98:	ebffffc1 	bl	89a4 <interpret>
    8a9c:	eb000178 	bl	9084 <clean_reboot>
    8aa0:	00001770 	andeq	r1, r0, r0, ror r7

00008aa4 <printk>:
    8aa4:	e92d000f 	push	{r0, r1, r2, r3}
    8aa8:	e92d4030 	push	{r4, r5, lr}
    8aac:	e24dd00c 	sub	sp, sp, #12
    8ab0:	e28d301c 	add	r3, sp, #28
    8ab4:	e58d3004 	str	r3, [sp, #4]
    8ab8:	e59f4034 	ldr	r4, [pc, #52]	; 8af4 <printk+0x50>
    8abc:	e1a00004 	mov	r0, r4
    8ac0:	e3a01b01 	mov	r1, #1024	; 0x400
    8ac4:	e59d2018 	ldr	r2, [sp, #24]
    8ac8:	eb0000c3 	bl	8ddc <va_printk>
    8acc:	e1a05000 	mov	r5, r0
    8ad0:	e59f3020 	ldr	r3, [pc, #32]	; 8af8 <printk+0x54>
    8ad4:	e5933000 	ldr	r3, [r3]
    8ad8:	e1a00004 	mov	r0, r4
    8adc:	e12fff33 	blx	r3
    8ae0:	e1a00005 	mov	r0, r5
    8ae4:	e28dd00c 	add	sp, sp, #12
    8ae8:	e8bd4030 	pop	{r4, r5, lr}
    8aec:	e28dd010 	add	sp, sp, #16
    8af0:	e12fff1e 	bx	lr
    8af4:	00009b84 	andeq	r9, r0, r4, lsl #23
    8af8:	00009938 	andeq	r9, r0, r8, lsr r9

00008afc <internal_putchar>:
    8afc:	e92d4010 	push	{r4, lr}
    8b00:	e1a04000 	mov	r4, r0
    8b04:	eb00035b 	bl	9878 <uart_putc>
    8b08:	e1a00004 	mov	r0, r4
    8b0c:	e8bd8010 	pop	{r4, pc}

00008b10 <rpi_reset_putc>:
    8b10:	e59f2008 	ldr	r2, [pc, #8]	; 8b20 <rpi_reset_putc+0x10>
    8b14:	e59f3008 	ldr	r3, [pc, #8]	; 8b24 <rpi_reset_putc+0x14>
    8b18:	e5832000 	str	r2, [r3]
    8b1c:	e12fff1e 	bx	lr
    8b20:	00008afc 	strdeq	r8, [r0], -ip
    8b24:	00009934 	andeq	r9, r0, r4, lsr r9

00008b28 <rpi_set_putc>:
    8b28:	e59f3004 	ldr	r3, [pc, #4]	; 8b34 <rpi_set_putc+0xc>
    8b2c:	e5830000 	str	r0, [r3]
    8b30:	e12fff1e 	bx	lr
    8b34:	00009934 	andeq	r9, r0, r4, lsr r9

00008b38 <internal_putk>:
    8b38:	e92d4038 	push	{r3, r4, r5, lr}
    8b3c:	e1a04000 	mov	r4, r0
    8b40:	e59f5020 	ldr	r5, [pc, #32]	; 8b68 <internal_putk+0x30>
    8b44:	ea000002 	b	8b54 <internal_putk+0x1c>
    8b48:	e5953000 	ldr	r3, [r5]
    8b4c:	e12fff33 	blx	r3
    8b50:	e2844001 	add	r4, r4, #1
    8b54:	e5d40000 	ldrb	r0, [r4]
    8b58:	e3500000 	cmp	r0, #0
    8b5c:	1afffff9 	bne	8b48 <internal_putk+0x10>
    8b60:	e3a00001 	mov	r0, #1
    8b64:	e8bd8038 	pop	{r3, r4, r5, pc}
    8b68:	00009934 	andeq	r9, r0, r4, lsr r9

00008b6c <isdigit>:
    8b6c:	e2400030 	sub	r0, r0, #48	; 0x30
    8b70:	e3500009 	cmp	r0, #9
    8b74:	83a00000 	movhi	r0, #0
    8b78:	93a00001 	movls	r0, #1
    8b7c:	e12fff1e 	bx	lr

00008b80 <pad>:
    8b80:	e0611000 	rsb	r1, r1, r0
    8b84:	e3a03020 	mov	r3, #32
    8b88:	ea000002 	b	8b98 <pad+0x18>
    8b8c:	e5c03000 	strb	r3, [r0]
    8b90:	e2811001 	add	r1, r1, #1
    8b94:	e2800001 	add	r0, r0, #1
    8b98:	e1510002 	cmp	r1, r2
    8b9c:	bafffffa 	blt	8b8c <pad+0xc>
    8ba0:	e3a03000 	mov	r3, #0
    8ba4:	e5c03000 	strb	r3, [r0]
    8ba8:	e12fff1e 	bx	lr

00008bac <reverse>:
    8bac:	e063c002 	rsb	ip, r3, r2
    8bb0:	e28cc001 	add	ip, ip, #1
    8bb4:	e15c0001 	cmp	ip, r1
    8bb8:	c061100c 	rsbgt	r1, r1, ip
    8bbc:	c0833001 	addgt	r3, r3, r1
    8bc0:	e2422001 	sub	r2, r2, #1
    8bc4:	e1a01000 	mov	r1, r0
    8bc8:	ea000002 	b	8bd8 <reverse+0x2c>
    8bcc:	e452c001 	ldrb	ip, [r2], #-1
    8bd0:	e5c1c000 	strb	ip, [r1]
    8bd4:	e2811001 	add	r1, r1, #1
    8bd8:	e1520003 	cmp	r2, r3
    8bdc:	2afffffa 	bcs	8bcc <reverse+0x20>
    8be0:	e3a03000 	mov	r3, #0
    8be4:	e5c13000 	strb	r3, [r1]
    8be8:	e12fff1e 	bx	lr

00008bec <emit>:
    8bec:	e92d41f0 	push	{r4, r5, r6, r7, r8, lr}
    8bf0:	e24dd040 	sub	sp, sp, #64	; 0x40
    8bf4:	e1a05001 	mov	r5, r1
    8bf8:	e1a04002 	mov	r4, r2
    8bfc:	e59d2058 	ldr	r2, [sp, #88]	; 0x58
    8c00:	e1520004 	cmp	r2, r4
    8c04:	c2442001 	subgt	r2, r4, #1
    8c08:	e1a0c003 	mov	ip, r3
    8c0c:	e2400002 	sub	r0, r0, #2
    8c10:	e350000e 	cmp	r0, #14
    8c14:	979ff100 	ldrls	pc, [pc, r0, lsl #2]
    8c18:	ea000042 	b	8d28 <emit+0x13c>
    8c1c:	00008d00 	andeq	r8, r0, r0, lsl #26
    8c20:	00008d28 	andeq	r8, r0, r8, lsr #26
    8c24:	00008d28 	andeq	r8, r0, r8, lsr #26
    8c28:	00008d28 	andeq	r8, r0, r8, lsr #26
    8c2c:	00008d28 	andeq	r8, r0, r8, lsr #26
    8c30:	00008d28 	andeq	r8, r0, r8, lsr #26
    8c34:	00008cf4 	strdeq	r8, [r0], -r4
    8c38:	00008d28 	andeq	r8, r0, r8, lsr #26
    8c3c:	00008c58 	andeq	r8, r0, r8, asr ip
    8c40:	00008d28 	andeq	r8, r0, r8, lsr #26
    8c44:	00008d28 	andeq	r8, r0, r8, lsr #26
    8c48:	00008d28 	andeq	r8, r0, r8, lsr #26
    8c4c:	00008d28 	andeq	r8, r0, r8, lsr #26
    8c50:	00008d28 	andeq	r8, r0, r8, lsr #26
    8c54:	00008ccc 	andeq	r8, r0, ip, asr #25
    8c58:	e59d105c 	ldr	r1, [sp, #92]	; 0x5c
    8c5c:	e2911000 	adds	r1, r1, #0
    8c60:	13a01001 	movne	r1, #1
    8c64:	e0111fa3 	ands	r1, r1, r3, lsr #31
    8c68:	1263c000 	rsbne	ip, r3, #0
    8c6c:	13a08001 	movne	r8, #1
    8c70:	03a08000 	moveq	r8, #0
    8c74:	e1a0100d 	mov	r1, sp
    8c78:	e59f70ec 	ldr	r7, [pc, #236]	; 8d6c <emit+0x180>
    8c7c:	e59f60ec 	ldr	r6, [pc, #236]	; 8d70 <emit+0x184>
    8c80:	ea000000 	b	8c88 <emit+0x9c>
    8c84:	e1a01003 	mov	r1, r3
    8c88:	e2813001 	add	r3, r1, #1
    8c8c:	e08e0c97 	umull	r0, lr, r7, ip
    8c90:	e1a0e1ae 	lsr	lr, lr, #3
    8c94:	e1a0000e 	mov	r0, lr
    8c98:	e08ee10e 	add	lr, lr, lr, lsl #2
    8c9c:	e1a0e08e 	lsl	lr, lr, #1
    8ca0:	e06ee00c 	rsb	lr, lr, ip
    8ca4:	e7d6c00e 	ldrb	ip, [r6, lr]
    8ca8:	e5c1c000 	strb	ip, [r1]
    8cac:	e1a0c000 	mov	ip, r0
    8cb0:	e3500000 	cmp	r0, #0
    8cb4:	1afffff2 	bne	8c84 <emit+0x98>
    8cb8:	e3580000 	cmp	r8, #0
    8cbc:	12813002 	addne	r3, r1, #2
    8cc0:	13a0002d 	movne	r0, #45	; 0x2d
    8cc4:	15c10001 	strbne	r0, [r1, #1]
    8cc8:	ea00001d 	b	8d44 <emit+0x158>
    8ccc:	e1a0e00d 	mov	lr, sp
    8cd0:	e59f009c 	ldr	r0, [pc, #156]	; 8d74 <emit+0x188>
    8cd4:	e28e3001 	add	r3, lr, #1
    8cd8:	e20c100f 	and	r1, ip, #15
    8cdc:	e7d01001 	ldrb	r1, [r0, r1]
    8ce0:	e5ce1000 	strb	r1, [lr]
    8ce4:	e1a0e003 	mov	lr, r3
    8ce8:	e1b0c22c 	lsrs	ip, ip, #4
    8cec:	1afffff8 	bne	8cd4 <emit+0xe8>
    8cf0:	ea000013 	b	8d44 <emit+0x158>
    8cf4:	e5cd3000 	strb	r3, [sp]
    8cf8:	e28d3001 	add	r3, sp, #1
    8cfc:	ea000010 	b	8d44 <emit+0x158>
    8d00:	e1a0e00d 	mov	lr, sp
    8d04:	e59f006c 	ldr	r0, [pc, #108]	; 8d78 <emit+0x18c>
    8d08:	e28e3001 	add	r3, lr, #1
    8d0c:	e20c1001 	and	r1, ip, #1
    8d10:	e7d01001 	ldrb	r1, [r0, r1]
    8d14:	e5ce1000 	strb	r1, [lr]
    8d18:	e1a0e003 	mov	lr, r3
    8d1c:	e1b0c0ac 	lsrs	ip, ip, #1
    8d20:	1afffff8 	bne	8d08 <emit+0x11c>
    8d24:	ea000006 	b	8d44 <emit+0x158>
    8d28:	ebffff78 	bl	8b10 <rpi_reset_putc>
    8d2c:	e59f0048 	ldr	r0, [pc, #72]	; 8d7c <emit+0x190>
    8d30:	e59f1048 	ldr	r1, [pc, #72]	; 8d80 <emit+0x194>
    8d34:	e59f2048 	ldr	r2, [pc, #72]	; 8d84 <emit+0x198>
    8d38:	e3a03075 	mov	r3, #117	; 0x75
    8d3c:	ebffff58 	bl	8aa4 <printk>
    8d40:	eb0000cf 	bl	9084 <clean_reboot>
    8d44:	e1a00003 	mov	r0, r3
    8d48:	e1a0100d 	mov	r1, sp
    8d4c:	ebffff8b 	bl	8b80 <pad>
    8d50:	e1a02000 	mov	r2, r0
    8d54:	e1a00005 	mov	r0, r5
    8d58:	e1a01004 	mov	r1, r4
    8d5c:	e1a0300d 	mov	r3, sp
    8d60:	ebffff91 	bl	8bac <reverse>
    8d64:	e28dd040 	add	sp, sp, #64	; 0x40
    8d68:	e8bd81f0 	pop	{r4, r5, r6, r7, r8, pc}
    8d6c:	cccccccd 	stclgt	12, cr12, [ip], {205}	; 0xcd
    8d70:	00009ac0 	andeq	r9, r0, r0, asr #21
    8d74:	00009acc 	andeq	r9, r0, ip, asr #21
    8d78:	00009ae0 	andeq	r9, r0, r0, ror #21
    8d7c:	00009a98 	muleq	r0, r8, sl
    8d80:	00009aac 	andeq	r9, r0, ip, lsr #21
    8d84:	00009a74 	andeq	r9, r0, r4, ror sl

00008d88 <rpi_set_output>:
    8d88:	e92d4008 	push	{r3, lr}
    8d8c:	e3500000 	cmp	r0, #0
    8d90:	1a000006 	bne	8db0 <rpi_set_output+0x28>
    8d94:	ebffff5d 	bl	8b10 <rpi_reset_putc>
    8d98:	e59f0028 	ldr	r0, [pc, #40]	; 8dc8 <rpi_set_output+0x40>
    8d9c:	e59f1028 	ldr	r1, [pc, #40]	; 8dcc <rpi_set_output+0x44>
    8da0:	e59f2028 	ldr	r2, [pc, #40]	; 8dd0 <rpi_set_output+0x48>
    8da4:	e3a03020 	mov	r3, #32
    8da8:	ebffff3d 	bl	8aa4 <printk>
    8dac:	eb0000b4 	bl	9084 <clean_reboot>
    8db0:	e59f301c 	ldr	r3, [pc, #28]	; 8dd4 <rpi_set_output+0x4c>
    8db4:	e5830000 	str	r0, [r3]
    8db8:	e3510000 	cmp	r1, #0
    8dbc:	159f3014 	ldrne	r3, [pc, #20]	; 8dd8 <rpi_set_output+0x50>
    8dc0:	15831000 	strne	r1, [r3]
    8dc4:	e8bd8008 	pop	{r3, pc}
    8dc8:	00009ae4 	andeq	r9, r0, r4, ror #21
    8dcc:	00009aac 	andeq	r9, r0, ip, lsr #21
    8dd0:	00009a7c 	andeq	r9, r0, ip, ror sl
    8dd4:	00009934 	andeq	r9, r0, r4, lsr r9
    8dd8:	00009938 	andeq	r9, r0, r8, lsr r9

00008ddc <va_printk>:
    8ddc:	e92d4ff0 	push	{r4, r5, r6, r7, r8, r9, sl, fp, lr}
    8de0:	e24dd08c 	sub	sp, sp, #140	; 0x8c
    8de4:	e1a0a000 	mov	sl, r0
    8de8:	e1a09003 	mov	r9, r3
    8dec:	e2411001 	sub	r1, r1, #1
    8df0:	e0808001 	add	r8, r0, r1
    8df4:	e3a03000 	mov	r3, #0
    8df8:	e5c03000 	strb	r3, [r0]
    8dfc:	e1a04000 	mov	r4, r0
    8e00:	e1a0b003 	mov	fp, r3
    8e04:	ea000086 	b	9024 <va_printk+0x248>
    8e08:	e3530025 	cmp	r3, #37	; 0x25
    8e0c:	12822001 	addne	r2, r2, #1
    8e10:	15c43000 	strbne	r3, [r4]
    8e14:	12844001 	addne	r4, r4, #1
    8e18:	1a000081 	bne	9024 <va_printk+0x248>
    8e1c:	e5d21001 	ldrb	r1, [r2, #1]
    8e20:	e3510025 	cmp	r1, #37	; 0x25
    8e24:	05c43000 	strbeq	r3, [r4]
    8e28:	02822002 	addeq	r2, r2, #2
    8e2c:	02844001 	addeq	r4, r4, #1
    8e30:	0a00007b 	beq	9024 <va_printk+0x248>
    8e34:	e2826001 	add	r6, r2, #1
    8e38:	e1a0700b 	mov	r7, fp
    8e3c:	ea000004 	b	8e54 <va_printk+0x78>
    8e40:	e0877107 	add	r7, r7, r7, lsl #2
    8e44:	e1a07087 	lsl	r7, r7, #1
    8e48:	e0877005 	add	r7, r7, r5
    8e4c:	e2477030 	sub	r7, r7, #48	; 0x30
    8e50:	e2866001 	add	r6, r6, #1
    8e54:	e5d65000 	ldrb	r5, [r6]
    8e58:	e1a00005 	mov	r0, r5
    8e5c:	ebffff42 	bl	8b6c <isdigit>
    8e60:	e3500000 	cmp	r0, #0
    8e64:	1afffff5 	bne	8e40 <va_printk+0x64>
    8e68:	e357001f 	cmp	r7, #31
    8e6c:	9a000006 	bls	8e8c <va_printk+0xb0>
    8e70:	ebffff26 	bl	8b10 <rpi_reset_putc>
    8e74:	e59f01d4 	ldr	r0, [pc, #468]	; 9050 <va_printk+0x274>
    8e78:	e59f11d4 	ldr	r1, [pc, #468]	; 9054 <va_printk+0x278>
    8e7c:	e59f21d4 	ldr	r2, [pc, #468]	; 9058 <va_printk+0x27c>
    8e80:	e3a03092 	mov	r3, #146	; 0x92
    8e84:	ebffff06 	bl	8aa4 <printk>
    8e88:	eb00007d 	bl	9084 <clean_reboot>
    8e8c:	e2455062 	sub	r5, r5, #98	; 0x62
    8e90:	e3550016 	cmp	r5, #22
    8e94:	979ff105 	ldrls	pc, [pc, r5, lsl #2]
    8e98:	ea00004e 	b	8fd8 <va_printk+0x1fc>
    8e9c:	00008f84 	andeq	r8, r0, r4, lsl #31
    8ea0:	00008fb4 			; <UNDEFINED> instruction: 0x00008fb4
    8ea4:	00008f14 	andeq	r8, r0, r4, lsl pc
    8ea8:	00008fd8 	ldrdeq	r8, [r0], -r8	; <UNPREDICTABLE>
    8eac:	00008ef8 	strdeq	r8, [r0], -r8	; <UNPREDICTABLE>
    8eb0:	00008fd8 	ldrdeq	r8, [r0], -r8	; <UNPREDICTABLE>
    8eb4:	00008fd8 	ldrdeq	r8, [r0], -r8	; <UNPREDICTABLE>
    8eb8:	00008fd8 	ldrdeq	r8, [r0], -r8	; <UNPREDICTABLE>
    8ebc:	00008fd8 	ldrdeq	r8, [r0], -r8	; <UNPREDICTABLE>
    8ec0:	00008fd8 	ldrdeq	r8, [r0], -r8	; <UNPREDICTABLE>
    8ec4:	00008fd8 	ldrdeq	r8, [r0], -r8	; <UNPREDICTABLE>
    8ec8:	00008fd8 	ldrdeq	r8, [r0], -r8	; <UNPREDICTABLE>
    8ecc:	00008fd8 	ldrdeq	r8, [r0], -r8	; <UNPREDICTABLE>
    8ed0:	00008fd8 	ldrdeq	r8, [r0], -r8	; <UNPREDICTABLE>
    8ed4:	00008f60 	andeq	r8, r0, r0, ror #30
    8ed8:	00008fd8 	ldrdeq	r8, [r0], -r8	; <UNPREDICTABLE>
    8edc:	00008fd8 	ldrdeq	r8, [r0], -r8	; <UNPREDICTABLE>
    8ee0:	00008fa8 	andeq	r8, r0, r8, lsr #31
    8ee4:	00008fd8 	ldrdeq	r8, [r0], -r8	; <UNPREDICTABLE>
    8ee8:	00008f3c 	andeq	r8, r0, ip, lsr pc
    8eec:	00008fd8 	ldrdeq	r8, [r0], -r8	; <UNPREDICTABLE>
    8ef0:	00008fd8 	ldrdeq	r8, [r0], -r8	; <UNPREDICTABLE>
    8ef4:	00008f60 	andeq	r8, r0, r0, ror #30
    8ef8:	ebffff04 	bl	8b10 <rpi_reset_putc>
    8efc:	e59f0158 	ldr	r0, [pc, #344]	; 905c <va_printk+0x280>
    8f00:	e59f114c 	ldr	r1, [pc, #332]	; 9054 <va_printk+0x278>
    8f04:	e59f214c 	ldr	r2, [pc, #332]	; 9058 <va_printk+0x27c>
    8f08:	e3a03098 	mov	r3, #152	; 0x98
    8f0c:	ebfffee4 	bl	8aa4 <printk>
    8f10:	eb00005b 	bl	9084 <clean_reboot>
    8f14:	e5993000 	ldr	r3, [r9]
    8f18:	e2899004 	add	r9, r9, #4
    8f1c:	e58d7000 	str	r7, [sp]
    8f20:	e3a02001 	mov	r2, #1
    8f24:	e58d2004 	str	r2, [sp, #4]
    8f28:	e3a0000a 	mov	r0, #10
    8f2c:	e28d1008 	add	r1, sp, #8
    8f30:	e3a02080 	mov	r2, #128	; 0x80
    8f34:	ebffff2c 	bl	8bec <emit>
    8f38:	ea00002f 	b	8ffc <va_printk+0x220>
    8f3c:	e5993000 	ldr	r3, [r9]
    8f40:	e2899004 	add	r9, r9, #4
    8f44:	e58d7000 	str	r7, [sp]
    8f48:	e58db004 	str	fp, [sp, #4]
    8f4c:	e3a0000a 	mov	r0, #10
    8f50:	e28d1008 	add	r1, sp, #8
    8f54:	e3a02080 	mov	r2, #128	; 0x80
    8f58:	ebffff23 	bl	8bec <emit>
    8f5c:	ea000026 	b	8ffc <va_printk+0x220>
    8f60:	e5993000 	ldr	r3, [r9]
    8f64:	e2899004 	add	r9, r9, #4
    8f68:	e58d7000 	str	r7, [sp]
    8f6c:	e58db004 	str	fp, [sp, #4]
    8f70:	e3a00010 	mov	r0, #16
    8f74:	e28d1008 	add	r1, sp, #8
    8f78:	e3a02080 	mov	r2, #128	; 0x80
    8f7c:	ebffff1a 	bl	8bec <emit>
    8f80:	ea00001d 	b	8ffc <va_printk+0x220>
    8f84:	e5993000 	ldr	r3, [r9]
    8f88:	e2899004 	add	r9, r9, #4
    8f8c:	e58d7000 	str	r7, [sp]
    8f90:	e58db004 	str	fp, [sp, #4]
    8f94:	e3a00002 	mov	r0, #2
    8f98:	e28d1008 	add	r1, sp, #8
    8f9c:	e3a02080 	mov	r2, #128	; 0x80
    8fa0:	ebffff11 	bl	8bec <emit>
    8fa4:	ea000014 	b	8ffc <va_printk+0x220>
    8fa8:	e5990000 	ldr	r0, [r9]
    8fac:	e2899004 	add	r9, r9, #4
    8fb0:	ea000011 	b	8ffc <va_printk+0x220>
    8fb4:	e5993000 	ldr	r3, [r9]
    8fb8:	e2899004 	add	r9, r9, #4
    8fbc:	e58d7000 	str	r7, [sp]
    8fc0:	e58db004 	str	fp, [sp, #4]
    8fc4:	e3a00008 	mov	r0, #8
    8fc8:	e08d1000 	add	r1, sp, r0
    8fcc:	e3a02080 	mov	r2, #128	; 0x80
    8fd0:	ebffff05 	bl	8bec <emit>
    8fd4:	ea000008 	b	8ffc <va_printk+0x220>
    8fd8:	ebfffecc 	bl	8b10 <rpi_reset_putc>
    8fdc:	e5d63000 	ldrb	r3, [r6]
    8fe0:	e58d3000 	str	r3, [sp]
    8fe4:	e59f0074 	ldr	r0, [pc, #116]	; 9060 <va_printk+0x284>
    8fe8:	e59f1064 	ldr	r1, [pc, #100]	; 9054 <va_printk+0x278>
    8fec:	e59f2064 	ldr	r2, [pc, #100]	; 9058 <va_printk+0x27c>
    8ff0:	e3a030b9 	mov	r3, #185	; 0xb9
    8ff4:	ebfffeaa 	bl	8aa4 <printk>
    8ff8:	eb000021 	bl	9084 <clean_reboot>
    8ffc:	e2862001 	add	r2, r6, #1
    9000:	ea000002 	b	9010 <va_printk+0x234>
    9004:	e2800001 	add	r0, r0, #1
    9008:	e5c43000 	strb	r3, [r4]
    900c:	e2844001 	add	r4, r4, #1
    9010:	e1540008 	cmp	r4, r8
    9014:	2a000002 	bcs	9024 <va_printk+0x248>
    9018:	e5d03000 	ldrb	r3, [r0]
    901c:	e3530000 	cmp	r3, #0
    9020:	1afffff7 	bne	9004 <va_printk+0x228>
    9024:	e5d23000 	ldrb	r3, [r2]
    9028:	e3530000 	cmp	r3, #0
    902c:	0a000001 	beq	9038 <va_printk+0x25c>
    9030:	e1540008 	cmp	r4, r8
    9034:	3affff73 	bcc	8e08 <va_printk+0x2c>
    9038:	e2840001 	add	r0, r4, #1
    903c:	e3a03000 	mov	r3, #0
    9040:	e5c43000 	strb	r3, [r4]
    9044:	e06a0000 	rsb	r0, sl, r0
    9048:	e28dd08c 	add	sp, sp, #140	; 0x8c
    904c:	e8bd8ff0 	pop	{r4, r5, r6, r7, r8, r9, sl, fp, pc}
    9050:	00009afc 	strdeq	r9, [r0], -ip
    9054:	00009aac 	andeq	r9, r0, ip, lsr #21
    9058:	00009a8c 	andeq	r9, r0, ip, lsl #21
    905c:	00009b18 	andeq	r9, r0, r8, lsl fp
    9060:	00009b40 	andeq	r9, r0, r0, asr #22

00009064 <enable_cache>:
    9064:	ee113f10 	mrc	15, 0, r3, cr1, cr0, {0}
    9068:	e3833b06 	orr	r3, r3, #6144	; 0x1800
    906c:	ee013f10 	mcr	15, 0, r3, cr1, cr0, {0}
    9070:	e12fff1e 	bx	lr

00009074 <disable_cache>:
    9074:	ee113f10 	mrc	15, 0, r3, cr1, cr0, {0}
    9078:	e3c33b06 	bic	r3, r3, #6144	; 0x1800
    907c:	ee013f10 	mcr	15, 0, r3, cr1, cr0, {0}
    9080:	e12fff1e 	bx	lr

00009084 <clean_reboot>:
    9084:	e92d4008 	push	{r3, lr}
    9088:	e59f3014 	ldr	r3, [pc, #20]	; 90a4 <clean_reboot+0x20>
    908c:	e5933000 	ldr	r3, [r3]
    9090:	e59f0010 	ldr	r0, [pc, #16]	; 90a8 <clean_reboot+0x24>
    9094:	e12fff33 	blx	r3
    9098:	e3a00064 	mov	r0, #100	; 0x64
    909c:	eb000044 	bl	91b4 <delay_ms>
    90a0:	eb000019 	bl	910c <rpi_reboot>
    90a4:	00009938 	andeq	r9, r0, r8, lsr r9
    90a8:	00009b78 	andeq	r9, r0, r8, ror fp

000090ac <_cstart>:
    90ac:	e92d4008 	push	{r3, lr}
    90b0:	e59f3020 	ldr	r3, [pc, #32]	; 90d8 <_cstart+0x2c>
    90b4:	e59f2020 	ldr	r2, [pc, #32]	; 90dc <_cstart+0x30>
    90b8:	e3a01000 	mov	r1, #0
    90bc:	ea000001 	b	90c8 <_cstart+0x1c>
    90c0:	e5831000 	str	r1, [r3]
    90c4:	e2833004 	add	r3, r3, #4
    90c8:	e1530002 	cmp	r3, r2
    90cc:	3afffffb 	bcc	90c0 <_cstart+0x14>
    90d0:	ebfffe5b 	bl	8a44 <notmain>
    90d4:	eb00000c 	bl	910c <rpi_reboot>
    90d8:	00009b84 	andeq	r9, r0, r4, lsl #23
    90dc:	00009f88 	andeq	r9, r0, r8, lsl #31

000090e0 <at_user_level>:
    90e0:	e10f0000 	mrs	r0, CPSR
    90e4:	e200001f 	and	r0, r0, #31
    90e8:	e3500010 	cmp	r0, #16
    90ec:	13a00000 	movne	r0, #0
    90f0:	03a00001 	moveq	r0, #1
    90f4:	e12fff1e 	bx	lr

000090f8 <set_user_level>:
    90f8:	e10f3000 	mrs	r3, CPSR
    90fc:	e3c3301f 	bic	r3, r3, #31
    9100:	e3833010 	orr	r3, r3, #16
    9104:	e129f003 	msr	CPSR_fc, r3
    9108:	e12fff1e 	bx	lr

0000910c <rpi_reboot>:
    910c:	e92d4008 	push	{r3, lr}
    9110:	ebfffff2 	bl	90e0 <at_user_level>
    9114:	e3500000 	cmp	r0, #0
    9118:	0a000000 	beq	9120 <rpi_reboot+0x14>
    911c:	ebfffff5 	bl	90f8 <set_user_level>
    9120:	e3a0001e 	mov	r0, #30
    9124:	eb000022 	bl	91b4 <delay_ms>
    9128:	e59f0014 	ldr	r0, [pc, #20]	; 9144 <rpi_reboot+0x38>
    912c:	e59f1014 	ldr	r1, [pc, #20]	; 9148 <rpi_reboot+0x3c>
    9130:	eb0001ee 	bl	98f0 <PUT32>
    9134:	e59f0010 	ldr	r0, [pc, #16]	; 914c <rpi_reboot+0x40>
    9138:	e59f1010 	ldr	r1, [pc, #16]	; 9150 <rpi_reboot+0x44>
    913c:	eb0001eb 	bl	98f0 <PUT32>
    9140:	eafffffe 	b	9140 <rpi_reboot+0x34>
    9144:	20100024 	andscs	r0, r0, r4, lsr #32
    9148:	5a000001 	bpl	9154 <delay_cycles>
    914c:	2010001c 	andscs	r0, r0, ip, lsl r0
    9150:	5a000020 	bpl	91d8 <delay_sec+0x10>

00009154 <delay_cycles>:
    9154:	ea000001 	b	9160 <delay_cycles+0xc>
    9158:	e2811000 	add	r1, r1, #0
    915c:	e1a00003 	mov	r0, r3
    9160:	e2403001 	sub	r3, r0, #1
    9164:	e3500000 	cmp	r0, #0
    9168:	1afffffa 	bne	9158 <delay_cycles+0x4>
    916c:	e12fff1e 	bx	lr

00009170 <timer_get_usec_raw>:
    9170:	e92d4008 	push	{r3, lr}
    9174:	e59f0004 	ldr	r0, [pc, #4]	; 9180 <timer_get_usec_raw+0x10>
    9178:	eb0001e8 	bl	9920 <GET32>
    917c:	e8bd8008 	pop	{r3, pc}
    9180:	20003004 	andcs	r3, r0, r4

00009184 <timer_get_usec>:
    9184:	e92d4008 	push	{r3, lr}
    9188:	ebfffff8 	bl	9170 <timer_get_usec_raw>
    918c:	e8bd8008 	pop	{r3, pc}

00009190 <delay_us>:
    9190:	e92d4038 	push	{r3, r4, r5, lr}
    9194:	e1a05000 	mov	r5, r0
    9198:	ebfffff9 	bl	9184 <timer_get_usec>
    919c:	e1a04000 	mov	r4, r0
    91a0:	ebfffff7 	bl	9184 <timer_get_usec>
    91a4:	e0640000 	rsb	r0, r4, r0
    91a8:	e1500005 	cmp	r0, r5
    91ac:	3afffffb 	bcc	91a0 <delay_us+0x10>
    91b0:	e8bd8038 	pop	{r3, r4, r5, pc}

000091b4 <delay_ms>:
    91b4:	e92d4008 	push	{r3, lr}
    91b8:	e3a03ffa 	mov	r3, #1000	; 0x3e8
    91bc:	e0000093 	mul	r0, r3, r0
    91c0:	ebfffff2 	bl	9190 <delay_us>
    91c4:	e8bd8008 	pop	{r3, pc}

000091c8 <delay_sec>:
    91c8:	e92d4008 	push	{r3, lr}
    91cc:	e3a03ffa 	mov	r3, #1000	; 0x3e8
    91d0:	e0000093 	mul	r0, r3, r0
    91d4:	ebfffff6 	bl	91b4 <delay_ms>
    91d8:	e8bd8008 	pop	{r3, pc}

000091dc <gpio_set_output>:
    91dc:	e92d4038 	push	{r3, r4, r5, lr}
    91e0:	e1a04000 	mov	r4, r0
    91e4:	e350001f 	cmp	r0, #31
    91e8:	88bd8038 	pophi	{r3, r4, r5, pc}
    91ec:	e59f30b4 	ldr	r3, [pc, #180]	; 92a8 <gpio_set_output+0xcc>
    91f0:	e0832093 	umull	r2, r3, r3, r0
    91f4:	e1a031a3 	lsr	r3, r3, #3
    91f8:	e3530005 	cmp	r3, #5
    91fc:	979ff103 	ldrls	pc, [pc, r3, lsl #2]
    9200:	ea000017 	b	9264 <gpio_set_output+0x88>
    9204:	0000921c 	andeq	r9, r0, ip, lsl r2
    9208:	00009228 	andeq	r9, r0, r8, lsr #4
    920c:	00009234 	andeq	r9, r0, r4, lsr r2
    9210:	00009240 	andeq	r9, r0, r0, asr #4
    9214:	0000924c 	andeq	r9, r0, ip, asr #4
    9218:	00009258 	andeq	r9, r0, r8, asr r2
    921c:	e59f3088 	ldr	r3, [pc, #136]	; 92ac <gpio_set_output+0xd0>
    9220:	e5935000 	ldr	r5, [r3]
    9224:	ea00000f 	b	9268 <gpio_set_output+0x8c>
    9228:	e59f307c 	ldr	r3, [pc, #124]	; 92ac <gpio_set_output+0xd0>
    922c:	e5935004 	ldr	r5, [r3, #4]
    9230:	ea00000c 	b	9268 <gpio_set_output+0x8c>
    9234:	e59f3070 	ldr	r3, [pc, #112]	; 92ac <gpio_set_output+0xd0>
    9238:	e5935008 	ldr	r5, [r3, #8]
    923c:	ea000009 	b	9268 <gpio_set_output+0x8c>
    9240:	e59f3064 	ldr	r3, [pc, #100]	; 92ac <gpio_set_output+0xd0>
    9244:	e593500c 	ldr	r5, [r3, #12]
    9248:	ea000006 	b	9268 <gpio_set_output+0x8c>
    924c:	e59f3058 	ldr	r3, [pc, #88]	; 92ac <gpio_set_output+0xd0>
    9250:	e5935010 	ldr	r5, [r3, #16]
    9254:	ea000003 	b	9268 <gpio_set_output+0x8c>
    9258:	e59f304c 	ldr	r3, [pc, #76]	; 92ac <gpio_set_output+0xd0>
    925c:	e5935014 	ldr	r5, [r3, #20]
    9260:	ea000000 	b	9268 <gpio_set_output+0x8c>
    9264:	e3a05000 	mov	r5, #0
    9268:	e1a00005 	mov	r0, r5
    926c:	eb0001a9 	bl	9918 <get32>
    9270:	e59f1030 	ldr	r1, [pc, #48]	; 92a8 <gpio_set_output+0xcc>
    9274:	e0813491 	umull	r3, r1, r1, r4
    9278:	e1a011a1 	lsr	r1, r1, #3
    927c:	e0811101 	add	r1, r1, r1, lsl #2
    9280:	e1a01081 	lsl	r1, r1, #1
    9284:	e0611004 	rsb	r1, r1, r4
    9288:	e0811081 	add	r1, r1, r1, lsl #1
    928c:	e3a03007 	mov	r3, #7
    9290:	e1c03113 	bic	r3, r0, r3, lsl r1
    9294:	e1a00005 	mov	r0, r5
    9298:	e3a02001 	mov	r2, #1
    929c:	e1831112 	orr	r1, r3, r2, lsl r1
    92a0:	eb000190 	bl	98e8 <put32>
    92a4:	e8bd8038 	pop	{r3, r4, r5, pc}
    92a8:	cccccccd 	stclgt	12, cr12, [ip], {205}	; 0xcd
    92ac:	0000993c 	andeq	r9, r0, ip, lsr r9

000092b0 <gpio_set_on>:
    92b0:	e92d4008 	push	{r3, lr}
    92b4:	e350001f 	cmp	r0, #31
    92b8:	88bd8008 	pophi	{r3, pc}
    92bc:	959f3020 	ldrls	r3, [pc, #32]	; 92e4 <gpio_set_on+0x34>
    92c0:	95932018 	ldrls	r2, [r3, #24]
    92c4:	859f3018 	ldrhi	r3, [pc, #24]	; 92e4 <gpio_set_on+0x34>
    92c8:	8593201c 	ldrhi	r2, [r3, #28]
    92cc:	e200301f 	and	r3, r0, #31
    92d0:	e1a00002 	mov	r0, r2
    92d4:	e3a01001 	mov	r1, #1
    92d8:	e1a01311 	lsl	r1, r1, r3
    92dc:	eb000181 	bl	98e8 <put32>
    92e0:	e8bd8008 	pop	{r3, pc}
    92e4:	0000993c 	andeq	r9, r0, ip, lsr r9

000092e8 <gpio_set_off>:
    92e8:	e92d4008 	push	{r3, lr}
    92ec:	e350001f 	cmp	r0, #31
    92f0:	88bd8008 	pophi	{r3, pc}
    92f4:	959f3020 	ldrls	r3, [pc, #32]	; 931c <gpio_set_off+0x34>
    92f8:	95932020 	ldrls	r2, [r3, #32]
    92fc:	859f3018 	ldrhi	r3, [pc, #24]	; 931c <gpio_set_off+0x34>
    9300:	85932024 	ldrhi	r2, [r3, #36]	; 0x24
    9304:	e200301f 	and	r3, r0, #31
    9308:	e1a00002 	mov	r0, r2
    930c:	e3a01001 	mov	r1, #1
    9310:	e1a01311 	lsl	r1, r1, r3
    9314:	eb000173 	bl	98e8 <put32>
    9318:	e8bd8008 	pop	{r3, pc}
    931c:	0000993c 	andeq	r9, r0, ip, lsr r9

00009320 <gpio_set_input>:
    9320:	e92d4038 	push	{r3, r4, r5, lr}
    9324:	e1a04000 	mov	r4, r0
    9328:	e350001f 	cmp	r0, #31
    932c:	88bd8038 	pophi	{r3, r4, r5, pc}
    9330:	e59f30ac 	ldr	r3, [pc, #172]	; 93e4 <gpio_set_input+0xc4>
    9334:	e0832093 	umull	r2, r3, r3, r0
    9338:	e1a031a3 	lsr	r3, r3, #3
    933c:	e3530005 	cmp	r3, #5
    9340:	979ff103 	ldrls	pc, [pc, r3, lsl #2]
    9344:	ea000017 	b	93a8 <gpio_set_input+0x88>
    9348:	00009360 	andeq	r9, r0, r0, ror #6
    934c:	0000936c 	andeq	r9, r0, ip, ror #6
    9350:	00009378 	andeq	r9, r0, r8, ror r3
    9354:	00009384 	andeq	r9, r0, r4, lsl #7
    9358:	00009390 	muleq	r0, r0, r3
    935c:	0000939c 	muleq	r0, ip, r3
    9360:	e59f3080 	ldr	r3, [pc, #128]	; 93e8 <gpio_set_input+0xc8>
    9364:	e5935000 	ldr	r5, [r3]
    9368:	ea00000f 	b	93ac <gpio_set_input+0x8c>
    936c:	e59f3074 	ldr	r3, [pc, #116]	; 93e8 <gpio_set_input+0xc8>
    9370:	e5935004 	ldr	r5, [r3, #4]
    9374:	ea00000c 	b	93ac <gpio_set_input+0x8c>
    9378:	e59f3068 	ldr	r3, [pc, #104]	; 93e8 <gpio_set_input+0xc8>
    937c:	e5935008 	ldr	r5, [r3, #8]
    9380:	ea000009 	b	93ac <gpio_set_input+0x8c>
    9384:	e59f305c 	ldr	r3, [pc, #92]	; 93e8 <gpio_set_input+0xc8>
    9388:	e593500c 	ldr	r5, [r3, #12]
    938c:	ea000006 	b	93ac <gpio_set_input+0x8c>
    9390:	e59f3050 	ldr	r3, [pc, #80]	; 93e8 <gpio_set_input+0xc8>
    9394:	e5935010 	ldr	r5, [r3, #16]
    9398:	ea000003 	b	93ac <gpio_set_input+0x8c>
    939c:	e59f3044 	ldr	r3, [pc, #68]	; 93e8 <gpio_set_input+0xc8>
    93a0:	e5935014 	ldr	r5, [r3, #20]
    93a4:	ea000000 	b	93ac <gpio_set_input+0x8c>
    93a8:	e3a05000 	mov	r5, #0
    93ac:	e1a00005 	mov	r0, r5
    93b0:	eb000158 	bl	9918 <get32>
    93b4:	e59f1028 	ldr	r1, [pc, #40]	; 93e4 <gpio_set_input+0xc4>
    93b8:	e0813491 	umull	r3, r1, r1, r4
    93bc:	e1a011a1 	lsr	r1, r1, #3
    93c0:	e0811101 	add	r1, r1, r1, lsl #2
    93c4:	e1a01081 	lsl	r1, r1, #1
    93c8:	e0611004 	rsb	r1, r1, r4
    93cc:	e0811081 	add	r1, r1, r1, lsl #1
    93d0:	e3a03007 	mov	r3, #7
    93d4:	e1c01113 	bic	r1, r0, r3, lsl r1
    93d8:	e1a00005 	mov	r0, r5
    93dc:	eb000141 	bl	98e8 <put32>
    93e0:	e8bd8038 	pop	{r3, r4, r5, pc}
    93e4:	cccccccd 	stclgt	12, cr12, [ip], {205}	; 0xcd
    93e8:	0000993c 	andeq	r9, r0, ip, lsr r9

000093ec <gpio_read>:
    93ec:	e92d4010 	push	{r4, lr}
    93f0:	e1a04000 	mov	r4, r0
    93f4:	e350001f 	cmp	r0, #31
    93f8:	8a00000b 	bhi	942c <gpio_read+0x40>
    93fc:	8a000003 	bhi	9410 <gpio_read+0x24>
    9400:	e59f302c 	ldr	r3, [pc, #44]	; 9434 <gpio_read+0x48>
    9404:	e5930028 	ldr	r0, [r3, #40]	; 0x28
    9408:	eb000142 	bl	9918 <get32>
    940c:	ea000002 	b	941c <gpio_read+0x30>
    9410:	e59f301c 	ldr	r3, [pc, #28]	; 9434 <gpio_read+0x48>
    9414:	e593002c 	ldr	r0, [r3, #44]	; 0x2c
    9418:	eb00013e 	bl	9918 <get32>
    941c:	e204401f 	and	r4, r4, #31
    9420:	e3a03001 	mov	r3, #1
    9424:	e0000413 	and	r0, r0, r3, lsl r4
    9428:	e8bd8010 	pop	{r4, pc}
    942c:	e3e00000 	mvn	r0, #0
    9430:	e8bd8010 	pop	{r4, pc}
    9434:	0000993c 	andeq	r9, r0, ip, lsr r9

00009438 <gpio_write>:
    9438:	e92d4008 	push	{r3, lr}
    943c:	e350001f 	cmp	r0, #31
    9440:	88bd8008 	pophi	{r3, pc}
    9444:	e3510000 	cmp	r1, #0
    9448:	0a000001 	beq	9454 <gpio_write+0x1c>
    944c:	ebffff97 	bl	92b0 <gpio_set_on>
    9450:	e8bd8008 	pop	{r3, pc}
    9454:	ebffffa3 	bl	92e8 <gpio_set_off>
    9458:	e8bd8008 	pop	{r3, pc}

0000945c <gpio_set_function>:
    945c:	e92d4070 	push	{r4, r5, r6, lr}
    9460:	e1a04000 	mov	r4, r0
    9464:	e1a05001 	mov	r5, r1
    9468:	e3510007 	cmp	r1, #7
    946c:	9350001f 	cmpls	r0, #31
    9470:	88bd8070 	pophi	{r4, r5, r6, pc}
    9474:	e59f30b0 	ldr	r3, [pc, #176]	; 952c <gpio_set_function+0xd0>
    9478:	e0832093 	umull	r2, r3, r3, r0
    947c:	e1a031a3 	lsr	r3, r3, #3
    9480:	e3530005 	cmp	r3, #5
    9484:	979ff103 	ldrls	pc, [pc, r3, lsl #2]
    9488:	ea000017 	b	94ec <gpio_set_function+0x90>
    948c:	000094a4 	andeq	r9, r0, r4, lsr #9
    9490:	000094b0 			; <UNDEFINED> instruction: 0x000094b0
    9494:	000094bc 			; <UNDEFINED> instruction: 0x000094bc
    9498:	000094c8 	andeq	r9, r0, r8, asr #9
    949c:	000094d4 	ldrdeq	r9, [r0], -r4
    94a0:	000094e0 	andeq	r9, r0, r0, ror #9
    94a4:	e59f3084 	ldr	r3, [pc, #132]	; 9530 <gpio_set_function+0xd4>
    94a8:	e5936000 	ldr	r6, [r3]
    94ac:	ea00000f 	b	94f0 <gpio_set_function+0x94>
    94b0:	e59f3078 	ldr	r3, [pc, #120]	; 9530 <gpio_set_function+0xd4>
    94b4:	e5936004 	ldr	r6, [r3, #4]
    94b8:	ea00000c 	b	94f0 <gpio_set_function+0x94>
    94bc:	e59f306c 	ldr	r3, [pc, #108]	; 9530 <gpio_set_function+0xd4>
    94c0:	e5936008 	ldr	r6, [r3, #8]
    94c4:	ea000009 	b	94f0 <gpio_set_function+0x94>
    94c8:	e59f3060 	ldr	r3, [pc, #96]	; 9530 <gpio_set_function+0xd4>
    94cc:	e593600c 	ldr	r6, [r3, #12]
    94d0:	ea000006 	b	94f0 <gpio_set_function+0x94>
    94d4:	e59f3054 	ldr	r3, [pc, #84]	; 9530 <gpio_set_function+0xd4>
    94d8:	e5936010 	ldr	r6, [r3, #16]
    94dc:	ea000003 	b	94f0 <gpio_set_function+0x94>
    94e0:	e59f3048 	ldr	r3, [pc, #72]	; 9530 <gpio_set_function+0xd4>
    94e4:	e5936014 	ldr	r6, [r3, #20]
    94e8:	ea000000 	b	94f0 <gpio_set_function+0x94>
    94ec:	e3a06000 	mov	r6, #0
    94f0:	e1a00006 	mov	r0, r6
    94f4:	eb000107 	bl	9918 <get32>
    94f8:	e59f302c 	ldr	r3, [pc, #44]	; 952c <gpio_set_function+0xd0>
    94fc:	e0832493 	umull	r2, r3, r3, r4
    9500:	e1a031a3 	lsr	r3, r3, #3
    9504:	e0833103 	add	r3, r3, r3, lsl #2
    9508:	e1a03083 	lsl	r3, r3, #1
    950c:	e0633004 	rsb	r3, r3, r4
    9510:	e0833083 	add	r3, r3, r3, lsl #1
    9514:	e3a01007 	mov	r1, #7
    9518:	e1c01311 	bic	r1, r0, r1, lsl r3
    951c:	e1a00006 	mov	r0, r6
    9520:	e1811315 	orr	r1, r1, r5, lsl r3
    9524:	eb0000ef 	bl	98e8 <put32>
    9528:	e8bd8070 	pop	{r4, r5, r6, pc}
    952c:	cccccccd 	stclgt	12, cr12, [ip], {205}	; 0xcd
    9530:	0000993c 	andeq	r9, r0, ip, lsr r9

00009534 <gpio_toggle>:
    9534:	e92d4008 	push	{r3, lr}
    9538:	e350001f 	cmp	r0, #31
    953c:	88bd8008 	pophi	{r3, pc}
    9540:	959f3020 	ldrls	r3, [pc, #32]	; 9568 <gpio_toggle+0x34>
    9544:	95932018 	ldrls	r2, [r3, #24]
    9548:	859f3018 	ldrhi	r3, [pc, #24]	; 9568 <gpio_toggle+0x34>
    954c:	8593201c 	ldrhi	r2, [r3, #28]
    9550:	e200301f 	and	r3, r0, #31
    9554:	e1a00002 	mov	r0, r2
    9558:	e3a01001 	mov	r1, #1
    955c:	e1a01311 	lsl	r1, r1, r3
    9560:	eb0000e0 	bl	98e8 <put32>
    9564:	e8bd8008 	pop	{r3, pc}
    9568:	0000993c 	andeq	r9, r0, ip, lsr r9

0000956c <is_gpio_int>:
    956c:	e92d4008 	push	{r3, lr}
    9570:	e59f301c 	ldr	r3, [pc, #28]	; 9594 <is_gpio_int+0x28>
    9574:	e5930030 	ldr	r0, [r3, #48]	; 0x30
    9578:	eb0000e6 	bl	9918 <get32>
    957c:	e3500000 	cmp	r0, #0
    9580:	0a000001 	beq	958c <is_gpio_int+0x20>
    9584:	e3a00001 	mov	r0, #1
    9588:	e8bd8008 	pop	{r3, pc}
    958c:	e3a00000 	mov	r0, #0
    9590:	e8bd8008 	pop	{r3, pc}
    9594:	0000993c 	andeq	r9, r0, ip, lsr r9

00009598 <gpio_int_rising_edge>:
    9598:	e92d4038 	push	{r3, r4, r5, lr}
    959c:	e1a04000 	mov	r4, r0
    95a0:	e350001f 	cmp	r0, #31
    95a4:	88bd8038 	pophi	{r3, r4, r5, pc}
    95a8:	eb0000c8 	bl	98d0 <dev_barrier>
    95ac:	e354001f 	cmp	r4, #31
    95b0:	8a000007 	bhi	95d4 <gpio_int_rising_edge+0x3c>
    95b4:	e59f505c 	ldr	r5, [pc, #92]	; 9618 <gpio_int_rising_edge+0x80>
    95b8:	e5950034 	ldr	r0, [r5, #52]	; 0x34
    95bc:	eb0000d5 	bl	9918 <get32>
    95c0:	e3a01001 	mov	r1, #1
    95c4:	e1801411 	orr	r1, r0, r1, lsl r4
    95c8:	e5950034 	ldr	r0, [r5, #52]	; 0x34
    95cc:	eb0000c5 	bl	98e8 <put32>
    95d0:	ea000007 	b	95f4 <gpio_int_rising_edge+0x5c>
    95d4:	e59f503c 	ldr	r5, [pc, #60]	; 9618 <gpio_int_rising_edge+0x80>
    95d8:	e5950038 	ldr	r0, [r5, #56]	; 0x38
    95dc:	eb0000cd 	bl	9918 <get32>
    95e0:	e204401f 	and	r4, r4, #31
    95e4:	e3a01001 	mov	r1, #1
    95e8:	e1801411 	orr	r1, r0, r1, lsl r4
    95ec:	e5950038 	ldr	r0, [r5, #56]	; 0x38
    95f0:	eb0000bc 	bl	98e8 <put32>
    95f4:	eb0000b5 	bl	98d0 <dev_barrier>
    95f8:	e59f4018 	ldr	r4, [pc, #24]	; 9618 <gpio_int_rising_edge+0x80>
    95fc:	e594003c 	ldr	r0, [r4, #60]	; 0x3c
    9600:	eb0000c4 	bl	9918 <get32>
    9604:	e3801802 	orr	r1, r0, #131072	; 0x20000
    9608:	e594003c 	ldr	r0, [r4, #60]	; 0x3c
    960c:	eb0000b5 	bl	98e8 <put32>
    9610:	eb0000ae 	bl	98d0 <dev_barrier>
    9614:	e8bd8038 	pop	{r3, r4, r5, pc}
    9618:	0000993c 	andeq	r9, r0, ip, lsr r9

0000961c <gpio_int_falling_edge>:
    961c:	e92d4038 	push	{r3, r4, r5, lr}
    9620:	e1a04000 	mov	r4, r0
    9624:	e350001f 	cmp	r0, #31
    9628:	88bd8038 	pophi	{r3, r4, r5, pc}
    962c:	eb0000a7 	bl	98d0 <dev_barrier>
    9630:	e354001f 	cmp	r4, #31
    9634:	8a000007 	bhi	9658 <gpio_int_falling_edge+0x3c>
    9638:	e59f505c 	ldr	r5, [pc, #92]	; 969c <gpio_int_falling_edge+0x80>
    963c:	e5950040 	ldr	r0, [r5, #64]	; 0x40
    9640:	eb0000b4 	bl	9918 <get32>
    9644:	e3a01001 	mov	r1, #1
    9648:	e1801411 	orr	r1, r0, r1, lsl r4
    964c:	e5950040 	ldr	r0, [r5, #64]	; 0x40
    9650:	eb0000a4 	bl	98e8 <put32>
    9654:	ea000007 	b	9678 <gpio_int_falling_edge+0x5c>
    9658:	e59f503c 	ldr	r5, [pc, #60]	; 969c <gpio_int_falling_edge+0x80>
    965c:	e5950044 	ldr	r0, [r5, #68]	; 0x44
    9660:	eb0000ac 	bl	9918 <get32>
    9664:	e204401f 	and	r4, r4, #31
    9668:	e3a01001 	mov	r1, #1
    966c:	e1801411 	orr	r1, r0, r1, lsl r4
    9670:	e5950044 	ldr	r0, [r5, #68]	; 0x44
    9674:	eb00009b 	bl	98e8 <put32>
    9678:	eb000094 	bl	98d0 <dev_barrier>
    967c:	e59f4018 	ldr	r4, [pc, #24]	; 969c <gpio_int_falling_edge+0x80>
    9680:	e594003c 	ldr	r0, [r4, #60]	; 0x3c
    9684:	eb0000a3 	bl	9918 <get32>
    9688:	e3801601 	orr	r1, r0, #1048576	; 0x100000
    968c:	e594003c 	ldr	r0, [r4, #60]	; 0x3c
    9690:	eb000094 	bl	98e8 <put32>
    9694:	eb00008d 	bl	98d0 <dev_barrier>
    9698:	e8bd8038 	pop	{r3, r4, r5, pc}
    969c:	0000993c 	andeq	r9, r0, ip, lsr r9

000096a0 <gpio_event_detected>:
    96a0:	e92d4010 	push	{r4, lr}
    96a4:	e1a04000 	mov	r4, r0
    96a8:	e350001f 	cmp	r0, #31
    96ac:	8a000019 	bhi	9718 <gpio_event_detected+0x78>
    96b0:	eb000086 	bl	98d0 <dev_barrier>
    96b4:	e354001f 	cmp	r4, #31
    96b8:	8a000008 	bhi	96e0 <gpio_event_detected+0x40>
    96bc:	e59f305c 	ldr	r3, [pc, #92]	; 9720 <gpio_event_detected+0x80>
    96c0:	e5930048 	ldr	r0, [r3, #72]	; 0x48
    96c4:	eb000093 	bl	9918 <get32>
    96c8:	e3a03001 	mov	r3, #1
    96cc:	e0103413 	ands	r3, r0, r3, lsl r4
    96d0:	0a00000d 	beq	970c <gpio_event_detected+0x6c>
    96d4:	eb00007d 	bl	98d0 <dev_barrier>
    96d8:	e3a00001 	mov	r0, #1
    96dc:	e8bd8010 	pop	{r4, pc}
    96e0:	e59f3038 	ldr	r3, [pc, #56]	; 9720 <gpio_event_detected+0x80>
    96e4:	e593004c 	ldr	r0, [r3, #76]	; 0x4c
    96e8:	eb00008a 	bl	9918 <get32>
    96ec:	e3a03001 	mov	r3, #1
    96f0:	e0004413 	and	r4, r0, r3, lsl r4
    96f4:	eb000075 	bl	98d0 <dev_barrier>
    96f8:	e3540000 	cmp	r4, #0
    96fc:	0a000002 	beq	970c <gpio_event_detected+0x6c>
    9700:	eb000072 	bl	98d0 <dev_barrier>
    9704:	e3a00001 	mov	r0, #1
    9708:	e8bd8010 	pop	{r4, pc}
    970c:	eb00006f 	bl	98d0 <dev_barrier>
    9710:	e3a00000 	mov	r0, #0
    9714:	e8bd8010 	pop	{r4, pc}
    9718:	e3e00000 	mvn	r0, #0
    971c:	e8bd8010 	pop	{r4, pc}
    9720:	0000993c 	andeq	r9, r0, ip, lsr r9

00009724 <gpio_event_clear>:
    9724:	e92d4010 	push	{r4, lr}
    9728:	e1a04000 	mov	r4, r0
    972c:	e350001f 	cmp	r0, #31
    9730:	88bd8010 	pophi	{r4, pc}
    9734:	eb000065 	bl	98d0 <dev_barrier>
    9738:	e354001f 	cmp	r4, #31
    973c:	8a000005 	bhi	9758 <gpio_event_clear+0x34>
    9740:	e59f3030 	ldr	r3, [pc, #48]	; 9778 <gpio_event_clear+0x54>
    9744:	e5930048 	ldr	r0, [r3, #72]	; 0x48
    9748:	e3a01001 	mov	r1, #1
    974c:	e1a01411 	lsl	r1, r1, r4
    9750:	eb000064 	bl	98e8 <put32>
    9754:	ea000005 	b	9770 <gpio_event_clear+0x4c>
    9758:	e204401f 	and	r4, r4, #31
    975c:	e59f3014 	ldr	r3, [pc, #20]	; 9778 <gpio_event_clear+0x54>
    9760:	e593004c 	ldr	r0, [r3, #76]	; 0x4c
    9764:	e3a01001 	mov	r1, #1
    9768:	e1a01411 	lsl	r1, r1, r4
    976c:	eb00005d 	bl	98e8 <put32>
    9770:	eb000056 	bl	98d0 <dev_barrier>
    9774:	e8bd8010 	pop	{r4, pc}
    9778:	0000993c 	andeq	r9, r0, ip, lsr r9

0000977c <uart_init>:
    977c:	e92d4038 	push	{r3, r4, r5, lr}
    9780:	eb000052 	bl	98d0 <dev_barrier>
    9784:	e3a0000e 	mov	r0, #14
    9788:	e3a01002 	mov	r1, #2
    978c:	ebffff32 	bl	945c <gpio_set_function>
    9790:	e3a0000f 	mov	r0, #15
    9794:	e3a01002 	mov	r1, #2
    9798:	ebffff2f 	bl	945c <gpio_set_function>
    979c:	eb00004b 	bl	98d0 <dev_barrier>
    97a0:	e59f4068 	ldr	r4, [pc, #104]	; 9810 <uart_init+0x94>
    97a4:	e5945000 	ldr	r5, [r4]
    97a8:	e1a00005 	mov	r0, r5
    97ac:	eb000059 	bl	9918 <get32>
    97b0:	e3801001 	orr	r1, r0, #1
    97b4:	e1a00005 	mov	r0, r5
    97b8:	eb00004a 	bl	98e8 <put32>
    97bc:	eb000043 	bl	98d0 <dev_barrier>
    97c0:	e5940004 	ldr	r0, [r4, #4]
    97c4:	e3a01000 	mov	r1, #0
    97c8:	eb000046 	bl	98e8 <put32>
    97cc:	e5940008 	ldr	r0, [r4, #8]
    97d0:	e3a01000 	mov	r1, #0
    97d4:	eb000043 	bl	98e8 <put32>
    97d8:	e594000c 	ldr	r0, [r4, #12]
    97dc:	e3a01006 	mov	r1, #6
    97e0:	eb000040 	bl	98e8 <put32>
    97e4:	e5940010 	ldr	r0, [r4, #16]
    97e8:	e3a01003 	mov	r1, #3
    97ec:	eb00003d 	bl	98e8 <put32>
    97f0:	e5940014 	ldr	r0, [r4, #20]
    97f4:	e59f1018 	ldr	r1, [pc, #24]	; 9814 <uart_init+0x98>
    97f8:	eb00003a 	bl	98e8 <put32>
    97fc:	e5940004 	ldr	r0, [r4, #4]
    9800:	e3a01003 	mov	r1, #3
    9804:	eb000037 	bl	98e8 <put32>
    9808:	eb000030 	bl	98d0 <dev_barrier>
    980c:	e8bd8038 	pop	{r3, r4, r5, pc}
    9810:	0000999c 	muleq	r0, ip, r9
    9814:	0000010e 	andeq	r0, r0, lr, lsl #2

00009818 <uart_can_getc>:
    9818:	e92d4008 	push	{r3, lr}
    981c:	e59f300c 	ldr	r3, [pc, #12]	; 9830 <uart_can_getc+0x18>
    9820:	e5930018 	ldr	r0, [r3, #24]
    9824:	eb00003b 	bl	9918 <get32>
    9828:	e2000001 	and	r0, r0, #1
    982c:	e8bd8008 	pop	{r3, pc}
    9830:	0000999c 	muleq	r0, ip, r9

00009834 <uart_getc>:
    9834:	e92d4008 	push	{r3, lr}
    9838:	ebfffff6 	bl	9818 <uart_can_getc>
    983c:	e3500000 	cmp	r0, #0
    9840:	0afffffc 	beq	9838 <uart_getc+0x4>
    9844:	e59f300c 	ldr	r3, [pc, #12]	; 9858 <uart_getc+0x24>
    9848:	e593001c 	ldr	r0, [r3, #28]
    984c:	eb000031 	bl	9918 <get32>
    9850:	e6ef0070 	uxtb	r0, r0
    9854:	e8bd8008 	pop	{r3, pc}
    9858:	0000999c 	muleq	r0, ip, r9

0000985c <uart_can_putc>:
    985c:	e92d4008 	push	{r3, lr}
    9860:	e59f300c 	ldr	r3, [pc, #12]	; 9874 <uart_can_putc+0x18>
    9864:	e5930018 	ldr	r0, [r3, #24]
    9868:	eb00002a 	bl	9918 <get32>
    986c:	e2000020 	and	r0, r0, #32
    9870:	e8bd8008 	pop	{r3, pc}
    9874:	0000999c 	muleq	r0, ip, r9

00009878 <uart_putc>:
    9878:	e92d4010 	push	{r4, lr}
    987c:	e1a04000 	mov	r4, r0
    9880:	ebfffff5 	bl	985c <uart_can_putc>
    9884:	e3500000 	cmp	r0, #0
    9888:	0afffffc 	beq	9880 <uart_putc+0x8>
    988c:	e59f300c 	ldr	r3, [pc, #12]	; 98a0 <uart_putc+0x28>
    9890:	e593001c 	ldr	r0, [r3, #28]
    9894:	e1a01004 	mov	r1, r4
    9898:	eb000012 	bl	98e8 <put32>
    989c:	e8bd8010 	pop	{r4, pc}
    98a0:	0000999c 	muleq	r0, ip, r9

000098a4 <uart_has_data>:
    98a4:	e92d4008 	push	{r3, lr}
    98a8:	ebffffda 	bl	9818 <uart_can_getc>
    98ac:	e8bd8008 	pop	{r3, pc}

000098b0 <uart_getc_async>:
    98b0:	e92d4008 	push	{r3, lr}
    98b4:	ebfffffa 	bl	98a4 <uart_has_data>
    98b8:	e3500000 	cmp	r0, #0
    98bc:	0a000001 	beq	98c8 <uart_getc_async+0x18>
    98c0:	ebffffdb 	bl	9834 <uart_getc>
    98c4:	e8bd8008 	pop	{r3, pc}
    98c8:	e3e00000 	mvn	r0, #0
    98cc:	e8bd8008 	pop	{r3, pc}

000098d0 <dev_barrier>:
    98d0:	ea000002 	b	98e0 <dsb>

000098d4 <dmb>:
    98d4:	e3a00000 	mov	r0, #0
    98d8:	ee070fba 	mcr	15, 0, r0, cr7, cr10, {5}
    98dc:	e12fff1e 	bx	lr

000098e0 <dsb>:
    98e0:	ee070f9a 	mcr	15, 0, r0, cr7, cr10, {4}
    98e4:	e12fff1e 	bx	lr

000098e8 <put32>:
    98e8:	e5801000 	str	r1, [r0]
    98ec:	e12fff1e 	bx	lr

000098f0 <PUT32>:
    98f0:	e5801000 	str	r1, [r0]
    98f4:	e12fff1e 	bx	lr

000098f8 <put16>:
    98f8:	e1c010b0 	strh	r1, [r0]
    98fc:	e12fff1e 	bx	lr

00009900 <PUT16>:
    9900:	e1c010b0 	strh	r1, [r0]
    9904:	e12fff1e 	bx	lr

00009908 <put8>:
    9908:	e5c01000 	strb	r1, [r0]
    990c:	e12fff1e 	bx	lr

00009910 <PUT8>:
    9910:	e5c01000 	strb	r1, [r0]
    9914:	e12fff1e 	bx	lr

00009918 <get32>:
    9918:	e5900000 	ldr	r0, [r0]
    991c:	e12fff1e 	bx	lr

00009920 <GET32>:
    9920:	e5900000 	ldr	r0, [r0]
    9924:	e12fff1e 	bx	lr

00009928 <GETPC>:
    9928:	e1a0000e 	mov	r0, lr
    992c:	e12fff1e 	bx	lr

00009930 <dummy>:
    9930:	e12fff1e 	bx	lr

Disassembly of section .data:

00009934 <rpi_putchar>:
    9934:	00008afc 	strdeq	r8, [r0], -ip

00009938 <putk>:
    9938:	00008b38 	andeq	r8, r0, r8, lsr fp

0000993c <GPFSEL0>:
    993c:	20200000 	eorcs	r0, r0, r0

00009940 <GPFSEL1>:
    9940:	20200004 	eorcs	r0, r0, r4

00009944 <GPFSEL2>:
    9944:	20200008 	eorcs	r0, r0, r8

00009948 <GPFSEL3>:
    9948:	2020000c 	eorcs	r0, r0, ip

0000994c <GPFSEL4>:
    994c:	20200010 	eorcs	r0, r0, r0, lsl r0

00009950 <GPFSEL5>:
    9950:	20200014 	eorcs	r0, r0, r4, lsl r0

00009954 <GPSET0>:
    9954:	2020001c 	eorcs	r0, r0, ip, lsl r0

00009958 <GPSET1>:
    9958:	20200020 	eorcs	r0, r0, r0, lsr #32

0000995c <GPCLR0>:
    995c:	20200028 	eorcs	r0, r0, r8, lsr #32

00009960 <GPCLR1>:
    9960:	2020002c 	eorcs	r0, r0, ip, lsr #32

00009964 <GPLEV0>:
    9964:	20200034 	eorcs	r0, r0, r4, lsr r0

00009968 <GPLEV1>:
    9968:	20200038 	eorcs	r0, r0, r8, lsr r0

0000996c <IRQ_PENDING_2>:
    996c:	2000b208 	andcs	fp, r0, r8, lsl #4

00009970 <GPREN0>:
    9970:	2020004c 	eorcs	r0, r0, ip, asr #32

00009974 <GPREN1>:
    9974:	20200050 	eorcs	r0, r0, r0, asr r0

00009978 <ENABLE_IRQS_2>:
    9978:	2000b214 	andcs	fp, r0, r4, lsl r2

0000997c <GPFEN0>:
    997c:	20200058 	eorcs	r0, r0, r8, asr r0

00009980 <GPFEN1>:
    9980:	2020005c 	eorcs	r0, r0, ip, asr r0

00009984 <GPEDS0>:
    9984:	20200040 	eorcs	r0, r0, r0, asr #32

00009988 <GPEDS1>:
    9988:	20200044 	eorcs	r0, r0, r4, asr #32

0000998c <IRQ_PENDING_1>:
    998c:	2000b204 	andcs	fp, r0, r4, lsl #4

00009990 <gpio_clr0>:
    9990:	20200028 	eorcs	r0, r0, r8, lsr #32

00009994 <gpio_set0>:
    9994:	2020001c 	eorcs	r0, r0, ip, lsl r0

00009998 <gpio_fsel0>:
    9998:	20200000 	eorcs	r0, r0, r0

0000999c <AUX_ENABLES>:
    999c:	20215004 	eorcs	r5, r1, r4

000099a0 <AUX_MU_CNTL_REG>:
    99a0:	20215060 	eorcs	r5, r1, r0, rrx

000099a4 <AUX_MU_IER_REG>:
    99a4:	20215044 	eorcs	r5, r1, r4, asr #32

000099a8 <AUX_MU_IIR_REG>:
    99a8:	20215048 	eorcs	r5, r1, r8, asr #32

000099ac <AUX_MU_LCR_REG>:
    99ac:	2021504c 	eorcs	r5, r1, ip, asr #32

000099b0 <AUX_MU_BAUD_REG>:
    99b0:	20215068 	eorcs	r5, r1, r8, rrx

000099b4 <AUX_MU_LSR_REG>:
    99b4:	20215054 	eorcs	r5, r1, r4, asr r0

000099b8 <AUX_MU_IO_REG>:
    99b8:	20215040 	eorcs	r5, r1, r0, asr #32

000099bc <AUX_MU_STAT_REG>:
    99bc:	20215064 	eorcs	r5, r1, r4, rrx

000099c0 <AUX_MU_SCRATCH>:
    99c0:	2021505c 	eorcs	r5, r1, ip, asr r0

000099c4 <AUX_MU_MSR_REG>:
    99c4:	20215058 	eorcs	r5, r1, r8, asr r0

000099c8 <AUX_MU_MCR_REG>:
    99c8:	20215050 	eorcs	r5, r1, r0, asr r0

000099cc <AUX_IRQ>:
    99cc:	20215000 	eorcs	r5, r1, r0

Disassembly of section .rodata:

000099d0 <__FUNCTION__.4247>:
    99d0:	6c637963 	stclvs	9, cr7, [r3], #-396	; 0xfffffe74
    99d4:	705f7365 	subsvc	r7, pc, r5, ror #6
    99d8:	735f7265 	cmpvc	pc, #1342177286	; 0x50000006
    99dc:	00006365 	andeq	r6, r0, r5, ror #6
    99e0:	4f525245 	svcmi	0x00525245
    99e4:	73253a52 	teqvc	r5, #335872	; 0x52000
    99e8:	3a73253a 	bcc	1cd2ed8 <__bss_end__+0x1cc8f50>
    99ec:	203a6425 	eorscs	r6, sl, r5, lsr #8
    99f0:	534c4146 	movtpl	r4, #49478	; 0xc146
    99f4:	733c2845 	teqvc	ip, #4521984	; 0x450000
    99f8:	32203c20 	eorcc	r3, r0, #32, 24	; 0x2000
    99fc:	203a293e 	eorscs	r2, sl, lr, lsr r9
    9a00:	6c6c6977 	stclvs	9, cr6, [ip], #-476	; 0xfffffe24
    9a04:	65766f20 	ldrbvs	r6, [r6, #-3872]!	; 0xf20
    9a08:	6f6c6672 	svcvs	0x006c6672
    9a0c:	00000a77 	andeq	r0, r0, r7, ror sl
    9a10:	706f6373 	rsbvc	r6, pc, r3, ror r3	; <UNPREDICTABLE>
    9a14:	00632e65 	rsbeq	r2, r3, r5, ror #28
    9a18:	3a642520 	bcc	1912ea0 <__bss_end__+0x1908f18>
    9a1c:	6c617620 	stclvs	6, cr7, [r1], #-128	; 0xffffff80
    9a20:	2c64253d 	cfstr64cs	mvdx2, [r4], #-244	; 0xffffff0c
    9a24:	6d697420 	cfstrdvs	mvd7, [r9, #-128]!	; 0xffffff80
    9a28:	64253d65 	strtvs	r3, [r5], #-3429	; 0xd65
    9a2c:	6f74202c 	svcvs	0x0074202c
    9a30:	64253d74 	strtvs	r3, [r5], #-3444	; 0xd74
    9a34:	7865203a 	stmdavc	r5!, {r1, r3, r4, r5, sp}^
    9a38:	64253d70 	strtvs	r3, [r5], #-3440	; 0xd70
    9a3c:	72652820 	rsbvc	r2, r5, #32, 16	; 0x200000
    9a40:	64253d72 	strtvs	r3, [r5], #-3442	; 0xd72
    9a44:	6f74202c 	svcvs	0x0074202c
    9a48:	72726574 	rsbsvc	r6, r2, #116, 10	; 0x1d000000
    9a4c:	2964253d 	stmdbcs	r4!, {r0, r2, r3, r4, r5, r8, sl, sp}^
    9a50:	0000000a 	andeq	r0, r0, sl
    9a54:	65776f50 	ldrbvs	r6, [r7, #-3920]!	; 0xf50
    9a58:	00000a72 	andeq	r0, r0, r2, ror sl
    9a5c:	6674654e 	ldrbtvs	r6, [r4], -lr, asr #10
    9a60:	0a78696c 	beq	1e24018 <__bss_end__+0x1e1a090>
    9a64:	00000000 	andeq	r0, r0, r0
    9a68:	74627553 	strbtvc	r7, [r2], #-1363	; 0x553
    9a6c:	656c7469 	strbvs	r7, [ip, #-1129]!	; 0x469
    9a70:	00000a73 	andeq	r0, r0, r3, ror sl

00009a74 <__FUNCTION__.4271>:
    9a74:	74696d65 	strbtvc	r6, [r9], #-3429	; 0xd65
    9a78:	00000000 	andeq	r0, r0, r0

00009a7c <__FUNCTION__.4219>:
    9a7c:	5f697072 	svcpl	0x00697072
    9a80:	5f746573 	svcpl	0x00746573
    9a84:	7074756f 	rsbsvc	r7, r4, pc, ror #10
    9a88:	00007475 	andeq	r7, r0, r5, ror r4

00009a8c <__FUNCTION__.4293>:
    9a8c:	705f6176 	subsvc	r6, pc, r6, ror r1	; <UNPREDICTABLE>
    9a90:	746e6972 	strbtvc	r6, [lr], #-2418	; 0x972
    9a94:	0000006b 	andeq	r0, r0, fp, rrx
    9a98:	494e4150 	stmdbmi	lr, {r4, r6, r8, lr}^
    9a9c:	73253a43 	teqvc	r5, #274432	; 0x43000
    9aa0:	3a73253a 	bcc	1cd2f90 <__bss_end__+0x1cc9008>
    9aa4:	303a6425 	eorscc	r6, sl, r5, lsr #8
    9aa8:	0000000a 	andeq	r0, r0, sl
    9aac:	6362696c 	cmnvs	r2, #108, 18	; 0x1b0000
    9ab0:	2d61762f 	stclcs	6, cr7, [r1, #-188]!	; 0xffffff44
    9ab4:	6e697270 	mcrvs	2, 3, r7, cr9, cr0, {3}
    9ab8:	632e6b74 	teqvs	lr, #116, 22	; 0x1d000
    9abc:	00000000 	andeq	r0, r0, r0
    9ac0:	33323130 	teqcc	r2, #48, 2
    9ac4:	37363534 			; <UNDEFINED> instruction: 0x37363534
    9ac8:	00003938 	andeq	r3, r0, r8, lsr r9
    9acc:	33323130 	teqcc	r2, #48, 2
    9ad0:	37363534 			; <UNDEFINED> instruction: 0x37363534
    9ad4:	62613938 	rsbvs	r3, r1, #56, 18	; 0xe0000
    9ad8:	66656463 	strbtvs	r6, [r5], -r3, ror #8
    9adc:	00000000 	andeq	r0, r0, r0
    9ae0:	00003130 	andeq	r3, r0, r0, lsr r1
    9ae4:	494e4150 	stmdbmi	lr, {r4, r6, r8, lr}^
    9ae8:	73253a43 	teqvc	r5, #274432	; 0x43000
    9aec:	3a73253a 	bcc	1cd2fdc <__bss_end__+0x1cc9054>
    9af0:	703a6425 	eorsvc	r6, sl, r5, lsr #8
    9af4:	5f637475 	svcpl	0x00637475
    9af8:	000a7066 	andeq	r7, sl, r6, rrx
    9afc:	494e4150 	stmdbmi	lr, {r4, r6, r8, lr}^
    9b00:	73253a43 	teqvc	r5, #274432	; 0x43000
    9b04:	3a73253a 	bcc	1cd2ff4 <__bss_end__+0x1cc906c>
    9b08:	773a6425 	ldrvc	r6, [sl, -r5, lsr #8]!
    9b0c:	68746469 	ldmdavs	r4!, {r0, r3, r5, r6, sl, sp, lr}^
    9b10:	33203c20 	teqcc	r0, #32, 24	; 0x2000
    9b14:	00000a32 	andeq	r0, r0, r2, lsr sl
    9b18:	494e4150 	stmdbmi	lr, {r4, r6, r8, lr}^
    9b1c:	73253a43 	teqvc	r5, #274432	; 0x43000
    9b20:	3a73253a 	bcc	1cd3010 <__bss_end__+0x1cc9088>
    9b24:	663a6425 	ldrtvs	r6, [sl], -r5, lsr #8
    9b28:	74616f6c 	strbtvc	r6, [r1], #-3948	; 0xf6c
    9b2c:	746f6e20 	strbtvc	r6, [pc], #-3616	; 9b34 <__FUNCTION__.4293+0xa8>
    9b30:	616e6520 	cmnvs	lr, r0, lsr #10
    9b34:	64656c62 	strbtvs	r6, [r5], #-3170	; 0xc62
    9b38:	0a212121 	beq	851fc4 <__bss_end__+0x84803c>
    9b3c:	00000000 	andeq	r0, r0, r0
    9b40:	494e4150 	stmdbmi	lr, {r4, r6, r8, lr}^
    9b44:	73253a43 	teqvc	r5, #274432	; 0x43000
    9b48:	3a73253a 	bcc	1cd3038 <__bss_end__+0x1cc90b0>
    9b4c:	703a6425 	eorsvc	r6, sl, r5, lsr #8
    9b50:	746e6972 	strbtvc	r6, [lr], #-2418	; 0x972
    9b54:	6e203a6b 	vnmulvs.f32	s6, s0, s23
    9b58:	6820746f 	stmdavs	r0!, {r0, r1, r2, r3, r5, r6, sl, ip, sp, lr}
    9b5c:	6c646e61 	stclvs	14, cr6, [r4], #-388	; 0xfffffe7c
    9b60:	20676e69 	rsbcs	r6, r7, r9, ror #28
    9b64:	63657073 	cmnvs	r5, #115	; 0x73
    9b68:	65696669 	strbvs	r6, [r9, #-1641]!	; 0x669
    9b6c:	25272072 	strcs	r2, [r7, #-114]!	; 0x72
    9b70:	0a0a2763 	beq	293904 <__bss_end__+0x28997c>
    9b74:	00000000 	andeq	r0, r0, r0
    9b78:	454e4f44 	strbmi	r4, [lr, #-3908]	; 0xf44
    9b7c:	0a212121 	beq	852008 <__bss_end__+0x848080>
    9b80:	00000000 	andeq	r0, r0, r0

Disassembly of section .bss:

00009b84 <__bss_start__>:
	...

Disassembly of section .ARM.attributes:

00000000 <.ARM.attributes>:
   0:	00002a41 	andeq	r2, r0, r1, asr #20
   4:	61656100 	cmnvs	r5, r0, lsl #2
   8:	01006962 	tsteq	r0, r2, ror #18
   c:	00000020 	andeq	r0, r0, r0, lsr #32
  10:	4b5a3605 	blmi	168d82c <__bss_end__+0x16838a4>
  14:	08070600 	stmdaeq	r7, {r9, sl}
  18:	12010901 	andne	r0, r1, #16384	; 0x4000
  1c:	15011404 	strne	r1, [r1, #-1028]	; 0x404
  20:	18031701 	stmdane	r3, {r0, r8, r9, sl, ip}
  24:	22011a01 	andcs	r1, r1, #4096	; 0x1000
  28:	Address 0x0000000000000028 is out of bounds.


Disassembly of section .comment:

00000000 <.comment>:
   0:	3a434347 	bcc	10d0d24 <__bss_end__+0x10c6d9c>
   4:	4e472820 	cdpmi	8, 4, cr2, cr7, cr0, {1}
   8:	34202955 	strtcc	r2, [r0], #-2389	; 0x955
   c:	332e382e 	teqcc	lr, #3014656	; 0x2e0000
	...

Disassembly of section .debug_info:

00000000 <.debug_info>:
       0:	00000f4f 	andeq	r0, r0, pc, asr #30
       4:	00000004 	andeq	r0, r0, r4
       8:	01040000 	mrseq	r0, (UNDEF: 4)
       c:	000000e1 	andeq	r0, r0, r1, ror #1
      10:	00031f01 	andeq	r1, r3, r1, lsl #30
      14:	00015c00 	andeq	r5, r1, r0, lsl #24
      18:	00801000 	addeq	r1, r0, r0
      1c:	000a9400 	andeq	r9, sl, r0, lsl #8
      20:	00000000 	andeq	r0, r0, r0
      24:	05040200 	streq	r0, [r4, #-512]	; 0x200
      28:	00746e69 	rsbseq	r6, r4, r9, ror #28
      2c:	58070403 	stmdapl	r7, {r0, r1, sl}
      30:	03000000 	movweq	r0, #0
      34:	026d0601 	rsbeq	r0, sp, #1048576	; 0x100000
      38:	02030000 	andeq	r0, r3, #0
      3c:	00027f05 	andeq	r7, r2, r5, lsl #30
      40:	05040300 	streq	r0, [r4, #-768]	; 0x300
      44:	00000083 	andeq	r0, r0, r3, lsl #1
      48:	7e050803 	cdpvc	8, 0, cr0, cr5, cr3, {0}
      4c:	04000000 	streq	r0, [r0], #-0
      50:	000002ff 	strdeq	r0, [r0], -pc	; <UNPREDICTABLE>
      54:	005a2e02 	subseq	r2, sl, r2, lsl #28
      58:	01030000 	mrseq	r0, (UNDEF: 3)
      5c:	00026b08 	andeq	r6, r2, r8, lsl #22
      60:	07020300 	streq	r0, [r2, -r0, lsl #6]
      64:	000001e8 	andeq	r0, r0, r8, ror #3
      68:	53070403 	movwpl	r0, #29699	; 0x7403
      6c:	03000000 	movweq	r0, #0
      70:	004e0708 	subeq	r0, lr, r8, lsl #14
      74:	04030000 	streq	r0, [r3], #-0
      78:	00022d07 	andeq	r2, r2, r7, lsl #26
      7c:	08010300 	stmdaeq	r1, {r8, r9}
      80:	00000274 	andeq	r0, r0, r4, ror r2
      84:	008a0405 	addeq	r0, sl, r5, lsl #8
      88:	7d060000 	stcvc	0, cr0, [r6, #-0]
      8c:	07000000 	streq	r0, [r0, -r0]
      90:	c61b0110 			; <UNDEFINED> instruction: 0xc61b0110
      94:	08000000 	stmdaeq	r0, {}	; <UNPREDICTABLE>
      98:	01007874 	tsteq	r0, r4, ror r8
      9c:	0000251c 	andeq	r2, r0, ip, lsl r5
      a0:	72080000 	andvc	r0, r8, #0
      a4:	1c010078 	stcne	0, cr0, [r1], {120}	; 0x78
      a8:	00000025 	andeq	r0, r0, r5, lsr #32
      ac:	02a90904 	adceq	r0, r9, #4, 18	; 0x10000
      b0:	1d010000 	stcne	0, cr0, [r1, #-0]
      b4:	0000002c 	andeq	r0, r0, ip, lsr #32
      b8:	03110908 	tsteq	r1, #8, 18	; 0x20000
      bc:	1e010000 	cdpne	0, 0, cr0, cr1, cr0, {0}
      c0:	0000002c 	andeq	r0, r0, ip, lsr #32
      c4:	5e04000c 	cdppl	0, 0, cr0, cr4, cr12, {0}
      c8:	01000002 	tsteq	r0, r2
      cc:	00008f1f 	andeq	r8, r0, pc, lsl pc
      d0:	01080700 	tsteq	r8, r0, lsl #14
      d4:	0000f0a6 	andeq	pc, r0, r6, lsr #1
      d8:	00760800 	rsbseq	r0, r6, r0, lsl #16
      dc:	002ca701 	eoreq	sl, ip, r1, lsl #14
      e0:	09000000 	stmdbeq	r0, {}	; <UNPREDICTABLE>
      e4:	00000076 	andeq	r0, r0, r6, ror r0
      e8:	002ca701 	eoreq	sl, ip, r1, lsl #14
      ec:	00040000 	andeq	r0, r4, r0
      f0:	0000d704 	andeq	sp, r0, r4, lsl #14
      f4:	d1a80100 			; <UNDEFINED> instruction: 0xd1a80100
      f8:	0a000000 	beq	100 <_start-0x7f00>
      fc:	00000065 	andeq	r0, r0, r5, rrx
     100:	13032801 	movwne	r2, #14337	; 0x3801
     104:	0b000001 	bleq	110 <_start-0x7ef0>
     108:	006e6970 	rsbeq	r6, lr, r0, ror r9
     10c:	002c2801 	eoreq	r2, ip, r1, lsl #16
     110:	0a000000 	beq	118 <_start-0x7ee8>
     114:	000000c5 	andeq	r0, r0, r5, asr #1
     118:	2b032d01 	blcs	cb524 <__bss_end__+0xc159c>
     11c:	0b000001 	bleq	128 <_start-0x7ed8>
     120:	006e6970 	rsbeq	r6, lr, r0, ror r9
     124:	002c2d01 	eoreq	r2, ip, r1, lsl #26
     128:	0a000000 	beq	130 <_start-0x7ed0>
     12c:	00000021 	andeq	r0, r0, r1, lsr #32
     130:	4c033201 	sfmmi	f3, 4, [r3], {1}
     134:	0b000001 	bleq	140 <_start-0x7ec0>
     138:	006e6970 	rsbeq	r6, lr, r0, ror r9
     13c:	002c3201 	eoreq	r3, ip, r1, lsl #4
     140:	760b0000 	strvc	r0, [fp], -r0
     144:	2c320100 	ldfcss	f0, [r2], #-0
     148:	00000000 	andeq	r0, r0, r0
     14c:	7362610c 	cmnvc	r2, #12, 2
     150:	25aa0100 	strcs	r0, [sl, #256]!	; 0x100
     154:	01000000 	mrseq	r0, (UNDEF: 0)
     158:	00000166 	andeq	r0, r0, r6, ror #2
     15c:	0100780b 	tsteq	r0, fp, lsl #16
     160:	000025aa 	andeq	r2, r0, sl, lsr #11
     164:	9a0d0000 	bls	34016c <__bss_end__+0x3361e4>
     168:	01000002 	tsteq	r0, r2
     16c:	00002c40 	andeq	r2, r0, r0, asr #24
     170:	00801000 	addeq	r1, r0, r0
     174:	00005000 	andeq	r5, r0, r0
     178:	469c0100 	ldrmi	r0, [ip], r0, lsl #2
     17c:	0e000002 	cdpeq	0, 0, cr0, cr0, cr2, {0}
     180:	40010073 	andmi	r0, r1, r3, ror r0
     184:	0000002c 	andeq	r0, r0, ip, lsr #32
     188:	00000000 	andeq	r0, r0, r0
     18c:	0001cb0f 	andeq	ip, r1, pc, lsl #22
     190:	00025600 	andeq	r5, r2, r0, lsl #12
     194:	d0030500 	andle	r0, r3, r0, lsl #10
     198:	10000099 	mulne	r0, r9, r0
     19c:	000002b8 			; <UNDEFINED> instruction: 0x000002b8
     1a0:	002c4201 	eoreq	r4, ip, r1, lsl #4
     1a4:	db110000 	blle	4401ac <__bss_end__+0x436224>
     1a8:	01000002 	tsteq	r0, r2
     1ac:	00002c44 	andeq	r2, r0, r4, asr #24
     1b0:	00003a00 	andeq	r3, r0, r0, lsl #20
     1b4:	801c1200 	andshi	r1, ip, r0, lsl #4
     1b8:	00040000 	andeq	r0, r4, r0
     1bc:	01ce0000 	biceq	r0, lr, r0
     1c0:	4f100000 	svcmi	0x00100000
     1c4:	01000002 	tsteq	r0, r2
     1c8:	00002c42 	andeq	r2, r0, r2, asr #24
     1cc:	2c120000 	ldccs	0, cr0, [r2], {-0}
     1d0:	04000080 	streq	r0, [r0], #-128	; 0x80
     1d4:	eb000000 	bl	1dc <_start-0x7e24>
     1d8:	11000001 	tstne	r0, r1
     1dc:	0000024f 	andeq	r0, r0, pc, asr #4
     1e0:	002c4401 	eoreq	r4, ip, r1, lsl #8
     1e4:	003a0000 	eorseq	r0, sl, r0
     1e8:	13000000 	movwne	r0, #0
     1ec:	0000802c 	andeq	r8, r0, ip, lsr #32
     1f0:	00000f09 	andeq	r0, r0, r9, lsl #30
     1f4:	00000204 	andeq	r0, r0, r4, lsl #4
     1f8:	07500114 	smmlaeq	r0, r4, r1, r0
     1fc:	0a5001f3 	beq	14009d0 <__bss_end__+0x13f6a48>
     200:	001e03e8 	andseq	r0, lr, r8, ror #7
     204:	00803c15 	addeq	r3, r0, r5, lsl ip
     208:	000f1a00 	andeq	r1, pc, r0, lsl #20
     20c:	80501300 	subshi	r1, r0, r0, lsl #6
     210:	0f210000 	svceq	0x00210000
     214:	023c0000 	eorseq	r0, ip, #0
     218:	01140000 	tsteq	r4, r0
     21c:	41080253 	tstmi	r8, r3, asr r2
     220:	05520114 	ldrbeq	r0, [r2, #-276]	; 0x114
     224:	0099d003 	addseq	sp, r9, r3
     228:	51011400 	tstpl	r1, r0, lsl #8
     22c:	9a100305 	bls	400e48 <__bss_end__+0x3f6ec0>
     230:	01140000 	tsteq	r4, r0
     234:	e0030550 	and	r0, r3, r0, asr r5
     238:	00000099 	muleq	r0, r9, r0
     23c:	00805415 	addeq	r5, r0, r5, lsl r4
     240:	000f3700 	andeq	r3, pc, r0, lsl #14
     244:	7d160000 	ldcvc	0, cr0, [r6, #-0]
     248:	56000000 	strpl	r0, [r0], -r0
     24c:	17000002 	strne	r0, [r0, -r2]
     250:	00000076 	andeq	r0, r0, r6, ror r0
     254:	4606000e 	strmi	r0, [r6], -lr
     258:	0d000002 	stceq	0, cr0, [r0, #-8]
     25c:	00000094 	muleq	r0, r4, r0
     260:	002c4e01 	eoreq	r4, ip, r1, lsl #28
     264:	80600000 	rsbhi	r0, r0, r0
     268:	01c40000 	biceq	r0, r4, r0
     26c:	9c010000 	stcls	0, cr0, [r1], {-0}
     270:	000003f2 	strdeq	r0, [r0], -r2
     274:	00025918 	andeq	r5, r2, r8, lsl r9
     278:	f24e0100 	vrhadd.s8	d16, d14, d0
     27c:	4d000003 	stcmi	0, cr0, [r0, #-12]
     280:	11000000 	mrsne	r0, (UNDEF: 0)
     284:	0000039e 	muleq	r0, lr, r3
     288:	002c5001 	eoreq	r5, ip, r1
     28c:	006e0000 	rsbeq	r0, lr, r0
     290:	69190000 	ldmdbvs	r9, {}	; <UNPREDICTABLE>
     294:	2c510100 	ldfcse	f0, [r1], {-0}
     298:	01000000 	mrseq	r0, (UNDEF: 0)
     29c:	00003c11 	andeq	r3, r0, r1, lsl ip
     2a0:	2c520100 	ldfcse	f0, [r2], {-0}
     2a4:	d4000000 	strle	r0, [r0], #-0
     2a8:	1a000000 	bne	2b0 <_start-0x7d50>
     2ac:	00000537 	andeq	r0, r0, r7, lsr r5
     2b0:	002c5601 	eoreq	r5, ip, r1, lsl #12
     2b4:	53010000 	movwpl	r0, #4096	; 0x1000
     2b8:	00808c12 	addeq	r8, r0, r2, lsl ip
     2bc:	00000400 	andeq	r0, r0, r0, lsl #8
     2c0:	0002d300 	andeq	sp, r2, r0, lsl #6
     2c4:	024f1a00 	subeq	r1, pc, #0, 20
     2c8:	56010000 	strpl	r0, [r1], -r0
     2cc:	0000002c 	andeq	r0, r0, ip, lsr #32
     2d0:	12005301 	andne	r5, r0, #67108864	; 0x4000000
     2d4:	00008090 	muleq	r0, r0, r0
     2d8:	00000004 	andeq	r0, r0, r4
     2dc:	000002f0 	strdeq	r0, [r0], -r0	; <UNPREDICTABLE>
     2e0:	00024f11 	andeq	r4, r2, r1, lsl pc
     2e4:	2c570100 	ldfcse	f0, [r7], {-0}
     2e8:	09000000 	stmdbeq	r0, {}	; <UNPREDICTABLE>
     2ec:	00000001 	andeq	r0, r0, r1
     2f0:	0080a412 	addeq	sl, r0, r2, lsl r4
     2f4:	00000400 	andeq	r0, r0, r0, lsl #8
     2f8:	00030d00 	andeq	r0, r3, r0, lsl #26
     2fc:	024f1100 	subeq	r1, pc, #0, 2
     300:	59010000 	stmdbpl	r1, {}	; <UNPREDICTABLE>
     304:	0000002c 	andeq	r0, r0, ip, lsr #32
     308:	0000011c 	andeq	r0, r0, ip, lsl r1
     30c:	80cc1200 	sbchi	r1, ip, r0, lsl #4
     310:	00040000 	andeq	r0, r4, r0
     314:	032a0000 	teqeq	sl, #0
     318:	4f110000 	svcmi	0x00110000
     31c:	01000002 	tsteq	r0, r2
     320:	00002c5b 	andeq	r2, r0, fp, asr ip
     324:	00012f00 	andeq	r2, r1, r0, lsl #30
     328:	f8120000 			; <UNDEFINED> instruction: 0xf8120000
     32c:	04000080 	streq	r0, [r0], #-128	; 0x80
     330:	47000000 	strmi	r0, [r0, -r0]
     334:	11000003 	tstne	r0, r3
     338:	0000024f 	andeq	r0, r0, pc, asr #4
     33c:	002c5d01 	eoreq	r5, ip, r1, lsl #26
     340:	01420000 	mrseq	r0, (UNDEF: 66)
     344:	12000000 	andne	r0, r0, #0
     348:	00008128 	andeq	r8, r0, r8, lsr #2
     34c:	00000004 	andeq	r0, r0, r4
     350:	00000364 	andeq	r0, r0, r4, ror #6
     354:	00024f11 	andeq	r4, r2, r1, lsl pc
     358:	2c5f0100 	ldfcse	f0, [pc], {-0}
     35c:	55000000 	strpl	r0, [r0, #-0]
     360:	00000001 	andeq	r0, r0, r1
     364:	00815412 	addeq	r5, r1, r2, lsl r4
     368:	00000400 	andeq	r0, r0, r0, lsl #8
     36c:	00038100 	andeq	r8, r3, r0, lsl #2
     370:	024f1100 	subeq	r1, pc, #0, 2
     374:	61010000 	mrsvs	r0, (UNDEF: 1)
     378:	0000002c 	andeq	r0, r0, ip, lsr #32
     37c:	00000168 	andeq	r0, r0, r8, ror #2
     380:	81801200 	orrhi	r1, r0, r0, lsl #4
     384:	00040000 	andeq	r0, r4, r0
     388:	039e0000 	orrseq	r0, lr, #0
     38c:	4f110000 	svcmi	0x00110000
     390:	01000002 	tsteq	r0, r2
     394:	00002c63 	andeq	r2, r0, r3, ror #24
     398:	00017b00 	andeq	r7, r1, r0, lsl #22
     39c:	ac120000 	ldcge	0, cr0, [r2], {-0}
     3a0:	04000081 	streq	r0, [r0], #-129	; 0x81
     3a4:	bb000000 	bllt	3ac <_start-0x7c54>
     3a8:	11000003 	tstne	r0, r3
     3ac:	0000024f 	andeq	r0, r0, pc, asr #4
     3b0:	002c6501 	eoreq	r6, ip, r1, lsl #10
     3b4:	018e0000 	orreq	r0, lr, r0
     3b8:	12000000 	andne	r0, r0, #0
     3bc:	000081d8 	ldrdeq	r8, [r0], -r8	; <UNPREDICTABLE>
     3c0:	00000004 	andeq	r0, r0, r4
     3c4:	000003d8 	ldrdeq	r0, [r0], -r8
     3c8:	00024f11 	andeq	r4, r2, r1, lsl pc
     3cc:	2c670100 	stfcse	f0, [r7], #-0
     3d0:	a1000000 	mrsge	r0, (UNDEF: 0)
     3d4:	00000001 	andeq	r0, r0, r1
     3d8:	0082081b 	addeq	r0, r2, fp, lsl r8
     3dc:	00000400 	andeq	r0, r0, r0, lsl #8
     3e0:	024f1100 	subeq	r1, pc, #0, 2
     3e4:	69010000 	stmdbvs	r1, {}	; <UNPREDICTABLE>
     3e8:	0000002c 	andeq	r0, r0, ip, lsr #32
     3ec:	000001b4 			; <UNDEFINED> instruction: 0x000001b4
     3f0:	04050000 	streq	r0, [r5], #-0
     3f4:	000000c6 	andeq	r0, r0, r6, asr #1
     3f8:	0001381c 	andeq	r3, r1, ip, lsl r8
     3fc:	24710100 	ldrbtcs	r0, [r1], #-256	; 0x100
     400:	90000082 	andls	r0, r0, r2, lsl #1
     404:	01000002 	tsteq	r0, r2
     408:	00094c9c 	muleq	r9, ip, ip
     40c:	02591d00 	subseq	r1, r9, #0, 26
     410:	71010000 	mrsvc	r0, (UNDEF: 1)
     414:	000003f2 	strdeq	r0, [r0], -r2
     418:	2e185001 	cdpcs	0, 1, cr5, cr8, cr1, {0}
     41c:	01000008 	tsteq	r0, r8
     420:	00004f71 	andeq	r4, r0, r1, ror pc
     424:	0001c700 	andeq	ip, r1, r0, lsl #14
     428:	00691900 	rsbeq	r1, r9, r0, lsl #18
     42c:	002c7201 	eoreq	r7, ip, r1, lsl #4
     430:	1a010000 	bne	40438 <__bss_end__+0x364b0>
     434:	00000537 	andeq	r0, r0, r7, lsr r5
     438:	002c7301 	eoreq	r7, ip, r1, lsl #6
     43c:	53010000 	movwpl	r0, #4096	; 0x1000
     440:	00822812 	addeq	r2, r2, r2, lsl r8
     444:	00001000 	andeq	r1, r0, r0
     448:	00045b00 	andeq	r5, r4, r0, lsl #22
     44c:	024f1a00 	subeq	r1, pc, #0, 20
     450:	73010000 	movwvc	r0, #4096	; 0x1000
     454:	0000002c 	andeq	r0, r0, ip, lsr #32
     458:	1e005301 	cdpne	3, 0, cr5, cr0, cr1, {0}
     45c:	00000113 	andeq	r0, r0, r3, lsl r1
     460:	00008250 	andeq	r8, r0, r0, asr r2
     464:	00000010 	andeq	r0, r0, r0, lsl r0
     468:	04787901 	ldrbteq	r7, [r8], #-2305	; 0x901
     46c:	1f1f0000 	svcne	0x001f0000
     470:	e8000001 	stmda	r0, {r0}
     474:	00000001 	andeq	r0, r0, r1
     478:	00826012 	addeq	r6, r2, r2, lsl r0
     47c:	00000400 	andeq	r0, r0, r0, lsl #8
     480:	00049500 	andeq	r9, r4, r0, lsl #10
     484:	024f1100 	subeq	r1, pc, #0, 2
     488:	7a010000 	bvc	40490 <__bss_end__+0x36508>
     48c:	0000002c 	andeq	r0, r0, ip, lsr #32
     490:	000001fb 	strdeq	r0, [r0], -fp
     494:	012b2000 	teqeq	fp, r0
     498:	82700000 	rsbshi	r0, r0, #0
     49c:	00000000 	andeq	r0, r0, r0
     4a0:	7b010000 	blvc	404a8 <__bss_end__+0x36520>
     4a4:	00000509 	andeq	r0, r0, r9, lsl #10
     4a8:	0001421f 	andeq	r4, r1, pc, lsl r2
     4ac:	00020e00 	andeq	r0, r2, r0, lsl #28
     4b0:	01371f00 	teqeq	r7, r0, lsl #30
     4b4:	02290000 	eoreq	r0, r9, #0
     4b8:	18210000 	stmdane	r1!, {}	; <UNPREDICTABLE>
     4bc:	ef000000 	svc	0x00000000
     4c0:	1f000004 	svcne	0x00000004
     4c4:	00000142 	andeq	r0, r0, r2, asr #2
     4c8:	00000248 	andeq	r0, r0, r8, asr #4
     4cc:	0001371f 	andeq	r3, r1, pc, lsl r7
     4d0:	00022900 	andeq	r2, r2, r0, lsl #18
     4d4:	00fb2200 	rscseq	r2, fp, r0, lsl #4
     4d8:	82700000 	rsbshi	r0, r0, #0
     4dc:	00180000 	andseq	r0, r8, r0
     4e0:	35010000 	strcc	r0, [r1, #-0]
     4e4:	0001071f 	andeq	r0, r1, pc, lsl r7
     4e8:	00022900 	andeq	r2, r2, r0, lsl #18
     4ec:	22000000 	andcs	r0, r0, #0
     4f0:	00000113 	andeq	r0, r0, r3, lsl r1
     4f4:	00008280 	andeq	r8, r0, r0, lsl #5
     4f8:	00000040 	andeq	r0, r0, r0, asr #32
     4fc:	1f1f3701 	svcne	0x001f3701
     500:	29000001 	stmdbcs	r0, {r0}
     504:	00000002 	andeq	r0, r0, r2
     508:	82a01200 	adchi	r1, r0, #0, 4
     50c:	00040000 	andeq	r0, r4, r0
     510:	05260000 	streq	r0, [r6, #-0]!
     514:	4f110000 	svcmi	0x00110000
     518:	01000002 	tsteq	r0, r2
     51c:	00002c7c 	andeq	r2, r0, ip, ror ip
     520:	0002d100 	andeq	sp, r2, r0, lsl #2
     524:	2b200000 	blcs	80052c <__bss_end__+0x7f65a4>
     528:	b0000001 	andlt	r0, r0, r1
     52c:	60000082 	andvs	r0, r0, r2, lsl #1
     530:	01000000 	mrseq	r0, (UNDEF: 0)
     534:	00059a7d 	andeq	r9, r5, sp, ror sl
     538:	01421f00 	cmpeq	r2, r0, lsl #30
     53c:	02e40000 	rsceq	r0, r4, #0
     540:	371f0000 	ldrcc	r0, [pc, -r0]
     544:	ff000001 			; <UNDEFINED> instruction: 0xff000001
     548:	21000002 	tstcs	r0, r2
     54c:	00000078 	andeq	r0, r0, r8, ror r0
     550:	00000580 	andeq	r0, r0, r0, lsl #11
     554:	0001421f 	andeq	r4, r1, pc, lsl r2
     558:	00031e00 	andeq	r1, r3, r0, lsl #28
     55c:	01371f00 	teqeq	r7, r0, lsl #30
     560:	02ff0000 	rscseq	r0, pc, #0
     564:	fb220000 	blx	88056e <__bss_end__+0x8765e6>
     568:	b0000000 	andlt	r0, r0, r0
     56c:	78000082 	stmdavc	r0, {r1, r7}
     570:	01000000 	mrseq	r0, (UNDEF: 0)
     574:	01071f35 	tsteq	r7, r5, lsr pc
     578:	02ff0000 	rscseq	r0, pc, #0
     57c:	00000000 	andeq	r0, r0, r0
     580:	00011322 	andeq	r1, r1, r2, lsr #6
     584:	0082c000 	addeq	ip, r2, r0
     588:	0000a000 	andeq	sl, r0, r0
     58c:	1f370100 	svcne	0x00370100
     590:	0000011f 	andeq	r0, r0, pc, lsl r1
     594:	000002ff 	strdeq	r0, [r0], -pc	; <UNPREDICTABLE>
     598:	e0120000 	ands	r0, r2, r0
     59c:	04000082 	streq	r0, [r0], #-130	; 0x82
     5a0:	b7000000 	strlt	r0, [r0, -r0]
     5a4:	11000005 	tstne	r0, r5
     5a8:	0000024f 	andeq	r0, r0, pc, asr #4
     5ac:	002c7e01 	eoreq	r7, ip, r1, lsl #28
     5b0:	03940000 	orrseq	r0, r4, #0
     5b4:	20000000 	andcs	r0, r0, r0
     5b8:	0000012b 	andeq	r0, r0, fp, lsr #2
     5bc:	000082f0 	strdeq	r8, [r0], -r0
     5c0:	000000c0 	andeq	r0, r0, r0, asr #1
     5c4:	062b7f01 	strteq	r7, [fp], -r1, lsl #30
     5c8:	421f0000 	andsmi	r0, pc, #0
     5cc:	a7000001 	strge	r0, [r0, -r1]
     5d0:	1f000003 	svcne	0x00000003
     5d4:	00000137 	andeq	r0, r0, r7, lsr r1
     5d8:	000003c2 	andeq	r0, r0, r2, asr #7
     5dc:	0000d821 	andeq	sp, r0, r1, lsr #16
     5e0:	00061100 	andeq	r1, r6, r0, lsl #2
     5e4:	01421f00 	cmpeq	r2, r0, lsl #30
     5e8:	03e10000 	mvneq	r0, #0
     5ec:	371f0000 	ldrcc	r0, [pc, -r0]
     5f0:	c2000001 	andgt	r0, r0, #1
     5f4:	22000003 	andcs	r0, r0, #3
     5f8:	000000fb 	strdeq	r0, [r0], -fp
     5fc:	000082f0 	strdeq	r8, [r0], -r0
     600:	000000d8 	ldrdeq	r0, [r0], -r8
     604:	071f3501 	ldreq	r3, [pc, -r1, lsl #10]
     608:	c2000001 	andgt	r0, r0, #1
     60c:	00000003 	andeq	r0, r0, r3
     610:	01132200 	tsteq	r3, r0, lsl #4
     614:	83000000 	movwhi	r0, #0
     618:	01000000 	mrseq	r0, (UNDEF: 0)
     61c:	37010000 	strcc	r0, [r1, -r0]
     620:	00011f1f 	andeq	r1, r1, pc, lsl pc
     624:	0003c200 	andeq	ip, r3, r0, lsl #4
     628:	12000000 	andne	r0, r0, #0
     62c:	00008320 	andeq	r8, r0, r0, lsr #6
     630:	00000004 	andeq	r0, r0, r4
     634:	00000648 	andeq	r0, r0, r8, asr #12
     638:	00024f11 	andeq	r4, r2, r1, lsl pc
     63c:	2c800100 	stfcss	f0, [r0], {0}
     640:	44000000 	strmi	r0, [r0], #-0
     644:	00000004 	andeq	r0, r0, r4
     648:	00012b20 	andeq	r2, r1, r0, lsr #22
     64c:	00833000 	addeq	r3, r3, r0
     650:	00012000 	andeq	r2, r1, r0
     654:	bc810100 	stflts	f0, [r1], {0}
     658:	1f000006 	svcne	0x00000006
     65c:	00000142 	andeq	r0, r0, r2, asr #2
     660:	00000457 	andeq	r0, r0, r7, asr r4
     664:	0001371f 	andeq	r3, r1, pc, lsl r7
     668:	00047100 	andeq	r7, r4, r0, lsl #2
     66c:	01382100 	teqeq	r8, r0, lsl #2
     670:	06a20000 	strteq	r0, [r2], r0
     674:	421f0000 	andsmi	r0, pc, #0
     678:	90000001 	andls	r0, r0, r1
     67c:	1f000004 	svcne	0x00000004
     680:	00000137 	andeq	r0, r0, r7, lsr r1
     684:	00000471 	andeq	r0, r0, r1, ror r4
     688:	0000fb22 	andeq	pc, r0, r2, lsr #22
     68c:	00833000 	addeq	r3, r3, r0
     690:	00013800 	andeq	r3, r1, r0, lsl #16
     694:	1f350100 	svcne	0x00350100
     698:	00000107 	andeq	r0, r0, r7, lsl #2
     69c:	00000471 	andeq	r0, r0, r1, ror r4
     6a0:	13220000 	teqne	r2, #0
     6a4:	40000001 	andmi	r0, r0, r1
     6a8:	60000083 	andvs	r0, r0, r3, lsl #1
     6ac:	01000001 	tsteq	r0, r1
     6b0:	011f1f37 	tsteq	pc, r7, lsr pc	; <UNPREDICTABLE>
     6b4:	04710000 	ldrbteq	r0, [r1], #-0
     6b8:	00000000 	andeq	r0, r0, r0
     6bc:	00836012 	addeq	r6, r3, r2, lsl r0
     6c0:	00000400 	andeq	r0, r0, r0, lsl #8
     6c4:	0006d900 	andeq	sp, r6, r0, lsl #18
     6c8:	024f1100 	subeq	r1, pc, #0, 2
     6cc:	82010000 	andhi	r0, r1, #0
     6d0:	0000002c 	andeq	r0, r0, ip, lsr #32
     6d4:	000004e0 	andeq	r0, r0, r0, ror #9
     6d8:	012b2000 	teqeq	fp, r0
     6dc:	83700000 	cmnhi	r0, #0
     6e0:	01800000 	orreq	r0, r0, r0
     6e4:	83010000 	movwhi	r0, #4096	; 0x1000
     6e8:	0000074d 	andeq	r0, r0, sp, asr #14
     6ec:	0001421f 	andeq	r4, r1, pc, lsl r2
     6f0:	0004f300 	andeq	pc, r4, r0, lsl #6
     6f4:	01371f00 	teqeq	r7, r0, lsl #30
     6f8:	050d0000 	streq	r0, [sp, #-0]
     6fc:	98210000 	stmdals	r1!, {}	; <UNPREDICTABLE>
     700:	33000001 	movwcc	r0, #1
     704:	1f000007 	svcne	0x00000007
     708:	00000142 	andeq	r0, r0, r2, asr #2
     70c:	0000052c 	andeq	r0, r0, ip, lsr #10
     710:	0001371f 	andeq	r3, r1, pc, lsl r7
     714:	00050d00 	andeq	r0, r5, r0, lsl #26
     718:	00fb2200 	rscseq	r2, fp, r0, lsl #4
     71c:	83700000 	cmnhi	r0, #0
     720:	01980000 	orrseq	r0, r8, r0
     724:	35010000 	strcc	r0, [r1, #-0]
     728:	0001071f 	andeq	r0, r1, pc, lsl r7
     72c:	00050d00 	andeq	r0, r5, r0, lsl #26
     730:	22000000 	andcs	r0, r0, #0
     734:	00000113 	andeq	r0, r0, r3, lsl r1
     738:	00008380 	andeq	r8, r0, r0, lsl #7
     73c:	000001c0 	andeq	r0, r0, r0, asr #3
     740:	1f1f3701 	svcne	0x001f3701
     744:	0d000001 	stceq	0, cr0, [r0, #-4]
     748:	00000005 	andeq	r0, r0, r5
     74c:	83a41200 			; <UNDEFINED> instruction: 0x83a41200
     750:	00040000 	andeq	r0, r4, r0
     754:	076a0000 	strbeq	r0, [sl, -r0]!
     758:	4f110000 	svcmi	0x00110000
     75c:	01000002 	tsteq	r0, r2
     760:	00002c84 	andeq	r2, r0, r4, lsl #25
     764:	00056a00 	andeq	r6, r5, r0, lsl #20
     768:	2b200000 	blcs	800770 <__bss_end__+0x7f67e8>
     76c:	b4000001 	strlt	r0, [r0], #-1
     770:	e0000083 	and	r0, r0, r3, lsl #1
     774:	01000001 	tsteq	r0, r1
     778:	0007de85 	andeq	sp, r7, r5, lsl #29
     77c:	01421f00 	cmpeq	r2, r0, lsl #30
     780:	057d0000 	ldrbeq	r0, [sp, #-0]!
     784:	371f0000 	ldrcc	r0, [pc, -r0]
     788:	97000001 	strls	r0, [r0, -r1]
     78c:	21000005 	tstcs	r0, r5
     790:	000001f8 	strdeq	r0, [r0], -r8
     794:	000007c4 	andeq	r0, r0, r4, asr #15
     798:	0001421f 	andeq	r4, r1, pc, lsl r2
     79c:	0005b600 	andeq	fp, r5, r0, lsl #12
     7a0:	01371f00 	teqeq	r7, r0, lsl #30
     7a4:	05970000 	ldreq	r0, [r7]
     7a8:	fb220000 	blx	8807b2 <__bss_end__+0x87682a>
     7ac:	b4000000 	strlt	r0, [r0], #-0
     7b0:	f8000083 			; <UNDEFINED> instruction: 0xf8000083
     7b4:	01000001 	tsteq	r0, r1
     7b8:	01071f35 	tsteq	r7, r5, lsr pc
     7bc:	05970000 	ldreq	r0, [r7]
     7c0:	00000000 	andeq	r0, r0, r0
     7c4:	00011322 	andeq	r1, r1, r2, lsr #6
     7c8:	0083c400 	addeq	ip, r3, r0, lsl #8
     7cc:	00022000 	andeq	r2, r2, r0
     7d0:	1f370100 	svcne	0x00370100
     7d4:	0000011f 	andeq	r0, r0, pc, lsl r1
     7d8:	00000597 	muleq	r0, r7, r5
     7dc:	e4120000 	ldr	r0, [r2], #-0
     7e0:	04000083 	streq	r0, [r0], #-131	; 0x83
     7e4:	fb000000 	blx	7ee <_start-0x7812>
     7e8:	11000007 	tstne	r0, r7
     7ec:	0000024f 	andeq	r0, r0, pc, asr #4
     7f0:	002c8601 	eoreq	r8, ip, r1, lsl #12
     7f4:	05e20000 	strbeq	r0, [r2, #0]!
     7f8:	20000000 	andcs	r0, r0, r0
     7fc:	0000012b 	andeq	r0, r0, fp, lsr #2
     800:	000083f4 	strdeq	r8, [r0], -r4
     804:	00000240 	andeq	r0, r0, r0, asr #4
     808:	086f8701 	stmdaeq	pc!, {r0, r8, r9, sl, pc}^	; <UNPREDICTABLE>
     80c:	421f0000 	andsmi	r0, pc, #0
     810:	f5000001 			; <UNDEFINED> instruction: 0xf5000001
     814:	1f000005 	svcne	0x00000005
     818:	00000137 	andeq	r0, r0, r7, lsr r1
     81c:	0000060f 	andeq	r0, r0, pc, lsl #12
     820:	00025821 	andeq	r5, r2, r1, lsr #16
     824:	00085500 	andeq	r5, r8, r0, lsl #10
     828:	01421f00 	cmpeq	r2, r0, lsl #30
     82c:	05f50000 	ldrbeq	r0, [r5, #0]!
     830:	371f0000 	ldrcc	r0, [pc, -r0]
     834:	0f000001 	svceq	0x00000001
     838:	22000006 	andcs	r0, r0, #6
     83c:	000000fb 	strdeq	r0, [r0], -fp
     840:	000083f4 	strdeq	r8, [r0], -r4
     844:	00000258 	andeq	r0, r0, r8, asr r2
     848:	071f3501 	ldreq	r3, [pc, -r1, lsl #10]
     84c:	0f000001 	svceq	0x00000001
     850:	00000006 	andeq	r0, r0, r6
     854:	01132200 	tsteq	r3, r0, lsl #4
     858:	84040000 	strhi	r0, [r4], #-0
     85c:	02800000 	addeq	r0, r0, #0
     860:	37010000 	strcc	r0, [r1, -r0]
     864:	00011f1f 	andeq	r1, r1, pc, lsl pc
     868:	00060f00 	andeq	r0, r6, r0, lsl #30
     86c:	12000000 	andne	r0, r0, #0
     870:	00008424 	andeq	r8, r0, r4, lsr #8
     874:	00000004 	andeq	r0, r0, r4
     878:	0000088c 	andeq	r0, r0, ip, lsl #17
     87c:	00024f11 	andeq	r4, r2, r1, lsl pc
     880:	2c880100 	stfcss	f0, [r8], {0}
     884:	2e000000 	cdpcs	0, 0, cr0, cr0, cr0, {0}
     888:	00000006 	andeq	r0, r0, r6
     88c:	00012b20 	andeq	r2, r1, r0, lsr #22
     890:	00843400 	addeq	r3, r4, r0, lsl #8
     894:	0002a000 	andeq	sl, r2, r0
     898:	f8890100 			; <UNDEFINED> instruction: 0xf8890100
     89c:	23000008 	movwcs	r0, #8
     8a0:	00000142 	andeq	r0, r0, r2, asr #2
     8a4:	0001371f 	andeq	r3, r1, pc, lsl r7
     8a8:	00064100 	andeq	r4, r6, r0, lsl #2
     8ac:	02b82100 	adcseq	r2, r8, #0, 2
     8b0:	08de0000 	ldmeq	lr, {}^	; <UNPREDICTABLE>
     8b4:	42230000 	eormi	r0, r3, #0
     8b8:	1f000001 	svcne	0x00000001
     8bc:	00000137 	andeq	r0, r0, r7, lsr r1
     8c0:	00000641 	andeq	r0, r0, r1, asr #12
     8c4:	0000fb22 	andeq	pc, r0, r2, lsr #22
     8c8:	00843800 	addeq	r3, r4, r0, lsl #16
     8cc:	0002b800 	andeq	fp, r2, r0, lsl #16
     8d0:	1f350100 	svcne	0x00350100
     8d4:	00000107 	andeq	r0, r0, r7, lsl #2
     8d8:	00000641 	andeq	r0, r0, r1, asr #12
     8dc:	13220000 	teqne	r2, #0
     8e0:	44000001 	strmi	r0, [r0], #-1
     8e4:	e0000084 	and	r0, r0, r4, lsl #1
     8e8:	01000002 	tsteq	r0, r2
     8ec:	011f1f37 	tsteq	pc, r7, lsr pc	; <UNPREDICTABLE>
     8f0:	06410000 	strbeq	r0, [r1], -r0
     8f4:	00000000 	andeq	r0, r0, r0
     8f8:	00846412 	addeq	r6, r4, r2, lsl r4
     8fc:	00000400 	andeq	r0, r0, r0, lsl #8
     900:	00091500 	andeq	r1, r9, r0, lsl #10
     904:	024f1100 	subeq	r1, pc, #0, 2
     908:	8a010000 	bhi	40910 <__bss_end__+0x36988>
     90c:	0000002c 	andeq	r0, r0, ip, lsr #32
     910:	00000660 	andeq	r0, r0, r0, ror #12
     914:	00fb1e00 	rscseq	r1, fp, r0, lsl #28
     918:	84740000 	ldrbthi	r0, [r4], #-0
     91c:	00240000 	eoreq	r0, r4, r0
     920:	8b010000 	blhi	40928 <__bss_end__+0x369a0>
     924:	00000932 	andeq	r0, r0, r2, lsr r9
     928:	0001071f 	andeq	r0, r1, pc, lsl r7
     92c:	00067300 	andeq	r7, r6, r0, lsl #6
     930:	981b0000 	ldmdals	fp, {}	; <UNPREDICTABLE>
     934:	04000084 	streq	r0, [r0], #-132	; 0x84
     938:	11000000 	mrsne	r0, (UNDEF: 0)
     93c:	0000024f 	andeq	r0, r0, pc, asr #4
     940:	002c8c01 	eoreq	r8, ip, r1, lsl #24
     944:	06870000 	streq	r0, [r7], r0
     948:	00000000 	andeq	r0, r0, r0
     94c:	0002790d 	andeq	r7, r2, sp, lsl #18
     950:	2cad0100 	stfcss	f0, [sp]
     954:	b4000000 	strlt	r0, [r0], #-0
     958:	60000084 	andvs	r0, r0, r4, lsl #1
     95c:	01000004 	tsteq	r0, r4
     960:	000b559c 	muleq	fp, ip, r5
     964:	69700e00 	ldmdbvs	r0!, {r9, sl, fp}^
     968:	ad01006e 	stcge	0, cr0, [r1, #-440]	; 0xfffffe48
     96c:	0000002c 	andeq	r0, r0, ip, lsr #32
     970:	0000069a 	muleq	r0, sl, r6
     974:	01006c24 	tsteq	r0, r4, lsr #24
     978:	000b55ad 	andeq	r5, fp, sp, lsr #11
     97c:	18510100 	ldmdane	r1, {r8}^
     980:	00000208 	andeq	r0, r0, r8, lsl #4
     984:	002cad01 	eoreq	sl, ip, r1, lsl #26
     988:	06c60000 	strbeq	r0, [r6], r0
     98c:	f4180000 			; <UNDEFINED> instruction: 0xf4180000
     990:	01000002 	tsteq	r0, r2
     994:	00002cad 	andeq	r2, r0, sp, lsr #25
     998:	00070000 	andeq	r0, r7, r0
     99c:	01d81100 	bicseq	r1, r8, r0, lsl #2
     9a0:	ae010000 	cdpge	0, 0, cr0, cr1, cr0, {0}
     9a4:	0000002c 	andeq	r0, r0, ip, lsr #32
     9a8:	00000721 	andeq	r0, r0, r1, lsr #14
     9ac:	00030711 	andeq	r0, r3, r1, lsl r7
     9b0:	2caf0100 	stfcss	f0, [pc]	; 9b8 <_start-0x7648>
     9b4:	40000000 	andmi	r0, r0, r0
     9b8:	11000007 	tstne	r0, r7
     9bc:	000002be 			; <UNDEFINED> instruction: 0x000002be
     9c0:	002cb001 	eoreq	fp, ip, r1
     9c4:	07ab0000 	streq	r0, [fp, r0]!
     9c8:	361a0000 	ldrcc	r0, [sl], -r0
     9cc:	01000002 	tsteq	r0, r2
     9d0:	000b5bb1 			; <UNDEFINED> instruction: 0x000b5bb1
     9d4:	90910300 	addsls	r0, r1, r0, lsl #6
     9d8:	0031117f 	eorseq	r1, r1, pc, ror r1
     9dc:	b3010000 	movwlt	r0, #4096	; 0x1000
     9e0:	0000002c 	andeq	r0, r0, ip, lsr #32
     9e4:	00000816 	andeq	r0, r0, r6, lsl r8
     9e8:	00053711 	andeq	r3, r5, r1, lsl r7
     9ec:	2cb50100 	ldfcss	f0, [r5]
     9f0:	29000000 	stmdbcs	r0, {}	; <UNPREDICTABLE>
     9f4:	11000008 	tstne	r0, r8
     9f8:	000002e0 	andeq	r0, r0, r0, ror #5
     9fc:	002cba01 	eoreq	fp, ip, r1, lsl #20
     a00:	085f0000 	ldmdaeq	pc, {}^	; <UNPREDICTABLE>
     a04:	89250000 	stmdbhi	r5!, {}	; <UNPREDICTABLE>
     a08:	01000002 	tsteq	r0, r2
     a0c:	002c0105 	eoreq	r0, ip, r5, lsl #2
     a10:	08ad0000 	stmiaeq	sp!, {}	; <UNPREDICTABLE>
     a14:	dc120000 	ldcle	0, cr0, [r2], {-0}
     a18:	08000084 	stmdaeq	r0, {r2, r7}
     a1c:	33000000 	movwcc	r0, #0
     a20:	1100000a 	tstne	r0, sl
     a24:	0000024f 	andeq	r0, r0, pc, asr #4
     a28:	002cb901 	eoreq	fp, ip, r1, lsl #18
     a2c:	08290000 	stmdaeq	r9!, {}	; <UNPREDICTABLE>
     a30:	21000000 	mrscs	r0, (UNDEF: 0)
     a34:	00000300 	andeq	r0, r0, r0, lsl #6
     a38:	00000b0e 	andeq	r0, r0, lr, lsl #22
     a3c:	01006926 	tsteq	r0, r6, lsr #18
     a40:	000025ce 	andeq	r2, r0, lr, asr #11
     a44:	00099c00 	andeq	r9, r9, r0, lsl #24
     a48:	85081200 	strhi	r1, [r8, #-512]	; 0x200
     a4c:	00040000 	andeq	r0, r4, r0
     a50:	0a620000 	beq	1880a58 <__bss_end__+0x1876ad0>
     a54:	4f100000 	svcmi	0x00100000
     a58:	01000002 	tsteq	r0, r2
     a5c:	00002cd1 	ldrdeq	r2, [r0], -r1
     a60:	2c120000 	ldccs	0, cr0, [r2], {-0}
     a64:	04000085 	streq	r0, [r0], #-133	; 0x85
     a68:	7b000000 	blvc	a70 <_start-0x7590>
     a6c:	1000000a 	andne	r0, r0, sl
     a70:	0000024f 	andeq	r0, r0, pc, asr #4
     a74:	002cd701 	eoreq	sp, ip, r1, lsl #14
     a78:	12000000 	andne	r0, r0, #0
     a7c:	00008550 	andeq	r8, r0, r0, asr r5
     a80:	00000004 	andeq	r0, r0, r4
     a84:	00000a94 	muleq	r0, r4, sl
     a88:	00024f10 	andeq	r4, r2, r0, lsl pc
     a8c:	2cdd0100 	ldfcse	f0, [sp], {0}
     a90:	00000000 	andeq	r0, r0, r0
     a94:	00857412 	addeq	r7, r5, r2, lsl r4
     a98:	00000400 	andeq	r0, r0, r0, lsl #8
     a9c:	000aad00 	andeq	sl, sl, r0, lsl #26
     aa0:	024f1000 	subeq	r1, pc, #0
     aa4:	e3010000 	movw	r0, #4096	; 0x1000
     aa8:	0000002c 	andeq	r0, r0, ip, lsr #32
     aac:	85981200 	ldrhi	r1, [r8, #512]	; 0x200
     ab0:	00040000 	andeq	r0, r4, r0
     ab4:	0ac60000 	beq	ff180abc <__bss_end__+0xff176b34>
     ab8:	4f100000 	svcmi	0x00100000
     abc:	01000002 	tsteq	r0, r2
     ac0:	00002ce9 	andeq	r2, r0, r9, ror #25
     ac4:	bc120000 	ldclt	0, cr0, [r2], {-0}
     ac8:	04000085 	streq	r0, [r0], #-133	; 0x85
     acc:	df000000 	svcle	0x00000000
     ad0:	1000000a 	andne	r0, r0, sl
     ad4:	0000024f 	andeq	r0, r0, pc, asr #4
     ad8:	002cef01 	eoreq	lr, ip, r1, lsl #30
     adc:	12000000 	andne	r0, r0, #0
     ae0:	000085e0 	andeq	r8, r0, r0, ror #11
     ae4:	00000004 	andeq	r0, r0, r4
     ae8:	00000af8 	strdeq	r0, [r0], -r8
     aec:	00024f10 	andeq	r4, r2, r0, lsl pc
     af0:	2cf50100 	ldfcse	f0, [r5]
     af4:	00000000 	andeq	r0, r0, r0
     af8:	0086041b 	addeq	r0, r6, fp, lsl r4
     afc:	00000400 	andeq	r0, r0, r0, lsl #8
     b00:	024f1000 	subeq	r1, pc, #0
     b04:	fb010000 	blx	40b0e <__bss_end__+0x36b86>
     b08:	0000002c 	andeq	r0, r0, ip, lsr #32
     b0c:	18210000 	stmdane	r1!, {}	; <UNPREDICTABLE>
     b10:	26000003 	strcs	r0, [r0], -r3
     b14:	2700000b 	strcs	r0, [r0, -fp]
     b18:	06010061 	streq	r0, [r1], -r1, rrx
     b1c:	00002501 	andeq	r2, r0, r1, lsl #10
     b20:	0009b000 	andeq	fp, r9, r0
     b24:	38280000 	stmdacc	r8!, {}	; <UNPREDICTABLE>
     b28:	27000003 	strcs	r0, [r0, -r3]
     b2c:	0d01006a 	stceq	0, cr0, [r1, #-424]	; 0xfffffe58
     b30:	00002501 	andeq	r2, r0, r1, lsl #10
     b34:	0009cf00 	andeq	ip, r9, r0, lsl #30
     b38:	014c2900 	cmpeq	ip, r0, lsl #18
     b3c:	86680000 	strbthi	r0, [r8], -r0
     b40:	03500000 	cmpeq	r0, #0
     b44:	11010000 	mrsne	r0, (UNDEF: 1)
     b48:	015c1f01 	cmpeq	ip, r1, lsl #30
     b4c:	0b3e0000 	bleq	f80b54 <__bss_end__+0xf76bcc>
     b50:	00000000 	andeq	r0, r0, r0
     b54:	f0040500 			; <UNDEFINED> instruction: 0xf0040500
     b58:	16000000 	strne	r0, [r0], -r0
     b5c:	0000002c 	andeq	r0, r0, ip, lsr #32
     b60:	00000b6b 	andeq	r0, r0, fp, ror #22
     b64:	00007617 	andeq	r7, r0, r7, lsl r6
     b68:	2a001300 	bcs	5770 <_start-0x2890>
     b6c:	000001fb 	strdeq	r0, [r0], -fp
     b70:	14011901 	strne	r1, [r1], #-2305	; 0x901
     b74:	90000089 	andls	r0, r0, r9, lsl #1
     b78:	01000000 	mrseq	r0, (UNDEF: 0)
     b7c:	000c589c 	muleq	ip, ip, r8
     b80:	006c2b00 	rsbeq	r2, ip, r0, lsl #22
     b84:	55011901 	strpl	r1, [r1, #-2305]	; 0x901
     b88:	d400000b 	strle	r0, [r0], #-11
     b8c:	2b00000d 	blcs	bc8 <_start-0x7438>
     b90:	1901006e 	stmdbne	r1, {r1, r2, r3, r5, r6}
     b94:	00002c01 	andeq	r2, r0, r1, lsl #24
     b98:	000e0000 	andeq	r0, lr, r0
     b9c:	00472c00 	subeq	r2, r7, r0, lsl #24
     ba0:	19010000 	stmdbne	r1, {}	; <UNPREDICTABLE>
     ba4:	00002c01 	andeq	r2, r0, r1, lsl #24
     ba8:	000e2e00 	andeq	r2, lr, r0, lsl #28
     bac:	6f742700 	svcvs	0x00742700
     bb0:	1a010074 	bne	40d88 <__bss_end__+0x36e00>
     bb4:	00002c01 	andeq	r2, r0, r1, lsl #24
     bb8:	000e5a00 	andeq	r5, lr, r0, lsl #20
     bbc:	008c2500 	addeq	r2, ip, r0, lsl #10
     bc0:	1a010000 	bne	40bc8 <__bss_end__+0x36c40>
     bc4:	00002c01 	andeq	r2, r0, r1, lsl #24
     bc8:	000e7900 	andeq	r7, lr, r0, lsl #18
     bcc:	03a82800 			; <UNDEFINED> instruction: 0x03a82800
     bd0:	69270000 	stmdbvs	r7!, {}	; <UNPREDICTABLE>
     bd4:	011c0100 	tsteq	ip, r0, lsl #2
     bd8:	00000025 	andeq	r0, r0, r5, lsr #32
     bdc:	00000e98 	muleq	r0, r8, lr
     be0:	00894c1b 	addeq	r4, r9, fp, lsl ip
     be4:	00004000 	andeq	r4, r0, r0
     be8:	00652700 	rsbeq	r2, r5, r0, lsl #14
     bec:	55011d01 	strpl	r1, [r1, #-3329]	; 0xd01
     bf0:	da00000b 	ble	c24 <_start-0x73dc>
     bf4:	2500000e 	strcs	r0, [r0, #-14]
     bf8:	00000254 	andeq	r0, r0, r4, asr r2
     bfc:	2c011f01 	stccs	15, cr1, [r1], {1}
     c00:	fd000000 	stc2	0, cr0, [r0, #-0]
     c04:	2700000e 	strcs	r0, [r0, -lr]
     c08:	00707865 	rsbseq	r7, r0, r5, ror #16
     c0c:	2c012201 	sfmcs	f2, 4, [r1], {1}
     c10:	10000000 	andne	r0, r0, r0
     c14:	2700000f 	strcs	r0, [r0, -pc]
     c18:	00727265 	rsbseq	r7, r2, r5, ror #4
     c1c:	2c012301 	stccs	3, cr2, [r1], {1}
     c20:	23000000 	movwcs	r0, #0
     c24:	2d00000f 	stccs	0, cr0, [r0, #-60]	; 0xffffffc4
     c28:	0000898c 	andeq	r8, r0, ip, lsl #19
     c2c:	00000f21 	andeq	r0, r0, r1, lsr #30
     c30:	02510114 	subseq	r0, r1, #20, 2
     c34:	01147f77 	tsteq	r4, r7, ror pc
     c38:	18030550 	stmdane	r3, {r4, r6, r8, sl}
     c3c:	1400009a 	strne	r0, [r0], #-154	; 0x9a
     c40:	020c7d02 	andeq	r7, ip, #2, 26	; 0x80
     c44:	02140076 	andseq	r0, r4, #118	; 0x76
     c48:	7402047d 	strvc	r0, [r2], #-1149	; 0x47d
     c4c:	7d021400 	cfstrsvc	mvf1, [r2, #-0]
     c50:	00750200 	rsbseq	r0, r5, r0, lsl #4
     c54:	00000000 	andeq	r0, r0, r0
     c58:	0002452a 	andeq	r4, r2, sl, lsr #10
     c5c:	012a0100 	teqeq	sl, r0, lsl #2
     c60:	000089a4 	andeq	r8, r0, r4, lsr #19
     c64:	000000a0 	andeq	r0, r0, r0, lsr #1
     c68:	0d089c01 	stceq	12, cr9, [r8, #-4]
     c6c:	6c2b0000 	stcvs	0, cr0, [fp], #-0
     c70:	012a0100 	teqeq	sl, r0, lsl #2
     c74:	00000b55 	andeq	r0, r0, r5, asr fp
     c78:	00000f42 	andeq	r0, r0, r2, asr #30
     c7c:	01006e2b 	tsteq	r0, fp, lsr #28
     c80:	002c012a 	eoreq	r0, ip, sl, lsr #2
     c84:	0f950000 	svceq	0x00950000
     c88:	a41b0000 	ldrge	r0, [fp], #-0
     c8c:	a0000089 	andge	r0, r0, r9, lsl #1
     c90:	27000000 	strcs	r0, [r0, -r0]
     c94:	2b010069 	blcs	40e40 <__bss_end__+0x36eb8>
     c98:	00002501 	andeq	r2, r0, r1, lsl #10
     c9c:	000fc300 	andeq	ip, pc, r0, lsl #6
     ca0:	03c82800 	biceq	r2, r8, #0, 16
     ca4:	65270000 	strvs	r0, [r7, #-0]!
     ca8:	012c0100 	teqeq	ip, r0, lsl #2
     cac:	00000b55 	andeq	r0, r0, r5, asr fp
     cb0:	00000ff8 	strdeq	r0, [r0], -r8
     cb4:	00025425 	andeq	r5, r2, r5, lsr #8
     cb8:	012e0100 	teqeq	lr, r0, lsl #2
     cbc:	0000002c 	andeq	r0, r0, ip, lsr #32
     cc0:	00001012 	andeq	r1, r0, r2, lsl r0
     cc4:	008a042e 	addeq	r0, sl, lr, lsr #8
     cc8:	000f2100 	andeq	r2, pc, r0, lsl #2
     ccc:	000cdb00 	andeq	sp, ip, r0, lsl #22
     cd0:	50011400 	andpl	r1, r1, r0, lsl #8
     cd4:	9a540305 	bls	15018f0 <__bss_end__+0x14f7968>
     cd8:	2e000000 	cdpcs	0, 0, cr0, cr0, cr0, {0}
     cdc:	00008a1c 	andeq	r8, r0, ip, lsl sl
     ce0:	00000f21 	andeq	r0, r0, r1, lsr #30
     ce4:	00000cf2 	strdeq	r0, [r0], -r2
     ce8:	05500114 	ldrbeq	r0, [r0, #-276]	; 0x114
     cec:	009a6803 	addseq	r6, sl, r3, lsl #16
     cf0:	342f0000 	strtcc	r0, [pc], #-0	; cf8 <_start-0x7308>
     cf4:	2100008a 	smlabbcs	r0, sl, r0, r0
     cf8:	1400000f 	strne	r0, [r0], #-15
     cfc:	03055001 	movweq	r5, #20481	; 0x5001
     d00:	00009a5c 	andeq	r9, r0, ip, asr sl
     d04:	00000000 	andeq	r0, r0, r0
     d08:	0000bd2a 	andeq	fp, r0, sl, lsr #26
     d0c:	01470100 	mrseq	r0, (UNDEF: 87)
     d10:	00008a44 	andeq	r8, r0, r4, asr #20
     d14:	00000060 	andeq	r0, r0, r0, rrx
     d18:	0df59c01 	ldcleq	12, cr9, [r5, #4]!
     d1c:	70300000 	eorsvc	r0, r0, r0
     d20:	01006e69 	tsteq	r0, r9, ror #28
     d24:	00250148 	eoreq	r0, r5, r8, asr #2
     d28:	31150000 	tstcc	r5, r0
     d2c:	00676f6c 	rsbeq	r6, r7, ip, ror #30
     d30:	f5014e01 			; <UNDEFINED> instruction: 0xf5014e01
     d34:	0300000d 	movweq	r0, #13
     d38:	277ed091 			; <UNDEFINED> instruction: 0x277ed091
     d3c:	5001006e 	andpl	r0, r1, lr, rrx
     d40:	00002c01 	andeq	r2, r0, r1, lsl #24
     d44:	0010a000 	andseq	sl, r0, r0
     d48:	8a581200 	bhi	1605550 <__bss_end__+0x15fb5c8>
     d4c:	00080000 	andeq	r0, r8, r0
     d50:	0d630000 	stcleq	0, cr0, [r3, #-0]
     d54:	69300000 	ldmdbvs	r0!, {}	; <UNPREDICTABLE>
     d58:	4b01006e 	blmi	40f18 <__bss_end__+0x36f90>
     d5c:	00002c01 	andeq	r2, r0, r1, lsl #24
     d60:	15000100 	strne	r0, [r0, #-256]	; 0x100
     d64:	00008a50 	andeq	r8, r0, r0, asr sl
     d68:	00000f3e 	andeq	r0, r0, lr, lsr pc
     d6c:	008a5813 	addeq	r5, sl, r3, lsl r8
     d70:	000f4500 	andeq	r4, pc, r0, lsl #10
     d74:	000d7f00 	andeq	r7, sp, r0, lsl #30
     d78:	50011400 	andpl	r1, r1, r0, lsl #8
     d7c:	13004501 	movwne	r4, #1281	; 0x501
     d80:	00008a68 	andeq	r8, r0, r8, ror #20
     d84:	00000166 	andeq	r0, r0, r6, ror #2
     d88:	00000d92 	muleq	r0, r2, sp
     d8c:	01500114 	cmpeq	r0, r4, lsl r1
     d90:	7c130031 	ldcvc	0, cr0, [r3], {49}	; 0x31
     d94:	4c00008a 	stcmi	0, cr0, [r0], {138}	; 0x8a
     d98:	b0000009 	andlt	r0, r0, r9
     d9c:	1400000d 	strne	r0, [r0], #-13
     da0:	44015201 	strmi	r5, [r1], #-513	; 0x201
     da4:	02510114 	subseq	r0, r1, #20, 2
     da8:	0114007d 	tsteq	r4, sp, ror r0
     dac:	00450150 	subeq	r0, r5, r0, asr r1
     db0:	008a9013 	addeq	r9, sl, r3, lsl r0
     db4:	000b6b00 	andeq	r6, fp, r0, lsl #22
     db8:	000dd100 	andeq	sp, sp, r0, lsl #2
     dbc:	52011400 	andpl	r1, r1, #0, 8
     dc0:	17700a03 	ldrbne	r0, [r0, -r3, lsl #20]!
     dc4:	02510114 	subseq	r0, r1, #20, 2
     dc8:	01140074 	tsteq	r4, r4, ror r0
     dcc:	007d0250 	rsbseq	r0, sp, r0, asr r2
     dd0:	8a9c1300 	bhi	fe7059d8 <__bss_end__+0xfe6fba50>
     dd4:	0c580000 	mraeq	r0, r8, acc0
     dd8:	0deb0000 	stcleq	0, cr0, [fp]
     ddc:	01140000 	tsteq	r4, r0
     de0:	00740251 	rsbseq	r0, r4, r1, asr r2
     de4:	02500114 	subseq	r0, r0, #20, 2
     de8:	1500007d 	strne	r0, [r0, #-125]	; 0x7d
     dec:	00008aa0 	andeq	r8, r0, r0, lsr #21
     df0:	00000f37 	andeq	r0, r0, r7, lsr pc
     df4:	00f01600 	rscseq	r1, r0, r0, lsl #12
     df8:	0e050000 	cdpeq	0, 0, cr0, cr5, cr0, {0}
     dfc:	76170000 	ldrvc	r0, [r7], -r0
     e00:	14000000 	strne	r0, [r0], #-0
     e04:	020e3200 	andeq	r3, lr, #0, 4
     e08:	07010000 	streq	r0, [r1, -r0]
     e0c:	00000e14 	andeq	r0, r0, r4, lsl lr
     e10:	20200000 	eorcs	r0, r0, r0
     e14:	0e1a0405 	cfmulseq	mvf0, mvf10, mvf5
     e18:	2c330000 	ldccs	0, cr0, [r3], #-0
     e1c:	32000000 	andcc	r0, r0, #0
     e20:	000002ae 	andeq	r0, r0, lr, lsr #5
     e24:	0e140801 	cdpeq	8, 1, cr0, cr4, cr1, {0}
     e28:	001c0000 	andseq	r0, ip, r0
     e2c:	10322020 	eorsne	r2, r2, r0, lsr #32
     e30:	01000000 	mrseq	r0, (UNDEF: 0)
     e34:	000e1409 	andeq	r1, lr, r9, lsl #8
     e38:	20002800 	andcs	r2, r0, r0, lsl #16
     e3c:	01543220 	cmpeq	r4, r0, lsr #4
     e40:	0b010000 	bleq	40e48 <__bss_end__+0x36ec0>
     e44:	00000e14 	andeq	r0, r0, r4, lsl lr
     e48:	20200000 	eorcs	r0, r0, r0
     e4c:	00000032 	andeq	r0, r0, r2, lsr r0
     e50:	140c0100 	strne	r0, [ip], #-256	; 0x100
     e54:	0400000e 	streq	r0, [r0], #-14
     e58:	32202000 	eorcc	r2, r0, #0
     e5c:	00000008 	andeq	r0, r0, r8
     e60:	0e140d01 	cdpeq	13, 1, cr0, cr4, cr1, {0}
     e64:	00080000 	andeq	r0, r8, r0
     e68:	b3322020 	teqlt	r2, #32
     e6c:	01000001 	tsteq	r0, r1
     e70:	000e140e 	andeq	r1, lr, lr, lsl #8
     e74:	20000c00 	andcs	r0, r0, r0, lsl #24
     e78:	01bb3220 			; <UNDEFINED> instruction: 0x01bb3220
     e7c:	0f010000 	svceq	0x00010000
     e80:	00000e14 	andeq	r0, r0, r4, lsl lr
     e84:	20200010 	eorcs	r0, r0, r0, lsl r0
     e88:	0001c332 	andeq	ip, r1, r2, lsr r3
     e8c:	14100100 	ldrne	r0, [r0], #-256	; 0x100
     e90:	1400000e 	strne	r0, [r0], #-14
     e94:	32202000 	eorcc	r2, r0, #0
     e98:	000000a1 	andeq	r0, r0, r1, lsr #1
     e9c:	0ea61201 	cdpeq	2, 10, cr1, cr6, cr1, {0}
     ea0:	001c0000 	andseq	r0, ip, r0
     ea4:	14062020 	strne	r2, [r6], #-32
     ea8:	3200000e 	andcc	r0, r0, #14
     eac:	000000a8 	andeq	r0, r0, r8, lsr #1
     eb0:	0e141301 	cdpeq	3, 1, cr1, cr4, cr1, {0}
     eb4:	00200000 	eoreq	r0, r0, r0
     eb8:	1a322020 	bne	c88f40 <__bss_end__+0xc7efb8>
     ebc:	01000000 	mrseq	r0, (UNDEF: 0)
     ec0:	000ec915 	andeq	ip, lr, r5, lsl r9
     ec4:	20002800 	andcs	r2, r0, r0, lsl #16
     ec8:	0e140620 	cfmsub32eq	mvax1, mvfx0, mvfx4, mvfx0
     ecc:	19320000 	ldmdbne	r2!, {}	; <UNPREDICTABLE>
     ed0:	01000002 	tsteq	r0, r2
     ed4:	000e1416 	andeq	r1, lr, r6, lsl r4
     ed8:	20002c00 	andcs	r2, r0, r0, lsl #24
     edc:	00af3220 	adceq	r3, pc, r0, lsr #4
     ee0:	18010000 	stmdane	r1, {}	; <UNPREDICTABLE>
     ee4:	00000eec 	andeq	r0, r0, ip, ror #29
     ee8:	20200034 	eorcs	r0, r0, r4, lsr r0
     eec:	000e1406 	andeq	r1, lr, r6, lsl #8
     ef0:	00b63200 	adcseq	r3, r6, r0, lsl #4
     ef4:	19010000 	stmdbne	r1, {}	; <UNPREDICTABLE>
     ef8:	00000e14 	andeq	r0, r0, r4, lsl lr
     efc:	20200038 	eorcs	r0, r0, r8, lsr r0
     f00:	01007534 	tsteq	r0, r4, lsr r5
     f04:	0000c621 	andeq	ip, r0, r1, lsr #12
     f08:	02913500 	addseq	r3, r1, #0, 10
     f0c:	50030000 	andpl	r0, r3, r0
     f10:	00000f1a 	andeq	r0, r0, sl, lsl pc
     f14:	00002c36 	andeq	r2, r0, r6, lsr ip
     f18:	45370000 	ldrmi	r0, [r7, #-0]!
     f1c:	03000001 	movweq	r0, #1
     f20:	039e381e 	orrseq	r3, lr, #1966080	; 0x1e0000
     f24:	29030000 	stmdbcs	r3, {}	; <UNPREDICTABLE>
     f28:	00000025 	andeq	r0, r0, r5, lsr #32
     f2c:	00000f37 	andeq	r0, r0, r7, lsr pc
     f30:	00008436 	andeq	r8, r0, r6, lsr r4
     f34:	37003900 	strcc	r3, [r0, -r0, lsl #18]
     f38:	00000220 	andeq	r0, r0, r0, lsr #4
     f3c:	e7376603 	ldr	r6, [r7, -r3, lsl #12]!
     f40:	03000002 	movweq	r0, #2
     f44:	02cc3a8e 	sbceq	r3, ip, #581632	; 0x8e000
     f48:	1c040000 	stcne	0, cr0, [r4], {-0}
     f4c:	00002c36 	andeq	r2, r0, r6, lsr ip
     f50:	91000000 	mrsls	r0, (UNDEF: 0)
     f54:	04000001 	streq	r0, [r0], #-1
     f58:	00032b00 	andeq	r2, r3, r0, lsl #22
     f5c:	44010400 	strmi	r0, [r1], #-1024	; 0x400
     f60:	01000003 	tsteq	r0, r3
     f64:	00000336 	andeq	r0, r0, r6, lsr r3
     f68:	000003af 	andeq	r0, r0, pc, lsr #7
     f6c:	00008aa4 	andeq	r8, r0, r4, lsr #21
     f70:	00000058 	andeq	r0, r0, r8, asr r0
     f74:	000003b1 			; <UNDEFINED> instruction: 0x000003b1
     f78:	00032702 	andeq	r2, r3, r2, lsl #14
     f7c:	30280200 	eorcc	r0, r8, r0, lsl #4
     f80:	03000000 	movweq	r0, #0
     f84:	000003a5 	andeq	r0, r0, r5, lsr #7
     f88:	47000304 	strmi	r0, [r0, -r4, lsl #6]
     f8c:	04000000 	streq	r0, [r0], #-0
     f90:	000003f8 	strdeq	r0, [r0], -r8
     f94:	00000047 	andeq	r0, r0, r7, asr #32
     f98:	04050000 	streq	r0, [r5], #-0
     f9c:	0003a702 	andeq	sl, r3, r2, lsl #14
     fa0:	25620200 	strbcs	r0, [r2, #-512]!	; 0x200
     fa4:	06000000 	streq	r0, [r0], -r0
     fa8:	6e690504 	cdpvs	5, 6, cr0, cr9, cr4, {0}
     fac:	04070074 	streq	r0, [r7], #-116	; 0x74
     fb0:	00005807 	andeq	r5, r0, r7, lsl #16
     fb4:	06010700 	streq	r0, [r1], -r0, lsl #14
     fb8:	0000026d 	andeq	r0, r0, sp, ror #4
     fbc:	7f050207 	svcvc	0x00050207
     fc0:	07000002 	streq	r0, [r0, -r2]
     fc4:	00830504 	addeq	r0, r3, r4, lsl #10
     fc8:	08070000 	stmdaeq	r7, {}	; <UNPREDICTABLE>
     fcc:	00007e05 	andeq	r7, r0, r5, lsl #28
     fd0:	08010700 	stmdaeq	r1, {r8, r9, sl}
     fd4:	0000026b 	andeq	r0, r0, fp, ror #4
     fd8:	e8070207 	stmda	r7, {r0, r1, r2, r9}
     fdc:	07000001 	streq	r0, [r0, -r1]
     fe0:	00530704 	subseq	r0, r3, r4, lsl #14
     fe4:	08070000 	stmdaeq	r7, {}	; <UNPREDICTABLE>
     fe8:	00004e07 	andeq	r4, r0, r7, lsl #28
     fec:	07040700 	streq	r0, [r4, -r0, lsl #14]
     ff0:	0000022d 	andeq	r0, r0, sp, lsr #4
     ff4:	00a70408 	adceq	r0, r7, r8, lsl #8
     ff8:	01070000 	mrseq	r0, (UNDEF: 7)
     ffc:	00027408 	andeq	r7, r2, r8, lsl #8
    1000:	b4040800 	strlt	r0, [r4], #-2048	; 0x800
    1004:	09000000 	stmdbeq	r0, {}	; <UNPREDICTABLE>
    1008:	000000a7 	andeq	r0, r0, r7, lsr #1
    100c:	00039e0a 	andeq	r9, r3, sl, lsl #28
    1010:	54060100 	strpl	r0, [r6], #-256	; 0x100
    1014:	a4000000 	strge	r0, [r0], #-0
    1018:	5800008a 	stmdapl	r0, {r1, r3, r7}
    101c:	01000000 	mrseq	r0, (UNDEF: 0)
    1020:	0001439c 	muleq	r1, ip, r3
    1024:	6d660b00 	vstmdbvs	r6!, {d16-d15}
    1028:	06010074 			; <UNDEFINED> instruction: 0x06010074
    102c:	000000ae 	andeq	r0, r0, lr, lsr #1
    1030:	0c709102 	ldfeqp	f1, [r0], #-8
    1034:	6675620d 	ldrbtvs	r6, [r5], -sp, lsl #4
    1038:	43080100 	movwmi	r0, #33024	; 0x8100
    103c:	05000001 	streq	r0, [r0, #-1]
    1040:	009b8403 	addseq	r8, fp, r3, lsl #8
    1044:	03f30e00 	mvnseq	r0, #0, 28
    1048:	09010000 	stmdbeq	r1, {}	; <UNPREDICTABLE>
    104c:	00000049 	andeq	r0, r0, r9, asr #32
    1050:	0f5c9102 	svceq	0x005c9102
    1054:	01007a73 	tsteq	r0, r3, ror sl
    1058:	0000540c 	andeq	r5, r0, ip, lsl #8
    105c:	0010c900 	andseq	ip, r0, r0, lsl #18
    1060:	8acc1000 	bhi	ff305068 <__bss_end__+0xff2fb0e0>
    1064:	01740000 	cmneq	r4, r0
    1068:	01360000 	teqeq	r6, r0
    106c:	01110000 	tsteq	r1, r0
    1070:	4c910253 	lfmmi	f0, 4, [r1], {83}	; 0x53
    1074:	03520111 	cmpeq	r2, #1073741828	; 0x40000004
    1078:	11064891 			; <UNDEFINED> instruction: 0x11064891
    107c:	0a035101 	beq	d5488 <__bss_end__+0xcb500>
    1080:	01110400 	tsteq	r1, r0, lsl #8
    1084:	00740250 	rsbseq	r0, r4, r0, asr r2
    1088:	8ae01200 	bhi	ff805890 <__bss_end__+0xff7fb908>
    108c:	01110000 	tsteq	r1, r0
    1090:	00740250 	rsbseq	r0, r4, r0, asr r2
    1094:	a7130000 	ldrge	r0, [r3, -r0]
    1098:	54000000 	strpl	r0, [r0], #-0
    109c:	14000001 	strne	r0, [r0], #-1
    10a0:	0000009a 	muleq	r0, sl, r0
    10a4:	150003ff 	strne	r0, [r0, #-1023]	; 0x3ff
    10a8:	00000054 	andeq	r0, r0, r4, asr r0
    10ac:	00000163 	andeq	r0, r0, r3, ror #2
    10b0:	0000ae16 	andeq	sl, r0, r6, lsl lr
    10b4:	55170000 	ldrpl	r0, [r7, #-0]
    10b8:	04000004 	streq	r0, [r0], #-4
    10bc:	00016e22 	andeq	r6, r1, r2, lsr #28
    10c0:	54040800 	strpl	r0, [r4], #-2048	; 0x800
    10c4:	18000001 	stmdane	r0, {r0}
    10c8:	0000039b 	muleq	r0, fp, r3
    10cc:	00540205 	subseq	r0, r4, r5, lsl #4
    10d0:	a1160000 	tstge	r6, r0
    10d4:	16000000 	strne	r0, [r0], -r0
    10d8:	00000054 	andeq	r0, r0, r4, asr r0
    10dc:	0000ae16 	andeq	sl, r0, r6, lsl lr
    10e0:	00491600 	subeq	r1, r9, r0, lsl #12
    10e4:	00000000 	andeq	r0, r0, r0
    10e8:	00000113 	andeq	r0, r0, r3, lsl r1
    10ec:	045c0004 	ldrbeq	r0, [ip], #-4
    10f0:	01040000 	mrseq	r0, (UNDEF: 4)
    10f4:	00000344 	andeq	r0, r0, r4, asr #6
    10f8:	00042401 	andeq	r2, r4, r1, lsl #8
    10fc:	0003af00 	andeq	sl, r3, r0, lsl #30
    1100:	008afc00 	addeq	pc, sl, r0, lsl #24
    1104:	00003c00 	andeq	r3, r0, r0, lsl #24
    1108:	0004b700 	andeq	fp, r4, r0, lsl #14
    110c:	05040200 	streq	r0, [r4, #-512]	; 0x200
    1110:	00746e69 	rsbseq	r6, r4, r9, ror #28
    1114:	58070403 	stmdapl	r7, {r0, r1, sl}
    1118:	03000000 	movweq	r0, #0
    111c:	026d0601 	rsbeq	r0, sp, #1048576	; 0x100000
    1120:	02030000 	andeq	r0, r3, #0
    1124:	00027f05 	andeq	r7, r2, r5, lsl #30
    1128:	05040300 	streq	r0, [r4, #-768]	; 0x300
    112c:	00000083 	andeq	r0, r0, r3, lsl #1
    1130:	7e050803 	cdpvc	8, 0, cr0, cr5, cr3, {0}
    1134:	03000000 	movweq	r0, #0
    1138:	026b0801 	rsbeq	r0, fp, #65536	; 0x10000
    113c:	02030000 	andeq	r0, r3, #0
    1140:	0001e807 	andeq	lr, r1, r7, lsl #16
    1144:	07040300 	streq	r0, [r4, -r0, lsl #6]
    1148:	00000053 	andeq	r0, r0, r3, asr r0
    114c:	4e070803 	cdpmi	8, 0, cr0, cr7, cr3, {0}
    1150:	03000000 	movweq	r0, #0
    1154:	022d0704 	eoreq	r0, sp, #4, 14	; 0x100000
    1158:	01030000 	mrseq	r0, (UNDEF: 3)
    115c:	00027408 	andeq	r7, r2, r8, lsl #8
    1160:	04070400 	streq	r0, [r7], #-1024	; 0x400
    1164:	03010000 	movweq	r0, #4096	; 0x1000
    1168:	00000025 	andeq	r0, r0, r5, lsr #32
    116c:	00008afc 	strdeq	r8, [r0], -ip
    1170:	00000014 	andeq	r0, r0, r4, lsl r0
    1174:	00b09c01 	adcseq	r9, r0, r1, lsl #24
    1178:	63050000 	movwvs	r0, #20480	; 0x5000
    117c:	25030100 	strcs	r0, [r3, #-256]	; 0x100
    1180:	f2000000 	vhadd.s8	d0, d0, d0
    1184:	06000010 			; <UNDEFINED> instruction: 0x06000010
    1188:	00008b08 	andeq	r8, r0, r8, lsl #22
    118c:	00000109 	andeq	r0, r0, r9, lsl #2
    1190:	02500107 	subseq	r0, r0, #-1073741823	; 0xc0000001
    1194:	00000074 	andeq	r0, r0, r4, ror r0
    1198:	00014508 	andeq	r4, r1, r8, lsl #10
    119c:	10080100 	andne	r0, r8, r0, lsl #2
    11a0:	1800008b 	stmdane	r0, {r0, r1, r3, r7}
    11a4:	01000000 	mrseq	r0, (UNDEF: 0)
    11a8:	0433099c 	ldrteq	r0, [r3], #-2460	; 0x99c
    11ac:	0b010000 	bleq	411b4 <__bss_end__+0x3722c>
    11b0:	00008b28 	andeq	r8, r0, r8, lsr #22
    11b4:	00000010 	andeq	r0, r0, r0, lsl r0
    11b8:	00e39c01 	rsceq	r9, r3, r1, lsl #24
    11bc:	660a0000 	strvs	r0, [sl], -r0
    11c0:	0b010070 	bleq	41388 <__bss_end__+0x37400>
    11c4:	000000f2 	strdeq	r0, [r0], -r2
    11c8:	0b005001 	bleq	151d4 <__bss_end__+0xb24c>
    11cc:	00000025 	andeq	r0, r0, r5, lsr #32
    11d0:	000000f2 	strdeq	r0, [r0], -r2
    11d4:	0000250c 	andeq	r2, r0, ip, lsl #10
    11d8:	040d0000 	streq	r0, [sp], #-0
    11dc:	000000e3 	andeq	r0, r0, r3, ror #1
    11e0:	0004180e 	andeq	r1, r4, lr, lsl #16
    11e4:	f2060100 	vrhadd.s8	d0, d6, d0
    11e8:	05000000 	streq	r0, [r0, #-0]
    11ec:	00993403 	addseq	r3, r9, r3, lsl #8
    11f0:	03fd0f00 	mvnseq	r0, #0, 30
    11f4:	3c020000 	stccc	0, cr0, [r2], {-0}
    11f8:	00002c0c 	andeq	r2, r0, ip, lsl #24
    11fc:	ee000000 	cdp	0, 0, cr0, cr0, cr0, {0}
    1200:	04000000 	streq	r0, [r0], #-0
    1204:	00054400 	andeq	r4, r5, r0, lsl #8
    1208:	44010400 	strmi	r0, [r1], #-1024	; 0x400
    120c:	01000003 	tsteq	r0, r3
    1210:	00000440 	andeq	r0, r0, r0, asr #8
    1214:	000003af 	andeq	r0, r0, pc, lsr #7
    1218:	00008b38 	andeq	r8, r0, r8, lsr fp
    121c:	00000034 	andeq	r0, r0, r4, lsr r0
    1220:	00000545 	andeq	r0, r0, r5, asr #10
    1224:	69050402 	stmdbvs	r5, {r1, sl}
    1228:	0300746e 	movweq	r7, #1134	; 0x46e
    122c:	00580704 	subseq	r0, r8, r4, lsl #14
    1230:	01030000 	mrseq	r0, (UNDEF: 3)
    1234:	00026d06 	andeq	r6, r2, r6, lsl #26
    1238:	05020300 	streq	r0, [r2, #-768]	; 0x300
    123c:	0000027f 	andeq	r0, r0, pc, ror r2
    1240:	83050403 	movwhi	r0, #21507	; 0x5403
    1244:	03000000 	movweq	r0, #0
    1248:	007e0508 	rsbseq	r0, lr, r8, lsl #10
    124c:	01030000 	mrseq	r0, (UNDEF: 3)
    1250:	00026b08 	andeq	r6, r2, r8, lsl #22
    1254:	07020300 	streq	r0, [r2, -r0, lsl #6]
    1258:	000001e8 	andeq	r0, r0, r8, ror #3
    125c:	53070403 	movwpl	r0, #29699	; 0x7403
    1260:	03000000 	movweq	r0, #0
    1264:	004e0708 	subeq	r0, lr, r8, lsl #14
    1268:	04030000 	streq	r0, [r3], #-0
    126c:	00022d07 	andeq	r2, r2, r7, lsl #26
    1270:	08010300 	stmdaeq	r1, {r8, r9}
    1274:	00000274 	andeq	r0, r0, r4, ror r2
    1278:	007f0404 	rsbseq	r0, pc, r4, lsl #8
    127c:	72050000 	andvc	r0, r5, #0
    1280:	06000000 	streq	r0, [r0], -r0
    1284:	0000044c 	andeq	r0, r0, ip, asr #8
    1288:	00250401 	eoreq	r0, r5, r1, lsl #8
    128c:	8b380000 	blhi	e01294 <__bss_end__+0xdf730c>
    1290:	00340000 	eorseq	r0, r4, r0
    1294:	9c010000 	stcls	0, cr0, [r1], {-0}
    1298:	000000ab 	andeq	r0, r0, fp, lsr #1
    129c:	01007007 	tsteq	r0, r7
    12a0:	00007904 	andeq	r7, r0, r4, lsl #18
    12a4:	00111000 	andseq	r1, r1, r0
    12a8:	25080000 	strcs	r0, [r8, #-0]
    12ac:	ba000000 	blt	12b4 <_start-0x6d4c>
    12b0:	09000000 	stmdbeq	r0, {}	; <UNPREDICTABLE>
    12b4:	00000025 	andeq	r0, r0, r5, lsr #32
    12b8:	04180a00 	ldreq	r0, [r8], #-2560	; 0xa00
    12bc:	1d020000 	stcne	0, cr0, [r2, #-0]
    12c0:	000000c5 	andeq	r0, r0, r5, asr #1
    12c4:	00ab0404 	adceq	r0, fp, r4, lsl #8
    12c8:	25080000 	strcs	r0, [r8, #-0]
    12cc:	da000000 	ble	12d4 <_start-0x6d2c>
    12d0:	09000000 	stmdbeq	r0, {}	; <UNPREDICTABLE>
    12d4:	00000079 	andeq	r0, r0, r9, ror r0
    12d8:	04550b00 	ldrbeq	r0, [r5], #-2816	; 0xb00
    12dc:	0c010000 	stceq	0, cr0, [r1], {-0}
    12e0:	000000eb 	andeq	r0, r0, fp, ror #1
    12e4:	99380305 	ldmdbls	r8!, {r0, r2, r8, r9}
    12e8:	04040000 	streq	r0, [r4], #-0
    12ec:	000000cb 	andeq	r0, r0, fp, asr #1
    12f0:	00068100 	andeq	r8, r6, r0, lsl #2
    12f4:	dd000400 	cfstrsle	mvf0, [r0, #-0]
    12f8:	04000005 	streq	r0, [r0], #-5
    12fc:	00034401 	andeq	r4, r3, r1, lsl #8
    1300:	04860100 	streq	r0, [r6], #256	; 0x100
    1304:	03af0000 			; <UNDEFINED> instruction: 0x03af0000
    1308:	8b6c0000 	blhi	1b01310 <__bss_end__+0x1af7388>
    130c:	04f80000 	ldrbteq	r0, [r8], #0
    1310:	05df0000 	ldrbeq	r0, [pc]	; 1318 <_start-0x6ce8>
    1314:	04020000 	streq	r0, [r2], #-0
    1318:	746e6905 	strbtvc	r6, [lr], #-2309	; 0x905
    131c:	07040300 	streq	r0, [r4, -r0, lsl #6]
    1320:	00000058 	andeq	r0, r0, r8, asr r0
    1324:	6d060103 	stfvss	f0, [r6, #-12]
    1328:	03000002 	movweq	r0, #2
    132c:	027f0502 	rsbseq	r0, pc, #8388608	; 0x800000
    1330:	04030000 	streq	r0, [r3], #-0
    1334:	00008305 	andeq	r8, r0, r5, lsl #6
    1338:	05080300 	streq	r0, [r8, #-768]	; 0x300
    133c:	0000007e 	andeq	r0, r0, lr, ror r0
    1340:	6b080103 	blvs	201754 <__bss_end__+0x1f77cc>
    1344:	03000002 	movweq	r0, #2
    1348:	01e80702 	mvneq	r0, r2, lsl #14
    134c:	04030000 	streq	r0, [r3], #-0
    1350:	00005307 	andeq	r5, r0, r7, lsl #6
    1354:	07080300 	streq	r0, [r8, -r0, lsl #6]
    1358:	0000004e 	andeq	r0, r0, lr, asr #32
    135c:	2d070403 	cfstrscs	mvf0, [r7, #-12]
    1360:	04000002 	streq	r0, [r0], #-2
    1364:	7a040504 	bvc	10277c <__bss_end__+0xf87f4>
    1368:	03000000 	movweq	r0, #0
    136c:	02740801 	rsbseq	r0, r4, #65536	; 0x10000
    1370:	04050000 	streq	r0, [r5], #-0
    1374:	00000087 	andeq	r0, r0, r7, lsl #1
    1378:	00007a06 	andeq	r7, r0, r6, lsl #20
    137c:	03270700 	teqeq	r7, #0, 14
    1380:	28020000 	stmdacs	r2, {}	; <UNPREDICTABLE>
    1384:	00000097 	muleq	r0, r7, r0
    1388:	0003a508 	andeq	sl, r3, r8, lsl #10
    138c:	00040400 	andeq	r0, r4, r0, lsl #8
    1390:	000000ae 	andeq	r0, r0, lr, lsr #1
    1394:	0003f809 	andeq	pc, r3, r9, lsl #16
    1398:	00007200 	andeq	r7, r0, r0, lsl #4
    139c:	07000000 	streq	r0, [r0, -r0]
    13a0:	000003a7 	andeq	r0, r0, r7, lsr #7
    13a4:	008c6202 	addeq	r6, ip, r2, lsl #4
    13a8:	680a0000 	stmdavs	sl, {}	; <UNPREDICTABLE>
    13ac:	01000004 	tsteq	r0, r4
    13b0:	00002527 	andeq	r2, r0, r7, lsr #10
    13b4:	008b6c00 	addeq	r6, fp, r0, lsl #24
    13b8:	00001400 	andeq	r1, r0, r0, lsl #8
    13bc:	e09c0100 	adds	r0, ip, r0, lsl #2
    13c0:	0b000000 	bleq	13c8 <_start-0x6c38>
    13c4:	27010063 	strcs	r0, [r1, -r3, rrx]
    13c8:	00000025 	andeq	r0, r0, r5, lsr #32
    13cc:	0000112e 	andeq	r1, r0, lr, lsr #2
    13d0:	61700c00 	cmnvs	r0, r0, lsl #24
    13d4:	2e010064 	cdpcs	0, 0, cr0, cr1, cr4, {3}
    13d8:	00000074 	andeq	r0, r0, r4, ror r0
    13dc:	00008b80 	andeq	r8, r0, r0, lsl #23
    13e0:	0000002c 	andeq	r0, r0, ip, lsr #32
    13e4:	01309c01 	teqeq	r0, r1, lsl #24
    13e8:	700b0000 	andvc	r0, fp, r0
    13ec:	742e0100 	strtvc	r0, [lr], #-256	; 0x100
    13f0:	5c000000 	stcpl	0, cr0, [r0], {-0}
    13f4:	0d000011 	stceq	0, cr0, [r0, #-68]	; 0xffffffbc
    13f8:	00000478 	andeq	r0, r0, r8, ror r4
    13fc:	00742e01 	rsbseq	r2, r4, r1, lsl #28
    1400:	11870000 	orrne	r0, r7, r0
    1404:	a60e0000 	strge	r0, [lr], -r0
    1408:	01000004 	tsteq	r0, r4
    140c:	0000252e 	andeq	r2, r0, lr, lsr #10
    1410:	0f520100 	svceq	0x00520100
    1414:	006e656c 	rsbeq	r6, lr, ip, ror #10
    1418:	00252f01 	eoreq	r2, r5, r1, lsl #30
    141c:	51010000 	mrspl	r0, (UNDEF: 1)
    1420:	04600a00 	strbteq	r0, [r0], #-2560	; 0xa00
    1424:	37010000 	strcc	r0, [r1, -r0]
    1428:	00000074 	andeq	r0, r0, r4, ror r0
    142c:	00008bac 	andeq	r8, r0, ip, lsr #23
    1430:	00000040 	andeq	r0, r0, r0, asr #32
    1434:	019c9c01 	orrseq	r9, ip, r1, lsl #24
    1438:	640b0000 	strvs	r0, [fp], #-0
    143c:	01007473 	tsteq	r0, r3, ror r4
    1440:	00007437 	andeq	r7, r0, r7, lsr r4
    1444:	0011a800 	andseq	sl, r1, r0, lsl #16
    1448:	006e0b00 	rsbeq	r0, lr, r0, lsl #22
    144c:	00253701 	eoreq	r3, r5, r1, lsl #14
    1450:	11e00000 	mvnne	r0, r0
    1454:	700b0000 	andvc	r0, fp, r0
    1458:	74370100 	ldrtvc	r0, [r7], #-256	; 0x100
    145c:	01000000 	mrseq	r0, (UNDEF: 0)
    1460:	0d000012 	stceq	0, cr0, [r0, #-72]	; 0xffffffb8
    1464:	00000537 	andeq	r0, r0, r7, lsr r5
    1468:	00743701 	rsbseq	r3, r4, r1, lsl #14
    146c:	12370000 	eorsne	r0, r7, #0
    1470:	6c100000 	ldcvs	0, cr0, [r0], {-0}
    1474:	01006e65 	tsteq	r0, r5, ror #28
    1478:	00002539 	andeq	r2, r0, r9, lsr r5
    147c:	00125500 	andseq	r5, r2, r0, lsl #10
    1480:	00730f00 	rsbseq	r0, r3, r0, lsl #30
    1484:	00743d01 	rsbseq	r3, r4, r1, lsl #26
    1488:	50010000 	andpl	r0, r1, r0
    148c:	04b40a00 	ldrteq	r0, [r4], #2560	; 0xa00
    1490:	47010000 	strmi	r0, [r1, -r0]
    1494:	00000074 	andeq	r0, r0, r4, ror r0
    1498:	00008bec 	andeq	r8, r0, ip, ror #23
    149c:	0000019c 	muleq	r0, ip, r1
    14a0:	02d39c01 	sbcseq	r9, r3, #256	; 0x100
    14a4:	780d0000 	stmdavc	sp, {}	; <UNPREDICTABLE>
    14a8:	01000004 	tsteq	r0, r4
    14ac:	00002c47 	andeq	r2, r0, r7, asr #24
    14b0:	00127c00 	andseq	r7, r2, r0, lsl #24
    14b4:	73640b00 	cmnvc	r4, #0, 22
    14b8:	47010074 	smlsdxmi	r1, r4, r0, r0
    14bc:	00000074 	andeq	r0, r0, r4, ror r0
    14c0:	000012aa 	andeq	r1, r0, sl, lsr #5
    14c4:	01006e0b 	tsteq	r0, fp, lsl #28
    14c8:	00002547 	andeq	r2, r0, r7, asr #10
    14cc:	00131800 	andseq	r1, r3, r0, lsl #16
    14d0:	61760b00 	cmnvs	r6, r0, lsl #22
    14d4:	4701006c 	strmi	r0, [r1, -ip, rrx]
    14d8:	00000025 	andeq	r0, r0, r5, lsr #32
    14dc:	00001344 	andeq	r1, r0, r4, asr #6
    14e0:	0004a60d 	andeq	sl, r4, sp, lsl #12
    14e4:	25470100 	strbcs	r0, [r7, #-256]	; 0x100
    14e8:	c3000000 	movwgt	r0, #0
    14ec:	0e000013 	mcreq	0, 0, r0, cr0, cr3, {0}
    14f0:	0000047d 	andeq	r0, r0, sp, ror r4
    14f4:	00254701 	eoreq	r4, r5, r1, lsl #14
    14f8:	91020000 	mrsls	r0, (UNDEF: 2)
    14fc:	75620f04 	strbvc	r0, [r2, #-3844]!	; 0xf04
    1500:	4c010066 	stcmi	0, cr0, [r1], {102}	; 0x66
    1504:	000002d3 	ldrdeq	r0, [r0], -r3
    1508:	7fa89103 	svcvc	0x00a89103
    150c:	01007010 	tsteq	r0, r0, lsl r0
    1510:	0000744c 	andeq	r7, r0, ip, asr #8
    1514:	0013ed00 	andseq	lr, r3, r0, lsl #26
    1518:	00751000 	rsbseq	r1, r5, r0
    151c:	002c4d01 	eoreq	r4, ip, r1, lsl #26
    1520:	14920000 	ldrne	r0, [r2], #0
    1524:	cb110000 	blgt	44152c <__bss_end__+0x4375a4>
    1528:	f3000001 	vhadd.u8	d0, d0, d1
    152c:	05000002 	streq	r0, [r0, #-2]
    1530:	009a7403 	addseq	r7, sl, r3, lsl #8
    1534:	8c581200 	lfmhi	f1, 2, [r8], {-0}
    1538:	00740000 	rsbseq	r0, r4, r0
    153c:	02610000 	rsbeq	r0, r1, #0
    1540:	5a130000 	bpl	4c1548 <__bss_end__+0x4b75c0>
    1544:	01000004 	tsteq	r0, r4
    1548:	00002c52 	andeq	r2, r0, r2, asr ip
    154c:	00159700 	andseq	r9, r5, r0, lsl #14
    1550:	2c140000 	ldccs	0, cr0, [r4], {-0}
    1554:	6000008d 	andvs	r0, r0, sp, lsl #1
    1558:	15000006 	strne	r0, [r0, #-6]
    155c:	00008d40 	andeq	r8, r0, r0, asr #26
    1560:	00000667 	andeq	r0, r0, r7, ror #12
    1564:	00000299 	muleq	r0, r9, r2
    1568:	02530116 	subseq	r0, r3, #-2147483643	; 0x80000005
    156c:	01167508 	tsteq	r6, r8, lsl #10
    1570:	74030552 	strvc	r0, [r3], #-1362	; 0x552
    1574:	1600009a 			; <UNDEFINED> instruction: 0x1600009a
    1578:	03055101 	movweq	r5, #20737	; 0x5101
    157c:	00009aac 	andeq	r9, r0, ip, lsr #21
    1580:	05500116 	ldrbeq	r0, [r0, #-278]	; 0x116
    1584:	009a9803 	addseq	r9, sl, r3, lsl #16
    1588:	44140000 	ldrmi	r0, [r4], #-0
    158c:	7d00008d 	stcvc	0, cr0, [r0, #-564]	; 0xfffffdcc
    1590:	15000006 	strne	r0, [r0, #-6]
    1594:	00008d50 	andeq	r8, r0, r0, asr sp
    1598:	000000e0 	andeq	r0, r0, r0, ror #1
    159c:	000002b6 			; <UNDEFINED> instruction: 0x000002b6
    15a0:	02510116 	subseq	r0, r1, #-2147483643	; 0x80000005
    15a4:	1700007d 	smlsdxne	r0, sp, r0, r0
    15a8:	00008d64 	andeq	r8, r0, r4, ror #26
    15ac:	00000130 	andeq	r0, r0, r0, lsr r1
    15b0:	02530116 	subseq	r0, r3, #-2147483643	; 0x80000005
    15b4:	0116007d 	tsteq	r6, sp, ror r0
    15b8:	00740251 	rsbseq	r0, r4, r1, asr r2
    15bc:	02500116 	subseq	r0, r0, #-2147483643	; 0x80000005
    15c0:	00000075 	andeq	r0, r0, r5, ror r0
    15c4:	00007a18 	andeq	r7, r0, r8, lsl sl
    15c8:	0002e300 	andeq	lr, r2, r0, lsl #6
    15cc:	006b1900 	rsbeq	r1, fp, r0, lsl #18
    15d0:	003f0000 	eorseq	r0, pc, r0
    15d4:	00007a18 	andeq	r7, r0, r8, lsl sl
    15d8:	0002f300 	andeq	pc, r2, r0, lsl #6
    15dc:	006b1900 	rsbeq	r1, fp, r0, lsl #18
    15e0:	00040000 	andeq	r0, r4, r0
    15e4:	0002e306 	andeq	lr, r2, r6, lsl #6
    15e8:	04971a00 	ldreq	r1, [r7], #2560	; 0xa00
    15ec:	1f010000 	svcne	0x00010000
    15f0:	00008d88 	andeq	r8, r0, r8, lsl #27
    15f4:	00000054 	andeq	r0, r0, r4, asr r0
    15f8:	037c9c01 	cmneq	ip, #256	; 0x100
    15fc:	ac0d0000 	stcge	0, cr0, [sp], {-0}
    1600:	01000004 	tsteq	r0, r4
    1604:	00038b1f 	andeq	r8, r3, pc, lsl fp
    1608:	0015c300 	andseq	ip, r5, r0, lsl #6
    160c:	04700d00 	ldrbteq	r0, [r0], #-3328	; 0xd00
    1610:	1f010000 	svcne	0x00010000
    1614:	000003a0 	andeq	r0, r0, r0, lsr #7
    1618:	000015ef 	andeq	r1, r0, pc, ror #11
    161c:	0001cb11 	andeq	ip, r1, r1, lsl fp
    1620:	0003b600 	andeq	fp, r3, r0, lsl #12
    1624:	7c030500 	cfstr32vc	mvfx0, [r3], {-0}
    1628:	1400009a 	strne	r0, [r0], #-154	; 0x9a
    162c:	00008d98 	muleq	r0, r8, sp
    1630:	00000660 	andeq	r0, r0, r0, ror #12
    1634:	008dac15 	addeq	sl, sp, r5, lsl ip
    1638:	00066700 	andeq	r6, r6, r0, lsl #14
    163c:	00037200 	andeq	r7, r3, r0, lsl #4
    1640:	53011600 	movwpl	r1, #5632	; 0x1600
    1644:	16200802 	strtne	r0, [r0], -r2, lsl #16
    1648:	03055201 	movweq	r5, #20993	; 0x5201
    164c:	00009a7c 	andeq	r9, r0, ip, ror sl
    1650:	05510116 	ldrbeq	r0, [r1, #-278]	; 0x116
    1654:	009aac03 	addseq	sl, sl, r3, lsl #24
    1658:	50011600 	andpl	r1, r1, r0, lsl #12
    165c:	9ae40305 	bls	ff902278 <__bss_end__+0xff8f82f0>
    1660:	14000000 	strne	r0, [r0], #-0
    1664:	00008db0 			; <UNDEFINED> instruction: 0x00008db0
    1668:	0000067d 	andeq	r0, r0, sp, ror r6
    166c:	00251b00 	eoreq	r1, r5, r0, lsl #22
    1670:	038b0000 	orreq	r0, fp, #0
    1674:	251c0000 	ldrcs	r0, [ip, #-0]
    1678:	00000000 	andeq	r0, r0, r0
    167c:	037c0405 	cmneq	ip, #83886080	; 0x5000000
    1680:	251b0000 	ldrcs	r0, [fp, #-0]
    1684:	a0000000 	andge	r0, r0, r0
    1688:	1c000003 	stcne	0, cr0, [r0], {3}
    168c:	00000081 	andeq	r0, r0, r1, lsl #1
    1690:	91040500 	tstls	r4, r0, lsl #10
    1694:	18000003 	stmdane	r0, {r0, r1}
    1698:	0000007a 	andeq	r0, r0, sl, ror r0
    169c:	000003b6 			; <UNDEFINED> instruction: 0x000003b6
    16a0:	00006b19 	andeq	r6, r0, r9, lsl fp
    16a4:	06000e00 	streq	r0, [r0], -r0, lsl #28
    16a8:	000003a6 	andeq	r0, r0, r6, lsr #7
    16ac:	00039b1d 	andeq	r9, r3, sp, lsl fp
    16b0:	257d0100 	ldrbcs	r0, [sp, #-256]!	; 0x100
    16b4:	dc000000 	stcle	0, cr0, [r0], {-0}
    16b8:	8800008d 	stmdahi	r0, {r0, r2, r3, r7}
    16bc:	01000002 	tsteq	r0, r2
    16c0:	0006259c 	muleq	r6, ip, r5
    16c4:	75620b00 	strbvc	r0, [r2, #-2816]!	; 0xb00
    16c8:	7d010066 	stcvc	0, cr0, [r1, #-408]	; 0xfffffe68
    16cc:	00000074 	andeq	r0, r0, r4, ror r0
    16d0:	0000161b 	andeq	r1, r0, fp, lsl r6
    16d4:	01006e0b 	tsteq	r0, fp, lsl #28
    16d8:	0000257d 	andeq	r2, r0, sp, ror r5
    16dc:	00164700 	andseq	r4, r6, r0, lsl #14
    16e0:	6d660b00 	vstmdbvs	r6!, {d16-d15}
    16e4:	7d010074 	stcvc	0, cr0, [r1, #-464]	; 0xfffffe30
    16e8:	00000081 	andeq	r0, r0, r1, lsl #1
    16ec:	00001675 	andeq	r1, r0, r5, ror r6
    16f0:	0003f30d 	andeq	pc, r3, sp, lsl #6
    16f4:	ae7d0100 	rpwgee	f0, f5, f0
    16f8:	a9000000 	stmdbge	r0, {}	; <UNPREDICTABLE>
    16fc:	10000016 	andne	r0, r0, r6, lsl r0
    1700:	7e010070 	mcrvc	0, 0, r0, cr1, cr0, {3}
    1704:	00000074 	andeq	r0, r0, r4, ror r0
    1708:	000016bc 			; <UNDEFINED> instruction: 0x000016bc
    170c:	01006510 	tsteq	r0, r0, lsl r5
    1710:	0000747e 	andeq	r7, r0, lr, ror r4
    1714:	00173a00 	andseq	r3, r7, r0, lsl #20
    1718:	01cb1100 	biceq	r1, fp, r0, lsl #2
    171c:	06350000 	ldrteq	r0, [r5], -r0
    1720:	03050000 	movweq	r0, #20480	; 0x5000
    1724:	00009a8c 	andeq	r9, r0, ip, lsl #21
    1728:	0003e81e 	andeq	lr, r3, lr, lsl r8
    172c:	00731000 	rsbseq	r1, r3, r0
    1730:	00748b01 	rsbseq	r8, r4, r1, lsl #22
    1734:	17610000 	strbne	r0, [r1, -r0]!
    1738:	6e0f0000 	cdpvs	0, 0, cr0, cr15, cr0, {0}
    173c:	01006d75 	tsteq	r0, r5, ror sp
    1740:	00063a8b 	andeq	r3, r6, fp, lsl #21
    1744:	d8910300 	ldmle	r1, {r8, r9}
    1748:	04a6137e 	strteq	r1, [r6], #894	; 0x37e
    174c:	8c010000 	stchi	0, cr0, [r1], {-0}
    1750:	0000002c 	andeq	r0, r0, ip, lsr #32
    1754:	000017b6 			; <UNDEFINED> instruction: 0x000017b6
    1758:	008e6015 	addeq	r6, lr, r5, lsl r0
    175c:	0000b900 	andeq	fp, r0, r0, lsl #18
    1760:	00047b00 	andeq	r7, r4, r0, lsl #22
    1764:	50011600 	andpl	r1, r1, r0, lsl #12
    1768:	00007502 	andeq	r7, r0, r2, lsl #10
    176c:	008e7414 	addeq	r7, lr, r4, lsl r4
    1770:	00066000 	andeq	r6, r6, r0
    1774:	8e881500 	cdphi	5, 8, cr1, cr8, cr0, {0}
    1778:	06670000 	strbteq	r0, [r7], -r0
    177c:	04b30000 	ldrteq	r0, [r3], #0
    1780:	01160000 	tsteq	r6, r0
    1784:	92080253 	andls	r0, r8, #805306373	; 0x30000005
    1788:	05520116 	ldrbeq	r0, [r2, #-278]	; 0x116
    178c:	009a8c03 	addseq	r8, sl, r3, lsl #24
    1790:	51011600 	tstpl	r1, r0, lsl #12
    1794:	9aac0305 	bls	feb023b0 <__bss_end__+0xfeaf8428>
    1798:	01160000 	tsteq	r6, r0
    179c:	fc030550 	stc2	5, cr0, [r3], {80}	; 0x50
    17a0:	0000009a 	muleq	r0, sl, r0
    17a4:	008e8c14 	addeq	r8, lr, r4, lsl ip
    17a8:	00067d00 	andeq	r7, r6, r0, lsl #26
    17ac:	8efc1400 	cdphi	4, 15, cr1, cr12, cr0, {0}
    17b0:	06600000 	strbteq	r0, [r0], -r0
    17b4:	10150000 	andsne	r0, r5, r0
    17b8:	6700008f 	strvs	r0, [r0, -pc, lsl #1]
    17bc:	f4000006 	vst4.8	{d0-d3}, [r0], r6
    17c0:	16000004 	strne	r0, [r0], -r4
    17c4:	08025301 	stmdaeq	r2, {r0, r8, r9, ip, lr}
    17c8:	52011698 	andpl	r1, r1, #152, 12	; 0x9800000
    17cc:	9a8c0305 	bls	fe3023e8 <__bss_end__+0xfe2f8460>
    17d0:	01160000 	tsteq	r6, r0
    17d4:	ac030551 	cfstr32ge	mvfx0, [r3], {81}	; 0x51
    17d8:	1600009a 			; <UNDEFINED> instruction: 0x1600009a
    17dc:	03055001 	movweq	r5, #20481	; 0x5001
    17e0:	00009b18 	andeq	r9, r0, r8, lsl fp
    17e4:	8f141400 	svchi	0x00141400
    17e8:	067d0000 	ldrbteq	r0, [sp], -r0
    17ec:	38150000 	ldmdacc	r5, {}	; <UNPREDICTABLE>
    17f0:	9c00008f 	stcls	0, cr0, [r0], {143}	; 0x8f
    17f4:	2a000001 	bcs	1800 <_start-0x6800>
    17f8:	16000005 	strne	r0, [r0], -r5
    17fc:	08025201 	stmdaeq	r2, {r0, r9, ip, lr}
    1800:	51011680 	smlabbpl	r1, r0, r6, r1
    1804:	7ed09103 	atnvcs	f1, f3
    1808:	01500116 	cmpeq	r0, r6, lsl r1
    180c:	7d02163a 	stcvc	6, cr1, [r2, #-232]	; 0xffffff18
    1810:	16310104 	ldrtne	r0, [r1], -r4, lsl #2
    1814:	02007d02 	andeq	r7, r0, #2, 26	; 0x80
    1818:	15000077 	strne	r0, [r0, #-119]	; 0x77
    181c:	00008f5c 	andeq	r8, r0, ip, asr pc
    1820:	0000019c 	muleq	r0, ip, r1
    1824:	00000558 	andeq	r0, r0, r8, asr r5
    1828:	02520116 	subseq	r0, r2, #-2147483643	; 0x80000005
    182c:	01168008 	tsteq	r6, r8
    1830:	d0910351 	addsle	r0, r1, r1, asr r3
    1834:	5001167e 	andpl	r1, r1, lr, ror r6
    1838:	02163a01 	andseq	r3, r6, #4096	; 0x1000
    183c:	7b02047d 	blvc	82a38 <__bss_end__+0x78ab0>
    1840:	7d021600 	stcvc	6, cr1, [r2, #-0]
    1844:	00770200 	rsbseq	r0, r7, r0, lsl #4
    1848:	8f801500 	svchi	0x00801500
    184c:	019c0000 	orrseq	r0, ip, r0
    1850:	05860000 	streq	r0, [r6]
    1854:	01160000 	tsteq	r6, r0
    1858:	80080252 	andhi	r0, r8, r2, asr r2
    185c:	03510116 	cmpeq	r1, #-2147483643	; 0x80000005
    1860:	167ed091 			; <UNDEFINED> instruction: 0x167ed091
    1864:	40015001 	andmi	r5, r1, r1
    1868:	047d0216 	ldrbteq	r0, [sp], #-534	; 0x216
    186c:	16007b02 	strne	r7, [r0], -r2, lsl #22
    1870:	02007d02 	andeq	r7, r0, #2, 26	; 0x80
    1874:	15000077 	strne	r0, [r0, #-119]	; 0x77
    1878:	00008fa4 	andeq	r8, r0, r4, lsr #31
    187c:	0000019c 	muleq	r0, ip, r1
    1880:	000005b4 			; <UNDEFINED> instruction: 0x000005b4
    1884:	02520116 	subseq	r0, r2, #-2147483643	; 0x80000005
    1888:	01168008 	tsteq	r6, r8
    188c:	d0910351 	addsle	r0, r1, r1, asr r3
    1890:	5001167e 	andpl	r1, r1, lr, ror r6
    1894:	02163201 	andseq	r3, r6, #268435456	; 0x10000000
    1898:	7b02047d 	blvc	82a94 <__bss_end__+0x78b0c>
    189c:	7d021600 	stcvc	6, cr1, [r2, #-0]
    18a0:	00770200 	rsbseq	r0, r7, r0, lsl #4
    18a4:	8fd41500 	svchi	0x00d41500
    18a8:	019c0000 	orrseq	r0, ip, r0
    18ac:	05e20000 	strbeq	r0, [r2, #0]!
    18b0:	01160000 	tsteq	r6, r0
    18b4:	80080252 	andhi	r0, r8, r2, asr r2
    18b8:	03510116 	cmpeq	r1, #-2147483643	; 0x80000005
    18bc:	167ed091 			; <UNDEFINED> instruction: 0x167ed091
    18c0:	38015001 	stmdacc	r1, {r0, ip, lr}
    18c4:	047d0216 	ldrbteq	r0, [sp], #-534	; 0x216
    18c8:	16007b02 	strne	r7, [r0], -r2, lsl #22
    18cc:	02007d02 	andeq	r7, r0, #2, 26	; 0x80
    18d0:	14000077 	strne	r0, [r0], #-119	; 0x77
    18d4:	00008fdc 	ldrdeq	r8, [r0], -ip
    18d8:	00000660 	andeq	r0, r0, r0, ror #12
    18dc:	008ff815 	addeq	pc, pc, r5, lsl r8	; <UNPREDICTABLE>
    18e0:	00066700 	andeq	r6, r6, r0, lsl #14
    18e4:	00061a00 	andeq	r1, r6, r0, lsl #20
    18e8:	53011600 	movwpl	r1, #5632	; 0x1600
    18ec:	16b90802 	ldrtne	r0, [r9], r2, lsl #16
    18f0:	03055201 	movweq	r5, #20993	; 0x5201
    18f4:	00009a8c 	andeq	r9, r0, ip, lsl #21
    18f8:	05510116 	ldrbeq	r0, [r1, #-278]	; 0x116
    18fc:	009aac03 	addseq	sl, sl, r3, lsl #24
    1900:	50011600 	andpl	r1, r1, r0, lsl #12
    1904:	9b400305 	blls	1002520 <__bss_end__+0xff8598>
    1908:	14000000 	strne	r0, [r0], #-0
    190c:	00008ffc 	strdeq	r8, [r0], -ip
    1910:	0000067d 	andeq	r0, r0, sp, ror r6
    1914:	7a180000 	bvc	60191c <__bss_end__+0x5f7994>
    1918:	35000000 	strcc	r0, [r0, #-0]
    191c:	19000006 	stmdbne	r0, {r1, r2}
    1920:	0000006b 	andeq	r0, r0, fp, rrx
    1924:	25060009 	strcs	r0, [r6, #-9]
    1928:	18000006 	stmdane	r0, {r1, r2}
    192c:	0000007a 	andeq	r0, r0, sl, ror r0
    1930:	0000064a 	andeq	r0, r0, sl, asr #12
    1934:	00006b19 	andeq	r6, r0, r9, lsl fp
    1938:	1f007f00 	svcne	0x00007f00
    193c:	00000418 	andeq	r0, r0, r8, lsl r4
    1940:	038b1d03 	orreq	r1, fp, #3, 26	; 0xc0
    1944:	551f0000 	ldrpl	r0, [pc, #-0]	; 194c <_start-0x66b4>
    1948:	03000004 	movweq	r0, #4
    194c:	0003a022 	andeq	sl, r3, r2, lsr #32
    1950:	01452000 	mrseq	r2, (UNDEF: 69)
    1954:	1e030000 	cdpne	0, 0, cr0, cr3, cr0, {0}
    1958:	00039e21 	andeq	r9, r3, r1, lsr #28
    195c:	25290300 	strcs	r0, [r9, #-768]!	; 0x300
    1960:	7d000000 	stcvc	0, cr0, [r0, #-0]
    1964:	1c000006 	stcne	0, cr0, [r0], {6}
    1968:	00000081 	andeq	r0, r0, r1, lsl #1
    196c:	20200022 	eorcs	r0, r0, r2, lsr #32
    1970:	03000002 	movweq	r0, #2
    1974:	00b80066 	adcseq	r0, r8, r6, rrx
    1978:	00040000 	andeq	r0, r4, r0
    197c:	000007b9 			; <UNDEFINED> instruction: 0x000007b9
    1980:	03440104 	movteq	r0, #16644	; 0x4104
    1984:	c7010000 	strgt	r0, [r1, -r0]
    1988:	af000004 	svcge	0x00000004
    198c:	64000003 	strvs	r0, [r0], #-3
    1990:	20000090 	mulcs	r0, r0, r0
    1994:	c1000000 	mrsgt	r0, (UNDEF: 0)
    1998:	02000007 	andeq	r0, r0, #7
    199c:	6e690504 	cdpvs	5, 6, cr0, cr9, cr4, {0}
    19a0:	04030074 	streq	r0, [r3], #-116	; 0x74
    19a4:	00005807 	andeq	r5, r0, r7, lsl #16
    19a8:	06010300 	streq	r0, [r1], -r0, lsl #6
    19ac:	0000026d 	andeq	r0, r0, sp, ror #4
    19b0:	7f050203 	svcvc	0x00050203
    19b4:	03000002 	movweq	r0, #2
    19b8:	00830504 	addeq	r0, r3, r4, lsl #10
    19bc:	08030000 	stmdaeq	r3, {}	; <UNPREDICTABLE>
    19c0:	00007e05 	andeq	r7, r0, r5, lsl #28
    19c4:	08010300 	stmdaeq	r1, {r8, r9}
    19c8:	0000026b 	andeq	r0, r0, fp, ror #4
    19cc:	e8070203 	stmda	r7, {r0, r1, r9}
    19d0:	03000001 	movweq	r0, #1
    19d4:	00530704 	subseq	r0, r3, r4, lsl #14
    19d8:	08030000 	stmdaeq	r3, {}	; <UNPREDICTABLE>
    19dc:	00004e07 	andeq	r4, r0, r7, lsl #28
    19e0:	07040300 	streq	r0, [r4, -r0, lsl #6]
    19e4:	0000022d 	andeq	r0, r0, sp, lsr #4
    19e8:	74080103 	strvc	r0, [r8], #-259	; 0x103
    19ec:	04000002 	streq	r0, [r0], #-2
    19f0:	000002e7 	andeq	r0, r0, r7, ror #5
    19f4:	90640301 	rsbls	r0, r4, r1, lsl #6
    19f8:	00100000 	andseq	r0, r0, r0
    19fc:	9c010000 	stcls	0, cr0, [r1], {-0}
    1a00:	0000009c 	muleq	r0, ip, r0
    1a04:	01007205 	tsteq	r0, r5, lsl #4
    1a08:	00002c04 	andeq	r2, r0, r4, lsl #24
    1a0c:	0017e000 	andseq	lr, r7, r0
    1a10:	b9060000 	stmdblt	r6, {}	; <UNPREDICTABLE>
    1a14:	01000004 	tsteq	r0, r4
    1a18:	0090740c 	addseq	r7, r0, ip, lsl #8
    1a1c:	00001000 	andeq	r1, r0, r0
    1a20:	059c0100 	ldreq	r0, [ip, #256]	; 0x100
    1a24:	0d010072 	stceq	0, cr0, [r1, #-456]	; 0xfffffe38
    1a28:	0000002c 	andeq	r0, r0, ip, lsr #32
    1a2c:	00001804 	andeq	r1, r0, r4, lsl #16
    1a30:	00ff0000 	rscseq	r0, pc, r0
    1a34:	00040000 	andeq	r0, r4, r0
    1a38:	00000824 	andeq	r0, r0, r4, lsr #16
    1a3c:	03440104 	movteq	r0, #16644	; 0x4104
    1a40:	e5010000 	str	r0, [r1, #-0]
    1a44:	af000004 	svcge	0x00000004
    1a48:	84000003 	strhi	r0, [r0], #-3
    1a4c:	28000090 	stmdacs	r0, {r4, r7}
    1a50:	08000000 	stmdaeq	r0, {}	; <UNPREDICTABLE>
    1a54:	02000008 	andeq	r0, r0, #8
    1a58:	6e690504 	cdpvs	5, 6, cr0, cr9, cr4, {0}
    1a5c:	04030074 	streq	r0, [r3], #-116	; 0x74
    1a60:	00005807 	andeq	r5, r0, r7, lsl #16
    1a64:	06010300 	streq	r0, [r1], -r0, lsl #6
    1a68:	0000026d 	andeq	r0, r0, sp, ror #4
    1a6c:	7f050203 	svcvc	0x00050203
    1a70:	03000002 	movweq	r0, #2
    1a74:	00830504 	addeq	r0, r3, r4, lsl #10
    1a78:	08030000 	stmdaeq	r3, {}	; <UNPREDICTABLE>
    1a7c:	00007e05 	andeq	r7, r0, r5, lsl #28
    1a80:	08010300 	stmdaeq	r1, {r8, r9}
    1a84:	0000026b 	andeq	r0, r0, fp, ror #4
    1a88:	e8070203 	stmda	r7, {r0, r1, r9}
    1a8c:	03000001 	movweq	r0, #1
    1a90:	00530704 	subseq	r0, r3, r4, lsl #14
    1a94:	08030000 	stmdaeq	r3, {}	; <UNPREDICTABLE>
    1a98:	00004e07 	andeq	r4, r0, r7, lsl #28
    1a9c:	07040300 	streq	r0, [r4, -r0, lsl #6]
    1aa0:	0000022d 	andeq	r0, r0, sp, lsr #4
    1aa4:	74080103 	strvc	r0, [r8], #-259	; 0x103
    1aa8:	04000002 	streq	r0, [r0], #-2
    1aac:	00007f04 	andeq	r7, r0, r4, lsl #30
    1ab0:	00720500 	rsbseq	r0, r2, r0, lsl #10
    1ab4:	20060000 	andcs	r0, r6, r0
    1ab8:	01000002 	tsteq	r0, r2
    1abc:	00908404 	addseq	r8, r0, r4, lsl #8
    1ac0:	00002800 	andeq	r2, r0, r0, lsl #16
    1ac4:	ca9c0100 	bgt	fe701ecc <__bss_end__+0xfe6f7f44>
    1ac8:	07000000 	streq	r0, [r0, -r0]
    1acc:	00009098 	muleq	r0, r8, r0
    1ad0:	000000ac 	andeq	r0, r0, ip, lsr #1
    1ad4:	05500108 	ldrbeq	r0, [r0, #-264]	; 0x108
    1ad8:	009b7803 	addseq	r7, fp, r3, lsl #16
    1adc:	a0090000 	andge	r0, r9, r0
    1ae0:	ea000090 	b	1d28 <_start-0x62d8>
    1ae4:	c0000000 	andgt	r0, r0, r0
    1ae8:	08000000 	stmdaeq	r0, {}	; <UNPREDICTABLE>
    1aec:	08025001 	stmdaeq	r2, {r0, ip, lr}
    1af0:	a40a0064 	strge	r0, [sl], #-100	; 0x64
    1af4:	fb000090 	blx	1d3e <_start-0x62c2>
    1af8:	00000000 	andeq	r0, r0, r0
    1afc:	0000250b 	andeq	r2, r0, fp, lsl #10
    1b00:	0000d900 	andeq	sp, r0, r0, lsl #18
    1b04:	00790c00 	rsbseq	r0, r9, r0, lsl #24
    1b08:	0d000000 	stceq	0, cr0, [r0, #-0]
    1b0c:	00000455 	andeq	r0, r0, r5, asr r4
    1b10:	00e42202 	rsceq	r2, r4, r2, lsl #4
    1b14:	04040000 	streq	r0, [r4], #-0
    1b18:	000000ca 	andeq	r0, r0, sl, asr #1
    1b1c:	0002910e 	andeq	r9, r2, lr, lsl #2
    1b20:	fb500200 	blx	140232a <__bss_end__+0x13f83a2>
    1b24:	0c000000 	stceq	0, cr0, [r0], {-0}
    1b28:	0000002c 	andeq	r0, r0, ip, lsr #32
    1b2c:	04da0f00 	ldrbeq	r0, [sl], #3840	; 0xf00
    1b30:	63020000 	movwvs	r0, #8192	; 0x2000
    1b34:	0000ff00 	andeq	pc, r0, r0, lsl #30
    1b38:	ee000400 	cfcpys	mvf0, mvf0
    1b3c:	04000008 	streq	r0, [r0], #-8
    1b40:	00034401 	andeq	r4, r3, r1, lsl #8
    1b44:	04ff0100 	ldrbteq	r0, [pc], #256	; 1b4c <_start-0x64b4>
    1b48:	03af0000 			; <UNDEFINED> instruction: 0x03af0000
    1b4c:	90ac0000 	adcls	r0, ip, r0
    1b50:	00340000 	eorseq	r0, r4, r0
    1b54:	089f0000 	ldmeq	pc, {}	; <UNPREDICTABLE>
    1b58:	04020000 	streq	r0, [r2], #-0
    1b5c:	746e6905 	strbtvc	r6, [lr], #-2309	; 0x905
    1b60:	07040300 	streq	r0, [r4, -r0, lsl #6]
    1b64:	00000058 	andeq	r0, r0, r8, asr r0
    1b68:	6d060103 	stfvss	f0, [r6, #-12]
    1b6c:	03000002 	movweq	r0, #2
    1b70:	027f0502 	rsbseq	r0, pc, #8388608	; 0x800000
    1b74:	04030000 	streq	r0, [r3], #-0
    1b78:	00008305 	andeq	r8, r0, r5, lsl #6
    1b7c:	05080300 	streq	r0, [r8, #-768]	; 0x300
    1b80:	0000007e 	andeq	r0, r0, lr, ror r0
    1b84:	6b080103 	blvs	201f98 <__bss_end__+0x1f8010>
    1b88:	03000002 	movweq	r0, #2
    1b8c:	01e80702 	mvneq	r0, r2, lsl #14
    1b90:	04030000 	streq	r0, [r3], #-0
    1b94:	00005307 	andeq	r5, r0, r7, lsl #6
    1b98:	07080300 	streq	r0, [r8, -r0, lsl #6]
    1b9c:	0000004e 	andeq	r0, r0, lr, asr #32
    1ba0:	2d070403 	cfstrscs	mvf0, [r7, #-12]
    1ba4:	03000002 	movweq	r0, #2
    1ba8:	02740801 	rsbseq	r0, r4, #65536	; 0x10000
    1bac:	35040000 	strcc	r0, [r4, #-0]
    1bb0:	01000005 	tsteq	r0, r5
    1bb4:	0090ac0d 	addseq	sl, r0, sp, lsl #24
    1bb8:	00003400 	andeq	r3, r0, r0, lsl #8
    1bbc:	d89c0100 	ldmle	ip, {r8}
    1bc0:	05000000 	streq	r0, [r0, #-0]
    1bc4:	00000513 	andeq	r0, r0, r3, lsl r5
    1bc8:	00250e01 	eoreq	r0, r5, r1, lsl #28
    1bcc:	21050000 	mrscs	r0, (UNDEF: 5)
    1bd0:	01000005 	tsteq	r0, r5
    1bd4:	0000250e 	andeq	r2, r0, lr, lsl #10
    1bd8:	00bd0600 	adcseq	r0, sp, r0, lsl #12
    1bdc:	0f010000 	svceq	0x00010000
    1be0:	73736207 	cmnvc	r3, #1879048192	; 0x70000000
    1be4:	d8110100 	ldmdale	r1, {r8}
    1be8:	28000000 	stmdacs	r0, {}	; <UNPREDICTABLE>
    1bec:	08000018 	stmdaeq	r0, {r3, r4}
    1bf0:	0000052d 	andeq	r0, r0, sp, lsr #10
    1bf4:	00d81201 	sbcseq	r1, r8, r1, lsl #4
    1bf8:	d4090000 	strle	r0, [r9], #-0
    1bfc:	f4000090 	vst4.32	{d0-d3}, [r0 :64], r0
    1c00:	09000000 	stmdbeq	r0, {}	; <UNPREDICTABLE>
    1c04:	000090d8 	ldrdeq	r9, [r0], -r8
    1c08:	000000fb 	strdeq	r0, [r0], -fp
    1c0c:	25040a00 	strcs	r0, [r4, #-2560]	; 0xa00
    1c10:	05000000 	streq	r0, [r0, #-0]
    1c14:	00000513 	andeq	r0, r0, r3, lsl r5
    1c18:	00250e01 	eoreq	r0, r5, r1, lsl #28
    1c1c:	21050000 	mrscs	r0, (UNDEF: 5)
    1c20:	01000005 	tsteq	r0, r5
    1c24:	0000250e 	andeq	r2, r0, lr, lsl #10
    1c28:	00bd0600 	adcseq	r0, sp, r0, lsl #12
    1c2c:	d8020000 	stmdale	r2, {}	; <UNPREDICTABLE>
    1c30:	0004da06 	andeq	sp, r4, r6, lsl #20
    1c34:	00630200 	rsbeq	r0, r3, r0, lsl #4
    1c38:	000001ad 	andeq	r0, r0, sp, lsr #3
    1c3c:	09820004 	stmibeq	r2, {r2}
    1c40:	01040000 	mrseq	r0, (UNDEF: 4)
    1c44:	00000344 	andeq	r0, r0, r4, asr #6
    1c48:	00055701 	andeq	r5, r5, r1, lsl #14
    1c4c:	0003af00 	andeq	sl, r3, r0, lsl #30
    1c50:	00040000 	andeq	r0, r4, r0
    1c54:	00000000 	andeq	r0, r0, r0
    1c58:	00093d00 	andeq	r3, r9, r0, lsl #26
    1c5c:	05040200 	streq	r0, [r4, #-512]	; 0x200
    1c60:	00746e69 	rsbseq	r6, r4, r9, ror #28
    1c64:	58070403 	stmdapl	r7, {r0, r1, sl}
    1c68:	03000000 	movweq	r0, #0
    1c6c:	026d0601 	rsbeq	r0, sp, #1048576	; 0x100000
    1c70:	02030000 	andeq	r0, r3, #0
    1c74:	00027f05 	andeq	r7, r2, r5, lsl #30
    1c78:	05040300 	streq	r0, [r4, #-768]	; 0x300
    1c7c:	00000083 	andeq	r0, r0, r3, lsl #1
    1c80:	7e050803 	cdpvc	8, 0, cr0, cr5, cr3, {0}
    1c84:	03000000 	movweq	r0, #0
    1c88:	026b0801 	rsbeq	r0, fp, #65536	; 0x10000
    1c8c:	02030000 	andeq	r0, r3, #0
    1c90:	0001e807 	andeq	lr, r1, r7, lsl #16
    1c94:	07040300 	streq	r0, [r4, -r0, lsl #6]
    1c98:	00000053 	andeq	r0, r0, r3, asr r0
    1c9c:	4e070803 	cdpmi	8, 0, cr0, cr7, cr3, {0}
    1ca0:	03000000 	movweq	r0, #0
    1ca4:	022d0704 	eoreq	r0, sp, #4, 14	; 0x100000
    1ca8:	01030000 	mrseq	r0, (UNDEF: 3)
    1cac:	00027408 	andeq	r7, r2, r8, lsl #8
    1cb0:	053d0400 	ldreq	r0, [sp, #-1024]!	; 0x400
    1cb4:	0e010000 	cdpeq	0, 0, cr0, cr1, cr0, {0}
    1cb8:	00000025 	andeq	r0, r0, r5, lsr #32
    1cbc:	000090e0 	andeq	r9, r0, r0, ror #1
    1cc0:	00000018 	andeq	r0, r0, r8, lsl r0
    1cc4:	00a29c01 	adceq	r9, r2, r1, lsl #24
    1cc8:	a9050000 	stmdbge	r5, {}	; <UNPREDICTABLE>
    1ccc:	01000005 	tsteq	r0, r5
    1cd0:	00002c0f 	andeq	r2, r0, pc, lsl #24
    1cd4:	00184800 	andseq	r4, r8, r0, lsl #16
    1cd8:	8c060000 	stchi	0, cr0, [r6], {-0}
    1cdc:	01000005 	tsteq	r0, r5
    1ce0:	0090f817 	addseq	pc, r0, r7, lsl r8	; <UNPREDICTABLE>
    1ce4:	00001400 	andeq	r1, r0, r0, lsl #8
    1ce8:	c79c0100 	ldrgt	r0, [ip, r0, lsl #2]
    1cec:	05000000 	streq	r0, [r0, #-0]
    1cf0:	000005a9 	andeq	r0, r0, r9, lsr #11
    1cf4:	002c1801 	eoreq	r1, ip, r1, lsl #16
    1cf8:	18670000 	stmdane	r7!, {}^	; <UNPREDICTABLE>
    1cfc:	06000000 	streq	r0, [r0], -r0
    1d00:	000004da 	ldrdeq	r0, [r0], -sl
    1d04:	910c1f01 	tstls	ip, r1, lsl #30
    1d08:	00480000 	subeq	r0, r8, r0
    1d0c:	9c010000 	stcls	0, cr0, [r1], {-0}
    1d10:	00000177 	andeq	r0, r0, r7, ror r1
    1d14:	0005a107 	andeq	sl, r5, r7, lsl #2
    1d18:	772a0100 	strvc	r0, [sl, -r0, lsl #2]!
    1d1c:	1c000001 	stcne	0, cr0, [r0], {1}
    1d20:	07201000 	streq	r1, [r0, -r0]!
    1d24:	00000584 	andeq	r0, r0, r4, lsl #11
    1d28:	01772b01 	cmneq	r7, r1, lsl #22
    1d2c:	00240000 	eoreq	r0, r4, r0
    1d30:	4b072010 	blmi	1c9d78 <__bss_end__+0x1bfdf0>
    1d34:	01000005 	tsteq	r0, r5
    1d38:	0001772c 	andeq	r7, r1, ip, lsr #14
    1d3c:	00000000 	andeq	r0, r0, r0
    1d40:	056b085a 	strbeq	r0, [fp, #-2138]!	; 0x85a
    1d44:	2d010000 	stccs	0, cr0, [r1, #-0]
    1d48:	00000177 	andeq	r0, r0, r7, ror r1
    1d4c:	91140920 	tstls	r4, r0, lsr #18
    1d50:	00790000 	rsbseq	r0, r9, r0
    1d54:	20090000 	andcs	r0, r9, r0
    1d58:	a2000091 	andge	r0, r0, #145	; 0x91
    1d5c:	0a000000 	beq	1d64 <_start-0x629c>
    1d60:	00009128 	andeq	r9, r0, r8, lsr #2
    1d64:	0000018d 	andeq	r0, r0, sp, lsl #3
    1d68:	0000013a 	andeq	r0, r0, sl, lsr r1
    1d6c:	0150010b 	cmpeq	r0, fp, lsl #2
    1d70:	340a004e 	strcc	r0, [sl], #-78	; 0x4e
    1d74:	9e000091 	mcrls	0, 0, r0, cr0, cr1, {4}
    1d78:	5a000001 	bpl	1d84 <_start-0x627c>
    1d7c:	0b000001 	bleq	1d88 <_start-0x6278>
    1d80:	0c055101 	stfeqs	f5, [r5], {1}
    1d84:	5a000001 	bpl	1d90 <_start-0x6270>
    1d88:	0550010b 	ldrbeq	r0, [r0, #-267]	; 0x10b
    1d8c:	1000240c 	andne	r2, r0, ip, lsl #8
    1d90:	400c0020 	andmi	r0, ip, r0, lsr #32
    1d94:	9e000091 	mcrls	0, 0, r0, cr0, cr1, {4}
    1d98:	0b000001 	bleq	1da4 <_start-0x625c>
    1d9c:	0c055101 	stfeqs	f5, [r5], {1}
    1da0:	5a000020 	bpl	1e28 <_start-0x61d8>
    1da4:	0550010b 	ldrbeq	r0, [r0, #-267]	; 0x10b
    1da8:	10001c0c 	andne	r1, r0, ip, lsl #24
    1dac:	0d000020 	stceq	0, cr0, [r0, #-128]	; 0xffffff80
    1db0:	00000025 	andeq	r0, r0, r5, lsr #32
    1db4:	00054008 	andeq	r4, r5, r8
    1db8:	880d0100 	stmdahi	sp, {r8}
    1dbc:	10000001 	andne	r0, r0, r1
    1dc0:	00002c0d 	andeq	r2, r0, sp, lsl #24
    1dc4:	02910e00 	addseq	r0, r1, #0, 28
    1dc8:	50020000 	andpl	r0, r2, r0
    1dcc:	0000019e 	muleq	r0, lr, r1
    1dd0:	00002c0f 	andeq	r2, r0, pc, lsl #24
    1dd4:	9b100000 	blls	401ddc <__bss_end__+0x3f7e54>
    1dd8:	02000005 	andeq	r0, r0, #5
    1ddc:	002c0f9c 	mlaeq	ip, ip, pc, r0	; <UNPREDICTABLE>
    1de0:	2c0f0000 	stccs	0, cr0, [pc], {-0}
    1de4:	00000000 	andeq	r0, r0, r0
    1de8:	0001d800 	andeq	sp, r1, r0, lsl #16
    1dec:	70000400 	andvc	r0, r0, r0, lsl #8
    1df0:	0400000a 	streq	r0, [r0], #-10
    1df4:	00034401 	andeq	r4, r3, r1, lsl #8
    1df8:	05cb0100 	strbeq	r0, [fp, #256]	; 0x100
    1dfc:	03af0000 			; <UNDEFINED> instruction: 0x03af0000
    1e00:	91540000 	cmpls	r4, r0
    1e04:	00880000 	addeq	r0, r8, r0
    1e08:	09da0000 	ldmibeq	sl, {}^	; <UNPREDICTABLE>
    1e0c:	04020000 	streq	r0, [r2], #-0
    1e10:	746e6905 	strbtvc	r6, [lr], #-2309	; 0x905
    1e14:	07040300 	streq	r0, [r4, -r0, lsl #6]
    1e18:	00000058 	andeq	r0, r0, r8, asr r0
    1e1c:	6d060103 	stfvss	f0, [r6, #-12]
    1e20:	03000002 	movweq	r0, #2
    1e24:	027f0502 	rsbseq	r0, pc, #8388608	; 0x800000
    1e28:	04030000 	streq	r0, [r3], #-0
    1e2c:	00008305 	andeq	r8, r0, r5, lsl #6
    1e30:	05080300 	streq	r0, [r8, #-768]	; 0x300
    1e34:	0000007e 	andeq	r0, r0, lr, ror r0
    1e38:	6b080103 	blvs	20224c <__bss_end__+0x1f82c4>
    1e3c:	03000002 	movweq	r0, #2
    1e40:	01e80702 	mvneq	r0, r2, lsl #14
    1e44:	04030000 	streq	r0, [r3], #-0
    1e48:	00005307 	andeq	r5, r0, r7, lsl #6
    1e4c:	07080300 	streq	r0, [r8, -r0, lsl #6]
    1e50:	0000004e 	andeq	r0, r0, lr, asr #32
    1e54:	2d070403 	cfstrscs	mvf0, [r7, #-12]
    1e58:	03000002 	movweq	r0, #2
    1e5c:	02740801 	rsbseq	r0, r4, #65536	; 0x10000
    1e60:	ea040000 	b	101e68 <__bss_end__+0xf7ee0>
    1e64:	01000005 	tsteq	r0, r5
    1e68:	00915405 	addseq	r5, r1, r5, lsl #8
    1e6c:	00001c00 	andeq	r1, r0, r0, lsl #24
    1e70:	9e9c0100 	fmllse	f0, f4, f0
    1e74:	05000000 	streq	r0, [r0, #-0]
    1e78:	000005e4 	andeq	r0, r0, r4, ror #11
    1e7c:	002c0501 	eoreq	r0, ip, r1, lsl #10
    1e80:	18910000 	ldmne	r1, {}	; <UNPREDICTABLE>
    1e84:	06000000 	streq	r0, [r0], -r0
    1e88:	000005ae 	andeq	r0, r0, lr, lsr #11
    1e8c:	002c1101 	eoreq	r1, ip, r1, lsl #2
    1e90:	91700000 	cmnls	r0, r0
    1e94:	00140000 	andseq	r0, r4, r0
    1e98:	9c010000 	stcls	0, cr0, [r1], {-0}
    1e9c:	000000cb 	andeq	r0, r0, fp, asr #1
    1ea0:	00917c07 	addseq	r7, r1, r7, lsl #24
    1ea4:	0001ca00 	andeq	ip, r1, r0, lsl #20
    1ea8:	50010800 	andpl	r0, r1, r0, lsl #16
    1eac:	30040c05 	andcc	r0, r4, r5, lsl #24
    1eb0:	00002000 	andeq	r2, r0, r0
    1eb4:	00060006 	andeq	r0, r6, r6
    1eb8:	2c160100 	ldfcss	f0, [r6], {-0}
    1ebc:	84000000 	strhi	r0, [r0], #-0
    1ec0:	0c000091 	stceq	0, cr0, [r0], {145}	; 0x91
    1ec4:	01000000 	mrseq	r0, (UNDEF: 0)
    1ec8:	0000f99c 	muleq	r0, ip, r9
    1ecc:	00750900 	rsbseq	r0, r5, r0, lsl #18
    1ed0:	002c1a01 	eoreq	r1, ip, r1, lsl #20
    1ed4:	50010000 	andpl	r0, r1, r0
    1ed8:	00918c0a 	addseq	r8, r1, sl, lsl #24
    1edc:	00009e00 	andeq	r9, r0, r0, lsl #28
    1ee0:	f7040000 			; <UNDEFINED> instruction: 0xf7040000
    1ee4:	01000005 	tsteq	r0, r5
    1ee8:	0091901f 	addseq	r9, r1, pc, lsl r0
    1eec:	00002400 	andeq	r2, r0, r0, lsl #8
    1ef0:	579c0100 	ldrpl	r0, [ip, r0, lsl #2]
    1ef4:	0b000001 	bleq	1f00 <_start-0x6100>
    1ef8:	01007375 	tsteq	r0, r5, ror r3
    1efc:	00002c1f 	andeq	r2, r0, pc, lsl ip
    1f00:	0018c500 	andseq	ip, r8, r0, lsl #10
    1f04:	62720900 	rsbsvs	r0, r2, #0, 18
    1f08:	2c200100 	stfcss	f0, [r0], #-0
    1f0c:	01000000 	mrseq	r0, (UNDEF: 0)
    1f10:	91a00c54 	asrls	r0, r4, ip
    1f14:	00100000 	andseq	r0, r0, r0
    1f18:	014d0000 	mrseq	r0, (UNDEF: 77)
    1f1c:	720d0000 	andvc	r0, sp, #0
    1f20:	22010061 	andcs	r0, r1, #97	; 0x61
    1f24:	0000002c 	andeq	r0, r0, ip, lsr #32
    1f28:	000018e3 	andeq	r1, r0, r3, ror #17
    1f2c:	0091a40a 	addseq	sl, r1, sl, lsl #8
    1f30:	0000cb00 	andeq	ip, r0, r0, lsl #22
    1f34:	9c0a0000 	stcls	0, cr0, [sl], {-0}
    1f38:	cb000091 	blgt	2184 <_start-0x5e7c>
    1f3c:	00000000 	andeq	r0, r0, r0
    1f40:	00029104 	andeq	r9, r2, r4, lsl #2
    1f44:	b4280100 	strtlt	r0, [r8], #-256	; 0x100
    1f48:	14000091 	strne	r0, [r0], #-145	; 0x91
    1f4c:	01000000 	mrseq	r0, (UNDEF: 0)
    1f50:	0001909c 	muleq	r1, ip, r0
    1f54:	736d0b00 	cmnvc	sp, #0, 22
    1f58:	2c280100 	stfcss	f0, [r8], #-0
    1f5c:	f6000000 			; <UNDEFINED> instruction: 0xf6000000
    1f60:	07000018 	smladeq	r0, r8, r0, r0
    1f64:	000091c4 	andeq	r9, r0, r4, asr #3
    1f68:	000000f9 	strdeq	r0, [r0], -r9
    1f6c:	07500108 	ldrbeq	r0, [r0, -r8, lsl #2]
    1f70:	0a5001f3 	beq	1402744 <__bss_end__+0x13f87bc>
    1f74:	001e03e8 	andseq	r0, lr, r8, ror #7
    1f78:	05c10400 	strbeq	r0, [r1, #1024]	; 0x400
    1f7c:	2b010000 	blcs	41f84 <__bss_end__+0x37ffc>
    1f80:	000091c8 	andeq	r9, r0, r8, asr #3
    1f84:	00000014 	andeq	r0, r0, r4, lsl r0
    1f88:	01ca9c01 	biceq	r9, sl, r1, lsl #24
    1f8c:	730b0000 	movwvc	r0, #45056	; 0xb000
    1f90:	01006365 	tsteq	r0, r5, ror #6
    1f94:	00002c2b 	andeq	r2, r0, fp, lsr #24
    1f98:	00191700 	andseq	r1, r9, r0, lsl #14
    1f9c:	91d80700 	bicsls	r0, r8, r0, lsl #14
    1fa0:	01570000 	cmpeq	r7, r0
    1fa4:	01080000 	mrseq	r0, (UNDEF: 8)
    1fa8:	01f30750 	mvnseq	r0, r0, asr r7
    1fac:	03e80a50 	mvneq	r0, #80, 20	; 0x50000
    1fb0:	0e00001e 	mcreq	0, 0, r0, cr0, cr14, {0}
    1fb4:	000005de 	ldrdeq	r0, [r0], -lr
    1fb8:	002ca802 	eoreq	sl, ip, r2, lsl #16
    1fbc:	2c0f0000 	stccs	0, cr0, [pc], {-0}
    1fc0:	00000000 	andeq	r0, r0, r0
    1fc4:	00088200 	andeq	r8, r8, r0, lsl #4
    1fc8:	53000400 	movwpl	r0, #1024	; 0x400
    1fcc:	0400000b 	streq	r0, [r0], #-11
    1fd0:	00034401 	andeq	r4, r3, r1, lsl #8
    1fd4:	06430100 	strbeq	r0, [r3], -r0, lsl #2
    1fd8:	03af0000 			; <UNDEFINED> instruction: 0x03af0000
    1fdc:	91dc0000 	bicsls	r0, ip, r0
    1fe0:	05a00000 	streq	r0, [r0, #0]!
    1fe4:	0a810000 	beq	fe041fec <__bss_end__+0xfe038064>
    1fe8:	08020000 	stmdaeq	r2, {}	; <UNPREDICTABLE>
    1fec:	00004e07 	andeq	r4, r0, r7, lsl #28
    1ff0:	07040200 	streq	r0, [r4, -r0, lsl #4]
    1ff4:	00000058 	andeq	r0, r0, r8, asr r0
    1ff8:	6d060102 	stfvss	f0, [r6, #-8]
    1ffc:	02000002 	andeq	r0, r0, #2
    2000:	027f0502 	rsbseq	r0, pc, #8388608	; 0x800000
    2004:	04020000 	streq	r0, [r2], #-0
    2008:	00008305 	andeq	r8, r0, r5, lsl #6
    200c:	05080200 	streq	r0, [r8, #-512]	; 0x200
    2010:	0000007e 	andeq	r0, r0, lr, ror r0
    2014:	6b080102 	blvs	202424 <__bss_end__+0x1f849c>
    2018:	02000002 	andeq	r0, r0, #2
    201c:	01e80702 	mvneq	r0, r2, lsl #14
    2020:	04020000 	streq	r0, [r2], #-0
    2024:	00005307 	andeq	r5, r0, r7, lsl #6
    2028:	05040300 	streq	r0, [r4, #-768]	; 0x300
    202c:	00746e69 	rsbseq	r6, r4, r9, ror #28
    2030:	2d070402 	cfstrscs	mvf0, [r7, #-8]
    2034:	02000002 	andeq	r0, r0, #2
    2038:	02740801 	rsbseq	r0, r4, #65536	; 0x10000
    203c:	01040000 	mrseq	r0, (UNDEF: 4)
    2040:	00b20c02 	adcseq	r0, r2, r2, lsl #24
    2044:	55050000 	strpl	r0, [r5, #-0]
    2048:	00000006 	andeq	r0, r0, r6
    204c:	00073d05 	andeq	r3, r7, r5, lsl #26
    2050:	76050100 	strvc	r0, [r5], -r0, lsl #2
    2054:	04000007 	streq	r0, [r0], #-7
    2058:	00078505 	andeq	r8, r7, r5, lsl #10
    205c:	94050500 	strls	r0, [r5], #-1280	; 0x500
    2060:	06000007 	streq	r0, [r0], -r7
    2064:	0007a305 	andeq	sl, r7, r5, lsl #6
    2068:	b2050700 	andlt	r0, r5, #0, 14
    206c:	03000007 	movweq	r0, #7
    2070:	0007c105 	andeq	ip, r7, r5, lsl #2
    2074:	06000200 	streq	r0, [r0], -r0, lsl #4
    2078:	0000076a 	andeq	r0, r0, sl, ror #14
    207c:	00791502 	rsbseq	r1, r9, r2, lsl #10
    2080:	2d070000 	stccs	0, cr0, [r7, #-0]
    2084:	01000007 	tsteq	r0, r7
    2088:	0091dc3f 	addseq	sp, r1, pc, lsr ip
    208c:	0000d400 	andeq	sp, r0, r0, lsl #8
    2090:	339c0100 	orrscc	r0, ip, #0, 2
    2094:	08000001 	stmdaeq	r0, {r0}
    2098:	006e6970 	rsbeq	r6, lr, r0, ror r9
    209c:	002c3f01 	eoreq	r3, ip, r1, lsl #30
    20a0:	19380000 	ldmdbne	r8!, {}	; <UNPREDICTABLE>
    20a4:	77090000 	strvc	r0, [r9, -r0]
    20a8:	01000006 	tsteq	r0, r6
    20ac:	00013347 	andeq	r3, r1, r7, asr #6
    20b0:	00195600 	andseq	r5, r9, r0, lsl #12
    20b4:	07d00900 	ldrbeq	r0, [r0, r0, lsl #18]
    20b8:	49010000 	stmdbmi	r1, {}	; <UNPREDICTABLE>
    20bc:	0000002c 	andeq	r0, r0, ip, lsr #32
    20c0:	000019ab 	andeq	r1, r0, fp, lsr #19
    20c4:	0006f809 	andeq	pc, r6, r9, lsl #16
    20c8:	2c570100 	ldfcse	f0, [r7], {-0}
    20cc:	77000000 	strvc	r0, [r0, -r0]
    20d0:	0a00001b 	beq	2144 <_start-0x5ebc>
    20d4:	00009270 	andeq	r9, r0, r0, ror r2
    20d8:	00000841 	andeq	r0, r0, r1, asr #16
    20dc:	00000122 	andeq	r0, r0, r2, lsr #2
    20e0:	0250010b 	subseq	r0, r0, #-1073741822	; 0xc0000002
    20e4:	0c000075 	stceq	0, cr0, [r0], {117}	; 0x75
    20e8:	000092a4 	andeq	r9, r0, r4, lsr #5
    20ec:	00000862 	andeq	r0, r0, r2, ror #16
    20f0:	0250010b 	subseq	r0, r0, #-1073741822	; 0xc0000002
    20f4:	00000075 	andeq	r0, r0, r5, ror r0
    20f8:	0139040d 	teqeq	r9, sp, lsl #8
    20fc:	2c0e0000 	stccs	0, cr0, [lr], {-0}
    2100:	07000000 	streq	r0, [r0, -r0]
    2104:	0000006a 	andeq	r0, r0, sl, rrx
    2108:	92b06001 	adcsls	r6, r0, #1
    210c:	00380000 	eorseq	r0, r8, r0
    2110:	9c010000 	stcls	0, cr0, [r1], {-0}
    2114:	00000196 	muleq	r0, r6, r1
    2118:	6e697008 	cdpvs	0, 6, cr7, cr9, cr8, {0}
    211c:	2c600100 	stfcse	f0, [r0], #-0
    2120:	a7000000 	strge	r0, [r0, -r0]
    2124:	0900001b 	stmdbeq	r0, {r0, r1, r3, r4}
    2128:	00000677 	andeq	r0, r0, r7, ror r6
    212c:	01336701 	teqeq	r3, r1, lsl #14
    2130:	1bc80000 	blne	ff202138 <__bss_end__+0xff1f81b0>
    2134:	f8090000 			; <UNDEFINED> instruction: 0xf8090000
    2138:	01000006 	tsteq	r0, r6
    213c:	00002c68 	andeq	r2, r0, r8, ror #24
    2140:	001bfe00 	andseq	pc, fp, r0, lsl #28
    2144:	92e00c00 	rscls	r0, r0, #0, 24
    2148:	08620000 	stmdaeq	r2!, {}^	; <UNPREDICTABLE>
    214c:	010b0000 	mrseq	r0, (UNDEF: 11)
    2150:	f3310751 	vaba.u<illegal width 64>	q0, <illegal reg q0.5>, <illegal reg q0.5>
    2154:	1a4f5001 	bne	13d6160 <__bss_end__+0x13cc1d8>
    2158:	07000024 	streq	r0, [r0, -r4, lsr #32]
    215c:	000000ca 	andeq	r0, r0, sl, asr #1
    2160:	92e87b01 	rscls	r7, r8, #1024	; 0x400
    2164:	00380000 	eorseq	r0, r8, r0
    2168:	9c010000 	stcls	0, cr0, [r1], {-0}
    216c:	000001ee 	andeq	r0, r0, lr, ror #3
    2170:	6e697008 	cdpvs	0, 6, cr7, cr9, cr8, {0}
    2174:	2c7b0100 	ldfcse	f0, [fp], #-0
    2178:	3e000000 	cdpcc	0, 0, cr0, cr0, cr0, {0}
    217c:	0900001c 	stmdbeq	r0, {r2, r3, r4}
    2180:	00000677 	andeq	r0, r0, r7, ror r6
    2184:	01338101 	teqeq	r3, r1, lsl #2
    2188:	1c5f0000 	mrane	r0, pc, acc0
    218c:	f8090000 			; <UNDEFINED> instruction: 0xf8090000
    2190:	01000006 	tsteq	r0, r6
    2194:	00002c82 	andeq	r2, r0, r2, lsl #25
    2198:	001c9500 	andseq	r9, ip, r0, lsl #10
    219c:	93180c00 	tstls	r8, #0, 24
    21a0:	08620000 	stmdaeq	r2!, {}^	; <UNPREDICTABLE>
    21a4:	010b0000 	mrseq	r0, (UNDEF: 11)
    21a8:	f3310751 	vaba.u<illegal width 64>	q0, <illegal reg q0.5>, <illegal reg q0.5>
    21ac:	1a4f5001 	bne	13d61b8 <__bss_end__+0x13cc230>
    21b0:	07000024 	streq	r0, [r0, -r4, lsr #32]
    21b4:	000002cc 	andeq	r0, r0, ip, asr #5
    21b8:	93209501 	teqls	r0, #4194304	; 0x400000
    21bc:	00cc0000 	sbceq	r0, ip, r0
    21c0:	9c010000 	stcls	0, cr0, [r1], {-0}
    21c4:	00000264 	andeq	r0, r0, r4, ror #4
    21c8:	6e697008 	cdpvs	0, 6, cr7, cr9, cr8, {0}
    21cc:	2c950100 	ldfcss	f0, [r5], {0}
    21d0:	d5000000 	strle	r0, [r0, #-0]
    21d4:	0900001c 	stmdbeq	r0, {r2, r3, r4}
    21d8:	00000677 	andeq	r0, r0, r7, ror r6
    21dc:	01339b01 	teqeq	r3, r1, lsl #22
    21e0:	1cf30000 	ldclne	0, cr0, [r3]
    21e4:	d0090000 	andle	r0, r9, r0
    21e8:	01000007 	tsteq	r0, r7
    21ec:	00002c9d 	muleq	r0, sp, ip
    21f0:	001d4800 	andseq	r4, sp, r0, lsl #16
    21f4:	06f80900 	ldrbteq	r0, [r8], r0, lsl #18
    21f8:	ab010000 	blge	42200 <__bss_end__+0x38278>
    21fc:	0000002c 	andeq	r0, r0, ip, lsr #32
    2200:	00001f14 	andeq	r1, r0, r4, lsl pc
    2204:	0093b40a 	addseq	fp, r3, sl, lsl #8
    2208:	00084100 	andeq	r4, r8, r0, lsl #2
    220c:	00025300 	andeq	r5, r2, r0, lsl #6
    2210:	50010b00 	andpl	r0, r1, r0, lsl #22
    2214:	00007502 	andeq	r7, r0, r2, lsl #10
    2218:	0093e00c 	addseq	lr, r3, ip
    221c:	00086200 	andeq	r6, r8, r0, lsl #4
    2220:	50010b00 	andpl	r0, r1, r0, lsl #22
    2224:	00007502 	andeq	r7, r0, r2, lsl #10
    2228:	068c0f00 	streq	r0, [ip], r0, lsl #30
    222c:	b2010000 	andlt	r0, r1, #0
    2230:	00000064 	andeq	r0, r0, r4, rrx
    2234:	000093ec 	andeq	r9, r0, ip, ror #7
    2238:	0000004c 	andeq	r0, r0, ip, asr #32
    223c:	02ac9c01 	adceq	r9, ip, #256	; 0x100
    2240:	70080000 	andvc	r0, r8, r0
    2244:	01006e69 	tsteq	r0, r9, ror #28
    2248:	00002cb2 			; <UNDEFINED> instruction: 0x00002cb2
    224c:	001f3200 	andseq	r3, pc, r0, lsl #4
    2250:	00761000 	rsbseq	r1, r6, r0
    2254:	002cb801 	eoreq	fp, ip, r1, lsl #16
    2258:	1f8a0000 	svcne	0x008a0000
    225c:	0c110000 	ldceq	0, cr0, [r1], {-0}
    2260:	41000094 	swpmi	r0, r4, [r0]	; <UNPREDICTABLE>
    2264:	11000008 	tstne	r0, r8
    2268:	0000941c 	andeq	r9, r0, ip, lsl r4
    226c:	00000841 	andeq	r0, r0, r1, asr #16
    2270:	00260700 	eoreq	r0, r6, r0, lsl #14
    2274:	c4010000 	strgt	r0, [r1], #-0
    2278:	00009438 	andeq	r9, r0, r8, lsr r4
    227c:	00000024 	andeq	r0, r0, r4, lsr #32
    2280:	02fc9c01 	rscseq	r9, ip, #256	; 0x100
    2284:	70080000 	andvc	r0, r8, r0
    2288:	01006e69 	tsteq	r0, r9, ror #28
    228c:	00002cc4 	andeq	r2, r0, r4, asr #25
    2290:	001fc000 	andseq	ip, pc, r0
    2294:	00760800 	rsbseq	r0, r6, r0, lsl #16
    2298:	002cc401 	eoreq	ip, ip, r1, lsl #8
    229c:	1ffa0000 	svcne	0x00fa0000
    22a0:	500a0000 	andpl	r0, sl, r0
    22a4:	3e000094 	mcrcc	0, 0, r0, cr0, cr4, {4}
    22a8:	f2000001 	vhadd.s8	d0, d0, d1
    22ac:	0b000002 	bleq	22bc <_start-0x5d44>
    22b0:	f3035001 	vhadd.u8	d5, d3, d1
    22b4:	11005001 	tstne	r0, r1
    22b8:	00009458 	andeq	r9, r0, r8, asr r4
    22bc:	00000196 	muleq	r0, r6, r1
    22c0:	06ab0700 	strteq	r0, [fp], r0, lsl #14
    22c4:	d0010000 	andle	r0, r1, r0
    22c8:	0000945c 	andeq	r9, r0, ip, asr r4
    22cc:	000000d8 	ldrdeq	r0, [r0], -r8
    22d0:	03819c01 	orreq	r9, r1, #256	; 0x100
    22d4:	70080000 	andvc	r0, r8, r0
    22d8:	01006e69 	tsteq	r0, r9, ror #28
    22dc:	00002cd0 	ldrdeq	r2, [r0], -r0
    22e0:	00203400 	eoreq	r3, r0, r0, lsl #8
    22e4:	07001200 	streq	r1, [r0, -r0, lsl #4]
    22e8:	d0010000 	andle	r0, r1, r0
    22ec:	000000b2 	strheq	r0, [r0], -r2
    22f0:	00002052 	andeq	r2, r0, r2, asr r0
    22f4:	00067709 	andeq	r7, r6, r9, lsl #14
    22f8:	33d80100 	bicscc	r0, r8, #0, 2
    22fc:	73000001 	movwvc	r0, #1
    2300:	09000020 	stmdbeq	r0, {r5}
    2304:	000007d0 	ldrdeq	r0, [r0], -r0	; <UNPREDICTABLE>
    2308:	002cd901 	eoreq	sp, ip, r1, lsl #18
    230c:	20c80000 	sbccs	r0, r8, r0
    2310:	f8090000 			; <UNDEFINED> instruction: 0xf8090000
    2314:	01000006 	tsteq	r0, r6
    2318:	00002ce7 	andeq	r2, r0, r7, ror #25
    231c:	00229400 	eoreq	r9, r2, r0, lsl #8
    2320:	94f80a00 	ldrbtls	r0, [r8], #2560	; 0xa00
    2324:	08410000 	stmdaeq	r1, {}^	; <UNPREDICTABLE>
    2328:	03700000 	cmneq	r0, #0
    232c:	010b0000 	mrseq	r0, (UNDEF: 11)
    2330:	00760250 	rsbseq	r0, r6, r0, asr r2
    2334:	95280c00 	strls	r0, [r8, #-3072]!	; 0xc00
    2338:	08620000 	stmdaeq	r2!, {}^	; <UNPREDICTABLE>
    233c:	010b0000 	mrseq	r0, (UNDEF: 11)
    2340:	00760250 	rsbseq	r0, r6, r0, asr r2
    2344:	05070000 	streq	r0, [r7, #-0]
    2348:	01000007 	tsteq	r0, r7
    234c:	009534f0 			; <UNDEFINED> instruction: 0x009534f0
    2350:	00003800 	andeq	r3, r0, r0, lsl #16
    2354:	d99c0100 	ldmible	ip, {r8}
    2358:	08000003 	stmdaeq	r0, {r0, r1}
    235c:	006e6970 	rsbeq	r6, lr, r0, ror r9
    2360:	002cf001 	eoreq	pc, ip, r1
    2364:	22c50000 	sbccs	r0, r5, #0
    2368:	77090000 	strvc	r0, [r9, -r0]
    236c:	01000006 	tsteq	r0, r6
    2370:	000133f6 	strdeq	r3, [r1], -r6
    2374:	0022e600 	eoreq	lr, r2, r0, lsl #12
    2378:	06f80900 	ldrbteq	r0, [r8], r0, lsl #18
    237c:	f7010000 			; <UNDEFINED> instruction: 0xf7010000
    2380:	0000002c 	andeq	r0, r0, ip, lsr #32
    2384:	0000231c 	andeq	r2, r0, ip, lsl r3
    2388:	0095640c 	addseq	r6, r5, ip, lsl #8
    238c:	00086200 	andeq	r6, r8, r0, lsl #4
    2390:	51010b00 	tstpl	r1, r0, lsl #22
    2394:	01f33107 	mvnseq	r3, r7, lsl #2
    2398:	241a4f50 	ldrcs	r4, [sl], #-3920	; 0xf50
    239c:	37130000 	ldrcc	r0, [r3, -r0]
    23a0:	01000006 	tsteq	r0, r6
    23a4:	0064011e 	rsbeq	r0, r4, lr, lsl r1
    23a8:	956c0000 	strbls	r0, [ip, #-0]!
    23ac:	002c0000 	eoreq	r0, ip, r0
    23b0:	9c010000 	stcls	0, cr0, [r1], {-0}
    23b4:	0000040d 	andeq	r0, r0, sp, lsl #8
    23b8:	00063a14 	andeq	r3, r6, r4, lsl sl
    23bc:	011e0100 	tsteq	lr, r0, lsl #2
    23c0:	0000002c 	andeq	r0, r0, ip, lsr #32
    23c4:	0000235c 	andeq	r2, r0, ip, asr r3
    23c8:	00957c11 	addseq	r7, r5, r1, lsl ip
    23cc:	00084100 	andeq	r4, r8, r0, lsl #2
    23d0:	96150000 	ldrls	r0, [r5], -r0
    23d4:	01000006 	tsteq	r0, r6
    23d8:	9598012d 	ldrls	r0, [r8, #301]	; 0x12d
    23dc:	00840000 	addeq	r0, r4, r0
    23e0:	9c010000 	stcls	0, cr0, [r1], {-0}
    23e4:	000004d1 	ldrdeq	r0, [r0], -r1
    23e8:	6e697016 	mcrvs	0, 3, r7, cr9, cr6, {0}
    23ec:	012d0100 	teqeq	sp, r0, lsl #2
    23f0:	0000002c 	andeq	r0, r0, ip, lsr #32
    23f4:	0000237d 	andeq	r2, r0, sp, ror r3
    23f8:	00066517 	andeq	r6, r6, r7, lsl r5
    23fc:	013f0100 	teqeq	pc, r0, lsl #2
    2400:	0000002c 	andeq	r0, r0, ip, lsr #32
    2404:	000023a9 	andeq	r2, r0, r9, lsr #7
    2408:	0095b418 	addseq	fp, r5, r8, lsl r4
    240c:	00001c00 	andeq	r1, r0, r0, lsl #24
    2410:	00047300 	andeq	r7, r4, r0, lsl #6
    2414:	06f81700 	ldrbteq	r1, [r8], r0, lsl #14
    2418:	36010000 	strcc	r0, [r1], -r0
    241c:	00002c01 	andeq	r2, r0, r1, lsl #24
    2420:	0023c700 	eoreq	ip, r3, r0, lsl #14
    2424:	95c01100 	strbls	r1, [r0, #256]	; 0x100
    2428:	08410000 	stmdaeq	r1, {}^	; <UNPREDICTABLE>
    242c:	d0110000 	andsle	r0, r1, r0
    2430:	62000095 	andvs	r0, r0, #149	; 0x95
    2434:	00000008 	andeq	r0, r0, r8
    2438:	0095d418 	addseq	sp, r5, r8, lsl r4
    243c:	00002000 	andeq	r2, r0, r0
    2440:	0004a300 	andeq	sl, r4, r0, lsl #6
    2444:	06f81700 	ldrbteq	r1, [r8], r0, lsl #14
    2448:	3a010000 	bcc	42450 <__bss_end__+0x384c8>
    244c:	00002c01 	andeq	r2, r0, r1, lsl #24
    2450:	0023e500 	eoreq	lr, r3, r0, lsl #10
    2454:	95e01100 	strbls	r1, [r0, #256]!	; 0x100
    2458:	08410000 	stmdaeq	r1, {}^	; <UNPREDICTABLE>
    245c:	f4110000 			; <UNDEFINED> instruction: 0xf4110000
    2460:	62000095 	andvs	r0, r0, #149	; 0x95
    2464:	00000008 	andeq	r0, r0, r8
    2468:	0095ac11 	addseq	sl, r5, r1, lsl ip
    246c:	00087e00 	andeq	r7, r8, r0, lsl #28
    2470:	95f81100 	ldrbls	r1, [r8, #256]!	; 0x100
    2474:	087e0000 	ldmdaeq	lr!, {}^	; <UNPREDICTABLE>
    2478:	04110000 	ldreq	r0, [r1], #-0
    247c:	41000096 	swpmi	r0, r6, [r0]	; <UNPREDICTABLE>
    2480:	11000008 	tstne	r0, r8
    2484:	00009610 	andeq	r9, r0, r0, lsl r6
    2488:	00000862 	andeq	r0, r0, r2, ror #16
    248c:	00961411 	addseq	r1, r6, r1, lsl r4
    2490:	00087e00 	andeq	r7, r8, r0, lsl #28
    2494:	54150000 	ldrpl	r0, [r5], #-0
    2498:	01000007 	tsteq	r0, r7
    249c:	961c014a 	ldrls	r0, [ip], -sl, asr #2
    24a0:	00840000 	addeq	r0, r4, r0
    24a4:	9c010000 	stcls	0, cr0, [r1], {-0}
    24a8:	00000595 	muleq	r0, r5, r5
    24ac:	6e697016 	mcrvs	0, 3, r7, cr9, cr6, {0}
    24b0:	014a0100 	mrseq	r0, (UNDEF: 90)
    24b4:	0000002c 	andeq	r0, r0, ip, lsr #32
    24b8:	00002403 	andeq	r2, r0, r3, lsl #8
    24bc:	00066517 	andeq	r6, r6, r7, lsl r5
    24c0:	015b0100 	cmpeq	fp, r0, lsl #2
    24c4:	0000002c 	andeq	r0, r0, ip, lsr #32
    24c8:	0000242f 	andeq	r2, r0, pc, lsr #8
    24cc:	00963818 	addseq	r3, r6, r8, lsl r8
    24d0:	00001c00 	andeq	r1, r0, r0, lsl #24
    24d4:	00053700 	andeq	r3, r5, r0, lsl #14
    24d8:	06f81700 	ldrbteq	r1, [r8], r0, lsl #14
    24dc:	52010000 	andpl	r0, r1, #0
    24e0:	00002c01 	andeq	r2, r0, r1, lsl #24
    24e4:	00244d00 	eoreq	r4, r4, r0, lsl #26
    24e8:	96441100 	strbls	r1, [r4], -r0, lsl #2
    24ec:	08410000 	stmdaeq	r1, {}^	; <UNPREDICTABLE>
    24f0:	54110000 	ldrpl	r0, [r1], #-0
    24f4:	62000096 	andvs	r0, r0, #150	; 0x96
    24f8:	00000008 	andeq	r0, r0, r8
    24fc:	00965818 	addseq	r5, r6, r8, lsl r8
    2500:	00002000 	andeq	r2, r0, r0
    2504:	00056700 	andeq	r6, r5, r0, lsl #14
    2508:	06f81700 	ldrbteq	r1, [r8], r0, lsl #14
    250c:	56010000 	strpl	r0, [r1], -r0
    2510:	00002c01 	andeq	r2, r0, r1, lsl #24
    2514:	00246b00 	eoreq	r6, r4, r0, lsl #22
    2518:	96641100 	strbtls	r1, [r4], -r0, lsl #2
    251c:	08410000 	stmdaeq	r1, {}^	; <UNPREDICTABLE>
    2520:	78110000 	ldmdavc	r1, {}	; <UNPREDICTABLE>
    2524:	62000096 	andvs	r0, r0, #150	; 0x96
    2528:	00000008 	andeq	r0, r0, r8
    252c:	00963011 	addseq	r3, r6, r1, lsl r0
    2530:	00087e00 	andeq	r7, r8, r0, lsl #28
    2534:	967c1100 	ldrbtls	r1, [ip], -r0, lsl #2
    2538:	087e0000 	ldmdaeq	lr!, {}^	; <UNPREDICTABLE>
    253c:	88110000 	ldmdahi	r1, {}	; <UNPREDICTABLE>
    2540:	41000096 	swpmi	r0, r6, [r0]	; <UNPREDICTABLE>
    2544:	11000008 	tstne	r0, r8
    2548:	00009694 	muleq	r0, r4, r6
    254c:	00000862 	andeq	r0, r0, r2, ror #16
    2550:	00969811 	addseq	r9, r6, r1, lsl r8
    2554:	00087e00 	andeq	r7, r8, r0, lsl #28
    2558:	0f130000 	svceq	0x00130000
    255c:	01000006 	tsteq	r0, r6
    2560:	00640165 	rsbeq	r0, r4, r5, ror #2
    2564:	96a00000 	strtls	r0, [r0], r0
    2568:	00840000 	addeq	r0, r4, r0
    256c:	9c010000 	stcls	0, cr0, [r1], {-0}
    2570:	0000063b 	andeq	r0, r0, fp, lsr r6
    2574:	6e697016 	mcrvs	0, 3, r7, cr9, cr6, {0}
    2578:	01650100 	cmneq	r5, r0, lsl #2
    257c:	0000002c 	andeq	r0, r0, ip, lsr #32
    2580:	00002489 	andeq	r2, r0, r9, lsl #9
    2584:	0096bc18 	addseq	fp, r6, r8, lsl ip
    2588:	00002400 	andeq	r2, r0, r0, lsl #8
    258c:	0005ef00 	andeq	lr, r5, r0, lsl #30
    2590:	066e1700 	strbteq	r1, [lr], -r0, lsl #14
    2594:	6c010000 	stcvs	0, cr0, [r1], {-0}
    2598:	00002c01 	andeq	r2, r0, r1, lsl #24
    259c:	0024cb00 	eoreq	ip, r4, r0, lsl #22
    25a0:	96c81100 	strbls	r1, [r8], r0, lsl #2
    25a4:	08410000 	stmdaeq	r1, {}^	; <UNPREDICTABLE>
    25a8:	d8110000 	ldmdale	r1, {}	; <UNPREDICTABLE>
    25ac:	7e000096 	mcrvc	0, 0, r0, cr0, cr6, {4}
    25b0:	00000008 	andeq	r0, r0, r8
    25b4:	0096e018 	addseq	lr, r6, r8, lsl r0
    25b8:	00002c00 	andeq	r2, r0, r0, lsl #24
    25bc:	00062800 	andeq	r2, r6, r0, lsl #16
    25c0:	066e1700 	strbteq	r1, [lr], -r0, lsl #14
    25c4:	6f010000 	svcvs	0x00010000
    25c8:	00002c01 	andeq	r2, r0, r1, lsl #24
    25cc:	0024e500 	eoreq	lr, r4, r0, lsl #10
    25d0:	96ec1100 	strbtls	r1, [ip], r0, lsl #2
    25d4:	08410000 	stmdaeq	r1, {}^	; <UNPREDICTABLE>
    25d8:	f8110000 			; <UNDEFINED> instruction: 0xf8110000
    25dc:	7e000096 	mcrvc	0, 0, r0, cr0, cr6, {4}
    25e0:	11000008 	tstne	r0, r8
    25e4:	00009704 	andeq	r9, r0, r4, lsl #14
    25e8:	0000087e 	andeq	r0, r0, lr, ror r8
    25ec:	96b41100 	ldrtls	r1, [r4], r0, lsl #2
    25f0:	087e0000 	ldmdaeq	lr!, {}^	; <UNPREDICTABLE>
    25f4:	10110000 	andsne	r0, r1, r0
    25f8:	7e000097 	mcrvc	0, 0, r0, cr0, cr7, {4}
    25fc:	00000008 	andeq	r0, r0, r8
    2600:	0006cb15 	andeq	ip, r6, r5, lsl fp
    2604:	01780100 	cmneq	r8, r0, lsl #2
    2608:	00009724 	andeq	r9, r0, r4, lsr #14
    260c:	00000058 	andeq	r0, r0, r8, asr r0
    2610:	06a09c01 	strteq	r9, [r0], r1, lsl #24
    2614:	70160000 	andsvc	r0, r6, r0
    2618:	01006e69 	tsteq	r0, r9, ror #28
    261c:	002c0178 	eoreq	r0, ip, r8, ror r1
    2620:	24f80000 	ldrbtcs	r0, [r8], #0
    2624:	38110000 	ldmdacc	r1, {}	; <UNPREDICTABLE>
    2628:	7e000097 	mcrvc	0, 0, r0, cr0, cr7, {4}
    262c:	0a000008 	beq	2654 <_start-0x59ac>
    2630:	00009754 	andeq	r9, r0, r4, asr r7
    2634:	00000862 	andeq	r0, r0, r2, ror #16
    2638:	00000680 	andeq	r0, r0, r0, lsl #13
    263c:	0451010b 	ldrbeq	r0, [r1], #-267	; 0x10b
    2640:	24007431 	strcs	r7, [r0], #-1073	; 0x431
    2644:	97700a00 	ldrbls	r0, [r0, -r0, lsl #20]!
    2648:	08620000 	stmdaeq	r2!, {}^	; <UNPREDICTABLE>
    264c:	06960000 	ldreq	r0, [r6], r0
    2650:	010b0000 	mrseq	r0, (UNDEF: 11)
    2654:	74310451 	ldrtvc	r0, [r1], #-1105	; 0x451
    2658:	11002400 	tstne	r0, r0, lsl #8
    265c:	00009774 	andeq	r9, r0, r4, ror r7
    2660:	0000087e 	andeq	r0, r0, lr, ror r8
    2664:	020e1900 	andeq	r1, lr, #0, 18
    2668:	28010000 	stmdacs	r1, {}	; <UNPREDICTABLE>
    266c:	00000133 	andeq	r0, r0, r3, lsr r1
    2670:	99980305 	ldmibls	r8, {r0, r2, r8, r9}
    2674:	ae190000 	cdpge	0, 1, cr0, cr9, cr0, {0}
    2678:	01000002 	tsteq	r0, r2
    267c:	00013329 	andeq	r3, r1, r9, lsr #6
    2680:	94030500 	strls	r0, [r3], #-1280	; 0x500
    2684:	19000099 	stmdbne	r0, {r0, r3, r4, r7}
    2688:	00000010 	andeq	r0, r0, r0, lsl r0
    268c:	01332a01 	teqeq	r3, r1, lsl #20
    2690:	03050000 	movweq	r0, #20480	; 0x5000
    2694:	00009990 	muleq	r0, r0, r9
    2698:	00015419 	andeq	r5, r1, r9, lsl r4
    269c:	332c0100 	teqcc	ip, #0, 2
    26a0:	05000001 	streq	r0, [r0, #-1]
    26a4:	00993c03 	addseq	r3, r9, r3, lsl #24
    26a8:	00001900 	andeq	r1, r0, r0, lsl #18
    26ac:	2d010000 	stccs	0, cr0, [r1, #-0]
    26b0:	00000133 	andeq	r0, r0, r3, lsr r1
    26b4:	99400305 	stmdbls	r0, {r0, r2, r8, r9}^
    26b8:	08190000 	ldmdaeq	r9, {}	; <UNPREDICTABLE>
    26bc:	01000000 	mrseq	r0, (UNDEF: 0)
    26c0:	0001332e 	andeq	r3, r1, lr, lsr #6
    26c4:	44030500 	strmi	r0, [r3], #-1280	; 0x500
    26c8:	19000099 	stmdbne	r0, {r0, r3, r4, r7}
    26cc:	000001b3 			; <UNDEFINED> instruction: 0x000001b3
    26d0:	01332f01 	teqeq	r3, r1, lsl #30
    26d4:	03050000 	movweq	r0, #20480	; 0x5000
    26d8:	00009948 	andeq	r9, r0, r8, asr #18
    26dc:	0001bb19 	andeq	fp, r1, r9, lsl fp
    26e0:	33300100 	teqcc	r0, #0, 2
    26e4:	05000001 	streq	r0, [r0, #-1]
    26e8:	00994c03 	addseq	r4, r9, r3, lsl #24
    26ec:	01c31900 	biceq	r1, r3, r0, lsl #18
    26f0:	31010000 	mrscc	r0, (UNDEF: 1)
    26f4:	00000133 	andeq	r0, r0, r3, lsr r1
    26f8:	99500305 	ldmdbls	r0, {r0, r2, r8, r9}^
    26fc:	a1190000 	tstge	r9, r0
    2700:	01000000 	mrseq	r0, (UNDEF: 0)
    2704:	00013333 	andeq	r3, r1, r3, lsr r3
    2708:	54030500 	strpl	r0, [r3], #-1280	; 0x500
    270c:	19000099 	stmdbne	r0, {r0, r3, r4, r7}
    2710:	000000a8 	andeq	r0, r0, r8, lsr #1
    2714:	01333401 	teqeq	r3, r1, lsl #8
    2718:	03050000 	movweq	r0, #20480	; 0x5000
    271c:	00009958 	andeq	r9, r0, r8, asr r9
    2720:	00001a19 	andeq	r1, r0, r9, lsl sl
    2724:	33360100 	teqcc	r6, #0, 2
    2728:	05000001 	streq	r0, [r0, #-1]
    272c:	00995c03 	addseq	r5, r9, r3, lsl #24
    2730:	02191900 	andseq	r1, r9, #0, 18
    2734:	37010000 	strcc	r0, [r1, -r0]
    2738:	00000133 	andeq	r0, r0, r3, lsr r1
    273c:	99600305 	stmdbls	r0!, {r0, r2, r8, r9}^
    2740:	af190000 	svcge	0x00190000
    2744:	01000000 	mrseq	r0, (UNDEF: 0)
    2748:	00013339 	andeq	r3, r1, r9, lsr r3
    274c:	64030500 	strvs	r0, [r3], #-1280	; 0x500
    2750:	19000099 	stmdbne	r0, {r0, r3, r4, r7}
    2754:	000000b6 	strheq	r0, [r0], -r6
    2758:	01333a01 	teqeq	r3, r1, lsl #20
    275c:	03050000 	movweq	r0, #20480	; 0x5000
    2760:	00009968 	andeq	r9, r0, r8, ror #18
    2764:	0006dc1a 	andeq	sp, r6, sl, lsl ip
    2768:	01090100 	mrseq	r0, (UNDEF: 25)
    276c:	00000133 	andeq	r0, r0, r3, lsr r1
    2770:	998c0305 	stmibls	ip, {r0, r2, r8, r9}
    2774:	ea1a0000 	b	68277c <__bss_end__+0x6787f4>
    2778:	01000006 	tsteq	r0, r6
    277c:	0133010a 	teqeq	r3, sl, lsl #2
    2780:	03050000 	movweq	r0, #20480	; 0x5000
    2784:	0000996c 	andeq	r9, r0, ip, ror #18
    2788:	0007111a 	andeq	r1, r7, sl, lsl r1
    278c:	010c0100 	mrseq	r0, (UNDEF: 28)
    2790:	00000133 	andeq	r0, r0, r3, lsr r1
    2794:	99840305 	stmibls	r4, {r0, r2, r8, r9}
    2798:	181a0000 	ldmdane	sl, {}	; <UNPREDICTABLE>
    279c:	01000007 	tsteq	r0, r7
    27a0:	0133010d 	teqeq	r3, sp, lsl #2
    27a4:	03050000 	movweq	r0, #20480	; 0x5000
    27a8:	00009988 	andeq	r9, r0, r8, lsl #19
    27ac:	0006bd1a 	andeq	fp, r6, sl, lsl sp
    27b0:	010f0100 	mrseq	r0, (UNDEF: 31)
    27b4:	00000133 	andeq	r0, r0, r3, lsr r1
    27b8:	99700305 	ldmdbls	r0!, {r0, r2, r8, r9}^
    27bc:	c41a0000 	ldrgt	r0, [sl], #-0
    27c0:	01000006 	tsteq	r0, r6
    27c4:	01330110 	teqeq	r3, r0, lsl r1
    27c8:	03050000 	movweq	r0, #20480	; 0x5000
    27cc:	00009974 	andeq	r9, r0, r4, ror r9
    27d0:	00071f1a 	andeq	r1, r7, sl, lsl pc
    27d4:	01120100 	tsteq	r2, r0, lsl #2
    27d8:	00000133 	andeq	r0, r0, r3, lsr r1
    27dc:	997c0305 	ldmdbls	ip!, {r0, r2, r8, r9}^
    27e0:	261a0000 	ldrcs	r0, [sl], -r0
    27e4:	01000007 	tsteq	r0, r7
    27e8:	01330113 	teqeq	r3, r3, lsl r1
    27ec:	03050000 	movweq	r0, #20480	; 0x5000
    27f0:	00009980 	andeq	r9, r0, r0, lsl #19
    27f4:	0006291a 	andeq	r2, r6, sl, lsl r9
    27f8:	01150100 	tsteq	r5, r0, lsl #2
    27fc:	00000133 	andeq	r0, r0, r3, lsr r1
    2800:	99780305 	ldmdbls	r8!, {r0, r2, r8, r9}^
    2804:	4e1b0000 	cdpmi	0, 1, cr0, cr11, cr0, {0}
    2808:	01000007 	tsteq	r0, r7
    280c:	00002c20 	andeq	r2, r0, r0, lsr #24
    2810:	00085600 	andeq	r5, r8, r0, lsl #12
    2814:	08561c00 	ldmdaeq	r6, {sl, fp, ip}^
    2818:	0d000000 	stceq	0, cr0, [r0, #-0]
    281c:	00085c04 	andeq	r5, r8, r4, lsl #24
    2820:	08611d00 	stmdaeq	r1!, {r8, sl, fp, ip}^
    2824:	1f1e0000 	svcne	0x001e0000
    2828:	00000623 	andeq	r0, r0, r3, lsr #12
    282c:	08781e01 	ldmdaeq	r8!, {r0, r9, sl, fp, ip}^
    2830:	781c0000 	ldmdavc	ip, {}	; <UNPREDICTABLE>
    2834:	1c000008 	stcne	0, cr0, [r0], {8}
    2838:	0000002c 	andeq	r0, r0, ip, lsr #32
    283c:	61040d00 	tstvs	r4, r0, lsl #26
    2840:	20000008 	andcs	r0, r0, r8
    2844:	00000680 	andeq	r0, r0, r0, lsl #13
    2848:	ff008a03 			; <UNDEFINED> instruction: 0xff008a03
    284c:	04000003 	streq	r0, [r0], #-3
    2850:	000d2d00 	andeq	r2, sp, r0, lsl #26
    2854:	44010400 	strmi	r0, [r1], #-1024	; 0x400
    2858:	01000003 	tsteq	r0, r3
    285c:	000008b6 			; <UNDEFINED> instruction: 0x000008b6
    2860:	000003af 	andeq	r0, r0, pc, lsr #7
    2864:	0000977c 	andeq	r9, r0, ip, ror r7
    2868:	00000154 	andeq	r0, r0, r4, asr r1
    286c:	00000c08 	andeq	r0, r0, r8, lsl #24
    2870:	69050402 	stmdbvs	r5, {r1, sl}
    2874:	0300746e 	movweq	r7, #1134	; 0x46e
    2878:	00580704 	subseq	r0, r8, r4, lsl #14
    287c:	01030000 	mrseq	r0, (UNDEF: 3)
    2880:	00026d06 	andeq	r6, r2, r6, lsl #26
    2884:	05020300 	streq	r0, [r2, #-768]	; 0x300
    2888:	0000027f 	andeq	r0, r0, pc, ror r2
    288c:	83050403 	movwhi	r0, #21507	; 0x5403
    2890:	03000000 	movweq	r0, #0
    2894:	007e0508 	rsbseq	r0, lr, r8, lsl #10
    2898:	01030000 	mrseq	r0, (UNDEF: 3)
    289c:	00026b08 	andeq	r6, r2, r8, lsl #22
    28a0:	07020300 	streq	r0, [r2, -r0, lsl #6]
    28a4:	000001e8 	andeq	r0, r0, r8, ror #3
    28a8:	53070403 	movwpl	r0, #29699	; 0x7403
    28ac:	03000000 	movweq	r0, #0
    28b0:	004e0708 	subeq	r0, lr, r8, lsl #14
    28b4:	04030000 	streq	r0, [r3], #-0
    28b8:	00022d07 	andeq	r2, r2, r7, lsl #26
    28bc:	08010300 	stmdaeq	r1, {r8, r9}
    28c0:	00000274 	andeq	r0, r0, r4, ror r2
    28c4:	0c020104 	stfeqs	f0, [r2], {4}
    28c8:	000000b2 	strheq	r0, [r0], -r2
    28cc:	00065505 	andeq	r5, r6, r5, lsl #10
    28d0:	3d050000 	stccc	0, cr0, [r5, #-0]
    28d4:	01000007 	tsteq	r0, r7
    28d8:	00077605 	andeq	r7, r7, r5, lsl #12
    28dc:	85050400 	strhi	r0, [r5, #-1024]	; 0x400
    28e0:	05000007 	streq	r0, [r0, #-7]
    28e4:	00079405 	andeq	r9, r7, r5, lsl #8
    28e8:	a3050600 	movwge	r0, #22016	; 0x5600
    28ec:	07000007 	streq	r0, [r0, -r7]
    28f0:	0007b205 	andeq	fp, r7, r5, lsl #4
    28f4:	c1050300 	mrsgt	r0, SP_abt
    28f8:	02000007 	andeq	r0, r0, #7
    28fc:	076a0600 	strbeq	r0, [sl, -r0, lsl #12]!
    2900:	15020000 	strne	r0, [r2, #-0]
    2904:	00000079 	andeq	r0, r0, r9, ror r0
    2908:	00083307 	andeq	r3, r8, r7, lsl #6
    290c:	7c370100 	ldfvcs	f0, [r7], #-0
    2910:	9c000097 	stcls	0, cr0, [r0], {151}	; 0x97
    2914:	01000000 	mrseq	r0, (UNDEF: 0)
    2918:	0001c39c 	muleq	r1, ip, r3
    291c:	97840800 	strls	r0, [r4, r0, lsl #16]
    2920:	03a80000 			; <UNDEFINED> instruction: 0x03a80000
    2924:	90090000 	andls	r0, r9, r0
    2928:	af000097 	svcge	0x00000097
    292c:	f3000003 	vhadd.u8	d0, d0, d3
    2930:	0a000000 	beq	2938 <_start-0x56c8>
    2934:	32015101 	andcc	r5, r1, #1073741824	; 0x40000000
    2938:	0150010a 	cmpeq	r0, sl, lsl #2
    293c:	9c09003e 	stcls	0, cr0, [r9], {62}	; 0x3e
    2940:	af000097 	svcge	0x00000097
    2944:	0b000003 	bleq	2958 <_start-0x56a8>
    2948:	0a000001 	beq	2954 <_start-0x56ac>
    294c:	32015101 	andcc	r5, r1, #1073741824	; 0x40000000
    2950:	0150010a 	cmpeq	r0, sl, lsl #2
    2954:	a008003f 	andge	r0, r8, pc, lsr r0
    2958:	a8000097 	stmdage	r0, {r0, r1, r2, r4, r7}
    295c:	09000003 	stmdbeq	r0, {r0, r1}
    2960:	000097b0 			; <UNDEFINED> instruction: 0x000097b0
    2964:	000003c5 	andeq	r0, r0, r5, asr #7
    2968:	00000128 	andeq	r0, r0, r8, lsr #2
    296c:	0250010a 	subseq	r0, r0, #-2147483646	; 0x80000002
    2970:	09000075 	stmdbeq	r0, {r0, r2, r4, r5, r6}
    2974:	000097bc 			; <UNDEFINED> instruction: 0x000097bc
    2978:	000003e6 	andeq	r0, r0, r6, ror #7
    297c:	0000013c 	andeq	r0, r0, ip, lsr r1
    2980:	0250010a 	subseq	r0, r0, #-2147483646	; 0x80000002
    2984:	08000075 	stmdaeq	r0, {r0, r2, r4, r5, r6}
    2988:	000097c0 	andeq	r9, r0, r0, asr #15
    298c:	000003a8 	andeq	r0, r0, r8, lsr #7
    2990:	0097cc09 	addseq	ip, r7, r9, lsl #24
    2994:	0003e600 	andeq	lr, r3, r0, lsl #12
    2998:	00015800 	andeq	r5, r1, r0, lsl #16
    299c:	51010a00 	tstpl	r1, r0, lsl #20
    29a0:	09003001 	stmdbeq	r0, {r0, ip, sp}
    29a4:	000097d8 	ldrdeq	r9, [r0], -r8
    29a8:	000003e6 	andeq	r0, r0, r6, ror #7
    29ac:	0000016b 	andeq	r0, r0, fp, ror #2
    29b0:	0151010a 	cmpeq	r1, sl, lsl #2
    29b4:	e4090030 	str	r0, [r9], #-48	; 0x30
    29b8:	e6000097 			; <UNDEFINED> instruction: 0xe6000097
    29bc:	7e000003 	cdpvc	0, 0, cr0, cr0, cr3, {0}
    29c0:	0a000001 	beq	29cc <_start-0x5634>
    29c4:	36015101 	strcc	r5, [r1], -r1, lsl #2
    29c8:	97f00900 	ldrbls	r0, [r0, r0, lsl #18]!
    29cc:	03e60000 	mvneq	r0, #0
    29d0:	01910000 	orrseq	r0, r1, r0
    29d4:	010a0000 	mrseq	r0, (UNDEF: 10)
    29d8:	00330151 	eorseq	r0, r3, r1, asr r1
    29dc:	0097fc09 	addseq	pc, r7, r9, lsl #24
    29e0:	0003e600 	andeq	lr, r3, r0, lsl #12
    29e4:	0001a600 	andeq	sl, r1, r0, lsl #12
    29e8:	51010a00 	tstpl	r1, r0, lsl #20
    29ec:	010e0a03 	tsteq	lr, r3, lsl #20
    29f0:	98080900 	stmdals	r8, {r8, fp}
    29f4:	03e60000 	mvneq	r0, #0
    29f8:	01b90000 			; <UNDEFINED> instruction: 0x01b90000
    29fc:	010a0000 	mrseq	r0, (UNDEF: 10)
    2a00:	00330151 	eorseq	r0, r3, r1, asr r1
    2a04:	00980c08 	addseq	r0, r8, r8, lsl #24
    2a08:	0003a800 	andeq	sl, r3, r0, lsl #16
    2a0c:	070b0000 	streq	r0, [fp, -r0]
    2a10:	01000008 	tsteq	r0, r8
    2a14:	00002557 	andeq	r2, r0, r7, asr r5
    2a18:	00981800 	addseq	r1, r8, r0, lsl #16
    2a1c:	00001c00 	andeq	r1, r0, r0, lsl #24
    2a20:	e69c0100 	ldr	r0, [ip], r0, lsl #2
    2a24:	08000001 	stmdaeq	r0, {r0}
    2a28:	00009828 	andeq	r9, r0, r8, lsr #16
    2a2c:	000003c5 	andeq	r0, r0, r5, asr #7
    2a30:	084c0b00 	stmdaeq	ip, {r8, r9, fp}^
    2a34:	5d010000 	stcpl	0, cr0, [r1, #-0]
    2a38:	00000025 	andeq	r0, r0, r5, lsr #32
    2a3c:	00009834 	andeq	r9, r0, r4, lsr r8
    2a40:	00000028 	andeq	r0, r0, r8, lsr #32
    2a44:	02129c01 	andseq	r9, r2, #256	; 0x100
    2a48:	3c080000 	stccc	0, cr0, [r8], {-0}
    2a4c:	c3000098 	movwgt	r0, #152	; 0x98
    2a50:	08000001 	stmdaeq	r0, {r0}
    2a54:	00009850 	andeq	r9, r0, r0, asr r8
    2a58:	000003c5 	andeq	r0, r0, r5, asr #7
    2a5c:	08650b00 	stmdaeq	r5!, {r8, r9, fp}^
    2a60:	64010000 	strvs	r0, [r1], #-0
    2a64:	00000025 	andeq	r0, r0, r5, lsr #32
    2a68:	0000985c 	andeq	r9, r0, ip, asr r8
    2a6c:	0000001c 	andeq	r0, r0, ip, lsl r0
    2a70:	02359c01 	eorseq	r9, r5, #256	; 0x100
    2a74:	6c080000 	stcvs	0, cr0, [r8], {-0}
    2a78:	c5000098 	strgt	r0, [r0, #-152]	; 0x98
    2a7c:	00000003 	andeq	r0, r0, r3
    2a80:	0003fd07 	andeq	pc, r3, r7, lsl #26
    2a84:	786a0100 	stmdavc	sl!, {r8}^
    2a88:	2c000098 	stccs	0, cr0, [r0], {152}	; 0x98
    2a8c:	01000000 	mrseq	r0, (UNDEF: 0)
    2a90:	0002719c 	muleq	r2, ip, r1
    2a94:	00630c00 	rsbeq	r0, r3, r0, lsl #24
    2a98:	002c6a01 	eoreq	r6, ip, r1, lsl #20
    2a9c:	25240000 	strcs	r0, [r4, #-0]!
    2aa0:	84080000 	strhi	r0, [r8], #-0
    2aa4:	12000098 	andne	r0, r0, #152	; 0x98
    2aa8:	0d000002 	stceq	0, cr0, [r0, #-8]
    2aac:	0000989c 	muleq	r0, ip, r8
    2ab0:	000003e6 	andeq	r0, r0, r6, ror #7
    2ab4:	0251010a 	subseq	r0, r1, #-2147483646	; 0x80000002
    2ab8:	00000074 	andeq	r0, r0, r4, ror r0
    2abc:	0008250b 	andeq	r2, r8, fp, lsl #10
    2ac0:	25740100 	ldrbcs	r0, [r4, #-256]!	; 0x100
    2ac4:	a4000000 	strge	r0, [r0], #-0
    2ac8:	0c000098 	stceq	0, cr0, [r0], {152}	; 0x98
    2acc:	01000000 	mrseq	r0, (UNDEF: 0)
    2ad0:	0002949c 	muleq	r2, ip, r4
    2ad4:	98ac0800 	stmials	ip!, {fp}
    2ad8:	01c30000 	biceq	r0, r3, r0
    2adc:	0b000000 	bleq	2ae4 <_start-0x551c>
    2ae0:	000008e2 	andeq	r0, r0, r2, ror #17
    2ae4:	00257801 	eoreq	r7, r5, r1, lsl #16
    2ae8:	98b00000 	ldmls	r0!, {}	; <UNPREDICTABLE>
    2aec:	00200000 	eoreq	r0, r0, r0
    2af0:	9c010000 	stcls	0, cr0, [r1], {-0}
    2af4:	000002c0 	andeq	r0, r0, r0, asr #5
    2af8:	0098b808 	addseq	fp, r8, r8, lsl #16
    2afc:	00027100 	andeq	r7, r2, r0, lsl #2
    2b00:	98c40800 	stmials	r4, {fp}^
    2b04:	01e60000 	mvneq	r0, r0
    2b08:	0e000000 	cdpeq	0, 0, cr0, cr0, cr0, {0}
    2b0c:	0000087f 	andeq	r0, r0, pc, ror r8
    2b10:	02d11601 	sbcseq	r1, r1, #1048576	; 0x100000
    2b14:	03050000 	movweq	r0, #20480	; 0x5000
    2b18:	000099cc 	andeq	r9, r0, ip, asr #19
    2b1c:	02d7040f 	sbcseq	r0, r7, #251658240	; 0xf000000
    2b20:	2c100000 	ldccs	0, cr0, [r0], {-0}
    2b24:	0e000000 	cdpeq	0, 0, cr0, cr0, cr0, {0}
    2b28:	00000873 	andeq	r0, r0, r3, ror r8
    2b2c:	02d11701 	sbcseq	r1, r1, #262144	; 0x40000
    2b30:	03050000 	movweq	r0, #20480	; 0x5000
    2b34:	0000999c 	muleq	r0, ip, r9
    2b38:	0007ea0e 	andeq	lr, r7, lr, lsl #20
    2b3c:	d11a0100 	tstle	sl, r0, lsl #2
    2b40:	05000002 	streq	r0, [r0, #-2]
    2b44:	0099b803 	addseq	fp, r9, r3, lsl #16
    2b48:	083d0e00 	ldmdaeq	sp!, {r9, sl, fp}
    2b4c:	1b010000 	blne	42b54 <__bss_end__+0x38bcc>
    2b50:	000002d1 	ldrdeq	r0, [r0], -r1
    2b54:	99a40305 	stmibls	r4!, {r0, r2, r8, r9}
    2b58:	560e0000 	strpl	r0, [lr], -r0
    2b5c:	01000008 	tsteq	r0, r8
    2b60:	0002d11c 	andeq	sp, r2, ip, lsl r1
    2b64:	a8030500 	stmdage	r3, {r8, sl}
    2b68:	0e000099 	mcreq	0, 0, r0, cr0, cr9, {4}
    2b6c:	000008c4 	andeq	r0, r0, r4, asr #17
    2b70:	02d11d01 	sbcseq	r1, r1, #1, 26	; 0x40
    2b74:	03050000 	movweq	r0, #20480	; 0x5000
    2b78:	000099ac 	andeq	r9, r0, ip, lsr #19
    2b7c:	0007db0e 	andeq	sp, r7, lr, lsl #22
    2b80:	d11e0100 	tstle	lr, r0, lsl #2
    2b84:	05000002 	streq	r0, [r0, #-2]
    2b88:	0099c803 	addseq	ip, r9, r3, lsl #16
    2b8c:	08d30e00 	ldmeq	r3, {r9, sl, fp}^
    2b90:	1f010000 	svcne	0x00010000
    2b94:	000002d1 	ldrdeq	r0, [r0], -r1
    2b98:	99b40305 	ldmibls	r4!, {r0, r2, r8, r9}
    2b9c:	f80e0000 			; <UNDEFINED> instruction: 0xf80e0000
    2ba0:	01000007 	tsteq	r0, r7
    2ba4:	0002d120 	andeq	sp, r2, r0, lsr #2
    2ba8:	c4030500 	strgt	r0, [r3], #-1280	; 0x500
    2bac:	0e000099 	mcreq	0, 0, r0, cr0, cr9, {4}
    2bb0:	000008a7 	andeq	r0, r0, r7, lsr #17
    2bb4:	02d12101 	sbcseq	r2, r1, #1073741824	; 0x40000000
    2bb8:	03050000 	movweq	r0, #20480	; 0x5000
    2bbc:	000099c0 	andeq	r9, r0, r0, asr #19
    2bc0:	0008150e 	andeq	r1, r8, lr, lsl #10
    2bc4:	d1220100 	teqle	r2, r0, lsl #2
    2bc8:	05000002 	streq	r0, [r0, #-2]
    2bcc:	0099a003 	addseq	sl, r9, r3
    2bd0:	08970e00 	ldmeq	r7, {r9, sl, fp}
    2bd4:	23010000 	movwcs	r0, #4096	; 0x1000
    2bd8:	000002d1 	ldrdeq	r0, [r0], -r1
    2bdc:	99bc0305 	ldmibls	ip!, {r0, r2, r8, r9}
    2be0:	870e0000 	strhi	r0, [lr, -r0]
    2be4:	01000008 	tsteq	r0, r8
    2be8:	0002d124 	andeq	sp, r2, r4, lsr #2
    2bec:	b0030500 	andlt	r0, r3, r0, lsl #10
    2bf0:	11000099 	swpne	r0, r9, [r0]	; <UNPREDICTABLE>
    2bf4:	00000680 	andeq	r0, r0, r0, lsl #13
    2bf8:	ab128a03 	blge	4a540c <__bss_end__+0x49b484>
    2bfc:	02000006 	andeq	r0, r0, #6
    2c00:	0003c519 	andeq	ip, r3, r9, lsl r5
    2c04:	002c1300 	eoreq	r1, ip, r0, lsl #6
    2c08:	b2130000 	andslt	r0, r3, #0
    2c0c:	00000000 	andeq	r0, r0, r0
    2c10:	00074e14 	andeq	r4, r7, r4, lsl lr
    2c14:	2ca90300 	stccs	3, cr0, [r9]
    2c18:	da000000 	ble	2c20 <_start-0x53e0>
    2c1c:	13000003 	movwne	r0, #3
    2c20:	000003da 	ldrdeq	r0, [r0], -sl
    2c24:	e0040f00 	and	r0, r4, r0, lsl #30
    2c28:	15000003 	strne	r0, [r0, #-3]
    2c2c:	000003e5 	andeq	r0, r0, r5, ror #7
    2c30:	06231216 			; <UNDEFINED> instruction: 0x06231216
    2c34:	9d030000 	stcls	0, cr0, [r3, #-0]
    2c38:	000003fc 	strdeq	r0, [r0], -ip
    2c3c:	0003fc13 	andeq	pc, r3, r3, lsl ip	; <UNPREDICTABLE>
    2c40:	002c1300 	eoreq	r1, ip, r0, lsl #6
    2c44:	0f000000 	svceq	0x00000000
    2c48:	0003e504 	andeq	lr, r3, r4, lsl #10
	...

Disassembly of section .debug_abbrev:

00000000 <.debug_abbrev>:
   0:	25011101 	strcs	r1, [r1, #-257]	; 0x101
   4:	030b130e 	movweq	r1, #45838	; 0xb30e
   8:	110e1b0e 	tstne	lr, lr, lsl #22
   c:	10061201 	andne	r1, r6, r1, lsl #4
  10:	02000017 	andeq	r0, r0, #23
  14:	0b0b0024 	bleq	2c00ac <__bss_end__+0x2b6124>
  18:	08030b3e 	stmdaeq	r3, {r1, r2, r3, r4, r5, r8, r9, fp}
  1c:	24030000 	strcs	r0, [r3], #-0
  20:	3e0b0b00 	vmlacc.f64	d0, d11, d0
  24:	000e030b 	andeq	r0, lr, fp, lsl #6
  28:	00160400 	andseq	r0, r6, r0, lsl #8
  2c:	0b3a0e03 	bleq	e83840 <__bss_end__+0xe798b8>
  30:	13490b3b 	movtne	r0, #39739	; 0x9b3b
  34:	0f050000 	svceq	0x00050000
  38:	490b0b00 	stmdbmi	fp, {r8, r9, fp}
  3c:	06000013 			; <UNDEFINED> instruction: 0x06000013
  40:	13490026 	movtne	r0, #36902	; 0x9026
  44:	13070000 	movwne	r0, #28672	; 0x7000
  48:	3a0b0b01 	bcc	2c2c54 <__bss_end__+0x2b8ccc>
  4c:	010b3b0b 	tsteq	fp, fp, lsl #22
  50:	08000013 	stmdaeq	r0, {r0, r1, r4}
  54:	0803000d 	stmdaeq	r3, {r0, r2, r3}
  58:	0b3b0b3a 	bleq	ec2d48 <__bss_end__+0xeb8dc0>
  5c:	0b381349 	bleq	e04d88 <__bss_end__+0xdfae00>
  60:	0d090000 	stceq	0, cr0, [r9, #-0]
  64:	3a0e0300 	bcc	380c6c <__bss_end__+0x376ce4>
  68:	490b3b0b 	stmdbmi	fp, {r0, r1, r3, r8, r9, fp, ip, sp}
  6c:	000b3813 	andeq	r3, fp, r3, lsl r8
  70:	012e0a00 	teqeq	lr, r0, lsl #20
  74:	0b3a0e03 	bleq	e83888 <__bss_end__+0xe79900>
  78:	19270b3b 	stmdbne	r7!, {r0, r1, r3, r4, r5, r8, r9, fp}
  7c:	13010b20 	movwne	r0, #6944	; 0x1b20
  80:	050b0000 	streq	r0, [fp, #-0]
  84:	3a080300 	bcc	200c8c <__bss_end__+0x1f6d04>
  88:	490b3b0b 	stmdbmi	fp, {r0, r1, r3, r8, r9, fp, ip, sp}
  8c:	0c000013 	stceq	0, cr0, [r0], {19}
  90:	0803012e 	stmdaeq	r3, {r1, r2, r3, r5, r8}
  94:	0b3b0b3a 	bleq	ec2d84 <__bss_end__+0xeb8dfc>
  98:	13491927 	movtne	r1, #39207	; 0x9927
  9c:	13010b20 	movwne	r0, #6944	; 0x1b20
  a0:	2e0d0000 	cdpcs	0, 0, cr0, cr13, cr0, {0}
  a4:	03193f01 	tsteq	r9, #1, 30
  a8:	3b0b3a0e 	blcc	2ce8e8 <__bss_end__+0x2c4960>
  ac:	4919270b 	ldmdbmi	r9, {r0, r1, r3, r8, r9, sl, sp}
  b0:	12011113 	andne	r1, r1, #-1073741820	; 0xc0000004
  b4:	97184006 	ldrls	r4, [r8, -r6]
  b8:	13011942 	movwne	r1, #6466	; 0x1942
  bc:	050e0000 	streq	r0, [lr, #-0]
  c0:	3a080300 	bcc	200cc8 <__bss_end__+0x1f6d40>
  c4:	490b3b0b 	stmdbmi	fp, {r0, r1, r3, r8, r9, fp, ip, sp}
  c8:	00170213 	andseq	r0, r7, r3, lsl r2
  cc:	00340f00 	eorseq	r0, r4, r0, lsl #30
  d0:	13490e03 	movtne	r0, #40451	; 0x9e03
  d4:	18021934 	stmdane	r2, {r2, r4, r5, r8, fp, ip}
  d8:	34100000 	ldrcc	r0, [r0], #-0
  dc:	3a0e0300 	bcc	380ce4 <__bss_end__+0x376d5c>
  e0:	490b3b0b 	stmdbmi	fp, {r0, r1, r3, r8, r9, fp, ip, sp}
  e4:	11000013 	tstne	r0, r3, lsl r0
  e8:	0e030034 	mcreq	0, 0, r0, cr3, cr4, {1}
  ec:	0b3b0b3a 	bleq	ec2ddc <__bss_end__+0xeb8e54>
  f0:	17021349 	strne	r1, [r2, -r9, asr #6]
  f4:	0b120000 	bleq	4800fc <__bss_end__+0x476174>
  f8:	12011101 	andne	r1, r1, #1073741824	; 0x40000000
  fc:	00130106 	andseq	r0, r3, r6, lsl #2
 100:	82891300 	addhi	r1, r9, #0, 6
 104:	01110101 	tsteq	r1, r1, lsl #2
 108:	13011331 	movwne	r1, #4913	; 0x1331
 10c:	8a140000 	bhi	500114 <__bss_end__+0x4f618c>
 110:	02000182 	andeq	r0, r0, #-2147483616	; 0x80000020
 114:	18429118 	stmdane	r2, {r3, r4, r8, ip, pc}^
 118:	89150000 	ldmdbhi	r5, {}	; <UNPREDICTABLE>
 11c:	11000182 	smlabbne	r0, r2, r1, r0
 120:	00133101 	andseq	r3, r3, r1, lsl #2
 124:	01011600 	tsteq	r1, r0, lsl #12
 128:	13011349 	movwne	r1, #4937	; 0x1349
 12c:	21170000 	tstcs	r7, r0
 130:	2f134900 	svccs	0x00134900
 134:	1800000b 	stmdane	r0, {r0, r1, r3}
 138:	0e030005 	cdpeq	0, 0, cr0, cr3, cr5, {0}
 13c:	0b3b0b3a 	bleq	ec2e2c <__bss_end__+0xeb8ea4>
 140:	17021349 	strne	r1, [r2, -r9, asr #6]
 144:	34190000 	ldrcc	r0, [r9], #-0
 148:	3a080300 	bcc	200d50 <__bss_end__+0x1f6dc8>
 14c:	490b3b0b 	stmdbmi	fp, {r0, r1, r3, r8, r9, fp, ip, sp}
 150:	000b1c13 	andeq	r1, fp, r3, lsl ip
 154:	00341a00 	eorseq	r1, r4, r0, lsl #20
 158:	0b3a0e03 	bleq	e8396c <__bss_end__+0xe799e4>
 15c:	13490b3b 	movtne	r0, #39739	; 0x9b3b
 160:	00001802 	andeq	r1, r0, r2, lsl #16
 164:	11010b1b 	tstne	r1, fp, lsl fp
 168:	00061201 	andeq	r1, r6, r1, lsl #4
 16c:	012e1c00 	teqeq	lr, r0, lsl #24
 170:	0e03193f 	mcreq	9, 0, r1, cr3, cr15, {1}
 174:	0b3b0b3a 	bleq	ec2e64 <__bss_end__+0xeb8edc>
 178:	01111927 	tsteq	r1, r7, lsr #18
 17c:	18400612 	stmdane	r0, {r1, r4, r9, sl}^
 180:	01194297 			; <UNDEFINED> instruction: 0x01194297
 184:	1d000013 	stcne	0, cr0, [r0, #-76]	; 0xffffffb4
 188:	0e030005 	cdpeq	0, 0, cr0, cr3, cr5, {0}
 18c:	0b3b0b3a 	bleq	ec2e7c <__bss_end__+0xeb8ef4>
 190:	18021349 	stmdane	r2, {r0, r3, r6, r8, r9, ip}
 194:	1d1e0000 	ldcne	0, cr0, [lr, #-0]
 198:	11133101 	tstne	r3, r1, lsl #2
 19c:	58061201 	stmdapl	r6, {r0, r9, ip}
 1a0:	010b590b 	tsteq	fp, fp, lsl #18
 1a4:	1f000013 	svcne	0x00000013
 1a8:	13310005 	teqne	r1, #5
 1ac:	00001702 	andeq	r1, r0, r2, lsl #14
 1b0:	31011d20 	tstcc	r1, r0, lsr #26
 1b4:	55015213 	strpl	r5, [r1, #-531]	; 0x213
 1b8:	590b5817 	stmdbpl	fp, {r0, r1, r2, r4, fp, ip, lr}
 1bc:	0013010b 	andseq	r0, r3, fp, lsl #2
 1c0:	010b2100 	mrseq	r2, (UNDEF: 27)
 1c4:	13011755 	movwne	r1, #5973	; 0x1755
 1c8:	1d220000 	stcne	0, cr0, [r2, #-0]
 1cc:	52133101 	andspl	r3, r3, #1073741824	; 0x40000000
 1d0:	58175501 	ldmdapl	r7, {r0, r8, sl, ip, lr}
 1d4:	000b590b 	andeq	r5, fp, fp, lsl #18
 1d8:	00052300 	andeq	r2, r5, r0, lsl #6
 1dc:	00001331 	andeq	r1, r0, r1, lsr r3
 1e0:	03000524 	movweq	r0, #1316	; 0x524
 1e4:	3b0b3a08 	blcc	2cea0c <__bss_end__+0x2c4a84>
 1e8:	0213490b 	andseq	r4, r3, #180224	; 0x2c000
 1ec:	25000018 	strcs	r0, [r0, #-24]
 1f0:	0e030034 	mcreq	0, 0, r0, cr3, cr4, {1}
 1f4:	053b0b3a 	ldreq	r0, [fp, #-2874]!	; 0xb3a
 1f8:	17021349 	strne	r1, [r2, -r9, asr #6]
 1fc:	34260000 	strtcc	r0, [r6], #-0
 200:	3a080300 	bcc	200e08 <__bss_end__+0x1f6e80>
 204:	490b3b0b 	stmdbmi	fp, {r0, r1, r3, r8, r9, fp, ip, sp}
 208:	00170213 	andseq	r0, r7, r3, lsl r2
 20c:	00342700 	eorseq	r2, r4, r0, lsl #14
 210:	0b3a0803 	bleq	e82224 <__bss_end__+0xe7829c>
 214:	1349053b 	movtne	r0, #38203	; 0x953b
 218:	00001702 	andeq	r1, r0, r2, lsl #14
 21c:	55010b28 	strpl	r0, [r1, #-2856]	; 0xb28
 220:	29000017 	stmdbcs	r0, {r0, r1, r2, r4}
 224:	1331011d 	teqne	r1, #1073741831	; 0x40000007
 228:	17550152 			; <UNDEFINED> instruction: 0x17550152
 22c:	05590b58 	ldrbeq	r0, [r9, #-2904]	; 0xb58
 230:	2e2a0000 	cdpcs	0, 2, cr0, cr10, cr0, {0}
 234:	03193f01 	tsteq	r9, #1, 30
 238:	3b0b3a0e 	blcc	2cea78 <__bss_end__+0x2c4af0>
 23c:	11192705 	tstne	r9, r5, lsl #14
 240:	40061201 	andmi	r1, r6, r1, lsl #4
 244:	19429718 	stmdbne	r2, {r3, r4, r8, r9, sl, ip, pc}^
 248:	00001301 	andeq	r1, r0, r1, lsl #6
 24c:	0300052b 	movweq	r0, #1323	; 0x52b
 250:	3b0b3a08 	blcc	2cea78 <__bss_end__+0x2c4af0>
 254:	02134905 	andseq	r4, r3, #81920	; 0x14000
 258:	2c000017 	stccs	0, cr0, [r0], {23}
 25c:	0e030005 	cdpeq	0, 0, cr0, cr3, cr5, {0}
 260:	053b0b3a 	ldreq	r0, [fp, #-2874]!	; 0xb3a
 264:	17021349 	strne	r1, [r2, -r9, asr #6]
 268:	892d0000 	pushhi	{}	; <UNPREDICTABLE>
 26c:	11010182 	smlabbne	r1, r2, r1, r0
 270:	00133101 	andseq	r3, r3, r1, lsl #2
 274:	82892e00 	addhi	r2, r9, #0, 28
 278:	01110101 	tsteq	r1, r1, lsl #2
 27c:	31194295 			; <UNDEFINED> instruction: 0x31194295
 280:	00130113 	andseq	r0, r3, r3, lsl r1
 284:	82892f00 	addhi	r2, r9, #0, 30
 288:	01110101 	tsteq	r1, r1, lsl #2
 28c:	31194295 			; <UNDEFINED> instruction: 0x31194295
 290:	30000013 	andcc	r0, r0, r3, lsl r0
 294:	08030034 	stmdaeq	r3, {r2, r4, r5}
 298:	053b0b3a 	ldreq	r0, [fp, #-2874]!	; 0xb3a
 29c:	0b1c1349 	bleq	704fc8 <__bss_end__+0x6fb040>
 2a0:	34310000 	ldrtcc	r0, [r1], #-0
 2a4:	3a080300 	bcc	200eac <__bss_end__+0x1f6f24>
 2a8:	49053b0b 	stmdbmi	r5, {r0, r1, r3, r8, r9, fp, ip, sp}
 2ac:	00180213 	andseq	r0, r8, r3, lsl r2
 2b0:	00343200 	eorseq	r3, r4, r0, lsl #4
 2b4:	0b3a0e03 	bleq	e83ac8 <__bss_end__+0xe79b40>
 2b8:	13490b3b 	movtne	r0, #39739	; 0x9b3b
 2bc:	0000061c 	andeq	r0, r0, ip, lsl r6
 2c0:	49003533 	stmdbmi	r0, {r0, r1, r4, r5, r8, sl, ip, sp}
 2c4:	34000013 	strcc	r0, [r0], #-19
 2c8:	08030034 	stmdaeq	r3, {r2, r4, r5}
 2cc:	0b3b0b3a 	bleq	ec2fbc <__bss_end__+0xeb9034>
 2d0:	00001349 	andeq	r1, r0, r9, asr #6
 2d4:	3f012e35 	svccc	0x00012e35
 2d8:	3a0e0319 	bcc	380f44 <__bss_end__+0x376fbc>
 2dc:	270b3b0b 	strcs	r3, [fp, -fp, lsl #22]
 2e0:	01193c19 	tsteq	r9, r9, lsl ip
 2e4:	36000013 			; <UNDEFINED> instruction: 0x36000013
 2e8:	13490005 	movtne	r0, #36869	; 0x9005
 2ec:	2e370000 	cdpcs	0, 3, cr0, cr7, cr0, {0}
 2f0:	03193f00 	tsteq	r9, #0, 30
 2f4:	3b0b3a0e 	blcc	2ceb34 <__bss_end__+0x2c4bac>
 2f8:	3c19270b 	ldccc	7, cr2, [r9], {11}
 2fc:	38000019 	stmdacc	r0, {r0, r3, r4}
 300:	193f012e 	ldmdbne	pc!, {r1, r2, r3, r5, r8}	; <UNPREDICTABLE>
 304:	0b3a0e03 	bleq	e83b18 <__bss_end__+0xe79b90>
 308:	19270b3b 	stmdbne	r7!, {r0, r1, r3, r4, r5, r8, r9, fp}
 30c:	193c1349 	ldmdbne	ip!, {r0, r3, r6, r8, r9, ip}
 310:	00001301 	andeq	r1, r0, r1, lsl #6
 314:	00001839 	andeq	r1, r0, r9, lsr r8
 318:	012e3a00 	teqeq	lr, r0, lsl #20
 31c:	0e03193f 	mcreq	9, 0, r1, cr3, cr15, {1}
 320:	0b3b0b3a 	bleq	ec3010 <__bss_end__+0xeb9088>
 324:	193c1927 	ldmdbne	ip!, {r0, r1, r2, r5, r8, fp, ip}
 328:	01000000 	mrseq	r0, (UNDEF: 0)
 32c:	0e250111 	mcreq	1, 1, r0, cr5, cr1, {0}
 330:	0e030b13 	vmoveq.32	d3[0], r0
 334:	01110e1b 	tsteq	r1, fp, lsl lr
 338:	17100612 			; <UNDEFINED> instruction: 0x17100612
 33c:	16020000 	strne	r0, [r2], -r0
 340:	3a0e0300 	bcc	380f48 <__bss_end__+0x376fc0>
 344:	490b3b0b 	stmdbmi	fp, {r0, r1, r3, r8, r9, fp, ip, sp}
 348:	03000013 	movweq	r0, #19
 34c:	0e030113 	mcreq	1, 0, r0, cr3, cr3, {0}
 350:	0b3a0b0b 	bleq	e82f84 <__bss_end__+0xe78ffc>
 354:	13010b3b 	movwne	r0, #6971	; 0x1b3b
 358:	0d040000 	stceq	0, cr0, [r4, #-0]
 35c:	490e0300 	stmdbmi	lr, {r8, r9}
 360:	340b3813 	strcc	r3, [fp], #-2067	; 0x813
 364:	05000019 	streq	r0, [r0, #-25]
 368:	0b0b000f 	bleq	2c03ac <__bss_end__+0x2b6424>
 36c:	24060000 	strcs	r0, [r6], #-0
 370:	3e0b0b00 	vmlacc.f64	d0, d11, d0
 374:	0008030b 	andeq	r0, r8, fp, lsl #6
 378:	00240700 	eoreq	r0, r4, r0, lsl #14
 37c:	0b3e0b0b 	bleq	f82fb0 <__bss_end__+0xf79028>
 380:	00000e03 	andeq	r0, r0, r3, lsl #28
 384:	0b000f08 	bleq	3fac <_start-0x4054>
 388:	0013490b 	andseq	r4, r3, fp, lsl #18
 38c:	00260900 	eoreq	r0, r6, r0, lsl #18
 390:	00001349 	andeq	r1, r0, r9, asr #6
 394:	3f012e0a 	svccc	0x00012e0a
 398:	3a0e0319 	bcc	381004 <__bss_end__+0x37707c>
 39c:	270b3b0b 	strcs	r3, [fp, -fp, lsl #22]
 3a0:	11134919 	tstne	r3, r9, lsl r9
 3a4:	40061201 	andmi	r1, r6, r1, lsl #4
 3a8:	19429718 	stmdbne	r2, {r3, r4, r8, r9, sl, ip, pc}^
 3ac:	00001301 	andeq	r1, r0, r1, lsl #6
 3b0:	0300050b 	movweq	r0, #1291	; 0x50b
 3b4:	3b0b3a08 	blcc	2cebdc <__bss_end__+0x2c4c54>
 3b8:	0213490b 	andseq	r4, r3, #180224	; 0x2c000
 3bc:	0c000018 	stceq	0, cr0, [r0], {24}
 3c0:	00000018 	andeq	r0, r0, r8, lsl r0
 3c4:	0300340d 	movweq	r3, #1037	; 0x40d
 3c8:	3b0b3a08 	blcc	2cebf0 <__bss_end__+0x2c4c68>
 3cc:	0213490b 	andseq	r4, r3, #180224	; 0x2c000
 3d0:	0e000018 	mcreq	0, 0, r0, cr0, cr8, {0}
 3d4:	0e030034 	mcreq	0, 0, r0, cr3, cr4, {1}
 3d8:	0b3b0b3a 	bleq	ec30c8 <__bss_end__+0xeb9140>
 3dc:	18021349 	stmdane	r2, {r0, r3, r6, r8, r9, ip}
 3e0:	340f0000 	strcc	r0, [pc], #-0	; 3e8 <_start-0x7c18>
 3e4:	3a080300 	bcc	200fec <__bss_end__+0x1f7064>
 3e8:	490b3b0b 	stmdbmi	fp, {r0, r1, r3, r8, r9, fp, ip, sp}
 3ec:	00170213 	andseq	r0, r7, r3, lsl r2
 3f0:	82891000 	addhi	r1, r9, #0
 3f4:	01110101 	tsteq	r1, r1, lsl #2
 3f8:	13011331 	movwne	r1, #4913	; 0x1331
 3fc:	8a110000 	bhi	440404 <__bss_end__+0x43647c>
 400:	02000182 	andeq	r0, r0, #-2147483616	; 0x80000020
 404:	18429118 	stmdane	r2, {r3, r4, r8, ip, pc}^
 408:	89120000 	ldmdbhi	r2, {}	; <UNPREDICTABLE>
 40c:	11010182 	smlabbne	r1, r2, r1, r0
 410:	13000001 	movwne	r0, #1
 414:	13490101 	movtne	r0, #37121	; 0x9101
 418:	00001301 	andeq	r1, r0, r1, lsl #6
 41c:	49002114 	stmdbmi	r0, {r2, r4, r8, sp}
 420:	00052f13 	andeq	r2, r5, r3, lsl pc
 424:	01151500 	tsteq	r5, r0, lsl #10
 428:	13491927 	movtne	r1, #39207	; 0x9927
 42c:	00001301 	andeq	r1, r0, r1, lsl #6
 430:	49000516 	stmdbmi	r0, {r1, r2, r4, r8, sl}
 434:	17000013 	smladne	r0, r3, r0, r0
 438:	0e030034 	mcreq	0, 0, r0, cr3, cr4, {1}
 43c:	0b3b0b3a 	bleq	ec312c <__bss_end__+0xeb91a4>
 440:	193f1349 	ldmdbne	pc!, {r0, r3, r6, r8, r9, ip}	; <UNPREDICTABLE>
 444:	0000193c 	andeq	r1, r0, ip, lsr r9
 448:	3f012e18 	svccc	0x00012e18
 44c:	3a0e0319 	bcc	3810b8 <__bss_end__+0x377130>
 450:	270b3b0b 	strcs	r3, [fp, -fp, lsl #22]
 454:	3c134919 	ldccc	9, cr4, [r3], {25}
 458:	00000019 	andeq	r0, r0, r9, lsl r0
 45c:	25011101 	strcs	r1, [r1, #-257]	; 0x101
 460:	030b130e 	movweq	r1, #45838	; 0xb30e
 464:	110e1b0e 	tstne	lr, lr, lsl #22
 468:	10061201 	andne	r1, r6, r1, lsl #4
 46c:	02000017 	andeq	r0, r0, #23
 470:	0b0b0024 	bleq	2c0508 <__bss_end__+0x2b6580>
 474:	08030b3e 	stmdaeq	r3, {r1, r2, r3, r4, r5, r8, r9, fp}
 478:	24030000 	strcs	r0, [r3], #-0
 47c:	3e0b0b00 	vmlacc.f64	d0, d11, d0
 480:	000e030b 	andeq	r0, lr, fp, lsl #6
 484:	012e0400 	teqeq	lr, r0, lsl #8
 488:	0b3a0e03 	bleq	e83c9c <__bss_end__+0xe79d14>
 48c:	19270b3b 	stmdbne	r7!, {r0, r1, r3, r4, r5, r8, r9, fp}
 490:	01111349 	tsteq	r1, r9, asr #6
 494:	18400612 	stmdane	r0, {r1, r4, r9, sl}^
 498:	01194297 			; <UNDEFINED> instruction: 0x01194297
 49c:	05000013 	streq	r0, [r0, #-19]
 4a0:	08030005 	stmdaeq	r3, {r0, r2}
 4a4:	0b3b0b3a 	bleq	ec3194 <__bss_end__+0xeb920c>
 4a8:	17021349 	strne	r1, [r2, -r9, asr #6]
 4ac:	89060000 	stmdbhi	r6, {}	; <UNPREDICTABLE>
 4b0:	11010182 	smlabbne	r1, r2, r1, r0
 4b4:	00133101 	andseq	r3, r3, r1, lsl #2
 4b8:	828a0700 	addhi	r0, sl, #0, 14
 4bc:	18020001 	stmdane	r2, {r0}
 4c0:	00184291 	mulseq	r8, r1, r2
 4c4:	002e0800 	eoreq	r0, lr, r0, lsl #16
 4c8:	0e03193f 	mcreq	9, 0, r1, cr3, cr15, {1}
 4cc:	0b3b0b3a 	bleq	ec31bc <__bss_end__+0xeb9234>
 4d0:	01111927 	tsteq	r1, r7, lsr #18
 4d4:	18400612 	stmdane	r0, {r1, r4, r9, sl}^
 4d8:	00194297 	mulseq	r9, r7, r2
 4dc:	012e0900 	teqeq	lr, r0, lsl #18
 4e0:	0e03193f 	mcreq	9, 0, r1, cr3, cr15, {1}
 4e4:	0b3b0b3a 	bleq	ec31d4 <__bss_end__+0xeb924c>
 4e8:	01111927 	tsteq	r1, r7, lsr #18
 4ec:	18400612 	stmdane	r0, {r1, r4, r9, sl}^
 4f0:	01194297 			; <UNDEFINED> instruction: 0x01194297
 4f4:	0a000013 	beq	548 <_start-0x7ab8>
 4f8:	08030005 	stmdaeq	r3, {r0, r2}
 4fc:	0b3b0b3a 	bleq	ec31ec <__bss_end__+0xeb9264>
 500:	18021349 	stmdane	r2, {r0, r3, r6, r8, r9, ip}
 504:	150b0000 	strne	r0, [fp, #-0]
 508:	49192701 	ldmdbmi	r9, {r0, r8, r9, sl, sp}
 50c:	00130113 	andseq	r0, r3, r3, lsl r1
 510:	00050c00 	andeq	r0, r5, r0, lsl #24
 514:	00001349 	andeq	r1, r0, r9, asr #6
 518:	0b000f0d 	bleq	4154 <_start-0x3eac>
 51c:	0013490b 	andseq	r4, r3, fp, lsl #18
 520:	00340e00 	eorseq	r0, r4, r0, lsl #28
 524:	0b3a0e03 	bleq	e83d38 <__bss_end__+0xe79db0>
 528:	13490b3b 	movtne	r0, #39739	; 0x9b3b
 52c:	1802193f 	stmdane	r2, {r0, r1, r2, r3, r4, r5, r8, fp, ip}
 530:	2e0f0000 	cdpcs	0, 0, cr0, cr15, cr0, {0}
 534:	03193f01 	tsteq	r9, #1, 30
 538:	3b0b3a0e 	blcc	2ced78 <__bss_end__+0x2c4df0>
 53c:	3c19270b 	ldccc	7, cr2, [r9], {11}
 540:	00000019 	andeq	r0, r0, r9, lsl r0
 544:	25011101 	strcs	r1, [r1, #-257]	; 0x101
 548:	030b130e 	movweq	r1, #45838	; 0xb30e
 54c:	110e1b0e 	tstne	lr, lr, lsl #22
 550:	10061201 	andne	r1, r6, r1, lsl #4
 554:	02000017 	andeq	r0, r0, #23
 558:	0b0b0024 	bleq	2c05f0 <__bss_end__+0x2b6668>
 55c:	08030b3e 	stmdaeq	r3, {r1, r2, r3, r4, r5, r8, r9, fp}
 560:	24030000 	strcs	r0, [r3], #-0
 564:	3e0b0b00 	vmlacc.f64	d0, d11, d0
 568:	000e030b 	andeq	r0, lr, fp, lsl #6
 56c:	000f0400 	andeq	r0, pc, r0, lsl #8
 570:	13490b0b 	movtne	r0, #39691	; 0x9b0b
 574:	26050000 	strcs	r0, [r5], -r0
 578:	00134900 	andseq	r4, r3, r0, lsl #18
 57c:	012e0600 	teqeq	lr, r0, lsl #12
 580:	0e03193f 	mcreq	9, 0, r1, cr3, cr15, {1}
 584:	0b3b0b3a 	bleq	ec3274 <__bss_end__+0xeb92ec>
 588:	13491927 	movtne	r1, #39207	; 0x9927
 58c:	06120111 			; <UNDEFINED> instruction: 0x06120111
 590:	42961840 	addsmi	r1, r6, #64, 16	; 0x400000
 594:	00130119 	andseq	r0, r3, r9, lsl r1
 598:	00050700 	andeq	r0, r5, r0, lsl #14
 59c:	0b3a0803 	bleq	e825b0 <__bss_end__+0xe78628>
 5a0:	13490b3b 	movtne	r0, #39739	; 0x9b3b
 5a4:	00001702 	andeq	r1, r0, r2, lsl #14
 5a8:	27011508 	strcs	r1, [r1, -r8, lsl #10]
 5ac:	01134919 	tsteq	r3, r9, lsl r9
 5b0:	09000013 	stmdbeq	r0, {r0, r1, r4}
 5b4:	13490005 	movtne	r0, #36869	; 0x9005
 5b8:	340a0000 	strcc	r0, [sl], #-0
 5bc:	3a0e0300 	bcc	3811c4 <__bss_end__+0x37723c>
 5c0:	490b3b0b 	stmdbmi	fp, {r0, r1, r3, r8, r9, fp, ip, sp}
 5c4:	3c193f13 	ldccc	15, cr3, [r9], {19}
 5c8:	0b000019 	bleq	634 <_start-0x79cc>
 5cc:	0e030034 	mcreq	0, 0, r0, cr3, cr4, {1}
 5d0:	0b3b0b3a 	bleq	ec32c0 <__bss_end__+0xeb9338>
 5d4:	193f1349 	ldmdbne	pc!, {r0, r3, r6, r8, r9, ip}	; <UNPREDICTABLE>
 5d8:	00001802 	andeq	r1, r0, r2, lsl #16
 5dc:	01110100 	tsteq	r1, r0, lsl #2
 5e0:	0b130e25 	bleq	4c3e7c <__bss_end__+0x4b9ef4>
 5e4:	0e1b0e03 	cdpeq	14, 1, cr0, cr11, cr3, {0}
 5e8:	06120111 			; <UNDEFINED> instruction: 0x06120111
 5ec:	00001710 	andeq	r1, r0, r0, lsl r7
 5f0:	0b002402 	bleq	9600 <gpio_int_rising_edge+0x68>
 5f4:	030b3e0b 	movweq	r3, #48651	; 0xbe0b
 5f8:	03000008 	movweq	r0, #8
 5fc:	0b0b0024 	bleq	2c0694 <__bss_end__+0x2b670c>
 600:	0e030b3e 	vmoveq.16	d3[0], r0
 604:	0f040000 	svceq	0x00040000
 608:	000b0b00 	andeq	r0, fp, r0, lsl #22
 60c:	000f0500 	andeq	r0, pc, r0, lsl #10
 610:	13490b0b 	movtne	r0, #39691	; 0x9b0b
 614:	26060000 	strcs	r0, [r6], -r0
 618:	00134900 	andseq	r4, r3, r0, lsl #18
 61c:	00160700 	andseq	r0, r6, r0, lsl #14
 620:	0b3a0e03 	bleq	e83e34 <__bss_end__+0xe79eac>
 624:	13490b3b 	movtne	r0, #39739	; 0x9b3b
 628:	13080000 	movwne	r0, #32768	; 0x8000
 62c:	0b0e0301 	bleq	381238 <__bss_end__+0x3772b0>
 630:	3b0b3a0b 	blcc	2cee64 <__bss_end__+0x2c4edc>
 634:	0013010b 	andseq	r0, r3, fp, lsl #2
 638:	000d0900 	andeq	r0, sp, r0, lsl #18
 63c:	13490e03 	movtne	r0, #40451	; 0x9e03
 640:	19340b38 	ldmdbne	r4!, {r3, r4, r5, r8, r9, fp}
 644:	2e0a0000 	cdpcs	0, 0, cr0, cr10, cr0, {0}
 648:	3a0e0301 	bcc	381254 <__bss_end__+0x3772cc>
 64c:	270b3b0b 	strcs	r3, [fp, -fp, lsl #22]
 650:	11134919 	tstne	r3, r9, lsl r9
 654:	40061201 	andmi	r1, r6, r1, lsl #4
 658:	19429718 	stmdbne	r2, {r3, r4, r8, r9, sl, ip, pc}^
 65c:	00001301 	andeq	r1, r0, r1, lsl #6
 660:	0300050b 	movweq	r0, #1291	; 0x50b
 664:	3b0b3a08 	blcc	2cee8c <__bss_end__+0x2c4f04>
 668:	0213490b 	andseq	r4, r3, #180224	; 0x2c000
 66c:	0c000017 	stceq	0, cr0, [r0], {23}
 670:	0803012e 	stmdaeq	r3, {r1, r2, r3, r5, r8}
 674:	0b3b0b3a 	bleq	ec3364 <__bss_end__+0xeb93dc>
 678:	13491927 	movtne	r1, #39207	; 0x9927
 67c:	06120111 			; <UNDEFINED> instruction: 0x06120111
 680:	42971840 	addsmi	r1, r7, #64, 16	; 0x400000
 684:	00130119 	andseq	r0, r3, r9, lsl r1
 688:	00050d00 	andeq	r0, r5, r0, lsl #26
 68c:	0b3a0e03 	bleq	e83ea0 <__bss_end__+0xe79f18>
 690:	13490b3b 	movtne	r0, #39739	; 0x9b3b
 694:	00001702 	andeq	r1, r0, r2, lsl #14
 698:	0300050e 	movweq	r0, #1294	; 0x50e
 69c:	3b0b3a0e 	blcc	2ceedc <__bss_end__+0x2c4f54>
 6a0:	0213490b 	andseq	r4, r3, #180224	; 0x2c000
 6a4:	0f000018 	svceq	0x00000018
 6a8:	08030034 	stmdaeq	r3, {r2, r4, r5}
 6ac:	0b3b0b3a 	bleq	ec339c <__bss_end__+0xeb9414>
 6b0:	18021349 	stmdane	r2, {r0, r3, r6, r8, r9, ip}
 6b4:	34100000 	ldrcc	r0, [r0], #-0
 6b8:	3a080300 	bcc	2012c0 <__bss_end__+0x1f7338>
 6bc:	490b3b0b 	stmdbmi	fp, {r0, r1, r3, r8, r9, fp, ip, sp}
 6c0:	00170213 	andseq	r0, r7, r3, lsl r2
 6c4:	00341100 	eorseq	r1, r4, r0, lsl #2
 6c8:	13490e03 	movtne	r0, #40451	; 0x9e03
 6cc:	18021934 	stmdane	r2, {r2, r4, r5, r8, fp, ip}
 6d0:	0b120000 	bleq	4806d8 <__bss_end__+0x476750>
 6d4:	12011101 	andne	r1, r1, #1073741824	; 0x40000000
 6d8:	00130106 	andseq	r0, r3, r6, lsl #2
 6dc:	00341300 	eorseq	r1, r4, r0, lsl #6
 6e0:	0b3a0e03 	bleq	e83ef4 <__bss_end__+0xe79f6c>
 6e4:	13490b3b 	movtne	r0, #39739	; 0x9b3b
 6e8:	00001702 	andeq	r1, r0, r2, lsl #14
 6ec:	01828914 	orreq	r8, r2, r4, lsl r9
 6f0:	31011100 	mrscc	r1, (UNDEF: 17)
 6f4:	15000013 	strne	r0, [r0, #-19]
 6f8:	01018289 	smlabbeq	r1, r9, r2, r8
 6fc:	13310111 	teqne	r1, #1073741828	; 0x40000004
 700:	00001301 	andeq	r1, r0, r1, lsl #6
 704:	01828a16 	orreq	r8, r2, r6, lsl sl
 708:	91180200 	tstls	r8, r0, lsl #4
 70c:	00001842 	andeq	r1, r0, r2, asr #16
 710:	01828917 	orreq	r8, r2, r7, lsl r9
 714:	31011101 	tstcc	r1, r1, lsl #2
 718:	18000013 	stmdane	r0, {r0, r1, r4}
 71c:	13490101 	movtne	r0, #37121	; 0x9101
 720:	00001301 	andeq	r1, r0, r1, lsl #6
 724:	49002119 	stmdbmi	r0, {r0, r3, r4, r8, sp}
 728:	000b2f13 	andeq	r2, fp, r3, lsl pc
 72c:	012e1a00 	teqeq	lr, r0, lsl #20
 730:	0e03193f 	mcreq	9, 0, r1, cr3, cr15, {1}
 734:	0b3b0b3a 	bleq	ec3424 <__bss_end__+0xeb949c>
 738:	01111927 	tsteq	r1, r7, lsr #18
 73c:	18400612 	stmdane	r0, {r1, r4, r9, sl}^
 740:	01194297 			; <UNDEFINED> instruction: 0x01194297
 744:	1b000013 	blne	798 <_start-0x7868>
 748:	19270115 	stmdbne	r7!, {r0, r2, r4, r8}
 74c:	13011349 	movwne	r1, #4937	; 0x1349
 750:	051c0000 	ldreq	r0, [ip, #-0]
 754:	00134900 	andseq	r4, r3, r0, lsl #18
 758:	012e1d00 	teqeq	lr, r0, lsl #26
 75c:	0e03193f 	mcreq	9, 0, r1, cr3, cr15, {1}
 760:	0b3b0b3a 	bleq	ec3450 <__bss_end__+0xeb94c8>
 764:	13491927 	movtne	r1, #39207	; 0x9927
 768:	06120111 			; <UNDEFINED> instruction: 0x06120111
 76c:	42971840 	addsmi	r1, r7, #64, 16	; 0x400000
 770:	00130119 	andseq	r0, r3, r9, lsl r1
 774:	010b1e00 	tsteq	fp, r0, lsl #28
 778:	00001755 	andeq	r1, r0, r5, asr r7
 77c:	0300341f 	movweq	r3, #1055	; 0x41f
 780:	3b0b3a0e 	blcc	2cefc0 <__bss_end__+0x2c5038>
 784:	3f13490b 	svccc	0x0013490b
 788:	00193c19 	andseq	r3, r9, r9, lsl ip
 78c:	002e2000 	eoreq	r2, lr, r0
 790:	0e03193f 	mcreq	9, 0, r1, cr3, cr15, {1}
 794:	0b3b0b3a 	bleq	ec3484 <__bss_end__+0xeb94fc>
 798:	193c1927 	ldmdbne	ip!, {r0, r1, r2, r5, r8, fp, ip}
 79c:	2e210000 	cdpcs	0, 2, cr0, cr1, cr0, {0}
 7a0:	03193f01 	tsteq	r9, #1, 30
 7a4:	3b0b3a0e 	blcc	2cefe4 <__bss_end__+0x2c505c>
 7a8:	4919270b 	ldmdbmi	r9, {r0, r1, r3, r8, r9, sl, sp}
 7ac:	01193c13 	tsteq	r9, r3, lsl ip
 7b0:	22000013 	andcs	r0, r0, #19
 7b4:	00000018 	andeq	r0, r0, r8, lsl r0
 7b8:	01110100 	tsteq	r1, r0, lsl #2
 7bc:	0b130e25 	bleq	4c4058 <__bss_end__+0x4ba0d0>
 7c0:	0e1b0e03 	cdpeq	14, 1, cr0, cr11, cr3, {0}
 7c4:	06120111 			; <UNDEFINED> instruction: 0x06120111
 7c8:	00001710 	andeq	r1, r0, r0, lsl r7
 7cc:	0b002402 	bleq	97dc <uart_init+0x60>
 7d0:	030b3e0b 	movweq	r3, #48651	; 0xbe0b
 7d4:	03000008 	movweq	r0, #8
 7d8:	0b0b0024 	bleq	2c0870 <__bss_end__+0x2b68e8>
 7dc:	0e030b3e 	vmoveq.16	d3[0], r0
 7e0:	2e040000 	cdpcs	0, 0, cr0, cr4, cr0, {0}
 7e4:	03193f01 	tsteq	r9, #1, 30
 7e8:	3b0b3a0e 	blcc	2cf028 <__bss_end__+0x2c50a0>
 7ec:	1119270b 	tstne	r9, fp, lsl #14
 7f0:	40061201 	andmi	r1, r6, r1, lsl #4
 7f4:	19429718 	stmdbne	r2, {r3, r4, r8, r9, sl, ip, pc}^
 7f8:	00001301 	andeq	r1, r0, r1, lsl #6
 7fc:	03003405 	movweq	r3, #1029	; 0x405
 800:	3b0b3a08 	blcc	2cf028 <__bss_end__+0x2c50a0>
 804:	0213490b 	andseq	r4, r3, #180224	; 0x2c000
 808:	06000017 			; <UNDEFINED> instruction: 0x06000017
 80c:	193f012e 	ldmdbne	pc!, {r1, r2, r3, r5, r8}	; <UNPREDICTABLE>
 810:	0b3a0e03 	bleq	e84024 <__bss_end__+0xe7a09c>
 814:	19270b3b 	stmdbne	r7!, {r0, r1, r3, r4, r5, r8, r9, fp}
 818:	06120111 			; <UNDEFINED> instruction: 0x06120111
 81c:	42971840 	addsmi	r1, r7, #64, 16	; 0x400000
 820:	00000019 	andeq	r0, r0, r9, lsl r0
 824:	25011101 	strcs	r1, [r1, #-257]	; 0x101
 828:	030b130e 	movweq	r1, #45838	; 0xb30e
 82c:	110e1b0e 	tstne	lr, lr, lsl #22
 830:	10061201 	andne	r1, r6, r1, lsl #4
 834:	02000017 	andeq	r0, r0, #23
 838:	0b0b0024 	bleq	2c08d0 <__bss_end__+0x2b6948>
 83c:	08030b3e 	stmdaeq	r3, {r1, r2, r3, r4, r5, r8, r9, fp}
 840:	24030000 	strcs	r0, [r3], #-0
 844:	3e0b0b00 	vmlacc.f64	d0, d11, d0
 848:	000e030b 	andeq	r0, lr, fp, lsl #6
 84c:	000f0400 	andeq	r0, pc, r0, lsl #8
 850:	13490b0b 	movtne	r0, #39691	; 0x9b0b
 854:	26050000 	strcs	r0, [r5], -r0
 858:	00134900 	andseq	r4, r3, r0, lsl #18
 85c:	012e0600 	teqeq	lr, r0, lsl #12
 860:	0e03193f 	mcreq	9, 0, r1, cr3, cr15, {1}
 864:	0b3b0b3a 	bleq	ec3554 <__bss_end__+0xeb95cc>
 868:	01111927 	tsteq	r1, r7, lsr #18
 86c:	18400612 	stmdane	r0, {r1, r4, r9, sl}^
 870:	01194297 			; <UNDEFINED> instruction: 0x01194297
 874:	07000013 	smladeq	r0, r3, r0, r0
 878:	01018289 	smlabbeq	r1, r9, r2, r8
 87c:	13010111 	movwne	r0, #4369	; 0x1111
 880:	8a080000 	bhi	200888 <__bss_end__+0x1f6900>
 884:	02000182 	andeq	r0, r0, #-2147483616	; 0x80000020
 888:	18429118 	stmdane	r2, {r3, r4, r8, ip, pc}^
 88c:	89090000 	stmdbhi	r9, {}	; <UNPREDICTABLE>
 890:	11010182 	smlabbne	r1, r2, r1, r0
 894:	01133101 	tsteq	r3, r1, lsl #2
 898:	0a000013 	beq	8ec <_start-0x7714>
 89c:	00018289 	andeq	r8, r1, r9, lsl #5
 8a0:	13310111 	teqne	r1, #1073741828	; 0x40000004
 8a4:	150b0000 	strne	r0, [fp, #-0]
 8a8:	49192701 	ldmdbmi	r9, {r0, r8, r9, sl, sp}
 8ac:	00130113 	andseq	r0, r3, r3, lsl r1
 8b0:	00050c00 	andeq	r0, r5, r0, lsl #24
 8b4:	00001349 	andeq	r1, r0, r9, asr #6
 8b8:	0300340d 	movweq	r3, #1037	; 0x40d
 8bc:	3b0b3a0e 	blcc	2cf0fc <__bss_end__+0x2c5174>
 8c0:	3f13490b 	svccc	0x0013490b
 8c4:	00193c19 	andseq	r3, r9, r9, lsl ip
 8c8:	012e0e00 	teqeq	lr, r0, lsl #28
 8cc:	0e03193f 	mcreq	9, 0, r1, cr3, cr15, {1}
 8d0:	0b3b0b3a 	bleq	ec35c0 <__bss_end__+0xeb9638>
 8d4:	193c1927 	ldmdbne	ip!, {r0, r1, r2, r5, r8, fp, ip}
 8d8:	00001301 	andeq	r1, r0, r1, lsl #6
 8dc:	3f002e0f 	svccc	0x00002e0f
 8e0:	3a0e0319 	bcc	38154c <__bss_end__+0x3775c4>
 8e4:	270b3b0b 	strcs	r3, [fp, -fp, lsl #22]
 8e8:	00193c19 	andseq	r3, r9, r9, lsl ip
 8ec:	11010000 	mrsne	r0, (UNDEF: 1)
 8f0:	130e2501 	movwne	r2, #58625	; 0xe501
 8f4:	1b0e030b 	blne	381528 <__bss_end__+0x3775a0>
 8f8:	1201110e 	andne	r1, r1, #-2147483645	; 0x80000003
 8fc:	00171006 	andseq	r1, r7, r6
 900:	00240200 	eoreq	r0, r4, r0, lsl #4
 904:	0b3e0b0b 	bleq	f83538 <__bss_end__+0xf795b0>
 908:	00000803 	andeq	r0, r0, r3, lsl #16
 90c:	0b002403 	bleq	9920 <GET32>
 910:	030b3e0b 	movweq	r3, #48651	; 0xbe0b
 914:	0400000e 	streq	r0, [r0], #-14
 918:	193f012e 	ldmdbne	pc!, {r1, r2, r3, r5, r8}	; <UNPREDICTABLE>
 91c:	0b3a0e03 	bleq	e84130 <__bss_end__+0xe7a1a8>
 920:	01110b3b 	tsteq	r1, fp, lsr fp
 924:	18400612 	stmdane	r0, {r1, r4, r9, sl}^
 928:	01194297 			; <UNDEFINED> instruction: 0x01194297
 92c:	05000013 	streq	r0, [r0, #-19]
 930:	0e030034 	mcreq	0, 0, r0, cr3, cr4, {1}
 934:	0b3b0b3a 	bleq	ec3624 <__bss_end__+0xeb969c>
 938:	193f1349 	ldmdbne	pc!, {r0, r3, r6, r8, r9, ip}	; <UNPREDICTABLE>
 93c:	0000193c 	andeq	r1, r0, ip, lsr r9
 940:	3f002e06 	svccc	0x00002e06
 944:	3a0e0319 	bcc	3815b0 <__bss_end__+0x377628>
 948:	270b3b0b 	strcs	r3, [fp, -fp, lsl #22]
 94c:	00193c19 	andseq	r3, r9, r9, lsl ip
 950:	00340700 	eorseq	r0, r4, r0, lsl #14
 954:	0b3a0803 	bleq	e82968 <__bss_end__+0xe789e0>
 958:	13490b3b 	movtne	r0, #39739	; 0x9b3b
 95c:	00001702 	andeq	r1, r0, r2, lsl #14
 960:	03003408 	movweq	r3, #1032	; 0x408
 964:	3b0b3a0e 	blcc	2cf1a4 <__bss_end__+0x2c521c>
 968:	0013490b 	andseq	r4, r3, fp, lsl #18
 96c:	82890900 	addhi	r0, r9, #0, 18
 970:	01110001 	tsteq	r1, r1
 974:	00001331 	andeq	r1, r0, r1, lsr r3
 978:	0b000f0a 	bleq	45a8 <_start-0x3a58>
 97c:	0013490b 	andseq	r4, r3, fp, lsl #18
 980:	11010000 	mrsne	r0, (UNDEF: 1)
 984:	130e2501 	movwne	r2, #58625	; 0xe501
 988:	1b0e030b 	blne	3815bc <__bss_end__+0x377634>
 98c:	1117550e 	tstne	r7, lr, lsl #10
 990:	00171001 	andseq	r1, r7, r1
 994:	00240200 	eoreq	r0, r4, r0, lsl #4
 998:	0b3e0b0b 	bleq	f835cc <__bss_end__+0xf79644>
 99c:	00000803 	andeq	r0, r0, r3, lsl #16
 9a0:	0b002403 	bleq	99b4 <AUX_MU_LSR_REG>
 9a4:	030b3e0b 	movweq	r3, #48651	; 0xbe0b
 9a8:	0400000e 	streq	r0, [r0], #-14
 9ac:	193f012e 	ldmdbne	pc!, {r1, r2, r3, r5, r8}	; <UNPREDICTABLE>
 9b0:	0b3a0e03 	bleq	e841c4 <__bss_end__+0xe7a23c>
 9b4:	19270b3b 	stmdbne	r7!, {r0, r1, r3, r4, r5, r8, r9, fp}
 9b8:	01111349 	tsteq	r1, r9, asr #6
 9bc:	18400612 	stmdane	r0, {r1, r4, r9, sl}^
 9c0:	01194297 			; <UNDEFINED> instruction: 0x01194297
 9c4:	05000013 	streq	r0, [r0, #-19]
 9c8:	0e030034 	mcreq	0, 0, r0, cr3, cr4, {1}
 9cc:	0b3b0b3a 	bleq	ec36bc <__bss_end__+0xeb9734>
 9d0:	17021349 	strne	r1, [r2, -r9, asr #6]
 9d4:	2e060000 	cdpcs	0, 0, cr0, cr6, cr0, {0}
 9d8:	03193f01 	tsteq	r9, #1, 30
 9dc:	3b0b3a0e 	blcc	2cf21c <__bss_end__+0x2c5294>
 9e0:	1119270b 	tstne	r9, fp, lsl #14
 9e4:	40061201 	andmi	r1, r6, r1, lsl #4
 9e8:	19429718 	stmdbne	r2, {r3, r4, r8, r9, sl, ip, pc}^
 9ec:	00001301 	andeq	r1, r0, r1, lsl #6
 9f0:	03003407 	movweq	r3, #1031	; 0x407
 9f4:	3b0b3a0e 	blcc	2cf234 <__bss_end__+0x2c52ac>
 9f8:	1c13490b 	ldcne	9, cr4, [r3], {11}
 9fc:	08000006 	stmdaeq	r0, {r1, r2}
 a00:	0e030034 	mcreq	0, 0, r0, cr3, cr4, {1}
 a04:	0b3b0b3a 	bleq	ec36f4 <__bss_end__+0xeb976c>
 a08:	0b1c1349 	bleq	705734 <__bss_end__+0x6fb7ac>
 a0c:	89090000 	stmdbhi	r9, {}	; <UNPREDICTABLE>
 a10:	11000182 	smlabbne	r0, r2, r1, r0
 a14:	00133101 	andseq	r3, r3, r1, lsl #2
 a18:	82890a00 	addhi	r0, r9, #0, 20
 a1c:	01110101 	tsteq	r1, r1, lsl #2
 a20:	13011331 	movwne	r1, #4913	; 0x1331
 a24:	8a0b0000 	bhi	2c0a2c <__bss_end__+0x2b6aa4>
 a28:	02000182 	andeq	r0, r0, #-2147483616	; 0x80000020
 a2c:	18429118 	stmdane	r2, {r3, r4, r8, ip, pc}^
 a30:	890c0000 	stmdbhi	ip, {}	; <UNPREDICTABLE>
 a34:	11010182 	smlabbne	r1, r2, r1, r0
 a38:	00133101 	andseq	r3, r3, r1, lsl #2
 a3c:	00260d00 	eoreq	r0, r6, r0, lsl #26
 a40:	00001349 	andeq	r1, r0, r9, asr #6
 a44:	3f012e0e 	svccc	0x00012e0e
 a48:	3a0e0319 	bcc	3816b4 <__bss_end__+0x37772c>
 a4c:	270b3b0b 	strcs	r3, [fp, -fp, lsl #22]
 a50:	01193c19 	tsteq	r9, r9, lsl ip
 a54:	0f000013 	svceq	0x00000013
 a58:	13490005 	movtne	r0, #36869	; 0x9005
 a5c:	2e100000 	cdpcs	0, 1, cr0, cr0, cr0, {0}
 a60:	03193f01 	tsteq	r9, #1, 30
 a64:	3b0b3a0e 	blcc	2cf2a4 <__bss_end__+0x2c531c>
 a68:	3c19270b 	ldccc	7, cr2, [r9], {11}
 a6c:	00000019 	andeq	r0, r0, r9, lsl r0
 a70:	25011101 	strcs	r1, [r1, #-257]	; 0x101
 a74:	030b130e 	movweq	r1, #45838	; 0xb30e
 a78:	110e1b0e 	tstne	lr, lr, lsl #22
 a7c:	10061201 	andne	r1, r6, r1, lsl #4
 a80:	02000017 	andeq	r0, r0, #23
 a84:	0b0b0024 	bleq	2c0b1c <__bss_end__+0x2b6b94>
 a88:	08030b3e 	stmdaeq	r3, {r1, r2, r3, r4, r5, r8, r9, fp}
 a8c:	24030000 	strcs	r0, [r3], #-0
 a90:	3e0b0b00 	vmlacc.f64	d0, d11, d0
 a94:	000e030b 	andeq	r0, lr, fp, lsl #6
 a98:	012e0400 	teqeq	lr, r0, lsl #8
 a9c:	0e03193f 	mcreq	9, 0, r1, cr3, cr15, {1}
 aa0:	0b3b0b3a 	bleq	ec3790 <__bss_end__+0xeb9808>
 aa4:	01111927 	tsteq	r1, r7, lsr #18
 aa8:	18400612 	stmdane	r0, {r1, r4, r9, sl}^
 aac:	01194297 			; <UNDEFINED> instruction: 0x01194297
 ab0:	05000013 	streq	r0, [r0, #-19]
 ab4:	0e030005 	cdpeq	0, 0, cr0, cr3, cr5, {0}
 ab8:	0b3b0b3a 	bleq	ec37a8 <__bss_end__+0xeb9820>
 abc:	17021349 	strne	r1, [r2, -r9, asr #6]
 ac0:	2e060000 	cdpcs	0, 0, cr0, cr6, cr0, {0}
 ac4:	03193f01 	tsteq	r9, #1, 30
 ac8:	3b0b3a0e 	blcc	2cf308 <__bss_end__+0x2c5380>
 acc:	4919270b 	ldmdbmi	r9, {r0, r1, r3, r8, r9, sl, sp}
 ad0:	12011113 	andne	r1, r1, #-1073741820	; 0xc0000004
 ad4:	97184006 	ldrls	r4, [r8, -r6]
 ad8:	13011942 	movwne	r1, #6466	; 0x1942
 adc:	89070000 	stmdbhi	r7, {}	; <UNPREDICTABLE>
 ae0:	11010182 	smlabbne	r1, r2, r1, r0
 ae4:	00133101 	andseq	r3, r3, r1, lsl #2
 ae8:	828a0800 	addhi	r0, sl, #0, 16
 aec:	18020001 	stmdane	r2, {r0}
 af0:	00184291 	mulseq	r8, r1, r2
 af4:	00340900 	eorseq	r0, r4, r0, lsl #18
 af8:	0b3a0803 	bleq	e82b0c <__bss_end__+0xe78b84>
 afc:	13490b3b 	movtne	r0, #39739	; 0x9b3b
 b00:	00001802 	andeq	r1, r0, r2, lsl #16
 b04:	0182890a 	orreq	r8, r2, sl, lsl #18
 b08:	31011100 	mrscc	r1, (UNDEF: 17)
 b0c:	0b000013 	bleq	b60 <_start-0x74a0>
 b10:	08030005 	stmdaeq	r3, {r0, r2}
 b14:	0b3b0b3a 	bleq	ec3804 <__bss_end__+0xeb987c>
 b18:	17021349 	strne	r1, [r2, -r9, asr #6]
 b1c:	0b0c0000 	bleq	300b24 <__bss_end__+0x2f6b9c>
 b20:	12011101 	andne	r1, r1, #1073741824	; 0x40000000
 b24:	00130106 	andseq	r0, r3, r6, lsl #2
 b28:	00340d00 	eorseq	r0, r4, r0, lsl #26
 b2c:	0b3a0803 	bleq	e82b40 <__bss_end__+0xe78bb8>
 b30:	13490b3b 	movtne	r0, #39739	; 0x9b3b
 b34:	00001702 	andeq	r1, r0, r2, lsl #14
 b38:	3f012e0e 	svccc	0x00012e0e
 b3c:	3a0e0319 	bcc	3817a8 <__bss_end__+0x377820>
 b40:	270b3b0b 	strcs	r3, [fp, -fp, lsl #22]
 b44:	3c134919 	ldccc	9, cr4, [r3], {25}
 b48:	0f000019 	svceq	0x00000019
 b4c:	13490005 	movtne	r0, #36869	; 0x9005
 b50:	01000000 	mrseq	r0, (UNDEF: 0)
 b54:	0e250111 	mcreq	1, 1, r0, cr5, cr1, {0}
 b58:	0e030b13 	vmoveq.32	d3[0], r0
 b5c:	01110e1b 	tsteq	r1, fp, lsl lr
 b60:	17100612 			; <UNDEFINED> instruction: 0x17100612
 b64:	24020000 	strcs	r0, [r2], #-0
 b68:	3e0b0b00 	vmlacc.f64	d0, d11, d0
 b6c:	000e030b 	andeq	r0, lr, fp, lsl #6
 b70:	00240300 	eoreq	r0, r4, r0, lsl #6
 b74:	0b3e0b0b 	bleq	f837a8 <__bss_end__+0xf79820>
 b78:	00000803 	andeq	r0, r0, r3, lsl #16
 b7c:	0b010404 	bleq	41b94 <__bss_end__+0x37c0c>
 b80:	3b0b3a0b 	blcc	2cf3b4 <__bss_end__+0x2c542c>
 b84:	0013010b 	andseq	r0, r3, fp, lsl #2
 b88:	00280500 	eoreq	r0, r8, r0, lsl #10
 b8c:	0d1c0e03 	ldceq	14, cr0, [ip, #-12]
 b90:	16060000 	strne	r0, [r6], -r0
 b94:	3a0e0300 	bcc	38179c <__bss_end__+0x377814>
 b98:	490b3b0b 	stmdbmi	fp, {r0, r1, r3, r8, r9, fp, ip, sp}
 b9c:	07000013 	smladeq	r0, r3, r0, r0
 ba0:	193f012e 	ldmdbne	pc!, {r1, r2, r3, r5, r8}	; <UNPREDICTABLE>
 ba4:	0b3a0e03 	bleq	e843b8 <__bss_end__+0xe7a430>
 ba8:	19270b3b 	stmdbne	r7!, {r0, r1, r3, r4, r5, r8, r9, fp}
 bac:	06120111 			; <UNDEFINED> instruction: 0x06120111
 bb0:	42971840 	addsmi	r1, r7, #64, 16	; 0x400000
 bb4:	00130119 	andseq	r0, r3, r9, lsl r1
 bb8:	00050800 	andeq	r0, r5, r0, lsl #16
 bbc:	0b3a0803 	bleq	e82bd0 <__bss_end__+0xe78c48>
 bc0:	13490b3b 	movtne	r0, #39739	; 0x9b3b
 bc4:	00001702 	andeq	r1, r0, r2, lsl #14
 bc8:	03003409 	movweq	r3, #1033	; 0x409
 bcc:	3b0b3a0e 	blcc	2cf40c <__bss_end__+0x2c5484>
 bd0:	0213490b 	andseq	r4, r3, #180224	; 0x2c000
 bd4:	0a000017 	beq	c38 <_start-0x73c8>
 bd8:	01018289 	smlabbeq	r1, r9, r2, r8
 bdc:	13310111 	teqne	r1, #1073741828	; 0x40000004
 be0:	00001301 	andeq	r1, r0, r1, lsl #6
 be4:	01828a0b 	orreq	r8, r2, fp, lsl #20
 be8:	91180200 	tstls	r8, r0, lsl #4
 bec:	00001842 	andeq	r1, r0, r2, asr #16
 bf0:	0182890c 	orreq	r8, r2, ip, lsl #18
 bf4:	31011101 	tstcc	r1, r1, lsl #2
 bf8:	0d000013 	stceq	0, cr0, [r0, #-76]	; 0xffffffb4
 bfc:	0b0b000f 	bleq	2c0c40 <__bss_end__+0x2b6cb8>
 c00:	00001349 	andeq	r1, r0, r9, asr #6
 c04:	4900350e 	stmdbmi	r0, {r1, r2, r3, r8, sl, ip, sp}
 c08:	0f000013 	svceq	0x00000013
 c0c:	193f012e 	ldmdbne	pc!, {r1, r2, r3, r5, r8}	; <UNPREDICTABLE>
 c10:	0b3a0e03 	bleq	e84424 <__bss_end__+0xe7a49c>
 c14:	19270b3b 	stmdbne	r7!, {r0, r1, r3, r4, r5, r8, r9, fp}
 c18:	01111349 	tsteq	r1, r9, asr #6
 c1c:	18400612 	stmdane	r0, {r1, r4, r9, sl}^
 c20:	01194297 			; <UNDEFINED> instruction: 0x01194297
 c24:	10000013 	andne	r0, r0, r3, lsl r0
 c28:	08030034 	stmdaeq	r3, {r2, r4, r5}
 c2c:	0b3b0b3a 	bleq	ec391c <__bss_end__+0xeb9994>
 c30:	17021349 	strne	r1, [r2, -r9, asr #6]
 c34:	89110000 	ldmdbhi	r1, {}	; <UNPREDICTABLE>
 c38:	11000182 	smlabbne	r0, r2, r1, r0
 c3c:	00133101 	andseq	r3, r3, r1, lsl #2
 c40:	00051200 	andeq	r1, r5, r0, lsl #4
 c44:	0b3a0e03 	bleq	e84458 <__bss_end__+0xe7a4d0>
 c48:	13490b3b 	movtne	r0, #39739	; 0x9b3b
 c4c:	00001702 	andeq	r1, r0, r2, lsl #14
 c50:	3f012e13 	svccc	0x00012e13
 c54:	3a0e0319 	bcc	3818c0 <__bss_end__+0x377938>
 c58:	27053b0b 	strcs	r3, [r5, -fp, lsl #22]
 c5c:	11134919 	tstne	r3, r9, lsl r9
 c60:	40061201 	andmi	r1, r6, r1, lsl #4
 c64:	19429718 	stmdbne	r2, {r3, r4, r8, r9, sl, ip, pc}^
 c68:	00001301 	andeq	r1, r0, r1, lsl #6
 c6c:	03000514 	movweq	r0, #1300	; 0x514
 c70:	3b0b3a0e 	blcc	2cf4b0 <__bss_end__+0x2c5528>
 c74:	02134905 	andseq	r4, r3, #81920	; 0x14000
 c78:	15000017 	strne	r0, [r0, #-23]
 c7c:	193f012e 	ldmdbne	pc!, {r1, r2, r3, r5, r8}	; <UNPREDICTABLE>
 c80:	0b3a0e03 	bleq	e84494 <__bss_end__+0xe7a50c>
 c84:	1927053b 	stmdbne	r7!, {r0, r1, r3, r4, r5, r8, sl}
 c88:	06120111 			; <UNDEFINED> instruction: 0x06120111
 c8c:	42971840 	addsmi	r1, r7, #64, 16	; 0x400000
 c90:	00130119 	andseq	r0, r3, r9, lsl r1
 c94:	00051600 	andeq	r1, r5, r0, lsl #12
 c98:	0b3a0803 	bleq	e82cac <__bss_end__+0xe78d24>
 c9c:	1349053b 	movtne	r0, #38203	; 0x953b
 ca0:	00001702 	andeq	r1, r0, r2, lsl #14
 ca4:	03003417 	movweq	r3, #1047	; 0x417
 ca8:	3b0b3a0e 	blcc	2cf4e8 <__bss_end__+0x2c5560>
 cac:	02134905 	andseq	r4, r3, #81920	; 0x14000
 cb0:	18000017 	stmdane	r0, {r0, r1, r2, r4}
 cb4:	0111010b 	tsteq	r1, fp, lsl #2
 cb8:	13010612 	movwne	r0, #5650	; 0x1612
 cbc:	34190000 	ldrcc	r0, [r9], #-0
 cc0:	3a0e0300 	bcc	3818c8 <__bss_end__+0x377940>
 cc4:	490b3b0b 	stmdbmi	fp, {r0, r1, r3, r8, r9, fp, ip, sp}
 cc8:	02193f13 	andseq	r3, r9, #19, 30	; 0x4c
 ccc:	1a000018 	bne	d34 <_start-0x72cc>
 cd0:	0e030034 	mcreq	0, 0, r0, cr3, cr4, {1}
 cd4:	053b0b3a 	ldreq	r0, [fp, #-2874]!	; 0xb3a
 cd8:	193f1349 	ldmdbne	pc!, {r0, r3, r6, r8, r9, ip}	; <UNPREDICTABLE>
 cdc:	00001802 	andeq	r1, r0, r2, lsl #16
 ce0:	3f012e1b 	svccc	0x00012e1b
 ce4:	3a0e0319 	bcc	381950 <__bss_end__+0x3779c8>
 ce8:	270b3b0b 	strcs	r3, [fp, -fp, lsl #22]
 cec:	3c134919 	ldccc	9, cr4, [r3], {25}
 cf0:	00130119 	andseq	r0, r3, r9, lsl r1
 cf4:	00051c00 	andeq	r1, r5, r0, lsl #24
 cf8:	00001349 	andeq	r1, r0, r9, asr #6
 cfc:	4900261d 	stmdbmi	r0, {r0, r2, r3, r4, r9, sl, sp}
 d00:	1e000013 	mcrne	0, 0, r0, cr0, cr3, {0}
 d04:	00000035 	andeq	r0, r0, r5, lsr r0
 d08:	3f012e1f 	svccc	0x00012e1f
 d0c:	3a0e0319 	bcc	381978 <__bss_end__+0x3779f0>
 d10:	270b3b0b 	strcs	r3, [fp, -fp, lsl #22]
 d14:	01193c19 	tsteq	r9, r9, lsl ip
 d18:	20000013 	andcs	r0, r0, r3, lsl r0
 d1c:	193f002e 	ldmdbne	pc!, {r1, r2, r3, r5}	; <UNPREDICTABLE>
 d20:	0b3a0e03 	bleq	e84534 <__bss_end__+0xe7a5ac>
 d24:	19270b3b 	stmdbne	r7!, {r0, r1, r3, r4, r5, r8, r9, fp}
 d28:	0000193c 	andeq	r1, r0, ip, lsr r9
 d2c:	01110100 	tsteq	r1, r0, lsl #2
 d30:	0b130e25 	bleq	4c45cc <__bss_end__+0x4ba644>
 d34:	0e1b0e03 	cdpeq	14, 1, cr0, cr11, cr3, {0}
 d38:	06120111 			; <UNDEFINED> instruction: 0x06120111
 d3c:	00001710 	andeq	r1, r0, r0, lsl r7
 d40:	0b002402 	bleq	9d50 <__bss_start__+0x1cc>
 d44:	030b3e0b 	movweq	r3, #48651	; 0xbe0b
 d48:	03000008 	movweq	r0, #8
 d4c:	0b0b0024 	bleq	2c0de4 <__bss_end__+0x2b6e5c>
 d50:	0e030b3e 	vmoveq.16	d3[0], r0
 d54:	04040000 	streq	r0, [r4], #-0
 d58:	3a0b0b01 	bcc	2c3964 <__bss_end__+0x2b99dc>
 d5c:	010b3b0b 	tsteq	fp, fp, lsl #22
 d60:	05000013 	streq	r0, [r0, #-19]
 d64:	0e030028 	cdpeq	0, 0, cr0, cr3, cr8, {1}
 d68:	00000d1c 	andeq	r0, r0, ip, lsl sp
 d6c:	03001606 	movweq	r1, #1542	; 0x606
 d70:	3b0b3a0e 	blcc	2cf5b0 <__bss_end__+0x2c5628>
 d74:	0013490b 	andseq	r4, r3, fp, lsl #18
 d78:	012e0700 	teqeq	lr, r0, lsl #14
 d7c:	0e03193f 	mcreq	9, 0, r1, cr3, cr15, {1}
 d80:	0b3b0b3a 	bleq	ec3a70 <__bss_end__+0xeb9ae8>
 d84:	01111927 	tsteq	r1, r7, lsr #18
 d88:	18400612 	stmdane	r0, {r1, r4, r9, sl}^
 d8c:	01194297 			; <UNDEFINED> instruction: 0x01194297
 d90:	08000013 	stmdaeq	r0, {r0, r1, r4}
 d94:	00018289 	andeq	r8, r1, r9, lsl #5
 d98:	13310111 	teqne	r1, #1073741828	; 0x40000004
 d9c:	89090000 	stmdbhi	r9, {}	; <UNPREDICTABLE>
 da0:	11010182 	smlabbne	r1, r2, r1, r0
 da4:	01133101 	tsteq	r3, r1, lsl #2
 da8:	0a000013 	beq	dfc <_start-0x7204>
 dac:	0001828a 	andeq	r8, r1, sl, lsl #5
 db0:	42911802 	addsmi	r1, r1, #131072	; 0x20000
 db4:	0b000018 	bleq	e1c <_start-0x71e4>
 db8:	193f012e 	ldmdbne	pc!, {r1, r2, r3, r5, r8}	; <UNPREDICTABLE>
 dbc:	0b3a0e03 	bleq	e845d0 <__bss_end__+0xe7a648>
 dc0:	19270b3b 	stmdbne	r7!, {r0, r1, r3, r4, r5, r8, r9, fp}
 dc4:	01111349 	tsteq	r1, r9, asr #6
 dc8:	18400612 	stmdane	r0, {r1, r4, r9, sl}^
 dcc:	01194297 			; <UNDEFINED> instruction: 0x01194297
 dd0:	0c000013 	stceq	0, cr0, [r0], {19}
 dd4:	08030005 	stmdaeq	r3, {r0, r2}
 dd8:	0b3b0b3a 	bleq	ec3ac8 <__bss_end__+0xeb9b40>
 ddc:	17021349 	strne	r1, [r2, -r9, asr #6]
 de0:	890d0000 	stmdbhi	sp, {}	; <UNPREDICTABLE>
 de4:	11010182 	smlabbne	r1, r2, r1, r0
 de8:	00133101 	andseq	r3, r3, r1, lsl #2
 dec:	00340e00 	eorseq	r0, r4, r0, lsl #28
 df0:	0b3a0e03 	bleq	e84604 <__bss_end__+0xe7a67c>
 df4:	13490b3b 	movtne	r0, #39739	; 0x9b3b
 df8:	1802193f 	stmdane	r2, {r0, r1, r2, r3, r4, r5, r8, fp, ip}
 dfc:	0f0f0000 	svceq	0x000f0000
 e00:	490b0b00 	stmdbmi	fp, {r8, r9, fp}
 e04:	10000013 	andne	r0, r0, r3, lsl r0
 e08:	13490035 	movtne	r0, #36917	; 0x9035
 e0c:	2e110000 	cdpcs	0, 1, cr0, cr1, cr0, {0}
 e10:	03193f00 	tsteq	r9, #0, 30
 e14:	3b0b3a0e 	blcc	2cf654 <__bss_end__+0x2c56cc>
 e18:	3c19270b 	ldccc	7, cr2, [r9], {11}
 e1c:	12000019 	andne	r0, r0, #25
 e20:	193f012e 	ldmdbne	pc!, {r1, r2, r3, r5, r8}	; <UNPREDICTABLE>
 e24:	0b3a0e03 	bleq	e84638 <__bss_end__+0xe7a6b0>
 e28:	19270b3b 	stmdbne	r7!, {r0, r1, r3, r4, r5, r8, r9, fp}
 e2c:	1301193c 	movwne	r1, #6460	; 0x193c
 e30:	05130000 	ldreq	r0, [r3, #-0]
 e34:	00134900 	andseq	r4, r3, r0, lsl #18
 e38:	012e1400 	teqeq	lr, r0, lsl #8
 e3c:	0e03193f 	mcreq	9, 0, r1, cr3, cr15, {1}
 e40:	0b3b0b3a 	bleq	ec3b30 <__bss_end__+0xeb9ba8>
 e44:	13491927 	movtne	r1, #39207	; 0x9927
 e48:	1301193c 	movwne	r1, #6460	; 0x193c
 e4c:	26150000 	ldrcs	r0, [r5], -r0
 e50:	00134900 	andseq	r4, r3, r0, lsl #18
 e54:	00351600 	eorseq	r1, r5, r0, lsl #12
 e58:	Address 0x0000000000000e58 is out of bounds.


Disassembly of section .debug_loc:

00000000 <.debug_loc>:
       0:	00000000 	andeq	r0, r0, r0
       4:	00000018 	andeq	r0, r0, r8, lsl r0
       8:	18500001 	ldmdane	r0, {r0}^
       c:	28000000 	stmdacs	r0, {}	; <UNPREDICTABLE>
      10:	04000000 	streq	r0, [r0], #-0
      14:	5001f300 	andpl	pc, r1, r0, lsl #6
      18:	0000289f 	muleq	r0, pc, r8	; <UNPREDICTABLE>
      1c:	00002b00 	andeq	r2, r0, r0, lsl #22
      20:	50000100 	andpl	r0, r0, r0, lsl #2
      24:	0000002b 	andeq	r0, r0, fp, lsr #32
      28:	00000050 	andeq	r0, r0, r0, asr r0
      2c:	01f30004 	mvnseq	r0, r4
      30:	00009f50 	andeq	r9, r0, r0, asr pc
      34:	00000000 	andeq	r0, r0, r0
      38:	00200000 	eoreq	r0, r0, r0
      3c:	00240000 	eoreq	r0, r4, r0
      40:	00010000 	andeq	r0, r1, r0
      44:	00000050 	andeq	r0, r0, r0, asr r0
      48:	00000000 	andeq	r0, r0, r0
      4c:	00005000 	andeq	r5, r0, r0
      50:	0000d800 	andeq	sp, r0, r0, lsl #16
      54:	50000100 	andpl	r0, r0, r0, lsl #2
      58:	000000d8 	ldrdeq	r0, [r0], -r8
      5c:	00000214 	andeq	r0, r0, r4, lsl r2
      60:	01f30004 	mvnseq	r0, r4
      64:	00009f50 	andeq	r9, r0, r0, asr pc
      68:	00000000 	andeq	r0, r0, r0
      6c:	00500000 	subseq	r0, r0, r0
      70:	00bc0000 	adcseq	r0, ip, r0
      74:	00020000 	andeq	r0, r2, r0
      78:	00bc9f30 	adcseq	r9, ip, r0, lsr pc
      7c:	00e80000 	rsceq	r0, r8, r0
      80:	00010000 	andeq	r0, r1, r0
      84:	0000e857 	andeq	lr, r0, r7, asr r8
      88:	00011800 	andeq	r1, r1, r0, lsl #16
      8c:	77000600 	strvc	r0, [r0, -r0, lsl #12]
      90:	21007000 	mrscs	r7, (UNDEF: 0)
      94:	0001189f 	muleq	r1, pc, r8	; <UNPREDICTABLE>
      98:	00014400 	andeq	r4, r1, r0, lsl #8
      9c:	56000100 	strpl	r0, [r0], -r0, lsl #2
      a0:	00000144 	andeq	r0, r0, r4, asr #2
      a4:	00000170 	andeq	r0, r0, r0, ror r1
      a8:	70500001 	subsvc	r0, r0, r1
      ac:	9c000001 	stcls	0, cr0, [r0], {1}
      b0:	01000001 	tsteq	r0, r1
      b4:	019c5700 	orrseq	r5, ip, r0, lsl #14
      b8:	01c80000 	biceq	r0, r8, r0
      bc:	00010000 	andeq	r0, r1, r0
      c0:	0001c856 	andeq	ip, r1, r6, asr r8
      c4:	00021400 	andeq	r1, r2, r0, lsl #8
      c8:	50000100 	andpl	r0, r0, r0, lsl #2
	...
      d4:	0000006c 	andeq	r0, r0, ip, rrx
      d8:	00000094 	muleq	r0, r4, r0
      dc:	94550001 	ldrbls	r0, [r5], #-1
      e0:	e0000000 	and	r0, r0, r0
      e4:	05000001 	streq	r0, [r0, #-1]
      e8:	31007400 	tstcc	r0, r0, lsl #8
      ec:	01e09f25 	mvneq	r9, r5, lsr #30
      f0:	02140000 	andseq	r0, r4, #0
      f4:	00090000 	andeq	r0, r9, r0
      f8:	235001f3 	cmpcs	r0, #-1073741764	; 0xc000003c
      fc:	2531060c 	ldrcs	r0, [r1, #-1548]!	; 0x60c
     100:	0000009f 	muleq	r0, pc, r0	; <UNPREDICTABLE>
     104:	00000000 	andeq	r0, r0, r0
     108:	00008400 	andeq	r8, r0, r0, lsl #8
     10c:	00008800 	andeq	r8, r0, r0, lsl #16
     110:	52000100 	andpl	r0, r0, #0, 2
	...
     11c:	00000098 	muleq	r0, r8, r0
     120:	0000009c 	muleq	r0, ip, r0
     124:	00520001 	subseq	r0, r2, r1
     128:	00000000 	andeq	r0, r0, r0
     12c:	c0000000 	andgt	r0, r0, r0
     130:	c4000000 	strgt	r0, [r0], #-0
     134:	01000000 	mrseq	r0, (UNDEF: 0)
     138:	00005200 	andeq	r5, r0, r0, lsl #4
     13c:	00000000 	andeq	r0, r0, r0
     140:	00ec0000 	rsceq	r0, ip, r0
     144:	00f00000 	rscseq	r0, r0, r0
     148:	00010000 	andeq	r0, r1, r0
     14c:	00000052 	andeq	r0, r0, r2, asr r0
     150:	00000000 	andeq	r0, r0, r0
     154:	00011c00 	andeq	r1, r1, r0, lsl #24
     158:	00012000 	andeq	r2, r1, r0
     15c:	52000100 	andpl	r0, r0, #0, 2
	...
     168:	00000148 	andeq	r0, r0, r8, asr #2
     16c:	0000014c 	andeq	r0, r0, ip, asr #2
     170:	00520001 	subseq	r0, r2, r1
     174:	00000000 	andeq	r0, r0, r0
     178:	74000000 	strvc	r0, [r0], #-0
     17c:	78000001 	stmdavc	r0, {r0}
     180:	01000001 	tsteq	r0, r1
     184:	00005200 	andeq	r5, r0, r0, lsl #4
     188:	00000000 	andeq	r0, r0, r0
     18c:	01a00000 	moveq	r0, r0
     190:	01a40000 			; <UNDEFINED> instruction: 0x01a40000
     194:	00010000 	andeq	r0, r1, r0
     198:	00000052 	andeq	r0, r0, r2, asr r0
     19c:	00000000 	andeq	r0, r0, r0
     1a0:	0001cc00 	andeq	ip, r1, r0, lsl #24
     1a4:	0001d000 	andeq	sp, r1, r0
     1a8:	52000100 	andpl	r0, r0, #0, 2
	...
     1b4:	000001fc 	strdeq	r0, [r0], -ip
     1b8:	00000200 	andeq	r0, r0, r0, lsl #4
     1bc:	00520001 	subseq	r0, r2, r1
     1c0:	00000000 	andeq	r0, r0, r0
     1c4:	14000000 	strne	r0, [r0], #-0
     1c8:	2c000002 	stccs	0, cr0, [r0], {2}
     1cc:	01000004 	tsteq	r0, r4
     1d0:	042c5100 	strteq	r5, [ip], #-256	; 0x100
     1d4:	04a40000 	strteq	r0, [r4], #0
     1d8:	00040000 	andeq	r0, r4, r0
     1dc:	9f5101f3 	svcls	0x005101f3
	...
     1e8:	00000240 	andeq	r0, r0, r0, asr #4
     1ec:	00000278 	andeq	r0, r0, r8, ror r2
     1f0:	00550001 	subseq	r0, r5, r1
     1f4:	00000000 	andeq	r0, r0, r0
     1f8:	54000000 	strpl	r0, [r0], #-0
     1fc:	58000002 	stmdapl	r0, {r1}
     200:	01000002 	tsteq	r0, r2
     204:	00005200 	andeq	r5, r0, r0, lsl #4
     208:	00000000 	andeq	r0, r0, r0
     20c:	026c0000 	rsbeq	r0, ip, #0
     210:	042c0000 	strteq	r0, [ip], #-0
     214:	00090000 	andeq	r0, r9, r0
     218:	80090071 	andhi	r0, r9, r1, ror r0
     21c:	1aff081a 	bne	fffc228c <__bss_end__+0xfffb8304>
     220:	0000009f 	muleq	r0, pc, r0	; <UNPREDICTABLE>
     224:	00000000 	andeq	r0, r0, r0
     228:	00026c00 	andeq	r6, r2, r0, lsl #24
     22c:	00027c00 	andeq	r7, r2, r0, lsl #24
     230:	52000100 	andpl	r0, r0, #0, 2
     234:	0000027c 	andeq	r0, r0, ip, ror r2
     238:	0000047c 	andeq	r0, r0, ip, ror r4
     23c:	00700002 	rsbseq	r0, r0, r2
	...
     248:	0000026c 	andeq	r0, r0, ip, ror #4
     24c:	000002ac 	andeq	r0, r0, ip, lsr #5
     250:	00710009 	rsbseq	r0, r1, r9
     254:	081a8009 	ldmdaeq	sl, {r0, r3, pc}
     258:	ac9f1aff 	vldmiage	pc, {s2-s256}
     25c:	ec000002 	stc	0, cr0, [r0], {2}
     260:	09000002 	stmdbeq	r0, {r1}
     264:	08007100 	stmdaeq	r0, {r8, ip, sp, lr}
     268:	ff081a40 			; <UNDEFINED> instruction: 0xff081a40
     26c:	02ec9f1a 	rsceq	r9, ip, #26, 30	; 0x68
     270:	032c0000 	teqeq	ip, #0
     274:	00090000 	andeq	r0, r9, r0
     278:	20080071 	andcs	r0, r8, r1, ror r0
     27c:	1aff081a 	bne	fffc22ec <__bss_end__+0xfffb8364>
     280:	00032c9f 	muleq	r3, pc, ip	; <UNPREDICTABLE>
     284:	00036c00 	andeq	r6, r3, r0, lsl #24
     288:	71000800 	tstvc	r0, r0, lsl #16
     28c:	081a4000 	ldmdaeq	sl, {lr}
     290:	6c9f1aff 	vldmiavs	pc, {s2-s256}
     294:	b0000003 	andlt	r0, r0, r3
     298:	08000003 	stmdaeq	r0, {r0, r1}
     29c:	38007100 	stmdacc	r0, {r8, ip, sp, lr}
     2a0:	1aff081a 	bne	fffc2310 <__bss_end__+0xfffb8388>
     2a4:	0003b09f 	muleq	r3, pc, r0	; <UNPREDICTABLE>
     2a8:	0003f000 	andeq	pc, r3, r0
     2ac:	71000800 	tstvc	r0, r0, lsl #16
     2b0:	081a3400 	ldmdaeq	sl, {sl, ip, sp}
     2b4:	f09f1aff 			; <UNDEFINED> instruction: 0xf09f1aff
     2b8:	2c000003 	stccs	0, cr0, [r0], {3}
     2bc:	08000004 	stmdaeq	r0, {r2}
     2c0:	32007100 	andcc	r7, r0, #0, 2
     2c4:	1aff081a 	bne	fffc2334 <__bss_end__+0xfffb83ac>
     2c8:	0000009f 	muleq	r0, pc, r0	; <UNPREDICTABLE>
     2cc:	00000000 	andeq	r0, r0, r0
     2d0:	00029400 	andeq	r9, r2, r0, lsl #8
     2d4:	00029800 	andeq	r9, r2, r0, lsl #16
     2d8:	52000100 	andpl	r0, r0, #0, 2
	...
     2e4:	000002ac 	andeq	r0, r0, ip, lsr #5
     2e8:	0000042c 	andeq	r0, r0, ip, lsr #8
     2ec:	00710009 	rsbseq	r0, r1, r9
     2f0:	081a4008 	ldmdaeq	sl, {r3, lr}
     2f4:	009f1aff 			; <UNDEFINED> instruction: 0x009f1aff
     2f8:	00000000 	andeq	r0, r0, r0
     2fc:	ac000000 	stcge	0, cr0, [r0], {-0}
     300:	bc000002 	stclt	0, cr0, [r0], {2}
     304:	01000002 	tsteq	r0, r2
     308:	02bc5200 	adcseq	r5, ip, #0, 4
     30c:	047c0000 	ldrbteq	r0, [ip], #-0
     310:	00020000 	andeq	r0, r2, r0
     314:	00000070 	andeq	r0, r0, r0, ror r0
     318:	00000000 	andeq	r0, r0, r0
     31c:	02ac0000 	adceq	r0, ip, #0
     320:	02ec0000 	rsceq	r0, ip, #0
     324:	00090000 	andeq	r0, r9, r0
     328:	40080071 	andmi	r0, r8, r1, ror r0
     32c:	1aff081a 	bne	fffc239c <__bss_end__+0xfffb8414>
     330:	0002ec9f 	muleq	r2, pc, ip	; <UNPREDICTABLE>
     334:	00032c00 	andeq	r2, r3, r0, lsl #24
     338:	71000900 	tstvc	r0, r0, lsl #18
     33c:	1a200800 	bne	802344 <__bss_end__+0x7f83bc>
     340:	9f1aff08 	svcls	0x001aff08
     344:	0000032c 	andeq	r0, r0, ip, lsr #6
     348:	0000036c 	andeq	r0, r0, ip, ror #6
     34c:	00710008 	rsbseq	r0, r1, r8
     350:	ff081a40 			; <UNDEFINED> instruction: 0xff081a40
     354:	036c9f1a 	cmneq	ip, #26, 30	; 0x68
     358:	03b00000 	movseq	r0, #0
     35c:	00080000 	andeq	r0, r8, r0
     360:	1a380071 	bne	e0052c <__bss_end__+0xdf65a4>
     364:	9f1aff08 	svcls	0x001aff08
     368:	000003b0 			; <UNDEFINED> instruction: 0x000003b0
     36c:	000003f0 	strdeq	r0, [r0], -r0	; <UNPREDICTABLE>
     370:	00710008 	rsbseq	r0, r1, r8
     374:	ff081a34 			; <UNDEFINED> instruction: 0xff081a34
     378:	03f09f1a 	mvnseq	r9, #26, 30	; 0x68
     37c:	042c0000 	strteq	r0, [ip], #-0
     380:	00080000 	andeq	r0, r8, r0
     384:	1a320071 	bne	c80550 <__bss_end__+0xc765c8>
     388:	9f1aff08 	svcls	0x001aff08
	...
     394:	000002d4 	ldrdeq	r0, [r0], -r4
     398:	000002d8 	ldrdeq	r0, [r0], -r8
     39c:	00520001 	subseq	r0, r2, r1
     3a0:	00000000 	andeq	r0, r0, r0
     3a4:	ec000000 	stc	0, cr0, [r0], {-0}
     3a8:	2c000002 	stccs	0, cr0, [r0], {2}
     3ac:	09000004 	stmdbeq	r0, {r2}
     3b0:	08007100 	stmdaeq	r0, {r8, ip, sp, lr}
     3b4:	ff081a20 			; <UNDEFINED> instruction: 0xff081a20
     3b8:	00009f1a 	andeq	r9, r0, sl, lsl pc
     3bc:	00000000 	andeq	r0, r0, r0
     3c0:	02ec0000 	rsceq	r0, ip, #0
     3c4:	02fc0000 	rscseq	r0, ip, #0
     3c8:	00010000 	andeq	r0, r1, r0
     3cc:	0002fc52 	andeq	pc, r2, r2, asr ip	; <UNPREDICTABLE>
     3d0:	00047c00 	andeq	r7, r4, r0, lsl #24
     3d4:	70000200 	andvc	r0, r0, r0, lsl #4
	...
     3e0:	0002ec00 	andeq	lr, r2, r0, lsl #24
     3e4:	00032c00 	andeq	r2, r3, r0, lsl #24
     3e8:	71000900 	tstvc	r0, r0, lsl #18
     3ec:	1a200800 	bne	8023f4 <__bss_end__+0x7f846c>
     3f0:	9f1aff08 	svcls	0x001aff08
     3f4:	0000032c 	andeq	r0, r0, ip, lsr #6
     3f8:	0000036c 	andeq	r0, r0, ip, ror #6
     3fc:	00710008 	rsbseq	r0, r1, r8
     400:	ff081a40 			; <UNDEFINED> instruction: 0xff081a40
     404:	036c9f1a 	cmneq	ip, #26, 30	; 0x68
     408:	03b00000 	movseq	r0, #0
     40c:	00080000 	andeq	r0, r8, r0
     410:	1a380071 	bne	e005dc <__bss_end__+0xdf6654>
     414:	9f1aff08 	svcls	0x001aff08
     418:	000003b0 			; <UNDEFINED> instruction: 0x000003b0
     41c:	000003f0 	strdeq	r0, [r0], -r0	; <UNPREDICTABLE>
     420:	00710008 	rsbseq	r0, r1, r8
     424:	ff081a34 			; <UNDEFINED> instruction: 0xff081a34
     428:	03f09f1a 	mvnseq	r9, #26, 30	; 0x68
     42c:	042c0000 	strteq	r0, [ip], #-0
     430:	00080000 	andeq	r0, r8, r0
     434:	1a320071 	bne	c80600 <__bss_end__+0xc76678>
     438:	9f1aff08 	svcls	0x001aff08
	...
     444:	00000314 	andeq	r0, r0, r4, lsl r3
     448:	00000318 	andeq	r0, r0, r8, lsl r3
     44c:	00520001 	subseq	r0, r2, r1
     450:	00000000 	andeq	r0, r0, r0
     454:	2c000000 	stccs	0, cr0, [r0], {-0}
     458:	2c000003 	stccs	0, cr0, [r0], {3}
     45c:	08000004 	stmdaeq	r0, {r2}
     460:	40007100 	andmi	r7, r0, r0, lsl #2
     464:	1aff081a 	bne	fffc24d4 <__bss_end__+0xfffb854c>
     468:	0000009f 	muleq	r0, pc, r0	; <UNPREDICTABLE>
     46c:	00000000 	andeq	r0, r0, r0
     470:	00032c00 	andeq	r2, r3, r0, lsl #24
     474:	00033c00 	andeq	r3, r3, r0, lsl #24
     478:	52000100 	andpl	r0, r0, #0, 2
     47c:	0000033c 	andeq	r0, r0, ip, lsr r3
     480:	0000047c 	andeq	r0, r0, ip, ror r4
     484:	00700002 	rsbseq	r0, r0, r2
	...
     490:	0000032c 	andeq	r0, r0, ip, lsr #6
     494:	0000036c 	andeq	r0, r0, ip, ror #6
     498:	00710008 	rsbseq	r0, r1, r8
     49c:	ff081a40 			; <UNDEFINED> instruction: 0xff081a40
     4a0:	036c9f1a 	cmneq	ip, #26, 30	; 0x68
     4a4:	03b00000 	movseq	r0, #0
     4a8:	00080000 	andeq	r0, r8, r0
     4ac:	1a380071 	bne	e00678 <__bss_end__+0xdf66f0>
     4b0:	9f1aff08 	svcls	0x001aff08
     4b4:	000003b0 			; <UNDEFINED> instruction: 0x000003b0
     4b8:	000003f0 	strdeq	r0, [r0], -r0	; <UNPREDICTABLE>
     4bc:	00710008 	rsbseq	r0, r1, r8
     4c0:	ff081a34 			; <UNDEFINED> instruction: 0xff081a34
     4c4:	03f09f1a 	mvnseq	r9, #26, 30	; 0x68
     4c8:	042c0000 	strteq	r0, [ip], #-0
     4cc:	00080000 	andeq	r0, r8, r0
     4d0:	1a320071 	bne	c8069c <__bss_end__+0xc76714>
     4d4:	9f1aff08 	svcls	0x001aff08
	...
     4e0:	00000354 	andeq	r0, r0, r4, asr r3
     4e4:	00000358 	andeq	r0, r0, r8, asr r3
     4e8:	00520001 	subseq	r0, r2, r1
     4ec:	00000000 	andeq	r0, r0, r0
     4f0:	6c000000 	stcvs	0, cr0, [r0], {-0}
     4f4:	2c000003 	stccs	0, cr0, [r0], {3}
     4f8:	08000004 	stmdaeq	r0, {r2}
     4fc:	38007100 	stmdacc	r0, {r8, ip, sp, lr}
     500:	1aff081a 	bne	fffc2570 <__bss_end__+0xfffb85e8>
     504:	0000009f 	muleq	r0, pc, r0	; <UNPREDICTABLE>
     508:	00000000 	andeq	r0, r0, r0
     50c:	00036c00 	andeq	r6, r3, r0, lsl #24
     510:	00037c00 	andeq	r7, r3, r0, lsl #24
     514:	52000100 	andpl	r0, r0, #0, 2
     518:	0000037c 	andeq	r0, r0, ip, ror r3
     51c:	0000047c 	andeq	r0, r0, ip, ror r4
     520:	00700002 	rsbseq	r0, r0, r2
	...
     52c:	0000036c 	andeq	r0, r0, ip, ror #6
     530:	000003b0 			; <UNDEFINED> instruction: 0x000003b0
     534:	00710008 	rsbseq	r0, r1, r8
     538:	ff081a38 			; <UNDEFINED> instruction: 0xff081a38
     53c:	03b09f1a 	movseq	r9, #26, 30	; 0x68
     540:	03f00000 	mvnseq	r0, #0
     544:	00080000 	andeq	r0, r8, r0
     548:	1a340071 	bne	d00714 <__bss_end__+0xcf678c>
     54c:	9f1aff08 	svcls	0x001aff08
     550:	000003f0 	strdeq	r0, [r0], -r0	; <UNPREDICTABLE>
     554:	0000042c 	andeq	r0, r0, ip, lsr #8
     558:	00710008 	rsbseq	r0, r1, r8
     55c:	ff081a32 			; <UNDEFINED> instruction: 0xff081a32
     560:	00009f1a 	andeq	r9, r0, sl, lsl pc
     564:	00000000 	andeq	r0, r0, r0
     568:	03980000 	orrseq	r0, r8, #0
     56c:	039c0000 	orrseq	r0, ip, #0
     570:	00010000 	andeq	r0, r1, r0
     574:	00000052 	andeq	r0, r0, r2, asr r0
     578:	00000000 	andeq	r0, r0, r0
     57c:	0003b000 	andeq	fp, r3, r0
     580:	00042c00 	andeq	r2, r4, r0, lsl #24
     584:	71000800 	tstvc	r0, r0, lsl #16
     588:	081a3400 	ldmdaeq	sl, {sl, ip, sp}
     58c:	009f1aff 			; <UNDEFINED> instruction: 0x009f1aff
     590:	00000000 	andeq	r0, r0, r0
     594:	b0000000 	andlt	r0, r0, r0
     598:	c0000003 	andgt	r0, r0, r3
     59c:	01000003 	tsteq	r0, r3
     5a0:	03c05200 	biceq	r5, r0, #0, 4
     5a4:	047c0000 	ldrbteq	r0, [ip], #-0
     5a8:	00020000 	andeq	r0, r2, r0
     5ac:	00000070 	andeq	r0, r0, r0, ror r0
     5b0:	00000000 	andeq	r0, r0, r0
     5b4:	03b00000 	movseq	r0, #0
     5b8:	03f00000 	mvnseq	r0, #0
     5bc:	00080000 	andeq	r0, r8, r0
     5c0:	1a340071 	bne	d0078c <__bss_end__+0xcf6804>
     5c4:	9f1aff08 	svcls	0x001aff08
     5c8:	000003f0 	strdeq	r0, [r0], -r0	; <UNPREDICTABLE>
     5cc:	0000042c 	andeq	r0, r0, ip, lsr #8
     5d0:	00710008 	rsbseq	r0, r1, r8
     5d4:	ff081a32 			; <UNDEFINED> instruction: 0xff081a32
     5d8:	00009f1a 	andeq	r9, r0, sl, lsl pc
     5dc:	00000000 	andeq	r0, r0, r0
     5e0:	03d80000 	bicseq	r0, r8, #0
     5e4:	03dc0000 	bicseq	r0, ip, #0
     5e8:	00010000 	andeq	r0, r1, r0
     5ec:	00000052 	andeq	r0, r0, r2, asr r0
     5f0:	00000000 	andeq	r0, r0, r0
     5f4:	0003f000 	andeq	pc, r3, r0
     5f8:	00042c00 	andeq	r2, r4, r0, lsl #24
     5fc:	71000800 	tstvc	r0, r0, lsl #16
     600:	081a3200 	ldmdaeq	sl, {r9, ip, sp}
     604:	009f1aff 			; <UNDEFINED> instruction: 0x009f1aff
     608:	00000000 	andeq	r0, r0, r0
     60c:	f0000000 			; <UNDEFINED> instruction: 0xf0000000
     610:	00000003 	andeq	r0, r0, r3
     614:	01000004 	tsteq	r0, r4
     618:	04005200 	streq	r5, [r0], #-512	; 0x200
     61c:	047c0000 	ldrbteq	r0, [ip], #-0
     620:	00020000 	andeq	r0, r2, r0
     624:	00000070 	andeq	r0, r0, r0, ror r0
     628:	00000000 	andeq	r0, r0, r0
     62c:	04180000 	ldreq	r0, [r8], #-0
     630:	041c0000 	ldreq	r0, [ip], #-0
     634:	00010000 	andeq	r0, r1, r0
     638:	00000052 	andeq	r0, r0, r2, asr r0
     63c:	00000000 	andeq	r0, r0, r0
     640:	00043000 	andeq	r3, r4, r0
     644:	00044000 	andeq	r4, r4, r0
     648:	52000100 	andpl	r0, r0, #0, 2
     64c:	00000440 	andeq	r0, r0, r0, asr #8
     650:	0000047c 	andeq	r0, r0, ip, ror r4
     654:	00700002 	rsbseq	r0, r0, r2
	...
     660:	00000458 	andeq	r0, r0, r8, asr r4
     664:	0000045c 	andeq	r0, r0, ip, asr r4
     668:	00520001 	subseq	r0, r2, r1
     66c:	00000000 	andeq	r0, r0, r0
     670:	64000000 	strvs	r0, [r0], #-0
     674:	7c000004 	stcvc	0, cr0, [r0], {4}
     678:	02000004 	andeq	r0, r0, #4
     67c:	00007000 	andeq	r7, r0, r0
     680:	00000000 	andeq	r0, r0, r0
     684:	8c000000 	stchi	0, cr0, [r0], {-0}
     688:	90000004 	andls	r0, r0, r4
     68c:	01000004 	tsteq	r0, r4
     690:	00005200 	andeq	r5, r0, r0, lsl #4
     694:	00000000 	andeq	r0, r0, r0
     698:	04a40000 	strteq	r0, [r4], #0
     69c:	04dc0000 	ldrbeq	r0, [ip], #0
     6a0:	00010000 	andeq	r0, r1, r0
     6a4:	0004dc50 	andeq	sp, r4, r0, asr ip
     6a8:	00061c00 	andeq	r1, r6, r0, lsl #24
     6ac:	56000100 	strpl	r0, [r0], -r0, lsl #2
     6b0:	0000061c 	andeq	r0, r0, ip, lsl r6
     6b4:	00000904 	andeq	r0, r0, r4, lsl #18
     6b8:	01f30004 	mvnseq	r0, r4
     6bc:	00009f50 	andeq	r9, r0, r0, asr pc
     6c0:	00000000 	andeq	r0, r0, r0
     6c4:	04a40000 	strteq	r0, [r4], #0
     6c8:	06500000 	ldrbeq	r0, [r0], -r0
     6cc:	00010000 	andeq	r0, r1, r0
     6d0:	00065052 	andeq	r5, r6, r2, asr r0
     6d4:	00089000 	andeq	r9, r8, r0
     6d8:	f3000400 	vshl.u8	d0, d0, d0
     6dc:	909f5201 	addsls	r5, pc, r1, lsl #4
     6e0:	94000008 	strls	r0, [r0], #-8
     6e4:	01000008 	tsteq	r0, r8
     6e8:	08945200 	ldmeq	r4, {r9, ip, lr}
     6ec:	09040000 	stmdbeq	r4, {}	; <UNPREDICTABLE>
     6f0:	00040000 	andeq	r0, r4, r0
     6f4:	9f5201f3 	svcls	0x005201f3
	...
     700:	000004a4 	andeq	r0, r0, r4, lsr #9
     704:	000004ac 	andeq	r0, r0, ip, lsr #9
     708:	ac530001 	mrrcge	0, 0, r0, r3, cr1
     70c:	04000004 	streq	r0, [r0], #-4
     710:	04000009 	streq	r0, [r0], #-9
     714:	5301f300 	movwpl	pc, #4864	; 0x1300	; <UNPREDICTABLE>
     718:	0000009f 	muleq	r0, pc, r0	; <UNPREDICTABLE>
     71c:	00000000 	andeq	r0, r0, r0
     720:	0004a400 	andeq	sl, r4, r0, lsl #8
     724:	0004e000 	andeq	lr, r4, r0
     728:	31000200 	mrscc	r0, R8_usr
     72c:	0004e09f 	muleq	r4, pc, r0	; <UNPREDICTABLE>
     730:	00090400 	andeq	r0, r9, r0, lsl #8
     734:	50000100 	andpl	r0, r0, r0, lsl #2
	...
     740:	000004e0 	andeq	r0, r0, r0, ror #9
     744:	000004e8 	andeq	r0, r0, r8, ror #9
     748:	f05c0001 			; <UNDEFINED> instruction: 0xf05c0001
     74c:	14000004 	strne	r0, [r0], #-4
     750:	01000005 	tsteq	r0, r5
     754:	05145400 	ldreq	r5, [r4, #-1024]	; 0x400
     758:	05380000 	ldreq	r0, [r8, #-0]!
     75c:	00010000 	andeq	r0, r1, r0
     760:	0005385c 	andeq	r3, r5, ip, asr r8
     764:	00055c00 	andeq	r5, r5, r0, lsl #24
     768:	54000100 	strpl	r0, [r0], #-256	; 0x100
     76c:	0000055c 	andeq	r0, r0, ip, asr r5
     770:	00000580 	andeq	r0, r0, r0, lsl #11
     774:	805c0001 	subshi	r0, ip, r1
     778:	a4000005 	strge	r0, [r0], #-5
     77c:	01000005 	tsteq	r0, r5
     780:	05a45400 	streq	r5, [r4, #1024]!	; 0x400
     784:	05c80000 	strbeq	r0, [r8]
     788:	00010000 	andeq	r0, r1, r0
     78c:	0005c85c 	andeq	ip, r5, ip, asr r8
     790:	0005ec00 	andeq	lr, r5, r0, lsl #24
     794:	54000100 	strpl	r0, [r0], #-256	; 0x100
     798:	000005ec 	andeq	r0, r0, ip, ror #11
     79c:	00000628 	andeq	r0, r0, r8, lsr #12
     7a0:	005c0001 	subseq	r0, ip, r1
     7a4:	00000000 	andeq	r0, r0, r0
     7a8:	c4000000 	strgt	r0, [r0], #-0
     7ac:	04000004 	streq	r0, [r0], #-4
     7b0:	01000005 	tsteq	r0, r5
     7b4:	05085c00 	streq	r5, [r8, #-3072]	; 0xc00
     7b8:	05280000 	streq	r0, [r8, #-0]!
     7bc:	00010000 	andeq	r0, r1, r0
     7c0:	00052c54 	andeq	r2, r5, r4, asr ip
     7c4:	00054c00 	andeq	r4, r5, r0, lsl #24
     7c8:	5c000100 	stfpls	f0, [r0], {-0}
     7cc:	00000550 	andeq	r0, r0, r0, asr r5
     7d0:	00000570 	andeq	r0, r0, r0, ror r5
     7d4:	74540001 	ldrbvc	r0, [r4], #-1
     7d8:	94000005 	strls	r0, [r0], #-5
     7dc:	01000005 	tsteq	r0, r5
     7e0:	05985c00 	ldreq	r5, [r8, #3072]	; 0xc00
     7e4:	05b80000 	ldreq	r0, [r8, #0]!
     7e8:	00010000 	andeq	r0, r1, r0
     7ec:	0005bc54 	andeq	fp, r5, r4, asr ip
     7f0:	0005dc00 	andeq	sp, r5, r0, lsl #24
     7f4:	5c000100 	stfpls	f0, [r0], {-0}
     7f8:	000005e0 	andeq	r0, r0, r0, ror #11
     7fc:	00000600 	andeq	r0, r0, r0, lsl #12
     800:	04540001 	ldrbeq	r0, [r4], #-1
     804:	28000006 	stmdacs	r0, {r1, r2}
     808:	01000006 	tsteq	r0, r6
     80c:	00005c00 	andeq	r5, r0, r0, lsl #24
     810:	00000000 	andeq	r0, r0, r0
     814:	04bc0000 	ldrteq	r0, [ip], #0
     818:	06180000 	ldreq	r0, [r8], -r0
     81c:	00010000 	andeq	r0, r1, r0
     820:	00000058 	andeq	r0, r0, r8, asr r0
     824:	00000000 	andeq	r0, r0, r0
     828:	0004d000 	andeq	sp, r4, r0
     82c:	00065400 	andeq	r5, r6, r0, lsl #8
     830:	57000100 	strpl	r0, [r0, -r0, lsl #2]
     834:	00000654 	andeq	r0, r0, r4, asr r6
     838:	00000884 	andeq	r0, r0, r4, lsl #17
     83c:	007d0002 	rsbseq	r0, sp, r2
     840:	00000890 	muleq	r0, r0, r8
     844:	0000089c 	muleq	r0, ip, r8
     848:	9c570001 	mrrcls	0, 0, r0, r7, cr1
     84c:	04000008 	streq	r0, [r0], #-8
     850:	02000009 	andeq	r0, r0, #9
     854:	00007d00 	andeq	r7, r0, r0, lsl #26
     858:	00000000 	andeq	r0, r0, r0
     85c:	d0000000 	andle	r0, r0, r0
     860:	54000004 	strpl	r0, [r0], #-4
     864:	07000006 	streq	r0, [r0, -r6]
     868:	f3007700 	vabd.u8	d7, d0, d0
     86c:	9f225301 	svcls	0x00225301
     870:	00000654 	andeq	r0, r0, r4, asr r6
     874:	00000884 	andeq	r0, r0, r4, lsl #17
     878:	007d0008 	rsbseq	r0, sp, r8
     87c:	5301f306 	movwpl	pc, #4870	; 0x1306	; <UNPREDICTABLE>
     880:	08909f22 	ldmeq	r0, {r1, r5, r8, r9, sl, fp, ip, pc}
     884:	089c0000 	ldmeq	ip, {}	; <UNPREDICTABLE>
     888:	00070000 	andeq	r0, r7, r0
     88c:	01f30077 	mvnseq	r0, r7, ror r0
     890:	9c9f2253 	lfmls	f2, 4, [pc], {83}	; 0x53
     894:	04000008 	streq	r0, [r0], #-8
     898:	08000009 	stmdaeq	r0, {r0, r3}
     89c:	06007d00 	streq	r7, [r0], -r0, lsl #26
     8a0:	225301f3 	subscs	r0, r3, #-1073741764	; 0xc000003c
     8a4:	0000009f 	muleq	r0, pc, r0	; <UNPREDICTABLE>
     8a8:	00000000 	andeq	r0, r0, r0
     8ac:	00062800 	andeq	r2, r6, r0, lsl #16
     8b0:	00067000 	andeq	r7, r6, r0
     8b4:	54000100 	strpl	r0, [r0], #-256	; 0x100
     8b8:	00000670 	andeq	r0, r0, r0, ror r6
     8bc:	00000680 	andeq	r0, r0, r0, lsl #13
     8c0:	80560001 	subshi	r0, r6, r1
     8c4:	ac000006 	stcge	0, cr0, [r0], {6}
     8c8:	01000006 	tsteq	r0, r6
     8cc:	06ac5400 	strteq	r5, [ip], r0, lsl #8
     8d0:	06b40000 	ldrteq	r0, [r4], r0
     8d4:	00010000 	andeq	r0, r1, r0
     8d8:	0006b456 	andeq	fp, r6, r6, asr r4
     8dc:	0006e400 	andeq	lr, r6, r0, lsl #8
     8e0:	54000100 	strpl	r0, [r0], #-256	; 0x100
     8e4:	000006e4 	andeq	r0, r0, r4, ror #13
     8e8:	000006ec 	andeq	r0, r0, ip, ror #13
     8ec:	ec560001 	mrrc	0, 0, r0, r6, cr1
     8f0:	1c000006 	stcne	0, cr0, [r0], {6}
     8f4:	01000007 	tsteq	r0, r7
     8f8:	071c5400 	ldreq	r5, [ip, -r0, lsl #8]
     8fc:	07240000 	streq	r0, [r4, -r0]!
     900:	00010000 	andeq	r0, r1, r0
     904:	00072456 	andeq	r2, r7, r6, asr r4
     908:	00075400 	andeq	r5, r7, r0, lsl #8
     90c:	54000100 	strpl	r0, [r0], #-256	; 0x100
     910:	00000754 	andeq	r0, r0, r4, asr r7
     914:	0000075c 	andeq	r0, r0, ip, asr r7
     918:	5c560001 	mrrcpl	0, 0, r0, r6, cr1
     91c:	8c000007 	stchi	0, cr0, [r0], {7}
     920:	01000007 	tsteq	r0, r7
     924:	078c5400 	streq	r5, [ip, r0, lsl #8]
     928:	07940000 	ldreq	r0, [r4, r0]
     92c:	00010000 	andeq	r0, r1, r0
     930:	00079456 	andeq	r9, r7, r6, asr r4
     934:	0007c400 	andeq	ip, r7, r0, lsl #8
     938:	54000100 	strpl	r0, [r0], #-256	; 0x100
     93c:	000007c4 	andeq	r0, r0, r4, asr #15
     940:	000007cc 	andeq	r0, r0, ip, asr #15
     944:	cc560001 	mrrcgt	0, 0, r0, r6, cr1
     948:	fc000007 	stc2	0, cr0, [r0], {7}
     94c:	01000007 	tsteq	r0, r7
     950:	07fc5400 	ldrbeq	r5, [ip, r0, lsl #8]!
     954:	08040000 	stmdaeq	r4, {}	; <UNPREDICTABLE>
     958:	00010000 	andeq	r0, r1, r0
     95c:	00080456 	andeq	r0, r8, r6, asr r4
     960:	00083800 	andeq	r3, r8, r0, lsl #16
     964:	54000100 	strpl	r0, [r0], #-256	; 0x100
     968:	00000838 	andeq	r0, r0, r8, lsr r8
     96c:	00000844 	andeq	r0, r0, r4, asr #16
     970:	44560001 	ldrbmi	r0, [r6], #-1
     974:	48000008 	stmdami	r0, {r3}
     978:	01000008 	tsteq	r0, r8
     97c:	08505400 	ldmdaeq	r0, {sl, ip, lr}^
     980:	08840000 	stmeq	r4, {}	; <UNPREDICTABLE>
     984:	00010000 	andeq	r0, r1, r0
     988:	0008905c 	andeq	r9, r8, ip, asr r0
     98c:	00090400 	andeq	r0, r9, r0, lsl #8
     990:	54000100 	strpl	r0, [r0], #-256	; 0x100
	...
     99c:	000004d0 	ldrdeq	r0, [r0], -r0	; <UNPREDICTABLE>
     9a0:	000004e0 	andeq	r0, r0, r0, ror #9
     9a4:	9f300002 	svcls	0x00300002
	...
     9b0:	00000628 	andeq	r0, r0, r8, lsr #12
     9b4:	00000630 	andeq	r0, r0, r0, lsr r6
     9b8:	9f300002 	svcls	0x00300002
     9bc:	00000634 	andeq	r0, r0, r4, lsr r6
     9c0:	00000648 	andeq	r0, r0, r8, asr #12
     9c4:	00530001 	subseq	r0, r3, r1
     9c8:	00000000 	andeq	r0, r0, r0
     9cc:	44000000 	strmi	r0, [r0], #-0
     9d0:	78000006 	stmdavc	r0, {r1, r2}
     9d4:	02000006 	andeq	r0, r0, #6
     9d8:	789f3000 	ldmvc	pc, {ip, sp}	; <UNPREDICTABLE>
     9dc:	80000006 	andhi	r0, r0, r6
     9e0:	02000006 	andeq	r0, r0, #6
     9e4:	809f3100 	addshi	r3, pc, r0, lsl #2
     9e8:	b4000006 	strlt	r0, [r0], #-6
     9ec:	02000006 	andeq	r0, r0, #6
     9f0:	b49f3200 	ldrlt	r3, [pc], #512	; 9f8 <_start-0x7608>
     9f4:	b8000006 	stmdalt	r0, {r1, r2}
     9f8:	02000006 	andeq	r0, r0, #6
     9fc:	b89f3300 	ldmlt	pc, {r8, r9, ip, sp}	; <UNPREDICTABLE>
     a00:	ec000006 	stc	0, cr0, [r0], {6}
     a04:	02000006 	andeq	r0, r0, #6
     a08:	ec9f3400 	cfldrs	mvf3, [pc], {0}
     a0c:	f0000006 			; <UNDEFINED> instruction: 0xf0000006
     a10:	02000006 	andeq	r0, r0, #6
     a14:	f09f3500 			; <UNDEFINED> instruction: 0xf09f3500
     a18:	24000006 	strcs	r0, [r0], #-6
     a1c:	02000007 	andeq	r0, r0, #7
     a20:	249f3600 	ldrcs	r3, [pc], #1536	; a28 <_start-0x75d8>
     a24:	28000007 	stmdacs	r0, {r0, r1, r2}
     a28:	02000007 	andeq	r0, r0, #7
     a2c:	289f3700 	ldmcs	pc, {r8, r9, sl, ip, sp}	; <UNPREDICTABLE>
     a30:	5c000007 	stcpl	0, cr0, [r0], {7}
     a34:	02000007 	andeq	r0, r0, #7
     a38:	5c9f3800 	ldcpl	8, cr3, [pc], {0}
     a3c:	60000007 	andvs	r0, r0, r7
     a40:	02000007 	andeq	r0, r0, #7
     a44:	609f3900 	addsvs	r3, pc, r0, lsl #18
     a48:	94000007 	strls	r0, [r0], #-7
     a4c:	02000007 	andeq	r0, r0, #7
     a50:	949f3a00 	ldrls	r3, [pc], #2560	; a58 <_start-0x75a8>
     a54:	98000007 	stmdals	r0, {r0, r1, r2}
     a58:	02000007 	andeq	r0, r0, #7
     a5c:	989f3b00 	ldmls	pc, {r8, r9, fp, ip, sp}	; <UNPREDICTABLE>
     a60:	cc000007 	stcgt	0, cr0, [r0], {7}
     a64:	02000007 	andeq	r0, r0, #7
     a68:	cc9f3c00 	ldcgt	12, cr3, [pc], {0}
     a6c:	d0000007 	andle	r0, r0, r7
     a70:	02000007 	andeq	r0, r0, #7
     a74:	d09f3d00 	addsle	r3, pc, r0, lsl #26
     a78:	04000007 	streq	r0, [r0], #-7
     a7c:	02000008 	andeq	r0, r0, #8
     a80:	049f3e00 	ldreq	r3, [pc], #3584	; a88 <_start-0x7578>
     a84:	08000008 	stmdaeq	r0, {r3}
     a88:	02000008 	andeq	r0, r0, #8
     a8c:	089f3f00 	ldmeq	pc, {r8, r9, sl, fp, ip, sp}	; <UNPREDICTABLE>
     a90:	44000008 	strmi	r0, [r0], #-8
     a94:	02000008 	andeq	r0, r0, #8
     a98:	449f4000 	ldrmi	r4, [pc], #0	; aa0 <_start-0x7560>
     a9c:	48000008 	stmdami	r0, {r3}
     aa0:	02000008 	andeq	r0, r0, #8
     aa4:	509f4200 	addspl	r4, pc, r0, lsl #4
     aa8:	5c000008 	stcpl	0, cr0, [r0], {8}
     aac:	01000008 	tsteq	r0, r8
     ab0:	085c5300 	ldmdaeq	ip, {r8, r9, ip, lr}^
     ab4:	087c0000 	ldmdaeq	ip!, {}^	; <UNPREDICTABLE>
     ab8:	00030000 	andeq	r0, r3, r0
     abc:	7c9f7f73 	ldcvc	15, cr7, [pc], {115}	; 0x73
     ac0:	84000008 	strhi	r0, [r0], #-8
     ac4:	01000008 	tsteq	r0, r8
     ac8:	08905300 	ldmeq	r0, {r8, r9, ip, lr}
     acc:	089c0000 	ldmeq	ip, {}	; <UNPREDICTABLE>
     ad0:	00020000 	andeq	r0, r2, r0
     ad4:	089c9f30 	ldmeq	ip, {r4, r5, r8, r9, sl, fp, ip, pc}
     ad8:	08a80000 	stmiaeq	r8!, {}	; <UNPREDICTABLE>
     adc:	00020000 	andeq	r0, r2, r0
     ae0:	08a89f32 	stmiaeq	r8!, {r1, r4, r5, r8, r9, sl, fp, ip, pc}
     ae4:	08b40000 	ldmeq	r4!, {}	; <UNPREDICTABLE>
     ae8:	00020000 	andeq	r0, r2, r0
     aec:	08b49f34 	ldmeq	r4!, {r2, r4, r5, r8, r9, sl, fp, ip, pc}
     af0:	08c00000 	stmiaeq	r0, {}^	; <UNPREDICTABLE>
     af4:	00020000 	andeq	r0, r2, r0
     af8:	08c09f36 	stmiaeq	r0, {r1, r2, r4, r5, r8, r9, sl, fp, ip, pc}^
     afc:	08cc0000 	stmiaeq	ip, {}^	; <UNPREDICTABLE>
     b00:	00020000 	andeq	r0, r2, r0
     b04:	08cc9f38 	stmiaeq	ip, {r3, r4, r5, r8, r9, sl, fp, ip, pc}^
     b08:	08d80000 	ldmeq	r8, {}^	; <UNPREDICTABLE>
     b0c:	00020000 	andeq	r0, r2, r0
     b10:	08d89f3a 	ldmeq	r8, {r1, r3, r4, r5, r8, r9, sl, fp, ip, pc}^
     b14:	08e40000 	stmiaeq	r4!, {}^	; <UNPREDICTABLE>
     b18:	00020000 	andeq	r0, r2, r0
     b1c:	08e49f3c 	stmiaeq	r4!, {r2, r3, r4, r5, r8, r9, sl, fp, ip, pc}^
     b20:	08f00000 	ldmeq	r0!, {}^	; <UNPREDICTABLE>
     b24:	00020000 	andeq	r0, r2, r0
     b28:	08f09f3e 	ldmeq	r0!, {r1, r2, r3, r4, r5, r8, r9, sl, fp, ip, pc}^
     b2c:	09040000 	stmdbeq	r4, {}	; <UNPREDICTABLE>
     b30:	00020000 	andeq	r0, r2, r0
     b34:	00009f40 	andeq	r9, r0, r0, asr #30
     b38:	00000000 	andeq	r0, r0, r0
     b3c:	06700000 	ldrbteq	r0, [r0], -r0
     b40:	06800000 	streq	r0, [r0], r0
     b44:	00090000 	andeq	r0, r9, r0
     b48:	067f8c91 			; <UNDEFINED> instruction: 0x067f8c91
     b4c:	1c06007d 	stcne	0, cr0, [r6], {125}	; 0x7d
     b50:	0006809f 	muleq	r6, pc, r0	; <UNPREDICTABLE>
     b54:	00069000 	andeq	r9, r6, r0
     b58:	78000800 	stmdavc	r0, {fp}
     b5c:	7f8c9100 	svcvc	0x008c9100
     b60:	909f1c06 	addsls	r1, pc, r6, lsl #24
     b64:	ac000006 	stcge	0, cr0, [r0], {6}
     b68:	0a000006 	beq	b88 <_start-0x7478>
     b6c:	7f909100 	svcvc	0x00909100
     b70:	7f8c9106 	svcvc	0x008c9106
     b74:	ac9f1c06 	ldcge	12, cr1, [pc], {6}
     b78:	b4000006 	strlt	r0, [r0], #-6
     b7c:	0a000006 	beq	b9c <_start-0x7464>
     b80:	7f949100 	svcvc	0x00949100
     b84:	7f909106 	svcvc	0x00909106
     b88:	b49f1c06 	ldrlt	r1, [pc], #3078	; b90 <_start-0x7470>
     b8c:	c8000006 	stmdagt	r0, {r1, r2}
     b90:	08000006 	stmdaeq	r0, {r1, r2}
     b94:	91007500 	tstls	r0, r0, lsl #10
     b98:	1c067f94 	stcne	15, cr7, [r6], {148}	; 0x94
     b9c:	0006c89f 	muleq	r6, pc, r8	; <UNPREDICTABLE>
     ba0:	0006e400 	andeq	lr, r6, r0, lsl #8
     ba4:	91000a00 	tstls	r0, r0, lsl #20
     ba8:	91067f98 			; <UNDEFINED> instruction: 0x91067f98
     bac:	1c067f94 	stcne	15, cr7, [r6], {148}	; 0x94
     bb0:	0006e49f 	muleq	r6, pc, r4	; <UNPREDICTABLE>
     bb4:	0006ec00 	andeq	lr, r6, r0, lsl #24
     bb8:	91000a00 	tstls	r0, r0, lsl #20
     bbc:	91067f9c 			; <UNDEFINED> instruction: 0x91067f9c
     bc0:	1c067f98 	stcne	15, cr7, [r6], {152}	; 0x98
     bc4:	0006ec9f 	muleq	r6, pc, ip	; <UNPREDICTABLE>
     bc8:	00070000 	andeq	r0, r7, r0
     bcc:	77000800 	strvc	r0, [r0, -r0, lsl #16]
     bd0:	7f9c9100 	svcvc	0x009c9100
     bd4:	009f1c06 	addseq	r1, pc, r6, lsl #24
     bd8:	1c000007 	stcne	0, cr0, [r0], {7}
     bdc:	0a000007 	beq	c00 <_start-0x7400>
     be0:	7fa09100 	svcvc	0x00a09100
     be4:	7f9c9106 	svcvc	0x009c9106
     be8:	1c9f1c06 	ldcne	12, cr1, [pc], {6}
     bec:	24000007 	strcs	r0, [r0], #-7
     bf0:	0a000007 	beq	c14 <_start-0x73ec>
     bf4:	7fa49100 	svcvc	0x00a49100
     bf8:	7fa09106 	svcvc	0x00a09106
     bfc:	249f1c06 	ldrcs	r1, [pc], #3078	; c04 <_start-0x73fc>
     c00:	38000007 	stmdacc	r0, {r0, r1, r2}
     c04:	08000007 	stmdaeq	r0, {r0, r1, r2}
     c08:	91007500 	tstls	r0, r0, lsl #10
     c0c:	1c067fa4 	stcne	15, cr7, [r6], {164}	; 0xa4
     c10:	0007389f 	muleq	r7, pc, r8	; <UNPREDICTABLE>
     c14:	00075400 	andeq	r5, r7, r0, lsl #8
     c18:	91000a00 	tstls	r0, r0, lsl #20
     c1c:	91067fa8 	smlatbls	r6, r8, pc, r7	; <UNPREDICTABLE>
     c20:	1c067fa4 	stcne	15, cr7, [r6], {164}	; 0xa4
     c24:	0007549f 	muleq	r7, pc, r4	; <UNPREDICTABLE>
     c28:	00075c00 	andeq	r5, r7, r0, lsl #24
     c2c:	91000a00 	tstls	r0, r0, lsl #20
     c30:	91067fac 	smlatbls	r6, ip, pc, r7	; <UNPREDICTABLE>
     c34:	1c067fa8 	stcne	15, cr7, [r6], {168}	; 0xa8
     c38:	00075c9f 	muleq	r7, pc, ip	; <UNPREDICTABLE>
     c3c:	00077000 	andeq	r7, r7, r0
     c40:	77000800 	strvc	r0, [r0, -r0, lsl #16]
     c44:	7fac9100 	svcvc	0x00ac9100
     c48:	709f1c06 	addsvc	r1, pc, r6, lsl #24
     c4c:	8c000007 	stchi	0, cr0, [r0], {7}
     c50:	0a000007 	beq	c74 <_start-0x738c>
     c54:	7fb09100 	svcvc	0x00b09100
     c58:	7fac9106 	svcvc	0x00ac9106
     c5c:	8c9f1c06 	ldchi	12, cr1, [pc], {6}
     c60:	94000007 	strls	r0, [r0], #-7
     c64:	0a000007 	beq	c88 <_start-0x7378>
     c68:	7fb49100 	svcvc	0x00b49100
     c6c:	7fb09106 	svcvc	0x00b09106
     c70:	949f1c06 	ldrls	r1, [pc], #3078	; c78 <_start-0x7388>
     c74:	a8000007 	stmdage	r0, {r0, r1, r2}
     c78:	08000007 	stmdaeq	r0, {r0, r1, r2}
     c7c:	91007500 	tstls	r0, r0, lsl #10
     c80:	1c067fb4 	stcne	15, cr7, [r6], {180}	; 0xb4
     c84:	0007a89f 	muleq	r7, pc, r8	; <UNPREDICTABLE>
     c88:	0007c400 	andeq	ip, r7, r0, lsl #8
     c8c:	91000a00 	tstls	r0, r0, lsl #20
     c90:	91067fb8 			; <UNDEFINED> instruction: 0x91067fb8
     c94:	1c067fb4 	stcne	15, cr7, [r6], {180}	; 0xb4
     c98:	0007c49f 	muleq	r7, pc, r4	; <UNPREDICTABLE>
     c9c:	0007cc00 	andeq	ip, r7, r0, lsl #24
     ca0:	91000a00 	tstls	r0, r0, lsl #20
     ca4:	91067fbc 			; <UNDEFINED> instruction: 0x91067fbc
     ca8:	1c067fb8 	stcne	15, cr7, [r6], {184}	; 0xb8
     cac:	0007cc9f 	muleq	r7, pc, ip	; <UNPREDICTABLE>
     cb0:	0007e000 	andeq	lr, r7, r0
     cb4:	77000800 	strvc	r0, [r0, -r0, lsl #16]
     cb8:	7fbc9100 	svcvc	0x00bc9100
     cbc:	e09f1c06 	adds	r1, pc, r6, lsl #24
     cc0:	fc000007 	stc2	0, cr0, [r0], {7}
     cc4:	09000007 	stmdbeq	r0, {r0, r1, r2}
     cc8:	06409100 	strbeq	r9, [r0], -r0, lsl #2
     ccc:	067fbc91 			; <UNDEFINED> instruction: 0x067fbc91
     cd0:	07fc9f1c 			; <UNDEFINED> instruction: 0x07fc9f1c
     cd4:	08040000 	stmdaeq	r4, {}	; <UNPREDICTABLE>
     cd8:	00080000 	andeq	r0, r8, r0
     cdc:	91064491 			; <UNDEFINED> instruction: 0x91064491
     ce0:	9f1c0640 	svcls	0x001c0640
     ce4:	00000804 	andeq	r0, r0, r4, lsl #16
     ce8:	00000818 	andeq	r0, r0, r8, lsl r8
     cec:	00720007 	rsbseq	r0, r2, r7
     cf0:	1c064491 	cfstrsne	mvf4, [r6], {145}	; 0x91
     cf4:	0008189f 	muleq	r8, pc, r8	; <UNPREDICTABLE>
     cf8:	00083800 	andeq	r3, r8, r0, lsl #16
     cfc:	91000800 	tstls	r0, r0, lsl #16
     d00:	44910648 	ldrmi	r0, [r1], #1608	; 0x648
     d04:	389f1c06 	ldmcc	pc, {r1, r2, sl, fp, ip}	; <UNPREDICTABLE>
     d08:	44000008 	strmi	r0, [r0], #-8
     d0c:	08000008 	stmdaeq	r0, {r3}
     d10:	064c9100 	strbeq	r9, [ip], -r0, lsl #2
     d14:	1c064891 	stcne	8, cr4, [r6], {145}	; 0x91
     d18:	0008449f 	muleq	r8, pc, r4	; <UNPREDICTABLE>
     d1c:	00084800 	andeq	r4, r8, r0, lsl #16
     d20:	91000800 	tstls	r0, r0, lsl #16
     d24:	4c910650 	ldcmi	6, cr0, [r1], {80}	; 0x50
     d28:	9c9f1c06 	ldcls	12, cr1, [pc], {6}
     d2c:	a8000008 	stmdage	r0, {r3}
     d30:	08000008 	stmdaeq	r0, {r3}
     d34:	91007800 	tstls	r0, r0, lsl #16
     d38:	1c067f8c 	stcne	15, cr7, [r6], {140}	; 0x8c
     d3c:	0008a89f 	muleq	r8, pc, r8	; <UNPREDICTABLE>
     d40:	0008b400 	andeq	fp, r8, r0, lsl #8
     d44:	75000800 	strvc	r0, [r0, #-2048]	; 0x800
     d48:	7f949100 	svcvc	0x00949100
     d4c:	b49f1c06 	ldrlt	r1, [pc], #3078	; d54 <_start-0x72ac>
     d50:	c0000008 	andgt	r0, r0, r8
     d54:	08000008 	stmdaeq	r0, {r3}
     d58:	91007700 	tstls	r0, r0, lsl #14
     d5c:	1c067f9c 	stcne	15, cr7, [r6], {156}	; 0x9c
     d60:	0008c09f 	muleq	r8, pc, r0	; <UNPREDICTABLE>
     d64:	0008cc00 	andeq	ip, r8, r0, lsl #24
     d68:	75000800 	strvc	r0, [r0, #-2048]	; 0x800
     d6c:	7fa49100 	svcvc	0x00a49100
     d70:	cc9f1c06 	ldcgt	12, cr1, [pc], {6}
     d74:	d8000008 	stmdale	r0, {r3}
     d78:	08000008 	stmdaeq	r0, {r3}
     d7c:	91007700 	tstls	r0, r0, lsl #14
     d80:	1c067fac 	stcne	15, cr7, [r6], {172}	; 0xac
     d84:	0008d89f 	muleq	r8, pc, r8	; <UNPREDICTABLE>
     d88:	0008e400 	andeq	lr, r8, r0, lsl #8
     d8c:	75000800 	strvc	r0, [r0, #-2048]	; 0x800
     d90:	7fb49100 	svcvc	0x00b49100
     d94:	e49f1c06 	ldr	r1, [pc], #3078	; d9c <_start-0x7264>
     d98:	f0000008 			; <UNDEFINED> instruction: 0xf0000008
     d9c:	08000008 	stmdaeq	r0, {r3}
     da0:	91007700 	tstls	r0, r0, lsl #14
     da4:	1c067fbc 	stcne	15, cr7, [r6], {188}	; 0xbc
     da8:	0008f09f 	muleq	r8, pc, r0	; <UNPREDICTABLE>
     dac:	0008f400 	andeq	pc, r8, r0, lsl #8
     db0:	72000700 	andvc	r0, r0, #0, 14
     db4:	06449100 	strbeq	r9, [r4], -r0, lsl #2
     db8:	08f49f1c 	ldmeq	r4!, {r2, r3, r4, r8, r9, sl, fp, ip, pc}^
     dbc:	09040000 	stmdbeq	r4, {}	; <UNPREDICTABLE>
     dc0:	00080000 	andeq	r0, r8, r0
     dc4:	91064891 			; <UNDEFINED> instruction: 0x91064891
     dc8:	9f1c0644 	svcls	0x001c0644
	...
     dd4:	00000904 	andeq	r0, r0, r4, lsl #18
     dd8:	00000934 	andeq	r0, r0, r4, lsr r9
     ddc:	34500001 	ldrbcc	r0, [r0], #-1
     de0:	90000009 	andls	r0, r0, r9
     de4:	01000009 	tsteq	r0, r9
     de8:	09905a00 	ldmibeq	r0, {r9, fp, ip, lr}
     dec:	09940000 	ldmibeq	r4, {}	; <UNPREDICTABLE>
     df0:	00040000 	andeq	r0, r4, r0
     df4:	9f5001f3 	svcls	0x005001f3
	...
     e00:	00000904 	andeq	r0, r0, r4, lsl #18
     e04:	00000924 	andeq	r0, r0, r4, lsr #18
     e08:	24510001 	ldrbcs	r0, [r1], #-1
     e0c:	90000009 	andls	r0, r0, r9
     e10:	03000009 	movweq	r0, #9
     e14:	9f017900 	svcls	0x00017900
     e18:	00000990 	muleq	r0, r0, r9
     e1c:	00000994 	muleq	r0, r4, r9
     e20:	01f30004 	mvnseq	r0, r4
     e24:	00009f51 	andeq	r9, r0, r1, asr pc
     e28:	00000000 	andeq	r0, r0, r0
     e2c:	09040000 	stmdbeq	r4, {}	; <UNPREDICTABLE>
     e30:	09200000 	stmdbeq	r0!, {}	; <UNPREDICTABLE>
     e34:	00010000 	andeq	r0, r1, r0
     e38:	00092052 	andeq	r2, r9, r2, asr r0
     e3c:	00099000 	andeq	r9, r9, r0
     e40:	58000100 	stmdapl	r0, {r8}
     e44:	00000990 	muleq	r0, r0, r9
     e48:	00000994 	muleq	r0, r4, r9
     e4c:	01f30004 	mvnseq	r0, r4
     e50:	00009f52 	andeq	r9, r0, r2, asr pc
     e54:	00000000 	andeq	r0, r0, r0
     e58:	09040000 	stmdbeq	r4, {}	; <UNPREDICTABLE>
     e5c:	09340000 	ldmdbeq	r4!, {}	; <UNPREDICTABLE>
     e60:	00020000 	andeq	r0, r2, r0
     e64:	09349f30 	ldmdbeq	r4!, {r4, r5, r8, r9, sl, fp, ip, pc}
     e68:	09880000 	stmibeq	r8, {}	; <UNPREDICTABLE>
     e6c:	00010000 	andeq	r0, r1, r0
     e70:	00000055 	andeq	r0, r0, r5, asr r0
     e74:	00000000 	andeq	r0, r0, r0
     e78:	00090400 	andeq	r0, r9, r0, lsl #8
     e7c:	00093400 	andeq	r3, r9, r0, lsl #8
     e80:	30000200 	andcc	r0, r0, r0, lsl #4
     e84:	0009349f 	muleq	r9, pc, r4	; <UNPREDICTABLE>
     e88:	00098800 	andeq	r8, r9, r0, lsl #16
     e8c:	56000100 	strpl	r0, [r0], -r0, lsl #2
	...
     e98:	00000904 	andeq	r0, r0, r4, lsl #18
     e9c:	00000934 	andeq	r0, r0, r4, lsr r9
     ea0:	9f300002 	svcls	0x00300002
     ea4:	00000934 	andeq	r0, r0, r4, lsr r9
     ea8:	0000093c 	andeq	r0, r0, ip, lsr r9
     eac:	3c570001 	mrrccc	0, 0, r0, r7, cr1
     eb0:	7b000009 	blvc	edc <_start-0x7124>
     eb4:	01000009 	tsteq	r0, r9
     eb8:	097b5100 	ldmdbeq	fp!, {r8, ip, lr}^
     ebc:	097c0000 	ldmdbeq	ip!, {}^	; <UNPREDICTABLE>
     ec0:	00030000 	andeq	r0, r3, r0
     ec4:	7c9f7f77 	ldcvc	15, cr7, [pc], {119}	; 0x77
     ec8:	88000009 	stmdahi	r0, {r0, r3}
     ecc:	01000009 	tsteq	r0, r9
     ed0:	00005700 	andeq	r5, r0, r0, lsl #14
     ed4:	00000000 	andeq	r0, r0, r0
     ed8:	09440000 	stmdbeq	r4, {}^	; <UNPREDICTABLE>
     edc:	09480000 	stmdbeq	r8, {}^	; <UNPREDICTABLE>
     ee0:	00010000 	andeq	r0, r1, r0
     ee4:	00094853 	andeq	r4, r9, r3, asr r8
     ee8:	00094c00 	andeq	r4, r9, r0, lsl #24
     eec:	7a000600 	bvc	26f4 <_start-0x590c>
     ef0:	22007200 	andcs	r7, r0, #0, 4
     ef4:	0000009f 	muleq	r0, pc, r0	; <UNPREDICTABLE>
     ef8:	00000000 	andeq	r0, r0, r0
     efc:	00094800 	andeq	r4, r9, r0, lsl #16
     f00:	00097b00 	andeq	r7, r9, r0, lsl #22
     f04:	53000100 	movwpl	r0, #256	; 0x100
	...
     f10:	00000950 	andeq	r0, r0, r0, asr r9
     f14:	00000984 	andeq	r0, r0, r4, lsl #19
     f18:	00540001 	subseq	r0, r4, r1
     f1c:	00000000 	andeq	r0, r0, r0
     f20:	5c000000 	stcpl	0, cr0, [r0], {-0}
     f24:	78000009 	stmdavc	r0, {r0, r3}
     f28:	01000009 	tsteq	r0, r9
     f2c:	09785000 	ldmdbeq	r8!, {ip, lr}^
     f30:	097b0000 	ldmdbeq	fp!, {}^	; <UNPREDICTABLE>
     f34:	00020000 	andeq	r0, r2, r0
     f38:	00005091 	muleq	r0, r1, r0
     f3c:	00000000 	andeq	r0, r0, r0
     f40:	09940000 	ldmibeq	r4, {}	; <UNPREDICTABLE>
     f44:	09f00000 	ldmibeq	r0!, {}^	; <UNPREDICTABLE>
     f48:	00010000 	andeq	r0, r1, r0
     f4c:	0009f050 	andeq	pc, r9, r0, asr r0	; <UNPREDICTABLE>
     f50:	0009f400 	andeq	pc, r9, r0, lsl #8
     f54:	f3000400 	vshl.u8	d0, d0, d0
     f58:	f49f5001 			; <UNDEFINED> instruction: 0xf49f5001
     f5c:	08000009 	stmdaeq	r0, {r0, r3}
     f60:	0100000a 	tsteq	r0, sl
     f64:	0a085000 	beq	214f6c <__bss_end__+0x20afe4>
     f68:	0a0c0000 	beq	300f70 <__bss_end__+0x2f6fe8>
     f6c:	00040000 	andeq	r0, r4, r0
     f70:	9f5001f3 	svcls	0x005001f3
     f74:	00000a0c 	andeq	r0, r0, ip, lsl #20
     f78:	00000a20 	andeq	r0, r0, r0, lsr #20
     f7c:	20500001 	subscs	r0, r0, r1
     f80:	3400000a 	strcc	r0, [r0], #-10
     f84:	0400000a 	streq	r0, [r0], #-10
     f88:	5001f300 	andpl	pc, r1, r0, lsl #6
     f8c:	0000009f 	muleq	r0, pc, r0	; <UNPREDICTABLE>
     f90:	00000000 	andeq	r0, r0, r0
     f94:	00099400 	andeq	r9, r9, r0, lsl #8
     f98:	00099800 	andeq	r9, r9, r0, lsl #16
     f9c:	51000100 	mrspl	r0, (UNDEF: 16)
     fa0:	00000998 	muleq	r0, r8, r9
     fa4:	000009f3 	strdeq	r0, [r0], -r3
     fa8:	01710003 	cmneq	r1, r3
     fac:	0009f39f 	muleq	r9, pc, r3	; <UNPREDICTABLE>
     fb0:	000a3400 	andeq	r3, sl, r0, lsl #8
     fb4:	f3000400 	vshl.u8	d0, d0, d0
     fb8:	009f5101 	addseq	r5, pc, r1, lsl #2
     fbc:	00000000 	andeq	r0, r0, r0
     fc0:	94000000 	strls	r0, [r0], #-0
     fc4:	a8000009 	stmdage	r0, {r0, r3}
     fc8:	02000009 	andeq	r0, r0, #9
     fcc:	a89f3000 	ldmge	pc, {ip, sp}	; <UNPREDICTABLE>
     fd0:	f3000009 	vhadd.u8	d0, d0, d9
     fd4:	01000009 	tsteq	r0, r9
     fd8:	09f45300 	ldmibeq	r4!, {r8, r9, ip, lr}^
     fdc:	0a0b0000 	beq	2c0fe4 <__bss_end__+0x2b705c>
     fe0:	00010000 	andeq	r0, r1, r0
     fe4:	000a0c53 	andeq	r0, sl, r3, asr ip
     fe8:	000a2300 	andeq	r2, sl, r0, lsl #6
     fec:	53000100 	movwpl	r0, #256	; 0x100
	...
     ff8:	000009a8 	andeq	r0, r0, r8, lsr #19
     ffc:	000009ac 	andeq	r0, r0, ip, lsr #19
    1000:	00720008 	rsbseq	r0, r2, r8
    1004:	00702433 	rsbseq	r2, r0, r3, lsr r4
    1008:	00009f22 	andeq	r9, r0, r2, lsr #30
    100c:	00000000 	andeq	r0, r0, r0
    1010:	09b40000 	ldmibeq	r4!, {}	; <UNPREDICTABLE>
    1014:	09c80000 	stmibeq	r8, {}^	; <UNPREDICTABLE>
    1018:	00010000 	andeq	r0, r1, r0
    101c:	0009dc52 	andeq	sp, r9, r2, asr ip
    1020:	0009e000 	andeq	lr, r9, r0
    1024:	52000100 	andpl	r0, r0, #0, 2
    1028:	000009e0 	andeq	r0, r0, r0, ror #19
    102c:	000009e4 	andeq	r0, r0, r4, ror #19
    1030:	80720005 	rsbshi	r0, r2, r5
    1034:	e49f18a0 	ldr	r1, [pc], #2208	; 103c <_start-0x6fc4>
    1038:	f3000009 	vhadd.u8	d0, d0, d9
    103c:	05000009 	streq	r0, [r0, #-9]
    1040:	b5807200 	strlt	r7, [r0, #512]	; 0x200
    1044:	09f49f18 	ldmibeq	r4!, {r3, r4, r8, r9, sl, fp, ip, pc}^
    1048:	09f80000 	ldmibeq	r8!, {}^	; <UNPREDICTABLE>
    104c:	00010000 	andeq	r0, r1, r0
    1050:	0009f852 	andeq	pc, r9, r2, asr r8	; <UNPREDICTABLE>
    1054:	0009fc00 	andeq	pc, r9, r0, lsl #24
    1058:	72000500 	andvc	r0, r0, #0, 10
    105c:	9f30e080 	svcls	0x0030e080
    1060:	000009fc 	strdeq	r0, [r0], -ip
    1064:	00000a0b 	andeq	r0, r0, fp, lsl #20
    1068:	80720005 	rsbshi	r0, r2, r5
    106c:	0c9f30ea 	ldceq	0, cr3, [pc], {234}	; 0xea
    1070:	1000000a 	andne	r0, r0, sl
    1074:	0100000a 	tsteq	r0, sl
    1078:	0a105200 	beq	415880 <__bss_end__+0x40b8f8>
    107c:	0a140000 	beq	501084 <__bss_end__+0x4f70fc>
    1080:	00050000 	andeq	r0, r5, r0
    1084:	30e08072 	rsccc	r8, r0, r2, ror r0
    1088:	000a149f 	muleq	sl, pc, r4	; <UNPREDICTABLE>
    108c:	000a2300 	andeq	r2, sl, r0, lsl #6
    1090:	72000500 	andvc	r0, r0, #0, 10
    1094:	9f30ea80 	svcls	0x0030ea80
	...
    10a0:	00000a70 	andeq	r0, r0, r0, ror sl
    10a4:	00000a78 	andeq	r0, r0, r8, ror sl
    10a8:	78500001 	ldmdavc	r0, {r0}^
    10ac:	7f00000a 	svcvc	0x0000000a
    10b0:	0100000a 	tsteq	r0, sl
    10b4:	0a7f5100 	beq	1fd54bc <__bss_end__+0x1fcb534>
    10b8:	0a940000 	beq	fe5010c0 <__bss_end__+0xfe4f7138>
    10bc:	00010000 	andeq	r0, r1, r0
    10c0:	00000054 	andeq	r0, r0, r4, asr r0
    10c4:	00000000 	andeq	r0, r0, r0
    10c8:	00002c00 	andeq	r2, r0, r0, lsl #24
    10cc:	00003800 	andeq	r3, r0, r0, lsl #16
    10d0:	50000100 	andpl	r0, r0, r0, lsl #2
    10d4:	00000038 	andeq	r0, r0, r8, lsr r0
    10d8:	00000048 	andeq	r0, r0, r8, asr #32
    10dc:	48550001 	ldmdami	r5, {r0}^
    10e0:	58000000 	stmdapl	r0, {}	; <UNPREDICTABLE>
    10e4:	01000000 	mrseq	r0, (UNDEF: 0)
    10e8:	00005000 	andeq	r5, r0, r0
	...
    10f4:	000b0000 	andeq	r0, fp, r0
    10f8:	00010000 	andeq	r0, r1, r0
    10fc:	00000b50 	andeq	r0, r0, r0, asr fp
    1100:	00001400 	andeq	r1, r0, r0, lsl #8
    1104:	54000100 	strpl	r0, [r0], #-256	; 0x100
	...
    1114:	00000010 	andeq	r0, r0, r0, lsl r0
    1118:	10500001 	subsne	r0, r0, r1
    111c:	34000000 	strcc	r0, [r0], #-0
    1120:	01000000 	mrseq	r0, (UNDEF: 0)
    1124:	00005400 	andeq	r5, r0, r0, lsl #8
	...
    1130:	00040000 	andeq	r0, r4, r0
    1134:	00010000 	andeq	r0, r1, r0
    1138:	00000450 	andeq	r0, r0, r0, asr r4
    113c:	00000c00 	andeq	r0, r0, r0, lsl #24
    1140:	70000300 	andvc	r0, r0, r0, lsl #6
    1144:	000c9f30 	andeq	r9, ip, r0, lsr pc
    1148:	00140000 	andseq	r0, r4, r0
    114c:	00040000 	andeq	r0, r4, r0
    1150:	9f5001f3 	svcls	0x005001f3
	...
    115c:	00000014 	andeq	r0, r0, r4, lsl r0
    1160:	00000020 	andeq	r0, r0, r0, lsr #32
    1164:	20500001 	subscs	r0, r0, r1
    1168:	2c000000 	stccs	0, cr0, [r0], {-0}
    116c:	03000000 	movweq	r0, #0
    1170:	9f017000 	svcls	0x00017000
    1174:	0000002c 	andeq	r0, r0, ip, lsr #32
    1178:	00000040 	andeq	r0, r0, r0, asr #32
    117c:	00500001 	subseq	r0, r0, r1
    1180:	00000000 	andeq	r0, r0, r0
    1184:	14000000 	strne	r0, [r0], #-0
    1188:	18000000 	stmdane	r0, {}	; <UNPREDICTABLE>
    118c:	01000000 	mrseq	r0, (UNDEF: 0)
    1190:	00185100 	andseq	r5, r8, r0, lsl #2
    1194:	00400000 	subeq	r0, r0, r0
    1198:	00040000 	andeq	r0, r4, r0
    119c:	9f5101f3 	svcls	0x005101f3
	...
    11a8:	00000040 	andeq	r0, r0, r0, asr #32
    11ac:	00000060 	andeq	r0, r0, r0, rrx
    11b0:	60500001 	subsvs	r0, r0, r1
    11b4:	6c000000 	stcvs	0, cr0, [r0], {-0}
    11b8:	03000000 	movweq	r0, #0
    11bc:	9f017100 	svcls	0x00017100
    11c0:	0000006c 	andeq	r0, r0, ip, rrx
    11c4:	00000074 	andeq	r0, r0, r4, ror r0
    11c8:	74510001 	ldrbvc	r0, [r1], #-1
    11cc:	80000000 	andhi	r0, r0, r0
    11d0:	03000000 	movweq	r0, #0
    11d4:	9f017100 	svcls	0x00017100
	...
    11e0:	00000040 	andeq	r0, r0, r0, asr #32
    11e4:	00000050 	andeq	r0, r0, r0, asr r0
    11e8:	50510001 	subspl	r0, r1, r1
    11ec:	80000000 	andhi	r0, r0, r0
    11f0:	04000000 	streq	r0, [r0], #-0
    11f4:	5101f300 	mrspl	pc, SP_irq	; <UNPREDICTABLE>
    11f8:	0000009f 	muleq	r0, pc, r0	; <UNPREDICTABLE>
    11fc:	00000000 	andeq	r0, r0, r0
    1200:	00004000 	andeq	r4, r0, r0
    1204:	00005800 	andeq	r5, r0, r0, lsl #16
    1208:	52000100 	andpl	r0, r0, #0, 2
    120c:	00000058 	andeq	r0, r0, r8, asr r0
    1210:	00000064 	andeq	r0, r0, r4, rrx
    1214:	64520001 	ldrbvs	r0, [r2], #-1
    1218:	68000000 	stmdavs	r0, {}	; <UNPREDICTABLE>
    121c:	03000000 	movweq	r0, #0
    1220:	9f017200 	svcls	0x00017200
    1224:	00000068 	andeq	r0, r0, r8, rrx
    1228:	00000080 	andeq	r0, r0, r0, lsl #1
    122c:	00520001 	subseq	r0, r2, r1
    1230:	00000000 	andeq	r0, r0, r0
    1234:	40000000 	andmi	r0, r0, r0
    1238:	54000000 	strpl	r0, [r0], #-0
    123c:	01000000 	mrseq	r0, (UNDEF: 0)
    1240:	00545300 	subseq	r5, r4, r0, lsl #6
    1244:	00780000 	rsbseq	r0, r8, r0
    1248:	00010000 	andeq	r0, r1, r0
    124c:	00000053 	andeq	r0, r0, r3, asr r0
    1250:	00000000 	andeq	r0, r0, r0
    1254:	00004800 	andeq	r4, r0, r0, lsl #16
    1258:	00006000 	andeq	r6, r0, r0
    125c:	5c000100 	stfpls	f0, [r0], {-0}
    1260:	00000060 	andeq	r0, r0, r0, rrx
    1264:	00000080 	andeq	r0, r0, r0, lsl #1
    1268:	01f3000a 	mvnseq	r0, sl
    126c:	5301f352 	movwpl	pc, #4946	; 0x1352	; <UNPREDICTABLE>
    1270:	9f01231c 	svcls	0x0001231c
	...
    127c:	00000080 	andeq	r0, r0, r0, lsl #1
    1280:	000000a4 	andeq	r0, r0, r4, lsr #1
    1284:	a4500001 	ldrbge	r0, [r0], #-1
    1288:	18000000 	stmdane	r0, {}	; <UNPREDICTABLE>
    128c:	03000001 	movweq	r0, #1
    1290:	9f027000 	svcls	0x00027000
    1294:	00000118 	andeq	r0, r0, r8, lsl r1
    1298:	0000021c 	andeq	r0, r0, ip, lsl r2
    129c:	01f30004 	mvnseq	r0, r4
    12a0:	00009f50 	andeq	r9, r0, r0, asr pc
    12a4:	00000000 	andeq	r0, r0, r0
    12a8:	00800000 	addeq	r0, r0, r0
    12ac:	00f00000 	rscseq	r0, r0, r0
    12b0:	00010000 	andeq	r0, r1, r0
    12b4:	0000f051 	andeq	pc, r0, r1, asr r0	; <UNPREDICTABLE>
    12b8:	00016000 	andeq	r6, r1, r0
    12bc:	55000100 	strpl	r0, [r0, #-256]	; 0x100
    12c0:	00000160 	andeq	r0, r0, r0, ror #2
    12c4:	00000168 	andeq	r0, r0, r8, ror #2
    12c8:	68510001 	ldmdavs	r1, {r0}^
    12cc:	88000001 	stmdahi	r0, {r0}
    12d0:	01000001 	tsteq	r0, r1
    12d4:	01885500 	orreq	r5, r8, r0, lsl #10
    12d8:	019c0000 	orrseq	r0, ip, r0
    12dc:	00010000 	andeq	r0, r1, r0
    12e0:	00019c51 	andeq	r9, r1, r1, asr ip
    12e4:	0001bc00 	andeq	fp, r1, r0, lsl #24
    12e8:	55000100 	strpl	r0, [r0, #-256]	; 0x100
    12ec:	000001bc 			; <UNDEFINED> instruction: 0x000001bc
    12f0:	000001bf 			; <UNDEFINED> instruction: 0x000001bf
    12f4:	bf510001 	svclt	0x00510001
    12f8:	00000001 	andeq	r0, r0, r1
    12fc:	01000002 	tsteq	r0, r2
    1300:	02005500 	andeq	r5, r0, #0, 10
    1304:	021c0000 	andseq	r0, ip, #0
    1308:	00040000 	andeq	r0, r4, r0
    130c:	9f5101f3 	svcls	0x005101f3
	...
    1318:	00000080 	andeq	r0, r0, r0, lsl #1
    131c:	00000094 	muleq	r0, r4, r0
    1320:	94520001 	ldrbls	r0, [r2], #-1
    1324:	00000000 	andeq	r0, r0, r0
    1328:	01000002 	tsteq	r0, r2
    132c:	02005400 	andeq	r5, r0, #0, 8
    1330:	021c0000 	andseq	r0, ip, #0
    1334:	00040000 	andeq	r0, r4, r0
    1338:	9f5201f3 	svcls	0x005201f3
	...
    1344:	00000080 	andeq	r0, r0, r0, lsl #1
    1348:	00000100 	andeq	r0, r0, r0, lsl #2
    134c:	04530001 	ldrbeq	r0, [r3], #-1
    1350:	08000001 	stmdaeq	r0, {r0}
    1354:	01000001 	tsteq	r0, r1
    1358:	01605300 	cmneq	r0, r0, lsl #6
    135c:	01680000 	cmneq	r8, r0
    1360:	00010000 	andeq	r0, r1, r0
    1364:	00016853 	andeq	r6, r1, r3, asr r8
    1368:	00018800 	andeq	r8, r1, r0, lsl #16
    136c:	f3000400 	vshl.u8	d0, d0, d0
    1370:	889f5301 	ldmhi	pc, {r0, r8, r9, ip, lr}	; <UNPREDICTABLE>
    1374:	90000001 	andls	r0, r0, r1
    1378:	01000001 	tsteq	r0, r1
    137c:	01905300 	orrseq	r5, r0, r0, lsl #6
    1380:	01940000 	orrseq	r0, r4, r0
    1384:	00010000 	andeq	r0, r1, r0
    1388:	0001945c 	andeq	r9, r1, ip, asr r4
    138c:	00019c00 	andeq	r9, r1, r0, lsl #24
    1390:	53000100 	movwpl	r0, #256	; 0x100
    1394:	0000019c 	muleq	r0, ip, r1
    1398:	000001bc 			; <UNDEFINED> instruction: 0x000001bc
    139c:	01f30004 	mvnseq	r0, r4
    13a0:	01bc9f53 			; <UNDEFINED> instruction: 0x01bc9f53
    13a4:	01bf0000 			; <UNDEFINED> instruction: 0x01bf0000
    13a8:	00010000 	andeq	r0, r1, r0
    13ac:	0001bf53 	andeq	fp, r1, r3, asr pc
    13b0:	0001d800 	andeq	sp, r1, r0, lsl #16
    13b4:	f3000400 	vshl.u8	d0, d0, d0
    13b8:	009f5301 	addseq	r5, pc, r1, lsl #6
    13bc:	00000000 	andeq	r0, r0, r0
    13c0:	80000000 	andhi	r0, r0, r0
    13c4:	9c000000 	stcls	0, cr0, [r0], {-0}
    13c8:	02000000 	andeq	r0, r0, #0
    13cc:	9c009100 	stflsd	f1, [r0], {-0}
    13d0:	bf000000 	svclt	0x00000000
    13d4:	01000001 	tsteq	r0, r1
    13d8:	01d85200 	bicseq	r5, r8, r0, lsl #4
    13dc:	01e30000 	mvneq	r0, r0
    13e0:	00010000 	andeq	r0, r1, r0
    13e4:	00000052 	andeq	r0, r0, r2, asr r0
    13e8:	00000000 	andeq	r0, r0, r0
    13ec:	00009c00 	andeq	r9, r0, r0, lsl #24
    13f0:	00011800 	andeq	r1, r1, r0, lsl #16
    13f4:	5d000100 	stfpls	f0, [r0, #-0]
    13f8:	00000118 	andeq	r0, r0, r8, lsl r1
    13fc:	0000011c 	andeq	r0, r0, ip, lsl r1
    1400:	1c530001 	mrrcne	0, 0, r0, r3, cr1
    1404:	20000001 	andcs	r0, r0, r1
    1408:	01000001 	tsteq	r0, r1
    140c:	01205100 	teqeq	r0, r0, lsl #2
    1410:	01600000 	cmneq	r0, r0
    1414:	00010000 	andeq	r0, r1, r0
    1418:	00016053 	andeq	r6, r1, r3, asr r0
    141c:	00016800 	andeq	r6, r1, r0, lsl #16
    1420:	5d000100 	stfpls	f0, [r0, #-0]
    1424:	00000168 	andeq	r0, r0, r8, ror #2
    1428:	0000016c 	andeq	r0, r0, ip, ror #2
    142c:	6c5e0001 	mrrcvs	0, 0, r0, lr, cr1
    1430:	88000001 	stmdahi	r0, {r0}
    1434:	01000001 	tsteq	r0, r1
    1438:	01885300 	orreq	r5, r8, r0, lsl #6
    143c:	01900000 	orrseq	r0, r0, r0
    1440:	00040000 	andeq	r0, r4, r0
    1444:	9f7fa191 	svcls	0x007fa191
    1448:	00000190 	muleq	r0, r0, r1
    144c:	00000194 	muleq	r0, r4, r1
    1450:	94530001 	ldrbls	r0, [r3], #-1
    1454:	9c000001 	stcls	0, cr0, [r0], {1}
    1458:	01000001 	tsteq	r0, r1
    145c:	019c5d00 	orrseq	r5, ip, r0, lsl #26
    1460:	01a00000 	moveq	r0, r0
    1464:	00010000 	andeq	r0, r1, r0
    1468:	0001a05e 	andeq	sl, r1, lr, asr r0
    146c:	0001bc00 	andeq	fp, r1, r0, lsl #24
    1470:	53000100 	movwpl	r0, #256	; 0x100
    1474:	000001bc 			; <UNDEFINED> instruction: 0x000001bc
    1478:	000001d8 	ldrdeq	r0, [r0], -r8
    147c:	d85d0001 	ldmdale	sp, {r0}^
    1480:	e3000001 	movw	r0, #1
    1484:	01000001 	tsteq	r0, r1
    1488:	00005300 	andeq	r5, r0, r0, lsl #6
    148c:	00000000 	andeq	r0, r0, r0
    1490:	00a00000 	adceq	r0, r0, r0
    1494:	00ec0000 	rsceq	r0, ip, r0
    1498:	00010000 	andeq	r0, r1, r0
    149c:	0000ec5c 	andeq	lr, r0, ip, asr ip
    14a0:	00010000 	andeq	r0, r1, r0
    14a4:	53000100 	movwpl	r0, #256	; 0x100
    14a8:	00000100 	andeq	r0, r0, r0, lsl #2
    14ac:	00000104 	andeq	r0, r0, r4, lsl #2
    14b0:	045c0001 	ldrbeq	r0, [ip], #-1
    14b4:	08000001 	stmdaeq	r0, {r0}
    14b8:	01000001 	tsteq	r0, r1
    14bc:	01085300 	mrseq	r5, (UNDEF: 56)
    14c0:	01180000 	tsteq	r8, r0
    14c4:	00010000 	andeq	r0, r1, r0
    14c8:	0001185c 	andeq	r1, r1, ip, asr r8
    14cc:	00011c00 	andeq	r1, r1, r0, lsl #24
    14d0:	50000100 	andpl	r0, r0, r0, lsl #2
    14d4:	0000011c 	andeq	r0, r0, ip, lsl r1
    14d8:	0000013c 	andeq	r0, r0, ip, lsr r1
    14dc:	445c0001 	ldrbmi	r0, [ip], #-1
    14e0:	58000001 	stmdapl	r0, {r0}
    14e4:	01000001 	tsteq	r0, r1
    14e8:	01585000 	cmpeq	r8, r0
    14ec:	01600000 	cmneq	r0, r0
    14f0:	00010000 	andeq	r0, r1, r0
    14f4:	0001605c 	andeq	r6, r1, ip, asr r0
    14f8:	00016800 	andeq	r6, r1, r0, lsl #16
    14fc:	53000100 	movwpl	r0, #256	; 0x100
    1500:	00000168 	andeq	r0, r0, r8, ror #2
    1504:	00000178 	andeq	r0, r0, r8, ror r1
    1508:	785c0001 	ldmdavc	ip, {r0}^
    150c:	80000001 	andhi	r0, r0, r1
    1510:	05000001 	streq	r0, [r0, #-1]
    1514:	34007c00 	strcc	r7, [r0], #-3072	; 0xc00
    1518:	01809f25 	orreq	r9, r0, r5, lsr #30
    151c:	01880000 	orreq	r0, r8, r0
    1520:	00010000 	andeq	r0, r1, r0
    1524:	0001885c 	andeq	r8, r1, ip, asr r8
    1528:	00019000 	andeq	r9, r1, r0
    152c:	53000100 	movwpl	r0, #256	; 0x100
    1530:	00000190 	muleq	r0, r0, r1
    1534:	00000194 	muleq	r0, r4, r1
    1538:	945c0001 	ldrbls	r0, [ip], #-1
    153c:	9c000001 	stcls	0, cr0, [r0], {1}
    1540:	01000001 	tsteq	r0, r1
    1544:	019c5300 	orrseq	r5, ip, r0, lsl #6
    1548:	01ac0000 			; <UNDEFINED> instruction: 0x01ac0000
    154c:	00010000 	andeq	r0, r1, r0
    1550:	0001ac5c 	andeq	sl, r1, ip, asr ip
    1554:	0001b400 	andeq	fp, r1, r0, lsl #8
    1558:	7c000500 	cfstr32vc	mvfx0, [r0], {-0}
    155c:	9f253100 	svcls	0x00253100
    1560:	000001b4 			; <UNDEFINED> instruction: 0x000001b4
    1564:	000001bc 			; <UNDEFINED> instruction: 0x000001bc
    1568:	bc5c0001 	mrrclt	0, 0, r0, ip, cr1
    156c:	bf000001 	svclt	0x00000001
    1570:	01000001 	tsteq	r0, r1
    1574:	01bf5300 			; <UNDEFINED> instruction: 0x01bf5300
    1578:	01d80000 	bicseq	r0, r8, r0
    157c:	00040000 	andeq	r0, r4, r0
    1580:	9f5301f3 	svcls	0x005301f3
    1584:	000001d8 	ldrdeq	r0, [r0], -r8
    1588:	000001e3 	andeq	r0, r0, r3, ror #3
    158c:	005c0001 	subseq	r0, ip, r1
    1590:	00000000 	andeq	r0, r0, r0
    1594:	ec000000 	stc	0, cr0, [r0], {-0}
    1598:	fc000000 	stc2	0, cr0, [r0], {-0}
    159c:	02000000 	andeq	r0, r0, #0
    15a0:	fc9f3000 	ldc2	0, cr3, [pc], {0}
    15a4:	04000000 	streq	r0, [r0], #-0
    15a8:	02000001 	andeq	r0, r0, #1
    15ac:	049f3100 	ldreq	r3, [pc], #256	; 15b4 <_start-0x6a4c>
    15b0:	08000001 	stmdaeq	r0, {r0}
    15b4:	02000001 	andeq	r0, r0, #1
    15b8:	009f3000 	addseq	r3, pc, r0
    15bc:	00000000 	andeq	r0, r0, r0
    15c0:	1c000000 	stcne	0, cr0, [r0], {-0}
    15c4:	2b000002 	blcs	15d4 <_start-0x6a2c>
    15c8:	01000002 	tsteq	r0, r2
    15cc:	022b5000 	eoreq	r5, fp, #0
    15d0:	02440000 	subeq	r0, r4, #0
    15d4:	00040000 	andeq	r0, r4, r0
    15d8:	9f5001f3 	svcls	0x005001f3
    15dc:	00000244 	andeq	r0, r0, r4, asr #4
    15e0:	00000270 	andeq	r0, r0, r0, ror r2
    15e4:	00500001 	subseq	r0, r0, r1
    15e8:	00000000 	andeq	r0, r0, r0
    15ec:	1c000000 	stcne	0, cr0, [r0], {-0}
    15f0:	2b000002 	blcs	1600 <_start-0x6a00>
    15f4:	01000002 	tsteq	r0, r2
    15f8:	022b5100 	eoreq	r5, fp, #0, 2
    15fc:	02440000 	subeq	r0, r4, #0
    1600:	00040000 	andeq	r0, r4, r0
    1604:	9f5101f3 	svcls	0x005101f3
    1608:	00000244 	andeq	r0, r0, r4, asr #4
    160c:	00000270 	andeq	r0, r0, r0, ror r2
    1610:	00510001 	subseq	r0, r1, r1
    1614:	00000000 	andeq	r0, r0, r0
    1618:	70000000 	andvc	r0, r0, r0
    161c:	9c000002 	stcls	0, cr0, [r0], {2}
    1620:	01000002 	tsteq	r0, r2
    1624:	029c5000 	addseq	r5, ip, #0
    1628:	04e40000 	strbteq	r0, [r4], #0
    162c:	00010000 	andeq	r0, r1, r0
    1630:	0004e45a 	andeq	lr, r4, sl, asr r4
    1634:	0004f800 	andeq	pc, r4, r0, lsl #16
    1638:	f3000400 	vshl.u8	d0, d0, d0
    163c:	009f5001 	addseq	r5, pc, r1
    1640:	00000000 	andeq	r0, r0, r0
    1644:	70000000 	andvc	r0, r0, r0
    1648:	84000002 	strhi	r0, [r0], #-2
    164c:	01000002 	tsteq	r0, r2
    1650:	02845100 	addeq	r5, r4, #0, 2
    1654:	029c0000 	addseq	r0, ip, #0
    1658:	00030000 	andeq	r0, r3, r0
    165c:	9c9f0171 	ldflss	f0, [pc], {113}	; 0x71
    1660:	f8000002 			; <UNDEFINED> instruction: 0xf8000002
    1664:	04000004 	streq	r0, [r0], #-4
    1668:	5101f300 	mrspl	pc, SP_irq	; <UNPREDICTABLE>
    166c:	0000009f 	muleq	r0, pc, r0	; <UNPREDICTABLE>
    1670:	00000000 	andeq	r0, r0, r0
    1674:	00027000 	andeq	r7, r2, r0
    1678:	0002a400 	andeq	sl, r2, r0, lsl #8
    167c:	52000100 	andpl	r0, r0, #0, 2
    1680:	000002a4 	andeq	r0, r0, r4, lsr #5
    1684:	000002cc 	andeq	r0, r0, ip, asr #5
    1688:	cc520001 	mrrcgt	0, 0, r0, r2, cr1
    168c:	94000002 	strls	r0, [r0], #-2
    1690:	01000004 	tsteq	r0, r4
    1694:	04945600 	ldreq	r5, [r4], #1536	; 0x600
    1698:	04f80000 	ldrbteq	r0, [r8], #0
    169c:	00010000 	andeq	r0, r1, r0
    16a0:	00000052 	andeq	r0, r0, r2, asr r0
    16a4:	00000000 	andeq	r0, r0, r0
    16a8:	00027000 	andeq	r7, r2, r0
    16ac:	00028c00 	andeq	r8, r2, r0, lsl #24
    16b0:	53000100 	movwpl	r0, #256	; 0x100
	...
    16bc:	00000280 	andeq	r0, r0, r0, lsl #5
    16c0:	0000029c 	muleq	r0, ip, r2
    16c4:	9c500001 	mrrcls	0, 0, r0, r0, cr1	; <UNPREDICTABLE>
    16c8:	a0000002 	andge	r0, r0, r2
    16cc:	01000002 	tsteq	r0, r2
    16d0:	02a05400 	adceq	r5, r0, #0, 8
    16d4:	02ac0000 	adceq	r0, ip, #0
    16d8:	00030000 	andeq	r0, r3, r0
    16dc:	ac9f0174 	ldfges	f0, [pc], {116}	; 0x74
    16e0:	b8000002 	stmdalt	r0, {r1}
    16e4:	01000002 	tsteq	r0, r2
    16e8:	02b85400 	adcseq	r5, r8, #0, 8
    16ec:	02c40000 	sbceq	r0, r4, #0
    16f0:	00030000 	andeq	r0, r3, r0
    16f4:	c49f0174 	ldrgt	r0, [pc], #372	; 16fc <_start-0x6904>
    16f8:	98000002 	stmdals	r0, {r1}
    16fc:	01000004 	tsteq	r0, r4
    1700:	04985400 	ldreq	r5, [r8], #1024	; 0x400
    1704:	04a40000 	strteq	r0, [r4], #0
    1708:	00030000 	andeq	r0, r3, r0
    170c:	a49f0174 	ldrge	r0, [pc], #372	; 1714 <_start-0x68ec>
    1710:	d0000004 	andle	r0, r0, r4
    1714:	01000004 	tsteq	r0, r4
    1718:	04d05400 	ldrbeq	r5, [r0], #1024	; 0x400
    171c:	04dc0000 	ldrbeq	r0, [ip], #0
    1720:	00010000 	andeq	r0, r1, r0
    1724:	0004dc50 	andeq	sp, r4, r0, asr ip
    1728:	0004e400 	andeq	lr, r4, r0, lsl #8
    172c:	74000300 	strvc	r0, [r0], #-768	; 0x300
    1730:	00009f01 	andeq	r9, r0, r1, lsl #30
    1734:	00000000 	andeq	r0, r0, r0
    1738:	02880000 	addeq	r0, r8, #0
    173c:	04e40000 	strbteq	r0, [r4], #0
    1740:	00010000 	andeq	r0, r1, r0
    1744:	0004e458 	andeq	lr, r4, r8, asr r4
    1748:	0004f800 	andeq	pc, r4, r0, lsl #16
    174c:	f3000a00 	vpmax.u8	d0, d0, d0
    1750:	01f35101 	mvnseq	r5, r1, lsl #2
    1754:	1c312250 	lfmne	f2, 4, [r1], #-320	; 0xfffffec0
    1758:	0000009f 	muleq	r0, pc, r0	; <UNPREDICTABLE>
    175c:	00000000 	andeq	r0, r0, r0
    1760:	0003cc00 	andeq	ip, r3, r0, lsl #24
    1764:	0003d000 	andeq	sp, r3, r0
    1768:	50000100 	andpl	r0, r0, r0, lsl #2
    176c:	000003f0 	strdeq	r0, [r0], -r0	; <UNPREDICTABLE>
    1770:	000003f4 	strdeq	r0, [r0], -r4
    1774:	14500001 	ldrbne	r0, [r0], #-1
    1778:	18000004 	stmdane	r0, {r2}
    177c:	01000004 	tsteq	r0, r4
    1780:	04385000 	ldrteq	r5, [r8], #-0
    1784:	043c0000 	ldrteq	r0, [ip], #-0
    1788:	00010000 	andeq	r0, r1, r0
    178c:	00044450 	andeq	r4, r4, r0, asr r4
    1790:	00044800 	andeq	r4, r4, r0, lsl #16
    1794:	50000100 	andpl	r0, r0, r0, lsl #2
    1798:	00000468 	andeq	r0, r0, r8, ror #8
    179c:	0000046c 	andeq	r0, r0, ip, ror #8
    17a0:	90500001 	subsls	r0, r0, r1
    17a4:	b8000004 	stmdalt	r0, {r2}
    17a8:	01000004 	tsteq	r0, r4
    17ac:	00005000 	andeq	r5, r0, r0
    17b0:	00000000 	andeq	r0, r0, r0
    17b4:	02cc0000 	sbceq	r0, ip, #0
    17b8:	02d40000 	sbcseq	r0, r4, #0
    17bc:	00020000 	andeq	r0, r2, r0
    17c0:	02d49f30 	sbcseq	r9, r4, #48, 30	; 0xc0
    17c4:	02d80000 	sbcseq	r0, r8, #0
    17c8:	00010000 	andeq	r0, r1, r0
    17cc:	0002e457 	andeq	lr, r2, r7, asr r4
    17d0:	0004b800 	andeq	fp, r4, r0, lsl #16
    17d4:	57000100 	strpl	r0, [r0, -r0, lsl #2]
	...
    17e0:	00000004 	andeq	r0, r0, r4
    17e4:	00000008 	andeq	r0, r0, r8
    17e8:	00730007 	rsbseq	r0, r3, r7
    17ec:	2110000a 	tstcs	r0, sl
    17f0:	0000089f 	muleq	r0, pc, r8	; <UNPREDICTABLE>
    17f4:	00001000 	andeq	r1, r0, r0
    17f8:	53000100 	movwpl	r0, #256	; 0x100
	...
    1804:	00000014 	andeq	r0, r0, r4, lsl r0
    1808:	00000018 	andeq	r0, r0, r8, lsl r0
    180c:	00730007 	rsbseq	r0, r3, r7
    1810:	1aefff0b 	bne	ffc01444 <__bss_end__+0xffbf74bc>
    1814:	0000189f 	muleq	r0, pc, r8	; <UNPREDICTABLE>
    1818:	00002000 	andeq	r2, r0, r0
    181c:	53000100 	movwpl	r0, #256	; 0x100
	...
    1828:	00000014 	andeq	r0, r0, r4, lsl r0
    182c:	0000001c 	andeq	r0, r0, ip, lsl r0
    1830:	04730003 	ldrbteq	r0, [r3], #-3
    1834:	00001c9f 	muleq	r0, pc, ip	; <UNPREDICTABLE>
    1838:	00002700 	andeq	r2, r0, r0, lsl #14
    183c:	53000100 	movwpl	r0, #256	; 0x100
	...
    1848:	000090e0 	andeq	r9, r0, r0, ror #1
    184c:	000090e4 	andeq	r9, r0, r4, ror #1
    1850:	9f300002 	svcls	0x00300002
    1854:	000090e4 	andeq	r9, r0, r4, ror #1
    1858:	000090e8 	andeq	r9, r0, r8, ror #1
    185c:	00500001 	subseq	r0, r0, r1
    1860:	00000000 	andeq	r0, r0, r0
    1864:	f8000000 			; <UNDEFINED> instruction: 0xf8000000
    1868:	fc000090 	stc2	0, cr0, [r0], {144}	; 0x90
    186c:	02000090 	andeq	r0, r0, #144	; 0x90
    1870:	fc9f3000 	ldc2	0, cr3, [pc], {0}
    1874:	00000090 	muleq	r0, r0, r0
    1878:	01000091 	swpeq	r0, r1, [r0]	; <UNPREDICTABLE>
    187c:	91045300 	mrsls	r5, LR_abt
    1880:	910c0000 	mrsls	r0, (UNDEF: 12)
    1884:	00010000 	andeq	r0, r1, r0
    1888:	00000053 	andeq	r0, r0, r3, asr r0
	...
    1894:	00000400 	andeq	r0, r0, r0, lsl #8
    1898:	50000100 	andpl	r0, r0, r0, lsl #2
    189c:	00000004 	andeq	r0, r0, r4
    18a0:	0000000c 	andeq	r0, r0, ip
    18a4:	0c530001 	mrrceq	0, 0, r0, r3, cr1
    18a8:	10000000 	andne	r0, r0, r0
    18ac:	01000000 	mrseq	r0, (UNDEF: 0)
    18b0:	00105000 	andseq	r5, r0, r0
    18b4:	001c0000 	andseq	r0, ip, r0
    18b8:	00010000 	andeq	r0, r1, r0
    18bc:	00000053 	andeq	r0, r0, r3, asr r0
    18c0:	00000000 	andeq	r0, r0, r0
    18c4:	00003c00 	andeq	r3, r0, r0, lsl #24
    18c8:	00004700 	andeq	r4, r0, r0, lsl #14
    18cc:	50000100 	andpl	r0, r0, r0, lsl #2
    18d0:	00000047 	andeq	r0, r0, r7, asr #32
    18d4:	00000060 	andeq	r0, r0, r0, rrx
    18d8:	00550001 	subseq	r0, r5, r1
    18dc:	00000000 	andeq	r0, r0, r0
    18e0:	50000000 	andpl	r0, r0, r0
    18e4:	54000000 	strpl	r0, [r0], #-0
    18e8:	01000000 	mrseq	r0, (UNDEF: 0)
    18ec:	00005000 	andeq	r5, r0, r0
    18f0:	00000000 	andeq	r0, r0, r0
    18f4:	00600000 	rsbeq	r0, r0, r0
    18f8:	006c0000 	rsbeq	r0, ip, r0
    18fc:	00010000 	andeq	r0, r1, r0
    1900:	00006c50 	andeq	r6, r0, r0, asr ip
    1904:	00007400 	andeq	r7, r0, r0, lsl #8
    1908:	f3000400 	vshl.u8	d0, d0, d0
    190c:	009f5001 	addseq	r5, pc, r1
    1910:	00000000 	andeq	r0, r0, r0
    1914:	74000000 	strvc	r0, [r0], #-0
    1918:	80000000 	andhi	r0, r0, r0
    191c:	01000000 	mrseq	r0, (UNDEF: 0)
    1920:	00805000 	addeq	r5, r0, r0
    1924:	00880000 	addeq	r0, r8, r0
    1928:	00040000 	andeq	r0, r4, r0
    192c:	9f5001f3 	svcls	0x005001f3
	...
    193c:	00000090 	muleq	r0, r0, r0
    1940:	90500001 	subsls	r0, r0, r1
    1944:	d4000000 	strle	r0, [r0], #-0
    1948:	01000000 	mrseq	r0, (UNDEF: 0)
    194c:	00005400 	andeq	r5, r0, r0, lsl #8
    1950:	00000000 	andeq	r0, r0, r0
    1954:	00480000 	subeq	r0, r8, r0
    1958:	004c0000 	subeq	r0, ip, r0
    195c:	00010000 	andeq	r0, r1, r0
    1960:	00005455 	andeq	r5, r0, r5, asr r4
    1964:	00005800 	andeq	r5, r0, r0, lsl #16
    1968:	55000100 	strpl	r0, [r0, #-256]	; 0x100
    196c:	00000060 	andeq	r0, r0, r0, rrx
    1970:	00000064 	andeq	r0, r0, r4, rrx
    1974:	6c550001 	mrrcvs	0, 0, r0, r5, cr1
    1978:	70000000 	andvc	r0, r0, r0
    197c:	01000000 	mrseq	r0, (UNDEF: 0)
    1980:	00785500 	rsbseq	r5, r8, r0, lsl #10
    1984:	007c0000 	rsbseq	r0, ip, r0
    1988:	00010000 	andeq	r0, r1, r0
    198c:	00008455 	andeq	r8, r0, r5, asr r4
    1990:	00008800 	andeq	r8, r0, r0, lsl #16
    1994:	55000100 	strpl	r0, [r0, #-256]	; 0x100
    1998:	0000008c 	andeq	r0, r0, ip, lsl #1
    199c:	000000d4 	ldrdeq	r0, [r0], -r4
    19a0:	00550001 	subseq	r0, r5, r1
    19a4:	00000000 	andeq	r0, r0, r0
    19a8:	1c000000 	stcne	0, cr0, [r0], {-0}
    19ac:	44000000 	strmi	r0, [r0], #-0
    19b0:	01000000 	mrseq	r0, (UNDEF: 0)
    19b4:	00445300 	subeq	r5, r4, r0, lsl #6
    19b8:	004c0000 	subeq	r0, ip, r0
    19bc:	001c0000 	andseq	r0, ip, r0
    19c0:	2cf70070 	ldclcs	0, cr0, [r7], #448	; 0x1c0
    19c4:	25f425f7 	ldrbcs	r2, [r4, #1527]!	; 0x5f7
    19c8:	cccccd08 	stclgt	13, cr12, [ip], {8}
    19cc:	000000cc 	andeq	r0, r0, ip, asr #1
    19d0:	20081e00 	andcs	r1, r8, r0, lsl #28
    19d4:	f72525f7 			; <UNDEFINED> instruction: 0xf72525f7
    19d8:	9f25332c 	svcls	0x0025332c
    19dc:	0000004c 	andeq	r0, r0, ip, asr #32
    19e0:	00000050 	andeq	r0, r0, r0, asr r0
    19e4:	50530001 	subspl	r0, r3, r1
    19e8:	58000000 	stmdapl	r0, {}	; <UNPREDICTABLE>
    19ec:	1c000000 	stcne	0, cr0, [r0], {-0}
    19f0:	f7007000 			; <UNDEFINED> instruction: 0xf7007000
    19f4:	f425f72c 	vld1.8	{d15}, [r5 :128], ip
    19f8:	cccd0825 	stclgt	8, cr0, [sp], {37}	; 0x25
    19fc:	0000cccc 	andeq	ip, r0, ip, asr #25
    1a00:	081e0000 	ldmdaeq	lr, {}	; <UNPREDICTABLE>
    1a04:	2525f720 	strcs	pc, [r5, #-1824]!	; 0x720
    1a08:	25332cf7 	ldrcs	r2, [r3, #-3319]!	; 0xcf7
    1a0c:	0000589f 	muleq	r0, pc, r8	; <UNPREDICTABLE>
    1a10:	00005c00 	andeq	r5, r0, r0, lsl #24
    1a14:	53000100 	movwpl	r0, #256	; 0x100
    1a18:	0000005c 	andeq	r0, r0, ip, asr r0
    1a1c:	00000064 	andeq	r0, r0, r4, rrx
    1a20:	0070001c 	rsbseq	r0, r0, ip, lsl r0
    1a24:	25f72cf7 	ldrbcs	r2, [r7, #3319]!	; 0xcf7
    1a28:	cd0825f4 	cfstr32gt	mvfx2, [r8, #-976]	; 0xfffffc30
    1a2c:	00cccccc 	sbceq	ip, ip, ip, asr #25
    1a30:	1e000000 	cdpne	0, 0, cr0, cr0, cr0, {0}
    1a34:	25f72008 	ldrbcs	r2, [r7, #8]!
    1a38:	332cf725 	msrcc	CPSR_fs, #9699328	; 0x940000
    1a3c:	00649f25 	rsbeq	r9, r4, r5, lsr #30
    1a40:	00680000 	rsbeq	r0, r8, r0
    1a44:	00010000 	andeq	r0, r1, r0
    1a48:	00006853 	andeq	r6, r0, r3, asr r8
    1a4c:	00007000 	andeq	r7, r0, r0
    1a50:	70001c00 	andvc	r1, r0, r0, lsl #24
    1a54:	f72cf700 			; <UNDEFINED> instruction: 0xf72cf700
    1a58:	0825f425 	stmdaeq	r5!, {r0, r2, r5, sl, ip, sp, lr, pc}
    1a5c:	cccccccd 	stclgt	12, cr12, [ip], {205}	; 0xcd
    1a60:	00000000 	andeq	r0, r0, r0
    1a64:	f720081e 			; <UNDEFINED> instruction: 0xf720081e
    1a68:	2cf72525 	cfldr64cs	mvdx2, [r7], #148	; 0x94
    1a6c:	709f2533 	addsvc	r2, pc, r3, lsr r5	; <UNPREDICTABLE>
    1a70:	74000000 	strvc	r0, [r0], #-0
    1a74:	01000000 	mrseq	r0, (UNDEF: 0)
    1a78:	00745300 	rsbseq	r5, r4, r0, lsl #6
    1a7c:	007c0000 	rsbseq	r0, ip, r0
    1a80:	001c0000 	andseq	r0, ip, r0
    1a84:	2cf70070 	ldclcs	0, cr0, [r7], #448	; 0x1c0
    1a88:	25f425f7 	ldrbcs	r2, [r4, #1527]!	; 0x5f7
    1a8c:	cccccd08 	stclgt	13, cr12, [ip], {8}
    1a90:	000000cc 	andeq	r0, r0, ip, asr #1
    1a94:	20081e00 	andcs	r1, r8, r0, lsl #28
    1a98:	f72525f7 			; <UNDEFINED> instruction: 0xf72525f7
    1a9c:	9f25332c 	svcls	0x0025332c
    1aa0:	0000007c 	andeq	r0, r0, ip, ror r0
    1aa4:	00000080 	andeq	r0, r0, r0, lsl #1
    1aa8:	80530001 	subshi	r0, r3, r1
    1aac:	88000000 	stmdahi	r0, {}	; <UNPREDICTABLE>
    1ab0:	1c000000 	stcne	0, cr0, [r0], {-0}
    1ab4:	f7007000 			; <UNDEFINED> instruction: 0xf7007000
    1ab8:	f425f72c 	vld1.8	{d15}, [r5 :128], ip
    1abc:	cccd0825 	stclgt	8, cr0, [sp], {37}	; 0x25
    1ac0:	0000cccc 	andeq	ip, r0, ip, asr #25
    1ac4:	081e0000 	ldmdaeq	lr, {}	; <UNPREDICTABLE>
    1ac8:	2525f720 	strcs	pc, [r5, #-1824]!	; 0x720
    1acc:	25332cf7 	ldrcs	r2, [r3, #-3319]!	; 0xcf7
    1ad0:	0000889f 	muleq	r0, pc, r8	; <UNPREDICTABLE>
    1ad4:	00008c00 	andeq	r8, r0, r0, lsl #24
    1ad8:	53000100 	movwpl	r0, #256	; 0x100
    1adc:	0000008c 	andeq	r0, r0, ip, lsl #1
    1ae0:	00000090 	muleq	r0, r0, r0
    1ae4:	0070001c 	rsbseq	r0, r0, ip, lsl r0
    1ae8:	25f72cf7 	ldrbcs	r2, [r7, #3319]!	; 0xcf7
    1aec:	cd0825f4 	cfstr32gt	mvfx2, [r8, #-976]	; 0xfffffc30
    1af0:	00cccccc 	sbceq	ip, ip, ip, asr #25
    1af4:	1e000000 	cdpne	0, 0, cr0, cr0, cr0, {0}
    1af8:	25f72008 	ldrbcs	r2, [r7, #8]!
    1afc:	332cf725 	msrcc	CPSR_fs, #9699328	; 0x940000
    1b00:	00909f25 	addseq	r9, r0, r5, lsr #30
    1b04:	00980000 	addseq	r0, r8, r0
    1b08:	001c0000 	andseq	r0, ip, r0
    1b0c:	2cf70074 	ldclcs	0, cr0, [r7], #464	; 0x1d0
    1b10:	25f425f7 	ldrbcs	r2, [r4, #1527]!	; 0x5f7
    1b14:	cccccd08 	stclgt	13, cr12, [ip], {8}
    1b18:	000000cc 	andeq	r0, r0, ip, asr #1
    1b1c:	20081e00 	andcs	r1, r8, r0, lsl #28
    1b20:	f72525f7 			; <UNDEFINED> instruction: 0xf72525f7
    1b24:	9f25332c 	svcls	0x0025332c
    1b28:	00000098 	muleq	r0, r8, r0
    1b2c:	0000009c 	muleq	r0, ip, r0
    1b30:	00740017 	rsbseq	r0, r4, r7, lsl r0
    1b34:	25f72cf7 	ldrbcs	r2, [r7, #3319]!	; 0xcf7
    1b38:	2cf70071 	ldclcs	0, cr0, [r7], #452	; 0x1c4
    1b3c:	081e25f7 	ldmdaeq	lr, {r0, r1, r2, r4, r5, r6, r7, r8, sl, sp}
    1b40:	2525f720 	strcs	pc, [r5, #-1824]!	; 0x720
    1b44:	25332cf7 	ldrcs	r2, [r3, #-3319]!	; 0xcf7
    1b48:	00009c9f 	muleq	r0, pc, ip	; <UNPREDICTABLE>
    1b4c:	0000d400 	andeq	sp, r0, r0, lsl #8
    1b50:	74001c00 	strvc	r1, [r0], #-3072	; 0xc00
    1b54:	f72cf700 			; <UNDEFINED> instruction: 0xf72cf700
    1b58:	0825f425 	stmdaeq	r5!, {r0, r2, r5, sl, ip, sp, lr, pc}
    1b5c:	cccccccd 	stclgt	12, cr12, [ip], {205}	; 0xcd
    1b60:	00000000 	andeq	r0, r0, r0
    1b64:	f720081e 			; <UNDEFINED> instruction: 0xf720081e
    1b68:	2cf72525 	cfldr64cs	mvdx2, [r7], #148	; 0x94
    1b6c:	009f2533 	addseq	r2, pc, r3, lsr r5	; <UNPREDICTABLE>
    1b70:	00000000 	andeq	r0, r0, r0
    1b74:	94000000 	strls	r0, [r0], #-0
    1b78:	b8000000 	stmdalt	r0, {}	; <UNPREDICTABLE>
    1b7c:	01000000 	mrseq	r0, (UNDEF: 0)
    1b80:	00b85000 	adcseq	r5, r8, r0
    1b84:	00c40000 	sbceq	r0, r4, r0
    1b88:	00080000 	andeq	r0, r8, r0
    1b8c:	24007131 	strcs	r7, [r0], #-305	; 0x131
    1b90:	9f210073 	svcls	0x00210073
    1b94:	000000c4 	andeq	r0, r0, r4, asr #1
    1b98:	000000c7 	andeq	r0, r0, r7, asr #1
    1b9c:	00510001 	subseq	r0, r1, r1
    1ba0:	00000000 	andeq	r0, r0, r0
    1ba4:	d4000000 	strle	r0, [r0], #-0
    1ba8:	f8000000 			; <UNDEFINED> instruction: 0xf8000000
    1bac:	01000000 	mrseq	r0, (UNDEF: 0)
    1bb0:	00f85000 	rscseq	r5, r8, r0
    1bb4:	010c0000 	mrseq	r0, (UNDEF: 12)
    1bb8:	00040000 	andeq	r0, r4, r0
    1bbc:	9f5001f3 	svcls	0x005001f3
	...
    1bc8:	000000e0 	andeq	r0, r0, r0, ror #1
    1bcc:	000000e8 	andeq	r0, r0, r8, ror #1
    1bd0:	9f300002 	svcls	0x00300002
    1bd4:	000000e8 	andeq	r0, r0, r8, ror #1
    1bd8:	000000e8 	andeq	r0, r0, r8, ror #1
    1bdc:	e8520001 	ldmda	r2, {r0}^
    1be0:	f0000000 			; <UNDEFINED> instruction: 0xf0000000
    1be4:	02000000 	andeq	r0, r0, #0
    1be8:	f09f3000 			; <UNDEFINED> instruction: 0xf09f3000
    1bec:	03000000 	movweq	r0, #0
    1bf0:	01000001 	tsteq	r0, r1
    1bf4:	00005200 	andeq	r5, r0, r0, lsl #4
    1bf8:	00000000 	andeq	r0, r0, r0
    1bfc:	00e00000 	rsceq	r0, r0, r0
    1c00:	00f40000 	rscseq	r0, r4, r0
    1c04:	00020000 	andeq	r0, r2, r0
    1c08:	00f49f30 	rscseq	r9, r4, r0, lsr pc
    1c0c:	01000000 	mrseq	r0, (UNDEF: 0)
    1c10:	00050000 	andeq	r0, r5, r0
    1c14:	24007331 	strcs	r7, [r0], #-817	; 0x331
    1c18:	0001009f 	muleq	r1, pc, r0	; <UNPREDICTABLE>
    1c1c:	00010300 	andeq	r0, r1, r0, lsl #6
    1c20:	51000100 	mrspl	r0, (UNDEF: 16)
    1c24:	00000103 	andeq	r0, r0, r3, lsl #2
    1c28:	0000010c 	andeq	r0, r0, ip, lsl #2
    1c2c:	f3310008 	vhadd.u<illegal width 64>	d0, d1, d8
    1c30:	1a4f5001 	bne	13d5c3c <__bss_end__+0x13cbcb4>
    1c34:	00009f24 	andeq	r9, r0, r4, lsr #30
    1c38:	00000000 	andeq	r0, r0, r0
    1c3c:	010c0000 	mrseq	r0, (UNDEF: 12)
    1c40:	01300000 	teqeq	r0, r0
    1c44:	00010000 	andeq	r0, r1, r0
    1c48:	00013050 	andeq	r3, r1, r0, asr r0
    1c4c:	00014400 	andeq	r4, r1, r0, lsl #8
    1c50:	f3000400 	vshl.u8	d0, d0, d0
    1c54:	009f5001 	addseq	r5, pc, r1
    1c58:	00000000 	andeq	r0, r0, r0
    1c5c:	18000000 	stmdane	r0, {}	; <UNPREDICTABLE>
    1c60:	20000001 	andcs	r0, r0, r1
    1c64:	02000001 	andeq	r0, r0, #1
    1c68:	209f3000 	addscs	r3, pc, r0
    1c6c:	20000001 	andcs	r0, r0, r1
    1c70:	01000001 	tsteq	r0, r1
    1c74:	01205200 	teqeq	r0, r0, lsl #4
    1c78:	01280000 	teqeq	r8, r0
    1c7c:	00020000 	andeq	r0, r2, r0
    1c80:	01289f30 	teqeq	r8, r0, lsr pc
    1c84:	013b0000 	teqeq	fp, r0
    1c88:	00010000 	andeq	r0, r1, r0
    1c8c:	00000052 	andeq	r0, r0, r2, asr r0
    1c90:	00000000 	andeq	r0, r0, r0
    1c94:	00011800 	andeq	r1, r1, r0, lsl #16
    1c98:	00012c00 	andeq	r2, r1, r0, lsl #24
    1c9c:	30000200 	andcc	r0, r0, r0, lsl #4
    1ca0:	00012c9f 	muleq	r1, pc, ip	; <UNPREDICTABLE>
    1ca4:	00013800 	andeq	r3, r1, r0, lsl #16
    1ca8:	31000500 	tstcc	r0, r0, lsl #10
    1cac:	9f240073 	svcls	0x00240073
    1cb0:	00000138 	andeq	r0, r0, r8, lsr r1
    1cb4:	0000013b 	andeq	r0, r0, fp, lsr r1
    1cb8:	3b510001 	blcc	1441cc4 <__bss_end__+0x1437d3c>
    1cbc:	44000001 	strmi	r0, [r0], #-1
    1cc0:	08000001 	stmdaeq	r0, {r0}
    1cc4:	01f33100 	mvnseq	r3, r0, lsl #2
    1cc8:	241a4f50 	ldrcs	r4, [sl], #-3920	; 0xf50
    1ccc:	0000009f 	muleq	r0, pc, r0	; <UNPREDICTABLE>
    1cd0:	00000000 	andeq	r0, r0, r0
    1cd4:	00014400 	andeq	r4, r1, r0, lsl #8
    1cd8:	0001d400 	andeq	sp, r1, r0, lsl #8
    1cdc:	50000100 	andpl	r0, r0, r0, lsl #2
    1ce0:	000001d4 	ldrdeq	r0, [r0], -r4
    1ce4:	00000210 	andeq	r0, r0, r0, lsl r2
    1ce8:	00540001 	subseq	r0, r4, r1
    1cec:	00000000 	andeq	r0, r0, r0
    1cf0:	8c000000 	stchi	0, cr0, [r0], {-0}
    1cf4:	90000001 	andls	r0, r0, r1
    1cf8:	01000001 	tsteq	r0, r1
    1cfc:	01985500 	orrseq	r5, r8, r0, lsl #10
    1d00:	019c0000 	orrseq	r0, ip, r0
    1d04:	00010000 	andeq	r0, r1, r0
    1d08:	0001a455 	andeq	sl, r1, r5, asr r4
    1d0c:	0001a800 	andeq	sl, r1, r0, lsl #16
    1d10:	55000100 	strpl	r0, [r0, #-256]	; 0x100
    1d14:	000001b0 			; <UNDEFINED> instruction: 0x000001b0
    1d18:	000001b4 			; <UNDEFINED> instruction: 0x000001b4
    1d1c:	bc550001 	mrrclt	0, 0, r0, r5, cr1
    1d20:	c0000001 	andgt	r0, r0, r1
    1d24:	01000001 	tsteq	r0, r1
    1d28:	01c85500 	biceq	r5, r8, r0, lsl #10
    1d2c:	01cc0000 	biceq	r0, ip, r0
    1d30:	00010000 	andeq	r0, r1, r0
    1d34:	0001d055 	andeq	sp, r1, r5, asr r0
    1d38:	00021000 	andeq	r1, r2, r0
    1d3c:	55000100 	strpl	r0, [r0, #-256]	; 0x100
	...
    1d48:	00000160 	andeq	r0, r0, r0, ror #2
    1d4c:	00000188 	andeq	r0, r0, r8, lsl #3
    1d50:	88530001 	ldmdahi	r3, {r0}^
    1d54:	90000001 	andls	r0, r0, r1
    1d58:	1c000001 	stcne	0, cr0, [r0], {1}
    1d5c:	f7007000 			; <UNDEFINED> instruction: 0xf7007000
    1d60:	f425f72c 	vld1.8	{d15}, [r5 :128], ip
    1d64:	cccd0825 	stclgt	8, cr0, [sp], {37}	; 0x25
    1d68:	0000cccc 	andeq	ip, r0, ip, asr #25
    1d6c:	081e0000 	ldmdaeq	lr, {}	; <UNPREDICTABLE>
    1d70:	2525f720 	strcs	pc, [r5, #-1824]!	; 0x720
    1d74:	25332cf7 	ldrcs	r2, [r3, #-3319]!	; 0xcf7
    1d78:	0001909f 	muleq	r1, pc, r0	; <UNPREDICTABLE>
    1d7c:	00019400 	andeq	r9, r1, r0, lsl #8
    1d80:	53000100 	movwpl	r0, #256	; 0x100
    1d84:	00000194 	muleq	r0, r4, r1
    1d88:	0000019c 	muleq	r0, ip, r1
    1d8c:	0070001c 	rsbseq	r0, r0, ip, lsl r0
    1d90:	25f72cf7 	ldrbcs	r2, [r7, #3319]!	; 0xcf7
    1d94:	cd0825f4 	cfstr32gt	mvfx2, [r8, #-976]	; 0xfffffc30
    1d98:	00cccccc 	sbceq	ip, ip, ip, asr #25
    1d9c:	1e000000 	cdpne	0, 0, cr0, cr0, cr0, {0}
    1da0:	25f72008 	ldrbcs	r2, [r7, #8]!
    1da4:	332cf725 	msrcc	CPSR_fs, #9699328	; 0x940000
    1da8:	019c9f25 	orrseq	r9, ip, r5, lsr #30
    1dac:	01a00000 	moveq	r0, r0
    1db0:	00010000 	andeq	r0, r1, r0
    1db4:	0001a053 	andeq	sl, r1, r3, asr r0
    1db8:	0001a800 	andeq	sl, r1, r0, lsl #16
    1dbc:	70001c00 	andvc	r1, r0, r0, lsl #24
    1dc0:	f72cf700 			; <UNDEFINED> instruction: 0xf72cf700
    1dc4:	0825f425 	stmdaeq	r5!, {r0, r2, r5, sl, ip, sp, lr, pc}
    1dc8:	cccccccd 	stclgt	12, cr12, [ip], {205}	; 0xcd
    1dcc:	00000000 	andeq	r0, r0, r0
    1dd0:	f720081e 			; <UNDEFINED> instruction: 0xf720081e
    1dd4:	2cf72525 	cfldr64cs	mvdx2, [r7], #148	; 0x94
    1dd8:	a89f2533 	ldmge	pc, {r0, r1, r4, r5, r8, sl, sp}	; <UNPREDICTABLE>
    1ddc:	ac000001 	stcge	0, cr0, [r0], {1}
    1de0:	01000001 	tsteq	r0, r1
    1de4:	01ac5300 			; <UNDEFINED> instruction: 0x01ac5300
    1de8:	01b40000 			; <UNDEFINED> instruction: 0x01b40000
    1dec:	001c0000 	andseq	r0, ip, r0
    1df0:	2cf70070 	ldclcs	0, cr0, [r7], #448	; 0x1c0
    1df4:	25f425f7 	ldrbcs	r2, [r4, #1527]!	; 0x5f7
    1df8:	cccccd08 	stclgt	13, cr12, [ip], {8}
    1dfc:	000000cc 	andeq	r0, r0, ip, asr #1
    1e00:	20081e00 	andcs	r1, r8, r0, lsl #28
    1e04:	f72525f7 			; <UNDEFINED> instruction: 0xf72525f7
    1e08:	9f25332c 	svcls	0x0025332c
    1e0c:	000001b4 			; <UNDEFINED> instruction: 0x000001b4
    1e10:	000001b8 			; <UNDEFINED> instruction: 0x000001b8
    1e14:	b8530001 	ldmdalt	r3, {r0}^
    1e18:	c0000001 	andgt	r0, r0, r1
    1e1c:	1c000001 	stcne	0, cr0, [r0], {1}
    1e20:	f7007000 			; <UNDEFINED> instruction: 0xf7007000
    1e24:	f425f72c 	vld1.8	{d15}, [r5 :128], ip
    1e28:	cccd0825 	stclgt	8, cr0, [sp], {37}	; 0x25
    1e2c:	0000cccc 	andeq	ip, r0, ip, asr #25
    1e30:	081e0000 	ldmdaeq	lr, {}	; <UNPREDICTABLE>
    1e34:	2525f720 	strcs	pc, [r5, #-1824]!	; 0x720
    1e38:	25332cf7 	ldrcs	r2, [r3, #-3319]!	; 0xcf7
    1e3c:	0001c09f 	muleq	r1, pc, r0	; <UNPREDICTABLE>
    1e40:	0001c400 	andeq	ip, r1, r0, lsl #8
    1e44:	53000100 	movwpl	r0, #256	; 0x100
    1e48:	000001c4 	andeq	r0, r0, r4, asr #3
    1e4c:	000001cc 	andeq	r0, r0, ip, asr #3
    1e50:	0070001c 	rsbseq	r0, r0, ip, lsl r0
    1e54:	25f72cf7 	ldrbcs	r2, [r7, #3319]!	; 0xcf7
    1e58:	cd0825f4 	cfstr32gt	mvfx2, [r8, #-976]	; 0xfffffc30
    1e5c:	00cccccc 	sbceq	ip, ip, ip, asr #25
    1e60:	1e000000 	cdpne	0, 0, cr0, cr0, cr0, {0}
    1e64:	25f72008 	ldrbcs	r2, [r7, #8]!
    1e68:	332cf725 	msrcc	CPSR_fs, #9699328	; 0x940000
    1e6c:	01cc9f25 	biceq	r9, ip, r5, lsr #30
    1e70:	01d00000 	bicseq	r0, r0, r0
    1e74:	00010000 	andeq	r0, r1, r0
    1e78:	0001d053 	andeq	sp, r1, r3, asr r0
    1e7c:	0001d400 	andeq	sp, r1, r0, lsl #8
    1e80:	70001c00 	andvc	r1, r0, r0, lsl #24
    1e84:	f72cf700 			; <UNDEFINED> instruction: 0xf72cf700
    1e88:	0825f425 	stmdaeq	r5!, {r0, r2, r5, sl, ip, sp, lr, pc}
    1e8c:	cccccccd 	stclgt	12, cr12, [ip], {205}	; 0xcd
    1e90:	00000000 	andeq	r0, r0, r0
    1e94:	f720081e 			; <UNDEFINED> instruction: 0xf720081e
    1e98:	2cf72525 	cfldr64cs	mvdx2, [r7], #148	; 0x94
    1e9c:	d49f2533 	ldrle	r2, [pc], #1331	; 1ea4 <_start-0x615c>
    1ea0:	dc000001 	stcle	0, cr0, [r0], {1}
    1ea4:	1c000001 	stcne	0, cr0, [r0], {1}
    1ea8:	f7007400 			; <UNDEFINED> instruction: 0xf7007400
    1eac:	f425f72c 	vld1.8	{d15}, [r5 :128], ip
    1eb0:	cccd0825 	stclgt	8, cr0, [sp], {37}	; 0x25
    1eb4:	0000cccc 	andeq	ip, r0, ip, asr #25
    1eb8:	081e0000 	ldmdaeq	lr, {}	; <UNPREDICTABLE>
    1ebc:	2525f720 	strcs	pc, [r5, #-1824]!	; 0x720
    1ec0:	25332cf7 	ldrcs	r2, [r3, #-3319]!	; 0xcf7
    1ec4:	0001dc9f 	muleq	r1, pc, ip	; <UNPREDICTABLE>
    1ec8:	0001e000 	andeq	lr, r1, r0
    1ecc:	74001700 	strvc	r1, [r0], #-1792	; 0x700
    1ed0:	f72cf700 			; <UNDEFINED> instruction: 0xf72cf700
    1ed4:	f7007125 			; <UNDEFINED> instruction: 0xf7007125
    1ed8:	1e25f72c 	cdpne	7, 2, cr15, cr5, cr12, {1}
    1edc:	25f72008 	ldrbcs	r2, [r7, #8]!
    1ee0:	332cf725 	msrcc	CPSR_fs, #9699328	; 0x940000
    1ee4:	01e09f25 	mvneq	r9, r5, lsr #30
    1ee8:	02100000 	andseq	r0, r0, #0
    1eec:	001c0000 	andseq	r0, ip, r0
    1ef0:	2cf70074 	ldclcs	0, cr0, [r7], #464	; 0x1d0
    1ef4:	25f425f7 	ldrbcs	r2, [r4, #1527]!	; 0x5f7
    1ef8:	cccccd08 	stclgt	13, cr12, [ip], {8}
    1efc:	000000cc 	andeq	r0, r0, ip, asr #1
    1f00:	20081e00 	andcs	r1, r8, r0, lsl #28
    1f04:	f72525f7 			; <UNDEFINED> instruction: 0xf72525f7
    1f08:	9f25332c 	svcls	0x0025332c
	...
    1f14:	000001d8 	ldrdeq	r0, [r0], -r8
    1f18:	000001fc 	strdeq	r0, [r0], -ip
    1f1c:	fc500001 	mrrc2	0, 0, r0, r0, cr1	; <UNPREDICTABLE>
    1f20:	03000001 	movweq	r0, #1
    1f24:	01000002 	tsteq	r0, r2
    1f28:	00005100 	andeq	r5, r0, r0, lsl #2
    1f2c:	00000000 	andeq	r0, r0, r0
    1f30:	02100000 	andseq	r0, r0, #0
    1f34:	022c0000 	eoreq	r0, ip, #0
    1f38:	00010000 	andeq	r0, r1, r0
    1f3c:	00022c50 	andeq	r2, r2, r0, asr ip
    1f40:	00023400 	andeq	r3, r2, r0, lsl #8
    1f44:	54000100 	strpl	r0, [r0], #-256	; 0x100
    1f48:	00000234 	andeq	r0, r0, r4, lsr r2
    1f4c:	0000023c 	andeq	r0, r0, ip, lsr r2
    1f50:	3c500001 	mrrccc	0, 0, r0, r0, cr1	; <UNPREDICTABLE>
    1f54:	44000002 	strmi	r0, [r0], #-2
    1f58:	01000002 	tsteq	r0, r2
    1f5c:	02445400 	subeq	r5, r4, #0, 8
    1f60:	02500000 	subseq	r0, r0, #0
    1f64:	00040000 	andeq	r0, r4, r0
    1f68:	9f5001f3 	svcls	0x005001f3
    1f6c:	00000250 	andeq	r0, r0, r0, asr r2
    1f70:	00000254 	andeq	r0, r0, r4, asr r2
    1f74:	54500001 	ldrbpl	r0, [r0], #-1
    1f78:	5c000002 	stcpl	0, cr0, [r0], {2}
    1f7c:	01000002 	tsteq	r0, r2
    1f80:	00005400 	andeq	r5, r0, r0, lsl #8
    1f84:	00000000 	andeq	r0, r0, r0
    1f88:	02200000 	eoreq	r0, r0, #0
    1f8c:	02300000 	eorseq	r0, r0, #0
    1f90:	00020000 	andeq	r0, r2, r0
    1f94:	02309f30 	eorseq	r9, r0, #48, 30	; 0xc0
    1f98:	02340000 	eorseq	r0, r4, #0
    1f9c:	00010000 	andeq	r0, r1, r0
    1fa0:	00023450 	andeq	r3, r2, r0, asr r4
    1fa4:	00024000 	andeq	r4, r2, r0
    1fa8:	30000200 	andcc	r0, r0, r0, lsl #4
    1fac:	0002409f 	muleq	r2, pc, r0	; <UNPREDICTABLE>
    1fb0:	00024c00 	andeq	r4, r2, r0, lsl #24
    1fb4:	50000100 	andpl	r0, r0, r0, lsl #2
	...
    1fc0:	0000025c 	andeq	r0, r0, ip, asr r2
    1fc4:	00000273 	andeq	r0, r0, r3, ror r2
    1fc8:	73500001 	cmpvc	r0, #1
    1fcc:	78000002 	stmdavc	r0, {r1}
    1fd0:	04000002 	streq	r0, [r0], #-2
    1fd4:	5001f300 	andpl	pc, r1, r0, lsl #6
    1fd8:	0002789f 	muleq	r2, pc, r8	; <UNPREDICTABLE>
    1fdc:	00027b00 	andeq	r7, r2, r0, lsl #22
    1fe0:	50000100 	andpl	r0, r0, r0, lsl #2
    1fe4:	0000027b 	andeq	r0, r0, fp, ror r2
    1fe8:	00000280 	andeq	r0, r0, r0, lsl #5
    1fec:	01f30004 	mvnseq	r0, r4
    1ff0:	00009f50 	andeq	r9, r0, r0, asr pc
    1ff4:	00000000 	andeq	r0, r0, r0
    1ff8:	025c0000 	subseq	r0, ip, #0
    1ffc:	02730000 	rsbseq	r0, r3, #0
    2000:	00010000 	andeq	r0, r1, r0
    2004:	00027351 	andeq	r7, r2, r1, asr r3
    2008:	00027800 	andeq	r7, r2, r0, lsl #16
    200c:	f3000400 	vshl.u8	d0, d0, d0
    2010:	789f5101 	ldmvc	pc, {r0, r8, ip, lr}	; <UNPREDICTABLE>
    2014:	7b000002 	blvc	2024 <_start-0x5fdc>
    2018:	01000002 	tsteq	r0, r2
    201c:	027b5100 	rsbseq	r5, fp, #0, 2
    2020:	02800000 	addeq	r0, r0, #0
    2024:	00040000 	andeq	r0, r4, r0
    2028:	9f5101f3 	svcls	0x005101f3
	...
    2034:	00000280 	andeq	r0, r0, r0, lsl #5
    2038:	00000318 	andeq	r0, r0, r8, lsl r3
    203c:	18500001 	ldmdane	r0, {r0}^
    2040:	58000003 	stmdapl	r0, {r0, r1}
    2044:	01000003 	tsteq	r0, r3
    2048:	00005400 	andeq	r5, r0, r0, lsl #8
    204c:	00000000 	andeq	r0, r0, r0
    2050:	02800000 	addeq	r0, r0, #0
    2054:	031b0000 	tsteq	fp, #0
    2058:	00010000 	andeq	r0, r1, r0
    205c:	00031b51 	andeq	r1, r3, r1, asr fp
    2060:	00035800 	andeq	r5, r3, r0, lsl #16
    2064:	f3000400 	vshl.u8	d0, d0, d0
    2068:	009f5101 	addseq	r5, pc, r1, lsl #2
    206c:	00000000 	andeq	r0, r0, r0
    2070:	d0000000 	andle	r0, r0, r0
    2074:	d4000002 	strle	r0, [r0], #-2
    2078:	01000002 	tsteq	r0, r2
    207c:	02dc5600 	sbcseq	r5, ip, #0, 12
    2080:	02e00000 	rsceq	r0, r0, #0
    2084:	00010000 	andeq	r0, r1, r0
    2088:	0002e856 	andeq	lr, r2, r6, asr r8
    208c:	0002ec00 	andeq	lr, r2, r0, lsl #24
    2090:	56000100 	strpl	r0, [r0], -r0, lsl #2
    2094:	000002f4 	strdeq	r0, [r0], -r4
    2098:	000002f8 	strdeq	r0, [r0], -r8
    209c:	00560001 	subseq	r0, r6, r1
    20a0:	04000003 	streq	r0, [r0], #-3
    20a4:	01000003 	tsteq	r0, r3
    20a8:	030c5600 	movweq	r5, #50688	; 0xc600
    20ac:	03100000 	tsteq	r0, #0
    20b0:	00010000 	andeq	r0, r1, r0
    20b4:	00031456 	andeq	r1, r3, r6, asr r4
    20b8:	00035800 	andeq	r5, r3, r0, lsl #16
    20bc:	56000100 	strpl	r0, [r0], -r0, lsl #2
	...
    20c8:	000002a4 	andeq	r0, r0, r4, lsr #5
    20cc:	000002cc 	andeq	r0, r0, ip, asr #5
    20d0:	cc530001 	mrrcgt	0, 0, r0, r3, cr1
    20d4:	d4000002 	strle	r0, [r0], #-2
    20d8:	1c000002 	stcne	0, cr0, [r0], {2}
    20dc:	f7007000 			; <UNDEFINED> instruction: 0xf7007000
    20e0:	f425f72c 	vld1.8	{d15}, [r5 :128], ip
    20e4:	cccd0825 	stclgt	8, cr0, [sp], {37}	; 0x25
    20e8:	0000cccc 	andeq	ip, r0, ip, asr #25
    20ec:	081e0000 	ldmdaeq	lr, {}	; <UNPREDICTABLE>
    20f0:	2525f720 	strcs	pc, [r5, #-1824]!	; 0x720
    20f4:	25332cf7 	ldrcs	r2, [r3, #-3319]!	; 0xcf7
    20f8:	0002d49f 	muleq	r2, pc, r4	; <UNPREDICTABLE>
    20fc:	0002d800 	andeq	sp, r2, r0, lsl #16
    2100:	53000100 	movwpl	r0, #256	; 0x100
    2104:	000002d8 	ldrdeq	r0, [r0], -r8
    2108:	000002e0 	andeq	r0, r0, r0, ror #5
    210c:	0070001c 	rsbseq	r0, r0, ip, lsl r0
    2110:	25f72cf7 	ldrbcs	r2, [r7, #3319]!	; 0xcf7
    2114:	cd0825f4 	cfstr32gt	mvfx2, [r8, #-976]	; 0xfffffc30
    2118:	00cccccc 	sbceq	ip, ip, ip, asr #25
    211c:	1e000000 	cdpne	0, 0, cr0, cr0, cr0, {0}
    2120:	25f72008 	ldrbcs	r2, [r7, #8]!
    2124:	332cf725 	msrcc	CPSR_fs, #9699328	; 0x940000
    2128:	02e09f25 	rsceq	r9, r0, #37, 30	; 0x94
    212c:	02e40000 	rsceq	r0, r4, #0
    2130:	00010000 	andeq	r0, r1, r0
    2134:	0002e453 	andeq	lr, r2, r3, asr r4
    2138:	0002ec00 	andeq	lr, r2, r0, lsl #24
    213c:	70001c00 	andvc	r1, r0, r0, lsl #24
    2140:	f72cf700 			; <UNDEFINED> instruction: 0xf72cf700
    2144:	0825f425 	stmdaeq	r5!, {r0, r2, r5, sl, ip, sp, lr, pc}
    2148:	cccccccd 	stclgt	12, cr12, [ip], {205}	; 0xcd
    214c:	00000000 	andeq	r0, r0, r0
    2150:	f720081e 			; <UNDEFINED> instruction: 0xf720081e
    2154:	2cf72525 	cfldr64cs	mvdx2, [r7], #148	; 0x94
    2158:	ec9f2533 	cfldr32	mvfx2, [pc], {51}	; 0x33
    215c:	f0000002 			; <UNDEFINED> instruction: 0xf0000002
    2160:	01000002 	tsteq	r0, r2
    2164:	02f05300 	rscseq	r5, r0, #0, 6
    2168:	02f80000 	rscseq	r0, r8, #0
    216c:	001c0000 	andseq	r0, ip, r0
    2170:	2cf70070 	ldclcs	0, cr0, [r7], #448	; 0x1c0
    2174:	25f425f7 	ldrbcs	r2, [r4, #1527]!	; 0x5f7
    2178:	cccccd08 	stclgt	13, cr12, [ip], {8}
    217c:	000000cc 	andeq	r0, r0, ip, asr #1
    2180:	20081e00 	andcs	r1, r8, r0, lsl #28
    2184:	f72525f7 			; <UNDEFINED> instruction: 0xf72525f7
    2188:	9f25332c 	svcls	0x0025332c
    218c:	000002f8 	strdeq	r0, [r0], -r8
    2190:	000002fc 	strdeq	r0, [r0], -ip
    2194:	fc530001 	mrrc2	0, 0, r0, r3, cr1
    2198:	04000002 	streq	r0, [r0], #-2
    219c:	1c000003 	stcne	0, cr0, [r0], {3}
    21a0:	f7007000 			; <UNDEFINED> instruction: 0xf7007000
    21a4:	f425f72c 	vld1.8	{d15}, [r5 :128], ip
    21a8:	cccd0825 	stclgt	8, cr0, [sp], {37}	; 0x25
    21ac:	0000cccc 	andeq	ip, r0, ip, asr #25
    21b0:	081e0000 	ldmdaeq	lr, {}	; <UNPREDICTABLE>
    21b4:	2525f720 	strcs	pc, [r5, #-1824]!	; 0x720
    21b8:	25332cf7 	ldrcs	r2, [r3, #-3319]!	; 0xcf7
    21bc:	0003049f 	muleq	r3, pc, r4	; <UNPREDICTABLE>
    21c0:	00030800 	andeq	r0, r3, r0, lsl #16
    21c4:	53000100 	movwpl	r0, #256	; 0x100
    21c8:	00000308 	andeq	r0, r0, r8, lsl #6
    21cc:	00000310 	andeq	r0, r0, r0, lsl r3
    21d0:	0070001c 	rsbseq	r0, r0, ip, lsl r0
    21d4:	25f72cf7 	ldrbcs	r2, [r7, #3319]!	; 0xcf7
    21d8:	cd0825f4 	cfstr32gt	mvfx2, [r8, #-976]	; 0xfffffc30
    21dc:	00cccccc 	sbceq	ip, ip, ip, asr #25
    21e0:	1e000000 	cdpne	0, 0, cr0, cr0, cr0, {0}
    21e4:	25f72008 	ldrbcs	r2, [r7, #8]!
    21e8:	332cf725 	msrcc	CPSR_fs, #9699328	; 0x940000
    21ec:	03109f25 	tsteq	r0, #37, 30	; 0x94
    21f0:	03140000 	tsteq	r4, #0
    21f4:	00010000 	andeq	r0, r1, r0
    21f8:	00031453 	andeq	r1, r3, r3, asr r4
    21fc:	00031800 	andeq	r1, r3, r0, lsl #16
    2200:	70001c00 	andvc	r1, r0, r0, lsl #24
    2204:	f72cf700 			; <UNDEFINED> instruction: 0xf72cf700
    2208:	0825f425 	stmdaeq	r5!, {r0, r2, r5, sl, ip, sp, lr, pc}
    220c:	cccccccd 	stclgt	12, cr12, [ip], {205}	; 0xcd
    2210:	00000000 	andeq	r0, r0, r0
    2214:	f720081e 			; <UNDEFINED> instruction: 0xf720081e
    2218:	2cf72525 	cfldr64cs	mvdx2, [r7], #148	; 0x94
    221c:	189f2533 	ldmne	pc, {r0, r1, r4, r5, r8, sl, sp}	; <UNPREDICTABLE>
    2220:	20000003 	andcs	r0, r0, r3
    2224:	1c000003 	stcne	0, cr0, [r0], {3}
    2228:	f7007400 			; <UNDEFINED> instruction: 0xf7007400
    222c:	f425f72c 	vld1.8	{d15}, [r5 :128], ip
    2230:	cccd0825 	stclgt	8, cr0, [sp], {37}	; 0x25
    2234:	0000cccc 	andeq	ip, r0, ip, asr #25
    2238:	081e0000 	ldmdaeq	lr, {}	; <UNPREDICTABLE>
    223c:	2525f720 	strcs	pc, [r5, #-1824]!	; 0x720
    2240:	25332cf7 	ldrcs	r2, [r3, #-3319]!	; 0xcf7
    2244:	0003209f 	muleq	r3, pc, r0	; <UNPREDICTABLE>
    2248:	00032400 	andeq	r2, r3, r0, lsl #8
    224c:	74001700 	strvc	r1, [r0], #-1792	; 0x700
    2250:	f72cf700 			; <UNDEFINED> instruction: 0xf72cf700
    2254:	f7007325 			; <UNDEFINED> instruction: 0xf7007325
    2258:	1e25f72c 	cdpne	7, 2, cr15, cr5, cr12, {1}
    225c:	25f72008 	ldrbcs	r2, [r7, #8]!
    2260:	332cf725 	msrcc	CPSR_fs, #9699328	; 0x940000
    2264:	03249f25 	teqeq	r4, #37, 30	; 0x94
    2268:	03580000 	cmpeq	r8, #0
    226c:	001c0000 	andseq	r0, ip, r0
    2270:	2cf70074 	ldclcs	0, cr0, [r7], #464	; 0x1d0
    2274:	25f425f7 	ldrbcs	r2, [r4, #1527]!	; 0x5f7
    2278:	cccccd08 	stclgt	13, cr12, [ip], {8}
    227c:	000000cc 	andeq	r0, r0, ip, asr #1
    2280:	20081e00 	andcs	r1, r8, r0, lsl #28
    2284:	f72525f7 			; <UNDEFINED> instruction: 0xf72525f7
    2288:	9f25332c 	svcls	0x0025332c
	...
    2294:	0000031c 	andeq	r0, r0, ip, lsl r3
    2298:	00000340 	andeq	r0, r0, r0, asr #6
    229c:	40500001 	subsmi	r0, r0, r1
    22a0:	48000003 	stmdami	r0, {r0, r1}
    22a4:	09000003 	stmdbeq	r0, {r0, r1}
    22a8:	73007500 	movwvc	r7, #1280	; 0x500
    22ac:	00712400 	rsbseq	r2, r1, r0, lsl #8
    22b0:	03489f21 	movteq	r9, #36641	; 0x8f21
    22b4:	034b0000 	movteq	r0, #45056	; 0xb000
    22b8:	00010000 	andeq	r0, r1, r0
    22bc:	00000051 	andeq	r0, r0, r1, asr r0
    22c0:	00000000 	andeq	r0, r0, r0
    22c4:	00035800 	andeq	r5, r3, r0, lsl #16
    22c8:	00037c00 	andeq	r7, r3, r0, lsl #24
    22cc:	50000100 	andpl	r0, r0, r0, lsl #2
    22d0:	0000037c 	andeq	r0, r0, ip, ror r3
    22d4:	00000390 	muleq	r0, r0, r3
    22d8:	01f30004 	mvnseq	r0, r4
    22dc:	00009f50 	andeq	r9, r0, r0, asr pc
    22e0:	00000000 	andeq	r0, r0, r0
    22e4:	03640000 	cmneq	r4, #0
    22e8:	036c0000 	cmneq	ip, #0
    22ec:	00020000 	andeq	r0, r2, r0
    22f0:	036c9f30 	cmneq	ip, #48, 30	; 0xc0
    22f4:	036c0000 	cmneq	ip, #0
    22f8:	00010000 	andeq	r0, r1, r0
    22fc:	00036c52 	andeq	r6, r3, r2, asr ip
    2300:	00037400 	andeq	r7, r3, r0, lsl #8
    2304:	30000200 	andcc	r0, r0, r0, lsl #4
    2308:	0003749f 	muleq	r3, pc, r4	; <UNPREDICTABLE>
    230c:	00038700 	andeq	r8, r3, r0, lsl #14
    2310:	52000100 	andpl	r0, r0, #0, 2
	...
    231c:	00000364 	andeq	r0, r0, r4, ror #6
    2320:	00000378 	andeq	r0, r0, r8, ror r3
    2324:	9f300002 	svcls	0x00300002
    2328:	00000378 	andeq	r0, r0, r8, ror r3
    232c:	00000384 	andeq	r0, r0, r4, lsl #7
    2330:	73310005 	teqvc	r1, #5
    2334:	849f2400 	ldrhi	r2, [pc], #1024	; 233c <_start-0x5cc4>
    2338:	87000003 	strhi	r0, [r0, -r3]
    233c:	01000003 	tsteq	r0, r3
    2340:	03875100 	orreq	r5, r7, #0, 2
    2344:	03900000 	orrseq	r0, r0, #0
    2348:	00080000 	andeq	r0, r8, r0
    234c:	5001f331 	andpl	pc, r1, r1, lsr r3	; <UNPREDICTABLE>
    2350:	9f241a4f 	svcls	0x00241a4f
	...
    235c:	00000390 	muleq	r0, r0, r3
    2360:	0000039c 	muleq	r0, ip, r3
    2364:	9c500001 	mrrcls	0, 0, r0, r0, cr1	; <UNPREDICTABLE>
    2368:	bc000003 	stclt	0, cr0, [r0], {3}
    236c:	04000003 	streq	r0, [r0], #-3
    2370:	5001f300 	andpl	pc, r1, r0, lsl #6
    2374:	0000009f 	muleq	r0, pc, r0	; <UNPREDICTABLE>
    2378:	00000000 	andeq	r0, r0, r0
    237c:	0003bc00 	andeq	fp, r3, r0, lsl #24
    2380:	0003cf00 	andeq	ip, r3, r0, lsl #30
    2384:	50000100 	andpl	r0, r0, r0, lsl #2
    2388:	000003cf 	andeq	r0, r0, pc, asr #7
    238c:	00000408 	andeq	r0, r0, r8, lsl #8
    2390:	08540001 	ldmdaeq	r4, {r0}^
    2394:	40000004 	andmi	r0, r0, r4
    2398:	04000004 	streq	r0, [r0], #-4
    239c:	5001f300 	andpl	pc, r1, r0, lsl #6
    23a0:	0000009f 	muleq	r0, pc, r0	; <UNPREDICTABLE>
    23a4:	00000000 	andeq	r0, r0, r0
    23a8:	00042800 	andeq	r2, r4, r0, lsl #16
    23ac:	00042c00 	andeq	r2, r4, r0, lsl #24
    23b0:	50000100 	andpl	r0, r0, r0, lsl #2
    23b4:	0000042c 	andeq	r0, r0, ip, lsr #8
    23b8:	00000433 	andeq	r0, r0, r3, lsr r4
    23bc:	00510001 	subseq	r0, r1, r1
    23c0:	00000000 	andeq	r0, r0, r0
    23c4:	e4000000 	str	r0, [r0], #-0
    23c8:	ec000003 	stc	0, cr0, [r0], {3}
    23cc:	01000003 	tsteq	r0, r3
    23d0:	03ec5000 	mvneq	r5, #0
    23d4:	03f30000 	mvnseq	r0, #0
    23d8:	00010000 	andeq	r0, r1, r0
    23dc:	00000051 	andeq	r0, r0, r1, asr r0
    23e0:	00000000 	andeq	r0, r0, r0
    23e4:	00040400 	andeq	r0, r4, r0, lsl #8
    23e8:	00041000 	andeq	r1, r4, r0
    23ec:	50000100 	andpl	r0, r0, r0, lsl #2
    23f0:	00000410 	andeq	r0, r0, r0, lsl r4
    23f4:	00000417 	andeq	r0, r0, r7, lsl r4
    23f8:	00510001 	subseq	r0, r1, r1
    23fc:	00000000 	andeq	r0, r0, r0
    2400:	40000000 	andmi	r0, r0, r0
    2404:	53000004 	movwpl	r0, #4
    2408:	01000004 	tsteq	r0, r4
    240c:	04535000 	ldrbeq	r5, [r3], #-0
    2410:	048c0000 	streq	r0, [ip], #0
    2414:	00010000 	andeq	r0, r1, r0
    2418:	00048c54 	andeq	r8, r4, r4, asr ip
    241c:	0004c400 	andeq	ip, r4, r0, lsl #8
    2420:	f3000400 	vshl.u8	d0, d0, d0
    2424:	009f5001 	addseq	r5, pc, r1
    2428:	00000000 	andeq	r0, r0, r0
    242c:	ac000000 	stcge	0, cr0, [r0], {-0}
    2430:	b0000004 	andlt	r0, r0, r4
    2434:	01000004 	tsteq	r0, r4
    2438:	04b05000 	ldrteq	r5, [r0], #0
    243c:	04b70000 	ldrteq	r0, [r7], #0
    2440:	00010000 	andeq	r0, r1, r0
    2444:	00000051 	andeq	r0, r0, r1, asr r0
    2448:	00000000 	andeq	r0, r0, r0
    244c:	00046800 	andeq	r6, r4, r0, lsl #16
    2450:	00047000 	andeq	r7, r4, r0
    2454:	50000100 	andpl	r0, r0, r0, lsl #2
    2458:	00000470 	andeq	r0, r0, r0, ror r4
    245c:	00000477 	andeq	r0, r0, r7, ror r4
    2460:	00510001 	subseq	r0, r1, r1
    2464:	00000000 	andeq	r0, r0, r0
    2468:	88000000 	stmdahi	r0, {}	; <UNPREDICTABLE>
    246c:	94000004 	strls	r0, [r0], #-4
    2470:	01000004 	tsteq	r0, r4
    2474:	04945000 	ldreq	r5, [r4], #0
    2478:	049b0000 	ldreq	r0, [fp], #0
    247c:	00010000 	andeq	r0, r1, r0
    2480:	00000051 	andeq	r0, r0, r1, asr r0
    2484:	00000000 	andeq	r0, r0, r0
    2488:	0004c400 	andeq	ip, r4, r0, lsl #8
    248c:	0004d700 	andeq	sp, r4, r0, lsl #14
    2490:	50000100 	andpl	r0, r0, r0, lsl #2
    2494:	000004d7 	ldrdeq	r0, [r0], -r7
    2498:	00000518 	andeq	r0, r0, r8, lsl r5
    249c:	18540001 	ldmdane	r4, {r0}^
    24a0:	3c000005 	stccc	0, cr0, [r0], {5}
    24a4:	04000005 	streq	r0, [r0], #-5
    24a8:	5001f300 	andpl	pc, r1, r0, lsl #6
    24ac:	00053c9f 	muleq	r5, pc, ip	; <UNPREDICTABLE>
    24b0:	00054000 	andeq	r4, r5, r0
    24b4:	50000100 	andpl	r0, r0, r0, lsl #2
    24b8:	00000540 	andeq	r0, r0, r0, asr #10
    24bc:	00000548 	andeq	r0, r0, r8, asr #10
    24c0:	00540001 	subseq	r0, r4, r1
    24c4:	00000000 	andeq	r0, r0, r0
    24c8:	ec000000 	stc	0, cr0, [r0], {-0}
    24cc:	fb000004 	blx	24e6 <_start-0x5b1a>
    24d0:	08000004 	stmdaeq	r0, {r2}
    24d4:	00743100 	rsbseq	r3, r4, r0, lsl #2
    24d8:	1a007024 	bne	1e570 <__bss_end__+0x145e8>
    24dc:	0000009f 	muleq	r0, pc, r0	; <UNPREDICTABLE>
    24e0:	00000000 	andeq	r0, r0, r0
    24e4:	00051800 	andeq	r1, r5, r0, lsl #16
    24e8:	00053000 	andeq	r3, r5, r0
    24ec:	54000100 	strpl	r0, [r0], #-256	; 0x100
	...
    24f8:	00000548 	andeq	r0, r0, r8, asr #10
    24fc:	0000055b 	andeq	r0, r0, fp, asr r5
    2500:	5b500001 	blpl	140250c <__bss_end__+0x13f8584>
    2504:	80000005 	andhi	r0, r0, r5
    2508:	01000005 	tsteq	r0, r5
    250c:	05805400 	streq	r5, [r0, #1024]	; 0x400
    2510:	05a00000 	streq	r0, [r0, #0]!
    2514:	00040000 	andeq	r0, r4, r0
    2518:	9f5001f3 	svcls	0x005001f3
	...
    2524:	000000fc 	strdeq	r0, [r0], -ip
    2528:	00000104 	andeq	r0, r0, r4, lsl #2
    252c:	04500001 	ldrbeq	r0, [r0], #-1
    2530:	28000001 	stmdacs	r0, {r0}
    2534:	01000001 	tsteq	r0, r1
    2538:	00005400 	andeq	r5, r0, r0, lsl #8
    253c:	00000000 	andeq	r0, r0, r0
	...

Disassembly of section .debug_aranges:

00000000 <.debug_aranges>:
   0:	0000001c 	andeq	r0, r0, ip, lsl r0
   4:	00000002 	andeq	r0, r0, r2
   8:	00040000 	andeq	r0, r4, r0
   c:	00000000 	andeq	r0, r0, r0
  10:	00008010 	andeq	r8, r0, r0, lsl r0
  14:	00000a94 	muleq	r0, r4, sl
	...
  20:	0000001c 	andeq	r0, r0, ip, lsl r0
  24:	0f530002 	svceq	0x00530002
  28:	00040000 	andeq	r0, r4, r0
  2c:	00000000 	andeq	r0, r0, r0
  30:	00008aa4 	andeq	r8, r0, r4, lsr #21
  34:	00000058 	andeq	r0, r0, r8, asr r0
	...
  40:	0000001c 	andeq	r0, r0, ip, lsl r0
  44:	10e80002 	rscne	r0, r8, r2
  48:	00040000 	andeq	r0, r4, r0
  4c:	00000000 	andeq	r0, r0, r0
  50:	00008afc 	strdeq	r8, [r0], -ip
  54:	0000003c 	andeq	r0, r0, ip, lsr r0
	...
  60:	0000001c 	andeq	r0, r0, ip, lsl r0
  64:	11ff0002 	mvnsne	r0, r2
  68:	00040000 	andeq	r0, r4, r0
  6c:	00000000 	andeq	r0, r0, r0
  70:	00008b38 	andeq	r8, r0, r8, lsr fp
  74:	00000034 	andeq	r0, r0, r4, lsr r0
	...
  80:	0000001c 	andeq	r0, r0, ip, lsl r0
  84:	12f10002 	rscsne	r0, r1, #2
  88:	00040000 	andeq	r0, r4, r0
  8c:	00000000 	andeq	r0, r0, r0
  90:	00008b6c 	andeq	r8, r0, ip, ror #22
  94:	000004f8 	strdeq	r0, [r0], -r8
	...
  a0:	0000001c 	andeq	r0, r0, ip, lsl r0
  a4:	19760002 	ldmdbne	r6!, {r1}^
  a8:	00040000 	andeq	r0, r4, r0
  ac:	00000000 	andeq	r0, r0, r0
  b0:	00009064 	andeq	r9, r0, r4, rrx
  b4:	00000020 	andeq	r0, r0, r0, lsr #32
	...
  c0:	0000001c 	andeq	r0, r0, ip, lsl r0
  c4:	1a320002 	bne	c800d4 <__bss_end__+0xc7614c>
  c8:	00040000 	andeq	r0, r4, r0
  cc:	00000000 	andeq	r0, r0, r0
  d0:	00009084 	andeq	r9, r0, r4, lsl #1
  d4:	00000028 	andeq	r0, r0, r8, lsr #32
	...
  e0:	0000001c 	andeq	r0, r0, ip, lsl r0
  e4:	1b350002 	blne	d400f4 <__bss_end__+0xd3616c>
  e8:	00040000 	andeq	r0, r4, r0
  ec:	00000000 	andeq	r0, r0, r0
  f0:	000090ac 	andeq	r9, r0, ip, lsr #1
  f4:	00000034 	andeq	r0, r0, r4, lsr r0
	...
 100:	0000001c 	andeq	r0, r0, ip, lsl r0
 104:	1c380002 	ldcne	0, cr0, [r8], #-8
 108:	00040000 	andeq	r0, r4, r0
 10c:	00000000 	andeq	r0, r0, r0
 110:	000090e0 	andeq	r9, r0, r0, ror #1
 114:	00000074 	andeq	r0, r0, r4, ror r0
	...
 120:	0000001c 	andeq	r0, r0, ip, lsl r0
 124:	1de90002 	stclne	0, cr0, [r9, #8]!
 128:	00040000 	andeq	r0, r4, r0
 12c:	00000000 	andeq	r0, r0, r0
 130:	00009154 	andeq	r9, r0, r4, asr r1
 134:	00000088 	andeq	r0, r0, r8, lsl #1
	...
 140:	0000001c 	andeq	r0, r0, ip, lsl r0
 144:	1fc50002 	svcne	0x00c50002
 148:	00040000 	andeq	r0, r4, r0
 14c:	00000000 	andeq	r0, r0, r0
 150:	000091dc 	ldrdeq	r9, [r0], -ip
 154:	000005a0 	andeq	r0, r0, r0, lsr #11
	...
 160:	0000001c 	andeq	r0, r0, ip, lsl r0
 164:	284b0002 	stmdacs	fp, {r1}^
 168:	00040000 	andeq	r0, r4, r0
 16c:	00000000 	andeq	r0, r0, r0
 170:	0000977c 	andeq	r9, r0, ip, ror r7
 174:	00000154 	andeq	r0, r0, r4, asr r1
	...

Disassembly of section .debug_ranges:

00000000 <.debug_ranges>:
   0:	00000260 	andeq	r0, r0, r0, ror #4
   4:	00000268 	andeq	r0, r0, r8, ror #4
   8:	0000026c 	andeq	r0, r0, ip, ror #4
   c:	00000290 	muleq	r0, r0, r2
	...
  18:	00000260 	andeq	r0, r0, r0, ror #4
  1c:	00000264 	andeq	r0, r0, r4, ror #4
  20:	0000026c 	andeq	r0, r0, ip, ror #4
  24:	00000270 	andeq	r0, r0, r0, ror r2
  28:	00000274 	andeq	r0, r0, r4, ror r2
  2c:	0000027c 	andeq	r0, r0, ip, ror r2
  30:	00000280 	andeq	r0, r0, r0, lsl #5
  34:	00000284 	andeq	r0, r0, r4, lsl #5
	...
  40:	00000270 	andeq	r0, r0, r0, ror r2
  44:	00000274 	andeq	r0, r0, r4, ror r2
  48:	0000027c 	andeq	r0, r0, ip, ror r2
  4c:	00000280 	andeq	r0, r0, r0, lsl #5
  50:	00000284 	andeq	r0, r0, r4, lsl #5
  54:	00000290 	muleq	r0, r0, r2
	...
  60:	000002a0 	andeq	r0, r0, r0, lsr #5
  64:	000002a8 	andeq	r0, r0, r8, lsr #5
  68:	000002ac 	andeq	r0, r0, ip, lsr #5
  6c:	000002d0 	ldrdeq	r0, [r0], -r0	; <UNPREDICTABLE>
	...
  78:	000002a0 	andeq	r0, r0, r0, lsr #5
  7c:	000002a4 	andeq	r0, r0, r4, lsr #5
  80:	000002ac 	andeq	r0, r0, ip, lsr #5
  84:	000002b0 			; <UNDEFINED> instruction: 0x000002b0
  88:	000002b4 			; <UNDEFINED> instruction: 0x000002b4
  8c:	000002bc 			; <UNDEFINED> instruction: 0x000002bc
  90:	000002c0 	andeq	r0, r0, r0, asr #5
  94:	000002c4 	andeq	r0, r0, r4, asr #5
	...
  a0:	000002b0 			; <UNDEFINED> instruction: 0x000002b0
  a4:	000002b4 			; <UNDEFINED> instruction: 0x000002b4
  a8:	000002bc 			; <UNDEFINED> instruction: 0x000002bc
  ac:	000002c0 	andeq	r0, r0, r0, asr #5
  b0:	000002c4 	andeq	r0, r0, r4, asr #5
  b4:	000002d0 	ldrdeq	r0, [r0], -r0	; <UNPREDICTABLE>
	...
  c0:	000002e0 	andeq	r0, r0, r0, ror #5
  c4:	000002e8 	andeq	r0, r0, r8, ror #5
  c8:	000002ec 	andeq	r0, r0, ip, ror #5
  cc:	00000310 	andeq	r0, r0, r0, lsl r3
	...
  d8:	000002e0 	andeq	r0, r0, r0, ror #5
  dc:	000002e4 	andeq	r0, r0, r4, ror #5
  e0:	000002ec 	andeq	r0, r0, ip, ror #5
  e4:	000002f0 	strdeq	r0, [r0], -r0	; <UNPREDICTABLE>
  e8:	000002f4 	strdeq	r0, [r0], -r4
  ec:	000002fc 	strdeq	r0, [r0], -ip
  f0:	00000300 	andeq	r0, r0, r0, lsl #6
  f4:	00000304 	andeq	r0, r0, r4, lsl #6
	...
 100:	000002f0 	strdeq	r0, [r0], -r0	; <UNPREDICTABLE>
 104:	000002f4 	strdeq	r0, [r0], -r4
 108:	000002fc 	strdeq	r0, [r0], -ip
 10c:	00000300 	andeq	r0, r0, r0, lsl #6
 110:	00000304 	andeq	r0, r0, r4, lsl #6
 114:	00000310 	andeq	r0, r0, r0, lsl r3
	...
 120:	00000320 	andeq	r0, r0, r0, lsr #6
 124:	00000328 	andeq	r0, r0, r8, lsr #6
 128:	0000032c 	andeq	r0, r0, ip, lsr #6
 12c:	00000350 	andeq	r0, r0, r0, asr r3
	...
 138:	00000320 	andeq	r0, r0, r0, lsr #6
 13c:	00000324 	andeq	r0, r0, r4, lsr #6
 140:	0000032c 	andeq	r0, r0, ip, lsr #6
 144:	00000330 	andeq	r0, r0, r0, lsr r3
 148:	00000334 	andeq	r0, r0, r4, lsr r3
 14c:	0000033c 	andeq	r0, r0, ip, lsr r3
 150:	00000340 	andeq	r0, r0, r0, asr #6
 154:	00000344 	andeq	r0, r0, r4, asr #6
	...
 160:	00000330 	andeq	r0, r0, r0, lsr r3
 164:	00000334 	andeq	r0, r0, r4, lsr r3
 168:	0000033c 	andeq	r0, r0, ip, lsr r3
 16c:	00000340 	andeq	r0, r0, r0, asr #6
 170:	00000344 	andeq	r0, r0, r4, asr #6
 174:	00000350 	andeq	r0, r0, r0, asr r3
	...
 180:	00000360 	andeq	r0, r0, r0, ror #6
 184:	00000368 	andeq	r0, r0, r8, ror #6
 188:	0000036c 	andeq	r0, r0, ip, ror #6
 18c:	00000394 	muleq	r0, r4, r3
	...
 198:	00000360 	andeq	r0, r0, r0, ror #6
 19c:	00000364 	andeq	r0, r0, r4, ror #6
 1a0:	0000036c 	andeq	r0, r0, ip, ror #6
 1a4:	00000370 	andeq	r0, r0, r0, ror r3
 1a8:	00000374 	andeq	r0, r0, r4, ror r3
 1ac:	0000037c 	andeq	r0, r0, ip, ror r3
 1b0:	00000380 	andeq	r0, r0, r0, lsl #7
 1b4:	00000384 	andeq	r0, r0, r4, lsl #7
	...
 1c0:	00000370 	andeq	r0, r0, r0, ror r3
 1c4:	00000374 	andeq	r0, r0, r4, ror r3
 1c8:	0000037c 	andeq	r0, r0, ip, ror r3
 1cc:	00000380 	andeq	r0, r0, r0, lsl #7
 1d0:	00000384 	andeq	r0, r0, r4, lsl #7
 1d4:	00000394 	muleq	r0, r4, r3
	...
 1e0:	000003a4 	andeq	r0, r0, r4, lsr #7
 1e4:	000003ac 	andeq	r0, r0, ip, lsr #7
 1e8:	000003b0 			; <UNDEFINED> instruction: 0x000003b0
 1ec:	000003d4 	ldrdeq	r0, [r0], -r4
	...
 1f8:	000003a4 	andeq	r0, r0, r4, lsr #7
 1fc:	000003a8 	andeq	r0, r0, r8, lsr #7
 200:	000003b0 			; <UNDEFINED> instruction: 0x000003b0
 204:	000003b4 			; <UNDEFINED> instruction: 0x000003b4
 208:	000003b8 			; <UNDEFINED> instruction: 0x000003b8
 20c:	000003c0 	andeq	r0, r0, r0, asr #7
 210:	000003c4 	andeq	r0, r0, r4, asr #7
 214:	000003c8 	andeq	r0, r0, r8, asr #7
	...
 220:	000003b4 			; <UNDEFINED> instruction: 0x000003b4
 224:	000003b8 			; <UNDEFINED> instruction: 0x000003b8
 228:	000003c0 	andeq	r0, r0, r0, asr #7
 22c:	000003c4 	andeq	r0, r0, r4, asr #7
 230:	000003c8 	andeq	r0, r0, r8, asr #7
 234:	000003d4 	ldrdeq	r0, [r0], -r4
	...
 240:	000003e4 	andeq	r0, r0, r4, ror #7
 244:	000003ec 	andeq	r0, r0, ip, ror #7
 248:	000003f0 	strdeq	r0, [r0], -r0	; <UNPREDICTABLE>
 24c:	00000414 	andeq	r0, r0, r4, lsl r4
	...
 258:	000003e4 	andeq	r0, r0, r4, ror #7
 25c:	000003e8 	andeq	r0, r0, r8, ror #7
 260:	000003f0 	strdeq	r0, [r0], -r0	; <UNPREDICTABLE>
 264:	000003f4 	strdeq	r0, [r0], -r4
 268:	000003f8 	strdeq	r0, [r0], -r8
 26c:	00000400 	andeq	r0, r0, r0, lsl #8
 270:	00000404 	andeq	r0, r0, r4, lsl #8
 274:	00000408 	andeq	r0, r0, r8, lsl #8
	...
 280:	000003f4 	strdeq	r0, [r0], -r4
 284:	000003f8 	strdeq	r0, [r0], -r8
 288:	00000400 	andeq	r0, r0, r0, lsl #8
 28c:	00000404 	andeq	r0, r0, r4, lsl #8
 290:	00000408 	andeq	r0, r0, r8, lsl #8
 294:	00000414 	andeq	r0, r0, r4, lsl r4
	...
 2a0:	00000424 	andeq	r0, r0, r4, lsr #8
 2a4:	0000042c 	andeq	r0, r0, ip, lsr #8
 2a8:	00000430 	andeq	r0, r0, r0, lsr r4
 2ac:	00000454 	andeq	r0, r0, r4, asr r4
	...
 2b8:	00000428 	andeq	r0, r0, r8, lsr #8
 2bc:	0000042c 	andeq	r0, r0, ip, lsr #8
 2c0:	00000430 	andeq	r0, r0, r0, lsr r4
 2c4:	00000434 	andeq	r0, r0, r4, lsr r4
 2c8:	00000438 	andeq	r0, r0, r8, lsr r4
 2cc:	00000440 	andeq	r0, r0, r0, asr #8
 2d0:	00000444 	andeq	r0, r0, r4, asr #8
 2d4:	00000448 	andeq	r0, r0, r8, asr #8
	...
 2e0:	00000434 	andeq	r0, r0, r4, lsr r4
 2e4:	00000438 	andeq	r0, r0, r8, lsr r4
 2e8:	00000440 	andeq	r0, r0, r0, asr #8
 2ec:	00000444 	andeq	r0, r0, r4, asr #8
 2f0:	00000448 	andeq	r0, r0, r8, asr #8
 2f4:	00000454 	andeq	r0, r0, r4, asr r4
	...
 300:	000004d4 	ldrdeq	r0, [r0], -r4
 304:	000004d8 	ldrdeq	r0, [r0], -r8
 308:	000004e0 	andeq	r0, r0, r0, ror #9
 30c:	00000610 	andeq	r0, r0, r0, lsl r6
	...
 318:	0000061c 	andeq	r0, r0, ip, lsl r6
 31c:	00000620 	andeq	r0, r0, r0, lsr #12
 320:	00000628 	andeq	r0, r0, r8, lsr #12
 324:	0000064c 	andeq	r0, r0, ip, asr #12
 328:	00000890 	muleq	r0, r0, r8
 32c:	0000089c 	muleq	r0, ip, r8
	...
 338:	0000064c 	andeq	r0, r0, ip, asr #12
 33c:	00000884 	andeq	r0, r0, r4, lsl #17
 340:	0000089c 	muleq	r0, ip, r8
 344:	00000904 	andeq	r0, r0, r4, lsl #18
	...
 350:	00000658 	andeq	r0, r0, r8, asr r6
 354:	0000066c 	andeq	r0, r0, ip, ror #12
 358:	00000694 	muleq	r0, r4, r6
 35c:	000006a8 	andeq	r0, r0, r8, lsr #13
 360:	000006cc 	andeq	r0, r0, ip, asr #13
 364:	000006e0 	andeq	r0, r0, r0, ror #13
 368:	00000704 	andeq	r0, r0, r4, lsl #14
 36c:	00000718 	andeq	r0, r0, r8, lsl r7
 370:	0000073c 	andeq	r0, r0, ip, lsr r7
 374:	00000750 	andeq	r0, r0, r0, asr r7
 378:	00000774 	andeq	r0, r0, r4, ror r7
 37c:	00000788 	andeq	r0, r0, r8, lsl #15
 380:	000007ac 	andeq	r0, r0, ip, lsr #15
 384:	000007c0 	andeq	r0, r0, r0, asr #15
 388:	000007e4 	andeq	r0, r0, r4, ror #15
 38c:	000007f8 	strdeq	r0, [r0], -r8
 390:	0000081c 	andeq	r0, r0, ip, lsl r8
 394:	0000082c 	andeq	r0, r0, ip, lsr #16
 398:	00000860 	andeq	r0, r0, r0, ror #16
 39c:	00000868 	andeq	r0, r0, r8, ror #16
	...
 3a8:	00000908 	andeq	r0, r0, r8, lsl #18
 3ac:	0000090c 	andeq	r0, r0, ip, lsl #18
 3b0:	00000918 	andeq	r0, r0, r8, lsl r9
 3b4:	00000924 	andeq	r0, r0, r4, lsr #18
 3b8:	0000092c 	andeq	r0, r0, ip, lsr #18
 3bc:	00000988 	andeq	r0, r0, r8, lsl #19
	...
 3c8:	000009a0 	andeq	r0, r0, r0, lsr #19
 3cc:	000009a4 	andeq	r0, r0, r4, lsr #19
 3d0:	000009a8 	andeq	r0, r0, r8, lsr #19
 3d4:	000009c8 	andeq	r0, r0, r8, asr #19
 3d8:	000009dc 	ldrdeq	r0, [r0], -ip
 3dc:	00000a34 	andeq	r0, r0, r4, lsr sl
	...
 3e8:	00000294 	muleq	r0, r4, r2
 3ec:	00000298 	muleq	r0, r8, r2
 3f0:	000002c8 	andeq	r0, r0, r8, asr #5
 3f4:	000004b8 			; <UNDEFINED> instruction: 0x000004b8
	...
 400:	000090e0 	andeq	r9, r0, r0, ror #1
 404:	00009154 	andeq	r9, r0, r4, asr r1
	...

Disassembly of section .debug_line:

00000000 <.debug_line>:
   0:	000003ad 	andeq	r0, r0, sp, lsr #7
   4:	01250002 	teqeq	r5, r2
   8:	01020000 	mrseq	r0, (UNDEF: 2)
   c:	000d0efb 	strdeq	r0, [sp], -fp
  10:	01010101 	tsteq	r1, r1, lsl #2
  14:	01000000 	mrseq	r0, (UNDEF: 0)
  18:	2f010000 	svccs	0x00010000
  1c:	2f727375 	svccs	0x00727375
  20:	61636f6c 	cmnvs	r3, ip, ror #30
  24:	65432f6c 	strbvs	r2, [r3, #-3948]	; 0xf6c
  28:	72616c6c 	rsbvc	r6, r1, #108, 24	; 0x6c00
  2c:	6d72612f 	ldfvse	f6, [r2, #-188]!	; 0xffffff44
  30:	6e6f6e2d 	cdpvs	14, 6, cr6, cr15, cr13, {1}
  34:	61652d65 	cmnvs	r5, r5, ror #26
  38:	342f6962 	strtcc	r6, [pc], #-2402	; 40 <_start-0x7fc0>
  3c:	332e382e 	teqcc	lr, #3014656	; 0x2e0000
  40:	3173632d 	cmncc	r3, sp, lsr #6
  44:	2f653037 	svccs	0x00653037
  48:	2f62696c 	svccs	0x0062696c
  4c:	2f636367 	svccs	0x00636367
  50:	2d6d7261 	sfmcs	f7, 2, [sp, #-388]!	; 0xfffffe7c
  54:	656e6f6e 	strbvs	r6, [lr, #-3950]!	; 0xf6e
  58:	6261652d 	rsbvs	r6, r1, #188743680	; 0xb400000
  5c:	2e342f69 	cdpcs	15, 3, cr2, cr4, cr9, {3}
  60:	2f332e38 	svccs	0x00332e38
  64:	6c636e69 	stclvs	14, cr6, [r3], #-420	; 0xfffffe5c
  68:	00656475 	rsbeq	r6, r5, r5, ror r4
  6c:	6573552f 	ldrbvs	r5, [r3, #-1327]!	; 0x52f
  70:	622f7372 	eorvs	r7, pc, #-939524095	; 0xc8000001
  74:	6e616972 	mcrvs	9, 3, r6, cr1, cr2, {3}
  78:	2f6e756a 	svccs	0x006e756a
  7c:	6b736544 	blvs	1cd9594 <__bss_end__+0x1ccf60c>
  80:	2f706f74 	svccs	0x00706f74
  84:	6f686373 	svcvs	0x00686373
  88:	572f6c6f 	strpl	r6, [pc, -pc, ror #24]!
  8c:	65746e69 	ldrbvs	r6, [r4, #-3689]!	; 0xe69
  90:	32393172 	eorscc	r3, r9, #-2147483620	; 0x8000001c
  94:	53432f30 	movtpl	r2, #16176	; 0x3f30
  98:	45303431 	ldrmi	r3, [r0, #-1073]!	; 0x431
  9c:	3173632f 	cmncc	r3, pc, lsr #6
  a0:	2d653034 	stclcs	0, cr3, [r5, #-208]!	; 0xffffff30
  a4:	69773032 	ldmdbvs	r7!, {r1, r4, r5, ip, sp}^
  a8:	696c2f6e 	stmdbvs	ip!, {r1, r2, r3, r5, r6, r8, r9, sl, fp, sp}^
  ac:	00697062 	rsbeq	r7, r9, r2, rrx
  b0:	6573552f 	ldrbvs	r5, [r3, #-1327]!	; 0x52f
  b4:	622f7372 	eorvs	r7, pc, #-939524095	; 0xc8000001
  b8:	6e616972 	mcrvs	9, 3, r6, cr1, cr2, {3}
  bc:	2f6e756a 	svccs	0x006e756a
  c0:	6b736544 	blvs	1cd95d8 <__bss_end__+0x1ccf650>
  c4:	2f706f74 	svccs	0x00706f74
  c8:	6f686373 	svcvs	0x00686373
  cc:	572f6c6f 	strpl	r6, [pc, -pc, ror #24]!
  d0:	65746e69 	ldrbvs	r6, [r4, #-3689]!	; 0xe69
  d4:	32393172 	eorscc	r3, r9, #-2147483620	; 0x8000001c
  d8:	53432f30 	movtpl	r2, #16176	; 0x3f30
  dc:	45303431 	ldrmi	r3, [r0, #-1073]!	; 0x431
  e0:	3173632f 	cmncc	r3, pc, lsr #6
  e4:	2d653034 	stclcs	0, cr3, [r5, #-208]!	; 0xffffff30
  e8:	69773032 	ldmdbvs	r7!, {r1, r4, r5, ip, sp}^
  ec:	696c2f6e 	stmdbvs	ip!, {r1, r2, r3, r5, r6, r8, r9, sl, fp, sp}^
  f0:	2f697062 	svccs	0x00697062
  f4:	34317363 	ldrtcc	r7, [r1], #-867	; 0x363
  f8:	732d6530 	teqvc	sp, #48, 10	; 0xc000000
  fc:	00006372 	andeq	r6, r0, r2, ror r3
 100:	706f6373 	rsbvc	r6, pc, r3, ror r3	; <UNPREDICTABLE>
 104:	00632e65 	rsbeq	r2, r3, r5, ror #28
 108:	73000000 	movwvc	r0, #0
 10c:	6e696474 	mcrvs	4, 3, r6, cr9, cr4, {3}
 110:	63672d74 	cmnvs	r7, #116, 26	; 0x1d00
 114:	00682e63 	rsbeq	r2, r8, r3, ror #28
 118:	72000001 	andvc	r0, r0, #1
 11c:	682e6970 	stmdavs	lr!, {r4, r5, r6, r8, fp, sp, lr}
 120:	00000200 	andeq	r0, r0, r0, lsl #4
 124:	6f697067 	svcvs	0x00697067
 128:	0300682e 	movweq	r6, #2094	; 0x82e
 12c:	00000000 	andeq	r0, r0, r0
 130:	80100205 	andshi	r0, r0, r5, lsl #4
 134:	3f030000 	svccc	0x00030000
 138:	2f2d1301 	svccs	0x002d1301
 13c:	30672f2f 	rsbcc	r2, r7, pc, lsr #30
 140:	01040200 	mrseq	r0, R12_usr
 144:	080d0345 	stmdaeq	sp, {r0, r2, r6, r8, r9}
 148:	2d2f863c 	stccs	6, cr8, [pc, #-240]!	; 60 <_start-0x7fa0>
 14c:	01040200 	mrseq	r0, R12_usr
 150:	0200852f 	andeq	r8, r0, #197132288	; 0xbc00000
 154:	002f0104 	eoreq	r0, pc, r4, lsl #2
 158:	a0010402 	andge	r0, r1, r2, lsl #8
 15c:	04020083 	streq	r0, [r2], #-131	; 0x83
 160:	0083bb01 	addeq	fp, r3, r1, lsl #22
 164:	d7010402 	strle	r0, [r1, -r2, lsl #8]
 168:	0030b883 	eorseq	fp, r0, r3, lsl #17
 16c:	2f010402 	svccs	0x00010402
 170:	04020083 	streq	r0, [r2], #-131	; 0x83
 174:	0083d701 	addeq	sp, r3, r1, lsl #14
 178:	d7010402 	strle	r0, [r1, -r2, lsl #8]
 17c:	04020083 	streq	r0, [r2], #-131	; 0x83
 180:	0083d701 	addeq	sp, r3, r1, lsl #14
 184:	d7010402 	strle	r0, [r1, -r2, lsl #8]
 188:	04020083 	streq	r0, [r2], #-131	; 0x83
 18c:	6987f301 	stmibvs	r7, {r0, r8, r9, ip, sp, lr, pc}
 190:	02008430 	andeq	r8, r0, #48, 8	; 0x30000000
 194:	2e060104 	adfcss	f0, f6, f4
 198:	7fb90306 	svcvc	0x00b90306
 19c:	0402009e 	streq	r0, [r2], #-158	; 0x9e
 1a0:	00cc0301 	sbceq	r0, ip, r1, lsl #6
 1a4:	7faf0382 	svcvc	0x00af0382
 1a8:	2e0b0382 	cdpcs	3, 0, cr0, cr11, cr2, {4}
 1ac:	2e00c703 	cdpcs	7, 0, cr12, cr0, cr3, {0}
 1b0:	2e7fae03 	cdpcs	14, 7, cr10, cr15, cr3, {0}
 1b4:	294f2933 	stmdbcs	pc, {r0, r1, r4, r5, r8, fp, sp}^	; <UNPREDICTABLE>
 1b8:	04020033 	streq	r0, [r2], #-51	; 0x33
 1bc:	00ce0301 	sbceq	r0, lr, r1, lsl #6
 1c0:	7fad0366 	svcvc	0x00ad0366
 1c4:	2e0b0382 	cdpcs	3, 0, cr0, cr11, cr2, {4}
 1c8:	2e00c903 	cdpcs	9, 0, cr12, cr0, cr3, {0}
 1cc:	2e7fac03 	cdpcs	12, 7, cr10, cr15, cr3, {0}
 1d0:	294f2933 	stmdbcs	pc, {r0, r1, r4, r5, r8, fp, sp}^	; <UNPREDICTABLE>
 1d4:	04020033 	streq	r0, [r2], #-51	; 0x33
 1d8:	00d00301 	sbcseq	r0, r0, r1, lsl #6
 1dc:	7fab0366 	svcvc	0x00ab0366
 1e0:	2e0b0382 	cdpcs	3, 0, cr0, cr11, cr2, {4}
 1e4:	2e00cb03 	vmlacs.f64	d12, d0, d3
 1e8:	2e7faa03 	vaddcs.f32	s21, s30, s6
 1ec:	294f2933 	stmdbcs	pc, {r0, r1, r4, r5, r8, fp, sp}^	; <UNPREDICTABLE>
 1f0:	04020033 	streq	r0, [r2], #-51	; 0x33
 1f4:	00d20301 	sbcseq	r0, r2, r1, lsl #6
 1f8:	7fa90366 	svcvc	0x00a90366
 1fc:	2e0b0382 	cdpcs	3, 0, cr0, cr11, cr2, {4}
 200:	2e00cd03 	cdpcs	13, 0, cr12, cr0, cr3, {0}
 204:	2e7fa803 	cdpcs	8, 7, cr10, cr15, cr3, {0}
 208:	294f2933 	stmdbcs	pc, {r0, r1, r4, r5, r8, fp, sp}^	; <UNPREDICTABLE>
 20c:	04020033 	streq	r0, [r2], #-51	; 0x33
 210:	00d40301 	sbcseq	r0, r4, r1, lsl #6
 214:	7fa70366 	svcvc	0x00a70366
 218:	2e0b0382 	cdpcs	3, 0, cr0, cr11, cr2, {4}
 21c:	2e00cf03 	cdpcs	15, 0, cr12, cr0, cr3, {0}
 220:	2e7fa603 	cdpcs	6, 7, cr10, cr15, cr3, {0}
 224:	294f2933 	stmdbcs	pc, {r0, r1, r4, r5, r8, fp, sp}^	; <UNPREDICTABLE>
 228:	04020033 	streq	r0, [r2], #-51	; 0x33
 22c:	00d60301 	sbcseq	r0, r6, r1, lsl #6
 230:	7fa50382 	svcvc	0x00a50382
 234:	2e0b0382 	cdpcs	3, 0, cr0, cr11, cr2, {4}
 238:	2e00d103 	mvfcss	f5, f3
 23c:	2e7fa403 	cdpcs	4, 7, cr10, cr15, cr3, {0}
 240:	294f2933 	stmdbcs	pc, {r0, r1, r4, r5, r8, fp, sp}^	; <UNPREDICTABLE>
 244:	04020033 	streq	r0, [r2], #-51	; 0x33
 248:	00d80301 	sbcseq	r0, r8, r1, lsl #6
 24c:	7fa30366 	svcvc	0x00a30366
 250:	2e0b0382 	cdpcs	3, 0, cr0, cr11, cr2, {4}
 254:	2e00d303 	cdpcs	3, 0, cr13, cr0, cr3, {0}
 258:	2e7fa203 	cdpcs	2, 7, cr10, cr15, cr3, {0}
 25c:	294f2933 	stmdbcs	pc, {r0, r1, r4, r5, r8, fp, sp}^	; <UNPREDICTABLE>
 260:	04020033 	streq	r0, [r2], #-51	; 0x33
 264:	00da0301 	sbcseq	r0, sl, r1, lsl #6
 268:	7fac0366 	svcvc	0x00ac0366
 26c:	2e750382 	cdpcs	3, 7, cr0, cr5, cr2, {4}
 270:	2e00e003 	cdpcs	0, 0, cr14, cr0, cr3, {0}
 274:	2e7fa003 	cdpcs	0, 7, cr10, cr15, cr3, {0}
 278:	294f2933 	stmdbcs	pc, {r0, r1, r4, r5, r8, fp, sp}^	; <UNPREDICTABLE>
 27c:	04020033 	streq	r0, [r2], #-51	; 0x33
 280:	00dc0301 	sbcseq	r0, ip, r1, lsl #6
 284:	7f9f0366 	svcvc	0x009f0366
 288:	04020082 	streq	r0, [r2], #-130	; 0x82
 28c:	00e30301 	rsceq	r0, r3, r1, lsl #6
 290:	03832008 	orreq	r2, r3, #8
 294:	03346620 	teqeq	r4, #32, 12	; 0x2000000
 298:	03342e7a 	teqeq	r4, #1952	; 0x7a0
 29c:	00342e7a 	eorseq	r2, r4, sl, ror lr
 2a0:	33010402 	movwcc	r0, #5122	; 0x1402
 2a4:	4a160383 	bmi	5810b8 <__bss_end__+0x577130>
 2a8:	032e5f03 	teqeq	lr, #3, 30
 2ac:	4b4b4a20 	blmi	12d2b34 <__bss_end__+0x12c8bac>
 2b0:	4b30844b 	blmi	c213e4 <__bss_end__+0xc1745c>
 2b4:	4b30844b 	blmi	c213e8 <__bss_end__+0xc17460>
 2b8:	4b30844b 	blmi	c213ec <__bss_end__+0xc17464>
 2bc:	4b30844b 	blmi	c213f0 <__bss_end__+0xc17468>
 2c0:	4b30844b 	blmi	c213f4 <__bss_end__+0xc1746c>
 2c4:	4b30844b 	blmi	c213f8 <__bss_end__+0xc17470>
 2c8:	4b30844b 	blmi	c213fc <__bss_end__+0xc17474>
 2cc:	4f31844b 	svcmi	0x0031844b
 2d0:	034b2d67 	movteq	r2, #48487	; 0xbd67
 2d4:	0320080b 	teqeq	r0, #720896	; 0xb0000
 2d8:	03667f99 	cmneq	r6, #612	; 0x264
 2dc:	4c9e00e5 	ldcmi	0, cr0, [lr], {229}	; 0xe5
 2e0:	99034b49 	stmdbls	r3, {r0, r3, r6, r8, r9, fp, lr}
 2e4:	e503827f 	str	r8, [r3, #-639]	; 0x27f
 2e8:	034c9e00 	movteq	r9, #52736	; 0xce00
 2ec:	03d67f99 	bicseq	r7, r6, #612	; 0x264
 2f0:	4c9e00e5 	ldcmi	0, cr0, [lr], {229}	; 0xe5
 2f4:	d67f9903 	ldrbtle	r9, [pc], -r3, lsl #18
 2f8:	9e00e503 	cfsh32ls	mvfx14, mvfx0, #3
 2fc:	7f99034c 	svcvc	0x0099034c
 300:	00e503d6 	ldrdeq	r0, [r5], #54	; 0x36	; <UNPREDICTABLE>
 304:	99034c9e 	stmdbls	r3, {r1, r2, r3, r4, r7, sl, fp, lr}
 308:	e503d67f 	str	sp, [r3, #-1663]	; 0x67f
 30c:	034c9e00 	movteq	r9, #52736	; 0xce00
 310:	03d67f99 	bicseq	r7, r6, #612	; 0x264
 314:	4c9e00e5 	ldcmi	0, cr0, [lr], {229}	; 0xe5
 318:	d67f9903 	ldrbtle	r9, [pc], -r3, lsl #18
 31c:	9e00e503 	cfsh32ls	mvfx14, mvfx0, #3
 320:	0402004c 	streq	r0, [r2], #-76	; 0x4c
 324:	00660602 	rsbeq	r0, r6, r2, lsl #12
 328:	06020402 	streq	r0, [r2], -r2, lsl #8
 32c:	827f9903 	rsbshi	r9, pc, #49152	; 0xc000
 330:	02040200 	andeq	r0, r4, #0, 4
 334:	8200e303 	andhi	lr, r0, #201326592	; 0xc000000
 338:	02040200 	andeq	r0, r4, #0, 4
 33c:	04020032 	streq	r0, [r2], #-50	; 0x32
 340:	02002c02 	andeq	r2, r0, #512	; 0x200
 344:	004b0204 	subeq	r0, fp, r4, lsl #4
 348:	2f020402 	svccs	0x00020402
 34c:	03068206 	movweq	r8, #25094	; 0x6206
 350:	03827f99 	orreq	r7, r2, #612	; 0x264
 354:	2c4a00e5 	mcrrcs	0, 14, r0, sl, cr5
 358:	2a2f2f30 	bcs	bcc020 <__bss_end__+0xbc2098>
 35c:	66710352 			; <UNDEFINED> instruction: 0x66710352
 360:	3246326d 	subcc	r3, r6, #-805306362	; 0xd0000006
 364:	32463246 	subcc	r3, r6, #1610612740	; 0x60000004
 368:	32463246 	subcc	r3, r6, #1610612740	; 0x60000004
 36c:	32463246 	subcc	r3, r6, #1610612740	; 0x60000004
 370:	2e2b318a 	sufcs<illegal precision>	f3, f3, #2.0
 374:	834c644d 	movthi	r6, #50253	; 0xc44d
 378:	7a03354c 	bvc	cd8b0 <__bss_end__+0xc3928>
 37c:	2c67312e 	stfcse	f3, [r7], #-184	; 0xffffff48
 380:	ba760332 	blt	1d81050 <__bss_end__+0x1d770c8>
 384:	68660c03 	stmdavs	r6!, {r0, r1, sl, fp}^
 388:	66140313 			; <UNDEFINED> instruction: 0x66140313
 38c:	312e6c03 	teqcc	lr, r3, lsl #24
 390:	35302c30 	ldrcc	r2, [r0, #-3120]!	; 0xc30
 394:	4a6d0351 	bmi	1b410e0 <__bss_end__+0x1b37158>
 398:	0d0383a4 	stceq	3, cr8, [r3, #-656]	; 0xfffffd70
 39c:	7803834a 	stmdavc	r3, {r1, r3, r6, r8, r9, pc}
 3a0:	0e03834a 	cdpeq	3, 0, cr8, cr3, cr10, {2}
 3a4:	4b2f4cba 	blmi	bd3694 <__bss_end__+0xbc970c>
 3a8:	6783f54f 	strvs	pc, [r3, pc, asr #10]
 3ac:	01000402 	tsteq	r0, r2, lsl #8
 3b0:	00010201 	andeq	r0, r1, r1, lsl #4
 3b4:	eb000200 	bl	bbc <_start-0x7444>
 3b8:	02000000 	andeq	r0, r0, #0
 3bc:	0d0efb01 	vstreq	d15, [lr, #-4]
 3c0:	01010100 	mrseq	r0, (UNDEF: 17)
 3c4:	00000001 	andeq	r0, r0, r1
 3c8:	01000001 	tsteq	r0, r1
 3cc:	6362696c 	cmnvs	r2, #108, 18	; 0x1b0000
 3d0:	73752f00 	cmnvc	r5, #0, 30
 3d4:	6f6c2f72 	svcvs	0x006c2f72
 3d8:	2f6c6163 	svccs	0x006c6163
 3dc:	6c6c6543 	cfstr64vs	mvdx6, [ip], #-268	; 0xfffffef4
 3e0:	612f7261 	teqvs	pc, r1, ror #4
 3e4:	6e2d6d72 	mcrvs	13, 1, r6, cr13, cr2, {3}
 3e8:	2d656e6f 	stclcs	14, cr6, [r5, #-444]!	; 0xfffffe44
 3ec:	69626165 	stmdbvs	r2!, {r0, r2, r5, r6, r8, sp, lr}^
 3f0:	382e342f 	stmdacc	lr!, {r0, r1, r2, r3, r5, sl, ip, sp}
 3f4:	632d332e 	teqvs	sp, #-1207959552	; 0xb8000000
 3f8:	30373173 	eorscc	r3, r7, r3, ror r1
 3fc:	696c2f65 	stmdbvs	ip!, {r0, r2, r5, r6, r8, r9, sl, fp, sp}^
 400:	63672f62 	cmnvs	r7, #392	; 0x188
 404:	72612f63 	rsbvc	r2, r1, #396	; 0x18c
 408:	6f6e2d6d 	svcvs	0x006e2d6d
 40c:	652d656e 	strvs	r6, [sp, #-1390]!	; 0x56e
 410:	2f696261 	svccs	0x00696261
 414:	2e382e34 	mrccs	14, 1, r2, cr8, cr4, {1}
 418:	6e692f33 	mcrvs	15, 3, r2, cr9, cr3, {1}
 41c:	64756c63 	ldrbtvs	r6, [r5], #-3171	; 0xc63
 420:	552f0065 	strpl	r0, [pc, #-101]!	; 3c3 <_start-0x7c3d>
 424:	73726573 	cmnvc	r2, #482344960	; 0x1cc00000
 428:	6972622f 	ldmdbvs	r2!, {r0, r1, r2, r3, r5, r9, sp, lr}^
 42c:	756a6e61 	strbvc	r6, [sl, #-3681]!	; 0xe61
 430:	65442f6e 	strbvs	r2, [r4, #-3950]	; 0xf6e
 434:	6f746b73 	svcvs	0x00746b73
 438:	63732f70 	cmnvs	r3, #112, 30	; 0x1c0
 43c:	6c6f6f68 	stclvs	15, cr6, [pc], #-416	; 2a4 <_start-0x7d5c>
 440:	6e69572f 	cdpvs	7, 6, cr5, cr9, cr15, {1}
 444:	31726574 	cmncc	r2, r4, ror r5
 448:	2f303239 	svccs	0x00303239
 44c:	34315343 	ldrtcc	r5, [r1], #-835	; 0x343
 450:	632f4530 	teqvs	pc, #48, 10	; 0xc000000
 454:	30343173 	eorscc	r3, r4, r3, ror r1
 458:	30322d65 	eorscc	r2, r2, r5, ror #26
 45c:	2f6e6977 	svccs	0x006e6977
 460:	7062696c 	rsbvc	r6, r2, ip, ror #18
 464:	70000069 	andvc	r0, r0, r9, rrx
 468:	746e6972 	strbtvc	r6, [lr], #-2418	; 0x972
 46c:	00632e6b 	rsbeq	r2, r3, fp, ror #28
 470:	73000001 	movwvc	r0, #1
 474:	72616474 	rsbvc	r6, r1, #116, 8	; 0x74000000
 478:	00682e67 	rsbeq	r2, r8, r7, ror #28
 47c:	3c000002 	stccc	0, cr0, [r0], {2}
 480:	6c697562 	cfstr64vs	mvdx7, [r9], #-392	; 0xfffffe78
 484:	6e692d74 	mcrvs	13, 3, r2, cr9, cr4, {3}
 488:	0000003e 	andeq	r0, r0, lr, lsr r0
 48c:	69707200 	ldmdbvs	r0!, {r9, ip, sp, lr}^
 490:	0300682e 	movweq	r6, #2094	; 0x82e
 494:	61760000 	cmnvs	r6, r0
 498:	6972702d 	ldmdbvs	r2!, {r0, r2, r3, r5, ip, sp, lr}^
 49c:	2e6b746e 	cdpcs	4, 6, cr7, cr11, cr14, {3}
 4a0:	00010068 	andeq	r0, r1, r8, rrx
 4a4:	05000000 	streq	r0, [r0, #-0]
 4a8:	008aa402 	addeq	sl, sl, r2, lsl #8
 4ac:	4b6b1700 	blmi	1ac60b4 <__bss_end__+0x1abc12c>
 4b0:	0e0289bf 	mcreq	9, 0, r8, cr2, cr15, {5}
 4b4:	8a010100 	bhi	408bc <__bss_end__+0x36934>
 4b8:	02000000 	andeq	r0, r0, #0
 4bc:	00007200 	andeq	r7, r0, r0, lsl #4
 4c0:	fb010200 	blx	40cca <__bss_end__+0x36d42>
 4c4:	01000d0e 	tsteq	r0, lr, lsl #26
 4c8:	00010101 	andeq	r0, r1, r1, lsl #2
 4cc:	00010000 	andeq	r0, r1, r0
 4d0:	696c0100 	stmdbvs	ip!, {r8}^
 4d4:	2f006362 	svccs	0x00006362
 4d8:	72657355 	rsbvc	r7, r5, #1409286145	; 0x54000001
 4dc:	72622f73 	rsbvc	r2, r2, #460	; 0x1cc
 4e0:	6a6e6169 	bvs	1b98a8c <__bss_end__+0x1b8eb04>
 4e4:	442f6e75 	strtmi	r6, [pc], #-3701	; 4ec <_start-0x7b14>
 4e8:	746b7365 	strbtvc	r7, [fp], #-869	; 0x365
 4ec:	732f706f 	teqvc	pc, #111	; 0x6f
 4f0:	6f6f6863 	svcvs	0x006f6863
 4f4:	69572f6c 	ldmdbvs	r7, {r2, r3, r5, r6, r8, r9, sl, fp, sp}^
 4f8:	7265746e 	rsbvc	r7, r5, #1845493760	; 0x6e000000
 4fc:	30323931 	eorscc	r3, r2, r1, lsr r9
 500:	3153432f 	cmpcc	r3, pc, lsr #6
 504:	2f453034 	svccs	0x00453034
 508:	34317363 	ldrtcc	r7, [r1], #-867	; 0x363
 50c:	322d6530 	eorcc	r6, sp, #48, 10	; 0xc000000
 510:	6e697730 	mcrvs	7, 3, r7, cr9, cr0, {1}
 514:	62696c2f 	rsbvs	r6, r9, #12032	; 0x2f00
 518:	00006970 	andeq	r6, r0, r0, ror r9
 51c:	63747570 	cmnvs	r4, #112, 10	; 0x1c000000
 520:	2e726168 	rpwcssz	f6, f2, #0.0
 524:	00010063 	andeq	r0, r1, r3, rrx
 528:	69707200 	ldmdbvs	r0!, {r9, ip, sp, lr}^
 52c:	0200682e 	andeq	r6, r0, #3014656	; 0x2e0000
 530:	00000000 	andeq	r0, r0, r0
 534:	8afc0205 	bhi	fff00d50 <__bss_end__+0xffef6dc8>
 538:	4a140000 	bmi	500540 <__bss_end__+0x4f65b8>
 53c:	13bc136b 			; <UNDEFINED> instruction: 0x13bc136b
 540:	01000802 	tsteq	r0, r2, lsl #16
 544:	00009601 	andeq	r9, r0, r1, lsl #12
 548:	6f000200 	svcvs	0x00000200
 54c:	02000000 	andeq	r0, r0, #0
 550:	0d0efb01 	vstreq	d15, [lr, #-4]
 554:	01010100 	mrseq	r0, (UNDEF: 17)
 558:	00000001 	andeq	r0, r0, r1
 55c:	01000001 	tsteq	r0, r1
 560:	6362696c 	cmnvs	r2, #108, 18	; 0x1b0000
 564:	73552f00 	cmpvc	r5, #0, 30
 568:	2f737265 	svccs	0x00737265
 56c:	61697262 	cmnvs	r9, r2, ror #4
 570:	6e756a6e 	vsubvs.f32	s13, s10, s29
 574:	7365442f 	cmnvc	r5, #788529152	; 0x2f000000
 578:	706f746b 	rsbvc	r7, pc, fp, ror #8
 57c:	6863732f 	stmdavs	r3!, {r0, r1, r2, r3, r5, r8, r9, ip, sp, lr}^
 580:	2f6c6f6f 	svccs	0x006c6f6f
 584:	746e6957 	strbtvc	r6, [lr], #-2391	; 0x957
 588:	39317265 	ldmdbcc	r1!, {r0, r2, r5, r6, r9, ip, sp, lr}
 58c:	432f3032 	teqmi	pc, #50	; 0x32
 590:	30343153 	eorscc	r3, r4, r3, asr r1
 594:	73632f45 	cmnvc	r3, #276	; 0x114
 598:	65303431 	ldrvs	r3, [r0, #-1073]!	; 0x431
 59c:	7730322d 	ldrvc	r3, [r0, -sp, lsr #4]!
 5a0:	6c2f6e69 	stcvs	14, cr6, [pc], #-420	; 404 <_start-0x7bfc>
 5a4:	69706269 	ldmdbvs	r0!, {r0, r3, r5, r6, r9, sp, lr}^
 5a8:	75700000 	ldrbvc	r0, [r0, #-0]!
 5ac:	632e6b74 	teqvs	lr, #116, 22	; 0x1d000
 5b0:	00000100 	andeq	r0, r0, r0, lsl #2
 5b4:	2e697072 	mcrcs	0, 3, r7, cr9, cr2, {3}
 5b8:	00020068 	andeq	r0, r2, r8, rrx
 5bc:	05000000 	streq	r0, [r0, #-0]
 5c0:	008b3802 	addeq	r3, fp, r2, lsl #16
 5c4:	2d4c1500 	cfstr64cs	mvdx1, [ip, #-0]
 5c8:	02040200 	andeq	r0, r4, #0, 4
 5cc:	0402002f 	streq	r0, [r2], #-47	; 0x2f
 5d0:	02004902 	andeq	r4, r0, #32768	; 0x8000
 5d4:	2e060104 	adfcss	f0, f6, f4
 5d8:	06026b06 	streq	r6, [r2], -r6, lsl #22
 5dc:	de010100 	adfles	f0, f1, f0
 5e0:	02000001 	andeq	r0, r0, #1
 5e4:	0000df00 	andeq	sp, r0, r0, lsl #30
 5e8:	fb010200 	blx	40df2 <__bss_end__+0x36e6a>
 5ec:	01000d0e 	tsteq	r0, lr, lsl #26
 5f0:	00010101 	andeq	r0, r1, r1, lsl #2
 5f4:	00010000 	andeq	r0, r1, r0
 5f8:	696c0100 	stmdbvs	ip!, {r8}^
 5fc:	2f006362 	svccs	0x00006362
 600:	2f727375 	svccs	0x00727375
 604:	61636f6c 	cmnvs	r3, ip, ror #30
 608:	65432f6c 	strbvs	r2, [r3, #-3948]	; 0xf6c
 60c:	72616c6c 	rsbvc	r6, r1, #108, 24	; 0x6c00
 610:	6d72612f 	ldfvse	f6, [r2, #-188]!	; 0xffffff44
 614:	6e6f6e2d 	cdpvs	14, 6, cr6, cr15, cr13, {1}
 618:	61652d65 	cmnvs	r5, r5, ror #26
 61c:	342f6962 	strtcc	r6, [pc], #-2402	; 624 <_start-0x79dc>
 620:	332e382e 	teqcc	lr, #3014656	; 0x2e0000
 624:	3173632d 	cmncc	r3, sp, lsr #6
 628:	2f653037 	svccs	0x00653037
 62c:	2f62696c 	svccs	0x0062696c
 630:	2f636367 	svccs	0x00636367
 634:	2d6d7261 	sfmcs	f7, 2, [sp, #-388]!	; 0xfffffe7c
 638:	656e6f6e 	strbvs	r6, [lr, #-3950]!	; 0xf6e
 63c:	6261652d 	rsbvs	r6, r1, #188743680	; 0xb400000
 640:	2e342f69 	cdpcs	15, 3, cr2, cr4, cr9, {3}
 644:	2f332e38 	svccs	0x00332e38
 648:	6c636e69 	stclvs	14, cr6, [r3], #-420	; 0xfffffe5c
 64c:	00656475 	rsbeq	r6, r5, r5, ror r4
 650:	6573552f 	ldrbvs	r5, [r3, #-1327]!	; 0x52f
 654:	622f7372 	eorvs	r7, pc, #-939524095	; 0xc8000001
 658:	6e616972 	mcrvs	9, 3, r6, cr1, cr2, {3}
 65c:	2f6e756a 	svccs	0x006e756a
 660:	6b736544 	blvs	1cd9b78 <__bss_end__+0x1ccfbf0>
 664:	2f706f74 	svccs	0x00706f74
 668:	6f686373 	svcvs	0x00686373
 66c:	572f6c6f 	strpl	r6, [pc, -pc, ror #24]!
 670:	65746e69 	ldrbvs	r6, [r4, #-3689]!	; 0xe69
 674:	32393172 	eorscc	r3, r9, #-2147483620	; 0x8000001c
 678:	53432f30 	movtpl	r2, #16176	; 0x3f30
 67c:	45303431 	ldrmi	r3, [r0, #-1073]!	; 0x431
 680:	3173632f 	cmncc	r3, pc, lsr #6
 684:	2d653034 	stclcs	0, cr3, [r5, #-208]!	; 0xffffff30
 688:	69773032 	ldmdbvs	r7!, {r1, r4, r5, ip, sp}^
 68c:	696c2f6e 	stmdbvs	ip!, {r1, r2, r3, r5, r6, r8, r9, sl, fp, sp}^
 690:	00697062 	rsbeq	r7, r9, r2, rrx
 694:	2d617600 	stclcs	6, cr7, [r1, #-0]
 698:	6e697270 	mcrvs	2, 3, r7, cr9, cr0, {3}
 69c:	632e6b74 	teqvs	lr, #116, 22	; 0x1d000
 6a0:	00000100 	andeq	r0, r0, r0, lsl #2
 6a4:	61647473 	smcvs	18243	; 0x4743
 6a8:	682e6772 	stmdavs	lr!, {r1, r4, r5, r6, r8, r9, sl, sp, lr}
 6ac:	00000200 	andeq	r0, r0, r0, lsl #4
 6b0:	2e697072 	mcrcs	0, 3, r7, cr9, cr2, {3}
 6b4:	00030068 	andeq	r0, r3, r8, rrx
 6b8:	75623c00 	strbvc	r3, [r2, #-3072]!	; 0xc00
 6bc:	2d746c69 	ldclcs	12, cr6, [r4, #-420]!	; 0xfffffe5c
 6c0:	003e6e69 	eorseq	r6, lr, r9, ror #28
 6c4:	00000000 	andeq	r0, r0, r0
 6c8:	6c020500 	cfstr32vs	mvfx0, [r2], {-0}
 6cc:	0300008b 	movweq	r0, #139	; 0x8b
 6d0:	a5010126 	strge	r0, [r1, #-294]	; 0x126
 6d4:	002d3113 	eoreq	r3, sp, r3, lsl r1
 6d8:	2f020402 	svccs	0x00020402
 6dc:	02040200 	andeq	r0, r4, #0, 4
 6e0:	0402002d 	streq	r0, [r2], #-45	; 0x2d
 6e4:	02002f02 	andeq	r2, r0, #2, 30
 6e8:	4c2d0104 	stfmis	f0, [sp], #-16
 6ec:	4b14304c 	blmi	50c824 <__bss_end__+0x50289c>
 6f0:	02004f2f 	andeq	r4, r0, #47, 30	; 0xbc
 6f4:	00670204 	rsbeq	r0, r7, r4, lsl #4
 6f8:	65010402 	strvs	r0, [r1, #-1026]	; 0x402
 6fc:	a0304d4c 	eorsge	r4, r0, ip, asr #26
 700:	0230312f 	eorseq	r3, r0, #-1073741813	; 0xc000000b
 704:	2d841626 	stccs	6, cr1, [r4, #152]	; 0x98
 708:	0402002c 	streq	r0, [r2], #-44	; 0x2c
 70c:	02003001 	andeq	r3, r0, #1
 710:	06330104 	ldrteq	r0, [r3], -r4, lsl #2
 714:	04020066 	streq	r0, [r2], #-102	; 0x66
 718:	02002e01 	andeq	r2, r0, #1, 28
 71c:	08060104 	stmdaeq	r6, {r2, r8}
 720:	032f6721 	teqeq	pc, #8650752	; 0x840000
 724:	13038273 	movwne	r8, #12915	; 0x3273
 728:	0402002e 	streq	r0, [r2], #-46	; 0x2e
 72c:	002e0601 	eoreq	r0, lr, r1, lsl #12
 730:	06010402 	streq	r0, [r1], -r2, lsl #8
 734:	034b6a9f 	movteq	r6, #47775	; 0xba9f
 738:	21032e67 	tstcs	r3, r7, ror #28
 73c:	0402002e 	streq	r0, [r2], #-46	; 0x2e
 740:	002e0601 	eoreq	r0, lr, r1, lsl #12
 744:	06010402 	streq	r0, [r1], -r2, lsl #8
 748:	0402009f 	streq	r0, [r2], #-159	; 0x9f
 74c:	f3d96a01 	vmlsl.u16	q11, d9, d1
 750:	087fa603 	ldmdaeq	pc!, {r0, r1, r9, sl, sp, pc}^	; <UNPREDICTABLE>
 754:	02002f20 	andeq	r2, r0, #32, 30	; 0x80
 758:	4a060104 	bmi	180b70 <__bss_end__+0x176be8>
 75c:	2f4bd706 	svccs	0x004bd706
 760:	f200da03 	vpmax.s8	d13, d0, d3
 764:	03484c83 	movteq	r4, #35971	; 0x8c83
 768:	75032e0e 	strvc	r2, [r3, #-3598]	; 0xe0e
 76c:	842f2f2e 	strthi	r2, [pc], #-3886	; 774 <_start-0x788c>
 770:	4d2d2f4b 	stcmi	15, cr2, [sp, #-300]!	; 0xfffffed4
 774:	832f3031 	teqhi	pc, #49	; 0x31
 778:	01040200 	mrseq	r0, R12_usr
 77c:	0200a22c 	andeq	sl, r0, #44, 4	; 0xc0000002
 780:	4a060104 	bmi	180b98 <__bss_end__+0x176c10>
 784:	3602d806 	strcc	sp, [r2], -r6, lsl #16
 788:	d60e0316 			; <UNDEFINED> instruction: 0xd60e0316
 78c:	f3302108 	vrhadd.u<illegal width 64>	d2, d0, d8
 790:	f330f331 	vcge.u<illegal width 64>	d15, d0, d17
 794:	f3304b30 			; <UNDEFINED> instruction: 0xf3304b30
 798:	31230830 	teqcc	r3, r0, lsr r8
 79c:	0402002f 	streq	r0, [r2], #-47	; 0x2f
 7a0:	02006501 	andeq	r6, r0, #4194304	; 0x400000
 7a4:	4a060204 	bmi	180fbc <__bss_end__+0x177034>
 7a8:	01040200 	mrseq	r0, R12_usr
 7ac:	66420306 	strbvs	r0, [r2], -r6, lsl #6
 7b0:	02040200 	andeq	r0, r4, #0, 4
 7b4:	03066606 	movweq	r6, #26118	; 0x6606
 7b8:	684a00c2 	stmdavs	sl, {r1, r6, r7}^
 7bc:	01001002 	tsteq	r0, r2
 7c0:	00004301 	andeq	r4, r0, r1, lsl #6
 7c4:	29000200 	stmdbcs	r0, {r9}
 7c8:	02000000 	andeq	r0, r0, #0
 7cc:	0d0efb01 	vstreq	d15, [lr, #-4]
 7d0:	01010100 	mrseq	r0, (UNDEF: 17)
 7d4:	00000001 	andeq	r0, r0, r1
 7d8:	01000001 	tsteq	r0, r1
 7dc:	34317363 	ldrtcc	r7, [r1], #-867	; 0x363
 7e0:	732d6530 	teqvc	sp, #48, 10	; 0xc000000
 7e4:	00006372 	andeq	r6, r0, r2, ror r3
 7e8:	68636163 	stmdavs	r3!, {r0, r1, r5, r6, r8, sp, lr}^
 7ec:	00632e65 	rsbeq	r2, r3, r5, ror #28
 7f0:	00000001 	andeq	r0, r0, r1
 7f4:	64020500 	strvs	r0, [r2], #-1280	; 0x500
 7f8:	14000090 	strne	r0, [r0], #-144	; 0x90
 7fc:	4e2f3014 	miaTTmi	acc0, r4, r3
 800:	022f3114 	eoreq	r3, pc, #20, 2
 804:	01010004 	tsteq	r1, r4
 808:	00000093 	muleq	r0, r3, r0
 80c:	007d0002 	rsbseq	r0, sp, r2
 810:	01020000 	mrseq	r0, (UNDEF: 2)
 814:	000d0efb 	strdeq	r0, [sp], -fp
 818:	01010101 	tsteq	r1, r1, lsl #2
 81c:	01000000 	mrseq	r0, (UNDEF: 0)
 820:	63010000 	movwvs	r0, #4096	; 0x1000
 824:	30343173 	eorscc	r3, r4, r3, ror r1
 828:	72732d65 	rsbsvc	r2, r3, #6464	; 0x1940
 82c:	552f0063 	strpl	r0, [pc, #-99]!	; 7d1 <_start-0x782f>
 830:	73726573 	cmnvc	r2, #482344960	; 0x1cc00000
 834:	6972622f 	ldmdbvs	r2!, {r0, r1, r2, r3, r5, r9, sp, lr}^
 838:	756a6e61 	strbvc	r6, [sl, #-3681]!	; 0xe61
 83c:	65442f6e 	strbvs	r2, [r4, #-3950]	; 0xf6e
 840:	6f746b73 	svcvs	0x00746b73
 844:	63732f70 	cmnvs	r3, #112, 30	; 0x1c0
 848:	6c6f6f68 	stclvs	15, cr6, [pc], #-416	; 6b0 <_start-0x7950>
 84c:	6e69572f 	cdpvs	7, 6, cr5, cr9, cr15, {1}
 850:	31726574 	cmncc	r2, r4, ror r5
 854:	2f303239 	svccs	0x00303239
 858:	34315343 	ldrtcc	r5, [r1], #-835	; 0x343
 85c:	632f4530 	teqvs	pc, #48, 10	; 0xc000000
 860:	30343173 	eorscc	r3, r4, r3, ror r1
 864:	30322d65 	eorscc	r2, r2, r5, ror #26
 868:	2f6e6977 	svccs	0x006e6977
 86c:	7062696c 	rsbvc	r6, r2, ip, ror #18
 870:	63000069 	movwvs	r0, #105	; 0x69
 874:	6e61656c 	cdpvs	5, 6, cr6, cr1, cr12, {3}
 878:	6265722d 	rsbvs	r7, r5, #-805306366	; 0xd0000002
 87c:	2e746f6f 	cdpcs	15, 7, cr6, cr4, cr15, {3}
 880:	00010063 	andeq	r0, r1, r3, rrx
 884:	69707200 	ldmdbvs	r0!, {r9, ip, sp, lr}^
 888:	0200682e 	andeq	r6, r0, #3014656	; 0x2e0000
 88c:	00000000 	andeq	r0, r0, r0
 890:	90840205 	addls	r0, r4, r5, lsl #4
 894:	2f150000 	svccs	0x00150000
 898:	06024b83 	streq	r4, [r2], -r3, lsl #23
 89c:	9a010100 	bls	40ca4 <__bss_end__+0x36d1c>
 8a0:	02000000 	andeq	r0, r0, #0
 8a4:	00007700 	andeq	r7, r0, r0, lsl #14
 8a8:	fb010200 	blx	410b2 <__bss_end__+0x3712a>
 8ac:	01000d0e 	tsteq	r0, lr, lsl #26
 8b0:	00010101 	andeq	r0, r1, r1, lsl #2
 8b4:	00010000 	andeq	r0, r1, r0
 8b8:	73630100 	cmnvc	r3, #0, 2
 8bc:	65303431 	ldrvs	r3, [r0, #-1073]!	; 0x431
 8c0:	6372732d 	cmnvs	r2, #-1275068416	; 0xb4000000
 8c4:	73552f00 	cmpvc	r5, #0, 30
 8c8:	2f737265 	svccs	0x00737265
 8cc:	61697262 	cmnvs	r9, r2, ror #4
 8d0:	6e756a6e 	vsubvs.f32	s13, s10, s29
 8d4:	7365442f 	cmnvc	r5, #788529152	; 0x2f000000
 8d8:	706f746b 	rsbvc	r7, pc, fp, ror #8
 8dc:	6863732f 	stmdavs	r3!, {r0, r1, r2, r3, r5, r8, r9, ip, sp, lr}^
 8e0:	2f6c6f6f 	svccs	0x006c6f6f
 8e4:	746e6957 	strbtvc	r6, [lr], #-2391	; 0x957
 8e8:	39317265 	ldmdbcc	r1!, {r0, r2, r5, r6, r9, ip, sp, lr}
 8ec:	432f3032 	teqmi	pc, #50	; 0x32
 8f0:	30343153 	eorscc	r3, r4, r3, asr r1
 8f4:	73632f45 	cmnvc	r3, #276	; 0x114
 8f8:	65303431 	ldrvs	r3, [r0, #-1073]!	; 0x431
 8fc:	7730322d 	ldrvc	r3, [r0, -sp, lsr #4]!
 900:	6c2f6e69 	stcvs	14, cr6, [pc], #-420	; 764 <_start-0x789c>
 904:	69706269 	ldmdbvs	r0!, {r0, r3, r5, r6, r9, sp, lr}^
 908:	73630000 	cmnvc	r3, #0
 90c:	74726174 	ldrbtvc	r6, [r2], #-372	; 0x174
 910:	0100632e 	tsteq	r0, lr, lsr #6
 914:	70720000 	rsbsvc	r0, r2, r0
 918:	00682e69 	rsbeq	r2, r8, r9, ror #28
 91c:	00000002 	andeq	r0, r0, r2
 920:	ac020500 	cfstr32ge	mvfx0, [r2], {-0}
 924:	03000090 	movweq	r0, #144	; 0x90
 928:	3132010c 	teqcc	r2, ip, lsl #2
 92c:	002f2d2f 	eoreq	r2, pc, pc, lsr #26
 930:	49010402 	stmdbmi	r1, {r1, sl}
 934:	2f4a0f03 	svccs	0x004a0f03
 938:	01000602 	tsteq	r0, r2, lsl #12
 93c:	00009901 	andeq	r9, r0, r1, lsl #18
 940:	77000200 	strvc	r0, [r0, -r0, lsl #4]
 944:	02000000 	andeq	r0, r0, #0
 948:	0d0efb01 	vstreq	d15, [lr, #-4]
 94c:	01010100 	mrseq	r0, (UNDEF: 17)
 950:	00000001 	andeq	r0, r0, r1
 954:	01000001 	tsteq	r0, r1
 958:	34317363 	ldrtcc	r7, [r1], #-867	; 0x363
 95c:	732d6530 	teqvc	sp, #48, 10	; 0xc000000
 960:	2f006372 	svccs	0x00006372
 964:	72657355 	rsbvc	r7, r5, #1409286145	; 0x54000001
 968:	72622f73 	rsbvc	r2, r2, #460	; 0x1cc
 96c:	6a6e6169 	bvs	1b98f18 <__bss_end__+0x1b8ef90>
 970:	442f6e75 	strtmi	r6, [pc], #-3701	; 978 <_start-0x7688>
 974:	746b7365 	strbtvc	r7, [fp], #-869	; 0x365
 978:	732f706f 	teqvc	pc, #111	; 0x6f
 97c:	6f6f6863 	svcvs	0x006f6863
 980:	69572f6c 	ldmdbvs	r7, {r2, r3, r5, r6, r8, r9, sl, fp, sp}^
 984:	7265746e 	rsbvc	r7, r5, #1845493760	; 0x6e000000
 988:	30323931 	eorscc	r3, r2, r1, lsr r9
 98c:	3153432f 	cmpcc	r3, pc, lsr #6
 990:	2f453034 	svccs	0x00453034
 994:	34317363 	ldrtcc	r7, [r1], #-867	; 0x363
 998:	322d6530 	eorcc	r6, sp, #48, 10	; 0xc000000
 99c:	6e697730 	mcrvs	7, 3, r7, cr9, cr0, {1}
 9a0:	62696c2f 	rsbvs	r6, r9, #12032	; 0x2f00
 9a4:	00006970 	andeq	r6, r0, r0, ror r9
 9a8:	6f626572 	svcvs	0x00626572
 9ac:	632e746f 	teqvs	lr, #1862270976	; 0x6f000000
 9b0:	00000100 	andeq	r0, r0, r0, lsl #2
 9b4:	2e697072 	mcrcs	0, 3, r7, cr9, cr2, {3}
 9b8:	00020068 	andeq	r0, r2, r8, rrx
 9bc:	05000000 	streq	r0, [r0, #-0]
 9c0:	0090e002 	addseq	lr, r0, r2
 9c4:	010d0300 	mrseq	r0, SP_mon
 9c8:	852f3114 	strhi	r3, [pc, #-276]!	; 8bc <_start-0x7744>
 9cc:	4d4b2f15 	stclmi	15, cr2, [fp, #-84]	; 0xffffffac
 9d0:	5235672f 	eorspl	r6, r5, #12320768	; 0xbc0000
 9d4:	00100267 	andseq	r0, r0, r7, ror #4
 9d8:	00a30101 	adceq	r0, r3, r1, lsl #2
 9dc:	00020000 	andeq	r0, r2, r0
 9e0:	00000076 	andeq	r0, r0, r6, ror r0
 9e4:	0efb0102 	cdpeq	1, 15, cr0, cr11, cr2, {0}
 9e8:	0101000d 	tsteq	r1, sp
 9ec:	00000101 	andeq	r0, r0, r1, lsl #2
 9f0:	00000100 	andeq	r0, r0, r0, lsl #2
 9f4:	31736301 	cmncc	r3, r1, lsl #6
 9f8:	2d653034 	stclcs	0, cr3, [r5, #-208]!	; 0xffffff30
 9fc:	00637273 	rsbeq	r7, r3, r3, ror r2
 a00:	6573552f 	ldrbvs	r5, [r3, #-1327]!	; 0x52f
 a04:	622f7372 	eorvs	r7, pc, #-939524095	; 0xc8000001
 a08:	6e616972 	mcrvs	9, 3, r6, cr1, cr2, {3}
 a0c:	2f6e756a 	svccs	0x006e756a
 a10:	6b736544 	blvs	1cd9f28 <__bss_end__+0x1ccffa0>
 a14:	2f706f74 	svccs	0x00706f74
 a18:	6f686373 	svcvs	0x00686373
 a1c:	572f6c6f 	strpl	r6, [pc, -pc, ror #24]!
 a20:	65746e69 	ldrbvs	r6, [r4, #-3689]!	; 0xe69
 a24:	32393172 	eorscc	r3, r9, #-2147483620	; 0x8000001c
 a28:	53432f30 	movtpl	r2, #16176	; 0x3f30
 a2c:	45303431 	ldrmi	r3, [r0, #-1073]!	; 0x431
 a30:	3173632f 	cmncc	r3, pc, lsr #6
 a34:	2d653034 	stclcs	0, cr3, [r5, #-208]!	; 0xffffff30
 a38:	69773032 	ldmdbvs	r7!, {r1, r4, r5, ip, sp}^
 a3c:	696c2f6e 	stmdbvs	ip!, {r1, r2, r3, r5, r6, r8, r9, sl, fp, sp}^
 a40:	00697062 	rsbeq	r7, r9, r2, rrx
 a44:	6d697400 	cfstrdvs	mvd7, [r9, #-0]
 a48:	632e7265 	teqvs	lr, #1342177286	; 0x50000006
 a4c:	00000100 	andeq	r0, r0, r0, lsl #2
 a50:	2e697072 	mcrcs	0, 3, r7, cr9, cr2, {3}
 a54:	00020068 	andeq	r0, r2, r8, rrx
 a58:	05000000 	streq	r0, [r0, #-0]
 a5c:	00915402 	addseq	r5, r1, r2, lsl #8
 a60:	2f141600 	svccs	0x00141600
 a64:	0402002d 	streq	r0, [r2], #-45	; 0x2d
 a68:	062e0601 	strteq	r0, [lr], -r1, lsl #12
 a6c:	4b2f316d 	blmi	bcd028 <__bss_end__+0xbc30a0>
 a70:	3031324d 	eorscc	r3, r1, sp, asr #4
 a74:	6a2f4c4b 	bvs	bd3ba8 <__bss_end__+0xbc9c20>
 a78:	2f842f2f 	svccs	0x00842f2f
 a7c:	01000802 	tsteq	r0, r2, lsl #16
 a80:	00018301 	andeq	r8, r1, r1, lsl #6
 a84:	ce000200 	cdpgt	2, 0, cr0, cr0, cr0, {0}
 a88:	02000000 	andeq	r0, r0, #0
 a8c:	0d0efb01 	vstreq	d15, [lr, #-4]
 a90:	01010100 	mrseq	r0, (UNDEF: 17)
 a94:	00000001 	andeq	r0, r0, r1
 a98:	01000001 	tsteq	r0, r1
 a9c:	34317363 	ldrtcc	r7, [r1], #-867	; 0x363
 aa0:	732d6530 	teqvc	sp, #48, 10	; 0xc000000
 aa4:	2f006372 	svccs	0x00006372
 aa8:	72657355 	rsbvc	r7, r5, #1409286145	; 0x54000001
 aac:	72622f73 	rsbvc	r2, r2, #460	; 0x1cc
 ab0:	6a6e6169 	bvs	1b9905c <__bss_end__+0x1b8f0d4>
 ab4:	442f6e75 	strtmi	r6, [pc], #-3701	; abc <_start-0x7544>
 ab8:	746b7365 	strbtvc	r7, [fp], #-869	; 0x365
 abc:	732f706f 	teqvc	pc, #111	; 0x6f
 ac0:	6f6f6863 	svcvs	0x006f6863
 ac4:	69572f6c 	ldmdbvs	r7, {r2, r3, r5, r6, r8, r9, sl, fp, sp}^
 ac8:	7265746e 	rsbvc	r7, r5, #1845493760	; 0x6e000000
 acc:	30323931 	eorscc	r3, r2, r1, lsr r9
 ad0:	3153432f 	cmpcc	r3, pc, lsr #6
 ad4:	2f453034 	svccs	0x00453034
 ad8:	34317363 	ldrtcc	r7, [r1], #-867	; 0x363
 adc:	322d6530 	eorcc	r6, sp, #48, 10	; 0xc000000
 ae0:	6e697730 	mcrvs	7, 3, r7, cr9, cr0, {1}
 ae4:	62696c2f 	rsbvs	r6, r9, #12032	; 0x2f00
 ae8:	632f6970 	teqvs	pc, #112, 18	; 0x1c0000
 aec:	30343173 	eorscc	r3, r4, r3, ror r1
 af0:	72732d65 	rsbsvc	r2, r3, #6464	; 0x1940
 af4:	552f0063 	strpl	r0, [pc, #-99]!	; a99 <_start-0x7567>
 af8:	73726573 	cmnvc	r2, #482344960	; 0x1cc00000
 afc:	6972622f 	ldmdbvs	r2!, {r0, r1, r2, r3, r5, r9, sp, lr}^
 b00:	756a6e61 	strbvc	r6, [sl, #-3681]!	; 0xe61
 b04:	65442f6e 	strbvs	r2, [r4, #-3950]	; 0xf6e
 b08:	6f746b73 	svcvs	0x00746b73
 b0c:	63732f70 	cmnvs	r3, #112, 30	; 0x1c0
 b10:	6c6f6f68 	stclvs	15, cr6, [pc], #-416	; 978 <_start-0x7688>
 b14:	6e69572f 	cdpvs	7, 6, cr5, cr9, cr15, {1}
 b18:	31726574 	cmncc	r2, r4, ror r5
 b1c:	2f303239 	svccs	0x00303239
 b20:	34315343 	ldrtcc	r5, [r1], #-835	; 0x343
 b24:	632f4530 	teqvs	pc, #48, 10	; 0xc000000
 b28:	30343173 	eorscc	r3, r4, r3, ror r1
 b2c:	30322d65 	eorscc	r2, r2, r5, ror #26
 b30:	2f6e6977 	svccs	0x006e6977
 b34:	7062696c 	rsbvc	r6, r2, ip, ror #18
 b38:	67000069 	strvs	r0, [r0, -r9, rrx]
 b3c:	2e6f6970 	mcrcs	9, 3, r6, cr15, cr0, {3}
 b40:	00010063 	andeq	r0, r1, r3, rrx
 b44:	69706700 	ldmdbvs	r0!, {r8, r9, sl, sp, lr}^
 b48:	00682e6f 	rsbeq	r2, r8, pc, ror #28
 b4c:	72000002 	andvc	r0, r0, #2
 b50:	682e6970 	stmdavs	lr!, {r4, r5, r6, r8, fp, sp, lr}
 b54:	00000300 	andeq	r0, r0, r0, lsl #6
 b58:	02050000 	andeq	r0, r5, #0
 b5c:	000091dc 	ldrdeq	r9, [r0], -ip
 b60:	4e013e03 	cdpmi	14, 0, cr3, cr1, cr3, {0}
 b64:	21086950 	tstcs	r8, r0, asr r9
 b68:	67676767 	strbvs	r6, [r7, -r7, ror #14]!
 b6c:	4b326767 	blmi	c9a910 <__bss_end__+0xc90988>
 b70:	31dc2208 	bicscc	r2, ip, r8, lsl #4
 b74:	504e1351 	subpl	r1, lr, r1, asr r3
 b78:	5031be30 	eorspl	fp, r1, r0, lsr lr
 b7c:	304f4d13 	subcc	r4, pc, r3, lsl sp	; <UNPREDICTABLE>
 b80:	69504cc0 	ldmdbvs	r0, {r6, r7, sl, fp, lr}^
 b84:	67672108 	strbvs	r2, [r7, -r8, lsl #2]!
 b88:	67676767 	strbvs	r6, [r7, -r7, ror #14]!
 b8c:	21084b32 	tstcs	r8, r2, lsr fp
 b90:	2f504ca3 	svccs	0x00504ca3
 b94:	75036984 	strvc	r6, [r3, #-2436]	; 0x984
 b98:	2e0c0382 	cdpcs	3, 0, cr0, cr12, cr2, {4}
 b9c:	4b4e304d 	blmi	138ccd8 <__bss_end__+0x1382d50>
 ba0:	6b6a4d4c 	blvs	1a940d8 <__bss_end__+0x1a8a150>
 ba4:	67210869 	strvs	r0, [r1, -r9, ror #16]!
 ba8:	67676767 	strbvs	r6, [r7, -r7, ror #14]!
 bac:	084b3267 	stmdaeq	fp, {r0, r1, r2, r5, r6, r9, ip, sp}^
 bb0:	5130c022 	teqpl	r0, r2, lsr #32
 bb4:	30504e13 	subscc	r4, r0, r3, lsl lr
 bb8:	31ba1803 			; <UNDEFINED> instruction: 0x31ba1803
 bbc:	522f4c9f 	eorpl	r4, pc, #40704	; 0x9f00
 bc0:	4b2f4e4d 	blmi	bd44fc <__bss_end__+0xbca574>
 bc4:	67684b67 	strbvs	r4, [r8, -r7, ror #22]!
 bc8:	672f4c67 	strvs	r4, [pc, -r7, ror #24]!
 bcc:	4c6e4b2f 	stclmi	11, cr4, [lr], #-188	; 0xffffff44
 bd0:	674b2f4e 	strbvs	r2, [fp, -lr, asr #30]
 bd4:	6767684b 	strbvs	r6, [r7, -fp, asr #16]!
 bd8:	2f672f4c 	svccs	0x00672f4c
 bdc:	4e4b6d4b 	cdpmi	13, 4, cr6, cr11, cr11, {2}
 be0:	00674b2f 	rsbeq	r4, r7, pc, lsr #22
 be4:	06010402 	streq	r0, [r1], -r2, lsl #8
 be8:	9f680666 	svcls	0x00680666
 bec:	0402002f 	streq	r0, [r2], #-47	; 0x2f
 bf0:	064a0601 	strbeq	r0, [sl], -r1, lsl #12
 bf4:	73032f68 	movwvc	r2, #16232	; 0x3f68
 bf8:	2e0e034a 	cdpcs	3, 0, cr0, cr14, cr10, {2}
 bfc:	2f4e4c4d 	svccs	0x004e4c4d
 c00:	02bcbc4b 	adcseq	fp, ip, #19200	; 0x4b00
 c04:	01010006 	tsteq	r1, r6
 c08:	00000101 	andeq	r0, r0, r1, lsl #2
 c0c:	00ca0002 	sbceq	r0, sl, r2
 c10:	01020000 	mrseq	r0, (UNDEF: 2)
 c14:	000d0efb 	strdeq	r0, [sp], -fp
 c18:	01010101 	tsteq	r1, r1, lsl #2
 c1c:	01000000 	mrseq	r0, (UNDEF: 0)
 c20:	6d010000 	stcvs	0, cr0, [r1, #-0]
 c24:	72732d79 	rsbsvc	r2, r3, #7744	; 0x1e40
 c28:	552f0063 	strpl	r0, [pc, #-99]!	; bcd <_start-0x7433>
 c2c:	73726573 	cmnvc	r2, #482344960	; 0x1cc00000
 c30:	6972622f 	ldmdbvs	r2!, {r0, r1, r2, r3, r5, r9, sp, lr}^
 c34:	756a6e61 	strbvc	r6, [sl, #-3681]!	; 0xe61
 c38:	65442f6e 	strbvs	r2, [r4, #-3950]	; 0xf6e
 c3c:	6f746b73 	svcvs	0x00746b73
 c40:	63732f70 	cmnvs	r3, #112, 30	; 0x1c0
 c44:	6c6f6f68 	stclvs	15, cr6, [pc], #-416	; aac <_start-0x7554>
 c48:	6e69572f 	cdpvs	7, 6, cr5, cr9, cr15, {1}
 c4c:	31726574 	cmncc	r2, r4, ror r5
 c50:	2f303239 	svccs	0x00303239
 c54:	34315343 	ldrtcc	r5, [r1], #-835	; 0x343
 c58:	632f4530 	teqvs	pc, #48, 10	; 0xc000000
 c5c:	30343173 	eorscc	r3, r4, r3, ror r1
 c60:	30322d65 	eorscc	r2, r2, r5, ror #26
 c64:	2f6e6977 	svccs	0x006e6977
 c68:	7062696c 	rsbvc	r6, r2, ip, ror #18
 c6c:	73632f69 	cmnvc	r3, #420	; 0x1a4
 c70:	65303431 	ldrvs	r3, [r0, #-1073]!	; 0x431
 c74:	6372732d 	cmnvs	r2, #-1275068416	; 0xb4000000
 c78:	73552f00 	cmpvc	r5, #0, 30
 c7c:	2f737265 	svccs	0x00737265
 c80:	61697262 	cmnvs	r9, r2, ror #4
 c84:	6e756a6e 	vsubvs.f32	s13, s10, s29
 c88:	7365442f 	cmnvc	r5, #788529152	; 0x2f000000
 c8c:	706f746b 	rsbvc	r7, pc, fp, ror #8
 c90:	6863732f 	stmdavs	r3!, {r0, r1, r2, r3, r5, r8, r9, ip, sp, lr}^
 c94:	2f6c6f6f 	svccs	0x006c6f6f
 c98:	746e6957 	strbtvc	r6, [lr], #-2391	; 0x957
 c9c:	39317265 	ldmdbcc	r1!, {r0, r2, r5, r6, r9, ip, sp, lr}
 ca0:	432f3032 	teqmi	pc, #50	; 0x32
 ca4:	30343153 	eorscc	r3, r4, r3, asr r1
 ca8:	73632f45 	cmnvc	r3, #276	; 0x114
 cac:	65303431 	ldrvs	r3, [r0, #-1073]!	; 0x431
 cb0:	7730322d 	ldrvc	r3, [r0, -sp, lsr #4]!
 cb4:	6c2f6e69 	stcvs	14, cr6, [pc], #-420	; b18 <_start-0x74e8>
 cb8:	69706269 	ldmdbvs	r0!, {r0, r3, r5, r6, r9, sp, lr}^
 cbc:	61750000 	cmnvs	r5, r0
 cc0:	632e7472 	teqvs	lr, #1912602624	; 0x72000000
 cc4:	00000100 	andeq	r0, r0, r0, lsl #2
 cc8:	6f697067 	svcvs	0x00697067
 ccc:	0200682e 	andeq	r6, r0, #3014656	; 0x2e0000
 cd0:	70720000 	rsbsvc	r0, r2, r0
 cd4:	00682e69 	rsbeq	r2, r8, r9, ror #28
 cd8:	00000003 	andeq	r0, r0, r3
 cdc:	7c020500 	cfstr32vc	mvfx0, [r2], {-0}
 ce0:	03000097 	movweq	r0, #151	; 0x97
 ce4:	33300136 	teqcc	r0, #-2147483635	; 0x8000000d
 ce8:	d8306d67 	ldmdale	r0!, {r0, r1, r2, r5, r6, r8, sl, fp, sp, lr}
 cec:	67676730 			; <UNDEFINED> instruction: 0x67676730
 cf0:	86686767 	strbthi	r6, [r8], -r7, ror #14
 cf4:	306a672f 	rsbcc	r6, sl, pc, lsr #14
 cf8:	2f696767 	svccs	0x00696767
 cfc:	674c6a67 	strbvs	r6, [ip, -r7, ror #20]
 d00:	302f2fc1 	eorcc	r2, pc, r1, asr #31
 d04:	3049682f 	subcc	r6, r9, pc, lsr #16
 d08:	01000202 	tsteq	r0, r2, lsl #4
 d0c:	Address 0x0000000000000d0c is out of bounds.


Disassembly of section .debug_str:

00000000 <.debug_str>:
   0:	53465047 	movtpl	r5, #24647	; 0x6047
   4:	00314c45 	eorseq	r4, r1, r5, asr #24
   8:	53465047 	movtpl	r5, #24647	; 0x6047
   c:	00324c45 	eorseq	r4, r2, r5, asr #24
  10:	6f697067 	svcvs	0x00697067
  14:	726c635f 	rsbvc	r6, ip, #2080374785	; 0x7c000001
  18:	50470030 	subpl	r0, r7, r0, lsr r0
  1c:	30524c43 	subscc	r4, r2, r3, asr #24
  20:	73616600 	cmnvc	r1, #0, 12
  24:	70675f74 	rsbvc	r5, r7, r4, ror pc
  28:	775f6f69 	ldrbvc	r6, [pc, -r9, ror #30]
  2c:	65746972 	ldrbvs	r6, [r4, #-2418]!	; 0x972
  30:	72696600 	rsbvc	r6, r9, #0, 12
  34:	725f7473 	subsvc	r7, pc, #1929379840	; 0x73000000
  38:	00646165 	rsbeq	r6, r4, r5, ror #2
  3c:	666c6168 	strbtvs	r6, [ip], -r8, ror #2
  40:	6c65645f 	cfstrdvs	mvd6, [r5], #-380	; 0xfffffe84
  44:	70007961 	andvc	r7, r0, r1, ror #18
  48:	6f697265 	svcvs	0x00697265
  4c:	6f6c0064 	svcvs	0x006c0064
  50:	6c20676e 	stcvs	7, cr6, [r0], #-440	; 0xfffffe48
  54:	20676e6f 	rsbcs	r6, r7, pc, ror #28
  58:	69736e75 	ldmdbvs	r3!, {r0, r2, r4, r5, r6, r9, sl, fp, sp, lr}^
  5c:	64656e67 	strbtvs	r6, [r5], #-3687	; 0xe67
  60:	746e6920 	strbtvc	r6, [lr], #-2336	; 0x920
  64:	73616600 	cmnvc	r1, #0, 12
  68:	70675f74 	rsbvc	r5, r7, r4, ror pc
  6c:	735f6f69 	cmpvc	pc, #420	; 0x1a4
  70:	6f5f7465 	svcvs	0x005f7465
  74:	636e006e 	cmnvs	lr, #110	; 0x6e
  78:	656c6379 	strbvs	r6, [ip, #-889]!	; 0x379
  7c:	6f6c0073 	svcvs	0x006c0073
  80:	6c20676e 	stcvs	7, cr6, [r0], #-440	; 0xfffffe48
  84:	20676e6f 	rsbcs	r6, r7, pc, ror #28
  88:	00746e69 	rsbseq	r6, r4, r9, ror #28
  8c:	5f746f74 	svcpl	0x00746f74
  90:	00727265 	rsbseq	r7, r2, r5, ror #4
  94:	755f7773 	ldrbvc	r7, [pc, #-1907]	; fffff929 <__bss_end__+0xffff59a1>
  98:	5f747261 	svcpl	0x00747261
  9c:	38746567 	ldmdacc	r4!, {r0, r1, r2, r5, r6, r8, sl, sp, lr}^
  a0:	53504700 	cmppl	r0, #0, 14
  a4:	00305445 	eorseq	r5, r0, r5, asr #8
  a8:	45535047 	ldrbmi	r5, [r3, #-71]	; 0x47
  ac:	47003154 	smlsdmi	r0, r4, r1, r3
  b0:	56454c50 			; <UNDEFINED> instruction: 0x56454c50
  b4:	50470030 	subpl	r0, r7, r0, lsr r0
  b8:	3156454c 	cmpcc	r6, ip, asr #10
  bc:	746f6e00 	strbtvc	r6, [pc], #-3584	; c4 <_start-0x7f3c>
  c0:	6e69616d 	powvsez	f6, f1, #5.0
  c4:	73616600 	cmnvc	r1, #0, 12
  c8:	70675f74 	rsbvc	r5, r7, r4, ror pc
  cc:	735f6f69 	cmpvc	pc, #420	; 0x1a4
  d0:	6f5f7465 	svcvs	0x005f7465
  d4:	6c006666 	stcvs	6, cr6, [r0], {102}	; 0x66
  d8:	655f676f 	ldrbvs	r6, [pc, #-1903]	; fffff971 <__bss_end__+0xffff59e9>
  dc:	745f746e 	ldrbvc	r7, [pc], #-1134	; e4 <_start-0x7f1c>
  e0:	554e4700 	strbpl	r4, [lr, #-1792]	; 0x700
  e4:	34204320 	strtcc	r4, [r0], #-800	; 0x320
  e8:	332e382e 	teqcc	lr, #3014656	; 0x2e0000
  ec:	636d2d20 	cmnvs	sp, #32, 26	; 0x800
  f0:	613d7570 	teqvs	sp, r0, ror r5
  f4:	31316d72 	teqcc	r1, r2, ror sp
  f8:	7a6a3637 	bvc	1a8d9dc <__bss_end__+0x1a83a54>
  fc:	20732d66 	rsbscs	r2, r3, r6, ror #26
 100:	75746d2d 	ldrbvc	r6, [r4, #-3373]!	; 0xd2d
 104:	613d656e 	teqvs	sp, lr, ror #10
 108:	31316d72 	teqcc	r1, r2, ror sp
 10c:	7a6a3637 	bvc	1a8d9f0 <__bss_end__+0x1a83a68>
 110:	20732d66 	rsbscs	r2, r3, r6, ror #26
 114:	6467672d 	strbtvs	r6, [r7], #-1837	; 0x72d
 118:	4f2d2062 	svcmi	0x002d2062
 11c:	732d2033 	teqvc	sp, #51	; 0x33
 120:	673d6474 			; <UNDEFINED> instruction: 0x673d6474
 124:	3939756e 	ldmdbcc	r9!, {r1, r2, r3, r5, r6, r8, sl, ip, sp, lr}
 128:	66662d20 	strbtvs	r2, [r6], -r0, lsr #26
 12c:	73656572 	cmnvc	r5, #478150656	; 0x1c800000
 130:	646e6174 	strbtvs	r6, [lr], #-372	; 0x174
 134:	00676e69 	rsbeq	r6, r7, r9, ror #28
 138:	755f7773 	ldrbvc	r7, [pc, #-1907]	; fffff9cd <__bss_end__+0xffff5a45>
 13c:	5f747261 	svcpl	0x00747261
 140:	38747570 	ldmdacc	r4!, {r4, r5, r6, r8, sl, ip, sp, lr}^
 144:	69707200 	ldmdbvs	r0!, {r9, ip, sp, lr}^
 148:	7365725f 	cmnvc	r5, #-268435451	; 0xf0000005
 14c:	705f7465 	subsvc	r7, pc, r5, ror #8
 150:	00637475 	rsbeq	r7, r3, r5, ror r4
 154:	53465047 	movtpl	r5, #24647	; 0x6047
 158:	00304c45 	eorseq	r4, r0, r5, asr #24
 15c:	6573552f 	ldrbvs	r5, [r3, #-1327]!	; 0x52f
 160:	622f7372 	eorvs	r7, pc, #-939524095	; 0xc8000001
 164:	6e616972 	mcrvs	9, 3, r6, cr1, cr2, {3}
 168:	2f6e756a 	svccs	0x006e756a
 16c:	6b736544 	blvs	1cd9684 <__bss_end__+0x1ccf6fc>
 170:	2f706f74 	svccs	0x00706f74
 174:	6f686373 	svcvs	0x00686373
 178:	532f6c6f 	teqpl	pc, #28416	; 0x6f00
 17c:	6e697270 	mcrvs	2, 3, r7, cr9, cr0, {3}
 180:	32393167 	eorscc	r3, r9, #-1073741799	; 0xc0000019
 184:	53432f30 	movtpl	r2, #16176	; 0x3f30
 188:	4c303432 	cfldrsmi	mvf3, [r0], #-200	; 0xffffff38
 18c:	73632f58 	cmnvc	r3, #88, 30	; 0x160
 190:	6c303432 	cfldrsvs	mvf3, [r0], #-200	; 0xffffff38
 194:	30322d78 	eorscc	r2, r2, r8, ror sp
 198:	2f727073 	svccs	0x00727073
 19c:	7362616c 	cmnvc	r2, #108, 2
 1a0:	2d33312f 	ldfcss	f3, [r3, #-188]!	; 0xffffff44
 1a4:	632f7269 	teqvs	pc, #-1879048186	; 0x90000006
 1a8:	2f65646f 	svccs	0x0065646f
 1ac:	65696c63 	strbvs	r6, [r9, #-3171]!	; 0xc63
 1b0:	4700746e 	strmi	r7, [r0, -lr, ror #8]
 1b4:	45534650 	ldrbmi	r4, [r3, #-1616]	; 0x650
 1b8:	4700334c 	strmi	r3, [r0, -ip, asr #6]
 1bc:	45534650 	ldrbmi	r4, [r3, #-1616]	; 0x650
 1c0:	4700344c 	strmi	r3, [r0, -ip, asr #8]
 1c4:	45534650 	ldrbmi	r4, [r3, #-1616]	; 0x650
 1c8:	5f00354c 	svcpl	0x0000354c
 1cc:	4e55465f 	mrcmi	6, 2, r4, cr5, cr15, {2}
 1d0:	4f495443 	svcmi	0x00495443
 1d4:	005f5f4e 	subseq	r5, pc, lr, asr #30
 1d8:	5f6d756e 	svcpl	0x006d756e
 1dc:	6e617274 	mcrvs	2, 3, r7, cr1, cr4, {3}
 1e0:	69746973 	ldmdbvs	r4!, {r0, r1, r4, r5, r6, r8, fp, sp, lr}^
 1e4:	00736e6f 	rsbseq	r6, r3, pc, ror #28
 1e8:	726f6873 	rsbvc	r6, pc, #7536640	; 0x730000
 1ec:	6e752074 	mrcvs	0, 3, r2, cr5, cr4, {3}
 1f0:	6e676973 	mcrvs	9, 3, r6, cr7, cr3, {3}
 1f4:	69206465 	stmdbvs	r0!, {r0, r2, r5, r6, sl, sp, lr}
 1f8:	6400746e 	strvs	r7, [r0], #-1134	; 0x46e
 1fc:	5f706d75 	svcpl	0x00706d75
 200:	706d6173 	rsbvc	r6, sp, r3, ror r1
 204:	0073656c 	rsbseq	r6, r3, ip, ror #10
 208:	616d5f6e 	cmnvs	sp, lr, ror #30
 20c:	70670078 	rsbvc	r0, r7, r8, ror r0
 210:	665f6f69 	ldrbvs	r6, [pc], -r9, ror #30
 214:	306c6573 	rsbcc	r6, ip, r3, ror r5
 218:	43504700 	cmpmi	r0, #0, 14
 21c:	0031524c 	eorseq	r5, r1, ip, asr #4
 220:	61656c63 	cmnvs	r5, r3, ror #24
 224:	65725f6e 	ldrbvs	r5, [r2, #-3950]!	; 0xf6e
 228:	746f6f62 	strbtvc	r6, [pc], #-3938	; 230 <_start-0x7dd0>
 22c:	7a697300 	bvc	1a5ce34 <__bss_end__+0x1a52eac>
 230:	70797465 	rsbsvc	r7, r9, r5, ror #8
 234:	72740065 	rsbsvc	r0, r4, #101	; 0x65
 238:	69736e61 	ldmdbvs	r3!, {r0, r5, r6, r9, sl, fp, sp, lr}^
 23c:	6e6f6974 	mcrvs	9, 3, r6, cr15, cr4, {3}
 240:	6675625f 			; <UNDEFINED> instruction: 0x6675625f
 244:	746e6900 	strbtvc	r6, [lr], #-2304	; 0x900
 248:	72707265 	rsbsvc	r7, r0, #1342177286	; 0x50000006
 24c:	5f007465 	svcpl	0x00007465
 250:	0074756f 	rsbseq	r7, r4, pc, ror #10
 254:	6379636e 	cmnvs	r9, #-1207959551	; 0xb8000001
 258:	72617500 	rsbvc	r7, r1, #0, 10
 25c:	796d0074 	stmdbvc	sp!, {r2, r4, r5, r6}^
 260:	5f77735f 	svcpl	0x0077735f
 264:	74726175 	ldrbtvc	r6, [r2], #-373	; 0x175
 268:	7500745f 	strvc	r7, [r0, #-1119]	; 0x45f
 26c:	6769736e 	strbvs	r7, [r9, -lr, ror #6]!
 270:	2064656e 	rsbcs	r6, r4, lr, ror #10
 274:	72616863 	rsbvc	r6, r1, #6488064	; 0x630000
 278:	6f637300 	svcvs	0x00637300
 27c:	73006570 	movwvc	r6, #1392	; 0x570
 280:	74726f68 	ldrbtvc	r6, [r2], #-3944	; 0xf68
 284:	746e6920 	strbtvc	r6, [lr], #-2336	; 0x920
 288:	5f707000 	svcpl	0x00707000
 28c:	64616572 	strbtvs	r6, [r1], #-1394	; 0x572
 290:	6c656400 	cfstrdvs	mvd6, [r5], #-0
 294:	6d5f7961 	ldclvs	9, cr7, [pc, #-388]	; 118 <_start-0x7ee8>
 298:	79630073 	stmdbvc	r3!, {r0, r1, r4, r5, r6}^
 29c:	73656c63 	cmnvc	r5, #25344	; 0x6300
 2a0:	7265705f 	rsbvc	r7, r5, #95	; 0x5f
 2a4:	6365735f 	cmnvs	r5, #2080374785	; 0x7c000001
 2a8:	75616200 	strbvc	r6, [r1, #-512]!	; 0x200
 2ac:	70670064 	rsbvc	r0, r7, r4, rrx
 2b0:	735f6f69 	cmpvc	pc, #420	; 0x1a4
 2b4:	00307465 	eorseq	r7, r0, r5, ror #8
 2b8:	73726966 	cmnvc	r2, #1671168	; 0x198000
 2bc:	61620074 	smcvs	8196	; 0x2004
 2c0:	696c6573 	stmdbvs	ip!, {r0, r1, r4, r5, r6, r8, sl, sp, lr}^
 2c4:	725f656e 	subsvc	r6, pc, #461373440	; 0x1b800000
 2c8:	00646165 	rsbeq	r6, r4, r5, ror #2
 2cc:	6f697067 	svcvs	0x00697067
 2d0:	7465735f 	strbtvc	r7, [r5], #-863	; 0x35f
 2d4:	706e695f 	rsbvc	r6, lr, pc, asr r9
 2d8:	6c007475 	cfstrsvs	mvf7, [r0], {117}	; 0x75
 2dc:	00747361 	rsbseq	r7, r4, r1, ror #6
 2e0:	6f747563 	svcvs	0x00747563
 2e4:	65006666 	strvs	r6, [r0, #-1638]	; 0x666
 2e8:	6c62616e 	stfvse	f6, [r2], #-440	; 0xfffffe48
 2ec:	61635f65 	cmnvs	r3, r5, ror #30
 2f0:	00656863 	rsbeq	r6, r5, r3, ror #16
 2f4:	5f78616d 	svcpl	0x0078616d
 2f8:	6c637963 	stclvs	9, cr7, [r3], #-396	; 0xfffffe74
 2fc:	75007365 	strvc	r7, [r0, #-869]	; 0x365
 300:	38746e69 	ldmdacc	r4!, {r0, r3, r5, r6, r9, sl, fp, sp, lr}^
 304:	6300745f 	movwvs	r7, #1119	; 0x45f
 308:	5f727275 	svcpl	0x00727275
 30c:	64616572 	strbtvs	r6, [r1], #-1394	; 0x572
 310:	63796300 	cmnvs	r9, #0, 6
 314:	705f656c 	subsvc	r6, pc, ip, ror #10
 318:	625f7265 	subsvs	r7, pc, #1342177286	; 0x50000006
 31c:	73007469 	movwvc	r7, #1129	; 0x469
 320:	65706f63 	ldrbvs	r6, [r0, #-3939]!	; 0xf63
 324:	5f00632e 	svcpl	0x0000632e
 328:	756e675f 	strbvc	r6, [lr, #-1887]!	; 0x75f
 32c:	61765f63 	cmnvs	r6, r3, ror #30
 330:	73696c5f 	cmnvc	r9, #24320	; 0x5f00
 334:	696c0074 	stmdbvs	ip!, {r2, r4, r5, r6}^
 338:	702f6362 	eorvc	r6, pc, r2, ror #6
 33c:	746e6972 	strbtvc	r6, [lr], #-2418	; 0x972
 340:	00632e6b 	rsbeq	r2, r3, fp, ror #28
 344:	20554e47 	subscs	r4, r5, r7, asr #28
 348:	2e342043 	cdpcs	0, 3, cr2, cr4, cr3, {2}
 34c:	20332e38 	eorscs	r2, r3, r8, lsr lr
 350:	70636d2d 	rsbvc	r6, r3, sp, lsr #26
 354:	72613d75 	rsbvc	r3, r1, #7488	; 0x1d40
 358:	3731316d 	ldrcc	r3, [r1, -sp, ror #2]!
 35c:	667a6a36 			; <UNDEFINED> instruction: 0x667a6a36
 360:	2d20732d 	stccs	3, cr7, [r0, #-180]!	; 0xffffff4c
 364:	6e75746d 	cdpvs	4, 7, cr7, cr5, cr13, {3}
 368:	72613d65 	rsbvc	r3, r1, #6464	; 0x1940
 36c:	3731316d 	ldrcc	r3, [r1, -sp, ror #2]!
 370:	667a6a36 			; <UNDEFINED> instruction: 0x667a6a36
 374:	2d20732d 	stccs	3, cr7, [r0, #-180]!	; 0xffffff4c
 378:	62646767 	rsbvs	r6, r4, #27000832	; 0x19c0000
 37c:	674f2d20 	strbvs	r2, [pc, -r0, lsr #26]
 380:	74732d20 	ldrbtvc	r2, [r3], #-3360	; 0xd20
 384:	6e673d64 	cdpvs	13, 6, cr3, cr7, cr4, {3}
 388:	20393975 	eorscs	r3, r9, r5, ror r9
 38c:	7266662d 	rsbvc	r6, r6, #47185920	; 0x2d00000
 390:	74736565 	ldrbtvc	r6, [r3], #-1381	; 0x565
 394:	69646e61 	stmdbvs	r4!, {r0, r5, r6, r9, sl, fp, sp, lr}^
 398:	7600676e 	strvc	r6, [r0], -lr, ror #14
 39c:	72705f61 	rsbsvc	r5, r0, #388	; 0x184
 3a0:	6b746e69 	blvs	1d1bd4c <__bss_end__+0x1d11dc4>
 3a4:	765f5f00 	ldrbvc	r5, [pc], -r0, lsl #30
 3a8:	696c5f61 	stmdbvs	ip!, {r0, r5, r6, r8, r9, sl, fp, ip, lr}^
 3ac:	2f007473 	svccs	0x00007473
 3b0:	72657355 	rsbvc	r7, r5, #1409286145	; 0x54000001
 3b4:	72622f73 	rsbvc	r2, r2, #460	; 0x1cc
 3b8:	6a6e6169 	bvs	1b98964 <__bss_end__+0x1b8e9dc>
 3bc:	442f6e75 	strtmi	r6, [pc], #-3701	; 3c4 <_start-0x7c3c>
 3c0:	746b7365 	strbtvc	r7, [fp], #-869	; 0x365
 3c4:	732f706f 	teqvc	pc, #111	; 0x6f
 3c8:	6f6f6863 	svcvs	0x006f6863
 3cc:	69572f6c 	ldmdbvs	r7, {r2, r3, r5, r6, r8, r9, sl, fp, sp}^
 3d0:	7265746e 	rsbvc	r7, r5, #1845493760	; 0x6e000000
 3d4:	30323931 	eorscc	r3, r2, r1, lsr r9
 3d8:	3153432f 	cmpcc	r3, pc, lsr #6
 3dc:	2f453034 	svccs	0x00453034
 3e0:	34317363 	ldrtcc	r7, [r1], #-867	; 0x363
 3e4:	322d6530 	eorcc	r6, sp, #48, 10	; 0xc000000
 3e8:	6e697730 	mcrvs	7, 3, r7, cr9, cr0, {1}
 3ec:	62696c2f 	rsbvs	r6, r9, #12032	; 0x2f00
 3f0:	61006970 	tstvs	r0, r0, ror r9
 3f4:	00736772 	rsbseq	r6, r3, r2, ror r7
 3f8:	70615f5f 	rsbvc	r5, r1, pc, asr pc
 3fc:	72617500 	rsbvc	r7, r1, #0, 10
 400:	75705f74 	ldrbvc	r5, [r0, #-3956]!	; 0xf74
 404:	69006374 	stmdbvs	r0, {r2, r4, r5, r6, r8, r9, sp, lr}
 408:	7265746e 	rsbvc	r7, r5, #1845493760	; 0x6e000000
 40c:	5f6c616e 	svcpl	0x006c616e
 410:	63747570 	cmnvs	r4, #112, 10	; 0x1c000000
 414:	00726168 	rsbseq	r6, r2, r8, ror #2
 418:	5f697072 	svcpl	0x00697072
 41c:	63747570 	cmnvs	r4, #112, 10	; 0x1c000000
 420:	00726168 	rsbseq	r6, r2, r8, ror #2
 424:	6362696c 	cmnvs	r2, #108, 18	; 0x1b0000
 428:	7475702f 	ldrbtvc	r7, [r5], #-47	; 0x2f
 42c:	72616863 	rsbvc	r6, r1, #6488064	; 0x630000
 430:	7200632e 	andvc	r6, r0, #-1207959552	; 0xb8000000
 434:	735f6970 	cmpvc	pc, #112, 18	; 0x1c0000
 438:	705f7465 	subsvc	r7, pc, r5, ror #8
 43c:	00637475 	rsbeq	r7, r3, r5, ror r4
 440:	6362696c 	cmnvs	r2, #108, 18	; 0x1b0000
 444:	7475702f 	ldrbtvc	r7, [r5], #-47	; 0x2f
 448:	00632e6b 	rsbeq	r2, r3, fp, ror #28
 44c:	65746e69 	ldrbvs	r6, [r4, #-3689]!	; 0xe69
 450:	6c616e72 	stclvs	14, cr6, [r1], #-456	; 0xfffffe38
 454:	7475705f 	ldrbtvc	r7, [r5], #-95	; 0x5f
 458:	656e006b 	strbvs	r0, [lr, #-107]!	; 0x6b
 45c:	00705f67 	rsbseq	r5, r0, r7, ror #30
 460:	65766572 	ldrbvs	r6, [r6, #-1394]!	; 0x572
 464:	00657372 	rsbeq	r7, r5, r2, ror r3
 468:	69647369 	stmdbvs	r4!, {r0, r3, r5, r6, r8, r9, ip, sp, lr}^
 46c:	00746967 	rsbseq	r6, r4, r7, ror #18
 470:	73747570 	cmnvc	r4, #112, 10	; 0x1c000000
 474:	0070665f 	rsbseq	r6, r0, pc, asr r6
 478:	65736162 	ldrbvs	r6, [r3, #-354]!	; 0x162
 47c:	67697300 	strbvs	r7, [r9, -r0, lsl #6]!
 480:	5f64656e 	svcpl	0x0064656e
 484:	696c0070 	stmdbvs	ip!, {r4, r5, r6}^
 488:	762f6362 	strtvc	r6, [pc], -r2, ror #6
 48c:	72702d61 	rsbsvc	r2, r0, #6208	; 0x1840
 490:	6b746e69 	blvs	1d1be3c <__bss_end__+0x1d11eb4>
 494:	7200632e 	andvc	r6, r0, #-1207959552	; 0xb8000000
 498:	735f6970 	cmpvc	pc, #112, 18	; 0x1c0000
 49c:	6f5f7465 	svcvs	0x005f7465
 4a0:	75707475 	ldrbvc	r7, [r0, #-1141]!	; 0x475
 4a4:	69770074 	ldmdbvs	r7!, {r2, r4, r5, r6}^
 4a8:	00687464 	rsbeq	r7, r8, r4, ror #8
 4ac:	63747570 	cmnvs	r4, #112, 10	; 0x1c000000
 4b0:	0070665f 	rsbseq	r6, r0, pc, asr r6
 4b4:	74696d65 	strbtvc	r6, [r9], #-3429	; 0xd65
 4b8:	73696400 	cmnvc	r9, #0, 8
 4bc:	656c6261 	strbvs	r6, [ip, #-609]!	; 0x261
 4c0:	6361635f 	cmnvs	r1, #2080374785	; 0x7c000001
 4c4:	63006568 	movwvs	r6, #1384	; 0x568
 4c8:	30343173 	eorscc	r3, r4, r3, ror r1
 4cc:	72732d65 	rsbsvc	r2, r3, #6464	; 0x1940
 4d0:	61632f63 	cmnvs	r3, r3, ror #30
 4d4:	2e656863 	cdpcs	8, 6, cr6, cr5, cr3, {3}
 4d8:	70720063 	rsbsvc	r0, r2, r3, rrx
 4dc:	65725f69 	ldrbvs	r5, [r2, #-3945]!	; 0xf69
 4e0:	746f6f62 	strbtvc	r6, [pc], #-3938	; 4e8 <_start-0x7b18>
 4e4:	31736300 	cmncc	r3, r0, lsl #6
 4e8:	2d653034 	stclcs	0, cr3, [r5, #-208]!	; 0xffffff30
 4ec:	2f637273 	svccs	0x00637273
 4f0:	61656c63 	cmnvs	r5, r3, ror #24
 4f4:	65722d6e 	ldrbvs	r2, [r2, #-3438]!	; 0xd6e
 4f8:	746f6f62 	strbtvc	r6, [pc], #-3938	; 500 <_start-0x7b00>
 4fc:	6300632e 	movwvs	r6, #814	; 0x32e
 500:	30343173 	eorscc	r3, r4, r3, ror r1
 504:	72732d65 	rsbsvc	r2, r3, #6464	; 0x1940
 508:	73632f63 	cmnvc	r3, #396	; 0x18c
 50c:	74726174 	ldrbtvc	r6, [r2], #-372	; 0x174
 510:	5f00632e 	svcpl	0x0000632e
 514:	7373625f 	cmnvc	r3, #-268435451	; 0xf0000005
 518:	6174735f 	cmnvs	r4, pc, asr r3
 51c:	5f5f7472 	svcpl	0x005f7472
 520:	625f5f00 	subsvs	r5, pc, #0, 30
 524:	655f7373 	ldrbvs	r7, [pc, #-883]	; 1b9 <_start-0x7e47>
 528:	5f5f646e 	svcpl	0x005f646e
 52c:	73736200 	cmnvc	r3, #0, 4
 530:	646e655f 	strbtvs	r6, [lr], #-1375	; 0x55f
 534:	73635f00 	cmnvc	r3, #0, 30
 538:	74726174 	ldrbtvc	r6, [r2], #-372	; 0x174
 53c:	5f746100 	svcpl	0x00746100
 540:	72657375 	rsbvc	r7, r5, #-738197503	; 0xd4000001
 544:	76656c5f 			; <UNDEFINED> instruction: 0x76656c5f
 548:	50006c65 	andpl	r6, r0, r5, ror #24
 54c:	41505f4d 	cmpmi	r0, sp, asr #30
 550:	4f575353 	svcmi	0x00575353
 554:	63004452 	movwvs	r4, #1106	; 0x452
 558:	30343173 	eorscc	r3, r4, r3, ror r1
 55c:	72732d65 	rsbsvc	r2, r3, #6464	; 0x1940
 560:	65722f63 	ldrbvs	r2, [r2, #-3939]!	; 0xf63
 564:	746f6f62 	strbtvc	r6, [pc], #-3938	; 56c <_start-0x7a94>
 568:	5000632e 	andpl	r6, r0, lr, lsr #6
 56c:	53525f4d 	cmppl	r2, #308	; 0x134
 570:	575f4354 			; <UNDEFINED> instruction: 0x575f4354
 574:	47464352 	smlsldmi	r4, r6, r2, r3
 578:	4c55465f 	mrrcmi	6, 5, r4, r5, cr15
 57c:	45525f4c 	ldrbmi	r5, [r2, #-3916]	; 0xf4c
 580:	00544553 	subseq	r4, r4, r3, asr r5
 584:	575f4d50 			; <UNDEFINED> instruction: 0x575f4d50
 588:	00474f44 	subeq	r4, r7, r4, asr #30
 58c:	5f746573 	svcpl	0x00746573
 590:	72657375 	rsbvc	r7, r5, #-738197503	; 0xd4000001
 594:	76656c5f 			; <UNDEFINED> instruction: 0x76656c5f
 598:	50006c65 	andpl	r6, r0, r5, ror #24
 59c:	32335455 	eorscc	r5, r3, #1426063360	; 0x55000000
 5a0:	5f4d5000 	svcpl	0x004d5000
 5a4:	43545352 	cmpmi	r4, #1207959553	; 0x48000001
 5a8:	73706300 	cmnvc	r0, #0, 6
 5ac:	69740072 	ldmdbvs	r4!, {r1, r4, r5, r6}^
 5b0:	5f72656d 	svcpl	0x0072656d
 5b4:	5f746567 	svcpl	0x00746567
 5b8:	63657375 	cmnvs	r5, #-738197503	; 0xd4000001
 5bc:	7761725f 			; <UNDEFINED> instruction: 0x7761725f
 5c0:	6c656400 	cfstrdvs	mvd6, [r5], #-0
 5c4:	735f7961 	cmpvc	pc, #1589248	; 0x184000
 5c8:	63006365 	movwvs	r6, #869	; 0x365
 5cc:	30343173 	eorscc	r3, r4, r3, ror r1
 5d0:	72732d65 	rsbsvc	r2, r3, #6464	; 0x1940
 5d4:	69742f63 	ldmdbvs	r4!, {r0, r1, r5, r6, r8, r9, sl, fp, sp}^
 5d8:	2e72656d 	cdpcs	5, 7, cr6, cr2, cr13, {3}
 5dc:	45470063 	strbmi	r0, [r7, #-99]	; 0x63
 5e0:	00323354 	eorseq	r3, r2, r4, asr r3
 5e4:	6b636974 	blvs	18dabbc <__bss_end__+0x18d0c34>
 5e8:	65640073 	strbvs	r0, [r4, #-115]!	; 0x73
 5ec:	5f79616c 	svcpl	0x0079616c
 5f0:	6c637963 	stclvs	9, cr7, [r3], #-396	; 0xfffffe74
 5f4:	64007365 	strvs	r7, [r0], #-869	; 0x365
 5f8:	79616c65 	stmdbvc	r1!, {r0, r2, r5, r6, sl, fp, sp, lr}^
 5fc:	0073755f 	rsbseq	r7, r3, pc, asr r5
 600:	656d6974 	strbvs	r6, [sp, #-2420]!	; 0x974
 604:	65675f72 	strbvs	r5, [r7, #-3954]!	; 0xf72
 608:	73755f74 	cmnvc	r5, #116, 30	; 0x1d0
 60c:	67006365 	strvs	r6, [r0, -r5, ror #6]
 610:	5f6f6970 	svcpl	0x006f6970
 614:	6e657665 	cdpvs	6, 6, cr7, cr5, cr5, {3}
 618:	65645f74 	strbvs	r5, [r4, #-3956]!	; 0xf74
 61c:	74636574 	strbtvc	r6, [r3], #-1396	; 0x574
 620:	70006465 	andvc	r6, r0, r5, ror #8
 624:	32337475 	eorscc	r7, r3, #1962934272	; 0x75000000
 628:	414e4500 	cmpmi	lr, r0, lsl #10
 62c:	5f454c42 	svcpl	0x00454c42
 630:	53515249 	cmppl	r1, #-1879048188	; 0x90000004
 634:	6900325f 	stmdbvs	r0, {r0, r1, r2, r3, r4, r6, r9, ip, sp}
 638:	70675f73 	rsbvc	r5, r7, r3, ror pc
 63c:	695f6f69 	ldmdbvs	pc, {r0, r3, r5, r6, r8, r9, sl, fp, sp, lr}^	; <UNPREDICTABLE>
 640:	6300746e 	movwvs	r7, #1134	; 0x46e
 644:	30343173 	eorscc	r3, r4, r3, ror r1
 648:	72732d65 	rsbsvc	r2, r3, #6464	; 0x1940
 64c:	70672f63 	rsbvc	r2, r7, r3, ror #30
 650:	632e6f69 	teqvs	lr, #420	; 0x1a4
 654:	49504700 	ldmdbmi	r0, {r8, r9, sl, lr}^
 658:	55465f4f 	strbpl	r5, [r6, #-3919]	; 0xf4f
 65c:	495f434e 	ldmdbmi	pc, {r1, r2, r3, r6, r8, r9, lr}^	; <UNPREDICTABLE>
 660:	5455504e 	ldrbpl	r5, [r5], #-78	; 0x4e
 664:	746e6900 	strbtvc	r6, [lr], #-2304	; 0x900
 668:	73616d5f 	cmnvc	r1, #6080	; 0x17c0
 66c:	6572006b 	ldrbvs	r0, [r2, #-107]!	; 0x6b
 670:	74735f67 	ldrbtvc	r5, [r3], #-3943	; 0xf67
 674:	67007461 	strvs	r7, [r0, -r1, ror #8]
 678:	5f6f6970 	svcpl	0x006f6970
 67c:	00676572 	rsbeq	r6, r7, r2, ror r5
 680:	5f766564 	svcpl	0x00766564
 684:	72726162 	rsbsvc	r6, r2, #-2147483624	; 0x80000018
 688:	00726569 	rsbseq	r6, r2, r9, ror #10
 68c:	6f697067 	svcvs	0x00697067
 690:	6165725f 	cmnvs	r5, pc, asr r2
 694:	70670064 	rsbvc	r0, r7, r4, rrx
 698:	695f6f69 	ldmdbvs	pc, {r0, r3, r5, r6, r8, r9, sl, fp, sp, lr}^	; <UNPREDICTABLE>
 69c:	725f746e 	subsvc	r7, pc, #1845493760	; 0x6e000000
 6a0:	6e697369 	cdpvs	3, 6, cr7, cr9, cr9, {3}
 6a4:	64655f67 	strbtvs	r5, [r5], #-3943	; 0xf67
 6a8:	67006567 	strvs	r6, [r0, -r7, ror #10]
 6ac:	5f6f6970 	svcpl	0x006f6970
 6b0:	5f746573 	svcpl	0x00746573
 6b4:	636e7566 	cmnvs	lr, #427819008	; 0x19800000
 6b8:	6e6f6974 	mcrvs	9, 3, r6, cr15, cr4, {3}
 6bc:	52504700 	subspl	r4, r0, #0, 14
 6c0:	00304e45 	eorseq	r4, r0, r5, asr #28
 6c4:	45525047 	ldrbmi	r5, [r2, #-71]	; 0x47
 6c8:	6700314e 	strvs	r3, [r0, -lr, asr #2]
 6cc:	5f6f6970 	svcpl	0x006f6970
 6d0:	6e657665 	cdpvs	6, 6, cr7, cr5, cr5, {3}
 6d4:	6c635f74 	stclvs	15, cr5, [r3], #-464	; 0xfffffe30
 6d8:	00726165 	rsbseq	r6, r2, r5, ror #2
 6dc:	5f515249 	svcpl	0x00515249
 6e0:	444e4550 	strbmi	r4, [lr], #-1360	; 0x550
 6e4:	5f474e49 	svcpl	0x00474e49
 6e8:	52490031 	subpl	r0, r9, #49	; 0x31
 6ec:	45505f51 	ldrbmi	r5, [r0, #-3921]	; 0xf51
 6f0:	4e49444e 	cdpmi	4, 4, cr4, cr9, cr14, {2}
 6f4:	00325f47 	eorseq	r5, r2, r7, asr #30
 6f8:	6d746962 	ldclvs	9, cr6, [r4, #-392]!	; 0xfffffe78
 6fc:	006b7361 	rsbeq	r7, fp, r1, ror #6
 700:	636e7566 	cmnvs	lr, #427819008	; 0x19800000
 704:	69706700 	ldmdbvs	r0!, {r8, r9, sl, sp, lr}^
 708:	6f745f6f 	svcvs	0x00745f6f
 70c:	656c6767 	strbvs	r6, [ip, #-1895]!	; 0x767
 710:	45504700 	ldrbmi	r4, [r0, #-1792]	; 0x700
 714:	00305344 	eorseq	r5, r0, r4, asr #6
 718:	44455047 	strbmi	r5, [r5], #-71	; 0x47
 71c:	47003153 	smlsdmi	r0, r3, r1, r3
 720:	4e454650 	mcrmi	6, 2, r4, cr5, cr0, {2}
 724:	50470030 	subpl	r0, r7, r0, lsr r0
 728:	314e4546 	cmpcc	lr, r6, asr #10
 72c:	69706700 	ldmdbvs	r0!, {r8, r9, sl, sp, lr}^
 730:	65735f6f 	ldrbvs	r5, [r3, #-3951]!	; 0xf6f
 734:	756f5f74 	strbvc	r5, [pc, #-3956]!	; fffff7c8 <__bss_end__+0xffff5840>
 738:	74757074 	ldrbtvc	r7, [r5], #-116	; 0x74
 73c:	49504700 	ldmdbmi	r0, {r8, r9, sl, lr}^
 740:	55465f4f 	strbpl	r5, [r6, #-3919]	; 0xf4f
 744:	4f5f434e 	svcmi	0x005f434e
 748:	55505455 	ldrbpl	r5, [r0, #-1109]	; 0x455
 74c:	65670054 	strbvs	r0, [r7, #-84]!	; 0x54
 750:	00323374 	eorseq	r3, r2, r4, ror r3
 754:	6f697067 	svcvs	0x00697067
 758:	746e695f 	strbtvc	r6, [lr], #-2399	; 0x95f
 75c:	6c61665f 	stclvs	6, cr6, [r1], #-380	; 0xfffffe84
 760:	676e696c 	strbvs	r6, [lr, -ip, ror #18]!
 764:	6764655f 			; <UNDEFINED> instruction: 0x6764655f
 768:	70670065 	rsbvc	r0, r7, r5, rrx
 76c:	665f6f69 	ldrbvs	r6, [pc], -r9, ror #30
 770:	5f636e75 	svcpl	0x00636e75
 774:	50470074 	subpl	r0, r7, r4, ror r0
 778:	465f4f49 	ldrbmi	r4, [pc], -r9, asr #30
 77c:	5f434e55 	svcpl	0x00434e55
 780:	30544c41 	subscc	r4, r4, r1, asr #24
 784:	49504700 	ldmdbmi	r0, {r8, r9, sl, lr}^
 788:	55465f4f 	strbpl	r5, [r6, #-3919]	; 0xf4f
 78c:	415f434e 	cmpmi	pc, lr, asr #6
 790:	0031544c 	eorseq	r5, r1, ip, asr #8
 794:	4f495047 	svcmi	0x00495047
 798:	4e55465f 	mrcmi	6, 2, r4, cr5, cr15, {2}
 79c:	4c415f43 	mcrrmi	15, 4, r5, r1, cr3
 7a0:	47003254 	smlsdmi	r0, r4, r2, r3
 7a4:	5f4f4950 	svcpl	0x004f4950
 7a8:	434e5546 	movtmi	r5, #58694	; 0xe546
 7ac:	544c415f 	strbpl	r4, [ip], #-351	; 0x15f
 7b0:	50470033 	subpl	r0, r7, r3, lsr r0
 7b4:	465f4f49 	ldrbmi	r4, [pc], -r9, asr #30
 7b8:	5f434e55 	svcpl	0x00434e55
 7bc:	34544c41 	ldrbcc	r4, [r4], #-3137	; 0xc41
 7c0:	49504700 	ldmdbmi	r0, {r8, r9, sl, lr}^
 7c4:	55465f4f 	strbpl	r5, [r6, #-3919]	; 0xf4f
 7c8:	415f434e 	cmpmi	pc, lr, asr #6
 7cc:	0035544c 	eorseq	r5, r5, ip, asr #8
 7d0:	5f676572 	svcpl	0x00676572
 7d4:	656c6573 	strbvs	r6, [ip, #-1395]!	; 0x573
 7d8:	41007463 	tstmi	r0, r3, ror #8
 7dc:	4d5f5855 	ldclmi	8, cr5, [pc, #-340]	; 690 <_start-0x7970>
 7e0:	434d5f55 	movtmi	r5, #57173	; 0xdf55
 7e4:	45525f52 	ldrbmi	r5, [r2, #-3922]	; 0xf52
 7e8:	55410047 	strbpl	r0, [r1, #-71]	; 0x47
 7ec:	554d5f58 	strbpl	r5, [sp, #-3928]	; 0xf58
 7f0:	5f4f495f 	svcpl	0x004f495f
 7f4:	00474552 	subeq	r4, r7, r2, asr r5
 7f8:	5f585541 	svcpl	0x00585541
 7fc:	4d5f554d 	cfldr64mi	mvdx5, [pc, #-308]	; 6d0 <_start-0x7930>
 800:	525f5253 	subspl	r5, pc, #805306373	; 0x30000005
 804:	75004745 	strvc	r4, [r0, #-1861]	; 0x745
 808:	5f747261 	svcpl	0x00747261
 80c:	5f6e6163 	svcpl	0x006e6163
 810:	63746567 	cmnvs	r4, #432013312	; 0x19c00000
 814:	58554100 	ldmdapl	r5, {r8, lr}^
 818:	5f554d5f 	svcpl	0x00554d5f
 81c:	4c544e43 	mrrcmi	14, 4, r4, r4, cr3	; <UNPREDICTABLE>
 820:	4745525f 	smlsldmi	r5, r5, pc, r2	; <UNPREDICTABLE>
 824:	72617500 	rsbvc	r7, r1, #0, 10
 828:	61685f74 	smcvs	34292	; 0x85f4
 82c:	61645f73 	smcvs	17907	; 0x45f3
 830:	75006174 	strvc	r6, [r0, #-372]	; 0x174
 834:	5f747261 	svcpl	0x00747261
 838:	74696e69 	strbtvc	r6, [r9], #-3689	; 0xe69
 83c:	58554100 	ldmdapl	r5, {r8, lr}^
 840:	5f554d5f 	svcpl	0x00554d5f
 844:	5f524549 	svcpl	0x00524549
 848:	00474552 	subeq	r4, r7, r2, asr r5
 84c:	74726175 	ldrbtvc	r6, [r2], #-373	; 0x175
 850:	7465675f 	strbtvc	r6, [r5], #-1887	; 0x75f
 854:	55410063 	strbpl	r0, [r1, #-99]	; 0x63
 858:	554d5f58 	strbpl	r5, [sp, #-3928]	; 0xf58
 85c:	5249495f 	subpl	r4, r9, #1556480	; 0x17c000
 860:	4745525f 	smlsldmi	r5, r5, pc, r2	; <UNPREDICTABLE>
 864:	72617500 	rsbvc	r7, r1, #0, 10
 868:	61635f74 	smcvs	13812	; 0x35f4
 86c:	75705f6e 	ldrbvc	r5, [r0, #-3950]!	; 0xf6e
 870:	41006374 	tstmi	r0, r4, ror r3
 874:	455f5855 	ldrbmi	r5, [pc, #-2133]	; 27 <_start-0x7fd9>
 878:	4c42414e 	stfmie	f4, [r2], {78}	; 0x4e
 87c:	41005345 	tstmi	r0, r5, asr #6
 880:	495f5855 	ldmdbmi	pc, {r0, r2, r4, r6, fp, ip, lr}^	; <UNPREDICTABLE>
 884:	41005152 	tstmi	r0, r2, asr r1
 888:	4d5f5855 	ldclmi	8, cr5, [pc, #-340]	; 73c <_start-0x78c4>
 88c:	41425f55 	cmpmi	r2, r5, asr pc
 890:	525f4455 	subspl	r4, pc, #1426063360	; 0x55000000
 894:	41004745 	tstmi	r0, r5, asr #14
 898:	4d5f5855 	ldclmi	8, cr5, [pc, #-340]	; 74c <_start-0x78b4>
 89c:	54535f55 	ldrbpl	r5, [r3], #-3925	; 0xf55
 8a0:	525f5441 	subspl	r5, pc, #1090519040	; 0x41000000
 8a4:	41004745 	tstmi	r0, r5, asr #14
 8a8:	4d5f5855 	ldclmi	8, cr5, [pc, #-340]	; 75c <_start-0x78a4>
 8ac:	43535f55 	cmpmi	r3, #340	; 0x154
 8b0:	43544152 	cmpmi	r4, #-2147483628	; 0x80000014
 8b4:	796d0048 	stmdbvc	sp!, {r3, r6}^
 8b8:	6372732d 	cmnvs	r2, #-1275068416	; 0xb4000000
 8bc:	7261752f 	rsbvc	r7, r1, #197132288	; 0xbc00000
 8c0:	00632e74 	rsbeq	r2, r3, r4, ror lr
 8c4:	5f585541 	svcpl	0x00585541
 8c8:	4c5f554d 	cfldr64mi	mvdx5, [pc], {77}	; 0x4d
 8cc:	525f5243 	subspl	r5, pc, #805306372	; 0x30000004
 8d0:	41004745 	tstmi	r0, r5, asr #14
 8d4:	4d5f5855 	ldclmi	8, cr5, [pc, #-340]	; 788 <_start-0x7878>
 8d8:	534c5f55 	movtpl	r5, #53077	; 0xcf55
 8dc:	45525f52 	ldrbmi	r5, [r2, #-3922]	; 0xf52
 8e0:	61750047 	cmnvs	r5, r7, asr #32
 8e4:	675f7472 			; <UNDEFINED> instruction: 0x675f7472
 8e8:	5f637465 	svcpl	0x00637465
 8ec:	6e797361 	cdpvs	3, 7, cr7, cr9, cr1, {3}
 8f0:	Address 0x00000000000008f0 is out of bounds.


Disassembly of section .debug_frame:

00000000 <.debug_frame>:
   0:	0000000c 	andeq	r0, r0, ip
   4:	ffffffff 			; <UNDEFINED> instruction: 0xffffffff
   8:	7c020001 	stcvc	0, cr0, [r2], {1}
   c:	000d0c0e 	andeq	r0, sp, lr, lsl #24
  10:	00000014 	andeq	r0, r0, r4, lsl r0
  14:	00000000 	andeq	r0, r0, r0
  18:	00008010 	andeq	r8, r0, r0, lsl r0
  1c:	00000050 	andeq	r0, r0, r0, asr r0
  20:	84080e44 	strhi	r0, [r8], #-3652	; 0xe44
  24:	00018e02 	andeq	r8, r1, r2, lsl #28
  28:	00000018 	andeq	r0, r0, r8, lsl r0
  2c:	00000000 	andeq	r0, r0, r0
  30:	00008060 	andeq	r8, r0, r0, rrx
  34:	000001c4 	andeq	r0, r0, r4, asr #3
  38:	84100e48 	ldrhi	r0, [r0], #-3656	; 0xe48
  3c:	86038504 	strhi	r8, [r3], -r4, lsl #10
  40:	00018702 	andeq	r8, r1, r2, lsl #14
  44:	00000018 	andeq	r0, r0, r8, lsl r0
  48:	00000000 	andeq	r0, r0, r0
  4c:	00008224 	andeq	r8, r0, r4, lsr #4
  50:	00000290 	muleq	r0, r0, r2
  54:	840c0e42 	strhi	r0, [ip], #-3650	; 0xe42
  58:	86028503 	strhi	r8, [r2], -r3, lsl #10
  5c:	00000001 	andeq	r0, r0, r1
  60:	00000020 	andeq	r0, r0, r0, lsr #32
  64:	00000000 	andeq	r0, r0, r0
  68:	000084b4 			; <UNDEFINED> instruction: 0x000084b4
  6c:	00000460 	andeq	r0, r0, r0, ror #8
  70:	841c0e42 	ldrhi	r0, [ip], #-3650	; 0xe42
  74:	86068507 	strhi	r8, [r6], -r7, lsl #10
  78:	88048705 	stmdahi	r4, {r0, r2, r8, r9, sl, pc}
  7c:	8a028903 	bhi	a2490 <__bss_end__+0x98508>
  80:	700e4401 	andvc	r4, lr, r1, lsl #8
  84:	00000024 	andeq	r0, r0, r4, lsr #32
  88:	00000000 	andeq	r0, r0, r0
  8c:	00008914 	andeq	r8, r0, r4, lsl r9
  90:	00000090 	muleq	r0, r0, r0
  94:	84200e42 	strthi	r0, [r0], #-3650	; 0xe42
  98:	86078508 	strhi	r8, [r7], -r8, lsl #10
  9c:	88058706 	stmdahi	r5, {r1, r2, r8, r9, sl, pc}
  a0:	8a038904 	bhi	e24b8 <__bss_end__+0xd8530>
  a4:	44018e02 	strmi	r8, [r1], #-3586	; 0xe02
  a8:	0000300e 	andeq	r3, r0, lr
  ac:	0000000c 	andeq	r0, r0, ip
  b0:	00000000 	andeq	r0, r0, r0
  b4:	000089a4 	andeq	r8, r0, r4, lsr #19
  b8:	000000a0 	andeq	r0, r0, r0, lsr #1
  bc:	00000018 	andeq	r0, r0, r8, lsl r0
  c0:	00000000 	andeq	r0, r0, r0
  c4:	00008a44 	andeq	r8, r0, r4, asr #20
  c8:	00000060 	andeq	r0, r0, r0, rrx
  cc:	84080e42 	strhi	r0, [r8], #-3650	; 0xe42
  d0:	42018e02 	andmi	r8, r1, #2, 28
  d4:	0001b00e 	andeq	fp, r1, lr
  d8:	0000000c 	andeq	r0, r0, ip
  dc:	ffffffff 			; <UNDEFINED> instruction: 0xffffffff
  e0:	7c020001 	stcvc	0, cr0, [r2], {1}
  e4:	000d0c0e 	andeq	r0, sp, lr, lsl #24
  e8:	00000024 	andeq	r0, r0, r4, lsr #32
  ec:	000000d8 	ldrdeq	r0, [r0], -r8
  f0:	00008aa4 	andeq	r8, r0, r4, lsr #21
  f4:	00000058 	andeq	r0, r0, r8, asr r0
  f8:	80100e42 	andshi	r0, r0, r2, asr #28
  fc:	82038104 	andhi	r8, r3, #4, 2
 100:	42018302 	andmi	r8, r1, #134217728	; 0x8000000
 104:	07841c0e 	streq	r1, [r4, lr, lsl #24]
 108:	058e0685 	streq	r0, [lr, #1669]	; 0x685
 10c:	00280e42 	eoreq	r0, r8, r2, asr #28
 110:	0000000c 	andeq	r0, r0, ip
 114:	ffffffff 			; <UNDEFINED> instruction: 0xffffffff
 118:	7c020001 	stcvc	0, cr0, [r2], {1}
 11c:	000d0c0e 	andeq	r0, sp, lr, lsl #24
 120:	00000014 	andeq	r0, r0, r4, lsl r0
 124:	00000110 	andeq	r0, r0, r0, lsl r1
 128:	00008afc 	strdeq	r8, [r0], -ip
 12c:	00000014 	andeq	r0, r0, r4, lsl r0
 130:	84080e42 	strhi	r0, [r8], #-3650	; 0xe42
 134:	00018e02 	andeq	r8, r1, r2, lsl #28
 138:	0000000c 	andeq	r0, r0, ip
 13c:	00000110 	andeq	r0, r0, r0, lsl r1
 140:	00008b10 	andeq	r8, r0, r0, lsl fp
 144:	00000018 	andeq	r0, r0, r8, lsl r0
 148:	0000000c 	andeq	r0, r0, ip
 14c:	00000110 	andeq	r0, r0, r0, lsl r1
 150:	00008b28 	andeq	r8, r0, r8, lsr #22
 154:	00000010 	andeq	r0, r0, r0, lsl r0
 158:	0000000c 	andeq	r0, r0, ip
 15c:	ffffffff 			; <UNDEFINED> instruction: 0xffffffff
 160:	7c020001 	stcvc	0, cr0, [r2], {1}
 164:	000d0c0e 	andeq	r0, sp, lr, lsl #24
 168:	00000018 	andeq	r0, r0, r8, lsl r0
 16c:	00000158 	andeq	r0, r0, r8, asr r1
 170:	00008b38 	andeq	r8, r0, r8, lsr fp
 174:	00000034 	andeq	r0, r0, r4, lsr r0
 178:	83100e42 	tsthi	r0, #1056	; 0x420
 17c:	85038404 	strhi	r8, [r3, #-1028]	; 0x404
 180:	00018e02 	andeq	r8, r1, r2, lsl #28
 184:	0000000c 	andeq	r0, r0, ip
 188:	ffffffff 			; <UNDEFINED> instruction: 0xffffffff
 18c:	7c020001 	stcvc	0, cr0, [r2], {1}
 190:	000d0c0e 	andeq	r0, sp, lr, lsl #24
 194:	0000000c 	andeq	r0, r0, ip
 198:	00000184 	andeq	r0, r0, r4, lsl #3
 19c:	00008b6c 	andeq	r8, r0, ip, ror #22
 1a0:	00000014 	andeq	r0, r0, r4, lsl r0
 1a4:	0000000c 	andeq	r0, r0, ip
 1a8:	00000184 	andeq	r0, r0, r4, lsl #3
 1ac:	00008b80 	andeq	r8, r0, r0, lsl #23
 1b0:	0000002c 	andeq	r0, r0, ip, lsr #32
 1b4:	0000000c 	andeq	r0, r0, ip
 1b8:	00000184 	andeq	r0, r0, r4, lsl #3
 1bc:	00008bac 	andeq	r8, r0, ip, lsr #23
 1c0:	00000040 	andeq	r0, r0, r0, asr #32
 1c4:	00000020 	andeq	r0, r0, r0, lsr #32
 1c8:	00000184 	andeq	r0, r0, r4, lsl #3
 1cc:	00008bec 	andeq	r8, r0, ip, ror #23
 1d0:	0000019c 	muleq	r0, ip, r1
 1d4:	84180e42 	ldrhi	r0, [r8], #-3650	; 0xe42
 1d8:	86058506 	strhi	r8, [r5], -r6, lsl #10
 1dc:	88038704 	stmdahi	r3, {r2, r8, r9, sl, pc}
 1e0:	42018e02 	andmi	r8, r1, #2, 28
 1e4:	0000580e 	andeq	r5, r0, lr, lsl #16
 1e8:	00000014 	andeq	r0, r0, r4, lsl r0
 1ec:	00000184 	andeq	r0, r0, r4, lsl #3
 1f0:	00008d88 	andeq	r8, r0, r8, lsl #27
 1f4:	00000054 	andeq	r0, r0, r4, asr r0
 1f8:	83080e42 	movwhi	r0, #36418	; 0x8e42
 1fc:	00018e02 	andeq	r8, r1, r2, lsl #28
 200:	00000028 	andeq	r0, r0, r8, lsr #32
 204:	00000184 	andeq	r0, r0, r4, lsl #3
 208:	00008ddc 	ldrdeq	r8, [r0], -ip
 20c:	00000288 	andeq	r0, r0, r8, lsl #5
 210:	84240e42 	strthi	r0, [r4], #-3650	; 0xe42
 214:	86088509 	strhi	r8, [r8], -r9, lsl #10
 218:	88068707 	stmdahi	r6, {r0, r1, r2, r8, r9, sl, pc}
 21c:	8a048905 	bhi	122638 <__bss_end__+0x1186b0>
 220:	8e028b03 	vmlahi.f64	d8, d2, d3
 224:	b00e4201 	andlt	r4, lr, r1, lsl #4
 228:	00000001 	andeq	r0, r0, r1
 22c:	0000000c 	andeq	r0, r0, ip
 230:	ffffffff 			; <UNDEFINED> instruction: 0xffffffff
 234:	7c020001 	stcvc	0, cr0, [r2], {1}
 238:	000d0c0e 	andeq	r0, sp, lr, lsl #24
 23c:	0000000c 	andeq	r0, r0, ip
 240:	0000022c 	andeq	r0, r0, ip, lsr #4
 244:	00009064 	andeq	r9, r0, r4, rrx
 248:	00000010 	andeq	r0, r0, r0, lsl r0
 24c:	0000000c 	andeq	r0, r0, ip
 250:	0000022c 	andeq	r0, r0, ip, lsr #4
 254:	00009074 	andeq	r9, r0, r4, ror r0
 258:	00000010 	andeq	r0, r0, r0, lsl r0
 25c:	0000000c 	andeq	r0, r0, ip
 260:	ffffffff 			; <UNDEFINED> instruction: 0xffffffff
 264:	7c020001 	stcvc	0, cr0, [r2], {1}
 268:	000d0c0e 	andeq	r0, sp, lr, lsl #24
 26c:	00000014 	andeq	r0, r0, r4, lsl r0
 270:	0000025c 	andeq	r0, r0, ip, asr r2
 274:	00009084 	andeq	r9, r0, r4, lsl #1
 278:	00000028 	andeq	r0, r0, r8, lsr #32
 27c:	83080e42 	movwhi	r0, #36418	; 0x8e42
 280:	00018e02 	andeq	r8, r1, r2, lsl #28
 284:	0000000c 	andeq	r0, r0, ip
 288:	ffffffff 			; <UNDEFINED> instruction: 0xffffffff
 28c:	7c020001 	stcvc	0, cr0, [r2], {1}
 290:	000d0c0e 	andeq	r0, sp, lr, lsl #24
 294:	00000014 	andeq	r0, r0, r4, lsl r0
 298:	00000284 	andeq	r0, r0, r4, lsl #5
 29c:	000090ac 	andeq	r9, r0, ip, lsr #1
 2a0:	00000034 	andeq	r0, r0, r4, lsr r0
 2a4:	83080e42 	movwhi	r0, #36418	; 0x8e42
 2a8:	00018e02 	andeq	r8, r1, r2, lsl #28
 2ac:	0000000c 	andeq	r0, r0, ip
 2b0:	ffffffff 			; <UNDEFINED> instruction: 0xffffffff
 2b4:	7c020001 	stcvc	0, cr0, [r2], {1}
 2b8:	000d0c0e 	andeq	r0, sp, lr, lsl #24
 2bc:	0000000c 	andeq	r0, r0, ip
 2c0:	000002ac 	andeq	r0, r0, ip, lsr #5
 2c4:	000090e0 	andeq	r9, r0, r0, ror #1
 2c8:	00000018 	andeq	r0, r0, r8, lsl r0
 2cc:	0000000c 	andeq	r0, r0, ip
 2d0:	000002ac 	andeq	r0, r0, ip, lsr #5
 2d4:	000090f8 	strdeq	r9, [r0], -r8
 2d8:	00000014 	andeq	r0, r0, r4, lsl r0
 2dc:	00000014 	andeq	r0, r0, r4, lsl r0
 2e0:	000002ac 	andeq	r0, r0, ip, lsr #5
 2e4:	0000910c 	andeq	r9, r0, ip, lsl #2
 2e8:	00000048 	andeq	r0, r0, r8, asr #32
 2ec:	83080e42 	movwhi	r0, #36418	; 0x8e42
 2f0:	00018e02 	andeq	r8, r1, r2, lsl #28
 2f4:	0000000c 	andeq	r0, r0, ip
 2f8:	ffffffff 			; <UNDEFINED> instruction: 0xffffffff
 2fc:	7c020001 	stcvc	0, cr0, [r2], {1}
 300:	000d0c0e 	andeq	r0, sp, lr, lsl #24
 304:	0000000c 	andeq	r0, r0, ip
 308:	000002f4 	strdeq	r0, [r0], -r4
 30c:	00009154 	andeq	r9, r0, r4, asr r1
 310:	0000001c 	andeq	r0, r0, ip, lsl r0
 314:	00000014 	andeq	r0, r0, r4, lsl r0
 318:	000002f4 	strdeq	r0, [r0], -r4
 31c:	00009170 	andeq	r9, r0, r0, ror r1
 320:	00000014 	andeq	r0, r0, r4, lsl r0
 324:	83080e42 	movwhi	r0, #36418	; 0x8e42
 328:	00018e02 	andeq	r8, r1, r2, lsl #28
 32c:	00000014 	andeq	r0, r0, r4, lsl r0
 330:	000002f4 	strdeq	r0, [r0], -r4
 334:	00009184 	andeq	r9, r0, r4, lsl #3
 338:	0000000c 	andeq	r0, r0, ip
 33c:	83080e42 	movwhi	r0, #36418	; 0x8e42
 340:	00018e02 	andeq	r8, r1, r2, lsl #28
 344:	00000018 	andeq	r0, r0, r8, lsl r0
 348:	000002f4 	strdeq	r0, [r0], -r4
 34c:	00009190 	muleq	r0, r0, r1
 350:	00000024 	andeq	r0, r0, r4, lsr #32
 354:	83100e42 	tsthi	r0, #1056	; 0x420
 358:	85038404 	strhi	r8, [r3, #-1028]	; 0x404
 35c:	00018e02 	andeq	r8, r1, r2, lsl #28
 360:	00000014 	andeq	r0, r0, r4, lsl r0
 364:	000002f4 	strdeq	r0, [r0], -r4
 368:	000091b4 			; <UNDEFINED> instruction: 0x000091b4
 36c:	00000014 	andeq	r0, r0, r4, lsl r0
 370:	83080e42 	movwhi	r0, #36418	; 0x8e42
 374:	00018e02 	andeq	r8, r1, r2, lsl #28
 378:	00000014 	andeq	r0, r0, r4, lsl r0
 37c:	000002f4 	strdeq	r0, [r0], -r4
 380:	000091c8 	andeq	r9, r0, r8, asr #3
 384:	00000014 	andeq	r0, r0, r4, lsl r0
 388:	83080e42 	movwhi	r0, #36418	; 0x8e42
 38c:	00018e02 	andeq	r8, r1, r2, lsl #28
 390:	0000000c 	andeq	r0, r0, ip
 394:	ffffffff 			; <UNDEFINED> instruction: 0xffffffff
 398:	7c020001 	stcvc	0, cr0, [r2], {1}
 39c:	000d0c0e 	andeq	r0, sp, lr, lsl #24
 3a0:	00000018 	andeq	r0, r0, r8, lsl r0
 3a4:	00000390 	muleq	r0, r0, r3
 3a8:	000091dc 	ldrdeq	r9, [r0], -ip
 3ac:	000000d4 	ldrdeq	r0, [r0], -r4
 3b0:	83100e42 	tsthi	r0, #1056	; 0x420
 3b4:	85038404 	strhi	r8, [r3, #-1028]	; 0x404
 3b8:	00018e02 	andeq	r8, r1, r2, lsl #28
 3bc:	00000014 	andeq	r0, r0, r4, lsl r0
 3c0:	00000390 	muleq	r0, r0, r3
 3c4:	000092b0 			; <UNDEFINED> instruction: 0x000092b0
 3c8:	00000038 	andeq	r0, r0, r8, lsr r0
 3cc:	83080e42 	movwhi	r0, #36418	; 0x8e42
 3d0:	00018e02 	andeq	r8, r1, r2, lsl #28
 3d4:	00000014 	andeq	r0, r0, r4, lsl r0
 3d8:	00000390 	muleq	r0, r0, r3
 3dc:	000092e8 	andeq	r9, r0, r8, ror #5
 3e0:	00000038 	andeq	r0, r0, r8, lsr r0
 3e4:	83080e42 	movwhi	r0, #36418	; 0x8e42
 3e8:	00018e02 	andeq	r8, r1, r2, lsl #28
 3ec:	00000018 	andeq	r0, r0, r8, lsl r0
 3f0:	00000390 	muleq	r0, r0, r3
 3f4:	00009320 	andeq	r9, r0, r0, lsr #6
 3f8:	000000cc 	andeq	r0, r0, ip, asr #1
 3fc:	83100e42 	tsthi	r0, #1056	; 0x420
 400:	85038404 	strhi	r8, [r3, #-1028]	; 0x404
 404:	00018e02 	andeq	r8, r1, r2, lsl #28
 408:	00000014 	andeq	r0, r0, r4, lsl r0
 40c:	00000390 	muleq	r0, r0, r3
 410:	000093ec 	andeq	r9, r0, ip, ror #7
 414:	0000004c 	andeq	r0, r0, ip, asr #32
 418:	84080e42 	strhi	r0, [r8], #-3650	; 0xe42
 41c:	00018e02 	andeq	r8, r1, r2, lsl #28
 420:	00000014 	andeq	r0, r0, r4, lsl r0
 424:	00000390 	muleq	r0, r0, r3
 428:	00009438 	andeq	r9, r0, r8, lsr r4
 42c:	00000024 	andeq	r0, r0, r4, lsr #32
 430:	83080e42 	movwhi	r0, #36418	; 0x8e42
 434:	00018e02 	andeq	r8, r1, r2, lsl #28
 438:	00000018 	andeq	r0, r0, r8, lsl r0
 43c:	00000390 	muleq	r0, r0, r3
 440:	0000945c 	andeq	r9, r0, ip, asr r4
 444:	000000d8 	ldrdeq	r0, [r0], -r8
 448:	84100e42 	ldrhi	r0, [r0], #-3650	; 0xe42
 44c:	86038504 	strhi	r8, [r3], -r4, lsl #10
 450:	00018e02 	andeq	r8, r1, r2, lsl #28
 454:	00000014 	andeq	r0, r0, r4, lsl r0
 458:	00000390 	muleq	r0, r0, r3
 45c:	00009534 	andeq	r9, r0, r4, lsr r5
 460:	00000038 	andeq	r0, r0, r8, lsr r0
 464:	83080e42 	movwhi	r0, #36418	; 0x8e42
 468:	00018e02 	andeq	r8, r1, r2, lsl #28
 46c:	00000014 	andeq	r0, r0, r4, lsl r0
 470:	00000390 	muleq	r0, r0, r3
 474:	0000956c 	andeq	r9, r0, ip, ror #10
 478:	0000002c 	andeq	r0, r0, ip, lsr #32
 47c:	83080e42 	movwhi	r0, #36418	; 0x8e42
 480:	00018e02 	andeq	r8, r1, r2, lsl #28
 484:	00000018 	andeq	r0, r0, r8, lsl r0
 488:	00000390 	muleq	r0, r0, r3
 48c:	00009598 	muleq	r0, r8, r5
 490:	00000084 	andeq	r0, r0, r4, lsl #1
 494:	83100e42 	tsthi	r0, #1056	; 0x420
 498:	85038404 	strhi	r8, [r3, #-1028]	; 0x404
 49c:	00018e02 	andeq	r8, r1, r2, lsl #28
 4a0:	00000018 	andeq	r0, r0, r8, lsl r0
 4a4:	00000390 	muleq	r0, r0, r3
 4a8:	0000961c 	andeq	r9, r0, ip, lsl r6
 4ac:	00000084 	andeq	r0, r0, r4, lsl #1
 4b0:	83100e42 	tsthi	r0, #1056	; 0x420
 4b4:	85038404 	strhi	r8, [r3, #-1028]	; 0x404
 4b8:	00018e02 	andeq	r8, r1, r2, lsl #28
 4bc:	00000014 	andeq	r0, r0, r4, lsl r0
 4c0:	00000390 	muleq	r0, r0, r3
 4c4:	000096a0 	andeq	r9, r0, r0, lsr #13
 4c8:	00000084 	andeq	r0, r0, r4, lsl #1
 4cc:	84080e42 	strhi	r0, [r8], #-3650	; 0xe42
 4d0:	00018e02 	andeq	r8, r1, r2, lsl #28
 4d4:	00000014 	andeq	r0, r0, r4, lsl r0
 4d8:	00000390 	muleq	r0, r0, r3
 4dc:	00009724 	andeq	r9, r0, r4, lsr #14
 4e0:	00000058 	andeq	r0, r0, r8, asr r0
 4e4:	84080e42 	strhi	r0, [r8], #-3650	; 0xe42
 4e8:	00018e02 	andeq	r8, r1, r2, lsl #28
 4ec:	0000000c 	andeq	r0, r0, ip
 4f0:	ffffffff 			; <UNDEFINED> instruction: 0xffffffff
 4f4:	7c020001 	stcvc	0, cr0, [r2], {1}
 4f8:	000d0c0e 	andeq	r0, sp, lr, lsl #24
 4fc:	00000018 	andeq	r0, r0, r8, lsl r0
 500:	000004ec 	andeq	r0, r0, ip, ror #9
 504:	0000977c 	andeq	r9, r0, ip, ror r7
 508:	0000009c 	muleq	r0, ip, r0
 50c:	83100e42 	tsthi	r0, #1056	; 0x420
 510:	85038404 	strhi	r8, [r3, #-1028]	; 0x404
 514:	00018e02 	andeq	r8, r1, r2, lsl #28
 518:	00000014 	andeq	r0, r0, r4, lsl r0
 51c:	000004ec 	andeq	r0, r0, ip, ror #9
 520:	00009818 	andeq	r9, r0, r8, lsl r8
 524:	0000001c 	andeq	r0, r0, ip, lsl r0
 528:	83080e42 	movwhi	r0, #36418	; 0x8e42
 52c:	00018e02 	andeq	r8, r1, r2, lsl #28
 530:	00000014 	andeq	r0, r0, r4, lsl r0
 534:	000004ec 	andeq	r0, r0, ip, ror #9
 538:	00009834 	andeq	r9, r0, r4, lsr r8
 53c:	00000028 	andeq	r0, r0, r8, lsr #32
 540:	83080e42 	movwhi	r0, #36418	; 0x8e42
 544:	00018e02 	andeq	r8, r1, r2, lsl #28
 548:	00000014 	andeq	r0, r0, r4, lsl r0
 54c:	000004ec 	andeq	r0, r0, ip, ror #9
 550:	0000985c 	andeq	r9, r0, ip, asr r8
 554:	0000001c 	andeq	r0, r0, ip, lsl r0
 558:	83080e42 	movwhi	r0, #36418	; 0x8e42
 55c:	00018e02 	andeq	r8, r1, r2, lsl #28
 560:	00000014 	andeq	r0, r0, r4, lsl r0
 564:	000004ec 	andeq	r0, r0, ip, ror #9
 568:	00009878 	andeq	r9, r0, r8, ror r8
 56c:	0000002c 	andeq	r0, r0, ip, lsr #32
 570:	84080e42 	strhi	r0, [r8], #-3650	; 0xe42
 574:	00018e02 	andeq	r8, r1, r2, lsl #28
 578:	00000014 	andeq	r0, r0, r4, lsl r0
 57c:	000004ec 	andeq	r0, r0, ip, ror #9
 580:	000098a4 	andeq	r9, r0, r4, lsr #17
 584:	0000000c 	andeq	r0, r0, ip
 588:	83080e42 	movwhi	r0, #36418	; 0x8e42
 58c:	00018e02 	andeq	r8, r1, r2, lsl #28
 590:	00000014 	andeq	r0, r0, r4, lsl r0
 594:	000004ec 	andeq	r0, r0, ip, ror #9
 598:	000098b0 			; <UNDEFINED> instruction: 0x000098b0
 59c:	00000020 	andeq	r0, r0, r0, lsr #32
 5a0:	83080e42 	movwhi	r0, #36418	; 0x8e42
 5a4:	00018e02 	andeq	r8, r1, r2, lsl #28
