
stepper-test.elf:     file format elf32-littlearm


Disassembly of section .text:

00008000 <_start>:
    8000:	e3a0d302 	mov	sp, #134217728	; 0x8000000
    8004:	e3a0b000 	mov	fp, #0
    8008:	eb000758 	bl	9d70 <_cstart>
    800c:	eb00076f 	bl	9dd0 <rpi_reboot>

00008010 <xyz_mk>:
    8010:	e5801000 	str	r1, [r0]
    8014:	e5802004 	str	r2, [r0, #4]
    8018:	e5803008 	str	r3, [r0, #8]
    801c:	e12fff1e 	bx	lr

00008020 <mdps_raw>:
    8020:	e1810400 	orr	r0, r1, r0, lsl #8
    8024:	e6bf0070 	sxth	r0, r0
    8028:	e12fff1e 	bx	lr

0000802c <mdps_scaled>:
    802c:	e0010190 	mul	r1, r0, r1
    8030:	e59f000c 	ldr	r0, [pc, #12]	; 8044 <mdps_scaled+0x18>
    8034:	e0c03190 	smull	r3, r0, r0, r1
    8038:	e1a01fc1 	asr	r1, r1, #31
    803c:	e0610340 	rsb	r0, r1, r0, asr #6
    8040:	e12fff1e 	bx	lr
    8044:	10624dd3 	ldrdne	r4, [r2], #-211	; 0xffffff2d	; <UNPREDICTABLE>

00008048 <gyro_scale>:
    8048:	e24dd008 	sub	sp, sp, #8
    804c:	e92d40f8 	push	{r3, r4, r5, r6, r7, lr}
    8050:	e1a05000 	mov	r5, r0
    8054:	e28d0014 	add	r0, sp, #20
    8058:	e980000c 	stmib	r0, {r2, r3}
    805c:	e591400c 	ldr	r4, [r1, #12]
    8060:	e59d0018 	ldr	r0, [sp, #24]
    8064:	e1a01004 	mov	r1, r4
    8068:	ebffffef 	bl	802c <mdps_scaled>
    806c:	e1a07000 	mov	r7, r0
    8070:	e59d001c 	ldr	r0, [sp, #28]
    8074:	e1a01004 	mov	r1, r4
    8078:	ebffffeb 	bl	802c <mdps_scaled>
    807c:	e1a06000 	mov	r6, r0
    8080:	e59d0020 	ldr	r0, [sp, #32]
    8084:	e1a01004 	mov	r1, r4
    8088:	ebffffe7 	bl	802c <mdps_scaled>
    808c:	e1a03000 	mov	r3, r0
    8090:	e1a00005 	mov	r0, r5
    8094:	e1a01007 	mov	r1, r7
    8098:	e1a02006 	mov	r2, r6
    809c:	ebffffdb 	bl	8010 <xyz_mk>
    80a0:	e1a00005 	mov	r0, r5
    80a4:	e8bd40f8 	pop	{r3, r4, r5, r6, r7, lr}
    80a8:	e28dd008 	add	sp, sp, #8
    80ac:	e12fff1e 	bx	lr

000080b0 <test_dps>:
    80b0:	e92d40f0 	push	{r4, r5, r6, r7, lr}
    80b4:	e24dd014 	sub	sp, sp, #20
    80b8:	e1a05000 	mov	r5, r0
    80bc:	e1a06003 	mov	r6, r3
    80c0:	e1a00001 	mov	r0, r1
    80c4:	e1a01002 	mov	r1, r2
    80c8:	ebffffd4 	bl	8020 <mdps_raw>
    80cc:	e1a07000 	mov	r7, r0
    80d0:	e1a01006 	mov	r1, r6
    80d4:	ebffffd4 	bl	802c <mdps_scaled>
    80d8:	e59f406c 	ldr	r4, [pc, #108]	; 814c <test_dps+0x9c>
    80dc:	e0c43094 	smull	r3, r4, r4, r0
    80e0:	e1a00fc0 	asr	r0, r0, #31
    80e4:	e0604344 	rsb	r4, r0, r4, asr #6
    80e8:	e59f0060 	ldr	r0, [pc, #96]	; 8150 <test_dps+0xa0>
    80ec:	e1a01007 	mov	r1, r7
    80f0:	e1a02004 	mov	r2, r4
    80f4:	e1a03005 	mov	r3, r5
    80f8:	eb0005a2 	bl	9788 <printk>
    80fc:	e1550004 	cmp	r5, r4
    8100:	0a00000f 	beq	8144 <test_dps+0x94>
    8104:	e2843001 	add	r3, r4, #1
    8108:	e1530005 	cmp	r3, r5
    810c:	0a00000c 	beq	8144 <test_dps+0x94>
    8110:	e2443001 	sub	r3, r4, #1
    8114:	e1530005 	cmp	r3, r5
    8118:	0a000009 	beq	8144 <test_dps+0x94>
    811c:	eb0005b4 	bl	97f4 <rpi_reset_putc>
    8120:	e58d5000 	str	r5, [sp]
    8124:	e58d4004 	str	r4, [sp, #4]
    8128:	e58d6008 	str	r6, [sp, #8]
    812c:	e59f0020 	ldr	r0, [pc, #32]	; 8154 <test_dps+0xa4>
    8130:	e59f1020 	ldr	r1, [pc, #32]	; 8158 <test_dps+0xa8>
    8134:	e59f2020 	ldr	r2, [pc, #32]	; 815c <test_dps+0xac>
    8138:	e3a030f1 	mov	r3, #241	; 0xf1
    813c:	eb000591 	bl	9788 <printk>
    8140:	eb000700 	bl	9d48 <clean_reboot>
    8144:	e28dd014 	add	sp, sp, #20
    8148:	e8bd80f0 	pop	{r4, r5, r6, r7, pc}
    814c:	10624dd3 	ldrdne	r4, [r2], #-211	; 0xffffff2d	; <UNPREDICTABLE>
    8150:	0000ac34 	andeq	sl, r0, r4, lsr ip
    8154:	0000ac54 	andeq	sl, r0, r4, asr ip
    8158:	0000ac88 	andeq	sl, r0, r8, lsl #25
    815c:	0000aba4 	andeq	sl, r0, r4, lsr #23

00008160 <test_stepper>:
    8160:	e92d4070 	push	{r4, r5, r6, lr}
    8164:	e59f00c8 	ldr	r0, [pc, #200]	; 8234 <test_stepper+0xd4>
    8168:	eb000586 	bl	9788 <printk>
    816c:	e3a00015 	mov	r0, #21
    8170:	e3a01014 	mov	r1, #20
    8174:	eb0002b4 	bl	8c4c <stepper_init>
    8178:	e1a05000 	mov	r5, r0
    817c:	e3a04000 	mov	r4, #0
    8180:	e59f60b0 	ldr	r6, [pc, #176]	; 8238 <test_stepper+0xd8>
    8184:	ea00000f 	b	81c8 <test_stepper+0x68>
    8188:	e1a00005 	mov	r0, r5
    818c:	eb000343 	bl	8ea0 <stepper_get_position_in_steps>
    8190:	e1500004 	cmp	r0, r4
    8194:	0a000006 	beq	81b4 <test_stepper+0x54>
    8198:	eb000595 	bl	97f4 <rpi_reset_putc>
    819c:	e59f0098 	ldr	r0, [pc, #152]	; 823c <test_stepper+0xdc>
    81a0:	e59f1098 	ldr	r1, [pc, #152]	; 8240 <test_stepper+0xe0>
    81a4:	e59f2098 	ldr	r2, [pc, #152]	; 8244 <test_stepper+0xe4>
    81a8:	e3a0301a 	mov	r3, #26
    81ac:	eb000575 	bl	9788 <printk>
    81b0:	eb0006e4 	bl	9d48 <clean_reboot>
    81b4:	e1a00005 	mov	r0, r5
    81b8:	eb00031a 	bl	8e28 <stepper_step_forward>
    81bc:	e1a00006 	mov	r0, r6
    81c0:	eb000723 	bl	9e54 <delay_us>
    81c4:	e2844001 	add	r4, r4, #1
    81c8:	e3540063 	cmp	r4, #99	; 0x63
    81cc:	daffffed 	ble	8188 <test_stepper+0x28>
    81d0:	e3a04000 	mov	r4, #0
    81d4:	e59f605c 	ldr	r6, [pc, #92]	; 8238 <test_stepper+0xd8>
    81d8:	ea000010 	b	8220 <test_stepper+0xc0>
    81dc:	e1a00005 	mov	r0, r5
    81e0:	eb00031f 	bl	8e64 <stepper_step_backward>
    81e4:	e1a00006 	mov	r0, r6
    81e8:	eb000719 	bl	9e54 <delay_us>
    81ec:	e1a00005 	mov	r0, r5
    81f0:	eb00032a 	bl	8ea0 <stepper_get_position_in_steps>
    81f4:	e2643063 	rsb	r3, r4, #99	; 0x63
    81f8:	e1500003 	cmp	r0, r3
    81fc:	0a000006 	beq	821c <test_stepper+0xbc>
    8200:	eb00057b 	bl	97f4 <rpi_reset_putc>
    8204:	e59f003c 	ldr	r0, [pc, #60]	; 8248 <test_stepper+0xe8>
    8208:	e59f1030 	ldr	r1, [pc, #48]	; 8240 <test_stepper+0xe0>
    820c:	e59f2030 	ldr	r2, [pc, #48]	; 8244 <test_stepper+0xe4>
    8210:	e3a03022 	mov	r3, #34	; 0x22
    8214:	eb00055b 	bl	9788 <printk>
    8218:	eb0006ca 	bl	9d48 <clean_reboot>
    821c:	e2844001 	add	r4, r4, #1
    8220:	e3540063 	cmp	r4, #99	; 0x63
    8224:	daffffec 	ble	81dc <test_stepper+0x7c>
    8228:	e59f001c 	ldr	r0, [pc, #28]	; 824c <test_stepper+0xec>
    822c:	eb000555 	bl	9788 <printk>
    8230:	e8bd8070 	pop	{r4, r5, r6, pc}
    8234:	0000ac98 	muleq	r0, r8, ip
    8238:	00002710 	andeq	r2, r0, r0, lsl r7
    823c:	0000acac 	andeq	sl, r0, ip, lsr #25
    8240:	0000ac88 	andeq	sl, r0, r8, lsl #25
    8244:	0000abb0 			; <UNDEFINED> instruction: 0x0000abb0
    8248:	0000ace8 	andeq	sl, r0, r8, ror #25
    824c:	0000ad2c 	andeq	sl, r0, ip, lsr #26

00008250 <test_stepper_with_interrupts>:
    8250:	e92d4ff0 	push	{r4, r5, r6, r7, r8, r9, sl, fp, lr}
    8254:	e24dd01c 	sub	sp, sp, #28
    8258:	e59f0180 	ldr	r0, [pc, #384]	; 83e0 <test_stepper_with_interrupts+0x190>
    825c:	eb000549 	bl	9788 <printk>
    8260:	e3a00015 	mov	r0, #21
    8264:	e3a01014 	mov	r1, #20
    8268:	eb000359 	bl	8fd4 <stepper_init_with_int>
    826c:	e1a06000 	mov	r6, r0
    8270:	e59f516c 	ldr	r5, [pc, #364]	; 83e4 <test_stepper_with_interrupts+0x194>
    8274:	e59f016c 	ldr	r0, [pc, #364]	; 83e8 <test_stepper_with_interrupts+0x198>
    8278:	e3a010c8 	mov	r1, #200	; 0xc8
    827c:	e1a02005 	mov	r2, r5
    8280:	eb000540 	bl	9788 <printk>
    8284:	eb0006ef 	bl	9e48 <timer_get_usec>
    8288:	e1a04000 	mov	r4, r0
    828c:	e1a00006 	mov	r0, r6
    8290:	e3a010c8 	mov	r1, #200	; 0xc8
    8294:	e1a02005 	mov	r2, r5
    8298:	eb000381 	bl	90a4 <stepper_int_enqueue_pos>
    829c:	e1a00006 	mov	r0, r6
    82a0:	eb0003d4 	bl	91f8 <stepper_int_is_free>
    82a4:	e3500000 	cmp	r0, #0
    82a8:	0afffffb 	beq	829c <test_stepper_with_interrupts+0x4c>
    82ac:	eb0006e5 	bl	9e48 <timer_get_usec>
    82b0:	e1a05000 	mov	r5, r0
    82b4:	e1a00006 	mov	r0, r6
    82b8:	eb00038b 	bl	90ec <stepper_int_get_position_in_steps>
    82bc:	e1a01000 	mov	r1, r0
    82c0:	e0653004 	rsb	r3, r5, r4
    82c4:	e283393d 	add	r3, r3, #999424	; 0xf4000
    82c8:	e2833d09 	add	r3, r3, #576	; 0x240
    82cc:	e58d3000 	str	r3, [sp]
    82d0:	e59f0114 	ldr	r0, [pc, #276]	; 83ec <test_stepper_with_interrupts+0x19c>
    82d4:	e0642005 	rsb	r2, r4, r5
    82d8:	e59f3110 	ldr	r3, [pc, #272]	; 83f0 <test_stepper_with_interrupts+0x1a0>
    82dc:	eb000529 	bl	9788 <printk>
    82e0:	e3a04000 	mov	r4, #0
    82e4:	e3a08064 	mov	r8, #100	; 0x64
    82e8:	e3e0a000 	mvn	sl, #0
    82ec:	e3a09001 	mov	r9, #1
    82f0:	e3a07e7d 	mov	r7, #2000	; 0x7d0
    82f4:	ea00000d 	b	8330 <test_stepper_with_interrupts+0xe0>
    82f8:	e2845001 	add	r5, r4, #1
    82fc:	e0020598 	mul	r2, r8, r5
    8300:	e3140001 	tst	r4, #1
    8304:	11a01009 	movne	r1, r9
    8308:	01a0100a 	moveq	r1, sl
    830c:	e2633004 	rsb	r3, r3, #4
    8310:	e1a00006 	mov	r0, r6
    8314:	e0010291 	mul	r1, r1, r2
    8318:	e0020397 	mul	r2, r7, r3
    831c:	eb000360 	bl	90a4 <stepper_int_enqueue_pos>
    8320:	e28d3018 	add	r3, sp, #24
    8324:	e0834104 	add	r4, r3, r4, lsl #2
    8328:	e5040010 	str	r0, [r4, #-16]
    832c:	e1a04005 	mov	r4, r5
    8330:	e1a03004 	mov	r3, r4
    8334:	e3540003 	cmp	r4, #3
    8338:	9affffee 	bls	82f8 <test_stepper_with_interrupts+0xa8>
    833c:	e3a05000 	mov	r5, #0
    8340:	e59f90ac 	ldr	r9, [pc, #172]	; 83f4 <test_stepper_with_interrupts+0x1a4>
    8344:	e3a08064 	mov	r8, #100	; 0x64
    8348:	e3e0b000 	mvn	fp, #0
    834c:	e3a0a001 	mov	sl, #1
    8350:	ea00001b 	b	83c4 <test_stepper_with_interrupts+0x174>
    8354:	e28d3018 	add	r3, sp, #24
    8358:	e0834105 	add	r4, r3, r5, lsl #2
    835c:	e5140010 	ldr	r0, [r4, #-16]
    8360:	eb0003a9 	bl	920c <stepper_int_position_is_complete>
    8364:	e3500000 	cmp	r0, #0
    8368:	0afffffb 	beq	835c <test_stepper_with_interrupts+0x10c>
    836c:	e1a00006 	mov	r0, r6
    8370:	eb00035d 	bl	90ec <stepper_int_get_position_in_steps>
    8374:	e1a04000 	mov	r4, r0
    8378:	e1a00009 	mov	r0, r9
    837c:	e1a01005 	mov	r1, r5
    8380:	e1a02004 	mov	r2, r4
    8384:	eb0004ff 	bl	9788 <printk>
    8388:	e2855001 	add	r5, r5, #1
    838c:	e0030598 	mul	r3, r8, r5
    8390:	e3170001 	tst	r7, #1
    8394:	11a0200a 	movne	r2, sl
    8398:	01a0200b 	moveq	r2, fp
    839c:	e0030392 	mul	r3, r2, r3
    83a0:	e1530004 	cmp	r3, r4
    83a4:	0a000006 	beq	83c4 <test_stepper_with_interrupts+0x174>
    83a8:	eb000511 	bl	97f4 <rpi_reset_putc>
    83ac:	e59f0044 	ldr	r0, [pc, #68]	; 83f8 <test_stepper_with_interrupts+0x1a8>
    83b0:	e59f1044 	ldr	r1, [pc, #68]	; 83fc <test_stepper_with_interrupts+0x1ac>
    83b4:	e59f2044 	ldr	r2, [pc, #68]	; 8400 <test_stepper_with_interrupts+0x1b0>
    83b8:	e3a03043 	mov	r3, #67	; 0x43
    83bc:	eb0004f1 	bl	9788 <printk>
    83c0:	eb000660 	bl	9d48 <clean_reboot>
    83c4:	e1a07005 	mov	r7, r5
    83c8:	e3550003 	cmp	r5, #3
    83cc:	9affffe0 	bls	8354 <test_stepper_with_interrupts+0x104>
    83d0:	e59f002c 	ldr	r0, [pc, #44]	; 8404 <test_stepper_with_interrupts+0x1b4>
    83d4:	eb0004eb 	bl	9788 <printk>
    83d8:	e28dd01c 	add	sp, sp, #28
    83dc:	e8bd8ff0 	pop	{r4, r5, r6, r7, r8, r9, sl, fp, pc}
    83e0:	0000ad58 	andeq	sl, r0, r8, asr sp
    83e4:	00001388 	andeq	r1, r0, r8, lsl #7
    83e8:	0000ad7c 	andeq	sl, r0, ip, ror sp
    83ec:	0000adc0 	andeq	sl, r0, r0, asr #27
    83f0:	000f4240 	andeq	r4, pc, r0, asr #4
    83f4:	0000ae04 	andeq	sl, r0, r4, lsl #28
    83f8:	0000ae20 	andeq	sl, r0, r0, lsr #28
    83fc:	0000ac88 	andeq	sl, r0, r8, lsl #25
    8400:	0000abc0 	andeq	sl, r0, r0, asr #23
    8404:	0000ae54 	andeq	sl, r0, r4, asr lr

00008408 <test_microstepping>:
    8408:	e92d40f0 	push	{r4, r5, r6, r7, lr}
    840c:	e24dd00c 	sub	sp, sp, #12
    8410:	e59f0098 	ldr	r0, [pc, #152]	; 84b0 <test_microstepping+0xa8>
    8414:	eb0004db 	bl	9788 <printk>
    8418:	e3a0301a 	mov	r3, #26
    841c:	e58d3000 	str	r3, [sp]
    8420:	e3a04004 	mov	r4, #4
    8424:	e58d4004 	str	r4, [sp, #4]
    8428:	e3a00015 	mov	r0, #21
    842c:	e3a01014 	mov	r1, #20
    8430:	e3a0200d 	mov	r2, #13
    8434:	e3a03013 	mov	r3, #19
    8438:	eb000260 	bl	8dc0 <stepper_init_with_microsteps>
    843c:	e1a05000 	mov	r5, r0
    8440:	e1a01004 	mov	r1, r4
    8444:	eb00020e 	bl	8c84 <stepper_set_microsteps>
    8448:	e3a04000 	mov	r4, #0
    844c:	e59f6060 	ldr	r6, [pc, #96]	; 84b4 <test_microstepping+0xac>
    8450:	e59f7060 	ldr	r7, [pc, #96]	; 84b8 <test_microstepping+0xb0>
    8454:	ea000004 	b	846c <test_microstepping+0x64>
    8458:	e1a00005 	mov	r0, r5
    845c:	eb000271 	bl	8e28 <stepper_step_forward>
    8460:	e1a00007 	mov	r0, r7
    8464:	eb00067a 	bl	9e54 <delay_us>
    8468:	e2844001 	add	r4, r4, #1
    846c:	e1540006 	cmp	r4, r6
    8470:	dafffff8 	ble	8458 <test_microstepping+0x50>
    8474:	e3a04000 	mov	r4, #0
    8478:	e59f6034 	ldr	r6, [pc, #52]	; 84b4 <test_microstepping+0xac>
    847c:	e59f7034 	ldr	r7, [pc, #52]	; 84b8 <test_microstepping+0xb0>
    8480:	ea000004 	b	8498 <test_microstepping+0x90>
    8484:	e1a00005 	mov	r0, r5
    8488:	eb000275 	bl	8e64 <stepper_step_backward>
    848c:	e1a00007 	mov	r0, r7
    8490:	eb00066f 	bl	9e54 <delay_us>
    8494:	e2844001 	add	r4, r4, #1
    8498:	e1540006 	cmp	r4, r6
    849c:	dafffff8 	ble	8484 <test_microstepping+0x7c>
    84a0:	e59f0014 	ldr	r0, [pc, #20]	; 84bc <test_microstepping+0xb4>
    84a4:	eb0004b7 	bl	9788 <printk>
    84a8:	e28dd00c 	add	sp, sp, #12
    84ac:	e8bd80f0 	pop	{r4, r5, r6, r7, pc}
    84b0:	0000ae60 	andeq	sl, r0, r0, ror #28
    84b4:	000003e7 	andeq	r0, r0, r7, ror #7
    84b8:	00002710 	andeq	r2, r0, r0, lsl r7
    84bc:	0000ae54 	andeq	sl, r0, r4, asr lr

000084c0 <imu_rd>:
    84c0:	e92d4010 	push	{r4, lr}
    84c4:	e24dd010 	sub	sp, sp, #16
    84c8:	e5cd1007 	strb	r1, [sp, #7]
    84cc:	e2504000 	subs	r4, r0, #0
    84d0:	1a000006 	bne	84f0 <imu_rd+0x30>
    84d4:	eb0004c6 	bl	97f4 <rpi_reset_putc>
    84d8:	e59f0064 	ldr	r0, [pc, #100]	; 8544 <imu_rd+0x84>
    84dc:	e59f1064 	ldr	r1, [pc, #100]	; 8548 <imu_rd+0x88>
    84e0:	e59f2064 	ldr	r2, [pc, #100]	; 854c <imu_rd+0x8c>
    84e4:	e3a03063 	mov	r3, #99	; 0x63
    84e8:	eb0004a6 	bl	9788 <printk>
    84ec:	eb000615 	bl	9d48 <clean_reboot>
    84f0:	e5dd3007 	ldrb	r3, [sp, #7]
    84f4:	e3530000 	cmp	r3, #0
    84f8:	1a000006 	bne	8518 <imu_rd+0x58>
    84fc:	eb0004bc 	bl	97f4 <rpi_reset_putc>
    8500:	e59f0048 	ldr	r0, [pc, #72]	; 8550 <imu_rd+0x90>
    8504:	e59f103c 	ldr	r1, [pc, #60]	; 8548 <imu_rd+0x88>
    8508:	e59f203c 	ldr	r2, [pc, #60]	; 854c <imu_rd+0x8c>
    850c:	e3a03064 	mov	r3, #100	; 0x64
    8510:	eb00049c 	bl	9788 <printk>
    8514:	eb00060b 	bl	9d48 <clean_reboot>
    8518:	e1a00004 	mov	r0, r4
    851c:	e28d1007 	add	r1, sp, #7
    8520:	e3a02001 	mov	r2, #1
    8524:	eb000407 	bl	9548 <i2c_write>
    8528:	e1a00004 	mov	r0, r4
    852c:	e28d100f 	add	r1, sp, #15
    8530:	e3a02001 	mov	r2, #1
    8534:	eb000434 	bl	960c <i2c_read>
    8538:	e5dd000f 	ldrb	r0, [sp, #15]
    853c:	e28dd010 	add	sp, sp, #16
    8540:	e8bd8010 	pop	{r4, pc}
    8544:	0000ae7c 	andeq	sl, r0, ip, ror lr
    8548:	0000ac88 	andeq	sl, r0, r8, lsl #25
    854c:	0000abe0 	andeq	sl, r0, r0, ror #23
    8550:	0000ae94 	muleq	r0, r4, lr

00008554 <imu_wr>:
    8554:	e52de004 	push	{lr}		; (str lr, [sp, #-4]!)
    8558:	e24dd00c 	sub	sp, sp, #12
    855c:	e3500000 	cmp	r0, #0
    8560:	1a000006 	bne	8580 <imu_wr+0x2c>
    8564:	eb0004a2 	bl	97f4 <rpi_reset_putc>
    8568:	e59f0050 	ldr	r0, [pc, #80]	; 85c0 <imu_wr+0x6c>
    856c:	e59f1050 	ldr	r1, [pc, #80]	; 85c4 <imu_wr+0x70>
    8570:	e59f2050 	ldr	r2, [pc, #80]	; 85c8 <imu_wr+0x74>
    8574:	e3a0306e 	mov	r3, #110	; 0x6e
    8578:	eb000482 	bl	9788 <printk>
    857c:	eb0005f1 	bl	9d48 <clean_reboot>
    8580:	e3510000 	cmp	r1, #0
    8584:	1a000006 	bne	85a4 <imu_wr+0x50>
    8588:	eb000499 	bl	97f4 <rpi_reset_putc>
    858c:	e59f0038 	ldr	r0, [pc, #56]	; 85cc <imu_wr+0x78>
    8590:	e59f102c 	ldr	r1, [pc, #44]	; 85c4 <imu_wr+0x70>
    8594:	e59f202c 	ldr	r2, [pc, #44]	; 85c8 <imu_wr+0x74>
    8598:	e3a0306f 	mov	r3, #111	; 0x6f
    859c:	eb000479 	bl	9788 <printk>
    85a0:	eb0005e8 	bl	9d48 <clean_reboot>
    85a4:	e5cd1004 	strb	r1, [sp, #4]
    85a8:	e5cd2005 	strb	r2, [sp, #5]
    85ac:	e28d1004 	add	r1, sp, #4
    85b0:	e3a02002 	mov	r2, #2
    85b4:	eb0003e3 	bl	9548 <i2c_write>
    85b8:	e28dd00c 	add	sp, sp, #12
    85bc:	e49df004 	pop	{pc}		; (ldr pc, [sp], #4)
    85c0:	0000ae7c 	andeq	sl, r0, ip, ror lr
    85c4:	0000ac88 	andeq	sl, r0, r8, lsl #25
    85c8:	0000abe8 	andeq	sl, r0, r8, ror #23
    85cc:	0000ae94 	muleq	r0, r4, lr

000085d0 <imu_rd_n>:
    85d0:	e92d4070 	push	{r4, r5, r6, lr}
    85d4:	e24dd008 	sub	sp, sp, #8
    85d8:	e1a06002 	mov	r6, r2
    85dc:	e1a05003 	mov	r5, r3
    85e0:	e5cd1007 	strb	r1, [sp, #7]
    85e4:	e2504000 	subs	r4, r0, #0
    85e8:	1a000006 	bne	8608 <imu_rd_n+0x38>
    85ec:	eb000480 	bl	97f4 <rpi_reset_putc>
    85f0:	e59f0060 	ldr	r0, [pc, #96]	; 8658 <imu_rd_n+0x88>
    85f4:	e59f1060 	ldr	r1, [pc, #96]	; 865c <imu_rd_n+0x8c>
    85f8:	e59f2060 	ldr	r2, [pc, #96]	; 8660 <imu_rd_n+0x90>
    85fc:	e3a0307a 	mov	r3, #122	; 0x7a
    8600:	eb000460 	bl	9788 <printk>
    8604:	eb0005cf 	bl	9d48 <clean_reboot>
    8608:	e5dd3007 	ldrb	r3, [sp, #7]
    860c:	e3530000 	cmp	r3, #0
    8610:	1a000006 	bne	8630 <imu_rd_n+0x60>
    8614:	eb000476 	bl	97f4 <rpi_reset_putc>
    8618:	e59f0044 	ldr	r0, [pc, #68]	; 8664 <imu_rd_n+0x94>
    861c:	e59f1038 	ldr	r1, [pc, #56]	; 865c <imu_rd_n+0x8c>
    8620:	e59f2038 	ldr	r2, [pc, #56]	; 8660 <imu_rd_n+0x90>
    8624:	e3a0307b 	mov	r3, #123	; 0x7b
    8628:	eb000456 	bl	9788 <printk>
    862c:	eb0005c5 	bl	9d48 <clean_reboot>
    8630:	e1a00004 	mov	r0, r4
    8634:	e28d1007 	add	r1, sp, #7
    8638:	e3a02001 	mov	r2, #1
    863c:	eb0003c1 	bl	9548 <i2c_write>
    8640:	e1a00004 	mov	r0, r4
    8644:	e1a01006 	mov	r1, r6
    8648:	e1a02005 	mov	r2, r5
    864c:	eb0003ee 	bl	960c <i2c_read>
    8650:	e28dd008 	add	sp, sp, #8
    8654:	e8bd8070 	pop	{r4, r5, r6, pc}
    8658:	0000ae7c 	andeq	sl, r0, ip, ror lr
    865c:	0000ac88 	andeq	sl, r0, r8, lsl #25
    8660:	0000abf0 	strdeq	sl, [r0], -r0
    8664:	0000aea8 	andeq	sl, r0, r8, lsr #29

00008668 <dps_to_scale>:
    8668:	e92d4008 	push	{r3, lr}
    866c:	e3500f7d 	cmp	r0, #500	; 0x1f4
    8670:	0a000015 	beq	86cc <dps_to_scale+0x64>
    8674:	8a000002 	bhi	8684 <dps_to_scale+0x1c>
    8678:	e35000f5 	cmp	r0, #245	; 0xf5
    867c:	0a000010 	beq	86c4 <dps_to_scale+0x5c>
    8680:	ea000008 	b	86a8 <dps_to_scale+0x40>
    8684:	e3500ffa 	cmp	r0, #1000	; 0x3e8
    8688:	0a000002 	beq	8698 <dps_to_scale+0x30>
    868c:	e3500e7d 	cmp	r0, #2000	; 0x7d0
    8690:	0a000002 	beq	86a0 <dps_to_scale+0x38>
    8694:	ea000003 	b	86a8 <dps_to_scale+0x40>
    8698:	e59f0034 	ldr	r0, [pc, #52]	; 86d4 <dps_to_scale+0x6c>
    869c:	e8bd8008 	pop	{r3, pc}
    86a0:	e59f0030 	ldr	r0, [pc, #48]	; 86d8 <dps_to_scale+0x70>
    86a4:	e8bd8008 	pop	{r3, pc}
    86a8:	eb000451 	bl	97f4 <rpi_reset_putc>
    86ac:	e59f0028 	ldr	r0, [pc, #40]	; 86dc <dps_to_scale+0x74>
    86b0:	e59f1028 	ldr	r1, [pc, #40]	; 86e0 <dps_to_scale+0x78>
    86b4:	e59f2028 	ldr	r2, [pc, #40]	; 86e4 <dps_to_scale+0x7c>
    86b8:	e3a0309d 	mov	r3, #157	; 0x9d
    86bc:	eb000431 	bl	9788 <printk>
    86c0:	eb0005a0 	bl	9d48 <clean_reboot>
    86c4:	e59f001c 	ldr	r0, [pc, #28]	; 86e8 <dps_to_scale+0x80>
    86c8:	e8bd8008 	pop	{r3, pc}
    86cc:	e59f0018 	ldr	r0, [pc, #24]	; 86ec <dps_to_scale+0x84>
    86d0:	e8bd8008 	pop	{r3, pc}
    86d4:	000088b8 			; <UNDEFINED> instruction: 0x000088b8
    86d8:	00011170 	andeq	r1, r1, r0, ror r1
    86dc:	0000aec4 	andeq	sl, r0, r4, asr #29
    86e0:	0000ac88 	andeq	sl, r0, r8, lsl #25
    86e4:	0000abfc 	strdeq	sl, [r0], -ip
    86e8:	0000222e 	andeq	r2, r0, lr, lsr #4
    86ec:	0000445c 	andeq	r4, r0, ip, asr r4

000086f0 <init_gyro>:
    86f0:	e92d40f0 	push	{r4, r5, r6, r7, lr}
    86f4:	e24dd00c 	sub	sp, sp, #12
    86f8:	e1a05000 	mov	r5, r0
    86fc:	e1a07001 	mov	r7, r1
    8700:	e1a04002 	mov	r4, r2
    8704:	e1a06003 	mov	r6, r3
    8708:	eb00085d 	bl	a884 <dev_barrier>
    870c:	e59f3114 	ldr	r3, [pc, #276]	; 8828 <init_gyro+0x138>
    8710:	e1540003 	cmp	r4, r3
    8714:	135408f5 	cmpne	r4, #16056320	; 0xf50000
    8718:	0a000006 	beq	8738 <init_gyro+0x48>
    871c:	e59f3108 	ldr	r3, [pc, #264]	; 882c <init_gyro+0x13c>
    8720:	e59f2108 	ldr	r2, [pc, #264]	; 8830 <init_gyro+0x140>
    8724:	e1540003 	cmp	r4, r3
    8728:	11540002 	cmpne	r4, r2
    872c:	1a000003 	bne	8740 <init_gyro+0x50>
    8730:	e3a03001 	mov	r3, #1
    8734:	ea000002 	b	8744 <init_gyro+0x54>
    8738:	e3a03001 	mov	r3, #1
    873c:	ea000000 	b	8744 <init_gyro+0x54>
    8740:	e3a03000 	mov	r3, #0
    8744:	e3530000 	cmp	r3, #0
    8748:	1a000007 	bne	876c <init_gyro+0x7c>
    874c:	eb000428 	bl	97f4 <rpi_reset_putc>
    8750:	e58d4000 	str	r4, [sp]
    8754:	e59f00d8 	ldr	r0, [pc, #216]	; 8834 <init_gyro+0x144>
    8758:	e59f10d8 	ldr	r1, [pc, #216]	; 8838 <init_gyro+0x148>
    875c:	e59f20d8 	ldr	r2, [pc, #216]	; 883c <init_gyro+0x14c>
    8760:	e3a030ae 	mov	r3, #174	; 0xae
    8764:	eb000407 	bl	9788 <printk>
    8768:	eb000576 	bl	9d48 <clean_reboot>
    876c:	e3560008 	cmp	r6, #8
    8770:	1a000006 	bne	8790 <init_gyro+0xa0>
    8774:	eb00041e 	bl	97f4 <rpi_reset_putc>
    8778:	e59f00c0 	ldr	r0, [pc, #192]	; 8840 <init_gyro+0x150>
    877c:	e59f10c0 	ldr	r1, [pc, #192]	; 8844 <init_gyro+0x154>
    8780:	e59f20c0 	ldr	r2, [pc, #192]	; 8848 <init_gyro+0x158>
    8784:	e3a0303e 	mov	r3, #62	; 0x3e
    8788:	eb0003fe 	bl	9788 <printk>
    878c:	eb00056d 	bl	9d48 <clean_reboot>
    8790:	e3560008 	cmp	r6, #8
    8794:	9a000007 	bls	87b8 <init_gyro+0xc8>
    8798:	eb000415 	bl	97f4 <rpi_reset_putc>
    879c:	e58d6000 	str	r6, [sp]
    87a0:	e59f00a4 	ldr	r0, [pc, #164]	; 884c <init_gyro+0x15c>
    87a4:	e59f108c 	ldr	r1, [pc, #140]	; 8838 <init_gyro+0x148>
    87a8:	e59f208c 	ldr	r2, [pc, #140]	; 883c <init_gyro+0x14c>
    87ac:	e3a030b0 	mov	r3, #176	; 0xb0
    87b0:	eb0003f4 	bl	9788 <printk>
    87b4:	eb000563 	bl	9d48 <clean_reboot>
    87b8:	e1a00007 	mov	r0, r7
    87bc:	e3a01019 	mov	r1, #25
    87c0:	e3a02038 	mov	r2, #56	; 0x38
    87c4:	ebffff62 	bl	8554 <imu_wr>
    87c8:	e3a00050 	mov	r0, #80	; 0x50
    87cc:	eb0005a9 	bl	9e78 <delay_ms>
    87d0:	e1a00007 	mov	r0, r7
    87d4:	e3a01012 	mov	r1, #18
    87d8:	e3a02044 	mov	r2, #68	; 0x44
    87dc:	ebffff5c 	bl	8554 <imu_wr>
    87e0:	e1a02104 	lsl	r2, r4, #2
    87e4:	e1822206 	orr	r2, r2, r6, lsl #4
    87e8:	e1a00007 	mov	r0, r7
    87ec:	e3a01011 	mov	r1, #17
    87f0:	e20220fc 	and	r2, r2, #252	; 0xfc
    87f4:	ebffff56 	bl	8554 <imu_wr>
    87f8:	e5c57000 	strb	r7, [r5]
    87fc:	e5856004 	str	r6, [r5, #4]
    8800:	e5854008 	str	r4, [r5, #8]
    8804:	e3a000f5 	mov	r0, #245	; 0xf5
    8808:	ebffff96 	bl	8668 <dps_to_scale>
    880c:	e585000c 	str	r0, [r5, #12]
    8810:	e3a00050 	mov	r0, #80	; 0x50
    8814:	eb000597 	bl	9e78 <delay_ms>
    8818:	eb000819 	bl	a884 <dev_barrier>
    881c:	e1a00005 	mov	r0, r5
    8820:	e28dd00c 	add	sp, sp, #12
    8824:	e8bd80f0 	pop	{r4, r5, r6, r7, pc}
    8828:	01f40001 	mvnseq	r0, r1
    882c:	07d00003 	ldrbeq	r0, [r0, r3]
    8830:	03e80002 	mvneq	r0, #2
    8834:	0000aed8 	ldrdeq	sl, [r0], -r8
    8838:	0000ac88 	andeq	sl, r0, r8, lsl #25
    883c:	0000ac0c 	andeq	sl, r0, ip, lsl #24
    8840:	0000aefc 	strdeq	sl, [r0], -ip
    8844:	0000af30 	andeq	sl, r0, r0, lsr pc
    8848:	0000ac18 	andeq	sl, r0, r8, lsl ip
    884c:	0000af3c 	andeq	sl, r0, ip, lsr pc

00008850 <gyro_has_data>:
    8850:	e92d4008 	push	{r3, lr}
    8854:	e5d00000 	ldrb	r0, [r0]
    8858:	e3a0101e 	mov	r1, #30
    885c:	ebffff17 	bl	84c0 <imu_rd>
    8860:	e3100002 	tst	r0, #2
    8864:	0a000001 	beq	8870 <gyro_has_data+0x20>
    8868:	e3a00001 	mov	r0, #1
    886c:	e8bd8008 	pop	{r3, pc}
    8870:	e3a00000 	mov	r0, #0
    8874:	e8bd8008 	pop	{r3, pc}

00008878 <gyro_rd>:
    8878:	e92d4070 	push	{r4, r5, r6, lr}
    887c:	e24dd008 	sub	sp, sp, #8
    8880:	e1a05000 	mov	r5, r0
    8884:	e1a04001 	mov	r4, r1
    8888:	e1a00004 	mov	r0, r4
    888c:	ebffffef 	bl	8850 <gyro_has_data>
    8890:	e3500000 	cmp	r0, #0
    8894:	0afffffb 	beq	8888 <gyro_rd+0x10>
    8898:	e5d40000 	ldrb	r0, [r4]
    889c:	e3a01022 	mov	r1, #34	; 0x22
    88a0:	e1a0200d 	mov	r2, sp
    88a4:	e3a03006 	mov	r3, #6
    88a8:	ebffff48 	bl	85d0 <imu_rd_n>
    88ac:	e5dd0001 	ldrb	r0, [sp, #1]
    88b0:	e5dd1000 	ldrb	r1, [sp]
    88b4:	ebfffdd9 	bl	8020 <mdps_raw>
    88b8:	e1a06000 	mov	r6, r0
    88bc:	e5dd0003 	ldrb	r0, [sp, #3]
    88c0:	e5dd1002 	ldrb	r1, [sp, #2]
    88c4:	ebfffdd5 	bl	8020 <mdps_raw>
    88c8:	e1a04000 	mov	r4, r0
    88cc:	e5dd0005 	ldrb	r0, [sp, #5]
    88d0:	e5dd1004 	ldrb	r1, [sp, #4]
    88d4:	ebfffdd1 	bl	8020 <mdps_raw>
    88d8:	e5856000 	str	r6, [r5]
    88dc:	e5854004 	str	r4, [r5, #4]
    88e0:	e5850008 	str	r0, [r5, #8]
    88e4:	e1a00005 	mov	r0, r5
    88e8:	e28dd008 	add	sp, sp, #8
    88ec:	e8bd8070 	pop	{r4, r5, r6, pc}

000088f0 <gyro_motor>:
    88f0:	e92d4ff0 	push	{r4, r5, r6, r7, r8, r9, sl, fp, lr}
    88f4:	e24dd04c 	sub	sp, sp, #76	; 0x4c
    88f8:	e3a00064 	mov	r0, #100	; 0x64
    88fc:	eb00055d 	bl	9e78 <delay_ms>
    8900:	eb000375 	bl	96dc <i2c_init>
    8904:	e3a00064 	mov	r0, #100	; 0x64
    8908:	eb00055a 	bl	9e78 <delay_ms>
    890c:	e59f02e0 	ldr	r0, [pc, #736]	; 8bf4 <gyro_motor+0x304>
    8910:	e3a0106b 	mov	r1, #107	; 0x6b
    8914:	eb00039b 	bl	9788 <printk>
    8918:	e59f02d8 	ldr	r0, [pc, #728]	; 8bf8 <gyro_motor+0x308>
    891c:	e3a0100f 	mov	r1, #15
    8920:	eb000398 	bl	9788 <printk>
    8924:	e3a0006b 	mov	r0, #107	; 0x6b
    8928:	e3a0100f 	mov	r1, #15
    892c:	ebfffee3 	bl	84c0 <imu_rd>
    8930:	e3500069 	cmp	r0, #105	; 0x69
    8934:	0a000006 	beq	8954 <gyro_motor+0x64>
    8938:	eb0003ad 	bl	97f4 <rpi_reset_putc>
    893c:	e59f02b8 	ldr	r0, [pc, #696]	; 8bfc <gyro_motor+0x30c>
    8940:	e59f12b8 	ldr	r1, [pc, #696]	; 8c00 <gyro_motor+0x310>
    8944:	e59f22b8 	ldr	r2, [pc, #696]	; 8c04 <gyro_motor+0x314>
    8948:	e3a03f41 	mov	r3, #260	; 0x104
    894c:	eb00038d 	bl	9788 <printk>
    8950:	eb0004fc 	bl	9d48 <clean_reboot>
    8954:	e3a000f5 	mov	r0, #245	; 0xf5
    8958:	ebffff42 	bl	8668 <dps_to_scale>
    895c:	e1a04000 	mov	r4, r0
    8960:	e3a00000 	mov	r0, #0
    8964:	e1a01000 	mov	r1, r0
    8968:	e1a02000 	mov	r2, r0
    896c:	e1a03004 	mov	r3, r4
    8970:	ebfffdce 	bl	80b0 <test_dps>
    8974:	e3a00064 	mov	r0, #100	; 0x64
    8978:	e3a0102c 	mov	r1, #44	; 0x2c
    897c:	e3a020a4 	mov	r2, #164	; 0xa4
    8980:	e1a03004 	mov	r3, r4
    8984:	ebfffdc9 	bl	80b0 <test_dps>
    8988:	e3a000c8 	mov	r0, #200	; 0xc8
    898c:	e3a01059 	mov	r1, #89	; 0x59
    8990:	e3a02049 	mov	r2, #73	; 0x49
    8994:	e1a03004 	mov	r3, r4
    8998:	ebfffdc4 	bl	80b0 <test_dps>
    899c:	e3e00063 	mvn	r0, #99	; 0x63
    89a0:	e3a010d3 	mov	r1, #211	; 0xd3
    89a4:	e3a0205c 	mov	r2, #92	; 0x5c
    89a8:	e1a03004 	mov	r3, r4
    89ac:	ebfffdbf 	bl	80b0 <test_dps>
    89b0:	e3e000c7 	mvn	r0, #199	; 0xc7
    89b4:	e3a010a6 	mov	r1, #166	; 0xa6
    89b8:	e3a020b7 	mov	r2, #183	; 0xb7
    89bc:	e1a03004 	mov	r3, r4
    89c0:	ebfffdba 	bl	80b0 <test_dps>
    89c4:	e59f023c 	ldr	r0, [pc, #572]	; 8c08 <gyro_motor+0x318>
    89c8:	eb00036e 	bl	9788 <printk>
    89cc:	e28d0038 	add	r0, sp, #56	; 0x38
    89d0:	e3a0106b 	mov	r1, #107	; 0x6b
    89d4:	e3a028f5 	mov	r2, #16056320	; 0xf50000
    89d8:	e3a03005 	mov	r3, #5
    89dc:	ebffff43 	bl	86f0 <init_gyro>
    89e0:	e3a00015 	mov	r0, #21
    89e4:	e3a01014 	mov	r1, #20
    89e8:	eb000097 	bl	8c4c <stepper_init>
    89ec:	e1a05000 	mov	r5, r0
    89f0:	e3a0b000 	mov	fp, #0
    89f4:	e58db028 	str	fp, [sp, #40]	; 0x28
    89f8:	e58db02c 	str	fp, [sp, #44]	; 0x2c
    89fc:	e58db030 	str	fp, [sp, #48]	; 0x30
    8a00:	e58db034 	str	fp, [sp, #52]	; 0x34
    8a04:	ea000011 	b	8a50 <gyro_motor+0x160>
    8a08:	e28d401c 	add	r4, sp, #28
    8a0c:	e1a00004 	mov	r0, r4
    8a10:	e28d1038 	add	r1, sp, #56	; 0x38
    8a14:	ebffff97 	bl	8878 <gyro_rd>
    8a18:	e28d6008 	add	r6, sp, #8
    8a1c:	e59d3024 	ldr	r3, [sp, #36]	; 0x24
    8a20:	e58d3000 	str	r3, [sp]
    8a24:	e894000c 	ldm	r4, {r2, r3}
    8a28:	e1a00006 	mov	r0, r6
    8a2c:	e28d1038 	add	r1, sp, #56	; 0x38
    8a30:	ebfffd84 	bl	8048 <gyro_scale>
    8a34:	e8960007 	ldm	r6, {r0, r1, r2}
    8a38:	e8840007 	stm	r4, {r0, r1, r2}
    8a3c:	e28d2048 	add	r2, sp, #72	; 0x48
    8a40:	e082310b 	add	r3, r2, fp, lsl #2
    8a44:	e59d201c 	ldr	r2, [sp, #28]
    8a48:	e5032020 	str	r2, [r3, #-32]
    8a4c:	e28bb001 	add	fp, fp, #1
    8a50:	e35b0003 	cmp	fp, #3
    8a54:	daffffeb 	ble	8a08 <gyro_motor+0x118>
    8a58:	e28d6008 	add	r6, sp, #8
    8a5c:	e1a00006 	mov	r0, r6
    8a60:	e28d1038 	add	r1, sp, #56	; 0x38
    8a64:	ebffff83 	bl	8878 <gyro_rd>
    8a68:	e28d401c 	add	r4, sp, #28
    8a6c:	e8960007 	ldm	r6, {r0, r1, r2}
    8a70:	e8840007 	stm	r4, {r0, r1, r2}
    8a74:	e59f0190 	ldr	r0, [pc, #400]	; 8c0c <gyro_motor+0x31c>
    8a78:	e59d101c 	ldr	r1, [sp, #28]
    8a7c:	e59d2020 	ldr	r2, [sp, #32]
    8a80:	e59d3024 	ldr	r3, [sp, #36]	; 0x24
    8a84:	eb00033f 	bl	9788 <printk>
    8a88:	e59d3024 	ldr	r3, [sp, #36]	; 0x24
    8a8c:	e58d3000 	str	r3, [sp]
    8a90:	e894000c 	ldm	r4, {r2, r3}
    8a94:	e1a00006 	mov	r0, r6
    8a98:	e28d1038 	add	r1, sp, #56	; 0x38
    8a9c:	ebfffd69 	bl	8048 <gyro_scale>
    8aa0:	e8960007 	ldm	r6, {r0, r1, r2}
    8aa4:	e8840007 	stm	r4, {r0, r1, r2}
    8aa8:	e59da01c 	ldr	sl, [sp, #28]
    8aac:	e59f015c 	ldr	r0, [pc, #348]	; 8c10 <gyro_motor+0x320>
    8ab0:	e1a0100a 	mov	r1, sl
    8ab4:	e59d2020 	ldr	r2, [sp, #32]
    8ab8:	e59d3024 	ldr	r3, [sp, #36]	; 0x24
    8abc:	eb000331 	bl	9788 <printk>
    8ac0:	e59d202c 	ldr	r2, [sp, #44]	; 0x2c
    8ac4:	e59d8028 	ldr	r8, [sp, #40]	; 0x28
    8ac8:	e0888002 	add	r8, r8, r2
    8acc:	e59d3030 	ldr	r3, [sp, #48]	; 0x30
    8ad0:	e59d9034 	ldr	r9, [sp, #52]	; 0x34
    8ad4:	e0888003 	add	r8, r8, r3
    8ad8:	e0888009 	add	r8, r8, r9
    8adc:	e2881003 	add	r1, r8, #3
    8ae0:	e3580000 	cmp	r8, #0
    8ae4:	b1a08001 	movlt	r8, r1
    8ae8:	e1a08148 	asr	r8, r8, #2
    8aec:	e35b0004 	cmp	fp, #4
    8af0:	0a000006 	beq	8b10 <gyro_motor+0x220>
    8af4:	eb00033e 	bl	97f4 <rpi_reset_putc>
    8af8:	e59f0114 	ldr	r0, [pc, #276]	; 8c14 <gyro_motor+0x324>
    8afc:	e59f10fc 	ldr	r1, [pc, #252]	; 8c00 <gyro_motor+0x310>
    8b00:	e59f20fc 	ldr	r2, [pc, #252]	; 8c04 <gyro_motor+0x314>
    8b04:	e59f310c 	ldr	r3, [pc, #268]	; 8c18 <gyro_motor+0x328>
    8b08:	eb00031e 	bl	9788 <printk>
    8b0c:	eb00048d 	bl	9d48 <clean_reboot>
    8b10:	e58d2028 	str	r2, [sp, #40]	; 0x28
    8b14:	e58d302c 	str	r3, [sp, #44]	; 0x2c
    8b18:	e58d9030 	str	r9, [sp, #48]	; 0x30
    8b1c:	e58da034 	str	sl, [sp, #52]	; 0x34
    8b20:	e59f30f4 	ldr	r3, [pc, #244]	; 8c1c <gyro_motor+0x32c>
    8b24:	e1580003 	cmp	r8, r3
    8b28:	da000013 	ble	8b7c <gyro_motor+0x28c>
    8b2c:	e15a0009 	cmp	sl, r9
    8b30:	aa000011 	bge	8b7c <gyro_motor+0x28c>
    8b34:	e59f20e4 	ldr	r2, [pc, #228]	; 8c20 <gyro_motor+0x330>
    8b38:	e1580002 	cmp	r8, r2
    8b3c:	c1a08002 	movgt	r8, r2
    8b40:	e3a04000 	mov	r4, #0
    8b44:	e2686c75 	rsb	r6, r8, #29952	; 0x7500
    8b48:	e2866030 	add	r6, r6, #48	; 0x30
    8b4c:	e3a07001 	mov	r7, #1
    8b50:	ea000007 	b	8b74 <gyro_motor+0x284>
    8b54:	e1a00005 	mov	r0, r5
    8b58:	eb0000b2 	bl	8e28 <stepper_step_forward>
    8b5c:	e1a00006 	mov	r0, r6
    8b60:	e3560000 	cmp	r6, #0
    8b64:	01a00007 	moveq	r0, r7
    8b68:	e2800e7d 	add	r0, r0, #2000	; 0x7d0
    8b6c:	eb0004b8 	bl	9e54 <delay_us>
    8b70:	e2844001 	add	r4, r4, #1
    8b74:	e3540063 	cmp	r4, #99	; 0x63
    8b78:	dafffff5 	ble	8b54 <gyro_motor+0x264>
    8b7c:	e59f30a0 	ldr	r3, [pc, #160]	; 8c24 <gyro_motor+0x334>
    8b80:	e1580003 	cmp	r8, r3
    8b84:	aa000017 	bge	8be8 <gyro_motor+0x2f8>
    8b88:	e15a0009 	cmp	sl, r9
    8b8c:	da000015 	ble	8be8 <gyro_motor+0x2f8>
    8b90:	e59f2090 	ldr	r2, [pc, #144]	; 8c28 <gyro_motor+0x338>
    8b94:	e1580002 	cmp	r8, r2
    8b98:	b1a08002 	movlt	r8, r2
    8b9c:	e3580000 	cmp	r8, #0
    8ba0:	ba00000c 	blt	8bd8 <gyro_motor+0x2e8>
    8ba4:	eb000312 	bl	97f4 <rpi_reset_putc>
    8ba8:	e59f007c 	ldr	r0, [pc, #124]	; 8c2c <gyro_motor+0x33c>
    8bac:	e59f104c 	ldr	r1, [pc, #76]	; 8c00 <gyro_motor+0x310>
    8bb0:	e59f204c 	ldr	r2, [pc, #76]	; 8c04 <gyro_motor+0x314>
    8bb4:	e3a03f4e 	mov	r3, #312	; 0x138
    8bb8:	eb0002f2 	bl	9788 <printk>
    8bbc:	eb000461 	bl	9d48 <clean_reboot>
    8bc0:	e1a00005 	mov	r0, r5
    8bc4:	eb0000a6 	bl	8e64 <stepper_step_backward>
    8bc8:	e1a00008 	mov	r0, r8
    8bcc:	eb0004a0 	bl	9e54 <delay_us>
    8bd0:	e2844001 	add	r4, r4, #1
    8bd4:	ea000001 	b	8be0 <gyro_motor+0x2f0>
    8bd8:	e3a04000 	mov	r4, #0
    8bdc:	e2688c7d 	rsb	r8, r8, #32000	; 0x7d00
    8be0:	e3540063 	cmp	r4, #99	; 0x63
    8be4:	dafffff5 	ble	8bc0 <gyro_motor+0x2d0>
    8be8:	e3a00f7d 	mov	r0, #500	; 0x1f4
    8bec:	eb0004a1 	bl	9e78 <delay_ms>
    8bf0:	eaffff96 	b	8a50 <gyro_motor+0x160>
    8bf4:	0000af5c 	andeq	sl, r0, ip, asr pc
    8bf8:	0000af6c 	andeq	sl, r0, ip, ror #30
    8bfc:	0000af78 	andeq	sl, r0, r8, ror pc
    8c00:	0000ac88 	andeq	sl, r0, r8, lsl #25
    8c04:	0000ac28 	andeq	sl, r0, r8, lsr #24
    8c08:	0000af9c 	muleq	r0, ip, pc	; <UNPREDICTABLE>
    8c0c:	0000afb0 			; <UNDEFINED> instruction: 0x0000afb0
    8c10:	0000afd4 	ldrdeq	sl, [r0], -r4
    8c14:	0000affc 	strdeq	sl, [r0], -ip
    8c18:	00000126 	andeq	r0, r0, r6, lsr #2
    8c1c:	00001b58 	andeq	r1, r0, r8, asr fp
    8c20:	00007530 	andeq	r7, r0, r0, lsr r5
    8c24:	ffffe4a8 			; <UNDEFINED> instruction: 0xffffe4a8
    8c28:	ffff8ad0 			; <UNDEFINED> instruction: 0xffff8ad0
    8c2c:	0000b024 	andeq	fp, r0, r4, lsr #32

00008c30 <notmain>:
    8c30:	e92d4008 	push	{r3, lr}
    8c34:	eb00067b 	bl	a628 <uart_init>
    8c38:	eb000644 	bl	a550 <kmalloc_init>
    8c3c:	e59f0004 	ldr	r0, [pc, #4]	; 8c48 <notmain+0x18>
    8c40:	eb0002d0 	bl	9788 <printk>
    8c44:	ebffff29 	bl	88f0 <gyro_motor>
    8c48:	0000b040 	andeq	fp, r0, r0, asr #32

00008c4c <stepper_init>:
    8c4c:	e92d4070 	push	{r4, r5, r6, lr}
    8c50:	e1a05000 	mov	r5, r0
    8c54:	e1a06001 	mov	r6, r1
    8c58:	e3a00018 	mov	r0, #24
    8c5c:	eb0005f7 	bl	a440 <kmalloc>
    8c60:	e1a04000 	mov	r4, r0
    8c64:	e5805004 	str	r5, [r0, #4]
    8c68:	e5806008 	str	r6, [r0, #8]
    8c6c:	e1a00005 	mov	r0, r5
    8c70:	eb00048a 	bl	9ea0 <gpio_set_output>
    8c74:	e5940008 	ldr	r0, [r4, #8]
    8c78:	eb000488 	bl	9ea0 <gpio_set_output>
    8c7c:	e1a00004 	mov	r0, r4
    8c80:	e8bd8070 	pop	{r4, r5, r6, pc}

00008c84 <stepper_set_microsteps>:
    8c84:	e92d4010 	push	{r4, lr}
    8c88:	e1a04000 	mov	r4, r0
    8c8c:	e3510004 	cmp	r1, #4
    8c90:	979ff101 	ldrls	pc, [pc, r1, lsl #2]
    8c94:	ea000040 	b	8d9c <stepper_set_microsteps+0x118>
    8c98:	00008cac 	andeq	r8, r0, ip, lsr #25
    8c9c:	00008cdc 	ldrdeq	r8, [r0], -ip
    8ca0:	00008d0c 	andeq	r8, r0, ip, lsl #26
    8ca4:	00008d3c 	andeq	r8, r0, ip, lsr sp
    8ca8:	00008d6c 	andeq	r8, r0, ip, ror #26
    8cac:	e59f00f4 	ldr	r0, [pc, #244]	; 8da8 <stepper_set_microsteps+0x124>
    8cb0:	eb0002b4 	bl	9788 <printk>
    8cb4:	e594000c 	ldr	r0, [r4, #12]
    8cb8:	e3a01000 	mov	r1, #0
    8cbc:	eb00050e 	bl	a0fc <gpio_write>
    8cc0:	e5940010 	ldr	r0, [r4, #16]
    8cc4:	e3a01000 	mov	r1, #0
    8cc8:	eb00050b 	bl	a0fc <gpio_write>
    8ccc:	e5940014 	ldr	r0, [r4, #20]
    8cd0:	e3a01000 	mov	r1, #0
    8cd4:	eb000508 	bl	a0fc <gpio_write>
    8cd8:	e8bd8010 	pop	{r4, pc}
    8cdc:	e59f00c8 	ldr	r0, [pc, #200]	; 8dac <stepper_set_microsteps+0x128>
    8ce0:	eb0002a8 	bl	9788 <printk>
    8ce4:	e594000c 	ldr	r0, [r4, #12]
    8ce8:	e3a01001 	mov	r1, #1
    8cec:	eb000502 	bl	a0fc <gpio_write>
    8cf0:	e5940010 	ldr	r0, [r4, #16]
    8cf4:	e3a01000 	mov	r1, #0
    8cf8:	eb0004ff 	bl	a0fc <gpio_write>
    8cfc:	e5940014 	ldr	r0, [r4, #20]
    8d00:	e3a01000 	mov	r1, #0
    8d04:	eb0004fc 	bl	a0fc <gpio_write>
    8d08:	e8bd8010 	pop	{r4, pc}
    8d0c:	e59f009c 	ldr	r0, [pc, #156]	; 8db0 <stepper_set_microsteps+0x12c>
    8d10:	eb00029c 	bl	9788 <printk>
    8d14:	e594000c 	ldr	r0, [r4, #12]
    8d18:	e3a01000 	mov	r1, #0
    8d1c:	eb0004f6 	bl	a0fc <gpio_write>
    8d20:	e5940010 	ldr	r0, [r4, #16]
    8d24:	e3a01001 	mov	r1, #1
    8d28:	eb0004f3 	bl	a0fc <gpio_write>
    8d2c:	e5940014 	ldr	r0, [r4, #20]
    8d30:	e3a01000 	mov	r1, #0
    8d34:	eb0004f0 	bl	a0fc <gpio_write>
    8d38:	e8bd8010 	pop	{r4, pc}
    8d3c:	e59f0070 	ldr	r0, [pc, #112]	; 8db4 <stepper_set_microsteps+0x130>
    8d40:	eb000290 	bl	9788 <printk>
    8d44:	e594000c 	ldr	r0, [r4, #12]
    8d48:	e3a01001 	mov	r1, #1
    8d4c:	eb0004ea 	bl	a0fc <gpio_write>
    8d50:	e5940010 	ldr	r0, [r4, #16]
    8d54:	e3a01001 	mov	r1, #1
    8d58:	eb0004e7 	bl	a0fc <gpio_write>
    8d5c:	e5940014 	ldr	r0, [r4, #20]
    8d60:	e3a01000 	mov	r1, #0
    8d64:	eb0004e4 	bl	a0fc <gpio_write>
    8d68:	e8bd8010 	pop	{r4, pc}
    8d6c:	e59f0044 	ldr	r0, [pc, #68]	; 8db8 <stepper_set_microsteps+0x134>
    8d70:	eb000284 	bl	9788 <printk>
    8d74:	e594000c 	ldr	r0, [r4, #12]
    8d78:	e3a01001 	mov	r1, #1
    8d7c:	eb0004de 	bl	a0fc <gpio_write>
    8d80:	e5940010 	ldr	r0, [r4, #16]
    8d84:	e3a01001 	mov	r1, #1
    8d88:	eb0004db 	bl	a0fc <gpio_write>
    8d8c:	e5940014 	ldr	r0, [r4, #20]
    8d90:	e3a01001 	mov	r1, #1
    8d94:	eb0004d8 	bl	a0fc <gpio_write>
    8d98:	e8bd8010 	pop	{r4, pc}
    8d9c:	e59f0018 	ldr	r0, [pc, #24]	; 8dbc <stepper_set_microsteps+0x138>
    8da0:	eb000278 	bl	9788 <printk>
    8da4:	e8bd8010 	pop	{r4, pc}
    8da8:	0000b054 	andeq	fp, r0, r4, asr r0
    8dac:	0000b060 	andeq	fp, r0, r0, rrx
    8db0:	0000b06c 	andeq	fp, r0, ip, rrx
    8db4:	0000b07c 	andeq	fp, r0, ip, ror r0
    8db8:	0000b08c 	andeq	fp, r0, ip, lsl #1
    8dbc:	0000b09c 	muleq	r0, ip, r0

00008dc0 <stepper_init_with_microsteps>:
    8dc0:	e92d41f0 	push	{r4, r5, r6, r7, r8, lr}
    8dc4:	e1a05000 	mov	r5, r0
    8dc8:	e1a08001 	mov	r8, r1
    8dcc:	e1a07002 	mov	r7, r2
    8dd0:	e1a06003 	mov	r6, r3
    8dd4:	e3a00018 	mov	r0, #24
    8dd8:	eb000598 	bl	a440 <kmalloc>
    8ddc:	e1a04000 	mov	r4, r0
    8de0:	e5805004 	str	r5, [r0, #4]
    8de4:	e5808008 	str	r8, [r0, #8]
    8de8:	e580700c 	str	r7, [r0, #12]
    8dec:	e5806010 	str	r6, [r0, #16]
    8df0:	e59d3018 	ldr	r3, [sp, #24]
    8df4:	e5803014 	str	r3, [r0, #20]
    8df8:	e1a00005 	mov	r0, r5
    8dfc:	eb000427 	bl	9ea0 <gpio_set_output>
    8e00:	e5940008 	ldr	r0, [r4, #8]
    8e04:	eb000425 	bl	9ea0 <gpio_set_output>
    8e08:	e594000c 	ldr	r0, [r4, #12]
    8e0c:	eb000423 	bl	9ea0 <gpio_set_output>
    8e10:	e5940010 	ldr	r0, [r4, #16]
    8e14:	eb000421 	bl	9ea0 <gpio_set_output>
    8e18:	e5940014 	ldr	r0, [r4, #20]
    8e1c:	eb00041f 	bl	9ea0 <gpio_set_output>
    8e20:	e1a00004 	mov	r0, r4
    8e24:	e8bd81f0 	pop	{r4, r5, r6, r7, r8, pc}

00008e28 <stepper_step_forward>:
    8e28:	e92d4010 	push	{r4, lr}
    8e2c:	e1a04000 	mov	r4, r0
    8e30:	e5900004 	ldr	r0, [r0, #4]
    8e34:	e3a01001 	mov	r1, #1
    8e38:	eb0004af 	bl	a0fc <gpio_write>
    8e3c:	e5940008 	ldr	r0, [r4, #8]
    8e40:	e3a01001 	mov	r1, #1
    8e44:	eb0004ac 	bl	a0fc <gpio_write>
    8e48:	e5940008 	ldr	r0, [r4, #8]
    8e4c:	e3a01000 	mov	r1, #0
    8e50:	eb0004a9 	bl	a0fc <gpio_write>
    8e54:	e5943000 	ldr	r3, [r4]
    8e58:	e2833001 	add	r3, r3, #1
    8e5c:	e5843000 	str	r3, [r4]
    8e60:	e8bd8010 	pop	{r4, pc}

00008e64 <stepper_step_backward>:
    8e64:	e92d4010 	push	{r4, lr}
    8e68:	e1a04000 	mov	r4, r0
    8e6c:	e5900004 	ldr	r0, [r0, #4]
    8e70:	e3a01000 	mov	r1, #0
    8e74:	eb0004a0 	bl	a0fc <gpio_write>
    8e78:	e5940008 	ldr	r0, [r4, #8]
    8e7c:	e3a01001 	mov	r1, #1
    8e80:	eb00049d 	bl	a0fc <gpio_write>
    8e84:	e5940008 	ldr	r0, [r4, #8]
    8e88:	e3a01000 	mov	r1, #0
    8e8c:	eb00049a 	bl	a0fc <gpio_write>
    8e90:	e5943000 	ldr	r3, [r4]
    8e94:	e2433001 	sub	r3, r3, #1
    8e98:	e5843000 	str	r3, [r4]
    8e9c:	e8bd8010 	pop	{r4, pc}

00008ea0 <stepper_get_position_in_steps>:
    8ea0:	e5900000 	ldr	r0, [r0]
    8ea4:	e12fff1e 	bx	lr

00008ea8 <Q_start>:
    8ea8:	e5900000 	ldr	r0, [r0]
    8eac:	e12fff1e 	bx	lr

00008eb0 <Q_append>:
    8eb0:	e3a03000 	mov	r3, #0
    8eb4:	e5813000 	str	r3, [r1]
    8eb8:	e5903008 	ldr	r3, [r0, #8]
    8ebc:	e2833001 	add	r3, r3, #1
    8ec0:	e5803008 	str	r3, [r0, #8]
    8ec4:	e5903004 	ldr	r3, [r0, #4]
    8ec8:	e3530000 	cmp	r3, #0
    8ecc:	1a000002 	bne	8edc <Q_append+0x2c>
    8ed0:	e5801004 	str	r1, [r0, #4]
    8ed4:	e5801000 	str	r1, [r0]
    8ed8:	e12fff1e 	bx	lr
    8edc:	e5831000 	str	r1, [r3]
    8ee0:	e5801004 	str	r1, [r0, #4]
    8ee4:	e12fff1e 	bx	lr

00008ee8 <Q_empty>:
    8ee8:	e92d4008 	push	{r3, lr}
    8eec:	e5903000 	ldr	r3, [r0]
    8ef0:	e3530000 	cmp	r3, #0
    8ef4:	1a000009 	bne	8f20 <Q_empty+0x38>
    8ef8:	e5903004 	ldr	r3, [r0, #4]
    8efc:	e3530000 	cmp	r3, #0
    8f00:	0a000008 	beq	8f28 <Q_empty+0x40>
    8f04:	eb00023a 	bl	97f4 <rpi_reset_putc>
    8f08:	e59f0020 	ldr	r0, [pc, #32]	; 8f30 <Q_empty+0x48>
    8f0c:	e59f1020 	ldr	r1, [pc, #32]	; 8f34 <Q_empty+0x4c>
    8f10:	e59f2020 	ldr	r2, [pc, #32]	; 8f38 <Q_empty+0x50>
    8f14:	e3a0301a 	mov	r3, #26
    8f18:	eb00021a 	bl	9788 <printk>
    8f1c:	eb000389 	bl	9d48 <clean_reboot>
    8f20:	e3a00000 	mov	r0, #0
    8f24:	e8bd8008 	pop	{r3, pc}
    8f28:	e3a00001 	mov	r0, #1
    8f2c:	e8bd8008 	pop	{r3, pc}
    8f30:	0000b0dc 	ldrdeq	fp, [r0], -ip
    8f34:	0000b10c 	andeq	fp, r0, ip, lsl #2
    8f38:	0000b0a8 	andeq	fp, r0, r8, lsr #1

00008f3c <Q_pop>:
    8f3c:	e92d4008 	push	{r3, lr}
    8f40:	e3500000 	cmp	r0, #0
    8f44:	1a000006 	bne	8f64 <Q_pop+0x28>
    8f48:	eb000229 	bl	97f4 <rpi_reset_putc>
    8f4c:	e59f0070 	ldr	r0, [pc, #112]	; 8fc4 <Q_pop+0x88>
    8f50:	e59f1070 	ldr	r1, [pc, #112]	; 8fc8 <Q_pop+0x8c>
    8f54:	e59f2070 	ldr	r2, [pc, #112]	; 8fcc <Q_pop+0x90>
    8f58:	e3a03020 	mov	r3, #32
    8f5c:	eb000209 	bl	9788 <printk>
    8f60:	eb000378 	bl	9d48 <clean_reboot>
    8f64:	e5903000 	ldr	r3, [r0]
    8f68:	e3530000 	cmp	r3, #0
    8f6c:	1a000009 	bne	8f98 <Q_pop+0x5c>
    8f70:	ebffffdc 	bl	8ee8 <Q_empty>
    8f74:	e3500000 	cmp	r0, #0
    8f78:	1a00000f 	bne	8fbc <Q_pop+0x80>
    8f7c:	eb00021c 	bl	97f4 <rpi_reset_putc>
    8f80:	e59f0048 	ldr	r0, [pc, #72]	; 8fd0 <Q_pop+0x94>
    8f84:	e59f103c 	ldr	r1, [pc, #60]	; 8fc8 <Q_pop+0x8c>
    8f88:	e59f203c 	ldr	r2, [pc, #60]	; 8fcc <Q_pop+0x90>
    8f8c:	e3a03024 	mov	r3, #36	; 0x24
    8f90:	eb0001fc 	bl	9788 <printk>
    8f94:	eb00036b 	bl	9d48 <clean_reboot>
    8f98:	e5902008 	ldr	r2, [r0, #8]
    8f9c:	e2422001 	sub	r2, r2, #1
    8fa0:	e5802008 	str	r2, [r0, #8]
    8fa4:	e5932000 	ldr	r2, [r3]
    8fa8:	e5802000 	str	r2, [r0]
    8fac:	e3520000 	cmp	r2, #0
    8fb0:	05802004 	streq	r2, [r0, #4]
    8fb4:	e1a00003 	mov	r0, r3
    8fb8:	e8bd8008 	pop	{r3, pc}
    8fbc:	e3a00000 	mov	r0, #0
    8fc0:	e8bd8008 	pop	{r3, pc}
    8fc4:	0000b110 	andeq	fp, r0, r0, lsl r1
    8fc8:	0000b10c 	andeq	fp, r0, ip, lsl #2
    8fcc:	0000b0b0 	strheq	fp, [r0], -r0
    8fd0:	0000b138 	andeq	fp, r0, r8, lsr r1

00008fd4 <stepper_init_with_int>:
    8fd4:	e92d4070 	push	{r4, r5, r6, lr}
    8fd8:	e1a06000 	mov	r6, r0
    8fdc:	e1a05001 	mov	r5, r1
    8fe0:	e59f3088 	ldr	r3, [pc, #136]	; 9070 <stepper_init_with_int+0x9c>
    8fe4:	e5933000 	ldr	r3, [r3]
    8fe8:	e3530010 	cmp	r3, #16
    8fec:	0a00001d 	beq	9068 <stepper_init_with_int+0x94>
    8ff0:	e3a00014 	mov	r0, #20
    8ff4:	eb000511 	bl	a440 <kmalloc>
    8ff8:	e1a04000 	mov	r4, r0
    8ffc:	e3a03001 	mov	r3, #1
    9000:	e5c03004 	strb	r3, [r0, #4]
    9004:	e1a00006 	mov	r0, r6
    9008:	e1a01005 	mov	r1, r5
    900c:	ebffff0e 	bl	8c4c <stepper_init>
    9010:	e5840000 	str	r0, [r4]
    9014:	e59f3054 	ldr	r3, [pc, #84]	; 9070 <stepper_init_with_int+0x9c>
    9018:	e5932000 	ldr	r2, [r3]
    901c:	e0831102 	add	r1, r3, r2, lsl #2
    9020:	e5814004 	str	r4, [r1, #4]
    9024:	e2822001 	add	r2, r2, #1
    9028:	e5832000 	str	r2, [r3]
    902c:	e59f3040 	ldr	r3, [pc, #64]	; 9074 <stepper_init_with_int+0xa0>
    9030:	e5933000 	ldr	r3, [r3]
    9034:	e3530000 	cmp	r3, #0
    9038:	0a000008 	beq	9060 <stepper_init_with_int+0x8c>
    903c:	e3a02000 	mov	r2, #0
    9040:	e59f302c 	ldr	r3, [pc, #44]	; 9074 <stepper_init_with_int+0xa0>
    9044:	e5832000 	str	r2, [r3]
    9048:	eb0005cb 	bl	a77c <int_init>
    904c:	e3a03001 	mov	r3, #1
    9050:	ee0f3f1c 	mcr	15, 0, r3, cr15, cr12, {0}
    9054:	e3a00064 	mov	r0, #100	; 0x64
    9058:	eb0005f9 	bl	a844 <timer_interrupt_init>
    905c:	eb000621 	bl	a8e8 <system_enable_interrupts>
    9060:	e1a00004 	mov	r0, r4
    9064:	e8bd8070 	pop	{r4, r5, r6, pc}
    9068:	e3a00000 	mov	r0, #0
    906c:	e8bd8070 	pop	{r4, r5, r6, pc}
    9070:	0000b890 	muleq	r0, r0, r8
    9074:	0000ab04 	andeq	sl, r0, r4, lsl #22

00009078 <stepper_int_init_with_microsteps>:
    9078:	e92d4008 	push	{r3, lr}
    907c:	eb0001dc 	bl	97f4 <rpi_reset_putc>
    9080:	e59f0010 	ldr	r0, [pc, #16]	; 9098 <stepper_int_init_with_microsteps+0x20>
    9084:	e59f1010 	ldr	r1, [pc, #16]	; 909c <stepper_int_init_with_microsteps+0x24>
    9088:	e59f2010 	ldr	r2, [pc, #16]	; 90a0 <stepper_int_init_with_microsteps+0x28>
    908c:	e3a0304a 	mov	r3, #74	; 0x4a
    9090:	eb0001bc 	bl	9788 <printk>
    9094:	eb00032b 	bl	9d48 <clean_reboot>
    9098:	0000b154 	andeq	fp, r0, r4, asr r1
    909c:	0000b180 	andeq	fp, r0, r0, lsl #3
    90a0:	0000b0b8 	strheq	fp, [r0], -r8

000090a4 <stepper_int_enqueue_pos>:
    90a4:	e92d41f0 	push	{r4, r5, r6, r7, r8, lr}
    90a8:	e1a06000 	mov	r6, r0
    90ac:	e1a08001 	mov	r8, r1
    90b0:	e1a07002 	mov	r7, r2
    90b4:	e3a05000 	mov	r5, #0
    90b8:	e5c05004 	strb	r5, [r0, #4]
    90bc:	e3a00014 	mov	r0, #20
    90c0:	eb0004de 	bl	a440 <kmalloc>
    90c4:	e1a04000 	mov	r4, r0
    90c8:	e5c05010 	strb	r5, [r0, #16]
    90cc:	e5808004 	str	r8, [r0, #4]
    90d0:	e5807008 	str	r7, [r0, #8]
    90d4:	e580500c 	str	r5, [r0, #12]
    90d8:	e2860008 	add	r0, r6, #8
    90dc:	e1a01004 	mov	r1, r4
    90e0:	ebffff72 	bl	8eb0 <Q_append>
    90e4:	e1a00004 	mov	r0, r4
    90e8:	e8bd81f0 	pop	{r4, r5, r6, r7, r8, pc}

000090ec <stepper_int_get_position_in_steps>:
    90ec:	e92d4008 	push	{r3, lr}
    90f0:	e5900000 	ldr	r0, [r0]
    90f4:	ebffff69 	bl	8ea0 <stepper_get_position_in_steps>
    90f8:	e8bd8008 	pop	{r3, pc}

000090fc <stepper_int_handler>:
    90fc:	e92d4ff8 	push	{r3, r4, r5, r6, r7, r8, r9, sl, fp, lr}
    9100:	eb0005df 	bl	a884 <dev_barrier>
    9104:	e59f00d4 	ldr	r0, [pc, #212]	; 91e0 <stepper_int_handler+0xe4>
    9108:	eb0005f1 	bl	a8d4 <GET32>
    910c:	e3100001 	tst	r0, #1
    9110:	08bd8ff8 	popeq	{r3, r4, r5, r6, r7, r8, r9, sl, fp, pc}
    9114:	e59f00c8 	ldr	r0, [pc, #200]	; 91e4 <stepper_int_handler+0xe8>
    9118:	e3a01001 	mov	r1, #1
    911c:	eb0005e0 	bl	a8a4 <PUT32>
    9120:	eb0005d7 	bl	a884 <dev_barrier>
    9124:	eb000347 	bl	9e48 <timer_get_usec>
    9128:	e1a09000 	mov	r9, r0
    912c:	e3a04000 	mov	r4, #0
    9130:	e59f70b0 	ldr	r7, [pc, #176]	; 91e8 <stepper_int_handler+0xec>
    9134:	e3a08001 	mov	r8, #1
    9138:	e3a0a002 	mov	sl, #2
    913c:	ea000023 	b	91d0 <stepper_int_handler+0xd4>
    9140:	e0873104 	add	r3, r7, r4, lsl #2
    9144:	e5935004 	ldr	r5, [r3, #4]
    9148:	e2856008 	add	r6, r5, #8
    914c:	e1a00006 	mov	r0, r6
    9150:	ebffff64 	bl	8ee8 <Q_empty>
    9154:	e3500000 	cmp	r0, #0
    9158:	1a00001a 	bne	91c8 <stepper_int_handler+0xcc>
    915c:	e1a00006 	mov	r0, r6
    9160:	ebffff50 	bl	8ea8 <Q_start>
    9164:	e1a0b000 	mov	fp, r0
    9168:	e1a00005 	mov	r0, r5
    916c:	ebffffde 	bl	90ec <stepper_int_get_position_in_steps>
    9170:	e59b3004 	ldr	r3, [fp, #4]
    9174:	e1530000 	cmp	r3, r0
    9178:	1a000003 	bne	918c <stepper_int_handler+0x90>
    917c:	e1a00006 	mov	r0, r6
    9180:	ebffff6d 	bl	8f3c <Q_pop>
    9184:	e5c0a010 	strb	sl, [r0, #16]
    9188:	ea00000f 	b	91cc <stepper_int_handler+0xd0>
    918c:	e59b1008 	ldr	r1, [fp, #8]
    9190:	e59b200c 	ldr	r2, [fp, #12]
    9194:	e0812002 	add	r2, r1, r2
    9198:	e1520009 	cmp	r2, r9
    919c:	2a00000a 	bcs	91cc <stepper_int_handler+0xd0>
    91a0:	e0633000 	rsb	r3, r3, r0
    91a4:	e3530000 	cmp	r3, #0
    91a8:	aa000002 	bge	91b8 <stepper_int_handler+0xbc>
    91ac:	e5950000 	ldr	r0, [r5]
    91b0:	ebffff1c 	bl	8e28 <stepper_step_forward>
    91b4:	ea000001 	b	91c0 <stepper_int_handler+0xc4>
    91b8:	e5950000 	ldr	r0, [r5]
    91bc:	ebffff28 	bl	8e64 <stepper_step_backward>
    91c0:	e58b900c 	str	r9, [fp, #12]
    91c4:	ea000000 	b	91cc <stepper_int_handler+0xd0>
    91c8:	e5c58004 	strb	r8, [r5, #4]
    91cc:	e2844001 	add	r4, r4, #1
    91d0:	e5973000 	ldr	r3, [r7]
    91d4:	e1540003 	cmp	r4, r3
    91d8:	3affffd8 	bcc	9140 <stepper_int_handler+0x44>
    91dc:	e8bd8ff8 	pop	{r3, r4, r5, r6, r7, r8, r9, sl, fp, pc}
    91e0:	2000b200 	andcs	fp, r0, r0, lsl #4
    91e4:	2000b40c 	andcs	fp, r0, ip, lsl #8
    91e8:	0000b890 	muleq	r0, r0, r8

000091ec <interrupt_vector>:
    91ec:	e92d4008 	push	{r3, lr}
    91f0:	ebffffc1 	bl	90fc <stepper_int_handler>
    91f4:	e8bd8008 	pop	{r3, pc}

000091f8 <stepper_int_is_free>:
    91f8:	e5d00004 	ldrb	r0, [r0, #4]
    91fc:	e3500001 	cmp	r0, #1
    9200:	13a00000 	movne	r0, #0
    9204:	03a00001 	moveq	r0, #1
    9208:	e12fff1e 	bx	lr

0000920c <stepper_int_position_is_complete>:
    920c:	e5d00010 	ldrb	r0, [r0, #16]
    9210:	e3500002 	cmp	r0, #2
    9214:	13a00000 	movne	r0, #0
    9218:	03a00001 	moveq	r0, #1
    921c:	e12fff1e 	bx	lr

00009220 <clear_c>:
    9220:	e3c0000e 	bic	r0, r0, #14
    9224:	e3c00040 	bic	r0, r0, #64	; 0x40
    9228:	e3c00b1e 	bic	r0, r0, #30720	; 0x7800
    922c:	e6ff0070 	uxth	r0, r0
    9230:	e12fff1e 	bx	lr

00009234 <clear_s>:
    9234:	e1a00b00 	lsl	r0, r0, #22
    9238:	e1a00b20 	lsr	r0, r0, #22
    923c:	e12fff1e 	bx	lr

00009240 <check_layout>:
    9240:	e52de004 	push	{lr}		; (str lr, [sp, #-4]!)
    9244:	e49df004 	pop	{pc}		; (ldr pc, [sp], #4)

00009248 <xfer_end>:
    9248:	e92d4010 	push	{r4, lr}
    924c:	e59f30c0 	ldr	r3, [pc, #192]	; 9314 <xfer_end+0xcc>
    9250:	e5933004 	ldr	r3, [r3, #4]
    9254:	e3130002 	tst	r3, #2
    9258:	1a000015 	bne	92b4 <xfer_end+0x6c>
    925c:	e59f30b0 	ldr	r3, [pc, #176]	; 9314 <xfer_end+0xcc>
    9260:	e5933004 	ldr	r3, [r3, #4]
    9264:	e3130c01 	tst	r3, #256	; 0x100
    9268:	1a00000a 	bne	9298 <xfer_end+0x50>
    926c:	e59f30a0 	ldr	r3, [pc, #160]	; 9314 <xfer_end+0xcc>
    9270:	e5933004 	ldr	r3, [r3, #4]
    9274:	e3130c02 	tst	r3, #512	; 0x200
    9278:	0afffff3 	beq	924c <xfer_end+0x4>
    927c:	eb00015c 	bl	97f4 <rpi_reset_putc>
    9280:	e59f3090 	ldr	r3, [pc, #144]	; 9318 <xfer_end+0xd0>
    9284:	e59f2090 	ldr	r2, [pc, #144]	; 931c <xfer_end+0xd4>
    9288:	e59f1090 	ldr	r1, [pc, #144]	; 9320 <xfer_end+0xd8>
    928c:	e59f0090 	ldr	r0, [pc, #144]	; 9324 <xfer_end+0xdc>
    9290:	eb00013c 	bl	9788 <printk>
    9294:	eb0002ab 	bl	9d48 <clean_reboot>
    9298:	eb000155 	bl	97f4 <rpi_reset_putc>
    929c:	e59f3074 	ldr	r3, [pc, #116]	; 9318 <xfer_end+0xd0>
    92a0:	e59f2074 	ldr	r2, [pc, #116]	; 931c <xfer_end+0xd4>
    92a4:	e59f1074 	ldr	r1, [pc, #116]	; 9320 <xfer_end+0xd8>
    92a8:	e59f0078 	ldr	r0, [pc, #120]	; 9328 <xfer_end+0xe0>
    92ac:	eb000135 	bl	9788 <printk>
    92b0:	eb0002a4 	bl	9d48 <clean_reboot>
    92b4:	e59f3058 	ldr	r3, [pc, #88]	; 9314 <xfer_end+0xcc>
    92b8:	e5933004 	ldr	r3, [r3, #4]
    92bc:	e3130001 	tst	r3, #1
    92c0:	1a000005 	bne	92dc <xfer_end+0x94>
    92c4:	e59f3048 	ldr	r3, [pc, #72]	; 9314 <xfer_end+0xcc>
    92c8:	e5933004 	ldr	r3, [r3, #4]
    92cc:	e3130c01 	tst	r3, #256	; 0x100
    92d0:	1a000008 	bne	92f8 <xfer_end+0xb0>
    92d4:	eb00056a 	bl	a884 <dev_barrier>
    92d8:	e8bd8010 	pop	{r4, pc}
    92dc:	eb000144 	bl	97f4 <rpi_reset_putc>
    92e0:	e59f3044 	ldr	r3, [pc, #68]	; 932c <xfer_end+0xe4>
    92e4:	e59f2030 	ldr	r2, [pc, #48]	; 931c <xfer_end+0xd4>
    92e8:	e59f1030 	ldr	r1, [pc, #48]	; 9320 <xfer_end+0xd8>
    92ec:	e59f003c 	ldr	r0, [pc, #60]	; 9330 <xfer_end+0xe8>
    92f0:	eb000124 	bl	9788 <printk>
    92f4:	eb000293 	bl	9d48 <clean_reboot>
    92f8:	eb00013d 	bl	97f4 <rpi_reset_putc>
    92fc:	e3a03f46 	mov	r3, #280	; 0x118
    9300:	e59f2014 	ldr	r2, [pc, #20]	; 931c <xfer_end+0xd4>
    9304:	e59f1014 	ldr	r1, [pc, #20]	; 9320 <xfer_end+0xd8>
    9308:	e59f0024 	ldr	r0, [pc, #36]	; 9334 <xfer_end+0xec>
    930c:	eb00011d 	bl	9788 <printk>
    9310:	eb00028c 	bl	9d48 <clean_reboot>
    9314:	20804000 	addcs	r4, r0, r0
    9318:	00000113 	andeq	r0, r0, r3, lsl r1
    931c:	0000b1a0 	andeq	fp, r0, r0, lsr #3
    9320:	0000b1dc 	ldrdeq	fp, [r0], -ip
    9324:	0000b2f4 	strdeq	fp, [r0], -r4
    9328:	0000b2d0 	ldrdeq	fp, [r0], -r0
    932c:	00000116 	andeq	r0, r0, r6, lsl r1
    9330:	0000b324 	andeq	fp, r0, r4, lsr #6
    9334:	0000b348 	andeq	fp, r0, r8, asr #6

00009338 <read_s>:
    9338:	e92d4010 	push	{r4, lr}
    933c:	eb000562 	bl	a8cc <get32>
    9340:	ebffffbb 	bl	9234 <clear_s>
    9344:	e8bd8010 	pop	{r4, pc}

00009348 <reset_status>:
    9348:	e92d4010 	push	{r4, lr}
    934c:	e59f4018 	ldr	r4, [pc, #24]	; 936c <reset_status+0x24>
    9350:	e1a00004 	mov	r0, r4
    9354:	ebfffff7 	bl	9338 <read_s>
    9358:	e3801002 	orr	r1, r0, #2
    935c:	e3811c03 	orr	r1, r1, #768	; 0x300
    9360:	e1a00004 	mov	r0, r4
    9364:	eb00054c 	bl	a89c <put32>
    9368:	e8bd8010 	pop	{r4, pc}
    936c:	20804004 	addcs	r4, r0, r4

00009370 <read_c>:
    9370:	e92d4010 	push	{r4, lr}
    9374:	eb000554 	bl	a8cc <get32>
    9378:	ebffffa8 	bl	9220 <clear_c>
    937c:	e8bd8010 	pop	{r4, pc}

00009380 <xfer_start>:
    9380:	e92d4070 	push	{r4, r5, r6, lr}
    9384:	e1a06000 	mov	r6, r0
    9388:	e1a05001 	mov	r5, r1
    938c:	e1a04002 	mov	r4, r2
    9390:	eb00053b 	bl	a884 <dev_barrier>
    9394:	e59f3180 	ldr	r3, [pc, #384]	; 951c <xfer_start+0x19c>
    9398:	e5933004 	ldr	r3, [r3, #4]
    939c:	e3130001 	tst	r3, #1
    93a0:	0a000015 	beq	93fc <xfer_start+0x7c>
    93a4:	e59f3170 	ldr	r3, [pc, #368]	; 951c <xfer_start+0x19c>
    93a8:	e5933004 	ldr	r3, [r3, #4]
    93ac:	e3130c01 	tst	r3, #256	; 0x100
    93b0:	1a00000a 	bne	93e0 <xfer_start+0x60>
    93b4:	e59f3160 	ldr	r3, [pc, #352]	; 951c <xfer_start+0x19c>
    93b8:	e5933004 	ldr	r3, [r3, #4]
    93bc:	e3130c02 	tst	r3, #512	; 0x200
    93c0:	0afffff3 	beq	9394 <xfer_start+0x14>
    93c4:	eb00010a 	bl	97f4 <rpi_reset_putc>
    93c8:	e3a030f3 	mov	r3, #243	; 0xf3
    93cc:	e59f214c 	ldr	r2, [pc, #332]	; 9520 <xfer_start+0x1a0>
    93d0:	e59f114c 	ldr	r1, [pc, #332]	; 9524 <xfer_start+0x1a4>
    93d4:	e59f014c 	ldr	r0, [pc, #332]	; 9528 <xfer_start+0x1a8>
    93d8:	eb0000ea 	bl	9788 <printk>
    93dc:	eb000259 	bl	9d48 <clean_reboot>
    93e0:	eb000103 	bl	97f4 <rpi_reset_putc>
    93e4:	e3a030f3 	mov	r3, #243	; 0xf3
    93e8:	e59f2130 	ldr	r2, [pc, #304]	; 9520 <xfer_start+0x1a0>
    93ec:	e59f1130 	ldr	r1, [pc, #304]	; 9524 <xfer_start+0x1a4>
    93f0:	e59f0134 	ldr	r0, [pc, #308]	; 952c <xfer_start+0x1ac>
    93f4:	eb0000e3 	bl	9788 <printk>
    93f8:	eb000252 	bl	9d48 <clean_reboot>
    93fc:	e59f3118 	ldr	r3, [pc, #280]	; 951c <xfer_start+0x19c>
    9400:	e5933004 	ldr	r3, [r3, #4]
    9404:	e3130040 	tst	r3, #64	; 0x40
    9408:	0a000026 	beq	94a8 <xfer_start+0x128>
    940c:	ebffffcd 	bl	9348 <reset_status>
    9410:	e1b033a6 	lsrs	r3, r6, #7
    9414:	1a00002a 	bne	94c4 <xfer_start+0x144>
    9418:	e1a01006 	mov	r1, r6
    941c:	e59f010c 	ldr	r0, [pc, #268]	; 9530 <xfer_start+0x1b0>
    9420:	eb00051d 	bl	a89c <put32>
    9424:	e1b03825 	lsrs	r3, r5, #16
    9428:	1a00002c 	bne	94e0 <xfer_start+0x160>
    942c:	e1a01005 	mov	r1, r5
    9430:	e59f00fc 	ldr	r0, [pc, #252]	; 9534 <xfer_start+0x1b4>
    9434:	eb000518 	bl	a89c <put32>
    9438:	e59f50dc 	ldr	r5, [pc, #220]	; 951c <xfer_start+0x19c>
    943c:	e1a00005 	mov	r0, r5
    9440:	ebffffca 	bl	9370 <read_c>
    9444:	e38000b0 	orr	r0, r0, #176	; 0xb0
    9448:	e2041001 	and	r1, r4, #1
    944c:	e3c00001 	bic	r0, r0, #1
    9450:	e1811000 	orr	r1, r1, r0
    9454:	e1a00005 	mov	r0, r5
    9458:	eb00050f 	bl	a89c <put32>
    945c:	e59f30b8 	ldr	r3, [pc, #184]	; 951c <xfer_start+0x19c>
    9460:	e5933004 	ldr	r3, [r3, #4]
    9464:	e3130001 	tst	r3, #1
    9468:	1a00002a 	bne	9518 <xfer_start+0x198>
    946c:	e59f30a8 	ldr	r3, [pc, #168]	; 951c <xfer_start+0x19c>
    9470:	e5933004 	ldr	r3, [r3, #4]
    9474:	e3130c01 	tst	r3, #256	; 0x100
    9478:	1a00001f 	bne	94fc <xfer_start+0x17c>
    947c:	e59f3098 	ldr	r3, [pc, #152]	; 951c <xfer_start+0x19c>
    9480:	e5933004 	ldr	r3, [r3, #4]
    9484:	e3130c02 	tst	r3, #512	; 0x200
    9488:	0afffff3 	beq	945c <xfer_start+0xdc>
    948c:	eb0000d8 	bl	97f4 <rpi_reset_putc>
    9490:	e59f30a0 	ldr	r3, [pc, #160]	; 9538 <xfer_start+0x1b8>
    9494:	e59f2084 	ldr	r2, [pc, #132]	; 9520 <xfer_start+0x1a0>
    9498:	e59f1084 	ldr	r1, [pc, #132]	; 9524 <xfer_start+0x1a4>
    949c:	e59f0084 	ldr	r0, [pc, #132]	; 9528 <xfer_start+0x1a8>
    94a0:	eb0000b8 	bl	9788 <printk>
    94a4:	eb000227 	bl	9d48 <clean_reboot>
    94a8:	eb0000d1 	bl	97f4 <rpi_reset_putc>
    94ac:	e3a030f6 	mov	r3, #246	; 0xf6
    94b0:	e59f2068 	ldr	r2, [pc, #104]	; 9520 <xfer_start+0x1a0>
    94b4:	e59f1068 	ldr	r1, [pc, #104]	; 9524 <xfer_start+0x1a4>
    94b8:	e59f007c 	ldr	r0, [pc, #124]	; 953c <xfer_start+0x1bc>
    94bc:	eb0000b1 	bl	9788 <printk>
    94c0:	eb000220 	bl	9d48 <clean_reboot>
    94c4:	eb0000ca 	bl	97f4 <rpi_reset_putc>
    94c8:	e3a030fb 	mov	r3, #251	; 0xfb
    94cc:	e59f204c 	ldr	r2, [pc, #76]	; 9520 <xfer_start+0x1a0>
    94d0:	e59f104c 	ldr	r1, [pc, #76]	; 9524 <xfer_start+0x1a4>
    94d4:	e59f0064 	ldr	r0, [pc, #100]	; 9540 <xfer_start+0x1c0>
    94d8:	eb0000aa 	bl	9788 <printk>
    94dc:	eb000219 	bl	9d48 <clean_reboot>
    94e0:	eb0000c3 	bl	97f4 <rpi_reset_putc>
    94e4:	e3a030ff 	mov	r3, #255	; 0xff
    94e8:	e59f2030 	ldr	r2, [pc, #48]	; 9520 <xfer_start+0x1a0>
    94ec:	e59f1030 	ldr	r1, [pc, #48]	; 9524 <xfer_start+0x1a4>
    94f0:	e59f004c 	ldr	r0, [pc, #76]	; 9544 <xfer_start+0x1c4>
    94f4:	eb0000a3 	bl	9788 <printk>
    94f8:	eb000212 	bl	9d48 <clean_reboot>
    94fc:	eb0000bc 	bl	97f4 <rpi_reset_putc>
    9500:	e59f3030 	ldr	r3, [pc, #48]	; 9538 <xfer_start+0x1b8>
    9504:	e59f2014 	ldr	r2, [pc, #20]	; 9520 <xfer_start+0x1a0>
    9508:	e59f1014 	ldr	r1, [pc, #20]	; 9524 <xfer_start+0x1a4>
    950c:	e59f0018 	ldr	r0, [pc, #24]	; 952c <xfer_start+0x1ac>
    9510:	eb00009c 	bl	9788 <printk>
    9514:	eb00020b 	bl	9d48 <clean_reboot>
    9518:	e8bd8070 	pop	{r4, r5, r6, pc}
    951c:	20804000 	addcs	r4, r0, r0
    9520:	0000b1ac 	andeq	fp, r0, ip, lsr #3
    9524:	0000b1dc 	ldrdeq	fp, [r0], -ip
    9528:	0000b2f4 	strdeq	fp, [r0], -r4
    952c:	0000b2d0 	ldrdeq	fp, [r0], -r0
    9530:	2080400c 	addcs	r4, r0, ip
    9534:	20804008 	addcs	r4, r0, r8
    9538:	0000010e 	andeq	r0, r0, lr, lsl #2
    953c:	0000b36c 	andeq	fp, r0, ip, ror #6
    9540:	0000b394 	muleq	r0, r4, r3
    9544:	0000b3b8 			; <UNDEFINED> instruction: 0x0000b3b8

00009548 <i2c_write>:
    9548:	e92d4070 	push	{r4, r5, r6, lr}
    954c:	e1a05001 	mov	r5, r1
    9550:	e1a04002 	mov	r4, r2
    9554:	e3a02000 	mov	r2, #0
    9558:	e1a01004 	mov	r1, r4
    955c:	ebffff87 	bl	9380 <xfer_start>
    9560:	e3a02000 	mov	r2, #0
    9564:	ea00000a 	b	9594 <i2c_write+0x4c>
    9568:	eb0000a1 	bl	97f4 <rpi_reset_putc>
    956c:	e59f3080 	ldr	r3, [pc, #128]	; 95f4 <i2c_write+0xac>
    9570:	e59f2080 	ldr	r2, [pc, #128]	; 95f8 <i2c_write+0xb0>
    9574:	e59f1080 	ldr	r1, [pc, #128]	; 95fc <i2c_write+0xb4>
    9578:	e59f0080 	ldr	r0, [pc, #128]	; 9600 <i2c_write+0xb8>
    957c:	eb000081 	bl	9788 <printk>
    9580:	eb0001f0 	bl	9d48 <clean_reboot>
    9584:	e7d51002 	ldrb	r1, [r5, r2]
    9588:	e59f3074 	ldr	r3, [pc, #116]	; 9604 <i2c_write+0xbc>
    958c:	e5831010 	str	r1, [r3, #16]
    9590:	e2822001 	add	r2, r2, #1
    9594:	e1520004 	cmp	r2, r4
    9598:	2a000012 	bcs	95e8 <i2c_write+0xa0>
    959c:	e59f3060 	ldr	r3, [pc, #96]	; 9604 <i2c_write+0xbc>
    95a0:	e5933004 	ldr	r3, [r3, #4]
    95a4:	e3130010 	tst	r3, #16
    95a8:	1afffff5 	bne	9584 <i2c_write+0x3c>
    95ac:	e59f3050 	ldr	r3, [pc, #80]	; 9604 <i2c_write+0xbc>
    95b0:	e5933004 	ldr	r3, [r3, #4]
    95b4:	e3130c01 	tst	r3, #256	; 0x100
    95b8:	1affffea 	bne	9568 <i2c_write+0x20>
    95bc:	e59f3040 	ldr	r3, [pc, #64]	; 9604 <i2c_write+0xbc>
    95c0:	e5933004 	ldr	r3, [r3, #4]
    95c4:	e3130c02 	tst	r3, #512	; 0x200
    95c8:	0afffff3 	beq	959c <i2c_write+0x54>
    95cc:	eb000088 	bl	97f4 <rpi_reset_putc>
    95d0:	e59f301c 	ldr	r3, [pc, #28]	; 95f4 <i2c_write+0xac>
    95d4:	e59f201c 	ldr	r2, [pc, #28]	; 95f8 <i2c_write+0xb0>
    95d8:	e59f101c 	ldr	r1, [pc, #28]	; 95fc <i2c_write+0xb4>
    95dc:	e59f0024 	ldr	r0, [pc, #36]	; 9608 <i2c_write+0xc0>
    95e0:	eb000068 	bl	9788 <printk>
    95e4:	eb0001d7 	bl	9d48 <clean_reboot>
    95e8:	ebffff16 	bl	9248 <xfer_end>
    95ec:	e3a00001 	mov	r0, #1
    95f0:	e8bd8070 	pop	{r4, r5, r6, pc}
    95f4:	00000123 	andeq	r0, r0, r3, lsr #2
    95f8:	0000b1b8 			; <UNDEFINED> instruction: 0x0000b1b8
    95fc:	0000b1dc 	ldrdeq	fp, [r0], -ip
    9600:	0000b2d0 	ldrdeq	fp, [r0], -r0
    9604:	20804000 	addcs	r4, r0, r0
    9608:	0000b2f4 	strdeq	fp, [r0], -r4

0000960c <i2c_read>:
    960c:	e92d4070 	push	{r4, r5, r6, lr}
    9610:	e1a05001 	mov	r5, r1
    9614:	e1a04002 	mov	r4, r2
    9618:	e3a02001 	mov	r2, #1
    961c:	e1a01004 	mov	r1, r4
    9620:	ebffff56 	bl	9380 <xfer_start>
    9624:	e3a02000 	mov	r2, #0
    9628:	ea00000a 	b	9658 <i2c_read+0x4c>
    962c:	eb000070 	bl	97f4 <rpi_reset_putc>
    9630:	e3a03f4d 	mov	r3, #308	; 0x134
    9634:	e59f207c 	ldr	r2, [pc, #124]	; 96b8 <i2c_read+0xac>
    9638:	e59f107c 	ldr	r1, [pc, #124]	; 96bc <i2c_read+0xb0>
    963c:	e59f007c 	ldr	r0, [pc, #124]	; 96c0 <i2c_read+0xb4>
    9640:	eb000050 	bl	9788 <printk>
    9644:	eb0001bf 	bl	9d48 <clean_reboot>
    9648:	e59f3074 	ldr	r3, [pc, #116]	; 96c4 <i2c_read+0xb8>
    964c:	e5933010 	ldr	r3, [r3, #16]
    9650:	e7c53002 	strb	r3, [r5, r2]
    9654:	e2822001 	add	r2, r2, #1
    9658:	e1520004 	cmp	r2, r4
    965c:	2a000012 	bcs	96ac <i2c_read+0xa0>
    9660:	e59f305c 	ldr	r3, [pc, #92]	; 96c4 <i2c_read+0xb8>
    9664:	e5933004 	ldr	r3, [r3, #4]
    9668:	e3130020 	tst	r3, #32
    966c:	1afffff5 	bne	9648 <i2c_read+0x3c>
    9670:	e59f304c 	ldr	r3, [pc, #76]	; 96c4 <i2c_read+0xb8>
    9674:	e5933004 	ldr	r3, [r3, #4]
    9678:	e3130c01 	tst	r3, #256	; 0x100
    967c:	1affffea 	bne	962c <i2c_read+0x20>
    9680:	e59f303c 	ldr	r3, [pc, #60]	; 96c4 <i2c_read+0xb8>
    9684:	e5933004 	ldr	r3, [r3, #4]
    9688:	e3130c02 	tst	r3, #512	; 0x200
    968c:	0afffff3 	beq	9660 <i2c_read+0x54>
    9690:	eb000057 	bl	97f4 <rpi_reset_putc>
    9694:	e3a03f4d 	mov	r3, #308	; 0x134
    9698:	e59f2018 	ldr	r2, [pc, #24]	; 96b8 <i2c_read+0xac>
    969c:	e59f1018 	ldr	r1, [pc, #24]	; 96bc <i2c_read+0xb0>
    96a0:	e59f0020 	ldr	r0, [pc, #32]	; 96c8 <i2c_read+0xbc>
    96a4:	eb000037 	bl	9788 <printk>
    96a8:	eb0001a6 	bl	9d48 <clean_reboot>
    96ac:	ebfffee5 	bl	9248 <xfer_end>
    96b0:	e3a00001 	mov	r0, #1
    96b4:	e8bd8070 	pop	{r4, r5, r6, pc}
    96b8:	0000b1c4 	andeq	fp, r0, r4, asr #3
    96bc:	0000b1dc 	ldrdeq	fp, [r0], -ip
    96c0:	0000b2d0 	ldrdeq	fp, [r0], -r0
    96c4:	20804000 	addcs	r4, r0, r0
    96c8:	0000b2f4 	strdeq	fp, [r0], -r4

000096cc <i2c_is_initialized>:
    96cc:	e59f3004 	ldr	r3, [pc, #4]	; 96d8 <i2c_is_initialized+0xc>
    96d0:	e5930000 	ldr	r0, [r3]
    96d4:	e12fff1e 	bx	lr
    96d8:	0000b8d4 	ldrdeq	fp, [r0], -r4

000096dc <i2c_init>:
    96dc:	e92d4010 	push	{r4, lr}
    96e0:	ebfffed6 	bl	9240 <check_layout>
    96e4:	eb000466 	bl	a884 <dev_barrier>
    96e8:	e3a01004 	mov	r1, #4
    96ec:	e3a00002 	mov	r0, #2
    96f0:	eb00028a 	bl	a120 <gpio_set_function>
    96f4:	e3a01004 	mov	r1, #4
    96f8:	e3a00003 	mov	r0, #3
    96fc:	eb000287 	bl	a120 <gpio_set_function>
    9700:	eb00045f 	bl	a884 <dev_barrier>
    9704:	e59f404c 	ldr	r4, [pc, #76]	; 9758 <i2c_init+0x7c>
    9708:	e3a01902 	mov	r1, #32768	; 0x8000
    970c:	e1a00004 	mov	r0, r4
    9710:	eb000461 	bl	a89c <put32>
    9714:	eb00045a 	bl	a884 <dev_barrier>
    9718:	ebffff0a 	bl	9348 <reset_status>
    971c:	eb000458 	bl	a884 <dev_barrier>
    9720:	e5943004 	ldr	r3, [r4, #4]
    9724:	e3130001 	tst	r3, #1
    9728:	1a000003 	bne	973c <i2c_init+0x60>
    972c:	e3a02001 	mov	r2, #1
    9730:	e59f3024 	ldr	r3, [pc, #36]	; 975c <i2c_init+0x80>
    9734:	e5832000 	str	r2, [r3]
    9738:	e8bd8010 	pop	{r4, pc}
    973c:	eb00002c 	bl	97f4 <rpi_reset_putc>
    9740:	e59f3018 	ldr	r3, [pc, #24]	; 9760 <i2c_init+0x84>
    9744:	e59f2018 	ldr	r2, [pc, #24]	; 9764 <i2c_init+0x88>
    9748:	e59f1018 	ldr	r1, [pc, #24]	; 9768 <i2c_init+0x8c>
    974c:	e59f0018 	ldr	r0, [pc, #24]	; 976c <i2c_init+0x90>
    9750:	eb00000c 	bl	9788 <printk>
    9754:	eb00017b 	bl	9d48 <clean_reboot>
    9758:	20804000 	addcs	r4, r0, r0
    975c:	0000b8d4 	ldrdeq	fp, [r0], -r4
    9760:	00000162 	andeq	r0, r0, r2, ror #2
    9764:	0000b1d0 	ldrdeq	fp, [r0], -r0
    9768:	0000b1dc 	ldrdeq	fp, [r0], -ip
    976c:	0000b324 	andeq	fp, r0, r4, lsr #6

00009770 <i2c_init_once>:
    9770:	e92d4010 	push	{r4, lr}
    9774:	ebffffd4 	bl	96cc <i2c_is_initialized>
    9778:	e3500000 	cmp	r0, #0
    977c:	18bd8010 	popne	{r4, pc}
    9780:	ebffffd5 	bl	96dc <i2c_init>
    9784:	e8bd8010 	pop	{r4, pc}

00009788 <printk>:
    9788:	e92d000f 	push	{r0, r1, r2, r3}
    978c:	e92d4030 	push	{r4, r5, lr}
    9790:	e24dd00c 	sub	sp, sp, #12
    9794:	e28d301c 	add	r3, sp, #28
    9798:	e58d3004 	str	r3, [sp, #4]
    979c:	e59f4034 	ldr	r4, [pc, #52]	; 97d8 <printk+0x50>
    97a0:	e1a00004 	mov	r0, r4
    97a4:	e3a01b01 	mov	r1, #1024	; 0x400
    97a8:	e59d2018 	ldr	r2, [sp, #24]
    97ac:	eb0000c3 	bl	9ac0 <va_printk>
    97b0:	e1a05000 	mov	r5, r0
    97b4:	e59f3020 	ldr	r3, [pc, #32]	; 97dc <printk+0x54>
    97b8:	e5933000 	ldr	r3, [r3]
    97bc:	e1a00004 	mov	r0, r4
    97c0:	e12fff33 	blx	r3
    97c4:	e1a00005 	mov	r0, r5
    97c8:	e28dd00c 	add	sp, sp, #12
    97cc:	e8bd4030 	pop	{r4, r5, lr}
    97d0:	e28dd010 	add	sp, sp, #16
    97d4:	e12fff1e 	bx	lr
    97d8:	0000b8d8 	ldrdeq	fp, [r0], -r8
    97dc:	0000ab0c 	andeq	sl, r0, ip, lsl #22

000097e0 <internal_putchar>:
    97e0:	e92d4010 	push	{r4, lr}
    97e4:	e1a04000 	mov	r4, r0
    97e8:	eb0003cd 	bl	a724 <uart_putc>
    97ec:	e1a00004 	mov	r0, r4
    97f0:	e8bd8010 	pop	{r4, pc}

000097f4 <rpi_reset_putc>:
    97f4:	e59f2008 	ldr	r2, [pc, #8]	; 9804 <rpi_reset_putc+0x10>
    97f8:	e59f3008 	ldr	r3, [pc, #8]	; 9808 <rpi_reset_putc+0x14>
    97fc:	e5832000 	str	r2, [r3]
    9800:	e12fff1e 	bx	lr
    9804:	000097e0 	andeq	r9, r0, r0, ror #15
    9808:	0000ab08 	andeq	sl, r0, r8, lsl #22

0000980c <rpi_set_putc>:
    980c:	e59f3004 	ldr	r3, [pc, #4]	; 9818 <rpi_set_putc+0xc>
    9810:	e5830000 	str	r0, [r3]
    9814:	e12fff1e 	bx	lr
    9818:	0000ab08 	andeq	sl, r0, r8, lsl #22

0000981c <internal_putk>:
    981c:	e92d4038 	push	{r3, r4, r5, lr}
    9820:	e1a04000 	mov	r4, r0
    9824:	e59f5020 	ldr	r5, [pc, #32]	; 984c <internal_putk+0x30>
    9828:	ea000002 	b	9838 <internal_putk+0x1c>
    982c:	e5953000 	ldr	r3, [r5]
    9830:	e12fff33 	blx	r3
    9834:	e2844001 	add	r4, r4, #1
    9838:	e5d40000 	ldrb	r0, [r4]
    983c:	e3500000 	cmp	r0, #0
    9840:	1afffff9 	bne	982c <internal_putk+0x10>
    9844:	e3a00001 	mov	r0, #1
    9848:	e8bd8038 	pop	{r3, r4, r5, pc}
    984c:	0000ab08 	andeq	sl, r0, r8, lsl #22

00009850 <isdigit>:
    9850:	e2400030 	sub	r0, r0, #48	; 0x30
    9854:	e3500009 	cmp	r0, #9
    9858:	83a00000 	movhi	r0, #0
    985c:	93a00001 	movls	r0, #1
    9860:	e12fff1e 	bx	lr

00009864 <pad>:
    9864:	e0611000 	rsb	r1, r1, r0
    9868:	e3a03020 	mov	r3, #32
    986c:	ea000002 	b	987c <pad+0x18>
    9870:	e5c03000 	strb	r3, [r0]
    9874:	e2811001 	add	r1, r1, #1
    9878:	e2800001 	add	r0, r0, #1
    987c:	e1510002 	cmp	r1, r2
    9880:	bafffffa 	blt	9870 <pad+0xc>
    9884:	e3a03000 	mov	r3, #0
    9888:	e5c03000 	strb	r3, [r0]
    988c:	e12fff1e 	bx	lr

00009890 <reverse>:
    9890:	e063c002 	rsb	ip, r3, r2
    9894:	e28cc001 	add	ip, ip, #1
    9898:	e15c0001 	cmp	ip, r1
    989c:	c061100c 	rsbgt	r1, r1, ip
    98a0:	c0833001 	addgt	r3, r3, r1
    98a4:	e2422001 	sub	r2, r2, #1
    98a8:	e1a01000 	mov	r1, r0
    98ac:	ea000002 	b	98bc <reverse+0x2c>
    98b0:	e452c001 	ldrb	ip, [r2], #-1
    98b4:	e5c1c000 	strb	ip, [r1]
    98b8:	e2811001 	add	r1, r1, #1
    98bc:	e1520003 	cmp	r2, r3
    98c0:	2afffffa 	bcs	98b0 <reverse+0x20>
    98c4:	e3a03000 	mov	r3, #0
    98c8:	e5c13000 	strb	r3, [r1]
    98cc:	e12fff1e 	bx	lr

000098d0 <emit>:
    98d0:	e92d41f0 	push	{r4, r5, r6, r7, r8, lr}
    98d4:	e24dd040 	sub	sp, sp, #64	; 0x40
    98d8:	e1a05001 	mov	r5, r1
    98dc:	e1a04002 	mov	r4, r2
    98e0:	e59d2058 	ldr	r2, [sp, #88]	; 0x58
    98e4:	e1520004 	cmp	r2, r4
    98e8:	c2442001 	subgt	r2, r4, #1
    98ec:	e1a0c003 	mov	ip, r3
    98f0:	e2400002 	sub	r0, r0, #2
    98f4:	e350000e 	cmp	r0, #14
    98f8:	979ff100 	ldrls	pc, [pc, r0, lsl #2]
    98fc:	ea000042 	b	9a0c <emit+0x13c>
    9900:	000099e4 	andeq	r9, r0, r4, ror #19
    9904:	00009a0c 	andeq	r9, r0, ip, lsl #20
    9908:	00009a0c 	andeq	r9, r0, ip, lsl #20
    990c:	00009a0c 	andeq	r9, r0, ip, lsl #20
    9910:	00009a0c 	andeq	r9, r0, ip, lsl #20
    9914:	00009a0c 	andeq	r9, r0, ip, lsl #20
    9918:	000099d8 	ldrdeq	r9, [r0], -r8
    991c:	00009a0c 	andeq	r9, r0, ip, lsl #20
    9920:	0000993c 	andeq	r9, r0, ip, lsr r9
    9924:	00009a0c 	andeq	r9, r0, ip, lsl #20
    9928:	00009a0c 	andeq	r9, r0, ip, lsl #20
    992c:	00009a0c 	andeq	r9, r0, ip, lsl #20
    9930:	00009a0c 	andeq	r9, r0, ip, lsl #20
    9934:	00009a0c 	andeq	r9, r0, ip, lsl #20
    9938:	000099b0 			; <UNDEFINED> instruction: 0x000099b0
    993c:	e59d105c 	ldr	r1, [sp, #92]	; 0x5c
    9940:	e2911000 	adds	r1, r1, #0
    9944:	13a01001 	movne	r1, #1
    9948:	e0111fa3 	ands	r1, r1, r3, lsr #31
    994c:	1263c000 	rsbne	ip, r3, #0
    9950:	13a08001 	movne	r8, #1
    9954:	03a08000 	moveq	r8, #0
    9958:	e1a0100d 	mov	r1, sp
    995c:	e59f70ec 	ldr	r7, [pc, #236]	; 9a50 <emit+0x180>
    9960:	e59f60ec 	ldr	r6, [pc, #236]	; 9a54 <emit+0x184>
    9964:	ea000000 	b	996c <emit+0x9c>
    9968:	e1a01003 	mov	r1, r3
    996c:	e2813001 	add	r3, r1, #1
    9970:	e08e0c97 	umull	r0, lr, r7, ip
    9974:	e1a0e1ae 	lsr	lr, lr, #3
    9978:	e1a0000e 	mov	r0, lr
    997c:	e08ee10e 	add	lr, lr, lr, lsl #2
    9980:	e1a0e08e 	lsl	lr, lr, #1
    9984:	e06ee00c 	rsb	lr, lr, ip
    9988:	e7d6c00e 	ldrb	ip, [r6, lr]
    998c:	e5c1c000 	strb	ip, [r1]
    9990:	e1a0c000 	mov	ip, r0
    9994:	e3500000 	cmp	r0, #0
    9998:	1afffff2 	bne	9968 <emit+0x98>
    999c:	e3580000 	cmp	r8, #0
    99a0:	12813002 	addne	r3, r1, #2
    99a4:	13a0002d 	movne	r0, #45	; 0x2d
    99a8:	15c10001 	strbne	r0, [r1, #1]
    99ac:	ea00001d 	b	9a28 <emit+0x158>
    99b0:	e1a0e00d 	mov	lr, sp
    99b4:	e59f009c 	ldr	r0, [pc, #156]	; 9a58 <emit+0x188>
    99b8:	e28e3001 	add	r3, lr, #1
    99bc:	e20c100f 	and	r1, ip, #15
    99c0:	e7d01001 	ldrb	r1, [r0, r1]
    99c4:	e5ce1000 	strb	r1, [lr]
    99c8:	e1a0e003 	mov	lr, r3
    99cc:	e1b0c22c 	lsrs	ip, ip, #4
    99d0:	1afffff8 	bne	99b8 <emit+0xe8>
    99d4:	ea000013 	b	9a28 <emit+0x158>
    99d8:	e5cd3000 	strb	r3, [sp]
    99dc:	e28d3001 	add	r3, sp, #1
    99e0:	ea000010 	b	9a28 <emit+0x158>
    99e4:	e1a0e00d 	mov	lr, sp
    99e8:	e59f006c 	ldr	r0, [pc, #108]	; 9a5c <emit+0x18c>
    99ec:	e28e3001 	add	r3, lr, #1
    99f0:	e20c1001 	and	r1, ip, #1
    99f4:	e7d01001 	ldrb	r1, [r0, r1]
    99f8:	e5ce1000 	strb	r1, [lr]
    99fc:	e1a0e003 	mov	lr, r3
    9a00:	e1b0c0ac 	lsrs	ip, ip, #1
    9a04:	1afffff8 	bne	99ec <emit+0x11c>
    9a08:	ea000006 	b	9a28 <emit+0x158>
    9a0c:	ebffff78 	bl	97f4 <rpi_reset_putc>
    9a10:	e59f0048 	ldr	r0, [pc, #72]	; 9a60 <emit+0x190>
    9a14:	e59f1048 	ldr	r1, [pc, #72]	; 9a64 <emit+0x194>
    9a18:	e59f2048 	ldr	r2, [pc, #72]	; 9a68 <emit+0x198>
    9a1c:	e3a03075 	mov	r3, #117	; 0x75
    9a20:	ebffff58 	bl	9788 <printk>
    9a24:	eb0000c7 	bl	9d48 <clean_reboot>
    9a28:	e1a00003 	mov	r0, r3
    9a2c:	e1a0100d 	mov	r1, sp
    9a30:	ebffff8b 	bl	9864 <pad>
    9a34:	e1a02000 	mov	r2, r0
    9a38:	e1a00005 	mov	r0, r5
    9a3c:	e1a01004 	mov	r1, r4
    9a40:	e1a0300d 	mov	r3, sp
    9a44:	ebffff91 	bl	9890 <reverse>
    9a48:	e28dd040 	add	sp, sp, #64	; 0x40
    9a4c:	e8bd81f0 	pop	{r4, r5, r6, r7, r8, pc}
    9a50:	cccccccd 	stclgt	12, cr12, [ip], {205}	; 0xcd
    9a54:	0000b418 	andeq	fp, r0, r8, lsl r4
    9a58:	0000b424 	andeq	fp, r0, r4, lsr #8
    9a5c:	0000b438 	andeq	fp, r0, r8, lsr r4
    9a60:	0000aec4 	andeq	sl, r0, r4, asr #29
    9a64:	0000b404 	andeq	fp, r0, r4, lsl #8
    9a68:	0000b3e0 	andeq	fp, r0, r0, ror #7

00009a6c <rpi_set_output>:
    9a6c:	e92d4008 	push	{r3, lr}
    9a70:	e3500000 	cmp	r0, #0
    9a74:	1a000006 	bne	9a94 <rpi_set_output+0x28>
    9a78:	ebffff5d 	bl	97f4 <rpi_reset_putc>
    9a7c:	e59f0028 	ldr	r0, [pc, #40]	; 9aac <rpi_set_output+0x40>
    9a80:	e59f1028 	ldr	r1, [pc, #40]	; 9ab0 <rpi_set_output+0x44>
    9a84:	e59f2028 	ldr	r2, [pc, #40]	; 9ab4 <rpi_set_output+0x48>
    9a88:	e3a03020 	mov	r3, #32
    9a8c:	ebffff3d 	bl	9788 <printk>
    9a90:	eb0000ac 	bl	9d48 <clean_reboot>
    9a94:	e59f301c 	ldr	r3, [pc, #28]	; 9ab8 <rpi_set_output+0x4c>
    9a98:	e5830000 	str	r0, [r3]
    9a9c:	e3510000 	cmp	r1, #0
    9aa0:	159f3014 	ldrne	r3, [pc, #20]	; 9abc <rpi_set_output+0x50>
    9aa4:	15831000 	strne	r1, [r3]
    9aa8:	e8bd8008 	pop	{r3, pc}
    9aac:	0000b43c 	andeq	fp, r0, ip, lsr r4
    9ab0:	0000b404 	andeq	fp, r0, r4, lsl #8
    9ab4:	0000b3e8 	andeq	fp, r0, r8, ror #7
    9ab8:	0000ab08 	andeq	sl, r0, r8, lsl #22
    9abc:	0000ab0c 	andeq	sl, r0, ip, lsl #22

00009ac0 <va_printk>:
    9ac0:	e92d4ff0 	push	{r4, r5, r6, r7, r8, r9, sl, fp, lr}
    9ac4:	e24dd08c 	sub	sp, sp, #140	; 0x8c
    9ac8:	e1a0a000 	mov	sl, r0
    9acc:	e1a09003 	mov	r9, r3
    9ad0:	e2411001 	sub	r1, r1, #1
    9ad4:	e0808001 	add	r8, r0, r1
    9ad8:	e3a03000 	mov	r3, #0
    9adc:	e5c03000 	strb	r3, [r0]
    9ae0:	e1a04000 	mov	r4, r0
    9ae4:	e1a0b003 	mov	fp, r3
    9ae8:	ea000086 	b	9d08 <va_printk+0x248>
    9aec:	e3530025 	cmp	r3, #37	; 0x25
    9af0:	12822001 	addne	r2, r2, #1
    9af4:	15c43000 	strbne	r3, [r4]
    9af8:	12844001 	addne	r4, r4, #1
    9afc:	1a000081 	bne	9d08 <va_printk+0x248>
    9b00:	e5d21001 	ldrb	r1, [r2, #1]
    9b04:	e3510025 	cmp	r1, #37	; 0x25
    9b08:	05c43000 	strbeq	r3, [r4]
    9b0c:	02822002 	addeq	r2, r2, #2
    9b10:	02844001 	addeq	r4, r4, #1
    9b14:	0a00007b 	beq	9d08 <va_printk+0x248>
    9b18:	e2826001 	add	r6, r2, #1
    9b1c:	e1a0700b 	mov	r7, fp
    9b20:	ea000004 	b	9b38 <va_printk+0x78>
    9b24:	e0877107 	add	r7, r7, r7, lsl #2
    9b28:	e1a07087 	lsl	r7, r7, #1
    9b2c:	e0877005 	add	r7, r7, r5
    9b30:	e2477030 	sub	r7, r7, #48	; 0x30
    9b34:	e2866001 	add	r6, r6, #1
    9b38:	e5d65000 	ldrb	r5, [r6]
    9b3c:	e1a00005 	mov	r0, r5
    9b40:	ebffff42 	bl	9850 <isdigit>
    9b44:	e3500000 	cmp	r0, #0
    9b48:	1afffff5 	bne	9b24 <va_printk+0x64>
    9b4c:	e357001f 	cmp	r7, #31
    9b50:	9a000006 	bls	9b70 <va_printk+0xb0>
    9b54:	ebffff26 	bl	97f4 <rpi_reset_putc>
    9b58:	e59f01d4 	ldr	r0, [pc, #468]	; 9d34 <va_printk+0x274>
    9b5c:	e59f11d4 	ldr	r1, [pc, #468]	; 9d38 <va_printk+0x278>
    9b60:	e59f21d4 	ldr	r2, [pc, #468]	; 9d3c <va_printk+0x27c>
    9b64:	e3a03092 	mov	r3, #146	; 0x92
    9b68:	ebffff06 	bl	9788 <printk>
    9b6c:	eb000075 	bl	9d48 <clean_reboot>
    9b70:	e2455062 	sub	r5, r5, #98	; 0x62
    9b74:	e3550016 	cmp	r5, #22
    9b78:	979ff105 	ldrls	pc, [pc, r5, lsl #2]
    9b7c:	ea00004e 	b	9cbc <va_printk+0x1fc>
    9b80:	00009c68 	andeq	r9, r0, r8, ror #24
    9b84:	00009c98 	muleq	r0, r8, ip
    9b88:	00009bf8 	strdeq	r9, [r0], -r8
    9b8c:	00009cbc 			; <UNDEFINED> instruction: 0x00009cbc
    9b90:	00009bdc 	ldrdeq	r9, [r0], -ip
    9b94:	00009cbc 			; <UNDEFINED> instruction: 0x00009cbc
    9b98:	00009cbc 			; <UNDEFINED> instruction: 0x00009cbc
    9b9c:	00009cbc 			; <UNDEFINED> instruction: 0x00009cbc
    9ba0:	00009cbc 			; <UNDEFINED> instruction: 0x00009cbc
    9ba4:	00009cbc 			; <UNDEFINED> instruction: 0x00009cbc
    9ba8:	00009cbc 			; <UNDEFINED> instruction: 0x00009cbc
    9bac:	00009cbc 			; <UNDEFINED> instruction: 0x00009cbc
    9bb0:	00009cbc 			; <UNDEFINED> instruction: 0x00009cbc
    9bb4:	00009cbc 			; <UNDEFINED> instruction: 0x00009cbc
    9bb8:	00009c44 	andeq	r9, r0, r4, asr #24
    9bbc:	00009cbc 			; <UNDEFINED> instruction: 0x00009cbc
    9bc0:	00009cbc 			; <UNDEFINED> instruction: 0x00009cbc
    9bc4:	00009c8c 	andeq	r9, r0, ip, lsl #25
    9bc8:	00009cbc 			; <UNDEFINED> instruction: 0x00009cbc
    9bcc:	00009c20 	andeq	r9, r0, r0, lsr #24
    9bd0:	00009cbc 			; <UNDEFINED> instruction: 0x00009cbc
    9bd4:	00009cbc 			; <UNDEFINED> instruction: 0x00009cbc
    9bd8:	00009c44 	andeq	r9, r0, r4, asr #24
    9bdc:	ebffff04 	bl	97f4 <rpi_reset_putc>
    9be0:	e59f0158 	ldr	r0, [pc, #344]	; 9d40 <va_printk+0x280>
    9be4:	e59f114c 	ldr	r1, [pc, #332]	; 9d38 <va_printk+0x278>
    9be8:	e59f214c 	ldr	r2, [pc, #332]	; 9d3c <va_printk+0x27c>
    9bec:	e3a03098 	mov	r3, #152	; 0x98
    9bf0:	ebfffee4 	bl	9788 <printk>
    9bf4:	eb000053 	bl	9d48 <clean_reboot>
    9bf8:	e5993000 	ldr	r3, [r9]
    9bfc:	e2899004 	add	r9, r9, #4
    9c00:	e58d7000 	str	r7, [sp]
    9c04:	e3a02001 	mov	r2, #1
    9c08:	e58d2004 	str	r2, [sp, #4]
    9c0c:	e3a0000a 	mov	r0, #10
    9c10:	e28d1008 	add	r1, sp, #8
    9c14:	e3a02080 	mov	r2, #128	; 0x80
    9c18:	ebffff2c 	bl	98d0 <emit>
    9c1c:	ea00002f 	b	9ce0 <va_printk+0x220>
    9c20:	e5993000 	ldr	r3, [r9]
    9c24:	e2899004 	add	r9, r9, #4
    9c28:	e58d7000 	str	r7, [sp]
    9c2c:	e58db004 	str	fp, [sp, #4]
    9c30:	e3a0000a 	mov	r0, #10
    9c34:	e28d1008 	add	r1, sp, #8
    9c38:	e3a02080 	mov	r2, #128	; 0x80
    9c3c:	ebffff23 	bl	98d0 <emit>
    9c40:	ea000026 	b	9ce0 <va_printk+0x220>
    9c44:	e5993000 	ldr	r3, [r9]
    9c48:	e2899004 	add	r9, r9, #4
    9c4c:	e58d7000 	str	r7, [sp]
    9c50:	e58db004 	str	fp, [sp, #4]
    9c54:	e3a00010 	mov	r0, #16
    9c58:	e28d1008 	add	r1, sp, #8
    9c5c:	e3a02080 	mov	r2, #128	; 0x80
    9c60:	ebffff1a 	bl	98d0 <emit>
    9c64:	ea00001d 	b	9ce0 <va_printk+0x220>
    9c68:	e5993000 	ldr	r3, [r9]
    9c6c:	e2899004 	add	r9, r9, #4
    9c70:	e58d7000 	str	r7, [sp]
    9c74:	e58db004 	str	fp, [sp, #4]
    9c78:	e3a00002 	mov	r0, #2
    9c7c:	e28d1008 	add	r1, sp, #8
    9c80:	e3a02080 	mov	r2, #128	; 0x80
    9c84:	ebffff11 	bl	98d0 <emit>
    9c88:	ea000014 	b	9ce0 <va_printk+0x220>
    9c8c:	e5990000 	ldr	r0, [r9]
    9c90:	e2899004 	add	r9, r9, #4
    9c94:	ea000011 	b	9ce0 <va_printk+0x220>
    9c98:	e5993000 	ldr	r3, [r9]
    9c9c:	e2899004 	add	r9, r9, #4
    9ca0:	e58d7000 	str	r7, [sp]
    9ca4:	e58db004 	str	fp, [sp, #4]
    9ca8:	e3a00008 	mov	r0, #8
    9cac:	e08d1000 	add	r1, sp, r0
    9cb0:	e3a02080 	mov	r2, #128	; 0x80
    9cb4:	ebffff05 	bl	98d0 <emit>
    9cb8:	ea000008 	b	9ce0 <va_printk+0x220>
    9cbc:	ebfffecc 	bl	97f4 <rpi_reset_putc>
    9cc0:	e5d63000 	ldrb	r3, [r6]
    9cc4:	e58d3000 	str	r3, [sp]
    9cc8:	e59f0074 	ldr	r0, [pc, #116]	; 9d44 <va_printk+0x284>
    9ccc:	e59f1064 	ldr	r1, [pc, #100]	; 9d38 <va_printk+0x278>
    9cd0:	e59f2064 	ldr	r2, [pc, #100]	; 9d3c <va_printk+0x27c>
    9cd4:	e3a030b9 	mov	r3, #185	; 0xb9
    9cd8:	ebfffeaa 	bl	9788 <printk>
    9cdc:	eb000019 	bl	9d48 <clean_reboot>
    9ce0:	e2862001 	add	r2, r6, #1
    9ce4:	ea000002 	b	9cf4 <va_printk+0x234>
    9ce8:	e2800001 	add	r0, r0, #1
    9cec:	e5c43000 	strb	r3, [r4]
    9cf0:	e2844001 	add	r4, r4, #1
    9cf4:	e1540008 	cmp	r4, r8
    9cf8:	2a000002 	bcs	9d08 <va_printk+0x248>
    9cfc:	e5d03000 	ldrb	r3, [r0]
    9d00:	e3530000 	cmp	r3, #0
    9d04:	1afffff7 	bne	9ce8 <va_printk+0x228>
    9d08:	e5d23000 	ldrb	r3, [r2]
    9d0c:	e3530000 	cmp	r3, #0
    9d10:	0a000001 	beq	9d1c <va_printk+0x25c>
    9d14:	e1540008 	cmp	r4, r8
    9d18:	3affff73 	bcc	9aec <va_printk+0x2c>
    9d1c:	e2840001 	add	r0, r4, #1
    9d20:	e3a03000 	mov	r3, #0
    9d24:	e5c43000 	strb	r3, [r4]
    9d28:	e06a0000 	rsb	r0, sl, r0
    9d2c:	e28dd08c 	add	sp, sp, #140	; 0x8c
    9d30:	e8bd8ff0 	pop	{r4, r5, r6, r7, r8, r9, sl, fp, pc}
    9d34:	0000b454 	andeq	fp, r0, r4, asr r4
    9d38:	0000b404 	andeq	fp, r0, r4, lsl #8
    9d3c:	0000b3f8 	strdeq	fp, [r0], -r8
    9d40:	0000b470 	andeq	fp, r0, r0, ror r4
    9d44:	0000b498 	muleq	r0, r8, r4

00009d48 <clean_reboot>:
    9d48:	e92d4008 	push	{r3, lr}
    9d4c:	e59f3014 	ldr	r3, [pc, #20]	; 9d68 <clean_reboot+0x20>
    9d50:	e5933000 	ldr	r3, [r3]
    9d54:	e59f0010 	ldr	r0, [pc, #16]	; 9d6c <clean_reboot+0x24>
    9d58:	e12fff33 	blx	r3
    9d5c:	e3a00064 	mov	r0, #100	; 0x64
    9d60:	eb000044 	bl	9e78 <delay_ms>
    9d64:	eb000019 	bl	9dd0 <rpi_reboot>
    9d68:	0000ab0c 	andeq	sl, r0, ip, lsl #22
    9d6c:	0000b4d0 	ldrdeq	fp, [r0], -r0

00009d70 <_cstart>:
    9d70:	e92d4008 	push	{r3, lr}
    9d74:	e59f3020 	ldr	r3, [pc, #32]	; 9d9c <_cstart+0x2c>
    9d78:	e59f2020 	ldr	r2, [pc, #32]	; 9da0 <_cstart+0x30>
    9d7c:	e3a01000 	mov	r1, #0
    9d80:	ea000001 	b	9d8c <_cstart+0x1c>
    9d84:	e5831000 	str	r1, [r3]
    9d88:	e2833004 	add	r3, r3, #4
    9d8c:	e1530002 	cmp	r3, r2
    9d90:	3afffffb 	bcc	9d84 <_cstart+0x14>
    9d94:	ebfffba5 	bl	8c30 <notmain>
    9d98:	eb00000c 	bl	9dd0 <rpi_reboot>
    9d9c:	0000b890 	muleq	r0, r0, r8
    9da0:	0000bce8 	andeq	fp, r0, r8, ror #25

00009da4 <at_user_level>:
    9da4:	e10f0000 	mrs	r0, CPSR
    9da8:	e200001f 	and	r0, r0, #31
    9dac:	e3500010 	cmp	r0, #16
    9db0:	13a00000 	movne	r0, #0
    9db4:	03a00001 	moveq	r0, #1
    9db8:	e12fff1e 	bx	lr

00009dbc <set_user_level>:
    9dbc:	e10f3000 	mrs	r3, CPSR
    9dc0:	e3c3301f 	bic	r3, r3, #31
    9dc4:	e3833010 	orr	r3, r3, #16
    9dc8:	e129f003 	msr	CPSR_fc, r3
    9dcc:	e12fff1e 	bx	lr

00009dd0 <rpi_reboot>:
    9dd0:	e92d4008 	push	{r3, lr}
    9dd4:	ebfffff2 	bl	9da4 <at_user_level>
    9dd8:	e3500000 	cmp	r0, #0
    9ddc:	0a000000 	beq	9de4 <rpi_reboot+0x14>
    9de0:	ebfffff5 	bl	9dbc <set_user_level>
    9de4:	e3a0001e 	mov	r0, #30
    9de8:	eb000022 	bl	9e78 <delay_ms>
    9dec:	e59f0014 	ldr	r0, [pc, #20]	; 9e08 <rpi_reboot+0x38>
    9df0:	e59f1014 	ldr	r1, [pc, #20]	; 9e0c <rpi_reboot+0x3c>
    9df4:	eb0002aa 	bl	a8a4 <PUT32>
    9df8:	e59f0010 	ldr	r0, [pc, #16]	; 9e10 <rpi_reboot+0x40>
    9dfc:	e59f1010 	ldr	r1, [pc, #16]	; 9e14 <rpi_reboot+0x44>
    9e00:	eb0002a7 	bl	a8a4 <PUT32>
    9e04:	eafffffe 	b	9e04 <rpi_reboot+0x34>
    9e08:	20100024 	andscs	r0, r0, r4, lsr #32
    9e0c:	5a000001 	bpl	9e18 <delay_cycles>
    9e10:	2010001c 	andscs	r0, r0, ip, lsl r0
    9e14:	5a000020 	bpl	9e9c <delay_sec+0x10>

00009e18 <delay_cycles>:
    9e18:	ea000001 	b	9e24 <delay_cycles+0xc>
    9e1c:	e2811000 	add	r1, r1, #0
    9e20:	e1a00003 	mov	r0, r3
    9e24:	e2403001 	sub	r3, r0, #1
    9e28:	e3500000 	cmp	r0, #0
    9e2c:	1afffffa 	bne	9e1c <delay_cycles+0x4>
    9e30:	e12fff1e 	bx	lr

00009e34 <timer_get_usec_raw>:
    9e34:	e92d4008 	push	{r3, lr}
    9e38:	e59f0004 	ldr	r0, [pc, #4]	; 9e44 <timer_get_usec_raw+0x10>
    9e3c:	eb0002a4 	bl	a8d4 <GET32>
    9e40:	e8bd8008 	pop	{r3, pc}
    9e44:	20003004 	andcs	r3, r0, r4

00009e48 <timer_get_usec>:
    9e48:	e92d4008 	push	{r3, lr}
    9e4c:	ebfffff8 	bl	9e34 <timer_get_usec_raw>
    9e50:	e8bd8008 	pop	{r3, pc}

00009e54 <delay_us>:
    9e54:	e92d4038 	push	{r3, r4, r5, lr}
    9e58:	e1a05000 	mov	r5, r0
    9e5c:	ebfffff9 	bl	9e48 <timer_get_usec>
    9e60:	e1a04000 	mov	r4, r0
    9e64:	ebfffff7 	bl	9e48 <timer_get_usec>
    9e68:	e0640000 	rsb	r0, r4, r0
    9e6c:	e1500005 	cmp	r0, r5
    9e70:	3afffffb 	bcc	9e64 <delay_us+0x10>
    9e74:	e8bd8038 	pop	{r3, r4, r5, pc}

00009e78 <delay_ms>:
    9e78:	e92d4008 	push	{r3, lr}
    9e7c:	e3a03ffa 	mov	r3, #1000	; 0x3e8
    9e80:	e0000093 	mul	r0, r3, r0
    9e84:	ebfffff2 	bl	9e54 <delay_us>
    9e88:	e8bd8008 	pop	{r3, pc}

00009e8c <delay_sec>:
    9e8c:	e92d4008 	push	{r3, lr}
    9e90:	e3a03ffa 	mov	r3, #1000	; 0x3e8
    9e94:	e0000093 	mul	r0, r3, r0
    9e98:	ebfffff6 	bl	9e78 <delay_ms>
    9e9c:	e8bd8008 	pop	{r3, pc}

00009ea0 <gpio_set_output>:
    9ea0:	e92d4038 	push	{r3, r4, r5, lr}
    9ea4:	e1a04000 	mov	r4, r0
    9ea8:	e350001f 	cmp	r0, #31
    9eac:	88bd8038 	pophi	{r3, r4, r5, pc}
    9eb0:	e59f30b4 	ldr	r3, [pc, #180]	; 9f6c <gpio_set_output+0xcc>
    9eb4:	e0832093 	umull	r2, r3, r3, r0
    9eb8:	e1a031a3 	lsr	r3, r3, #3
    9ebc:	e3530005 	cmp	r3, #5
    9ec0:	979ff103 	ldrls	pc, [pc, r3, lsl #2]
    9ec4:	ea000017 	b	9f28 <gpio_set_output+0x88>
    9ec8:	00009ee0 	andeq	r9, r0, r0, ror #29
    9ecc:	00009eec 	andeq	r9, r0, ip, ror #29
    9ed0:	00009ef8 	strdeq	r9, [r0], -r8
    9ed4:	00009f04 	andeq	r9, r0, r4, lsl #30
    9ed8:	00009f10 	andeq	r9, r0, r0, lsl pc
    9edc:	00009f1c 	andeq	r9, r0, ip, lsl pc
    9ee0:	e59f3088 	ldr	r3, [pc, #136]	; 9f70 <gpio_set_output+0xd0>
    9ee4:	e5935000 	ldr	r5, [r3]
    9ee8:	ea00000f 	b	9f2c <gpio_set_output+0x8c>
    9eec:	e59f307c 	ldr	r3, [pc, #124]	; 9f70 <gpio_set_output+0xd0>
    9ef0:	e5935004 	ldr	r5, [r3, #4]
    9ef4:	ea00000c 	b	9f2c <gpio_set_output+0x8c>
    9ef8:	e59f3070 	ldr	r3, [pc, #112]	; 9f70 <gpio_set_output+0xd0>
    9efc:	e5935008 	ldr	r5, [r3, #8]
    9f00:	ea000009 	b	9f2c <gpio_set_output+0x8c>
    9f04:	e59f3064 	ldr	r3, [pc, #100]	; 9f70 <gpio_set_output+0xd0>
    9f08:	e593500c 	ldr	r5, [r3, #12]
    9f0c:	ea000006 	b	9f2c <gpio_set_output+0x8c>
    9f10:	e59f3058 	ldr	r3, [pc, #88]	; 9f70 <gpio_set_output+0xd0>
    9f14:	e5935010 	ldr	r5, [r3, #16]
    9f18:	ea000003 	b	9f2c <gpio_set_output+0x8c>
    9f1c:	e59f304c 	ldr	r3, [pc, #76]	; 9f70 <gpio_set_output+0xd0>
    9f20:	e5935014 	ldr	r5, [r3, #20]
    9f24:	ea000000 	b	9f2c <gpio_set_output+0x8c>
    9f28:	e3a05000 	mov	r5, #0
    9f2c:	e1a00005 	mov	r0, r5
    9f30:	eb000265 	bl	a8cc <get32>
    9f34:	e59f1030 	ldr	r1, [pc, #48]	; 9f6c <gpio_set_output+0xcc>
    9f38:	e0813491 	umull	r3, r1, r1, r4
    9f3c:	e1a011a1 	lsr	r1, r1, #3
    9f40:	e0811101 	add	r1, r1, r1, lsl #2
    9f44:	e1a01081 	lsl	r1, r1, #1
    9f48:	e0611004 	rsb	r1, r1, r4
    9f4c:	e0811081 	add	r1, r1, r1, lsl #1
    9f50:	e3a03007 	mov	r3, #7
    9f54:	e1c03113 	bic	r3, r0, r3, lsl r1
    9f58:	e1a00005 	mov	r0, r5
    9f5c:	e3a02001 	mov	r2, #1
    9f60:	e1831112 	orr	r1, r3, r2, lsl r1
    9f64:	eb00024c 	bl	a89c <put32>
    9f68:	e8bd8038 	pop	{r3, r4, r5, pc}
    9f6c:	cccccccd 	stclgt	12, cr12, [ip], {205}	; 0xcd
    9f70:	0000ab10 	andeq	sl, r0, r0, lsl fp

00009f74 <gpio_set_on>:
    9f74:	e92d4008 	push	{r3, lr}
    9f78:	e350001f 	cmp	r0, #31
    9f7c:	88bd8008 	pophi	{r3, pc}
    9f80:	959f3020 	ldrls	r3, [pc, #32]	; 9fa8 <gpio_set_on+0x34>
    9f84:	95932018 	ldrls	r2, [r3, #24]
    9f88:	859f3018 	ldrhi	r3, [pc, #24]	; 9fa8 <gpio_set_on+0x34>
    9f8c:	8593201c 	ldrhi	r2, [r3, #28]
    9f90:	e200301f 	and	r3, r0, #31
    9f94:	e1a00002 	mov	r0, r2
    9f98:	e3a01001 	mov	r1, #1
    9f9c:	e1a01311 	lsl	r1, r1, r3
    9fa0:	eb00023d 	bl	a89c <put32>
    9fa4:	e8bd8008 	pop	{r3, pc}
    9fa8:	0000ab10 	andeq	sl, r0, r0, lsl fp

00009fac <gpio_set_off>:
    9fac:	e92d4008 	push	{r3, lr}
    9fb0:	e350001f 	cmp	r0, #31
    9fb4:	88bd8008 	pophi	{r3, pc}
    9fb8:	959f3020 	ldrls	r3, [pc, #32]	; 9fe0 <gpio_set_off+0x34>
    9fbc:	95932020 	ldrls	r2, [r3, #32]
    9fc0:	859f3018 	ldrhi	r3, [pc, #24]	; 9fe0 <gpio_set_off+0x34>
    9fc4:	85932024 	ldrhi	r2, [r3, #36]	; 0x24
    9fc8:	e200301f 	and	r3, r0, #31
    9fcc:	e1a00002 	mov	r0, r2
    9fd0:	e3a01001 	mov	r1, #1
    9fd4:	e1a01311 	lsl	r1, r1, r3
    9fd8:	eb00022f 	bl	a89c <put32>
    9fdc:	e8bd8008 	pop	{r3, pc}
    9fe0:	0000ab10 	andeq	sl, r0, r0, lsl fp

00009fe4 <gpio_set_input>:
    9fe4:	e92d4038 	push	{r3, r4, r5, lr}
    9fe8:	e1a04000 	mov	r4, r0
    9fec:	e350001f 	cmp	r0, #31
    9ff0:	88bd8038 	pophi	{r3, r4, r5, pc}
    9ff4:	e59f30ac 	ldr	r3, [pc, #172]	; a0a8 <gpio_set_input+0xc4>
    9ff8:	e0832093 	umull	r2, r3, r3, r0
    9ffc:	e1a031a3 	lsr	r3, r3, #3
    a000:	e3530005 	cmp	r3, #5
    a004:	979ff103 	ldrls	pc, [pc, r3, lsl #2]
    a008:	ea000017 	b	a06c <gpio_set_input+0x88>
    a00c:	0000a024 	andeq	sl, r0, r4, lsr #32
    a010:	0000a030 	andeq	sl, r0, r0, lsr r0
    a014:	0000a03c 	andeq	sl, r0, ip, lsr r0
    a018:	0000a048 	andeq	sl, r0, r8, asr #32
    a01c:	0000a054 	andeq	sl, r0, r4, asr r0
    a020:	0000a060 	andeq	sl, r0, r0, rrx
    a024:	e59f3080 	ldr	r3, [pc, #128]	; a0ac <gpio_set_input+0xc8>
    a028:	e5935000 	ldr	r5, [r3]
    a02c:	ea00000f 	b	a070 <gpio_set_input+0x8c>
    a030:	e59f3074 	ldr	r3, [pc, #116]	; a0ac <gpio_set_input+0xc8>
    a034:	e5935004 	ldr	r5, [r3, #4]
    a038:	ea00000c 	b	a070 <gpio_set_input+0x8c>
    a03c:	e59f3068 	ldr	r3, [pc, #104]	; a0ac <gpio_set_input+0xc8>
    a040:	e5935008 	ldr	r5, [r3, #8]
    a044:	ea000009 	b	a070 <gpio_set_input+0x8c>
    a048:	e59f305c 	ldr	r3, [pc, #92]	; a0ac <gpio_set_input+0xc8>
    a04c:	e593500c 	ldr	r5, [r3, #12]
    a050:	ea000006 	b	a070 <gpio_set_input+0x8c>
    a054:	e59f3050 	ldr	r3, [pc, #80]	; a0ac <gpio_set_input+0xc8>
    a058:	e5935010 	ldr	r5, [r3, #16]
    a05c:	ea000003 	b	a070 <gpio_set_input+0x8c>
    a060:	e59f3044 	ldr	r3, [pc, #68]	; a0ac <gpio_set_input+0xc8>
    a064:	e5935014 	ldr	r5, [r3, #20]
    a068:	ea000000 	b	a070 <gpio_set_input+0x8c>
    a06c:	e3a05000 	mov	r5, #0
    a070:	e1a00005 	mov	r0, r5
    a074:	eb000214 	bl	a8cc <get32>
    a078:	e59f1028 	ldr	r1, [pc, #40]	; a0a8 <gpio_set_input+0xc4>
    a07c:	e0813491 	umull	r3, r1, r1, r4
    a080:	e1a011a1 	lsr	r1, r1, #3
    a084:	e0811101 	add	r1, r1, r1, lsl #2
    a088:	e1a01081 	lsl	r1, r1, #1
    a08c:	e0611004 	rsb	r1, r1, r4
    a090:	e0811081 	add	r1, r1, r1, lsl #1
    a094:	e3a03007 	mov	r3, #7
    a098:	e1c01113 	bic	r1, r0, r3, lsl r1
    a09c:	e1a00005 	mov	r0, r5
    a0a0:	eb0001fd 	bl	a89c <put32>
    a0a4:	e8bd8038 	pop	{r3, r4, r5, pc}
    a0a8:	cccccccd 	stclgt	12, cr12, [ip], {205}	; 0xcd
    a0ac:	0000ab10 	andeq	sl, r0, r0, lsl fp

0000a0b0 <gpio_read>:
    a0b0:	e92d4010 	push	{r4, lr}
    a0b4:	e1a04000 	mov	r4, r0
    a0b8:	e350001f 	cmp	r0, #31
    a0bc:	8a00000b 	bhi	a0f0 <gpio_read+0x40>
    a0c0:	8a000003 	bhi	a0d4 <gpio_read+0x24>
    a0c4:	e59f302c 	ldr	r3, [pc, #44]	; a0f8 <gpio_read+0x48>
    a0c8:	e5930028 	ldr	r0, [r3, #40]	; 0x28
    a0cc:	eb0001fe 	bl	a8cc <get32>
    a0d0:	ea000002 	b	a0e0 <gpio_read+0x30>
    a0d4:	e59f301c 	ldr	r3, [pc, #28]	; a0f8 <gpio_read+0x48>
    a0d8:	e593002c 	ldr	r0, [r3, #44]	; 0x2c
    a0dc:	eb0001fa 	bl	a8cc <get32>
    a0e0:	e204401f 	and	r4, r4, #31
    a0e4:	e3a03001 	mov	r3, #1
    a0e8:	e0000413 	and	r0, r0, r3, lsl r4
    a0ec:	e8bd8010 	pop	{r4, pc}
    a0f0:	e3e00000 	mvn	r0, #0
    a0f4:	e8bd8010 	pop	{r4, pc}
    a0f8:	0000ab10 	andeq	sl, r0, r0, lsl fp

0000a0fc <gpio_write>:
    a0fc:	e92d4008 	push	{r3, lr}
    a100:	e350001f 	cmp	r0, #31
    a104:	88bd8008 	pophi	{r3, pc}
    a108:	e3510000 	cmp	r1, #0
    a10c:	0a000001 	beq	a118 <gpio_write+0x1c>
    a110:	ebffff97 	bl	9f74 <gpio_set_on>
    a114:	e8bd8008 	pop	{r3, pc}
    a118:	ebffffa3 	bl	9fac <gpio_set_off>
    a11c:	e8bd8008 	pop	{r3, pc}

0000a120 <gpio_set_function>:
    a120:	e92d4070 	push	{r4, r5, r6, lr}
    a124:	e1a04000 	mov	r4, r0
    a128:	e1a05001 	mov	r5, r1
    a12c:	e3510007 	cmp	r1, #7
    a130:	9350001f 	cmpls	r0, #31
    a134:	88bd8070 	pophi	{r4, r5, r6, pc}
    a138:	e59f30b0 	ldr	r3, [pc, #176]	; a1f0 <gpio_set_function+0xd0>
    a13c:	e0832093 	umull	r2, r3, r3, r0
    a140:	e1a031a3 	lsr	r3, r3, #3
    a144:	e3530005 	cmp	r3, #5
    a148:	979ff103 	ldrls	pc, [pc, r3, lsl #2]
    a14c:	ea000017 	b	a1b0 <gpio_set_function+0x90>
    a150:	0000a168 	andeq	sl, r0, r8, ror #2
    a154:	0000a174 	andeq	sl, r0, r4, ror r1
    a158:	0000a180 	andeq	sl, r0, r0, lsl #3
    a15c:	0000a18c 	andeq	sl, r0, ip, lsl #3
    a160:	0000a198 	muleq	r0, r8, r1
    a164:	0000a1a4 	andeq	sl, r0, r4, lsr #3
    a168:	e59f3084 	ldr	r3, [pc, #132]	; a1f4 <gpio_set_function+0xd4>
    a16c:	e5936000 	ldr	r6, [r3]
    a170:	ea00000f 	b	a1b4 <gpio_set_function+0x94>
    a174:	e59f3078 	ldr	r3, [pc, #120]	; a1f4 <gpio_set_function+0xd4>
    a178:	e5936004 	ldr	r6, [r3, #4]
    a17c:	ea00000c 	b	a1b4 <gpio_set_function+0x94>
    a180:	e59f306c 	ldr	r3, [pc, #108]	; a1f4 <gpio_set_function+0xd4>
    a184:	e5936008 	ldr	r6, [r3, #8]
    a188:	ea000009 	b	a1b4 <gpio_set_function+0x94>
    a18c:	e59f3060 	ldr	r3, [pc, #96]	; a1f4 <gpio_set_function+0xd4>
    a190:	e593600c 	ldr	r6, [r3, #12]
    a194:	ea000006 	b	a1b4 <gpio_set_function+0x94>
    a198:	e59f3054 	ldr	r3, [pc, #84]	; a1f4 <gpio_set_function+0xd4>
    a19c:	e5936010 	ldr	r6, [r3, #16]
    a1a0:	ea000003 	b	a1b4 <gpio_set_function+0x94>
    a1a4:	e59f3048 	ldr	r3, [pc, #72]	; a1f4 <gpio_set_function+0xd4>
    a1a8:	e5936014 	ldr	r6, [r3, #20]
    a1ac:	ea000000 	b	a1b4 <gpio_set_function+0x94>
    a1b0:	e3a06000 	mov	r6, #0
    a1b4:	e1a00006 	mov	r0, r6
    a1b8:	eb0001c3 	bl	a8cc <get32>
    a1bc:	e59f302c 	ldr	r3, [pc, #44]	; a1f0 <gpio_set_function+0xd0>
    a1c0:	e0832493 	umull	r2, r3, r3, r4
    a1c4:	e1a031a3 	lsr	r3, r3, #3
    a1c8:	e0833103 	add	r3, r3, r3, lsl #2
    a1cc:	e1a03083 	lsl	r3, r3, #1
    a1d0:	e0633004 	rsb	r3, r3, r4
    a1d4:	e0833083 	add	r3, r3, r3, lsl #1
    a1d8:	e3a01007 	mov	r1, #7
    a1dc:	e1c01311 	bic	r1, r0, r1, lsl r3
    a1e0:	e1a00006 	mov	r0, r6
    a1e4:	e1811315 	orr	r1, r1, r5, lsl r3
    a1e8:	eb0001ab 	bl	a89c <put32>
    a1ec:	e8bd8070 	pop	{r4, r5, r6, pc}
    a1f0:	cccccccd 	stclgt	12, cr12, [ip], {205}	; 0xcd
    a1f4:	0000ab10 	andeq	sl, r0, r0, lsl fp

0000a1f8 <gpio_toggle>:
    a1f8:	e92d4008 	push	{r3, lr}
    a1fc:	e350001f 	cmp	r0, #31
    a200:	88bd8008 	pophi	{r3, pc}
    a204:	959f3020 	ldrls	r3, [pc, #32]	; a22c <gpio_toggle+0x34>
    a208:	95932018 	ldrls	r2, [r3, #24]
    a20c:	859f3018 	ldrhi	r3, [pc, #24]	; a22c <gpio_toggle+0x34>
    a210:	8593201c 	ldrhi	r2, [r3, #28]
    a214:	e200301f 	and	r3, r0, #31
    a218:	e1a00002 	mov	r0, r2
    a21c:	e3a01001 	mov	r1, #1
    a220:	e1a01311 	lsl	r1, r1, r3
    a224:	eb00019c 	bl	a89c <put32>
    a228:	e8bd8008 	pop	{r3, pc}
    a22c:	0000ab10 	andeq	sl, r0, r0, lsl fp

0000a230 <is_gpio_int>:
    a230:	e92d4008 	push	{r3, lr}
    a234:	e59f301c 	ldr	r3, [pc, #28]	; a258 <is_gpio_int+0x28>
    a238:	e5930030 	ldr	r0, [r3, #48]	; 0x30
    a23c:	eb0001a2 	bl	a8cc <get32>
    a240:	e3500000 	cmp	r0, #0
    a244:	0a000001 	beq	a250 <is_gpio_int+0x20>
    a248:	e3a00001 	mov	r0, #1
    a24c:	e8bd8008 	pop	{r3, pc}
    a250:	e3a00000 	mov	r0, #0
    a254:	e8bd8008 	pop	{r3, pc}
    a258:	0000ab10 	andeq	sl, r0, r0, lsl fp

0000a25c <gpio_int_rising_edge>:
    a25c:	e92d4038 	push	{r3, r4, r5, lr}
    a260:	e1a04000 	mov	r4, r0
    a264:	e350001f 	cmp	r0, #31
    a268:	88bd8038 	pophi	{r3, r4, r5, pc}
    a26c:	eb000184 	bl	a884 <dev_barrier>
    a270:	e354001f 	cmp	r4, #31
    a274:	8a000007 	bhi	a298 <gpio_int_rising_edge+0x3c>
    a278:	e59f505c 	ldr	r5, [pc, #92]	; a2dc <gpio_int_rising_edge+0x80>
    a27c:	e5950034 	ldr	r0, [r5, #52]	; 0x34
    a280:	eb000191 	bl	a8cc <get32>
    a284:	e3a01001 	mov	r1, #1
    a288:	e1801411 	orr	r1, r0, r1, lsl r4
    a28c:	e5950034 	ldr	r0, [r5, #52]	; 0x34
    a290:	eb000181 	bl	a89c <put32>
    a294:	ea000007 	b	a2b8 <gpio_int_rising_edge+0x5c>
    a298:	e59f503c 	ldr	r5, [pc, #60]	; a2dc <gpio_int_rising_edge+0x80>
    a29c:	e5950038 	ldr	r0, [r5, #56]	; 0x38
    a2a0:	eb000189 	bl	a8cc <get32>
    a2a4:	e204401f 	and	r4, r4, #31
    a2a8:	e3a01001 	mov	r1, #1
    a2ac:	e1801411 	orr	r1, r0, r1, lsl r4
    a2b0:	e5950038 	ldr	r0, [r5, #56]	; 0x38
    a2b4:	eb000178 	bl	a89c <put32>
    a2b8:	eb000171 	bl	a884 <dev_barrier>
    a2bc:	e59f4018 	ldr	r4, [pc, #24]	; a2dc <gpio_int_rising_edge+0x80>
    a2c0:	e594003c 	ldr	r0, [r4, #60]	; 0x3c
    a2c4:	eb000180 	bl	a8cc <get32>
    a2c8:	e3801802 	orr	r1, r0, #131072	; 0x20000
    a2cc:	e594003c 	ldr	r0, [r4, #60]	; 0x3c
    a2d0:	eb000171 	bl	a89c <put32>
    a2d4:	eb00016a 	bl	a884 <dev_barrier>
    a2d8:	e8bd8038 	pop	{r3, r4, r5, pc}
    a2dc:	0000ab10 	andeq	sl, r0, r0, lsl fp

0000a2e0 <gpio_int_falling_edge>:
    a2e0:	e92d4038 	push	{r3, r4, r5, lr}
    a2e4:	e1a04000 	mov	r4, r0
    a2e8:	e350001f 	cmp	r0, #31
    a2ec:	88bd8038 	pophi	{r3, r4, r5, pc}
    a2f0:	eb000163 	bl	a884 <dev_barrier>
    a2f4:	e354001f 	cmp	r4, #31
    a2f8:	8a000007 	bhi	a31c <gpio_int_falling_edge+0x3c>
    a2fc:	e59f505c 	ldr	r5, [pc, #92]	; a360 <gpio_int_falling_edge+0x80>
    a300:	e5950040 	ldr	r0, [r5, #64]	; 0x40
    a304:	eb000170 	bl	a8cc <get32>
    a308:	e3a01001 	mov	r1, #1
    a30c:	e1801411 	orr	r1, r0, r1, lsl r4
    a310:	e5950040 	ldr	r0, [r5, #64]	; 0x40
    a314:	eb000160 	bl	a89c <put32>
    a318:	ea000007 	b	a33c <gpio_int_falling_edge+0x5c>
    a31c:	e59f503c 	ldr	r5, [pc, #60]	; a360 <gpio_int_falling_edge+0x80>
    a320:	e5950044 	ldr	r0, [r5, #68]	; 0x44
    a324:	eb000168 	bl	a8cc <get32>
    a328:	e204401f 	and	r4, r4, #31
    a32c:	e3a01001 	mov	r1, #1
    a330:	e1801411 	orr	r1, r0, r1, lsl r4
    a334:	e5950044 	ldr	r0, [r5, #68]	; 0x44
    a338:	eb000157 	bl	a89c <put32>
    a33c:	eb000150 	bl	a884 <dev_barrier>
    a340:	e59f4018 	ldr	r4, [pc, #24]	; a360 <gpio_int_falling_edge+0x80>
    a344:	e594003c 	ldr	r0, [r4, #60]	; 0x3c
    a348:	eb00015f 	bl	a8cc <get32>
    a34c:	e3801601 	orr	r1, r0, #1048576	; 0x100000
    a350:	e594003c 	ldr	r0, [r4, #60]	; 0x3c
    a354:	eb000150 	bl	a89c <put32>
    a358:	eb000149 	bl	a884 <dev_barrier>
    a35c:	e8bd8038 	pop	{r3, r4, r5, pc}
    a360:	0000ab10 	andeq	sl, r0, r0, lsl fp

0000a364 <gpio_event_detected>:
    a364:	e92d4010 	push	{r4, lr}
    a368:	e1a04000 	mov	r4, r0
    a36c:	e350001f 	cmp	r0, #31
    a370:	8a000019 	bhi	a3dc <gpio_event_detected+0x78>
    a374:	eb000142 	bl	a884 <dev_barrier>
    a378:	e354001f 	cmp	r4, #31
    a37c:	8a000008 	bhi	a3a4 <gpio_event_detected+0x40>
    a380:	e59f305c 	ldr	r3, [pc, #92]	; a3e4 <gpio_event_detected+0x80>
    a384:	e5930048 	ldr	r0, [r3, #72]	; 0x48
    a388:	eb00014f 	bl	a8cc <get32>
    a38c:	e3a03001 	mov	r3, #1
    a390:	e0103413 	ands	r3, r0, r3, lsl r4
    a394:	0a00000d 	beq	a3d0 <gpio_event_detected+0x6c>
    a398:	eb000139 	bl	a884 <dev_barrier>
    a39c:	e3a00001 	mov	r0, #1
    a3a0:	e8bd8010 	pop	{r4, pc}
    a3a4:	e59f3038 	ldr	r3, [pc, #56]	; a3e4 <gpio_event_detected+0x80>
    a3a8:	e593004c 	ldr	r0, [r3, #76]	; 0x4c
    a3ac:	eb000146 	bl	a8cc <get32>
    a3b0:	e3a03001 	mov	r3, #1
    a3b4:	e0004413 	and	r4, r0, r3, lsl r4
    a3b8:	eb000131 	bl	a884 <dev_barrier>
    a3bc:	e3540000 	cmp	r4, #0
    a3c0:	0a000002 	beq	a3d0 <gpio_event_detected+0x6c>
    a3c4:	eb00012e 	bl	a884 <dev_barrier>
    a3c8:	e3a00001 	mov	r0, #1
    a3cc:	e8bd8010 	pop	{r4, pc}
    a3d0:	eb00012b 	bl	a884 <dev_barrier>
    a3d4:	e3a00000 	mov	r0, #0
    a3d8:	e8bd8010 	pop	{r4, pc}
    a3dc:	e3e00000 	mvn	r0, #0
    a3e0:	e8bd8010 	pop	{r4, pc}
    a3e4:	0000ab10 	andeq	sl, r0, r0, lsl fp

0000a3e8 <gpio_event_clear>:
    a3e8:	e92d4010 	push	{r4, lr}
    a3ec:	e1a04000 	mov	r4, r0
    a3f0:	e350001f 	cmp	r0, #31
    a3f4:	88bd8010 	pophi	{r4, pc}
    a3f8:	eb000121 	bl	a884 <dev_barrier>
    a3fc:	e354001f 	cmp	r4, #31
    a400:	8a000005 	bhi	a41c <gpio_event_clear+0x34>
    a404:	e59f3030 	ldr	r3, [pc, #48]	; a43c <gpio_event_clear+0x54>
    a408:	e5930048 	ldr	r0, [r3, #72]	; 0x48
    a40c:	e3a01001 	mov	r1, #1
    a410:	e1a01411 	lsl	r1, r1, r4
    a414:	eb000120 	bl	a89c <put32>
    a418:	ea000005 	b	a434 <gpio_event_clear+0x4c>
    a41c:	e204401f 	and	r4, r4, #31
    a420:	e59f3014 	ldr	r3, [pc, #20]	; a43c <gpio_event_clear+0x54>
    a424:	e593004c 	ldr	r0, [r3, #76]	; 0x4c
    a428:	e3a01001 	mov	r1, #1
    a42c:	e1a01411 	lsl	r1, r1, r4
    a430:	eb000119 	bl	a89c <put32>
    a434:	eb000112 	bl	a884 <dev_barrier>
    a438:	e8bd8010 	pop	{r4, pc}
    a43c:	0000ab10 	andeq	sl, r0, r0, lsl fp

0000a440 <kmalloc>:
    a440:	e92d4070 	push	{r4, r5, r6, lr}
    a444:	e59f3058 	ldr	r3, [pc, #88]	; a4a4 <kmalloc+0x64>
    a448:	e5933000 	ldr	r3, [r3]
    a44c:	e3530000 	cmp	r3, #0
    a450:	1a000006 	bne	a470 <kmalloc+0x30>
    a454:	ebfffce6 	bl	97f4 <rpi_reset_putc>
    a458:	e59f0048 	ldr	r0, [pc, #72]	; a4a8 <kmalloc+0x68>
    a45c:	e59f1048 	ldr	r1, [pc, #72]	; a4ac <kmalloc+0x6c>
    a460:	e59f2048 	ldr	r2, [pc, #72]	; a4b0 <kmalloc+0x70>
    a464:	e3a0301a 	mov	r3, #26
    a468:	ebfffcc6 	bl	9788 <printk>
    a46c:	ebfffe35 	bl	9d48 <clean_reboot>
    a470:	e59f402c 	ldr	r4, [pc, #44]	; a4a4 <kmalloc+0x64>
    a474:	e5945004 	ldr	r5, [r4, #4]
    a478:	e2806007 	add	r6, r0, #7
    a47c:	e3c66007 	bic	r6, r6, #7
    a480:	e1a00005 	mov	r0, r5
    a484:	e3a01000 	mov	r1, #0
    a488:	e1a02006 	mov	r2, r6
    a48c:	eb000150 	bl	a9d4 <memset>
    a490:	e5943004 	ldr	r3, [r4, #4]
    a494:	e0836006 	add	r6, r3, r6
    a498:	e5846004 	str	r6, [r4, #4]
    a49c:	e1a00005 	mov	r0, r5
    a4a0:	e8bd8070 	pop	{r4, r5, r6, pc}
    a4a4:	0000bcd8 	ldrdeq	fp, [r0], -r8
    a4a8:	0000b51c 	andeq	fp, r0, ip, lsl r5
    a4ac:	0000b55c 	andeq	fp, r0, ip, asr r5
    a4b0:	0000b4dc 	ldrdeq	fp, [r0], -ip

0000a4b4 <kmalloc_aligned>:
    a4b4:	e92d4008 	push	{r3, lr}
    a4b8:	e59f307c 	ldr	r3, [pc, #124]	; a53c <kmalloc_aligned+0x88>
    a4bc:	e5933000 	ldr	r3, [r3]
    a4c0:	e3530000 	cmp	r3, #0
    a4c4:	1a000006 	bne	a4e4 <kmalloc_aligned+0x30>
    a4c8:	ebfffcc9 	bl	97f4 <rpi_reset_putc>
    a4cc:	e59f006c 	ldr	r0, [pc, #108]	; a540 <kmalloc_aligned+0x8c>
    a4d0:	e59f106c 	ldr	r1, [pc, #108]	; a544 <kmalloc_aligned+0x90>
    a4d4:	e59f206c 	ldr	r2, [pc, #108]	; a548 <kmalloc_aligned+0x94>
    a4d8:	e3a03028 	mov	r3, #40	; 0x28
    a4dc:	ebfffca9 	bl	9788 <printk>
    a4e0:	ebfffe18 	bl	9d48 <clean_reboot>
    a4e4:	e3510008 	cmp	r1, #8
    a4e8:	8a000001 	bhi	a4f4 <kmalloc_aligned+0x40>
    a4ec:	ebffffd3 	bl	a440 <kmalloc>
    a4f0:	e8bd8008 	pop	{r3, pc}
    a4f4:	e3110007 	tst	r1, #7
    a4f8:	0a000006 	beq	a518 <kmalloc_aligned+0x64>
    a4fc:	ebfffcbc 	bl	97f4 <rpi_reset_putc>
    a500:	e59f0044 	ldr	r0, [pc, #68]	; a54c <kmalloc_aligned+0x98>
    a504:	e59f1038 	ldr	r1, [pc, #56]	; a544 <kmalloc_aligned+0x90>
    a508:	e59f2038 	ldr	r2, [pc, #56]	; a548 <kmalloc_aligned+0x94>
    a50c:	e3a0302c 	mov	r3, #44	; 0x2c
    a510:	ebfffc9c 	bl	9788 <printk>
    a514:	ebfffe0b 	bl	9d48 <clean_reboot>
    a518:	e59f301c 	ldr	r3, [pc, #28]	; a53c <kmalloc_aligned+0x88>
    a51c:	e5932004 	ldr	r2, [r3, #4]
    a520:	e0812002 	add	r2, r1, r2
    a524:	e2422001 	sub	r2, r2, #1
    a528:	e2611000 	rsb	r1, r1, #0
    a52c:	e0021001 	and	r1, r2, r1
    a530:	e5831004 	str	r1, [r3, #4]
    a534:	ebffffc1 	bl	a440 <kmalloc>
    a538:	e8bd8008 	pop	{r3, pc}
    a53c:	0000bcd8 	ldrdeq	fp, [r0], -r8
    a540:	0000b51c 	andeq	fp, r0, ip, lsl r5
    a544:	0000b55c 	andeq	fp, r0, ip, asr r5
    a548:	0000b4e4 	andeq	fp, r0, r4, ror #9
    a54c:	0000b570 	andeq	fp, r0, r0, ror r5

0000a550 <kmalloc_init>:
    a550:	e92d4008 	push	{r3, lr}
    a554:	e59f303c 	ldr	r3, [pc, #60]	; a598 <kmalloc_init+0x48>
    a558:	e5933000 	ldr	r3, [r3]
    a55c:	e3530000 	cmp	r3, #0
    a560:	0a000006 	beq	a580 <kmalloc_init+0x30>
    a564:	ebfffca2 	bl	97f4 <rpi_reset_putc>
    a568:	e59f002c 	ldr	r0, [pc, #44]	; a59c <kmalloc_init+0x4c>
    a56c:	e59f102c 	ldr	r1, [pc, #44]	; a5a0 <kmalloc_init+0x50>
    a570:	e59f202c 	ldr	r2, [pc, #44]	; a5a4 <kmalloc_init+0x54>
    a574:	e3a0303d 	mov	r3, #61	; 0x3d
    a578:	ebfffc82 	bl	9788 <printk>
    a57c:	ebfffdf1 	bl	9d48 <clean_reboot>
    a580:	e59f3010 	ldr	r3, [pc, #16]	; a598 <kmalloc_init+0x48>
    a584:	e3a02001 	mov	r2, #1
    a588:	e5832000 	str	r2, [r3]
    a58c:	e59f2014 	ldr	r2, [pc, #20]	; a5a8 <kmalloc_init+0x58>
    a590:	e5832004 	str	r2, [r3, #4]
    a594:	e8bd8008 	pop	{r3, pc}
    a598:	0000bcd8 	ldrdeq	fp, [r0], -r8
    a59c:	0000b5c8 	andeq	fp, r0, r8, asr #11
    a5a0:	0000b55c 	andeq	fp, r0, ip, asr r5
    a5a4:	0000b4f4 	strdeq	fp, [r0], -r4
    a5a8:	0000bce8 	andeq	fp, r0, r8, ror #25

0000a5ac <kfree_all>:
    a5ac:	e59f2008 	ldr	r2, [pc, #8]	; a5bc <kfree_all+0x10>
    a5b0:	e59f3008 	ldr	r3, [pc, #8]	; a5c0 <kfree_all+0x14>
    a5b4:	e5832004 	str	r2, [r3, #4]
    a5b8:	e12fff1e 	bx	lr
    a5bc:	0000bce8 	andeq	fp, r0, r8, ror #25
    a5c0:	0000bcd8 	ldrdeq	fp, [r0], -r8

0000a5c4 <kmalloc_heap_ptr>:
    a5c4:	e59f3004 	ldr	r3, [pc, #4]	; a5d0 <kmalloc_heap_ptr+0xc>
    a5c8:	e5930004 	ldr	r0, [r3, #4]
    a5cc:	e12fff1e 	bx	lr
    a5d0:	0000bcd8 	ldrdeq	fp, [r0], -r8

0000a5d4 <kmalloc_init_set_start>:
    a5d4:	e92d4008 	push	{r3, lr}
    a5d8:	e59f3038 	ldr	r3, [pc, #56]	; a618 <kmalloc_init_set_start+0x44>
    a5dc:	e5933000 	ldr	r3, [r3]
    a5e0:	e3530000 	cmp	r3, #0
    a5e4:	0a000006 	beq	a604 <kmalloc_init_set_start+0x30>
    a5e8:	ebfffc81 	bl	97f4 <rpi_reset_putc>
    a5ec:	e59f0028 	ldr	r0, [pc, #40]	; a61c <kmalloc_init_set_start+0x48>
    a5f0:	e59f1028 	ldr	r1, [pc, #40]	; a620 <kmalloc_init_set_start+0x4c>
    a5f4:	e59f2028 	ldr	r2, [pc, #40]	; a624 <kmalloc_init_set_start+0x50>
    a5f8:	e3a03054 	mov	r3, #84	; 0x54
    a5fc:	ebfffc61 	bl	9788 <printk>
    a600:	ebfffdd0 	bl	9d48 <clean_reboot>
    a604:	e59f300c 	ldr	r3, [pc, #12]	; a618 <kmalloc_init_set_start+0x44>
    a608:	e3a02001 	mov	r2, #1
    a60c:	e5832000 	str	r2, [r3]
    a610:	e5830004 	str	r0, [r3, #4]
    a614:	e8bd8008 	pop	{r3, pc}
    a618:	0000bcd8 	ldrdeq	fp, [r0], -r8
    a61c:	0000b5c8 	andeq	fp, r0, r8, asr #11
    a620:	0000b55c 	andeq	fp, r0, ip, asr r5
    a624:	0000b504 	andeq	fp, r0, r4, lsl #10

0000a628 <uart_init>:
    a628:	e92d4038 	push	{r3, r4, r5, lr}
    a62c:	eb000094 	bl	a884 <dev_barrier>
    a630:	e3a0000e 	mov	r0, #14
    a634:	e3a01002 	mov	r1, #2
    a638:	ebfffeb8 	bl	a120 <gpio_set_function>
    a63c:	e3a0000f 	mov	r0, #15
    a640:	e3a01002 	mov	r1, #2
    a644:	ebfffeb5 	bl	a120 <gpio_set_function>
    a648:	eb00008d 	bl	a884 <dev_barrier>
    a64c:	e59f4068 	ldr	r4, [pc, #104]	; a6bc <uart_init+0x94>
    a650:	e5945000 	ldr	r5, [r4]
    a654:	e1a00005 	mov	r0, r5
    a658:	eb00009b 	bl	a8cc <get32>
    a65c:	e3801001 	orr	r1, r0, #1
    a660:	e1a00005 	mov	r0, r5
    a664:	eb00008c 	bl	a89c <put32>
    a668:	eb000085 	bl	a884 <dev_barrier>
    a66c:	e5940004 	ldr	r0, [r4, #4]
    a670:	e3a01000 	mov	r1, #0
    a674:	eb000088 	bl	a89c <put32>
    a678:	e5940008 	ldr	r0, [r4, #8]
    a67c:	e3a01000 	mov	r1, #0
    a680:	eb000085 	bl	a89c <put32>
    a684:	e594000c 	ldr	r0, [r4, #12]
    a688:	e3a01006 	mov	r1, #6
    a68c:	eb000082 	bl	a89c <put32>
    a690:	e5940010 	ldr	r0, [r4, #16]
    a694:	e3a01003 	mov	r1, #3
    a698:	eb00007f 	bl	a89c <put32>
    a69c:	e5940014 	ldr	r0, [r4, #20]
    a6a0:	e59f1018 	ldr	r1, [pc, #24]	; a6c0 <uart_init+0x98>
    a6a4:	eb00007c 	bl	a89c <put32>
    a6a8:	e5940004 	ldr	r0, [r4, #4]
    a6ac:	e3a01003 	mov	r1, #3
    a6b0:	eb000079 	bl	a89c <put32>
    a6b4:	eb000072 	bl	a884 <dev_barrier>
    a6b8:	e8bd8038 	pop	{r3, r4, r5, pc}
    a6bc:	0000ab70 	andeq	sl, r0, r0, ror fp
    a6c0:	0000010e 	andeq	r0, r0, lr, lsl #2

0000a6c4 <uart_can_getc>:
    a6c4:	e92d4008 	push	{r3, lr}
    a6c8:	e59f300c 	ldr	r3, [pc, #12]	; a6dc <uart_can_getc+0x18>
    a6cc:	e5930018 	ldr	r0, [r3, #24]
    a6d0:	eb00007d 	bl	a8cc <get32>
    a6d4:	e2000001 	and	r0, r0, #1
    a6d8:	e8bd8008 	pop	{r3, pc}
    a6dc:	0000ab70 	andeq	sl, r0, r0, ror fp

0000a6e0 <uart_getc>:
    a6e0:	e92d4008 	push	{r3, lr}
    a6e4:	ebfffff6 	bl	a6c4 <uart_can_getc>
    a6e8:	e3500000 	cmp	r0, #0
    a6ec:	0afffffc 	beq	a6e4 <uart_getc+0x4>
    a6f0:	e59f300c 	ldr	r3, [pc, #12]	; a704 <uart_getc+0x24>
    a6f4:	e593001c 	ldr	r0, [r3, #28]
    a6f8:	eb000073 	bl	a8cc <get32>
    a6fc:	e6ef0070 	uxtb	r0, r0
    a700:	e8bd8008 	pop	{r3, pc}
    a704:	0000ab70 	andeq	sl, r0, r0, ror fp

0000a708 <uart_can_putc>:
    a708:	e92d4008 	push	{r3, lr}
    a70c:	e59f300c 	ldr	r3, [pc, #12]	; a720 <uart_can_putc+0x18>
    a710:	e5930018 	ldr	r0, [r3, #24]
    a714:	eb00006c 	bl	a8cc <get32>
    a718:	e2000020 	and	r0, r0, #32
    a71c:	e8bd8008 	pop	{r3, pc}
    a720:	0000ab70 	andeq	sl, r0, r0, ror fp

0000a724 <uart_putc>:
    a724:	e92d4010 	push	{r4, lr}
    a728:	e1a04000 	mov	r4, r0
    a72c:	ebfffff5 	bl	a708 <uart_can_putc>
    a730:	e3500000 	cmp	r0, #0
    a734:	0afffffc 	beq	a72c <uart_putc+0x8>
    a738:	e59f300c 	ldr	r3, [pc, #12]	; a74c <uart_putc+0x28>
    a73c:	e593001c 	ldr	r0, [r3, #28]
    a740:	e1a01004 	mov	r1, r4
    a744:	eb000054 	bl	a89c <put32>
    a748:	e8bd8010 	pop	{r4, pc}
    a74c:	0000ab70 	andeq	sl, r0, r0, ror fp

0000a750 <uart_has_data>:
    a750:	e92d4008 	push	{r3, lr}
    a754:	ebffffda 	bl	a6c4 <uart_can_getc>
    a758:	e8bd8008 	pop	{r3, pc}

0000a75c <uart_getc_async>:
    a75c:	e92d4008 	push	{r3, lr}
    a760:	ebfffffa 	bl	a750 <uart_has_data>
    a764:	e3500000 	cmp	r0, #0
    a768:	0a000001 	beq	a774 <uart_getc_async+0x18>
    a76c:	ebffffdb 	bl	a6e0 <uart_getc>
    a770:	e8bd8008 	pop	{r3, pc}
    a774:	e3e00000 	mvn	r0, #0
    a778:	e8bd8008 	pop	{r3, pc}

0000a77c <int_init>:
    a77c:	e92d4008 	push	{r3, lr}
    a780:	e59f004c 	ldr	r0, [pc, #76]	; a7d4 <int_init+0x58>
    a784:	e3e01000 	mvn	r1, #0
    a788:	eb000045 	bl	a8a4 <PUT32>
    a78c:	e59f0044 	ldr	r0, [pc, #68]	; a7d8 <int_init+0x5c>
    a790:	e3e01000 	mvn	r1, #0
    a794:	eb000042 	bl	a8a4 <PUT32>
    a798:	eb000039 	bl	a884 <dev_barrier>
    a79c:	e59f3038 	ldr	r3, [pc, #56]	; a7dc <int_init+0x60>
    a7a0:	e59f0038 	ldr	r0, [pc, #56]	; a7e0 <int_init+0x64>
    a7a4:	e0630000 	rsb	r0, r3, r0
    a7a8:	e1a00140 	asr	r0, r0, #2
    a7ac:	e3a03000 	mov	r3, #0
    a7b0:	e59fc024 	ldr	ip, [pc, #36]	; a7dc <int_init+0x60>
    a7b4:	ea000003 	b	a7c8 <int_init+0x4c>
    a7b8:	e1a02103 	lsl	r2, r3, #2
    a7bc:	e79c1103 	ldr	r1, [ip, r3, lsl #2]
    a7c0:	e5821000 	str	r1, [r2]
    a7c4:	e2833001 	add	r3, r3, #1
    a7c8:	e1530000 	cmp	r3, r0
    a7cc:	3afffff9 	bcc	a7b8 <int_init+0x3c>
    a7d0:	e8bd8008 	pop	{r3, pc}
    a7d4:	2000b21c 	andcs	fp, r0, ip, lsl r2
    a7d8:	2000b220 	andcs	fp, r0, r0, lsr #4
    a7dc:	0000a908 	andeq	sl, r0, r8, lsl #18
    a7e0:	0000a958 	andeq	sl, r0, r8, asr r9

0000a7e4 <fast_interrupt_vector>:
    a7e4:	e52de004 	push	{lr}		; (str lr, [sp, #-4]!)
    a7e8:	e24dd00c 	sub	sp, sp, #12
    a7ec:	e1a04000 	mov	r4, r0
    a7f0:	ebfffbff 	bl	97f4 <rpi_reset_putc>
    a7f4:	e59f301c 	ldr	r3, [pc, #28]	; a818 <fast_interrupt_vector+0x34>
    a7f8:	e58d3000 	str	r3, [sp]
    a7fc:	e58d4004 	str	r4, [sp, #4]
    a800:	e59f0014 	ldr	r0, [pc, #20]	; a81c <fast_interrupt_vector+0x38>
    a804:	e59f1014 	ldr	r1, [pc, #20]	; a820 <fast_interrupt_vector+0x3c>
    a808:	e59f2014 	ldr	r2, [pc, #20]	; a824 <fast_interrupt_vector+0x40>
    a80c:	e3a0302f 	mov	r3, #47	; 0x2f
    a810:	ebfffbdc 	bl	9788 <printk>
    a814:	ebfffd4b 	bl	9d48 <clean_reboot>
    a818:	0000b67c 	andeq	fp, r0, ip, ror r6
    a81c:	0000b620 	andeq	fp, r0, r0, lsr #12
    a820:	0000b65c 	andeq	fp, r0, ip, asr r6
    a824:	0000b608 	andeq	fp, r0, r8, lsl #12

0000a828 <timer_check_offsets>:
    a828:	e52de004 	push	{lr}		; (str lr, [sp, #-4]!)
    a82c:	e24dd01c 	sub	sp, sp, #28
    a830:	e59f0008 	ldr	r0, [pc, #8]	; a840 <timer_check_offsets+0x18>
    a834:	ebfffbd3 	bl	9788 <printk>
    a838:	e28dd01c 	add	sp, sp, #28
    a83c:	e49df004 	pop	{pc}		; (ldr pc, [sp], #4)
    a840:	0000b72c 	andeq	fp, r0, ip, lsr #14

0000a844 <timer_interrupt_init>:
    a844:	e92d4010 	push	{r4, lr}
    a848:	e1a04000 	mov	r4, r0
    a84c:	ebfffff5 	bl	a828 <timer_check_offsets>
    a850:	e59f0020 	ldr	r0, [pc, #32]	; a878 <timer_interrupt_init+0x34>
    a854:	e3a01001 	mov	r1, #1
    a858:	eb000011 	bl	a8a4 <PUT32>
    a85c:	e59f0018 	ldr	r0, [pc, #24]	; a87c <timer_interrupt_init+0x38>
    a860:	e1a01004 	mov	r1, r4
    a864:	eb00000e 	bl	a8a4 <PUT32>
    a868:	e59f0010 	ldr	r0, [pc, #16]	; a880 <timer_interrupt_init+0x3c>
    a86c:	e3a010a6 	mov	r1, #166	; 0xa6
    a870:	eb00000b 	bl	a8a4 <PUT32>
    a874:	e8bd8010 	pop	{r4, pc}
    a878:	2000b218 	andcs	fp, r0, r8, lsl r2
    a87c:	2000b400 	andcs	fp, r0, r0, lsl #8
    a880:	2000b408 	andcs	fp, r0, r8, lsl #8

0000a884 <dev_barrier>:
    a884:	ea000002 	b	a894 <dsb>

0000a888 <dmb>:
    a888:	e3a00000 	mov	r0, #0
    a88c:	ee070fba 	mcr	15, 0, r0, cr7, cr10, {5}
    a890:	e12fff1e 	bx	lr

0000a894 <dsb>:
    a894:	ee070f9a 	mcr	15, 0, r0, cr7, cr10, {4}
    a898:	e12fff1e 	bx	lr

0000a89c <put32>:
    a89c:	e5801000 	str	r1, [r0]
    a8a0:	e12fff1e 	bx	lr

0000a8a4 <PUT32>:
    a8a4:	e5801000 	str	r1, [r0]
    a8a8:	e12fff1e 	bx	lr

0000a8ac <put16>:
    a8ac:	e1c010b0 	strh	r1, [r0]
    a8b0:	e12fff1e 	bx	lr

0000a8b4 <PUT16>:
    a8b4:	e1c010b0 	strh	r1, [r0]
    a8b8:	e12fff1e 	bx	lr

0000a8bc <put8>:
    a8bc:	e5c01000 	strb	r1, [r0]
    a8c0:	e12fff1e 	bx	lr

0000a8c4 <PUT8>:
    a8c4:	e5c01000 	strb	r1, [r0]
    a8c8:	e12fff1e 	bx	lr

0000a8cc <get32>:
    a8cc:	e5900000 	ldr	r0, [r0]
    a8d0:	e12fff1e 	bx	lr

0000a8d4 <GET32>:
    a8d4:	e5900000 	ldr	r0, [r0]
    a8d8:	e12fff1e 	bx	lr

0000a8dc <GETPC>:
    a8dc:	e1a0000e 	mov	r0, lr
    a8e0:	e12fff1e 	bx	lr

0000a8e4 <dummy>:
    a8e4:	e12fff1e 	bx	lr

0000a8e8 <system_enable_interrupts>:
    a8e8:	e10f0000 	mrs	r0, CPSR
    a8ec:	e3c00080 	bic	r0, r0, #128	; 0x80
    a8f0:	e121f000 	msr	CPSR_c, r0
    a8f4:	e12fff1e 	bx	lr

0000a8f8 <system_disable_interrupts>:
    a8f8:	e10f0000 	mrs	r0, CPSR
    a8fc:	e3800080 	orr	r0, r0, #128	; 0x80
    a900:	e121f000 	msr	CPSR_c, r0
    a904:	e12fff1e 	bx	lr

0000a908 <_interrupt_table>:
    a908:	e59ff030 	ldr	pc, [pc, #48]	; a940 <_reset_asm>
    a90c:	e59ff030 	ldr	pc, [pc, #48]	; a944 <_undefined_instruction_asm>
    a910:	e59ff030 	ldr	pc, [pc, #48]	; a948 <_software_interrupt_asm>
    a914:	e59ff030 	ldr	pc, [pc, #48]	; a94c <_prefetch_abort_asm>
    a918:	e59ff030 	ldr	pc, [pc, #48]	; a950 <_data_abort_asm>
    a91c:	e59ff01c 	ldr	pc, [pc, #28]	; a940 <_reset_asm>
    a920:	e59ff02c 	ldr	pc, [pc, #44]	; a954 <_interrupt_asm>

0000a924 <fast_interrupt_asm>:
    a924:	e24ee004 	sub	lr, lr, #4
    a928:	e52de004 	push	{lr}		; (str lr, [sp, #-4]!)
    a92c:	e92d1fff 	push	{r0, r1, r2, r3, r4, r5, r6, r7, r8, r9, sl, fp, ip}
    a930:	e1a0000e 	mov	r0, lr
    a934:	ebffffaa 	bl	a7e4 <fast_interrupt_vector>
    a938:	e8bd1fff 	pop	{r0, r1, r2, r3, r4, r5, r6, r7, r8, r9, sl, fp, ip}
    a93c:	e8fd8000 	ldm	sp!, {pc}^

0000a940 <_reset_asm>:
    a940:	0000a9a0 	andeq	sl, r0, r0, lsr #19

0000a944 <_undefined_instruction_asm>:
    a944:	0000a9a8 	andeq	sl, r0, r8, lsr #19

0000a948 <_software_interrupt_asm>:
    a948:	0000a974 	andeq	sl, r0, r4, ror r9

0000a94c <_prefetch_abort_asm>:
    a94c:	0000a9b0 			; <UNDEFINED> instruction: 0x0000a9b0

0000a950 <_data_abort_asm>:
    a950:	0000a9b8 			; <UNDEFINED> instruction: 0x0000a9b8

0000a954 <_interrupt_asm>:
    a954:	0000a958 	andeq	sl, r0, r8, asr r9

0000a958 <_interrupt_table_end>:
    a958:	e3a0d409 	mov	sp, #150994944	; 0x9000000
    a95c:	e24ee004 	sub	lr, lr, #4
    a960:	e92d5fff 	push	{r0, r1, r2, r3, r4, r5, r6, r7, r8, r9, sl, fp, ip, lr}
    a964:	e1a0000e 	mov	r0, lr
    a968:	ebfffa1f 	bl	91ec <interrupt_vector>
    a96c:	e8bd5fff 	pop	{r0, r1, r2, r3, r4, r5, r6, r7, r8, r9, sl, fp, ip, lr}
    a970:	e1b0f00e 	movs	pc, lr

0000a974 <software_interrupt_asm>:
    a974:	e52de004 	push	{lr}		; (str lr, [sp, #-4]!)
    a978:	e92d1ffe 	push	{r1, r2, r3, r4, r5, r6, r7, r8, r9, sl, fp, ip}
    a97c:	e24ee004 	sub	lr, lr, #4
    a980:	e1a0200e 	mov	r2, lr
    a984:	e1a01000 	mov	r1, r0
    a988:	e1a0000e 	mov	r0, lr
    a98c:	eb000003 	bl	a9a0 <reset_asm>
    a990:	e8bd1ffe 	pop	{r1, r2, r3, r4, r5, r6, r7, r8, r9, sl, fp, ip}
    a994:	e49de004 	pop	{lr}		; (ldr lr, [sp], #4)
    a998:	e8fd8000 	ldm	sp!, {pc}^
    a99c:	e1b0f00e 	movs	pc, lr

0000a9a0 <reset_asm>:
    a9a0:	e24ee004 	sub	lr, lr, #4
    a9a4:	eb000034 	bl	aa7c <reset_vector>

0000a9a8 <undefined_instruction_asm>:
    a9a8:	e24ee004 	sub	lr, lr, #4
    a9ac:	eb000043 	bl	aac0 <undefined_instruction_vector>

0000a9b0 <prefetch_abort_asm>:
    a9b0:	e24ee004 	sub	lr, lr, #4
    a9b4:	eb00001f 	bl	aa38 <prefetch_abort_vector>

0000a9b8 <data_abort_asm>:
    a9b8:	e3a0d409 	mov	sp, #150994944	; 0x9000000
    a9bc:	e24ee008 	sub	lr, lr, #8
    a9c0:	e92d5fff 	push	{r0, r1, r2, r3, r4, r5, r6, r7, r8, r9, sl, fp, ip, lr}
    a9c4:	e1a0000e 	mov	r0, lr
    a9c8:	eb000009 	bl	a9f4 <data_abort_vector>
    a9cc:	e8bd5fff 	pop	{r0, r1, r2, r3, r4, r5, r6, r7, r8, r9, sl, fp, ip, lr}
    a9d0:	e1b0f00e 	movs	pc, lr

0000a9d4 <memset>:
    a9d4:	e0802002 	add	r2, r0, r2
    a9d8:	e1a03000 	mov	r3, r0
    a9dc:	ea000001 	b	a9e8 <memset+0x14>
    a9e0:	e5c31000 	strb	r1, [r3]
    a9e4:	e2833001 	add	r3, r3, #1
    a9e8:	e1530002 	cmp	r3, r2
    a9ec:	3afffffb 	bcc	a9e0 <memset+0xc>
    a9f0:	e12fff1e 	bx	lr

0000a9f4 <data_abort_vector>:
    a9f4:	e52de004 	push	{lr}		; (str lr, [sp, #-4]!)
    a9f8:	e24dd00c 	sub	sp, sp, #12
    a9fc:	e1a04000 	mov	r4, r0
    aa00:	ebfffb7b 	bl	97f4 <rpi_reset_putc>
    aa04:	e59f301c 	ldr	r3, [pc, #28]	; aa28 <data_abort_vector+0x34>
    aa08:	e58d3000 	str	r3, [sp]
    aa0c:	e58d4004 	str	r4, [sp, #4]
    aa10:	e59f0014 	ldr	r0, [pc, #20]	; aa2c <data_abort_vector+0x38>
    aa14:	e59f1014 	ldr	r1, [pc, #20]	; aa30 <data_abort_vector+0x3c>
    aa18:	e59f2014 	ldr	r2, [pc, #20]	; aa34 <data_abort_vector+0x40>
    aa1c:	e3a03002 	mov	r3, #2
    aa20:	ebfffb58 	bl	9788 <printk>
    aa24:	ebfffcc7 	bl	9d48 <clean_reboot>
    aa28:	0000b788 	andeq	fp, r0, r8, lsl #15
    aa2c:	0000b620 	andeq	fp, r0, r0, lsr #12
    aa30:	0000b758 	andeq	fp, r0, r8, asr r7
    aa34:	0000b744 	andeq	fp, r0, r4, asr #14

0000aa38 <prefetch_abort_vector>:
    aa38:	e52de004 	push	{lr}		; (str lr, [sp, #-4]!)
    aa3c:	e24dd00c 	sub	sp, sp, #12
    aa40:	e1a04000 	mov	r4, r0
    aa44:	ebfffb6a 	bl	97f4 <rpi_reset_putc>
    aa48:	e59f301c 	ldr	r3, [pc, #28]	; aa6c <prefetch_abort_vector+0x34>
    aa4c:	e58d3000 	str	r3, [sp]
    aa50:	e58d4004 	str	r4, [sp, #4]
    aa54:	e59f0014 	ldr	r0, [pc, #20]	; aa70 <prefetch_abort_vector+0x38>
    aa58:	e59f1014 	ldr	r1, [pc, #20]	; aa74 <prefetch_abort_vector+0x3c>
    aa5c:	e59f2014 	ldr	r2, [pc, #20]	; aa78 <prefetch_abort_vector+0x40>
    aa60:	e3a03002 	mov	r3, #2
    aa64:	ebfffb47 	bl	9788 <printk>
    aa68:	ebfffcb6 	bl	9d48 <clean_reboot>
    aa6c:	0000b7d8 	ldrdeq	fp, [r0], -r8
    aa70:	0000b620 	andeq	fp, r0, r0, lsr #12
    aa74:	0000b7ac 	andeq	fp, r0, ip, lsr #15
    aa78:	0000b794 	muleq	r0, r4, r7

0000aa7c <reset_vector>:
    aa7c:	e52de004 	push	{lr}		; (str lr, [sp, #-4]!)
    aa80:	e24dd00c 	sub	sp, sp, #12
    aa84:	e1a04000 	mov	r4, r0
    aa88:	ebfffb59 	bl	97f4 <rpi_reset_putc>
    aa8c:	e59f301c 	ldr	r3, [pc, #28]	; aab0 <reset_vector+0x34>
    aa90:	e58d3000 	str	r3, [sp]
    aa94:	e58d4004 	str	r4, [sp, #4]
    aa98:	e59f0014 	ldr	r0, [pc, #20]	; aab4 <reset_vector+0x38>
    aa9c:	e59f1014 	ldr	r1, [pc, #20]	; aab8 <reset_vector+0x3c>
    aaa0:	e59f2014 	ldr	r2, [pc, #20]	; aabc <reset_vector+0x40>
    aaa4:	e3a03002 	mov	r3, #2
    aaa8:	ebfffb36 	bl	9788 <printk>
    aaac:	ebfffca5 	bl	9d48 <clean_reboot>
    aab0:	0000b824 	andeq	fp, r0, r4, lsr #16
    aab4:	0000b620 	andeq	fp, r0, r0, lsr #12
    aab8:	0000b7f8 	strdeq	fp, [r0], -r8
    aabc:	0000b7e8 	andeq	fp, r0, r8, ror #15

0000aac0 <undefined_instruction_vector>:
    aac0:	e52de004 	push	{lr}		; (str lr, [sp, #-4]!)
    aac4:	e24dd00c 	sub	sp, sp, #12
    aac8:	e1a04000 	mov	r4, r0
    aacc:	ebfffb48 	bl	97f4 <rpi_reset_putc>
    aad0:	e59f301c 	ldr	r3, [pc, #28]	; aaf4 <undefined_instruction_vector+0x34>
    aad4:	e58d3000 	str	r3, [sp]
    aad8:	e58d4004 	str	r4, [sp, #4]
    aadc:	e59f0014 	ldr	r0, [pc, #20]	; aaf8 <undefined_instruction_vector+0x38>
    aae0:	e59f1014 	ldr	r1, [pc, #20]	; aafc <undefined_instruction_vector+0x3c>
    aae4:	e59f2014 	ldr	r2, [pc, #20]	; ab00 <undefined_instruction_vector+0x40>
    aae8:	e3a03002 	mov	r3, #2
    aaec:	ebfffb25 	bl	9788 <printk>
    aaf0:	ebfffc94 	bl	9d48 <clean_reboot>
    aaf4:	0000b880 	andeq	fp, r0, r0, lsl #17
    aaf8:	0000b620 	andeq	fp, r0, r0, lsr #12
    aafc:	0000b84c 	andeq	fp, r0, ip, asr #16
    ab00:	0000b82c 	andeq	fp, r0, ip, lsr #16

Disassembly of section .data:

0000ab04 <first_init>:
    ab04:	00000001 	andeq	r0, r0, r1

0000ab08 <rpi_putchar>:
    ab08:	000097e0 	andeq	r9, r0, r0, ror #15

0000ab0c <putk>:
    ab0c:	0000981c 	andeq	r9, r0, ip, lsl r8

0000ab10 <GPFSEL0>:
    ab10:	20200000 	eorcs	r0, r0, r0

0000ab14 <GPFSEL1>:
    ab14:	20200004 	eorcs	r0, r0, r4

0000ab18 <GPFSEL2>:
    ab18:	20200008 	eorcs	r0, r0, r8

0000ab1c <GPFSEL3>:
    ab1c:	2020000c 	eorcs	r0, r0, ip

0000ab20 <GPFSEL4>:
    ab20:	20200010 	eorcs	r0, r0, r0, lsl r0

0000ab24 <GPFSEL5>:
    ab24:	20200014 	eorcs	r0, r0, r4, lsl r0

0000ab28 <GPSET0>:
    ab28:	2020001c 	eorcs	r0, r0, ip, lsl r0

0000ab2c <GPSET1>:
    ab2c:	20200020 	eorcs	r0, r0, r0, lsr #32

0000ab30 <GPCLR0>:
    ab30:	20200028 	eorcs	r0, r0, r8, lsr #32

0000ab34 <GPCLR1>:
    ab34:	2020002c 	eorcs	r0, r0, ip, lsr #32

0000ab38 <GPLEV0>:
    ab38:	20200034 	eorcs	r0, r0, r4, lsr r0

0000ab3c <GPLEV1>:
    ab3c:	20200038 	eorcs	r0, r0, r8, lsr r0

0000ab40 <IRQ_PENDING_2>:
    ab40:	2000b208 	andcs	fp, r0, r8, lsl #4

0000ab44 <GPREN0>:
    ab44:	2020004c 	eorcs	r0, r0, ip, asr #32

0000ab48 <GPREN1>:
    ab48:	20200050 	eorcs	r0, r0, r0, asr r0

0000ab4c <ENABLE_IRQS_2>:
    ab4c:	2000b214 	andcs	fp, r0, r4, lsl r2

0000ab50 <GPFEN0>:
    ab50:	20200058 	eorcs	r0, r0, r8, asr r0

0000ab54 <GPFEN1>:
    ab54:	2020005c 	eorcs	r0, r0, ip, asr r0

0000ab58 <GPEDS0>:
    ab58:	20200040 	eorcs	r0, r0, r0, asr #32

0000ab5c <GPEDS1>:
    ab5c:	20200044 	eorcs	r0, r0, r4, asr #32

0000ab60 <IRQ_PENDING_1>:
    ab60:	2000b204 	andcs	fp, r0, r4, lsl #4

0000ab64 <gpio_clr0>:
    ab64:	20200028 	eorcs	r0, r0, r8, lsr #32

0000ab68 <gpio_set0>:
    ab68:	2020001c 	eorcs	r0, r0, ip, lsl r0

0000ab6c <gpio_fsel0>:
    ab6c:	20200000 	eorcs	r0, r0, r0

0000ab70 <AUX_ENABLES>:
    ab70:	20215004 	eorcs	r5, r1, r4

0000ab74 <AUX_MU_CNTL_REG>:
    ab74:	20215060 	eorcs	r5, r1, r0, rrx

0000ab78 <AUX_MU_IER_REG>:
    ab78:	20215044 	eorcs	r5, r1, r4, asr #32

0000ab7c <AUX_MU_IIR_REG>:
    ab7c:	20215048 	eorcs	r5, r1, r8, asr #32

0000ab80 <AUX_MU_LCR_REG>:
    ab80:	2021504c 	eorcs	r5, r1, ip, asr #32

0000ab84 <AUX_MU_BAUD_REG>:
    ab84:	20215068 	eorcs	r5, r1, r8, rrx

0000ab88 <AUX_MU_LSR_REG>:
    ab88:	20215054 	eorcs	r5, r1, r4, asr r0

0000ab8c <AUX_MU_IO_REG>:
    ab8c:	20215040 	eorcs	r5, r1, r0, asr #32

0000ab90 <AUX_MU_STAT_REG>:
    ab90:	20215064 	eorcs	r5, r1, r4, rrx

0000ab94 <AUX_MU_SCRATCH>:
    ab94:	2021505c 	eorcs	r5, r1, ip, asr r0

0000ab98 <AUX_MU_MSR_REG>:
    ab98:	20215058 	eorcs	r5, r1, r8, asr r0

0000ab9c <AUX_MU_MCR_REG>:
    ab9c:	20215050 	eorcs	r5, r1, r0, asr r0

0000aba0 <AUX_IRQ>:
    aba0:	20215000 	eorcs	r5, r1, r0

Disassembly of section .rodata:

0000aba4 <__FUNCTION__.4622>:
    aba4:	74736574 	ldrbtvc	r6, [r3], #-1396	; 0x574
    aba8:	7370645f 	cmnvc	r0, #1593835520	; 0x5f000000
    abac:	00000000 	andeq	r0, r0, r0

0000abb0 <__FUNCTION__.4486>:
    abb0:	74736574 	ldrbtvc	r6, [r3], #-1396	; 0x574
    abb4:	6574735f 	ldrbvs	r7, [r4, #-863]!	; 0x35f
    abb8:	72657070 	rsbvc	r7, r5, #112	; 0x70
    abbc:	00000000 	andeq	r0, r0, r0

0000abc0 <__FUNCTION__.4514>:
    abc0:	74736574 	ldrbtvc	r6, [r3], #-1396	; 0x574
    abc4:	6574735f 	ldrbvs	r7, [r4, #-863]!	; 0x35f
    abc8:	72657070 	rsbvc	r7, r5, #112	; 0x70
    abcc:	7469775f 	strbtvc	r7, [r9], #-1887	; 0x75f
    abd0:	6e695f68 	cdpvs	15, 6, cr5, cr9, cr8, {3}
    abd4:	72726574 	rsbsvc	r6, r2, #116, 10	; 0x1d000000
    abd8:	73747075 	cmnvc	r4, #117	; 0x75
    abdc:	00000000 	andeq	r0, r0, r0

0000abe0 <__FUNCTION__.4542>:
    abe0:	5f756d69 	svcpl	0x00756d69
    abe4:	00006472 	andeq	r6, r0, r2, ror r4

0000abe8 <__FUNCTION__.4549>:
    abe8:	5f756d69 	svcpl	0x00756d69
    abec:	00007277 	andeq	r7, r0, r7, ror r2

0000abf0 <__FUNCTION__.4557>:
    abf0:	5f756d69 	svcpl	0x00756d69
    abf4:	6e5f6472 	mrcvs	4, 2, r6, cr15, cr2, {3}
    abf8:	00000000 	andeq	r0, r0, r0

0000abfc <__FUNCTION__.4581>:
    abfc:	5f737064 	svcpl	0x00737064
    ac00:	735f6f74 	cmpvc	pc, #116, 30	; 0x1d0
    ac04:	656c6163 	strbvs	r6, [ip, #-355]!	; 0x163
    ac08:	00000000 	andeq	r0, r0, r0

0000ac0c <__FUNCTION__.4595>:
    ac0c:	74696e69 	strbtvc	r6, [r9], #-3689	; 0xe69
    ac10:	7279675f 	rsbsvc	r6, r9, #24903680	; 0x17c0000
    ac14:	0000006f 	andeq	r0, r0, pc, rrx

0000ac18 <__FUNCTION__.4401>:
    ac18:	6167656c 	cmnvs	r7, ip, ror #10
    ac1c:	79675f6c 	stmdbvc	r7!, {r2, r3, r5, r6, r8, r9, sl, fp, ip, lr}^
    ac20:	685f6f72 	ldmdavs	pc, {r1, r4, r5, r6, r8, r9, sl, fp, sp, lr}^	; <UNPREDICTABLE>
    ac24:	0000007a 	andeq	r0, r0, sl, ror r0

0000ac28 <__FUNCTION__.4628>:
    ac28:	6f727967 	svcvs	0x00727967
    ac2c:	746f6d5f 	strbtvc	r6, [pc], #-3423	; ac34 <__FUNCTION__.4628+0xc>
    ac30:	0000726f 	andeq	r7, r0, pc, ror #4
    ac34:	3d776172 	ldfcce	f6, [r7, #-456]!	; 0xfffffe38
    ac38:	202c6425 	eorcs	r6, ip, r5, lsr #8
    ac3c:	6c616373 	stclvs	3, cr6, [r1], #-460	; 0xfffffe34
    ac40:	253d6465 	ldrcs	r6, [sp, #-1125]!	; 0x465
    ac44:	65202c64 	strvs	r2, [r0, #-3172]!	; 0xc64
    ac48:	63657078 	cmnvs	r5, #120	; 0x78
    ac4c:	3d646574 	cfstr64cc	mvdx6, [r4, #-464]!	; 0xfffffe30
    ac50:	000a6425 	andeq	r6, sl, r5, lsr #8
    ac54:	494e4150 	stmdbmi	lr, {r4, r6, r8, lr}^
    ac58:	73253a43 	teqvc	r5, #274432	; 0x43000
    ac5c:	3a73253a 	bcc	1cd414c <__bss_end__+0x1cc8464>
    ac60:	653a6425 	ldrvs	r6, [sl, #-1061]!	; 0x425
    ac64:	63657078 	cmnvs	r5, #120	; 0x78
    ac68:	20646574 	rsbcs	r6, r4, r4, ror r5
    ac6c:	202c6425 	eorcs	r6, ip, r5, lsr #8
    ac70:	20746f67 	rsbscs	r6, r4, r7, ror #30
    ac74:	6425203d 	strtvs	r2, [r5], #-61	; 0x3d
    ac78:	6373202c 	cmnvs	r3, #44	; 0x2c
    ac7c:	3d656c61 	stclcc	12, cr6, [r5, #-388]!	; 0xfffffe7c
    ac80:	0a0a6425 	beq	2a3d1c <__bss_end__+0x298034>
    ac84:	00000000 	andeq	r0, r0, r0
    ac88:	70657473 	rsbvc	r7, r5, r3, ror r4
    ac8c:	2d726570 	cfldr64cs	mvdx6, [r2, #-448]!	; 0xfffffe40
    ac90:	74736574 	ldrbtvc	r6, [r3], #-1396	; 0x574
    ac94:	0000632e 	andeq	r6, r0, lr, lsr #6
    ac98:	74736574 	ldrbtvc	r6, [r3], #-1396	; 0x574
    ac9c:	20676e69 	rsbcs	r6, r7, r9, ror #28
    aca0:	70657473 	rsbvc	r7, r5, r3, ror r4
    aca4:	0a726570 	beq	1ca426c <__bss_end__+0x1c98584>
    aca8:	00000000 	andeq	r0, r0, r0
    acac:	494e4150 	stmdbmi	lr, {r4, r6, r8, lr}^
    acb0:	73253a43 	teqvc	r5, #274432	; 0x43000
    acb4:	3a73253a 	bcc	1cd41a4 <__bss_end__+0x1cc84bc>
    acb8:	733a6425 	teqvc	sl, #620756992	; 0x25000000
    acbc:	70706574 	rsbsvc	r6, r0, r4, ror r5
    acc0:	675f7265 	ldrbvs	r7, [pc, -r5, ror #4]
    acc4:	705f7465 	subsvc	r7, pc, r5, ror #8
    acc8:	7469736f 	strbtvc	r7, [r9], #-879	; 0x36f
    accc:	5f6e6f69 	svcpl	0x006e6f69
    acd0:	735f6e69 	cmpvc	pc, #1680	; 0x690
    acd4:	73706574 	cmnvc	r0, #116, 10	; 0x1d000000
    acd8:	65747328 	ldrbvs	r7, [r4, #-808]!	; 0x328
    acdc:	72657070 	rsbvc	r7, r5, #112	; 0x70
    ace0:	3d3d2029 	ldccc	0, cr2, [sp, #-164]!	; 0xffffff5c
    ace4:	000a6920 	andeq	r6, sl, r0, lsr #18
    ace8:	494e4150 	stmdbmi	lr, {r4, r6, r8, lr}^
    acec:	73253a43 	teqvc	r5, #274432	; 0x43000
    acf0:	3a73253a 	bcc	1cd41e0 <__bss_end__+0x1cc84f8>
    acf4:	733a6425 	teqvc	sl, #620756992	; 0x25000000
    acf8:	70706574 	rsbsvc	r6, r0, r4, ror r5
    acfc:	675f7265 	ldrbvs	r7, [pc, -r5, ror #4]
    ad00:	705f7465 	subsvc	r7, pc, r5, ror #8
    ad04:	7469736f 	strbtvc	r7, [r9], #-879	; 0x36f
    ad08:	5f6e6f69 	svcpl	0x006e6f69
    ad0c:	735f6e69 	cmpvc	pc, #1680	; 0x690
    ad10:	73706574 	cmnvc	r0, #116, 10	; 0x1d000000
    ad14:	65747328 	ldrbvs	r7, [r4, #-808]!	; 0x328
    ad18:	72657070 	rsbvc	r7, r5, #112	; 0x70
    ad1c:	3d3d2029 	ldccc	0, cr2, [sp, #-164]!	; 0xffffff5c
    ad20:	20393920 	eorscs	r3, r9, r0, lsr #18
    ad24:	0a69202d 	beq	1a52de0 <__bss_end__+0x1a470f8>
    ad28:	00000000 	andeq	r0, r0, r0
    ad2c:	73736170 	cmnvc	r3, #112, 2
    ad30:	73206465 	teqvc	r0, #1694498816	; 0x65000000
    ad34:	68632077 	stmdavs	r3!, {r0, r1, r2, r4, r5, r6, sp}^
    ad38:	736b6365 	cmnvc	fp, #-1811939327	; 0x94000001
    ad3c:	6f482021 	svcvs	0x00482021
    ad40:	62612077 	rsbvs	r2, r1, #119	; 0x77
    ad44:	2074756f 	rsbscs	r7, r4, pc, ror #10
    ad48:	20656874 	rsbcs	r6, r5, r4, ror r8
    ad4c:	64726168 	ldrbtvs	r6, [r2], #-360	; 0x168
    ad50:	65726177 	ldrbvs	r6, [r2, #-375]!	; 0x177
    ad54:	00000a3f 	andeq	r0, r0, pc, lsr sl
    ad58:	20776f6e 	rsbscs	r6, r7, lr, ror #30
    ad5c:	74736574 	ldrbtvc	r6, [r3], #-1396	; 0x574
    ad60:	20676e69 	rsbcs	r6, r7, r9, ror #28
    ad64:	70657473 	rsbvc	r7, r5, r3, ror r4
    ad68:	20726570 	rsbscs	r6, r2, r0, ror r5
    ad6c:	69202f77 	stmdbvs	r0!, {r0, r1, r2, r4, r5, r6, r8, r9, sl, fp, sp}
    ad70:	7265746e 	rsbvc	r7, r5, #1845493760	; 0x6e000000
    ad74:	74707572 	ldrbtvc	r7, [r0], #-1394	; 0x572
    ad78:	00000a73 	andeq	r0, r0, r3, ror sl
    ad7c:	75716e65 	ldrbvc	r6, [r1, #-3685]!	; 0xe65
    ad80:	6e697565 	cdpvs	5, 6, cr7, cr9, cr5, {3}
    ad84:	20612067 	rsbcs	r2, r1, r7, rrx
    ad88:	6c616f67 	stclvs	15, cr6, [r1], #-412	; 0xfffffe64
    ad8c:	20666f20 	rsbcs	r6, r6, r0, lsr #30
    ad90:	73206425 	teqvc	r0, #620756992	; 0x25000000
    ad94:	73706574 	cmnvc	r0, #116, 10	; 0x1d000000
    ad98:	7461202c 	strbtvc	r2, [r1], #-44	; 0x2c
    ad9c:	72206120 	eorvc	r6, r0, #32, 2
    ada0:	20657461 	rsbcs	r7, r5, r1, ror #8
    ada4:	6f20666f 	svcvs	0x0020666f
    ada8:	7320656e 	teqvc	r0, #461373440	; 0x1b800000
    adac:	20706574 	rsbscs	r6, r0, r4, ror r5
    adb0:	20726570 	rsbscs	r6, r2, r0, ror r5
    adb4:	75206425 	strvc	r6, [r0, #-1061]!	; 0x425
    adb8:	0a636573 	beq	18e438c <__bss_end__+0x18d86a4>
    adbc:	00000000 	andeq	r0, r0, r0
    adc0:	70657473 	rsbvc	r7, r5, r3, ror r4
    adc4:	20726570 	rsbscs	r6, r2, r0, ror r5
    adc8:	20736f70 	rsbscs	r6, r3, r0, ror pc
    adcc:	202e6425 	eorcs	r6, lr, r5, lsr #8
    add0:	656d6954 	strbvs	r6, [sp, #-2388]!	; 0x954
    add4:	20746920 	rsbscs	r6, r4, r0, lsr #18
    add8:	6b6f6f74 	blvs	1be6bb0 <__bss_end__+0x1bdaec8>
    addc:	6425203a 	strtvs	r2, [r5], #-58	; 0x3a
    ade0:	65737520 	ldrbvs	r7, [r3, #-1312]!	; 0x520
    ade4:	65282063 	strvs	r2, [r8, #-99]!	; 0x63
    ade8:	63657078 	cmnvs	r5, #120	; 0x78
    adec:	20646574 	rsbcs	r6, r4, r4, ror r5
    adf0:	202c6425 	eorcs	r6, ip, r5, lsr #8
    adf4:	2066666f 	rsbcs	r6, r6, pc, ror #12
    adf8:	203a7962 	eorscs	r7, sl, r2, ror #18
    adfc:	0a296425 	beq	a63e98 <__bss_end__+0xa581b0>
    ae00:	00000000 	andeq	r0, r0, r0
    ae04:	20626f6a 	rsbcs	r6, r2, sl, ror #30
    ae08:	64206425 	strtvs	r6, [r0], #-1061	; 0x425
    ae0c:	2c656e6f 	stclcs	14, cr6, [r5], #-444	; 0xfffffe44
    ae10:	72756320 	rsbsvc	r6, r5, #32, 6	; 0x80000000
    ae14:	6f702072 	svcvs	0x00702072
    ae18:	64252073 	strtvs	r2, [r5], #-115	; 0x73
    ae1c:	0000000a 	andeq	r0, r0, sl
    ae20:	494e4150 	stmdbmi	lr, {r4, r6, r8, lr}^
    ae24:	73253a43 	teqvc	r5, #274432	; 0x43000
    ae28:	3a73253a 	bcc	1cd4318 <__bss_end__+0x1cc8630>
    ae2c:	703a6425 	eorsvc	r6, sl, r5, lsr #8
    ae30:	3d20736f 	stccc	3, cr7, [r0, #-444]!	; 0xfffffe44
    ae34:	3031203d 	eorscc	r2, r1, sp, lsr r0
    ae38:	69282a30 	stmdbvs	r8!, {r4, r5, r9, fp, sp}
    ae3c:	2029312b 	eorcs	r3, r9, fp, lsr #2
    ae40:	6928202a 	stmdbvs	r8!, {r1, r3, r5, sp}
    ae44:	32202520 	eorcc	r2, r0, #32, 10	; 0x8000000
    ae48:	31203f20 	teqcc	r0, r0, lsr #30
    ae4c:	2d203a20 	vstmdbcs	r0!, {s6-s37}
    ae50:	000a2931 	andeq	r2, sl, r1, lsr r9
    ae54:	63637573 	cmnvs	r3, #482344960	; 0x1cc00000
    ae58:	21737365 	cmncs	r3, r5, ror #6
    ae5c:	00000000 	andeq	r0, r0, r0
    ae60:	20776f6e 	rsbscs	r6, r7, lr, ror #30
    ae64:	74736574 	ldrbtvc	r6, [r3], #-1396	; 0x574
    ae68:	20676e69 	rsbcs	r6, r7, r9, ror #28
    ae6c:	7263696d 	rsbvc	r6, r3, #1785856	; 0x1b4000
    ae70:	6574736f 	ldrbvs	r7, [r4, #-879]!	; 0x36f
    ae74:	6e697070 	mcrvs	0, 3, r7, cr9, cr0, {3}
    ae78:	00000a67 	andeq	r0, r0, r7, ror #20
    ae7c:	494e4150 	stmdbmi	lr, {r4, r6, r8, lr}^
    ae80:	73253a43 	teqvc	r5, #274432	; 0x43000
    ae84:	3a73253a 	bcc	1cd4374 <__bss_end__+0x1cc868c>
    ae88:	613a6425 	teqvs	sl, r5, lsr #8
    ae8c:	0a726464 	beq	1ca4024 <__bss_end__+0x1c9833c>
    ae90:	00000000 	andeq	r0, r0, r0
    ae94:	494e4150 	stmdbmi	lr, {r4, r6, r8, lr}^
    ae98:	73253a43 	teqvc	r5, #274432	; 0x43000
    ae9c:	3a73253a 	bcc	1cd438c <__bss_end__+0x1cc86a4>
    aea0:	723a6425 	eorsvc	r6, sl, #620756992	; 0x25000000
    aea4:	000a6765 	andeq	r6, sl, r5, ror #14
    aea8:	494e4150 	stmdbmi	lr, {r4, r6, r8, lr}^
    aeac:	73253a43 	teqvc	r5, #274432	; 0x43000
    aeb0:	3a73253a 	bcc	1cd43a0 <__bss_end__+0x1cc86b8>
    aeb4:	623a6425 	eorsvs	r6, sl, #620756992	; 0x25000000
    aeb8:	5f657361 	svcpl	0x00657361
    aebc:	0a676572 	beq	19e448c <__bss_end__+0x19d87a4>
    aec0:	00000000 	andeq	r0, r0, r0
    aec4:	494e4150 	stmdbmi	lr, {r4, r6, r8, lr}^
    aec8:	73253a43 	teqvc	r5, #274432	; 0x43000
    aecc:	3a73253a 	bcc	1cd43bc <__bss_end__+0x1cc86d4>
    aed0:	303a6425 	eorscc	r6, sl, r5, lsr #8
    aed4:	0000000a 	andeq	r0, r0, sl
    aed8:	494e4150 	stmdbmi	lr, {r4, r6, r8, lr}^
    aedc:	73253a43 	teqvc	r5, #274432	; 0x43000
    aee0:	3a73253a 	bcc	1cd43d0 <__bss_end__+0x1cc86e8>
    aee4:	693a6425 	ldmdbvs	sl!, {r0, r2, r5, sl, sp, lr}
    aee8:	6c61766e 	stclvs	6, cr7, [r1], #-440	; 0xfffffe48
    aeec:	64206469 	strtvs	r6, [r0], #-1129	; 0x469
    aef0:	203a7370 	eorscs	r7, sl, r0, ror r3
    aef4:	0a0a7825 	beq	2a8f90 <__bss_end__+0x29d2a8>
    aef8:	00000000 	andeq	r0, r0, r0
    aefc:	494e4150 	stmdbmi	lr, {r4, r6, r8, lr}^
    af00:	73253a43 	teqvc	r5, #274432	; 0x43000
    af04:	3a73253a 	bcc	1cd43f4 <__bss_end__+0x1cc870c>
    af08:	673a6425 	ldrvs	r6, [sl, -r5, lsr #8]!
    af0c:	3a6f7279 	bcc	1be78f8 <__bss_end__+0x1bdbc10>
    af10:	36363120 	ldrtcc	r3, [r6], -r0, lsr #2
    af14:	207a6830 	rsbscs	r6, sl, r0, lsr r8
    af18:	73656f64 	cmnvc	r5, #100, 30	; 0x190
    af1c:	2074276e 	rsbscs	r2, r4, lr, ror #14
    af20:	6d656573 	cfstr64vs	mvdx6, [r5, #-460]!	; 0xfffffe34
    af24:	206f7420 	rsbcs	r7, pc, r0, lsr #8
    af28:	6b726f77 	blvs	1ca6d0c <__bss_end__+0x1c9b024>
    af2c:	00000a0a 	andeq	r0, r0, sl, lsl #20
    af30:	366d736c 	strbtcc	r7, [sp], -ip, ror #6
    af34:	33337364 	teqcc	r3, #100, 6	; 0x90000001
    af38:	0000682e 	andeq	r6, r0, lr, lsr #16
    af3c:	494e4150 	stmdbmi	lr, {r4, r6, r8, lr}^
    af40:	73253a43 	teqvc	r5, #274432	; 0x43000
    af44:	3a73253a 	bcc	1cd4434 <__bss_end__+0x1cc874c>
    af48:	693a6425 	ldmdbvs	sl!, {r0, r2, r5, sl, sp, lr}
    af4c:	6c61766e 	stclvs	6, cr7, [r1], #-440	; 0xfffffe48
    af50:	68206469 	stmdavs	r0!, {r0, r3, r5, r6, sl, sp, lr}
    af54:	25203a7a 	strcs	r3, [r0, #-2682]!	; 0xa7a
    af58:	000a0a78 	andeq	r0, sl, r8, ror sl
    af5c:	20766544 	rsbscs	r6, r6, r4, asr #10
    af60:	72646461 	rsbvc	r6, r4, #1627389952	; 0x61000000
    af64:	6425203a 	strtvs	r2, [r5], #-58	; 0x3a
    af68:	0000000a 	andeq	r0, r0, sl
    af6c:	414f4857 	cmpmi	pc, r7, asr r8	; <UNPREDICTABLE>
    af70:	203a494d 	eorscs	r4, sl, sp, asr #18
    af74:	000a6425 	andeq	r6, sl, r5, lsr #8
    af78:	494e4150 	stmdbmi	lr, {r4, r6, r8, lr}^
    af7c:	73253a43 	teqvc	r5, #274432	; 0x43000
    af80:	3a73253a 	bcc	1cd4470 <__bss_end__+0x1cc8788>
    af84:	473a6425 	ldrmi	r6, [sl, -r5, lsr #8]!
    af88:	206f7279 	rsbcs	r7, pc, r9, ror r2	; <UNPREDICTABLE>
    af8c:	74696e69 	strbtvc	r6, [r9], #-3689	; 0xe69
    af90:	69616620 	stmdbvs	r1!, {r5, r9, sl, sp, lr}^
    af94:	0a64656c 	beq	192454c <__bss_end__+0x1918864>
    af98:	00000000 	andeq	r0, r0, r0
    af9c:	5f737064 	svcpl	0x00737064
    afa0:	6c616373 	stclvs	3, cr6, [r1], #-460	; 0xfffffe34
    afa4:	20676e69 	rsbcs	r6, r7, r9, ror #28
    afa8:	73736170 	cmnvc	r3, #112, 2
    afac:	000a6465 	andeq	r6, sl, r5, ror #8
    afb0:	6f727967 	svcvs	0x00727967
    afb4:	77617220 	strbvc	r7, [r1, -r0, lsr #4]!
    afb8:	6c617620 	stclvs	6, cr7, [r1], #-128	; 0xffffff80
    afbc:	3a736575 	bcc	1ce4598 <__bss_end__+0x1cd88b0>
    afc0:	253d7820 	ldrcs	r7, [sp, #-2080]!	; 0x820
    afc4:	79202c64 	stmdbvc	r0!, {r2, r5, r6, sl, fp, sp}
    afc8:	2c64253d 	cfstr64cs	mvdx2, [r4], #-244	; 0xffffff0c
    afcc:	253d7a20 	ldrcs	r7, [sp, #-2592]!	; 0xa20
    afd0:	00000a64 	andeq	r0, r0, r4, ror #20
    afd4:	6f727967 	svcvs	0x00727967
    afd8:	61637320 	cmnvs	r3, r0, lsr #6
    afdc:	2064656c 	rsbcs	r6, r4, ip, ror #10
    afe0:	756c6176 	strbvc	r6, [ip, #-374]!	; 0x176
    afe4:	203a7365 	eorscs	r7, sl, r5, ror #6
    afe8:	64253d78 	strtvs	r3, [r5], #-3448	; 0xd78
    afec:	3d79202c 	ldclcc	0, cr2, [r9, #-176]!	; 0xffffff50
    aff0:	202c6425 	eorcs	r6, ip, r5, lsr #8
    aff4:	64253d7a 	strtvs	r3, [r5], #-3450	; 0xd7a
    aff8:	0000000a 	andeq	r0, r0, sl
    affc:	494e4150 	stmdbmi	lr, {r4, r6, r8, lr}^
    b000:	73253a43 	teqvc	r5, #274432	; 0x43000
    b004:	3a73253a 	bcc	1cd44f4 <__bss_end__+0x1cc880c>
    b008:	633a6425 	teqvs	sl, #620756992	; 0x25000000
    b00c:	746e756f 	strbtvc	r7, [lr], #-1391	; 0x56f
    b010:	203d3d20 	eorscs	r3, sp, r0, lsr #26
    b014:	444e4957 	strbmi	r4, [lr], #-2391	; 0x957
    b018:	535f574f 	cmppl	pc, #20709376	; 0x13c0000
    b01c:	0a455a49 	beq	1161948 <__bss_end__+0x1155c60>
    b020:	00000000 	andeq	r0, r0, r0
    b024:	494e4150 	stmdbmi	lr, {r4, r6, r8, lr}^
    b028:	73253a43 	teqvc	r5, #274432	; 0x43000
    b02c:	3a73253a 	bcc	1cd451c <__bss_end__+0x1cc8834>
    b030:	743a6425 	ldrtvc	r6, [sl], #-1061	; 0x425
    b034:	20706d65 	rsbscs	r6, r0, r5, ror #26
    b038:	0a30203c 	beq	c13130 <__bss_end__+0xc07448>
    b03c:	00000000 	andeq	r0, r0, r0
    b040:	70657453 	rsbvc	r7, r5, r3, asr r4
    b044:	3a726570 	bcc	1ca460c <__bss_end__+0x1c98924>
    b048:	61747320 	cmnvs	r4, r0, lsr #6
    b04c:	6e697472 	mcrvs	4, 3, r7, cr9, cr2, {3}
    b050:	00000a67 	andeq	r0, r0, r7, ror #20
    b054:	6c6c7546 	cfstr64vs	mvdx7, [ip], #-280	; 0xfffffee8
    b058:	65747320 	ldrbvs	r7, [r4, #-800]!	; 0x320
    b05c:	00000a70 	andeq	r0, r0, r0, ror sl
    b060:	666c6148 	strbtvs	r6, [ip], -r8, asr #2
    b064:	65747320 	ldrbvs	r7, [r4, #-800]!	; 0x320
    b068:	00000a70 	andeq	r0, r0, r0, ror sl
    b06c:	72617551 	rsbvc	r7, r1, #339738624	; 0x14400000
    b070:	20726574 	rsbscs	r6, r2, r4, ror r5
    b074:	70657473 	rsbvc	r7, r5, r3, ror r4
    b078:	0000000a 	andeq	r0, r0, sl
    b07c:	68676945 	stmdavs	r7!, {r0, r2, r6, r8, fp, sp, lr}^
    b080:	73206874 	teqvc	r0, #116, 16	; 0x740000
    b084:	0a706574 	beq	1c2465c <__bss_end__+0x1c18974>
    b088:	00000000 	andeq	r0, r0, r0
    b08c:	74786953 	ldrbtvc	r6, [r8], #-2387	; 0x953
    b090:	746e6565 	strbtvc	r6, [lr], #-1381	; 0x565
    b094:	74732068 	ldrbtvc	r2, [r3], #-104	; 0x68
    b098:	000a7065 	andeq	r7, sl, r5, rrx
    b09c:	61666544 	cmnvs	r6, r4, asr #10
    b0a0:	0a746c75 	beq	1d2627c <__bss_end__+0x1d1a594>
    b0a4:	00000000 	andeq	r0, r0, r0

0000b0a8 <__FUNCTION__.4277>:
    b0a8:	6d655f51 	stclvs	15, cr5, [r5, #-324]!	; 0xfffffebc
    b0ac:	00797470 	rsbseq	r7, r9, r0, ror r4

0000b0b0 <__FUNCTION__.4281>:
    b0b0:	6f705f51 	svcvs	0x00705f51
    b0b4:	00000070 	andeq	r0, r0, r0, ror r0

0000b0b8 <__FUNCTION__.4419>:
    b0b8:	70657473 	rsbvc	r7, r5, r3, ror r4
    b0bc:	5f726570 	svcpl	0x00726570
    b0c0:	5f746e69 	svcpl	0x00746e69
    b0c4:	74696e69 	strbtvc	r6, [r9], #-3689	; 0xe69
    b0c8:	7469775f 	strbtvc	r7, [r9], #-1887	; 0x75f
    b0cc:	696d5f68 	stmdbvs	sp!, {r3, r5, r6, r8, r9, sl, fp, ip, lr}^
    b0d0:	736f7263 	cmnvc	pc, #805306374	; 0x30000006
    b0d4:	73706574 	cmnvc	r0, #116, 10	; 0x1d000000
    b0d8:	00000000 	andeq	r0, r0, r0
    b0dc:	4f525245 	svcmi	0x00525245
    b0e0:	73253a52 	teqvc	r5, #335872	; 0x52000
    b0e4:	3a73253a 	bcc	1cd45d4 <__bss_end__+0x1cc88ec>
    b0e8:	203a6425 	eorscs	r6, sl, r5, lsr #8
    b0ec:	534c4146 	movtpl	r4, #49478	; 0xc146
    b0f0:	213c2845 	teqcs	ip, r5, asr #16
    b0f4:	743e2d71 	ldrtvc	r2, [lr], #-3441	; 0xd71
    b0f8:	3e6c6961 	cdpcc	9, 6, cr6, cr12, cr1, {3}
    b0fc:	69203a29 	stmdbvs	r0!, {r0, r3, r5, r9, fp, ip, sp}
    b100:	6c61766e 	stclvs	6, cr7, [r1], #-440	; 0xfffffe48
    b104:	51206469 	teqpl	r0, r9, ror #8
    b108:	0000000a 	andeq	r0, r0, sl
    b10c:	00682e51 	rsbeq	r2, r8, r1, asr lr
    b110:	4f525245 	svcmi	0x00525245
    b114:	73253a52 	teqvc	r5, #335872	; 0x52000
    b118:	3a73253a 	bcc	1cd4608 <__bss_end__+0x1cc8920>
    b11c:	203a6425 	eorscs	r6, sl, r5, lsr #8
    b120:	534c4146 	movtpl	r4, #49478	; 0xc146
    b124:	713c2845 	teqvc	ip, r5, asr #16
    b128:	203a293e 	eorscs	r2, sl, lr, lsr r9
    b12c:	20646162 	rsbcs	r6, r4, r2, ror #2
    b130:	75706e69 	ldrbvc	r6, [r0, #-3689]!	; 0xe69
    b134:	00000a74 	andeq	r0, r0, r4, ror sl
    b138:	494e4150 	stmdbmi	lr, {r4, r6, r8, lr}^
    b13c:	73253a43 	teqvc	r5, #274432	; 0x43000
    b140:	3a73253a 	bcc	1cd4630 <__bss_end__+0x1cc8948>
    b144:	513a6425 	teqpl	sl, r5, lsr #8
    b148:	706d655f 	rsbvc	r6, sp, pc, asr r5
    b14c:	71287974 	teqvc	r8, r4, ror r9
    b150:	00000a29 	andeq	r0, r0, r9, lsr #20
    b154:	494e4150 	stmdbmi	lr, {r4, r6, r8, lr}^
    b158:	73253a43 	teqvc	r5, #274432	; 0x43000
    b15c:	3a73253a 	bcc	1cd464c <__bss_end__+0x1cc8964>
    b160:	693a6425 	ldmdbvs	sl!, {r0, r2, r5, sl, sp, lr}
    b164:	656c706d 	strbvs	r7, [ip, #-109]!	; 0x6d
    b168:	746e656d 	strbtvc	r6, [lr], #-1389	; 0x56d
    b16c:	69687420 	stmdbvs	r8!, {r5, sl, ip, sp, lr}^
    b170:	75662073 	strbvc	r2, [r6, #-115]!	; 0x73
    b174:	6974636e 	ldmdbvs	r4!, {r1, r2, r3, r5, r6, r8, r9, sp, lr}^
    b178:	0a216e6f 	beq	866b3c <__bss_end__+0x85ae54>
    b17c:	0000000a 	andeq	r0, r0, sl
    b180:	70657473 	rsbvc	r7, r5, r3, ror r4
    b184:	2d726570 	cfldr64cs	mvdx6, [r2, #-448]!	; 0xfffffe40
    b188:	2e746e69 	cdpcs	14, 7, cr6, cr4, cr9, {3}
    b18c:	00000063 	andeq	r0, r0, r3, rrx

0000b190 <__FUNCTION__.4436>:
    b190:	63656863 	cmnvs	r5, #6488064	; 0x630000
    b194:	616c5f6b 	cmnvs	ip, fp, ror #30
    b198:	74756f79 	ldrbtvc	r6, [r5], #-3961	; 0xf79
    b19c:	00000000 	andeq	r0, r0, r0

0000b1a0 <__FUNCTION__.4342>:
    b1a0:	72656678 	rsbvc	r6, r5, #120, 12	; 0x7800000
    b1a4:	646e655f 	strbtvs	r6, [lr], #-1375	; 0x55f
    b1a8:	00000000 	andeq	r0, r0, r0

0000b1ac <__FUNCTION__.4321>:
    b1ac:	72656678 	rsbvc	r6, r5, #120, 12	; 0x7800000
    b1b0:	6174735f 	cmnvs	r4, pc, asr r3
    b1b4:	00007472 	andeq	r7, r0, r2, ror r4

0000b1b8 <__FUNCTION__.4352>:
    b1b8:	5f633269 	svcpl	0x00633269
    b1bc:	74697277 	strbtvc	r7, [r9], #-631	; 0x277
    b1c0:	00000065 	andeq	r0, r0, r5, rrx

0000b1c4 <__FUNCTION__.4365>:
    b1c4:	5f633269 	svcpl	0x00633269
    b1c8:	64616572 	strbtvs	r6, [r1], #-1394	; 0x572
    b1cc:	00000000 	andeq	r0, r0, r0

0000b1d0 <__FUNCTION__.4407>:
    b1d0:	5f633269 	svcpl	0x00633269
    b1d4:	74696e69 	strbtvc	r6, [r9], #-3689	; 0xe69
    b1d8:	00000000 	andeq	r0, r0, r0
    b1dc:	2e633269 	cdpcs	2, 6, cr3, cr3, cr9, {3}
    b1e0:	00000063 	andeq	r0, r0, r3, rrx
    b1e4:	494e4150 	stmdbmi	lr, {r4, r6, r8, lr}^
    b1e8:	73253a43 	teqvc	r5, #274432	; 0x43000
    b1ec:	3a73253a 	bcc	1cd46dc <__bss_end__+0x1cc89f4>
    b1f0:	6f3a6425 	svcvs	0x003a6425
    b1f4:	65736666 	ldrbvs	r6, [r3, #-1638]!	; 0x666
    b1f8:	72772074 	rsbsvc	r2, r7, #116	; 0x74
    b1fc:	3a676e6f 	bcc	19e6bc0 <__bss_end__+0x19daed8>
    b200:	70786520 	rsbsvc	r6, r8, r0, lsr #10
    b204:	20746365 	rsbscs	r6, r4, r5, ror #6
    b208:	67207825 	strvs	r7, [r0, -r5, lsr #16]!
    b20c:	2520746f 	strcs	r7, [r0, #-1135]!	; 0x46f
    b210:	73252078 	teqvc	r5, #120	; 0x78
    b214:	666f5b20 	strbtvs	r5, [pc], -r0, lsr #22
    b218:	64253d66 	strtvs	r3, [r5], #-3430	; 0xd66
    b21c:	69626e2c 	stmdbvs	r2!, {r2, r3, r5, r9, sl, fp, sp, lr}^
    b220:	253d7374 	ldrcs	r7, [sp, #-884]!	; 0x374
    b224:	0a0a5d64 	beq	2a27bc <__bss_end__+0x296ad4>
    b228:	00000000 	andeq	r0, r0, r0
    b22c:	64616572 	strbtvs	r6, [r1], #-1394	; 0x572
    b230:	00000000 	andeq	r0, r0, r0
    b234:	61656c63 	cmnvs	r5, r3, ror #24
    b238:	00000072 	andeq	r0, r0, r2, ror r0
    b23c:	494e4150 	stmdbmi	lr, {r4, r6, r8, lr}^
    b240:	73253a43 	teqvc	r5, #274432	; 0x43000
    b244:	3a73253a 	bcc	1cd4734 <__bss_end__+0x1cc8a4c>
    b248:	773a6425 	ldrvc	r6, [sl, -r5, lsr #8]!
    b24c:	68746469 	ldmdavs	r4!, {r0, r3, r5, r6, sl, sp, lr}^
    b250:	6f727720 	svcvs	0x00727720
    b254:	203a676e 	eorscs	r6, sl, lr, ror #14
    b258:	65707865 	ldrbvs	r7, [r0, #-2149]!	; 0x865
    b25c:	25207463 	strcs	r7, [r0, #-1123]!	; 0x463
    b260:	6f672078 	svcvs	0x00672078
    b264:	78252074 	stmdavc	r5!, {r2, r4, r5, r6, sp}
    b268:	20732520 	rsbscs	r2, r3, r0, lsr #10
    b26c:	66666f5b 	uqsaxvs	r6, r6, fp
    b270:	2c64253d 	cfstr64cs	mvdx2, [r4], #-244	; 0xffffff0c
    b274:	7469626e 	strbtvc	r6, [r9], #-622	; 0x26e
    b278:	64253d73 	strtvs	r3, [r5], #-3443	; 0xd73
    b27c:	000a0a5d 	andeq	r0, sl, sp, asr sl
    b280:	64746e69 	ldrbtvs	r6, [r4], #-3689	; 0xe69
    b284:	00000000 	andeq	r0, r0, r0
    b288:	74746e69 	ldrbtvc	r6, [r4], #-3689	; 0xe69
    b28c:	00000000 	andeq	r0, r0, r0
    b290:	72746e69 	rsbsvc	r6, r4, #1680	; 0x690
    b294:	00000000 	andeq	r0, r0, r0
    b298:	65633269 	strbvs	r3, [r3, #-617]!	; 0x269
    b29c:	0000006e 	andeq	r0, r0, lr, rrx
    b2a0:	00006174 	andeq	r6, r0, r4, ror r1
    b2a4:	656e6f64 	strbvs	r6, [lr, #-3940]!	; 0xf64
    b2a8:	00000000 	andeq	r0, r0, r0
    b2ac:	00777874 	rsbseq	r7, r7, r4, ror r8
    b2b0:	00727872 	rsbseq	r7, r2, r2, ror r8
    b2b4:	00647874 	rsbeq	r7, r4, r4, ror r8
    b2b8:	00647872 	rsbeq	r7, r4, r2, ror r8
    b2bc:	00657874 	rsbeq	r7, r5, r4, ror r8
    b2c0:	00667872 	rsbeq	r7, r6, r2, ror r8
    b2c4:	00727265 	rsbseq	r7, r2, r5, ror #4
    b2c8:	746b6c63 	strbtvc	r6, [fp], #-3171	; 0xc63
    b2cc:	0000006b 	andeq	r0, r0, fp, rrx
    b2d0:	494e4150 	stmdbmi	lr, {r4, r6, r8, lr}^
    b2d4:	73253a43 	teqvc	r5, #274432	; 0x43000
    b2d8:	3a73253a 	bcc	1cd47c8 <__bss_end__+0x1cc8ae0>
    b2dc:	693a6425 	ldmdbvs	sl!, {r0, r2, r5, sl, sp, lr}
    b2e0:	73206332 	teqvc	r0, #-939524096	; 0xc8000000
    b2e4:	6576616c 	ldrbvs	r6, [r6, #-364]!	; 0x16c
    b2e8:	6b636120 	blvs	18e3770 <__bss_end__+0x18d7a88>
    b2ec:	72726520 	rsbsvc	r6, r2, #32, 10	; 0x8000000
    b2f0:	000a726f 	andeq	r7, sl, pc, ror #4
    b2f4:	494e4150 	stmdbmi	lr, {r4, r6, r8, lr}^
    b2f8:	73253a43 	teqvc	r5, #274432	; 0x43000
    b2fc:	3a73253a 	bcc	1cd47ec <__bss_end__+0x1cc8b04>
    b300:	693a6425 	ldmdbvs	sl!, {r0, r2, r5, sl, sp, lr}
    b304:	73206332 	teqvc	r0, #-939524096	; 0xc8000000
    b308:	6576616c 	ldrbvs	r6, [r6, #-364]!	; 0x16c
    b30c:	6c656820 	stclvs	8, cr6, [r5], #-128	; 0xffffff80
    b310:	696c2064 	stmdbvs	ip!, {r2, r5, r6, sp}^
    b314:	7420656e 	strtvc	r6, [r0], #-1390	; 0x56e
    b318:	6c206f6f 	stcvs	15, cr6, [r0], #-444	; 0xfffffe44
    b31c:	0a676e6f 	beq	19e6ce0 <__bss_end__+0x19daff8>
    b320:	00000000 	andeq	r0, r0, r0
    b324:	494e4150 	stmdbmi	lr, {r4, r6, r8, lr}^
    b328:	73253a43 	teqvc	r5, #274432	; 0x43000
    b32c:	3a73253a 	bcc	1cd481c <__bss_end__+0x1cc8b34>
    b330:	693a6425 	ldmdbvs	sl!, {r0, r2, r5, sl, sp, lr}
    b334:	3e2d6332 	mcrcc	3, 1, r6, cr13, cr2, {1}
    b338:	74617473 	strbtvc	r7, [r1], #-1139	; 0x473
    b33c:	742e7375 	strtvc	r7, [lr], #-885	; 0x375
    b340:	3d3d2061 	ldccc	0, cr2, [sp, #-388]!	; 0xfffffe7c
    b344:	000a3020 	andeq	r3, sl, r0, lsr #32
    b348:	494e4150 	stmdbmi	lr, {r4, r6, r8, lr}^
    b34c:	73253a43 	teqvc	r5, #274432	; 0x43000
    b350:	3a73253a 	bcc	1cd4840 <__bss_end__+0x1cc8b58>
    b354:	213a6425 	teqcs	sl, r5, lsr #8
    b358:	2d633269 	sfmcs	f3, 2, [r3, #-420]!	; 0xfffffe5c
    b35c:	6174733e 	cmnvs	r4, lr, lsr r3
    b360:	2e737574 	mrccs	5, 3, r7, cr3, cr4, {3}
    b364:	0a727265 	beq	1ca7d00 <__bss_end__+0x1c9c018>
    b368:	00000000 	andeq	r0, r0, r0
    b36c:	494e4150 	stmdbmi	lr, {r4, r6, r8, lr}^
    b370:	73253a43 	teqvc	r5, #274432	; 0x43000
    b374:	3a73253a 	bcc	1cd4864 <__bss_end__+0x1cc8b7c>
    b378:	693a6425 	ldmdbvs	sl!, {r0, r2, r5, sl, sp, lr}
    b37c:	3e2d6332 	mcrcc	3, 1, r6, cr13, cr2, {1}
    b380:	74617473 	strbtvc	r7, [r1], #-1139	; 0x473
    b384:	742e7375 	strtvc	r7, [lr], #-885	; 0x375
    b388:	3d206578 	cfstr32cc	mvfx6, [r0, #-480]!	; 0xfffffe20
    b38c:	0a31203d 	beq	c53488 <__bss_end__+0xc477a0>
    b390:	00000000 	andeq	r0, r0, r0
    b394:	494e4150 	stmdbmi	lr, {r4, r6, r8, lr}^
    b398:	73253a43 	teqvc	r5, #274432	; 0x43000
    b39c:	3a73253a 	bcc	1cd488c <__bss_end__+0x1cc8ba4>
    b3a0:	283a6425 	ldmdacs	sl!, {r0, r2, r5, sl, sp, lr}
    b3a4:	64646128 	strbtvs	r6, [r4], #-296	; 0x128
    b3a8:	3e202972 	mcrcc	9, 1, r2, cr0, cr2, {3}
    b3ac:	2937203e 	ldmdbcs	r7!, {r1, r2, r3, r4, r5, sp}
    b3b0:	203d3d20 	eorscs	r3, sp, r0, lsr #26
    b3b4:	00000a30 	andeq	r0, r0, r0, lsr sl
    b3b8:	494e4150 	stmdbmi	lr, {r4, r6, r8, lr}^
    b3bc:	73253a43 	teqvc	r5, #274432	; 0x43000
    b3c0:	3a73253a 	bcc	1cd48b0 <__bss_end__+0x1cc8bc8>
    b3c4:	283a6425 	ldmdacs	sl!, {r0, r2, r5, sl, sp, lr}
    b3c8:	79626e28 	stmdbvc	r2!, {r3, r5, r9, sl, fp, sp, lr}^
    b3cc:	29736574 	ldmdbcs	r3!, {r2, r4, r5, r6, r8, sl, sp, lr}^
    b3d0:	203e3e20 	eorscs	r3, lr, r0, lsr #28
    b3d4:	20293631 	eorcs	r3, r9, r1, lsr r6
    b3d8:	30203d3d 	eorcc	r3, r0, sp, lsr sp
    b3dc:	0000000a 	andeq	r0, r0, sl

0000b3e0 <__FUNCTION__.4271>:
    b3e0:	74696d65 	strbtvc	r6, [r9], #-3429	; 0xd65
    b3e4:	00000000 	andeq	r0, r0, r0

0000b3e8 <__FUNCTION__.4219>:
    b3e8:	5f697072 	svcpl	0x00697072
    b3ec:	5f746573 	svcpl	0x00746573
    b3f0:	7074756f 	rsbsvc	r7, r4, pc, ror #10
    b3f4:	00007475 	andeq	r7, r0, r5, ror r4

0000b3f8 <__FUNCTION__.4293>:
    b3f8:	705f6176 	subsvc	r6, pc, r6, ror r1	; <UNPREDICTABLE>
    b3fc:	746e6972 	strbtvc	r6, [lr], #-2418	; 0x972
    b400:	0000006b 	andeq	r0, r0, fp, rrx
    b404:	6362696c 	cmnvs	r2, #108, 18	; 0x1b0000
    b408:	2d61762f 	stclcs	6, cr7, [r1, #-188]!	; 0xffffff44
    b40c:	6e697270 	mcrvs	2, 3, r7, cr9, cr0, {3}
    b410:	632e6b74 	teqvs	lr, #116, 22	; 0x1d000
    b414:	00000000 	andeq	r0, r0, r0
    b418:	33323130 	teqcc	r2, #48, 2
    b41c:	37363534 			; <UNDEFINED> instruction: 0x37363534
    b420:	00003938 	andeq	r3, r0, r8, lsr r9
    b424:	33323130 	teqcc	r2, #48, 2
    b428:	37363534 			; <UNDEFINED> instruction: 0x37363534
    b42c:	62613938 	rsbvs	r3, r1, #56, 18	; 0xe0000
    b430:	66656463 	strbtvs	r6, [r5], -r3, ror #8
    b434:	00000000 	andeq	r0, r0, r0
    b438:	00003130 	andeq	r3, r0, r0, lsr r1
    b43c:	494e4150 	stmdbmi	lr, {r4, r6, r8, lr}^
    b440:	73253a43 	teqvc	r5, #274432	; 0x43000
    b444:	3a73253a 	bcc	1cd4934 <__bss_end__+0x1cc8c4c>
    b448:	703a6425 	eorsvc	r6, sl, r5, lsr #8
    b44c:	5f637475 	svcpl	0x00637475
    b450:	000a7066 	andeq	r7, sl, r6, rrx
    b454:	494e4150 	stmdbmi	lr, {r4, r6, r8, lr}^
    b458:	73253a43 	teqvc	r5, #274432	; 0x43000
    b45c:	3a73253a 	bcc	1cd494c <__bss_end__+0x1cc8c64>
    b460:	773a6425 	ldrvc	r6, [sl, -r5, lsr #8]!
    b464:	68746469 	ldmdavs	r4!, {r0, r3, r5, r6, sl, sp, lr}^
    b468:	33203c20 	teqcc	r0, #32, 24	; 0x2000
    b46c:	00000a32 	andeq	r0, r0, r2, lsr sl
    b470:	494e4150 	stmdbmi	lr, {r4, r6, r8, lr}^
    b474:	73253a43 	teqvc	r5, #274432	; 0x43000
    b478:	3a73253a 	bcc	1cd4968 <__bss_end__+0x1cc8c80>
    b47c:	663a6425 	ldrtvs	r6, [sl], -r5, lsr #8
    b480:	74616f6c 	strbtvc	r6, [r1], #-3948	; 0xf6c
    b484:	746f6e20 	strbtvc	r6, [pc], #-3616	; b48c <__FUNCTION__.4293+0x94>
    b488:	616e6520 	cmnvs	lr, r0, lsr #10
    b48c:	64656c62 	strbtvs	r6, [r5], #-3170	; 0xc62
    b490:	0a212121 	beq	85391c <__bss_end__+0x847c34>
    b494:	00000000 	andeq	r0, r0, r0
    b498:	494e4150 	stmdbmi	lr, {r4, r6, r8, lr}^
    b49c:	73253a43 	teqvc	r5, #274432	; 0x43000
    b4a0:	3a73253a 	bcc	1cd4990 <__bss_end__+0x1cc8ca8>
    b4a4:	703a6425 	eorsvc	r6, sl, r5, lsr #8
    b4a8:	746e6972 	strbtvc	r6, [lr], #-2418	; 0x972
    b4ac:	6e203a6b 	vnmulvs.f32	s6, s0, s23
    b4b0:	6820746f 	stmdavs	r0!, {r0, r1, r2, r3, r5, r6, sl, ip, sp, lr}
    b4b4:	6c646e61 	stclvs	14, cr6, [r4], #-388	; 0xfffffe7c
    b4b8:	20676e69 	rsbcs	r6, r7, r9, ror #28
    b4bc:	63657073 	cmnvs	r5, #115	; 0x73
    b4c0:	65696669 	strbvs	r6, [r9, #-1641]!	; 0x669
    b4c4:	25272072 	strcs	r2, [r7, #-114]!	; 0x72
    b4c8:	0a0a2763 	beq	29525c <__bss_end__+0x289574>
    b4cc:	00000000 	andeq	r0, r0, r0
    b4d0:	454e4f44 	strbmi	r4, [lr, #-3908]	; 0xf44
    b4d4:	0a212121 	beq	853960 <__bss_end__+0x847c78>
    b4d8:	00000000 	andeq	r0, r0, r0

0000b4dc <__FUNCTION__.4215>:
    b4dc:	6c616d6b 	stclvs	13, cr6, [r1], #-428	; 0xfffffe54
    b4e0:	00636f6c 	rsbeq	r6, r3, ip, ror #30

0000b4e4 <__FUNCTION__.4222>:
    b4e4:	6c616d6b 	stclvs	13, cr6, [r1], #-428	; 0xfffffe54
    b4e8:	5f636f6c 	svcpl	0x00636f6c
    b4ec:	67696c61 	strbvs	r6, [r9, -r1, ror #24]!
    b4f0:	0064656e 	rsbeq	r6, r4, lr, ror #10

0000b4f4 <__FUNCTION__.4227>:
    b4f4:	6c616d6b 	stclvs	13, cr6, [r1], #-428	; 0xfffffe54
    b4f8:	5f636f6c 	svcpl	0x00636f6c
    b4fc:	74696e69 	strbtvc	r6, [r9], #-3689	; 0xe69
    b500:	00000000 	andeq	r0, r0, r0

0000b504 <__FUNCTION__.4237>:
    b504:	6c616d6b 	stclvs	13, cr6, [r1], #-428	; 0xfffffe54
    b508:	5f636f6c 	svcpl	0x00636f6c
    b50c:	74696e69 	strbtvc	r6, [r9], #-3689	; 0xe69
    b510:	7465735f 	strbtvc	r7, [r5], #-863	; 0x35f
    b514:	6174735f 	cmnvs	r4, pc, asr r3
    b518:	00007472 	andeq	r7, r0, r2, ror r4
    b51c:	4f525245 	svcmi	0x00525245
    b520:	73253a52 	teqvc	r5, #335872	; 0x52000
    b524:	3a73253a 	bcc	1cd4a14 <__bss_end__+0x1cc8d2c>
    b528:	203a6425 	eorscs	r6, sl, r5, lsr #8
    b52c:	534c4146 	movtpl	r4, #49478	; 0xc146
    b530:	693c2845 	ldmdbvs	ip!, {r0, r2, r6, fp, sp}
    b534:	5f74696e 	svcpl	0x0074696e
    b538:	3a293e70 	bcc	a5af00 <__bss_end__+0xa4f218>
    b53c:	6c616320 	stclvs	3, cr6, [r1], #-128	; 0xffffff80
    b540:	676e696c 	strbvs	r6, [lr, -ip, ror #18]!
    b544:	66656220 	strbtvs	r6, [r5], -r0, lsr #4
    b548:	2065726f 	rsbcs	r7, r5, pc, ror #4
    b54c:	74696e69 	strbtvc	r6, [r9], #-3689	; 0xe69
    b550:	696c6169 	stmdbvs	ip!, {r0, r3, r5, r6, r8, sp, lr}^
    b554:	0a64657a 	beq	1924b44 <__bss_end__+0x1918e5c>
    b558:	00000000 	andeq	r0, r0, r0
    b55c:	732d796d 	teqvc	sp, #1785856	; 0x1b4000
    b560:	6b2f6372 	blvs	be4330 <__bss_end__+0xbd8648>
    b564:	6c6c616d 	stfvse	f6, [ip], #-436	; 0xfffffe4c
    b568:	632e636f 	teqvs	lr, #-1140850687	; 0xbc000001
    b56c:	00000000 	andeq	r0, r0, r0
    b570:	4f525245 	svcmi	0x00525245
    b574:	73253a52 	teqvc	r5, #335872	; 0x52000
    b578:	3a73253a 	bcc	1cd4a68 <__bss_end__+0x1cc8d80>
    b57c:	203a6425 	eorscs	r6, sl, r5, lsr #8
    b580:	534c4146 	movtpl	r4, #49478	; 0xc146
    b584:	613c2845 	teqvs	ip, r5, asr #16
    b588:	6e67696c 	cdpvs	9, 6, cr6, cr7, cr12, {3}
    b58c:	746e656d 	strbtvc	r6, [lr], #-1389	; 0x56d
    b590:	38202520 	stmdacc	r0!, {r5, r8, sl, sp}
    b594:	203d3d20 	eorscs	r3, sp, r0, lsr #26
    b598:	3a293e30 	bcc	a5ae60 <__bss_end__+0xa4f178>
    b59c:	65772220 	ldrbvs	r2, [r7, #-544]!	; 0x220
    b5a0:	20647269 	rsbcs	r7, r4, r9, ror #4
    b5a4:	67696c61 	strbvs	r6, [r9, -r1, ror #24]!
    b5a8:	6e656d6e 	cdpvs	13, 6, cr6, cr5, cr14, {3}
    b5ac:	6e203a74 	mcrvs	10, 1, r3, cr0, cr4, {3}
    b5b0:	6120746f 	teqvs	r0, pc, ror #8
    b5b4:	6c756d20 	ldclvs	13, cr6, [r5], #-128	; 0xffffff80
    b5b8:	6c706974 	ldclvs	9, cr6, [r0], #-464	; 0xfffffe30
    b5bc:	666f2065 	strbtvs	r2, [pc], -r5, rrx
    b5c0:	22213420 	eorcs	r3, r1, #32, 8	; 0x20000000
    b5c4:	0000000a 	andeq	r0, r0, sl
    b5c8:	4f525245 	svcmi	0x00525245
    b5cc:	73253a52 	teqvc	r5, #335872	; 0x52000
    b5d0:	3a73253a 	bcc	1cd4ac0 <__bss_end__+0x1cc8dd8>
    b5d4:	203a6425 	eorscs	r6, sl, r5, lsr #8
    b5d8:	534c4146 	movtpl	r4, #49478	; 0xc146
    b5dc:	213c2845 	teqcs	ip, r5, asr #16
    b5e0:	74696e69 	strbtvc	r6, [r9], #-3689	; 0xe69
    b5e4:	293e705f 	ldmdbcs	lr!, {r0, r1, r2, r3, r4, r6, ip, sp, lr}
    b5e8:	6163203a 	cmnvs	r3, sl, lsr r0
    b5ec:	746f6e6e 	strbtvc	r6, [pc], #-3694	; b5f4 <__FUNCTION__.4237+0xf0>
    b5f0:	696e6920 	stmdbvs	lr!, {r5, r8, fp, sp, lr}^
    b5f4:	6c616974 	stclvs	9, cr6, [r1], #-464	; 0xfffffe30
    b5f8:	20657a69 	rsbcs	r7, r5, r9, ror #20
    b5fc:	63697774 	cmnvs	r9, #116, 14	; 0x1d00000
    b600:	0a0a2165 	beq	293b9c <__bss_end__+0x287eb4>
    b604:	00000000 	andeq	r0, r0, r0

0000b608 <__FUNCTION__.4261>:
    b608:	74736166 	ldrbtvc	r6, [r3], #-358	; 0x166
    b60c:	746e695f 	strbtvc	r6, [lr], #-2399	; 0x95f
    b610:	75727265 	ldrbvc	r7, [r2, #-613]!	; 0x265
    b614:	765f7470 			; <UNDEFINED> instruction: 0x765f7470
    b618:	6f746365 	svcvs	0x00746365
    b61c:	00000072 	andeq	r0, r0, r2, ror r0
    b620:	494e4150 	stmdbmi	lr, {r4, r6, r8, lr}^
    b624:	73253a43 	teqvc	r5, #274432	; 0x43000
    b628:	3a73253a 	bcc	1cd4b18 <__bss_end__+0x1cc8e30>
    b62c:	453a6425 	ldrmi	r6, [sl, #-1061]!	; 0x425
    b630:	524f5252 	subpl	r5, pc, #536870917	; 0x20000005
    b634:	6e75203a 	mrcvs	0, 3, r2, cr5, cr10, {1}
    b638:	646e6168 	strbtvs	r6, [lr], #-360	; 0x168
    b63c:	2064656c 	rsbcs	r6, r4, ip, ror #10
    b640:	65637865 	strbvs	r7, [r3, #-2149]!	; 0x865
    b644:	6f697470 	svcvs	0x00697470
    b648:	253c206e 	ldrcs	r2, [ip, #-110]!	; 0x6e
    b64c:	61203e73 	teqvs	r0, r3, ror lr
    b650:	43502074 	cmpmi	r0, #116	; 0x74
    b654:	0a78253d 	beq	1e14b50 <__bss_end__+0x1e08e68>
    b658:	0000000a 	andeq	r0, r0, sl
    b65c:	34317363 	ldrtcc	r7, [r1], #-867	; 0x363
    b660:	692d6530 	pushvs	{r4, r5, r8, sl, sp, lr}
    b664:	7265746e 	rsbvc	r7, r5, #1845493760	; 0x6e000000
    b668:	74707572 	ldrbtvc	r7, [r0], #-1394	; 0x572
    b66c:	746e692f 	strbtvc	r6, [lr], #-2351	; 0x92f
    b670:	75727265 	ldrbvc	r7, [r2, #-613]!	; 0x265
    b674:	2d737470 	cfldrdcs	mvd7, [r3, #-448]!	; 0xfffffe40
    b678:	00632e63 	rsbeq	r2, r3, r3, ror #28
    b67c:	74736166 	ldrbtvc	r6, [r3], #-358	; 0x166
    b680:	00000000 	andeq	r0, r0, r0

0000b684 <__FUNCTION__.4289>:
    b684:	656d6974 	strbvs	r6, [sp, #-2420]!	; 0x974
    b688:	68635f72 	stmdavs	r3!, {r1, r4, r5, r6, r8, r9, sl, fp, ip, lr}^
    b68c:	5f6b6365 	svcpl	0x006b6365
    b690:	7366666f 	cmnvc	r6, #116391936	; 0x6f00000
    b694:	00737465 	rsbseq	r7, r3, r5, ror #8
    b698:	34317363 	ldrtcc	r7, [r1], #-867	; 0x363
    b69c:	692d6530 	pushvs	{r4, r5, r8, sl, sp, lr}
    b6a0:	7265746e 	rsbvc	r7, r5, #1845493760	; 0x6e000000
    b6a4:	74707572 	ldrbtvc	r7, [r0], #-1394	; 0x572
    b6a8:	6d69742f 	cfstrdvs	mvd7, [r9, #-188]!	; 0xffffff44
    b6ac:	692d7265 	pushvs	{r0, r2, r5, r6, r9, ip, sp, lr}
    b6b0:	7265746e 	rsbvc	r7, r5, #1845493760	; 0x6e000000
    b6b4:	74707572 	ldrbtvc	r7, [r0], #-1394	; 0x572
    b6b8:	0000632e 	andeq	r6, r0, lr, lsr #6
    b6bc:	5f657375 	svcpl	0x00657375
    b6c0:	69623233 	stmdbvs	r2!, {r0, r1, r4, r5, r9, ip, sp}^
    b6c4:	6f635f74 	svcvs	0x00635f74
    b6c8:	65746e75 	ldrbvs	r6, [r4, #-3701]!	; 0xe75
    b6cc:	00000072 	andeq	r0, r0, r2, ror r0
    b6d0:	494e4150 	stmdbmi	lr, {r4, r6, r8, lr}^
    b6d4:	73253a43 	teqvc	r5, #274432	; 0x43000
    b6d8:	3a73253a 	bcc	1cd4bc8 <__bss_end__+0x1cc8ee0>
    b6dc:	783a6425 	ldmdavc	sl!, {r0, r2, r5, sl, sp, lr}
    b6e0:	3d20752e 	cfstr32cc	mvfx7, [r0, #-184]!	; 0xffffff48
    b6e4:	7865203d 	stmdavc	r5!, {r0, r2, r3, r4, r5, sp}^
    b6e8:	00000a70 	andeq	r0, r0, r0, ror sl
    b6ec:	5f746e69 	svcpl	0x00746e69
    b6f0:	62616e65 	rsbvs	r6, r1, #1616	; 0x650
    b6f4:	0064656c 	rsbeq	r6, r4, ip, ror #10
    b6f8:	656d6974 	strbvs	r6, [sp, #-2420]!	; 0x974
    b6fc:	6e655f72 	mcrvs	15, 3, r5, cr5, cr2, {3}
    b700:	656c6261 	strbvs	r6, [ip, #-609]!	; 0x261
    b704:	00000064 	andeq	r0, r0, r4, rrx
    b708:	6e756f63 	cdpvs	15, 7, cr6, cr5, cr3, {3}
    b70c:	5f726574 	svcpl	0x00726574
    b710:	62616e65 	rsbvs	r6, r1, #1616	; 0x650
    b714:	0064656c 	rsbeq	r6, r4, ip, ror #10
    b718:	6e756f63 	cdpvs	15, 7, cr6, cr5, cr3, {3}
    b71c:	5f726574 	svcpl	0x00726574
    b720:	73657270 	cmnvc	r5, #112, 4
    b724:	656c6163 	strbvs	r6, [ip, #-355]!	; 0x163
    b728:	00000072 	andeq	r0, r0, r2, ror r0
    b72c:	7366666f 	cmnvc	r6, #116391936	; 0x6f00000
    b730:	20737465 	rsbscs	r7, r3, r5, ror #8
    b734:	63656863 	cmnvs	r5, #6488064	; 0x630000
    b738:	2064656b 	rsbcs	r6, r4, fp, ror #10
    b73c:	2174756f 	cmncs	r4, pc, ror #10
    b740:	0000000a 	andeq	r0, r0, sl

0000b744 <__FUNCTION__.4247>:
    b744:	61746164 	cmnvs	r4, r4, ror #2
    b748:	6f62615f 	svcvs	0x0062615f
    b74c:	765f7472 			; <UNDEFINED> instruction: 0x765f7472
    b750:	6f746365 	svcvs	0x00746365
    b754:	00000072 	andeq	r0, r0, r2, ror r0
    b758:	34317363 	ldrtcc	r7, [r1], #-867	; 0x363
    b75c:	692d6530 	pushvs	{r4, r5, r8, sl, sp, lr}
    b760:	7265746e 	rsbvc	r7, r5, #1845493760	; 0x6e000000
    b764:	74707572 	ldrbtvc	r7, [r0], #-1394	; 0x572
    b768:	6665642f 	strbtvs	r6, [r5], -pc, lsr #8
    b76c:	746c7561 	strbtvc	r7, [ip], #-1377	; 0x561
    b770:	6e61682d 	cdpvs	8, 6, cr6, cr1, cr13, {1}
    b774:	72656c64 	rsbvc	r6, r5, #100, 24	; 0x6400
    b778:	7461642d 	strbtvc	r6, [r1], #-1069	; 0x42d
    b77c:	62612d61 	rsbvs	r2, r1, #6208	; 0x1840
    b780:	2e74726f 	cdpcs	2, 7, cr7, cr4, cr15, {3}
    b784:	00000063 	andeq	r0, r0, r3, rrx
    b788:	61746164 	cmnvs	r4, r4, ror #2
    b78c:	6f626120 	svcvs	0x00626120
    b790:	00007472 	andeq	r7, r0, r2, ror r4

0000b794 <__FUNCTION__.4247>:
    b794:	66657270 			; <UNDEFINED> instruction: 0x66657270
    b798:	68637465 	stmdavs	r3!, {r0, r2, r5, r6, sl, ip, sp, lr}^
    b79c:	6f62615f 	svcvs	0x0062615f
    b7a0:	765f7472 			; <UNDEFINED> instruction: 0x765f7472
    b7a4:	6f746365 	svcvs	0x00746365
    b7a8:	00000072 	andeq	r0, r0, r2, ror r0
    b7ac:	34317363 	ldrtcc	r7, [r1], #-867	; 0x363
    b7b0:	692d6530 	pushvs	{r4, r5, r8, sl, sp, lr}
    b7b4:	7265746e 	rsbvc	r7, r5, #1845493760	; 0x6e000000
    b7b8:	74707572 	ldrbtvc	r7, [r0], #-1394	; 0x572
    b7bc:	6665642f 	strbtvs	r6, [r5], -pc, lsr #8
    b7c0:	746c7561 	strbtvc	r7, [ip], #-1377	; 0x561
    b7c4:	6e61682d 	cdpvs	8, 6, cr6, cr1, cr13, {1}
    b7c8:	72656c64 	rsbvc	r6, r5, #100, 24	; 0x6400
    b7cc:	6572702d 	ldrbvs	r7, [r2, #-45]!	; 0x2d
    b7d0:	63746566 	cmnvs	r4, #427819008	; 0x19800000
    b7d4:	00632e68 	rsbeq	r2, r3, r8, ror #28
    b7d8:	66657270 			; <UNDEFINED> instruction: 0x66657270
    b7dc:	68637465 	stmdavs	r3!, {r0, r2, r5, r6, sl, ip, sp, lr}^
    b7e0:	6f626120 	svcvs	0x00626120
    b7e4:	00007472 	andeq	r7, r0, r2, ror r4

0000b7e8 <__FUNCTION__.4247>:
    b7e8:	65736572 	ldrbvs	r6, [r3, #-1394]!	; 0x572
    b7ec:	65765f74 	ldrbvs	r5, [r6, #-3956]!	; 0xf74
    b7f0:	726f7463 	rsbvc	r7, pc, #1660944384	; 0x63000000
    b7f4:	00000000 	andeq	r0, r0, r0
    b7f8:	34317363 	ldrtcc	r7, [r1], #-867	; 0x363
    b7fc:	692d6530 	pushvs	{r4, r5, r8, sl, sp, lr}
    b800:	7265746e 	rsbvc	r7, r5, #1845493760	; 0x6e000000
    b804:	74707572 	ldrbtvc	r7, [r0], #-1394	; 0x572
    b808:	6665642f 	strbtvs	r6, [r5], -pc, lsr #8
    b80c:	746c7561 	strbtvc	r7, [ip], #-1377	; 0x561
    b810:	6e61682d 	cdpvs	8, 6, cr6, cr1, cr13, {1}
    b814:	72656c64 	rsbvc	r6, r5, #100, 24	; 0x6400
    b818:	7365722d 	cmnvc	r5, #-805306366	; 0xd0000002
    b81c:	632e7465 	teqvs	lr, #1694498816	; 0x65000000
    b820:	00000000 	andeq	r0, r0, r0
    b824:	65736572 	ldrbvs	r6, [r3, #-1394]!	; 0x572
    b828:	00000074 	andeq	r0, r0, r4, ror r0

0000b82c <__FUNCTION__.4247>:
    b82c:	65646e75 	strbvs	r6, [r4, #-3701]!	; 0xe75
    b830:	656e6966 	strbvs	r6, [lr, #-2406]!	; 0x966
    b834:	6e695f64 	cdpvs	15, 6, cr5, cr9, cr4, {3}
    b838:	75727473 	ldrbvc	r7, [r2, #-1139]!	; 0x473
    b83c:	6f697463 	svcvs	0x00697463
    b840:	65765f6e 	ldrbvs	r5, [r6, #-3950]!	; 0xf6e
    b844:	726f7463 	rsbvc	r7, pc, #1660944384	; 0x63000000
    b848:	00000000 	andeq	r0, r0, r0
    b84c:	34317363 	ldrtcc	r7, [r1], #-867	; 0x363
    b850:	692d6530 	pushvs	{r4, r5, r8, sl, sp, lr}
    b854:	7265746e 	rsbvc	r7, r5, #1845493760	; 0x6e000000
    b858:	74707572 	ldrbtvc	r7, [r0], #-1394	; 0x572
    b85c:	6665642f 	strbtvs	r6, [r5], -pc, lsr #8
    b860:	746c7561 	strbtvc	r7, [ip], #-1377	; 0x561
    b864:	6e61682d 	cdpvs	8, 6, cr6, cr1, cr13, {1}
    b868:	72656c64 	rsbvc	r6, r5, #100, 24	; 0x6400
    b86c:	646e752d 	strbtvs	r7, [lr], #-1325	; 0x52d
    b870:	6e696665 	cdpvs	6, 6, cr6, cr9, cr5, {3}
    b874:	692d6465 	pushvs	{r0, r2, r5, r6, sl, sp, lr}
    b878:	2e74736e 	cdpcs	3, 7, cr7, cr4, cr14, {3}
    b87c:	00000063 	andeq	r0, r0, r3, rrx
    b880:	65646e75 	strbvs	r6, [r4, #-3701]!	; 0xe75
    b884:	656e6966 	strbvs	r6, [lr, #-2406]!	; 0x966
    b888:	6e692064 	cdpvs	0, 6, cr2, cr9, cr4, {3}
    b88c:	00007473 	andeq	r7, r0, r3, ror r4

Disassembly of section .bss:

0000b890 <__bss_start__>:
    b890:	00000000 	andeq	r0, r0, r0

0000b894 <my_steppers>:
	...

0000b8d4 <initialized_p>:
    b8d4:	00000000 	andeq	r0, r0, r0

0000b8d8 <buf.4219>:
	...

0000bcd8 <init_p>:
    bcd8:	00000000 	andeq	r0, r0, r0

0000bcdc <heap_ptr>:
    bcdc:	00000000 	andeq	r0, r0, r0

0000bce0 <rpi_arm_timer_t>:
	...

Disassembly of section .ARM.attributes:

00000000 <.ARM.attributes>:
   0:	00002a41 	andeq	r2, r0, r1, asr #20
   4:	61656100 	cmnvs	r5, r0, lsl #2
   8:	01006962 	tsteq	r0, r2, ror #18
   c:	00000020 	andeq	r0, r0, r0, lsr #32
  10:	4b5a3605 	blmi	168d82c <__bss_end__+0x1681b44>
  14:	08070600 	stmdaeq	r7, {r9, sl}
  18:	12010901 	andne	r0, r1, #16384	; 0x4000
  1c:	15011404 	strne	r1, [r1, #-1028]	; 0x404
  20:	18031701 	stmdane	r3, {r0, r8, r9, sl, ip}
  24:	22011a01 	andcs	r1, r1, #4096	; 0x1000
  28:	Address 0x0000000000000028 is out of bounds.


Disassembly of section .comment:

00000000 <.comment>:
   0:	3a434347 	bcc	10d0d24 <__bss_end__+0x10c503c>
   4:	4e472820 	cdpmi	8, 4, cr2, cr7, cr0, {1}
   8:	34202955 	strtcc	r2, [r0], #-2389	; 0x955
   c:	332e382e 	teqcc	lr, #3014656	; 0x2e0000
  10:	43434700 	movtmi	r4, #14080	; 0x3700
  14:	3128203a 	teqcc	r8, sl, lsr r0
  18:	2e363a35 	mrccs	10, 1, r3, cr6, cr5, {1}
  1c:	2b312e33 	blcs	c4b8f0 <__bss_end__+0xc3fc08>
  20:	326e7673 	rsbcc	r7, lr, #120586240	; 0x7300000
  24:	33303335 	teqcc	r0, #-738197504	; 0xd4000000
  28:	62312d39 	eorsvs	r2, r1, #3648	; 0xe40
  2c:	646c6975 	strbtvs	r6, [ip], #-2421	; 0x975
  30:	36202931 			; <UNDEFINED> instruction: 0x36202931
  34:	312e332e 	teqcc	lr, lr, lsr #6
  38:	31303220 	teqcc	r0, r0, lsr #4
  3c:	32363037 	eorscc	r3, r6, #55	; 0x37
  40:	Address 0x0000000000000040 is out of bounds.


Disassembly of section .debug_info:

00000000 <.debug_info>:
       0:	00001b55 	andeq	r1, r0, r5, asr fp
       4:	00000004 	andeq	r0, r0, r4
       8:	01040000 	mrseq	r0, (UNDEF: 4)
       c:	000004cf 	andeq	r0, r0, pc, asr #9
      10:	0001e501 	andeq	lr, r1, r1, lsl #10
      14:	00036900 	andeq	r6, r3, r0, lsl #18
      18:	00801000 	addeq	r1, r0, r0
      1c:	000c3c00 	andeq	r3, ip, r0, lsl #24
      20:	00000000 	andeq	r0, r0, r0
      24:	05040200 	streq	r0, [r4, #-512]	; 0x200
      28:	00746e69 	rsbseq	r6, r4, r9, ror #28
      2c:	4a070403 	bmi	1c1040 <__bss_end__+0x1b5358>
      30:	03000002 	movweq	r0, #2
      34:	07ee0601 	strbeq	r0, [lr, r1, lsl #12]!
      38:	02030000 	andeq	r0, r3, #0
      3c:	00064405 	andeq	r4, r6, r5, lsl #8
      40:	05040300 	streq	r0, [r4, #-768]	; 0x300
      44:	0000043e 	andeq	r0, r0, lr, lsr r4
      48:	39050803 	stmdbcc	r5, {r0, r1, fp}
      4c:	04000004 	streq	r0, [r0], #-4
      50:	000003e5 	andeq	r0, r0, r5, ror #7
      54:	005a2e03 	subseq	r2, sl, r3, lsl #28
      58:	01030000 	mrseq	r0, (UNDEF: 3)
      5c:	0007ec08 	andeq	lr, r7, r8, lsl #24
      60:	07020300 	streq	r0, [r2, -r0, lsl #6]
      64:	000008ac 	andeq	r0, r0, ip, lsr #17
      68:	0001fe04 	andeq	pc, r1, r4, lsl #28
      6c:	73340300 	teqvc	r4, #0, 6
      70:	03000000 	movweq	r0, #0
      74:	02450704 	subeq	r0, r5, #4, 14	; 0x100000
      78:	08030000 	stmdaeq	r3, {}	; <UNPREDICTABLE>
      7c:	00024007 	andeq	r4, r2, r7
      80:	07040300 	streq	r0, [r4, -r0, lsl #6]
      84:	00000785 	andeq	r0, r0, r5, lsl #15
      88:	f5080103 			; <UNDEFINED> instruction: 0xf5080103
      8c:	05000007 	streq	r0, [r0, #-7]
      90:	00009504 	andeq	r9, r0, r4, lsl #10
      94:	00880600 	addeq	r0, r8, r0, lsl #12
      98:	01070000 	mrseq	r0, (UNDEF: 7)
      9c:	00c10504 	sbceq	r0, r1, r4, lsl #10
      a0:	bb080000 	bllt	2000a8 <__bss_end__+0x1f43c0>
      a4:	00000000 	andeq	r0, r0, r0
      a8:	00074208 	andeq	r4, r7, r8, lsl #4
      ac:	76080100 	strvc	r0, [r8], -r0, lsl #2
      b0:	02000002 	andeq	r0, r0, #2
      b4:	00082608 	andeq	r2, r8, r8, lsl #12
      b8:	0d080300 	stceq	3, cr0, [r8, #-0]
      bc:	04000009 	streq	r0, [r0], #-9
      c0:	05ad0400 	streq	r0, [sp, #1024]!	; 0x400
      c4:	0b040000 	bleq	1000cc <__bss_end__+0xf43e4>
      c8:	0000009a 	muleq	r0, sl, r0
      cc:	0e041809 	cdpeq	8, 0, cr1, cr4, cr9, {0}
      d0:	0000011d 	andeq	r0, r0, sp, lsl r1
      d4:	0006c90a 	andeq	ip, r6, sl, lsl #18
      d8:	250f0400 	strcs	r0, [pc, #-1024]	; fffffce0 <__bss_end__+0xffff3ff8>
      dc:	00000000 	andeq	r0, r0, r0
      e0:	7269640b 	rsbvc	r6, r9, #184549376	; 0xb000000
      e4:	2c100400 	cfldrscs	mvf0, [r0], {-0}
      e8:	04000000 	streq	r0, [r0], #-0
      ec:	0003d20a 	andeq	sp, r3, sl, lsl #4
      f0:	2c110400 	cfldrscs	mvf0, [r1], {-0}
      f4:	08000000 	stmdaeq	r0, {}	; <UNPREDICTABLE>
      f8:	31534d0b 	cmpcc	r3, fp, lsl #26
      fc:	2c120400 	cfldrscs	mvf0, [r2], {-0}
     100:	0c000000 	stceq	0, cr0, [r0], {-0}
     104:	32534d0b 	subscc	r4, r3, #704	; 0x2c0
     108:	2c130400 	cfldrscs	mvf0, [r3], {-0}
     10c:	10000000 	andne	r0, r0, r0
     110:	33534d0b 	cmpcc	r3, #704	; 0x2c0
     114:	2c140400 	cfldrscs	mvf0, [r4], {-0}
     118:	14000000 	strne	r0, [r0], #-0
     11c:	004a0400 	subeq	r0, sl, r0, lsl #8
     120:	15040000 	strne	r0, [r4, #-0]
     124:	000000cc 	andeq	r0, r0, ip, asr #1
     128:	06050107 	streq	r0, [r5], -r7, lsl #2
     12c:	0000013d 	andeq	r0, r0, sp, lsr r1
     130:	00031c08 	andeq	r1, r3, r8, lsl #24
     134:	18080000 	stmdane	r8, {}	; <UNPREDICTABLE>
     138:	01000003 	tsteq	r0, r3
     13c:	08320400 	ldmdaeq	r2!, {sl}
     140:	09050000 	stmdbeq	r5, {}	; <UNPREDICTABLE>
     144:	00000128 	andeq	r0, r0, r8, lsr #2
     148:	0b050107 	bleq	14056c <__bss_end__+0x134884>
     14c:	00000169 	andeq	r0, r0, r9, ror #2
     150:	0003b908 	andeq	fp, r3, r8, lsl #18
     154:	bd080000 	stclt	0, cr0, [r8, #-0]
     158:	01000003 	tsteq	r0, r3
     15c:	00035208 	andeq	r5, r3, r8, lsl #4
     160:	00080200 	andeq	r0, r8, r0, lsl #4
     164:	03000000 	movweq	r0, #0
     168:	01380400 	teqeq	r8, r0, lsl #8
     16c:	10050000 	andne	r0, r5, r0
     170:	00000148 	andeq	r0, r0, r8, asr #2
     174:	0006de0c 	andeq	sp, r6, ip, lsl #28
     178:	12051400 	andne	r1, r5, #0, 8
     17c:	000001bd 			; <UNDEFINED> instruction: 0x000001bd
     180:	000fb10a 	andeq	fp, pc, sl, lsl #2
     184:	bd130500 	cfldr32lt	mvfx0, [r3, #-0]
     188:	00000001 	andeq	r0, r0, r1
     18c:	00087d0a 	andeq	r7, r8, sl, lsl #26
     190:	25140500 	ldrcs	r0, [r4, #-1280]	; 0x500
     194:	04000000 	streq	r0, [r0], #-0
     198:	00001f0a 	andeq	r1, r0, sl, lsl #30
     19c:	2c150500 	cfldr32cs	mvfx0, [r5], {-0}
     1a0:	08000000 	stmdaeq	r0, {}	; <UNPREDICTABLE>
     1a4:	0003c50a 	andeq	ip, r3, sl, lsl #10
     1a8:	2c160500 	cfldr32cs	mvfx0, [r6], {-0}
     1ac:	0c000000 	stceq	0, cr0, [r0], {-0}
     1b0:	000e830a 	andeq	r8, lr, sl, lsl #6
     1b4:	69170500 	ldmdbvs	r7, {r8, sl}
     1b8:	10000001 	andne	r0, r0, r1
     1bc:	74040500 	strvc	r0, [r4], #-1280	; 0x500
     1c0:	04000001 	streq	r0, [r0], #-1
     1c4:	000006de 	ldrdeq	r0, [r0], -lr
     1c8:	01741805 	cmneq	r4, r5, lsl #16
     1cc:	510d0000 	mrspl	r0, (UNDEF: 13)
     1d0:	09060c00 	stmdbeq	r6, {sl, fp}
     1d4:	000001fd 	strdeq	r0, [r0], -sp
     1d8:	00009a0a 	andeq	r9, r0, sl, lsl #20
     1dc:	fd0a0600 	stc2	6, cr0, [sl, #-0]
     1e0:	00000001 	andeq	r0, r0, r1
     1e4:	0008210a 	andeq	r2, r8, sl, lsl #2
     1e8:	fd0a0600 	stc2	6, cr0, [sl, #-0]
     1ec:	04000001 	streq	r0, [r0], #-1
     1f0:	746e630b 	strbtvc	r6, [lr], #-779	; 0x30b
     1f4:	2c0b0600 	stccs	6, cr0, [fp], {-0}
     1f8:	08000000 	stmdaeq	r0, {}	; <UNPREDICTABLE>
     1fc:	c3040500 	movwgt	r0, #17664	; 0x4500
     200:	0e000001 	cdpeq	0, 0, cr0, cr0, cr1, {0}
     204:	00745f51 	rsbseq	r5, r4, r1, asr pc
     208:	01ce0c06 	biceq	r0, lr, r6, lsl #24
     20c:	14090000 	strne	r0, [r9], #-0
     210:	023b1d05 	eorseq	r1, fp, #320	; 0x140
     214:	d70a0000 	strle	r0, [sl, -r0]
     218:	05000002 	streq	r0, [r0, #-2]
     21c:	00023b1e 	andeq	r3, r2, lr, lsl fp
     220:	830a0000 	movwhi	r0, #40960	; 0xa000
     224:	0500000e 	streq	r0, [r0, #-14]
     228:	00013d1f 	andeq	r3, r1, pc, lsl sp
     22c:	d00a0400 	andle	r0, sl, r0, lsl #8
     230:	05000007 	streq	r0, [r0, #-7]
     234:	00020320 	andeq	r0, r2, r0, lsr #6
     238:	05000800 	streq	r0, [r0, #-2048]	; 0x800
     23c:	00011d04 	andeq	r1, r1, r4, lsl #26
     240:	04b70400 	ldrteq	r0, [r7], #1024	; 0x400
     244:	21050000 	mrscs	r0, (UNDEF: 5)
     248:	0000020e 	andeq	r0, r0, lr, lsl #4
     24c:	04020107 	streq	r0, [r2], #-263	; 0x107
     250:	0000025c 	andeq	r0, r0, ip, asr r2
     254:	00032c08 	andeq	r2, r3, r8, lsl #24
     258:	0000eb00 	andeq	lr, r0, r0, lsl #22
     25c:	2c020107 	stfcss	f0, [r2], {7}
     260:	000002a7 	andeq	r0, r0, r7, lsr #5
     264:	0006a208 	andeq	sl, r6, r8, lsl #4
     268:	13080000 	movwne	r0, #32768	; 0x8000
     26c:	01000001 	tsteq	r0, r1
     270:	00086f08 	andeq	r6, r8, r8, lsl #30
     274:	3c080200 	sfmcc	f0, 4, [r8], {-0}
     278:	03000000 	movweq	r0, #0
     27c:	00054208 	andeq	r4, r5, r8, lsl #4
     280:	b2080400 	andlt	r0, r8, #0, 8
     284:	05000007 	streq	r0, [r0, #-7]
     288:	00086008 	andeq	r6, r8, r8
     28c:	03080600 	movweq	r0, #34304	; 0x8600
     290:	07000004 	streq	r0, [r0, -r4]
     294:	00042408 	andeq	r2, r4, r8, lsl #8
     298:	b9080800 	stmdblt	r8, {fp}
     29c:	09000006 	stmdbeq	r0, {r1, r2}
     2a0:	00055108 	andeq	r5, r5, r8, lsl #2
     2a4:	04000a00 	streq	r0, [r0], #-2560	; 0xa00
     2a8:	0000035b 	andeq	r0, r0, fp, asr r3
     2ac:	025c3a02 	subseq	r3, ip, #8192	; 0x2000
     2b0:	04070000 	streq	r0, [r7], #-0
     2b4:	02df4302 	sbcseq	r4, pc, #134217728	; 0x8000000
     2b8:	42080000 	andmi	r0, r8, #0
     2bc:	80000003 	andhi	r0, r0, r3
     2c0:	0807d480 	stmdaeq	r7, {r7, sl, ip, lr, pc}
     2c4:	00000684 	andeq	r0, r0, r4, lsl #13
     2c8:	0fd08081 	svceq	0x00d08081
     2cc:	00075d08 	andeq	r5, r7, r8, lsl #26
     2d0:	a0808200 	addge	r8, r0, r0, lsl #4
     2d4:	02b9081f 	adcseq	r0, r9, #2031616	; 0x1f0000
     2d8:	80830000 	addhi	r0, r3, r0
     2dc:	04003ec0 	streq	r3, [r0], #-3776	; 0xec0
     2e0:	0000009f 	muleq	r0, pc, r0	; <UNPREDICTABLE>
     2e4:	02b24b02 	adcseq	r4, r2, #2048	; 0x800
     2e8:	c50f0000 	strgt	r0, [pc, #-0]	; 2f0 <_start-0x7d10>
     2ec:	01000000 	mrseq	r0, (UNDEF: 0)
     2f0:	046f5702 	strbteq	r5, [pc], #-1794	; 2f8 <_start-0x7d08>
     2f4:	8a080000 	bhi	2002fc <__bss_end__+0x1f4614>
     2f8:	01000002 	tsteq	r0, r2
     2fc:	00047708 	andeq	r7, r4, r8, lsl #14
     300:	82080600 	andhi	r0, r8, #0, 12
     304:	07000004 	streq	r0, [r0, -r4]
     308:	00048d08 	andeq	r8, r4, r8, lsl #26
     30c:	98080800 	stmdals	r8, {fp}
     310:	09000004 	stmdbeq	r0, {r2}
     314:	0004a308 	andeq	sl, r4, r8, lsl #6
     318:	ae080a00 	vmlage.f32	s0, s16, s0
     31c:	0b000000 	bleq	324 <_start-0x7cdc>
     320:	0001c608 	andeq	ip, r1, r8, lsl #12
     324:	af080d00 	svcge	0x00080d00
     328:	0e000006 	cdpeq	0, 0, cr0, cr0, cr6, {0}
     32c:	0001dc08 	andeq	sp, r1, r8, lsl #24
     330:	15080f00 	strne	r0, [r8, #-3840]	; 0xf00
     334:	10000006 	andne	r0, r0, r6
     338:	00015b08 	andeq	r5, r1, r8, lsl #22
     33c:	3a081100 	bcc	204744 <__bss_end__+0x1f8a5c>
     340:	12000005 	andne	r0, r0, #5
     344:	0008da08 	andeq	sp, r8, r8, lsl #20
     348:	ca081300 	bgt	204f50 <__bss_end__+0x1f9268>
     34c:	14000002 	strne	r0, [r0], #-2
     350:	0006f108 	andeq	pc, r6, r8, lsl #2
     354:	27081500 	strcs	r1, [r8, -r0, lsl #10]
     358:	16000001 	strne	r0, [r0], -r1
     35c:	00066208 	andeq	r6, r6, r8, lsl #4
     360:	9a081700 	bls	205f68 <__bss_end__+0x1fa280>
     364:	18000002 	stmdane	r0, {r1}
     368:	00041208 	andeq	r1, r4, r8, lsl #4
     36c:	61081900 	tstvs	r8, r0, lsl #18
     370:	1b000005 	blne	38c <_start-0x7c74>
     374:	00057508 	andeq	r7, r5, r8, lsl #10
     378:	7d081c00 	stcvc	12, cr1, [r8, #-0]
     37c:	1d000005 	stcne	0, cr0, [r0, #-20]	; 0xffffffec
     380:	00064e08 	andeq	r4, r6, r8, lsl #28
     384:	d8081e00 	stmdale	r8, {r9, sl, fp, ip}
     388:	20000000 	andcs	r0, r0, r0
     38c:	0000cd08 	andeq	ip, r0, r8, lsl #26
     390:	88082100 	stmdahi	r8, {r8, sp}
     394:	22000000 	andcs	r0, r0, #0
     398:	00041b08 	andeq	r1, r4, r8, lsl #22
     39c:	99082300 	stmdbls	r8, {r8, r9, sp}
     3a0:	24000006 	strcs	r0, [r0], #-6
     3a4:	00010a08 	andeq	r0, r1, r8, lsl #20
     3a8:	0f082500 	svceq	0x00082500
     3ac:	26000003 	strcs	r0, [r0], -r3
     3b0:	00075408 	andeq	r5, r7, r8, lsl #8
     3b4:	06082700 	streq	r2, [r8], -r0, lsl #14
     3b8:	28000000 	stmdacs	r0, {}	; <UNPREDICTABLE>
     3bc:	00067a08 	andeq	r7, r6, r8, lsl #20
     3c0:	c5082900 	strgt	r2, [r8, #-2304]	; 0x900
     3c4:	2a000004 	bcs	3dc <_start-0x7c24>
     3c8:	00023608 	andeq	r3, r2, r8, lsl #12
     3cc:	bc082b00 	stclt	11, cr2, [r8], {-0}
     3d0:	2c000001 	stccs	0, cr0, [r0], {1}
     3d4:	00084308 	andeq	r4, r8, r8, lsl #6
     3d8:	cd082d00 	stcgt	13, cr2, [r8, #-0]
     3dc:	3a000008 	bcc	404 <_start-0x7bfc>
     3e0:	0000e308 	andeq	lr, r0, r8, lsl #6
     3e4:	f0083b00 			; <UNDEFINED> instruction: 0xf0083b00
     3e8:	3c000000 	stccc	0, cr0, [r0], {-0}
     3ec:	0000fd08 	andeq	pc, r0, r8, lsl #26
     3f0:	5e083d00 	cdppl	13, 0, cr3, cr8, cr0, {0}
     3f4:	3e000004 	cdpcc	0, 0, cr0, cr0, cr4, {0}
     3f8:	00044e08 	andeq	r4, r4, r8, lsl #28
     3fc:	79083f00 	stmdbvc	r8, {r8, r9, sl, fp, ip, sp}
     400:	c0000000 	andgt	r0, r0, r0
     404:	066b0800 	strbteq	r0, [fp], -r0, lsl #16
     408:	00c10000 	sbceq	r0, r1, r0
     40c:	0002df08 	andeq	sp, r2, r8, lsl #30
     410:	0800c200 	stmdaeq	r0, {r9, lr, pc}
     414:	0000021d 	andeq	r0, r0, sp, lsl r2
     418:	0c0800c9 	stceq	0, cr0, [r8], {201}	; 0xc9
     41c:	ca000002 	bgt	42c <_start-0x7bd4>
     420:	01a10800 			; <UNDEFINED> instruction: 0x01a10800
     424:	00cb0000 	sbceq	r0, fp, r0
     428:	00018108 	andeq	r8, r1, r8, lsl #2
     42c:	0800cc00 	stmdaeq	r0, {sl, fp, lr, pc}
     430:	0000063b 	andeq	r0, r0, fp, lsr r6
     434:	d00800d3 	ldrdle	r0, [r8], -r3
     438:	d8000001 	stmdale	r0, {r0}
     43c:	078e0800 	streq	r0, [lr, r0, lsl #16]
     440:	00d90000 	sbcseq	r0, r9, r0
     444:	00060008 	andeq	r0, r6, r8
     448:	0800da00 	stmdaeq	r0, {r9, fp, ip, lr, pc}
     44c:	000002ad 	andeq	r0, r0, sp, lsr #5
     450:	fa0800db 	blx	2007c4 <__bss_end__+0x1f4adc>
     454:	dc000007 	stcle	0, cr0, [r0], {7}
     458:	02a30800 	adceq	r0, r3, #0, 16
     45c:	00dd0000 	sbcseq	r0, sp, r0
     460:	00056d08 	andeq	r6, r5, r8, lsl #26
     464:	0800de00 	stmdaeq	r0, {r9, sl, fp, ip, lr, pc}
     468:	0000022e 	andeq	r0, r0, lr, lsr #4
     46c:	090000df 	stmdbeq	r0, {r0, r1, r2, r3, r4, r6, r7}
     470:	96a1020c 	strtls	r0, [r1], ip, lsl #4
     474:	0b000004 	bleq	48c <_start-0x7b74>
     478:	a1020078 	tstge	r2, r8, ror r0
     47c:	00000025 	andeq	r0, r0, r5, lsr #32
     480:	00790b00 	rsbseq	r0, r9, r0, lsl #22
     484:	0025a102 	eoreq	sl, r5, r2, lsl #2
     488:	0b040000 	bleq	100490 <__bss_end__+0xf47a8>
     48c:	a102007a 	tstge	r2, sl, ror r0
     490:	00000025 	andeq	r0, r0, r5, lsr #32
     494:	97040008 	strls	r0, [r4, -r8]
     498:	02000001 	andeq	r0, r0, #1
     49c:	00046fa1 	andeq	r6, r4, r1, lsr #31
     4a0:	01010700 	tsteq	r1, r0, lsl #14
     4a4:	0004b15a 	andeq	fp, r4, sl, asr r1
     4a8:	01d80800 	bicseq	r0, r8, r0, lsl #16
     4ac:	00e90000 	rsceq	r0, r9, r0
     4b0:	01100900 	tsteq	r0, r0, lsl #18
     4b4:	0004e984 	andeq	lr, r4, r4, lsl #19
     4b8:	033d0a00 	teqeq	sp, #0, 20
     4bc:	85010000 	strhi	r0, [r1, #-0]
     4c0:	0000004f 	andeq	r0, r0, pc, asr #32
     4c4:	7a680b00 	bvc	1a030cc <__bss_end__+0x19f73e4>
     4c8:	2c860100 	stfcss	f0, [r6], {0}
     4cc:	04000000 	streq	r0, [r0], #-0
     4d0:	7370640b 	cmnvc	r0, #184549376	; 0xb000000
     4d4:	2c870100 	stfcss	f0, [r7], {0}
     4d8:	08000000 	stmdaeq	r0, {}	; <UNPREDICTABLE>
     4dc:	0008140a 	andeq	r1, r8, sl, lsl #8
     4e0:	2c880100 	stfcss	f0, [r8], {0}
     4e4:	0c000000 	stceq	0, cr0, [r0], {-0}
     4e8:	081a0400 	ldmdaeq	sl, {sl}
     4ec:	89010000 	stmdbhi	r1, {}	; <UNPREDICTABLE>
     4f0:	000004b1 			; <UNDEFINED> instruction: 0x000004b1
     4f4:	0001f410 	andeq	pc, r1, r0, lsl r4	; <UNPREDICTABLE>
     4f8:	254d0200 	strbcs	r0, [sp, #-512]	; 0x200
     4fc:	03000000 	movweq	r0, #0
     500:	00000510 	andeq	r0, r0, r0, lsl r5
     504:	73706411 	cmnvc	r0, #285212672	; 0x11000000
     508:	df4d0200 	svcle	0x004d0200
     50c:	00000002 	andeq	r0, r0, r2
     510:	00028312 	andeq	r8, r2, r2, lsl r3
     514:	965c0100 	ldrbls	r0, [ip], -r0, lsl #2
     518:	10000004 	andne	r0, r0, r4
     51c:	10000080 	andne	r0, r0, r0, lsl #1
     520:	01000000 	mrseq	r0, (UNDEF: 0)
     524:	00054b9c 	muleq	r5, ip, fp
     528:	00781300 	rsbseq	r1, r8, r0, lsl #6
     52c:	00255c01 	eoreq	r5, r5, r1, lsl #24
     530:	51010000 	mrspl	r0, (UNDEF: 1)
     534:	01007913 	tsteq	r0, r3, lsl r9
     538:	0000255c 	andeq	r2, r0, ip, asr r5
     53c:	13520100 	cmpne	r2, #0, 2
     540:	5c01007a 	stcpl	0, cr0, [r1], {122}	; 0x7a
     544:	00000025 	andeq	r0, r0, r5, lsr #32
     548:	12005301 	andne	r5, r0, #67108864	; 0x4000000
     54c:	00000091 	muleq	r0, r1, r0
     550:	00258b01 	eoreq	r8, r5, r1, lsl #22
     554:	80200000 	eorhi	r0, r0, r0
     558:	000c0000 	andeq	r0, ip, r0
     55c:	9c010000 	stcls	0, cr0, [r1], {-0}
     560:	0000058e 	andeq	r0, r0, lr, lsl #11
     564:	00696814 	rsbeq	r6, r9, r4, lsl r8
     568:	004f8b01 	subeq	r8, pc, r1, lsl #22
     56c:	00000000 	andeq	r0, r0, r0
     570:	6c130000 	ldcvs	0, cr0, [r3], {-0}
     574:	8b01006f 	blhi	40738 <__bss_end__+0x34a50>
     578:	0000004f 	andeq	r0, r0, pc, asr #32
     57c:	52155101 	andspl	r5, r5, #1073741824	; 0x40000000
     580:	01000001 	tsteq	r0, r1
     584:	00003a8c 	andeq	r3, r0, ip, lsl #21
     588:	00002100 	andeq	r2, r0, r0, lsl #2
     58c:	b0120000 	andslt	r0, r2, r0
     590:	01000001 	tsteq	r0, r1
     594:	00002591 	muleq	r0, r1, r5
     598:	00802c00 	addeq	r2, r0, r0, lsl #24
     59c:	00001c00 	andeq	r1, r0, r0, lsl #24
     5a0:	c49c0100 	ldrgt	r0, [ip], #256	; 0x100
     5a4:	14000005 	strne	r0, [r0], #-5
     5a8:	91010076 	tstls	r1, r6, ror r0
     5ac:	00000025 	andeq	r0, r0, r5, lsr #32
     5b0:	00000034 	andeq	r0, r0, r4, lsr r0
     5b4:	00079a16 	andeq	r9, r7, r6, lsl sl
     5b8:	25910100 	ldrcs	r0, [r1, #256]	; 0x100
     5bc:	55000000 	strpl	r0, [r0, #-0]
     5c0:	00000000 	andeq	r0, r0, r0
     5c4:	00080f12 	andeq	r0, r8, r2, lsl pc
     5c8:	96a20100 	strtls	r0, [r2], r0, lsl #2
     5cc:	48000004 	stmdami	r0, {r2}
     5d0:	68000080 	stmdavs	r0, {r7}
     5d4:	01000000 	mrseq	r0, (UNDEF: 0)
     5d8:	00069a9c 	muleq	r6, ip, sl
     5dc:	00681400 	rsbeq	r1, r8, r0, lsl #8
     5e0:	069aa201 	ldreq	sl, [sl], r1, lsl #4
     5e4:	00760000 	rsbseq	r0, r6, r0
     5e8:	78130000 	ldmdavc	r3, {}	; <UNPREDICTABLE>
     5ec:	01007a79 	tsteq	r0, r9, ror sl
     5f0:	000496a2 	andeq	r9, r4, r2, lsr #13
     5f4:	78910200 	ldmvc	r1, {r9}
     5f8:	01007317 	tsteq	r0, r7, lsl r3
     5fc:	000025a3 	andeq	r2, r0, r3, lsr #11
     600:	00009700 	andeq	r9, r0, r0, lsl #14
     604:	00781700 	rsbseq	r1, r8, r0, lsl #14
     608:	0025a401 	eoreq	sl, r5, r1, lsl #8
     60c:	00aa0000 	adceq	r0, sl, r0
     610:	79170000 	ldmdbvc	r7, {}	; <UNPREDICTABLE>
     614:	25a50100 	strcs	r0, [r5, #256]!	; 0x100
     618:	c8000000 	stmdagt	r0, {}	; <UNPREDICTABLE>
     61c:	17000000 	strne	r0, [r0, -r0]
     620:	a601007a 			; <UNDEFINED> instruction: 0xa601007a
     624:	00000025 	andeq	r0, r0, r5, lsr #32
     628:	000000e6 	andeq	r0, r0, r6, ror #1
     62c:	00806c18 	addeq	r6, r0, r8, lsl ip
     630:	00058e00 	andeq	r8, r5, r0, lsl #28
     634:	00064700 	andeq	r4, r6, r0, lsl #14
     638:	51011900 	tstpl	r1, r0, lsl #18
     63c:	19007402 	stmdbne	r0, {r1, sl, ip, sp, lr}
     640:	7d035001 	stcvc	0, cr5, [r3, #-4]
     644:	18000618 	stmdane	r0, {r3, r4, r9, sl}
     648:	0000807c 	andeq	r8, r0, ip, ror r0
     64c:	0000058e 	andeq	r0, r0, lr, lsl #11
     650:	00000662 	andeq	r0, r0, r2, ror #12
     654:	02510119 	subseq	r0, r1, #1073741830	; 0x40000006
     658:	01190074 	tsteq	r9, r4, ror r0
     65c:	64910350 	ldrvs	r0, [r1], #848	; 0x350
     660:	8c180006 	ldchi	0, cr0, [r8], {6}
     664:	8e000080 	cdphi	0, 0, cr0, cr0, cr0, {4}
     668:	7d000005 	stcvc	0, cr0, [r0, #-20]	; 0xffffffec
     66c:	19000006 	stmdbne	r0, {r1, r2}
     670:	74025101 	strvc	r5, [r2], #-257	; 0x101
     674:	50011900 	andpl	r1, r1, r0, lsl #18
     678:	06689103 	strbteq	r9, [r8], -r3, lsl #2
     67c:	80a01a00 	adchi	r1, r0, r0, lsl #20
     680:	05100000 	ldreq	r0, [r0, #-0]
     684:	01190000 	tsteq	r9, r0
     688:	00760252 	rsbseq	r0, r6, r2, asr r2
     68c:	02510119 	subseq	r0, r1, #1073741830	; 0x40000006
     690:	01190077 	tsteq	r9, r7, ror r0
     694:	00750250 	rsbseq	r0, r5, r0, asr r2
     698:	04050000 	streq	r0, [r5], #-0
     69c:	000004e9 	andeq	r0, r0, r9, ror #9
     6a0:	0009041b 	andeq	r0, r9, fp, lsl r4
     6a4:	b0e70100 	rsclt	r0, r7, r0, lsl #2
     6a8:	b0000080 	andlt	r0, r0, r0, lsl #1
     6ac:	01000000 	mrseq	r0, (UNDEF: 0)
     6b0:	0007b99c 	muleq	r7, ip, r9
     6b4:	046e1600 	strbteq	r1, [lr], #-1536	; 0x600
     6b8:	e7010000 	str	r0, [r1, -r0]
     6bc:	00000025 	andeq	r0, r0, r5, lsr #32
     6c0:	00000104 	andeq	r0, r0, r4, lsl #2
     6c4:	01006814 	tsteq	r0, r4, lsl r8
     6c8:	00004fe7 	andeq	r4, r0, r7, ror #31
     6cc:	00013000 	andeq	r3, r1, r0
     6d0:	006c1400 	rsbeq	r1, ip, r0, lsl #8
     6d4:	004fe701 	subeq	lr, pc, r1, lsl #14
     6d8:	01510000 	cmpeq	r1, r0
     6dc:	9a160000 	bls	5806e4 <__bss_end__+0x5749fc>
     6e0:	01000007 	tsteq	r0, r7
     6e4:	000025e7 	andeq	r2, r0, r7, ror #11
     6e8:	00017200 	andeq	r7, r1, r0, lsl #4
     6ec:	00761700 	rsbseq	r1, r6, r0, lsl #14
     6f0:	0025e801 	eoreq	lr, r5, r1, lsl #16
     6f4:	019e0000 	orrseq	r0, lr, r0
     6f8:	73170000 	tstvc	r7, #0
     6fc:	25ea0100 	strbcs	r0, [sl, #256]!	; 0x100
     700:	bc000000 	stclt	0, cr0, [r0], {-0}
     704:	1c000001 	stcne	0, cr0, [r0], {1}
     708:	0000006c 	andeq	r0, r0, ip, rrx
     70c:	000007c9 	andeq	r0, r0, r9, asr #15
     710:	aba40305 	blge	fe90132c <__bss_end__+0xfe8f5644>
     714:	cc1d0000 	ldcgt	0, cr0, [sp], {-0}
     718:	4b000080 	blmi	920 <_start-0x76e0>
     71c:	18000005 	stmdane	r0, {r0, r2}
     720:	000080d8 	ldrdeq	r8, [r0], -r8	; <UNPREDICTABLE>
     724:	0000058e 	andeq	r0, r0, lr, lsl #11
     728:	00000739 	andeq	r0, r0, r9, lsr r7
     72c:	02510119 	subseq	r0, r1, #1073741830	; 0x40000006
     730:	01190076 	tsteq	r9, r6, ror r0
     734:	00770250 	rsbseq	r0, r7, r0, asr r2
     738:	80fc1800 	rscshi	r1, ip, r0, lsl #16
     73c:	19a00000 	stmibne	r0!, {}	; <UNPREDICTABLE>
     740:	07620000 	strbeq	r0, [r2, -r0]!
     744:	01190000 	tsteq	r9, r0
     748:	00750253 	rsbseq	r0, r5, r3, asr r2
     74c:	02520119 	subseq	r0, r2, #1073741830	; 0x40000006
     750:	01190074 	tsteq	r9, r4, ror r0
     754:	00770251 	rsbseq	r0, r7, r1, asr r2
     758:	05500119 	ldrbeq	r0, [r0, #-281]	; 0x119
     75c:	00ac3403 	adceq	r3, ip, r3, lsl #8
     760:	201d0000 	andscs	r0, sp, r0
     764:	b6000081 	strlt	r0, [r0], -r1, lsl #1
     768:	18000019 	stmdane	r0, {r0, r3, r4}
     76c:	00008140 	andeq	r8, r0, r0, asr #2
     770:	000019a0 	andeq	r1, r0, r0, lsr #19
     774:	000007af 	andeq	r0, r0, pc, lsr #15
     778:	02530119 	subseq	r0, r3, #1073741830	; 0x40000006
     77c:	0119f108 	tsteq	r9, r8, lsl #2
     780:	a4030552 	strge	r0, [r3], #-1362	; 0x552
     784:	190000ab 	stmdbne	r0, {r0, r1, r3, r5, r7}
     788:	03055101 	movweq	r5, #20737	; 0x5101
     78c:	0000ac88 	andeq	sl, r0, r8, lsl #25
     790:	05500119 	ldrbeq	r0, [r0, #-281]	; 0x119
     794:	00ac5403 	adceq	r5, ip, r3, lsl #8
     798:	7d021900 	stcvc	9, cr1, [r2, #-0]
     79c:	00760208 	rsbseq	r0, r6, r8, lsl #4
     7a0:	047d0219 	ldrbteq	r0, [sp], #-537	; 0x219
     7a4:	19007402 	stmdbne	r0, {r1, sl, ip, sp, lr}
     7a8:	02007d02 	andeq	r7, r0, #2, 26	; 0x80
     7ac:	1d000075 	stcne	0, cr0, [r0, #-468]	; 0xfffffe2c
     7b0:	00008144 	andeq	r8, r0, r4, asr #2
     7b4:	000019bd 			; <UNDEFINED> instruction: 0x000019bd
     7b8:	00881e00 	addeq	r1, r8, r0, lsl #28
     7bc:	07c90000 	strbeq	r0, [r9, r0]
     7c0:	811f0000 	tsthi	pc, r0
     7c4:	08000000 	stmdaeq	r0, {}	; <UNPREDICTABLE>
     7c8:	07b90600 	ldreq	r0, [r9, r0, lsl #12]!
     7cc:	d2200000 	eorle	r0, r0, #0
     7d0:	01000002 	tsteq	r0, r2
     7d4:	00816014 	addeq	r6, r1, r4, lsl r0
     7d8:	0000f000 	andeq	pc, r0, r0
     7dc:	6d9c0100 	ldfvss	f0, [ip]
     7e0:	15000009 	strne	r0, [r0, #-9]
     7e4:	000002d7 	ldrdeq	r0, [r0], -r7
     7e8:	023b1701 	eorseq	r1, fp, #262144	; 0x40000
     7ec:	01cf0000 	biceq	r0, pc, r0
     7f0:	6c1c0000 	ldcvs	0, cr0, [ip], {-0}
     7f4:	7d000000 	stcvc	0, cr0, [r0, #-0]
     7f8:	05000009 	streq	r0, [r0, #-9]
     7fc:	00abb003 	adceq	fp, fp, r3
     800:	817c2100 	cmnhi	ip, r0, lsl #2
     804:	00580000 	subseq	r0, r8, r0
     808:	08940000 	ldmeq	r4, {}	; <UNPREDICTABLE>
     80c:	69170000 	ldmdbvs	r7, {}	; <UNPREDICTABLE>
     810:	25190100 	ldrcs	r0, [r9, #-256]	; 0x100
     814:	ed000000 	stc	0, cr0, [r0, #-0]
     818:	18000001 	stmdane	r0, {r0}
     81c:	00008190 	muleq	r0, r0, r1
     820:	000019c4 	andeq	r1, r0, r4, asr #19
     824:	0000082f 	andeq	r0, r0, pc, lsr #16
     828:	02500119 	subseq	r0, r0, #1073741830	; 0x40000006
     82c:	1d000075 	stcne	0, cr0, [r0, #-468]	; 0xfffffe2c
     830:	0000819c 	muleq	r0, ip, r1
     834:	000019b6 			; <UNDEFINED> instruction: 0x000019b6
     838:	0081b018 	addeq	fp, r1, r8, lsl r0
     83c:	0019a000 	andseq	sl, r9, r0
     840:	00086600 	andeq	r6, r8, r0, lsl #12
     844:	53011900 	movwpl	r1, #6400	; 0x1900
     848:	01194a01 	tsteq	r9, r1, lsl #20
     84c:	b0030552 	andlt	r0, r3, r2, asr r5
     850:	190000ab 	stmdbne	r0, {r0, r1, r3, r5, r7}
     854:	03055101 	movweq	r5, #20737	; 0x5101
     858:	0000ac88 	andeq	sl, r0, r8, lsl #25
     85c:	05500119 	ldrbeq	r0, [r0, #-281]	; 0x119
     860:	00acac03 	adceq	sl, ip, r3, lsl #24
     864:	b41d0000 	ldrlt	r0, [sp], #-0
     868:	bd000081 	stclt	0, cr0, [r0, #-516]	; 0xfffffdfc
     86c:	18000019 	stmdane	r0, {r0, r3, r4}
     870:	000081bc 			; <UNDEFINED> instruction: 0x000081bc
     874:	000019d9 	ldrdeq	r1, [r0], -r9
     878:	00000883 	andeq	r0, r0, r3, lsl #17
     87c:	02500119 	subseq	r0, r0, #1073741830	; 0x40000006
     880:	1a000075 	bne	a5c <_start-0x75a4>
     884:	000081c4 	andeq	r8, r0, r4, asr #3
     888:	000019ea 	andeq	r1, r0, sl, ror #19
     88c:	02500119 	subseq	r0, r0, #1073741830	; 0x40000006
     890:	00000076 	andeq	r0, r0, r6, ror r0
     894:	0081d421 	addeq	sp, r1, r1, lsr #8
     898:	00005400 	andeq	r5, r0, r0, lsl #8
     89c:	00092a00 	andeq	r2, r9, r0, lsl #20
     8a0:	00692200 	rsbeq	r2, r9, r0, lsl #4
     8a4:	00251f01 	eoreq	r1, r5, r1, lsl #30
     8a8:	54010000 	strpl	r0, [r1], #-0
     8ac:	0081e418 	addeq	lr, r1, r8, lsl r4
     8b0:	0019fb00 	andseq	pc, r9, r0, lsl #22
     8b4:	0008c000 	andeq	ip, r8, r0
     8b8:	50011900 	andpl	r1, r1, r0, lsl #18
     8bc:	00007502 	andeq	r7, r0, r2, lsl #10
     8c0:	0081ec18 	addeq	lr, r1, r8, lsl ip
     8c4:	0019ea00 	andseq	lr, r9, r0, lsl #20
     8c8:	0008d400 	andeq	sp, r8, r0, lsl #8
     8cc:	50011900 	andpl	r1, r1, r0, lsl #18
     8d0:	00007602 	andeq	r7, r0, r2, lsl #12
     8d4:	0081f418 	addeq	pc, r1, r8, lsl r4	; <UNPREDICTABLE>
     8d8:	0019c400 	andseq	ip, r9, r0, lsl #8
     8dc:	0008e800 	andeq	lr, r8, r0, lsl #16
     8e0:	50011900 	andpl	r1, r1, r0, lsl #18
     8e4:	00007502 	andeq	r7, r0, r2, lsl #10
     8e8:	0082041d 	addeq	r0, r2, sp, lsl r4
     8ec:	0019b600 	andseq	fp, r9, r0, lsl #12
     8f0:	82181800 	andshi	r1, r8, #0, 16
     8f4:	19a00000 	stmibne	r0!, {}	; <UNPREDICTABLE>
     8f8:	09200000 	stmdbeq	r0!, {}	; <UNPREDICTABLE>
     8fc:	01190000 	tsteq	r9, r0
     900:	22080253 	andcs	r0, r8, #805306373	; 0x30000005
     904:	05520119 	ldrbeq	r0, [r2, #-281]	; 0x119
     908:	00abb003 	adceq	fp, fp, r3
     90c:	51011900 	tstpl	r1, r0, lsl #18
     910:	ac880305 	stcge	3, cr0, [r8], {5}
     914:	01190000 	tsteq	r9, r0
     918:	e8030550 	stmda	r3, {r4, r6, r8, sl}
     91c:	000000ac 	andeq	r0, r0, ip, lsr #1
     920:	00821c1d 	addeq	r1, r2, sp, lsl ip
     924:	0019bd00 	andseq	fp, r9, r0, lsl #26
     928:	6c180000 	ldcvs	0, cr0, [r8], {-0}
     92c:	a0000081 	andge	r0, r0, r1, lsl #1
     930:	41000019 	tstmi	r0, r9, lsl r0
     934:	19000009 	stmdbne	r0, {r0, r3}
     938:	03055001 	movweq	r5, #20481	; 0x5001
     93c:	0000ac98 	muleq	r0, r8, ip
     940:	81781800 	cmnhi	r8, r0, lsl #16
     944:	1a0c0000 	bne	30094c <__bss_end__+0x2f4c64>
     948:	09590000 	ldmdbeq	r9, {}^	; <UNPREDICTABLE>
     94c:	01190000 	tsteq	r9, r0
     950:	19440151 	stmdbne	r4, {r0, r4, r6, r8}^
     954:	45015001 	strmi	r5, [r1, #-1]
     958:	82301a00 	eorshi	r1, r0, #0, 20
     95c:	19a00000 	stmibne	r0!, {}	; <UNPREDICTABLE>
     960:	01190000 	tsteq	r9, r0
     964:	2c030550 	cfstr32cs	mvfx0, [r3], {80}	; 0x50
     968:	000000ad 	andeq	r0, r0, sp, lsr #1
     96c:	00881e00 	addeq	r1, r8, r0, lsl #28
     970:	097d0000 	ldmdbeq	sp!, {}^	; <UNPREDICTABLE>
     974:	811f0000 	tsthi	pc, r0
     978:	0c000000 	stceq	0, cr0, [r0], {-0}
     97c:	096d0600 	stmdbeq	sp!, {r9, sl}^
     980:	85200000 	strhi	r0, [r0, #-0]!
     984:	01000005 	tsteq	r0, r5
     988:	00825028 	addeq	r5, r2, r8, lsr #32
     98c:	0001b800 	andeq	fp, r1, r0, lsl #16
     990:	d89c0100 	ldmle	ip, {r8}
     994:	1500000b 	strne	r0, [r0, #-11]
     998:	000002d7 	ldrdeq	r0, [r0], -r7
     99c:	0bd82a01 	bleq	ff60b1a8 <__bss_end__+0xff5ff4c0>
     9a0:	020c0000 	andeq	r0, ip, #0
     9a4:	34230000 	strtcc	r0, [r3], #-0
     9a8:	01000004 	tsteq	r0, r4
     9ac:	0000252d 	andeq	r2, r0, sp, lsr #10
     9b0:	2b15c800 	blcs	5729b8 <__bss_end__+0x566cd0>
     9b4:	01000006 	tsteq	r0, r6
     9b8:	00002c30 	andeq	r2, r0, r0, lsr ip
     9bc:	00022a00 	andeq	r2, r2, r0, lsl #20
     9c0:	08bf1500 	ldmeq	pc!, {r8, sl, ip}	; <UNPREDICTABLE>
     9c4:	34010000 	strcc	r0, [r1], #-0
     9c8:	0000002c 	andeq	r0, r0, ip, lsr #32
     9cc:	00000248 	andeq	r0, r0, r8, asr #4
     9d0:	0007dc23 	andeq	sp, r7, r3, lsr #24
     9d4:	2c390100 	ldfcss	f0, [r9], #-0
     9d8:	04000000 	streq	r0, [r0], #-0
     9dc:	0007e024 	andeq	lr, r7, r4, lsr #32
     9e0:	de3a0100 	rsflee	f0, f2, f0
     9e4:	0200000b 	andeq	r0, r0, #11
     9e8:	6c1c4091 	ldcvs	0, cr4, [ip], {145}	; 0x91
     9ec:	ff000000 			; <UNDEFINED> instruction: 0xff000000
     9f0:	0500000b 	streq	r0, [r0, #-11]
     9f4:	00abc003 	adceq	ip, fp, r3
     9f8:	82e02100 	rschi	r2, r0, #0, 2
     9fc:	00600000 	rsbeq	r0, r0, r0
     a00:	0a2f0000 	beq	bc0a08 <__bss_end__+0xbb4d20>
     a04:	69170000 	ldmdbvs	r7, {}	; <UNPREDICTABLE>
     a08:	253b0100 	ldrcs	r0, [fp, #-256]!	; 0x100
     a0c:	66000000 	strvs	r0, [r0], -r0
     a10:	1a000002 	bne	a20 <_start-0x75e0>
     a14:	00008320 	andeq	r8, r0, r0, lsr #6
     a18:	00001a26 	andeq	r1, r0, r6, lsr #20
     a1c:	07520119 	smmlaeq	r2, r9, r1, r0
     a20:	1c007434 	cfstrsne	mvf7, [r0], {52}	; 0x34
     a24:	191e0077 	ldmdbne	lr, {r0, r1, r2, r4, r5, r6}
     a28:	76025001 	strvc	r5, [r2], -r1
     a2c:	21000000 	mrscs	r0, (UNDEF: 0)
     a30:	00008340 	andeq	r8, r0, r0, asr #6
     a34:	00000090 	muleq	r0, r0, r0
     a38:	00000ae1 	andeq	r0, r0, r1, ror #21
     a3c:	01006917 	tsteq	r0, r7, lsl r9
     a40:	0000253f 	andeq	r2, r0, pc, lsr r5
     a44:	0002b300 	andeq	fp, r2, r0, lsl #6
     a48:	83402500 	movthi	r2, #1280	; 0x500
     a4c:	00840000 	addeq	r0, r4, r0
     a50:	70170000 	andsvc	r0, r7, r0
     a54:	0100736f 	tsteq	r0, pc, ror #6
     a58:	00002541 	andeq	r2, r0, r1, asr #10
     a5c:	0002dc00 	andeq	sp, r2, r0, lsl #24
     a60:	83641d00 	cmnhi	r4, #0, 26
     a64:	1a450000 	bne	1140a6c <__bss_end__+0x1134d84>
     a68:	74180000 	ldrvc	r0, [r8], #-0
     a6c:	5a000083 	bpl	c80 <_start-0x7380>
     a70:	7e00001a 	mcrvc	0, 0, r0, cr0, cr10, {0}
     a74:	1900000a 	stmdbne	r0, {r1, r3}
     a78:	76025001 	strvc	r5, [r2], -r1
     a7c:	88180000 	ldmdahi	r8, {}	; <UNPREDICTABLE>
     a80:	a0000083 	andge	r0, r0, r3, lsl #1
     a84:	9e000019 	mcrls	0, 0, r0, cr0, cr9, {0}
     a88:	1900000a 	stmdbne	r0, {r1, r3}
     a8c:	74025201 	strvc	r5, [r2], #-513	; 0x201
     a90:	51011900 	tstpl	r1, r0, lsl #18
     a94:	19007502 	stmdbne	r0, {r1, r8, sl, ip, sp, lr}
     a98:	79025001 	stmdbvc	r2, {r0, ip, lr}
     a9c:	ac1d0000 	ldcge	0, cr0, [sp], {-0}
     aa0:	b6000083 	strlt	r0, [r0], -r3, lsl #1
     aa4:	18000019 	stmdane	r0, {r0, r3, r4}
     aa8:	000083c0 	andeq	r8, r0, r0, asr #7
     aac:	000019a0 	andeq	r1, r0, r0, lsr #19
     ab0:	00000ad6 	ldrdeq	r0, [r0], -r6
     ab4:	02530119 	subseq	r0, r3, #1073741830	; 0x40000006
     ab8:	01194308 	tsteq	r9, r8, lsl #6
     abc:	c0030552 	andgt	r0, r3, r2, asr r5
     ac0:	190000ab 	stmdbne	r0, {r0, r1, r3, r5, r7}
     ac4:	03055101 	movweq	r5, #20737	; 0x5101
     ac8:	0000ac88 	andeq	sl, r0, r8, lsl #25
     acc:	05500119 	ldrbeq	r0, [r0, #-281]	; 0x119
     ad0:	00ae2003 	adceq	r2, lr, r3
     ad4:	c41d0000 	ldrgt	r0, [sp], #-0
     ad8:	bd000083 	stclt	0, cr0, [r0, #-524]	; 0xfffffdf4
     adc:	00000019 	andeq	r0, r0, r9, lsl r0
     ae0:	82601800 	rsbhi	r1, r0, #0, 16
     ae4:	19a00000 	stmibne	r0!, {}	; <UNPREDICTABLE>
     ae8:	0af80000 	beq	ffe00af0 <__bss_end__+0xffdf4e08>
     aec:	01190000 	tsteq	r9, r0
     af0:	58030550 	stmdapl	r3, {r4, r6, r8, sl}
     af4:	000000ad 	andeq	r0, r0, sp, lsr #1
     af8:	00826c18 	addeq	r6, r2, r8, lsl ip
     afc:	001a6f00 	andseq	r6, sl, r0, lsl #30
     b00:	000b1000 	andeq	r1, fp, r0
     b04:	51011900 	tstpl	r1, r0, lsl #18
     b08:	01194401 	tsteq	r9, r1, lsl #8
     b0c:	00450150 	subeq	r0, r5, r0, asr r1
     b10:	00828418 	addeq	r8, r2, r8, lsl r4
     b14:	0019a000 	andseq	sl, r9, r0
     b18:	000b3300 	andeq	r3, fp, r0, lsl #6
     b1c:	52011900 	andpl	r1, r1, #0, 18
     b20:	19007502 	stmdbne	r0, {r1, r8, sl, ip, sp, lr}
     b24:	08025101 	stmdaeq	r2, {r0, r8, ip, lr}
     b28:	500119c8 	andpl	r1, r1, r8, asr #19
     b2c:	ad7c0305 	ldclge	3, cr0, [ip, #-20]!	; 0xffffffec
     b30:	1d000000 	stcne	0, cr0, [r0, #-0]
     b34:	00008288 	andeq	r8, r0, r8, lsl #5
     b38:	00001a89 	andeq	r1, r0, r9, lsl #21
     b3c:	00829c18 	addeq	r9, r2, r8, lsl ip
     b40:	001a2600 	andseq	r2, sl, r0, lsl #12
     b44:	000b5c00 	andeq	r5, fp, r0, lsl #24
     b48:	52011900 	andpl	r1, r1, #0, 18
     b4c:	19007502 	stmdbne	r0, {r1, r8, sl, ip, sp, lr}
     b50:	08025101 	stmdaeq	r2, {r0, r8, ip, lr}
     b54:	500119c8 	andpl	r1, r1, r8, asr #19
     b58:	00007602 	andeq	r7, r0, r2, lsl #12
     b5c:	0082a418 	addeq	sl, r2, r8, lsl r4
     b60:	001a9400 	andseq	r9, sl, r0, lsl #8
     b64:	000b7000 	andeq	r7, fp, r0
     b68:	50011900 	andpl	r1, r1, r0, lsl #18
     b6c:	00007602 	andeq	r7, r0, r2, lsl #12
     b70:	0082b01d 	addeq	fp, r2, sp, lsl r0
     b74:	001a8900 	andseq	r8, sl, r0, lsl #18
     b78:	82bc1800 	adcshi	r1, ip, #0, 16
     b7c:	1a5a0000 	bne	1680b84 <__bss_end__+0x1674e9c>
     b80:	0b8d0000 	bleq	fe340b88 <__bss_end__+0xfe334ea0>
     b84:	01190000 	tsteq	r9, r0
     b88:	00760250 	rsbseq	r0, r6, r0, asr r2
     b8c:	82e01800 	rschi	r1, r0, #0, 16
     b90:	19a00000 	stmibne	r0!, {}	; <UNPREDICTABLE>
     b94:	0bc40000 	bleq	ff100b9c <__bss_end__+0xff0f4eb4>
     b98:	01190000 	tsteq	r9, r0
     b9c:	400c0553 	andmi	r0, ip, r3, asr r5
     ba0:	19000f42 	stmdbne	r0, {r1, r6, r8, r9, sl, fp}
     ba4:	75055201 	strvc	r5, [r5, #-513]	; 0x201
     ba8:	1c007400 	cfstrsne	mvf7, [r0], {-0}
     bac:	05500119 	ldrbeq	r0, [r0, #-281]	; 0x119
     bb0:	00adc003 	adceq	ip, sp, r3
     bb4:	7d021900 	stcvc	9, cr1, [r2, #-0]
     bb8:	00740900 	rsbseq	r0, r4, r0, lsl #18
     bbc:	231c0075 	tstcs	ip, #117	; 0x75
     bc0:	003d84c0 	eorseq	r8, sp, r0, asr #9
     bc4:	0083d81a 	addeq	sp, r3, sl, lsl r8
     bc8:	0019a000 	andseq	sl, r9, r0
     bcc:	50011900 	andpl	r1, r1, r0, lsl #18
     bd0:	ae540305 	cdpge	3, 5, cr0, cr4, cr5, {0}
     bd4:	00000000 	andeq	r0, r0, r0
     bd8:	02410405 	subeq	r0, r1, #83886080	; 0x5000000
     bdc:	fd1e0000 	ldc2	0, cr0, [lr, #-0]
     be0:	ef000001 	svc	0x00000001
     be4:	2600000b 	strcs	r0, [r0], -fp
     be8:	00000081 	andeq	r0, r0, r1, lsl #1
     bec:	1e003301 	cdpne	3, 0, cr3, cr0, cr1, {0}
     bf0:	00000088 	andeq	r0, r0, r8, lsl #1
     bf4:	00000bff 	strdeq	r0, [r0], -pc	; <UNPREDICTABLE>
     bf8:	0000811f 	andeq	r8, r0, pc, lsl r1
     bfc:	06001c00 	streq	r1, [r0], -r0, lsl #24
     c00:	00000bef 	andeq	r0, r0, pc, ror #23
     c04:	00084d27 	andeq	r4, r8, r7, lsr #26
     c08:	08480100 	stmdaeq	r8, {r8}^
     c0c:	b8000084 	stmdalt	r0, {r2, r7}
     c10:	01000000 	mrseq	r0, (UNDEF: 0)
     c14:	000d1a9c 	muleq	sp, ip, sl
     c18:	02d71500 	sbcseq	r1, r7, #0, 10
     c1c:	4a010000 	bmi	40c24 <__bss_end__+0x34f3c>
     c20:	0000023b 	andeq	r0, r0, fp, lsr r2
     c24:	000002fa 	strdeq	r0, [r0], -sl
     c28:	00844821 	addeq	r4, r4, r1, lsr #16
     c2c:	00003000 	andeq	r3, r0, r0
     c30:	000c6700 	andeq	r6, ip, r0, lsl #14
     c34:	00691700 	rsbeq	r1, r9, r0, lsl #14
     c38:	00254c01 	eoreq	r4, r5, r1, lsl #24
     c3c:	03180000 	tsteq	r8, #0
     c40:	60180000 	andsvs	r0, r8, r0
     c44:	d9000084 	stmdble	r0, {r2, r7}
     c48:	56000019 			; <UNDEFINED> instruction: 0x56000019
     c4c:	1900000c 	stmdbne	r0, {r2, r3}
     c50:	75025001 	strvc	r5, [r2, #-1]
     c54:	681a0000 	ldmdavs	sl, {}	; <UNPREDICTABLE>
     c58:	ea000084 	b	e70 <_start-0x7190>
     c5c:	19000019 	stmdbne	r0, {r0, r3, r4}
     c60:	77025001 	strvc	r5, [r2, -r1]
     c64:	21000000 	mrscs	r0, (UNDEF: 0)
     c68:	00008478 	andeq	r8, r0, r8, ror r4
     c6c:	00000028 	andeq	r0, r0, r8, lsr #32
     c70:	00000ca6 	andeq	r0, r0, r6, lsr #25
     c74:	01006917 	tsteq	r0, r7, lsl r9
     c78:	00002551 	andeq	r2, r0, r1, asr r5
     c7c:	00033700 	andeq	r3, r3, r0, lsl #14
     c80:	848c1800 	strhi	r1, [ip], #2048	; 0x800
     c84:	19fb0000 	ldmibne	fp!, {}^	; <UNPREDICTABLE>
     c88:	0c950000 	ldceq	0, cr0, [r5], {0}
     c8c:	01190000 	tsteq	r9, r0
     c90:	00750250 	rsbseq	r0, r5, r0, asr r2
     c94:	84941a00 	ldrhi	r1, [r4], #2560	; 0xa00
     c98:	19ea0000 	stmibne	sl!, {}^	; <UNPREDICTABLE>
     c9c:	01190000 	tsteq	r9, r0
     ca0:	00770250 	rsbseq	r0, r7, r0, asr r2
     ca4:	18180000 	ldmdane	r8, {}	; <UNPREDICTABLE>
     ca8:	a0000084 	andge	r0, r0, r4, lsl #1
     cac:	bd000019 	stclt	0, cr0, [r0, #-100]	; 0xffffff9c
     cb0:	1900000c 	stmdbne	r0, {r2, r3}
     cb4:	03055001 	movweq	r5, #20481	; 0x5001
     cb8:	0000ae60 	andeq	sl, r0, r0, ror #28
     cbc:	843c1800 	ldrthi	r1, [ip], #-2048	; 0x800
     cc0:	1aa90000 	bne	fea40cc8 <__bss_end__+0xfea34fe0>
     cc4:	0cec0000 	stcleq	0, cr0, [ip]
     cc8:	01190000 	tsteq	r9, r0
     ccc:	19430153 	stmdbne	r3, {r0, r1, r4, r6, r8}^
     cd0:	3d015201 	sfmcc	f5, 4, [r1, #-4]
     cd4:	01510119 	cmpeq	r1, r9, lsl r1
     cd8:	50011944 	andpl	r1, r1, r4, asr #18
     cdc:	02194501 	andseq	r4, r9, #4194304	; 0x400000
     ce0:	7402047d 	strvc	r0, [r2], #-1149	; 0x47d
     ce4:	7d021900 	stcvc	9, cr1, [r2, #-0]
     ce8:	004a0100 	subeq	r0, sl, r0, lsl #2
     cec:	00844818 	addeq	r4, r4, r8, lsl r8
     cf0:	001ad700 	andseq	sp, sl, r0, lsl #14
     cf4:	000d0600 	andeq	r0, sp, r0, lsl #12
     cf8:	51011900 	tstpl	r1, r0, lsl #18
     cfc:	19007402 	stmdbne	r0, {r1, sl, ip, sp, lr}
     d00:	75025001 	strvc	r5, [r2, #-1]
     d04:	a81a0000 	ldmdage	sl, {}	; <UNPREDICTABLE>
     d08:	a0000084 	andge	r0, r0, r4, lsl #1
     d0c:	19000019 	stmdbne	r0, {r0, r3, r4}
     d10:	03055001 	movweq	r5, #20481	; 0x5001
     d14:	0000ae54 	andeq	sl, r0, r4, asr lr
     d18:	e5280000 	str	r0, [r8, #-0]!
     d1c:	01000007 	tsteq	r0, r7
     d20:	00004f62 	andeq	r4, r0, r2, ror #30
     d24:	0084c000 	addeq	ip, r4, r0
     d28:	00009400 	andeq	r9, r0, r0, lsl #8
     d2c:	299c0100 	ldmibcs	ip, {r8}
     d30:	1600000e 	strne	r0, [r0], -lr
     d34:	0000033d 	andeq	r0, r0, sp, lsr r3
     d38:	004f6201 	subeq	r6, pc, r1, lsl #4
     d3c:	034a0000 	movteq	r0, #40960	; 0xa000
     d40:	72140000 	andsvc	r0, r4, #0
     d44:	01006765 	tsteq	r0, r5, ror #14
     d48:	00004f62 	andeq	r4, r0, r2, ror #30
     d4c:	00039d00 	andeq	r9, r3, r0, lsl #26
     d50:	006c1c00 	rsbeq	r1, ip, r0, lsl #24
     d54:	0e390000 	cdpeq	0, 3, cr0, cr9, cr0, {0}
     d58:	03050000 	movweq	r0, #20480	; 0x5000
     d5c:	0000abe0 	andeq	sl, r0, r0, ror #23
     d60:	01007622 	tsteq	r0, r2, lsr #12
     d64:	00004f67 	andeq	r4, r0, r7, ror #30
     d68:	77910200 	ldrvc	r0, [r1, r0, lsl #4]
     d6c:	0084d81d 	addeq	sp, r4, sp, lsl r8
     d70:	0019b600 	andseq	fp, r9, r0, lsl #12
     d74:	84ec1800 	strbthi	r1, [ip], #2048	; 0x800
     d78:	19a00000 	stmibne	r0!, {}	; <UNPREDICTABLE>
     d7c:	0da40000 	stceq	0, cr0, [r4]
     d80:	01190000 	tsteq	r9, r0
     d84:	63080253 	movwvs	r0, #33363	; 0x8253
     d88:	05520119 	ldrbeq	r0, [r2, #-281]	; 0x119
     d8c:	00abe003 	adceq	lr, fp, r3
     d90:	51011900 	tstpl	r1, r0, lsl #18
     d94:	ac880305 	stcge	3, cr0, [r8], {5}
     d98:	01190000 	tsteq	r9, r0
     d9c:	7c030550 	cfstr32vc	mvfx0, [r3], {80}	; 0x50
     da0:	000000ae 	andeq	r0, r0, lr, lsr #1
     da4:	0084f01d 	addeq	pc, r4, sp, lsl r0	; <UNPREDICTABLE>
     da8:	0019bd00 	andseq	fp, r9, r0, lsl #26
     dac:	85001d00 	strhi	r1, [r0, #-3328]	; 0xd00
     db0:	19b60000 	ldmibne	r6!, {}	; <UNPREDICTABLE>
     db4:	14180000 	ldrne	r0, [r8], #-0
     db8:	a0000085 	andge	r0, r0, r5, lsl #1
     dbc:	e5000019 	str	r0, [r0, #-25]
     dc0:	1900000d 	stmdbne	r0, {r0, r2, r3}
     dc4:	08025301 	stmdaeq	r2, {r0, r8, r9, ip, lr}
     dc8:	52011964 	andpl	r1, r1, #100, 18	; 0x190000
     dcc:	abe00305 	blge	ff8019e8 <__bss_end__+0xff7f5d00>
     dd0:	01190000 	tsteq	r9, r0
     dd4:	88030551 	stmdahi	r3, {r0, r4, r6, r8, sl}
     dd8:	190000ac 	stmdbne	r0, {r2, r3, r5, r7}
     ddc:	03055001 	movweq	r5, #20481	; 0x5001
     de0:	0000ae94 	muleq	r0, r4, lr
     de4:	85181d00 	ldrhi	r1, [r8, #-3328]	; 0xd00
     de8:	19bd0000 	ldmibne	sp!, {}	; <UNPREDICTABLE>
     dec:	28180000 	ldmdacs	r8, {}	; <UNPREDICTABLE>
     df0:	ed000085 	stc	0, cr0, [r0, #-532]	; 0xfffffdec
     df4:	0d00001a 	stceq	0, cr0, [r0, #-104]	; 0xffffff98
     df8:	1900000e 	stmdbne	r0, {r1, r2, r3}
     dfc:	31015201 	tstcc	r1, r1, lsl #4
     e00:	02510119 	subseq	r0, r1, #1073741830	; 0x40000006
     e04:	01196791 			; <UNDEFINED> instruction: 0x01196791
     e08:	00740250 	rsbseq	r0, r4, r0, asr r2
     e0c:	85381a00 	ldrhi	r1, [r8, #-2560]!	; 0xa00
     e10:	1b0c0000 	blne	300e18 <__bss_end__+0x2f5130>
     e14:	01190000 	tsteq	r9, r0
     e18:	19310152 	ldmdbne	r1!, {r1, r4, r6, r8}
     e1c:	91025101 	tstls	r2, r1, lsl #2
     e20:	5001196f 	andpl	r1, r1, pc, ror #18
     e24:	00007402 	andeq	r7, r0, r2, lsl #8
     e28:	00881e00 	addeq	r1, r8, r0, lsl #28
     e2c:	0e390000 	cdpeq	0, 3, cr0, cr9, cr0, {0}
     e30:	811f0000 	tsthi	pc, r0
     e34:	06000000 	streq	r0, [r0], -r0
     e38:	0e290600 	cfmadda32eq	mvax0, mvax0, mvfx9, mvfx0
     e3c:	90270000 	eorls	r0, r7, r0
     e40:	01000001 	tsteq	r0, r1
     e44:	0085546d 	addeq	r5, r5, sp, ror #8
     e48:	00007c00 	andeq	r7, r0, r0, lsl #24
     e4c:	339c0100 	orrscc	r0, ip, #0, 2
     e50:	1600000f 	strne	r0, [r0], -pc
     e54:	0000033d 	andeq	r0, r0, sp, lsr r3
     e58:	004f6d01 	subeq	r6, pc, r1, lsl #26
     e5c:	03f60000 	mvnseq	r0, #0
     e60:	72140000 	andsvc	r0, r4, #0
     e64:	01006765 	tsteq	r0, r5, ror #14
     e68:	00004f6d 	andeq	r4, r0, sp, ror #30
     e6c:	00041700 	andeq	r1, r4, r0, lsl #14
     e70:	00761400 	rsbseq	r1, r6, r0, lsl #8
     e74:	004f6d01 	subeq	r6, pc, r1, lsl #26
     e78:	04760000 	ldrbteq	r0, [r6], #-0
     e7c:	6c1c0000 	ldcvs	0, cr0, [ip], {-0}
     e80:	33000000 	movwcc	r0, #0
     e84:	0500000f 	streq	r0, [r0, #-15]
     e88:	00abe803 	adceq	lr, fp, r3, lsl #16
     e8c:	00372400 	eorseq	r2, r7, r0, lsl #8
     e90:	70010000 	andvc	r0, r1, r0
     e94:	00000f38 	andeq	r0, r0, r8, lsr pc
     e98:	1d749102 	ldfnep	f1, [r4, #-8]!
     e9c:	00008568 	andeq	r8, r0, r8, ror #10
     ea0:	000019b6 			; <UNDEFINED> instruction: 0x000019b6
     ea4:	00857c18 	addeq	r7, r5, r8, lsl ip
     ea8:	0019a000 	andseq	sl, r9, r0
     eac:	000ed300 	andeq	sp, lr, r0, lsl #6
     eb0:	53011900 	movwpl	r1, #6400	; 0x1900
     eb4:	196e0802 	stmdbne	lr!, {r1, fp}^
     eb8:	03055201 	movweq	r5, #20993	; 0x5201
     ebc:	0000abe8 	andeq	sl, r0, r8, ror #23
     ec0:	05510119 	ldrbeq	r0, [r1, #-281]	; 0x119
     ec4:	00ac8803 	adceq	r8, ip, r3, lsl #16
     ec8:	50011900 	andpl	r1, r1, r0, lsl #18
     ecc:	ae7c0305 	cdpge	3, 7, cr0, cr12, cr5, {0}
     ed0:	1d000000 	stcne	0, cr0, [r0, #-0]
     ed4:	00008580 	andeq	r8, r0, r0, lsl #11
     ed8:	000019bd 			; <UNDEFINED> instruction: 0x000019bd
     edc:	00858c1d 	addeq	r8, r5, sp, lsl ip
     ee0:	0019b600 	andseq	fp, r9, r0, lsl #12
     ee4:	85a01800 	strhi	r1, [r0, #2048]!	; 0x800
     ee8:	19a00000 	stmibne	r0!, {}	; <UNPREDICTABLE>
     eec:	0f140000 	svceq	0x00140000
     ef0:	01190000 	tsteq	r9, r0
     ef4:	6f080253 	svcvs	0x00080253
     ef8:	05520119 	ldrbeq	r0, [r2, #-281]	; 0x119
     efc:	00abe803 	adceq	lr, fp, r3, lsl #16
     f00:	51011900 	tstpl	r1, r0, lsl #18
     f04:	ac880305 	stcge	3, cr0, [r8], {5}
     f08:	01190000 	tsteq	r9, r0
     f0c:	94030550 	strls	r0, [r3], #-1360	; 0x550
     f10:	000000ae 	andeq	r0, r0, lr, lsr #1
     f14:	0085a41d 	addeq	sl, r5, sp, lsl r4
     f18:	0019bd00 	andseq	fp, r9, r0, lsl #26
     f1c:	85b81a00 	ldrhi	r1, [r8, #2560]!	; 0xa00
     f20:	1aed0000 	bne	ffb40f28 <__bss_end__+0xffb35240>
     f24:	01190000 	tsteq	r9, r0
     f28:	19320152 	ldmdbne	r2!, {r1, r4, r6, r8}
     f2c:	91025101 	tstls	r2, r1, lsl #2
     f30:	0600006c 	streq	r0, [r0], -ip, rrx
     f34:	00000e29 	andeq	r0, r0, r9, lsr #28
     f38:	00004f1e 	andeq	r4, r0, lr, lsl pc
     f3c:	000f4800 	andeq	r4, pc, r0, lsl #16
     f40:	00811f00 	addeq	r1, r1, r0, lsl #30
     f44:	00010000 	andeq	r0, r1, r0
     f48:	0008a328 	andeq	sl, r8, r8, lsr #6
     f4c:	25790100 	ldrbcs	r0, [r9, #-256]!	; 0x100
     f50:	d0000000 	andle	r0, r0, r0
     f54:	98000085 	stmdals	r0, {r0, r2, r7}
     f58:	01000000 	mrseq	r0, (UNDEF: 0)
     f5c:	0010669c 	mulseq	r0, ip, r6
     f60:	033d1600 	teqeq	sp, #0, 12
     f64:	79010000 	stmdbvc	r1, {}	; <UNPREDICTABLE>
     f68:	0000004f 	andeq	r0, r0, pc, asr #32
     f6c:	000004d5 	ldrdeq	r0, [r0], -r5
     f70:	00080616 	andeq	r0, r8, r6, lsl r6
     f74:	4f790100 	svcmi	0x00790100
     f78:	28000000 	stmdacs	r0, {}	; <UNPREDICTABLE>
     f7c:	14000005 	strne	r0, [r0], #-5
     f80:	79010076 	stmdbvc	r1, {r1, r2, r4, r5, r6}
     f84:	00001066 	andeq	r1, r0, r6, rrx
     f88:	00000581 	andeq	r0, r0, r1, lsl #11
     f8c:	01006e14 	tsteq	r0, r4, lsl lr
     f90:	00006879 	andeq	r6, r0, r9, ror r8
     f94:	0005d900 	andeq	sp, r5, r0, lsl #18
     f98:	006c1c00 	rsbeq	r1, ip, r0, lsl #24
     f9c:	106c0000 	rsbne	r0, ip, r0
     fa0:	03050000 	movweq	r0, #20480	; 0x5000
     fa4:	0000abf0 	strdeq	sl, [r0], -r0
     fa8:	0085f01d 	addeq	pc, r5, sp, lsl r0	; <UNPREDICTABLE>
     fac:	0019b600 	andseq	fp, r9, r0, lsl #12
     fb0:	86041800 	strhi	r1, [r4], -r0, lsl #16
     fb4:	19a00000 	stmibne	r0!, {}	; <UNPREDICTABLE>
     fb8:	0fe00000 	svceq	0x00e00000
     fbc:	01190000 	tsteq	r9, r0
     fc0:	7a080253 	bvc	201914 <__bss_end__+0x1f5c2c>
     fc4:	05520119 	ldrbeq	r0, [r2, #-281]	; 0x119
     fc8:	00abf003 	adceq	pc, fp, r3
     fcc:	51011900 	tstpl	r1, r0, lsl #18
     fd0:	ac880305 	stcge	3, cr0, [r8], {5}
     fd4:	01190000 	tsteq	r9, r0
     fd8:	7c030550 	cfstr32vc	mvfx0, [r3], {80}	; 0x50
     fdc:	000000ae 	andeq	r0, r0, lr, lsr #1
     fe0:	0086081d 	addeq	r0, r6, sp, lsl r8
     fe4:	0019bd00 	andseq	fp, r9, r0, lsl #26
     fe8:	86181d00 	ldrhi	r1, [r8], -r0, lsl #26
     fec:	19b60000 	ldmibne	r6!, {}	; <UNPREDICTABLE>
     ff0:	2c180000 	ldccs	0, cr0, [r8], {-0}
     ff4:	a0000086 	andge	r0, r0, r6, lsl #1
     ff8:	21000019 	tstcs	r0, r9, lsl r0
     ffc:	19000010 	stmdbne	r0, {r4}
    1000:	08025301 	stmdaeq	r2, {r0, r8, r9, ip, lr}
    1004:	5201197b 	andpl	r1, r1, #2015232	; 0x1ec000
    1008:	abf00305 	blge	ffc01c24 <__bss_end__+0xffbf5f3c>
    100c:	01190000 	tsteq	r9, r0
    1010:	88030551 	stmdahi	r3, {r0, r4, r6, r8, sl}
    1014:	190000ac 	stmdbne	r0, {r2, r3, r5, r7}
    1018:	03055001 	movweq	r5, #20481	; 0x5001
    101c:	0000aea8 	andeq	sl, r0, r8, lsr #29
    1020:	86301d00 	ldrthi	r1, [r0], -r0, lsl #26
    1024:	19bd0000 	ldmibne	sp!, {}	; <UNPREDICTABLE>
    1028:	40180000 	andsmi	r0, r8, r0
    102c:	ed000086 	stc	0, cr0, [r0, #-536]	; 0xfffffde8
    1030:	4900001a 	stmdbmi	r0, {r1, r3, r4}
    1034:	19000010 	stmdbne	r0, {r4}
    1038:	31015201 	tstcc	r1, r1, lsl #4
    103c:	02510119 	subseq	r0, r1, #1073741830	; 0x40000006
    1040:	01196791 			; <UNDEFINED> instruction: 0x01196791
    1044:	00740250 	rsbseq	r0, r4, r0, asr r2
    1048:	86501a00 	ldrbhi	r1, [r0], -r0, lsl #20
    104c:	1b0c0000 	blne	301054 <__bss_end__+0x2f536c>
    1050:	01190000 	tsteq	r9, r0
    1054:	00750252 	rsbseq	r0, r5, r2, asr r2
    1058:	02510119 	subseq	r0, r1, #1073741830	; 0x40000006
    105c:	01190076 	tsteq	r9, r6, ror r0
    1060:	00740250 	rsbseq	r0, r4, r0, asr r2
    1064:	04050000 	streq	r0, [r5], #-0
    1068:	0000004f 	andeq	r0, r0, pc, asr #32
    106c:	0007b906 	andeq	fp, r7, r6, lsl #18
    1070:	05c62800 	strbeq	r2, [r6, #2048]	; 0x800
    1074:	97010000 	strls	r0, [r1, -r0]
    1078:	0000002c 	andeq	r0, r0, ip, lsr #32
    107c:	00008668 	andeq	r8, r0, r8, ror #12
    1080:	00000088 	andeq	r0, r0, r8, lsl #1
    1084:	10e99c01 	rscne	r9, r9, r1, lsl #24
    1088:	66140000 	ldrvs	r0, [r4], -r0
    108c:	97010073 	smlsdxls	r1, r3, r0, r0
    1090:	0000002c 	andeq	r0, r0, ip, lsr #32
    1094:	0000061b 	andeq	r0, r0, fp, lsl r6
    1098:	00006c1c 	andeq	r6, r0, ip, lsl ip
    109c:	0010e900 	andseq	lr, r0, r0, lsl #18
    10a0:	fc030500 	stc2	5, cr0, [r3], {-0}
    10a4:	1d0000ab 	stcne	0, cr0, [r0, #-684]	; 0xfffffd54
    10a8:	000086ac 	andeq	r8, r0, ip, lsr #13
    10ac:	000019b6 			; <UNDEFINED> instruction: 0x000019b6
    10b0:	0086c018 	addeq	ip, r6, r8, lsl r0
    10b4:	0019a000 	andseq	sl, r9, r0
    10b8:	0010df00 	andseq	sp, r0, r0, lsl #30
    10bc:	53011900 	movwpl	r1, #6400	; 0x1900
    10c0:	199d0802 	ldmibne	sp, {r1, fp}
    10c4:	03055201 	movweq	r5, #20993	; 0x5201
    10c8:	0000abfc 	strdeq	sl, [r0], -ip
    10cc:	05510119 	ldrbeq	r0, [r1, #-281]	; 0x119
    10d0:	00ac8803 	adceq	r8, ip, r3, lsl #16
    10d4:	50011900 	andpl	r1, r1, r0, lsl #18
    10d8:	aec40305 	cdpge	3, 12, cr0, cr4, cr5, {0}
    10dc:	1d000000 	stcne	0, cr0, [r0, #-0]
    10e0:	000086c4 	andeq	r8, r0, r4, asr #13
    10e4:	000019bd 			; <UNDEFINED> instruction: 0x000019bd
    10e8:	096d0600 	stmdbeq	sp!, {r9, sl}^
    10ec:	d7100000 	ldrle	r0, [r0, -r0]
    10f0:	02000003 	andeq	r0, r0, #3
    10f4:	0000253c 	andeq	r2, r0, ip, lsr r5
    10f8:	11160300 	tstne	r6, r0, lsl #6
    10fc:	68110000 	ldmdavs	r1, {}	; <UNPREDICTABLE>
    1100:	3c02007a 	stccc	0, cr0, [r2], {122}	; 0x7a
    1104:	0000002c 	andeq	r0, r0, ip, lsr #32
    1108:	00006c29 	andeq	r6, r0, r9, lsr #24
    110c:	00112600 	andseq	r2, r1, r0, lsl #12
    1110:	0003d700 	andeq	sp, r3, r0, lsl #14
    1114:	881e0000 	ldmdahi	lr, {}	; <UNPREDICTABLE>
    1118:	26000000 	strcs	r0, [r0], -r0
    111c:	1f000011 	svcne	0x00000011
    1120:	00000081 	andeq	r0, r0, r1, lsl #1
    1124:	1606000d 	strne	r0, [r6], -sp
    1128:	28000011 	stmdacs	r0, {r0, r4}
    112c:	000006d4 	ldrdeq	r0, [r0], -r4
    1130:	04e9aa01 	strbteq	sl, [r9], #2561	; 0xa01
    1134:	86f00000 	ldrbthi	r0, [r0], r0
    1138:	01600000 	cmneq	r0, r0
    113c:	9c010000 	stcls	0, cr0, [r1], {-0}
    1140:	00001364 	andeq	r1, r0, r4, ror #6
    1144:	00033d16 	andeq	r3, r3, r6, lsl sp
    1148:	4faa0100 	svcmi	0x00aa0100
    114c:	a0000000 	andge	r0, r0, r0
    1150:	14000006 	strne	r0, [r0], #-6
    1154:	00737064 	rsbseq	r7, r3, r4, rrx
    1158:	02dfaa01 	sbcseq	sl, pc, #4096	; 0x1000
    115c:	06c10000 	strbeq	r0, [r1], r0
    1160:	68140000 	ldmdavs	r4, {}	; <UNPREDICTABLE>
    1164:	aa01007a 	bge	41354 <__bss_end__+0x3566c>
    1168:	000002a7 	andeq	r0, r0, r7, lsr #5
    116c:	000006eb 	andeq	r0, r0, fp, ror #13
    1170:	00006c1c 	andeq	r6, r0, ip, lsl ip
    1174:	00137400 	andseq	r7, r3, r0, lsl #8
    1178:	0c030500 	cfstr32eq	mvfx0, [r3], {-0}
    117c:	150000ac 	strne	r0, [r0, #-172]	; 0xac
    1180:	000005d3 	ldrdeq	r0, [r0], -r3
    1184:	04e9c101 	strbteq	ip, [r9], #257	; 0x101
    1188:	070c0000 	streq	r0, [ip, -r0]
    118c:	f42a0000 	vld4.8	{d0-d3}, [sl], r0
    1190:	0c000004 	stceq	0, cr0, [r0], {4}
    1194:	38000087 	stmdacc	r0, {r0, r1, r2, r7}
    1198:	01000000 	mrseq	r0, (UNDEF: 0)
    119c:	0011abad 	andseq	sl, r1, sp, lsr #23
    11a0:	05042b00 	streq	r2, [r4, #-2816]	; 0xb00
    11a4:	07380000 	ldreq	r0, [r8, -r0]!
    11a8:	2a000000 	bcs	11b0 <_start-0x6e50>
    11ac:	000010ee 	andeq	r1, r0, lr, ror #1
    11b0:	0000876c 	andeq	r8, r0, ip, ror #14
    11b4:	00000024 	andeq	r0, r0, r4, lsr #32
    11b8:	121eaf01 	andsne	sl, lr, #1, 30
    11bc:	fe2b0000 	cdp2	0, 2, cr0, cr11, cr0, {0}
    11c0:	57000010 	smladpl	r0, r0, r0, r0
    11c4:	25000007 	strcs	r0, [r0, #-7]
    11c8:	0000876c 	andeq	r8, r0, ip, ror #14
    11cc:	00000024 	andeq	r0, r0, r4, lsr #32
    11d0:	0011082c 	andseq	r0, r1, ip, lsr #16
    11d4:	18030500 	stmdane	r3, {r8, sl}
    11d8:	1d0000ac 	stcne	0, cr0, [r0, #-688]	; 0xfffffd50
    11dc:	00008778 	andeq	r8, r0, r8, ror r7
    11e0:	000019b6 			; <UNDEFINED> instruction: 0x000019b6
    11e4:	00878c18 	addeq	r8, r7, r8, lsl ip
    11e8:	0019a000 	andseq	sl, r9, r0
    11ec:	00121300 	andseq	r1, r2, r0, lsl #6
    11f0:	53011900 	movwpl	r1, #6400	; 0x1900
    11f4:	193e0802 	ldmdbne	lr!, {r1, fp}
    11f8:	03055201 	movweq	r5, #20993	; 0x5201
    11fc:	0000ac18 	andeq	sl, r0, r8, lsl ip
    1200:	05510119 	ldrbeq	r0, [r1, #-281]	; 0x119
    1204:	00af3003 	adceq	r3, pc, r3
    1208:	50011900 	andpl	r1, r1, r0, lsl #18
    120c:	aefc0305 	cdpge	3, 15, cr0, cr12, cr5, {0}
    1210:	1d000000 	stcne	0, cr0, [r0, #-0]
    1214:	00008790 	muleq	r0, r0, r7
    1218:	000019bd 			; <UNDEFINED> instruction: 0x000019bd
    121c:	0c1d0000 	ldceq	0, cr0, [sp], {-0}
    1220:	2b000087 	blcs	1444 <_start-0x6bbc>
    1224:	1d00001b 	stcne	0, cr0, [r0, #-108]	; 0xffffff94
    1228:	00008750 	andeq	r8, r0, r0, asr r7
    122c:	000019b6 			; <UNDEFINED> instruction: 0x000019b6
    1230:	00876818 	addeq	r6, r7, r8, lsl r8
    1234:	0019a000 	andseq	sl, r9, r0
    1238:	00126600 	andseq	r6, r2, r0, lsl #12
    123c:	53011900 	movwpl	r1, #6400	; 0x1900
    1240:	19ae0802 	stmibne	lr!, {r1, fp}
    1244:	03055201 	movweq	r5, #20993	; 0x5201
    1248:	0000ac0c 	andeq	sl, r0, ip, lsl #24
    124c:	05510119 	ldrbeq	r0, [r1, #-281]	; 0x119
    1250:	00ac8803 	adceq	r8, ip, r3, lsl #16
    1254:	50011900 	andpl	r1, r1, r0, lsl #18
    1258:	aed80305 	cdpge	3, 13, cr0, cr8, cr5, {0}
    125c:	02190000 	andseq	r0, r9, #0
    1260:	7402007d 	strvc	r0, [r2], #-125	; 0x7d
    1264:	6c1d0000 	ldcvs	0, cr0, [sp], {-0}
    1268:	bd000087 	stclt	0, cr0, [r0, #-540]	; 0xfffffde4
    126c:	1d000019 	stcne	0, cr0, [r0, #-100]	; 0xffffff9c
    1270:	0000879c 	muleq	r0, ip, r7
    1274:	000019b6 			; <UNDEFINED> instruction: 0x000019b6
    1278:	0087b418 	addeq	fp, r7, r8, lsl r4
    127c:	0019a000 	andseq	sl, r9, r0
    1280:	0012ae00 	andseq	sl, r2, r0, lsl #28
    1284:	53011900 	movwpl	r1, #6400	; 0x1900
    1288:	19b00802 	ldmibne	r0!, {r1, fp}
    128c:	03055201 	movweq	r5, #20993	; 0x5201
    1290:	0000ac0c 	andeq	sl, r0, ip, lsl #24
    1294:	05510119 	ldrbeq	r0, [r1, #-281]	; 0x119
    1298:	00ac8803 	adceq	r8, ip, r3, lsl #16
    129c:	50011900 	andpl	r1, r1, r0, lsl #18
    12a0:	af3c0305 	svcge	0x003c0305
    12a4:	02190000 	andseq	r0, r9, #0
    12a8:	7602007d 			; <UNDEFINED> instruction: 0x7602007d
    12ac:	b81d0000 	ldmdalt	sp, {}	; <UNPREDICTABLE>
    12b0:	bd000087 	stclt	0, cr0, [r0, #-540]	; 0xfffffde4
    12b4:	18000019 	stmdane	r0, {r0, r3, r4}
    12b8:	000087c8 	andeq	r8, r0, r8, asr #15
    12bc:	00000e3e 	andeq	r0, r0, lr, lsr lr
    12c0:	000012d6 	ldrdeq	r1, [r0], -r6
    12c4:	02520119 	subseq	r0, r2, #1073741830	; 0x40000006
    12c8:	01193808 	tsteq	r9, r8, lsl #16
    12cc:	19490151 	stmdbne	r9, {r0, r4, r6, r8}^
    12d0:	77025001 	strvc	r5, [r2, -r1]
    12d4:	d0180000 	andsle	r0, r8, r0
    12d8:	32000087 	andcc	r0, r0, #135	; 0x87
    12dc:	ea00001b 	b	1350 <_start-0x6cb0>
    12e0:	19000012 	stmdbne	r0, {r1, r4}
    12e4:	08025001 	stmdaeq	r2, {r0, ip, lr}
    12e8:	e0180050 	ands	r0, r8, r0, asr r0
    12ec:	3e000087 	cdpcc	0, 0, cr0, cr0, cr7, {4}
    12f0:	0900000e 	stmdbeq	r0, {r1, r2, r3}
    12f4:	19000013 	stmdbne	r0, {r0, r1, r4}
    12f8:	08025201 	stmdaeq	r2, {r0, r9, ip, lr}
    12fc:	51011944 	tstpl	r1, r4, asr #18
    1300:	01194201 	tsteq	r9, r1, lsl #4
    1304:	00770250 	rsbseq	r0, r7, r0, asr r2
    1308:	87f81800 	ldrbhi	r1, [r8, r0, lsl #16]!
    130c:	0e3e0000 	cdpeq	0, 3, cr0, cr14, cr0, {0}
    1310:	13320000 	teqne	r2, #0
    1314:	01190000 	tsteq	r9, r0
    1318:	00760c52 	rsbseq	r0, r6, r2, asr ip
    131c:	00742434 	rsbseq	r2, r4, r4, lsr r4
    1320:	08212432 	stmdaeq	r1!, {r1, r4, r5, sl, sp}
    1324:	01191afc 			; <UNDEFINED> instruction: 0x01191afc
    1328:	19410151 	stmdbne	r1, {r0, r4, r6, r8}^
    132c:	77025001 	strvc	r5, [r2, -r1]
    1330:	0c180000 	ldceq	0, cr0, [r8], {-0}
    1334:	71000088 	smlabbvc	r0, r8, r0, r0
    1338:	46000010 			; <UNDEFINED> instruction: 0x46000010
    133c:	19000013 	stmdbne	r0, {r0, r1, r4}
    1340:	08025001 	stmdaeq	r2, {r0, ip, lr}
    1344:	181800f5 	ldmdane	r8, {r0, r2, r4, r5, r6, r7}
    1348:	32000088 	andcc	r0, r0, #136	; 0x88
    134c:	5a00001b 	bpl	13c0 <_start-0x6c40>
    1350:	19000013 	stmdbne	r0, {r0, r1, r4}
    1354:	08025001 	stmdaeq	r2, {r0, ip, lr}
    1358:	1c1d0050 	ldcne	0, cr0, [sp], {80}	; 0x50
    135c:	2b000088 	blcs	1584 <_start-0x6a7c>
    1360:	0000001b 	andeq	r0, r0, fp, lsl r0
    1364:	0000881e 	andeq	r8, r0, lr, lsl r8
    1368:	00137400 	andseq	r7, r3, r0, lsl #8
    136c:	00811f00 	addeq	r1, r1, r0, lsl #30
    1370:	00090000 	andeq	r0, r9, r0
    1374:	00136406 	andseq	r6, r3, r6, lsl #8
    1378:	07a42800 	streq	r2, [r4, r0, lsl #16]!
    137c:	cb010000 	blgt	41384 <__bss_end__+0x3569c>
    1380:	00000025 	andeq	r0, r0, r5, lsr #32
    1384:	00008850 	andeq	r8, r0, r0, asr r8
    1388:	00000028 	andeq	r0, r0, r8, lsr #32
    138c:	13be9c01 			; <UNDEFINED> instruction: 0x13be9c01
    1390:	68140000 	ldmdavs	r4, {}	; <UNPREDICTABLE>
    1394:	9acb0100 	bls	ff2c179c <__bss_end__+0xff2b5ab4>
    1398:	76000006 	strvc	r0, [r0], -r6
    139c:	15000007 	strne	r0, [r0, #-7]
    13a0:	0000012f 	andeq	r0, r0, pc, lsr #2
    13a4:	002cce01 	eoreq	ip, ip, r1, lsl #28
    13a8:	07970000 	ldreq	r0, [r7, r0]
    13ac:	601a0000 	andsvs	r0, sl, r0
    13b0:	1a000088 	bne	15d8 <_start-0x6a28>
    13b4:	1900000d 	stmdbne	r0, {r0, r2, r3}
    13b8:	4e015101 	adfmis	f5, f1, f1
    13bc:	4c280000 	stcmi	0, cr0, [r8], #-0
    13c0:	01000007 	tsteq	r0, r7
    13c4:	000496d6 	ldrdeq	r9, [r4], -r6
    13c8:	00887800 	addeq	r7, r8, r0, lsl #16
    13cc:	00007800 	andeq	r7, r0, r0, lsl #16
    13d0:	8d9c0100 	ldfhis	f0, [ip]
    13d4:	14000014 	strne	r0, [r0], #-20
    13d8:	d6010068 	strle	r0, [r1], -r8, rrx
    13dc:	0000069a 	muleq	r0, sl, r6
    13e0:	000007c3 	andeq	r0, r0, r3, asr #15
    13e4:	0007992d 	andeq	r9, r7, sp, lsr #18
    13e8:	2cd70100 	ldfcse	f0, [r7], {0}
    13ec:	2d000000 	stccs	0, cr0, [r0, #-0]
    13f0:	0000033d 	andeq	r0, r0, sp, lsr r3
    13f4:	004fd801 	subeq	sp, pc, r1, lsl #16
    13f8:	07240000 	streq	r0, [r4, -r0]!
    13fc:	01000002 	tsteq	r0, r2
    1400:	00148ddb 			; <UNDEFINED> instruction: 0x00148ddb
    1404:	68910200 	ldmvs	r1, {r9}
    1408:	01007817 	tsteq	r0, r7, lsl r8
    140c:	000025df 	ldrdeq	r2, [r0], -pc	; <UNPREDICTABLE>
    1410:	0007ef00 	andeq	lr, r7, r0, lsl #30
    1414:	00791700 	rsbseq	r1, r9, r0, lsl #14
    1418:	0025e001 	eoreq	lr, r5, r1
    141c:	080d0000 	stmdaeq	sp, {}	; <UNPREDICTABLE>
    1420:	7a170000 	bvc	5c1428 <__bss_end__+0x5b5740>
    1424:	25e10100 	strbcs	r0, [r1, #256]!	; 0x100
    1428:	2b000000 	blcs	1430 <_start-0x6bd0>
    142c:	15000008 	strne	r0, [r0, #-8]
    1430:	00000032 	andeq	r0, r0, r2, lsr r0
    1434:	0496e301 	ldreq	lr, [r6], #769	; 0x301
    1438:	084a0000 	stmdaeq	sl, {}^	; <UNPREDICTABLE>
    143c:	90180000 	andsls	r0, r8, r0
    1440:	79000088 	stmdbvc	r0, {r3, r7}
    1444:	52000013 	andpl	r0, r0, #19
    1448:	19000014 	stmdbne	r0, {r2, r4}
    144c:	74025001 	strvc	r5, [r2], #-1
    1450:	ac180000 	ldcge	0, cr0, [r8], {-0}
    1454:	48000088 	stmdami	r0, {r3, r7}
    1458:	7100000f 	tstvc	r0, pc
    145c:	19000014 	stmdbne	r0, {r2, r4}
    1460:	36015301 	strcc	r5, [r1], -r1, lsl #6
    1464:	02520119 	subseq	r0, r2, #1073741830	; 0x40000006
    1468:	0119007d 	tsteq	r9, sp, ror r0
    146c:	22080251 	andcs	r0, r8, #268435461	; 0x10000005
    1470:	88b81d00 	ldmhi	r8!, {r8, sl, fp, ip}
    1474:	054b0000 	strbeq	r0, [fp, #-0]
    1478:	c81d0000 	ldmdagt	sp, {}	; <UNPREDICTABLE>
    147c:	4b000088 	blmi	16a4 <_start-0x695c>
    1480:	1d000005 	stcne	0, cr0, [r0, #-20]	; 0xffffffec
    1484:	000088d8 	ldrdeq	r8, [r0], -r8	; <UNPREDICTABLE>
    1488:	0000054b 	andeq	r0, r0, fp, asr #10
    148c:	004f1e00 	subeq	r1, pc, r0, lsl #28
    1490:	149d0000 	ldrne	r0, [sp], #0
    1494:	811f0000 	tsthi	pc, r0
    1498:	05000000 	streq	r0, [r0, #-0]
    149c:	05a22700 	streq	r2, [r2, #1792]!	; 0x700
    14a0:	fa010000 	blx	414a8 <__bss_end__+0x357c0>
    14a4:	000088f0 	strdeq	r8, [r0], -r0
    14a8:	00000340 	andeq	r0, r0, r0, asr #6
    14ac:	19329c01 	ldmdbne	r2!, {r0, sl, fp, ip, pc}
    14b0:	59230000 	stmdbpl	r3!, {}	; <UNPREDICTABLE>
    14b4:	01000006 	tsteq	r0, r6
    14b8:	00004fff 	strdeq	r4, [r0], -pc	; <UNPREDICTABLE>
    14bc:	762e6b00 	strtvc	r6, [lr], -r0, lsl #22
    14c0:	01020100 	mrseq	r0, (UNDEF: 18)
    14c4:	0000004f 	andeq	r0, r0, pc, asr #32
    14c8:	0000086a 	andeq	r0, r0, sl, ror #16
    14cc:	00006c1c 	andeq	r6, r0, ip, lsl ip
    14d0:	00194200 	andseq	r4, r9, r0, lsl #4
    14d4:	28030500 	stmdacs	r3, {r8, sl}
    14d8:	2f0000ac 	svccs	0x000000ac
    14dc:	00000814 	andeq	r0, r0, r4, lsl r8
    14e0:	2c010701 	stccs	7, cr0, [r1], {1}
    14e4:	88000000 	stmdahi	r0, {}	; <UNPREDICTABLE>
    14e8:	30000008 	andcc	r0, r0, r8
    14ec:	0f010068 	svceq	0x00010068
    14f0:	0004e901 	andeq	lr, r4, r1, lsl #18
    14f4:	48910200 	ldmmi	r1, {r9}
    14f8:	0002d72f 	andeq	sp, r2, pc, lsr #14
    14fc:	01110100 	tsteq	r1, r0, lsl #2
    1500:	0000023b 	andeq	r0, r0, fp, lsr r2
    1504:	000008a6 	andeq	r0, r0, r6, lsr #17
    1508:	00044731 	andeq	r4, r4, r1, lsr r7
    150c:	01130100 	tsteq	r3, r0, lsl #2
    1510:	00001947 	andeq	r1, r0, r7, asr #18
    1514:	7fb89103 	svcvc	0x00b89103
    1518:	00100a2f 	andseq	r0, r0, pc, lsr #20
    151c:	01140100 	tsteq	r4, r0, lsl #2
    1520:	00000025 	andeq	r0, r0, r5, lsr #32
    1524:	000008c4 	andeq	r0, r0, r4, asr #17
    1528:	00617630 	rsbeq	r7, r1, r0, lsr r6
    152c:	96011501 	strls	r1, [r1], -r1, lsl #10
    1530:	03000004 	movweq	r0, #4
    1534:	217fac91 			; <UNDEFINED> instruction: 0x217fac91
    1538:	00008a08 	andeq	r8, r0, r8, lsl #20
    153c:	000001e8 	andeq	r0, r0, r8, ror #3
    1540:	0000174a 	andeq	r1, r0, sl, asr #14
    1544:	0006942f 	andeq	r9, r6, pc, lsr #8
    1548:	01240100 	teqeq	r4, r0, lsl #2
    154c:	00000025 	andeq	r0, r0, r5, lsr #32
    1550:	000008e3 	andeq	r0, r0, r3, ror #17
    1554:	008b4021 	addeq	r4, fp, r1, lsr #32
    1558:	00003c00 	andeq	r3, r0, r0, lsl #24
    155c:	0015a300 	andseq	sl, r5, r0, lsl #6
    1560:	00692e00 	rsbeq	r2, r9, r0, lsl #28
    1564:	25012e01 	strcs	r2, [r1, #-3585]	; 0xe01
    1568:	01000000 	mrseq	r0, (UNDEF: 0)
    156c:	32000009 	andcc	r0, r0, #9
    1570:	00000000 	andeq	r0, r0, r0
    1574:	0001212f 	andeq	r2, r1, pc, lsr #2
    1578:	01300100 	teqeq	r0, r0, lsl #2
    157c:	00000025 	andeq	r0, r0, r5, lsr #32
    1580:	00000920 	andeq	r0, r0, r0, lsr #18
    1584:	008b5c18 	addeq	r5, fp, r8, lsl ip
    1588:	0019d900 	andseq	sp, r9, r0, lsl #18
    158c:	00159800 	andseq	r9, r5, r0, lsl #16
    1590:	50011900 	andpl	r1, r1, r0, lsl #18
    1594:	00007502 	andeq	r7, r0, r2, lsl #10
    1598:	008b701d 	addeq	r7, fp, sp, lsl r0
    159c:	0019ea00 	andseq	lr, r9, r0, lsl #20
    15a0:	33000000 	movwcc	r0, #0
    15a4:	00000018 	andeq	r0, r0, r8, lsl r0
    15a8:	000015f1 	strdeq	r1, [r0], -r1	; <UNPREDICTABLE>
    15ac:	0100692e 	tsteq	r0, lr, lsr #18
    15b0:	00250139 	eoreq	r0, r5, r9, lsr r1
    15b4:	09410000 	stmdbeq	r1, {}^	; <UNPREDICTABLE>
    15b8:	30320000 	eorscc	r0, r2, r0
    15bc:	34000000 	strcc	r0, [r0], #-0
    15c0:	00000121 	andeq	r0, r0, r1, lsr #2
    15c4:	25013b01 	strcs	r3, [r1, #-2817]	; 0xb01
    15c8:	18000000 	stmdane	r0, {}	; <UNPREDICTABLE>
    15cc:	00008bc8 	andeq	r8, r0, r8, asr #23
    15d0:	000019fb 	strdeq	r1, [r0], -fp
    15d4:	000015df 	ldrdeq	r1, [r0], -pc	; <UNPREDICTABLE>
    15d8:	02500119 	subseq	r0, r0, #1073741830	; 0x40000006
    15dc:	1a000075 	bne	17b8 <_start-0x6848>
    15e0:	00008bd0 	ldrdeq	r8, [r0], -r0
    15e4:	000019ea 	andeq	r1, r0, sl, ror #19
    15e8:	02500119 	subseq	r0, r0, #1073741830	; 0x40000006
    15ec:	00000078 	andeq	r0, r0, r8, ror r0
    15f0:	8a181800 	bhi	6075f8 <__bss_end__+0x5fb910>
    15f4:	13be0000 			; <UNDEFINED> instruction: 0x13be0000
    15f8:	160b0000 	strne	r0, [fp], -r0
    15fc:	01190000 	tsteq	r9, r0
    1600:	40910251 	addsmi	r0, r1, r1, asr r2
    1604:	02500119 	subseq	r0, r0, #1073741830	; 0x40000006
    1608:	18000074 	stmdane	r0, {r2, r4, r5, r6}
    160c:	00008a34 	andeq	r8, r0, r4, lsr sl
    1610:	000005c4 	andeq	r0, r0, r4, asr #11
    1614:	00001625 	andeq	r1, r0, r5, lsr #12
    1618:	02510119 	subseq	r0, r1, #1073741830	; 0x40000006
    161c:	01194091 			; <UNDEFINED> instruction: 0x01194091
    1620:	00760250 	rsbseq	r0, r6, r0, asr r2
    1624:	8a681800 	bhi	1a0762c <__bss_end__+0x19fb944>
    1628:	13be0000 			; <UNDEFINED> instruction: 0x13be0000
    162c:	163f0000 	ldrtne	r0, [pc], -r0
    1630:	01190000 	tsteq	r9, r0
    1634:	40910251 	addsmi	r0, r1, r1, asr r2
    1638:	02500119 	subseq	r0, r0, #1073741830	; 0x40000006
    163c:	18000076 	stmdane	r0, {r1, r2, r4, r5, r6}
    1640:	00008a88 	andeq	r8, r0, r8, lsl #21
    1644:	000019a0 	andeq	r1, r0, r0, lsr #19
    1648:	0000166d 	andeq	r1, r0, sp, ror #12
    164c:	04530119 	ldrbeq	r0, [r3], #-281	; 0x119
    1650:	067fac91 			; <UNDEFINED> instruction: 0x067fac91
    1654:	04520119 	ldrbeq	r0, [r2], #-281	; 0x119
    1658:	067fa891 			; <UNDEFINED> instruction: 0x067fa891
    165c:	03510119 	cmpeq	r1, #1073741830	; 0x40000006
    1660:	19060074 	stmdbne	r6, {r2, r4, r5, r6}
    1664:	03055001 	movweq	r5, #20481	; 0x5001
    1668:	0000afb0 			; <UNDEFINED> instruction: 0x0000afb0
    166c:	8aa01800 	bhi	fe807674 <__bss_end__+0xfe7fb98c>
    1670:	05c40000 	strbeq	r0, [r4]
    1674:	16870000 	strne	r0, [r7], r0
    1678:	01190000 	tsteq	r9, r0
    167c:	40910251 	addsmi	r0, r1, r1, asr r2
    1680:	02500119 	subseq	r0, r0, #1073741830	; 0x40000006
    1684:	18000076 	stmdane	r0, {r1, r2, r4, r5, r6}
    1688:	00008ac0 	andeq	r8, r0, r0, asr #21
    168c:	000019a0 	andeq	r1, r0, r0, lsr #19
    1690:	000016b4 			; <UNDEFINED> instruction: 0x000016b4
    1694:	04530119 	ldrbeq	r0, [r3], #-281	; 0x119
    1698:	067fac91 			; <UNDEFINED> instruction: 0x067fac91
    169c:	04520119 	ldrbeq	r0, [r2], #-281	; 0x119
    16a0:	067fa891 			; <UNDEFINED> instruction: 0x067fa891
    16a4:	02510119 	subseq	r0, r1, #1073741830	; 0x40000006
    16a8:	0119007a 	tsteq	r9, sl, ror r0
    16ac:	d4030550 	strle	r0, [r3], #-1360	; 0x550
    16b0:	000000af 	andeq	r0, r0, pc, lsr #1
    16b4:	008af81d 	addeq	pc, sl, sp, lsl r8	; <UNPREDICTABLE>
    16b8:	0019b600 	andseq	fp, r9, r0, lsl #12
    16bc:	8b0c1800 	blhi	3076c4 <__bss_end__+0x2fb9dc>
    16c0:	19a00000 	stmibne	r0!, {}	; <UNPREDICTABLE>
    16c4:	16ed0000 	strbtne	r0, [sp], r0
    16c8:	01190000 	tsteq	r9, r0
    16cc:	260a0353 			; <UNDEFINED> instruction: 0x260a0353
    16d0:	52011901 	andpl	r1, r1, #16384	; 0x4000
    16d4:	ac280305 	stcge	3, cr0, [r8], #-20	; 0xffffffec
    16d8:	01190000 	tsteq	r9, r0
    16dc:	88030551 	stmdahi	r3, {r0, r4, r6, r8, sl}
    16e0:	190000ac 	stmdbne	r0, {r2, r3, r5, r7}
    16e4:	03055001 	movweq	r5, #20481	; 0x5001
    16e8:	0000affc 	strdeq	sl, [r0], -ip
    16ec:	8b101d00 	blhi	408af4 <__bss_end__+0x3fce0c>
    16f0:	19bd0000 	ldmibne	sp!, {}	; <UNPREDICTABLE>
    16f4:	a81d0000 	ldmdage	sp, {}	; <UNPREDICTABLE>
    16f8:	b600008b 	strlt	r0, [r0], -fp, lsl #1
    16fc:	18000019 	stmdane	r0, {r0, r3, r4}
    1700:	00008bbc 			; <UNDEFINED> instruction: 0x00008bbc
    1704:	000019a0 	andeq	r1, r0, r0, lsr #19
    1708:	0000172f 	andeq	r1, r0, pc, lsr #14
    170c:	03530119 	cmpeq	r3, #1073741830	; 0x40000006
    1710:	1901380a 	stmdbne	r1, {r1, r3, fp, ip, sp}
    1714:	03055201 	movweq	r5, #20993	; 0x5201
    1718:	0000ac28 	andeq	sl, r0, r8, lsr #24
    171c:	05510119 	ldrbeq	r0, [r1, #-281]	; 0x119
    1720:	00ac8803 	adceq	r8, ip, r3, lsl #16
    1724:	50011900 	andpl	r1, r1, r0, lsl #18
    1728:	b0240305 	eorlt	r0, r4, r5, lsl #6
    172c:	1d000000 	stcne	0, cr0, [r0, #-0]
    1730:	00008bc0 	andeq	r8, r0, r0, asr #23
    1734:	000019bd 			; <UNDEFINED> instruction: 0x000019bd
    1738:	008bf01a 	addeq	pc, fp, sl, lsl r0	; <UNPREDICTABLE>
    173c:	001b3200 	andseq	r3, fp, r0, lsl #4
    1740:	50011900 	andpl	r1, r1, r0, lsl #18
    1744:	01f40a03 	mvnseq	r0, r3, lsl #20
    1748:	00180000 	andseq	r0, r8, r0
    174c:	32000089 	andcc	r0, r0, #137	; 0x89
    1750:	5e00001b 	mcrpl	0, 0, r0, cr0, cr11, {0}
    1754:	19000017 	stmdbne	r0, {r0, r1, r2, r4}
    1758:	08025001 	stmdaeq	r2, {r0, ip, lr}
    175c:	041d0064 	ldreq	r0, [sp], #-100	; 0x64
    1760:	43000089 	movwmi	r0, #137	; 0x89
    1764:	1800001b 	stmdane	r0, {r0, r1, r3, r4}
    1768:	0000890c 	andeq	r8, r0, ip, lsl #18
    176c:	00001b32 	andeq	r1, r0, r2, lsr fp
    1770:	0000177b 	andeq	r1, r0, fp, ror r7
    1774:	02500119 	subseq	r0, r0, #1073741830	; 0x40000006
    1778:	18006408 	stmdane	r0, {r3, sl, sp, lr}
    177c:	00008918 	andeq	r8, r0, r8, lsl r9
    1780:	000019a0 	andeq	r1, r0, r0, lsr #19
    1784:	00001798 	muleq	r0, r8, r7
    1788:	02510119 	subseq	r0, r1, #1073741830	; 0x40000006
    178c:	01196b08 	tsteq	r9, r8, lsl #22
    1790:	5c030550 	cfstr32pl	mvfx0, [r3], {80}	; 0x50
    1794:	000000af 	andeq	r0, r0, pc, lsr #1
    1798:	00892418 	addeq	r2, r9, r8, lsl r4
    179c:	0019a000 	andseq	sl, r9, r0
    17a0:	0017b400 	andseq	fp, r7, r0, lsl #8
    17a4:	51011900 	tstpl	r1, r0, lsl #18
    17a8:	01193f01 	tsteq	r9, r1, lsl #30
    17ac:	6c030550 	cfstr32vs	mvfx0, [r3], {80}	; 0x50
    17b0:	000000af 	andeq	r0, r0, pc, lsr #1
    17b4:	00893018 	addeq	r3, r9, r8, lsl r0
    17b8:	000d1a00 	andeq	r1, sp, r0, lsl #20
    17bc:	0017cd00 	andseq	ip, r7, r0, lsl #26
    17c0:	51011900 	tstpl	r1, r0, lsl #18
    17c4:	01193f01 	tsteq	r9, r1, lsl #30
    17c8:	6b080250 	blvs	202110 <__bss_end__+0x1f6428>
    17cc:	893c1d00 	ldmdbhi	ip!, {r8, sl, fp, ip}
    17d0:	19b60000 	ldmibne	r6!, {}	; <UNPREDICTABLE>
    17d4:	50180000 	andspl	r0, r8, r0
    17d8:	a0000089 	andge	r0, r0, r9, lsl #1
    17dc:	06000019 			; <UNDEFINED> instruction: 0x06000019
    17e0:	19000018 	stmdbne	r0, {r3, r4}
    17e4:	0a035301 	beq	d63f0 <__bss_end__+0xca708>
    17e8:	01190104 	tsteq	r9, r4, lsl #2
    17ec:	28030552 	stmdacs	r3, {r1, r4, r6, r8, sl}
    17f0:	190000ac 	stmdbne	r0, {r2, r3, r5, r7}
    17f4:	03055101 	movweq	r5, #20737	; 0x5101
    17f8:	0000ac88 	andeq	sl, r0, r8, lsl #25
    17fc:	05500119 	ldrbeq	r0, [r0, #-281]	; 0x119
    1800:	00af7803 	adceq	r7, pc, r3, lsl #16
    1804:	541d0000 	ldrpl	r0, [sp], #-0
    1808:	bd000089 	stclt	0, cr0, [r0, #-548]	; 0xfffffddc
    180c:	18000019 	stmdane	r0, {r0, r3, r4}
    1810:	0000895c 	andeq	r8, r0, ip, asr r9
    1814:	00001071 	andeq	r1, r0, r1, ror r0
    1818:	00001823 	andeq	r1, r0, r3, lsr #16
    181c:	02500119 	subseq	r0, r0, #1073741830	; 0x40000006
    1820:	1800f508 	stmdane	r0, {r3, r8, sl, ip, sp, lr, pc}
    1824:	00008974 	andeq	r8, r0, r4, ror r9
    1828:	000006a0 	andeq	r0, r0, r0, lsr #13
    182c:	00001846 	andeq	r1, r0, r6, asr #16
    1830:	02530119 	subseq	r0, r3, #1073741830	; 0x40000006
    1834:	01190074 	tsteq	r9, r4, ror r0
    1838:	19300152 	ldmdbne	r0!, {r1, r4, r6, r8}
    183c:	30015101 	andcc	r5, r1, r1, lsl #2
    1840:	01500119 	cmpeq	r0, r9, lsl r1
    1844:	88180030 	ldmdahi	r8, {r4, r5}
    1848:	a0000089 	andge	r0, r0, r9, lsl #1
    184c:	6c000006 	stcvs	0, cr0, [r0], {6}
    1850:	19000018 	stmdbne	r0, {r3, r4}
    1854:	74025301 	strvc	r5, [r2], #-769	; 0x301
    1858:	52011900 	andpl	r1, r1, #0, 18
    185c:	19a40902 	stmibne	r4!, {r1, r8, fp}
    1860:	08025101 	stmdaeq	r2, {r0, r8, ip, lr}
    1864:	5001192c 	andpl	r1, r1, ip, lsr #18
    1868:	00640802 	rsbeq	r0, r4, r2, lsl #16
    186c:	00899c18 	addeq	r9, r9, r8, lsl ip
    1870:	0006a000 	andeq	sl, r6, r0
    1874:	00189200 	andseq	r9, r8, r0, lsl #4
    1878:	53011900 	movwpl	r1, #6400	; 0x1900
    187c:	19007402 	stmdbne	r0, {r1, sl, ip, sp, lr}
    1880:	08025201 	stmdaeq	r2, {r0, r9, ip, lr}
    1884:	51011949 	tstpl	r1, r9, asr #18
    1888:	19590802 	ldmdbne	r9, {r1, fp}^
    188c:	08025001 	stmdaeq	r2, {r0, ip, lr}
    1890:	b01800c8 	andslt	r0, r8, r8, asr #1
    1894:	a0000089 	andge	r0, r0, r9, lsl #1
    1898:	b8000006 	stmdalt	r0, {r1, r2}
    189c:	19000018 	stmdbne	r0, {r3, r4}
    18a0:	74025301 	strvc	r5, [r2], #-769	; 0x301
    18a4:	52011900 	andpl	r1, r1, #0, 18
    18a8:	195c0802 	ldmdbne	ip, {r1, fp}^
    18ac:	09025101 	stmdbeq	r2, {r0, r8, ip, lr}
    18b0:	500119d3 	ldrdpl	r1, [r1], -r3
    18b4:	009c0902 	addseq	r0, ip, r2, lsl #18
    18b8:	0089c418 	addeq	ip, r9, r8, lsl r4
    18bc:	0006a000 	andeq	sl, r6, r0
    18c0:	0018df00 	andseq	sp, r8, r0, lsl #30
    18c4:	53011900 	movwpl	r1, #6400	; 0x1900
    18c8:	19007402 	stmdbne	r0, {r1, sl, ip, sp, lr}
    18cc:	09025201 	stmdbeq	r2, {r0, r9, ip, lr}
    18d0:	510119b7 			; <UNDEFINED> instruction: 0x510119b7
    18d4:	19a60902 	stmibne	r6!, {r1, r8, fp}
    18d8:	0b035001 	bleq	d58e4 <__bss_end__+0xc9bfc>
    18dc:	1800ff38 	stmdane	r0, {r3, r4, r5, r8, r9, sl, fp, ip, sp, lr, pc}
    18e0:	000089cc 	andeq	r8, r0, ip, asr #19
    18e4:	000019a0 	andeq	r1, r0, r0, lsr #19
    18e8:	000018f6 	strdeq	r1, [r0], -r6
    18ec:	05500119 	ldrbeq	r0, [r0, #-281]	; 0x119
    18f0:	00af9c03 	adceq	r9, pc, r3, lsl #24
    18f4:	e0180000 	ands	r0, r8, r0
    18f8:	2b000089 	blcs	1b24 <_start-0x64dc>
    18fc:	1d000011 	stcne	0, cr0, [r0, #-68]	; 0xffffffbc
    1900:	19000019 	stmdbne	r0, {r0, r3, r4}
    1904:	35015301 	strcc	r5, [r1, #-769]	; 0x301
    1908:	04520119 	ldrbeq	r0, [r2], #-281	; 0x119
    190c:	2440f508 	strbcs	pc, [r0], #-1288	; 0x508	; <UNPREDICTABLE>
    1910:	02510119 	subseq	r0, r1, #1073741830	; 0x40000006
    1914:	01196b08 	tsteq	r9, r8, lsl #22
    1918:	40910250 	addsmi	r0, r1, r0, asr r2
    191c:	89ec1a00 	stmibhi	ip!, {r9, fp, ip}^
    1920:	1a0c0000 	bne	301928 <__bss_end__+0x2f5c40>
    1924:	01190000 	tsteq	r9, r0
    1928:	19440151 	stmdbne	r4, {r0, r4, r6, r8}^
    192c:	45015001 	strmi	r5, [r1, #-1]
    1930:	881e0000 	ldmdahi	lr, {}	; <UNPREDICTABLE>
    1934:	42000000 	andmi	r0, r0, #0
    1938:	1f000019 	svcne	0x00000019
    193c:	00000081 	andeq	r0, r0, r1, lsl #1
    1940:	3206000a 	andcc	r0, r6, #10
    1944:	1e000019 	mcrne	0, 0, r0, cr0, cr9, {0}
    1948:	00000025 	andeq	r0, r0, r5, lsr #32
    194c:	00001957 	andeq	r1, r0, r7, asr r9
    1950:	0000811f 	andeq	r8, r0, pc, lsl r1
    1954:	35000300 	strcc	r0, [r0, #-768]	; 0x300
    1958:	0000089b 	muleq	r0, fp, r8
    195c:	30014401 	andcc	r4, r1, r1, lsl #8
    1960:	1c00008c 	stcne	0, cr0, [r0], {140}	; 0x8c
    1964:	01000000 	mrseq	r0, (UNDEF: 0)
    1968:	0019a09c 	mulseq	r9, ip, r0
    196c:	8c381d00 	ldchi	13, cr1, [r8], #-0
    1970:	1b4a0000 	blne	1281978 <__bss_end__+0x1275c90>
    1974:	3c1d0000 	ldccc	0, cr0, [sp], {-0}
    1978:	5100008c 	smlabbpl	r0, ip, r0, r0
    197c:	1800001b 	stmdane	r0, {r0, r1, r3, r4}
    1980:	00008c44 	andeq	r8, r0, r4, asr #24
    1984:	000019a0 	andeq	r1, r0, r0, lsr #19
    1988:	00001996 	muleq	r0, r6, r9
    198c:	05500119 	ldrbeq	r0, [r0, #-281]	; 0x119
    1990:	00b04003 	adcseq	r4, r0, r3
    1994:	481d0000 	ldmdami	sp, {}	; <UNPREDICTABLE>
    1998:	9d00008c 	stcls	0, cr0, [r0, #-560]	; 0xfffffdd0
    199c:	00000014 	andeq	r0, r0, r4, lsl r0
    19a0:	00124d36 	andseq	r4, r2, r6, lsr sp
    19a4:	25290700 	strcs	r0, [r9, #-1792]!	; 0x700
    19a8:	b6000000 	strlt	r0, [r0], -r0
    19ac:	37000019 	smladcc	r0, r9, r0, r0
    19b0:	0000008f 	andeq	r0, r0, pc, lsl #1
    19b4:	10390038 	eorsne	r0, r9, r8, lsr r0
    19b8:	07000000 	streq	r0, [r0, -r0]
    19bc:	05f3391e 	ldrbeq	r3, [r3, #2334]!	; 0x91e
    19c0:	66070000 	strvs	r0, [r7], -r0
    19c4:	00016336 	andeq	r6, r1, r6, lsr r3
    19c8:	25230400 	strcs	r0, [r3, #-1024]!	; 0x400
    19cc:	d9000000 	stmdble	r0, {}	; <UNPREDICTABLE>
    19d0:	37000019 	smladcc	r0, r9, r0, r0
    19d4:	0000023b 	andeq	r0, r0, fp, lsr r2
    19d8:	08ef3a00 	stmiaeq	pc!, {r9, fp, ip, sp}^	; <UNPREDICTABLE>
    19dc:	1f040000 	svcne	0x00040000
    19e0:	000019ea 	andeq	r1, r0, sl, ror #19
    19e4:	00023b37 	andeq	r3, r2, r7, lsr fp
    19e8:	923a0000 	eorsls	r0, sl, #0
    19ec:	07000008 	streq	r0, [r0, -r8]
    19f0:	0019fb4e 	andseq	pc, r9, lr, asr #22
    19f4:	002c3700 	eoreq	r3, ip, r0, lsl #14
    19f8:	3a000000 	bcc	1a00 <_start-0x6600>
    19fc:	000003ed 	andeq	r0, r0, sp, ror #7
    1a00:	1a0c2104 	bne	309e18 <__bss_end__+0x2fe130>
    1a04:	3b370000 	blcc	dc1a0c <__bss_end__+0xdb5d24>
    1a08:	00000002 	andeq	r0, r0, r2
    1a0c:	00061e36 	andeq	r1, r6, r6, lsr lr
    1a10:	3b170400 	blcc	5c2a18 <__bss_end__+0x5b6d30>
    1a14:	26000002 	strcs	r0, [r0], -r2
    1a18:	3700001a 	smladcc	r0, sl, r0, r0
    1a1c:	0000002c 	andeq	r0, r0, ip, lsr #32
    1a20:	00002c37 	andeq	r2, r0, r7, lsr ip
    1a24:	54360000 	ldrtpl	r0, [r6], #-0
    1a28:	05000000 	streq	r0, [r0, #-0]
    1a2c:	0001fd29 	andeq	pc, r1, r9, lsr #26
    1a30:	001a4500 	andseq	r4, sl, r0, lsl #10
    1a34:	0bd83700 	bleq	ff60f63c <__bss_end__+0xff603954>
    1a38:	25370000 	ldrcs	r0, [r7, #-0]!
    1a3c:	37000000 	strcc	r0, [r0, -r0]
    1a40:	0000002c 	andeq	r0, r0, ip, lsr #32
    1a44:	02ee3600 	rsceq	r3, lr, #0, 12
    1a48:	31050000 	mrscc	r0, (UNDEF: 5)
    1a4c:	00000025 	andeq	r0, r0, r5, lsr #32
    1a50:	00001a5a 	andeq	r1, r0, sl, asr sl
    1a54:	0001fd37 	andeq	pc, r1, r7, lsr sp	; <UNPREDICTABLE>
    1a58:	f9360000 			; <UNDEFINED> instruction: 0xf9360000
    1a5c:	05000006 	streq	r0, [r0, #-6]
    1a60:	0000252b 	andeq	r2, r0, fp, lsr #10
    1a64:	001a6f00 	andseq	r6, sl, r0, lsl #30
    1a68:	0bd83700 	bleq	ff60f670 <__bss_end__+0xff603988>
    1a6c:	36000000 	strcc	r0, [r0], -r0
    1a70:	00000260 	andeq	r0, r0, r0, ror #4
    1a74:	0bd82305 	bleq	ff60a690 <__bss_end__+0xff5fe9a8>
    1a78:	1a890000 	bne	fe241a80 <__bss_end__+0xfe235d98>
    1a7c:	2c370000 	ldccs	0, cr0, [r7], #-0
    1a80:	37000000 	strcc	r0, [r0, -r0]
    1a84:	0000002c 	andeq	r0, r0, ip, lsr #32
    1a88:	07c13b00 	strbeq	r3, [r1, r0, lsl #22]
    1a8c:	55070000 	strpl	r0, [r7, #-0]
    1a90:	0000002c 	andeq	r0, r0, ip, lsr #32
    1a94:	0005df36 	andeq	sp, r5, r6, lsr pc
    1a98:	252e0500 	strcs	r0, [lr, #-1280]!	; 0x500
    1a9c:	a9000000 	stmdbge	r0, {}	; <UNPREDICTABLE>
    1aa0:	3700001a 	smladcc	r0, sl, r0, r0
    1aa4:	00000bd8 	ldrdeq	r0, [r0], -r8
    1aa8:	071b3600 	ldreq	r3, [fp, -r0, lsl #12]
    1aac:	1a040000 	bne	101ab4 <__bss_end__+0xf5dcc>
    1ab0:	0000023b 	andeq	r0, r0, fp, lsr r2
    1ab4:	00001ad7 	ldrdeq	r1, [r0], -r7
    1ab8:	00002c37 	andeq	r2, r0, r7, lsr ip
    1abc:	002c3700 	eoreq	r3, ip, r0, lsl #14
    1ac0:	2c370000 	ldccs	0, cr0, [r7], #-0
    1ac4:	37000000 	strcc	r0, [r0, -r0]
    1ac8:	0000002c 	andeq	r0, r0, ip, lsr #32
    1acc:	00002c37 	andeq	r2, r0, r7, lsr ip
    1ad0:	00c13700 	sbceq	r3, r1, r0, lsl #14
    1ad4:	3a000000 	bcc	1adc <_start-0x6524>
    1ad8:	0000076e 	andeq	r0, r0, lr, ror #14
    1adc:	1aed1d04 	bne	ffb48ef4 <__bss_end__+0xffb3d20c>
    1ae0:	3b370000 	blcc	dc1ae8 <__bss_end__+0xdb5e00>
    1ae4:	37000002 	strcc	r0, [r0, -r2]
    1ae8:	000000c1 	andeq	r0, r0, r1, asr #1
    1aec:	07383600 	ldreq	r3, [r8, -r0, lsl #12]!
    1af0:	0c080000 	stceq	0, cr0, [r8], {-0}
    1af4:	00000025 	andeq	r0, r0, r5, lsr #32
    1af8:	00001b0c 	andeq	r1, r0, ip, lsl #22
    1afc:	00002c37 	andeq	r2, r0, r7, lsr ip
    1b00:	10663700 	rsbne	r3, r6, r0, lsl #14
    1b04:	2c370000 	ldccs	0, cr0, [r7], #-0
    1b08:	00000000 	andeq	r0, r0, r0
    1b0c:	0004ae36 	andeq	sl, r4, r6, lsr lr
    1b10:	250e0800 	strcs	r0, [lr, #-2048]	; 0x800
    1b14:	2b000000 	blcs	1b1c <_start-0x64e4>
    1b18:	3700001b 	smladcc	r0, fp, r0, r0
    1b1c:	0000002c 	andeq	r0, r0, ip, lsr #32
    1b20:	00106637 	andseq	r6, r0, r7, lsr r6
    1b24:	002c3700 	eoreq	r3, ip, r0, lsl #14
    1b28:	39000000 	stmdbcc	r0, {}	; <UNPREDICTABLE>
    1b2c:	00000609 	andeq	r0, r0, r9, lsl #12
    1b30:	233a8a07 	teqcs	sl, #28672	; 0x7000
    1b34:	07000003 	streq	r0, [r0, -r3]
    1b38:	001b4350 	andseq	r4, fp, r0, asr r3
    1b3c:	002c3700 	eoreq	r3, ip, r0, lsl #14
    1b40:	39000000 	stmdbcc	r0, {}	; <UNPREDICTABLE>
    1b44:	00000257 	andeq	r0, r0, r7, asr r2
    1b48:	88390608 	ldmdahi	r9!, {r3, r9, sl}
    1b4c:	07000008 	streq	r0, [r0, -r8]
    1b50:	08e2393a 	stmiaeq	r2!, {r1, r3, r4, r5, r8, fp, ip, sp}^
    1b54:	71070000 	mrsvc	r0, (UNDEF: 7)
    1b58:	00055c00 	andeq	r5, r5, r0, lsl #24
    1b5c:	4d000400 	cfstrsmi	mvf0, [r0, #-0]
    1b60:	04000003 	streq	r0, [r0], #-3
    1b64:	0004cf01 	andeq	ip, r4, r1, lsl #30
    1b68:	094e0100 	stmdbeq	lr, {r8}^
    1b6c:	03690000 	cmneq	r9, #0
    1b70:	8c4c0000 	marhi	acc0, r0, ip
    1b74:	025c0000 	subseq	r0, ip, #0
    1b78:	02f50000 	rscseq	r0, r5, #0
    1b7c:	01020000 	mrseq	r0, (UNDEF: 2)
    1b80:	004c0502 	subeq	r0, ip, r2, lsl #10
    1b84:	bb030000 	bllt	c1b8c <__bss_end__+0xb5ea4>
    1b88:	00000000 	andeq	r0, r0, r0
    1b8c:	00074203 	andeq	r4, r7, r3, lsl #4
    1b90:	76030100 	strvc	r0, [r3], -r0, lsl #2
    1b94:	02000002 	andeq	r0, r0, #2
    1b98:	00082603 	andeq	r2, r8, r3, lsl #12
    1b9c:	0d030300 	stceq	3, cr0, [r3, #-0]
    1ba0:	04000009 	streq	r0, [r0], #-9
    1ba4:	05ad0400 	streq	r0, [sp, #1024]!	; 0x400
    1ba8:	0b020000 	bleq	81bb0 <__bss_end__+0x75ec8>
    1bac:	00000025 	andeq	r0, r0, r5, lsr #32
    1bb0:	0e021805 	cdpeq	8, 0, cr1, cr2, cr5, {0}
    1bb4:	000000a8 	andeq	r0, r0, r8, lsr #1
    1bb8:	0006c906 	andeq	ip, r6, r6, lsl #18
    1bbc:	a80f0200 	stmdage	pc, {r9}	; <UNPREDICTABLE>
    1bc0:	00000000 	andeq	r0, r0, r0
    1bc4:	72696407 	rsbvc	r6, r9, #117440512	; 0x7000000
    1bc8:	af100200 	svcge	0x00100200
    1bcc:	04000000 	streq	r0, [r0], #-0
    1bd0:	0003d206 	andeq	sp, r3, r6, lsl #4
    1bd4:	af110200 	svcge	0x00110200
    1bd8:	08000000 	stmdaeq	r0, {}	; <UNPREDICTABLE>
    1bdc:	31534d07 	cmpcc	r3, r7, lsl #26
    1be0:	af120200 	svcge	0x00120200
    1be4:	0c000000 	stceq	0, cr0, [r0], {-0}
    1be8:	32534d07 	subscc	r4, r3, #448	; 0x1c0
    1bec:	af130200 	svcge	0x00130200
    1bf0:	10000000 	andne	r0, r0, r0
    1bf4:	33534d07 	cmpcc	r3, #448	; 0x1c0
    1bf8:	af140200 	svcge	0x00140200
    1bfc:	14000000 	strne	r0, [r0], #-0
    1c00:	05040800 	streq	r0, [r4, #-2048]	; 0x800
    1c04:	00746e69 	rsbseq	r6, r4, r9, ror #28
    1c08:	4a070409 	bmi	1c2c34 <__bss_end__+0x1b6f4c>
    1c0c:	04000002 	streq	r0, [r0], #-2
    1c10:	0000004a 	andeq	r0, r0, sl, asr #32
    1c14:	00571502 	subseq	r1, r7, r2, lsl #10
    1c18:	01090000 	mrseq	r0, (UNDEF: 9)
    1c1c:	0007ee06 	andeq	lr, r7, r6, lsl #28
    1c20:	05020900 	streq	r0, [r2, #-2304]	; 0x900
    1c24:	00000644 	andeq	r0, r0, r4, asr #12
    1c28:	3e050409 	cdpcc	4, 0, cr0, cr5, cr9, {0}
    1c2c:	09000004 	stmdbeq	r0, {r2}
    1c30:	04390508 	ldrteq	r0, [r9], #-1288	; 0x508
    1c34:	01090000 	mrseq	r0, (UNDEF: 9)
    1c38:	0007ec08 	andeq	lr, r7, r8, lsl #24
    1c3c:	07020900 	streq	r0, [r2, -r0, lsl #18]
    1c40:	000008ac 	andeq	r0, r0, ip, lsr #17
    1c44:	45070409 	strmi	r0, [r7, #-1033]	; 0x409
    1c48:	09000002 	stmdbeq	r0, {r1}
    1c4c:	02400708 	subeq	r0, r0, #8, 14	; 0x200000
    1c50:	04090000 	streq	r0, [r9], #-0
    1c54:	00078507 	andeq	r8, r7, r7, lsl #10
    1c58:	09040a00 	stmdbeq	r4, {r9, fp}
    1c5c:	07f50801 	ldrbeq	r0, [r5, r1, lsl #16]!
    1c60:	040b0000 	streq	r0, [fp], #-0
    1c64:	0000010f 	andeq	r0, r0, pc, lsl #2
    1c68:	0001020c 	andeq	r0, r1, ip, lsl #4
    1c6c:	061e0d00 	ldreq	r0, [lr], -r0, lsl #26
    1c70:	05010000 	streq	r0, [r1, #-0]
    1c74:	0000018b 	andeq	r0, r0, fp, lsl #3
    1c78:	00008c4c 	andeq	r8, r0, ip, asr #24
    1c7c:	00000038 	andeq	r0, r0, r8, lsr r0
    1c80:	018b9c01 	orreq	r9, fp, r1, lsl #24
    1c84:	640e0000 	strvs	r0, [lr], #-0
    1c88:	01007269 	tsteq	r0, r9, ror #4
    1c8c:	0000af05 	andeq	sl, r0, r5, lsl #30
    1c90:	00095f00 	andeq	r5, r9, r0, lsl #30
    1c94:	03d20f00 	bicseq	r0, r2, #0, 30
    1c98:	05010000 	streq	r0, [r1, #-0]
    1c9c:	000000af 	andeq	r0, r0, pc, lsr #1
    1ca0:	0000097d 	andeq	r0, r0, sp, ror r9
    1ca4:	0002d710 	andeq	sp, r2, r0, lsl r7
    1ca8:	8b060100 	blhi	1820b0 <__bss_end__+0x1763c8>
    1cac:	9b000001 	blls	1cb8 <_start-0x6348>
    1cb0:	11000009 	tstne	r0, r9
    1cb4:	00008c60 	andeq	r8, r0, r0, ror #24
    1cb8:	00000511 	andeq	r0, r0, r1, lsl r5
    1cbc:	0000016d 	andeq	r0, r0, sp, ror #2
    1cc0:	01500112 	cmpeq	r0, r2, lsl r1
    1cc4:	74110048 	ldrvc	r0, [r1], #-72	; 0x48
    1cc8:	2600008c 	strcs	r0, [r0], -ip, lsl #1
    1ccc:	81000005 	tsthi	r0, r5
    1cd0:	12000001 	andne	r0, r0, #1
    1cd4:	75025001 	strvc	r5, [r2, #-1]
    1cd8:	7c130000 	ldcvc	0, cr0, [r3], {-0}
    1cdc:	2600008c 	strcs	r0, [r0], -ip, lsl #1
    1ce0:	00000005 	andeq	r0, r0, r5
    1ce4:	00b6040b 	adcseq	r0, r6, fp, lsl #8
    1ce8:	6e140000 	cdpvs	0, 1, cr0, cr4, cr0, {0}
    1cec:	01000007 	tsteq	r0, r7
    1cf0:	008c8411 	addeq	r8, ip, r1, lsl r4
    1cf4:	00013c00 	andeq	r3, r1, r0, lsl #24
    1cf8:	689c0100 	ldmvs	ip, {r8}
    1cfc:	0f000003 	svceq	0x00000003
    1d00:	000002d7 	ldrdeq	r0, [r0], -r7
    1d04:	018b1101 	orreq	r1, fp, r1, lsl #2
    1d08:	09b90000 	ldmibeq	r9!, {}	; <UNPREDICTABLE>
    1d0c:	270f0000 	strcs	r0, [pc, -r0]
    1d10:	01000009 	tsteq	r0, r9
    1d14:	00004c11 	andeq	r4, r0, r1, lsl ip
    1d18:	000a4500 	andeq	r4, sl, r0, lsl #10
    1d1c:	8cb41100 	ldfhis	f1, [r4]
    1d20:	05370000 	ldreq	r0, [r7, #-0]!
    1d24:	01db0000 	bicseq	r0, fp, r0
    1d28:	01120000 	tsteq	r2, r0
    1d2c:	54030550 	strpl	r0, [r3], #-1360	; 0x550
    1d30:	000000b0 	strheq	r0, [r0], -r0	; <UNPREDICTABLE>
    1d34:	008cc011 	addeq	ip, ip, r1, lsl r0
    1d38:	00054d00 	andeq	r4, r5, r0, lsl #26
    1d3c:	0001ee00 	andeq	lr, r1, r0, lsl #28
    1d40:	51011200 	mrspl	r1, R9_usr
    1d44:	11003001 	tstne	r0, r1
    1d48:	00008ccc 	andeq	r8, r0, ip, asr #25
    1d4c:	0000054d 	andeq	r0, r0, sp, asr #10
    1d50:	00000201 	andeq	r0, r0, r1, lsl #4
    1d54:	01510112 	cmpeq	r1, r2, lsl r1
    1d58:	d8110030 	ldmdale	r1, {r4, r5}
    1d5c:	4d00008c 	stcmi	0, cr0, [r0, #-560]	; 0xfffffdd0
    1d60:	14000005 	strne	r0, [r0], #-5
    1d64:	12000002 	andne	r0, r0, #2
    1d68:	30015101 	andcc	r5, r1, r1, lsl #2
    1d6c:	8ce41100 	stfhie	f1, [r4]
    1d70:	05370000 	ldreq	r0, [r7, #-0]!
    1d74:	022b0000 	eoreq	r0, fp, #0
    1d78:	01120000 	tsteq	r2, r0
    1d7c:	60030550 	andvs	r0, r3, r0, asr r5
    1d80:	000000b0 	strheq	r0, [r0], -r0	; <UNPREDICTABLE>
    1d84:	008cf011 	addeq	pc, ip, r1, lsl r0	; <UNPREDICTABLE>
    1d88:	00054d00 	andeq	r4, r5, r0, lsl #26
    1d8c:	00023e00 	andeq	r3, r2, r0, lsl #28
    1d90:	51011200 	mrspl	r1, R9_usr
    1d94:	11003101 	tstne	r0, r1, lsl #2
    1d98:	00008cfc 	strdeq	r8, [r0], -ip
    1d9c:	0000054d 	andeq	r0, r0, sp, asr #10
    1da0:	00000251 	andeq	r0, r0, r1, asr r2
    1da4:	01510112 	cmpeq	r1, r2, lsl r1
    1da8:	08110030 	ldmdaeq	r1, {r4, r5}
    1dac:	4d00008d 	stcmi	0, cr0, [r0, #-564]	; 0xfffffdcc
    1db0:	64000005 	strvs	r0, [r0], #-5
    1db4:	12000002 	andne	r0, r0, #2
    1db8:	30015101 	andcc	r5, r1, r1, lsl #2
    1dbc:	8d141100 	ldfhis	f1, [r4, #-0]
    1dc0:	05370000 	ldreq	r0, [r7, #-0]!
    1dc4:	027b0000 	rsbseq	r0, fp, #0
    1dc8:	01120000 	tsteq	r2, r0
    1dcc:	6c030550 	cfstr32vs	mvfx0, [r3], {80}	; 0x50
    1dd0:	000000b0 	strheq	r0, [r0], -r0	; <UNPREDICTABLE>
    1dd4:	008d2011 	addeq	r2, sp, r1, lsl r0
    1dd8:	00054d00 	andeq	r4, r5, r0, lsl #26
    1ddc:	00028e00 	andeq	r8, r2, r0, lsl #28
    1de0:	51011200 	mrspl	r1, R9_usr
    1de4:	11003001 	tstne	r0, r1
    1de8:	00008d2c 	andeq	r8, r0, ip, lsr #26
    1dec:	0000054d 	andeq	r0, r0, sp, asr #10
    1df0:	000002a1 	andeq	r0, r0, r1, lsr #5
    1df4:	01510112 	cmpeq	r1, r2, lsl r1
    1df8:	38110031 	ldmdacc	r1, {r0, r4, r5}
    1dfc:	4d00008d 	stcmi	0, cr0, [r0, #-564]	; 0xfffffdcc
    1e00:	b4000005 	strlt	r0, [r0], #-5
    1e04:	12000002 	andne	r0, r0, #2
    1e08:	30015101 	andcc	r5, r1, r1, lsl #2
    1e0c:	8d441100 	stfhie	f1, [r4, #-0]
    1e10:	05370000 	ldreq	r0, [r7, #-0]!
    1e14:	02cb0000 	sbceq	r0, fp, #0
    1e18:	01120000 	tsteq	r2, r0
    1e1c:	7c030550 	cfstr32vc	mvfx0, [r3], {80}	; 0x50
    1e20:	000000b0 	strheq	r0, [r0], -r0	; <UNPREDICTABLE>
    1e24:	008d5011 	addeq	r5, sp, r1, lsl r0
    1e28:	00054d00 	andeq	r4, r5, r0, lsl #26
    1e2c:	0002de00 	andeq	sp, r2, r0, lsl #28
    1e30:	51011200 	mrspl	r1, R9_usr
    1e34:	11003101 	tstne	r0, r1, lsl #2
    1e38:	00008d5c 	andeq	r8, r0, ip, asr sp
    1e3c:	0000054d 	andeq	r0, r0, sp, asr #10
    1e40:	000002f1 	strdeq	r0, [r0], -r1
    1e44:	01510112 	cmpeq	r1, r2, lsl r1
    1e48:	68110031 	ldmdavs	r1, {r0, r4, r5}
    1e4c:	4d00008d 	stcmi	0, cr0, [r0, #-564]	; 0xfffffdcc
    1e50:	04000005 	streq	r0, [r0], #-5
    1e54:	12000003 	andne	r0, r0, #3
    1e58:	30015101 	andcc	r5, r1, r1, lsl #2
    1e5c:	8d741100 	ldfhie	f1, [r4, #-0]
    1e60:	05370000 	ldreq	r0, [r7, #-0]!
    1e64:	031b0000 	tsteq	fp, #0
    1e68:	01120000 	tsteq	r2, r0
    1e6c:	8c030550 	cfstr32hi	mvfx0, [r3], {80}	; 0x50
    1e70:	000000b0 	strheq	r0, [r0], -r0	; <UNPREDICTABLE>
    1e74:	008d8011 	addeq	r8, sp, r1, lsl r0
    1e78:	00054d00 	andeq	r4, r5, r0, lsl #26
    1e7c:	00032e00 	andeq	r2, r3, r0, lsl #28
    1e80:	51011200 	mrspl	r1, R9_usr
    1e84:	11003101 	tstne	r0, r1, lsl #2
    1e88:	00008d8c 	andeq	r8, r0, ip, lsl #27
    1e8c:	0000054d 	andeq	r0, r0, sp, asr #10
    1e90:	00000341 	andeq	r0, r0, r1, asr #6
    1e94:	01510112 	cmpeq	r1, r2, lsl r1
    1e98:	98110031 	ldmdals	r1, {r0, r4, r5}
    1e9c:	4d00008d 	stcmi	0, cr0, [r0, #-564]	; 0xfffffdcc
    1ea0:	54000005 	strpl	r0, [r0], #-5
    1ea4:	12000003 	andne	r0, r0, #3
    1ea8:	31015101 	tstcc	r1, r1, lsl #2
    1eac:	8da41500 	cfstr32hi	mvfx1, [r4]
    1eb0:	05370000 	ldreq	r0, [r7, #-0]!
    1eb4:	01120000 	tsteq	r2, r0
    1eb8:	9c030550 	cfstr32ls	mvfx0, [r3], {80}	; 0x50
    1ebc:	000000b0 	strheq	r0, [r0], -r0	; <UNPREDICTABLE>
    1ec0:	071b0d00 	ldreq	r0, [fp, -r0, lsl #26]
    1ec4:	38010000 	stmdacc	r1, {}	; <UNPREDICTABLE>
    1ec8:	0000018b 	andeq	r0, r0, fp, lsl #3
    1ecc:	00008dc0 	andeq	r8, r0, r0, asr #27
    1ed0:	00000068 	andeq	r0, r0, r8, rrx
    1ed4:	04349c01 	ldrteq	r9, [r4], #-3073	; 0xc01
    1ed8:	640e0000 	strvs	r0, [lr], #-0
    1edc:	01007269 	tsteq	r0, r9, ror #4
    1ee0:	0000af38 	andeq	sl, r0, r8, lsr pc
    1ee4:	000ae300 	andeq	lr, sl, r0, lsl #6
    1ee8:	03d20f00 	bicseq	r0, r2, #0, 30
    1eec:	38010000 	stmdacc	r1, {}	; <UNPREDICTABLE>
    1ef0:	000000af 	andeq	r0, r0, pc, lsr #1
    1ef4:	00000b01 	andeq	r0, r0, r1, lsl #22
    1ef8:	31534d0e 	cmpcc	r3, lr, lsl #26
    1efc:	af380100 	svcge	0x00380100
    1f00:	1f000000 	svcne	0x00000000
    1f04:	0e00000b 	cdpeq	0, 0, cr0, cr0, cr11, {0}
    1f08:	0032534d 	eorseq	r5, r2, sp, asr #6
    1f0c:	00af3801 	adceq	r3, pc, r1, lsl #16
    1f10:	0b3d0000 	bleq	f41f18 <__bss_end__+0xf36230>
    1f14:	4d160000 	ldcmi	0, cr0, [r6, #-0]
    1f18:	01003353 	tsteq	r0, r3, asr r3
    1f1c:	0000af38 	andeq	sl, r0, r8, lsr pc
    1f20:	00910200 	addseq	r0, r1, r0, lsl #4
    1f24:	00092717 	andeq	r2, r9, r7, lsl r7
    1f28:	4c380100 	ldfmis	f0, [r8], #-0
    1f2c:	02000000 	andeq	r0, r0, #0
    1f30:	d7100491 			; <UNDEFINED> instruction: 0xd7100491
    1f34:	01000002 	tsteq	r0, r2
    1f38:	00018b39 	andeq	r8, r1, r9, lsr fp
    1f3c:	000b5b00 	andeq	r5, fp, r0, lsl #22
    1f40:	8ddc1100 	ldfhie	f1, [ip]
    1f44:	05110000 	ldreq	r0, [r1, #-0]
    1f48:	03fb0000 	mvnseq	r0, #0
    1f4c:	01120000 	tsteq	r2, r0
    1f50:	00480150 	subeq	r0, r8, r0, asr r1
    1f54:	008e0011 	addeq	r0, lr, r1, lsl r0
    1f58:	00052600 	andeq	r2, r5, r0, lsl #12
    1f5c:	00040f00 	andeq	r0, r4, r0, lsl #30
    1f60:	50011200 	andpl	r1, r1, r0, lsl #4
    1f64:	00007502 	andeq	r7, r0, r2, lsl #10
    1f68:	008e0813 	addeq	r0, lr, r3, lsl r8
    1f6c:	00052600 	andeq	r2, r5, r0, lsl #12
    1f70:	8e101300 	cdphi	3, 1, cr1, cr0, cr0, {0}
    1f74:	05260000 	streq	r0, [r6, #-0]!
    1f78:	18130000 	ldmdane	r3, {}	; <UNPREDICTABLE>
    1f7c:	2600008e 	strcs	r0, [r0], -lr, lsl #1
    1f80:	13000005 	movwne	r0, #5
    1f84:	00008e20 	andeq	r8, r0, r0, lsr #28
    1f88:	00000526 	andeq	r0, r0, r6, lsr #10
    1f8c:	08ef1400 	stmiaeq	pc!, {sl, ip}^	; <UNPREDICTABLE>
    1f90:	4b010000 	blmi	41f98 <__bss_end__+0x362b0>
    1f94:	00008e28 	andeq	r8, r0, r8, lsr #28
    1f98:	0000003c 	andeq	r0, r0, ip, lsr r0
    1f9c:	048e9c01 	streq	r9, [lr], #3073	; 0xc01
    1fa0:	d70f0000 	strle	r0, [pc, -r0]
    1fa4:	01000002 	tsteq	r0, r2
    1fa8:	00018b4b 	andeq	r8, r1, fp, asr #22
    1fac:	000b7900 	andeq	r7, fp, r0, lsl #18
    1fb0:	8e3c1100 	rsfhie	f1, f4, f0
    1fb4:	054d0000 	strbeq	r0, [sp, #-0]
    1fb8:	046b0000 	strbteq	r0, [fp], #-0
    1fbc:	01120000 	tsteq	r2, r0
    1fc0:	00310151 	eorseq	r0, r1, r1, asr r1
    1fc4:	008e4811 	addeq	r4, lr, r1, lsl r8
    1fc8:	00054d00 	andeq	r4, r5, r0, lsl #26
    1fcc:	00047e00 	andeq	r7, r4, r0, lsl #28
    1fd0:	51011200 	mrspl	r1, R9_usr
    1fd4:	15003101 	strne	r3, [r0, #-257]	; 0x101
    1fd8:	00008e54 	andeq	r8, r0, r4, asr lr
    1fdc:	0000054d 	andeq	r0, r0, sp, asr #10
    1fe0:	01510112 	cmpeq	r1, r2, lsl r1
    1fe4:	14000030 	strne	r0, [r0], #-48	; 0x30
    1fe8:	000003ed 	andeq	r0, r0, sp, ror #7
    1fec:	8e645201 	cdphi	2, 6, cr5, cr4, cr1, {0}
    1ff0:	003c0000 	eorseq	r0, ip, r0
    1ff4:	9c010000 	stcls	0, cr0, [r1], {-0}
    1ff8:	000004e8 	andeq	r0, r0, r8, ror #9
    1ffc:	0002d70f 	andeq	sp, r2, pc, lsl #14
    2000:	8b520100 	blhi	1482408 <__bss_end__+0x1476720>
    2004:	97000001 	strls	r0, [r0, -r1]
    2008:	1100000b 	tstne	r0, fp
    200c:	00008e78 	andeq	r8, r0, r8, ror lr
    2010:	0000054d 	andeq	r0, r0, sp, asr #10
    2014:	000004c5 	andeq	r0, r0, r5, asr #9
    2018:	01510112 	cmpeq	r1, r2, lsl r1
    201c:	84110030 	ldrhi	r0, [r1], #-48	; 0x30
    2020:	4d00008e 	stcmi	0, cr0, [r0, #-568]	; 0xfffffdc8
    2024:	d8000005 	stmdale	r0, {r0, r2}
    2028:	12000004 	andne	r0, r0, #4
    202c:	31015101 	tstcc	r1, r1, lsl #2
    2030:	8e901500 	cdphi	5, 9, cr1, cr0, cr0, {0}
    2034:	054d0000 	strbeq	r0, [sp, #-0]
    2038:	01120000 	tsteq	r2, r0
    203c:	00300151 	eorseq	r0, r0, r1, asr r1
    2040:	01630d00 	cmneq	r3, r0, lsl #26
    2044:	59010000 	stmdbpl	r1, {}	; <UNPREDICTABLE>
    2048:	000000a8 	andeq	r0, r0, r8, lsr #1
    204c:	00008ea0 	andeq	r8, r0, r0, lsr #29
    2050:	00000008 	andeq	r0, r0, r8
    2054:	05119c01 	ldreq	r9, [r1, #-3073]	; 0xc01
    2058:	d70f0000 	strle	r0, [pc, -r0]
    205c:	01000002 	tsteq	r0, r2
    2060:	00018b59 	andeq	r8, r1, r9, asr fp
    2064:	000bb500 	andeq	fp, fp, r0, lsl #10
    2068:	36180000 	ldrcc	r0, [r8], -r0
    206c:	03000009 	movweq	r0, #9
    2070:	0001006d 	andeq	r0, r1, sp, rrx
    2074:	00052600 	andeq	r2, r5, r0, lsl #12
    2078:	00af1900 	adceq	r1, pc, r0, lsl #18
    207c:	1a000000 	bne	2084 <_start-0x5f7c>
    2080:	0000093e 	andeq	r0, r0, lr, lsr r9
    2084:	05371d04 	ldreq	r1, [r7, #-3332]!	; 0xd04
    2088:	af190000 	svcge	0x00190000
    208c:	00000000 	andeq	r0, r0, r0
    2090:	00124d18 	andseq	r4, r2, r8, lsl sp
    2094:	a8290300 	stmdage	r9!, {r8, r9}
    2098:	4d000000 	stcmi	0, cr0, [r0, #-0]
    209c:	19000005 	stmdbne	r0, {r0, r2}
    20a0:	00000109 	andeq	r0, r0, r9, lsl #2
    20a4:	1c1c001b 	ldcne	0, cr0, [ip], {27}
    20a8:	04000009 	streq	r0, [r0], #-9
    20ac:	00af1921 	adceq	r1, pc, r1, lsr #18
    20b0:	af190000 	svcge	0x00190000
    20b4:	00000000 	andeq	r0, r0, r0
    20b8:	000a5700 	andeq	r5, sl, r0, lsl #14
    20bc:	d1000400 	tstle	r0, r0, lsl #8
    20c0:	04000004 	streq	r0, [r0], #-4
    20c4:	0004cf01 	andeq	ip, r4, r1, lsl #30
    20c8:	0ae10100 	beq	ff8424d0 <__bss_end__+0xff8367e8>
    20cc:	03690000 	cmneq	r9, #0
    20d0:	8ea80000 	cdphi	0, 10, cr0, cr8, cr0, {0}
    20d4:	03780000 	cmneq	r8, #0
    20d8:	041b0000 	ldreq	r0, [fp], #-0
    20dc:	01020000 	mrseq	r0, (UNDEF: 2)
    20e0:	004c0503 	subeq	r0, ip, r3, lsl #10
    20e4:	bb030000 	bllt	c20ec <__bss_end__+0xb6404>
    20e8:	00000000 	andeq	r0, r0, r0
    20ec:	00074203 	andeq	r4, r7, r3, lsl #4
    20f0:	76030100 	strvc	r0, [r3], -r0, lsl #2
    20f4:	02000002 	andeq	r0, r0, #2
    20f8:	00082603 	andeq	r2, r8, r3, lsl #12
    20fc:	0d030300 	stceq	3, cr0, [r3, #-0]
    2100:	04000009 	streq	r0, [r0], #-9
    2104:	05ad0400 	streq	r0, [sp, #1024]!	; 0x400
    2108:	0b030000 	bleq	c2110 <__bss_end__+0xb6428>
    210c:	00000025 	andeq	r0, r0, r5, lsr #32
    2110:	0e031805 	cdpeq	8, 0, cr1, cr3, cr5, {0}
    2114:	000000a8 	andeq	r0, r0, r8, lsr #1
    2118:	0006c906 	andeq	ip, r6, r6, lsl #18
    211c:	a80f0300 	stmdage	pc, {r8, r9}	; <UNPREDICTABLE>
    2120:	00000000 	andeq	r0, r0, r0
    2124:	72696407 	rsbvc	r6, r9, #117440512	; 0x7000000
    2128:	af100300 	svcge	0x00100300
    212c:	04000000 	streq	r0, [r0], #-0
    2130:	0003d206 	andeq	sp, r3, r6, lsl #4
    2134:	af110300 	svcge	0x00110300
    2138:	08000000 	stmdaeq	r0, {}	; <UNPREDICTABLE>
    213c:	31534d07 	cmpcc	r3, r7, lsl #26
    2140:	af120300 	svcge	0x00120300
    2144:	0c000000 	stceq	0, cr0, [r0], {-0}
    2148:	32534d07 	subscc	r4, r3, #448	; 0x1c0
    214c:	af130300 	svcge	0x00130300
    2150:	10000000 	andne	r0, r0, r0
    2154:	33534d07 	cmpcc	r3, #448	; 0x1c0
    2158:	af140300 	svcge	0x00140300
    215c:	14000000 	strne	r0, [r0], #-0
    2160:	05040800 	streq	r0, [r4, #-2048]	; 0x800
    2164:	00746e69 	rsbseq	r6, r4, r9, ror #28
    2168:	4a070409 	bmi	1c3194 <__bss_end__+0x1b74ac>
    216c:	04000002 	streq	r0, [r0], #-2
    2170:	0000004a 	andeq	r0, r0, sl, asr #32
    2174:	00571503 	subseq	r1, r7, r3, lsl #10
    2178:	01020000 	mrseq	r0, (UNDEF: 2)
    217c:	00d60604 	sbcseq	r0, r6, r4, lsl #12
    2180:	1c030000 	stcne	0, cr0, [r3], {-0}
    2184:	00000003 	andeq	r0, r0, r3
    2188:	00031803 	andeq	r1, r3, r3, lsl #16
    218c:	04000100 	streq	r0, [r0], #-256	; 0x100
    2190:	00000832 	andeq	r0, r0, r2, lsr r8
    2194:	00c10904 	sbceq	r0, r1, r4, lsl #18
    2198:	01020000 	mrseq	r0, (UNDEF: 2)
    219c:	01020b04 	tsteq	r2, r4, lsl #22
    21a0:	b9030000 	stmdblt	r3, {}	; <UNPREDICTABLE>
    21a4:	00000003 	andeq	r0, r0, r3
    21a8:	0003bd03 	andeq	fp, r3, r3, lsl #26
    21ac:	52030100 	andpl	r0, r3, #0, 2
    21b0:	02000003 	andeq	r0, r0, #3
    21b4:	00000003 	andeq	r0, r0, r3
    21b8:	04000300 	streq	r0, [r0], #-768	; 0x300
    21bc:	00000138 	andeq	r0, r0, r8, lsr r1
    21c0:	00e11004 	rsceq	r1, r1, r4
    21c4:	de0a0000 	cdple	0, 0, cr0, cr10, cr0, {0}
    21c8:	14000006 	strne	r0, [r0], #-6
    21cc:	01561204 	cmpeq	r6, r4, lsl #4
    21d0:	b1060000 	mrslt	r0, (UNDEF: 6)
    21d4:	0400000f 	streq	r0, [r0], #-15
    21d8:	00015613 	andeq	r5, r1, r3, lsl r6
    21dc:	7d060000 	stcvc	0, cr0, [r6, #-0]
    21e0:	04000008 	streq	r0, [r0], #-8
    21e4:	0000a814 	andeq	sl, r0, r4, lsl r8
    21e8:	1f060400 	svcne	0x00060400
    21ec:	04000000 	streq	r0, [r0], #-0
    21f0:	0000af15 	andeq	sl, r0, r5, lsl pc
    21f4:	c5060800 	strgt	r0, [r6, #-2048]	; 0x800
    21f8:	04000003 	streq	r0, [r0], #-3
    21fc:	0000af16 	andeq	sl, r0, r6, lsl pc
    2200:	83060c00 	movwhi	r0, #27648	; 0x6c00
    2204:	0400000e 	streq	r0, [r0], #-14
    2208:	00010217 	andeq	r0, r1, r7, lsl r2
    220c:	0b001000 	bleq	6214 <_start-0x1dec>
    2210:	00010d04 	andeq	r0, r1, r4, lsl #26
    2214:	06de0400 	ldrbeq	r0, [lr], r0, lsl #8
    2218:	18040000 	stmdane	r4, {}	; <UNPREDICTABLE>
    221c:	0000010d 	andeq	r0, r0, sp, lsl #2
    2220:	ee060109 	adfs	f0, f6, #1.0
    2224:	09000007 	stmdbeq	r0, {r0, r1, r2}
    2228:	06440502 	strbeq	r0, [r4], -r2, lsl #10
    222c:	04090000 	streq	r0, [r9], #-0
    2230:	00043e05 	andeq	r3, r4, r5, lsl #28
    2234:	05080900 	streq	r0, [r8, #-2304]	; 0x900
    2238:	00000439 	andeq	r0, r0, r9, lsr r4
    223c:	ec080109 	stfs	f0, [r8], {9}
    2240:	09000007 	stmdbeq	r0, {r0, r1, r2}
    2244:	08ac0702 	stmiaeq	ip!, {r1, r8, r9, sl}
    2248:	fe040000 	cdp2	0, 0, cr0, cr4, cr0, {0}
    224c:	05000001 	streq	r0, [r0, #-1]
    2250:	00019c34 	andeq	r9, r1, r4, lsr ip
    2254:	07040900 	streq	r0, [r4, -r0, lsl #18]
    2258:	00000245 	andeq	r0, r0, r5, asr #4
    225c:	40070809 	andmi	r0, r7, r9, lsl #16
    2260:	09000002 	stmdbeq	r0, {r1}
    2264:	07850704 	streq	r0, [r5, r4, lsl #14]
    2268:	040c0000 	streq	r0, [ip], #-0
    226c:	f5080109 			; <UNDEFINED> instruction: 0xf5080109
    2270:	0b000007 	bleq	2294 <_start-0x5d6c>
    2274:	0001c004 	andeq	ip, r1, r4
    2278:	01b30d00 			; <UNDEFINED> instruction: 0x01b30d00
    227c:	b30e0000 	movwlt	r0, #57344	; 0xe000
    2280:	d5000001 	strle	r0, [r0, #-1]
    2284:	0f000001 	svceq	0x00000001
    2288:	000001aa 	andeq	r0, r0, sl, lsr #3
    228c:	51100007 	tstpl	r0, r7
    2290:	09010c00 	stmdbeq	r1, {sl, fp}
    2294:	00000204 	andeq	r0, r0, r4, lsl #4
    2298:	00009a06 	andeq	r9, r0, r6, lsl #20
    229c:	040a0100 	streq	r0, [sl], #-256	; 0x100
    22a0:	00000002 	andeq	r0, r0, r2
    22a4:	00082106 	andeq	r2, r8, r6, lsl #2
    22a8:	040a0100 	streq	r0, [sl], #-256	; 0x100
    22ac:	04000002 	streq	r0, [r0], #-2
    22b0:	746e6307 	strbtvc	r6, [lr], #-775	; 0x307
    22b4:	af0b0100 	svcge	0x000b0100
    22b8:	08000000 	stmdaeq	r0, {}	; <UNPREDICTABLE>
    22bc:	5c040b00 	stcpl	11, cr0, [r4], {-0}
    22c0:	11000001 	tstne	r0, r1
    22c4:	00745f51 	rsbseq	r5, r4, r1, asr pc
    22c8:	01d50c01 	bicseq	r0, r5, r1, lsl #24
    22cc:	14050000 	strne	r0, [r5], #-0
    22d0:	02421d04 	subeq	r1, r2, #4, 26	; 0x100
    22d4:	d7060000 	strle	r0, [r6, -r0]
    22d8:	04000002 	streq	r0, [r0], #-2
    22dc:	0002421e 	andeq	r4, r2, lr, lsl r2
    22e0:	83060000 	movwhi	r0, #24576	; 0x6000
    22e4:	0400000e 	streq	r0, [r0], #-14
    22e8:	0000d61f 	andeq	sp, r0, pc, lsl r6
    22ec:	d0060400 	andle	r0, r6, r0, lsl #8
    22f0:	04000007 	streq	r0, [r0], #-7
    22f4:	00020a20 	andeq	r0, r2, r0, lsr #20
    22f8:	0b000800 	bleq	4300 <_start-0x3d00>
    22fc:	0000b604 	andeq	fp, r0, r4, lsl #12
    2300:	04b70400 	ldrteq	r0, [r7], #1024	; 0x400
    2304:	21040000 	mrscs	r0, (UNDEF: 4)
    2308:	00000215 	andeq	r0, r0, r5, lsl r2
    230c:	33060402 	movwcc	r0, #25602	; 0x6402
    2310:	000002c0 	andeq	r0, r0, r0, asr #5
    2314:	0009ea03 	andeq	lr, r9, r3, lsl #20
    2318:	82e88000 	rschi	r8, r8, #0
    231c:	db030280 	blle	c2d24 <__bss_end__+0xb703c>
    2320:	80000009 	andhi	r0, r0, r9
    2324:	028082e8 	addeq	r8, r0, #232, 4	; 0x8000000e
    2328:	000b5103 	andeq	r5, fp, r3, lsl #2
    232c:	82e88400 	rschi	r8, r8, #0, 8
    2330:	c9030280 	stmdbgt	r3, {r7, r9}
    2334:	88000009 	stmdahi	r0, {r0, r3}
    2338:	028082e8 	addeq	r8, r0, #232, 4	; 0x8000000e
    233c:	00095803 	andeq	r5, r9, r3, lsl #16
    2340:	82e88c00 	rschi	r8, r8, #0, 24
    2344:	70030280 	andvc	r0, r3, r0, lsl #5
    2348:	90000009 	andls	r0, r0, r9
    234c:	028082e8 	addeq	r8, r0, #232, 4	; 0x8000000e
    2350:	000a0203 	andeq	r0, sl, r3, lsl #4
    2354:	82e89400 	rschi	r9, r8, #0, 8
    2358:	82030280 	andhi	r0, r3, #128, 4
    235c:	9800000a 	stmdals	r0, {r1, r3}
    2360:	028082e8 	addeq	r8, r0, #232, 4	; 0x8000000e
    2364:	000a9303 	andeq	r9, sl, r3, lsl #6
    2368:	82e89c00 	rschi	r9, r8, #0, 24
    236c:	91030280 	smlabbls	r3, r0, r2, r0
    2370:	a000000b 	andge	r0, r0, fp
    2374:	028082e8 	addeq	r8, r0, #232, 4	; 0x8000000e
    2378:	07040200 	streq	r0, [r4, -r0, lsl #4]
    237c:	00033714 	andeq	r3, r3, r4, lsl r7
    2380:	09f90300 	ldmibeq	r9!, {r8, r9}^
    2384:	e4800000 	str	r0, [r0], #0
    2388:	03028082 	movweq	r8, #8322	; 0x2082
    238c:	00000b2d 	andeq	r0, r0, sp, lsr #22
    2390:	8082e480 	addhi	lr, r2, r0, lsl #9
    2394:	0a160302 	beq	582fa4 <__bss_end__+0x5772bc>
    2398:	e4840000 	str	r0, [r4], #0
    239c:	03028082 	movweq	r8, #8322	; 0x2082
    23a0:	00000a24 	andeq	r0, r0, r4, lsr #20
    23a4:	8082e488 	addhi	lr, r2, r8, lsl #9
    23a8:	0b790302 	bleq	1e42fb8 <__bss_end__+0x1e372d0>
    23ac:	e48c0000 	str	r0, [ip], #0
    23b0:	03028082 	movweq	r8, #8322	; 0x2082
    23b4:	00000a4d 	andeq	r0, r0, sp, asr #20
    23b8:	8082e490 	umullhi	lr, r2, r0, r4
    23bc:	0a690302 	beq	1a42fcc <__bss_end__+0x1a372e4>
    23c0:	e4940000 	ldr	r0, [r4], #0
    23c4:	03028082 	movweq	r8, #8322	; 0x2082
    23c8:	00000b3f 	andeq	r0, r0, pc, lsr fp
    23cc:	8082e498 	umullhi	lr, r2, r8, r4
    23d0:	09810302 	stmibeq	r1, {r1, r8, r9}
    23d4:	e49c0000 	ldr	r0, [ip], #0
    23d8:	03028082 	movweq	r8, #8322	; 0x2082
    23dc:	00000990 	muleq	r0, r0, r9
    23e0:	8082e4a0 	addhi	lr, r2, r0, lsr #9
    23e4:	0a320302 	beq	c82ff4 <__bss_end__+0xc7730c>
    23e8:	e4a40000 	strt	r0, [r4], #0
    23ec:	00028082 	andeq	r8, r2, r2, lsl #1
    23f0:	000b6112 	andeq	r6, fp, r2, lsl r1
    23f4:	040f0100 	streq	r0, [pc], #-256	; 23fc <_start-0x5c04>
    23f8:	a8000002 	stmdage	r0, {r1}
    23fc:	0800008e 	stmdaeq	r0, {r1, r2, r3, r7}
    2400:	01000000 	mrseq	r0, (UNDEF: 0)
    2404:	00035e9c 	muleq	r3, ip, lr
    2408:	00711300 	rsbseq	r1, r1, r0, lsl #6
    240c:	035e0f01 	cmpeq	lr, #1, 30
    2410:	0bd60000 	bleq	ff582418 <__bss_end__+0xff576730>
    2414:	0b000000 	bleq	241c <_start-0x5be4>
    2418:	00020a04 	andeq	r0, r2, r4, lsl #20
    241c:	0aef1400 	beq	ffbc7424 <__bss_end__+0xffbbb73c>
    2420:	2f010000 	svccs	0x00010000
    2424:	00008eb0 			; <UNDEFINED> instruction: 0x00008eb0
    2428:	00000038 	andeq	r0, r0, r8, lsr r0
    242c:	03909c01 	orrseq	r9, r0, #256	; 0x100
    2430:	71150000 	tstvc	r5, r0
    2434:	5e2f0100 	sufple	f0, f7, f0
    2438:	01000003 	tsteq	r0, r3
    243c:	00651550 	rsbeq	r1, r5, r0, asr r5
    2440:	02042f01 	andeq	r2, r4, #1, 30
    2444:	51010000 	mrspl	r0, (UNDEF: 1)
    2448:	0a451200 	beq	1146c50 <__bss_end__+0x113af68>
    244c:	13010000 	movwne	r0, #4096	; 0x1000
    2450:	000000a8 	andeq	r0, r0, r8, lsr #1
    2454:	00008ee8 	andeq	r8, r0, r8, ror #29
    2458:	00000054 	andeq	r0, r0, r4, asr r0
    245c:	04069c01 	streq	r9, [r6], #-3073	; 0xc01
    2460:	71130000 	tstvc	r3, r0
    2464:	5e130100 	mufpls	f0, f3, f0
    2468:	f7000003 			; <UNDEFINED> instruction: 0xf7000003
    246c:	1600000b 	strne	r0, [r0], -fp
    2470:	0000006c 	andeq	r0, r0, ip, rrx
    2474:	00000406 	andeq	r0, r0, r6, lsl #8
    2478:	b0a80305 	adclt	r0, r8, r5, lsl #6
    247c:	08170000 	ldmdaeq	r7, {}	; <UNPREDICTABLE>
    2480:	7400008f 	strvc	r0, [r0], #-143	; 0x8f
    2484:	18000009 	stmdane	r0, {r0, r3}
    2488:	00008f1c 	andeq	r8, r0, ip, lsl pc
    248c:	0000097b 	andeq	r0, r0, fp, ror r9
    2490:	000003fc 	strdeq	r0, [r0], -ip
    2494:	01530119 	cmpeq	r3, r9, lsl r1
    2498:	5201194a 	andpl	r1, r1, #1212416	; 0x128000
    249c:	b0a80305 	adclt	r0, r8, r5, lsl #6
    24a0:	01190000 	tsteq	r9, r0
    24a4:	0c030551 	cfstr32eq	mvfx0, [r3], {81}	; 0x51
    24a8:	190000b1 	stmdbne	r0, {r0, r4, r5, r7}
    24ac:	03055001 	movweq	r5, #20481	; 0x5001
    24b0:	0000b0dc 	ldrdeq	fp, [r0], -ip
    24b4:	8f201700 	svchi	0x00201700
    24b8:	09910000 	ldmibeq	r1, {}	; <UNPREDICTABLE>
    24bc:	0d000000 	stceq	0, cr0, [r0, #-0]
    24c0:	000001c5 	andeq	r0, r0, r5, asr #3
    24c4:	000a6312 	andeq	r6, sl, r2, lsl r3
    24c8:	041f0100 	ldreq	r0, [pc], #-256	; 24d0 <_start-0x5b30>
    24cc:	3c000002 	stccc	0, cr0, [r0], {2}
    24d0:	9800008f 	stmdals	r0, {r0, r1, r2, r3, r7}
    24d4:	01000000 	mrseq	r0, (UNDEF: 0)
    24d8:	0004e59c 	muleq	r4, ip, r5
    24dc:	00711300 	rsbseq	r1, r1, r0, lsl #6
    24e0:	035e1f01 	cmpeq	lr, #1, 30
    24e4:	0c4a0000 	mareq	acc0, r0, sl
    24e8:	6c160000 	ldcvs	0, cr0, [r6], {-0}
    24ec:	f5000000 			; <UNDEFINED> instruction: 0xf5000000
    24f0:	05000004 	streq	r0, [r0, #-4]
    24f4:	00b0b003 	adcseq	fp, r0, r3
    24f8:	00651a00 	rsbeq	r1, r5, r0, lsl #20
    24fc:	02042201 	andeq	r2, r4, #268435456	; 0x10000000
    2500:	0c9d0000 	ldceq	0, cr0, [sp], {0}
    2504:	4c170000 	ldcmi	0, cr0, [r7], {-0}
    2508:	7400008f 	strvc	r0, [r0], #-143	; 0x8f
    250c:	18000009 	stmdane	r0, {r0, r3}
    2510:	00008f60 	andeq	r8, r0, r0, ror #30
    2514:	0000097b 	andeq	r0, r0, fp, ror r9
    2518:	00000485 	andeq	r0, r0, r5, lsl #9
    251c:	02530119 	subseq	r0, r3, #1073741830	; 0x40000006
    2520:	01192008 	tsteq	r9, r8
    2524:	b0030552 	andlt	r0, r3, r2, asr r5
    2528:	190000b0 	stmdbne	r0, {r4, r5, r7}
    252c:	03055101 	movweq	r5, #20737	; 0x5101
    2530:	0000b10c 	andeq	fp, r0, ip, lsl #2
    2534:	05500119 	ldrbeq	r0, [r0, #-281]	; 0x119
    2538:	00b11003 	adcseq	r1, r1, r3
    253c:	64170000 	ldrvs	r0, [r7], #-0
    2540:	9100008f 	smlabbls	r0, pc, r0, r0	; <UNPREDICTABLE>
    2544:	18000009 	stmdane	r0, {r0, r3}
    2548:	00008f74 	andeq	r8, r0, r4, ror pc
    254c:	00000390 	muleq	r0, r0, r3
    2550:	000004a3 	andeq	r0, r0, r3, lsr #9
    2554:	03500119 	cmpeq	r0, #1073741830	; 0x40000006
    2558:	005001f3 	ldrsheq	r0, [r0], #-19	; 0xffffffed
    255c:	008f8017 	addeq	r8, pc, r7, lsl r0	; <UNPREDICTABLE>
    2560:	00097400 	andeq	r7, r9, r0, lsl #8
    2564:	8f941800 	svchi	0x00941800
    2568:	097b0000 	ldmdbeq	fp!, {}^	; <UNPREDICTABLE>
    256c:	04db0000 	ldrbeq	r0, [fp], #0
    2570:	01190000 	tsteq	r9, r0
    2574:	24080253 	strcs	r0, [r8], #-595	; 0x253
    2578:	05520119 	ldrbeq	r0, [r2, #-281]	; 0x119
    257c:	00b0b003 	adcseq	fp, r0, r3
    2580:	51011900 	tstpl	r1, r0, lsl #18
    2584:	b10c0305 	tstlt	ip, r5, lsl #6
    2588:	01190000 	tsteq	r9, r0
    258c:	38030550 	stmdacc	r3, {r4, r6, r8, sl}
    2590:	000000b1 	strheq	r0, [r0], -r1
    2594:	008f9817 	addeq	r9, pc, r7, lsl r8	; <UNPREDICTABLE>
    2598:	00099100 	andeq	r9, r9, r0, lsl #2
    259c:	b30e0000 	movwlt	r0, #57344	; 0xe000
    25a0:	f5000001 			; <UNDEFINED> instruction: 0xf5000001
    25a4:	0f000004 	svceq	0x00000004
    25a8:	000001aa 	andeq	r0, r0, sl, lsr #3
    25ac:	e50d0005 	str	r0, [sp, #-5]
    25b0:	1b000004 	blne	25c8 <_start-0x5a38>
    25b4:	00000260 	andeq	r0, r0, r0, ror #4
    25b8:	05b03202 	ldreq	r3, [r0, #514]!	; 0x202
    25bc:	8fd40000 	svchi	0x00d40000
    25c0:	00a40000 	adceq	r0, r4, r0
    25c4:	9c010000 	stcls	0, cr0, [r1], {-0}
    25c8:	000005b0 			; <UNDEFINED> instruction: 0x000005b0
    25cc:	72696413 	rsbvc	r6, r9, #318767104	; 0x13000000
    25d0:	af320200 	svcge	0x00320200
    25d4:	bb000000 	bllt	25dc <_start-0x5a24>
    25d8:	1c00000c 	stcne	0, cr0, [r0], {12}
    25dc:	000003d2 	ldrdeq	r0, [r0], -r2
    25e0:	00af3202 	adceq	r3, pc, r2, lsl #4
    25e4:	0cef0000 	stcleq	0, cr0, [pc]	; 25ec <_start-0x5a14>
    25e8:	d71d0000 	ldrle	r0, [sp, -r0]
    25ec:	02000002 	andeq	r0, r0, #2
    25f0:	0005b038 	andeq	fp, r5, r8, lsr r0
    25f4:	000d1800 	andeq	r1, sp, r0, lsl #16
    25f8:	904c1e00 	subls	r1, ip, r0, lsl #28
    25fc:	00080000 	andeq	r0, r8, r0
    2600:	055c0000 	ldrbeq	r0, [ip, #-0]
    2604:	691a0000 	ldmdbvs	sl, {}	; <UNPREDICTABLE>
    2608:	4202006e 	andmi	r0, r2, #110	; 0x6e
    260c:	000000af 	andeq	r0, r0, pc, lsr #1
    2610:	00000d36 	andeq	r0, r0, r6, lsr sp
    2614:	8ff81800 	svchi	0x00f81800
    2618:	09980000 	ldmibeq	r8, {}	; <UNPREDICTABLE>
    261c:	056f0000 	strbeq	r0, [pc, #-0]!	; 2624 <_start-0x59dc>
    2620:	01190000 	tsteq	r9, r0
    2624:	00440150 	subeq	r0, r4, r0, asr r1
    2628:	00901018 	addseq	r1, r0, r8, lsl r0
    262c:	0009ad00 	andeq	sl, r9, r0, lsl #26
    2630:	00058900 	andeq	r8, r5, r0, lsl #18
    2634:	51011900 	tstpl	r1, r0, lsl #18
    2638:	19007502 	stmdbne	r0, {r1, r8, sl, ip, sp, lr}
    263c:	76025001 	strvc	r5, [r2], -r1
    2640:	4c170000 	ldcmi	0, cr0, [r7], {-0}
    2644:	c7000090 			; <UNDEFINED> instruction: 0xc7000090
    2648:	18000009 	stmdane	r0, {r0, r3}
    264c:	0000905c 	andeq	r9, r0, ip, asr r0
    2650:	000009ce 	andeq	r0, r0, lr, asr #19
    2654:	000005a6 	andeq	r0, r0, r6, lsr #11
    2658:	02500119 	subseq	r0, r0, #1073741830	; 0x40000006
    265c:	17006408 	strne	r6, [r0, -r8, lsl #8]
    2660:	00009060 	andeq	r9, r0, r0, rrx
    2664:	000009df 	ldrdeq	r0, [r0], -pc	; <UNPREDICTABLE>
    2668:	48040b00 	stmdami	r4, {r8, r9, fp}
    266c:	1b000002 	blne	267c <_start-0x5984>
    2670:	00000b0c 	andeq	r0, r0, ip, lsl #22
    2674:	05b04902 	ldreq	r4, [r0, #2306]!	; 0x902
    2678:	90780000 	rsbsls	r0, r8, r0
    267c:	002c0000 	eoreq	r0, ip, r0
    2680:	9c010000 	stcls	0, cr0, [r1], {-0}
    2684:	00000678 	andeq	r0, r0, r8, ror r6
    2688:	72696413 	rsbvc	r6, r9, #318767104	; 0x13000000
    268c:	af490200 	svcge	0x00490200
    2690:	4a000000 	bmi	2698 <_start-0x5968>
    2694:	1c00000d 	stcne	0, cr0, [r0], {13}
    2698:	000003d2 	ldrdeq	r0, [r0], -r2
    269c:	00af4902 	adceq	r4, pc, r2, lsl #18
    26a0:	0d6b0000 	stcleq	0, cr0, [fp, #-0]
    26a4:	4d130000 	ldcmi	0, cr0, [r3, #-0]
    26a8:	02003153 	andeq	r3, r0, #-1073741804	; 0xc0000014
    26ac:	0000af49 	andeq	sl, r0, r9, asr #30
    26b0:	000d8c00 	andeq	r8, sp, r0, lsl #24
    26b4:	534d1300 	movtpl	r1, #54016	; 0xd300
    26b8:	49020032 	stmdbmi	r2, {r1, r4, r5}
    26bc:	000000af 	andeq	r0, r0, pc, lsr #1
    26c0:	00000dad 	andeq	r0, r0, sp, lsr #27
    26c4:	33534d15 	cmpcc	r3, #1344	; 0x540
    26c8:	af490200 	svcge	0x00490200
    26cc:	02000000 	andeq	r0, r0, #0
    26d0:	271f0091 			; <UNDEFINED> instruction: 0x271f0091
    26d4:	02000009 	andeq	r0, r0, #9
    26d8:	00004c49 	andeq	r4, r0, r9, asr #24
    26dc:	04910200 	ldreq	r0, [r1], #512	; 0x200
    26e0:	00006c16 	andeq	r6, r0, r6, lsl ip
    26e4:	00068800 	andeq	r8, r6, r0, lsl #16
    26e8:	b8030500 	stmdalt	r3, {r8, sl}
    26ec:	170000b0 			; <UNDEFINED> instruction: 0x170000b0
    26f0:	00009080 	andeq	r9, r0, r0, lsl #1
    26f4:	00000974 	andeq	r0, r0, r4, ror r9
    26f8:	00909418 	addseq	r9, r0, r8, lsl r4
    26fc:	00097b00 	andeq	r7, r9, r0, lsl #22
    2700:	00066e00 	andeq	r6, r6, r0, lsl #28
    2704:	53011900 	movwpl	r1, #6400	; 0x1900
    2708:	194a0802 	stmdbne	sl, {r1, fp}^
    270c:	03055201 	movweq	r5, #20993	; 0x5201
    2710:	0000b0b8 	strheq	fp, [r0], -r8
    2714:	05510119 	ldrbeq	r0, [r1, #-281]	; 0x119
    2718:	00b18003 	adcseq	r8, r1, r3
    271c:	50011900 	andpl	r1, r1, r0, lsl #18
    2720:	b1540305 	cmplt	r4, r5, lsl #6
    2724:	17000000 	strne	r0, [r0, -r0]
    2728:	00009098 	muleq	r0, r8, r0
    272c:	00000991 	muleq	r0, r1, r9
    2730:	01b30e00 			; <UNDEFINED> instruction: 0x01b30e00
    2734:	06880000 	streq	r0, [r8], r0
    2738:	aa0f0000 	bge	3c2740 <__bss_end__+0x3b6a58>
    273c:	20000001 	andcs	r0, r0, r1
    2740:	06780d00 	ldrbteq	r0, [r8], -r0, lsl #26
    2744:	541b0000 	ldrpl	r0, [fp], #-0
    2748:	02000000 	andeq	r0, r0, #0
    274c:	0002044e 	andeq	r0, r2, lr, asr #8
    2750:	0090a400 	addseq	sl, r0, r0, lsl #8
    2754:	00004800 	andeq	r4, r0, r0, lsl #16
    2758:	0c9c0100 	ldfeqs	f0, [ip], {0}
    275c:	1c000007 	stcne	0, cr0, [r0], {7}
    2760:	000002d7 	ldrdeq	r0, [r0], -r7
    2764:	05b04e02 	ldreq	r4, [r0, #3586]!	; 0xe02
    2768:	0dce0000 	stcleq	0, cr0, [lr]
    276c:	7d1c0000 	ldcvc	0, cr0, [ip, #-0]
    2770:	02000008 	andeq	r0, r0, #8
    2774:	0000a84e 	andeq	sl, r0, lr, asr #16
    2778:	000dec00 	andeq	lr, sp, r0, lsl #24
    277c:	001f1c00 	andseq	r1, pc, r0, lsl #24
    2780:	4e020000 	cdpmi	0, 0, cr0, cr2, cr0, {0}
    2784:	000000af 	andeq	r0, r0, pc, lsr #1
    2788:	00000e0a 	andeq	r0, r0, sl, lsl #28
    278c:	000a5b1d 	andeq	r5, sl, sp, lsl fp
    2790:	04500200 	ldrbeq	r0, [r0], #-512	; 0x200
    2794:	28000002 	stmdacs	r0, {r1}
    2798:	1800000e 	stmdane	r0, {r1, r2, r3}
    279c:	000090c4 	andeq	r9, r0, r4, asr #1
    27a0:	00000998 	muleq	r0, r8, r9
    27a4:	000006f5 	strdeq	r0, [r0], -r5
    27a8:	01500119 	cmpeq	r0, r9, lsl r1
    27ac:	e4200044 	strt	r0, [r0], #-68	; 0x44
    27b0:	64000090 	strvs	r0, [r0], #-144	; 0x90
    27b4:	19000003 	stmdbne	r0, {r0, r1}
    27b8:	74025101 	strvc	r5, [r2], #-257	; 0x101
    27bc:	50011900 	andpl	r1, r1, r0, lsl #18
    27c0:	00087602 	andeq	r7, r8, r2, lsl #12
    27c4:	06f91b00 	ldrbteq	r1, [r9], r0, lsl #22
    27c8:	5a020000 	bpl	827d0 <__bss_end__+0x76ae8>
    27cc:	000000a8 	andeq	r0, r0, r8, lsr #1
    27d0:	000090ec 	andeq	r9, r0, ip, ror #1
    27d4:	00000010 	andeq	r0, r0, r0, lsl r0
    27d8:	073e9c01 	ldreq	r9, [lr, -r1, lsl #24]!
    27dc:	d71c0000 	ldrle	r0, [ip, -r0]
    27e0:	02000002 	andeq	r0, r0, #2
    27e4:	0005b05a 	andeq	fp, r5, sl, asr r0
    27e8:	000e4600 	andeq	r4, lr, r0, lsl #12
    27ec:	90f81700 	rscsls	r1, r8, r0, lsl #14
    27f0:	09e60000 	stmibeq	r6!, {}^	; <UNPREDICTABLE>
    27f4:	21000000 	mrscs	r0, (UNDEF: 0)
    27f8:	00000af8 	strdeq	r0, [r0], -r8
    27fc:	90fc0e02 	rscsls	r0, ip, r2, lsl #28
    2800:	00f00000 	rscseq	r0, r0, r0
    2804:	9c010000 	stcls	0, cr0, [r1], {-0}
    2808:	00000899 	muleq	r0, r9, r8
    280c:	00637013 	rsbeq	r7, r3, r3, lsl r0
    2810:	00af0e02 	adceq	r0, pc, r2, lsl #28
    2814:	0e670000 	cdpeq	0, 6, cr0, cr7, cr0, {0}
    2818:	371d0000 	ldrcc	r0, [sp, -r0]
    281c:	0200000b 	andeq	r0, r0, #11
    2820:	0000af11 	andeq	sl, r0, r1, lsl pc
    2824:	000e8800 	andeq	r8, lr, r0, lsl #16
    2828:	0aca1d00 	beq	ff289c30 <__bss_end__+0xff27df48>
    282c:	17020000 	strne	r0, [r2, -r0]
    2830:	00000191 	muleq	r0, r1, r1
    2834:	00000e9b 	muleq	r0, fp, lr
    2838:	00912c1e 	addseq	r2, r1, lr, lsl ip
    283c:	0000c000 	andeq	ip, r0, r0
    2840:	00084a00 	andeq	r4, r8, r0, lsl #20
    2844:	00691a00 	rsbeq	r1, r9, r0, lsl #20
    2848:	00a81802 	adceq	r1, r8, r2, lsl #16
    284c:	0eb90000 	cdpeq	0, 11, cr0, cr9, cr0, {0}
    2850:	48220000 	stmdami	r2!, {}	; <UNPREDICTABLE>
    2854:	1d000000 	stcne	0, cr0, [r0, #-0]
    2858:	000002d7 	ldrdeq	r0, [r0], -r7
    285c:	05b01902 	ldreq	r1, [r0, #2306]!	; 0x902
    2860:	0ed80000 	cdpeq	0, 13, cr0, cr8, cr0, {0}
    2864:	60230000 	eorvs	r0, r3, r0
    2868:	38000000 	stmdacc	r0, {}	; <UNPREDICTABLE>
    286c:	1d000008 	stcne	0, cr0, [r0, #-32]	; 0xffffffe0
    2870:	00000434 	andeq	r0, r0, r4, lsr r4
    2874:	02041b02 	andeq	r1, r4, #2048	; 0x800
    2878:	0eeb0000 	cdpeq	0, 14, cr0, cr11, cr0, {0}
    287c:	c01d0000 	andsgt	r0, sp, r0
    2880:	02000009 	andeq	r0, r0, #9
    2884:	0000a81c 	andeq	sl, r0, ip, lsl r8
    2888:	000f0900 	andeq	r0, pc, r0, lsl #18
    288c:	00782300 	rsbseq	r2, r8, r0, lsl #6
    2890:	07fd0000 	ldrbeq	r0, [sp, r0]!
    2894:	6b1d0000 	blvs	74289c <__bss_end__+0x736bb4>
    2898:	02000009 	andeq	r0, r0, #9
    289c:	0002041e 	andeq	r0, r2, lr, lsl r4
    28a0:	000f3200 	andeq	r3, pc, r0, lsl #4
    28a4:	91842000 	orrls	r2, r4, r0
    28a8:	040b0000 	streq	r0, [fp], #-0
    28ac:	01190000 	tsteq	r9, r0
    28b0:	00760250 	rsbseq	r0, r6, r0, asr r2
    28b4:	64180000 	ldrvs	r0, [r8], #-0
    28b8:	37000091 			; <UNDEFINED> instruction: 0x37000091
    28bc:	11000003 	tstne	r0, r3
    28c0:	19000008 	stmdbne	r0, {r3}
    28c4:	76025001 	strvc	r5, [r2], -r1
    28c8:	70180000 	andsvc	r0, r8, r0
    28cc:	0c000091 	stceq	0, cr0, [r0], {145}	; 0x91
    28d0:	25000007 	strcs	r0, [r0, #-7]
    28d4:	19000008 	stmdbne	r0, {r3}
    28d8:	75025001 	strvc	r5, [r2, #-1]
    28dc:	b4170000 	ldrlt	r0, [r7], #-0
    28e0:	fb000091 	blx	2b2e <_start-0x54d2>
    28e4:	17000009 	strne	r0, [r0, -r9]
    28e8:	000091c0 	andeq	r9, r0, r0, asr #3
    28ec:	00000a0c 	andeq	r0, r0, ip, lsl #20
    28f0:	91542000 	cmpls	r4, r0
    28f4:	03900000 	orrseq	r0, r0, #0
    28f8:	01190000 	tsteq	r9, r0
    28fc:	00760250 	rsbseq	r0, r6, r0, asr r2
    2900:	17000000 	strne	r0, [r0, -r0]
    2904:	00009104 	andeq	r9, r0, r4, lsl #2
    2908:	00000a1d 	andeq	r0, r0, sp, lsl sl
    290c:	00910c18 	addseq	r0, r1, r8, lsl ip
    2910:	000a2400 	andeq	r2, sl, r0, lsl #8
    2914:	00086a00 	andeq	r6, r8, r0, lsl #20
    2918:	50011900 	andpl	r1, r1, r0, lsl #18
    291c:	b2000c05 	andlt	r0, r0, #1280	; 0x500
    2920:	18002000 	stmdane	r0, {sp}
    2924:	00009120 	andeq	r9, r0, r0, lsr #2
    2928:	00000a39 	andeq	r0, r0, r9, lsr sl
    292c:	00000886 	andeq	r0, r0, r6, lsl #17
    2930:	01510119 	cmpeq	r1, r9, lsl r1
    2934:	50011931 	andpl	r1, r1, r1, lsr r9
    2938:	b40c0c05 	strlt	r0, [ip], #-3077	; 0xc05
    293c:	17002000 	strne	r2, [r0, -r0]
    2940:	00009124 	andeq	r9, r0, r4, lsr #2
    2944:	00000a1d 	andeq	r0, r0, sp, lsl sl
    2948:	00912817 	addseq	r2, r1, r7, lsl r8
    294c:	000a4f00 	andeq	r4, sl, r0, lsl #30
    2950:	29210000 	stmdbcs	r1!, {}	; <UNPREDICTABLE>
    2954:	02000018 	andeq	r0, r0, #24
    2958:	0091ec2e 	addseq	lr, r1, lr, lsr #24
    295c:	00000c00 	andeq	r0, r0, r0, lsl #24
    2960:	ce9c0100 	fmlgte	f0, f4, f0
    2964:	13000008 	movwne	r0, #8
    2968:	02006370 	andeq	r6, r0, #112, 6	; 0xc0000001
    296c:	0000af2e 	andeq	sl, r0, lr, lsr #30
    2970:	000f4500 	andeq	r4, pc, r0, lsl #10
    2974:	91f42000 	mvnsls	r2, r0
    2978:	073e0000 	ldreq	r0, [lr, -r0]!
    297c:	01190000 	tsteq	r9, r0
    2980:	01f30350 	mvnseq	r0, r0, asr r3
    2984:	1b000050 	blne	2acc <_start-0x5534>
    2988:	000005df 	ldrdeq	r0, [r0], -pc	; <UNPREDICTABLE>
    298c:	00a85e02 	adceq	r5, r8, r2, lsl #28
    2990:	91f80000 	mvnsls	r0, r0
    2994:	00140000 	andseq	r0, r4, r0
    2998:	9c010000 	stcls	0, cr0, [r1], {-0}
    299c:	000008f7 	strdeq	r0, [r0], -r7
    29a0:	0002d71c 	andeq	sp, r2, ip, lsl r7
    29a4:	b05e0200 	subslt	r0, lr, r0, lsl #4
    29a8:	66000005 	strvs	r0, [r0], -r5
    29ac:	0000000f 	andeq	r0, r0, pc
    29b0:	0002ee1b 	andeq	lr, r2, fp, lsl lr
    29b4:	a8620200 	stmdage	r2!, {r9}^
    29b8:	0c000000 	stceq	0, cr0, [r0], {-0}
    29bc:	14000092 	strne	r0, [r0], #-146	; 0x92
    29c0:	01000000 	mrseq	r0, (UNDEF: 0)
    29c4:	0009209c 	muleq	r9, ip, r0
    29c8:	6f701300 	svcvs	0x00701300
    29cc:	62020073 	andvs	r0, r2, #115	; 0x73
    29d0:	00000204 	andeq	r0, r0, r4, lsl #4
    29d4:	00000f87 	andeq	r0, r0, r7, lsl #31
    29d8:	0a772400 	beq	1dcb9e0 <__bss_end__+0x1dbfcf8>
    29dc:	08020000 	stmdaeq	r2, {}	; <UNPREDICTABLE>
    29e0:	000000a8 	andeq	r0, r0, r8, lsr #1
    29e4:	ab040305 	blge	103600 <__bss_end__+0xf7918>
    29e8:	b00e0000 	andlt	r0, lr, r0
    29ec:	41000005 	tstmi	r0, r5
    29f0:	0f000009 	svceq	0x00000009
    29f4:	000001aa 	andeq	r0, r0, sl, lsr #3
    29f8:	9f24000f 	svcls	0x0024000f
    29fc:	02000009 	andeq	r0, r0, #9
    2a00:	0009310b 	andeq	r3, r9, fp, lsl #2
    2a04:	94030500 	strls	r0, [r3], #-1280	; 0x500
    2a08:	240000b8 	strcs	r0, [r0], #-184	; 0xb8
    2a0c:	00000ad4 	ldrdeq	r0, [r0], -r4
    2a10:	00af0c02 	adceq	r0, pc, r2, lsl #24
    2a14:	03050000 	movweq	r0, #20480	; 0x5000
    2a18:	0000b890 	muleq	r0, r0, r8
    2a1c:	000b6925 	andeq	r6, fp, r5, lsr #18
    2a20:	53800600 	orrpl	r0, r0, #0, 12
    2a24:	05000002 	streq	r0, [r0, #-2]
    2a28:	00bce003 	adcseq	lr, ip, r3
    2a2c:	00102600 	andseq	r2, r0, r0, lsl #12
    2a30:	1e080000 	cdpne	0, 0, cr0, cr8, cr0, {0}
    2a34:	00124d27 	andseq	r4, r2, r7, lsr #26
    2a38:	a8290800 	stmdage	r9!, {fp}
    2a3c:	91000000 	mrsls	r0, (UNDEF: 0)
    2a40:	28000009 	stmdacs	r0, {r0, r3}
    2a44:	000001ba 			; <UNDEFINED> instruction: 0x000001ba
    2a48:	f3260029 	vhadd.u32	d0, d6, d25
    2a4c:	08000005 	stmdaeq	r0, {r0, r2}
    2a50:	09362766 	ldmdbeq	r6!, {r1, r2, r5, r6, r8, r9, sl, sp}
    2a54:	6d080000 	stcvs	0, cr0, [r8, #-0]
    2a58:	000001b1 			; <UNDEFINED> instruction: 0x000001b1
    2a5c:	000009ad 	andeq	r0, r0, sp, lsr #19
    2a60:	0000af28 	andeq	sl, r0, r8, lsr #30
    2a64:	1e270000 	cdpne	0, 2, cr0, cr7, cr0, {0}
    2a68:	03000006 	movweq	r0, #6
    2a6c:	00024217 	andeq	r4, r2, r7, lsl r2
    2a70:	0009c700 	andeq	ip, r9, r0, lsl #14
    2a74:	00af2800 	adceq	r2, pc, r0, lsl #16
    2a78:	af280000 	svcge	0x00280000
    2a7c:	00000000 	andeq	r0, r0, r0
    2a80:	000aa826 	andeq	sl, sl, r6, lsr #16
    2a84:	2a330700 	bcs	cc468c <__bss_end__+0xcb89a4>
    2a88:	000009ab 	andeq	r0, r0, fp, lsr #19
    2a8c:	09df0809 	ldmibeq	pc, {r0, r3, fp}^	; <UNPREDICTABLE>
    2a90:	af280000 	svcge	0x00280000
    2a94:	00000000 	andeq	r0, r0, r0
    2a98:	000ab126 	andeq	fp, sl, r6, lsr #2
    2a9c:	27310700 	ldrcs	r0, [r1, -r0, lsl #14]!
    2aa0:	00000163 	andeq	r0, r0, r3, ror #2
    2aa4:	00a82303 	adceq	r2, r8, r3, lsl #6
    2aa8:	09fb0000 	ldmibeq	fp!, {}^	; <UNPREDICTABLE>
    2aac:	42280000 	eormi	r0, r8, #0
    2ab0:	00000002 	andeq	r0, r0, r2
    2ab4:	0008ef2a 	andeq	lr, r8, sl, lsr #30
    2ab8:	0c1f0300 	ldceq	3, cr0, [pc], {-0}
    2abc:	2800000a 	stmdacs	r0, {r1, r3}
    2ac0:	00000242 	andeq	r0, r0, r2, asr #4
    2ac4:	03ed2a00 	mvneq	r2, #0, 20
    2ac8:	21030000 	mrscs	r0, (UNDEF: 3)
    2acc:	00000a1d 	andeq	r0, r0, sp, lsl sl
    2ad0:	00024228 	andeq	r4, r2, r8, lsr #4
    2ad4:	09260000 	stmdbeq	r6!, {}	; <UNPREDICTABLE>
    2ad8:	08000006 	stmdaeq	r0, {r1, r2}
    2adc:	0b8b278a 	bleq	fe2cc90c <__bss_end__+0xfe2c0c24>
    2ae0:	a8080000 	stmdage	r8, {}	; <UNPREDICTABLE>
    2ae4:	000000af 	andeq	r0, r0, pc, lsr #1
    2ae8:	00000a39 	andeq	r0, r0, r9, lsr sl
    2aec:	0000af28 	andeq	sl, r0, r8, lsr #30
    2af0:	852a0000 	strhi	r0, [sl, #-0]!
    2af4:	0800000b 	stmdaeq	r0, {r0, r1, r3}
    2af8:	000a4f9c 	muleq	sl, ip, pc	; <UNPREDICTABLE>
    2afc:	00af2800 	adceq	r2, pc, r0, lsl #16
    2b00:	af280000 	svcge	0x00280000
    2b04:	00000000 	andeq	r0, r0, r0
    2b08:	0007c12b 	andeq	ip, r7, fp, lsr #2
    2b0c:	af550800 	svcge	0x00550800
    2b10:	00000000 	andeq	r0, r0, r0
    2b14:	00001b5e 	andeq	r1, r0, lr, asr fp
    2b18:	072e0004 	streq	r0, [lr, -r4]!
    2b1c:	01040000 	mrseq	r0, (UNDEF: 4)
    2b20:	00000bba 			; <UNDEFINED> instruction: 0x00000bba
    2b24:	000dcc0c 	andeq	ip, sp, ip, lsl #24
    2b28:	00103300 	andseq	r3, r0, r0, lsl #6
    2b2c:	00922000 	addseq	r2, r2, r0
    2b30:	00056800 	andeq	r6, r5, r0, lsl #16
    2b34:	00064c00 	andeq	r4, r6, r0, lsl #24
    2b38:	05040200 	streq	r0, [r4, #-512]	; 0x200
    2b3c:	00746e69 	rsbseq	r6, r4, r9, ror #28
    2b40:	4a070403 	bmi	1c3b54 <__bss_end__+0x1b7e6c>
    2b44:	04000002 	streq	r0, [r0], #-2
    2b48:	0000002c 	andeq	r0, r0, ip, lsr #32
    2b4c:	ee060103 	adfs	f0, f6, f3
    2b50:	03000007 	movweq	r0, #7
    2b54:	06440502 	strbeq	r0, [r4], -r2, lsl #10
    2b58:	04030000 	streq	r0, [r3], #-0
    2b5c:	00043e05 	andeq	r3, r4, r5, lsl #28
    2b60:	05080300 	streq	r0, [r8, #-768]	; 0x300
    2b64:	00000439 	andeq	r0, r0, r9, lsr r4
    2b68:	0003e505 	andeq	lr, r3, r5, lsl #10
    2b6c:	5f2e0200 	svcpl	0x002e0200
    2b70:	03000000 	movweq	r0, #0
    2b74:	07ec0801 	strbeq	r0, [ip, r1, lsl #16]!
    2b78:	02030000 	andeq	r0, r3, #0
    2b7c:	0008ac07 	andeq	sl, r8, r7, lsl #24
    2b80:	01fe0500 	mvnseq	r0, r0, lsl #10
    2b84:	34020000 	strcc	r0, [r2], #-0
    2b88:	00000078 	andeq	r0, r0, r8, ror r0
    2b8c:	45070403 	strmi	r0, [r7, #-1027]	; 0x403
    2b90:	03000002 	movweq	r0, #2
    2b94:	02400708 	subeq	r0, r0, #8, 14	; 0x200000
    2b98:	51050000 	mrspl	r0, (UNDEF: 5)
    2b9c:	0300000f 	movweq	r0, #15
    2ba0:	00002507 	andeq	r2, r0, r7, lsl #10
    2ba4:	0f3b0500 	svceq	0x003b0500
    2ba8:	2c040000 	stccs	0, cr0, [r4], {-0}
    2bac:	00000046 	andeq	r0, r0, r6, asr #32
    2bb0:	00101605 	andseq	r1, r0, r5, lsl #12
    2bb4:	46720400 	ldrbtmi	r0, [r2], -r0, lsl #8
    2bb8:	06000000 	streq	r0, [r0], -r0
    2bbc:	00000ece 	andeq	r0, r0, lr, asr #29
    2bc0:	2c016505 	cfstr32cs	mvfx6, [r1], {5}
    2bc4:	07000000 	streq	r0, [r0, -r0]
    2bc8:	d2a60404 	adcle	r0, r6, #4, 8	; 0x4000000
    2bcc:	08000000 	stmdaeq	r0, {}	; <UNPREDICTABLE>
    2bd0:	00000eb9 			; <UNDEFINED> instruction: 0x00000eb9
    2bd4:	00a7a804 	adceq	sl, r7, r4, lsl #16
    2bd8:	29080000 	stmdbcs	r8, {}	; <UNPREDICTABLE>
    2bdc:	0400000e 	streq	r0, [r0], #-14
    2be0:	0000d2a9 	andeq	sp, r0, r9, lsr #5
    2be4:	5f090000 	svcpl	0x00090000
    2be8:	e2000000 	and	r0, r0, #0
    2bec:	0a000000 	beq	2bf4 <_start-0x540c>
    2bf0:	000000e2 	andeq	r0, r0, r2, ror #1
    2bf4:	04030003 	streq	r0, [r3], #-3
    2bf8:	00078507 	andeq	r8, r7, r7, lsl #10
    2bfc:	04080b00 	streq	r0, [r8], #-2816	; 0xb00
    2c00:	00010aa3 	andeq	r0, r1, r3, lsr #21
    2c04:	10080c00 	andne	r0, r8, r0, lsl #24
    2c08:	a5040000 	strge	r0, [r4, #-0]
    2c0c:	00000025 	andeq	r0, r0, r5, lsr #32
    2c10:	10770c00 	rsbsne	r0, r7, r0, lsl #24
    2c14:	aa040000 	bge	102c1c <__bss_end__+0xf6f34>
    2c18:	000000b3 	strheq	r0, [r0], -r3
    2c1c:	8f050004 	svchi	0x00050004
    2c20:	0400000f 	streq	r0, [r0], #-15
    2c24:	0000e9ab 	andeq	lr, r0, fp, lsr #19
    2c28:	0ddf0500 	cfldr64eq	mvdx0, [pc]	; 2c30 <_start-0x53d0>
    2c2c:	af040000 	svcge	0x00040000
    2c30:	00000086 	andeq	r0, r0, r6, lsl #1
    2c34:	040e040d 	streq	r0, [lr], #-1037	; 0x40d
    2c38:	00000128 	andeq	r0, r0, r8, lsr #2
    2c3c:	f5080103 			; <UNDEFINED> instruction: 0xf5080103
    2c40:	04000007 	streq	r0, [r0], #-7
    2c44:	00000128 	andeq	r0, r0, r8, lsr #2
    2c48:	00108d05 	andseq	r8, r0, r5, lsl #26
    2c4c:	78160600 	ldmdavc	r6, {r9, sl}
    2c50:	0f000000 	svceq	0x00000000
    2c54:	00000df0 	strdeq	r0, [r0], -r0	; <UNPREDICTABLE>
    2c58:	922d0618 	eorls	r0, sp, #24, 12	; 0x1800000
    2c5c:	0c000001 	stceq	0, cr0, [r0], {1}
    2c60:	00000fb0 			; <UNDEFINED> instruction: 0x00000fb0
    2c64:	01922f06 	orrseq	r2, r2, r6, lsl #30
    2c68:	10000000 	andne	r0, r0, r0
    2c6c:	06006b5f 			; <UNDEFINED> instruction: 0x06006b5f
    2c70:	00002530 	andeq	r2, r0, r0, lsr r5
    2c74:	f30c0400 	vshl.u8	d0, d0, d12
    2c78:	0600000f 	streq	r0, [r0], -pc
    2c7c:	00002530 	andeq	r2, r0, r0, lsr r5
    2c80:	d20c0800 	andle	r0, ip, #0, 16
    2c84:	0600000d 	streq	r0, [r0], -sp
    2c88:	00002530 	andeq	r2, r0, r0, lsr r5
    2c8c:	df0c0c00 	svcle	0x000c0c00
    2c90:	06000010 			; <UNDEFINED> instruction: 0x06000010
    2c94:	00002530 	andeq	r2, r0, r0, lsr r5
    2c98:	5f101000 	svcpl	0x00101000
    2c9c:	31060078 	tstcc	r6, r8, ror r0
    2ca0:	00000198 	muleq	r0, r8, r1
    2ca4:	040e0014 	streq	r0, [lr], #-20
    2ca8:	0000013f 	andeq	r0, r0, pc, lsr r1
    2cac:	00013409 	andeq	r3, r1, r9, lsl #8
    2cb0:	0001a800 	andeq	sl, r1, r0, lsl #16
    2cb4:	00e20a00 	rsceq	r0, r2, r0, lsl #20
    2cb8:	00000000 	andeq	r0, r0, r0
    2cbc:	000e1d0f 	andeq	r1, lr, pc, lsl #26
    2cc0:	35062400 	strcc	r2, [r6, #-1024]	; 0x400
    2cc4:	00000221 	andeq	r0, r0, r1, lsr #4
    2cc8:	000cca0c 	andeq	ip, ip, ip, lsl #20
    2ccc:	25370600 	ldrcs	r0, [r7, #-1536]!	; 0x600
    2cd0:	00000000 	andeq	r0, r0, r0
    2cd4:	00101e0c 	andseq	r1, r0, ip, lsl #28
    2cd8:	25380600 	ldrcs	r0, [r8, #-1536]!	; 0x600
    2cdc:	04000000 	streq	r0, [r0], #-0
    2ce0:	000cee0c 	andeq	lr, ip, ip, lsl #28
    2ce4:	25390600 	ldrcs	r0, [r9, #-1536]!	; 0x600
    2ce8:	08000000 	stmdaeq	r0, {}	; <UNPREDICTABLE>
    2cec:	0011cc0c 	andseq	ip, r1, ip, lsl #24
    2cf0:	253a0600 	ldrcs	r0, [sl, #-1536]!	; 0x600
    2cf4:	0c000000 	stceq	0, cr0, [r0], {-0}
    2cf8:	000f1f0c 	andeq	r1, pc, ip, lsl #30
    2cfc:	253b0600 	ldrcs	r0, [fp, #-1536]!	; 0x600
    2d00:	10000000 	andne	r0, r0, r0
    2d04:	000ee30c 	andeq	lr, lr, ip, lsl #6
    2d08:	253c0600 	ldrcs	r0, [ip, #-1536]!	; 0x600
    2d0c:	14000000 	strne	r0, [r0], #-0
    2d10:	0010e40c 	andseq	lr, r0, ip, lsl #8
    2d14:	253d0600 	ldrcs	r0, [sp, #-1536]!	; 0x600
    2d18:	18000000 	stmdane	r0, {}	; <UNPREDICTABLE>
    2d1c:	000f710c 	andeq	r7, pc, ip, lsl #2
    2d20:	253e0600 	ldrcs	r0, [lr, #-1536]!	; 0x600
    2d24:	1c000000 	stcne	0, cr0, [r0], {-0}
    2d28:	0011800c 	andseq	r8, r1, ip
    2d2c:	253f0600 	ldrcs	r0, [pc, #-1536]!	; 2734 <_start-0x58cc>
    2d30:	20000000 	andcs	r0, r0, r0
    2d34:	0d071100 	stfeqs	f1, [r7, #-0]
    2d38:	01080000 	mrseq	r0, (UNDEF: 8)
    2d3c:	02614806 	rsbeq	r4, r1, #393216	; 0x60000
    2d40:	bf0c0000 	svclt	0x000c0000
    2d44:	0600000d 	streq	r0, [r0], -sp
    2d48:	00026149 	andeq	r6, r2, r9, asr #2
    2d4c:	ae0c0000 	cdpge	0, 0, cr0, cr12, cr0, {0}
    2d50:	0600000b 	streq	r0, [r0], -fp
    2d54:	0002614a 	andeq	r6, r2, sl, asr #2
    2d58:	7f128000 	svcvc	0x00128000
    2d5c:	06000010 			; <UNDEFINED> instruction: 0x06000010
    2d60:	0001344c 	andeq	r3, r1, ip, asr #8
    2d64:	12010000 	andne	r0, r1, #0
    2d68:	00000d54 	andeq	r0, r0, r4, asr sp
    2d6c:	01344f06 	teqeq	r4, r6, lsl #30
    2d70:	01040000 	mrseq	r0, (UNDEF: 4)
    2d74:	01200900 	teqeq	r0, r0, lsl #18
    2d78:	02710000 	rsbseq	r0, r1, #0
    2d7c:	e20a0000 	and	r0, sl, #0
    2d80:	1f000000 	svcne	0x00000000
    2d84:	0f281100 	svceq	0x00281100
    2d88:	01900000 	orrseq	r0, r0, r0
    2d8c:	02af5b06 	adceq	r5, pc, #6144	; 0x1800
    2d90:	b00c0000 	andlt	r0, ip, r0
    2d94:	0600000f 	streq	r0, [r0], -pc
    2d98:	0002af5c 	andeq	sl, r2, ip, asr pc
    2d9c:	d40c0000 	strle	r0, [ip], #-0
    2da0:	0600000f 	streq	r0, [r0], -pc
    2da4:	0000255d 	andeq	r2, r0, sp, asr r5
    2da8:	c70c0400 	strgt	r0, [ip, -r0, lsl #8]
    2dac:	0600000d 	streq	r0, [r0], -sp
    2db0:	0002b55f 	andeq	fp, r2, pc, asr r5
    2db4:	070c0800 	streq	r0, [ip, -r0, lsl #16]
    2db8:	0600000d 	streq	r0, [r0], -sp
    2dbc:	00022160 	andeq	r2, r2, r0, ror #2
    2dc0:	0e008800 	cdpeq	8, 0, cr8, cr0, cr0, {0}
    2dc4:	00027104 	andeq	r7, r2, r4, lsl #2
    2dc8:	02c50900 	sbceq	r0, r5, #0, 18
    2dcc:	02c50000 	sbceq	r0, r5, #0
    2dd0:	e20a0000 	and	r0, sl, #0
    2dd4:	1f000000 	svcne	0x00000000
    2dd8:	cb040e00 	blgt	1065e0 <__bss_end__+0xfa8f8>
    2ddc:	13000002 	movwne	r0, #2
    2de0:	000f7b0f 	andeq	r7, pc, pc, lsl #22
    2de4:	73060800 	movwvc	r0, #26624	; 0x6800
    2de8:	000002f1 	strdeq	r0, [r0], -r1
    2dec:	000ce80c 	andeq	lr, ip, ip, lsl #16
    2df0:	f1740600 			; <UNDEFINED> instruction: 0xf1740600
    2df4:	00000002 	andeq	r0, r0, r2
    2df8:	000c300c 	andeq	r3, ip, ip
    2dfc:	25750600 	ldrbcs	r0, [r5, #-1536]!	; 0x600
    2e00:	04000000 	streq	r0, [r0], #-0
    2e04:	5f040e00 	svcpl	0x00040e00
    2e08:	0f000000 	svceq	0x00000000
    2e0c:	00000f9a 	muleq	r0, sl, pc	; <UNPREDICTABLE>
    2e10:	21b30668 			; <UNDEFINED> instruction: 0x21b30668
    2e14:	10000004 	andne	r0, r0, r4
    2e18:	0600705f 			; <UNDEFINED> instruction: 0x0600705f
    2e1c:	0002f1b4 			; <UNDEFINED> instruction: 0x0002f1b4
    2e20:	5f100000 	svcpl	0x00100000
    2e24:	b5060072 	strlt	r0, [r6, #-114]	; 0x72
    2e28:	00000025 	andeq	r0, r0, r5, lsr #32
    2e2c:	775f1004 	ldrbvc	r1, [pc, -r4]
    2e30:	25b60600 	ldrcs	r0, [r6, #1536]!	; 0x600
    2e34:	08000000 	stmdaeq	r0, {}	; <UNPREDICTABLE>
    2e38:	000d4d0c 	andeq	r4, sp, ip, lsl #26
    2e3c:	3fb70600 	svccc	0x00b70600
    2e40:	0c000000 	stceq	0, cr0, [r0], {-0}
    2e44:	000e470c 	andeq	r4, lr, ip, lsl #14
    2e48:	3fb80600 	svccc	0x00b80600
    2e4c:	0e000000 	cdpeq	0, 0, cr0, cr0, cr0, {0}
    2e50:	66625f10 	uqadd16vs	r5, r2, r0
    2e54:	ccb90600 	ldcgt	6, cr0, [r9]
    2e58:	10000002 	andne	r0, r0, r2
    2e5c:	000c810c 	andeq	r8, ip, ip, lsl #2
    2e60:	25ba0600 	ldrcs	r0, [sl, #1536]!	; 0x600
    2e64:	18000000 	stmdane	r0, {}	; <UNPREDICTABLE>
    2e68:	000d2b0c 	andeq	r2, sp, ip, lsl #22
    2e6c:	20c10600 	sbccs	r0, r1, r0, lsl #12
    2e70:	1c000001 	stcne	0, cr0, [r0], {1}
    2e74:	0004b10c 	andeq	fp, r4, ip, lsl #2
    2e78:	7cc30600 	stclvc	6, cr0, [r3], {0}
    2e7c:	20000005 	andcs	r0, r0, r5
    2e80:	00073b0c 	andeq	r3, r7, ip, lsl #22
    2e84:	a6c50600 	strbge	r0, [r5], r0, lsl #12
    2e88:	24000005 	strcs	r0, [r0], #-5
    2e8c:	0010100c 	andseq	r1, r0, ip
    2e90:	cac80600 	bgt	ff204698 <__bss_end__+0xff1f89b0>
    2e94:	28000005 	stmdacs	r0, {r0, r2}
    2e98:	00119a0c 	andseq	r9, r1, ip, lsl #20
    2e9c:	e4c90600 	strb	r0, [r9], #1536	; 0x600
    2ea0:	2c000005 	stccs	0, cr0, [r0], {5}
    2ea4:	62755f10 	rsbsvs	r5, r5, #16, 30	; 0x40
    2ea8:	cccc0600 	stclgt	6, cr0, [ip], {0}
    2eac:	30000002 	andcc	r0, r0, r2
    2eb0:	70755f10 	rsbsvc	r5, r5, r0, lsl pc
    2eb4:	f1cd0600 			; <UNDEFINED> instruction: 0xf1cd0600
    2eb8:	38000002 	stmdacc	r0, {r1}
    2ebc:	72755f10 	rsbsvc	r5, r5, #16, 30	; 0x40
    2ec0:	25ce0600 	strbcs	r0, [lr, #1536]	; 0x600
    2ec4:	3c000000 	stccc	0, cr0, [r0], {-0}
    2ec8:	000cd30c 	andeq	sp, ip, ip, lsl #6
    2ecc:	ead10600 	b	ff4446d4 <__bss_end__+0xff4389ec>
    2ed0:	40000005 	andmi	r0, r0, r5
    2ed4:	0011450c 	andseq	r4, r1, ip, lsl #10
    2ed8:	fad20600 	blx	ff4846e0 <__bss_end__+0xff4789f8>
    2edc:	43000005 	movwmi	r0, #5
    2ee0:	626c5f10 	rsbvs	r5, ip, #16, 30	; 0x40
    2ee4:	ccd50600 	ldclgt	6, cr0, [r5], {0}
    2ee8:	44000002 	strmi	r0, [r0], #-2
    2eec:	000d6d0c 	andeq	r6, sp, ip, lsl #26
    2ef0:	25d80600 	ldrbcs	r0, [r8, #1536]	; 0x600
    2ef4:	4c000000 	stcmi	0, cr0, [r0], {-0}
    2ef8:	000d920c 	andeq	r9, sp, ip, lsl #4
    2efc:	91d90600 	bicsls	r0, r9, r0, lsl #12
    2f00:	50000000 	andpl	r0, r0, r0
    2f04:	0000360c 	andeq	r3, r0, ip, lsl #12
    2f08:	3fdc0600 	svccc	0x00dc0600
    2f0c:	54000004 	strpl	r0, [r0], #-4
    2f10:	000ed50c 	andeq	sp, lr, ip, lsl #10
    2f14:	15e00600 	strbne	r0, [r0, #1536]!	; 0x600
    2f18:	58000001 	stmdapl	r0, {r0}
    2f1c:	000fa20c 	andeq	sl, pc, ip, lsl #4
    2f20:	0ae20600 	beq	ff884728 <__bss_end__+0xff878a40>
    2f24:	5c000001 	stcpl	0, cr0, [r0], {1}
    2f28:	000edb0c 	andeq	sp, lr, ip, lsl #22
    2f2c:	25e30600 	strbcs	r0, [r3, #1536]!	; 0x600
    2f30:	64000000 	strvs	r0, [r0], #-0
    2f34:	00251400 	eoreq	r1, r5, r0, lsl #8
    2f38:	043f0000 	ldrteq	r0, [pc], #-0	; 2f40 <_start-0x50c0>
    2f3c:	3f150000 	svccc	0x00150000
    2f40:	15000004 	strne	r0, [r0, #-4]
    2f44:	00000120 	andeq	r0, r0, r0, lsr #2
    2f48:	00012215 	andeq	r2, r1, r5, lsl r2
    2f4c:	00251500 	eoreq	r1, r5, r0, lsl #10
    2f50:	0e000000 	cdpeq	0, 0, cr0, cr0, cr0, {0}
    2f54:	00044a04 	andeq	r4, r4, r4, lsl #20
    2f58:	043f0400 	ldrteq	r0, [pc], #-1024	; 2f60 <_start-0x50a0>
    2f5c:	fb160000 	blx	582f66 <__bss_end__+0x57727e>
    2f60:	2800000f 	stmdacs	r0, {r0, r1, r2, r3}
    2f64:	02380604 	eorseq	r0, r8, #4, 12	; 0x400000
    2f68:	0000057c 	andeq	r0, r0, ip, ror r5
    2f6c:	000f6a17 	andeq	r6, pc, r7, lsl sl	; <UNPREDICTABLE>
    2f70:	023a0600 	eorseq	r0, sl, #0, 12
    2f74:	00000025 	andeq	r0, r0, r5, lsr #32
    2f78:	0d5c1700 	ldcleq	7, cr1, [ip, #-0]
    2f7c:	3f060000 	svccc	0x00060000
    2f80:	00065102 	andeq	r5, r6, r2, lsl #2
    2f84:	30170400 	andscc	r0, r7, r0, lsl #8
    2f88:	0600000e 	streq	r0, [r0], -lr
    2f8c:	0651023f 			; <UNDEFINED> instruction: 0x0651023f
    2f90:	17080000 	strne	r0, [r8, -r0]
    2f94:	00000de8 	andeq	r0, r0, r8, ror #27
    2f98:	51023f06 	tstpl	r2, r6, lsl #30
    2f9c:	0c000006 	stceq	0, cr0, [r0], {6}
    2fa0:	000fcf17 	andeq	ip, pc, r7, lsl pc	; <UNPREDICTABLE>
    2fa4:	02410600 	subeq	r0, r1, #0, 12
    2fa8:	00000025 	andeq	r0, r0, r5, lsr #32
    2fac:	0c3e1710 	ldceq	7, cr1, [lr], #-64	; 0xffffffc0
    2fb0:	42060000 	andmi	r0, r6, #0
    2fb4:	00083302 	andeq	r3, r8, r2, lsl #6
    2fb8:	b5171400 	ldrlt	r1, [r7, #-1024]	; 0x400
    2fbc:	06000010 			; <UNDEFINED> instruction: 0x06000010
    2fc0:	00250244 	eoreq	r0, r5, r4, asr #4
    2fc4:	17300000 	ldrne	r0, [r0, -r0]!
    2fc8:	00000fd9 	ldrdeq	r0, [r0], -r9
    2fcc:	a0024506 	andge	r4, r2, r6, lsl #10
    2fd0:	34000005 	strcc	r0, [r0], #-5
    2fd4:	000f3017 	andeq	r3, pc, r7, lsl r0	; <UNPREDICTABLE>
    2fd8:	02470600 	subeq	r0, r7, #0, 12
    2fdc:	00000025 	andeq	r0, r0, r5, lsr #32
    2fe0:	0fe91738 	svceq	0x00e91738
    2fe4:	49060000 	stmdbmi	r6, {}	; <UNPREDICTABLE>
    2fe8:	00084e02 	andeq	r4, r8, r2, lsl #28
    2fec:	b1173c00 	tstlt	r7, r0, lsl #24
    2ff0:	0600000e 	streq	r0, [r0], -lr
    2ff4:	0192024c 	orrseq	r0, r2, ip, asr #4
    2ff8:	17400000 	strbne	r0, [r0, -r0]
    2ffc:	00000e07 	andeq	r0, r0, r7, lsl #28
    3000:	25024d06 	strcs	r4, [r2, #-3334]	; 0xd06
    3004:	44000000 	strmi	r0, [r0], #-0
    3008:	0011c717 	andseq	ip, r1, r7, lsl r7
    300c:	024e0600 	subeq	r0, lr, #0, 12
    3010:	00000192 	muleq	r0, r2, r1
    3014:	0f421748 	svceq	0x00421748
    3018:	4f060000 	svcmi	0x00060000
    301c:	00085402 	andeq	r5, r8, r2, lsl #8
    3020:	3f174c00 	svccc	0x00174c00
    3024:	0600000e 	streq	r0, [r0], -lr
    3028:	00250252 	eoreq	r0, r5, r2, asr r2
    302c:	17500000 	ldrbne	r0, [r0, -r0]
    3030:	00000d8a 	andeq	r0, r0, sl, lsl #27
    3034:	22025306 	andcs	r5, r2, #402653184	; 0x18000000
    3038:	54000001 	strpl	r0, [r0], #-1
    303c:	000f6317 	andeq	r6, pc, r7, lsl r3	; <UNPREDICTABLE>
    3040:	02760600 	rsbseq	r0, r6, #0, 12
    3044:	00000811 	andeq	r0, r0, r1, lsl r8
    3048:	0f281858 	svceq	0x00281858
    304c:	7a060000 	bvc	183054 <__bss_end__+0x17736c>
    3050:	0002af02 	andeq	sl, r2, r2, lsl #30
    3054:	18014800 	stmdane	r1, {fp, lr}
    3058:	00000e74 	andeq	r0, r0, r4, ror lr
    305c:	71027b06 	tstvc	r2, r6, lsl #22
    3060:	4c000002 	stcmi	0, cr0, [r0], {2}
    3064:	111e1801 	tstne	lr, r1, lsl #16
    3068:	7f060000 	svcvc	0x00060000
    306c:	00086502 	andeq	r6, r8, r2, lsl #10
    3070:	1802dc00 	stmdane	r2, {sl, fp, ip, lr, pc}
    3074:	00000d45 	andeq	r0, r0, r5, asr #26
    3078:	16028406 	strne	r8, [r2], -r6, lsl #8
    307c:	e0000006 	and	r0, r0, r6
    3080:	0d021802 	stceq	8, cr1, [r2, #-8]
    3084:	85060000 	strhi	r0, [r6, #-0]
    3088:	00087102 	andeq	r7, r8, r2, lsl #2
    308c:	0002ec00 	andeq	lr, r2, r0, lsl #24
    3090:	0421040e 	strteq	r0, [r1], #-1038	; 0x40e
    3094:	25140000 	ldrcs	r0, [r4, #-0]
    3098:	a0000000 	andge	r0, r0, r0
    309c:	15000005 	strne	r0, [r0, #-5]
    30a0:	0000043f 	andeq	r0, r0, pc, lsr r4
    30a4:	00012015 	andeq	r2, r1, r5, lsl r0
    30a8:	05a01500 	streq	r1, [r0, #1280]!	; 0x500
    30ac:	25150000 	ldrcs	r0, [r5, #-0]
    30b0:	00000000 	andeq	r0, r0, r0
    30b4:	012f040e 	teqeq	pc, lr, lsl #8
    30b8:	040e0000 	streq	r0, [lr], #-0
    30bc:	00000582 	andeq	r0, r0, r2, lsl #11
    30c0:	00009c14 	andeq	r9, r0, r4, lsl ip
    30c4:	0005ca00 	andeq	ip, r5, r0, lsl #20
    30c8:	043f1500 	ldrteq	r1, [pc], #-1280	; 30d0 <_start-0x4f30>
    30cc:	20150000 	andscs	r0, r5, r0
    30d0:	15000001 	strne	r0, [r0, #-1]
    30d4:	0000009c 	muleq	r0, ip, r0
    30d8:	00002515 	andeq	r2, r0, r5, lsl r5
    30dc:	040e0000 	streq	r0, [lr], #-0
    30e0:	000005ac 	andeq	r0, r0, ip, lsr #11
    30e4:	00002514 	andeq	r2, r0, r4, lsl r5
    30e8:	0005e400 	andeq	lr, r5, r0, lsl #8
    30ec:	043f1500 	ldrteq	r1, [pc], #-1280	; 30f4 <_start-0x4f0c>
    30f0:	20150000 	andscs	r0, r5, r0
    30f4:	00000001 	andeq	r0, r0, r1
    30f8:	05d0040e 	ldrbeq	r0, [r0, #1038]	; 0x40e
    30fc:	5f090000 	svcpl	0x00090000
    3100:	fa000000 	blx	3108 <_start-0x4ef8>
    3104:	0a000005 	beq	3120 <_start-0x4ee0>
    3108:	000000e2 	andeq	r0, r0, r2, ror #1
    310c:	5f090002 	svcpl	0x00090002
    3110:	0a000000 	beq	3118 <_start-0x4ee8>
    3114:	0a000006 	beq	3134 <_start-0x4ecc>
    3118:	000000e2 	andeq	r0, r0, r2, ror #1
    311c:	88060000 	stmdahi	r6, {}	; <UNPREDICTABLE>
    3120:	0600000f 	streq	r0, [r0], -pc
    3124:	02f7011d 	rscseq	r0, r7, #1073741831	; 0x40000007
    3128:	ee190000 	cdp	0, 1, cr0, cr9, cr0, {0}
    312c:	0c000010 	stceq	0, cr0, [r0], {16}
    3130:	4b012106 	blmi	4b550 <__bss_end__+0x3f868>
    3134:	17000006 	strne	r0, [r0, -r6]
    3138:	00000fb0 			; <UNDEFINED> instruction: 0x00000fb0
    313c:	4b012306 	blmi	4bd5c <__bss_end__+0x40074>
    3140:	00000006 	andeq	r0, r0, r6
    3144:	000e4d17 	andeq	r4, lr, r7, lsl sp
    3148:	01240600 	teqeq	r4, r0, lsl #12
    314c:	00000025 	andeq	r0, r0, r5, lsr #32
    3150:	0f821704 	svceq	0x00821704
    3154:	25060000 	strcs	r0, [r6, #-0]
    3158:	00065101 	andeq	r5, r6, r1, lsl #2
    315c:	0e000800 	cdpeq	8, 0, cr0, cr0, cr0, {0}
    3160:	00061604 	andeq	r1, r6, r4, lsl #12
    3164:	0a040e00 	beq	10696c <__bss_end__+0xfac84>
    3168:	19000006 	stmdbne	r0, {r1, r2}
    316c:	00000c36 	andeq	r0, r0, r6, lsr ip
    3170:	013d060e 	teqeq	sp, lr, lsl #12
    3174:	0000068c 	andeq	r0, r0, ip, lsl #13
    3178:	00100217 	andseq	r0, r0, r7, lsl r2
    317c:	013e0600 	teqeq	lr, r0, lsl #12
    3180:	0000068c 	andeq	r0, r0, ip, lsl #13
    3184:	10271700 	eorne	r1, r7, r0, lsl #14
    3188:	3f060000 	svccc	0x00060000
    318c:	00068c01 	andeq	r8, r6, r1, lsl #24
    3190:	88170600 	ldmdahi	r7, {r9, sl}
    3194:	06000010 			; <UNDEFINED> instruction: 0x06000010
    3198:	00660140 	rsbeq	r0, r6, r0, asr #2
    319c:	000c0000 	andeq	r0, ip, r0
    31a0:	00006609 	andeq	r6, r0, r9, lsl #12
    31a4:	00069c00 	andeq	r9, r6, r0, lsl #24
    31a8:	00e20a00 	rsceq	r0, r2, r0, lsl #20
    31ac:	00020000 	andeq	r0, r2, r0
    31b0:	5706d01a 	smladpl	r6, sl, r0, sp
    31b4:	00079d02 	andeq	r9, r7, r2, lsl #26
    31b8:	10c71700 	sbcne	r1, r7, r0, lsl #14
    31bc:	59060000 	stmdbpl	r6, {}	; <UNPREDICTABLE>
    31c0:	00002c02 	andeq	r2, r0, r2, lsl #24
    31c4:	6a170000 	bvs	5c31cc <__bss_end__+0x5b74e4>
    31c8:	06000010 			; <UNDEFINED> instruction: 0x06000010
    31cc:	0122025a 	teqeq	r2, sl, asr r2
    31d0:	17040000 	strne	r0, [r4, -r0]
    31d4:	00000e96 	muleq	r0, r6, lr
    31d8:	9d025b06 	vstrls	d5, [r2, #-24]	; 0xffffffe8
    31dc:	08000007 	stmdaeq	r0, {r0, r1, r2}
    31e0:	00118b17 	andseq	r8, r1, r7, lsl fp
    31e4:	025c0600 	subseq	r0, ip, #0, 12
    31e8:	000001a8 	andeq	r0, r0, r8, lsr #3
    31ec:	0df81724 	ldcleq	7, cr1, [r8, #144]!	; 0x90
    31f0:	5d060000 	stcpl	0, cr0, [r6, #-0]
    31f4:	00002502 	andeq	r2, r0, r2, lsl #10
    31f8:	ab174800 	blge	5d5200 <__bss_end__+0x5c9518>
    31fc:	0600000f 	streq	r0, [r0], -pc
    3200:	007f025e 	rsbseq	r0, pc, lr, asr r2	; <UNPREDICTABLE>
    3204:	17500000 	ldrbne	r0, [r0, -r0]
    3208:	000011a9 	andeq	r1, r0, r9, lsr #3
    320c:	57025f06 	strpl	r5, [r2, -r6, lsl #30]
    3210:	58000006 	stmdapl	r0, {r1, r2}
    3214:	000fc217 	andeq	ip, pc, r7, lsl r2	; <UNPREDICTABLE>
    3218:	02600600 	rsbeq	r0, r0, #0, 12
    321c:	0000010a 	andeq	r0, r0, sl, lsl #2
    3220:	11b91768 			; <UNDEFINED> instruction: 0x11b91768
    3224:	61060000 	mrsvs	r0, (UNDEF: 6)
    3228:	00010a02 	andeq	r0, r1, r2, lsl #20
    322c:	bc177000 	ldclt	0, cr7, [r7], {-0}
    3230:	0600000c 	streq	r0, [r0], -ip
    3234:	010a0262 	tsteq	sl, r2, ror #4
    3238:	17780000 	ldrbne	r0, [r8, -r0]!
    323c:	00001105 	andeq	r1, r0, r5, lsl #2
    3240:	ad026306 	stcge	3, cr6, [r2, #-24]	; 0xffffffe8
    3244:	80000007 	andhi	r0, r0, r7
    3248:	000e8a17 	andeq	r8, lr, r7, lsl sl
    324c:	02640600 	rsbeq	r0, r4, #0, 12
    3250:	000007bd 			; <UNDEFINED> instruction: 0x000007bd
    3254:	10951788 	addsne	r1, r5, r8, lsl #15
    3258:	65060000 	strvs	r0, [r6, #-0]
    325c:	00002502 	andeq	r2, r0, r2, lsl #10
    3260:	b117a000 	tstlt	r7, r0
    3264:	0600000d 	streq	r0, [r0], -sp
    3268:	010a0266 	tsteq	sl, r6, ror #4
    326c:	17a40000 	strne	r0, [r4, r0]!
    3270:	00000c9a 	muleq	r0, sl, ip
    3274:	0a026706 	beq	9ce94 <__bss_end__+0x911ac>
    3278:	ac000001 	stcge	0, cr0, [r0], {1}
    327c:	000da017 	andeq	sl, sp, r7, lsl r0
    3280:	02680600 	rsbeq	r0, r8, #0, 12
    3284:	0000010a 	andeq	r0, r0, sl, lsl #2
    3288:	0c6117b4 	stcleq	7, cr1, [r1], #-720	; 0xfffffd30
    328c:	69060000 	stmdbvs	r6, {}	; <UNPREDICTABLE>
    3290:	00010a02 	andeq	r0, r1, r2, lsl #20
    3294:	7017bc00 	andsvc	fp, r7, r0, lsl #24
    3298:	0600000c 	streq	r0, [r0], -ip
    329c:	010a026a 	tsteq	sl, sl, ror #4
    32a0:	17c40000 	strbne	r0, [r4, r0]
    32a4:	00000f68 	andeq	r0, r0, r8, ror #30
    32a8:	25026b06 	strcs	r6, [r2, #-2822]	; 0xb06
    32ac:	cc000000 	stcgt	0, cr0, [r0], {-0}
    32b0:	01280900 	teqeq	r8, r0, lsl #18
    32b4:	07ad0000 	streq	r0, [sp, r0]!
    32b8:	e20a0000 	and	r0, sl, #0
    32bc:	19000000 	stmdbne	r0, {}	; <UNPREDICTABLE>
    32c0:	01280900 	teqeq	r8, r0, lsl #18
    32c4:	07bd0000 	ldreq	r0, [sp, r0]!
    32c8:	e20a0000 	and	r0, sl, #0
    32cc:	07000000 	streq	r0, [r0, -r0]
    32d0:	01280900 	teqeq	r8, r0, lsl #18
    32d4:	07cd0000 	strbeq	r0, [sp, r0]
    32d8:	e20a0000 	and	r0, sl, #0
    32dc:	17000000 	strne	r0, [r0, -r0]
    32e0:	06f01a00 	ldrbteq	r1, [r0], r0, lsl #20
    32e4:	07f10270 			; <UNDEFINED> instruction: 0x07f10270
    32e8:	12170000 	andsne	r0, r7, #0
    32ec:	0600000f 	streq	r0, [r0], -pc
    32f0:	07f10273 			; <UNDEFINED> instruction: 0x07f10273
    32f4:	17000000 	strne	r0, [r0, -r0]
    32f8:	00000ef2 	strdeq	r0, [r0], -r2
    32fc:	01027406 	tsteq	r2, r6, lsl #8
    3300:	78000008 	stmdavc	r0, {r3}
    3304:	02f10900 	rscseq	r0, r1, #0, 18
    3308:	08010000 	stmdaeq	r1, {}	; <UNPREDICTABLE>
    330c:	e20a0000 	and	r0, sl, #0
    3310:	1d000000 	stcne	0, cr0, [r0, #-0]
    3314:	002c0900 	eoreq	r0, ip, r0, lsl #18
    3318:	08110000 	ldmdaeq	r1, {}	; <UNPREDICTABLE>
    331c:	e20a0000 	and	r0, sl, #0
    3320:	1d000000 	stcne	0, cr0, [r0, #-0]
    3324:	06f01b00 	ldrbteq	r1, [r0], r0, lsl #22
    3328:	08330255 	ldmdaeq	r3!, {r0, r2, r4, r6, r9}
    332c:	fb1c0000 	blx	703336 <__bss_end__+0x6f764e>
    3330:	0600000f 	streq	r0, [r0], -pc
    3334:	069c026c 	ldreq	r0, [ip], ip, ror #4
    3338:	4b1c0000 	blmi	703340 <__bss_end__+0x6f7658>
    333c:	06000011 			; <UNDEFINED> instruction: 0x06000011
    3340:	07cd0275 			; <UNDEFINED> instruction: 0x07cd0275
    3344:	09000000 	stmdbeq	r0, {}	; <UNPREDICTABLE>
    3348:	00000128 	andeq	r0, r0, r8, lsr #2
    334c:	00000843 	andeq	r0, r0, r3, asr #16
    3350:	0000e20a 	andeq	lr, r0, sl, lsl #4
    3354:	1d001800 	stcne	8, cr1, [r0, #-0]
    3358:	0000084e 	andeq	r0, r0, lr, asr #16
    335c:	00043f15 	andeq	r3, r4, r5, lsl pc
    3360:	040e0000 	streq	r0, [lr], #-0
    3364:	00000843 	andeq	r0, r0, r3, asr #16
    3368:	0192040e 	orrseq	r0, r2, lr, lsl #8
    336c:	651d0000 	ldrvs	r0, [sp, #-0]
    3370:	15000008 	strne	r0, [r0, #-8]
    3374:	00000025 	andeq	r0, r0, r5, lsr #32
    3378:	6b040e00 	blvs	106b80 <__bss_end__+0xfae98>
    337c:	0e000008 	cdpeq	0, 0, cr0, cr0, cr8, {0}
    3380:	00085a04 	andeq	r5, r8, r4, lsl #20
    3384:	060a0900 	streq	r0, [sl], -r0, lsl #18
    3388:	08810000 	stmeq	r1, {}	; <UNPREDICTABLE>
    338c:	e20a0000 	and	r0, sl, #0
    3390:	02000000 	andeq	r0, r0, #0
    3394:	10a91e00 	adcne	r1, r9, r0, lsl #28
    3398:	fd060000 	stc2	0, cr0, [r6, #-0]
    339c:	00043f02 	andeq	r3, r4, r2, lsl #30
    33a0:	10a21e00 	adcne	r1, r2, r0, lsl #28
    33a4:	fe060000 	cdp2	0, 0, cr0, cr6, cr0, {0}
    33a8:	00044502 	andeq	r4, r4, r2, lsl #10
    33ac:	00251400 	eoreq	r1, r5, r0, lsl #8
    33b0:	08a80000 	stmiaeq	r8!, {}	; <UNPREDICTABLE>
    33b4:	25150000 	ldrcs	r0, [r5, #-0]
    33b8:	00000000 	andeq	r0, r0, r0
    33bc:	000e111f 	andeq	r1, lr, pc, lsl r1
    33c0:	b31d0700 	tstlt	sp, #0, 14
    33c4:	0e000008 	cdpeq	0, 0, cr0, cr0, cr8, {0}
    33c8:	00089904 	andeq	r9, r8, r4, lsl #18
    33cc:	00251400 	eoreq	r1, r5, r0, lsl #8
    33d0:	08c80000 	stmiaeq	r8, {}^	; <UNPREDICTABLE>
    33d4:	a0150000 	andsge	r0, r5, r0
    33d8:	00000005 	andeq	r0, r0, r5
    33dc:	0012f31f 	andseq	pc, r2, pc, lsl r3	; <UNPREDICTABLE>
    33e0:	d3220700 	teqle	r2, #0, 14
    33e4:	0e000008 	cdpeq	0, 0, cr0, cr0, cr8, {0}
    33e8:	0008b904 	andeq	fp, r8, r4, lsl #18
    33ec:	5f012000 	svcpl	0x00012000
    33f0:	08000000 	stmdaeq	r0, {}	; <UNPREDICTABLE>
    33f4:	0009160c 	andeq	r1, r9, ip, lsl #12
    33f8:	0c8a2100 	stfeqs	f2, [sl], {0}
    33fc:	21000000 	mrscs	r0, (UNDEF: 0)
    3400:	000010f4 	strdeq	r1, [r0], -r4
    3404:	11362101 	teqne	r6, r1, lsl #2
    3408:	21040000 	mrscs	r0, (UNDEF: 4)
    340c:	00000cd9 	ldrdeq	r0, [r0], -r9
    3410:	0ebf2105 	frdeqe	f2, f7, f5
    3414:	21060000 	mrscs	r0, (UNDEF: 6)
    3418:	00001153 	andeq	r1, r0, r3, asr r1
    341c:	11622107 	cmnne	r2, r7, lsl #2
    3420:	21030000 	mrscs	r0, (UNDEF: 3)
    3424:	00001171 	andeq	r1, r0, r1, ror r1
    3428:	040b0002 	streq	r0, [fp], #-2
    342c:	09c35601 	stmibeq	r3, {r0, r9, sl, ip, lr}^
    3430:	b2220000 	eorlt	r0, r2, #0
    3434:	01000004 	tsteq	r0, r4
    3438:	00006d57 	andeq	r6, r0, r7, asr sp
    343c:	1f010400 	svcne	0x00010400
    3440:	0d632200 	sfmeq	f2, 2, [r3, #-0]
    3444:	59010000 	stmdbpl	r1, {}	; <UNPREDICTABLE>
    3448:	0000006d 	andeq	r0, r0, sp, rrx
    344c:	001c0304 	andseq	r0, ip, r4, lsl #6
    3450:	00156822 	andseq	r6, r5, r2, lsr #16
    3454:	6d5a0100 	ldfvse	f0, [sl, #-0]
    3458:	04000000 	streq	r0, [r0], #-0
    345c:	22001a02 	andcs	r1, r0, #8192	; 0x2000
    3460:	00000cf8 	strdeq	r0, [r0], -r8
    3464:	006d6001 	rsbeq	r6, sp, r1
    3468:	01040000 	mrseq	r0, (UNDEF: 4)
    346c:	73230019 	teqvc	r3, #25
    3470:	61010074 	tstvs	r1, r4, ror r0
    3474:	0000006d 	andeq	r0, r0, sp, rrx
    3478:	00180104 	andseq	r0, r8, r4, lsl #2
    347c:	000eed22 	andeq	lr, lr, r2, lsr #26
    3480:	6d650100 	stfvse	f0, [r5, #-0]
    3484:	04000000 	streq	r0, [r0], #-0
    3488:	22001701 	andcs	r1, r0, #262144	; 0x40000
    348c:	00000f00 	andeq	r0, r0, r0, lsl #30
    3490:	006d6801 	rsbeq	r6, sp, r1, lsl #16
    3494:	01040000 	mrseq	r0, (UNDEF: 4)
    3498:	fb220016 	blx	8834fa <__bss_end__+0x877812>
    349c:	0100000e 	tsteq	r0, lr
    34a0:	00006d6b 	andeq	r6, r0, fp, ror #26
    34a4:	15010400 	strne	r0, [r1, #-1024]	; 0x400
    34a8:	0d762200 	lfmeq	f2, 2, [r6, #-0]
    34ac:	6e010000 	cdpvs	0, 0, cr0, cr1, cr0, {0}
    34b0:	0000006d 	andeq	r0, r0, sp, rrx
    34b4:	00110404 	andseq	r0, r1, r4, lsl #8
    34b8:	000f1922 	andeq	r1, pc, r2, lsr #18
    34bc:	6d6f0100 	stfvse	f0, [pc, #-0]	; 34c4 <_start-0x4b3c>
    34c0:	04000000 	streq	r0, [r0], #-0
    34c4:	22001001 	andcs	r1, r0, #1
    34c8:	00000d80 	andeq	r0, r0, r0, lsl #27
    34cc:	006d7201 	rsbeq	r7, sp, r1, lsl #4
    34d0:	10040000 	andne	r0, r4, r0
    34d4:	05000000 	streq	r0, [r0, #-0]
    34d8:	000011ae 	andeq	r1, r0, lr, lsr #3
    34dc:	09167301 	ldmdbeq	r6, {r0, r8, r9, ip, sp, lr}
    34e0:	c3240000 	teqgt	r4, #0
    34e4:	0b000009 	bleq	3510 <_start-0x4af0>
    34e8:	80810104 	addhi	r0, r1, r4, lsl #2
    34ec:	2300000a 	movwcs	r0, #10
    34f0:	01006174 	tsteq	r0, r4, ror r1
    34f4:	00002c82 	andeq	r2, r0, r2, lsl #25
    34f8:	1f010400 	svcne	0x00010400
    34fc:	096b2200 	stmdbeq	fp!, {r9, sp}^
    3500:	85010000 	strhi	r0, [r1, #-0]
    3504:	0000002c 	andeq	r0, r0, ip, lsr #32
    3508:	001e0104 	andseq	r0, lr, r4, lsl #2
    350c:	77787423 	ldrbvc	r7, [r8, -r3, lsr #8]!
    3510:	2c890100 	stfcss	f0, [r9], {0}
    3514:	04000000 	streq	r0, [r0], #-0
    3518:	23001d01 	movwcs	r1, #3329	; 0xd01
    351c:	00727872 	rsbseq	r7, r2, r2, ror r8
    3520:	002c8f01 	eoreq	r8, ip, r1, lsl #30
    3524:	01040000 	mrseq	r0, (UNDEF: 4)
    3528:	7423001c 	strtvc	r0, [r3], #-28
    352c:	01006478 	tsteq	r0, r8, ror r4
    3530:	00002c95 	muleq	r0, r5, ip
    3534:	1b010400 	blne	4453c <__bss_end__+0x38854>
    3538:	78722300 	ldmdavc	r2!, {r8, r9, sp}^
    353c:	98010064 	stmdals	r1, {r2, r5, r6}
    3540:	0000002c 	andeq	r0, r0, ip, lsr #32
    3544:	001a0104 	andseq	r0, sl, r4, lsl #2
    3548:	65787423 	ldrbvs	r7, [r8, #-1059]!	; 0x423
    354c:	2c9c0100 	ldfcss	f0, [ip], {0}
    3550:	04000000 	streq	r0, [r0], #-0
    3554:	23001901 	movwcs	r1, #2305	; 0x901
    3558:	00667872 	rsbeq	r7, r6, r2, ror r8
    355c:	002ca101 	eoreq	sl, ip, r1, lsl #2
    3560:	01040000 	mrseq	r0, (UNDEF: 4)
    3564:	65230018 	strvs	r0, [r3, #-24]!
    3568:	01007272 	tsteq	r0, r2, ror r2
    356c:	00002ca4 	andeq	r2, r0, r4, lsr #25
    3570:	17010400 	strne	r0, [r1, -r0, lsl #8]
    3574:	11282200 	teqne	r8, r0, lsl #4
    3578:	a8010000 	stmdage	r1, {}	; <UNPREDICTABLE>
    357c:	0000002c 	andeq	r0, r0, ip, lsr #32
    3580:	00160104 	andseq	r0, r6, r4, lsl #2
    3584:	000d6322 	andeq	r6, sp, r2, lsr #6
    3588:	2cad0100 	stfcss	f0, [sp]
    358c:	04000000 	streq	r0, [r0], #-0
    3590:	00000016 	andeq	r0, r0, r6, lsl r0
    3594:	000c4905 	andeq	r4, ip, r5, lsl #18
    3598:	d3ae0100 			; <UNDEFINED> instruction: 0xd3ae0100
    359c:	24000009 	strcs	r0, [r0], #-9
    35a0:	00000a80 	andeq	r0, r0, r0, lsl #21
    35a4:	000c540f 	andeq	r5, ip, pc, lsl #8
    35a8:	b9012000 	stmdblt	r1, {sp}
    35ac:	00000afd 	strdeq	r0, [r0], -sp
    35b0:	000b7d0c 	andeq	r7, fp, ip, lsl #26
    35b4:	c3ba0100 			; <UNDEFINED> instruction: 0xc3ba0100
    35b8:	00000009 	andeq	r0, r0, r9
    35bc:	000e830c 	andeq	r8, lr, ip, lsl #6
    35c0:	80bb0100 	adcshi	r0, fp, r0, lsl #2
    35c4:	0400000a 	streq	r0, [r0], #-10
    35c8:	000f4c0c 	andeq	r4, pc, ip, lsl #24
    35cc:	6dbe0100 	ldfvss	f0, [lr]
    35d0:	08000000 	stmdaeq	r0, {}	; <UNPREDICTABLE>
    35d4:	0006590c 	andeq	r5, r6, ip, lsl #18
    35d8:	6dc70100 	stfvse	f0, [r7]
    35dc:	0c000000 	stceq	0, cr0, [r0], {-0}
    35e0:	000c5c0c 	andeq	r5, ip, ip, lsl #24
    35e4:	6dc90100 	stfvse	f0, [r9]
    35e8:	10000000 	andne	r0, r0, r0
    35ec:	000e6a0c 	andeq	r6, lr, ip, lsl #20
    35f0:	6dcb0100 	stfvse	f0, [fp]
    35f4:	14000000 	strne	r0, [r0], #-0
    35f8:	000fb60c 	andeq	fp, pc, ip, lsl #12
    35fc:	6dcd0100 	stfvse	f0, [sp]
    3600:	18000000 	stmdane	r0, {}	; <UNPREDICTABLE>
    3604:	000d150c 	andeq	r1, sp, ip, lsl #10
    3608:	6dcf0100 	stfvse	f0, [pc]	; 3610 <_start-0x49f0>
    360c:	1c000000 	stcne	0, cr0, [r0], {-0}
    3610:	0c540500 	cfldr64eq	mvdx0, [r4], {-0}
    3614:	d0010000 	andle	r0, r1, r0
    3618:	00000a90 	muleq	r0, r0, sl
    361c:	000afd24 	andeq	pc, sl, r4, lsr #26
    3620:	32692500 	rsbcc	r2, r9, #0, 10
    3624:	d4010063 	strle	r0, [r1], #-99	; 0x63
    3628:	00000b18 	andeq	r0, r0, r8, lsl fp
    362c:	0b08040e 	bleq	20466c <__bss_end__+0x1f8984>
    3630:	54260000 	strtpl	r0, [r6], #-0
    3634:	0100000e 	tsteq	r0, lr
    3638:	0025013f 	eoreq	r0, r5, pc, lsr r1
    363c:	03050000 	movweq	r0, #20480	; 0x5000
    3640:	0000b8d4 	ldrdeq	fp, [r0], -r4
    3644:	000f0527 	andeq	r0, pc, r7, lsr #10
    3648:	01690100 	cmneq	r9, r0, lsl #2
    364c:	00009240 	andeq	r9, r0, r0, asr #4
    3650:	00000008 	andeq	r0, r0, r8
    3654:	11019c01 	tstne	r1, r1, lsl #24
    3658:	6c280000 	stcvs	0, cr0, [r8], #-0
    365c:	11000000 	mrsne	r0, (UNDEF: 0)
    3660:	05000011 	streq	r0, [r0, #-17]
    3664:	00b19003 	adcseq	r9, r1, r3
    3668:	0baa2900 	bleq	fea8da70 <__bss_end__+0xfea81d88>
    366c:	5f2a0000 	svcpl	0x002a0000
    3670:	01040075 	tsteq	r4, r5, ror r0
    3674:	0b7b0174 	bleq	1ec3c4c <__bss_end__+0x1eb7f64>
    3678:	732b0000 	teqvc	fp, #0
    367c:	01740100 	cmneq	r4, r0, lsl #2
    3680:	000009c3 	andeq	r0, r0, r3, asr #19
    3684:	0100752b 	tsteq	r0, fp, lsr #10
    3688:	002c0174 	eoreq	r0, ip, r4, ror r1
    368c:	2c000000 	stccs	0, cr0, [r0], {-0}
    3690:	74010078 	strvc	r0, [r1], #-120	; 0x78
    3694:	000b5a01 	andeq	r5, fp, r1, lsl #20
    3698:	78652c00 	stmdavc	r5!, {sl, fp, sp}^
    369c:	74010070 	strvc	r0, [r1], #-112	; 0x70
    36a0:	00002c01 	andeq	r2, r0, r1, lsl #24
    36a4:	0d9a2d00 	ldceq	13, cr2, [sl]
    36a8:	74010000 	strvc	r0, [r1], #-0
    36ac:	00002c01 	andeq	r2, r0, r1, lsl #24
    36b0:	0e622d00 	cdpeq	13, 6, cr2, cr2, cr0, {0}
    36b4:	74010000 	strvc	r0, [r1], #-0
    36b8:	00002c01 	andeq	r2, r0, r1, lsl #24
    36bc:	ff290000 			; <UNDEFINED> instruction: 0xff290000
    36c0:	2a00000b 	bcs	36f4 <_start-0x490c>
    36c4:	0400755f 	streq	r7, [r0], #-1375	; 0x55f
    36c8:	d0017501 	andle	r7, r1, r1, lsl #10
    36cc:	2b00000b 	blcs	3700 <_start-0x4900>
    36d0:	75010073 	strvc	r0, [r1, #-115]	; 0x73
    36d4:	0009c301 	andeq	ip, r9, r1, lsl #6
    36d8:	00752b00 	rsbseq	r2, r5, r0, lsl #22
    36dc:	2c017501 	cfstr32cs	mvfx7, [r1], {1}
    36e0:	00000000 	andeq	r0, r0, r0
    36e4:	0100782c 	tsteq	r0, ip, lsr #16
    36e8:	0baf0175 	bleq	febc3cc4 <__bss_end__+0xfebb7fdc>
    36ec:	652c0000 	strvs	r0, [ip, #-0]!
    36f0:	01007078 	tsteq	r0, r8, ror r0
    36f4:	002c0175 	eoreq	r0, ip, r5, ror r1
    36f8:	9a2d0000 	bls	b43700 <__bss_end__+0xb37a18>
    36fc:	0100000d 	tsteq	r0, sp
    3700:	002c0175 	eoreq	r0, ip, r5, ror r1
    3704:	622d0000 	eorvs	r0, sp, #0
    3708:	0100000e 	tsteq	r0, lr
    370c:	002c0175 	eoreq	r0, ip, r5, ror r1
    3710:	29000000 	stmdbcs	r0, {}	; <UNPREDICTABLE>
    3714:	00000c54 	andeq	r0, r0, r4, asr ip
    3718:	00755f2a 	rsbseq	r5, r5, sl, lsr #30
    371c:	01760104 	cmneq	r6, r4, lsl #2
    3720:	00000c25 	andeq	r0, r0, r5, lsr #24
    3724:	0100732b 	tsteq	r0, fp, lsr #6
    3728:	09c30176 	stmibeq	r3, {r1, r2, r4, r5, r6, r8}^
    372c:	752b0000 	strvc	r0, [fp, #-0]!
    3730:	01760100 	cmneq	r6, r0, lsl #2
    3734:	0000002c 	andeq	r0, r0, ip, lsr #32
    3738:	00782c00 	rsbseq	r2, r8, r0, lsl #24
    373c:	04017601 	streq	r7, [r1], #-1537	; 0x601
    3740:	2c00000c 	stccs	0, cr0, [r0], {12}
    3744:	00707865 	rsbseq	r7, r0, r5, ror #16
    3748:	2c017601 	stccs	6, cr7, [r1], {1}
    374c:	2d000000 	stccs	0, cr0, [r0, #-0]
    3750:	00000d9a 	muleq	r0, sl, sp
    3754:	2c017601 	stccs	6, cr7, [r1], {1}
    3758:	2d000000 	stccs	0, cr0, [r0, #-0]
    375c:	00000e62 	andeq	r0, r0, r2, ror #28
    3760:	2c017601 	stccs	6, cr7, [r1], {1}
    3764:	00000000 	andeq	r0, r0, r0
    3768:	000ca929 	andeq	sl, ip, r9, lsr #18
    376c:	755f2a00 	ldrbvc	r2, [pc, #-2560]	; 2d74 <_start-0x528c>
    3770:	77010400 	strvc	r0, [r1, -r0, lsl #8]
    3774:	000c7a01 	andeq	r7, ip, r1, lsl #20
    3778:	00732b00 	rsbseq	r2, r3, r0, lsl #22
    377c:	c3017701 	movwgt	r7, #5889	; 0x1701
    3780:	2b000009 	blcs	37ac <_start-0x4854>
    3784:	77010075 	smlsdxvc	r1, r5, r0, r0
    3788:	00002c01 	andeq	r2, r0, r1, lsl #24
    378c:	782c0000 	stmdavc	ip!, {}	; <UNPREDICTABLE>
    3790:	01770100 	cmneq	r7, r0, lsl #2
    3794:	00000c59 	andeq	r0, r0, r9, asr ip
    3798:	7078652c 	rsbsvc	r6, r8, ip, lsr #10
    379c:	01770100 	cmneq	r7, r0, lsl #2
    37a0:	0000002c 	andeq	r0, r0, ip, lsr #32
    37a4:	000d9a2d 	andeq	r9, sp, sp, lsr #20
    37a8:	01770100 	cmneq	r7, r0, lsl #2
    37ac:	0000002c 	andeq	r0, r0, ip, lsr #32
    37b0:	000e622d 	andeq	r6, lr, sp, lsr #4
    37b4:	01770100 	cmneq	r7, r0, lsl #2
    37b8:	0000002c 	andeq	r0, r0, ip, lsr #32
    37bc:	0cfe2900 	ldcleq	9, cr2, [lr]
    37c0:	5f2a0000 	svcpl	0x002a0000
    37c4:	01040075 	tsteq	r4, r5, ror r0
    37c8:	0ccf0178 	stfeqe	f0, [pc], {120}	; 0x78
    37cc:	732b0000 	teqvc	fp, #0
    37d0:	01780100 	cmneq	r8, r0, lsl #2
    37d4:	000009c3 	andeq	r0, r0, r3, asr #19
    37d8:	0100752b 	tsteq	r0, fp, lsr #10
    37dc:	002c0178 	eoreq	r0, ip, r8, ror r1
    37e0:	2c000000 	stccs	0, cr0, [r0], {-0}
    37e4:	78010078 	stmdavc	r1, {r3, r4, r5, r6}
    37e8:	000cae01 	andeq	sl, ip, r1, lsl #28
    37ec:	78652c00 	stmdavc	r5!, {sl, fp, sp}^
    37f0:	78010070 	stmdavc	r1, {r4, r5, r6}
    37f4:	00002c01 	andeq	r2, r0, r1, lsl #24
    37f8:	0d9a2d00 	ldceq	13, cr2, [sl]
    37fc:	78010000 	stmdavc	r1, {}	; <UNPREDICTABLE>
    3800:	00002c01 	andeq	r2, r0, r1, lsl #24
    3804:	0e622d00 	cdpeq	13, 6, cr2, cr2, cr0, {0}
    3808:	78010000 	stmdavc	r1, {}	; <UNPREDICTABLE>
    380c:	00002c01 	andeq	r2, r0, r1, lsl #24
    3810:	53290000 	teqpl	r9, #0
    3814:	2a00000d 	bcs	3850 <_start-0x47b0>
    3818:	0400755f 	streq	r7, [r0], #-1375	; 0x55f
    381c:	24017901 	strcs	r7, [r1], #-2305	; 0x901
    3820:	2b00000d 	blcs	385c <_start-0x47a4>
    3824:	79010073 	stmdbvc	r1, {r0, r1, r4, r5, r6}
    3828:	0009c301 	andeq	ip, r9, r1, lsl #6
    382c:	00752b00 	rsbseq	r2, r5, r0, lsl #22
    3830:	2c017901 	stccs	9, cr7, [r1], {1}
    3834:	00000000 	andeq	r0, r0, r0
    3838:	0100782c 	tsteq	r0, ip, lsr #16
    383c:	0d030179 	stfeqs	f0, [r3, #-484]	; 0xfffffe1c
    3840:	652c0000 	strvs	r0, [ip, #-0]!
    3844:	01007078 	tsteq	r0, r8, ror r0
    3848:	002c0179 	eoreq	r0, ip, r9, ror r1
    384c:	9a2d0000 	bls	b43854 <__bss_end__+0xb37b6c>
    3850:	0100000d 	tsteq	r0, sp
    3854:	002c0179 	eoreq	r0, ip, r9, ror r1
    3858:	622d0000 	eorvs	r0, sp, #0
    385c:	0100000e 	tsteq	r0, lr
    3860:	002c0179 	eoreq	r0, ip, r9, ror r1
    3864:	29000000 	stmdbcs	r0, {}	; <UNPREDICTABLE>
    3868:	00000da8 	andeq	r0, r0, r8, lsr #27
    386c:	00755f2a 	rsbseq	r5, r5, sl, lsr #30
    3870:	017a0104 	cmneq	sl, r4, lsl #2
    3874:	00000d79 	andeq	r0, r0, r9, ror sp
    3878:	0100732b 	tsteq	r0, fp, lsr #6
    387c:	09c3017a 	stmibeq	r3, {r1, r3, r4, r5, r6, r8}^
    3880:	752b0000 	strvc	r0, [fp, #-0]!
    3884:	017a0100 	cmneq	sl, r0, lsl #2
    3888:	0000002c 	andeq	r0, r0, ip, lsr #32
    388c:	00782c00 	rsbseq	r2, r8, r0, lsl #24
    3890:	58017a01 	stmdapl	r1, {r0, r9, fp, ip, sp, lr}
    3894:	2c00000d 	stccs	0, cr0, [r0], {13}
    3898:	00707865 	rsbseq	r7, r0, r5, ror #16
    389c:	2c017a01 	stccs	10, cr7, [r1], {1}
    38a0:	2d000000 	stccs	0, cr0, [r0, #-0]
    38a4:	00000d9a 	muleq	r0, sl, sp
    38a8:	2c017a01 	stccs	10, cr7, [r1], {1}
    38ac:	2d000000 	stccs	0, cr0, [r0, #-0]
    38b0:	00000e62 	andeq	r0, r0, r2, ror #28
    38b4:	2c017a01 	stccs	10, cr7, [r1], {1}
    38b8:	00000000 	andeq	r0, r0, r0
    38bc:	000dfd29 	andeq	pc, sp, r9, lsr #26
    38c0:	755f2a00 	ldrbvc	r2, [pc, #-2560]	; 2ec8 <_start-0x5138>
    38c4:	7d010400 	cfstrsvc	mvf0, [r1, #-0]
    38c8:	000dce01 	andeq	ip, sp, r1, lsl #28
    38cc:	00732b00 	rsbseq	r2, r3, r0, lsl #22
    38d0:	80017d01 	andhi	r7, r1, r1, lsl #26
    38d4:	2b00000a 	blcs	3904 <_start-0x46fc>
    38d8:	7d010075 	stcvc	0, cr0, [r1, #-468]	; 0xfffffe2c
    38dc:	00002c01 	andeq	r2, r0, r1, lsl #24
    38e0:	782c0000 	stmdavc	ip!, {}	; <UNPREDICTABLE>
    38e4:	017d0100 	cmneq	sp, r0, lsl #2
    38e8:	00000dad 	andeq	r0, r0, sp, lsr #27
    38ec:	7078652c 	rsbsvc	r6, r8, ip, lsr #10
    38f0:	017d0100 	cmneq	sp, r0, lsl #2
    38f4:	0000002c 	andeq	r0, r0, ip, lsr #32
    38f8:	000d9a2d 	andeq	r9, sp, sp, lsr #20
    38fc:	017d0100 	cmneq	sp, r0, lsl #2
    3900:	0000002c 	andeq	r0, r0, ip, lsr #32
    3904:	000e622d 	andeq	r6, lr, sp, lsr #4
    3908:	017d0100 	cmneq	sp, r0, lsl #2
    390c:	0000002c 	andeq	r0, r0, ip, lsr #32
    3910:	0e522900 	cdpeq	9, 5, cr2, cr2, cr0, {0}
    3914:	5f2a0000 	svcpl	0x002a0000
    3918:	01040075 	tsteq	r4, r5, ror r0
    391c:	0e23017e 	mcreq	1, 1, r0, cr3, cr14, {3}
    3920:	732b0000 	teqvc	fp, #0
    3924:	017e0100 	cmneq	lr, r0, lsl #2
    3928:	00000a80 	andeq	r0, r0, r0, lsl #21
    392c:	0100752b 	tsteq	r0, fp, lsr #10
    3930:	002c017e 	eoreq	r0, ip, lr, ror r1
    3934:	2c000000 	stccs	0, cr0, [r0], {-0}
    3938:	7e010078 	mcrvc	0, 0, r0, cr1, cr8, {3}
    393c:	000e0201 	andeq	r0, lr, r1, lsl #4
    3940:	78652c00 	stmdavc	r5!, {sl, fp, sp}^
    3944:	7e010070 	mcrvc	0, 0, r0, cr1, cr0, {3}
    3948:	00002c01 	andeq	r2, r0, r1, lsl #24
    394c:	0d9a2d00 	ldceq	13, cr2, [sl]
    3950:	7e010000 	cdpvc	0, 0, cr0, cr1, cr0, {0}
    3954:	00002c01 	andeq	r2, r0, r1, lsl #24
    3958:	0e622d00 	cdpeq	13, 6, cr2, cr2, cr0, {0}
    395c:	7e010000 	cdpvc	0, 0, cr0, cr1, cr0, {0}
    3960:	00002c01 	andeq	r2, r0, r1, lsl #24
    3964:	a7290000 	strge	r0, [r9, -r0]!
    3968:	2a00000e 	bcs	39a8 <_start-0x4658>
    396c:	0400755f 	streq	r7, [r0], #-1375	; 0x55f
    3970:	78017f01 	stmdavc	r1, {r0, r8, r9, sl, fp, ip, sp, lr}
    3974:	2b00000e 	blcs	39b4 <_start-0x464c>
    3978:	7f010073 	svcvc	0x00010073
    397c:	000a8001 	andeq	r8, sl, r1
    3980:	00752b00 	rsbseq	r2, r5, r0, lsl #22
    3984:	2c017f01 	stccs	15, cr7, [r1], {1}
    3988:	00000000 	andeq	r0, r0, r0
    398c:	0100782c 	tsteq	r0, ip, lsr #16
    3990:	0e57017f 	mrceq	1, 2, r0, cr7, cr15, {3}
    3994:	652c0000 	strvs	r0, [ip, #-0]!
    3998:	01007078 	tsteq	r0, r8, ror r0
    399c:	002c017f 	eoreq	r0, ip, pc, ror r1
    39a0:	9a2d0000 	bls	b439a8 <__bss_end__+0xb37cc0>
    39a4:	0100000d 	tsteq	r0, sp
    39a8:	002c017f 	eoreq	r0, ip, pc, ror r1
    39ac:	622d0000 	eorvs	r0, sp, #0
    39b0:	0100000e 	tsteq	r0, lr
    39b4:	002c017f 	eoreq	r0, ip, pc, ror r1
    39b8:	29000000 	stmdbcs	r0, {}	; <UNPREDICTABLE>
    39bc:	00000efc 	strdeq	r0, [r0], -ip
    39c0:	00755f2a 	rsbseq	r5, r5, sl, lsr #30
    39c4:	01800104 	orreq	r0, r0, r4, lsl #2
    39c8:	00000ecd 	andeq	r0, r0, sp, asr #29
    39cc:	0100732b 	tsteq	r0, fp, lsr #6
    39d0:	0a800180 	beq	fe003fd8 <__bss_end__+0xfdff82f0>
    39d4:	752b0000 	strvc	r0, [fp, #-0]!
    39d8:	01800100 	orreq	r0, r0, r0, lsl #2
    39dc:	0000002c 	andeq	r0, r0, ip, lsr #32
    39e0:	00782c00 	rsbseq	r2, r8, r0, lsl #24
    39e4:	ac018001 	stcge	0, cr8, [r1], {1}
    39e8:	2c00000e 	stccs	0, cr0, [r0], {14}
    39ec:	00707865 	rsbseq	r7, r0, r5, ror #16
    39f0:	2c018001 	stccs	0, cr8, [r1], {1}
    39f4:	2d000000 	stccs	0, cr0, [r0, #-0]
    39f8:	00000d9a 	muleq	r0, sl, sp
    39fc:	2c018001 	stccs	0, cr8, [r1], {1}
    3a00:	2d000000 	stccs	0, cr0, [r0, #-0]
    3a04:	00000e62 	andeq	r0, r0, r2, ror #28
    3a08:	2c018001 	stccs	0, cr8, [r1], {1}
    3a0c:	00000000 	andeq	r0, r0, r0
    3a10:	000f5129 	andeq	r5, pc, r9, lsr #2
    3a14:	755f2a00 	ldrbvc	r2, [pc, #-2560]	; 301c <_start-0x4fe4>
    3a18:	81010400 	tsthi	r1, r0, lsl #8
    3a1c:	000f2201 	andeq	r2, pc, r1, lsl #4
    3a20:	00732b00 	rsbseq	r2, r3, r0, lsl #22
    3a24:	80018101 	andhi	r8, r1, r1, lsl #2
    3a28:	2b00000a 	blcs	3a58 <_start-0x45a8>
    3a2c:	81010075 	tsthi	r1, r5, ror r0
    3a30:	00002c01 	andeq	r2, r0, r1, lsl #24
    3a34:	782c0000 	stmdavc	ip!, {}	; <UNPREDICTABLE>
    3a38:	01810100 	orreq	r0, r1, r0, lsl #2
    3a3c:	00000f01 	andeq	r0, r0, r1, lsl #30
    3a40:	7078652c 	rsbsvc	r6, r8, ip, lsr #10
    3a44:	01810100 	orreq	r0, r1, r0, lsl #2
    3a48:	0000002c 	andeq	r0, r0, ip, lsr #32
    3a4c:	000d9a2d 	andeq	r9, sp, sp, lsr #20
    3a50:	01810100 	orreq	r0, r1, r0, lsl #2
    3a54:	0000002c 	andeq	r0, r0, ip, lsr #32
    3a58:	000e622d 	andeq	r6, lr, sp, lsr #4
    3a5c:	01810100 	orreq	r0, r1, r0, lsl #2
    3a60:	0000002c 	andeq	r0, r0, ip, lsr #32
    3a64:	0fa62900 	svceq	0x00a62900
    3a68:	5f2a0000 	svcpl	0x002a0000
    3a6c:	01040075 	tsteq	r4, r5, ror r0
    3a70:	0f770182 	svceq	0x00770182
    3a74:	732b0000 	teqvc	fp, #0
    3a78:	01820100 	orreq	r0, r2, r0, lsl #2
    3a7c:	00000a80 	andeq	r0, r0, r0, lsl #21
    3a80:	0100752b 	tsteq	r0, fp, lsr #10
    3a84:	002c0182 	eoreq	r0, ip, r2, lsl #3
    3a88:	2c000000 	stccs	0, cr0, [r0], {-0}
    3a8c:	82010078 	andhi	r0, r1, #120	; 0x78
    3a90:	000f5601 	andeq	r5, pc, r1, lsl #12
    3a94:	78652c00 	stmdavc	r5!, {sl, fp, sp}^
    3a98:	82010070 	andhi	r0, r1, #112	; 0x70
    3a9c:	00002c01 	andeq	r2, r0, r1, lsl #24
    3aa0:	0d9a2d00 	ldceq	13, cr2, [sl]
    3aa4:	82010000 	andhi	r0, r1, #0
    3aa8:	00002c01 	andeq	r2, r0, r1, lsl #24
    3aac:	0e622d00 	cdpeq	13, 6, cr2, cr2, cr0, {0}
    3ab0:	82010000 	andhi	r0, r1, #0
    3ab4:	00002c01 	andeq	r2, r0, r1, lsl #24
    3ab8:	fb290000 	blx	a43ac2 <__bss_end__+0xa37dda>
    3abc:	2a00000f 	bcs	3b00 <_start-0x4500>
    3ac0:	0400755f 	streq	r7, [r0], #-1375	; 0x55f
    3ac4:	cc018301 	stcgt	3, cr8, [r1], {1}
    3ac8:	2b00000f 	blcs	3b0c <_start-0x44f4>
    3acc:	83010073 	movwhi	r0, #4211	; 0x1073
    3ad0:	000a8001 	andeq	r8, sl, r1
    3ad4:	00752b00 	rsbseq	r2, r5, r0, lsl #22
    3ad8:	2c018301 	stccs	3, cr8, [r1], {1}
    3adc:	00000000 	andeq	r0, r0, r0
    3ae0:	0100782c 	tsteq	r0, ip, lsr #16
    3ae4:	0fab0183 	svceq	0x00ab0183
    3ae8:	652c0000 	strvs	r0, [ip, #-0]!
    3aec:	01007078 	tsteq	r0, r8, ror r0
    3af0:	002c0183 	eoreq	r0, ip, r3, lsl #3
    3af4:	9a2d0000 	bls	b43afc <__bss_end__+0xb37e14>
    3af8:	0100000d 	tsteq	r0, sp
    3afc:	002c0183 	eoreq	r0, ip, r3, lsl #3
    3b00:	622d0000 	eorvs	r0, sp, #0
    3b04:	0100000e 	tsteq	r0, lr
    3b08:	002c0183 	eoreq	r0, ip, r3, lsl #3
    3b0c:	29000000 	stmdbcs	r0, {}	; <UNPREDICTABLE>
    3b10:	00001050 	andeq	r1, r0, r0, asr r0
    3b14:	00755f2a 	rsbseq	r5, r5, sl, lsr #30
    3b18:	01840104 	orreq	r0, r4, r4, lsl #2
    3b1c:	00001021 	andeq	r1, r0, r1, lsr #32
    3b20:	0100732b 	tsteq	r0, fp, lsr #6
    3b24:	0a800184 	beq	fe00413c <__bss_end__+0xfdff8454>
    3b28:	752b0000 	strvc	r0, [fp, #-0]!
    3b2c:	01840100 	orreq	r0, r4, r0, lsl #2
    3b30:	0000002c 	andeq	r0, r0, ip, lsr #32
    3b34:	00782c00 	rsbseq	r2, r8, r0, lsl #24
    3b38:	00018401 	andeq	r8, r1, r1, lsl #8
    3b3c:	2c000010 	stccs	0, cr0, [r0], {16}
    3b40:	00707865 	rsbseq	r7, r0, r5, ror #16
    3b44:	2c018401 	cfstrscs	mvf8, [r1], {1}
    3b48:	2d000000 	stccs	0, cr0, [r0, #-0]
    3b4c:	00000d9a 	muleq	r0, sl, sp
    3b50:	2c018401 	cfstrscs	mvf8, [r1], {1}
    3b54:	2d000000 	stccs	0, cr0, [r0, #-0]
    3b58:	00000e62 	andeq	r0, r0, r2, ror #28
    3b5c:	2c018401 	cfstrscs	mvf8, [r1], {1}
    3b60:	00000000 	andeq	r0, r0, r0
    3b64:	0010a529 	andseq	sl, r0, r9, lsr #10
    3b68:	755f2a00 	ldrbvc	r2, [pc, #-2560]	; 3170 <_start-0x4e90>
    3b6c:	85010400 	strhi	r0, [r1, #-1024]	; 0x400
    3b70:	00107601 	andseq	r7, r0, r1, lsl #12
    3b74:	00732b00 	rsbseq	r2, r3, r0, lsl #22
    3b78:	80018501 	andhi	r8, r1, r1, lsl #10
    3b7c:	2b00000a 	blcs	3bac <_start-0x4454>
    3b80:	85010075 	strhi	r0, [r1, #-117]	; 0x75
    3b84:	00002c01 	andeq	r2, r0, r1, lsl #24
    3b88:	782c0000 	stmdavc	ip!, {}	; <UNPREDICTABLE>
    3b8c:	01850100 	orreq	r0, r5, r0, lsl #2
    3b90:	00001055 	andeq	r1, r0, r5, asr r0
    3b94:	7078652c 	rsbsvc	r6, r8, ip, lsr #10
    3b98:	01850100 	orreq	r0, r5, r0, lsl #2
    3b9c:	0000002c 	andeq	r0, r0, ip, lsr #32
    3ba0:	000d9a2d 	andeq	r9, sp, sp, lsr #20
    3ba4:	01850100 	orreq	r0, r5, r0, lsl #2
    3ba8:	0000002c 	andeq	r0, r0, ip, lsr #32
    3bac:	000e622d 	andeq	r6, lr, sp, lsr #4
    3bb0:	01850100 	orreq	r0, r5, r0, lsl #2
    3bb4:	0000002c 	andeq	r0, r0, ip, lsr #32
    3bb8:	92442e00 	subls	r2, r4, #0, 28
    3bbc:	00040000 	andeq	r0, r4, r0
    3bc0:	5f2a0000 	svcpl	0x002a0000
    3bc4:	01040075 	tsteq	r4, r5, ror r0
    3bc8:	10cf0186 	sbcne	r0, pc, r6, lsl #3
    3bcc:	732b0000 	teqvc	fp, #0
    3bd0:	01860100 	orreq	r0, r6, r0, lsl #2
    3bd4:	00000a80 	andeq	r0, r0, r0, lsl #21
    3bd8:	0100752b 	tsteq	r0, fp, lsr #10
    3bdc:	002c0186 	eoreq	r0, ip, r6, lsl #3
    3be0:	2c000000 	stccs	0, cr0, [r0], {-0}
    3be4:	86010078 			; <UNDEFINED> instruction: 0x86010078
    3be8:	0010ae01 	andseq	sl, r0, r1, lsl #28
    3bec:	78652f00 	stmdavc	r5!, {r8, r9, sl, fp, sp}^
    3bf0:	86010070 			; <UNDEFINED> instruction: 0x86010070
    3bf4:	00002c01 	andeq	r2, r0, r1, lsl #24
    3bf8:	2d020000 	stccs	0, cr0, [r2, #-0]
    3bfc:	00000d9a 	muleq	r0, sl, sp
    3c00:	2c018601 	stccs	6, cr8, [r1], {1}
    3c04:	2d000000 	stccs	0, cr0, [r0, #-0]
    3c08:	00000e62 	andeq	r0, r0, r2, ror #28
    3c0c:	2c018601 	stccs	6, cr8, [r1], {1}
    3c10:	00000000 	andeq	r0, r0, r0
    3c14:	012f0900 	teqeq	pc, r0, lsl #18
    3c18:	11110000 	tstne	r1, r0
    3c1c:	e20a0000 	and	r0, sl, #0
    3c20:	0c000000 	stceq	0, cr0, [r0], {-0}
    3c24:	11010400 	tstne	r1, r0, lsl #8
    3c28:	57300000 	ldrpl	r0, [r0, -r0]!
    3c2c:	01000002 	tsteq	r0, r2
    3c30:	96dc014b 	ldrbls	r0, [ip], fp, asr #2
    3c34:	00940000 	addseq	r0, r4, r0
    3c38:	9c010000 	stcls	0, cr0, [r1], {-0}
    3c3c:	00001287 	andeq	r1, r0, r7, lsl #5
    3c40:	41445331 	cmpmi	r4, r1, lsr r3
    3c44:	01500100 	cmpeq	r0, r0, lsl #2
    3c48:	00000033 	andeq	r0, r0, r3, lsr r0
    3c4c:	43533102 	cmpmi	r3, #-2147483648	; 0x80000000
    3c50:	5101004c 	tstpl	r1, ip, asr #32
    3c54:	00003301 	andeq	r3, r0, r1, lsl #6
    3c58:	632c0300 	teqvs	ip, #0, 6
    3c5c:	01590100 	cmpeq	r9, r0, lsl #2
    3c60:	000009c3 	andeq	r0, r0, r3, asr #19
    3c64:	00006c28 	andeq	r6, r0, r8, lsr #24
    3c68:	00129700 	andseq	r9, r2, r0, lsl #14
    3c6c:	d0030500 	andle	r0, r3, r0, lsl #10
    3c70:	290000b1 	stmdbcs	r0, {r0, r4, r5, r7}
    3c74:	00001190 	muleq	r0, r0, r1
    3c78:	00755f2a 	rsbseq	r5, r5, sl, lsr #30
    3c7c:	01590104 	cmpeq	r9, r4, lsl #2
    3c80:	00001185 	andeq	r1, r0, r5, lsl #3
    3c84:	0100762b 	tsteq	r0, fp, lsr #12
    3c88:	09c30159 	stmibeq	r3, {r0, r3, r4, r6, r8}^
    3c8c:	752b0000 	strvc	r0, [fp, #-0]!
    3c90:	01590100 	cmpeq	r9, r0, lsl #2
    3c94:	0000002c 	andeq	r0, r0, ip, lsr #32
    3c98:	00752c00 	rsbseq	r2, r5, r0, lsl #24
    3c9c:	64015901 	strvs	r5, [r1], #-2305	; 0x901
    3ca0:	00000011 	andeq	r0, r0, r1, lsl r0
    3ca4:	0011c329 	andseq	ip, r1, r9, lsr #6
    3ca8:	755f2a00 	ldrbvc	r2, [pc, #-2560]	; 32b0 <_start-0x4d50>
    3cac:	5b010400 	blpl	44cb4 <__bss_end__+0x38fcc>
    3cb0:	0011b801 	andseq	fp, r1, r1, lsl #16
    3cb4:	76762b00 	ldrbtvc	r2, [r6], -r0, lsl #22
    3cb8:	015b0100 	cmpeq	fp, r0, lsl #2
    3cbc:	000009c3 	andeq	r0, r0, r3, asr #19
    3cc0:	0075752b 	rsbseq	r7, r5, fp, lsr #10
    3cc4:	6d015b01 	vstrvs	d5, [r1, #-4]
    3cc8:	00000000 	andeq	r0, r0, r0
    3ccc:	0100752c 	tsteq	r0, ip, lsr #10
    3cd0:	1195015b 	orrsne	r0, r5, fp, asr r1
    3cd4:	32000000 	andcc	r0, r0, #0
    3cd8:	000096e4 	andeq	r9, r0, r4, ror #13
    3cdc:	00000b30 	andeq	r0, r0, r0, lsr fp
    3ce0:	0096e832 	addseq	lr, r6, r2, lsr r8
    3ce4:	001b1400 	andseq	r1, fp, r0, lsl #8
    3ce8:	96f43300 	ldrbtls	r3, [r4], r0, lsl #6
    3cec:	1b1f0000 	blne	7c3cf4 <__bss_end__+0x7b800c>
    3cf0:	11ed0000 	mvnne	r0, r0
    3cf4:	01340000 	teqeq	r4, r0
    3cf8:	34320150 	ldrtcc	r0, [r2], #-336	; 0x150
    3cfc:	34015101 	strcc	r5, [r1], #-257	; 0x101
    3d00:	97003300 	strls	r3, [r0, -r0, lsl #6]
    3d04:	1b1f0000 	blne	7c3d0c <__bss_end__+0x7b8024>
    3d08:	12050000 	andne	r0, r5, #0
    3d0c:	01340000 	teqeq	r4, r0
    3d10:	34330150 	ldrtcc	r0, [r3], #-336	; 0x150
    3d14:	34015101 	strcc	r5, [r1], #-257	; 0x101
    3d18:	97043200 	strls	r3, [r4, -r0, lsl #4]
    3d1c:	1b140000 	blne	503d24 <__bss_end__+0x4f803c>
    3d20:	14330000 	ldrtne	r0, [r3], #-0
    3d24:	2a000097 	bcs	3f88 <_start-0x4078>
    3d28:	2900001b 	stmdbcs	r0, {r0, r1, r3, r4}
    3d2c:	34000012 	strcc	r0, [r0], #-18
    3d30:	74025001 	strvc	r5, [r2], #-1
    3d34:	51013400 	tstpl	r1, r0, lsl #8
    3d38:	80000a03 	andhi	r0, r0, r3, lsl #20
    3d3c:	97183200 	ldrls	r3, [r8, -r0, lsl #4]
    3d40:	1b140000 	blne	503d48 <__bss_end__+0x4f8060>
    3d44:	1c320000 	ldcne	0, cr0, [r2], #-0
    3d48:	58000097 	stmdapl	r0, {r0, r1, r2, r4, r7}
    3d4c:	32000019 	andcc	r0, r0, #25
    3d50:	00009720 	andeq	r9, r0, r0, lsr #14
    3d54:	00001b14 	andeq	r1, r0, r4, lsl fp
    3d58:	00974032 	addseq	r4, r7, r2, lsr r0
    3d5c:	001b3500 	andseq	r3, fp, r0, lsl #10
    3d60:	97543300 	ldrbls	r3, [r4, -r0, lsl #6]
    3d64:	1b400000 	blne	1003d6c <__bss_end__+0xff8084>
    3d68:	127d0000 	rsbsne	r0, sp, #0
    3d6c:	01340000 	teqeq	r4, r0
    3d70:	24030550 	strcs	r0, [r3], #-1360	; 0x550
    3d74:	340000b3 	strcc	r0, [r0], #-179	; 0xb3
    3d78:	03055101 	movweq	r5, #20737	; 0x5101
    3d7c:	0000b1dc 	ldrdeq	fp, [r0], -ip
    3d80:	05520134 	ldrbeq	r0, [r2, #-308]	; 0x134
    3d84:	00b1d003 	adcseq	sp, r1, r3
    3d88:	53013400 	movwpl	r3, #5120	; 0x1400
    3d8c:	01620a03 	cmneq	r2, r3, lsl #20
    3d90:	97583200 	ldrbls	r3, [r8, -r0, lsl #4]
    3d94:	1b4b0000 	blne	12c3d9c <__bss_end__+0x12b80b4>
    3d98:	09000000 	stmdbeq	r0, {}	; <UNPREDICTABLE>
    3d9c:	0000012f 	andeq	r0, r0, pc, lsr #2
    3da0:	00001297 	muleq	r0, r7, r2
    3da4:	0000e20a 	andeq	lr, r0, sl, lsl #4
    3da8:	04000800 	streq	r0, [r0], #-2048	; 0x800
    3dac:	00001287 	andeq	r1, r0, r7, lsl #5
    3db0:	000ea330 	andeq	sl, lr, r0, lsr r3
    3db4:	01440100 	mrseq	r0, (UNDEF: 84)
    3db8:	00009770 	andeq	r9, r0, r0, ror r7
    3dbc:	00000018 	andeq	r0, r0, r8, lsl r0
    3dc0:	12c59c01 	sbcne	r9, r5, #256	; 0x100
    3dc4:	78320000 	ldmdavc	r2!, {}	; <UNPREDICTABLE>
    3dc8:	c5000097 	strgt	r0, [r0, #-151]	; 0x97
    3dcc:	32000012 	andcc	r0, r0, #18
    3dd0:	00009784 	andeq	r9, r0, r4, lsl #15
    3dd4:	00001116 	andeq	r1, r0, r6, lsl r1
    3dd8:	0ca93500 	cfstr32eq	mvfx3, [r9]
    3ddc:	41010000 	mrsmi	r0, (UNDEF: 1)
    3de0:	00002501 	andeq	r2, r0, r1, lsl #10
    3de4:	0096cc00 	addseq	ip, r6, r0, lsl #24
    3de8:	00001000 	andeq	r1, r0, r0
    3dec:	369c0100 	ldrcc	r0, [ip], r0, lsl #2
    3df0:	000004ae 	andeq	r0, r0, lr, lsr #9
    3df4:	25012e01 	strcs	r2, [r1, #-3585]	; 0xe01
    3df8:	0c000000 	stceq	0, cr0, [r0], {-0}
    3dfc:	c0000096 	mulgt	r0, r6, r0
    3e00:	01000000 	mrseq	r0, (UNDEF: 0)
    3e04:	0013fe9c 	mulseq	r3, ip, lr
    3e08:	033d3700 	teqeq	sp, #0, 14
    3e0c:	2e010000 	cdpcs	0, 0, cr0, cr1, cr0, {0}
    3e10:	00002c01 	andeq	r2, r0, r1, lsl #24
    3e14:	000fa800 	andeq	sl, pc, r0, lsl #16
    3e18:	00373700 	eorseq	r3, r7, r0, lsl #14
    3e1c:	2e010000 	cdpcs	0, 0, cr0, cr1, cr0, {0}
    3e20:	0013fe01 	andseq	pc, r3, r1, lsl #28
    3e24:	000fc900 	andeq	ip, pc, r0, lsl #18
    3e28:	16873700 	strne	r3, [r7], r0, lsl #14
    3e2c:	2e010000 	cdpcs	0, 0, cr0, cr1, cr0, {0}
    3e30:	00002c01 	andeq	r2, r0, r1, lsl #24
    3e34:	000fe700 	andeq	lr, pc, r0, lsl #14
    3e38:	006c2800 	rsbeq	r2, ip, r0, lsl #16
    3e3c:	12970000 	addsne	r0, r7, #0
    3e40:	03050000 	movweq	r0, #20480	; 0x5000
    3e44:	0000b1c4 	andeq	fp, r0, r4, asr #3
    3e48:	00962438 	addseq	r2, r6, r8, lsr r4
    3e4c:	00008800 	andeq	r8, r0, r0, lsl #16
    3e50:	0013d400 	andseq	sp, r3, r0, lsl #8
    3e54:	00693900 	rsbeq	r3, r9, r0, lsl #18
    3e58:	2c013201 	sfmcs	f3, 4, [r1], {1}
    3e5c:	05000000 	streq	r0, [r0, #-0]
    3e60:	32000010 	andcc	r0, r0, #16
    3e64:	00009630 	andeq	r9, r0, r0, lsr r6
    3e68:	00001b35 	andeq	r1, r0, r5, lsr fp
    3e6c:	00964433 	addseq	r4, r6, r3, lsr r4
    3e70:	001b4000 	andseq	r4, fp, r0
    3e74:	00138800 	andseq	r8, r3, r0, lsl #16
    3e78:	50013400 	andpl	r3, r1, r0, lsl #8
    3e7c:	b2d00305 	sbcslt	r0, r0, #335544320	; 0x14000000
    3e80:	01340000 	teqeq	r4, r0
    3e84:	dc030551 	cfstr32le	mvfx0, [r3], {81}	; 0x51
    3e88:	340000b1 	strcc	r0, [r0], #-177	; 0xb1
    3e8c:	03055201 	movweq	r5, #20993	; 0x5201
    3e90:	0000b1c4 	andeq	fp, r0, r4, asr #3
    3e94:	03530134 	cmpeq	r3, #52, 2
    3e98:	0001340a 	andeq	r3, r1, sl, lsl #8
    3e9c:	00964832 	addseq	r4, r6, r2, lsr r8
    3ea0:	001b4b00 	andseq	r4, fp, r0, lsl #22
    3ea4:	96943200 	ldrls	r3, [r4], r0, lsl #4
    3ea8:	1b350000 	blne	d43eb0 <__bss_end__+0xd381c8>
    3eac:	a8330000 	ldmdage	r3!, {}	; <UNPREDICTABLE>
    3eb0:	40000096 	mulmi	r0, r6, r0
    3eb4:	ca00001b 	bgt	3f28 <_start-0x40d8>
    3eb8:	34000013 	strcc	r0, [r0], #-19
    3ebc:	03055001 	movweq	r5, #20481	; 0x5001
    3ec0:	0000b2f4 	strdeq	fp, [r0], -r4
    3ec4:	05510134 	ldrbeq	r0, [r1, #-308]	; 0x134
    3ec8:	00b1dc03 	adcseq	sp, r1, r3, lsl #24
    3ecc:	52013400 	andpl	r3, r1, #0, 8
    3ed0:	b1c40305 	biclt	r0, r4, r5, lsl #6
    3ed4:	01340000 	teqeq	r4, r0
    3ed8:	340a0353 	strcc	r0, [sl], #-851	; 0x353
    3edc:	ac320001 	ldcge	0, cr0, [r2], #-4
    3ee0:	4b000096 	blmi	4140 <_start-0x3ec0>
    3ee4:	0000001b 	andeq	r0, r0, fp, lsl r0
    3ee8:	00962433 	addseq	r2, r6, r3, lsr r4
    3eec:	00167300 	andseq	r7, r6, r0, lsl #6
    3ef0:	0013f400 	andseq	pc, r3, r0, lsl #8
    3ef4:	50013400 	andpl	r3, r1, r0, lsl #8
    3ef8:	5001f303 	andpl	pc, r1, r3, lsl #6
    3efc:	02510134 	subseq	r0, r1, #52, 2
    3f00:	01340074 	teqeq	r4, r4, ror r0
    3f04:	00310152 	eorseq	r0, r1, r2, asr r1
    3f08:	0096b032 	addseq	fp, r6, r2, lsr r0
    3f0c:	00153c00 	andseq	r3, r5, r0, lsl #24
    3f10:	040e0000 	streq	r0, [lr], #-0
    3f14:	00000054 	andeq	r0, r0, r4, asr r0
    3f18:	00073836 	andeq	r3, r7, r6, lsr r8
    3f1c:	011e0100 	tsteq	lr, r0, lsl #2
    3f20:	00000025 	andeq	r0, r0, r5, lsr #32
    3f24:	00009548 	andeq	r9, r0, r8, asr #10
    3f28:	000000c4 	andeq	r0, r0, r4, asr #1
    3f2c:	15279c01 	strne	r9, [r7, #-3073]!	; 0xc01
    3f30:	3d370000 	ldccc	0, cr0, [r7, #-0]
    3f34:	01000003 	tsteq	r0, r3
    3f38:	002c011e 	eoreq	r0, ip, lr, lsl r1
    3f3c:	103a0000 	eorsne	r0, sl, r0
    3f40:	37370000 	ldrcc	r0, [r7, -r0]!
    3f44:	01000000 	mrseq	r0, (UNDEF: 0)
    3f48:	13fe011e 	mvnsne	r0, #-2147483641	; 0x80000007
    3f4c:	105b0000 	subsne	r0, fp, r0
    3f50:	87370000 	ldrhi	r0, [r7, -r0]!
    3f54:	01000016 	tsteq	r0, r6, lsl r0
    3f58:	002c011e 	eoreq	r0, ip, lr, lsl r1
    3f5c:	10790000 	rsbsne	r0, r9, r0
    3f60:	6c280000 	stcvs	0, cr0, [r8], #-0
    3f64:	37000000 	strcc	r0, [r0, -r0]
    3f68:	05000015 	streq	r0, [r0, #-21]
    3f6c:	00b1b803 	adcseq	fp, r1, r3, lsl #16
    3f70:	95603800 	strbls	r3, [r0, #-2048]!	; 0x800
    3f74:	00880000 	addeq	r0, r8, r0
    3f78:	14fd0000 	ldrbtne	r0, [sp], #0
    3f7c:	69390000 	ldmdbvs	r9!, {}	; <UNPREDICTABLE>
    3f80:	01210100 	teqeq	r1, r0, lsl #2
    3f84:	0000002c 	andeq	r0, r0, ip, lsr #32
    3f88:	00001097 	muleq	r0, r7, r0
    3f8c:	00956c32 	addseq	r6, r5, r2, lsr ip
    3f90:	001b3500 	andseq	r3, fp, r0, lsl #10
    3f94:	95803300 	strls	r3, [r0, #768]	; 0x300
    3f98:	1b400000 	blne	1003fa0 <__bss_end__+0xff82b8>
    3f9c:	14b10000 	ldrtne	r0, [r1], #0
    3fa0:	01340000 	teqeq	r4, r0
    3fa4:	d0030550 	andle	r0, r3, r0, asr r5
    3fa8:	340000b2 	strcc	r0, [r0], #-178	; 0xb2
    3fac:	03055101 	movweq	r5, #20737	; 0x5101
    3fb0:	0000b1dc 	ldrdeq	fp, [r0], -ip
    3fb4:	05520134 	ldrbeq	r0, [r2, #-308]	; 0x134
    3fb8:	00b1b803 	adcseq	fp, r1, r3, lsl #16
    3fbc:	53013400 	movwpl	r3, #5120	; 0x1400
    3fc0:	01230a03 	teqeq	r3, r3, lsl #20
    3fc4:	95843200 	strls	r3, [r4, #512]	; 0x200
    3fc8:	1b4b0000 	blne	12c3fd0 <__bss_end__+0x12b82e8>
    3fcc:	d0320000 	eorsle	r0, r2, r0
    3fd0:	35000095 	strcc	r0, [r0, #-149]	; 0x95
    3fd4:	3300001b 	movwcc	r0, #27
    3fd8:	000095e4 	andeq	r9, r0, r4, ror #11
    3fdc:	00001b40 	andeq	r1, r0, r0, asr #22
    3fe0:	000014f3 	strdeq	r1, [r0], -r3
    3fe4:	05500134 	ldrbeq	r0, [r0, #-308]	; 0x134
    3fe8:	00b2f403 	adcseq	pc, r2, r3, lsl #8
    3fec:	51013400 	tstpl	r1, r0, lsl #8
    3ff0:	b1dc0305 	bicslt	r0, ip, r5, lsl #6
    3ff4:	01340000 	teqeq	r4, r0
    3ff8:	b8030552 	stmdalt	r3, {r1, r4, r6, r8, sl}
    3ffc:	340000b1 	strcc	r0, [r0], #-177	; 0xb1
    4000:	0a035301 	beq	d8c0c <__bss_end__+0xccf24>
    4004:	32000123 	andcc	r0, r0, #-1073741816	; 0xc0000008
    4008:	000095e8 	andeq	r9, r0, r8, ror #11
    400c:	00001b4b 	andeq	r1, r0, fp, asr #22
    4010:	95603300 	strbls	r3, [r0, #-768]!	; 0x300
    4014:	16730000 	ldrbtne	r0, [r3], -r0
    4018:	151d0000 	ldrne	r0, [sp, #-0]
    401c:	01340000 	teqeq	r4, r0
    4020:	01f30350 	mvnseq	r0, r0, asr r3
    4024:	51013450 	tstpl	r1, r0, asr r4
    4028:	34007402 	strcc	r7, [r0], #-1026	; 0x402
    402c:	30015201 	andcc	r5, r1, r1, lsl #4
    4030:	95ec3200 	strbls	r3, [ip, #512]!	; 0x200
    4034:	153c0000 	ldrne	r0, [ip, #-0]!
    4038:	09000000 	stmdbeq	r0, {}	; <UNPREDICTABLE>
    403c:	0000012f 	andeq	r0, r0, pc, lsr #2
    4040:	00001537 	andeq	r1, r0, r7, lsr r5
    4044:	0000e20a 	andeq	lr, r0, sl, lsl #4
    4048:	04000900 	streq	r0, [r0], #-2304	; 0x900
    404c:	00001527 	andeq	r1, r0, r7, lsr #10
    4050:	00111527 	andseq	r1, r1, r7, lsr #10
    4054:	01110100 	tsteq	r1, r0, lsl #2
    4058:	00009248 	andeq	r9, r0, r8, asr #4
    405c:	000000f0 	strdeq	r0, [r0], -r0	; <UNPREDICTABLE>
    4060:	16739c01 	ldrbtne	r9, [r3], -r1, lsl #24
    4064:	6c280000 	stcvs	0, cr0, [r8], #-0
    4068:	97000000 	strls	r0, [r0, -r0]
    406c:	05000012 	streq	r0, [r0, #-18]
    4070:	00b1a003 	adcseq	sl, r1, r3
    4074:	92803200 	addls	r3, r0, #0, 4
    4078:	1b350000 	blne	d44080 <__bss_end__+0xd38398>
    407c:	94330000 	ldrtls	r0, [r3], #-0
    4080:	40000092 	mulmi	r0, r2, r0
    4084:	9a00001b 	bls	40f8 <_start-0x3f08>
    4088:	34000015 	strcc	r0, [r0], #-21
    408c:	03055001 	movweq	r5, #20481	; 0x5001
    4090:	0000b2f4 	strdeq	fp, [r0], -r4
    4094:	05510134 	ldrbeq	r0, [r1, #-308]	; 0x134
    4098:	00b1dc03 	adcseq	sp, r1, r3, lsl #24
    409c:	52013400 	andpl	r3, r1, #0, 8
    40a0:	b1a00305 	lsllt	r0, r5, #6
    40a4:	01340000 	teqeq	r4, r0
    40a8:	130a0353 	movwne	r0, #41811	; 0xa353
    40ac:	98320001 	ldmdals	r2!, {r0}
    40b0:	4b000092 	blmi	4300 <_start-0x3d00>
    40b4:	3200001b 	andcc	r0, r0, #27
    40b8:	0000929c 	muleq	r0, ip, r2
    40bc:	00001b35 	andeq	r1, r0, r5, lsr fp
    40c0:	0092b033 	addseq	fp, r2, r3, lsr r0
    40c4:	001b4000 	andseq	r4, fp, r0
    40c8:	0015dc00 	andseq	sp, r5, r0, lsl #24
    40cc:	50013400 	andpl	r3, r1, r0, lsl #8
    40d0:	b2d00305 	sbcslt	r0, r0, #335544320	; 0x14000000
    40d4:	01340000 	teqeq	r4, r0
    40d8:	dc030551 	cfstr32le	mvfx0, [r3], {81}	; 0x51
    40dc:	340000b1 	strcc	r0, [r0], #-177	; 0xb1
    40e0:	03055201 	movweq	r5, #20993	; 0x5201
    40e4:	0000b1a0 	andeq	fp, r0, r0, lsr #3
    40e8:	03530134 	cmpeq	r3, #52, 2
    40ec:	0001130a 	andeq	r1, r1, sl, lsl #6
    40f0:	0092b432 	addseq	fp, r2, r2, lsr r4
    40f4:	001b4b00 	andseq	r4, fp, r0, lsl #22
    40f8:	92d83200 	sbcsls	r3, r8, #0, 4
    40fc:	1b140000 	blne	504104 <__bss_end__+0x4f841c>
    4100:	e0320000 	eors	r0, r2, r0
    4104:	35000092 	strcc	r0, [r0, #-146]	; 0x92
    4108:	3300001b 	movwcc	r0, #27
    410c:	000092f4 	strdeq	r9, [r0], -r4
    4110:	00001b40 	andeq	r1, r0, r0, asr #22
    4114:	00001627 	andeq	r1, r0, r7, lsr #12
    4118:	05500134 	ldrbeq	r0, [r0, #-308]	; 0x134
    411c:	00b32403 	adcseq	r2, r3, r3, lsl #8
    4120:	51013400 	tstpl	r1, r0, lsl #8
    4124:	b1dc0305 	bicslt	r0, ip, r5, lsl #6
    4128:	01340000 	teqeq	r4, r0
    412c:	a0030552 	andge	r0, r3, r2, asr r5
    4130:	340000b1 	strcc	r0, [r0], #-177	; 0xb1
    4134:	0a035301 	beq	d8d40 <__bss_end__+0xcd058>
    4138:	32000116 	andcc	r0, r0, #-2147483643	; 0x80000005
    413c:	000092f8 	strdeq	r9, [r0], -r8
    4140:	00001b4b 	andeq	r1, r0, fp, asr #22
    4144:	0092fc32 	addseq	pc, r2, r2, lsr ip	; <UNPREDICTABLE>
    4148:	001b3500 	andseq	r3, fp, r0, lsl #10
    414c:	93103300 	tstls	r0, #0, 6
    4150:	1b400000 	blne	1004158 <__bss_end__+0xff8470>
    4154:	16690000 	strbtne	r0, [r9], -r0
    4158:	01340000 	teqeq	r4, r0
    415c:	48030550 	stmdami	r3, {r4, r6, r8, sl}
    4160:	340000b3 	strcc	r0, [r0], #-179	; 0xb3
    4164:	03055101 	movweq	r5, #20737	; 0x5101
    4168:	0000b1dc 	ldrdeq	fp, [r0], -ip
    416c:	05520134 	ldrbeq	r0, [r2, #-308]	; 0x134
    4170:	00b1a003 	adcseq	sl, r1, r3
    4174:	53013400 	movwpl	r3, #5120	; 0x1400
    4178:	01180a03 	tsteq	r8, r3, lsl #20
    417c:	93143200 	tstls	r4, #0, 4
    4180:	1b4b0000 	blne	12c4188 <__bss_end__+0x12b84a0>
    4184:	3a000000 	bcc	418c <_start-0x3e74>
    4188:	000010d4 	ldrdeq	r1, [r0], -r4
    418c:	9380ef01 	orrls	lr, r0, #1, 30
    4190:	01c80000 	biceq	r0, r8, r0
    4194:	9c010000 	stcls	0, cr0, [r1], {-0}
    4198:	00001943 	andeq	r1, r0, r3, asr #18
    419c:	00033d3b 	andeq	r3, r3, fp, lsr sp
    41a0:	2cef0100 	stfcse	f0, [pc]	; 41a8 <_start-0x3e58>
    41a4:	cc000000 	stcgt	0, cr0, [r0], {-0}
    41a8:	3b000010 	blcc	41f0 <_start-0x3e10>
    41ac:	00001687 	andeq	r1, r0, r7, lsl #13
    41b0:	002cef01 	eoreq	lr, ip, r1, lsl #30
    41b4:	10ea0000 	rscne	r0, sl, r0
    41b8:	383b0000 	ldmdacc	fp!, {}	; <UNPREDICTABLE>
    41bc:	0100000e 	tsteq	r0, lr
    41c0:	000025ef 	andeq	r2, r0, pc, ror #11
    41c4:	00112f00 	andseq	r2, r1, r0, lsl #30
    41c8:	006c2800 	rsbeq	r2, ip, r0, lsl #16
    41cc:	19530000 	ldmdbne	r3, {}^	; <UNPREDICTABLE>
    41d0:	03050000 	movweq	r0, #20480	; 0x5000
    41d4:	0000b1ac 	andeq	fp, r0, ip, lsr #3
    41d8:	01006339 	tsteq	r0, r9, lsr r3
    41dc:	09c30102 	stmibeq	r3, {r1, r8}^
    41e0:	114d0000 	mrsne	r0, (UNDEF: 77)
    41e4:	05290000 	streq	r0, [r9, #-0]!
    41e8:	2a000017 	bcs	424c <_start-0x3db4>
    41ec:	0400755f 	streq	r7, [r0], #-1375	; 0x55f
    41f0:	fa010601 	blx	459fc <__bss_end__+0x39d14>
    41f4:	2b000016 	blcs	4254 <_start-0x3dac>
    41f8:	01007676 	tsteq	r0, r6, ror r6
    41fc:	09c30106 	stmibeq	r3, {r1, r2, r8}^
    4200:	752b0000 	strvc	r0, [fp, #-0]!
    4204:	06010075 			; <UNDEFINED> instruction: 0x06010075
    4208:	00006d01 	andeq	r6, r0, r1, lsl #26
    420c:	752c0000 	strvc	r0, [ip, #-0]!
    4210:	01060100 	mrseq	r0, (UNDEF: 22)
    4214:	000016d7 	ldrdeq	r1, [r0], -r7
    4218:	93943200 	orrsls	r3, r4, #0, 4
    421c:	1b140000 	blne	504224 <__bss_end__+0x4f853c>
    4220:	c8320000 	ldmdagt	r2!, {}	; <UNPREDICTABLE>
    4224:	35000093 	strcc	r0, [r0, #-147]	; 0x93
    4228:	3300001b 	movwcc	r0, #27
    422c:	000093dc 	ldrdeq	r9, [r0], -ip
    4230:	00001b40 	andeq	r1, r0, r0, asr #22
    4234:	00001746 	andeq	r1, r0, r6, asr #14
    4238:	05500134 	ldrbeq	r0, [r0, #-308]	; 0x134
    423c:	00b2f403 	adcseq	pc, r2, r3, lsl #8
    4240:	51013400 	tstpl	r1, r0, lsl #8
    4244:	b1dc0305 	bicslt	r0, ip, r5, lsl #6
    4248:	01340000 	teqeq	r4, r0
    424c:	ac030552 	cfstr32ge	mvfx0, [r3], {82}	; 0x52
    4250:	340000b1 	strcc	r0, [r0], #-177	; 0xb1
    4254:	08025301 	stmdaeq	r2, {r0, r8, r9, ip, lr}
    4258:	e03200f3 	ldrsht	r0, [r2], -r3
    425c:	4b000093 	blmi	44b0 <_start-0x3b50>
    4260:	3200001b 	andcc	r0, r0, #27
    4264:	000093e4 	andeq	r9, r0, r4, ror #7
    4268:	00001b35 	andeq	r1, r0, r5, lsr fp
    426c:	0093f833 	addseq	pc, r3, r3, lsr r8	; <UNPREDICTABLE>
    4270:	001b4000 	andseq	r4, fp, r0
    4274:	00178700 	andseq	r8, r7, r0, lsl #14
    4278:	50013400 	andpl	r3, r1, r0, lsl #8
    427c:	b2d00305 	sbcslt	r0, r0, #335544320	; 0x14000000
    4280:	01340000 	teqeq	r4, r0
    4284:	dc030551 	cfstr32le	mvfx0, [r3], {81}	; 0x51
    4288:	340000b1 	strcc	r0, [r0], #-177	; 0xb1
    428c:	03055201 	movweq	r5, #20993	; 0x5201
    4290:	0000b1ac 	andeq	fp, r0, ip, lsr #3
    4294:	02530134 	subseq	r0, r3, #52, 2
    4298:	3200f308 	andcc	pc, r0, #8, 6	; 0x20000000
    429c:	000093fc 	strdeq	r9, [r0], -ip
    42a0:	00001b4b 	andeq	r1, r0, fp, asr #22
    42a4:	00941032 	addseq	r1, r4, r2, lsr r0
    42a8:	00195800 	andseq	r5, r9, r0, lsl #16
    42ac:	94243300 	strtls	r3, [r4], #-768	; 0x300
    42b0:	1b2a0000 	blne	a842b8 <__bss_end__+0xa785d0>
    42b4:	17b60000 	ldrne	r0, [r6, r0]!
    42b8:	01340000 	teqeq	r4, r0
    42bc:	0c0c0550 	cfstr32eq	mvfx0, [ip], {80}	; 0x50
    42c0:	34208040 	strtcc	r8, [r0], #-64	; 0x40
    42c4:	76025101 	strvc	r5, [r2], -r1, lsl #2
    42c8:	38330000 	ldmdacc	r3!, {}	; <UNPREDICTABLE>
    42cc:	2a000094 	bcs	4524 <_start-0x3adc>
    42d0:	d300001b 	movwle	r0, #27
    42d4:	34000017 	strcc	r0, [r0], #-23
    42d8:	0c055001 	stceq	0, cr5, [r5], {1}
    42dc:	20804008 	addcs	r4, r0, r8
    42e0:	02510134 	subseq	r0, r1, #52, 2
    42e4:	33000075 	movwcc	r0, #117	; 0x75
    42e8:	00009444 	andeq	r9, r0, r4, asr #8
    42ec:	00001a71 	andeq	r1, r0, r1, ror sl
    42f0:	000017e7 	andeq	r1, r0, r7, ror #15
    42f4:	02500134 	subseq	r0, r0, #52, 2
    42f8:	33000075 	movwcc	r0, #117	; 0x75
    42fc:	0000945c 	andeq	r9, r0, ip, asr r4
    4300:	00001b2a 	andeq	r1, r0, sl, lsr #22
    4304:	000017fb 	strdeq	r1, [r0], -fp
    4308:	02500134 	subseq	r0, r0, #52, 2
    430c:	32000075 	andcc	r0, r0, #117	; 0x75
    4310:	00009490 	muleq	r0, r0, r4
    4314:	00001b35 	andeq	r1, r0, r5, lsr fp
    4318:	0094a433 	addseq	sl, r4, r3, lsr r4
    431c:	001b4000 	andseq	r4, fp, r0
    4320:	00183400 	andseq	r3, r8, r0, lsl #8
    4324:	50013400 	andpl	r3, r1, r0, lsl #8
    4328:	b2f40305 	rscslt	r0, r4, #335544320	; 0x14000000
    432c:	01340000 	teqeq	r4, r0
    4330:	dc030551 	cfstr32le	mvfx0, [r3], {81}	; 0x51
    4334:	340000b1 	strcc	r0, [r0], #-177	; 0xb1
    4338:	03055201 	movweq	r5, #20993	; 0x5201
    433c:	0000b1ac 	andeq	fp, r0, ip, lsr #3
    4340:	03530134 	cmpeq	r3, #52, 2
    4344:	00010e0a 	andeq	r0, r1, sl, lsl #28
    4348:	0094a832 	addseq	sl, r4, r2, lsr r8
    434c:	001b4b00 	andseq	r4, fp, r0, lsl #22
    4350:	94ac3200 	strtls	r3, [ip], #512	; 0x200
    4354:	1b350000 	blne	d4435c <__bss_end__+0xd38674>
    4358:	c0330000 	eorsgt	r0, r3, r0
    435c:	40000094 	mulmi	r0, r4, r0
    4360:	7500001b 	strvc	r0, [r0, #-27]
    4364:	34000018 	strcc	r0, [r0], #-24
    4368:	03055001 	movweq	r5, #20481	; 0x5001
    436c:	0000b36c 	andeq	fp, r0, ip, ror #6
    4370:	05510134 	ldrbeq	r0, [r1, #-308]	; 0x134
    4374:	00b1dc03 	adcseq	sp, r1, r3, lsl #24
    4378:	52013400 	andpl	r3, r1, #0, 8
    437c:	b1ac0305 			; <UNDEFINED> instruction: 0xb1ac0305
    4380:	01340000 	teqeq	r4, r0
    4384:	f6080253 			; <UNDEFINED> instruction: 0xf6080253
    4388:	94c43200 	strbls	r3, [r4], #512	; 0x200
    438c:	1b4b0000 	blne	12c4394 <__bss_end__+0x12b86ac>
    4390:	c8320000 	ldmdagt	r2!, {}	; <UNPREDICTABLE>
    4394:	35000094 	strcc	r0, [r0, #-148]	; 0x94
    4398:	3300001b 	movwcc	r0, #27
    439c:	000094dc 	ldrdeq	r9, [r0], -ip
    43a0:	00001b40 	andeq	r1, r0, r0, asr #22
    43a4:	000018b6 			; <UNDEFINED> instruction: 0x000018b6
    43a8:	05500134 	ldrbeq	r0, [r0, #-308]	; 0x134
    43ac:	00b39403 	adcseq	r9, r3, r3, lsl #8
    43b0:	51013400 	tstpl	r1, r0, lsl #8
    43b4:	b1dc0305 	bicslt	r0, ip, r5, lsl #6
    43b8:	01340000 	teqeq	r4, r0
    43bc:	ac030552 	cfstr32ge	mvfx0, [r3], {82}	; 0x52
    43c0:	340000b1 	strcc	r0, [r0], #-177	; 0xb1
    43c4:	08025301 	stmdaeq	r2, {r0, r8, r9, ip, lr}
    43c8:	e03200fb 	ldrsht	r0, [r2], -fp
    43cc:	4b000094 	blmi	4624 <_start-0x39dc>
    43d0:	3200001b 	andcc	r0, r0, #27
    43d4:	000094e4 	andeq	r9, r0, r4, ror #9
    43d8:	00001b35 	andeq	r1, r0, r5, lsr fp
    43dc:	0094f833 	addseq	pc, r4, r3, lsr r8	; <UNPREDICTABLE>
    43e0:	001b4000 	andseq	r4, fp, r0
    43e4:	0018f700 	andseq	pc, r8, r0, lsl #14
    43e8:	50013400 	andpl	r3, r1, r0, lsl #8
    43ec:	b3b80305 			; <UNDEFINED> instruction: 0xb3b80305
    43f0:	01340000 	teqeq	r4, r0
    43f4:	dc030551 	cfstr32le	mvfx0, [r3], {81}	; 0x51
    43f8:	340000b1 	strcc	r0, [r0], #-177	; 0xb1
    43fc:	03055201 	movweq	r5, #20993	; 0x5201
    4400:	0000b1ac 	andeq	fp, r0, ip, lsr #3
    4404:	02530134 	subseq	r0, r3, #52, 2
    4408:	3200ff08 	andcc	pc, r0, #8, 30
    440c:	000094fc 	strdeq	r9, [r0], -ip
    4410:	00001b4b 	andeq	r1, r0, fp, asr #22
    4414:	00950032 	addseq	r0, r5, r2, lsr r0
    4418:	001b3500 	andseq	r3, fp, r0, lsl #10
    441c:	95143300 	ldrls	r3, [r4, #-768]	; 0x300
    4420:	1b400000 	blne	1004428 <__bss_end__+0xff8740>
    4424:	19390000 	ldmdbne	r9!, {}	; <UNPREDICTABLE>
    4428:	01340000 	teqeq	r4, r0
    442c:	d0030550 	andle	r0, r3, r0, asr r5
    4430:	340000b2 	strcc	r0, [r0], #-178	; 0xb2
    4434:	03055101 	movweq	r5, #20737	; 0x5101
    4438:	0000b1dc 	ldrdeq	fp, [r0], -ip
    443c:	05520134 	ldrbeq	r0, [r2, #-308]	; 0x134
    4440:	00b1ac03 	adcseq	sl, r1, r3, lsl #24
    4444:	53013400 	movwpl	r3, #5120	; 0x1400
    4448:	010e0a03 	tsteq	lr, r3, lsl #20
    444c:	95183200 	ldrls	r3, [r8, #-512]	; 0x200
    4450:	1b4b0000 	blne	12c4458 <__bss_end__+0x12b8770>
    4454:	09000000 	stmdbeq	r0, {}	; <UNPREDICTABLE>
    4458:	0000012f 	andeq	r0, r0, pc, lsr #2
    445c:	00001953 	andeq	r1, r0, r3, asr r9
    4460:	0000e20a 	andeq	lr, r0, sl, lsl #4
    4464:	04000a00 	streq	r0, [r0], #-2560	; 0xa00
    4468:	00001943 	andeq	r1, r0, r3, asr #18
    446c:	000e7d3a 	andeq	r7, lr, sl, lsr sp
    4470:	48e40100 	stmiami	r4!, {r8}^
    4474:	28000093 	stmdacs	r0, {r0, r1, r4, r7}
    4478:	01000000 	mrseq	r0, (UNDEF: 0)
    447c:	0019ce9c 	mulseq	r9, ip, lr
    4480:	00733c00 	rsbseq	r3, r3, r0, lsl #24
    4484:	0a80e501 	beq	fe03d890 <__bss_end__+0xfe031ba8>
    4488:	11600000 	cmnne	r0, r0
    448c:	a9290000 	stmdbge	r9!, {}	; <UNPREDICTABLE>
    4490:	3d000019 	stccc	0, cr0, [r0, #-100]	; 0xffffff9c
    4494:	0400755f 	streq	r7, [r0], #-1375	; 0x55f
    4498:	199fec01 	ldmibne	pc, {r0, sl, fp, sp, lr, pc}	; <UNPREDICTABLE>
    449c:	763e0000 	ldrtvc	r0, [lr], -r0
    44a0:	ec010076 	stc	0, cr0, [r1], {118}	; 0x76
    44a4:	00000a80 	andeq	r0, r0, r0, lsl #21
    44a8:	0075753e 	rsbseq	r7, r5, lr, lsr r5
    44ac:	006dec01 	rsbeq	lr, sp, r1, lsl #24
    44b0:	25000000 	strcs	r0, [r0, #-0]
    44b4:	ec010075 	stc	0, cr0, [r1], {117}	; 0x75
    44b8:	0000197f 	andeq	r1, r0, pc, ror r9
    44bc:	93583300 	cmpls	r8, #0, 6
    44c0:	19ce0000 	stmibne	lr, {}^	; <UNPREDICTABLE>
    44c4:	19bd0000 	ldmibne	sp!, {}	; <UNPREDICTABLE>
    44c8:	01340000 	teqeq	r4, r0
    44cc:	00740250 	rsbseq	r0, r4, r0, asr r2
    44d0:	93683f00 	cmnls	r8, #0, 30
    44d4:	1b2a0000 	blne	a844dc <__bss_end__+0xa787f4>
    44d8:	01340000 	teqeq	r4, r0
    44dc:	00740250 	rsbseq	r0, r4, r0, asr r2
    44e0:	22400000 	subcs	r0, r0, #0
    44e4:	0100000e 	tsteq	r0, lr
    44e8:	000a80b5 	strheq	r8, [sl], -r5
    44ec:	00933800 	addseq	r3, r3, r0, lsl #16
    44f0:	00001000 	andeq	r1, r0, r0
    44f4:	449c0100 	ldrmi	r0, [ip], #256	; 0x100
    44f8:	4100001a 	tstmi	r0, sl, lsl r0
    44fc:	b5010073 	strlt	r0, [r1, #-115]	; 0x73
    4500:	00001a44 	andeq	r1, r0, r4, asr #20
    4504:	00001173 	andeq	r1, r0, r3, ror r1
    4508:	00933c38 	addseq	r3, r3, r8, lsr ip
    450c:	00000400 	andeq	r0, r0, r0, lsl #8
    4510:	001a3a00 	andseq	r3, sl, r0, lsl #20
    4514:	755f3d00 	ldrbvc	r3, [pc, #-3328]	; 381c <_start-0x47e4>
    4518:	b6010400 	strlt	r0, [r1], -r0, lsl #8
    451c:	00001a1f 	andeq	r1, r0, pc, lsl sl
    4520:	0100763e 	tsteq	r0, lr, lsr r6
    4524:	000a8bb6 			; <UNDEFINED> instruction: 0x000a8bb6
    4528:	00753e00 	rsbseq	r3, r5, r0, lsl #28
    452c:	002cb601 	eoreq	fp, ip, r1, lsl #12
    4530:	25000000 	strcs	r0, [r0, #-0]
    4534:	b6010075 			; <UNDEFINED> instruction: 0xb6010075
    4538:	00001a01 	andeq	r1, r0, r1, lsl #20
    453c:	0093403f 	addseq	r4, r3, pc, lsr r0
    4540:	001b5600 	andseq	r5, fp, r0, lsl #12
    4544:	50013400 	andpl	r3, r1, r0, lsl #8
    4548:	5001f303 	andpl	pc, r1, r3, lsl #6
    454c:	44320000 	ldrtmi	r0, [r2], #-0
    4550:	4a000093 	bmi	47a4 <_start-0x385c>
    4554:	0000001a 	andeq	r0, r0, sl, lsl r0
    4558:	0a8b040e 	beq	fe2c5598 <__bss_end__+0xfe2b98b0>
    455c:	a1400000 	mrsge	r0, (UNDEF: 64)
    4560:	01000011 	tsteq	r0, r1, lsl r0
    4564:	000a80b1 	strheq	r8, [sl], -r1
    4568:	00923400 	addseq	r3, r2, r0, lsl #8
    456c:	00000c00 	andeq	r0, r0, r0, lsl #24
    4570:	719c0100 	orrsvc	r0, ip, r0, lsl #2
    4574:	4100001a 	tstmi	r0, sl, lsl r0
    4578:	b1010073 	tstlt	r1, r3, ror r0
    457c:	00000a80 	andeq	r0, r0, r0, lsl #21
    4580:	00001194 	muleq	r0, r4, r1
    4584:	0dd84000 	ldcleq	0, cr4, [r8]
    4588:	7b010000 	blvc	44590 <__bss_end__+0x388a8>
    458c:	000009c3 	andeq	r0, r0, r3, asr #19
    4590:	00009370 	andeq	r9, r0, r0, ror r3
    4594:	00000010 	andeq	r0, r0, r0, lsl r0
    4598:	1ae79c01 	bne	ff9eb5a4 <__bss_end__+0xff9df8bc>
    459c:	63410000 	movtvs	r0, #4096	; 0x1000
    45a0:	e77b0100 	ldrb	r0, [fp, -r0, lsl #2]!
    45a4:	a700001a 	smladge	r0, sl, r0, r0
    45a8:	38000011 	stmdacc	r0, {r0, r4}
    45ac:	00009374 	andeq	r9, r0, r4, ror r3
    45b0:	00000004 	andeq	r0, r0, r4
    45b4:	00001add 	ldrdeq	r1, [r0], -sp
    45b8:	00755f3d 	rsbseq	r5, r5, sp, lsr pc
    45bc:	c27c0104 	rsbsgt	r0, ip, #4, 2
    45c0:	3e00001a 	mcrcc	0, 0, r0, cr0, cr10, {0}
    45c4:	7c010076 	stcvc	0, cr0, [r1], {118}	; 0x76
    45c8:	000009ce 	andeq	r0, r0, lr, asr #19
    45cc:	0100753e 	tsteq	r0, lr, lsr r5
    45d0:	00002c7c 	andeq	r2, r0, ip, ror ip
    45d4:	75250000 	strvc	r0, [r5, #-0]!
    45d8:	a47c0100 	ldrbtge	r0, [ip], #-256	; 0x100
    45dc:	3f00001a 	svccc	0x0000001a
    45e0:	00009378 	andeq	r9, r0, r8, ror r3
    45e4:	00001b56 	andeq	r1, r0, r6, asr fp
    45e8:	03500134 	cmpeq	r0, #52, 2
    45ec:	005001f3 	ldrsheq	r0, [r0], #-19	; 0xffffffed
    45f0:	937c3200 	cmnls	ip, #0, 4
    45f4:	1aed0000 	bne	ffb445fc <__bss_end__+0xffb38914>
    45f8:	0e000000 	cdpeq	0, 0, cr0, cr0, cr0, {0}
    45fc:	0009ce04 	andeq	ip, r9, r4, lsl #28
    4600:	112e4000 	teqne	lr, r0
    4604:	74010000 	strvc	r0, [r1], #-0
    4608:	000009c3 	andeq	r0, r0, r3, asr #19
    460c:	00009220 	andeq	r9, r0, r0, lsr #4
    4610:	00000014 	andeq	r0, r0, r4, lsl r0
    4614:	1b149c01 	blne	52b620 <__bss_end__+0x51f938>
    4618:	63410000 	movtvs	r0, #4096	; 0x1000
    461c:	c3740100 	cmngt	r4, #0, 2
    4620:	c8000009 	stmdagt	r0, {r0, r3}
    4624:	00000011 	andeq	r0, r0, r1, lsl r0
    4628:	00060942 	andeq	r0, r6, r2, asr #18
    462c:	00060900 	andeq	r0, r6, r0, lsl #18
    4630:	42890700 	addmi	r0, r9, #0, 14
    4634:	00000d33 	andeq	r0, r0, r3, lsr sp
    4638:	00000d33 	andeq	r0, r0, r3, lsr sp
    463c:	2d421908 	stclcs	9, cr1, [r2, #-32]	; 0xffffffe0
    4640:	2d000010 	stccs	0, cr0, [r0, #-64]	; 0xffffffc0
    4644:	07000010 	smladeq	r0, r0, r0, r0
    4648:	0010429c 	mulseq	r0, ip, r2
    464c:	00100000 	andseq	r0, r0, r0
    4650:	1e070000 	cdpne	0, 0, cr0, cr7, cr0, {0}
    4654:	00124d42 	andseq	r4, r2, r2, asr #26
    4658:	00124d00 	andseq	r4, r2, r0, lsl #26
    465c:	42290700 	eormi	r0, r9, #0, 14
    4660:	000005f3 	strdeq	r0, [r0], -r3
    4664:	000005f3 	strdeq	r0, [r0], -r3
    4668:	0f426507 	svceq	0x00426507
    466c:	0f000011 	svceq	0x00000011
    4670:	07000011 	smladeq	r0, r1, r0, r0
    4674:	019100a8 	orrseq	r0, r1, r8, lsr #1
    4678:	00040000 	andeq	r0, r4, r0
    467c:	00000ad6 	ldrdeq	r0, [r0], -r6
    4680:	11f30104 	mvnsne	r0, r4, lsl #2
    4684:	e5010000 	str	r0, [r1, #-0]
    4688:	5e000011 	mcrpl	0, 0, r0, cr0, cr1, {0}
    468c:	88000012 	stmdahi	r0, {r1, r4}
    4690:	58000097 	stmdapl	r0, {r0, r1, r2, r4, r7}
    4694:	91000000 	mrsls	r0, (UNDEF: 0)
    4698:	02000008 	andeq	r0, r0, #8
    469c:	000011d6 	ldrdeq	r1, [r0], -r6
    46a0:	00302802 	eorseq	r2, r0, r2, lsl #16
    46a4:	54030000 	strpl	r0, [r3], #-0
    46a8:	04000012 	streq	r0, [r0], #-18
    46ac:	00470003 	subeq	r0, r7, r3
    46b0:	a2040000 	andge	r0, r4, #0
    46b4:	47000012 	smladmi	r0, r2, r0, r0
    46b8:	00000000 	andeq	r0, r0, r0
    46bc:	02040500 	andeq	r0, r4, #0, 10
    46c0:	00001256 	andeq	r1, r0, r6, asr r2
    46c4:	00256202 	eoreq	r6, r5, r2, lsl #4
    46c8:	04060000 	streq	r0, [r6], #-0
    46cc:	746e6905 	strbtvc	r6, [lr], #-2309	; 0x905
    46d0:	07040700 	streq	r0, [r4, -r0, lsl #14]
    46d4:	0000024a 	andeq	r0, r0, sl, asr #4
    46d8:	ee060107 	adfs	f0, f6, f7
    46dc:	07000007 	streq	r0, [r0, -r7]
    46e0:	06440502 	strbeq	r0, [r4], -r2, lsl #10
    46e4:	04070000 	streq	r0, [r7], #-0
    46e8:	00043e05 	andeq	r3, r4, r5, lsl #28
    46ec:	05080700 	streq	r0, [r8, #-1792]	; 0x700
    46f0:	00000439 	andeq	r0, r0, r9, lsr r4
    46f4:	ec080107 	stfs	f0, [r8], {7}
    46f8:	07000007 	streq	r0, [r0, -r7]
    46fc:	08ac0702 	stmiaeq	ip!, {r1, r8, r9, sl}
    4700:	04070000 	streq	r0, [r7], #-0
    4704:	00024507 	andeq	r4, r2, r7, lsl #10
    4708:	07080700 	streq	r0, [r8, -r0, lsl #14]
    470c:	00000240 	andeq	r0, r0, r0, asr #4
    4710:	85070407 	strhi	r0, [r7, #-1031]	; 0x407
    4714:	08000007 	stmdaeq	r0, {r0, r1, r2}
    4718:	0000a704 	andeq	sl, r0, r4, lsl #14
    471c:	08010700 	stmdaeq	r1, {r8, r9, sl}
    4720:	000007f5 	strdeq	r0, [r0], -r5
    4724:	00b40408 	adcseq	r0, r4, r8, lsl #8
    4728:	a7090000 	strge	r0, [r9, -r0]
    472c:	0a000000 	beq	4734 <_start-0x38cc>
    4730:	0000124d 	andeq	r1, r0, sp, asr #4
    4734:	00540601 	subseq	r0, r4, r1, lsl #12
    4738:	97880000 	strls	r0, [r8, r0]
    473c:	00580000 	subseq	r0, r8, r0
    4740:	9c010000 	stcls	0, cr0, [r1], {-0}
    4744:	00000143 	andeq	r0, r0, r3, asr #2
    4748:	746d660b 	strbtvc	r6, [sp], #-1547	; 0x60b
    474c:	ae060100 	adfges	f0, f6, f0
    4750:	02000000 	andeq	r0, r0, #0
    4754:	0d0c7091 	stceq	0, cr7, [ip, #-580]	; 0xfffffdbc
    4758:	00667562 	rsbeq	r7, r6, r2, ror #10
    475c:	01430801 	cmpeq	r3, r1, lsl #16
    4760:	03050000 	movweq	r0, #20480	; 0x5000
    4764:	0000b8d8 	ldrdeq	fp, [r0], -r8
    4768:	000d100e 	andeq	r1, sp, lr
    476c:	49090100 	stmdbmi	r9, {r8}
    4770:	02000000 	andeq	r0, r0, #0
    4774:	730f5c91 	movwvc	r5, #64657	; 0xfc91
    4778:	0c01007a 	stceq	0, cr0, [r1], {122}	; 0x7a
    477c:	00000054 	andeq	r0, r0, r4, asr r0
    4780:	000011e6 	andeq	r1, r0, r6, ror #3
    4784:	0097b010 	addseq	fp, r7, r0, lsl r0
    4788:	00017400 	andeq	r7, r1, r0, lsl #8
    478c:	00013600 	andeq	r3, r1, r0, lsl #12
    4790:	53011100 	movwpl	r1, #4352	; 0x1100
    4794:	114c9102 	cmpne	ip, r2, lsl #2
    4798:	91035201 	tstls	r3, r1, lsl #4
    479c:	01110648 	tsteq	r1, r8, asr #12
    47a0:	000a0351 	andeq	r0, sl, r1, asr r3
    47a4:	50011104 	andpl	r1, r1, r4, lsl #2
    47a8:	00007402 	andeq	r7, r0, r2, lsl #8
    47ac:	0097c412 	addseq	ip, r7, r2, lsl r4
    47b0:	50011100 	andpl	r1, r1, r0, lsl #2
    47b4:	00007402 	andeq	r7, r0, r2, lsl #8
    47b8:	00a71300 	adceq	r1, r7, r0, lsl #6
    47bc:	01540000 	cmpeq	r4, r0
    47c0:	9a140000 	bls	5047c8 <__bss_end__+0x4f8ae0>
    47c4:	ff000000 			; <UNDEFINED> instruction: 0xff000000
    47c8:	54150003 	ldrpl	r0, [r5], #-3
    47cc:	63000000 	movwvs	r0, #0
    47d0:	16000001 	strne	r0, [r0], -r1
    47d4:	000000ae 	andeq	r0, r0, lr, lsr #1
    47d8:	12f31700 	rscsne	r1, r3, #0, 14
    47dc:	22040000 	andcs	r0, r4, #0
    47e0:	0000016e 	andeq	r0, r0, lr, ror #2
    47e4:	01540408 	cmpeq	r4, r8, lsl #8
    47e8:	4a180000 	bmi	6047f0 <__bss_end__+0x5f8b08>
    47ec:	05000012 	streq	r0, [r0, #-18]
    47f0:	00005402 	andeq	r5, r0, r2, lsl #8
    47f4:	00a11600 	adceq	r1, r1, r0, lsl #12
    47f8:	54160000 	ldrpl	r0, [r6], #-0
    47fc:	16000000 	strne	r0, [r0], -r0
    4800:	000000ae 	andeq	r0, r0, lr, lsr #1
    4804:	00004916 	andeq	r4, r0, r6, lsl r9
    4808:	13000000 	movwne	r0, #0
    480c:	04000001 	streq	r0, [r0], #-1
    4810:	000c0700 	andeq	r0, ip, r0, lsl #14
    4814:	f3010400 	vshl.u8	d0, d0, d1
    4818:	01000011 	tsteq	r0, r1, lsl r0
    481c:	000012c2 	andeq	r1, r0, r2, asr #5
    4820:	0000125e 	andeq	r1, r0, lr, asr r2
    4824:	000097e0 	andeq	r9, r0, r0, ror #15
    4828:	0000003c 	andeq	r0, r0, ip, lsr r0
    482c:	00000997 	muleq	r0, r7, r9
    4830:	69050402 	stmdbvs	r5, {r1, sl}
    4834:	0300746e 	movweq	r7, #1134	; 0x46e
    4838:	024a0704 	subeq	r0, sl, #4, 14	; 0x100000
    483c:	01030000 	mrseq	r0, (UNDEF: 3)
    4840:	0007ee06 	andeq	lr, r7, r6, lsl #28
    4844:	05020300 	streq	r0, [r2, #-768]	; 0x300
    4848:	00000644 	andeq	r0, r0, r4, asr #12
    484c:	3e050403 	cdpcc	4, 0, cr0, cr5, cr3, {0}
    4850:	03000004 	movweq	r0, #4
    4854:	04390508 	ldrteq	r0, [r9], #-1288	; 0x508
    4858:	01030000 	mrseq	r0, (UNDEF: 3)
    485c:	0007ec08 	andeq	lr, r7, r8, lsl #24
    4860:	07020300 	streq	r0, [r2, -r0, lsl #6]
    4864:	000008ac 	andeq	r0, r0, ip, lsr #17
    4868:	45070403 	strmi	r0, [r7, #-1027]	; 0x403
    486c:	03000002 	movweq	r0, #2
    4870:	02400708 	subeq	r0, r0, #8, 14	; 0x200000
    4874:	04030000 	streq	r0, [r3], #-0
    4878:	00078507 	andeq	r8, r7, r7, lsl #10
    487c:	08010300 	stmdaeq	r1, {r8, r9}
    4880:	000007f5 	strdeq	r0, [r0], -r5
    4884:	0012b104 	andseq	fp, r2, r4, lsl #2
    4888:	25030100 	strcs	r0, [r3, #-256]	; 0x100
    488c:	e0000000 	and	r0, r0, r0
    4890:	14000097 	strne	r0, [r0], #-151	; 0x97
    4894:	01000000 	mrseq	r0, (UNDEF: 0)
    4898:	0000b09c 	muleq	r0, ip, r0
    489c:	00630500 	rsbeq	r0, r3, r0, lsl #10
    48a0:	00250301 	eoreq	r0, r5, r1, lsl #6
    48a4:	120f0000 	andne	r0, pc, #0
    48a8:	ec060000 	stc	0, cr0, [r6], {-0}
    48ac:	09000097 	stmdbeq	r0, {r0, r1, r2, r4, r7}
    48b0:	07000001 	streq	r0, [r0, -r1]
    48b4:	74025001 	strvc	r5, [r2], #-1
    48b8:	08000000 	stmdaeq	r0, {}	; <UNPREDICTABLE>
    48bc:	00000010 	andeq	r0, r0, r0, lsl r0
    48c0:	97f40801 	ldrbls	r0, [r4, r1, lsl #16]!
    48c4:	00180000 	andseq	r0, r8, r0
    48c8:	9c010000 	stcls	0, cr0, [r1], {-0}
    48cc:	0012d109 	andseq	sp, r2, r9, lsl #2
    48d0:	0c0b0100 	stfeqs	f0, [fp], {-0}
    48d4:	10000098 	mulne	r0, r8, r0
    48d8:	01000000 	mrseq	r0, (UNDEF: 0)
    48dc:	0000e39c 	muleq	r0, ip, r3
    48e0:	70660a00 	rsbvc	r0, r6, r0, lsl #20
    48e4:	f20b0100 	vrhadd.s8	d0, d11, d0
    48e8:	01000000 	mrseq	r0, (UNDEF: 0)
    48ec:	250b0050 	strcs	r0, [fp, #-80]	; 0x50
    48f0:	f2000000 	vhadd.s8	d0, d0, d0
    48f4:	0c000000 	stceq	0, cr0, [r0], {-0}
    48f8:	00000025 	andeq	r0, r0, r5, lsr #32
    48fc:	e3040d00 	movw	r0, #19712	; 0x4d00
    4900:	0e000000 	cdpeq	0, 0, cr0, cr0, cr0, {0}
    4904:	00000e11 	andeq	r0, r0, r1, lsl lr
    4908:	00f20601 	rscseq	r0, r2, r1, lsl #12
    490c:	03050000 	movweq	r0, #20480	; 0x5000
    4910:	0000ab08 	andeq	sl, r0, r8, lsl #22
    4914:	0012a70f 	andseq	sl, r2, pc, lsl #14
    4918:	0c3c0200 	lfmeq	f0, 4, [ip], #-0
    491c:	0000002c 	andeq	r0, r0, ip, lsr #32
    4920:	00ee0000 	rsceq	r0, lr, r0
    4924:	00040000 	andeq	r0, r4, r0
    4928:	00000cef 	andeq	r0, r0, pc, ror #25
    492c:	11f30104 	mvnsne	r0, r4, lsl #2
    4930:	de010000 	cdple	0, 0, cr0, cr1, cr0, {0}
    4934:	5e000012 	mcrpl	0, 0, r0, cr0, cr2, {0}
    4938:	1c000012 	stcne	0, cr0, [r0], {18}
    493c:	34000098 	strcc	r0, [r0], #-152	; 0x98
    4940:	25000000 	strcs	r0, [r0, #-0]
    4944:	0200000a 	andeq	r0, r0, #10
    4948:	6e690504 	cdpvs	5, 6, cr0, cr9, cr4, {0}
    494c:	04030074 	streq	r0, [r3], #-116	; 0x74
    4950:	00024a07 	andeq	r4, r2, r7, lsl #20
    4954:	06010300 	streq	r0, [r1], -r0, lsl #6
    4958:	000007ee 	andeq	r0, r0, lr, ror #15
    495c:	44050203 	strmi	r0, [r5], #-515	; 0x203
    4960:	03000006 	movweq	r0, #6
    4964:	043e0504 	ldrteq	r0, [lr], #-1284	; 0x504
    4968:	08030000 	stmdaeq	r3, {}	; <UNPREDICTABLE>
    496c:	00043905 	andeq	r3, r4, r5, lsl #18
    4970:	08010300 	stmdaeq	r1, {r8, r9}
    4974:	000007ec 	andeq	r0, r0, ip, ror #15
    4978:	ac070203 	sfmge	f0, 4, [r7], {3}
    497c:	03000008 	movweq	r0, #8
    4980:	02450704 	subeq	r0, r5, #4, 14	; 0x100000
    4984:	08030000 	stmdaeq	r3, {}	; <UNPREDICTABLE>
    4988:	00024007 	andeq	r4, r2, r7
    498c:	07040300 	streq	r0, [r4, -r0, lsl #6]
    4990:	00000785 	andeq	r0, r0, r5, lsl #15
    4994:	f5080103 			; <UNDEFINED> instruction: 0xf5080103
    4998:	04000007 	streq	r0, [r0], #-7
    499c:	00007f04 	andeq	r7, r0, r4, lsl #30
    49a0:	00720500 	rsbseq	r0, r2, r0, lsl #10
    49a4:	ea060000 	b	1849ac <__bss_end__+0x178cc4>
    49a8:	01000012 	tsteq	r0, r2, lsl r0
    49ac:	00002504 	andeq	r2, r0, r4, lsl #10
    49b0:	00981c00 	addseq	r1, r8, r0, lsl #24
    49b4:	00003400 	andeq	r3, r0, r0, lsl #8
    49b8:	ab9c0100 	blge	fe704dc0 <__bss_end__+0xfe6f90d8>
    49bc:	07000000 	streq	r0, [r0, -r0]
    49c0:	04010070 	streq	r0, [r1], #-112	; 0x70
    49c4:	00000079 	andeq	r0, r0, r9, ror r0
    49c8:	0000122d 	andeq	r1, r0, sp, lsr #4
    49cc:	00250800 	eoreq	r0, r5, r0, lsl #16
    49d0:	00ba0000 	adcseq	r0, sl, r0
    49d4:	25090000 	strcs	r0, [r9, #-0]
    49d8:	00000000 	andeq	r0, r0, r0
    49dc:	000e110a 	andeq	r1, lr, sl, lsl #2
    49e0:	c51d0200 	ldrgt	r0, [sp, #-512]	; 0x200
    49e4:	04000000 	streq	r0, [r0], #-0
    49e8:	0000ab04 	andeq	sl, r0, r4, lsl #22
    49ec:	00250800 	eoreq	r0, r5, r0, lsl #16
    49f0:	00da0000 	sbcseq	r0, sl, r0
    49f4:	79090000 	stmdbvc	r9, {}	; <UNPREDICTABLE>
    49f8:	00000000 	andeq	r0, r0, r0
    49fc:	0012f30b 	andseq	pc, r2, fp, lsl #6
    4a00:	eb0c0100 	bl	304e08 <__bss_end__+0x2f9120>
    4a04:	05000000 	streq	r0, [r0, #-0]
    4a08:	00ab0c03 	adceq	r0, fp, r3, lsl #24
    4a0c:	cb040400 	blgt	105a14 <__bss_end__+0xf9d2c>
    4a10:	00000000 	andeq	r0, r0, r0
    4a14:	00000681 	andeq	r0, r0, r1, lsl #13
    4a18:	0d880004 	stceq	0, cr0, [r8, #16]
    4a1c:	01040000 	mrseq	r0, (UNDEF: 4)
    4a20:	000011f3 	strdeq	r1, [r0], -r3
    4a24:	00131f01 	andseq	r1, r3, r1, lsl #30
    4a28:	00125e00 	andseq	r5, r2, r0, lsl #28
    4a2c:	00985000 	addseq	r5, r8, r0
    4a30:	0004f800 	andeq	pc, r4, r0, lsl #16
    4a34:	000abf00 	andeq	fp, sl, r0, lsl #30
    4a38:	05040200 	streq	r0, [r4, #-512]	; 0x200
    4a3c:	00746e69 	rsbseq	r6, r4, r9, ror #28
    4a40:	4a070403 	bmi	1c5a54 <__bss_end__+0x1b9d6c>
    4a44:	03000002 	movweq	r0, #2
    4a48:	07ee0601 	strbeq	r0, [lr, r1, lsl #12]!
    4a4c:	02030000 	andeq	r0, r3, #0
    4a50:	00064405 	andeq	r4, r6, r5, lsl #8
    4a54:	05040300 	streq	r0, [r4, #-768]	; 0x300
    4a58:	0000043e 	andeq	r0, r0, lr, lsr r4
    4a5c:	39050803 	stmdbcc	r5, {r0, r1, fp}
    4a60:	03000004 	movweq	r0, #4
    4a64:	07ec0801 	strbeq	r0, [ip, r1, lsl #16]!
    4a68:	02030000 	andeq	r0, r3, #0
    4a6c:	0008ac07 	andeq	sl, r8, r7, lsl #24
    4a70:	07040300 	streq	r0, [r4, -r0, lsl #6]
    4a74:	00000245 	andeq	r0, r0, r5, asr #4
    4a78:	40070803 	andmi	r0, r7, r3, lsl #16
    4a7c:	03000002 	movweq	r0, #2
    4a80:	07850704 	streq	r0, [r5, r4, lsl #14]
    4a84:	04040000 	streq	r0, [r4], #-0
    4a88:	007a0405 	rsbseq	r0, sl, r5, lsl #8
    4a8c:	01030000 	mrseq	r0, (UNDEF: 3)
    4a90:	0007f508 	andeq	pc, r7, r8, lsl #10
    4a94:	87040500 	strhi	r0, [r4, -r0, lsl #10]
    4a98:	06000000 	streq	r0, [r0], -r0
    4a9c:	0000007a 	andeq	r0, r0, sl, ror r0
    4aa0:	0011d607 	andseq	sp, r1, r7, lsl #12
    4aa4:	97280200 	strls	r0, [r8, -r0, lsl #4]!
    4aa8:	08000000 	stmdaeq	r0, {}	; <UNPREDICTABLE>
    4aac:	00001254 	andeq	r1, r0, r4, asr r2
    4ab0:	ae000404 	cdpge	4, 0, cr0, cr0, cr4, {0}
    4ab4:	09000000 	stmdbeq	r0, {}	; <UNPREDICTABLE>
    4ab8:	000012a2 	andeq	r1, r0, r2, lsr #5
    4abc:	00000072 	andeq	r0, r0, r2, ror r0
    4ac0:	56070000 	strpl	r0, [r7], -r0
    4ac4:	02000012 	andeq	r0, r0, #18
    4ac8:	00008c62 	andeq	r8, r0, r2, ror #24
    4acc:	13060a00 	movwne	r0, #27136	; 0x6a00
    4ad0:	27010000 	strcs	r0, [r1, -r0]
    4ad4:	00000025 	andeq	r0, r0, r5, lsr #32
    4ad8:	00009850 	andeq	r9, r0, r0, asr r8
    4adc:	00000014 	andeq	r0, r0, r4, lsl r0
    4ae0:	00e09c01 	rsceq	r9, r0, r1, lsl #24
    4ae4:	630b0000 	movwvs	r0, #45056	; 0xb000
    4ae8:	25270100 	strcs	r0, [r7, #-256]!	; 0x100
    4aec:	4b000000 	blmi	4af4 <_start-0x350c>
    4af0:	00000012 	andeq	r0, r0, r2, lsl r0
    4af4:	6461700c 	strbtvs	r7, [r1], #-12
    4af8:	742e0100 	strtvc	r0, [lr], #-256	; 0x100
    4afc:	64000000 	strvs	r0, [r0], #-0
    4b00:	2c000098 	stccs	0, cr0, [r0], {152}	; 0x98
    4b04:	01000000 	mrseq	r0, (UNDEF: 0)
    4b08:	0001309c 	muleq	r1, ip, r0
    4b0c:	00700b00 	rsbseq	r0, r0, r0, lsl #22
    4b10:	00742e01 	rsbseq	r2, r4, r1, lsl #28
    4b14:	12790000 	rsbsne	r0, r9, #0
    4b18:	e90d0000 	stmdb	sp, {}	; <UNPREDICTABLE>
    4b1c:	0100000c 	tsteq	r0, ip
    4b20:	0000742e 	andeq	r7, r0, lr, lsr #8
    4b24:	0012a400 	andseq	sl, r2, r0, lsl #8
    4b28:	133f0e00 	teqne	pc, #0, 28
    4b2c:	2e010000 	cdpcs	0, 0, cr0, cr1, cr0, {0}
    4b30:	00000025 	andeq	r0, r0, r5, lsr #32
    4b34:	6c0f5201 	sfmvs	f5, 4, [pc], {1}
    4b38:	01006e65 	tsteq	r0, r5, ror #28
    4b3c:	0000252f 	andeq	r2, r0, pc, lsr #10
    4b40:	00510100 	subseq	r0, r1, r0, lsl #2
    4b44:	0012fe0a 	andseq	pc, r2, sl, lsl #28
    4b48:	74370100 	ldrtvc	r0, [r7], #-256	; 0x100
    4b4c:	90000000 	andls	r0, r0, r0
    4b50:	40000098 	mulmi	r0, r8, r0
    4b54:	01000000 	mrseq	r0, (UNDEF: 0)
    4b58:	00019c9c 	muleq	r1, ip, ip
    4b5c:	73640b00 	cmnvc	r4, #0, 22
    4b60:	37010074 	smlsdxcc	r1, r4, r0, r0
    4b64:	00000074 	andeq	r0, r0, r4, ror r0
    4b68:	000012c5 	andeq	r1, r0, r5, asr #5
    4b6c:	01006e0b 	tsteq	r0, fp, lsl #28
    4b70:	00002537 	andeq	r2, r0, r7, lsr r5
    4b74:	0012fd00 	andseq	pc, r2, r0, lsl #26
    4b78:	00700b00 	rsbseq	r0, r0, r0, lsl #22
    4b7c:	00743701 	rsbseq	r3, r4, r1, lsl #14
    4b80:	131e0000 	tstne	lr, #0
    4b84:	630d0000 	movwvs	r0, #53248	; 0xd000
    4b88:	0100000b 	tsteq	r0, fp
    4b8c:	00007437 	andeq	r7, r0, r7, lsr r4
    4b90:	00135400 	andseq	r5, r3, r0, lsl #8
    4b94:	656c1000 	strbvs	r1, [ip, #-0]!
    4b98:	3901006e 	stmdbcc	r1, {r1, r2, r3, r5, r6}
    4b9c:	00000025 	andeq	r0, r0, r5, lsr #32
    4ba0:	00001372 	andeq	r1, r0, r2, ror r3
    4ba4:	0100730f 	tsteq	r0, pc, lsl #6
    4ba8:	0000743d 	andeq	r7, r0, sp, lsr r4
    4bac:	00500100 	subseq	r0, r0, r0, lsl #2
    4bb0:	00134d0a 	andseq	r4, r3, sl, lsl #26
    4bb4:	74470100 	strbvc	r0, [r7], #-256	; 0x100
    4bb8:	d0000000 	andle	r0, r0, r0
    4bbc:	9c000098 	stcls	0, cr0, [r0], {152}	; 0x98
    4bc0:	01000001 	tsteq	r0, r1
    4bc4:	0002d39c 	muleq	r2, ip, r3
    4bc8:	0ce90d00 	stcleq	13, cr0, [r9]
    4bcc:	47010000 	strmi	r0, [r1, -r0]
    4bd0:	0000002c 	andeq	r0, r0, ip, lsr #32
    4bd4:	00001399 	muleq	r0, r9, r3
    4bd8:	7473640b 	ldrbtvc	r6, [r3], #-1035	; 0x40b
    4bdc:	74470100 	strbvc	r0, [r7], #-256	; 0x100
    4be0:	c7000000 	strgt	r0, [r0, -r0]
    4be4:	0b000013 	bleq	4c38 <_start-0x33c8>
    4be8:	4701006e 	strmi	r0, [r1, -lr, rrx]
    4bec:	00000025 	andeq	r0, r0, r5, lsr #32
    4bf0:	00001435 	andeq	r1, r0, r5, lsr r4
    4bf4:	6c61760b 	stclvs	6, cr7, [r1], #-44	; 0xffffffd4
    4bf8:	25470100 	strbcs	r0, [r7, #-256]	; 0x100
    4bfc:	61000000 	mrsvs	r0, (UNDEF: 0)
    4c00:	0d000014 	stceq	0, cr0, [r0, #-80]	; 0xffffffb0
    4c04:	0000133f 	andeq	r1, r0, pc, lsr r3
    4c08:	00254701 	eoreq	r4, r5, r1, lsl #14
    4c0c:	14e00000 	strbtne	r0, [r0], #0
    4c10:	160e0000 	strne	r0, [lr], -r0
    4c14:	01000013 	tsteq	r0, r3, lsl r0
    4c18:	00002547 	andeq	r2, r0, r7, asr #10
    4c1c:	04910200 	ldreq	r0, [r1], #512	; 0x200
    4c20:	6675620f 	ldrbtvs	r6, [r5], -pc, lsl #4
    4c24:	d34c0100 	movtle	r0, #49408	; 0xc100
    4c28:	03000002 	movweq	r0, #2
    4c2c:	107fa891 			; <UNDEFINED> instruction: 0x107fa891
    4c30:	4c010070 	stcmi	0, cr0, [r1], {112}	; 0x70
    4c34:	00000074 	andeq	r0, r0, r4, ror r0
    4c38:	0000150a 	andeq	r1, r0, sl, lsl #10
    4c3c:	01007510 	tsteq	r0, r0, lsl r5
    4c40:	00002c4d 	andeq	r2, r0, sp, asr #24
    4c44:	0015af00 	andseq	sl, r5, r0, lsl #30
    4c48:	006c1100 	rsbeq	r1, ip, r0, lsl #2
    4c4c:	02f30000 	rscseq	r0, r3, #0
    4c50:	03050000 	movweq	r0, #20480	; 0x5000
    4c54:	0000b3e0 	andeq	fp, r0, r0, ror #7
    4c58:	00993c12 	addseq	r3, r9, r2, lsl ip
    4c5c:	00007400 	andeq	r7, r0, r0, lsl #8
    4c60:	00026100 	andeq	r6, r2, r0, lsl #2
    4c64:	12f81300 	rscsne	r1, r8, #0, 6
    4c68:	52010000 	andpl	r0, r1, #0
    4c6c:	0000002c 	andeq	r0, r0, ip, lsr #32
    4c70:	000016b4 			; <UNDEFINED> instruction: 0x000016b4
    4c74:	9a101400 	bls	409c7c <__bss_end__+0x3fdf94>
    4c78:	06600000 	strbteq	r0, [r0], -r0
    4c7c:	24150000 	ldrcs	r0, [r5], #-0
    4c80:	6700009a 			; <UNDEFINED> instruction: 0x6700009a
    4c84:	99000006 	stmdbls	r0, {r1, r2}
    4c88:	16000002 	strne	r0, [r0], -r2
    4c8c:	08025301 	stmdaeq	r2, {r0, r8, r9, ip, lr}
    4c90:	52011675 	andpl	r1, r1, #122683392	; 0x7500000
    4c94:	b3e00305 	mvnlt	r0, #335544320	; 0x14000000
    4c98:	01160000 	tsteq	r6, r0
    4c9c:	04030551 	streq	r0, [r3], #-1361	; 0x551
    4ca0:	160000b4 			; <UNDEFINED> instruction: 0x160000b4
    4ca4:	03055001 	movweq	r5, #20481	; 0x5001
    4ca8:	0000aec4 	andeq	sl, r0, r4, asr #29
    4cac:	9a281400 	bls	a09cb4 <__bss_end__+0x9fdfcc>
    4cb0:	067d0000 	ldrbteq	r0, [sp], -r0
    4cb4:	34150000 	ldrcc	r0, [r5], #-0
    4cb8:	e000009a 	mul	r0, sl, r0
    4cbc:	b6000000 	strlt	r0, [r0], -r0
    4cc0:	16000002 	strne	r0, [r0], -r2
    4cc4:	7d025101 	stfvcs	f5, [r2, #-4]
    4cc8:	48170000 	ldmdami	r7, {}	; <UNPREDICTABLE>
    4ccc:	3000009a 	mulcc	r0, sl, r0
    4cd0:	16000001 	strne	r0, [r0], -r1
    4cd4:	7d025301 	stcvc	3, cr5, [r2, #-4]
    4cd8:	51011600 	tstpl	r1, r0, lsl #12
    4cdc:	16007402 	strne	r7, [r0], -r2, lsl #8
    4ce0:	75025001 	strvc	r5, [r2, #-1]
    4ce4:	18000000 	stmdane	r0, {}	; <UNPREDICTABLE>
    4ce8:	0000007a 	andeq	r0, r0, sl, ror r0
    4cec:	000002e3 	andeq	r0, r0, r3, ror #5
    4cf0:	00006b19 	andeq	r6, r0, r9, lsl fp
    4cf4:	18003f00 	stmdane	r0, {r8, r9, sl, fp, ip, sp}
    4cf8:	0000007a 	andeq	r0, r0, sl, ror r0
    4cfc:	000002f3 	strdeq	r0, [r0], -r3
    4d00:	00006b19 	andeq	r6, r0, r9, lsl fp
    4d04:	06000400 	streq	r0, [r0], -r0, lsl #8
    4d08:	000002e3 	andeq	r0, r0, r3, ror #5
    4d0c:	0013301a 	andseq	r3, r3, sl, lsl r0
    4d10:	6c1f0100 	ldfvss	f0, [pc], {-0}
    4d14:	5400009a 	strpl	r0, [r0], #-154	; 0x9a
    4d18:	01000000 	mrseq	r0, (UNDEF: 0)
    4d1c:	00037c9c 	muleq	r3, ip, ip
    4d20:	13450d00 	movtne	r0, #23808	; 0x5d00
    4d24:	1f010000 	svcne	0x00010000
    4d28:	0000038b 	andeq	r0, r0, fp, lsl #7
    4d2c:	000016e0 	andeq	r1, r0, r0, ror #13
    4d30:	00130e0d 	andseq	r0, r3, sp, lsl #28
    4d34:	a01f0100 	andsge	r0, pc, r0, lsl #2
    4d38:	0c000003 	stceq	0, cr0, [r0], {3}
    4d3c:	11000017 	tstne	r0, r7, lsl r0
    4d40:	0000006c 	andeq	r0, r0, ip, rrx
    4d44:	000003b6 			; <UNDEFINED> instruction: 0x000003b6
    4d48:	b3e80305 	mvnlt	r0, #335544320	; 0x14000000
    4d4c:	7c140000 	ldcvc	0, cr0, [r4], {-0}
    4d50:	6000009a 	mulvs	r0, sl, r0
    4d54:	15000006 	strne	r0, [r0, #-6]
    4d58:	00009a90 	muleq	r0, r0, sl
    4d5c:	00000667 	andeq	r0, r0, r7, ror #12
    4d60:	00000372 	andeq	r0, r0, r2, ror r3
    4d64:	02530116 	subseq	r0, r3, #-2147483643	; 0x80000005
    4d68:	01162008 	tsteq	r6, r8
    4d6c:	e8030552 	stmda	r3, {r1, r4, r6, r8, sl}
    4d70:	160000b3 			; <UNDEFINED> instruction: 0x160000b3
    4d74:	03055101 	movweq	r5, #20737	; 0x5101
    4d78:	0000b404 	andeq	fp, r0, r4, lsl #8
    4d7c:	05500116 	ldrbeq	r0, [r0, #-278]	; 0x116
    4d80:	00b43c03 	adcseq	r3, r4, r3, lsl #24
    4d84:	94140000 	ldrls	r0, [r4], #-0
    4d88:	7d00009a 	stcvc	0, cr0, [r0, #-616]	; 0xfffffd98
    4d8c:	00000006 	andeq	r0, r0, r6
    4d90:	0000251b 	andeq	r2, r0, fp, lsl r5
    4d94:	00038b00 	andeq	r8, r3, r0, lsl #22
    4d98:	00251c00 	eoreq	r1, r5, r0, lsl #24
    4d9c:	05000000 	streq	r0, [r0, #-0]
    4da0:	00037c04 	andeq	r7, r3, r4, lsl #24
    4da4:	00251b00 	eoreq	r1, r5, r0, lsl #22
    4da8:	03a00000 	moveq	r0, #0
    4dac:	811c0000 	tsthi	ip, r0
    4db0:	00000000 	andeq	r0, r0, r0
    4db4:	03910405 	orrseq	r0, r1, #83886080	; 0x5000000
    4db8:	7a180000 	bvc	604dc0 <__bss_end__+0x5f90d8>
    4dbc:	b6000000 	strlt	r0, [r0], -r0
    4dc0:	19000003 	stmdbne	r0, {r0, r1}
    4dc4:	0000006b 	andeq	r0, r0, fp, rrx
    4dc8:	a606000e 	strge	r0, [r6], -lr
    4dcc:	1d000003 	stcne	0, cr0, [r0, #-12]
    4dd0:	0000124a 	andeq	r1, r0, sl, asr #4
    4dd4:	00257d01 	eoreq	r7, r5, r1, lsl #26
    4dd8:	9ac00000 	bls	ff004de0 <__bss_end__+0xfeff90f8>
    4ddc:	02880000 	addeq	r0, r8, #0
    4de0:	9c010000 	stcls	0, cr0, [r1], {-0}
    4de4:	00000625 	andeq	r0, r0, r5, lsr #12
    4de8:	6675620b 	ldrbtvs	r6, [r5], -fp, lsl #4
    4dec:	747d0100 	ldrbtvc	r0, [sp], #-256	; 0x100
    4df0:	38000000 	stmdacc	r0, {}	; <UNPREDICTABLE>
    4df4:	0b000017 	bleq	4e58 <_start-0x31a8>
    4df8:	7d01006e 	stcvc	0, cr0, [r1, #-440]	; 0xfffffe48
    4dfc:	00000025 	andeq	r0, r0, r5, lsr #32
    4e00:	00001764 	andeq	r1, r0, r4, ror #14
    4e04:	746d660b 	strbtvc	r6, [sp], #-1547	; 0x60b
    4e08:	817d0100 	cmnhi	sp, r0, lsl #2
    4e0c:	92000000 	andls	r0, r0, #0
    4e10:	0d000017 	stceq	0, cr0, [r0, #-92]	; 0xffffffa4
    4e14:	00000d10 	andeq	r0, r0, r0, lsl sp
    4e18:	00ae7d01 	adceq	r7, lr, r1, lsl #26
    4e1c:	17c60000 	strbne	r0, [r6, r0]
    4e20:	70100000 	andsvc	r0, r0, r0
    4e24:	747e0100 	ldrbtvc	r0, [lr], #-256	; 0x100
    4e28:	d9000000 	stmdble	r0, {}	; <UNPREDICTABLE>
    4e2c:	10000017 	andne	r0, r0, r7, lsl r0
    4e30:	7e010065 	cdpvc	0, 0, cr0, cr1, cr5, {3}
    4e34:	00000074 	andeq	r0, r0, r4, ror r0
    4e38:	00001857 	andeq	r1, r0, r7, asr r8
    4e3c:	00006c11 	andeq	r6, r0, r1, lsl ip
    4e40:	00063500 	andeq	r3, r6, r0, lsl #10
    4e44:	f8030500 			; <UNDEFINED> instruction: 0xf8030500
    4e48:	1e0000b3 	mcrne	0, 0, r0, cr0, cr3, {5}
    4e4c:	00000090 	muleq	r0, r0, r0
    4e50:	01007310 	tsteq	r0, r0, lsl r3
    4e54:	0000748b 	andeq	r7, r0, fp, lsl #9
    4e58:	00187e00 	andseq	r7, r8, r0, lsl #28
    4e5c:	756e0f00 	strbvc	r0, [lr, #-3840]!	; 0xf00
    4e60:	8b01006d 	blhi	4501c <__bss_end__+0x39334>
    4e64:	0000063a 	andeq	r0, r0, sl, lsr r6
    4e68:	7ed89103 	atnvce	f1, f3
    4e6c:	00133f13 	andseq	r3, r3, r3, lsl pc
    4e70:	2c8c0100 	stfcss	f0, [ip], {0}
    4e74:	d3000000 	movwle	r0, #0
    4e78:	15000018 	strne	r0, [r0, #-24]
    4e7c:	00009b44 	andeq	r9, r0, r4, asr #22
    4e80:	000000b9 	strheq	r0, [r0], -r9
    4e84:	0000047b 	andeq	r0, r0, fp, ror r4
    4e88:	02500116 	subseq	r0, r0, #-2147483643	; 0x80000005
    4e8c:	14000075 	strne	r0, [r0], #-117	; 0x75
    4e90:	00009b58 	andeq	r9, r0, r8, asr fp
    4e94:	00000660 	andeq	r0, r0, r0, ror #12
    4e98:	009b6c15 	addseq	r6, fp, r5, lsl ip
    4e9c:	00066700 	andeq	r6, r6, r0, lsl #14
    4ea0:	0004b300 	andeq	fp, r4, r0, lsl #6
    4ea4:	53011600 	movwpl	r1, #5632	; 0x1600
    4ea8:	16920802 	ldrne	r0, [r2], r2, lsl #16
    4eac:	03055201 	movweq	r5, #20993	; 0x5201
    4eb0:	0000b3f8 	strdeq	fp, [r0], -r8
    4eb4:	05510116 	ldrbeq	r0, [r1, #-278]	; 0x116
    4eb8:	00b40403 	adcseq	r0, r4, r3, lsl #8
    4ebc:	50011600 	andpl	r1, r1, r0, lsl #12
    4ec0:	b4540305 	ldrblt	r0, [r4], #-773	; 0x305
    4ec4:	14000000 	strne	r0, [r0], #-0
    4ec8:	00009b70 	andeq	r9, r0, r0, ror fp
    4ecc:	0000067d 	andeq	r0, r0, sp, ror r6
    4ed0:	009be014 	addseq	lr, fp, r4, lsl r0
    4ed4:	00066000 	andeq	r6, r6, r0
    4ed8:	9bf41500 	blls	ffd0a2e0 <__bss_end__+0xffcfe5f8>
    4edc:	06670000 	strbteq	r0, [r7], -r0
    4ee0:	04f40000 	ldrbteq	r0, [r4], #0
    4ee4:	01160000 	tsteq	r6, r0
    4ee8:	98080253 	stmdals	r8, {r0, r1, r4, r6, r9}
    4eec:	05520116 	ldrbeq	r0, [r2, #-278]	; 0x116
    4ef0:	00b3f803 	adcseq	pc, r3, r3, lsl #16
    4ef4:	51011600 	tstpl	r1, r0, lsl #12
    4ef8:	b4040305 	strlt	r0, [r4], #-773	; 0x305
    4efc:	01160000 	tsteq	r6, r0
    4f00:	70030550 	andvc	r0, r3, r0, asr r5
    4f04:	000000b4 	strheq	r0, [r0], -r4
    4f08:	009bf814 	addseq	pc, fp, r4, lsl r8	; <UNPREDICTABLE>
    4f0c:	00067d00 	andeq	r7, r6, r0, lsl #26
    4f10:	9c1c1500 	cfldr32ls	mvfx1, [ip], {-0}
    4f14:	019c0000 	orrseq	r0, ip, r0
    4f18:	052a0000 	streq	r0, [sl, #-0]!
    4f1c:	01160000 	tsteq	r6, r0
    4f20:	80080252 	andhi	r0, r8, r2, asr r2
    4f24:	03510116 	cmpeq	r1, #-2147483643	; 0x80000005
    4f28:	167ed091 			; <UNDEFINED> instruction: 0x167ed091
    4f2c:	3a015001 	bcc	58f38 <__bss_end__+0x4d250>
    4f30:	047d0216 	ldrbteq	r0, [sp], #-534	; 0x216
    4f34:	02163101 	andseq	r3, r6, #1073741824	; 0x40000000
    4f38:	7702007d 	smlsdxvc	r2, sp, r0, r0
    4f3c:	40150000 	andsmi	r0, r5, r0
    4f40:	9c00009c 	stcls	0, cr0, [r0], {156}	; 0x9c
    4f44:	58000001 	stmdapl	r0, {r0}
    4f48:	16000005 	strne	r0, [r0], -r5
    4f4c:	08025201 	stmdaeq	r2, {r0, r9, ip, lr}
    4f50:	51011680 	smlabbpl	r1, r0, r6, r1
    4f54:	7ed09103 	atnvcs	f1, f3
    4f58:	01500116 	cmpeq	r0, r6, lsl r1
    4f5c:	7d02163a 	stcvc	6, cr1, [r2, #-232]	; 0xffffff18
    4f60:	007b0204 	rsbseq	r0, fp, r4, lsl #4
    4f64:	007d0216 	rsbseq	r0, sp, r6, lsl r2
    4f68:	00007702 	andeq	r7, r0, r2, lsl #14
    4f6c:	009c6415 	addseq	r6, ip, r5, lsl r4
    4f70:	00019c00 	andeq	r9, r1, r0, lsl #24
    4f74:	00058600 	andeq	r8, r5, r0, lsl #12
    4f78:	52011600 	andpl	r1, r1, #0, 12
    4f7c:	16800802 	strne	r0, [r0], r2, lsl #16
    4f80:	91035101 	tstls	r3, r1, lsl #2
    4f84:	01167ed0 			; <UNDEFINED> instruction: 0x01167ed0
    4f88:	16400150 			; <UNDEFINED> instruction: 0x16400150
    4f8c:	02047d02 	andeq	r7, r4, #2, 26	; 0x80
    4f90:	0216007b 	andseq	r0, r6, #123	; 0x7b
    4f94:	7702007d 	smlsdxvc	r2, sp, r0, r0
    4f98:	88150000 	ldmdahi	r5, {}	; <UNPREDICTABLE>
    4f9c:	9c00009c 	stcls	0, cr0, [r0], {156}	; 0x9c
    4fa0:	b4000001 	strlt	r0, [r0], #-1
    4fa4:	16000005 	strne	r0, [r0], -r5
    4fa8:	08025201 	stmdaeq	r2, {r0, r9, ip, lr}
    4fac:	51011680 	smlabbpl	r1, r0, r6, r1
    4fb0:	7ed09103 	atnvcs	f1, f3
    4fb4:	01500116 	cmpeq	r0, r6, lsl r1
    4fb8:	7d021632 	stcvc	6, cr1, [r2, #-200]	; 0xffffff38
    4fbc:	007b0204 	rsbseq	r0, fp, r4, lsl #4
    4fc0:	007d0216 	rsbseq	r0, sp, r6, lsl r2
    4fc4:	00007702 	andeq	r7, r0, r2, lsl #14
    4fc8:	009cb815 	addseq	fp, ip, r5, lsl r8
    4fcc:	00019c00 	andeq	r9, r1, r0, lsl #24
    4fd0:	0005e200 	andeq	lr, r5, r0, lsl #4
    4fd4:	52011600 	andpl	r1, r1, #0, 12
    4fd8:	16800802 	strne	r0, [r0], r2, lsl #16
    4fdc:	91035101 	tstls	r3, r1, lsl #2
    4fe0:	01167ed0 			; <UNDEFINED> instruction: 0x01167ed0
    4fe4:	16380150 			; <UNDEFINED> instruction: 0x16380150
    4fe8:	02047d02 	andeq	r7, r4, #2, 26	; 0x80
    4fec:	0216007b 	andseq	r0, r6, #123	; 0x7b
    4ff0:	7702007d 	smlsdxvc	r2, sp, r0, r0
    4ff4:	c0140000 	andsgt	r0, r4, r0
    4ff8:	6000009c 	mulvs	r0, ip, r0
    4ffc:	15000006 	strne	r0, [r0, #-6]
    5000:	00009cdc 	ldrdeq	r9, [r0], -ip
    5004:	00000667 	andeq	r0, r0, r7, ror #12
    5008:	0000061a 	andeq	r0, r0, sl, lsl r6
    500c:	02530116 	subseq	r0, r3, #-2147483643	; 0x80000005
    5010:	0116b908 	tsteq	r6, r8, lsl #18
    5014:	f8030552 			; <UNDEFINED> instruction: 0xf8030552
    5018:	160000b3 			; <UNDEFINED> instruction: 0x160000b3
    501c:	03055101 	movweq	r5, #20737	; 0x5101
    5020:	0000b404 	andeq	fp, r0, r4, lsl #8
    5024:	05500116 	ldrbeq	r0, [r0, #-278]	; 0x116
    5028:	00b49803 	adcseq	r9, r4, r3, lsl #16
    502c:	e0140000 	ands	r0, r4, r0
    5030:	7d00009c 	stcvc	0, cr0, [r0, #-624]	; 0xfffffd90
    5034:	00000006 	andeq	r0, r0, r6
    5038:	007a1800 	rsbseq	r1, sl, r0, lsl #16
    503c:	06350000 	ldrteq	r0, [r5], -r0
    5040:	6b190000 	blvs	645048 <__bss_end__+0x639360>
    5044:	09000000 	stmdbeq	r0, {}	; <UNPREDICTABLE>
    5048:	06250600 	strteq	r0, [r5], -r0, lsl #12
    504c:	7a180000 	bvc	605054 <__bss_end__+0x5f936c>
    5050:	4a000000 	bmi	5058 <_start-0x2fa8>
    5054:	19000006 	stmdbne	r0, {r1, r2}
    5058:	0000006b 	andeq	r0, r0, fp, rrx
    505c:	111f007f 	tstne	pc, pc, ror r0	; <UNPREDICTABLE>
    5060:	0300000e 	movweq	r0, #14
    5064:	00038b1d 	andeq	r8, r3, sp, lsl fp
    5068:	12f31f00 	rscsne	r1, r3, #0, 30
    506c:	22030000 	andcs	r0, r3, #0
    5070:	000003a0 	andeq	r0, r0, r0, lsr #7
    5074:	00001020 	andeq	r1, r0, r0, lsr #32
    5078:	211e0300 	tstcs	lr, r0, lsl #6
    507c:	0000124d 	andeq	r1, r0, sp, asr #4
    5080:	00252903 	eoreq	r2, r5, r3, lsl #18
    5084:	067d0000 	ldrbteq	r0, [sp], -r0
    5088:	811c0000 	tsthi	ip, r0
    508c:	22000000 	andcs	r0, r0, #0
    5090:	05f32000 	ldrbeq	r2, [r3, #0]!
    5094:	66030000 	strvs	r0, [r3], -r0
    5098:	0000ff00 	andeq	pc, r0, r0, lsl #30
    509c:	64000400 	strvs	r0, [r0], #-1024	; 0x400
    50a0:	0400000f 	streq	r0, [r0], #-15
    50a4:	0011f301 	andseq	pc, r1, r1, lsl #6
    50a8:	135d0100 	cmpne	sp, #0, 2
    50ac:	125e0000 	subsne	r0, lr, #0
    50b0:	9d480000 	stclls	0, cr0, [r8, #-0]
    50b4:	00280000 	eoreq	r0, r8, r0
    50b8:	0ca10000 	stceq	0, cr0, [r1]
    50bc:	04020000 	streq	r0, [r2], #-0
    50c0:	746e6905 	strbtvc	r6, [lr], #-2309	; 0x905
    50c4:	07040300 	streq	r0, [r4, -r0, lsl #6]
    50c8:	0000024a 	andeq	r0, r0, sl, asr #4
    50cc:	ee060103 	adfs	f0, f6, f3
    50d0:	03000007 	movweq	r0, #7
    50d4:	06440502 	strbeq	r0, [r4], -r2, lsl #10
    50d8:	04030000 	streq	r0, [r3], #-0
    50dc:	00043e05 	andeq	r3, r4, r5, lsl #28
    50e0:	05080300 	streq	r0, [r8, #-768]	; 0x300
    50e4:	00000439 	andeq	r0, r0, r9, lsr r4
    50e8:	ec080103 	stfs	f0, [r8], {3}
    50ec:	03000007 	movweq	r0, #7
    50f0:	08ac0702 	stmiaeq	ip!, {r1, r8, r9, sl}
    50f4:	04030000 	streq	r0, [r3], #-0
    50f8:	00024507 	andeq	r4, r2, r7, lsl #10
    50fc:	07080300 	streq	r0, [r8, -r0, lsl #6]
    5100:	00000240 	andeq	r0, r0, r0, asr #4
    5104:	85070403 	strhi	r0, [r7, #-1027]	; 0x403
    5108:	03000007 	movweq	r0, #7
    510c:	07f50801 	ldrbeq	r0, [r5, r1, lsl #16]!
    5110:	04040000 	streq	r0, [r4], #-0
    5114:	0000007f 	andeq	r0, r0, pc, ror r0
    5118:	00007205 	andeq	r7, r0, r5, lsl #4
    511c:	05f30600 	ldrbeq	r0, [r3, #1536]!	; 0x600
    5120:	04010000 	streq	r0, [r1], #-0
    5124:	00009d48 	andeq	r9, r0, r8, asr #26
    5128:	00000028 	andeq	r0, r0, r8, lsr #32
    512c:	00ca9c01 	sbceq	r9, sl, r1, lsl #24
    5130:	5c070000 	stcpl	0, cr0, [r7], {-0}
    5134:	ac00009d 	stcge	0, cr0, [r0], {157}	; 0x9d
    5138:	08000000 	stmdaeq	r0, {}	; <UNPREDICTABLE>
    513c:	03055001 	movweq	r5, #20481	; 0x5001
    5140:	0000b4d0 	ldrdeq	fp, [r0], -r0
    5144:	9d640900 	stclls	9, cr0, [r4, #-0]
    5148:	00ea0000 	rsceq	r0, sl, r0
    514c:	00c00000 	sbceq	r0, r0, r0
    5150:	01080000 	mrseq	r0, (UNDEF: 8)
    5154:	64080250 	strvs	r0, [r8], #-592	; 0x250
    5158:	9d680a00 	vstmdbls	r8!, {s1-s0}
    515c:	00fb0000 	rscseq	r0, fp, r0
    5160:	0b000000 	bleq	5168 <_start-0x2e98>
    5164:	00000025 	andeq	r0, r0, r5, lsr #32
    5168:	000000d9 	ldrdeq	r0, [r0], -r9
    516c:	0000790c 	andeq	r7, r0, ip, lsl #18
    5170:	f30d0000 	vhadd.u8	d0, d13, d0
    5174:	02000012 	andeq	r0, r0, #18
    5178:	0000e422 	andeq	lr, r0, r2, lsr #8
    517c:	ca040400 	bgt	106184 <__bss_end__+0xfa49c>
    5180:	0e000000 	cdpeq	0, 0, cr0, cr0, cr0, {0}
    5184:	00000323 	andeq	r0, r0, r3, lsr #6
    5188:	00fb5002 	rscseq	r5, fp, r2
    518c:	2c0c0000 	stccs	0, cr0, [ip], {-0}
    5190:	00000000 	andeq	r0, r0, r0
    5194:	0013520f 	andseq	r5, r3, pc, lsl #4
    5198:	00630200 	rsbeq	r0, r3, r0, lsl #4
    519c:	000000ff 	strdeq	r0, [r0], -pc	; <UNPREDICTABLE>
    51a0:	102e0004 	eorne	r0, lr, r4
    51a4:	01040000 	mrseq	r0, (UNDEF: 4)
    51a8:	000011f3 	strdeq	r1, [r0], -r3
    51ac:	00137701 	andseq	r7, r3, r1, lsl #14
    51b0:	00125e00 	andseq	r5, r2, r0, lsl #28
    51b4:	009d7000 	addseq	r7, sp, r0
    51b8:	00003400 	andeq	r3, r0, r0, lsl #8
    51bc:	000d3800 	andeq	r3, sp, r0, lsl #16
    51c0:	05040200 	streq	r0, [r4, #-512]	; 0x200
    51c4:	00746e69 	rsbseq	r6, r4, r9, ror #28
    51c8:	4a070403 	bmi	1c61dc <__bss_end__+0x1ba4f4>
    51cc:	03000002 	movweq	r0, #2
    51d0:	07ee0601 	strbeq	r0, [lr, r1, lsl #12]!
    51d4:	02030000 	andeq	r0, r3, #0
    51d8:	00064405 	andeq	r4, r6, r5, lsl #8
    51dc:	05040300 	streq	r0, [r4, #-768]	; 0x300
    51e0:	0000043e 	andeq	r0, r0, lr, lsr r4
    51e4:	39050803 	stmdbcc	r5, {r0, r1, fp}
    51e8:	03000004 	movweq	r0, #4
    51ec:	07ec0801 	strbeq	r0, [ip, r1, lsl #16]!
    51f0:	02030000 	andeq	r0, r3, #0
    51f4:	0008ac07 	andeq	sl, r8, r7, lsl #24
    51f8:	07040300 	streq	r0, [r4, -r0, lsl #6]
    51fc:	00000245 	andeq	r0, r0, r5, asr #4
    5200:	40070803 	andmi	r0, r7, r3, lsl #16
    5204:	03000002 	movweq	r0, #2
    5208:	07850704 	streq	r0, [r5, r4, lsl #14]
    520c:	01030000 	mrseq	r0, (UNDEF: 3)
    5210:	0007f508 	andeq	pc, r7, r8, lsl #10
    5214:	13ad0400 			; <UNDEFINED> instruction: 0x13ad0400
    5218:	0d010000 	stceq	0, cr0, [r1, #-0]
    521c:	00009d70 	andeq	r9, r0, r0, ror sp
    5220:	00000034 	andeq	r0, r0, r4, lsr r0
    5224:	00d89c01 	sbcseq	r9, r8, r1, lsl #24
    5228:	8b050000 	blhi	145230 <__bss_end__+0x139548>
    522c:	01000013 	tsteq	r0, r3, lsl r0
    5230:	0000250e 	andeq	r2, r0, lr, lsl #10
    5234:	13990500 	orrsne	r0, r9, #0, 10
    5238:	0e010000 	cdpeq	0, 0, cr0, cr1, cr0, {0}
    523c:	00000025 	andeq	r0, r0, r5, lsr #32
    5240:	00089b06 	andeq	r9, r8, r6, lsl #22
    5244:	070f0100 	streq	r0, [pc, -r0, lsl #2]
    5248:	00737362 	rsbseq	r7, r3, r2, ror #6
    524c:	00d81101 	sbcseq	r1, r8, r1, lsl #2
    5250:	18fd0000 	ldmne	sp!, {}^	; <UNPREDICTABLE>
    5254:	a5080000 	strge	r0, [r8, #-0]
    5258:	01000013 	tsteq	r0, r3, lsl r0
    525c:	0000d812 	andeq	sp, r0, r2, lsl r8
    5260:	9d980900 	ldcls	9, cr0, [r8]
    5264:	00f40000 	rscseq	r0, r4, r0
    5268:	9c090000 	stcls	0, cr0, [r9], {-0}
    526c:	fb00009d 	blx	54ea <_start-0x2b16>
    5270:	00000000 	andeq	r0, r0, r0
    5274:	0025040a 	eoreq	r0, r5, sl, lsl #8
    5278:	8b050000 	blhi	145280 <__bss_end__+0x139598>
    527c:	01000013 	tsteq	r0, r3, lsl r0
    5280:	0000250e 	andeq	r2, r0, lr, lsl #10
    5284:	13990500 	orrsne	r0, r9, #0, 10
    5288:	0e010000 	cdpeq	0, 0, cr0, cr1, cr0, {0}
    528c:	00000025 	andeq	r0, r0, r5, lsr #32
    5290:	00089b06 	andeq	r9, r8, r6, lsl #22
    5294:	06d80200 	ldrbeq	r0, [r8], r0, lsl #4
    5298:	00001352 	andeq	r1, r0, r2, asr r3
    529c:	ad006302 	stcge	3, cr6, [r0, #-8]
    52a0:	04000001 	streq	r0, [r0], #-1
    52a4:	0010c200 	andseq	ip, r0, r0, lsl #4
    52a8:	f3010400 	vshl.u8	d0, d0, d1
    52ac:	01000011 	tsteq	r0, r1, lsl r0
    52b0:	000013cf 	andeq	r1, r0, pc, asr #7
    52b4:	0000125e 	andeq	r1, r0, lr, asr r2
    52b8:	000000a8 	andeq	r0, r0, r8, lsr #1
    52bc:	00000000 	andeq	r0, r0, r0
    52c0:	00000dd6 	ldrdeq	r0, [r0], -r6
    52c4:	69050402 	stmdbvs	r5, {r1, sl}
    52c8:	0300746e 	movweq	r7, #1134	; 0x46e
    52cc:	024a0704 	subeq	r0, sl, #4, 14	; 0x100000
    52d0:	01030000 	mrseq	r0, (UNDEF: 3)
    52d4:	0007ee06 	andeq	lr, r7, r6, lsl #28
    52d8:	05020300 	streq	r0, [r2, #-768]	; 0x300
    52dc:	00000644 	andeq	r0, r0, r4, asr #12
    52e0:	3e050403 	cdpcc	4, 0, cr0, cr5, cr3, {0}
    52e4:	03000004 	movweq	r0, #4
    52e8:	04390508 	ldrteq	r0, [r9], #-1288	; 0x508
    52ec:	01030000 	mrseq	r0, (UNDEF: 3)
    52f0:	0007ec08 	andeq	lr, r7, r8, lsl #24
    52f4:	07020300 	streq	r0, [r2, -r0, lsl #6]
    52f8:	000008ac 	andeq	r0, r0, ip, lsr #17
    52fc:	45070403 	strmi	r0, [r7, #-1027]	; 0x403
    5300:	03000002 	movweq	r0, #2
    5304:	02400708 	subeq	r0, r0, #8, 14	; 0x200000
    5308:	04030000 	streq	r0, [r3], #-0
    530c:	00078507 	andeq	r8, r7, r7, lsl #10
    5310:	08010300 	stmdaeq	r1, {r8, r9}
    5314:	000007f5 	strdeq	r0, [r0], -r5
    5318:	0013b504 	andseq	fp, r3, r4, lsl #10
    531c:	250e0100 	strcs	r0, [lr, #-256]	; 0x100
    5320:	a4000000 	strge	r0, [r0], #-0
    5324:	1800009d 	stmdane	r0, {r0, r2, r3, r4, r7}
    5328:	01000000 	mrseq	r0, (UNDEF: 0)
    532c:	0000a29c 	muleq	r0, ip, r2
    5330:	141b0500 	ldrne	r0, [fp], #-1280	; 0x500
    5334:	0f010000 	svceq	0x00010000
    5338:	0000002c 	andeq	r0, r0, ip, lsr #32
    533c:	0000191d 	andeq	r1, r0, sp, lsl r9
    5340:	14040600 	strne	r0, [r4], #-1536	; 0x600
    5344:	17010000 	strne	r0, [r1, -r0]
    5348:	00009dbc 			; <UNDEFINED> instruction: 0x00009dbc
    534c:	00000014 	andeq	r0, r0, r4, lsl r0
    5350:	00c79c01 	sbceq	r9, r7, r1, lsl #24
    5354:	1b050000 	blne	14535c <__bss_end__+0x139674>
    5358:	01000014 	tsteq	r0, r4, lsl r0
    535c:	00002c18 	andeq	r2, r0, r8, lsl ip
    5360:	00193c00 	andseq	r3, r9, r0, lsl #24
    5364:	52060000 	andpl	r0, r6, #0
    5368:	01000013 	tsteq	r0, r3, lsl r0
    536c:	009dd01f 	addseq	sp, sp, pc, lsl r0
    5370:	00004800 	andeq	r4, r0, r0, lsl #16
    5374:	779c0100 	ldrvc	r0, [ip, r0, lsl #2]
    5378:	07000001 	streq	r0, [r0, -r1]
    537c:	00001413 	andeq	r1, r0, r3, lsl r4
    5380:	01772a01 	cmneq	r7, r1, lsl #20
    5384:	001c0000 	andseq	r0, ip, r0
    5388:	fc072010 	stc2	0, cr2, [r7], {16}
    538c:	01000013 	tsteq	r0, r3, lsl r0
    5390:	0001772b 	andeq	r7, r1, fp, lsr #14
    5394:	10002400 	andne	r2, r0, r0, lsl #8
    5398:	13c30720 	bicne	r0, r3, #32, 14	; 0x800000
    539c:	2c010000 	stccs	0, cr0, [r1], {-0}
    53a0:	00000177 	andeq	r0, r0, r7, ror r1
    53a4:	5a000000 	bpl	53ac <_start-0x2c54>
    53a8:	0013e308 	andseq	lr, r3, r8, lsl #6
    53ac:	772d0100 	strvc	r0, [sp, -r0, lsl #2]!
    53b0:	20000001 	andcs	r0, r0, r1
    53b4:	009dd809 	addseq	sp, sp, r9, lsl #16
    53b8:	00007900 	andeq	r7, r0, r0, lsl #18
    53bc:	9de40900 	stclls	9, cr0, [r4]
    53c0:	00a20000 	adceq	r0, r2, r0
    53c4:	ec0a0000 	stc	0, cr0, [sl], {-0}
    53c8:	8d00009d 	stchi	0, cr0, [r0, #-628]	; 0xfffffd8c
    53cc:	3a000001 	bcc	53d8 <_start-0x2c28>
    53d0:	0b000001 	bleq	53dc <_start-0x2c24>
    53d4:	4e015001 	cdpmi	0, 0, cr5, cr1, cr1, {0}
    53d8:	9df80a00 	ldclls	10, cr0, [r8]
    53dc:	019e0000 	orrseq	r0, lr, r0
    53e0:	015a0000 	cmpeq	sl, r0
    53e4:	010b0000 	mrseq	r0, (UNDEF: 11)
    53e8:	010c0551 	tsteq	ip, r1, asr r5
    53ec:	0b5a0000 	bleq	16853f4 <__bss_end__+0x167970c>
    53f0:	0c055001 	stceq	0, cr5, [r5], {1}
    53f4:	20100024 	andscs	r0, r0, r4, lsr #32
    53f8:	9e040c00 	cdpls	12, 0, cr0, cr4, cr0, {0}
    53fc:	019e0000 	orrseq	r0, lr, r0
    5400:	010b0000 	mrseq	r0, (UNDEF: 11)
    5404:	200c0551 	andcs	r0, ip, r1, asr r5
    5408:	0b5a0000 	bleq	1685410 <__bss_end__+0x1679728>
    540c:	0c055001 	stceq	0, cr5, [r5], {1}
    5410:	2010001c 	andscs	r0, r0, ip, lsl r0
    5414:	250d0000 	strcs	r0, [sp, #-0]
    5418:	08000000 	stmdaeq	r0, {}	; <UNPREDICTABLE>
    541c:	000013b8 			; <UNDEFINED> instruction: 0x000013b8
    5420:	01880d01 	orreq	r0, r8, r1, lsl #26
    5424:	0d100000 	ldceq	0, cr0, [r0, #-0]
    5428:	0000002c 	andeq	r0, r0, ip, lsr #32
    542c:	0003230e 	andeq	r2, r3, lr, lsl #6
    5430:	9e500200 	cdpls	2, 5, cr0, cr0, cr0, {0}
    5434:	0f000001 	svceq	0x00000001
    5438:	0000002c 	andeq	r0, r0, ip, lsr #32
    543c:	0b851000 	bleq	fe149444 <__bss_end__+0xfe13d75c>
    5440:	9c020000 	stcls	0, cr0, [r2], {-0}
    5444:	00002c0f 	andeq	r2, r0, pc, lsl #24
    5448:	002c0f00 	eoreq	r0, ip, r0, lsl #30
    544c:	00000000 	andeq	r0, r0, r0
    5450:	000001d8 	ldrdeq	r0, [r0], -r8
    5454:	11b00004 	movsne	r0, r4
    5458:	01040000 	mrseq	r0, (UNDEF: 4)
    545c:	000011f3 	strdeq	r1, [r0], -r3
    5460:	00143d01 	andseq	r3, r4, r1, lsl #26
    5464:	00125e00 	andseq	r5, r2, r0, lsl #28
    5468:	009e1800 	addseq	r1, lr, r0, lsl #16
    546c:	00008800 	andeq	r8, r0, r0, lsl #16
    5470:	000e7300 	andeq	r7, lr, r0, lsl #6
    5474:	05040200 	streq	r0, [r4, #-512]	; 0x200
    5478:	00746e69 	rsbseq	r6, r4, r9, ror #28
    547c:	4a070403 	bmi	1c6490 <__bss_end__+0x1ba7a8>
    5480:	03000002 	movweq	r0, #2
    5484:	07ee0601 	strbeq	r0, [lr, r1, lsl #12]!
    5488:	02030000 	andeq	r0, r3, #0
    548c:	00064405 	andeq	r4, r6, r5, lsl #8
    5490:	05040300 	streq	r0, [r4, #-768]	; 0x300
    5494:	0000043e 	andeq	r0, r0, lr, lsr r4
    5498:	39050803 	stmdbcc	r5, {r0, r1, fp}
    549c:	03000004 	movweq	r0, #4
    54a0:	07ec0801 	strbeq	r0, [ip, r1, lsl #16]!
    54a4:	02030000 	andeq	r0, r3, #0
    54a8:	0008ac07 	andeq	sl, r8, r7, lsl #24
    54ac:	07040300 	streq	r0, [r4, -r0, lsl #6]
    54b0:	00000245 	andeq	r0, r0, r5, asr #4
    54b4:	40070803 	andmi	r0, r7, r3, lsl #16
    54b8:	03000002 	movweq	r0, #2
    54bc:	07850704 	streq	r0, [r5, r4, lsl #14]
    54c0:	01030000 	mrseq	r0, (UNDEF: 3)
    54c4:	0007f508 	andeq	pc, r7, r8, lsl #10
    54c8:	14560400 	ldrbne	r0, [r6], #-1024	; 0x400
    54cc:	05010000 	streq	r0, [r1, #-0]
    54d0:	00009e18 	andeq	r9, r0, r8, lsl lr
    54d4:	0000001c 	andeq	r0, r0, ip, lsl r0
    54d8:	009e9c01 	addseq	r9, lr, r1, lsl #24
    54dc:	50050000 	andpl	r0, r5, r0
    54e0:	01000014 	tsteq	r0, r4, lsl r0
    54e4:	00002c05 	andeq	r2, r0, r5, lsl #24
    54e8:	00196600 	andseq	r6, r9, r0, lsl #12
    54ec:	20060000 	andcs	r0, r6, r0
    54f0:	01000014 	tsteq	r0, r4, lsl r0
    54f4:	00002c11 	andeq	r2, r0, r1, lsl ip
    54f8:	009e3400 	addseq	r3, lr, r0, lsl #8
    54fc:	00001400 	andeq	r1, r0, r0, lsl #8
    5500:	cb9c0100 	blgt	fe705908 <__bss_end__+0xfe6f9c20>
    5504:	07000000 	streq	r0, [r0, -r0]
    5508:	00009e40 	andeq	r9, r0, r0, asr #28
    550c:	000001ca 	andeq	r0, r0, sl, asr #3
    5510:	05500108 	ldrbeq	r0, [r0, #-264]	; 0x108
    5514:	0030040c 	eorseq	r0, r0, ip, lsl #8
    5518:	06000020 	streq	r0, [r0], -r0, lsr #32
    551c:	000007c1 	andeq	r0, r0, r1, asr #15
    5520:	002c1601 	eoreq	r1, ip, r1, lsl #12
    5524:	9e480000 	cdpls	0, 4, cr0, cr8, cr0, {0}
    5528:	000c0000 	andeq	r0, ip, r0
    552c:	9c010000 	stcls	0, cr0, [r1], {-0}
    5530:	000000f9 	strdeq	r0, [r0], -r9
    5534:	01007509 	tsteq	r0, r9, lsl #10
    5538:	00002c1a 	andeq	r2, r0, sl, lsl ip
    553c:	0a500100 	beq	1405944 <__bss_end__+0x13f9c5c>
    5540:	00009e50 	andeq	r9, r0, r0, asr lr
    5544:	0000009e 	muleq	r0, lr, r0
    5548:	08920400 	ldmeq	r2, {sl}
    554c:	1f010000 	svcne	0x00010000
    5550:	00009e54 	andeq	r9, r0, r4, asr lr
    5554:	00000024 	andeq	r0, r0, r4, lsr #32
    5558:	01579c01 	cmpeq	r7, r1, lsl #24
    555c:	750b0000 	strvc	r0, [fp, #-0]
    5560:	1f010073 	svcne	0x00010073
    5564:	0000002c 	andeq	r0, r0, ip, lsr #32
    5568:	0000199a 	muleq	r0, sl, r9
    556c:	00627209 	rsbeq	r7, r2, r9, lsl #4
    5570:	002c2001 	eoreq	r2, ip, r1
    5574:	54010000 	strpl	r0, [r1], #-0
    5578:	009e640c 	addseq	r6, lr, ip, lsl #8
    557c:	00001000 	andeq	r1, r0, r0
    5580:	00014d00 	andeq	r4, r1, r0, lsl #26
    5584:	61720d00 	cmnvs	r2, r0, lsl #26
    5588:	2c220100 	stfcss	f0, [r2], #-0
    558c:	b8000000 	stmdalt	r0, {}	; <UNPREDICTABLE>
    5590:	0a000019 	beq	55fc <_start-0x2a04>
    5594:	00009e68 	andeq	r9, r0, r8, ror #28
    5598:	000000cb 	andeq	r0, r0, fp, asr #1
    559c:	9e600a00 	vmulls.f32	s1, s0, s0
    55a0:	00cb0000 	sbceq	r0, fp, r0
    55a4:	04000000 	streq	r0, [r0], #-0
    55a8:	00000323 	andeq	r0, r0, r3, lsr #6
    55ac:	9e782801 	cdpls	8, 7, cr2, cr8, cr1, {0}
    55b0:	00140000 	andseq	r0, r4, r0
    55b4:	9c010000 	stcls	0, cr0, [r1], {-0}
    55b8:	00000190 	muleq	r0, r0, r1
    55bc:	00736d0b 	rsbseq	r6, r3, fp, lsl #26
    55c0:	002c2801 	eoreq	r2, ip, r1, lsl #16
    55c4:	19cb0000 	stmibne	fp, {}^	; <UNPREDICTABLE>
    55c8:	88070000 	stmdahi	r7, {}	; <UNPREDICTABLE>
    55cc:	f900009e 			; <UNDEFINED> instruction: 0xf900009e
    55d0:	08000000 	stmdaeq	r0, {}	; <UNPREDICTABLE>
    55d4:	f3075001 	vhadd.u8	d5, d7, d1
    55d8:	e80a5001 	stmda	sl, {r0, ip, lr}
    55dc:	00001e03 	andeq	r1, r0, r3, lsl #28
    55e0:	00143304 	andseq	r3, r4, r4, lsl #6
    55e4:	8c2b0100 	stfhis	f0, [fp], #-0
    55e8:	1400009e 	strne	r0, [r0], #-158	; 0x9e
    55ec:	01000000 	mrseq	r0, (UNDEF: 0)
    55f0:	0001ca9c 	muleq	r1, ip, sl
    55f4:	65730b00 	ldrbvs	r0, [r3, #-2816]!	; 0xb00
    55f8:	2b010063 	blcs	4578c <__bss_end__+0x39aa4>
    55fc:	0000002c 	andeq	r0, r0, ip, lsr #32
    5600:	000019ec 	andeq	r1, r0, ip, ror #19
    5604:	009e9c07 	addseq	r9, lr, r7, lsl #24
    5608:	00015700 	andeq	r5, r1, r0, lsl #14
    560c:	50010800 	andpl	r0, r1, r0, lsl #16
    5610:	5001f307 	andpl	pc, r1, r7, lsl #6
    5614:	1e03e80a 	cdpne	8, 0, cr14, cr3, cr10, {0}
    5618:	8b0e0000 	blhi	385620 <__bss_end__+0x379938>
    561c:	0200000b 	andeq	r0, r0, #11
    5620:	00002ca8 	andeq	r2, r0, r8, lsr #25
    5624:	002c0f00 	eoreq	r0, ip, r0, lsl #30
    5628:	00000000 	andeq	r0, r0, r0
    562c:	00000882 	andeq	r0, r0, r2, lsl #17
    5630:	12930004 	addsne	r0, r3, #4
    5634:	01040000 	mrseq	r0, (UNDEF: 4)
    5638:	000011f3 	strdeq	r1, [r0], -r3
    563c:	0014a001 	andseq	sl, r4, r1
    5640:	00125e00 	andseq	r5, r2, r0, lsl #28
    5644:	009ea000 	addseq	sl, lr, r0
    5648:	0005a000 	andeq	sl, r5, r0
    564c:	000f1a00 	andeq	r1, pc, r0, lsl #20
    5650:	07080200 	streq	r0, [r8, -r0, lsl #4]
    5654:	00000240 	andeq	r0, r0, r0, asr #4
    5658:	4a070402 	bmi	1c6668 <__bss_end__+0x1ba980>
    565c:	02000002 	andeq	r0, r0, #2
    5660:	07ee0601 	strbeq	r0, [lr, r1, lsl #12]!
    5664:	02020000 	andeq	r0, r2, #0
    5668:	00064405 	andeq	r4, r6, r5, lsl #8
    566c:	05040200 	streq	r0, [r4, #-512]	; 0x200
    5670:	0000043e 	andeq	r0, r0, lr, lsr r4
    5674:	39050802 	stmdbcc	r5, {r1, fp}
    5678:	02000004 	andeq	r0, r0, #4
    567c:	07ec0801 	strbeq	r0, [ip, r1, lsl #16]!
    5680:	02020000 	andeq	r0, r2, #0
    5684:	0008ac07 	andeq	sl, r8, r7, lsl #24
    5688:	07040200 	streq	r0, [r4, -r0, lsl #4]
    568c:	00000245 	andeq	r0, r0, r5, asr #4
    5690:	69050403 	stmdbvs	r5, {r0, r1, sl}
    5694:	0200746e 	andeq	r7, r0, #1845493760	; 0x6e000000
    5698:	07850704 	streq	r0, [r5, r4, lsl #14]
    569c:	01020000 	mrseq	r0, (UNDEF: 2)
    56a0:	0007f508 	andeq	pc, r7, r8, lsl #10
    56a4:	02010400 	andeq	r0, r1, #0, 8
    56a8:	0000b20c 	andeq	fp, r0, ip, lsl #4
    56ac:	0c8a0500 	cfstr32eq	mvfx0, [sl], {0}
    56b0:	05000000 	streq	r0, [r0, #-0]
    56b4:	000010f4 	strdeq	r1, [r0], -r4
    56b8:	11360501 	teqne	r6, r1, lsl #10
    56bc:	05040000 	streq	r0, [r4, #-0]
    56c0:	00000cd9 	ldrdeq	r0, [r0], -r9
    56c4:	0ebf0505 	cdpeq	5, 11, cr0, cr15, cr5, {0}
    56c8:	05060000 	streq	r0, [r6, #-0]
    56cc:	00001153 	andeq	r1, r0, r3, asr r1
    56d0:	11620507 	cmnne	r2, r7, lsl #10
    56d4:	05030000 	streq	r0, [r3, #-0]
    56d8:	00001171 	andeq	r1, r0, r1, ror r1
    56dc:	f5060002 			; <UNDEFINED> instruction: 0xf5060002
    56e0:	02000015 	andeq	r0, r0, #21
    56e4:	00007915 	andeq	r7, r0, r5, lsl r9
    56e8:	093e0700 	ldmdbeq	lr!, {r8, r9, sl}
    56ec:	3f010000 	svccc	0x00010000
    56f0:	00009ea0 	andeq	r9, r0, r0, lsr #29
    56f4:	000000d4 	ldrdeq	r0, [r0], -r4
    56f8:	01339c01 	teqeq	r3, r1, lsl #24
    56fc:	70080000 	andvc	r0, r8, r0
    5700:	01006e69 	tsteq	r0, r9, ror #28
    5704:	00002c3f 	andeq	r2, r0, pc, lsr ip
    5708:	001a0d00 	andseq	r0, sl, r0, lsl #26
    570c:	14ed0900 	strbtne	r0, [sp], #2304	; 0x900
    5710:	47010000 	strmi	r0, [r1, -r0]
    5714:	00000133 	andeq	r0, r0, r3, lsr r1
    5718:	00001a2b 	andeq	r1, r0, fp, lsr #20
    571c:	00160109 	andseq	r0, r6, r9, lsl #2
    5720:	2c490100 	stfcse	f0, [r9], {-0}
    5724:	80000000 	andhi	r0, r0, r0
    5728:	0900001a 	stmdbeq	r0, {r1, r3, r4}
    572c:	0000158a 	andeq	r1, r0, sl, lsl #11
    5730:	002c5701 	eoreq	r5, ip, r1, lsl #14
    5734:	1c4c0000 	marne	acc0, r0, ip
    5738:	340a0000 	strcc	r0, [sl], #-0
    573c:	4100009f 	swpmi	r0, pc, [r0]	; <UNPREDICTABLE>
    5740:	22000008 	andcs	r0, r0, #8
    5744:	0b000001 	bleq	5750 <_start-0x28b0>
    5748:	75025001 	strvc	r5, [r2, #-1]
    574c:	680c0000 	stmdavs	ip, {}	; <UNPREDICTABLE>
    5750:	6200009f 	andvs	r0, r0, #159	; 0x9f
    5754:	0b000008 	bleq	577c <_start-0x2884>
    5758:	75025001 	strvc	r5, [r2, #-1]
    575c:	0d000000 	stceq	0, cr0, [r0, #-0]
    5760:	00013904 	andeq	r3, r1, r4, lsl #18
    5764:	002c0e00 	eoreq	r0, ip, r0, lsl #28
    5768:	c5070000 	strgt	r0, [r7, #-0]
    576c:	01000015 	tsteq	r0, r5, lsl r0
    5770:	009f7460 	addseq	r7, pc, r0, ror #8
    5774:	00003800 	andeq	r3, r0, r0, lsl #16
    5778:	969c0100 	ldrls	r0, [ip], r0, lsl #2
    577c:	08000001 	stmdaeq	r0, {r0}
    5780:	006e6970 	rsbeq	r6, lr, r0, ror r9
    5784:	002c6001 	eoreq	r6, ip, r1
    5788:	1c7c0000 	ldclne	0, cr0, [ip], #-0
    578c:	ed090000 	stc	0, cr0, [r9, #-0]
    5790:	01000014 	tsteq	r0, r4, lsl r0
    5794:	00013367 	andeq	r3, r1, r7, ror #6
    5798:	001c9d00 	andseq	r9, ip, r0, lsl #26
    579c:	158a0900 	strne	r0, [sl, #2304]	; 0x900
    57a0:	68010000 	stmdavs	r1, {}	; <UNPREDICTABLE>
    57a4:	0000002c 	andeq	r0, r0, ip, lsr #32
    57a8:	00001cd3 	ldrdeq	r1, [r0], -r3
    57ac:	009fa40c 	addseq	sl, pc, ip, lsl #8
    57b0:	00086200 	andeq	r6, r8, r0, lsl #4
    57b4:	51010b00 	tstpl	r1, r0, lsl #22
    57b8:	01f33107 	mvnseq	r3, r7, lsl #2
    57bc:	241a4f50 	ldrcs	r4, [sl], #-3920	; 0xf50
    57c0:	b2070000 	andlt	r0, r7, #0
    57c4:	01000014 	tsteq	r0, r4, lsl r0
    57c8:	009fac7b 	addseq	sl, pc, fp, ror ip	; <UNPREDICTABLE>
    57cc:	00003800 	andeq	r3, r0, r0, lsl #16
    57d0:	ee9c0100 	fmle	f0, f4, f0
    57d4:	08000001 	stmdaeq	r0, {r0}
    57d8:	006e6970 	rsbeq	r6, lr, r0, ror r9
    57dc:	002c7b01 	eoreq	r7, ip, r1, lsl #22
    57e0:	1d130000 	ldcne	0, cr0, [r3, #-0]
    57e4:	ed090000 	stc	0, cr0, [r9, #-0]
    57e8:	01000014 	tsteq	r0, r4, lsl r0
    57ec:	00013381 	andeq	r3, r1, r1, lsl #7
    57f0:	001d3400 	andseq	r3, sp, r0, lsl #8
    57f4:	158a0900 	strne	r0, [sl, #2304]	; 0x900
    57f8:	82010000 	andhi	r0, r1, #0
    57fc:	0000002c 	andeq	r0, r0, ip, lsr #32
    5800:	00001d6a 	andeq	r1, r0, sl, ror #26
    5804:	009fdc0c 	addseq	sp, pc, ip, lsl #24
    5808:	00086200 	andeq	r6, r8, r0, lsl #4
    580c:	51010b00 	tstpl	r1, r0, lsl #22
    5810:	01f33107 	mvnseq	r3, r7, lsl #2
    5814:	241a4f50 	ldrcs	r4, [sl], #-3920	; 0xf50
    5818:	9c070000 	stcls	0, cr0, [r7], {-0}
    581c:	01000015 	tsteq	r0, r5, lsl r0
    5820:	009fe495 	umullseq	lr, pc, r5, r4	; <UNPREDICTABLE>
    5824:	0000cc00 	andeq	ip, r0, r0, lsl #24
    5828:	649c0100 	ldrvs	r0, [ip], #256	; 0x100
    582c:	08000002 	stmdaeq	r0, {r1}
    5830:	006e6970 	rsbeq	r6, lr, r0, ror r9
    5834:	002c9501 	eoreq	r9, ip, r1, lsl #10
    5838:	1daa0000 	stcne	0, cr0, [sl]
    583c:	ed090000 	stc	0, cr0, [r9, #-0]
    5840:	01000014 	tsteq	r0, r4, lsl r0
    5844:	0001339b 	muleq	r1, fp, r3
    5848:	001dc800 	andseq	ip, sp, r0, lsl #16
    584c:	16010900 	strne	r0, [r1], -r0, lsl #18
    5850:	9d010000 	stcls	0, cr0, [r1, #-0]
    5854:	0000002c 	andeq	r0, r0, ip, lsr #32
    5858:	00001e1d 	andeq	r1, r0, sp, lsl lr
    585c:	00158a09 	andseq	r8, r5, r9, lsl #20
    5860:	2cab0100 	stfcss	f0, [fp]
    5864:	e9000000 	stmdb	r0, {}	; <UNPREDICTABLE>
    5868:	0a00001f 	beq	58ec <_start-0x2714>
    586c:	0000a078 	andeq	sl, r0, r8, ror r0
    5870:	00000841 	andeq	r0, r0, r1, asr #16
    5874:	00000253 	andeq	r0, r0, r3, asr r2
    5878:	0250010b 	subseq	r0, r0, #-1073741822	; 0xc0000002
    587c:	0c000075 	stceq	0, cr0, [r0], {117}	; 0x75
    5880:	0000a0a4 	andeq	sl, r0, r4, lsr #1
    5884:	00000862 	andeq	r0, r0, r2, ror #16
    5888:	0250010b 	subseq	r0, r0, #-1073741822	; 0xc0000002
    588c:	00000075 	andeq	r0, r0, r5, ror r0
    5890:	0015300f 	andseq	r3, r5, pc
    5894:	64b20100 	ldrtvs	r0, [r2], #256	; 0x100
    5898:	b0000000 	andlt	r0, r0, r0
    589c:	4c0000a0 	stcmi	0, cr0, [r0], {160}	; 0xa0
    58a0:	01000000 	mrseq	r0, (UNDEF: 0)
    58a4:	0002ac9c 	muleq	r2, ip, ip
    58a8:	69700800 	ldmdbvs	r0!, {fp}^
    58ac:	b201006e 	andlt	r0, r1, #110	; 0x6e
    58b0:	0000002c 	andeq	r0, r0, ip, lsr #32
    58b4:	00002007 	andeq	r2, r0, r7
    58b8:	01007610 	tsteq	r0, r0, lsl r6
    58bc:	00002cb8 			; <UNDEFINED> instruction: 0x00002cb8
    58c0:	00205f00 	eoreq	r5, r0, r0, lsl #30
    58c4:	a0d01100 	sbcsge	r1, r0, r0, lsl #2
    58c8:	08410000 	stmdaeq	r1, {}^	; <UNPREDICTABLE>
    58cc:	e0110000 	ands	r0, r1, r0
    58d0:	410000a0 	smlatbmi	r0, r0, r0, r0
    58d4:	00000008 	andeq	r0, r0, r8
    58d8:	00091c07 	andeq	r1, r9, r7, lsl #24
    58dc:	fcc40100 	stc2l	1, cr0, [r4], {0}
    58e0:	240000a0 	strcs	r0, [r0], #-160	; 0xa0
    58e4:	01000000 	mrseq	r0, (UNDEF: 0)
    58e8:	0002fc9c 	muleq	r2, ip, ip
    58ec:	69700800 	ldmdbvs	r0!, {fp}^
    58f0:	c401006e 	strgt	r0, [r1], #-110	; 0x6e
    58f4:	0000002c 	andeq	r0, r0, ip, lsr #32
    58f8:	00002095 	muleq	r0, r5, r0
    58fc:	01007608 	tsteq	r0, r8, lsl #12
    5900:	00002cc4 	andeq	r2, r0, r4, asr #25
    5904:	0020cf00 	eoreq	ip, r0, r0, lsl #30
    5908:	a1140a00 	tstge	r4, r0, lsl #20
    590c:	013e0000 	teqeq	lr, r0
    5910:	02f20000 	rscseq	r0, r2, #0
    5914:	010b0000 	mrseq	r0, (UNDEF: 11)
    5918:	01f30350 	mvnseq	r0, r0, asr r3
    591c:	1c110050 	ldcne	0, cr0, [r1], {80}	; 0x50
    5920:	960000a1 	strls	r0, [r0], -r1, lsr #1
    5924:	00000001 	andeq	r0, r0, r1
    5928:	000d3307 	andeq	r3, sp, r7, lsl #6
    592c:	20d00100 	sbcscs	r0, r0, r0, lsl #2
    5930:	d80000a1 	stmdale	r0, {r0, r5, r7}
    5934:	01000000 	mrseq	r0, (UNDEF: 0)
    5938:	0003819c 	muleq	r3, ip, r1
    593c:	69700800 	ldmdbvs	r0!, {fp}^
    5940:	d001006e 	andle	r0, r1, lr, rrx
    5944:	0000002c 	andeq	r0, r0, ip, lsr #32
    5948:	00002109 	andeq	r2, r0, r9, lsl #2
    594c:	00112312 	andseq	r2, r1, r2, lsl r3
    5950:	b2d00100 	sbcslt	r0, r0, #0, 2
    5954:	27000000 	strcs	r0, [r0, -r0]
    5958:	09000021 	stmdbeq	r0, {r0, r5}
    595c:	000014ed 	andeq	r1, r0, sp, ror #9
    5960:	0133d801 	teqeq	r3, r1, lsl #16
    5964:	21480000 	mrscs	r0, (UNDEF: 72)
    5968:	01090000 	mrseq	r0, (UNDEF: 9)
    596c:	01000016 	tsteq	r0, r6, lsl r0
    5970:	00002cd9 	ldrdeq	r2, [r0], -r9
    5974:	00219d00 	eoreq	r9, r1, r0, lsl #26
    5978:	158a0900 	strne	r0, [sl, #2304]	; 0x900
    597c:	e7010000 	str	r0, [r1, -r0]
    5980:	0000002c 	andeq	r0, r0, ip, lsr #32
    5984:	00002369 	andeq	r2, r0, r9, ror #6
    5988:	00a1bc0a 	adceq	fp, r1, sl, lsl #24
    598c:	00084100 	andeq	r4, r8, r0, lsl #2
    5990:	00037000 	andeq	r7, r3, r0
    5994:	50010b00 	andpl	r0, r1, r0, lsl #22
    5998:	00007602 	andeq	r7, r0, r2, lsl #12
    599c:	00a1ec0c 	adceq	lr, r1, ip, lsl #24
    59a0:	00086200 	andeq	r6, r8, r0, lsl #4
    59a4:	50010b00 	andpl	r0, r1, r0, lsl #22
    59a8:	00007602 	andeq	r7, r0, r2, lsl #12
    59ac:	15ab0700 	strne	r0, [fp, #1792]!	; 0x700
    59b0:	f0010000 			; <UNDEFINED> instruction: 0xf0010000
    59b4:	0000a1f8 	strdeq	sl, [r0], -r8
    59b8:	00000038 	andeq	r0, r0, r8, lsr r0
    59bc:	03d99c01 	bicseq	r9, r9, #256	; 0x100
    59c0:	70080000 	andvc	r0, r8, r0
    59c4:	01006e69 	tsteq	r0, r9, ror #28
    59c8:	00002cf0 	strdeq	r2, [r0], -r0
    59cc:	00239a00 	eoreq	r9, r3, r0, lsl #20
    59d0:	14ed0900 	strbtne	r0, [sp], #2304	; 0x900
    59d4:	f6010000 			; <UNDEFINED> instruction: 0xf6010000
    59d8:	00000133 	andeq	r0, r0, r3, lsr r1
    59dc:	000023bb 			; <UNDEFINED> instruction: 0x000023bb
    59e0:	00158a09 	andseq	r8, r5, r9, lsl #20
    59e4:	2cf70100 	ldfcse	f0, [r7]
    59e8:	f1000000 	cps	#0
    59ec:	0c000023 	stceq	0, cr0, [r0], {35}	; 0x23
    59f0:	0000a228 	andeq	sl, r0, r8, lsr #4
    59f4:	00000862 	andeq	r0, r0, r2, ror #16
    59f8:	0751010b 	ldrbeq	r0, [r1, -fp, lsl #2]
    59fc:	5001f331 	andpl	pc, r1, r1, lsr r3	; <UNPREDICTABLE>
    5a00:	00241a4f 	eoreq	r1, r4, pc, asr #20
    5a04:	14941300 	ldrne	r1, [r4], #768	; 0x300
    5a08:	1e010000 	cdpne	0, 0, cr0, cr1, cr0, {0}
    5a0c:	00006401 	andeq	r6, r0, r1, lsl #8
    5a10:	00a23000 	adceq	r3, r2, r0
    5a14:	00002c00 	andeq	r2, r0, r0, lsl #24
    5a18:	0d9c0100 	ldfeqs	f0, [ip]
    5a1c:	14000004 	strne	r0, [r0], #-4
    5a20:	00001497 	muleq	r0, r7, r4
    5a24:	2c011e01 	stccs	14, cr1, [r1], {1}
    5a28:	31000000 	mrscc	r0, (UNDEF: 0)
    5a2c:	11000024 	tstne	r0, r4, lsr #32
    5a30:	0000a240 	andeq	sl, r0, r0, asr #4
    5a34:	00000841 	andeq	r0, r0, r1, asr #16
    5a38:	153a1500 	ldrne	r1, [sl, #-1280]!	; 0x500
    5a3c:	2d010000 	stccs	0, cr0, [r1, #-0]
    5a40:	00a25c01 	adceq	r5, r2, r1, lsl #24
    5a44:	00008400 	andeq	r8, r0, r0, lsl #8
    5a48:	d19c0100 	orrsle	r0, ip, r0, lsl #2
    5a4c:	16000004 	strne	r0, [r0], -r4
    5a50:	006e6970 	rsbeq	r6, lr, r0, ror r9
    5a54:	2c012d01 	stccs	13, cr2, [r1], {1}
    5a58:	52000000 	andpl	r0, r0, #0
    5a5c:	17000024 	strne	r0, [r0, -r4, lsr #32]
    5a60:	000014bf 			; <UNDEFINED> instruction: 0x000014bf
    5a64:	2c013f01 	stccs	15, cr3, [r1], {1}
    5a68:	7e000000 	cdpvc	0, 0, cr0, cr0, cr0, {0}
    5a6c:	18000024 	stmdane	r0, {r2, r5}
    5a70:	0000a278 	andeq	sl, r0, r8, ror r2
    5a74:	0000001c 	andeq	r0, r0, ip, lsl r0
    5a78:	00000473 	andeq	r0, r0, r3, ror r4
    5a7c:	00158a17 	andseq	r8, r5, r7, lsl sl
    5a80:	01360100 	teqeq	r6, r0, lsl #2
    5a84:	0000002c 	andeq	r0, r0, ip, lsr #32
    5a88:	0000249c 	muleq	r0, ip, r4
    5a8c:	00a28411 	adceq	r8, r2, r1, lsl r4
    5a90:	00084100 	andeq	r4, r8, r0, lsl #2
    5a94:	a2941100 	addsge	r1, r4, #0, 2
    5a98:	08620000 	stmdaeq	r2!, {}^	; <UNPREDICTABLE>
    5a9c:	18000000 	stmdane	r0, {}	; <UNPREDICTABLE>
    5aa0:	0000a298 	muleq	r0, r8, r2
    5aa4:	00000020 	andeq	r0, r0, r0, lsr #32
    5aa8:	000004a3 	andeq	r0, r0, r3, lsr #9
    5aac:	00158a17 	andseq	r8, r5, r7, lsl sl
    5ab0:	013a0100 	teqeq	sl, r0, lsl #2
    5ab4:	0000002c 	andeq	r0, r0, ip, lsr #32
    5ab8:	000024ba 			; <UNDEFINED> instruction: 0x000024ba
    5abc:	00a2a411 	adceq	sl, r2, r1, lsl r4
    5ac0:	00084100 	andeq	r4, r8, r0, lsl #2
    5ac4:	a2b81100 	adcsge	r1, r8, #0, 2
    5ac8:	08620000 	stmdaeq	r2!, {}^	; <UNPREDICTABLE>
    5acc:	11000000 	mrsne	r0, (UNDEF: 0)
    5ad0:	0000a270 	andeq	sl, r0, r0, ror r2
    5ad4:	0000087e 	andeq	r0, r0, lr, ror r8
    5ad8:	00a2bc11 	adceq	fp, r2, r1, lsl ip
    5adc:	00087e00 	andeq	r7, r8, r0, lsl #28
    5ae0:	a2c81100 	sbcge	r1, r8, #0, 2
    5ae4:	08410000 	stmdaeq	r1, {}^	; <UNPREDICTABLE>
    5ae8:	d4110000 	ldrle	r0, [r1], #-0
    5aec:	620000a2 	andvs	r0, r0, #162	; 0xa2
    5af0:	11000008 	tstne	r0, r8
    5af4:	0000a2d8 	ldrdeq	sl, [r0], -r8
    5af8:	0000087e 	andeq	r0, r0, lr, ror r8
    5afc:	15df1500 	ldrbne	r1, [pc, #1280]	; 6004 <_start-0x1ffc>
    5b00:	4a010000 	bmi	45b08 <__bss_end__+0x39e20>
    5b04:	00a2e001 	adceq	lr, r2, r1
    5b08:	00008400 	andeq	r8, r0, r0, lsl #8
    5b0c:	959c0100 	ldrls	r0, [ip, #256]	; 0x100
    5b10:	16000005 	strne	r0, [r0], -r5
    5b14:	006e6970 	rsbeq	r6, lr, r0, ror r9
    5b18:	2c014a01 	stccs	10, cr4, [r1], {1}
    5b1c:	d8000000 	stmdale	r0, {}	; <UNPREDICTABLE>
    5b20:	17000024 	strne	r0, [r0, -r4, lsr #32]
    5b24:	000014bf 			; <UNDEFINED> instruction: 0x000014bf
    5b28:	2c015b01 	stccs	11, cr5, [r1], {1}
    5b2c:	04000000 	streq	r0, [r0], #-0
    5b30:	18000025 	stmdane	r0, {r0, r2, r5}
    5b34:	0000a2fc 	strdeq	sl, [r0], -ip
    5b38:	0000001c 	andeq	r0, r0, ip, lsl r0
    5b3c:	00000537 	andeq	r0, r0, r7, lsr r5
    5b40:	00158a17 	andseq	r8, r5, r7, lsl sl
    5b44:	01520100 	cmpeq	r2, r0, lsl #2
    5b48:	0000002c 	andeq	r0, r0, ip, lsr #32
    5b4c:	00002522 	andeq	r2, r0, r2, lsr #10
    5b50:	00a30811 	adceq	r0, r3, r1, lsl r8
    5b54:	00084100 	andeq	r4, r8, r0, lsl #2
    5b58:	a3181100 	tstge	r8, #0, 2
    5b5c:	08620000 	stmdaeq	r2!, {}^	; <UNPREDICTABLE>
    5b60:	18000000 	stmdane	r0, {}	; <UNPREDICTABLE>
    5b64:	0000a31c 	andeq	sl, r0, ip, lsl r3
    5b68:	00000020 	andeq	r0, r0, r0, lsr #32
    5b6c:	00000567 	andeq	r0, r0, r7, ror #10
    5b70:	00158a17 	andseq	r8, r5, r7, lsl sl
    5b74:	01560100 	cmpeq	r6, r0, lsl #2
    5b78:	0000002c 	andeq	r0, r0, ip, lsr #32
    5b7c:	00002540 	andeq	r2, r0, r0, asr #10
    5b80:	00a32811 	adceq	r2, r3, r1, lsl r8
    5b84:	00084100 	andeq	r4, r8, r0, lsl #2
    5b88:	a33c1100 	teqge	ip, #0, 2
    5b8c:	08620000 	stmdaeq	r2!, {}^	; <UNPREDICTABLE>
    5b90:	11000000 	mrsne	r0, (UNDEF: 0)
    5b94:	0000a2f4 	strdeq	sl, [r0], -r4
    5b98:	0000087e 	andeq	r0, r0, lr, ror r8
    5b9c:	00a34011 	adceq	r4, r3, r1, lsl r0
    5ba0:	00087e00 	andeq	r7, r8, r0, lsl #28
    5ba4:	a34c1100 	movtge	r1, #49408	; 0xc100
    5ba8:	08410000 	stmdaeq	r1, {}^	; <UNPREDICTABLE>
    5bac:	58110000 	ldmdapl	r1, {}	; <UNPREDICTABLE>
    5bb0:	620000a3 	andvs	r0, r0, #163	; 0xa3
    5bb4:	11000008 	tstne	r0, r8
    5bb8:	0000a35c 	andeq	sl, r0, ip, asr r3
    5bbc:	0000087e 	andeq	r0, r0, lr, ror r8
    5bc0:	14631300 	strbtne	r1, [r3], #-768	; 0x300
    5bc4:	65010000 	strvs	r0, [r1, #-0]
    5bc8:	00006401 	andeq	r6, r0, r1, lsl #8
    5bcc:	00a36400 	adceq	r6, r3, r0, lsl #8
    5bd0:	00008400 	andeq	r8, r0, r0, lsl #8
    5bd4:	3b9c0100 	blcc	fe705fdc <__bss_end__+0xfe6fa2f4>
    5bd8:	16000006 	strne	r0, [r0], -r6
    5bdc:	006e6970 	rsbeq	r6, lr, r0, ror r9
    5be0:	2c016501 	cfstr32cs	mvfx6, [r1], {1}
    5be4:	5e000000 	cdppl	0, 0, cr0, cr0, cr0, {0}
    5be8:	18000025 	stmdane	r0, {r0, r2, r5}
    5bec:	0000a380 	andeq	sl, r0, r0, lsl #7
    5bf0:	00000024 	andeq	r0, r0, r4, lsr #32
    5bf4:	000005ef 	andeq	r0, r0, pc, ror #11
    5bf8:	0014d617 	andseq	sp, r4, r7, lsl r6
    5bfc:	016c0100 	cmneq	ip, r0, lsl #2
    5c00:	0000002c 	andeq	r0, r0, ip, lsr #32
    5c04:	000025a0 	andeq	r2, r0, r0, lsr #11
    5c08:	00a38c11 	adceq	r8, r3, r1, lsl ip
    5c0c:	00084100 	andeq	r4, r8, r0, lsl #2
    5c10:	a39c1100 	orrsge	r1, ip, #0, 2
    5c14:	087e0000 	ldmdaeq	lr!, {}^	; <UNPREDICTABLE>
    5c18:	18000000 	stmdane	r0, {}	; <UNPREDICTABLE>
    5c1c:	0000a3a4 	andeq	sl, r0, r4, lsr #7
    5c20:	0000002c 	andeq	r0, r0, ip, lsr #32
    5c24:	00000628 	andeq	r0, r0, r8, lsr #12
    5c28:	0014d617 	andseq	sp, r4, r7, lsl r6
    5c2c:	016f0100 	cmneq	pc, r0, lsl #2
    5c30:	0000002c 	andeq	r0, r0, ip, lsr #32
    5c34:	000025ba 			; <UNDEFINED> instruction: 0x000025ba
    5c38:	00a3b011 	adceq	fp, r3, r1, lsl r0
    5c3c:	00084100 	andeq	r4, r8, r0, lsl #2
    5c40:	a3bc1100 			; <UNDEFINED> instruction: 0xa3bc1100
    5c44:	087e0000 	ldmdaeq	lr!, {}^	; <UNPREDICTABLE>
    5c48:	c8110000 	ldmdagt	r1, {}	; <UNPREDICTABLE>
    5c4c:	7e0000a3 	cdpvc	0, 0, cr0, cr0, cr3, {5}
    5c50:	00000008 	andeq	r0, r0, r8
    5c54:	00a37811 	adceq	r7, r3, r1, lsl r8
    5c58:	00087e00 	andeq	r7, r8, r0, lsl #28
    5c5c:	a3d41100 	bicsge	r1, r4, #0, 2
    5c60:	087e0000 	ldmdaeq	lr!, {}^	; <UNPREDICTABLE>
    5c64:	15000000 	strne	r0, [r0, #-0]
    5c68:	0000155d 	andeq	r1, r0, sp, asr r5
    5c6c:	e8017801 	stmda	r1, {r0, fp, ip, sp, lr}
    5c70:	580000a3 	stmdapl	r0, {r0, r1, r5, r7}
    5c74:	01000000 	mrseq	r0, (UNDEF: 0)
    5c78:	0006a09c 	muleq	r6, ip, r0
    5c7c:	69701600 	ldmdbvs	r0!, {r9, sl, ip}^
    5c80:	7801006e 	stmdavc	r1, {r1, r2, r3, r5, r6}
    5c84:	00002c01 	andeq	r2, r0, r1, lsl #24
    5c88:	0025cd00 	eoreq	ip, r5, r0, lsl #26
    5c8c:	a3fc1100 	mvnsge	r1, #0, 2
    5c90:	087e0000 	ldmdaeq	lr!, {}^	; <UNPREDICTABLE>
    5c94:	180a0000 	stmdane	sl, {}	; <UNPREDICTABLE>
    5c98:	620000a4 	andvs	r0, r0, #164	; 0xa4
    5c9c:	80000008 	andhi	r0, r0, r8
    5ca0:	0b000006 	bleq	5cc0 <_start-0x2340>
    5ca4:	31045101 	tstcc	r4, r1, lsl #2
    5ca8:	00240074 	eoreq	r0, r4, r4, ror r0
    5cac:	00a4340a 	adceq	r3, r4, sl, lsl #8
    5cb0:	00086200 	andeq	r6, r8, r0, lsl #4
    5cb4:	00069600 	andeq	r9, r6, r0, lsl #12
    5cb8:	51010b00 	tstpl	r1, r0, lsl #22
    5cbc:	00743104 	rsbseq	r3, r4, r4, lsl #2
    5cc0:	38110024 	ldmdacc	r1, {r2, r5}
    5cc4:	7e0000a4 	cdpvc	0, 0, cr0, cr0, cr4, {5}
    5cc8:	00000008 	andeq	r0, r0, r8
    5ccc:	00151e19 	andseq	r1, r5, r9, lsl lr
    5cd0:	33280100 	teqcc	r8, #0, 2
    5cd4:	05000001 	streq	r0, [r0, #-1]
    5cd8:	00ab6c03 	adceq	r6, fp, r3, lsl #24
    5cdc:	15921900 	ldrne	r1, [r2, #2304]	; 0x900
    5ce0:	29010000 	stmdbcs	r1, {}	; <UNPREDICTABLE>
    5ce4:	00000133 	andeq	r0, r0, r3, lsr r1
    5ce8:	ab680305 	blge	1a06904 <__bss_end__+0x19fac1c>
    5cec:	0c190000 	ldceq	0, cr0, [r9], {-0}
    5cf0:	01000016 	tsteq	r0, r6, lsl r0
    5cf4:	0001332a 	andeq	r3, r1, sl, lsr #6
    5cf8:	64030500 	strvs	r0, [r3], #-1280	; 0x500
    5cfc:	190000ab 	stmdbne	r0, {r0, r1, r3, r5, r7}
    5d00:	000014f6 	strdeq	r1, [r0], -r6
    5d04:	01332c01 	teqeq	r3, r1, lsl #24
    5d08:	03050000 	movweq	r0, #20480	; 0x5000
    5d0c:	0000ab10 	andeq	sl, r0, r0, lsl fp
    5d10:	0014fe19 	andseq	pc, r4, r9, lsl lr	; <UNPREDICTABLE>
    5d14:	332d0100 	teqcc	sp, #0, 2
    5d18:	05000001 	streq	r0, [r0, #-1]
    5d1c:	00ab1403 	adceq	r1, fp, r3, lsl #8
    5d20:	14771900 	ldrbtne	r1, [r7], #-2304	; 0x900
    5d24:	2e010000 	cdpcs	0, 0, cr0, cr1, cr0, {0}
    5d28:	00000133 	andeq	r0, r0, r3, lsr r1
    5d2c:	ab180305 	blge	606948 <__bss_end__+0x5fac60>
    5d30:	06190000 	ldreq	r0, [r9], -r0
    5d34:	01000015 	tsteq	r0, r5, lsl r0
    5d38:	0001332f 	andeq	r3, r1, pc, lsr #6
    5d3c:	1c030500 	cfstr32ne	mvfx0, [r3], {-0}
    5d40:	190000ab 	stmdbne	r0, {r0, r1, r3, r5, r7}
    5d44:	0000150e 	andeq	r1, r0, lr, lsl #10
    5d48:	01333001 	teqeq	r3, r1
    5d4c:	03050000 	movweq	r0, #20480	; 0x5000
    5d50:	0000ab20 	andeq	sl, r0, r0, lsr #22
    5d54:	00151619 	andseq	r1, r5, r9, lsl r6
    5d58:	33310100 	teqcc	r1, #0, 2
    5d5c:	05000001 	streq	r0, [r0, #-1]
    5d60:	00ab2403 	adceq	r2, fp, r3, lsl #8
    5d64:	14c81900 	strbne	r1, [r8], #2304	; 0x900
    5d68:	33010000 	movwcc	r0, #4096	; 0x1000
    5d6c:	00000133 	andeq	r0, r0, r3, lsr r1
    5d70:	ab280305 	blge	a0698c <__bss_end__+0x9faca4>
    5d74:	cf190000 	svcgt	0x00190000
    5d78:	01000014 	tsteq	r0, r4, lsl r0
    5d7c:	00013334 	andeq	r3, r1, r4, lsr r3
    5d80:	2c030500 	cfstr32cs	mvfx0, [r3], {-0}
    5d84:	190000ab 	stmdbne	r0, {r0, r1, r3, r5, r7}
    5d88:	0000147f 	andeq	r1, r0, pc, ror r4
    5d8c:	01333601 	teqeq	r3, r1, lsl #12
    5d90:	03050000 	movweq	r0, #20480	; 0x5000
    5d94:	0000ab30 	andeq	sl, r0, r0, lsr fp
    5d98:	00152919 	andseq	r2, r5, r9, lsl r9
    5d9c:	33370100 	teqcc	r7, #0, 2
    5da0:	05000001 	streq	r0, [r0, #-1]
    5da4:	00ab3403 	adceq	r3, fp, r3, lsl #8
    5da8:	14df1900 	ldrbne	r1, [pc], #2304	; 5db0 <_start-0x2250>
    5dac:	39010000 	stmdbcc	r1, {}	; <UNPREDICTABLE>
    5db0:	00000133 	andeq	r0, r0, r3, lsr r1
    5db4:	ab380305 	blge	e069d0 <__bss_end__+0xdface8>
    5db8:	e6190000 	ldr	r0, [r9], -r0
    5dbc:	01000014 	tsteq	r0, r4, lsl r0
    5dc0:	0001333a 	andeq	r3, r1, sl, lsr r3
    5dc4:	3c030500 	cfstr32cc	mvfx0, [r3], {-0}
    5dc8:	1a0000ab 	bne	607c <_start-0x1f84>
    5dcc:	0000156e 	andeq	r1, r0, lr, ror #10
    5dd0:	33010901 	movwcc	r0, #6401	; 0x1901
    5dd4:	05000001 	streq	r0, [r0, #-1]
    5dd8:	00ab6003 	adceq	r6, fp, r3
    5ddc:	157c1a00 	ldrbne	r1, [ip, #-2560]!	; 0xa00
    5de0:	0a010000 	beq	45de8 <__bss_end__+0x3a100>
    5de4:	00013301 	andeq	r3, r1, r1, lsl #6
    5de8:	40030500 	andmi	r0, r3, r0, lsl #10
    5dec:	1a0000ab 	bne	60a0 <_start-0x1f60>
    5df0:	000015b7 			; <UNDEFINED> instruction: 0x000015b7
    5df4:	33010c01 	movwcc	r0, #7169	; 0x1c01
    5df8:	05000001 	streq	r0, [r0, #-1]
    5dfc:	00ab5803 	adceq	r5, fp, r3, lsl #16
    5e00:	15be1a00 	ldrne	r1, [lr, #2560]!	; 0xa00
    5e04:	0d010000 	stceq	0, cr0, [r1, #-0]
    5e08:	00013301 	andeq	r3, r1, r1, lsl #6
    5e0c:	5c030500 	cfstr32pl	mvfx0, [r3], {-0}
    5e10:	1a0000ab 	bne	60c4 <_start-0x1f3c>
    5e14:	0000154f 	andeq	r1, r0, pc, asr #10
    5e18:	33010f01 	movwcc	r0, #7937	; 0x1f01
    5e1c:	05000001 	streq	r0, [r0, #-1]
    5e20:	00ab4403 	adceq	r4, fp, r3, lsl #8
    5e24:	15561a00 	ldrbne	r1, [r6, #-2560]	; 0xa00
    5e28:	10010000 	andne	r0, r1, r0
    5e2c:	00013301 	andeq	r3, r1, r1, lsl #6
    5e30:	48030500 	stmdami	r3, {r8, sl}
    5e34:	1a0000ab 	bne	60e8 <_start-0x1f18>
    5e38:	000015d1 	ldrdeq	r1, [r0], -r1	; <UNPREDICTABLE>
    5e3c:	33011201 	movwcc	r1, #4609	; 0x1201
    5e40:	05000001 	streq	r0, [r0, #-1]
    5e44:	00ab5003 	adceq	r5, fp, r3
    5e48:	15d81a00 	ldrbne	r1, [r8, #2560]	; 0xa00
    5e4c:	13010000 	movwne	r0, #4096	; 0x1000
    5e50:	00013301 	andeq	r3, r1, r1, lsl #6
    5e54:	54030500 	strpl	r0, [r3], #-1280	; 0x500
    5e58:	1a0000ab 	bne	610c <_start-0x1ef4>
    5e5c:	00001486 	andeq	r1, r0, r6, lsl #9
    5e60:	33011501 	movwcc	r1, #5377	; 0x1501
    5e64:	05000001 	streq	r0, [r0, #-1]
    5e68:	00ab4c03 	adceq	r4, fp, r3, lsl #24
    5e6c:	110f1b00 	tstne	pc, r0, lsl #22
    5e70:	20010000 	andcs	r0, r1, r0
    5e74:	0000002c 	andeq	r0, r0, ip, lsr #32
    5e78:	00000856 	andeq	r0, r0, r6, asr r8
    5e7c:	0008561c 	andeq	r5, r8, ip, lsl r6
    5e80:	040d0000 	streq	r0, [sp], #-0
    5e84:	0000085c 	andeq	r0, r0, ip, asr r8
    5e88:	0008611d 	andeq	r6, r8, sp, lsl r1
    5e8c:	2d1f1e00 	ldccs	14, cr1, [pc, #-0]	; 5e94 <_start-0x216c>
    5e90:	01000010 	tsteq	r0, r0, lsl r0
    5e94:	0008781e 	andeq	r7, r8, lr, lsl r8
    5e98:	08781c00 	ldmdaeq	r8!, {sl, fp, ip}^
    5e9c:	2c1c0000 	ldccs	0, cr0, [ip], {-0}
    5ea0:	00000000 	andeq	r0, r0, r0
    5ea4:	0861040d 	stmdaeq	r1!, {r0, r2, r3, sl}^
    5ea8:	09200000 	stmdbeq	r0!, {}	; <UNPREDICTABLE>
    5eac:	03000006 	movweq	r0, #6
    5eb0:	03ee008a 	mvneq	r0, #138	; 0x8a
    5eb4:	00040000 	andeq	r0, r4, r0
    5eb8:	0000146d 	andeq	r1, r0, sp, ror #8
    5ebc:	11f30104 	mvnsne	r0, r4, lsl #2
    5ec0:	4f010000 	svcmi	0x00010000
    5ec4:	5e000016 	mcrpl	0, 0, r0, cr0, cr6, {0}
    5ec8:	40000012 	andmi	r0, r0, r2, lsl r0
    5ecc:	e80000a4 	stmda	r0, {r2, r5, r7}
    5ed0:	a1000001 	tstge	r0, r1
    5ed4:	02000010 	andeq	r0, r0, #16
    5ed8:	6e690504 	cdpvs	5, 6, cr0, cr9, cr4, {0}
    5edc:	16030074 			; <UNDEFINED> instruction: 0x16030074
    5ee0:	03000016 	movweq	r0, #22
    5ee4:	000037d4 	ldrdeq	r3, [r0], -r4
    5ee8:	07040400 	streq	r0, [r4, -r0, lsl #8]
    5eec:	0000024a 	andeq	r0, r0, sl, asr #4
    5ef0:	ee060104 	adfs	f0, f6, f4
    5ef4:	04000007 	streq	r0, [r0], #-7
    5ef8:	06440502 	strbeq	r0, [r4], -r2, lsl #10
    5efc:	04040000 	streq	r0, [r4], #-0
    5f00:	00043e05 	andeq	r3, r4, r5, lsl #28
    5f04:	05080400 	streq	r0, [r8, #-1024]	; 0x400
    5f08:	00000439 	andeq	r0, r0, r9, lsr r4
    5f0c:	ec080104 	stfs	f0, [r8], {4}
    5f10:	04000007 	streq	r0, [r0], #-7
    5f14:	08ac0702 	stmiaeq	ip!, {r1, r8, r9, sl}
    5f18:	04040000 	streq	r0, [r4], #-0
    5f1c:	00024507 	andeq	r4, r2, r7, lsl #10
    5f20:	07080400 	streq	r0, [r8, -r0, lsl #8]
    5f24:	00000240 	andeq	r0, r0, r0, asr #4
    5f28:	85070404 	strhi	r0, [r7, #-1028]	; 0x404
    5f2c:	05000007 	streq	r0, [r0, #-7]
    5f30:	85040604 	strhi	r0, [r4, #-1540]	; 0x604
    5f34:	04000000 	streq	r0, [r0], #-0
    5f38:	07f50801 	ldrbeq	r0, [r5, r1, lsl #16]!
    5f3c:	04060000 	streq	r0, [r6], #-0
    5f40:	00000092 	muleq	r0, r2, r0
    5f44:	00008507 	andeq	r8, r0, r7, lsl #10
    5f48:	00850800 	addeq	r0, r5, r0, lsl #16
    5f4c:	00a70000 	adceq	r0, r7, r0
    5f50:	76090000 	strvc	r0, [r9], -r0
    5f54:	07000000 	streq	r0, [r0, -r0]
    5f58:	09360a00 	ldmdbeq	r6!, {r9, fp}
    5f5c:	19010000 	stmdbne	r1, {}	; <UNPREDICTABLE>
    5f60:	0000007d 	andeq	r0, r0, sp, ror r0
    5f64:	0000a440 	andeq	sl, r0, r0, asr #8
    5f68:	00000074 	andeq	r0, r0, r4, ror r0
    5f6c:	01569c01 	cmpeq	r6, r1, lsl #24
    5f70:	870b0000 	strhi	r0, [fp, -r0]
    5f74:	01000016 	tsteq	r0, r6, lsl r0
    5f78:	00003719 	andeq	r3, r0, r9, lsl r7
    5f7c:	0025f900 	eoreq	pc, r5, r0, lsl #18
    5f80:	006c0c00 	rsbeq	r0, ip, r0, lsl #24
    5f84:	01560000 	cmpeq	r6, r0
    5f88:	03050000 	movweq	r0, #20480	; 0x5000
    5f8c:	0000b4dc 	ldrdeq	fp, [r0], -ip
    5f90:	0016b60d 	andseq	fp, r6, sp, lsl #12
    5f94:	7d1c0100 	ldfvcs	f0, [ip, #-0]
    5f98:	01000000 	mrseq	r0, (UNDEF: 0)
    5f9c:	167f0e55 			; <UNDEFINED> instruction: 0x167f0e55
    5fa0:	1d010000 	stcne	0, cr0, [r1, #-0]
    5fa4:	00000037 	andeq	r0, r0, r7, lsr r0
    5fa8:	00002633 	andeq	r2, r0, r3, lsr r6
    5fac:	00a4580f 	adceq	r5, r4, pc, lsl #16
    5fb0:	0003b200 	andeq	fp, r3, r0, lsl #4
    5fb4:	a46c1000 	strbtge	r1, [ip], #-0
    5fb8:	03b90000 			; <UNDEFINED> instruction: 0x03b90000
    5fbc:	01310000 	teqeq	r1, r0
    5fc0:	01110000 	tsteq	r1, r0
    5fc4:	114a0153 	cmpne	sl, r3, asr r1
    5fc8:	03055201 	movweq	r5, #20993	; 0x5201
    5fcc:	0000b4dc 	ldrdeq	fp, [r0], -ip
    5fd0:	05510111 	ldrbeq	r0, [r1, #-273]	; 0x111
    5fd4:	00b55c03 	adcseq	r5, r5, r3, lsl #24
    5fd8:	50011100 	andpl	r1, r1, r0, lsl #2
    5fdc:	b51c0305 	ldrlt	r0, [ip, #-773]	; 0x305
    5fe0:	0f000000 	svceq	0x00000000
    5fe4:	0000a470 	andeq	sl, r0, r0, ror r4
    5fe8:	000003cf 	andeq	r0, r0, pc, asr #7
    5fec:	00a49012 	adceq	r9, r4, r2, lsl r0
    5ff0:	0003d600 	andeq	sp, r3, r0, lsl #12
    5ff4:	52011100 	andpl	r1, r1, #0, 2
    5ff8:	11007602 	tstne	r0, r2, lsl #12
    5ffc:	30015101 	andcc	r5, r1, r1, lsl #2
    6000:	02500111 	subseq	r0, r0, #1073741828	; 0x40000004
    6004:	00000075 	andeq	r0, r0, r5, ror r0
    6008:	00009707 	andeq	r9, r0, r7, lsl #14
    600c:	161d0a00 	ldrne	r0, [sp], -r0, lsl #20
    6010:	27010000 	strcs	r0, [r1, -r0]
    6014:	0000007d 	andeq	r0, r0, sp, ror r0
    6018:	0000a4b4 			; <UNDEFINED> instruction: 0x0000a4b4
    601c:	0000009c 	muleq	r0, ip, r0
    6020:	02459c01 	subeq	r9, r5, #256	; 0x100
    6024:	870b0000 	strhi	r0, [fp, -r0]
    6028:	01000016 	tsteq	r0, r6, lsl r0
    602c:	00003727 	andeq	r3, r0, r7, lsr #14
    6030:	00265900 	eoreq	r5, r6, r0, lsl #18
    6034:	16750b00 	ldrbtne	r0, [r5], -r0, lsl #22
    6038:	27010000 	strcs	r0, [r1, -r0]
    603c:	00000037 	andeq	r0, r0, r7, lsr r0
    6040:	000026c5 	andeq	r2, r0, r5, asr #13
    6044:	00006c0c 	andeq	r6, r0, ip, lsl #24
    6048:	00025500 	andeq	r5, r2, r0, lsl #10
    604c:	e4030500 	str	r0, [r3], #-1280	; 0x500
    6050:	0e0000b4 	mcreq	0, 0, r0, cr0, cr4, {5}
    6054:	00001637 	andeq	r1, r0, r7, lsr r6
    6058:	00372d01 	eorseq	r2, r7, r1, lsl #26
    605c:	273f0000 	ldrcs	r0, [pc, -r0]!
    6060:	cc0f0000 	stcgt	0, cr0, [pc], {-0}
    6064:	b20000a4 	andlt	r0, r0, #164	; 0xa4
    6068:	10000003 	andne	r0, r0, r3
    606c:	0000a4e0 	andeq	sl, r0, r0, ror #9
    6070:	000003b9 			; <UNDEFINED> instruction: 0x000003b9
    6074:	000001e8 	andeq	r0, r0, r8, ror #3
    6078:	02530111 	subseq	r0, r3, #1073741828	; 0x40000004
    607c:	01112808 	tsteq	r1, r8, lsl #16
    6080:	e4030552 	str	r0, [r3], #-1362	; 0x552
    6084:	110000b4 	strhne	r0, [r0, -r4]
    6088:	03055101 	movweq	r5, #20737	; 0x5101
    608c:	0000b55c 	andeq	fp, r0, ip, asr r5
    6090:	05500111 	ldrbeq	r0, [r0, #-273]	; 0x111
    6094:	00b51c03 	adcseq	r1, r5, r3, lsl #24
    6098:	e40f0000 	str	r0, [pc], #-0	; 60a0 <_start-0x1f60>
    609c:	cf0000a4 	svcgt	0x000000a4
    60a0:	0f000003 	svceq	0x00000003
    60a4:	0000a4f0 	strdeq	sl, [r0], -r0
    60a8:	000000a7 	andeq	r0, r0, r7, lsr #1
    60ac:	00a5000f 	adceq	r0, r5, pc
    60b0:	0003b200 	andeq	fp, r3, r0, lsl #4
    60b4:	a5141000 	ldrge	r1, [r4, #-0]
    60b8:	03b90000 			; <UNDEFINED> instruction: 0x03b90000
    60bc:	02320000 	eorseq	r0, r2, #0
    60c0:	01110000 	tsteq	r1, r0
    60c4:	2c080253 	sfmcs	f0, 4, [r8], {83}	; 0x53
    60c8:	05520111 	ldrbeq	r0, [r2, #-273]	; 0x111
    60cc:	00b4e403 	adcseq	lr, r4, r3, lsl #8
    60d0:	51011100 	mrspl	r1, (UNDEF: 17)
    60d4:	b55c0305 	ldrblt	r0, [ip, #-773]	; 0x305
    60d8:	01110000 	tsteq	r1, r0
    60dc:	70030550 	andvc	r0, r3, r0, asr r5
    60e0:	000000b5 	strheq	r0, [r0], -r5
    60e4:	00a5180f 	adceq	r1, r5, pc, lsl #16
    60e8:	0003cf00 	andeq	ip, r3, r0, lsl #30
    60ec:	a5380f00 	ldrge	r0, [r8, #-3840]!	; 0xf00
    60f0:	00a70000 	adceq	r0, r7, r0
    60f4:	08000000 	stmdaeq	r0, {}	; <UNPREDICTABLE>
    60f8:	00000085 	andeq	r0, r0, r5, lsl #1
    60fc:	00000255 	andeq	r0, r0, r5, asr r2
    6100:	00007609 	andeq	r7, r0, r9, lsl #12
    6104:	07000f00 	streq	r0, [r0, -r0, lsl #30]
    6108:	00000245 	andeq	r0, r0, r5, asr #4
    610c:	0008e213 	andeq	lr, r8, r3, lsl r2
    6110:	503c0100 	eorspl	r0, ip, r0, lsl #2
    6114:	5c0000a5 	stcpl	0, cr0, [r0], {165}	; 0xa5
    6118:	01000000 	mrseq	r0, (UNDEF: 0)
    611c:	0002c09c 	muleq	r2, ip, r0
    6120:	006c0c00 	rsbeq	r0, ip, r0, lsl #24
    6124:	02d00000 	sbcseq	r0, r0, #0
    6128:	03050000 	movweq	r0, #20480	; 0x5000
    612c:	0000b4f4 	strdeq	fp, [r0], -r4
    6130:	00a5680f 	adceq	r6, r5, pc, lsl #16
    6134:	0003b200 	andeq	fp, r3, r0, lsl #4
    6138:	a57c1000 	ldrbge	r1, [ip, #-0]!
    613c:	03b90000 			; <UNDEFINED> instruction: 0x03b90000
    6140:	02b60000 	adcseq	r0, r6, #0
    6144:	01110000 	tsteq	r1, r0
    6148:	3d080253 	sfmcc	f0, 4, [r8, #-332]	; 0xfffffeb4
    614c:	05520111 	ldrbeq	r0, [r2, #-273]	; 0x111
    6150:	00b4f403 	adcseq	pc, r4, r3, lsl #8
    6154:	51011100 	mrspl	r1, (UNDEF: 17)
    6158:	b55c0305 	ldrblt	r0, [ip, #-773]	; 0x305
    615c:	01110000 	tsteq	r1, r0
    6160:	c8030550 	stmdagt	r3, {r4, r6, r8, sl}
    6164:	000000b5 	strheq	r0, [r0], -r5
    6168:	00a5800f 	adceq	r8, r5, pc
    616c:	0003cf00 	andeq	ip, r3, r0, lsl #30
    6170:	85080000 	strhi	r0, [r8, #-0]
    6174:	d0000000 	andle	r0, r0, r0
    6178:	09000002 	stmdbeq	r0, {r1}
    617c:	00000076 	andeq	r0, r0, r6, ror r0
    6180:	c007000c 	andgt	r0, r7, ip
    6184:	14000002 	strne	r0, [r0], #-2
    6188:	0000162d 	andeq	r1, r0, sp, lsr #12
    618c:	a5ac4601 	strge	r4, [ip, #1537]!	; 0x601
    6190:	00180000 	andseq	r0, r8, r0
    6194:	9c010000 	stcls	0, cr0, [r1], {-0}
    6198:	00168e15 	andseq	r8, r6, r5, lsl lr
    619c:	7d4f0100 	stfvce	f0, [pc, #-0]	; 61a4 <_start-0x1e5c>
    61a0:	c4000000 	strgt	r0, [r0], #-0
    61a4:	100000a5 	andne	r0, r0, r5, lsr #1
    61a8:	01000000 	mrseq	r0, (UNDEF: 0)
    61ac:	169f139c 			; <UNDEFINED> instruction: 0x169f139c
    61b0:	53010000 	movwpl	r0, #4096	; 0x1000
    61b4:	0000a5d4 	ldrdeq	sl, [r0], -r4
    61b8:	00000054 	andeq	r0, r0, r4, asr r0
    61bc:	03709c01 	cmneq	r0, #256	; 0x100
    61c0:	600b0000 	andvs	r0, fp, r0
    61c4:	01000016 	tsteq	r0, r6, lsl r0
    61c8:	00003753 	andeq	r3, r0, r3, asr r7
    61cc:	00276c00 	eoreq	r6, r7, r0, lsl #24
    61d0:	006c0c00 	rsbeq	r0, ip, r0, lsl #24
    61d4:	03800000 	orreq	r0, r0, #0
    61d8:	03050000 	movweq	r0, #20480	; 0x5000
    61dc:	0000b504 	andeq	fp, r0, r4, lsl #10
    61e0:	00a5ec0f 	adceq	lr, r5, pc, lsl #24
    61e4:	0003b200 	andeq	fp, r3, r0, lsl #4
    61e8:	a6001000 	strge	r1, [r0], -r0
    61ec:	03b90000 			; <UNDEFINED> instruction: 0x03b90000
    61f0:	03660000 	cmneq	r6, #0
    61f4:	01110000 	tsteq	r1, r0
    61f8:	54080253 	strpl	r0, [r8], #-595	; 0x253
    61fc:	05520111 	ldrbeq	r0, [r2, #-273]	; 0x111
    6200:	00b50403 	adcseq	r0, r5, r3, lsl #8
    6204:	51011100 	mrspl	r1, (UNDEF: 17)
    6208:	b55c0305 	ldrblt	r0, [ip, #-773]	; 0x305
    620c:	01110000 	tsteq	r1, r0
    6210:	c8030550 	stmdagt	r3, {r4, r6, r8, sl}
    6214:	000000b5 	strheq	r0, [r0], -r5
    6218:	00a6040f 	adceq	r0, r6, pc, lsl #8
    621c:	0003cf00 	andeq	ip, r3, r0, lsl #30
    6220:	85080000 	strhi	r0, [r8, #-0]
    6224:	80000000 	andhi	r0, r0, r0
    6228:	09000003 	stmdbeq	r0, {r0, r1}
    622c:	00000076 	andeq	r0, r0, r6, ror r0
    6230:	70070016 	andvc	r0, r7, r6, lsl r0
    6234:	0d000003 	stceq	0, cr0, [r0, #-12]
    6238:	0000166e 	andeq	r1, r0, lr, ror #12
    623c:	00250801 	eoreq	r0, r5, r1, lsl #16
    6240:	03050000 	movweq	r0, #20480	; 0x5000
    6244:	0000bcd8 	ldrdeq	fp, [r0], -r8
    6248:	0016960d 	andseq	r9, r6, sp, lsl #12
    624c:	7f0b0100 	svcvc	0x000b0100
    6250:	05000000 	streq	r0, [r0, #-0]
    6254:	00bcdc03 	adcseq	sp, ip, r3, lsl #24
    6258:	16c21600 	strbne	r1, [r2], r0, lsl #12
    625c:	05010000 	streq	r0, [r1, #-0]
    6260:	00000085 	andeq	r0, r0, r5, lsl #1
    6264:	00001017 	andeq	r1, r0, r7, lsl r0
    6268:	181e0200 	ldmdane	lr, {r9}
    626c:	0000124d 	andeq	r1, r0, sp, asr #4
    6270:	00252902 	eoreq	r2, r5, r2, lsl #18
    6274:	03cf0000 	biceq	r0, pc, #0
    6278:	8c190000 	ldchi	0, cr0, [r9], {-0}
    627c:	1a000000 	bne	6284 <_start-0x1d7c>
    6280:	05f31700 	ldrbeq	r1, [r3, #1792]!	; 0x700
    6284:	66020000 	strvs	r0, [r2], -r0
    6288:	0016481b 	andseq	r4, r6, fp, lsl r8
    628c:	7d1b0400 	cfldrsvc	mvf0, [fp, #-0]
    6290:	19000000 	stmdbne	r0, {}	; <UNPREDICTABLE>
    6294:	0000007d 	andeq	r0, r0, sp, ror r0
    6298:	00002519 	andeq	r2, r0, r9, lsl r5
    629c:	002c1900 	eoreq	r1, ip, r0, lsl #18
    62a0:	00000000 	andeq	r0, r0, r0
    62a4:	000003ff 	strdeq	r0, [r0], -pc	; <UNPREDICTABLE>
    62a8:	15f40004 	ldrbne	r0, [r4, #4]!
    62ac:	01040000 	mrseq	r0, (UNDEF: 4)
    62b0:	000011f3 	strdeq	r1, [r0], -r3
    62b4:	0017a201 	andseq	sl, r7, r1, lsl #4
    62b8:	00125e00 	andseq	r5, r2, r0, lsl #28
    62bc:	00a62800 	adceq	r2, r6, r0, lsl #16
    62c0:	00015400 	andeq	r5, r1, r0, lsl #8
    62c4:	00121b00 	andseq	r1, r2, r0, lsl #22
    62c8:	05040200 	streq	r0, [r4, #-512]	; 0x200
    62cc:	00746e69 	rsbseq	r6, r4, r9, ror #28
    62d0:	4a070403 	bmi	1c72e4 <__bss_end__+0x1bb5fc>
    62d4:	03000002 	movweq	r0, #2
    62d8:	07ee0601 	strbeq	r0, [lr, r1, lsl #12]!
    62dc:	02030000 	andeq	r0, r3, #0
    62e0:	00064405 	andeq	r4, r6, r5, lsl #8
    62e4:	05040300 	streq	r0, [r4, #-768]	; 0x300
    62e8:	0000043e 	andeq	r0, r0, lr, lsr r4
    62ec:	39050803 	stmdbcc	r5, {r0, r1, fp}
    62f0:	03000004 	movweq	r0, #4
    62f4:	07ec0801 	strbeq	r0, [ip, r1, lsl #16]!
    62f8:	02030000 	andeq	r0, r3, #0
    62fc:	0008ac07 	andeq	sl, r8, r7, lsl #24
    6300:	07040300 	streq	r0, [r4, -r0, lsl #6]
    6304:	00000245 	andeq	r0, r0, r5, asr #4
    6308:	40070803 	andmi	r0, r7, r3, lsl #16
    630c:	03000002 	movweq	r0, #2
    6310:	07850704 	streq	r0, [r5, r4, lsl #14]
    6314:	01030000 	mrseq	r0, (UNDEF: 3)
    6318:	0007f508 	andeq	pc, r7, r8, lsl #10
    631c:	02010400 	andeq	r0, r1, #0, 8
    6320:	0000b20c 	andeq	fp, r0, ip, lsl #4
    6324:	0c8a0500 	cfstr32eq	mvfx0, [sl], {0}
    6328:	05000000 	streq	r0, [r0, #-0]
    632c:	000010f4 	strdeq	r1, [r0], -r4
    6330:	11360501 	teqne	r6, r1, lsl #10
    6334:	05040000 	streq	r0, [r4, #-0]
    6338:	00000cd9 	ldrdeq	r0, [r0], -r9
    633c:	0ebf0505 	cdpeq	5, 11, cr0, cr15, cr5, {0}
    6340:	05060000 	streq	r0, [r6, #-0]
    6344:	00001153 	andeq	r1, r0, r3, asr r1
    6348:	11620507 	cmnne	r2, r7, lsl #10
    634c:	05030000 	streq	r0, [r3, #-0]
    6350:	00001171 	andeq	r1, r0, r1, ror r1
    6354:	f5060002 			; <UNDEFINED> instruction: 0xf5060002
    6358:	02000015 	andeq	r0, r0, #21
    635c:	00007915 	andeq	r7, r0, r5, lsl r9
    6360:	08880700 	stmeq	r8, {r8, r9, sl}
    6364:	37010000 	strcc	r0, [r1, -r0]
    6368:	0000a628 	andeq	sl, r0, r8, lsr #12
    636c:	0000009c 	muleq	r0, ip, r0
    6370:	01c39c01 	biceq	r9, r3, r1, lsl #24
    6374:	30080000 	andcc	r0, r8, r0
    6378:	a80000a6 	stmdage	r0, {r1, r2, r5, r7}
    637c:	09000003 	stmdbeq	r0, {r0, r1}
    6380:	0000a63c 	andeq	sl, r0, ip, lsr r6
    6384:	000003af 	andeq	r0, r0, pc, lsr #7
    6388:	000000f3 	strdeq	r0, [r0], -r3
    638c:	0151010a 	cmpeq	r1, sl, lsl #2
    6390:	50010a32 	andpl	r0, r1, r2, lsr sl
    6394:	09003e01 	stmdbeq	r0, {r0, r9, sl, fp, ip, sp}
    6398:	0000a648 	andeq	sl, r0, r8, asr #12
    639c:	000003af 	andeq	r0, r0, pc, lsr #7
    63a0:	0000010b 	andeq	r0, r0, fp, lsl #2
    63a4:	0151010a 	cmpeq	r1, sl, lsl #2
    63a8:	50010a32 	andpl	r0, r1, r2, lsr sl
    63ac:	08003f01 	stmdaeq	r0, {r0, r8, r9, sl, fp, ip, sp}
    63b0:	0000a64c 	andeq	sl, r0, ip, asr #12
    63b4:	000003a8 	andeq	r0, r0, r8, lsr #7
    63b8:	00a65c09 	adceq	r5, r6, r9, lsl #24
    63bc:	0003c500 	andeq	ip, r3, r0, lsl #10
    63c0:	00012800 	andeq	r2, r1, r0, lsl #16
    63c4:	50010a00 	andpl	r0, r1, r0, lsl #20
    63c8:	00007502 	andeq	r7, r0, r2, lsl #10
    63cc:	00a66809 	adceq	r6, r6, r9, lsl #16
    63d0:	0003e600 	andeq	lr, r3, r0, lsl #12
    63d4:	00013c00 	andeq	r3, r1, r0, lsl #24
    63d8:	50010a00 	andpl	r0, r1, r0, lsl #20
    63dc:	00007502 	andeq	r7, r0, r2, lsl #10
    63e0:	00a66c08 	adceq	r6, r6, r8, lsl #24
    63e4:	0003a800 	andeq	sl, r3, r0, lsl #16
    63e8:	a6780900 	ldrbtge	r0, [r8], -r0, lsl #18
    63ec:	03e60000 	mvneq	r0, #0
    63f0:	01580000 	cmpeq	r8, r0
    63f4:	010a0000 	mrseq	r0, (UNDEF: 10)
    63f8:	00300151 	eorseq	r0, r0, r1, asr r1
    63fc:	00a68409 	adceq	r8, r6, r9, lsl #8
    6400:	0003e600 	andeq	lr, r3, r0, lsl #12
    6404:	00016b00 	andeq	r6, r1, r0, lsl #22
    6408:	51010a00 	tstpl	r1, r0, lsl #20
    640c:	09003001 	stmdbeq	r0, {r0, ip, sp}
    6410:	0000a690 	muleq	r0, r0, r6
    6414:	000003e6 	andeq	r0, r0, r6, ror #7
    6418:	0000017e 	andeq	r0, r0, lr, ror r1
    641c:	0151010a 	cmpeq	r1, sl, lsl #2
    6420:	9c090036 	stcls	0, cr0, [r9], {54}	; 0x36
    6424:	e60000a6 	str	r0, [r0], -r6, lsr #1
    6428:	91000003 	tstls	r0, r3
    642c:	0a000001 	beq	6438 <_start-0x1bc8>
    6430:	33015101 	movwcc	r5, #4353	; 0x1101
    6434:	a6a80900 	strtge	r0, [r8], r0, lsl #18
    6438:	03e60000 	mvneq	r0, #0
    643c:	01a60000 			; <UNDEFINED> instruction: 0x01a60000
    6440:	010a0000 	mrseq	r0, (UNDEF: 10)
    6444:	0e0a0351 	mcreq	3, 0, r0, cr10, cr1, {2}
    6448:	b4090001 	strlt	r0, [r9], #-1
    644c:	e60000a6 	str	r0, [r0], -r6, lsr #1
    6450:	b9000003 	stmdblt	r0, {r0, r1}
    6454:	0a000001 	beq	6460 <_start-0x1ba0>
    6458:	33015101 	movwcc	r5, #4353	; 0x1101
    645c:	a6b80800 	ldrtge	r0, [r8], r0, lsl #16
    6460:	03a80000 			; <UNDEFINED> instruction: 0x03a80000
    6464:	0b000000 	bleq	646c <_start-0x1b94>
    6468:	000016fd 	strdeq	r1, [r0], -sp
    646c:	00255701 	eoreq	r5, r5, r1, lsl #14
    6470:	a6c40000 	strbge	r0, [r4], r0
    6474:	001c0000 	andseq	r0, ip, r0
    6478:	9c010000 	stcls	0, cr0, [r1], {-0}
    647c:	000001e6 	andeq	r0, r0, r6, ror #3
    6480:	00a6d408 	adceq	sp, r6, r8, lsl #8
    6484:	0003c500 	andeq	ip, r3, r0, lsl #10
    6488:	380b0000 	stmdacc	fp, {}	; <UNPREDICTABLE>
    648c:	01000017 	tsteq	r0, r7, lsl r0
    6490:	0000255d 	andeq	r2, r0, sp, asr r5
    6494:	00a6e000 	adceq	lr, r6, r0
    6498:	00002800 	andeq	r2, r0, r0, lsl #16
    649c:	129c0100 	addsne	r0, ip, #0, 2
    64a0:	08000002 	stmdaeq	r0, {r1}
    64a4:	0000a6e8 	andeq	sl, r0, r8, ror #13
    64a8:	000001c3 	andeq	r0, r0, r3, asr #3
    64ac:	00a6fc08 	adceq	pc, r6, r8, lsl #24
    64b0:	0003c500 	andeq	ip, r3, r0, lsl #10
    64b4:	510b0000 	mrspl	r0, (UNDEF: 11)
    64b8:	01000017 	tsteq	r0, r7, lsl r0
    64bc:	00002564 	andeq	r2, r0, r4, ror #10
    64c0:	00a70800 	adceq	r0, r7, r0, lsl #16
    64c4:	00001c00 	andeq	r1, r0, r0, lsl #24
    64c8:	359c0100 	ldrcc	r0, [ip, #256]	; 0x100
    64cc:	08000002 	stmdaeq	r0, {r1}
    64d0:	0000a718 	andeq	sl, r0, r8, lsl r7
    64d4:	000003c5 	andeq	r0, r0, r5, asr #7
    64d8:	12a70700 	adcne	r0, r7, #0, 14
    64dc:	6a010000 	bvs	464e4 <__bss_end__+0x3a7fc>
    64e0:	0000a724 	andeq	sl, r0, r4, lsr #14
    64e4:	0000002c 	andeq	r0, r0, ip, lsr #32
    64e8:	02719c01 	rsbseq	r9, r1, #256	; 0x100
    64ec:	630c0000 	movwvs	r0, #49152	; 0xc000
    64f0:	2c6a0100 	stfcse	f0, [sl], #-0
    64f4:	98000000 	stmdals	r0, {}	; <UNPREDICTABLE>
    64f8:	08000027 	stmdaeq	r0, {r0, r1, r2, r5}
    64fc:	0000a730 	andeq	sl, r0, r0, lsr r7
    6500:	00000212 	andeq	r0, r0, r2, lsl r2
    6504:	00a7480d 	adceq	r4, r7, sp, lsl #16
    6508:	0003e600 	andeq	lr, r3, r0, lsl #12
    650c:	51010a00 	tstpl	r1, r0, lsl #20
    6510:	00007402 	andeq	r7, r0, r2, lsl #8
    6514:	171b0b00 	ldrne	r0, [fp, -r0, lsl #22]
    6518:	74010000 	strvc	r0, [r1], #-0
    651c:	00000025 	andeq	r0, r0, r5, lsr #32
    6520:	0000a750 	andeq	sl, r0, r0, asr r7
    6524:	0000000c 	andeq	r0, r0, ip
    6528:	02949c01 	addseq	r9, r4, #256	; 0x100
    652c:	58080000 	stmdapl	r8, {}	; <UNPREDICTABLE>
    6530:	c30000a7 	movwgt	r0, #167	; 0xa7
    6534:	00000001 	andeq	r0, r0, r1
    6538:	0017ce0b 	andseq	ip, r7, fp, lsl #28
    653c:	25780100 	ldrbcs	r0, [r8, #-256]!	; 0x100
    6540:	5c000000 	stcpl	0, cr0, [r0], {-0}
    6544:	200000a7 	andcs	r0, r0, r7, lsr #1
    6548:	01000000 	mrseq	r0, (UNDEF: 0)
    654c:	0002c09c 	muleq	r2, ip, r0
    6550:	a7640800 	strbge	r0, [r4, -r0, lsl #16]!
    6554:	02710000 	rsbseq	r0, r1, #0
    6558:	70080000 	andvc	r0, r8, r0
    655c:	e60000a7 	str	r0, [r0], -r7, lsr #1
    6560:	00000001 	andeq	r0, r0, r1
    6564:	00176b0e 	andseq	r6, r7, lr, lsl #22
    6568:	d1160100 	tstle	r6, r0, lsl #2
    656c:	05000002 	streq	r0, [r0, #-2]
    6570:	00aba003 	adceq	sl, fp, r3
    6574:	d7040f00 	strle	r0, [r4, -r0, lsl #30]
    6578:	10000002 	andne	r0, r0, r2
    657c:	0000002c 	andeq	r0, r0, ip, lsr #32
    6580:	00175f0e 	andseq	r5, r7, lr, lsl #30
    6584:	d1170100 	tstle	r7, r0, lsl #2
    6588:	05000002 	streq	r0, [r0, #-2]
    658c:	00ab7003 	adceq	r7, fp, r3
    6590:	16e00e00 	strbtne	r0, [r0], r0, lsl #28
    6594:	1a010000 	bne	4659c <__bss_end__+0x3a8b4>
    6598:	000002d1 	ldrdeq	r0, [r0], -r1
    659c:	ab8c0305 	blge	fe3071b8 <__bss_end__+0xfe2fb4d0>
    65a0:	290e0000 	stmdbcs	lr, {}	; <UNPREDICTABLE>
    65a4:	01000017 	tsteq	r0, r7, lsl r0
    65a8:	0002d11b 	andeq	sp, r2, fp, lsl r1
    65ac:	78030500 	stmdavc	r3, {r8, sl}
    65b0:	0e0000ab 	cdpeq	0, 0, cr0, cr0, cr11, {5}
    65b4:	00001742 	andeq	r1, r0, r2, asr #14
    65b8:	02d11c01 	sbcseq	r1, r1, #256	; 0x100
    65bc:	03050000 	movweq	r0, #20480	; 0x5000
    65c0:	0000ab7c 	andeq	sl, r0, ip, ror fp
    65c4:	0017b00e 	andseq	fp, r7, lr
    65c8:	d11d0100 	tstle	sp, r0, lsl #2
    65cc:	05000002 	streq	r0, [r0, #-2]
    65d0:	00ab8003 	adceq	r8, fp, r3
    65d4:	16d10e00 	ldrbne	r0, [r1], r0, lsl #28
    65d8:	1e010000 	cdpne	0, 0, cr0, cr1, cr0, {0}
    65dc:	000002d1 	ldrdeq	r0, [r0], -r1
    65e0:	ab9c0305 	blge	fe7071fc <__bss_end__+0xfe6fb514>
    65e4:	bf0e0000 	svclt	0x000e0000
    65e8:	01000017 	tsteq	r0, r7, lsl r0
    65ec:	0002d11f 	andeq	sp, r2, pc, lsl r1
    65f0:	88030500 	stmdahi	r3, {r8, sl}
    65f4:	0e0000ab 	cdpeq	0, 0, cr0, cr0, cr11, {5}
    65f8:	000016ee 	andeq	r1, r0, lr, ror #13
    65fc:	02d12001 	sbcseq	r2, r1, #1
    6600:	03050000 	movweq	r0, #20480	; 0x5000
    6604:	0000ab98 	muleq	r0, r8, fp
    6608:	0017930e 	andseq	r9, r7, lr, lsl #6
    660c:	d1210100 	teqle	r1, r0, lsl #2
    6610:	05000002 	streq	r0, [r0, #-2]
    6614:	00ab9403 	adceq	r9, fp, r3, lsl #8
    6618:	170b0e00 	strne	r0, [fp, -r0, lsl #28]
    661c:	22010000 	andcs	r0, r1, #0
    6620:	000002d1 	ldrdeq	r0, [r0], -r1
    6624:	ab740305 	blge	1d07240 <__bss_end__+0x1cfb558>
    6628:	830e0000 	movwhi	r0, #57344	; 0xe000
    662c:	01000017 	tsteq	r0, r7, lsl r0
    6630:	0002d123 	andeq	sp, r2, r3, lsr #2
    6634:	90030500 	andls	r0, r3, r0, lsl #10
    6638:	0e0000ab 	cdpeq	0, 0, cr0, cr0, cr11, {5}
    663c:	00001773 	andeq	r1, r0, r3, ror r7
    6640:	02d12401 	sbcseq	r2, r1, #16777216	; 0x1000000
    6644:	03050000 	movweq	r0, #20480	; 0x5000
    6648:	0000ab84 	andeq	sl, r0, r4, lsl #23
    664c:	00060911 	andeq	r0, r6, r1, lsl r9
    6650:	128a0300 	addne	r0, sl, #0, 6
    6654:	00000d33 	andeq	r0, r0, r3, lsr sp
    6658:	03c51902 	biceq	r1, r5, #32768	; 0x8000
    665c:	2c130000 	ldccs	0, cr0, [r3], {-0}
    6660:	13000000 	movwne	r0, #0
    6664:	000000b2 	strheq	r0, [r0], -r2
    6668:	110f1400 	tstne	pc, r0, lsl #8
    666c:	a9030000 	stmdbge	r3, {}	; <UNPREDICTABLE>
    6670:	0000002c 	andeq	r0, r0, ip, lsr #32
    6674:	000003da 	ldrdeq	r0, [r0], -sl
    6678:	0003da13 	andeq	sp, r3, r3, lsl sl
    667c:	040f0000 	streq	r0, [pc], #-0	; 6684 <_start-0x197c>
    6680:	000003e0 	andeq	r0, r0, r0, ror #7
    6684:	0003e515 	andeq	lr, r3, r5, lsl r5
    6688:	2d121600 	ldccs	6, cr1, [r2, #-0]
    668c:	03000010 	movweq	r0, #16
    6690:	0003fc9d 	muleq	r3, sp, ip
    6694:	03fc1300 	mvnseq	r1, #0, 6
    6698:	2c130000 	ldccs	0, cr0, [r3], {-0}
    669c:	00000000 	andeq	r0, r0, r0
    66a0:	03e5040f 	mvneq	r0, #251658240	; 0xf000000
    66a4:	9b000000 	blls	66ac <_start-0x1954>
    66a8:	04000002 	streq	r0, [r0], #-2
    66ac:	00172200 	andseq	r2, r7, r0, lsl #4
    66b0:	f3010400 	vshl.u8	d0, d0, d1
    66b4:	01000011 	tsteq	r0, r1, lsl r0
    66b8:	00001804 	andeq	r1, r0, r4, lsl #16
    66bc:	0000125e 	andeq	r1, r0, lr, asr r2
    66c0:	0000a77c 	andeq	sl, r0, ip, ror r7
    66c4:	000000ac 	andeq	r0, r0, ip, lsr #1
    66c8:	00001320 	andeq	r1, r0, r0, lsr #6
    66cc:	69050402 	stmdbvs	r5, {r1, sl}
    66d0:	0300746e 	movweq	r7, #1134	; 0x46e
    66d4:	024a0704 	subeq	r0, sl, #4, 14	; 0x100000
    66d8:	01030000 	mrseq	r0, (UNDEF: 3)
    66dc:	0007ee06 	andeq	lr, r7, r6, lsl #28
    66e0:	05020300 	streq	r0, [r2, #-768]	; 0x300
    66e4:	00000644 	andeq	r0, r0, r4, asr #12
    66e8:	3e050403 	cdpcc	4, 0, cr0, cr5, cr3, {0}
    66ec:	03000004 	movweq	r0, #4
    66f0:	04390508 	ldrteq	r0, [r9], #-1288	; 0x508
    66f4:	01030000 	mrseq	r0, (UNDEF: 3)
    66f8:	0007ec08 	andeq	lr, r7, r8, lsl #24
    66fc:	07020300 	streq	r0, [r2, -r0, lsl #6]
    6700:	000008ac 	andeq	r0, r0, ip, lsr #17
    6704:	45070403 	strmi	r0, [r7, #-1027]	; 0x403
    6708:	03000002 	movweq	r0, #2
    670c:	02400708 	subeq	r0, r0, #8, 14	; 0x200000
    6710:	04030000 	streq	r0, [r3], #-0
    6714:	00078507 	andeq	r8, r7, r7, lsl #10
    6718:	08010300 	stmdaeq	r1, {r8, r9}
    671c:	000007f5 	strdeq	r0, [r0], -r5
    6720:	007f0404 	rsbseq	r0, pc, r4, lsl #8
    6724:	72050000 	andvc	r0, r5, #0
    6728:	06000000 	streq	r0, [r0], -r0
    672c:	fb140304 	blx	507346 <__bss_end__+0x4fb65e>
    6730:	07000000 	streq	r0, [r0, -r0]
    6734:	000009f9 	strdeq	r0, [r0], -r9
    6738:	8082e480 	addhi	lr, r2, r0, lsl #9
    673c:	0b2d0702 	bleq	b4834c <__bss_end__+0xb3c664>
    6740:	e4800000 	str	r0, [r0], #0
    6744:	07028082 	streq	r8, [r2, -r2, lsl #1]
    6748:	00000a16 	andeq	r0, r0, r6, lsl sl
    674c:	8082e484 	addhi	lr, r2, r4, lsl #9
    6750:	0a240702 	beq	908360 <__bss_end__+0x8fc678>
    6754:	e4880000 	str	r0, [r8], #0
    6758:	07028082 	streq	r8, [r2, -r2, lsl #1]
    675c:	00000b79 	andeq	r0, r0, r9, ror fp
    6760:	8082e48c 	addhi	lr, r2, ip, lsl #9
    6764:	0a4d0702 	beq	1348374 <__bss_end__+0x133c68c>
    6768:	e4900000 	ldr	r0, [r0], #0
    676c:	07028082 	streq	r8, [r2, -r2, lsl #1]
    6770:	00000a69 	andeq	r0, r0, r9, ror #20
    6774:	8082e494 	umullhi	lr, r2, r4, r4
    6778:	0b3f0702 	bleq	fc8388 <__bss_end__+0xfbc6a0>
    677c:	e4980000 	ldr	r0, [r8], #0
    6780:	07028082 	streq	r8, [r2, -r2, lsl #1]
    6784:	00000981 	andeq	r0, r0, r1, lsl #19
    6788:	8082e49c 	umullhi	lr, r2, ip, r4
    678c:	09900702 	ldmibeq	r0, {r1, r8, r9, sl}
    6790:	e4a00000 	strt	r0, [r0], #0
    6794:	07028082 	streq	r8, [r2, -r2, lsl #1]
    6798:	00000a32 	andeq	r0, r0, r2, lsr sl
    679c:	8082e4a4 	addhi	lr, r2, r4, lsr #9
    67a0:	a8080002 	stmdage	r8, {r1}
    67a4:	0100000a 	tsteq	r0, sl
    67a8:	00a77c1b 	adceq	r7, r7, fp, lsl ip
    67ac:	00006800 	andeq	r6, r0, r0, lsl #16
    67b0:	a79c0100 	ldrge	r0, [ip, r0, lsl #2]
    67b4:	09000001 	stmdbeq	r0, {r0}
    67b8:	000017de 	ldrdeq	r1, [r0], -lr
    67bc:	002c2301 	eoreq	r2, ip, r1, lsl #6
    67c0:	ef090000 	svc	0x00090000
    67c4:	01000017 	tsteq	r0, r7, lsl r0
    67c8:	00002c24 	andeq	r2, r0, r4, lsr #24
    67cc:	73640a00 	cmnvc	r4, #0, 20
    67d0:	27010074 	smlsdxcs	r1, r4, r0, r0
    67d4:	000001a7 	andeq	r0, r0, r7, lsr #3
    67d8:	72730b00 	rsbsvc	r0, r3, #0, 22
    67dc:	28010063 	stmdacs	r1, {r0, r1, r5, r6}
    67e0:	000001a7 	andeq	r0, r0, r7, lsr #3
    67e4:	01006e0c 	tsteq	r0, ip, lsl #28
    67e8:	00002c29 	andeq	r2, r0, r9, lsr #24
    67ec:	0d500100 	ldfeqe	f0, [r0, #-0]
    67f0:	0000a7ac 	andeq	sl, r0, ip, lsr #15
    67f4:	00000024 	andeq	r0, r0, r4, lsr #32
    67f8:	00000163 	andeq	r0, r0, r3, ror #2
    67fc:	0100690e 	tsteq	r0, lr, lsl #18
    6800:	0000252a 	andeq	r2, r0, sl, lsr #10
    6804:	0027b600 	eoreq	fp, r7, r0, lsl #12
    6808:	8c0f0000 	stchi	0, cr0, [pc], {-0}
    680c:	5d0000a7 	stcpl	0, cr0, [r0, #-668]	; 0xfffffd64
    6810:	80000002 	andhi	r0, r0, r2
    6814:	10000001 	andne	r0, r0, r1
    6818:	09025101 	stmdbeq	r2, {r0, r8, ip, lr}
    681c:	500110ff 	strdpl	r1, [r1], -pc	; <UNPREDICTABLE>
    6820:	b21c0c05 	andslt	r0, ip, #1280	; 0x500
    6824:	0f002000 	svceq	0x00002000
    6828:	0000a798 	muleq	r0, r8, r7
    682c:	0000025d 	andeq	r0, r0, sp, asr r2
    6830:	0000019d 	muleq	r0, sp, r1
    6834:	02510110 	subseq	r0, r1, #16, 2
    6838:	0110ff09 	tsteq	r0, r9, lsl #30
    683c:	200c0550 	andcs	r0, ip, r0, asr r5
    6840:	002000b2 	strhteq	r0, [r0], -r2
    6844:	00a79c11 	adceq	r9, r7, r1, lsl ip
    6848:	00027300 	andeq	r7, r2, r0, lsl #6
    684c:	04040000 	streq	r0, [r4], #-0
    6850:	0000002c 	andeq	r0, r0, ip, lsr #32
    6854:	00182408 	andseq	r2, r8, r8, lsl #8
    6858:	e42e0100 	strt	r0, [lr], #-256	; 0x100
    685c:	440000a7 	strmi	r0, [r0], #-167	; 0xa7
    6860:	01000000 	mrseq	r0, (UNDEF: 0)
    6864:	0002329c 	muleq	r2, ip, r2
    6868:	63701200 	cmnvs	r0, #0, 4
    686c:	2c2e0100 	stfcss	f0, [lr], #-0
    6870:	d5000000 	strle	r0, [r0, #-0]
    6874:	13000027 	movwne	r0, #39	; 0x27
    6878:	0000006c 	andeq	r0, r0, ip, rrx
    687c:	00000242 	andeq	r0, r0, r2, asr #4
    6880:	b6080305 	strlt	r0, [r8], -r5, lsl #6
    6884:	f4110000 			; <UNDEFINED> instruction: 0xf4110000
    6888:	7a0000a7 	bvc	6b2c <_start-0x14d4>
    688c:	0f000002 	svceq	0x00000002
    6890:	0000a814 	andeq	sl, r0, r4, lsl r8
    6894:	00000281 	andeq	r0, r0, r1, lsl #5
    6898:	00000228 	andeq	r0, r0, r8, lsr #4
    689c:	02530110 	subseq	r0, r3, #16, 2
    68a0:	01102f08 	tsteq	r0, r8, lsl #30
    68a4:	08030552 	stmdaeq	r3, {r1, r4, r6, r8, sl}
    68a8:	100000b6 	strhne	r0, [r0], -r6
    68ac:	03055101 	movweq	r5, #20737	; 0x5101
    68b0:	0000b65c 	andeq	fp, r0, ip, asr r6
    68b4:	05500110 	ldrbeq	r0, [r0, #-272]	; 0x110
    68b8:	00b62003 	adcseq	r2, r6, r3
    68bc:	7d021000 	stcvc	0, cr1, [r2, #-0]
    68c0:	00740204 	rsbseq	r0, r4, r4, lsl #4
    68c4:	007d0210 	rsbseq	r0, sp, r0, lsl r2
    68c8:	b67c0305 	ldrbtlt	r0, [ip], -r5, lsl #6
    68cc:	11000000 	mrsne	r0, (UNDEF: 0)
    68d0:	0000a818 	andeq	sl, r0, r8, lsl r8
    68d4:	00000297 	muleq	r0, r7, r2
    68d8:	00721400 	rsbseq	r1, r2, r0, lsl #8
    68dc:	02420000 	subeq	r0, r2, #0
    68e0:	6b150000 	blvs	5468e8 <__bss_end__+0x53ac00>
    68e4:	15000000 	strne	r0, [r0, #-0]
    68e8:	02320500 	eorseq	r0, r2, #0, 10
    68ec:	de090000 	cdple	0, 0, cr0, cr9, cr0, {0}
    68f0:	01000017 	tsteq	r0, r7, lsl r0
    68f4:	00002c23 	andeq	r2, r0, r3, lsr #24
    68f8:	17ef0900 	strbne	r0, [pc, r0, lsl #18]!
    68fc:	24010000 	strcs	r0, [r1], #-0
    6900:	0000002c 	andeq	r0, r0, ip, lsr #32
    6904:	000b8516 	andeq	r8, fp, r6, lsl r5
    6908:	739c0200 	orrsvc	r0, ip, #0, 4
    690c:	17000002 	strne	r0, [r0, -r2]
    6910:	0000002c 	andeq	r0, r0, ip, lsr #32
    6914:	00002c17 	andeq	r2, r0, r7, lsl ip
    6918:	09180000 	ldmdbeq	r8, {}	; <UNPREDICTABLE>
    691c:	02000006 	andeq	r0, r0, #6
    6920:	0010188a 	andseq	r1, r0, sl, lsl #17
    6924:	1e020000 	cdpne	0, 0, cr0, cr2, cr0, {0}
    6928:	00124d19 	andseq	r4, r2, r9, lsl sp
    692c:	25290200 	strcs	r0, [r9, #-512]!	; 0x200
    6930:	97000000 	strls	r0, [r0, -r0]
    6934:	17000002 	strne	r0, [r0, -r2]
    6938:	00000079 	andeq	r0, r0, r9, ror r0
    693c:	f318001a 	vqadd.u16	d0, d8, d10
    6940:	02000005 	andeq	r0, r0, #5
    6944:	02e40066 	rsceq	r0, r4, #102	; 0x66
    6948:	00040000 	andeq	r0, r4, r0
    694c:	00001879 	andeq	r1, r0, r9, ror r8
    6950:	11f30104 	mvnsne	r0, r4, lsl #2
    6954:	5c010000 	stcpl	0, cr0, [r1], {-0}
    6958:	5e000018 	mcrpl	0, 0, r0, cr0, cr8, {0}
    695c:	28000012 	stmdacs	r0, {r1, r4}
    6960:	5c0000a8 	stcpl	0, cr0, [r0], {168}	; 0xa8
    6964:	ed000000 	stc	0, cr0, [r0, #-0]
    6968:	02000013 	andeq	r0, r0, #19
    696c:	6e690504 	cdpvs	5, 6, cr0, cr9, cr4, {0}
    6970:	04030074 	streq	r0, [r3], #-116	; 0x74
    6974:	00024a07 	andeq	r4, r2, r7, lsl #20
    6978:	06010300 	streq	r0, [r1], -r0, lsl #6
    697c:	000007ee 	andeq	r0, r0, lr, ror #15
    6980:	44050203 	strmi	r0, [r5], #-515	; 0x203
    6984:	03000006 	movweq	r0, #6
    6988:	043e0504 	ldrteq	r0, [lr], #-1284	; 0x504
    698c:	08030000 	stmdaeq	r3, {}	; <UNPREDICTABLE>
    6990:	00043905 	andeq	r3, r4, r5, lsl #18
    6994:	08010300 	stmdaeq	r1, {r8, r9}
    6998:	000007ec 	andeq	r0, r0, ip, ror #15
    699c:	ac070203 	sfmge	f0, 4, [r7], {3}
    69a0:	04000008 	streq	r0, [r0], #-8
    69a4:	000001fe 	strdeq	r0, [r0], -lr
    69a8:	00683403 	rsbeq	r3, r8, r3, lsl #8
    69ac:	04030000 	streq	r0, [r3], #-0
    69b0:	00024507 	andeq	r4, r2, r7, lsl #10
    69b4:	07080300 	streq	r0, [r8, -r0, lsl #6]
    69b8:	00000240 	andeq	r0, r0, r0, asr #4
    69bc:	85070403 	strhi	r0, [r7, #-1027]	; 0x403
    69c0:	03000007 	movweq	r0, #7
    69c4:	07f50801 	ldrbeq	r0, [r5, r1, lsl #16]!
    69c8:	04050000 	streq	r0, [r5], #-0
    69cc:	0000008a 	andeq	r0, r0, sl, lsl #1
    69d0:	00007d06 	andeq	r7, r0, r6, lsl #26
    69d4:	02040700 	andeq	r0, r4, #0, 14
    69d8:	0000f21e 	andeq	pc, r0, lr, lsl r2	; <UNPREDICTABLE>
    69dc:	189c0800 	ldmne	ip, {fp}
    69e0:	21020000 	mrscs	r0, (UNDEF: 2)
    69e4:	0000005d 	andeq	r0, r0, sp, asr r0
    69e8:	001e0104 	andseq	r0, lr, r4, lsl #2
    69ec:	0018d208 	andseq	sp, r8, r8, lsl #4
    69f0:	5d220200 	sfmpl	f0, 4, [r2, #-0]
    69f4:	04000000 	streq	r0, [r0], #-0
    69f8:	08001c02 	stmdaeq	r0, {r1, sl, fp, ip}
    69fc:	000018ae 	andeq	r1, r0, lr, lsr #17
    6a00:	005d2702 	subseq	r2, sp, r2, lsl #14
    6a04:	01040000 	mrseq	r0, (UNDEF: 4)
    6a08:	3a08001a 	bcc	206a78 <__bss_end__+0x1fad90>
    6a0c:	02000018 	andeq	r0, r0, #24
    6a10:	00005d29 	andeq	r5, r0, r9, lsr #26
    6a14:	18010400 	stmdane	r1, {sl}
    6a18:	18ba0800 	ldmne	sl!, {fp}
    6a1c:	2b020000 	blcs	86a24 <__bss_end__+0x7ad3c>
    6a20:	0000005d 	andeq	r0, r0, sp, asr r0
    6a24:	00160104 	andseq	r0, r6, r4, lsl #2
    6a28:	0018ca08 	andseq	ip, r8, r8, lsl #20
    6a2c:	5d2d0200 	sfmpl	f0, 4, [sp, #-0]
    6a30:	04000000 	streq	r0, [r0], #-0
    6a34:	00000907 	andeq	r0, r0, r7, lsl #18
    6a38:	00187f04 	andseq	r7, r8, r4, lsl #30
    6a3c:	8f2f0200 	svchi	0x002f0200
    6a40:	09000000 	stmdbeq	r0, {}	; <UNPREDICTABLE>
    6a44:	6a330204 	bvs	cc725c <__bss_end__+0xcbb574>
    6a48:	0a000001 	beq	6a54 <_start-0x15ac>
    6a4c:	000009ea 	andeq	r0, r0, sl, ror #19
    6a50:	8082e880 	addhi	lr, r2, r0, lsl #17
    6a54:	09db0a02 	ldmibeq	fp, {r1, r9, fp}^
    6a58:	e8800000 	stm	r0, {}	; <UNPREDICTABLE>
    6a5c:	0a028082 	beq	a6c6c <__bss_end__+0x9af84>
    6a60:	00000b51 	andeq	r0, r0, r1, asr fp
    6a64:	8082e884 	addhi	lr, r2, r4, lsl #17
    6a68:	09c90a02 	stmibeq	r9, {r1, r9, fp}^
    6a6c:	e8880000 	stm	r8, {}	; <UNPREDICTABLE>
    6a70:	0a028082 	beq	a6c80 <__bss_end__+0x9af98>
    6a74:	00000958 	andeq	r0, r0, r8, asr r9
    6a78:	8082e88c 	addhi	lr, r2, ip, lsl #17
    6a7c:	09700a02 	ldmdbeq	r0!, {r1, r9, fp}^
    6a80:	e8900000 	ldm	r0, {}	; <UNPREDICTABLE>
    6a84:	0a028082 	beq	a6c94 <__bss_end__+0x9afac>
    6a88:	00000a02 	andeq	r0, r0, r2, lsl #20
    6a8c:	8082e894 	umullhi	lr, r2, r4, r8
    6a90:	0a820a02 	beq	fe0892a0 <__bss_end__+0xfe07d5b8>
    6a94:	e8980000 	ldm	r8, {}	; <UNPREDICTABLE>
    6a98:	0a028082 	beq	a6ca8 <__bss_end__+0x9afc0>
    6a9c:	00000a93 	muleq	r0, r3, sl
    6aa0:	8082e89c 	umullhi	lr, r2, ip, r8
    6aa4:	0b910a02 	bleq	fe4492b4 <__bss_end__+0xfe43d5cc>
    6aa8:	e8a00000 	stmia	r0!, {}	; <UNPREDICTABLE>
    6aac:	00028082 	andeq	r8, r2, r2, lsl #1
    6ab0:	14040409 	strne	r0, [r4], #-1033	; 0x409
    6ab4:	000001e1 	andeq	r0, r0, r1, ror #3
    6ab8:	0009f90a 	andeq	pc, r9, sl, lsl #18
    6abc:	82e48000 	rschi	r8, r4, #0
    6ac0:	2d0a0280 	sfmcs	f0, 4, [sl, #-512]	; 0xfffffe00
    6ac4:	8000000b 	andhi	r0, r0, fp
    6ac8:	028082e4 	addeq	r8, r0, #228, 4	; 0x4000000e
    6acc:	000a160a 	andeq	r1, sl, sl, lsl #12
    6ad0:	82e48400 	rschi	r8, r4, #0, 8
    6ad4:	240a0280 	strcs	r0, [sl], #-640	; 0x280
    6ad8:	8800000a 	stmdahi	r0, {r1, r3}
    6adc:	028082e4 	addeq	r8, r0, #228, 4	; 0x4000000e
    6ae0:	000b790a 	andeq	r7, fp, sl, lsl #18
    6ae4:	82e48c00 	rschi	r8, r4, #0, 24
    6ae8:	4d0a0280 	sfmmi	f0, 4, [sl, #-512]	; 0xfffffe00
    6aec:	9000000a 	andls	r0, r0, sl
    6af0:	028082e4 	addeq	r8, r0, #228, 4	; 0x4000000e
    6af4:	000a690a 	andeq	r6, sl, sl, lsl #18
    6af8:	82e49400 	rschi	r9, r4, #0, 8
    6afc:	3f0a0280 	svccc	0x000a0280
    6b00:	9800000b 	stmdals	r0, {r0, r1, r3}
    6b04:	028082e4 	addeq	r8, r0, #228, 4	; 0x4000000e
    6b08:	0009810a 	andeq	r8, r9, sl, lsl #2
    6b0c:	82e49c00 	rschi	r9, r4, #0, 24
    6b10:	900a0280 	andls	r0, sl, r0, lsl #5
    6b14:	a0000009 	andge	r0, r0, r9
    6b18:	028082e4 	addeq	r8, r0, #228, 4	; 0x4000000e
    6b1c:	000a320a 	andeq	r3, sl, sl, lsl #4
    6b20:	82e4a400 	rschi	sl, r4, #0, 8
    6b24:	0b000280 	bleq	752c <_start-0xad4>
    6b28:	00001848 	andeq	r1, r0, r8, asr #16
    6b2c:	a8283f01 	stmdage	r8!, {r0, r8, r9, sl, fp, ip, sp}
    6b30:	001c0000 	andseq	r0, ip, r0
    6b34:	9c010000 	stcls	0, cr0, [r1], {-0}
    6b38:	00000219 	andeq	r0, r0, r9, lsl r2
    6b3c:	00006c0c 	andeq	r6, r0, ip, lsl #24
    6b40:	00022900 	andeq	r2, r2, r0, lsl #18
    6b44:	84030500 	strhi	r0, [r3], #-1280	; 0x500
    6b48:	0d0000b6 	stceq	0, cr0, [r0, #-728]	; 0xfffffd28
    6b4c:	0000a838 	andeq	sl, r0, r8, lsr r8
    6b50:	000002bf 			; <UNDEFINED> instruction: 0x000002bf
    6b54:	0550010e 	ldrbeq	r0, [r0, #-270]	; 0x10e
    6b58:	00b72c03 	adcseq	r2, r7, r3, lsl #24
    6b5c:	0f000000 	svceq	0x00000000
    6b60:	0000007d 	andeq	r0, r0, sp, ror r0
    6b64:	00000229 	andeq	r0, r0, r9, lsr #4
    6b68:	00007610 	andeq	r7, r0, r0, lsl r6
    6b6c:	06001300 	streq	r1, [r0], -r0, lsl #6
    6b70:	00000219 	andeq	r0, r0, r9, lsl r2
    6b74:	0009ab11 	andeq	sl, r9, r1, lsl fp
    6b78:	44110100 	ldrmi	r0, [r1], #-256	; 0x100
    6b7c:	400000a8 	andmi	r0, r0, r8, lsr #1
    6b80:	01000000 	mrseq	r0, (UNDEF: 0)
    6b84:	0002ae9c 	muleq	r2, ip, lr
    6b88:	18941200 	ldmne	r4, {r9, ip}
    6b8c:	11010000 	mrsne	r0, (UNDEF: 1)
    6b90:	0000002c 	andeq	r0, r0, ip, lsr #32
    6b94:	000027f3 	strdeq	r2, [r0], -r3
    6b98:	00a85013 	adceq	r5, r8, r3, lsl r0
    6b9c:	0001e100 	andeq	lr, r1, r0, lsl #2
    6ba0:	a85c1400 	ldmdage	ip, {sl, ip}^
    6ba4:	02d50000 	sbcseq	r0, r5, #0
    6ba8:	02770000 	rsbseq	r0, r7, #0
    6bac:	010e0000 	mrseq	r0, (UNDEF: 14)
    6bb0:	0e310151 	mrceq	1, 1, r0, cr1, cr1, {2}
    6bb4:	0c055001 	stceq	0, cr5, [r5], {1}
    6bb8:	2000b218 	andcs	fp, r0, r8, lsl r2
    6bbc:	a8681400 	stmdage	r8!, {sl, ip}^
    6bc0:	02d50000 	sbcseq	r0, r5, #0
    6bc4:	02940000 	addseq	r0, r4, #0
    6bc8:	010e0000 	mrseq	r0, (UNDEF: 14)
    6bcc:	00740251 	rsbseq	r0, r4, r1, asr r2
    6bd0:	0550010e 	ldrbeq	r0, [r0, #-270]	; 0x10e
    6bd4:	00b4000c 	adcseq	r0, r4, ip
    6bd8:	740d0020 	strvc	r0, [sp], #-32
    6bdc:	d50000a8 	strle	r0, [r0, #-168]	; 0xa8
    6be0:	0e000002 	cdpeq	0, 0, cr0, cr0, cr2, {0}
    6be4:	08025101 	stmdaeq	r2, {r0, r8, ip, lr}
    6be8:	50010ea6 	andpl	r0, r1, r6, lsr #29
    6bec:	b4080c05 	strlt	r0, [r8], #-3077	; 0xc05
    6bf0:	00002000 	andeq	r2, r0, r0
    6bf4:	000b6915 	andeq	r6, fp, r5, lsl r9
    6bf8:	fd800200 	stc2	2, cr0, [r0]
    6bfc:	05000000 	streq	r0, [r0, #-0]
    6c00:	00bce003 	adcseq	lr, ip, r3
    6c04:	124d1600 	subne	r1, sp, #0, 12
    6c08:	29050000 	stmdbcs	r5, {}	; <UNPREDICTABLE>
    6c0c:	00000025 	andeq	r0, r0, r5, lsr #32
    6c10:	000002d5 	ldrdeq	r0, [r0], -r5
    6c14:	00008417 	andeq	r8, r0, r7, lsl r4
    6c18:	19001800 	stmdbne	r0, {fp, ip}
    6c1c:	00000b85 	andeq	r0, r0, r5, lsl #23
    6c20:	2c179c05 	ldccs	12, cr9, [r7], {5}
    6c24:	17000000 	strne	r0, [r0, -r0]
    6c28:	0000002c 	andeq	r0, r0, ip, lsr #32
    6c2c:	00db0000 	sbcseq	r0, fp, r0
    6c30:	00040000 	andeq	r0, r4, r0
    6c34:	000019ca 	andeq	r1, r0, sl, asr #19
    6c38:	11f30104 	mvnsne	r0, r4, lsl #2
    6c3c:	dc010000 	stcle	0, cr0, [r1], {-0}
    6c40:	5e000018 	mcrpl	0, 0, r0, cr0, cr8, {0}
    6c44:	d4000012 	strle	r0, [r0], #-18
    6c48:	200000a9 	andcs	r0, r0, r9, lsr #1
    6c4c:	1e000000 	cdpne	0, 0, cr0, cr0, cr0, {0}
    6c50:	02000015 	andeq	r0, r0, #21
    6c54:	07ee0601 	strbeq	r0, [lr, r1, lsl #12]!
    6c58:	01020000 	mrseq	r0, (UNDEF: 2)
    6c5c:	0007ec08 	andeq	lr, r7, r8, lsl #24
    6c60:	05020200 	streq	r0, [r2, #-512]	; 0x200
    6c64:	00000644 	andeq	r0, r0, r4, asr #12
    6c68:	ac070202 	sfmge	f0, 4, [r7], {2}
    6c6c:	03000008 	movweq	r0, #8
    6c70:	6e690504 	cdpvs	5, 6, cr0, cr9, cr4, {0}
    6c74:	04020074 	streq	r0, [r2], #-116	; 0x74
    6c78:	00024a07 	andeq	r4, r2, r7, lsl #20
    6c7c:	05080200 	streq	r0, [r8, #-512]	; 0x200
    6c80:	00000439 	andeq	r0, r0, r9, lsr r4
    6c84:	40070802 	andmi	r0, r7, r2, lsl #16
    6c88:	02000002 	andeq	r0, r0, #2
    6c8c:	043e0504 	ldrteq	r0, [lr], #-1284	; 0x504
    6c90:	04020000 	streq	r0, [r2], #-0
    6c94:	00078507 	andeq	r8, r7, r7, lsl #10
    6c98:	02040400 	andeq	r0, r4, #0, 8
    6c9c:	02450704 	subeq	r0, r5, #4, 14	; 0x100000
    6ca0:	04050000 	streq	r0, [r5], #-0
    6ca4:	0000007a 	andeq	r0, r0, sl, ror r0
    6ca8:	f5080102 			; <UNDEFINED> instruction: 0xf5080102
    6cac:	06000007 	streq	r0, [r0], -r7
    6cb0:	00001616 	andeq	r1, r0, r6, lsl r6
    6cb4:	0048d402 	subeq	sp, r8, r2, lsl #8
    6cb8:	48070000 	stmdami	r7, {}	; <UNPREDICTABLE>
    6cbc:	03000016 	movweq	r0, #22
    6cc0:	00006b1b 	andeq	r6, r0, fp, lsl fp
    6cc4:	00a9d400 	adceq	sp, r9, r0, lsl #8
    6cc8:	00002000 	andeq	r2, r0, r0
    6ccc:	089c0100 	ldmeq	ip, {r8}
    6cd0:	0100705f 	qaddeq	r7, pc, r0	; <UNPREDICTABLE>
    6cd4:	00006b03 	andeq	r6, r0, r3, lsl #22
    6cd8:	08500100 	ldmdaeq	r0, {r8}^
    6cdc:	03010063 	movweq	r0, #4195	; 0x1063
    6ce0:	00000041 	andeq	r0, r0, r1, asr #32
    6ce4:	6e095101 	adfvse	f5, f1, f1
    6ce8:	81030100 	mrshi	r0, (UNDEF: 19)
    6cec:	11000000 	mrsne	r0, (UNDEF: 0)
    6cf0:	0a000028 	beq	6d98 <_start-0x1268>
    6cf4:	04010070 	streq	r0, [r1], #-112	; 0x70
    6cf8:	00000074 	andeq	r0, r0, r4, ror r0
    6cfc:	00002832 	andeq	r2, r0, r2, lsr r8
    6d00:	0100650b 	tsteq	r0, fp, lsl #10
    6d04:	00007404 	andeq	r7, r0, r4, lsl #8
    6d08:	00520100 	subseq	r0, r2, r0, lsl #2
    6d0c:	00013e00 	andeq	r3, r1, r0, lsl #28
    6d10:	67000400 	strvs	r0, [r0, -r0, lsl #8]
    6d14:	0400001a 	streq	r0, [r0], #-26
    6d18:	0011f301 	andseq	pc, r1, r1, lsl #6
    6d1c:	18ea0100 	stmiane	sl!, {r8}^
    6d20:	125e0000 	subsne	r0, lr, #0
    6d24:	a9f40000 	ldmibge	r4!, {}^	; <UNPREDICTABLE>
    6d28:	00440000 	subeq	r0, r4, r0
    6d2c:	160e0000 	strne	r0, [lr], -r0
    6d30:	04020000 	streq	r0, [r2], #-0
    6d34:	746e6905 	strbtvc	r6, [lr], #-2309	; 0x905
    6d38:	07040300 	streq	r0, [r4, -r0, lsl #6]
    6d3c:	0000024a 	andeq	r0, r0, sl, asr #4
    6d40:	ee060103 	adfs	f0, f6, f3
    6d44:	03000007 	movweq	r0, #7
    6d48:	06440502 	strbeq	r0, [r4], -r2, lsl #10
    6d4c:	04030000 	streq	r0, [r3], #-0
    6d50:	00043e05 	andeq	r3, r4, r5, lsl #28
    6d54:	05080300 	streq	r0, [r8, #-768]	; 0x300
    6d58:	00000439 	andeq	r0, r0, r9, lsr r4
    6d5c:	ec080103 	stfs	f0, [r8], {3}
    6d60:	03000007 	movweq	r0, #7
    6d64:	08ac0702 	stmiaeq	ip!, {r1, r8, r9, sl}
    6d68:	04030000 	streq	r0, [r3], #-0
    6d6c:	00024507 	andeq	r4, r2, r7, lsl #10
    6d70:	07080300 	streq	r0, [r8, -r0, lsl #6]
    6d74:	00000240 	andeq	r0, r0, r0, asr #4
    6d78:	85070403 	strhi	r0, [r7, #-1027]	; 0x403
    6d7c:	03000007 	movweq	r0, #7
    6d80:	07f50801 	ldrbeq	r0, [r5, r1, lsl #16]!
    6d84:	04040000 	streq	r0, [r4], #-0
    6d88:	0000007f 	andeq	r0, r0, pc, ror r0
    6d8c:	00007205 	andeq	r7, r0, r5, lsl #4
    6d90:	19180600 	ldmdbne	r8, {r9, sl}
    6d94:	02010000 	andeq	r0, r1, #0
    6d98:	0000a9f4 	strdeq	sl, [r0], -r4
    6d9c:	00000044 	andeq	r0, r0, r4, asr #32
    6da0:	01089c01 	tsteq	r8, r1, lsl #24
    6da4:	70070000 	andvc	r0, r7, r0
    6da8:	02010063 	andeq	r0, r1, #99	; 0x63
    6dac:	0000002c 	andeq	r0, r0, ip, lsr #32
    6db0:	0000285d 	andeq	r2, r0, sp, asr r8
    6db4:	00006c08 	andeq	r6, r0, r8, lsl #24
    6db8:	00011800 	andeq	r1, r1, r0, lsl #16
    6dbc:	44030500 	strmi	r0, [r3], #-1280	; 0x500
    6dc0:	090000b7 	stmdbeq	r0, {r0, r1, r2, r4, r5, r7}
    6dc4:	0000aa04 	andeq	sl, r0, r4, lsl #20
    6dc8:	0000011d 	andeq	r0, r0, sp, lsl r1
    6dcc:	00aa240a 	adceq	r2, sl, sl, lsl #8
    6dd0:	00012400 	andeq	r2, r1, r0, lsl #8
    6dd4:	0000fe00 	andeq	pc, r0, r0, lsl #28
    6dd8:	53010b00 	movwpl	r0, #6912	; 0x1b00
    6ddc:	010b3201 	tsteq	fp, r1, lsl #4
    6de0:	44030552 	strmi	r0, [r3], #-1362	; 0x552
    6de4:	0b0000b7 	bleq	70c8 <_start-0xf38>
    6de8:	03055101 	movweq	r5, #20737	; 0x5101
    6dec:	0000b758 	andeq	fp, r0, r8, asr r7
    6df0:	0550010b 	ldrbeq	r0, [r0, #-267]	; 0x10b
    6df4:	00b62003 	adcseq	r2, r6, r3
    6df8:	7d020b00 	vstrvc	d0, [r2, #-0]
    6dfc:	00740204 	rsbseq	r0, r4, r4, lsl #4
    6e00:	007d020b 	rsbseq	r0, sp, fp, lsl #4
    6e04:	b7880305 	strlt	r0, [r8, r5, lsl #6]
    6e08:	09000000 	stmdbeq	r0, {}	; <UNPREDICTABLE>
    6e0c:	0000aa28 	andeq	sl, r0, r8, lsr #20
    6e10:	0000013a 	andeq	r0, r0, sl, lsr r1
    6e14:	00720c00 	rsbseq	r0, r2, r0, lsl #24
    6e18:	01180000 	tsteq	r8, r0
    6e1c:	6b0d0000 	blvs	346e24 <__bss_end__+0x33b13c>
    6e20:	11000000 	mrsne	r0, (UNDEF: 0)
    6e24:	01080500 	tsteq	r8, r0, lsl #10
    6e28:	100e0000 	andne	r0, lr, r0
    6e2c:	02000000 	andeq	r0, r0, #0
    6e30:	124d0f1e 	subne	r0, sp, #30, 30	; 0x78
    6e34:	29020000 	stmdbcs	r2, {}	; <UNPREDICTABLE>
    6e38:	00000025 	andeq	r0, r0, r5, lsr #32
    6e3c:	0000013a 	andeq	r0, r0, sl, lsr r1
    6e40:	00007910 	andeq	r7, r0, r0, lsl r9
    6e44:	0e001100 	adfeqs	f1, f0, f0
    6e48:	000005f3 	strdeq	r0, [r0], -r3
    6e4c:	3e006602 	cfmadd32cc	mvax0, mvfx6, mvfx0, mvfx2
    6e50:	04000001 	streq	r0, [r0], #-1
    6e54:	001b3f00 	andseq	r3, fp, r0, lsl #30
    6e58:	f3010400 	vshl.u8	d0, d0, d1
    6e5c:	01000011 	tsteq	r0, r1, lsl r0
    6e60:	0000192a 	andeq	r1, r0, sl, lsr #18
    6e64:	0000125e 	andeq	r1, r0, lr, asr r2
    6e68:	0000aa38 	andeq	sl, r0, r8, lsr sl
    6e6c:	00000044 	andeq	r0, r0, r4, asr #32
    6e70:	000016b7 			; <UNDEFINED> instruction: 0x000016b7
    6e74:	69050402 	stmdbvs	r5, {r1, sl}
    6e78:	0300746e 	movweq	r7, #1134	; 0x46e
    6e7c:	024a0704 	subeq	r0, sl, #4, 14	; 0x100000
    6e80:	01030000 	mrseq	r0, (UNDEF: 3)
    6e84:	0007ee06 	andeq	lr, r7, r6, lsl #28
    6e88:	05020300 	streq	r0, [r2, #-768]	; 0x300
    6e8c:	00000644 	andeq	r0, r0, r4, asr #12
    6e90:	3e050403 	cdpcc	4, 0, cr0, cr5, cr3, {0}
    6e94:	03000004 	movweq	r0, #4
    6e98:	04390508 	ldrteq	r0, [r9], #-1288	; 0x508
    6e9c:	01030000 	mrseq	r0, (UNDEF: 3)
    6ea0:	0007ec08 	andeq	lr, r7, r8, lsl #24
    6ea4:	07020300 	streq	r0, [r2, -r0, lsl #6]
    6ea8:	000008ac 	andeq	r0, r0, ip, lsr #17
    6eac:	45070403 	strmi	r0, [r7, #-1027]	; 0x403
    6eb0:	03000002 	movweq	r0, #2
    6eb4:	02400708 	subeq	r0, r0, #8, 14	; 0x200000
    6eb8:	04030000 	streq	r0, [r3], #-0
    6ebc:	00078507 	andeq	r8, r7, r7, lsl #10
    6ec0:	08010300 	stmdaeq	r1, {r8, r9}
    6ec4:	000007f5 	strdeq	r0, [r0], -r5
    6ec8:	007f0404 	rsbseq	r0, pc, r4, lsl #8
    6ecc:	72050000 	andvc	r0, r5, #0
    6ed0:	06000000 	streq	r0, [r0], -r0
    6ed4:	00001956 	andeq	r1, r0, r6, asr r9
    6ed8:	aa380201 	bge	e076e4 <__bss_end__+0xdfb9fc>
    6edc:	00440000 	subeq	r0, r4, r0
    6ee0:	9c010000 	stcls	0, cr0, [r1], {-0}
    6ee4:	00000108 	andeq	r0, r0, r8, lsl #2
    6ee8:	00637007 	rsbeq	r7, r3, r7
    6eec:	002c0201 	eoreq	r0, ip, r1, lsl #4
    6ef0:	287b0000 	ldmdacs	fp!, {}^	; <UNPREDICTABLE>
    6ef4:	6c080000 	stcvs	0, cr0, [r8], {-0}
    6ef8:	18000000 	stmdane	r0, {}	; <UNPREDICTABLE>
    6efc:	05000001 	streq	r0, [r0, #-1]
    6f00:	00b79403 	adcseq	r9, r7, r3, lsl #8
    6f04:	aa480900 	bge	120930c <__bss_end__+0x11fd624>
    6f08:	011d0000 	tsteq	sp, r0
    6f0c:	680a0000 	stmdavs	sl, {}	; <UNPREDICTABLE>
    6f10:	240000aa 	strcs	r0, [r0], #-170	; 0xaa
    6f14:	fe000001 	cdp2	0, 0, cr0, cr0, cr1, {0}
    6f18:	0b000000 	bleq	6f20 <_start-0x10e0>
    6f1c:	32015301 	andcc	r5, r1, #67108864	; 0x4000000
    6f20:	0552010b 	ldrbeq	r0, [r2, #-267]	; 0x10b
    6f24:	00b79403 	adcseq	r9, r7, r3, lsl #8
    6f28:	51010b00 	tstpl	r1, r0, lsl #22
    6f2c:	b7ac0305 	strlt	r0, [ip, r5, lsl #6]!
    6f30:	010b0000 	mrseq	r0, (UNDEF: 11)
    6f34:	20030550 	andcs	r0, r3, r0, asr r5
    6f38:	0b0000b6 	bleq	7218 <_start-0xde8>
    6f3c:	02047d02 	andeq	r7, r4, #2, 26	; 0x80
    6f40:	020b0074 	andeq	r0, fp, #116	; 0x74
    6f44:	0305007d 	movweq	r0, #20605	; 0x507d
    6f48:	0000b7d8 	ldrdeq	fp, [r0], -r8
    6f4c:	aa6c0900 	bge	1b09354 <__bss_end__+0x1afd66c>
    6f50:	013a0000 	teqeq	sl, r0
    6f54:	0c000000 	stceq	0, cr0, [r0], {-0}
    6f58:	00000072 	andeq	r0, r0, r2, ror r0
    6f5c:	00000118 	andeq	r0, r0, r8, lsl r1
    6f60:	00006b0d 	andeq	r6, r0, sp, lsl #22
    6f64:	05001500 	streq	r1, [r0, #-1280]	; 0x500
    6f68:	00000108 	andeq	r0, r0, r8, lsl #2
    6f6c:	0000100e 	andeq	r1, r0, lr
    6f70:	0f1e0200 	svceq	0x001e0200
    6f74:	0000124d 	andeq	r1, r0, sp, asr #4
    6f78:	00252902 	eoreq	r2, r5, r2, lsl #18
    6f7c:	013a0000 	teqeq	sl, r0
    6f80:	79100000 	ldmdbvc	r0, {}	; <UNPREDICTABLE>
    6f84:	11000000 	mrsne	r0, (UNDEF: 0)
    6f88:	05f30e00 	ldrbeq	r0, [r3, #3584]!	; 0xe00
    6f8c:	66020000 	strvs	r0, [r2], -r0
    6f90:	00013e00 	andeq	r3, r1, r0, lsl #28
    6f94:	17000400 	strne	r0, [r0, -r0, lsl #8]
    6f98:	0400001c 	streq	r0, [r0], #-28
    6f9c:	0011f301 	andseq	pc, r1, r1, lsl #6
    6fa0:	19790100 	ldmdbne	r9!, {r8}^
    6fa4:	125e0000 	subsne	r0, lr, #0
    6fa8:	aa7c0000 	bge	1f06fb0 <__bss_end__+0x1efb2c8>
    6fac:	00440000 	subeq	r0, r4, r0
    6fb0:	175e0000 	ldrbne	r0, [lr, -r0]
    6fb4:	04020000 	streq	r0, [r2], #-0
    6fb8:	746e6905 	strbtvc	r6, [lr], #-2309	; 0x905
    6fbc:	07040300 	streq	r0, [r4, -r0, lsl #6]
    6fc0:	0000024a 	andeq	r0, r0, sl, asr #4
    6fc4:	ee060103 	adfs	f0, f6, f3
    6fc8:	03000007 	movweq	r0, #7
    6fcc:	06440502 	strbeq	r0, [r4], -r2, lsl #10
    6fd0:	04030000 	streq	r0, [r3], #-0
    6fd4:	00043e05 	andeq	r3, r4, r5, lsl #28
    6fd8:	05080300 	streq	r0, [r8, #-768]	; 0x300
    6fdc:	00000439 	andeq	r0, r0, r9, lsr r4
    6fe0:	ec080103 	stfs	f0, [r8], {3}
    6fe4:	03000007 	movweq	r0, #7
    6fe8:	08ac0702 	stmiaeq	ip!, {r1, r8, r9, sl}
    6fec:	04030000 	streq	r0, [r3], #-0
    6ff0:	00024507 	andeq	r4, r2, r7, lsl #10
    6ff4:	07080300 	streq	r0, [r8, -r0, lsl #6]
    6ff8:	00000240 	andeq	r0, r0, r0, asr #4
    6ffc:	85070403 	strhi	r0, [r7, #-1027]	; 0x403
    7000:	03000007 	movweq	r0, #7
    7004:	07f50801 	ldrbeq	r0, [r5, r1, lsl #16]!
    7008:	04040000 	streq	r0, [r4], #-0
    700c:	0000007f 	andeq	r0, r0, pc, ror r0
    7010:	00007205 	andeq	r7, r0, r5, lsl #4
    7014:	196c0600 	stmdbne	ip!, {r9, sl}^
    7018:	02010000 	andeq	r0, r1, #0
    701c:	0000aa7c 	andeq	sl, r0, ip, ror sl
    7020:	00000044 	andeq	r0, r0, r4, asr #32
    7024:	01089c01 	tsteq	r8, r1, lsl #24
    7028:	70070000 	andvc	r0, r7, r0
    702c:	02010063 	andeq	r0, r1, #99	; 0x63
    7030:	0000002c 	andeq	r0, r0, ip, lsr #32
    7034:	00002899 	muleq	r0, r9, r8
    7038:	00006c08 	andeq	r6, r0, r8, lsl #24
    703c:	00011800 	andeq	r1, r1, r0, lsl #16
    7040:	e8030500 	stmda	r3, {r8, sl}
    7044:	090000b7 	stmdbeq	r0, {r0, r1, r2, r4, r5, r7}
    7048:	0000aa8c 	andeq	sl, r0, ip, lsl #21
    704c:	0000011d 	andeq	r0, r0, sp, lsl r1
    7050:	00aaac0a 	adceq	sl, sl, sl, lsl #24
    7054:	00012400 	andeq	r2, r1, r0, lsl #8
    7058:	0000fe00 	andeq	pc, r0, r0, lsl #28
    705c:	53010b00 	movwpl	r0, #6912	; 0x1b00
    7060:	010b3201 	tsteq	fp, r1, lsl #4
    7064:	e8030552 	stmda	r3, {r1, r4, r6, r8, sl}
    7068:	0b0000b7 	bleq	734c <_start-0xcb4>
    706c:	03055101 	movweq	r5, #20737	; 0x5101
    7070:	0000b7f8 	strdeq	fp, [r0], -r8
    7074:	0550010b 	ldrbeq	r0, [r0, #-267]	; 0x10b
    7078:	00b62003 	adcseq	r2, r6, r3
    707c:	7d020b00 	vstrvc	d0, [r2, #-0]
    7080:	00740204 	rsbseq	r0, r4, r4, lsl #4
    7084:	007d020b 	rsbseq	r0, sp, fp, lsl #4
    7088:	b8240305 	stmdalt	r4!, {r0, r2, r8, r9}
    708c:	09000000 	stmdbeq	r0, {}	; <UNPREDICTABLE>
    7090:	0000aab0 			; <UNDEFINED> instruction: 0x0000aab0
    7094:	0000013a 	andeq	r0, r0, sl, lsr r1
    7098:	00720c00 	rsbseq	r0, r2, r0, lsl #24
    709c:	01180000 	tsteq	r8, r0
    70a0:	6b0d0000 	blvs	3470a8 <__bss_end__+0x33b3c0>
    70a4:	0c000000 	stceq	0, cr0, [r0], {-0}
    70a8:	01080500 	tsteq	r8, r0, lsl #10
    70ac:	100e0000 	andne	r0, lr, r0
    70b0:	02000000 	andeq	r0, r0, #0
    70b4:	124d0f1e 	subne	r0, sp, #30, 30	; 0x78
    70b8:	29020000 	stmdbcs	r2, {}	; <UNPREDICTABLE>
    70bc:	00000025 	andeq	r0, r0, r5, lsr #32
    70c0:	0000013a 	andeq	r0, r0, sl, lsr r1
    70c4:	00007910 	andeq	r7, r0, r0, lsl r9
    70c8:	0e001100 	adfeqs	f1, f0, f0
    70cc:	000005f3 	strdeq	r0, [r0], -r3
    70d0:	3e006602 	cfmadd32cc	mvax0, mvfx6, mvfx0, mvfx2
    70d4:	04000001 	streq	r0, [r0], #-1
    70d8:	001cef00 	andseq	lr, ip, r0, lsl #30
    70dc:	f3010400 	vshl.u8	d0, d0, d1
    70e0:	01000011 	tsteq	r0, r1, lsl r0
    70e4:	000019a2 	andeq	r1, r0, r2, lsr #19
    70e8:	0000125e 	andeq	r1, r0, lr, asr r2
    70ec:	0000aac0 	andeq	sl, r0, r0, asr #21
    70f0:	00000044 	andeq	r0, r0, r4, asr #32
    70f4:	00001802 	andeq	r1, r0, r2, lsl #16
    70f8:	69050402 	stmdbvs	r5, {r1, sl}
    70fc:	0300746e 	movweq	r7, #1134	; 0x46e
    7100:	024a0704 	subeq	r0, sl, #4, 14	; 0x100000
    7104:	01030000 	mrseq	r0, (UNDEF: 3)
    7108:	0007ee06 	andeq	lr, r7, r6, lsl #28
    710c:	05020300 	streq	r0, [r2, #-768]	; 0x300
    7110:	00000644 	andeq	r0, r0, r4, asr #12
    7114:	3e050403 	cdpcc	4, 0, cr0, cr5, cr3, {0}
    7118:	03000004 	movweq	r0, #4
    711c:	04390508 	ldrteq	r0, [r9], #-1288	; 0x508
    7120:	01030000 	mrseq	r0, (UNDEF: 3)
    7124:	0007ec08 	andeq	lr, r7, r8, lsl #24
    7128:	07020300 	streq	r0, [r2, -r0, lsl #6]
    712c:	000008ac 	andeq	r0, r0, ip, lsr #17
    7130:	45070403 	strmi	r0, [r7, #-1027]	; 0x403
    7134:	03000002 	movweq	r0, #2
    7138:	02400708 	subeq	r0, r0, #8, 14	; 0x200000
    713c:	04030000 	streq	r0, [r3], #-0
    7140:	00078507 	andeq	r8, r7, r7, lsl #10
    7144:	08010300 	stmdaeq	r1, {r8, r9}
    7148:	000007f5 	strdeq	r0, [r0], -r5
    714c:	007f0404 	rsbseq	r0, pc, r4, lsl #8
    7150:	72050000 	andvc	r0, r5, #0
    7154:	06000000 	streq	r0, [r0], -r0
    7158:	000019d4 	ldrdeq	r1, [r0], -r4
    715c:	aac00201 	bge	ff007968 <__bss_end__+0xfeffbc80>
    7160:	00440000 	subeq	r0, r4, r0
    7164:	9c010000 	stcls	0, cr0, [r1], {-0}
    7168:	00000108 	andeq	r0, r0, r8, lsl #2
    716c:	00637007 	rsbeq	r7, r3, r7
    7170:	002c0201 	eoreq	r0, ip, r1, lsl #4
    7174:	28b70000 	ldmcs	r7!, {}	; <UNPREDICTABLE>
    7178:	6c080000 	stcvs	0, cr0, [r8], {-0}
    717c:	18000000 	stmdane	r0, {}	; <UNPREDICTABLE>
    7180:	05000001 	streq	r0, [r0, #-1]
    7184:	00b82c03 	adcseq	r2, r8, r3, lsl #24
    7188:	aad00900 	bge	ff409590 <__bss_end__+0xff3fd8a8>
    718c:	011d0000 	tsteq	sp, r0
    7190:	f00a0000 			; <UNDEFINED> instruction: 0xf00a0000
    7194:	240000aa 	strcs	r0, [r0], #-170	; 0xaa
    7198:	fe000001 	cdp2	0, 0, cr0, cr0, cr1, {0}
    719c:	0b000000 	bleq	71a4 <_start-0xe5c>
    71a0:	32015301 	andcc	r5, r1, #67108864	; 0x4000000
    71a4:	0552010b 	ldrbeq	r0, [r2, #-267]	; 0x10b
    71a8:	00b82c03 	adcseq	r2, r8, r3, lsl #24
    71ac:	51010b00 	tstpl	r1, r0, lsl #22
    71b0:	b84c0305 	stmdalt	ip, {r0, r2, r8, r9}^
    71b4:	010b0000 	mrseq	r0, (UNDEF: 11)
    71b8:	20030550 	andcs	r0, r3, r0, asr r5
    71bc:	0b0000b6 	bleq	749c <_start-0xb64>
    71c0:	02047d02 	andeq	r7, r4, #2, 26	; 0x80
    71c4:	020b0074 	andeq	r0, fp, #116	; 0x74
    71c8:	0305007d 	movweq	r0, #20605	; 0x507d
    71cc:	0000b880 	andeq	fp, r0, r0, lsl #17
    71d0:	aaf40900 	bge	ffd095d8 <__bss_end__+0xffcfd8f0>
    71d4:	013a0000 	teqeq	sl, r0
    71d8:	0c000000 	stceq	0, cr0, [r0], {-0}
    71dc:	00000072 	andeq	r0, r0, r2, ror r0
    71e0:	00000118 	andeq	r0, r0, r8, lsl r1
    71e4:	00006b0d 	andeq	r6, r0, sp, lsl #22
    71e8:	05001c00 	streq	r1, [r0, #-3072]	; 0xc00
    71ec:	00000108 	andeq	r0, r0, r8, lsl #2
    71f0:	0000100e 	andeq	r1, r0, lr
    71f4:	0f1e0200 	svceq	0x001e0200
    71f8:	0000124d 	andeq	r1, r0, sp, asr #4
    71fc:	00252902 	eoreq	r2, r5, r2, lsl #18
    7200:	013a0000 	teqeq	sl, r0
    7204:	79100000 	ldmdbvc	r0, {}	; <UNPREDICTABLE>
    7208:	11000000 	mrsne	r0, (UNDEF: 0)
    720c:	05f30e00 	ldrbeq	r0, [r3, #3584]!	; 0xe00
    7210:	66020000 	strvs	r0, [r2], -r0
	...

Disassembly of section .debug_abbrev:

00000000 <.debug_abbrev>:
       0:	25011101 	strcs	r1, [r1, #-257]	; 0x101
       4:	030b130e 	movweq	r1, #45838	; 0xb30e
       8:	110e1b0e 	tstne	lr, lr, lsl #22
       c:	10061201 	andne	r1, r6, r1, lsl #4
      10:	02000017 	andeq	r0, r0, #23
      14:	0b0b0024 	bleq	2c00ac <__bss_end__+0x2b43c4>
      18:	08030b3e 	stmdaeq	r3, {r1, r2, r3, r4, r5, r8, r9, fp}
      1c:	24030000 	strcs	r0, [r3], #-0
      20:	3e0b0b00 	vmlacc.f64	d0, d11, d0
      24:	000e030b 	andeq	r0, lr, fp, lsl #6
      28:	00160400 	andseq	r0, r6, r0, lsl #8
      2c:	0b3a0e03 	bleq	e83840 <__bss_end__+0xe77b58>
      30:	13490b3b 	movtne	r0, #39739	; 0x9b3b
      34:	0f050000 	svceq	0x00050000
      38:	490b0b00 	stmdbmi	fp, {r8, r9, fp}
      3c:	06000013 			; <UNDEFINED> instruction: 0x06000013
      40:	13490026 	movtne	r0, #36902	; 0x9026
      44:	04070000 	streq	r0, [r7], #-0
      48:	3a0b0b01 	bcc	2c2c54 <__bss_end__+0x2b6f6c>
      4c:	010b3b0b 	tsteq	fp, fp, lsl #22
      50:	08000013 	stmdaeq	r0, {r0, r1, r4}
      54:	0e030028 	cdpeq	0, 0, cr0, cr3, cr8, {1}
      58:	00000d1c 	andeq	r0, r0, ip, lsl sp
      5c:	0b011309 	bleq	44c88 <__bss_end__+0x38fa0>
      60:	3b0b3a0b 	blcc	2ce894 <__bss_end__+0x2c2bac>
      64:	0013010b 	andseq	r0, r3, fp, lsl #2
      68:	000d0a00 	andeq	r0, sp, r0, lsl #20
      6c:	0b3a0e03 	bleq	e83880 <__bss_end__+0xe77b98>
      70:	13490b3b 	movtne	r0, #39739	; 0x9b3b
      74:	00000b38 	andeq	r0, r0, r8, lsr fp
      78:	03000d0b 	movweq	r0, #3339	; 0xd0b
      7c:	3b0b3a08 	blcc	2ce8a4 <__bss_end__+0x2c2bbc>
      80:	3813490b 	ldmdacc	r3, {r0, r1, r3, r8, fp, lr}
      84:	0c00000b 	stceq	0, cr0, [r0], {11}
      88:	0e030113 	mcreq	1, 0, r0, cr3, cr3, {0}
      8c:	0b3a0b0b 	bleq	e82cc0 <__bss_end__+0xe76fd8>
      90:	13010b3b 	movwne	r0, #6971	; 0x1b3b
      94:	130d0000 	movwne	r0, #53248	; 0xd000
      98:	0b080301 	bleq	200ca4 <__bss_end__+0x1f4fbc>
      9c:	3b0b3a0b 	blcc	2ce8d0 <__bss_end__+0x2c2be8>
      a0:	0013010b 	andseq	r0, r3, fp, lsl #2
      a4:	00160e00 	andseq	r0, r6, r0, lsl #28
      a8:	0b3a0803 	bleq	e820bc <__bss_end__+0xe763d4>
      ac:	13490b3b 	movtne	r0, #39739	; 0x9b3b
      b0:	040f0000 	streq	r0, [pc], #-0	; b8 <_start-0x7f48>
      b4:	0b0e0301 	bleq	380cc0 <__bss_end__+0x374fd8>
      b8:	3b0b3a0b 	blcc	2ce8ec <__bss_end__+0x2c2c04>
      bc:	0013010b 	andseq	r0, r3, fp, lsl #2
      c0:	012e1000 	teqeq	lr, r0
      c4:	0b3a0e03 	bleq	e838d8 <__bss_end__+0xe77bf0>
      c8:	19270b3b 	stmdbne	r7!, {r0, r1, r3, r4, r5, r8, r9, fp}
      cc:	0b201349 	bleq	804df8 <__bss_end__+0x7f9110>
      d0:	00001301 	andeq	r1, r0, r1, lsl #6
      d4:	03000511 	movweq	r0, #1297	; 0x511
      d8:	3b0b3a08 	blcc	2ce900 <__bss_end__+0x2c2c18>
      dc:	0013490b 	andseq	r4, r3, fp, lsl #18
      e0:	012e1200 	teqeq	lr, r0, lsl #4
      e4:	0b3a0e03 	bleq	e838f8 <__bss_end__+0xe77c10>
      e8:	19270b3b 	stmdbne	r7!, {r0, r1, r3, r4, r5, r8, r9, fp}
      ec:	01111349 	tsteq	r1, r9, asr #6
      f0:	18400612 	stmdane	r0, {r1, r4, r9, sl}^
      f4:	01194297 			; <UNDEFINED> instruction: 0x01194297
      f8:	13000013 	movwne	r0, #19
      fc:	08030005 	stmdaeq	r3, {r0, r2}
     100:	0b3b0b3a 	bleq	ec2df0 <__bss_end__+0xeb7108>
     104:	18021349 	stmdane	r2, {r0, r3, r6, r8, r9, ip}
     108:	05140000 	ldreq	r0, [r4, #-0]
     10c:	3a080300 	bcc	200d14 <__bss_end__+0x1f502c>
     110:	490b3b0b 	stmdbmi	fp, {r0, r1, r3, r8, r9, fp, ip, sp}
     114:	00170213 	andseq	r0, r7, r3, lsl r2
     118:	00341500 	eorseq	r1, r4, r0, lsl #10
     11c:	0b3a0e03 	bleq	e83930 <__bss_end__+0xe77c48>
     120:	13490b3b 	movtne	r0, #39739	; 0x9b3b
     124:	00001702 	andeq	r1, r0, r2, lsl #14
     128:	03000516 	movweq	r0, #1302	; 0x516
     12c:	3b0b3a0e 	blcc	2ce96c <__bss_end__+0x2c2c84>
     130:	0213490b 	andseq	r4, r3, #180224	; 0x2c000
     134:	17000017 	smladne	r0, r7, r0, r0
     138:	08030034 	stmdaeq	r3, {r2, r4, r5}
     13c:	0b3b0b3a 	bleq	ec2e2c <__bss_end__+0xeb7144>
     140:	17021349 	strne	r1, [r2, -r9, asr #6]
     144:	89180000 	ldmdbhi	r8, {}	; <UNPREDICTABLE>
     148:	11010182 	smlabbne	r1, r2, r1, r0
     14c:	01133101 	tsteq	r3, r1, lsl #2
     150:	19000013 	stmdbne	r0, {r0, r1, r4}
     154:	0001828a 	andeq	r8, r1, sl, lsl #5
     158:	42911802 	addsmi	r1, r1, #131072	; 0x20000
     15c:	1a000018 	bne	1c4 <_start-0x7e3c>
     160:	01018289 	smlabbeq	r1, r9, r2, r8
     164:	13310111 	teqne	r1, #1073741828	; 0x40000004
     168:	2e1b0000 	cdpcs	0, 1, cr0, cr11, cr0, {0}
     16c:	3a0e0301 	bcc	380d78 <__bss_end__+0x375090>
     170:	270b3b0b 	strcs	r3, [fp, -fp, lsl #22]
     174:	12011119 	andne	r1, r1, #1073741830	; 0x40000006
     178:	97184006 	ldrls	r4, [r8, -r6]
     17c:	13011942 	movwne	r1, #6466	; 0x1942
     180:	341c0000 	ldrcc	r0, [ip], #-0
     184:	490e0300 	stmdbmi	lr, {r8, r9}
     188:	02193413 	andseq	r3, r9, #318767104	; 0x13000000
     18c:	1d000018 	stcne	0, cr0, [r0, #-96]	; 0xffffffa0
     190:	00018289 	andeq	r8, r1, r9, lsl #5
     194:	13310111 	teqne	r1, #1073741828	; 0x40000004
     198:	011e0000 	tsteq	lr, r0
     19c:	01134901 	tsteq	r3, r1, lsl #18
     1a0:	1f000013 	svcne	0x00000013
     1a4:	13490021 	movtne	r0, #36897	; 0x9021
     1a8:	00000b2f 	andeq	r0, r0, pc, lsr #22
     1ac:	3f012e20 	svccc	0x00012e20
     1b0:	3a0e0319 	bcc	380e1c <__bss_end__+0x375134>
     1b4:	110b3b0b 	tstne	fp, fp, lsl #22
     1b8:	40061201 	andmi	r1, r6, r1, lsl #4
     1bc:	19429718 	stmdbne	r2, {r3, r4, r8, r9, sl, ip, pc}^
     1c0:	00001301 	andeq	r1, r0, r1, lsl #6
     1c4:	11010b21 	tstne	r1, r1, lsr #22
     1c8:	01061201 	tsteq	r6, r1, lsl #4
     1cc:	22000013 	andcs	r0, r0, #19
     1d0:	08030034 	stmdaeq	r3, {r2, r4, r5}
     1d4:	0b3b0b3a 	bleq	ec2ec4 <__bss_end__+0xeb71dc>
     1d8:	18021349 	stmdane	r2, {r0, r3, r6, r8, r9, ip}
     1dc:	34230000 	strtcc	r0, [r3], #-0
     1e0:	3a0e0300 	bcc	380de8 <__bss_end__+0x375100>
     1e4:	490b3b0b 	stmdbmi	fp, {r0, r1, r3, r8, r9, fp, ip, sp}
     1e8:	000b1c13 	andeq	r1, fp, r3, lsl ip
     1ec:	00342400 	eorseq	r2, r4, r0, lsl #8
     1f0:	0b3a0e03 	bleq	e83a04 <__bss_end__+0xe77d1c>
     1f4:	13490b3b 	movtne	r0, #39739	; 0x9b3b
     1f8:	00001802 	andeq	r1, r0, r2, lsl #16
     1fc:	11010b25 	tstne	r1, r5, lsr #22
     200:	00061201 	andeq	r1, r6, r1, lsl #4
     204:	00212600 	eoreq	r2, r1, r0, lsl #12
     208:	182f1349 	stmdane	pc!, {r0, r3, r6, r8, r9, ip}	; <UNPREDICTABLE>
     20c:	2e270000 	cdpcs	0, 2, cr0, cr7, cr0, {0}
     210:	03193f01 	tsteq	r9, #1, 30
     214:	3b0b3a0e 	blcc	2cea54 <__bss_end__+0x2c2d6c>
     218:	1119270b 	tstne	r9, fp, lsl #14
     21c:	40061201 	andmi	r1, r6, r1, lsl #4
     220:	19429718 	stmdbne	r2, {r3, r4, r8, r9, sl, ip, pc}^
     224:	00001301 	andeq	r1, r0, r1, lsl #6
     228:	3f012e28 	svccc	0x00012e28
     22c:	3a0e0319 	bcc	380e98 <__bss_end__+0x3751b0>
     230:	270b3b0b 	strcs	r3, [fp, -fp, lsl #22]
     234:	11134919 	tstne	r3, r9, lsl r9
     238:	40061201 	andmi	r1, r6, r1, lsl #4
     23c:	19429718 	stmdbne	r2, {r3, r4, r8, r9, sl, ip, pc}^
     240:	00001301 	andeq	r1, r0, r1, lsl #6
     244:	03003429 	movweq	r3, #1065	; 0x429
     248:	3413490e 	ldrcc	r4, [r3], #-2318	; 0x90e
     24c:	000e1c19 	andeq	r1, lr, r9, lsl ip
     250:	011d2a00 	tsteq	sp, r0, lsl #20
     254:	01111331 	tsteq	r1, r1, lsr r3
     258:	0b580612 	bleq	1601aa8 <__bss_end__+0x15f5dc0>
     25c:	13010b59 	movwne	r0, #7001	; 0x1b59
     260:	052b0000 	streq	r0, [fp, #-0]!
     264:	02133100 	andseq	r3, r3, #0, 2
     268:	2c000017 	stccs	0, cr0, [r0], {23}
     26c:	13310034 	teqne	r1, #52	; 0x34
     270:	00001802 	andeq	r1, r0, r2, lsl #16
     274:	0300342d 	movweq	r3, #1069	; 0x42d
     278:	3b0b3a0e 	blcc	2ceab8 <__bss_end__+0x2c2dd0>
     27c:	0013490b 	andseq	r4, r3, fp, lsl #18
     280:	00342e00 	eorseq	r2, r4, r0, lsl #28
     284:	0b3a0803 	bleq	e82298 <__bss_end__+0xe765b0>
     288:	1349053b 	movtne	r0, #38203	; 0x953b
     28c:	00001702 	andeq	r1, r0, r2, lsl #14
     290:	0300342f 	movweq	r3, #1071	; 0x42f
     294:	3b0b3a0e 	blcc	2cead4 <__bss_end__+0x2c2dec>
     298:	02134905 	andseq	r4, r3, #81920	; 0x14000
     29c:	30000017 	andcc	r0, r0, r7, lsl r0
     2a0:	08030034 	stmdaeq	r3, {r2, r4, r5}
     2a4:	053b0b3a 	ldreq	r0, [fp, #-2874]!	; 0xb3a
     2a8:	18021349 	stmdane	r2, {r0, r3, r6, r8, r9, ip}
     2ac:	34310000 	ldrtcc	r0, [r1], #-0
     2b0:	3a0e0300 	bcc	380eb8 <__bss_end__+0x3751d0>
     2b4:	49053b0b 	stmdbmi	r5, {r0, r1, r3, r8, r9, fp, ip, sp}
     2b8:	00180213 	andseq	r0, r8, r3, lsl r2
     2bc:	010b3200 	mrseq	r3, R11_fiq
     2c0:	00001755 	andeq	r1, r0, r5, asr r7
     2c4:	55010b33 	strpl	r0, [r1, #-2867]	; 0xb33
     2c8:	00130117 	andseq	r0, r3, r7, lsl r1
     2cc:	00343400 	eorseq	r3, r4, r0, lsl #8
     2d0:	0b3a0e03 	bleq	e83ae4 <__bss_end__+0xe77dfc>
     2d4:	1349053b 	movtne	r0, #38203	; 0x953b
     2d8:	2e350000 	cdpcs	0, 3, cr0, cr5, cr0, {0}
     2dc:	03193f01 	tsteq	r9, #1, 30
     2e0:	3b0b3a0e 	blcc	2ceb20 <__bss_end__+0x2c2e38>
     2e4:	11192705 	tstne	r9, r5, lsl #14
     2e8:	40061201 	andmi	r1, r6, r1, lsl #4
     2ec:	19429718 	stmdbne	r2, {r3, r4, r8, r9, sl, ip, pc}^
     2f0:	00001301 	andeq	r1, r0, r1, lsl #6
     2f4:	3f012e36 	svccc	0x00012e36
     2f8:	3a0e0319 	bcc	380f64 <__bss_end__+0x37527c>
     2fc:	270b3b0b 	strcs	r3, [fp, -fp, lsl #22]
     300:	3c134919 	ldccc	9, cr4, [r3], {25}
     304:	00130119 	andseq	r0, r3, r9, lsl r1
     308:	00053700 	andeq	r3, r5, r0, lsl #14
     30c:	00001349 	andeq	r1, r0, r9, asr #6
     310:	00001838 	andeq	r1, r0, r8, lsr r8
     314:	002e3900 	eoreq	r3, lr, r0, lsl #18
     318:	0e03193f 	mcreq	9, 0, r1, cr3, cr15, {1}
     31c:	0b3b0b3a 	bleq	ec300c <__bss_end__+0xeb7324>
     320:	193c1927 	ldmdbne	ip!, {r0, r1, r2, r5, r8, fp, ip}
     324:	2e3a0000 	cdpcs	0, 3, cr0, cr10, cr0, {0}
     328:	03193f01 	tsteq	r9, #1, 30
     32c:	3b0b3a0e 	blcc	2ceb6c <__bss_end__+0x2c2e84>
     330:	3c19270b 	ldccc	7, cr2, [r9], {11}
     334:	00130119 	andseq	r0, r3, r9, lsl r1
     338:	002e3b00 	eoreq	r3, lr, r0, lsl #22
     33c:	0e03193f 	mcreq	9, 0, r1, cr3, cr15, {1}
     340:	0b3b0b3a 	bleq	ec3030 <__bss_end__+0xeb7348>
     344:	13491927 	movtne	r1, #39207	; 0x9927
     348:	0000193c 	andeq	r1, r0, ip, lsr r9
     34c:	01110100 	tsteq	r1, r0, lsl #2
     350:	0b130e25 	bleq	4c3bec <__bss_end__+0x4b7f04>
     354:	0e1b0e03 	cdpeq	14, 1, cr0, cr11, cr3, {0}
     358:	06120111 			; <UNDEFINED> instruction: 0x06120111
     35c:	00001710 	andeq	r1, r0, r0, lsl r7
     360:	0b010402 	bleq	41370 <__bss_end__+0x35688>
     364:	3b0b3a0b 	blcc	2ceb98 <__bss_end__+0x2c2eb0>
     368:	0013010b 	andseq	r0, r3, fp, lsl #2
     36c:	00280300 	eoreq	r0, r8, r0, lsl #6
     370:	0d1c0e03 	ldceq	14, cr0, [ip, #-12]
     374:	16040000 	strne	r0, [r4], -r0
     378:	3a0e0300 	bcc	380f80 <__bss_end__+0x375298>
     37c:	490b3b0b 	stmdbmi	fp, {r0, r1, r3, r8, r9, fp, ip, sp}
     380:	05000013 	streq	r0, [r0, #-19]
     384:	0b0b0113 	bleq	2c07d8 <__bss_end__+0x2b4af0>
     388:	0b3b0b3a 	bleq	ec3078 <__bss_end__+0xeb7390>
     38c:	00001301 	andeq	r1, r0, r1, lsl #6
     390:	03000d06 	movweq	r0, #3334	; 0xd06
     394:	3b0b3a0e 	blcc	2cebd4 <__bss_end__+0x2c2eec>
     398:	3813490b 	ldmdacc	r3, {r0, r1, r3, r8, fp, lr}
     39c:	0700000b 	streq	r0, [r0, -fp]
     3a0:	0803000d 	stmdaeq	r3, {r0, r2, r3}
     3a4:	0b3b0b3a 	bleq	ec3094 <__bss_end__+0xeb73ac>
     3a8:	0b381349 	bleq	e050d4 <__bss_end__+0xdf93ec>
     3ac:	24080000 	strcs	r0, [r8], #-0
     3b0:	3e0b0b00 	vmlacc.f64	d0, d11, d0
     3b4:	0008030b 	andeq	r0, r8, fp, lsl #6
     3b8:	00240900 	eoreq	r0, r4, r0, lsl #18
     3bc:	0b3e0b0b 	bleq	f82ff0 <__bss_end__+0xf77308>
     3c0:	00000e03 	andeq	r0, r0, r3, lsl #28
     3c4:	0b000f0a 	bleq	3ff4 <_start-0x400c>
     3c8:	0b00000b 	bleq	3fc <_start-0x7c04>
     3cc:	0b0b000f 	bleq	2c0410 <__bss_end__+0x2b4728>
     3d0:	00001349 	andeq	r1, r0, r9, asr #6
     3d4:	4900260c 	stmdbmi	r0, {r2, r3, r9, sl, sp}
     3d8:	0d000013 	stceq	0, cr0, [r0, #-76]	; 0xffffffb4
     3dc:	193f012e 	ldmdbne	pc!, {r1, r2, r3, r5, r8}	; <UNPREDICTABLE>
     3e0:	0b3a0e03 	bleq	e83bf4 <__bss_end__+0xe77f0c>
     3e4:	19270b3b 	stmdbne	r7!, {r0, r1, r3, r4, r5, r8, r9, fp}
     3e8:	01111349 	tsteq	r1, r9, asr #6
     3ec:	18400612 	stmdane	r0, {r1, r4, r9, sl}^
     3f0:	01194297 			; <UNDEFINED> instruction: 0x01194297
     3f4:	0e000013 	mcreq	0, 0, r0, cr0, cr3, {0}
     3f8:	08030005 	stmdaeq	r3, {r0, r2}
     3fc:	0b3b0b3a 	bleq	ec30ec <__bss_end__+0xeb7404>
     400:	17021349 	strne	r1, [r2, -r9, asr #6]
     404:	050f0000 	streq	r0, [pc, #-0]	; 40c <_start-0x7bf4>
     408:	3a0e0300 	bcc	381010 <__bss_end__+0x375328>
     40c:	490b3b0b 	stmdbmi	fp, {r0, r1, r3, r8, r9, fp, ip, sp}
     410:	00170213 	andseq	r0, r7, r3, lsl r2
     414:	00341000 	eorseq	r1, r4, r0
     418:	0b3a0e03 	bleq	e83c2c <__bss_end__+0xe77f44>
     41c:	13490b3b 	movtne	r0, #39739	; 0x9b3b
     420:	00001702 	andeq	r1, r0, r2, lsl #14
     424:	01828911 	orreq	r8, r2, r1, lsl r9
     428:	31011101 	tstcc	r1, r1, lsl #2
     42c:	00130113 	andseq	r0, r3, r3, lsl r1
     430:	828a1200 	addhi	r1, sl, #0, 4
     434:	18020001 	stmdane	r2, {r0}
     438:	00184291 	mulseq	r8, r1, r2
     43c:	82891300 	addhi	r1, r9, #0, 6
     440:	01110001 	tsteq	r1, r1
     444:	00001331 	andeq	r1, r0, r1, lsr r3
     448:	3f012e14 	svccc	0x00012e14
     44c:	3a0e0319 	bcc	3810b8 <__bss_end__+0x3753d0>
     450:	270b3b0b 	strcs	r3, [fp, -fp, lsl #22]
     454:	12011119 	andne	r1, r1, #1073741830	; 0x40000006
     458:	97184006 	ldrls	r4, [r8, -r6]
     45c:	13011942 	movwne	r1, #6466	; 0x1942
     460:	89150000 	ldmdbhi	r5, {}	; <UNPREDICTABLE>
     464:	11010182 	smlabbne	r1, r2, r1, r0
     468:	00133101 	andseq	r3, r3, r1, lsl #2
     46c:	00051600 	andeq	r1, r5, r0, lsl #12
     470:	0b3a0803 	bleq	e82484 <__bss_end__+0xe7679c>
     474:	13490b3b 	movtne	r0, #39739	; 0x9b3b
     478:	00001802 	andeq	r1, r0, r2, lsl #16
     47c:	03000517 	movweq	r0, #1303	; 0x517
     480:	3b0b3a0e 	blcc	2cecc0 <__bss_end__+0x2c2fd8>
     484:	0213490b 	andseq	r4, r3, #180224	; 0x2c000
     488:	18000018 	stmdane	r0, {r3, r4}
     48c:	193f012e 	ldmdbne	pc!, {r1, r2, r3, r5, r8}	; <UNPREDICTABLE>
     490:	0b3a0e03 	bleq	e83ca4 <__bss_end__+0xe77fbc>
     494:	19270b3b 	stmdbne	r7!, {r0, r1, r3, r4, r5, r8, r9, fp}
     498:	193c1349 	ldmdbne	ip!, {r0, r3, r6, r8, r9, ip}
     49c:	00001301 	andeq	r1, r0, r1, lsl #6
     4a0:	49000519 	stmdbmi	r0, {r0, r3, r4, r8, sl}
     4a4:	1a000013 	bne	4f8 <_start-0x7b08>
     4a8:	193f012e 	ldmdbne	pc!, {r1, r2, r3, r5, r8}	; <UNPREDICTABLE>
     4ac:	0b3a0e03 	bleq	e83cc0 <__bss_end__+0xe77fd8>
     4b0:	19270b3b 	stmdbne	r7!, {r0, r1, r3, r4, r5, r8, r9, fp}
     4b4:	1301193c 	movwne	r1, #6460	; 0x193c
     4b8:	181b0000 	ldmdane	fp, {}	; <UNPREDICTABLE>
     4bc:	1c000000 	stcne	0, cr0, [r0], {-0}
     4c0:	193f012e 	ldmdbne	pc!, {r1, r2, r3, r5, r8}	; <UNPREDICTABLE>
     4c4:	0b3a0e03 	bleq	e83cd8 <__bss_end__+0xe77ff0>
     4c8:	19270b3b 	stmdbne	r7!, {r0, r1, r3, r4, r5, r8, r9, fp}
     4cc:	0000193c 	andeq	r1, r0, ip, lsr r9
     4d0:	01110100 	tsteq	r1, r0, lsl #2
     4d4:	0b130e25 	bleq	4c3d70 <__bss_end__+0x4b8088>
     4d8:	0e1b0e03 	cdpeq	14, 1, cr0, cr11, cr3, {0}
     4dc:	06120111 			; <UNDEFINED> instruction: 0x06120111
     4e0:	00001710 	andeq	r1, r0, r0, lsl r7
     4e4:	0b010402 	bleq	414f4 <__bss_end__+0x3580c>
     4e8:	3b0b3a0b 	blcc	2ced1c <__bss_end__+0x2c3034>
     4ec:	0013010b 	andseq	r0, r3, fp, lsl #2
     4f0:	00280300 	eoreq	r0, r8, r0, lsl #6
     4f4:	0d1c0e03 	ldceq	14, cr0, [ip, #-12]
     4f8:	16040000 	strne	r0, [r4], -r0
     4fc:	3a0e0300 	bcc	381104 <__bss_end__+0x37541c>
     500:	490b3b0b 	stmdbmi	fp, {r0, r1, r3, r8, r9, fp, ip, sp}
     504:	05000013 	streq	r0, [r0, #-19]
     508:	0b0b0113 	bleq	2c095c <__bss_end__+0x2b4c74>
     50c:	0b3b0b3a 	bleq	ec31fc <__bss_end__+0xeb7514>
     510:	00001301 	andeq	r1, r0, r1, lsl #6
     514:	03000d06 	movweq	r0, #3334	; 0xd06
     518:	3b0b3a0e 	blcc	2ced58 <__bss_end__+0x2c3070>
     51c:	3813490b 	ldmdacc	r3, {r0, r1, r3, r8, fp, lr}
     520:	0700000b 	streq	r0, [r0, -fp]
     524:	0803000d 	stmdaeq	r3, {r0, r2, r3}
     528:	0b3b0b3a 	bleq	ec3218 <__bss_end__+0xeb7530>
     52c:	0b381349 	bleq	e05258 <__bss_end__+0xdf9570>
     530:	24080000 	strcs	r0, [r8], #-0
     534:	3e0b0b00 	vmlacc.f64	d0, d11, d0
     538:	0008030b 	andeq	r0, r8, fp, lsl #6
     53c:	00240900 	eoreq	r0, r4, r0, lsl #18
     540:	0b3e0b0b 	bleq	f83174 <__bss_end__+0xf7748c>
     544:	00000e03 	andeq	r0, r0, r3, lsl #28
     548:	0301130a 	movweq	r1, #4874	; 0x130a
     54c:	3a0b0b0e 	bcc	2c318c <__bss_end__+0x2b74a4>
     550:	010b3b0b 	tsteq	fp, fp, lsl #22
     554:	0b000013 	bleq	5a8 <_start-0x7a58>
     558:	0b0b000f 	bleq	2c059c <__bss_end__+0x2b48b4>
     55c:	00001349 	andeq	r1, r0, r9, asr #6
     560:	0b000f0c 	bleq	4198 <_start-0x3e68>
     564:	0d00000b 	stceq	0, cr0, [r0, #-44]	; 0xffffffd4
     568:	13490026 	movtne	r0, #36902	; 0x9026
     56c:	010e0000 	mrseq	r0, (UNDEF: 14)
     570:	01134901 	tsteq	r3, r1, lsl #18
     574:	0f000013 	svceq	0x00000013
     578:	13490021 	movtne	r0, #36897	; 0x9021
     57c:	00000b2f 	andeq	r0, r0, pc, lsr #22
     580:	03011310 	movweq	r1, #4880	; 0x1310
     584:	3a0b0b08 	bcc	2c31ac <__bss_end__+0x2b74c4>
     588:	010b3b0b 	tsteq	fp, fp, lsl #22
     58c:	11000013 	tstne	r0, r3, lsl r0
     590:	08030016 	stmdaeq	r3, {r1, r2, r4}
     594:	0b3b0b3a 	bleq	ec3284 <__bss_end__+0xeb759c>
     598:	00001349 	andeq	r1, r0, r9, asr #6
     59c:	03012e12 	movweq	r2, #7698	; 0x1e12
     5a0:	3b0b3a0e 	blcc	2cede0 <__bss_end__+0x2c30f8>
     5a4:	4919270b 	ldmdbmi	r9, {r0, r1, r3, r8, r9, sl, sp}
     5a8:	12011113 	andne	r1, r1, #-1073741820	; 0xc0000004
     5ac:	97184006 	ldrls	r4, [r8, -r6]
     5b0:	13011942 	movwne	r1, #6466	; 0x1942
     5b4:	05130000 	ldreq	r0, [r3, #-0]
     5b8:	3a080300 	bcc	2011c0 <__bss_end__+0x1f54d8>
     5bc:	490b3b0b 	stmdbmi	fp, {r0, r1, r3, r8, r9, fp, ip, sp}
     5c0:	00170213 	andseq	r0, r7, r3, lsl r2
     5c4:	012e1400 	teqeq	lr, r0, lsl #8
     5c8:	0b3a0e03 	bleq	e83ddc <__bss_end__+0xe780f4>
     5cc:	19270b3b 	stmdbne	r7!, {r0, r1, r3, r4, r5, r8, r9, fp}
     5d0:	06120111 			; <UNDEFINED> instruction: 0x06120111
     5d4:	42971840 	addsmi	r1, r7, #64, 16	; 0x400000
     5d8:	00130119 	andseq	r0, r3, r9, lsl r1
     5dc:	00051500 	andeq	r1, r5, r0, lsl #10
     5e0:	0b3a0803 	bleq	e825f4 <__bss_end__+0xe7690c>
     5e4:	13490b3b 	movtne	r0, #39739	; 0x9b3b
     5e8:	00001802 	andeq	r1, r0, r2, lsl #16
     5ec:	03003416 	movweq	r3, #1046	; 0x416
     5f0:	3413490e 	ldrcc	r4, [r3], #-2318	; 0x90e
     5f4:	00180219 	andseq	r0, r8, r9, lsl r2
     5f8:	82891700 	addhi	r1, r9, #0, 14
     5fc:	01110001 	tsteq	r1, r1
     600:	00001331 	andeq	r1, r0, r1, lsr r3
     604:	01828918 	orreq	r8, r2, r8, lsl r9
     608:	31011101 	tstcc	r1, r1, lsl #2
     60c:	00130113 	andseq	r0, r3, r3, lsl r1
     610:	828a1900 	addhi	r1, sl, #0, 18
     614:	18020001 	stmdane	r2, {r0}
     618:	00184291 	mulseq	r8, r1, r2
     61c:	00341a00 	eorseq	r1, r4, r0, lsl #20
     620:	0b3a0803 	bleq	e82634 <__bss_end__+0xe7694c>
     624:	13490b3b 	movtne	r0, #39739	; 0x9b3b
     628:	00001702 	andeq	r1, r0, r2, lsl #14
     62c:	3f012e1b 	svccc	0x00012e1b
     630:	3a0e0319 	bcc	38129c <__bss_end__+0x3755b4>
     634:	270b3b0b 	strcs	r3, [fp, -fp, lsl #22]
     638:	11134919 	tstne	r3, r9, lsl r9
     63c:	40061201 	andmi	r1, r6, r1, lsl #4
     640:	19429718 	stmdbne	r2, {r3, r4, r8, r9, sl, ip, pc}^
     644:	00001301 	andeq	r1, r0, r1, lsl #6
     648:	0300051c 	movweq	r0, #1308	; 0x51c
     64c:	3b0b3a0e 	blcc	2cee8c <__bss_end__+0x2c31a4>
     650:	0213490b 	andseq	r4, r3, #180224	; 0x2c000
     654:	1d000017 	stcne	0, cr0, [r0, #-92]	; 0xffffffa4
     658:	0e030034 	mcreq	0, 0, r0, cr3, cr4, {1}
     65c:	0b3b0b3a 	bleq	ec334c <__bss_end__+0xeb7664>
     660:	17021349 	strne	r1, [r2, -r9, asr #6]
     664:	0b1e0000 	bleq	78066c <__bss_end__+0x774984>
     668:	12011101 	andne	r1, r1, #1073741824	; 0x40000000
     66c:	00130106 	andseq	r0, r3, r6, lsl #2
     670:	00051f00 	andeq	r1, r5, r0, lsl #30
     674:	0b3a0e03 	bleq	e83e88 <__bss_end__+0xe781a0>
     678:	13490b3b 	movtne	r0, #39739	; 0x9b3b
     67c:	00001802 	andeq	r1, r0, r2, lsl #16
     680:	01828920 	orreq	r8, r2, r0, lsr #18
     684:	31011101 	tstcc	r1, r1, lsl #2
     688:	21000013 	tstcs	r0, r3, lsl r0
     68c:	193f012e 	ldmdbne	pc!, {r1, r2, r3, r5, r8}	; <UNPREDICTABLE>
     690:	0b3a0e03 	bleq	e83ea4 <__bss_end__+0xe781bc>
     694:	19270b3b 	stmdbne	r7!, {r0, r1, r3, r4, r5, r8, r9, fp}
     698:	06120111 			; <UNDEFINED> instruction: 0x06120111
     69c:	42971840 	addsmi	r1, r7, #64, 16	; 0x400000
     6a0:	00130119 	andseq	r0, r3, r9, lsl r1
     6a4:	010b2200 	mrseq	r2, R11_fiq
     6a8:	00001755 	andeq	r1, r0, r5, asr r7
     6ac:	55010b23 	strpl	r0, [r1, #-2851]	; 0xb23
     6b0:	00130117 	andseq	r0, r3, r7, lsl r1
     6b4:	00342400 	eorseq	r2, r4, r0, lsl #8
     6b8:	0b3a0e03 	bleq	e83ecc <__bss_end__+0xe781e4>
     6bc:	13490b3b 	movtne	r0, #39739	; 0x9b3b
     6c0:	00001802 	andeq	r1, r0, r2, lsl #16
     6c4:	03003425 	movweq	r3, #1061	; 0x425
     6c8:	3b0b3a0e 	blcc	2cef08 <__bss_end__+0x2c3220>
     6cc:	3f13490b 	svccc	0x0013490b
     6d0:	00180219 	andseq	r0, r8, r9, lsl r2
     6d4:	002e2600 	eoreq	r2, lr, r0, lsl #12
     6d8:	0e03193f 	mcreq	9, 0, r1, cr3, cr15, {1}
     6dc:	0b3b0b3a 	bleq	ec33cc <__bss_end__+0xeb76e4>
     6e0:	193c1927 	ldmdbne	ip!, {r0, r1, r2, r5, r8, fp, ip}
     6e4:	2e270000 	cdpcs	0, 2, cr0, cr7, cr0, {0}
     6e8:	03193f01 	tsteq	r9, #1, 30
     6ec:	3b0b3a0e 	blcc	2cef2c <__bss_end__+0x2c3244>
     6f0:	4919270b 	ldmdbmi	r9, {r0, r1, r3, r8, r9, sl, sp}
     6f4:	01193c13 	tsteq	r9, r3, lsl ip
     6f8:	28000013 	stmdacs	r0, {r0, r1, r4}
     6fc:	13490005 	movtne	r0, #36869	; 0x9005
     700:	18290000 	stmdane	r9!, {}	; <UNPREDICTABLE>
     704:	2a000000 	bcs	70c <_start-0x78f4>
     708:	193f012e 	ldmdbne	pc!, {r1, r2, r3, r5, r8}	; <UNPREDICTABLE>
     70c:	0b3a0e03 	bleq	e83f20 <__bss_end__+0xe78238>
     710:	19270b3b 	stmdbne	r7!, {r0, r1, r3, r4, r5, r8, r9, fp}
     714:	1301193c 	movwne	r1, #6460	; 0x193c
     718:	2e2b0000 	cdpcs	0, 2, cr0, cr11, cr0, {0}
     71c:	03193f00 	tsteq	r9, #0, 30
     720:	3b0b3a0e 	blcc	2cef60 <__bss_end__+0x2c3278>
     724:	4919270b 	ldmdbmi	r9, {r0, r1, r3, r8, r9, sl, sp}
     728:	00193c13 	andseq	r3, r9, r3, lsl ip
     72c:	11010000 	mrsne	r0, (UNDEF: 1)
     730:	130e2501 	movwne	r2, #58625	; 0xe501
     734:	1b0e030b 	blne	381368 <__bss_end__+0x375680>
     738:	1201110e 	andne	r1, r1, #-2147483645	; 0x80000003
     73c:	00171006 	andseq	r1, r7, r6
     740:	00240200 	eoreq	r0, r4, r0, lsl #4
     744:	0b3e0b0b 	bleq	f83378 <__bss_end__+0xf77690>
     748:	00000803 	andeq	r0, r0, r3, lsl #16
     74c:	0b002403 	bleq	9760 <i2c_init+0x84>
     750:	030b3e0b 	movweq	r3, #48651	; 0xbe0b
     754:	0400000e 	streq	r0, [r0], #-14
     758:	13490026 	movtne	r0, #36902	; 0x9026
     75c:	16050000 	strne	r0, [r5], -r0
     760:	3a0e0300 	bcc	381368 <__bss_end__+0x375680>
     764:	490b3b0b 	stmdbmi	fp, {r0, r1, r3, r8, r9, fp, ip, sp}
     768:	06000013 			; <UNDEFINED> instruction: 0x06000013
     76c:	0e030016 	mcreq	0, 0, r0, cr3, cr6, {0}
     770:	053b0b3a 	ldreq	r0, [fp, #-2874]!	; 0xb3a
     774:	00001349 	andeq	r1, r0, r9, asr #6
     778:	0b011707 	bleq	4639c <__bss_end__+0x3a6b4>
     77c:	3b0b3a0b 	blcc	2cefb0 <__bss_end__+0x2c32c8>
     780:	0013010b 	andseq	r0, r3, fp, lsl #2
     784:	000d0800 	andeq	r0, sp, r0, lsl #16
     788:	0b3a0e03 	bleq	e83f9c <__bss_end__+0xe782b4>
     78c:	13490b3b 	movtne	r0, #39739	; 0x9b3b
     790:	01090000 	mrseq	r0, (UNDEF: 9)
     794:	01134901 	tsteq	r3, r1, lsl #18
     798:	0a000013 	beq	7ec <_start-0x7814>
     79c:	13490021 	movtne	r0, #36897	; 0x9021
     7a0:	00000b2f 	andeq	r0, r0, pc, lsr #22
     7a4:	0b01130b 	bleq	453d8 <__bss_end__+0x396f0>
     7a8:	3b0b3a0b 	blcc	2cefdc <__bss_end__+0x2c32f4>
     7ac:	0013010b 	andseq	r0, r3, fp, lsl #2
     7b0:	000d0c00 	andeq	r0, sp, r0, lsl #24
     7b4:	0b3a0e03 	bleq	e83fc8 <__bss_end__+0xe782e0>
     7b8:	13490b3b 	movtne	r0, #39739	; 0x9b3b
     7bc:	00000b38 	andeq	r0, r0, r8, lsr fp
     7c0:	0b000f0d 	bleq	43fc <_start-0x3c04>
     7c4:	0e00000b 	cdpeq	0, 0, cr0, cr0, cr11, {0}
     7c8:	0b0b000f 	bleq	2c080c <__bss_end__+0x2b4b24>
     7cc:	00001349 	andeq	r1, r0, r9, asr #6
     7d0:	0301130f 	movweq	r1, #4879	; 0x130f
     7d4:	3a0b0b0e 	bcc	2c3414 <__bss_end__+0x2b772c>
     7d8:	010b3b0b 	tsteq	fp, fp, lsl #22
     7dc:	10000013 	andne	r0, r0, r3, lsl r0
     7e0:	0803000d 	stmdaeq	r3, {r0, r2, r3}
     7e4:	0b3b0b3a 	bleq	ec34d4 <__bss_end__+0xeb77ec>
     7e8:	0b381349 	bleq	e05514 <__bss_end__+0xdf982c>
     7ec:	13110000 	tstne	r1, #0
     7f0:	0b0e0301 	bleq	3813fc <__bss_end__+0x375714>
     7f4:	3b0b3a05 	blcc	2cf010 <__bss_end__+0x2c3328>
     7f8:	0013010b 	andseq	r0, r3, fp, lsl #2
     7fc:	000d1200 	andeq	r1, sp, r0, lsl #4
     800:	0b3a0e03 	bleq	e84014 <__bss_end__+0xe7832c>
     804:	13490b3b 	movtne	r0, #39739	; 0x9b3b
     808:	00000538 	andeq	r0, r0, r8, lsr r5
     80c:	27001513 	smladcs	r0, r3, r5, r1
     810:	14000019 	strne	r0, [r0], #-25
     814:	19270115 	stmdbne	r7!, {r0, r2, r4, r8}
     818:	13011349 	movwne	r1, #4937	; 0x1349
     81c:	05150000 	ldreq	r0, [r5, #-0]
     820:	00134900 	andseq	r4, r3, r0, lsl #18
     824:	01131600 	tsteq	r3, r0, lsl #12
     828:	050b0e03 	streq	r0, [fp, #-3587]	; 0xe03
     82c:	053b0b3a 	ldreq	r0, [fp, #-2874]!	; 0xb3a
     830:	00001301 	andeq	r1, r0, r1, lsl #6
     834:	03000d17 	movweq	r0, #3351	; 0xd17
     838:	3b0b3a0e 	blcc	2cf078 <__bss_end__+0x2c3390>
     83c:	38134905 	ldmdacc	r3, {r0, r2, r8, fp, lr}
     840:	1800000b 	stmdane	r0, {r0, r1, r3}
     844:	0e03000d 	cdpeq	0, 0, cr0, cr3, cr13, {0}
     848:	053b0b3a 	ldreq	r0, [fp, #-2874]!	; 0xb3a
     84c:	05381349 	ldreq	r1, [r8, #-841]!	; 0x349
     850:	13190000 	tstne	r9, #0
     854:	0b0e0301 	bleq	381460 <__bss_end__+0x375778>
     858:	3b0b3a0b 	blcc	2cf08c <__bss_end__+0x2c33a4>
     85c:	00130105 	andseq	r0, r3, r5, lsl #2
     860:	01131a00 	tsteq	r3, r0, lsl #20
     864:	0b3a0b0b 	bleq	e83498 <__bss_end__+0xe777b0>
     868:	1301053b 	movwne	r0, #5435	; 0x153b
     86c:	171b0000 	ldrne	r0, [fp, -r0]
     870:	3a0b0b01 	bcc	2c347c <__bss_end__+0x2b7794>
     874:	01053b0b 	tsteq	r5, fp, lsl #22
     878:	1c000013 	stcne	0, cr0, [r0], {19}
     87c:	0e03000d 	cdpeq	0, 0, cr0, cr3, cr13, {0}
     880:	053b0b3a 	ldreq	r0, [fp, #-2874]!	; 0xb3a
     884:	00001349 	andeq	r1, r0, r9, asr #6
     888:	2701151d 	smladcs	r1, sp, r5, r1
     88c:	00130119 	andseq	r0, r3, r9, lsl r1
     890:	00341e00 	eorseq	r1, r4, r0, lsl #28
     894:	0b3a0e03 	bleq	e840a8 <__bss_end__+0xe783c0>
     898:	1349053b 	movtne	r0, #38203	; 0x953b
     89c:	193c193f 	ldmdbne	ip!, {r0, r1, r2, r3, r4, r5, r8, fp, ip}
     8a0:	341f0000 	ldrcc	r0, [pc], #-0	; 8a8 <_start-0x7758>
     8a4:	3a0e0300 	bcc	3814ac <__bss_end__+0x3757c4>
     8a8:	490b3b0b 	stmdbmi	fp, {r0, r1, r3, r8, r9, fp, ip, sp}
     8ac:	3c193f13 	ldccc	15, cr3, [r9], {19}
     8b0:	20000019 	andcs	r0, r0, r9, lsl r0
     8b4:	0b0b0104 	bleq	2c0ccc <__bss_end__+0x2b4fe4>
     8b8:	0b3a1349 	bleq	e855e4 <__bss_end__+0xe798fc>
     8bc:	13010b3b 	movwne	r0, #6971	; 0x1b3b
     8c0:	28210000 	stmdacs	r1!, {}	; <UNPREDICTABLE>
     8c4:	1c0e0300 	stcne	3, cr0, [lr], {-0}
     8c8:	2200000b 	andcs	r0, r0, #11
     8cc:	0e03000d 	cdpeq	0, 0, cr0, cr3, cr13, {0}
     8d0:	0b3b0b3a 	bleq	ec35c0 <__bss_end__+0xeb78d8>
     8d4:	0b0b1349 	bleq	2c5600 <__bss_end__+0x2b9918>
     8d8:	0b0c0b0d 	bleq	303514 <__bss_end__+0x2f782c>
     8dc:	00000b38 	andeq	r0, r0, r8, lsr fp
     8e0:	03000d23 	movweq	r0, #3363	; 0xd23
     8e4:	3b0b3a08 	blcc	2cf10c <__bss_end__+0x2c3424>
     8e8:	0b13490b 	bleq	4d2d1c <__bss_end__+0x4c7034>
     8ec:	0c0b0d0b 	stceq	13, cr0, [fp], {11}
     8f0:	000b380b 	andeq	r3, fp, fp, lsl #16
     8f4:	00352400 	eorseq	r2, r5, r0, lsl #8
     8f8:	00001349 	andeq	r1, r0, r9, asr #6
     8fc:	03003425 	movweq	r3, #1061	; 0x425
     900:	3b0b3a08 	blcc	2cf128 <__bss_end__+0x2c3440>
     904:	0013490b 	andseq	r4, r3, fp, lsl #18
     908:	00342600 	eorseq	r2, r4, r0, lsl #12
     90c:	0b3a0e03 	bleq	e84120 <__bss_end__+0xe78438>
     910:	1349053b 	movtne	r0, #38203	; 0x953b
     914:	00001802 	andeq	r1, r0, r2, lsl #16
     918:	03012e27 	movweq	r2, #7719	; 0x1e27
     91c:	3b0b3a0e 	blcc	2cf15c <__bss_end__+0x2c3474>
     920:	11192705 	tstne	r9, r5, lsl #14
     924:	40061201 	andmi	r1, r6, r1, lsl #4
     928:	19429718 	stmdbne	r2, {r3, r4, r8, r9, sl, ip, pc}^
     92c:	00001301 	andeq	r1, r0, r1, lsl #6
     930:	03003428 	movweq	r3, #1064	; 0x428
     934:	3413490e 	ldrcc	r4, [r3], #-2318	; 0x90e
     938:	00180219 	andseq	r0, r8, r9, lsl r2
     93c:	010b2900 	tsteq	fp, r0, lsl #18
     940:	00001301 	andeq	r1, r0, r1, lsl #6
     944:	0301172a 	movweq	r1, #5930	; 0x172a
     948:	3a0b0b08 	bcc	2c3570 <__bss_end__+0x2b7888>
     94c:	01053b0b 	tsteq	r5, fp, lsl #22
     950:	2b000013 	blcs	9a4 <_start-0x765c>
     954:	0803000d 	stmdaeq	r3, {r0, r2, r3}
     958:	053b0b3a 	ldreq	r0, [fp, #-2874]!	; 0xb3a
     95c:	00001349 	andeq	r1, r0, r9, asr #6
     960:	0300342c 	movweq	r3, #1068	; 0x42c
     964:	3b0b3a08 	blcc	2cf18c <__bss_end__+0x2c34a4>
     968:	00134905 	andseq	r4, r3, r5, lsl #18
     96c:	00342d00 	eorseq	r2, r4, r0, lsl #26
     970:	0b3a0e03 	bleq	e84184 <__bss_end__+0xe7849c>
     974:	1349053b 	movtne	r0, #38203	; 0x953b
     978:	0b2e0000 	bleq	b80980 <__bss_end__+0xb74c98>
     97c:	12011101 	andne	r1, r1, #1073741824	; 0x40000000
     980:	2f000006 	svccs	0x00000006
     984:	08030034 	stmdaeq	r3, {r2, r4, r5}
     988:	053b0b3a 	ldreq	r0, [fp, #-2874]!	; 0xb3a
     98c:	051c1349 	ldreq	r1, [ip, #-841]	; 0x349
     990:	2e300000 	cdpcs	0, 3, cr0, cr0, cr0, {0}
     994:	03193f01 	tsteq	r9, #1, 30
     998:	3b0b3a0e 	blcc	2cf1d8 <__bss_end__+0x2c34f0>
     99c:	11192705 	tstne	r9, r5, lsl #14
     9a0:	40061201 	andmi	r1, r6, r1, lsl #4
     9a4:	19429718 	stmdbne	r2, {r3, r4, r8, r9, sl, ip, pc}^
     9a8:	00001301 	andeq	r1, r0, r1, lsl #6
     9ac:	03003431 	movweq	r3, #1073	; 0x431
     9b0:	3b0b3a08 	blcc	2cf1d8 <__bss_end__+0x2c34f0>
     9b4:	1c134905 	ldcne	9, cr4, [r3], {5}
     9b8:	3200000b 	andcc	r0, r0, #11
     9bc:	00018289 	andeq	r8, r1, r9, lsl #5
     9c0:	13310111 	teqne	r1, #1073741828	; 0x40000004
     9c4:	89330000 	ldmdbhi	r3!, {}	; <UNPREDICTABLE>
     9c8:	11010182 	smlabbne	r1, r2, r1, r0
     9cc:	01133101 	tsteq	r3, r1, lsl #2
     9d0:	34000013 	strcc	r0, [r0], #-19
     9d4:	0001828a 	andeq	r8, r1, sl, lsl #5
     9d8:	42911802 	addsmi	r1, r1, #131072	; 0x20000
     9dc:	35000018 	strcc	r0, [r0, #-24]
     9e0:	193f002e 	ldmdbne	pc!, {r1, r2, r3, r5}	; <UNPREDICTABLE>
     9e4:	0b3a0e03 	bleq	e841f8 <__bss_end__+0xe78510>
     9e8:	1927053b 	stmdbne	r7!, {r0, r1, r3, r4, r5, r8, sl}
     9ec:	01111349 	tsteq	r1, r9, asr #6
     9f0:	18400612 	stmdane	r0, {r1, r4, r9, sl}^
     9f4:	00194297 	mulseq	r9, r7, r2
     9f8:	012e3600 	teqeq	lr, r0, lsl #12
     9fc:	0e03193f 	mcreq	9, 0, r1, cr3, cr15, {1}
     a00:	053b0b3a 	ldreq	r0, [fp, #-2874]!	; 0xb3a
     a04:	13491927 	movtne	r1, #39207	; 0x9927
     a08:	06120111 			; <UNDEFINED> instruction: 0x06120111
     a0c:	42971840 	addsmi	r1, r7, #64, 16	; 0x400000
     a10:	00130119 	andseq	r0, r3, r9, lsl r1
     a14:	00053700 	andeq	r3, r5, r0, lsl #14
     a18:	0b3a0e03 	bleq	e8422c <__bss_end__+0xe78544>
     a1c:	1349053b 	movtne	r0, #38203	; 0x953b
     a20:	00001702 	andeq	r1, r0, r2, lsl #14
     a24:	11010b38 	tstne	r1, r8, lsr fp
     a28:	01061201 	tsteq	r6, r1, lsl #4
     a2c:	39000013 	stmdbcc	r0, {r0, r1, r4}
     a30:	08030034 	stmdaeq	r3, {r2, r4, r5}
     a34:	053b0b3a 	ldreq	r0, [fp, #-2874]!	; 0xb3a
     a38:	17021349 	strne	r1, [r2, -r9, asr #6]
     a3c:	2e3a0000 	cdpcs	0, 3, cr0, cr10, cr0, {0}
     a40:	3a0e0301 	bcc	38164c <__bss_end__+0x375964>
     a44:	270b3b0b 	strcs	r3, [fp, -fp, lsl #22]
     a48:	12011119 	andne	r1, r1, #1073741830	; 0x40000006
     a4c:	97184006 	ldrls	r4, [r8, -r6]
     a50:	13011942 	movwne	r1, #6466	; 0x1942
     a54:	053b0000 	ldreq	r0, [fp, #-0]!
     a58:	3a0e0300 	bcc	381660 <__bss_end__+0x375978>
     a5c:	490b3b0b 	stmdbmi	fp, {r0, r1, r3, r8, r9, fp, ip, sp}
     a60:	00170213 	andseq	r0, r7, r3, lsl r2
     a64:	00343c00 	eorseq	r3, r4, r0, lsl #24
     a68:	0b3a0803 	bleq	e82a7c <__bss_end__+0xe76d94>
     a6c:	13490b3b 	movtne	r0, #39739	; 0x9b3b
     a70:	00001702 	andeq	r1, r0, r2, lsl #14
     a74:	0301173d 	movweq	r1, #5949	; 0x173d
     a78:	3a0b0b08 	bcc	2c36a0 <__bss_end__+0x2b79b8>
     a7c:	010b3b0b 	tsteq	fp, fp, lsl #22
     a80:	3e000013 	mcrcc	0, 0, r0, cr0, cr3, {0}
     a84:	0803000d 	stmdaeq	r3, {r0, r2, r3}
     a88:	0b3b0b3a 	bleq	ec3778 <__bss_end__+0xeb7a90>
     a8c:	00001349 	andeq	r1, r0, r9, asr #6
     a90:	0182893f 	orreq	r8, r2, pc, lsr r9
     a94:	31011101 	tstcc	r1, r1, lsl #2
     a98:	40000013 	andmi	r0, r0, r3, lsl r0
     a9c:	0e03012e 	adfeqsp	f0, f3, #0.5
     aa0:	0b3b0b3a 	bleq	ec3790 <__bss_end__+0xeb7aa8>
     aa4:	13491927 	movtne	r1, #39207	; 0x9927
     aa8:	06120111 			; <UNDEFINED> instruction: 0x06120111
     aac:	42971840 	addsmi	r1, r7, #64, 16	; 0x400000
     ab0:	00130119 	andseq	r0, r3, r9, lsl r1
     ab4:	00054100 	andeq	r4, r5, r0, lsl #2
     ab8:	0b3a0803 	bleq	e82acc <__bss_end__+0xe76de4>
     abc:	13490b3b 	movtne	r0, #39739	; 0x9b3b
     ac0:	00001702 	andeq	r1, r0, r2, lsl #14
     ac4:	3f002e42 	svccc	0x00002e42
     ac8:	6e193c19 	mrcvs	12, 0, r3, cr9, cr9, {0}
     acc:	3a0e030e 	bcc	38170c <__bss_end__+0x375a24>
     ad0:	000b3b0b 	andeq	r3, fp, fp, lsl #22
     ad4:	11010000 	mrsne	r0, (UNDEF: 1)
     ad8:	130e2501 	movwne	r2, #58625	; 0xe501
     adc:	1b0e030b 	blne	381710 <__bss_end__+0x375a28>
     ae0:	1201110e 	andne	r1, r1, #-2147483645	; 0x80000003
     ae4:	00171006 	andseq	r1, r7, r6
     ae8:	00160200 	andseq	r0, r6, r0, lsl #4
     aec:	0b3a0e03 	bleq	e84300 <__bss_end__+0xe78618>
     af0:	13490b3b 	movtne	r0, #39739	; 0x9b3b
     af4:	13030000 	movwne	r0, #12288	; 0x3000
     af8:	0b0e0301 	bleq	381704 <__bss_end__+0x375a1c>
     afc:	3b0b3a0b 	blcc	2cf330 <__bss_end__+0x2c3648>
     b00:	0013010b 	andseq	r0, r3, fp, lsl #2
     b04:	000d0400 	andeq	r0, sp, r0, lsl #8
     b08:	13490e03 	movtne	r0, #40451	; 0x9e03
     b0c:	19340b38 	ldmdbne	r4!, {r3, r4, r5, r8, r9, fp}
     b10:	0f050000 	svceq	0x00050000
     b14:	000b0b00 	andeq	r0, fp, r0, lsl #22
     b18:	00240600 	eoreq	r0, r4, r0, lsl #12
     b1c:	0b3e0b0b 	bleq	f83750 <__bss_end__+0xf77a68>
     b20:	00000803 	andeq	r0, r0, r3, lsl #16
     b24:	0b002407 	bleq	9b48 <va_printk+0x88>
     b28:	030b3e0b 	movweq	r3, #48651	; 0xbe0b
     b2c:	0800000e 	stmdaeq	r0, {r1, r2, r3}
     b30:	0b0b000f 	bleq	2c0b74 <__bss_end__+0x2b4e8c>
     b34:	00001349 	andeq	r1, r0, r9, asr #6
     b38:	49002609 	stmdbmi	r0, {r0, r3, r9, sl, sp}
     b3c:	0a000013 	beq	b90 <_start-0x7470>
     b40:	193f012e 	ldmdbne	pc!, {r1, r2, r3, r5, r8}	; <UNPREDICTABLE>
     b44:	0b3a0e03 	bleq	e84358 <__bss_end__+0xe78670>
     b48:	19270b3b 	stmdbne	r7!, {r0, r1, r3, r4, r5, r8, r9, fp}
     b4c:	01111349 	tsteq	r1, r9, asr #6
     b50:	18400612 	stmdane	r0, {r1, r4, r9, sl}^
     b54:	01194297 			; <UNDEFINED> instruction: 0x01194297
     b58:	0b000013 	bleq	bac <_start-0x7454>
     b5c:	08030005 	stmdaeq	r3, {r0, r2}
     b60:	0b3b0b3a 	bleq	ec3850 <__bss_end__+0xeb7b68>
     b64:	18021349 	stmdane	r2, {r0, r3, r6, r8, r9, ip}
     b68:	180c0000 	stmdane	ip, {}	; <UNPREDICTABLE>
     b6c:	0d000000 	stceq	0, cr0, [r0, #-0]
     b70:	08030034 	stmdaeq	r3, {r2, r4, r5}
     b74:	0b3b0b3a 	bleq	ec3864 <__bss_end__+0xeb7b7c>
     b78:	18021349 	stmdane	r2, {r0, r3, r6, r8, r9, ip}
     b7c:	340e0000 	strcc	r0, [lr], #-0
     b80:	3a0e0300 	bcc	381788 <__bss_end__+0x375aa0>
     b84:	490b3b0b 	stmdbmi	fp, {r0, r1, r3, r8, r9, fp, ip, sp}
     b88:	00180213 	andseq	r0, r8, r3, lsl r2
     b8c:	00340f00 	eorseq	r0, r4, r0, lsl #30
     b90:	0b3a0803 	bleq	e82ba4 <__bss_end__+0xe76ebc>
     b94:	13490b3b 	movtne	r0, #39739	; 0x9b3b
     b98:	00001702 	andeq	r1, r0, r2, lsl #14
     b9c:	01828910 	orreq	r8, r2, r0, lsl r9
     ba0:	31011101 	tstcc	r1, r1, lsl #2
     ba4:	00130113 	andseq	r0, r3, r3, lsl r1
     ba8:	828a1100 	addhi	r1, sl, #0, 2
     bac:	18020001 	stmdane	r2, {r0}
     bb0:	00184291 	mulseq	r8, r1, r2
     bb4:	82891200 	addhi	r1, r9, #0, 4
     bb8:	01110101 	tsteq	r1, r1, lsl #2
     bbc:	01130000 	tsteq	r3, r0
     bc0:	01134901 	tsteq	r3, r1, lsl #18
     bc4:	14000013 	strne	r0, [r0], #-19
     bc8:	13490021 	movtne	r0, #36897	; 0x9021
     bcc:	0000052f 	andeq	r0, r0, pc, lsr #10
     bd0:	27011515 	smladcs	r1, r5, r5, r1
     bd4:	01134919 	tsteq	r3, r9, lsl r9
     bd8:	16000013 			; <UNDEFINED> instruction: 0x16000013
     bdc:	13490005 	movtne	r0, #36869	; 0x9005
     be0:	34170000 	ldrcc	r0, [r7], #-0
     be4:	3a0e0300 	bcc	3817ec <__bss_end__+0x375b04>
     be8:	490b3b0b 	stmdbmi	fp, {r0, r1, r3, r8, r9, fp, ip, sp}
     bec:	3c193f13 	ldccc	15, cr3, [r9], {19}
     bf0:	18000019 	stmdane	r0, {r0, r3, r4}
     bf4:	193f012e 	ldmdbne	pc!, {r1, r2, r3, r5, r8}	; <UNPREDICTABLE>
     bf8:	0b3a0e03 	bleq	e8440c <__bss_end__+0xe78724>
     bfc:	19270b3b 	stmdbne	r7!, {r0, r1, r3, r4, r5, r8, r9, fp}
     c00:	193c1349 	ldmdbne	ip!, {r0, r3, r6, r8, r9, ip}
     c04:	01000000 	mrseq	r0, (UNDEF: 0)
     c08:	0e250111 	mcreq	1, 1, r0, cr5, cr1, {0}
     c0c:	0e030b13 	vmoveq.32	d3[0], r0
     c10:	01110e1b 	tsteq	r1, fp, lsl lr
     c14:	17100612 			; <UNDEFINED> instruction: 0x17100612
     c18:	24020000 	strcs	r0, [r2], #-0
     c1c:	3e0b0b00 	vmlacc.f64	d0, d11, d0
     c20:	0008030b 	andeq	r0, r8, fp, lsl #6
     c24:	00240300 	eoreq	r0, r4, r0, lsl #6
     c28:	0b3e0b0b 	bleq	f8385c <__bss_end__+0xf77b74>
     c2c:	00000e03 	andeq	r0, r0, r3, lsl #28
     c30:	03012e04 	movweq	r2, #7684	; 0x1e04
     c34:	3b0b3a0e 	blcc	2cf474 <__bss_end__+0x2c378c>
     c38:	4919270b 	ldmdbmi	r9, {r0, r1, r3, r8, r9, sl, sp}
     c3c:	12011113 	andne	r1, r1, #-1073741820	; 0xc0000004
     c40:	97184006 	ldrls	r4, [r8, -r6]
     c44:	13011942 	movwne	r1, #6466	; 0x1942
     c48:	05050000 	streq	r0, [r5, #-0]
     c4c:	3a080300 	bcc	201854 <__bss_end__+0x1f5b6c>
     c50:	490b3b0b 	stmdbmi	fp, {r0, r1, r3, r8, r9, fp, ip, sp}
     c54:	00170213 	andseq	r0, r7, r3, lsl r2
     c58:	82890600 	addhi	r0, r9, #0, 12
     c5c:	01110101 	tsteq	r1, r1, lsl #2
     c60:	00001331 	andeq	r1, r0, r1, lsr r3
     c64:	01828a07 	orreq	r8, r2, r7, lsl #20
     c68:	91180200 	tstls	r8, r0, lsl #4
     c6c:	00001842 	andeq	r1, r0, r2, asr #16
     c70:	3f002e08 	svccc	0x00002e08
     c74:	3a0e0319 	bcc	3818e0 <__bss_end__+0x375bf8>
     c78:	270b3b0b 	strcs	r3, [fp, -fp, lsl #22]
     c7c:	12011119 	andne	r1, r1, #1073741830	; 0x40000006
     c80:	97184006 	ldrls	r4, [r8, -r6]
     c84:	00001942 	andeq	r1, r0, r2, asr #18
     c88:	3f012e09 	svccc	0x00012e09
     c8c:	3a0e0319 	bcc	3818f8 <__bss_end__+0x375c10>
     c90:	270b3b0b 	strcs	r3, [fp, -fp, lsl #22]
     c94:	12011119 	andne	r1, r1, #1073741830	; 0x40000006
     c98:	97184006 	ldrls	r4, [r8, -r6]
     c9c:	13011942 	movwne	r1, #6466	; 0x1942
     ca0:	050a0000 	streq	r0, [sl, #-0]
     ca4:	3a080300 	bcc	2018ac <__bss_end__+0x1f5bc4>
     ca8:	490b3b0b 	stmdbmi	fp, {r0, r1, r3, r8, r9, fp, ip, sp}
     cac:	00180213 	andseq	r0, r8, r3, lsl r2
     cb0:	01150b00 	tsteq	r5, r0, lsl #22
     cb4:	13491927 	movtne	r1, #39207	; 0x9927
     cb8:	00001301 	andeq	r1, r0, r1, lsl #6
     cbc:	4900050c 	stmdbmi	r0, {r2, r3, r8, sl}
     cc0:	0d000013 	stceq	0, cr0, [r0, #-76]	; 0xffffffb4
     cc4:	0b0b000f 	bleq	2c0d08 <__bss_end__+0x2b5020>
     cc8:	00001349 	andeq	r1, r0, r9, asr #6
     ccc:	0300340e 	movweq	r3, #1038	; 0x40e
     cd0:	3b0b3a0e 	blcc	2cf510 <__bss_end__+0x2c3828>
     cd4:	3f13490b 	svccc	0x0013490b
     cd8:	00180219 	andseq	r0, r8, r9, lsl r2
     cdc:	012e0f00 	teqeq	lr, r0, lsl #30
     ce0:	0e03193f 	mcreq	9, 0, r1, cr3, cr15, {1}
     ce4:	0b3b0b3a 	bleq	ec39d4 <__bss_end__+0xeb7cec>
     ce8:	193c1927 	ldmdbne	ip!, {r0, r1, r2, r5, r8, fp, ip}
     cec:	01000000 	mrseq	r0, (UNDEF: 0)
     cf0:	0e250111 	mcreq	1, 1, r0, cr5, cr1, {0}
     cf4:	0e030b13 	vmoveq.32	d3[0], r0
     cf8:	01110e1b 	tsteq	r1, fp, lsl lr
     cfc:	17100612 			; <UNDEFINED> instruction: 0x17100612
     d00:	24020000 	strcs	r0, [r2], #-0
     d04:	3e0b0b00 	vmlacc.f64	d0, d11, d0
     d08:	0008030b 	andeq	r0, r8, fp, lsl #6
     d0c:	00240300 	eoreq	r0, r4, r0, lsl #6
     d10:	0b3e0b0b 	bleq	f83944 <__bss_end__+0xf77c5c>
     d14:	00000e03 	andeq	r0, r0, r3, lsl #28
     d18:	0b000f04 	bleq	4930 <_start-0x36d0>
     d1c:	0013490b 	andseq	r4, r3, fp, lsl #18
     d20:	00260500 	eoreq	r0, r6, r0, lsl #10
     d24:	00001349 	andeq	r1, r0, r9, asr #6
     d28:	3f012e06 	svccc	0x00012e06
     d2c:	3a0e0319 	bcc	381998 <__bss_end__+0x375cb0>
     d30:	270b3b0b 	strcs	r3, [fp, -fp, lsl #22]
     d34:	11134919 	tstne	r3, r9, lsl r9
     d38:	40061201 	andmi	r1, r6, r1, lsl #4
     d3c:	19429618 	stmdbne	r2, {r3, r4, r9, sl, ip, pc}^
     d40:	00001301 	andeq	r1, r0, r1, lsl #6
     d44:	03000507 	movweq	r0, #1287	; 0x507
     d48:	3b0b3a08 	blcc	2cf570 <__bss_end__+0x2c3888>
     d4c:	0213490b 	andseq	r4, r3, #180224	; 0x2c000
     d50:	08000017 	stmdaeq	r0, {r0, r1, r2, r4}
     d54:	19270115 	stmdbne	r7!, {r0, r2, r4, r8}
     d58:	13011349 	movwne	r1, #4937	; 0x1349
     d5c:	05090000 	streq	r0, [r9, #-0]
     d60:	00134900 	andseq	r4, r3, r0, lsl #18
     d64:	00340a00 	eorseq	r0, r4, r0, lsl #20
     d68:	0b3a0e03 	bleq	e8457c <__bss_end__+0xe78894>
     d6c:	13490b3b 	movtne	r0, #39739	; 0x9b3b
     d70:	193c193f 	ldmdbne	ip!, {r0, r1, r2, r3, r4, r5, r8, fp, ip}
     d74:	340b0000 	strcc	r0, [fp], #-0
     d78:	3a0e0300 	bcc	381980 <__bss_end__+0x375c98>
     d7c:	490b3b0b 	stmdbmi	fp, {r0, r1, r3, r8, r9, fp, ip, sp}
     d80:	02193f13 	andseq	r3, r9, #19, 30	; 0x4c
     d84:	00000018 	andeq	r0, r0, r8, lsl r0
     d88:	25011101 	strcs	r1, [r1, #-257]	; 0x101
     d8c:	030b130e 	movweq	r1, #45838	; 0xb30e
     d90:	110e1b0e 	tstne	lr, lr, lsl #22
     d94:	10061201 	andne	r1, r6, r1, lsl #4
     d98:	02000017 	andeq	r0, r0, #23
     d9c:	0b0b0024 	bleq	2c0e34 <__bss_end__+0x2b514c>
     da0:	08030b3e 	stmdaeq	r3, {r1, r2, r3, r4, r5, r8, r9, fp}
     da4:	24030000 	strcs	r0, [r3], #-0
     da8:	3e0b0b00 	vmlacc.f64	d0, d11, d0
     dac:	000e030b 	andeq	r0, lr, fp, lsl #6
     db0:	000f0400 	andeq	r0, pc, r0, lsl #8
     db4:	00000b0b 	andeq	r0, r0, fp, lsl #22
     db8:	0b000f05 	bleq	49d4 <_start-0x362c>
     dbc:	0013490b 	andseq	r4, r3, fp, lsl #18
     dc0:	00260600 	eoreq	r0, r6, r0, lsl #12
     dc4:	00001349 	andeq	r1, r0, r9, asr #6
     dc8:	03001607 	movweq	r1, #1543	; 0x607
     dcc:	3b0b3a0e 	blcc	2cf60c <__bss_end__+0x2c3924>
     dd0:	0013490b 	andseq	r4, r3, fp, lsl #18
     dd4:	01130800 	tsteq	r3, r0, lsl #16
     dd8:	0b0b0e03 	bleq	2c45ec <__bss_end__+0x2b8904>
     ddc:	0b3b0b3a 	bleq	ec3acc <__bss_end__+0xeb7de4>
     de0:	00001301 	andeq	r1, r0, r1, lsl #6
     de4:	03000d09 	movweq	r0, #3337	; 0xd09
     de8:	3813490e 	ldmdacc	r3, {r1, r2, r3, r8, fp, lr}
     dec:	0019340b 	andseq	r3, r9, fp, lsl #8
     df0:	012e0a00 	teqeq	lr, r0, lsl #20
     df4:	0b3a0e03 	bleq	e84608 <__bss_end__+0xe78920>
     df8:	19270b3b 	stmdbne	r7!, {r0, r1, r3, r4, r5, r8, r9, fp}
     dfc:	01111349 	tsteq	r1, r9, asr #6
     e00:	18400612 	stmdane	r0, {r1, r4, r9, sl}^
     e04:	01194297 			; <UNDEFINED> instruction: 0x01194297
     e08:	0b000013 	bleq	e5c <_start-0x71a4>
     e0c:	08030005 	stmdaeq	r3, {r0, r2}
     e10:	0b3b0b3a 	bleq	ec3b00 <__bss_end__+0xeb7e18>
     e14:	17021349 	strne	r1, [r2, -r9, asr #6]
     e18:	2e0c0000 	cdpcs	0, 0, cr0, cr12, cr0, {0}
     e1c:	3a080301 	bcc	201a28 <__bss_end__+0x1f5d40>
     e20:	270b3b0b 	strcs	r3, [fp, -fp, lsl #22]
     e24:	11134919 	tstne	r3, r9, lsl r9
     e28:	40061201 	andmi	r1, r6, r1, lsl #4
     e2c:	19429718 	stmdbne	r2, {r3, r4, r8, r9, sl, ip, pc}^
     e30:	00001301 	andeq	r1, r0, r1, lsl #6
     e34:	0300050d 	movweq	r0, #1293	; 0x50d
     e38:	3b0b3a0e 	blcc	2cf678 <__bss_end__+0x2c3990>
     e3c:	0213490b 	andseq	r4, r3, #180224	; 0x2c000
     e40:	0e000017 	mcreq	0, 0, r0, cr0, cr7, {0}
     e44:	0e030005 	cdpeq	0, 0, cr0, cr3, cr5, {0}
     e48:	0b3b0b3a 	bleq	ec3b38 <__bss_end__+0xeb7e50>
     e4c:	18021349 	stmdane	r2, {r0, r3, r6, r8, r9, ip}
     e50:	340f0000 	strcc	r0, [pc], #-0	; e58 <_start-0x71a8>
     e54:	3a080300 	bcc	201a5c <__bss_end__+0x1f5d74>
     e58:	490b3b0b 	stmdbmi	fp, {r0, r1, r3, r8, r9, fp, ip, sp}
     e5c:	00180213 	andseq	r0, r8, r3, lsl r2
     e60:	00341000 	eorseq	r1, r4, r0
     e64:	0b3a0803 	bleq	e82e78 <__bss_end__+0xe77190>
     e68:	13490b3b 	movtne	r0, #39739	; 0x9b3b
     e6c:	00001702 	andeq	r1, r0, r2, lsl #14
     e70:	03003411 	movweq	r3, #1041	; 0x411
     e74:	3413490e 	ldrcc	r4, [r3], #-2318	; 0x90e
     e78:	00180219 	andseq	r0, r8, r9, lsl r2
     e7c:	010b1200 	mrseq	r1, R11_fiq
     e80:	06120111 			; <UNDEFINED> instruction: 0x06120111
     e84:	00001301 	andeq	r1, r0, r1, lsl #6
     e88:	03003413 	movweq	r3, #1043	; 0x413
     e8c:	3b0b3a0e 	blcc	2cf6cc <__bss_end__+0x2c39e4>
     e90:	0213490b 	andseq	r4, r3, #180224	; 0x2c000
     e94:	14000017 	strne	r0, [r0], #-23
     e98:	00018289 	andeq	r8, r1, r9, lsl #5
     e9c:	13310111 	teqne	r1, #1073741828	; 0x40000004
     ea0:	89150000 	ldmdbhi	r5, {}	; <UNPREDICTABLE>
     ea4:	11010182 	smlabbne	r1, r2, r1, r0
     ea8:	01133101 	tsteq	r3, r1, lsl #2
     eac:	16000013 			; <UNDEFINED> instruction: 0x16000013
     eb0:	0001828a 	andeq	r8, r1, sl, lsl #5
     eb4:	42911802 	addsmi	r1, r1, #131072	; 0x20000
     eb8:	17000018 	smladne	r0, r8, r0, r0
     ebc:	01018289 	smlabbeq	r1, r9, r2, r8
     ec0:	13310111 	teqne	r1, #1073741828	; 0x40000004
     ec4:	01180000 	tsteq	r8, r0
     ec8:	01134901 	tsteq	r3, r1, lsl #18
     ecc:	19000013 	stmdbne	r0, {r0, r1, r4}
     ed0:	13490021 	movtne	r0, #36897	; 0x9021
     ed4:	00000b2f 	andeq	r0, r0, pc, lsr #22
     ed8:	3f012e1a 	svccc	0x00012e1a
     edc:	3a0e0319 	bcc	381b48 <__bss_end__+0x375e60>
     ee0:	270b3b0b 	strcs	r3, [fp, -fp, lsl #22]
     ee4:	12011119 	andne	r1, r1, #1073741830	; 0x40000006
     ee8:	97184006 	ldrls	r4, [r8, -r6]
     eec:	13011942 	movwne	r1, #6466	; 0x1942
     ef0:	151b0000 	ldrne	r0, [fp, #-0]
     ef4:	49192701 	ldmdbmi	r9, {r0, r8, r9, sl, sp}
     ef8:	00130113 	andseq	r0, r3, r3, lsl r1
     efc:	00051c00 	andeq	r1, r5, r0, lsl #24
     f00:	00001349 	andeq	r1, r0, r9, asr #6
     f04:	3f012e1d 	svccc	0x00012e1d
     f08:	3a0e0319 	bcc	381b74 <__bss_end__+0x375e8c>
     f0c:	270b3b0b 	strcs	r3, [fp, -fp, lsl #22]
     f10:	11134919 	tstne	r3, r9, lsl r9
     f14:	40061201 	andmi	r1, r6, r1, lsl #4
     f18:	19429718 	stmdbne	r2, {r3, r4, r8, r9, sl, ip, pc}^
     f1c:	00001301 	andeq	r1, r0, r1, lsl #6
     f20:	55010b1e 	strpl	r0, [r1, #-2846]	; 0xb1e
     f24:	1f000017 	svcne	0x00000017
     f28:	0e030034 	mcreq	0, 0, r0, cr3, cr4, {1}
     f2c:	0b3b0b3a 	bleq	ec3c1c <__bss_end__+0xeb7f34>
     f30:	193f1349 	ldmdbne	pc!, {r0, r3, r6, r8, r9, ip}	; <UNPREDICTABLE>
     f34:	0000193c 	andeq	r1, r0, ip, lsr r9
     f38:	3f002e20 	svccc	0x00002e20
     f3c:	3a0e0319 	bcc	381ba8 <__bss_end__+0x375ec0>
     f40:	270b3b0b 	strcs	r3, [fp, -fp, lsl #22]
     f44:	00193c19 	andseq	r3, r9, r9, lsl ip
     f48:	012e2100 	teqeq	lr, r0, lsl #2
     f4c:	0e03193f 	mcreq	9, 0, r1, cr3, cr15, {1}
     f50:	0b3b0b3a 	bleq	ec3c40 <__bss_end__+0xeb7f58>
     f54:	13491927 	movtne	r1, #39207	; 0x9927
     f58:	1301193c 	movwne	r1, #6460	; 0x193c
     f5c:	18220000 	stmdane	r2!, {}	; <UNPREDICTABLE>
     f60:	00000000 	andeq	r0, r0, r0
     f64:	25011101 	strcs	r1, [r1, #-257]	; 0x101
     f68:	030b130e 	movweq	r1, #45838	; 0xb30e
     f6c:	110e1b0e 	tstne	lr, lr, lsl #22
     f70:	10061201 	andne	r1, r6, r1, lsl #4
     f74:	02000017 	andeq	r0, r0, #23
     f78:	0b0b0024 	bleq	2c1010 <__bss_end__+0x2b5328>
     f7c:	08030b3e 	stmdaeq	r3, {r1, r2, r3, r4, r5, r8, r9, fp}
     f80:	24030000 	strcs	r0, [r3], #-0
     f84:	3e0b0b00 	vmlacc.f64	d0, d11, d0
     f88:	000e030b 	andeq	r0, lr, fp, lsl #6
     f8c:	000f0400 	andeq	r0, pc, r0, lsl #8
     f90:	13490b0b 	movtne	r0, #39691	; 0x9b0b
     f94:	26050000 	strcs	r0, [r5], -r0
     f98:	00134900 	andseq	r4, r3, r0, lsl #18
     f9c:	012e0600 	teqeq	lr, r0, lsl #12
     fa0:	0e03193f 	mcreq	9, 0, r1, cr3, cr15, {1}
     fa4:	0b3b0b3a 	bleq	ec3c94 <__bss_end__+0xeb7fac>
     fa8:	01111927 	tsteq	r1, r7, lsr #18
     fac:	18400612 	stmdane	r0, {r1, r4, r9, sl}^
     fb0:	01194297 			; <UNDEFINED> instruction: 0x01194297
     fb4:	07000013 	smladeq	r0, r3, r0, r0
     fb8:	01018289 	smlabbeq	r1, r9, r2, r8
     fbc:	13010111 	movwne	r0, #4369	; 0x1111
     fc0:	8a080000 	bhi	200fc8 <__bss_end__+0x1f52e0>
     fc4:	02000182 	andeq	r0, r0, #-2147483616	; 0x80000020
     fc8:	18429118 	stmdane	r2, {r3, r4, r8, ip, pc}^
     fcc:	89090000 	stmdbhi	r9, {}	; <UNPREDICTABLE>
     fd0:	11010182 	smlabbne	r1, r2, r1, r0
     fd4:	01133101 	tsteq	r3, r1, lsl #2
     fd8:	0a000013 	beq	102c <_start-0x6fd4>
     fdc:	00018289 	andeq	r8, r1, r9, lsl #5
     fe0:	13310111 	teqne	r1, #1073741828	; 0x40000004
     fe4:	150b0000 	strne	r0, [fp, #-0]
     fe8:	49192701 	ldmdbmi	r9, {r0, r8, r9, sl, sp}
     fec:	00130113 	andseq	r0, r3, r3, lsl r1
     ff0:	00050c00 	andeq	r0, r5, r0, lsl #24
     ff4:	00001349 	andeq	r1, r0, r9, asr #6
     ff8:	0300340d 	movweq	r3, #1037	; 0x40d
     ffc:	3b0b3a0e 	blcc	2cf83c <__bss_end__+0x2c3b54>
    1000:	3f13490b 	svccc	0x0013490b
    1004:	00193c19 	andseq	r3, r9, r9, lsl ip
    1008:	012e0e00 	teqeq	lr, r0, lsl #28
    100c:	0e03193f 	mcreq	9, 0, r1, cr3, cr15, {1}
    1010:	0b3b0b3a 	bleq	ec3d00 <__bss_end__+0xeb8018>
    1014:	193c1927 	ldmdbne	ip!, {r0, r1, r2, r5, r8, fp, ip}
    1018:	00001301 	andeq	r1, r0, r1, lsl #6
    101c:	3f002e0f 	svccc	0x00002e0f
    1020:	3a0e0319 	bcc	381c8c <__bss_end__+0x375fa4>
    1024:	270b3b0b 	strcs	r3, [fp, -fp, lsl #22]
    1028:	00193c19 	andseq	r3, r9, r9, lsl ip
    102c:	11010000 	mrsne	r0, (UNDEF: 1)
    1030:	130e2501 	movwne	r2, #58625	; 0xe501
    1034:	1b0e030b 	blne	381c68 <__bss_end__+0x375f80>
    1038:	1201110e 	andne	r1, r1, #-2147483645	; 0x80000003
    103c:	00171006 	andseq	r1, r7, r6
    1040:	00240200 	eoreq	r0, r4, r0, lsl #4
    1044:	0b3e0b0b 	bleq	f83c78 <__bss_end__+0xf77f90>
    1048:	00000803 	andeq	r0, r0, r3, lsl #16
    104c:	0b002403 	bleq	a060 <gpio_set_input+0x7c>
    1050:	030b3e0b 	movweq	r3, #48651	; 0xbe0b
    1054:	0400000e 	streq	r0, [r0], #-14
    1058:	193f012e 	ldmdbne	pc!, {r1, r2, r3, r5, r8}	; <UNPREDICTABLE>
    105c:	0b3a0e03 	bleq	e84870 <__bss_end__+0xe78b88>
    1060:	01110b3b 	tsteq	r1, fp, lsr fp
    1064:	18400612 	stmdane	r0, {r1, r4, r9, sl}^
    1068:	01194297 			; <UNDEFINED> instruction: 0x01194297
    106c:	05000013 	streq	r0, [r0, #-19]
    1070:	0e030034 	mcreq	0, 0, r0, cr3, cr4, {1}
    1074:	0b3b0b3a 	bleq	ec3d64 <__bss_end__+0xeb807c>
    1078:	193f1349 	ldmdbne	pc!, {r0, r3, r6, r8, r9, ip}	; <UNPREDICTABLE>
    107c:	0000193c 	andeq	r1, r0, ip, lsr r9
    1080:	3f002e06 	svccc	0x00002e06
    1084:	3a0e0319 	bcc	381cf0 <__bss_end__+0x376008>
    1088:	270b3b0b 	strcs	r3, [fp, -fp, lsl #22]
    108c:	00193c19 	andseq	r3, r9, r9, lsl ip
    1090:	00340700 	eorseq	r0, r4, r0, lsl #14
    1094:	0b3a0803 	bleq	e830a8 <__bss_end__+0xe773c0>
    1098:	13490b3b 	movtne	r0, #39739	; 0x9b3b
    109c:	00001702 	andeq	r1, r0, r2, lsl #14
    10a0:	03003408 	movweq	r3, #1032	; 0x408
    10a4:	3b0b3a0e 	blcc	2cf8e4 <__bss_end__+0x2c3bfc>
    10a8:	0013490b 	andseq	r4, r3, fp, lsl #18
    10ac:	82890900 	addhi	r0, r9, #0, 18
    10b0:	01110001 	tsteq	r1, r1
    10b4:	00001331 	andeq	r1, r0, r1, lsr r3
    10b8:	0b000f0a 	bleq	4ce8 <_start-0x3318>
    10bc:	0013490b 	andseq	r4, r3, fp, lsl #18
    10c0:	11010000 	mrsne	r0, (UNDEF: 1)
    10c4:	130e2501 	movwne	r2, #58625	; 0xe501
    10c8:	1b0e030b 	blne	381cfc <__bss_end__+0x376014>
    10cc:	1117550e 	tstne	r7, lr, lsl #10
    10d0:	00171001 	andseq	r1, r7, r1
    10d4:	00240200 	eoreq	r0, r4, r0, lsl #4
    10d8:	0b3e0b0b 	bleq	f83d0c <__bss_end__+0xf78024>
    10dc:	00000803 	andeq	r0, r0, r3, lsl #16
    10e0:	0b002403 	bleq	a0f4 <gpio_read+0x44>
    10e4:	030b3e0b 	movweq	r3, #48651	; 0xbe0b
    10e8:	0400000e 	streq	r0, [r0], #-14
    10ec:	193f012e 	ldmdbne	pc!, {r1, r2, r3, r5, r8}	; <UNPREDICTABLE>
    10f0:	0b3a0e03 	bleq	e84904 <__bss_end__+0xe78c1c>
    10f4:	19270b3b 	stmdbne	r7!, {r0, r1, r3, r4, r5, r8, r9, fp}
    10f8:	01111349 	tsteq	r1, r9, asr #6
    10fc:	18400612 	stmdane	r0, {r1, r4, r9, sl}^
    1100:	01194297 			; <UNDEFINED> instruction: 0x01194297
    1104:	05000013 	streq	r0, [r0, #-19]
    1108:	0e030034 	mcreq	0, 0, r0, cr3, cr4, {1}
    110c:	0b3b0b3a 	bleq	ec3dfc <__bss_end__+0xeb8114>
    1110:	17021349 	strne	r1, [r2, -r9, asr #6]
    1114:	2e060000 	cdpcs	0, 0, cr0, cr6, cr0, {0}
    1118:	03193f01 	tsteq	r9, #1, 30
    111c:	3b0b3a0e 	blcc	2cf95c <__bss_end__+0x2c3c74>
    1120:	1119270b 	tstne	r9, fp, lsl #14
    1124:	40061201 	andmi	r1, r6, r1, lsl #4
    1128:	19429718 	stmdbne	r2, {r3, r4, r8, r9, sl, ip, pc}^
    112c:	00001301 	andeq	r1, r0, r1, lsl #6
    1130:	03003407 	movweq	r3, #1031	; 0x407
    1134:	3b0b3a0e 	blcc	2cf974 <__bss_end__+0x2c3c8c>
    1138:	1c13490b 	ldcne	9, cr4, [r3], {11}
    113c:	08000006 	stmdaeq	r0, {r1, r2}
    1140:	0e030034 	mcreq	0, 0, r0, cr3, cr4, {1}
    1144:	0b3b0b3a 	bleq	ec3e34 <__bss_end__+0xeb814c>
    1148:	0b1c1349 	bleq	705e74 <__bss_end__+0x6fa18c>
    114c:	89090000 	stmdbhi	r9, {}	; <UNPREDICTABLE>
    1150:	11000182 	smlabbne	r0, r2, r1, r0
    1154:	00133101 	andseq	r3, r3, r1, lsl #2
    1158:	82890a00 	addhi	r0, r9, #0, 20
    115c:	01110101 	tsteq	r1, r1, lsl #2
    1160:	13011331 	movwne	r1, #4913	; 0x1331
    1164:	8a0b0000 	bhi	2c116c <__bss_end__+0x2b5484>
    1168:	02000182 	andeq	r0, r0, #-2147483616	; 0x80000020
    116c:	18429118 	stmdane	r2, {r3, r4, r8, ip, pc}^
    1170:	890c0000 	stmdbhi	ip, {}	; <UNPREDICTABLE>
    1174:	11010182 	smlabbne	r1, r2, r1, r0
    1178:	00133101 	andseq	r3, r3, r1, lsl #2
    117c:	00260d00 	eoreq	r0, r6, r0, lsl #26
    1180:	00001349 	andeq	r1, r0, r9, asr #6
    1184:	3f012e0e 	svccc	0x00012e0e
    1188:	3a0e0319 	bcc	381df4 <__bss_end__+0x37610c>
    118c:	270b3b0b 	strcs	r3, [fp, -fp, lsl #22]
    1190:	01193c19 	tsteq	r9, r9, lsl ip
    1194:	0f000013 	svceq	0x00000013
    1198:	13490005 	movtne	r0, #36869	; 0x9005
    119c:	2e100000 	cdpcs	0, 1, cr0, cr0, cr0, {0}
    11a0:	03193f01 	tsteq	r9, #1, 30
    11a4:	3b0b3a0e 	blcc	2cf9e4 <__bss_end__+0x2c3cfc>
    11a8:	3c19270b 	ldccc	7, cr2, [r9], {11}
    11ac:	00000019 	andeq	r0, r0, r9, lsl r0
    11b0:	25011101 	strcs	r1, [r1, #-257]	; 0x101
    11b4:	030b130e 	movweq	r1, #45838	; 0xb30e
    11b8:	110e1b0e 	tstne	lr, lr, lsl #22
    11bc:	10061201 	andne	r1, r6, r1, lsl #4
    11c0:	02000017 	andeq	r0, r0, #23
    11c4:	0b0b0024 	bleq	2c125c <__bss_end__+0x2b5574>
    11c8:	08030b3e 	stmdaeq	r3, {r1, r2, r3, r4, r5, r8, r9, fp}
    11cc:	24030000 	strcs	r0, [r3], #-0
    11d0:	3e0b0b00 	vmlacc.f64	d0, d11, d0
    11d4:	000e030b 	andeq	r0, lr, fp, lsl #6
    11d8:	012e0400 	teqeq	lr, r0, lsl #8
    11dc:	0e03193f 	mcreq	9, 0, r1, cr3, cr15, {1}
    11e0:	0b3b0b3a 	bleq	ec3ed0 <__bss_end__+0xeb81e8>
    11e4:	01111927 	tsteq	r1, r7, lsr #18
    11e8:	18400612 	stmdane	r0, {r1, r4, r9, sl}^
    11ec:	01194297 			; <UNDEFINED> instruction: 0x01194297
    11f0:	05000013 	streq	r0, [r0, #-19]
    11f4:	0e030005 	cdpeq	0, 0, cr0, cr3, cr5, {0}
    11f8:	0b3b0b3a 	bleq	ec3ee8 <__bss_end__+0xeb8200>
    11fc:	17021349 	strne	r1, [r2, -r9, asr #6]
    1200:	2e060000 	cdpcs	0, 0, cr0, cr6, cr0, {0}
    1204:	03193f01 	tsteq	r9, #1, 30
    1208:	3b0b3a0e 	blcc	2cfa48 <__bss_end__+0x2c3d60>
    120c:	4919270b 	ldmdbmi	r9, {r0, r1, r3, r8, r9, sl, sp}
    1210:	12011113 	andne	r1, r1, #-1073741820	; 0xc0000004
    1214:	97184006 	ldrls	r4, [r8, -r6]
    1218:	13011942 	movwne	r1, #6466	; 0x1942
    121c:	89070000 	stmdbhi	r7, {}	; <UNPREDICTABLE>
    1220:	11010182 	smlabbne	r1, r2, r1, r0
    1224:	00133101 	andseq	r3, r3, r1, lsl #2
    1228:	828a0800 	addhi	r0, sl, #0, 16
    122c:	18020001 	stmdane	r2, {r0}
    1230:	00184291 	mulseq	r8, r1, r2
    1234:	00340900 	eorseq	r0, r4, r0, lsl #18
    1238:	0b3a0803 	bleq	e8324c <__bss_end__+0xe77564>
    123c:	13490b3b 	movtne	r0, #39739	; 0x9b3b
    1240:	00001802 	andeq	r1, r0, r2, lsl #16
    1244:	0182890a 	orreq	r8, r2, sl, lsl #18
    1248:	31011100 	mrscc	r1, (UNDEF: 17)
    124c:	0b000013 	bleq	12a0 <_start-0x6d60>
    1250:	08030005 	stmdaeq	r3, {r0, r2}
    1254:	0b3b0b3a 	bleq	ec3f44 <__bss_end__+0xeb825c>
    1258:	17021349 	strne	r1, [r2, -r9, asr #6]
    125c:	0b0c0000 	bleq	301264 <__bss_end__+0x2f557c>
    1260:	12011101 	andne	r1, r1, #1073741824	; 0x40000000
    1264:	00130106 	andseq	r0, r3, r6, lsl #2
    1268:	00340d00 	eorseq	r0, r4, r0, lsl #26
    126c:	0b3a0803 	bleq	e83280 <__bss_end__+0xe77598>
    1270:	13490b3b 	movtne	r0, #39739	; 0x9b3b
    1274:	00001702 	andeq	r1, r0, r2, lsl #14
    1278:	3f012e0e 	svccc	0x00012e0e
    127c:	3a0e0319 	bcc	381ee8 <__bss_end__+0x376200>
    1280:	270b3b0b 	strcs	r3, [fp, -fp, lsl #22]
    1284:	3c134919 	ldccc	9, cr4, [r3], {25}
    1288:	0f000019 	svceq	0x00000019
    128c:	13490005 	movtne	r0, #36869	; 0x9005
    1290:	01000000 	mrseq	r0, (UNDEF: 0)
    1294:	0e250111 	mcreq	1, 1, r0, cr5, cr1, {0}
    1298:	0e030b13 	vmoveq.32	d3[0], r0
    129c:	01110e1b 	tsteq	r1, fp, lsl lr
    12a0:	17100612 			; <UNDEFINED> instruction: 0x17100612
    12a4:	24020000 	strcs	r0, [r2], #-0
    12a8:	3e0b0b00 	vmlacc.f64	d0, d11, d0
    12ac:	000e030b 	andeq	r0, lr, fp, lsl #6
    12b0:	00240300 	eoreq	r0, r4, r0, lsl #6
    12b4:	0b3e0b0b 	bleq	f83ee8 <__bss_end__+0xf78200>
    12b8:	00000803 	andeq	r0, r0, r3, lsl #16
    12bc:	0b010404 	bleq	422d4 <__bss_end__+0x365ec>
    12c0:	3b0b3a0b 	blcc	2cfaf4 <__bss_end__+0x2c3e0c>
    12c4:	0013010b 	andseq	r0, r3, fp, lsl #2
    12c8:	00280500 	eoreq	r0, r8, r0, lsl #10
    12cc:	0d1c0e03 	ldceq	14, cr0, [ip, #-12]
    12d0:	16060000 	strne	r0, [r6], -r0
    12d4:	3a0e0300 	bcc	381edc <__bss_end__+0x3761f4>
    12d8:	490b3b0b 	stmdbmi	fp, {r0, r1, r3, r8, r9, fp, ip, sp}
    12dc:	07000013 	smladeq	r0, r3, r0, r0
    12e0:	193f012e 	ldmdbne	pc!, {r1, r2, r3, r5, r8}	; <UNPREDICTABLE>
    12e4:	0b3a0e03 	bleq	e84af8 <__bss_end__+0xe78e10>
    12e8:	19270b3b 	stmdbne	r7!, {r0, r1, r3, r4, r5, r8, r9, fp}
    12ec:	06120111 			; <UNDEFINED> instruction: 0x06120111
    12f0:	42971840 	addsmi	r1, r7, #64, 16	; 0x400000
    12f4:	00130119 	andseq	r0, r3, r9, lsl r1
    12f8:	00050800 	andeq	r0, r5, r0, lsl #16
    12fc:	0b3a0803 	bleq	e83310 <__bss_end__+0xe77628>
    1300:	13490b3b 	movtne	r0, #39739	; 0x9b3b
    1304:	00001702 	andeq	r1, r0, r2, lsl #14
    1308:	03003409 	movweq	r3, #1033	; 0x409
    130c:	3b0b3a0e 	blcc	2cfb4c <__bss_end__+0x2c3e64>
    1310:	0213490b 	andseq	r4, r3, #180224	; 0x2c000
    1314:	0a000017 	beq	1378 <_start-0x6c88>
    1318:	01018289 	smlabbeq	r1, r9, r2, r8
    131c:	13310111 	teqne	r1, #1073741828	; 0x40000004
    1320:	00001301 	andeq	r1, r0, r1, lsl #6
    1324:	01828a0b 	orreq	r8, r2, fp, lsl #20
    1328:	91180200 	tstls	r8, r0, lsl #4
    132c:	00001842 	andeq	r1, r0, r2, asr #16
    1330:	0182890c 	orreq	r8, r2, ip, lsl #18
    1334:	31011101 	tstcc	r1, r1, lsl #2
    1338:	0d000013 	stceq	0, cr0, [r0, #-76]	; 0xffffffb4
    133c:	0b0b000f 	bleq	2c1380 <__bss_end__+0x2b5698>
    1340:	00001349 	andeq	r1, r0, r9, asr #6
    1344:	4900350e 	stmdbmi	r0, {r1, r2, r3, r8, sl, ip, sp}
    1348:	0f000013 	svceq	0x00000013
    134c:	193f012e 	ldmdbne	pc!, {r1, r2, r3, r5, r8}	; <UNPREDICTABLE>
    1350:	0b3a0e03 	bleq	e84b64 <__bss_end__+0xe78e7c>
    1354:	19270b3b 	stmdbne	r7!, {r0, r1, r3, r4, r5, r8, r9, fp}
    1358:	01111349 	tsteq	r1, r9, asr #6
    135c:	18400612 	stmdane	r0, {r1, r4, r9, sl}^
    1360:	01194297 			; <UNDEFINED> instruction: 0x01194297
    1364:	10000013 	andne	r0, r0, r3, lsl r0
    1368:	08030034 	stmdaeq	r3, {r2, r4, r5}
    136c:	0b3b0b3a 	bleq	ec405c <__bss_end__+0xeb8374>
    1370:	17021349 	strne	r1, [r2, -r9, asr #6]
    1374:	89110000 	ldmdbhi	r1, {}	; <UNPREDICTABLE>
    1378:	11000182 	smlabbne	r0, r2, r1, r0
    137c:	00133101 	andseq	r3, r3, r1, lsl #2
    1380:	00051200 	andeq	r1, r5, r0, lsl #4
    1384:	0b3a0e03 	bleq	e84b98 <__bss_end__+0xe78eb0>
    1388:	13490b3b 	movtne	r0, #39739	; 0x9b3b
    138c:	00001702 	andeq	r1, r0, r2, lsl #14
    1390:	3f012e13 	svccc	0x00012e13
    1394:	3a0e0319 	bcc	382000 <__bss_end__+0x376318>
    1398:	27053b0b 	strcs	r3, [r5, -fp, lsl #22]
    139c:	11134919 	tstne	r3, r9, lsl r9
    13a0:	40061201 	andmi	r1, r6, r1, lsl #4
    13a4:	19429718 	stmdbne	r2, {r3, r4, r8, r9, sl, ip, pc}^
    13a8:	00001301 	andeq	r1, r0, r1, lsl #6
    13ac:	03000514 	movweq	r0, #1300	; 0x514
    13b0:	3b0b3a0e 	blcc	2cfbf0 <__bss_end__+0x2c3f08>
    13b4:	02134905 	andseq	r4, r3, #81920	; 0x14000
    13b8:	15000017 	strne	r0, [r0, #-23]
    13bc:	193f012e 	ldmdbne	pc!, {r1, r2, r3, r5, r8}	; <UNPREDICTABLE>
    13c0:	0b3a0e03 	bleq	e84bd4 <__bss_end__+0xe78eec>
    13c4:	1927053b 	stmdbne	r7!, {r0, r1, r3, r4, r5, r8, sl}
    13c8:	06120111 			; <UNDEFINED> instruction: 0x06120111
    13cc:	42971840 	addsmi	r1, r7, #64, 16	; 0x400000
    13d0:	00130119 	andseq	r0, r3, r9, lsl r1
    13d4:	00051600 	andeq	r1, r5, r0, lsl #12
    13d8:	0b3a0803 	bleq	e833ec <__bss_end__+0xe77704>
    13dc:	1349053b 	movtne	r0, #38203	; 0x953b
    13e0:	00001702 	andeq	r1, r0, r2, lsl #14
    13e4:	03003417 	movweq	r3, #1047	; 0x417
    13e8:	3b0b3a0e 	blcc	2cfc28 <__bss_end__+0x2c3f40>
    13ec:	02134905 	andseq	r4, r3, #81920	; 0x14000
    13f0:	18000017 	stmdane	r0, {r0, r1, r2, r4}
    13f4:	0111010b 	tsteq	r1, fp, lsl #2
    13f8:	13010612 	movwne	r0, #5650	; 0x1612
    13fc:	34190000 	ldrcc	r0, [r9], #-0
    1400:	3a0e0300 	bcc	382008 <__bss_end__+0x376320>
    1404:	490b3b0b 	stmdbmi	fp, {r0, r1, r3, r8, r9, fp, ip, sp}
    1408:	02193f13 	andseq	r3, r9, #19, 30	; 0x4c
    140c:	1a000018 	bne	1474 <_start-0x6b8c>
    1410:	0e030034 	mcreq	0, 0, r0, cr3, cr4, {1}
    1414:	053b0b3a 	ldreq	r0, [fp, #-2874]!	; 0xb3a
    1418:	193f1349 	ldmdbne	pc!, {r0, r3, r6, r8, r9, ip}	; <UNPREDICTABLE>
    141c:	00001802 	andeq	r1, r0, r2, lsl #16
    1420:	3f012e1b 	svccc	0x00012e1b
    1424:	3a0e0319 	bcc	382090 <__bss_end__+0x3763a8>
    1428:	270b3b0b 	strcs	r3, [fp, -fp, lsl #22]
    142c:	3c134919 	ldccc	9, cr4, [r3], {25}
    1430:	00130119 	andseq	r0, r3, r9, lsl r1
    1434:	00051c00 	andeq	r1, r5, r0, lsl #24
    1438:	00001349 	andeq	r1, r0, r9, asr #6
    143c:	4900261d 	stmdbmi	r0, {r0, r2, r3, r4, r9, sl, sp}
    1440:	1e000013 	mcrne	0, 0, r0, cr0, cr3, {0}
    1444:	00000035 	andeq	r0, r0, r5, lsr r0
    1448:	3f012e1f 	svccc	0x00012e1f
    144c:	3a0e0319 	bcc	3820b8 <__bss_end__+0x3763d0>
    1450:	270b3b0b 	strcs	r3, [fp, -fp, lsl #22]
    1454:	01193c19 	tsteq	r9, r9, lsl ip
    1458:	20000013 	andcs	r0, r0, r3, lsl r0
    145c:	193f002e 	ldmdbne	pc!, {r1, r2, r3, r5}	; <UNPREDICTABLE>
    1460:	0b3a0e03 	bleq	e84c74 <__bss_end__+0xe78f8c>
    1464:	19270b3b 	stmdbne	r7!, {r0, r1, r3, r4, r5, r8, r9, fp}
    1468:	0000193c 	andeq	r1, r0, ip, lsr r9
    146c:	01110100 	tsteq	r1, r0, lsl #2
    1470:	0b130e25 	bleq	4c4d0c <__bss_end__+0x4b9024>
    1474:	0e1b0e03 	cdpeq	14, 1, cr0, cr11, cr3, {0}
    1478:	06120111 			; <UNDEFINED> instruction: 0x06120111
    147c:	00001710 	andeq	r1, r0, r0, lsl r7
    1480:	0b002402 	bleq	a490 <kmalloc+0x50>
    1484:	030b3e0b 	movweq	r3, #48651	; 0xbe0b
    1488:	03000008 	movweq	r0, #8
    148c:	0e030016 	mcreq	0, 0, r0, cr3, cr6, {0}
    1490:	0b3b0b3a 	bleq	ec4180 <__bss_end__+0xeb8498>
    1494:	00001349 	andeq	r1, r0, r9, asr #6
    1498:	0b002404 	bleq	a4b0 <kmalloc+0x70>
    149c:	030b3e0b 	movweq	r3, #48651	; 0xbe0b
    14a0:	0500000e 	streq	r0, [r0, #-14]
    14a4:	0b0b000f 	bleq	2c14e8 <__bss_end__+0x2b5800>
    14a8:	0f060000 	svceq	0x00060000
    14ac:	490b0b00 	stmdbmi	fp, {r8, r9, fp}
    14b0:	07000013 	smladeq	r0, r3, r0, r0
    14b4:	13490026 	movtne	r0, #36902	; 0x9026
    14b8:	01080000 	mrseq	r0, (UNDEF: 8)
    14bc:	01134901 	tsteq	r3, r1, lsl #18
    14c0:	09000013 	stmdbeq	r0, {r0, r1, r4}
    14c4:	13490021 	movtne	r0, #36897	; 0x9021
    14c8:	00000b2f 	andeq	r0, r0, pc, lsr #22
    14cc:	3f012e0a 	svccc	0x00012e0a
    14d0:	3a0e0319 	bcc	38213c <__bss_end__+0x376454>
    14d4:	270b3b0b 	strcs	r3, [fp, -fp, lsl #22]
    14d8:	11134919 	tstne	r3, r9, lsl r9
    14dc:	40061201 	andmi	r1, r6, r1, lsl #4
    14e0:	19429718 	stmdbne	r2, {r3, r4, r8, r9, sl, ip, pc}^
    14e4:	00001301 	andeq	r1, r0, r1, lsl #6
    14e8:	0300050b 	movweq	r0, #1291	; 0x50b
    14ec:	3b0b3a0e 	blcc	2cfd2c <__bss_end__+0x2c4044>
    14f0:	0213490b 	andseq	r4, r3, #180224	; 0x2c000
    14f4:	0c000017 	stceq	0, cr0, [r0], {23}
    14f8:	0e030034 	mcreq	0, 0, r0, cr3, cr4, {1}
    14fc:	19341349 	ldmdbne	r4!, {r0, r3, r6, r8, r9, ip}
    1500:	00001802 	andeq	r1, r0, r2, lsl #16
    1504:	0300340d 	movweq	r3, #1037	; 0x40d
    1508:	3b0b3a0e 	blcc	2cfd48 <__bss_end__+0x2c4060>
    150c:	0213490b 	andseq	r4, r3, #180224	; 0x2c000
    1510:	0e000018 	mcreq	0, 0, r0, cr0, cr8, {0}
    1514:	0e030034 	mcreq	0, 0, r0, cr3, cr4, {1}
    1518:	0b3b0b3a 	bleq	ec4208 <__bss_end__+0xeb8520>
    151c:	17021349 	strne	r1, [r2, -r9, asr #6]
    1520:	890f0000 	stmdbhi	pc, {}	; <UNPREDICTABLE>
    1524:	11000182 	smlabbne	r0, r2, r1, r0
    1528:	00133101 	andseq	r3, r3, r1, lsl #2
    152c:	82891000 	addhi	r1, r9, #0
    1530:	01110101 	tsteq	r1, r1, lsl #2
    1534:	13011331 	movwne	r1, #4913	; 0x1331
    1538:	8a110000 	bhi	441540 <__bss_end__+0x435858>
    153c:	02000182 	andeq	r0, r0, #-2147483616	; 0x80000020
    1540:	18429118 	stmdane	r2, {r3, r4, r8, ip, pc}^
    1544:	89120000 	ldmdbhi	r2, {}	; <UNPREDICTABLE>
    1548:	11010182 	smlabbne	r1, r2, r1, r0
    154c:	00133101 	andseq	r3, r3, r1, lsl #2
    1550:	012e1300 	teqeq	lr, r0, lsl #6
    1554:	0e03193f 	mcreq	9, 0, r1, cr3, cr15, {1}
    1558:	0b3b0b3a 	bleq	ec4248 <__bss_end__+0xeb8560>
    155c:	01111927 	tsteq	r1, r7, lsr #18
    1560:	18400612 	stmdane	r0, {r1, r4, r9, sl}^
    1564:	01194297 			; <UNDEFINED> instruction: 0x01194297
    1568:	14000013 	strne	r0, [r0], #-19
    156c:	193f002e 	ldmdbne	pc!, {r1, r2, r3, r5}	; <UNPREDICTABLE>
    1570:	0b3a0e03 	bleq	e84d84 <__bss_end__+0xe7909c>
    1574:	19270b3b 	stmdbne	r7!, {r0, r1, r3, r4, r5, r8, r9, fp}
    1578:	06120111 			; <UNDEFINED> instruction: 0x06120111
    157c:	42971840 	addsmi	r1, r7, #64, 16	; 0x400000
    1580:	15000019 	strne	r0, [r0, #-25]
    1584:	193f002e 	ldmdbne	pc!, {r1, r2, r3, r5}	; <UNPREDICTABLE>
    1588:	0b3a0e03 	bleq	e84d9c <__bss_end__+0xe790b4>
    158c:	19270b3b 	stmdbne	r7!, {r0, r1, r3, r4, r5, r8, r9, fp}
    1590:	01111349 	tsteq	r1, r9, asr #6
    1594:	18400612 	stmdane	r0, {r1, r4, r9, sl}^
    1598:	00194297 	mulseq	r9, r7, r2
    159c:	00341600 	eorseq	r1, r4, r0, lsl #12
    15a0:	0b3a0e03 	bleq	e84db4 <__bss_end__+0xe790cc>
    15a4:	13490b3b 	movtne	r0, #39739	; 0x9b3b
    15a8:	193c193f 	ldmdbne	ip!, {r0, r1, r2, r3, r4, r5, r8, fp, ip}
    15ac:	2e170000 	cdpcs	0, 1, cr0, cr7, cr0, {0}
    15b0:	03193f00 	tsteq	r9, #0, 30
    15b4:	3b0b3a0e 	blcc	2cfdf4 <__bss_end__+0x2c410c>
    15b8:	3c19270b 	ldccc	7, cr2, [r9], {11}
    15bc:	18000019 	stmdane	r0, {r0, r3, r4}
    15c0:	193f012e 	ldmdbne	pc!, {r1, r2, r3, r5, r8}	; <UNPREDICTABLE>
    15c4:	0b3a0e03 	bleq	e84dd8 <__bss_end__+0xe790f0>
    15c8:	19270b3b 	stmdbne	r7!, {r0, r1, r3, r4, r5, r8, r9, fp}
    15cc:	193c1349 	ldmdbne	ip!, {r0, r3, r6, r8, r9, ip}
    15d0:	00001301 	andeq	r1, r0, r1, lsl #6
    15d4:	49000519 	stmdbmi	r0, {r0, r3, r4, r8, sl}
    15d8:	1a000013 	bne	162c <_start-0x69d4>
    15dc:	00000018 	andeq	r0, r0, r8, lsl r0
    15e0:	3f012e1b 	svccc	0x00012e1b
    15e4:	3a0e0319 	bcc	382250 <__bss_end__+0x376568>
    15e8:	270b3b0b 	strcs	r3, [fp, -fp, lsl #22]
    15ec:	3c134919 	ldccc	9, cr4, [r3], {25}
    15f0:	00000019 	andeq	r0, r0, r9, lsl r0
    15f4:	25011101 	strcs	r1, [r1, #-257]	; 0x101
    15f8:	030b130e 	movweq	r1, #45838	; 0xb30e
    15fc:	110e1b0e 	tstne	lr, lr, lsl #22
    1600:	10061201 	andne	r1, r6, r1, lsl #4
    1604:	02000017 	andeq	r0, r0, #23
    1608:	0b0b0024 	bleq	2c16a0 <__bss_end__+0x2b59b8>
    160c:	08030b3e 	stmdaeq	r3, {r1, r2, r3, r4, r5, r8, r9, fp}
    1610:	24030000 	strcs	r0, [r3], #-0
    1614:	3e0b0b00 	vmlacc.f64	d0, d11, d0
    1618:	000e030b 	andeq	r0, lr, fp, lsl #6
    161c:	01040400 	tsteq	r4, r0, lsl #8
    1620:	0b3a0b0b 	bleq	e84254 <__bss_end__+0xe7856c>
    1624:	13010b3b 	movwne	r0, #6971	; 0x1b3b
    1628:	28050000 	stmdacs	r5, {}	; <UNPREDICTABLE>
    162c:	1c0e0300 	stcne	3, cr0, [lr], {-0}
    1630:	0600000d 	streq	r0, [r0], -sp
    1634:	0e030016 	mcreq	0, 0, r0, cr3, cr6, {0}
    1638:	0b3b0b3a 	bleq	ec4328 <__bss_end__+0xeb8640>
    163c:	00001349 	andeq	r1, r0, r9, asr #6
    1640:	3f012e07 	svccc	0x00012e07
    1644:	3a0e0319 	bcc	3822b0 <__bss_end__+0x3765c8>
    1648:	270b3b0b 	strcs	r3, [fp, -fp, lsl #22]
    164c:	12011119 	andne	r1, r1, #1073741830	; 0x40000006
    1650:	97184006 	ldrls	r4, [r8, -r6]
    1654:	13011942 	movwne	r1, #6466	; 0x1942
    1658:	89080000 	stmdbhi	r8, {}	; <UNPREDICTABLE>
    165c:	11000182 	smlabbne	r0, r2, r1, r0
    1660:	00133101 	andseq	r3, r3, r1, lsl #2
    1664:	82890900 	addhi	r0, r9, #0, 18
    1668:	01110101 	tsteq	r1, r1, lsl #2
    166c:	13011331 	movwne	r1, #4913	; 0x1331
    1670:	8a0a0000 	bhi	281678 <__bss_end__+0x275990>
    1674:	02000182 	andeq	r0, r0, #-2147483616	; 0x80000020
    1678:	18429118 	stmdane	r2, {r3, r4, r8, ip, pc}^
    167c:	2e0b0000 	cdpcs	0, 0, cr0, cr11, cr0, {0}
    1680:	03193f01 	tsteq	r9, #1, 30
    1684:	3b0b3a0e 	blcc	2cfec4 <__bss_end__+0x2c41dc>
    1688:	4919270b 	ldmdbmi	r9, {r0, r1, r3, r8, r9, sl, sp}
    168c:	12011113 	andne	r1, r1, #-1073741820	; 0xc0000004
    1690:	97184006 	ldrls	r4, [r8, -r6]
    1694:	13011942 	movwne	r1, #6466	; 0x1942
    1698:	050c0000 	streq	r0, [ip, #-0]
    169c:	3a080300 	bcc	2022a4 <__bss_end__+0x1f65bc>
    16a0:	490b3b0b 	stmdbmi	fp, {r0, r1, r3, r8, r9, fp, ip, sp}
    16a4:	00170213 	andseq	r0, r7, r3, lsl r2
    16a8:	82890d00 	addhi	r0, r9, #0, 26
    16ac:	01110101 	tsteq	r1, r1, lsl #2
    16b0:	00001331 	andeq	r1, r0, r1, lsr r3
    16b4:	0300340e 	movweq	r3, #1038	; 0x40e
    16b8:	3b0b3a0e 	blcc	2cfef8 <__bss_end__+0x2c4210>
    16bc:	3f13490b 	svccc	0x0013490b
    16c0:	00180219 	andseq	r0, r8, r9, lsl r2
    16c4:	000f0f00 	andeq	r0, pc, r0, lsl #30
    16c8:	13490b0b 	movtne	r0, #39691	; 0x9b0b
    16cc:	35100000 	ldrcc	r0, [r0, #-0]
    16d0:	00134900 	andseq	r4, r3, r0, lsl #18
    16d4:	002e1100 	eoreq	r1, lr, r0, lsl #2
    16d8:	0e03193f 	mcreq	9, 0, r1, cr3, cr15, {1}
    16dc:	0b3b0b3a 	bleq	ec43cc <__bss_end__+0xeb86e4>
    16e0:	193c1927 	ldmdbne	ip!, {r0, r1, r2, r5, r8, fp, ip}
    16e4:	2e120000 	cdpcs	0, 1, cr0, cr2, cr0, {0}
    16e8:	03193f01 	tsteq	r9, #1, 30
    16ec:	3b0b3a0e 	blcc	2cff2c <__bss_end__+0x2c4244>
    16f0:	3c19270b 	ldccc	7, cr2, [r9], {11}
    16f4:	00130119 	andseq	r0, r3, r9, lsl r1
    16f8:	00051300 	andeq	r1, r5, r0, lsl #6
    16fc:	00001349 	andeq	r1, r0, r9, asr #6
    1700:	3f012e14 	svccc	0x00012e14
    1704:	3a0e0319 	bcc	382370 <__bss_end__+0x376688>
    1708:	270b3b0b 	strcs	r3, [fp, -fp, lsl #22]
    170c:	3c134919 	ldccc	9, cr4, [r3], {25}
    1710:	00130119 	andseq	r0, r3, r9, lsl r1
    1714:	00261500 	eoreq	r1, r6, r0, lsl #10
    1718:	00001349 	andeq	r1, r0, r9, asr #6
    171c:	00003516 	andeq	r3, r0, r6, lsl r5
    1720:	11010000 	mrsne	r0, (UNDEF: 1)
    1724:	130e2501 	movwne	r2, #58625	; 0xe501
    1728:	1b0e030b 	blne	38235c <__bss_end__+0x376674>
    172c:	1201110e 	andne	r1, r1, #-2147483645	; 0x80000003
    1730:	00171006 	andseq	r1, r7, r6
    1734:	00240200 	eoreq	r0, r4, r0, lsl #4
    1738:	0b3e0b0b 	bleq	f8436c <__bss_end__+0xf78684>
    173c:	00000803 	andeq	r0, r0, r3, lsl #16
    1740:	0b002403 	bleq	a754 <uart_has_data+0x4>
    1744:	030b3e0b 	movweq	r3, #48651	; 0xbe0b
    1748:	0400000e 	streq	r0, [r0], #-14
    174c:	0b0b000f 	bleq	2c1790 <__bss_end__+0x2b5aa8>
    1750:	00001349 	andeq	r1, r0, r9, asr #6
    1754:	49002605 	stmdbmi	r0, {r0, r2, r9, sl, sp}
    1758:	06000013 			; <UNDEFINED> instruction: 0x06000013
    175c:	0b0b0104 	bleq	2c1b74 <__bss_end__+0x2b5e8c>
    1760:	0b3b0b3a 	bleq	ec4450 <__bss_end__+0xeb8768>
    1764:	00001301 	andeq	r1, r0, r1, lsl #6
    1768:	03002807 	movweq	r2, #2055	; 0x807
    176c:	000d1c0e 	andeq	r1, sp, lr, lsl #24
    1770:	012e0800 	teqeq	lr, r0, lsl #16
    1774:	0e03193f 	mcreq	9, 0, r1, cr3, cr15, {1}
    1778:	0b3b0b3a 	bleq	ec4468 <__bss_end__+0xeb8780>
    177c:	01111927 	tsteq	r1, r7, lsr #18
    1780:	18400612 	stmdane	r0, {r1, r4, r9, sl}^
    1784:	01194297 			; <UNDEFINED> instruction: 0x01194297
    1788:	09000013 	stmdbeq	r0, {r0, r1, r4}
    178c:	0e030034 	mcreq	0, 0, r0, cr3, cr4, {1}
    1790:	0b3b0b3a 	bleq	ec4480 <__bss_end__+0xeb8798>
    1794:	193f1349 	ldmdbne	pc!, {r0, r3, r6, r8, r9, ip}	; <UNPREDICTABLE>
    1798:	0000193c 	andeq	r1, r0, ip, lsr r9
    179c:	0300340a 	movweq	r3, #1034	; 0x40a
    17a0:	3b0b3a08 	blcc	2cffc8 <__bss_end__+0x2c42e0>
    17a4:	1c13490b 	ldcne	9, cr4, [r3], {11}
    17a8:	0b00000b 	bleq	17dc <_start-0x6824>
    17ac:	08030034 	stmdaeq	r3, {r2, r4, r5}
    17b0:	0b3b0b3a 	bleq	ec44a0 <__bss_end__+0xeb87b8>
    17b4:	00001349 	andeq	r1, r0, r9, asr #6
    17b8:	0300340c 	movweq	r3, #1036	; 0x40c
    17bc:	3b0b3a08 	blcc	2cffe4 <__bss_end__+0x2c42fc>
    17c0:	0213490b 	andseq	r4, r3, #180224	; 0x2c000
    17c4:	0d000018 	stceq	0, cr0, [r0, #-96]	; 0xffffffa0
    17c8:	0111010b 	tsteq	r1, fp, lsl #2
    17cc:	13010612 	movwne	r0, #5650	; 0x1612
    17d0:	340e0000 	strcc	r0, [lr], #-0
    17d4:	3a080300 	bcc	2023dc <__bss_end__+0x1f66f4>
    17d8:	490b3b0b 	stmdbmi	fp, {r0, r1, r3, r8, r9, fp, ip, sp}
    17dc:	00170213 	andseq	r0, r7, r3, lsl r2
    17e0:	82890f00 	addhi	r0, r9, #0, 30
    17e4:	01110101 	tsteq	r1, r1, lsl #2
    17e8:	13011331 	movwne	r1, #4913	; 0x1331
    17ec:	8a100000 	bhi	4017f4 <__bss_end__+0x3f5b0c>
    17f0:	02000182 	andeq	r0, r0, #-2147483616	; 0x80000020
    17f4:	18429118 	stmdane	r2, {r3, r4, r8, ip, pc}^
    17f8:	89110000 	ldmdbhi	r1, {}	; <UNPREDICTABLE>
    17fc:	11000182 	smlabbne	r0, r2, r1, r0
    1800:	00133101 	andseq	r3, r3, r1, lsl #2
    1804:	00051200 	andeq	r1, r5, r0, lsl #4
    1808:	0b3a0803 	bleq	e8381c <__bss_end__+0xe77b34>
    180c:	13490b3b 	movtne	r0, #39739	; 0x9b3b
    1810:	00001702 	andeq	r1, r0, r2, lsl #14
    1814:	03003413 	movweq	r3, #1043	; 0x413
    1818:	3413490e 	ldrcc	r4, [r3], #-2318	; 0x90e
    181c:	00180219 	andseq	r0, r8, r9, lsl r2
    1820:	01011400 	tsteq	r1, r0, lsl #8
    1824:	13011349 	movwne	r1, #4937	; 0x1349
    1828:	21150000 	tstcs	r5, r0
    182c:	2f134900 	svccs	0x00134900
    1830:	1600000b 	strne	r0, [r0], -fp
    1834:	193f012e 	ldmdbne	pc!, {r1, r2, r3, r5, r8}	; <UNPREDICTABLE>
    1838:	0b3a0e03 	bleq	e8504c <__bss_end__+0xe79364>
    183c:	19270b3b 	stmdbne	r7!, {r0, r1, r3, r4, r5, r8, r9, fp}
    1840:	1301193c 	movwne	r1, #6460	; 0x193c
    1844:	05170000 	ldreq	r0, [r7, #-0]
    1848:	00134900 	andseq	r4, r3, r0, lsl #18
    184c:	002e1800 	eoreq	r1, lr, r0, lsl #16
    1850:	0e03193f 	mcreq	9, 0, r1, cr3, cr15, {1}
    1854:	0b3b0b3a 	bleq	ec4544 <__bss_end__+0xeb885c>
    1858:	193c1927 	ldmdbne	ip!, {r0, r1, r2, r5, r8, fp, ip}
    185c:	2e190000 	cdpcs	0, 1, cr0, cr9, cr0, {0}
    1860:	03193f01 	tsteq	r9, #1, 30
    1864:	3b0b3a0e 	blcc	2d00a4 <__bss_end__+0x2c43bc>
    1868:	4919270b 	ldmdbmi	r9, {r0, r1, r3, r8, r9, sl, sp}
    186c:	01193c13 	tsteq	r9, r3, lsl ip
    1870:	1a000013 	bne	18c4 <_start-0x673c>
    1874:	00000018 	andeq	r0, r0, r8, lsl r0
    1878:	01110100 	tsteq	r1, r0, lsl #2
    187c:	0b130e25 	bleq	4c5118 <__bss_end__+0x4b9430>
    1880:	0e1b0e03 	cdpeq	14, 1, cr0, cr11, cr3, {0}
    1884:	06120111 			; <UNDEFINED> instruction: 0x06120111
    1888:	00001710 	andeq	r1, r0, r0, lsl r7
    188c:	0b002402 	bleq	a89c <put32>
    1890:	030b3e0b 	movweq	r3, #48651	; 0xbe0b
    1894:	03000008 	movweq	r0, #8
    1898:	0b0b0024 	bleq	2c1930 <__bss_end__+0x2b5c48>
    189c:	0e030b3e 	vmoveq.16	d3[0], r0
    18a0:	16040000 	strne	r0, [r4], -r0
    18a4:	3a0e0300 	bcc	3824ac <__bss_end__+0x3767c4>
    18a8:	490b3b0b 	stmdbmi	fp, {r0, r1, r3, r8, r9, fp, ip, sp}
    18ac:	05000013 	streq	r0, [r0, #-19]
    18b0:	0b0b000f 	bleq	2c18f4 <__bss_end__+0x2b5c0c>
    18b4:	00001349 	andeq	r1, r0, r9, asr #6
    18b8:	49002606 	stmdbmi	r0, {r1, r2, r9, sl, sp}
    18bc:	07000013 	smladeq	r0, r3, r0, r0
    18c0:	0b0b0113 	bleq	2c1d14 <__bss_end__+0x2b602c>
    18c4:	0b3b0b3a 	bleq	ec45b4 <__bss_end__+0xeb88cc>
    18c8:	00001301 	andeq	r1, r0, r1, lsl #6
    18cc:	03000d08 	movweq	r0, #3336	; 0xd08
    18d0:	3b0b3a0e 	blcc	2d0110 <__bss_end__+0x2c4428>
    18d4:	0b13490b 	bleq	4d3d08 <__bss_end__+0x4c8020>
    18d8:	0c0b0d0b 	stceq	13, cr0, [fp], {11}
    18dc:	000b380b 	andeq	r3, fp, fp, lsl #16
    18e0:	01040900 	tsteq	r4, r0, lsl #18
    18e4:	0b3a0b0b 	bleq	e84518 <__bss_end__+0xe78830>
    18e8:	13010b3b 	movwne	r0, #6971	; 0x1b3b
    18ec:	280a0000 	stmdacs	sl, {}	; <UNPREDICTABLE>
    18f0:	1c0e0300 	stcne	3, cr0, [lr], {-0}
    18f4:	0b00000d 	bleq	1930 <_start-0x66d0>
    18f8:	0e03012e 	adfeqsp	f0, f3, #0.5
    18fc:	0b3b0b3a 	bleq	ec45ec <__bss_end__+0xeb8904>
    1900:	01111927 	tsteq	r1, r7, lsr #18
    1904:	18400612 	stmdane	r0, {r1, r4, r9, sl}^
    1908:	01194297 			; <UNDEFINED> instruction: 0x01194297
    190c:	0c000013 	stceq	0, cr0, [r0], {19}
    1910:	0e030034 	mcreq	0, 0, r0, cr3, cr4, {1}
    1914:	19341349 	ldmdbne	r4!, {r0, r3, r6, r8, r9, ip}
    1918:	00001802 	andeq	r1, r0, r2, lsl #16
    191c:	0182890d 	orreq	r8, r2, sp, lsl #18
    1920:	31011101 	tstcc	r1, r1, lsl #2
    1924:	0e000013 	mcreq	0, 0, r0, cr0, cr3, {0}
    1928:	0001828a 	andeq	r8, r1, sl, lsl #5
    192c:	42911802 	addsmi	r1, r1, #131072	; 0x20000
    1930:	0f000018 	svceq	0x00000018
    1934:	13490101 	movtne	r0, #37121	; 0x9101
    1938:	00001301 	andeq	r1, r0, r1, lsl #6
    193c:	49002110 	stmdbmi	r0, {r4, r8, sp}
    1940:	000b2f13 	andeq	r2, fp, r3, lsl pc
    1944:	012e1100 	teqeq	lr, r0, lsl #2
    1948:	0e03193f 	mcreq	9, 0, r1, cr3, cr15, {1}
    194c:	0b3b0b3a 	bleq	ec463c <__bss_end__+0xeb8954>
    1950:	01111927 	tsteq	r1, r7, lsr #18
    1954:	18400612 	stmdane	r0, {r1, r4, r9, sl}^
    1958:	01194297 			; <UNDEFINED> instruction: 0x01194297
    195c:	12000013 	andne	r0, r0, #19
    1960:	0e030005 	cdpeq	0, 0, cr0, cr3, cr5, {0}
    1964:	0b3b0b3a 	bleq	ec4654 <__bss_end__+0xeb896c>
    1968:	17021349 	strne	r1, [r2, -r9, asr #6]
    196c:	89130000 	ldmdbhi	r3, {}	; <UNPREDICTABLE>
    1970:	11000182 	smlabbne	r0, r2, r1, r0
    1974:	00133101 	andseq	r3, r3, r1, lsl #2
    1978:	82891400 	addhi	r1, r9, #0, 8
    197c:	01110101 	tsteq	r1, r1, lsl #2
    1980:	13011331 	movwne	r1, #4913	; 0x1331
    1984:	34150000 	ldrcc	r0, [r5], #-0
    1988:	3a0e0300 	bcc	382590 <__bss_end__+0x3768a8>
    198c:	490b3b0b 	stmdbmi	fp, {r0, r1, r3, r8, r9, fp, ip, sp}
    1990:	02193f13 	andseq	r3, r9, #19, 30	; 0x4c
    1994:	16000018 			; <UNDEFINED> instruction: 0x16000018
    1998:	193f012e 	ldmdbne	pc!, {r1, r2, r3, r5, r8}	; <UNPREDICTABLE>
    199c:	0b3a0e03 	bleq	e851b0 <__bss_end__+0xe794c8>
    19a0:	19270b3b 	stmdbne	r7!, {r0, r1, r3, r4, r5, r8, r9, fp}
    19a4:	193c1349 	ldmdbne	ip!, {r0, r3, r6, r8, r9, ip}
    19a8:	00001301 	andeq	r1, r0, r1, lsl #6
    19ac:	49000517 	stmdbmi	r0, {r0, r1, r2, r4, r8, sl}
    19b0:	18000013 	stmdane	r0, {r0, r1, r4}
    19b4:	00000018 	andeq	r0, r0, r8, lsl r0
    19b8:	3f012e19 	svccc	0x00012e19
    19bc:	3a0e0319 	bcc	382628 <__bss_end__+0x376940>
    19c0:	270b3b0b 	strcs	r3, [fp, -fp, lsl #22]
    19c4:	00193c19 	andseq	r3, r9, r9, lsl ip
    19c8:	11010000 	mrsne	r0, (UNDEF: 1)
    19cc:	130e2501 	movwne	r2, #58625	; 0xe501
    19d0:	1b0e030b 	blne	382604 <__bss_end__+0x37691c>
    19d4:	1201110e 	andne	r1, r1, #-2147483645	; 0x80000003
    19d8:	00171006 	andseq	r1, r7, r6
    19dc:	00240200 	eoreq	r0, r4, r0, lsl #4
    19e0:	0b3e0b0b 	bleq	f84614 <__bss_end__+0xf7892c>
    19e4:	00000e03 	andeq	r0, r0, r3, lsl #28
    19e8:	0b002403 	bleq	a9fc <data_abort_vector+0x8>
    19ec:	030b3e0b 	movweq	r3, #48651	; 0xbe0b
    19f0:	04000008 	streq	r0, [r0], #-8
    19f4:	0b0b000f 	bleq	2c1a38 <__bss_end__+0x2b5d50>
    19f8:	0f050000 	svceq	0x00050000
    19fc:	490b0b00 	stmdbmi	fp, {r8, r9, fp}
    1a00:	06000013 			; <UNDEFINED> instruction: 0x06000013
    1a04:	0e030016 	mcreq	0, 0, r0, cr3, cr6, {0}
    1a08:	0b3b0b3a 	bleq	ec46f8 <__bss_end__+0xeb8a10>
    1a0c:	00001349 	andeq	r1, r0, r9, asr #6
    1a10:	3f012e07 	svccc	0x00012e07
    1a14:	3a0e0319 	bcc	382680 <__bss_end__+0x376998>
    1a18:	270b3b0b 	strcs	r3, [fp, -fp, lsl #22]
    1a1c:	11134919 	tstne	r3, r9, lsl r9
    1a20:	40061201 	andmi	r1, r6, r1, lsl #4
    1a24:	19429718 	stmdbne	r2, {r3, r4, r8, r9, sl, ip, pc}^
    1a28:	05080000 	streq	r0, [r8, #-0]
    1a2c:	3a080300 	bcc	202634 <__bss_end__+0x1f694c>
    1a30:	490b3b0b 	stmdbmi	fp, {r0, r1, r3, r8, r9, fp, ip, sp}
    1a34:	00180213 	andseq	r0, r8, r3, lsl r2
    1a38:	00050900 	andeq	r0, r5, r0, lsl #18
    1a3c:	0b3a0803 	bleq	e83a50 <__bss_end__+0xe77d68>
    1a40:	13490b3b 	movtne	r0, #39739	; 0x9b3b
    1a44:	00001702 	andeq	r1, r0, r2, lsl #14
    1a48:	0300340a 	movweq	r3, #1034	; 0x40a
    1a4c:	3b0b3a08 	blcc	2d0274 <__bss_end__+0x2c458c>
    1a50:	0213490b 	andseq	r4, r3, #180224	; 0x2c000
    1a54:	0b000017 	bleq	1ab8 <_start-0x6548>
    1a58:	08030034 	stmdaeq	r3, {r2, r4, r5}
    1a5c:	0b3b0b3a 	bleq	ec474c <__bss_end__+0xeb8a64>
    1a60:	18021349 	stmdane	r2, {r0, r3, r6, r8, r9, ip}
    1a64:	01000000 	mrseq	r0, (UNDEF: 0)
    1a68:	0e250111 	mcreq	1, 1, r0, cr5, cr1, {0}
    1a6c:	0e030b13 	vmoveq.32	d3[0], r0
    1a70:	01110e1b 	tsteq	r1, fp, lsl lr
    1a74:	17100612 			; <UNDEFINED> instruction: 0x17100612
    1a78:	24020000 	strcs	r0, [r2], #-0
    1a7c:	3e0b0b00 	vmlacc.f64	d0, d11, d0
    1a80:	0008030b 	andeq	r0, r8, fp, lsl #6
    1a84:	00240300 	eoreq	r0, r4, r0, lsl #6
    1a88:	0b3e0b0b 	bleq	f846bc <__bss_end__+0xf789d4>
    1a8c:	00000e03 	andeq	r0, r0, r3, lsl #28
    1a90:	0b000f04 	bleq	56a8 <_start-0x2958>
    1a94:	0013490b 	andseq	r4, r3, fp, lsl #18
    1a98:	00260500 	eoreq	r0, r6, r0, lsl #10
    1a9c:	00001349 	andeq	r1, r0, r9, asr #6
    1aa0:	3f012e06 	svccc	0x00012e06
    1aa4:	3a0e0319 	bcc	382710 <__bss_end__+0x376a28>
    1aa8:	270b3b0b 	strcs	r3, [fp, -fp, lsl #22]
    1aac:	12011119 	andne	r1, r1, #1073741830	; 0x40000006
    1ab0:	97184006 	ldrls	r4, [r8, -r6]
    1ab4:	13011942 	movwne	r1, #6466	; 0x1942
    1ab8:	05070000 	streq	r0, [r7, #-0]
    1abc:	3a080300 	bcc	2026c4 <__bss_end__+0x1f69dc>
    1ac0:	490b3b0b 	stmdbmi	fp, {r0, r1, r3, r8, r9, fp, ip, sp}
    1ac4:	00170213 	andseq	r0, r7, r3, lsl r2
    1ac8:	00340800 	eorseq	r0, r4, r0, lsl #16
    1acc:	13490e03 	movtne	r0, #40451	; 0x9e03
    1ad0:	18021934 	stmdane	r2, {r2, r4, r5, r8, fp, ip}
    1ad4:	89090000 	stmdbhi	r9, {}	; <UNPREDICTABLE>
    1ad8:	11000182 	smlabbne	r0, r2, r1, r0
    1adc:	00133101 	andseq	r3, r3, r1, lsl #2
    1ae0:	82890a00 	addhi	r0, r9, #0, 20
    1ae4:	01110101 	tsteq	r1, r1, lsl #2
    1ae8:	13011331 	movwne	r1, #4913	; 0x1331
    1aec:	8a0b0000 	bhi	2c1af4 <__bss_end__+0x2b5e0c>
    1af0:	02000182 	andeq	r0, r0, #-2147483616	; 0x80000020
    1af4:	18429118 	stmdane	r2, {r3, r4, r8, ip, pc}^
    1af8:	010c0000 	mrseq	r0, (UNDEF: 12)
    1afc:	01134901 	tsteq	r3, r1, lsl #18
    1b00:	0d000013 	stceq	0, cr0, [r0, #-76]	; 0xffffffb4
    1b04:	13490021 	movtne	r0, #36897	; 0x9021
    1b08:	00000b2f 	andeq	r0, r0, pc, lsr #22
    1b0c:	3f002e0e 	svccc	0x00002e0e
    1b10:	3a0e0319 	bcc	38277c <__bss_end__+0x376a94>
    1b14:	270b3b0b 	strcs	r3, [fp, -fp, lsl #22]
    1b18:	00193c19 	andseq	r3, r9, r9, lsl ip
    1b1c:	012e0f00 	teqeq	lr, r0, lsl #30
    1b20:	0e03193f 	mcreq	9, 0, r1, cr3, cr15, {1}
    1b24:	0b3b0b3a 	bleq	ec4814 <__bss_end__+0xeb8b2c>
    1b28:	13491927 	movtne	r1, #39207	; 0x9927
    1b2c:	1301193c 	movwne	r1, #6460	; 0x193c
    1b30:	05100000 	ldreq	r0, [r0, #-0]
    1b34:	00134900 	andseq	r4, r3, r0, lsl #18
    1b38:	00181100 	andseq	r1, r8, r0, lsl #2
    1b3c:	01000000 	mrseq	r0, (UNDEF: 0)
    1b40:	0e250111 	mcreq	1, 1, r0, cr5, cr1, {0}
    1b44:	0e030b13 	vmoveq.32	d3[0], r0
    1b48:	01110e1b 	tsteq	r1, fp, lsl lr
    1b4c:	17100612 			; <UNDEFINED> instruction: 0x17100612
    1b50:	24020000 	strcs	r0, [r2], #-0
    1b54:	3e0b0b00 	vmlacc.f64	d0, d11, d0
    1b58:	0008030b 	andeq	r0, r8, fp, lsl #6
    1b5c:	00240300 	eoreq	r0, r4, r0, lsl #6
    1b60:	0b3e0b0b 	bleq	f84794 <__bss_end__+0xf78aac>
    1b64:	00000e03 	andeq	r0, r0, r3, lsl #28
    1b68:	0b000f04 	bleq	5780 <_start-0x2880>
    1b6c:	0013490b 	andseq	r4, r3, fp, lsl #18
    1b70:	00260500 	eoreq	r0, r6, r0, lsl #10
    1b74:	00001349 	andeq	r1, r0, r9, asr #6
    1b78:	3f012e06 	svccc	0x00012e06
    1b7c:	3a0e0319 	bcc	3827e8 <__bss_end__+0x376b00>
    1b80:	270b3b0b 	strcs	r3, [fp, -fp, lsl #22]
    1b84:	12011119 	andne	r1, r1, #1073741830	; 0x40000006
    1b88:	97184006 	ldrls	r4, [r8, -r6]
    1b8c:	13011942 	movwne	r1, #6466	; 0x1942
    1b90:	05070000 	streq	r0, [r7, #-0]
    1b94:	3a080300 	bcc	20279c <__bss_end__+0x1f6ab4>
    1b98:	490b3b0b 	stmdbmi	fp, {r0, r1, r3, r8, r9, fp, ip, sp}
    1b9c:	00170213 	andseq	r0, r7, r3, lsl r2
    1ba0:	00340800 	eorseq	r0, r4, r0, lsl #16
    1ba4:	13490e03 	movtne	r0, #40451	; 0x9e03
    1ba8:	18021934 	stmdane	r2, {r2, r4, r5, r8, fp, ip}
    1bac:	89090000 	stmdbhi	r9, {}	; <UNPREDICTABLE>
    1bb0:	11000182 	smlabbne	r0, r2, r1, r0
    1bb4:	00133101 	andseq	r3, r3, r1, lsl #2
    1bb8:	82890a00 	addhi	r0, r9, #0, 20
    1bbc:	01110101 	tsteq	r1, r1, lsl #2
    1bc0:	13011331 	movwne	r1, #4913	; 0x1331
    1bc4:	8a0b0000 	bhi	2c1bcc <__bss_end__+0x2b5ee4>
    1bc8:	02000182 	andeq	r0, r0, #-2147483616	; 0x80000020
    1bcc:	18429118 	stmdane	r2, {r3, r4, r8, ip, pc}^
    1bd0:	010c0000 	mrseq	r0, (UNDEF: 12)
    1bd4:	01134901 	tsteq	r3, r1, lsl #18
    1bd8:	0d000013 	stceq	0, cr0, [r0, #-76]	; 0xffffffb4
    1bdc:	13490021 	movtne	r0, #36897	; 0x9021
    1be0:	00000b2f 	andeq	r0, r0, pc, lsr #22
    1be4:	3f002e0e 	svccc	0x00002e0e
    1be8:	3a0e0319 	bcc	382854 <__bss_end__+0x376b6c>
    1bec:	270b3b0b 	strcs	r3, [fp, -fp, lsl #22]
    1bf0:	00193c19 	andseq	r3, r9, r9, lsl ip
    1bf4:	012e0f00 	teqeq	lr, r0, lsl #30
    1bf8:	0e03193f 	mcreq	9, 0, r1, cr3, cr15, {1}
    1bfc:	0b3b0b3a 	bleq	ec48ec <__bss_end__+0xeb8c04>
    1c00:	13491927 	movtne	r1, #39207	; 0x9927
    1c04:	1301193c 	movwne	r1, #6460	; 0x193c
    1c08:	05100000 	ldreq	r0, [r0, #-0]
    1c0c:	00134900 	andseq	r4, r3, r0, lsl #18
    1c10:	00181100 	andseq	r1, r8, r0, lsl #2
    1c14:	01000000 	mrseq	r0, (UNDEF: 0)
    1c18:	0e250111 	mcreq	1, 1, r0, cr5, cr1, {0}
    1c1c:	0e030b13 	vmoveq.32	d3[0], r0
    1c20:	01110e1b 	tsteq	r1, fp, lsl lr
    1c24:	17100612 			; <UNDEFINED> instruction: 0x17100612
    1c28:	24020000 	strcs	r0, [r2], #-0
    1c2c:	3e0b0b00 	vmlacc.f64	d0, d11, d0
    1c30:	0008030b 	andeq	r0, r8, fp, lsl #6
    1c34:	00240300 	eoreq	r0, r4, r0, lsl #6
    1c38:	0b3e0b0b 	bleq	f8486c <__bss_end__+0xf78b84>
    1c3c:	00000e03 	andeq	r0, r0, r3, lsl #28
    1c40:	0b000f04 	bleq	5858 <_start-0x27a8>
    1c44:	0013490b 	andseq	r4, r3, fp, lsl #18
    1c48:	00260500 	eoreq	r0, r6, r0, lsl #10
    1c4c:	00001349 	andeq	r1, r0, r9, asr #6
    1c50:	3f012e06 	svccc	0x00012e06
    1c54:	3a0e0319 	bcc	3828c0 <__bss_end__+0x376bd8>
    1c58:	270b3b0b 	strcs	r3, [fp, -fp, lsl #22]
    1c5c:	12011119 	andne	r1, r1, #1073741830	; 0x40000006
    1c60:	97184006 	ldrls	r4, [r8, -r6]
    1c64:	13011942 	movwne	r1, #6466	; 0x1942
    1c68:	05070000 	streq	r0, [r7, #-0]
    1c6c:	3a080300 	bcc	202874 <__bss_end__+0x1f6b8c>
    1c70:	490b3b0b 	stmdbmi	fp, {r0, r1, r3, r8, r9, fp, ip, sp}
    1c74:	00170213 	andseq	r0, r7, r3, lsl r2
    1c78:	00340800 	eorseq	r0, r4, r0, lsl #16
    1c7c:	13490e03 	movtne	r0, #40451	; 0x9e03
    1c80:	18021934 	stmdane	r2, {r2, r4, r5, r8, fp, ip}
    1c84:	89090000 	stmdbhi	r9, {}	; <UNPREDICTABLE>
    1c88:	11000182 	smlabbne	r0, r2, r1, r0
    1c8c:	00133101 	andseq	r3, r3, r1, lsl #2
    1c90:	82890a00 	addhi	r0, r9, #0, 20
    1c94:	01110101 	tsteq	r1, r1, lsl #2
    1c98:	13011331 	movwne	r1, #4913	; 0x1331
    1c9c:	8a0b0000 	bhi	2c1ca4 <__bss_end__+0x2b5fbc>
    1ca0:	02000182 	andeq	r0, r0, #-2147483616	; 0x80000020
    1ca4:	18429118 	stmdane	r2, {r3, r4, r8, ip, pc}^
    1ca8:	010c0000 	mrseq	r0, (UNDEF: 12)
    1cac:	01134901 	tsteq	r3, r1, lsl #18
    1cb0:	0d000013 	stceq	0, cr0, [r0, #-76]	; 0xffffffb4
    1cb4:	13490021 	movtne	r0, #36897	; 0x9021
    1cb8:	00000b2f 	andeq	r0, r0, pc, lsr #22
    1cbc:	3f002e0e 	svccc	0x00002e0e
    1cc0:	3a0e0319 	bcc	38292c <__bss_end__+0x376c44>
    1cc4:	270b3b0b 	strcs	r3, [fp, -fp, lsl #22]
    1cc8:	00193c19 	andseq	r3, r9, r9, lsl ip
    1ccc:	012e0f00 	teqeq	lr, r0, lsl #30
    1cd0:	0e03193f 	mcreq	9, 0, r1, cr3, cr15, {1}
    1cd4:	0b3b0b3a 	bleq	ec49c4 <__bss_end__+0xeb8cdc>
    1cd8:	13491927 	movtne	r1, #39207	; 0x9927
    1cdc:	1301193c 	movwne	r1, #6460	; 0x193c
    1ce0:	05100000 	ldreq	r0, [r0, #-0]
    1ce4:	00134900 	andseq	r4, r3, r0, lsl #18
    1ce8:	00181100 	andseq	r1, r8, r0, lsl #2
    1cec:	01000000 	mrseq	r0, (UNDEF: 0)
    1cf0:	0e250111 	mcreq	1, 1, r0, cr5, cr1, {0}
    1cf4:	0e030b13 	vmoveq.32	d3[0], r0
    1cf8:	01110e1b 	tsteq	r1, fp, lsl lr
    1cfc:	17100612 			; <UNDEFINED> instruction: 0x17100612
    1d00:	24020000 	strcs	r0, [r2], #-0
    1d04:	3e0b0b00 	vmlacc.f64	d0, d11, d0
    1d08:	0008030b 	andeq	r0, r8, fp, lsl #6
    1d0c:	00240300 	eoreq	r0, r4, r0, lsl #6
    1d10:	0b3e0b0b 	bleq	f84944 <__bss_end__+0xf78c5c>
    1d14:	00000e03 	andeq	r0, r0, r3, lsl #28
    1d18:	0b000f04 	bleq	5930 <_start-0x26d0>
    1d1c:	0013490b 	andseq	r4, r3, fp, lsl #18
    1d20:	00260500 	eoreq	r0, r6, r0, lsl #10
    1d24:	00001349 	andeq	r1, r0, r9, asr #6
    1d28:	3f012e06 	svccc	0x00012e06
    1d2c:	3a0e0319 	bcc	382998 <__bss_end__+0x376cb0>
    1d30:	270b3b0b 	strcs	r3, [fp, -fp, lsl #22]
    1d34:	12011119 	andne	r1, r1, #1073741830	; 0x40000006
    1d38:	97184006 	ldrls	r4, [r8, -r6]
    1d3c:	13011942 	movwne	r1, #6466	; 0x1942
    1d40:	05070000 	streq	r0, [r7, #-0]
    1d44:	3a080300 	bcc	20294c <__bss_end__+0x1f6c64>
    1d48:	490b3b0b 	stmdbmi	fp, {r0, r1, r3, r8, r9, fp, ip, sp}
    1d4c:	00170213 	andseq	r0, r7, r3, lsl r2
    1d50:	00340800 	eorseq	r0, r4, r0, lsl #16
    1d54:	13490e03 	movtne	r0, #40451	; 0x9e03
    1d58:	18021934 	stmdane	r2, {r2, r4, r5, r8, fp, ip}
    1d5c:	89090000 	stmdbhi	r9, {}	; <UNPREDICTABLE>
    1d60:	11000182 	smlabbne	r0, r2, r1, r0
    1d64:	00133101 	andseq	r3, r3, r1, lsl #2
    1d68:	82890a00 	addhi	r0, r9, #0, 20
    1d6c:	01110101 	tsteq	r1, r1, lsl #2
    1d70:	13011331 	movwne	r1, #4913	; 0x1331
    1d74:	8a0b0000 	bhi	2c1d7c <__bss_end__+0x2b6094>
    1d78:	02000182 	andeq	r0, r0, #-2147483616	; 0x80000020
    1d7c:	18429118 	stmdane	r2, {r3, r4, r8, ip, pc}^
    1d80:	010c0000 	mrseq	r0, (UNDEF: 12)
    1d84:	01134901 	tsteq	r3, r1, lsl #18
    1d88:	0d000013 	stceq	0, cr0, [r0, #-76]	; 0xffffffb4
    1d8c:	13490021 	movtne	r0, #36897	; 0x9021
    1d90:	00000b2f 	andeq	r0, r0, pc, lsr #22
    1d94:	3f002e0e 	svccc	0x00002e0e
    1d98:	3a0e0319 	bcc	382a04 <__bss_end__+0x376d1c>
    1d9c:	270b3b0b 	strcs	r3, [fp, -fp, lsl #22]
    1da0:	00193c19 	andseq	r3, r9, r9, lsl ip
    1da4:	012e0f00 	teqeq	lr, r0, lsl #30
    1da8:	0e03193f 	mcreq	9, 0, r1, cr3, cr15, {1}
    1dac:	0b3b0b3a 	bleq	ec4a9c <__bss_end__+0xeb8db4>
    1db0:	13491927 	movtne	r1, #39207	; 0x9927
    1db4:	1301193c 	movwne	r1, #6460	; 0x193c
    1db8:	05100000 	ldreq	r0, [r0, #-0]
    1dbc:	00134900 	andseq	r4, r3, r0, lsl #18
    1dc0:	00181100 	andseq	r1, r8, r0, lsl #2
    1dc4:	Address 0x0000000000001dc4 is out of bounds.


Disassembly of section .debug_loc:

00000000 <.debug_loc>:
       0:	00000010 	andeq	r0, r0, r0, lsl r0
       4:	00000014 	andeq	r0, r0, r4, lsl r0
       8:	14500001 	ldrbne	r0, [r0], #-1
       c:	1c000000 	stcne	0, cr0, [r0], {-0}
      10:	04000000 	streq	r0, [r0], #-0
      14:	5001f300 	andpl	pc, r1, r0, lsl #6
      18:	0000009f 	muleq	r0, pc, r0	; <UNPREDICTABLE>
      1c:	00000000 	andeq	r0, r0, r0
      20:	00001400 	andeq	r1, r0, r0, lsl #8
      24:	00001800 	andeq	r1, r0, r0, lsl #16
      28:	50000100 	andpl	r0, r0, r0, lsl #2
	...
      34:	0000001c 	andeq	r0, r0, ip, lsl r0
      38:	00000024 	andeq	r0, r0, r4, lsr #32
      3c:	24500001 	ldrbcs	r0, [r0], #-1
      40:	38000000 	stmdacc	r0, {}	; <UNPREDICTABLE>
      44:	04000000 	streq	r0, [r0], #-0
      48:	5001f300 	andpl	pc, r1, r0, lsl #6
      4c:	0000009f 	muleq	r0, pc, r0	; <UNPREDICTABLE>
      50:	00000000 	andeq	r0, r0, r0
      54:	00001c00 	andeq	r1, r0, r0, lsl #24
      58:	00002000 	andeq	r2, r0, r0
      5c:	51000100 	mrspl	r0, (UNDEF: 16)
      60:	00000020 	andeq	r0, r0, r0, lsr #32
      64:	00000038 	andeq	r0, r0, r8, lsr r0
      68:	01f30004 	mvnseq	r0, r4
      6c:	00009f51 	andeq	r9, r0, r1, asr pc
      70:	00000000 	andeq	r0, r0, r0
      74:	00380000 	eorseq	r0, r8, r0
      78:	00580000 	subseq	r0, r8, r0
      7c:	00010000 	andeq	r0, r1, r0
      80:	00005851 	andeq	r5, r0, r1, asr r8
      84:	0000a000 	andeq	sl, r0, r0
      88:	f3000400 	vshl.u8	d0, d0, d0
      8c:	009f5101 	addseq	r5, pc, r1, lsl #2
      90:	00000000 	andeq	r0, r0, r0
      94:	50000000 	andpl	r0, r0, r0
      98:	98000000 	stmdals	r0, {}	; <UNPREDICTABLE>
      9c:	01000000 	mrseq	r0, (UNDEF: 0)
      a0:	00005400 	andeq	r5, r0, r0, lsl #8
      a4:	00000000 	andeq	r0, r0, r0
      a8:	00600000 	rsbeq	r0, r0, r0
      ac:	00640000 	rsbeq	r0, r4, r0
      b0:	00010000 	andeq	r0, r1, r0
      b4:	00006450 	andeq	r6, r0, r0, asr r4
      b8:	00009800 	andeq	r9, r0, r0, lsl #16
      bc:	57000100 	strpl	r0, [r0, -r0, lsl #2]
	...
      c8:	00000070 	andeq	r0, r0, r0, ror r0
      cc:	00000074 	andeq	r0, r0, r4, ror r0
      d0:	74500001 	ldrbvc	r0, [r0], #-1
      d4:	98000000 	stmdals	r0, {}	; <UNPREDICTABLE>
      d8:	01000000 	mrseq	r0, (UNDEF: 0)
      dc:	00005600 	andeq	r5, r0, r0, lsl #12
      e0:	00000000 	andeq	r0, r0, r0
      e4:	00800000 	addeq	r0, r0, r0
      e8:	00840000 	addeq	r0, r4, r0
      ec:	00010000 	andeq	r0, r1, r0
      f0:	00008450 	andeq	r8, r0, r0, asr r4
      f4:	00008f00 	andeq	r8, r0, r0, lsl #30
      f8:	53000100 	movwpl	r0, #256	; 0x100
	...
     104:	000000a0 	andeq	r0, r0, r0, lsr #1
     108:	000000b4 	strheq	r0, [r0], -r4
     10c:	b4500001 	ldrblt	r0, [r0], #-1
     110:	3c000000 	stccc	0, cr0, [r0], {-0}
     114:	01000001 	tsteq	r0, r1
     118:	013c5500 	teqeq	ip, r0, lsl #10
     11c:	01500000 	cmpeq	r0, r0
     120:	00040000 	andeq	r0, r4, r0
     124:	9f5001f3 	svcls	0x005001f3
	...
     130:	000000a0 	andeq	r0, r0, r0, lsr #1
     134:	000000b8 	strheq	r0, [r0], -r8
     138:	b8510001 	ldmdalt	r1, {r0}^
     13c:	50000000 	andpl	r0, r0, r0
     140:	04000001 	streq	r0, [r0], #-1
     144:	5101f300 	mrspl	pc, SP_irq	; <UNPREDICTABLE>
     148:	0000009f 	muleq	r0, pc, r0	; <UNPREDICTABLE>
     14c:	00000000 	andeq	r0, r0, r0
     150:	0000a000 	andeq	sl, r0, r0
     154:	0000bb00 	andeq	fp, r0, r0, lsl #22
     158:	52000100 	andpl	r0, r0, #0, 2
     15c:	000000bb 	strheq	r0, [r0], -fp
     160:	00000150 	andeq	r0, r0, r0, asr r1
     164:	01f30004 	mvnseq	r0, r4
     168:	00009f52 	andeq	r9, r0, r2, asr pc
     16c:	00000000 	andeq	r0, r0, r0
     170:	00a00000 	adceq	r0, r0, r0
     174:	00bb0000 	adcseq	r0, fp, r0
     178:	00010000 	andeq	r0, r1, r0
     17c:	0000bb53 	andeq	fp, r0, r3, asr fp
     180:	00013c00 	andeq	r3, r1, r0, lsl #24
     184:	56000100 	strpl	r0, [r0], -r0, lsl #2
     188:	0000013c 	andeq	r0, r0, ip, lsr r1
     18c:	00000150 	andeq	r0, r0, r0, asr r1
     190:	01f30004 	mvnseq	r0, r4
     194:	00009f53 	andeq	r9, r0, r3, asr pc
     198:	00000000 	andeq	r0, r0, r0
     19c:	00c00000 	sbceq	r0, r0, r0
     1a0:	00c70000 	sbceq	r0, r7, r0
     1a4:	00010000 	andeq	r0, r1, r0
     1a8:	0000c750 	andeq	ip, r0, r0, asr r7
     1ac:	00013c00 	andeq	r3, r1, r0, lsl #24
     1b0:	57000100 	strpl	r0, [r0, -r0, lsl #2]
	...
     1bc:	000000d8 	ldrdeq	r0, [r0], -r8
     1c0:	0000013c 	andeq	r0, r0, ip, lsr r1
     1c4:	00540001 	subseq	r0, r4, r1
     1c8:	00000000 	andeq	r0, r0, r0
     1cc:	6c000000 	stcvs	0, cr0, [r0], {-0}
     1d0:	78000001 	stmdavc	r0, {r0}
     1d4:	01000001 	tsteq	r0, r1
     1d8:	01785000 	cmneq	r8, r0
     1dc:	02400000 	subeq	r0, r0, #0
     1e0:	00010000 	andeq	r0, r1, r0
     1e4:	00000055 	andeq	r0, r0, r5, asr r0
     1e8:	00000000 	andeq	r0, r0, r0
     1ec:	00016c00 	andeq	r6, r1, r0, lsl #24
     1f0:	00017800 	andeq	r7, r1, r0, lsl #16
     1f4:	30000200 	andcc	r0, r0, r0, lsl #4
     1f8:	0001789f 	muleq	r1, pc, r8	; <UNPREDICTABLE>
     1fc:	0001c400 	andeq	ip, r1, r0, lsl #8
     200:	54000100 	strpl	r0, [r0], #-256	; 0x100
	...
     20c:	00000260 	andeq	r0, r0, r0, ror #4
     210:	00000268 	andeq	r0, r0, r8, ror #4
     214:	68500001 	ldmdavs	r0, {r0}^
     218:	d0000002 	andle	r0, r0, r2
     21c:	01000003 	tsteq	r0, r3
     220:	00005600 	andeq	r5, r0, r0, lsl #12
     224:	00000000 	andeq	r0, r0, r0
     228:	027c0000 	rsbseq	r0, ip, #0
     22c:	02800000 	addeq	r0, r0, #0
     230:	00010000 	andeq	r0, r1, r0
     234:	00028050 	andeq	r8, r2, r0, asr r0
     238:	0002d400 	andeq	sp, r2, r0, lsl #8
     23c:	54000100 	strpl	r0, [r0], #-256	; 0x100
	...
     248:	000002a4 	andeq	r0, r0, r4, lsr #5
     24c:	000002a8 	andeq	r0, r0, r8, lsr #5
     250:	a8500001 	ldmdage	r0, {r0}^
     254:	e8000002 	stmda	r0, {r1}
     258:	01000002 	tsteq	r0, r2
     25c:	00005500 	andeq	r5, r0, r0, lsl #10
     260:	00000000 	andeq	r0, r0, r0
     264:	02d00000 	sbcseq	r0, r0, #0
     268:	02e80000 	rsceq	r0, r8, #0
     26c:	00020000 	andeq	r0, r2, r0
     270:	02e89f30 	rsceq	r9, r8, #48, 30	; 0xc0
     274:	03000000 	movweq	r0, #0
     278:	00010000 	andeq	r0, r1, r0
     27c:	00030053 	andeq	r0, r3, r3, asr r0
     280:	00031800 	andeq	r1, r3, r0, lsl #16
     284:	54000100 	strpl	r0, [r0], #-256	; 0x100
     288:	00000318 	andeq	r0, r0, r8, lsl r3
     28c:	0000031c 	andeq	r0, r0, ip, lsl r3
     290:	7f750003 	svcvc	0x00750003
     294:	00031c9f 	muleq	r3, pc, ip	; <UNPREDICTABLE>
     298:	00032000 	andeq	r2, r3, r0
     29c:	55000100 	strpl	r0, [r0, #-256]	; 0x100
     2a0:	00000320 	andeq	r0, r0, r0, lsr #6
     2a4:	00000344 	andeq	r0, r0, r4, asr #6
     2a8:	00540001 	subseq	r0, r4, r1
     2ac:	00000000 	andeq	r0, r0, r0
     2b0:	44000000 	strmi	r0, [r0], #-0
     2b4:	7c000003 	stcvc	0, cr0, [r0], {3}
     2b8:	01000003 	tsteq	r0, r3
     2bc:	037c5500 	cmneq	ip, #0, 10
     2c0:	03b40000 			; <UNDEFINED> instruction: 0x03b40000
     2c4:	00010000 	andeq	r0, r1, r0
     2c8:	0003b457 	andeq	fp, r3, r7, asr r4
     2cc:	0003d000 	andeq	sp, r3, r0
     2d0:	55000100 	strpl	r0, [r0, #-256]	; 0x100
	...
     2dc:	00000368 	andeq	r0, r0, r8, ror #6
     2e0:	0000036c 	andeq	r0, r0, ip, ror #6
     2e4:	6c500001 	mrrcvs	0, 0, r0, r0, cr1	; <UNPREDICTABLE>
     2e8:	b4000003 	strlt	r0, [r0], #-3
     2ec:	01000003 	tsteq	r0, r3
     2f0:	00005400 	andeq	r5, r0, r0, lsl #8
     2f4:	00000000 	andeq	r0, r0, r0
     2f8:	04300000 	ldrteq	r0, [r0], #-0
     2fc:	04370000 	ldrteq	r0, [r7], #-0
     300:	00010000 	andeq	r0, r1, r0
     304:	00043750 	andeq	r3, r4, r0, asr r7
     308:	0004a000 	andeq	sl, r4, r0
     30c:	55000100 	strpl	r0, [r0, #-256]	; 0x100
	...
     318:	00000438 	andeq	r0, r0, r8, lsr r4
     31c:	00000448 	andeq	r0, r0, r8, asr #8
     320:	9f300002 	svcls	0x00300002
     324:	00000448 	andeq	r0, r0, r8, asr #8
     328:	00000468 	andeq	r0, r0, r8, ror #8
     32c:	00540001 	subseq	r0, r4, r1
     330:	00000000 	andeq	r0, r0, r0
     334:	74000000 	strvc	r0, [r0], #-0
     338:	a0000004 	andge	r0, r0, r4
     33c:	01000004 	tsteq	r0, r4
     340:	00005400 	andeq	r5, r0, r0, lsl #8
     344:	00000000 	andeq	r0, r0, r0
     348:	04b00000 	ldrteq	r0, [r0], #0
     34c:	04c70000 	strbeq	r0, [r7], #0
     350:	00010000 	andeq	r0, r1, r0
     354:	0004c750 	andeq	ip, r4, r0, asr r7
     358:	0004e000 	andeq	lr, r4, r0
     35c:	f3000400 	vshl.u8	d0, d0, d0
     360:	e09f5001 	adds	r5, pc, r1
     364:	ef000004 	svc	0x00000004
     368:	01000004 	tsteq	r0, r4
     36c:	04ef5000 	strbteq	r5, [pc], #0	; 374 <_start-0x7c8c>
     370:	05080000 	streq	r0, [r8, #-0]
     374:	00040000 	andeq	r0, r4, r0
     378:	9f5001f3 	svcls	0x005001f3
     37c:	00000508 	andeq	r0, r0, r8, lsl #10
     380:	0000050c 	andeq	r0, r0, ip, lsl #10
     384:	0c500001 	mrrceq	0, 0, r0, r0, cr1	; <UNPREDICTABLE>
     388:	44000005 	strmi	r0, [r0], #-5
     38c:	04000005 	streq	r0, [r0], #-5
     390:	5001f300 	andpl	pc, r1, r0, lsl #6
     394:	0000009f 	muleq	r0, pc, r0	; <UNPREDICTABLE>
     398:	00000000 	andeq	r0, r0, r0
     39c:	0004b000 	andeq	fp, r4, r0
     3a0:	0004c700 	andeq	ip, r4, r0, lsl #14
     3a4:	51000100 	mrspl	r0, (UNDEF: 16)
     3a8:	000004c7 	andeq	r0, r0, r7, asr #9
     3ac:	000004e0 	andeq	r0, r0, r0, ror #9
     3b0:	67910002 	ldrvs	r0, [r1, r2]
     3b4:	000004e0 	andeq	r0, r0, r0, ror #9
     3b8:	000004ef 	andeq	r0, r0, pc, ror #9
     3bc:	ef510001 	svc	0x00510001
     3c0:	08000004 	stmdaeq	r0, {r2}
     3c4:	02000005 	andeq	r0, r0, #5
     3c8:	08679100 	stmdaeq	r7!, {r8, ip, pc}^
     3cc:	10000005 	andne	r0, r0, r5
     3d0:	01000005 	tsteq	r0, r5
     3d4:	05105100 	ldreq	r5, [r0, #-256]	; 0x100
     3d8:	05170000 	ldreq	r0, [r7, #-0]
     3dc:	00020000 	andeq	r0, r2, r0
     3e0:	05170071 	ldreq	r0, [r7, #-113]	; 0x71
     3e4:	05440000 	strbeq	r0, [r4, #-0]
     3e8:	00020000 	andeq	r0, r2, r0
     3ec:	00006791 	muleq	r0, r1, r7
     3f0:	00000000 	andeq	r0, r0, r0
     3f4:	05440000 	strbeq	r0, [r4, #-0]
     3f8:	05500000 	ldrbeq	r0, [r0, #-0]
     3fc:	00010000 	andeq	r0, r1, r0
     400:	00055050 	andeq	r5, r5, r0, asr r0
     404:	0005c000 	andeq	ip, r5, r0
     408:	f3000400 	vshl.u8	d0, d0, d0
     40c:	009f5001 	addseq	r5, pc, r1
     410:	00000000 	andeq	r0, r0, r0
     414:	44000000 	strmi	r0, [r0], #-0
     418:	57000005 	strpl	r0, [r0, -r5]
     41c:	01000005 	tsteq	r0, r5
     420:	05575100 	ldrbeq	r5, [r7, #-256]	; 0x100
     424:	05700000 	ldrbeq	r0, [r0, #-0]!
     428:	00040000 	andeq	r0, r4, r0
     42c:	9f5101f3 	svcls	0x005101f3
     430:	00000570 	andeq	r0, r0, r0, ror r5
     434:	0000057b 	andeq	r0, r0, fp, ror r5
     438:	7b510001 	blvc	1440444 <__bss_end__+0x143475c>
     43c:	94000005 	strls	r0, [r0], #-5
     440:	04000005 	streq	r0, [r0], #-5
     444:	5101f300 	mrspl	pc, SP_irq	; <UNPREDICTABLE>
     448:	0005949f 	muleq	r5, pc, r4	; <UNPREDICTABLE>
     44c:	0005a000 	andeq	sl, r5, r0
     450:	51000100 	mrspl	r0, (UNDEF: 16)
     454:	000005a0 	andeq	r0, r0, r0, lsr #11
     458:	000005a7 	andeq	r0, r0, r7, lsr #11
     45c:	00710002 	rsbseq	r0, r1, r2
     460:	000005a7 	andeq	r0, r0, r7, lsr #11
     464:	000005c0 	andeq	r0, r0, r0, asr #11
     468:	01f30004 	mvnseq	r0, r4
     46c:	00009f51 	andeq	r9, r0, r1, asr pc
     470:	00000000 	andeq	r0, r0, r0
     474:	05440000 	strbeq	r0, [r4, #-0]
     478:	05570000 	ldrbeq	r0, [r7, #-0]
     47c:	00010000 	andeq	r0, r1, r0
     480:	00055752 	andeq	r5, r5, r2, asr r7
     484:	00057000 	andeq	r7, r5, r0
     488:	f3000400 	vshl.u8	d0, d0, d0
     48c:	709f5201 	addsvc	r5, pc, r1, lsl #4
     490:	7b000005 	blvc	4ac <_start-0x7b54>
     494:	01000005 	tsteq	r0, r5
     498:	057b5200 	ldrbeq	r5, [fp, #-512]!	; 0x200
     49c:	05940000 	ldreq	r0, [r4]
     4a0:	00040000 	andeq	r0, r4, r0
     4a4:	9f5201f3 	svcls	0x005201f3
     4a8:	00000594 	muleq	r0, r4, r5
     4ac:	000005a4 	andeq	r0, r0, r4, lsr #11
     4b0:	a4520001 	ldrbge	r0, [r2], #-1
     4b4:	a7000005 	strge	r0, [r0, -r5]
     4b8:	02000005 	andeq	r0, r0, #5
     4bc:	a76d9100 	strbge	r9, [sp, -r0, lsl #2]!
     4c0:	c0000005 	andgt	r0, r0, r5
     4c4:	04000005 	streq	r0, [r0], #-5
     4c8:	5201f300 	andpl	pc, r1, #0, 6
     4cc:	0000009f 	muleq	r0, pc, r0	; <UNPREDICTABLE>
     4d0:	00000000 	andeq	r0, r0, r0
     4d4:	0005c000 	andeq	ip, r5, r0
     4d8:	0005df00 	andeq	sp, r5, r0, lsl #30
     4dc:	50000100 	andpl	r0, r0, r0, lsl #2
     4e0:	000005df 	ldrdeq	r0, [r0], -pc	; <UNPREDICTABLE>
     4e4:	000005f8 	strdeq	r0, [r0], -r8
     4e8:	01f30004 	mvnseq	r0, r4
     4ec:	05f89f50 	ldrbeq	r9, [r8, #3920]!	; 0xf50
     4f0:	06070000 	streq	r0, [r7], -r0
     4f4:	00010000 	andeq	r0, r1, r0
     4f8:	00060750 	andeq	r0, r6, r0, asr r7
     4fc:	00062000 	andeq	r2, r6, r0
     500:	f3000400 	vshl.u8	d0, d0, d0
     504:	209f5001 	addscs	r5, pc, r1
     508:	24000006 	strcs	r0, [r0], #-6
     50c:	01000006 	tsteq	r0, r6
     510:	06245000 	strteq	r5, [r4], -r0
     514:	06580000 	ldrbeq	r0, [r8], -r0
     518:	00040000 	andeq	r0, r4, r0
     51c:	9f5001f3 	svcls	0x005001f3
	...
     528:	000005c0 	andeq	r0, r0, r0, asr #11
     52c:	000005df 	ldrdeq	r0, [r0], -pc	; <UNPREDICTABLE>
     530:	df510001 	svcle	0x00510001
     534:	f8000005 			; <UNDEFINED> instruction: 0xf8000005
     538:	02000005 	andeq	r0, r0, #5
     53c:	f8679100 			; <UNDEFINED> instruction: 0xf8679100
     540:	07000005 	streq	r0, [r0, -r5]
     544:	01000006 	tsteq	r0, r6
     548:	06075100 	streq	r5, [r7], -r0, lsl #2
     54c:	06200000 	strteq	r0, [r0], -r0
     550:	00020000 	andeq	r0, r2, r0
     554:	06206791 			; <UNDEFINED> instruction: 0x06206791
     558:	06280000 	strteq	r0, [r8], -r0
     55c:	00010000 	andeq	r0, r1, r0
     560:	00062851 	andeq	r2, r6, r1, asr r8
     564:	00062f00 	andeq	r2, r6, r0, lsl #30
     568:	71000200 	mrsvc	r0, R8_usr
     56c:	00062f00 	andeq	r2, r6, r0, lsl #30
     570:	00065800 	andeq	r5, r6, r0, lsl #16
     574:	91000200 	mrsls	r0, R8_usr
     578:	00000067 	andeq	r0, r0, r7, rrx
     57c:	00000000 	andeq	r0, r0, r0
     580:	0005c000 	andeq	ip, r5, r0
     584:	0005df00 	andeq	sp, r5, r0, lsl #30
     588:	52000100 	andpl	r0, r0, #0, 2
     58c:	000005df 	ldrdeq	r0, [r0], -pc	; <UNPREDICTABLE>
     590:	000005f8 	strdeq	r0, [r0], -r8
     594:	f8560001 			; <UNDEFINED> instruction: 0xf8560001
     598:	07000005 	streq	r0, [r0, -r5]
     59c:	01000006 	tsteq	r0, r6
     5a0:	06075200 	streq	r5, [r7], -r0, lsl #4
     5a4:	06200000 	strteq	r0, [r0], -r0
     5a8:	00010000 	andeq	r0, r1, r0
     5ac:	00062056 	andeq	r2, r6, r6, asr r0
     5b0:	00062c00 	andeq	r2, r6, r0, lsl #24
     5b4:	52000100 	andpl	r0, r0, #0, 2
     5b8:	0000062c 	andeq	r0, r0, ip, lsr #12
     5bc:	00000648 	andeq	r0, r0, r8, asr #12
     5c0:	48560001 	ldmdami	r6, {r0}^
     5c4:	58000006 	stmdapl	r0, {r1, r2}
     5c8:	04000006 	streq	r0, [r0], #-6
     5cc:	5201f300 	andpl	pc, r1, #0, 6
     5d0:	0000009f 	muleq	r0, pc, r0	; <UNPREDICTABLE>
     5d4:	00000000 	andeq	r0, r0, r0
     5d8:	0005c000 	andeq	ip, r5, r0
     5dc:	0005df00 	andeq	sp, r5, r0, lsl #30
     5e0:	53000100 	movwpl	r0, #256	; 0x100
     5e4:	000005df 	ldrdeq	r0, [r0], -pc	; <UNPREDICTABLE>
     5e8:	000005f8 	strdeq	r0, [r0], -r8
     5ec:	f8550001 			; <UNDEFINED> instruction: 0xf8550001
     5f0:	fc000005 	stc2	0, cr0, [r0], {5}
     5f4:	01000005 	tsteq	r0, r5
     5f8:	05fc5300 	ldrbeq	r5, [ip, #768]!	; 0x300
     5fc:	06480000 	strbeq	r0, [r8], -r0
     600:	00010000 	andeq	r0, r1, r0
     604:	00064855 	andeq	r4, r6, r5, asr r8
     608:	00065800 	andeq	r5, r6, r0, lsl #16
     60c:	f3000400 	vshl.u8	d0, d0, d0
     610:	009f5301 	addseq	r5, pc, r1, lsl #6
     614:	00000000 	andeq	r0, r0, r0
     618:	58000000 	stmdapl	r0, {}	; <UNPREDICTABLE>
     61c:	8c000006 	stchi	0, cr0, [r0], {6}
     620:	01000006 	tsteq	r0, r6
     624:	068c5000 	streq	r5, [ip], r0
     628:	06900000 	ldreq	r0, [r0], r0
     62c:	00040000 	andeq	r0, r4, r0
     630:	9f5001f3 	svcls	0x005001f3
     634:	00000690 	muleq	r0, r0, r6
     638:	00000694 	muleq	r0, r4, r6
     63c:	94500001 	ldrbls	r0, [r0], #-1
     640:	98000006 	stmdals	r0, {r1, r2}
     644:	04000006 	streq	r0, [r0], #-6
     648:	5001f300 	andpl	pc, r1, r0, lsl #6
     64c:	0006989f 	muleq	r6, pc, r8	; <UNPREDICTABLE>
     650:	00069b00 	andeq	r9, r6, r0, lsl #22
     654:	50000100 	andpl	r0, r0, r0, lsl #2
     658:	0000069b 	muleq	r0, fp, r6
     65c:	000006b4 			; <UNDEFINED> instruction: 0x000006b4
     660:	01f30004 	mvnseq	r0, r4
     664:	06b49f50 	ssateq	r9, #21, r0, asr #30
     668:	06b80000 	ldrteq	r0, [r8], r0
     66c:	00010000 	andeq	r0, r1, r0
     670:	0006b850 	andeq	fp, r6, r0, asr r8
     674:	0006bc00 	andeq	fp, r6, r0, lsl #24
     678:	f3000400 	vshl.u8	d0, d0, d0
     67c:	bc9f5001 	ldclt	0, cr5, [pc], {1}
     680:	c0000006 	andgt	r0, r0, r6
     684:	01000006 	tsteq	r0, r6
     688:	06c05000 	strbeq	r5, [r0], r0
     68c:	06e00000 	strbteq	r0, [r0], r0
     690:	00040000 	andeq	r0, r4, r0
     694:	9f5001f3 	svcls	0x005001f3
	...
     6a0:	000006e0 	andeq	r0, r0, r0, ror #13
     6a4:	000006fb 	strdeq	r0, [r0], -fp
     6a8:	fb510001 	blx	14406b6 <__bss_end__+0x14349ce>
     6ac:	40000006 	andmi	r0, r0, r6
     6b0:	04000008 	streq	r0, [r0], #-8
     6b4:	5101f300 	mrspl	pc, SP_irq	; <UNPREDICTABLE>
     6b8:	0000009f 	muleq	r0, pc, r0	; <UNPREDICTABLE>
     6bc:	00000000 	andeq	r0, r0, r0
     6c0:	0006e000 	andeq	lr, r6, r0
     6c4:	0006fb00 	andeq	pc, r6, r0, lsl #22
     6c8:	52000100 	andpl	r0, r0, #0, 2
     6cc:	000006fb 	strdeq	r0, [r0], -fp
     6d0:	00000818 	andeq	r0, r0, r8, lsl r8
     6d4:	18540001 	ldmdane	r4, {r0}^
     6d8:	40000008 	andmi	r0, r0, r8
     6dc:	02000008 	andeq	r0, r0, #8
     6e0:	00087000 	andeq	r7, r8, r0
     6e4:	00000000 	andeq	r0, r0, r0
     6e8:	e0000000 	and	r0, r0, r0
     6ec:	fb000006 	blx	70e <_start-0x78f2>
     6f0:	01000006 	tsteq	r0, r6
     6f4:	06fb5300 	ldrbteq	r5, [fp], r0, lsl #6
     6f8:	08400000 	stmdaeq	r0, {}^	; <UNPREDICTABLE>
     6fc:	00040000 	andeq	r0, r4, r0
     700:	9f5301f3 	svcls	0x005301f3
	...
     70c:	000006e0 	andeq	r0, r0, r0, ror #13
     710:	000006fb 	strdeq	r0, [r0], -fp
     714:	00700002 	rsbseq	r0, r0, r2
     718:	000006fb 	strdeq	r0, [r0], -fp
     71c:	00000818 	andeq	r0, r0, r8, lsl r8
     720:	00750002 	rsbseq	r0, r5, r2
     724:	00000818 	andeq	r0, r0, r8, lsl r8
     728:	00000840 	andeq	r0, r0, r0, asr #16
     72c:	00700002 	rsbseq	r0, r0, r2
	...
     738:	000006fc 	strdeq	r0, [r0], -ip
     73c:	00000818 	andeq	r0, r0, r8, lsl r8
     740:	18540001 	ldmdane	r4, {r0}^
     744:	40000008 	andmi	r0, r0, r8
     748:	02000008 	andeq	r0, r0, #8
     74c:	00087000 	andeq	r7, r8, r0
     750:	00000000 	andeq	r0, r0, r0
     754:	5c000000 	stcpl	0, cr0, [r0], {-0}
     758:	18000007 	stmdane	r0, {r0, r1, r2}
     75c:	01000008 	tsteq	r0, r8
     760:	08185600 	ldmdaeq	r8, {r9, sl, ip, lr}
     764:	08400000 	stmdaeq	r0, {}^	; <UNPREDICTABLE>
     768:	00020000 	andeq	r0, r2, r0
     76c:	00000470 	andeq	r0, r0, r0, ror r4
     770:	00000000 	andeq	r0, r0, r0
     774:	08400000 	stmdaeq	r0, {}^	; <UNPREDICTABLE>
     778:	08480000 	stmdaeq	r8, {}^	; <UNPREDICTABLE>
     77c:	00010000 	andeq	r0, r1, r0
     780:	00084850 	andeq	r4, r8, r0, asr r8
     784:	00086800 	andeq	r6, r8, r0, lsl #16
     788:	f3000400 	vshl.u8	d0, d0, d0
     78c:	009f5001 	addseq	r5, pc, r1
     790:	00000000 	andeq	r0, r0, r0
     794:	50000000 	andpl	r0, r0, r0
     798:	5c000008 	stcpl	0, cr0, [r0], {8}
     79c:	08000008 	stmdaeq	r0, {r3}
     7a0:	32007000 	andcc	r7, r0, #0
     7a4:	1aff081a 	bne	fffc2814 <__bss_end__+0xfffb6b2c>
     7a8:	0008609f 	muleq	r8, pc, r0	; <UNPREDICTABLE>
     7ac:	00086400 	andeq	r6, r8, r0, lsl #8
     7b0:	70000800 	andvc	r0, r0, r0, lsl #16
     7b4:	081a3200 	ldmdaeq	sl, {r9, ip, sp}
     7b8:	009f1aff 			; <UNDEFINED> instruction: 0x009f1aff
     7bc:	00000000 	andeq	r0, r0, r0
     7c0:	68000000 	stmdavs	r0, {}	; <UNPREDICTABLE>
     7c4:	78000008 	stmdavc	r0, {r3}
     7c8:	01000008 	tsteq	r0, r8
     7cc:	08785100 	ldmdaeq	r8!, {r8, ip, lr}^
     7d0:	08bc0000 	ldmeq	ip!, {}	; <UNPREDICTABLE>
     7d4:	00010000 	andeq	r0, r1, r0
     7d8:	0008bc54 	andeq	fp, r8, r4, asr ip
     7dc:	0008e000 	andeq	lr, r8, r0
     7e0:	f3000400 	vshl.u8	d0, d0, d0
     7e4:	009f5101 	addseq	r5, pc, r1, lsl #2
     7e8:	00000000 	andeq	r0, r0, r0
     7ec:	ac000000 	stcge	0, cr0, [r0], {-0}
     7f0:	b0000008 	andlt	r0, r0, r8
     7f4:	01000008 	tsteq	r0, r8
     7f8:	08b05000 	ldmeq	r0!, {ip, lr}
     7fc:	08e00000 	stmiaeq	r0!, {}^	; <UNPREDICTABLE>
     800:	00010000 	andeq	r0, r1, r0
     804:	00000056 	andeq	r0, r0, r6, asr r0
     808:	00000000 	andeq	r0, r0, r0
     80c:	0008bc00 	andeq	fp, r8, r0, lsl #24
     810:	0008c000 	andeq	ip, r8, r0
     814:	50000100 	andpl	r0, r0, r0, lsl #2
     818:	000008c0 	andeq	r0, r0, r0, asr #17
     81c:	000008e0 	andeq	r0, r0, r0, ror #17
     820:	00540001 	subseq	r0, r4, r1
     824:	00000000 	andeq	r0, r0, r0
     828:	c8000000 	stmdagt	r0, {}	; <UNPREDICTABLE>
     82c:	d8000008 	stmdale	r0, {r3}
     830:	01000008 	tsteq	r0, r8
     834:	08d85000 	ldmeq	r8, {ip, lr}^
     838:	08e00000 	stmiaeq	r0!, {}^	; <UNPREDICTABLE>
     83c:	00020000 	andeq	r0, r2, r0
     840:	00000870 	andeq	r0, r0, r0, ror r8
     844:	00000000 	andeq	r0, r0, r0
     848:	08680000 	stmdaeq	r8!, {}^	; <UNPREDICTABLE>
     84c:	08780000 	ldmdaeq	r8!, {}^	; <UNPREDICTABLE>
     850:	00020000 	andeq	r0, r2, r0
     854:	08780070 	ldmdaeq	r8!, {r4, r5, r6}^
     858:	08e00000 	stmiaeq	r0!, {}^	; <UNPREDICTABLE>
     85c:	00020000 	andeq	r0, r2, r0
     860:	00000075 	andeq	r0, r0, r5, ror r0
     864:	00000000 	andeq	r0, r0, r0
     868:	09200000 	stmdbeq	r0!, {}	; <UNPREDICTABLE>
     86c:	092b0000 	stmdbeq	fp!, {}	; <UNPREDICTABLE>
     870:	00010000 	andeq	r0, r1, r0
     874:	00094450 	andeq	r4, r9, r0, asr r4
     878:	00094800 	andeq	r4, r9, r0, lsl #16
     87c:	50000100 	andpl	r0, r0, r0, lsl #2
	...
     888:	00000950 	andeq	r0, r0, r0, asr r9
     88c:	00000954 	andeq	r0, r0, r4, asr r9
     890:	54500001 	ldrbpl	r0, [r0], #-1
     894:	f8000009 			; <UNDEFINED> instruction: 0xf8000009
     898:	01000009 	tsteq	r0, r9
     89c:	00005400 	andeq	r5, r0, r0, lsl #8
     8a0:	00000000 	andeq	r0, r0, r0
     8a4:	09e00000 	stmibeq	r0!, {}^	; <UNPREDICTABLE>
     8a8:	09f80000 	ldmibeq	r8!, {}^	; <UNPREDICTABLE>
     8ac:	00010000 	andeq	r0, r1, r0
     8b0:	0009f850 	andeq	pc, r9, r0, asr r8	; <UNPREDICTABLE>
     8b4:	000c2000 	andeq	r2, ip, r0
     8b8:	55000100 	strpl	r0, [r0, #-256]	; 0x100
	...
     8c4:	000009f4 	strdeq	r0, [r0], -r4
     8c8:	000009f8 	strdeq	r0, [r0], -r8
     8cc:	9f300002 	svcls	0x00300002
     8d0:	000009f8 	strdeq	r0, [r0], -r8
     8d4:	00000c20 	andeq	r0, r0, r0, lsr #24
     8d8:	005b0001 	subseq	r0, fp, r1
     8dc:	00000000 	andeq	r0, r0, r0
     8e0:	dc000000 	stcle	0, cr0, [r0], {-0}
     8e4:	b000000a 	andlt	r0, r0, sl
     8e8:	0100000b 	tsteq	r0, fp
     8ec:	0bc85800 	bleq	ff2168f4 <__bss_end__+0xff20ac0c>
     8f0:	0bd00000 	bleq	ff4008f8 <__bss_end__+0xff3f4c10>
     8f4:	00010000 	andeq	r0, r1, r0
     8f8:	00000058 	andeq	r0, r0, r8, asr r0
     8fc:	00000000 	andeq	r0, r0, r0
     900:	000b3000 	andeq	r3, fp, r0
     904:	000b4400 	andeq	r4, fp, r0, lsl #8
     908:	30000200 	andcc	r0, r0, r0, lsl #4
     90c:	000b449f 	muleq	fp, pc, r4	; <UNPREDICTABLE>
     910:	000b6c00 	andeq	r6, fp, r0, lsl #24
     914:	54000100 	strpl	r0, [r0], #-256	; 0x100
	...
     920:	00000b50 	andeq	r0, r0, r0, asr fp
     924:	00000b5c 	andeq	r0, r0, ip, asr fp
     928:	5c500001 	mrrcpl	0, 0, r0, r0, cr1	; <UNPREDICTABLE>
     92c:	5f00000b 	svcpl	0x0000000b
     930:	0400000b 	streq	r0, [r0], #-11
     934:	70b07000 	adcsvc	r7, r0, r0
     938:	0000009f 	muleq	r0, pc, r0	; <UNPREDICTABLE>
     93c:	00000000 	andeq	r0, r0, r0
     940:	000bb000 	andeq	fp, fp, r0
     944:	000bc800 	andeq	ip, fp, r0, lsl #16
     948:	54000100 	strpl	r0, [r0], #-256	; 0x100
     94c:	00000bd0 	ldrdeq	r0, [r0], -r0	; <UNPREDICTABLE>
     950:	00000bd8 	ldrdeq	r0, [r0], -r8
     954:	00540001 	subseq	r0, r4, r1
	...
     960:	10000000 	andne	r0, r0, r0
     964:	01000000 	mrseq	r0, (UNDEF: 0)
     968:	00105000 	andseq	r5, r0, r0
     96c:	00380000 	eorseq	r0, r8, r0
     970:	00010000 	andeq	r0, r1, r0
     974:	00000055 	andeq	r0, r0, r5, asr r0
	...
     980:	00001300 	andeq	r1, r0, r0, lsl #6
     984:	51000100 	mrspl	r0, (UNDEF: 16)
     988:	00000013 	andeq	r0, r0, r3, lsl r0
     98c:	00000038 	andeq	r0, r0, r8, lsr r0
     990:	00560001 	subseq	r0, r6, r1
     994:	00000000 	andeq	r0, r0, r0
     998:	18000000 	stmdane	r0, {}	; <UNPREDICTABLE>
     99c:	24000000 	strcs	r0, [r0], #-0
     9a0:	01000000 	mrseq	r0, (UNDEF: 0)
     9a4:	00245000 	eoreq	r5, r4, r0
     9a8:	00380000 	eorseq	r0, r8, r0
     9ac:	00010000 	andeq	r0, r1, r0
     9b0:	00000054 	andeq	r0, r0, r4, asr r0
     9b4:	00000000 	andeq	r0, r0, r0
     9b8:	00003800 	andeq	r3, r0, r0, lsl #16
     9bc:	00006400 	andeq	r6, r0, r0, lsl #8
     9c0:	50000100 	andpl	r0, r0, r0, lsl #2
     9c4:	00000064 	andeq	r0, r0, r4, rrx
     9c8:	00000090 	muleq	r0, r0, r0
     9cc:	90540001 	subsls	r0, r4, r1
     9d0:	94000000 	strls	r0, [r0], #-0
     9d4:	01000000 	mrseq	r0, (UNDEF: 0)
     9d8:	00945000 	addseq	r5, r4, r0
     9dc:	00c00000 	sbceq	r0, r0, r0
     9e0:	00010000 	andeq	r0, r1, r0
     9e4:	0000c054 	andeq	ip, r0, r4, asr r0
     9e8:	0000c400 	andeq	ip, r0, r0, lsl #8
     9ec:	50000100 	andpl	r0, r0, r0, lsl #2
     9f0:	000000c4 	andeq	r0, r0, r4, asr #1
     9f4:	000000f0 	strdeq	r0, [r0], -r0	; <UNPREDICTABLE>
     9f8:	f0540001 			; <UNDEFINED> instruction: 0xf0540001
     9fc:	f4000000 	vst4.8	{d0-d3}, [r0], r0
     a00:	01000000 	mrseq	r0, (UNDEF: 0)
     a04:	00f45000 	rscseq	r5, r4, r0
     a08:	01200000 	teqeq	r0, r0
     a0c:	00010000 	andeq	r0, r1, r0
     a10:	00012054 	andeq	r2, r1, r4, asr r0
     a14:	00012400 	andeq	r2, r1, r0, lsl #8
     a18:	50000100 	andpl	r0, r0, r0, lsl #2
     a1c:	00000124 	andeq	r0, r0, r4, lsr #2
     a20:	00000150 	andeq	r0, r0, r0, asr r1
     a24:	50540001 	subspl	r0, r4, r1
     a28:	54000001 	strpl	r0, [r0], #-1
     a2c:	01000001 	tsteq	r0, r1
     a30:	01545000 	cmpeq	r4, r0
     a34:	01740000 	cmneq	r4, r0
     a38:	00010000 	andeq	r0, r1, r0
     a3c:	00000054 	andeq	r0, r0, r4, asr r0
     a40:	00000000 	andeq	r0, r0, r0
     a44:	00003800 	andeq	r3, r0, r0, lsl #16
     a48:	00006700 	andeq	r6, r0, r0, lsl #14
     a4c:	51000100 	mrspl	r0, (UNDEF: 16)
     a50:	00000067 	andeq	r0, r0, r7, rrx
     a54:	00000090 	muleq	r0, r0, r0
     a58:	01f30004 	mvnseq	r0, r4
     a5c:	00909f51 	addseq	r9, r0, r1, asr pc
     a60:	00970000 	addseq	r0, r7, r0
     a64:	00010000 	andeq	r0, r1, r0
     a68:	00009751 	andeq	r9, r0, r1, asr r7
     a6c:	0000c000 	andeq	ip, r0, r0
     a70:	f3000400 	vshl.u8	d0, d0, d0
     a74:	c09f5101 	addsgt	r5, pc, r1, lsl #2
     a78:	c7000000 	strgt	r0, [r0, -r0]
     a7c:	01000000 	mrseq	r0, (UNDEF: 0)
     a80:	00c75100 	sbceq	r5, r7, r0, lsl #2
     a84:	00f00000 	rscseq	r0, r0, r0
     a88:	00040000 	andeq	r0, r4, r0
     a8c:	9f5101f3 	svcls	0x005101f3
     a90:	000000f0 	strdeq	r0, [r0], -r0	; <UNPREDICTABLE>
     a94:	000000f7 	strdeq	r0, [r0], -r7
     a98:	f7510001 			; <UNDEFINED> instruction: 0xf7510001
     a9c:	20000000 	andcs	r0, r0, r0
     aa0:	04000001 	streq	r0, [r0], #-1
     aa4:	5101f300 	mrspl	pc, SP_irq	; <UNPREDICTABLE>
     aa8:	0001209f 	muleq	r1, pc, r0	; <UNPREDICTABLE>
     aac:	00012700 	andeq	r2, r1, r0, lsl #14
     ab0:	51000100 	mrspl	r0, (UNDEF: 16)
     ab4:	00000127 	andeq	r0, r0, r7, lsr #2
     ab8:	00000150 	andeq	r0, r0, r0, asr r1
     abc:	01f30004 	mvnseq	r0, r4
     ac0:	01509f51 	cmpeq	r0, r1, asr pc
     ac4:	01570000 	cmpeq	r7, r0
     ac8:	00010000 	andeq	r0, r1, r0
     acc:	00015751 	andeq	r5, r1, r1, asr r7
     ad0:	00017400 	andeq	r7, r1, r0, lsl #8
     ad4:	f3000400 	vshl.u8	d0, d0, d0
     ad8:	009f5101 	addseq	r5, pc, r1, lsl #2
     adc:	00000000 	andeq	r0, r0, r0
     ae0:	74000000 	strvc	r0, [r0], #-0
     ae4:	8c000001 	stchi	0, cr0, [r0], {1}
     ae8:	01000001 	tsteq	r0, r1
     aec:	018c5000 	orreq	r5, ip, r0
     af0:	01dc0000 	bicseq	r0, ip, r0
     af4:	00010000 	andeq	r0, r1, r0
     af8:	00000055 	andeq	r0, r0, r5, asr r0
     afc:	00000000 	andeq	r0, r0, r0
     b00:	00017400 	andeq	r7, r1, r0, lsl #8
     b04:	00018f00 	andeq	r8, r1, r0, lsl #30
     b08:	51000100 	mrspl	r0, (UNDEF: 16)
     b0c:	0000018f 	andeq	r0, r0, pc, lsl #3
     b10:	000001dc 	ldrdeq	r0, [r0], -ip
     b14:	00580001 	subseq	r0, r8, r1
     b18:	00000000 	andeq	r0, r0, r0
     b1c:	74000000 	strvc	r0, [r0], #-0
     b20:	8f000001 	svchi	0x00000001
     b24:	01000001 	tsteq	r0, r1
     b28:	018f5200 	orreq	r5, pc, r0, lsl #4
     b2c:	01dc0000 	bicseq	r0, ip, r0
     b30:	00010000 	andeq	r0, r1, r0
     b34:	00000057 	andeq	r0, r0, r7, asr r0
     b38:	00000000 	andeq	r0, r0, r0
     b3c:	00017400 	andeq	r7, r1, r0, lsl #8
     b40:	00018f00 	andeq	r8, r1, r0, lsl #30
     b44:	53000100 	movwpl	r0, #256	; 0x100
     b48:	0000018f 	andeq	r0, r0, pc, lsl #3
     b4c:	000001dc 	ldrdeq	r0, [r0], -ip
     b50:	00560001 	subseq	r0, r6, r1
     b54:	00000000 	andeq	r0, r0, r0
     b58:	94000000 	strls	r0, [r0], #-0
     b5c:	b0000001 	andlt	r0, r0, r1
     b60:	01000001 	tsteq	r0, r1
     b64:	01b05000 	movseq	r5, r0
     b68:	01dc0000 	bicseq	r0, ip, r0
     b6c:	00010000 	andeq	r0, r1, r0
     b70:	00000054 	andeq	r0, r0, r4, asr r0
     b74:	00000000 	andeq	r0, r0, r0
     b78:	0001dc00 	andeq	sp, r1, r0, lsl #24
     b7c:	0001e800 	andeq	lr, r1, r0, lsl #16
     b80:	50000100 	andpl	r0, r0, r0, lsl #2
     b84:	000001e8 	andeq	r0, r0, r8, ror #3
     b88:	00000218 	andeq	r0, r0, r8, lsl r2
     b8c:	00540001 	subseq	r0, r4, r1
     b90:	00000000 	andeq	r0, r0, r0
     b94:	18000000 	stmdane	r0, {}	; <UNPREDICTABLE>
     b98:	24000002 	strcs	r0, [r0], #-2
     b9c:	01000002 	tsteq	r0, r2
     ba0:	02245000 	eoreq	r5, r4, #0
     ba4:	02540000 	subseq	r0, r4, #0
     ba8:	00010000 	andeq	r0, r1, r0
     bac:	00000054 	andeq	r0, r0, r4, asr r0
     bb0:	00000000 	andeq	r0, r0, r0
     bb4:	00025400 	andeq	r5, r2, r0, lsl #8
     bb8:	00025800 	andeq	r5, r2, r0, lsl #16
     bbc:	50000100 	andpl	r0, r0, r0, lsl #2
     bc0:	00000258 	andeq	r0, r0, r8, asr r2
     bc4:	0000025c 	andeq	r0, r0, ip, asr r2
     bc8:	01f30004 	mvnseq	r0, r4
     bcc:	00009f50 	andeq	r9, r0, r0, asr pc
	...
     bd8:	00040000 	andeq	r0, r4, r0
     bdc:	00010000 	andeq	r0, r1, r0
     be0:	00000450 	andeq	r0, r0, r0, asr r4
     be4:	00000800 	andeq	r0, r0, r0, lsl #16
     be8:	f3000400 	vshl.u8	d0, d0, d0
     bec:	009f5001 	addseq	r5, pc, r1
     bf0:	00000000 	andeq	r0, r0, r0
     bf4:	40000000 	andmi	r0, r0, r0
     bf8:	5f000000 	svcpl	0x00000000
     bfc:	01000000 	mrseq	r0, (UNDEF: 0)
     c00:	005f5000 	subseq	r5, pc, r0
     c04:	00780000 	rsbseq	r0, r8, r0
     c08:	00040000 	andeq	r0, r4, r0
     c0c:	9f5001f3 	svcls	0x005001f3
     c10:	00000078 	andeq	r0, r0, r8, ror r0
     c14:	0000007c 	andeq	r0, r0, ip, ror r0
     c18:	7c500001 	mrrcvc	0, 0, r0, r0, cr1	; <UNPREDICTABLE>
     c1c:	80000000 	andhi	r0, r0, r0
     c20:	04000000 	streq	r0, [r0], #-0
     c24:	5001f300 	andpl	pc, r1, r0, lsl #6
     c28:	0000809f 	muleq	r0, pc, r0	; <UNPREDICTABLE>
     c2c:	00008400 	andeq	r8, r0, r0, lsl #8
     c30:	50000100 	andpl	r0, r0, r0, lsl #2
     c34:	00000084 	andeq	r0, r0, r4, lsl #1
     c38:	00000094 	muleq	r0, r4, r0
     c3c:	01f30004 	mvnseq	r0, r4
     c40:	00009f50 	andeq	r9, r0, r0, asr pc
     c44:	00000000 	andeq	r0, r0, r0
     c48:	00940000 	addseq	r0, r4, r0
     c4c:	00a30000 	adceq	r0, r3, r0
     c50:	00010000 	andeq	r0, r1, r0
     c54:	0000a350 	andeq	sl, r0, r0, asr r3
     c58:	0000bc00 	andeq	fp, r0, r0, lsl #24
     c5c:	f3000400 	vshl.u8	d0, d0, d0
     c60:	bc9f5001 	ldclt	0, cr5, [pc], {1}
     c64:	cb000000 	blgt	c6c <_start-0x7394>
     c68:	01000000 	mrseq	r0, (UNDEF: 0)
     c6c:	00cb5000 	sbceq	r5, fp, r0
     c70:	00f00000 	rscseq	r0, r0, r0
     c74:	00040000 	andeq	r0, r4, r0
     c78:	9f5001f3 	svcls	0x005001f3
     c7c:	000000f0 	strdeq	r0, [r0], -r0	; <UNPREDICTABLE>
     c80:	00000110 	andeq	r0, r0, r0, lsl r1
     c84:	10500001 	subsne	r0, r0, r1
     c88:	2c000001 	stccs	0, cr0, [r0], {1}
     c8c:	04000001 	streq	r0, [r0], #-1
     c90:	5001f300 	andpl	pc, r1, r0, lsl #6
     c94:	0000009f 	muleq	r0, pc, r0	; <UNPREDICTABLE>
     c98:	00000000 	andeq	r0, r0, r0
     c9c:	0000c000 	andeq	ip, r0, r0
     ca0:	0000cb00 	andeq	ip, r0, r0, lsl #22
     ca4:	53000100 	movwpl	r0, #256	; 0x100
     ca8:	000000f0 	strdeq	r0, [r0], -r0	; <UNPREDICTABLE>
     cac:	00000114 	andeq	r0, r0, r4, lsl r1
     cb0:	00530001 	subseq	r0, r3, r1
     cb4:	00000000 	andeq	r0, r0, r0
     cb8:	2c000000 	stccs	0, cr0, [r0], {-0}
     cbc:	4c000001 	stcmi	0, cr0, [r0], {1}
     cc0:	01000001 	tsteq	r0, r1
     cc4:	014c5000 	mrseq	r5, (UNDEF: 76)
     cc8:	01c00000 	biceq	r0, r0, r0
     ccc:	00010000 	andeq	r0, r1, r0
     cd0:	0001c056 	andeq	ip, r1, r6, asr r0
     cd4:	0001c400 	andeq	ip, r1, r0, lsl #8
     cd8:	50000100 	andpl	r0, r0, r0, lsl #2
     cdc:	000001c4 	andeq	r0, r0, r4, asr #3
     ce0:	000001d0 	ldrdeq	r0, [r0], -r0	; <UNPREDICTABLE>
     ce4:	00560001 	subseq	r0, r6, r1
     ce8:	00000000 	andeq	r0, r0, r0
     cec:	2c000000 	stccs	0, cr0, [r0], {-0}
     cf0:	4f000001 	svcmi	0x00000001
     cf4:	01000001 	tsteq	r0, r1
     cf8:	014f5100 	mrseq	r5, (UNDEF: 95)
     cfc:	01c00000 	biceq	r0, r0, r0
     d00:	00010000 	andeq	r0, r1, r0
     d04:	0001c055 	andeq	ip, r1, r5, asr r0
     d08:	0001d000 	andeq	sp, r1, r0
     d0c:	51000100 	mrspl	r0, (UNDEF: 16)
	...
     d18:	00000154 	andeq	r0, r0, r4, asr r1
     d1c:	00000160 	andeq	r0, r0, r0, ror #2
     d20:	60500001 	subsvs	r0, r0, r1
     d24:	c0000001 	andgt	r0, r0, r1
     d28:	01000001 	tsteq	r0, r1
     d2c:	00005400 	andeq	r5, r0, r0, lsl #8
     d30:	00000000 	andeq	r0, r0, r0
     d34:	01a40000 			; <UNDEFINED> instruction: 0x01a40000
     d38:	01b80000 			; <UNDEFINED> instruction: 0x01b80000
     d3c:	00020000 	andeq	r0, r2, r0
     d40:	00009f31 	andeq	r9, r0, r1, lsr pc
     d44:	00000000 	andeq	r0, r0, r0
     d48:	01d00000 	bicseq	r0, r0, r0
     d4c:	01d70000 	bicseq	r0, r7, r0
     d50:	00010000 	andeq	r0, r1, r0
     d54:	0001d750 	andeq	sp, r1, r0, asr r7
     d58:	0001fc00 	andeq	pc, r1, r0, lsl #24
     d5c:	f3000400 	vshl.u8	d0, d0, d0
     d60:	009f5001 	addseq	r5, pc, r1
     d64:	00000000 	andeq	r0, r0, r0
     d68:	d0000000 	andle	r0, r0, r0
     d6c:	d7000001 	strle	r0, [r0, -r1]
     d70:	01000001 	tsteq	r0, r1
     d74:	01d75100 	bicseq	r5, r7, r0, lsl #2
     d78:	01fc0000 	mvnseq	r0, r0
     d7c:	00040000 	andeq	r0, r4, r0
     d80:	9f5101f3 	svcls	0x005101f3
	...
     d8c:	000001d0 	ldrdeq	r0, [r0], -r0	; <UNPREDICTABLE>
     d90:	000001d7 	ldrdeq	r0, [r0], -r7
     d94:	d7520001 	ldrble	r0, [r2, -r1]
     d98:	fc000001 	stc2	0, cr0, [r0], {1}
     d9c:	04000001 	streq	r0, [r0], #-1
     da0:	5201f300 	andpl	pc, r1, #0, 6
     da4:	0000009f 	muleq	r0, pc, r0	; <UNPREDICTABLE>
     da8:	00000000 	andeq	r0, r0, r0
     dac:	0001d000 	andeq	sp, r1, r0
     db0:	0001d700 	andeq	sp, r1, r0, lsl #14
     db4:	53000100 	movwpl	r0, #256	; 0x100
     db8:	000001d7 	ldrdeq	r0, [r0], -r7
     dbc:	000001fc 	strdeq	r0, [r0], -ip
     dc0:	01f30004 	mvnseq	r0, r4
     dc4:	00009f53 	andeq	r9, r0, r3, asr pc
     dc8:	00000000 	andeq	r0, r0, r0
     dcc:	01fc0000 	mvnseq	r0, r0
     dd0:	02180000 	andseq	r0, r8, #0
     dd4:	00010000 	andeq	r0, r1, r0
     dd8:	00021850 	andeq	r1, r2, r0, asr r8
     ddc:	00024400 	andeq	r4, r2, r0, lsl #8
     de0:	56000100 	strpl	r0, [r0], -r0, lsl #2
	...
     dec:	000001fc 	strdeq	r0, [r0], -ip
     df0:	0000021b 	andeq	r0, r0, fp, lsl r2
     df4:	1b510001 	blne	1440e00 <__bss_end__+0x1435118>
     df8:	44000002 	strmi	r0, [r0], #-2
     dfc:	01000002 	tsteq	r0, r2
     e00:	00005800 	andeq	r5, r0, r0, lsl #16
     e04:	00000000 	andeq	r0, r0, r0
     e08:	01fc0000 	mvnseq	r0, r0
     e0c:	021b0000 	andseq	r0, fp, #0
     e10:	00010000 	andeq	r0, r1, r0
     e14:	00021b52 	andeq	r1, r2, r2, asr fp
     e18:	00024400 	andeq	r4, r2, r0, lsl #8
     e1c:	57000100 	strpl	r0, [r0, -r0, lsl #2]
	...
     e28:	00000220 	andeq	r0, r0, r0, lsr #4
     e2c:	00000234 	andeq	r0, r0, r4, lsr r2
     e30:	34500001 	ldrbcc	r0, [r0], #-1
     e34:	44000002 	strmi	r0, [r0], #-2
     e38:	01000002 	tsteq	r0, r2
     e3c:	00005400 	andeq	r5, r0, r0, lsl #8
     e40:	00000000 	andeq	r0, r0, r0
     e44:	02440000 	subeq	r0, r4, #0
     e48:	024c0000 	subeq	r0, ip, #0
     e4c:	00010000 	andeq	r0, r1, r0
     e50:	00024c50 	andeq	r4, r2, r0, asr ip
     e54:	00025400 	andeq	r5, r2, r0, lsl #8
     e58:	f3000400 	vshl.u8	d0, d0, d0
     e5c:	009f5001 	addseq	r5, pc, r1
     e60:	00000000 	andeq	r0, r0, r0
     e64:	54000000 	strpl	r0, [r0], #-0
     e68:	5b000002 	blpl	e78 <_start-0x7188>
     e6c:	01000002 	tsteq	r0, r2
     e70:	025b5000 	subseq	r5, fp, #0
     e74:	03440000 	movteq	r0, #16384	; 0x4000
     e78:	00040000 	andeq	r0, r4, r0
     e7c:	9f5001f3 	svcls	0x005001f3
	...
     e88:	00000264 	andeq	r0, r0, r4, ror #4
     e8c:	00000270 	andeq	r0, r0, r0, ror r2
     e90:	00500001 	subseq	r0, r0, r1
     e94:	00000000 	andeq	r0, r0, r0
     e98:	84000000 	strhi	r0, [r0], #-0
     e9c:	98000002 	stmdals	r0, {r1}
     ea0:	01000002 	tsteq	r0, r2
     ea4:	02985000 	addseq	r5, r8, #0
     ea8:	03440000 	movteq	r0, #16384	; 0x4000
     eac:	00010000 	andeq	r0, r1, r0
     eb0:	00000059 	andeq	r0, r0, r9, asr r0
     eb4:	00000000 	andeq	r0, r0, r0
     eb8:	00028400 	andeq	r8, r2, r0, lsl #8
     ebc:	00029800 	andeq	r9, r2, r0, lsl #16
     ec0:	30000200 	andcc	r0, r0, r0, lsl #4
     ec4:	0002989f 	muleq	r2, pc, r8	; <UNPREDICTABLE>
     ec8:	00034400 	andeq	r4, r3, r0, lsl #8
     ecc:	54000100 	strpl	r0, [r0], #-256	; 0x100
	...
     ed8:	000002a0 	andeq	r0, r0, r0, lsr #5
     edc:	00000328 	andeq	r0, r0, r8, lsr #6
     ee0:	00550001 	subseq	r0, r5, r1
     ee4:	00000000 	andeq	r0, r0, r0
     ee8:	c0000000 	andgt	r0, r0, r0
     eec:	c4000002 	strgt	r0, [r0], #-2
     ef0:	01000002 	tsteq	r0, r2
     ef4:	02c45000 	sbceq	r5, r4, #0
     ef8:	03200000 	teqeq	r0, #0
     efc:	00010000 	andeq	r0, r1, r0
     f00:	0000005b 	andeq	r0, r0, fp, asr r0
     f04:	00000000 	andeq	r0, r0, r0
     f08:	0002c800 	andeq	ip, r2, r0, lsl #16
     f0c:	0002d800 	andeq	sp, r2, r0, lsl #16
     f10:	50000100 	andpl	r0, r0, r0, lsl #2
     f14:	000002e4 	andeq	r0, r0, r4, ror #5
     f18:	00000308 	andeq	r0, r0, r8, lsl #6
     f1c:	10500001 	subsne	r0, r0, r1
     f20:	14000003 	strne	r0, [r0], #-3
     f24:	01000003 	tsteq	r0, r3
     f28:	00005000 	andeq	r5, r0, r0
     f2c:	00000000 	andeq	r0, r0, r0
     f30:	02dc0000 	sbcseq	r0, ip, #0
     f34:	02e40000 	rsceq	r0, r4, #0
     f38:	00010000 	andeq	r0, r1, r0
     f3c:	00000050 	andeq	r0, r0, r0, asr r0
     f40:	00000000 	andeq	r0, r0, r0
     f44:	00034400 	andeq	r4, r3, r0, lsl #8
     f48:	00034b00 	andeq	r4, r3, r0, lsl #22
     f4c:	50000100 	andpl	r0, r0, r0, lsl #2
     f50:	0000034b 	andeq	r0, r0, fp, asr #6
     f54:	00000350 	andeq	r0, r0, r0, asr r3
     f58:	01f30004 	mvnseq	r0, r4
     f5c:	00009f50 	andeq	r9, r0, r0, asr pc
     f60:	00000000 	andeq	r0, r0, r0
     f64:	03500000 	cmpeq	r0, #0
     f68:	03540000 	cmpeq	r4, #0
     f6c:	00010000 	andeq	r0, r1, r0
     f70:	00035450 	andeq	r5, r3, r0, asr r4
     f74:	00036400 	andeq	r6, r3, r0, lsl #8
     f78:	f3000400 	vshl.u8	d0, d0, d0
     f7c:	009f5001 	addseq	r5, pc, r1
     f80:	00000000 	andeq	r0, r0, r0
     f84:	64000000 	strvs	r0, [r0], #-0
     f88:	68000003 	stmdavs	r0, {r0, r1}
     f8c:	01000003 	tsteq	r0, r3
     f90:	03685000 	cmneq	r8, #0
     f94:	03780000 	cmneq	r8, #0
     f98:	00040000 	andeq	r0, r4, r0
     f9c:	9f5001f3 	svcls	0x005001f3
	...
     fa8:	000003ec 	andeq	r0, r0, ip, ror #7
     fac:	00000403 	andeq	r0, r0, r3, lsl #8
     fb0:	03500001 	cmpeq	r0, #1
     fb4:	ac000004 	stcge	0, cr0, [r0], {4}
     fb8:	04000004 	streq	r0, [r0], #-4
     fbc:	5001f300 	andpl	pc, r1, r0, lsl #6
     fc0:	0000009f 	muleq	r0, pc, r0	; <UNPREDICTABLE>
     fc4:	00000000 	andeq	r0, r0, r0
     fc8:	0003ec00 	andeq	lr, r3, r0, lsl #24
     fcc:	00040000 	andeq	r0, r4, r0
     fd0:	51000100 	mrspl	r0, (UNDEF: 16)
     fd4:	00000400 	andeq	r0, r0, r0, lsl #8
     fd8:	000004ac 	andeq	r0, r0, ip, lsr #9
     fdc:	00550001 	subseq	r0, r5, r1
     fe0:	00000000 	andeq	r0, r0, r0
     fe4:	ec000000 	stc	0, cr0, [r0], {-0}
     fe8:	fc000003 	stc2	0, cr0, [r0], {3}
     fec:	01000003 	tsteq	r0, r3
     ff0:	03fc5200 	mvnseq	r5, #0, 4
     ff4:	04ac0000 	strteq	r0, [ip], #0
     ff8:	00010000 	andeq	r0, r1, r0
     ffc:	00000054 	andeq	r0, r0, r4, asr r0
    1000:	00000000 	andeq	r0, r0, r0
    1004:	00040400 	andeq	r0, r4, r0, lsl #8
    1008:	00040c00 	andeq	r0, r4, r0, lsl #24
    100c:	30000200 	andcc	r0, r0, r0, lsl #4
    1010:	00040c9f 	muleq	r4, pc, ip	; <UNPREDICTABLE>
    1014:	00040f00 	andeq	r0, r4, r0, lsl #30
    1018:	52000100 	andpl	r0, r0, #0, 2
    101c:	00000428 	andeq	r0, r0, r8, lsr #8
    1020:	00000473 	andeq	r0, r0, r3, ror r4
    1024:	8c520001 	mrrchi	0, 0, r0, r2, cr1
    1028:	8f000004 	svchi	0x00000004
    102c:	01000004 	tsteq	r0, r4
    1030:	00005200 	andeq	r5, r0, r0, lsl #4
    1034:	00000000 	andeq	r0, r0, r0
    1038:	03280000 	teqeq	r8, #0
    103c:	033f0000 	teqeq	pc, #0
    1040:	00010000 	andeq	r0, r1, r0
    1044:	00033f50 	andeq	r3, r3, r0, asr pc
    1048:	0003ec00 	andeq	lr, r3, r0, lsl #24
    104c:	f3000400 	vshl.u8	d0, d0, d0
    1050:	009f5001 	addseq	r5, pc, r1
    1054:	00000000 	andeq	r0, r0, r0
    1058:	28000000 	stmdacs	r0, {}	; <UNPREDICTABLE>
    105c:	3c000003 	stccc	0, cr0, [r0], {3}
    1060:	01000003 	tsteq	r0, r3
    1064:	033c5100 	teqeq	ip, #0, 2
    1068:	03ec0000 	mvneq	r0, #0
    106c:	00010000 	andeq	r0, r1, r0
    1070:	00000055 	andeq	r0, r0, r5, asr r0
    1074:	00000000 	andeq	r0, r0, r0
    1078:	00032800 	andeq	r2, r3, r0, lsl #16
    107c:	00033800 	andeq	r3, r3, r0, lsl #16
    1080:	52000100 	andpl	r0, r0, #0, 2
    1084:	00000338 	andeq	r0, r0, r8, lsr r3
    1088:	000003ec 	andeq	r0, r0, ip, ror #7
    108c:	00540001 	subseq	r0, r4, r1
    1090:	00000000 	andeq	r0, r0, r0
    1094:	40000000 	andmi	r0, r0, r0
    1098:	48000003 	stmdami	r0, {r0, r1}
    109c:	02000003 	andeq	r0, r0, #3
    10a0:	489f3000 	ldmmi	pc, {ip, sp}	; <UNPREDICTABLE>
    10a4:	4b000003 	blmi	10b8 <_start-0x6f48>
    10a8:	01000003 	tsteq	r0, r3
    10ac:	03645200 	cmneq	r4, #0, 4
    10b0:	03af0000 			; <UNDEFINED> instruction: 0x03af0000
    10b4:	00010000 	andeq	r0, r1, r0
    10b8:	0003c852 	andeq	ip, r3, r2, asr r8
    10bc:	0003cb00 	andeq	ip, r3, r0, lsl #22
    10c0:	52000100 	andpl	r0, r0, #0, 2
	...
    10cc:	00000160 	andeq	r0, r0, r0, ror #2
    10d0:	00000173 	andeq	r0, r0, r3, ror r1
    10d4:	73500001 	cmpvc	r0, #1
    10d8:	28000001 	stmdacs	r0, {r0}
    10dc:	01000003 	tsteq	r0, r3
    10e0:	00005600 	andeq	r5, r0, r0, lsl #12
    10e4:	00000000 	andeq	r0, r0, r0
    10e8:	01600000 	cmneq	r0, r0
    10ec:	01730000 	cmneq	r3, r0
    10f0:	00010000 	andeq	r0, r1, r0
    10f4:	00017351 	andeq	r7, r1, r1, asr r3
    10f8:	00021c00 	andeq	r1, r2, r0, lsl #24
    10fc:	55000100 	strpl	r0, [r0, #-256]	; 0x100
    1100:	0000021c 	andeq	r0, r0, ip, lsl r2
    1104:	00000288 	andeq	r0, r0, r8, lsl #5
    1108:	01f30004 	mvnseq	r0, r4
    110c:	02889f51 	addeq	r9, r8, #324	; 0x144
    1110:	02dc0000 	sbcseq	r0, ip, #0
    1114:	00010000 	andeq	r0, r1, r0
    1118:	0002dc55 	andeq	sp, r2, r5, asr ip
    111c:	00032800 	andeq	r2, r3, r0, lsl #16
    1120:	f3000400 	vshl.u8	d0, d0, d0
    1124:	009f5101 	addseq	r5, pc, r1, lsl #2
    1128:	00000000 	andeq	r0, r0, r0
    112c:	60000000 	andvs	r0, r0, r0
    1130:	73000001 	movwvc	r0, #1
    1134:	01000001 	tsteq	r0, r1
    1138:	01735200 	cmneq	r3, r0, lsl #4
    113c:	03280000 	teqeq	r8, #0
    1140:	00010000 	andeq	r0, r1, r0
    1144:	00000054 	andeq	r0, r0, r4, asr r0
    1148:	00000000 	andeq	r0, r0, r0
    114c:	00022c00 	andeq	r2, r2, r0, lsl #24
    1150:	00023000 	andeq	r3, r2, r0
    1154:	50000100 	andpl	r0, r0, r0, lsl #2
	...
    1160:	0000013c 	andeq	r0, r0, ip, lsr r1
    1164:	00000140 	andeq	r0, r0, r0, asr #2
    1168:	00510001 	subseq	r0, r1, r1
    116c:	00000000 	andeq	r0, r0, r0
    1170:	18000000 	stmdane	r0, {}	; <UNPREDICTABLE>
    1174:	1f000001 	svcne	0x00000001
    1178:	01000001 	tsteq	r0, r1
    117c:	011f5000 	tsteq	pc, r0
    1180:	01280000 	teqeq	r8, r0
    1184:	00040000 	andeq	r0, r4, r0
    1188:	9f5001f3 	svcls	0x005001f3
	...
    1194:	00000014 	andeq	r0, r0, r4, lsl r0
    1198:	00000018 	andeq	r0, r0, r8, lsl r0
    119c:	00500001 	subseq	r0, r0, r1
    11a0:	00000000 	andeq	r0, r0, r0
    11a4:	50000000 	andpl	r0, r0, r0
    11a8:	57000001 	strpl	r0, [r0, -r1]
    11ac:	01000001 	tsteq	r0, r1
    11b0:	01575000 	cmpeq	r7, r0
    11b4:	01600000 	cmneq	r0, r0
    11b8:	00040000 	andeq	r0, r4, r0
    11bc:	9f5001f3 	svcls	0x005001f3
	...
    11cc:	00000004 	andeq	r0, r0, r4
    11d0:	10500001 	subsne	r0, r0, r1
    11d4:	10000000 	andne	r0, r0, r0
    11d8:	01000000 	mrseq	r0, (UNDEF: 0)
    11dc:	00005000 	andeq	r5, r0, r0
    11e0:	00000000 	andeq	r0, r0, r0
    11e4:	002c0000 	eoreq	r0, ip, r0
    11e8:	00380000 	eorseq	r0, r8, r0
    11ec:	00010000 	andeq	r0, r1, r0
    11f0:	00003850 	andeq	r3, r0, r0, asr r8
    11f4:	00004800 	andeq	r4, r0, r0, lsl #16
    11f8:	55000100 	strpl	r0, [r0, #-256]	; 0x100
    11fc:	00000048 	andeq	r0, r0, r8, asr #32
    1200:	00000058 	andeq	r0, r0, r8, asr r0
    1204:	00500001 	subseq	r0, r0, r1
	...
    1210:	0b000000 	bleq	1218 <_start-0x6de8>
    1214:	01000000 	mrseq	r0, (UNDEF: 0)
    1218:	000b5000 	andeq	r5, fp, r0
    121c:	00140000 	andseq	r0, r4, r0
    1220:	00010000 	andeq	r0, r1, r0
    1224:	00000054 	andeq	r0, r0, r4, asr r0
	...
    1230:	00001000 	andeq	r1, r0, r0
    1234:	50000100 	andpl	r0, r0, r0, lsl #2
    1238:	00000010 	andeq	r0, r0, r0, lsl r0
    123c:	00000034 	andeq	r0, r0, r4, lsr r0
    1240:	00540001 	subseq	r0, r4, r1
	...
    124c:	04000000 	streq	r0, [r0], #-0
    1250:	01000000 	mrseq	r0, (UNDEF: 0)
    1254:	00045000 	andeq	r5, r4, r0
    1258:	000c0000 	andeq	r0, ip, r0
    125c:	00030000 	andeq	r0, r3, r0
    1260:	0c9f3070 	ldceq	0, cr3, [pc], {112}	; 0x70
    1264:	14000000 	strne	r0, [r0], #-0
    1268:	04000000 	streq	r0, [r0], #-0
    126c:	5001f300 	andpl	pc, r1, r0, lsl #6
    1270:	0000009f 	muleq	r0, pc, r0	; <UNPREDICTABLE>
    1274:	00000000 	andeq	r0, r0, r0
    1278:	00001400 	andeq	r1, r0, r0, lsl #8
    127c:	00002000 	andeq	r2, r0, r0
    1280:	50000100 	andpl	r0, r0, r0, lsl #2
    1284:	00000020 	andeq	r0, r0, r0, lsr #32
    1288:	0000002c 	andeq	r0, r0, ip, lsr #32
    128c:	01700003 	cmneq	r0, r3
    1290:	00002c9f 	muleq	r0, pc, ip	; <UNPREDICTABLE>
    1294:	00004000 	andeq	r4, r0, r0
    1298:	50000100 	andpl	r0, r0, r0, lsl #2
	...
    12a4:	00000014 	andeq	r0, r0, r4, lsl r0
    12a8:	00000018 	andeq	r0, r0, r8, lsl r0
    12ac:	18510001 	ldmdane	r1, {r0}^
    12b0:	40000000 	andmi	r0, r0, r0
    12b4:	04000000 	streq	r0, [r0], #-0
    12b8:	5101f300 	mrspl	pc, SP_irq	; <UNPREDICTABLE>
    12bc:	0000009f 	muleq	r0, pc, r0	; <UNPREDICTABLE>
    12c0:	00000000 	andeq	r0, r0, r0
    12c4:	00004000 	andeq	r4, r0, r0
    12c8:	00006000 	andeq	r6, r0, r0
    12cc:	50000100 	andpl	r0, r0, r0, lsl #2
    12d0:	00000060 	andeq	r0, r0, r0, rrx
    12d4:	0000006c 	andeq	r0, r0, ip, rrx
    12d8:	01710003 	cmneq	r1, r3
    12dc:	00006c9f 	muleq	r0, pc, ip	; <UNPREDICTABLE>
    12e0:	00007400 	andeq	r7, r0, r0, lsl #8
    12e4:	51000100 	mrspl	r0, (UNDEF: 16)
    12e8:	00000074 	andeq	r0, r0, r4, ror r0
    12ec:	00000080 	andeq	r0, r0, r0, lsl #1
    12f0:	01710003 	cmneq	r1, r3
    12f4:	0000009f 	muleq	r0, pc, r0	; <UNPREDICTABLE>
    12f8:	00000000 	andeq	r0, r0, r0
    12fc:	00004000 	andeq	r4, r0, r0
    1300:	00005000 	andeq	r5, r0, r0
    1304:	51000100 	mrspl	r0, (UNDEF: 16)
    1308:	00000050 	andeq	r0, r0, r0, asr r0
    130c:	00000080 	andeq	r0, r0, r0, lsl #1
    1310:	01f30004 	mvnseq	r0, r4
    1314:	00009f51 	andeq	r9, r0, r1, asr pc
    1318:	00000000 	andeq	r0, r0, r0
    131c:	00400000 	subeq	r0, r0, r0
    1320:	00580000 	subseq	r0, r8, r0
    1324:	00010000 	andeq	r0, r1, r0
    1328:	00005852 	andeq	r5, r0, r2, asr r8
    132c:	00006400 	andeq	r6, r0, r0, lsl #8
    1330:	52000100 	andpl	r0, r0, #0, 2
    1334:	00000064 	andeq	r0, r0, r4, rrx
    1338:	00000068 	andeq	r0, r0, r8, rrx
    133c:	01720003 	cmneq	r2, r3
    1340:	0000689f 	muleq	r0, pc, r8	; <UNPREDICTABLE>
    1344:	00008000 	andeq	r8, r0, r0
    1348:	52000100 	andpl	r0, r0, #0, 2
	...
    1354:	00000040 	andeq	r0, r0, r0, asr #32
    1358:	00000054 	andeq	r0, r0, r4, asr r0
    135c:	54530001 	ldrbpl	r0, [r3], #-1
    1360:	78000000 	stmdavc	r0, {}	; <UNPREDICTABLE>
    1364:	01000000 	mrseq	r0, (UNDEF: 0)
    1368:	00005300 	andeq	r5, r0, r0, lsl #6
    136c:	00000000 	andeq	r0, r0, r0
    1370:	00480000 	subeq	r0, r8, r0
    1374:	00600000 	rsbeq	r0, r0, r0
    1378:	00010000 	andeq	r0, r1, r0
    137c:	0000605c 	andeq	r6, r0, ip, asr r0
    1380:	00008000 	andeq	r8, r0, r0
    1384:	f3000a00 	vpmax.u8	d0, d0, d0
    1388:	01f35201 	mvnseq	r5, r1, lsl #4
    138c:	01231c53 	teqeq	r3, r3, asr ip
    1390:	0000009f 	muleq	r0, pc, r0	; <UNPREDICTABLE>
    1394:	00000000 	andeq	r0, r0, r0
    1398:	00008000 	andeq	r8, r0, r0
    139c:	0000a400 	andeq	sl, r0, r0, lsl #8
    13a0:	50000100 	andpl	r0, r0, r0, lsl #2
    13a4:	000000a4 	andeq	r0, r0, r4, lsr #1
    13a8:	00000118 	andeq	r0, r0, r8, lsl r1
    13ac:	02700003 	rsbseq	r0, r0, #3
    13b0:	0001189f 	muleq	r1, pc, r8	; <UNPREDICTABLE>
    13b4:	00021c00 	andeq	r1, r2, r0, lsl #24
    13b8:	f3000400 	vshl.u8	d0, d0, d0
    13bc:	009f5001 	addseq	r5, pc, r1
    13c0:	00000000 	andeq	r0, r0, r0
    13c4:	80000000 	andhi	r0, r0, r0
    13c8:	f0000000 			; <UNDEFINED> instruction: 0xf0000000
    13cc:	01000000 	mrseq	r0, (UNDEF: 0)
    13d0:	00f05100 	rscseq	r5, r0, r0, lsl #2
    13d4:	01600000 	cmneq	r0, r0
    13d8:	00010000 	andeq	r0, r1, r0
    13dc:	00016055 	andeq	r6, r1, r5, asr r0
    13e0:	00016800 	andeq	r6, r1, r0, lsl #16
    13e4:	51000100 	mrspl	r0, (UNDEF: 16)
    13e8:	00000168 	andeq	r0, r0, r8, ror #2
    13ec:	00000188 	andeq	r0, r0, r8, lsl #3
    13f0:	88550001 	ldmdahi	r5, {r0}^
    13f4:	9c000001 	stcls	0, cr0, [r0], {1}
    13f8:	01000001 	tsteq	r0, r1
    13fc:	019c5100 	orrseq	r5, ip, r0, lsl #2
    1400:	01bc0000 			; <UNDEFINED> instruction: 0x01bc0000
    1404:	00010000 	andeq	r0, r1, r0
    1408:	0001bc55 	andeq	fp, r1, r5, asr ip
    140c:	0001bf00 	andeq	fp, r1, r0, lsl #30
    1410:	51000100 	mrspl	r0, (UNDEF: 16)
    1414:	000001bf 			; <UNDEFINED> instruction: 0x000001bf
    1418:	00000200 	andeq	r0, r0, r0, lsl #4
    141c:	00550001 	subseq	r0, r5, r1
    1420:	1c000002 	stcne	0, cr0, [r0], {2}
    1424:	04000002 	streq	r0, [r0], #-2
    1428:	5101f300 	mrspl	pc, SP_irq	; <UNPREDICTABLE>
    142c:	0000009f 	muleq	r0, pc, r0	; <UNPREDICTABLE>
    1430:	00000000 	andeq	r0, r0, r0
    1434:	00008000 	andeq	r8, r0, r0
    1438:	00009400 	andeq	r9, r0, r0, lsl #8
    143c:	52000100 	andpl	r0, r0, #0, 2
    1440:	00000094 	muleq	r0, r4, r0
    1444:	00000200 	andeq	r0, r0, r0, lsl #4
    1448:	00540001 	subseq	r0, r4, r1
    144c:	1c000002 	stcne	0, cr0, [r0], {2}
    1450:	04000002 	streq	r0, [r0], #-2
    1454:	5201f300 	andpl	pc, r1, #0, 6
    1458:	0000009f 	muleq	r0, pc, r0	; <UNPREDICTABLE>
    145c:	00000000 	andeq	r0, r0, r0
    1460:	00008000 	andeq	r8, r0, r0
    1464:	00010000 	andeq	r0, r1, r0
    1468:	53000100 	movwpl	r0, #256	; 0x100
    146c:	00000104 	andeq	r0, r0, r4, lsl #2
    1470:	00000108 	andeq	r0, r0, r8, lsl #2
    1474:	60530001 	subsvs	r0, r3, r1
    1478:	68000001 	stmdavs	r0, {r0}
    147c:	01000001 	tsteq	r0, r1
    1480:	01685300 	cmneq	r8, r0, lsl #6
    1484:	01880000 	orreq	r0, r8, r0
    1488:	00040000 	andeq	r0, r4, r0
    148c:	9f5301f3 	svcls	0x005301f3
    1490:	00000188 	andeq	r0, r0, r8, lsl #3
    1494:	00000190 	muleq	r0, r0, r1
    1498:	90530001 	subsls	r0, r3, r1
    149c:	94000001 	strls	r0, [r0], #-1
    14a0:	01000001 	tsteq	r0, r1
    14a4:	01945c00 	orrseq	r5, r4, r0, lsl #24
    14a8:	019c0000 	orrseq	r0, ip, r0
    14ac:	00010000 	andeq	r0, r1, r0
    14b0:	00019c53 	andeq	r9, r1, r3, asr ip
    14b4:	0001bc00 	andeq	fp, r1, r0, lsl #24
    14b8:	f3000400 	vshl.u8	d0, d0, d0
    14bc:	bc9f5301 	ldclt	3, cr5, [pc], {1}
    14c0:	bf000001 	svclt	0x00000001
    14c4:	01000001 	tsteq	r0, r1
    14c8:	01bf5300 			; <UNDEFINED> instruction: 0x01bf5300
    14cc:	01d80000 	bicseq	r0, r8, r0
    14d0:	00040000 	andeq	r0, r4, r0
    14d4:	9f5301f3 	svcls	0x005301f3
	...
    14e0:	00000080 	andeq	r0, r0, r0, lsl #1
    14e4:	0000009c 	muleq	r0, ip, r0
    14e8:	00910002 	addseq	r0, r1, r2
    14ec:	0000009c 	muleq	r0, ip, r0
    14f0:	000001bf 			; <UNDEFINED> instruction: 0x000001bf
    14f4:	d8520001 	ldmdale	r2, {r0}^
    14f8:	e3000001 	movw	r0, #1
    14fc:	01000001 	tsteq	r0, r1
    1500:	00005200 	andeq	r5, r0, r0, lsl #4
    1504:	00000000 	andeq	r0, r0, r0
    1508:	009c0000 	addseq	r0, ip, r0
    150c:	01180000 	tsteq	r8, r0
    1510:	00010000 	andeq	r0, r1, r0
    1514:	0001185d 	andeq	r1, r1, sp, asr r8
    1518:	00011c00 	andeq	r1, r1, r0, lsl #24
    151c:	53000100 	movwpl	r0, #256	; 0x100
    1520:	0000011c 	andeq	r0, r0, ip, lsl r1
    1524:	00000120 	andeq	r0, r0, r0, lsr #2
    1528:	20510001 	subscs	r0, r1, r1
    152c:	60000001 	andvs	r0, r0, r1
    1530:	01000001 	tsteq	r0, r1
    1534:	01605300 	cmneq	r0, r0, lsl #6
    1538:	01680000 	cmneq	r8, r0
    153c:	00010000 	andeq	r0, r1, r0
    1540:	0001685d 	andeq	r6, r1, sp, asr r8
    1544:	00016c00 	andeq	r6, r1, r0, lsl #24
    1548:	5e000100 	adfpls	f0, f0, f0
    154c:	0000016c 	andeq	r0, r0, ip, ror #2
    1550:	00000188 	andeq	r0, r0, r8, lsl #3
    1554:	88530001 	ldmdahi	r3, {r0}^
    1558:	90000001 	andls	r0, r0, r1
    155c:	04000001 	streq	r0, [r0], #-1
    1560:	7fa19100 	svcvc	0x00a19100
    1564:	0001909f 	muleq	r1, pc, r0	; <UNPREDICTABLE>
    1568:	00019400 	andeq	r9, r1, r0, lsl #8
    156c:	53000100 	movwpl	r0, #256	; 0x100
    1570:	00000194 	muleq	r0, r4, r1
    1574:	0000019c 	muleq	r0, ip, r1
    1578:	9c5d0001 	mrrcls	0, 0, r0, sp, cr1
    157c:	a0000001 	andge	r0, r0, r1
    1580:	01000001 	tsteq	r0, r1
    1584:	01a05e00 	lsleq	r5, r0, #28
    1588:	01bc0000 			; <UNDEFINED> instruction: 0x01bc0000
    158c:	00010000 	andeq	r0, r1, r0
    1590:	0001bc53 	andeq	fp, r1, r3, asr ip
    1594:	0001d800 	andeq	sp, r1, r0, lsl #16
    1598:	5d000100 	stfpls	f0, [r0, #-0]
    159c:	000001d8 	ldrdeq	r0, [r0], -r8
    15a0:	000001e3 	andeq	r0, r0, r3, ror #3
    15a4:	00530001 	subseq	r0, r3, r1
    15a8:	00000000 	andeq	r0, r0, r0
    15ac:	a0000000 	andge	r0, r0, r0
    15b0:	ec000000 	stc	0, cr0, [r0], {-0}
    15b4:	01000000 	mrseq	r0, (UNDEF: 0)
    15b8:	00ec5c00 	rsceq	r5, ip, r0, lsl #24
    15bc:	01000000 	mrseq	r0, (UNDEF: 0)
    15c0:	00010000 	andeq	r0, r1, r0
    15c4:	00010053 	andeq	r0, r1, r3, asr r0
    15c8:	00010400 	andeq	r0, r1, r0, lsl #8
    15cc:	5c000100 	stfpls	f0, [r0], {-0}
    15d0:	00000104 	andeq	r0, r0, r4, lsl #2
    15d4:	00000108 	andeq	r0, r0, r8, lsl #2
    15d8:	08530001 	ldmdaeq	r3, {r0}^
    15dc:	18000001 	stmdane	r0, {r0}
    15e0:	01000001 	tsteq	r0, r1
    15e4:	01185c00 	tsteq	r8, r0, lsl #24
    15e8:	011c0000 	tsteq	ip, r0
    15ec:	00010000 	andeq	r0, r1, r0
    15f0:	00011c50 	andeq	r1, r1, r0, asr ip
    15f4:	00013c00 	andeq	r3, r1, r0, lsl #24
    15f8:	5c000100 	stfpls	f0, [r0], {-0}
    15fc:	00000144 	andeq	r0, r0, r4, asr #2
    1600:	00000158 	andeq	r0, r0, r8, asr r1
    1604:	58500001 	ldmdapl	r0, {r0}^
    1608:	60000001 	andvs	r0, r0, r1
    160c:	01000001 	tsteq	r0, r1
    1610:	01605c00 	cmneq	r0, r0, lsl #24
    1614:	01680000 	cmneq	r8, r0
    1618:	00010000 	andeq	r0, r1, r0
    161c:	00016853 	andeq	r6, r1, r3, asr r8
    1620:	00017800 	andeq	r7, r1, r0, lsl #16
    1624:	5c000100 	stfpls	f0, [r0], {-0}
    1628:	00000178 	andeq	r0, r0, r8, ror r1
    162c:	00000180 	andeq	r0, r0, r0, lsl #3
    1630:	007c0005 	rsbseq	r0, ip, r5
    1634:	809f2534 	addshi	r2, pc, r4, lsr r5	; <UNPREDICTABLE>
    1638:	88000001 	stmdahi	r0, {r0}
    163c:	01000001 	tsteq	r0, r1
    1640:	01885c00 	orreq	r5, r8, r0, lsl #24
    1644:	01900000 	orrseq	r0, r0, r0
    1648:	00010000 	andeq	r0, r1, r0
    164c:	00019053 	andeq	r9, r1, r3, asr r0
    1650:	00019400 	andeq	r9, r1, r0, lsl #8
    1654:	5c000100 	stfpls	f0, [r0], {-0}
    1658:	00000194 	muleq	r0, r4, r1
    165c:	0000019c 	muleq	r0, ip, r1
    1660:	9c530001 	mrrcls	0, 0, r0, r3, cr1
    1664:	ac000001 	stcge	0, cr0, [r0], {1}
    1668:	01000001 	tsteq	r0, r1
    166c:	01ac5c00 			; <UNDEFINED> instruction: 0x01ac5c00
    1670:	01b40000 			; <UNDEFINED> instruction: 0x01b40000
    1674:	00050000 	andeq	r0, r5, r0
    1678:	2531007c 	ldrcs	r0, [r1, #-124]!	; 0x7c
    167c:	0001b49f 	muleq	r1, pc, r4	; <UNPREDICTABLE>
    1680:	0001bc00 	andeq	fp, r1, r0, lsl #24
    1684:	5c000100 	stfpls	f0, [r0], {-0}
    1688:	000001bc 			; <UNDEFINED> instruction: 0x000001bc
    168c:	000001bf 			; <UNDEFINED> instruction: 0x000001bf
    1690:	bf530001 	svclt	0x00530001
    1694:	d8000001 	stmdale	r0, {r0}
    1698:	04000001 	streq	r0, [r0], #-1
    169c:	5301f300 	movwpl	pc, #4864	; 0x1300	; <UNPREDICTABLE>
    16a0:	0001d89f 	muleq	r1, pc, r8	; <UNPREDICTABLE>
    16a4:	0001e300 	andeq	lr, r1, r0, lsl #6
    16a8:	5c000100 	stfpls	f0, [r0], {-0}
	...
    16b4:	000000ec 	andeq	r0, r0, ip, ror #1
    16b8:	000000fc 	strdeq	r0, [r0], -ip
    16bc:	9f300002 	svcls	0x00300002
    16c0:	000000fc 	strdeq	r0, [r0], -ip
    16c4:	00000104 	andeq	r0, r0, r4, lsl #2
    16c8:	9f310002 	svcls	0x00310002
    16cc:	00000104 	andeq	r0, r0, r4, lsl #2
    16d0:	00000108 	andeq	r0, r0, r8, lsl #2
    16d4:	9f300002 	svcls	0x00300002
	...
    16e0:	0000021c 	andeq	r0, r0, ip, lsl r2
    16e4:	0000022b 	andeq	r0, r0, fp, lsr #4
    16e8:	2b500001 	blcs	14016f4 <__bss_end__+0x13f5a0c>
    16ec:	44000002 	strmi	r0, [r0], #-2
    16f0:	04000002 	streq	r0, [r0], #-2
    16f4:	5001f300 	andpl	pc, r1, r0, lsl #6
    16f8:	0002449f 	muleq	r2, pc, r4	; <UNPREDICTABLE>
    16fc:	00027000 	andeq	r7, r2, r0
    1700:	50000100 	andpl	r0, r0, r0, lsl #2
	...
    170c:	0000021c 	andeq	r0, r0, ip, lsl r2
    1710:	0000022b 	andeq	r0, r0, fp, lsr #4
    1714:	2b510001 	blcs	1441720 <__bss_end__+0x1435a38>
    1718:	44000002 	strmi	r0, [r0], #-2
    171c:	04000002 	streq	r0, [r0], #-2
    1720:	5101f300 	mrspl	pc, SP_irq	; <UNPREDICTABLE>
    1724:	0002449f 	muleq	r2, pc, r4	; <UNPREDICTABLE>
    1728:	00027000 	andeq	r7, r2, r0
    172c:	51000100 	mrspl	r0, (UNDEF: 16)
	...
    1738:	00000270 	andeq	r0, r0, r0, ror r2
    173c:	0000029c 	muleq	r0, ip, r2
    1740:	9c500001 	mrrcls	0, 0, r0, r0, cr1	; <UNPREDICTABLE>
    1744:	e4000002 	str	r0, [r0], #-2
    1748:	01000004 	tsteq	r0, r4
    174c:	04e45a00 	strbteq	r5, [r4], #2560	; 0xa00
    1750:	04f80000 	ldrbteq	r0, [r8], #0
    1754:	00040000 	andeq	r0, r4, r0
    1758:	9f5001f3 	svcls	0x005001f3
	...
    1764:	00000270 	andeq	r0, r0, r0, ror r2
    1768:	00000284 	andeq	r0, r0, r4, lsl #5
    176c:	84510001 	ldrbhi	r0, [r1], #-1
    1770:	9c000002 	stcls	0, cr0, [r0], {2}
    1774:	03000002 	movweq	r0, #2
    1778:	9f017100 	svcls	0x00017100
    177c:	0000029c 	muleq	r0, ip, r2
    1780:	000004f8 	strdeq	r0, [r0], -r8
    1784:	01f30004 	mvnseq	r0, r4
    1788:	00009f51 	andeq	r9, r0, r1, asr pc
    178c:	00000000 	andeq	r0, r0, r0
    1790:	02700000 	rsbseq	r0, r0, #0
    1794:	02a40000 	adceq	r0, r4, #0
    1798:	00010000 	andeq	r0, r1, r0
    179c:	0002a452 	andeq	sl, r2, r2, asr r4
    17a0:	0002cc00 	andeq	ip, r2, r0, lsl #24
    17a4:	52000100 	andpl	r0, r0, #0, 2
    17a8:	000002cc 	andeq	r0, r0, ip, asr #5
    17ac:	00000494 	muleq	r0, r4, r4
    17b0:	94560001 	ldrbls	r0, [r6], #-1
    17b4:	f8000004 			; <UNDEFINED> instruction: 0xf8000004
    17b8:	01000004 	tsteq	r0, r4
    17bc:	00005200 	andeq	r5, r0, r0, lsl #4
    17c0:	00000000 	andeq	r0, r0, r0
    17c4:	02700000 	rsbseq	r0, r0, #0
    17c8:	028c0000 	addeq	r0, ip, #0
    17cc:	00010000 	andeq	r0, r1, r0
    17d0:	00000053 	andeq	r0, r0, r3, asr r0
    17d4:	00000000 	andeq	r0, r0, r0
    17d8:	00028000 	andeq	r8, r2, r0
    17dc:	00029c00 	andeq	r9, r2, r0, lsl #24
    17e0:	50000100 	andpl	r0, r0, r0, lsl #2
    17e4:	0000029c 	muleq	r0, ip, r2
    17e8:	000002a0 	andeq	r0, r0, r0, lsr #5
    17ec:	a0540001 	subsge	r0, r4, r1
    17f0:	ac000002 	stcge	0, cr0, [r0], {2}
    17f4:	03000002 	movweq	r0, #2
    17f8:	9f017400 	svcls	0x00017400
    17fc:	000002ac 	andeq	r0, r0, ip, lsr #5
    1800:	000002b8 			; <UNDEFINED> instruction: 0x000002b8
    1804:	b8540001 	ldmdalt	r4, {r0}^
    1808:	c4000002 	strgt	r0, [r0], #-2
    180c:	03000002 	movweq	r0, #2
    1810:	9f017400 	svcls	0x00017400
    1814:	000002c4 	andeq	r0, r0, r4, asr #5
    1818:	00000498 	muleq	r0, r8, r4
    181c:	98540001 	ldmdals	r4, {r0}^
    1820:	a4000004 	strge	r0, [r0], #-4
    1824:	03000004 	movweq	r0, #4
    1828:	9f017400 	svcls	0x00017400
    182c:	000004a4 	andeq	r0, r0, r4, lsr #9
    1830:	000004d0 	ldrdeq	r0, [r0], -r0	; <UNPREDICTABLE>
    1834:	d0540001 	subsle	r0, r4, r1
    1838:	dc000004 	stcle	0, cr0, [r0], {4}
    183c:	01000004 	tsteq	r0, r4
    1840:	04dc5000 	ldrbeq	r5, [ip], #0
    1844:	04e40000 	strbteq	r0, [r4], #0
    1848:	00030000 	andeq	r0, r3, r0
    184c:	009f0174 	addseq	r0, pc, r4, ror r1	; <UNPREDICTABLE>
    1850:	00000000 	andeq	r0, r0, r0
    1854:	88000000 	stmdahi	r0, {}	; <UNPREDICTABLE>
    1858:	e4000002 	str	r0, [r0], #-2
    185c:	01000004 	tsteq	r0, r4
    1860:	04e45800 	strbteq	r5, [r4], #2048	; 0x800
    1864:	04f80000 	ldrbteq	r0, [r8], #0
    1868:	000a0000 	andeq	r0, sl, r0
    186c:	f35101f3 	vbsl	q8, <illegal reg q8.5>, <illegal reg q9.5>
    1870:	31225001 	teqcc	r2, r1
    1874:	00009f1c 	andeq	r9, r0, ip, lsl pc
    1878:	00000000 	andeq	r0, r0, r0
    187c:	03cc0000 	biceq	r0, ip, #0
    1880:	03d00000 	bicseq	r0, r0, #0
    1884:	00010000 	andeq	r0, r1, r0
    1888:	0003f050 	andeq	pc, r3, r0, asr r0	; <UNPREDICTABLE>
    188c:	0003f400 	andeq	pc, r3, r0, lsl #8
    1890:	50000100 	andpl	r0, r0, r0, lsl #2
    1894:	00000414 	andeq	r0, r0, r4, lsl r4
    1898:	00000418 	andeq	r0, r0, r8, lsl r4
    189c:	38500001 	ldmdacc	r0, {r0}^
    18a0:	3c000004 	stccc	0, cr0, [r0], {4}
    18a4:	01000004 	tsteq	r0, r4
    18a8:	04445000 	strbeq	r5, [r4], #-0
    18ac:	04480000 	strbeq	r0, [r8], #-0
    18b0:	00010000 	andeq	r0, r1, r0
    18b4:	00046850 	andeq	r6, r4, r0, asr r8
    18b8:	00046c00 	andeq	r6, r4, r0, lsl #24
    18bc:	50000100 	andpl	r0, r0, r0, lsl #2
    18c0:	00000490 	muleq	r0, r0, r4
    18c4:	000004b8 			; <UNDEFINED> instruction: 0x000004b8
    18c8:	00500001 	subseq	r0, r0, r1
    18cc:	00000000 	andeq	r0, r0, r0
    18d0:	cc000000 	stcgt	0, cr0, [r0], {-0}
    18d4:	d4000002 	strle	r0, [r0], #-2
    18d8:	02000002 	andeq	r0, r0, #2
    18dc:	d49f3000 	ldrle	r3, [pc], #0	; 18e4 <_start-0x671c>
    18e0:	d8000002 	stmdale	r0, {r1}
    18e4:	01000002 	tsteq	r0, r2
    18e8:	02e45700 	rsceq	r5, r4, #0, 14
    18ec:	04b80000 	ldrteq	r0, [r8], #0
    18f0:	00010000 	andeq	r0, r1, r0
    18f4:	00000057 	andeq	r0, r0, r7, asr r0
    18f8:	00000000 	andeq	r0, r0, r0
    18fc:	00001400 	andeq	r1, r0, r0, lsl #8
    1900:	00001c00 	andeq	r1, r0, r0, lsl #24
    1904:	73000300 	movwvc	r0, #768	; 0x300
    1908:	001c9f04 	andseq	r9, ip, r4, lsl #30
    190c:	00270000 	eoreq	r0, r7, r0
    1910:	00010000 	andeq	r0, r1, r0
    1914:	00000053 	andeq	r0, r0, r3, asr r0
    1918:	00000000 	andeq	r0, r0, r0
    191c:	009da400 	addseq	sl, sp, r0, lsl #8
    1920:	009da800 	addseq	sl, sp, r0, lsl #16
    1924:	30000200 	andcc	r0, r0, r0, lsl #4
    1928:	009da89f 	umullseq	sl, sp, pc, r8	; <UNPREDICTABLE>
    192c:	009dac00 	addseq	sl, sp, r0, lsl #24
    1930:	50000100 	andpl	r0, r0, r0, lsl #2
	...
    193c:	00009dbc 			; <UNDEFINED> instruction: 0x00009dbc
    1940:	00009dc0 	andeq	r9, r0, r0, asr #27
    1944:	9f300002 	svcls	0x00300002
    1948:	00009dc0 	andeq	r9, r0, r0, asr #27
    194c:	00009dc4 	andeq	r9, r0, r4, asr #27
    1950:	c8530001 	ldmdagt	r3, {r0}^
    1954:	d000009d 	mulle	r0, sp, r0
    1958:	0100009d 	swpeq	r0, sp, [r0]	; <UNPREDICTABLE>
    195c:	00005300 	andeq	r5, r0, r0, lsl #6
	...
    1968:	00040000 	andeq	r0, r4, r0
    196c:	00010000 	andeq	r0, r1, r0
    1970:	00000450 	andeq	r0, r0, r0, asr r4
    1974:	00000c00 	andeq	r0, r0, r0, lsl #24
    1978:	53000100 	movwpl	r0, #256	; 0x100
    197c:	0000000c 	andeq	r0, r0, ip
    1980:	00000010 	andeq	r0, r0, r0, lsl r0
    1984:	10500001 	subsne	r0, r0, r1
    1988:	1c000000 	stcne	0, cr0, [r0], {-0}
    198c:	01000000 	mrseq	r0, (UNDEF: 0)
    1990:	00005300 	andeq	r5, r0, r0, lsl #6
    1994:	00000000 	andeq	r0, r0, r0
    1998:	003c0000 	eorseq	r0, ip, r0
    199c:	00470000 	subeq	r0, r7, r0
    19a0:	00010000 	andeq	r0, r1, r0
    19a4:	00004750 	andeq	r4, r0, r0, asr r7
    19a8:	00006000 	andeq	r6, r0, r0
    19ac:	55000100 	strpl	r0, [r0, #-256]	; 0x100
	...
    19b8:	00000050 	andeq	r0, r0, r0, asr r0
    19bc:	00000054 	andeq	r0, r0, r4, asr r0
    19c0:	00500001 	subseq	r0, r0, r1
    19c4:	00000000 	andeq	r0, r0, r0
    19c8:	60000000 	andvs	r0, r0, r0
    19cc:	6c000000 	stcvs	0, cr0, [r0], {-0}
    19d0:	01000000 	mrseq	r0, (UNDEF: 0)
    19d4:	006c5000 	rsbeq	r5, ip, r0
    19d8:	00740000 	rsbseq	r0, r4, r0
    19dc:	00040000 	andeq	r0, r4, r0
    19e0:	9f5001f3 	svcls	0x005001f3
	...
    19ec:	00000074 	andeq	r0, r0, r4, ror r0
    19f0:	00000080 	andeq	r0, r0, r0, lsl #1
    19f4:	80500001 	subshi	r0, r0, r1
    19f8:	88000000 	stmdahi	r0, {}	; <UNPREDICTABLE>
    19fc:	04000000 	streq	r0, [r0], #-0
    1a00:	5001f300 	andpl	pc, r1, r0, lsl #6
    1a04:	0000009f 	muleq	r0, pc, r0	; <UNPREDICTABLE>
	...
    1a10:	00009000 	andeq	r9, r0, r0
    1a14:	50000100 	andpl	r0, r0, r0, lsl #2
    1a18:	00000090 	muleq	r0, r0, r0
    1a1c:	000000d4 	ldrdeq	r0, [r0], -r4
    1a20:	00540001 	subseq	r0, r4, r1
    1a24:	00000000 	andeq	r0, r0, r0
    1a28:	48000000 	stmdami	r0, {}	; <UNPREDICTABLE>
    1a2c:	4c000000 	stcmi	0, cr0, [r0], {-0}
    1a30:	01000000 	mrseq	r0, (UNDEF: 0)
    1a34:	00545500 	subseq	r5, r4, r0, lsl #10
    1a38:	00580000 	subseq	r0, r8, r0
    1a3c:	00010000 	andeq	r0, r1, r0
    1a40:	00006055 	andeq	r6, r0, r5, asr r0
    1a44:	00006400 	andeq	r6, r0, r0, lsl #8
    1a48:	55000100 	strpl	r0, [r0, #-256]	; 0x100
    1a4c:	0000006c 	andeq	r0, r0, ip, rrx
    1a50:	00000070 	andeq	r0, r0, r0, ror r0
    1a54:	78550001 	ldmdavc	r5, {r0}^
    1a58:	7c000000 	stcvc	0, cr0, [r0], {-0}
    1a5c:	01000000 	mrseq	r0, (UNDEF: 0)
    1a60:	00845500 	addeq	r5, r4, r0, lsl #10
    1a64:	00880000 	addeq	r0, r8, r0
    1a68:	00010000 	andeq	r0, r1, r0
    1a6c:	00008c55 	andeq	r8, r0, r5, asr ip
    1a70:	0000d400 	andeq	sp, r0, r0, lsl #8
    1a74:	55000100 	strpl	r0, [r0, #-256]	; 0x100
	...
    1a80:	0000001c 	andeq	r0, r0, ip, lsl r0
    1a84:	00000044 	andeq	r0, r0, r4, asr #32
    1a88:	44530001 	ldrbmi	r0, [r3], #-1
    1a8c:	4c000000 	stcmi	0, cr0, [r0], {-0}
    1a90:	1c000000 	stcne	0, cr0, [r0], {-0}
    1a94:	f7007000 			; <UNDEFINED> instruction: 0xf7007000
    1a98:	f425f72c 	vld1.8	{d15}, [r5 :128], ip
    1a9c:	cccd0825 	stclgt	8, cr0, [sp], {37}	; 0x25
    1aa0:	0000cccc 	andeq	ip, r0, ip, asr #25
    1aa4:	081e0000 	ldmdaeq	lr, {}	; <UNPREDICTABLE>
    1aa8:	2525f720 	strcs	pc, [r5, #-1824]!	; 0x720
    1aac:	25332cf7 	ldrcs	r2, [r3, #-3319]!	; 0xcf7
    1ab0:	00004c9f 	muleq	r0, pc, ip	; <UNPREDICTABLE>
    1ab4:	00005000 	andeq	r5, r0, r0
    1ab8:	53000100 	movwpl	r0, #256	; 0x100
    1abc:	00000050 	andeq	r0, r0, r0, asr r0
    1ac0:	00000058 	andeq	r0, r0, r8, asr r0
    1ac4:	0070001c 	rsbseq	r0, r0, ip, lsl r0
    1ac8:	25f72cf7 	ldrbcs	r2, [r7, #3319]!	; 0xcf7
    1acc:	cd0825f4 	cfstr32gt	mvfx2, [r8, #-976]	; 0xfffffc30
    1ad0:	00cccccc 	sbceq	ip, ip, ip, asr #25
    1ad4:	1e000000 	cdpne	0, 0, cr0, cr0, cr0, {0}
    1ad8:	25f72008 	ldrbcs	r2, [r7, #8]!
    1adc:	332cf725 	msrcc	CPSR_fs, #9699328	; 0x940000
    1ae0:	00589f25 	subseq	r9, r8, r5, lsr #30
    1ae4:	005c0000 	subseq	r0, ip, r0
    1ae8:	00010000 	andeq	r0, r1, r0
    1aec:	00005c53 	andeq	r5, r0, r3, asr ip
    1af0:	00006400 	andeq	r6, r0, r0, lsl #8
    1af4:	70001c00 	andvc	r1, r0, r0, lsl #24
    1af8:	f72cf700 			; <UNDEFINED> instruction: 0xf72cf700
    1afc:	0825f425 	stmdaeq	r5!, {r0, r2, r5, sl, ip, sp, lr, pc}
    1b00:	cccccccd 	stclgt	12, cr12, [ip], {205}	; 0xcd
    1b04:	00000000 	andeq	r0, r0, r0
    1b08:	f720081e 			; <UNDEFINED> instruction: 0xf720081e
    1b0c:	2cf72525 	cfldr64cs	mvdx2, [r7], #148	; 0x94
    1b10:	649f2533 	ldrvs	r2, [pc], #1331	; 1b18 <_start-0x64e8>
    1b14:	68000000 	stmdavs	r0, {}	; <UNPREDICTABLE>
    1b18:	01000000 	mrseq	r0, (UNDEF: 0)
    1b1c:	00685300 	rsbeq	r5, r8, r0, lsl #6
    1b20:	00700000 	rsbseq	r0, r0, r0
    1b24:	001c0000 	andseq	r0, ip, r0
    1b28:	2cf70070 	ldclcs	0, cr0, [r7], #448	; 0x1c0
    1b2c:	25f425f7 	ldrbcs	r2, [r4, #1527]!	; 0x5f7
    1b30:	cccccd08 	stclgt	13, cr12, [ip], {8}
    1b34:	000000cc 	andeq	r0, r0, ip, asr #1
    1b38:	20081e00 	andcs	r1, r8, r0, lsl #28
    1b3c:	f72525f7 			; <UNDEFINED> instruction: 0xf72525f7
    1b40:	9f25332c 	svcls	0x0025332c
    1b44:	00000070 	andeq	r0, r0, r0, ror r0
    1b48:	00000074 	andeq	r0, r0, r4, ror r0
    1b4c:	74530001 	ldrbvc	r0, [r3], #-1
    1b50:	7c000000 	stcvc	0, cr0, [r0], {-0}
    1b54:	1c000000 	stcne	0, cr0, [r0], {-0}
    1b58:	f7007000 			; <UNDEFINED> instruction: 0xf7007000
    1b5c:	f425f72c 	vld1.8	{d15}, [r5 :128], ip
    1b60:	cccd0825 	stclgt	8, cr0, [sp], {37}	; 0x25
    1b64:	0000cccc 	andeq	ip, r0, ip, asr #25
    1b68:	081e0000 	ldmdaeq	lr, {}	; <UNPREDICTABLE>
    1b6c:	2525f720 	strcs	pc, [r5, #-1824]!	; 0x720
    1b70:	25332cf7 	ldrcs	r2, [r3, #-3319]!	; 0xcf7
    1b74:	00007c9f 	muleq	r0, pc, ip	; <UNPREDICTABLE>
    1b78:	00008000 	andeq	r8, r0, r0
    1b7c:	53000100 	movwpl	r0, #256	; 0x100
    1b80:	00000080 	andeq	r0, r0, r0, lsl #1
    1b84:	00000088 	andeq	r0, r0, r8, lsl #1
    1b88:	0070001c 	rsbseq	r0, r0, ip, lsl r0
    1b8c:	25f72cf7 	ldrbcs	r2, [r7, #3319]!	; 0xcf7
    1b90:	cd0825f4 	cfstr32gt	mvfx2, [r8, #-976]	; 0xfffffc30
    1b94:	00cccccc 	sbceq	ip, ip, ip, asr #25
    1b98:	1e000000 	cdpne	0, 0, cr0, cr0, cr0, {0}
    1b9c:	25f72008 	ldrbcs	r2, [r7, #8]!
    1ba0:	332cf725 	msrcc	CPSR_fs, #9699328	; 0x940000
    1ba4:	00889f25 	addeq	r9, r8, r5, lsr #30
    1ba8:	008c0000 	addeq	r0, ip, r0
    1bac:	00010000 	andeq	r0, r1, r0
    1bb0:	00008c53 	andeq	r8, r0, r3, asr ip
    1bb4:	00009000 	andeq	r9, r0, r0
    1bb8:	70001c00 	andvc	r1, r0, r0, lsl #24
    1bbc:	f72cf700 			; <UNDEFINED> instruction: 0xf72cf700
    1bc0:	0825f425 	stmdaeq	r5!, {r0, r2, r5, sl, ip, sp, lr, pc}
    1bc4:	cccccccd 	stclgt	12, cr12, [ip], {205}	; 0xcd
    1bc8:	00000000 	andeq	r0, r0, r0
    1bcc:	f720081e 			; <UNDEFINED> instruction: 0xf720081e
    1bd0:	2cf72525 	cfldr64cs	mvdx2, [r7], #148	; 0x94
    1bd4:	909f2533 	addsls	r2, pc, r3, lsr r5	; <UNPREDICTABLE>
    1bd8:	98000000 	stmdals	r0, {}	; <UNPREDICTABLE>
    1bdc:	1c000000 	stcne	0, cr0, [r0], {-0}
    1be0:	f7007400 			; <UNDEFINED> instruction: 0xf7007400
    1be4:	f425f72c 	vld1.8	{d15}, [r5 :128], ip
    1be8:	cccd0825 	stclgt	8, cr0, [sp], {37}	; 0x25
    1bec:	0000cccc 	andeq	ip, r0, ip, asr #25
    1bf0:	081e0000 	ldmdaeq	lr, {}	; <UNPREDICTABLE>
    1bf4:	2525f720 	strcs	pc, [r5, #-1824]!	; 0x720
    1bf8:	25332cf7 	ldrcs	r2, [r3, #-3319]!	; 0xcf7
    1bfc:	0000989f 	muleq	r0, pc, r8	; <UNPREDICTABLE>
    1c00:	00009c00 	andeq	r9, r0, r0, lsl #24
    1c04:	74001700 	strvc	r1, [r0], #-1792	; 0x700
    1c08:	f72cf700 			; <UNDEFINED> instruction: 0xf72cf700
    1c0c:	f7007125 			; <UNDEFINED> instruction: 0xf7007125
    1c10:	1e25f72c 	cdpne	7, 2, cr15, cr5, cr12, {1}
    1c14:	25f72008 	ldrbcs	r2, [r7, #8]!
    1c18:	332cf725 	msrcc	CPSR_fs, #9699328	; 0x940000
    1c1c:	009c9f25 	addseq	r9, ip, r5, lsr #30
    1c20:	00d40000 	sbcseq	r0, r4, r0
    1c24:	001c0000 	andseq	r0, ip, r0
    1c28:	2cf70074 	ldclcs	0, cr0, [r7], #464	; 0x1d0
    1c2c:	25f425f7 	ldrbcs	r2, [r4, #1527]!	; 0x5f7
    1c30:	cccccd08 	stclgt	13, cr12, [ip], {8}
    1c34:	000000cc 	andeq	r0, r0, ip, asr #1
    1c38:	20081e00 	andcs	r1, r8, r0, lsl #28
    1c3c:	f72525f7 			; <UNDEFINED> instruction: 0xf72525f7
    1c40:	9f25332c 	svcls	0x0025332c
	...
    1c4c:	00000094 	muleq	r0, r4, r0
    1c50:	000000b8 	strheq	r0, [r0], -r8
    1c54:	b8500001 	ldmdalt	r0, {r0}^
    1c58:	c4000000 	strgt	r0, [r0], #-0
    1c5c:	08000000 	stmdaeq	r0, {}	; <UNPREDICTABLE>
    1c60:	00713100 	rsbseq	r3, r1, r0, lsl #2
    1c64:	21007324 	tstcs	r0, r4, lsr #6
    1c68:	0000c49f 	muleq	r0, pc, r4	; <UNPREDICTABLE>
    1c6c:	0000c700 	andeq	ip, r0, r0, lsl #14
    1c70:	51000100 	mrspl	r0, (UNDEF: 16)
	...
    1c7c:	000000d4 	ldrdeq	r0, [r0], -r4
    1c80:	000000f8 	strdeq	r0, [r0], -r8
    1c84:	f8500001 			; <UNDEFINED> instruction: 0xf8500001
    1c88:	0c000000 	stceq	0, cr0, [r0], {-0}
    1c8c:	04000001 	streq	r0, [r0], #-1
    1c90:	5001f300 	andpl	pc, r1, r0, lsl #6
    1c94:	0000009f 	muleq	r0, pc, r0	; <UNPREDICTABLE>
    1c98:	00000000 	andeq	r0, r0, r0
    1c9c:	0000e000 	andeq	lr, r0, r0
    1ca0:	0000e800 	andeq	lr, r0, r0, lsl #16
    1ca4:	30000200 	andcc	r0, r0, r0, lsl #4
    1ca8:	0000e89f 	muleq	r0, pc, r8	; <UNPREDICTABLE>
    1cac:	0000e800 	andeq	lr, r0, r0, lsl #16
    1cb0:	52000100 	andpl	r0, r0, #0, 2
    1cb4:	000000e8 	andeq	r0, r0, r8, ror #1
    1cb8:	000000f0 	strdeq	r0, [r0], -r0	; <UNPREDICTABLE>
    1cbc:	9f300002 	svcls	0x00300002
    1cc0:	000000f0 	strdeq	r0, [r0], -r0	; <UNPREDICTABLE>
    1cc4:	00000103 	andeq	r0, r0, r3, lsl #2
    1cc8:	00520001 	subseq	r0, r2, r1
    1ccc:	00000000 	andeq	r0, r0, r0
    1cd0:	e0000000 	and	r0, r0, r0
    1cd4:	f4000000 	vst4.8	{d0-d3}, [r0], r0
    1cd8:	02000000 	andeq	r0, r0, #0
    1cdc:	f49f3000 			; <UNDEFINED> instruction: 0xf49f3000
    1ce0:	00000000 	andeq	r0, r0, r0
    1ce4:	05000001 	streq	r0, [r0, #-1]
    1ce8:	00733100 	rsbseq	r3, r3, r0, lsl #2
    1cec:	01009f24 	tsteq	r0, r4, lsr #30
    1cf0:	01030000 	mrseq	r0, (UNDEF: 3)
    1cf4:	00010000 	andeq	r0, r1, r0
    1cf8:	00010351 	andeq	r0, r1, r1, asr r3
    1cfc:	00010c00 	andeq	r0, r1, r0, lsl #24
    1d00:	31000800 	tstcc	r0, r0, lsl #16
    1d04:	4f5001f3 	svcmi	0x005001f3
    1d08:	009f241a 	addseq	r2, pc, sl, lsl r4	; <UNPREDICTABLE>
    1d0c:	00000000 	andeq	r0, r0, r0
    1d10:	0c000000 	stceq	0, cr0, [r0], {-0}
    1d14:	30000001 	andcc	r0, r0, r1
    1d18:	01000001 	tsteq	r0, r1
    1d1c:	01305000 	teqeq	r0, r0
    1d20:	01440000 	mrseq	r0, (UNDEF: 68)
    1d24:	00040000 	andeq	r0, r4, r0
    1d28:	9f5001f3 	svcls	0x005001f3
	...
    1d34:	00000118 	andeq	r0, r0, r8, lsl r1
    1d38:	00000120 	andeq	r0, r0, r0, lsr #2
    1d3c:	9f300002 	svcls	0x00300002
    1d40:	00000120 	andeq	r0, r0, r0, lsr #2
    1d44:	00000120 	andeq	r0, r0, r0, lsr #2
    1d48:	20520001 	subscs	r0, r2, r1
    1d4c:	28000001 	stmdacs	r0, {r0}
    1d50:	02000001 	andeq	r0, r0, #1
    1d54:	289f3000 	ldmcs	pc, {ip, sp}	; <UNPREDICTABLE>
    1d58:	3b000001 	blcc	1d64 <_start-0x629c>
    1d5c:	01000001 	tsteq	r0, r1
    1d60:	00005200 	andeq	r5, r0, r0, lsl #4
    1d64:	00000000 	andeq	r0, r0, r0
    1d68:	01180000 	tsteq	r8, r0
    1d6c:	012c0000 	teqeq	ip, r0
    1d70:	00020000 	andeq	r0, r2, r0
    1d74:	012c9f30 	teqeq	ip, r0, lsr pc
    1d78:	01380000 	teqeq	r8, r0
    1d7c:	00050000 	andeq	r0, r5, r0
    1d80:	24007331 	strcs	r7, [r0], #-817	; 0x331
    1d84:	0001389f 	muleq	r1, pc, r8	; <UNPREDICTABLE>
    1d88:	00013b00 	andeq	r3, r1, r0, lsl #22
    1d8c:	51000100 	mrspl	r0, (UNDEF: 16)
    1d90:	0000013b 	andeq	r0, r0, fp, lsr r1
    1d94:	00000144 	andeq	r0, r0, r4, asr #2
    1d98:	f3310008 	vhadd.u<illegal width 64>	d0, d1, d8
    1d9c:	1a4f5001 	bne	13d5da8 <__bss_end__+0x13ca0c0>
    1da0:	00009f24 	andeq	r9, r0, r4, lsr #30
    1da4:	00000000 	andeq	r0, r0, r0
    1da8:	01440000 	mrseq	r0, (UNDEF: 68)
    1dac:	01d40000 	bicseq	r0, r4, r0
    1db0:	00010000 	andeq	r0, r1, r0
    1db4:	0001d450 	andeq	sp, r1, r0, asr r4
    1db8:	00021000 	andeq	r1, r2, r0
    1dbc:	54000100 	strpl	r0, [r0], #-256	; 0x100
	...
    1dc8:	0000018c 	andeq	r0, r0, ip, lsl #3
    1dcc:	00000190 	muleq	r0, r0, r1
    1dd0:	98550001 	ldmdals	r5, {r0}^
    1dd4:	9c000001 	stcls	0, cr0, [r0], {1}
    1dd8:	01000001 	tsteq	r0, r1
    1ddc:	01a45500 			; <UNDEFINED> instruction: 0x01a45500
    1de0:	01a80000 			; <UNDEFINED> instruction: 0x01a80000
    1de4:	00010000 	andeq	r0, r1, r0
    1de8:	0001b055 	andeq	fp, r1, r5, asr r0
    1dec:	0001b400 	andeq	fp, r1, r0, lsl #8
    1df0:	55000100 	strpl	r0, [r0, #-256]	; 0x100
    1df4:	000001bc 			; <UNDEFINED> instruction: 0x000001bc
    1df8:	000001c0 	andeq	r0, r0, r0, asr #3
    1dfc:	c8550001 	ldmdagt	r5, {r0}^
    1e00:	cc000001 	stcgt	0, cr0, [r0], {1}
    1e04:	01000001 	tsteq	r0, r1
    1e08:	01d05500 	bicseq	r5, r0, r0, lsl #10
    1e0c:	02100000 	andseq	r0, r0, #0
    1e10:	00010000 	andeq	r0, r1, r0
    1e14:	00000055 	andeq	r0, r0, r5, asr r0
    1e18:	00000000 	andeq	r0, r0, r0
    1e1c:	00016000 	andeq	r6, r1, r0
    1e20:	00018800 	andeq	r8, r1, r0, lsl #16
    1e24:	53000100 	movwpl	r0, #256	; 0x100
    1e28:	00000188 	andeq	r0, r0, r8, lsl #3
    1e2c:	00000190 	muleq	r0, r0, r1
    1e30:	0070001c 	rsbseq	r0, r0, ip, lsl r0
    1e34:	25f72cf7 	ldrbcs	r2, [r7, #3319]!	; 0xcf7
    1e38:	cd0825f4 	cfstr32gt	mvfx2, [r8, #-976]	; 0xfffffc30
    1e3c:	00cccccc 	sbceq	ip, ip, ip, asr #25
    1e40:	1e000000 	cdpne	0, 0, cr0, cr0, cr0, {0}
    1e44:	25f72008 	ldrbcs	r2, [r7, #8]!
    1e48:	332cf725 	msrcc	CPSR_fs, #9699328	; 0x940000
    1e4c:	01909f25 	orrseq	r9, r0, r5, lsr #30
    1e50:	01940000 	orrseq	r0, r4, r0
    1e54:	00010000 	andeq	r0, r1, r0
    1e58:	00019453 	andeq	r9, r1, r3, asr r4
    1e5c:	00019c00 	andeq	r9, r1, r0, lsl #24
    1e60:	70001c00 	andvc	r1, r0, r0, lsl #24
    1e64:	f72cf700 			; <UNDEFINED> instruction: 0xf72cf700
    1e68:	0825f425 	stmdaeq	r5!, {r0, r2, r5, sl, ip, sp, lr, pc}
    1e6c:	cccccccd 	stclgt	12, cr12, [ip], {205}	; 0xcd
    1e70:	00000000 	andeq	r0, r0, r0
    1e74:	f720081e 			; <UNDEFINED> instruction: 0xf720081e
    1e78:	2cf72525 	cfldr64cs	mvdx2, [r7], #148	; 0x94
    1e7c:	9c9f2533 	cfldr32ls	mvfx2, [pc], {51}	; 0x33
    1e80:	a0000001 	andge	r0, r0, r1
    1e84:	01000001 	tsteq	r0, r1
    1e88:	01a05300 	lsleq	r5, r0, #6
    1e8c:	01a80000 			; <UNDEFINED> instruction: 0x01a80000
    1e90:	001c0000 	andseq	r0, ip, r0
    1e94:	2cf70070 	ldclcs	0, cr0, [r7], #448	; 0x1c0
    1e98:	25f425f7 	ldrbcs	r2, [r4, #1527]!	; 0x5f7
    1e9c:	cccccd08 	stclgt	13, cr12, [ip], {8}
    1ea0:	000000cc 	andeq	r0, r0, ip, asr #1
    1ea4:	20081e00 	andcs	r1, r8, r0, lsl #28
    1ea8:	f72525f7 			; <UNDEFINED> instruction: 0xf72525f7
    1eac:	9f25332c 	svcls	0x0025332c
    1eb0:	000001a8 	andeq	r0, r0, r8, lsr #3
    1eb4:	000001ac 	andeq	r0, r0, ip, lsr #3
    1eb8:	ac530001 	mrrcge	0, 0, r0, r3, cr1
    1ebc:	b4000001 	strlt	r0, [r0], #-1
    1ec0:	1c000001 	stcne	0, cr0, [r0], {1}
    1ec4:	f7007000 			; <UNDEFINED> instruction: 0xf7007000
    1ec8:	f425f72c 	vld1.8	{d15}, [r5 :128], ip
    1ecc:	cccd0825 	stclgt	8, cr0, [sp], {37}	; 0x25
    1ed0:	0000cccc 	andeq	ip, r0, ip, asr #25
    1ed4:	081e0000 	ldmdaeq	lr, {}	; <UNPREDICTABLE>
    1ed8:	2525f720 	strcs	pc, [r5, #-1824]!	; 0x720
    1edc:	25332cf7 	ldrcs	r2, [r3, #-3319]!	; 0xcf7
    1ee0:	0001b49f 	muleq	r1, pc, r4	; <UNPREDICTABLE>
    1ee4:	0001b800 	andeq	fp, r1, r0, lsl #16
    1ee8:	53000100 	movwpl	r0, #256	; 0x100
    1eec:	000001b8 			; <UNDEFINED> instruction: 0x000001b8
    1ef0:	000001c0 	andeq	r0, r0, r0, asr #3
    1ef4:	0070001c 	rsbseq	r0, r0, ip, lsl r0
    1ef8:	25f72cf7 	ldrbcs	r2, [r7, #3319]!	; 0xcf7
    1efc:	cd0825f4 	cfstr32gt	mvfx2, [r8, #-976]	; 0xfffffc30
    1f00:	00cccccc 	sbceq	ip, ip, ip, asr #25
    1f04:	1e000000 	cdpne	0, 0, cr0, cr0, cr0, {0}
    1f08:	25f72008 	ldrbcs	r2, [r7, #8]!
    1f0c:	332cf725 	msrcc	CPSR_fs, #9699328	; 0x940000
    1f10:	01c09f25 	biceq	r9, r0, r5, lsr #30
    1f14:	01c40000 	biceq	r0, r4, r0
    1f18:	00010000 	andeq	r0, r1, r0
    1f1c:	0001c453 	andeq	ip, r1, r3, asr r4
    1f20:	0001cc00 	andeq	ip, r1, r0, lsl #24
    1f24:	70001c00 	andvc	r1, r0, r0, lsl #24
    1f28:	f72cf700 			; <UNDEFINED> instruction: 0xf72cf700
    1f2c:	0825f425 	stmdaeq	r5!, {r0, r2, r5, sl, ip, sp, lr, pc}
    1f30:	cccccccd 	stclgt	12, cr12, [ip], {205}	; 0xcd
    1f34:	00000000 	andeq	r0, r0, r0
    1f38:	f720081e 			; <UNDEFINED> instruction: 0xf720081e
    1f3c:	2cf72525 	cfldr64cs	mvdx2, [r7], #148	; 0x94
    1f40:	cc9f2533 	cfldr32gt	mvfx2, [pc], {51}	; 0x33
    1f44:	d0000001 	andle	r0, r0, r1
    1f48:	01000001 	tsteq	r0, r1
    1f4c:	01d05300 	bicseq	r5, r0, r0, lsl #6
    1f50:	01d40000 	bicseq	r0, r4, r0
    1f54:	001c0000 	andseq	r0, ip, r0
    1f58:	2cf70070 	ldclcs	0, cr0, [r7], #448	; 0x1c0
    1f5c:	25f425f7 	ldrbcs	r2, [r4, #1527]!	; 0x5f7
    1f60:	cccccd08 	stclgt	13, cr12, [ip], {8}
    1f64:	000000cc 	andeq	r0, r0, ip, asr #1
    1f68:	20081e00 	andcs	r1, r8, r0, lsl #28
    1f6c:	f72525f7 			; <UNDEFINED> instruction: 0xf72525f7
    1f70:	9f25332c 	svcls	0x0025332c
    1f74:	000001d4 	ldrdeq	r0, [r0], -r4
    1f78:	000001dc 	ldrdeq	r0, [r0], -ip
    1f7c:	0074001c 	rsbseq	r0, r4, ip, lsl r0
    1f80:	25f72cf7 	ldrbcs	r2, [r7, #3319]!	; 0xcf7
    1f84:	cd0825f4 	cfstr32gt	mvfx2, [r8, #-976]	; 0xfffffc30
    1f88:	00cccccc 	sbceq	ip, ip, ip, asr #25
    1f8c:	1e000000 	cdpne	0, 0, cr0, cr0, cr0, {0}
    1f90:	25f72008 	ldrbcs	r2, [r7, #8]!
    1f94:	332cf725 	msrcc	CPSR_fs, #9699328	; 0x940000
    1f98:	01dc9f25 	bicseq	r9, ip, r5, lsr #30
    1f9c:	01e00000 	mvneq	r0, r0
    1fa0:	00170000 	andseq	r0, r7, r0
    1fa4:	2cf70074 	ldclcs	0, cr0, [r7], #464	; 0x1d0
    1fa8:	007125f7 	ldrshteq	r2, [r1], #-87	; 0xffffffa9
    1fac:	25f72cf7 	ldrbcs	r2, [r7, #3319]!	; 0xcf7
    1fb0:	f720081e 			; <UNDEFINED> instruction: 0xf720081e
    1fb4:	2cf72525 	cfldr64cs	mvdx2, [r7], #148	; 0x94
    1fb8:	e09f2533 	adds	r2, pc, r3, lsr r5	; <UNPREDICTABLE>
    1fbc:	10000001 	andne	r0, r0, r1
    1fc0:	1c000002 	stcne	0, cr0, [r0], {2}
    1fc4:	f7007400 			; <UNDEFINED> instruction: 0xf7007400
    1fc8:	f425f72c 	vld1.8	{d15}, [r5 :128], ip
    1fcc:	cccd0825 	stclgt	8, cr0, [sp], {37}	; 0x25
    1fd0:	0000cccc 	andeq	ip, r0, ip, asr #25
    1fd4:	081e0000 	ldmdaeq	lr, {}	; <UNPREDICTABLE>
    1fd8:	2525f720 	strcs	pc, [r5, #-1824]!	; 0x720
    1fdc:	25332cf7 	ldrcs	r2, [r3, #-3319]!	; 0xcf7
    1fe0:	0000009f 	muleq	r0, pc, r0	; <UNPREDICTABLE>
    1fe4:	00000000 	andeq	r0, r0, r0
    1fe8:	0001d800 	andeq	sp, r1, r0, lsl #16
    1fec:	0001fc00 	andeq	pc, r1, r0, lsl #24
    1ff0:	50000100 	andpl	r0, r0, r0, lsl #2
    1ff4:	000001fc 	strdeq	r0, [r0], -ip
    1ff8:	00000203 	andeq	r0, r0, r3, lsl #4
    1ffc:	00510001 	subseq	r0, r1, r1
    2000:	00000000 	andeq	r0, r0, r0
    2004:	10000000 	andne	r0, r0, r0
    2008:	2c000002 	stccs	0, cr0, [r0], {2}
    200c:	01000002 	tsteq	r0, r2
    2010:	022c5000 	eoreq	r5, ip, #0
    2014:	02340000 	eorseq	r0, r4, #0
    2018:	00010000 	andeq	r0, r1, r0
    201c:	00023454 	andeq	r3, r2, r4, asr r4
    2020:	00023c00 	andeq	r3, r2, r0, lsl #24
    2024:	50000100 	andpl	r0, r0, r0, lsl #2
    2028:	0000023c 	andeq	r0, r0, ip, lsr r2
    202c:	00000244 	andeq	r0, r0, r4, asr #4
    2030:	44540001 	ldrbmi	r0, [r4], #-1
    2034:	50000002 	andpl	r0, r0, r2
    2038:	04000002 	streq	r0, [r0], #-2
    203c:	5001f300 	andpl	pc, r1, r0, lsl #6
    2040:	0002509f 	muleq	r2, pc, r0	; <UNPREDICTABLE>
    2044:	00025400 	andeq	r5, r2, r0, lsl #8
    2048:	50000100 	andpl	r0, r0, r0, lsl #2
    204c:	00000254 	andeq	r0, r0, r4, asr r2
    2050:	0000025c 	andeq	r0, r0, ip, asr r2
    2054:	00540001 	subseq	r0, r4, r1
    2058:	00000000 	andeq	r0, r0, r0
    205c:	20000000 	andcs	r0, r0, r0
    2060:	30000002 	andcc	r0, r0, r2
    2064:	02000002 	andeq	r0, r0, #2
    2068:	309f3000 	addscc	r3, pc, r0
    206c:	34000002 	strcc	r0, [r0], #-2
    2070:	01000002 	tsteq	r0, r2
    2074:	02345000 	eorseq	r5, r4, #0
    2078:	02400000 	subeq	r0, r0, #0
    207c:	00020000 	andeq	r0, r2, r0
    2080:	02409f30 	subeq	r9, r0, #48, 30	; 0xc0
    2084:	024c0000 	subeq	r0, ip, #0
    2088:	00010000 	andeq	r0, r1, r0
    208c:	00000050 	andeq	r0, r0, r0, asr r0
    2090:	00000000 	andeq	r0, r0, r0
    2094:	00025c00 	andeq	r5, r2, r0, lsl #24
    2098:	00027300 	andeq	r7, r2, r0, lsl #6
    209c:	50000100 	andpl	r0, r0, r0, lsl #2
    20a0:	00000273 	andeq	r0, r0, r3, ror r2
    20a4:	00000278 	andeq	r0, r0, r8, ror r2
    20a8:	01f30004 	mvnseq	r0, r4
    20ac:	02789f50 	rsbseq	r9, r8, #80, 30	; 0x140
    20b0:	027b0000 	rsbseq	r0, fp, #0
    20b4:	00010000 	andeq	r0, r1, r0
    20b8:	00027b50 	andeq	r7, r2, r0, asr fp
    20bc:	00028000 	andeq	r8, r2, r0
    20c0:	f3000400 	vshl.u8	d0, d0, d0
    20c4:	009f5001 	addseq	r5, pc, r1
    20c8:	00000000 	andeq	r0, r0, r0
    20cc:	5c000000 	stcpl	0, cr0, [r0], {-0}
    20d0:	73000002 	movwvc	r0, #2
    20d4:	01000002 	tsteq	r0, r2
    20d8:	02735100 	rsbseq	r5, r3, #0, 2
    20dc:	02780000 	rsbseq	r0, r8, #0
    20e0:	00040000 	andeq	r0, r4, r0
    20e4:	9f5101f3 	svcls	0x005101f3
    20e8:	00000278 	andeq	r0, r0, r8, ror r2
    20ec:	0000027b 	andeq	r0, r0, fp, ror r2
    20f0:	7b510001 	blvc	14420fc <__bss_end__+0x1436414>
    20f4:	80000002 	andhi	r0, r0, r2
    20f8:	04000002 	streq	r0, [r0], #-2
    20fc:	5101f300 	mrspl	pc, SP_irq	; <UNPREDICTABLE>
    2100:	0000009f 	muleq	r0, pc, r0	; <UNPREDICTABLE>
    2104:	00000000 	andeq	r0, r0, r0
    2108:	00028000 	andeq	r8, r2, r0
    210c:	00031800 	andeq	r1, r3, r0, lsl #16
    2110:	50000100 	andpl	r0, r0, r0, lsl #2
    2114:	00000318 	andeq	r0, r0, r8, lsl r3
    2118:	00000358 	andeq	r0, r0, r8, asr r3
    211c:	00540001 	subseq	r0, r4, r1
    2120:	00000000 	andeq	r0, r0, r0
    2124:	80000000 	andhi	r0, r0, r0
    2128:	1b000002 	blne	2138 <_start-0x5ec8>
    212c:	01000003 	tsteq	r0, r3
    2130:	031b5100 	tsteq	fp, #0, 2
    2134:	03580000 	cmpeq	r8, #0
    2138:	00040000 	andeq	r0, r4, r0
    213c:	9f5101f3 	svcls	0x005101f3
	...
    2148:	000002d0 	ldrdeq	r0, [r0], -r0	; <UNPREDICTABLE>
    214c:	000002d4 	ldrdeq	r0, [r0], -r4
    2150:	dc560001 	mrrcle	0, 0, r0, r6, cr1
    2154:	e0000002 	and	r0, r0, r2
    2158:	01000002 	tsteq	r0, r2
    215c:	02e85600 	rsceq	r5, r8, #0, 12
    2160:	02ec0000 	rsceq	r0, ip, #0
    2164:	00010000 	andeq	r0, r1, r0
    2168:	0002f456 	andeq	pc, r2, r6, asr r4	; <UNPREDICTABLE>
    216c:	0002f800 	andeq	pc, r2, r0, lsl #16
    2170:	56000100 	strpl	r0, [r0], -r0, lsl #2
    2174:	00000300 	andeq	r0, r0, r0, lsl #6
    2178:	00000304 	andeq	r0, r0, r4, lsl #6
    217c:	0c560001 	mrrceq	0, 0, r0, r6, cr1
    2180:	10000003 	andne	r0, r0, r3
    2184:	01000003 	tsteq	r0, r3
    2188:	03145600 	tsteq	r4, #0, 12
    218c:	03580000 	cmpeq	r8, #0
    2190:	00010000 	andeq	r0, r1, r0
    2194:	00000056 	andeq	r0, r0, r6, asr r0
    2198:	00000000 	andeq	r0, r0, r0
    219c:	0002a400 	andeq	sl, r2, r0, lsl #8
    21a0:	0002cc00 	andeq	ip, r2, r0, lsl #24
    21a4:	53000100 	movwpl	r0, #256	; 0x100
    21a8:	000002cc 	andeq	r0, r0, ip, asr #5
    21ac:	000002d4 	ldrdeq	r0, [r0], -r4
    21b0:	0070001c 	rsbseq	r0, r0, ip, lsl r0
    21b4:	25f72cf7 	ldrbcs	r2, [r7, #3319]!	; 0xcf7
    21b8:	cd0825f4 	cfstr32gt	mvfx2, [r8, #-976]	; 0xfffffc30
    21bc:	00cccccc 	sbceq	ip, ip, ip, asr #25
    21c0:	1e000000 	cdpne	0, 0, cr0, cr0, cr0, {0}
    21c4:	25f72008 	ldrbcs	r2, [r7, #8]!
    21c8:	332cf725 	msrcc	CPSR_fs, #9699328	; 0x940000
    21cc:	02d49f25 	sbcseq	r9, r4, #37, 30	; 0x94
    21d0:	02d80000 	sbcseq	r0, r8, #0
    21d4:	00010000 	andeq	r0, r1, r0
    21d8:	0002d853 	andeq	sp, r2, r3, asr r8
    21dc:	0002e000 	andeq	lr, r2, r0
    21e0:	70001c00 	andvc	r1, r0, r0, lsl #24
    21e4:	f72cf700 			; <UNDEFINED> instruction: 0xf72cf700
    21e8:	0825f425 	stmdaeq	r5!, {r0, r2, r5, sl, ip, sp, lr, pc}
    21ec:	cccccccd 	stclgt	12, cr12, [ip], {205}	; 0xcd
    21f0:	00000000 	andeq	r0, r0, r0
    21f4:	f720081e 			; <UNDEFINED> instruction: 0xf720081e
    21f8:	2cf72525 	cfldr64cs	mvdx2, [r7], #148	; 0x94
    21fc:	e09f2533 	adds	r2, pc, r3, lsr r5	; <UNPREDICTABLE>
    2200:	e4000002 	str	r0, [r0], #-2
    2204:	01000002 	tsteq	r0, r2
    2208:	02e45300 	rsceq	r5, r4, #0, 6
    220c:	02ec0000 	rsceq	r0, ip, #0
    2210:	001c0000 	andseq	r0, ip, r0
    2214:	2cf70070 	ldclcs	0, cr0, [r7], #448	; 0x1c0
    2218:	25f425f7 	ldrbcs	r2, [r4, #1527]!	; 0x5f7
    221c:	cccccd08 	stclgt	13, cr12, [ip], {8}
    2220:	000000cc 	andeq	r0, r0, ip, asr #1
    2224:	20081e00 	andcs	r1, r8, r0, lsl #28
    2228:	f72525f7 			; <UNDEFINED> instruction: 0xf72525f7
    222c:	9f25332c 	svcls	0x0025332c
    2230:	000002ec 	andeq	r0, r0, ip, ror #5
    2234:	000002f0 	strdeq	r0, [r0], -r0	; <UNPREDICTABLE>
    2238:	f0530001 			; <UNDEFINED> instruction: 0xf0530001
    223c:	f8000002 			; <UNDEFINED> instruction: 0xf8000002
    2240:	1c000002 	stcne	0, cr0, [r0], {2}
    2244:	f7007000 			; <UNDEFINED> instruction: 0xf7007000
    2248:	f425f72c 	vld1.8	{d15}, [r5 :128], ip
    224c:	cccd0825 	stclgt	8, cr0, [sp], {37}	; 0x25
    2250:	0000cccc 	andeq	ip, r0, ip, asr #25
    2254:	081e0000 	ldmdaeq	lr, {}	; <UNPREDICTABLE>
    2258:	2525f720 	strcs	pc, [r5, #-1824]!	; 0x720
    225c:	25332cf7 	ldrcs	r2, [r3, #-3319]!	; 0xcf7
    2260:	0002f89f 	muleq	r2, pc, r8	; <UNPREDICTABLE>
    2264:	0002fc00 	andeq	pc, r2, r0, lsl #24
    2268:	53000100 	movwpl	r0, #256	; 0x100
    226c:	000002fc 	strdeq	r0, [r0], -ip
    2270:	00000304 	andeq	r0, r0, r4, lsl #6
    2274:	0070001c 	rsbseq	r0, r0, ip, lsl r0
    2278:	25f72cf7 	ldrbcs	r2, [r7, #3319]!	; 0xcf7
    227c:	cd0825f4 	cfstr32gt	mvfx2, [r8, #-976]	; 0xfffffc30
    2280:	00cccccc 	sbceq	ip, ip, ip, asr #25
    2284:	1e000000 	cdpne	0, 0, cr0, cr0, cr0, {0}
    2288:	25f72008 	ldrbcs	r2, [r7, #8]!
    228c:	332cf725 	msrcc	CPSR_fs, #9699328	; 0x940000
    2290:	03049f25 	movweq	r9, #20261	; 0x4f25
    2294:	03080000 	movweq	r0, #32768	; 0x8000
    2298:	00010000 	andeq	r0, r1, r0
    229c:	00030853 	andeq	r0, r3, r3, asr r8
    22a0:	00031000 	andeq	r1, r3, r0
    22a4:	70001c00 	andvc	r1, r0, r0, lsl #24
    22a8:	f72cf700 			; <UNDEFINED> instruction: 0xf72cf700
    22ac:	0825f425 	stmdaeq	r5!, {r0, r2, r5, sl, ip, sp, lr, pc}
    22b0:	cccccccd 	stclgt	12, cr12, [ip], {205}	; 0xcd
    22b4:	00000000 	andeq	r0, r0, r0
    22b8:	f720081e 			; <UNDEFINED> instruction: 0xf720081e
    22bc:	2cf72525 	cfldr64cs	mvdx2, [r7], #148	; 0x94
    22c0:	109f2533 	addsne	r2, pc, r3, lsr r5	; <UNPREDICTABLE>
    22c4:	14000003 	strne	r0, [r0], #-3
    22c8:	01000003 	tsteq	r0, r3
    22cc:	03145300 	tsteq	r4, #0, 6
    22d0:	03180000 	tsteq	r8, #0
    22d4:	001c0000 	andseq	r0, ip, r0
    22d8:	2cf70070 	ldclcs	0, cr0, [r7], #448	; 0x1c0
    22dc:	25f425f7 	ldrbcs	r2, [r4, #1527]!	; 0x5f7
    22e0:	cccccd08 	stclgt	13, cr12, [ip], {8}
    22e4:	000000cc 	andeq	r0, r0, ip, asr #1
    22e8:	20081e00 	andcs	r1, r8, r0, lsl #28
    22ec:	f72525f7 			; <UNDEFINED> instruction: 0xf72525f7
    22f0:	9f25332c 	svcls	0x0025332c
    22f4:	00000318 	andeq	r0, r0, r8, lsl r3
    22f8:	00000320 	andeq	r0, r0, r0, lsr #6
    22fc:	0074001c 	rsbseq	r0, r4, ip, lsl r0
    2300:	25f72cf7 	ldrbcs	r2, [r7, #3319]!	; 0xcf7
    2304:	cd0825f4 	cfstr32gt	mvfx2, [r8, #-976]	; 0xfffffc30
    2308:	00cccccc 	sbceq	ip, ip, ip, asr #25
    230c:	1e000000 	cdpne	0, 0, cr0, cr0, cr0, {0}
    2310:	25f72008 	ldrbcs	r2, [r7, #8]!
    2314:	332cf725 	msrcc	CPSR_fs, #9699328	; 0x940000
    2318:	03209f25 	teqeq	r0, #37, 30	; 0x94
    231c:	03240000 	teqeq	r4, #0
    2320:	00170000 	andseq	r0, r7, r0
    2324:	2cf70074 	ldclcs	0, cr0, [r7], #464	; 0x1d0
    2328:	007325f7 	ldrshteq	r2, [r3], #-87	; 0xffffffa9
    232c:	25f72cf7 	ldrbcs	r2, [r7, #3319]!	; 0xcf7
    2330:	f720081e 			; <UNDEFINED> instruction: 0xf720081e
    2334:	2cf72525 	cfldr64cs	mvdx2, [r7], #148	; 0x94
    2338:	249f2533 	ldrcs	r2, [pc], #1331	; 2340 <_start-0x5cc0>
    233c:	58000003 	stmdapl	r0, {r0, r1}
    2340:	1c000003 	stcne	0, cr0, [r0], {3}
    2344:	f7007400 			; <UNDEFINED> instruction: 0xf7007400
    2348:	f425f72c 	vld1.8	{d15}, [r5 :128], ip
    234c:	cccd0825 	stclgt	8, cr0, [sp], {37}	; 0x25
    2350:	0000cccc 	andeq	ip, r0, ip, asr #25
    2354:	081e0000 	ldmdaeq	lr, {}	; <UNPREDICTABLE>
    2358:	2525f720 	strcs	pc, [r5, #-1824]!	; 0x720
    235c:	25332cf7 	ldrcs	r2, [r3, #-3319]!	; 0xcf7
    2360:	0000009f 	muleq	r0, pc, r0	; <UNPREDICTABLE>
    2364:	00000000 	andeq	r0, r0, r0
    2368:	00031c00 	andeq	r1, r3, r0, lsl #24
    236c:	00034000 	andeq	r4, r3, r0
    2370:	50000100 	andpl	r0, r0, r0, lsl #2
    2374:	00000340 	andeq	r0, r0, r0, asr #6
    2378:	00000348 	andeq	r0, r0, r8, asr #6
    237c:	00750009 	rsbseq	r0, r5, r9
    2380:	71240073 	teqvc	r4, r3, ror r0
    2384:	489f2100 	ldmmi	pc, {r8, sp}	; <UNPREDICTABLE>
    2388:	4b000003 	blmi	239c <_start-0x5c64>
    238c:	01000003 	tsteq	r0, r3
    2390:	00005100 	andeq	r5, r0, r0, lsl #2
    2394:	00000000 	andeq	r0, r0, r0
    2398:	03580000 	cmpeq	r8, #0
    239c:	037c0000 	cmneq	ip, #0
    23a0:	00010000 	andeq	r0, r1, r0
    23a4:	00037c50 	andeq	r7, r3, r0, asr ip
    23a8:	00039000 	andeq	r9, r3, r0
    23ac:	f3000400 	vshl.u8	d0, d0, d0
    23b0:	009f5001 	addseq	r5, pc, r1
    23b4:	00000000 	andeq	r0, r0, r0
    23b8:	64000000 	strvs	r0, [r0], #-0
    23bc:	6c000003 	stcvs	0, cr0, [r0], {3}
    23c0:	02000003 	andeq	r0, r0, #3
    23c4:	6c9f3000 	ldcvs	0, cr3, [pc], {0}
    23c8:	6c000003 	stcvs	0, cr0, [r0], {3}
    23cc:	01000003 	tsteq	r0, r3
    23d0:	036c5200 	cmneq	ip, #0, 4
    23d4:	03740000 	cmneq	r4, #0
    23d8:	00020000 	andeq	r0, r2, r0
    23dc:	03749f30 	cmneq	r4, #48, 30	; 0xc0
    23e0:	03870000 	orreq	r0, r7, #0
    23e4:	00010000 	andeq	r0, r1, r0
    23e8:	00000052 	andeq	r0, r0, r2, asr r0
    23ec:	00000000 	andeq	r0, r0, r0
    23f0:	00036400 	andeq	r6, r3, r0, lsl #8
    23f4:	00037800 	andeq	r7, r3, r0, lsl #16
    23f8:	30000200 	andcc	r0, r0, r0, lsl #4
    23fc:	0003789f 	muleq	r3, pc, r8	; <UNPREDICTABLE>
    2400:	00038400 	andeq	r8, r3, r0, lsl #8
    2404:	31000500 	tstcc	r0, r0, lsl #10
    2408:	9f240073 	svcls	0x00240073
    240c:	00000384 	andeq	r0, r0, r4, lsl #7
    2410:	00000387 	andeq	r0, r0, r7, lsl #7
    2414:	87510001 	ldrbhi	r0, [r1, -r1]
    2418:	90000003 	andls	r0, r0, r3
    241c:	08000003 	stmdaeq	r0, {r0, r1}
    2420:	01f33100 	mvnseq	r3, r0, lsl #2
    2424:	241a4f50 	ldrcs	r4, [sl], #-3920	; 0xf50
    2428:	0000009f 	muleq	r0, pc, r0	; <UNPREDICTABLE>
    242c:	00000000 	andeq	r0, r0, r0
    2430:	00039000 	andeq	r9, r3, r0
    2434:	00039c00 	andeq	r9, r3, r0, lsl #24
    2438:	50000100 	andpl	r0, r0, r0, lsl #2
    243c:	0000039c 	muleq	r0, ip, r3
    2440:	000003bc 			; <UNDEFINED> instruction: 0x000003bc
    2444:	01f30004 	mvnseq	r0, r4
    2448:	00009f50 	andeq	r9, r0, r0, asr pc
    244c:	00000000 	andeq	r0, r0, r0
    2450:	03bc0000 			; <UNDEFINED> instruction: 0x03bc0000
    2454:	03cf0000 	biceq	r0, pc, #0
    2458:	00010000 	andeq	r0, r1, r0
    245c:	0003cf50 	andeq	ip, r3, r0, asr pc
    2460:	00040800 	andeq	r0, r4, r0, lsl #16
    2464:	54000100 	strpl	r0, [r0], #-256	; 0x100
    2468:	00000408 	andeq	r0, r0, r8, lsl #8
    246c:	00000440 	andeq	r0, r0, r0, asr #8
    2470:	01f30004 	mvnseq	r0, r4
    2474:	00009f50 	andeq	r9, r0, r0, asr pc
    2478:	00000000 	andeq	r0, r0, r0
    247c:	04280000 	strteq	r0, [r8], #-0
    2480:	042c0000 	strteq	r0, [ip], #-0
    2484:	00010000 	andeq	r0, r1, r0
    2488:	00042c50 	andeq	r2, r4, r0, asr ip
    248c:	00043300 	andeq	r3, r4, r0, lsl #6
    2490:	51000100 	mrspl	r0, (UNDEF: 16)
	...
    249c:	000003e4 	andeq	r0, r0, r4, ror #7
    24a0:	000003ec 	andeq	r0, r0, ip, ror #7
    24a4:	ec500001 	mrrc	0, 0, r0, r0, cr1	; <UNPREDICTABLE>
    24a8:	f3000003 	vhadd.u8	d0, d0, d3
    24ac:	01000003 	tsteq	r0, r3
    24b0:	00005100 	andeq	r5, r0, r0, lsl #2
    24b4:	00000000 	andeq	r0, r0, r0
    24b8:	04040000 	streq	r0, [r4], #-0
    24bc:	04100000 	ldreq	r0, [r0], #-0
    24c0:	00010000 	andeq	r0, r1, r0
    24c4:	00041050 	andeq	r1, r4, r0, asr r0
    24c8:	00041700 	andeq	r1, r4, r0, lsl #14
    24cc:	51000100 	mrspl	r0, (UNDEF: 16)
	...
    24d8:	00000440 	andeq	r0, r0, r0, asr #8
    24dc:	00000453 	andeq	r0, r0, r3, asr r4
    24e0:	53500001 	cmppl	r0, #1
    24e4:	8c000004 	stchi	0, cr0, [r0], {4}
    24e8:	01000004 	tsteq	r0, r4
    24ec:	048c5400 	streq	r5, [ip], #1024	; 0x400
    24f0:	04c40000 	strbeq	r0, [r4], #0
    24f4:	00040000 	andeq	r0, r4, r0
    24f8:	9f5001f3 	svcls	0x005001f3
	...
    2504:	000004ac 	andeq	r0, r0, ip, lsr #9
    2508:	000004b0 			; <UNDEFINED> instruction: 0x000004b0
    250c:	b0500001 	subslt	r0, r0, r1
    2510:	b7000004 	strlt	r0, [r0, -r4]
    2514:	01000004 	tsteq	r0, r4
    2518:	00005100 	andeq	r5, r0, r0, lsl #2
    251c:	00000000 	andeq	r0, r0, r0
    2520:	04680000 	strbteq	r0, [r8], #-0
    2524:	04700000 	ldrbteq	r0, [r0], #-0
    2528:	00010000 	andeq	r0, r1, r0
    252c:	00047050 	andeq	r7, r4, r0, asr r0
    2530:	00047700 	andeq	r7, r4, r0, lsl #14
    2534:	51000100 	mrspl	r0, (UNDEF: 16)
	...
    2540:	00000488 	andeq	r0, r0, r8, lsl #9
    2544:	00000494 	muleq	r0, r4, r4
    2548:	94500001 	ldrbls	r0, [r0], #-1
    254c:	9b000004 	blls	2564 <_start-0x5a9c>
    2550:	01000004 	tsteq	r0, r4
    2554:	00005100 	andeq	r5, r0, r0, lsl #2
    2558:	00000000 	andeq	r0, r0, r0
    255c:	04c40000 	strbeq	r0, [r4], #0
    2560:	04d70000 	ldrbeq	r0, [r7], #0
    2564:	00010000 	andeq	r0, r1, r0
    2568:	0004d750 	andeq	sp, r4, r0, asr r7
    256c:	00051800 	andeq	r1, r5, r0, lsl #16
    2570:	54000100 	strpl	r0, [r0], #-256	; 0x100
    2574:	00000518 	andeq	r0, r0, r8, lsl r5
    2578:	0000053c 	andeq	r0, r0, ip, lsr r5
    257c:	01f30004 	mvnseq	r0, r4
    2580:	053c9f50 	ldreq	r9, [ip, #-3920]!	; 0xf50
    2584:	05400000 	strbeq	r0, [r0, #-0]
    2588:	00010000 	andeq	r0, r1, r0
    258c:	00054050 	andeq	r4, r5, r0, asr r0
    2590:	00054800 	andeq	r4, r5, r0, lsl #16
    2594:	54000100 	strpl	r0, [r0], #-256	; 0x100
	...
    25a0:	000004ec 	andeq	r0, r0, ip, ror #9
    25a4:	000004fb 	strdeq	r0, [r0], -fp
    25a8:	74310008 	ldrtvc	r0, [r1], #-8
    25ac:	00702400 	rsbseq	r2, r0, r0, lsl #8
    25b0:	00009f1a 	andeq	r9, r0, sl, lsl pc
    25b4:	00000000 	andeq	r0, r0, r0
    25b8:	05180000 	ldreq	r0, [r8, #-0]
    25bc:	05300000 	ldreq	r0, [r0, #-0]!
    25c0:	00010000 	andeq	r0, r1, r0
    25c4:	00000054 	andeq	r0, r0, r4, asr r0
    25c8:	00000000 	andeq	r0, r0, r0
    25cc:	00054800 	andeq	r4, r5, r0, lsl #16
    25d0:	00055b00 	andeq	r5, r5, r0, lsl #22
    25d4:	50000100 	andpl	r0, r0, r0, lsl #2
    25d8:	0000055b 	andeq	r0, r0, fp, asr r5
    25dc:	00000580 	andeq	r0, r0, r0, lsl #11
    25e0:	80540001 	subshi	r0, r4, r1
    25e4:	a0000005 	andge	r0, r0, r5
    25e8:	04000005 	streq	r0, [r0], #-5
    25ec:	5001f300 	andpl	pc, r1, r0, lsl #6
    25f0:	0000009f 	muleq	r0, pc, r0	; <UNPREDICTABLE>
	...
    25fc:	00001700 	andeq	r1, r0, r0, lsl #14
    2600:	50000100 	andpl	r0, r0, r0, lsl #2
    2604:	00000017 	andeq	r0, r0, r7, lsl r0
    2608:	00000030 	andeq	r0, r0, r0, lsr r0
    260c:	01f30004 	mvnseq	r0, r4
    2610:	00309f50 	eorseq	r9, r0, r0, asr pc
    2614:	00440000 	subeq	r0, r4, r0
    2618:	00010000 	andeq	r0, r1, r0
    261c:	00004450 	andeq	r4, r0, r0, asr r4
    2620:	00007400 	andeq	r7, r0, r0, lsl #8
    2624:	f3000400 	vshl.u8	d0, d0, d0
    2628:	009f5001 	addseq	r5, pc, r1
    262c:	00000000 	andeq	r0, r0, r0
    2630:	40000000 	andmi	r0, r0, r0
    2634:	58000000 	stmdapl	r0, {}	; <UNPREDICTABLE>
    2638:	01000000 	mrseq	r0, (UNDEF: 0)
    263c:	00585600 	subseq	r5, r8, r0, lsl #12
    2640:	00740000 	rsbseq	r0, r4, r0
    2644:	00090000 	andeq	r0, r9, r0
    2648:	235001f3 	cmpcs	r0, #-1073741764	; 0xc000003c
    264c:	1af80907 	bne	ffe04a70 <__bss_end__+0xffdf8d88>
    2650:	0000009f 	muleq	r0, pc, r0	; <UNPREDICTABLE>
    2654:	00000000 	andeq	r0, r0, r0
    2658:	00007400 	andeq	r7, r0, r0, lsl #8
    265c:	00008b00 	andeq	r8, r0, r0, lsl #22
    2660:	50000100 	andpl	r0, r0, r0, lsl #2
    2664:	0000008b 	andeq	r0, r0, fp, lsl #1
    2668:	000000a4 	andeq	r0, r0, r4, lsr #1
    266c:	01f30004 	mvnseq	r0, r4
    2670:	00a49f50 	adceq	r9, r4, r0, asr pc
    2674:	00af0000 	adceq	r0, pc, r0
    2678:	00010000 	andeq	r0, r1, r0
    267c:	0000af50 	andeq	sl, r0, r0, asr pc
    2680:	0000b400 	andeq	fp, r0, r0, lsl #8
    2684:	f3000400 	vshl.u8	d0, d0, d0
    2688:	b49f5001 	ldrlt	r5, [pc], #1	; 2690 <_start-0x5970>
    268c:	bf000000 	svclt	0x00000000
    2690:	01000000 	mrseq	r0, (UNDEF: 0)
    2694:	00bf5000 	adcseq	r5, pc, r0
    2698:	00d80000 	sbcseq	r0, r8, r0
    269c:	00040000 	andeq	r0, r4, r0
    26a0:	9f5001f3 	svcls	0x005001f3
    26a4:	000000d8 	ldrdeq	r0, [r0], -r8
    26a8:	000000f7 	strdeq	r0, [r0], -r7
    26ac:	f7500001 			; <UNDEFINED> instruction: 0xf7500001
    26b0:	10000000 	andne	r0, r0, r0
    26b4:	04000001 	streq	r0, [r0], #-1
    26b8:	5001f300 	andpl	pc, r1, r0, lsl #6
    26bc:	0000009f 	muleq	r0, pc, r0	; <UNPREDICTABLE>
    26c0:	00000000 	andeq	r0, r0, r0
    26c4:	00007400 	andeq	r7, r0, r0, lsl #8
    26c8:	00008b00 	andeq	r8, r0, r0, lsl #22
    26cc:	51000100 	mrspl	r0, (UNDEF: 16)
    26d0:	0000008b 	andeq	r0, r0, fp, lsl #1
    26d4:	000000a4 	andeq	r0, r0, r4, lsr #1
    26d8:	01f30004 	mvnseq	r0, r4
    26dc:	00a49f51 	adceq	r9, r4, r1, asr pc
    26e0:	00af0000 	adceq	r0, pc, r0
    26e4:	00010000 	andeq	r0, r1, r0
    26e8:	0000af51 	andeq	sl, r0, r1, asr pc
    26ec:	0000b400 	andeq	fp, r0, r0, lsl #8
    26f0:	f3000400 	vshl.u8	d0, d0, d0
    26f4:	b49f5101 	ldrlt	r5, [pc], #257	; 26fc <_start-0x5904>
    26f8:	bf000000 	svclt	0x00000000
    26fc:	01000000 	mrseq	r0, (UNDEF: 0)
    2700:	00bf5100 	adcseq	r5, pc, r0, lsl #2
    2704:	00d80000 	sbcseq	r0, r8, r0
    2708:	00040000 	andeq	r0, r4, r0
    270c:	9f5101f3 	svcls	0x005101f3
    2710:	000000d8 	ldrdeq	r0, [r0], -r8
    2714:	000000ec 	andeq	r0, r0, ip, ror #1
    2718:	ec510001 	mrrc	0, 0, r0, r1, cr1
    271c:	f0000000 			; <UNDEFINED> instruction: 0xf0000000
    2720:	04000000 	streq	r0, [r0], #-0
    2724:	1f007100 	svcne	0x00007100
    2728:	0000f09f 	muleq	r0, pc, r0	; <UNPREDICTABLE>
    272c:	00011000 	andeq	r1, r1, r0
    2730:	f3000400 	vshl.u8	d0, d0, d0
    2734:	009f5101 	addseq	r5, pc, r1, lsl #2
    2738:	00000000 	andeq	r0, r0, r0
    273c:	e0000000 	and	r0, r0, r0
    2740:	e4000000 	str	r0, [r0], #-0
    2744:	01000000 	mrseq	r0, (UNDEF: 0)
    2748:	00e45200 	rsceq	r5, r4, r0, lsl #4
    274c:	00f00000 	rscseq	r0, r0, r0
    2750:	00050000 	andeq	r0, r5, r0
    2754:	00bcdc03 	adcseq	sp, ip, r3, lsl #24
    2758:	0000f000 	andeq	pc, r0, r0
    275c:	0000f700 	andeq	pc, r0, r0, lsl #14
    2760:	51000100 	mrspl	r0, (UNDEF: 16)
	...
    276c:	00000194 	muleq	r0, r4, r1
    2770:	000001ab 	andeq	r0, r0, fp, lsr #3
    2774:	ab500001 	blge	1402780 <__bss_end__+0x13f6a98>
    2778:	c4000001 	strgt	r0, [r0], #-1
    277c:	04000001 	streq	r0, [r0], #-1
    2780:	5001f300 	andpl	pc, r1, r0, lsl #6
    2784:	0001c49f 	muleq	r1, pc, r4	; <UNPREDICTABLE>
    2788:	0001e800 	andeq	lr, r1, r0, lsl #16
    278c:	50000100 	andpl	r0, r0, r0, lsl #2
	...
    2798:	000000fc 	strdeq	r0, [r0], -ip
    279c:	00000104 	andeq	r0, r0, r4, lsl #2
    27a0:	04500001 	ldrbeq	r0, [r0], #-1
    27a4:	28000001 	stmdacs	r0, {r0}
    27a8:	01000001 	tsteq	r0, r1
    27ac:	00005400 	andeq	r5, r0, r0, lsl #8
    27b0:	00000000 	andeq	r0, r0, r0
    27b4:	00300000 	eorseq	r0, r0, r0
    27b8:	003c0000 	eorseq	r0, ip, r0
    27bc:	00020000 	andeq	r0, r2, r0
    27c0:	003c9f30 	eorseq	r9, ip, r0, lsr pc
    27c4:	00680000 	rsbeq	r0, r8, r0
    27c8:	00010000 	andeq	r0, r1, r0
    27cc:	00000053 	andeq	r0, r0, r3, asr r0
    27d0:	00000000 	andeq	r0, r0, r0
    27d4:	00006800 	andeq	r6, r0, r0, lsl #16
    27d8:	00007700 	andeq	r7, r0, r0, lsl #14
    27dc:	50000100 	andpl	r0, r0, r0, lsl #2
    27e0:	00000077 	andeq	r0, r0, r7, ror r0
    27e4:	000000ac 	andeq	r0, r0, ip, lsr #1
    27e8:	00540001 	subseq	r0, r4, r1
    27ec:	00000000 	andeq	r0, r0, r0
    27f0:	1c000000 	stcne	0, cr0, [r0], {-0}
    27f4:	27000000 	strcs	r0, [r0, -r0]
    27f8:	01000000 	mrseq	r0, (UNDEF: 0)
    27fc:	00275000 	eoreq	r5, r7, r0
    2800:	005c0000 	subseq	r0, ip, r0
    2804:	00010000 	andeq	r0, r1, r0
    2808:	00000054 	andeq	r0, r0, r4, asr r0
	...
    2814:	00000400 	andeq	r0, r0, r0, lsl #8
    2818:	52000100 	andpl	r0, r0, #0, 2
    281c:	00000004 	andeq	r0, r0, r4
    2820:	00000020 	andeq	r0, r0, r0, lsr #32
    2824:	01f30004 	mvnseq	r0, r4
    2828:	00009f52 	andeq	r9, r0, r2, asr pc
	...
    2834:	000c0000 	andeq	r0, ip, r0
    2838:	00010000 	andeq	r0, r1, r0
    283c:	00000c50 	andeq	r0, r0, r0, asr ip
    2840:	00001400 	andeq	r1, r0, r0, lsl #8
    2844:	73000300 	movwvc	r0, #768	; 0x300
    2848:	00149f01 	andseq	r9, r4, r1, lsl #30
    284c:	00200000 	eoreq	r0, r0, r0
    2850:	00010000 	andeq	r0, r1, r0
    2854:	00000053 	andeq	r0, r0, r3, asr r0
	...
    2860:	00000f00 	andeq	r0, r0, r0, lsl #30
    2864:	50000100 	andpl	r0, r0, r0, lsl #2
    2868:	0000000f 	andeq	r0, r0, pc
    286c:	00000044 	andeq	r0, r0, r4, asr #32
    2870:	00540001 	subseq	r0, r4, r1
	...
    287c:	0f000000 	svceq	0x00000000
    2880:	01000000 	mrseq	r0, (UNDEF: 0)
    2884:	000f5000 	andeq	r5, pc, r0
    2888:	00440000 	subeq	r0, r4, r0
    288c:	00010000 	andeq	r0, r1, r0
    2890:	00000054 	andeq	r0, r0, r4, asr r0
	...
    289c:	00000f00 	andeq	r0, r0, r0, lsl #30
    28a0:	50000100 	andpl	r0, r0, r0, lsl #2
    28a4:	0000000f 	andeq	r0, r0, pc
    28a8:	00000044 	andeq	r0, r0, r4, asr #32
    28ac:	00540001 	subseq	r0, r4, r1
	...
    28b8:	0f000000 	svceq	0x00000000
    28bc:	01000000 	mrseq	r0, (UNDEF: 0)
    28c0:	000f5000 	andeq	r5, pc, r0
    28c4:	00440000 	subeq	r0, r4, r0
    28c8:	00010000 	andeq	r0, r1, r0
    28cc:	00000054 	andeq	r0, r0, r4, asr r0
    28d0:	00000000 	andeq	r0, r0, r0
	...

Disassembly of section .debug_aranges:

00000000 <.debug_aranges>:
   0:	0000001c 	andeq	r0, r0, ip, lsl r0
   4:	00000002 	andeq	r0, r0, r2
   8:	00040000 	andeq	r0, r4, r0
   c:	00000000 	andeq	r0, r0, r0
  10:	00008010 	andeq	r8, r0, r0, lsl r0
  14:	00000c3c 	andeq	r0, r0, ip, lsr ip
	...
  20:	0000001c 	andeq	r0, r0, ip, lsl r0
  24:	1b590002 	blne	1640034 <__bss_end__+0x163434c>
  28:	00040000 	andeq	r0, r4, r0
  2c:	00000000 	andeq	r0, r0, r0
  30:	00008c4c 	andeq	r8, r0, ip, asr #24
  34:	0000025c 	andeq	r0, r0, ip, asr r2
	...
  40:	0000001c 	andeq	r0, r0, ip, lsl r0
  44:	20b90002 	adcscs	r0, r9, r2
  48:	00040000 	andeq	r0, r4, r0
  4c:	00000000 	andeq	r0, r0, r0
  50:	00008ea8 	andeq	r8, r0, r8, lsr #29
  54:	00000378 	andeq	r0, r0, r8, ror r3
	...
  60:	0000001c 	andeq	r0, r0, ip, lsl r0
  64:	2b140002 	blcs	500074 <__bss_end__+0x4f438c>
  68:	00040000 	andeq	r0, r4, r0
  6c:	00000000 	andeq	r0, r0, r0
  70:	00009220 	andeq	r9, r0, r0, lsr #4
  74:	00000568 	andeq	r0, r0, r8, ror #10
	...
  80:	0000001c 	andeq	r0, r0, ip, lsl r0
  84:	46760002 	ldrbtmi	r0, [r6], -r2
  88:	00040000 	andeq	r0, r4, r0
  8c:	00000000 	andeq	r0, r0, r0
  90:	00009788 	andeq	r9, r0, r8, lsl #15
  94:	00000058 	andeq	r0, r0, r8, asr r0
	...
  a0:	0000001c 	andeq	r0, r0, ip, lsl r0
  a4:	480b0002 	stmdami	fp, {r1}
  a8:	00040000 	andeq	r0, r4, r0
  ac:	00000000 	andeq	r0, r0, r0
  b0:	000097e0 	andeq	r9, r0, r0, ror #15
  b4:	0000003c 	andeq	r0, r0, ip, lsr r0
	...
  c0:	0000001c 	andeq	r0, r0, ip, lsl r0
  c4:	49220002 	stmdbmi	r2!, {r1}
  c8:	00040000 	andeq	r0, r4, r0
  cc:	00000000 	andeq	r0, r0, r0
  d0:	0000981c 	andeq	r9, r0, ip, lsl r8
  d4:	00000034 	andeq	r0, r0, r4, lsr r0
	...
  e0:	0000001c 	andeq	r0, r0, ip, lsl r0
  e4:	4a140002 	bmi	5000f4 <__bss_end__+0x4f440c>
  e8:	00040000 	andeq	r0, r4, r0
  ec:	00000000 	andeq	r0, r0, r0
  f0:	00009850 	andeq	r9, r0, r0, asr r8
  f4:	000004f8 	strdeq	r0, [r0], -r8
	...
 100:	0000001c 	andeq	r0, r0, ip, lsl r0
 104:	50990002 	addspl	r0, r9, r2
 108:	00040000 	andeq	r0, r4, r0
 10c:	00000000 	andeq	r0, r0, r0
 110:	00009d48 	andeq	r9, r0, r8, asr #26
 114:	00000028 	andeq	r0, r0, r8, lsr #32
	...
 120:	0000001c 	andeq	r0, r0, ip, lsl r0
 124:	519c0002 	orrspl	r0, ip, r2
 128:	00040000 	andeq	r0, r4, r0
 12c:	00000000 	andeq	r0, r0, r0
 130:	00009d70 	andeq	r9, r0, r0, ror sp
 134:	00000034 	andeq	r0, r0, r4, lsr r0
	...
 140:	0000001c 	andeq	r0, r0, ip, lsl r0
 144:	529f0002 	addspl	r0, pc, #2
 148:	00040000 	andeq	r0, r4, r0
 14c:	00000000 	andeq	r0, r0, r0
 150:	00009da4 	andeq	r9, r0, r4, lsr #27
 154:	00000074 	andeq	r0, r0, r4, ror r0
	...
 160:	0000001c 	andeq	r0, r0, ip, lsl r0
 164:	54500002 	ldrbpl	r0, [r0], #-2
 168:	00040000 	andeq	r0, r4, r0
 16c:	00000000 	andeq	r0, r0, r0
 170:	00009e18 	andeq	r9, r0, r8, lsl lr
 174:	00000088 	andeq	r0, r0, r8, lsl #1
	...
 180:	0000001c 	andeq	r0, r0, ip, lsl r0
 184:	562c0002 	strtpl	r0, [ip], -r2
 188:	00040000 	andeq	r0, r4, r0
 18c:	00000000 	andeq	r0, r0, r0
 190:	00009ea0 	andeq	r9, r0, r0, lsr #29
 194:	000005a0 	andeq	r0, r0, r0, lsr #11
	...
 1a0:	0000001c 	andeq	r0, r0, ip, lsl r0
 1a4:	5eb20002 	cdppl	0, 11, cr0, cr2, cr2, {0}
 1a8:	00040000 	andeq	r0, r4, r0
 1ac:	00000000 	andeq	r0, r0, r0
 1b0:	0000a440 	andeq	sl, r0, r0, asr #8
 1b4:	000001e8 	andeq	r0, r0, r8, ror #3
	...
 1c0:	0000001c 	andeq	r0, r0, ip, lsl r0
 1c4:	62a40002 	adcvs	r0, r4, #2
 1c8:	00040000 	andeq	r0, r4, r0
 1cc:	00000000 	andeq	r0, r0, r0
 1d0:	0000a628 	andeq	sl, r0, r8, lsr #12
 1d4:	00000154 	andeq	r0, r0, r4, asr r1
	...
 1e0:	0000001c 	andeq	r0, r0, ip, lsl r0
 1e4:	66a70002 	strtvs	r0, [r7], r2
 1e8:	00040000 	andeq	r0, r4, r0
 1ec:	00000000 	andeq	r0, r0, r0
 1f0:	0000a77c 	andeq	sl, r0, ip, ror r7
 1f4:	000000ac 	andeq	r0, r0, ip, lsr #1
	...
 200:	0000001c 	andeq	r0, r0, ip, lsl r0
 204:	69460002 	stmdbvs	r6, {r1}^
 208:	00040000 	andeq	r0, r4, r0
 20c:	00000000 	andeq	r0, r0, r0
 210:	0000a828 	andeq	sl, r0, r8, lsr #16
 214:	0000005c 	andeq	r0, r0, ip, asr r0
	...
 220:	0000001c 	andeq	r0, r0, ip, lsl r0
 224:	6c2e0002 	stcvs	0, cr0, [lr], #-8
 228:	00040000 	andeq	r0, r4, r0
 22c:	00000000 	andeq	r0, r0, r0
 230:	0000a9d4 	ldrdeq	sl, [r0], -r4
 234:	00000020 	andeq	r0, r0, r0, lsr #32
	...
 240:	0000001c 	andeq	r0, r0, ip, lsl r0
 244:	6d0d0002 	stcvs	0, cr0, [sp, #-8]
 248:	00040000 	andeq	r0, r4, r0
 24c:	00000000 	andeq	r0, r0, r0
 250:	0000a9f4 	strdeq	sl, [r0], -r4
 254:	00000044 	andeq	r0, r0, r4, asr #32
	...
 260:	0000001c 	andeq	r0, r0, ip, lsl r0
 264:	6e4f0002 	cdpvs	0, 4, cr0, cr15, cr2, {0}
 268:	00040000 	andeq	r0, r4, r0
 26c:	00000000 	andeq	r0, r0, r0
 270:	0000aa38 	andeq	sl, r0, r8, lsr sl
 274:	00000044 	andeq	r0, r0, r4, asr #32
	...
 280:	0000001c 	andeq	r0, r0, ip, lsl r0
 284:	6f910002 	svcvs	0x00910002
 288:	00040000 	andeq	r0, r4, r0
 28c:	00000000 	andeq	r0, r0, r0
 290:	0000aa7c 	andeq	sl, r0, ip, ror sl
 294:	00000044 	andeq	r0, r0, r4, asr #32
	...
 2a0:	0000001c 	andeq	r0, r0, ip, lsl r0
 2a4:	70d30002 	sbcsvc	r0, r3, r2
 2a8:	00040000 	andeq	r0, r4, r0
 2ac:	00000000 	andeq	r0, r0, r0
 2b0:	0000aac0 	andeq	sl, r0, r0, asr #21
 2b4:	00000044 	andeq	r0, r0, r4, asr #32
	...

Disassembly of section .debug_ranges:

00000000 <.debug_ranges>:
   0:	00000b34 	andeq	r0, r0, r4, lsr fp
   4:	00000b40 	andeq	r0, r0, r0, asr #22
   8:	00000b44 	andeq	r0, r0, r4, asr #22
   c:	00000b60 	andeq	r0, r0, r0, ror #22
	...
  18:	00000bb0 			; <UNDEFINED> instruction: 0x00000bb0
  1c:	00000bc8 	andeq	r0, r0, r8, asr #23
  20:	00000bcc 	andeq	r0, r0, ip, asr #23
  24:	00000bd8 	ldrdeq	r0, [r0], -r8
	...
  30:	00000bb0 			; <UNDEFINED> instruction: 0x00000bb0
  34:	00000bc0 	andeq	r0, r0, r0, asr #23
  38:	00000bcc 	andeq	r0, r0, ip, asr #23
  3c:	00000bd0 	ldrdeq	r0, [r0], -r0	; <UNPREDICTABLE>
	...
  48:	0000028c 	andeq	r0, r0, ip, lsl #5
  4c:	00000294 	muleq	r0, r4, r2
  50:	00000298 	muleq	r0, r8, r2
  54:	00000324 	andeq	r0, r0, r4, lsr #6
	...
  60:	00000290 	muleq	r0, r0, r2
  64:	00000294 	muleq	r0, r4, r2
  68:	000002b4 			; <UNDEFINED> instruction: 0x000002b4
  6c:	00000320 	andeq	r0, r0, r0, lsr #6
	...
  78:	00000290 	muleq	r0, r0, r2
  7c:	00000294 	muleq	r0, r4, r2
  80:	000002d4 	ldrdeq	r0, [r0], -r4
  84:	000002e0 	andeq	r0, r0, r0, ror #5
	...
  90:	00000294 	muleq	r0, r4, r2
  94:	00000298 	muleq	r0, r8, r2
  98:	000002c8 	andeq	r0, r0, r8, asr #5
  9c:	000004b8 			; <UNDEFINED> instruction: 0x000004b8
	...
  a8:	00009da4 	andeq	r9, r0, r4, lsr #27
  ac:	00009e18 	andeq	r9, r0, r8, lsl lr
	...

Disassembly of section .debug_line:

00000000 <.debug_line>:
       0:	000002f1 	strdeq	r0, [r0], -r1
       4:	010f0002 	tsteq	pc, r2
       8:	01020000 	mrseq	r0, (UNDEF: 2)
       c:	000d0efb 	strdeq	r0, [sp], -fp
      10:	01010101 	tsteq	r1, r1, lsl #2
      14:	01000000 	mrseq	r0, (UNDEF: 0)
      18:	2f010000 	svccs	0x00010000
      1c:	2f727375 	svccs	0x00727375
      20:	61636f6c 	cmnvs	r3, ip, ror #30
      24:	65432f6c 	strbvs	r2, [r3, #-3948]	; 0xf6c
      28:	72616c6c 	rsbvc	r6, r1, #108, 24	; 0x6c00
      2c:	6d72612f 	ldfvse	f6, [r2, #-188]!	; 0xffffff44
      30:	6e6f6e2d 	cdpvs	14, 6, cr6, cr15, cr13, {1}
      34:	61652d65 	cmnvs	r5, r5, ror #26
      38:	342f6962 	strtcc	r6, [pc], #-2402	; 40 <_start-0x7fc0>
      3c:	332e382e 	teqcc	lr, #3014656	; 0x2e0000
      40:	3173632d 	cmncc	r3, sp, lsr #6
      44:	2f653037 	svccs	0x00653037
      48:	2f62696c 	svccs	0x0062696c
      4c:	2f636367 	svccs	0x00636367
      50:	2d6d7261 	sfmcs	f7, 2, [sp, #-388]!	; 0xfffffe7c
      54:	656e6f6e 	strbvs	r6, [lr, #-3950]!	; 0xf6e
      58:	6261652d 	rsbvs	r6, r1, #188743680	; 0xb400000
      5c:	2e342f69 	cdpcs	15, 3, cr2, cr4, cr9, {3}
      60:	2f332e38 	svccs	0x00332e38
      64:	6c636e69 	stclvs	14, cr6, [r3], #-420	; 0xfffffe5c
      68:	00656475 	rsbeq	r6, r5, r5, ror r4
      6c:	6573552f 	ldrbvs	r5, [r3, #-1327]!	; 0x52f
      70:	622f7372 	eorvs	r7, pc, #-939524095	; 0xc8000001
      74:	6e616972 	mcrvs	9, 3, r6, cr1, cr2, {3}
      78:	2f6e756a 	svccs	0x006e756a
      7c:	6b736544 	blvs	1cd9594 <__bss_end__+0x1ccd8ac>
      80:	2f706f74 	svccs	0x00706f74
      84:	6f686373 	svcvs	0x00686373
      88:	572f6c6f 	strpl	r6, [pc, -pc, ror #24]!
      8c:	65746e69 	ldrbvs	r6, [r4, #-3689]!	; 0xe69
      90:	32393172 	eorscc	r3, r9, #-2147483620	; 0x8000001c
      94:	53432f30 	movtpl	r2, #16176	; 0x3f30
      98:	45303431 	ldrmi	r3, [r0, #-1073]!	; 0x431
      9c:	3173632f 	cmncc	r3, pc, lsr #6
      a0:	2d653034 	stclcs	0, cr3, [r5, #-208]!	; 0xffffff30
      a4:	69773032 	ldmdbvs	r7!, {r1, r4, r5, ip, sp}^
      a8:	696c2f6e 	stmdbvs	ip!, {r1, r2, r3, r5, r6, r8, r9, sl, fp, sp}^
      ac:	00697062 	rsbeq	r7, r9, r2, rrx
      b0:	65747300 	ldrbvs	r7, [r4, #-768]!	; 0x300
      b4:	72657070 	rsbvc	r7, r5, #112	; 0x70
      b8:	7365742d 	cmnvc	r5, #754974720	; 0x2d000000
      bc:	00632e74 	rsbeq	r2, r3, r4, ror lr
      c0:	6c000000 	stcvs	0, cr0, [r0], {-0}
      c4:	64366d73 	ldrtvs	r6, [r6], #-3443	; 0xd73
      c8:	2e333373 	mrccs	3, 1, r3, cr3, cr3, {3}
      cc:	00000068 	andeq	r0, r0, r8, rrx
      d0:	64747300 	ldrbtvs	r7, [r4], #-768	; 0x300
      d4:	2d746e69 	ldclcs	14, cr6, [r4, #-420]!	; 0xfffffe5c
      d8:	2e636367 	cdpcs	3, 6, cr6, cr3, cr7, {3}
      dc:	00010068 	andeq	r0, r1, r8, rrx
      e0:	65747300 	ldrbvs	r7, [r4, #-768]!	; 0x300
      e4:	72657070 	rsbvc	r7, r5, #112	; 0x70
      e8:	0000682e 	andeq	r6, r0, lr, lsr #16
      ec:	74730000 	ldrbtvc	r0, [r3], #-0
      f0:	65707065 	ldrbvs	r7, [r0, #-101]!	; 0x65
      f4:	6e692d72 	mcrvs	13, 3, r2, cr9, cr2, {3}
      f8:	00682e74 	rsbeq	r2, r8, r4, ror lr
      fc:	51000000 	mrspl	r0, (UNDEF: 0)
     100:	0000682e 	andeq	r6, r0, lr, lsr #16
     104:	70720000 	rsbsvc	r0, r2, r0
     108:	00682e69 	rsbeq	r2, r8, r9, ror #28
     10c:	69000002 	stmdbvs	r0, {r1}
     110:	682e6332 	stmdavs	lr!, {r1, r4, r5, r8, r9, sp, lr}
     114:	00000000 	andeq	r0, r0, r0
     118:	02050000 	andeq	r0, r5, #0
     11c:	00008010 	andeq	r8, r0, r0, lsl r0
     120:	0100db03 	tsteq	r0, r3, lsl #22
     124:	2d036713 	stccs	7, cr6, [r3, #-76]	; 0xffffffb4
     128:	4d30132e 	ldcmi	3, cr1, [r0, #-184]!	; 0xffffff48
     12c:	0f038313 	svceq	0x00038313
     130:	832f9f66 	teqhi	pc, #408	; 0x198
     134:	03838383 	orreq	r8, r3, #201326594	; 0xc000002
     138:	8483823f 	strhi	r8, [r3], #575	; 0x23f
     13c:	674ba1bb 			; <UNDEFINED> instruction: 0x674ba1bb
     140:	033d0867 	teqeq	sp, #6750208	; 0x670000
     144:	2fd67ea2 	svccs	0x00d67ea2
     148:	2b31844c 	blcs	c61280 <__bss_end__+0xc55598>
     14c:	0402002f 	streq	r0, [r2], #-47	; 0x2f
     150:	06820601 	streq	r0, [r2], r1, lsl #12
     154:	00474bd7 	ldrdeq	r4, [r7], #-183	; 0xffffff49
     158:	06010402 	streq	r0, [r1], -r2, lsl #8
     15c:	496e062e 	stmdbmi	lr!, {r1, r2, r3, r5, r9, sl}^
     160:	02004b4b 	andeq	r4, r0, #76800	; 0x12c00
     164:	9e060104 	adflss	f0, f6, f4
     168:	0200d306 	andeq	sp, r0, #402653184	; 0x18000000
     16c:	2e060104 	adfcss	f0, f6, f4
     170:	3f085006 	svccc	0x00085006
     174:	9f874b4b 	svcls	0x00874b4b
     178:	0402004b 	streq	r0, [r2], #-75	; 0x4b
     17c:	4b838401 	blmi	fe0e1188 <__bss_end__+0xfe0d54a0>
     180:	2fdc2d67 	svccs	0x00dc2d67
     184:	02002f81 	andeq	r2, r0, #516	; 0x204
     188:	9e060304 	cdpls	3, 0, cr0, cr6, cr4, {0}
     18c:	03040200 	movweq	r0, #16896	; 0x4200
     190:	0200f106 	andeq	pc, r0, #-2147483647	; 0x80000001
     194:	2e060104 	adfcss	f0, f6, f4
     198:	002f8906 	eoreq	r8, pc, r6, lsl #18
     19c:	7f010402 	svcvc	0x00010402
     1a0:	008367bb 			; <UNDEFINED> instruction: 0x008367bb
     1a4:	06030402 	streq	r0, [r3], -r2, lsl #8
     1a8:	0402009e 	streq	r0, [r2], #-158	; 0x9e
     1ac:	02006601 	andeq	r6, r0, #1048576	; 0x100000
     1b0:	d2060104 	andle	r0, r6, #4, 2
     1b4:	76084b6c 	strvc	r4, [r8], -ip, ror #22
     1b8:	3d084b4b 	vstrcc	d4, [r8, #-300]	; 0xfffffed4
     1bc:	002c4c4b 	eoreq	r4, ip, fp, asr #24
     1c0:	2f020402 	svccs	0x00020402
     1c4:	02040200 	andeq	r0, r4, #0, 4
     1c8:	0402004b 	streq	r0, [r2], #-75	; 0x4b
     1cc:	02004802 	andeq	r4, r0, #131072	; 0x20000
     1d0:	2e060104 	adfcss	f0, f6, f4
     1d4:	00306b06 	eorseq	r6, r0, r6, lsl #22
     1d8:	49020402 	stmdbmi	r2, {r1, sl}
     1dc:	02040200 	andeq	r0, r4, #0, 4
     1e0:	0402004b 	streq	r0, [r2], #-75	; 0x4b
     1e4:	02004802 	andeq	r4, r0, #131072	; 0x20000
     1e8:	2e060104 	adfcss	f0, f6, f4
     1ec:	034b4e06 	movteq	r4, #48646	; 0xbe06
     1f0:	0067ba0c 	rsbeq	fp, r7, ip, lsl #20
     1f4:	06010402 	streq	r0, [r1], -r2, lsl #8
     1f8:	00d7064a 	sbcseq	r0, r7, sl, asr #12
     1fc:	06010402 	streq	r0, [r1], -r2, lsl #8
     200:	85d70666 	ldrbhi	r0, [r7, #1638]	; 0x666
     204:	004bd984 	subeq	sp, fp, r4, lsl #19
     208:	06010402 	streq	r0, [r1], -r2, lsl #8
     20c:	00d7064a 	sbcseq	r0, r7, sl, asr #12
     210:	06010402 	streq	r0, [r1], -r2, lsl #8
     214:	2fd8064a 	svccs	0x00d8064a
     218:	9fbe682f 	svcls	0x00be682f
     21c:	01040200 	mrseq	r0, R12_usr
     220:	d7064a06 	strle	r4, [r6, -r6, lsl #20]
     224:	01040200 	mrseq	r0, R12_usr
     228:	d7066606 	strle	r6, [r6, -r6, lsl #12]
     22c:	19038383 	stmdbne	r3, {r0, r1, r7, r8, r9, pc}
     230:	5b082fba 	blpl	20c120 <__bss_end__+0x200438>
     234:	0402004b 	streq	r0, [r2], #-75	; 0x4b
     238:	4bd24b01 	blmi	ff492e44 <__bss_end__+0xff48715c>
     23c:	f20b0333 	vcge.s8	d0, d11, d19
     240:	030204bb 	movweq	r0, #9403	; 0x24bb
     244:	042e7fa6 	strteq	r7, [lr], #-4006	; 0xfa6
     248:	00dc0301 	sbcseq	r0, ip, r1, lsl #6
     24c:	044bac08 	strbeq	sl, [fp], #-3080	; 0xc08
     250:	7f8f0302 	svcvc	0x008f0302
     254:	01044bf2 	strdeq	r4, [r4, -r2]
     258:	d600f103 	strle	pc, [r0], -r3, lsl #2
     25c:	4e84f74b 	cdpmi	7, 8, cr15, cr4, cr11, {2}
     260:	4cbcbc86 	ldcmi	12, cr11, [ip], #536	; 0x218
     264:	31930831 	orrscc	r0, r3, r1, lsr r8
     268:	304c4b67 	subcc	r4, ip, r7, ror #22
     26c:	04020030 	streq	r0, [r2], #-48	; 0x30
     270:	a0868501 	addge	r8, r6, r1, lsl #10
     274:	68688383 	stmdavs	r8!, {r0, r1, r7, r8, r9, pc}^
     278:	4b661503 	blmi	198568c <__bss_end__+0x19799a4>
     27c:	674d2f4b 	strbvs	r2, [sp, -fp, asr #30]
     280:	d94b6767 	stmdble	fp, {r0, r1, r2, r5, r6, r8, r9, sl, sp, lr}^
     284:	9f9f9f67 	svcls	0x009f9f67
     288:	a04c9f9f 	umaalge	r9, ip, pc, pc	; <UNPREDICTABLE>
     28c:	0883bf84 	stmeq	r3, {r2, r7, r8, r9, sl, fp, ip, sp, pc}
     290:	02008321 	andeq	r8, r0, #-2080374784	; 0x84000000
     294:	512a0104 	teqpl	sl, r4, lsl #2
     298:	bcf3a0d7 	ldcllt	0, cr10, [r3], #860	; 0x35c
     29c:	02005a08 	andeq	r5, r0, #8, 20	; 0x8000
     2a0:	4a060104 	bmi	1806b8 <__bss_end__+0x1749d0>
     2a4:	2f2fd706 	svccs	0x002fd706
     2a8:	0200302f 	andeq	r3, r0, #47	; 0x2f
     2ac:	66060104 	strvs	r0, [r6], -r4, lsl #2
     2b0:	30674b06 	rsbcc	r4, r7, r6, lsl #22
     2b4:	4b2f2b4b 	blmi	bcafe8 <__bss_end__+0xbbf300>
     2b8:	00464b2f 	subeq	r4, r6, pc, lsr #22
     2bc:	06010402 	streq	r0, [r1], -r2, lsl #8
     2c0:	0052062e 	subseq	r0, r2, lr, lsr #12
     2c4:	06010402 	streq	r0, [r1], -r2, lsl #8
     2c8:	674b0666 	strbvs	r0, [fp, -r6, ror #12]
     2cc:	01040200 	mrseq	r0, R12_usr
     2d0:	02004a06 	andeq	r4, r0, #24576	; 0x6000
     2d4:	d8060204 	stmdale	r6, {r2, r9}
     2d8:	02040200 	andeq	r0, r4, #0, 4
     2dc:	0402004c 	streq	r0, [r2], #-76	; 0x4c
     2e0:	00694702 	rsbeq	r4, r9, r2, lsl #14
     2e4:	2b010402 	blcs	412f4 <__bss_end__+0x3560c>
     2e8:	e7084b51 	smlsd	r8, r1, fp, r4
     2ec:	522f2f2f 	eorpl	r2, pc, #47, 30	; 0xbc
     2f0:	01000402 	tsteq	r0, r2, lsl #8
     2f4:	00012201 	andeq	r2, r1, r1, lsl #4
     2f8:	d3000200 	movwle	r0, #512	; 0x200
     2fc:	02000000 	andeq	r0, r0, #0
     300:	0d0efb01 	vstreq	d15, [lr, #-4]
     304:	01010100 	mrseq	r0, (UNDEF: 17)
     308:	00000001 	andeq	r0, r0, r1
     30c:	01000001 	tsteq	r0, r1
     310:	6573552f 	ldrbvs	r5, [r3, #-1327]!	; 0x52f
     314:	622f7372 	eorvs	r7, pc, #-939524095	; 0xc8000001
     318:	6e616972 	mcrvs	9, 3, r6, cr1, cr2, {3}
     31c:	2f6e756a 	svccs	0x006e756a
     320:	6b736544 	blvs	1cd9838 <__bss_end__+0x1ccdb50>
     324:	2f706f74 	svccs	0x00706f74
     328:	6f686373 	svcvs	0x00686373
     32c:	572f6c6f 	strpl	r6, [pc, -pc, ror #24]!
     330:	65746e69 	ldrbvs	r6, [r4, #-3689]!	; 0xe69
     334:	32393172 	eorscc	r3, r9, #-2147483620	; 0x8000001c
     338:	53432f30 	movtpl	r2, #16176	; 0x3f30
     33c:	45303431 	ldrmi	r3, [r0, #-1073]!	; 0x431
     340:	3173632f 	cmncc	r3, pc, lsr #6
     344:	2d653034 	stclcs	0, cr3, [r5, #-208]!	; 0xffffff30
     348:	69773032 	ldmdbvs	r7!, {r1, r4, r5, ip, sp}^
     34c:	696c2f6e 	stmdbvs	ip!, {r1, r2, r3, r5, r6, r8, r9, sl, fp, sp}^
     350:	00697062 	rsbeq	r7, r9, r2, rrx
     354:	6573552f 	ldrbvs	r5, [r3, #-1327]!	; 0x52f
     358:	622f7372 	eorvs	r7, pc, #-939524095	; 0xc8000001
     35c:	6e616972 	mcrvs	9, 3, r6, cr1, cr2, {3}
     360:	2f6e756a 	svccs	0x006e756a
     364:	6b736544 	blvs	1cd987c <__bss_end__+0x1ccdb94>
     368:	2f706f74 	svccs	0x00706f74
     36c:	6f686373 	svcvs	0x00686373
     370:	572f6c6f 	strpl	r6, [pc, -pc, ror #24]!
     374:	65746e69 	ldrbvs	r6, [r4, #-3689]!	; 0xe69
     378:	32393172 	eorscc	r3, r9, #-2147483620	; 0x8000001c
     37c:	53432f30 	movtpl	r2, #16176	; 0x3f30
     380:	45303431 	ldrmi	r3, [r0, #-1073]!	; 0x431
     384:	3173632f 	cmncc	r3, pc, lsr #6
     388:	2d653034 	stclcs	0, cr3, [r5, #-208]!	; 0xffffff30
     38c:	69773032 	ldmdbvs	r7!, {r1, r4, r5, ip, sp}^
     390:	696c2f6e 	stmdbvs	ip!, {r1, r2, r3, r5, r6, r8, r9, sl, fp, sp}^
     394:	2f697062 	svccs	0x00697062
     398:	34317363 	ldrtcc	r7, [r1], #-867	; 0x363
     39c:	732d6530 	teqvc	sp, #48, 10	; 0xc000000
     3a0:	00006372 	andeq	r6, r0, r2, ror r3
     3a4:	70657473 	rsbvc	r7, r5, r3, ror r4
     3a8:	2e726570 	mrccs	5, 3, r6, cr2, cr0, {3}
     3ac:	00000063 	andeq	r0, r0, r3, rrx
     3b0:	65747300 	ldrbvs	r7, [r4, #-768]!	; 0x300
     3b4:	72657070 	rsbvc	r7, r5, #112	; 0x70
     3b8:	0000682e 	andeq	r6, r0, lr, lsr #16
     3bc:	70720000 	rsbsvc	r0, r2, r0
     3c0:	00682e69 	rsbeq	r2, r8, r9, ror #28
     3c4:	67000001 	strvs	r0, [r0, -r1]
     3c8:	2e6f6970 	mcrcs	9, 3, r6, cr15, cr0, {3}
     3cc:	00020068 	andeq	r0, r2, r8, rrx
     3d0:	05000000 	streq	r0, [r0, #-0]
     3d4:	008c4c02 	addeq	r4, ip, r2, lsl #24
     3d8:	68671600 	stmdavs	r7!, {r9, sl, ip}^
     3dc:	4d4b2f2f 	stclmi	15, cr2, [fp, #-188]	; 0xffffff44
     3e0:	4bf44b4d 	blmi	ffd1311c <__bss_end__+0xffd07434>
     3e4:	30676767 	rsbcc	r6, r7, r7, ror #14
     3e8:	6767674b 	strbvs	r6, [r7, -fp, asr #14]!
     3ec:	67674b30 			; <UNDEFINED> instruction: 0x67674b30
     3f0:	674b3067 	strbvs	r3, [fp, -r7, rrx]
     3f4:	4b306767 	blmi	c1a198 <__bss_end__+0xc0e4b0>
     3f8:	30676767 	rsbcc	r6, r7, r7, ror #14
     3fc:	689f2608 	ldmvs	pc, {r3, r9, sl, sp}	; <UNPREDICTABLE>
     400:	2f2f2f2f 	svccs	0x002f2f2f
     404:	4b4b4b4c 	blmi	12d313c <__bss_end__+0x12c7454>
     408:	4b4d4d4b 	blmi	135393c <__bss_end__+0x1347c54>
     40c:	85676767 	strbhi	r6, [r7, #-1895]!	; 0x767
     410:	6767674b 	strbvs	r6, [r7, -fp, asr #14]!
     414:	04021485 	streq	r1, [r2], #-1157	; 0x485
     418:	2d010100 	stfcss	f0, [r1, #-0]
     41c:	02000002 	andeq	r0, r0, #2
     420:	00018700 	andeq	r8, r1, r0, lsl #14
     424:	fb010200 	blx	40c2e <__bss_end__+0x34f46>
     428:	01000d0e 	tsteq	r0, lr, lsl #26
     42c:	00010101 	andeq	r0, r1, r1, lsl #2
     430:	00010000 	andeq	r0, r1, r0
     434:	752f0100 	strvc	r0, [pc, #-256]!	; 33c <_start-0x7cc4>
     438:	6c2f7273 	sfmvs	f7, 4, [pc], #-460	; 274 <_start-0x7d8c>
     43c:	6c61636f 	stclvs	3, cr6, [r1], #-444	; 0xfffffe44
     440:	6c65432f 	stclvs	3, cr4, [r5], #-188	; 0xffffff44
     444:	2f72616c 	svccs	0x0072616c
     448:	2d6d7261 	sfmcs	f7, 2, [sp, #-388]!	; 0xfffffe7c
     44c:	656e6f6e 	strbvs	r6, [lr, #-3950]!	; 0xf6e
     450:	6261652d 	rsbvs	r6, r1, #188743680	; 0xb400000
     454:	2e342f69 	cdpcs	15, 3, cr2, cr4, cr9, {3}
     458:	2d332e38 	ldccs	14, cr2, [r3, #-224]!	; 0xffffff20
     45c:	37317363 	ldrcc	r7, [r1, -r3, ror #6]!
     460:	6c2f6530 	cfstr32vs	mvfx6, [pc], #-192	; 3a8 <_start-0x7c58>
     464:	672f6269 	strvs	r6, [pc, -r9, ror #4]!
     468:	612f6363 	teqvs	pc, r3, ror #6
     46c:	6e2d6d72 	mcrvs	13, 1, r6, cr13, cr2, {3}
     470:	2d656e6f 	stclcs	14, cr6, [r5, #-444]!	; 0xfffffe44
     474:	69626165 	stmdbvs	r2!, {r0, r2, r5, r6, r8, sp, lr}^
     478:	382e342f 	stmdacc	lr!, {r0, r1, r2, r3, r5, sl, ip, sp}
     47c:	692f332e 	stmdbvs	pc!, {r1, r2, r3, r5, r8, r9, ip, sp}	; <UNPREDICTABLE>
     480:	756c636e 	strbvc	r6, [ip, #-878]!	; 0x36e
     484:	2f006564 	svccs	0x00006564
     488:	72657355 	rsbvc	r7, r5, #1409286145	; 0x54000001
     48c:	72622f73 	rsbvc	r2, r2, #460	; 0x1cc
     490:	6a6e6169 	bvs	1b98a3c <__bss_end__+0x1b8cd54>
     494:	442f6e75 	strtmi	r6, [pc], #-3701	; 49c <_start-0x7b64>
     498:	746b7365 	strbtvc	r7, [fp], #-869	; 0x365
     49c:	732f706f 	teqvc	pc, #111	; 0x6f
     4a0:	6f6f6863 	svcvs	0x006f6863
     4a4:	69572f6c 	ldmdbvs	r7, {r2, r3, r5, r6, r8, r9, sl, fp, sp}^
     4a8:	7265746e 	rsbvc	r7, r5, #1845493760	; 0x6e000000
     4ac:	30323931 	eorscc	r3, r2, r1, lsr r9
     4b0:	3153432f 	cmpcc	r3, pc, lsr #6
     4b4:	2f453034 	svccs	0x00453034
     4b8:	34317363 	ldrtcc	r7, [r1], #-867	; 0x363
     4bc:	322d6530 	eorcc	r6, sp, #48, 10	; 0xc000000
     4c0:	6e697730 	mcrvs	7, 3, r7, cr9, cr0, {1}
     4c4:	62696c2f 	rsbvs	r6, r9, #12032	; 0x2f00
     4c8:	632f6970 	teqvs	pc, #112, 18	; 0x1c0000
     4cc:	30343173 	eorscc	r3, r4, r3, ror r1
     4d0:	6e692d65 	cdpvs	13, 6, cr2, cr9, cr5, {3}
     4d4:	72726574 	rsbsvc	r6, r2, #116, 10	; 0x1d000000
     4d8:	00747075 	rsbseq	r7, r4, r5, ror r0
     4dc:	6573552f 	ldrbvs	r5, [r3, #-1327]!	; 0x52f
     4e0:	622f7372 	eorvs	r7, pc, #-939524095	; 0xc8000001
     4e4:	6e616972 	mcrvs	9, 3, r6, cr1, cr2, {3}
     4e8:	2f6e756a 	svccs	0x006e756a
     4ec:	6b736544 	blvs	1cd9a04 <__bss_end__+0x1ccdd1c>
     4f0:	2f706f74 	svccs	0x00706f74
     4f4:	6f686373 	svcvs	0x00686373
     4f8:	572f6c6f 	strpl	r6, [pc, -pc, ror #24]!
     4fc:	65746e69 	ldrbvs	r6, [r4, #-3689]!	; 0xe69
     500:	32393172 	eorscc	r3, r9, #-2147483620	; 0x8000001c
     504:	53432f30 	movtpl	r2, #16176	; 0x3f30
     508:	45303431 	ldrmi	r3, [r0, #-1073]!	; 0x431
     50c:	3173632f 	cmncc	r3, pc, lsr #6
     510:	2d653034 	stclcs	0, cr3, [r5, #-208]!	; 0xffffff30
     514:	69773032 	ldmdbvs	r7!, {r1, r4, r5, ip, sp}^
     518:	696c2f6e 	stmdbvs	ip!, {r1, r2, r3, r5, r6, r8, r9, sl, fp, sp}^
     51c:	00697062 	rsbeq	r7, r9, r2, rrx
     520:	682e5100 	stmdavs	lr!, {r8, ip, lr}
     524:	00000000 	andeq	r0, r0, r0
     528:	70657473 	rsbvc	r7, r5, r3, ror r4
     52c:	2d726570 	cfldr64cs	mvdx6, [r2, #-448]!	; 0xfffffe40
     530:	2e746e69 	cdpcs	14, 7, cr6, cr4, cr9, {3}
     534:	00000063 	andeq	r0, r0, r3, rrx
     538:	65747300 	ldrbvs	r7, [r4, #-768]!	; 0x300
     53c:	72657070 	rsbvc	r7, r5, #112	; 0x70
     540:	0000682e 	andeq	r6, r0, lr, lsr #16
     544:	74730000 	ldrbtvc	r0, [r3], #-0
     548:	65707065 	ldrbvs	r7, [r0, #-101]!	; 0x65
     54c:	6e692d72 	mcrvs	13, 3, r2, cr9, cr2, {3}
     550:	00682e74 	rsbeq	r2, r8, r4, ror lr
     554:	73000000 	movwvc	r0, #0
     558:	6e696474 	mcrvs	4, 3, r6, cr9, cr4, {3}
     55c:	63672d74 	cmnvs	r7, #116, 26	; 0x1d00
     560:	00682e63 	rsbeq	r2, r8, r3, ror #28
     564:	72000001 	andvc	r0, r0, #1
     568:	612d6970 	teqvs	sp, r0, ror r9
     56c:	69746d72 	ldmdbvs	r4!, {r1, r4, r5, r6, r8, sl, fp, sp, lr}^
     570:	2e72656d 	cdpcs	5, 7, cr6, cr2, cr13, {3}
     574:	00020068 	andeq	r0, r2, r8, rrx
     578:	69707200 	ldmdbvs	r0!, {r9, ip, sp, lr}^
     57c:	746e692d 	strbtvc	r6, [lr], #-2349	; 0x92d
     580:	75727265 	ldrbvc	r7, [r2, #-613]!	; 0x265
     584:	2e737470 	mrccs	4, 3, r7, cr3, cr0, {3}
     588:	00020068 	andeq	r0, r2, r8, rrx
     58c:	69707200 	ldmdbvs	r0!, {r9, ip, sp, lr}^
     590:	0300682e 	movweq	r6, #2094	; 0x82e
     594:	69740000 	ldmdbvs	r4!, {}^	; <UNPREDICTABLE>
     598:	2d72656d 	cfldr64cs	mvdx6, [r2, #-436]!	; 0xfffffe4c
     59c:	65746e69 	ldrbvs	r6, [r4, #-3689]!	; 0xe69
     5a0:	70757272 	rsbsvc	r7, r5, r2, ror r2
     5a4:	00682e74 	rsbeq	r2, r8, r4, ror lr
     5a8:	00000002 	andeq	r0, r0, r2
     5ac:	a8020500 	stmdage	r2, {r8, sl}
     5b0:	0300008e 	movweq	r0, #142	; 0x8e
     5b4:	0301010e 	movweq	r0, #4366	; 0x110e
     5b8:	4b134a20 	blmi	4d2e40 <__bss_end__+0x4c7158>
     5bc:	2f686767 	svccs	0x00686767
     5c0:	2f4a5d03 	svccs	0x004a5d03
     5c4:	0402006c 	streq	r0, [r2], #-108	; 0x6c
     5c8:	06660601 	strbteq	r0, [r6], -r1, lsl #12
     5cc:	852f50d1 	strhi	r5, [pc, #-209]!	; 503 <_start-0x7afd>
     5d0:	0402002f 	streq	r0, [r2], #-47	; 0x2f
     5d4:	064a0601 	strbeq	r0, [sl], -r1, lsl #12
     5d8:	004b2fd8 	ldrdeq	r2, [fp], #-248	; 0xffffff08
     5dc:	06010402 	streq	r0, [r1], -r2, lsl #8
     5e0:	67d90666 	ldrbvs	r0, [r9, r6, ror #12]
     5e4:	032f2f4b 	teqeq	pc, #300	; 0x12c
     5e8:	04354a7a 	ldrteq	r4, [r5], #-2682	; 0xa7a
     5ec:	8767a402 	strbhi	sl, [r7, -r2, lsl #8]!
     5f0:	83834b67 	orrhi	r4, r3, #105472	; 0x19c00
     5f4:	2f67834d 	svccs	0x0067834d
     5f8:	03304b4b 	teqeq	r0, #76800	; 0x12c00
     5fc:	13034a6e 	movwne	r4, #14958	; 0x3a6e
     600:	082f682e 	stmdaeq	pc!, {r1, r2, r3, r5, fp, sp, lr}	; <UNPREDICTABLE>
     604:	674b8340 	strbvs	r8, [fp, -r0, asr #6]
     608:	2f2f2f2f 	svccs	0x002f2f2f
     60c:	4b2f4c69 	blmi	bd37b8 <__bss_end__+0xbc7ad0>
     610:	2e7fb203 	cdpcs	2, 7, cr11, cr15, cr3, {0}
     614:	4c4b2f30 	mcrrmi	15, 3, r2, fp, cr0
     618:	034b3067 	movteq	r3, #45159	; 0xb067
     61c:	76034a11 			; <UNDEFINED> instruction: 0x76034a11
     620:	2e79032e 	cdpcs	3, 7, cr0, cr9, cr14, {1}
     624:	679f4b2f 	ldrvs	r4, [pc, pc, lsr #22]
     628:	4b4b674b 	blmi	12da35c <__bss_end__+0x12ce674>
     62c:	4c68679f 	stclmi	7, cr6, [r8], #-636	; 0xfffffd84
     630:	2e6f034d 	cdpcs	3, 6, cr0, cr15, cr13, {2}
     634:	01040200 	mrseq	r0, R12_usr
     638:	03062e06 	movweq	r2, #28166	; 0x6e06
     63c:	032fd616 	teqeq	pc, #23068672	; 0x1600000
     640:	2f134a2f 	svccs	0x00134a2f
     644:	022f1384 	eoreq	r1, pc, #132, 6	; 0x10000002
     648:	01010008 	tsteq	r1, r8
     64c:	00000241 	andeq	r0, r0, r1, asr #4
     650:	01040002 	tsteq	r4, r2
     654:	01020000 	mrseq	r0, (UNDEF: 2)
     658:	000d0efb 	strdeq	r0, [sp], -fp
     65c:	01010101 	tsteq	r1, r1, lsl #2
     660:	01000000 	mrseq	r0, (UNDEF: 0)
     664:	2f010000 	svccs	0x00010000
     668:	2f727375 	svccs	0x00727375
     66c:	2f62696c 	svccs	0x0062696c
     670:	2f636367 	svccs	0x00636367
     674:	2d6d7261 	sfmcs	f7, 2, [sp, #-388]!	; 0xfffffe7c
     678:	656e6f6e 	strbvs	r6, [lr, #-3950]!	; 0xf6e
     67c:	6261652d 	rsbvs	r6, r1, #188743680	; 0xb400000
     680:	2e362f69 	cdpcs	15, 3, cr2, cr6, cr9, {3}
     684:	2f312e33 	svccs	0x00312e33
     688:	6c636e69 	stclvs	14, cr6, [r3], #-420	; 0xfffffe5c
     68c:	00656475 	rsbeq	r6, r5, r5, ror r4
     690:	7273752f 	rsbsvc	r7, r3, #197132288	; 0xbc00000
     694:	636e692f 	cmnvs	lr, #770048	; 0xbc000
     698:	6564756c 	strbvs	r7, [r4, #-1388]!	; 0x56c
     69c:	77656e2f 	strbvc	r6, [r5, -pc, lsr #28]!
     6a0:	2f62696c 	svccs	0x0062696c
     6a4:	00737973 	rsbseq	r7, r3, r3, ror r9
     6a8:	6d6f682f 	stclvs	8, cr6, [pc, #-188]!	; 5f4 <_start-0x7a0c>
     6ac:	6e652f65 	cdpvs	15, 6, cr2, cr5, cr5, {3}
     6b0:	72656c67 	rsbvc	r6, r5, #26368	; 0x6700
     6b4:	616c632f 	cmnvs	ip, pc, lsr #6
     6b8:	632f7373 	teqvs	pc, #-872415231	; 0xcc000001
     6bc:	30343173 	eorscc	r3, r4, r3, ror r1
     6c0:	30322d65 	eorscc	r2, r2, r5, ror #26
     6c4:	2f6e6977 	svccs	0x006e6977
     6c8:	7062696c 	rsbvc	r6, r2, ip, ror #18
     6cc:	682f0069 	stmdavs	pc!, {r0, r3, r5, r6}	; <UNPREDICTABLE>
     6d0:	2f656d6f 	svccs	0x00656d6f
     6d4:	6c676e65 	stclvs	14, cr6, [r7], #-404	; 0xfffffe6c
     6d8:	632f7265 	teqvs	pc, #1342177286	; 0x50000006
     6dc:	7373616c 	cmnvc	r3, #108, 2
     6e0:	3173632f 	cmncc	r3, pc, lsr #6
     6e4:	2d653034 	stclcs	0, cr3, [r5, #-208]!	; 0xffffff30
     6e8:	69773032 	ldmdbvs	r7!, {r1, r4, r5, ip, sp}^
     6ec:	696c2f6e 	stmdbvs	ip!, {r1, r2, r3, r5, r6, r8, r9, sl, fp, sp}^
     6f0:	2f697062 	svccs	0x00697062
     6f4:	34317363 	ldrtcc	r7, [r1], #-867	; 0x363
     6f8:	732d6530 	teqvc	sp, #48, 10	; 0xc000000
     6fc:	00006372 	andeq	r6, r0, r2, ror r3
     700:	2e633269 	cdpcs	2, 6, cr3, cr3, cr9, {3}
     704:	00000063 	andeq	r0, r0, r3, rrx
     708:	64747300 	ldrbtvs	r7, [r4], #-768	; 0x300
     70c:	2d746e69 	ldclcs	14, cr6, [r4, #-420]!	; 0xfffffe5c
     710:	2e636367 	cdpcs	3, 6, cr6, cr3, cr7, {3}
     714:	00010068 	andeq	r0, r1, r8, rrx
     718:	636f6c00 	cmnvs	pc, #0, 24
     71c:	00682e6b 	rsbeq	r2, r8, fp, ror #28
     720:	5f000002 	svcpl	0x00000002
     724:	65707974 	ldrbvs	r7, [r0, #-2420]!	; 0x974
     728:	00682e73 	rsbeq	r2, r8, r3, ror lr
     72c:	73000002 	movwvc	r0, #2
     730:	65646474 	strbvs	r6, [r4, #-1140]!	; 0x474
     734:	00682e66 	rsbeq	r2, r8, r6, ror #28
     738:	72000001 	andvc	r0, r0, #1
     73c:	746e6565 	strbtvc	r6, [lr], #-1381	; 0x565
     740:	0200682e 	andeq	r6, r0, #3014656	; 0x2e0000
     744:	70720000 	rsbsvc	r0, r2, r0
     748:	00682e69 	rsbeq	r2, r8, r9, ror #28
     74c:	67000003 	strvs	r0, [r0, -r3]
     750:	2e6f6970 	mcrcs	9, 3, r6, cr15, cr0, {3}
     754:	00040068 	andeq	r0, r4, r8, rrx
     758:	05000000 	streq	r0, [r0, #-0]
     75c:	00922002 	addseq	r2, r2, r2
     760:	00f30300 	rscseq	r0, r3, r0, lsl #6
     764:	2f2f1301 	svccs	0x002f1301
     768:	3703302f 	strcc	r3, [r3, -pc, lsr #32]
     76c:	034c132e 	movteq	r1, #49966	; 0xc32e
     770:	032e01b5 	teqeq	lr, #1073741869	; 0x4000002d
     774:	8b032e1d 	blhi	cbff0 <__bss_end__+0xc0308>
     778:	02002e7f 	andeq	r2, r0, #2032	; 0x7f0
     77c:	00300404 	eorseq	r0, r0, r4, lsl #8
     780:	06050402 	streq	r0, [r5], -r2, lsl #8
     784:	04020082 	streq	r0, [r2], #-130	; 0x82
     788:	02008202 	andeq	r8, r0, #536870912	; 0x20000000
     78c:	00820304 	addeq	r0, r2, r4, lsl #6
     790:	d6010402 	strle	r0, [r1], -r2, lsl #8
     794:	8484d906 	strhi	sp, [r4], #2310	; 0x906
     798:	01040200 	mrseq	r0, R12_usr
     79c:	04020046 	streq	r0, [r2], #-70	; 0x46
     7a0:	9d03d801 	stcls	8, cr13, [r3, #-4]
     7a4:	2fe4087f 	svccs	0x00e4087f
     7a8:	2e2d034b 	cdpcs	3, 2, cr0, cr13, cr11, {2}
     7ac:	0334672f 	teqeq	r4, #12320768	; 0xbc0000
     7b0:	2f9e7f8f 	svccs	0x009e7f8f
     7b4:	00f2034b 	rscseq	r0, r2, fp, asr #6
     7b8:	0200832e 	andeq	r8, r0, #-1207959552	; 0xb8000000
     7bc:	00310404 	eorseq	r0, r1, r4, lsl #8
     7c0:	06050402 	streq	r0, [r5], -r2, lsl #8
     7c4:	04020082 	streq	r0, [r2], #-130	; 0x82
     7c8:	02008202 	andeq	r8, r0, #536870912	; 0x20000000
     7cc:	00820304 	addeq	r0, r2, r4, lsl #6
     7d0:	d6010402 	strle	r0, [r1], -r2, lsl #8
     7d4:	3184d906 	orrcc	sp, r4, r6, lsl #18
     7d8:	684b694b 	stmdavs	fp, {r0, r1, r3, r6, r8, fp, sp, lr}^
     7dc:	004b2f68 	subeq	r2, fp, r8, ror #30
     7e0:	6e040402 	cdpvs	4, 0, cr0, cr4, cr2, {0}
     7e4:	05040200 	streq	r0, [r4, #-512]	; 0x200
     7e8:	02008206 	andeq	r8, r0, #1610612736	; 0x60000000
     7ec:	00820204 	addeq	r0, r2, r4, lsl #4
     7f0:	82030402 	andhi	r0, r3, #33554432	; 0x2000000
     7f4:	01040200 	mrseq	r0, R12_usr
     7f8:	d6680306 	strbtle	r0, [r8], -r6, lsl #6
     7fc:	01040200 	mrseq	r0, R12_usr
     800:	040200db 	streq	r0, [r2], #-219	; 0xdb
     804:	0200da01 	andeq	sp, r0, #4096	; 0x1000
     808:	0f030104 	svceq	0x00030104
     80c:	0f03d7d6 	svceq	0x0003d7d6
     810:	68677408 	stmdavs	r7!, {r3, sl, ip, sp, lr}^
     814:	01040200 	mrseq	r0, R12_usr
     818:	0402004c 	streq	r0, [r2], #-76	; 0x4c
     81c:	0200d902 	andeq	sp, r0, #32768	; 0x8000
     820:	00610204 	rsbeq	r0, r1, r4, lsl #4
     824:	06010402 	streq	r0, [r1], -r2, lsl #8
     828:	0402002e 	streq	r0, [r2], #-46	; 0x2e
     82c:	004c0604 	subeq	r0, ip, r4, lsl #12
     830:	06050402 	streq	r0, [r5], -r2, lsl #8
     834:	04020082 	streq	r0, [r2], #-130	; 0x82
     838:	02008202 	andeq	r8, r0, #536870912	; 0x20000000
     83c:	06820304 	streq	r0, [r2], r4, lsl #6
     840:	67f530dc 	ubfxvs	r3, ip, #1, #22
     844:	04020069 	streq	r0, [r2], #-105	; 0x69
     848:	02004c01 	andeq	r4, r0, #256	; 0x100
     84c:	00d90204 	sbcseq	r0, r9, r4, lsl #4
     850:	61020402 	tstvs	r2, r2, lsl #8
     854:	01040200 	mrseq	r0, R12_usr
     858:	02002e06 	andeq	r2, r0, #6, 28	; 0x60
     85c:	4c060404 	cfstrsmi	mvf0, [r6], {4}
     860:	05040200 	streq	r0, [r4, #-512]	; 0x200
     864:	02008206 	andeq	r8, r0, #1610612736	; 0x60000000
     868:	00820204 	addeq	r0, r2, r4, lsl #4
     86c:	82030402 	andhi	r0, r3, #33554432	; 0x2000000
     870:	db30dc06 	blle	c37890 <__bss_end__+0xc2bba8>
     874:	302f8a14 	eorcc	r8, pc, r4, lsl sl	; <UNPREDICTABLE>
     878:	34686732 	strbtcc	r6, [r8], #-1842	; 0x732
     87c:	2f303084 	svccs	0x00303084
     880:	04020068 	streq	r0, [r2], #-104	; 0x68
     884:	62038001 	andvs	r8, r3, #1
     888:	682f9008 	stmdavs	pc!, {r3, ip, pc}	; <UNPREDICTABLE>
     88c:	01000402 	tsteq	r0, r2, lsl #8
     890:	00010201 	andeq	r0, r1, r1, lsl #4
     894:	eb000200 	bl	109c <_start-0x6f64>
     898:	02000000 	andeq	r0, r0, #0
     89c:	0d0efb01 	vstreq	d15, [lr, #-4]
     8a0:	01010100 	mrseq	r0, (UNDEF: 17)
     8a4:	00000001 	andeq	r0, r0, r1
     8a8:	01000001 	tsteq	r0, r1
     8ac:	6362696c 	cmnvs	r2, #108, 18	; 0x1b0000
     8b0:	73752f00 	cmnvc	r5, #0, 30
     8b4:	6f6c2f72 	svcvs	0x006c2f72
     8b8:	2f6c6163 	svccs	0x006c6163
     8bc:	6c6c6543 	cfstr64vs	mvdx6, [ip], #-268	; 0xfffffef4
     8c0:	612f7261 	teqvs	pc, r1, ror #4
     8c4:	6e2d6d72 	mcrvs	13, 1, r6, cr13, cr2, {3}
     8c8:	2d656e6f 	stclcs	14, cr6, [r5, #-444]!	; 0xfffffe44
     8cc:	69626165 	stmdbvs	r2!, {r0, r2, r5, r6, r8, sp, lr}^
     8d0:	382e342f 	stmdacc	lr!, {r0, r1, r2, r3, r5, sl, ip, sp}
     8d4:	632d332e 	teqvs	sp, #-1207959552	; 0xb8000000
     8d8:	30373173 	eorscc	r3, r7, r3, ror r1
     8dc:	696c2f65 	stmdbvs	ip!, {r0, r2, r5, r6, r8, r9, sl, fp, sp}^
     8e0:	63672f62 	cmnvs	r7, #392	; 0x188
     8e4:	72612f63 	rsbvc	r2, r1, #396	; 0x18c
     8e8:	6f6e2d6d 	svcvs	0x006e2d6d
     8ec:	652d656e 	strvs	r6, [sp, #-1390]!	; 0x56e
     8f0:	2f696261 	svccs	0x00696261
     8f4:	2e382e34 	mrccs	14, 1, r2, cr8, cr4, {1}
     8f8:	6e692f33 	mcrvs	15, 3, r2, cr9, cr3, {1}
     8fc:	64756c63 	ldrbtvs	r6, [r5], #-3171	; 0xc63
     900:	552f0065 	strpl	r0, [pc, #-101]!	; 8a3 <_start-0x775d>
     904:	73726573 	cmnvc	r2, #482344960	; 0x1cc00000
     908:	6972622f 	ldmdbvs	r2!, {r0, r1, r2, r3, r5, r9, sp, lr}^
     90c:	756a6e61 	strbvc	r6, [sl, #-3681]!	; 0xe61
     910:	65442f6e 	strbvs	r2, [r4, #-3950]	; 0xf6e
     914:	6f746b73 	svcvs	0x00746b73
     918:	63732f70 	cmnvs	r3, #112, 30	; 0x1c0
     91c:	6c6f6f68 	stclvs	15, cr6, [pc], #-416	; 784 <_start-0x787c>
     920:	6e69572f 	cdpvs	7, 6, cr5, cr9, cr15, {1}
     924:	31726574 	cmncc	r2, r4, ror r5
     928:	2f303239 	svccs	0x00303239
     92c:	34315343 	ldrtcc	r5, [r1], #-835	; 0x343
     930:	632f4530 	teqvs	pc, #48, 10	; 0xc000000
     934:	30343173 	eorscc	r3, r4, r3, ror r1
     938:	30322d65 	eorscc	r2, r2, r5, ror #26
     93c:	2f6e6977 	svccs	0x006e6977
     940:	7062696c 	rsbvc	r6, r2, ip, ror #18
     944:	70000069 	andvc	r0, r0, r9, rrx
     948:	746e6972 	strbtvc	r6, [lr], #-2418	; 0x972
     94c:	00632e6b 	rsbeq	r2, r3, fp, ror #28
     950:	73000001 	movwvc	r0, #1
     954:	72616474 	rsbvc	r6, r1, #116, 8	; 0x74000000
     958:	00682e67 	rsbeq	r2, r8, r7, ror #28
     95c:	3c000002 	stccc	0, cr0, [r0], {2}
     960:	6c697562 	cfstr64vs	mvdx7, [r9], #-392	; 0xfffffe78
     964:	6e692d74 	mcrvs	13, 3, r2, cr9, cr4, {3}
     968:	0000003e 	andeq	r0, r0, lr, lsr r0
     96c:	69707200 	ldmdbvs	r0!, {r9, ip, sp, lr}^
     970:	0300682e 	movweq	r6, #2094	; 0x82e
     974:	61760000 	cmnvs	r6, r0
     978:	6972702d 	ldmdbvs	r2!, {r0, r2, r3, r5, ip, sp, lr}^
     97c:	2e6b746e 	cdpcs	4, 6, cr7, cr11, cr14, {3}
     980:	00010068 	andeq	r0, r1, r8, rrx
     984:	05000000 	streq	r0, [r0, #-0]
     988:	00978802 	addseq	r8, r7, r2, lsl #16
     98c:	4b6b1700 	blmi	1ac6594 <__bss_end__+0x1aba8ac>
     990:	0e0289bf 	mcreq	9, 0, r8, cr2, cr15, {5}
     994:	8a010100 	bhi	40d9c <__bss_end__+0x350b4>
     998:	02000000 	andeq	r0, r0, #0
     99c:	00007200 	andeq	r7, r0, r0, lsl #4
     9a0:	fb010200 	blx	411aa <__bss_end__+0x354c2>
     9a4:	01000d0e 	tsteq	r0, lr, lsl #26
     9a8:	00010101 	andeq	r0, r1, r1, lsl #2
     9ac:	00010000 	andeq	r0, r1, r0
     9b0:	696c0100 	stmdbvs	ip!, {r8}^
     9b4:	2f006362 	svccs	0x00006362
     9b8:	72657355 	rsbvc	r7, r5, #1409286145	; 0x54000001
     9bc:	72622f73 	rsbvc	r2, r2, #460	; 0x1cc
     9c0:	6a6e6169 	bvs	1b98f6c <__bss_end__+0x1b8d284>
     9c4:	442f6e75 	strtmi	r6, [pc], #-3701	; 9cc <_start-0x7634>
     9c8:	746b7365 	strbtvc	r7, [fp], #-869	; 0x365
     9cc:	732f706f 	teqvc	pc, #111	; 0x6f
     9d0:	6f6f6863 	svcvs	0x006f6863
     9d4:	69572f6c 	ldmdbvs	r7, {r2, r3, r5, r6, r8, r9, sl, fp, sp}^
     9d8:	7265746e 	rsbvc	r7, r5, #1845493760	; 0x6e000000
     9dc:	30323931 	eorscc	r3, r2, r1, lsr r9
     9e0:	3153432f 	cmpcc	r3, pc, lsr #6
     9e4:	2f453034 	svccs	0x00453034
     9e8:	34317363 	ldrtcc	r7, [r1], #-867	; 0x363
     9ec:	322d6530 	eorcc	r6, sp, #48, 10	; 0xc000000
     9f0:	6e697730 	mcrvs	7, 3, r7, cr9, cr0, {1}
     9f4:	62696c2f 	rsbvs	r6, r9, #12032	; 0x2f00
     9f8:	00006970 	andeq	r6, r0, r0, ror r9
     9fc:	63747570 	cmnvs	r4, #112, 10	; 0x1c000000
     a00:	2e726168 	rpwcssz	f6, f2, #0.0
     a04:	00010063 	andeq	r0, r1, r3, rrx
     a08:	69707200 	ldmdbvs	r0!, {r9, ip, sp, lr}^
     a0c:	0200682e 	andeq	r6, r0, #3014656	; 0x2e0000
     a10:	00000000 	andeq	r0, r0, r0
     a14:	97e00205 	strbls	r0, [r0, r5, lsl #4]!
     a18:	4a140000 	bmi	500a20 <__bss_end__+0x4f4d38>
     a1c:	13bc136b 			; <UNDEFINED> instruction: 0x13bc136b
     a20:	01000802 	tsteq	r0, r2, lsl #16
     a24:	00009601 	andeq	r9, r0, r1, lsl #12
     a28:	6f000200 	svcvs	0x00000200
     a2c:	02000000 	andeq	r0, r0, #0
     a30:	0d0efb01 	vstreq	d15, [lr, #-4]
     a34:	01010100 	mrseq	r0, (UNDEF: 17)
     a38:	00000001 	andeq	r0, r0, r1
     a3c:	01000001 	tsteq	r0, r1
     a40:	6362696c 	cmnvs	r2, #108, 18	; 0x1b0000
     a44:	73552f00 	cmpvc	r5, #0, 30
     a48:	2f737265 	svccs	0x00737265
     a4c:	61697262 	cmnvs	r9, r2, ror #4
     a50:	6e756a6e 	vsubvs.f32	s13, s10, s29
     a54:	7365442f 	cmnvc	r5, #788529152	; 0x2f000000
     a58:	706f746b 	rsbvc	r7, pc, fp, ror #8
     a5c:	6863732f 	stmdavs	r3!, {r0, r1, r2, r3, r5, r8, r9, ip, sp, lr}^
     a60:	2f6c6f6f 	svccs	0x006c6f6f
     a64:	746e6957 	strbtvc	r6, [lr], #-2391	; 0x957
     a68:	39317265 	ldmdbcc	r1!, {r0, r2, r5, r6, r9, ip, sp, lr}
     a6c:	432f3032 	teqmi	pc, #50	; 0x32
     a70:	30343153 	eorscc	r3, r4, r3, asr r1
     a74:	73632f45 	cmnvc	r3, #276	; 0x114
     a78:	65303431 	ldrvs	r3, [r0, #-1073]!	; 0x431
     a7c:	7730322d 	ldrvc	r3, [r0, -sp, lsr #4]!
     a80:	6c2f6e69 	stcvs	14, cr6, [pc], #-420	; 8e4 <_start-0x771c>
     a84:	69706269 	ldmdbvs	r0!, {r0, r3, r5, r6, r9, sp, lr}^
     a88:	75700000 	ldrbvc	r0, [r0, #-0]!
     a8c:	632e6b74 	teqvs	lr, #116, 22	; 0x1d000
     a90:	00000100 	andeq	r0, r0, r0, lsl #2
     a94:	2e697072 	mcrcs	0, 3, r7, cr9, cr2, {3}
     a98:	00020068 	andeq	r0, r2, r8, rrx
     a9c:	05000000 	streq	r0, [r0, #-0]
     aa0:	00981c02 	addseq	r1, r8, r2, lsl #24
     aa4:	2d4c1500 	cfstr64cs	mvdx1, [ip, #-0]
     aa8:	02040200 	andeq	r0, r4, #0, 4
     aac:	0402002f 	streq	r0, [r2], #-47	; 0x2f
     ab0:	02004902 	andeq	r4, r0, #32768	; 0x8000
     ab4:	2e060104 	adfcss	f0, f6, f4
     ab8:	06026b06 	streq	r6, [r2], -r6, lsl #22
     abc:	de010100 	adfles	f0, f1, f0
     ac0:	02000001 	andeq	r0, r0, #1
     ac4:	0000df00 	andeq	sp, r0, r0, lsl #30
     ac8:	fb010200 	blx	412d2 <__bss_end__+0x355ea>
     acc:	01000d0e 	tsteq	r0, lr, lsl #26
     ad0:	00010101 	andeq	r0, r1, r1, lsl #2
     ad4:	00010000 	andeq	r0, r1, r0
     ad8:	696c0100 	stmdbvs	ip!, {r8}^
     adc:	2f006362 	svccs	0x00006362
     ae0:	2f727375 	svccs	0x00727375
     ae4:	61636f6c 	cmnvs	r3, ip, ror #30
     ae8:	65432f6c 	strbvs	r2, [r3, #-3948]	; 0xf6c
     aec:	72616c6c 	rsbvc	r6, r1, #108, 24	; 0x6c00
     af0:	6d72612f 	ldfvse	f6, [r2, #-188]!	; 0xffffff44
     af4:	6e6f6e2d 	cdpvs	14, 6, cr6, cr15, cr13, {1}
     af8:	61652d65 	cmnvs	r5, r5, ror #26
     afc:	342f6962 	strtcc	r6, [pc], #-2402	; b04 <_start-0x74fc>
     b00:	332e382e 	teqcc	lr, #3014656	; 0x2e0000
     b04:	3173632d 	cmncc	r3, sp, lsr #6
     b08:	2f653037 	svccs	0x00653037
     b0c:	2f62696c 	svccs	0x0062696c
     b10:	2f636367 	svccs	0x00636367
     b14:	2d6d7261 	sfmcs	f7, 2, [sp, #-388]!	; 0xfffffe7c
     b18:	656e6f6e 	strbvs	r6, [lr, #-3950]!	; 0xf6e
     b1c:	6261652d 	rsbvs	r6, r1, #188743680	; 0xb400000
     b20:	2e342f69 	cdpcs	15, 3, cr2, cr4, cr9, {3}
     b24:	2f332e38 	svccs	0x00332e38
     b28:	6c636e69 	stclvs	14, cr6, [r3], #-420	; 0xfffffe5c
     b2c:	00656475 	rsbeq	r6, r5, r5, ror r4
     b30:	6573552f 	ldrbvs	r5, [r3, #-1327]!	; 0x52f
     b34:	622f7372 	eorvs	r7, pc, #-939524095	; 0xc8000001
     b38:	6e616972 	mcrvs	9, 3, r6, cr1, cr2, {3}
     b3c:	2f6e756a 	svccs	0x006e756a
     b40:	6b736544 	blvs	1cda058 <__bss_end__+0x1cce370>
     b44:	2f706f74 	svccs	0x00706f74
     b48:	6f686373 	svcvs	0x00686373
     b4c:	572f6c6f 	strpl	r6, [pc, -pc, ror #24]!
     b50:	65746e69 	ldrbvs	r6, [r4, #-3689]!	; 0xe69
     b54:	32393172 	eorscc	r3, r9, #-2147483620	; 0x8000001c
     b58:	53432f30 	movtpl	r2, #16176	; 0x3f30
     b5c:	45303431 	ldrmi	r3, [r0, #-1073]!	; 0x431
     b60:	3173632f 	cmncc	r3, pc, lsr #6
     b64:	2d653034 	stclcs	0, cr3, [r5, #-208]!	; 0xffffff30
     b68:	69773032 	ldmdbvs	r7!, {r1, r4, r5, ip, sp}^
     b6c:	696c2f6e 	stmdbvs	ip!, {r1, r2, r3, r5, r6, r8, r9, sl, fp, sp}^
     b70:	00697062 	rsbeq	r7, r9, r2, rrx
     b74:	2d617600 	stclcs	6, cr7, [r1, #-0]
     b78:	6e697270 	mcrvs	2, 3, r7, cr9, cr0, {3}
     b7c:	632e6b74 	teqvs	lr, #116, 22	; 0x1d000
     b80:	00000100 	andeq	r0, r0, r0, lsl #2
     b84:	61647473 	smcvs	18243	; 0x4743
     b88:	682e6772 	stmdavs	lr!, {r1, r4, r5, r6, r8, r9, sl, sp, lr}
     b8c:	00000200 	andeq	r0, r0, r0, lsl #4
     b90:	2e697072 	mcrcs	0, 3, r7, cr9, cr2, {3}
     b94:	00030068 	andeq	r0, r3, r8, rrx
     b98:	75623c00 	strbvc	r3, [r2, #-3072]!	; 0xc00
     b9c:	2d746c69 	ldclcs	12, cr6, [r4, #-420]!	; 0xfffffe5c
     ba0:	003e6e69 	eorseq	r6, lr, r9, ror #28
     ba4:	00000000 	andeq	r0, r0, r0
     ba8:	50020500 	andpl	r0, r2, r0, lsl #10
     bac:	03000098 	movweq	r0, #152	; 0x98
     bb0:	a5010126 	strge	r0, [r1, #-294]	; 0x126
     bb4:	002d3113 	eoreq	r3, sp, r3, lsl r1
     bb8:	2f020402 	svccs	0x00020402
     bbc:	02040200 	andeq	r0, r4, #0, 4
     bc0:	0402002d 	streq	r0, [r2], #-45	; 0x2d
     bc4:	02002f02 	andeq	r2, r0, #2, 30
     bc8:	4c2d0104 	stfmis	f0, [sp], #-16
     bcc:	4b14304c 	blmi	50cd04 <__bss_end__+0x50101c>
     bd0:	02004f2f 	andeq	r4, r0, #47, 30	; 0xbc
     bd4:	00670204 	rsbeq	r0, r7, r4, lsl #4
     bd8:	65010402 	strvs	r0, [r1, #-1026]	; 0x402
     bdc:	a0304d4c 	eorsge	r4, r0, ip, asr #26
     be0:	0230312f 	eorseq	r3, r0, #-1073741813	; 0xc000000b
     be4:	2d841626 	stccs	6, cr1, [r4, #152]	; 0x98
     be8:	0402002c 	streq	r0, [r2], #-44	; 0x2c
     bec:	02003001 	andeq	r3, r0, #1
     bf0:	06330104 	ldrteq	r0, [r3], -r4, lsl #2
     bf4:	04020066 	streq	r0, [r2], #-102	; 0x66
     bf8:	02002e01 	andeq	r2, r0, #1, 28
     bfc:	08060104 	stmdaeq	r6, {r2, r8}
     c00:	032f6721 	teqeq	pc, #8650752	; 0x840000
     c04:	13038273 	movwne	r8, #12915	; 0x3273
     c08:	0402002e 	streq	r0, [r2], #-46	; 0x2e
     c0c:	002e0601 	eoreq	r0, lr, r1, lsl #12
     c10:	06010402 	streq	r0, [r1], -r2, lsl #8
     c14:	034b6a9f 	movteq	r6, #47775	; 0xba9f
     c18:	21032e67 	tstcs	r3, r7, ror #28
     c1c:	0402002e 	streq	r0, [r2], #-46	; 0x2e
     c20:	002e0601 	eoreq	r0, lr, r1, lsl #12
     c24:	06010402 	streq	r0, [r1], -r2, lsl #8
     c28:	0402009f 	streq	r0, [r2], #-159	; 0x9f
     c2c:	f3d96a01 	vmlsl.u16	q11, d9, d1
     c30:	087fa603 	ldmdaeq	pc!, {r0, r1, r9, sl, sp, pc}^	; <UNPREDICTABLE>
     c34:	02002f20 	andeq	r2, r0, #32, 30	; 0x80
     c38:	4a060104 	bmi	181050 <__bss_end__+0x175368>
     c3c:	2f4bd706 	svccs	0x004bd706
     c40:	f200da03 	vpmax.s8	d13, d0, d3
     c44:	03484c83 	movteq	r4, #35971	; 0x8c83
     c48:	75032e0e 	strvc	r2, [r3, #-3598]	; 0xe0e
     c4c:	842f2f2e 	strthi	r2, [pc], #-3886	; c54 <_start-0x73ac>
     c50:	4d2d2f4b 	stcmi	15, cr2, [sp, #-300]!	; 0xfffffed4
     c54:	832f3031 	teqhi	pc, #49	; 0x31
     c58:	01040200 	mrseq	r0, R12_usr
     c5c:	0200a22c 	andeq	sl, r0, #44, 4	; 0xc0000002
     c60:	4a060104 	bmi	181078 <__bss_end__+0x175390>
     c64:	3602d806 	strcc	sp, [r2], -r6, lsl #16
     c68:	d60e0316 			; <UNDEFINED> instruction: 0xd60e0316
     c6c:	f3302108 	vrhadd.u<illegal width 64>	d2, d0, d8
     c70:	f330f331 	vcge.u<illegal width 64>	d15, d0, d17
     c74:	f3304b30 			; <UNDEFINED> instruction: 0xf3304b30
     c78:	31230830 	teqcc	r3, r0, lsr r8
     c7c:	0402002f 	streq	r0, [r2], #-47	; 0x2f
     c80:	02006501 	andeq	r6, r0, #4194304	; 0x400000
     c84:	4a060204 	bmi	18149c <__bss_end__+0x1757b4>
     c88:	01040200 	mrseq	r0, R12_usr
     c8c:	66420306 	strbvs	r0, [r2], -r6, lsl #6
     c90:	02040200 	andeq	r0, r4, #0, 4
     c94:	03066606 	movweq	r6, #26118	; 0x6606
     c98:	684a00c2 	stmdavs	sl, {r1, r6, r7}^
     c9c:	01001002 	tsteq	r0, r2
     ca0:	00009301 	andeq	r9, r0, r1, lsl #6
     ca4:	7d000200 	sfmvc	f0, 4, [r0, #-0]
     ca8:	02000000 	andeq	r0, r0, #0
     cac:	0d0efb01 	vstreq	d15, [lr, #-4]
     cb0:	01010100 	mrseq	r0, (UNDEF: 17)
     cb4:	00000001 	andeq	r0, r0, r1
     cb8:	01000001 	tsteq	r0, r1
     cbc:	34317363 	ldrtcc	r7, [r1], #-867	; 0x363
     cc0:	732d6530 	teqvc	sp, #48, 10	; 0xc000000
     cc4:	2f006372 	svccs	0x00006372
     cc8:	72657355 	rsbvc	r7, r5, #1409286145	; 0x54000001
     ccc:	72622f73 	rsbvc	r2, r2, #460	; 0x1cc
     cd0:	6a6e6169 	bvs	1b9927c <__bss_end__+0x1b8d594>
     cd4:	442f6e75 	strtmi	r6, [pc], #-3701	; cdc <_start-0x7324>
     cd8:	746b7365 	strbtvc	r7, [fp], #-869	; 0x365
     cdc:	732f706f 	teqvc	pc, #111	; 0x6f
     ce0:	6f6f6863 	svcvs	0x006f6863
     ce4:	69572f6c 	ldmdbvs	r7, {r2, r3, r5, r6, r8, r9, sl, fp, sp}^
     ce8:	7265746e 	rsbvc	r7, r5, #1845493760	; 0x6e000000
     cec:	30323931 	eorscc	r3, r2, r1, lsr r9
     cf0:	3153432f 	cmpcc	r3, pc, lsr #6
     cf4:	2f453034 	svccs	0x00453034
     cf8:	34317363 	ldrtcc	r7, [r1], #-867	; 0x363
     cfc:	322d6530 	eorcc	r6, sp, #48, 10	; 0xc000000
     d00:	6e697730 	mcrvs	7, 3, r7, cr9, cr0, {1}
     d04:	62696c2f 	rsbvs	r6, r9, #12032	; 0x2f00
     d08:	00006970 	andeq	r6, r0, r0, ror r9
     d0c:	61656c63 	cmnvs	r5, r3, ror #24
     d10:	65722d6e 	ldrbvs	r2, [r2, #-3438]!	; 0xd6e
     d14:	746f6f62 	strbtvc	r6, [pc], #-3938	; d1c <_start-0x72e4>
     d18:	0100632e 	tsteq	r0, lr, lsr #6
     d1c:	70720000 	rsbsvc	r0, r2, r0
     d20:	00682e69 	rsbeq	r2, r8, r9, ror #28
     d24:	00000002 	andeq	r0, r0, r2
     d28:	48020500 	stmdami	r2, {r8, sl}
     d2c:	1500009d 	strne	r0, [r0, #-157]	; 0x9d
     d30:	024b832f 	subeq	r8, fp, #-1140850688	; 0xbc000000
     d34:	01010006 	tsteq	r1, r6
     d38:	0000009a 	muleq	r0, sl, r0
     d3c:	00770002 	rsbseq	r0, r7, r2
     d40:	01020000 	mrseq	r0, (UNDEF: 2)
     d44:	000d0efb 	strdeq	r0, [sp], -fp
     d48:	01010101 	tsteq	r1, r1, lsl #2
     d4c:	01000000 	mrseq	r0, (UNDEF: 0)
     d50:	63010000 	movwvs	r0, #4096	; 0x1000
     d54:	30343173 	eorscc	r3, r4, r3, ror r1
     d58:	72732d65 	rsbsvc	r2, r3, #6464	; 0x1940
     d5c:	552f0063 	strpl	r0, [pc, #-99]!	; d01 <_start-0x72ff>
     d60:	73726573 	cmnvc	r2, #482344960	; 0x1cc00000
     d64:	6972622f 	ldmdbvs	r2!, {r0, r1, r2, r3, r5, r9, sp, lr}^
     d68:	756a6e61 	strbvc	r6, [sl, #-3681]!	; 0xe61
     d6c:	65442f6e 	strbvs	r2, [r4, #-3950]	; 0xf6e
     d70:	6f746b73 	svcvs	0x00746b73
     d74:	63732f70 	cmnvs	r3, #112, 30	; 0x1c0
     d78:	6c6f6f68 	stclvs	15, cr6, [pc], #-416	; be0 <_start-0x7420>
     d7c:	6e69572f 	cdpvs	7, 6, cr5, cr9, cr15, {1}
     d80:	31726574 	cmncc	r2, r4, ror r5
     d84:	2f303239 	svccs	0x00303239
     d88:	34315343 	ldrtcc	r5, [r1], #-835	; 0x343
     d8c:	632f4530 	teqvs	pc, #48, 10	; 0xc000000
     d90:	30343173 	eorscc	r3, r4, r3, ror r1
     d94:	30322d65 	eorscc	r2, r2, r5, ror #26
     d98:	2f6e6977 	svccs	0x006e6977
     d9c:	7062696c 	rsbvc	r6, r2, ip, ror #18
     da0:	63000069 	movwvs	r0, #105	; 0x69
     da4:	72617473 	rsbvc	r7, r1, #1929379840	; 0x73000000
     da8:	00632e74 	rsbeq	r2, r3, r4, ror lr
     dac:	72000001 	andvc	r0, r0, #1
     db0:	682e6970 	stmdavs	lr!, {r4, r5, r6, r8, fp, sp, lr}
     db4:	00000200 	andeq	r0, r0, r0, lsl #4
     db8:	02050000 	andeq	r0, r5, #0
     dbc:	00009d70 	andeq	r9, r0, r0, ror sp
     dc0:	32010c03 	andcc	r0, r1, #768	; 0x300
     dc4:	2f2d2f31 	svccs	0x002d2f31
     dc8:	01040200 	mrseq	r0, R12_usr
     dcc:	4a0f0349 	bmi	3c1af8 <__bss_end__+0x3b5e10>
     dd0:	0006022f 	andeq	r0, r6, pc, lsr #4
     dd4:	00990101 	addseq	r0, r9, r1, lsl #2
     dd8:	00020000 	andeq	r0, r2, r0
     ddc:	00000077 	andeq	r0, r0, r7, ror r0
     de0:	0efb0102 	cdpeq	1, 15, cr0, cr11, cr2, {0}
     de4:	0101000d 	tsteq	r1, sp
     de8:	00000101 	andeq	r0, r0, r1, lsl #2
     dec:	00000100 	andeq	r0, r0, r0, lsl #2
     df0:	31736301 	cmncc	r3, r1, lsl #6
     df4:	2d653034 	stclcs	0, cr3, [r5, #-208]!	; 0xffffff30
     df8:	00637273 	rsbeq	r7, r3, r3, ror r2
     dfc:	6573552f 	ldrbvs	r5, [r3, #-1327]!	; 0x52f
     e00:	622f7372 	eorvs	r7, pc, #-939524095	; 0xc8000001
     e04:	6e616972 	mcrvs	9, 3, r6, cr1, cr2, {3}
     e08:	2f6e756a 	svccs	0x006e756a
     e0c:	6b736544 	blvs	1cda324 <__bss_end__+0x1cce63c>
     e10:	2f706f74 	svccs	0x00706f74
     e14:	6f686373 	svcvs	0x00686373
     e18:	572f6c6f 	strpl	r6, [pc, -pc, ror #24]!
     e1c:	65746e69 	ldrbvs	r6, [r4, #-3689]!	; 0xe69
     e20:	32393172 	eorscc	r3, r9, #-2147483620	; 0x8000001c
     e24:	53432f30 	movtpl	r2, #16176	; 0x3f30
     e28:	45303431 	ldrmi	r3, [r0, #-1073]!	; 0x431
     e2c:	3173632f 	cmncc	r3, pc, lsr #6
     e30:	2d653034 	stclcs	0, cr3, [r5, #-208]!	; 0xffffff30
     e34:	69773032 	ldmdbvs	r7!, {r1, r4, r5, ip, sp}^
     e38:	696c2f6e 	stmdbvs	ip!, {r1, r2, r3, r5, r6, r8, r9, sl, fp, sp}^
     e3c:	00697062 	rsbeq	r7, r9, r2, rrx
     e40:	62657200 	rsbvs	r7, r5, #0, 4
     e44:	2e746f6f 	cdpcs	15, 7, cr6, cr4, cr15, {3}
     e48:	00010063 	andeq	r0, r1, r3, rrx
     e4c:	69707200 	ldmdbvs	r0!, {r9, ip, sp, lr}^
     e50:	0200682e 	andeq	r6, r0, #3014656	; 0x2e0000
     e54:	00000000 	andeq	r0, r0, r0
     e58:	9da40205 	sfmls	f0, 4, [r4, #20]!
     e5c:	0d030000 	stceq	0, cr0, [r3, #-0]
     e60:	2f311401 	svccs	0x00311401
     e64:	4b2f1585 	blmi	bc6480 <__bss_end__+0xbba798>
     e68:	35672f4d 	strbcc	r2, [r7, #-3917]!	; 0xf4d
     e6c:	10026752 	andne	r6, r2, r2, asr r7
     e70:	a3010100 	movwge	r0, #4352	; 0x1100
     e74:	02000000 	andeq	r0, r0, #0
     e78:	00007600 	andeq	r7, r0, r0, lsl #12
     e7c:	fb010200 	blx	41686 <__bss_end__+0x3599e>
     e80:	01000d0e 	tsteq	r0, lr, lsl #26
     e84:	00010101 	andeq	r0, r1, r1, lsl #2
     e88:	00010000 	andeq	r0, r1, r0
     e8c:	73630100 	cmnvc	r3, #0, 2
     e90:	65303431 	ldrvs	r3, [r0, #-1073]!	; 0x431
     e94:	6372732d 	cmnvs	r2, #-1275068416	; 0xb4000000
     e98:	73552f00 	cmpvc	r5, #0, 30
     e9c:	2f737265 	svccs	0x00737265
     ea0:	61697262 	cmnvs	r9, r2, ror #4
     ea4:	6e756a6e 	vsubvs.f32	s13, s10, s29
     ea8:	7365442f 	cmnvc	r5, #788529152	; 0x2f000000
     eac:	706f746b 	rsbvc	r7, pc, fp, ror #8
     eb0:	6863732f 	stmdavs	r3!, {r0, r1, r2, r3, r5, r8, r9, ip, sp, lr}^
     eb4:	2f6c6f6f 	svccs	0x006c6f6f
     eb8:	746e6957 	strbtvc	r6, [lr], #-2391	; 0x957
     ebc:	39317265 	ldmdbcc	r1!, {r0, r2, r5, r6, r9, ip, sp, lr}
     ec0:	432f3032 	teqmi	pc, #50	; 0x32
     ec4:	30343153 	eorscc	r3, r4, r3, asr r1
     ec8:	73632f45 	cmnvc	r3, #276	; 0x114
     ecc:	65303431 	ldrvs	r3, [r0, #-1073]!	; 0x431
     ed0:	7730322d 	ldrvc	r3, [r0, -sp, lsr #4]!
     ed4:	6c2f6e69 	stcvs	14, cr6, [pc], #-420	; d38 <_start-0x72c8>
     ed8:	69706269 	ldmdbvs	r0!, {r0, r3, r5, r6, r9, sp, lr}^
     edc:	69740000 	ldmdbvs	r4!, {}^	; <UNPREDICTABLE>
     ee0:	2e72656d 	cdpcs	5, 7, cr6, cr2, cr13, {3}
     ee4:	00010063 	andeq	r0, r1, r3, rrx
     ee8:	69707200 	ldmdbvs	r0!, {r9, ip, sp, lr}^
     eec:	0200682e 	andeq	r6, r0, #3014656	; 0x2e0000
     ef0:	00000000 	andeq	r0, r0, r0
     ef4:	9e180205 	cdpls	2, 1, cr0, cr8, cr5, {0}
     ef8:	14160000 	ldrne	r0, [r6], #-0
     efc:	02002d2f 	andeq	r2, r0, #3008	; 0xbc0
     f00:	2e060104 	adfcss	f0, f6, f4
     f04:	2f316d06 	svccs	0x00316d06
     f08:	31324d4b 	teqcc	r2, fp, asr #26
     f0c:	2f4c4b30 	svccs	0x004c4b30
     f10:	842f2f6a 	strthi	r2, [pc], #-3946	; f18 <_start-0x70e8>
     f14:	0008022f 	andeq	r0, r8, pc, lsr #4
     f18:	01830101 	orreq	r0, r3, r1, lsl #2
     f1c:	00020000 	andeq	r0, r2, r0
     f20:	000000ce 	andeq	r0, r0, lr, asr #1
     f24:	0efb0102 	cdpeq	1, 15, cr0, cr11, cr2, {0}
     f28:	0101000d 	tsteq	r1, sp
     f2c:	00000101 	andeq	r0, r0, r1, lsl #2
     f30:	00000100 	andeq	r0, r0, r0, lsl #2
     f34:	31736301 	cmncc	r3, r1, lsl #6
     f38:	2d653034 	stclcs	0, cr3, [r5, #-208]!	; 0xffffff30
     f3c:	00637273 	rsbeq	r7, r3, r3, ror r2
     f40:	6573552f 	ldrbvs	r5, [r3, #-1327]!	; 0x52f
     f44:	622f7372 	eorvs	r7, pc, #-939524095	; 0xc8000001
     f48:	6e616972 	mcrvs	9, 3, r6, cr1, cr2, {3}
     f4c:	2f6e756a 	svccs	0x006e756a
     f50:	6b736544 	blvs	1cda468 <__bss_end__+0x1cce780>
     f54:	2f706f74 	svccs	0x00706f74
     f58:	6f686373 	svcvs	0x00686373
     f5c:	572f6c6f 	strpl	r6, [pc, -pc, ror #24]!
     f60:	65746e69 	ldrbvs	r6, [r4, #-3689]!	; 0xe69
     f64:	32393172 	eorscc	r3, r9, #-2147483620	; 0x8000001c
     f68:	53432f30 	movtpl	r2, #16176	; 0x3f30
     f6c:	45303431 	ldrmi	r3, [r0, #-1073]!	; 0x431
     f70:	3173632f 	cmncc	r3, pc, lsr #6
     f74:	2d653034 	stclcs	0, cr3, [r5, #-208]!	; 0xffffff30
     f78:	69773032 	ldmdbvs	r7!, {r1, r4, r5, ip, sp}^
     f7c:	696c2f6e 	stmdbvs	ip!, {r1, r2, r3, r5, r6, r8, r9, sl, fp, sp}^
     f80:	2f697062 	svccs	0x00697062
     f84:	34317363 	ldrtcc	r7, [r1], #-867	; 0x363
     f88:	732d6530 	teqvc	sp, #48, 10	; 0xc000000
     f8c:	2f006372 	svccs	0x00006372
     f90:	72657355 	rsbvc	r7, r5, #1409286145	; 0x54000001
     f94:	72622f73 	rsbvc	r2, r2, #460	; 0x1cc
     f98:	6a6e6169 	bvs	1b99544 <__bss_end__+0x1b8d85c>
     f9c:	442f6e75 	strtmi	r6, [pc], #-3701	; fa4 <_start-0x705c>
     fa0:	746b7365 	strbtvc	r7, [fp], #-869	; 0x365
     fa4:	732f706f 	teqvc	pc, #111	; 0x6f
     fa8:	6f6f6863 	svcvs	0x006f6863
     fac:	69572f6c 	ldmdbvs	r7, {r2, r3, r5, r6, r8, r9, sl, fp, sp}^
     fb0:	7265746e 	rsbvc	r7, r5, #1845493760	; 0x6e000000
     fb4:	30323931 	eorscc	r3, r2, r1, lsr r9
     fb8:	3153432f 	cmpcc	r3, pc, lsr #6
     fbc:	2f453034 	svccs	0x00453034
     fc0:	34317363 	ldrtcc	r7, [r1], #-867	; 0x363
     fc4:	322d6530 	eorcc	r6, sp, #48, 10	; 0xc000000
     fc8:	6e697730 	mcrvs	7, 3, r7, cr9, cr0, {1}
     fcc:	62696c2f 	rsbvs	r6, r9, #12032	; 0x2f00
     fd0:	00006970 	andeq	r6, r0, r0, ror r9
     fd4:	6f697067 	svcvs	0x00697067
     fd8:	0100632e 	tsteq	r0, lr, lsr #6
     fdc:	70670000 	rsbvc	r0, r7, r0
     fe0:	682e6f69 	stmdavs	lr!, {r0, r3, r5, r6, r8, r9, sl, fp, sp, lr}
     fe4:	00000200 	andeq	r0, r0, r0, lsl #4
     fe8:	2e697072 	mcrcs	0, 3, r7, cr9, cr2, {3}
     fec:	00030068 	andeq	r0, r3, r8, rrx
     ff0:	05000000 	streq	r0, [r0, #-0]
     ff4:	009ea002 	addseq	sl, lr, r2
     ff8:	013e0300 	teqeq	lr, r0, lsl #6
     ffc:	0869504e 	stmdaeq	r9!, {r1, r2, r3, r6, ip, lr}^
    1000:	67676721 	strbvs	r6, [r7, -r1, lsr #14]!
    1004:	32676767 	rsbcc	r6, r7, #27000832	; 0x19c0000
    1008:	dc22084b 	stcle	8, cr0, [r2], #-300	; 0xfffffed4
    100c:	4e135131 	mrcmi	1, 0, r5, cr3, cr1, {1}
    1010:	31be3050 			; <UNDEFINED> instruction: 0x31be3050
    1014:	4f4d1350 	svcmi	0x004d1350
    1018:	504cc030 	subpl	ip, ip, r0, lsr r0
    101c:	67210869 	strvs	r0, [r1, -r9, ror #16]!
    1020:	67676767 	strbvs	r6, [r7, -r7, ror #14]!
    1024:	084b3267 	stmdaeq	fp, {r0, r1, r2, r5, r6, r9, ip, sp}^
    1028:	504ca321 	subpl	sl, ip, r1, lsr #6
    102c:	0369842f 	cmneq	r9, #788529152	; 0x2f000000
    1030:	0c038275 	sfmeq	f0, 1, [r3], {117}	; 0x75
    1034:	4e304d2e 	cdpmi	13, 3, cr4, cr0, cr14, {1}
    1038:	6a4d4c4b 	bvs	135416c <__bss_end__+0x1348484>
    103c:	2108696b 	tstcs	r8, fp, ror #18
    1040:	67676767 	strbvs	r6, [r7, -r7, ror #14]!
    1044:	4b326767 	blmi	c9ade8 <__bss_end__+0xc8f100>
    1048:	30c02208 	sbccc	r2, r0, r8, lsl #4
    104c:	504e1351 	subpl	r1, lr, r1, asr r3
    1050:	ba180330 	blt	601d18 <__bss_end__+0x5f6030>
    1054:	2f4c9f31 	svccs	0x004c9f31
    1058:	2f4e4d52 	svccs	0x004e4d52
    105c:	684b674b 	stmdavs	fp, {r0, r1, r3, r6, r8, r9, sl, sp, lr}^
    1060:	2f4c6767 	svccs	0x004c6767
    1064:	6e4b2f67 	cdpvs	15, 4, cr2, cr11, cr7, {3}
    1068:	4b2f4e4c 	blmi	bd49a0 <__bss_end__+0xbc8cb8>
    106c:	67684b67 	strbvs	r4, [r8, -r7, ror #22]!
    1070:	672f4c67 	strvs	r4, [pc, -r7, ror #24]!
    1074:	4b6d4b2f 	blmi	1b53d38 <__bss_end__+0x1b48050>
    1078:	674b2f4e 	strbvs	r2, [fp, -lr, asr #30]
    107c:	01040200 	mrseq	r0, R12_usr
    1080:	68066606 	stmdavs	r6, {r1, r2, r9, sl, sp, lr}
    1084:	02002f9f 	andeq	r2, r0, #636	; 0x27c
    1088:	4a060104 	bmi	1814a0 <__bss_end__+0x1757b8>
    108c:	032f6806 	teqeq	pc, #393216	; 0x60000
    1090:	0e034a73 	mcreq	10, 0, r4, cr3, cr3, {3}
    1094:	4e4c4d2e 	cdpmi	13, 4, cr4, cr12, cr14, {1}
    1098:	bcbc4b2f 	fldmiaxlt	ip!, {d4-d26}	;@ Deprecated
    109c:	01000602 	tsteq	r0, r2, lsl #12
    10a0:	00017601 	andeq	r7, r1, r1, lsl #12
    10a4:	20000200 	andcs	r0, r0, r0, lsl #4
    10a8:	02000001 	andeq	r0, r0, #1
    10ac:	0d0efb01 	vstreq	d15, [lr, #-4]
    10b0:	01010100 	mrseq	r0, (UNDEF: 17)
    10b4:	00000001 	andeq	r0, r0, r1
    10b8:	01000001 	tsteq	r0, r1
    10bc:	732d796d 	teqvc	sp, #1785856	; 0x1b4000
    10c0:	2f006372 	svccs	0x00006372
    10c4:	72657355 	rsbvc	r7, r5, #1409286145	; 0x54000001
    10c8:	72622f73 	rsbvc	r2, r2, #460	; 0x1cc
    10cc:	6a6e6169 	bvs	1b99678 <__bss_end__+0x1b8d990>
    10d0:	442f6e75 	strtmi	r6, [pc], #-3701	; 10d8 <_start-0x6f28>
    10d4:	746b7365 	strbtvc	r7, [fp], #-869	; 0x365
    10d8:	732f706f 	teqvc	pc, #111	; 0x6f
    10dc:	6f6f6863 	svcvs	0x006f6863
    10e0:	69572f6c 	ldmdbvs	r7, {r2, r3, r5, r6, r8, r9, sl, fp, sp}^
    10e4:	7265746e 	rsbvc	r7, r5, #1845493760	; 0x6e000000
    10e8:	30323931 	eorscc	r3, r2, r1, lsr r9
    10ec:	3153432f 	cmpcc	r3, pc, lsr #6
    10f0:	2f453034 	svccs	0x00453034
    10f4:	34317363 	ldrtcc	r7, [r1], #-867	; 0x363
    10f8:	322d6530 	eorcc	r6, sp, #48, 10	; 0xc000000
    10fc:	6e697730 	mcrvs	7, 3, r7, cr9, cr0, {1}
    1100:	62696c2f 	rsbvs	r6, r9, #12032	; 0x2f00
    1104:	2f006970 	svccs	0x00006970
    1108:	2f727375 	svccs	0x00727375
    110c:	61636f6c 	cmnvs	r3, ip, ror #30
    1110:	65432f6c 	strbvs	r2, [r3, #-3948]	; 0xf6c
    1114:	72616c6c 	rsbvc	r6, r1, #108, 24	; 0x6c00
    1118:	6d72612f 	ldfvse	f6, [r2, #-188]!	; 0xffffff44
    111c:	6e6f6e2d 	cdpvs	14, 6, cr6, cr15, cr13, {1}
    1120:	61652d65 	cmnvs	r5, r5, ror #26
    1124:	342f6962 	strtcc	r6, [pc], #-2402	; 112c <_start-0x6ed4>
    1128:	332e382e 	teqcc	lr, #3014656	; 0x2e0000
    112c:	3173632d 	cmncc	r3, sp, lsr #6
    1130:	2f653037 	svccs	0x00653037
    1134:	2f62696c 	svccs	0x0062696c
    1138:	2f636367 	svccs	0x00636367
    113c:	2d6d7261 	sfmcs	f7, 2, [sp, #-388]!	; 0xfffffe7c
    1140:	656e6f6e 	strbvs	r6, [lr, #-3950]!	; 0xf6e
    1144:	6261652d 	rsbvs	r6, r1, #188743680	; 0xb400000
    1148:	2e342f69 	cdpcs	15, 3, cr2, cr4, cr9, {3}
    114c:	2f332e38 	svccs	0x00332e38
    1150:	6c636e69 	stclvs	14, cr6, [r3], #-420	; 0xfffffe5c
    1154:	00656475 	rsbeq	r6, r5, r5, ror r4
    1158:	7273752f 	rsbsvc	r7, r3, #197132288	; 0xbc00000
    115c:	636f6c2f 	cmnvs	pc, #12032	; 0x2f00
    1160:	432f6c61 	teqmi	pc, #24832	; 0x6100
    1164:	616c6c65 	cmnvs	ip, r5, ror #24
    1168:	72612f72 	rsbvc	r2, r1, #456	; 0x1c8
    116c:	6f6e2d6d 	svcvs	0x006e2d6d
    1170:	652d656e 	strvs	r6, [sp, #-1390]!	; 0x56e
    1174:	2f696261 	svccs	0x00696261
    1178:	2e382e34 	mrccs	14, 1, r2, cr8, cr4, {1}
    117c:	73632d33 	cmnvc	r3, #3264	; 0xcc0
    1180:	65303731 	ldrvs	r3, [r0, #-1841]!	; 0x731
    1184:	6d72612f 	ldfvse	f6, [r2, #-188]!	; 0xffffff44
    1188:	6e6f6e2d 	cdpvs	14, 6, cr6, cr15, cr13, {1}
    118c:	61652d65 	cmnvs	r5, r5, ror #26
    1190:	692f6962 	stmdbvs	pc!, {r1, r5, r6, r8, fp, sp, lr}	; <UNPREDICTABLE>
    1194:	756c636e 	strbvc	r6, [ip, #-878]!	; 0x36e
    1198:	00006564 	andeq	r6, r0, r4, ror #10
    119c:	6c616d6b 	stclvs	13, cr6, [r1], #-428	; 0xfffffe54
    11a0:	2e636f6c 	cdpcs	15, 6, cr6, cr3, cr12, {3}
    11a4:	00010063 	andeq	r0, r1, r3, rrx
    11a8:	69707200 	ldmdbvs	r0!, {r9, ip, sp, lr}^
    11ac:	0200682e 	andeq	r6, r0, #3014656	; 0x2e0000
    11b0:	74730000 	ldrbtvc	r0, [r3], #-0
    11b4:	66656464 	strbtvs	r6, [r5], -r4, ror #8
    11b8:	0300682e 	movweq	r6, #2094	; 0x82e
    11bc:	74730000 	ldrbtvc	r0, [r3], #-0
    11c0:	676e6972 			; <UNDEFINED> instruction: 0x676e6972
    11c4:	0400682e 	streq	r6, [r0], #-2094	; 0x82e
    11c8:	00000000 	andeq	r0, r0, r0
    11cc:	a4400205 	strbge	r0, [r0], #-517	; 0x205
    11d0:	18030000 	stmdane	r3, {}	; <UNPREDICTABLE>
    11d4:	02002f01 	andeq	r2, r0, #1, 30
    11d8:	82060104 	andhi	r0, r6, #4, 2
    11dc:	4b4bd806 	blmi	12f71fc <__bss_end__+0x12eb514>
    11e0:	2fbe6a83 	svccs	0x00be6a83
    11e4:	01040200 	mrseq	r0, R12_usr
    11e8:	d8068206 	stmdale	r6, {r1, r2, r9, pc}
    11ec:	02004b4b 	andeq	r4, r0, #76800	; 0x12c00
    11f0:	4a060104 	bmi	181608 <__bss_end__+0x175920>
    11f4:	834bd706 	movthi	sp, #46854	; 0xb706
    11f8:	0a032f30 	beq	ccec0 <__bss_end__+0xc11d8>
    11fc:	02002fba 	andeq	r2, r0, #744	; 0x2e8
    1200:	82060104 	andhi	r0, r6, #4, 2
    1204:	f967d706 			; <UNDEFINED> instruction: 0xf967d706
    1208:	8414c213 	ldrhi	ip, [r4], #-531	; 0x213
    120c:	0402002f 	streq	r0, [r2], #-47	; 0x2f
    1210:	06820601 	streq	r0, [r2], r1, lsl #12
    1214:	0c0267d7 	stceq	7, cr6, [r2], {215}	; 0xd7
    1218:	01010100 	mrseq	r0, (UNDEF: 17)
    121c:	02000001 	andeq	r0, r0, #1
    1220:	0000ca00 	andeq	ip, r0, r0, lsl #20
    1224:	fb010200 	blx	41a2e <__bss_end__+0x35d46>
    1228:	01000d0e 	tsteq	r0, lr, lsl #26
    122c:	00010101 	andeq	r0, r1, r1, lsl #2
    1230:	00010000 	andeq	r0, r1, r0
    1234:	796d0100 	stmdbvc	sp!, {r8}^
    1238:	6372732d 	cmnvs	r2, #-1275068416	; 0xb4000000
    123c:	73552f00 	cmpvc	r5, #0, 30
    1240:	2f737265 	svccs	0x00737265
    1244:	61697262 	cmnvs	r9, r2, ror #4
    1248:	6e756a6e 	vsubvs.f32	s13, s10, s29
    124c:	7365442f 	cmnvc	r5, #788529152	; 0x2f000000
    1250:	706f746b 	rsbvc	r7, pc, fp, ror #8
    1254:	6863732f 	stmdavs	r3!, {r0, r1, r2, r3, r5, r8, r9, ip, sp, lr}^
    1258:	2f6c6f6f 	svccs	0x006c6f6f
    125c:	746e6957 	strbtvc	r6, [lr], #-2391	; 0x957
    1260:	39317265 	ldmdbcc	r1!, {r0, r2, r5, r6, r9, ip, sp, lr}
    1264:	432f3032 	teqmi	pc, #50	; 0x32
    1268:	30343153 	eorscc	r3, r4, r3, asr r1
    126c:	73632f45 	cmnvc	r3, #276	; 0x114
    1270:	65303431 	ldrvs	r3, [r0, #-1073]!	; 0x431
    1274:	7730322d 	ldrvc	r3, [r0, -sp, lsr #4]!
    1278:	6c2f6e69 	stcvs	14, cr6, [pc], #-420	; 10dc <_start-0x6f24>
    127c:	69706269 	ldmdbvs	r0!, {r0, r3, r5, r6, r9, sp, lr}^
    1280:	3173632f 	cmncc	r3, pc, lsr #6
    1284:	2d653034 	stclcs	0, cr3, [r5, #-208]!	; 0xffffff30
    1288:	00637273 	rsbeq	r7, r3, r3, ror r2
    128c:	6573552f 	ldrbvs	r5, [r3, #-1327]!	; 0x52f
    1290:	622f7372 	eorvs	r7, pc, #-939524095	; 0xc8000001
    1294:	6e616972 	mcrvs	9, 3, r6, cr1, cr2, {3}
    1298:	2f6e756a 	svccs	0x006e756a
    129c:	6b736544 	blvs	1cda7b4 <__bss_end__+0x1cceacc>
    12a0:	2f706f74 	svccs	0x00706f74
    12a4:	6f686373 	svcvs	0x00686373
    12a8:	572f6c6f 	strpl	r6, [pc, -pc, ror #24]!
    12ac:	65746e69 	ldrbvs	r6, [r4, #-3689]!	; 0xe69
    12b0:	32393172 	eorscc	r3, r9, #-2147483620	; 0x8000001c
    12b4:	53432f30 	movtpl	r2, #16176	; 0x3f30
    12b8:	45303431 	ldrmi	r3, [r0, #-1073]!	; 0x431
    12bc:	3173632f 	cmncc	r3, pc, lsr #6
    12c0:	2d653034 	stclcs	0, cr3, [r5, #-208]!	; 0xffffff30
    12c4:	69773032 	ldmdbvs	r7!, {r1, r4, r5, ip, sp}^
    12c8:	696c2f6e 	stmdbvs	ip!, {r1, r2, r3, r5, r6, r8, r9, sl, fp, sp}^
    12cc:	00697062 	rsbeq	r7, r9, r2, rrx
    12d0:	72617500 	rsbvc	r7, r1, #0, 10
    12d4:	00632e74 	rsbeq	r2, r3, r4, ror lr
    12d8:	67000001 	strvs	r0, [r0, -r1]
    12dc:	2e6f6970 	mcrcs	9, 3, r6, cr15, cr0, {3}
    12e0:	00020068 	andeq	r0, r2, r8, rrx
    12e4:	69707200 	ldmdbvs	r0!, {r9, ip, sp, lr}^
    12e8:	0300682e 	movweq	r6, #2094	; 0x82e
    12ec:	00000000 	andeq	r0, r0, r0
    12f0:	a6280205 	strtge	r0, [r8], -r5, lsl #4
    12f4:	36030000 	strcc	r0, [r3], -r0
    12f8:	67333001 	ldrvs	r3, [r3, -r1]!
    12fc:	30d8306d 	sbcscc	r3, r8, sp, rrx
    1300:	67676767 	strbvs	r6, [r7, -r7, ror #14]!
    1304:	2f866867 	svccs	0x00866867
    1308:	67306a67 	ldrvs	r6, [r0, -r7, ror #20]!
    130c:	672f6967 	strvs	r6, [pc, -r7, ror #18]!
    1310:	c1674c6a 	cmngt	r7, sl, ror #24
    1314:	2f302f2f 	svccs	0x00302f2f
    1318:	02304968 	eorseq	r4, r0, #104, 18	; 0x1a0000
    131c:	01010002 	tsteq	r1, r2
    1320:	000000c9 	andeq	r0, r0, r9, asr #1
    1324:	00970002 	addseq	r0, r7, r2
    1328:	01020000 	mrseq	r0, (UNDEF: 2)
    132c:	000d0efb 	strdeq	r0, [sp], -fp
    1330:	01010101 	tsteq	r1, r1, lsl #2
    1334:	01000000 	mrseq	r0, (UNDEF: 0)
    1338:	63010000 	movwvs	r0, #4096	; 0x1000
    133c:	30343173 	eorscc	r3, r4, r3, ror r1
    1340:	6e692d65 	cdpvs	13, 6, cr2, cr9, cr5, {3}
    1344:	72726574 	rsbsvc	r6, r2, #116, 10	; 0x1d000000
    1348:	00747075 	rsbseq	r7, r4, r5, ror r0
    134c:	6573552f 	ldrbvs	r5, [r3, #-1327]!	; 0x52f
    1350:	622f7372 	eorvs	r7, pc, #-939524095	; 0xc8000001
    1354:	6e616972 	mcrvs	9, 3, r6, cr1, cr2, {3}
    1358:	2f6e756a 	svccs	0x006e756a
    135c:	6b736544 	blvs	1cda874 <__bss_end__+0x1cceb8c>
    1360:	2f706f74 	svccs	0x00706f74
    1364:	6f686373 	svcvs	0x00686373
    1368:	572f6c6f 	strpl	r6, [pc, -pc, ror #24]!
    136c:	65746e69 	ldrbvs	r6, [r4, #-3689]!	; 0xe69
    1370:	32393172 	eorscc	r3, r9, #-2147483620	; 0x8000001c
    1374:	53432f30 	movtpl	r2, #16176	; 0x3f30
    1378:	45303431 	ldrmi	r3, [r0, #-1073]!	; 0x431
    137c:	3173632f 	cmncc	r3, pc, lsr #6
    1380:	2d653034 	stclcs	0, cr3, [r5, #-208]!	; 0xffffff30
    1384:	69773032 	ldmdbvs	r7!, {r1, r4, r5, ip, sp}^
    1388:	696c2f6e 	stmdbvs	ip!, {r1, r2, r3, r5, r6, r8, r9, sl, fp, sp}^
    138c:	00697062 	rsbeq	r7, r9, r2, rrx
    1390:	746e6900 	strbtvc	r6, [lr], #-2304	; 0x900
    1394:	75727265 	ldrbvc	r7, [r2, #-613]!	; 0x265
    1398:	2d737470 	cfldrdcs	mvd7, [r3, #-448]!	; 0xfffffe40
    139c:	00632e63 	rsbeq	r2, r3, r3, ror #28
    13a0:	72000001 	andvc	r0, r0, #1
    13a4:	682e6970 	stmdavs	lr!, {r4, r5, r6, r8, fp, sp, lr}
    13a8:	00000200 	andeq	r0, r0, r0, lsl #4
    13ac:	2d697072 	stclcs	0, cr7, [r9, #-456]!	; 0xfffffe38
    13b0:	65746e69 	ldrbvs	r6, [r4, #-3689]!	; 0xe69
    13b4:	70757272 	rsbsvc	r7, r5, r2, ror r2
    13b8:	682e7374 	stmdavs	lr!, {r2, r4, r5, r6, r8, r9, ip, sp, lr}
    13bc:	00000100 	andeq	r0, r0, r0, lsl #2
    13c0:	02050000 	andeq	r0, r5, #0
    13c4:	0000a77c 	andeq	sl, r0, ip, ror r7
    13c8:	31011a03 	tstcc	r1, r3, lsl #20
    13cc:	09036767 	stmdbeq	r3, {r0, r1, r2, r5, r6, r8, r9, sl, sp, lr}
    13d0:	2d2f832e 	stccs	3, cr8, [pc, #-184]!	; 1320 <_start-0x6ce0>
    13d4:	02040200 	andeq	r0, r4, #0, 4
    13d8:	0402002f 	streq	r0, [r2], #-47	; 0x2f
    13dc:	02006502 	andeq	r6, r0, #8388608	; 0x800000
    13e0:	2e060104 	adfcss	f0, f6, f4
    13e4:	67a04c06 	strvs	r4, [r0, r6, lsl #24]!
    13e8:	01001c02 	tsteq	r0, r2, lsl #24
    13ec:	00012d01 	andeq	r2, r1, r1, lsl #26
    13f0:	0d000200 	sfmeq	f0, 4, [r0, #-0]
    13f4:	02000001 	andeq	r0, r0, #1
    13f8:	0d0efb01 	vstreq	d15, [lr, #-4]
    13fc:	01010100 	mrseq	r0, (UNDEF: 17)
    1400:	00000001 	andeq	r0, r0, r1
    1404:	01000001 	tsteq	r0, r1
    1408:	34317363 	ldrtcc	r7, [r1], #-867	; 0x363
    140c:	692d6530 	pushvs	{r4, r5, r8, sl, sp, lr}
    1410:	7265746e 	rsbvc	r7, r5, #1845493760	; 0x6e000000
    1414:	74707572 	ldrbtvc	r7, [r0], #-1394	; 0x572
    1418:	73752f00 	cmnvc	r5, #0, 30
    141c:	6f6c2f72 	svcvs	0x006c2f72
    1420:	2f6c6163 	svccs	0x006c6163
    1424:	6c6c6543 	cfstr64vs	mvdx6, [ip], #-268	; 0xfffffef4
    1428:	612f7261 	teqvs	pc, r1, ror #4
    142c:	6e2d6d72 	mcrvs	13, 1, r6, cr13, cr2, {3}
    1430:	2d656e6f 	stclcs	14, cr6, [r5, #-444]!	; 0xfffffe44
    1434:	69626165 	stmdbvs	r2!, {r0, r2, r5, r6, r8, sp, lr}^
    1438:	382e342f 	stmdacc	lr!, {r0, r1, r2, r3, r5, sl, ip, sp}
    143c:	632d332e 	teqvs	sp, #-1207959552	; 0xb8000000
    1440:	30373173 	eorscc	r3, r7, r3, ror r1
    1444:	696c2f65 	stmdbvs	ip!, {r0, r2, r5, r6, r8, r9, sl, fp, sp}^
    1448:	63672f62 	cmnvs	r7, #392	; 0x188
    144c:	72612f63 	rsbvc	r2, r1, #396	; 0x18c
    1450:	6f6e2d6d 	svcvs	0x006e2d6d
    1454:	652d656e 	strvs	r6, [sp, #-1390]!	; 0x56e
    1458:	2f696261 	svccs	0x00696261
    145c:	2e382e34 	mrccs	14, 1, r2, cr8, cr4, {1}
    1460:	6e692f33 	mcrvs	15, 3, r2, cr9, cr3, {1}
    1464:	64756c63 	ldrbtvs	r6, [r5], #-3171	; 0xc63
    1468:	552f0065 	strpl	r0, [pc, #-101]!	; 140b <_start-0x6bf5>
    146c:	73726573 	cmnvc	r2, #482344960	; 0x1cc00000
    1470:	6972622f 	ldmdbvs	r2!, {r0, r1, r2, r3, r5, r9, sp, lr}^
    1474:	756a6e61 	strbvc	r6, [sl, #-3681]!	; 0xe61
    1478:	65442f6e 	strbvs	r2, [r4, #-3950]	; 0xf6e
    147c:	6f746b73 	svcvs	0x00746b73
    1480:	63732f70 	cmnvs	r3, #112, 30	; 0x1c0
    1484:	6c6f6f68 	stclvs	15, cr6, [pc], #-416	; 12ec <_start-0x6d14>
    1488:	6e69572f 	cdpvs	7, 6, cr5, cr9, cr15, {1}
    148c:	31726574 	cmncc	r2, r4, ror r5
    1490:	2f303239 	svccs	0x00303239
    1494:	34315343 	ldrtcc	r5, [r1], #-835	; 0x343
    1498:	632f4530 	teqvs	pc, #48, 10	; 0xc000000
    149c:	30343173 	eorscc	r3, r4, r3, ror r1
    14a0:	30322d65 	eorscc	r2, r2, r5, ror #26
    14a4:	2f6e6977 	svccs	0x006e6977
    14a8:	7062696c 	rsbvc	r6, r2, ip, ror #18
    14ac:	74000069 	strvc	r0, [r0], #-105	; 0x69
    14b0:	72656d69 	rsbvc	r6, r5, #6720	; 0x1a40
    14b4:	746e692d 	strbtvc	r6, [lr], #-2349	; 0x92d
    14b8:	75727265 	ldrbvc	r7, [r2, #-613]!	; 0x265
    14bc:	632e7470 	teqvs	lr, #112, 8	; 0x70000000
    14c0:	00000100 	andeq	r0, r0, r0, lsl #2
    14c4:	2d697072 	stclcs	0, cr7, [r9, #-456]!	; 0xfffffe38
    14c8:	746d7261 	strbtvc	r7, [sp], #-609	; 0x261
    14cc:	72656d69 	rsbvc	r6, r5, #6720	; 0x1a40
    14d0:	0100682e 	tsteq	r0, lr, lsr #16
    14d4:	74730000 	ldrbtvc	r0, [r3], #-0
    14d8:	746e6964 	strbtvc	r6, [lr], #-2404	; 0x964
    14dc:	6363672d 	cmnvs	r3, #11796480	; 0xb40000
    14e0:	0200682e 	andeq	r6, r0, #3014656	; 0x2e0000
    14e4:	70720000 	rsbsvc	r0, r2, r0
    14e8:	6e692d69 	cdpvs	13, 6, cr2, cr9, cr9, {3}
    14ec:	72726574 	rsbsvc	r6, r2, #116, 10	; 0x1d000000
    14f0:	73747075 	cmnvc	r4, #117	; 0x75
    14f4:	0100682e 	tsteq	r0, lr, lsr #16
    14f8:	70720000 	rsbsvc	r0, r2, r0
    14fc:	00682e69 	rsbeq	r2, r8, r9, ror #28
    1500:	00000003 	andeq	r0, r0, r3
    1504:	28020500 	stmdacs	r2, {r8, sl}
    1508:	030000a8 	movweq	r0, #168	; 0xa8
    150c:	0b03013e 	bleq	c1a0c <__bss_end__+0xb5d24>
    1510:	46034b4a 	strmi	r4, [r3], -sl, asr #22
    1514:	6a324b66 	bvs	c942b4 <__bss_end__+0xc885cc>
    1518:	000e026a 	andeq	r0, lr, sl, ror #4
    151c:	00ec0101 	rsceq	r0, ip, r1, lsl #2
    1520:	00020000 	andeq	r0, r2, r0
    1524:	000000d0 	ldrdeq	r0, [r0], -r0	; <UNPREDICTABLE>
    1528:	0efb0102 	cdpeq	1, 15, cr0, cr11, cr2, {0}
    152c:	0101000d 	tsteq	r1, sp
    1530:	00000101 	andeq	r0, r0, r1, lsl #2
    1534:	00000100 	andeq	r0, r0, r0, lsl #2
    1538:	62696c01 	rsbvs	r6, r9, #256	; 0x100
    153c:	752f0063 	strvc	r0, [pc, #-99]!	; 14e1 <_start-0x6b1f>
    1540:	6c2f7273 	sfmvs	f7, 4, [pc], #-460	; 137c <_start-0x6c84>
    1544:	6c61636f 	stclvs	3, cr6, [r1], #-444	; 0xfffffe44
    1548:	6c65432f 	stclvs	3, cr4, [r5], #-188	; 0xffffff44
    154c:	2f72616c 	svccs	0x0072616c
    1550:	2d6d7261 	sfmcs	f7, 2, [sp, #-388]!	; 0xfffffe7c
    1554:	656e6f6e 	strbvs	r6, [lr, #-3950]!	; 0xf6e
    1558:	6261652d 	rsbvs	r6, r1, #188743680	; 0xb400000
    155c:	2e342f69 	cdpcs	15, 3, cr2, cr4, cr9, {3}
    1560:	2d332e38 	ldccs	14, cr2, [r3, #-224]!	; 0xffffff20
    1564:	37317363 	ldrcc	r7, [r1, -r3, ror #6]!
    1568:	6c2f6530 	cfstr32vs	mvfx6, [pc], #-192	; 14b0 <_start-0x6b50>
    156c:	672f6269 	strvs	r6, [pc, -r9, ror #4]!
    1570:	612f6363 	teqvs	pc, r3, ror #6
    1574:	6e2d6d72 	mcrvs	13, 1, r6, cr13, cr2, {3}
    1578:	2d656e6f 	stclcs	14, cr6, [r5, #-444]!	; 0xfffffe44
    157c:	69626165 	stmdbvs	r2!, {r0, r2, r5, r6, r8, sp, lr}^
    1580:	382e342f 	stmdacc	lr!, {r0, r1, r2, r3, r5, sl, ip, sp}
    1584:	692f332e 	stmdbvs	pc!, {r1, r2, r3, r5, r8, r9, ip, sp}	; <UNPREDICTABLE>
    1588:	756c636e 	strbvc	r6, [ip, #-878]!	; 0x36e
    158c:	2f006564 	svccs	0x00006564
    1590:	2f727375 	svccs	0x00727375
    1594:	61636f6c 	cmnvs	r3, ip, ror #30
    1598:	65432f6c 	strbvs	r2, [r3, #-3948]	; 0xf6c
    159c:	72616c6c 	rsbvc	r6, r1, #108, 24	; 0x6c00
    15a0:	6d72612f 	ldfvse	f6, [r2, #-188]!	; 0xffffff44
    15a4:	6e6f6e2d 	cdpvs	14, 6, cr6, cr15, cr13, {1}
    15a8:	61652d65 	cmnvs	r5, r5, ror #26
    15ac:	342f6962 	strtcc	r6, [pc], #-2402	; 15b4 <_start-0x6a4c>
    15b0:	332e382e 	teqcc	lr, #3014656	; 0x2e0000
    15b4:	3173632d 	cmncc	r3, sp, lsr #6
    15b8:	2f653037 	svccs	0x00653037
    15bc:	2d6d7261 	sfmcs	f7, 2, [sp, #-388]!	; 0xfffffe7c
    15c0:	656e6f6e 	strbvs	r6, [lr, #-3950]!	; 0xf6e
    15c4:	6261652d 	rsbvs	r6, r1, #188743680	; 0xb400000
    15c8:	6e692f69 	cdpvs	15, 6, cr2, cr9, cr9, {3}
    15cc:	64756c63 	ldrbtvs	r6, [r5], #-3171	; 0xc63
    15d0:	6d000065 	stcvs	0, cr0, [r0, #-404]	; 0xfffffe6c
    15d4:	65736d65 	ldrbvs	r6, [r3, #-3429]!	; 0xd65
    15d8:	00632e74 	rsbeq	r2, r3, r4, ror lr
    15dc:	73000001 	movwvc	r0, #1
    15e0:	65646474 	strbvs	r6, [r4, #-1140]!	; 0x474
    15e4:	00682e66 	rsbeq	r2, r8, r6, ror #28
    15e8:	73000002 	movwvc	r0, #2
    15ec:	6e697274 	mcrvs	2, 3, r7, cr9, cr4, {3}
    15f0:	00682e67 	rsbeq	r2, r8, r7, ror #28
    15f4:	00000003 	andeq	r0, r0, r3
    15f8:	d4020500 	strle	r0, [r2], #-1280	; 0x500
    15fc:	140000a9 	strne	r0, [r0], #-169	; 0xa9
    1600:	002f4c13 	eoreq	r4, pc, r3, lsl ip	; <UNPREDICTABLE>
    1604:	49010402 	stmdbmi	r1, {r1, sl}
    1608:	0002024d 	andeq	r0, r2, sp, asr #4
    160c:	00a50101 	adceq	r0, r5, r1, lsl #2
    1610:	00020000 	andeq	r0, r2, r0
    1614:	00000091 	muleq	r0, r1, r0
    1618:	0efb0102 	cdpeq	1, 15, cr0, cr11, cr2, {0}
    161c:	0101000d 	tsteq	r1, sp
    1620:	00000101 	andeq	r0, r0, r1, lsl #2
    1624:	00000100 	andeq	r0, r0, r0, lsl #2
    1628:	31736301 	cmncc	r3, r1, lsl #6
    162c:	2d653034 	stclcs	0, cr3, [r5, #-208]!	; 0xffffff30
    1630:	65746e69 	ldrbvs	r6, [r4, #-3689]!	; 0xe69
    1634:	70757272 	rsbsvc	r7, r5, r2, ror r2
    1638:	552f0074 	strpl	r0, [pc, #-116]!	; 15cc <_start-0x6a34>
    163c:	73726573 	cmnvc	r2, #482344960	; 0x1cc00000
    1640:	6972622f 	ldmdbvs	r2!, {r0, r1, r2, r3, r5, r9, sp, lr}^
    1644:	756a6e61 	strbvc	r6, [sl, #-3681]!	; 0xe61
    1648:	65442f6e 	strbvs	r2, [r4, #-3950]	; 0xf6e
    164c:	6f746b73 	svcvs	0x00746b73
    1650:	63732f70 	cmnvs	r3, #112, 30	; 0x1c0
    1654:	6c6f6f68 	stclvs	15, cr6, [pc], #-416	; 14bc <_start-0x6b44>
    1658:	6e69572f 	cdpvs	7, 6, cr5, cr9, cr15, {1}
    165c:	31726574 	cmncc	r2, r4, ror r5
    1660:	2f303239 	svccs	0x00303239
    1664:	34315343 	ldrtcc	r5, [r1], #-835	; 0x343
    1668:	632f4530 	teqvs	pc, #48, 10	; 0xc000000
    166c:	30343173 	eorscc	r3, r4, r3, ror r1
    1670:	30322d65 	eorscc	r2, r2, r5, ror #26
    1674:	2f6e6977 	svccs	0x006e6977
    1678:	7062696c 	rsbvc	r6, r2, ip, ror #18
    167c:	64000069 	strvs	r0, [r0], #-105	; 0x69
    1680:	75616665 	strbvc	r6, [r1, #-1637]!	; 0x665
    1684:	682d746c 	stmdavs	sp!, {r2, r3, r5, r6, sl, ip, sp, lr}
    1688:	6c646e61 	stclvs	14, cr6, [r4], #-388	; 0xfffffe7c
    168c:	642d7265 	strtvs	r7, [sp], #-613	; 0x265
    1690:	2d617461 	cfstrdcs	mvd7, [r1, #-388]!	; 0xfffffe7c
    1694:	726f6261 	rsbvc	r6, pc, #268435462	; 0x10000006
    1698:	00632e74 	rsbeq	r2, r3, r4, ror lr
    169c:	72000001 	andvc	r0, r0, #1
    16a0:	682e6970 	stmdavs	lr!, {r4, r5, r6, r8, fp, sp, lr}
    16a4:	00000200 	andeq	r0, r0, r0, lsl #4
    16a8:	02050000 	andeq	r0, r5, #0
    16ac:	0000a9f4 	strdeq	sl, [r0], -r4
    16b0:	1c026613 	stcne	6, cr6, [r2], {19}
    16b4:	a3010100 	movwge	r0, #4352	; 0x1100
    16b8:	02000000 	andeq	r0, r0, #0
    16bc:	00008f00 	andeq	r8, r0, r0, lsl #30
    16c0:	fb010200 	blx	41eca <__bss_end__+0x361e2>
    16c4:	01000d0e 	tsteq	r0, lr, lsl #26
    16c8:	00010101 	andeq	r0, r1, r1, lsl #2
    16cc:	00010000 	andeq	r0, r1, r0
    16d0:	73630100 	cmnvc	r3, #0, 2
    16d4:	65303431 	ldrvs	r3, [r0, #-1073]!	; 0x431
    16d8:	746e692d 	strbtvc	r6, [lr], #-2349	; 0x92d
    16dc:	75727265 	ldrbvc	r7, [r2, #-613]!	; 0x265
    16e0:	2f007470 	svccs	0x00007470
    16e4:	72657355 	rsbvc	r7, r5, #1409286145	; 0x54000001
    16e8:	72622f73 	rsbvc	r2, r2, #460	; 0x1cc
    16ec:	6a6e6169 	bvs	1b99c98 <__bss_end__+0x1b8dfb0>
    16f0:	442f6e75 	strtmi	r6, [pc], #-3701	; 16f8 <_start-0x6908>
    16f4:	746b7365 	strbtvc	r7, [fp], #-869	; 0x365
    16f8:	732f706f 	teqvc	pc, #111	; 0x6f
    16fc:	6f6f6863 	svcvs	0x006f6863
    1700:	69572f6c 	ldmdbvs	r7, {r2, r3, r5, r6, r8, r9, sl, fp, sp}^
    1704:	7265746e 	rsbvc	r7, r5, #1845493760	; 0x6e000000
    1708:	30323931 	eorscc	r3, r2, r1, lsr r9
    170c:	3153432f 	cmpcc	r3, pc, lsr #6
    1710:	2f453034 	svccs	0x00453034
    1714:	34317363 	ldrtcc	r7, [r1], #-867	; 0x363
    1718:	322d6530 	eorcc	r6, sp, #48, 10	; 0xc000000
    171c:	6e697730 	mcrvs	7, 3, r7, cr9, cr0, {1}
    1720:	62696c2f 	rsbvs	r6, r9, #12032	; 0x2f00
    1724:	00006970 	andeq	r6, r0, r0, ror r9
    1728:	61666564 	cmnvs	r6, r4, ror #10
    172c:	2d746c75 	ldclcs	12, cr6, [r4, #-468]!	; 0xfffffe2c
    1730:	646e6168 	strbtvs	r6, [lr], #-360	; 0x168
    1734:	2d72656c 	cfldr64cs	mvdx6, [r2, #-432]!	; 0xfffffe50
    1738:	66657270 			; <UNDEFINED> instruction: 0x66657270
    173c:	68637465 	stmdavs	r3!, {r0, r2, r5, r6, sl, ip, sp, lr}^
    1740:	0100632e 	tsteq	r0, lr, lsr #6
    1744:	70720000 	rsbsvc	r0, r2, r0
    1748:	00682e69 	rsbeq	r2, r8, r9, ror #28
    174c:	00000002 	andeq	r0, r0, r2
    1750:	38020500 	stmdacc	r2, {r8, sl}
    1754:	130000aa 	movwne	r0, #170	; 0xaa
    1758:	001c0266 	andseq	r0, ip, r6, ror #4
    175c:	00a00101 	adceq	r0, r0, r1, lsl #2
    1760:	00020000 	andeq	r0, r2, r0
    1764:	0000008c 	andeq	r0, r0, ip, lsl #1
    1768:	0efb0102 	cdpeq	1, 15, cr0, cr11, cr2, {0}
    176c:	0101000d 	tsteq	r1, sp
    1770:	00000101 	andeq	r0, r0, r1, lsl #2
    1774:	00000100 	andeq	r0, r0, r0, lsl #2
    1778:	31736301 	cmncc	r3, r1, lsl #6
    177c:	2d653034 	stclcs	0, cr3, [r5, #-208]!	; 0xffffff30
    1780:	65746e69 	ldrbvs	r6, [r4, #-3689]!	; 0xe69
    1784:	70757272 	rsbsvc	r7, r5, r2, ror r2
    1788:	552f0074 	strpl	r0, [pc, #-116]!	; 171c <_start-0x68e4>
    178c:	73726573 	cmnvc	r2, #482344960	; 0x1cc00000
    1790:	6972622f 	ldmdbvs	r2!, {r0, r1, r2, r3, r5, r9, sp, lr}^
    1794:	756a6e61 	strbvc	r6, [sl, #-3681]!	; 0xe61
    1798:	65442f6e 	strbvs	r2, [r4, #-3950]	; 0xf6e
    179c:	6f746b73 	svcvs	0x00746b73
    17a0:	63732f70 	cmnvs	r3, #112, 30	; 0x1c0
    17a4:	6c6f6f68 	stclvs	15, cr6, [pc], #-416	; 160c <_start-0x69f4>
    17a8:	6e69572f 	cdpvs	7, 6, cr5, cr9, cr15, {1}
    17ac:	31726574 	cmncc	r2, r4, ror r5
    17b0:	2f303239 	svccs	0x00303239
    17b4:	34315343 	ldrtcc	r5, [r1], #-835	; 0x343
    17b8:	632f4530 	teqvs	pc, #48, 10	; 0xc000000
    17bc:	30343173 	eorscc	r3, r4, r3, ror r1
    17c0:	30322d65 	eorscc	r2, r2, r5, ror #26
    17c4:	2f6e6977 	svccs	0x006e6977
    17c8:	7062696c 	rsbvc	r6, r2, ip, ror #18
    17cc:	64000069 	strvs	r0, [r0], #-105	; 0x69
    17d0:	75616665 	strbvc	r6, [r1, #-1637]!	; 0x665
    17d4:	682d746c 	stmdavs	sp!, {r2, r3, r5, r6, sl, ip, sp, lr}
    17d8:	6c646e61 	stclvs	14, cr6, [r4], #-388	; 0xfffffe7c
    17dc:	722d7265 	eorvc	r7, sp, #1342177286	; 0x50000006
    17e0:	74657365 	strbtvc	r7, [r5], #-869	; 0x365
    17e4:	0100632e 	tsteq	r0, lr, lsr #6
    17e8:	70720000 	rsbsvc	r0, r2, r0
    17ec:	00682e69 	rsbeq	r2, r8, r9, ror #28
    17f0:	00000002 	andeq	r0, r0, r2
    17f4:	7c020500 	cfstr32vc	mvfx0, [r2], {-0}
    17f8:	130000aa 	movwne	r0, #170	; 0xaa
    17fc:	001c0266 	andseq	r0, ip, r6, ror #4
    1800:	00a90101 	adceq	r0, r9, r1, lsl #2
    1804:	00020000 	andeq	r0, r2, r0
    1808:	00000095 	muleq	r0, r5, r0
    180c:	0efb0102 	cdpeq	1, 15, cr0, cr11, cr2, {0}
    1810:	0101000d 	tsteq	r1, sp
    1814:	00000101 	andeq	r0, r0, r1, lsl #2
    1818:	00000100 	andeq	r0, r0, r0, lsl #2
    181c:	31736301 	cmncc	r3, r1, lsl #6
    1820:	2d653034 	stclcs	0, cr3, [r5, #-208]!	; 0xffffff30
    1824:	65746e69 	ldrbvs	r6, [r4, #-3689]!	; 0xe69
    1828:	70757272 	rsbsvc	r7, r5, r2, ror r2
    182c:	552f0074 	strpl	r0, [pc, #-116]!	; 17c0 <_start-0x6840>
    1830:	73726573 	cmnvc	r2, #482344960	; 0x1cc00000
    1834:	6972622f 	ldmdbvs	r2!, {r0, r1, r2, r3, r5, r9, sp, lr}^
    1838:	756a6e61 	strbvc	r6, [sl, #-3681]!	; 0xe61
    183c:	65442f6e 	strbvs	r2, [r4, #-3950]	; 0xf6e
    1840:	6f746b73 	svcvs	0x00746b73
    1844:	63732f70 	cmnvs	r3, #112, 30	; 0x1c0
    1848:	6c6f6f68 	stclvs	15, cr6, [pc], #-416	; 16b0 <_start-0x6950>
    184c:	6e69572f 	cdpvs	7, 6, cr5, cr9, cr15, {1}
    1850:	31726574 	cmncc	r2, r4, ror r5
    1854:	2f303239 	svccs	0x00303239
    1858:	34315343 	ldrtcc	r5, [r1], #-835	; 0x343
    185c:	632f4530 	teqvs	pc, #48, 10	; 0xc000000
    1860:	30343173 	eorscc	r3, r4, r3, ror r1
    1864:	30322d65 	eorscc	r2, r2, r5, ror #26
    1868:	2f6e6977 	svccs	0x006e6977
    186c:	7062696c 	rsbvc	r6, r2, ip, ror #18
    1870:	64000069 	strvs	r0, [r0], #-105	; 0x69
    1874:	75616665 	strbvc	r6, [r1, #-1637]!	; 0x665
    1878:	682d746c 	stmdavs	sp!, {r2, r3, r5, r6, sl, ip, sp, lr}
    187c:	6c646e61 	stclvs	14, cr6, [r4], #-388	; 0xfffffe7c
    1880:	752d7265 	strvc	r7, [sp, #-613]!	; 0x265
    1884:	6665646e 	strbtvs	r6, [r5], -lr, ror #8
    1888:	64656e69 	strbtvs	r6, [r5], #-3689	; 0xe69
    188c:	736e692d 	cmnvc	lr, #737280	; 0xb4000
    1890:	00632e74 	rsbeq	r2, r3, r4, ror lr
    1894:	72000001 	andvc	r0, r0, #1
    1898:	682e6970 	stmdavs	lr!, {r4, r5, r6, r8, fp, sp, lr}
    189c:	00000200 	andeq	r0, r0, r0, lsl #4
    18a0:	02050000 	andeq	r0, r5, #0
    18a4:	0000aac0 	andeq	sl, r0, r0, asr #21
    18a8:	1c026613 	stcne	6, cr6, [r2], {19}
    18ac:	Address 0x00000000000018ac is out of bounds.


Disassembly of section .debug_str:

00000000 <.debug_str>:
       0:	4f525245 	svcmi	0x00525245
       4:	554f0052 	strbpl	r0, [pc, #-82]	; ffffffba <__bss_end__+0xffff42d2>
       8:	4c5f5854 	mrrcmi	8, 5, r5, pc, cr4	; <UNPREDICTABLE>
       c:	004c585f 	subeq	r5, ip, pc, asr r8
      10:	5f697072 	svcpl	0x00697072
      14:	65736572 	ldrbvs	r6, [r3, #-1394]!	; 0x572
      18:	75705f74 	ldrbvc	r5, [r0, #-3956]!	; 0xf74
      1c:	75006374 	strvc	r6, [r0, #-884]	; 0x374
      20:	5f636573 	svcpl	0x00636573
      24:	77746562 	ldrbvc	r6, [r4, -r2, ror #10]!
      28:	5f6e6565 	svcpl	0x006e6565
      2c:	70657473 	rsbvc	r7, r5, r3, ror r4
      30:	79670073 	stmdbvc	r7!, {r0, r1, r4, r5, r6}^
      34:	645f6f72 	ldrbvs	r6, [pc], #-3954	; 3c <_start-0x7fc4>
      38:	00617461 	rsbeq	r7, r1, r1, ror #8
      3c:	366d736c 	strbtcc	r7, [sp], -ip, ror #6
      40:	33337364 	teqcc	r3, #100, 6	; 0x90000001
      44:	6832355f 	ldmdavs	r2!, {r0, r1, r2, r3, r4, r6, r8, sl, ip, sp}
      48:	7473007a 	ldrbtvc	r0, [r3], #-122	; 0x7a
      4c:	65707065 	ldrbvs	r7, [r0, #-101]!	; 0x65
      50:	00745f72 	rsbseq	r5, r4, r2, ror pc
      54:	70657473 	rsbvc	r7, r5, r3, ror r4
      58:	5f726570 	svcpl	0x00726570
      5c:	5f746e69 	svcpl	0x00746e69
      60:	75716e65 	ldrbvc	r6, [r1, #-3685]!	; 0xe65
      64:	5f657565 	svcpl	0x00657565
      68:	00736f70 	rsbseq	r6, r3, r0, ror pc
      6c:	55465f5f 	strbpl	r5, [r6, #-3935]	; 0xf5f
      70:	4954434e 	ldmdbmi	r4, {r1, r2, r3, r6, r8, r9, lr}^
      74:	5f5f4e4f 	svcpl	0x005f4e4f
      78:	4d495400 	cfstrdmi	mvd5, [r9, #-0]
      7c:	41545345 	cmpmi	r4, r5, asr #6
      80:	5f30504d 	svcpl	0x0030504d
      84:	00474552 	subeq	r4, r7, r2, asr r5
      88:	5854554f 	ldmdapl	r4, {r0, r1, r2, r3, r6, r8, sl, ip, lr}^
      8c:	475f4c5f 			; <UNDEFINED> instruction: 0x475f4c5f
      90:	70646d00 	rsbvc	r6, r4, r0, lsl #26
      94:	61725f73 	cmnvs	r2, r3, ror pc
      98:	65680077 	strbvs	r0, [r8, #-119]!	; 0x77
      9c:	6c006461 	cfstrsvs	mvf6, [r0], {97}	; 0x61
      a0:	64366d73 	ldrtvs	r6, [r6], #-3443	; 0xd73
      a4:	5f333373 	svcpl	0x00333373
      a8:	5f737064 	svcpl	0x00737064
      ac:	524f0074 	subpl	r0, pc, #116	; 0x74
      b0:	544e4549 	strbpl	r4, [lr], #-1353	; 0x549
      b4:	4746435f 	smlsldmi	r4, r6, pc, r3	; <UNPREDICTABLE>
      b8:	4600475f 			; <UNDEFINED> instruction: 0x4600475f
      bc:	5f4c4c55 	svcpl	0x004c4c55
      c0:	50455453 	subpl	r5, r5, r3, asr r4
      c4:	67657200 	strbvs	r7, [r5, -r0, lsl #4]!
      c8:	72646441 	rsbvc	r6, r4, #1090519040	; 0x41000000
      cc:	54554f00 	ldrbpl	r4, [r5], #-3840	; 0xf00
      d0:	4d45545f 	cfstrdmi	mvd5, [r5, #-380]	; 0xfffffe84
      d4:	00485f50 	subeq	r5, r8, r0, asr pc
      d8:	5f54554f 	svcpl	0x0054554f
      dc:	504d4554 	subpl	r4, sp, r4, asr r5
      e0:	46004c5f 			; <UNDEFINED> instruction: 0x46004c5f
      e4:	5f4f4649 	svcpl	0x004f4649
      e8:	54415453 	strbpl	r5, [r1], #-1107	; 0x453
      ec:	00325355 	eorseq	r5, r2, r5, asr r3
      f0:	4f464946 	svcmi	0x00464946
      f4:	4154535f 	cmpmi	r4, pc, asr r3
      f8:	33535554 	cmpcc	r3, #84, 10	; 0x15000000
      fc:	46494600 	strbmi	r4, [r9], -r0, lsl #12
     100:	54535f4f 	ldrbpl	r5, [r3], #-3919	; 0xf4f
     104:	53555441 	cmppl	r5, #1090519040	; 0x41000000
     108:	554f0034 	strbpl	r0, [pc, #-52]	; dc <_start-0x7f24>
     10c:	485f5954 	ldmdami	pc, {r2, r4, r6, r8, fp, ip, lr}^	; <UNPREDICTABLE>
     110:	6c00475f 	stcvs	7, cr4, [r0], {95}	; 0x5f
     114:	64366d73 	ldrtvs	r6, [r6], #-3443	; 0xd73
     118:	5f333373 	svcpl	0x00333373
     11c:	7a683331 	bvc	1a0cde8 <__bss_end__+0x1a01100>
     120:	6f6c6600 	svcvs	0x006c6600
     124:	4300726f 	movwmi	r7, #623	; 0x26f
     128:	374c5254 	smlsldcc	r5, ip, r4, r2
     12c:	7300475f 	movwvc	r4, #1887	; 0x75f
     130:	5f746174 	svcpl	0x00746174
     134:	006c6176 	rsbeq	r6, ip, r6, ror r1
     138:	70657473 	rsbvc	r7, r5, r3, ror r4
     13c:	5f726570 	svcpl	0x00726570
     140:	69736f70 	ldmdbvs	r3!, {r4, r5, r6, r8, r9, sl, fp, sp, lr}^
     144:	6e6f6974 	mcrvs	9, 3, r6, cr15, cr4, {3}
     148:	6174735f 	cmnvs	r4, pc, asr r3
     14c:	5f737574 	svcpl	0x00737574
     150:	6f630074 	svcvs	0x00630074
     154:	5f6f626d 	svcpl	0x006f626d
     158:	4300676d 	movwmi	r6, #1901	; 0x76d
     15c:	324c5254 	subcc	r5, ip, #84, 4	; 0x40000005
     160:	7300475f 	movwvc	r4, #1887	; 0x75f
     164:	70706574 	rsbsvc	r6, r0, r4, ror r5
     168:	675f7265 	ldrbvs	r7, [pc, -r5, ror #4]
     16c:	705f7465 	subsvc	r7, pc, r5, ror #8
     170:	7469736f 	strbtvc	r7, [r9], #-879	; 0x36f
     174:	5f6e6f69 	svcpl	0x006e6f69
     178:	735f6e69 	cmpvc	pc, #1680	; 0x690
     17c:	73706574 	cmnvc	r0, #116, 10	; 0x1d000000
     180:	45545300 	ldrbmi	r5, [r4, #-768]	; 0x300
     184:	4f435f50 	svcmi	0x00435f50
     188:	45544e55 	ldrbmi	r4, [r4, #-3669]	; 0xe55
     18c:	00485f52 	subeq	r5, r8, r2, asr pc
     190:	5f756d69 	svcpl	0x00756d69
     194:	69007277 	stmdbvs	r0, {r0, r1, r2, r4, r5, r6, r9, ip, sp, lr}
     198:	785f756d 	ldmdavc	pc, {r0, r2, r3, r5, r6, r8, sl, ip, sp, lr}^	; <UNPREDICTABLE>
     19c:	745f7a79 	ldrbvc	r7, [pc], #-2681	; 1a4 <_start-0x7e5c>
     1a0:	45545300 	ldrbmi	r5, [r4, #-768]	; 0x300
     1a4:	4f435f50 	svcmi	0x00435f50
     1a8:	45544e55 	ldrbmi	r4, [r4, #-3669]	; 0xe55
     1ac:	004c5f52 	subeq	r5, ip, r2, asr pc
     1b0:	7370646d 	cmnvc	r0, #1828716544	; 0x6d000000
     1b4:	6163735f 	cmnvs	r3, pc, asr r3
     1b8:	0064656c 	rsbeq	r6, r4, ip, ror #10
     1bc:	5a54554f 	bpl	1515700 <__bss_end__+0x1509a18>
     1c0:	585f4c5f 	ldmdapl	pc, {r0, r1, r2, r3, r4, r6, sl, fp, lr}^	; <UNPREDICTABLE>
     1c4:	4e49004c 	cdpmi	0, 4, cr0, cr9, cr12, {2}
     1c8:	435f3154 	cmpmi	pc, #84, 2
     1cc:	004c5254 	subeq	r5, ip, r4, asr r2
     1d0:	5f504154 	svcpl	0x00504154
     1d4:	00474643 	subeq	r4, r7, r3, asr #12
     1d8:	5f4c4156 	svcpl	0x004c4156
     1dc:	5f4f4857 	svcpl	0x004f4857
     1e0:	495f4d41 	ldmdbmi	pc, {r0, r6, r8, sl, fp, lr}^	; <UNPREDICTABLE>
     1e4:	65747300 	ldrbvs	r7, [r4, #-768]!	; 0x300
     1e8:	72657070 	rsbvc	r7, r5, #112	; 0x70
     1ec:	7365742d 	cmnvc	r5, #754974720	; 0x2d000000
     1f0:	00632e74 	rsbeq	r2, r3, r4, ror lr
     1f4:	6167656c 	cmnvs	r7, ip, ror #10
     1f8:	70645f6c 	rsbvc	r5, r4, ip, ror #30
     1fc:	69750073 	ldmdbvs	r5!, {r0, r1, r4, r5, r6}^
     200:	3233746e 	eorscc	r7, r3, #1845493760	; 0x6e000000
     204:	7600745f 			; <UNDEFINED> instruction: 0x7600745f
     208:	00736c61 	rsbseq	r6, r3, r1, ror #24
     20c:	50455453 	subpl	r5, r5, r3, asr r4
     210:	4d49545f 	cfstrdmi	mvd5, [r9, #-380]	; 0xfffffe84
     214:	41545345 	cmpmi	r4, r5, asr #6
     218:	485f504d 	ldmdami	pc, {r0, r2, r3, r6, ip, lr}^	; <UNPREDICTABLE>
     21c:	45545300 	ldrbmi	r5, [r4, #-768]	; 0x300
     220:	49545f50 	ldmdbmi	r4, {r4, r6, r8, r9, sl, fp, ip, lr}^
     224:	5453454d 	ldrbpl	r4, [r3], #-1357	; 0x54d
     228:	5f504d41 	svcpl	0x00504d41
     22c:	444d004c 	strbmi	r0, [sp], #-76	; 0x4c
     230:	46435f32 			; <UNDEFINED> instruction: 0x46435f32
     234:	554f0047 	strbpl	r0, [pc, #-71]	; 1f5 <_start-0x7e0b>
     238:	485f5954 	ldmdami	pc, {r2, r4, r6, r8, fp, ip, lr}^	; <UNPREDICTABLE>
     23c:	004c585f 	subeq	r5, ip, pc, asr r8
     240:	676e6f6c 	strbvs	r6, [lr, -ip, ror #30]!
     244:	6e6f6c20 	cdpvs	12, 6, cr6, cr15, cr0, {1}
     248:	6e752067 	cdpvs	0, 7, cr2, cr5, cr7, {3}
     24c:	6e676973 	mcrvs	9, 3, r6, cr7, cr3, {3}
     250:	69206465 	stmdbvs	r0!, {r0, r2, r5, r6, sl, sp, lr}
     254:	6900746e 	stmdbvs	r0, {r1, r2, r3, r5, r6, sl, ip, sp, lr}
     258:	695f6332 	ldmdbvs	pc, {r1, r4, r5, r8, r9, sp, lr}^	; <UNPREDICTABLE>
     25c:	0074696e 	rsbseq	r6, r4, lr, ror #18
     260:	70657473 	rsbvc	r7, r5, r3, ror r4
     264:	5f726570 	svcpl	0x00726570
     268:	74696e69 	strbtvc	r6, [r9], #-3689	; 0xe69
     26c:	7469775f 	strbtvc	r7, [r9], #-1887	; 0x75f
     270:	6e695f68 	cdpvs	15, 6, cr5, cr9, cr8, {3}
     274:	55510074 	ldrbpl	r0, [r1, #-116]	; 0x74
     278:	45545241 	ldrbmi	r5, [r4, #-577]	; 0x241
     27c:	54535f52 	ldrbpl	r5, [r3], #-3922	; 0xf52
     280:	78005045 	stmdavc	r0, {r0, r2, r6, ip, lr}
     284:	6d5f7a79 	vldrvs	s15, [pc, #-484]	; a8 <_start-0x7f58>
     288:	5546006b 	strbpl	r0, [r6, #-107]	; 0x6b
     28c:	435f434e 	cmpmi	pc, #939524097	; 0x38000001
     290:	415f4746 	cmpmi	pc, r6, asr #14
     294:	53454343 	movtpl	r4, #21315	; 0x5343
     298:	54430053 	strbpl	r0, [r3], #-83	; 0x53
     29c:	5f394c52 	svcpl	0x00394c52
     2a0:	46004c58 			; <UNDEFINED> instruction: 0x46004c58
     2a4:	5f454552 	svcpl	0x00454552
     2a8:	4c4c4146 	stfmie	f4, [ip], {70}	; 0x46
     2ac:	4b415700 	blmi	1055eb4 <__bss_end__+0x104a1cc>
     2b0:	50555f45 	subspl	r5, r5, r5, asr #30
     2b4:	5348545f 	movtpl	r5, #33887	; 0x845f
     2b8:	6d736c00 	ldclvs	12, cr6, [r3, #-0]
     2bc:	33736436 	cmncc	r3, #905969664	; 0x36000000
     2c0:	30325f33 	eorscc	r5, r2, r3, lsr pc
     2c4:	70643030 	rsbvc	r3, r4, r0, lsr r0
     2c8:	54430073 	strbpl	r0, [r3], #-115	; 0x73
     2cc:	5f354c52 	svcpl	0x00354c52
     2d0:	65740043 	ldrbvs	r0, [r4, #-67]!	; 0x43
     2d4:	735f7473 	cmpvc	pc, #1929379840	; 0x73000000
     2d8:	70706574 	rsbsvc	r6, r0, r4, ror r5
     2dc:	54007265 	strpl	r7, [r0], #-613	; 0x265
     2e0:	53454d49 	movtpl	r4, #23881	; 0x5d49
     2e4:	504d4154 	subpl	r4, sp, r4, asr r1
     2e8:	45525f32 	ldrbmi	r5, [r2, #-3890]	; 0xf32
     2ec:	74730047 	ldrbtvc	r0, [r3], #-71	; 0x47
     2f0:	65707065 	ldrbvs	r7, [r0, #-101]!	; 0x65
     2f4:	6e695f72 	mcrvs	15, 3, r5, cr9, cr2, {3}
     2f8:	6f705f74 	svcvs	0x00705f74
     2fc:	69746973 	ldmdbvs	r4!, {r0, r1, r4, r5, r6, r8, fp, sp, lr}^
     300:	695f6e6f 	ldmdbvs	pc, {r0, r1, r2, r3, r5, r6, r9, sl, fp, sp, lr}^	; <UNPREDICTABLE>
     304:	6f635f73 	svcvs	0x00635f73
     308:	656c706d 	strbvs	r7, [ip, #-109]!	; 0x6d
     30c:	4f006574 	svcmi	0x00006574
     310:	5f5a5455 	svcpl	0x005a5455
     314:	00475f4c 	subeq	r5, r7, ip, asr #30
     318:	5f544f4e 	svcpl	0x00544f4e
     31c:	4a5f4e49 	bmi	17d3c48 <__bss_end__+0x17c7f60>
     320:	6400424f 	strvs	r4, [r0], #-591	; 0x24f
     324:	79616c65 	stmdbvc	r1!, {r0, r2, r5, r6, sl, fp, sp, lr}^
     328:	00736d5f 	rsbseq	r6, r3, pc, asr sp
     32c:	366d736c 	strbtcc	r7, [sp], -ip, ror #6
     330:	33337364 	teqcc	r3, #100, 6	; 0x90000001
     334:	6665645f 			; <UNDEFINED> instruction: 0x6665645f
     338:	746c7561 	strbtvc	r7, [ip], #-1377	; 0x561
     33c:	6464615f 	strbtvs	r6, [r4], #-351	; 0x15f
     340:	736c0072 	cmnvc	ip, #114	; 0x72
     344:	7364366d 	cmnvc	r4, #114294784	; 0x6d00000
     348:	325f3333 	subscc	r3, pc, #-872415232	; 0xcc000000
     34c:	70643534 	rsbvc	r3, r4, r4, lsr r5
     350:	49460073 	stmdbmi	r6, {r0, r1, r4, r5, r6}^
     354:	4853494e 	ldmdami	r3, {r1, r2, r3, r6, r8, fp, lr}^
     358:	6c004445 	cfstrsvs	mvf4, [r0], {69}	; 0x45
     35c:	64366d73 	ldrtvs	r6, [r6], #-3443	; 0xd73
     360:	5f333373 	svcpl	0x00333373
     364:	745f7a68 	ldrbvc	r7, [pc], #-2664	; 36c <_start-0x7c94>
     368:	73552f00 	cmpvc	r5, #0, 30
     36c:	2f737265 	svccs	0x00737265
     370:	61697262 	cmnvs	r9, r2, ror #4
     374:	6e756a6e 	vsubvs.f32	s13, s10, s29
     378:	7365442f 	cmnvc	r5, #788529152	; 0x2f000000
     37c:	706f746b 	rsbvc	r7, pc, fp, ror #8
     380:	6863732f 	stmdavs	r3!, {r0, r1, r2, r3, r5, r8, r9, ip, sp, lr}^
     384:	2f6c6f6f 	svccs	0x006c6f6f
     388:	69727053 	ldmdbvs	r2!, {r0, r1, r4, r6, ip, sp, lr}^
     38c:	3931676e 	ldmdbcc	r1!, {r1, r2, r3, r5, r6, r8, r9, sl, sp, lr}
     390:	432f3032 	teqmi	pc, #50	; 0x32
     394:	30343253 	eorscc	r3, r4, r3, asr r2
     398:	632f584c 	teqvs	pc, #76, 16	; 0x4c0000
     39c:	30343273 	eorscc	r3, r4, r3, ror r2
     3a0:	322d786c 	eorcc	r7, sp, #108, 16	; 0x6c0000
     3a4:	72707330 	rsbsvc	r7, r0, #48, 6	; 0xc0000000
     3a8:	62616c2f 	rsbvs	r6, r1, #12032	; 0x2f00
     3ac:	6f6d2f73 	svcvs	0x006d2f73
     3b0:	2f726f74 	svccs	0x00726f74
     3b4:	65646f63 	strbvs	r6, [r4, #-3939]!	; 0xf63
     3b8:	544f4e00 	strbpl	r4, [pc], #-3584	; 3c0 <_start-0x7c40>
     3bc:	4154535f 	cmpmi	r4, pc, asr r3
     3c0:	44455452 	strbmi	r5, [r5], #-1106	; 0x452
     3c4:	65737500 	ldrbvs	r7, [r3, #-1280]!	; 0x500
     3c8:	74615f63 	strbtvc	r5, [r1], #-3939	; 0xf63
     3cc:	6572705f 	ldrbvs	r7, [r2, #-95]!	; 0x5f
     3d0:	74735f76 	ldrbtvc	r5, [r3], #-3958	; 0xf76
     3d4:	6c007065 	stcvs	0, cr7, [r0], {101}	; 0x65
     3d8:	6c616765 	stclvs	7, cr6, [r1], #-404	; 0xfffffe6c
     3dc:	7279675f 	rsbsvc	r6, r9, #24903680	; 0x17c0000
     3e0:	7a685f6f 	bvc	1a181a4 <__bss_end__+0x1a0c4bc>
     3e4:	6e697500 	cdpvs	5, 6, cr7, cr9, cr0, {0}
     3e8:	745f3874 	ldrbvc	r3, [pc], #-2164	; 3f0 <_start-0x7c10>
     3ec:	65747300 	ldrbvs	r7, [r4, #-768]!	; 0x300
     3f0:	72657070 	rsbvc	r7, r5, #112	; 0x70
     3f4:	6574735f 	ldrbvs	r7, [r4, #-863]!	; 0x35f
     3f8:	61625f70 	smcvs	9712	; 0x25f0
     3fc:	61776b63 	cmnvs	r7, r3, ror #22
     400:	6c006472 	cfstrsvs	mvf6, [r0], {114}	; 0x72
     404:	64366d73 	ldrtvs	r6, [r6], #-3443	; 0xd73
     408:	5f333373 	svcpl	0x00333373
     40c:	68333338 	ldmdavs	r3!, {r3, r4, r5, r8, r9, ip, sp}
     410:	5443007a 	strbpl	r0, [r3], #-122	; 0x7a
     414:	30314c52 	eorscc	r4, r1, r2, asr ip
     418:	4f00435f 	svcmi	0x0000435f
     41c:	5f585455 	svcpl	0x00585455
     420:	00475f48 	subeq	r5, r7, r8, asr #30
     424:	366d736c 	strbtcc	r7, [sp], -ip, ror #6
     428:	33337364 	teqcc	r3, #100, 6	; 0x90000001
     42c:	3636315f 			; <UNDEFINED> instruction: 0x3636315f
     430:	007a6830 	rsbseq	r6, sl, r0, lsr r8
     434:	6c616f67 	stclvs	15, cr6, [r1], #-412	; 0xfffffe64
     438:	6e6f6c00 	cdpvs	12, 6, cr6, cr15, cr0, {0}
     43c:	6f6c2067 	svcvs	0x006c2067
     440:	6920676e 	stmdbvs	r0!, {r1, r2, r3, r5, r6, r8, r9, sl, sp, lr}
     444:	7700746e 	strvc	r7, [r0, -lr, ror #8]
     448:	6f646e69 	svcvs	0x00646e69
     44c:	49460077 	stmdbmi	r6, {r0, r1, r2, r4, r5, r6}^
     450:	445f4f46 	ldrbmi	r4, [pc], #-3910	; 458 <_start-0x7ba8>
     454:	5f415441 	svcpl	0x00415441
     458:	5f54554f 	svcpl	0x0054554f
     45c:	49460048 	stmdbmi	r6, {r3, r6}^
     460:	445f4f46 	ldrbmi	r4, [pc], #-3910	; 468 <_start-0x7b98>
     464:	5f415441 	svcpl	0x00415441
     468:	5f54554f 	svcpl	0x0054554f
     46c:	7865004c 	stmdavc	r5!, {r2, r3, r6}^
     470:	74636570 	strbtvc	r6, [r3], #-1392	; 0x570
     474:	46006465 	strmi	r6, [r0], -r5, ror #8
     478:	5f4f4649 	svcpl	0x004f4649
     47c:	4c525443 	cfldrdmi	mvd5, [r2], {67}	; 0x43
     480:	49460031 	stmdbmi	r6, {r0, r4, r5}^
     484:	435f4f46 	cmpmi	pc, #280	; 0x118
     488:	324c5254 	subcc	r5, ip, #84, 4	; 0x40000005
     48c:	46494600 	strbmi	r4, [r9], -r0, lsl #12
     490:	54435f4f 	strbpl	r5, [r3], #-3919	; 0xf4f
     494:	00334c52 	eorseq	r4, r3, r2, asr ip
     498:	4f464946 	svcmi	0x00464946
     49c:	5254435f 	subspl	r4, r4, #2080374785	; 0x7c000001
     4a0:	4600344c 	strmi	r3, [r0], -ip, asr #8
     4a4:	5f4f4649 	svcpl	0x004f4649
     4a8:	4c525443 	cfldrdmi	mvd5, [r2], {67}	; 0x43
     4ac:	32690035 	rsbcc	r0, r9, #53	; 0x35
     4b0:	65725f63 	ldrbvs	r5, [r2, #-3939]!	; 0xf63
     4b4:	73006461 	movwvc	r6, #1121	; 0x461
     4b8:	70706574 	rsbsvc	r6, r0, r4, ror r5
     4bc:	695f7265 	ldmdbvs	pc, {r0, r2, r5, r6, r9, ip, sp, lr}^	; <UNPREDICTABLE>
     4c0:	745f746e 	ldrbvc	r7, [pc], #-1134	; 4c8 <_start-0x7b38>
     4c4:	54554f00 	ldrbpl	r4, [r5], #-3840	; 0xf00
     4c8:	5f4c5f59 	svcpl	0x004c5f59
     4cc:	47004c58 	smlsdmi	r0, r8, ip, r4
     4d0:	4320554e 	teqmi	r0, #327155712	; 0x13800000
     4d4:	382e3420 	stmdacc	lr!, {r5, sl, ip, sp}
     4d8:	2d20332e 	stccs	3, cr3, [r0, #-184]!	; 0xffffff48
     4dc:	7570636d 	ldrbvc	r6, [r0, #-877]!	; 0x36d
     4e0:	6d72613d 	ldfvse	f6, [r2, #-244]!	; 0xffffff0c
     4e4:	36373131 			; <UNDEFINED> instruction: 0x36373131
     4e8:	2d667a6a 	vstmdbcs	r6!, {s15-s120}
     4ec:	6d2d2073 	stcvs	0, cr2, [sp, #-460]!	; 0xfffffe34
     4f0:	656e7574 	strbvs	r7, [lr, #-1396]!	; 0x574
     4f4:	6d72613d 	ldfvse	f6, [r2, #-244]!	; 0xffffff0c
     4f8:	36373131 			; <UNDEFINED> instruction: 0x36373131
     4fc:	2d667a6a 	vstmdbcs	r6!, {s15-s120}
     500:	672d2073 			; <UNDEFINED> instruction: 0x672d2073
     504:	20626467 	rsbcs	r6, r2, r7, ror #8
     508:	20674f2d 	rsbcs	r4, r7, sp, lsr #30
     50c:	6474732d 	ldrbtvs	r7, [r4], #-813	; 0x32d
     510:	756e673d 	strbvc	r6, [lr, #-1853]!	; 0x73d
     514:	2d203939 	stccs	9, cr3, [r0, #-228]!	; 0xffffff1c
     518:	65726666 	ldrbvs	r6, [r2, #-1638]!	; 0x666
     51c:	61747365 	cmnvs	r4, r5, ror #6
     520:	6e69646e 	cdpvs	4, 6, cr6, cr9, cr14, {3}
     524:	662d2067 	strtvs	r2, [sp], -r7, rrx
     528:	67696c61 	strbvs	r6, [r9, -r1, ror #24]!
     52c:	75662d6e 	strbvc	r2, [r6, #-3438]!	; 0xd6e
     530:	6974636e 	ldmdbvs	r4!, {r1, r2, r3, r5, r6, r8, r9, sp, lr}^
     534:	3d736e6f 	ldclcc	14, cr6, [r3, #-444]!	; 0xfffffe44
     538:	54430034 	strbpl	r0, [r3], #-52	; 0x34
     53c:	5f334c52 	svcpl	0x00334c52
     540:	736c0043 	cmnvc	ip, #67	; 0x43
     544:	7364366d 	cmnvc	r4, #114294784	; 0x6d00000
     548:	315f3333 	cmpcc	pc, r3, lsr r3	; <UNPREDICTABLE>
     54c:	7a683430 	bvc	1a0d614 <__bss_end__+0x1a0192c>
     550:	6d736c00 	ldclvs	12, cr6, [r3, #-0]
     554:	33736436 	cmncc	r3, #905969664	; 0x36000000
     558:	36365f33 	shasxcc	r5, r6, r3
     55c:	7a683036 	bvc	1a0c63c <__bss_end__+0x1a00954>
     560:	4b415700 	blmi	1056168 <__bss_end__+0x104a480>
     564:	50555f45 	subspl	r5, r5, r5, asr #30
     568:	4352535f 	cmpmi	r2, #2080374785	; 0x7c000001
     56c:	31444d00 	cmpcc	r4, r0, lsl #26
     570:	4746435f 	smlsldmi	r4, r6, pc, r3	; <UNPREDICTABLE>
     574:	50415400 	subpl	r5, r1, r0, lsl #8
     578:	4352535f 	cmpmi	r2, #2080374785	; 0x7c000001
     57c:	44364400 	ldrtmi	r4, [r6], #-1024	; 0x400
     580:	4352535f 	cmpmi	r2, #2080374785	; 0x7c000001
     584:	73657400 	cmnvc	r5, #0, 8
     588:	74735f74 	ldrbtvc	r5, [r3], #-3956	; 0xf74
     58c:	65707065 	ldrbvs	r7, [r0, #-101]!	; 0x65
     590:	69775f72 	ldmdbvs	r7!, {r1, r4, r5, r6, r8, r9, sl, fp, ip, lr}^
     594:	695f6874 	ldmdbvs	pc, {r2, r4, r5, r6, fp, sp, lr}^	; <UNPREDICTABLE>
     598:	7265746e 	rsbvc	r7, r5, #1845493760	; 0x6e000000
     59c:	74707572 	ldrbtvc	r7, [r0], #-1394	; 0x572
     5a0:	79670073 	stmdbvc	r7!, {r0, r1, r4, r5, r6}^
     5a4:	6d5f6f72 	ldclvs	15, cr6, [pc, #-456]	; 3e4 <_start-0x7c1c>
     5a8:	726f746f 	rsbvc	r7, pc, #1862270976	; 0x6f000000
     5ac:	65747300 	ldrbvs	r7, [r4, #-768]!	; 0x300
     5b0:	72657070 	rsbvc	r7, r5, #112	; 0x70
     5b4:	63696d5f 	cmnvs	r9, #6080	; 0x17c0
     5b8:	74736f72 	ldrbtvc	r6, [r3], #-3954	; 0xf72
     5bc:	6d5f7065 	ldclvs	0, cr7, [pc, #-404]	; 430 <_start-0x7bd0>
     5c0:	5f65646f 	svcpl	0x0065646f
     5c4:	70640074 	rsbvc	r0, r4, r4, ror r0
     5c8:	6f745f73 	svcvs	0x00745f73
     5cc:	6163735f 	cmnvs	r3, pc, asr r3
     5d0:	6700656c 	strvs	r6, [r0, -ip, ror #10]
     5d4:	5f6f7279 	svcpl	0x006f7279
     5d8:	75727473 	ldrbvc	r7, [r2, #-1139]!	; 0x473
     5dc:	73007463 	movwvc	r7, #1123	; 0x463
     5e0:	70706574 	rsbsvc	r6, r0, r4, ror r5
     5e4:	695f7265 	ldmdbvs	pc, {r0, r2, r5, r6, r9, ip, sp, lr}^	; <UNPREDICTABLE>
     5e8:	695f746e 	ldmdbvs	pc, {r1, r2, r3, r5, r6, sl, ip, sp, lr}^	; <UNPREDICTABLE>
     5ec:	72665f73 	rsbvc	r5, r6, #460	; 0x1cc
     5f0:	63006565 	movwvs	r6, #1381	; 0x565
     5f4:	6e61656c 	cdpvs	5, 6, cr6, cr1, cr12, {3}
     5f8:	6265725f 	rsbvs	r7, r5, #-268435451	; 0xf0000005
     5fc:	00746f6f 	rsbseq	r6, r4, pc, ror #30
     600:	5f544e49 	svcpl	0x00544e49
     604:	32525544 	subscc	r5, r2, #68, 10	; 0x11000000
     608:	76656400 	strbtvc	r6, [r5], -r0, lsl #8
     60c:	7261625f 	rsbvc	r6, r1, #-268435451	; 0xf0000005
     610:	72656972 	rsbvc	r6, r5, #1867776	; 0x1c8000
     614:	52544300 	subspl	r4, r4, #0, 6
     618:	585f314c 	ldmdapl	pc, {r2, r3, r6, r8, ip, sp}^	; <UNPREDICTABLE>
     61c:	7473004c 	ldrbtvc	r0, [r3], #-76	; 0x4c
     620:	65707065 	ldrbvs	r7, [r0, #-101]!	; 0x65
     624:	6e695f72 	mcrvs	15, 3, r5, cr9, cr2, {3}
     628:	73007469 	movwvc	r7, #1129	; 0x469
     62c:	74726174 	ldrbtvc	r6, [r2], #-372	; 0x174
     630:	6d69745f 	cfstrdvs	mvd7, [r9, #-380]!	; 0xfffffe84
     634:	73755f65 	cmnvc	r5, #404	; 0x194
     638:	46006365 	strmi	r6, [r0], -r5, ror #6
     63c:	5f434e55 	svcpl	0x00434e55
     640:	00435253 	subeq	r5, r3, r3, asr r2
     644:	726f6873 	rsbvc	r6, pc, #7536640	; 0x730000
     648:	6e692074 	mcrvs	0, 3, r2, cr9, cr4, {3}
     64c:	54530074 	ldrbpl	r0, [r3], #-116	; 0x74
     650:	53555441 	cmppl	r5, #1090519040	; 0x41000000
     654:	4745525f 	smlsldmi	r5, r5, pc, r2	; <UNPREDICTABLE>
     658:	76656400 	strbtvc	r6, [r5], -r0, lsl #8
     65c:	6464615f 	strbtvs	r6, [r4], #-351	; 0x15f
     660:	54430072 	strbpl	r0, [r3], #-114	; 0x72
     664:	5f384c52 	svcpl	0x00384c52
     668:	54004c58 	strpl	r4, [r0], #-3160	; 0xc58
     66c:	53454d49 	movtpl	r4, #23881	; 0x5d49
     670:	504d4154 	subpl	r4, sp, r4, asr r1
     674:	45525f31 	ldrbmi	r5, [r2, #-3889]	; 0xf31
     678:	554f0047 	strbpl	r0, [pc, #-71]	; 639 <_start-0x79c7>
     67c:	485f5854 	ldmdami	pc, {r2, r4, r6, fp, ip, lr}^	; <UNPREDICTABLE>
     680:	004c585f 	subeq	r5, ip, pc, asr r8
     684:	366d736c 	strbtcc	r7, [sp], -ip, ror #6
     688:	33337364 	teqcc	r3, #100, 6	; 0x90000001
     68c:	3030355f 	eorscc	r3, r0, pc, asr r5
     690:	00737064 	rsbseq	r7, r3, r4, rrx
     694:	706d6574 	rsbvc	r6, sp, r4, ror r5
     698:	54554f00 	ldrbpl	r4, [r5], #-3840	; 0xf00
     69c:	5f4c5f59 	svcpl	0x004c5f59
     6a0:	736c0047 	cmnvc	ip, #71	; 0x47
     6a4:	7364366d 	cmnvc	r4, #114294784	; 0x6d00000
     6a8:	6f5f3333 	svcvs	0x005f3333
     6ac:	49006666 	stmdbmi	r0, {r1, r2, r5, r6, r9, sl, sp, lr}
     6b0:	5f32544e 	svcpl	0x0032544e
     6b4:	4c525443 	cfldrdmi	mvd5, [r2], {67}	; 0x43
     6b8:	6d736c00 	ldclvs	12, cr6, [r3, #-0]
     6bc:	33736436 	cmncc	r3, #905969664	; 0x36000000
     6c0:	33335f33 	teqcc	r3, #51, 30	; 0xcc
     6c4:	7a683033 	bvc	1a0c798 <__bss_end__+0x1a00ab0>
     6c8:	65747300 	ldrbvs	r7, [r4, #-768]!	; 0x300
     6cc:	6f635f70 	svcvs	0x00635f70
     6d0:	00746e75 	rsbseq	r6, r4, r5, ror lr
     6d4:	74696e69 	strbtvc	r6, [r9], #-3689	; 0xe69
     6d8:	7279675f 	rsbsvc	r6, r9, #24903680	; 0x17c0000
     6dc:	7473006f 	ldrbtvc	r0, [r3], #-111	; 0x6f
     6e0:	65707065 	ldrbvs	r7, [r0, #-101]!	; 0x65
     6e4:	6f705f72 	svcvs	0x00705f72
     6e8:	69746973 	ldmdbvs	r4!, {r0, r1, r4, r5, r6, r8, fp, sp, lr}^
     6ec:	745f6e6f 	ldrbvc	r6, [pc], #-3695	; 6f4 <_start-0x790c>
     6f0:	52544300 	subspl	r4, r4, #0, 6
     6f4:	475f364c 	ldrbmi	r3, [pc, -ip, asr #12]
     6f8:	65747300 	ldrbvs	r7, [r4, #-768]!	; 0x300
     6fc:	72657070 	rsbvc	r7, r5, #112	; 0x70
     700:	746e695f 	strbtvc	r6, [lr], #-2399	; 0x95f
     704:	7465675f 	strbtvc	r6, [r5], #-1887	; 0x75f
     708:	736f705f 	cmnvc	pc, #95	; 0x5f
     70c:	6f697469 	svcvs	0x00697469
     710:	6e695f6e 	cdpvs	15, 6, cr5, cr9, cr14, {3}
     714:	6574735f 	ldrbvs	r7, [r4, #-863]!	; 0x35f
     718:	73007370 	movwvc	r7, #880	; 0x370
     71c:	70706574 	rsbsvc	r6, r0, r4, ror r5
     720:	695f7265 	ldmdbvs	pc, {r0, r2, r5, r6, r9, ip, sp, lr}^	; <UNPREDICTABLE>
     724:	5f74696e 	svcpl	0x0074696e
     728:	68746977 	ldmdavs	r4!, {r0, r1, r2, r4, r5, r6, r8, fp, sp, lr}^
     72c:	63696d5f 	cmnvs	r9, #6080	; 0x17c0
     730:	74736f72 	ldrbtvc	r6, [r3], #-3954	; 0xf72
     734:	00737065 	rsbseq	r7, r3, r5, rrx
     738:	5f633269 	svcpl	0x00633269
     73c:	74697277 	strbtvc	r7, [r9], #-631	; 0x277
     740:	41480065 	cmpmi	r8, r5, rrx
     744:	535f464c 	cmppl	pc, #76, 12	; 0x4c00000
     748:	00504554 	subseq	r4, r0, r4, asr r5
     74c:	6f727967 	svcvs	0x00727967
     750:	0064725f 	rsbeq	r7, r4, pc, asr r2
     754:	5a54554f 	bpl	1515c98 <__bss_end__+0x1509fb0>
     758:	475f485f 			; <UNDEFINED> instruction: 0x475f485f
     75c:	6d736c00 	ldclvs	12, cr6, [r3, #-0]
     760:	33736436 	cmncc	r3, #905969664	; 0x36000000
     764:	30315f33 	eorscc	r5, r1, r3, lsr pc
     768:	70643030 	rsbvc	r3, r4, r0, lsr r0
     76c:	74730073 	ldrbtvc	r0, [r3], #-115	; 0x73
     770:	65707065 	ldrbvs	r7, [r0, #-101]!	; 0x65
     774:	65735f72 	ldrbvs	r5, [r3, #-3954]!	; 0xf72
     778:	696d5f74 	stmdbvs	sp!, {r2, r4, r5, r6, r8, r9, sl, fp, ip, lr}^
     77c:	736f7263 	cmnvc	pc, #805306374	; 0x30000006
     780:	73706574 	cmnvc	r0, #116, 10	; 0x1d000000
     784:	7a697300 	bvc	1a5d38c <__bss_end__+0x1a516a4>
     788:	70797465 	rsbsvc	r7, r9, r5, ror #8
     78c:	41540065 	cmpmi	r4, r5, rrx
     790:	48545f50 	ldmdami	r4, {r4, r6, r8, r9, sl, fp, ip, lr}^
     794:	44365f53 	ldrtmi	r5, [r6], #-3923	; 0xf53
     798:	70646d00 	rsbvc	r6, r4, r0, lsl #26
     79c:	63735f73 	cmnvs	r3, #460	; 0x1cc
     7a0:	00656c61 	rsbeq	r6, r5, r1, ror #24
     7a4:	6f727967 	svcvs	0x00727967
     7a8:	7361685f 	cmnvc	r1, #6225920	; 0x5f0000
     7ac:	7461645f 	strbtvc	r6, [r1], #-1119	; 0x45f
     7b0:	736c0061 	cmnvc	ip, #97	; 0x61
     7b4:	7364366d 	cmnvc	r4, #114294784	; 0x6d00000
     7b8:	325f3333 	subscc	r3, pc, #-872415232	; 0xcc000000
     7bc:	7a683830 	bvc	1a0e884 <__bss_end__+0x1a02b9c>
     7c0:	6d697400 	cfstrdvs	mvd7, [r9, #-0]
     7c4:	675f7265 	ldrbvs	r7, [pc, -r5, ror #4]
     7c8:	755f7465 	ldrbvc	r7, [pc, #-1125]	; 36b <_start-0x7c95>
     7cc:	00636573 	rsbeq	r6, r3, r3, ror r5
     7d0:	69736f70 	ldmdbvs	r3!, {r4, r5, r6, r8, r9, sl, fp, sp, lr}^
     7d4:	6e6f6974 	mcrvs	9, 3, r6, cr15, cr4, {3}
     7d8:	00515f73 	subseq	r5, r1, r3, ror pc
     7dc:	5f6d756e 	svcpl	0x006d756e
     7e0:	73626f6a 	cmnvc	r2, #424	; 0x1a8
     7e4:	756d6900 	strbvc	r6, [sp, #-2304]!	; 0x900
     7e8:	0064725f 	rsbeq	r7, r4, pc, asr r2
     7ec:	69736e75 	ldmdbvs	r3!, {r0, r2, r4, r5, r6, r9, sl, fp, sp, lr}^
     7f0:	64656e67 	strbtvs	r6, [r5], #-3687	; 0xe67
     7f4:	61686320 	cmnvs	r8, r0, lsr #6
     7f8:	41570072 	cmpmi	r7, r2, ror r0
     7fc:	555f454b 	ldrbpl	r4, [pc, #-1355]	; 2b9 <_start-0x7d47>
     800:	55445f50 	strbpl	r5, [r4, #-3920]	; 0xf50
     804:	61620052 	qdsubvs	r0, r2, r2
     808:	725f6573 	subsvc	r6, pc, #482344960	; 0x1cc00000
     80c:	67006765 	strvs	r6, [r0, -r5, ror #14]
     810:	5f6f7279 	svcpl	0x006f7279
     814:	6c616373 	stclvs	3, cr6, [r1], #-460	; 0xfffffe34
     818:	79670065 	stmdbvc	r7!, {r0, r2, r5, r6}^
     81c:	745f6f72 	ldrbvc	r6, [pc], #-3954	; 824 <_start-0x77dc>
     820:	69617400 	stmdbvs	r1!, {sl, ip, sp, lr}^
     824:	4945006c 	stmdbmi	r5, {r2, r3, r5, r6}^
     828:	48544847 	ldmdami	r4, {r0, r1, r2, r6, fp, lr}^
     82c:	4554535f 	ldrbmi	r5, [r4, #-863]	; 0x35f
     830:	74730050 	ldrbtvc	r0, [r3], #-80	; 0x50
     834:	65707065 	ldrbvs	r7, [r0, #-101]!	; 0x65
     838:	74735f72 	ldrbtvc	r5, [r3], #-3954	; 0xf72
     83c:	73757461 	cmnvc	r5, #1627389952	; 0x61000000
     840:	4f00745f 	svcmi	0x0000745f
     844:	5f5a5455 	svcpl	0x005a5455
     848:	4c585f48 	mrrcmi	15, 4, r5, r8, cr8
     84c:	73657400 	cmnvc	r5, #0, 8
     850:	696d5f74 	stmdbvs	sp!, {r2, r4, r5, r6, r8, r9, sl, fp, ip, lr}^
     854:	736f7263 	cmnvc	pc, #805306374	; 0x30000006
     858:	70706574 	rsbsvc	r6, r0, r4, ror r5
     85c:	00676e69 	rsbeq	r6, r7, r9, ror #28
     860:	366d736c 	strbtcc	r7, [sp], -ip, ror #6
     864:	33337364 	teqcc	r3, #100, 6	; 0x90000001
     868:	3631345f 			; <UNDEFINED> instruction: 0x3631345f
     86c:	6c007a68 	stcvs	10, cr7, [r0], {104}	; 0x68
     870:	64366d73 	ldrtvs	r6, [r6], #-3443	; 0xd73
     874:	5f333373 	svcpl	0x00333373
     878:	7a683632 	bvc	1a0e148 <__bss_end__+0x1a02460>
     87c:	616f6700 	cmnvs	pc, r0, lsl #14
     880:	74735f6c 	ldrbtvc	r5, [r3], #-3948	; 0xf6c
     884:	00737065 	rsbseq	r7, r3, r5, rrx
     888:	74726175 	ldrbtvc	r6, [r2], #-373	; 0x175
     88c:	696e695f 	stmdbvs	lr!, {r0, r1, r2, r3, r4, r6, r8, fp, sp, lr}^
     890:	65640074 	strbvs	r0, [r4, #-116]!	; 0x74
     894:	5f79616c 	svcpl	0x0079616c
     898:	6e007375 	mcrvs	3, 0, r7, cr0, cr5, {3}
     89c:	616d746f 	cmnvs	sp, pc, ror #8
     8a0:	69006e69 	stmdbvs	r0, {r0, r3, r5, r6, r9, sl, fp, sp, lr}
     8a4:	725f756d 	subsvc	r7, pc, #457179136	; 0x1b400000
     8a8:	006e5f64 	rsbeq	r5, lr, r4, ror #30
     8ac:	726f6873 	rsbvc	r6, pc, #7536640	; 0x730000
     8b0:	6e752074 	mrcvs	0, 3, r2, cr5, cr4, {3}
     8b4:	6e676973 	mcrvs	9, 3, r6, cr7, cr3, {3}
     8b8:	69206465 	stmdbvs	r0!, {r0, r2, r5, r6, sl, sp, lr}
     8bc:	6500746e 	strvs	r7, [r0, #-1134]	; 0x46e
     8c0:	745f646e 	ldrbvc	r6, [pc], #-1134	; 8c8 <_start-0x7738>
     8c4:	5f656d69 	svcpl	0x00656d69
     8c8:	63657375 	cmnvs	r5, #-738197503	; 0xd4000001
     8cc:	46494600 	strbmi	r4, [r9], -r0, lsl #12
     8d0:	54535f4f 	ldrbpl	r5, [r3], #-3919	; 0xf4f
     8d4:	53555441 	cmppl	r5, #1090519040	; 0x41000000
     8d8:	54430031 	strbpl	r0, [r3], #-49	; 0x31
     8dc:	5f344c52 	svcpl	0x00344c52
     8e0:	6d6b0043 	stclvs	0, cr0, [fp, #-268]!	; 0xfffffef4
     8e4:	6f6c6c61 	svcvs	0x006c6c61
     8e8:	6e695f63 	cdpvs	15, 6, cr5, cr9, cr3, {3}
     8ec:	73007469 	movwvc	r7, #1129	; 0x469
     8f0:	70706574 	rsbsvc	r6, r0, r4, ror r5
     8f4:	735f7265 	cmpvc	pc, #1342177286	; 0x50000006
     8f8:	5f706574 	svcpl	0x00706574
     8fc:	77726f66 	ldrbvc	r6, [r2, -r6, ror #30]!
     900:	00647261 	rsbeq	r7, r4, r1, ror #4
     904:	74736574 	ldrbtvc	r6, [r3], #-1396	; 0x574
     908:	7370645f 	cmnvc	r0, #1593835520	; 0x5f000000
     90c:	58495300 	stmdapl	r9, {r8, r9, ip, lr}^
     910:	4e454554 	mcrmi	5, 2, r4, cr5, cr4, {2}
     914:	535f4854 	cmppl	pc, #84, 16	; 0x540000
     918:	00504554 	subseq	r4, r0, r4, asr r5
     91c:	6f697067 	svcvs	0x00697067
     920:	6972775f 	ldmdbvs	r2!, {r0, r1, r2, r3, r4, r6, r8, r9, sl, ip, sp, lr}^
     924:	6d006574 	cfstr32vs	mvfx6, [r0, #-464]	; 0xfffffe30
     928:	6f726369 	svcvs	0x00726369
     92c:	70657473 	rsbvc	r7, r5, r3, ror r4
     930:	646f6d5f 	strbtvs	r6, [pc], #-3423	; 938 <_start-0x76c8>
     934:	6d6b0065 	stclvs	0, cr0, [fp, #-404]!	; 0xfffffe6c
     938:	6f6c6c61 	svcvs	0x006c6c61
     93c:	70670063 	rsbvc	r0, r7, r3, rrx
     940:	735f6f69 	cmpvc	pc, #420	; 0x1a4
     944:	6f5f7465 	svcvs	0x005f7465
     948:	75707475 	ldrbvc	r7, [r0, #-1141]!	; 0x475
     94c:	74730074 	ldrbtvc	r0, [r3], #-116	; 0x74
     950:	65707065 	ldrbvs	r7, [r0, #-101]!	; 0x65
     954:	00632e72 	rsbeq	r2, r3, r2, ror lr
     958:	5f6d7261 	svcpl	0x006d7261
     95c:	656d6974 	strbvs	r6, [sp, #-2420]!	; 0x974
     960:	52495f72 	subpl	r5, r9, #456	; 0x1c8
     964:	656c4351 	strbvs	r4, [ip, #-849]!	; 0x351
     968:	64007261 	strvs	r7, [r0], #-609	; 0x261
     96c:	00656e6f 	rsbeq	r6, r5, pc, ror #28
     970:	5f6d7261 	svcpl	0x006d7261
     974:	656d6974 	strbvs	r6, [sp, #-2420]!	; 0x974
     978:	41525f72 	cmpmi	r2, r2, ror pc
     97c:	51524957 	cmppl	r2, r7, asr r9
     980:	73694400 	cmnvc	r9, #0, 8
     984:	656c6261 	strbvs	r6, [ip, #-609]!	; 0x261
     988:	5152495f 	cmppl	r2, pc, asr r9
     98c:	00315f73 	eorseq	r5, r1, r3, ror pc
     990:	61736944 	cmnvs	r3, r4, asr #18
     994:	5f656c62 	svcpl	0x00656c62
     998:	73515249 	cmpvc	r1, #-1879048188	; 0x90000004
     99c:	6d00325f 	sfmvs	f3, 4, [r0, #-380]	; 0xfffffe84
     9a0:	74735f79 	ldrbtvc	r5, [r3], #-3961	; 0xf79
     9a4:	65707065 	ldrbvs	r7, [r0, #-101]!	; 0x65
     9a8:	74007372 	strvc	r7, [r0], #-882	; 0x372
     9ac:	72656d69 	rsbvc	r6, r5, #6720	; 0x1a40
     9b0:	746e695f 	strbtvc	r6, [lr], #-2399	; 0x95f
     9b4:	75727265 	ldrbvc	r7, [r2, #-613]!	; 0x265
     9b8:	695f7470 	ldmdbvs	pc, {r4, r5, r6, sl, ip, sp, lr}^	; <UNPREDICTABLE>
     9bc:	0074696e 	rsbseq	r6, r4, lr, ror #18
     9c0:	72727563 	rsbsvc	r7, r2, #415236096	; 0x18c00000
     9c4:	736f705f 	cmnvc	pc, #95	; 0x5f
     9c8:	6d726100 	ldfvse	f6, [r2, #-0]
     9cc:	6d69745f 	cfstrdvs	mvd7, [r9, #-380]!	; 0xfffffe84
     9d0:	435f7265 	cmpmi	pc, #1342177286	; 0x50000006
     9d4:	72746e6f 	rsbsvc	r6, r4, #1776	; 0x6f0
     9d8:	61006c6f 	tstvs	r0, pc, ror #24
     9dc:	745f6d72 	ldrbvc	r6, [pc], #-3442	; 9e4 <_start-0x761c>
     9e0:	72656d69 	rsbvc	r6, r5, #6720	; 0x1a40
     9e4:	616f4c5f 	cmnvs	pc, pc, asr ip	; <UNPREDICTABLE>
     9e8:	72610064 	rsbvc	r0, r1, #100	; 0x64
     9ec:	69745f6d 	ldmdbvs	r4!, {r0, r2, r3, r5, r6, r8, r9, sl, fp, ip, lr}^
     9f0:	5f72656d 	svcpl	0x0072656d
     9f4:	65736142 	ldrbvs	r6, [r3, #-322]!	; 0x142
     9f8:	51524900 	cmppl	r2, r0, lsl #18
     9fc:	7361425f 	cmnvc	r1, #-268435451	; 0xf0000005
     a00:	72610065 	rsbvc	r0, r1, #101	; 0x65
     a04:	69745f6d 	ldmdbvs	r4!, {r0, r2, r3, r5, r6, r8, r9, sl, fp, ip, lr}^
     a08:	5f72656d 	svcpl	0x0072656d
     a0c:	6b73614d 	blvs	1cd8f48 <__bss_end__+0x1ccd260>
     a10:	52496465 	subpl	r6, r9, #1694498816	; 0x65000000
     a14:	52490051 	subpl	r0, r9, #81	; 0x51
     a18:	65705f51 	ldrbvs	r5, [r0, #-3921]!	; 0xf51
     a1c:	6e69646e 	cdpvs	4, 6, cr6, cr9, cr14, {3}
     a20:	00315f67 	eorseq	r5, r1, r7, ror #30
     a24:	5f515249 	svcpl	0x00515249
     a28:	646e6570 	strbtvs	r6, [lr], #-1392	; 0x570
     a2c:	5f676e69 	svcpl	0x00676e69
     a30:	69440032 	stmdbvs	r4, {r1, r4, r5}^
     a34:	6c626173 	stfvse	f6, [r2], #-460	; 0xfffffe34
     a38:	61425f65 	cmpvs	r2, r5, ror #30
     a3c:	5f636973 	svcpl	0x00636973
     a40:	73515249 	cmpvc	r1, #-1879048188	; 0x90000004
     a44:	655f5100 	ldrbvs	r5, [pc, #-256]	; 94c <_start-0x76b4>
     a48:	7974706d 	ldmdbvc	r4!, {r0, r2, r3, r5, r6, ip, sp, lr}^
     a4c:	616e4500 	cmnvs	lr, r0, lsl #10
     a50:	5f656c62 	svcpl	0x00656c62
     a54:	73515249 	cmpvc	r1, #-1879048188	; 0x90000004
     a58:	6e00315f 	mcrvs	1, 0, r3, cr0, cr15, {2}
     a5c:	705f7765 	subsvc	r7, pc, r5, ror #14
     a60:	5100736f 	tstpl	r0, pc, ror #6
     a64:	706f705f 	rsbvc	r7, pc, pc, asr r0	; <UNPREDICTABLE>
     a68:	616e4500 	cmnvs	lr, r0, lsl #10
     a6c:	5f656c62 	svcpl	0x00656c62
     a70:	73515249 	cmpvc	r1, #-1879048188	; 0x90000004
     a74:	6600325f 			; <UNDEFINED> instruction: 0x6600325f
     a78:	74737269 	ldrbtvc	r7, [r3], #-617	; 0x269
     a7c:	696e695f 	stmdbvs	lr!, {r0, r1, r2, r3, r4, r6, r8, fp, sp, lr}^
     a80:	72610074 	rsbvc	r0, r1, #116	; 0x74
     a84:	69745f6d 	ldmdbvs	r4!, {r0, r2, r3, r5, r6, r8, r9, sl, fp, ip, lr}^
     a88:	5f72656d 	svcpl	0x0072656d
     a8c:	6f6c6552 	svcvs	0x006c6552
     a90:	61006461 	tstvs	r0, r1, ror #8
     a94:	745f6d72 	ldrbvc	r6, [pc], #-3442	; a9c <_start-0x7564>
     a98:	72656d69 	rsbvc	r6, r5, #6720	; 0x1a40
     a9c:	6572505f 	ldrbvs	r5, [r2, #-95]!	; 0x5f
     aa0:	69766944 	ldmdbvs	r6!, {r2, r6, r8, fp, sp, lr}^
     aa4:	00726564 	rsbseq	r6, r2, r4, ror #10
     aa8:	5f746e69 	svcpl	0x00746e69
     aac:	74696e69 	strbtvc	r6, [r9], #-3689	; 0xe69
     ab0:	73797300 	cmnvc	r9, #0, 6
     ab4:	5f6d6574 	svcpl	0x006d6574
     ab8:	62616e65 	rsbvs	r6, r1, #1616	; 0x650
     abc:	695f656c 	ldmdbvs	pc, {r2, r3, r5, r6, r8, sl, sp, lr}^	; <UNPREDICTABLE>
     ac0:	7265746e 	rsbvc	r7, r5, #1845493760	; 0x6e000000
     ac4:	74707572 	ldrbtvc	r7, [r0], #-1394	; 0x572
     ac8:	75630073 	strbvc	r0, [r3, #-115]!	; 0x73
     acc:	745f7272 	ldrbvc	r7, [pc], #-626	; ad4 <_start-0x752c>
     ad0:	00656d69 	rsbeq	r6, r5, r9, ror #26
     ad4:	5f6d756e 	svcpl	0x006d756e
     ad8:	70657473 	rsbvc	r7, r5, r3, ror r4
     adc:	73726570 	cmnvc	r2, #112, 10	; 0x1c000000
     ae0:	65747300 	ldrbvs	r7, [r4, #-768]!	; 0x300
     ae4:	72657070 	rsbvc	r7, r5, #112	; 0x70
     ae8:	746e692d 	strbtvc	r6, [lr], #-2349	; 0x92d
     aec:	5100632e 	tstpl	r0, lr, lsr #6
     af0:	7070615f 	rsbsvc	r6, r0, pc, asr r1
     af4:	00646e65 	rsbeq	r6, r4, r5, ror #28
     af8:	70657473 	rsbvc	r7, r5, r3, ror r4
     afc:	5f726570 	svcpl	0x00726570
     b00:	5f746e69 	svcpl	0x00746e69
     b04:	646e6168 	strbtvs	r6, [lr], #-360	; 0x168
     b08:	0072656c 	rsbseq	r6, r2, ip, ror #10
     b0c:	70657473 	rsbvc	r7, r5, r3, ror r4
     b10:	5f726570 	svcpl	0x00726570
     b14:	5f746e69 	svcpl	0x00746e69
     b18:	74696e69 	strbtvc	r6, [r9], #-3689	; 0xe69
     b1c:	7469775f 	strbtvc	r7, [r9], #-1887	; 0x75f
     b20:	696d5f68 	stmdbvs	sp!, {r3, r5, r6, r8, r9, sl, fp, ip, lr}^
     b24:	736f7263 	cmnvc	pc, #805306374	; 0x30000006
     b28:	73706574 	cmnvc	r0, #116, 10	; 0x1d000000
     b2c:	51524900 	cmppl	r2, r0, lsl #18
     b30:	7361625f 	cmnvc	r1, #-268435451	; 0xf0000005
     b34:	705f6369 	subsvc	r6, pc, r9, ror #6
     b38:	69646e65 	stmdbvs	r4!, {r0, r2, r5, r6, r9, sl, fp, sp, lr}^
     b3c:	4500676e 	strmi	r6, [r0, #-1902]	; 0x76e
     b40:	6c62616e 	stfvse	f6, [r2], #-440	; 0xfffffe48
     b44:	61425f65 	cmpvs	r2, r5, ror #30
     b48:	5f636973 	svcpl	0x00636973
     b4c:	73515249 	cmpvc	r1, #-1879048188	; 0x90000004
     b50:	6d726100 	ldfvse	f6, [r2, #-0]
     b54:	6d69745f 	cfstrdvs	mvd7, [r9, #-380]!	; 0xfffffe84
     b58:	565f7265 	ldrbpl	r7, [pc], -r5, ror #4
     b5c:	65756c61 	ldrbvs	r6, [r5, #-3169]!	; 0xc61
     b60:	735f5100 	cmpvc	pc, #0, 2
     b64:	74726174 	ldrbtvc	r6, [r2], #-372	; 0x174
     b68:	69707200 	ldmdbvs	r0!, {r9, ip, sp, lr}^
     b6c:	6d72615f 	ldfvse	f6, [r2, #-380]!	; 0xfffffe84
     b70:	6d69745f 	cfstrdvs	mvd7, [r9, #-380]!	; 0xfffffe84
     b74:	745f7265 	ldrbvc	r7, [pc], #-613	; b7c <_start-0x7484>
     b78:	51494600 	cmppl	r9, r0, lsl #12
     b7c:	6e6f635f 	mcrvs	3, 3, r6, cr15, cr15, {2}
     b80:	6c6f7274 	sfmvs	f7, 2, [pc], #-464	; 9b8 <_start-0x7648>
     b84:	54555000 	ldrbpl	r5, [r5], #-0
     b88:	47003233 	smladxmi	r0, r3, r2, r3
     b8c:	32335445 	eorscc	r5, r3, #1157627904	; 0x45000000
     b90:	6d726100 	ldfvse	f6, [r2, #-0]
     b94:	6d69745f 	cfstrdvs	mvd7, [r9, #-380]!	; 0xfffffe84
     b98:	465f7265 	ldrbmi	r7, [pc], -r5, ror #4
     b9c:	52656572 	rsbpl	r6, r5, #478150656	; 0x1c800000
     ba0:	696e6e75 	stmdbvs	lr!, {r0, r2, r4, r5, r6, r9, sl, fp, sp, lr}^
     ba4:	6f43676e 	svcvs	0x0043676e
     ba8:	65746e75 	ldrbvs	r6, [r4, #-3701]!	; 0xe75
     bac:	645f0072 	ldrbvs	r0, [pc], #-114	; bb4 <_start-0x744c>
     bb0:	685f6f73 	ldmdavs	pc, {r0, r1, r4, r5, r6, r8, r9, sl, fp, sp, lr}^	; <UNPREDICTABLE>
     bb4:	6c646e61 	stclvs	14, cr6, [r4], #-388	; 0xfffffe7c
     bb8:	4e470065 	cdpmi	0, 4, cr0, cr7, cr5, {3}
     bbc:	39432055 	stmdbcc	r3, {r0, r2, r4, r6, sp}^
     bc0:	2e362039 	mrccs	0, 1, r2, cr6, cr9, {1}
     bc4:	20312e33 	eorscs	r2, r1, r3, lsr lr
     bc8:	37313032 			; <UNDEFINED> instruction: 0x37313032
     bcc:	30323630 	eorscc	r3, r2, r0, lsr r6
     bd0:	636d2d20 	cmnvs	sp, #32, 26	; 0x800
     bd4:	613d7570 	teqvs	sp, r0, ror r5
     bd8:	31316d72 	teqcc	r1, r2, ror sp
     bdc:	7a6a3637 	bvc	1a8e4c0 <__bss_end__+0x1a827d8>
     be0:	20732d66 	rsbscs	r2, r3, r6, ror #26
     be4:	75746d2d 	ldrbvc	r6, [r4, #-3373]!	; 0xd2d
     be8:	613d656e 	teqvs	sp, lr, ror #10
     bec:	31316d72 	teqcc	r1, r2, ror sp
     bf0:	7a6a3637 	bvc	1a8e4d4 <__bss_end__+0x1a827ec>
     bf4:	20732d66 	rsbscs	r2, r3, r6, ror #26
     bf8:	6467672d 	strbtvs	r6, [r7], #-1837	; 0x72d
     bfc:	4f2d2062 	svcmi	0x002d2062
     c00:	732d2067 	teqvc	sp, #103	; 0x67
     c04:	673d6474 			; <UNDEFINED> instruction: 0x673d6474
     c08:	3939756e 	ldmdbcc	r9!, {r1, r2, r3, r5, r6, r8, sl, ip, sp, lr}
     c0c:	66662d20 	strbtvs	r2, [r6], -r0, lsr #26
     c10:	73656572 	cmnvc	r5, #478150656	; 0x1c800000
     c14:	646e6174 	strbtvs	r6, [lr], #-372	; 0x174
     c18:	20676e69 	rsbcs	r6, r7, r9, ror #28
     c1c:	6c61662d 	stclvs	6, cr6, [r1], #-180	; 0xffffff4c
     c20:	2d6e6769 	stclcs	7, cr6, [lr, #-420]!	; 0xfffffe5c
     c24:	636e7566 	cmnvs	lr, #427819008	; 0x19800000
     c28:	6e6f6974 	mcrvs	9, 3, r6, cr15, cr4, {3}
     c2c:	00343d73 	eorseq	r3, r4, r3, ror sp
     c30:	7a69735f 	bvc	1a5d9b4 <__bss_end__+0x1a51ccc>
     c34:	725f0065 	subsvc	r0, pc, #101	; 0x65
     c38:	34646e61 	strbtcc	r6, [r4], #-3681	; 0xe61
     c3c:	655f0038 	ldrbvs	r0, [pc, #-56]	; c0c <_start-0x73f4>
     c40:	6772656d 	ldrbvs	r6, [r2, -sp, ror #10]!
     c44:	79636e65 	stmdbvc	r3!, {r0, r2, r5, r6, r9, sl, fp, sp, lr}^
     c48:	725f7300 	subsvc	r7, pc, #0, 6
     c4c:	73696765 	cmnvc	r9, #26476544	; 0x1940000
     c50:	00726574 	rsbseq	r6, r2, r4, ror r5
     c54:	5f495052 	svcpl	0x00495052
     c58:	00633269 	rsbeq	r3, r3, r9, ror #4
     c5c:	6f666966 	svcvs	0x00666966
     c60:	63775f00 	cmnvs	r7, #0, 30
     c64:	6d6f7472 	cfstrdvs	mvd7, [pc, #-456]!	; aa4 <_start-0x755c>
     c68:	74735f62 	ldrbtvc	r5, [r3], #-3938	; 0xf62
     c6c:	00657461 	rsbeq	r7, r5, r1, ror #8
     c70:	7363775f 	cmnvc	r3, #24903680	; 0x17c0000
     c74:	6d6f7472 	cfstrdvs	mvd7, [pc, #-456]!	; ab4 <_start-0x754c>
     c78:	735f7362 	cmpvc	pc, #-2013265919	; 0x88000001
     c7c:	65746174 	ldrbvs	r6, [r4, #-372]!	; 0x174
     c80:	626c5f00 	rsbvs	r5, ip, #0, 30
     c84:	7a697366 	bvc	1a5da24 <__bss_end__+0x1a51d3c>
     c88:	50470065 	subpl	r0, r7, r5, rrx
     c8c:	465f4f49 	ldrbmi	r4, [pc], -r9, asr #30
     c90:	5f434e55 	svcpl	0x00434e55
     c94:	55504e49 	ldrbpl	r4, [r0, #-3657]	; 0xe49
     c98:	6d5f0054 	ldclvs	0, cr0, [pc, #-336]	; b50 <_start-0x74b0>
     c9c:	6f747262 	svcvs	0x00747262
     ca0:	735f6377 	cmpvc	pc, #-603979775	; 0xdc000001
     ca4:	65746174 	ldrbvs	r6, [r4, #-372]!	; 0x174
     ca8:	63326900 	teqvs	r2, #0, 18
     cac:	5f73695f 	svcpl	0x0073695f
     cb0:	74696e69 	strbtvc	r6, [r9], #-3689	; 0xe69
     cb4:	696c6169 	stmdbvs	ip!, {r0, r3, r5, r6, r8, sp, lr}^
     cb8:	0064657a 	rsbeq	r6, r4, sl, ror r5
     cbc:	7463775f 	strbtvc	r7, [r3], #-1887	; 0x75f
     cc0:	5f626d6f 	svcpl	0x00626d6f
     cc4:	74617473 	strbtvc	r7, [r1], #-1139	; 0x473
     cc8:	5f5f0065 	svcpl	0x005f0065
     ccc:	735f6d74 	cmpvc	pc, #116, 26	; 0x1d00
     cd0:	5f006365 	svcpl	0x00006365
     cd4:	66756275 			; <UNDEFINED> instruction: 0x66756275
     cd8:	49504700 	ldmdbmi	r0, {r8, r9, sl, lr}^
     cdc:	55465f4f 	strbpl	r5, [r6, #-3919]	; 0xf4f
     ce0:	415f434e 	cmpmi	pc, lr, asr #6
     ce4:	0031544c 	eorseq	r5, r1, ip, asr #8
     ce8:	7361625f 	cmnvc	r1, #-268435451	; 0xf0000005
     cec:	5f5f0065 	svcpl	0x005f0065
     cf0:	685f6d74 	ldmdavs	pc, {r2, r4, r5, r6, r8, sl, fp, sp, lr}^	; <UNPREDICTABLE>
     cf4:	0072756f 	rsbseq	r7, r2, pc, ror #10
     cf8:	6e755f5f 	mrcvs	15, 3, r5, cr5, cr15, {2}
     cfc:	64657375 	strbtvs	r7, [r5], #-885	; 0x375
     d00:	5f5f0031 	svcpl	0x005f0031
     d04:	5f006673 	svcpl	0x00006673
     d08:	655f6e6f 	ldrbvs	r6, [pc, #-3695]	; fffffea1 <__bss_end__+0xffff41b9>
     d0c:	5f746978 	svcpl	0x00746978
     d10:	73677261 	cmnvc	r7, #268435462	; 0x10000006
     d14:	6f6c6300 	svcvs	0x006c6300
     d18:	735f6b63 	cmpvc	pc, #101376	; 0x18c00
     d1c:	74657274 	strbtvc	r7, [r5], #-628	; 0x274
     d20:	745f6863 	ldrbvc	r6, [pc], #-2147	; d28 <_start-0x72d8>
     d24:	6f656d69 	svcvs	0x00656d69
     d28:	5f007475 	svcpl	0x00007475
     d2c:	6b6f6f63 	blvs	1bdcac0 <__bss_end__+0x1bd0dd8>
     d30:	67006569 	strvs	r6, [r0, -r9, ror #10]
     d34:	5f6f6970 	svcpl	0x006f6970
     d38:	5f746573 	svcpl	0x00746573
     d3c:	636e7566 	cmnvs	lr, #427819008	; 0x19800000
     d40:	6e6f6974 	mcrvs	9, 3, r6, cr15, cr4, {3}
     d44:	735f5f00 	cmpvc	pc, #0, 30
     d48:	65756c67 	ldrbvs	r6, [r5, #-3175]!	; 0xc67
     d4c:	6c665f00 	stclvs	15, cr5, [r6], #-0
     d50:	00736761 	rsbseq	r6, r3, r1, ror #14
     d54:	5f73695f 	svcpl	0x0073695f
     d58:	00617863 	rsbeq	r7, r1, r3, ror #16
     d5c:	6474735f 	ldrbtvs	r7, [r4], #-863	; 0x35f
     d60:	5f006e69 	svcpl	0x00006e69
     d64:	756e755f 	strbvc	r7, [lr, #-1375]!	; 0x55f
     d68:	30646573 	rsbcc	r6, r4, r3, ror r5
     d6c:	6c625f00 	stclvs	15, cr5, [r2], #-0
     d70:	7a69736b 	bvc	1a5db24 <__bss_end__+0x1a51e3c>
     d74:	5f5f0065 	svcpl	0x005f0065
     d78:	73756e75 	cmnvc	r5, #1872	; 0x750
     d7c:	00326465 	eorseq	r6, r2, r5, ror #8
     d80:	6e755f5f 	mrcvs	15, 3, r5, cr5, cr15, {2}
     d84:	64657375 	strbtvs	r7, [r5], #-885	; 0x375
     d88:	635f0033 	cmpvs	pc, #51	; 0x33
     d8c:	75627476 	strbvc	r7, [r2, #-1142]!	; 0x476
     d90:	6f5f0066 	svcvs	0x005f0066
     d94:	65736666 	ldrbvs	r6, [r3, #-1638]!	; 0x666
     d98:	68730074 	ldmdavs	r3!, {r2, r4, r5, r6}^
     d9c:	00746669 	rsbseq	r6, r4, r9, ror #12
     da0:	73626d5f 	cmnvc	r2, #6080	; 0x17c0
     da4:	776f7472 			; <UNDEFINED> instruction: 0x776f7472
     da8:	735f7363 	cmpvc	pc, #-1946157055	; 0x8c000001
     dac:	65746174 	ldrbvs	r6, [r4, #-372]!	; 0x174
     db0:	626d5f00 	rsbvs	r5, sp, #0, 30
     db4:	6e656c72 	mcrvs	12, 3, r6, cr5, cr2, {3}
     db8:	6174735f 	cmnvs	r4, pc, asr r3
     dbc:	5f006574 	svcpl	0x00006574
     dc0:	72616e66 	rsbvc	r6, r1, #1632	; 0x660
     dc4:	5f007367 	svcpl	0x00007367
     dc8:	00736e66 	rsbseq	r6, r3, r6, ror #28
     dcc:	2e633269 	cdpcs	2, 6, cr3, cr3, cr9, {3}
     dd0:	735f0063 	cmpvc	pc, #99	; 0x63
     dd4:	006e6769 	rsbeq	r6, lr, r9, ror #14
     dd8:	64616572 	strbtvs	r6, [r1], #-1394	; 0x572
     ddc:	5f00635f 	svcpl	0x0000635f
     de0:	636f6c66 	cmnvs	pc, #26112	; 0x6600
     de4:	00745f6b 	rsbseq	r5, r4, fp, ror #30
     de8:	6474735f 	ldrbtvs	r7, [r4], #-863	; 0x35f
     dec:	00727265 	rsbseq	r7, r2, r5, ror #4
     df0:	6769425f 			; <UNDEFINED> instruction: 0x6769425f
     df4:	00746e69 	rsbseq	r6, r4, r9, ror #28
     df8:	6d61675f 	stclvs	7, cr6, [r1, #-380]!	; 0xfffffe84
     dfc:	735f616d 	cmpvc	pc, #1073741851	; 0x4000001b
     e00:	676e6769 	strbvs	r6, [lr, -r9, ror #14]!
     e04:	5f006d61 	svcpl	0x00006d61
     e08:	75736572 	ldrbvc	r6, [r3, #-1394]!	; 0x572
     e0c:	6b5f746c 	blvs	17ddfc4 <__bss_end__+0x17d22dc>
     e10:	69707200 	ldmdbvs	r0!, {r9, ip, sp, lr}^
     e14:	7475705f 	ldrbtvc	r7, [r5], #-95	; 0x5f
     e18:	72616863 	rsbvc	r6, r1, #6488064	; 0x630000
     e1c:	745f5f00 	ldrbvc	r5, [pc], #-3840	; e24 <_start-0x71dc>
     e20:	6572006d 	ldrbvs	r0, [r2, #-109]!	; 0x6d
     e24:	735f6461 	cmpvc	pc, #1627389952	; 0x61000000
     e28:	775f5f00 	ldrbvc	r5, [pc, -r0, lsl #30]
     e2c:	00626863 	rsbeq	r6, r2, r3, ror #16
     e30:	6474735f 	ldrbtvs	r7, [r4], #-863	; 0x35f
     e34:	0074756f 	rsbseq	r7, r4, pc, ror #10
     e38:	64616572 	strbtvs	r6, [r1], #-1394	; 0x572
     e3c:	5f00705f 	svcpl	0x0000705f
     e40:	6c747663 	ldclvs	6, cr7, [r4], #-396	; 0xfffffe74
     e44:	5f006e65 	svcpl	0x00006e65
     e48:	656c6966 	strbvs	r6, [ip, #-2406]!	; 0x966
     e4c:	696e5f00 	stmdbvs	lr!, {r8, r9, sl, fp, ip, lr}^
     e50:	0073626f 	rsbseq	r6, r3, pc, ror #4
     e54:	74696e69 	strbtvc	r6, [r9], #-3689	; 0xe69
     e58:	696c6169 	stmdbvs	ip!, {r0, r3, r5, r6, r8, sp, lr}^
     e5c:	5f64657a 	svcpl	0x0064657a
     e60:	65730070 	ldrbvs	r0, [r3, #-112]!	; 0x70
     e64:	6c615f74 	stclvs	15, cr5, [r1], #-464	; 0xfffffe30
     e68:	6c63006c 	stclvs	0, cr0, [r3], #-432	; 0xfffffe50
     e6c:	5f6b636f 	svcpl	0x006b636f
     e70:	00766964 	rsbseq	r6, r6, r4, ror #18
     e74:	6574615f 	ldrbvs	r6, [r4, #-351]!	; 0x15f
     e78:	30746978 	rsbscc	r6, r4, r8, ror r9
     e7c:	73657200 	cmnvc	r5, #0, 4
     e80:	735f7465 	cmpvc	pc, #1694498816	; 0x65000000
     e84:	75746174 	ldrbvc	r6, [r4, #-372]!	; 0x174
     e88:	735f0073 	cmpvc	pc, #115	; 0x73
     e8c:	616e6769 	cmnvs	lr, r9, ror #14
     e90:	75625f6c 	strbvc	r5, [r2, #-3948]!	; 0xf6c
     e94:	615f0066 	cmpvs	pc, r6, rrx
     e98:	69746373 	ldmdbvs	r4!, {r0, r1, r4, r5, r6, r8, r9, sp, lr}^
     e9c:	625f656d 	subsvs	r6, pc, #457179136	; 0x1b400000
     ea0:	69006675 	stmdbvs	r0, {r0, r2, r4, r5, r6, r9, sl, sp, lr}
     ea4:	695f6332 	ldmdbvs	pc, {r1, r4, r5, r8, r9, sp, lr}^	; <UNPREDICTABLE>
     ea8:	5f74696e 	svcpl	0x0074696e
     eac:	65636e6f 	strbvs	r6, [r3, #-3695]!	; 0xe6f
     eb0:	65725f00 	ldrbvs	r5, [r2, #-3840]!	; 0xf00
     eb4:	746c7573 	strbtvc	r7, [ip], #-1395	; 0x573
     eb8:	775f5f00 	ldrbvc	r5, [pc, -r0, lsl #30]
     ebc:	47006863 	strmi	r6, [r0, -r3, ror #16]
     ec0:	5f4f4950 	svcpl	0x004f4950
     ec4:	434e5546 	movtmi	r5, #58694	; 0xe546
     ec8:	544c415f 	strbpl	r4, [ip], #-351	; 0x15f
     ecc:	69770032 	ldmdbvs	r7!, {r1, r4, r5}^
     ed0:	745f746e 	ldrbvc	r7, [pc], #-1134	; ed8 <_start-0x7128>
     ed4:	6f6c5f00 	svcvs	0x006c5f00
     ed8:	5f006b63 	svcpl	0x00006b63
     edc:	67616c66 	strbvs	r6, [r1, -r6, ror #24]!
     ee0:	5f003273 	svcpl	0x00003273
     ee4:	5f6d745f 	svcpl	0x006d745f
     ee8:	72616579 	rsbvc	r6, r1, #507510784	; 0x1e400000
     eec:	746e6900 	strbtvc	r6, [lr], #-2304	; 0x900
     ef0:	6e5f0064 	cdpvs	0, 5, cr0, cr15, cr4, {3}
     ef4:	6c6c616d 	stfvse	f6, [ip], #-436	; 0xfffffe4c
     ef8:	6900636f 	stmdbvs	r0, {r0, r1, r2, r3, r5, r6, r8, r9, sp, lr}
     efc:	0072746e 	rsbseq	r7, r2, lr, ror #8
     f00:	74746e69 	ldrbtvc	r6, [r4], #-3689	; 0xe69
     f04:	65686300 	strbvs	r6, [r8, #-768]!	; 0x300
     f08:	6c5f6b63 	mrrcvs	11, 6, r6, pc, cr3	; <UNPREDICTABLE>
     f0c:	756f7961 	strbvc	r7, [pc, #-2401]!	; 5b3 <_start-0x7a4d>
     f10:	6e5f0074 	mrcvs	0, 2, r0, cr15, cr4, {3}
     f14:	66747865 	ldrbtvs	r7, [r4], -r5, ror #16
     f18:	63326900 	teqvs	r2, #0, 18
     f1c:	5f006e65 	svcpl	0x00006e65
     f20:	5f6d745f 	svcpl	0x006d745f
     f24:	006e6f6d 	rsbeq	r6, lr, sp, ror #30
     f28:	6574615f 	ldrbvs	r6, [r4, #-351]!	; 0x15f
     f2c:	00746978 	rsbseq	r6, r4, r8, ror r9
     f30:	64735f5f 	ldrbtvs	r5, [r3], #-3935	; 0xf5f
     f34:	6e696469 	cdpvs	4, 6, cr6, cr9, cr9, {3}
     f38:	5f007469 	svcpl	0x00007469
     f3c:	5f66666f 	svcpl	0x0066666f
     f40:	665f0074 			; <UNDEFINED> instruction: 0x665f0074
     f44:	6c656572 	cfstr64vs	mvdx6, [r5], #-456	; 0xfffffe38
     f48:	00747369 	rsbseq	r7, r4, r9, ror #6
     f4c:	6e656c64 	cdpvs	12, 6, cr6, cr5, cr4, {3}
     f50:	4f4c5f00 	svcmi	0x004c5f00
     f54:	525f4b43 	subspl	r4, pc, #68608	; 0x10c00
     f58:	52554345 	subspl	r4, r5, #335544321	; 0x14000001
     f5c:	45564953 	ldrbmi	r4, [r6, #-2387]	; 0x953
     f60:	5f00545f 	svcpl	0x0000545f
     f64:	0077656e 	rsbseq	r6, r7, lr, ror #10
     f68:	655f685f 	ldrbvs	r6, [pc, #-2143]	; 711 <_start-0x78ef>
     f6c:	6f6e7272 	svcvs	0x006e7272
     f70:	745f5f00 	ldrbvc	r5, [pc], #-3840	; f78 <_start-0x7088>
     f74:	64795f6d 	ldrbtvs	r5, [r9], #-3949	; 0xf6d
     f78:	5f007961 	svcpl	0x00007961
     f7c:	7562735f 	strbvc	r7, [r2, #-863]!	; 0x35f
     f80:	695f0066 	ldmdbvs	pc, {r1, r2, r5, r6}^	; <UNPREDICTABLE>
     f84:	0073626f 	rsbseq	r6, r3, pc, ror #4
     f88:	49465f5f 	stmdbmi	r6, {r0, r1, r2, r3, r4, r6, r8, r9, sl, fp, ip, lr}^
     f8c:	5f00454c 	svcpl	0x0000454c
     f90:	7473626d 	ldrbtvc	r6, [r3], #-621	; 0x26d
     f94:	5f657461 	svcpl	0x00657461
     f98:	5f5f0074 	svcpl	0x005f0074
     f9c:	4c494673 	mcrrmi	6, 7, r4, r9, cr3
     fa0:	6d5f0045 	ldclvs	0, cr0, [pc, #-276]	; e94 <_start-0x716c>
     fa4:	61747362 	cmnvs	r4, r2, ror #6
     fa8:	5f006574 	svcpl	0x00006574
     fac:	646e6172 	strbtvs	r6, [lr], #-370	; 0x172
     fb0:	78656e5f 	stmdavc	r5!, {r0, r1, r2, r3, r4, r6, r9, sl, fp, sp, lr}^
     fb4:	6c630074 	stclvs	0, cr0, [r3], #-464	; 0xfffffe30
     fb8:	5f6b636f 	svcpl	0x006b636f
     fbc:	616c6564 	cmnvs	ip, r4, ror #10
     fc0:	6d5f0079 	ldclvs	0, cr0, [pc, #-484]	; de4 <_start-0x721c>
     fc4:	6e656c62 	cdpvs	12, 6, cr6, cr5, cr2, {3}
     fc8:	6174735f 	cmnvs	r4, pc, asr r3
     fcc:	5f006574 	svcpl	0x00006574
     fd0:	00636e69 	rsbeq	r6, r3, r9, ror #28
     fd4:	646e695f 	strbtvs	r6, [lr], #-2399	; 0x95f
     fd8:	75635f00 	strbvc	r5, [r3, #-3840]!	; 0xf00
     fdc:	6e657272 	mcrvs	2, 3, r7, cr5, cr2, {3}
     fe0:	6f6c5f74 	svcvs	0x006c5f74
     fe4:	656c6163 	strbvs	r6, [ip, #-355]!	; 0x163
     fe8:	635f5f00 	cmpvs	pc, #0, 30
     fec:	6e61656c 	cdpvs	5, 6, cr6, cr1, cr12, {3}
     ff0:	5f007075 	svcpl	0x00007075
     ff4:	7778616d 	ldrbvc	r6, [r8, -sp, ror #2]!
     ff8:	5f007364 	svcpl	0x00007364
     ffc:	6e656572 	mcrvs	5, 3, r6, cr5, cr2, {3}
    1000:	735f0074 	cmpvc	pc, #116	; 0x74
    1004:	00646565 	rsbeq	r6, r4, r5, ror #10
    1008:	6f635f5f 	svcvs	0x00635f5f
    100c:	00746e75 	rsbseq	r6, r4, r5, ror lr
    1010:	6565735f 	strbvs	r7, [r5, #-863]!	; 0x35f
    1014:	665f006b 	ldrbvs	r0, [pc], -fp, rrx
    1018:	5f736f70 	svcpl	0x00736f70
    101c:	5f5f0074 	svcpl	0x005f0074
    1020:	6d5f6d74 	ldclvs	13, cr6, [pc, #-464]	; e58 <_start-0x71a8>
    1024:	5f006e69 	svcpl	0x00006e69
    1028:	746c756d 	strbtvc	r7, [ip], #-1389	; 0x56d
    102c:	74757000 	ldrbtvc	r7, [r5], #-0
    1030:	2f003233 	svccs	0x00003233
    1034:	656d6f68 	strbvs	r6, [sp, #-3944]!	; 0xf68
    1038:	676e652f 	strbvs	r6, [lr, -pc, lsr #10]!
    103c:	2f72656c 	svccs	0x0072656c
    1040:	73616c63 	cmnvc	r1, #25344	; 0x6300
    1044:	73632f73 	cmnvc	r3, #460	; 0x1cc
    1048:	6c303432 	cfldrsvs	mvf3, [r0], #-200	; 0xffffff38
    104c:	30322d78 	eorscc	r2, r2, r8, ror sp
    1050:	2f727073 	svccs	0x00727073
    1054:	7362616c 	cmnvc	r2, #108, 2
    1058:	692d382f 	pushvs	{r0, r1, r2, r3, r5, fp, ip, sp}
    105c:	612d6332 	teqvs	sp, r2, lsr r3
    1060:	6c656363 	stclvs	3, cr6, [r5], #-396	; 0xfffffe74
    1064:	646f632f 	strbtvs	r6, [pc], #-815	; 106c <_start-0x6f94>
    1068:	735f0065 	cmpvc	pc, #101	; 0x65
    106c:	6f747274 	svcvs	0x00747274
    1070:	616c5f6b 	cmnvs	ip, fp, ror #30
    1074:	5f007473 	svcpl	0x00007473
    1078:	6c61765f 	stclvs	6, cr7, [r1], #-380	; 0xfffffe84
    107c:	5f006575 	svcpl	0x00006575
    1080:	79746e66 	ldmdbvc	r4!, {r1, r2, r5, r6, r9, sl, fp, sp, lr}^
    1084:	00736570 	rsbseq	r6, r3, r0, ror r5
    1088:	6464615f 	strbtvs	r6, [r4], #-351	; 0x15f
    108c:	555f5f00 	ldrbpl	r5, [pc, #-3840]	; 194 <_start-0x7e6c>
    1090:	676e6f4c 	strbvs	r6, [lr, -ip, asr #30]!
    1094:	65675f00 	strbvs	r5, [r7, #-3840]!	; 0xf00
    1098:	74616474 	strbtvc	r6, [r1], #-1140	; 0x474
    109c:	72655f65 	rsbvc	r5, r5, #404	; 0x194
    10a0:	675f0072 			; <UNDEFINED> instruction: 0x675f0072
    10a4:	61626f6c 	cmnvs	r2, ip, ror #30
    10a8:	6d695f6c 	stclvs	15, cr5, [r9, #-432]!	; 0xfffffe50
    10ac:	65727570 	ldrbvs	r7, [r2, #-1392]!	; 0x570
    10b0:	7274705f 	rsbsvc	r7, r4, #95	; 0x5f
    10b4:	75635f00 	strbvc	r5, [r3, #-3840]!	; 0xf00
    10b8:	6e657272 	mcrvs	2, 3, r7, cr5, cr2, {3}
    10bc:	61635f74 	smcvs	13812	; 0x35f4
    10c0:	6f676574 	svcvs	0x00676574
    10c4:	5f007972 	svcpl	0x00007972
    10c8:	73756e75 	cmnvc	r5, #1872	; 0x750
    10cc:	725f6465 	subsvc	r6, pc, #1694498816	; 0x65000000
    10d0:	00646e61 	rsbeq	r6, r4, r1, ror #28
    10d4:	72656678 	rsbvc	r6, r5, #120, 12	; 0x7800000
    10d8:	6174735f 	cmnvs	r4, pc, asr r3
    10dc:	5f007472 	svcpl	0x00007472
    10e0:	00736477 	rsbseq	r6, r3, r7, ror r4
    10e4:	6d745f5f 	ldclvs	15, cr5, [r4, #-380]!	; 0xfffffe84
    10e8:	6164775f 	cmnvs	r4, pc, asr r7
    10ec:	675f0079 			; <UNDEFINED> instruction: 0x675f0079
    10f0:	0065756c 	rsbeq	r7, r5, ip, ror #10
    10f4:	4f495047 	svcmi	0x00495047
    10f8:	4e55465f 	mrcmi	6, 2, r4, cr5, cr15, {2}
    10fc:	554f5f43 	strbpl	r5, [pc, #-3907]	; 1c1 <_start-0x7e3f>
    1100:	54555054 	ldrbpl	r5, [r5], #-84	; 0x54
    1104:	366c5f00 	strbtcc	r5, [ip], -r0, lsl #30
    1108:	625f6134 	subsvs	r6, pc, #52, 2
    110c:	67006675 	smlsdxvs	r0, r5, r6, r6
    1110:	32337465 	eorscc	r7, r3, #1694498816	; 0x65000000
    1114:	65667800 	strbvs	r7, [r6, #-2048]!	; 0x800
    1118:	6e655f72 	mcrvs	15, 3, r5, cr5, cr2, {3}
    111c:	735f0064 	cmpvc	pc, #100	; 0x64
    1120:	665f6769 	ldrbvs	r6, [pc], -r9, ror #14
    1124:	00636e75 	rsbeq	r6, r3, r5, ror lr
    1128:	746b6c63 	strbtvc	r6, [fp], #-3171	; 0xc63
    112c:	6c63006b 	stclvs	0, cr0, [r3], #-428	; 0xfffffe54
    1130:	5f726165 	svcpl	0x00726165
    1134:	50470063 	subpl	r0, r7, r3, rrx
    1138:	465f4f49 	ldrbmi	r4, [pc], -r9, asr #30
    113c:	5f434e55 	svcpl	0x00434e55
    1140:	30544c41 	subscc	r4, r4, r1, asr #24
    1144:	626e5f00 	rsbvs	r5, lr, #0, 30
    1148:	5f006675 	svcpl	0x00006675
    114c:	73756e75 	cmnvc	r5, #1872	; 0x750
    1150:	47006465 	strmi	r6, [r0, -r5, ror #8]
    1154:	5f4f4950 	svcpl	0x004f4950
    1158:	434e5546 	movtmi	r5, #58694	; 0xe546
    115c:	544c415f 	strbpl	r4, [ip], #-351	; 0x15f
    1160:	50470033 	subpl	r0, r7, r3, lsr r0
    1164:	465f4f49 	ldrbmi	r4, [pc], -r9, asr #30
    1168:	5f434e55 	svcpl	0x00434e55
    116c:	34544c41 	ldrbcc	r4, [r4], #-3137	; 0xc41
    1170:	49504700 	ldmdbmi	r0, {r8, r9, sl, lr}^
    1174:	55465f4f 	strbpl	r5, [r6, #-3919]	; 0xf4f
    1178:	415f434e 	cmpmi	pc, lr, asr #6
    117c:	0035544c 	eorseq	r5, r5, ip, asr #8
    1180:	6d745f5f 	ldclvs	15, cr5, [r4, #-380]!	; 0xfffffe84
    1184:	6473695f 	ldrbtvs	r6, [r3], #-2399	; 0x95f
    1188:	5f007473 	svcpl	0x00007473
    118c:	61636f6c 	cmnvs	r3, ip, ror #30
    1190:	6d69746c 	cfstrdvs	mvd7, [r9, #-432]!	; 0xfffffe50
    1194:	75625f65 	strbvc	r5, [r2, #-3941]!	; 0xf65
    1198:	635f0066 	cmpvs	pc, #102	; 0x66
    119c:	65736f6c 	ldrbvs	r6, [r3, #-3948]!	; 0xf6c
    11a0:	656c6300 	strbvs	r6, [ip, #-768]!	; 0x300
    11a4:	735f7261 	cmpvc	pc, #268435462	; 0x10000006
    11a8:	34725f00 	ldrbtcc	r5, [r2], #-3840	; 0xf00
    11ac:	5f630038 	svcpl	0x00630038
    11b0:	69676572 	stmdbvs	r7!, {r1, r4, r5, r6, r8, sl, sp, lr}^
    11b4:	72657473 	rsbvc	r7, r5, #1929379840	; 0x73000000
    11b8:	626d5f00 	rsbvs	r5, sp, #0, 30
    11bc:	63776f74 	cmnvs	r7, #116, 30	; 0x1d0
    11c0:	6174735f 	cmnvs	r4, pc, asr r3
    11c4:	5f006574 	svcpl	0x00006574
    11c8:	00733570 	rsbseq	r3, r3, r0, ror r5
    11cc:	6d745f5f 	ldclvs	15, cr5, [r4, #-380]!	; 0xfffffe84
    11d0:	61646d5f 	cmnvs	r4, pc, asr sp
    11d4:	5f5f0079 	svcpl	0x005f0079
    11d8:	63756e67 	cmnvs	r5, #1648	; 0x670
    11dc:	5f61765f 	svcpl	0x0061765f
    11e0:	7473696c 	ldrbtvc	r6, [r3], #-2412	; 0x96c
    11e4:	62696c00 	rsbvs	r6, r9, #0, 24
    11e8:	72702f63 	rsbsvc	r2, r0, #396	; 0x18c
    11ec:	6b746e69 	blvs	1d1cb98 <__bss_end__+0x1d10eb0>
    11f0:	4700632e 	strmi	r6, [r0, -lr, lsr #6]
    11f4:	4320554e 	teqmi	r0, #327155712	; 0x13800000
    11f8:	382e3420 	stmdacc	lr!, {r5, sl, ip, sp}
    11fc:	2d20332e 	stccs	3, cr3, [r0, #-184]!	; 0xffffff48
    1200:	7570636d 	ldrbvc	r6, [r0, #-877]!	; 0x36d
    1204:	6d72613d 	ldfvse	f6, [r2, #-244]!	; 0xffffff0c
    1208:	36373131 			; <UNDEFINED> instruction: 0x36373131
    120c:	2d667a6a 	vstmdbcs	r6!, {s15-s120}
    1210:	6d2d2073 	stcvs	0, cr2, [sp, #-460]!	; 0xfffffe34
    1214:	656e7574 	strbvs	r7, [lr, #-1396]!	; 0x574
    1218:	6d72613d 	ldfvse	f6, [r2, #-244]!	; 0xffffff0c
    121c:	36373131 			; <UNDEFINED> instruction: 0x36373131
    1220:	2d667a6a 	vstmdbcs	r6!, {s15-s120}
    1224:	672d2073 			; <UNDEFINED> instruction: 0x672d2073
    1228:	20626467 	rsbcs	r6, r2, r7, ror #8
    122c:	20674f2d 	rsbcs	r4, r7, sp, lsr #30
    1230:	6474732d 	ldrbtvs	r7, [r4], #-813	; 0x32d
    1234:	756e673d 	strbvc	r6, [lr, #-1853]!	; 0x73d
    1238:	2d203939 	stccs	9, cr3, [r0, #-228]!	; 0xffffff1c
    123c:	65726666 	ldrbvs	r6, [r2, #-1638]!	; 0x666
    1240:	61747365 	cmnvs	r4, r5, ror #6
    1244:	6e69646e 	cdpvs	4, 6, cr6, cr9, cr14, {3}
    1248:	61760067 	cmnvs	r6, r7, rrx
    124c:	6972705f 	ldmdbvs	r2!, {r0, r1, r2, r3, r4, r6, ip, sp, lr}^
    1250:	006b746e 	rsbeq	r7, fp, lr, ror #8
    1254:	61765f5f 	cmnvs	r6, pc, asr pc
    1258:	73696c5f 	cmnvc	r9, #24320	; 0x5f00
    125c:	552f0074 	strpl	r0, [pc, #-116]!	; 11f0 <_start-0x6e10>
    1260:	73726573 	cmnvc	r2, #482344960	; 0x1cc00000
    1264:	6972622f 	ldmdbvs	r2!, {r0, r1, r2, r3, r5, r9, sp, lr}^
    1268:	756a6e61 	strbvc	r6, [sl, #-3681]!	; 0xe61
    126c:	65442f6e 	strbvs	r2, [r4, #-3950]	; 0xf6e
    1270:	6f746b73 	svcvs	0x00746b73
    1274:	63732f70 	cmnvs	r3, #112, 30	; 0x1c0
    1278:	6c6f6f68 	stclvs	15, cr6, [pc], #-416	; 10e0 <_start-0x6f20>
    127c:	6e69572f 	cdpvs	7, 6, cr5, cr9, cr15, {1}
    1280:	31726574 	cmncc	r2, r4, ror r5
    1284:	2f303239 	svccs	0x00303239
    1288:	34315343 	ldrtcc	r5, [r1], #-835	; 0x343
    128c:	632f4530 	teqvs	pc, #48, 10	; 0xc000000
    1290:	30343173 	eorscc	r3, r4, r3, ror r1
    1294:	30322d65 	eorscc	r2, r2, r5, ror #26
    1298:	2f6e6977 	svccs	0x006e6977
    129c:	7062696c 	rsbvc	r6, r2, ip, ror #18
    12a0:	5f5f0069 	svcpl	0x005f0069
    12a4:	75007061 	strvc	r7, [r0, #-97]	; 0x61
    12a8:	5f747261 	svcpl	0x00747261
    12ac:	63747570 	cmnvs	r4, #112, 10	; 0x1c000000
    12b0:	746e6900 	strbtvc	r6, [lr], #-2304	; 0x900
    12b4:	616e7265 	cmnvs	lr, r5, ror #4
    12b8:	75705f6c 	ldrbvc	r5, [r0, #-3948]!	; 0xf6c
    12bc:	61686374 	smcvs	34356	; 0x8634
    12c0:	696c0072 	stmdbvs	ip!, {r1, r4, r5, r6}^
    12c4:	702f6362 	eorvc	r6, pc, r2, ror #6
    12c8:	68637475 	stmdavs	r3!, {r0, r2, r4, r5, r6, sl, ip, sp, lr}^
    12cc:	632e7261 	teqvs	lr, #268435462	; 0x10000006
    12d0:	69707200 	ldmdbvs	r0!, {r9, ip, sp, lr}^
    12d4:	7465735f 	strbtvc	r7, [r5], #-863	; 0x35f
    12d8:	7475705f 	ldrbtvc	r7, [r5], #-95	; 0x5f
    12dc:	696c0063 	stmdbvs	ip!, {r0, r1, r5, r6}^
    12e0:	702f6362 	eorvc	r6, pc, r2, ror #6
    12e4:	2e6b7475 	mcrcs	4, 3, r7, cr11, cr5, {3}
    12e8:	6e690063 	cdpvs	0, 6, cr0, cr9, cr3, {3}
    12ec:	6e726574 	mrcvs	5, 3, r6, cr2, cr4, {3}
    12f0:	705f6c61 	subsvc	r6, pc, r1, ror #24
    12f4:	006b7475 	rsbeq	r7, fp, r5, ror r4
    12f8:	5f67656e 	svcpl	0x0067656e
    12fc:	65720070 	ldrbvs	r0, [r2, #-112]!	; 0x70
    1300:	73726576 	cmnvc	r2, #494927872	; 0x1d800000
    1304:	73690065 	cmnvc	r9, #101	; 0x65
    1308:	69676964 	stmdbvs	r7!, {r2, r5, r6, r8, fp, sp, lr}^
    130c:	75700074 	ldrbvc	r0, [r0, #-116]!	; 0x74
    1310:	665f7374 			; <UNDEFINED> instruction: 0x665f7374
    1314:	69730070 	ldmdbvs	r3!, {r4, r5, r6}^
    1318:	64656e67 	strbtvs	r6, [r5], #-3687	; 0xe67
    131c:	6c00705f 	stcvs	0, cr7, [r0], {95}	; 0x5f
    1320:	2f636269 	svccs	0x00636269
    1324:	702d6176 	eorvc	r6, sp, r6, ror r1
    1328:	746e6972 	strbtvc	r6, [lr], #-2418	; 0x972
    132c:	00632e6b 	rsbeq	r2, r3, fp, ror #28
    1330:	5f697072 	svcpl	0x00697072
    1334:	5f746573 	svcpl	0x00746573
    1338:	7074756f 	rsbsvc	r7, r4, pc, ror #10
    133c:	77007475 	smlsdxvc	r0, r5, r4, r7
    1340:	68746469 	ldmdavs	r4!, {r0, r3, r5, r6, sl, sp, lr}^
    1344:	74757000 	ldrbtvc	r7, [r5], #-0
    1348:	70665f63 	rsbvc	r5, r6, r3, ror #30
    134c:	696d6500 	stmdbvs	sp!, {r8, sl, sp, lr}^
    1350:	70720074 	rsbsvc	r0, r2, r4, ror r0
    1354:	65725f69 	ldrbvs	r5, [r2, #-3945]!	; 0xf69
    1358:	746f6f62 	strbtvc	r6, [pc], #-3938	; 1360 <_start-0x6ca0>
    135c:	31736300 	cmncc	r3, r0, lsl #6
    1360:	2d653034 	stclcs	0, cr3, [r5, #-208]!	; 0xffffff30
    1364:	2f637273 	svccs	0x00637273
    1368:	61656c63 	cmnvs	r5, r3, ror #24
    136c:	65722d6e 	ldrbvs	r2, [r2, #-3438]!	; 0xd6e
    1370:	746f6f62 	strbtvc	r6, [pc], #-3938	; 1378 <_start-0x6c88>
    1374:	6300632e 	movwvs	r6, #814	; 0x32e
    1378:	30343173 	eorscc	r3, r4, r3, ror r1
    137c:	72732d65 	rsbsvc	r2, r3, #6464	; 0x1940
    1380:	73632f63 	cmnvc	r3, #396	; 0x18c
    1384:	74726174 	ldrbtvc	r6, [r2], #-372	; 0x174
    1388:	5f00632e 	svcpl	0x0000632e
    138c:	7373625f 	cmnvc	r3, #-268435451	; 0xf0000005
    1390:	6174735f 	cmnvs	r4, pc, asr r3
    1394:	5f5f7472 	svcpl	0x005f7472
    1398:	625f5f00 	subsvs	r5, pc, #0, 30
    139c:	655f7373 	ldrbvs	r7, [pc, #-883]	; 1031 <_start-0x6fcf>
    13a0:	5f5f646e 	svcpl	0x005f646e
    13a4:	73736200 	cmnvc	r3, #0, 4
    13a8:	646e655f 	strbtvs	r6, [lr], #-1375	; 0x55f
    13ac:	73635f00 	cmnvc	r3, #0, 30
    13b0:	74726174 	ldrbtvc	r6, [r2], #-372	; 0x174
    13b4:	5f746100 	svcpl	0x00746100
    13b8:	72657375 	rsbvc	r7, r5, #-738197503	; 0xd4000001
    13bc:	76656c5f 			; <UNDEFINED> instruction: 0x76656c5f
    13c0:	50006c65 	andpl	r6, r0, r5, ror #24
    13c4:	41505f4d 	cmpmi	r0, sp, asr #30
    13c8:	4f575353 	svcmi	0x00575353
    13cc:	63004452 	movwvs	r4, #1106	; 0x452
    13d0:	30343173 	eorscc	r3, r4, r3, ror r1
    13d4:	72732d65 	rsbsvc	r2, r3, #6464	; 0x1940
    13d8:	65722f63 	ldrbvs	r2, [r2, #-3939]!	; 0xf63
    13dc:	746f6f62 	strbtvc	r6, [pc], #-3938	; 13e4 <_start-0x6c1c>
    13e0:	5000632e 	andpl	r6, r0, lr, lsr #6
    13e4:	53525f4d 	cmppl	r2, #308	; 0x134
    13e8:	575f4354 			; <UNDEFINED> instruction: 0x575f4354
    13ec:	47464352 	smlsldmi	r4, r6, r2, r3
    13f0:	4c55465f 	mrrcmi	6, 5, r4, r5, cr15
    13f4:	45525f4c 	ldrbmi	r5, [r2, #-3916]	; 0xf4c
    13f8:	00544553 	subseq	r4, r4, r3, asr r5
    13fc:	575f4d50 			; <UNDEFINED> instruction: 0x575f4d50
    1400:	00474f44 	subeq	r4, r7, r4, asr #30
    1404:	5f746573 	svcpl	0x00746573
    1408:	72657375 	rsbvc	r7, r5, #-738197503	; 0xd4000001
    140c:	76656c5f 			; <UNDEFINED> instruction: 0x76656c5f
    1410:	50006c65 	andpl	r6, r0, r5, ror #24
    1414:	53525f4d 	cmppl	r2, #308	; 0x134
    1418:	63004354 	movwvs	r4, #852	; 0x354
    141c:	00727370 	rsbseq	r7, r2, r0, ror r3
    1420:	656d6974 	strbvs	r6, [sp, #-2420]!	; 0x974
    1424:	65675f72 	strbvs	r5, [r7, #-3954]!	; 0xf72
    1428:	73755f74 	cmnvc	r5, #116, 30	; 0x1d0
    142c:	725f6365 	subsvc	r6, pc, #-1811939327	; 0x94000001
    1430:	64007761 	strvs	r7, [r0], #-1889	; 0x761
    1434:	79616c65 	stmdbvc	r1!, {r0, r2, r5, r6, sl, fp, sp, lr}^
    1438:	6365735f 	cmnvs	r5, #2080374785	; 0x7c000001
    143c:	31736300 	cmncc	r3, r0, lsl #6
    1440:	2d653034 	stclcs	0, cr3, [r5, #-208]!	; 0xffffff30
    1444:	2f637273 	svccs	0x00637273
    1448:	656d6974 	strbvs	r6, [sp, #-2420]!	; 0x974
    144c:	00632e72 	rsbeq	r2, r3, r2, ror lr
    1450:	6b636974 	blvs	18dba28 <__bss_end__+0x18cfd40>
    1454:	65640073 	strbvs	r0, [r4, #-115]!	; 0x73
    1458:	5f79616c 	svcpl	0x0079616c
    145c:	6c637963 	stclvs	9, cr7, [r3], #-396	; 0xfffffe74
    1460:	67007365 	strvs	r7, [r0, -r5, ror #6]
    1464:	5f6f6970 	svcpl	0x006f6970
    1468:	6e657665 	cdpvs	6, 6, cr7, cr5, cr5, {3}
    146c:	65645f74 	strbvs	r5, [r4, #-3956]!	; 0xf74
    1470:	74636574 	strbtvc	r6, [r3], #-1396	; 0x574
    1474:	47006465 	strmi	r6, [r0, -r5, ror #8]
    1478:	45534650 	ldrbmi	r4, [r3, #-1616]	; 0x650
    147c:	4700324c 	strmi	r3, [r0, -ip, asr #4]
    1480:	524c4350 	subpl	r4, ip, #80, 6	; 0x40000001
    1484:	4e450030 	mcrmi	0, 2, r0, cr5, cr0, {1}
    1488:	454c4241 	strbmi	r4, [ip, #-577]	; 0x241
    148c:	5152495f 	cmppl	r2, pc, asr r9
    1490:	00325f53 	eorseq	r5, r2, r3, asr pc
    1494:	675f7369 	ldrbvs	r7, [pc, -r9, ror #6]
    1498:	5f6f6970 	svcpl	0x006f6970
    149c:	00746e69 	rsbseq	r6, r4, r9, ror #28
    14a0:	34317363 	ldrtcc	r7, [r1], #-867	; 0x363
    14a4:	732d6530 	teqvc	sp, #48, 10	; 0xc000000
    14a8:	672f6372 			; <UNDEFINED> instruction: 0x672f6372
    14ac:	2e6f6970 	mcrcs	9, 3, r6, cr15, cr0, {3}
    14b0:	70670063 	rsbvc	r0, r7, r3, rrx
    14b4:	735f6f69 	cmpvc	pc, #420	; 0x1a4
    14b8:	6f5f7465 	svcvs	0x005f7465
    14bc:	69006666 	stmdbvs	r0, {r1, r2, r5, r6, r9, sl, sp, lr}
    14c0:	6d5f746e 	cfldrdvs	mvd7, [pc, #-440]	; 1310 <_start-0x6cf0>
    14c4:	006b7361 	rsbeq	r7, fp, r1, ror #6
    14c8:	45535047 	ldrbmi	r5, [r3, #-71]	; 0x47
    14cc:	47003054 	smlsdmi	r0, r4, r0, r3
    14d0:	54455350 	strbpl	r5, [r5], #-848	; 0x350
    14d4:	65720031 	ldrbvs	r0, [r2, #-49]!	; 0x31
    14d8:	74735f67 	ldrbtvc	r5, [r3], #-3943	; 0xf67
    14dc:	47007461 	strmi	r7, [r0, -r1, ror #8]
    14e0:	56454c50 			; <UNDEFINED> instruction: 0x56454c50
    14e4:	50470030 	subpl	r0, r7, r0, lsr r0
    14e8:	3156454c 	cmpcc	r6, ip, asr #10
    14ec:	69706700 	ldmdbvs	r0!, {r8, r9, sl, sp, lr}^
    14f0:	65725f6f 	ldrbvs	r5, [r2, #-3951]!	; 0xf6f
    14f4:	50470067 	subpl	r0, r7, r7, rrx
    14f8:	4c455346 	mcrrmi	3, 4, r5, r5, cr6
    14fc:	50470030 	subpl	r0, r7, r0, lsr r0
    1500:	4c455346 	mcrrmi	3, 4, r5, r5, cr6
    1504:	50470031 	subpl	r0, r7, r1, lsr r0
    1508:	4c455346 	mcrrmi	3, 4, r5, r5, cr6
    150c:	50470033 	subpl	r0, r7, r3, lsr r0
    1510:	4c455346 	mcrrmi	3, 4, r5, r5, cr6
    1514:	50470034 	subpl	r0, r7, r4, lsr r0
    1518:	4c455346 	mcrrmi	3, 4, r5, r5, cr6
    151c:	70670035 	rsbvc	r0, r7, r5, lsr r0
    1520:	665f6f69 	ldrbvs	r6, [pc], -r9, ror #30
    1524:	306c6573 	rsbcc	r6, ip, r3, ror r5
    1528:	43504700 	cmpmi	r0, #0, 14
    152c:	0031524c 	eorseq	r5, r1, ip, asr #4
    1530:	6f697067 	svcvs	0x00697067
    1534:	6165725f 	cmnvs	r5, pc, asr r2
    1538:	70670064 	rsbvc	r0, r7, r4, rrx
    153c:	695f6f69 	ldmdbvs	pc, {r0, r3, r5, r6, r8, r9, sl, fp, sp, lr}^	; <UNPREDICTABLE>
    1540:	725f746e 	subsvc	r7, pc, #1845493760	; 0x6e000000
    1544:	6e697369 	cdpvs	3, 6, cr7, cr9, cr9, {3}
    1548:	64655f67 	strbtvs	r5, [r5], #-3943	; 0xf67
    154c:	47006567 	strmi	r6, [r0, -r7, ror #10]
    1550:	4e455250 	mcrmi	2, 2, r5, cr5, cr0, {2}
    1554:	50470030 	subpl	r0, r7, r0, lsr r0
    1558:	314e4552 	cmpcc	lr, r2, asr r5
    155c:	69706700 	ldmdbvs	r0!, {r8, r9, sl, sp, lr}^
    1560:	76655f6f 	strbtvc	r5, [r5], -pc, ror #30
    1564:	5f746e65 	svcpl	0x00746e65
    1568:	61656c63 	cmnvs	r5, r3, ror #24
    156c:	52490072 	subpl	r0, r9, #114	; 0x72
    1570:	45505f51 	ldrbmi	r5, [r0, #-3921]	; 0xf51
    1574:	4e49444e 	cdpmi	4, 4, cr4, cr9, cr14, {2}
    1578:	00315f47 	eorseq	r5, r1, r7, asr #30
    157c:	5f515249 	svcpl	0x00515249
    1580:	444e4550 	strbmi	r4, [lr], #-1360	; 0x550
    1584:	5f474e49 	svcpl	0x00474e49
    1588:	69620032 	stmdbvs	r2!, {r1, r4, r5}^
    158c:	73616d74 	cmnvc	r1, #116, 26	; 0x1d00
    1590:	7067006b 	rsbvc	r0, r7, fp, rrx
    1594:	735f6f69 	cmpvc	pc, #420	; 0x1a4
    1598:	00307465 	eorseq	r7, r0, r5, ror #8
    159c:	6f697067 	svcvs	0x00697067
    15a0:	7465735f 	strbtvc	r7, [r5], #-863	; 0x35f
    15a4:	706e695f 	rsbvc	r6, lr, pc, asr r9
    15a8:	67007475 	smlsdxvs	r0, r5, r4, r7
    15ac:	5f6f6970 	svcpl	0x006f6970
    15b0:	67676f74 			; <UNDEFINED> instruction: 0x67676f74
    15b4:	4700656c 	strmi	r6, [r0, -ip, ror #10]
    15b8:	53444550 	movtpl	r4, #17744	; 0x4550
    15bc:	50470030 	subpl	r0, r7, r0, lsr r0
    15c0:	31534445 	cmpcc	r3, r5, asr #8
    15c4:	69706700 	ldmdbvs	r0!, {r8, r9, sl, sp, lr}^
    15c8:	65735f6f 	ldrbvs	r5, [r3, #-3951]!	; 0xf6f
    15cc:	6e6f5f74 	mcrvs	15, 3, r5, cr15, cr4, {3}
    15d0:	46504700 	ldrbmi	r4, [r0], -r0, lsl #14
    15d4:	00304e45 	eorseq	r4, r0, r5, asr #28
    15d8:	45465047 	strbmi	r5, [r6, #-71]	; 0x47
    15dc:	6700314e 	strvs	r3, [r0, -lr, asr #2]
    15e0:	5f6f6970 	svcpl	0x006f6970
    15e4:	5f746e69 	svcpl	0x00746e69
    15e8:	6c6c6166 	stfvse	f6, [ip], #-408	; 0xfffffe68
    15ec:	5f676e69 	svcpl	0x00676e69
    15f0:	65676465 	strbvs	r6, [r7, #-1125]!	; 0x465
    15f4:	69706700 	ldmdbvs	r0!, {r8, r9, sl, sp, lr}^
    15f8:	75665f6f 	strbvc	r5, [r6, #-3951]!	; 0xf6f
    15fc:	745f636e 	ldrbvc	r6, [pc], #-878	; 1604 <_start-0x69fc>
    1600:	67657200 	strbvs	r7, [r5, -r0, lsl #4]!
    1604:	6c65735f 	stclvs	3, cr7, [r5], #-380	; 0xfffffe84
    1608:	00746365 	rsbseq	r6, r4, r5, ror #6
    160c:	6f697067 	svcvs	0x00697067
    1610:	726c635f 	rsbvc	r6, ip, #2080374785	; 0x7c000001
    1614:	69730030 	ldmdbvs	r3!, {r4, r5}^
    1618:	745f657a 	ldrbvc	r6, [pc], #-1402	; 1620 <_start-0x69e0>
    161c:	616d6b00 	cmnvs	sp, r0, lsl #22
    1620:	636f6c6c 	cmnvs	pc, #108, 24	; 0x6c00
    1624:	696c615f 	stmdbvs	ip!, {r0, r1, r2, r3, r4, r6, r8, sp, lr}^
    1628:	64656e67 	strbtvs	r6, [r5], #-3687	; 0xe67
    162c:	72666b00 	rsbvc	r6, r6, #0, 22
    1630:	615f6565 	cmpvs	pc, r5, ror #10
    1634:	61006c6c 	tstvs	r0, ip, ror #24
    1638:	6e67696c 	cdpvs	9, 6, cr6, cr7, cr12, {3}
    163c:	685f6465 	ldmdavs	pc, {r0, r2, r5, r6, sl, sp, lr}^	; <UNPREDICTABLE>
    1640:	5f706165 	svcpl	0x00706165
    1644:	00727470 	rsbseq	r7, r2, r0, ror r4
    1648:	736d656d 	cmnvc	sp, #457179136	; 0x1b400000
    164c:	6d007465 	cfstrsvs	mvf7, [r0, #-404]	; 0xfffffe6c
    1650:	72732d79 	rsbsvc	r2, r3, #7744	; 0x1e40
    1654:	6d6b2f63 	stclvs	15, cr2, [fp, #-396]!	; 0xfffffe74
    1658:	6f6c6c61 	svcvs	0x006c6c61
    165c:	00632e63 	rsbeq	r2, r3, r3, ror #28
    1660:	72617473 	rsbvc	r7, r1, #1929379840	; 0x73000000
    1664:	64615f74 	strbtvs	r5, [r1], #-3956	; 0xf74
    1668:	73657264 	cmnvc	r5, #100, 4	; 0x40000006
    166c:	6e690073 	mcrvs	0, 3, r0, cr9, cr3, {3}
    1670:	705f7469 	subsvc	r7, pc, r9, ror #8
    1674:	696c6100 	stmdbvs	ip!, {r8, sp, lr}^
    1678:	656d6e67 	strbvs	r6, [sp, #-3687]!	; 0xe67
    167c:	7200746e 	andvc	r7, r0, #1845493760	; 0x6e000000
    1680:	646e756f 	strbtvs	r7, [lr], #-1391	; 0x56f
    1684:	6e5f6465 	cdpvs	4, 5, cr6, cr15, cr5, {3}
    1688:	65747962 	ldrbvs	r7, [r4, #-2402]!	; 0x962
    168c:	6d6b0073 	stclvs	0, cr0, [fp, #-460]!	; 0xfffffe34
    1690:	6f6c6c61 	svcvs	0x006c6c61
    1694:	65685f63 	strbvs	r5, [r8, #-3939]!	; 0xf63
    1698:	705f7061 	subsvc	r7, pc, r1, rrx
    169c:	6b007274 	blvs	1e074 <__bss_end__+0x1238c>
    16a0:	6c6c616d 	stfvse	f6, [ip], #-436	; 0xfffffe4c
    16a4:	695f636f 	ldmdbvs	pc, {r0, r1, r2, r3, r5, r6, r8, r9, sp, lr}^	; <UNPREDICTABLE>
    16a8:	5f74696e 	svcpl	0x0074696e
    16ac:	5f746573 	svcpl	0x00746573
    16b0:	72617473 	rsbvc	r7, r1, #1929379840	; 0x73000000
    16b4:	6f740074 	svcvs	0x00740074
    16b8:	6c6c615f 	stfvse	f6, [ip], #-380	; 0xfffffe84
    16bc:	7461636f 	strbtvc	r6, [r1], #-879	; 0x36f
    16c0:	5f5f0065 	svcpl	0x005f0065
    16c4:	70616568 	rsbvc	r6, r1, r8, ror #10
    16c8:	6174735f 	cmnvs	r4, pc, asr r3
    16cc:	5f5f7472 	svcpl	0x005f7472
    16d0:	58554100 	ldmdapl	r5, {r8, lr}^
    16d4:	5f554d5f 	svcpl	0x00554d5f
    16d8:	5f52434d 	svcpl	0x0052434d
    16dc:	00474552 	subeq	r4, r7, r2, asr r5
    16e0:	5f585541 	svcpl	0x00585541
    16e4:	495f554d 	ldmdbmi	pc, {r0, r2, r3, r6, r8, sl, ip, lr}^	; <UNPREDICTABLE>
    16e8:	45525f4f 	ldrbmi	r5, [r2, #-3919]	; 0xf4f
    16ec:	55410047 	strbpl	r0, [r1, #-71]	; 0x47
    16f0:	554d5f58 	strbpl	r5, [sp, #-3928]	; 0xf58
    16f4:	52534d5f 	subspl	r4, r3, #6080	; 0x17c0
    16f8:	4745525f 	smlsldmi	r5, r5, pc, r2	; <UNPREDICTABLE>
    16fc:	72617500 	rsbvc	r7, r1, #0, 10
    1700:	61635f74 	smcvs	13812	; 0x35f4
    1704:	65675f6e 	strbvs	r5, [r7, #-3950]!	; 0xf6e
    1708:	41006374 	tstmi	r0, r4, ror r3
    170c:	4d5f5855 	ldclmi	8, cr5, [pc, #-340]	; 15c0 <_start-0x6a40>
    1710:	4e435f55 	mcrmi	15, 2, r5, cr3, cr5, {2}
    1714:	525f4c54 	subspl	r4, pc, #84, 24	; 0x5400
    1718:	75004745 	strvc	r4, [r0, #-1861]	; 0x745
    171c:	5f747261 	svcpl	0x00747261
    1720:	5f736168 	svcpl	0x00736168
    1724:	61746164 	cmnvs	r4, r4, ror #2
    1728:	58554100 	ldmdapl	r5, {r8, lr}^
    172c:	5f554d5f 	svcpl	0x00554d5f
    1730:	5f524549 	svcpl	0x00524549
    1734:	00474552 	subeq	r4, r7, r2, asr r5
    1738:	74726175 	ldrbtvc	r6, [r2], #-373	; 0x175
    173c:	7465675f 	strbtvc	r6, [r5], #-1887	; 0x75f
    1740:	55410063 	strbpl	r0, [r1, #-99]	; 0x63
    1744:	554d5f58 	strbpl	r5, [sp, #-3928]	; 0xf58
    1748:	5249495f 	subpl	r4, r9, #1556480	; 0x17c000
    174c:	4745525f 	smlsldmi	r5, r5, pc, r2	; <UNPREDICTABLE>
    1750:	72617500 	rsbvc	r7, r1, #0, 10
    1754:	61635f74 	smcvs	13812	; 0x35f4
    1758:	75705f6e 	ldrbvc	r5, [r0, #-3950]!	; 0xf6e
    175c:	41006374 	tstmi	r0, r4, ror r3
    1760:	455f5855 	ldrbmi	r5, [pc, #-2133]	; f13 <_start-0x70ed>
    1764:	4c42414e 	stfmie	f4, [r2], {78}	; 0x4e
    1768:	41005345 	tstmi	r0, r5, asr #6
    176c:	495f5855 	ldmdbmi	pc, {r0, r2, r4, r6, fp, ip, lr}^	; <UNPREDICTABLE>
    1770:	41005152 	tstmi	r0, r2, asr r1
    1774:	4d5f5855 	ldclmi	8, cr5, [pc, #-340]	; 1628 <_start-0x69d8>
    1778:	41425f55 	cmpmi	r2, r5, asr pc
    177c:	525f4455 	subspl	r4, pc, #1426063360	; 0x55000000
    1780:	41004745 	tstmi	r0, r5, asr #14
    1784:	4d5f5855 	ldclmi	8, cr5, [pc, #-340]	; 1638 <_start-0x69c8>
    1788:	54535f55 	ldrbpl	r5, [r3], #-3925	; 0xf55
    178c:	525f5441 	subspl	r5, pc, #1090519040	; 0x41000000
    1790:	41004745 	tstmi	r0, r5, asr #14
    1794:	4d5f5855 	ldclmi	8, cr5, [pc, #-340]	; 1648 <_start-0x69b8>
    1798:	43535f55 	cmpmi	r3, #340	; 0x154
    179c:	43544152 	cmpmi	r4, #-2147483628	; 0x80000014
    17a0:	796d0048 	stmdbvc	sp!, {r3, r6}^
    17a4:	6372732d 	cmnvs	r2, #-1275068416	; 0xb4000000
    17a8:	7261752f 	rsbvc	r7, r1, #197132288	; 0xbc00000
    17ac:	00632e74 	rsbeq	r2, r3, r4, ror lr
    17b0:	5f585541 	svcpl	0x00585541
    17b4:	4c5f554d 	cfldr64mi	mvdx5, [pc], {77}	; 0x4d
    17b8:	525f5243 	subspl	r5, pc, #805306372	; 0x30000004
    17bc:	41004745 	tstmi	r0, r5, asr #14
    17c0:	4d5f5855 	ldclmi	8, cr5, [pc, #-340]	; 1674 <_start-0x698c>
    17c4:	534c5f55 	movtpl	r5, #53077	; 0xcf55
    17c8:	45525f52 	ldrbmi	r5, [r2, #-3922]	; 0xf52
    17cc:	61750047 	cmnvs	r5, r7, asr #32
    17d0:	675f7472 			; <UNDEFINED> instruction: 0x675f7472
    17d4:	5f637465 	svcpl	0x00637465
    17d8:	6e797361 	cdpvs	3, 7, cr7, cr9, cr1, {3}
    17dc:	695f0063 	ldmdbvs	pc, {r0, r1, r5, r6}^	; <UNPREDICTABLE>
    17e0:	7265746e 	rsbvc	r7, r5, #1845493760	; 0x6e000000
    17e4:	74707572 	ldrbtvc	r7, [r0], #-1394	; 0x572
    17e8:	6261745f 	rsbvs	r7, r1, #1593835520	; 0x5f000000
    17ec:	5f00656c 	svcpl	0x0000656c
    17f0:	65746e69 	ldrbvs	r6, [r4, #-3689]!	; 0xe69
    17f4:	70757272 	rsbsvc	r7, r5, r2, ror r2
    17f8:	61745f74 	cmnvs	r4, r4, ror pc
    17fc:	5f656c62 	svcpl	0x00656c62
    1800:	00646e65 	rsbeq	r6, r4, r5, ror #28
    1804:	34317363 	ldrtcc	r7, [r1], #-867	; 0x363
    1808:	692d6530 	pushvs	{r4, r5, r8, sl, sp, lr}
    180c:	7265746e 	rsbvc	r7, r5, #1845493760	; 0x6e000000
    1810:	74707572 	ldrbtvc	r7, [r0], #-1394	; 0x572
    1814:	746e692f 	strbtvc	r6, [lr], #-2351	; 0x92f
    1818:	75727265 	ldrbvc	r7, [r2, #-613]!	; 0x265
    181c:	2d737470 	cfldrdcs	mvd7, [r3, #-448]!	; 0xfffffe40
    1820:	00632e63 	rsbeq	r2, r3, r3, ror #28
    1824:	74736166 	ldrbtvc	r6, [r3], #-358	; 0x166
    1828:	746e695f 	strbtvc	r6, [lr], #-2399	; 0x95f
    182c:	75727265 	ldrbvc	r7, [r2, #-613]!	; 0x265
    1830:	765f7470 			; <UNDEFINED> instruction: 0x765f7470
    1834:	6f746365 	svcvs	0x00746365
    1838:	69740072 	ldmdbvs	r4!, {r1, r4, r5, r6}^
    183c:	5f72656d 	svcpl	0x0072656d
    1840:	62616e65 	rsbvs	r6, r1, #1616	; 0x650
    1844:	0064656c 	rsbeq	r6, r4, ip, ror #10
    1848:	656d6974 	strbvs	r6, [sp, #-2420]!	; 0x974
    184c:	68635f72 	stmdavs	r3!, {r1, r4, r5, r6, r8, r9, sl, fp, ip, lr}^
    1850:	5f6b6365 	svcpl	0x006b6365
    1854:	7366666f 	cmnvc	r6, #116391936	; 0x6f00000
    1858:	00737465 	rsbseq	r7, r3, r5, ror #8
    185c:	34317363 	ldrtcc	r7, [r1], #-867	; 0x363
    1860:	692d6530 	pushvs	{r4, r5, r8, sl, sp, lr}
    1864:	7265746e 	rsbvc	r7, r5, #1845493760	; 0x6e000000
    1868:	74707572 	ldrbtvc	r7, [r0], #-1394	; 0x572
    186c:	6d69742f 	cfstrdvs	mvd7, [r9, #-188]!	; 0xffffff44
    1870:	692d7265 	pushvs	{r0, r2, r5, r6, r9, ip, sp, lr}
    1874:	7265746e 	rsbvc	r7, r5, #1845493760	; 0x6e000000
    1878:	74707572 	ldrbtvc	r7, [r0], #-1394	; 0x572
    187c:	7200632e 	andvc	r6, r0, #-1207959552	; 0xb8000000
    1880:	615f6970 	cmpvs	pc, r0, ror r9	; <UNPREDICTABLE>
    1884:	745f6d72 	ldrbvc	r6, [pc], #-3442	; 188c <_start-0x6774>
    1888:	72656d69 	rsbvc	r6, r5, #6720	; 0x1a40
    188c:	7274635f 	rsbsvc	r6, r4, #2080374785	; 0x7c000001
    1890:	00745f6c 	rsbseq	r5, r4, ip, ror #30
    1894:	6379636e 	cmnvs	r9, #-1207959551	; 0xb8000001
    1898:	0073656c 	rsbseq	r6, r3, ip, ror #10
    189c:	5f657375 	svcpl	0x00657375
    18a0:	69623233 	stmdbvs	r2!, {r0, r1, r4, r5, r9, ip, sp}^
    18a4:	6f635f74 	svcvs	0x00635f74
    18a8:	65746e75 	ldrbvs	r6, [r4, #-3701]!	; 0xe75
    18ac:	6e690072 	mcrvs	0, 3, r0, cr9, cr2, {3}
    18b0:	6e655f74 	mcrvs	15, 3, r5, cr5, cr4, {3}
    18b4:	656c6261 	strbvs	r6, [ip, #-609]!	; 0x261
    18b8:	6f630064 	svcvs	0x00630064
    18bc:	65746e75 	ldrbvs	r6, [r4, #-3701]!	; 0xe75
    18c0:	6e655f72 	mcrvs	15, 3, r5, cr5, cr2, {3}
    18c4:	656c6261 	strbvs	r6, [ip, #-609]!	; 0x261
    18c8:	6f630064 	svcvs	0x00630064
    18cc:	65746e75 	ldrbvs	r6, [r4, #-3701]!	; 0xe75
    18d0:	72705f72 	rsbsvc	r5, r0, #456	; 0x1c8
    18d4:	61637365 	cmnvs	r3, r5, ror #6
    18d8:	0072656c 	rsbseq	r6, r2, ip, ror #10
    18dc:	6362696c 	cmnvs	r2, #108, 18	; 0x1b0000
    18e0:	6d656d2f 	stclvs	13, cr6, [r5, #-188]!	; 0xffffff44
    18e4:	2e746573 	mrccs	5, 3, r6, cr4, cr3, {3}
    18e8:	73630063 	cmnvc	r3, #99	; 0x63
    18ec:	65303431 	ldrvs	r3, [r0, #-1073]!	; 0x431
    18f0:	746e692d 	strbtvc	r6, [lr], #-2349	; 0x92d
    18f4:	75727265 	ldrbvc	r7, [r2, #-613]!	; 0x265
    18f8:	642f7470 	strtvs	r7, [pc], #-1136	; 1900 <_start-0x6700>
    18fc:	75616665 	strbvc	r6, [r1, #-1637]!	; 0x665
    1900:	682d746c 	stmdavs	sp!, {r2, r3, r5, r6, sl, ip, sp, lr}
    1904:	6c646e61 	stclvs	14, cr6, [r4], #-388	; 0xfffffe7c
    1908:	642d7265 	strtvs	r7, [sp], #-613	; 0x265
    190c:	2d617461 	cfstrdcs	mvd7, [r1, #-388]!	; 0xfffffe7c
    1910:	726f6261 	rsbvc	r6, pc, #268435462	; 0x10000006
    1914:	00632e74 	rsbeq	r2, r3, r4, ror lr
    1918:	61746164 	cmnvs	r4, r4, ror #2
    191c:	6f62615f 	svcvs	0x0062615f
    1920:	765f7472 			; <UNDEFINED> instruction: 0x765f7472
    1924:	6f746365 	svcvs	0x00746365
    1928:	73630072 	cmnvc	r3, #114	; 0x72
    192c:	65303431 	ldrvs	r3, [r0, #-1073]!	; 0x431
    1930:	746e692d 	strbtvc	r6, [lr], #-2349	; 0x92d
    1934:	75727265 	ldrbvc	r7, [r2, #-613]!	; 0x265
    1938:	642f7470 	strtvs	r7, [pc], #-1136	; 1940 <_start-0x66c0>
    193c:	75616665 	strbvc	r6, [r1, #-1637]!	; 0x665
    1940:	682d746c 	stmdavs	sp!, {r2, r3, r5, r6, sl, ip, sp, lr}
    1944:	6c646e61 	stclvs	14, cr6, [r4], #-388	; 0xfffffe7c
    1948:	702d7265 	eorvc	r7, sp, r5, ror #4
    194c:	65666572 	strbvs	r6, [r6, #-1394]!	; 0x572
    1950:	2e686374 	mcrcs	3, 3, r6, cr8, cr4, {3}
    1954:	72700063 	rsbsvc	r0, r0, #99	; 0x63
    1958:	74656665 	strbtvc	r6, [r5], #-1637	; 0x665
    195c:	615f6863 	cmpvs	pc, r3, ror #16
    1960:	74726f62 	ldrbtvc	r6, [r2], #-3938	; 0xf62
    1964:	6365765f 	cmnvs	r5, #99614720	; 0x5f00000
    1968:	00726f74 	rsbseq	r6, r2, r4, ror pc
    196c:	65736572 	ldrbvs	r6, [r3, #-1394]!	; 0x572
    1970:	65765f74 	ldrbvs	r5, [r6, #-3956]!	; 0xf74
    1974:	726f7463 	rsbvc	r7, pc, #1660944384	; 0x63000000
    1978:	31736300 	cmncc	r3, r0, lsl #6
    197c:	2d653034 	stclcs	0, cr3, [r5, #-208]!	; 0xffffff30
    1980:	65746e69 	ldrbvs	r6, [r4, #-3689]!	; 0xe69
    1984:	70757272 	rsbsvc	r7, r5, r2, ror r2
    1988:	65642f74 	strbvs	r2, [r4, #-3956]!	; 0xf74
    198c:	6c756166 	ldfvse	f6, [r5], #-408	; 0xfffffe68
    1990:	61682d74 	smcvs	33492	; 0x82d4
    1994:	656c646e 	strbvs	r6, [ip, #-1134]!	; 0x46e
    1998:	65722d72 	ldrbvs	r2, [r2, #-3442]!	; 0xd72
    199c:	2e746573 	mrccs	5, 3, r6, cr4, cr3, {3}
    19a0:	73630063 	cmnvc	r3, #99	; 0x63
    19a4:	65303431 	ldrvs	r3, [r0, #-1073]!	; 0x431
    19a8:	746e692d 	strbtvc	r6, [lr], #-2349	; 0x92d
    19ac:	75727265 	ldrbvc	r7, [r2, #-613]!	; 0x265
    19b0:	642f7470 	strtvs	r7, [pc], #-1136	; 19b8 <_start-0x6648>
    19b4:	75616665 	strbvc	r6, [r1, #-1637]!	; 0x665
    19b8:	682d746c 	stmdavs	sp!, {r2, r3, r5, r6, sl, ip, sp, lr}
    19bc:	6c646e61 	stclvs	14, cr6, [r4], #-388	; 0xfffffe7c
    19c0:	752d7265 	strvc	r7, [sp, #-613]!	; 0x265
    19c4:	6665646e 	strbtvs	r6, [r5], -lr, ror #8
    19c8:	64656e69 	strbtvs	r6, [r5], #-3689	; 0xe69
    19cc:	736e692d 	cmnvc	lr, #737280	; 0xb4000
    19d0:	00632e74 	rsbeq	r2, r3, r4, ror lr
    19d4:	65646e75 	strbvs	r6, [r4, #-3701]!	; 0xe75
    19d8:	656e6966 	strbvs	r6, [lr, #-2406]!	; 0x966
    19dc:	6e695f64 	cdpvs	15, 6, cr5, cr9, cr4, {3}
    19e0:	75727473 	ldrbvc	r7, [r2, #-1139]!	; 0x473
    19e4:	6f697463 	svcvs	0x00697463
    19e8:	65765f6e 	ldrbvs	r5, [r6, #-3950]!	; 0xf6e
    19ec:	726f7463 	rsbvc	r7, pc, #1660944384	; 0x63000000
	...

Disassembly of section .debug_frame:

00000000 <.debug_frame>:
   0:	0000000c 	andeq	r0, r0, ip
   4:	ffffffff 			; <UNDEFINED> instruction: 0xffffffff
   8:	7c020001 	stcvc	0, cr0, [r2], {1}
   c:	000d0c0e 	andeq	r0, sp, lr, lsl #24
  10:	0000000c 	andeq	r0, r0, ip
  14:	00000000 	andeq	r0, r0, r0
  18:	00008010 	andeq	r8, r0, r0, lsl r0
  1c:	00000010 	andeq	r0, r0, r0, lsl r0
  20:	0000000c 	andeq	r0, r0, ip
  24:	00000000 	andeq	r0, r0, r0
  28:	00008020 	andeq	r8, r0, r0, lsr #32
  2c:	0000000c 	andeq	r0, r0, ip
  30:	0000000c 	andeq	r0, r0, ip
  34:	00000000 	andeq	r0, r0, r0
  38:	0000802c 	andeq	r8, r0, ip, lsr #32
  3c:	0000001c 	andeq	r0, r0, ip, lsl r0
  40:	00000020 	andeq	r0, r0, r0, lsr #32
  44:	00000000 	andeq	r0, r0, r0
  48:	00008048 	andeq	r8, r0, r8, asr #32
  4c:	00000068 	andeq	r0, r0, r8, rrx
  50:	42080e42 	andmi	r0, r8, #1056	; 0x420
  54:	0883200e 	stmeq	r3, {r1, r2, r3, sp}
  58:	06850784 	streq	r0, [r5], r4, lsl #15
  5c:	04870586 	streq	r0, [r7], #1414	; 0x586
  60:	0000038e 	andeq	r0, r0, lr, lsl #7
  64:	0000001c 	andeq	r0, r0, ip, lsl r0
  68:	00000000 	andeq	r0, r0, r0
  6c:	000080b0 	strheq	r8, [r0], -r0
  70:	000000b0 	strheq	r0, [r0], -r0	; <UNPREDICTABLE>
  74:	84140e42 	ldrhi	r0, [r4], #-3650	; 0xe42
  78:	86048505 	strhi	r8, [r4], -r5, lsl #10
  7c:	8e028703 	cdphi	7, 0, cr8, cr2, cr3, {0}
  80:	280e4201 	stmdacs	lr, {r0, r9, lr}
  84:	00000018 	andeq	r0, r0, r8, lsl r0
  88:	00000000 	andeq	r0, r0, r0
  8c:	00008160 	andeq	r8, r0, r0, ror #2
  90:	000000f0 	strdeq	r0, [r0], -r0	; <UNPREDICTABLE>
  94:	84100e42 	ldrhi	r0, [r0], #-3650	; 0xe42
  98:	86038504 	strhi	r8, [r3], -r4, lsl #10
  9c:	00018e02 	andeq	r8, r1, r2, lsl #28
  a0:	00000024 	andeq	r0, r0, r4, lsr #32
  a4:	00000000 	andeq	r0, r0, r0
  a8:	00008250 	andeq	r8, r0, r0, asr r2
  ac:	000001b8 			; <UNDEFINED> instruction: 0x000001b8
  b0:	84240e42 	strthi	r0, [r4], #-3650	; 0xe42
  b4:	86088509 	strhi	r8, [r8], -r9, lsl #10
  b8:	88068707 	stmdahi	r6, {r0, r1, r2, r8, r9, sl, pc}
  bc:	8a048905 	bhi	1224d8 <__bss_end__+0x1167f0>
  c0:	8e028b03 	vmlahi.f64	d8, d2, d3
  c4:	400e4201 	andmi	r4, lr, r1, lsl #4
  c8:	0000001c 	andeq	r0, r0, ip, lsl r0
  cc:	00000000 	andeq	r0, r0, r0
  d0:	00008408 	andeq	r8, r0, r8, lsl #8
  d4:	000000b8 	strheq	r0, [r0], -r8
  d8:	84140e42 	ldrhi	r0, [r4], #-3650	; 0xe42
  dc:	86048505 	strhi	r8, [r4], -r5, lsl #10
  e0:	8e028703 	cdphi	7, 0, cr8, cr2, cr3, {0}
  e4:	200e4201 	andcs	r4, lr, r1, lsl #4
  e8:	00000018 	andeq	r0, r0, r8, lsl r0
  ec:	00000000 	andeq	r0, r0, r0
  f0:	000084c0 	andeq	r8, r0, r0, asr #9
  f4:	00000094 	muleq	r0, r4, r0
  f8:	84080e42 	strhi	r0, [r8], #-3650	; 0xe42
  fc:	42018e02 	andmi	r8, r1, #2, 28
 100:	0000180e 	andeq	r1, r0, lr, lsl #16
 104:	00000014 	andeq	r0, r0, r4, lsl r0
 108:	00000000 	andeq	r0, r0, r0
 10c:	00008554 	andeq	r8, r0, r4, asr r5
 110:	0000007c 	andeq	r0, r0, ip, ror r0
 114:	8e040e42 	cdphi	14, 0, cr0, cr4, cr2, {2}
 118:	100e4201 	andne	r4, lr, r1, lsl #4
 11c:	0000001c 	andeq	r0, r0, ip, lsl r0
 120:	00000000 	andeq	r0, r0, r0
 124:	000085d0 	ldrdeq	r8, [r0], -r0
 128:	00000098 	muleq	r0, r8, r0
 12c:	84100e42 	ldrhi	r0, [r0], #-3650	; 0xe42
 130:	86038504 	strhi	r8, [r3], -r4, lsl #10
 134:	42018e02 	andmi	r8, r1, #2, 28
 138:	0000180e 	andeq	r1, r0, lr, lsl #16
 13c:	00000014 	andeq	r0, r0, r4, lsl r0
 140:	00000000 	andeq	r0, r0, r0
 144:	00008668 	andeq	r8, r0, r8, ror #12
 148:	00000088 	andeq	r0, r0, r8, lsl #1
 14c:	83080e42 	movwhi	r0, #36418	; 0x8e42
 150:	00018e02 	andeq	r8, r1, r2, lsl #28
 154:	0000001c 	andeq	r0, r0, ip, lsl r0
 158:	00000000 	andeq	r0, r0, r0
 15c:	000086f0 	strdeq	r8, [r0], -r0
 160:	00000160 	andeq	r0, r0, r0, ror #2
 164:	84140e42 	ldrhi	r0, [r4], #-3650	; 0xe42
 168:	86048505 	strhi	r8, [r4], -r5, lsl #10
 16c:	8e028703 	cdphi	7, 0, cr8, cr2, cr3, {0}
 170:	200e4201 	andcs	r4, lr, r1, lsl #4
 174:	00000014 	andeq	r0, r0, r4, lsl r0
 178:	00000000 	andeq	r0, r0, r0
 17c:	00008850 	andeq	r8, r0, r0, asr r8
 180:	00000028 	andeq	r0, r0, r8, lsr #32
 184:	83080e42 	movwhi	r0, #36418	; 0x8e42
 188:	00018e02 	andeq	r8, r1, r2, lsl #28
 18c:	0000001c 	andeq	r0, r0, ip, lsl r0
 190:	00000000 	andeq	r0, r0, r0
 194:	00008878 	andeq	r8, r0, r8, ror r8
 198:	00000078 	andeq	r0, r0, r8, ror r0
 19c:	84100e42 	ldrhi	r0, [r0], #-3650	; 0xe42
 1a0:	86038504 	strhi	r8, [r3], -r4, lsl #10
 1a4:	42018e02 	andmi	r8, r1, #2, 28
 1a8:	0000180e 	andeq	r1, r0, lr, lsl #16
 1ac:	00000024 	andeq	r0, r0, r4, lsr #32
 1b0:	00000000 	andeq	r0, r0, r0
 1b4:	000088f0 	strdeq	r8, [r0], -r0
 1b8:	00000340 	andeq	r0, r0, r0, asr #6
 1bc:	84240e42 	strthi	r0, [r4], #-3650	; 0xe42
 1c0:	86088509 	strhi	r8, [r8], -r9, lsl #10
 1c4:	88068707 	stmdahi	r6, {r0, r1, r2, r8, r9, sl, pc}
 1c8:	8a048905 	bhi	1225e4 <__bss_end__+0x1168fc>
 1cc:	8e028b03 	vmlahi.f64	d8, d2, d3
 1d0:	700e4201 	andvc	r4, lr, r1, lsl #4
 1d4:	00000014 	andeq	r0, r0, r4, lsl r0
 1d8:	00000000 	andeq	r0, r0, r0
 1dc:	00008c30 	andeq	r8, r0, r0, lsr ip
 1e0:	0000001c 	andeq	r0, r0, ip, lsl r0
 1e4:	83080e42 	movwhi	r0, #36418	; 0x8e42
 1e8:	00018e02 	andeq	r8, r1, r2, lsl #28
 1ec:	0000000c 	andeq	r0, r0, ip
 1f0:	ffffffff 			; <UNDEFINED> instruction: 0xffffffff
 1f4:	7c020001 	stcvc	0, cr0, [r2], {1}
 1f8:	000d0c0e 	andeq	r0, sp, lr, lsl #24
 1fc:	00000018 	andeq	r0, r0, r8, lsl r0
 200:	000001ec 	andeq	r0, r0, ip, ror #3
 204:	00008c4c 	andeq	r8, r0, ip, asr #24
 208:	00000038 	andeq	r0, r0, r8, lsr r0
 20c:	84100e42 	ldrhi	r0, [r0], #-3650	; 0xe42
 210:	86038504 	strhi	r8, [r3], -r4, lsl #10
 214:	00018e02 	andeq	r8, r1, r2, lsl #28
 218:	00000014 	andeq	r0, r0, r4, lsl r0
 21c:	000001ec 	andeq	r0, r0, ip, ror #3
 220:	00008c84 	andeq	r8, r0, r4, lsl #25
 224:	0000013c 	andeq	r0, r0, ip, lsr r1
 228:	84080e42 	strhi	r0, [r8], #-3650	; 0xe42
 22c:	00018e02 	andeq	r8, r1, r2, lsl #28
 230:	0000001c 	andeq	r0, r0, ip, lsl r0
 234:	000001ec 	andeq	r0, r0, ip, ror #3
 238:	00008dc0 	andeq	r8, r0, r0, asr #27
 23c:	00000068 	andeq	r0, r0, r8, rrx
 240:	84180e42 	ldrhi	r0, [r8], #-3650	; 0xe42
 244:	86058506 	strhi	r8, [r5], -r6, lsl #10
 248:	88038704 	stmdahi	r3, {r2, r8, r9, sl, pc}
 24c:	00018e02 	andeq	r8, r1, r2, lsl #28
 250:	00000014 	andeq	r0, r0, r4, lsl r0
 254:	000001ec 	andeq	r0, r0, ip, ror #3
 258:	00008e28 	andeq	r8, r0, r8, lsr #28
 25c:	0000003c 	andeq	r0, r0, ip, lsr r0
 260:	84080e42 	strhi	r0, [r8], #-3650	; 0xe42
 264:	00018e02 	andeq	r8, r1, r2, lsl #28
 268:	00000014 	andeq	r0, r0, r4, lsl r0
 26c:	000001ec 	andeq	r0, r0, ip, ror #3
 270:	00008e64 	andeq	r8, r0, r4, ror #28
 274:	0000003c 	andeq	r0, r0, ip, lsr r0
 278:	84080e42 	strhi	r0, [r8], #-3650	; 0xe42
 27c:	00018e02 	andeq	r8, r1, r2, lsl #28
 280:	0000000c 	andeq	r0, r0, ip
 284:	000001ec 	andeq	r0, r0, ip, ror #3
 288:	00008ea0 	andeq	r8, r0, r0, lsr #29
 28c:	00000008 	andeq	r0, r0, r8
 290:	0000000c 	andeq	r0, r0, ip
 294:	ffffffff 			; <UNDEFINED> instruction: 0xffffffff
 298:	7c020001 	stcvc	0, cr0, [r2], {1}
 29c:	000d0c0e 	andeq	r0, sp, lr, lsl #24
 2a0:	0000000c 	andeq	r0, r0, ip
 2a4:	00000290 	muleq	r0, r0, r2
 2a8:	00008ea8 	andeq	r8, r0, r8, lsr #29
 2ac:	00000008 	andeq	r0, r0, r8
 2b0:	0000000c 	andeq	r0, r0, ip
 2b4:	00000290 	muleq	r0, r0, r2
 2b8:	00008eb0 			; <UNDEFINED> instruction: 0x00008eb0
 2bc:	00000038 	andeq	r0, r0, r8, lsr r0
 2c0:	00000014 	andeq	r0, r0, r4, lsl r0
 2c4:	00000290 	muleq	r0, r0, r2
 2c8:	00008ee8 	andeq	r8, r0, r8, ror #29
 2cc:	00000054 	andeq	r0, r0, r4, asr r0
 2d0:	83080e42 	movwhi	r0, #36418	; 0x8e42
 2d4:	00018e02 	andeq	r8, r1, r2, lsl #28
 2d8:	00000014 	andeq	r0, r0, r4, lsl r0
 2dc:	00000290 	muleq	r0, r0, r2
 2e0:	00008f3c 	andeq	r8, r0, ip, lsr pc
 2e4:	00000098 	muleq	r0, r8, r0
 2e8:	83080e42 	movwhi	r0, #36418	; 0x8e42
 2ec:	00018e02 	andeq	r8, r1, r2, lsl #28
 2f0:	00000018 	andeq	r0, r0, r8, lsl r0
 2f4:	00000290 	muleq	r0, r0, r2
 2f8:	00008fd4 	ldrdeq	r8, [r0], -r4
 2fc:	000000a4 	andeq	r0, r0, r4, lsr #1
 300:	84100e42 	ldrhi	r0, [r0], #-3650	; 0xe42
 304:	86038504 	strhi	r8, [r3], -r4, lsl #10
 308:	00018e02 	andeq	r8, r1, r2, lsl #28
 30c:	00000014 	andeq	r0, r0, r4, lsl r0
 310:	00000290 	muleq	r0, r0, r2
 314:	00009078 	andeq	r9, r0, r8, ror r0
 318:	0000002c 	andeq	r0, r0, ip, lsr #32
 31c:	83080e42 	movwhi	r0, #36418	; 0x8e42
 320:	00018e02 	andeq	r8, r1, r2, lsl #28
 324:	0000001c 	andeq	r0, r0, ip, lsl r0
 328:	00000290 	muleq	r0, r0, r2
 32c:	000090a4 	andeq	r9, r0, r4, lsr #1
 330:	00000048 	andeq	r0, r0, r8, asr #32
 334:	84180e42 	ldrhi	r0, [r8], #-3650	; 0xe42
 338:	86058506 	strhi	r8, [r5], -r6, lsl #10
 33c:	88038704 	stmdahi	r3, {r2, r8, r9, sl, pc}
 340:	00018e02 	andeq	r8, r1, r2, lsl #28
 344:	00000014 	andeq	r0, r0, r4, lsl r0
 348:	00000290 	muleq	r0, r0, r2
 34c:	000090ec 	andeq	r9, r0, ip, ror #1
 350:	00000010 	andeq	r0, r0, r0, lsl r0
 354:	83080e42 	movwhi	r0, #36418	; 0x8e42
 358:	00018e02 	andeq	r8, r1, r2, lsl #28
 35c:	00000024 	andeq	r0, r0, r4, lsr #32
 360:	00000290 	muleq	r0, r0, r2
 364:	000090fc 	strdeq	r9, [r0], -ip
 368:	000000f0 	strdeq	r0, [r0], -r0	; <UNPREDICTABLE>
 36c:	83280e42 	teqhi	r8, #1056	; 0x420
 370:	8509840a 	strhi	r8, [r9, #-1034]	; 0x40a
 374:	87078608 	strhi	r8, [r7, -r8, lsl #12]
 378:	89058806 	stmdbhi	r5, {r1, r2, fp, pc}
 37c:	8b038a04 	blhi	e2b94 <__bss_end__+0xd6eac>
 380:	00018e02 	andeq	r8, r1, r2, lsl #28
 384:	00000014 	andeq	r0, r0, r4, lsl r0
 388:	00000290 	muleq	r0, r0, r2
 38c:	000091ec 	andeq	r9, r0, ip, ror #3
 390:	0000000c 	andeq	r0, r0, ip
 394:	83080e42 	movwhi	r0, #36418	; 0x8e42
 398:	00018e02 	andeq	r8, r1, r2, lsl #28
 39c:	0000000c 	andeq	r0, r0, ip
 3a0:	00000290 	muleq	r0, r0, r2
 3a4:	000091f8 	strdeq	r9, [r0], -r8
 3a8:	00000014 	andeq	r0, r0, r4, lsl r0
 3ac:	0000000c 	andeq	r0, r0, ip
 3b0:	00000290 	muleq	r0, r0, r2
 3b4:	0000920c 	andeq	r9, r0, ip, lsl #4
 3b8:	00000014 	andeq	r0, r0, r4, lsl r0
 3bc:	0000000c 	andeq	r0, r0, ip
 3c0:	ffffffff 			; <UNDEFINED> instruction: 0xffffffff
 3c4:	7c020001 	stcvc	0, cr0, [r2], {1}
 3c8:	000d0c0e 	andeq	r0, sp, lr, lsl #24
 3cc:	0000000c 	andeq	r0, r0, ip
 3d0:	000003bc 			; <UNDEFINED> instruction: 0x000003bc
 3d4:	00009220 	andeq	r9, r0, r0, lsr #4
 3d8:	00000014 	andeq	r0, r0, r4, lsl r0
 3dc:	0000000c 	andeq	r0, r0, ip
 3e0:	000003bc 			; <UNDEFINED> instruction: 0x000003bc
 3e4:	00009234 	andeq	r9, r0, r4, lsr r2
 3e8:	0000000c 	andeq	r0, r0, ip
 3ec:	00000014 	andeq	r0, r0, r4, lsl r0
 3f0:	000003bc 			; <UNDEFINED> instruction: 0x000003bc
 3f4:	00009240 	andeq	r9, r0, r0, asr #4
 3f8:	00000008 	andeq	r0, r0, r8
 3fc:	8e040e42 	cdphi	14, 0, cr0, cr4, cr2, {2}
 400:	00000001 	andeq	r0, r0, r1
 404:	00000014 	andeq	r0, r0, r4, lsl r0
 408:	000003bc 			; <UNDEFINED> instruction: 0x000003bc
 40c:	00009248 	andeq	r9, r0, r8, asr #4
 410:	000000f0 	strdeq	r0, [r0], -r0	; <UNPREDICTABLE>
 414:	84080e42 	strhi	r0, [r8], #-3650	; 0xe42
 418:	00018e02 	andeq	r8, r1, r2, lsl #28
 41c:	00000014 	andeq	r0, r0, r4, lsl r0
 420:	000003bc 			; <UNDEFINED> instruction: 0x000003bc
 424:	00009338 	andeq	r9, r0, r8, lsr r3
 428:	00000010 	andeq	r0, r0, r0, lsl r0
 42c:	84080e42 	strhi	r0, [r8], #-3650	; 0xe42
 430:	00018e02 	andeq	r8, r1, r2, lsl #28
 434:	00000014 	andeq	r0, r0, r4, lsl r0
 438:	000003bc 			; <UNDEFINED> instruction: 0x000003bc
 43c:	00009348 	andeq	r9, r0, r8, asr #6
 440:	00000028 	andeq	r0, r0, r8, lsr #32
 444:	84080e42 	strhi	r0, [r8], #-3650	; 0xe42
 448:	00018e02 	andeq	r8, r1, r2, lsl #28
 44c:	00000014 	andeq	r0, r0, r4, lsl r0
 450:	000003bc 			; <UNDEFINED> instruction: 0x000003bc
 454:	00009370 	andeq	r9, r0, r0, ror r3
 458:	00000010 	andeq	r0, r0, r0, lsl r0
 45c:	84080e42 	strhi	r0, [r8], #-3650	; 0xe42
 460:	00018e02 	andeq	r8, r1, r2, lsl #28
 464:	00000018 	andeq	r0, r0, r8, lsl r0
 468:	000003bc 			; <UNDEFINED> instruction: 0x000003bc
 46c:	00009380 	andeq	r9, r0, r0, lsl #7
 470:	000001c8 	andeq	r0, r0, r8, asr #3
 474:	84100e42 	ldrhi	r0, [r0], #-3650	; 0xe42
 478:	86038504 	strhi	r8, [r3], -r4, lsl #10
 47c:	00018e02 	andeq	r8, r1, r2, lsl #28
 480:	00000018 	andeq	r0, r0, r8, lsl r0
 484:	000003bc 			; <UNDEFINED> instruction: 0x000003bc
 488:	00009548 	andeq	r9, r0, r8, asr #10
 48c:	000000c4 	andeq	r0, r0, r4, asr #1
 490:	84100e42 	ldrhi	r0, [r0], #-3650	; 0xe42
 494:	86038504 	strhi	r8, [r3], -r4, lsl #10
 498:	00018e02 	andeq	r8, r1, r2, lsl #28
 49c:	00000018 	andeq	r0, r0, r8, lsl r0
 4a0:	000003bc 			; <UNDEFINED> instruction: 0x000003bc
 4a4:	0000960c 	andeq	r9, r0, ip, lsl #12
 4a8:	000000c0 	andeq	r0, r0, r0, asr #1
 4ac:	84100e42 	ldrhi	r0, [r0], #-3650	; 0xe42
 4b0:	86038504 	strhi	r8, [r3], -r4, lsl #10
 4b4:	00018e02 	andeq	r8, r1, r2, lsl #28
 4b8:	0000000c 	andeq	r0, r0, ip
 4bc:	000003bc 			; <UNDEFINED> instruction: 0x000003bc
 4c0:	000096cc 	andeq	r9, r0, ip, asr #13
 4c4:	00000010 	andeq	r0, r0, r0, lsl r0
 4c8:	00000014 	andeq	r0, r0, r4, lsl r0
 4cc:	000003bc 			; <UNDEFINED> instruction: 0x000003bc
 4d0:	000096dc 	ldrdeq	r9, [r0], -ip
 4d4:	00000094 	muleq	r0, r4, r0
 4d8:	84080e42 	strhi	r0, [r8], #-3650	; 0xe42
 4dc:	00018e02 	andeq	r8, r1, r2, lsl #28
 4e0:	00000014 	andeq	r0, r0, r4, lsl r0
 4e4:	000003bc 			; <UNDEFINED> instruction: 0x000003bc
 4e8:	00009770 	andeq	r9, r0, r0, ror r7
 4ec:	00000018 	andeq	r0, r0, r8, lsl r0
 4f0:	84080e42 	strhi	r0, [r8], #-3650	; 0xe42
 4f4:	00018e02 	andeq	r8, r1, r2, lsl #28
 4f8:	0000000c 	andeq	r0, r0, ip
 4fc:	ffffffff 			; <UNDEFINED> instruction: 0xffffffff
 500:	7c020001 	stcvc	0, cr0, [r2], {1}
 504:	000d0c0e 	andeq	r0, sp, lr, lsl #24
 508:	00000024 	andeq	r0, r0, r4, lsr #32
 50c:	000004f8 	strdeq	r0, [r0], -r8
 510:	00009788 	andeq	r9, r0, r8, lsl #15
 514:	00000058 	andeq	r0, r0, r8, asr r0
 518:	80100e42 	andshi	r0, r0, r2, asr #28
 51c:	82038104 	andhi	r8, r3, #4, 2
 520:	42018302 	andmi	r8, r1, #134217728	; 0x8000000
 524:	07841c0e 	streq	r1, [r4, lr, lsl #24]
 528:	058e0685 	streq	r0, [lr, #1669]	; 0x685
 52c:	00280e42 	eoreq	r0, r8, r2, asr #28
 530:	0000000c 	andeq	r0, r0, ip
 534:	ffffffff 			; <UNDEFINED> instruction: 0xffffffff
 538:	7c020001 	stcvc	0, cr0, [r2], {1}
 53c:	000d0c0e 	andeq	r0, sp, lr, lsl #24
 540:	00000014 	andeq	r0, r0, r4, lsl r0
 544:	00000530 	andeq	r0, r0, r0, lsr r5
 548:	000097e0 	andeq	r9, r0, r0, ror #15
 54c:	00000014 	andeq	r0, r0, r4, lsl r0
 550:	84080e42 	strhi	r0, [r8], #-3650	; 0xe42
 554:	00018e02 	andeq	r8, r1, r2, lsl #28
 558:	0000000c 	andeq	r0, r0, ip
 55c:	00000530 	andeq	r0, r0, r0, lsr r5
 560:	000097f4 	strdeq	r9, [r0], -r4
 564:	00000018 	andeq	r0, r0, r8, lsl r0
 568:	0000000c 	andeq	r0, r0, ip
 56c:	00000530 	andeq	r0, r0, r0, lsr r5
 570:	0000980c 	andeq	r9, r0, ip, lsl #16
 574:	00000010 	andeq	r0, r0, r0, lsl r0
 578:	0000000c 	andeq	r0, r0, ip
 57c:	ffffffff 			; <UNDEFINED> instruction: 0xffffffff
 580:	7c020001 	stcvc	0, cr0, [r2], {1}
 584:	000d0c0e 	andeq	r0, sp, lr, lsl #24
 588:	00000018 	andeq	r0, r0, r8, lsl r0
 58c:	00000578 	andeq	r0, r0, r8, ror r5
 590:	0000981c 	andeq	r9, r0, ip, lsl r8
 594:	00000034 	andeq	r0, r0, r4, lsr r0
 598:	83100e42 	tsthi	r0, #1056	; 0x420
 59c:	85038404 	strhi	r8, [r3, #-1028]	; 0x404
 5a0:	00018e02 	andeq	r8, r1, r2, lsl #28
 5a4:	0000000c 	andeq	r0, r0, ip
 5a8:	ffffffff 			; <UNDEFINED> instruction: 0xffffffff
 5ac:	7c020001 	stcvc	0, cr0, [r2], {1}
 5b0:	000d0c0e 	andeq	r0, sp, lr, lsl #24
 5b4:	0000000c 	andeq	r0, r0, ip
 5b8:	000005a4 	andeq	r0, r0, r4, lsr #11
 5bc:	00009850 	andeq	r9, r0, r0, asr r8
 5c0:	00000014 	andeq	r0, r0, r4, lsl r0
 5c4:	0000000c 	andeq	r0, r0, ip
 5c8:	000005a4 	andeq	r0, r0, r4, lsr #11
 5cc:	00009864 	andeq	r9, r0, r4, ror #16
 5d0:	0000002c 	andeq	r0, r0, ip, lsr #32
 5d4:	0000000c 	andeq	r0, r0, ip
 5d8:	000005a4 	andeq	r0, r0, r4, lsr #11
 5dc:	00009890 	muleq	r0, r0, r8
 5e0:	00000040 	andeq	r0, r0, r0, asr #32
 5e4:	00000020 	andeq	r0, r0, r0, lsr #32
 5e8:	000005a4 	andeq	r0, r0, r4, lsr #11
 5ec:	000098d0 	ldrdeq	r9, [r0], -r0
 5f0:	0000019c 	muleq	r0, ip, r1
 5f4:	84180e42 	ldrhi	r0, [r8], #-3650	; 0xe42
 5f8:	86058506 	strhi	r8, [r5], -r6, lsl #10
 5fc:	88038704 	stmdahi	r3, {r2, r8, r9, sl, pc}
 600:	42018e02 	andmi	r8, r1, #2, 28
 604:	0000580e 	andeq	r5, r0, lr, lsl #16
 608:	00000014 	andeq	r0, r0, r4, lsl r0
 60c:	000005a4 	andeq	r0, r0, r4, lsr #11
 610:	00009a6c 	andeq	r9, r0, ip, ror #20
 614:	00000054 	andeq	r0, r0, r4, asr r0
 618:	83080e42 	movwhi	r0, #36418	; 0x8e42
 61c:	00018e02 	andeq	r8, r1, r2, lsl #28
 620:	00000028 	andeq	r0, r0, r8, lsr #32
 624:	000005a4 	andeq	r0, r0, r4, lsr #11
 628:	00009ac0 	andeq	r9, r0, r0, asr #21
 62c:	00000288 	andeq	r0, r0, r8, lsl #5
 630:	84240e42 	strthi	r0, [r4], #-3650	; 0xe42
 634:	86088509 	strhi	r8, [r8], -r9, lsl #10
 638:	88068707 	stmdahi	r6, {r0, r1, r2, r8, r9, sl, pc}
 63c:	8a048905 	bhi	122a58 <__bss_end__+0x116d70>
 640:	8e028b03 	vmlahi.f64	d8, d2, d3
 644:	b00e4201 	andlt	r4, lr, r1, lsl #4
 648:	00000001 	andeq	r0, r0, r1
 64c:	0000000c 	andeq	r0, r0, ip
 650:	ffffffff 			; <UNDEFINED> instruction: 0xffffffff
 654:	7c020001 	stcvc	0, cr0, [r2], {1}
 658:	000d0c0e 	andeq	r0, sp, lr, lsl #24
 65c:	00000014 	andeq	r0, r0, r4, lsl r0
 660:	0000064c 	andeq	r0, r0, ip, asr #12
 664:	00009d48 	andeq	r9, r0, r8, asr #26
 668:	00000028 	andeq	r0, r0, r8, lsr #32
 66c:	83080e42 	movwhi	r0, #36418	; 0x8e42
 670:	00018e02 	andeq	r8, r1, r2, lsl #28
 674:	0000000c 	andeq	r0, r0, ip
 678:	ffffffff 			; <UNDEFINED> instruction: 0xffffffff
 67c:	7c020001 	stcvc	0, cr0, [r2], {1}
 680:	000d0c0e 	andeq	r0, sp, lr, lsl #24
 684:	00000014 	andeq	r0, r0, r4, lsl r0
 688:	00000674 	andeq	r0, r0, r4, ror r6
 68c:	00009d70 	andeq	r9, r0, r0, ror sp
 690:	00000034 	andeq	r0, r0, r4, lsr r0
 694:	83080e42 	movwhi	r0, #36418	; 0x8e42
 698:	00018e02 	andeq	r8, r1, r2, lsl #28
 69c:	0000000c 	andeq	r0, r0, ip
 6a0:	ffffffff 			; <UNDEFINED> instruction: 0xffffffff
 6a4:	7c020001 	stcvc	0, cr0, [r2], {1}
 6a8:	000d0c0e 	andeq	r0, sp, lr, lsl #24
 6ac:	0000000c 	andeq	r0, r0, ip
 6b0:	0000069c 	muleq	r0, ip, r6
 6b4:	00009da4 	andeq	r9, r0, r4, lsr #27
 6b8:	00000018 	andeq	r0, r0, r8, lsl r0
 6bc:	0000000c 	andeq	r0, r0, ip
 6c0:	0000069c 	muleq	r0, ip, r6
 6c4:	00009dbc 			; <UNDEFINED> instruction: 0x00009dbc
 6c8:	00000014 	andeq	r0, r0, r4, lsl r0
 6cc:	00000014 	andeq	r0, r0, r4, lsl r0
 6d0:	0000069c 	muleq	r0, ip, r6
 6d4:	00009dd0 	ldrdeq	r9, [r0], -r0
 6d8:	00000048 	andeq	r0, r0, r8, asr #32
 6dc:	83080e42 	movwhi	r0, #36418	; 0x8e42
 6e0:	00018e02 	andeq	r8, r1, r2, lsl #28
 6e4:	0000000c 	andeq	r0, r0, ip
 6e8:	ffffffff 			; <UNDEFINED> instruction: 0xffffffff
 6ec:	7c020001 	stcvc	0, cr0, [r2], {1}
 6f0:	000d0c0e 	andeq	r0, sp, lr, lsl #24
 6f4:	0000000c 	andeq	r0, r0, ip
 6f8:	000006e4 	andeq	r0, r0, r4, ror #13
 6fc:	00009e18 	andeq	r9, r0, r8, lsl lr
 700:	0000001c 	andeq	r0, r0, ip, lsl r0
 704:	00000014 	andeq	r0, r0, r4, lsl r0
 708:	000006e4 	andeq	r0, r0, r4, ror #13
 70c:	00009e34 	andeq	r9, r0, r4, lsr lr
 710:	00000014 	andeq	r0, r0, r4, lsl r0
 714:	83080e42 	movwhi	r0, #36418	; 0x8e42
 718:	00018e02 	andeq	r8, r1, r2, lsl #28
 71c:	00000014 	andeq	r0, r0, r4, lsl r0
 720:	000006e4 	andeq	r0, r0, r4, ror #13
 724:	00009e48 	andeq	r9, r0, r8, asr #28
 728:	0000000c 	andeq	r0, r0, ip
 72c:	83080e42 	movwhi	r0, #36418	; 0x8e42
 730:	00018e02 	andeq	r8, r1, r2, lsl #28
 734:	00000018 	andeq	r0, r0, r8, lsl r0
 738:	000006e4 	andeq	r0, r0, r4, ror #13
 73c:	00009e54 	andeq	r9, r0, r4, asr lr
 740:	00000024 	andeq	r0, r0, r4, lsr #32
 744:	83100e42 	tsthi	r0, #1056	; 0x420
 748:	85038404 	strhi	r8, [r3, #-1028]	; 0x404
 74c:	00018e02 	andeq	r8, r1, r2, lsl #28
 750:	00000014 	andeq	r0, r0, r4, lsl r0
 754:	000006e4 	andeq	r0, r0, r4, ror #13
 758:	00009e78 	andeq	r9, r0, r8, ror lr
 75c:	00000014 	andeq	r0, r0, r4, lsl r0
 760:	83080e42 	movwhi	r0, #36418	; 0x8e42
 764:	00018e02 	andeq	r8, r1, r2, lsl #28
 768:	00000014 	andeq	r0, r0, r4, lsl r0
 76c:	000006e4 	andeq	r0, r0, r4, ror #13
 770:	00009e8c 	andeq	r9, r0, ip, lsl #29
 774:	00000014 	andeq	r0, r0, r4, lsl r0
 778:	83080e42 	movwhi	r0, #36418	; 0x8e42
 77c:	00018e02 	andeq	r8, r1, r2, lsl #28
 780:	0000000c 	andeq	r0, r0, ip
 784:	ffffffff 			; <UNDEFINED> instruction: 0xffffffff
 788:	7c020001 	stcvc	0, cr0, [r2], {1}
 78c:	000d0c0e 	andeq	r0, sp, lr, lsl #24
 790:	00000018 	andeq	r0, r0, r8, lsl r0
 794:	00000780 	andeq	r0, r0, r0, lsl #15
 798:	00009ea0 	andeq	r9, r0, r0, lsr #29
 79c:	000000d4 	ldrdeq	r0, [r0], -r4
 7a0:	83100e42 	tsthi	r0, #1056	; 0x420
 7a4:	85038404 	strhi	r8, [r3, #-1028]	; 0x404
 7a8:	00018e02 	andeq	r8, r1, r2, lsl #28
 7ac:	00000014 	andeq	r0, r0, r4, lsl r0
 7b0:	00000780 	andeq	r0, r0, r0, lsl #15
 7b4:	00009f74 	andeq	r9, r0, r4, ror pc
 7b8:	00000038 	andeq	r0, r0, r8, lsr r0
 7bc:	83080e42 	movwhi	r0, #36418	; 0x8e42
 7c0:	00018e02 	andeq	r8, r1, r2, lsl #28
 7c4:	00000014 	andeq	r0, r0, r4, lsl r0
 7c8:	00000780 	andeq	r0, r0, r0, lsl #15
 7cc:	00009fac 	andeq	r9, r0, ip, lsr #31
 7d0:	00000038 	andeq	r0, r0, r8, lsr r0
 7d4:	83080e42 	movwhi	r0, #36418	; 0x8e42
 7d8:	00018e02 	andeq	r8, r1, r2, lsl #28
 7dc:	00000018 	andeq	r0, r0, r8, lsl r0
 7e0:	00000780 	andeq	r0, r0, r0, lsl #15
 7e4:	00009fe4 	andeq	r9, r0, r4, ror #31
 7e8:	000000cc 	andeq	r0, r0, ip, asr #1
 7ec:	83100e42 	tsthi	r0, #1056	; 0x420
 7f0:	85038404 	strhi	r8, [r3, #-1028]	; 0x404
 7f4:	00018e02 	andeq	r8, r1, r2, lsl #28
 7f8:	00000014 	andeq	r0, r0, r4, lsl r0
 7fc:	00000780 	andeq	r0, r0, r0, lsl #15
 800:	0000a0b0 	strheq	sl, [r0], -r0
 804:	0000004c 	andeq	r0, r0, ip, asr #32
 808:	84080e42 	strhi	r0, [r8], #-3650	; 0xe42
 80c:	00018e02 	andeq	r8, r1, r2, lsl #28
 810:	00000014 	andeq	r0, r0, r4, lsl r0
 814:	00000780 	andeq	r0, r0, r0, lsl #15
 818:	0000a0fc 	strdeq	sl, [r0], -ip
 81c:	00000024 	andeq	r0, r0, r4, lsr #32
 820:	83080e42 	movwhi	r0, #36418	; 0x8e42
 824:	00018e02 	andeq	r8, r1, r2, lsl #28
 828:	00000018 	andeq	r0, r0, r8, lsl r0
 82c:	00000780 	andeq	r0, r0, r0, lsl #15
 830:	0000a120 	andeq	sl, r0, r0, lsr #2
 834:	000000d8 	ldrdeq	r0, [r0], -r8
 838:	84100e42 	ldrhi	r0, [r0], #-3650	; 0xe42
 83c:	86038504 	strhi	r8, [r3], -r4, lsl #10
 840:	00018e02 	andeq	r8, r1, r2, lsl #28
 844:	00000014 	andeq	r0, r0, r4, lsl r0
 848:	00000780 	andeq	r0, r0, r0, lsl #15
 84c:	0000a1f8 	strdeq	sl, [r0], -r8
 850:	00000038 	andeq	r0, r0, r8, lsr r0
 854:	83080e42 	movwhi	r0, #36418	; 0x8e42
 858:	00018e02 	andeq	r8, r1, r2, lsl #28
 85c:	00000014 	andeq	r0, r0, r4, lsl r0
 860:	00000780 	andeq	r0, r0, r0, lsl #15
 864:	0000a230 	andeq	sl, r0, r0, lsr r2
 868:	0000002c 	andeq	r0, r0, ip, lsr #32
 86c:	83080e42 	movwhi	r0, #36418	; 0x8e42
 870:	00018e02 	andeq	r8, r1, r2, lsl #28
 874:	00000018 	andeq	r0, r0, r8, lsl r0
 878:	00000780 	andeq	r0, r0, r0, lsl #15
 87c:	0000a25c 	andeq	sl, r0, ip, asr r2
 880:	00000084 	andeq	r0, r0, r4, lsl #1
 884:	83100e42 	tsthi	r0, #1056	; 0x420
 888:	85038404 	strhi	r8, [r3, #-1028]	; 0x404
 88c:	00018e02 	andeq	r8, r1, r2, lsl #28
 890:	00000018 	andeq	r0, r0, r8, lsl r0
 894:	00000780 	andeq	r0, r0, r0, lsl #15
 898:	0000a2e0 	andeq	sl, r0, r0, ror #5
 89c:	00000084 	andeq	r0, r0, r4, lsl #1
 8a0:	83100e42 	tsthi	r0, #1056	; 0x420
 8a4:	85038404 	strhi	r8, [r3, #-1028]	; 0x404
 8a8:	00018e02 	andeq	r8, r1, r2, lsl #28
 8ac:	00000014 	andeq	r0, r0, r4, lsl r0
 8b0:	00000780 	andeq	r0, r0, r0, lsl #15
 8b4:	0000a364 	andeq	sl, r0, r4, ror #6
 8b8:	00000084 	andeq	r0, r0, r4, lsl #1
 8bc:	84080e42 	strhi	r0, [r8], #-3650	; 0xe42
 8c0:	00018e02 	andeq	r8, r1, r2, lsl #28
 8c4:	00000014 	andeq	r0, r0, r4, lsl r0
 8c8:	00000780 	andeq	r0, r0, r0, lsl #15
 8cc:	0000a3e8 	andeq	sl, r0, r8, ror #7
 8d0:	00000058 	andeq	r0, r0, r8, asr r0
 8d4:	84080e42 	strhi	r0, [r8], #-3650	; 0xe42
 8d8:	00018e02 	andeq	r8, r1, r2, lsl #28
 8dc:	0000000c 	andeq	r0, r0, ip
 8e0:	ffffffff 			; <UNDEFINED> instruction: 0xffffffff
 8e4:	7c020001 	stcvc	0, cr0, [r2], {1}
 8e8:	000d0c0e 	andeq	r0, sp, lr, lsl #24
 8ec:	00000018 	andeq	r0, r0, r8, lsl r0
 8f0:	000008dc 	ldrdeq	r0, [r0], -ip
 8f4:	0000a440 	andeq	sl, r0, r0, asr #8
 8f8:	00000074 	andeq	r0, r0, r4, ror r0
 8fc:	84100e42 	ldrhi	r0, [r0], #-3650	; 0xe42
 900:	86038504 	strhi	r8, [r3], -r4, lsl #10
 904:	00018e02 	andeq	r8, r1, r2, lsl #28
 908:	00000014 	andeq	r0, r0, r4, lsl r0
 90c:	000008dc 	ldrdeq	r0, [r0], -ip
 910:	0000a4b4 			; <UNDEFINED> instruction: 0x0000a4b4
 914:	0000009c 	muleq	r0, ip, r0
 918:	83080e42 	movwhi	r0, #36418	; 0x8e42
 91c:	00018e02 	andeq	r8, r1, r2, lsl #28
 920:	00000014 	andeq	r0, r0, r4, lsl r0
 924:	000008dc 	ldrdeq	r0, [r0], -ip
 928:	0000a550 	andeq	sl, r0, r0, asr r5
 92c:	0000005c 	andeq	r0, r0, ip, asr r0
 930:	83080e42 	movwhi	r0, #36418	; 0x8e42
 934:	00018e02 	andeq	r8, r1, r2, lsl #28
 938:	0000000c 	andeq	r0, r0, ip
 93c:	000008dc 	ldrdeq	r0, [r0], -ip
 940:	0000a5ac 	andeq	sl, r0, ip, lsr #11
 944:	00000018 	andeq	r0, r0, r8, lsl r0
 948:	0000000c 	andeq	r0, r0, ip
 94c:	000008dc 	ldrdeq	r0, [r0], -ip
 950:	0000a5c4 	andeq	sl, r0, r4, asr #11
 954:	00000010 	andeq	r0, r0, r0, lsl r0
 958:	00000014 	andeq	r0, r0, r4, lsl r0
 95c:	000008dc 	ldrdeq	r0, [r0], -ip
 960:	0000a5d4 	ldrdeq	sl, [r0], -r4
 964:	00000054 	andeq	r0, r0, r4, asr r0
 968:	83080e42 	movwhi	r0, #36418	; 0x8e42
 96c:	00018e02 	andeq	r8, r1, r2, lsl #28
 970:	0000000c 	andeq	r0, r0, ip
 974:	ffffffff 			; <UNDEFINED> instruction: 0xffffffff
 978:	7c020001 	stcvc	0, cr0, [r2], {1}
 97c:	000d0c0e 	andeq	r0, sp, lr, lsl #24
 980:	00000018 	andeq	r0, r0, r8, lsl r0
 984:	00000970 	andeq	r0, r0, r0, ror r9
 988:	0000a628 	andeq	sl, r0, r8, lsr #12
 98c:	0000009c 	muleq	r0, ip, r0
 990:	83100e42 	tsthi	r0, #1056	; 0x420
 994:	85038404 	strhi	r8, [r3, #-1028]	; 0x404
 998:	00018e02 	andeq	r8, r1, r2, lsl #28
 99c:	00000014 	andeq	r0, r0, r4, lsl r0
 9a0:	00000970 	andeq	r0, r0, r0, ror r9
 9a4:	0000a6c4 	andeq	sl, r0, r4, asr #13
 9a8:	0000001c 	andeq	r0, r0, ip, lsl r0
 9ac:	83080e42 	movwhi	r0, #36418	; 0x8e42
 9b0:	00018e02 	andeq	r8, r1, r2, lsl #28
 9b4:	00000014 	andeq	r0, r0, r4, lsl r0
 9b8:	00000970 	andeq	r0, r0, r0, ror r9
 9bc:	0000a6e0 	andeq	sl, r0, r0, ror #13
 9c0:	00000028 	andeq	r0, r0, r8, lsr #32
 9c4:	83080e42 	movwhi	r0, #36418	; 0x8e42
 9c8:	00018e02 	andeq	r8, r1, r2, lsl #28
 9cc:	00000014 	andeq	r0, r0, r4, lsl r0
 9d0:	00000970 	andeq	r0, r0, r0, ror r9
 9d4:	0000a708 	andeq	sl, r0, r8, lsl #14
 9d8:	0000001c 	andeq	r0, r0, ip, lsl r0
 9dc:	83080e42 	movwhi	r0, #36418	; 0x8e42
 9e0:	00018e02 	andeq	r8, r1, r2, lsl #28
 9e4:	00000014 	andeq	r0, r0, r4, lsl r0
 9e8:	00000970 	andeq	r0, r0, r0, ror r9
 9ec:	0000a724 	andeq	sl, r0, r4, lsr #14
 9f0:	0000002c 	andeq	r0, r0, ip, lsr #32
 9f4:	84080e42 	strhi	r0, [r8], #-3650	; 0xe42
 9f8:	00018e02 	andeq	r8, r1, r2, lsl #28
 9fc:	00000014 	andeq	r0, r0, r4, lsl r0
 a00:	00000970 	andeq	r0, r0, r0, ror r9
 a04:	0000a750 	andeq	sl, r0, r0, asr r7
 a08:	0000000c 	andeq	r0, r0, ip
 a0c:	83080e42 	movwhi	r0, #36418	; 0x8e42
 a10:	00018e02 	andeq	r8, r1, r2, lsl #28
 a14:	00000014 	andeq	r0, r0, r4, lsl r0
 a18:	00000970 	andeq	r0, r0, r0, ror r9
 a1c:	0000a75c 	andeq	sl, r0, ip, asr r7
 a20:	00000020 	andeq	r0, r0, r0, lsr #32
 a24:	83080e42 	movwhi	r0, #36418	; 0x8e42
 a28:	00018e02 	andeq	r8, r1, r2, lsl #28
 a2c:	0000000c 	andeq	r0, r0, ip
 a30:	ffffffff 			; <UNDEFINED> instruction: 0xffffffff
 a34:	7c020001 	stcvc	0, cr0, [r2], {1}
 a38:	000d0c0e 	andeq	r0, sp, lr, lsl #24
 a3c:	00000014 	andeq	r0, r0, r4, lsl r0
 a40:	00000a2c 	andeq	r0, r0, ip, lsr #20
 a44:	0000a77c 	andeq	sl, r0, ip, ror r7
 a48:	00000068 	andeq	r0, r0, r8, rrx
 a4c:	83080e42 	movwhi	r0, #36418	; 0x8e42
 a50:	00018e02 	andeq	r8, r1, r2, lsl #28
 a54:	00000014 	andeq	r0, r0, r4, lsl r0
 a58:	00000a2c 	andeq	r0, r0, ip, lsr #20
 a5c:	0000a7e4 	andeq	sl, r0, r4, ror #15
 a60:	00000044 	andeq	r0, r0, r4, asr #32
 a64:	8e040e42 	cdphi	14, 0, cr0, cr4, cr2, {2}
 a68:	100e4201 	andne	r4, lr, r1, lsl #4
 a6c:	0000000c 	andeq	r0, r0, ip
 a70:	ffffffff 			; <UNDEFINED> instruction: 0xffffffff
 a74:	7c020001 	stcvc	0, cr0, [r2], {1}
 a78:	000d0c0e 	andeq	r0, sp, lr, lsl #24
 a7c:	00000014 	andeq	r0, r0, r4, lsl r0
 a80:	00000a6c 	andeq	r0, r0, ip, ror #20
 a84:	0000a828 	andeq	sl, r0, r8, lsr #16
 a88:	0000001c 	andeq	r0, r0, ip, lsl r0
 a8c:	8e040e42 	cdphi	14, 0, cr0, cr4, cr2, {2}
 a90:	200e4201 	andcs	r4, lr, r1, lsl #4
 a94:	00000014 	andeq	r0, r0, r4, lsl r0
 a98:	00000a6c 	andeq	r0, r0, ip, ror #20
 a9c:	0000a844 	andeq	sl, r0, r4, asr #16
 aa0:	00000040 	andeq	r0, r0, r0, asr #32
 aa4:	84080e42 	strhi	r0, [r8], #-3650	; 0xe42
 aa8:	00018e02 	andeq	r8, r1, r2, lsl #28
 aac:	0000000c 	andeq	r0, r0, ip
 ab0:	ffffffff 			; <UNDEFINED> instruction: 0xffffffff
 ab4:	7c020001 	stcvc	0, cr0, [r2], {1}
 ab8:	000d0c0e 	andeq	r0, sp, lr, lsl #24
 abc:	0000000c 	andeq	r0, r0, ip
 ac0:	00000aac 	andeq	r0, r0, ip, lsr #21
 ac4:	0000a9d4 	ldrdeq	sl, [r0], -r4
 ac8:	00000020 	andeq	r0, r0, r0, lsr #32
 acc:	0000000c 	andeq	r0, r0, ip
 ad0:	ffffffff 			; <UNDEFINED> instruction: 0xffffffff
 ad4:	7c020001 	stcvc	0, cr0, [r2], {1}
 ad8:	000d0c0e 	andeq	r0, sp, lr, lsl #24
 adc:	00000014 	andeq	r0, r0, r4, lsl r0
 ae0:	00000acc 	andeq	r0, r0, ip, asr #21
 ae4:	0000a9f4 	strdeq	sl, [r0], -r4
 ae8:	00000044 	andeq	r0, r0, r4, asr #32
 aec:	8e040e42 	cdphi	14, 0, cr0, cr4, cr2, {2}
 af0:	100e4201 	andne	r4, lr, r1, lsl #4
 af4:	0000000c 	andeq	r0, r0, ip
 af8:	ffffffff 			; <UNDEFINED> instruction: 0xffffffff
 afc:	7c020001 	stcvc	0, cr0, [r2], {1}
 b00:	000d0c0e 	andeq	r0, sp, lr, lsl #24
 b04:	00000014 	andeq	r0, r0, r4, lsl r0
 b08:	00000af4 	strdeq	r0, [r0], -r4
 b0c:	0000aa38 	andeq	sl, r0, r8, lsr sl
 b10:	00000044 	andeq	r0, r0, r4, asr #32
 b14:	8e040e42 	cdphi	14, 0, cr0, cr4, cr2, {2}
 b18:	100e4201 	andne	r4, lr, r1, lsl #4
 b1c:	0000000c 	andeq	r0, r0, ip
 b20:	ffffffff 			; <UNDEFINED> instruction: 0xffffffff
 b24:	7c020001 	stcvc	0, cr0, [r2], {1}
 b28:	000d0c0e 	andeq	r0, sp, lr, lsl #24
 b2c:	00000014 	andeq	r0, r0, r4, lsl r0
 b30:	00000b1c 	andeq	r0, r0, ip, lsl fp
 b34:	0000aa7c 	andeq	sl, r0, ip, ror sl
 b38:	00000044 	andeq	r0, r0, r4, asr #32
 b3c:	8e040e42 	cdphi	14, 0, cr0, cr4, cr2, {2}
 b40:	100e4201 	andne	r4, lr, r1, lsl #4
 b44:	0000000c 	andeq	r0, r0, ip
 b48:	ffffffff 			; <UNDEFINED> instruction: 0xffffffff
 b4c:	7c020001 	stcvc	0, cr0, [r2], {1}
 b50:	000d0c0e 	andeq	r0, sp, lr, lsl #24
 b54:	00000014 	andeq	r0, r0, r4, lsl r0
 b58:	00000b44 	andeq	r0, r0, r4, asr #22
 b5c:	0000aac0 	andeq	sl, r0, r0, asr #21
 b60:	00000044 	andeq	r0, r0, r4, asr #32
 b64:	8e040e42 	cdphi	14, 0, cr0, cr4, cr2, {2}
 b68:	100e4201 	andne	r4, lr, r1, lsl #4
