
2-logic-analyzer.elf:     file format elf32-littlearm


Disassembly of section .text:

00008000 <_start>:
    8000:	e3a0d302 	mov	sp, #134217728	; 0x8000000
    8004:	e3a0b000 	mov	fp, #0
    8008:	eb000351 	bl	8d54 <_cstart>
    800c:	eb00037f 	bl	8e10 <rpi_reboot>

00008010 <cycles_per_sec>:
    8010:	e92d4010 	push	{r4, lr}
    8014:	e3500001 	cmp	r0, #1
    8018:	9a000006 	bls	8038 <cycles_per_sec+0x28>
    801c:	eb0001d2 	bl	876c <rpi_reset_putc>
    8020:	e59f002c 	ldr	r0, [pc, #44]	; 8054 <cycles_per_sec+0x44>
    8024:	e59f102c 	ldr	r1, [pc, #44]	; 8058 <cycles_per_sec+0x48>
    8028:	e59f202c 	ldr	r2, [pc, #44]	; 805c <cycles_per_sec+0x4c>
    802c:	e3a03042 	mov	r3, #66	; 0x42
    8030:	eb0001b2 	bl	8700 <printk>
    8034:	eb000334 	bl	8d0c <clean_reboot>
    8038:	ee1f4f3c 	mrc	15, 0, r4, cr15, cr12, {1}
    803c:	e3a03ffa 	mov	r3, #1000	; 0x3e8
    8040:	e0000093 	mul	r0, r3, r0
    8044:	eb00039b 	bl	8eb8 <delay_ms>
    8048:	ee1f0f3c 	mrc	15, 0, r0, cr15, cr12, {1}
    804c:	e0640000 	rsb	r0, r4, r0
    8050:	e8bd8010 	pop	{r4, pc}
    8054:	0000a068 	andeq	sl, r0, r8, rrx
    8058:	0000a098 	muleq	r0, r8, r0
    805c:	0000a058 	andeq	sl, r0, r8, asr r0

00008060 <scope>:
    8060:	e52d4004 	push	{r4}		; (str r4, [sp, #-4]!)
    8064:	e59f21b4 	ldr	r2, [pc, #436]	; 8220 <scope+0x1c0>
    8068:	e5923034 	ldr	r3, [r2, #52]	; 0x34
    806c:	e3130601 	tst	r3, #1048576	; 0x100000
    8070:	1afffffc 	bne	8068 <scope+0x8>
    8074:	ee1f3f3c 	mrc	15, 0, r3, cr15, cr12, {1}
    8078:	e59f11a4 	ldr	r1, [pc, #420]	; 8224 <scope+0x1c4>
    807c:	ee1f2f3c 	mrc	15, 0, r2, cr15, cr12, {1}
    8080:	e0632002 	rsb	r2, r3, r2
    8084:	e1520001 	cmp	r2, r1
    8088:	9afffffb 	bls	807c <scope+0x1c>
    808c:	e59f1194 	ldr	r1, [pc, #404]	; 8228 <scope+0x1c8>
    8090:	ee1f2f3c 	mrc	15, 0, r2, cr15, cr12, {1}
    8094:	e0632002 	rsb	r2, r3, r2
    8098:	e1520001 	cmp	r2, r1
    809c:	9afffffb 	bls	8090 <scope+0x30>
    80a0:	e59f2178 	ldr	r2, [pc, #376]	; 8220 <scope+0x1c0>
    80a4:	e5920034 	ldr	r0, [r2, #52]	; 0x34
    80a8:	e2000601 	and	r0, r0, #1048576	; 0x100000
    80ac:	e1a00a20 	lsr	r0, r0, #20
    80b0:	e1a00380 	lsl	r0, r0, #7
    80b4:	e6ef0070 	uxtb	r0, r0
    80b8:	e59f116c 	ldr	r1, [pc, #364]	; 822c <scope+0x1cc>
    80bc:	ee1f2f3c 	mrc	15, 0, r2, cr15, cr12, {1}
    80c0:	e0632002 	rsb	r2, r3, r2
    80c4:	e1520001 	cmp	r2, r1
    80c8:	9afffffb 	bls	80bc <scope+0x5c>
    80cc:	e59f214c 	ldr	r2, [pc, #332]	; 8220 <scope+0x1c0>
    80d0:	e5922034 	ldr	r2, [r2, #52]	; 0x34
    80d4:	e2022601 	and	r2, r2, #1048576	; 0x100000
    80d8:	e3520000 	cmp	r2, #0
    80dc:	13a02040 	movne	r2, #64	; 0x40
    80e0:	03a02000 	moveq	r2, #0
    80e4:	e1800002 	orr	r0, r0, r2
    80e8:	e59f1140 	ldr	r1, [pc, #320]	; 8230 <scope+0x1d0>
    80ec:	ee1f2f3c 	mrc	15, 0, r2, cr15, cr12, {1}
    80f0:	e0632002 	rsb	r2, r3, r2
    80f4:	e1520001 	cmp	r2, r1
    80f8:	9afffffb 	bls	80ec <scope+0x8c>
    80fc:	e59f211c 	ldr	r2, [pc, #284]	; 8220 <scope+0x1c0>
    8100:	e5924034 	ldr	r4, [r2, #52]	; 0x34
    8104:	e2044601 	and	r4, r4, #1048576	; 0x100000
    8108:	e3540000 	cmp	r4, #0
    810c:	13a04020 	movne	r4, #32
    8110:	03a04000 	moveq	r4, #0
    8114:	e1844000 	orr	r4, r4, r0
    8118:	e59f1114 	ldr	r1, [pc, #276]	; 8234 <scope+0x1d4>
    811c:	ee1f2f3c 	mrc	15, 0, r2, cr15, cr12, {1}
    8120:	e0632002 	rsb	r2, r3, r2
    8124:	e1520001 	cmp	r2, r1
    8128:	9afffffb 	bls	811c <scope+0xbc>
    812c:	e59f20ec 	ldr	r2, [pc, #236]	; 8220 <scope+0x1c0>
    8130:	e592c034 	ldr	ip, [r2, #52]	; 0x34
    8134:	e20cc601 	and	ip, ip, #1048576	; 0x100000
    8138:	e35c0000 	cmp	ip, #0
    813c:	13a0c010 	movne	ip, #16
    8140:	03a0c000 	moveq	ip, #0
    8144:	e18cc004 	orr	ip, ip, r4
    8148:	e59f10e8 	ldr	r1, [pc, #232]	; 8238 <scope+0x1d8>
    814c:	ee1f2f3c 	mrc	15, 0, r2, cr15, cr12, {1}
    8150:	e0632002 	rsb	r2, r3, r2
    8154:	e1520001 	cmp	r2, r1
    8158:	9afffffb 	bls	814c <scope+0xec>
    815c:	e59f20bc 	ldr	r2, [pc, #188]	; 8220 <scope+0x1c0>
    8160:	e5920034 	ldr	r0, [r2, #52]	; 0x34
    8164:	e2000601 	and	r0, r0, #1048576	; 0x100000
    8168:	e3500000 	cmp	r0, #0
    816c:	13a00008 	movne	r0, #8
    8170:	03a00000 	moveq	r0, #0
    8174:	e180000c 	orr	r0, r0, ip
    8178:	e59f10bc 	ldr	r1, [pc, #188]	; 823c <scope+0x1dc>
    817c:	ee1f2f3c 	mrc	15, 0, r2, cr15, cr12, {1}
    8180:	e0632002 	rsb	r2, r3, r2
    8184:	e1520001 	cmp	r2, r1
    8188:	9afffffb 	bls	817c <scope+0x11c>
    818c:	e59f208c 	ldr	r2, [pc, #140]	; 8220 <scope+0x1c0>
    8190:	e5924034 	ldr	r4, [r2, #52]	; 0x34
    8194:	e2044601 	and	r4, r4, #1048576	; 0x100000
    8198:	e3540000 	cmp	r4, #0
    819c:	13a04004 	movne	r4, #4
    81a0:	03a04000 	moveq	r4, #0
    81a4:	e1844000 	orr	r4, r4, r0
    81a8:	e59f1090 	ldr	r1, [pc, #144]	; 8240 <scope+0x1e0>
    81ac:	ee1f2f3c 	mrc	15, 0, r2, cr15, cr12, {1}
    81b0:	e0632002 	rsb	r2, r3, r2
    81b4:	e1520001 	cmp	r2, r1
    81b8:	9afffffb 	bls	81ac <scope+0x14c>
    81bc:	e59f205c 	ldr	r2, [pc, #92]	; 8220 <scope+0x1c0>
    81c0:	e592c034 	ldr	ip, [r2, #52]	; 0x34
    81c4:	e20cc601 	and	ip, ip, #1048576	; 0x100000
    81c8:	e35c0000 	cmp	ip, #0
    81cc:	13a0c002 	movne	ip, #2
    81d0:	03a0c000 	moveq	ip, #0
    81d4:	e18cc004 	orr	ip, ip, r4
    81d8:	e59f1064 	ldr	r1, [pc, #100]	; 8244 <scope+0x1e4>
    81dc:	ee1f2f3c 	mrc	15, 0, r2, cr15, cr12, {1}
    81e0:	e0632002 	rsb	r2, r3, r2
    81e4:	e1520001 	cmp	r2, r1
    81e8:	9afffffb 	bls	81dc <scope+0x17c>
    81ec:	e59f202c 	ldr	r2, [pc, #44]	; 8220 <scope+0x1c0>
    81f0:	e5920034 	ldr	r0, [r2, #52]	; 0x34
    81f4:	e2000601 	and	r0, r0, #1048576	; 0x100000
    81f8:	e3500000 	cmp	r0, #0
    81fc:	01a0000c 	moveq	r0, ip
    8200:	138c0001 	orrne	r0, ip, #1
    8204:	e59f103c 	ldr	r1, [pc, #60]	; 8248 <scope+0x1e8>
    8208:	ee1f2f3c 	mrc	15, 0, r2, cr15, cr12, {1}
    820c:	e0632002 	rsb	r2, r3, r2
    8210:	e1520001 	cmp	r2, r1
    8214:	9afffffb 	bls	8208 <scope+0x1a8>
    8218:	e49d4004 	pop	{r4}		; (ldr r4, [sp], #4)
    821c:	e12fff1e 	bx	lr
    8220:	20200000 	eorcs	r0, r0, r0
    8224:	00000bdd 	ldrdeq	r0, [r0], -sp
    8228:	00002399 	muleq	r0, r9, r3
    822c:	00003b55 	andeq	r3, r0, r5, asr fp
    8230:	00005311 	andeq	r5, r0, r1, lsl r3
    8234:	00006acd 	andeq	r6, r0, sp, asr #21
    8238:	00008289 	andeq	r8, r0, r9, lsl #5
    823c:	00009a45 	andeq	r9, r0, r5, asr #20
    8240:	0000b201 	andeq	fp, r0, r1, lsl #4
    8244:	0000c9bd 			; <UNDEFINED> instruction: 0x0000c9bd
    8248:	0000e179 	andeq	lr, r0, r9, ror r1

0000824c <test_gen>:
    824c:	e52d4004 	push	{r4}		; (str r4, [sp, #-4]!)
    8250:	ee1f3f3c 	mrc	15, 0, r3, cr15, cr12, {1}
    8254:	e59fc260 	ldr	ip, [pc, #608]	; 84bc <test_gen+0x270>
    8258:	e59c2034 	ldr	r2, [ip, #52]	; 0x34
    825c:	e3120602 	tst	r2, #2097152	; 0x200000
    8260:	0afffffc 	beq	8258 <test_gen+0xc>
    8264:	e59f2250 	ldr	r2, [pc, #592]	; 84bc <test_gen+0x270>
    8268:	e592c028 	ldr	ip, [r2, #40]	; 0x28
    826c:	e3a04001 	mov	r4, #1
    8270:	e1a00014 	lsl	r0, r4, r0
    8274:	e18cc000 	orr	ip, ip, r0
    8278:	e582c028 	str	ip, [r2, #40]	; 0x28
    827c:	e59fc23c 	ldr	ip, [pc, #572]	; 84c0 <test_gen+0x274>
    8280:	ee1f2f3c 	mrc	15, 0, r2, cr15, cr12, {1}
    8284:	e0632002 	rsb	r2, r3, r2
    8288:	e152000c 	cmp	r2, ip
    828c:	9afffffb 	bls	8280 <test_gen+0x34>
    8290:	e3110001 	tst	r1, #1
    8294:	0a000004 	beq	82ac <test_gen+0x60>
    8298:	e59f221c 	ldr	r2, [pc, #540]	; 84bc <test_gen+0x270>
    829c:	e592c01c 	ldr	ip, [r2, #28]
    82a0:	e180c00c 	orr	ip, r0, ip
    82a4:	e582c01c 	str	ip, [r2, #28]
    82a8:	ea000003 	b	82bc <test_gen+0x70>
    82ac:	e59f2208 	ldr	r2, [pc, #520]	; 84bc <test_gen+0x270>
    82b0:	e592c028 	ldr	ip, [r2, #40]	; 0x28
    82b4:	e180c00c 	orr	ip, r0, ip
    82b8:	e582c028 	str	ip, [r2, #40]	; 0x28
    82bc:	e59fc200 	ldr	ip, [pc, #512]	; 84c4 <test_gen+0x278>
    82c0:	ee1f2f3c 	mrc	15, 0, r2, cr15, cr12, {1}
    82c4:	e0632002 	rsb	r2, r3, r2
    82c8:	e152000c 	cmp	r2, ip
    82cc:	9afffffb 	bls	82c0 <test_gen+0x74>
    82d0:	e3110002 	tst	r1, #2
    82d4:	0a000004 	beq	82ec <test_gen+0xa0>
    82d8:	e59f21dc 	ldr	r2, [pc, #476]	; 84bc <test_gen+0x270>
    82dc:	e592c01c 	ldr	ip, [r2, #28]
    82e0:	e180c00c 	orr	ip, r0, ip
    82e4:	e582c01c 	str	ip, [r2, #28]
    82e8:	ea000003 	b	82fc <test_gen+0xb0>
    82ec:	e59f21c8 	ldr	r2, [pc, #456]	; 84bc <test_gen+0x270>
    82f0:	e592c028 	ldr	ip, [r2, #40]	; 0x28
    82f4:	e180c00c 	orr	ip, r0, ip
    82f8:	e582c028 	str	ip, [r2, #40]	; 0x28
    82fc:	e59fc1c4 	ldr	ip, [pc, #452]	; 84c8 <test_gen+0x27c>
    8300:	ee1f2f3c 	mrc	15, 0, r2, cr15, cr12, {1}
    8304:	e0632002 	rsb	r2, r3, r2
    8308:	e152000c 	cmp	r2, ip
    830c:	9afffffb 	bls	8300 <test_gen+0xb4>
    8310:	e3110004 	tst	r1, #4
    8314:	0a000004 	beq	832c <test_gen+0xe0>
    8318:	e59f219c 	ldr	r2, [pc, #412]	; 84bc <test_gen+0x270>
    831c:	e592c01c 	ldr	ip, [r2, #28]
    8320:	e180c00c 	orr	ip, r0, ip
    8324:	e582c01c 	str	ip, [r2, #28]
    8328:	ea000003 	b	833c <test_gen+0xf0>
    832c:	e59f2188 	ldr	r2, [pc, #392]	; 84bc <test_gen+0x270>
    8330:	e592c028 	ldr	ip, [r2, #40]	; 0x28
    8334:	e180c00c 	orr	ip, r0, ip
    8338:	e582c028 	str	ip, [r2, #40]	; 0x28
    833c:	e59fc188 	ldr	ip, [pc, #392]	; 84cc <test_gen+0x280>
    8340:	ee1f2f3c 	mrc	15, 0, r2, cr15, cr12, {1}
    8344:	e0632002 	rsb	r2, r3, r2
    8348:	e152000c 	cmp	r2, ip
    834c:	9afffffb 	bls	8340 <test_gen+0xf4>
    8350:	e3110008 	tst	r1, #8
    8354:	0a000004 	beq	836c <test_gen+0x120>
    8358:	e59f215c 	ldr	r2, [pc, #348]	; 84bc <test_gen+0x270>
    835c:	e592c01c 	ldr	ip, [r2, #28]
    8360:	e180c00c 	orr	ip, r0, ip
    8364:	e582c01c 	str	ip, [r2, #28]
    8368:	ea000003 	b	837c <test_gen+0x130>
    836c:	e59f2148 	ldr	r2, [pc, #328]	; 84bc <test_gen+0x270>
    8370:	e592c028 	ldr	ip, [r2, #40]	; 0x28
    8374:	e180c00c 	orr	ip, r0, ip
    8378:	e582c028 	str	ip, [r2, #40]	; 0x28
    837c:	e59fc14c 	ldr	ip, [pc, #332]	; 84d0 <test_gen+0x284>
    8380:	ee1f2f3c 	mrc	15, 0, r2, cr15, cr12, {1}
    8384:	e0632002 	rsb	r2, r3, r2
    8388:	e152000c 	cmp	r2, ip
    838c:	9afffffb 	bls	8380 <test_gen+0x134>
    8390:	e3110010 	tst	r1, #16
    8394:	0a000004 	beq	83ac <test_gen+0x160>
    8398:	e59f211c 	ldr	r2, [pc, #284]	; 84bc <test_gen+0x270>
    839c:	e592c01c 	ldr	ip, [r2, #28]
    83a0:	e180c00c 	orr	ip, r0, ip
    83a4:	e582c01c 	str	ip, [r2, #28]
    83a8:	ea000003 	b	83bc <test_gen+0x170>
    83ac:	e59f2108 	ldr	r2, [pc, #264]	; 84bc <test_gen+0x270>
    83b0:	e592c028 	ldr	ip, [r2, #40]	; 0x28
    83b4:	e180c00c 	orr	ip, r0, ip
    83b8:	e582c028 	str	ip, [r2, #40]	; 0x28
    83bc:	e59fc110 	ldr	ip, [pc, #272]	; 84d4 <test_gen+0x288>
    83c0:	ee1f2f3c 	mrc	15, 0, r2, cr15, cr12, {1}
    83c4:	e0632002 	rsb	r2, r3, r2
    83c8:	e152000c 	cmp	r2, ip
    83cc:	9afffffb 	bls	83c0 <test_gen+0x174>
    83d0:	e3110020 	tst	r1, #32
    83d4:	0a000004 	beq	83ec <test_gen+0x1a0>
    83d8:	e59f20dc 	ldr	r2, [pc, #220]	; 84bc <test_gen+0x270>
    83dc:	e592c01c 	ldr	ip, [r2, #28]
    83e0:	e180c00c 	orr	ip, r0, ip
    83e4:	e582c01c 	str	ip, [r2, #28]
    83e8:	ea000003 	b	83fc <test_gen+0x1b0>
    83ec:	e59f20c8 	ldr	r2, [pc, #200]	; 84bc <test_gen+0x270>
    83f0:	e592c028 	ldr	ip, [r2, #40]	; 0x28
    83f4:	e180c00c 	orr	ip, r0, ip
    83f8:	e582c028 	str	ip, [r2, #40]	; 0x28
    83fc:	e59fc0d4 	ldr	ip, [pc, #212]	; 84d8 <test_gen+0x28c>
    8400:	ee1f2f3c 	mrc	15, 0, r2, cr15, cr12, {1}
    8404:	e0632002 	rsb	r2, r3, r2
    8408:	e152000c 	cmp	r2, ip
    840c:	9afffffb 	bls	8400 <test_gen+0x1b4>
    8410:	e3110040 	tst	r1, #64	; 0x40
    8414:	0a000004 	beq	842c <test_gen+0x1e0>
    8418:	e59f209c 	ldr	r2, [pc, #156]	; 84bc <test_gen+0x270>
    841c:	e592c01c 	ldr	ip, [r2, #28]
    8420:	e180c00c 	orr	ip, r0, ip
    8424:	e582c01c 	str	ip, [r2, #28]
    8428:	ea000003 	b	843c <test_gen+0x1f0>
    842c:	e59f2088 	ldr	r2, [pc, #136]	; 84bc <test_gen+0x270>
    8430:	e592c028 	ldr	ip, [r2, #40]	; 0x28
    8434:	e180c00c 	orr	ip, r0, ip
    8438:	e582c028 	str	ip, [r2, #40]	; 0x28
    843c:	e59fc098 	ldr	ip, [pc, #152]	; 84dc <test_gen+0x290>
    8440:	ee1f2f3c 	mrc	15, 0, r2, cr15, cr12, {1}
    8444:	e0632002 	rsb	r2, r3, r2
    8448:	e152000c 	cmp	r2, ip
    844c:	9afffffb 	bls	8440 <test_gen+0x1f4>
    8450:	e3110080 	tst	r1, #128	; 0x80
    8454:	0a000004 	beq	846c <test_gen+0x220>
    8458:	e59f205c 	ldr	r2, [pc, #92]	; 84bc <test_gen+0x270>
    845c:	e592101c 	ldr	r1, [r2, #28]
    8460:	e1801001 	orr	r1, r0, r1
    8464:	e582101c 	str	r1, [r2, #28]
    8468:	ea000003 	b	847c <test_gen+0x230>
    846c:	e59f2048 	ldr	r2, [pc, #72]	; 84bc <test_gen+0x270>
    8470:	e5921028 	ldr	r1, [r2, #40]	; 0x28
    8474:	e1801001 	orr	r1, r0, r1
    8478:	e5821028 	str	r1, [r2, #40]	; 0x28
    847c:	e59f105c 	ldr	r1, [pc, #92]	; 84e0 <test_gen+0x294>
    8480:	ee1f2f3c 	mrc	15, 0, r2, cr15, cr12, {1}
    8484:	e0632002 	rsb	r2, r3, r2
    8488:	e1520001 	cmp	r2, r1
    848c:	9afffffb 	bls	8480 <test_gen+0x234>
    8490:	e59f2024 	ldr	r2, [pc, #36]	; 84bc <test_gen+0x270>
    8494:	e592101c 	ldr	r1, [r2, #28]
    8498:	e1800001 	orr	r0, r0, r1
    849c:	e582001c 	str	r0, [r2, #28]
    84a0:	e59f103c 	ldr	r1, [pc, #60]	; 84e4 <test_gen+0x298>
    84a4:	ee1f2f3c 	mrc	15, 0, r2, cr15, cr12, {1}
    84a8:	e0632002 	rsb	r2, r3, r2
    84ac:	e1520001 	cmp	r2, r1
    84b0:	9afffffb 	bls	84a4 <test_gen+0x258>
    84b4:	e49d4004 	pop	{r4}		; (ldr r4, [sp], #4)
    84b8:	e12fff1e 	bx	lr
    84bc:	20200000 	eorcs	r0, r0, r0
    84c0:	000017bb 			; <UNDEFINED> instruction: 0x000017bb
    84c4:	00002f77 	andeq	r2, r0, r7, ror pc
    84c8:	00004733 	andeq	r4, r0, r3, lsr r7
    84cc:	00005eef 	andeq	r5, r0, pc, ror #29
    84d0:	000076ab 	andeq	r7, r0, fp, lsr #13
    84d4:	00008e67 	andeq	r8, r0, r7, ror #28
    84d8:	0000a623 	andeq	sl, r0, r3, lsr #12
    84dc:	0000bddf 	ldrdeq	fp, [r0], -pc	; <UNPREDICTABLE>
    84e0:	0000d59b 	muleq	r0, fp, r5
    84e4:	0000ed57 	andeq	lr, r0, r7, asr sp

000084e8 <server>:
    84e8:	e92d43f8 	push	{r3, r4, r5, r6, r7, r8, r9, lr}
    84ec:	e1a07000 	mov	r7, r0
    84f0:	e1a05002 	mov	r5, r2
    84f4:	e59f30d4 	ldr	r3, [pc, #212]	; 85d0 <server+0xe8>
    84f8:	e593201c 	ldr	r2, [r3, #28]
    84fc:	e3a01001 	mov	r1, #1
    8500:	e1822011 	orr	r2, r2, r1, lsl r0
    8504:	e583201c 	str	r2, [r3, #28]
    8508:	e59f00c4 	ldr	r0, [pc, #196]	; 85d4 <server+0xec>
    850c:	eb00007b 	bl	8700 <printk>
    8510:	e59f20b8 	ldr	r2, [pc, #184]	; 85d0 <server+0xe8>
    8514:	e5923034 	ldr	r3, [r2, #52]	; 0x34
    8518:	e3130601 	tst	r3, #1048576	; 0x100000
    851c:	0afffffc 	beq	8514 <server+0x2c>
    8520:	e3a00001 	mov	r0, #1
    8524:	eb000263 	bl	8eb8 <delay_ms>
    8528:	e59f40a8 	ldr	r4, [pc, #168]	; 85d8 <server+0xf0>
    852c:	e59f60a8 	ldr	r6, [pc, #168]	; 85dc <server+0xf4>
    8530:	e59f80a8 	ldr	r8, [pc, #168]	; 85e0 <server+0xf8>
    8534:	e3a09000 	mov	r9, #0
    8538:	ea000019 	b	85a4 <server+0xbc>
    853c:	e5963000 	ldr	r3, [r6]
    8540:	e3530000 	cmp	r3, #0
    8544:	0a000016 	beq	85a4 <server+0xbc>
    8548:	e5941000 	ldr	r1, [r4]
    854c:	e1a00007 	mov	r0, r7
    8550:	e1a01c21 	lsr	r1, r1, #24
    8554:	e1a02008 	mov	r2, r8
    8558:	ebffff3b 	bl	824c <test_gen>
    855c:	e5941000 	ldr	r1, [r4]
    8560:	e20118ff 	and	r1, r1, #16711680	; 0xff0000
    8564:	e1a00007 	mov	r0, r7
    8568:	e1a01821 	lsr	r1, r1, #16
    856c:	e1a02008 	mov	r2, r8
    8570:	ebffff35 	bl	824c <test_gen>
    8574:	e5941000 	ldr	r1, [r4]
    8578:	e2011cff 	and	r1, r1, #65280	; 0xff00
    857c:	e1a00007 	mov	r0, r7
    8580:	e1a01421 	lsr	r1, r1, #8
    8584:	e1a02008 	mov	r2, r8
    8588:	ebffff2f 	bl	824c <test_gen>
    858c:	e5941000 	ldr	r1, [r4]
    8590:	e1a00007 	mov	r0, r7
    8594:	e6ef1071 	uxtb	r1, r1
    8598:	e1a02008 	mov	r2, r8
    859c:	ebffff2a 	bl	824c <test_gen>
    85a0:	e5869000 	str	r9, [r6]
    85a4:	e5943000 	ldr	r3, [r4]
    85a8:	e1530005 	cmp	r3, r5
    85ac:	9affffe2 	bls	853c <server+0x54>
    85b0:	eb0005e9 	bl	9d5c <system_disable_interrupts>
    85b4:	e59f301c 	ldr	r3, [pc, #28]	; 85d8 <server+0xf0>
    85b8:	e5931000 	ldr	r1, [r3]
    85bc:	e2411001 	sub	r1, r1, #1
    85c0:	e5831000 	str	r1, [r3]
    85c4:	e59f0018 	ldr	r0, [pc, #24]	; 85e4 <server+0xfc>
    85c8:	eb00004c 	bl	8700 <printk>
    85cc:	e8bd83f8 	pop	{r3, r4, r5, r6, r7, r8, r9, pc}
    85d0:	20200000 	eorcs	r0, r0, r0
    85d4:	0000a0ac 	andeq	sl, r0, ip, lsr #1
    85d8:	0000a50c 	andeq	sl, r0, ip, lsl #10
    85dc:	00009fb8 			; <UNDEFINED> instruction: 0x00009fb8
    85e0:	000017bc 			; <UNDEFINED> instruction: 0x000017bc
    85e4:	0000a0bc 	strheq	sl, [r0], -ip

000085e8 <interrupt_vector>:
    85e8:	e92d4010 	push	{r4, lr}
    85ec:	eb0005bd 	bl	9ce8 <dev_barrier>
    85f0:	e3a00031 	mov	r0, #49	; 0x31
    85f4:	eb00031d 	bl	9270 <is_gpio_int>
    85f8:	e3500000 	cmp	r0, #0
    85fc:	1a000003 	bne	8610 <interrupt_vector+0x28>
    8600:	e3a00032 	mov	r0, #50	; 0x32
    8604:	eb000319 	bl	9270 <is_gpio_int>
    8608:	e3500000 	cmp	r0, #0
    860c:	0a000021 	beq	8698 <interrupt_vector+0xb0>
    8610:	e3a00014 	mov	r0, #20
    8614:	eb0002b5 	bl	90f0 <gpio_read>
    8618:	e3500000 	cmp	r0, #0
    861c:	1a00001d 	bne	8698 <interrupt_vector+0xb0>
    8620:	e3a00014 	mov	r0, #20
    8624:	ebfffe8d 	bl	8060 <scope>
    8628:	e1a04c00 	lsl	r4, r0, #24
    862c:	e3a00014 	mov	r0, #20
    8630:	ebfffe8a 	bl	8060 <scope>
    8634:	e1844800 	orr	r4, r4, r0, lsl #16
    8638:	e3a00014 	mov	r0, #20
    863c:	ebfffe87 	bl	8060 <scope>
    8640:	e1844400 	orr	r4, r4, r0, lsl #8
    8644:	e3a00014 	mov	r0, #20
    8648:	ebfffe84 	bl	8060 <scope>
    864c:	e1801004 	orr	r1, r0, r4
    8650:	e59f3050 	ldr	r3, [pc, #80]	; 86a8 <interrupt_vector+0xc0>
    8654:	e5933000 	ldr	r3, [r3]
    8658:	e1510003 	cmp	r1, r3
    865c:	0a000004 	beq	8674 <interrupt_vector+0x8c>
    8660:	e59f3040 	ldr	r3, [pc, #64]	; 86a8 <interrupt_vector+0xc0>
    8664:	e5932000 	ldr	r2, [r3]
    8668:	e59f003c 	ldr	r0, [pc, #60]	; 86ac <interrupt_vector+0xc4>
    866c:	eb000023 	bl	8700 <printk>
    8670:	ea000008 	b	8698 <interrupt_vector+0xb0>
    8674:	e59f0034 	ldr	r0, [pc, #52]	; 86b0 <interrupt_vector+0xc8>
    8678:	eb000020 	bl	8700 <printk>
    867c:	e59f3024 	ldr	r3, [pc, #36]	; 86a8 <interrupt_vector+0xc0>
    8680:	e5932000 	ldr	r2, [r3]
    8684:	e2822001 	add	r2, r2, #1
    8688:	e5832000 	str	r2, [r3]
    868c:	e3a02001 	mov	r2, #1
    8690:	e59f301c 	ldr	r3, [pc, #28]	; 86b4 <interrupt_vector+0xcc>
    8694:	e5832000 	str	r2, [r3]
    8698:	e3a00014 	mov	r0, #20
    869c:	eb000361 	bl	9428 <gpio_event_clear>
    86a0:	eb000590 	bl	9ce8 <dev_barrier>
    86a4:	e8bd8010 	pop	{r4, pc}
    86a8:	0000a50c 	andeq	sl, r0, ip, lsl #10
    86ac:	0000a0d8 	ldrdeq	sl, [r0], -r8
    86b0:	0000a0fc 	strdeq	sl, [r0], -ip
    86b4:	00009fb8 			; <UNDEFINED> instruction: 0x00009fb8

000086b8 <notmain>:
    86b8:	e92d4008 	push	{r3, lr}
    86bc:	eb000509 	bl	9ae8 <uart_init>
    86c0:	eb00055d 	bl	9c3c <int_init>
    86c4:	e3a00015 	mov	r0, #21
    86c8:	eb000204 	bl	8ee0 <gpio_set_output>
    86cc:	e3a00014 	mov	r0, #20
    86d0:	eb000253 	bl	9024 <gpio_set_input>
    86d4:	e3a00014 	mov	r0, #20
    86d8:	eb000310 	bl	9320 <gpio_int_falling_edge>
    86dc:	eb000182 	bl	8cec <enable_cache>
    86e0:	e3a03001 	mov	r3, #1
    86e4:	ee0f3f1c 	mcr	15, 0, r3, cr15, cr12, {0}
    86e8:	eb000597 	bl	9d4c <system_enable_interrupts>
    86ec:	e3a00015 	mov	r0, #21
    86f0:	e3a01014 	mov	r1, #20
    86f4:	e3a02a01 	mov	r2, #4096	; 0x1000
    86f8:	ebffff7a 	bl	84e8 <server>
    86fc:	eb000182 	bl	8d0c <clean_reboot>

00008700 <printk>:
    8700:	e92d000f 	push	{r0, r1, r2, r3}
    8704:	e92d4030 	push	{r4, r5, lr}
    8708:	e24dd00c 	sub	sp, sp, #12
    870c:	e28d301c 	add	r3, sp, #28
    8710:	e58d3004 	str	r3, [sp, #4]
    8714:	e59f4034 	ldr	r4, [pc, #52]	; 8750 <printk+0x50>
    8718:	e1a00004 	mov	r0, r4
    871c:	e3a01b01 	mov	r1, #1024	; 0x400
    8720:	e59d2018 	ldr	r2, [sp, #24]
    8724:	eb0000cb 	bl	8a58 <va_printk>
    8728:	e1a05000 	mov	r5, r0
    872c:	e59f3020 	ldr	r3, [pc, #32]	; 8754 <printk+0x54>
    8730:	e5933000 	ldr	r3, [r3]
    8734:	e1a00004 	mov	r0, r4
    8738:	e12fff33 	blx	r3
    873c:	e1a00005 	mov	r0, r5
    8740:	e28dd00c 	add	sp, sp, #12
    8744:	e8bd4030 	pop	{r4, r5, lr}
    8748:	e28dd010 	add	sp, sp, #16
    874c:	e12fff1e 	bx	lr
    8750:	0000a524 	andeq	sl, r0, r4, lsr #10
    8754:	00009fc0 	andeq	r9, r0, r0, asr #31

00008758 <internal_putchar>:
    8758:	e92d4010 	push	{r4, lr}
    875c:	e1a04000 	mov	r4, r0
    8760:	eb00051f 	bl	9be4 <uart_putc>
    8764:	e1a00004 	mov	r0, r4
    8768:	e8bd8010 	pop	{r4, pc}

0000876c <rpi_reset_putc>:
    876c:	e59f2008 	ldr	r2, [pc, #8]	; 877c <rpi_reset_putc+0x10>
    8770:	e59f3008 	ldr	r3, [pc, #8]	; 8780 <rpi_reset_putc+0x14>
    8774:	e5832000 	str	r2, [r3]
    8778:	e12fff1e 	bx	lr
    877c:	00008758 	andeq	r8, r0, r8, asr r7
    8780:	00009fbc 			; <UNDEFINED> instruction: 0x00009fbc

00008784 <rpi_set_putc>:
    8784:	e59f3004 	ldr	r3, [pc, #4]	; 8790 <rpi_set_putc+0xc>
    8788:	e5830000 	str	r0, [r3]
    878c:	e12fff1e 	bx	lr
    8790:	00009fbc 			; <UNDEFINED> instruction: 0x00009fbc

00008794 <internal_putk>:
    8794:	e92d4038 	push	{r3, r4, r5, lr}
    8798:	e1a04000 	mov	r4, r0
    879c:	e59f5020 	ldr	r5, [pc, #32]	; 87c4 <internal_putk+0x30>
    87a0:	ea000002 	b	87b0 <internal_putk+0x1c>
    87a4:	e5953000 	ldr	r3, [r5]
    87a8:	e12fff33 	blx	r3
    87ac:	e2844001 	add	r4, r4, #1
    87b0:	e5d40000 	ldrb	r0, [r4]
    87b4:	e3500000 	cmp	r0, #0
    87b8:	1afffff9 	bne	87a4 <internal_putk+0x10>
    87bc:	e3a00001 	mov	r0, #1
    87c0:	e8bd8038 	pop	{r3, r4, r5, pc}
    87c4:	00009fbc 			; <UNDEFINED> instruction: 0x00009fbc

000087c8 <isdigit>:
    87c8:	e2400030 	sub	r0, r0, #48	; 0x30
    87cc:	e3500009 	cmp	r0, #9
    87d0:	83a00000 	movhi	r0, #0
    87d4:	93a00001 	movls	r0, #1
    87d8:	e12fff1e 	bx	lr

000087dc <pad>:
    87dc:	e0611000 	rsb	r1, r1, r0
    87e0:	e3a03020 	mov	r3, #32
    87e4:	ea000002 	b	87f4 <pad+0x18>
    87e8:	e5c03000 	strb	r3, [r0]
    87ec:	e2811001 	add	r1, r1, #1
    87f0:	e2800001 	add	r0, r0, #1
    87f4:	e1510002 	cmp	r1, r2
    87f8:	bafffffa 	blt	87e8 <pad+0xc>
    87fc:	e3a03000 	mov	r3, #0
    8800:	e5c03000 	strb	r3, [r0]
    8804:	e12fff1e 	bx	lr

00008808 <reverse>:
    8808:	e063c002 	rsb	ip, r3, r2
    880c:	e28cc001 	add	ip, ip, #1
    8810:	e15c0001 	cmp	ip, r1
    8814:	c061100c 	rsbgt	r1, r1, ip
    8818:	c0833001 	addgt	r3, r3, r1
    881c:	e2422001 	sub	r2, r2, #1
    8820:	e1a01000 	mov	r1, r0
    8824:	ea000002 	b	8834 <reverse+0x2c>
    8828:	e452c001 	ldrb	ip, [r2], #-1
    882c:	e5c1c000 	strb	ip, [r1]
    8830:	e2811001 	add	r1, r1, #1
    8834:	e1520003 	cmp	r2, r3
    8838:	2afffffa 	bcs	8828 <reverse+0x20>
    883c:	e3a03000 	mov	r3, #0
    8840:	e5c13000 	strb	r3, [r1]
    8844:	e12fff1e 	bx	lr

00008848 <emit>:
    8848:	e92d41f0 	push	{r4, r5, r6, r7, r8, lr}
    884c:	e24dd048 	sub	sp, sp, #72	; 0x48
    8850:	e1a05001 	mov	r5, r1
    8854:	e1a04002 	mov	r4, r2
    8858:	e59d2060 	ldr	r2, [sp, #96]	; 0x60
    885c:	e1520004 	cmp	r2, r4
    8860:	c2442001 	subgt	r2, r4, #1
    8864:	e1a0c003 	mov	ip, r3
    8868:	e2400002 	sub	r0, r0, #2
    886c:	e350000e 	cmp	r0, #14
    8870:	979ff100 	ldrls	pc, [pc, r0, lsl #2]
    8874:	ea000042 	b	8984 <emit+0x13c>
    8878:	0000895c 	andeq	r8, r0, ip, asr r9
    887c:	00008984 	andeq	r8, r0, r4, lsl #19
    8880:	00008984 	andeq	r8, r0, r4, lsl #19
    8884:	00008984 	andeq	r8, r0, r4, lsl #19
    8888:	00008984 	andeq	r8, r0, r4, lsl #19
    888c:	00008984 	andeq	r8, r0, r4, lsl #19
    8890:	00008950 	andeq	r8, r0, r0, asr r9
    8894:	00008984 	andeq	r8, r0, r4, lsl #19
    8898:	000088b4 			; <UNDEFINED> instruction: 0x000088b4
    889c:	00008984 	andeq	r8, r0, r4, lsl #19
    88a0:	00008984 	andeq	r8, r0, r4, lsl #19
    88a4:	00008984 	andeq	r8, r0, r4, lsl #19
    88a8:	00008984 	andeq	r8, r0, r4, lsl #19
    88ac:	00008984 	andeq	r8, r0, r4, lsl #19
    88b0:	00008928 	andeq	r8, r0, r8, lsr #18
    88b4:	e59d1064 	ldr	r1, [sp, #100]	; 0x64
    88b8:	e2911000 	adds	r1, r1, #0
    88bc:	13a01001 	movne	r1, #1
    88c0:	e0111fa3 	ands	r1, r1, r3, lsr #31
    88c4:	1263c000 	rsbne	ip, r3, #0
    88c8:	13a08001 	movne	r8, #1
    88cc:	03a08000 	moveq	r8, #0
    88d0:	e28d1008 	add	r1, sp, #8
    88d4:	e59f70f4 	ldr	r7, [pc, #244]	; 89d0 <emit+0x188>
    88d8:	e59f60f4 	ldr	r6, [pc, #244]	; 89d4 <emit+0x18c>
    88dc:	ea000000 	b	88e4 <emit+0x9c>
    88e0:	e1a01003 	mov	r1, r3
    88e4:	e2813001 	add	r3, r1, #1
    88e8:	e08e0c97 	umull	r0, lr, r7, ip
    88ec:	e1a0e1ae 	lsr	lr, lr, #3
    88f0:	e1a0000e 	mov	r0, lr
    88f4:	e08ee10e 	add	lr, lr, lr, lsl #2
    88f8:	e1a0e08e 	lsl	lr, lr, #1
    88fc:	e06ee00c 	rsb	lr, lr, ip
    8900:	e7d6c00e 	ldrb	ip, [r6, lr]
    8904:	e5c1c000 	strb	ip, [r1]
    8908:	e1a0c000 	mov	ip, r0
    890c:	e3500000 	cmp	r0, #0
    8910:	1afffff2 	bne	88e0 <emit+0x98>
    8914:	e3580000 	cmp	r8, #0
    8918:	12813002 	addne	r3, r1, #2
    891c:	13a0002d 	movne	r0, #45	; 0x2d
    8920:	15c10001 	strbne	r0, [r1, #1]
    8924:	ea00001f 	b	89a8 <emit+0x160>
    8928:	e28de008 	add	lr, sp, #8
    892c:	e59f00a4 	ldr	r0, [pc, #164]	; 89d8 <emit+0x190>
    8930:	e28e3001 	add	r3, lr, #1
    8934:	e20c100f 	and	r1, ip, #15
    8938:	e7d01001 	ldrb	r1, [r0, r1]
    893c:	e5ce1000 	strb	r1, [lr]
    8940:	e1a0e003 	mov	lr, r3
    8944:	e1b0c22c 	lsrs	ip, ip, #4
    8948:	1afffff8 	bne	8930 <emit+0xe8>
    894c:	ea000015 	b	89a8 <emit+0x160>
    8950:	e5cd3008 	strb	r3, [sp, #8]
    8954:	e28d3009 	add	r3, sp, #9
    8958:	ea000012 	b	89a8 <emit+0x160>
    895c:	e28de008 	add	lr, sp, #8
    8960:	e59f0074 	ldr	r0, [pc, #116]	; 89dc <emit+0x194>
    8964:	e28e3001 	add	r3, lr, #1
    8968:	e20c1001 	and	r1, ip, #1
    896c:	e7d01001 	ldrb	r1, [r0, r1]
    8970:	e5ce1000 	strb	r1, [lr]
    8974:	e1a0e003 	mov	lr, r3
    8978:	e1b0c0ac 	lsrs	ip, ip, #1
    897c:	1afffff8 	bne	8964 <emit+0x11c>
    8980:	ea000008 	b	89a8 <emit+0x160>
    8984:	ebffff78 	bl	876c <rpi_reset_putc>
    8988:	e59f3050 	ldr	r3, [pc, #80]	; 89e0 <emit+0x198>
    898c:	e58d3000 	str	r3, [sp]
    8990:	e59f004c 	ldr	r0, [pc, #76]	; 89e4 <emit+0x19c>
    8994:	e59f104c 	ldr	r1, [pc, #76]	; 89e8 <emit+0x1a0>
    8998:	e59f204c 	ldr	r2, [pc, #76]	; 89ec <emit+0x1a4>
    899c:	e3a03075 	mov	r3, #117	; 0x75
    89a0:	ebffff56 	bl	8700 <printk>
    89a4:	eb0000d8 	bl	8d0c <clean_reboot>
    89a8:	e1a00003 	mov	r0, r3
    89ac:	e28d1008 	add	r1, sp, #8
    89b0:	ebffff89 	bl	87dc <pad>
    89b4:	e1a02000 	mov	r2, r0
    89b8:	e1a00005 	mov	r0, r5
    89bc:	e1a01004 	mov	r1, r4
    89c0:	e28d3008 	add	r3, sp, #8
    89c4:	ebffff8f 	bl	8808 <reverse>
    89c8:	e28dd048 	add	sp, sp, #72	; 0x48
    89cc:	e8bd81f0 	pop	{r4, r5, r6, r7, r8, pc}
    89d0:	cccccccd 	stclgt	12, cr12, [ip], {205}	; 0xcd
    89d4:	0000a158 	andeq	sl, r0, r8, asr r1
    89d8:	0000a164 	andeq	sl, r0, r4, ror #2
    89dc:	0000a178 	andeq	sl, r0, r8, ror r1
    89e0:	0000a154 	andeq	sl, r0, r4, asr r1
    89e4:	0000a12c 	andeq	sl, r0, ip, lsr #2
    89e8:	0000a140 	andeq	sl, r0, r0, asr #2
    89ec:	0000a108 	andeq	sl, r0, r8, lsl #2

000089f0 <rpi_set_output>:
    89f0:	e52de004 	push	{lr}		; (str lr, [sp, #-4]!)
    89f4:	e24dd00c 	sub	sp, sp, #12
    89f8:	e3500000 	cmp	r0, #0
    89fc:	1a000008 	bne	8a24 <rpi_set_output+0x34>
    8a00:	ebffff59 	bl	876c <rpi_reset_putc>
    8a04:	e59f3034 	ldr	r3, [pc, #52]	; 8a40 <rpi_set_output+0x50>
    8a08:	e58d3000 	str	r3, [sp]
    8a0c:	e59f0030 	ldr	r0, [pc, #48]	; 8a44 <rpi_set_output+0x54>
    8a10:	e59f1030 	ldr	r1, [pc, #48]	; 8a48 <rpi_set_output+0x58>
    8a14:	e59f2030 	ldr	r2, [pc, #48]	; 8a4c <rpi_set_output+0x5c>
    8a18:	e3a03020 	mov	r3, #32
    8a1c:	ebffff37 	bl	8700 <printk>
    8a20:	eb0000b9 	bl	8d0c <clean_reboot>
    8a24:	e59f3024 	ldr	r3, [pc, #36]	; 8a50 <rpi_set_output+0x60>
    8a28:	e5830000 	str	r0, [r3]
    8a2c:	e3510000 	cmp	r1, #0
    8a30:	159f301c 	ldrne	r3, [pc, #28]	; 8a54 <rpi_set_output+0x64>
    8a34:	15831000 	strne	r1, [r3]
    8a38:	e28dd00c 	add	sp, sp, #12
    8a3c:	e49df004 	pop	{pc}		; (ldr pc, [sp], #4)
    8a40:	0000a17c 	andeq	sl, r0, ip, ror r1
    8a44:	0000a12c 	andeq	sl, r0, ip, lsr #2
    8a48:	0000a140 	andeq	sl, r0, r0, asr #2
    8a4c:	0000a110 	andeq	sl, r0, r0, lsl r1
    8a50:	00009fbc 			; <UNDEFINED> instruction: 0x00009fbc
    8a54:	00009fc0 	andeq	r9, r0, r0, asr #31

00008a58 <va_printk>:
    8a58:	e92d4ff0 	push	{r4, r5, r6, r7, r8, r9, sl, fp, lr}
    8a5c:	e24dd08c 	sub	sp, sp, #140	; 0x8c
    8a60:	e1a0a000 	mov	sl, r0
    8a64:	e1a09003 	mov	r9, r3
    8a68:	e2411001 	sub	r1, r1, #1
    8a6c:	e0808001 	add	r8, r0, r1
    8a70:	e3a03000 	mov	r3, #0
    8a74:	e5c03000 	strb	r3, [r0]
    8a78:	e1a04000 	mov	r4, r0
    8a7c:	e1a0b003 	mov	fp, r3
    8a80:	ea000088 	b	8ca8 <va_printk+0x250>
    8a84:	e3530025 	cmp	r3, #37	; 0x25
    8a88:	12822001 	addne	r2, r2, #1
    8a8c:	15c43000 	strbne	r3, [r4]
    8a90:	12844001 	addne	r4, r4, #1
    8a94:	1a000083 	bne	8ca8 <va_printk+0x250>
    8a98:	e5d21001 	ldrb	r1, [r2, #1]
    8a9c:	e3510025 	cmp	r1, #37	; 0x25
    8aa0:	05c43000 	strbeq	r3, [r4]
    8aa4:	02822002 	addeq	r2, r2, #2
    8aa8:	02844001 	addeq	r4, r4, #1
    8aac:	0a00007d 	beq	8ca8 <va_printk+0x250>
    8ab0:	e2826001 	add	r6, r2, #1
    8ab4:	e1a0700b 	mov	r7, fp
    8ab8:	ea000004 	b	8ad0 <va_printk+0x78>
    8abc:	e0877107 	add	r7, r7, r7, lsl #2
    8ac0:	e1a07087 	lsl	r7, r7, #1
    8ac4:	e0877005 	add	r7, r7, r5
    8ac8:	e2477030 	sub	r7, r7, #48	; 0x30
    8acc:	e2866001 	add	r6, r6, #1
    8ad0:	e5d65000 	ldrb	r5, [r6]
    8ad4:	e1a00005 	mov	r0, r5
    8ad8:	ebffff3a 	bl	87c8 <isdigit>
    8adc:	e3500000 	cmp	r0, #0
    8ae0:	1afffff5 	bne	8abc <va_printk+0x64>
    8ae4:	e357001f 	cmp	r7, #31
    8ae8:	9a000008 	bls	8b10 <va_printk+0xb8>
    8aec:	ebffff1e 	bl	876c <rpi_reset_putc>
    8af0:	e59f31dc 	ldr	r3, [pc, #476]	; 8cd4 <va_printk+0x27c>
    8af4:	e58d3000 	str	r3, [sp]
    8af8:	e59f01d8 	ldr	r0, [pc, #472]	; 8cd8 <va_printk+0x280>
    8afc:	e59f11d8 	ldr	r1, [pc, #472]	; 8cdc <va_printk+0x284>
    8b00:	e59f21d8 	ldr	r2, [pc, #472]	; 8ce0 <va_printk+0x288>
    8b04:	e3a03092 	mov	r3, #146	; 0x92
    8b08:	ebfffefc 	bl	8700 <printk>
    8b0c:	eb00007e 	bl	8d0c <clean_reboot>
    8b10:	e2455062 	sub	r5, r5, #98	; 0x62
    8b14:	e3550016 	cmp	r5, #22
    8b18:	979ff105 	ldrls	pc, [pc, r5, lsl #2]
    8b1c:	ea00004e 	b	8c5c <va_printk+0x204>
    8b20:	00008c08 	andeq	r8, r0, r8, lsl #24
    8b24:	00008c38 	andeq	r8, r0, r8, lsr ip
    8b28:	00008b98 	muleq	r0, r8, fp
    8b2c:	00008c5c 	andeq	r8, r0, ip, asr ip
    8b30:	00008b7c 	andeq	r8, r0, ip, ror fp
    8b34:	00008c5c 	andeq	r8, r0, ip, asr ip
    8b38:	00008c5c 	andeq	r8, r0, ip, asr ip
    8b3c:	00008c5c 	andeq	r8, r0, ip, asr ip
    8b40:	00008c5c 	andeq	r8, r0, ip, asr ip
    8b44:	00008c5c 	andeq	r8, r0, ip, asr ip
    8b48:	00008c5c 	andeq	r8, r0, ip, asr ip
    8b4c:	00008c5c 	andeq	r8, r0, ip, asr ip
    8b50:	00008c5c 	andeq	r8, r0, ip, asr ip
    8b54:	00008c5c 	andeq	r8, r0, ip, asr ip
    8b58:	00008be4 	andeq	r8, r0, r4, ror #23
    8b5c:	00008c5c 	andeq	r8, r0, ip, asr ip
    8b60:	00008c5c 	andeq	r8, r0, ip, asr ip
    8b64:	00008c2c 	andeq	r8, r0, ip, lsr #24
    8b68:	00008c5c 	andeq	r8, r0, ip, asr ip
    8b6c:	00008bc0 	andeq	r8, r0, r0, asr #23
    8b70:	00008c5c 	andeq	r8, r0, ip, asr ip
    8b74:	00008c5c 	andeq	r8, r0, ip, asr ip
    8b78:	00008be4 	andeq	r8, r0, r4, ror #23
    8b7c:	ebfffefa 	bl	876c <rpi_reset_putc>
    8b80:	e59f015c 	ldr	r0, [pc, #348]	; 8ce4 <va_printk+0x28c>
    8b84:	e59f1150 	ldr	r1, [pc, #336]	; 8cdc <va_printk+0x284>
    8b88:	e59f2150 	ldr	r2, [pc, #336]	; 8ce0 <va_printk+0x288>
    8b8c:	e3a03098 	mov	r3, #152	; 0x98
    8b90:	ebfffeda 	bl	8700 <printk>
    8b94:	eb00005c 	bl	8d0c <clean_reboot>
    8b98:	e5993000 	ldr	r3, [r9]
    8b9c:	e2899004 	add	r9, r9, #4
    8ba0:	e58d7000 	str	r7, [sp]
    8ba4:	e3a02001 	mov	r2, #1
    8ba8:	e58d2004 	str	r2, [sp, #4]
    8bac:	e3a0000a 	mov	r0, #10
    8bb0:	e28d1008 	add	r1, sp, #8
    8bb4:	e3a02080 	mov	r2, #128	; 0x80
    8bb8:	ebffff22 	bl	8848 <emit>
    8bbc:	ea00002f 	b	8c80 <va_printk+0x228>
    8bc0:	e5993000 	ldr	r3, [r9]
    8bc4:	e2899004 	add	r9, r9, #4
    8bc8:	e58d7000 	str	r7, [sp]
    8bcc:	e58db004 	str	fp, [sp, #4]
    8bd0:	e3a0000a 	mov	r0, #10
    8bd4:	e28d1008 	add	r1, sp, #8
    8bd8:	e3a02080 	mov	r2, #128	; 0x80
    8bdc:	ebffff19 	bl	8848 <emit>
    8be0:	ea000026 	b	8c80 <va_printk+0x228>
    8be4:	e5993000 	ldr	r3, [r9]
    8be8:	e2899004 	add	r9, r9, #4
    8bec:	e58d7000 	str	r7, [sp]
    8bf0:	e58db004 	str	fp, [sp, #4]
    8bf4:	e3a00010 	mov	r0, #16
    8bf8:	e28d1008 	add	r1, sp, #8
    8bfc:	e3a02080 	mov	r2, #128	; 0x80
    8c00:	ebffff10 	bl	8848 <emit>
    8c04:	ea00001d 	b	8c80 <va_printk+0x228>
    8c08:	e5993000 	ldr	r3, [r9]
    8c0c:	e2899004 	add	r9, r9, #4
    8c10:	e58d7000 	str	r7, [sp]
    8c14:	e58db004 	str	fp, [sp, #4]
    8c18:	e3a00002 	mov	r0, #2
    8c1c:	e28d1008 	add	r1, sp, #8
    8c20:	e3a02080 	mov	r2, #128	; 0x80
    8c24:	ebffff07 	bl	8848 <emit>
    8c28:	ea000014 	b	8c80 <va_printk+0x228>
    8c2c:	e5990000 	ldr	r0, [r9]
    8c30:	e2899004 	add	r9, r9, #4
    8c34:	ea000011 	b	8c80 <va_printk+0x228>
    8c38:	e5993000 	ldr	r3, [r9]
    8c3c:	e2899004 	add	r9, r9, #4
    8c40:	e58d7000 	str	r7, [sp]
    8c44:	e58db004 	str	fp, [sp, #4]
    8c48:	e3a00008 	mov	r0, #8
    8c4c:	e08d1000 	add	r1, sp, r0
    8c50:	e3a02080 	mov	r2, #128	; 0x80
    8c54:	ebfffefb 	bl	8848 <emit>
    8c58:	ea000008 	b	8c80 <va_printk+0x228>
    8c5c:	ebfffec2 	bl	876c <rpi_reset_putc>
    8c60:	e5d63000 	ldrb	r3, [r6]
    8c64:	e58d3000 	str	r3, [sp]
    8c68:	e59f0078 	ldr	r0, [pc, #120]	; 8ce8 <va_printk+0x290>
    8c6c:	e59f1068 	ldr	r1, [pc, #104]	; 8cdc <va_printk+0x284>
    8c70:	e59f2068 	ldr	r2, [pc, #104]	; 8ce0 <va_printk+0x288>
    8c74:	e3a030b9 	mov	r3, #185	; 0xb9
    8c78:	ebfffea0 	bl	8700 <printk>
    8c7c:	eb000022 	bl	8d0c <clean_reboot>
    8c80:	e2862001 	add	r2, r6, #1
    8c84:	ea000002 	b	8c94 <va_printk+0x23c>
    8c88:	e2800001 	add	r0, r0, #1
    8c8c:	e5c43000 	strb	r3, [r4]
    8c90:	e2844001 	add	r4, r4, #1
    8c94:	e1540008 	cmp	r4, r8
    8c98:	2a000002 	bcs	8ca8 <va_printk+0x250>
    8c9c:	e5d03000 	ldrb	r3, [r0]
    8ca0:	e3530000 	cmp	r3, #0
    8ca4:	1afffff7 	bne	8c88 <va_printk+0x230>
    8ca8:	e5d23000 	ldrb	r3, [r2]
    8cac:	e3530000 	cmp	r3, #0
    8cb0:	0a000001 	beq	8cbc <va_printk+0x264>
    8cb4:	e1540008 	cmp	r4, r8
    8cb8:	3affff71 	bcc	8a84 <va_printk+0x2c>
    8cbc:	e2840001 	add	r0, r4, #1
    8cc0:	e3a03000 	mov	r3, #0
    8cc4:	e5c43000 	strb	r3, [r4]
    8cc8:	e06a0000 	rsb	r0, sl, r0
    8ccc:	e28dd08c 	add	sp, sp, #140	; 0x8c
    8cd0:	e8bd8ff0 	pop	{r4, r5, r6, r7, r8, r9, sl, fp, pc}
    8cd4:	0000a184 	andeq	sl, r0, r4, lsl #3
    8cd8:	0000a12c 	andeq	sl, r0, ip, lsr #2
    8cdc:	0000a140 	andeq	sl, r0, r0, asr #2
    8ce0:	0000a120 	andeq	sl, r0, r0, lsr #2
    8ce4:	0000a190 	muleq	r0, r0, r1
    8ce8:	0000a1b8 			; <UNDEFINED> instruction: 0x0000a1b8

00008cec <enable_cache>:
    8cec:	ee113f10 	mrc	15, 0, r3, cr1, cr0, {0}
    8cf0:	e3833b06 	orr	r3, r3, #6144	; 0x1800
    8cf4:	ee013f10 	mcr	15, 0, r3, cr1, cr0, {0}
    8cf8:	e12fff1e 	bx	lr

00008cfc <disable_cache>:
    8cfc:	ee113f10 	mrc	15, 0, r3, cr1, cr0, {0}
    8d00:	e3c33b06 	bic	r3, r3, #6144	; 0x1800
    8d04:	ee013f10 	mcr	15, 0, r3, cr1, cr0, {0}
    8d08:	e12fff1e 	bx	lr

00008d0c <clean_reboot>:
    8d0c:	e92d4008 	push	{r3, lr}
    8d10:	e59f3014 	ldr	r3, [pc, #20]	; 8d2c <clean_reboot+0x20>
    8d14:	e5933000 	ldr	r3, [r3]
    8d18:	e59f0010 	ldr	r0, [pc, #16]	; 8d30 <clean_reboot+0x24>
    8d1c:	e12fff33 	blx	r3
    8d20:	e3a00064 	mov	r0, #100	; 0x64
    8d24:	eb000063 	bl	8eb8 <delay_ms>
    8d28:	eb000038 	bl	8e10 <rpi_reboot>
    8d2c:	00009fc0 	andeq	r9, r0, r0, asr #31
    8d30:	0000a1f0 	strdeq	sl, [r0], -r0

00008d34 <internal_sw_putchar>:
    8d34:	e92d4010 	push	{r4, lr}
    8d38:	e1a04000 	mov	r4, r0
    8d3c:	e59f000c 	ldr	r0, [pc, #12]	; 8d50 <internal_sw_putchar+0x1c>
    8d40:	e6ef1074 	uxtb	r1, r4
    8d44:	eb0001cd 	bl	9480 <sw_uart_putc>
    8d48:	e1a00004 	mov	r0, r4
    8d4c:	e8bd8010 	pop	{r4, pc}
    8d50:	0000a924 	andeq	sl, r0, r4, lsr #18

00008d54 <_cstart>:
    8d54:	e92d4008 	push	{r3, lr}
    8d58:	e59f3068 	ldr	r3, [pc, #104]	; 8dc8 <_cstart+0x74>
    8d5c:	e59f2068 	ldr	r2, [pc, #104]	; 8dcc <_cstart+0x78>
    8d60:	e3a01000 	mov	r1, #0
    8d64:	ea000001 	b	8d70 <_cstart+0x1c>
    8d68:	e5831000 	str	r1, [r3]
    8d6c:	e2833004 	add	r3, r3, #4
    8d70:	e1530002 	cmp	r3, r2
    8d74:	3afffffb 	bcc	8d68 <_cstart+0x14>
    8d78:	eb000438 	bl	9e60 <cb_get_block>
    8d7c:	e3500000 	cmp	r0, #0
    8d80:	0a00000e 	beq	8dc0 <_cstart+0x6c>
    8d84:	e5d02004 	ldrb	r2, [r0, #4]
    8d88:	e3520002 	cmp	r2, #2
    8d8c:	1a00000b 	bne	8dc0 <_cstart+0x6c>
    8d90:	e59f1038 	ldr	r1, [pc, #56]	; 8dd0 <_cstart+0x7c>
    8d94:	e59f2038 	ldr	r2, [pc, #56]	; 8dd4 <_cstart+0x80>
    8d98:	e5821000 	str	r1, [r2]
    8d9c:	e59fc034 	ldr	ip, [pc, #52]	; 8dd8 <_cstart+0x84>
    8da0:	e2803008 	add	r3, r0, #8
    8da4:	e8930007 	ldm	r3, {r0, r1, r2}
    8da8:	e88c0007 	stm	ip, {r0, r1, r2}
    8dac:	e1a0000c 	mov	r0, ip
    8db0:	e59f1024 	ldr	r1, [pc, #36]	; 8ddc <_cstart+0x88>
    8db4:	eb000314 	bl	9a0c <sw_uart_printk>
    8db8:	e59f0020 	ldr	r0, [pc, #32]	; 8de0 <_cstart+0x8c>
    8dbc:	ebfffe4f 	bl	8700 <printk>
    8dc0:	ebfffe3c 	bl	86b8 <notmain>
    8dc4:	eb000011 	bl	8e10 <rpi_reboot>
    8dc8:	0000a50c 	andeq	sl, r0, ip, lsl #10
    8dcc:	0000a938 	andeq	sl, r0, r8, lsr r9
    8dd0:	00008d34 	andeq	r8, r0, r4, lsr sp
    8dd4:	00009fbc 			; <UNDEFINED> instruction: 0x00009fbc
    8dd8:	0000a924 	andeq	sl, r0, r4, lsr #18
    8ddc:	0000a1fc 	strdeq	sl, [r0], -ip
    8de0:	0000a220 	andeq	sl, r0, r0, lsr #4

00008de4 <at_user_level>:
    8de4:	e10f0000 	mrs	r0, CPSR
    8de8:	e200001f 	and	r0, r0, #31
    8dec:	e3500010 	cmp	r0, #16
    8df0:	13a00000 	movne	r0, #0
    8df4:	03a00001 	moveq	r0, #1
    8df8:	e12fff1e 	bx	lr

00008dfc <set_user_level>:
    8dfc:	e10f3000 	mrs	r3, CPSR
    8e00:	e3c3301f 	bic	r3, r3, #31
    8e04:	e3833010 	orr	r3, r3, #16
    8e08:	e129f003 	msr	CPSR_fc, r3
    8e0c:	e12fff1e 	bx	lr

00008e10 <rpi_reboot>:
    8e10:	e92d4008 	push	{r3, lr}
    8e14:	ebfffff2 	bl	8de4 <at_user_level>
    8e18:	e3500000 	cmp	r0, #0
    8e1c:	0a000000 	beq	8e24 <rpi_reboot+0x14>
    8e20:	ebfffff5 	bl	8dfc <set_user_level>
    8e24:	e3a0001e 	mov	r0, #30
    8e28:	eb000022 	bl	8eb8 <delay_ms>
    8e2c:	e59f0014 	ldr	r0, [pc, #20]	; 8e48 <rpi_reboot+0x38>
    8e30:	e59f1014 	ldr	r1, [pc, #20]	; 8e4c <rpi_reboot+0x3c>
    8e34:	eb0003b3 	bl	9d08 <PUT32>
    8e38:	e59f0010 	ldr	r0, [pc, #16]	; 8e50 <rpi_reboot+0x40>
    8e3c:	e59f1010 	ldr	r1, [pc, #16]	; 8e54 <rpi_reboot+0x44>
    8e40:	eb0003b0 	bl	9d08 <PUT32>
    8e44:	eafffffe 	b	8e44 <rpi_reboot+0x34>
    8e48:	20100024 	andscs	r0, r0, r4, lsr #32
    8e4c:	5a000001 	bpl	8e58 <delay_cycles>
    8e50:	2010001c 	andscs	r0, r0, ip, lsl r0
    8e54:	5a000020 	bpl	8edc <delay_sec+0x10>

00008e58 <delay_cycles>:
    8e58:	ea000001 	b	8e64 <delay_cycles+0xc>
    8e5c:	e2811000 	add	r1, r1, #0
    8e60:	e1a00003 	mov	r0, r3
    8e64:	e2403001 	sub	r3, r0, #1
    8e68:	e3500000 	cmp	r0, #0
    8e6c:	1afffffa 	bne	8e5c <delay_cycles+0x4>
    8e70:	e12fff1e 	bx	lr

00008e74 <timer_get_usec_raw>:
    8e74:	e92d4008 	push	{r3, lr}
    8e78:	e59f0004 	ldr	r0, [pc, #4]	; 8e84 <timer_get_usec_raw+0x10>
    8e7c:	eb0003ad 	bl	9d38 <GET32>
    8e80:	e8bd8008 	pop	{r3, pc}
    8e84:	20003004 	andcs	r3, r0, r4

00008e88 <timer_get_usec>:
    8e88:	e92d4008 	push	{r3, lr}
    8e8c:	ebfffff8 	bl	8e74 <timer_get_usec_raw>
    8e90:	e8bd8008 	pop	{r3, pc}

00008e94 <delay_us>:
    8e94:	e92d4038 	push	{r3, r4, r5, lr}
    8e98:	e1a05000 	mov	r5, r0
    8e9c:	ebfffff9 	bl	8e88 <timer_get_usec>
    8ea0:	e1a04000 	mov	r4, r0
    8ea4:	ebfffff7 	bl	8e88 <timer_get_usec>
    8ea8:	e0640000 	rsb	r0, r4, r0
    8eac:	e1500005 	cmp	r0, r5
    8eb0:	3afffffb 	bcc	8ea4 <delay_us+0x10>
    8eb4:	e8bd8038 	pop	{r3, r4, r5, pc}

00008eb8 <delay_ms>:
    8eb8:	e92d4008 	push	{r3, lr}
    8ebc:	e3a03ffa 	mov	r3, #1000	; 0x3e8
    8ec0:	e0000093 	mul	r0, r3, r0
    8ec4:	ebfffff2 	bl	8e94 <delay_us>
    8ec8:	e8bd8008 	pop	{r3, pc}

00008ecc <delay_sec>:
    8ecc:	e92d4008 	push	{r3, lr}
    8ed0:	e3a03ffa 	mov	r3, #1000	; 0x3e8
    8ed4:	e0000093 	mul	r0, r3, r0
    8ed8:	ebfffff6 	bl	8eb8 <delay_ms>
    8edc:	e8bd8008 	pop	{r3, pc}

00008ee0 <gpio_set_output>:
    8ee0:	e92d4038 	push	{r3, r4, r5, lr}
    8ee4:	e1a04000 	mov	r4, r0
    8ee8:	e350001f 	cmp	r0, #31
    8eec:	88bd8038 	pophi	{r3, r4, r5, pc}
    8ef0:	e59f30b4 	ldr	r3, [pc, #180]	; 8fac <gpio_set_output+0xcc>
    8ef4:	e0832093 	umull	r2, r3, r3, r0
    8ef8:	e1a031a3 	lsr	r3, r3, #3
    8efc:	e3530005 	cmp	r3, #5
    8f00:	979ff103 	ldrls	pc, [pc, r3, lsl #2]
    8f04:	ea000017 	b	8f68 <gpio_set_output+0x88>
    8f08:	00008f20 	andeq	r8, r0, r0, lsr #30
    8f0c:	00008f2c 	andeq	r8, r0, ip, lsr #30
    8f10:	00008f38 	andeq	r8, r0, r8, lsr pc
    8f14:	00008f44 	andeq	r8, r0, r4, asr #30
    8f18:	00008f50 	andeq	r8, r0, r0, asr pc
    8f1c:	00008f5c 	andeq	r8, r0, ip, asr pc
    8f20:	e59f3088 	ldr	r3, [pc, #136]	; 8fb0 <gpio_set_output+0xd0>
    8f24:	e5935000 	ldr	r5, [r3]
    8f28:	ea00000f 	b	8f6c <gpio_set_output+0x8c>
    8f2c:	e59f307c 	ldr	r3, [pc, #124]	; 8fb0 <gpio_set_output+0xd0>
    8f30:	e5935004 	ldr	r5, [r3, #4]
    8f34:	ea00000c 	b	8f6c <gpio_set_output+0x8c>
    8f38:	e59f3070 	ldr	r3, [pc, #112]	; 8fb0 <gpio_set_output+0xd0>
    8f3c:	e5935008 	ldr	r5, [r3, #8]
    8f40:	ea000009 	b	8f6c <gpio_set_output+0x8c>
    8f44:	e59f3064 	ldr	r3, [pc, #100]	; 8fb0 <gpio_set_output+0xd0>
    8f48:	e593500c 	ldr	r5, [r3, #12]
    8f4c:	ea000006 	b	8f6c <gpio_set_output+0x8c>
    8f50:	e59f3058 	ldr	r3, [pc, #88]	; 8fb0 <gpio_set_output+0xd0>
    8f54:	e5935010 	ldr	r5, [r3, #16]
    8f58:	ea000003 	b	8f6c <gpio_set_output+0x8c>
    8f5c:	e59f304c 	ldr	r3, [pc, #76]	; 8fb0 <gpio_set_output+0xd0>
    8f60:	e5935014 	ldr	r5, [r3, #20]
    8f64:	ea000000 	b	8f6c <gpio_set_output+0x8c>
    8f68:	e3a05000 	mov	r5, #0
    8f6c:	e1a00005 	mov	r0, r5
    8f70:	eb00036e 	bl	9d30 <get32>
    8f74:	e59f1030 	ldr	r1, [pc, #48]	; 8fac <gpio_set_output+0xcc>
    8f78:	e0813491 	umull	r3, r1, r1, r4
    8f7c:	e1a011a1 	lsr	r1, r1, #3
    8f80:	e0811101 	add	r1, r1, r1, lsl #2
    8f84:	e1a01081 	lsl	r1, r1, #1
    8f88:	e0611004 	rsb	r1, r1, r4
    8f8c:	e0811081 	add	r1, r1, r1, lsl #1
    8f90:	e3a03007 	mov	r3, #7
    8f94:	e1c03113 	bic	r3, r0, r3, lsl r1
    8f98:	e1a00005 	mov	r0, r5
    8f9c:	e3a02001 	mov	r2, #1
    8fa0:	e1831112 	orr	r1, r3, r2, lsl r1
    8fa4:	eb000355 	bl	9d00 <put32>
    8fa8:	e8bd8038 	pop	{r3, r4, r5, pc}
    8fac:	cccccccd 	stclgt	12, cr12, [ip], {205}	; 0xcd
    8fb0:	00009fc4 	andeq	r9, r0, r4, asr #31

00008fb4 <gpio_set_on>:
    8fb4:	e92d4008 	push	{r3, lr}
    8fb8:	e350001f 	cmp	r0, #31
    8fbc:	88bd8008 	pophi	{r3, pc}
    8fc0:	959f3020 	ldrls	r3, [pc, #32]	; 8fe8 <gpio_set_on+0x34>
    8fc4:	95932018 	ldrls	r2, [r3, #24]
    8fc8:	859f3018 	ldrhi	r3, [pc, #24]	; 8fe8 <gpio_set_on+0x34>
    8fcc:	8593201c 	ldrhi	r2, [r3, #28]
    8fd0:	e200301f 	and	r3, r0, #31
    8fd4:	e1a00002 	mov	r0, r2
    8fd8:	e3a01001 	mov	r1, #1
    8fdc:	e1a01311 	lsl	r1, r1, r3
    8fe0:	eb000346 	bl	9d00 <put32>
    8fe4:	e8bd8008 	pop	{r3, pc}
    8fe8:	00009fc4 	andeq	r9, r0, r4, asr #31

00008fec <gpio_set_off>:
    8fec:	e92d4008 	push	{r3, lr}
    8ff0:	e350001f 	cmp	r0, #31
    8ff4:	88bd8008 	pophi	{r3, pc}
    8ff8:	959f3020 	ldrls	r3, [pc, #32]	; 9020 <gpio_set_off+0x34>
    8ffc:	95932020 	ldrls	r2, [r3, #32]
    9000:	859f3018 	ldrhi	r3, [pc, #24]	; 9020 <gpio_set_off+0x34>
    9004:	85932024 	ldrhi	r2, [r3, #36]	; 0x24
    9008:	e200301f 	and	r3, r0, #31
    900c:	e1a00002 	mov	r0, r2
    9010:	e3a01001 	mov	r1, #1
    9014:	e1a01311 	lsl	r1, r1, r3
    9018:	eb000338 	bl	9d00 <put32>
    901c:	e8bd8008 	pop	{r3, pc}
    9020:	00009fc4 	andeq	r9, r0, r4, asr #31

00009024 <gpio_set_input>:
    9024:	e92d4038 	push	{r3, r4, r5, lr}
    9028:	e1a04000 	mov	r4, r0
    902c:	e350001f 	cmp	r0, #31
    9030:	88bd8038 	pophi	{r3, r4, r5, pc}
    9034:	e59f30ac 	ldr	r3, [pc, #172]	; 90e8 <gpio_set_input+0xc4>
    9038:	e0832093 	umull	r2, r3, r3, r0
    903c:	e1a031a3 	lsr	r3, r3, #3
    9040:	e3530005 	cmp	r3, #5
    9044:	979ff103 	ldrls	pc, [pc, r3, lsl #2]
    9048:	ea000017 	b	90ac <gpio_set_input+0x88>
    904c:	00009064 	andeq	r9, r0, r4, rrx
    9050:	00009070 	andeq	r9, r0, r0, ror r0
    9054:	0000907c 	andeq	r9, r0, ip, ror r0
    9058:	00009088 	andeq	r9, r0, r8, lsl #1
    905c:	00009094 	muleq	r0, r4, r0
    9060:	000090a0 	andeq	r9, r0, r0, lsr #1
    9064:	e59f3080 	ldr	r3, [pc, #128]	; 90ec <gpio_set_input+0xc8>
    9068:	e5935000 	ldr	r5, [r3]
    906c:	ea00000f 	b	90b0 <gpio_set_input+0x8c>
    9070:	e59f3074 	ldr	r3, [pc, #116]	; 90ec <gpio_set_input+0xc8>
    9074:	e5935004 	ldr	r5, [r3, #4]
    9078:	ea00000c 	b	90b0 <gpio_set_input+0x8c>
    907c:	e59f3068 	ldr	r3, [pc, #104]	; 90ec <gpio_set_input+0xc8>
    9080:	e5935008 	ldr	r5, [r3, #8]
    9084:	ea000009 	b	90b0 <gpio_set_input+0x8c>
    9088:	e59f305c 	ldr	r3, [pc, #92]	; 90ec <gpio_set_input+0xc8>
    908c:	e593500c 	ldr	r5, [r3, #12]
    9090:	ea000006 	b	90b0 <gpio_set_input+0x8c>
    9094:	e59f3050 	ldr	r3, [pc, #80]	; 90ec <gpio_set_input+0xc8>
    9098:	e5935010 	ldr	r5, [r3, #16]
    909c:	ea000003 	b	90b0 <gpio_set_input+0x8c>
    90a0:	e59f3044 	ldr	r3, [pc, #68]	; 90ec <gpio_set_input+0xc8>
    90a4:	e5935014 	ldr	r5, [r3, #20]
    90a8:	ea000000 	b	90b0 <gpio_set_input+0x8c>
    90ac:	e3a05000 	mov	r5, #0
    90b0:	e1a00005 	mov	r0, r5
    90b4:	eb00031d 	bl	9d30 <get32>
    90b8:	e59f1028 	ldr	r1, [pc, #40]	; 90e8 <gpio_set_input+0xc4>
    90bc:	e0813491 	umull	r3, r1, r1, r4
    90c0:	e1a011a1 	lsr	r1, r1, #3
    90c4:	e0811101 	add	r1, r1, r1, lsl #2
    90c8:	e1a01081 	lsl	r1, r1, #1
    90cc:	e0611004 	rsb	r1, r1, r4
    90d0:	e0811081 	add	r1, r1, r1, lsl #1
    90d4:	e3a03007 	mov	r3, #7
    90d8:	e1c01113 	bic	r1, r0, r3, lsl r1
    90dc:	e1a00005 	mov	r0, r5
    90e0:	eb000306 	bl	9d00 <put32>
    90e4:	e8bd8038 	pop	{r3, r4, r5, pc}
    90e8:	cccccccd 	stclgt	12, cr12, [ip], {205}	; 0xcd
    90ec:	00009fc4 	andeq	r9, r0, r4, asr #31

000090f0 <gpio_read>:
    90f0:	e92d4010 	push	{r4, lr}
    90f4:	e1a04000 	mov	r4, r0
    90f8:	e350001f 	cmp	r0, #31
    90fc:	8a00000b 	bhi	9130 <gpio_read+0x40>
    9100:	8a000003 	bhi	9114 <gpio_read+0x24>
    9104:	e59f302c 	ldr	r3, [pc, #44]	; 9138 <gpio_read+0x48>
    9108:	e5930028 	ldr	r0, [r3, #40]	; 0x28
    910c:	eb000307 	bl	9d30 <get32>
    9110:	ea000002 	b	9120 <gpio_read+0x30>
    9114:	e59f301c 	ldr	r3, [pc, #28]	; 9138 <gpio_read+0x48>
    9118:	e593002c 	ldr	r0, [r3, #44]	; 0x2c
    911c:	eb000303 	bl	9d30 <get32>
    9120:	e204401f 	and	r4, r4, #31
    9124:	e3a03001 	mov	r3, #1
    9128:	e0000413 	and	r0, r0, r3, lsl r4
    912c:	e8bd8010 	pop	{r4, pc}
    9130:	e3e00000 	mvn	r0, #0
    9134:	e8bd8010 	pop	{r4, pc}
    9138:	00009fc4 	andeq	r9, r0, r4, asr #31

0000913c <gpio_write>:
    913c:	e92d4008 	push	{r3, lr}
    9140:	e350001f 	cmp	r0, #31
    9144:	88bd8008 	pophi	{r3, pc}
    9148:	e3510000 	cmp	r1, #0
    914c:	0a000001 	beq	9158 <gpio_write+0x1c>
    9150:	ebffff97 	bl	8fb4 <gpio_set_on>
    9154:	e8bd8008 	pop	{r3, pc}
    9158:	ebffffa3 	bl	8fec <gpio_set_off>
    915c:	e8bd8008 	pop	{r3, pc}

00009160 <gpio_set_function>:
    9160:	e92d4070 	push	{r4, r5, r6, lr}
    9164:	e1a04000 	mov	r4, r0
    9168:	e1a05001 	mov	r5, r1
    916c:	e3510007 	cmp	r1, #7
    9170:	9350001f 	cmpls	r0, #31
    9174:	88bd8070 	pophi	{r4, r5, r6, pc}
    9178:	e59f30b0 	ldr	r3, [pc, #176]	; 9230 <gpio_set_function+0xd0>
    917c:	e0832093 	umull	r2, r3, r3, r0
    9180:	e1a031a3 	lsr	r3, r3, #3
    9184:	e3530005 	cmp	r3, #5
    9188:	979ff103 	ldrls	pc, [pc, r3, lsl #2]
    918c:	ea000017 	b	91f0 <gpio_set_function+0x90>
    9190:	000091a8 	andeq	r9, r0, r8, lsr #3
    9194:	000091b4 			; <UNDEFINED> instruction: 0x000091b4
    9198:	000091c0 	andeq	r9, r0, r0, asr #3
    919c:	000091cc 	andeq	r9, r0, ip, asr #3
    91a0:	000091d8 	ldrdeq	r9, [r0], -r8
    91a4:	000091e4 	andeq	r9, r0, r4, ror #3
    91a8:	e59f3084 	ldr	r3, [pc, #132]	; 9234 <gpio_set_function+0xd4>
    91ac:	e5936000 	ldr	r6, [r3]
    91b0:	ea00000f 	b	91f4 <gpio_set_function+0x94>
    91b4:	e59f3078 	ldr	r3, [pc, #120]	; 9234 <gpio_set_function+0xd4>
    91b8:	e5936004 	ldr	r6, [r3, #4]
    91bc:	ea00000c 	b	91f4 <gpio_set_function+0x94>
    91c0:	e59f306c 	ldr	r3, [pc, #108]	; 9234 <gpio_set_function+0xd4>
    91c4:	e5936008 	ldr	r6, [r3, #8]
    91c8:	ea000009 	b	91f4 <gpio_set_function+0x94>
    91cc:	e59f3060 	ldr	r3, [pc, #96]	; 9234 <gpio_set_function+0xd4>
    91d0:	e593600c 	ldr	r6, [r3, #12]
    91d4:	ea000006 	b	91f4 <gpio_set_function+0x94>
    91d8:	e59f3054 	ldr	r3, [pc, #84]	; 9234 <gpio_set_function+0xd4>
    91dc:	e5936010 	ldr	r6, [r3, #16]
    91e0:	ea000003 	b	91f4 <gpio_set_function+0x94>
    91e4:	e59f3048 	ldr	r3, [pc, #72]	; 9234 <gpio_set_function+0xd4>
    91e8:	e5936014 	ldr	r6, [r3, #20]
    91ec:	ea000000 	b	91f4 <gpio_set_function+0x94>
    91f0:	e3a06000 	mov	r6, #0
    91f4:	e1a00006 	mov	r0, r6
    91f8:	eb0002cc 	bl	9d30 <get32>
    91fc:	e59f302c 	ldr	r3, [pc, #44]	; 9230 <gpio_set_function+0xd0>
    9200:	e0832493 	umull	r2, r3, r3, r4
    9204:	e1a031a3 	lsr	r3, r3, #3
    9208:	e0833103 	add	r3, r3, r3, lsl #2
    920c:	e1a03083 	lsl	r3, r3, #1
    9210:	e0633004 	rsb	r3, r3, r4
    9214:	e0833083 	add	r3, r3, r3, lsl #1
    9218:	e3a01007 	mov	r1, #7
    921c:	e1c01311 	bic	r1, r0, r1, lsl r3
    9220:	e1a00006 	mov	r0, r6
    9224:	e1811315 	orr	r1, r1, r5, lsl r3
    9228:	eb0002b4 	bl	9d00 <put32>
    922c:	e8bd8070 	pop	{r4, r5, r6, pc}
    9230:	cccccccd 	stclgt	12, cr12, [ip], {205}	; 0xcd
    9234:	00009fc4 	andeq	r9, r0, r4, asr #31

00009238 <gpio_toggle>:
    9238:	e92d4008 	push	{r3, lr}
    923c:	e350001f 	cmp	r0, #31
    9240:	88bd8008 	pophi	{r3, pc}
    9244:	959f3020 	ldrls	r3, [pc, #32]	; 926c <gpio_toggle+0x34>
    9248:	95932018 	ldrls	r2, [r3, #24]
    924c:	859f3018 	ldrhi	r3, [pc, #24]	; 926c <gpio_toggle+0x34>
    9250:	8593201c 	ldrhi	r2, [r3, #28]
    9254:	e200301f 	and	r3, r0, #31
    9258:	e1a00002 	mov	r0, r2
    925c:	e3a01001 	mov	r1, #1
    9260:	e1a01311 	lsl	r1, r1, r3
    9264:	eb0002a5 	bl	9d00 <put32>
    9268:	e8bd8008 	pop	{r3, pc}
    926c:	00009fc4 	andeq	r9, r0, r4, asr #31

00009270 <is_gpio_int>:
    9270:	e92d4008 	push	{r3, lr}
    9274:	e59f301c 	ldr	r3, [pc, #28]	; 9298 <is_gpio_int+0x28>
    9278:	e5930030 	ldr	r0, [r3, #48]	; 0x30
    927c:	eb0002ab 	bl	9d30 <get32>
    9280:	e3500000 	cmp	r0, #0
    9284:	0a000001 	beq	9290 <is_gpio_int+0x20>
    9288:	e3a00001 	mov	r0, #1
    928c:	e8bd8008 	pop	{r3, pc}
    9290:	e3a00000 	mov	r0, #0
    9294:	e8bd8008 	pop	{r3, pc}
    9298:	00009fc4 	andeq	r9, r0, r4, asr #31

0000929c <gpio_int_rising_edge>:
    929c:	e92d4038 	push	{r3, r4, r5, lr}
    92a0:	e1a04000 	mov	r4, r0
    92a4:	e350001f 	cmp	r0, #31
    92a8:	88bd8038 	pophi	{r3, r4, r5, pc}
    92ac:	eb00028d 	bl	9ce8 <dev_barrier>
    92b0:	e354001f 	cmp	r4, #31
    92b4:	8a000007 	bhi	92d8 <gpio_int_rising_edge+0x3c>
    92b8:	e59f505c 	ldr	r5, [pc, #92]	; 931c <gpio_int_rising_edge+0x80>
    92bc:	e5950034 	ldr	r0, [r5, #52]	; 0x34
    92c0:	eb00029a 	bl	9d30 <get32>
    92c4:	e3a01001 	mov	r1, #1
    92c8:	e1801411 	orr	r1, r0, r1, lsl r4
    92cc:	e5950034 	ldr	r0, [r5, #52]	; 0x34
    92d0:	eb00028a 	bl	9d00 <put32>
    92d4:	ea000007 	b	92f8 <gpio_int_rising_edge+0x5c>
    92d8:	e59f503c 	ldr	r5, [pc, #60]	; 931c <gpio_int_rising_edge+0x80>
    92dc:	e5950038 	ldr	r0, [r5, #56]	; 0x38
    92e0:	eb000292 	bl	9d30 <get32>
    92e4:	e204401f 	and	r4, r4, #31
    92e8:	e3a01001 	mov	r1, #1
    92ec:	e1801411 	orr	r1, r0, r1, lsl r4
    92f0:	e5950038 	ldr	r0, [r5, #56]	; 0x38
    92f4:	eb000281 	bl	9d00 <put32>
    92f8:	eb00027a 	bl	9ce8 <dev_barrier>
    92fc:	e59f4018 	ldr	r4, [pc, #24]	; 931c <gpio_int_rising_edge+0x80>
    9300:	e594003c 	ldr	r0, [r4, #60]	; 0x3c
    9304:	eb000289 	bl	9d30 <get32>
    9308:	e3801802 	orr	r1, r0, #131072	; 0x20000
    930c:	e594003c 	ldr	r0, [r4, #60]	; 0x3c
    9310:	eb00027a 	bl	9d00 <put32>
    9314:	eb000273 	bl	9ce8 <dev_barrier>
    9318:	e8bd8038 	pop	{r3, r4, r5, pc}
    931c:	00009fc4 	andeq	r9, r0, r4, asr #31

00009320 <gpio_int_falling_edge>:
    9320:	e92d4038 	push	{r3, r4, r5, lr}
    9324:	e1a04000 	mov	r4, r0
    9328:	e350001f 	cmp	r0, #31
    932c:	88bd8038 	pophi	{r3, r4, r5, pc}
    9330:	eb00026c 	bl	9ce8 <dev_barrier>
    9334:	e354001f 	cmp	r4, #31
    9338:	8a000007 	bhi	935c <gpio_int_falling_edge+0x3c>
    933c:	e59f505c 	ldr	r5, [pc, #92]	; 93a0 <gpio_int_falling_edge+0x80>
    9340:	e5950040 	ldr	r0, [r5, #64]	; 0x40
    9344:	eb000279 	bl	9d30 <get32>
    9348:	e3a01001 	mov	r1, #1
    934c:	e1801411 	orr	r1, r0, r1, lsl r4
    9350:	e5950040 	ldr	r0, [r5, #64]	; 0x40
    9354:	eb000269 	bl	9d00 <put32>
    9358:	ea000007 	b	937c <gpio_int_falling_edge+0x5c>
    935c:	e59f503c 	ldr	r5, [pc, #60]	; 93a0 <gpio_int_falling_edge+0x80>
    9360:	e5950044 	ldr	r0, [r5, #68]	; 0x44
    9364:	eb000271 	bl	9d30 <get32>
    9368:	e204401f 	and	r4, r4, #31
    936c:	e3a01001 	mov	r1, #1
    9370:	e1801411 	orr	r1, r0, r1, lsl r4
    9374:	e5950044 	ldr	r0, [r5, #68]	; 0x44
    9378:	eb000260 	bl	9d00 <put32>
    937c:	eb000259 	bl	9ce8 <dev_barrier>
    9380:	e59f4018 	ldr	r4, [pc, #24]	; 93a0 <gpio_int_falling_edge+0x80>
    9384:	e594003c 	ldr	r0, [r4, #60]	; 0x3c
    9388:	eb000268 	bl	9d30 <get32>
    938c:	e3801601 	orr	r1, r0, #1048576	; 0x100000
    9390:	e594003c 	ldr	r0, [r4, #60]	; 0x3c
    9394:	eb000259 	bl	9d00 <put32>
    9398:	eb000252 	bl	9ce8 <dev_barrier>
    939c:	e8bd8038 	pop	{r3, r4, r5, pc}
    93a0:	00009fc4 	andeq	r9, r0, r4, asr #31

000093a4 <gpio_event_detected>:
    93a4:	e92d4010 	push	{r4, lr}
    93a8:	e1a04000 	mov	r4, r0
    93ac:	e350001f 	cmp	r0, #31
    93b0:	8a000019 	bhi	941c <gpio_event_detected+0x78>
    93b4:	eb00024b 	bl	9ce8 <dev_barrier>
    93b8:	e354001f 	cmp	r4, #31
    93bc:	8a000008 	bhi	93e4 <gpio_event_detected+0x40>
    93c0:	e59f305c 	ldr	r3, [pc, #92]	; 9424 <gpio_event_detected+0x80>
    93c4:	e5930048 	ldr	r0, [r3, #72]	; 0x48
    93c8:	eb000258 	bl	9d30 <get32>
    93cc:	e3a03001 	mov	r3, #1
    93d0:	e0103413 	ands	r3, r0, r3, lsl r4
    93d4:	0a00000d 	beq	9410 <gpio_event_detected+0x6c>
    93d8:	eb000242 	bl	9ce8 <dev_barrier>
    93dc:	e3a00001 	mov	r0, #1
    93e0:	e8bd8010 	pop	{r4, pc}
    93e4:	e59f3038 	ldr	r3, [pc, #56]	; 9424 <gpio_event_detected+0x80>
    93e8:	e593004c 	ldr	r0, [r3, #76]	; 0x4c
    93ec:	eb00024f 	bl	9d30 <get32>
    93f0:	e3a03001 	mov	r3, #1
    93f4:	e0004413 	and	r4, r0, r3, lsl r4
    93f8:	eb00023a 	bl	9ce8 <dev_barrier>
    93fc:	e3540000 	cmp	r4, #0
    9400:	0a000002 	beq	9410 <gpio_event_detected+0x6c>
    9404:	eb000237 	bl	9ce8 <dev_barrier>
    9408:	e3a00001 	mov	r0, #1
    940c:	e8bd8010 	pop	{r4, pc}
    9410:	eb000234 	bl	9ce8 <dev_barrier>
    9414:	e3a00000 	mov	r0, #0
    9418:	e8bd8010 	pop	{r4, pc}
    941c:	e3e00000 	mvn	r0, #0
    9420:	e8bd8010 	pop	{r4, pc}
    9424:	00009fc4 	andeq	r9, r0, r4, asr #31

00009428 <gpio_event_clear>:
    9428:	e92d4010 	push	{r4, lr}
    942c:	e1a04000 	mov	r4, r0
    9430:	e350001f 	cmp	r0, #31
    9434:	88bd8010 	pophi	{r4, pc}
    9438:	eb00022a 	bl	9ce8 <dev_barrier>
    943c:	e354001f 	cmp	r4, #31
    9440:	8a000005 	bhi	945c <gpio_event_clear+0x34>
    9444:	e59f3030 	ldr	r3, [pc, #48]	; 947c <gpio_event_clear+0x54>
    9448:	e5930048 	ldr	r0, [r3, #72]	; 0x48
    944c:	e3a01001 	mov	r1, #1
    9450:	e1a01411 	lsl	r1, r1, r4
    9454:	eb000229 	bl	9d00 <put32>
    9458:	ea000005 	b	9474 <gpio_event_clear+0x4c>
    945c:	e204401f 	and	r4, r4, #31
    9460:	e59f3014 	ldr	r3, [pc, #20]	; 947c <gpio_event_clear+0x54>
    9464:	e593004c 	ldr	r0, [r3, #76]	; 0x4c
    9468:	e3a01001 	mov	r1, #1
    946c:	e1a01411 	lsl	r1, r1, r4
    9470:	eb000222 	bl	9d00 <put32>
    9474:	eb00021b 	bl	9ce8 <dev_barrier>
    9478:	e8bd8010 	pop	{r4, pc}
    947c:	00009fc4 	andeq	r9, r0, r4, asr #31

00009480 <sw_uart_putc>:
    9480:	e92d41f0 	push	{r4, r5, r6, r7, r8, lr}
    9484:	e1a07001 	mov	r7, r1
    9488:	e5d06000 	ldrb	r6, [r0]
    948c:	e5905008 	ldr	r5, [r0, #8]
    9490:	ee1f4f3c 	mrc	15, 0, r4, cr15, cr12, {1}
    9494:	e1a00006 	mov	r0, r6
    9498:	e3a01000 	mov	r1, #0
    949c:	ebffff26 	bl	913c <gpio_write>
    94a0:	ee1f3f3c 	mrc	15, 0, r3, cr15, cr12, {1}
    94a4:	e0643003 	rsb	r3, r4, r3
    94a8:	e1550003 	cmp	r5, r3
    94ac:	8afffffb 	bhi	94a0 <sw_uart_putc+0x20>
    94b0:	e1a08085 	lsl	r8, r5, #1
    94b4:	e1a00006 	mov	r0, r6
    94b8:	e2071001 	and	r1, r7, #1
    94bc:	ebffff1e 	bl	913c <gpio_write>
    94c0:	ee1f3f3c 	mrc	15, 0, r3, cr15, cr12, {1}
    94c4:	e0643003 	rsb	r3, r4, r3
    94c8:	e1580003 	cmp	r8, r3
    94cc:	8afffffb 	bhi	94c0 <sw_uart_putc+0x40>
    94d0:	e0888005 	add	r8, r8, r5
    94d4:	e1a00006 	mov	r0, r6
    94d8:	e2071002 	and	r1, r7, #2
    94dc:	ebffff16 	bl	913c <gpio_write>
    94e0:	ee1f3f3c 	mrc	15, 0, r3, cr15, cr12, {1}
    94e4:	e0643003 	rsb	r3, r4, r3
    94e8:	e1580003 	cmp	r8, r3
    94ec:	8afffffb 	bhi	94e0 <sw_uart_putc+0x60>
    94f0:	e0888005 	add	r8, r8, r5
    94f4:	e1a00006 	mov	r0, r6
    94f8:	e2071004 	and	r1, r7, #4
    94fc:	ebffff0e 	bl	913c <gpio_write>
    9500:	ee1f3f3c 	mrc	15, 0, r3, cr15, cr12, {1}
    9504:	e0643003 	rsb	r3, r4, r3
    9508:	e1580003 	cmp	r8, r3
    950c:	8afffffb 	bhi	9500 <sw_uart_putc+0x80>
    9510:	e0888005 	add	r8, r8, r5
    9514:	e1a00006 	mov	r0, r6
    9518:	e2071008 	and	r1, r7, #8
    951c:	ebffff06 	bl	913c <gpio_write>
    9520:	ee1f3f3c 	mrc	15, 0, r3, cr15, cr12, {1}
    9524:	e0643003 	rsb	r3, r4, r3
    9528:	e1580003 	cmp	r8, r3
    952c:	8afffffb 	bhi	9520 <sw_uart_putc+0xa0>
    9530:	e0888005 	add	r8, r8, r5
    9534:	e1a00006 	mov	r0, r6
    9538:	e2071010 	and	r1, r7, #16
    953c:	ebfffefe 	bl	913c <gpio_write>
    9540:	ee1f3f3c 	mrc	15, 0, r3, cr15, cr12, {1}
    9544:	e0643003 	rsb	r3, r4, r3
    9548:	e1580003 	cmp	r8, r3
    954c:	8afffffb 	bhi	9540 <sw_uart_putc+0xc0>
    9550:	e0888005 	add	r8, r8, r5
    9554:	e1a00006 	mov	r0, r6
    9558:	e2071020 	and	r1, r7, #32
    955c:	ebfffef6 	bl	913c <gpio_write>
    9560:	ee1f3f3c 	mrc	15, 0, r3, cr15, cr12, {1}
    9564:	e0643003 	rsb	r3, r4, r3
    9568:	e1580003 	cmp	r8, r3
    956c:	8afffffb 	bhi	9560 <sw_uart_putc+0xe0>
    9570:	e0888005 	add	r8, r8, r5
    9574:	e1a00006 	mov	r0, r6
    9578:	e2071040 	and	r1, r7, #64	; 0x40
    957c:	ebfffeee 	bl	913c <gpio_write>
    9580:	ee1f3f3c 	mrc	15, 0, r3, cr15, cr12, {1}
    9584:	e0643003 	rsb	r3, r4, r3
    9588:	e1580003 	cmp	r8, r3
    958c:	8afffffb 	bhi	9580 <sw_uart_putc+0x100>
    9590:	e0888005 	add	r8, r8, r5
    9594:	e1a00006 	mov	r0, r6
    9598:	e2071080 	and	r1, r7, #128	; 0x80
    959c:	ebfffee6 	bl	913c <gpio_write>
    95a0:	ee1f3f3c 	mrc	15, 0, r3, cr15, cr12, {1}
    95a4:	e0643003 	rsb	r3, r4, r3
    95a8:	e1580003 	cmp	r8, r3
    95ac:	8afffffb 	bhi	95a0 <sw_uart_putc+0x120>
    95b0:	e0885005 	add	r5, r8, r5
    95b4:	e1a00006 	mov	r0, r6
    95b8:	e3a01001 	mov	r1, #1
    95bc:	ebfffede 	bl	913c <gpio_write>
    95c0:	ee1f3f3c 	mrc	15, 0, r3, cr15, cr12, {1}
    95c4:	e0643003 	rsb	r3, r4, r3
    95c8:	e1550003 	cmp	r5, r3
    95cc:	8afffffb 	bhi	95c0 <sw_uart_putc+0x140>
    95d0:	e8bd81f0 	pop	{r4, r5, r6, r7, r8, pc}

000095d4 <sw_uart_getc_timeout>:
    95d4:	e92d43f8 	push	{r3, r4, r5, r6, r7, r8, r9, lr}
    95d8:	e1a09000 	mov	r9, r0
    95dc:	e5d07001 	ldrb	r7, [r0, #1]
    95e0:	e1a05007 	mov	r5, r7
    95e4:	e1a06001 	mov	r6, r1
    95e8:	ebfffe21 	bl	8e74 <timer_get_usec_raw>
    95ec:	e1a04000 	mov	r4, r0
    95f0:	e1a00005 	mov	r0, r5
    95f4:	ebfffebd 	bl	90f0 <gpio_read>
    95f8:	e3500000 	cmp	r0, #0
    95fc:	0a000005 	beq	9618 <sw_uart_getc_timeout+0x44>
    9600:	ebfffe1b 	bl	8e74 <timer_get_usec_raw>
    9604:	e0640000 	rsb	r0, r4, r0
    9608:	e1560000 	cmp	r6, r0
    960c:	2afffff7 	bcs	95f0 <sw_uart_getc_timeout+0x1c>
    9610:	e3a03000 	mov	r3, #0
    9614:	ea000000 	b	961c <sw_uart_getc_timeout+0x48>
    9618:	e3a03001 	mov	r3, #1
    961c:	e3530000 	cmp	r3, #0
    9620:	0a000059 	beq	978c <sw_uart_getc_timeout+0x1b8>
    9624:	ee1f8f3c 	mrc	15, 0, r8, cr15, cr12, {1}
    9628:	e5994008 	ldr	r4, [r9, #8]
    962c:	e08420a4 	add	r2, r4, r4, lsr #1
    9630:	ee1f3f3c 	mrc	15, 0, r3, cr15, cr12, {1}
    9634:	e0683003 	rsb	r3, r8, r3
    9638:	e1520003 	cmp	r2, r3
    963c:	8afffffb 	bhi	9630 <sw_uart_getc_timeout+0x5c>
    9640:	e0888004 	add	r8, r8, r4
    9644:	e1a00007 	mov	r0, r7
    9648:	ebfffea8 	bl	90f0 <gpio_read>
    964c:	e1a09750 	asr	r9, r0, r7
    9650:	ee1f3f3c 	mrc	15, 0, r3, cr15, cr12, {1}
    9654:	e0683003 	rsb	r3, r8, r3
    9658:	e1540003 	cmp	r4, r3
    965c:	8afffffb 	bhi	9650 <sw_uart_getc_timeout+0x7c>
    9660:	e0888004 	add	r8, r8, r4
    9664:	e1a00007 	mov	r0, r7
    9668:	ebfffea0 	bl	90f0 <gpio_read>
    966c:	e1a00750 	asr	r0, r0, r7
    9670:	e1899080 	orr	r9, r9, r0, lsl #1
    9674:	ee1f3f3c 	mrc	15, 0, r3, cr15, cr12, {1}
    9678:	e0683003 	rsb	r3, r8, r3
    967c:	e1540003 	cmp	r4, r3
    9680:	8afffffb 	bhi	9674 <sw_uart_getc_timeout+0xa0>
    9684:	e0888004 	add	r8, r8, r4
    9688:	e1a00007 	mov	r0, r7
    968c:	ebfffe97 	bl	90f0 <gpio_read>
    9690:	e1a00750 	asr	r0, r0, r7
    9694:	e1899100 	orr	r9, r9, r0, lsl #2
    9698:	ee1f3f3c 	mrc	15, 0, r3, cr15, cr12, {1}
    969c:	e0683003 	rsb	r3, r8, r3
    96a0:	e1540003 	cmp	r4, r3
    96a4:	8afffffb 	bhi	9698 <sw_uart_getc_timeout+0xc4>
    96a8:	e0888004 	add	r8, r8, r4
    96ac:	e1a00007 	mov	r0, r7
    96b0:	ebfffe8e 	bl	90f0 <gpio_read>
    96b4:	e1a00750 	asr	r0, r0, r7
    96b8:	e1899180 	orr	r9, r9, r0, lsl #3
    96bc:	ee1f3f3c 	mrc	15, 0, r3, cr15, cr12, {1}
    96c0:	e0683003 	rsb	r3, r8, r3
    96c4:	e1540003 	cmp	r4, r3
    96c8:	8afffffb 	bhi	96bc <sw_uart_getc_timeout+0xe8>
    96cc:	e0888004 	add	r8, r8, r4
    96d0:	e1a00007 	mov	r0, r7
    96d4:	ebfffe85 	bl	90f0 <gpio_read>
    96d8:	e1a00750 	asr	r0, r0, r7
    96dc:	e1899200 	orr	r9, r9, r0, lsl #4
    96e0:	ee1f3f3c 	mrc	15, 0, r3, cr15, cr12, {1}
    96e4:	e0683003 	rsb	r3, r8, r3
    96e8:	e1540003 	cmp	r4, r3
    96ec:	8afffffb 	bhi	96e0 <sw_uart_getc_timeout+0x10c>
    96f0:	e0888004 	add	r8, r8, r4
    96f4:	e1a00007 	mov	r0, r7
    96f8:	ebfffe7c 	bl	90f0 <gpio_read>
    96fc:	e1a00750 	asr	r0, r0, r7
    9700:	e1899280 	orr	r9, r9, r0, lsl #5
    9704:	ee1f3f3c 	mrc	15, 0, r3, cr15, cr12, {1}
    9708:	e0683003 	rsb	r3, r8, r3
    970c:	e1540003 	cmp	r4, r3
    9710:	8afffffb 	bhi	9704 <sw_uart_getc_timeout+0x130>
    9714:	e0888004 	add	r8, r8, r4
    9718:	e1a00007 	mov	r0, r7
    971c:	ebfffe73 	bl	90f0 <gpio_read>
    9720:	e1a00750 	asr	r0, r0, r7
    9724:	e1899300 	orr	r9, r9, r0, lsl #6
    9728:	ee1f3f3c 	mrc	15, 0, r3, cr15, cr12, {1}
    972c:	e0683003 	rsb	r3, r8, r3
    9730:	e1540003 	cmp	r4, r3
    9734:	8afffffb 	bhi	9728 <sw_uart_getc_timeout+0x154>
    9738:	e1a00007 	mov	r0, r7
    973c:	ebfffe6b 	bl	90f0 <gpio_read>
    9740:	e1a00750 	asr	r0, r0, r7
    9744:	e1899380 	orr	r9, r9, r0, lsl #7
    9748:	ebfffdc9 	bl	8e74 <timer_get_usec_raw>
    974c:	e1a04000 	mov	r4, r0
    9750:	e1a00005 	mov	r0, r5
    9754:	ebfffe65 	bl	90f0 <gpio_read>
    9758:	e3500000 	cmp	r0, #0
    975c:	0a000005 	beq	9778 <sw_uart_getc_timeout+0x1a4>
    9760:	ebfffdc3 	bl	8e74 <timer_get_usec_raw>
    9764:	e0640000 	rsb	r0, r4, r0
    9768:	e1560000 	cmp	r6, r0
    976c:	2afffff7 	bcs	9750 <sw_uart_getc_timeout+0x17c>
    9770:	e3a03000 	mov	r3, #0
    9774:	ea000000 	b	977c <sw_uart_getc_timeout+0x1a8>
    9778:	e3a03001 	mov	r3, #1
    977c:	e3530000 	cmp	r3, #0
    9780:	0a000003 	beq	9794 <sw_uart_getc_timeout+0x1c0>
    9784:	e1a00009 	mov	r0, r9
    9788:	e8bd83f8 	pop	{r3, r4, r5, r6, r7, r8, r9, pc}
    978c:	e3e00000 	mvn	r0, #0
    9790:	e8bd83f8 	pop	{r3, r4, r5, r6, r7, r8, r9, pc}
    9794:	e3e00000 	mvn	r0, #0
    9798:	e8bd83f8 	pop	{r3, r4, r5, r6, r7, r8, r9, pc}

0000979c <sw_uart_gets_until>:
    979c:	e92d47f0 	push	{r4, r5, r6, r7, r8, r9, sl, lr}
    97a0:	e24dd008 	sub	sp, sp, #8
    97a4:	e1a08000 	mov	r8, r0
    97a8:	e1a06001 	mov	r6, r1
    97ac:	e1a09003 	mov	r9, r3
    97b0:	e59da028 	ldr	sl, [sp, #40]	; 0x28
    97b4:	e3520000 	cmp	r2, #0
    97b8:	1a000008 	bne	97e0 <sw_uart_gets_until+0x44>
    97bc:	ebfffbea 	bl	876c <rpi_reset_putc>
    97c0:	e59f3068 	ldr	r3, [pc, #104]	; 9830 <sw_uart_gets_until+0x94>
    97c4:	e58d3000 	str	r3, [sp]
    97c8:	e59f0064 	ldr	r0, [pc, #100]	; 9834 <sw_uart_gets_until+0x98>
    97cc:	e59f1064 	ldr	r1, [pc, #100]	; 9838 <sw_uart_gets_until+0x9c>
    97d0:	e59f2064 	ldr	r2, [pc, #100]	; 983c <sw_uart_gets_until+0xa0>
    97d4:	e3a0306d 	mov	r3, #109	; 0x6d
    97d8:	ebfffbc8 	bl	8700 <printk>
    97dc:	ebfffd4a 	bl	8d0c <clean_reboot>
    97e0:	e3a04000 	mov	r4, #0
    97e4:	e5c14000 	strb	r4, [r1]
    97e8:	e2427001 	sub	r7, r2, #1
    97ec:	ea000007 	b	9810 <sw_uart_gets_until+0x74>
    97f0:	e1a00008 	mov	r0, r8
    97f4:	e1a0100a 	mov	r1, sl
    97f8:	ebffff75 	bl	95d4 <sw_uart_getc_timeout>
    97fc:	e6ef0070 	uxtb	r0, r0
    9800:	e1500009 	cmp	r0, r9
    9804:	0a000004 	beq	981c <sw_uart_gets_until+0x80>
    9808:	e7c60005 	strb	r0, [r6, r5]
    980c:	e2844001 	add	r4, r4, #1
    9810:	e1a05004 	mov	r5, r4
    9814:	e1540007 	cmp	r4, r7
    9818:	3afffff4 	bcc	97f0 <sw_uart_gets_until+0x54>
    981c:	e3a03000 	mov	r3, #0
    9820:	e7c63005 	strb	r3, [r6, r5]
    9824:	e1a00004 	mov	r0, r4
    9828:	e28dd008 	add	sp, sp, #8
    982c:	e8bd87f0 	pop	{r4, r5, r6, r7, r8, r9, sl, pc}
    9830:	0000a2b8 			; <UNDEFINED> instruction: 0x0000a2b8
    9834:	0000a12c 	andeq	sl, r0, ip, lsr #2
    9838:	0000a2a4 	andeq	sl, r0, r4, lsr #5
    983c:	0000a22c 	andeq	sl, r0, ip, lsr #4

00009840 <sw_uart_gets_timeout>:
    9840:	e92d41f0 	push	{r4, r5, r6, r7, r8, lr}
    9844:	e24dd008 	sub	sp, sp, #8
    9848:	e1a07000 	mov	r7, r0
    984c:	e1a05001 	mov	r5, r1
    9850:	e1a08003 	mov	r8, r3
    9854:	e3520000 	cmp	r2, #0
    9858:	1a000008 	bne	9880 <sw_uart_gets_timeout+0x40>
    985c:	ebfffbc2 	bl	876c <rpi_reset_putc>
    9860:	e59f3058 	ldr	r3, [pc, #88]	; 98c0 <sw_uart_gets_timeout+0x80>
    9864:	e58d3000 	str	r3, [sp]
    9868:	e59f0054 	ldr	r0, [pc, #84]	; 98c4 <sw_uart_gets_timeout+0x84>
    986c:	e59f1054 	ldr	r1, [pc, #84]	; 98c8 <sw_uart_gets_timeout+0x88>
    9870:	e59f2054 	ldr	r2, [pc, #84]	; 98cc <sw_uart_gets_timeout+0x8c>
    9874:	e3a03083 	mov	r3, #131	; 0x83
    9878:	ebfffba0 	bl	8700 <printk>
    987c:	ebfffd22 	bl	8d0c <clean_reboot>
    9880:	e3a04000 	mov	r4, #0
    9884:	e5c14000 	strb	r4, [r1]
    9888:	e2426001 	sub	r6, r2, #1
    988c:	ea000004 	b	98a4 <sw_uart_gets_timeout+0x64>
    9890:	e1a00007 	mov	r0, r7
    9894:	e1a01008 	mov	r1, r8
    9898:	ebffff4d 	bl	95d4 <sw_uart_getc_timeout>
    989c:	e7c50004 	strb	r0, [r5, r4]
    98a0:	e2844001 	add	r4, r4, #1
    98a4:	e1540006 	cmp	r4, r6
    98a8:	3afffff8 	bcc	9890 <sw_uart_gets_timeout+0x50>
    98ac:	e3a03000 	mov	r3, #0
    98b0:	e7c53004 	strb	r3, [r5, r4]
    98b4:	e1a00004 	mov	r0, r4
    98b8:	e28dd008 	add	sp, sp, #8
    98bc:	e8bd81f0 	pop	{r4, r5, r6, r7, r8, pc}
    98c0:	0000a2b8 			; <UNDEFINED> instruction: 0x0000a2b8
    98c4:	0000a12c 	andeq	sl, r0, ip, lsr #2
    98c8:	0000a2a4 	andeq	sl, r0, r4, lsr #5
    98cc:	0000a240 	andeq	sl, r0, r0, asr #4

000098d0 <sw_uart_init_helper>:
    98d0:	e92d41f0 	push	{r4, r5, r6, r7, r8, lr}
    98d4:	e24dd008 	sub	sp, sp, #8
    98d8:	e1a04000 	mov	r4, r0
    98dc:	e1a06001 	mov	r6, r1
    98e0:	e1a08002 	mov	r8, r2
    98e4:	e1a05003 	mov	r5, r3
    98e8:	e59d7020 	ldr	r7, [sp, #32]
    98ec:	e1a00001 	mov	r0, r1
    98f0:	ebfffd7a 	bl	8ee0 <gpio_set_output>
    98f4:	e1a00008 	mov	r0, r8
    98f8:	ebfffdc9 	bl	9024 <gpio_set_input>
    98fc:	e3a03001 	mov	r3, #1
    9900:	ee0f3f1c 	mcr	15, 0, r3, cr15, cr12, {0}
    9904:	e1a00006 	mov	r0, r6
    9908:	e3a01001 	mov	r1, #1
    990c:	ebfffe0a 	bl	913c <gpio_write>
    9910:	e0020795 	mul	r2, r5, r7
    9914:	e59f3074 	ldr	r3, [pc, #116]	; 9990 <sw_uart_init_helper+0xc0>
    9918:	e0653003 	rsb	r3, r5, r3
    991c:	e1530002 	cmp	r3, r2
    9920:	8a000005 	bhi	993c <sw_uart_init_helper+0x6c>
    9924:	e59f3064 	ldr	r3, [pc, #100]	; 9990 <sw_uart_init_helper+0xc0>
    9928:	e0853003 	add	r3, r5, r3
    992c:	e1530002 	cmp	r3, r2
    9930:	2a000003 	bcs	9944 <sw_uart_init_helper+0x74>
    9934:	e3a03000 	mov	r3, #0
    9938:	ea000002 	b	9948 <sw_uart_init_helper+0x78>
    993c:	e3a03000 	mov	r3, #0
    9940:	ea000000 	b	9948 <sw_uart_init_helper+0x78>
    9944:	e3a03001 	mov	r3, #1
    9948:	e3530000 	cmp	r3, #0
    994c:	1a000008 	bne	9974 <sw_uart_init_helper+0xa4>
    9950:	ebfffb85 	bl	876c <rpi_reset_putc>
    9954:	e59f3038 	ldr	r3, [pc, #56]	; 9994 <sw_uart_init_helper+0xc4>
    9958:	e58d3000 	str	r3, [sp]
    995c:	e59f0034 	ldr	r0, [pc, #52]	; 9998 <sw_uart_init_helper+0xc8>
    9960:	e59f1034 	ldr	r1, [pc, #52]	; 999c <sw_uart_init_helper+0xcc>
    9964:	e59f2034 	ldr	r2, [pc, #52]	; 99a0 <sw_uart_init_helper+0xd0>
    9968:	e3a0309d 	mov	r3, #157	; 0x9d
    996c:	ebfffb63 	bl	8700 <printk>
    9970:	ebfffce5 	bl	8d0c <clean_reboot>
    9974:	e5c46000 	strb	r6, [r4]
    9978:	e5c48001 	strb	r8, [r4, #1]
    997c:	e5845004 	str	r5, [r4, #4]
    9980:	e5847008 	str	r7, [r4, #8]
    9984:	e1a00004 	mov	r0, r4
    9988:	e28dd008 	add	sp, sp, #8
    998c:	e8bd81f0 	pop	{r4, r5, r6, r7, r8, pc}
    9990:	29b92700 	ldmibcs	r9!, {r8, r9, sl, sp}
    9994:	0000a2c4 	andeq	sl, r0, r4, asr #5
    9998:	0000a12c 	andeq	sl, r0, ip, lsr #2
    999c:	0000a2a4 	andeq	sl, r0, r4, lsr #5
    99a0:	0000a258 	andeq	sl, r0, r8, asr r2

000099a4 <sw_uart_getc>:
    99a4:	e92d4008 	push	{r3, lr}
    99a8:	e3e01000 	mvn	r1, #0
    99ac:	ebffff08 	bl	95d4 <sw_uart_getc_timeout>
    99b0:	e3500000 	cmp	r0, #0
    99b4:	a8bd8008 	popge	{r3, pc}
    99b8:	ebfffb6b 	bl	876c <rpi_reset_putc>
    99bc:	e59f0010 	ldr	r0, [pc, #16]	; 99d4 <sw_uart_getc+0x30>
    99c0:	e59f1010 	ldr	r1, [pc, #16]	; 99d8 <sw_uart_getc+0x34>
    99c4:	e59f2010 	ldr	r2, [pc, #16]	; 99dc <sw_uart_getc+0x38>
    99c8:	e3a030ac 	mov	r3, #172	; 0xac
    99cc:	ebfffb4b 	bl	8700 <printk>
    99d0:	ebfffccd 	bl	8d0c <clean_reboot>
    99d4:	0000a2f8 	strdeq	sl, [r0], -r8
    99d8:	0000a2a4 	andeq	sl, r0, r4, lsr #5
    99dc:	0000a26c 	andeq	sl, r0, ip, ror #4

000099e0 <sw_uart_putk>:
    99e0:	e92d4038 	push	{r3, r4, r5, lr}
    99e4:	e1a05000 	mov	r5, r0
    99e8:	e1a04001 	mov	r4, r1
    99ec:	ea000002 	b	99fc <sw_uart_putk+0x1c>
    99f0:	e1a00005 	mov	r0, r5
    99f4:	ebfffea1 	bl	9480 <sw_uart_putc>
    99f8:	e2844001 	add	r4, r4, #1
    99fc:	e5d41000 	ldrb	r1, [r4]
    9a00:	e3510000 	cmp	r1, #0
    9a04:	1afffff9 	bne	99f0 <sw_uart_putk+0x10>
    9a08:	e8bd8038 	pop	{r3, r4, r5, pc}

00009a0c <sw_uart_printk>:
    9a0c:	e92d000e 	push	{r1, r2, r3}
    9a10:	e92d4030 	push	{r4, r5, lr}
    9a14:	e24ddf76 	sub	sp, sp, #472	; 0x1d8
    9a18:	e1a05000 	mov	r5, r0
    9a1c:	e28d3f7a 	add	r3, sp, #488	; 0x1e8
    9a20:	e58d3008 	str	r3, [sp, #8]
    9a24:	e28d000c 	add	r0, sp, #12
    9a28:	e3a01f73 	mov	r1, #460	; 0x1cc
    9a2c:	e59d21e4 	ldr	r2, [sp, #484]	; 0x1e4
    9a30:	ebfffc08 	bl	8a58 <va_printk>
    9a34:	e1a04000 	mov	r4, r0
    9a38:	e59f3048 	ldr	r3, [pc, #72]	; 9a88 <sw_uart_printk+0x7c>
    9a3c:	e1500003 	cmp	r0, r3
    9a40:	9a000008 	bls	9a68 <sw_uart_printk+0x5c>
    9a44:	ebfffb48 	bl	876c <rpi_reset_putc>
    9a48:	e59f303c 	ldr	r3, [pc, #60]	; 9a8c <sw_uart_printk+0x80>
    9a4c:	e58d3000 	str	r3, [sp]
    9a50:	e59f0038 	ldr	r0, [pc, #56]	; 9a90 <sw_uart_printk+0x84>
    9a54:	e59f1038 	ldr	r1, [pc, #56]	; 9a94 <sw_uart_printk+0x88>
    9a58:	e59f2038 	ldr	r2, [pc, #56]	; 9a98 <sw_uart_printk+0x8c>
    9a5c:	e3a030c0 	mov	r3, #192	; 0xc0
    9a60:	ebfffb26 	bl	8700 <printk>
    9a64:	ebfffca8 	bl	8d0c <clean_reboot>
    9a68:	e1a00005 	mov	r0, r5
    9a6c:	e28d100c 	add	r1, sp, #12
    9a70:	ebffffda 	bl	99e0 <sw_uart_putk>
    9a74:	e1a00004 	mov	r0, r4
    9a78:	e28ddf76 	add	sp, sp, #472	; 0x1d8
    9a7c:	e8bd4030 	pop	{r4, r5, lr}
    9a80:	e28dd00c 	add	sp, sp, #12
    9a84:	e12fff1e 	bx	lr
    9a88:	000001ca 	andeq	r0, r0, sl, asr #3
    9a8c:	0000a330 	andeq	sl, r0, r0, lsr r3
    9a90:	0000a12c 	andeq	sl, r0, ip, lsr #2
    9a94:	0000a2a4 	andeq	sl, r0, r4, lsr #5
    9a98:	0000a27c 	andeq	sl, r0, ip, ror r2

00009a9c <sw_uart_gets_until_blk>:
    9a9c:	e52de004 	push	{lr}		; (str lr, [sp, #-4]!)
    9aa0:	e24dd00c 	sub	sp, sp, #12
    9aa4:	e3e0c000 	mvn	ip, #0
    9aa8:	e58dc000 	str	ip, [sp]
    9aac:	ebffff3a 	bl	979c <sw_uart_gets_until>
    9ab0:	e3500000 	cmp	r0, #0
    9ab4:	aa000006 	bge	9ad4 <sw_uart_gets_until_blk+0x38>
    9ab8:	ebfffb2b 	bl	876c <rpi_reset_putc>
    9abc:	e59f0018 	ldr	r0, [pc, #24]	; 9adc <sw_uart_gets_until_blk+0x40>
    9ac0:	e59f1018 	ldr	r1, [pc, #24]	; 9ae0 <sw_uart_gets_until_blk+0x44>
    9ac4:	e59f2018 	ldr	r2, [pc, #24]	; 9ae4 <sw_uart_gets_until_blk+0x48>
    9ac8:	e3a030c8 	mov	r3, #200	; 0xc8
    9acc:	ebfffb0b 	bl	8700 <printk>
    9ad0:	ebfffc8d 	bl	8d0c <clean_reboot>
    9ad4:	e28dd00c 	add	sp, sp, #12
    9ad8:	e49df004 	pop	{pc}		; (ldr pc, [sp], #4)
    9adc:	0000a2f8 	strdeq	sl, [r0], -r8
    9ae0:	0000a2a4 	andeq	sl, r0, r4, lsr #5
    9ae4:	0000a28c 	andeq	sl, r0, ip, lsl #5

00009ae8 <uart_init>:
    9ae8:	e92d4038 	push	{r3, r4, r5, lr}
    9aec:	eb00007d 	bl	9ce8 <dev_barrier>
    9af0:	e3a0000e 	mov	r0, #14
    9af4:	e3a01002 	mov	r1, #2
    9af8:	ebfffd98 	bl	9160 <gpio_set_function>
    9afc:	e3a0000f 	mov	r0, #15
    9b00:	e3a01002 	mov	r1, #2
    9b04:	ebfffd95 	bl	9160 <gpio_set_function>
    9b08:	eb000076 	bl	9ce8 <dev_barrier>
    9b0c:	e59f4068 	ldr	r4, [pc, #104]	; 9b7c <uart_init+0x94>
    9b10:	e5945000 	ldr	r5, [r4]
    9b14:	e1a00005 	mov	r0, r5
    9b18:	eb000084 	bl	9d30 <get32>
    9b1c:	e3801001 	orr	r1, r0, #1
    9b20:	e1a00005 	mov	r0, r5
    9b24:	eb000075 	bl	9d00 <put32>
    9b28:	eb00006e 	bl	9ce8 <dev_barrier>
    9b2c:	e5940004 	ldr	r0, [r4, #4]
    9b30:	e3a01000 	mov	r1, #0
    9b34:	eb000071 	bl	9d00 <put32>
    9b38:	e5940008 	ldr	r0, [r4, #8]
    9b3c:	e3a01000 	mov	r1, #0
    9b40:	eb00006e 	bl	9d00 <put32>
    9b44:	e594000c 	ldr	r0, [r4, #12]
    9b48:	e3a01006 	mov	r1, #6
    9b4c:	eb00006b 	bl	9d00 <put32>
    9b50:	e5940010 	ldr	r0, [r4, #16]
    9b54:	e3a01003 	mov	r1, #3
    9b58:	eb000068 	bl	9d00 <put32>
    9b5c:	e5940014 	ldr	r0, [r4, #20]
    9b60:	e59f1018 	ldr	r1, [pc, #24]	; 9b80 <uart_init+0x98>
    9b64:	eb000065 	bl	9d00 <put32>
    9b68:	e5940004 	ldr	r0, [r4, #4]
    9b6c:	e3a01003 	mov	r1, #3
    9b70:	eb000062 	bl	9d00 <put32>
    9b74:	eb00005b 	bl	9ce8 <dev_barrier>
    9b78:	e8bd8038 	pop	{r3, r4, r5, pc}
    9b7c:	0000a024 	andeq	sl, r0, r4, lsr #32
    9b80:	0000010e 	andeq	r0, r0, lr, lsl #2

00009b84 <uart_can_getc>:
    9b84:	e92d4008 	push	{r3, lr}
    9b88:	e59f300c 	ldr	r3, [pc, #12]	; 9b9c <uart_can_getc+0x18>
    9b8c:	e5930018 	ldr	r0, [r3, #24]
    9b90:	eb000066 	bl	9d30 <get32>
    9b94:	e2000001 	and	r0, r0, #1
    9b98:	e8bd8008 	pop	{r3, pc}
    9b9c:	0000a024 	andeq	sl, r0, r4, lsr #32

00009ba0 <uart_getc>:
    9ba0:	e92d4008 	push	{r3, lr}
    9ba4:	ebfffff6 	bl	9b84 <uart_can_getc>
    9ba8:	e3500000 	cmp	r0, #0
    9bac:	0afffffc 	beq	9ba4 <uart_getc+0x4>
    9bb0:	e59f300c 	ldr	r3, [pc, #12]	; 9bc4 <uart_getc+0x24>
    9bb4:	e593001c 	ldr	r0, [r3, #28]
    9bb8:	eb00005c 	bl	9d30 <get32>
    9bbc:	e6ef0070 	uxtb	r0, r0
    9bc0:	e8bd8008 	pop	{r3, pc}
    9bc4:	0000a024 	andeq	sl, r0, r4, lsr #32

00009bc8 <uart_can_putc>:
    9bc8:	e92d4008 	push	{r3, lr}
    9bcc:	e59f300c 	ldr	r3, [pc, #12]	; 9be0 <uart_can_putc+0x18>
    9bd0:	e5930018 	ldr	r0, [r3, #24]
    9bd4:	eb000055 	bl	9d30 <get32>
    9bd8:	e2000020 	and	r0, r0, #32
    9bdc:	e8bd8008 	pop	{r3, pc}
    9be0:	0000a024 	andeq	sl, r0, r4, lsr #32

00009be4 <uart_putc>:
    9be4:	e92d4010 	push	{r4, lr}
    9be8:	e1a04000 	mov	r4, r0
    9bec:	ebfffff5 	bl	9bc8 <uart_can_putc>
    9bf0:	e3500000 	cmp	r0, #0
    9bf4:	0afffffc 	beq	9bec <uart_putc+0x8>
    9bf8:	e59f300c 	ldr	r3, [pc, #12]	; 9c0c <uart_putc+0x28>
    9bfc:	e593001c 	ldr	r0, [r3, #28]
    9c00:	e1a01004 	mov	r1, r4
    9c04:	eb00003d 	bl	9d00 <put32>
    9c08:	e8bd8010 	pop	{r4, pc}
    9c0c:	0000a024 	andeq	sl, r0, r4, lsr #32

00009c10 <uart_has_data>:
    9c10:	e92d4008 	push	{r3, lr}
    9c14:	ebffffda 	bl	9b84 <uart_can_getc>
    9c18:	e8bd8008 	pop	{r3, pc}

00009c1c <uart_getc_async>:
    9c1c:	e92d4008 	push	{r3, lr}
    9c20:	ebfffffa 	bl	9c10 <uart_has_data>
    9c24:	e3500000 	cmp	r0, #0
    9c28:	0a000001 	beq	9c34 <uart_getc_async+0x18>
    9c2c:	ebffffdb 	bl	9ba0 <uart_getc>
    9c30:	e8bd8008 	pop	{r3, pc}
    9c34:	e3e00000 	mvn	r0, #0
    9c38:	e8bd8008 	pop	{r3, pc}

00009c3c <int_init>:
    9c3c:	e92d4008 	push	{r3, lr}
    9c40:	e59f004c 	ldr	r0, [pc, #76]	; 9c94 <int_init+0x58>
    9c44:	e3e01000 	mvn	r1, #0
    9c48:	eb00002e 	bl	9d08 <PUT32>
    9c4c:	e59f0044 	ldr	r0, [pc, #68]	; 9c98 <int_init+0x5c>
    9c50:	e3e01000 	mvn	r1, #0
    9c54:	eb00002b 	bl	9d08 <PUT32>
    9c58:	eb000022 	bl	9ce8 <dev_barrier>
    9c5c:	e59f3038 	ldr	r3, [pc, #56]	; 9c9c <int_init+0x60>
    9c60:	e59f0038 	ldr	r0, [pc, #56]	; 9ca0 <int_init+0x64>
    9c64:	e0630000 	rsb	r0, r3, r0
    9c68:	e1a00140 	asr	r0, r0, #2
    9c6c:	e3a03000 	mov	r3, #0
    9c70:	e59fc024 	ldr	ip, [pc, #36]	; 9c9c <int_init+0x60>
    9c74:	ea000003 	b	9c88 <int_init+0x4c>
    9c78:	e1a02103 	lsl	r2, r3, #2
    9c7c:	e79c1103 	ldr	r1, [ip, r3, lsl #2]
    9c80:	e5821000 	str	r1, [r2]
    9c84:	e2833001 	add	r3, r3, #1
    9c88:	e1530000 	cmp	r3, r0
    9c8c:	3afffff9 	bcc	9c78 <int_init+0x3c>
    9c90:	e8bd8008 	pop	{r3, pc}
    9c94:	2000b21c 	andcs	fp, r0, ip, lsl r2
    9c98:	2000b220 	andcs	fp, r0, r0, lsr #4
    9c9c:	00009d6c 	andeq	r9, r0, ip, ror #26
    9ca0:	00009dbc 			; <UNDEFINED> instruction: 0x00009dbc

00009ca4 <fast_interrupt_vector>:
    9ca4:	e52de004 	push	{lr}		; (str lr, [sp, #-4]!)
    9ca8:	e24dd00c 	sub	sp, sp, #12
    9cac:	e1a04000 	mov	r4, r0
    9cb0:	ebfffaad 	bl	876c <rpi_reset_putc>
    9cb4:	e59f301c 	ldr	r3, [pc, #28]	; 9cd8 <fast_interrupt_vector+0x34>
    9cb8:	e58d3000 	str	r3, [sp]
    9cbc:	e58d4004 	str	r4, [sp, #4]
    9cc0:	e59f0014 	ldr	r0, [pc, #20]	; 9cdc <fast_interrupt_vector+0x38>
    9cc4:	e59f1014 	ldr	r1, [pc, #20]	; 9ce0 <fast_interrupt_vector+0x3c>
    9cc8:	e59f2014 	ldr	r2, [pc, #20]	; 9ce4 <fast_interrupt_vector+0x40>
    9ccc:	e3a0302f 	mov	r3, #47	; 0x2f
    9cd0:	ebfffa8a 	bl	8700 <printk>
    9cd4:	ebfffc0c 	bl	8d0c <clean_reboot>
    9cd8:	0000a3b8 			; <UNDEFINED> instruction: 0x0000a3b8
    9cdc:	0000a35c 	andeq	sl, r0, ip, asr r3
    9ce0:	0000a398 	muleq	r0, r8, r3
    9ce4:	0000a344 	andeq	sl, r0, r4, asr #6

00009ce8 <dev_barrier>:
    9ce8:	ea000002 	b	9cf8 <dsb>

00009cec <dmb>:
    9cec:	e3a00000 	mov	r0, #0
    9cf0:	ee070fba 	mcr	15, 0, r0, cr7, cr10, {5}
    9cf4:	e12fff1e 	bx	lr

00009cf8 <dsb>:
    9cf8:	ee070f9a 	mcr	15, 0, r0, cr7, cr10, {4}
    9cfc:	e12fff1e 	bx	lr

00009d00 <put32>:
    9d00:	e5801000 	str	r1, [r0]
    9d04:	e12fff1e 	bx	lr

00009d08 <PUT32>:
    9d08:	e5801000 	str	r1, [r0]
    9d0c:	e12fff1e 	bx	lr

00009d10 <put16>:
    9d10:	e1c010b0 	strh	r1, [r0]
    9d14:	e12fff1e 	bx	lr

00009d18 <PUT16>:
    9d18:	e1c010b0 	strh	r1, [r0]
    9d1c:	e12fff1e 	bx	lr

00009d20 <put8>:
    9d20:	e5c01000 	strb	r1, [r0]
    9d24:	e12fff1e 	bx	lr

00009d28 <PUT8>:
    9d28:	e5c01000 	strb	r1, [r0]
    9d2c:	e12fff1e 	bx	lr

00009d30 <get32>:
    9d30:	e5900000 	ldr	r0, [r0]
    9d34:	e12fff1e 	bx	lr

00009d38 <GET32>:
    9d38:	e5900000 	ldr	r0, [r0]
    9d3c:	e12fff1e 	bx	lr

00009d40 <GETPC>:
    9d40:	e1a0000e 	mov	r0, lr
    9d44:	e12fff1e 	bx	lr

00009d48 <dummy>:
    9d48:	e12fff1e 	bx	lr

00009d4c <system_enable_interrupts>:
    9d4c:	e10f0000 	mrs	r0, CPSR
    9d50:	e3c00080 	bic	r0, r0, #128	; 0x80
    9d54:	e121f000 	msr	CPSR_c, r0
    9d58:	e12fff1e 	bx	lr

00009d5c <system_disable_interrupts>:
    9d5c:	e10f0000 	mrs	r0, CPSR
    9d60:	e3800080 	orr	r0, r0, #128	; 0x80
    9d64:	e121f000 	msr	CPSR_c, r0
    9d68:	e12fff1e 	bx	lr

00009d6c <_interrupt_table>:
    9d6c:	e59ff030 	ldr	pc, [pc, #48]	; 9da4 <_reset_asm>
    9d70:	e59ff030 	ldr	pc, [pc, #48]	; 9da8 <_undefined_instruction_asm>
    9d74:	e59ff030 	ldr	pc, [pc, #48]	; 9dac <_software_interrupt_asm>
    9d78:	e59ff030 	ldr	pc, [pc, #48]	; 9db0 <_prefetch_abort_asm>
    9d7c:	e59ff030 	ldr	pc, [pc, #48]	; 9db4 <_data_abort_asm>
    9d80:	e59ff01c 	ldr	pc, [pc, #28]	; 9da4 <_reset_asm>
    9d84:	e59ff02c 	ldr	pc, [pc, #44]	; 9db8 <_interrupt_asm>

00009d88 <fast_interrupt_asm>:
    9d88:	e24ee004 	sub	lr, lr, #4
    9d8c:	e52de004 	push	{lr}		; (str lr, [sp, #-4]!)
    9d90:	e92d1fff 	push	{r0, r1, r2, r3, r4, r5, r6, r7, r8, r9, sl, fp, ip}
    9d94:	e1a0000e 	mov	r0, lr
    9d98:	ebffffc1 	bl	9ca4 <fast_interrupt_vector>
    9d9c:	e8bd1fff 	pop	{r0, r1, r2, r3, r4, r5, r6, r7, r8, r9, sl, fp, ip}
    9da0:	e8fd8000 	ldm	sp!, {pc}^

00009da4 <_reset_asm>:
    9da4:	00009e04 	andeq	r9, r0, r4, lsl #28

00009da8 <_undefined_instruction_asm>:
    9da8:	00009e0c 	andeq	r9, r0, ip, lsl #28

00009dac <_software_interrupt_asm>:
    9dac:	00009dd8 	ldrdeq	r9, [r0], -r8

00009db0 <_prefetch_abort_asm>:
    9db0:	00009e14 	andeq	r9, r0, r4, lsl lr

00009db4 <_data_abort_asm>:
    9db4:	00009e1c 	andeq	r9, r0, ip, lsl lr

00009db8 <_interrupt_asm>:
    9db8:	00009dbc 			; <UNDEFINED> instruction: 0x00009dbc

00009dbc <_interrupt_table_end>:
    9dbc:	e3a0d409 	mov	sp, #150994944	; 0x9000000
    9dc0:	e24ee004 	sub	lr, lr, #4
    9dc4:	e92d5fff 	push	{r0, r1, r2, r3, r4, r5, r6, r7, r8, r9, sl, fp, ip, lr}
    9dc8:	e1a0000e 	mov	r0, lr
    9dcc:	ebfffa05 	bl	85e8 <interrupt_vector>
    9dd0:	e8bd5fff 	pop	{r0, r1, r2, r3, r4, r5, r6, r7, r8, r9, sl, fp, ip, lr}
    9dd4:	e1b0f00e 	movs	pc, lr

00009dd8 <software_interrupt_asm>:
    9dd8:	e52de004 	push	{lr}		; (str lr, [sp, #-4]!)
    9ddc:	e92d1ffe 	push	{r1, r2, r3, r4, r5, r6, r7, r8, r9, sl, fp, ip}
    9de0:	e24ee004 	sub	lr, lr, #4
    9de4:	e1a0200e 	mov	r2, lr
    9de8:	e1a01000 	mov	r1, r0
    9dec:	e1a0000e 	mov	r0, lr
    9df0:	eb000003 	bl	9e04 <reset_asm>
    9df4:	e8bd1ffe 	pop	{r1, r2, r3, r4, r5, r6, r7, r8, r9, sl, fp, ip}
    9df8:	e49de004 	pop	{lr}		; (ldr lr, [sp], #4)
    9dfc:	e8fd8000 	ldm	sp!, {pc}^
    9e00:	e1b0f00e 	movs	pc, lr

00009e04 <reset_asm>:
    9e04:	e24ee004 	sub	lr, lr, #4
    9e08:	eb000040 	bl	9f10 <reset_vector>

00009e0c <undefined_instruction_asm>:
    9e0c:	e24ee004 	sub	lr, lr, #4
    9e10:	eb00004f 	bl	9f54 <undefined_instruction_vector>

00009e14 <prefetch_abort_asm>:
    9e14:	e24ee004 	sub	lr, lr, #4
    9e18:	eb00002b 	bl	9ecc <prefetch_abort_vector>

00009e1c <data_abort_asm>:
    9e1c:	e3a0d409 	mov	sp, #150994944	; 0x9000000
    9e20:	e24ee008 	sub	lr, lr, #8
    9e24:	e92d5fff 	push	{r0, r1, r2, r3, r4, r5, r6, r7, r8, r9, sl, fp, ip, lr}
    9e28:	e1a0000e 	mov	r0, lr
    9e2c:	eb000015 	bl	9e88 <data_abort_vector>
    9e30:	e8bd5fff 	pop	{r0, r1, r2, r3, r4, r5, r6, r7, r8, r9, sl, fp, ip, lr}
    9e34:	e1b0f00e 	movs	pc, lr

00009e38 <cb_new>:
    9e38:	e92d4008 	push	{r3, lr}
    9e3c:	e3a00409 	mov	r0, #150994944	; 0x9000000
    9e40:	e3a01000 	mov	r1, #0
    9e44:	e3a02004 	mov	r2, #4
    9e48:	eb000052 	bl	9f98 <memset>
    9e4c:	e3a00409 	mov	r0, #150994944	; 0x9000000
    9e50:	e59f3004 	ldr	r3, [pc, #4]	; 9e5c <cb_new+0x24>
    9e54:	e5803000 	str	r3, [r0]
    9e58:	e8bd8008 	pop	{r3, pc}
    9e5c:	12345678 	eorsne	r5, r4, #120, 12	; 0x7800000

00009e60 <cb_get_block>:
    9e60:	e3a03409 	mov	r3, #150994944	; 0x9000000
    9e64:	e5932000 	ldr	r2, [r3]
    9e68:	e59f3014 	ldr	r3, [pc, #20]	; 9e84 <cb_get_block+0x24>
    9e6c:	e1520003 	cmp	r2, r3
    9e70:	0a000001 	beq	9e7c <cb_get_block+0x1c>
    9e74:	e3a00000 	mov	r0, #0
    9e78:	e12fff1e 	bx	lr
    9e7c:	e3a00409 	mov	r0, #150994944	; 0x9000000
    9e80:	e12fff1e 	bx	lr
    9e84:	12345678 	eorsne	r5, r4, #120, 12	; 0x7800000

00009e88 <data_abort_vector>:
    9e88:	e52de004 	push	{lr}		; (str lr, [sp, #-4]!)
    9e8c:	e24dd00c 	sub	sp, sp, #12
    9e90:	e1a04000 	mov	r4, r0
    9e94:	ebfffa34 	bl	876c <rpi_reset_putc>
    9e98:	e59f301c 	ldr	r3, [pc, #28]	; 9ebc <data_abort_vector+0x34>
    9e9c:	e58d3000 	str	r3, [sp]
    9ea0:	e58d4004 	str	r4, [sp, #4]
    9ea4:	e59f0014 	ldr	r0, [pc, #20]	; 9ec0 <data_abort_vector+0x38>
    9ea8:	e59f1014 	ldr	r1, [pc, #20]	; 9ec4 <data_abort_vector+0x3c>
    9eac:	e59f2014 	ldr	r2, [pc, #20]	; 9ec8 <data_abort_vector+0x40>
    9eb0:	e3a03002 	mov	r3, #2
    9eb4:	ebfffa11 	bl	8700 <printk>
    9eb8:	ebfffb93 	bl	8d0c <clean_reboot>
    9ebc:	0000a404 	andeq	sl, r0, r4, lsl #8
    9ec0:	0000a35c 	andeq	sl, r0, ip, asr r3
    9ec4:	0000a3d4 	ldrdeq	sl, [r0], -r4
    9ec8:	0000a3c0 	andeq	sl, r0, r0, asr #7

00009ecc <prefetch_abort_vector>:
    9ecc:	e52de004 	push	{lr}		; (str lr, [sp, #-4]!)
    9ed0:	e24dd00c 	sub	sp, sp, #12
    9ed4:	e1a04000 	mov	r4, r0
    9ed8:	ebfffa23 	bl	876c <rpi_reset_putc>
    9edc:	e59f301c 	ldr	r3, [pc, #28]	; 9f00 <prefetch_abort_vector+0x34>
    9ee0:	e58d3000 	str	r3, [sp]
    9ee4:	e58d4004 	str	r4, [sp, #4]
    9ee8:	e59f0014 	ldr	r0, [pc, #20]	; 9f04 <prefetch_abort_vector+0x38>
    9eec:	e59f1014 	ldr	r1, [pc, #20]	; 9f08 <prefetch_abort_vector+0x3c>
    9ef0:	e59f2014 	ldr	r2, [pc, #20]	; 9f0c <prefetch_abort_vector+0x40>
    9ef4:	e3a03002 	mov	r3, #2
    9ef8:	ebfffa00 	bl	8700 <printk>
    9efc:	ebfffb82 	bl	8d0c <clean_reboot>
    9f00:	0000a454 	andeq	sl, r0, r4, asr r4
    9f04:	0000a35c 	andeq	sl, r0, ip, asr r3
    9f08:	0000a428 	andeq	sl, r0, r8, lsr #8
    9f0c:	0000a410 	andeq	sl, r0, r0, lsl r4

00009f10 <reset_vector>:
    9f10:	e52de004 	push	{lr}		; (str lr, [sp, #-4]!)
    9f14:	e24dd00c 	sub	sp, sp, #12
    9f18:	e1a04000 	mov	r4, r0
    9f1c:	ebfffa12 	bl	876c <rpi_reset_putc>
    9f20:	e59f301c 	ldr	r3, [pc, #28]	; 9f44 <reset_vector+0x34>
    9f24:	e58d3000 	str	r3, [sp]
    9f28:	e58d4004 	str	r4, [sp, #4]
    9f2c:	e59f0014 	ldr	r0, [pc, #20]	; 9f48 <reset_vector+0x38>
    9f30:	e59f1014 	ldr	r1, [pc, #20]	; 9f4c <reset_vector+0x3c>
    9f34:	e59f2014 	ldr	r2, [pc, #20]	; 9f50 <reset_vector+0x40>
    9f38:	e3a03002 	mov	r3, #2
    9f3c:	ebfff9ef 	bl	8700 <printk>
    9f40:	ebfffb71 	bl	8d0c <clean_reboot>
    9f44:	0000a4a0 	andeq	sl, r0, r0, lsr #9
    9f48:	0000a35c 	andeq	sl, r0, ip, asr r3
    9f4c:	0000a474 	andeq	sl, r0, r4, ror r4
    9f50:	0000a464 	andeq	sl, r0, r4, ror #8

00009f54 <undefined_instruction_vector>:
    9f54:	e52de004 	push	{lr}		; (str lr, [sp, #-4]!)
    9f58:	e24dd00c 	sub	sp, sp, #12
    9f5c:	e1a04000 	mov	r4, r0
    9f60:	ebfffa01 	bl	876c <rpi_reset_putc>
    9f64:	e59f301c 	ldr	r3, [pc, #28]	; 9f88 <undefined_instruction_vector+0x34>
    9f68:	e58d3000 	str	r3, [sp]
    9f6c:	e58d4004 	str	r4, [sp, #4]
    9f70:	e59f0014 	ldr	r0, [pc, #20]	; 9f8c <undefined_instruction_vector+0x38>
    9f74:	e59f1014 	ldr	r1, [pc, #20]	; 9f90 <undefined_instruction_vector+0x3c>
    9f78:	e59f2014 	ldr	r2, [pc, #20]	; 9f94 <undefined_instruction_vector+0x40>
    9f7c:	e3a03002 	mov	r3, #2
    9f80:	ebfff9de 	bl	8700 <printk>
    9f84:	ebfffb60 	bl	8d0c <clean_reboot>
    9f88:	0000a4fc 	strdeq	sl, [r0], -ip
    9f8c:	0000a35c 	andeq	sl, r0, ip, asr r3
    9f90:	0000a4c8 	andeq	sl, r0, r8, asr #9
    9f94:	0000a4a8 	andeq	sl, r0, r8, lsr #9

00009f98 <memset>:
    9f98:	e0802002 	add	r2, r0, r2
    9f9c:	e1a03000 	mov	r3, r0
    9fa0:	ea000001 	b	9fac <memset+0x14>
    9fa4:	e5c31000 	strb	r1, [r3]
    9fa8:	e2833001 	add	r3, r3, #1
    9fac:	e1530002 	cmp	r3, r2
    9fb0:	3afffffb 	bcc	9fa4 <memset+0xc>
    9fb4:	e12fff1e 	bx	lr

Disassembly of section .data:

00009fb8 <is_writing>:
    9fb8:	00000001 	andeq	r0, r0, r1

00009fbc <rpi_putchar>:
    9fbc:	00008758 	andeq	r8, r0, r8, asr r7

00009fc0 <putk>:
    9fc0:	00008794 	muleq	r0, r4, r7

00009fc4 <GPFSEL0>:
    9fc4:	20200000 	eorcs	r0, r0, r0

00009fc8 <GPFSEL1>:
    9fc8:	20200004 	eorcs	r0, r0, r4

00009fcc <GPFSEL2>:
    9fcc:	20200008 	eorcs	r0, r0, r8

00009fd0 <GPFSEL3>:
    9fd0:	2020000c 	eorcs	r0, r0, ip

00009fd4 <GPFSEL4>:
    9fd4:	20200010 	eorcs	r0, r0, r0, lsl r0

00009fd8 <GPFSEL5>:
    9fd8:	20200014 	eorcs	r0, r0, r4, lsl r0

00009fdc <GPSET0>:
    9fdc:	2020001c 	eorcs	r0, r0, ip, lsl r0

00009fe0 <GPSET1>:
    9fe0:	20200020 	eorcs	r0, r0, r0, lsr #32

00009fe4 <GPCLR0>:
    9fe4:	20200028 	eorcs	r0, r0, r8, lsr #32

00009fe8 <GPCLR1>:
    9fe8:	2020002c 	eorcs	r0, r0, ip, lsr #32

00009fec <GPLEV0>:
    9fec:	20200034 	eorcs	r0, r0, r4, lsr r0

00009ff0 <GPLEV1>:
    9ff0:	20200038 	eorcs	r0, r0, r8, lsr r0

00009ff4 <IRQ_PENDING_2>:
    9ff4:	2000b208 	andcs	fp, r0, r8, lsl #4

00009ff8 <GPREN0>:
    9ff8:	2020004c 	eorcs	r0, r0, ip, asr #32

00009ffc <GPREN1>:
    9ffc:	20200050 	eorcs	r0, r0, r0, asr r0

0000a000 <ENABLE_IRQS_2>:
    a000:	2000b214 	andcs	fp, r0, r4, lsl r2

0000a004 <GPFEN0>:
    a004:	20200058 	eorcs	r0, r0, r8, asr r0

0000a008 <GPFEN1>:
    a008:	2020005c 	eorcs	r0, r0, ip, asr r0

0000a00c <GPEDS0>:
    a00c:	20200040 	eorcs	r0, r0, r0, asr #32

0000a010 <GPEDS1>:
    a010:	20200044 	eorcs	r0, r0, r4, asr #32

0000a014 <IRQ_PENDING_1>:
    a014:	2000b204 	andcs	fp, r0, r4, lsl #4

0000a018 <gpio_clr0>:
    a018:	20200028 	eorcs	r0, r0, r8, lsr #32

0000a01c <gpio_set0>:
    a01c:	2020001c 	eorcs	r0, r0, ip, lsl r0

0000a020 <gpio_fsel0>:
    a020:	20200000 	eorcs	r0, r0, r0

0000a024 <AUX_ENABLES>:
    a024:	20215004 	eorcs	r5, r1, r4

0000a028 <AUX_MU_CNTL_REG>:
    a028:	20215060 	eorcs	r5, r1, r0, rrx

0000a02c <AUX_MU_IER_REG>:
    a02c:	20215044 	eorcs	r5, r1, r4, asr #32

0000a030 <AUX_MU_IIR_REG>:
    a030:	20215048 	eorcs	r5, r1, r8, asr #32

0000a034 <AUX_MU_LCR_REG>:
    a034:	2021504c 	eorcs	r5, r1, ip, asr #32

0000a038 <AUX_MU_BAUD_REG>:
    a038:	20215068 	eorcs	r5, r1, r8, rrx

0000a03c <AUX_MU_LSR_REG>:
    a03c:	20215054 	eorcs	r5, r1, r4, asr r0

0000a040 <AUX_MU_IO_REG>:
    a040:	20215040 	eorcs	r5, r1, r0, asr #32

0000a044 <AUX_MU_STAT_REG>:
    a044:	20215064 	eorcs	r5, r1, r4, rrx

0000a048 <AUX_MU_SCRATCH>:
    a048:	2021505c 	eorcs	r5, r1, ip, asr r0

0000a04c <AUX_MU_MSR_REG>:
    a04c:	20215058 	eorcs	r5, r1, r8, asr r0

0000a050 <AUX_MU_MCR_REG>:
    a050:	20215050 	eorcs	r5, r1, r0, asr r0

0000a054 <AUX_IRQ>:
    a054:	20215000 	eorcs	r5, r1, r0

Disassembly of section .rodata:

0000a058 <__FUNCTION__.4465>:
    a058:	6c637963 	stclvs	9, cr7, [r3], #-396	; 0xfffffe74
    a05c:	705f7365 	subsvc	r7, pc, r5, ror #6
    a060:	735f7265 	cmpvc	pc, #1342177286	; 0x50000006
    a064:	00006365 	andeq	r6, r0, r5, ror #6
    a068:	4f525245 	svcmi	0x00525245
    a06c:	73253a52 	teqvc	r5, #335872	; 0x52000
    a070:	3a73253a 	bcc	1cd3560 <__bss_end__+0x1cc8c28>
    a074:	203a6425 	eorscs	r6, sl, r5, lsr #8
    a078:	534c4146 	movtpl	r4, #49478	; 0xc146
    a07c:	733c2845 	teqvc	ip, #4521984	; 0x450000
    a080:	32203c20 	eorcc	r3, r0, #32, 24	; 0x2000
    a084:	203a293e 	eorscs	r2, sl, lr, lsr r9
    a088:	6c6c6977 	stclvs	9, cr6, [ip], #-476	; 0xfffffe24
    a08c:	65766f20 	ldrbvs	r6, [r6, #-3872]!	; 0xf20
    a090:	6f6c6672 	svcvs	0x006c6672
    a094:	00000a77 	andeq	r0, r0, r7, ror sl
    a098:	6f6c2d32 	svcvs	0x006c2d32
    a09c:	2d636967 	stclcs	9, cr6, [r3, #-412]!	; 0xfffffe64
    a0a0:	6c616e61 	stclvs	14, cr6, [r1], #-388	; 0xfffffe7c
    a0a4:	72657a79 	rsbvc	r7, r5, #495616	; 0x79000
    a0a8:	0000632e 	andeq	r6, r0, lr, lsr #6
    a0ac:	61206d41 	teqvs	r0, r1, asr #26
    a0b0:	72657320 	rsbvc	r7, r5, #32, 6	; 0x80000000
    a0b4:	0a726576 	beq	1ca3694 <__bss_end__+0x1c98d5c>
    a0b8:	00000000 	andeq	r0, r0, r0
    a0bc:	65696c63 	strbvs	r6, [r9, #-3171]!	; 0xc63
    a0c0:	6420746e 	strtvs	r7, [r0], #-1134	; 0x46e
    a0c4:	3a656e6f 	bcc	1965a88 <__bss_end__+0x195b150>
    a0c8:	646e6520 	strbtvs	r6, [lr], #-1312	; 0x520
    a0cc:	77206465 	strvc	r6, [r0, -r5, ror #8]!
    a0d0:	20687469 	rsbcs	r7, r8, r9, ror #8
    a0d4:	000a6425 	andeq	r6, sl, r5, lsr #8
    a0d8:	6d73694d 	ldclvs	9, cr6, [r3, #-308]!	; 0xfffffecc
    a0dc:	68637461 	stmdavs	r3!, {r0, r5, r6, sl, ip, sp, lr}^
    a0e0:	6f67202c 	svcvs	0x0067202c
    a0e4:	64252074 	strtvs	r2, [r5], #-116	; 0x74
    a0e8:	74756220 	ldrbtvc	r6, [r5], #-544	; 0x220
    a0ec:	70786520 	rsbsvc	r6, r8, r0, lsr #10
    a0f0:	65746365 	ldrbvs	r6, [r4, #-869]!	; 0x365
    a0f4:	64252064 	strtvs	r2, [r5], #-100	; 0x64
    a0f8:	0000000a 	andeq	r0, r0, sl
    a0fc:	3a746f47 	bcc	1d25e20 <__bss_end__+0x1d1b4e8>
    a100:	0a642520 	beq	1913588 <__bss_end__+0x1908c50>
    a104:	00000000 	andeq	r0, r0, r0

0000a108 <__FUNCTION__.4265>:
    a108:	74696d65 	strbtvc	r6, [r9], #-3429	; 0xd65
    a10c:	00000000 	andeq	r0, r0, r0

0000a110 <__FUNCTION__.4213>:
    a110:	5f697072 	svcpl	0x00697072
    a114:	5f746573 	svcpl	0x00746573
    a118:	7074756f 	rsbsvc	r7, r4, pc, ror #10
    a11c:	00007475 	andeq	r7, r0, r5, ror r4

0000a120 <__FUNCTION__.4287>:
    a120:	705f6176 	subsvc	r6, pc, r6, ror r1	; <UNPREDICTABLE>
    a124:	746e6972 	strbtvc	r6, [lr], #-2418	; 0x972
    a128:	0000006b 	andeq	r0, r0, fp, rrx
    a12c:	494e4150 	stmdbmi	lr, {r4, r6, r8, lr}^
    a130:	73253a43 	teqvc	r5, #274432	; 0x43000
    a134:	3a73253a 	bcc	1cd3624 <__bss_end__+0x1cc8cec>
    a138:	253a6425 	ldrcs	r6, [sl, #-1061]!	; 0x425
    a13c:	00000a73 	andeq	r0, r0, r3, ror sl
    a140:	6362696c 	cmnvs	r2, #108, 18	; 0x1b0000
    a144:	2d61762f 	stclcs	6, cr7, [r1, #-188]!	; 0xffffff44
    a148:	6e697270 	mcrvs	2, 3, r7, cr9, cr0, {3}
    a14c:	632e6b74 	teqvs	lr, #116, 22	; 0x1d000
    a150:	00000000 	andeq	r0, r0, r0
    a154:	00000030 	andeq	r0, r0, r0, lsr r0
    a158:	33323130 	teqcc	r2, #48, 2
    a15c:	37363534 			; <UNDEFINED> instruction: 0x37363534
    a160:	00003938 	andeq	r3, r0, r8, lsr r9
    a164:	33323130 	teqcc	r2, #48, 2
    a168:	37363534 			; <UNDEFINED> instruction: 0x37363534
    a16c:	62613938 	rsbvs	r3, r1, #56, 18	; 0xe0000
    a170:	66656463 	strbtvs	r6, [r5], -r3, ror #8
    a174:	00000000 	andeq	r0, r0, r0
    a178:	00003130 	andeq	r3, r0, r0, lsr r1
    a17c:	63747570 	cmnvs	r4, #112, 10	; 0x1c000000
    a180:	0070665f 	rsbseq	r6, r0, pc, asr r6
    a184:	74646977 	strbtvc	r6, [r4], #-2423	; 0x977
    a188:	203c2068 	eorscs	r2, ip, r8, rrx
    a18c:	00003233 	andeq	r3, r0, r3, lsr r2
    a190:	494e4150 	stmdbmi	lr, {r4, r6, r8, lr}^
    a194:	73253a43 	teqvc	r5, #274432	; 0x43000
    a198:	3a73253a 	bcc	1cd3688 <__bss_end__+0x1cc8d50>
    a19c:	663a6425 	ldrtvs	r6, [sl], -r5, lsr #8
    a1a0:	74616f6c 	strbtvc	r6, [r1], #-3948	; 0xf6c
    a1a4:	746f6e20 	strbtvc	r6, [pc], #-3616	; a1ac <__FUNCTION__.4287+0x8c>
    a1a8:	616e6520 	cmnvs	lr, r0, lsr #10
    a1ac:	64656c62 	strbtvs	r6, [r5], #-3170	; 0xc62
    a1b0:	0a212121 	beq	85263c <__bss_end__+0x847d04>
    a1b4:	00000000 	andeq	r0, r0, r0
    a1b8:	494e4150 	stmdbmi	lr, {r4, r6, r8, lr}^
    a1bc:	73253a43 	teqvc	r5, #274432	; 0x43000
    a1c0:	3a73253a 	bcc	1cd36b0 <__bss_end__+0x1cc8d78>
    a1c4:	703a6425 	eorsvc	r6, sl, r5, lsr #8
    a1c8:	746e6972 	strbtvc	r6, [lr], #-2418	; 0x972
    a1cc:	6e203a6b 	vnmulvs.f32	s6, s0, s23
    a1d0:	6820746f 	stmdavs	r0!, {r0, r1, r2, r3, r5, r6, sl, ip, sp, lr}
    a1d4:	6c646e61 	stclvs	14, cr6, [r4], #-388	; 0xfffffe7c
    a1d8:	20676e69 	rsbcs	r6, r7, r9, ror #28
    a1dc:	63657073 	cmnvs	r5, #115	; 0x73
    a1e0:	65696669 	strbvs	r6, [r9, #-1641]!	; 0x669
    a1e4:	25272072 	strcs	r2, [r7, #-114]!	; 0x72
    a1e8:	0a0a2763 	beq	293f7c <__bss_end__+0x289644>
    a1ec:	00000000 	andeq	r0, r0, r0
    a1f0:	454e4f44 	strbmi	r4, [lr, #-3908]	; 0xf44
    a1f4:	0a212121 	beq	852680 <__bss_end__+0x847d48>
    a1f8:	00000000 	andeq	r0, r0, r0
    a1fc:	756f6261 	strbvc	r6, [pc, #-609]!	; 9fa3 <memset+0xb>
    a200:	6f742074 	svcvs	0x00742074
    a204:	69727020 	ldmdbvs	r2!, {r5, ip, sp, lr}^
    a208:	6f20746e 	svcvs	0x0020746e
    a20c:	6572206e 	ldrbvs	r2, [r2, #-110]!	; 0x6e
    a210:	616c7567 	cmnvs	ip, r7, ror #10
    a214:	72702072 	rsbsvc	r2, r0, #114	; 0x72
    a218:	66746e69 	ldrbtvs	r6, [r4], -r9, ror #28
    a21c:	0000000a 	andeq	r0, r0, sl
    a220:	63637573 	cmnvs	r3, #482344960	; 0x1cc00000
    a224:	21737365 	cmncs	r3, r5, ror #6
    a228:	0000000a 	andeq	r0, r0, sl

0000a22c <__FUNCTION__.4314>:
    a22c:	755f7773 	ldrbvc	r7, [pc, #-1907]	; 9ac1 <sw_uart_gets_until_blk+0x25>
    a230:	5f747261 	svcpl	0x00747261
    a234:	73746567 	cmnvc	r4, #432013312	; 0x19c00000
    a238:	746e755f 	strbtvc	r7, [lr], #-1375	; 0x55f
    a23c:	00006c69 	andeq	r6, r0, r9, ror #24

0000a240 <__FUNCTION__.4326>:
    a240:	755f7773 	ldrbvc	r7, [pc, #-1907]	; 9ad5 <sw_uart_gets_until_blk+0x39>
    a244:	5f747261 	svcpl	0x00747261
    a248:	73746567 	cmnvc	r4, #432013312	; 0x19c00000
    a24c:	6d69745f 	cfstrdvs	mvd7, [r9, #-380]!	; 0xfffffe84
    a250:	74756f65 	ldrbtvc	r6, [r5], #-3941	; 0xf65
    a254:	00000000 	andeq	r0, r0, r0

0000a258 <__FUNCTION__.4340>:
    a258:	755f7773 	ldrbvc	r7, [pc, #-1907]	; 9aed <uart_init+0x5>
    a25c:	5f747261 	svcpl	0x00747261
    a260:	74696e69 	strbtvc	r6, [r9], #-3689	; 0xe69
    a264:	6c65685f 	stclvs	8, cr6, [r5], #-380	; 0xfffffe84
    a268:	00726570 	rsbseq	r6, r2, r0, ror r5

0000a26c <__FUNCTION__.4346>:
    a26c:	755f7773 	ldrbvc	r7, [pc, #-1907]	; 9b01 <uart_init+0x19>
    a270:	5f747261 	svcpl	0x00747261
    a274:	63746567 	cmnvs	r4, #432013312	; 0x19c00000
    a278:	00000000 	andeq	r0, r0, r0

0000a27c <__FUNCTION__.4368>:
    a27c:	755f7773 	ldrbvc	r7, [pc, #-1907]	; 9b11 <uart_init+0x29>
    a280:	5f747261 	svcpl	0x00747261
    a284:	6e697270 	mcrvs	2, 3, r7, cr9, cr0, {3}
    a288:	00006b74 	andeq	r6, r0, r4, ror fp

0000a28c <__FUNCTION__.4376>:
    a28c:	755f7773 	ldrbvc	r7, [pc, #-1907]	; 9b21 <uart_init+0x39>
    a290:	5f747261 	svcpl	0x00747261
    a294:	73746567 	cmnvc	r4, #432013312	; 0x19c00000
    a298:	746e755f 	strbtvc	r7, [lr], #-1375	; 0x55f
    a29c:	625f6c69 	subsvs	r6, pc, #26880	; 0x6900
    a2a0:	00006b6c 	andeq	r6, r0, ip, ror #22
    a2a4:	732d796d 	teqvc	sp, #1785856	; 0x1b4000
    a2a8:	732f6372 	teqvc	pc, #-939524095	; 0xc8000001
    a2ac:	61752d77 	cmnvs	r5, r7, ror sp
    a2b0:	632e7472 	teqvs	lr, #1912602624	; 0x72000000
    a2b4:	00000000 	andeq	r0, r0, r0
    a2b8:	7479626e 	ldrbtvc	r6, [r9], #-622	; 0x26e
    a2bc:	303e7365 	eorscc	r7, lr, r5, ror #6
    a2c0:	00000000 	andeq	r0, r0, r0
    a2c4:	7a686d28 	bvc	1a2576c <__bss_end__+0x1a1ae34>
    a2c8:	62202d20 	eorvs	r2, r0, #32, 26	; 0x800
    a2cc:	29647561 	stmdbcs	r4!, {r0, r5, r6, r8, sl, ip, sp, lr}^
    a2d0:	203d3c20 	eorscs	r3, sp, r0, lsr #24
    a2d4:	69726564 	ldmdbvs	r2!, {r2, r5, r6, r8, sl, sp, lr}^
    a2d8:	20646576 	rsbcs	r6, r4, r6, ror r5
    a2dc:	64202626 	strtvs	r2, [r0], #-1574	; 0x626
    a2e0:	76697265 	strbtvc	r7, [r9], -r5, ror #4
    a2e4:	3c206465 	cfstrscc	mvf6, [r0], #-404	; 0xfffffe6c
    a2e8:	6d28203d 	stcvs	0, cr2, [r8, #-244]!	; 0xffffff0c
    a2ec:	2b207a68 	blcs	828c94 <__bss_end__+0x81e35c>
    a2f0:	75616220 	strbvc	r6, [r1, #-544]!	; 0x220
    a2f4:	00002964 	andeq	r2, r0, r4, ror #18
    a2f8:	494e4150 	stmdbmi	lr, {r4, r6, r8, lr}^
    a2fc:	73253a43 	teqvc	r5, #274432	; 0x43000
    a300:	3a73253a 	bcc	1cd37f0 <__bss_end__+0x1cc8eb8>
    a304:	693a6425 	ldmdbvs	sl!, {r0, r2, r5, sl, sp, lr}
    a308:	736f706d 	cmnvc	pc, #109	; 0x6d
    a30c:	6c626973 	stclvs	9, cr6, [r2], #-460	; 0xfffffe34
    a310:	68203a65 	stmdavs	r0!, {r0, r2, r5, r6, r9, fp, ip, sp}
    a314:	20657661 	rsbcs	r7, r5, r1, ror #12
    a318:	69206e61 	stmdbvs	r0!, {r0, r5, r6, r9, sl, fp, sp, lr}
    a31c:	6e69666e 	cdpvs	6, 6, cr6, cr9, cr14, {3}
    a320:	20657469 	rsbcs	r7, r5, r9, ror #8
    a324:	656d6974 	strbvs	r6, [sp, #-2420]!	; 0x974
    a328:	2174756f 	cmncs	r4, pc, ror #10
    a32c:	00000a0a 	andeq	r0, r0, sl, lsl #20
    a330:	3c207a73 	stccc	10, cr7, [r0], #-460	; 0xfffffe34
    a334:	7a697320 	bvc	1a66fbc <__bss_end__+0x1a5c684>
    a338:	20666f65 	rsbcs	r6, r6, r5, ror #30
    a33c:	2d667562 	cfstr64cs	mvdx7, [r6, #-392]!	; 0xfffffe78
    a340:	00000031 	andeq	r0, r0, r1, lsr r0

0000a344 <__FUNCTION__.4255>:
    a344:	74736166 	ldrbtvc	r6, [r3], #-358	; 0x166
    a348:	746e695f 	strbtvc	r6, [lr], #-2399	; 0x95f
    a34c:	75727265 	ldrbvc	r7, [r2, #-613]!	; 0x265
    a350:	765f7470 			; <UNDEFINED> instruction: 0x765f7470
    a354:	6f746365 	svcvs	0x00746365
    a358:	00000072 	andeq	r0, r0, r2, ror r0
    a35c:	494e4150 	stmdbmi	lr, {r4, r6, r8, lr}^
    a360:	73253a43 	teqvc	r5, #274432	; 0x43000
    a364:	3a73253a 	bcc	1cd3854 <__bss_end__+0x1cc8f1c>
    a368:	453a6425 	ldrmi	r6, [sl, #-1061]!	; 0x425
    a36c:	524f5252 	subpl	r5, pc, #536870917	; 0x20000005
    a370:	6e75203a 	mrcvs	0, 3, r2, cr5, cr10, {1}
    a374:	646e6168 	strbtvs	r6, [lr], #-360	; 0x168
    a378:	2064656c 	rsbcs	r6, r4, ip, ror #10
    a37c:	65637865 	strbvs	r7, [r3, #-2149]!	; 0x865
    a380:	6f697470 	svcvs	0x00697470
    a384:	253c206e 	ldrcs	r2, [ip, #-110]!	; 0x6e
    a388:	61203e73 	teqvs	r0, r3, ror lr
    a38c:	43502074 	cmpmi	r0, #116	; 0x74
    a390:	0a78253d 	beq	1e1388c <__bss_end__+0x1e08f54>
    a394:	0000000a 	andeq	r0, r0, sl
    a398:	34317363 	ldrtcc	r7, [r1], #-867	; 0x363
    a39c:	692d6530 	pushvs	{r4, r5, r8, sl, sp, lr}
    a3a0:	7265746e 	rsbvc	r7, r5, #1845493760	; 0x6e000000
    a3a4:	74707572 	ldrbtvc	r7, [r0], #-1394	; 0x572
    a3a8:	746e692f 	strbtvc	r6, [lr], #-2351	; 0x92f
    a3ac:	75727265 	ldrbvc	r7, [r2, #-613]!	; 0x265
    a3b0:	2d737470 	cfldrdcs	mvd7, [r3, #-448]!	; 0xfffffe40
    a3b4:	00632e63 	rsbeq	r2, r3, r3, ror #28
    a3b8:	74736166 	ldrbtvc	r6, [r3], #-358	; 0x166
    a3bc:	00000000 	andeq	r0, r0, r0

0000a3c0 <__FUNCTION__.4241>:
    a3c0:	61746164 	cmnvs	r4, r4, ror #2
    a3c4:	6f62615f 	svcvs	0x0062615f
    a3c8:	765f7472 			; <UNDEFINED> instruction: 0x765f7472
    a3cc:	6f746365 	svcvs	0x00746365
    a3d0:	00000072 	andeq	r0, r0, r2, ror r0
    a3d4:	34317363 	ldrtcc	r7, [r1], #-867	; 0x363
    a3d8:	692d6530 	pushvs	{r4, r5, r8, sl, sp, lr}
    a3dc:	7265746e 	rsbvc	r7, r5, #1845493760	; 0x6e000000
    a3e0:	74707572 	ldrbtvc	r7, [r0], #-1394	; 0x572
    a3e4:	6665642f 	strbtvs	r6, [r5], -pc, lsr #8
    a3e8:	746c7561 	strbtvc	r7, [ip], #-1377	; 0x561
    a3ec:	6e61682d 	cdpvs	8, 6, cr6, cr1, cr13, {1}
    a3f0:	72656c64 	rsbvc	r6, r5, #100, 24	; 0x6400
    a3f4:	7461642d 	strbtvc	r6, [r1], #-1069	; 0x42d
    a3f8:	62612d61 	rsbvs	r2, r1, #6208	; 0x1840
    a3fc:	2e74726f 	cdpcs	2, 7, cr7, cr4, cr15, {3}
    a400:	00000063 	andeq	r0, r0, r3, rrx
    a404:	61746164 	cmnvs	r4, r4, ror #2
    a408:	6f626120 	svcvs	0x00626120
    a40c:	00007472 	andeq	r7, r0, r2, ror r4

0000a410 <__FUNCTION__.4241>:
    a410:	66657270 			; <UNDEFINED> instruction: 0x66657270
    a414:	68637465 	stmdavs	r3!, {r0, r2, r5, r6, sl, ip, sp, lr}^
    a418:	6f62615f 	svcvs	0x0062615f
    a41c:	765f7472 			; <UNDEFINED> instruction: 0x765f7472
    a420:	6f746365 	svcvs	0x00746365
    a424:	00000072 	andeq	r0, r0, r2, ror r0
    a428:	34317363 	ldrtcc	r7, [r1], #-867	; 0x363
    a42c:	692d6530 	pushvs	{r4, r5, r8, sl, sp, lr}
    a430:	7265746e 	rsbvc	r7, r5, #1845493760	; 0x6e000000
    a434:	74707572 	ldrbtvc	r7, [r0], #-1394	; 0x572
    a438:	6665642f 	strbtvs	r6, [r5], -pc, lsr #8
    a43c:	746c7561 	strbtvc	r7, [ip], #-1377	; 0x561
    a440:	6e61682d 	cdpvs	8, 6, cr6, cr1, cr13, {1}
    a444:	72656c64 	rsbvc	r6, r5, #100, 24	; 0x6400
    a448:	6572702d 	ldrbvs	r7, [r2, #-45]!	; 0x2d
    a44c:	63746566 	cmnvs	r4, #427819008	; 0x19800000
    a450:	00632e68 	rsbeq	r2, r3, r8, ror #28
    a454:	66657270 			; <UNDEFINED> instruction: 0x66657270
    a458:	68637465 	stmdavs	r3!, {r0, r2, r5, r6, sl, ip, sp, lr}^
    a45c:	6f626120 	svcvs	0x00626120
    a460:	00007472 	andeq	r7, r0, r2, ror r4

0000a464 <__FUNCTION__.4241>:
    a464:	65736572 	ldrbvs	r6, [r3, #-1394]!	; 0x572
    a468:	65765f74 	ldrbvs	r5, [r6, #-3956]!	; 0xf74
    a46c:	726f7463 	rsbvc	r7, pc, #1660944384	; 0x63000000
    a470:	00000000 	andeq	r0, r0, r0
    a474:	34317363 	ldrtcc	r7, [r1], #-867	; 0x363
    a478:	692d6530 	pushvs	{r4, r5, r8, sl, sp, lr}
    a47c:	7265746e 	rsbvc	r7, r5, #1845493760	; 0x6e000000
    a480:	74707572 	ldrbtvc	r7, [r0], #-1394	; 0x572
    a484:	6665642f 	strbtvs	r6, [r5], -pc, lsr #8
    a488:	746c7561 	strbtvc	r7, [ip], #-1377	; 0x561
    a48c:	6e61682d 	cdpvs	8, 6, cr6, cr1, cr13, {1}
    a490:	72656c64 	rsbvc	r6, r5, #100, 24	; 0x6400
    a494:	7365722d 	cmnvc	r5, #-805306366	; 0xd0000002
    a498:	632e7465 	teqvs	lr, #1694498816	; 0x65000000
    a49c:	00000000 	andeq	r0, r0, r0
    a4a0:	65736572 	ldrbvs	r6, [r3, #-1394]!	; 0x572
    a4a4:	00000074 	andeq	r0, r0, r4, ror r0

0000a4a8 <__FUNCTION__.4241>:
    a4a8:	65646e75 	strbvs	r6, [r4, #-3701]!	; 0xe75
    a4ac:	656e6966 	strbvs	r6, [lr, #-2406]!	; 0x966
    a4b0:	6e695f64 	cdpvs	15, 6, cr5, cr9, cr4, {3}
    a4b4:	75727473 	ldrbvc	r7, [r2, #-1139]!	; 0x473
    a4b8:	6f697463 	svcvs	0x00697463
    a4bc:	65765f6e 	ldrbvs	r5, [r6, #-3950]!	; 0xf6e
    a4c0:	726f7463 	rsbvc	r7, pc, #1660944384	; 0x63000000
    a4c4:	00000000 	andeq	r0, r0, r0
    a4c8:	34317363 	ldrtcc	r7, [r1], #-867	; 0x363
    a4cc:	692d6530 	pushvs	{r4, r5, r8, sl, sp, lr}
    a4d0:	7265746e 	rsbvc	r7, r5, #1845493760	; 0x6e000000
    a4d4:	74707572 	ldrbtvc	r7, [r0], #-1394	; 0x572
    a4d8:	6665642f 	strbtvs	r6, [r5], -pc, lsr #8
    a4dc:	746c7561 	strbtvc	r7, [ip], #-1377	; 0x561
    a4e0:	6e61682d 	cdpvs	8, 6, cr6, cr1, cr13, {1}
    a4e4:	72656c64 	rsbvc	r6, r5, #100, 24	; 0x6400
    a4e8:	646e752d 	strbtvs	r7, [lr], #-1325	; 0x52d
    a4ec:	6e696665 	cdpvs	6, 6, cr6, cr9, cr5, {3}
    a4f0:	692d6465 	pushvs	{r0, r2, r5, r6, sl, sp, lr}
    a4f4:	2e74736e 	cdpcs	3, 7, cr7, cr4, cr14, {3}
    a4f8:	00000063 	andeq	r0, r0, r3, rrx
    a4fc:	65646e75 	strbvs	r6, [r4, #-3701]!	; 0xe75
    a500:	656e6966 	strbvs	r6, [lr, #-2406]!	; 0x966
    a504:	6e692064 	cdpvs	0, 6, cr2, cr9, cr4, {3}
    a508:	00007473 	andeq	r7, r0, r3, ror r4

Disassembly of section .bss:

0000a50c <__bss_start__>:
    a50c:	00000000 	andeq	r0, r0, r0

0000a510 <temp>:
    a510:	00000000 	andeq	r0, r0, r0

0000a514 <cycle_counter>:
    a514:	00000000 	andeq	r0, r0, r0

0000a518 <nevents>:
    a518:	00000000 	andeq	r0, r0, r0

0000a51c <n_falling_edge>:
    a51c:	00000000 	andeq	r0, r0, r0

0000a520 <n_rising_edge>:
    a520:	00000000 	andeq	r0, r0, r0

0000a524 <buf.4213>:
	...

0000a924 <console_uart>:
	...

0000a930 <rpi_arm_timer_t>:
	...

Disassembly of section .ARM.attributes:

00000000 <.ARM.attributes>:
   0:	00002a41 	andeq	r2, r0, r1, asr #20
   4:	61656100 	cmnvs	r5, r0, lsl #2
   8:	01006962 	tsteq	r0, r2, ror #18
   c:	00000020 	andeq	r0, r0, r0, lsr #32
  10:	4b5a3605 	blmi	168d82c <__bss_end__+0x1682ef4>
  14:	08070600 	stmdaeq	r7, {r9, sl}
  18:	12010901 	andne	r0, r1, #16384	; 0x4000
  1c:	15011404 	strne	r1, [r1, #-1028]	; 0x404
  20:	18031701 	stmdane	r3, {r0, r8, r9, sl, ip}
  24:	22011a01 	andcs	r1, r1, #4096	; 0x1000
  28:	Address 0x0000000000000028 is out of bounds.


Disassembly of section .comment:

00000000 <.comment>:
   0:	3a434347 	bcc	10d0d24 <__bss_end__+0x10c63ec>
   4:	4e472820 	cdpmi	8, 4, cr2, cr7, cr0, {1}
   8:	34202955 	strtcc	r2, [r0], #-2389	; 0x955
   c:	332e382e 	teqcc	lr, #3014656	; 0x2e0000
	...

Disassembly of section .debug_info:

00000000 <.debug_info>:
       0:	00000dda 	ldrdeq	r0, [r0], -sl
       4:	00000004 	andeq	r0, r0, r4
       8:	01040000 	mrseq	r0, (UNDEF: 4)
       c:	000002ea 	andeq	r0, r0, sl, ror #5
      10:	00035f01 	andeq	r5, r3, r1, lsl #30
      14:	0001a000 	andeq	sl, r1, r0
      18:	00801000 	addeq	r1, r0, r0
      1c:	0006f000 	andeq	pc, r6, r0
      20:	00000000 	andeq	r0, r0, r0
      24:	05040200 	streq	r0, [r4, #-512]	; 0x200
      28:	00746e69 	rsbseq	r6, r4, r9, ror #28
      2c:	6c070403 	cfstrsvs	mvf0, [r7], {3}
      30:	03000000 	movweq	r0, #0
      34:	02910601 	addseq	r0, r1, #1048576	; 0x100000
      38:	02030000 	andeq	r0, r3, #0
      3c:	0002aa05 	andeq	sl, r2, r5, lsl #20
      40:	05040300 	streq	r0, [r4, #-768]	; 0x300
      44:	0000008f 	andeq	r0, r0, pc, lsl #1
      48:	8a050803 	bhi	14205c <__bss_end__+0x137724>
      4c:	04000000 	streq	r0, [r0], #-0
      50:	000003d7 	ldrdeq	r0, [r0], -r7
      54:	005a2e06 	subseq	r2, sl, r6, lsl #28
      58:	01030000 	mrseq	r0, (UNDEF: 3)
      5c:	00028f08 	andeq	r8, r2, r8, lsl #30
      60:	07020300 	streq	r0, [r2, -r0, lsl #6]
      64:	00000188 	andeq	r0, r0, r8, lsl #3
      68:	67070403 	strvs	r0, [r7, -r3, lsl #8]
      6c:	03000000 	movweq	r0, #0
      70:	00620708 	rsbeq	r0, r2, r8, lsl #14
      74:	04030000 	streq	r0, [r3], #-0
      78:	00022907 	andeq	r2, r2, r7, lsl #18
      7c:	08010300 	stmdaeq	r1, {r8, r9}
      80:	00000298 	muleq	r0, r8, r2
      84:	008a0405 	addeq	r0, sl, r5, lsl #8
      88:	7d060000 	stcvc	0, cr0, [r6, #-0]
      8c:	07000000 	streq	r0, [r0, -r0]
      90:	b0390201 	eorslt	r0, r9, r1, lsl #4
      94:	08000000 	stmdaeq	r0, {}	; <UNPREDICTABLE>
      98:	00000000 	andeq	r0, r0, r0
      9c:	000a0831 	andeq	r0, sl, r1, lsr r8
      a0:	08320000 	ldmdaeq	r2!, {}	; <UNPREDICTABLE>
      a4:	00000014 	andeq	r0, r0, r4, lsl r0
      a8:	001e0833 	andseq	r0, lr, r3, lsr r8
      ac:	00340000 	eorseq	r0, r4, r0
      b0:	33030407 	movwcc	r0, #13319	; 0x3407
      b4:	0000011d 	andeq	r0, r0, sp, lsl r1
      b8:	0000cf08 	andeq	ip, r0, r8, lsl #30
      bc:	82e88000 	rschi	r8, r8, #0
      c0:	c0080280 	andgt	r0, r8, r0, lsl #5
      c4:	80000000 	andhi	r0, r0, r0
      c8:	028082e8 	addeq	r8, r0, #232, 4	; 0x8000000e
      cc:	00038708 	andeq	r8, r3, r8, lsl #14
      d0:	82e88400 	rschi	r8, r8, #0, 8
      d4:	a7080280 	strge	r0, [r8, -r0, lsl #5]
      d8:	88000000 	stmdahi	r0, {}	; <UNPREDICTABLE>
      dc:	028082e8 	addeq	r8, r0, #232, 4	; 0x8000000e
      e0:	00039708 	andeq	r9, r3, r8, lsl #14
      e4:	82e88c00 	rschi	r8, r8, #0, 24
      e8:	47080280 	strmi	r0, [r8, -r0, lsl #5]
      ec:	90000000 	andls	r0, r0, r0
      f0:	028082e8 	addeq	r8, r0, #232, 4	; 0x8000000e
      f4:	00011408 	andeq	r1, r1, r8, lsl #8
      f8:	82e89400 	rschi	r9, r8, #0, 8
      fc:	32080280 	andcc	r0, r8, #128, 4
     100:	98000002 	stmdals	r0, {r1}
     104:	028082e8 	addeq	r8, r0, #232, 4	; 0x8000000e
     108:	00037208 	andeq	r7, r3, r8, lsl #4
     10c:	82e89c00 	rschi	r9, r8, #0, 24
     110:	25080280 	strcs	r0, [r8, #-640]	; 0x280
     114:	a0000004 	andge	r0, r0, r4
     118:	028082e8 	addeq	r8, r0, #232, 4	; 0x8000000e
     11c:	002c0900 	eoreq	r0, ip, r0, lsl #18
     120:	790a0000 	stmdbvc	sl, {}	; <UNPREDICTABLE>
     124:	01000000 	mrseq	r0, (UNDEF: 0)
     128:	013a0329 	teqeq	sl, r9, lsr #6
     12c:	700b0000 	andvc	r0, fp, r0
     130:	01006e69 	tsteq	r0, r9, ror #28
     134:	00002c29 	andeq	r2, r0, r9, lsr #24
     138:	fd0a0000 	stc2	0, cr0, [sl, #-0]
     13c:	01000000 	mrseq	r0, (UNDEF: 0)
     140:	0152032e 	cmpeq	r2, lr, lsr #6
     144:	700b0000 	andvc	r0, fp, r0
     148:	01006e69 	tsteq	r0, r9, ror #28
     14c:	00002c2e 	andeq	r2, r0, lr, lsr #24
     150:	370a0000 	strcc	r0, [sl, -r0]
     154:	01000000 	mrseq	r0, (UNDEF: 0)
     158:	01730333 	cmneq	r3, r3, lsr r3
     15c:	700b0000 	andvc	r0, fp, r0
     160:	01006e69 	tsteq	r0, r9, ror #28
     164:	00002c33 	andeq	r2, r0, r3, lsr ip
     168:	00760b00 	rsbseq	r0, r6, r0, lsl #22
     16c:	002c3301 	eoreq	r3, ip, r1, lsl #6
     170:	0c000000 	stceq	0, cr0, [r0], {-0}
     174:	000002bd 			; <UNDEFINED> instruction: 0x000002bd
     178:	002c4101 	eoreq	r4, ip, r1, lsl #2
     17c:	80100000 	andshi	r0, r0, r0
     180:	00500000 	subseq	r0, r0, r0
     184:	9c010000 	stcls	0, cr0, [r1], {-0}
     188:	0000024f 	andeq	r0, r0, pc, asr #4
     18c:	0100730d 	tsteq	r0, sp, lsl #6
     190:	00002c41 	andeq	r2, r0, r1, asr #24
     194:	00000000 	andeq	r0, r0, r0
     198:	017b0e00 	cmneq	fp, r0, lsl #28
     19c:	025f0000 	subseq	r0, pc, #0
     1a0:	03050000 	movweq	r0, #20480	; 0x5000
     1a4:	0000a058 	andeq	sl, r0, r8, asr r0
     1a8:	0002d60f 	andeq	sp, r2, pc, lsl #12
     1ac:	2c430100 	stfcse	f0, [r3], {-0}
     1b0:	10000000 	andne	r0, r0, r0
     1b4:	0000019b 	muleq	r0, fp, r1
     1b8:	002c4501 	eoreq	r4, ip, r1, lsl #10
     1bc:	003a0000 	eorseq	r0, sl, r0
     1c0:	38110000 	ldmdacc	r1, {}	; <UNPREDICTABLE>
     1c4:	04000080 	streq	r0, [r0], #-128	; 0x80
     1c8:	db000000 	blle	1d0 <_start-0x7e30>
     1cc:	0f000001 	svceq	0x00000001
     1d0:	0000025a 	andeq	r0, r0, sl, asr r2
     1d4:	002c4301 	eoreq	r4, ip, r1, lsl #6
     1d8:	11000000 	mrsne	r0, (UNDEF: 0)
     1dc:	00008048 	andeq	r8, r0, r8, asr #32
     1e0:	00000004 	andeq	r0, r0, r4
     1e4:	000001f8 	strdeq	r0, [r0], -r8
     1e8:	00025a10 	andeq	r5, r2, r0, lsl sl
     1ec:	2c450100 	stfcse	f0, [r5], {-0}
     1f0:	3a000000 	bcc	1f8 <_start-0x7e08>
     1f4:	00000000 	andeq	r0, r0, r0
     1f8:	00802012 	addeq	r2, r0, r2, lsl r0
     1fc:	000d1000 	andeq	r1, sp, r0
     200:	80341300 	eorshi	r1, r4, r0, lsl #6
     204:	0d170000 	ldceq	0, cr0, [r7, #-0]
     208:	02300000 	eorseq	r0, r0, #0
     20c:	01140000 	tsteq	r4, r0
     210:	42080253 	andmi	r0, r8, #805306373	; 0x30000005
     214:	05520114 	ldrbeq	r0, [r2, #-276]	; 0x114
     218:	00a05803 	adceq	r5, r0, r3, lsl #16
     21c:	51011400 	tstpl	r1, r0, lsl #8
     220:	a0980305 	addsge	r0, r8, r5, lsl #6
     224:	01140000 	tsteq	r4, r0
     228:	68030550 	stmdavs	r3, {r4, r6, r8, sl}
     22c:	000000a0 	andeq	r0, r0, r0, lsr #1
     230:	00803812 	addeq	r3, r0, r2, lsl r8
     234:	000d2d00 	andeq	r2, sp, r0, lsl #26
     238:	80481500 	subhi	r1, r8, r0, lsl #10
     23c:	0d340000 	ldceq	0, cr0, [r4, #-0]
     240:	01140000 	tsteq	r4, r0
     244:	01f30750 	mvnseq	r0, r0, asr r7
     248:	03e80a50 	mvneq	r0, #80, 20	; 0x50000
     24c:	1600001e 			; <UNDEFINED> instruction: 0x1600001e
     250:	0000007d 	andeq	r0, r0, sp, ror r0
     254:	0000025f 	andeq	r0, r0, pc, asr r2
     258:	00007617 	andeq	r7, r0, r7, lsl r6
     25c:	06000e00 	streq	r0, [r0], -r0, lsl #28
     260:	0000024f 	andeq	r0, r0, pc, asr #4
     264:	00029d0c 	andeq	r9, r2, ip, lsl #26
     268:	2c4a0100 	stfcse	f0, [sl], {-0}
     26c:	60000000 	andvs	r0, r0, r0
     270:	ec000080 	stc	0, cr0, [r0], {128}	; 0x80
     274:	01000001 	tsteq	r0, r1
     278:	0003ec9c 	muleq	r3, ip, ip
     27c:	69700d00 	ldmdbvs	r0!, {r8, sl, fp}^
     280:	4a01006e 	bmi	40440 <__bss_end__+0x35b08>
     284:	0000002c 	andeq	r0, r0, ip, lsr #32
     288:	0000004d 	andeq	r0, r0, sp, asr #32
     28c:	00046210 	andeq	r6, r4, r0, lsl r2
     290:	2c4c0100 	stfcse	f0, [ip], {-0}
     294:	6e000000 	cdpvs	0, 0, cr0, cr0, cr0, {0}
     298:	18000000 	stmdane	r0, {}	; <UNPREDICTABLE>
     29c:	4d010069 	stcmi	0, cr0, [r1, #-420]	; 0xfffffe5c
     2a0:	0000002c 	andeq	r0, r0, ip, lsr #32
     2a4:	06461901 	strbeq	r1, [r6], -r1, lsl #18
     2a8:	51010000 	mrspl	r0, (UNDEF: 1)
     2ac:	0000002c 	andeq	r0, r0, ip, lsr #32
     2b0:	74115301 	ldrvc	r5, [r1], #-769	; 0x301
     2b4:	04000080 	streq	r0, [r0], #-128	; 0x80
     2b8:	cd000000 	stcgt	0, cr0, [r0, #-0]
     2bc:	19000002 	stmdbne	r0, {r1}
     2c0:	0000025a 	andeq	r0, r0, sl, asr r2
     2c4:	002c5101 	eoreq	r5, ip, r1, lsl #2
     2c8:	53010000 	movwpl	r0, #4096	; 0x1000
     2cc:	807c1100 	rsbshi	r1, ip, r0, lsl #2
     2d0:	00040000 	andeq	r0, r4, r0
     2d4:	02ea0000 	rsceq	r0, sl, #0
     2d8:	5a100000 	bpl	4002e0 <__bss_end__+0x3f59a8>
     2dc:	01000002 	tsteq	r0, r2
     2e0:	00002c52 	andeq	r2, r0, r2, asr ip
     2e4:	0000cf00 	andeq	ip, r0, r0, lsl #30
     2e8:	90110000 	andsls	r0, r1, r0
     2ec:	04000080 	streq	r0, [r0], #-128	; 0x80
     2f0:	07000000 	streq	r0, [r0, -r0]
     2f4:	10000003 	andne	r0, r0, r3
     2f8:	0000025a 	andeq	r0, r0, sl, asr r2
     2fc:	002c5401 	eoreq	r5, ip, r1, lsl #8
     300:	00e20000 	rsceq	r0, r2, r0
     304:	11000000 	mrsne	r0, (UNDEF: 0)
     308:	000080bc 	strheq	r8, [r0], -ip
     30c:	00000004 	andeq	r0, r0, r4
     310:	00000324 	andeq	r0, r0, r4, lsr #6
     314:	00025a10 	andeq	r5, r2, r0, lsl sl
     318:	2c560100 	ldfcse	f0, [r6], {-0}
     31c:	f5000000 			; <UNDEFINED> instruction: 0xf5000000
     320:	00000000 	andeq	r0, r0, r0
     324:	0080ec11 	addeq	lr, r0, r1, lsl ip
     328:	00000400 	andeq	r0, r0, r0, lsl #8
     32c:	00034100 	andeq	r4, r3, r0, lsl #2
     330:	025a1000 	subseq	r1, sl, #0
     334:	58010000 	stmdapl	r1, {}	; <UNPREDICTABLE>
     338:	0000002c 	andeq	r0, r0, ip, lsr #32
     33c:	00000108 	andeq	r0, r0, r8, lsl #2
     340:	811c1100 	tsthi	ip, r0, lsl #2
     344:	00040000 	andeq	r0, r4, r0
     348:	035e0000 	cmpeq	lr, #0
     34c:	5a100000 	bpl	400354 <__bss_end__+0x3f5a1c>
     350:	01000002 	tsteq	r0, r2
     354:	00002c5a 	andeq	r2, r0, sl, asr ip
     358:	00011b00 	andeq	r1, r1, r0, lsl #22
     35c:	4c110000 	ldcmi	0, cr0, [r1], {-0}
     360:	04000081 	streq	r0, [r0], #-129	; 0x81
     364:	7b000000 	blvc	36c <_start-0x7c94>
     368:	10000003 	andne	r0, r0, r3
     36c:	0000025a 	andeq	r0, r0, sl, asr r2
     370:	002c5c01 	eoreq	r5, ip, r1, lsl #24
     374:	012e0000 	teqeq	lr, r0
     378:	11000000 	mrsne	r0, (UNDEF: 0)
     37c:	0000817c 	andeq	r8, r0, ip, ror r1
     380:	00000004 	andeq	r0, r0, r4
     384:	00000398 	muleq	r0, r8, r3
     388:	00025a10 	andeq	r5, r2, r0, lsl sl
     38c:	2c5e0100 	ldfcse	f0, [lr], {-0}
     390:	41000000 	mrsmi	r0, (UNDEF: 0)
     394:	00000001 	andeq	r0, r0, r1
     398:	0081ac11 	addeq	sl, r1, r1, lsl ip
     39c:	00000400 	andeq	r0, r0, r0, lsl #8
     3a0:	0003b500 	andeq	fp, r3, r0, lsl #10
     3a4:	025a1000 	subseq	r1, sl, #0
     3a8:	60010000 	andvs	r0, r1, r0
     3ac:	0000002c 	andeq	r0, r0, ip, lsr #32
     3b0:	00000154 	andeq	r0, r0, r4, asr r1
     3b4:	81dc1100 	bicshi	r1, ip, r0, lsl #2
     3b8:	00040000 	andeq	r0, r4, r0
     3bc:	03d20000 	bicseq	r0, r2, #0
     3c0:	5a100000 	bpl	4003c8 <__bss_end__+0x3f5a90>
     3c4:	01000002 	tsteq	r0, r2
     3c8:	00002c62 	andeq	r2, r0, r2, ror #24
     3cc:	00016700 	andeq	r6, r1, r0, lsl #14
     3d0:	081a0000 	ldmdaeq	sl, {}	; <UNPREDICTABLE>
     3d4:	04000082 	streq	r0, [r0], #-130	; 0x82
     3d8:	10000000 	andne	r0, r0, r0
     3dc:	0000025a 	andeq	r0, r0, sl, asr r2
     3e0:	002c6401 	eoreq	r6, ip, r1, lsl #8
     3e4:	017a0000 	cmneq	sl, r0
     3e8:	00000000 	andeq	r0, r0, r0
     3ec:	0000ec1b 	andeq	lr, r0, fp, lsl ip
     3f0:	4c730100 	ldfmie	f0, [r3], #-0
     3f4:	9c000082 	stcls	0, cr0, [r0], {130}	; 0x82
     3f8:	01000002 	tsteq	r0, r2
     3fc:	0008a29c 	muleq	r8, ip, r2
     400:	69700d00 	ldmdbvs	r0!, {r8, sl, fp}^
     404:	7301006e 	movwvc	r0, #4206	; 0x106e
     408:	0000002c 	andeq	r0, r0, ip, lsr #32
     40c:	0000018d 	andeq	r0, r0, sp, lsl #3
     410:	000a541c 	andeq	r5, sl, ip, lsl r4
     414:	4f730100 	svcmi	0x00730100
     418:	ae000000 	cdpge	0, 0, cr0, cr0, cr0, {0}
     41c:	1c000001 	stcne	0, cr0, [r0], {1}
     420:	000000a0 	andeq	r0, r0, r0, lsr #1
     424:	002c7301 	eoreq	r7, ip, r1, lsl #6
     428:	01e80000 	mvneq	r0, r0
     42c:	69180000 	ldmdbvs	r8, {}	; <UNPREDICTABLE>
     430:	2c740100 	ldfcse	f0, [r4], #-0
     434:	01000000 	mrseq	r0, (UNDEF: 0)
     438:	00064619 	andeq	r4, r6, r9, lsl r6
     43c:	2c750100 	ldfcse	f0, [r5], #-0
     440:	01000000 	mrseq	r0, (UNDEF: 0)
     444:	82501153 	subshi	r1, r0, #-1073741804	; 0xc0000014
     448:	00040000 	andeq	r0, r4, r0
     44c:	04600000 	strbteq	r0, [r0], #-0
     450:	5a190000 	bpl	640458 <__bss_end__+0x635b20>
     454:	01000002 	tsteq	r0, r2
     458:	00002c75 	andeq	r2, r0, r5, ror ip
     45c:	00530100 	subseq	r0, r3, r0, lsl #2
     460:	00013a1d 	andeq	r3, r1, sp, lsl sl
     464:	00826400 	addeq	r6, r2, r0, lsl #8
     468:	00001800 	andeq	r1, r0, r0, lsl #16
     46c:	7d7b0100 	ldfvce	f0, [fp, #-0]
     470:	1e000004 	cdpne	0, 0, cr0, cr0, cr4, {0}
     474:	00000146 	andeq	r0, r0, r6, asr #2
     478:	00000209 	andeq	r0, r0, r9, lsl #4
     47c:	82801100 	addhi	r1, r0, #0, 2
     480:	00040000 	andeq	r0, r4, r0
     484:	049a0000 	ldreq	r0, [sl], #0
     488:	5a100000 	bpl	400490 <__bss_end__+0x3f5b58>
     48c:	01000002 	tsteq	r0, r2
     490:	00002c7c 	andeq	r2, r0, ip, ror ip
     494:	00022a00 	andeq	r2, r2, r0, lsl #20
     498:	521d0000 	andspl	r0, sp, #0
     49c:	90000001 	andls	r0, r0, r1
     4a0:	2c000082 	stccs	0, cr0, [r0], {130}	; 0x82
     4a4:	01000000 	mrseq	r0, (UNDEF: 0)
     4a8:	0004f77d 	andeq	pc, r4, sp, ror r7	; <UNPREDICTABLE>
     4ac:	01691e00 	cmneq	r9, r0, lsl #28
     4b0:	023d0000 	eorseq	r0, sp, #0
     4b4:	5e1f0000 	cdppl	0, 1, cr0, cr15, cr0, {0}
     4b8:	04000001 	streq	r0, [r0], #-1
     4bc:	9f5001f3 	svcls	0x005001f3
     4c0:	0001221d 	andeq	r2, r1, sp, lsl r2
     4c4:	00829800 	addeq	r9, r2, r0, lsl #16
     4c8:	00001400 	andeq	r1, r0, r0, lsl #8
     4cc:	dd360100 	ldfles	f0, [r6, #-0]
     4d0:	1e000004 	cdpne	0, 0, cr0, cr0, cr4, {0}
     4d4:	0000012e 	andeq	r0, r0, lr, lsr #2
     4d8:	00000269 	andeq	r0, r0, r9, ror #4
     4dc:	013a2000 	teqeq	sl, r0
     4e0:	82ac0000 	adchi	r0, ip, #0
     4e4:	00100000 	andseq	r0, r0, r0
     4e8:	38010000 	stmdacc	r1, {}	; <UNPREDICTABLE>
     4ec:	0001461e 	andeq	r4, r1, lr, lsl r6
     4f0:	00027f00 	andeq	r7, r2, r0, lsl #30
     4f4:	11000000 	mrsne	r0, (UNDEF: 0)
     4f8:	000082c0 	andeq	r8, r0, r0, asr #5
     4fc:	00000004 	andeq	r0, r0, r4
     500:	00000514 	andeq	r0, r0, r4, lsl r5
     504:	00025a10 	andeq	r5, r2, r0, lsl sl
     508:	2c7e0100 	ldfcse	f0, [lr], #-0
     50c:	95000000 	strls	r0, [r0, #-0]
     510:	00000002 	andeq	r0, r0, r2
     514:	0001521d 	andeq	r5, r1, sp, lsl r2
     518:	0082d000 	addeq	sp, r2, r0
     51c:	00002c00 	andeq	r2, r0, r0, lsl #24
     520:	717f0100 	cmnvc	pc, r0, lsl #2
     524:	1e000005 	cdpne	0, 0, cr0, cr0, cr5, {0}
     528:	00000169 	andeq	r0, r0, r9, ror #2
     52c:	000002a8 	andeq	r0, r0, r8, lsr #5
     530:	00015e1f 	andeq	r5, r1, pc, lsl lr
     534:	01f30400 	mvnseq	r0, r0, lsl #8
     538:	221d9f50 	andscs	r9, sp, #80, 30	; 0x140
     53c:	d8000001 	stmdale	r0, {r0}
     540:	14000082 	strne	r0, [r0], #-130	; 0x82
     544:	01000000 	mrseq	r0, (UNDEF: 0)
     548:	00055736 	andeq	r5, r5, r6, lsr r7
     54c:	012e1e00 	teqeq	lr, r0, lsl #28
     550:	02d40000 	sbcseq	r0, r4, #0
     554:	20000000 	andcs	r0, r0, r0
     558:	0000013a 	andeq	r0, r0, sl, lsr r1
     55c:	000082ec 	andeq	r8, r0, ip, ror #5
     560:	00000010 	andeq	r0, r0, r0, lsl r0
     564:	461e3801 	ldrmi	r3, [lr], -r1, lsl #16
     568:	ea000001 	b	574 <_start-0x7a8c>
     56c:	00000002 	andeq	r0, r0, r2
     570:	83001100 	movwhi	r1, #256	; 0x100
     574:	00040000 	andeq	r0, r4, r0
     578:	058e0000 	streq	r0, [lr]
     57c:	5a100000 	bpl	400584 <__bss_end__+0x3f5c4c>
     580:	01000002 	tsteq	r0, r2
     584:	00002c80 	andeq	r2, r0, r0, lsl #25
     588:	00030000 	andeq	r0, r3, r0
     58c:	521d0000 	andspl	r0, sp, #0
     590:	10000001 	andne	r0, r0, r1
     594:	2c000083 	stccs	0, cr0, [r0], {131}	; 0x83
     598:	01000000 	mrseq	r0, (UNDEF: 0)
     59c:	0005eb81 	andeq	lr, r5, r1, lsl #23
     5a0:	01691e00 	cmneq	r9, r0, lsl #28
     5a4:	03130000 	tsteq	r3, #0
     5a8:	5e1f0000 	cdppl	0, 1, cr0, cr15, cr0, {0}
     5ac:	04000001 	streq	r0, [r0], #-1
     5b0:	9f5001f3 	svcls	0x005001f3
     5b4:	0001221d 	andeq	r2, r1, sp, lsl r2
     5b8:	00831800 	addeq	r1, r3, r0, lsl #16
     5bc:	00001400 	andeq	r1, r0, r0, lsl #8
     5c0:	d1360100 	teqle	r6, r0, lsl #2
     5c4:	1e000005 	cdpne	0, 0, cr0, cr0, cr5, {0}
     5c8:	0000012e 	andeq	r0, r0, lr, lsr #2
     5cc:	0000033f 	andeq	r0, r0, pc, lsr r3
     5d0:	013a2000 	teqeq	sl, r0
     5d4:	832c0000 	teqhi	ip, #0
     5d8:	00100000 	andseq	r0, r0, r0
     5dc:	38010000 	stmdacc	r1, {}	; <UNPREDICTABLE>
     5e0:	0001461e 	andeq	r4, r1, lr, lsl r6
     5e4:	00035500 	andeq	r5, r3, r0, lsl #10
     5e8:	11000000 	mrsne	r0, (UNDEF: 0)
     5ec:	00008340 	andeq	r8, r0, r0, asr #6
     5f0:	00000004 	andeq	r0, r0, r4
     5f4:	00000608 	andeq	r0, r0, r8, lsl #12
     5f8:	00025a10 	andeq	r5, r2, r0, lsl sl
     5fc:	2c820100 	stfcss	f0, [r2], {0}
     600:	6b000000 	blvs	608 <_start-0x79f8>
     604:	00000003 	andeq	r0, r0, r3
     608:	0001521d 	andeq	r5, r1, sp, lsl r2
     60c:	00835000 	addeq	r5, r3, r0
     610:	00002c00 	andeq	r2, r0, r0, lsl #24
     614:	65830100 	strvs	r0, [r3, #256]	; 0x100
     618:	1e000006 	cdpne	0, 0, cr0, cr0, cr6, {0}
     61c:	00000169 	andeq	r0, r0, r9, ror #2
     620:	0000037e 	andeq	r0, r0, lr, ror r3
     624:	00015e1f 	andeq	r5, r1, pc, lsl lr
     628:	01f30400 	mvnseq	r0, r0, lsl #8
     62c:	221d9f50 	andscs	r9, sp, #80, 30	; 0x140
     630:	58000001 	stmdapl	r0, {r0}
     634:	14000083 	strne	r0, [r0], #-131	; 0x83
     638:	01000000 	mrseq	r0, (UNDEF: 0)
     63c:	00064b36 	andeq	r4, r6, r6, lsr fp
     640:	012e1e00 	teqeq	lr, r0, lsl #28
     644:	03aa0000 			; <UNDEFINED> instruction: 0x03aa0000
     648:	20000000 	andcs	r0, r0, r0
     64c:	0000013a 	andeq	r0, r0, sl, lsr r1
     650:	0000836c 	andeq	r8, r0, ip, ror #6
     654:	00000010 	andeq	r0, r0, r0, lsl r0
     658:	461e3801 	ldrmi	r3, [lr], -r1, lsl #16
     65c:	c0000001 	andgt	r0, r0, r1
     660:	00000003 	andeq	r0, r0, r3
     664:	83801100 	orrhi	r1, r0, #0, 2
     668:	00040000 	andeq	r0, r4, r0
     66c:	06820000 	streq	r0, [r2], r0
     670:	5a100000 	bpl	400678 <__bss_end__+0x3f5d40>
     674:	01000002 	tsteq	r0, r2
     678:	00002c84 	andeq	r2, r0, r4, lsl #25
     67c:	0003d600 	andeq	sp, r3, r0, lsl #12
     680:	521d0000 	andspl	r0, sp, #0
     684:	90000001 	andls	r0, r0, r1
     688:	2c000083 	stccs	0, cr0, [r0], {131}	; 0x83
     68c:	01000000 	mrseq	r0, (UNDEF: 0)
     690:	0006df85 	andeq	sp, r6, r5, lsl #31
     694:	01691e00 	cmneq	r9, r0, lsl #28
     698:	03e90000 	mvneq	r0, #0
     69c:	5e1f0000 	cdppl	0, 1, cr0, cr15, cr0, {0}
     6a0:	04000001 	streq	r0, [r0], #-1
     6a4:	9f5001f3 	svcls	0x005001f3
     6a8:	0001221d 	andeq	r2, r1, sp, lsl r2
     6ac:	00839800 	addeq	r9, r3, r0, lsl #16
     6b0:	00001400 	andeq	r1, r0, r0, lsl #8
     6b4:	c5360100 	ldrgt	r0, [r6, #-256]!	; 0x100
     6b8:	1e000006 	cdpne	0, 0, cr0, cr0, cr6, {0}
     6bc:	0000012e 	andeq	r0, r0, lr, lsr #2
     6c0:	00000415 	andeq	r0, r0, r5, lsl r4
     6c4:	013a2000 	teqeq	sl, r0
     6c8:	83ac0000 			; <UNDEFINED> instruction: 0x83ac0000
     6cc:	00100000 	andseq	r0, r0, r0
     6d0:	38010000 	stmdacc	r1, {}	; <UNPREDICTABLE>
     6d4:	0001461e 	andeq	r4, r1, lr, lsl r6
     6d8:	00042b00 	andeq	r2, r4, r0, lsl #22
     6dc:	11000000 	mrsne	r0, (UNDEF: 0)
     6e0:	000083c0 	andeq	r8, r0, r0, asr #7
     6e4:	00000004 	andeq	r0, r0, r4
     6e8:	000006fc 	strdeq	r0, [r0], -ip
     6ec:	00025a10 	andeq	r5, r2, r0, lsl sl
     6f0:	2c860100 	stfcss	f0, [r6], {0}
     6f4:	41000000 	mrsmi	r0, (UNDEF: 0)
     6f8:	00000004 	andeq	r0, r0, r4
     6fc:	0001521d 	andeq	r5, r1, sp, lsl r2
     700:	0083d000 	addeq	sp, r3, r0
     704:	00002c00 	andeq	r2, r0, r0, lsl #24
     708:	59870100 	stmibpl	r7, {r8}
     70c:	1e000007 	cdpne	0, 0, cr0, cr0, cr7, {0}
     710:	00000169 	andeq	r0, r0, r9, ror #2
     714:	00000454 	andeq	r0, r0, r4, asr r4
     718:	00015e1f 	andeq	r5, r1, pc, lsl lr
     71c:	01f30400 	mvnseq	r0, r0, lsl #8
     720:	221d9f50 	andscs	r9, sp, #80, 30	; 0x140
     724:	d8000001 	stmdale	r0, {r0}
     728:	14000083 	strne	r0, [r0], #-131	; 0x83
     72c:	01000000 	mrseq	r0, (UNDEF: 0)
     730:	00073f36 	andeq	r3, r7, r6, lsr pc
     734:	012e1e00 	teqeq	lr, r0, lsl #28
     738:	04820000 	streq	r0, [r2], #0
     73c:	20000000 	andcs	r0, r0, r0
     740:	0000013a 	andeq	r0, r0, sl, lsr r1
     744:	000083ec 	andeq	r8, r0, ip, ror #7
     748:	00000010 	andeq	r0, r0, r0, lsl r0
     74c:	461e3801 	ldrmi	r3, [lr], -r1, lsl #16
     750:	98000001 	stmdals	r0, {r0}
     754:	00000004 	andeq	r0, r0, r4
     758:	84001100 	strhi	r1, [r0], #-256	; 0x100
     75c:	00040000 	andeq	r0, r4, r0
     760:	07760000 	ldrbeq	r0, [r6, -r0]!
     764:	5a100000 	bpl	40076c <__bss_end__+0x3f5e34>
     768:	01000002 	tsteq	r0, r2
     76c:	00002c88 	andeq	r2, r0, r8, lsl #25
     770:	0004ae00 	andeq	sl, r4, r0, lsl #28
     774:	521d0000 	andspl	r0, sp, #0
     778:	10000001 	andne	r0, r0, r1
     77c:	2c000084 	stccs	0, cr0, [r0], {132}	; 0x84
     780:	01000000 	mrseq	r0, (UNDEF: 0)
     784:	0007d389 	andeq	sp, r7, r9, lsl #7
     788:	01691e00 	cmneq	r9, r0, lsl #28
     78c:	04c10000 	strbeq	r0, [r1], #0
     790:	5e1f0000 	cdppl	0, 1, cr0, cr15, cr0, {0}
     794:	04000001 	streq	r0, [r0], #-1
     798:	9f5001f3 	svcls	0x005001f3
     79c:	0001221d 	andeq	r2, r1, sp, lsl r2
     7a0:	00841800 	addeq	r1, r4, r0, lsl #16
     7a4:	00001400 	andeq	r1, r0, r0, lsl #8
     7a8:	b9360100 	ldmdblt	r6!, {r8}
     7ac:	1e000007 	cdpne	0, 0, cr0, cr0, cr7, {0}
     7b0:	0000012e 	andeq	r0, r0, lr, lsr #2
     7b4:	000004ef 	andeq	r0, r0, pc, ror #9
     7b8:	013a2000 	teqeq	sl, r0
     7bc:	842c0000 	strthi	r0, [ip], #-0
     7c0:	00100000 	andseq	r0, r0, r0
     7c4:	38010000 	stmdacc	r1, {}	; <UNPREDICTABLE>
     7c8:	0001461e 	andeq	r4, r1, lr, lsl r6
     7cc:	00050500 	andeq	r0, r5, r0, lsl #10
     7d0:	11000000 	mrsne	r0, (UNDEF: 0)
     7d4:	00008440 	andeq	r8, r0, r0, asr #8
     7d8:	00000004 	andeq	r0, r0, r4
     7dc:	000007f0 	strdeq	r0, [r0], -r0	; <UNPREDICTABLE>
     7e0:	00025a10 	andeq	r5, r2, r0, lsl sl
     7e4:	2c8a0100 	stfcss	f0, [sl], {0}
     7e8:	1b000000 	blne	7f0 <_start-0x7810>
     7ec:	00000005 	andeq	r0, r0, r5
     7f0:	0001521d 	andeq	r5, r1, sp, lsl r2
     7f4:	00845000 	addeq	r5, r4, r0
     7f8:	00002c00 	andeq	r2, r0, r0, lsl #24
     7fc:	4d8b0100 	stfmis	f0, [fp]
     800:	1e000008 	cdpne	0, 0, cr0, cr0, cr8, {0}
     804:	00000169 	andeq	r0, r0, r9, ror #2
     808:	0000052e 	andeq	r0, r0, lr, lsr #10
     80c:	00015e1f 	andeq	r5, r1, pc, lsl lr
     810:	01f30400 	mvnseq	r0, r0, lsl #8
     814:	221d9f50 	andscs	r9, sp, #80, 30	; 0x140
     818:	58000001 	stmdapl	r0, {r0}
     81c:	14000084 	strne	r0, [r0], #-132	; 0x84
     820:	01000000 	mrseq	r0, (UNDEF: 0)
     824:	00083336 	andeq	r3, r8, r6, lsr r3
     828:	012e1e00 	teqeq	lr, r0, lsl #28
     82c:	055c0000 	ldrbeq	r0, [ip, #-0]
     830:	20000000 	andcs	r0, r0, r0
     834:	0000013a 	andeq	r0, r0, sl, lsr r1
     838:	0000846c 	andeq	r8, r0, ip, ror #8
     83c:	00000010 	andeq	r0, r0, r0, lsl r0
     840:	461e3801 	ldrmi	r3, [lr], -r1, lsl #16
     844:	72000001 	andvc	r0, r0, #1
     848:	00000005 	andeq	r0, r0, r5
     84c:	84801100 	strhi	r1, [r0], #256	; 0x100
     850:	00040000 	andeq	r0, r4, r0
     854:	086a0000 	stmdaeq	sl!, {}^	; <UNPREDICTABLE>
     858:	5a100000 	bpl	400860 <__bss_end__+0x3f5f28>
     85c:	01000002 	tsteq	r0, r2
     860:	00002c8c 	andeq	r2, r0, ip, lsl #25
     864:	00058800 	andeq	r8, r5, r0, lsl #16
     868:	221d0000 	andscs	r0, sp, #0
     86c:	90000001 	andls	r0, r0, r1
     870:	10000084 	andne	r0, r0, r4, lsl #1
     874:	01000000 	mrseq	r0, (UNDEF: 0)
     878:	0008888d 	andeq	r8, r8, sp, lsl #17
     87c:	012e1f00 	teqeq	lr, r0, lsl #30
     880:	f3040000 	vhadd.u8	d0, d4, d0
     884:	009f5001 	addseq	r5, pc, r1
     888:	0084a41a 	addeq	sl, r4, sl, lsl r4
     88c:	00000400 	andeq	r0, r0, r0, lsl #8
     890:	025a1000 	subseq	r1, sl, #0
     894:	8e010000 	cdphi	0, 0, cr0, cr1, cr0, {0}
     898:	0000002c 	andeq	r0, r0, ip, lsr #32
     89c:	0000059b 	muleq	r0, fp, r5
     8a0:	f9210000 			; <UNDEFINED> instruction: 0xf9210000
     8a4:	01000001 	tsteq	r0, r1
     8a8:	0084e893 	umulleq	lr, r4, r3, r8
     8ac:	00010000 	andeq	r0, r1, r0
     8b0:	ac9c0100 	ldfges	f0, [ip], {0}
     8b4:	0d000009 	stceq	0, cr0, [r0, #-36]	; 0xffffffdc
     8b8:	01007874 	tsteq	r0, r4, ror r8
     8bc:	00002c93 	muleq	r0, r3, ip
     8c0:	0005ae00 	andeq	sl, r5, r0, lsl #28
     8c4:	78720d00 	ldmdavc	r2!, {r8, sl, fp}^
     8c8:	2c930100 	ldfcss	f0, [r3], {0}
     8cc:	cc000000 	stcgt	0, cr0, [r0], {-0}
     8d0:	0d000005 	stceq	0, cr0, [r0, #-20]	; 0xffffffec
     8d4:	9301006e 	movwls	r0, #4206	; 0x106e
     8d8:	0000002c 	andeq	r0, r0, ip, lsr #32
     8dc:	000005ed 	andeq	r0, r0, sp, ror #11
     8e0:	0001221d 	andeq	r2, r1, sp, lsl r2
     8e4:	0084f400 	addeq	pc, r4, r0, lsl #8
     8e8:	00001400 	andeq	r1, r0, r0, lsl #8
     8ec:	fd940100 	ldc2	1, cr0, [r4]
     8f0:	1e000008 	cdpne	0, 0, cr0, cr0, cr8, {0}
     8f4:	0000012e 	andeq	r0, r0, lr, lsr #2
     8f8:	0000060b 	andeq	r0, r0, fp, lsl #12
     8fc:	85101300 	ldrhi	r1, [r0, #-768]	; 0x300
     900:	0d170000 	ldceq	0, cr0, [r7, #-0]
     904:	09140000 	ldmdbeq	r4, {}	; <UNPREDICTABLE>
     908:	01140000 	tsteq	r4, r0
     90c:	ac030550 	cfstr32ge	mvfx0, [r3], {80}	; 0x50
     910:	000000a0 	andeq	r0, r0, r0, lsr #1
     914:	00852813 	addeq	r2, r5, r3, lsl r8
     918:	000d3400 	andeq	r3, sp, r0, lsl #8
     91c:	00092700 	andeq	r2, r9, r0, lsl #14
     920:	50011400 	andpl	r1, r1, r0, lsl #8
     924:	13003101 	movwne	r3, #257	; 0x101
     928:	0000855c 	andeq	r8, r0, ip, asr r5
     92c:	000003ec 	andeq	r0, r0, ip, ror #7
     930:	00000941 	andeq	r0, r0, r1, asr #18
     934:	02520114 	subseq	r0, r2, #20, 2
     938:	01140078 	tsteq	r4, r8, ror r0
     93c:	00770250 	rsbseq	r0, r7, r0, asr r2
     940:	85741300 	ldrbhi	r1, [r4, #-768]!	; 0x300
     944:	03ec0000 	mvneq	r0, #0
     948:	095b0000 	ldmdbeq	fp, {}^	; <UNPREDICTABLE>
     94c:	01140000 	tsteq	r4, r0
     950:	00780252 	rsbseq	r0, r8, r2, asr r2
     954:	02500114 	subseq	r0, r0, #20, 2
     958:	13000077 	movwne	r0, #119	; 0x77
     95c:	0000858c 	andeq	r8, r0, ip, lsl #11
     960:	000003ec 	andeq	r0, r0, ip, ror #7
     964:	00000975 	andeq	r0, r0, r5, ror r9
     968:	02520114 	subseq	r0, r2, #20, 2
     96c:	01140078 	tsteq	r4, r8, ror r0
     970:	00770250 	rsbseq	r0, r7, r0, asr r2
     974:	85a01300 	strhi	r1, [r0, #768]!	; 0x300
     978:	03ec0000 	mvneq	r0, #0
     97c:	098f0000 	stmibeq	pc, {}	; <UNPREDICTABLE>
     980:	01140000 	tsteq	r4, r0
     984:	00780252 	rsbseq	r0, r8, r2, asr r2
     988:	02500114 	subseq	r0, r0, #20, 2
     98c:	12000077 	andne	r0, r0, #119	; 0x77
     990:	000085b4 			; <UNDEFINED> instruction: 0x000085b4
     994:	00000d45 	andeq	r0, r0, r5, asr #26
     998:	0085cc15 	addeq	ip, r5, r5, lsl ip
     99c:	000d1700 	andeq	r1, sp, r0, lsl #14
     9a0:	50011400 	andpl	r1, r1, r0, lsl #8
     9a4:	a0bc0305 	adcsge	r0, ip, r5, lsl #6
     9a8:	00000000 	andeq	r0, r0, r0
     9ac:	000be31b 	andeq	lr, fp, fp, lsl r3
     9b0:	e8af0100 	stmia	pc!, {r8}	; <UNPREDICTABLE>
     9b4:	d0000085 	andle	r0, r0, r5, lsl #1
     9b8:	01000000 	mrseq	r0, (UNDEF: 0)
     9bc:	000ab99c 	muleq	sl, ip, r9
     9c0:	63700d00 	cmnvs	r0, #0, 26
     9c4:	2caf0100 	stfcss	f0, [pc]	; 9cc <_start-0x7634>
     9c8:	29000000 	stmdbcs	r0, {}	; <UNPREDICTABLE>
     9cc:	10000006 	andne	r0, r0, r6
     9d0:	0000010f 	andeq	r0, r0, pc, lsl #2
     9d4:	002cb601 	eoreq	fp, ip, r1, lsl #12
     9d8:	064a0000 	strbeq	r0, [sl], -r0
     9dc:	f0120000 			; <UNDEFINED> instruction: 0xf0120000
     9e0:	4c000085 	stcmi	0, cr0, [r0], {133}	; 0x85
     9e4:	1300000d 	movwne	r0, #13
     9e8:	000085f8 	strdeq	r8, [r0], -r8	; <UNPREDICTABLE>
     9ec:	00000d53 	andeq	r0, r0, r3, asr sp
     9f0:	000009fb 	strdeq	r0, [r0], -fp
     9f4:	02500114 	subseq	r0, r0, #20, 2
     9f8:	13003108 	movwne	r3, #264	; 0x108
     9fc:	00008608 	andeq	r8, r0, r8, lsl #12
     a00:	00000d53 	andeq	r0, r0, r3, asr sp
     a04:	00000a0f 	andeq	r0, r0, pc, lsl #20
     a08:	02500114 	subseq	r0, r0, #20, 2
     a0c:	13003208 	movwne	r3, #520	; 0x208
     a10:	00008618 	andeq	r8, r0, r8, lsl r6
     a14:	00000d68 	andeq	r0, r0, r8, ror #26
     a18:	00000a22 	andeq	r0, r0, r2, lsr #20
     a1c:	01500114 	cmpeq	r0, r4, lsl r1
     a20:	28130044 	ldmdacs	r3, {r2, r6}
     a24:	64000086 	strvs	r0, [r0], #-134	; 0x86
     a28:	35000002 	strcc	r0, [r0, #-2]
     a2c:	1400000a 	strne	r0, [r0], #-10
     a30:	44015001 	strmi	r5, [r1], #-1
     a34:	86341300 	ldrthi	r1, [r4], -r0, lsl #6
     a38:	02640000 	rsbeq	r0, r4, #0
     a3c:	0a480000 	beq	1200a44 <__bss_end__+0x11f610c>
     a40:	01140000 	tsteq	r4, r0
     a44:	00440150 	subeq	r0, r4, r0, asr r1
     a48:	00864013 	addeq	r4, r6, r3, lsl r0
     a4c:	00026400 	andeq	r6, r2, r0, lsl #8
     a50:	000a5b00 	andeq	r5, sl, r0, lsl #22
     a54:	50011400 	andpl	r1, r1, r0, lsl #8
     a58:	13004401 	movwne	r4, #1025	; 0x401
     a5c:	0000864c 	andeq	r8, r0, ip, asr #12
     a60:	00000264 	andeq	r0, r0, r4, ror #4
     a64:	00000a6e 	andeq	r0, r0, lr, ror #20
     a68:	01500114 	cmpeq	r0, r4, lsl r1
     a6c:	70130044 	andsvc	r0, r3, r4, asr #32
     a70:	17000086 	strne	r0, [r0, -r6, lsl #1]
     a74:	8500000d 	strhi	r0, [r0, #-13]
     a78:	1400000a 	strne	r0, [r0], #-10
     a7c:	03055001 	movweq	r5, #20481	; 0x5001
     a80:	0000a0d8 	ldrdeq	sl, [r0], -r8
     a84:	867c1300 	ldrbthi	r1, [ip], -r0, lsl #6
     a88:	0d170000 	ldceq	0, cr0, [r7, #-0]
     a8c:	0a9c0000 	beq	fe700a94 <__bss_end__+0xfe6f615c>
     a90:	01140000 	tsteq	r4, r0
     a94:	fc030550 	stc2	5, cr0, [r3], {80}	; 0x50
     a98:	000000a0 	andeq	r0, r0, r0, lsr #1
     a9c:	0086a013 	addeq	sl, r6, r3, lsl r0
     aa0:	000d7d00 	andeq	r7, sp, r0, lsl #26
     aa4:	000aaf00 	andeq	sl, sl, r0, lsl #30
     aa8:	50011400 	andpl	r1, r1, r0, lsl #8
     aac:	12004401 	andne	r4, r0, #16777216	; 0x1000000
     ab0:	000086a4 	andeq	r8, r0, r4, lsr #13
     ab4:	00000d4c 	andeq	r0, r0, ip, asr #26
     ab8:	00f51b00 	rscseq	r1, r5, r0, lsl #22
     abc:	cc010000 	stcgt	0, cr0, [r1], {-0}
     ac0:	000086b8 			; <UNDEFINED> instruction: 0x000086b8
     ac4:	00000048 	andeq	r0, r0, r8, asr #32
     ac8:	0b6d9c01 	bleq	1b67ad4 <__bss_end__+0x1b5d19c>
     acc:	e0110000 	ands	r0, r1, r0
     ad0:	08000086 	stmdaeq	r0, {r1, r2, r7}
     ad4:	e7000000 	str	r0, [r0, -r0]
     ad8:	1800000a 	stmdane	r0, {r1, r3}
     adc:	01006e69 	tsteq	r0, r9, ror #28
     ae0:	00002cd6 	ldrdeq	r2, [r0], -r6
     ae4:	12000100 	andne	r0, r0, #0, 2
     ae8:	000086c0 	andeq	r8, r0, r0, asr #13
     aec:	00000d8e 	andeq	r0, r0, lr, lsl #27
     af0:	0086c412 	addeq	ip, r6, r2, lsl r4
     af4:	000d9500 	andeq	r9, sp, r0, lsl #10
     af8:	86cc1300 	strbhi	r1, [ip], r0, lsl #6
     afc:	0d9c0000 	ldceq	0, cr0, [ip]
     b00:	0b0c0000 	bleq	300b08 <__bss_end__+0x2f61d0>
     b04:	01140000 	tsteq	r4, r0
     b08:	00450150 	subeq	r0, r5, r0, asr r1
     b0c:	0086d413 	addeq	sp, r6, r3, lsl r4
     b10:	000dad00 	andeq	sl, sp, r0, lsl #26
     b14:	000b1f00 	andeq	r1, fp, r0, lsl #30
     b18:	50011400 	andpl	r1, r1, r0, lsl #8
     b1c:	13004401 	movwne	r4, #1025	; 0x401
     b20:	000086dc 	ldrdeq	r8, [r0], -ip
     b24:	00000dbe 			; <UNDEFINED> instruction: 0x00000dbe
     b28:	00000b32 	andeq	r0, r0, r2, lsr fp
     b2c:	01500114 	cmpeq	r0, r4, lsl r1
     b30:	e0120044 	ands	r0, r2, r4, asr #32
     b34:	cf000086 	svcgt	0x00000086
     b38:	1200000d 	andne	r0, r0, #13
     b3c:	000086ec 	andeq	r8, r0, ip, ror #13
     b40:	00000dd6 	ldrdeq	r0, [r0], -r6
     b44:	0086fc13 	addeq	pc, r6, r3, lsl ip	; <UNPREDICTABLE>
     b48:	0008a200 	andeq	sl, r8, r0, lsl #4
     b4c:	000b6300 	andeq	r6, fp, r0, lsl #6
     b50:	52011400 	andpl	r1, r1, #0, 8
     b54:	10000a03 	andne	r0, r0, r3, lsl #20
     b58:	01510114 	cmpeq	r1, r4, lsl r1
     b5c:	50011444 	andpl	r1, r1, r4, asr #8
     b60:	12004501 	andne	r4, r0, #4194304	; 0x400000
     b64:	00008700 	andeq	r8, r0, r0, lsl #14
     b68:	00000d2d 	andeq	r0, r0, sp, lsr #26
     b6c:	02002200 	andeq	r2, r0, #0, 4
     b70:	0f010000 	svceq	0x00010000
     b74:	00000b7c 	andeq	r0, r0, ip, ror fp
     b78:	20200000 	eorcs	r0, r0, r0
     b7c:	011d0405 	tsteq	sp, r5, lsl #8
     b80:	cc220000 	stcgt	0, cr0, [r2], #-0
     b84:	01000002 	tsteq	r0, r2
     b88:	000b7c10 	andeq	r7, fp, r0, lsl ip
     b8c:	20001c00 	andcs	r1, r0, r0, lsl #24
     b90:	04012220 	streq	r2, [r1], #-544	; 0x220
     b94:	11010000 	mrsne	r0, (UNDEF: 1)
     b98:	00000b7c 	andeq	r0, r0, ip, ror fp
     b9c:	20200028 	eorcs	r0, r0, r8, lsr #32
     ba0:	00013722 	andeq	r3, r1, r2, lsr #14
     ba4:	7c130100 	ldfvcs	f0, [r3], {-0}
     ba8:	0000000b 	andeq	r0, r0, fp
     bac:	22202000 	eorcs	r2, r0, #0
     bb0:	0000013f 	andeq	r0, r0, pc, lsr r1
     bb4:	0b7c1401 	bleq	1f05bc0 <__bss_end__+0x1efb288>
     bb8:	00040000 	andeq	r0, r4, r0
     bbc:	28222020 	stmdacs	r2!, {r5, sp}
     bc0:	01000000 	mrseq	r0, (UNDEF: 0)
     bc4:	000b7c15 	andeq	r7, fp, r5, lsl ip
     bc8:	20000800 	andcs	r0, r0, r0, lsl #16
     bcc:	01472220 	cmpeq	r7, r0, lsr #4
     bd0:	16010000 	strne	r0, [r1], -r0
     bd4:	00000b7c 	andeq	r0, r0, ip, ror fp
     bd8:	2020000c 	eorcs	r0, r0, ip
     bdc:	00014f22 	andeq	r4, r1, r2, lsr #30
     be0:	7c170100 	ldfvcs	f0, [r7], {-0}
     be4:	1000000b 	andne	r0, r0, fp
     be8:	22202000 	eorcs	r2, r0, #0
     bec:	00000157 	andeq	r0, r0, r7, asr r1
     bf0:	0b7c1801 	bleq	1f06bfc <__bss_end__+0x1efc2c4>
     bf4:	00140000 	andseq	r0, r4, r0
     bf8:	a3222020 	teqge	r2, #32
     bfc:	01000002 	tsteq	r0, r2
     c00:	000c091a 	andeq	r0, ip, sl, lsl r9
     c04:	20001c00 	andcs	r1, r0, r0, lsl #24
     c08:	0b7c0620 	bleq	1f02490 <__bss_end__+0x1ef7b58>
     c0c:	b9220000 	stmdblt	r2!, {}	; <UNPREDICTABLE>
     c10:	01000000 	mrseq	r0, (UNDEF: 0)
     c14:	000b7c1b 	andeq	r7, fp, fp, lsl ip
     c18:	20002000 	andcs	r2, r0, r0
     c1c:	00302220 	eorseq	r2, r0, r0, lsr #4
     c20:	1d010000 	stcne	0, cr0, [r1, #-0]
     c24:	00000c2c 	andeq	r0, r0, ip, lsr #24
     c28:	20200028 	eorcs	r0, r0, r8, lsr #32
     c2c:	000b7c06 	andeq	r7, fp, r6, lsl #24
     c30:	020b2200 	andeq	r2, fp, #0, 4
     c34:	1e010000 	cdpne	0, 0, cr0, cr1, cr0, {0}
     c38:	00000b7c 	andeq	r0, r0, ip, ror fp
     c3c:	2020002c 	eorcs	r0, r0, ip, lsr #32
     c40:	0000de22 	andeq	sp, r0, r2, lsr #28
     c44:	4f200100 	svcmi	0x00200100
     c48:	3400000c 	strcc	r0, [r0], #-12
     c4c:	06202000 	strteq	r2, [r0], -r0
     c50:	00000b7c 	andeq	r0, r0, ip, ror fp
     c54:	0000e522 	andeq	lr, r0, r2, lsr #10
     c58:	7c210100 	stfvcs	f0, [r1], #-0
     c5c:	3800000b 	stmdacc	r0, {r0, r1, r3}
     c60:	18202000 	stmdane	r0!, {sp}
     c64:	01007872 	tsteq	r0, r2, ror r8
     c68:	000c6e23 	andeq	r6, ip, r3, lsr #28
     c6c:	25061400 	strcs	r1, [r6, #-1024]	; 0x400
     c70:	18000000 	stmdane	r0, {}	; <UNPREDICTABLE>
     c74:	01007874 	tsteq	r0, r4, ror r8
     c78:	000c7e24 	andeq	r7, ip, r4, lsr #28
     c7c:	25061500 	strcs	r1, [r6, #-1280]	; 0x500
     c80:	19000000 	stmdbne	r0, {}	; <UNPREDICTABLE>
     c84:	00000098 	muleq	r0, r8, r0
     c88:	011da901 	tsteq	sp, r1, lsl #18
     c8c:	03050000 	movweq	r0, #20480	; 0x5000
     c90:	0000a518 	andeq	sl, r0, r8, lsl r5
     c94:	00024319 	andeq	r4, r2, r9, lsl r3
     c98:	a5aa0100 	strge	r0, [sl, #256]!	; 0x100
     c9c:	0500000c 	streq	r0, [r0, #-12]
     ca0:	00a51403 	adceq	r1, r5, r3, lsl #8
     ca4:	00250900 	eoreq	r0, r5, r0, lsl #18
     ca8:	c7230000 	strgt	r0, [r3, -r0]!
     cac:	03000003 	movweq	r0, #3
     cb0:	0000b080 	andeq	fp, r0, r0, lsl #1
     cb4:	30030500 	andcc	r0, r3, r0, lsl #10
     cb8:	230000a9 	movwcs	r0, #169	; 0xa9
     cbc:	000002dc 	ldrdeq	r0, [r0], -ip
     cc0:	0ca52501 	cfstr32eq	mvfx2, [r5], #4
     cc4:	03050000 	movweq	r0, #20480	; 0x5000
     cc8:	0000a520 	andeq	sl, r0, r0, lsr #10
     ccc:	00035023 	andeq	r5, r3, r3, lsr #32
     cd0:	a5260100 	strge	r0, [r6, #-256]!	; 0x100
     cd4:	0500000c 	streq	r0, [r0, #-12]
     cd8:	00a51c03 	adceq	r1, r5, r3, lsl #24
     cdc:	015f2300 	cmpeq	pc, r0, lsl #6
     ce0:	91010000 	mrsls	r0, (UNDEF: 1)
     ce4:	0000011d 	andeq	r0, r0, sp, lsl r1
     ce8:	a50c0305 	strge	r0, [ip, #-773]	; 0x305
     cec:	78230000 	stmdavc	r3!, {}	; <UNPREDICTABLE>
     cf0:	01000002 	tsteq	r0, r2
     cf4:	00011d92 	muleq	r1, r2, sp
     cf8:	b8030500 	stmdalt	r3, {r8, sl}
     cfc:	2300009f 	movwcs	r0, #159	; 0x9f
     d00:	0000010f 	andeq	r0, r0, pc, lsl #2
     d04:	011dac01 	tsteq	sp, r1, lsl #24
     d08:	03050000 	movweq	r0, #20480	; 0x5000
     d0c:	0000a510 	andeq	sl, r0, r0, lsl r5
     d10:	00012824 	andeq	r2, r1, r4, lsr #16
     d14:	251e0400 	ldrcs	r0, [lr, #-1024]	; 0x400
     d18:	00000462 	andeq	r0, r0, r2, ror #8
     d1c:	00252904 	eoreq	r2, r5, r4, lsl #18
     d20:	0d2d0000 	stceq	0, cr0, [sp, #-0]
     d24:	84260000 	strthi	r0, [r6], #-0
     d28:	27000000 	strcs	r0, [r0, -r0]
     d2c:	021c2400 	andseq	r2, ip, #0, 8
     d30:	66040000 	strvs	r0, [r4], -r0
     d34:	0002b428 	andeq	fp, r2, r8, lsr #8
     d38:	45500400 	ldrbmi	r0, [r0, #-1024]	; 0x400
     d3c:	2600000d 	strcs	r0, [r0], -sp
     d40:	0000002c 	andeq	r0, r0, ip, lsr #32
     d44:	040b2400 	streq	r2, [fp], #-1024	; 0x400
     d48:	32050000 	andcc	r0, r5, #0
     d4c:	00028324 	andeq	r8, r2, r4, lsr #6
     d50:	258a0400 	strcs	r0, [sl, #1024]	; 0x400
     d54:	000003f5 	strdeq	r0, [r0], -r5
     d58:	00253a02 	eoreq	r3, r5, r2, lsl #20
     d5c:	0d680000 	stcleq	0, cr0, [r8, #-0]
     d60:	2c260000 	stccs	0, cr0, [r6], #-0
     d64:	00000000 	andeq	r0, r0, r0
     d68:	00021225 	andeq	r1, r2, r5, lsr #4
     d6c:	25240200 	strcs	r0, [r4, #-512]!	; 0x200
     d70:	7d000000 	stcvc	0, cr0, [r0, #-0]
     d74:	2600000d 	strcs	r0, [r0], -sp
     d78:	0000002c 	andeq	r0, r0, ip, lsr #32
     d7c:	016a2800 	cmneq	sl, r0, lsl #16
     d80:	50020000 	andpl	r0, r2, r0
     d84:	00000d8e 	andeq	r0, r0, lr, lsl #27
     d88:	00002c26 	andeq	r2, r0, r6, lsr #24
     d8c:	58240000 	stmdapl	r4!, {}	; <UNPREDICTABLE>
     d90:	04000000 	streq	r0, [r0], #-0
     d94:	0251243a 	subseq	r2, r1, #973078528	; 0x3a000000
     d98:	33050000 	movwcc	r0, #20480	; 0x5000
     d9c:	0003aa28 	andeq	sl, r3, r8, lsr #20
     da0:	ad1d0200 	lfmge	f0, 4, [sp, #-0]
     da4:	2600000d 	strcs	r0, [r0], -sp
     da8:	0000002c 	andeq	r0, r0, ip, lsr #32
     dac:	03412800 	movteq	r2, #6144	; 0x1800
     db0:	1c020000 	stcne	0, cr0, [r2], {-0}
     db4:	00000dbe 			; <UNDEFINED> instruction: 0x00000dbe
     db8:	00002c26 	andeq	r2, r0, r6, lsr #24
     dbc:	df280000 	svcle	0x00280000
     dc0:	02000003 	andeq	r0, r0, #3
     dc4:	000dcf48 	andeq	ip, sp, r8, asr #30
     dc8:	002c2600 	eoreq	r2, ip, r0, lsl #12
     dcc:	24000000 	strcs	r0, [r0], #-0
     dd0:	000003ba 			; <UNDEFINED> instruction: 0x000003ba
     dd4:	5f248e04 	svcpl	0x00248e04
     dd8:	05000002 	streq	r0, [r0, #-2]
     ddc:	01910031 	orrseq	r0, r1, r1, lsr r0
     de0:	00040000 	andeq	r0, r4, r0
     de4:	00000221 	andeq	r0, r0, r1, lsr #4
     de8:	02ea0104 	rsceq	r0, sl, #4, 2
     dec:	51010000 	mrspl	r0, (UNDEF: 1)
     df0:	73000004 	movwvc	r0, #4
     df4:	00000004 	andeq	r0, r0, r4
     df8:	58000087 	stmdapl	r0, {r0, r1, r2, r7}
     dfc:	2c000000 	stccs	0, cr0, [r0], {-0}
     e00:	02000003 	andeq	r0, r0, #3
     e04:	00000442 	andeq	r0, r0, r2, asr #8
     e08:	00302802 	eorseq	r2, r0, r2, lsl #16
     e0c:	69030000 	stmdbvs	r3, {}	; <UNPREDICTABLE>
     e10:	04000004 	streq	r0, [r0], #-4
     e14:	00470003 	subeq	r0, r7, r3
     e18:	bc040000 	stclt	0, cr0, [r4], {-0}
     e1c:	47000004 	strmi	r0, [r0, -r4]
     e20:	00000000 	andeq	r0, r0, r0
     e24:	02040500 	andeq	r0, r4, #0, 10
     e28:	0000046b 	andeq	r0, r0, fp, ror #8
     e2c:	00256202 	eoreq	r6, r5, r2, lsl #4
     e30:	04060000 	streq	r0, [r6], #-0
     e34:	746e6905 	strbtvc	r6, [lr], #-2309	; 0x905
     e38:	07040700 	streq	r0, [r4, -r0, lsl #14]
     e3c:	0000006c 	andeq	r0, r0, ip, rrx
     e40:	91060107 	tstls	r6, r7, lsl #2
     e44:	07000002 	streq	r0, [r0, -r2]
     e48:	02aa0502 	adceq	r0, sl, #8388608	; 0x800000
     e4c:	04070000 	streq	r0, [r7], #-0
     e50:	00008f05 	andeq	r8, r0, r5, lsl #30
     e54:	05080700 	streq	r0, [r8, #-1792]	; 0x700
     e58:	0000008a 	andeq	r0, r0, sl, lsl #1
     e5c:	8f080107 	svchi	0x00080107
     e60:	07000002 	streq	r0, [r0, -r2]
     e64:	01880702 	orreq	r0, r8, r2, lsl #14
     e68:	04070000 	streq	r0, [r7], #-0
     e6c:	00006707 	andeq	r6, r0, r7, lsl #14
     e70:	07080700 	streq	r0, [r8, -r0, lsl #14]
     e74:	00000062 	andeq	r0, r0, r2, rrx
     e78:	29070407 	stmdbcs	r7, {r0, r1, r2, sl}
     e7c:	08000002 	stmdaeq	r0, {r1}
     e80:	0000a704 	andeq	sl, r0, r4, lsl #14
     e84:	08010700 	stmdaeq	r1, {r8, r9, sl}
     e88:	00000298 	muleq	r0, r8, r2
     e8c:	00b40408 	adcseq	r0, r4, r8, lsl #8
     e90:	a7090000 	strge	r0, [r9, -r0]
     e94:	0a000000 	beq	e9c <_start-0x7164>
     e98:	00000462 	andeq	r0, r0, r2, ror #8
     e9c:	00540601 	subseq	r0, r4, r1, lsl #12
     ea0:	87000000 	strhi	r0, [r0, -r0]
     ea4:	00580000 	subseq	r0, r8, r0
     ea8:	9c010000 	stcls	0, cr0, [r1], {-0}
     eac:	00000143 	andeq	r0, r0, r3, asr #2
     eb0:	746d660b 	strbtvc	r6, [sp], #-1547	; 0x60b
     eb4:	ae060100 	adfges	f0, f6, f0
     eb8:	02000000 	andeq	r0, r0, #0
     ebc:	0d0c7091 	stceq	0, cr7, [ip, #-580]	; 0xfffffdbc
     ec0:	00667562 	rsbeq	r7, r6, r2, ror #10
     ec4:	01430801 	cmpeq	r3, r1, lsl #16
     ec8:	03050000 	movweq	r0, #20480	; 0x5000
     ecc:	0000a524 	andeq	sl, r0, r4, lsr #10
     ed0:	0004b70e 	andeq	fp, r4, lr, lsl #14
     ed4:	49090100 	stmdbmi	r9, {r8}
     ed8:	02000000 	andeq	r0, r0, #0
     edc:	730f5c91 	movwvc	r5, #64657	; 0xfc91
     ee0:	0c01007a 	stceq	0, cr0, [r1], {122}	; 0x7a
     ee4:	00000054 	andeq	r0, r0, r4, asr r0
     ee8:	0000067f 	andeq	r0, r0, pc, ror r6
     eec:	00872810 	addeq	r2, r7, r0, lsl r8
     ef0:	00017400 	andeq	r7, r1, r0, lsl #8
     ef4:	00013600 	andeq	r3, r1, r0, lsl #12
     ef8:	53011100 	movwpl	r1, #4352	; 0x1100
     efc:	114c9102 	cmpne	ip, r2, lsl #2
     f00:	91035201 	tstls	r3, r1, lsl #4
     f04:	01110648 	tsteq	r1, r8, asr #12
     f08:	000a0351 	andeq	r0, sl, r1, asr r3
     f0c:	50011104 	andpl	r1, r1, r4, lsl #2
     f10:	00007402 	andeq	r7, r0, r2, lsl #8
     f14:	00873c12 	addeq	r3, r7, r2, lsl ip
     f18:	50011100 	andpl	r1, r1, r0, lsl #2
     f1c:	00007402 	andeq	r7, r0, r2, lsl #8
     f20:	00a71300 	adceq	r1, r7, r0, lsl #6
     f24:	01540000 	cmpeq	r4, r0
     f28:	9a140000 	bls	500f30 <__bss_end__+0x4f65f8>
     f2c:	ff000000 			; <UNDEFINED> instruction: 0xff000000
     f30:	54150003 	ldrpl	r0, [r5], #-3
     f34:	63000000 	movwvs	r0, #0
     f38:	16000001 	strne	r0, [r0], -r1
     f3c:	000000ae 	andeq	r0, r0, lr, lsr #1
     f40:	050f1700 	streq	r1, [pc, #-1792]	; 848 <_start-0x77b8>
     f44:	22040000 	andcs	r0, r4, #0
     f48:	0000016e 	andeq	r0, r0, lr, ror #2
     f4c:	01540408 	cmpeq	r4, r8, lsl #8
     f50:	5f180000 	svcpl	0x00180000
     f54:	05000004 	streq	r0, [r0, #-4]
     f58:	00005402 	andeq	r5, r0, r2, lsl #8
     f5c:	00a11600 	adceq	r1, r1, r0, lsl #12
     f60:	54160000 	ldrpl	r0, [r6], #-0
     f64:	16000000 	strne	r0, [r0], -r0
     f68:	000000ae 	andeq	r0, r0, lr, lsr #1
     f6c:	00004916 	andeq	r4, r0, r6, lsl r9
     f70:	13000000 	movwne	r0, #0
     f74:	04000001 	streq	r0, [r0], #-1
     f78:	00035200 	andeq	r5, r3, r0, lsl #4
     f7c:	ea010400 	b	41f84 <__bss_end__+0x3764c>
     f80:	01000002 	tsteq	r0, r2
     f84:	000004de 	ldrdeq	r0, [r0], -lr
     f88:	00000473 	andeq	r0, r0, r3, ror r4
     f8c:	00008758 	andeq	r8, r0, r8, asr r7
     f90:	0000003c 	andeq	r0, r0, ip, lsr r0
     f94:	00000432 	andeq	r0, r0, r2, lsr r4
     f98:	69050402 	stmdbvs	r5, {r1, sl}
     f9c:	0300746e 	movweq	r7, #1134	; 0x46e
     fa0:	006c0704 	rsbeq	r0, ip, r4, lsl #14
     fa4:	01030000 	mrseq	r0, (UNDEF: 3)
     fa8:	00029106 	andeq	r9, r2, r6, lsl #2
     fac:	05020300 	streq	r0, [r2, #-768]	; 0x300
     fb0:	000002aa 	andeq	r0, r0, sl, lsr #5
     fb4:	8f050403 	svchi	0x00050403
     fb8:	03000000 	movweq	r0, #0
     fbc:	008a0508 	addeq	r0, sl, r8, lsl #10
     fc0:	01030000 	mrseq	r0, (UNDEF: 3)
     fc4:	00028f08 	andeq	r8, r2, r8, lsl #30
     fc8:	07020300 	streq	r0, [r2, -r0, lsl #6]
     fcc:	00000188 	andeq	r0, r0, r8, lsl #3
     fd0:	67070403 	strvs	r0, [r7, -r3, lsl #8]
     fd4:	03000000 	movweq	r0, #0
     fd8:	00620708 	rsbeq	r0, r2, r8, lsl #14
     fdc:	04030000 	streq	r0, [r3], #-0
     fe0:	00022907 	andeq	r2, r2, r7, lsl #18
     fe4:	08010300 	stmdaeq	r1, {r8, r9}
     fe8:	00000298 	muleq	r0, r8, r2
     fec:	0004c104 	andeq	ip, r4, r4, lsl #2
     ff0:	25030100 	strcs	r0, [r3, #-256]	; 0x100
     ff4:	58000000 	stmdapl	r0, {}	; <UNPREDICTABLE>
     ff8:	14000087 	strne	r0, [r0], #-135	; 0x87
     ffc:	01000000 	mrseq	r0, (UNDEF: 0)
    1000:	0000b09c 	muleq	r0, ip, r0
    1004:	00630500 	rsbeq	r0, r3, r0, lsl #10
    1008:	00250301 	eoreq	r0, r5, r1, lsl #6
    100c:	06a80000 	strteq	r0, [r8], r0
    1010:	64060000 	strvs	r0, [r6], #-0
    1014:	09000087 	stmdbeq	r0, {r0, r1, r2, r7}
    1018:	07000001 	streq	r0, [r0, -r1]
    101c:	74025001 	strvc	r5, [r2], #-1
    1020:	08000000 	stmdaeq	r0, {}	; <UNPREDICTABLE>
    1024:	00000128 	andeq	r0, r0, r8, lsr #2
    1028:	876c0801 	strbhi	r0, [ip, -r1, lsl #16]!
    102c:	00180000 	andseq	r0, r8, r0
    1030:	9c010000 	stcls	0, cr0, [r1], {-0}
    1034:	0004ed09 	andeq	lr, r4, r9, lsl #26
    1038:	840b0100 	strhi	r0, [fp], #-256	; 0x100
    103c:	10000087 	andne	r0, r0, r7, lsl #1
    1040:	01000000 	mrseq	r0, (UNDEF: 0)
    1044:	0000e39c 	muleq	r0, ip, r3
    1048:	70660a00 	rsbvc	r0, r6, r0, lsl #20
    104c:	f20b0100 	vrhadd.s8	d0, d11, d0
    1050:	01000000 	mrseq	r0, (UNDEF: 0)
    1054:	250b0050 	strcs	r0, [fp, #-80]	; 0x50
    1058:	f2000000 	vhadd.s8	d0, d0, d0
    105c:	0c000000 	stceq	0, cr0, [r0], {-0}
    1060:	00000025 	andeq	r0, r0, r5, lsr #32
    1064:	e3040d00 	movw	r0, #19712	; 0x4d00
    1068:	0e000000 	cdpeq	0, 0, cr0, cr0, cr0, {0}
    106c:	000004d2 	ldrdeq	r0, [r0], -r2
    1070:	00f20601 	rscseq	r0, r2, r1, lsl #12
    1074:	03050000 	movweq	r0, #20480	; 0x5000
    1078:	00009fbc 			; <UNDEFINED> instruction: 0x00009fbc
    107c:	00065a0f 	andeq	r5, r6, pc, lsl #20
    1080:	0c3c0200 	lfmeq	f0, 4, [ip], #-0
    1084:	0000002c 	andeq	r0, r0, ip, lsr #32
    1088:	00ee0000 	rsceq	r0, lr, r0
    108c:	00040000 	andeq	r0, r4, r0
    1090:	0000043a 	andeq	r0, r0, sl, lsr r4
    1094:	02ea0104 	rsceq	r0, sl, #4, 2
    1098:	fa010000 	blx	410a0 <__bss_end__+0x36768>
    109c:	73000004 	movwvc	r0, #4
    10a0:	94000004 	strls	r0, [r0], #-4
    10a4:	34000087 	strcc	r0, [r0], #-135	; 0x87
    10a8:	c0000000 	andgt	r0, r0, r0
    10ac:	02000004 	andeq	r0, r0, #4
    10b0:	6e690504 	cdpvs	5, 6, cr0, cr9, cr4, {0}
    10b4:	04030074 	streq	r0, [r3], #-116	; 0x74
    10b8:	00006c07 	andeq	r6, r0, r7, lsl #24
    10bc:	06010300 	streq	r0, [r1], -r0, lsl #6
    10c0:	00000291 	muleq	r0, r1, r2
    10c4:	aa050203 	bge	1418d8 <__bss_end__+0x136fa0>
    10c8:	03000002 	movweq	r0, #2
    10cc:	008f0504 	addeq	r0, pc, r4, lsl #10
    10d0:	08030000 	stmdaeq	r3, {}	; <UNPREDICTABLE>
    10d4:	00008a05 	andeq	r8, r0, r5, lsl #20
    10d8:	08010300 	stmdaeq	r1, {r8, r9}
    10dc:	0000028f 	andeq	r0, r0, pc, lsl #5
    10e0:	88070203 	stmdahi	r7, {r0, r1, r9}
    10e4:	03000001 	movweq	r0, #1
    10e8:	00670704 	rsbeq	r0, r7, r4, lsl #14
    10ec:	08030000 	stmdaeq	r3, {}	; <UNPREDICTABLE>
    10f0:	00006207 	andeq	r6, r0, r7, lsl #4
    10f4:	07040300 	streq	r0, [r4, -r0, lsl #6]
    10f8:	00000229 	andeq	r0, r0, r9, lsr #4
    10fc:	98080103 	stmdals	r8, {r0, r1, r8}
    1100:	04000002 	streq	r0, [r0], #-2
    1104:	00007f04 	andeq	r7, r0, r4, lsl #30
    1108:	00720500 	rsbseq	r0, r2, r0, lsl #10
    110c:	06060000 	streq	r0, [r6], -r0
    1110:	01000005 	tsteq	r0, r5
    1114:	00002504 	andeq	r2, r0, r4, lsl #10
    1118:	00879400 	addeq	r9, r7, r0, lsl #8
    111c:	00003400 	andeq	r3, r0, r0, lsl #8
    1120:	ab9c0100 	blge	fe701528 <__bss_end__+0xfe6f6bf0>
    1124:	07000000 	streq	r0, [r0, -r0]
    1128:	04010070 	streq	r0, [r1], #-112	; 0x70
    112c:	00000079 	andeq	r0, r0, r9, ror r0
    1130:	000006c6 	andeq	r0, r0, r6, asr #13
    1134:	00250800 	eoreq	r0, r5, r0, lsl #16
    1138:	00ba0000 	adcseq	r0, sl, r0
    113c:	25090000 	strcs	r0, [r9, #-0]
    1140:	00000000 	andeq	r0, r0, r0
    1144:	0004d20a 	andeq	sp, r4, sl, lsl #4
    1148:	c51d0200 	ldrgt	r0, [sp, #-512]	; 0x200
    114c:	04000000 	streq	r0, [r0], #-0
    1150:	0000ab04 	andeq	sl, r0, r4, lsl #22
    1154:	00250800 	eoreq	r0, r5, r0, lsl #16
    1158:	00da0000 	sbcseq	r0, sl, r0
    115c:	79090000 	stmdbvc	r9, {}	; <UNPREDICTABLE>
    1160:	00000000 	andeq	r0, r0, r0
    1164:	00050f0b 	andeq	r0, r5, fp, lsl #30
    1168:	eb0c0100 	bl	301570 <__bss_end__+0x2f6c38>
    116c:	05000000 	streq	r0, [r0, #-0]
    1170:	009fc003 	addseq	ip, pc, r3
    1174:	cb040400 	blgt	10217c <__bss_end__+0xf7844>
    1178:	00000000 	andeq	r0, r0, r0
    117c:	000006a1 	andeq	r0, r0, r1, lsr #13
    1180:	04d30004 	ldrbeq	r0, [r3], #4
    1184:	01040000 	mrseq	r0, (UNDEF: 4)
    1188:	000002ea 	andeq	r0, r0, sl, ror #5
    118c:	00054001 	andeq	r4, r5, r1
    1190:	00047300 	andeq	r7, r4, r0, lsl #6
    1194:	0087c800 	addeq	ip, r7, r0, lsl #16
    1198:	00052400 	andeq	r2, r5, r0, lsl #8
    119c:	00055a00 	andeq	r5, r5, r0, lsl #20
    11a0:	05040200 	streq	r0, [r4, #-512]	; 0x200
    11a4:	00746e69 	rsbseq	r6, r4, r9, ror #28
    11a8:	6c070403 	cfstrsvs	mvf0, [r7], {3}
    11ac:	03000000 	movweq	r0, #0
    11b0:	02910601 	addseq	r0, r1, #1048576	; 0x100000
    11b4:	02030000 	andeq	r0, r3, #0
    11b8:	0002aa05 	andeq	sl, r2, r5, lsl #20
    11bc:	05040300 	streq	r0, [r4, #-768]	; 0x300
    11c0:	0000008f 	andeq	r0, r0, pc, lsl #1
    11c4:	8a050803 	bhi	1431d8 <__bss_end__+0x1388a0>
    11c8:	03000000 	movweq	r0, #0
    11cc:	028f0801 	addeq	r0, pc, #65536	; 0x10000
    11d0:	02030000 	andeq	r0, r3, #0
    11d4:	00018807 	andeq	r8, r1, r7, lsl #16
    11d8:	07040300 	streq	r0, [r4, -r0, lsl #6]
    11dc:	00000067 	andeq	r0, r0, r7, rrx
    11e0:	62070803 	andvs	r0, r7, #196608	; 0x30000
    11e4:	03000000 	movweq	r0, #0
    11e8:	02290704 	eoreq	r0, r9, #4, 14	; 0x100000
    11ec:	04040000 	streq	r0, [r4], #-0
    11f0:	007a0405 	rsbseq	r0, sl, r5, lsl #8
    11f4:	01030000 	mrseq	r0, (UNDEF: 3)
    11f8:	00029808 	andeq	r9, r2, r8, lsl #16
    11fc:	87040500 	strhi	r0, [r4, -r0, lsl #10]
    1200:	06000000 	streq	r0, [r0], -r0
    1204:	0000007a 	andeq	r0, r0, sl, ror r0
    1208:	00044207 	andeq	r4, r4, r7, lsl #4
    120c:	97280200 	strls	r0, [r8, -r0, lsl #4]!
    1210:	08000000 	stmdaeq	r0, {}	; <UNPREDICTABLE>
    1214:	00000469 	andeq	r0, r0, r9, ror #8
    1218:	ae000404 	cdpge	4, 0, cr0, cr0, cr4, {0}
    121c:	09000000 	stmdbeq	r0, {}	; <UNPREDICTABLE>
    1220:	000004bc 			; <UNDEFINED> instruction: 0x000004bc
    1224:	00000072 	andeq	r0, r0, r2, ror r0
    1228:	6b070000 	blvs	1c1230 <__bss_end__+0x1b68f8>
    122c:	02000004 	andeq	r0, r0, #4
    1230:	00008c62 	andeq	r8, r0, r2, ror #24
    1234:	05220a00 	streq	r0, [r2, #-2560]!	; 0xa00
    1238:	27010000 	strcs	r0, [r1, -r0]
    123c:	00000025 	andeq	r0, r0, r5, lsr #32
    1240:	000087c8 	andeq	r8, r0, r8, asr #15
    1244:	00000014 	andeq	r0, r0, r4, lsl r0
    1248:	00e09c01 	rsceq	r9, r0, r1, lsl #24
    124c:	630b0000 	movwvs	r0, #45056	; 0xb000
    1250:	25270100 	strcs	r0, [r7, #-256]!	; 0x100
    1254:	e4000000 	str	r0, [r0], #-0
    1258:	00000006 	andeq	r0, r0, r6
    125c:	6461700c 	strbtvs	r7, [r1], #-12
    1260:	742e0100 	strtvc	r0, [lr], #-256	; 0x100
    1264:	dc000000 	stcle	0, cr0, [r0], {-0}
    1268:	2c000087 	stccs	0, cr0, [r0], {135}	; 0x87
    126c:	01000000 	mrseq	r0, (UNDEF: 0)
    1270:	0001309c 	muleq	r1, ip, r0
    1274:	00700b00 	rsbseq	r0, r0, r0, lsl #22
    1278:	00742e01 	rsbseq	r2, r4, r1, lsl #28
    127c:	07120000 	ldreq	r0, [r2, -r0]
    1280:	320d0000 	andcc	r0, sp, #0
    1284:	01000005 	tsteq	r0, r5
    1288:	0000742e 	andeq	r7, r0, lr, lsr #8
    128c:	00073d00 	andeq	r3, r7, r0, lsl #26
    1290:	05600e00 	strbeq	r0, [r0, #-3584]!	; 0xe00
    1294:	2e010000 	cdpcs	0, 0, cr0, cr1, cr0, {0}
    1298:	00000025 	andeq	r0, r0, r5, lsr #32
    129c:	6c0f5201 	sfmvs	f5, 4, [pc], {1}
    12a0:	01006e65 	tsteq	r0, r5, ror #28
    12a4:	0000252f 	andeq	r2, r0, pc, lsr #10
    12a8:	00510100 	subseq	r0, r1, r0, lsl #2
    12ac:	00051a0a 	andeq	r1, r5, sl, lsl #20
    12b0:	74370100 	ldrtvc	r0, [r7], #-256	; 0x100
    12b4:	08000000 	stmdaeq	r0, {}	; <UNPREDICTABLE>
    12b8:	40000088 	andmi	r0, r0, r8, lsl #1
    12bc:	01000000 	mrseq	r0, (UNDEF: 0)
    12c0:	00019c9c 	muleq	r1, ip, ip
    12c4:	73640b00 	cmnvc	r4, #0, 22
    12c8:	37010074 	smlsdxcc	r1, r4, r0, r0
    12cc:	00000074 	andeq	r0, r0, r4, ror r0
    12d0:	0000075e 	andeq	r0, r0, lr, asr r7
    12d4:	01006e0b 	tsteq	r0, fp, lsl #28
    12d8:	00002537 	andeq	r2, r0, r7, lsr r5
    12dc:	00079600 	andeq	r9, r7, r0, lsl #12
    12e0:	00700b00 	rsbseq	r0, r0, r0, lsl #22
    12e4:	00743701 	rsbseq	r3, r4, r1, lsl #14
    12e8:	07b70000 	ldreq	r0, [r7, r0]!
    12ec:	460d0000 	strmi	r0, [sp], -r0
    12f0:	01000006 	tsteq	r0, r6
    12f4:	00007437 	andeq	r7, r0, r7, lsr r4
    12f8:	0007ed00 	andeq	lr, r7, r0, lsl #26
    12fc:	656c1000 	strbvs	r1, [ip, #-0]!
    1300:	3901006e 	stmdbcc	r1, {r1, r2, r3, r5, r6}
    1304:	00000025 	andeq	r0, r0, r5, lsr #32
    1308:	0000080b 	andeq	r0, r0, fp, lsl #16
    130c:	0100730f 	tsteq	r0, pc, lsl #6
    1310:	0000743d 	andeq	r7, r0, sp, lsr r4
    1314:	00500100 	subseq	r0, r0, r0, lsl #2
    1318:	00056e0a 	andeq	r6, r5, sl, lsl #28
    131c:	74470100 	strbvc	r0, [r7], #-256	; 0x100
    1320:	48000000 	stmdami	r0, {}	; <UNPREDICTABLE>
    1324:	a8000088 	stmdage	r0, {r3, r7}
    1328:	01000001 	tsteq	r0, r1
    132c:	0002df9c 	muleq	r2, ip, pc	; <UNPREDICTABLE>
    1330:	05320d00 	ldreq	r0, [r2, #-3328]!	; 0xd00
    1334:	47010000 	strmi	r0, [r1, -r0]
    1338:	0000002c 	andeq	r0, r0, ip, lsr #32
    133c:	00000832 	andeq	r0, r0, r2, lsr r8
    1340:	7473640b 	ldrbtvc	r6, [r3], #-1035	; 0x40b
    1344:	74470100 	strbvc	r0, [r7], #-256	; 0x100
    1348:	60000000 	andvs	r0, r0, r0
    134c:	0b000008 	bleq	1374 <_start-0x6c8c>
    1350:	4701006e 	strmi	r0, [r1, -lr, rrx]
    1354:	00000025 	andeq	r0, r0, r5, lsr #32
    1358:	000008ce 	andeq	r0, r0, lr, asr #17
    135c:	6c61760b 	stclvs	6, cr7, [r1], #-44	; 0xffffffd4
    1360:	25470100 	strbcs	r0, [r7, #-256]	; 0x100
    1364:	fa000000 	blx	136c <_start-0x6c94>
    1368:	0d000008 	stceq	0, cr0, [r0, #-32]	; 0xffffffe0
    136c:	00000560 	andeq	r0, r0, r0, ror #10
    1370:	00254701 	eoreq	r4, r5, r1, lsl #14
    1374:	09790000 	ldmdbeq	r9!, {}^	; <UNPREDICTABLE>
    1378:	370e0000 	strcc	r0, [lr, -r0]
    137c:	01000005 	tsteq	r0, r5
    1380:	00002547 	andeq	r2, r0, r7, asr #10
    1384:	04910200 	ldreq	r0, [r1], #512	; 0x200
    1388:	6675620f 	ldrbtvs	r6, [r5], -pc, lsl #4
    138c:	df4c0100 	svcle	0x004c0100
    1390:	03000002 	movweq	r0, #2
    1394:	107fa891 			; <UNDEFINED> instruction: 0x107fa891
    1398:	4c010070 	stcmi	0, cr0, [r1], {112}	; 0x70
    139c:	00000074 	andeq	r0, r0, r4, ror r0
    13a0:	000009a3 	andeq	r0, r0, r3, lsr #19
    13a4:	01007510 	tsteq	r0, r0, lsl r5
    13a8:	00002c4d 	andeq	r2, r0, sp, asr #24
    13ac:	000a5f00 	andeq	r5, sl, r0, lsl #30
    13b0:	017b1100 	cmneq	fp, r0, lsl #2
    13b4:	02ff0000 	rscseq	r0, pc, #0
    13b8:	03050000 	movweq	r0, #20480	; 0x5000
    13bc:	0000a108 	andeq	sl, r0, r8, lsl #2
    13c0:	0088b412 	addeq	fp, r8, r2, lsl r4
    13c4:	00007400 	andeq	r7, r0, r0, lsl #8
    13c8:	00026100 	andeq	r6, r2, r0, lsl #2
    13cc:	05141300 	ldreq	r1, [r4, #-768]	; 0x300
    13d0:	52010000 	andpl	r0, r1, #0
    13d4:	0000002c 	andeq	r0, r0, ip, lsr #32
    13d8:	00000b64 	andeq	r0, r0, r4, ror #22
    13dc:	89881400 	stmibhi	r8, {sl, ip}
    13e0:	06800000 	streq	r0, [r0], r0
    13e4:	a4150000 	ldrge	r0, [r5], #-0
    13e8:	87000089 	strhi	r0, [r0, -r9, lsl #1]
    13ec:	a3000006 	movwge	r0, #6
    13f0:	16000002 	strne	r0, [r0], -r2
    13f4:	08025301 	stmdaeq	r2, {r0, r8, r9, ip, lr}
    13f8:	52011675 	andpl	r1, r1, #122683392	; 0x7500000
    13fc:	a1080305 	tstge	r8, r5, lsl #6
    1400:	01160000 	tsteq	r6, r0
    1404:	40030551 	andmi	r0, r3, r1, asr r5
    1408:	160000a1 	strne	r0, [r0], -r1, lsr #1
    140c:	03055001 	movweq	r5, #20481	; 0x5001
    1410:	0000a12c 	andeq	sl, r0, ip, lsr #2
    1414:	007d0216 	rsbseq	r0, sp, r6, lsl r2
    1418:	a1540305 	cmpge	r4, r5, lsl #6
    141c:	14000000 	strne	r0, [r0], #-0
    1420:	000089a8 	andeq	r8, r0, r8, lsr #19
    1424:	0000069d 	muleq	r0, sp, r6
    1428:	0089b415 	addeq	fp, r9, r5, lsl r4
    142c:	0000e000 	andeq	lr, r0, r0
    1430:	0002c100 	andeq	ip, r2, r0, lsl #2
    1434:	51011600 	tstpl	r1, r0, lsl #12
    1438:	7fa09103 	svcvc	0x00a09103
    143c:	89c81700 	stmibhi	r8, {r8, r9, sl, ip}^
    1440:	01300000 	teqeq	r0, r0
    1444:	01160000 	tsteq	r6, r0
    1448:	a0910353 	addsge	r0, r1, r3, asr r3
    144c:	5101167f 	tstpl	r1, pc, ror r6
    1450:	16007402 	strne	r7, [r0], -r2, lsl #8
    1454:	75025001 	strvc	r5, [r2, #-1]
    1458:	18000000 	stmdane	r0, {}	; <UNPREDICTABLE>
    145c:	0000007a 	andeq	r0, r0, sl, ror r0
    1460:	000002ef 	andeq	r0, r0, pc, ror #5
    1464:	00006b19 	andeq	r6, r0, r9, lsl fp
    1468:	18003f00 	stmdane	r0, {r8, r9, sl, fp, ip, sp}
    146c:	0000007a 	andeq	r0, r0, sl, ror r0
    1470:	000002ff 	strdeq	r0, [r0], -pc	; <UNPREDICTABLE>
    1474:	00006b19 	andeq	r6, r0, r9, lsl fp
    1478:	06000400 	streq	r0, [r0], -r0, lsl #8
    147c:	000002ef 	andeq	r0, r0, pc, ror #5
    1480:	0005511a 	andeq	r5, r5, sl, lsl r1
    1484:	f01f0100 			; <UNDEFINED> instruction: 0xf01f0100
    1488:	68000089 	stmdavs	r0, {r0, r3, r7}
    148c:	01000000 	mrseq	r0, (UNDEF: 0)
    1490:	0003929c 	muleq	r3, ip, r2
    1494:	05660d00 	strbeq	r0, [r6, #-3328]!	; 0xd00
    1498:	1f010000 	svcne	0x00010000
    149c:	000003a1 	andeq	r0, r0, r1, lsr #7
    14a0:	00000b90 	muleq	r0, r0, fp
    14a4:	00052a0d 	andeq	r2, r5, sp, lsl #20
    14a8:	b61f0100 	ldrlt	r0, [pc], -r0, lsl #2
    14ac:	bc000003 	stclt	0, cr0, [r0], {3}
    14b0:	1100000b 	tstne	r0, fp
    14b4:	0000017b 	andeq	r0, r0, fp, ror r1
    14b8:	000003cc 	andeq	r0, r0, ip, asr #7
    14bc:	a1100305 	tstge	r0, r5, lsl #6
    14c0:	04140000 	ldreq	r0, [r4], #-0
    14c4:	8000008a 	andhi	r0, r0, sl, lsl #1
    14c8:	15000006 	strne	r0, [r0, #-6]
    14cc:	00008a20 	andeq	r8, r0, r0, lsr #20
    14d0:	00000687 	andeq	r0, r0, r7, lsl #13
    14d4:	00000388 	andeq	r0, r0, r8, lsl #7
    14d8:	02530116 	subseq	r0, r3, #-2147483643	; 0x80000005
    14dc:	01162008 	tsteq	r6, r8
    14e0:	10030552 	andne	r0, r3, r2, asr r5
    14e4:	160000a1 	strne	r0, [r0], -r1, lsr #1
    14e8:	03055101 	movweq	r5, #20737	; 0x5101
    14ec:	0000a140 	andeq	sl, r0, r0, asr #2
    14f0:	05500116 	ldrbeq	r0, [r0, #-278]	; 0x116
    14f4:	00a12c03 	adceq	r2, r1, r3, lsl #24
    14f8:	7d021600 	stcvc	6, cr1, [r2, #-0]
    14fc:	7c030500 	cfstr32vc	mvfx0, [r3], {-0}
    1500:	000000a1 	andeq	r0, r0, r1, lsr #1
    1504:	008a2414 	addeq	r2, sl, r4, lsl r4
    1508:	00069d00 	andeq	r9, r6, r0, lsl #26
    150c:	251b0000 	ldrcs	r0, [fp, #-0]
    1510:	a1000000 	mrsge	r0, (UNDEF: 0)
    1514:	1c000003 	stcne	0, cr0, [r0], {3}
    1518:	00000025 	andeq	r0, r0, r5, lsr #32
    151c:	92040500 	andls	r0, r4, #0, 10
    1520:	1b000003 	blne	1534 <_start-0x6acc>
    1524:	00000025 	andeq	r0, r0, r5, lsr #32
    1528:	000003b6 			; <UNDEFINED> instruction: 0x000003b6
    152c:	0000811c 	andeq	r8, r0, ip, lsl r1
    1530:	04050000 	streq	r0, [r5], #-0
    1534:	000003a7 	andeq	r0, r0, r7, lsr #7
    1538:	00007a18 	andeq	r7, r0, r8, lsl sl
    153c:	0003cc00 	andeq	ip, r3, r0, lsl #24
    1540:	006b1900 	rsbeq	r1, fp, r0, lsl #18
    1544:	000e0000 	andeq	r0, lr, r0
    1548:	0003bc06 	andeq	fp, r3, r6, lsl #24
    154c:	045f1d00 	ldrbeq	r1, [pc], #-3328	; 1554 <_start-0x6aac>
    1550:	7d010000 	stcvc	0, cr0, [r1, #-0]
    1554:	00000025 	andeq	r0, r0, r5, lsr #32
    1558:	00008a58 	andeq	r8, r0, r8, asr sl
    155c:	00000294 	muleq	r0, r4, r2
    1560:	06459c01 	strbeq	r9, [r5], -r1, lsl #24
    1564:	620b0000 	andvs	r0, fp, #0
    1568:	01006675 	tsteq	r0, r5, ror r6
    156c:	0000747d 	andeq	r7, r0, sp, ror r4
    1570:	000be800 	andeq	lr, fp, r0, lsl #16
    1574:	006e0b00 	rsbeq	r0, lr, r0, lsl #22
    1578:	00257d01 	eoreq	r7, r5, r1, lsl #26
    157c:	0c140000 	ldceq	0, cr0, [r4], {-0}
    1580:	660b0000 	strvs	r0, [fp], -r0
    1584:	0100746d 	tsteq	r0, sp, ror #8
    1588:	0000817d 	andeq	r8, r0, sp, ror r1
    158c:	000c4200 	andeq	r4, ip, r0, lsl #4
    1590:	04b70d00 	ldrteq	r0, [r7], #3328	; 0xd00
    1594:	7d010000 	stcvc	0, cr0, [r1, #-0]
    1598:	000000ae 	andeq	r0, r0, lr, lsr #1
    159c:	00000c76 	andeq	r0, r0, r6, ror ip
    15a0:	01007010 	tsteq	r0, r0, lsl r0
    15a4:	0000747e 	andeq	r7, r0, lr, ror r4
    15a8:	000c8900 	andeq	r8, ip, r0, lsl #18
    15ac:	00651000 	rsbeq	r1, r5, r0
    15b0:	00747e01 	rsbseq	r7, r4, r1, lsl #28
    15b4:	0d070000 	stceq	0, cr0, [r7, #-0]
    15b8:	7b110000 	blvc	4415c0 <__bss_end__+0x436c88>
    15bc:	55000001 	strpl	r0, [r0, #-1]
    15c0:	05000006 	streq	r0, [r0, #-6]
    15c4:	00a12003 	adceq	r2, r1, r3
    15c8:	00001e00 	andeq	r1, r0, r0, lsl #28
    15cc:	73100000 	tstvc	r0, #0
    15d0:	748b0100 	strvc	r0, [fp], #256	; 0x100
    15d4:	2e000000 	cdpcs	0, 0, cr0, cr0, cr0, {0}
    15d8:	0f00000d 	svceq	0x0000000d
    15dc:	006d756e 	rsbeq	r7, sp, lr, ror #10
    15e0:	065a8b01 	ldrbeq	r8, [sl], -r1, lsl #22
    15e4:	91030000 	mrsls	r0, (UNDEF: 3)
    15e8:	60137ed8 			; <UNDEFINED> instruction: 0x60137ed8
    15ec:	01000005 	tsteq	r0, r5
    15f0:	00002c8c 	andeq	r2, r0, ip, lsl #25
    15f4:	000d8300 	andeq	r8, sp, r0, lsl #6
    15f8:	8adc1500 	bhi	ff706a00 <__bss_end__+0xff6fc0c8>
    15fc:	00b90000 	adcseq	r0, r9, r0
    1600:	04910000 	ldreq	r0, [r1], #0
    1604:	01160000 	tsteq	r6, r0
    1608:	00750250 	rsbseq	r0, r5, r0, asr r2
    160c:	8af01400 	bhi	ffc06614 <__bss_end__+0xffbfbcdc>
    1610:	06800000 	streq	r0, [r0], r0
    1614:	0c150000 	ldceq	0, cr0, [r5], {-0}
    1618:	8700008b 	strhi	r0, [r0, -fp, lsl #1]
    161c:	d3000006 	movwle	r0, #6
    1620:	16000004 	strne	r0, [r0], -r4
    1624:	08025301 	stmdaeq	r2, {r0, r8, r9, ip, lr}
    1628:	52011692 	andpl	r1, r1, #153092096	; 0x9200000
    162c:	a1200305 	teqge	r0, r5, lsl #6
    1630:	01160000 	tsteq	r6, r0
    1634:	40030551 	andmi	r0, r3, r1, asr r5
    1638:	160000a1 	strne	r0, [r0], -r1, lsr #1
    163c:	03055001 	movweq	r5, #20481	; 0x5001
    1640:	0000a12c 	andeq	sl, r0, ip, lsr #2
    1644:	007d0216 	rsbseq	r0, sp, r6, lsl r2
    1648:	a1840305 	orrge	r0, r4, r5, lsl #6
    164c:	14000000 	strne	r0, [r0], #-0
    1650:	00008b10 	andeq	r8, r0, r0, lsl fp
    1654:	0000069d 	muleq	r0, sp, r6
    1658:	008b8014 	addeq	r8, fp, r4, lsl r0
    165c:	00068000 	andeq	r8, r6, r0
    1660:	8b941500 	blhi	fe506a68 <__bss_end__+0xfe4fc130>
    1664:	06870000 	streq	r0, [r7], r0
    1668:	05140000 	ldreq	r0, [r4, #-0]
    166c:	01160000 	tsteq	r6, r0
    1670:	98080253 	stmdals	r8, {r0, r1, r4, r6, r9}
    1674:	05520116 	ldrbeq	r0, [r2, #-278]	; 0x116
    1678:	00a12003 	adceq	r2, r1, r3
    167c:	51011600 	tstpl	r1, r0, lsl #12
    1680:	a1400305 	cmpge	r0, r5, lsl #6
    1684:	01160000 	tsteq	r6, r0
    1688:	90030550 	andls	r0, r3, r0, asr r5
    168c:	000000a1 	andeq	r0, r0, r1, lsr #1
    1690:	008b9814 	addeq	r9, fp, r4, lsl r8
    1694:	00069d00 	andeq	r9, r6, r0, lsl #26
    1698:	8bbc1500 	blhi	fef06aa0 <__bss_end__+0xfeefc168>
    169c:	019c0000 	orrseq	r0, ip, r0
    16a0:	054a0000 	strbeq	r0, [sl, #-0]
    16a4:	01160000 	tsteq	r6, r0
    16a8:	80080252 	andhi	r0, r8, r2, asr r2
    16ac:	03510116 	cmpeq	r1, #-2147483643	; 0x80000005
    16b0:	167ed091 			; <UNDEFINED> instruction: 0x167ed091
    16b4:	3a015001 	bcc	556c0 <__bss_end__+0x4ad88>
    16b8:	047d0216 	ldrbteq	r0, [sp], #-534	; 0x216
    16bc:	02163101 	andseq	r3, r6, #1073741824	; 0x40000000
    16c0:	7702007d 	smlsdxvc	r2, sp, r0, r0
    16c4:	e0150000 	ands	r0, r5, r0
    16c8:	9c00008b 	stcls	0, cr0, [r0], {139}	; 0x8b
    16cc:	78000001 	stmdavc	r0, {r0}
    16d0:	16000005 	strne	r0, [r0], -r5
    16d4:	08025201 	stmdaeq	r2, {r0, r9, ip, lr}
    16d8:	51011680 	smlabbpl	r1, r0, r6, r1
    16dc:	7ed09103 	atnvcs	f1, f3
    16e0:	01500116 	cmpeq	r0, r6, lsl r1
    16e4:	7d02163a 	stcvc	6, cr1, [r2, #-232]	; 0xffffff18
    16e8:	007b0204 	rsbseq	r0, fp, r4, lsl #4
    16ec:	007d0216 	rsbseq	r0, sp, r6, lsl r2
    16f0:	00007702 	andeq	r7, r0, r2, lsl #14
    16f4:	008c0415 	addeq	r0, ip, r5, lsl r4
    16f8:	00019c00 	andeq	r9, r1, r0, lsl #24
    16fc:	0005a600 	andeq	sl, r5, r0, lsl #12
    1700:	52011600 	andpl	r1, r1, #0, 12
    1704:	16800802 	strne	r0, [r0], r2, lsl #16
    1708:	91035101 	tstls	r3, r1, lsl #2
    170c:	01167ed0 			; <UNDEFINED> instruction: 0x01167ed0
    1710:	16400150 			; <UNDEFINED> instruction: 0x16400150
    1714:	02047d02 	andeq	r7, r4, #2, 26	; 0x80
    1718:	0216007b 	andseq	r0, r6, #123	; 0x7b
    171c:	7702007d 	smlsdxvc	r2, sp, r0, r0
    1720:	28150000 	ldmdacs	r5, {}	; <UNPREDICTABLE>
    1724:	9c00008c 	stcls	0, cr0, [r0], {140}	; 0x8c
    1728:	d4000001 	strle	r0, [r0], #-1
    172c:	16000005 	strne	r0, [r0], -r5
    1730:	08025201 	stmdaeq	r2, {r0, r9, ip, lr}
    1734:	51011680 	smlabbpl	r1, r0, r6, r1
    1738:	7ed09103 	atnvcs	f1, f3
    173c:	01500116 	cmpeq	r0, r6, lsl r1
    1740:	7d021632 	stcvc	6, cr1, [r2, #-200]	; 0xffffff38
    1744:	007b0204 	rsbseq	r0, fp, r4, lsl #4
    1748:	007d0216 	rsbseq	r0, sp, r6, lsl r2
    174c:	00007702 	andeq	r7, r0, r2, lsl #14
    1750:	008c5815 	addeq	r5, ip, r5, lsl r8
    1754:	00019c00 	andeq	r9, r1, r0, lsl #24
    1758:	00060200 	andeq	r0, r6, r0, lsl #4
    175c:	52011600 	andpl	r1, r1, #0, 12
    1760:	16800802 	strne	r0, [r0], r2, lsl #16
    1764:	91035101 	tstls	r3, r1, lsl #2
    1768:	01167ed0 			; <UNDEFINED> instruction: 0x01167ed0
    176c:	16380150 			; <UNDEFINED> instruction: 0x16380150
    1770:	02047d02 	andeq	r7, r4, #2, 26	; 0x80
    1774:	0216007b 	andseq	r0, r6, #123	; 0x7b
    1778:	7702007d 	smlsdxvc	r2, sp, r0, r0
    177c:	60140000 	andsvs	r0, r4, r0
    1780:	8000008c 	andhi	r0, r0, ip, lsl #1
    1784:	15000006 	strne	r0, [r0, #-6]
    1788:	00008c7c 	andeq	r8, r0, ip, ror ip
    178c:	00000687 	andeq	r0, r0, r7, lsl #13
    1790:	0000063a 	andeq	r0, r0, sl, lsr r6
    1794:	02530116 	subseq	r0, r3, #-2147483643	; 0x80000005
    1798:	0116b908 	tsteq	r6, r8, lsl #18
    179c:	20030552 	andcs	r0, r3, r2, asr r5
    17a0:	160000a1 	strne	r0, [r0], -r1, lsr #1
    17a4:	03055101 	movweq	r5, #20737	; 0x5101
    17a8:	0000a140 	andeq	sl, r0, r0, asr #2
    17ac:	05500116 	ldrbeq	r0, [r0, #-278]	; 0x116
    17b0:	00a1b803 	adceq	fp, r1, r3, lsl #16
    17b4:	80140000 	andshi	r0, r4, r0
    17b8:	9d00008c 	stcls	0, cr0, [r0, #-560]	; 0xfffffdd0
    17bc:	00000006 	andeq	r0, r0, r6
    17c0:	007a1800 	rsbseq	r1, sl, r0, lsl #16
    17c4:	06550000 	ldrbeq	r0, [r5], -r0
    17c8:	6b190000 	blvs	6417d0 <__bss_end__+0x636e98>
    17cc:	09000000 	stmdbeq	r0, {}	; <UNPREDICTABLE>
    17d0:	06450600 	strbeq	r0, [r5], -r0, lsl #12
    17d4:	7a180000 	bvc	6017dc <__bss_end__+0x5f6ea4>
    17d8:	6a000000 	bvs	17e0 <_start-0x6820>
    17dc:	19000006 	stmdbne	r0, {r1, r2}
    17e0:	0000006b 	andeq	r0, r0, fp, rrx
    17e4:	d21f007f 	andsle	r0, pc, #127	; 0x7f
    17e8:	03000004 	movweq	r0, #4
    17ec:	0003a11d 	andeq	sl, r3, sp, lsl r1
    17f0:	050f1f00 	streq	r1, [pc, #-3840]	; 8f8 <_start-0x7708>
    17f4:	22030000 	andcs	r0, r3, #0
    17f8:	000003b6 			; <UNDEFINED> instruction: 0x000003b6
    17fc:	00012820 	andeq	r2, r1, r0, lsr #16
    1800:	211e0300 	tstcs	lr, r0, lsl #6
    1804:	00000462 	andeq	r0, r0, r2, ror #8
    1808:	00252903 	eoreq	r2, r5, r3, lsl #18
    180c:	069d0000 	ldreq	r0, [sp], r0
    1810:	811c0000 	tsthi	ip, r0
    1814:	22000000 	andcs	r0, r0, #0
    1818:	021c2000 	andseq	r2, ip, #0
    181c:	66030000 	strvs	r0, [r3], -r0
    1820:	0000b800 	andeq	fp, r0, r0, lsl #16
    1824:	af000400 	svcge	0x00000400
    1828:	04000006 	streq	r0, [r0], #-6
    182c:	0002ea01 	andeq	lr, r2, r1, lsl #20
    1830:	05810100 	streq	r0, [r1, #256]	; 0x100
    1834:	04730000 	ldrbteq	r0, [r3], #-0
    1838:	8cec0000 	stclhi	0, cr0, [ip]
    183c:	00200000 	eoreq	r0, r0, r0
    1840:	07400000 	strbeq	r0, [r0, -r0]
    1844:	04020000 	streq	r0, [r2], #-0
    1848:	746e6905 	strbtvc	r6, [lr], #-2309	; 0x905
    184c:	07040300 	streq	r0, [r4, -r0, lsl #6]
    1850:	0000006c 	andeq	r0, r0, ip, rrx
    1854:	91060103 	tstls	r6, r3, lsl #2
    1858:	03000002 	movweq	r0, #2
    185c:	02aa0502 	adceq	r0, sl, #8388608	; 0x800000
    1860:	04030000 	streq	r0, [r3], #-0
    1864:	00008f05 	andeq	r8, r0, r5, lsl #30
    1868:	05080300 	streq	r0, [r8, #-768]	; 0x300
    186c:	0000008a 	andeq	r0, r0, sl, lsl #1
    1870:	8f080103 	svchi	0x00080103
    1874:	03000002 	movweq	r0, #2
    1878:	01880702 	orreq	r0, r8, r2, lsl #14
    187c:	04030000 	streq	r0, [r3], #-0
    1880:	00006707 	andeq	r6, r0, r7, lsl #14
    1884:	07080300 	streq	r0, [r8, -r0, lsl #6]
    1888:	00000062 	andeq	r0, r0, r2, rrx
    188c:	29070403 	stmdbcs	r7, {r0, r1, sl}
    1890:	03000002 	movweq	r0, #2
    1894:	02980801 	addseq	r0, r8, #65536	; 0x10000
    1898:	ba040000 	blt	1018a0 <__bss_end__+0xf6f68>
    189c:	01000003 	tsteq	r0, r3
    18a0:	008cec03 	addeq	lr, ip, r3, lsl #24
    18a4:	00001000 	andeq	r1, r0, r0
    18a8:	9c9c0100 	ldflss	f0, [ip], {0}
    18ac:	05000000 	streq	r0, [r0, #-0]
    18b0:	04010072 	streq	r0, [r1], #-114	; 0x72
    18b4:	0000002c 	andeq	r0, r0, ip, lsr #32
    18b8:	00000dad 	andeq	r0, r0, sp, lsr #27
    18bc:	05730600 	ldrbeq	r0, [r3, #-1536]!	; 0x600
    18c0:	0c010000 	stceq	0, cr0, [r1], {-0}
    18c4:	00008cfc 	strdeq	r8, [r0], -ip
    18c8:	00000010 	andeq	r0, r0, r0, lsl r0
    18cc:	72059c01 	andvc	r9, r5, #256	; 0x100
    18d0:	2c0d0100 	stfcss	f0, [sp], {-0}
    18d4:	d1000000 	mrsle	r0, (UNDEF: 0)
    18d8:	0000000d 	andeq	r0, r0, sp
    18dc:	0000ff00 	andeq	pc, r0, r0, lsl #30
    18e0:	1a000400 	bne	28e8 <_start-0x5718>
    18e4:	04000007 	streq	r0, [r0], #-7
    18e8:	0002ea01 	andeq	lr, r2, r1, lsl #20
    18ec:	059f0100 	ldreq	r0, [pc, #256]	; 19f4 <_start-0x660c>
    18f0:	04730000 	ldrbteq	r0, [r3], #-0
    18f4:	8d0c0000 	stchi	0, cr0, [ip, #-0]
    18f8:	00280000 	eoreq	r0, r8, r0
    18fc:	07870000 	streq	r0, [r7, r0]
    1900:	04020000 	streq	r0, [r2], #-0
    1904:	746e6905 	strbtvc	r6, [lr], #-2309	; 0x905
    1908:	07040300 	streq	r0, [r4, -r0, lsl #6]
    190c:	0000006c 	andeq	r0, r0, ip, rrx
    1910:	91060103 	tstls	r6, r3, lsl #2
    1914:	03000002 	movweq	r0, #2
    1918:	02aa0502 	adceq	r0, sl, #8388608	; 0x800000
    191c:	04030000 	streq	r0, [r3], #-0
    1920:	00008f05 	andeq	r8, r0, r5, lsl #30
    1924:	05080300 	streq	r0, [r8, #-768]	; 0x300
    1928:	0000008a 	andeq	r0, r0, sl, lsl #1
    192c:	8f080103 	svchi	0x00080103
    1930:	03000002 	movweq	r0, #2
    1934:	01880702 	orreq	r0, r8, r2, lsl #14
    1938:	04030000 	streq	r0, [r3], #-0
    193c:	00006707 	andeq	r6, r0, r7, lsl #14
    1940:	07080300 	streq	r0, [r8, -r0, lsl #6]
    1944:	00000062 	andeq	r0, r0, r2, rrx
    1948:	29070403 	stmdbcs	r7, {r0, r1, sl}
    194c:	03000002 	movweq	r0, #2
    1950:	02980801 	addseq	r0, r8, #65536	; 0x10000
    1954:	04040000 	streq	r0, [r4], #-0
    1958:	0000007f 	andeq	r0, r0, pc, ror r0
    195c:	00007205 	andeq	r7, r0, r5, lsl #4
    1960:	021c0600 	andseq	r0, ip, #0, 12
    1964:	04010000 	streq	r0, [r1], #-0
    1968:	00008d0c 	andeq	r8, r0, ip, lsl #26
    196c:	00000028 	andeq	r0, r0, r8, lsr #32
    1970:	00ca9c01 	sbceq	r9, sl, r1, lsl #24
    1974:	20070000 	andcs	r0, r7, r0
    1978:	ac00008d 	stcge	0, cr0, [r0], {141}	; 0x8d
    197c:	08000000 	stmdaeq	r0, {}	; <UNPREDICTABLE>
    1980:	03055001 	movweq	r5, #20481	; 0x5001
    1984:	0000a1f0 	strdeq	sl, [r0], -r0
    1988:	8d280900 	stchi	9, cr0, [r8, #-0]
    198c:	00ea0000 	rsceq	r0, sl, r0
    1990:	00c00000 	sbceq	r0, r0, r0
    1994:	01080000 	mrseq	r0, (UNDEF: 8)
    1998:	64080250 	strvs	r0, [r8], #-592	; 0x250
    199c:	8d2c0a00 	vstmdbhi	ip!, {s0-s-1}
    19a0:	00fb0000 	rscseq	r0, fp, r0
    19a4:	0b000000 	bleq	19ac <_start-0x6654>
    19a8:	00000025 	andeq	r0, r0, r5, lsr #32
    19ac:	000000d9 	ldrdeq	r0, [r0], -r9
    19b0:	0000790c 	andeq	r7, r0, ip, lsl #18
    19b4:	0f0d0000 	svceq	0x000d0000
    19b8:	02000005 	andeq	r0, r0, #5
    19bc:	0000e422 	andeq	lr, r0, r2, lsr #8
    19c0:	ca040400 	bgt	1029c8 <__bss_end__+0xf8090>
    19c4:	0e000000 	cdpeq	0, 0, cr0, cr0, cr0, {0}
    19c8:	000002b4 			; <UNDEFINED> instruction: 0x000002b4
    19cc:	00fb5002 	rscseq	r5, fp, r2
    19d0:	2c0c0000 	stccs	0, cr0, [ip], {-0}
    19d4:	00000000 	andeq	r0, r0, r0
    19d8:	0005940f 	andeq	r9, r5, pc, lsl #8
    19dc:	00630200 	rsbeq	r0, r3, r0, lsl #4
    19e0:	000002dd 	ldrdeq	r0, [r0], -sp
    19e4:	07e40004 	strbeq	r0, [r4, r4]!
    19e8:	01040000 	mrseq	r0, (UNDEF: 4)
    19ec:	000002ea 	andeq	r0, r0, sl, ror #5
    19f0:	00069301 	andeq	r9, r6, r1, lsl #6
    19f4:	00047300 	andeq	r7, r4, r0, lsl #6
    19f8:	008d3400 	addeq	r3, sp, r0, lsl #8
    19fc:	0000b000 	andeq	fp, r0, r0
    1a00:	00081e00 	andeq	r1, r8, r0, lsl #28
    1a04:	05040200 	streq	r0, [r4, #-512]	; 0x200
    1a08:	00746e69 	rsbseq	r6, r4, r9, ror #28
    1a0c:	6c070403 	cfstrsvs	mvf0, [r7], {3}
    1a10:	03000000 	movweq	r0, #0
    1a14:	02910601 	addseq	r0, r1, #1048576	; 0x100000
    1a18:	02030000 	andeq	r0, r3, #0
    1a1c:	0002aa05 	andeq	sl, r2, r5, lsl #20
    1a20:	05040300 	streq	r0, [r4, #-768]	; 0x300
    1a24:	0000008f 	andeq	r0, r0, pc, lsl #1
    1a28:	8a050803 	bhi	143a3c <__bss_end__+0x139104>
    1a2c:	04000000 	streq	r0, [r0], #-0
    1a30:	000003d7 	ldrdeq	r0, [r0], -r7
    1a34:	005a2e02 	subseq	r2, sl, r2, lsl #28
    1a38:	01030000 	mrseq	r0, (UNDEF: 3)
    1a3c:	00028f08 	andeq	r8, r2, r8, lsl #30
    1a40:	07020300 	streq	r0, [r2, -r0, lsl #6]
    1a44:	00000188 	andeq	r0, r0, r8, lsl #3
    1a48:	0006b304 	andeq	fp, r6, r4, lsl #6
    1a4c:	73340200 	teqvc	r4, #0, 4
    1a50:	03000000 	movweq	r0, #0
    1a54:	00670704 	rsbeq	r0, r7, r4, lsl #14
    1a58:	08030000 	stmdaeq	r3, {}	; <UNPREDICTABLE>
    1a5c:	00006207 	andeq	r6, r0, r7, lsl #4
    1a60:	07040300 	streq	r0, [r4, -r0, lsl #6]
    1a64:	00000229 	andeq	r0, r0, r9, lsr #4
    1a68:	98080103 	stmdals	r8, {r0, r1, r8}
    1a6c:	05000002 	streq	r0, [r0, #-2]
    1a70:	00009504 	andeq	r9, r0, r4, lsl #10
    1a74:	00880600 	addeq	r0, r8, r0, lsl #12
    1a78:	0c070000 	stceq	0, cr0, [r7], {-0}
    1a7c:	00d10e03 	sbcseq	r0, r1, r3, lsl #28
    1a80:	74080000 	strvc	r0, [r8], #-0
    1a84:	0f030078 	svceq	0x00030078
    1a88:	0000004f 	andeq	r0, r0, pc, asr #32
    1a8c:	78720800 	ldmdavc	r2!, {fp}^
    1a90:	4f0f0300 	svcmi	0x000f0300
    1a94:	01000000 	mrseq	r0, (UNDEF: 0)
    1a98:	00063209 	andeq	r3, r6, r9, lsl #4
    1a9c:	68100300 	ldmdavs	r0, {r8, r9}
    1aa0:	04000000 	streq	r0, [r0], #-0
    1aa4:	0005e309 	andeq	lr, r5, r9, lsl #6
    1aa8:	68110300 	ldmdavs	r1, {r8, r9}
    1aac:	08000000 	stmdaeq	r0, {}	; <UNPREDICTABLE>
    1ab0:	061b0400 	ldreq	r0, [fp], -r0, lsl #8
    1ab4:	12030000 	andne	r0, r3, #0
    1ab8:	0000009a 	muleq	r0, sl, r0
    1abc:	1004010a 	andne	r0, r4, sl, lsl #2
    1ac0:	000000f7 	strdeq	r0, [r0], -r7
    1ac4:	0006370b 	andeq	r3, r6, fp, lsl #14
    1ac8:	250b0100 	strcs	r0, [fp, #-256]	; 0x100
    1acc:	02000006 	andeq	r0, r0, #6
    1ad0:	00060d0b 	andeq	r0, r6, fp, lsl #26
    1ad4:	04000300 	streq	r0, [r0], #-768	; 0x300
    1ad8:	0000064c 	andeq	r0, r0, ip, asr #12
    1adc:	00dc1004 	sbcseq	r1, ip, r4
    1ae0:	14070000 	strne	r0, [r7], #-0
    1ae4:	012f1404 	teqeq	pc, r4, lsl #8
    1ae8:	bc090000 	stclt	0, cr0, [r9], {-0}
    1aec:	04000006 	streq	r0, [r0], #-6
    1af0:	00002c15 	andeq	r2, r0, r5, lsl ip
    1af4:	a7090000 	strge	r0, [r9, -r0]
    1af8:	04000006 	streq	r0, [r0], #-6
    1afc:	0000f718 	andeq	pc, r0, r8, lsl r7	; <UNPREDICTABLE>
    1b00:	72090400 	andvc	r0, r9, #0, 8
    1b04:	04000006 	streq	r0, [r0], #-6
    1b08:	0000d11b 	andeq	sp, r0, fp, lsl r1
    1b0c:	04000800 	streq	r0, [r0], #-2048	; 0x800
    1b10:	00000664 	andeq	r0, r0, r4, ror #12
    1b14:	01022004 	tsteq	r2, r4
    1b18:	b90c0000 	stmdblt	ip, {}	; <UNPREDICTABLE>
    1b1c:	01000005 	tsteq	r0, r5
    1b20:	00002506 	andeq	r2, r0, r6, lsl #10
    1b24:	008d3400 	addeq	r3, sp, r0, lsl #8
    1b28:	00002000 	andeq	r2, r0, r0
    1b2c:	7a9c0100 	bvc	fe701f34 <__bss_end__+0xfe6f75fc>
    1b30:	0d000001 	stceq	0, cr0, [r0, #-4]
    1b34:	06010063 	streq	r0, [r1], -r3, rrx
    1b38:	00000025 	andeq	r0, r0, r5, lsr #32
    1b3c:	00000df5 	strdeq	r0, [r0], -r5
    1b40:	008d480e 	addeq	r4, sp, lr, lsl #16
    1b44:	00027a00 	andeq	r7, r2, r0, lsl #20
    1b48:	51010f00 	tstpl	r1, r0, lsl #30
    1b4c:	0f007402 	svceq	0x00007402
    1b50:	03055001 	movweq	r5, #20481	; 0x5001
    1b54:	0000a924 	andeq	sl, r0, r4, lsr #18
    1b58:	44100000 	ldrmi	r0, [r0], #-0
    1b5c:	01000006 	tsteq	r0, r6
    1b60:	008d540b 	addeq	r5, sp, fp, lsl #8
    1b64:	00009000 	andeq	r9, r0, r0
    1b68:	279c0100 	ldrcs	r0, [ip, r0, lsl #2]
    1b6c:	11000002 	tstne	r0, r2
    1b70:	000005cd 	andeq	r0, r0, sp, asr #11
    1b74:	00250c01 	eoreq	r0, r5, r1, lsl #24
    1b78:	87110000 	ldrhi	r0, [r1, -r0]
    1b7c:	01000006 	tsteq	r0, r6
    1b80:	0000250c 	andeq	r2, r0, ip, lsl #10
    1b84:	00f51200 	rscseq	r1, r5, r0, lsl #4
    1b88:	0d010000 	stceq	0, cr0, [r1, #-0]
    1b8c:	73736213 	cmnvc	r3, #805306369	; 0x30000001
    1b90:	270f0100 	strcs	r0, [pc, -r0, lsl #2]
    1b94:	13000002 	movwne	r0, #2
    1b98:	1400000e 	strne	r0, [r0], #-14
    1b9c:	000005db 	ldrdeq	r0, [r0], -fp
    1ba0:	02271001 	eoreq	r1, r7, #1
    1ba4:	63130000 	tstvs	r3, #0
    1ba8:	17010062 	strne	r0, [r1, -r2, rrx]
    1bac:	0000022d 	andeq	r0, r0, sp, lsr #4
    1bb0:	00000e33 	andeq	r0, r0, r3, lsr lr
    1bb4:	008d7c15 	addeq	r7, sp, r5, lsl ip
    1bb8:	00029600 	andeq	r9, r2, r0, lsl #12
    1bbc:	8db81600 	ldchi	6, cr1, [r8]
    1bc0:	02a10000 	adceq	r0, r1, #0
    1bc4:	01fd0000 	mvnseq	r0, r0
    1bc8:	010f0000 	mrseq	r0, CPSR
    1bcc:	fc030551 	stc2	5, cr0, [r3], {81}	; 0x51
    1bd0:	0f0000a1 	svceq	0x000000a1
    1bd4:	03055001 	movweq	r5, #20481	; 0x5001
    1bd8:	0000a924 	andeq	sl, r0, r4, lsr #18
    1bdc:	8dc01600 	stclhi	6, cr1, [r0]
    1be0:	02bc0000 	adcseq	r0, ip, #0
    1be4:	02140000 	andseq	r0, r4, #0
    1be8:	010f0000 	mrseq	r0, CPSR
    1bec:	20030550 	andcs	r0, r3, r0, asr r5
    1bf0:	000000a2 	andeq	r0, r0, r2, lsr #1
    1bf4:	008dc415 	addeq	ip, sp, r5, lsl r4
    1bf8:	0002d200 	andeq	sp, r2, r0, lsl #4
    1bfc:	8dc81500 	cfstr64hi	mvdx1, [r8]
    1c00:	02d90000 	sbcseq	r0, r9, #0
    1c04:	05000000 	streq	r0, [r0, #-0]
    1c08:	00002504 	andeq	r2, r0, r4, lsl #10
    1c0c:	2f040500 	svccs	0x00040500
    1c10:	17000001 	strne	r0, [r0, -r1]
    1c14:	000005f1 	strdeq	r0, [r0], -r1
    1c18:	00d10501 	sbcseq	r0, r1, r1, lsl #10
    1c1c:	03050000 	movweq	r0, #20480	; 0x5000
    1c20:	0000a924 	andeq	sl, r0, r4, lsr #18
    1c24:	00002518 	andeq	r2, r0, r8, lsl r5
    1c28:	00025300 	andeq	r5, r2, r0, lsl #6
    1c2c:	00251900 	eoreq	r1, r5, r0, lsl #18
    1c30:	11000000 	mrsne	r0, (UNDEF: 0)
    1c34:	000004d2 	ldrdeq	r0, [r0], -r2
    1c38:	025e1d05 	subseq	r1, lr, #320	; 0x140
    1c3c:	04050000 	streq	r0, [r5], #-0
    1c40:	00000244 	andeq	r0, r0, r4, asr #4
    1c44:	0005cd11 	andeq	ip, r5, r1, lsl sp
    1c48:	250c0100 	strcs	r0, [ip, #-256]	; 0x100
    1c4c:	11000000 	mrsne	r0, (UNDEF: 0)
    1c50:	00000687 	andeq	r0, r0, r7, lsl #13
    1c54:	00250c01 	eoreq	r0, r5, r1, lsl #24
    1c58:	571a0000 	ldrpl	r0, [sl, -r0]
    1c5c:	03000006 	movweq	r0, #6
    1c60:	00029044 	andeq	r9, r2, r4, asr #32
    1c64:	02901900 	addseq	r1, r0, #0, 18
    1c68:	5a190000 	bpl	641c70 <__bss_end__+0x637338>
    1c6c:	00000000 	andeq	r0, r0, r0
    1c70:	00d10405 	sbcseq	r0, r1, r5, lsl #8
    1c74:	7a1b0000 	bvc	6c1c7c <__bss_end__+0x6b7344>
    1c78:	04000006 	streq	r0, [r0], #-6
    1c7c:	00022d2a 	andeq	r2, r2, sl, lsr #26
    1c80:	05fe1c00 	ldrbeq	r1, [lr, #3072]!	; 0xc00
    1c84:	15030000 	strne	r0, [r3, #-0]
    1c88:	00000025 	andeq	r0, r0, r5, lsr #32
    1c8c:	000002bc 			; <UNDEFINED> instruction: 0x000002bc
    1c90:	00029019 	andeq	r9, r2, r9, lsl r0
    1c94:	008f1900 	addeq	r1, pc, r0, lsl #18
    1c98:	001d0000 	andseq	r0, sp, r0
    1c9c:	0004621c 	andeq	r6, r4, ip, lsl r2
    1ca0:	25290500 	strcs	r0, [r9, #-1280]!	; 0x500
    1ca4:	d2000000 	andle	r0, r0, #0
    1ca8:	19000002 	stmdbne	r0, {r1}
    1cac:	0000008f 	andeq	r0, r0, pc, lsl #1
    1cb0:	f512001d 			; <UNDEFINED> instruction: 0xf512001d
    1cb4:	05000000 	streq	r0, [r0, #-0]
    1cb8:	059412d1 	ldreq	r1, [r4, #721]	; 0x2d1
    1cbc:	63050000 	movwvs	r0, #20480	; 0x5000
    1cc0:	0001ad00 	andeq	sl, r1, r0, lsl #26
    1cc4:	7b000400 	blvc	2ccc <_start-0x5334>
    1cc8:	04000009 	streq	r0, [r0], #-9
    1ccc:	0002ea01 	andeq	lr, r2, r1, lsl #20
    1cd0:	06dc0100 	ldrbeq	r0, [ip], r0, lsl #2
    1cd4:	04730000 	ldrbteq	r0, [r3], #-0
    1cd8:	00180000 	andseq	r0, r8, r0
    1cdc:	00000000 	andeq	r0, r0, r0
    1ce0:	09430000 	stmdbeq	r3, {}^	; <UNPREDICTABLE>
    1ce4:	04020000 	streq	r0, [r2], #-0
    1ce8:	746e6905 	strbtvc	r6, [lr], #-2309	; 0x905
    1cec:	07040300 	streq	r0, [r4, -r0, lsl #6]
    1cf0:	0000006c 	andeq	r0, r0, ip, rrx
    1cf4:	91060103 	tstls	r6, r3, lsl #2
    1cf8:	03000002 	movweq	r0, #2
    1cfc:	02aa0502 	adceq	r0, sl, #8388608	; 0x800000
    1d00:	04030000 	streq	r0, [r3], #-0
    1d04:	00008f05 	andeq	r8, r0, r5, lsl #30
    1d08:	05080300 	streq	r0, [r8, #-768]	; 0x300
    1d0c:	0000008a 	andeq	r0, r0, sl, lsl #1
    1d10:	8f080103 	svchi	0x00080103
    1d14:	03000002 	movweq	r0, #2
    1d18:	01880702 	orreq	r0, r8, r2, lsl #14
    1d1c:	04030000 	streq	r0, [r3], #-0
    1d20:	00006707 	andeq	r6, r0, r7, lsl #14
    1d24:	07080300 	streq	r0, [r8, -r0, lsl #6]
    1d28:	00000062 	andeq	r0, r0, r2, rrx
    1d2c:	29070403 	stmdbcs	r7, {r0, r1, sl}
    1d30:	03000002 	movweq	r0, #2
    1d34:	02980801 	addseq	r0, r8, #65536	; 0x10000
    1d38:	c2040000 	andgt	r0, r4, #0
    1d3c:	01000006 	tsteq	r0, r6
    1d40:	0000250e 	andeq	r2, r0, lr, lsl #10
    1d44:	008de400 	addeq	lr, sp, r0, lsl #8
    1d48:	00001800 	andeq	r1, r0, r0, lsl #16
    1d4c:	a29c0100 	addsge	r0, ip, #0, 2
    1d50:	05000000 	streq	r0, [r0, #-0]
    1d54:	0000072e 	andeq	r0, r0, lr, lsr #14
    1d58:	002c0f01 	eoreq	r0, ip, r1, lsl #30
    1d5c:	0e530000 	cdpeq	0, 5, cr0, cr3, cr0, {0}
    1d60:	06000000 	streq	r0, [r0], -r0
    1d64:	00000711 	andeq	r0, r0, r1, lsl r7
    1d68:	8dfc1701 	ldclhi	7, cr1, [ip, #4]!
    1d6c:	00140000 	andseq	r0, r4, r0
    1d70:	9c010000 	stcls	0, cr0, [r1], {-0}
    1d74:	000000c7 	andeq	r0, r0, r7, asr #1
    1d78:	00072e05 	andeq	r2, r7, r5, lsl #28
    1d7c:	2c180100 	ldfcss	f0, [r8], {-0}
    1d80:	72000000 	andvc	r0, r0, #0
    1d84:	0000000e 	andeq	r0, r0, lr
    1d88:	00059406 	andeq	r9, r5, r6, lsl #8
    1d8c:	101f0100 	andsne	r0, pc, r0, lsl #2
    1d90:	4800008e 	stmdami	r0, {r1, r2, r3, r7}
    1d94:	01000000 	mrseq	r0, (UNDEF: 0)
    1d98:	0001779c 	muleq	r1, ip, r7
    1d9c:	07260700 	streq	r0, [r6, -r0, lsl #14]!
    1da0:	2a010000 	bcs	41da8 <__bss_end__+0x37470>
    1da4:	00000177 	andeq	r0, r0, r7, ror r1
    1da8:	2010001c 	andscs	r0, r0, ip, lsl r0
    1dac:	00070907 	andeq	r0, r7, r7, lsl #18
    1db0:	772b0100 	strvc	r0, [fp, -r0, lsl #2]!
    1db4:	24000001 	strcs	r0, [r0], #-1
    1db8:	07201000 	streq	r1, [r0, -r0]!
    1dbc:	000006d0 	ldrdeq	r0, [r0], -r0	; <UNPREDICTABLE>
    1dc0:	01772c01 	cmneq	r7, r1, lsl #24
    1dc4:	00000000 	andeq	r0, r0, r0
    1dc8:	f0085a00 			; <UNDEFINED> instruction: 0xf0085a00
    1dcc:	01000006 	tsteq	r0, r6
    1dd0:	0001772d 	andeq	r7, r1, sp, lsr #14
    1dd4:	18092000 	stmdane	r9, {sp}
    1dd8:	7900008e 	stmdbvc	r0, {r1, r2, r3, r7}
    1ddc:	09000000 	stmdbeq	r0, {}	; <UNPREDICTABLE>
    1de0:	00008e24 	andeq	r8, r0, r4, lsr #28
    1de4:	000000a2 	andeq	r0, r0, r2, lsr #1
    1de8:	008e2c0a 	addeq	r2, lr, sl, lsl #24
    1dec:	00018d00 	andeq	r8, r1, r0, lsl #26
    1df0:	00013a00 	andeq	r3, r1, r0, lsl #20
    1df4:	50010b00 	andpl	r0, r1, r0, lsl #22
    1df8:	0a004e01 	beq	15604 <__bss_end__+0xaccc>
    1dfc:	00008e38 	andeq	r8, r0, r8, lsr lr
    1e00:	0000019e 	muleq	r0, lr, r1
    1e04:	0000015a 	andeq	r0, r0, sl, asr r1
    1e08:	0551010b 	ldrbeq	r0, [r1, #-267]	; 0x10b
    1e0c:	0000010c 	andeq	r0, r0, ip, lsl #2
    1e10:	50010b5a 	andpl	r0, r1, sl, asr fp
    1e14:	00240c05 	eoreq	r0, r4, r5, lsl #24
    1e18:	0c002010 	stceq	0, cr2, [r0], {16}
    1e1c:	00008e44 	andeq	r8, r0, r4, asr #28
    1e20:	0000019e 	muleq	r0, lr, r1
    1e24:	0551010b 	ldrbeq	r0, [r1, #-267]	; 0x10b
    1e28:	0000200c 	andeq	r2, r0, ip
    1e2c:	50010b5a 	andpl	r0, r1, sl, asr fp
    1e30:	001c0c05 	andseq	r0, ip, r5, lsl #24
    1e34:	00002010 	andeq	r2, r0, r0, lsl r0
    1e38:	0000250d 	andeq	r2, r0, sp, lsl #10
    1e3c:	06c50800 	strbeq	r0, [r5], r0, lsl #16
    1e40:	0d010000 	stceq	0, cr0, [r1, #-0]
    1e44:	00000188 	andeq	r0, r0, r8, lsl #3
    1e48:	002c0d10 	eoreq	r0, ip, r0, lsl sp
    1e4c:	b40e0000 	strlt	r0, [lr], #-0
    1e50:	02000002 	andeq	r0, r0, #2
    1e54:	00019e50 	andeq	r9, r1, r0, asr lr
    1e58:	002c0f00 	eoreq	r0, ip, r0, lsl #30
    1e5c:	10000000 	andne	r0, r0, r0
    1e60:	00000720 	andeq	r0, r0, r0, lsr #14
    1e64:	2c0f9c02 	stccs	12, cr9, [pc], {2}
    1e68:	0f000000 	svceq	0x00000000
    1e6c:	0000002c 	andeq	r0, r0, ip, lsr #32
    1e70:	01d80000 	bicseq	r0, r8, r0
    1e74:	00040000 	andeq	r0, r4, r0
    1e78:	00000a69 	andeq	r0, r0, r9, ror #20
    1e7c:	02ea0104 	rsceq	r0, sl, #4, 2
    1e80:	50010000 	andpl	r0, r1, r0
    1e84:	73000007 	movwvc	r0, #7
    1e88:	58000004 	stmdapl	r0, {r2}
    1e8c:	8800008e 	stmdahi	r0, {r1, r2, r3, r7}
    1e90:	e0000000 	and	r0, r0, r0
    1e94:	02000009 	andeq	r0, r0, #9
    1e98:	6e690504 	cdpvs	5, 6, cr0, cr9, cr4, {0}
    1e9c:	04030074 	streq	r0, [r3], #-116	; 0x74
    1ea0:	00006c07 	andeq	r6, r0, r7, lsl #24
    1ea4:	06010300 	streq	r0, [r1], -r0, lsl #6
    1ea8:	00000291 	muleq	r0, r1, r2
    1eac:	aa050203 	bge	1426c0 <__bss_end__+0x137d88>
    1eb0:	03000002 	movweq	r0, #2
    1eb4:	008f0504 	addeq	r0, pc, r4, lsl #10
    1eb8:	08030000 	stmdaeq	r3, {}	; <UNPREDICTABLE>
    1ebc:	00008a05 	andeq	r8, r0, r5, lsl #20
    1ec0:	08010300 	stmdaeq	r1, {r8, r9}
    1ec4:	0000028f 	andeq	r0, r0, pc, lsl #5
    1ec8:	88070203 	stmdahi	r7, {r0, r1, r9}
    1ecc:	03000001 	movweq	r0, #1
    1ed0:	00670704 	rsbeq	r0, r7, r4, lsl #14
    1ed4:	08030000 	stmdaeq	r3, {}	; <UNPREDICTABLE>
    1ed8:	00006207 	andeq	r6, r0, r7, lsl #4
    1edc:	07040300 	streq	r0, [r4, -r0, lsl #6]
    1ee0:	00000229 	andeq	r0, r0, r9, lsr #4
    1ee4:	98080103 	stmdals	r8, {r0, r1, r8}
    1ee8:	04000002 	streq	r0, [r0], #-2
    1eec:	0000076f 	andeq	r0, r0, pc, ror #14
    1ef0:	8e580501 	cdphi	5, 5, cr0, cr8, cr1, {0}
    1ef4:	001c0000 	andseq	r0, ip, r0
    1ef8:	9c010000 	stcls	0, cr0, [r1], {-0}
    1efc:	0000009e 	muleq	r0, lr, r0
    1f00:	00076905 	andeq	r6, r7, r5, lsl #18
    1f04:	2c050100 	stfcss	f0, [r5], {-0}
    1f08:	9c000000 	stcls	0, cr0, [r0], {-0}
    1f0c:	0000000e 	andeq	r0, r0, lr
    1f10:	00073306 	andeq	r3, r7, r6, lsl #6
    1f14:	2c0b0100 	stfcss	f0, [fp], {-0}
    1f18:	74000000 	strvc	r0, [r0], #-0
    1f1c:	1400008e 	strne	r0, [r0], #-142	; 0x8e
    1f20:	01000000 	mrseq	r0, (UNDEF: 0)
    1f24:	0000cb9c 	muleq	r0, ip, fp
    1f28:	8e800700 	cdphi	7, 8, cr0, cr0, cr0, {0}
    1f2c:	01ca0000 	biceq	r0, sl, r0
    1f30:	01080000 	mrseq	r0, (UNDEF: 8)
    1f34:	040c0550 	streq	r0, [ip], #-1360	; 0x550
    1f38:	00200030 	eoreq	r0, r0, r0, lsr r0
    1f3c:	07850600 	streq	r0, [r5, r0, lsl #12]
    1f40:	10010000 	andne	r0, r1, r0
    1f44:	0000002c 	andeq	r0, r0, ip, lsr #32
    1f48:	00008e88 	andeq	r8, r0, r8, lsl #29
    1f4c:	0000000c 	andeq	r0, r0, ip
    1f50:	00f99c01 	rscseq	r9, r9, r1, lsl #24
    1f54:	75090000 	strvc	r0, [r9, #-0]
    1f58:	2c140100 	ldfcss	f0, [r4], {-0}
    1f5c:	01000000 	mrseq	r0, (UNDEF: 0)
    1f60:	8e900a50 	mrchi	10, 4, r0, cr0, cr0, {2}
    1f64:	009e0000 	addseq	r0, lr, r0
    1f68:	04000000 	streq	r0, [r0], #-0
    1f6c:	0000077c 	andeq	r0, r0, ip, ror r7
    1f70:	8e941901 	cdphi	9, 9, cr1, cr4, cr1, {0}
    1f74:	00240000 	eoreq	r0, r4, r0
    1f78:	9c010000 	stcls	0, cr0, [r1], {-0}
    1f7c:	00000157 	andeq	r0, r0, r7, asr r1
    1f80:	0073750b 	rsbseq	r7, r3, fp, lsl #10
    1f84:	002c1901 	eoreq	r1, ip, r1, lsl #18
    1f88:	0ed00000 	cdpeq	0, 13, cr0, cr0, cr0, {0}
    1f8c:	72090000 	andvc	r0, r9, #0
    1f90:	1a010062 	bne	42120 <__bss_end__+0x377e8>
    1f94:	0000002c 	andeq	r0, r0, ip, lsr #32
    1f98:	a40c5401 	strge	r5, [ip], #-1025	; 0x401
    1f9c:	1000008e 	andne	r0, r0, lr, lsl #1
    1fa0:	4d000000 	stcmi	0, cr0, [r0, #-0]
    1fa4:	0d000001 	stceq	0, cr0, [r0, #-4]
    1fa8:	01006172 	tsteq	r0, r2, ror r1
    1fac:	00002c1c 	andeq	r2, r0, ip, lsl ip
    1fb0:	000eee00 	andeq	lr, lr, r0, lsl #28
    1fb4:	8ea80a00 	vfmahi.f32	s0, s16, s0
    1fb8:	00cb0000 	sbceq	r0, fp, r0
    1fbc:	0a000000 	beq	1fc4 <_start-0x603c>
    1fc0:	00008ea0 	andeq	r8, r0, r0, lsr #29
    1fc4:	000000cb 	andeq	r0, r0, fp, asr #1
    1fc8:	02b40400 	adcseq	r0, r4, #0, 8
    1fcc:	22010000 	andcs	r0, r1, #0
    1fd0:	00008eb8 			; <UNDEFINED> instruction: 0x00008eb8
    1fd4:	00000014 	andeq	r0, r0, r4, lsl r0
    1fd8:	01909c01 	orrseq	r9, r0, r1, lsl #24
    1fdc:	6d0b0000 	stcvs	0, cr0, [fp, #-0]
    1fe0:	22010073 	andcs	r0, r1, #115	; 0x73
    1fe4:	0000002c 	andeq	r0, r0, ip, lsr #32
    1fe8:	00000f01 	andeq	r0, r0, r1, lsl #30
    1fec:	008ec807 	addeq	ip, lr, r7, lsl #16
    1ff0:	0000f900 	andeq	pc, r0, r0, lsl #18
    1ff4:	50010800 	andpl	r0, r1, r0, lsl #16
    1ff8:	5001f307 	andpl	pc, r1, r7, lsl #6
    1ffc:	1e03e80a 	cdpne	8, 0, cr14, cr3, cr10, {0}
    2000:	46040000 	strmi	r0, [r4], -r0
    2004:	01000007 	tsteq	r0, r7
    2008:	008ecc25 	addeq	ip, lr, r5, lsr #24
    200c:	00001400 	andeq	r1, r0, r0, lsl #8
    2010:	ca9c0100 	bgt	fe702418 <__bss_end__+0xfe6f7ae0>
    2014:	0b000001 	bleq	2020 <_start-0x5fe0>
    2018:	00636573 	rsbeq	r6, r3, r3, ror r5
    201c:	002c2501 	eoreq	r2, ip, r1, lsl #10
    2020:	0f220000 	svceq	0x00220000
    2024:	dc070000 	stcle	0, cr0, [r7], {-0}
    2028:	5700008e 	strpl	r0, [r0, -lr, lsl #1]
    202c:	08000001 	stmdaeq	r0, {r0}
    2030:	f3075001 	vhadd.u8	d5, d7, d1
    2034:	e80a5001 	stmda	sl, {r0, ip, lr}
    2038:	00001e03 	andeq	r1, r0, r3, lsl #28
    203c:	0007630e 	andeq	r6, r7, lr, lsl #6
    2040:	2ca80200 	sfmcs	f0, 4, [r8]
    2044:	0f000000 	svceq	0x00000000
    2048:	0000002c 	andeq	r0, r0, ip, lsr #32
    204c:	08820000 	stmeq	r2, {}	; <UNPREDICTABLE>
    2050:	00040000 	andeq	r0, r4, r0
    2054:	00000b4c 	andeq	r0, r0, ip, asr #22
    2058:	02ea0104 	rsceq	r0, sl, #4, 2
    205c:	cc010000 	stcgt	0, cr0, [r1], {-0}
    2060:	73000007 	movwvc	r0, #7
    2064:	e0000004 	and	r0, r0, r4
    2068:	a000008e 	andge	r0, r0, lr, lsl #1
    206c:	87000005 	strhi	r0, [r0, -r5]
    2070:	0200000a 	andeq	r0, r0, #10
    2074:	00620708 	rsbeq	r0, r2, r8, lsl #14
    2078:	04020000 	streq	r0, [r2], #-0
    207c:	00006c07 	andeq	r6, r0, r7, lsl #24
    2080:	06010200 	streq	r0, [r1], -r0, lsl #4
    2084:	00000291 	muleq	r0, r1, r2
    2088:	aa050202 	bge	142898 <__bss_end__+0x137f60>
    208c:	02000002 	andeq	r0, r0, #2
    2090:	008f0504 	addeq	r0, pc, r4, lsl #10
    2094:	08020000 	stmdaeq	r2, {}	; <UNPREDICTABLE>
    2098:	00008a05 	andeq	r8, r0, r5, lsl #20
    209c:	08010200 	stmdaeq	r1, {r9}
    20a0:	0000028f 	andeq	r0, r0, pc, lsl #5
    20a4:	88070202 	stmdahi	r7, {r1, r9}
    20a8:	02000001 	andeq	r0, r0, #1
    20ac:	00670704 	rsbeq	r0, r7, r4, lsl #14
    20b0:	04030000 	streq	r0, [r3], #-0
    20b4:	746e6905 	strbtvc	r6, [lr], #-2309	; 0x905
    20b8:	07040200 	streq	r0, [r4, -r0, lsl #4]
    20bc:	00000229 	andeq	r0, r0, r9, lsr #4
    20c0:	98080102 	stmdals	r8, {r1, r8}
    20c4:	04000002 	streq	r0, [r0], #-2
    20c8:	b20c0201 	andlt	r0, ip, #268435456	; 0x10000000
    20cc:	05000000 	streq	r0, [r0, #-0]
    20d0:	000007bc 			; <UNDEFINED> instruction: 0x000007bc
    20d4:	087b0500 	ldmdaeq	fp!, {r8, sl}^
    20d8:	05010000 	streq	r0, [r1, #-0]
    20dc:	0000089e 	muleq	r0, lr, r8
    20e0:	08ad0504 	stmiaeq	sp!, {r2, r8, sl}
    20e4:	05050000 	streq	r0, [r5, #-0]
    20e8:	000008bc 			; <UNDEFINED> instruction: 0x000008bc
    20ec:	08cb0506 	stmiaeq	fp, {r1, r2, r8, sl}^
    20f0:	05070000 	streq	r0, [r7, #-0]
    20f4:	000008da 	ldrdeq	r0, [r0], -sl
    20f8:	08e90503 	stmiaeq	r9!, {r0, r1, r8, sl}^
    20fc:	00020000 	andeq	r0, r2, r0
    2100:	00089206 	andeq	r9, r8, r6, lsl #4
    2104:	79150200 	ldmdbvc	r5, {r9}
    2108:	07000000 	streq	r0, [r0, -r0]
    210c:	000003aa 	andeq	r0, r0, sl, lsr #7
    2110:	8ee03f01 	cdphi	15, 14, cr3, cr0, cr1, {0}
    2114:	00d40000 	sbcseq	r0, r4, r0
    2118:	9c010000 	stcls	0, cr0, [r1], {-0}
    211c:	00000133 	andeq	r0, r0, r3, lsr r1
    2120:	6e697008 	cdpvs	0, 6, cr7, cr9, cr8, {0}
    2124:	2c3f0100 	ldfcss	f0, [pc], #-0	; 212c <_start-0x5ed4>
    2128:	43000000 	movwmi	r0, #0
    212c:	0900000f 	stmdbeq	r0, {r0, r1, r2, r3}
    2130:	000007ec 	andeq	r0, r0, ip, ror #15
    2134:	01334701 	teqeq	r3, r1, lsl #14
    2138:	0f610000 	svceq	0x00610000
    213c:	f8090000 			; <UNDEFINED> instruction: 0xf8090000
    2140:	01000008 	tsteq	r0, r8
    2144:	00002c49 	andeq	r2, r0, r9, asr #24
    2148:	000fb600 	andeq	fp, pc, r0, lsl #12
    214c:	08460900 	stmdaeq	r6, {r8, fp}^
    2150:	57010000 	strpl	r0, [r1, -r0]
    2154:	0000002c 	andeq	r0, r0, ip, lsr #32
    2158:	00001182 	andeq	r1, r0, r2, lsl #3
    215c:	008f740a 	addeq	r7, pc, sl, lsl #8
    2160:	00084100 	andeq	r4, r8, r0, lsl #2
    2164:	00012200 	andeq	r2, r1, r0, lsl #4
    2168:	50010b00 	andpl	r0, r1, r0, lsl #22
    216c:	00007502 	andeq	r7, r0, r2, lsl #10
    2170:	008fa80c 	addeq	sl, pc, ip, lsl #16
    2174:	00086200 	andeq	r6, r8, r0, lsl #4
    2178:	50010b00 	andpl	r0, r1, r0, lsl #22
    217c:	00007502 	andeq	r7, r0, r2, lsl #10
    2180:	39040d00 	stmdbcc	r4, {r8, sl, fp}
    2184:	0e000001 	cdpeq	0, 0, cr0, cr0, cr1, {0}
    2188:	0000002c 	andeq	r0, r0, ip, lsr #32
    218c:	00007e07 	andeq	r7, r0, r7, lsl #28
    2190:	b4600100 	strbtlt	r0, [r0], #-256	; 0x100
    2194:	3800008f 	stmdacc	r0, {r0, r1, r2, r3, r7}
    2198:	01000000 	mrseq	r0, (UNDEF: 0)
    219c:	0001969c 	muleq	r1, ip, r6
    21a0:	69700800 	ldmdbvs	r0!, {fp}^
    21a4:	6001006e 	andvs	r0, r1, lr, rrx
    21a8:	0000002c 	andeq	r0, r0, ip, lsr #32
    21ac:	000011b2 			; <UNDEFINED> instruction: 0x000011b2
    21b0:	0007ec09 	andeq	lr, r7, r9, lsl #24
    21b4:	33670100 	cmncc	r7, #0, 2
    21b8:	d3000001 	movwle	r0, #1
    21bc:	09000011 	stmdbeq	r0, {r0, r4}
    21c0:	00000846 	andeq	r0, r0, r6, asr #16
    21c4:	002c6801 	eoreq	r6, ip, r1, lsl #16
    21c8:	12090000 	andne	r0, r9, #0
    21cc:	e40c0000 	str	r0, [ip], #-0
    21d0:	6200008f 	andvs	r0, r0, #143	; 0x8f
    21d4:	0b000008 	bleq	21fc <_start-0x5e04>
    21d8:	31075101 	tstcc	r7, r1, lsl #2
    21dc:	4f5001f3 	svcmi	0x005001f3
    21e0:	0000241a 	andeq	r2, r0, sl, lsl r4
    21e4:	00010207 	andeq	r0, r1, r7, lsl #4
    21e8:	ec7b0100 	ldfe	f0, [fp], #-0
    21ec:	3800008f 	stmdacc	r0, {r0, r1, r2, r3, r7}
    21f0:	01000000 	mrseq	r0, (UNDEF: 0)
    21f4:	0001ee9c 	muleq	r1, ip, lr
    21f8:	69700800 	ldmdbvs	r0!, {fp}^
    21fc:	7b01006e 	blvc	423bc <__bss_end__+0x37a84>
    2200:	0000002c 	andeq	r0, r0, ip, lsr #32
    2204:	00001249 	andeq	r1, r0, r9, asr #4
    2208:	0007ec09 	andeq	lr, r7, r9, lsl #24
    220c:	33810100 	orrcc	r0, r1, #0, 2
    2210:	6a000001 	bvs	221c <_start-0x5de4>
    2214:	09000012 	stmdbeq	r0, {r1, r4}
    2218:	00000846 	andeq	r0, r0, r6, asr #16
    221c:	002c8201 	eoreq	r8, ip, r1, lsl #4
    2220:	12a00000 	adcne	r0, r0, #0
    2224:	1c0c0000 	stcne	0, cr0, [ip], {-0}
    2228:	62000090 	andvs	r0, r0, #144	; 0x90
    222c:	0b000008 	bleq	2254 <_start-0x5dac>
    2230:	31075101 	tstcc	r7, r1, lsl #2
    2234:	4f5001f3 	svcmi	0x005001f3
    2238:	0000241a 	andeq	r2, r0, sl, lsl r4
    223c:	00034107 	andeq	r4, r3, r7, lsl #2
    2240:	24950100 	ldrcs	r0, [r5], #256	; 0x100
    2244:	cc000090 	stcgt	0, cr0, [r0], {144}	; 0x90
    2248:	01000000 	mrseq	r0, (UNDEF: 0)
    224c:	0002649c 	muleq	r2, ip, r4
    2250:	69700800 	ldmdbvs	r0!, {fp}^
    2254:	9501006e 	strls	r0, [r1, #-110]	; 0x6e
    2258:	0000002c 	andeq	r0, r0, ip, lsr #32
    225c:	000012e0 	andeq	r1, r0, r0, ror #5
    2260:	0007ec09 	andeq	lr, r7, r9, lsl #24
    2264:	339b0100 	orrscc	r0, fp, #0, 2
    2268:	fe000001 	cdp2	0, 0, cr0, cr0, cr1, {0}
    226c:	09000012 	stmdbeq	r0, {r1, r4}
    2270:	000008f8 	strdeq	r0, [r0], -r8
    2274:	002c9d01 	eoreq	r9, ip, r1, lsl #26
    2278:	13530000 	cmpne	r3, #0
    227c:	46090000 	strmi	r0, [r9], -r0
    2280:	01000008 	tsteq	r0, r8
    2284:	00002cab 	andeq	r2, r0, fp, lsr #25
    2288:	00151f00 	andseq	r1, r5, r0, lsl #30
    228c:	90b80a00 	adcsls	r0, r8, r0, lsl #20
    2290:	08410000 	stmdaeq	r1, {}^	; <UNPREDICTABLE>
    2294:	02530000 	subseq	r0, r3, #0
    2298:	010b0000 	mrseq	r0, (UNDEF: 11)
    229c:	00750250 	rsbseq	r0, r5, r0, asr r2
    22a0:	90e40c00 	rscls	r0, r4, r0, lsl #24
    22a4:	08620000 	stmdaeq	r2!, {}^	; <UNPREDICTABLE>
    22a8:	010b0000 	mrseq	r0, (UNDEF: 11)
    22ac:	00750250 	rsbseq	r0, r5, r0, asr r2
    22b0:	120f0000 	andne	r0, pc, #0
    22b4:	01000002 	tsteq	r0, r2
    22b8:	000064b3 			; <UNDEFINED> instruction: 0x000064b3
    22bc:	0090f000 	addseq	pc, r0, r0
    22c0:	00004c00 	andeq	r4, r0, r0, lsl #24
    22c4:	ac9c0100 	ldfges	f0, [ip], {0}
    22c8:	08000002 	stmdaeq	r0, {r1}
    22cc:	006e6970 	rsbeq	r6, lr, r0, ror r9
    22d0:	002cb301 	eoreq	fp, ip, r1, lsl #6
    22d4:	153d0000 	ldrne	r0, [sp, #-0]!
    22d8:	76100000 	ldrvc	r0, [r0], -r0
    22dc:	2cb90100 	ldfcss	f0, [r9]
    22e0:	95000000 	strls	r0, [r0, #-0]
    22e4:	11000015 	tstne	r0, r5, lsl r0
    22e8:	00009110 	andeq	r9, r0, r0, lsl r1
    22ec:	00000841 	andeq	r0, r0, r1, asr #16
    22f0:	00912011 	addseq	r2, r1, r1, lsl r0
    22f4:	00084100 	andeq	r4, r8, r0, lsl #2
    22f8:	3c070000 	stccc	0, cr0, [r7], {-0}
    22fc:	01000000 	mrseq	r0, (UNDEF: 0)
    2300:	00913cc5 	addseq	r3, r1, r5, asr #25
    2304:	00002400 	andeq	r2, r0, r0, lsl #8
    2308:	fc9c0100 	ldc2	1, cr0, [ip], {0}
    230c:	08000002 	stmdaeq	r0, {r1}
    2310:	006e6970 	rsbeq	r6, lr, r0, ror r9
    2314:	002cc501 	eoreq	ip, ip, r1, lsl #10
    2318:	15cb0000 	strbne	r0, [fp]
    231c:	76080000 	strvc	r0, [r8], -r0
    2320:	2cc50100 	stfcse	f0, [r5], {0}
    2324:	05000000 	streq	r0, [r0, #-0]
    2328:	0a000016 	beq	2388 <_start-0x5c78>
    232c:	00009154 	andeq	r9, r0, r4, asr r1
    2330:	0000013e 	andeq	r0, r0, lr, lsr r1
    2334:	000002f2 	strdeq	r0, [r0], -r2
    2338:	0350010b 	cmpeq	r0, #-1073741822	; 0xc0000002
    233c:	005001f3 	ldrsheq	r0, [r0], #-19	; 0xffffffed
    2340:	00915c11 	addseq	r5, r1, r1, lsl ip
    2344:	00019600 	andeq	r9, r1, r0, lsl #12
    2348:	0a070000 	beq	1c2350 <__bss_end__+0x1b7a18>
    234c:	01000008 	tsteq	r0, r8
    2350:	009160d1 	ldrsbeq	r6, [r1], r1
    2354:	0000d800 	andeq	sp, r0, r0, lsl #16
    2358:	819c0100 	orrshi	r0, ip, r0, lsl #2
    235c:	08000003 	stmdaeq	r0, {r0, r1}
    2360:	006e6970 	rsbeq	r6, lr, r0, ror r9
    2364:	002cd101 	eoreq	sp, ip, r1, lsl #2
    2368:	163f0000 	ldrtne	r0, [pc], -r0
    236c:	4e120000 	cdpmi	0, 1, cr0, cr2, cr0, {0}
    2370:	01000008 	tsteq	r0, r8
    2374:	0000b2d1 	ldrdeq	fp, [r0], -r1
    2378:	00165d00 	andseq	r5, r6, r0, lsl #26
    237c:	07ec0900 	strbeq	r0, [ip, r0, lsl #18]!
    2380:	d9010000 	stmdble	r1, {}	; <UNPREDICTABLE>
    2384:	00000133 	andeq	r0, r0, r3, lsr r1
    2388:	0000167e 	andeq	r1, r0, lr, ror r6
    238c:	0008f809 	andeq	pc, r8, r9, lsl #16
    2390:	2cda0100 	ldfcse	f0, [sl], {0}
    2394:	d3000000 	movwle	r0, #0
    2398:	09000016 	stmdbeq	r0, {r1, r2, r4}
    239c:	00000846 	andeq	r0, r0, r6, asr #16
    23a0:	002ce801 	eoreq	lr, ip, r1, lsl #16
    23a4:	189f0000 	ldmne	pc, {}	; <UNPREDICTABLE>
    23a8:	fc0a0000 	stc2	0, cr0, [sl], {-0}
    23ac:	41000091 	swpmi	r0, r1, [r0]	; <UNPREDICTABLE>
    23b0:	70000008 	andvc	r0, r0, r8
    23b4:	0b000003 	bleq	23c8 <_start-0x5c38>
    23b8:	76025001 	strvc	r5, [r2], -r1
    23bc:	2c0c0000 	stccs	0, cr0, [ip], {-0}
    23c0:	62000092 	andvs	r0, r0, #146	; 0x92
    23c4:	0b000008 	bleq	23ec <_start-0x5c14>
    23c8:	76025001 	strvc	r5, [r2], -r1
    23cc:	07000000 	streq	r0, [r0, -r0]
    23d0:	00000853 	andeq	r0, r0, r3, asr r8
    23d4:	9238f101 	eorsls	pc, r8, #1073741824	; 0x40000000
    23d8:	00380000 	eorseq	r0, r8, r0
    23dc:	9c010000 	stcls	0, cr0, [r1], {-0}
    23e0:	000003d9 	ldrdeq	r0, [r0], -r9
    23e4:	6e697008 	cdpvs	0, 6, cr7, cr9, cr8, {0}
    23e8:	2cf10100 	ldfcse	f0, [r1]
    23ec:	d0000000 	andle	r0, r0, r0
    23f0:	09000018 	stmdbeq	r0, {r3, r4}
    23f4:	000007ec 	andeq	r0, r0, ip, ror #15
    23f8:	0133f701 	teqeq	r3, r1, lsl #14
    23fc:	18f10000 	ldmne	r1!, {}^	; <UNPREDICTABLE>
    2400:	46090000 	strmi	r0, [r9], -r0
    2404:	01000008 	tsteq	r0, r8
    2408:	00002cf8 	strdeq	r2, [r0], -r8
    240c:	00192700 	andseq	r2, r9, r0, lsl #14
    2410:	92680c00 	rsbls	r0, r8, #0, 24
    2414:	08620000 	stmdaeq	r2!, {}^	; <UNPREDICTABLE>
    2418:	010b0000 	mrseq	r0, (UNDEF: 11)
    241c:	f3310751 	vaba.u<illegal width 64>	q0, <illegal reg q0.5>, <illegal reg q0.5>
    2420:	1a4f5001 	bne	13d642c <__bss_end__+0x13cbaf4>
    2424:	13000024 	movwne	r0, #36	; 0x24
    2428:	000003f5 	strdeq	r0, [r0], -r5
    242c:	64011f01 	strvs	r1, [r1], #-3841	; 0xf01
    2430:	70000000 	andvc	r0, r0, r0
    2434:	2c000092 	stccs	0, cr0, [r0], {146}	; 0x92
    2438:	01000000 	mrseq	r0, (UNDEF: 0)
    243c:	00040d9c 	muleq	r4, ip, sp
    2440:	03f81400 	mvnseq	r1, #0, 8
    2444:	1f010000 	svcne	0x00010000
    2448:	00002c01 	andeq	r2, r0, r1, lsl #24
    244c:	00196700 	andseq	r6, r9, r0, lsl #14
    2450:	92801100 	addls	r1, r0, #0, 2
    2454:	08410000 	stmdaeq	r1, {}^	; <UNPREDICTABLE>
    2458:	15000000 	strne	r0, [r0, #-0]
    245c:	000007f5 	strdeq	r0, [r0], -r5
    2460:	9c012e01 	stcls	14, cr2, [r1], {1}
    2464:	84000092 	strhi	r0, [r0], #-146	; 0x92
    2468:	01000000 	mrseq	r0, (UNDEF: 0)
    246c:	0004d19c 	muleq	r4, ip, r1
    2470:	69701600 	ldmdbvs	r0!, {r9, sl, ip}^
    2474:	2e01006e 	cdpcs	0, 0, cr0, cr1, cr14, {3}
    2478:	00002c01 	andeq	r2, r0, r1, lsl #24
    247c:	00198800 	andseq	r8, r9, r0, lsl #16
    2480:	07da1700 	ldrbeq	r1, [sl, r0, lsl #14]
    2484:	40010000 	andmi	r0, r1, r0
    2488:	00002c01 	andeq	r2, r0, r1, lsl #24
    248c:	0019b400 	andseq	fp, r9, r0, lsl #8
    2490:	92b81800 	adcsls	r1, r8, #0, 16
    2494:	001c0000 	andseq	r0, ip, r0
    2498:	04730000 	ldrbteq	r0, [r3], #-0
    249c:	46170000 	ldrmi	r0, [r7], -r0
    24a0:	01000008 	tsteq	r0, r8
    24a4:	002c0137 	eoreq	r0, ip, r7, lsr r1
    24a8:	19d20000 	ldmibne	r2, {}^	; <UNPREDICTABLE>
    24ac:	c4110000 	ldrgt	r0, [r1], #-0
    24b0:	41000092 	swpmi	r0, r2, [r0]	; <UNPREDICTABLE>
    24b4:	11000008 	tstne	r0, r8
    24b8:	000092d4 	ldrdeq	r9, [r0], -r4
    24bc:	00000862 	andeq	r0, r0, r2, ror #16
    24c0:	92d81800 	sbcsls	r1, r8, #0, 16
    24c4:	00200000 	eoreq	r0, r0, r0
    24c8:	04a30000 	strteq	r0, [r3], #0
    24cc:	46170000 	ldrmi	r0, [r7], -r0
    24d0:	01000008 	tsteq	r0, r8
    24d4:	002c013b 	eoreq	r0, ip, fp, lsr r1
    24d8:	19f00000 	ldmibne	r0!, {}^	; <UNPREDICTABLE>
    24dc:	e4110000 	ldr	r0, [r1], #-0
    24e0:	41000092 	swpmi	r0, r2, [r0]	; <UNPREDICTABLE>
    24e4:	11000008 	tstne	r0, r8
    24e8:	000092f8 	strdeq	r9, [r0], -r8
    24ec:	00000862 	andeq	r0, r0, r2, ror #16
    24f0:	92b01100 	adcsls	r1, r0, #0, 2
    24f4:	087e0000 	ldmdaeq	lr!, {}^	; <UNPREDICTABLE>
    24f8:	fc110000 	ldc2	0, cr0, [r1], {-0}
    24fc:	7e000092 	mcrvc	0, 0, r0, cr0, cr2, {4}
    2500:	11000008 	tstne	r0, r8
    2504:	00009308 	andeq	r9, r0, r8, lsl #6
    2508:	00000841 	andeq	r0, r0, r1, asr #16
    250c:	00931411 	addseq	r1, r3, r1, lsl r4
    2510:	00086200 	andeq	r6, r8, r0, lsl #4
    2514:	93181100 	tstls	r8, #0, 2
    2518:	087e0000 	ldmdaeq	lr!, {}^	; <UNPREDICTABLE>
    251c:	15000000 	strne	r0, [r0, #-0]
    2520:	000003df 	ldrdeq	r0, [r0], -pc	; <UNPREDICTABLE>
    2524:	20014b01 	andcs	r4, r1, r1, lsl #22
    2528:	84000093 	strhi	r0, [r0], #-147	; 0x93
    252c:	01000000 	mrseq	r0, (UNDEF: 0)
    2530:	0005959c 	muleq	r5, ip, r5
    2534:	69701600 	ldmdbvs	r0!, {r9, sl, ip}^
    2538:	4b01006e 	blmi	426f8 <__bss_end__+0x37dc0>
    253c:	00002c01 	andeq	r2, r0, r1, lsl #24
    2540:	001a0e00 	andseq	r0, sl, r0, lsl #28
    2544:	07da1700 	ldrbeq	r1, [sl, r0, lsl #14]
    2548:	5c010000 	stcpl	0, cr0, [r1], {-0}
    254c:	00002c01 	andeq	r2, r0, r1, lsl #24
    2550:	001a3a00 	andseq	r3, sl, r0, lsl #20
    2554:	933c1800 	teqls	ip, #0, 16
    2558:	001c0000 	andseq	r0, ip, r0
    255c:	05370000 	ldreq	r0, [r7, #-0]!
    2560:	46170000 	ldrmi	r0, [r7], -r0
    2564:	01000008 	tsteq	r0, r8
    2568:	002c0153 	eoreq	r0, ip, r3, asr r1
    256c:	1a580000 	bne	1602574 <__bss_end__+0x15f7c3c>
    2570:	48110000 	ldmdami	r1, {}	; <UNPREDICTABLE>
    2574:	41000093 	swpmi	r0, r3, [r0]	; <UNPREDICTABLE>
    2578:	11000008 	tstne	r0, r8
    257c:	00009358 	andeq	r9, r0, r8, asr r3
    2580:	00000862 	andeq	r0, r0, r2, ror #16
    2584:	935c1800 	cmpls	ip, #0, 16
    2588:	00200000 	eoreq	r0, r0, r0
    258c:	05670000 	strbeq	r0, [r7, #-0]!
    2590:	46170000 	ldrmi	r0, [r7], -r0
    2594:	01000008 	tsteq	r0, r8
    2598:	002c0157 	eoreq	r0, ip, r7, asr r1
    259c:	1a760000 	bne	1d825a4 <__bss_end__+0x1d77c6c>
    25a0:	68110000 	ldmdavs	r1, {}	; <UNPREDICTABLE>
    25a4:	41000093 	swpmi	r0, r3, [r0]	; <UNPREDICTABLE>
    25a8:	11000008 	tstne	r0, r8
    25ac:	0000937c 	andeq	r9, r0, ip, ror r3
    25b0:	00000862 	andeq	r0, r0, r2, ror #16
    25b4:	93341100 	teqls	r4, #0, 2
    25b8:	087e0000 	ldmdaeq	lr!, {}^	; <UNPREDICTABLE>
    25bc:	80110000 	andshi	r0, r1, r0
    25c0:	7e000093 	mcrvc	0, 0, r0, cr0, cr3, {4}
    25c4:	11000008 	tstne	r0, r8
    25c8:	0000938c 	andeq	r9, r0, ip, lsl #7
    25cc:	00000841 	andeq	r0, r0, r1, asr #16
    25d0:	00939811 	addseq	r9, r3, r1, lsl r8
    25d4:	00086200 	andeq	r6, r8, r0, lsl #4
    25d8:	939c1100 	orrsls	r1, ip, #0, 2
    25dc:	087e0000 	ldmdaeq	lr!, {}^	; <UNPREDICTABLE>
    25e0:	13000000 	movwne	r0, #0
    25e4:	00000794 	muleq	r0, r4, r7
    25e8:	64016601 	strvs	r6, [r1], #-1537	; 0x601
    25ec:	a4000000 	strge	r0, [r0], #-0
    25f0:	84000093 	strhi	r0, [r0], #-147	; 0x93
    25f4:	01000000 	mrseq	r0, (UNDEF: 0)
    25f8:	00063b9c 	muleq	r6, ip, fp
    25fc:	69701600 	ldmdbvs	r0!, {r9, sl, ip}^
    2600:	6601006e 	strvs	r0, [r1], -lr, rrx
    2604:	00002c01 	andeq	r2, r0, r1, lsl #24
    2608:	001a9400 	andseq	r9, sl, r0, lsl #8
    260c:	93c01800 	bicls	r1, r0, #0, 16
    2610:	00240000 	eoreq	r0, r4, r0
    2614:	05ef0000 	strbeq	r0, [pc, #0]!	; 261c <_start-0x59e4>
    2618:	e3170000 	tst	r7, #0
    261c:	01000007 	tsteq	r0, r7
    2620:	002c016d 	eoreq	r0, ip, sp, ror #2
    2624:	1ad60000 	bne	ff58262c <__bss_end__+0xff577cf4>
    2628:	cc110000 	ldcgt	0, cr0, [r1], {-0}
    262c:	41000093 	swpmi	r0, r3, [r0]	; <UNPREDICTABLE>
    2630:	11000008 	tstne	r0, r8
    2634:	000093dc 	ldrdeq	r9, [r0], -ip
    2638:	0000087e 	andeq	r0, r0, lr, ror r8
    263c:	93e41800 	mvnls	r1, #0, 16
    2640:	002c0000 	eoreq	r0, ip, r0
    2644:	06280000 	strteq	r0, [r8], -r0
    2648:	e3170000 	tst	r7, #0
    264c:	01000007 	tsteq	r0, r7
    2650:	002c0170 	eoreq	r0, ip, r0, ror r1
    2654:	1af00000 	bne	ffc0265c <__bss_end__+0xffbf7d24>
    2658:	f0110000 			; <UNDEFINED> instruction: 0xf0110000
    265c:	41000093 	swpmi	r0, r3, [r0]	; <UNPREDICTABLE>
    2660:	11000008 	tstne	r0, r8
    2664:	000093fc 	strdeq	r9, [r0], -ip
    2668:	0000087e 	andeq	r0, r0, lr, ror r8
    266c:	00940811 	addseq	r0, r4, r1, lsl r8
    2670:	00087e00 	andeq	r7, r8, r0, lsl #28
    2674:	b8110000 	ldmdalt	r1, {}	; <UNPREDICTABLE>
    2678:	7e000093 	mcrvc	0, 0, r0, cr0, cr3, {4}
    267c:	11000008 	tstne	r0, r8
    2680:	00009414 	andeq	r9, r0, r4, lsl r4
    2684:	0000087e 	andeq	r0, r0, lr, ror r8
    2688:	016a1500 	cmneq	sl, r0, lsl #10
    268c:	79010000 	stmdbvc	r1, {}	; <UNPREDICTABLE>
    2690:	00942801 	addseq	r2, r4, r1, lsl #16
    2694:	00005800 	andeq	r5, r0, r0, lsl #16
    2698:	a09c0100 	addsge	r0, ip, r0, lsl #2
    269c:	16000006 	strne	r0, [r0], -r6
    26a0:	006e6970 	rsbeq	r6, lr, r0, ror r9
    26a4:	2c017901 	stccs	9, cr7, [r1], {1}
    26a8:	03000000 	movweq	r0, #0
    26ac:	1100001b 	tstne	r0, fp, lsl r0
    26b0:	0000943c 	andeq	r9, r0, ip, lsr r4
    26b4:	0000087e 	andeq	r0, r0, lr, ror r8
    26b8:	0094580a 	addseq	r5, r4, sl, lsl #16
    26bc:	00086200 	andeq	r6, r8, r0, lsl #4
    26c0:	00068000 	andeq	r8, r6, r0
    26c4:	51010b00 	tstpl	r1, r0, lsl #22
    26c8:	00743104 	rsbseq	r3, r4, r4, lsl #2
    26cc:	740a0024 	strvc	r0, [sl], #-36	; 0x24
    26d0:	62000094 	andvs	r0, r0, #148	; 0x94
    26d4:	96000008 	strls	r0, [r0], -r8
    26d8:	0b000006 	bleq	26f8 <_start-0x5908>
    26dc:	31045101 	tstcc	r4, r1, lsl #2
    26e0:	00240074 	eoreq	r0, r4, r4, ror r0
    26e4:	00947811 	addseq	r7, r4, r1, lsl r8
    26e8:	00087e00 	andeq	r7, r8, r0, lsl #28
    26ec:	00190000 	andseq	r0, r9, r0
    26f0:	01000002 	tsteq	r0, r2
    26f4:	00013328 	andeq	r3, r1, r8, lsr #6
    26f8:	20030500 	andcs	r0, r3, r0, lsl #10
    26fc:	190000a0 	stmdbne	r0, {r5, r7}
    2700:	000002cc 	andeq	r0, r0, ip, asr #5
    2704:	01332901 	teqeq	r3, r1, lsl #18
    2708:	03050000 	movweq	r0, #20480	; 0x5000
    270c:	0000a01c 	andeq	sl, r0, ip, lsl r0
    2710:	00040119 	andeq	r0, r4, r9, lsl r1
    2714:	332a0100 	teqcc	sl, #0, 2
    2718:	05000001 	streq	r0, [r0, #-1]
    271c:	00a01803 	adceq	r1, r0, r3, lsl #16
    2720:	01371900 	teqeq	r7, r0, lsl #18
    2724:	2c010000 	stccs	0, cr0, [r1], {-0}
    2728:	00000133 	andeq	r0, r0, r3, lsr r1
    272c:	9fc40305 	svcls	0x00c40305
    2730:	3f190000 	svccc	0x00190000
    2734:	01000001 	tsteq	r0, r1
    2738:	0001332d 	andeq	r3, r1, sp, lsr #6
    273c:	c8030500 	stmdagt	r3, {r8, sl}
    2740:	1900009f 	stmdbne	r0, {r0, r1, r2, r3, r4, r7}
    2744:	00000028 	andeq	r0, r0, r8, lsr #32
    2748:	01332e01 	teqeq	r3, r1, lsl #28
    274c:	03050000 	movweq	r0, #20480	; 0x5000
    2750:	00009fcc 	andeq	r9, r0, ip, asr #31
    2754:	00014719 	andeq	r4, r1, r9, lsl r7
    2758:	332f0100 	teqcc	pc, #0, 2
    275c:	05000001 	streq	r0, [r0, #-1]
    2760:	009fd003 	addseq	sp, pc, r3
    2764:	014f1900 	cmpeq	pc, r0, lsl #18
    2768:	30010000 	andcc	r0, r1, r0
    276c:	00000133 	andeq	r0, r0, r3, lsr r1
    2770:	9fd40305 	svcls	0x00d40305
    2774:	57190000 	ldrpl	r0, [r9, -r0]
    2778:	01000001 	tsteq	r0, r1
    277c:	00013331 	andeq	r3, r1, r1, lsr r3
    2780:	d8030500 	stmdale	r3, {r8, sl}
    2784:	1900009f 	stmdbne	r0, {r0, r1, r2, r3, r4, r7}
    2788:	000002a3 	andeq	r0, r0, r3, lsr #5
    278c:	01333301 	teqeq	r3, r1, lsl #6
    2790:	03050000 	movweq	r0, #20480	; 0x5000
    2794:	00009fdc 	ldrdeq	r9, [r0], -ip
    2798:	0000b919 	andeq	fp, r0, r9, lsl r9
    279c:	33340100 	teqcc	r4, #0, 2
    27a0:	05000001 	streq	r0, [r0, #-1]
    27a4:	009fe003 	addseq	lr, pc, r3
    27a8:	00301900 	eorseq	r1, r0, r0, lsl #18
    27ac:	36010000 	strcc	r0, [r1], -r0
    27b0:	00000133 	andeq	r0, r0, r3, lsr r1
    27b4:	9fe40305 	svcls	0x00e40305
    27b8:	0b190000 	bleq	6427c0 <__bss_end__+0x637e88>
    27bc:	01000002 	tsteq	r0, r2
    27c0:	00013337 	andeq	r3, r1, r7, lsr r3
    27c4:	e8030500 	stmda	r3, {r8, sl}
    27c8:	1900009f 	stmdbne	r0, {r0, r1, r2, r3, r4, r7}
    27cc:	000000de 	ldrdeq	r0, [r0], -lr
    27d0:	01333901 	teqeq	r3, r1, lsl #18
    27d4:	03050000 	movweq	r0, #20480	; 0x5000
    27d8:	00009fec 	andeq	r9, r0, ip, ror #31
    27dc:	0000e519 	andeq	lr, r0, r9, lsl r5
    27e0:	333a0100 	teqcc	sl, #0, 2
    27e4:	05000001 	streq	r0, [r0, #-1]
    27e8:	009ff003 	addseq	pc, pc, r3
    27ec:	082a1a00 	stmdaeq	sl!, {r9, fp, ip}
    27f0:	0a010000 	beq	427f8 <__bss_end__+0x37ec0>
    27f4:	00013301 	andeq	r3, r1, r1, lsl #6
    27f8:	14030500 	strne	r0, [r3], #-1280	; 0x500
    27fc:	1a0000a0 	bne	2a84 <_start-0x557c>
    2800:	00000838 	andeq	r0, r0, r8, lsr r8
    2804:	33010b01 	movwcc	r0, #6913	; 0x1b01
    2808:	05000001 	streq	r0, [r0, #-1]
    280c:	009ff403 	addseq	pc, pc, r3, lsl #8
    2810:	085f1a00 	ldmdaeq	pc, {r9, fp, ip}^	; <UNPREDICTABLE>
    2814:	0d010000 	stceq	0, cr0, [r1, #-0]
    2818:	00013301 	andeq	r3, r1, r1, lsl #6
    281c:	0c030500 	cfstr32eq	mvfx0, [r3], {-0}
    2820:	1a0000a0 	bne	2aa8 <_start-0x5558>
    2824:	00000866 	andeq	r0, r0, r6, ror #16
    2828:	33010e01 	movwcc	r0, #7681	; 0x1e01
    282c:	05000001 	streq	r0, [r0, #-1]
    2830:	00a01003 	adceq	r1, r0, r3
    2834:	081c1a00 	ldmdaeq	ip, {r9, fp, ip}
    2838:	10010000 	andne	r0, r1, r0
    283c:	00013301 	andeq	r3, r1, r1, lsl #6
    2840:	f8030500 			; <UNDEFINED> instruction: 0xf8030500
    2844:	1a00009f 	bne	2ac8 <_start-0x5538>
    2848:	00000823 	andeq	r0, r0, r3, lsr #16
    284c:	33011101 	movwcc	r1, #4353	; 0x1101
    2850:	05000001 	streq	r0, [r0, #-1]
    2854:	009ffc03 	addseq	pc, pc, r3, lsl #24
    2858:	086d1a00 	stmdaeq	sp!, {r9, fp, ip}^
    285c:	13010000 	movwne	r0, #4096	; 0x1000
    2860:	00013301 	andeq	r3, r1, r1, lsl #6
    2864:	04030500 	streq	r0, [r3], #-1280	; 0x500
    2868:	1a0000a0 	bne	2af0 <_start-0x5510>
    286c:	00000874 	andeq	r0, r0, r4, ror r8
    2870:	33011401 	movwcc	r1, #5121	; 0x1401
    2874:	05000001 	streq	r0, [r0, #-1]
    2878:	00a00803 	adceq	r0, r0, r3, lsl #16
    287c:	07ae1a00 	streq	r1, [lr, r0, lsl #20]!
    2880:	16010000 	strne	r0, [r1], -r0
    2884:	00013301 	andeq	r3, r1, r1, lsl #6
    2888:	00030500 	andeq	r0, r3, r0, lsl #10
    288c:	1b0000a0 	blne	2b14 <_start-0x54ec>
    2890:	0000088c 	andeq	r0, r0, ip, lsl #17
    2894:	002c2001 	eoreq	r2, ip, r1
    2898:	08560000 	ldmdaeq	r6, {}^	; <UNPREDICTABLE>
    289c:	561c0000 	ldrpl	r0, [ip], -r0
    28a0:	00000008 	andeq	r0, r0, r8
    28a4:	085c040d 	ldmdaeq	ip, {r0, r2, r3, sl}^
    28a8:	611d0000 	tstvs	sp, r0
    28ac:	1e000008 	cdpne	0, 0, cr0, cr0, cr8, {0}
    28b0:	0007a81f 	andeq	sl, r7, pc, lsl r8
    28b4:	781e0100 	ldmdavc	lr, {r8}
    28b8:	1c000008 	stcne	0, cr0, [r0], {8}
    28bc:	00000878 	andeq	r0, r0, r8, ror r8
    28c0:	00002c1c 	andeq	r2, r0, ip, lsl ip
    28c4:	040d0000 	streq	r0, [sp], #-0
    28c8:	00000861 	andeq	r0, r0, r1, ror #16
    28cc:	00028320 	andeq	r8, r2, r0, lsr #6
    28d0:	008a0300 	addeq	r0, sl, r0, lsl #6
    28d4:	000011f2 	strdeq	r1, [r0], -r2
    28d8:	0d260004 	stceq	0, cr0, [r6, #-16]!
    28dc:	01040000 	mrseq	r0, (UNDEF: 4)
    28e0:	000002ea 	andeq	r0, r0, sl, ror #5
    28e4:	00099801 	andeq	r9, r9, r1, lsl #16
    28e8:	00047300 	andeq	r7, r4, r0, lsl #6
    28ec:	00948000 	addseq	r8, r4, r0
    28f0:	00066800 	andeq	r6, r6, r0, lsl #16
    28f4:	000c0a00 	andeq	r0, ip, r0, lsl #20
    28f8:	05040200 	streq	r0, [r4, #-512]	; 0x200
    28fc:	00746e69 	rsbseq	r6, r4, r9, ror #28
    2900:	6c070403 	cfstrsvs	mvf0, [r7], {3}
    2904:	03000000 	movweq	r0, #0
    2908:	02910601 	addseq	r0, r1, #1048576	; 0x100000
    290c:	02030000 	andeq	r0, r3, #0
    2910:	0002aa05 	andeq	sl, r2, r5, lsl #20
    2914:	05040300 	streq	r0, [r4, #-768]	; 0x300
    2918:	0000008f 	andeq	r0, r0, pc, lsl #1
    291c:	8a050803 	bhi	144930 <__bss_end__+0x139ff8>
    2920:	04000000 	streq	r0, [r0], #-0
    2924:	000003d7 	ldrdeq	r0, [r0], -r7
    2928:	005a2e03 	subseq	r2, sl, r3, lsl #28
    292c:	01030000 	mrseq	r0, (UNDEF: 3)
    2930:	00028f08 	andeq	r8, r2, r8, lsl #30
    2934:	07020300 	streq	r0, [r2, -r0, lsl #6]
    2938:	00000188 	andeq	r0, r0, r8, lsl #3
    293c:	0006b304 	andeq	fp, r6, r4, lsl #6
    2940:	73340300 	teqvc	r4, #0, 6
    2944:	03000000 	movweq	r0, #0
    2948:	00670704 	rsbeq	r0, r7, r4, lsl #14
    294c:	08030000 	stmdaeq	r3, {}	; <UNPREDICTABLE>
    2950:	00006207 	andeq	r6, r0, r7, lsl #4
    2954:	07040300 	streq	r0, [r4, -r0, lsl #6]
    2958:	00000229 	andeq	r0, r0, r9, lsr #4
    295c:	04060405 	streq	r0, [r6], #-1029	; 0x405
    2960:	00000090 	muleq	r0, r0, r0
    2964:	98080103 	stmdals	r8, {r0, r1, r8}
    2968:	06000002 	streq	r0, [r0], -r2
    296c:	00009d04 	andeq	r9, r0, r4, lsl #26
    2970:	00900700 	addseq	r0, r0, r0, lsl #14
    2974:	0c080000 	stceq	0, cr0, [r8], {-0}
    2978:	00d90e04 	sbcseq	r0, r9, r4, lsl #28
    297c:	74090000 	strvc	r0, [r9], #-0
    2980:	0f040078 	svceq	0x00040078
    2984:	0000004f 	andeq	r0, r0, pc, asr #32
    2988:	78720900 	ldmdavc	r2!, {r8, fp}^
    298c:	4f0f0400 	svcmi	0x000f0400
    2990:	01000000 	mrseq	r0, (UNDEF: 0)
    2994:	0006320a 	andeq	r3, r6, sl, lsl #4
    2998:	68100400 	ldmdavs	r0, {sl}
    299c:	04000000 	streq	r0, [r0], #-0
    29a0:	0005e30a 	andeq	lr, r5, sl, lsl #6
    29a4:	68110400 	ldmdavs	r1, {sl}
    29a8:	08000000 	stmdaeq	r0, {}	; <UNPREDICTABLE>
    29ac:	061b0400 	ldreq	r0, [fp], -r0, lsl #8
    29b0:	12040000 	andne	r0, r4, #0
    29b4:	000000a2 	andeq	r0, r0, r2, lsr #1
    29b8:	00044204 	andeq	r4, r4, r4, lsl #4
    29bc:	ef280500 	svc	0x00280500
    29c0:	0b000000 	bleq	29c8 <_start-0x5638>
    29c4:	00000469 	andeq	r0, r0, r9, ror #8
    29c8:	06000904 	streq	r0, [r0], -r4, lsl #18
    29cc:	0c000001 	stceq	0, cr0, [r0], {1}
    29d0:	000004bc 			; <UNDEFINED> instruction: 0x000004bc
    29d4:	00000088 	andeq	r0, r0, r8, lsl #1
    29d8:	6b040000 	blvs	1029e0 <__bss_end__+0xf80a8>
    29dc:	05000004 	streq	r0, [r0, #-4]
    29e0:	0000e462 	andeq	lr, r0, r2, ror #8
    29e4:	095c0d00 	ldmdbeq	ip, {r8, sl, fp}^
    29e8:	09020000 	stmdbeq	r2, {}	; <UNPREDICTABLE>
    29ec:	00013f03 	andeq	r3, r1, r3, lsl #30
    29f0:	06460e00 	strbeq	r0, [r6], -r0, lsl #28
    29f4:	09020000 	stmdbeq	r2, {}	; <UNPREDICTABLE>
    29f8:	0000002c 	andeq	r0, r0, ip, lsr #32
    29fc:	02006e0f 	andeq	r6, r0, #15, 28	; 0xf0
    2a00:	00002c09 	andeq	r2, r0, r9, lsl #24
    2a04:	5a111000 	bpl	446a0c <__bss_end__+0x43c0d4>
    2a08:	02000002 	andeq	r0, r0, #2
    2a0c:	00002c0c 	andeq	r2, r0, ip, lsl #24
    2a10:	0d000000 	stceq	0, cr0, [r0, #-0]
    2a14:	0000090f 	andeq	r0, r0, pc, lsl #18
    2a18:	76031702 	strvc	r1, [r3], -r2, lsl #14
    2a1c:	0f000001 	svceq	0x00000001
    2a20:	006e6970 	rsbeq	r6, lr, r0, ror r9
    2a24:	002c1702 	eoreq	r1, ip, r2, lsl #14
    2a28:	760f0000 	strvc	r0, [pc], -r0
    2a2c:	2c170200 	lfmcs	f0, 4, [r7], {-0}
    2a30:	0e000000 	cdpeq	0, 0, cr0, cr0, cr0, {0}
    2a34:	00000646 	andeq	r0, r0, r6, asr #12
    2a38:	002c1702 	eoreq	r1, ip, r2, lsl #14
    2a3c:	620e0000 	andvs	r0, lr, #0
    2a40:	02000009 	andeq	r0, r0, #9
    2a44:	00002c17 	andeq	r2, r0, r7, lsl ip
    2a48:	57120000 	ldrpl	r0, [r2, -r0]
    2a4c:	01000006 	tsteq	r0, r6
    2a50:	00948009 	addseq	r8, r4, r9
    2a54:	00015400 	andeq	r5, r1, r0, lsl #8
    2a58:	229c0100 	addscs	r0, ip, #0, 2
    2a5c:	13000007 	movwne	r0, #7
    2a60:	000005f9 	strdeq	r0, [r0], -r9
    2a64:	07220901 	streq	r0, [r2, -r1, lsl #18]!
    2a68:	1b2f0000 	blne	bc2a70 <__bss_end__+0xbb8138>
    2a6c:	63140000 	tstvs	r4, #0
    2a70:	5a090100 	bpl	242e78 <__bss_end__+0x238540>
    2a74:	50000000 	andpl	r0, r0, r0
    2a78:	1500001b 	strne	r0, [r0, #-27]
    2a7c:	01007874 	tsteq	r0, r4, ror r8
    2a80:	0000250b 	andeq	r2, r0, fp, lsl #10
    2a84:	00760600 	rsbseq	r0, r6, r0, lsl #12
    2a88:	9f1aff08 	svcls	0x001aff08
    2a8c:	01006e16 	tsteq	r0, r6, lsl lr
    2a90:	0000680c 	andeq	r6, r0, ip, lsl #16
    2a94:	001b7100 	andseq	r7, fp, r0, lsl #2
    2a98:	00751600 	rsbseq	r1, r5, r0, lsl #12
    2a9c:	00680d01 	rsbeq	r0, r8, r1, lsl #26
    2aa0:	1b840000 	blne	fe102aa8 <__bss_end__+0xfe0f8170>
    2aa4:	73150000 	tstvc	r5, #0
    2aa8:	680e0100 	stmdavs	lr, {r8}
    2aac:	01000000 	mrseq	r0, (UNDEF: 0)
    2ab0:	94901754 	ldrls	r1, [r0], #1876	; 0x754
    2ab4:	00040000 	andeq	r0, r4, r0
    2ab8:	01f80000 	mvnseq	r0, r0
    2abc:	5a180000 	bpl	602ac4 <__bss_end__+0x5f818c>
    2ac0:	01000002 	tsteq	r0, r2
    2ac4:	00002c0e 	andeq	r2, r0, lr, lsl #24
    2ac8:	00540100 	subseq	r0, r4, r0, lsl #2
    2acc:	00013f19 	andeq	r3, r1, r9, lsl pc
    2ad0:	00949400 	addseq	r9, r4, r0, lsl #8
    2ad4:	00001c00 	andeq	r1, r0, r0, lsl #24
    2ad8:	75110100 	ldrvc	r0, [r1, #-256]	; 0x100
    2adc:	1a000002 	bne	2aec <_start-0x5514>
    2ae0:	0000016a 	andeq	r0, r0, sl, ror #2
    2ae4:	00001bad 	andeq	r1, r0, sp, lsr #23
    2ae8:	00015f1b 	andeq	r5, r1, fp, lsl pc
    2aec:	1c540100 	ldfnee	f0, [r4], {-0}
    2af0:	00000156 	andeq	r0, r0, r6, asr r1
    2af4:	014b1b00 	cmpeq	fp, r0, lsl #22
    2af8:	56010000 	strpl	r0, [r1], -r0
    2afc:	00011119 	andeq	r1, r1, r9, lsl r1
    2b00:	0094a000 	addseq	sl, r4, r0
    2b04:	00001000 	andeq	r1, r0, r0
    2b08:	5f1a0200 	svcpl	0x001a0200
    2b0c:	1a000002 	bne	2b1c <_start-0x54e4>
    2b10:	00000128 	andeq	r0, r0, r8, lsr #2
    2b14:	00001bc0 	andeq	r1, r0, r0, asr #23
    2b18:	00011d1b 	andeq	r1, r1, fp, lsl sp
    2b1c:	1d540100 	ldfnee	f0, [r4, #-0]
    2b20:	000094a0 	andeq	r9, r0, r0, lsr #9
    2b24:	00000004 	andeq	r0, r0, r4
    2b28:	0001321e 	andeq	r3, r1, lr, lsl r2
    2b2c:	001bd300 	andseq	sp, fp, r0, lsl #6
    2b30:	1f000000 	svcne	0x00000000
    2b34:	000094a0 	andeq	r9, r0, r0, lsr #9
    2b38:	00001159 	andeq	r1, r0, r9, asr r1
    2b3c:	01510120 	cmpeq	r1, r0, lsr #2
    2b40:	50012030 	andpl	r2, r1, r0, lsr r0
    2b44:	00007602 	andeq	r7, r0, r2, lsl #12
    2b48:	013f1900 	teqeq	pc, r0, lsl #18
    2b4c:	94b40000 	ldrtls	r0, [r4], #0
    2b50:	001c0000 	andseq	r0, ip, r0
    2b54:	13010000 	movwne	r0, #4096	; 0x1000
    2b58:	000002f8 	strdeq	r0, [r0], -r8
    2b5c:	00016a1a 	andeq	r6, r1, sl, lsl sl
    2b60:	001be600 	andseq	lr, fp, r0, lsl #12
    2b64:	015f1b00 	cmpeq	pc, r0, lsl #22
    2b68:	54010000 	strpl	r0, [r1], #-0
    2b6c:	0001561a 	andeq	r5, r1, sl, lsl r6
    2b70:	001c0800 	andseq	r0, ip, r0, lsl #16
    2b74:	014b1b00 	cmpeq	fp, r0, lsl #22
    2b78:	56010000 	strpl	r0, [r1], -r0
    2b7c:	00011119 	andeq	r1, r1, r9, lsl r1
    2b80:	0094c000 	addseq	ip, r4, r0
    2b84:	00001000 	andeq	r1, r0, r0
    2b88:	df1a0200 	svcle	0x001a0200
    2b8c:	1a000002 	bne	2b9c <_start-0x5464>
    2b90:	00000128 	andeq	r0, r0, r8, lsr #2
    2b94:	00001c39 	andeq	r1, r0, r9, lsr ip
    2b98:	00011d1b 	andeq	r1, r1, fp, lsl sp
    2b9c:	1d540100 	ldfnee	f0, [r4, #-0]
    2ba0:	000094c0 	andeq	r9, r0, r0, asr #9
    2ba4:	00000004 	andeq	r0, r0, r4
    2ba8:	0001321e 	andeq	r3, r1, lr, lsl r2
    2bac:	001c5b00 	andseq	r5, ip, r0, lsl #22
    2bb0:	1f000000 	svcne	0x00000000
    2bb4:	000094c0 	andeq	r9, r0, r0, asr #9
    2bb8:	00001159 	andeq	r1, r0, r9, asr r1
    2bbc:	04510120 	ldrbeq	r0, [r1], #-288	; 0x120
    2bc0:	1a310077 	bne	c42da4 <__bss_end__+0xc3846c>
    2bc4:	02500120 	subseq	r0, r0, #32, 2
    2bc8:	00000076 	andeq	r0, r0, r6, ror r0
    2bcc:	00013f19 	andeq	r3, r1, r9, lsl pc
    2bd0:	0094d400 	addseq	sp, r4, r0, lsl #8
    2bd4:	00001c00 	andeq	r1, r0, r0, lsl #24
    2bd8:	80150100 	andshi	r0, r5, r0, lsl #2
    2bdc:	1a000003 	bne	2bf0 <_start-0x5410>
    2be0:	0000016a 	andeq	r0, r0, sl, ror #2
    2be4:	00001c6e 	andeq	r1, r0, lr, ror #24
    2be8:	00015f1b 	andeq	r5, r1, fp, lsl pc
    2bec:	1b540100 	blne	1502ff4 <__bss_end__+0x14f86bc>
    2bf0:	00000156 	andeq	r0, r0, r6, asr r1
    2bf4:	32007708 	andcc	r7, r0, #8, 14	; 0x200000
    2bf8:	1aff081a 	bne	fffc4c68 <__bss_end__+0xfffba330>
    2bfc:	014b1b9f 			; <UNDEFINED> instruction: 0x014b1b9f
    2c00:	56010000 	strpl	r0, [r1], -r0
    2c04:	00011119 	andeq	r1, r1, r9, lsl r1
    2c08:	0094e000 	addseq	lr, r4, r0
    2c0c:	00001000 	andeq	r1, r0, r0
    2c10:	671a0200 	ldrvs	r0, [sl, -r0, lsl #4]
    2c14:	1a000003 	bne	2c28 <_start-0x53d8>
    2c18:	00000128 	andeq	r0, r0, r8, lsr #2
    2c1c:	00001c93 	muleq	r0, r3, ip
    2c20:	00011d1b 	andeq	r1, r1, fp, lsl sp
    2c24:	1d540100 	ldfnee	f0, [r4, #-0]
    2c28:	000094e0 	andeq	r9, r0, r0, ror #9
    2c2c:	00000004 	andeq	r0, r0, r4
    2c30:	0001321e 	andeq	r3, r1, lr, lsl r2
    2c34:	001cb800 	andseq	fp, ip, r0, lsl #16
    2c38:	1f000000 	svcne	0x00000000
    2c3c:	000094e0 	andeq	r9, r0, r0, ror #9
    2c40:	00001159 	andeq	r1, r0, r9, asr r1
    2c44:	04510120 	ldrbeq	r0, [r1], #-288	; 0x120
    2c48:	1a320077 	bne	c82e2c <__bss_end__+0xc784f4>
    2c4c:	02500120 	subseq	r0, r0, #32, 2
    2c50:	00000076 	andeq	r0, r0, r6, ror r0
    2c54:	00013f19 	andeq	r3, r1, r9, lsl pc
    2c58:	0094f400 	addseq	pc, r4, r0, lsl #8
    2c5c:	00001c00 	andeq	r1, r0, r0, lsl #24
    2c60:	08170100 	ldmdaeq	r7, {r8}
    2c64:	1a000004 	bne	2c7c <_start-0x5384>
    2c68:	0000016a 	andeq	r0, r0, sl, ror #2
    2c6c:	00001ccb 	andeq	r1, r0, fp, asr #25
    2c70:	00015f1b 	andeq	r5, r1, fp, lsl pc
    2c74:	1b540100 	blne	150307c <__bss_end__+0x14f8744>
    2c78:	00000156 	andeq	r0, r0, r6, asr r1
    2c7c:	34007708 	strcc	r7, [r0], #-1800	; 0x708
    2c80:	1aff081a 	bne	fffc4cf0 <__bss_end__+0xfffba3b8>
    2c84:	014b1b9f 			; <UNDEFINED> instruction: 0x014b1b9f
    2c88:	56010000 	strpl	r0, [r1], -r0
    2c8c:	00011119 	andeq	r1, r1, r9, lsl r1
    2c90:	00950000 	addseq	r0, r5, r0
    2c94:	00001000 	andeq	r1, r0, r0
    2c98:	ef1a0200 	svc	0x001a0200
    2c9c:	1a000003 	bne	2cb0 <_start-0x5350>
    2ca0:	00000128 	andeq	r0, r0, r8, lsr #2
    2ca4:	00001ced 	andeq	r1, r0, sp, ror #25
    2ca8:	00011d1b 	andeq	r1, r1, fp, lsl sp
    2cac:	1d540100 	ldfnee	f0, [r4, #-0]
    2cb0:	00009500 	andeq	r9, r0, r0, lsl #10
    2cb4:	00000004 	andeq	r0, r0, r4
    2cb8:	0001321e 	andeq	r3, r1, lr, lsl r2
    2cbc:	001d0f00 	andseq	r0, sp, r0, lsl #30
    2cc0:	1f000000 	svcne	0x00000000
    2cc4:	00009500 	andeq	r9, r0, r0, lsl #10
    2cc8:	00001159 	andeq	r1, r0, r9, asr r1
    2ccc:	04510120 	ldrbeq	r0, [r1], #-288	; 0x120
    2cd0:	1a340077 	bne	d02eb4 <__bss_end__+0xcf857c>
    2cd4:	02500120 	subseq	r0, r0, #32, 2
    2cd8:	00000076 	andeq	r0, r0, r6, ror r0
    2cdc:	00013f19 	andeq	r3, r1, r9, lsl pc
    2ce0:	00951400 	addseq	r1, r5, r0, lsl #8
    2ce4:	00001c00 	andeq	r1, r0, r0, lsl #24
    2ce8:	90190100 	andsls	r0, r9, r0, lsl #2
    2cec:	1a000004 	bne	2d04 <_start-0x52fc>
    2cf0:	0000016a 	andeq	r0, r0, sl, ror #2
    2cf4:	00001d22 	andeq	r1, r0, r2, lsr #26
    2cf8:	00015f1b 	andeq	r5, r1, fp, lsl pc
    2cfc:	1b540100 	blne	1503104 <__bss_end__+0x14f87cc>
    2d00:	00000156 	andeq	r0, r0, r6, asr r1
    2d04:	38007708 	stmdacc	r0, {r3, r8, r9, sl, ip, sp, lr}
    2d08:	1aff081a 	bne	fffc4d78 <__bss_end__+0xfffba440>
    2d0c:	014b1b9f 			; <UNDEFINED> instruction: 0x014b1b9f
    2d10:	56010000 	strpl	r0, [r1], -r0
    2d14:	00011119 	andeq	r1, r1, r9, lsl r1
    2d18:	00952000 	addseq	r2, r5, r0
    2d1c:	00001000 	andeq	r1, r0, r0
    2d20:	771a0200 	ldrvc	r0, [sl, -r0, lsl #4]
    2d24:	1a000004 	bne	2d3c <_start-0x52c4>
    2d28:	00000128 	andeq	r0, r0, r8, lsr #2
    2d2c:	00001d47 	andeq	r1, r0, r7, asr #26
    2d30:	00011d1b 	andeq	r1, r1, fp, lsl sp
    2d34:	1d540100 	ldfnee	f0, [r4, #-0]
    2d38:	00009520 	andeq	r9, r0, r0, lsr #10
    2d3c:	00000004 	andeq	r0, r0, r4
    2d40:	0001321e 	andeq	r3, r1, lr, lsl r2
    2d44:	001d6c00 	andseq	r6, sp, r0, lsl #24
    2d48:	1f000000 	svcne	0x00000000
    2d4c:	00009520 	andeq	r9, r0, r0, lsr #10
    2d50:	00001159 	andeq	r1, r0, r9, asr r1
    2d54:	04510120 	ldrbeq	r0, [r1], #-288	; 0x120
    2d58:	1a380077 	bne	e02f3c <__bss_end__+0xdf8604>
    2d5c:	02500120 	subseq	r0, r0, #32, 2
    2d60:	00000076 	andeq	r0, r0, r6, ror r0
    2d64:	00013f19 	andeq	r3, r1, r9, lsl pc
    2d68:	00953400 	addseq	r3, r5, r0, lsl #8
    2d6c:	00001c00 	andeq	r1, r0, r0, lsl #24
    2d70:	181b0100 	ldmdane	fp, {r8}
    2d74:	1a000005 	bne	2d90 <_start-0x5270>
    2d78:	0000016a 	andeq	r0, r0, sl, ror #2
    2d7c:	00001d7f 	andeq	r1, r0, pc, ror sp
    2d80:	00015f1b 	andeq	r5, r1, fp, lsl pc
    2d84:	1b540100 	blne	150318c <__bss_end__+0x14f8854>
    2d88:	00000156 	andeq	r0, r0, r6, asr r1
    2d8c:	40007708 	andmi	r7, r0, r8, lsl #14
    2d90:	1aff081a 	bne	fffc4e00 <__bss_end__+0xfffba4c8>
    2d94:	014b1b9f 			; <UNDEFINED> instruction: 0x014b1b9f
    2d98:	56010000 	strpl	r0, [r1], -r0
    2d9c:	00011119 	andeq	r1, r1, r9, lsl r1
    2da0:	00954000 	addseq	r4, r5, r0
    2da4:	00001000 	andeq	r1, r0, r0
    2da8:	ff1a0200 			; <UNDEFINED> instruction: 0xff1a0200
    2dac:	1a000004 	bne	2dc4 <_start-0x523c>
    2db0:	00000128 	andeq	r0, r0, r8, lsr #2
    2db4:	00001da6 	andeq	r1, r0, r6, lsr #27
    2db8:	00011d1b 	andeq	r1, r1, fp, lsl sp
    2dbc:	1d540100 	ldfnee	f0, [r4, #-0]
    2dc0:	00009540 	andeq	r9, r0, r0, asr #10
    2dc4:	00000004 	andeq	r0, r0, r4
    2dc8:	0001321e 	andeq	r3, r1, lr, lsl r2
    2dcc:	001dcd00 	andseq	ip, sp, r0, lsl #26
    2dd0:	1f000000 	svcne	0x00000000
    2dd4:	00009540 	andeq	r9, r0, r0, asr #10
    2dd8:	00001159 	andeq	r1, r0, r9, asr r1
    2ddc:	04510120 	ldrbeq	r0, [r1], #-288	; 0x120
    2de0:	1a400077 	bne	1002fc4 <__bss_end__+0xff868c>
    2de4:	02500120 	subseq	r0, r0, #32, 2
    2de8:	00000076 	andeq	r0, r0, r6, ror r0
    2dec:	00013f19 	andeq	r3, r1, r9, lsl pc
    2df0:	00955400 	addseq	r5, r5, r0, lsl #8
    2df4:	00001c00 	andeq	r1, r0, r0, lsl #24
    2df8:	a21d0100 	andsge	r0, sp, #0, 2
    2dfc:	1a000005 	bne	2e18 <_start-0x51e8>
    2e00:	0000016a 	andeq	r0, r0, sl, ror #2
    2e04:	00001de0 	andeq	r1, r0, r0, ror #27
    2e08:	00015f1b 	andeq	r5, r1, fp, lsl pc
    2e0c:	1b540100 	blne	1503214 <__bss_end__+0x14f88dc>
    2e10:	00000156 	andeq	r0, r0, r6, asr r1
    2e14:	08007709 	stmdaeq	r0, {r0, r3, r8, r9, sl, ip, sp, lr}
    2e18:	ff081a20 			; <UNDEFINED> instruction: 0xff081a20
    2e1c:	4b1b9f1a 	blmi	6eaa8c <__bss_end__+0x6e0154>
    2e20:	01000001 	tsteq	r0, r1
    2e24:	01111956 	tsteq	r1, r6, asr r9
    2e28:	95600000 	strbls	r0, [r0, #-0]!
    2e2c:	00100000 	andseq	r0, r0, r0
    2e30:	1a020000 	bne	82e38 <__bss_end__+0x78500>
    2e34:	00000588 	andeq	r0, r0, r8, lsl #11
    2e38:	0001281a 	andeq	r2, r1, sl, lsl r8
    2e3c:	001e0a00 	andseq	r0, lr, r0, lsl #20
    2e40:	011d1b00 	tsteq	sp, r0, lsl #22
    2e44:	54010000 	strpl	r0, [r1], #-0
    2e48:	0095601d 	addseq	r6, r5, sp, lsl r0
    2e4c:	00000400 	andeq	r0, r0, r0, lsl #8
    2e50:	01321e00 	teqeq	r2, r0, lsl #28
    2e54:	1e340000 	cdpne	0, 3, cr0, cr4, cr0, {0}
    2e58:	00000000 	andeq	r0, r0, r0
    2e5c:	0095601f 	addseq	r6, r5, pc, lsl r0
    2e60:	00115900 	andseq	r5, r1, r0, lsl #18
    2e64:	51012000 	mrspl	r2, (UNDEF: 1)
    2e68:	08007705 	stmdaeq	r0, {r0, r2, r8, r9, sl, ip, sp, lr}
    2e6c:	01201a20 	teqeq	r0, r0, lsr #20
    2e70:	00760250 	rsbseq	r0, r6, r0, asr r2
    2e74:	3f190000 	svccc	0x00190000
    2e78:	74000001 	strvc	r0, [r0], #-1
    2e7c:	1c000095 	stcne	0, cr0, [r0], {149}	; 0x95
    2e80:	01000000 	mrseq	r0, (UNDEF: 0)
    2e84:	00062c1f 	andeq	r2, r6, pc, lsl ip
    2e88:	016a1a00 	cmneq	sl, r0, lsl #20
    2e8c:	1e470000 	cdpne	0, 4, cr0, cr7, cr0, {0}
    2e90:	5f1b0000 	svcpl	0x001b0000
    2e94:	01000001 	tsteq	r0, r1
    2e98:	01561b54 	cmpeq	r6, r4, asr fp
    2e9c:	77090000 	strvc	r0, [r9, -r0]
    2ea0:	1a400800 	bne	1004ea8 <__bss_end__+0xffa570>
    2ea4:	9f1aff08 	svcls	0x001aff08
    2ea8:	00014b1b 	andeq	r4, r1, fp, lsl fp
    2eac:	19560100 	ldmdbne	r6, {r8}^
    2eb0:	00000111 	andeq	r0, r0, r1, lsl r1
    2eb4:	00009580 	andeq	r9, r0, r0, lsl #11
    2eb8:	00000010 	andeq	r0, r0, r0, lsl r0
    2ebc:	06121a02 	ldreq	r1, [r2], -r2, lsl #20
    2ec0:	281a0000 	ldmdacs	sl, {}	; <UNPREDICTABLE>
    2ec4:	69000001 	stmdbvs	r0, {r0}
    2ec8:	1b00001e 	blne	2f48 <_start-0x50b8>
    2ecc:	0000011d 	andeq	r0, r0, sp, lsl r1
    2ed0:	801d5401 	andshi	r5, sp, r1, lsl #8
    2ed4:	04000095 	streq	r0, [r0], #-149	; 0x95
    2ed8:	1e000000 	cdpne	0, 0, cr0, cr0, cr0, {0}
    2edc:	00000132 	andeq	r0, r0, r2, lsr r1
    2ee0:	00001e8b 	andeq	r1, r0, fp, lsl #29
    2ee4:	801f0000 	andshi	r0, pc, r0
    2ee8:	59000095 	stmdbpl	r0, {r0, r2, r4, r7}
    2eec:	20000011 	andcs	r0, r0, r1, lsl r0
    2ef0:	77055101 	strvc	r5, [r5, -r1, lsl #2]
    2ef4:	1a400800 	bne	1004efc <__bss_end__+0xffa5c4>
    2ef8:	02500120 	subseq	r0, r0, #32, 2
    2efc:	00000076 	andeq	r0, r0, r6, ror r0
    2f00:	00013f19 	andeq	r3, r1, r9, lsl pc
    2f04:	00959400 	addseq	r9, r5, r0, lsl #8
    2f08:	00001c00 	andeq	r1, r0, r0, lsl #24
    2f0c:	ac210100 	stfges	f0, [r1], #-0
    2f10:	1b000006 	blne	2f30 <_start-0x50d0>
    2f14:	0000016a 	andeq	r0, r0, sl, ror #2
    2f18:	5f1b5801 	svcpl	0x001b5801
    2f1c:	01000001 	tsteq	r0, r1
    2f20:	01561a54 	cmpeq	r6, r4, asr sl
    2f24:	1e9e0000 	cdpne	0, 9, cr0, cr14, cr0, {0}
    2f28:	4b1b0000 	blmi	6c2f30 <__bss_end__+0x6b85f8>
    2f2c:	01000001 	tsteq	r0, r1
    2f30:	01111956 	tsteq	r1, r6, asr r9
    2f34:	95a00000 	strls	r0, [r0, #0]!
    2f38:	00100000 	andseq	r0, r0, r0
    2f3c:	1a020000 	bne	82f44 <__bss_end__+0x7860c>
    2f40:	00000692 	muleq	r0, r2, r6
    2f44:	0001281b 	andeq	r2, r1, fp, lsl r8
    2f48:	1b580100 	blne	1603350 <__bss_end__+0x15f8a18>
    2f4c:	0000011d 	andeq	r0, r0, sp, lsl r1
    2f50:	a01d5401 	andsge	r5, sp, r1, lsl #8
    2f54:	04000095 	streq	r0, [r0], #-149	; 0x95
    2f58:	1e000000 	cdpne	0, 0, cr0, cr0, cr0, {0}
    2f5c:	00000132 	andeq	r0, r0, r2, lsr r1
    2f60:	00001ed1 	ldrdeq	r1, [r0], -r1	; <UNPREDICTABLE>
    2f64:	a01f0000 	andsge	r0, pc, r0
    2f68:	59000095 	stmdbpl	r0, {r0, r2, r4, r7}
    2f6c:	20000011 	andcs	r0, r0, r1, lsl r0
    2f70:	77055101 	strvc	r5, [r5, -r1, lsl #2]
    2f74:	1a800800 	bne	fe004f7c <__bss_end__+0xfdffa644>
    2f78:	02500120 	subseq	r0, r0, #32, 2
    2f7c:	00000076 	andeq	r0, r0, r6, ror r0
    2f80:	00013f21 	andeq	r3, r1, r1, lsr #30
    2f84:	0095b400 	addseq	fp, r5, r0, lsl #8
    2f88:	00001c00 	andeq	r1, r0, r0, lsl #24
    2f8c:	1b230100 	blne	8c3394 <__bss_end__+0x8b8a5c>
    2f90:	0000016a 	andeq	r0, r0, sl, ror #2
    2f94:	5f1b5501 	svcpl	0x001b5501
    2f98:	01000001 	tsteq	r0, r1
    2f9c:	01561c54 	cmpeq	r6, r4, asr ip
    2fa0:	1b010000 	blne	42fa8 <__bss_end__+0x38670>
    2fa4:	0000014b 	andeq	r0, r0, fp, asr #2
    2fa8:	11195601 	tstne	r9, r1, lsl #12
    2fac:	c0000001 	andgt	r0, r0, r1
    2fb0:	10000095 	mulne	r0, r5, r0
    2fb4:	02000000 	andeq	r0, r0, #0
    2fb8:	00070b1a 	andeq	r0, r7, sl, lsl fp
    2fbc:	01281b00 	teqeq	r8, r0, lsl #22
    2fc0:	55010000 	strpl	r0, [r1, #-0]
    2fc4:	00011d1b 	andeq	r1, r1, fp, lsl sp
    2fc8:	1d540100 	ldfnee	f0, [r4, #-0]
    2fcc:	000095c0 	andeq	r9, r0, r0, asr #11
    2fd0:	00000004 	andeq	r0, r0, r4
    2fd4:	0001321e 	andeq	r3, r1, lr, lsl r2
    2fd8:	001ee400 	andseq	lr, lr, r0, lsl #8
    2fdc:	1f000000 	svcne	0x00000000
    2fe0:	000095c0 	andeq	r9, r0, r0, asr #11
    2fe4:	00001159 	andeq	r1, r0, r9, asr r1
    2fe8:	01510120 	cmpeq	r1, r0, lsr #2
    2fec:	50012031 	andpl	r2, r1, r1, lsr r0
    2ff0:	00007602 	andeq	r7, r0, r2, lsl #12
    2ff4:	04060000 	streq	r0, [r6], #-0
    2ff8:	000000d9 	ldrdeq	r0, [r0], -r9
    2ffc:	0009f122 	andeq	pc, r9, r2, lsr #2
    3000:	25270100 	strcs	r0, [r7, #-256]!	; 0x100
    3004:	03000000 	movweq	r0, #0
    3008:	00000762 	andeq	r0, r0, r2, ror #14
    300c:	0078720f 	rsbseq	r7, r8, pc, lsl #4
    3010:	00252701 	eoreq	r2, r5, r1, lsl #14
    3014:	760f0000 	strvc	r0, [pc], -r0
    3018:	25270100 	strcs	r0, [r7, #-256]!	; 0x100
    301c:	0e000000 	cdpeq	0, 0, cr0, cr0, cr0, {0}
    3020:	0000097e 	andeq	r0, r0, lr, ror r9
    3024:	002c2701 	eoreq	r2, ip, r1, lsl #14
    3028:	46110000 	ldrmi	r0, [r1], -r0
    302c:	01000006 	tsteq	r0, r6
    3030:	00002c28 	andeq	r2, r0, r8, lsr #24
    3034:	1f230000 	svcne	0x00230000
    3038:	01000009 	tsteq	r0, r9
    303c:	00002534 	andeq	r2, r0, r4, lsr r5
    3040:	0095d400 	addseq	sp, r5, r0, lsl #8
    3044:	0001c800 	andeq	ip, r1, r0, lsl #16
    3048:	1e9c0100 	fmlnee	f0, f4, f0
    304c:	1300000b 	movwne	r0, #11
    3050:	000005f9 	strdeq	r0, [r0], -r9
    3054:	07223401 	streq	r3, [r2, -r1, lsl #8]!
    3058:	1ef70000 	cdpne	0, 15, cr0, cr7, cr0, {0}
    305c:	7e130000 	cdpvc	0, 1, cr0, cr3, cr0, {0}
    3060:	01000009 	tsteq	r0, r9
    3064:	00002534 	andeq	r2, r0, r4, lsr r5
    3068:	001f3c00 	andseq	r3, pc, r0, lsl #24
    306c:	78721500 	ldmdavc	r2!, {r8, sl, ip}^
    3070:	25350100 	ldrcs	r0, [r5, #-256]!	; 0x100
    3074:	01000000 	mrseq	r0, (UNDEF: 0)
    3078:	00731655 	rsbseq	r1, r3, r5, asr r6
    307c:	002c3c01 	eoreq	r3, ip, r1, lsl #24
    3080:	1f5a0000 	svcne	0x005a0000
    3084:	75160000 	ldrvc	r0, [r6, #-0]
    3088:	683f0100 	ldmdavs	pc!, {r8}	; <UNPREDICTABLE>
    308c:	6d000000 	stcvs	0, cr0, [r0, #-0]
    3090:	1600001f 			; <UNDEFINED> instruction: 0x1600001f
    3094:	4001006e 	andmi	r0, r1, lr, rrx
    3098:	0000002c 	andeq	r0, r0, ip, lsr #32
    309c:	00001f80 	andeq	r1, r0, r0, lsl #31
    30a0:	01006316 	tsteq	r0, r6, lsl r3
    30a4:	00002c41 	andeq	r2, r0, r1, asr #24
    30a8:	001f9700 	andseq	r9, pc, r0, lsl #14
    30ac:	07281900 	streq	r1, [r8, -r0, lsl #18]!
    30b0:	95e80000 	strbls	r0, [r8, #0]!
    30b4:	00340000 	eorseq	r0, r4, r0
    30b8:	38010000 	stmdacc	r1, {}	; <UNPREDICTABLE>
    30bc:	0000083c 	andeq	r0, r0, ip, lsr r8
    30c0:	00074b1a 	andeq	r4, r7, sl, lsl fp
    30c4:	001fc100 	andseq	ip, pc, r0, lsl #2
    30c8:	07421c00 	strbeq	r1, [r2, -r0, lsl #24]
    30cc:	1b000000 	blne	30d4 <_start-0x4f2c>
    30d0:	00000738 	andeq	r0, r0, r8, lsr r7
    30d4:	e81d5501 	ldmda	sp, {r0, r8, sl, ip, lr}
    30d8:	34000095 	strcc	r0, [r0], #-149	; 0x95
    30dc:	1e000000 	cdpne	0, 0, cr0, cr0, cr0, {0}
    30e0:	00000756 	andeq	r0, r0, r6, asr r7
    30e4:	00001fdf 	ldrdeq	r1, [r0], -pc	; <UNPREDICTABLE>
    30e8:	0095ec24 	addseq	lr, r5, r4, lsr #24
    30ec:	00116f00 	andseq	r6, r1, r0, lsl #30
    30f0:	95f82500 	ldrbls	r2, [r8, #1280]!	; 0x500
    30f4:	117a0000 	cmnne	sl, r0
    30f8:	08310000 	ldmdaeq	r1!, {}	; <UNPREDICTABLE>
    30fc:	01200000 	teqeq	r0, r0
    3100:	00750250 	rsbseq	r0, r5, r0, asr r2
    3104:	96042400 	strls	r2, [r4], -r0, lsl #8
    3108:	116f0000 	cmnne	pc, r0
    310c:	00000000 	andeq	r0, r0, r0
    3110:	00962417 	addseq	r2, r6, r7, lsl r4
    3114:	00000400 	andeq	r0, r0, r0, lsl #8
    3118:	00085900 	andeq	r5, r8, r0, lsl #18
    311c:	025a2600 	subseq	r2, sl, #0, 12
    3120:	3c010000 	stccc	0, cr0, [r1], {-0}
    3124:	0000002c 	andeq	r0, r0, ip, lsr #32
    3128:	00001ffd 	strdeq	r1, [r0], -sp
    312c:	01111900 	tsteq	r1, r0, lsl #18
    3130:	96300000 	ldrtls	r0, [r0], -r0
    3134:	00100000 	andseq	r0, r0, r0
    3138:	44010000 	strmi	r0, [r1], #-0
    313c:	00000892 	muleq	r0, r2, r8
    3140:	0001281a 	andeq	r2, r1, sl, lsl r8
    3144:	00201000 	eoreq	r1, r0, r0
    3148:	011d1a00 	tsteq	sp, r0, lsl #20
    314c:	20350000 	eorscs	r0, r5, r0
    3150:	301d0000 	andscc	r0, sp, r0
    3154:	04000096 	streq	r0, [r0], #-150	; 0x96
    3158:	1e000000 	cdpne	0, 0, cr0, cr0, cr0, {0}
    315c:	00000132 	andeq	r0, r0, r2, lsr r1
    3160:	00002048 	andeq	r2, r0, r8, asr #32
    3164:	11190000 	tstne	r9, r0
    3168:	50000001 	andpl	r0, r0, r1
    316c:	10000096 	mulne	r0, r6, r0
    3170:	01000000 	mrseq	r0, (UNDEF: 0)
    3174:	0008cb48 	andeq	ip, r8, r8, asr #22
    3178:	01281a00 	teqeq	r8, r0, lsl #20
    317c:	205b0000 	subscs	r0, fp, r0
    3180:	1d1a0000 	ldcne	0, cr0, [sl, #-0]
    3184:	6e000001 	cdpvs	0, 0, cr0, cr0, cr1, {0}
    3188:	1d000020 	stcne	0, cr0, [r0, #-128]	; 0xffffff80
    318c:	00009650 	andeq	r9, r0, r0, asr r6
    3190:	00000004 	andeq	r0, r0, r4
    3194:	0001321e 	andeq	r3, r1, lr, lsl r2
    3198:	00208100 	eoreq	r8, r0, r0, lsl #2
    319c:	19000000 	stmdbne	r0, {}	; <UNPREDICTABLE>
    31a0:	00000111 	andeq	r0, r0, r1, lsl r1
    31a4:	00009674 	andeq	r9, r0, r4, ror r6
    31a8:	00000010 	andeq	r0, r0, r0, lsl r0
    31ac:	09044b01 	stmdbeq	r4, {r0, r8, r9, fp, lr}
    31b0:	281a0000 	ldmdacs	sl, {}	; <UNPREDICTABLE>
    31b4:	94000001 	strls	r0, [r0], #-1
    31b8:	1a000020 	bne	3240 <_start-0x4dc0>
    31bc:	0000011d 	andeq	r0, r0, sp, lsl r1
    31c0:	000020a7 	andeq	r2, r0, r7, lsr #1
    31c4:	0096741d 	addseq	r7, r6, sp, lsl r4
    31c8:	00000400 	andeq	r0, r0, r0, lsl #8
    31cc:	01321e00 	teqeq	r2, r0, lsl #28
    31d0:	20ba0000 	adcscs	r0, sl, r0
    31d4:	00000000 	andeq	r0, r0, r0
    31d8:	00011119 	andeq	r1, r1, r9, lsl r1
    31dc:	00969800 	addseq	r9, r6, r0, lsl #16
    31e0:	00001000 	andeq	r1, r0, r0
    31e4:	3d4e0100 	stfcce	f0, [lr, #-0]
    31e8:	1a000009 	bne	3214 <_start-0x4dec>
    31ec:	00000128 	andeq	r0, r0, r8, lsr #2
    31f0:	000020cd 	andeq	r2, r0, sp, asr #1
    31f4:	00011d1a 	andeq	r1, r1, sl, lsl sp
    31f8:	0020e000 	eoreq	lr, r0, r0
    31fc:	96981d00 	ldrls	r1, [r8], r0, lsl #26
    3200:	00040000 	andeq	r0, r4, r0
    3204:	321e0000 	andscc	r0, lr, #0
    3208:	f3000001 	vhadd.u8	d0, d0, d1
    320c:	00000020 	andeq	r0, r0, r0, lsr #32
    3210:	01111900 	tsteq	r1, r0, lsl #18
    3214:	96bc0000 	ldrtls	r0, [ip], r0
    3218:	00100000 	andseq	r0, r0, r0
    321c:	51010000 	mrspl	r0, (UNDEF: 1)
    3220:	00000976 	andeq	r0, r0, r6, ror r9
    3224:	0001281a 	andeq	r2, r1, sl, lsl r8
    3228:	00210600 	eoreq	r0, r1, r0, lsl #12
    322c:	011d1a00 	tsteq	sp, r0, lsl #20
    3230:	21190000 	tstcs	r9, r0
    3234:	bc1d0000 	ldclt	0, cr0, [sp], {-0}
    3238:	04000096 	streq	r0, [r0], #-150	; 0x96
    323c:	1e000000 	cdpne	0, 0, cr0, cr0, cr0, {0}
    3240:	00000132 	andeq	r0, r0, r2, lsr r1
    3244:	0000212c 	andeq	r2, r0, ip, lsr #2
    3248:	11190000 	tstne	r9, r0
    324c:	e0000001 	and	r0, r0, r1
    3250:	10000096 	mulne	r0, r6, r0
    3254:	01000000 	mrseq	r0, (UNDEF: 0)
    3258:	0009af54 	andeq	sl, r9, r4, asr pc
    325c:	01281a00 	teqeq	r8, r0, lsl #20
    3260:	213f0000 	teqcs	pc, r0
    3264:	1d1a0000 	ldcne	0, cr0, [sl, #-0]
    3268:	52000001 	andpl	r0, r0, #1
    326c:	1d000021 	stcne	0, cr0, [r0, #-132]	; 0xffffff7c
    3270:	000096e0 	andeq	r9, r0, r0, ror #13
    3274:	00000004 	andeq	r0, r0, r4
    3278:	0001321e 	andeq	r3, r1, lr, lsl r2
    327c:	00216500 	eoreq	r6, r1, r0, lsl #10
    3280:	19000000 	stmdbne	r0, {}	; <UNPREDICTABLE>
    3284:	00000111 	andeq	r0, r0, r1, lsl r1
    3288:	00009704 	andeq	r9, r0, r4, lsl #14
    328c:	00000010 	andeq	r0, r0, r0, lsl r0
    3290:	09e85701 	stmibeq	r8!, {r0, r8, r9, sl, ip, lr}^
    3294:	281a0000 	ldmdacs	sl, {}	; <UNPREDICTABLE>
    3298:	78000001 	stmdavc	r0, {r0}
    329c:	1a000021 	bne	3328 <_start-0x4cd8>
    32a0:	0000011d 	andeq	r0, r0, sp, lsl r1
    32a4:	0000218b 	andeq	r2, r0, fp, lsl #3
    32a8:	0097041d 	addseq	r0, r7, sp, lsl r4
    32ac:	00000400 	andeq	r0, r0, r0, lsl #8
    32b0:	01321e00 	teqeq	r2, r0, lsl #28
    32b4:	219e0000 	orrscs	r0, lr, r0
    32b8:	00000000 	andeq	r0, r0, r0
    32bc:	00011119 	andeq	r1, r1, r9, lsl r1
    32c0:	00972800 	addseq	r2, r7, r0, lsl #16
    32c4:	00001000 	andeq	r1, r0, r0
    32c8:	1d5a0100 	ldfnee	f0, [sl, #-0]
    32cc:	1a00000a 	bne	32fc <_start-0x4d04>
    32d0:	00000128 	andeq	r0, r0, r8, lsr #2
    32d4:	000021b1 			; <UNDEFINED> instruction: 0x000021b1
    32d8:	00011d27 	andeq	r1, r1, r7, lsr #26
    32dc:	97281d00 	strls	r1, [r8, -r0, lsl #26]!
    32e0:	00040000 	andeq	r0, r4, r0
    32e4:	321e0000 	andscc	r0, lr, #0
    32e8:	c4000001 	strgt	r0, [r0], #-1
    32ec:	00000021 	andeq	r0, r0, r1, lsr #32
    32f0:	07281900 	streq	r1, [r8, -r0, lsl #18]!
    32f4:	97480000 	strbls	r0, [r8, -r0]
    32f8:	00340000 	eorseq	r0, r4, r0
    32fc:	61010000 	mrsvs	r0, (UNDEF: 1)
    3300:	00000a81 	andeq	r0, r0, r1, lsl #21
    3304:	00074b27 	andeq	r4, r7, r7, lsr #22
    3308:	07421a00 	strbeq	r1, [r2, -r0, lsl #20]
    330c:	21d70000 	bicscs	r0, r7, r0
    3310:	381a0000 	ldmdacc	sl, {}	; <UNPREDICTABLE>
    3314:	f7000007 			; <UNDEFINED> instruction: 0xf7000007
    3318:	1d000021 	stcne	0, cr0, [r0, #-132]	; 0xffffff7c
    331c:	00009748 	andeq	r9, r0, r8, asr #14
    3320:	00000034 	andeq	r0, r0, r4, lsr r0
    3324:	0007561e 	andeq	r5, r7, lr, lsl r6
    3328:	00221500 	eoreq	r1, r2, r0, lsl #10
    332c:	974c2400 	strbls	r2, [ip, -r0, lsl #8]
    3330:	116f0000 	cmnne	pc, r0
    3334:	58250000 	stmdapl	r5!, {}	; <UNPREDICTABLE>
    3338:	7a000097 	bvc	359c <_start-0x4a64>
    333c:	76000011 			; <UNDEFINED> instruction: 0x76000011
    3340:	2000000a 	andcs	r0, r0, sl
    3344:	75025001 	strvc	r5, [r2, #-1]
    3348:	64240000 	strtvs	r0, [r4], #-0
    334c:	6f000097 	svcvs	0x00000097
    3350:	00000011 	andeq	r0, r0, r1, lsl r0
    3354:	964c2500 	strbls	r2, [ip], -r0, lsl #10
    3358:	117a0000 	cmnne	sl, r0
    335c:	0a950000 	beq	fe543364 <__bss_end__+0xfe538a2c>
    3360:	01200000 	teqeq	r0, r0
    3364:	00750250 	rsbseq	r0, r5, r0, asr r2
    3368:	966c2500 	strbtls	r2, [ip], -r0, lsl #10
    336c:	117a0000 	cmnne	sl, r0
    3370:	0aa90000 	beq	fea43378 <__bss_end__+0xfea38a40>
    3374:	01200000 	teqeq	r0, r0
    3378:	00750250 	rsbseq	r0, r5, r0, asr r2
    337c:	96902500 	ldrls	r2, [r0], r0, lsl #10
    3380:	117a0000 	cmnne	sl, r0
    3384:	0abd0000 	beq	fef4338c <__bss_end__+0xfef38a54>
    3388:	01200000 	teqeq	r0, r0
    338c:	00750250 	rsbseq	r0, r5, r0, asr r2
    3390:	96b42500 	ldrtls	r2, [r4], r0, lsl #10
    3394:	117a0000 	cmnne	sl, r0
    3398:	0ad10000 	beq	ff4433a0 <__bss_end__+0xff438a68>
    339c:	01200000 	teqeq	r0, r0
    33a0:	00750250 	rsbseq	r0, r5, r0, asr r2
    33a4:	96d82500 	ldrbls	r2, [r8], r0, lsl #10
    33a8:	117a0000 	cmnne	sl, r0
    33ac:	0ae50000 	beq	ff9433b4 <__bss_end__+0xff938a7c>
    33b0:	01200000 	teqeq	r0, r0
    33b4:	00750250 	rsbseq	r0, r5, r0, asr r2
    33b8:	96fc2500 	ldrbtls	r2, [ip], r0, lsl #10
    33bc:	117a0000 	cmnne	sl, r0
    33c0:	0af90000 	beq	ffe433c8 <__bss_end__+0xffe38a90>
    33c4:	01200000 	teqeq	r0, r0
    33c8:	00750250 	rsbseq	r0, r5, r0, asr r2
    33cc:	97202500 	strls	r2, [r0, -r0, lsl #10]!
    33d0:	117a0000 	cmnne	sl, r0
    33d4:	0b0d0000 	bleq	3433dc <__bss_end__+0x338aa4>
    33d8:	01200000 	teqeq	r0, r0
    33dc:	00750250 	rsbseq	r0, r5, r0, asr r2
    33e0:	97401f00 	strbls	r1, [r0, -r0, lsl #30]
    33e4:	117a0000 	cmnne	sl, r0
    33e8:	01200000 	teqeq	r0, r0
    33ec:	00750250 	rsbseq	r0, r5, r0, asr r2
    33f0:	34230000 	strtcc	r0, [r3], #-0
    33f4:	01000009 	tsteq	r0, r9
    33f8:	0000256c 	andeq	r2, r0, ip, ror #10
    33fc:	00979c00 	addseq	r9, r7, r0, lsl #24
    3400:	0000a400 	andeq	sl, r0, r0, lsl #8
    3404:	0c9c0100 	ldfeqs	f0, [ip], {0}
    3408:	1400000c 	strne	r0, [r0], #-12
    340c:	6c010075 	stcvs	0, cr0, [r1], {117}	; 0x75
    3410:	00000722 	andeq	r0, r0, r2, lsr #14
    3414:	00002233 	andeq	r2, r0, r3, lsr r2
    3418:	66756214 			; <UNDEFINED> instruction: 0x66756214
    341c:	0c6c0100 	stfeqe	f0, [ip], #-0
    3420:	7500000c 	strvc	r0, [r0, #-12]
    3424:	13000022 	movwne	r0, #34	; 0x22
    3428:	000009c6 	andeq	r0, r0, r6, asr #19
    342c:	00686c01 	rsbeq	r6, r8, r1, lsl #24
    3430:	22b70000 	adcscs	r0, r7, #0
    3434:	65140000 	ldrvs	r0, [r4, #-0]
    3438:	0100646e 	tsteq	r0, lr, ror #8
    343c:	00004f6c 	andeq	r4, r0, ip, ror #30
    3440:	0022fe00 	eoreq	pc, r2, r0, lsl #28
    3444:	09cd2800 	stmibeq	sp, {fp, sp}^
    3448:	6c010000 	stcvs	0, cr0, [r1], {-0}
    344c:	00000068 	andeq	r0, r0, r8, rrx
    3450:	29009102 	stmdbcs	r0, {r1, r8, ip, pc}
    3454:	0000017b 	andeq	r0, r0, fp, ror r1
    3458:	00000c22 	andeq	r0, r0, r2, lsr #24
    345c:	a22c0305 	eorge	r0, ip, #335544320	; 0x14000000
    3460:	69160000 	ldmdbvs	r6, {}	; <UNPREDICTABLE>
    3464:	25700100 	ldrbcs	r0, [r0, #-256]!	; 0x100
    3468:	38000000 	stmdacc	r0, {}	; <UNPREDICTABLE>
    346c:	26000023 	strcs	r0, [r0], -r3, lsr #32
    3470:	000009a9 	andeq	r0, r0, r9, lsr #19
    3474:	004f7101 	subeq	r7, pc, r1, lsl #2
    3478:	23620000 	cmncs	r2, #0
    347c:	c0240000 	eorgt	r0, r4, r0
    3480:	8f000097 	svchi	0x00000097
    3484:	25000011 	strcs	r0, [r0, #-17]
    3488:	000097dc 	ldrdeq	r9, [r0], -ip
    348c:	00001196 	muleq	r0, r6, r1
    3490:	00000bec 	andeq	r0, r0, ip, ror #23
    3494:	02530120 	subseq	r0, r3, #32, 2
    3498:	01206d08 	teqeq	r0, r8, lsl #26
    349c:	2c030552 	cfstr32cs	mvfx0, [r3], {82}	; 0x52
    34a0:	200000a2 	andcs	r0, r0, r2, lsr #1
    34a4:	03055101 	movweq	r5, #20737	; 0x5101
    34a8:	0000a2a4 	andeq	sl, r0, r4, lsr #5
    34ac:	05500120 	ldrbeq	r0, [r0, #-288]	; 0x120
    34b0:	00a12c03 	adceq	r2, r1, r3, lsl #24
    34b4:	7d022000 	stcvc	0, cr2, [r2, #-0]
    34b8:	b8030500 	stmdalt	r3, {r8, sl}
    34bc:	000000a2 	andeq	r0, r0, r2, lsr #1
    34c0:	0097e024 	addseq	lr, r7, r4, lsr #32
    34c4:	0011ac00 	andseq	sl, r1, r0, lsl #24
    34c8:	97fc1f00 	ldrbls	r1, [ip, r0, lsl #30]!
    34cc:	07620000 	strbeq	r0, [r2, -r0]!
    34d0:	01200000 	teqeq	r0, r0
    34d4:	007a0251 	rsbseq	r0, sl, r1, asr r2
    34d8:	02500120 	subseq	r0, r0, #32, 2
    34dc:	00000078 	andeq	r0, r0, r8, ror r0
    34e0:	004f0406 	subeq	r0, pc, r6, lsl #8
    34e4:	902a0000 	eorls	r0, sl, r0
    34e8:	22000000 	andcs	r0, r0, #0
    34ec:	2b00000c 	blcs	3524 <_start-0x4adc>
    34f0:	00000081 	andeq	r0, r0, r1, lsl #1
    34f4:	12070012 	andne	r0, r7, #18
    34f8:	2300000c 	movwcs	r0, #12
    34fc:	000009b1 			; <UNDEFINED> instruction: 0x000009b1
    3500:	00258001 	eoreq	r8, r5, r1
    3504:	98400000 	stmdals	r0, {}^	; <UNPREDICTABLE>
    3508:	00900000 	addseq	r0, r0, r0
    350c:	9c010000 	stcls	0, cr0, [r1], {-0}
    3510:	00000cf8 	strdeq	r0, [r0], -r8
    3514:	01007514 	tsteq	r0, r4, lsl r5
    3518:	00072280 	andeq	r2, r7, r0, lsl #5
    351c:	00237500 	eoreq	r7, r3, r0, lsl #10
    3520:	75621400 	strbvc	r1, [r2, #-1024]!	; 0x400
    3524:	80010066 	andhi	r0, r1, r6, rrx
    3528:	00000c0c 	andeq	r0, r0, ip, lsl #24
    352c:	000023b7 			; <UNDEFINED> instruction: 0x000023b7
    3530:	0009c613 	andeq	ip, r9, r3, lsl r6
    3534:	68810100 	stmvs	r1, {r8}
    3538:	f9000000 			; <UNDEFINED> instruction: 0xf9000000
    353c:	13000023 	movwne	r0, #35	; 0x23
    3540:	000009cd 	andeq	r0, r0, sp, asr #19
    3544:	00688101 	rsbeq	r8, r8, r1, lsl #2
    3548:	24400000 	strbcs	r0, [r0], #-0
    354c:	7b290000 	blvc	a43554 <__bss_end__+0xa38c1c>
    3550:	08000001 	stmdaeq	r0, {r0}
    3554:	0500000d 	streq	r0, [r0, #-13]
    3558:	00a24003 	adceq	r4, r2, r3
    355c:	00691600 	rsbeq	r1, r9, r0, lsl #12
    3560:	00258601 	eoreq	r8, r5, r1, lsl #12
    3564:	24820000 	strcs	r0, [r2], #0
    3568:	60240000 	eorvs	r0, r4, r0
    356c:	8f000098 	svchi	0x00000098
    3570:	25000011 	strcs	r0, [r0, #-17]
    3574:	0000987c 	andeq	r9, r0, ip, ror r8
    3578:	00001196 	muleq	r0, r6, r1
    357c:	00000cd8 	ldrdeq	r0, [r0], -r8
    3580:	02530120 	subseq	r0, r3, #32, 2
    3584:	01208308 	teqeq	r0, r8, lsl #6
    3588:	40030552 	andmi	r0, r3, r2, asr r5
    358c:	200000a2 	andcs	r0, r0, r2, lsr #1
    3590:	03055101 	movweq	r5, #20737	; 0x5101
    3594:	0000a2a4 	andeq	sl, r0, r4, lsr #5
    3598:	05500120 	ldrbeq	r0, [r0, #-288]	; 0x120
    359c:	00a12c03 	adceq	r2, r1, r3, lsl #24
    35a0:	7d022000 	stcvc	0, cr2, [r2, #-0]
    35a4:	b8030500 	stmdalt	r3, {r8, sl}
    35a8:	000000a2 	andeq	r0, r0, r2, lsr #1
    35ac:	00988024 	addseq	r8, r8, r4, lsr #32
    35b0:	0011ac00 	andseq	sl, r1, r0, lsl #24
    35b4:	989c1f00 	ldmls	ip, {r8, r9, sl, fp, ip}
    35b8:	07620000 	strbeq	r0, [r2, -r0]!
    35bc:	01200000 	teqeq	r0, r0
    35c0:	00780251 	rsbseq	r0, r8, r1, asr r2
    35c4:	02500120 	subseq	r0, r0, #32, 2
    35c8:	00000077 	andeq	r0, r0, r7, ror r0
    35cc:	0000902a 	andeq	r9, r0, sl, lsr #32
    35d0:	000d0800 	andeq	r0, sp, r0, lsl #16
    35d4:	00812b00 	addeq	r2, r1, r0, lsl #22
    35d8:	00140000 	andseq	r0, r4, r0
    35dc:	000cf807 	andeq	pc, ip, r7, lsl #16
    35e0:	096a2300 	stmdbeq	sl!, {r8, r9, sp}^
    35e4:	93010000 	movwls	r0, #4096	; 0x1000
    35e8:	000000d9 	ldrdeq	r0, [r0], -r9
    35ec:	000098d0 	ldrdeq	r9, [r0], -r0
    35f0:	000000d4 	ldrdeq	r0, [r0], -r4
    35f4:	0e329c01 	cdpeq	12, 3, cr9, cr2, cr1, {0}
    35f8:	74140000 	ldrvc	r0, [r4], #-0
    35fc:	93010078 	movwls	r0, #4216	; 0x1078
    3600:	0000004f 	andeq	r0, r0, pc, asr #32
    3604:	000024ac 	andeq	r2, r0, ip, lsr #9
    3608:	00787214 	rsbseq	r7, r8, r4, lsl r2
    360c:	004f9301 	subeq	r9, pc, r1, lsl #6
    3610:	24cd0000 	strbcs	r0, [sp], #0
    3614:	32130000 	andscc	r0, r3, #0
    3618:	01000006 	tsteq	r0, r6
    361c:	00006893 	muleq	r0, r3, r8
    3620:	0024ee00 	eoreq	lr, r4, r0, lsl #28
    3624:	09032800 	stmdbeq	r3, {fp, sp}
    3628:	93010000 	movwls	r0, #4096	; 0x1000
    362c:	00000068 	andeq	r0, r0, r8, rrx
    3630:	2c009102 	stfcsd	f1, [r0], {2}
    3634:	007a686d 	rsbseq	r6, sl, sp, ror #16
    3638:	002c9b01 	eoreq	r9, ip, r1, lsl #22
    363c:	27000000 	strcs	r0, [r0, -r0]
    3640:	542629b9 	strtpl	r2, [r6], #-2489	; 0x9b9
    3644:	01000009 	tsteq	r0, r9
    3648:	00002c9c 	muleq	r0, ip, ip
    364c:	00251800 	eoreq	r1, r5, r0, lsl #16
    3650:	017b2900 	cmneq	fp, r0, lsl #18
    3654:	0e420000 	cdpeq	0, 4, cr0, cr2, cr0, {0}
    3658:	03050000 	movweq	r0, #20480	; 0x5000
    365c:	0000a258 	andeq	sl, r0, r8, asr r2
    3660:	0098fc17 	addseq	pc, r8, r7, lsl ip	; <UNPREDICTABLE>
    3664:	00000800 	andeq	r0, r0, r0, lsl #16
    3668:	000da500 	andeq	sl, sp, r0, lsl #10
    366c:	6e692d00 	cdpvs	13, 6, cr2, cr9, cr0, {0}
    3670:	2c970100 	ldfcss	f0, [r7], {0}
    3674:	01000000 	mrseq	r0, (UNDEF: 0)
    3678:	98f42500 	ldmls	r4!, {r8, sl, sp}^
    367c:	11b30000 			; <UNDEFINED> instruction: 0x11b30000
    3680:	0db90000 	ldceq	0, cr0, [r9]
    3684:	01200000 	teqeq	r0, r0
    3688:	00760250 	rsbseq	r0, r6, r0, asr r2
    368c:	98fc2500 	ldmls	ip!, {r8, sl, sp}^
    3690:	11c40000 	bicne	r0, r4, r0
    3694:	0dcd0000 	stcleq	0, cr0, [sp]
    3698:	01200000 	teqeq	r0, r0
    369c:	00780250 	rsbseq	r0, r8, r0, asr r2
    36a0:	99102500 	ldmdbls	r0, {r8, sl, sp}
    36a4:	11590000 	cmpne	r9, r0
    36a8:	0de60000 	stcleq	0, cr0, [r6]
    36ac:	01200000 	teqeq	r0, r0
    36b0:	20310151 	eorscs	r0, r1, r1, asr r1
    36b4:	76025001 	strvc	r5, [r2], -r1
    36b8:	54240000 	strtpl	r0, [r4], #-0
    36bc:	8f000099 	svchi	0x00000099
    36c0:	25000011 	strcs	r0, [r0, #-17]
    36c4:	00009970 	andeq	r9, r0, r0, ror r9
    36c8:	00001196 	muleq	r0, r6, r1
    36cc:	00000e28 	andeq	r0, r0, r8, lsr #28
    36d0:	02530120 	subseq	r0, r3, #32, 2
    36d4:	01209d08 	teqeq	r0, r8, lsl #26
    36d8:	58030552 	stmdapl	r3, {r1, r4, r6, r8, sl}
    36dc:	200000a2 	andcs	r0, r0, r2, lsr #1
    36e0:	03055101 	movweq	r5, #20737	; 0x5101
    36e4:	0000a2a4 	andeq	sl, r0, r4, lsr #5
    36e8:	05500120 	ldrbeq	r0, [r0, #-288]	; 0x120
    36ec:	00a12c03 	adceq	r2, r1, r3, lsl #24
    36f0:	7d022000 	stcvc	0, cr2, [r2, #-0]
    36f4:	c4030500 	strgt	r0, [r3], #-1280	; 0x500
    36f8:	000000a2 	andeq	r0, r0, r2, lsr #1
    36fc:	00997424 	addseq	r7, r9, r4, lsr #8
    3700:	0011ac00 	andseq	sl, r1, r0, lsl #24
    3704:	902a0000 	eorls	r0, sl, r0
    3708:	42000000 	andmi	r0, r0, #0
    370c:	2b00000e 	blcs	374c <_start-0x48b4>
    3710:	00000081 	andeq	r0, r0, r1, lsl #1
    3714:	32070013 	andcc	r0, r7, #19
    3718:	2300000e 	movwcs	r0, #14
    371c:	00000947 	andeq	r0, r0, r7, asr #18
    3720:	0025a901 	eoreq	sl, r5, r1, lsl #18
    3724:	99a40000 	stmibls	r4!, {}	; <UNPREDICTABLE>
    3728:	003c0000 	eorseq	r0, ip, r0
    372c:	9c010000 	stcls	0, cr0, [r1], {-0}
    3730:	00000eea 	andeq	r0, r0, sl, ror #29
    3734:	0005f913 	andeq	pc, r5, r3, lsl r9	; <UNPREDICTABLE>
    3738:	22a90100 	adccs	r0, r9, #0, 2
    373c:	46000007 	strmi	r0, [r0], -r7
    3740:	16000025 	strne	r0, [r0], -r5, lsr #32
    3744:	00736572 	rsbseq	r6, r3, r2, ror r5
    3748:	0025aa01 	eoreq	sl, r5, r1, lsl #20
    374c:	25670000 	strbcs	r0, [r7, #-0]!
    3750:	7b290000 	blvc	a43758 <__bss_end__+0xa38e20>
    3754:	fa000001 	blx	3760 <_start-0x48a0>
    3758:	0500000e 	streq	r0, [r0, #-14]
    375c:	00a26c03 	adceq	r6, r2, r3, lsl #24
    3760:	99b02500 	ldmibls	r0!, {r8, sl, sp}
    3764:	07620000 	strbeq	r0, [r2, -r0]!
    3768:	0ea80000 	cdpeq	0, 10, cr0, cr8, cr0, {0}
    376c:	01200000 	teqeq	r0, r0
    3770:	ff090251 			; <UNDEFINED> instruction: 0xff090251
    3774:	03500120 	cmpeq	r0, #32, 2
    3778:	005001f3 	ldrsheq	r0, [r0], #-19	; 0xffffffed
    377c:	0099bc24 	addseq	fp, r9, r4, lsr #24
    3780:	00118f00 	andseq	r8, r1, r0, lsl #30
    3784:	99d02500 	ldmibls	r0, {r8, sl, sp}^
    3788:	11960000 	orrsne	r0, r6, r0
    378c:	0ee00000 	cdpeq	0, 14, cr0, cr0, cr0, {0}
    3790:	01200000 	teqeq	r0, r0
    3794:	ac080253 	sfmge	f0, 4, [r8], {83}	; 0x53
    3798:	05520120 	ldrbeq	r0, [r2, #-288]	; 0x120
    379c:	00a26c03 	adceq	r6, r2, r3, lsl #24
    37a0:	51012000 	mrspl	r2, (UNDEF: 1)
    37a4:	a2a40305 	adcge	r0, r4, #335544320	; 0x14000000
    37a8:	01200000 	teqeq	r0, r0
    37ac:	f8030550 			; <UNDEFINED> instruction: 0xf8030550
    37b0:	000000a2 	andeq	r0, r0, r2, lsr #1
    37b4:	0099d424 	addseq	sp, r9, r4, lsr #8
    37b8:	0011ac00 	andseq	sl, r1, r0, lsl #24
    37bc:	902a0000 	eorls	r0, sl, r0
    37c0:	fa000000 	blx	37c8 <_start-0x4838>
    37c4:	2b00000e 	blcs	3804 <_start-0x47fc>
    37c8:	00000081 	andeq	r0, r0, r1, lsl #1
    37cc:	ea07000c 	b	1c3804 <__bss_end__+0x1b8ecc>
    37d0:	1200000e 	andne	r0, r0, #14
    37d4:	0000098b 	andeq	r0, r0, fp, lsl #19
    37d8:	99e0b001 	stmibls	r0!, {r0, ip, sp, pc}^
    37dc:	002c0000 	eoreq	r0, ip, r0
    37e0:	9c010000 	stcls	0, cr0, [r1], {-0}
    37e4:	00000f43 	andeq	r0, r0, r3, asr #30
    37e8:	0005f913 	andeq	pc, r5, r3, lsl r9	; <UNPREDICTABLE>
    37ec:	22b00100 	adcscs	r0, r0, #0, 2
    37f0:	7a000007 	bvc	3814 <_start-0x47ec>
    37f4:	14000025 	strne	r0, [r0], #-37	; 0x25
    37f8:	0067736d 	rsbeq	r7, r7, sp, ror #6
    37fc:	0097b001 	addseq	fp, r7, r1
    3800:	25980000 	ldrcs	r0, [r8]
    3804:	f81f0000 			; <UNDEFINED> instruction: 0xf81f0000
    3808:	76000099 			; <UNDEFINED> instruction: 0x76000099
    380c:	20000001 	andcs	r0, r0, r1
    3810:	75025001 	strvc	r5, [r2, #-1]
    3814:	23000000 	movwcs	r0, #0
    3818:	000005fe 	strdeq	r0, [r0], -lr
    381c:	0025b901 	eoreq	fp, r5, r1, lsl #18
    3820:	9a0c0000 	bls	303828 <__bss_end__+0x2f8ef0>
    3824:	00900000 	addseq	r0, r0, r0
    3828:	9c010000 	stcls	0, cr0, [r1], {-0}
    382c:	00001041 	andeq	r1, r0, r1, asr #32
    3830:	0005f913 	andeq	pc, r5, r3, lsl r9	; <UNPREDICTABLE>
    3834:	22b90100 	adcscs	r0, r9, #0, 2
    3838:	b6000007 	strlt	r0, [r0], -r7
    383c:	2e000025 	cdpcs	0, 0, cr0, cr0, cr5, {1}
    3840:	00746d66 	rsbseq	r6, r4, r6, ror #26
    3844:	0097b901 	addseq	fp, r7, r1, lsl #18
    3848:	91020000 	mrsls	r0, (UNDEF: 2)
    384c:	62152f74 	andsvs	r2, r5, #116, 30	; 0x1d0
    3850:	01006675 	tsteq	r0, r5, ror r6
    3854:	001041ba 			; <UNDEFINED> instruction: 0x001041ba
    3858:	9c910300 	ldcls	3, cr0, [r1], {0}
    385c:	04b7187c 	ldrteq	r1, [r7], #2172	; 0x87c
    3860:	bc010000 	stclt	0, cr0, [r1], {-0}
    3864:	00000106 	andeq	r0, r0, r6, lsl #2
    3868:	7c989103 	ldfvcd	f1, [r8], {3}
    386c:	007a7316 	rsbseq	r7, sl, r6, lsl r3
    3870:	0025be01 	eoreq	fp, r5, r1, lsl #28
    3874:	25e20000 	strbcs	r0, [r2, #0]!
    3878:	7b290000 	blvc	a43880 <__bss_end__+0xa38f48>
    387c:	62000001 	andvs	r0, r0, #1
    3880:	05000010 	streq	r0, [r0, #-16]
    3884:	00a27c03 	adceq	r7, r2, r3, lsl #24
    3888:	9a342500 	bls	d0cc90 <__bss_end__+0xd02358>
    388c:	11d50000 	bicsne	r0, r5, r0
    3890:	0fde0000 	svceq	0x00de0000
    3894:	01200000 	teqeq	r0, r0
    3898:	58910253 	ldmpl	r1, {r0, r1, r4, r6, r9}
    389c:	03520120 	cmpeq	r2, #32, 2
    38a0:	20065491 	mulcs	r6, r1, r4
    38a4:	0a035101 	beq	d7cb0 <__bss_end__+0xcd378>
    38a8:	012001cc 	smlawteq	r0, ip, r1, r0
    38ac:	fc910350 	ldc2	3, cr0, [r1], {80}	; 0x50
    38b0:	4824007b 	stmdami	r4!, {r0, r1, r3, r4, r5, r6}
    38b4:	8f00009a 	svchi	0x0000009a
    38b8:	25000011 	strcs	r0, [r0, #-17]
    38bc:	00009a64 	andeq	r9, r0, r4, ror #20
    38c0:	00001196 	muleq	r0, r6, r1
    38c4:	00001020 	andeq	r1, r0, r0, lsr #32
    38c8:	02530120 	subseq	r0, r3, #32, 2
    38cc:	0120c008 	teqeq	r0, r8
    38d0:	7c030552 	cfstr32vc	mvfx0, [r3], {82}	; 0x52
    38d4:	200000a2 	andcs	r0, r0, r2, lsr #1
    38d8:	03055101 	movweq	r5, #20737	; 0x5101
    38dc:	0000a2a4 	andeq	sl, r0, r4, lsr #5
    38e0:	05500120 	ldrbeq	r0, [r0, #-288]	; 0x120
    38e4:	00a12c03 	adceq	r2, r1, r3, lsl #24
    38e8:	7d022000 	stcvc	0, cr2, [r2, #-0]
    38ec:	30030500 	andcc	r0, r3, r0, lsl #10
    38f0:	000000a3 	andeq	r0, r0, r3, lsr #1
    38f4:	009a6824 	addseq	r6, sl, r4, lsr #16
    38f8:	0011ac00 	andseq	sl, r1, r0, lsl #24
    38fc:	9a741f00 	bls	1d0b504 <__bss_end__+0x1d00bcc>
    3900:	0eff0000 	cdpeq	0, 15, cr0, cr15, cr0, {0}
    3904:	01200000 	teqeq	r0, r0
    3908:	fc910351 	ldc2	3, cr0, [r1], {81}	; 0x51
    390c:	5001207b 	andpl	r2, r1, fp, ror r0
    3910:	00007502 	andeq	r7, r0, r2, lsl #10
    3914:	00902a00 	addseq	r2, r0, r0, lsl #20
    3918:	10520000 	subsne	r0, r2, r0
    391c:	81300000 	teqhi	r0, r0
    3920:	cb000000 	blgt	3928 <_start-0x46d8>
    3924:	902a0001 	eorls	r0, sl, r1
    3928:	62000000 	andvs	r0, r0, #0
    392c:	2b000010 	blcs	3974 <_start-0x468c>
    3930:	00000081 	andeq	r0, r0, r1, lsl #1
    3934:	5207000e 	andpl	r0, r7, #14
    3938:	23000010 	movwcs	r0, #16
    393c:	000009da 	ldrdeq	r0, [r0], -sl
    3940:	0025c501 	eoreq	ip, r5, r1, lsl #10
    3944:	9a9c0000 	bls	fe70394c <__bss_end__+0xfe6f9014>
    3948:	004c0000 	subeq	r0, ip, r0
    394c:	9c010000 	stcls	0, cr0, [r1], {-0}
    3950:	00001144 	andeq	r1, r0, r4, asr #2
    3954:	01007514 	tsteq	r0, r4, lsl r5
    3958:	000722c5 	andeq	r2, r7, r5, asr #5
    395c:	00262100 	eoreq	r2, r6, r0, lsl #2
    3960:	75621400 	strbvc	r1, [r2, #-1024]!	; 0x400
    3964:	c5010066 	strgt	r0, [r1, #-102]	; 0x66
    3968:	00000c0c 	andeq	r0, r0, ip, lsl #24
    396c:	00002642 	andeq	r2, r0, r2, asr #12
    3970:	0009c613 	andeq	ip, r9, r3, lsl r6
    3974:	68c50100 	stmiavs	r5, {r8}^
    3978:	63000000 	movwvs	r0, #0
    397c:	14000026 	strne	r0, [r0], #-38	; 0x26
    3980:	00646e65 	rsbeq	r6, r4, r5, ror #28
    3984:	004fc501 	subeq	ip, pc, r1, lsl #10
    3988:	26840000 	strcs	r0, [r4], r0
    398c:	72160000 	andsvc	r0, r6, #0
    3990:	01007365 	tsteq	r0, r5, ror #6
    3994:	000025c6 	andeq	r2, r0, r6, asr #11
    3998:	0026a500 	eoreq	sl, r6, r0, lsl #10
    399c:	017b2900 	cmneq	fp, r0, lsl #18
    39a0:	11540000 	cmpne	r4, r0
    39a4:	03050000 	movweq	r0, #20480	; 0x5000
    39a8:	0000a28c 	andeq	sl, r0, ip, lsl #5
    39ac:	009ab025 	addseq	fp, sl, r5, lsr #32
    39b0:	000b1e00 	andeq	r1, fp, r0, lsl #28
    39b4:	00110200 	andseq	r0, r1, r0, lsl #4
    39b8:	52012000 	andpl	r2, r1, #0
    39bc:	5201f303 	andpl	pc, r1, #201326592	; 0xc000000
    39c0:	03510120 	cmpeq	r1, #32, 2
    39c4:	205101f3 	ldrshcs	r0, [r1], #-19	; 0xffffffed
    39c8:	f3035001 	vhadd.u8	d5, d3, d1
    39cc:	02205001 	eoreq	r5, r0, #1
    39d0:	0902007d 	stmdbeq	r2, {r0, r2, r3, r4, r5, r6}
    39d4:	bc2400ff 	stclt	0, cr0, [r4], #-1020	; 0xfffffc04
    39d8:	8f00009a 	svchi	0x0000009a
    39dc:	25000011 	strcs	r0, [r0, #-17]
    39e0:	00009ad0 	ldrdeq	r9, [r0], -r0
    39e4:	00001196 	muleq	r0, r6, r1
    39e8:	0000113a 	andeq	r1, r0, sl, lsr r1
    39ec:	02530120 	subseq	r0, r3, #32, 2
    39f0:	0120c808 	teqeq	r0, r8, lsl #16
    39f4:	8c030552 	cfstr32hi	mvfx0, [r3], {82}	; 0x52
    39f8:	200000a2 	andcs	r0, r0, r2, lsr #1
    39fc:	03055101 	movweq	r5, #20737	; 0x5101
    3a00:	0000a2a4 	andeq	sl, r0, r4, lsr #5
    3a04:	05500120 	ldrbeq	r0, [r0, #-288]	; 0x120
    3a08:	00a2f803 	adceq	pc, r2, r3, lsl #16
    3a0c:	d4240000 	strtle	r0, [r4], #-0
    3a10:	ac00009a 	stcge	0, cr0, [r0], {154}	; 0x9a
    3a14:	00000011 	andeq	r0, r0, r1, lsl r0
    3a18:	0000902a 	andeq	r9, r0, sl, lsr #32
    3a1c:	00115400 	andseq	r5, r1, r0, lsl #8
    3a20:	00812b00 	addeq	r2, r1, r0, lsl #22
    3a24:	00160000 	andseq	r0, r6, r0
    3a28:	00114407 	andseq	r4, r1, r7, lsl #8
    3a2c:	003c3100 	eorseq	r3, ip, r0, lsl #2
    3a30:	21060000 	mrscs	r0, (UNDEF: 6)
    3a34:	0000116f 	andeq	r1, r0, pc, ror #2
    3a38:	00002c32 	andeq	r2, r0, r2, lsr ip
    3a3c:	002c3200 	eoreq	r3, ip, r0, lsl #4
    3a40:	33000000 	movwcc	r0, #0
    3a44:	00000733 	andeq	r0, r0, r3, lsr r7
    3a48:	002c5707 	eoreq	r5, ip, r7, lsl #14
    3a4c:	12340000 	eorsne	r0, r4, #0
    3a50:	06000002 	streq	r0, [r0], -r2
    3a54:	00002524 	andeq	r2, r0, r4, lsr #10
    3a58:	00118f00 	andseq	r8, r1, r0, lsl #30
    3a5c:	002c3200 	eoreq	r3, ip, r0, lsl #4
    3a60:	35000000 	strcc	r0, [r0, #-0]
    3a64:	00000128 	andeq	r0, r0, r8, lsr #2
    3a68:	62341e07 	eorsvs	r1, r4, #7, 28	; 0x70
    3a6c:	07000004 	streq	r0, [r0, -r4]
    3a70:	00002529 	andeq	r2, r0, r9, lsr #10
    3a74:	0011ac00 	andseq	sl, r1, r0, lsl #24
    3a78:	00973200 	addseq	r3, r7, r0, lsl #4
    3a7c:	002f0000 	eoreq	r0, pc, r0
    3a80:	00021c35 	andeq	r1, r2, r5, lsr ip
    3a84:	31660700 	cmncc	r6, r0, lsl #14
    3a88:	000003aa 	andeq	r0, r0, sl, lsr #7
    3a8c:	11c41d06 	bicne	r1, r4, r6, lsl #26
    3a90:	2c320000 	ldccs	0, cr0, [r2], #-0
    3a94:	00000000 	andeq	r0, r0, r0
    3a98:	00034131 	andeq	r4, r3, r1, lsr r1
    3a9c:	d51c0600 	ldrle	r0, [ip, #-1536]	; 0x600
    3aa0:	32000011 	andcc	r0, r0, #17
    3aa4:	0000002c 	andeq	r0, r0, ip, lsr #32
    3aa8:	045f3600 	ldrbeq	r3, [pc], #-1536	; 3ab0 <_start-0x4550>
    3aac:	02080000 	andeq	r0, r8, #0
    3ab0:	00000025 	andeq	r0, r0, r5, lsr #32
    3ab4:	00008a32 	andeq	r8, r0, r2, lsr sl
    3ab8:	00253200 	eoreq	r3, r5, r0, lsl #4
    3abc:	97320000 	ldrls	r0, [r2, -r0]!
    3ac0:	32000000 	andcc	r0, r0, #0
    3ac4:	00000106 	andeq	r0, r0, r6, lsl #2
    3ac8:	03ff0000 	mvnseq	r0, #0
    3acc:	00040000 	andeq	r0, r4, r0
    3ad0:	00000ff8 	strdeq	r0, [r0], -r8
    3ad4:	02ea0104 	rsceq	r0, sl, #4, 2
    3ad8:	c8010000 	stmdagt	r1, {}	; <UNPREDICTABLE>
    3adc:	7300000a 	movwvc	r0, #10
    3ae0:	e8000004 	stmda	r0, {r2}
    3ae4:	5400009a 	strpl	r0, [r0], #-154	; 0x9a
    3ae8:	57000001 	strpl	r0, [r0, -r1]
    3aec:	0200000f 	andeq	r0, r0, #15
    3af0:	6e690504 	cdpvs	5, 6, cr0, cr9, cr4, {0}
    3af4:	04030074 	streq	r0, [r3], #-116	; 0x74
    3af8:	00006c07 	andeq	r6, r0, r7, lsl #24
    3afc:	06010300 	streq	r0, [r1], -r0, lsl #6
    3b00:	00000291 	muleq	r0, r1, r2
    3b04:	aa050203 	bge	144318 <__bss_end__+0x1399e0>
    3b08:	03000002 	movweq	r0, #2
    3b0c:	008f0504 	addeq	r0, pc, r4, lsl #10
    3b10:	08030000 	stmdaeq	r3, {}	; <UNPREDICTABLE>
    3b14:	00008a05 	andeq	r8, r0, r5, lsl #20
    3b18:	08010300 	stmdaeq	r1, {r8, r9}
    3b1c:	0000028f 	andeq	r0, r0, pc, lsl #5
    3b20:	88070203 	stmdahi	r7, {r0, r1, r9}
    3b24:	03000001 	movweq	r0, #1
    3b28:	00670704 	rsbeq	r0, r7, r4, lsl #14
    3b2c:	08030000 	stmdaeq	r3, {}	; <UNPREDICTABLE>
    3b30:	00006207 	andeq	r6, r0, r7, lsl #4
    3b34:	07040300 	streq	r0, [r4, -r0, lsl #6]
    3b38:	00000229 	andeq	r0, r0, r9, lsr #4
    3b3c:	98080103 	stmdals	r8, {r0, r1, r8}
    3b40:	04000002 	streq	r0, [r0], #-2
    3b44:	b20c0201 	andlt	r0, ip, #268435456	; 0x10000000
    3b48:	05000000 	streq	r0, [r0, #-0]
    3b4c:	000007bc 			; <UNDEFINED> instruction: 0x000007bc
    3b50:	087b0500 	ldmdaeq	fp!, {r8, sl}^
    3b54:	05010000 	streq	r0, [r1, #-0]
    3b58:	0000089e 	muleq	r0, lr, r8
    3b5c:	08ad0504 	stmiaeq	sp!, {r2, r8, sl}
    3b60:	05050000 	streq	r0, [r5, #-0]
    3b64:	000008bc 			; <UNDEFINED> instruction: 0x000008bc
    3b68:	08cb0506 	stmiaeq	fp, {r1, r2, r8, sl}^
    3b6c:	05070000 	streq	r0, [r7, #-0]
    3b70:	000008da 	ldrdeq	r0, [r0], -sl
    3b74:	08e90503 	stmiaeq	r9!, {r0, r1, r8, sl}^
    3b78:	00020000 	andeq	r0, r2, r0
    3b7c:	00089206 	andeq	r9, r8, r6, lsl #4
    3b80:	79150200 	ldmdbvc	r5, {r9}
    3b84:	07000000 	streq	r0, [r0, -r0]
    3b88:	00000058 	andeq	r0, r0, r8, asr r0
    3b8c:	9ae83701 	bls	ffa11798 <__bss_end__+0xffa06e60>
    3b90:	009c0000 	addseq	r0, ip, r0
    3b94:	9c010000 	stcls	0, cr0, [r1], {-0}
    3b98:	000001c3 	andeq	r0, r0, r3, asr #3
    3b9c:	009af008 	addseq	pc, sl, r8
    3ba0:	0003a800 	andeq	sl, r3, r0, lsl #16
    3ba4:	9afc0900 	bls	fff05fac <__bss_end__+0xffefb674>
    3ba8:	03af0000 			; <UNDEFINED> instruction: 0x03af0000
    3bac:	00f30000 	rscseq	r0, r3, r0
    3bb0:	010a0000 	mrseq	r0, (UNDEF: 10)
    3bb4:	0a320151 	beq	c84100 <__bss_end__+0xc797c8>
    3bb8:	3e015001 	cdpcc	0, 0, cr5, cr1, cr1, {0}
    3bbc:	9b080900 	blls	205fc4 <__bss_end__+0x1fb68c>
    3bc0:	03af0000 			; <UNDEFINED> instruction: 0x03af0000
    3bc4:	010b0000 	mrseq	r0, (UNDEF: 11)
    3bc8:	010a0000 	mrseq	r0, (UNDEF: 10)
    3bcc:	0a320151 	beq	c84118 <__bss_end__+0xc797e0>
    3bd0:	3f015001 	svccc	0x00015001
    3bd4:	9b0c0800 	blls	305bdc <__bss_end__+0x2fb2a4>
    3bd8:	03a80000 			; <UNDEFINED> instruction: 0x03a80000
    3bdc:	1c090000 	stcne	0, cr0, [r9], {-0}
    3be0:	c500009b 	strgt	r0, [r0, #-155]	; 0x9b
    3be4:	28000003 	stmdacs	r0, {r0, r1}
    3be8:	0a000001 	beq	3bf4 <_start-0x440c>
    3bec:	75025001 	strvc	r5, [r2, #-1]
    3bf0:	28090000 	stmdacs	r9, {}	; <UNPREDICTABLE>
    3bf4:	e600009b 			; <UNDEFINED> instruction: 0xe600009b
    3bf8:	3c000003 	stccc	0, cr0, [r0], {3}
    3bfc:	0a000001 	beq	3c08 <_start-0x43f8>
    3c00:	75025001 	strvc	r5, [r2, #-1]
    3c04:	2c080000 	stccs	0, cr0, [r8], {-0}
    3c08:	a800009b 	stmdage	r0, {r0, r1, r3, r4, r7}
    3c0c:	09000003 	stmdbeq	r0, {r0, r1}
    3c10:	00009b38 	andeq	r9, r0, r8, lsr fp
    3c14:	000003e6 	andeq	r0, r0, r6, ror #7
    3c18:	00000158 	andeq	r0, r0, r8, asr r1
    3c1c:	0151010a 	cmpeq	r1, sl, lsl #2
    3c20:	44090030 	strmi	r0, [r9], #-48	; 0x30
    3c24:	e600009b 			; <UNDEFINED> instruction: 0xe600009b
    3c28:	6b000003 	blvs	3c3c <_start-0x43c4>
    3c2c:	0a000001 	beq	3c38 <_start-0x43c8>
    3c30:	30015101 	andcc	r5, r1, r1, lsl #2
    3c34:	9b500900 	blls	140603c <__bss_end__+0x13fb704>
    3c38:	03e60000 	mvneq	r0, #0
    3c3c:	017e0000 	cmneq	lr, r0
    3c40:	010a0000 	mrseq	r0, (UNDEF: 10)
    3c44:	00360151 	eorseq	r0, r6, r1, asr r1
    3c48:	009b5c09 	addseq	r5, fp, r9, lsl #24
    3c4c:	0003e600 	andeq	lr, r3, r0, lsl #12
    3c50:	00019100 	andeq	r9, r1, r0, lsl #2
    3c54:	51010a00 	tstpl	r1, r0, lsl #20
    3c58:	09003301 	stmdbeq	r0, {r0, r8, r9, ip, sp}
    3c5c:	00009b68 	andeq	r9, r0, r8, ror #22
    3c60:	000003e6 	andeq	r0, r0, r6, ror #7
    3c64:	000001a6 	andeq	r0, r0, r6, lsr #3
    3c68:	0351010a 	cmpeq	r1, #-2147483646	; 0x80000002
    3c6c:	00010e0a 	andeq	r0, r1, sl, lsl #28
    3c70:	009b7409 	addseq	r7, fp, r9, lsl #8
    3c74:	0003e600 	andeq	lr, r3, r0, lsl #12
    3c78:	0001b900 	andeq	fp, r1, r0, lsl #18
    3c7c:	51010a00 	tstpl	r1, r0, lsl #20
    3c80:	08003301 	stmdaeq	r0, {r0, r8, r9, ip, sp}
    3c84:	00009b78 	andeq	r9, r0, r8, ror fp
    3c88:	000003a8 	andeq	r0, r0, r8, lsr #7
    3c8c:	0a2d0b00 	beq	b46894 <__bss_end__+0xb3bf5c>
    3c90:	57010000 	strpl	r0, [r1, -r0]
    3c94:	00000025 	andeq	r0, r0, r5, lsr #32
    3c98:	00009b84 	andeq	r9, r0, r4, lsl #23
    3c9c:	0000001c 	andeq	r0, r0, ip, lsl r0
    3ca0:	01e69c01 	mvneq	r9, r1, lsl #24
    3ca4:	94080000 	strls	r0, [r8], #-0
    3ca8:	c500009b 	strgt	r0, [r0, #-155]	; 0x9b
    3cac:	00000003 	andeq	r0, r0, r3
    3cb0:	00094a0b 	andeq	r4, r9, fp, lsl #20
    3cb4:	255d0100 	ldrbcs	r0, [sp, #-256]	; 0x100
    3cb8:	a0000000 	andge	r0, r0, r0
    3cbc:	2800009b 	stmdacs	r0, {r0, r1, r3, r4, r7}
    3cc0:	01000000 	mrseq	r0, (UNDEF: 0)
    3cc4:	0002129c 	muleq	r2, ip, r2
    3cc8:	9ba80800 	blls	fea05cd0 <__bss_end__+0xfe9fb398>
    3ccc:	01c30000 	biceq	r0, r3, r0
    3cd0:	bc080000 	stclt	0, cr0, [r8], {-0}
    3cd4:	c500009b 	strgt	r0, [r0, #-155]	; 0x9b
    3cd8:	00000003 	andeq	r0, r0, r3
    3cdc:	000a770b 	andeq	r7, sl, fp, lsl #14
    3ce0:	25640100 	strbcs	r0, [r4, #-256]!	; 0x100
    3ce4:	c8000000 	stmdagt	r0, {}	; <UNPREDICTABLE>
    3ce8:	1c00009b 	stcne	0, cr0, [r0], {155}	; 0x9b
    3cec:	01000000 	mrseq	r0, (UNDEF: 0)
    3cf0:	0002359c 	muleq	r2, ip, r5
    3cf4:	9bd80800 	blls	ff605cfc <__bss_end__+0xff5fb3c4>
    3cf8:	03c50000 	biceq	r0, r5, #0
    3cfc:	07000000 	streq	r0, [r0, -r0]
    3d00:	0000065a 	andeq	r0, r0, sl, asr r6
    3d04:	9be46a01 	blls	ff91e510 <__bss_end__+0xff913bd8>
    3d08:	002c0000 	eoreq	r0, ip, r0
    3d0c:	9c010000 	stcls	0, cr0, [r1], {-0}
    3d10:	00000271 	andeq	r0, r0, r1, ror r2
    3d14:	0100630c 	tsteq	r0, ip, lsl #6
    3d18:	00002c6a 	andeq	r2, r0, sl, ror #24
    3d1c:	0026c300 	eoreq	ip, r6, r0, lsl #6
    3d20:	9bf00800 	blls	ffc05d28 <__bss_end__+0xffbfb3f0>
    3d24:	02120000 	andseq	r0, r2, #0
    3d28:	080d0000 	stmdaeq	sp, {}	; <UNPREDICTABLE>
    3d2c:	e600009c 			; <UNDEFINED> instruction: 0xe600009c
    3d30:	0a000003 	beq	3d44 <_start-0x42bc>
    3d34:	74025101 	strvc	r5, [r2], #-257	; 0x101
    3d38:	0b000000 	bleq	3d40 <_start-0x42c0>
    3d3c:	00000a4b 	andeq	r0, r0, fp, asr #20
    3d40:	00257401 	eoreq	r7, r5, r1, lsl #8
    3d44:	9c100000 	ldcls	0, cr0, [r0], {-0}
    3d48:	000c0000 	andeq	r0, ip, r0
    3d4c:	9c010000 	stcls	0, cr0, [r1], {-0}
    3d50:	00000294 	muleq	r0, r4, r2
    3d54:	009c1808 	addseq	r1, ip, r8, lsl #16
    3d58:	0001c300 	andeq	ip, r1, r0, lsl #6
    3d5c:	f40b0000 	vst4.8	{d0-d3}, [fp], r0
    3d60:	0100000a 	tsteq	r0, sl
    3d64:	00002578 	andeq	r2, r0, r8, ror r5
    3d68:	009c1c00 	addseq	r1, ip, r0, lsl #24
    3d6c:	00002000 	andeq	r2, r0, r0
    3d70:	c09c0100 	addsgt	r0, ip, r0, lsl #2
    3d74:	08000002 	stmdaeq	r0, {r1}
    3d78:	00009c24 	andeq	r9, r0, r4, lsr #24
    3d7c:	00000271 	andeq	r0, r0, r1, ror r2
    3d80:	009c3008 	addseq	r3, ip, r8
    3d84:	0001e600 	andeq	lr, r1, r0, lsl #12
    3d88:	910e0000 	mrsls	r0, (UNDEF: 14)
    3d8c:	0100000a 	tsteq	r0, sl
    3d90:	0002d116 	andeq	sp, r2, r6, lsl r1
    3d94:	54030500 	strpl	r0, [r3], #-1280	; 0x500
    3d98:	0f0000a0 	svceq	0x000000a0
    3d9c:	0002d704 	andeq	sp, r2, r4, lsl #14
    3da0:	002c1000 	eoreq	r1, ip, r0
    3da4:	850e0000 	strhi	r0, [lr, #-0]
    3da8:	0100000a 	tsteq	r0, sl
    3dac:	0002d117 	andeq	sp, r2, r7, lsl r1
    3db0:	24030500 	strcs	r0, [r3], #-1280	; 0x500
    3db4:	0e0000a0 	cdpeq	0, 0, cr0, cr0, cr0, {5}
    3db8:	00000a10 	andeq	r0, r0, r0, lsl sl
    3dbc:	02d11a01 	sbcseq	r1, r1, #4096	; 0x1000
    3dc0:	03050000 	movweq	r0, #20480	; 0x5000
    3dc4:	0000a040 	andeq	sl, r0, r0, asr #32
    3dc8:	000a590e 	andeq	r5, sl, lr, lsl #18
    3dcc:	d11b0100 	tstle	fp, r0, lsl #2
    3dd0:	05000002 	streq	r0, [r0, #-2]
    3dd4:	00a02c03 	adceq	r2, r0, r3, lsl #24
    3dd8:	0a680e00 	beq	1a075e0 <__bss_end__+0x19fcca8>
    3ddc:	1c010000 	stcne	0, cr0, [r1], {-0}
    3de0:	000002d1 	ldrdeq	r0, [r0], -r1
    3de4:	a0300305 	eorsge	r0, r0, r5, lsl #6
    3de8:	d60e0000 	strle	r0, [lr], -r0
    3dec:	0100000a 	tsteq	r0, sl
    3df0:	0002d11d 	andeq	sp, r2, sp, lsl r1
    3df4:	34030500 	strcc	r0, [r3], #-1280	; 0x500
    3df8:	0e0000a0 	cdpeq	0, 0, cr0, cr0, cr0, {5}
    3dfc:	00000a01 	andeq	r0, r0, r1, lsl #20
    3e00:	02d11e01 	sbcseq	r1, r1, #1, 28
    3e04:	03050000 	movweq	r0, #20480	; 0x5000
    3e08:	0000a050 	andeq	sl, r0, r0, asr r0
    3e0c:	000ae50e 	andeq	lr, sl, lr, lsl #10
    3e10:	d11f0100 	tstle	pc, r0, lsl #2
    3e14:	05000002 	streq	r0, [r0, #-2]
    3e18:	00a03c03 	adceq	r3, r0, r3, lsl #24
    3e1c:	0a1e0e00 	beq	787624 <__bss_end__+0x77ccec>
    3e20:	20010000 	andcs	r0, r1, r0
    3e24:	000002d1 	ldrdeq	r0, [r0], -r1
    3e28:	a04c0305 	subge	r0, ip, r5, lsl #6
    3e2c:	b90e0000 	stmdblt	lr, {}	; <UNPREDICTABLE>
    3e30:	0100000a 	tsteq	r0, sl
    3e34:	0002d121 	andeq	sp, r2, r1, lsr #2
    3e38:	48030500 	stmdami	r3, {r8, sl}
    3e3c:	0e0000a0 	cdpeq	0, 0, cr0, cr0, cr0, {5}
    3e40:	00000a3b 	andeq	r0, r0, fp, lsr sl
    3e44:	02d12201 	sbcseq	r2, r1, #268435456	; 0x10000000
    3e48:	03050000 	movweq	r0, #20480	; 0x5000
    3e4c:	0000a028 	andeq	sl, r0, r8, lsr #32
    3e50:	000aa90e 	andeq	sl, sl, lr, lsl #18
    3e54:	d1230100 	teqle	r3, r0, lsl #2
    3e58:	05000002 	streq	r0, [r0, #-2]
    3e5c:	00a04403 	adceq	r4, r0, r3, lsl #8
    3e60:	0a990e00 	beq	fe647668 <__bss_end__+0xfe63cd30>
    3e64:	24010000 	strcs	r0, [r1], #-0
    3e68:	000002d1 	ldrdeq	r0, [r0], -r1
    3e6c:	a0380305 	eorsge	r0, r8, r5, lsl #6
    3e70:	83110000 	tsthi	r1, #0
    3e74:	03000002 	movweq	r0, #2
    3e78:	080a128a 	stmdaeq	sl, {r1, r3, r7, r9, ip}
    3e7c:	19020000 	stmdbne	r2, {}	; <UNPREDICTABLE>
    3e80:	000003c5 	andeq	r0, r0, r5, asr #7
    3e84:	00002c13 	andeq	r2, r0, r3, lsl ip
    3e88:	00b21300 	adcseq	r1, r2, r0, lsl #6
    3e8c:	14000000 	strne	r0, [r0], #-0
    3e90:	0000088c 	andeq	r0, r0, ip, lsl #17
    3e94:	002ca903 	eoreq	sl, ip, r3, lsl #18
    3e98:	03da0000 	bicseq	r0, sl, #0
    3e9c:	da130000 	ble	4c3ea4 <__bss_end__+0x4b956c>
    3ea0:	00000003 	andeq	r0, r0, r3
    3ea4:	03e0040f 	mvneq	r0, #251658240	; 0xf000000
    3ea8:	e5150000 	ldr	r0, [r5, #-0]
    3eac:	16000003 	strne	r0, [r0], -r3
    3eb0:	0007a812 	andeq	sl, r7, r2, lsl r8
    3eb4:	fc9d0300 	ldc2	3, cr0, [sp], {0}
    3eb8:	13000003 	movwne	r0, #3
    3ebc:	000003fc 	strdeq	r0, [r0], -ip
    3ec0:	00002c13 	andeq	r2, r0, r3, lsl ip
    3ec4:	040f0000 	streq	r0, [pc], #-0	; 3ecc <_start-0x4134>
    3ec8:	000003e5 	andeq	r0, r0, r5, ror #7
    3ecc:	00029b00 	andeq	r9, r2, r0, lsl #22
    3ed0:	26000400 	strcs	r0, [r0], -r0, lsl #8
    3ed4:	04000011 	streq	r0, [r0], #-17
    3ed8:	0002ea01 	andeq	lr, r2, r1, lsl #20
    3edc:	0b970100 	bleq	fe5c42e4 <__bss_end__+0xfe5b99ac>
    3ee0:	04730000 	ldrbteq	r0, [r3], #-0
    3ee4:	9c3c0000 	ldcls	0, cr0, [ip], #-0
    3ee8:	00ac0000 	adceq	r0, ip, r0
    3eec:	105c0000 	subsne	r0, ip, r0
    3ef0:	04020000 	streq	r0, [r2], #-0
    3ef4:	746e6905 	strbtvc	r6, [lr], #-2309	; 0x905
    3ef8:	07040300 	streq	r0, [r4, -r0, lsl #6]
    3efc:	0000006c 	andeq	r0, r0, ip, rrx
    3f00:	91060103 	tstls	r6, r3, lsl #2
    3f04:	03000002 	movweq	r0, #2
    3f08:	02aa0502 	adceq	r0, sl, #8388608	; 0x800000
    3f0c:	04030000 	streq	r0, [r3], #-0
    3f10:	00008f05 	andeq	r8, r0, r5, lsl #30
    3f14:	05080300 	streq	r0, [r8, #-768]	; 0x300
    3f18:	0000008a 	andeq	r0, r0, sl, lsl #1
    3f1c:	8f080103 	svchi	0x00080103
    3f20:	03000002 	movweq	r0, #2
    3f24:	01880702 	orreq	r0, r8, r2, lsl #14
    3f28:	04030000 	streq	r0, [r3], #-0
    3f2c:	00006707 	andeq	r6, r0, r7, lsl #14
    3f30:	07080300 	streq	r0, [r8, -r0, lsl #6]
    3f34:	00000062 	andeq	r0, r0, r2, rrx
    3f38:	29070403 	stmdbcs	r7, {r0, r1, sl}
    3f3c:	03000002 	movweq	r0, #2
    3f40:	02980801 	addseq	r0, r8, #65536	; 0x10000
    3f44:	04040000 	streq	r0, [r4], #-0
    3f48:	0000007f 	andeq	r0, r0, pc, ror r0
    3f4c:	00007205 	andeq	r7, r0, r5, lsl #4
    3f50:	03040600 	movweq	r0, #17920	; 0x4600
    3f54:	0000fb14 	andeq	pc, r0, r4, lsl fp	; <UNPREDICTABLE>
    3f58:	0bb70700 	bleq	fedc5b60 <__bss_end__+0xfedbb228>
    3f5c:	e4800000 	str	r0, [r0], #0
    3f60:	07028082 	streq	r8, [r2, -r2, lsl #1]
    3f64:	00000b42 	andeq	r0, r0, r2, asr #22
    3f68:	8082e480 	addhi	lr, r2, r0, lsl #9
    3f6c:	0bf40702 	bleq	ffd05b7c <__bss_end__+0xffcfb244>
    3f70:	e4840000 	str	r0, [r4], #0
    3f74:	07028082 	streq	r8, [r2, -r2, lsl #1]
    3f78:	00000b04 	andeq	r0, r0, r4, lsl #22
    3f7c:	8082e488 	addhi	lr, r2, r8, lsl #9
    3f80:	0b250702 	bleq	945b90 <__bss_end__+0x93b258>
    3f84:	e48c0000 	str	r0, [ip], #0
    3f88:	07028082 	streq	r8, [r2, -r2, lsl #1]
    3f8c:	00000b66 	andeq	r0, r0, r6, ror #22
    3f90:	8082e490 	umullhi	lr, r2, r0, r4
    3f94:	0b740702 	bleq	1d05ba4 <__bss_end__+0x1cfb26c>
    3f98:	e4940000 	ldr	r0, [r4], #0
    3f9c:	07028082 	streq	r8, [r2, -r2, lsl #1]
    3fa0:	00000b54 	andeq	r0, r0, r4, asr fp
    3fa4:	8082e498 	umullhi	lr, r2, r8, r4
    3fa8:	0bc00702 	bleq	ff005bb8 <__bss_end__+0xfeffb280>
    3fac:	e49c0000 	ldr	r0, [ip], #0
    3fb0:	07028082 	streq	r8, [r2, -r2, lsl #1]
    3fb4:	00000bcf 	andeq	r0, r0, pc, asr #23
    3fb8:	8082e4a0 	addhi	lr, r2, r0, lsr #9
    3fbc:	0b120702 	bleq	485bcc <__bss_end__+0x47b294>
    3fc0:	e4a40000 	strt	r0, [r4], #0
    3fc4:	00028082 	andeq	r8, r2, r2, lsl #1
    3fc8:	00025108 	andeq	r5, r2, r8, lsl #2
    3fcc:	3c1b0100 	ldfccs	f0, [fp], {-0}
    3fd0:	6800009c 	stmdavs	r0, {r2, r3, r4, r7}
    3fd4:	01000000 	mrseq	r0, (UNDEF: 0)
    3fd8:	0001a79c 	muleq	r1, ip, r7
    3fdc:	0b310900 	bleq	c463e4 <__bss_end__+0xc3baac>
    3fe0:	23010000 	movwcs	r0, #4096	; 0x1000
    3fe4:	0000002c 	andeq	r0, r0, ip, lsr #32
    3fe8:	000b8209 	andeq	r8, fp, r9, lsl #4
    3fec:	2c240100 	stfcss	f0, [r4], #-0
    3ff0:	0a000000 	beq	3ff8 <_start-0x4008>
    3ff4:	00747364 	rsbseq	r7, r4, r4, ror #6
    3ff8:	01a72701 			; <UNDEFINED> instruction: 0x01a72701
    3ffc:	0b000000 	bleq	4004 <_start-0x3ffc>
    4000:	00637273 	rsbeq	r7, r3, r3, ror r2
    4004:	01a72801 			; <UNDEFINED> instruction: 0x01a72801
    4008:	6e0c0000 	cdpvs	0, 0, cr0, cr12, cr0, {0}
    400c:	2c290100 	stfcss	f0, [r9], #-0
    4010:	01000000 	mrseq	r0, (UNDEF: 0)
    4014:	9c6c0d50 	stclls	13, cr0, [ip], #-320	; 0xfffffec0
    4018:	00240000 	eoreq	r0, r4, r0
    401c:	01630000 	cmneq	r3, r0
    4020:	690e0000 	stmdbvs	lr, {}	; <UNPREDICTABLE>
    4024:	252a0100 	strcs	r0, [sl, #-256]!	; 0x100
    4028:	e1000000 	mrs	r0, (UNDEF: 0)
    402c:	00000026 	andeq	r0, r0, r6, lsr #32
    4030:	009c4c0f 	addseq	r4, ip, pc, lsl #24
    4034:	00025d00 	andeq	r5, r2, r0, lsl #26
    4038:	00018000 	andeq	r8, r1, r0
    403c:	51011000 	mrspl	r1, (UNDEF: 1)
    4040:	10ff0902 	rscsne	r0, pc, r2, lsl #18
    4044:	0c055001 	stceq	0, cr5, [r5], {1}
    4048:	2000b21c 	andcs	fp, r0, ip, lsl r2
    404c:	9c580f00 	mrrcls	15, 0, r0, r8, cr0
    4050:	025d0000 	subseq	r0, sp, #0
    4054:	019d0000 	orrseq	r0, sp, r0
    4058:	01100000 	tsteq	r0, r0
    405c:	ff090251 			; <UNDEFINED> instruction: 0xff090251
    4060:	05500110 	ldrbeq	r0, [r0, #-272]	; 0x110
    4064:	00b2200c 	adcseq	r2, r2, ip
    4068:	5c110020 	ldcpl	0, cr0, [r1], {32}
    406c:	7300009c 	movwvc	r0, #156	; 0x9c
    4070:	00000002 	andeq	r0, r0, r2
    4074:	002c0404 	eoreq	r0, ip, r4, lsl #8
    4078:	de080000 	cdple	0, 0, cr0, cr8, cr0, {0}
    407c:	0100000b 	tsteq	r0, fp
    4080:	009ca42e 	addseq	sl, ip, lr, lsr #8
    4084:	00004400 	andeq	r4, r0, r0, lsl #8
    4088:	329c0100 	addscc	r0, ip, #0, 2
    408c:	12000002 	andne	r0, r0, #2
    4090:	01006370 	tsteq	r0, r0, ror r3
    4094:	00002c2e 	andeq	r2, r0, lr, lsr #24
    4098:	00270000 	eoreq	r0, r7, r0
    409c:	017b1300 	cmneq	fp, r0, lsl #6
    40a0:	02420000 	subeq	r0, r2, #0
    40a4:	03050000 	movweq	r0, #20480	; 0x5000
    40a8:	0000a344 	andeq	sl, r0, r4, asr #6
    40ac:	009cb411 	addseq	fp, ip, r1, lsl r4
    40b0:	00027a00 	andeq	r7, r2, r0, lsl #20
    40b4:	9cd40f00 	ldclls	15, cr0, [r4], {0}
    40b8:	02810000 	addeq	r0, r1, #0
    40bc:	02280000 	eoreq	r0, r8, #0
    40c0:	01100000 	tsteq	r0, r0
    40c4:	2f080253 	svccs	0x00080253
    40c8:	05520110 	ldrbeq	r0, [r2, #-272]	; 0x110
    40cc:	00a34403 	adceq	r4, r3, r3, lsl #8
    40d0:	51011000 	mrspl	r1, (UNDEF: 1)
    40d4:	a3980305 	orrsge	r0, r8, #335544320	; 0x14000000
    40d8:	01100000 	tsteq	r0, r0
    40dc:	5c030550 	cfstr32pl	mvfx0, [r3], {80}	; 0x50
    40e0:	100000a3 	andne	r0, r0, r3, lsr #1
    40e4:	02047d02 	andeq	r7, r4, #2, 26	; 0x80
    40e8:	02100074 	andseq	r0, r0, #116	; 0x74
    40ec:	0305007d 	movweq	r0, #20605	; 0x507d
    40f0:	0000a3b8 			; <UNDEFINED> instruction: 0x0000a3b8
    40f4:	9cd81100 	ldflse	f1, [r8], {0}
    40f8:	02970000 	addseq	r0, r7, #0
    40fc:	14000000 	strne	r0, [r0], #-0
    4100:	00000072 	andeq	r0, r0, r2, ror r0
    4104:	00000242 	andeq	r0, r0, r2, asr #4
    4108:	00006b15 	andeq	r6, r0, r5, lsl fp
    410c:	05001500 	streq	r1, [r0, #-1280]	; 0x500
    4110:	00000232 	andeq	r0, r0, r2, lsr r2
    4114:	000b3109 	andeq	r3, fp, r9, lsl #2
    4118:	2c230100 	stfcss	f0, [r3], #-0
    411c:	09000000 	stmdbeq	r0, {}	; <UNPREDICTABLE>
    4120:	00000b82 	andeq	r0, r0, r2, lsl #23
    4124:	002c2401 	eoreq	r2, ip, r1, lsl #8
    4128:	20160000 	andscs	r0, r6, r0
    412c:	02000007 	andeq	r0, r0, #7
    4130:	0002739c 	muleq	r2, ip, r3
    4134:	002c1700 	eoreq	r1, ip, r0, lsl #14
    4138:	2c170000 	ldccs	0, cr0, [r7], {-0}
    413c:	00000000 	andeq	r0, r0, r0
    4140:	00028318 	andeq	r8, r2, r8, lsl r3
    4144:	188a0200 	stmne	sl, {r9}
    4148:	00000128 	andeq	r0, r0, r8, lsr #2
    414c:	62191e02 	andsvs	r1, r9, #2, 28
    4150:	02000004 	andeq	r0, r0, #4
    4154:	00002529 	andeq	r2, r0, r9, lsr #10
    4158:	00029700 	andeq	r9, r2, r0, lsl #14
    415c:	00791700 	rsbseq	r1, r9, r0, lsl #14
    4160:	001a0000 	andseq	r0, sl, r0
    4164:	00021c18 	andeq	r1, r2, r8, lsl ip
    4168:	00660200 	rsbeq	r0, r6, r0, lsl #4
    416c:	000001c3 	andeq	r0, r0, r3, asr #3
    4170:	127d0004 	rsbsne	r0, sp, #4
    4174:	01040000 	mrseq	r0, (UNDEF: 4)
    4178:	000002ea 	andeq	r0, r0, sl, ror #5
    417c:	000c1701 	andeq	r1, ip, r1, lsl #14
    4180:	00047300 	andeq	r7, r4, r0, lsl #6
    4184:	009e3800 	addseq	r3, lr, r0, lsl #16
    4188:	00005000 	andeq	r5, r0, r0
    418c:	00112900 	andseq	r2, r1, r0, lsl #18
    4190:	05040200 	streq	r0, [r4, #-512]	; 0x200
    4194:	00746e69 	rsbseq	r6, r4, r9, ror #28
    4198:	000c0203 	andeq	r0, ip, r3, lsl #4
    419c:	37d40200 	ldrbcc	r0, [r4, r0, lsl #4]
    41a0:	04000000 	streq	r0, [r0], #-0
    41a4:	006c0704 	rsbeq	r0, ip, r4, lsl #14
    41a8:	01040000 	mrseq	r0, (UNDEF: 4)
    41ac:	00029106 	andeq	r9, r2, r6, lsl #2
    41b0:	05020400 	streq	r0, [r2, #-1024]	; 0x400
    41b4:	000002aa 	andeq	r0, r0, sl, lsr #5
    41b8:	8f050404 	svchi	0x00050404
    41bc:	04000000 	streq	r0, [r0], #-0
    41c0:	008a0508 	addeq	r0, sl, r8, lsl #10
    41c4:	d7030000 	strle	r0, [r3, -r0]
    41c8:	03000003 	movweq	r0, #3
    41cc:	0000652e 	andeq	r6, r0, lr, lsr #10
    41d0:	08010400 	stmdaeq	r1, {sl}
    41d4:	0000028f 	andeq	r0, r0, pc, lsl #5
    41d8:	88070204 	stmdahi	r7, {r2, r9}
    41dc:	03000001 	movweq	r0, #1
    41e0:	000006b3 			; <UNDEFINED> instruction: 0x000006b3
    41e4:	007e3403 	rsbseq	r3, lr, r3, lsl #8
    41e8:	04040000 	streq	r0, [r4], #-0
    41ec:	00006707 	andeq	r6, r0, r7, lsl #14
    41f0:	07080400 	streq	r0, [r8, -r0, lsl #8]
    41f4:	00000062 	andeq	r0, r0, r2, rrx
    41f8:	29070404 	stmdbcs	r7, {r2, sl}
    41fc:	05000002 	streq	r0, [r0, #-2]
    4200:	08010404 	stmdaeq	r1, {r2, sl}
    4204:	00000298 	muleq	r0, r8, r2
    4208:	0e040c06 	cdpeq	12, 0, cr0, cr4, cr6, {0}
    420c:	000000d3 	ldrdeq	r0, [r0], -r3
    4210:	00787407 	rsbseq	r7, r8, r7, lsl #8
    4214:	005a0f04 	subseq	r0, sl, r4, lsl #30
    4218:	07000000 	streq	r0, [r0, -r0]
    421c:	04007872 	streq	r7, [r0], #-2162	; 0x872
    4220:	00005a0f 	andeq	r5, r0, pc, lsl #20
    4224:	32080100 	andcc	r0, r8, #0, 2
    4228:	04000006 	streq	r0, [r0], #-6
    422c:	00007310 	andeq	r7, r0, r0, lsl r3
    4230:	e3080400 	movw	r0, #33792	; 0x8400
    4234:	04000005 	streq	r0, [r0], #-5
    4238:	00007311 	andeq	r7, r0, r1, lsl r3
    423c:	03000800 	movweq	r0, #2048	; 0x800
    4240:	0000061b 	andeq	r0, r0, fp, lsl r6
    4244:	009c1204 	addseq	r1, ip, r4, lsl #4
    4248:	01090000 	mrseq	r0, (UNDEF: 9)
    424c:	00f91005 	rscseq	r1, r9, r5
    4250:	370a0000 	strcc	r0, [sl, -r0]
    4254:	01000006 	tsteq	r0, r6
    4258:	0006250a 	andeq	r2, r6, sl, lsl #10
    425c:	0d0a0200 	sfmeq	f0, 4, [sl, #-0]
    4260:	03000006 	movweq	r0, #6
    4264:	064c0300 	strbeq	r0, [ip], -r0, lsl #6
    4268:	10050000 	andne	r0, r5, r0
    426c:	000000de 	ldrdeq	r0, [r0], -lr
    4270:	14051406 	strne	r1, [r5], #-1030	; 0x406
    4274:	00000131 	andeq	r0, r0, r1, lsr r1
    4278:	0006bc08 	andeq	fp, r6, r8, lsl #24
    427c:	37150500 	ldrcc	r0, [r5, -r0, lsl #10]
    4280:	00000000 	andeq	r0, r0, r0
    4284:	0006a708 	andeq	sl, r6, r8, lsl #14
    4288:	f9180500 			; <UNDEFINED> instruction: 0xf9180500
    428c:	04000000 	streq	r0, [r0], #-0
    4290:	00067208 	andeq	r7, r6, r8, lsl #4
    4294:	d31b0500 	tstle	fp, #0, 10
    4298:	08000000 	stmdaeq	r0, {}	; <UNPREDICTABLE>
    429c:	06640300 	strbteq	r0, [r4], -r0, lsl #6
    42a0:	20050000 	andcs	r0, r5, r0
    42a4:	00000104 	andeq	r0, r0, r4, lsl #2
    42a8:	000c100b 	andeq	r1, ip, fp
    42ac:	7e050100 	adfvcs	f0, f5, f0
    42b0:	38000001 	stmdacc	r0, {r0}
    42b4:	2800009e 	stmdacs	r0, {r1, r2, r3, r4, r7}
    42b8:	01000000 	mrseq	r0, (UNDEF: 0)
    42bc:	00017e9c 	muleq	r1, ip, lr
    42c0:	00630c00 	rsbeq	r0, r3, r0, lsl #24
    42c4:	017e0601 	cmneq	lr, r1, lsl #12
    42c8:	00000000 	andeq	r0, r0, r0
    42cc:	4c0d0900 	stcmi	9, cr0, [sp], {-0}
    42d0:	ab00009e 	blge	4550 <_start-0x3ab0>
    42d4:	0e000001 	cdpeq	0, 0, cr0, cr0, cr1, {0}
    42d8:	34015201 	strcc	r5, [r1], #-513	; 0x201
    42dc:	0151010e 	cmpeq	r1, lr, lsl #2
    42e0:	50010e30 	andpl	r0, r1, r0, lsr lr
    42e4:	24474203 	strbcs	r4, [r7], #-515	; 0x203
    42e8:	040f0000 	streq	r0, [pc], #-0	; 42f0 <_start-0x3d10>
    42ec:	00000131 	andeq	r0, r0, r1, lsr r1
    42f0:	00067a0b 	andeq	r7, r6, fp, lsl #20
    42f4:	7e0c0100 	adfvce	f0, f4, f0
    42f8:	60000001 	andvs	r0, r0, r1
    42fc:	2800009e 	stmdacs	r0, {r1, r2, r3, r4, r7}
    4300:	01000000 	mrseq	r0, (UNDEF: 0)
    4304:	0001ab9c 	muleq	r1, ip, fp
    4308:	00630c00 	rsbeq	r0, r3, r0, lsl #24
    430c:	017e0d01 	cmneq	lr, r1, lsl #26
    4310:	00000000 	andeq	r0, r0, r0
    4314:	10000900 	andne	r0, r0, r0, lsl #18
    4318:	00000c09 	andeq	r0, r0, r9, lsl #24
    431c:	00931b06 	addseq	r1, r3, r6, lsl #22
    4320:	93110000 	tstls	r1, #0
    4324:	11000000 	mrsne	r0, (UNDEF: 0)
    4328:	00000025 	andeq	r0, r0, r5, lsr #32
    432c:	00002c11 	andeq	r2, r0, r1, lsl ip
    4330:	3e000000 	cdpcc	0, 0, cr0, cr0, cr0, {0}
    4334:	04000001 	streq	r0, [r0], #-1
    4338:	00136100 	andseq	r6, r3, r0, lsl #2
    433c:	ea010400 	b	45344 <__bss_end__+0x3aa0c>
    4340:	01000002 	tsteq	r0, r2
    4344:	00000c32 	andeq	r0, r0, r2, lsr ip
    4348:	00000473 	andeq	r0, r0, r3, ror r4
    434c:	00009e88 	andeq	r9, r0, r8, lsl #29
    4350:	00000044 	andeq	r0, r0, r4, asr #32
    4354:	00001255 	andeq	r1, r0, r5, asr r2
    4358:	69050402 	stmdbvs	r5, {r1, sl}
    435c:	0300746e 	movweq	r7, #1134	; 0x46e
    4360:	006c0704 	rsbeq	r0, ip, r4, lsl #14
    4364:	01030000 	mrseq	r0, (UNDEF: 3)
    4368:	00029106 	andeq	r9, r2, r6, lsl #2
    436c:	05020300 	streq	r0, [r2, #-768]	; 0x300
    4370:	000002aa 	andeq	r0, r0, sl, lsr #5
    4374:	8f050403 	svchi	0x00050403
    4378:	03000000 	movweq	r0, #0
    437c:	008a0508 	addeq	r0, sl, r8, lsl #10
    4380:	01030000 	mrseq	r0, (UNDEF: 3)
    4384:	00028f08 	andeq	r8, r2, r8, lsl #30
    4388:	07020300 	streq	r0, [r2, -r0, lsl #6]
    438c:	00000188 	andeq	r0, r0, r8, lsl #3
    4390:	67070403 	strvs	r0, [r7, -r3, lsl #8]
    4394:	03000000 	movweq	r0, #0
    4398:	00620708 	rsbeq	r0, r2, r8, lsl #14
    439c:	04030000 	streq	r0, [r3], #-0
    43a0:	00022907 	andeq	r2, r2, r7, lsl #18
    43a4:	08010300 	stmdaeq	r1, {r8, r9}
    43a8:	00000298 	muleq	r0, r8, r2
    43ac:	007f0404 	rsbseq	r0, pc, r4, lsl #8
    43b0:	72050000 	andvc	r0, r5, #0
    43b4:	06000000 	streq	r0, [r0], -r0
    43b8:	00000c60 	andeq	r0, r0, r0, ror #24
    43bc:	9e880201 	cdpls	2, 8, cr0, cr8, cr1, {0}
    43c0:	00440000 	subeq	r0, r4, r0
    43c4:	9c010000 	stcls	0, cr0, [r1], {-0}
    43c8:	00000108 	andeq	r0, r0, r8, lsl #2
    43cc:	00637007 	rsbeq	r7, r3, r7
    43d0:	002c0201 	eoreq	r0, ip, r1, lsl #4
    43d4:	271e0000 	ldrcs	r0, [lr, -r0]
    43d8:	7b080000 	blvc	2043e0 <__bss_end__+0x1f9aa8>
    43dc:	18000001 	stmdane	r0, {r0}
    43e0:	05000001 	streq	r0, [r0, #-1]
    43e4:	00a3c003 	adceq	ip, r3, r3
    43e8:	9e980900 	cdpls	9, 9, cr0, cr8, cr0, {0}
    43ec:	011d0000 	tsteq	sp, r0
    43f0:	b80a0000 	stmdalt	sl, {}	; <UNPREDICTABLE>
    43f4:	2400009e 	strcs	r0, [r0], #-158	; 0x9e
    43f8:	fe000001 	cdp2	0, 0, cr0, cr0, cr1, {0}
    43fc:	0b000000 	bleq	4404 <_start-0x3bfc>
    4400:	32015301 	andcc	r5, r1, #67108864	; 0x4000000
    4404:	0552010b 	ldrbeq	r0, [r2, #-267]	; 0x10b
    4408:	00a3c003 	adceq	ip, r3, r3
    440c:	51010b00 	tstpl	r1, r0, lsl #22
    4410:	a3d40305 	bicsge	r0, r4, #335544320	; 0x14000000
    4414:	010b0000 	mrseq	r0, (UNDEF: 11)
    4418:	5c030550 	cfstr32pl	mvfx0, [r3], {80}	; 0x50
    441c:	0b0000a3 	bleq	46b0 <_start-0x3950>
    4420:	02047d02 	andeq	r7, r4, #2, 26	; 0x80
    4424:	020b0074 	andeq	r0, fp, #116	; 0x74
    4428:	0305007d 	movweq	r0, #20605	; 0x507d
    442c:	0000a404 	andeq	sl, r0, r4, lsl #8
    4430:	9ebc0900 	cdpls	9, 11, cr0, cr12, cr0, {0}
    4434:	013a0000 	teqeq	sl, r0
    4438:	0c000000 	stceq	0, cr0, [r0], {-0}
    443c:	00000072 	andeq	r0, r0, r2, ror r0
    4440:	00000118 	andeq	r0, r0, r8, lsl r1
    4444:	00006b0d 	andeq	r6, r0, sp, lsl #22
    4448:	05001100 	streq	r1, [r0, #-256]	; 0x100
    444c:	00000108 	andeq	r0, r0, r8, lsl #2
    4450:	0001280e 	andeq	r2, r1, lr, lsl #16
    4454:	0f1e0200 	svceq	0x001e0200
    4458:	00000462 	andeq	r0, r0, r2, ror #8
    445c:	00252902 	eoreq	r2, r5, r2, lsl #18
    4460:	013a0000 	teqeq	sl, r0
    4464:	79100000 	ldmdbvc	r0, {}	; <UNPREDICTABLE>
    4468:	11000000 	mrsne	r0, (UNDEF: 0)
    446c:	021c0e00 	andseq	r0, ip, #0, 28
    4470:	66020000 	strvs	r0, [r2], -r0
    4474:	00013e00 	andeq	r3, r1, r0, lsl #28
    4478:	39000400 	stmdbcc	r0, {sl}
    447c:	04000014 	streq	r0, [r0], #-20
    4480:	0002ea01 	andeq	lr, r2, r1, lsl #20
    4484:	0c720100 	ldfeqe	f0, [r2], #-0
    4488:	04730000 	ldrbteq	r0, [r3], #-0
    448c:	9ecc0000 	cdpls	0, 12, cr0, cr12, cr0, {0}
    4490:	00440000 	subeq	r0, r4, r0
    4494:	12fe0000 	rscsne	r0, lr, #0
    4498:	04020000 	streq	r0, [r2], #-0
    449c:	746e6905 	strbtvc	r6, [lr], #-2309	; 0x905
    44a0:	07040300 	streq	r0, [r4, -r0, lsl #6]
    44a4:	0000006c 	andeq	r0, r0, ip, rrx
    44a8:	91060103 	tstls	r6, r3, lsl #2
    44ac:	03000002 	movweq	r0, #2
    44b0:	02aa0502 	adceq	r0, sl, #8388608	; 0x800000
    44b4:	04030000 	streq	r0, [r3], #-0
    44b8:	00008f05 	andeq	r8, r0, r5, lsl #30
    44bc:	05080300 	streq	r0, [r8, #-768]	; 0x300
    44c0:	0000008a 	andeq	r0, r0, sl, lsl #1
    44c4:	8f080103 	svchi	0x00080103
    44c8:	03000002 	movweq	r0, #2
    44cc:	01880702 	orreq	r0, r8, r2, lsl #14
    44d0:	04030000 	streq	r0, [r3], #-0
    44d4:	00006707 	andeq	r6, r0, r7, lsl #14
    44d8:	07080300 	streq	r0, [r8, -r0, lsl #6]
    44dc:	00000062 	andeq	r0, r0, r2, rrx
    44e0:	29070403 	stmdbcs	r7, {r0, r1, sl}
    44e4:	03000002 	movweq	r0, #2
    44e8:	02980801 	addseq	r0, r8, #65536	; 0x10000
    44ec:	04040000 	streq	r0, [r4], #-0
    44f0:	0000007f 	andeq	r0, r0, pc, ror r0
    44f4:	00007205 	andeq	r7, r0, r5, lsl #4
    44f8:	0c9e0600 	ldceq	6, cr0, [lr], {0}
    44fc:	02010000 	andeq	r0, r1, #0
    4500:	00009ecc 	andeq	r9, r0, ip, asr #29
    4504:	00000044 	andeq	r0, r0, r4, asr #32
    4508:	01089c01 	tsteq	r8, r1, lsl #24
    450c:	70070000 	andvc	r0, r7, r0
    4510:	02010063 	andeq	r0, r1, #99	; 0x63
    4514:	0000002c 	andeq	r0, r0, ip, lsr #32
    4518:	0000273c 	andeq	r2, r0, ip, lsr r7
    451c:	00017b08 	andeq	r7, r1, r8, lsl #22
    4520:	00011800 	andeq	r1, r1, r0, lsl #16
    4524:	10030500 	andne	r0, r3, r0, lsl #10
    4528:	090000a4 	stmdbeq	r0, {r2, r5, r7}
    452c:	00009edc 	ldrdeq	r9, [r0], -ip
    4530:	0000011d 	andeq	r0, r0, sp, lsl r1
    4534:	009efc0a 	addseq	pc, lr, sl, lsl #24
    4538:	00012400 	andeq	r2, r1, r0, lsl #8
    453c:	0000fe00 	andeq	pc, r0, r0, lsl #28
    4540:	53010b00 	movwpl	r0, #6912	; 0x1b00
    4544:	010b3201 	tsteq	fp, r1, lsl #4
    4548:	10030552 	andne	r0, r3, r2, asr r5
    454c:	0b0000a4 	bleq	47e4 <_start-0x381c>
    4550:	03055101 	movweq	r5, #20737	; 0x5101
    4554:	0000a428 	andeq	sl, r0, r8, lsr #8
    4558:	0550010b 	ldrbeq	r0, [r0, #-267]	; 0x10b
    455c:	00a35c03 	adceq	r5, r3, r3, lsl #24
    4560:	7d020b00 	vstrvc	d0, [r2, #-0]
    4564:	00740204 	rsbseq	r0, r4, r4, lsl #4
    4568:	007d020b 	rsbseq	r0, sp, fp, lsl #4
    456c:	a4540305 	ldrbge	r0, [r4], #-773	; 0x305
    4570:	09000000 	stmdbeq	r0, {}	; <UNPREDICTABLE>
    4574:	00009f00 	andeq	r9, r0, r0, lsl #30
    4578:	0000013a 	andeq	r0, r0, sl, lsr r1
    457c:	00720c00 	rsbseq	r0, r2, r0, lsl #24
    4580:	01180000 	tsteq	r8, r0
    4584:	6b0d0000 	blvs	34458c <__bss_end__+0x339c54>
    4588:	15000000 	strne	r0, [r0, #-0]
    458c:	01080500 	tsteq	r8, r0, lsl #10
    4590:	280e0000 	stmdacs	lr, {}	; <UNPREDICTABLE>
    4594:	02000001 	andeq	r0, r0, #1
    4598:	04620f1e 	strbteq	r0, [r2], #-3870	; 0xf1e
    459c:	29020000 	stmdbcs	r2, {}	; <UNPREDICTABLE>
    45a0:	00000025 	andeq	r0, r0, r5, lsr #32
    45a4:	0000013a 	andeq	r0, r0, sl, lsr r1
    45a8:	00007910 	andeq	r7, r0, r0, lsl r9
    45ac:	0e001100 	adfeqs	f1, f0, f0
    45b0:	0000021c 	andeq	r0, r0, ip, lsl r2
    45b4:	3e006602 	cfmadd32cc	mvax0, mvfx6, mvfx0, mvfx2
    45b8:	04000001 	streq	r0, [r0], #-1
    45bc:	00151100 	andseq	r1, r5, r0, lsl #2
    45c0:	ea010400 	b	455c8 <__bss_end__+0x3ac90>
    45c4:	01000002 	tsteq	r0, r2
    45c8:	00000cc1 	andeq	r0, r0, r1, asr #25
    45cc:	00000473 	andeq	r0, r0, r3, ror r4
    45d0:	00009f10 	andeq	r9, r0, r0, lsl pc
    45d4:	00000044 	andeq	r0, r0, r4, asr #32
    45d8:	000013a5 	andeq	r1, r0, r5, lsr #7
    45dc:	69050402 	stmdbvs	r5, {r1, sl}
    45e0:	0300746e 	movweq	r7, #1134	; 0x46e
    45e4:	006c0704 	rsbeq	r0, ip, r4, lsl #14
    45e8:	01030000 	mrseq	r0, (UNDEF: 3)
    45ec:	00029106 	andeq	r9, r2, r6, lsl #2
    45f0:	05020300 	streq	r0, [r2, #-768]	; 0x300
    45f4:	000002aa 	andeq	r0, r0, sl, lsr #5
    45f8:	8f050403 	svchi	0x00050403
    45fc:	03000000 	movweq	r0, #0
    4600:	008a0508 	addeq	r0, sl, r8, lsl #10
    4604:	01030000 	mrseq	r0, (UNDEF: 3)
    4608:	00028f08 	andeq	r8, r2, r8, lsl #30
    460c:	07020300 	streq	r0, [r2, -r0, lsl #6]
    4610:	00000188 	andeq	r0, r0, r8, lsl #3
    4614:	67070403 	strvs	r0, [r7, -r3, lsl #8]
    4618:	03000000 	movweq	r0, #0
    461c:	00620708 	rsbeq	r0, r2, r8, lsl #14
    4620:	04030000 	streq	r0, [r3], #-0
    4624:	00022907 	andeq	r2, r2, r7, lsl #18
    4628:	08010300 	stmdaeq	r1, {r8, r9}
    462c:	00000298 	muleq	r0, r8, r2
    4630:	007f0404 	rsbseq	r0, pc, r4, lsl #8
    4634:	72050000 	andvc	r0, r5, #0
    4638:	06000000 	streq	r0, [r0], -r0
    463c:	00000cb4 			; <UNDEFINED> instruction: 0x00000cb4
    4640:	9f100201 	svcls	0x00100201
    4644:	00440000 	subeq	r0, r4, r0
    4648:	9c010000 	stcls	0, cr0, [r1], {-0}
    464c:	00000108 	andeq	r0, r0, r8, lsl #2
    4650:	00637007 	rsbeq	r7, r3, r7
    4654:	002c0201 	eoreq	r0, ip, r1, lsl #4
    4658:	275a0000 	ldrbcs	r0, [sl, -r0]
    465c:	7b080000 	blvc	204664 <__bss_end__+0x1f9d2c>
    4660:	18000001 	stmdane	r0, {r0}
    4664:	05000001 	streq	r0, [r0, #-1]
    4668:	00a46403 	adceq	r6, r4, r3, lsl #8
    466c:	9f200900 	svcls	0x00200900
    4670:	011d0000 	tsteq	sp, r0
    4674:	400a0000 	andmi	r0, sl, r0
    4678:	2400009f 	strcs	r0, [r0], #-159	; 0x9f
    467c:	fe000001 	cdp2	0, 0, cr0, cr0, cr1, {0}
    4680:	0b000000 	bleq	4688 <_start-0x3978>
    4684:	32015301 	andcc	r5, r1, #67108864	; 0x4000000
    4688:	0552010b 	ldrbeq	r0, [r2, #-267]	; 0x10b
    468c:	00a46403 	adceq	r6, r4, r3, lsl #8
    4690:	51010b00 	tstpl	r1, r0, lsl #22
    4694:	a4740305 	ldrbtge	r0, [r4], #-773	; 0x305
    4698:	010b0000 	mrseq	r0, (UNDEF: 11)
    469c:	5c030550 	cfstr32pl	mvfx0, [r3], {80}	; 0x50
    46a0:	0b0000a3 	bleq	4934 <_start-0x36cc>
    46a4:	02047d02 	andeq	r7, r4, #2, 26	; 0x80
    46a8:	020b0074 	andeq	r0, fp, #116	; 0x74
    46ac:	0305007d 	movweq	r0, #20605	; 0x507d
    46b0:	0000a4a0 	andeq	sl, r0, r0, lsr #9
    46b4:	9f440900 	svcls	0x00440900
    46b8:	013a0000 	teqeq	sl, r0
    46bc:	0c000000 	stceq	0, cr0, [r0], {-0}
    46c0:	00000072 	andeq	r0, r0, r2, ror r0
    46c4:	00000118 	andeq	r0, r0, r8, lsl r1
    46c8:	00006b0d 	andeq	r6, r0, sp, lsl #22
    46cc:	05000c00 	streq	r0, [r0, #-3072]	; 0xc00
    46d0:	00000108 	andeq	r0, r0, r8, lsl #2
    46d4:	0001280e 	andeq	r2, r1, lr, lsl #16
    46d8:	0f1e0200 	svceq	0x001e0200
    46dc:	00000462 	andeq	r0, r0, r2, ror #8
    46e0:	00252902 	eoreq	r2, r5, r2, lsl #18
    46e4:	013a0000 	teqeq	sl, r0
    46e8:	79100000 	ldmdbvc	r0, {}	; <UNPREDICTABLE>
    46ec:	11000000 	mrsne	r0, (UNDEF: 0)
    46f0:	021c0e00 	andseq	r0, ip, #0, 28
    46f4:	66020000 	strvs	r0, [r2], -r0
    46f8:	00013e00 	andeq	r3, r1, r0, lsl #28
    46fc:	e9000400 	stmdb	r0, {sl}
    4700:	04000015 	streq	r0, [r0], #-21
    4704:	0002ea01 	andeq	lr, r2, r1, lsl #20
    4708:	0cea0100 	stfeqe	f0, [sl]
    470c:	04730000 	ldrbteq	r0, [r3], #-0
    4710:	9f540000 	svcls	0x00540000
    4714:	00440000 	subeq	r0, r4, r0
    4718:	14490000 	strbne	r0, [r9], #-0
    471c:	04020000 	streq	r0, [r2], #-0
    4720:	746e6905 	strbtvc	r6, [lr], #-2309	; 0x905
    4724:	07040300 	streq	r0, [r4, -r0, lsl #6]
    4728:	0000006c 	andeq	r0, r0, ip, rrx
    472c:	91060103 	tstls	r6, r3, lsl #2
    4730:	03000002 	movweq	r0, #2
    4734:	02aa0502 	adceq	r0, sl, #8388608	; 0x800000
    4738:	04030000 	streq	r0, [r3], #-0
    473c:	00008f05 	andeq	r8, r0, r5, lsl #30
    4740:	05080300 	streq	r0, [r8, #-768]	; 0x300
    4744:	0000008a 	andeq	r0, r0, sl, lsl #1
    4748:	8f080103 	svchi	0x00080103
    474c:	03000002 	movweq	r0, #2
    4750:	01880702 	orreq	r0, r8, r2, lsl #14
    4754:	04030000 	streq	r0, [r3], #-0
    4758:	00006707 	andeq	r6, r0, r7, lsl #14
    475c:	07080300 	streq	r0, [r8, -r0, lsl #6]
    4760:	00000062 	andeq	r0, r0, r2, rrx
    4764:	29070403 	stmdbcs	r7, {r0, r1, sl}
    4768:	03000002 	movweq	r0, #2
    476c:	02980801 	addseq	r0, r8, #65536	; 0x10000
    4770:	04040000 	streq	r0, [r4], #-0
    4774:	0000007f 	andeq	r0, r0, pc, ror r0
    4778:	00007205 	andeq	r7, r0, r5, lsl #4
    477c:	0d1c0600 	ldceq	6, cr0, [ip, #-0]
    4780:	02010000 	andeq	r0, r1, #0
    4784:	00009f54 	andeq	r9, r0, r4, asr pc
    4788:	00000044 	andeq	r0, r0, r4, asr #32
    478c:	01089c01 	tsteq	r8, r1, lsl #24
    4790:	70070000 	andvc	r0, r7, r0
    4794:	02010063 	andeq	r0, r1, #99	; 0x63
    4798:	0000002c 	andeq	r0, r0, ip, lsr #32
    479c:	00002778 	andeq	r2, r0, r8, ror r7
    47a0:	00017b08 	andeq	r7, r1, r8, lsl #22
    47a4:	00011800 	andeq	r1, r1, r0, lsl #16
    47a8:	a8030500 	stmdage	r3, {r8, sl}
    47ac:	090000a4 	stmdbeq	r0, {r2, r5, r7}
    47b0:	00009f64 	andeq	r9, r0, r4, ror #30
    47b4:	0000011d 	andeq	r0, r0, sp, lsl r1
    47b8:	009f840a 	addseq	r8, pc, sl, lsl #8
    47bc:	00012400 	andeq	r2, r1, r0, lsl #8
    47c0:	0000fe00 	andeq	pc, r0, r0, lsl #28
    47c4:	53010b00 	movwpl	r0, #6912	; 0x1b00
    47c8:	010b3201 	tsteq	fp, r1, lsl #4
    47cc:	a8030552 	stmdage	r3, {r1, r4, r6, r8, sl}
    47d0:	0b0000a4 	bleq	4a68 <_start-0x3598>
    47d4:	03055101 	movweq	r5, #20737	; 0x5101
    47d8:	0000a4c8 	andeq	sl, r0, r8, asr #9
    47dc:	0550010b 	ldrbeq	r0, [r0, #-267]	; 0x10b
    47e0:	00a35c03 	adceq	r5, r3, r3, lsl #24
    47e4:	7d020b00 	vstrvc	d0, [r2, #-0]
    47e8:	00740204 	rsbseq	r0, r4, r4, lsl #4
    47ec:	007d020b 	rsbseq	r0, sp, fp, lsl #4
    47f0:	a4fc0305 	ldrbtge	r0, [ip], #773	; 0x305
    47f4:	09000000 	stmdbeq	r0, {}	; <UNPREDICTABLE>
    47f8:	00009f88 	andeq	r9, r0, r8, lsl #31
    47fc:	0000013a 	andeq	r0, r0, sl, lsr r1
    4800:	00720c00 	rsbseq	r0, r2, r0, lsl #24
    4804:	01180000 	tsteq	r8, r0
    4808:	6b0d0000 	blvs	344810 <__bss_end__+0x339ed8>
    480c:	1c000000 	stcne	0, cr0, [r0], {-0}
    4810:	01080500 	tsteq	r8, r0, lsl #10
    4814:	280e0000 	stmdacs	lr, {}	; <UNPREDICTABLE>
    4818:	02000001 	andeq	r0, r0, #1
    481c:	04620f1e 	strbteq	r0, [r2], #-3870	; 0xf1e
    4820:	29020000 	stmdbcs	r2, {}	; <UNPREDICTABLE>
    4824:	00000025 	andeq	r0, r0, r5, lsr #32
    4828:	0000013a 	andeq	r0, r0, sl, lsr r1
    482c:	00007910 	andeq	r7, r0, r0, lsl r9
    4830:	0e001100 	adfeqs	f1, f0, f0
    4834:	0000021c 	andeq	r0, r0, ip, lsl r2
    4838:	db006602 	blle	1e048 <__bss_end__+0x13710>
    483c:	04000000 	streq	r0, [r0], #-0
    4840:	0016c100 	andseq	ip, r6, r0, lsl #2
    4844:	ea010400 	b	4584c <__bss_end__+0x3af14>
    4848:	01000002 	tsteq	r0, r2
    484c:	00000d39 	andeq	r0, r0, r9, lsr sp
    4850:	00000473 	andeq	r0, r0, r3, ror r4
    4854:	00009f98 	muleq	r0, r8, pc	; <UNPREDICTABLE>
    4858:	00000020 	andeq	r0, r0, r0, lsr #32
    485c:	000014f6 	strdeq	r1, [r0], -r6
    4860:	91060102 	tstls	r6, r2, lsl #2
    4864:	02000002 	andeq	r0, r0, #2
    4868:	028f0801 	addeq	r0, pc, #65536	; 0x10000
    486c:	02020000 	andeq	r0, r2, #0
    4870:	0002aa05 	andeq	sl, r2, r5, lsl #20
    4874:	07020200 	streq	r0, [r2, -r0, lsl #4]
    4878:	00000188 	andeq	r0, r0, r8, lsl #3
    487c:	69050403 	stmdbvs	r5, {r0, r1, sl}
    4880:	0200746e 	andeq	r7, r0, #1845493760	; 0x6e000000
    4884:	006c0704 	rsbeq	r0, ip, r4, lsl #14
    4888:	08020000 	stmdaeq	r2, {}	; <UNPREDICTABLE>
    488c:	00008a05 	andeq	r8, r0, r5, lsl #20
    4890:	07080200 	streq	r0, [r8, -r0, lsl #4]
    4894:	00000062 	andeq	r0, r0, r2, rrx
    4898:	8f050402 	svchi	0x00050402
    489c:	02000000 	andeq	r0, r0, #0
    48a0:	02290704 	eoreq	r0, r9, #4, 14	; 0x100000
    48a4:	04040000 	streq	r0, [r4], #-0
    48a8:	67070402 	strvs	r0, [r7, -r2, lsl #8]
    48ac:	05000000 	streq	r0, [r0, #-0]
    48b0:	00007a04 	andeq	r7, r0, r4, lsl #20
    48b4:	08010200 	stmdaeq	r1, {r9}
    48b8:	00000298 	muleq	r0, r8, r2
    48bc:	000c0206 	andeq	r0, ip, r6, lsl #4
    48c0:	48d40200 	ldmmi	r4, {r9}^
    48c4:	07000000 	streq	r0, [r0, -r0]
    48c8:	00000c09 	andeq	r0, r0, r9, lsl #24
    48cc:	006b1b03 	rsbeq	r1, fp, r3, lsl #22
    48d0:	9f980000 	svcls	0x00980000
    48d4:	00200000 	eoreq	r0, r0, r0
    48d8:	9c010000 	stcls	0, cr0, [r1], {-0}
    48dc:	00705f08 	rsbseq	r5, r0, r8, lsl #30
    48e0:	006b0301 	rsbeq	r0, fp, r1, lsl #6
    48e4:	50010000 	andpl	r0, r1, r0
    48e8:	01006308 	tsteq	r0, r8, lsl #6
    48ec:	00004103 	andeq	r4, r0, r3, lsl #2
    48f0:	09510100 	ldmdbeq	r1, {r8}^
    48f4:	0301006e 	movweq	r0, #4206	; 0x106e
    48f8:	00000081 	andeq	r0, r0, r1, lsl #1
    48fc:	00002796 	muleq	r0, r6, r7
    4900:	0100700a 	tsteq	r0, sl
    4904:	00007404 	andeq	r7, r0, r4, lsl #8
    4908:	0027b700 	eoreq	fp, r7, r0, lsl #14
    490c:	00650b00 	rsbeq	r0, r5, r0, lsl #22
    4910:	00740401 	rsbseq	r0, r4, r1, lsl #8
    4914:	52010000 	andpl	r0, r1, #0
	...

Disassembly of section .debug_abbrev:

00000000 <.debug_abbrev>:
       0:	25011101 	strcs	r1, [r1, #-257]	; 0x101
       4:	030b130e 	movweq	r1, #45838	; 0xb30e
       8:	110e1b0e 	tstne	lr, lr, lsl #22
       c:	10061201 	andne	r1, r6, r1, lsl #4
      10:	02000017 	andeq	r0, r0, #23
      14:	0b0b0024 	bleq	2c00ac <__bss_end__+0x2b5774>
      18:	08030b3e 	stmdaeq	r3, {r1, r2, r3, r4, r5, r8, r9, fp}
      1c:	24030000 	strcs	r0, [r3], #-0
      20:	3e0b0b00 	vmlacc.f64	d0, d11, d0
      24:	000e030b 	andeq	r0, lr, fp, lsl #6
      28:	00160400 	andseq	r0, r6, r0, lsl #8
      2c:	0b3a0e03 	bleq	e83840 <__bss_end__+0xe78f08>
      30:	13490b3b 	movtne	r0, #39739	; 0x9b3b
      34:	0f050000 	svceq	0x00050000
      38:	490b0b00 	stmdbmi	fp, {r8, r9, fp}
      3c:	06000013 			; <UNDEFINED> instruction: 0x06000013
      40:	13490026 	movtne	r0, #36902	; 0x9026
      44:	04070000 	streq	r0, [r7], #-0
      48:	3a0b0b01 	bcc	2c2c54 <__bss_end__+0x2b831c>
      4c:	010b3b0b 	tsteq	fp, fp, lsl #22
      50:	08000013 	stmdaeq	r0, {r0, r1, r4}
      54:	0e030028 	cdpeq	0, 0, cr0, cr3, cr8, {1}
      58:	00000d1c 	andeq	r0, r0, ip, lsl sp
      5c:	49003509 	stmdbmi	r0, {r0, r3, r8, sl, ip, sp}
      60:	0a000013 	beq	b4 <_start-0x7f4c>
      64:	0e03012e 	adfeqsp	f0, f3, #0.5
      68:	0b3b0b3a 	bleq	ec2d58 <__bss_end__+0xeb8420>
      6c:	0b201927 	bleq	806510 <__bss_end__+0x7fbbd8>
      70:	00001301 	andeq	r1, r0, r1, lsl #6
      74:	0300050b 	movweq	r0, #1291	; 0x50b
      78:	3b0b3a08 	blcc	2ce8a0 <__bss_end__+0x2c3f68>
      7c:	0013490b 	andseq	r4, r3, fp, lsl #18
      80:	012e0c00 	teqeq	lr, r0, lsl #24
      84:	0e03193f 	mcreq	9, 0, r1, cr3, cr15, {1}
      88:	0b3b0b3a 	bleq	ec2d78 <__bss_end__+0xeb8440>
      8c:	13491927 	movtne	r1, #39207	; 0x9927
      90:	06120111 			; <UNDEFINED> instruction: 0x06120111
      94:	42971840 	addsmi	r1, r7, #64, 16	; 0x400000
      98:	00130119 	andseq	r0, r3, r9, lsl r1
      9c:	00050d00 	andeq	r0, r5, r0, lsl #26
      a0:	0b3a0803 	bleq	e820b4 <__bss_end__+0xe7777c>
      a4:	13490b3b 	movtne	r0, #39739	; 0x9b3b
      a8:	00001702 	andeq	r1, r0, r2, lsl #14
      ac:	0300340e 	movweq	r3, #1038	; 0x40e
      b0:	3413490e 	ldrcc	r4, [r3], #-2318	; 0x90e
      b4:	00180219 	andseq	r0, r8, r9, lsl r2
      b8:	00340f00 	eorseq	r0, r4, r0, lsl #30
      bc:	0b3a0e03 	bleq	e838d0 <__bss_end__+0xe78f98>
      c0:	13490b3b 	movtne	r0, #39739	; 0x9b3b
      c4:	34100000 	ldrcc	r0, [r0], #-0
      c8:	3a0e0300 	bcc	380cd0 <__bss_end__+0x376398>
      cc:	490b3b0b 	stmdbmi	fp, {r0, r1, r3, r8, r9, fp, ip, sp}
      d0:	00170213 	andseq	r0, r7, r3, lsl r2
      d4:	010b1100 	mrseq	r1, (UNDEF: 27)
      d8:	06120111 			; <UNDEFINED> instruction: 0x06120111
      dc:	00001301 	andeq	r1, r0, r1, lsl #6
      e0:	01828912 	orreq	r8, r2, r2, lsl r9
      e4:	31011100 	mrscc	r1, (UNDEF: 17)
      e8:	13000013 	movwne	r0, #19
      ec:	01018289 	smlabbeq	r1, r9, r2, r8
      f0:	13310111 	teqne	r1, #1073741828	; 0x40000004
      f4:	00001301 	andeq	r1, r0, r1, lsl #6
      f8:	01828a14 	orreq	r8, r2, r4, lsl sl
      fc:	91180200 	tstls	r8, r0, lsl #4
     100:	00001842 	andeq	r1, r0, r2, asr #16
     104:	01828915 	orreq	r8, r2, r5, lsl r9
     108:	31011101 	tstcc	r1, r1, lsl #2
     10c:	16000013 			; <UNDEFINED> instruction: 0x16000013
     110:	13490101 	movtne	r0, #37121	; 0x9101
     114:	00001301 	andeq	r1, r0, r1, lsl #6
     118:	49002117 	stmdbmi	r0, {r0, r1, r2, r4, r8, sp}
     11c:	000b2f13 	andeq	r2, fp, r3, lsl pc
     120:	00341800 	eorseq	r1, r4, r0, lsl #16
     124:	0b3a0803 	bleq	e82138 <__bss_end__+0xe77800>
     128:	13490b3b 	movtne	r0, #39739	; 0x9b3b
     12c:	00000b1c 	andeq	r0, r0, ip, lsl fp
     130:	03003419 	movweq	r3, #1049	; 0x419
     134:	3b0b3a0e 	blcc	2ce974 <__bss_end__+0x2c403c>
     138:	0213490b 	andseq	r4, r3, #180224	; 0x2c000
     13c:	1a000018 	bne	1a4 <_start-0x7e5c>
     140:	0111010b 	tsteq	r1, fp, lsl #2
     144:	00000612 	andeq	r0, r0, r2, lsl r6
     148:	3f012e1b 	svccc	0x00012e1b
     14c:	3a0e0319 	bcc	380db8 <__bss_end__+0x376480>
     150:	270b3b0b 	strcs	r3, [fp, -fp, lsl #22]
     154:	12011119 	andne	r1, r1, #1073741830	; 0x40000006
     158:	97184006 	ldrls	r4, [r8, -r6]
     15c:	13011942 	movwne	r1, #6466	; 0x1942
     160:	051c0000 	ldreq	r0, [ip, #-0]
     164:	3a0e0300 	bcc	380d6c <__bss_end__+0x376434>
     168:	490b3b0b 	stmdbmi	fp, {r0, r1, r3, r8, r9, fp, ip, sp}
     16c:	00170213 	andseq	r0, r7, r3, lsl r2
     170:	011d1d00 	tsteq	sp, r0, lsl #26
     174:	01111331 	tsteq	r1, r1, lsr r3
     178:	0b580612 	bleq	16019c8 <__bss_end__+0x15f7090>
     17c:	13010b59 	movwne	r0, #7001	; 0x1b59
     180:	051e0000 	ldreq	r0, [lr, #-0]
     184:	02133100 	andseq	r3, r3, #0, 2
     188:	1f000017 	svcne	0x00000017
     18c:	13310005 	teqne	r1, #5
     190:	00001802 	andeq	r1, r0, r2, lsl #16
     194:	31011d20 	tstcc	r1, r0, lsr #26
     198:	12011113 	andne	r1, r1, #-1073741820	; 0xc0000004
     19c:	590b5806 	stmdbpl	fp, {r1, r2, fp, ip, lr}
     1a0:	2100000b 	tstcs	r0, fp
     1a4:	0e03012e 	adfeqsp	f0, f3, #0.5
     1a8:	0b3b0b3a 	bleq	ec2e98 <__bss_end__+0xeb8560>
     1ac:	01111927 	tsteq	r1, r7, lsr #18
     1b0:	18400612 	stmdane	r0, {r1, r4, r9, sl}^
     1b4:	01194297 			; <UNDEFINED> instruction: 0x01194297
     1b8:	22000013 	andcs	r0, r0, #19
     1bc:	0e030034 	mcreq	0, 0, r0, cr3, cr4, {1}
     1c0:	0b3b0b3a 	bleq	ec2eb0 <__bss_end__+0xeb8578>
     1c4:	061c1349 	ldreq	r1, [ip], -r9, asr #6
     1c8:	34230000 	strtcc	r0, [r3], #-0
     1cc:	3a0e0300 	bcc	380dd4 <__bss_end__+0x37649c>
     1d0:	490b3b0b 	stmdbmi	fp, {r0, r1, r3, r8, r9, fp, ip, sp}
     1d4:	02193f13 	andseq	r3, r9, #19, 30	; 0x4c
     1d8:	24000018 	strcs	r0, [r0], #-24
     1dc:	193f002e 	ldmdbne	pc!, {r1, r2, r3, r5}	; <UNPREDICTABLE>
     1e0:	0b3a0e03 	bleq	e839f4 <__bss_end__+0xe790bc>
     1e4:	19270b3b 	stmdbne	r7!, {r0, r1, r3, r4, r5, r8, r9, fp}
     1e8:	0000193c 	andeq	r1, r0, ip, lsr r9
     1ec:	3f012e25 	svccc	0x00012e25
     1f0:	3a0e0319 	bcc	380e5c <__bss_end__+0x376524>
     1f4:	270b3b0b 	strcs	r3, [fp, -fp, lsl #22]
     1f8:	3c134919 	ldccc	9, cr4, [r3], {25}
     1fc:	00130119 	andseq	r0, r3, r9, lsl r1
     200:	00052600 	andeq	r2, r5, r0, lsl #12
     204:	00001349 	andeq	r1, r0, r9, asr #6
     208:	00001827 	andeq	r1, r0, r7, lsr #16
     20c:	012e2800 	teqeq	lr, r0, lsl #16
     210:	0e03193f 	mcreq	9, 0, r1, cr3, cr15, {1}
     214:	0b3b0b3a 	bleq	ec2f04 <__bss_end__+0xeb85cc>
     218:	193c1927 	ldmdbne	ip!, {r0, r1, r2, r5, r8, fp, ip}
     21c:	00001301 	andeq	r1, r0, r1, lsl #6
     220:	01110100 	tsteq	r1, r0, lsl #2
     224:	0b130e25 	bleq	4c3ac0 <__bss_end__+0x4b9188>
     228:	0e1b0e03 	cdpeq	14, 1, cr0, cr11, cr3, {0}
     22c:	06120111 			; <UNDEFINED> instruction: 0x06120111
     230:	00001710 	andeq	r1, r0, r0, lsl r7
     234:	03001602 	movweq	r1, #1538	; 0x602
     238:	3b0b3a0e 	blcc	2cea78 <__bss_end__+0x2c4140>
     23c:	0013490b 	andseq	r4, r3, fp, lsl #18
     240:	01130300 	tsteq	r3, r0, lsl #6
     244:	0b0b0e03 	bleq	2c3a58 <__bss_end__+0x2b9120>
     248:	0b3b0b3a 	bleq	ec2f38 <__bss_end__+0xeb8600>
     24c:	00001301 	andeq	r1, r0, r1, lsl #6
     250:	03000d04 	movweq	r0, #3332	; 0xd04
     254:	3813490e 	ldmdacc	r3, {r1, r2, r3, r8, fp, lr}
     258:	0019340b 	andseq	r3, r9, fp, lsl #8
     25c:	000f0500 	andeq	r0, pc, r0, lsl #10
     260:	00000b0b 	andeq	r0, r0, fp, lsl #22
     264:	0b002406 	bleq	9284 <is_gpio_int+0x14>
     268:	030b3e0b 	movweq	r3, #48651	; 0xbe0b
     26c:	07000008 	streq	r0, [r0, -r8]
     270:	0b0b0024 	bleq	2c0308 <__bss_end__+0x2b59d0>
     274:	0e030b3e 	vmoveq.16	d3[0], r0
     278:	0f080000 	svceq	0x00080000
     27c:	490b0b00 	stmdbmi	fp, {r8, r9, fp}
     280:	09000013 	stmdbeq	r0, {r0, r1, r4}
     284:	13490026 	movtne	r0, #36902	; 0x9026
     288:	2e0a0000 	cdpcs	0, 0, cr0, cr10, cr0, {0}
     28c:	03193f01 	tsteq	r9, #1, 30
     290:	3b0b3a0e 	blcc	2cead0 <__bss_end__+0x2c4198>
     294:	4919270b 	ldmdbmi	r9, {r0, r1, r3, r8, r9, sl, sp}
     298:	12011113 	andne	r1, r1, #-1073741820	; 0xc0000004
     29c:	97184006 	ldrls	r4, [r8, -r6]
     2a0:	13011942 	movwne	r1, #6466	; 0x1942
     2a4:	050b0000 	streq	r0, [fp, #-0]
     2a8:	3a080300 	bcc	200eb0 <__bss_end__+0x1f6578>
     2ac:	490b3b0b 	stmdbmi	fp, {r0, r1, r3, r8, r9, fp, ip, sp}
     2b0:	00180213 	andseq	r0, r8, r3, lsl r2
     2b4:	00180c00 	andseq	r0, r8, r0, lsl #24
     2b8:	340d0000 	strcc	r0, [sp], #-0
     2bc:	3a080300 	bcc	200ec4 <__bss_end__+0x1f658c>
     2c0:	490b3b0b 	stmdbmi	fp, {r0, r1, r3, r8, r9, fp, ip, sp}
     2c4:	00180213 	andseq	r0, r8, r3, lsl r2
     2c8:	00340e00 	eorseq	r0, r4, r0, lsl #28
     2cc:	0b3a0e03 	bleq	e83ae0 <__bss_end__+0xe791a8>
     2d0:	13490b3b 	movtne	r0, #39739	; 0x9b3b
     2d4:	00001802 	andeq	r1, r0, r2, lsl #16
     2d8:	0300340f 	movweq	r3, #1039	; 0x40f
     2dc:	3b0b3a08 	blcc	2ceb04 <__bss_end__+0x2c41cc>
     2e0:	0213490b 	andseq	r4, r3, #180224	; 0x2c000
     2e4:	10000017 	andne	r0, r0, r7, lsl r0
     2e8:	01018289 	smlabbeq	r1, r9, r2, r8
     2ec:	13310111 	teqne	r1, #1073741828	; 0x40000004
     2f0:	00001301 	andeq	r1, r0, r1, lsl #6
     2f4:	01828a11 	orreq	r8, r2, r1, lsl sl
     2f8:	91180200 	tstls	r8, r0, lsl #4
     2fc:	00001842 	andeq	r1, r0, r2, asr #16
     300:	01828912 	orreq	r8, r2, r2, lsl r9
     304:	00011101 	andeq	r1, r1, r1, lsl #2
     308:	01011300 	mrseq	r1, SP_irq
     30c:	13011349 	movwne	r1, #4937	; 0x1349
     310:	21140000 	tstcs	r4, r0
     314:	2f134900 	svccs	0x00134900
     318:	15000005 	strne	r0, [r0, #-5]
     31c:	19270115 	stmdbne	r7!, {r0, r2, r4, r8}
     320:	13011349 	movwne	r1, #4937	; 0x1349
     324:	05160000 	ldreq	r0, [r6, #-0]
     328:	00134900 	andseq	r4, r3, r0, lsl #18
     32c:	00341700 	eorseq	r1, r4, r0, lsl #14
     330:	0b3a0e03 	bleq	e83b44 <__bss_end__+0xe7920c>
     334:	13490b3b 	movtne	r0, #39739	; 0x9b3b
     338:	193c193f 	ldmdbne	ip!, {r0, r1, r2, r3, r4, r5, r8, fp, ip}
     33c:	2e180000 	cdpcs	0, 1, cr0, cr8, cr0, {0}
     340:	03193f01 	tsteq	r9, #1, 30
     344:	3b0b3a0e 	blcc	2ceb84 <__bss_end__+0x2c424c>
     348:	4919270b 	ldmdbmi	r9, {r0, r1, r3, r8, r9, sl, sp}
     34c:	00193c13 	andseq	r3, r9, r3, lsl ip
     350:	11010000 	mrsne	r0, (UNDEF: 1)
     354:	130e2501 	movwne	r2, #58625	; 0xe501
     358:	1b0e030b 	blne	380f8c <__bss_end__+0x376654>
     35c:	1201110e 	andne	r1, r1, #-2147483645	; 0x80000003
     360:	00171006 	andseq	r1, r7, r6
     364:	00240200 	eoreq	r0, r4, r0, lsl #4
     368:	0b3e0b0b 	bleq	f82f9c <__bss_end__+0xf78664>
     36c:	00000803 	andeq	r0, r0, r3, lsl #16
     370:	0b002403 	bleq	9384 <gpio_int_falling_edge+0x64>
     374:	030b3e0b 	movweq	r3, #48651	; 0xbe0b
     378:	0400000e 	streq	r0, [r0], #-14
     37c:	0e03012e 	adfeqsp	f0, f3, #0.5
     380:	0b3b0b3a 	bleq	ec3070 <__bss_end__+0xeb8738>
     384:	13491927 	movtne	r1, #39207	; 0x9927
     388:	06120111 			; <UNDEFINED> instruction: 0x06120111
     38c:	42971840 	addsmi	r1, r7, #64, 16	; 0x400000
     390:	00130119 	andseq	r0, r3, r9, lsl r1
     394:	00050500 	andeq	r0, r5, r0, lsl #10
     398:	0b3a0803 	bleq	e823ac <__bss_end__+0xe77a74>
     39c:	13490b3b 	movtne	r0, #39739	; 0x9b3b
     3a0:	00001702 	andeq	r1, r0, r2, lsl #14
     3a4:	01828906 	orreq	r8, r2, r6, lsl #18
     3a8:	31011101 	tstcc	r1, r1, lsl #2
     3ac:	07000013 	smladeq	r0, r3, r0, r0
     3b0:	0001828a 	andeq	r8, r1, sl, lsl #5
     3b4:	42911802 	addsmi	r1, r1, #131072	; 0x20000
     3b8:	08000018 	stmdaeq	r0, {r3, r4}
     3bc:	193f002e 	ldmdbne	pc!, {r1, r2, r3, r5}	; <UNPREDICTABLE>
     3c0:	0b3a0e03 	bleq	e83bd4 <__bss_end__+0xe7929c>
     3c4:	19270b3b 	stmdbne	r7!, {r0, r1, r3, r4, r5, r8, r9, fp}
     3c8:	06120111 			; <UNDEFINED> instruction: 0x06120111
     3cc:	42971840 	addsmi	r1, r7, #64, 16	; 0x400000
     3d0:	09000019 	stmdbeq	r0, {r0, r3, r4}
     3d4:	193f012e 	ldmdbne	pc!, {r1, r2, r3, r5, r8}	; <UNPREDICTABLE>
     3d8:	0b3a0e03 	bleq	e83bec <__bss_end__+0xe792b4>
     3dc:	19270b3b 	stmdbne	r7!, {r0, r1, r3, r4, r5, r8, r9, fp}
     3e0:	06120111 			; <UNDEFINED> instruction: 0x06120111
     3e4:	42971840 	addsmi	r1, r7, #64, 16	; 0x400000
     3e8:	00130119 	andseq	r0, r3, r9, lsl r1
     3ec:	00050a00 	andeq	r0, r5, r0, lsl #20
     3f0:	0b3a0803 	bleq	e82404 <__bss_end__+0xe77acc>
     3f4:	13490b3b 	movtne	r0, #39739	; 0x9b3b
     3f8:	00001802 	andeq	r1, r0, r2, lsl #16
     3fc:	2701150b 	strcs	r1, [r1, -fp, lsl #10]
     400:	01134919 	tsteq	r3, r9, lsl r9
     404:	0c000013 	stceq	0, cr0, [r0], {19}
     408:	13490005 	movtne	r0, #36869	; 0x9005
     40c:	0f0d0000 	svceq	0x000d0000
     410:	490b0b00 	stmdbmi	fp, {r8, r9, fp}
     414:	0e000013 	mcreq	0, 0, r0, cr0, cr3, {0}
     418:	0e030034 	mcreq	0, 0, r0, cr3, cr4, {1}
     41c:	0b3b0b3a 	bleq	ec310c <__bss_end__+0xeb87d4>
     420:	193f1349 	ldmdbne	pc!, {r0, r3, r6, r8, r9, ip}	; <UNPREDICTABLE>
     424:	00001802 	andeq	r1, r0, r2, lsl #16
     428:	3f012e0f 	svccc	0x00012e0f
     42c:	3a0e0319 	bcc	381098 <__bss_end__+0x376760>
     430:	270b3b0b 	strcs	r3, [fp, -fp, lsl #22]
     434:	00193c19 	andseq	r3, r9, r9, lsl ip
     438:	11010000 	mrsne	r0, (UNDEF: 1)
     43c:	130e2501 	movwne	r2, #58625	; 0xe501
     440:	1b0e030b 	blne	381074 <__bss_end__+0x37673c>
     444:	1201110e 	andne	r1, r1, #-2147483645	; 0x80000003
     448:	00171006 	andseq	r1, r7, r6
     44c:	00240200 	eoreq	r0, r4, r0, lsl #4
     450:	0b3e0b0b 	bleq	f83084 <__bss_end__+0xf7874c>
     454:	00000803 	andeq	r0, r0, r3, lsl #16
     458:	0b002403 	bleq	946c <gpio_event_clear+0x44>
     45c:	030b3e0b 	movweq	r3, #48651	; 0xbe0b
     460:	0400000e 	streq	r0, [r0], #-14
     464:	0b0b000f 	bleq	2c04a8 <__bss_end__+0x2b5b70>
     468:	00001349 	andeq	r1, r0, r9, asr #6
     46c:	49002605 	stmdbmi	r0, {r0, r2, r9, sl, sp}
     470:	06000013 			; <UNDEFINED> instruction: 0x06000013
     474:	193f012e 	ldmdbne	pc!, {r1, r2, r3, r5, r8}	; <UNPREDICTABLE>
     478:	0b3a0e03 	bleq	e83c8c <__bss_end__+0xe79354>
     47c:	19270b3b 	stmdbne	r7!, {r0, r1, r3, r4, r5, r8, r9, fp}
     480:	01111349 	tsteq	r1, r9, asr #6
     484:	18400612 	stmdane	r0, {r1, r4, r9, sl}^
     488:	01194296 			; <UNDEFINED> instruction: 0x01194296
     48c:	07000013 	smladeq	r0, r3, r0, r0
     490:	08030005 	stmdaeq	r3, {r0, r2}
     494:	0b3b0b3a 	bleq	ec3184 <__bss_end__+0xeb884c>
     498:	17021349 	strne	r1, [r2, -r9, asr #6]
     49c:	15080000 	strne	r0, [r8, #-0]
     4a0:	49192701 	ldmdbmi	r9, {r0, r8, r9, sl, sp}
     4a4:	00130113 	andseq	r0, r3, r3, lsl r1
     4a8:	00050900 	andeq	r0, r5, r0, lsl #18
     4ac:	00001349 	andeq	r1, r0, r9, asr #6
     4b0:	0300340a 	movweq	r3, #1034	; 0x40a
     4b4:	3b0b3a0e 	blcc	2cecf4 <__bss_end__+0x2c43bc>
     4b8:	3f13490b 	svccc	0x0013490b
     4bc:	00193c19 	andseq	r3, r9, r9, lsl ip
     4c0:	00340b00 	eorseq	r0, r4, r0, lsl #22
     4c4:	0b3a0e03 	bleq	e83cd8 <__bss_end__+0xe793a0>
     4c8:	13490b3b 	movtne	r0, #39739	; 0x9b3b
     4cc:	1802193f 	stmdane	r2, {r0, r1, r2, r3, r4, r5, r8, fp, ip}
     4d0:	01000000 	mrseq	r0, (UNDEF: 0)
     4d4:	0e250111 	mcreq	1, 1, r0, cr5, cr1, {0}
     4d8:	0e030b13 	vmoveq.32	d3[0], r0
     4dc:	01110e1b 	tsteq	r1, fp, lsl lr
     4e0:	17100612 			; <UNDEFINED> instruction: 0x17100612
     4e4:	24020000 	strcs	r0, [r2], #-0
     4e8:	3e0b0b00 	vmlacc.f64	d0, d11, d0
     4ec:	0008030b 	andeq	r0, r8, fp, lsl #6
     4f0:	00240300 	eoreq	r0, r4, r0, lsl #6
     4f4:	0b3e0b0b 	bleq	f83128 <__bss_end__+0xf787f0>
     4f8:	00000e03 	andeq	r0, r0, r3, lsl #28
     4fc:	0b000f04 	bleq	4114 <_start-0x3eec>
     500:	0500000b 	streq	r0, [r0, #-11]
     504:	0b0b000f 	bleq	2c0548 <__bss_end__+0x2b5c10>
     508:	00001349 	andeq	r1, r0, r9, asr #6
     50c:	49002606 	stmdbmi	r0, {r1, r2, r9, sl, sp}
     510:	07000013 	smladeq	r0, r3, r0, r0
     514:	0e030016 	mcreq	0, 0, r0, cr3, cr6, {0}
     518:	0b3b0b3a 	bleq	ec3208 <__bss_end__+0xeb88d0>
     51c:	00001349 	andeq	r1, r0, r9, asr #6
     520:	03011308 	movweq	r1, #4872	; 0x1308
     524:	3a0b0b0e 	bcc	2c3164 <__bss_end__+0x2b882c>
     528:	010b3b0b 	tsteq	fp, fp, lsl #22
     52c:	09000013 	stmdbeq	r0, {r0, r1, r4}
     530:	0e03000d 	cdpeq	0, 0, cr0, cr3, cr13, {0}
     534:	0b381349 	bleq	e05260 <__bss_end__+0xdfa928>
     538:	00001934 	andeq	r1, r0, r4, lsr r9
     53c:	03012e0a 	movweq	r2, #7690	; 0x1e0a
     540:	3b0b3a0e 	blcc	2ced80 <__bss_end__+0x2c4448>
     544:	4919270b 	ldmdbmi	r9, {r0, r1, r3, r8, r9, sl, sp}
     548:	12011113 	andne	r1, r1, #-1073741820	; 0xc0000004
     54c:	97184006 	ldrls	r4, [r8, -r6]
     550:	13011942 	movwne	r1, #6466	; 0x1942
     554:	050b0000 	streq	r0, [fp, #-0]
     558:	3a080300 	bcc	201160 <__bss_end__+0x1f6828>
     55c:	490b3b0b 	stmdbmi	fp, {r0, r1, r3, r8, r9, fp, ip, sp}
     560:	00170213 	andseq	r0, r7, r3, lsl r2
     564:	012e0c00 	teqeq	lr, r0, lsl #24
     568:	0b3a0803 	bleq	e8257c <__bss_end__+0xe77c44>
     56c:	19270b3b 	stmdbne	r7!, {r0, r1, r3, r4, r5, r8, r9, fp}
     570:	01111349 	tsteq	r1, r9, asr #6
     574:	18400612 	stmdane	r0, {r1, r4, r9, sl}^
     578:	01194297 			; <UNDEFINED> instruction: 0x01194297
     57c:	0d000013 	stceq	0, cr0, [r0, #-76]	; 0xffffffb4
     580:	0e030005 	cdpeq	0, 0, cr0, cr3, cr5, {0}
     584:	0b3b0b3a 	bleq	ec3274 <__bss_end__+0xeb893c>
     588:	17021349 	strne	r1, [r2, -r9, asr #6]
     58c:	050e0000 	streq	r0, [lr, #-0]
     590:	3a0e0300 	bcc	381198 <__bss_end__+0x376860>
     594:	490b3b0b 	stmdbmi	fp, {r0, r1, r3, r8, r9, fp, ip, sp}
     598:	00180213 	andseq	r0, r8, r3, lsl r2
     59c:	00340f00 	eorseq	r0, r4, r0, lsl #30
     5a0:	0b3a0803 	bleq	e825b4 <__bss_end__+0xe77c7c>
     5a4:	13490b3b 	movtne	r0, #39739	; 0x9b3b
     5a8:	00001802 	andeq	r1, r0, r2, lsl #16
     5ac:	03003410 	movweq	r3, #1040	; 0x410
     5b0:	3b0b3a08 	blcc	2cedd8 <__bss_end__+0x2c44a0>
     5b4:	0213490b 	andseq	r4, r3, #180224	; 0x2c000
     5b8:	11000017 	tstne	r0, r7, lsl r0
     5bc:	0e030034 	mcreq	0, 0, r0, cr3, cr4, {1}
     5c0:	19341349 	ldmdbne	r4!, {r0, r3, r6, r8, r9, ip}
     5c4:	00001802 	andeq	r1, r0, r2, lsl #16
     5c8:	11010b12 	tstne	r1, r2, lsl fp
     5cc:	01061201 	tsteq	r6, r1, lsl #4
     5d0:	13000013 	movwne	r0, #19
     5d4:	0e030034 	mcreq	0, 0, r0, cr3, cr4, {1}
     5d8:	0b3b0b3a 	bleq	ec32c8 <__bss_end__+0xeb8990>
     5dc:	17021349 	strne	r1, [r2, -r9, asr #6]
     5e0:	89140000 	ldmdbhi	r4, {}	; <UNPREDICTABLE>
     5e4:	11000182 	smlabbne	r0, r2, r1, r0
     5e8:	00133101 	andseq	r3, r3, r1, lsl #2
     5ec:	82891500 	addhi	r1, r9, #0, 10
     5f0:	01110101 	tsteq	r1, r1, lsl #2
     5f4:	13011331 	movwne	r1, #4913	; 0x1331
     5f8:	8a160000 	bhi	580600 <__bss_end__+0x575cc8>
     5fc:	02000182 	andeq	r0, r0, #-2147483616	; 0x80000020
     600:	18429118 	stmdane	r2, {r3, r4, r8, ip, pc}^
     604:	89170000 	ldmdbhi	r7, {}	; <UNPREDICTABLE>
     608:	11010182 	smlabbne	r1, r2, r1, r0
     60c:	00133101 	andseq	r3, r3, r1, lsl #2
     610:	01011800 	tsteq	r1, r0, lsl #16
     614:	13011349 	movwne	r1, #4937	; 0x1349
     618:	21190000 	tstcs	r9, r0
     61c:	2f134900 	svccs	0x00134900
     620:	1a00000b 	bne	654 <_start-0x79ac>
     624:	193f012e 	ldmdbne	pc!, {r1, r2, r3, r5, r8}	; <UNPREDICTABLE>
     628:	0b3a0e03 	bleq	e83e3c <__bss_end__+0xe79504>
     62c:	19270b3b 	stmdbne	r7!, {r0, r1, r3, r4, r5, r8, r9, fp}
     630:	06120111 			; <UNDEFINED> instruction: 0x06120111
     634:	42971840 	addsmi	r1, r7, #64, 16	; 0x400000
     638:	00130119 	andseq	r0, r3, r9, lsl r1
     63c:	01151b00 	tsteq	r5, r0, lsl #22
     640:	13491927 	movtne	r1, #39207	; 0x9927
     644:	00001301 	andeq	r1, r0, r1, lsl #6
     648:	4900051c 	stmdbmi	r0, {r2, r3, r4, r8, sl}
     64c:	1d000013 	stcne	0, cr0, [r0, #-76]	; 0xffffffb4
     650:	193f012e 	ldmdbne	pc!, {r1, r2, r3, r5, r8}	; <UNPREDICTABLE>
     654:	0b3a0e03 	bleq	e83e68 <__bss_end__+0xe79530>
     658:	19270b3b 	stmdbne	r7!, {r0, r1, r3, r4, r5, r8, r9, fp}
     65c:	01111349 	tsteq	r1, r9, asr #6
     660:	18400612 	stmdane	r0, {r1, r4, r9, sl}^
     664:	01194297 			; <UNDEFINED> instruction: 0x01194297
     668:	1e000013 	mcrne	0, 0, r0, cr0, cr3, {0}
     66c:	1755010b 	ldrbne	r0, [r5, -fp, lsl #2]
     670:	341f0000 	ldrcc	r0, [pc], #-0	; 678 <_start-0x7988>
     674:	3a0e0300 	bcc	38127c <__bss_end__+0x376944>
     678:	490b3b0b 	stmdbmi	fp, {r0, r1, r3, r8, r9, fp, ip, sp}
     67c:	3c193f13 	ldccc	15, cr3, [r9], {19}
     680:	20000019 	andcs	r0, r0, r9, lsl r0
     684:	193f002e 	ldmdbne	pc!, {r1, r2, r3, r5}	; <UNPREDICTABLE>
     688:	0b3a0e03 	bleq	e83e9c <__bss_end__+0xe79564>
     68c:	19270b3b 	stmdbne	r7!, {r0, r1, r3, r4, r5, r8, r9, fp}
     690:	0000193c 	andeq	r1, r0, ip, lsr r9
     694:	3f012e21 	svccc	0x00012e21
     698:	3a0e0319 	bcc	381304 <__bss_end__+0x3769cc>
     69c:	270b3b0b 	strcs	r3, [fp, -fp, lsl #22]
     6a0:	3c134919 	ldccc	9, cr4, [r3], {25}
     6a4:	00130119 	andseq	r0, r3, r9, lsl r1
     6a8:	00182200 	andseq	r2, r8, r0, lsl #4
     6ac:	01000000 	mrseq	r0, (UNDEF: 0)
     6b0:	0e250111 	mcreq	1, 1, r0, cr5, cr1, {0}
     6b4:	0e030b13 	vmoveq.32	d3[0], r0
     6b8:	01110e1b 	tsteq	r1, fp, lsl lr
     6bc:	17100612 			; <UNDEFINED> instruction: 0x17100612
     6c0:	24020000 	strcs	r0, [r2], #-0
     6c4:	3e0b0b00 	vmlacc.f64	d0, d11, d0
     6c8:	0008030b 	andeq	r0, r8, fp, lsl #6
     6cc:	00240300 	eoreq	r0, r4, r0, lsl #6
     6d0:	0b3e0b0b 	bleq	f83304 <__bss_end__+0xf789cc>
     6d4:	00000e03 	andeq	r0, r0, r3, lsl #28
     6d8:	3f012e04 	svccc	0x00012e04
     6dc:	3a0e0319 	bcc	381348 <__bss_end__+0x376a10>
     6e0:	270b3b0b 	strcs	r3, [fp, -fp, lsl #22]
     6e4:	12011119 	andne	r1, r1, #1073741830	; 0x40000006
     6e8:	97184006 	ldrls	r4, [r8, -r6]
     6ec:	13011942 	movwne	r1, #6466	; 0x1942
     6f0:	34050000 	strcc	r0, [r5], #-0
     6f4:	3a080300 	bcc	2012fc <__bss_end__+0x1f69c4>
     6f8:	490b3b0b 	stmdbmi	fp, {r0, r1, r3, r8, r9, fp, ip, sp}
     6fc:	00170213 	andseq	r0, r7, r3, lsl r2
     700:	012e0600 	teqeq	lr, r0, lsl #12
     704:	0e03193f 	mcreq	9, 0, r1, cr3, cr15, {1}
     708:	0b3b0b3a 	bleq	ec33f8 <__bss_end__+0xeb8ac0>
     70c:	01111927 	tsteq	r1, r7, lsr #18
     710:	18400612 	stmdane	r0, {r1, r4, r9, sl}^
     714:	00194297 	mulseq	r9, r7, r2
     718:	11010000 	mrsne	r0, (UNDEF: 1)
     71c:	130e2501 	movwne	r2, #58625	; 0xe501
     720:	1b0e030b 	blne	381354 <__bss_end__+0x376a1c>
     724:	1201110e 	andne	r1, r1, #-2147483645	; 0x80000003
     728:	00171006 	andseq	r1, r7, r6
     72c:	00240200 	eoreq	r0, r4, r0, lsl #4
     730:	0b3e0b0b 	bleq	f83364 <__bss_end__+0xf78a2c>
     734:	00000803 	andeq	r0, r0, r3, lsl #16
     738:	0b002403 	bleq	974c <sw_uart_getc_timeout+0x178>
     73c:	030b3e0b 	movweq	r3, #48651	; 0xbe0b
     740:	0400000e 	streq	r0, [r0], #-14
     744:	0b0b000f 	bleq	2c0788 <__bss_end__+0x2b5e50>
     748:	00001349 	andeq	r1, r0, r9, asr #6
     74c:	49002605 	stmdbmi	r0, {r0, r2, r9, sl, sp}
     750:	06000013 			; <UNDEFINED> instruction: 0x06000013
     754:	193f012e 	ldmdbne	pc!, {r1, r2, r3, r5, r8}	; <UNPREDICTABLE>
     758:	0b3a0e03 	bleq	e83f6c <__bss_end__+0xe79634>
     75c:	19270b3b 	stmdbne	r7!, {r0, r1, r3, r4, r5, r8, r9, fp}
     760:	06120111 			; <UNDEFINED> instruction: 0x06120111
     764:	42971840 	addsmi	r1, r7, #64, 16	; 0x400000
     768:	00130119 	andseq	r0, r3, r9, lsl r1
     76c:	82890700 	addhi	r0, r9, #0, 14
     770:	01110101 	tsteq	r1, r1, lsl #2
     774:	00001301 	andeq	r1, r0, r1, lsl #6
     778:	01828a08 	orreq	r8, r2, r8, lsl #20
     77c:	91180200 	tstls	r8, r0, lsl #4
     780:	00001842 	andeq	r1, r0, r2, asr #16
     784:	01828909 	orreq	r8, r2, r9, lsl #18
     788:	31011101 	tstcc	r1, r1, lsl #2
     78c:	00130113 	andseq	r0, r3, r3, lsl r1
     790:	82890a00 	addhi	r0, r9, #0, 20
     794:	01110001 	tsteq	r1, r1
     798:	00001331 	andeq	r1, r0, r1, lsr r3
     79c:	2701150b 	strcs	r1, [r1, -fp, lsl #10]
     7a0:	01134919 	tsteq	r3, r9, lsl r9
     7a4:	0c000013 	stceq	0, cr0, [r0], {19}
     7a8:	13490005 	movtne	r0, #36869	; 0x9005
     7ac:	340d0000 	strcc	r0, [sp], #-0
     7b0:	3a0e0300 	bcc	3813b8 <__bss_end__+0x376a80>
     7b4:	490b3b0b 	stmdbmi	fp, {r0, r1, r3, r8, r9, fp, ip, sp}
     7b8:	3c193f13 	ldccc	15, cr3, [r9], {19}
     7bc:	0e000019 	mcreq	0, 0, r0, cr0, cr9, {0}
     7c0:	193f012e 	ldmdbne	pc!, {r1, r2, r3, r5, r8}	; <UNPREDICTABLE>
     7c4:	0b3a0e03 	bleq	e83fd8 <__bss_end__+0xe796a0>
     7c8:	19270b3b 	stmdbne	r7!, {r0, r1, r3, r4, r5, r8, r9, fp}
     7cc:	1301193c 	movwne	r1, #6460	; 0x193c
     7d0:	2e0f0000 	cdpcs	0, 0, cr0, cr15, cr0, {0}
     7d4:	03193f00 	tsteq	r9, #0, 30
     7d8:	3b0b3a0e 	blcc	2cf018 <__bss_end__+0x2c46e0>
     7dc:	3c19270b 	ldccc	7, cr2, [r9], {11}
     7e0:	00000019 	andeq	r0, r0, r9, lsl r0
     7e4:	25011101 	strcs	r1, [r1, #-257]	; 0x101
     7e8:	030b130e 	movweq	r1, #45838	; 0xb30e
     7ec:	110e1b0e 	tstne	lr, lr, lsl #22
     7f0:	10061201 	andne	r1, r6, r1, lsl #4
     7f4:	02000017 	andeq	r0, r0, #23
     7f8:	0b0b0024 	bleq	2c0890 <__bss_end__+0x2b5f58>
     7fc:	08030b3e 	stmdaeq	r3, {r1, r2, r3, r4, r5, r8, r9, fp}
     800:	24030000 	strcs	r0, [r3], #-0
     804:	3e0b0b00 	vmlacc.f64	d0, d11, d0
     808:	000e030b 	andeq	r0, lr, fp, lsl #6
     80c:	00160400 	andseq	r0, r6, r0, lsl #8
     810:	0b3a0e03 	bleq	e84024 <__bss_end__+0xe796ec>
     814:	13490b3b 	movtne	r0, #39739	; 0x9b3b
     818:	0f050000 	svceq	0x00050000
     81c:	490b0b00 	stmdbmi	fp, {r8, r9, fp}
     820:	06000013 			; <UNDEFINED> instruction: 0x06000013
     824:	13490026 	movtne	r0, #36902	; 0x9026
     828:	13070000 	movwne	r0, #28672	; 0x7000
     82c:	3a0b0b01 	bcc	2c3438 <__bss_end__+0x2b8b00>
     830:	010b3b0b 	tsteq	fp, fp, lsl #22
     834:	08000013 	stmdaeq	r0, {r0, r1, r4}
     838:	0803000d 	stmdaeq	r3, {r0, r2, r3}
     83c:	0b3b0b3a 	bleq	ec352c <__bss_end__+0xeb8bf4>
     840:	0b381349 	bleq	e0556c <__bss_end__+0xdfac34>
     844:	0d090000 	stceq	0, cr0, [r9, #-0]
     848:	3a0e0300 	bcc	381450 <__bss_end__+0x376b18>
     84c:	490b3b0b 	stmdbmi	fp, {r0, r1, r3, r8, r9, fp, ip, sp}
     850:	000b3813 	andeq	r3, fp, r3, lsl r8
     854:	01040a00 	tsteq	r4, r0, lsl #20
     858:	0b3a0b0b 	bleq	e8348c <__bss_end__+0xe78b54>
     85c:	13010b3b 	movwne	r0, #6971	; 0x1b3b
     860:	280b0000 	stmdacs	fp, {}	; <UNPREDICTABLE>
     864:	1c0e0300 	stcne	3, cr0, [lr], {-0}
     868:	0c00000d 	stceq	0, cr0, [r0], {13}
     86c:	0e03012e 	adfeqsp	f0, f3, #0.5
     870:	0b3b0b3a 	bleq	ec3560 <__bss_end__+0xeb8c28>
     874:	13491927 	movtne	r1, #39207	; 0x9927
     878:	06120111 			; <UNDEFINED> instruction: 0x06120111
     87c:	42971840 	addsmi	r1, r7, #64, 16	; 0x400000
     880:	00130119 	andseq	r0, r3, r9, lsl r1
     884:	00050d00 	andeq	r0, r5, r0, lsl #26
     888:	0b3a0803 	bleq	e8289c <__bss_end__+0xe77f64>
     88c:	13490b3b 	movtne	r0, #39739	; 0x9b3b
     890:	00001702 	andeq	r1, r0, r2, lsl #14
     894:	0182890e 	orreq	r8, r2, lr, lsl #18
     898:	31011101 	tstcc	r1, r1, lsl #2
     89c:	0f000013 	svceq	0x00000013
     8a0:	0001828a 	andeq	r8, r1, sl, lsl #5
     8a4:	42911802 	addsmi	r1, r1, #131072	; 0x20000
     8a8:	10000018 	andne	r0, r0, r8, lsl r0
     8ac:	193f012e 	ldmdbne	pc!, {r1, r2, r3, r5, r8}	; <UNPREDICTABLE>
     8b0:	0b3a0e03 	bleq	e840c4 <__bss_end__+0xe7978c>
     8b4:	01110b3b 	tsteq	r1, fp, lsr fp
     8b8:	18400612 	stmdane	r0, {r1, r4, r9, sl}^
     8bc:	01194297 			; <UNDEFINED> instruction: 0x01194297
     8c0:	11000013 	tstne	r0, r3, lsl r0
     8c4:	0e030034 	mcreq	0, 0, r0, cr3, cr4, {1}
     8c8:	0b3b0b3a 	bleq	ec35b8 <__bss_end__+0xeb8c80>
     8cc:	193f1349 	ldmdbne	pc!, {r0, r3, r6, r8, r9, ip}	; <UNPREDICTABLE>
     8d0:	0000193c 	andeq	r1, r0, ip, lsr r9
     8d4:	3f002e12 	svccc	0x00002e12
     8d8:	3a0e0319 	bcc	381544 <__bss_end__+0x376c0c>
     8dc:	270b3b0b 	strcs	r3, [fp, -fp, lsl #22]
     8e0:	00193c19 	andseq	r3, r9, r9, lsl ip
     8e4:	00341300 	eorseq	r1, r4, r0, lsl #6
     8e8:	0b3a0803 	bleq	e828fc <__bss_end__+0xe77fc4>
     8ec:	13490b3b 	movtne	r0, #39739	; 0x9b3b
     8f0:	00001702 	andeq	r1, r0, r2, lsl #14
     8f4:	03003414 	movweq	r3, #1044	; 0x414
     8f8:	3b0b3a0e 	blcc	2cf138 <__bss_end__+0x2c4800>
     8fc:	0013490b 	andseq	r4, r3, fp, lsl #18
     900:	82891500 	addhi	r1, r9, #0, 10
     904:	01110001 	tsteq	r1, r1
     908:	00001331 	andeq	r1, r0, r1, lsr r3
     90c:	01828916 	orreq	r8, r2, r6, lsl r9
     910:	31011101 	tstcc	r1, r1, lsl #2
     914:	00130113 	andseq	r0, r3, r3, lsl r1
     918:	00341700 	eorseq	r1, r4, r0, lsl #14
     91c:	0b3a0e03 	bleq	e84130 <__bss_end__+0xe797f8>
     920:	13490b3b 	movtne	r0, #39739	; 0x9b3b
     924:	00001802 	andeq	r1, r0, r2, lsl #16
     928:	27011518 	smladcs	r1, r8, r5, r1
     92c:	01134919 	tsteq	r3, r9, lsl r9
     930:	19000013 	stmdbne	r0, {r0, r1, r4}
     934:	13490005 	movtne	r0, #36869	; 0x9005
     938:	2e1a0000 	cdpcs	0, 1, cr0, cr10, cr0, {0}
     93c:	03193f01 	tsteq	r9, #1, 30
     940:	3b0b3a0e 	blcc	2cf180 <__bss_end__+0x2c4848>
     944:	3c19270b 	ldccc	7, cr2, [r9], {11}
     948:	00130119 	andseq	r0, r3, r9, lsl r1
     94c:	002e1b00 	eoreq	r1, lr, r0, lsl #22
     950:	0e03193f 	mcreq	9, 0, r1, cr3, cr15, {1}
     954:	0b3b0b3a 	bleq	ec3644 <__bss_end__+0xeb8d0c>
     958:	13491927 	movtne	r1, #39207	; 0x9927
     95c:	0000193c 	andeq	r1, r0, ip, lsr r9
     960:	3f012e1c 	svccc	0x00012e1c
     964:	3a0e0319 	bcc	3815d0 <__bss_end__+0x376c98>
     968:	270b3b0b 	strcs	r3, [fp, -fp, lsl #22]
     96c:	3c134919 	ldccc	9, cr4, [r3], {25}
     970:	00130119 	andseq	r0, r3, r9, lsl r1
     974:	00181d00 	andseq	r1, r8, r0, lsl #26
     978:	01000000 	mrseq	r0, (UNDEF: 0)
     97c:	0e250111 	mcreq	1, 1, r0, cr5, cr1, {0}
     980:	0e030b13 	vmoveq.32	d3[0], r0
     984:	17550e1b 	smmlane	r5, fp, lr, r0
     988:	17100111 			; <UNDEFINED> instruction: 0x17100111
     98c:	24020000 	strcs	r0, [r2], #-0
     990:	3e0b0b00 	vmlacc.f64	d0, d11, d0
     994:	0008030b 	andeq	r0, r8, fp, lsl #6
     998:	00240300 	eoreq	r0, r4, r0, lsl #6
     99c:	0b3e0b0b 	bleq	f835d0 <__bss_end__+0xf78c98>
     9a0:	00000e03 	andeq	r0, r0, r3, lsl #28
     9a4:	3f012e04 	svccc	0x00012e04
     9a8:	3a0e0319 	bcc	381614 <__bss_end__+0x376cdc>
     9ac:	270b3b0b 	strcs	r3, [fp, -fp, lsl #22]
     9b0:	11134919 	tstne	r3, r9, lsl r9
     9b4:	40061201 	andmi	r1, r6, r1, lsl #4
     9b8:	19429718 	stmdbne	r2, {r3, r4, r8, r9, sl, ip, pc}^
     9bc:	00001301 	andeq	r1, r0, r1, lsl #6
     9c0:	03003405 	movweq	r3, #1029	; 0x405
     9c4:	3b0b3a0e 	blcc	2cf204 <__bss_end__+0x2c48cc>
     9c8:	0213490b 	andseq	r4, r3, #180224	; 0x2c000
     9cc:	06000017 			; <UNDEFINED> instruction: 0x06000017
     9d0:	193f012e 	ldmdbne	pc!, {r1, r2, r3, r5, r8}	; <UNPREDICTABLE>
     9d4:	0b3a0e03 	bleq	e841e8 <__bss_end__+0xe798b0>
     9d8:	19270b3b 	stmdbne	r7!, {r0, r1, r3, r4, r5, r8, r9, fp}
     9dc:	06120111 			; <UNDEFINED> instruction: 0x06120111
     9e0:	42971840 	addsmi	r1, r7, #64, 16	; 0x400000
     9e4:	00130119 	andseq	r0, r3, r9, lsl r1
     9e8:	00340700 	eorseq	r0, r4, r0, lsl #14
     9ec:	0b3a0e03 	bleq	e84200 <__bss_end__+0xe798c8>
     9f0:	13490b3b 	movtne	r0, #39739	; 0x9b3b
     9f4:	0000061c 	andeq	r0, r0, ip, lsl r6
     9f8:	03003408 	movweq	r3, #1032	; 0x408
     9fc:	3b0b3a0e 	blcc	2cf23c <__bss_end__+0x2c4904>
     a00:	1c13490b 	ldcne	9, cr4, [r3], {11}
     a04:	0900000b 	stmdbeq	r0, {r0, r1, r3}
     a08:	00018289 	andeq	r8, r1, r9, lsl #5
     a0c:	13310111 	teqne	r1, #1073741828	; 0x40000004
     a10:	890a0000 	stmdbhi	sl, {}	; <UNPREDICTABLE>
     a14:	11010182 	smlabbne	r1, r2, r1, r0
     a18:	01133101 	tsteq	r3, r1, lsl #2
     a1c:	0b000013 	bleq	a70 <_start-0x7590>
     a20:	0001828a 	andeq	r8, r1, sl, lsl #5
     a24:	42911802 	addsmi	r1, r1, #131072	; 0x20000
     a28:	0c000018 	stceq	0, cr0, [r0], {24}
     a2c:	01018289 	smlabbeq	r1, r9, r2, r8
     a30:	13310111 	teqne	r1, #1073741828	; 0x40000004
     a34:	260d0000 	strcs	r0, [sp], -r0
     a38:	00134900 	andseq	r4, r3, r0, lsl #18
     a3c:	012e0e00 	teqeq	lr, r0, lsl #28
     a40:	0e03193f 	mcreq	9, 0, r1, cr3, cr15, {1}
     a44:	0b3b0b3a 	bleq	ec3734 <__bss_end__+0xeb8dfc>
     a48:	193c1927 	ldmdbne	ip!, {r0, r1, r2, r5, r8, fp, ip}
     a4c:	00001301 	andeq	r1, r0, r1, lsl #6
     a50:	4900050f 	stmdbmi	r0, {r0, r1, r2, r3, r8, sl}
     a54:	10000013 	andne	r0, r0, r3, lsl r0
     a58:	193f012e 	ldmdbne	pc!, {r1, r2, r3, r5, r8}	; <UNPREDICTABLE>
     a5c:	0b3a0e03 	bleq	e84270 <__bss_end__+0xe79938>
     a60:	19270b3b 	stmdbne	r7!, {r0, r1, r3, r4, r5, r8, r9, fp}
     a64:	0000193c 	andeq	r1, r0, ip, lsr r9
     a68:	01110100 	tsteq	r1, r0, lsl #2
     a6c:	0b130e25 	bleq	4c4308 <__bss_end__+0x4b99d0>
     a70:	0e1b0e03 	cdpeq	14, 1, cr0, cr11, cr3, {0}
     a74:	06120111 			; <UNDEFINED> instruction: 0x06120111
     a78:	00001710 	andeq	r1, r0, r0, lsl r7
     a7c:	0b002402 	bleq	9a8c <sw_uart_printk+0x80>
     a80:	030b3e0b 	movweq	r3, #48651	; 0xbe0b
     a84:	03000008 	movweq	r0, #8
     a88:	0b0b0024 	bleq	2c0b20 <__bss_end__+0x2b61e8>
     a8c:	0e030b3e 	vmoveq.16	d3[0], r0
     a90:	2e040000 	cdpcs	0, 0, cr0, cr4, cr0, {0}
     a94:	03193f01 	tsteq	r9, #1, 30
     a98:	3b0b3a0e 	blcc	2cf2d8 <__bss_end__+0x2c49a0>
     a9c:	1119270b 	tstne	r9, fp, lsl #14
     aa0:	40061201 	andmi	r1, r6, r1, lsl #4
     aa4:	19429718 	stmdbne	r2, {r3, r4, r8, r9, sl, ip, pc}^
     aa8:	00001301 	andeq	r1, r0, r1, lsl #6
     aac:	03000505 	movweq	r0, #1285	; 0x505
     ab0:	3b0b3a0e 	blcc	2cf2f0 <__bss_end__+0x2c49b8>
     ab4:	0213490b 	andseq	r4, r3, #180224	; 0x2c000
     ab8:	06000017 			; <UNDEFINED> instruction: 0x06000017
     abc:	193f012e 	ldmdbne	pc!, {r1, r2, r3, r5, r8}	; <UNPREDICTABLE>
     ac0:	0b3a0e03 	bleq	e842d4 <__bss_end__+0xe7999c>
     ac4:	19270b3b 	stmdbne	r7!, {r0, r1, r3, r4, r5, r8, r9, fp}
     ac8:	01111349 	tsteq	r1, r9, asr #6
     acc:	18400612 	stmdane	r0, {r1, r4, r9, sl}^
     ad0:	01194297 			; <UNDEFINED> instruction: 0x01194297
     ad4:	07000013 	smladeq	r0, r3, r0, r0
     ad8:	01018289 	smlabbeq	r1, r9, r2, r8
     adc:	13310111 	teqne	r1, #1073741828	; 0x40000004
     ae0:	8a080000 	bhi	200ae8 <__bss_end__+0x1f61b0>
     ae4:	02000182 	andeq	r0, r0, #-2147483616	; 0x80000020
     ae8:	18429118 	stmdane	r2, {r3, r4, r8, ip, pc}^
     aec:	34090000 	strcc	r0, [r9], #-0
     af0:	3a080300 	bcc	2016f8 <__bss_end__+0x1f6dc0>
     af4:	490b3b0b 	stmdbmi	fp, {r0, r1, r3, r8, r9, fp, ip, sp}
     af8:	00180213 	andseq	r0, r8, r3, lsl r2
     afc:	82890a00 	addhi	r0, r9, #0, 20
     b00:	01110001 	tsteq	r1, r1
     b04:	00001331 	andeq	r1, r0, r1, lsr r3
     b08:	0300050b 	movweq	r0, #1291	; 0x50b
     b0c:	3b0b3a08 	blcc	2cf334 <__bss_end__+0x2c49fc>
     b10:	0213490b 	andseq	r4, r3, #180224	; 0x2c000
     b14:	0c000017 	stceq	0, cr0, [r0], {23}
     b18:	0111010b 	tsteq	r1, fp, lsl #2
     b1c:	13010612 	movwne	r0, #5650	; 0x1612
     b20:	340d0000 	strcc	r0, [sp], #-0
     b24:	3a080300 	bcc	20172c <__bss_end__+0x1f6df4>
     b28:	490b3b0b 	stmdbmi	fp, {r0, r1, r3, r8, r9, fp, ip, sp}
     b2c:	00170213 	andseq	r0, r7, r3, lsl r2
     b30:	012e0e00 	teqeq	lr, r0, lsl #28
     b34:	0e03193f 	mcreq	9, 0, r1, cr3, cr15, {1}
     b38:	0b3b0b3a 	bleq	ec3828 <__bss_end__+0xeb8ef0>
     b3c:	13491927 	movtne	r1, #39207	; 0x9927
     b40:	0000193c 	andeq	r1, r0, ip, lsr r9
     b44:	4900050f 	stmdbmi	r0, {r0, r1, r2, r3, r8, sl}
     b48:	00000013 	andeq	r0, r0, r3, lsl r0
     b4c:	25011101 	strcs	r1, [r1, #-257]	; 0x101
     b50:	030b130e 	movweq	r1, #45838	; 0xb30e
     b54:	110e1b0e 	tstne	lr, lr, lsl #22
     b58:	10061201 	andne	r1, r6, r1, lsl #4
     b5c:	02000017 	andeq	r0, r0, #23
     b60:	0b0b0024 	bleq	2c0bf8 <__bss_end__+0x2b62c0>
     b64:	0e030b3e 	vmoveq.16	d3[0], r0
     b68:	24030000 	strcs	r0, [r3], #-0
     b6c:	3e0b0b00 	vmlacc.f64	d0, d11, d0
     b70:	0008030b 	andeq	r0, r8, fp, lsl #6
     b74:	01040400 	tsteq	r4, r0, lsl #8
     b78:	0b3a0b0b 	bleq	e837ac <__bss_end__+0xe78e74>
     b7c:	13010b3b 	movwne	r0, #6971	; 0x1b3b
     b80:	28050000 	stmdacs	r5, {}	; <UNPREDICTABLE>
     b84:	1c0e0300 	stcne	3, cr0, [lr], {-0}
     b88:	0600000d 	streq	r0, [r0], -sp
     b8c:	0e030016 	mcreq	0, 0, r0, cr3, cr6, {0}
     b90:	0b3b0b3a 	bleq	ec3880 <__bss_end__+0xeb8f48>
     b94:	00001349 	andeq	r1, r0, r9, asr #6
     b98:	3f012e07 	svccc	0x00012e07
     b9c:	3a0e0319 	bcc	381808 <__bss_end__+0x376ed0>
     ba0:	270b3b0b 	strcs	r3, [fp, -fp, lsl #22]
     ba4:	12011119 	andne	r1, r1, #1073741830	; 0x40000006
     ba8:	97184006 	ldrls	r4, [r8, -r6]
     bac:	13011942 	movwne	r1, #6466	; 0x1942
     bb0:	05080000 	streq	r0, [r8, #-0]
     bb4:	3a080300 	bcc	2017bc <__bss_end__+0x1f6e84>
     bb8:	490b3b0b 	stmdbmi	fp, {r0, r1, r3, r8, r9, fp, ip, sp}
     bbc:	00170213 	andseq	r0, r7, r3, lsl r2
     bc0:	00340900 	eorseq	r0, r4, r0, lsl #18
     bc4:	0b3a0e03 	bleq	e843d8 <__bss_end__+0xe79aa0>
     bc8:	13490b3b 	movtne	r0, #39739	; 0x9b3b
     bcc:	00001702 	andeq	r1, r0, r2, lsl #14
     bd0:	0182890a 	orreq	r8, r2, sl, lsl #18
     bd4:	31011101 	tstcc	r1, r1, lsl #2
     bd8:	00130113 	andseq	r0, r3, r3, lsl r1
     bdc:	828a0b00 	addhi	r0, sl, #0, 22
     be0:	18020001 	stmdane	r2, {r0}
     be4:	00184291 	mulseq	r8, r1, r2
     be8:	82890c00 	addhi	r0, r9, #0, 24
     bec:	01110101 	tsteq	r1, r1, lsl #2
     bf0:	00001331 	andeq	r1, r0, r1, lsr r3
     bf4:	0b000f0d 	bleq	4830 <_start-0x37d0>
     bf8:	0013490b 	andseq	r4, r3, fp, lsl #18
     bfc:	00350e00 	eorseq	r0, r5, r0, lsl #28
     c00:	00001349 	andeq	r1, r0, r9, asr #6
     c04:	3f012e0f 	svccc	0x00012e0f
     c08:	3a0e0319 	bcc	381874 <__bss_end__+0x376f3c>
     c0c:	270b3b0b 	strcs	r3, [fp, -fp, lsl #22]
     c10:	11134919 	tstne	r3, r9, lsl r9
     c14:	40061201 	andmi	r1, r6, r1, lsl #4
     c18:	19429718 	stmdbne	r2, {r3, r4, r8, r9, sl, ip, pc}^
     c1c:	00001301 	andeq	r1, r0, r1, lsl #6
     c20:	03003410 	movweq	r3, #1040	; 0x410
     c24:	3b0b3a08 	blcc	2cf44c <__bss_end__+0x2c4b14>
     c28:	0213490b 	andseq	r4, r3, #180224	; 0x2c000
     c2c:	11000017 	tstne	r0, r7, lsl r0
     c30:	00018289 	andeq	r8, r1, r9, lsl #5
     c34:	13310111 	teqne	r1, #1073741828	; 0x40000004
     c38:	05120000 	ldreq	r0, [r2, #-0]
     c3c:	3a0e0300 	bcc	381844 <__bss_end__+0x376f0c>
     c40:	490b3b0b 	stmdbmi	fp, {r0, r1, r3, r8, r9, fp, ip, sp}
     c44:	00170213 	andseq	r0, r7, r3, lsl r2
     c48:	012e1300 	teqeq	lr, r0, lsl #6
     c4c:	0e03193f 	mcreq	9, 0, r1, cr3, cr15, {1}
     c50:	053b0b3a 	ldreq	r0, [fp, #-2874]!	; 0xb3a
     c54:	13491927 	movtne	r1, #39207	; 0x9927
     c58:	06120111 			; <UNDEFINED> instruction: 0x06120111
     c5c:	42971840 	addsmi	r1, r7, #64, 16	; 0x400000
     c60:	00130119 	andseq	r0, r3, r9, lsl r1
     c64:	00051400 	andeq	r1, r5, r0, lsl #8
     c68:	0b3a0e03 	bleq	e8447c <__bss_end__+0xe79b44>
     c6c:	1349053b 	movtne	r0, #38203	; 0x953b
     c70:	00001702 	andeq	r1, r0, r2, lsl #14
     c74:	3f012e15 	svccc	0x00012e15
     c78:	3a0e0319 	bcc	3818e4 <__bss_end__+0x376fac>
     c7c:	27053b0b 	strcs	r3, [r5, -fp, lsl #22]
     c80:	12011119 	andne	r1, r1, #1073741830	; 0x40000006
     c84:	97184006 	ldrls	r4, [r8, -r6]
     c88:	13011942 	movwne	r1, #6466	; 0x1942
     c8c:	05160000 	ldreq	r0, [r6, #-0]
     c90:	3a080300 	bcc	201898 <__bss_end__+0x1f6f60>
     c94:	49053b0b 	stmdbmi	r5, {r0, r1, r3, r8, r9, fp, ip, sp}
     c98:	00170213 	andseq	r0, r7, r3, lsl r2
     c9c:	00341700 	eorseq	r1, r4, r0, lsl #14
     ca0:	0b3a0e03 	bleq	e844b4 <__bss_end__+0xe79b7c>
     ca4:	1349053b 	movtne	r0, #38203	; 0x953b
     ca8:	00001702 	andeq	r1, r0, r2, lsl #14
     cac:	11010b18 	tstne	r1, r8, lsl fp
     cb0:	01061201 	tsteq	r6, r1, lsl #4
     cb4:	19000013 	stmdbne	r0, {r0, r1, r4}
     cb8:	0e030034 	mcreq	0, 0, r0, cr3, cr4, {1}
     cbc:	0b3b0b3a 	bleq	ec39ac <__bss_end__+0xeb9074>
     cc0:	193f1349 	ldmdbne	pc!, {r0, r3, r6, r8, r9, ip}	; <UNPREDICTABLE>
     cc4:	00001802 	andeq	r1, r0, r2, lsl #16
     cc8:	0300341a 	movweq	r3, #1050	; 0x41a
     ccc:	3b0b3a0e 	blcc	2cf50c <__bss_end__+0x2c4bd4>
     cd0:	3f134905 	svccc	0x00134905
     cd4:	00180219 	andseq	r0, r8, r9, lsl r2
     cd8:	012e1b00 	teqeq	lr, r0, lsl #22
     cdc:	0e03193f 	mcreq	9, 0, r1, cr3, cr15, {1}
     ce0:	0b3b0b3a 	bleq	ec39d0 <__bss_end__+0xeb9098>
     ce4:	13491927 	movtne	r1, #39207	; 0x9927
     ce8:	1301193c 	movwne	r1, #6460	; 0x193c
     cec:	051c0000 	ldreq	r0, [ip, #-0]
     cf0:	00134900 	andseq	r4, r3, r0, lsl #18
     cf4:	00261d00 	eoreq	r1, r6, r0, lsl #26
     cf8:	00001349 	andeq	r1, r0, r9, asr #6
     cfc:	0000351e 	andeq	r3, r0, lr, lsl r5
     d00:	012e1f00 	teqeq	lr, r0, lsl #30
     d04:	0e03193f 	mcreq	9, 0, r1, cr3, cr15, {1}
     d08:	0b3b0b3a 	bleq	ec39f8 <__bss_end__+0xeb90c0>
     d0c:	193c1927 	ldmdbne	ip!, {r0, r1, r2, r5, r8, fp, ip}
     d10:	00001301 	andeq	r1, r0, r1, lsl #6
     d14:	3f002e20 	svccc	0x00002e20
     d18:	3a0e0319 	bcc	381984 <__bss_end__+0x37704c>
     d1c:	270b3b0b 	strcs	r3, [fp, -fp, lsl #22]
     d20:	00193c19 	andseq	r3, r9, r9, lsl ip
     d24:	11010000 	mrsne	r0, (UNDEF: 1)
     d28:	130e2501 	movwne	r2, #58625	; 0xe501
     d2c:	1b0e030b 	blne	381960 <__bss_end__+0x377028>
     d30:	1201110e 	andne	r1, r1, #-2147483645	; 0x80000003
     d34:	00171006 	andseq	r1, r7, r6
     d38:	00240200 	eoreq	r0, r4, r0, lsl #4
     d3c:	0b3e0b0b 	bleq	f83970 <__bss_end__+0xf79038>
     d40:	00000803 	andeq	r0, r0, r3, lsl #16
     d44:	0b002403 	bleq	9d58 <system_enable_interrupts+0xc>
     d48:	030b3e0b 	movweq	r3, #48651	; 0xbe0b
     d4c:	0400000e 	streq	r0, [r0], #-14
     d50:	0e030016 	mcreq	0, 0, r0, cr3, cr6, {0}
     d54:	0b3b0b3a 	bleq	ec3a44 <__bss_end__+0xeb910c>
     d58:	00001349 	andeq	r1, r0, r9, asr #6
     d5c:	0b000f05 	bleq	4978 <_start-0x3688>
     d60:	0600000b 	streq	r0, [r0], -fp
     d64:	0b0b000f 	bleq	2c0da8 <__bss_end__+0x2b6470>
     d68:	00001349 	andeq	r1, r0, r9, asr #6
     d6c:	49002607 	stmdbmi	r0, {r0, r1, r2, r9, sl, sp}
     d70:	08000013 	stmdaeq	r0, {r0, r1, r4}
     d74:	0b0b0113 	bleq	2c11c8 <__bss_end__+0x2b6890>
     d78:	0b3b0b3a 	bleq	ec3a68 <__bss_end__+0xeb9130>
     d7c:	00001301 	andeq	r1, r0, r1, lsl #6
     d80:	03000d09 	movweq	r0, #3337	; 0xd09
     d84:	3b0b3a08 	blcc	2cf5ac <__bss_end__+0x2c4c74>
     d88:	3813490b 	ldmdacc	r3, {r0, r1, r3, r8, fp, lr}
     d8c:	0a00000b 	beq	dc0 <_start-0x7240>
     d90:	0e03000d 	cdpeq	0, 0, cr0, cr3, cr13, {0}
     d94:	0b3b0b3a 	bleq	ec3a84 <__bss_end__+0xeb914c>
     d98:	0b381349 	bleq	e05ac4 <__bss_end__+0xdfb18c>
     d9c:	130b0000 	movwne	r0, #45056	; 0xb000
     da0:	0b0e0301 	bleq	3819ac <__bss_end__+0x377074>
     da4:	3b0b3a0b 	blcc	2cf5d8 <__bss_end__+0x2c4ca0>
     da8:	0013010b 	andseq	r0, r3, fp, lsl #2
     dac:	000d0c00 	andeq	r0, sp, r0, lsl #24
     db0:	13490e03 	movtne	r0, #40451	; 0x9e03
     db4:	19340b38 	ldmdbne	r4!, {r3, r4, r5, r8, r9, fp}
     db8:	2e0d0000 	cdpcs	0, 0, cr0, cr13, cr0, {0}
     dbc:	3a0e0301 	bcc	3819c8 <__bss_end__+0x377090>
     dc0:	270b3b0b 	strcs	r3, [fp, -fp, lsl #22]
     dc4:	010b2019 	tsteq	fp, r9, lsl r0
     dc8:	0e000013 	mcreq	0, 0, r0, cr0, cr3, {0}
     dcc:	0e030005 	cdpeq	0, 0, cr0, cr3, cr5, {0}
     dd0:	0b3b0b3a 	bleq	ec3ac0 <__bss_end__+0xeb9188>
     dd4:	00001349 	andeq	r1, r0, r9, asr #6
     dd8:	0300050f 	movweq	r0, #1295	; 0x50f
     ddc:	3b0b3a08 	blcc	2cf604 <__bss_end__+0x2c4ccc>
     de0:	0013490b 	andseq	r4, r3, fp, lsl #18
     de4:	010b1000 	mrseq	r1, (UNDEF: 11)
     de8:	34110000 	ldrcc	r0, [r1], #-0
     dec:	3a0e0300 	bcc	3819f4 <__bss_end__+0x3770bc>
     df0:	490b3b0b 	stmdbmi	fp, {r0, r1, r3, r8, r9, fp, ip, sp}
     df4:	12000013 	andne	r0, r0, #19
     df8:	193f012e 	ldmdbne	pc!, {r1, r2, r3, r5, r8}	; <UNPREDICTABLE>
     dfc:	0b3a0e03 	bleq	e84610 <__bss_end__+0xe79cd8>
     e00:	19270b3b 	stmdbne	r7!, {r0, r1, r3, r4, r5, r8, r9, fp}
     e04:	06120111 			; <UNDEFINED> instruction: 0x06120111
     e08:	42971840 	addsmi	r1, r7, #64, 16	; 0x400000
     e0c:	00130119 	andseq	r0, r3, r9, lsl r1
     e10:	00051300 	andeq	r1, r5, r0, lsl #6
     e14:	0b3a0e03 	bleq	e84628 <__bss_end__+0xe79cf0>
     e18:	13490b3b 	movtne	r0, #39739	; 0x9b3b
     e1c:	00001702 	andeq	r1, r0, r2, lsl #14
     e20:	03000514 	movweq	r0, #1300	; 0x514
     e24:	3b0b3a08 	blcc	2cf64c <__bss_end__+0x2c4d14>
     e28:	0213490b 	andseq	r4, r3, #180224	; 0x2c000
     e2c:	15000017 	strne	r0, [r0, #-23]
     e30:	08030034 	stmdaeq	r3, {r2, r4, r5}
     e34:	0b3b0b3a 	bleq	ec3b24 <__bss_end__+0xeb91ec>
     e38:	18021349 	stmdane	r2, {r0, r3, r6, r8, r9, ip}
     e3c:	34160000 	ldrcc	r0, [r6], #-0
     e40:	3a080300 	bcc	201a48 <__bss_end__+0x1f7110>
     e44:	490b3b0b 	stmdbmi	fp, {r0, r1, r3, r8, r9, fp, ip, sp}
     e48:	00170213 	andseq	r0, r7, r3, lsl r2
     e4c:	010b1700 	tsteq	fp, r0, lsl #14
     e50:	06120111 			; <UNDEFINED> instruction: 0x06120111
     e54:	00001301 	andeq	r1, r0, r1, lsl #6
     e58:	03003418 	movweq	r3, #1048	; 0x418
     e5c:	3b0b3a0e 	blcc	2cf69c <__bss_end__+0x2c4d64>
     e60:	0213490b 	andseq	r4, r3, #180224	; 0x2c000
     e64:	19000018 	stmdbne	r0, {r3, r4}
     e68:	1331011d 	teqne	r1, #1073741831	; 0x40000007
     e6c:	06120111 			; <UNDEFINED> instruction: 0x06120111
     e70:	0b590b58 	bleq	1643bd8 <__bss_end__+0x16392a0>
     e74:	00001301 	andeq	r1, r0, r1, lsl #6
     e78:	3100051a 	tstcc	r0, sl, lsl r5
     e7c:	00170213 	andseq	r0, r7, r3, lsl r2
     e80:	00051b00 	andeq	r1, r5, r0, lsl #22
     e84:	18021331 	stmdane	r2, {r0, r4, r5, r8, r9, ip}
     e88:	051c0000 	ldreq	r0, [ip, #-0]
     e8c:	1c133100 	ldfnes	f3, [r3], {-0}
     e90:	1d00000b 	stcne	0, cr0, [r0, #-44]	; 0xffffffd4
     e94:	0111010b 	tsteq	r1, fp, lsl #2
     e98:	00000612 	andeq	r0, r0, r2, lsl r6
     e9c:	3100341e 	tstcc	r0, lr, lsl r4
     ea0:	00170213 	andseq	r0, r7, r3, lsl r2
     ea4:	82891f00 	addhi	r1, r9, #0, 30
     ea8:	01110101 	tsteq	r1, r1, lsl #2
     eac:	00001331 	andeq	r1, r0, r1, lsr r3
     eb0:	01828a20 	orreq	r8, r2, r0, lsr #20
     eb4:	91180200 	tstls	r8, r0, lsl #4
     eb8:	00001842 	andeq	r1, r0, r2, asr #16
     ebc:	31011d21 	tstcc	r1, r1, lsr #26
     ec0:	12011113 	andne	r1, r1, #-1073741820	; 0xc0000004
     ec4:	590b5806 	stmdbpl	fp, {r1, r2, fp, ip, lr}
     ec8:	2200000b 	andcs	r0, r0, #11
     ecc:	0e03012e 	adfeqsp	f0, f3, #0.5
     ed0:	0b3b0b3a 	bleq	ec3bc0 <__bss_end__+0xeb9288>
     ed4:	13491927 	movtne	r1, #39207	; 0x9927
     ed8:	13010b20 	movwne	r0, #6944	; 0x1b20
     edc:	2e230000 	cdpcs	0, 2, cr0, cr3, cr0, {0}
     ee0:	03193f01 	tsteq	r9, #1, 30
     ee4:	3b0b3a0e 	blcc	2cf724 <__bss_end__+0x2c4dec>
     ee8:	4919270b 	ldmdbmi	r9, {r0, r1, r3, r8, r9, sl, sp}
     eec:	12011113 	andne	r1, r1, #-1073741820	; 0xc0000004
     ef0:	97184006 	ldrls	r4, [r8, -r6]
     ef4:	13011942 	movwne	r1, #6466	; 0x1942
     ef8:	89240000 	stmdbhi	r4!, {}	; <UNPREDICTABLE>
     efc:	11000182 	smlabbne	r0, r2, r1, r0
     f00:	00133101 	andseq	r3, r3, r1, lsl #2
     f04:	82892500 	addhi	r2, r9, #0, 10
     f08:	01110101 	tsteq	r1, r1, lsl #2
     f0c:	13011331 	movwne	r1, #4913	; 0x1331
     f10:	34260000 	strtcc	r0, [r6], #-0
     f14:	3a0e0300 	bcc	381b1c <__bss_end__+0x3771e4>
     f18:	490b3b0b 	stmdbmi	fp, {r0, r1, r3, r8, r9, fp, ip, sp}
     f1c:	00170213 	andseq	r0, r7, r3, lsl r2
     f20:	00052700 	andeq	r2, r5, r0, lsl #14
     f24:	00001331 	andeq	r1, r0, r1, lsr r3
     f28:	03000528 	movweq	r0, #1320	; 0x528
     f2c:	3b0b3a0e 	blcc	2cf76c <__bss_end__+0x2c4e34>
     f30:	0213490b 	andseq	r4, r3, #180224	; 0x2c000
     f34:	29000018 	stmdbcs	r0, {r3, r4}
     f38:	0e030034 	mcreq	0, 0, r0, cr3, cr4, {1}
     f3c:	19341349 	ldmdbne	r4!, {r0, r3, r6, r8, r9, ip}
     f40:	00001802 	andeq	r1, r0, r2, lsl #16
     f44:	4901012a 	stmdbmi	r1, {r1, r3, r5, r8}
     f48:	00130113 	andseq	r0, r3, r3, lsl r1
     f4c:	00212b00 	eoreq	r2, r1, r0, lsl #22
     f50:	0b2f1349 	bleq	bc5c7c <__bss_end__+0xbbb344>
     f54:	342c0000 	strtcc	r0, [ip], #-0
     f58:	3a080300 	bcc	201b60 <__bss_end__+0x1f7228>
     f5c:	490b3b0b 	stmdbmi	fp, {r0, r1, r3, r8, r9, fp, ip, sp}
     f60:	00061c13 	andeq	r1, r6, r3, lsl ip
     f64:	00342d00 	eorseq	r2, r4, r0, lsl #26
     f68:	0b3a0803 	bleq	e82f7c <__bss_end__+0xe78644>
     f6c:	13490b3b 	movtne	r0, #39739	; 0x9b3b
     f70:	00000b1c 	andeq	r0, r0, ip, lsl fp
     f74:	0300052e 	movweq	r0, #1326	; 0x52e
     f78:	3b0b3a08 	blcc	2cf7a0 <__bss_end__+0x2c4e68>
     f7c:	0213490b 	andseq	r4, r3, #180224	; 0x2c000
     f80:	2f000018 	svccs	0x00000018
     f84:	00000018 	andeq	r0, r0, r8, lsl r0
     f88:	49002130 	stmdbmi	r0, {r4, r5, r8, sp}
     f8c:	00052f13 	andeq	r2, r5, r3, lsl pc
     f90:	012e3100 	teqeq	lr, r0, lsl #2
     f94:	0e03193f 	mcreq	9, 0, r1, cr3, cr15, {1}
     f98:	0b3b0b3a 	bleq	ec3c88 <__bss_end__+0xeb9350>
     f9c:	193c1927 	ldmdbne	ip!, {r0, r1, r2, r5, r8, fp, ip}
     fa0:	00001301 	andeq	r1, r0, r1, lsl #6
     fa4:	49000532 	stmdbmi	r0, {r1, r4, r5, r8, sl}
     fa8:	33000013 	movwcc	r0, #19
     fac:	193f002e 	ldmdbne	pc!, {r1, r2, r3, r5}	; <UNPREDICTABLE>
     fb0:	0b3a0e03 	bleq	e847c4 <__bss_end__+0xe79e8c>
     fb4:	19270b3b 	stmdbne	r7!, {r0, r1, r3, r4, r5, r8, r9, fp}
     fb8:	193c1349 	ldmdbne	ip!, {r0, r3, r6, r8, r9, ip}
     fbc:	2e340000 	cdpcs	0, 3, cr0, cr4, cr0, {0}
     fc0:	03193f01 	tsteq	r9, #1, 30
     fc4:	3b0b3a0e 	blcc	2cf804 <__bss_end__+0x2c4ecc>
     fc8:	4919270b 	ldmdbmi	r9, {r0, r1, r3, r8, r9, sl, sp}
     fcc:	01193c13 	tsteq	r9, r3, lsl ip
     fd0:	35000013 	strcc	r0, [r0, #-19]
     fd4:	193f002e 	ldmdbne	pc!, {r1, r2, r3, r5}	; <UNPREDICTABLE>
     fd8:	0b3a0e03 	bleq	e847ec <__bss_end__+0xe79eb4>
     fdc:	19270b3b 	stmdbne	r7!, {r0, r1, r3, r4, r5, r8, r9, fp}
     fe0:	0000193c 	andeq	r1, r0, ip, lsr r9
     fe4:	3f012e36 	svccc	0x00012e36
     fe8:	3a0e0319 	bcc	381c54 <__bss_end__+0x37731c>
     fec:	270b3b0b 	strcs	r3, [fp, -fp, lsl #22]
     ff0:	3c134919 	ldccc	9, cr4, [r3], {25}
     ff4:	00000019 	andeq	r0, r0, r9, lsl r0
     ff8:	25011101 	strcs	r1, [r1, #-257]	; 0x101
     ffc:	030b130e 	movweq	r1, #45838	; 0xb30e
    1000:	110e1b0e 	tstne	lr, lr, lsl #22
    1004:	10061201 	andne	r1, r6, r1, lsl #4
    1008:	02000017 	andeq	r0, r0, #23
    100c:	0b0b0024 	bleq	2c10a4 <__bss_end__+0x2b676c>
    1010:	08030b3e 	stmdaeq	r3, {r1, r2, r3, r4, r5, r8, r9, fp}
    1014:	24030000 	strcs	r0, [r3], #-0
    1018:	3e0b0b00 	vmlacc.f64	d0, d11, d0
    101c:	000e030b 	andeq	r0, lr, fp, lsl #6
    1020:	01040400 	tsteq	r4, r0, lsl #8
    1024:	0b3a0b0b 	bleq	e83c58 <__bss_end__+0xe79320>
    1028:	13010b3b 	movwne	r0, #6971	; 0x1b3b
    102c:	28050000 	stmdacs	r5, {}	; <UNPREDICTABLE>
    1030:	1c0e0300 	stcne	3, cr0, [lr], {-0}
    1034:	0600000d 	streq	r0, [r0], -sp
    1038:	0e030016 	mcreq	0, 0, r0, cr3, cr6, {0}
    103c:	0b3b0b3a 	bleq	ec3d2c <__bss_end__+0xeb93f4>
    1040:	00001349 	andeq	r1, r0, r9, asr #6
    1044:	3f012e07 	svccc	0x00012e07
    1048:	3a0e0319 	bcc	381cb4 <__bss_end__+0x37737c>
    104c:	270b3b0b 	strcs	r3, [fp, -fp, lsl #22]
    1050:	12011119 	andne	r1, r1, #1073741830	; 0x40000006
    1054:	97184006 	ldrls	r4, [r8, -r6]
    1058:	13011942 	movwne	r1, #6466	; 0x1942
    105c:	89080000 	stmdbhi	r8, {}	; <UNPREDICTABLE>
    1060:	11000182 	smlabbne	r0, r2, r1, r0
    1064:	00133101 	andseq	r3, r3, r1, lsl #2
    1068:	82890900 	addhi	r0, r9, #0, 18
    106c:	01110101 	tsteq	r1, r1, lsl #2
    1070:	13011331 	movwne	r1, #4913	; 0x1331
    1074:	8a0a0000 	bhi	28107c <__bss_end__+0x276744>
    1078:	02000182 	andeq	r0, r0, #-2147483616	; 0x80000020
    107c:	18429118 	stmdane	r2, {r3, r4, r8, ip, pc}^
    1080:	2e0b0000 	cdpcs	0, 0, cr0, cr11, cr0, {0}
    1084:	03193f01 	tsteq	r9, #1, 30
    1088:	3b0b3a0e 	blcc	2cf8c8 <__bss_end__+0x2c4f90>
    108c:	4919270b 	ldmdbmi	r9, {r0, r1, r3, r8, r9, sl, sp}
    1090:	12011113 	andne	r1, r1, #-1073741820	; 0xc0000004
    1094:	97184006 	ldrls	r4, [r8, -r6]
    1098:	13011942 	movwne	r1, #6466	; 0x1942
    109c:	050c0000 	streq	r0, [ip, #-0]
    10a0:	3a080300 	bcc	201ca8 <__bss_end__+0x1f7370>
    10a4:	490b3b0b 	stmdbmi	fp, {r0, r1, r3, r8, r9, fp, ip, sp}
    10a8:	00170213 	andseq	r0, r7, r3, lsl r2
    10ac:	82890d00 	addhi	r0, r9, #0, 26
    10b0:	01110101 	tsteq	r1, r1, lsl #2
    10b4:	00001331 	andeq	r1, r0, r1, lsr r3
    10b8:	0300340e 	movweq	r3, #1038	; 0x40e
    10bc:	3b0b3a0e 	blcc	2cf8fc <__bss_end__+0x2c4fc4>
    10c0:	3f13490b 	svccc	0x0013490b
    10c4:	00180219 	andseq	r0, r8, r9, lsl r2
    10c8:	000f0f00 	andeq	r0, pc, r0, lsl #30
    10cc:	13490b0b 	movtne	r0, #39691	; 0x9b0b
    10d0:	35100000 	ldrcc	r0, [r0, #-0]
    10d4:	00134900 	andseq	r4, r3, r0, lsl #18
    10d8:	002e1100 	eoreq	r1, lr, r0, lsl #2
    10dc:	0e03193f 	mcreq	9, 0, r1, cr3, cr15, {1}
    10e0:	0b3b0b3a 	bleq	ec3dd0 <__bss_end__+0xeb9498>
    10e4:	193c1927 	ldmdbne	ip!, {r0, r1, r2, r5, r8, fp, ip}
    10e8:	2e120000 	cdpcs	0, 1, cr0, cr2, cr0, {0}
    10ec:	03193f01 	tsteq	r9, #1, 30
    10f0:	3b0b3a0e 	blcc	2cf930 <__bss_end__+0x2c4ff8>
    10f4:	3c19270b 	ldccc	7, cr2, [r9], {11}
    10f8:	00130119 	andseq	r0, r3, r9, lsl r1
    10fc:	00051300 	andeq	r1, r5, r0, lsl #6
    1100:	00001349 	andeq	r1, r0, r9, asr #6
    1104:	3f012e14 	svccc	0x00012e14
    1108:	3a0e0319 	bcc	381d74 <__bss_end__+0x37743c>
    110c:	270b3b0b 	strcs	r3, [fp, -fp, lsl #22]
    1110:	3c134919 	ldccc	9, cr4, [r3], {25}
    1114:	00130119 	andseq	r0, r3, r9, lsl r1
    1118:	00261500 	eoreq	r1, r6, r0, lsl #10
    111c:	00001349 	andeq	r1, r0, r9, asr #6
    1120:	00003516 	andeq	r3, r0, r6, lsl r5
    1124:	11010000 	mrsne	r0, (UNDEF: 1)
    1128:	130e2501 	movwne	r2, #58625	; 0xe501
    112c:	1b0e030b 	blne	381d60 <__bss_end__+0x377428>
    1130:	1201110e 	andne	r1, r1, #-2147483645	; 0x80000003
    1134:	00171006 	andseq	r1, r7, r6
    1138:	00240200 	eoreq	r0, r4, r0, lsl #4
    113c:	0b3e0b0b 	bleq	f83d70 <__bss_end__+0xf79438>
    1140:	00000803 	andeq	r0, r0, r3, lsl #16
    1144:	0b002403 	bleq	a158 <__FUNCTION__.4287+0x38>
    1148:	030b3e0b 	movweq	r3, #48651	; 0xbe0b
    114c:	0400000e 	streq	r0, [r0], #-14
    1150:	0b0b000f 	bleq	2c1194 <__bss_end__+0x2b685c>
    1154:	00001349 	andeq	r1, r0, r9, asr #6
    1158:	49002605 	stmdbmi	r0, {r0, r2, r9, sl, sp}
    115c:	06000013 			; <UNDEFINED> instruction: 0x06000013
    1160:	0b0b0104 	bleq	2c1578 <__bss_end__+0x2b6c40>
    1164:	0b3b0b3a 	bleq	ec3e54 <__bss_end__+0xeb951c>
    1168:	00001301 	andeq	r1, r0, r1, lsl #6
    116c:	03002807 	movweq	r2, #2055	; 0x807
    1170:	000d1c0e 	andeq	r1, sp, lr, lsl #24
    1174:	012e0800 	teqeq	lr, r0, lsl #16
    1178:	0e03193f 	mcreq	9, 0, r1, cr3, cr15, {1}
    117c:	0b3b0b3a 	bleq	ec3e6c <__bss_end__+0xeb9534>
    1180:	01111927 	tsteq	r1, r7, lsr #18
    1184:	18400612 	stmdane	r0, {r1, r4, r9, sl}^
    1188:	01194297 			; <UNDEFINED> instruction: 0x01194297
    118c:	09000013 	stmdbeq	r0, {r0, r1, r4}
    1190:	0e030034 	mcreq	0, 0, r0, cr3, cr4, {1}
    1194:	0b3b0b3a 	bleq	ec3e84 <__bss_end__+0xeb954c>
    1198:	193f1349 	ldmdbne	pc!, {r0, r3, r6, r8, r9, ip}	; <UNPREDICTABLE>
    119c:	0000193c 	andeq	r1, r0, ip, lsr r9
    11a0:	0300340a 	movweq	r3, #1034	; 0x40a
    11a4:	3b0b3a08 	blcc	2cf9cc <__bss_end__+0x2c5094>
    11a8:	1c13490b 	ldcne	9, cr4, [r3], {11}
    11ac:	0b00000b 	bleq	11e0 <_start-0x6e20>
    11b0:	08030034 	stmdaeq	r3, {r2, r4, r5}
    11b4:	0b3b0b3a 	bleq	ec3ea4 <__bss_end__+0xeb956c>
    11b8:	00001349 	andeq	r1, r0, r9, asr #6
    11bc:	0300340c 	movweq	r3, #1036	; 0x40c
    11c0:	3b0b3a08 	blcc	2cf9e8 <__bss_end__+0x2c50b0>
    11c4:	0213490b 	andseq	r4, r3, #180224	; 0x2c000
    11c8:	0d000018 	stceq	0, cr0, [r0, #-96]	; 0xffffffa0
    11cc:	0111010b 	tsteq	r1, fp, lsl #2
    11d0:	13010612 	movwne	r0, #5650	; 0x1612
    11d4:	340e0000 	strcc	r0, [lr], #-0
    11d8:	3a080300 	bcc	201de0 <__bss_end__+0x1f74a8>
    11dc:	490b3b0b 	stmdbmi	fp, {r0, r1, r3, r8, r9, fp, ip, sp}
    11e0:	00170213 	andseq	r0, r7, r3, lsl r2
    11e4:	82890f00 	addhi	r0, r9, #0, 30
    11e8:	01110101 	tsteq	r1, r1, lsl #2
    11ec:	13011331 	movwne	r1, #4913	; 0x1331
    11f0:	8a100000 	bhi	4011f8 <__bss_end__+0x3f68c0>
    11f4:	02000182 	andeq	r0, r0, #-2147483616	; 0x80000020
    11f8:	18429118 	stmdane	r2, {r3, r4, r8, ip, pc}^
    11fc:	89110000 	ldmdbhi	r1, {}	; <UNPREDICTABLE>
    1200:	11000182 	smlabbne	r0, r2, r1, r0
    1204:	00133101 	andseq	r3, r3, r1, lsl #2
    1208:	00051200 	andeq	r1, r5, r0, lsl #4
    120c:	0b3a0803 	bleq	e83220 <__bss_end__+0xe788e8>
    1210:	13490b3b 	movtne	r0, #39739	; 0x9b3b
    1214:	00001702 	andeq	r1, r0, r2, lsl #14
    1218:	03003413 	movweq	r3, #1043	; 0x413
    121c:	3413490e 	ldrcc	r4, [r3], #-2318	; 0x90e
    1220:	00180219 	andseq	r0, r8, r9, lsl r2
    1224:	01011400 	tsteq	r1, r0, lsl #8
    1228:	13011349 	movwne	r1, #4937	; 0x1349
    122c:	21150000 	tstcs	r5, r0
    1230:	2f134900 	svccs	0x00134900
    1234:	1600000b 	strne	r0, [r0], -fp
    1238:	193f012e 	ldmdbne	pc!, {r1, r2, r3, r5, r8}	; <UNPREDICTABLE>
    123c:	0b3a0e03 	bleq	e84a50 <__bss_end__+0xe7a118>
    1240:	19270b3b 	stmdbne	r7!, {r0, r1, r3, r4, r5, r8, r9, fp}
    1244:	1301193c 	movwne	r1, #6460	; 0x193c
    1248:	05170000 	ldreq	r0, [r7, #-0]
    124c:	00134900 	andseq	r4, r3, r0, lsl #18
    1250:	002e1800 	eoreq	r1, lr, r0, lsl #16
    1254:	0e03193f 	mcreq	9, 0, r1, cr3, cr15, {1}
    1258:	0b3b0b3a 	bleq	ec3f48 <__bss_end__+0xeb9610>
    125c:	193c1927 	ldmdbne	ip!, {r0, r1, r2, r5, r8, fp, ip}
    1260:	2e190000 	cdpcs	0, 1, cr0, cr9, cr0, {0}
    1264:	03193f01 	tsteq	r9, #1, 30
    1268:	3b0b3a0e 	blcc	2cfaa8 <__bss_end__+0x2c5170>
    126c:	4919270b 	ldmdbmi	r9, {r0, r1, r3, r8, r9, sl, sp}
    1270:	01193c13 	tsteq	r9, r3, lsl ip
    1274:	1a000013 	bne	12c8 <_start-0x6d38>
    1278:	00000018 	andeq	r0, r0, r8, lsl r0
    127c:	01110100 	tsteq	r1, r0, lsl #2
    1280:	0b130e25 	bleq	4c4b1c <__bss_end__+0x4ba1e4>
    1284:	0e1b0e03 	cdpeq	14, 1, cr0, cr11, cr3, {0}
    1288:	06120111 			; <UNDEFINED> instruction: 0x06120111
    128c:	00001710 	andeq	r1, r0, r0, lsl r7
    1290:	0b002402 	bleq	a2a0 <__FUNCTION__.4376+0x14>
    1294:	030b3e0b 	movweq	r3, #48651	; 0xbe0b
    1298:	03000008 	movweq	r0, #8
    129c:	0e030016 	mcreq	0, 0, r0, cr3, cr6, {0}
    12a0:	0b3b0b3a 	bleq	ec3f90 <__bss_end__+0xeb9658>
    12a4:	00001349 	andeq	r1, r0, r9, asr #6
    12a8:	0b002404 	bleq	a2c0 <__FUNCTION__.4376+0x34>
    12ac:	030b3e0b 	movweq	r3, #48651	; 0xbe0b
    12b0:	0500000e 	streq	r0, [r0, #-14]
    12b4:	0b0b000f 	bleq	2c12f8 <__bss_end__+0x2b69c0>
    12b8:	13060000 	movwne	r0, #24576	; 0x6000
    12bc:	3a0b0b01 	bcc	2c3ec8 <__bss_end__+0x2b9590>
    12c0:	010b3b0b 	tsteq	fp, fp, lsl #22
    12c4:	07000013 	smladeq	r0, r3, r0, r0
    12c8:	0803000d 	stmdaeq	r3, {r0, r2, r3}
    12cc:	0b3b0b3a 	bleq	ec3fbc <__bss_end__+0xeb9684>
    12d0:	0b381349 	bleq	e05ffc <__bss_end__+0xdfb6c4>
    12d4:	0d080000 	stceq	0, cr0, [r8, #-0]
    12d8:	3a0e0300 	bcc	381ee0 <__bss_end__+0x3775a8>
    12dc:	490b3b0b 	stmdbmi	fp, {r0, r1, r3, r8, r9, fp, ip, sp}
    12e0:	000b3813 	andeq	r3, fp, r3, lsl r8
    12e4:	01040900 	tsteq	r4, r0, lsl #18
    12e8:	0b3a0b0b 	bleq	e83f1c <__bss_end__+0xe795e4>
    12ec:	13010b3b 	movwne	r0, #6971	; 0x1b3b
    12f0:	280a0000 	stmdacs	sl, {}	; <UNPREDICTABLE>
    12f4:	1c0e0300 	stcne	3, cr0, [lr], {-0}
    12f8:	0b00000d 	bleq	1334 <_start-0x6ccc>
    12fc:	193f012e 	ldmdbne	pc!, {r1, r2, r3, r5, r8}	; <UNPREDICTABLE>
    1300:	0b3a0e03 	bleq	e84b14 <__bss_end__+0xe7a1dc>
    1304:	19270b3b 	stmdbne	r7!, {r0, r1, r3, r4, r5, r8, r9, fp}
    1308:	01111349 	tsteq	r1, r9, asr #6
    130c:	18400612 	stmdane	r0, {r1, r4, r9, sl}^
    1310:	01194297 			; <UNDEFINED> instruction: 0x01194297
    1314:	0c000013 	stceq	0, cr0, [r0], {19}
    1318:	08030034 	stmdaeq	r3, {r2, r4, r5}
    131c:	0b3b0b3a 	bleq	ec400c <__bss_end__+0xeb96d4>
    1320:	061c1349 	ldreq	r1, [ip], -r9, asr #6
    1324:	890d0000 	stmdbhi	sp, {}	; <UNPREDICTABLE>
    1328:	11010182 	smlabbne	r1, r2, r1, r0
    132c:	00133101 	andseq	r3, r3, r1, lsl #2
    1330:	828a0e00 	addhi	r0, sl, #0, 28
    1334:	18020001 	stmdane	r2, {r0}
    1338:	00184291 	mulseq	r8, r1, r2
    133c:	000f0f00 	andeq	r0, pc, r0, lsl #30
    1340:	13490b0b 	movtne	r0, #39691	; 0x9b0b
    1344:	2e100000 	cdpcs	0, 1, cr0, cr0, cr0, {0}
    1348:	03193f01 	tsteq	r9, #1, 30
    134c:	3b0b3a0e 	blcc	2cfb8c <__bss_end__+0x2c5254>
    1350:	4919270b 	ldmdbmi	r9, {r0, r1, r3, r8, r9, sl, sp}
    1354:	00193c13 	andseq	r3, r9, r3, lsl ip
    1358:	00051100 	andeq	r1, r5, r0, lsl #2
    135c:	00001349 	andeq	r1, r0, r9, asr #6
    1360:	01110100 	tsteq	r1, r0, lsl #2
    1364:	0b130e25 	bleq	4c4c00 <__bss_end__+0x4ba2c8>
    1368:	0e1b0e03 	cdpeq	14, 1, cr0, cr11, cr3, {0}
    136c:	06120111 			; <UNDEFINED> instruction: 0x06120111
    1370:	00001710 	andeq	r1, r0, r0, lsl r7
    1374:	0b002402 	bleq	a384 <__FUNCTION__.4255+0x40>
    1378:	030b3e0b 	movweq	r3, #48651	; 0xbe0b
    137c:	03000008 	movweq	r0, #8
    1380:	0b0b0024 	bleq	2c1418 <__bss_end__+0x2b6ae0>
    1384:	0e030b3e 	vmoveq.16	d3[0], r0
    1388:	0f040000 	svceq	0x00040000
    138c:	490b0b00 	stmdbmi	fp, {r8, r9, fp}
    1390:	05000013 	streq	r0, [r0, #-19]
    1394:	13490026 	movtne	r0, #36902	; 0x9026
    1398:	2e060000 	cdpcs	0, 0, cr0, cr6, cr0, {0}
    139c:	03193f01 	tsteq	r9, #1, 30
    13a0:	3b0b3a0e 	blcc	2cfbe0 <__bss_end__+0x2c52a8>
    13a4:	1119270b 	tstne	r9, fp, lsl #14
    13a8:	40061201 	andmi	r1, r6, r1, lsl #4
    13ac:	19429718 	stmdbne	r2, {r3, r4, r8, r9, sl, ip, pc}^
    13b0:	00001301 	andeq	r1, r0, r1, lsl #6
    13b4:	03000507 	movweq	r0, #1287	; 0x507
    13b8:	3b0b3a08 	blcc	2cfbe0 <__bss_end__+0x2c52a8>
    13bc:	0213490b 	andseq	r4, r3, #180224	; 0x2c000
    13c0:	08000017 	stmdaeq	r0, {r0, r1, r2, r4}
    13c4:	0e030034 	mcreq	0, 0, r0, cr3, cr4, {1}
    13c8:	19341349 	ldmdbne	r4!, {r0, r3, r6, r8, r9, ip}
    13cc:	00001802 	andeq	r1, r0, r2, lsl #16
    13d0:	01828909 	orreq	r8, r2, r9, lsl #18
    13d4:	31011100 	mrscc	r1, (UNDEF: 17)
    13d8:	0a000013 	beq	142c <_start-0x6bd4>
    13dc:	01018289 	smlabbeq	r1, r9, r2, r8
    13e0:	13310111 	teqne	r1, #1073741828	; 0x40000004
    13e4:	00001301 	andeq	r1, r0, r1, lsl #6
    13e8:	01828a0b 	orreq	r8, r2, fp, lsl #20
    13ec:	91180200 	tstls	r8, r0, lsl #4
    13f0:	00001842 	andeq	r1, r0, r2, asr #16
    13f4:	4901010c 	stmdbmi	r1, {r2, r3, r8}
    13f8:	00130113 	andseq	r0, r3, r3, lsl r1
    13fc:	00210d00 	eoreq	r0, r1, r0, lsl #26
    1400:	0b2f1349 	bleq	bc612c <__bss_end__+0xbbb7f4>
    1404:	2e0e0000 	cdpcs	0, 0, cr0, cr14, cr0, {0}
    1408:	03193f00 	tsteq	r9, #0, 30
    140c:	3b0b3a0e 	blcc	2cfc4c <__bss_end__+0x2c5314>
    1410:	3c19270b 	ldccc	7, cr2, [r9], {11}
    1414:	0f000019 	svceq	0x00000019
    1418:	193f012e 	ldmdbne	pc!, {r1, r2, r3, r5, r8}	; <UNPREDICTABLE>
    141c:	0b3a0e03 	bleq	e84c30 <__bss_end__+0xe7a2f8>
    1420:	19270b3b 	stmdbne	r7!, {r0, r1, r3, r4, r5, r8, r9, fp}
    1424:	193c1349 	ldmdbne	ip!, {r0, r3, r6, r8, r9, ip}
    1428:	00001301 	andeq	r1, r0, r1, lsl #6
    142c:	49000510 	stmdbmi	r0, {r4, r8, sl}
    1430:	11000013 	tstne	r0, r3, lsl r0
    1434:	00000018 	andeq	r0, r0, r8, lsl r0
    1438:	01110100 	tsteq	r1, r0, lsl #2
    143c:	0b130e25 	bleq	4c4cd8 <__bss_end__+0x4ba3a0>
    1440:	0e1b0e03 	cdpeq	14, 1, cr0, cr11, cr3, {0}
    1444:	06120111 			; <UNDEFINED> instruction: 0x06120111
    1448:	00001710 	andeq	r1, r0, r0, lsl r7
    144c:	0b002402 	bleq	a45c <__FUNCTION__.4241+0x4c>
    1450:	030b3e0b 	movweq	r3, #48651	; 0xbe0b
    1454:	03000008 	movweq	r0, #8
    1458:	0b0b0024 	bleq	2c14f0 <__bss_end__+0x2b6bb8>
    145c:	0e030b3e 	vmoveq.16	d3[0], r0
    1460:	0f040000 	svceq	0x00040000
    1464:	490b0b00 	stmdbmi	fp, {r8, r9, fp}
    1468:	05000013 	streq	r0, [r0, #-19]
    146c:	13490026 	movtne	r0, #36902	; 0x9026
    1470:	2e060000 	cdpcs	0, 0, cr0, cr6, cr0, {0}
    1474:	03193f01 	tsteq	r9, #1, 30
    1478:	3b0b3a0e 	blcc	2cfcb8 <__bss_end__+0x2c5380>
    147c:	1119270b 	tstne	r9, fp, lsl #14
    1480:	40061201 	andmi	r1, r6, r1, lsl #4
    1484:	19429718 	stmdbne	r2, {r3, r4, r8, r9, sl, ip, pc}^
    1488:	00001301 	andeq	r1, r0, r1, lsl #6
    148c:	03000507 	movweq	r0, #1287	; 0x507
    1490:	3b0b3a08 	blcc	2cfcb8 <__bss_end__+0x2c5380>
    1494:	0213490b 	andseq	r4, r3, #180224	; 0x2c000
    1498:	08000017 	stmdaeq	r0, {r0, r1, r2, r4}
    149c:	0e030034 	mcreq	0, 0, r0, cr3, cr4, {1}
    14a0:	19341349 	ldmdbne	r4!, {r0, r3, r6, r8, r9, ip}
    14a4:	00001802 	andeq	r1, r0, r2, lsl #16
    14a8:	01828909 	orreq	r8, r2, r9, lsl #18
    14ac:	31011100 	mrscc	r1, (UNDEF: 17)
    14b0:	0a000013 	beq	1504 <_start-0x6afc>
    14b4:	01018289 	smlabbeq	r1, r9, r2, r8
    14b8:	13310111 	teqne	r1, #1073741828	; 0x40000004
    14bc:	00001301 	andeq	r1, r0, r1, lsl #6
    14c0:	01828a0b 	orreq	r8, r2, fp, lsl #20
    14c4:	91180200 	tstls	r8, r0, lsl #4
    14c8:	00001842 	andeq	r1, r0, r2, asr #16
    14cc:	4901010c 	stmdbmi	r1, {r2, r3, r8}
    14d0:	00130113 	andseq	r0, r3, r3, lsl r1
    14d4:	00210d00 	eoreq	r0, r1, r0, lsl #26
    14d8:	0b2f1349 	bleq	bc6204 <__bss_end__+0xbbb8cc>
    14dc:	2e0e0000 	cdpcs	0, 0, cr0, cr14, cr0, {0}
    14e0:	03193f00 	tsteq	r9, #0, 30
    14e4:	3b0b3a0e 	blcc	2cfd24 <__bss_end__+0x2c53ec>
    14e8:	3c19270b 	ldccc	7, cr2, [r9], {11}
    14ec:	0f000019 	svceq	0x00000019
    14f0:	193f012e 	ldmdbne	pc!, {r1, r2, r3, r5, r8}	; <UNPREDICTABLE>
    14f4:	0b3a0e03 	bleq	e84d08 <__bss_end__+0xe7a3d0>
    14f8:	19270b3b 	stmdbne	r7!, {r0, r1, r3, r4, r5, r8, r9, fp}
    14fc:	193c1349 	ldmdbne	ip!, {r0, r3, r6, r8, r9, ip}
    1500:	00001301 	andeq	r1, r0, r1, lsl #6
    1504:	49000510 	stmdbmi	r0, {r4, r8, sl}
    1508:	11000013 	tstne	r0, r3, lsl r0
    150c:	00000018 	andeq	r0, r0, r8, lsl r0
    1510:	01110100 	tsteq	r1, r0, lsl #2
    1514:	0b130e25 	bleq	4c4db0 <__bss_end__+0x4ba478>
    1518:	0e1b0e03 	cdpeq	14, 1, cr0, cr11, cr3, {0}
    151c:	06120111 			; <UNDEFINED> instruction: 0x06120111
    1520:	00001710 	andeq	r1, r0, r0, lsl r7
    1524:	0b002402 	bleq	a534 <buf.4213+0x10>
    1528:	030b3e0b 	movweq	r3, #48651	; 0xbe0b
    152c:	03000008 	movweq	r0, #8
    1530:	0b0b0024 	bleq	2c15c8 <__bss_end__+0x2b6c90>
    1534:	0e030b3e 	vmoveq.16	d3[0], r0
    1538:	0f040000 	svceq	0x00040000
    153c:	490b0b00 	stmdbmi	fp, {r8, r9, fp}
    1540:	05000013 	streq	r0, [r0, #-19]
    1544:	13490026 	movtne	r0, #36902	; 0x9026
    1548:	2e060000 	cdpcs	0, 0, cr0, cr6, cr0, {0}
    154c:	03193f01 	tsteq	r9, #1, 30
    1550:	3b0b3a0e 	blcc	2cfd90 <__bss_end__+0x2c5458>
    1554:	1119270b 	tstne	r9, fp, lsl #14
    1558:	40061201 	andmi	r1, r6, r1, lsl #4
    155c:	19429718 	stmdbne	r2, {r3, r4, r8, r9, sl, ip, pc}^
    1560:	00001301 	andeq	r1, r0, r1, lsl #6
    1564:	03000507 	movweq	r0, #1287	; 0x507
    1568:	3b0b3a08 	blcc	2cfd90 <__bss_end__+0x2c5458>
    156c:	0213490b 	andseq	r4, r3, #180224	; 0x2c000
    1570:	08000017 	stmdaeq	r0, {r0, r1, r2, r4}
    1574:	0e030034 	mcreq	0, 0, r0, cr3, cr4, {1}
    1578:	19341349 	ldmdbne	r4!, {r0, r3, r6, r8, r9, ip}
    157c:	00001802 	andeq	r1, r0, r2, lsl #16
    1580:	01828909 	orreq	r8, r2, r9, lsl #18
    1584:	31011100 	mrscc	r1, (UNDEF: 17)
    1588:	0a000013 	beq	15dc <_start-0x6a24>
    158c:	01018289 	smlabbeq	r1, r9, r2, r8
    1590:	13310111 	teqne	r1, #1073741828	; 0x40000004
    1594:	00001301 	andeq	r1, r0, r1, lsl #6
    1598:	01828a0b 	orreq	r8, r2, fp, lsl #20
    159c:	91180200 	tstls	r8, r0, lsl #4
    15a0:	00001842 	andeq	r1, r0, r2, asr #16
    15a4:	4901010c 	stmdbmi	r1, {r2, r3, r8}
    15a8:	00130113 	andseq	r0, r3, r3, lsl r1
    15ac:	00210d00 	eoreq	r0, r1, r0, lsl #26
    15b0:	0b2f1349 	bleq	bc62dc <__bss_end__+0xbbb9a4>
    15b4:	2e0e0000 	cdpcs	0, 0, cr0, cr14, cr0, {0}
    15b8:	03193f00 	tsteq	r9, #0, 30
    15bc:	3b0b3a0e 	blcc	2cfdfc <__bss_end__+0x2c54c4>
    15c0:	3c19270b 	ldccc	7, cr2, [r9], {11}
    15c4:	0f000019 	svceq	0x00000019
    15c8:	193f012e 	ldmdbne	pc!, {r1, r2, r3, r5, r8}	; <UNPREDICTABLE>
    15cc:	0b3a0e03 	bleq	e84de0 <__bss_end__+0xe7a4a8>
    15d0:	19270b3b 	stmdbne	r7!, {r0, r1, r3, r4, r5, r8, r9, fp}
    15d4:	193c1349 	ldmdbne	ip!, {r0, r3, r6, r8, r9, ip}
    15d8:	00001301 	andeq	r1, r0, r1, lsl #6
    15dc:	49000510 	stmdbmi	r0, {r4, r8, sl}
    15e0:	11000013 	tstne	r0, r3, lsl r0
    15e4:	00000018 	andeq	r0, r0, r8, lsl r0
    15e8:	01110100 	tsteq	r1, r0, lsl #2
    15ec:	0b130e25 	bleq	4c4e88 <__bss_end__+0x4ba550>
    15f0:	0e1b0e03 	cdpeq	14, 1, cr0, cr11, cr3, {0}
    15f4:	06120111 			; <UNDEFINED> instruction: 0x06120111
    15f8:	00001710 	andeq	r1, r0, r0, lsl r7
    15fc:	0b002402 	bleq	a60c <buf.4213+0xe8>
    1600:	030b3e0b 	movweq	r3, #48651	; 0xbe0b
    1604:	03000008 	movweq	r0, #8
    1608:	0b0b0024 	bleq	2c16a0 <__bss_end__+0x2b6d68>
    160c:	0e030b3e 	vmoveq.16	d3[0], r0
    1610:	0f040000 	svceq	0x00040000
    1614:	490b0b00 	stmdbmi	fp, {r8, r9, fp}
    1618:	05000013 	streq	r0, [r0, #-19]
    161c:	13490026 	movtne	r0, #36902	; 0x9026
    1620:	2e060000 	cdpcs	0, 0, cr0, cr6, cr0, {0}
    1624:	03193f01 	tsteq	r9, #1, 30
    1628:	3b0b3a0e 	blcc	2cfe68 <__bss_end__+0x2c5530>
    162c:	1119270b 	tstne	r9, fp, lsl #14
    1630:	40061201 	andmi	r1, r6, r1, lsl #4
    1634:	19429718 	stmdbne	r2, {r3, r4, r8, r9, sl, ip, pc}^
    1638:	00001301 	andeq	r1, r0, r1, lsl #6
    163c:	03000507 	movweq	r0, #1287	; 0x507
    1640:	3b0b3a08 	blcc	2cfe68 <__bss_end__+0x2c5530>
    1644:	0213490b 	andseq	r4, r3, #180224	; 0x2c000
    1648:	08000017 	stmdaeq	r0, {r0, r1, r2, r4}
    164c:	0e030034 	mcreq	0, 0, r0, cr3, cr4, {1}
    1650:	19341349 	ldmdbne	r4!, {r0, r3, r6, r8, r9, ip}
    1654:	00001802 	andeq	r1, r0, r2, lsl #16
    1658:	01828909 	orreq	r8, r2, r9, lsl #18
    165c:	31011100 	mrscc	r1, (UNDEF: 17)
    1660:	0a000013 	beq	16b4 <_start-0x694c>
    1664:	01018289 	smlabbeq	r1, r9, r2, r8
    1668:	13310111 	teqne	r1, #1073741828	; 0x40000004
    166c:	00001301 	andeq	r1, r0, r1, lsl #6
    1670:	01828a0b 	orreq	r8, r2, fp, lsl #20
    1674:	91180200 	tstls	r8, r0, lsl #4
    1678:	00001842 	andeq	r1, r0, r2, asr #16
    167c:	4901010c 	stmdbmi	r1, {r2, r3, r8}
    1680:	00130113 	andseq	r0, r3, r3, lsl r1
    1684:	00210d00 	eoreq	r0, r1, r0, lsl #26
    1688:	0b2f1349 	bleq	bc63b4 <__bss_end__+0xbbba7c>
    168c:	2e0e0000 	cdpcs	0, 0, cr0, cr14, cr0, {0}
    1690:	03193f00 	tsteq	r9, #0, 30
    1694:	3b0b3a0e 	blcc	2cfed4 <__bss_end__+0x2c559c>
    1698:	3c19270b 	ldccc	7, cr2, [r9], {11}
    169c:	0f000019 	svceq	0x00000019
    16a0:	193f012e 	ldmdbne	pc!, {r1, r2, r3, r5, r8}	; <UNPREDICTABLE>
    16a4:	0b3a0e03 	bleq	e84eb8 <__bss_end__+0xe7a580>
    16a8:	19270b3b 	stmdbne	r7!, {r0, r1, r3, r4, r5, r8, r9, fp}
    16ac:	193c1349 	ldmdbne	ip!, {r0, r3, r6, r8, r9, ip}
    16b0:	00001301 	andeq	r1, r0, r1, lsl #6
    16b4:	49000510 	stmdbmi	r0, {r4, r8, sl}
    16b8:	11000013 	tstne	r0, r3, lsl r0
    16bc:	00000018 	andeq	r0, r0, r8, lsl r0
    16c0:	01110100 	tsteq	r1, r0, lsl #2
    16c4:	0b130e25 	bleq	4c4f60 <__bss_end__+0x4ba628>
    16c8:	0e1b0e03 	cdpeq	14, 1, cr0, cr11, cr3, {0}
    16cc:	06120111 			; <UNDEFINED> instruction: 0x06120111
    16d0:	00001710 	andeq	r1, r0, r0, lsl r7
    16d4:	0b002402 	bleq	a6e4 <buf.4213+0x1c0>
    16d8:	030b3e0b 	movweq	r3, #48651	; 0xbe0b
    16dc:	0300000e 	movweq	r0, #14
    16e0:	0b0b0024 	bleq	2c1778 <__bss_end__+0x2b6e40>
    16e4:	08030b3e 	stmdaeq	r3, {r1, r2, r3, r4, r5, r8, r9, fp}
    16e8:	0f040000 	svceq	0x00040000
    16ec:	000b0b00 	andeq	r0, fp, r0, lsl #22
    16f0:	000f0500 	andeq	r0, pc, r0, lsl #10
    16f4:	13490b0b 	movtne	r0, #39691	; 0x9b0b
    16f8:	16060000 	strne	r0, [r6], -r0
    16fc:	3a0e0300 	bcc	382304 <__bss_end__+0x3779cc>
    1700:	490b3b0b 	stmdbmi	fp, {r0, r1, r3, r8, r9, fp, ip, sp}
    1704:	07000013 	smladeq	r0, r3, r0, r0
    1708:	193f012e 	ldmdbne	pc!, {r1, r2, r3, r5, r8}	; <UNPREDICTABLE>
    170c:	0b3a0e03 	bleq	e84f20 <__bss_end__+0xe7a5e8>
    1710:	19270b3b 	stmdbne	r7!, {r0, r1, r3, r4, r5, r8, r9, fp}
    1714:	01111349 	tsteq	r1, r9, asr #6
    1718:	18400612 	stmdane	r0, {r1, r4, r9, sl}^
    171c:	00194297 	mulseq	r9, r7, r2
    1720:	00050800 	andeq	r0, r5, r0, lsl #16
    1724:	0b3a0803 	bleq	e83738 <__bss_end__+0xe78e00>
    1728:	13490b3b 	movtne	r0, #39739	; 0x9b3b
    172c:	00001802 	andeq	r1, r0, r2, lsl #16
    1730:	03000509 	movweq	r0, #1289	; 0x509
    1734:	3b0b3a08 	blcc	2cff5c <__bss_end__+0x2c5624>
    1738:	0213490b 	andseq	r4, r3, #180224	; 0x2c000
    173c:	0a000017 	beq	17a0 <_start-0x6860>
    1740:	08030034 	stmdaeq	r3, {r2, r4, r5}
    1744:	0b3b0b3a 	bleq	ec4434 <__bss_end__+0xeb9afc>
    1748:	17021349 	strne	r1, [r2, -r9, asr #6]
    174c:	340b0000 	strcc	r0, [fp], #-0
    1750:	3a080300 	bcc	202358 <__bss_end__+0x1f7a20>
    1754:	490b3b0b 	stmdbmi	fp, {r0, r1, r3, r8, r9, fp, ip, sp}
    1758:	00180213 	andseq	r0, r8, r3, lsl r2
	...

Disassembly of section .debug_loc:

00000000 <.debug_loc>:
       0:	00000000 	andeq	r0, r0, r0
       4:	0000000f 	andeq	r0, r0, pc
       8:	0f500001 	svceq	0x00500001
       c:	28000000 	stmdacs	r0, {}	; <UNPREDICTABLE>
      10:	04000000 	streq	r0, [r0], #-0
      14:	5001f300 	andpl	pc, r1, r0, lsl #6
      18:	0000289f 	muleq	r0, pc, r8	; <UNPREDICTABLE>
      1c:	00003400 	andeq	r3, r0, r0, lsl #8
      20:	50000100 	andpl	r0, r0, r0, lsl #2
      24:	00000034 	andeq	r0, r0, r4, lsr r0
      28:	00000050 	andeq	r0, r0, r0, asr r0
      2c:	01f30004 	mvnseq	r0, r4
      30:	00009f50 	andeq	r9, r0, r0, asr pc
      34:	00000000 	andeq	r0, r0, r0
      38:	003c0000 	eorseq	r0, ip, r0
      3c:	00400000 	subeq	r0, r0, r0
      40:	00010000 	andeq	r0, r1, r0
      44:	00000050 	andeq	r0, r0, r0, asr r0
      48:	00000000 	andeq	r0, r0, r0
      4c:	00005000 	andeq	r5, r0, r0
      50:	00009800 	andeq	r9, r0, r0, lsl #16
      54:	50000100 	andpl	r0, r0, r0, lsl #2
      58:	00000098 	muleq	r0, r8, r0
      5c:	0000023c 	andeq	r0, r0, ip, lsr r2
      60:	01f30004 	mvnseq	r0, r4
      64:	00009f50 	andeq	r9, r0, r0, asr pc
      68:	00000000 	andeq	r0, r0, r0
      6c:	00540000 	subseq	r0, r4, r0
      70:	00a80000 	adceq	r0, r8, r0
      74:	00020000 	andeq	r0, r2, r0
      78:	00a89f30 	adceq	r9, r8, r0, lsr pc
      7c:	01080000 	mrseq	r0, (UNDEF: 8)
      80:	00010000 	andeq	r0, r1, r0
      84:	00010850 	andeq	r0, r1, r0, asr r8
      88:	00013800 	andeq	r3, r1, r0, lsl #16
      8c:	54000100 	strpl	r0, [r0], #-256	; 0x100
      90:	00000138 	andeq	r0, r0, r8, lsr r1
      94:	00000168 	andeq	r0, r0, r8, ror #2
      98:	685c0001 	ldmdavs	ip, {r0}^
      9c:	98000001 	stmdals	r0, {r0}
      a0:	01000001 	tsteq	r0, r1
      a4:	01985000 	orrseq	r5, r8, r0
      a8:	01c80000 	biceq	r0, r8, r0
      ac:	00010000 	andeq	r0, r1, r0
      b0:	0001c854 	andeq	ip, r1, r4, asr r8
      b4:	0001f400 	andeq	pc, r1, r0, lsl #8
      b8:	5c000100 	stfpls	f0, [r0], {-0}
      bc:	000001f4 	strdeq	r0, [r0], -r4
      c0:	0000023c 	andeq	r0, r0, ip, lsr r2
      c4:	00500001 	subseq	r0, r0, r1
      c8:	00000000 	andeq	r0, r0, r0
      cc:	70000000 	andvc	r0, r0, r0
      d0:	74000000 	strvc	r0, [r0], #-0
      d4:	01000000 	mrseq	r0, (UNDEF: 0)
      d8:	00005200 	andeq	r5, r0, r0, lsl #4
      dc:	00000000 	andeq	r0, r0, r0
      e0:	00840000 	addeq	r0, r4, r0
      e4:	00880000 	addeq	r0, r8, r0
      e8:	00010000 	andeq	r0, r1, r0
      ec:	00000052 	andeq	r0, r0, r2, asr r0
      f0:	00000000 	andeq	r0, r0, r0
      f4:	0000b000 	andeq	fp, r0, r0
      f8:	0000b400 	andeq	fp, r0, r0, lsl #8
      fc:	52000100 	andpl	r0, r0, #0, 2
	...
     108:	000000e0 	andeq	r0, r0, r0, ror #1
     10c:	000000e4 	andeq	r0, r0, r4, ror #1
     110:	00520001 	subseq	r0, r2, r1
     114:	00000000 	andeq	r0, r0, r0
     118:	10000000 	andne	r0, r0, r0
     11c:	14000001 	strne	r0, [r0], #-1
     120:	01000001 	tsteq	r0, r1
     124:	00005200 	andeq	r5, r0, r0, lsl #4
     128:	00000000 	andeq	r0, r0, r0
     12c:	01400000 	mrseq	r0, (UNDEF: 64)
     130:	01440000 	mrseq	r0, (UNDEF: 68)
     134:	00010000 	andeq	r0, r1, r0
     138:	00000052 	andeq	r0, r0, r2, asr r0
     13c:	00000000 	andeq	r0, r0, r0
     140:	00017000 	andeq	r7, r1, r0
     144:	00017400 	andeq	r7, r1, r0, lsl #8
     148:	52000100 	andpl	r0, r0, #0, 2
	...
     154:	000001a0 	andeq	r0, r0, r0, lsr #3
     158:	000001a4 	andeq	r0, r0, r4, lsr #3
     15c:	00520001 	subseq	r0, r2, r1
     160:	00000000 	andeq	r0, r0, r0
     164:	d0000000 	andle	r0, r0, r0
     168:	d4000001 	strle	r0, [r0], #-1
     16c:	01000001 	tsteq	r0, r1
     170:	00005200 	andeq	r5, r0, r0, lsl #4
     174:	00000000 	andeq	r0, r0, r0
     178:	01fc0000 	mvnseq	r0, r0
     17c:	02000000 	andeq	r0, r0, #0
     180:	00010000 	andeq	r0, r1, r0
     184:	00000052 	andeq	r0, r0, r2, asr r0
     188:	00000000 	andeq	r0, r0, r0
     18c:	00023c00 	andeq	r3, r2, r0, lsl #24
     190:	00026400 	andeq	r6, r2, r0, lsl #8
     194:	50000100 	andpl	r0, r0, r0, lsl #2
     198:	00000264 	andeq	r0, r0, r4, ror #4
     19c:	000004d8 	ldrdeq	r0, [r0], -r8
     1a0:	01f30004 	mvnseq	r0, r4
     1a4:	00009f50 	andeq	r9, r0, r0, asr pc
     1a8:	00000000 	andeq	r0, r0, r0
     1ac:	023c0000 	eorseq	r0, ip, #0
     1b0:	04500000 	ldrbeq	r0, [r0], #-0
     1b4:	00010000 	andeq	r0, r1, r0
     1b8:	00045051 	andeq	r5, r4, r1, asr r0
     1bc:	00045c00 	andeq	r5, r4, r0, lsl #24
     1c0:	f3000400 	vshl.u8	d0, d0, d0
     1c4:	5c9f5101 	ldfpls	f5, [pc], {1}
     1c8:	64000004 	strvs	r0, [r0], #-4
     1cc:	01000004 	tsteq	r0, r4
     1d0:	04645100 	strbteq	r5, [r4], #-256	; 0x100
     1d4:	04d80000 	ldrbeq	r0, [r8], #0
     1d8:	00040000 	andeq	r0, r4, r0
     1dc:	9f5101f3 	svcls	0x005101f3
	...
     1e8:	0000023c 	andeq	r0, r0, ip, lsr r2
     1ec:	00000248 	andeq	r0, r0, r8, asr #4
     1f0:	48520001 	ldmdami	r2, {r0}^
     1f4:	d8000002 	stmdale	r0, {r1}
     1f8:	04000004 	streq	r0, [r0], #-4
     1fc:	5201f300 	andpl	pc, r1, #0, 6
     200:	0000009f 	muleq	r0, pc, r0	; <UNPREDICTABLE>
     204:	00000000 	andeq	r0, r0, r0
     208:	00025400 	andeq	r5, r2, r0, lsl #8
     20c:	00026400 	andeq	r6, r2, r0, lsl #8
     210:	50000100 	andpl	r0, r0, r0, lsl #2
     214:	00000264 	andeq	r0, r0, r4, ror #4
     218:	000004d8 	ldrdeq	r0, [r0], -r8
     21c:	01f30004 	mvnseq	r0, r4
     220:	00009f50 	andeq	r9, r0, r0, asr pc
     224:	00000000 	andeq	r0, r0, r0
     228:	02740000 	rsbseq	r0, r4, #0
     22c:	02780000 	rsbseq	r0, r8, #0
     230:	00010000 	andeq	r0, r1, r0
     234:	00000052 	andeq	r0, r0, r2, asr r0
     238:	00000000 	andeq	r0, r0, r0
     23c:	00028000 	andeq	r8, r2, r0
     240:	00045000 	andeq	r5, r4, r0
     244:	71000800 	tstvc	r0, r0, lsl #16
     248:	081a3100 	ldmdaeq	sl, {r8, ip, sp}
     24c:	5c9f1aff 	vldmiapl	pc, {s2-s256}
     250:	64000004 	strvs	r0, [r0], #-4
     254:	08000004 	stmdaeq	r0, {r2}
     258:	31007100 	mrscc	r7, (UNDEF: 16)
     25c:	1aff081a 	bne	fffc22cc <__bss_end__+0xfffb7994>
     260:	0000009f 	muleq	r0, pc, r0	; <UNPREDICTABLE>
     264:	00000000 	andeq	r0, r0, r0
     268:	00028800 	andeq	r8, r2, r0, lsl #16
     26c:	00029c00 	andeq	r9, r2, r0, lsl #24
     270:	f3000400 	vshl.u8	d0, d0, d0
     274:	009f5001 	addseq	r5, pc, r1
     278:	00000000 	andeq	r0, r0, r0
     27c:	9c000000 	stcls	0, cr0, [r0], {-0}
     280:	ac000002 	stcge	0, cr0, [r0], {2}
     284:	04000002 	streq	r0, [r0], #-2
     288:	5001f300 	andpl	pc, r1, r0, lsl #6
     28c:	0000009f 	muleq	r0, pc, r0	; <UNPREDICTABLE>
     290:	00000000 	andeq	r0, r0, r0
     294:	0002b400 	andeq	fp, r2, r0, lsl #8
     298:	0002b800 	andeq	fp, r2, r0, lsl #16
     29c:	52000100 	andpl	r0, r0, #0, 2
	...
     2a8:	000002c0 	andeq	r0, r0, r0, asr #5
     2ac:	00000450 	andeq	r0, r0, r0, asr r4
     2b0:	00710008 	rsbseq	r0, r1, r8
     2b4:	ff081a32 			; <UNDEFINED> instruction: 0xff081a32
     2b8:	045c9f1a 	ldrbeq	r9, [ip], #-3866	; 0xf1a
     2bc:	04640000 	strbteq	r0, [r4], #-0
     2c0:	00080000 	andeq	r0, r8, r0
     2c4:	1a320071 	bne	c80490 <__bss_end__+0xc75b58>
     2c8:	9f1aff08 	svcls	0x001aff08
	...
     2d4:	000002c8 	andeq	r0, r0, r8, asr #5
     2d8:	000002dc 	ldrdeq	r0, [r0], -ip
     2dc:	01f30004 	mvnseq	r0, r4
     2e0:	00009f50 	andeq	r9, r0, r0, asr pc
     2e4:	00000000 	andeq	r0, r0, r0
     2e8:	02dc0000 	sbcseq	r0, ip, #0
     2ec:	02ec0000 	rsceq	r0, ip, #0
     2f0:	00040000 	andeq	r0, r4, r0
     2f4:	9f5001f3 	svcls	0x005001f3
	...
     300:	000002f4 	strdeq	r0, [r0], -r4
     304:	000002f8 	strdeq	r0, [r0], -r8
     308:	00520001 	subseq	r0, r2, r1
	...
     314:	50000003 	andpl	r0, r0, r3
     318:	08000004 	stmdaeq	r0, {r2}
     31c:	34007100 	strcc	r7, [r0], #-256	; 0x100
     320:	1aff081a 	bne	fffc2390 <__bss_end__+0xfffb7a58>
     324:	00045c9f 	muleq	r4, pc, ip	; <UNPREDICTABLE>
     328:	00046400 	andeq	r6, r4, r0, lsl #8
     32c:	71000800 	tstvc	r0, r0, lsl #16
     330:	081a3400 	ldmdaeq	sl, {sl, ip, sp}
     334:	009f1aff 			; <UNDEFINED> instruction: 0x009f1aff
     338:	00000000 	andeq	r0, r0, r0
     33c:	08000000 	stmdaeq	r0, {}	; <UNPREDICTABLE>
     340:	1c000003 	stcne	0, cr0, [r0], {3}
     344:	04000003 	streq	r0, [r0], #-3
     348:	5001f300 	andpl	pc, r1, r0, lsl #6
     34c:	0000009f 	muleq	r0, pc, r0	; <UNPREDICTABLE>
     350:	00000000 	andeq	r0, r0, r0
     354:	00031c00 	andeq	r1, r3, r0, lsl #24
     358:	00032c00 	andeq	r2, r3, r0, lsl #24
     35c:	f3000400 	vshl.u8	d0, d0, d0
     360:	009f5001 	addseq	r5, pc, r1
     364:	00000000 	andeq	r0, r0, r0
     368:	34000000 	strcc	r0, [r0], #-0
     36c:	38000003 	stmdacc	r0, {r0, r1}
     370:	01000003 	tsteq	r0, r3
     374:	00005200 	andeq	r5, r0, r0, lsl #4
     378:	00000000 	andeq	r0, r0, r0
     37c:	03400000 	movteq	r0, #0
     380:	04500000 	ldrbeq	r0, [r0], #-0
     384:	00080000 	andeq	r0, r8, r0
     388:	1a380071 	bne	e00554 <__bss_end__+0xdf5c1c>
     38c:	9f1aff08 	svcls	0x001aff08
     390:	0000045c 	andeq	r0, r0, ip, asr r4
     394:	00000464 	andeq	r0, r0, r4, ror #8
     398:	00710008 	rsbseq	r0, r1, r8
     39c:	ff081a38 			; <UNDEFINED> instruction: 0xff081a38
     3a0:	00009f1a 	andeq	r9, r0, sl, lsl pc
     3a4:	00000000 	andeq	r0, r0, r0
     3a8:	03480000 	movteq	r0, #32768	; 0x8000
     3ac:	035c0000 	cmpeq	ip, #0
     3b0:	00040000 	andeq	r0, r4, r0
     3b4:	9f5001f3 	svcls	0x005001f3
	...
     3c0:	0000035c 	andeq	r0, r0, ip, asr r3
     3c4:	0000036c 	andeq	r0, r0, ip, ror #6
     3c8:	01f30004 	mvnseq	r0, r4
     3cc:	00009f50 	andeq	r9, r0, r0, asr pc
     3d0:	00000000 	andeq	r0, r0, r0
     3d4:	03740000 	cmneq	r4, #0
     3d8:	03780000 	cmneq	r8, #0
     3dc:	00010000 	andeq	r0, r1, r0
     3e0:	00000052 	andeq	r0, r0, r2, asr r0
     3e4:	00000000 	andeq	r0, r0, r0
     3e8:	00038000 	andeq	r8, r3, r0
     3ec:	00045000 	andeq	r5, r4, r0
     3f0:	71000800 	tstvc	r0, r0, lsl #16
     3f4:	081a4000 	ldmdaeq	sl, {lr}
     3f8:	5c9f1aff 	vldmiapl	pc, {s2-s256}
     3fc:	64000004 	strvs	r0, [r0], #-4
     400:	08000004 	stmdaeq	r0, {r2}
     404:	40007100 	andmi	r7, r0, r0, lsl #2
     408:	1aff081a 	bne	fffc2478 <__bss_end__+0xfffb7b40>
     40c:	0000009f 	muleq	r0, pc, r0	; <UNPREDICTABLE>
     410:	00000000 	andeq	r0, r0, r0
     414:	00038800 	andeq	r8, r3, r0, lsl #16
     418:	00039c00 	andeq	r9, r3, r0, lsl #24
     41c:	f3000400 	vshl.u8	d0, d0, d0
     420:	009f5001 	addseq	r5, pc, r1
     424:	00000000 	andeq	r0, r0, r0
     428:	9c000000 	stcls	0, cr0, [r0], {-0}
     42c:	ac000003 	stcge	0, cr0, [r0], {3}
     430:	04000003 	streq	r0, [r0], #-3
     434:	5001f300 	andpl	pc, r1, r0, lsl #6
     438:	0000009f 	muleq	r0, pc, r0	; <UNPREDICTABLE>
     43c:	00000000 	andeq	r0, r0, r0
     440:	0003b400 	andeq	fp, r3, r0, lsl #8
     444:	0003b800 	andeq	fp, r3, r0, lsl #16
     448:	52000100 	andpl	r0, r0, #0, 2
	...
     454:	000003c0 	andeq	r0, r0, r0, asr #7
     458:	00000450 	andeq	r0, r0, r0, asr r4
     45c:	00710009 	rsbseq	r0, r1, r9
     460:	081a2008 	ldmdaeq	sl, {r3, sp}
     464:	5c9f1aff 	vldmiapl	pc, {s2-s256}
     468:	64000004 	strvs	r0, [r0], #-4
     46c:	09000004 	stmdbeq	r0, {r2}
     470:	08007100 	stmdaeq	r0, {r8, ip, sp, lr}
     474:	ff081a20 			; <UNDEFINED> instruction: 0xff081a20
     478:	00009f1a 	andeq	r9, r0, sl, lsl pc
     47c:	00000000 	andeq	r0, r0, r0
     480:	03c80000 	biceq	r0, r8, #0
     484:	03dc0000 	bicseq	r0, ip, #0
     488:	00040000 	andeq	r0, r4, r0
     48c:	9f5001f3 	svcls	0x005001f3
	...
     498:	000003dc 	ldrdeq	r0, [r0], -ip
     49c:	000003ec 	andeq	r0, r0, ip, ror #7
     4a0:	01f30004 	mvnseq	r0, r4
     4a4:	00009f50 	andeq	r9, r0, r0, asr pc
     4a8:	00000000 	andeq	r0, r0, r0
     4ac:	03f40000 	mvnseq	r0, #0
     4b0:	03f80000 	mvnseq	r0, #0
     4b4:	00010000 	andeq	r0, r1, r0
     4b8:	00000052 	andeq	r0, r0, r2, asr r0
     4bc:	00000000 	andeq	r0, r0, r0
     4c0:	00040000 	andeq	r0, r4, r0
     4c4:	00045000 	andeq	r5, r4, r0
     4c8:	71000900 	tstvc	r0, r0, lsl #18
     4cc:	1a400800 	bne	10024d4 <__bss_end__+0xff7b9c>
     4d0:	9f1aff08 	svcls	0x001aff08
     4d4:	0000045c 	andeq	r0, r0, ip, asr r4
     4d8:	00000464 	andeq	r0, r0, r4, ror #8
     4dc:	00710009 	rsbseq	r0, r1, r9
     4e0:	081a4008 	ldmdaeq	sl, {r3, lr}
     4e4:	009f1aff 			; <UNDEFINED> instruction: 0x009f1aff
     4e8:	00000000 	andeq	r0, r0, r0
     4ec:	08000000 	stmdaeq	r0, {}	; <UNPREDICTABLE>
     4f0:	1c000004 	stcne	0, cr0, [r0], {4}
     4f4:	04000004 	streq	r0, [r0], #-4
     4f8:	5001f300 	andpl	pc, r1, r0, lsl #6
     4fc:	0000009f 	muleq	r0, pc, r0	; <UNPREDICTABLE>
     500:	00000000 	andeq	r0, r0, r0
     504:	00041c00 	andeq	r1, r4, r0, lsl #24
     508:	00042c00 	andeq	r2, r4, r0, lsl #24
     50c:	f3000400 	vshl.u8	d0, d0, d0
     510:	009f5001 	addseq	r5, pc, r1
     514:	00000000 	andeq	r0, r0, r0
     518:	34000000 	strcc	r0, [r0], #-0
     51c:	38000004 	stmdacc	r0, {r2}
     520:	01000004 	tsteq	r0, r4
     524:	00005200 	andeq	r5, r0, r0, lsl #4
     528:	00000000 	andeq	r0, r0, r0
     52c:	04400000 	strbeq	r0, [r0], #-0
     530:	04500000 	ldrbeq	r0, [r0], #-0
     534:	00090000 	andeq	r0, r9, r0
     538:	80080071 	andhi	r0, r8, r1, ror r0
     53c:	1aff081a 	bne	fffc25ac <__bss_end__+0xfffb7c74>
     540:	00045c9f 	muleq	r4, pc, ip	; <UNPREDICTABLE>
     544:	00046400 	andeq	r6, r4, r0, lsl #8
     548:	71000900 	tstvc	r0, r0, lsl #18
     54c:	1a800800 	bne	fe002554 <__bss_end__+0xfdff7c1c>
     550:	9f1aff08 	svcls	0x001aff08
	...
     55c:	00000448 	andeq	r0, r0, r8, asr #8
     560:	0000045c 	andeq	r0, r0, ip, asr r4
     564:	01f30004 	mvnseq	r0, r4
     568:	00009f50 	andeq	r9, r0, r0, asr pc
     56c:	00000000 	andeq	r0, r0, r0
     570:	045c0000 	ldrbeq	r0, [ip], #-0
     574:	046c0000 	strbteq	r0, [ip], #-0
     578:	00040000 	andeq	r0, r4, r0
     57c:	9f5001f3 	svcls	0x005001f3
	...
     588:	00000474 	andeq	r0, r0, r4, ror r4
     58c:	00000478 	andeq	r0, r0, r8, ror r4
     590:	00520001 	subseq	r0, r2, r1
     594:	00000000 	andeq	r0, r0, r0
     598:	98000000 	stmdals	r0, {}	; <UNPREDICTABLE>
     59c:	9c000004 	stcls	0, cr0, [r0], {4}
     5a0:	01000004 	tsteq	r0, r4
     5a4:	00005200 	andeq	r5, r0, r0, lsl #4
     5a8:	00000000 	andeq	r0, r0, r0
     5ac:	04d80000 	ldrbeq	r0, [r8], #0
     5b0:	04fc0000 	ldrbteq	r0, [ip], #0
     5b4:	00010000 	andeq	r0, r1, r0
     5b8:	0004fc50 	andeq	pc, r4, r0, asr ip	; <UNPREDICTABLE>
     5bc:	0005d800 	andeq	sp, r5, r0, lsl #16
     5c0:	57000100 	strpl	r0, [r0, -r0, lsl #2]
	...
     5cc:	000004d8 	ldrdeq	r0, [r0], -r8
     5d0:	000004f0 	strdeq	r0, [r0], -r0	; <UNPREDICTABLE>
     5d4:	f0510001 			; <UNDEFINED> instruction: 0xf0510001
     5d8:	d8000004 	stmdale	r0, {r2}
     5dc:	04000005 	streq	r0, [r0], #-5
     5e0:	5101f300 	mrspl	pc, SP_irq	; <UNPREDICTABLE>
     5e4:	0000009f 	muleq	r0, pc, r0	; <UNPREDICTABLE>
     5e8:	00000000 	andeq	r0, r0, r0
     5ec:	0004d800 	andeq	sp, r4, r0, lsl #16
     5f0:	0004ec00 	andeq	lr, r4, r0, lsl #24
     5f4:	52000100 	andpl	r0, r0, #0, 2
     5f8:	000004ec 	andeq	r0, r0, ip, ror #9
     5fc:	000005d8 	ldrdeq	r0, [r0], -r8
     600:	00550001 	subseq	r0, r5, r1
     604:	00000000 	andeq	r0, r0, r0
     608:	e4000000 	str	r0, [r0], #-0
     60c:	fc000004 	stc2	0, cr0, [r0], {4}
     610:	01000004 	tsteq	r0, r4
     614:	04fc5000 	ldrbteq	r5, [ip], #0
     618:	05d80000 	ldrbeq	r0, [r8]
     61c:	00010000 	andeq	r0, r1, r0
     620:	00000057 	andeq	r0, r0, r7, asr r0
     624:	00000000 	andeq	r0, r0, r0
     628:	0005d800 	andeq	sp, r5, r0, lsl #16
     62c:	0005df00 	andeq	sp, r5, r0, lsl #30
     630:	50000100 	andpl	r0, r0, r0, lsl #2
     634:	000005df 	ldrdeq	r0, [r0], -pc	; <UNPREDICTABLE>
     638:	000006a8 	andeq	r0, r0, r8, lsr #13
     63c:	01f30004 	mvnseq	r0, r4
     640:	00009f50 	andeq	r9, r0, r0, asr pc
     644:	00000000 	andeq	r0, r0, r0
     648:	05dc0000 	ldrbeq	r0, [ip]
     64c:	061c0000 	ldreq	r0, [ip], -r0
     650:	00020000 	andeq	r0, r2, r0
     654:	061c9f30 	sasxeq	r9, ip, r0
     658:	06400000 	strbeq	r0, [r0], -r0
     65c:	00010000 	andeq	r0, r1, r0
     660:	00064054 	andeq	r4, r6, r4, asr r0
     664:	00065f00 	andeq	r5, r6, r0, lsl #30
     668:	51000100 	mrspl	r0, (UNDEF: 16)
     66c:	00000664 	andeq	r0, r0, r4, ror #12
     670:	0000066b 	andeq	r0, r0, fp, ror #12
     674:	00510001 	subseq	r0, r1, r1
     678:	00000000 	andeq	r0, r0, r0
     67c:	2c000000 	stccs	0, cr0, [r0], {-0}
     680:	38000000 	stmdacc	r0, {}	; <UNPREDICTABLE>
     684:	01000000 	mrseq	r0, (UNDEF: 0)
     688:	00385000 	eorseq	r5, r8, r0
     68c:	00480000 	subeq	r0, r8, r0
     690:	00010000 	andeq	r0, r1, r0
     694:	00004855 	andeq	r4, r0, r5, asr r8
     698:	00005800 	andeq	r5, r0, r0, lsl #16
     69c:	50000100 	andpl	r0, r0, r0, lsl #2
	...
     6ac:	0000000b 	andeq	r0, r0, fp
     6b0:	0b500001 	bleq	14006bc <__bss_end__+0x13f5d84>
     6b4:	14000000 	strne	r0, [r0], #-0
     6b8:	01000000 	mrseq	r0, (UNDEF: 0)
     6bc:	00005400 	andeq	r5, r0, r0, lsl #8
	...
     6c8:	00100000 	andseq	r0, r0, r0
     6cc:	00010000 	andeq	r0, r1, r0
     6d0:	00001050 	andeq	r1, r0, r0, asr r0
     6d4:	00003400 	andeq	r3, r0, r0, lsl #8
     6d8:	54000100 	strpl	r0, [r0], #-256	; 0x100
	...
     6e8:	00000004 	andeq	r0, r0, r4
     6ec:	04500001 	ldrbeq	r0, [r0], #-1
     6f0:	0c000000 	stceq	0, cr0, [r0], {-0}
     6f4:	03000000 	movweq	r0, #0
     6f8:	9f307000 	svcls	0x00307000
     6fc:	0000000c 	andeq	r0, r0, ip
     700:	00000014 	andeq	r0, r0, r4, lsl r0
     704:	01f30004 	mvnseq	r0, r4
     708:	00009f50 	andeq	r9, r0, r0, asr pc
     70c:	00000000 	andeq	r0, r0, r0
     710:	00140000 	andseq	r0, r4, r0
     714:	00200000 	eoreq	r0, r0, r0
     718:	00010000 	andeq	r0, r1, r0
     71c:	00002050 	andeq	r2, r0, r0, asr r0
     720:	00002c00 	andeq	r2, r0, r0, lsl #24
     724:	70000300 	andvc	r0, r0, r0, lsl #6
     728:	002c9f01 	eoreq	r9, ip, r1, lsl #30
     72c:	00400000 	subeq	r0, r0, r0
     730:	00010000 	andeq	r0, r1, r0
     734:	00000050 	andeq	r0, r0, r0, asr r0
     738:	00000000 	andeq	r0, r0, r0
     73c:	00001400 	andeq	r1, r0, r0, lsl #8
     740:	00001800 	andeq	r1, r0, r0, lsl #16
     744:	51000100 	mrspl	r0, (UNDEF: 16)
     748:	00000018 	andeq	r0, r0, r8, lsl r0
     74c:	00000040 	andeq	r0, r0, r0, asr #32
     750:	01f30004 	mvnseq	r0, r4
     754:	00009f51 	andeq	r9, r0, r1, asr pc
     758:	00000000 	andeq	r0, r0, r0
     75c:	00400000 	subeq	r0, r0, r0
     760:	00600000 	rsbeq	r0, r0, r0
     764:	00010000 	andeq	r0, r1, r0
     768:	00006050 	andeq	r6, r0, r0, asr r0
     76c:	00006c00 	andeq	r6, r0, r0, lsl #24
     770:	71000300 	mrsvc	r0, LR_irq
     774:	006c9f01 	rsbeq	r9, ip, r1, lsl #30
     778:	00740000 	rsbseq	r0, r4, r0
     77c:	00010000 	andeq	r0, r1, r0
     780:	00007451 	andeq	r7, r0, r1, asr r4
     784:	00008000 	andeq	r8, r0, r0
     788:	71000300 	mrsvc	r0, LR_irq
     78c:	00009f01 	andeq	r9, r0, r1, lsl #30
     790:	00000000 	andeq	r0, r0, r0
     794:	00400000 	subeq	r0, r0, r0
     798:	00500000 	subseq	r0, r0, r0
     79c:	00010000 	andeq	r0, r1, r0
     7a0:	00005051 	andeq	r5, r0, r1, asr r0
     7a4:	00008000 	andeq	r8, r0, r0
     7a8:	f3000400 	vshl.u8	d0, d0, d0
     7ac:	009f5101 	addseq	r5, pc, r1, lsl #2
     7b0:	00000000 	andeq	r0, r0, r0
     7b4:	40000000 	andmi	r0, r0, r0
     7b8:	58000000 	stmdapl	r0, {}	; <UNPREDICTABLE>
     7bc:	01000000 	mrseq	r0, (UNDEF: 0)
     7c0:	00585200 	subseq	r5, r8, r0, lsl #4
     7c4:	00640000 	rsbeq	r0, r4, r0
     7c8:	00010000 	andeq	r0, r1, r0
     7cc:	00006452 	andeq	r6, r0, r2, asr r4
     7d0:	00006800 	andeq	r6, r0, r0, lsl #16
     7d4:	72000300 	andvc	r0, r0, #0, 6
     7d8:	00689f01 	rsbeq	r9, r8, r1, lsl #30
     7dc:	00800000 	addeq	r0, r0, r0
     7e0:	00010000 	andeq	r0, r1, r0
     7e4:	00000052 	andeq	r0, r0, r2, asr r0
     7e8:	00000000 	andeq	r0, r0, r0
     7ec:	00004000 	andeq	r4, r0, r0
     7f0:	00005400 	andeq	r5, r0, r0, lsl #8
     7f4:	53000100 	movwpl	r0, #256	; 0x100
     7f8:	00000054 	andeq	r0, r0, r4, asr r0
     7fc:	00000078 	andeq	r0, r0, r8, ror r0
     800:	00530001 	subseq	r0, r3, r1
     804:	00000000 	andeq	r0, r0, r0
     808:	48000000 	stmdami	r0, {}	; <UNPREDICTABLE>
     80c:	60000000 	andvs	r0, r0, r0
     810:	01000000 	mrseq	r0, (UNDEF: 0)
     814:	00605c00 	rsbeq	r5, r0, r0, lsl #24
     818:	00800000 	addeq	r0, r0, r0
     81c:	000a0000 	andeq	r0, sl, r0
     820:	f35201f3 	vbsl	q8, q9, <illegal reg q9.5>
     824:	231c5301 	tstcs	ip, #67108864	; 0x4000000
     828:	00009f01 	andeq	r9, r0, r1, lsl #30
     82c:	00000000 	andeq	r0, r0, r0
     830:	00800000 	addeq	r0, r0, r0
     834:	00a40000 	adceq	r0, r4, r0
     838:	00010000 	andeq	r0, r1, r0
     83c:	0000a450 	andeq	sl, r0, r0, asr r4
     840:	00011800 	andeq	r1, r1, r0, lsl #16
     844:	70000300 	andvc	r0, r0, r0, lsl #6
     848:	01189f02 	tsteq	r8, r2, lsl #30
     84c:	02280000 	eoreq	r0, r8, #0
     850:	00040000 	andeq	r0, r4, r0
     854:	9f5001f3 	svcls	0x005001f3
	...
     860:	00000080 	andeq	r0, r0, r0, lsl #1
     864:	000000f0 	strdeq	r0, [r0], -r0	; <UNPREDICTABLE>
     868:	f0510001 			; <UNDEFINED> instruction: 0xf0510001
     86c:	60000000 	andvs	r0, r0, r0
     870:	01000001 	tsteq	r0, r1
     874:	01605500 	cmneq	r0, r0, lsl #10
     878:	01680000 	cmneq	r8, r0
     87c:	00010000 	andeq	r0, r1, r0
     880:	00016851 	andeq	r6, r1, r1, asr r8
     884:	00018800 	andeq	r8, r1, r0, lsl #16
     888:	55000100 	strpl	r0, [r0, #-256]	; 0x100
     88c:	00000188 	andeq	r0, r0, r8, lsl #3
     890:	0000019c 	muleq	r0, ip, r1
     894:	9c510001 	mrrcls	0, 0, r0, r1, cr1
     898:	bc000001 	stclt	0, cr0, [r0], {1}
     89c:	01000001 	tsteq	r0, r1
     8a0:	01bc5500 			; <UNDEFINED> instruction: 0x01bc5500
     8a4:	01bf0000 			; <UNDEFINED> instruction: 0x01bf0000
     8a8:	00010000 	andeq	r0, r1, r0
     8ac:	0001bf51 	andeq	fp, r1, r1, asr pc
     8b0:	00020800 	andeq	r0, r2, r0, lsl #16
     8b4:	55000100 	strpl	r0, [r0, #-256]	; 0x100
     8b8:	00000208 	andeq	r0, r0, r8, lsl #4
     8bc:	00000228 	andeq	r0, r0, r8, lsr #4
     8c0:	01f30004 	mvnseq	r0, r4
     8c4:	00009f51 	andeq	r9, r0, r1, asr pc
     8c8:	00000000 	andeq	r0, r0, r0
     8cc:	00800000 	addeq	r0, r0, r0
     8d0:	00940000 	addseq	r0, r4, r0
     8d4:	00010000 	andeq	r0, r1, r0
     8d8:	00009452 	andeq	r9, r0, r2, asr r4
     8dc:	00020800 	andeq	r0, r2, r0, lsl #16
     8e0:	54000100 	strpl	r0, [r0], #-256	; 0x100
     8e4:	00000208 	andeq	r0, r0, r8, lsl #4
     8e8:	00000228 	andeq	r0, r0, r8, lsr #4
     8ec:	01f30004 	mvnseq	r0, r4
     8f0:	00009f52 	andeq	r9, r0, r2, asr pc
     8f4:	00000000 	andeq	r0, r0, r0
     8f8:	00800000 	addeq	r0, r0, r0
     8fc:	01000000 	mrseq	r0, (UNDEF: 0)
     900:	00010000 	andeq	r0, r1, r0
     904:	00010453 	andeq	r0, r1, r3, asr r4
     908:	00010800 	andeq	r0, r1, r0, lsl #16
     90c:	53000100 	movwpl	r0, #256	; 0x100
     910:	00000160 	andeq	r0, r0, r0, ror #2
     914:	00000168 	andeq	r0, r0, r8, ror #2
     918:	68530001 	ldmdavs	r3, {r0}^
     91c:	88000001 	stmdahi	r0, {r0}
     920:	04000001 	streq	r0, [r0], #-1
     924:	5301f300 	movwpl	pc, #4864	; 0x1300	; <UNPREDICTABLE>
     928:	0001889f 	muleq	r1, pc, r8	; <UNPREDICTABLE>
     92c:	00019000 	andeq	r9, r1, r0
     930:	53000100 	movwpl	r0, #256	; 0x100
     934:	00000190 	muleq	r0, r0, r1
     938:	00000194 	muleq	r0, r4, r1
     93c:	945c0001 	ldrbls	r0, [ip], #-1
     940:	9c000001 	stcls	0, cr0, [r0], {1}
     944:	01000001 	tsteq	r0, r1
     948:	019c5300 	orrseq	r5, ip, r0, lsl #6
     94c:	01bc0000 			; <UNDEFINED> instruction: 0x01bc0000
     950:	00040000 	andeq	r0, r4, r0
     954:	9f5301f3 	svcls	0x005301f3
     958:	000001bc 			; <UNDEFINED> instruction: 0x000001bc
     95c:	000001bf 			; <UNDEFINED> instruction: 0x000001bf
     960:	bf530001 	svclt	0x00530001
     964:	e0000001 	and	r0, r0, r1
     968:	04000001 	streq	r0, [r0], #-1
     96c:	5301f300 	movwpl	pc, #4864	; 0x1300	; <UNPREDICTABLE>
     970:	0000009f 	muleq	r0, pc, r0	; <UNPREDICTABLE>
     974:	00000000 	andeq	r0, r0, r0
     978:	00008000 	andeq	r8, r0, r0
     97c:	00009c00 	andeq	r9, r0, r0, lsl #24
     980:	91000200 	mrsls	r0, R8_usr
     984:	00009c00 	andeq	r9, r0, r0, lsl #24
     988:	0001bf00 	andeq	fp, r1, r0, lsl #30
     98c:	52000100 	andpl	r0, r0, #0, 2
     990:	000001e0 	andeq	r0, r0, r0, ror #3
     994:	000001eb 	andeq	r0, r0, fp, ror #3
     998:	00520001 	subseq	r0, r2, r1
     99c:	00000000 	andeq	r0, r0, r0
     9a0:	9c000000 	stcls	0, cr0, [r0], {-0}
     9a4:	0c000000 	stceq	0, cr0, [r0], {-0}
     9a8:	04000001 	streq	r0, [r0], #-1
     9ac:	7fa09100 	svcvc	0x00a09100
     9b0:	00010c9f 	muleq	r1, pc, ip	; <UNPREDICTABLE>
     9b4:	00011800 	andeq	r1, r1, r0, lsl #16
     9b8:	51000100 	mrspl	r0, (UNDEF: 16)
     9bc:	00000118 	andeq	r0, r0, r8, lsl r1
     9c0:	0000011c 	andeq	r0, r0, ip, lsl r1
     9c4:	1c530001 	mrrcne	0, 0, r0, r3, cr1
     9c8:	20000001 	andcs	r0, r0, r1
     9cc:	01000001 	tsteq	r0, r1
     9d0:	01205100 	teqeq	r0, r0, lsl #2
     9d4:	01600000 	cmneq	r0, r0
     9d8:	00010000 	andeq	r0, r1, r0
     9dc:	00016053 	andeq	r6, r1, r3, asr r0
     9e0:	00016400 	andeq	r6, r1, r0, lsl #8
     9e4:	91000400 	tstls	r0, r0, lsl #8
     9e8:	649f7fa0 	ldrvs	r7, [pc], #4000	; 9f0 <_start-0x7610>
     9ec:	6c000001 	stcvs	0, cr0, [r0], {1}
     9f0:	01000001 	tsteq	r0, r1
     9f4:	016c5e00 	cmneq	ip, r0, lsl #28
     9f8:	01880000 	orreq	r0, r8, r0
     9fc:	00010000 	andeq	r0, r1, r0
     a00:	00018853 	andeq	r8, r1, r3, asr r8
     a04:	00019000 	andeq	r9, r1, r0
     a08:	91000400 	tstls	r0, r0, lsl #8
     a0c:	909f7fa1 	addsls	r7, pc, r1, lsr #31
     a10:	94000001 	strls	r0, [r0], #-1
     a14:	01000001 	tsteq	r0, r1
     a18:	01945300 	orrseq	r5, r4, r0, lsl #6
     a1c:	01980000 	orrseq	r0, r8, r0
     a20:	00040000 	andeq	r0, r4, r0
     a24:	9f7fa091 	svcls	0x007fa091
     a28:	00000198 	muleq	r0, r8, r1
     a2c:	000001a0 	andeq	r0, r0, r0, lsr #3
     a30:	a05e0001 	subsge	r0, lr, r1
     a34:	bc000001 	stclt	0, cr0, [r0], {1}
     a38:	01000001 	tsteq	r0, r1
     a3c:	01bc5300 			; <UNDEFINED> instruction: 0x01bc5300
     a40:	01e00000 	mvneq	r0, r0
     a44:	00040000 	andeq	r0, r4, r0
     a48:	9f7fa091 	svcls	0x007fa091
     a4c:	000001e0 	andeq	r0, r0, r0, ror #3
     a50:	000001eb 	andeq	r0, r0, fp, ror #3
     a54:	00530001 	subseq	r0, r3, r1
     a58:	00000000 	andeq	r0, r0, r0
     a5c:	a0000000 	andge	r0, r0, r0
     a60:	ec000000 	stc	0, cr0, [r0], {-0}
     a64:	01000000 	mrseq	r0, (UNDEF: 0)
     a68:	00ec5c00 	rsceq	r5, ip, r0, lsl #24
     a6c:	01000000 	mrseq	r0, (UNDEF: 0)
     a70:	00010000 	andeq	r0, r1, r0
     a74:	00010053 	andeq	r0, r1, r3, asr r0
     a78:	00010400 	andeq	r0, r1, r0, lsl #8
     a7c:	5c000100 	stfpls	f0, [r0], {-0}
     a80:	00000104 	andeq	r0, r0, r4, lsl #2
     a84:	00000108 	andeq	r0, r0, r8, lsl #2
     a88:	08530001 	ldmdaeq	r3, {r0}^
     a8c:	18000001 	stmdane	r0, {r0}
     a90:	01000001 	tsteq	r0, r1
     a94:	01185c00 	tsteq	r8, r0, lsl #24
     a98:	011c0000 	tsteq	ip, r0
     a9c:	00010000 	andeq	r0, r1, r0
     aa0:	00011c50 	andeq	r1, r1, r0, asr ip
     aa4:	00013c00 	andeq	r3, r1, r0, lsl #24
     aa8:	5c000100 	stfpls	f0, [r0], {-0}
     aac:	00000144 	andeq	r0, r0, r4, asr #2
     ab0:	00000158 	andeq	r0, r0, r8, asr r1
     ab4:	58500001 	ldmdapl	r0, {r0}^
     ab8:	60000001 	andvs	r0, r0, r1
     abc:	01000001 	tsteq	r0, r1
     ac0:	01605c00 	cmneq	r0, r0, lsl #24
     ac4:	01680000 	cmneq	r8, r0
     ac8:	00010000 	andeq	r0, r1, r0
     acc:	00016853 	andeq	r6, r1, r3, asr r8
     ad0:	00017800 	andeq	r7, r1, r0, lsl #16
     ad4:	5c000100 	stfpls	f0, [r0], {-0}
     ad8:	00000178 	andeq	r0, r0, r8, ror r1
     adc:	00000180 	andeq	r0, r0, r0, lsl #3
     ae0:	007c0005 	rsbseq	r0, ip, r5
     ae4:	809f2534 	addshi	r2, pc, r4, lsr r5	; <UNPREDICTABLE>
     ae8:	88000001 	stmdahi	r0, {r0}
     aec:	01000001 	tsteq	r0, r1
     af0:	01885c00 	orreq	r5, r8, r0, lsl #24
     af4:	01900000 	orrseq	r0, r0, r0
     af8:	00010000 	andeq	r0, r1, r0
     afc:	00019053 	andeq	r9, r1, r3, asr r0
     b00:	00019400 	andeq	r9, r1, r0, lsl #8
     b04:	5c000100 	stfpls	f0, [r0], {-0}
     b08:	00000194 	muleq	r0, r4, r1
     b0c:	0000019c 	muleq	r0, ip, r1
     b10:	9c530001 	mrrcls	0, 0, r0, r3, cr1
     b14:	ac000001 	stcge	0, cr0, [r0], {1}
     b18:	01000001 	tsteq	r0, r1
     b1c:	01ac5c00 			; <UNDEFINED> instruction: 0x01ac5c00
     b20:	01b40000 			; <UNDEFINED> instruction: 0x01b40000
     b24:	00050000 	andeq	r0, r5, r0
     b28:	2531007c 	ldrcs	r0, [r1, #-124]!	; 0x7c
     b2c:	0001b49f 	muleq	r1, pc, r4	; <UNPREDICTABLE>
     b30:	0001bc00 	andeq	fp, r1, r0, lsl #24
     b34:	5c000100 	stfpls	f0, [r0], {-0}
     b38:	000001bc 			; <UNDEFINED> instruction: 0x000001bc
     b3c:	000001bf 			; <UNDEFINED> instruction: 0x000001bf
     b40:	bf530001 	svclt	0x00530001
     b44:	e0000001 	and	r0, r0, r1
     b48:	04000001 	streq	r0, [r0], #-1
     b4c:	5301f300 	movwpl	pc, #4864	; 0x1300	; <UNPREDICTABLE>
     b50:	0001e09f 	muleq	r1, pc, r0	; <UNPREDICTABLE>
     b54:	0001eb00 	andeq	lr, r1, r0, lsl #22
     b58:	5c000100 	stfpls	f0, [r0], {-0}
	...
     b64:	000000ec 	andeq	r0, r0, ip, ror #1
     b68:	000000fc 	strdeq	r0, [r0], -ip
     b6c:	9f300002 	svcls	0x00300002
     b70:	000000fc 	strdeq	r0, [r0], -ip
     b74:	00000104 	andeq	r0, r0, r4, lsl #2
     b78:	9f310002 	svcls	0x00310002
     b7c:	00000104 	andeq	r0, r0, r4, lsl #2
     b80:	00000108 	andeq	r0, r0, r8, lsl #2
     b84:	9f300002 	svcls	0x00300002
	...
     b90:	00000228 	andeq	r0, r0, r8, lsr #4
     b94:	0000023b 	andeq	r0, r0, fp, lsr r2
     b98:	3b500001 	blcc	1400ba4 <__bss_end__+0x13f626c>
     b9c:	5c000002 	stcpl	0, cr0, [r0], {2}
     ba0:	04000002 	streq	r0, [r0], #-2
     ba4:	5001f300 	andpl	pc, r1, r0, lsl #6
     ba8:	00025c9f 	muleq	r2, pc, ip	; <UNPREDICTABLE>
     bac:	00029000 	andeq	r9, r2, r0
     bb0:	50000100 	andpl	r0, r0, r0, lsl #2
	...
     bbc:	00000228 	andeq	r0, r0, r8, lsr #4
     bc0:	0000023b 	andeq	r0, r0, fp, lsr r2
     bc4:	3b510001 	blcc	1440bd0 <__bss_end__+0x1436298>
     bc8:	5c000002 	stcpl	0, cr0, [r0], {2}
     bcc:	04000002 	streq	r0, [r0], #-2
     bd0:	5101f300 	mrspl	pc, SP_irq	; <UNPREDICTABLE>
     bd4:	00025c9f 	muleq	r2, pc, ip	; <UNPREDICTABLE>
     bd8:	00029000 	andeq	r9, r2, r0
     bdc:	51000100 	mrspl	r0, (UNDEF: 16)
	...
     be8:	00000290 	muleq	r0, r0, r2
     bec:	000002bc 			; <UNDEFINED> instruction: 0x000002bc
     bf0:	bc500001 	mrrclt	0, 0, r0, r0, cr1	; <UNPREDICTABLE>
     bf4:	0c000002 	stceq	0, cr0, [r0], {2}
     bf8:	01000005 	tsteq	r0, r5
     bfc:	050c5a00 	streq	r5, [ip, #-2560]	; 0xa00
     c00:	05240000 	streq	r0, [r4, #-0]!
     c04:	00040000 	andeq	r0, r4, r0
     c08:	9f5001f3 	svcls	0x005001f3
	...
     c14:	00000290 	muleq	r0, r0, r2
     c18:	000002a4 	andeq	r0, r0, r4, lsr #5
     c1c:	a4510001 	ldrbge	r0, [r1], #-1
     c20:	bc000002 	stclt	0, cr0, [r0], {2}
     c24:	03000002 	movweq	r0, #2
     c28:	9f017100 	svcls	0x00017100
     c2c:	000002bc 			; <UNDEFINED> instruction: 0x000002bc
     c30:	00000524 	andeq	r0, r0, r4, lsr #10
     c34:	01f30004 	mvnseq	r0, r4
     c38:	00009f51 	andeq	r9, r0, r1, asr pc
     c3c:	00000000 	andeq	r0, r0, r0
     c40:	02900000 	addseq	r0, r0, #0
     c44:	02c40000 	sbceq	r0, r4, #0
     c48:	00010000 	andeq	r0, r1, r0
     c4c:	0002c452 	andeq	ip, r2, r2, asr r4
     c50:	0002ec00 	andeq	lr, r2, r0, lsl #24
     c54:	52000100 	andpl	r0, r0, #0, 2
     c58:	000002ec 	andeq	r0, r0, ip, ror #5
     c5c:	000004bc 			; <UNDEFINED> instruction: 0x000004bc
     c60:	bc560001 	mrrclt	0, 0, r0, r6, cr1
     c64:	24000004 	strcs	r0, [r0], #-4
     c68:	01000005 	tsteq	r0, r5
     c6c:	00005200 	andeq	r5, r0, r0, lsl #4
     c70:	00000000 	andeq	r0, r0, r0
     c74:	02900000 	addseq	r0, r0, #0
     c78:	02ac0000 	adceq	r0, ip, #0
     c7c:	00010000 	andeq	r0, r1, r0
     c80:	00000053 	andeq	r0, r0, r3, asr r0
     c84:	00000000 	andeq	r0, r0, r0
     c88:	0002a000 	andeq	sl, r2, r0
     c8c:	0002bc00 	andeq	fp, r2, r0, lsl #24
     c90:	50000100 	andpl	r0, r0, r0, lsl #2
     c94:	000002bc 			; <UNDEFINED> instruction: 0x000002bc
     c98:	000002c0 	andeq	r0, r0, r0, asr #5
     c9c:	c0540001 	subsgt	r0, r4, r1
     ca0:	cc000002 	stcgt	0, cr0, [r0], {2}
     ca4:	03000002 	movweq	r0, #2
     ca8:	9f017400 	svcls	0x00017400
     cac:	000002cc 	andeq	r0, r0, ip, asr #5
     cb0:	000002d8 	ldrdeq	r0, [r0], -r8
     cb4:	d8540001 	ldmdale	r4, {r0}^
     cb8:	e4000002 	str	r0, [r0], #-2
     cbc:	03000002 	movweq	r0, #2
     cc0:	9f017400 	svcls	0x00017400
     cc4:	000002e4 	andeq	r0, r0, r4, ror #5
     cc8:	000004c0 	andeq	r0, r0, r0, asr #9
     ccc:	c0540001 	subsgt	r0, r4, r1
     cd0:	cc000004 	stcgt	0, cr0, [r0], {4}
     cd4:	03000004 	movweq	r0, #4
     cd8:	9f017400 	svcls	0x00017400
     cdc:	000004cc 	andeq	r0, r0, ip, asr #9
     ce0:	000004f8 	strdeq	r0, [r0], -r8
     ce4:	f8540001 			; <UNDEFINED> instruction: 0xf8540001
     ce8:	04000004 	streq	r0, [r0], #-4
     cec:	01000005 	tsteq	r0, r5
     cf0:	05045000 	streq	r5, [r4, #-0]
     cf4:	050c0000 	streq	r0, [ip, #-0]
     cf8:	00030000 	andeq	r0, r3, r0
     cfc:	009f0174 	addseq	r0, pc, r4, ror r1	; <UNPREDICTABLE>
     d00:	00000000 	andeq	r0, r0, r0
     d04:	a8000000 	stmdage	r0, {}	; <UNPREDICTABLE>
     d08:	0c000002 	stceq	0, cr0, [r0], {2}
     d0c:	01000005 	tsteq	r0, r5
     d10:	050c5800 	streq	r5, [ip, #-2048]	; 0x800
     d14:	05240000 	streq	r0, [r4, #-0]!
     d18:	000a0000 	andeq	r0, sl, r0
     d1c:	f35101f3 	vbsl	q8, <illegal reg q8.5>, <illegal reg q9.5>
     d20:	31225001 	teqcc	r2, r1
     d24:	00009f1c 	andeq	r9, r0, ip, lsl pc
     d28:	00000000 	andeq	r0, r0, r0
     d2c:	03f40000 	mvnseq	r0, #0
     d30:	03f80000 	mvnseq	r0, #0
     d34:	00010000 	andeq	r0, r1, r0
     d38:	00041850 	andeq	r1, r4, r0, asr r8
     d3c:	00041c00 	andeq	r1, r4, r0, lsl #24
     d40:	50000100 	andpl	r0, r0, r0, lsl #2
     d44:	0000043c 	andeq	r0, r0, ip, lsr r4
     d48:	00000440 	andeq	r0, r0, r0, asr #8
     d4c:	60500001 	subsvs	r0, r0, r1
     d50:	64000004 	strvs	r0, [r0], #-4
     d54:	01000004 	tsteq	r0, r4
     d58:	046c5000 	strbteq	r5, [ip], #-0
     d5c:	04700000 	ldrbteq	r0, [r0], #-0
     d60:	00010000 	andeq	r0, r1, r0
     d64:	00049050 	andeq	r9, r4, r0, asr r0
     d68:	00049400 	andeq	r9, r4, r0, lsl #8
     d6c:	50000100 	andpl	r0, r0, r0, lsl #2
     d70:	000004b8 			; <UNDEFINED> instruction: 0x000004b8
     d74:	000004e0 	andeq	r0, r0, r0, ror #9
     d78:	00500001 	subseq	r0, r0, r1
     d7c:	00000000 	andeq	r0, r0, r0
     d80:	ec000000 	stc	0, cr0, [r0], {-0}
     d84:	f4000002 	vst4.8	{d0-d3}, [r0], r2
     d88:	02000002 	andeq	r0, r0, #2
     d8c:	f49f3000 			; <UNDEFINED> instruction: 0xf49f3000
     d90:	f8000002 			; <UNDEFINED> instruction: 0xf8000002
     d94:	01000002 	tsteq	r0, r2
     d98:	03045700 	movweq	r5, #18176	; 0x4700
     d9c:	04e00000 	strbteq	r0, [r0], #0
     da0:	00010000 	andeq	r0, r1, r0
     da4:	00000057 	andeq	r0, r0, r7, asr r0
     da8:	00000000 	andeq	r0, r0, r0
     dac:	00000400 	andeq	r0, r0, r0, lsl #8
     db0:	00000800 	andeq	r0, r0, r0, lsl #16
     db4:	73000700 	movwvc	r0, #1792	; 0x700
     db8:	10000a00 	andne	r0, r0, r0, lsl #20
     dbc:	00089f21 	andeq	r9, r8, r1, lsr #30
     dc0:	00100000 	andseq	r0, r0, r0
     dc4:	00010000 	andeq	r0, r1, r0
     dc8:	00000053 	andeq	r0, r0, r3, asr r0
     dcc:	00000000 	andeq	r0, r0, r0
     dd0:	00001400 	andeq	r1, r0, r0, lsl #8
     dd4:	00001800 	andeq	r1, r0, r0, lsl #16
     dd8:	73000700 	movwvc	r0, #1792	; 0x700
     ddc:	efff0b00 	svc	0x00ff0b00
     de0:	00189f1a 	andseq	r9, r8, sl, lsl pc
     de4:	00200000 	eoreq	r0, r0, r0
     de8:	00010000 	andeq	r0, r1, r0
     dec:	00000053 	andeq	r0, r0, r3, asr r0
	...
     df8:	00000c00 	andeq	r0, r0, r0, lsl #24
     dfc:	50000100 	andpl	r0, r0, r0, lsl #2
     e00:	0000000c 	andeq	r0, r0, ip
     e04:	00000020 	andeq	r0, r0, r0, lsr #32
     e08:	00540001 	subseq	r0, r4, r1
     e0c:	00000000 	andeq	r0, r0, r0
     e10:	34000000 	strcc	r0, [r0], #-0
     e14:	3c000000 	stccc	0, cr0, [r0], {-0}
     e18:	03000000 	movweq	r0, #0
     e1c:	9f047300 	svcls	0x00047300
     e20:	0000003c 	andeq	r0, r0, ip, lsr r0
     e24:	00000047 	andeq	r0, r0, r7, asr #32
     e28:	00530001 	subseq	r0, r3, r1
     e2c:	00000000 	andeq	r0, r0, r0
     e30:	48000000 	stmdami	r0, {}	; <UNPREDICTABLE>
     e34:	74000000 	strvc	r0, [r0], #-0
     e38:	01000000 	mrseq	r0, (UNDEF: 0)
     e3c:	00745000 	rsbseq	r5, r4, r0
     e40:	00830000 	addeq	r0, r3, r0
     e44:	00030000 	andeq	r0, r3, r0
     e48:	009f7873 	addseq	r7, pc, r3, ror r8	; <UNPREDICTABLE>
     e4c:	00000000 	andeq	r0, r0, r0
     e50:	e4000000 	str	r0, [r0], #-0
     e54:	e800008d 	stmda	r0, {r0, r2, r3, r7}
     e58:	0200008d 	andeq	r0, r0, #141	; 0x8d
     e5c:	e89f3000 	ldm	pc, {ip, sp}	; <UNPREDICTABLE>
     e60:	ec00008d 	stc	0, cr0, [r0], {141}	; 0x8d
     e64:	0100008d 	smlabbeq	r0, sp, r0, r0
     e68:	00005000 	andeq	r5, r0, r0
     e6c:	00000000 	andeq	r0, r0, r0
     e70:	8dfc0000 	ldclhi	0, cr0, [ip]
     e74:	8e000000 	cdphi	0, 0, cr0, cr0, cr0, {0}
     e78:	00020000 	andeq	r0, r2, r0
     e7c:	8e009f30 	mcrhi	15, 0, r9, cr0, cr0, {1}
     e80:	8e040000 	cdphi	0, 0, cr0, cr4, cr0, {0}
     e84:	00010000 	andeq	r0, r1, r0
     e88:	008e0853 	addeq	r0, lr, r3, asr r8
     e8c:	008e1000 	addeq	r1, lr, r0
     e90:	53000100 	movwpl	r0, #256	; 0x100
	...
     ea0:	00000004 	andeq	r0, r0, r4
     ea4:	04500001 	ldrbeq	r0, [r0], #-1
     ea8:	0c000000 	stceq	0, cr0, [r0], {-0}
     eac:	01000000 	mrseq	r0, (UNDEF: 0)
     eb0:	000c5300 	andeq	r5, ip, r0, lsl #6
     eb4:	00100000 	andseq	r0, r0, r0
     eb8:	00010000 	andeq	r0, r1, r0
     ebc:	00001050 	andeq	r1, r0, r0, asr r0
     ec0:	00001c00 	andeq	r1, r0, r0, lsl #24
     ec4:	53000100 	movwpl	r0, #256	; 0x100
	...
     ed0:	0000003c 	andeq	r0, r0, ip, lsr r0
     ed4:	00000047 	andeq	r0, r0, r7, asr #32
     ed8:	47500001 	ldrbmi	r0, [r0, -r1]
     edc:	60000000 	andvs	r0, r0, r0
     ee0:	01000000 	mrseq	r0, (UNDEF: 0)
     ee4:	00005500 	andeq	r5, r0, r0, lsl #10
     ee8:	00000000 	andeq	r0, r0, r0
     eec:	00500000 	subseq	r0, r0, r0
     ef0:	00540000 	subseq	r0, r4, r0
     ef4:	00010000 	andeq	r0, r1, r0
     ef8:	00000050 	andeq	r0, r0, r0, asr r0
     efc:	00000000 	andeq	r0, r0, r0
     f00:	00006000 	andeq	r6, r0, r0
     f04:	00006c00 	andeq	r6, r0, r0, lsl #24
     f08:	50000100 	andpl	r0, r0, r0, lsl #2
     f0c:	0000006c 	andeq	r0, r0, ip, rrx
     f10:	00000074 	andeq	r0, r0, r4, ror r0
     f14:	01f30004 	mvnseq	r0, r4
     f18:	00009f50 	andeq	r9, r0, r0, asr pc
     f1c:	00000000 	andeq	r0, r0, r0
     f20:	00740000 	rsbseq	r0, r4, r0
     f24:	00800000 	addeq	r0, r0, r0
     f28:	00010000 	andeq	r0, r1, r0
     f2c:	00008050 	andeq	r8, r0, r0, asr r0
     f30:	00008800 	andeq	r8, r0, r0, lsl #16
     f34:	f3000400 	vshl.u8	d0, d0, d0
     f38:	009f5001 	addseq	r5, pc, r1
	...
     f44:	90000000 	andls	r0, r0, r0
     f48:	01000000 	mrseq	r0, (UNDEF: 0)
     f4c:	00905000 	addseq	r5, r0, r0
     f50:	00d40000 	sbcseq	r0, r4, r0
     f54:	00010000 	andeq	r0, r1, r0
     f58:	00000054 	andeq	r0, r0, r4, asr r0
     f5c:	00000000 	andeq	r0, r0, r0
     f60:	00004800 	andeq	r4, r0, r0, lsl #16
     f64:	00004c00 	andeq	r4, r0, r0, lsl #24
     f68:	55000100 	strpl	r0, [r0, #-256]	; 0x100
     f6c:	00000054 	andeq	r0, r0, r4, asr r0
     f70:	00000058 	andeq	r0, r0, r8, asr r0
     f74:	60550001 	subsvs	r0, r5, r1
     f78:	64000000 	strvs	r0, [r0], #-0
     f7c:	01000000 	mrseq	r0, (UNDEF: 0)
     f80:	006c5500 	rsbeq	r5, ip, r0, lsl #10
     f84:	00700000 	rsbseq	r0, r0, r0
     f88:	00010000 	andeq	r0, r1, r0
     f8c:	00007855 	andeq	r7, r0, r5, asr r8
     f90:	00007c00 	andeq	r7, r0, r0, lsl #24
     f94:	55000100 	strpl	r0, [r0, #-256]	; 0x100
     f98:	00000084 	andeq	r0, r0, r4, lsl #1
     f9c:	00000088 	andeq	r0, r0, r8, lsl #1
     fa0:	8c550001 	mrrchi	0, 0, r0, r5, cr1
     fa4:	d4000000 	strle	r0, [r0], #-0
     fa8:	01000000 	mrseq	r0, (UNDEF: 0)
     fac:	00005500 	andeq	r5, r0, r0, lsl #10
     fb0:	00000000 	andeq	r0, r0, r0
     fb4:	001c0000 	andseq	r0, ip, r0
     fb8:	00440000 	subeq	r0, r4, r0
     fbc:	00010000 	andeq	r0, r1, r0
     fc0:	00004453 	andeq	r4, r0, r3, asr r4
     fc4:	00004c00 	andeq	r4, r0, r0, lsl #24
     fc8:	70001c00 	andvc	r1, r0, r0, lsl #24
     fcc:	f72cf700 			; <UNDEFINED> instruction: 0xf72cf700
     fd0:	0825f425 	stmdaeq	r5!, {r0, r2, r5, sl, ip, sp, lr, pc}
     fd4:	cccccccd 	stclgt	12, cr12, [ip], {205}	; 0xcd
     fd8:	00000000 	andeq	r0, r0, r0
     fdc:	f720081e 			; <UNDEFINED> instruction: 0xf720081e
     fe0:	2cf72525 	cfldr64cs	mvdx2, [r7], #148	; 0x94
     fe4:	4c9f2533 	cfldr32mi	mvfx2, [pc], {51}	; 0x33
     fe8:	50000000 	andpl	r0, r0, r0
     fec:	01000000 	mrseq	r0, (UNDEF: 0)
     ff0:	00505300 	subseq	r5, r0, r0, lsl #6
     ff4:	00580000 	subseq	r0, r8, r0
     ff8:	001c0000 	andseq	r0, ip, r0
     ffc:	2cf70070 	ldclcs	0, cr0, [r7], #448	; 0x1c0
    1000:	25f425f7 	ldrbcs	r2, [r4, #1527]!	; 0x5f7
    1004:	cccccd08 	stclgt	13, cr12, [ip], {8}
    1008:	000000cc 	andeq	r0, r0, ip, asr #1
    100c:	20081e00 	andcs	r1, r8, r0, lsl #28
    1010:	f72525f7 			; <UNDEFINED> instruction: 0xf72525f7
    1014:	9f25332c 	svcls	0x0025332c
    1018:	00000058 	andeq	r0, r0, r8, asr r0
    101c:	0000005c 	andeq	r0, r0, ip, asr r0
    1020:	5c530001 	mrrcpl	0, 0, r0, r3, cr1
    1024:	64000000 	strvs	r0, [r0], #-0
    1028:	1c000000 	stcne	0, cr0, [r0], {-0}
    102c:	f7007000 			; <UNDEFINED> instruction: 0xf7007000
    1030:	f425f72c 	vld1.8	{d15}, [r5 :128], ip
    1034:	cccd0825 	stclgt	8, cr0, [sp], {37}	; 0x25
    1038:	0000cccc 	andeq	ip, r0, ip, asr #25
    103c:	081e0000 	ldmdaeq	lr, {}	; <UNPREDICTABLE>
    1040:	2525f720 	strcs	pc, [r5, #-1824]!	; 0x720
    1044:	25332cf7 	ldrcs	r2, [r3, #-3319]!	; 0xcf7
    1048:	0000649f 	muleq	r0, pc, r4	; <UNPREDICTABLE>
    104c:	00006800 	andeq	r6, r0, r0, lsl #16
    1050:	53000100 	movwpl	r0, #256	; 0x100
    1054:	00000068 	andeq	r0, r0, r8, rrx
    1058:	00000070 	andeq	r0, r0, r0, ror r0
    105c:	0070001c 	rsbseq	r0, r0, ip, lsl r0
    1060:	25f72cf7 	ldrbcs	r2, [r7, #3319]!	; 0xcf7
    1064:	cd0825f4 	cfstr32gt	mvfx2, [r8, #-976]	; 0xfffffc30
    1068:	00cccccc 	sbceq	ip, ip, ip, asr #25
    106c:	1e000000 	cdpne	0, 0, cr0, cr0, cr0, {0}
    1070:	25f72008 	ldrbcs	r2, [r7, #8]!
    1074:	332cf725 	msrcc	CPSR_fs, #9699328	; 0x940000
    1078:	00709f25 	rsbseq	r9, r0, r5, lsr #30
    107c:	00740000 	rsbseq	r0, r4, r0
    1080:	00010000 	andeq	r0, r1, r0
    1084:	00007453 	andeq	r7, r0, r3, asr r4
    1088:	00007c00 	andeq	r7, r0, r0, lsl #24
    108c:	70001c00 	andvc	r1, r0, r0, lsl #24
    1090:	f72cf700 			; <UNDEFINED> instruction: 0xf72cf700
    1094:	0825f425 	stmdaeq	r5!, {r0, r2, r5, sl, ip, sp, lr, pc}
    1098:	cccccccd 	stclgt	12, cr12, [ip], {205}	; 0xcd
    109c:	00000000 	andeq	r0, r0, r0
    10a0:	f720081e 			; <UNDEFINED> instruction: 0xf720081e
    10a4:	2cf72525 	cfldr64cs	mvdx2, [r7], #148	; 0x94
    10a8:	7c9f2533 	cfldr32vc	mvfx2, [pc], {51}	; 0x33
    10ac:	80000000 	andhi	r0, r0, r0
    10b0:	01000000 	mrseq	r0, (UNDEF: 0)
    10b4:	00805300 	addeq	r5, r0, r0, lsl #6
    10b8:	00880000 	addeq	r0, r8, r0
    10bc:	001c0000 	andseq	r0, ip, r0
    10c0:	2cf70070 	ldclcs	0, cr0, [r7], #448	; 0x1c0
    10c4:	25f425f7 	ldrbcs	r2, [r4, #1527]!	; 0x5f7
    10c8:	cccccd08 	stclgt	13, cr12, [ip], {8}
    10cc:	000000cc 	andeq	r0, r0, ip, asr #1
    10d0:	20081e00 	andcs	r1, r8, r0, lsl #28
    10d4:	f72525f7 			; <UNDEFINED> instruction: 0xf72525f7
    10d8:	9f25332c 	svcls	0x0025332c
    10dc:	00000088 	andeq	r0, r0, r8, lsl #1
    10e0:	0000008c 	andeq	r0, r0, ip, lsl #1
    10e4:	8c530001 	mrrchi	0, 0, r0, r3, cr1
    10e8:	90000000 	andls	r0, r0, r0
    10ec:	1c000000 	stcne	0, cr0, [r0], {-0}
    10f0:	f7007000 			; <UNDEFINED> instruction: 0xf7007000
    10f4:	f425f72c 	vld1.8	{d15}, [r5 :128], ip
    10f8:	cccd0825 	stclgt	8, cr0, [sp], {37}	; 0x25
    10fc:	0000cccc 	andeq	ip, r0, ip, asr #25
    1100:	081e0000 	ldmdaeq	lr, {}	; <UNPREDICTABLE>
    1104:	2525f720 	strcs	pc, [r5, #-1824]!	; 0x720
    1108:	25332cf7 	ldrcs	r2, [r3, #-3319]!	; 0xcf7
    110c:	0000909f 	muleq	r0, pc, r0	; <UNPREDICTABLE>
    1110:	00009800 	andeq	r9, r0, r0, lsl #16
    1114:	74001c00 	strvc	r1, [r0], #-3072	; 0xc00
    1118:	f72cf700 			; <UNDEFINED> instruction: 0xf72cf700
    111c:	0825f425 	stmdaeq	r5!, {r0, r2, r5, sl, ip, sp, lr, pc}
    1120:	cccccccd 	stclgt	12, cr12, [ip], {205}	; 0xcd
    1124:	00000000 	andeq	r0, r0, r0
    1128:	f720081e 			; <UNDEFINED> instruction: 0xf720081e
    112c:	2cf72525 	cfldr64cs	mvdx2, [r7], #148	; 0x94
    1130:	989f2533 	ldmls	pc, {r0, r1, r4, r5, r8, sl, sp}	; <UNPREDICTABLE>
    1134:	9c000000 	stcls	0, cr0, [r0], {-0}
    1138:	17000000 	strne	r0, [r0, -r0]
    113c:	f7007400 			; <UNDEFINED> instruction: 0xf7007400
    1140:	7125f72c 	msrvc	SP_abt, ip
    1144:	f72cf700 			; <UNDEFINED> instruction: 0xf72cf700
    1148:	20081e25 	andcs	r1, r8, r5, lsr #28
    114c:	f72525f7 			; <UNDEFINED> instruction: 0xf72525f7
    1150:	9f25332c 	svcls	0x0025332c
    1154:	0000009c 	muleq	r0, ip, r0
    1158:	000000d4 	ldrdeq	r0, [r0], -r4
    115c:	0074001c 	rsbseq	r0, r4, ip, lsl r0
    1160:	25f72cf7 	ldrbcs	r2, [r7, #3319]!	; 0xcf7
    1164:	cd0825f4 	cfstr32gt	mvfx2, [r8, #-976]	; 0xfffffc30
    1168:	00cccccc 	sbceq	ip, ip, ip, asr #25
    116c:	1e000000 	cdpne	0, 0, cr0, cr0, cr0, {0}
    1170:	25f72008 	ldrbcs	r2, [r7, #8]!
    1174:	332cf725 	msrcc	CPSR_fs, #9699328	; 0x940000
    1178:	00009f25 	andeq	r9, r0, r5, lsr #30
    117c:	00000000 	andeq	r0, r0, r0
    1180:	00940000 	addseq	r0, r4, r0
    1184:	00b80000 	adcseq	r0, r8, r0
    1188:	00010000 	andeq	r0, r1, r0
    118c:	0000b850 	andeq	fp, r0, r0, asr r8
    1190:	0000c400 	andeq	ip, r0, r0, lsl #8
    1194:	31000800 	tstcc	r0, r0, lsl #16
    1198:	73240071 	teqvc	r4, #113	; 0x71
    119c:	c49f2100 	ldrgt	r2, [pc], #256	; 11a4 <_start-0x6e5c>
    11a0:	c7000000 	strgt	r0, [r0, -r0]
    11a4:	01000000 	mrseq	r0, (UNDEF: 0)
    11a8:	00005100 	andeq	r5, r0, r0, lsl #2
    11ac:	00000000 	andeq	r0, r0, r0
    11b0:	00d40000 	sbcseq	r0, r4, r0
    11b4:	00f80000 	rscseq	r0, r8, r0
    11b8:	00010000 	andeq	r0, r1, r0
    11bc:	0000f850 	andeq	pc, r0, r0, asr r8	; <UNPREDICTABLE>
    11c0:	00010c00 	andeq	r0, r1, r0, lsl #24
    11c4:	f3000400 	vshl.u8	d0, d0, d0
    11c8:	009f5001 	addseq	r5, pc, r1
    11cc:	00000000 	andeq	r0, r0, r0
    11d0:	e0000000 	and	r0, r0, r0
    11d4:	e8000000 	stmda	r0, {}	; <UNPREDICTABLE>
    11d8:	02000000 	andeq	r0, r0, #0
    11dc:	e89f3000 	ldm	pc, {ip, sp}	; <UNPREDICTABLE>
    11e0:	e8000000 	stmda	r0, {}	; <UNPREDICTABLE>
    11e4:	01000000 	mrseq	r0, (UNDEF: 0)
    11e8:	00e85200 	rsceq	r5, r8, r0, lsl #4
    11ec:	00f00000 	rscseq	r0, r0, r0
    11f0:	00020000 	andeq	r0, r2, r0
    11f4:	00f09f30 	rscseq	r9, r0, r0, lsr pc
    11f8:	01030000 	mrseq	r0, (UNDEF: 3)
    11fc:	00010000 	andeq	r0, r1, r0
    1200:	00000052 	andeq	r0, r0, r2, asr r0
    1204:	00000000 	andeq	r0, r0, r0
    1208:	0000e000 	andeq	lr, r0, r0
    120c:	0000f400 	andeq	pc, r0, r0, lsl #8
    1210:	30000200 	andcc	r0, r0, r0, lsl #4
    1214:	0000f49f 	muleq	r0, pc, r4	; <UNPREDICTABLE>
    1218:	00010000 	andeq	r0, r1, r0
    121c:	31000500 	tstcc	r0, r0, lsl #10
    1220:	9f240073 	svcls	0x00240073
    1224:	00000100 	andeq	r0, r0, r0, lsl #2
    1228:	00000103 	andeq	r0, r0, r3, lsl #2
    122c:	03510001 	cmpeq	r1, #1
    1230:	0c000001 	stceq	0, cr0, [r0], {1}
    1234:	08000001 	stmdaeq	r0, {r0}
    1238:	01f33100 	mvnseq	r3, r0, lsl #2
    123c:	241a4f50 	ldrcs	r4, [sl], #-3920	; 0xf50
    1240:	0000009f 	muleq	r0, pc, r0	; <UNPREDICTABLE>
    1244:	00000000 	andeq	r0, r0, r0
    1248:	00010c00 	andeq	r0, r1, r0, lsl #24
    124c:	00013000 	andeq	r3, r1, r0
    1250:	50000100 	andpl	r0, r0, r0, lsl #2
    1254:	00000130 	andeq	r0, r0, r0, lsr r1
    1258:	00000144 	andeq	r0, r0, r4, asr #2
    125c:	01f30004 	mvnseq	r0, r4
    1260:	00009f50 	andeq	r9, r0, r0, asr pc
    1264:	00000000 	andeq	r0, r0, r0
    1268:	01180000 	tsteq	r8, r0
    126c:	01200000 	teqeq	r0, r0
    1270:	00020000 	andeq	r0, r2, r0
    1274:	01209f30 	teqeq	r0, r0, lsr pc
    1278:	01200000 	teqeq	r0, r0
    127c:	00010000 	andeq	r0, r1, r0
    1280:	00012052 	andeq	r2, r1, r2, asr r0
    1284:	00012800 	andeq	r2, r1, r0, lsl #16
    1288:	30000200 	andcc	r0, r0, r0, lsl #4
    128c:	0001289f 	muleq	r1, pc, r8	; <UNPREDICTABLE>
    1290:	00013b00 	andeq	r3, r1, r0, lsl #22
    1294:	52000100 	andpl	r0, r0, #0, 2
	...
    12a0:	00000118 	andeq	r0, r0, r8, lsl r1
    12a4:	0000012c 	andeq	r0, r0, ip, lsr #2
    12a8:	9f300002 	svcls	0x00300002
    12ac:	0000012c 	andeq	r0, r0, ip, lsr #2
    12b0:	00000138 	andeq	r0, r0, r8, lsr r1
    12b4:	73310005 	teqvc	r1, #5
    12b8:	389f2400 	ldmcc	pc, {sl, sp}	; <UNPREDICTABLE>
    12bc:	3b000001 	blcc	12c8 <_start-0x6d38>
    12c0:	01000001 	tsteq	r0, r1
    12c4:	013b5100 	teqeq	fp, r0, lsl #2
    12c8:	01440000 	mrseq	r0, (UNDEF: 68)
    12cc:	00080000 	andeq	r0, r8, r0
    12d0:	5001f331 	andpl	pc, r1, r1, lsr r3	; <UNPREDICTABLE>
    12d4:	9f241a4f 	svcls	0x00241a4f
	...
    12e0:	00000144 	andeq	r0, r0, r4, asr #2
    12e4:	000001d4 	ldrdeq	r0, [r0], -r4
    12e8:	d4500001 	ldrble	r0, [r0], #-1
    12ec:	10000001 	andne	r0, r0, r1
    12f0:	01000002 	tsteq	r0, r2
    12f4:	00005400 	andeq	r5, r0, r0, lsl #8
    12f8:	00000000 	andeq	r0, r0, r0
    12fc:	018c0000 	orreq	r0, ip, r0
    1300:	01900000 	orrseq	r0, r0, r0
    1304:	00010000 	andeq	r0, r1, r0
    1308:	00019855 	andeq	r9, r1, r5, asr r8
    130c:	00019c00 	andeq	r9, r1, r0, lsl #24
    1310:	55000100 	strpl	r0, [r0, #-256]	; 0x100
    1314:	000001a4 	andeq	r0, r0, r4, lsr #3
    1318:	000001a8 	andeq	r0, r0, r8, lsr #3
    131c:	b0550001 	subslt	r0, r5, r1
    1320:	b4000001 	strlt	r0, [r0], #-1
    1324:	01000001 	tsteq	r0, r1
    1328:	01bc5500 			; <UNDEFINED> instruction: 0x01bc5500
    132c:	01c00000 	biceq	r0, r0, r0
    1330:	00010000 	andeq	r0, r1, r0
    1334:	0001c855 	andeq	ip, r1, r5, asr r8
    1338:	0001cc00 	andeq	ip, r1, r0, lsl #24
    133c:	55000100 	strpl	r0, [r0, #-256]	; 0x100
    1340:	000001d0 	ldrdeq	r0, [r0], -r0	; <UNPREDICTABLE>
    1344:	00000210 	andeq	r0, r0, r0, lsl r2
    1348:	00550001 	subseq	r0, r5, r1
    134c:	00000000 	andeq	r0, r0, r0
    1350:	60000000 	andvs	r0, r0, r0
    1354:	88000001 	stmdahi	r0, {r0}
    1358:	01000001 	tsteq	r0, r1
    135c:	01885300 	orreq	r5, r8, r0, lsl #6
    1360:	01900000 	orrseq	r0, r0, r0
    1364:	001c0000 	andseq	r0, ip, r0
    1368:	2cf70070 	ldclcs	0, cr0, [r7], #448	; 0x1c0
    136c:	25f425f7 	ldrbcs	r2, [r4, #1527]!	; 0x5f7
    1370:	cccccd08 	stclgt	13, cr12, [ip], {8}
    1374:	000000cc 	andeq	r0, r0, ip, asr #1
    1378:	20081e00 	andcs	r1, r8, r0, lsl #28
    137c:	f72525f7 			; <UNDEFINED> instruction: 0xf72525f7
    1380:	9f25332c 	svcls	0x0025332c
    1384:	00000190 	muleq	r0, r0, r1
    1388:	00000194 	muleq	r0, r4, r1
    138c:	94530001 	ldrbls	r0, [r3], #-1
    1390:	9c000001 	stcls	0, cr0, [r0], {1}
    1394:	1c000001 	stcne	0, cr0, [r0], {1}
    1398:	f7007000 			; <UNDEFINED> instruction: 0xf7007000
    139c:	f425f72c 	vld1.8	{d15}, [r5 :128], ip
    13a0:	cccd0825 	stclgt	8, cr0, [sp], {37}	; 0x25
    13a4:	0000cccc 	andeq	ip, r0, ip, asr #25
    13a8:	081e0000 	ldmdaeq	lr, {}	; <UNPREDICTABLE>
    13ac:	2525f720 	strcs	pc, [r5, #-1824]!	; 0x720
    13b0:	25332cf7 	ldrcs	r2, [r3, #-3319]!	; 0xcf7
    13b4:	00019c9f 	muleq	r1, pc, ip	; <UNPREDICTABLE>
    13b8:	0001a000 	andeq	sl, r1, r0
    13bc:	53000100 	movwpl	r0, #256	; 0x100
    13c0:	000001a0 	andeq	r0, r0, r0, lsr #3
    13c4:	000001a8 	andeq	r0, r0, r8, lsr #3
    13c8:	0070001c 	rsbseq	r0, r0, ip, lsl r0
    13cc:	25f72cf7 	ldrbcs	r2, [r7, #3319]!	; 0xcf7
    13d0:	cd0825f4 	cfstr32gt	mvfx2, [r8, #-976]	; 0xfffffc30
    13d4:	00cccccc 	sbceq	ip, ip, ip, asr #25
    13d8:	1e000000 	cdpne	0, 0, cr0, cr0, cr0, {0}
    13dc:	25f72008 	ldrbcs	r2, [r7, #8]!
    13e0:	332cf725 	msrcc	CPSR_fs, #9699328	; 0x940000
    13e4:	01a89f25 			; <UNDEFINED> instruction: 0x01a89f25
    13e8:	01ac0000 			; <UNDEFINED> instruction: 0x01ac0000
    13ec:	00010000 	andeq	r0, r1, r0
    13f0:	0001ac53 	andeq	sl, r1, r3, asr ip
    13f4:	0001b400 	andeq	fp, r1, r0, lsl #8
    13f8:	70001c00 	andvc	r1, r0, r0, lsl #24
    13fc:	f72cf700 			; <UNDEFINED> instruction: 0xf72cf700
    1400:	0825f425 	stmdaeq	r5!, {r0, r2, r5, sl, ip, sp, lr, pc}
    1404:	cccccccd 	stclgt	12, cr12, [ip], {205}	; 0xcd
    1408:	00000000 	andeq	r0, r0, r0
    140c:	f720081e 			; <UNDEFINED> instruction: 0xf720081e
    1410:	2cf72525 	cfldr64cs	mvdx2, [r7], #148	; 0x94
    1414:	b49f2533 	ldrlt	r2, [pc], #1331	; 141c <_start-0x6be4>
    1418:	b8000001 	stmdalt	r0, {r0}
    141c:	01000001 	tsteq	r0, r1
    1420:	01b85300 			; <UNDEFINED> instruction: 0x01b85300
    1424:	01c00000 	biceq	r0, r0, r0
    1428:	001c0000 	andseq	r0, ip, r0
    142c:	2cf70070 	ldclcs	0, cr0, [r7], #448	; 0x1c0
    1430:	25f425f7 	ldrbcs	r2, [r4, #1527]!	; 0x5f7
    1434:	cccccd08 	stclgt	13, cr12, [ip], {8}
    1438:	000000cc 	andeq	r0, r0, ip, asr #1
    143c:	20081e00 	andcs	r1, r8, r0, lsl #28
    1440:	f72525f7 			; <UNDEFINED> instruction: 0xf72525f7
    1444:	9f25332c 	svcls	0x0025332c
    1448:	000001c0 	andeq	r0, r0, r0, asr #3
    144c:	000001c4 	andeq	r0, r0, r4, asr #3
    1450:	c4530001 	ldrbgt	r0, [r3], #-1
    1454:	cc000001 	stcgt	0, cr0, [r0], {1}
    1458:	1c000001 	stcne	0, cr0, [r0], {1}
    145c:	f7007000 			; <UNDEFINED> instruction: 0xf7007000
    1460:	f425f72c 	vld1.8	{d15}, [r5 :128], ip
    1464:	cccd0825 	stclgt	8, cr0, [sp], {37}	; 0x25
    1468:	0000cccc 	andeq	ip, r0, ip, asr #25
    146c:	081e0000 	ldmdaeq	lr, {}	; <UNPREDICTABLE>
    1470:	2525f720 	strcs	pc, [r5, #-1824]!	; 0x720
    1474:	25332cf7 	ldrcs	r2, [r3, #-3319]!	; 0xcf7
    1478:	0001cc9f 	muleq	r1, pc, ip	; <UNPREDICTABLE>
    147c:	0001d000 	andeq	sp, r1, r0
    1480:	53000100 	movwpl	r0, #256	; 0x100
    1484:	000001d0 	ldrdeq	r0, [r0], -r0	; <UNPREDICTABLE>
    1488:	000001d4 	ldrdeq	r0, [r0], -r4
    148c:	0070001c 	rsbseq	r0, r0, ip, lsl r0
    1490:	25f72cf7 	ldrbcs	r2, [r7, #3319]!	; 0xcf7
    1494:	cd0825f4 	cfstr32gt	mvfx2, [r8, #-976]	; 0xfffffc30
    1498:	00cccccc 	sbceq	ip, ip, ip, asr #25
    149c:	1e000000 	cdpne	0, 0, cr0, cr0, cr0, {0}
    14a0:	25f72008 	ldrbcs	r2, [r7, #8]!
    14a4:	332cf725 	msrcc	CPSR_fs, #9699328	; 0x940000
    14a8:	01d49f25 	bicseq	r9, r4, r5, lsr #30
    14ac:	01dc0000 	bicseq	r0, ip, r0
    14b0:	001c0000 	andseq	r0, ip, r0
    14b4:	2cf70074 	ldclcs	0, cr0, [r7], #464	; 0x1d0
    14b8:	25f425f7 	ldrbcs	r2, [r4, #1527]!	; 0x5f7
    14bc:	cccccd08 	stclgt	13, cr12, [ip], {8}
    14c0:	000000cc 	andeq	r0, r0, ip, asr #1
    14c4:	20081e00 	andcs	r1, r8, r0, lsl #28
    14c8:	f72525f7 			; <UNDEFINED> instruction: 0xf72525f7
    14cc:	9f25332c 	svcls	0x0025332c
    14d0:	000001dc 	ldrdeq	r0, [r0], -ip
    14d4:	000001e0 	andeq	r0, r0, r0, ror #3
    14d8:	00740017 	rsbseq	r0, r4, r7, lsl r0
    14dc:	25f72cf7 	ldrbcs	r2, [r7, #3319]!	; 0xcf7
    14e0:	2cf70071 	ldclcs	0, cr0, [r7], #452	; 0x1c4
    14e4:	081e25f7 	ldmdaeq	lr, {r0, r1, r2, r4, r5, r6, r7, r8, sl, sp}
    14e8:	2525f720 	strcs	pc, [r5, #-1824]!	; 0x720
    14ec:	25332cf7 	ldrcs	r2, [r3, #-3319]!	; 0xcf7
    14f0:	0001e09f 	muleq	r1, pc, r0	; <UNPREDICTABLE>
    14f4:	00021000 	andeq	r1, r2, r0
    14f8:	74001c00 	strvc	r1, [r0], #-3072	; 0xc00
    14fc:	f72cf700 			; <UNDEFINED> instruction: 0xf72cf700
    1500:	0825f425 	stmdaeq	r5!, {r0, r2, r5, sl, ip, sp, lr, pc}
    1504:	cccccccd 	stclgt	12, cr12, [ip], {205}	; 0xcd
    1508:	00000000 	andeq	r0, r0, r0
    150c:	f720081e 			; <UNDEFINED> instruction: 0xf720081e
    1510:	2cf72525 	cfldr64cs	mvdx2, [r7], #148	; 0x94
    1514:	009f2533 	addseq	r2, pc, r3, lsr r5	; <UNPREDICTABLE>
    1518:	00000000 	andeq	r0, r0, r0
    151c:	d8000000 	stmdale	r0, {}	; <UNPREDICTABLE>
    1520:	fc000001 	stc2	0, cr0, [r0], {1}
    1524:	01000001 	tsteq	r0, r1
    1528:	01fc5000 	mvnseq	r5, r0
    152c:	02030000 	andeq	r0, r3, #0
    1530:	00010000 	andeq	r0, r1, r0
    1534:	00000051 	andeq	r0, r0, r1, asr r0
    1538:	00000000 	andeq	r0, r0, r0
    153c:	00021000 	andeq	r1, r2, r0
    1540:	00022c00 	andeq	r2, r2, r0, lsl #24
    1544:	50000100 	andpl	r0, r0, r0, lsl #2
    1548:	0000022c 	andeq	r0, r0, ip, lsr #4
    154c:	00000234 	andeq	r0, r0, r4, lsr r2
    1550:	34540001 	ldrbcc	r0, [r4], #-1
    1554:	3c000002 	stccc	0, cr0, [r0], {2}
    1558:	01000002 	tsteq	r0, r2
    155c:	023c5000 	eorseq	r5, ip, #0
    1560:	02440000 	subeq	r0, r4, #0
    1564:	00010000 	andeq	r0, r1, r0
    1568:	00024454 	andeq	r4, r2, r4, asr r4
    156c:	00025000 	andeq	r5, r2, r0
    1570:	f3000400 	vshl.u8	d0, d0, d0
    1574:	509f5001 	addspl	r5, pc, r1
    1578:	54000002 	strpl	r0, [r0], #-2
    157c:	01000002 	tsteq	r0, r2
    1580:	02545000 	subseq	r5, r4, #0
    1584:	025c0000 	subseq	r0, ip, #0
    1588:	00010000 	andeq	r0, r1, r0
    158c:	00000054 	andeq	r0, r0, r4, asr r0
    1590:	00000000 	andeq	r0, r0, r0
    1594:	00022000 	andeq	r2, r2, r0
    1598:	00023000 	andeq	r3, r2, r0
    159c:	30000200 	andcc	r0, r0, r0, lsl #4
    15a0:	0002309f 	muleq	r2, pc, r0	; <UNPREDICTABLE>
    15a4:	00023400 	andeq	r3, r2, r0, lsl #8
    15a8:	50000100 	andpl	r0, r0, r0, lsl #2
    15ac:	00000234 	andeq	r0, r0, r4, lsr r2
    15b0:	00000240 	andeq	r0, r0, r0, asr #4
    15b4:	9f300002 	svcls	0x00300002
    15b8:	00000240 	andeq	r0, r0, r0, asr #4
    15bc:	0000024c 	andeq	r0, r0, ip, asr #4
    15c0:	00500001 	subseq	r0, r0, r1
    15c4:	00000000 	andeq	r0, r0, r0
    15c8:	5c000000 	stcpl	0, cr0, [r0], {-0}
    15cc:	73000002 	movwvc	r0, #2
    15d0:	01000002 	tsteq	r0, r2
    15d4:	02735000 	rsbseq	r5, r3, #0
    15d8:	02780000 	rsbseq	r0, r8, #0
    15dc:	00040000 	andeq	r0, r4, r0
    15e0:	9f5001f3 	svcls	0x005001f3
    15e4:	00000278 	andeq	r0, r0, r8, ror r2
    15e8:	0000027b 	andeq	r0, r0, fp, ror r2
    15ec:	7b500001 	blvc	14015f8 <__bss_end__+0x13f6cc0>
    15f0:	80000002 	andhi	r0, r0, r2
    15f4:	04000002 	streq	r0, [r0], #-2
    15f8:	5001f300 	andpl	pc, r1, r0, lsl #6
    15fc:	0000009f 	muleq	r0, pc, r0	; <UNPREDICTABLE>
    1600:	00000000 	andeq	r0, r0, r0
    1604:	00025c00 	andeq	r5, r2, r0, lsl #24
    1608:	00027300 	andeq	r7, r2, r0, lsl #6
    160c:	51000100 	mrspl	r0, (UNDEF: 16)
    1610:	00000273 	andeq	r0, r0, r3, ror r2
    1614:	00000278 	andeq	r0, r0, r8, ror r2
    1618:	01f30004 	mvnseq	r0, r4
    161c:	02789f51 	rsbseq	r9, r8, #324	; 0x144
    1620:	027b0000 	rsbseq	r0, fp, #0
    1624:	00010000 	andeq	r0, r1, r0
    1628:	00027b51 	andeq	r7, r2, r1, asr fp
    162c:	00028000 	andeq	r8, r2, r0
    1630:	f3000400 	vshl.u8	d0, d0, d0
    1634:	009f5101 	addseq	r5, pc, r1, lsl #2
    1638:	00000000 	andeq	r0, r0, r0
    163c:	80000000 	andhi	r0, r0, r0
    1640:	18000002 	stmdane	r0, {r1}
    1644:	01000003 	tsteq	r0, r3
    1648:	03185000 	tsteq	r8, #0
    164c:	03580000 	cmpeq	r8, #0
    1650:	00010000 	andeq	r0, r1, r0
    1654:	00000054 	andeq	r0, r0, r4, asr r0
    1658:	00000000 	andeq	r0, r0, r0
    165c:	00028000 	andeq	r8, r2, r0
    1660:	00031b00 	andeq	r1, r3, r0, lsl #22
    1664:	51000100 	mrspl	r0, (UNDEF: 16)
    1668:	0000031b 	andeq	r0, r0, fp, lsl r3
    166c:	00000358 	andeq	r0, r0, r8, asr r3
    1670:	01f30004 	mvnseq	r0, r4
    1674:	00009f51 	andeq	r9, r0, r1, asr pc
    1678:	00000000 	andeq	r0, r0, r0
    167c:	02d00000 	sbcseq	r0, r0, #0
    1680:	02d40000 	sbcseq	r0, r4, #0
    1684:	00010000 	andeq	r0, r1, r0
    1688:	0002dc56 	andeq	sp, r2, r6, asr ip
    168c:	0002e000 	andeq	lr, r2, r0
    1690:	56000100 	strpl	r0, [r0], -r0, lsl #2
    1694:	000002e8 	andeq	r0, r0, r8, ror #5
    1698:	000002ec 	andeq	r0, r0, ip, ror #5
    169c:	f4560001 			; <UNDEFINED> instruction: 0xf4560001
    16a0:	f8000002 			; <UNDEFINED> instruction: 0xf8000002
    16a4:	01000002 	tsteq	r0, r2
    16a8:	03005600 	movweq	r5, #1536	; 0x600
    16ac:	03040000 	movweq	r0, #16384	; 0x4000
    16b0:	00010000 	andeq	r0, r1, r0
    16b4:	00030c56 	andeq	r0, r3, r6, asr ip
    16b8:	00031000 	andeq	r1, r3, r0
    16bc:	56000100 	strpl	r0, [r0], -r0, lsl #2
    16c0:	00000314 	andeq	r0, r0, r4, lsl r3
    16c4:	00000358 	andeq	r0, r0, r8, asr r3
    16c8:	00560001 	subseq	r0, r6, r1
    16cc:	00000000 	andeq	r0, r0, r0
    16d0:	a4000000 	strge	r0, [r0], #-0
    16d4:	cc000002 	stcgt	0, cr0, [r0], {2}
    16d8:	01000002 	tsteq	r0, r2
    16dc:	02cc5300 	sbceq	r5, ip, #0, 6
    16e0:	02d40000 	sbcseq	r0, r4, #0
    16e4:	001c0000 	andseq	r0, ip, r0
    16e8:	2cf70070 	ldclcs	0, cr0, [r7], #448	; 0x1c0
    16ec:	25f425f7 	ldrbcs	r2, [r4, #1527]!	; 0x5f7
    16f0:	cccccd08 	stclgt	13, cr12, [ip], {8}
    16f4:	000000cc 	andeq	r0, r0, ip, asr #1
    16f8:	20081e00 	andcs	r1, r8, r0, lsl #28
    16fc:	f72525f7 			; <UNDEFINED> instruction: 0xf72525f7
    1700:	9f25332c 	svcls	0x0025332c
    1704:	000002d4 	ldrdeq	r0, [r0], -r4
    1708:	000002d8 	ldrdeq	r0, [r0], -r8
    170c:	d8530001 	ldmdale	r3, {r0}^
    1710:	e0000002 	and	r0, r0, r2
    1714:	1c000002 	stcne	0, cr0, [r0], {2}
    1718:	f7007000 			; <UNDEFINED> instruction: 0xf7007000
    171c:	f425f72c 	vld1.8	{d15}, [r5 :128], ip
    1720:	cccd0825 	stclgt	8, cr0, [sp], {37}	; 0x25
    1724:	0000cccc 	andeq	ip, r0, ip, asr #25
    1728:	081e0000 	ldmdaeq	lr, {}	; <UNPREDICTABLE>
    172c:	2525f720 	strcs	pc, [r5, #-1824]!	; 0x720
    1730:	25332cf7 	ldrcs	r2, [r3, #-3319]!	; 0xcf7
    1734:	0002e09f 	muleq	r2, pc, r0	; <UNPREDICTABLE>
    1738:	0002e400 	andeq	lr, r2, r0, lsl #8
    173c:	53000100 	movwpl	r0, #256	; 0x100
    1740:	000002e4 	andeq	r0, r0, r4, ror #5
    1744:	000002ec 	andeq	r0, r0, ip, ror #5
    1748:	0070001c 	rsbseq	r0, r0, ip, lsl r0
    174c:	25f72cf7 	ldrbcs	r2, [r7, #3319]!	; 0xcf7
    1750:	cd0825f4 	cfstr32gt	mvfx2, [r8, #-976]	; 0xfffffc30
    1754:	00cccccc 	sbceq	ip, ip, ip, asr #25
    1758:	1e000000 	cdpne	0, 0, cr0, cr0, cr0, {0}
    175c:	25f72008 	ldrbcs	r2, [r7, #8]!
    1760:	332cf725 	msrcc	CPSR_fs, #9699328	; 0x940000
    1764:	02ec9f25 	rsceq	r9, ip, #37, 30	; 0x94
    1768:	02f00000 	rscseq	r0, r0, #0
    176c:	00010000 	andeq	r0, r1, r0
    1770:	0002f053 	andeq	pc, r2, r3, asr r0	; <UNPREDICTABLE>
    1774:	0002f800 	andeq	pc, r2, r0, lsl #16
    1778:	70001c00 	andvc	r1, r0, r0, lsl #24
    177c:	f72cf700 			; <UNDEFINED> instruction: 0xf72cf700
    1780:	0825f425 	stmdaeq	r5!, {r0, r2, r5, sl, ip, sp, lr, pc}
    1784:	cccccccd 	stclgt	12, cr12, [ip], {205}	; 0xcd
    1788:	00000000 	andeq	r0, r0, r0
    178c:	f720081e 			; <UNDEFINED> instruction: 0xf720081e
    1790:	2cf72525 	cfldr64cs	mvdx2, [r7], #148	; 0x94
    1794:	f89f2533 			; <UNDEFINED> instruction: 0xf89f2533
    1798:	fc000002 	stc2	0, cr0, [r0], {2}
    179c:	01000002 	tsteq	r0, r2
    17a0:	02fc5300 	rscseq	r5, ip, #0, 6
    17a4:	03040000 	movweq	r0, #16384	; 0x4000
    17a8:	001c0000 	andseq	r0, ip, r0
    17ac:	2cf70070 	ldclcs	0, cr0, [r7], #448	; 0x1c0
    17b0:	25f425f7 	ldrbcs	r2, [r4, #1527]!	; 0x5f7
    17b4:	cccccd08 	stclgt	13, cr12, [ip], {8}
    17b8:	000000cc 	andeq	r0, r0, ip, asr #1
    17bc:	20081e00 	andcs	r1, r8, r0, lsl #28
    17c0:	f72525f7 			; <UNDEFINED> instruction: 0xf72525f7
    17c4:	9f25332c 	svcls	0x0025332c
    17c8:	00000304 	andeq	r0, r0, r4, lsl #6
    17cc:	00000308 	andeq	r0, r0, r8, lsl #6
    17d0:	08530001 	ldmdaeq	r3, {r0}^
    17d4:	10000003 	andne	r0, r0, r3
    17d8:	1c000003 	stcne	0, cr0, [r0], {3}
    17dc:	f7007000 			; <UNDEFINED> instruction: 0xf7007000
    17e0:	f425f72c 	vld1.8	{d15}, [r5 :128], ip
    17e4:	cccd0825 	stclgt	8, cr0, [sp], {37}	; 0x25
    17e8:	0000cccc 	andeq	ip, r0, ip, asr #25
    17ec:	081e0000 	ldmdaeq	lr, {}	; <UNPREDICTABLE>
    17f0:	2525f720 	strcs	pc, [r5, #-1824]!	; 0x720
    17f4:	25332cf7 	ldrcs	r2, [r3, #-3319]!	; 0xcf7
    17f8:	0003109f 	muleq	r3, pc, r0	; <UNPREDICTABLE>
    17fc:	00031400 	andeq	r1, r3, r0, lsl #8
    1800:	53000100 	movwpl	r0, #256	; 0x100
    1804:	00000314 	andeq	r0, r0, r4, lsl r3
    1808:	00000318 	andeq	r0, r0, r8, lsl r3
    180c:	0070001c 	rsbseq	r0, r0, ip, lsl r0
    1810:	25f72cf7 	ldrbcs	r2, [r7, #3319]!	; 0xcf7
    1814:	cd0825f4 	cfstr32gt	mvfx2, [r8, #-976]	; 0xfffffc30
    1818:	00cccccc 	sbceq	ip, ip, ip, asr #25
    181c:	1e000000 	cdpne	0, 0, cr0, cr0, cr0, {0}
    1820:	25f72008 	ldrbcs	r2, [r7, #8]!
    1824:	332cf725 	msrcc	CPSR_fs, #9699328	; 0x940000
    1828:	03189f25 	tsteq	r8, #37, 30	; 0x94
    182c:	03200000 	teqeq	r0, #0
    1830:	001c0000 	andseq	r0, ip, r0
    1834:	2cf70074 	ldclcs	0, cr0, [r7], #464	; 0x1d0
    1838:	25f425f7 	ldrbcs	r2, [r4, #1527]!	; 0x5f7
    183c:	cccccd08 	stclgt	13, cr12, [ip], {8}
    1840:	000000cc 	andeq	r0, r0, ip, asr #1
    1844:	20081e00 	andcs	r1, r8, r0, lsl #28
    1848:	f72525f7 			; <UNDEFINED> instruction: 0xf72525f7
    184c:	9f25332c 	svcls	0x0025332c
    1850:	00000320 	andeq	r0, r0, r0, lsr #6
    1854:	00000324 	andeq	r0, r0, r4, lsr #6
    1858:	00740017 	rsbseq	r0, r4, r7, lsl r0
    185c:	25f72cf7 	ldrbcs	r2, [r7, #3319]!	; 0xcf7
    1860:	2cf70073 	ldclcs	0, cr0, [r7], #460	; 0x1cc
    1864:	081e25f7 	ldmdaeq	lr, {r0, r1, r2, r4, r5, r6, r7, r8, sl, sp}
    1868:	2525f720 	strcs	pc, [r5, #-1824]!	; 0x720
    186c:	25332cf7 	ldrcs	r2, [r3, #-3319]!	; 0xcf7
    1870:	0003249f 	muleq	r3, pc, r4	; <UNPREDICTABLE>
    1874:	00035800 	andeq	r5, r3, r0, lsl #16
    1878:	74001c00 	strvc	r1, [r0], #-3072	; 0xc00
    187c:	f72cf700 			; <UNDEFINED> instruction: 0xf72cf700
    1880:	0825f425 	stmdaeq	r5!, {r0, r2, r5, sl, ip, sp, lr, pc}
    1884:	cccccccd 	stclgt	12, cr12, [ip], {205}	; 0xcd
    1888:	00000000 	andeq	r0, r0, r0
    188c:	f720081e 			; <UNDEFINED> instruction: 0xf720081e
    1890:	2cf72525 	cfldr64cs	mvdx2, [r7], #148	; 0x94
    1894:	009f2533 	addseq	r2, pc, r3, lsr r5	; <UNPREDICTABLE>
    1898:	00000000 	andeq	r0, r0, r0
    189c:	1c000000 	stcne	0, cr0, [r0], {-0}
    18a0:	40000003 	andmi	r0, r0, r3
    18a4:	01000003 	tsteq	r0, r3
    18a8:	03405000 	movteq	r5, #0
    18ac:	03480000 	movteq	r0, #32768	; 0x8000
    18b0:	00090000 	andeq	r0, r9, r0
    18b4:	00730075 	rsbseq	r0, r3, r5, ror r0
    18b8:	21007124 	tstcs	r0, r4, lsr #2
    18bc:	0003489f 	muleq	r3, pc, r8	; <UNPREDICTABLE>
    18c0:	00034b00 	andeq	r4, r3, r0, lsl #22
    18c4:	51000100 	mrspl	r0, (UNDEF: 16)
	...
    18d0:	00000358 	andeq	r0, r0, r8, asr r3
    18d4:	0000037c 	andeq	r0, r0, ip, ror r3
    18d8:	7c500001 	mrrcvc	0, 0, r0, r0, cr1	; <UNPREDICTABLE>
    18dc:	90000003 	andls	r0, r0, r3
    18e0:	04000003 	streq	r0, [r0], #-3
    18e4:	5001f300 	andpl	pc, r1, r0, lsl #6
    18e8:	0000009f 	muleq	r0, pc, r0	; <UNPREDICTABLE>
    18ec:	00000000 	andeq	r0, r0, r0
    18f0:	00036400 	andeq	r6, r3, r0, lsl #8
    18f4:	00036c00 	andeq	r6, r3, r0, lsl #24
    18f8:	30000200 	andcc	r0, r0, r0, lsl #4
    18fc:	00036c9f 	muleq	r3, pc, ip	; <UNPREDICTABLE>
    1900:	00036c00 	andeq	r6, r3, r0, lsl #24
    1904:	52000100 	andpl	r0, r0, #0, 2
    1908:	0000036c 	andeq	r0, r0, ip, ror #6
    190c:	00000374 	andeq	r0, r0, r4, ror r3
    1910:	9f300002 	svcls	0x00300002
    1914:	00000374 	andeq	r0, r0, r4, ror r3
    1918:	00000387 	andeq	r0, r0, r7, lsl #7
    191c:	00520001 	subseq	r0, r2, r1
    1920:	00000000 	andeq	r0, r0, r0
    1924:	64000000 	strvs	r0, [r0], #-0
    1928:	78000003 	stmdavc	r0, {r0, r1}
    192c:	02000003 	andeq	r0, r0, #3
    1930:	789f3000 	ldmvc	pc, {ip, sp}	; <UNPREDICTABLE>
    1934:	84000003 	strhi	r0, [r0], #-3
    1938:	05000003 	streq	r0, [r0, #-3]
    193c:	00733100 	rsbseq	r3, r3, r0, lsl #2
    1940:	03849f24 	orreq	r9, r4, #36, 30	; 0x90
    1944:	03870000 	orreq	r0, r7, #0
    1948:	00010000 	andeq	r0, r1, r0
    194c:	00038751 	andeq	r8, r3, r1, asr r7
    1950:	00039000 	andeq	r9, r3, r0
    1954:	31000800 	tstcc	r0, r0, lsl #16
    1958:	4f5001f3 	svcmi	0x005001f3
    195c:	009f241a 	addseq	r2, pc, sl, lsl r4	; <UNPREDICTABLE>
    1960:	00000000 	andeq	r0, r0, r0
    1964:	90000000 	andls	r0, r0, r0
    1968:	9c000003 	stcls	0, cr0, [r0], {3}
    196c:	01000003 	tsteq	r0, r3
    1970:	039c5000 	orrseq	r5, ip, #0
    1974:	03bc0000 			; <UNDEFINED> instruction: 0x03bc0000
    1978:	00040000 	andeq	r0, r4, r0
    197c:	9f5001f3 	svcls	0x005001f3
	...
    1988:	000003bc 			; <UNDEFINED> instruction: 0x000003bc
    198c:	000003cf 	andeq	r0, r0, pc, asr #7
    1990:	cf500001 	svcgt	0x00500001
    1994:	08000003 	stmdaeq	r0, {r0, r1}
    1998:	01000004 	tsteq	r0, r4
    199c:	04085400 	streq	r5, [r8], #-1024	; 0x400
    19a0:	04400000 	strbeq	r0, [r0], #-0
    19a4:	00040000 	andeq	r0, r4, r0
    19a8:	9f5001f3 	svcls	0x005001f3
	...
    19b4:	00000428 	andeq	r0, r0, r8, lsr #8
    19b8:	0000042c 	andeq	r0, r0, ip, lsr #8
    19bc:	2c500001 	mrrccs	0, 0, r0, r0, cr1	; <UNPREDICTABLE>
    19c0:	33000004 	movwcc	r0, #4
    19c4:	01000004 	tsteq	r0, r4
    19c8:	00005100 	andeq	r5, r0, r0, lsl #2
    19cc:	00000000 	andeq	r0, r0, r0
    19d0:	03e40000 	mvneq	r0, #0
    19d4:	03ec0000 	mvneq	r0, #0
    19d8:	00010000 	andeq	r0, r1, r0
    19dc:	0003ec50 	andeq	lr, r3, r0, asr ip
    19e0:	0003f300 	andeq	pc, r3, r0, lsl #6
    19e4:	51000100 	mrspl	r0, (UNDEF: 16)
	...
    19f0:	00000404 	andeq	r0, r0, r4, lsl #8
    19f4:	00000410 	andeq	r0, r0, r0, lsl r4
    19f8:	10500001 	subsne	r0, r0, r1
    19fc:	17000004 	strne	r0, [r0, -r4]
    1a00:	01000004 	tsteq	r0, r4
    1a04:	00005100 	andeq	r5, r0, r0, lsl #2
    1a08:	00000000 	andeq	r0, r0, r0
    1a0c:	04400000 	strbeq	r0, [r0], #-0
    1a10:	04530000 	ldrbeq	r0, [r3], #-0
    1a14:	00010000 	andeq	r0, r1, r0
    1a18:	00045350 	andeq	r5, r4, r0, asr r3
    1a1c:	00048c00 	andeq	r8, r4, r0, lsl #24
    1a20:	54000100 	strpl	r0, [r0], #-256	; 0x100
    1a24:	0000048c 	andeq	r0, r0, ip, lsl #9
    1a28:	000004c4 	andeq	r0, r0, r4, asr #9
    1a2c:	01f30004 	mvnseq	r0, r4
    1a30:	00009f50 	andeq	r9, r0, r0, asr pc
    1a34:	00000000 	andeq	r0, r0, r0
    1a38:	04ac0000 	strteq	r0, [ip], #0
    1a3c:	04b00000 	ldrteq	r0, [r0], #0
    1a40:	00010000 	andeq	r0, r1, r0
    1a44:	0004b050 	andeq	fp, r4, r0, asr r0
    1a48:	0004b700 	andeq	fp, r4, r0, lsl #14
    1a4c:	51000100 	mrspl	r0, (UNDEF: 16)
	...
    1a58:	00000468 	andeq	r0, r0, r8, ror #8
    1a5c:	00000470 	andeq	r0, r0, r0, ror r4
    1a60:	70500001 	subsvc	r0, r0, r1
    1a64:	77000004 	strvc	r0, [r0, -r4]
    1a68:	01000004 	tsteq	r0, r4
    1a6c:	00005100 	andeq	r5, r0, r0, lsl #2
    1a70:	00000000 	andeq	r0, r0, r0
    1a74:	04880000 	streq	r0, [r8], #0
    1a78:	04940000 	ldreq	r0, [r4], #0
    1a7c:	00010000 	andeq	r0, r1, r0
    1a80:	00049450 	andeq	r9, r4, r0, asr r4
    1a84:	00049b00 	andeq	r9, r4, r0, lsl #22
    1a88:	51000100 	mrspl	r0, (UNDEF: 16)
	...
    1a94:	000004c4 	andeq	r0, r0, r4, asr #9
    1a98:	000004d7 	ldrdeq	r0, [r0], -r7
    1a9c:	d7500001 	ldrble	r0, [r0, -r1]
    1aa0:	18000004 	stmdane	r0, {r2}
    1aa4:	01000005 	tsteq	r0, r5
    1aa8:	05185400 	ldreq	r5, [r8, #-1024]	; 0x400
    1aac:	053c0000 	ldreq	r0, [ip, #-0]!
    1ab0:	00040000 	andeq	r0, r4, r0
    1ab4:	9f5001f3 	svcls	0x005001f3
    1ab8:	0000053c 	andeq	r0, r0, ip, lsr r5
    1abc:	00000540 	andeq	r0, r0, r0, asr #10
    1ac0:	40500001 	subsmi	r0, r0, r1
    1ac4:	48000005 	stmdami	r0, {r0, r2}
    1ac8:	01000005 	tsteq	r0, r5
    1acc:	00005400 	andeq	r5, r0, r0, lsl #8
    1ad0:	00000000 	andeq	r0, r0, r0
    1ad4:	04ec0000 	strbteq	r0, [ip], #0
    1ad8:	04fb0000 	ldrbteq	r0, [fp], #0
    1adc:	00080000 	andeq	r0, r8, r0
    1ae0:	24007431 	strcs	r7, [r0], #-1073	; 0x431
    1ae4:	9f1a0070 	svcls	0x001a0070
	...
    1af0:	00000518 	andeq	r0, r0, r8, lsl r5
    1af4:	00000530 	andeq	r0, r0, r0, lsr r5
    1af8:	00540001 	subseq	r0, r4, r1
    1afc:	00000000 	andeq	r0, r0, r0
    1b00:	48000000 	stmdami	r0, {}	; <UNPREDICTABLE>
    1b04:	5b000005 	blpl	1b20 <_start-0x64e0>
    1b08:	01000005 	tsteq	r0, r5
    1b0c:	055b5000 	ldrbeq	r5, [fp, #-0]
    1b10:	05800000 	streq	r0, [r0]
    1b14:	00010000 	andeq	r0, r1, r0
    1b18:	00058054 	andeq	r8, r5, r4, asr r0
    1b1c:	0005a000 	andeq	sl, r5, r0
    1b20:	f3000400 	vshl.u8	d0, d0, d0
    1b24:	009f5001 	addseq	r5, pc, r1
	...
    1b30:	18000000 	stmdane	r0, {}	; <UNPREDICTABLE>
    1b34:	01000000 	mrseq	r0, (UNDEF: 0)
    1b38:	00185000 	andseq	r5, r8, r0
    1b3c:	01540000 	cmpeq	r4, r0
    1b40:	00040000 	andeq	r0, r4, r0
    1b44:	9f5001f3 	svcls	0x005001f3
	...
    1b54:	0000001c 	andeq	r0, r0, ip, lsl r0
    1b58:	1c510001 	mrrcne	0, 0, r0, r1, cr1
    1b5c:	54000000 	strpl	r0, [r0], #-0
    1b60:	04000001 	streq	r0, [r0], #-1
    1b64:	5101f300 	mrspl	pc, SP_irq	; <UNPREDICTABLE>
    1b68:	0000009f 	muleq	r0, pc, r0	; <UNPREDICTABLE>
    1b6c:	00000000 	andeq	r0, r0, r0
    1b70:	00001000 	andeq	r1, r0, r0
    1b74:	00013400 	andeq	r3, r1, r0, lsl #8
    1b78:	55000100 	strpl	r0, [r0, #-256]	; 0x100
	...
    1b84:	00000010 	andeq	r0, r0, r0, lsl r0
    1b88:	00000034 	andeq	r0, r0, r4, lsr r0
    1b8c:	34550001 	ldrbcc	r0, [r5], #-1
    1b90:	34000000 	strcc	r0, [r0], #-0
    1b94:	01000001 	tsteq	r0, r1
    1b98:	01345800 	teqeq	r4, r0, lsl #16
    1b9c:	01540000 	cmpeq	r4, r0
    1ba0:	00010000 	andeq	r0, r1, r0
    1ba4:	00000055 	andeq	r0, r0, r5, asr r0
    1ba8:	00000000 	andeq	r0, r0, r0
    1bac:	00001400 	andeq	r1, r0, r0, lsl #8
    1bb0:	00013400 	andeq	r3, r1, r0, lsl #8
    1bb4:	55000100 	strpl	r0, [r0, #-256]	; 0x100
	...
    1bc0:	00000020 	andeq	r0, r0, r0, lsr #32
    1bc4:	00000134 	andeq	r0, r0, r4, lsr r1
    1bc8:	00550001 	subseq	r0, r5, r1
    1bcc:	00000000 	andeq	r0, r0, r0
    1bd0:	24000000 	strcs	r0, [r0], #-0
    1bd4:	28000000 	stmdacs	r0, {}	; <UNPREDICTABLE>
    1bd8:	01000000 	mrseq	r0, (UNDEF: 0)
    1bdc:	00005300 	andeq	r5, r0, r0, lsl #6
    1be0:	00000000 	andeq	r0, r0, r0
    1be4:	00340000 	eorseq	r0, r4, r0
    1be8:	00540000 	subseq	r0, r4, r0
    1bec:	00010000 	andeq	r0, r1, r0
    1bf0:	00005458 	andeq	r5, r0, r8, asr r4
    1bf4:	00013400 	andeq	r3, r1, r0, lsl #8
    1bf8:	75000500 	strvc	r0, [r0, #-1280]	; 0x500
    1bfc:	9f243100 	svcls	0x00243100
	...
    1c08:	00000034 	andeq	r0, r0, r4, lsr r0
    1c0c:	0000003c 	andeq	r0, r0, ip, lsr r0
    1c10:	00770005 	rsbseq	r0, r7, r5
    1c14:	3c9f1a31 	vldmiacc	pc, {s2-s50}
    1c18:	3f000000 	svccc	0x00000000
    1c1c:	01000000 	mrseq	r0, (UNDEF: 0)
    1c20:	003f5100 	eorseq	r5, pc, r0, lsl #2
    1c24:	01540000 	cmpeq	r4, r0
    1c28:	00050000 	andeq	r0, r5, r0
    1c2c:	1a310077 	bne	c41e10 <__bss_end__+0xc374d8>
    1c30:	0000009f 	muleq	r0, pc, r0	; <UNPREDICTABLE>
    1c34:	00000000 	andeq	r0, r0, r0
    1c38:	00004000 	andeq	r4, r0, r0
    1c3c:	00005400 	andeq	r5, r0, r0, lsl #8
    1c40:	58000100 	stmdapl	r0, {r8}
    1c44:	00000054 	andeq	r0, r0, r4, asr r0
    1c48:	00000134 	andeq	r0, r0, r4, lsr r1
    1c4c:	00750005 	rsbseq	r0, r5, r5
    1c50:	009f2431 	addseq	r2, pc, r1, lsr r4	; <UNPREDICTABLE>
    1c54:	00000000 	andeq	r0, r0, r0
    1c58:	44000000 	strmi	r0, [r0], #-0
    1c5c:	48000000 	stmdami	r0, {}	; <UNPREDICTABLE>
    1c60:	01000000 	mrseq	r0, (UNDEF: 0)
    1c64:	00005300 	andeq	r5, r0, r0, lsl #6
    1c68:	00000000 	andeq	r0, r0, r0
    1c6c:	00540000 	subseq	r0, r4, r0
    1c70:	00740000 	rsbseq	r0, r4, r0
    1c74:	00010000 	andeq	r0, r1, r0
    1c78:	00007458 	andeq	r7, r0, r8, asr r4
    1c7c:	00013400 	andeq	r3, r1, r0, lsl #8
    1c80:	75000800 	strvc	r0, [r0, #-2048]	; 0x800
    1c84:	75243100 	strvc	r3, [r4, #-256]!	; 0x100
    1c88:	009f2200 	addseq	r2, pc, r0, lsl #4
    1c8c:	00000000 	andeq	r0, r0, r0
    1c90:	60000000 	andvs	r0, r0, r0
    1c94:	74000000 	strvc	r0, [r0], #-0
    1c98:	01000000 	mrseq	r0, (UNDEF: 0)
    1c9c:	00745800 	rsbseq	r5, r4, r0, lsl #16
    1ca0:	01340000 	teqeq	r4, r0
    1ca4:	00080000 	andeq	r0, r8, r0
    1ca8:	24310075 	ldrtcs	r0, [r1], #-117	; 0x75
    1cac:	9f220075 	svcls	0x00220075
	...
    1cb8:	00000064 	andeq	r0, r0, r4, rrx
    1cbc:	00000068 	andeq	r0, r0, r8, rrx
    1cc0:	00530001 	subseq	r0, r3, r1
    1cc4:	00000000 	andeq	r0, r0, r0
    1cc8:	74000000 	strvc	r0, [r0], #-0
    1ccc:	94000000 	strls	r0, [r0], #-0
    1cd0:	01000000 	mrseq	r0, (UNDEF: 0)
    1cd4:	00945800 	addseq	r5, r4, r0, lsl #16
    1cd8:	01340000 	teqeq	r4, r0
    1cdc:	00050000 	andeq	r0, r5, r0
    1ce0:	24320075 	ldrtcs	r0, [r2], #-117	; 0x75
    1ce4:	0000009f 	muleq	r0, pc, r0	; <UNPREDICTABLE>
    1ce8:	00000000 	andeq	r0, r0, r0
    1cec:	00008000 	andeq	r8, r0, r0
    1cf0:	00009400 	andeq	r9, r0, r0, lsl #8
    1cf4:	58000100 	stmdapl	r0, {r8}
    1cf8:	00000094 	muleq	r0, r4, r0
    1cfc:	00000134 	andeq	r0, r0, r4, lsr r1
    1d00:	00750005 	rsbseq	r0, r5, r5
    1d04:	009f2432 	addseq	r2, pc, r2, lsr r4	; <UNPREDICTABLE>
    1d08:	00000000 	andeq	r0, r0, r0
    1d0c:	84000000 	strhi	r0, [r0], #-0
    1d10:	88000000 	stmdahi	r0, {}	; <UNPREDICTABLE>
    1d14:	01000000 	mrseq	r0, (UNDEF: 0)
    1d18:	00005300 	andeq	r5, r0, r0, lsl #6
    1d1c:	00000000 	andeq	r0, r0, r0
    1d20:	00940000 	addseq	r0, r4, r0
    1d24:	00b40000 	adcseq	r0, r4, r0
    1d28:	00010000 	andeq	r0, r1, r0
    1d2c:	0000b458 	andeq	fp, r0, r8, asr r4
    1d30:	00013400 	andeq	r3, r1, r0, lsl #8
    1d34:	75000800 	strvc	r0, [r0, #-2048]	; 0x800
    1d38:	75243200 	strvc	r3, [r4, #-512]!	; 0x200
    1d3c:	009f2200 	addseq	r2, pc, r0, lsl #4
    1d40:	00000000 	andeq	r0, r0, r0
    1d44:	a0000000 	andge	r0, r0, r0
    1d48:	b4000000 	strlt	r0, [r0], #-0
    1d4c:	01000000 	mrseq	r0, (UNDEF: 0)
    1d50:	00b45800 	adcseq	r5, r4, r0, lsl #16
    1d54:	01340000 	teqeq	r4, r0
    1d58:	00080000 	andeq	r0, r8, r0
    1d5c:	24320075 	ldrtcs	r0, [r2], #-117	; 0x75
    1d60:	9f220075 	svcls	0x00220075
	...
    1d6c:	000000a4 	andeq	r0, r0, r4, lsr #1
    1d70:	000000a8 	andeq	r0, r0, r8, lsr #1
    1d74:	00530001 	subseq	r0, r3, r1
    1d78:	00000000 	andeq	r0, r0, r0
    1d7c:	b4000000 	strlt	r0, [r0], #-0
    1d80:	d4000000 	strle	r0, [r0], #-0
    1d84:	01000000 	mrseq	r0, (UNDEF: 0)
    1d88:	00d45800 	sbcseq	r5, r4, r0, lsl #16
    1d8c:	01340000 	teqeq	r4, r0
    1d90:	000a0000 	andeq	r0, sl, r0
    1d94:	24320075 	ldrtcs	r0, [r2], #-117	; 0x75
    1d98:	24310075 	ldrtcs	r0, [r1], #-117	; 0x75
    1d9c:	00009f22 	andeq	r9, r0, r2, lsr #30
    1da0:	00000000 	andeq	r0, r0, r0
    1da4:	00c00000 	sbceq	r0, r0, r0
    1da8:	00d40000 	sbcseq	r0, r4, r0
    1dac:	00010000 	andeq	r0, r1, r0
    1db0:	0000d458 	andeq	sp, r0, r8, asr r4
    1db4:	00013400 	andeq	r3, r1, r0, lsl #8
    1db8:	75000a00 	strvc	r0, [r0, #-2560]	; 0xa00
    1dbc:	75243200 	strvc	r3, [r4, #-512]!	; 0x200
    1dc0:	22243100 	eorcs	r3, r4, #0, 2
    1dc4:	0000009f 	muleq	r0, pc, r0	; <UNPREDICTABLE>
    1dc8:	00000000 	andeq	r0, r0, r0
    1dcc:	0000c400 	andeq	ip, r0, r0, lsl #8
    1dd0:	0000c800 	andeq	ip, r0, r0, lsl #16
    1dd4:	53000100 	movwpl	r0, #256	; 0x100
	...
    1de0:	000000d4 	ldrdeq	r0, [r0], -r4
    1de4:	000000f4 	strdeq	r0, [r0], -r4
    1de8:	f4580001 			; <UNDEFINED> instruction: 0xf4580001
    1dec:	34000000 	strcc	r0, [r0], #-0
    1df0:	0d000001 	stceq	0, cr0, [r0, #-4]
    1df4:	32007500 	andcc	r7, r0, #0, 10
    1df8:	31007524 	tstcc	r0, r4, lsr #10
    1dfc:	00752224 	rsbseq	r2, r5, r4, lsr #4
    1e00:	00009f22 	andeq	r9, r0, r2, lsr #30
    1e04:	00000000 	andeq	r0, r0, r0
    1e08:	00e00000 	rsceq	r0, r0, r0
    1e0c:	00f40000 	rscseq	r0, r4, r0
    1e10:	00010000 	andeq	r0, r1, r0
    1e14:	0000f458 	andeq	pc, r0, r8, asr r4	; <UNPREDICTABLE>
    1e18:	00013400 	andeq	r3, r1, r0, lsl #8
    1e1c:	75000d00 	strvc	r0, [r0, #-3328]	; 0xd00
    1e20:	75243200 	strvc	r3, [r4, #-512]!	; 0x200
    1e24:	22243100 	eorcs	r3, r4, #0, 2
    1e28:	9f220075 	svcls	0x00220075
	...
    1e34:	000000e4 	andeq	r0, r0, r4, ror #1
    1e38:	000000e8 	andeq	r0, r0, r8, ror #1
    1e3c:	00530001 	subseq	r0, r3, r1
    1e40:	00000000 	andeq	r0, r0, r0
    1e44:	f4000000 	vst4.8	{d0-d3}, [r0], r0
    1e48:	14000000 	strne	r0, [r0], #-0
    1e4c:	01000001 	tsteq	r0, r1
    1e50:	01145800 	tsteq	r4, r0, lsl #16
    1e54:	01340000 	teqeq	r4, r0
    1e58:	00050000 	andeq	r0, r5, r0
    1e5c:	24330075 	ldrtcs	r0, [r3], #-117	; 0x75
    1e60:	0000009f 	muleq	r0, pc, r0	; <UNPREDICTABLE>
    1e64:	00000000 	andeq	r0, r0, r0
    1e68:	00010000 	andeq	r0, r1, r0
    1e6c:	00011400 	andeq	r1, r1, r0, lsl #8
    1e70:	58000100 	stmdapl	r0, {r8}
    1e74:	00000114 	andeq	r0, r0, r4, lsl r1
    1e78:	00000134 	andeq	r0, r0, r4, lsr r1
    1e7c:	00750005 	rsbseq	r0, r5, r5
    1e80:	009f2433 	addseq	r2, pc, r3, lsr r4	; <UNPREDICTABLE>
    1e84:	00000000 	andeq	r0, r0, r0
    1e88:	04000000 	streq	r0, [r0], #-0
    1e8c:	08000001 	stmdaeq	r0, {r0}
    1e90:	01000001 	tsteq	r0, r1
    1e94:	00005300 	andeq	r5, r0, r0, lsl #6
    1e98:	00000000 	andeq	r0, r0, r0
    1e9c:	01140000 	tsteq	r4, r0
    1ea0:	011c0000 	tsteq	ip, r0
    1ea4:	00060000 	andeq	r0, r6, r0
    1ea8:	80080077 	andhi	r0, r8, r7, ror r0
    1eac:	011c9f1a 	tsteq	ip, sl, lsl pc
    1eb0:	011f0000 	tsteq	pc, r0
    1eb4:	00010000 	andeq	r0, r1, r0
    1eb8:	00011f51 	andeq	r1, r1, r1, asr pc
    1ebc:	00015400 	andeq	r5, r1, r0, lsl #8
    1ec0:	77000600 	strvc	r0, [r0, -r0, lsl #12]
    1ec4:	1a800800 	bne	fe003ecc <__bss_end__+0xfdff9594>
    1ec8:	0000009f 	muleq	r0, pc, r0	; <UNPREDICTABLE>
    1ecc:	00000000 	andeq	r0, r0, r0
    1ed0:	00012400 	andeq	r2, r1, r0, lsl #8
    1ed4:	00012800 	andeq	r2, r1, r0, lsl #16
    1ed8:	53000100 	movwpl	r0, #256	; 0x100
	...
    1ee4:	00000144 	andeq	r0, r0, r4, asr #2
    1ee8:	00000148 	andeq	r0, r0, r8, asr #2
    1eec:	00530001 	subseq	r0, r3, r1
    1ef0:	00000000 	andeq	r0, r0, r0
    1ef4:	54000000 	strpl	r0, [r0], #-0
    1ef8:	6b000001 	blvs	1f04 <_start-0x60fc>
    1efc:	01000001 	tsteq	r0, r1
    1f00:	016b5000 	cmneq	fp, r0
    1f04:	01d00000 	bicseq	r0, r0, r0
    1f08:	00010000 	andeq	r0, r1, r0
    1f0c:	0001d059 	andeq	sp, r1, r9, asr r0
    1f10:	00030c00 	andeq	r0, r3, r0, lsl #24
    1f14:	f3000400 	vshl.u8	d0, d0, d0
    1f18:	0c9f5001 	ldceq	0, cr5, [pc], {1}
    1f1c:	14000003 	strne	r0, [r0], #-3
    1f20:	01000003 	tsteq	r0, r3
    1f24:	03145900 	tsteq	r4, #0, 18
    1f28:	031c0000 	tsteq	ip, #0
    1f2c:	00040000 	andeq	r0, r4, r0
    1f30:	9f5001f3 	svcls	0x005001f3
	...
    1f3c:	00000154 	andeq	r0, r0, r4, asr r1
    1f40:	0000016b 	andeq	r0, r0, fp, ror #2
    1f44:	6b510001 	blvs	1441f50 <__bss_end__+0x1437618>
    1f48:	1c000001 	stcne	0, cr0, [r0], {1}
    1f4c:	01000003 	tsteq	r0, r3
    1f50:	00005600 	andeq	r5, r0, r0, lsl #12
    1f54:	00000000 	andeq	r0, r0, r0
    1f58:	01a80000 			; <UNDEFINED> instruction: 0x01a80000
    1f5c:	02980000 	addseq	r0, r8, #0
    1f60:	00010000 	andeq	r0, r1, r0
    1f64:	00000058 	andeq	r0, r0, r8, asr r0
    1f68:	00000000 	andeq	r0, r0, r0
    1f6c:	0001ac00 	andeq	sl, r1, r0, lsl #24
    1f70:	0002d000 	andeq	sp, r2, r0
    1f74:	54000100 	strpl	r0, [r0], #-256	; 0x100
	...
    1f80:	000001ac 	andeq	r0, r0, ip, lsr #3
    1f84:	000002d0 	ldrdeq	r0, [r0], -r0	; <UNPREDICTABLE>
    1f88:	00740005 	rsbseq	r0, r4, r5
    1f8c:	009f2531 	addseq	r2, pc, r1, lsr r5	; <UNPREDICTABLE>
    1f90:	00000000 	andeq	r0, r0, r0
    1f94:	ac000000 	stcge	0, cr0, [r0], {-0}
    1f98:	d0000001 	andle	r0, r0, r1
    1f9c:	02000001 	andeq	r0, r0, #1
    1fa0:	d09f3000 	addsle	r3, pc, r0
    1fa4:	0c000001 	stceq	0, cr0, [r0], {1}
    1fa8:	01000003 	tsteq	r0, r3
    1fac:	03145900 	tsteq	r4, #0, 18
    1fb0:	031c0000 	tsteq	ip, #0
    1fb4:	00010000 	andeq	r0, r1, r0
    1fb8:	00000059 	andeq	r0, r0, r9, asr r0
    1fbc:	00000000 	andeq	r0, r0, r0
    1fc0:	00016800 	andeq	r6, r1, r0, lsl #16
    1fc4:	00016b00 	andeq	r6, r1, r0, lsl #22
    1fc8:	51000100 	mrspl	r0, (UNDEF: 16)
    1fcc:	0000016b 	andeq	r0, r0, fp, ror #2
    1fd0:	0000031c 	andeq	r0, r0, ip, lsl r3
    1fd4:	00560001 	subseq	r0, r6, r1
    1fd8:	00000000 	andeq	r0, r0, r0
    1fdc:	70000000 	andvc	r0, r0, r0
    1fe0:	ac000001 	stcge	0, cr0, [r0], {1}
    1fe4:	01000001 	tsteq	r0, r1
    1fe8:	030c5400 	movweq	r5, #50176	; 0xc400
    1fec:	03140000 	tsteq	r4, #0
    1ff0:	00010000 	andeq	r0, r1, r0
    1ff4:	00000054 	andeq	r0, r0, r4, asr r0
    1ff8:	00000000 	andeq	r0, r0, r0
    1ffc:	0001a800 	andeq	sl, r1, r0, lsl #16
    2000:	0001c400 	andeq	ip, r1, r0, lsl #8
    2004:	58000100 	stmdapl	r0, {r8}
	...
    2010:	000001b0 			; <UNDEFINED> instruction: 0x000001b0
    2014:	000001cb 	andeq	r0, r0, fp, asr #3
    2018:	cb520001 	blgt	1482024 <__bss_end__+0x14776ec>
    201c:	d0000001 	andle	r0, r0, r1
    2020:	08000002 	stmdaeq	r0, {r1}
    2024:	31007400 	tstcc	r0, r0, lsl #8
    2028:	22007425 	andcs	r7, r0, #620756992	; 0x25000000
    202c:	0000009f 	muleq	r0, pc, r0	; <UNPREDICTABLE>
    2030:	00000000 	andeq	r0, r0, r0
    2034:	0001b000 	andeq	fp, r1, r0
    2038:	0001c400 	andeq	ip, r1, r0, lsl #8
    203c:	58000100 	stmdapl	r0, {r8}
	...
    2048:	000001b4 			; <UNDEFINED> instruction: 0x000001b4
    204c:	000001b8 			; <UNDEFINED> instruction: 0x000001b8
    2050:	00530001 	subseq	r0, r3, r1
    2054:	00000000 	andeq	r0, r0, r0
    2058:	d0000000 	andle	r0, r0, r0
    205c:	d0000001 	andle	r0, r0, r1
    2060:	01000002 	tsteq	r0, r2
    2064:	00005400 	andeq	r5, r0, r0, lsl #8
    2068:	00000000 	andeq	r0, r0, r0
    206c:	01d00000 	bicseq	r0, r0, r0
    2070:	01e40000 	mvneq	r0, r0
    2074:	00010000 	andeq	r0, r1, r0
    2078:	00000058 	andeq	r0, r0, r8, asr r0
    207c:	00000000 	andeq	r0, r0, r0
    2080:	0001d400 	andeq	sp, r1, r0, lsl #8
    2084:	0001d800 	andeq	sp, r1, r0, lsl #16
    2088:	53000100 	movwpl	r0, #256	; 0x100
	...
    2094:	000001f4 	strdeq	r0, [r0], -r4
    2098:	000002d0 	ldrdeq	r0, [r0], -r0	; <UNPREDICTABLE>
    209c:	00540001 	subseq	r0, r4, r1
    20a0:	00000000 	andeq	r0, r0, r0
    20a4:	f4000000 	vst4.8	{d0-d3}, [r0], r0
    20a8:	08000001 	stmdaeq	r0, {r0}
    20ac:	01000002 	tsteq	r0, r2
    20b0:	00005800 	andeq	r5, r0, r0, lsl #16
    20b4:	00000000 	andeq	r0, r0, r0
    20b8:	01f80000 	mvnseq	r0, r0
    20bc:	01fc0000 	mvnseq	r0, r0
    20c0:	00010000 	andeq	r0, r1, r0
    20c4:	00000053 	andeq	r0, r0, r3, asr r0
    20c8:	00000000 	andeq	r0, r0, r0
    20cc:	00021800 	andeq	r1, r2, r0, lsl #16
    20d0:	0002d000 	andeq	sp, r2, r0
    20d4:	54000100 	strpl	r0, [r0], #-256	; 0x100
	...
    20e0:	00000218 	andeq	r0, r0, r8, lsl r2
    20e4:	0000022c 	andeq	r0, r0, ip, lsr #4
    20e8:	00580001 	subseq	r0, r8, r1
    20ec:	00000000 	andeq	r0, r0, r0
    20f0:	1c000000 	stcne	0, cr0, [r0], {-0}
    20f4:	20000002 	andcs	r0, r0, r2
    20f8:	01000002 	tsteq	r0, r2
    20fc:	00005300 	andeq	r5, r0, r0, lsl #6
    2100:	00000000 	andeq	r0, r0, r0
    2104:	023c0000 	eorseq	r0, ip, #0
    2108:	02d00000 	sbcseq	r0, r0, #0
    210c:	00010000 	andeq	r0, r1, r0
    2110:	00000054 	andeq	r0, r0, r4, asr r0
    2114:	00000000 	andeq	r0, r0, r0
    2118:	00023c00 	andeq	r3, r2, r0, lsl #24
    211c:	00025000 	andeq	r5, r2, r0
    2120:	58000100 	stmdapl	r0, {r8}
	...
    212c:	00000240 	andeq	r0, r0, r0, asr #4
    2130:	00000244 	andeq	r0, r0, r4, asr #4
    2134:	00530001 	subseq	r0, r3, r1
    2138:	00000000 	andeq	r0, r0, r0
    213c:	60000000 	andvs	r0, r0, r0
    2140:	d0000002 	andle	r0, r0, r2
    2144:	01000002 	tsteq	r0, r2
    2148:	00005400 	andeq	r5, r0, r0, lsl #8
    214c:	00000000 	andeq	r0, r0, r0
    2150:	02600000 	rsbeq	r0, r0, #0
    2154:	02740000 	rsbseq	r0, r4, #0
    2158:	00010000 	andeq	r0, r1, r0
    215c:	00000058 	andeq	r0, r0, r8, asr r0
    2160:	00000000 	andeq	r0, r0, r0
    2164:	00026400 	andeq	r6, r2, r0, lsl #8
    2168:	00026800 	andeq	r6, r2, r0, lsl #16
    216c:	53000100 	movwpl	r0, #256	; 0x100
	...
    2178:	00000284 	andeq	r0, r0, r4, lsl #5
    217c:	000002d0 	ldrdeq	r0, [r0], -r0	; <UNPREDICTABLE>
    2180:	00540001 	subseq	r0, r4, r1
    2184:	00000000 	andeq	r0, r0, r0
    2188:	84000000 	strhi	r0, [r0], #-0
    218c:	98000002 	stmdals	r0, {r1}
    2190:	01000002 	tsteq	r0, r2
    2194:	00005800 	andeq	r5, r0, r0, lsl #16
    2198:	00000000 	andeq	r0, r0, r0
    219c:	02880000 	addeq	r0, r8, #0
    21a0:	028c0000 	addeq	r0, ip, #0
    21a4:	00010000 	andeq	r0, r1, r0
    21a8:	00000053 	andeq	r0, r0, r3, asr r0
    21ac:	00000000 	andeq	r0, r0, r0
    21b0:	0002a800 	andeq	sl, r2, r0, lsl #16
    21b4:	0002d000 	andeq	sp, r2, r0
    21b8:	54000100 	strpl	r0, [r0], #-256	; 0x100
	...
    21c4:	000002ac 	andeq	r0, r0, ip, lsr #5
    21c8:	000002b0 			; <UNDEFINED> instruction: 0x000002b0
    21cc:	00530001 	subseq	r0, r3, r1
    21d0:	00000000 	andeq	r0, r0, r0
    21d4:	c8000000 	stmdagt	r0, {}	; <UNPREDICTABLE>
    21d8:	0c000002 	stceq	0, cr0, [r0], {2}
    21dc:	02000003 	andeq	r0, r0, #3
    21e0:	149f3000 	ldrne	r3, [pc], #0	; 21e8 <_start-0x5e18>
    21e4:	1c000003 	stcne	0, cr0, [r0], {3}
    21e8:	02000003 	andeq	r0, r0, #3
    21ec:	009f3000 	addseq	r3, pc, r0
    21f0:	00000000 	andeq	r0, r0, r0
    21f4:	c8000000 	stmdagt	r0, {}	; <UNPREDICTABLE>
    21f8:	0c000002 	stceq	0, cr0, [r0], {2}
    21fc:	01000003 	tsteq	r0, r3
    2200:	03145500 	tsteq	r4, #0, 10
    2204:	031c0000 	tsteq	ip, #0
    2208:	00010000 	andeq	r0, r1, r0
    220c:	00000055 	andeq	r0, r0, r5, asr r0
    2210:	00000000 	andeq	r0, r0, r0
    2214:	0002d000 	andeq	sp, r2, r0
    2218:	00030c00 	andeq	r0, r3, r0, lsl #24
    221c:	54000100 	strpl	r0, [r0], #-256	; 0x100
    2220:	00000314 	andeq	r0, r0, r4, lsl r3
    2224:	0000031c 	andeq	r0, r0, ip, lsl r3
    2228:	00540001 	subseq	r0, r4, r1
    222c:	00000000 	andeq	r0, r0, r0
    2230:	1c000000 	stcne	0, cr0, [r0], {-0}
    2234:	3f000003 	svccc	0x00000003
    2238:	01000003 	tsteq	r0, r3
    223c:	033f5000 	teqeq	pc, #0
    2240:	03600000 	cmneq	r0, #0
    2244:	00010000 	andeq	r0, r1, r0
    2248:	00036058 	andeq	r6, r3, r8, asr r0
    224c:	00037000 	andeq	r7, r3, r0
    2250:	50000100 	andpl	r0, r0, r0, lsl #2
    2254:	00000370 	andeq	r0, r0, r0, ror r3
    2258:	000003b0 			; <UNDEFINED> instruction: 0x000003b0
    225c:	b0580001 	subslt	r0, r8, r1
    2260:	c0000003 	andgt	r0, r0, r3
    2264:	04000003 	streq	r0, [r0], #-3
    2268:	5001f300 	andpl	pc, r1, r0, lsl #6
    226c:	0000009f 	muleq	r0, pc, r0	; <UNPREDICTABLE>
    2270:	00000000 	andeq	r0, r0, r0
    2274:	00031c00 	andeq	r1, r3, r0, lsl #24
    2278:	00033f00 	andeq	r3, r3, r0, lsl #30
    227c:	51000100 	mrspl	r0, (UNDEF: 16)
    2280:	0000033f 	andeq	r0, r0, pc, lsr r3
    2284:	00000360 	andeq	r0, r0, r0, ror #6
    2288:	60560001 	subsvs	r0, r6, r1
    228c:	70000003 	andvc	r0, r0, r3
    2290:	01000003 	tsteq	r0, r3
    2294:	03705100 	cmneq	r0, #0, 2
    2298:	03b00000 	movseq	r0, #0
    229c:	00010000 	andeq	r0, r1, r0
    22a0:	0003b056 	andeq	fp, r3, r6, asr r0
    22a4:	0003c000 	andeq	ip, r3, r0
    22a8:	f3000400 	vshl.u8	d0, d0, d0
    22ac:	009f5101 	addseq	r5, pc, r1, lsl #2
    22b0:	00000000 	andeq	r0, r0, r0
    22b4:	1c000000 	stcne	0, cr0, [r0], {-0}
    22b8:	3f000003 	svccc	0x00000003
    22bc:	01000003 	tsteq	r0, r3
    22c0:	033f5200 	teqeq	pc, #0, 4
    22c4:	03600000 	cmneq	r0, #0
    22c8:	00040000 	andeq	r0, r4, r0
    22cc:	9f5201f3 	svcls	0x005201f3
    22d0:	00000360 	andeq	r0, r0, r0, ror #6
    22d4:	00000370 	andeq	r0, r0, r0, ror r3
    22d8:	70520001 	subsvc	r0, r2, r1
    22dc:	b0000003 	andlt	r0, r0, r3
    22e0:	03000003 	movweq	r0, #3
    22e4:	9f017700 	svcls	0x00017700
    22e8:	000003b0 			; <UNDEFINED> instruction: 0x000003b0
    22ec:	000003c0 	andeq	r0, r0, r0, asr #7
    22f0:	01f30004 	mvnseq	r0, r4
    22f4:	00009f52 	andeq	r9, r0, r2, asr pc
    22f8:	00000000 	andeq	r0, r0, r0
    22fc:	031c0000 	tsteq	ip, #0
    2300:	033f0000 	teqeq	pc, #0
    2304:	00010000 	andeq	r0, r1, r0
    2308:	00033f53 	andeq	r3, r3, r3, asr pc
    230c:	00036000 	andeq	r6, r3, r0
    2310:	f3000400 	vshl.u8	d0, d0, d0
    2314:	609f5301 	addsvs	r5, pc, r1, lsl #6
    2318:	70000003 	andvc	r0, r0, r3
    231c:	01000003 	tsteq	r0, r3
    2320:	03705300 	cmneq	r0, #0, 6
    2324:	03c00000 	biceq	r0, r0, #0
    2328:	00040000 	andeq	r0, r4, r0
    232c:	9f5301f3 	svcls	0x005301f3
	...
    2338:	00000368 	andeq	r0, r0, r8, ror #6
    233c:	00000370 	andeq	r0, r0, r0, ror r3
    2340:	9f300002 	svcls	0x00300002
    2344:	00000370 	andeq	r0, r0, r0, ror r3
    2348:	000003b0 			; <UNDEFINED> instruction: 0x000003b0
    234c:	b0540001 	subslt	r0, r4, r1
    2350:	c0000003 	andgt	r0, r0, r3
    2354:	01000003 	tsteq	r0, r3
    2358:	00005000 	andeq	r5, r0, r0
    235c:	00000000 	andeq	r0, r0, r0
    2360:	03800000 	orreq	r0, r0, #0
    2364:	03900000 	orrseq	r0, r0, #0
    2368:	00010000 	andeq	r0, r1, r0
    236c:	00000050 	andeq	r0, r0, r0, asr r0
    2370:	00000000 	andeq	r0, r0, r0
    2374:	0003c000 	andeq	ip, r3, r0
    2378:	0003df00 	andeq	sp, r3, r0, lsl #30
    237c:	50000100 	andpl	r0, r0, r0, lsl #2
    2380:	000003df 	ldrdeq	r0, [r0], -pc	; <UNPREDICTABLE>
    2384:	00000400 	andeq	r0, r0, r0, lsl #8
    2388:	00570001 	subseq	r0, r7, r1
    238c:	10000004 	andne	r0, r0, r4
    2390:	01000004 	tsteq	r0, r4
    2394:	04105000 	ldreq	r5, [r0], #-0
    2398:	04400000 	strbeq	r0, [r0], #-0
    239c:	00010000 	andeq	r0, r1, r0
    23a0:	00044057 	andeq	r4, r4, r7, asr r0
    23a4:	00045000 	andeq	r5, r4, r0
    23a8:	f3000400 	vshl.u8	d0, d0, d0
    23ac:	009f5001 	addseq	r5, pc, r1
    23b0:	00000000 	andeq	r0, r0, r0
    23b4:	c0000000 	andgt	r0, r0, r0
    23b8:	df000003 	svcle	0x00000003
    23bc:	01000003 	tsteq	r0, r3
    23c0:	03df5100 	bicseq	r5, pc, #0, 2
    23c4:	04000000 	streq	r0, [r0], #-0
    23c8:	00010000 	andeq	r0, r1, r0
    23cc:	00040055 	andeq	r0, r4, r5, asr r0
    23d0:	00041000 	andeq	r1, r4, r0
    23d4:	51000100 	mrspl	r0, (UNDEF: 16)
    23d8:	00000410 	andeq	r0, r0, r0, lsl r4
    23dc:	00000440 	andeq	r0, r0, r0, asr #8
    23e0:	40550001 	subsmi	r0, r5, r1
    23e4:	50000004 	andpl	r0, r0, r4
    23e8:	04000004 	streq	r0, [r0], #-4
    23ec:	5101f300 	mrspl	pc, SP_irq	; <UNPREDICTABLE>
    23f0:	0000009f 	muleq	r0, pc, r0	; <UNPREDICTABLE>
    23f4:	00000000 	andeq	r0, r0, r0
    23f8:	0003c000 	andeq	ip, r3, r0
    23fc:	0003df00 	andeq	sp, r3, r0, lsl #30
    2400:	52000100 	andpl	r0, r0, #0, 2
    2404:	000003df 	ldrdeq	r0, [r0], -pc	; <UNPREDICTABLE>
    2408:	00000400 	andeq	r0, r0, r0, lsl #8
    240c:	01f30004 	mvnseq	r0, r4
    2410:	04009f52 	streq	r9, [r0], #-3922	; 0xf52
    2414:	04100000 	ldreq	r0, [r0], #-0
    2418:	00010000 	andeq	r0, r1, r0
    241c:	00041052 	andeq	r1, r4, r2, asr r0
    2420:	00044000 	andeq	r4, r4, r0
    2424:	76000300 	strvc	r0, [r0], -r0, lsl #6
    2428:	04409f01 	strbeq	r9, [r0], #-3841	; 0xf01
    242c:	04500000 	ldrbeq	r0, [r0], #-0
    2430:	00040000 	andeq	r0, r4, r0
    2434:	9f5201f3 	svcls	0x005201f3
	...
    2440:	000003c0 	andeq	r0, r0, r0, asr #7
    2444:	000003df 	ldrdeq	r0, [r0], -pc	; <UNPREDICTABLE>
    2448:	df530001 	svcle	0x00530001
    244c:	00000003 	andeq	r0, r0, r3
    2450:	01000004 	tsteq	r0, r4
    2454:	04005800 	streq	r5, [r0], #-2048	; 0x800
    2458:	04100000 	ldreq	r0, [r0], #-0
    245c:	00010000 	andeq	r0, r1, r0
    2460:	00041053 	andeq	r1, r4, r3, asr r0
    2464:	00044000 	andeq	r4, r4, r0
    2468:	58000100 	stmdapl	r0, {r8}
    246c:	00000440 	andeq	r0, r0, r0, asr #8
    2470:	00000450 	andeq	r0, r0, r0, asr r4
    2474:	01f30004 	mvnseq	r0, r4
    2478:	00009f53 	andeq	r9, r0, r3, asr pc
    247c:	00000000 	andeq	r0, r0, r0
    2480:	04080000 	streq	r0, [r8], #-0
    2484:	04100000 	ldreq	r0, [r0], #-0
    2488:	00020000 	andeq	r0, r2, r0
    248c:	04109f30 	ldreq	r9, [r0], #-3888	; 0xf30
    2490:	04400000 	strbeq	r0, [r0], #-0
    2494:	00010000 	andeq	r0, r1, r0
    2498:	00044054 	andeq	r4, r4, r4, asr r0
    249c:	00045000 	andeq	r5, r4, r0
    24a0:	50000100 	andpl	r0, r0, r0, lsl #2
	...
    24ac:	00000450 	andeq	r0, r0, r0, asr r4
    24b0:	00000473 	andeq	r0, r0, r3, ror r4
    24b4:	73510001 	cmpvc	r1, #1
    24b8:	24000004 	strcs	r0, [r0], #-4
    24bc:	04000005 	streq	r0, [r0], #-5
    24c0:	5101f300 	mrspl	pc, SP_irq	; <UNPREDICTABLE>
    24c4:	0000009f 	muleq	r0, pc, r0	; <UNPREDICTABLE>
    24c8:	00000000 	andeq	r0, r0, r0
    24cc:	00045000 	andeq	r5, r4, r0
    24d0:	00047300 	andeq	r7, r4, r0, lsl #6
    24d4:	52000100 	andpl	r0, r0, #0, 2
    24d8:	00000473 	andeq	r0, r0, r3, ror r4
    24dc:	00000524 	andeq	r0, r0, r4, lsr #10
    24e0:	01f30004 	mvnseq	r0, r4
    24e4:	00009f52 	andeq	r9, r0, r2, asr pc
    24e8:	00000000 	andeq	r0, r0, r0
    24ec:	04500000 	ldrbeq	r0, [r0], #-0
    24f0:	04730000 	ldrbteq	r0, [r3], #-0
    24f4:	00010000 	andeq	r0, r1, r0
    24f8:	00047353 	andeq	r7, r4, r3, asr r3
    24fc:	00051000 	andeq	r1, r5, r0
    2500:	55000100 	strpl	r0, [r0, #-256]	; 0x100
    2504:	00000510 	andeq	r0, r0, r0, lsl r5
    2508:	00000524 	andeq	r0, r0, r4, lsr #10
    250c:	04700002 	ldrbteq	r0, [r0], #-2
	...
    2518:	00000494 	muleq	r0, r4, r4
    251c:	000004d3 	ldrdeq	r0, [r0], -r3
    2520:	d3520001 	cmple	r2, #1
    2524:	f4000004 	vst4.8	{d0-d3}, [r0], r4
    2528:	06000004 	streq	r0, [r0], -r4
    252c:	77007500 	strvc	r7, [r0, -r0, lsl #10]
    2530:	f49f1e00 			; <UNDEFINED> instruction: 0xf49f1e00
    2534:	24000004 	strcs	r0, [r0], #-4
    2538:	01000005 	tsteq	r0, r5
    253c:	00005200 	andeq	r5, r0, r0, lsl #4
    2540:	00000000 	andeq	r0, r0, r0
    2544:	05240000 	streq	r0, [r4, #-0]!
    2548:	052f0000 	streq	r0, [pc, #-0]!	; 2550 <_start-0x5ab0>
    254c:	00010000 	andeq	r0, r1, r0
    2550:	00052f50 	andeq	r2, r5, r0, asr pc
    2554:	00056000 	andeq	r6, r5, r0
    2558:	f3000400 	vshl.u8	d0, d0, d0
    255c:	009f5001 	addseq	r5, pc, r1
    2560:	00000000 	andeq	r0, r0, r0
    2564:	30000000 	andcc	r0, r0, r0
    2568:	3b000005 	blcc	2584 <_start-0x5a7c>
    256c:	01000005 	tsteq	r0, r5
    2570:	00005000 	andeq	r5, r0, r0
    2574:	00000000 	andeq	r0, r0, r0
    2578:	05600000 	strbeq	r0, [r0, #-0]!
    257c:	05700000 	ldrbeq	r0, [r0, #-0]!
    2580:	00010000 	andeq	r0, r1, r0
    2584:	00057050 	andeq	r7, r5, r0, asr r0
    2588:	00058c00 	andeq	r8, r5, r0, lsl #24
    258c:	55000100 	strpl	r0, [r0, #-256]	; 0x100
	...
    2598:	00000560 	andeq	r0, r0, r0, ror #10
    259c:	00000570 	andeq	r0, r0, r0, ror r5
    25a0:	70510001 	subsvc	r0, r1, r1
    25a4:	8c000005 	stchi	0, cr0, [r0], {5}
    25a8:	01000005 	tsteq	r0, r5
    25ac:	00005400 	andeq	r5, r0, r0, lsl #8
    25b0:	00000000 	andeq	r0, r0, r0
    25b4:	058c0000 	streq	r0, [ip]
    25b8:	05a80000 	streq	r0, [r8, #0]!
    25bc:	00010000 	andeq	r0, r1, r0
    25c0:	0005a850 	andeq	sl, r5, r0, asr r8
    25c4:	00060000 	andeq	r0, r6, r0
    25c8:	55000100 	strpl	r0, [r0, #-256]	; 0x100
    25cc:	00000600 	andeq	r0, r0, r0, lsl #12
    25d0:	0000061c 	andeq	r0, r0, ip, lsl r6
    25d4:	01f30004 	mvnseq	r0, r4
    25d8:	00009f50 	andeq	r9, r0, r0, asr pc
    25dc:	00000000 	andeq	r0, r0, r0
    25e0:	05b80000 	ldreq	r0, [r8, #0]!
    25e4:	05c70000 	strbeq	r0, [r7]
    25e8:	00010000 	andeq	r0, r1, r0
    25ec:	0005c750 	andeq	ip, r5, r0, asr r7
    25f0:	0005e800 	andeq	lr, r5, r0, lsl #16
    25f4:	54000100 	strpl	r0, [r0], #-256	; 0x100
    25f8:	000005e8 	andeq	r0, r0, r8, ror #11
    25fc:	000005ec 	andeq	r0, r0, ip, ror #11
    2600:	ec500001 	mrrc	0, 0, r0, r0, cr1	; <UNPREDICTABLE>
    2604:	00000005 	andeq	r0, r0, r5
    2608:	01000006 	tsteq	r0, r6
    260c:	06005400 	streq	r5, [r0], -r0, lsl #8
    2610:	061c0000 	ldreq	r0, [ip], -r0
    2614:	00010000 	andeq	r0, r1, r0
    2618:	00000050 	andeq	r0, r0, r0, asr r0
    261c:	00000000 	andeq	r0, r0, r0
    2620:	00061c00 	andeq	r1, r6, r0, lsl #24
    2624:	00062f00 	andeq	r2, r6, r0, lsl #30
    2628:	50000100 	andpl	r0, r0, r0, lsl #2
    262c:	0000062f 	andeq	r0, r0, pc, lsr #12
    2630:	00000668 	andeq	r0, r0, r8, ror #12
    2634:	01f30004 	mvnseq	r0, r4
    2638:	00009f50 	andeq	r9, r0, r0, asr pc
    263c:	00000000 	andeq	r0, r0, r0
    2640:	061c0000 	ldreq	r0, [ip], -r0
    2644:	062f0000 	strteq	r0, [pc], -r0
    2648:	00010000 	andeq	r0, r1, r0
    264c:	00062f51 	andeq	r2, r6, r1, asr pc
    2650:	00066800 	andeq	r6, r6, r0, lsl #16
    2654:	f3000400 	vshl.u8	d0, d0, d0
    2658:	009f5101 	addseq	r5, pc, r1, lsl #2
    265c:	00000000 	andeq	r0, r0, r0
    2660:	1c000000 	stcne	0, cr0, [r0], {-0}
    2664:	2f000006 	svccs	0x00000006
    2668:	01000006 	tsteq	r0, r6
    266c:	062f5200 	strteq	r5, [pc], -r0, lsl #4
    2670:	06680000 	strbteq	r0, [r8], -r0
    2674:	00040000 	andeq	r0, r4, r0
    2678:	9f5201f3 	svcls	0x005201f3
	...
    2684:	0000061c 	andeq	r0, r0, ip, lsl r6
    2688:	0000062f 	andeq	r0, r0, pc, lsr #12
    268c:	2f530001 	svccs	0x00530001
    2690:	68000006 	stmdavs	r0, {r1, r2}
    2694:	04000006 	streq	r0, [r0], #-6
    2698:	5301f300 	movwpl	pc, #4864	; 0x1300	; <UNPREDICTABLE>
    269c:	0000009f 	muleq	r0, pc, r0	; <UNPREDICTABLE>
    26a0:	00000000 	andeq	r0, r0, r0
    26a4:	00063000 	andeq	r3, r6, r0
    26a8:	00063b00 	andeq	r3, r6, r0, lsl #22
    26ac:	50000100 	andpl	r0, r0, r0, lsl #2
    26b0:	00000654 	andeq	r0, r0, r4, asr r6
    26b4:	00000668 	andeq	r0, r0, r8, ror #12
    26b8:	00500001 	subseq	r0, r0, r1
    26bc:	00000000 	andeq	r0, r0, r0
    26c0:	fc000000 	stc2	0, cr0, [r0], {-0}
    26c4:	04000000 	streq	r0, [r0], #-0
    26c8:	01000001 	tsteq	r0, r1
    26cc:	01045000 	mrseq	r5, (UNDEF: 4)
    26d0:	01280000 	teqeq	r8, r0
    26d4:	00010000 	andeq	r0, r1, r0
    26d8:	00000054 	andeq	r0, r0, r4, asr r0
    26dc:	00000000 	andeq	r0, r0, r0
    26e0:	00003000 	andeq	r3, r0, r0
    26e4:	00003c00 	andeq	r3, r0, r0, lsl #24
    26e8:	30000200 	andcc	r0, r0, r0, lsl #4
    26ec:	00003c9f 	muleq	r0, pc, ip	; <UNPREDICTABLE>
    26f0:	00006800 	andeq	r6, r0, r0, lsl #16
    26f4:	53000100 	movwpl	r0, #256	; 0x100
	...
    2700:	00000068 	andeq	r0, r0, r8, rrx
    2704:	00000077 	andeq	r0, r0, r7, ror r0
    2708:	77500001 	ldrbvc	r0, [r0, -r1]
    270c:	ac000000 	stcge	0, cr0, [r0], {-0}
    2710:	01000000 	mrseq	r0, (UNDEF: 0)
    2714:	00005400 	andeq	r5, r0, r0, lsl #8
	...
    2720:	000f0000 	andeq	r0, pc, r0
    2724:	00010000 	andeq	r0, r1, r0
    2728:	00000f50 	andeq	r0, r0, r0, asr pc
    272c:	00004400 	andeq	r4, r0, r0, lsl #8
    2730:	54000100 	strpl	r0, [r0], #-256	; 0x100
	...
    2740:	0000000f 	andeq	r0, r0, pc
    2744:	0f500001 	svceq	0x00500001
    2748:	44000000 	strmi	r0, [r0], #-0
    274c:	01000000 	mrseq	r0, (UNDEF: 0)
    2750:	00005400 	andeq	r5, r0, r0, lsl #8
	...
    275c:	000f0000 	andeq	r0, pc, r0
    2760:	00010000 	andeq	r0, r1, r0
    2764:	00000f50 	andeq	r0, r0, r0, asr pc
    2768:	00004400 	andeq	r4, r0, r0, lsl #8
    276c:	54000100 	strpl	r0, [r0], #-256	; 0x100
	...
    277c:	0000000f 	andeq	r0, r0, pc
    2780:	0f500001 	svceq	0x00500001
    2784:	44000000 	strmi	r0, [r0], #-0
    2788:	01000000 	mrseq	r0, (UNDEF: 0)
    278c:	00005400 	andeq	r5, r0, r0, lsl #8
	...
    2798:	00040000 	andeq	r0, r4, r0
    279c:	00010000 	andeq	r0, r1, r0
    27a0:	00000452 	andeq	r0, r0, r2, asr r4
    27a4:	00002000 	andeq	r2, r0, r0
    27a8:	f3000400 	vshl.u8	d0, d0, d0
    27ac:	009f5201 	addseq	r5, pc, r1, lsl #4
	...
    27b8:	0c000000 	stceq	0, cr0, [r0], {-0}
    27bc:	01000000 	mrseq	r0, (UNDEF: 0)
    27c0:	000c5000 	andeq	r5, ip, r0
    27c4:	00140000 	andseq	r0, r4, r0
    27c8:	00030000 	andeq	r0, r3, r0
    27cc:	149f0173 	ldrne	r0, [pc], #371	; 27d4 <_start-0x582c>
    27d0:	20000000 	andcs	r0, r0, r0
    27d4:	01000000 	mrseq	r0, (UNDEF: 0)
    27d8:	00005300 	andeq	r5, r0, r0, lsl #6
    27dc:	00000000 	andeq	r0, r0, r0
	...

Disassembly of section .debug_aranges:

00000000 <.debug_aranges>:
   0:	0000001c 	andeq	r0, r0, ip, lsl r0
   4:	00000002 	andeq	r0, r0, r2
   8:	00040000 	andeq	r0, r4, r0
   c:	00000000 	andeq	r0, r0, r0
  10:	00008010 	andeq	r8, r0, r0, lsl r0
  14:	000006f0 	strdeq	r0, [r0], -r0	; <UNPREDICTABLE>
	...
  20:	0000001c 	andeq	r0, r0, ip, lsl r0
  24:	0dde0002 	ldcleq	0, cr0, [lr, #8]
  28:	00040000 	andeq	r0, r4, r0
  2c:	00000000 	andeq	r0, r0, r0
  30:	00008700 	andeq	r8, r0, r0, lsl #14
  34:	00000058 	andeq	r0, r0, r8, asr r0
	...
  40:	0000001c 	andeq	r0, r0, ip, lsl r0
  44:	0f730002 	svceq	0x00730002
  48:	00040000 	andeq	r0, r4, r0
  4c:	00000000 	andeq	r0, r0, r0
  50:	00008758 	andeq	r8, r0, r8, asr r7
  54:	0000003c 	andeq	r0, r0, ip, lsr r0
	...
  60:	0000001c 	andeq	r0, r0, ip, lsl r0
  64:	108a0002 	addne	r0, sl, r2
  68:	00040000 	andeq	r0, r4, r0
  6c:	00000000 	andeq	r0, r0, r0
  70:	00008794 	muleq	r0, r4, r7
  74:	00000034 	andeq	r0, r0, r4, lsr r0
	...
  80:	0000001c 	andeq	r0, r0, ip, lsl r0
  84:	117c0002 	cmnne	ip, r2
  88:	00040000 	andeq	r0, r4, r0
  8c:	00000000 	andeq	r0, r0, r0
  90:	000087c8 	andeq	r8, r0, r8, asr #15
  94:	00000524 	andeq	r0, r0, r4, lsr #10
	...
  a0:	0000001c 	andeq	r0, r0, ip, lsl r0
  a4:	18210002 	stmdane	r1!, {r1}
  a8:	00040000 	andeq	r0, r4, r0
  ac:	00000000 	andeq	r0, r0, r0
  b0:	00008cec 	andeq	r8, r0, ip, ror #25
  b4:	00000020 	andeq	r0, r0, r0, lsr #32
	...
  c0:	0000001c 	andeq	r0, r0, ip, lsl r0
  c4:	18dd0002 	ldmne	sp, {r1}^
  c8:	00040000 	andeq	r0, r4, r0
  cc:	00000000 	andeq	r0, r0, r0
  d0:	00008d0c 	andeq	r8, r0, ip, lsl #26
  d4:	00000028 	andeq	r0, r0, r8, lsr #32
	...
  e0:	0000001c 	andeq	r0, r0, ip, lsl r0
  e4:	19e00002 	stmibne	r0!, {r1}^
  e8:	00040000 	andeq	r0, r4, r0
  ec:	00000000 	andeq	r0, r0, r0
  f0:	00008d34 	andeq	r8, r0, r4, lsr sp
  f4:	000000b0 	strheq	r0, [r0], -r0	; <UNPREDICTABLE>
	...
 100:	0000001c 	andeq	r0, r0, ip, lsl r0
 104:	1cc10002 	stclne	0, cr0, [r1], {2}
 108:	00040000 	andeq	r0, r4, r0
 10c:	00000000 	andeq	r0, r0, r0
 110:	00008de4 	andeq	r8, r0, r4, ror #27
 114:	00000074 	andeq	r0, r0, r4, ror r0
	...
 120:	0000001c 	andeq	r0, r0, ip, lsl r0
 124:	1e720002 	cdpne	0, 7, cr0, cr2, cr2, {0}
 128:	00040000 	andeq	r0, r4, r0
 12c:	00000000 	andeq	r0, r0, r0
 130:	00008e58 	andeq	r8, r0, r8, asr lr
 134:	00000088 	andeq	r0, r0, r8, lsl #1
	...
 140:	0000001c 	andeq	r0, r0, ip, lsl r0
 144:	204e0002 	subcs	r0, lr, r2
 148:	00040000 	andeq	r0, r4, r0
 14c:	00000000 	andeq	r0, r0, r0
 150:	00008ee0 	andeq	r8, r0, r0, ror #29
 154:	000005a0 	andeq	r0, r0, r0, lsr #11
	...
 160:	0000001c 	andeq	r0, r0, ip, lsl r0
 164:	28d40002 	ldmcs	r4, {r1}^
 168:	00040000 	andeq	r0, r4, r0
 16c:	00000000 	andeq	r0, r0, r0
 170:	00009480 	andeq	r9, r0, r0, lsl #9
 174:	00000668 	andeq	r0, r0, r8, ror #12
	...
 180:	0000001c 	andeq	r0, r0, ip, lsl r0
 184:	3aca0002 	bcc	ff280194 <__bss_end__+0xff27585c>
 188:	00040000 	andeq	r0, r4, r0
 18c:	00000000 	andeq	r0, r0, r0
 190:	00009ae8 	andeq	r9, r0, r8, ror #21
 194:	00000154 	andeq	r0, r0, r4, asr r1
	...
 1a0:	0000001c 	andeq	r0, r0, ip, lsl r0
 1a4:	3ecd0002 	cdpcc	0, 12, cr0, cr13, cr2, {0}
 1a8:	00040000 	andeq	r0, r4, r0
 1ac:	00000000 	andeq	r0, r0, r0
 1b0:	00009c3c 	andeq	r9, r0, ip, lsr ip
 1b4:	000000ac 	andeq	r0, r0, ip, lsr #1
	...
 1c0:	0000001c 	andeq	r0, r0, ip, lsl r0
 1c4:	416c0002 	cmnmi	ip, r2
 1c8:	00040000 	andeq	r0, r4, r0
 1cc:	00000000 	andeq	r0, r0, r0
 1d0:	00009e38 	andeq	r9, r0, r8, lsr lr
 1d4:	00000050 	andeq	r0, r0, r0, asr r0
	...
 1e0:	0000001c 	andeq	r0, r0, ip, lsl r0
 1e4:	43330002 	teqmi	r3, #2
 1e8:	00040000 	andeq	r0, r4, r0
 1ec:	00000000 	andeq	r0, r0, r0
 1f0:	00009e88 	andeq	r9, r0, r8, lsl #29
 1f4:	00000044 	andeq	r0, r0, r4, asr #32
	...
 200:	0000001c 	andeq	r0, r0, ip, lsl r0
 204:	44750002 	ldrbtmi	r0, [r5], #-2
 208:	00040000 	andeq	r0, r4, r0
 20c:	00000000 	andeq	r0, r0, r0
 210:	00009ecc 	andeq	r9, r0, ip, asr #29
 214:	00000044 	andeq	r0, r0, r4, asr #32
	...
 220:	0000001c 	andeq	r0, r0, ip, lsl r0
 224:	45b70002 	ldrmi	r0, [r7, #2]!
 228:	00040000 	andeq	r0, r4, r0
 22c:	00000000 	andeq	r0, r0, r0
 230:	00009f10 	andeq	r9, r0, r0, lsl pc
 234:	00000044 	andeq	r0, r0, r4, asr #32
	...
 240:	0000001c 	andeq	r0, r0, ip, lsl r0
 244:	46f90002 	ldrbtmi	r0, [r9], r2
 248:	00040000 	andeq	r0, r4, r0
 24c:	00000000 	andeq	r0, r0, r0
 250:	00009f54 	andeq	r9, r0, r4, asr pc
 254:	00000044 	andeq	r0, r0, r4, asr #32
	...
 260:	0000001c 	andeq	r0, r0, ip, lsl r0
 264:	483b0002 	ldmdami	fp!, {r1}
 268:	00040000 	andeq	r0, r4, r0
 26c:	00000000 	andeq	r0, r0, r0
 270:	00009f98 	muleq	r0, r8, pc	; <UNPREDICTABLE>
 274:	00000020 	andeq	r0, r0, r0, lsr #32
	...

Disassembly of section .debug_line:

00000000 <.debug_line>:
       0:	00000328 	andeq	r0, r0, r8, lsr #6
       4:	01ab0002 			; <UNDEFINED> instruction: 0x01ab0002
       8:	01020000 	mrseq	r0, (UNDEF: 2)
       c:	000d0efb 	strdeq	r0, [sp], -fp
      10:	01010101 	tsteq	r1, r1, lsl #2
      14:	01000000 	mrseq	r0, (UNDEF: 0)
      18:	2f010000 	svccs	0x00010000
      1c:	72657355 	rsbvc	r7, r5, #1409286145	; 0x54000001
      20:	72622f73 	rsbvc	r2, r2, #460	; 0x1cc
      24:	6a6e6169 	bvs	1b985d0 <__bss_end__+0x1b8dc98>
      28:	442f6e75 	strtmi	r6, [pc], #-3701	; 30 <_start-0x7fd0>
      2c:	746b7365 	strbtvc	r7, [fp], #-869	; 0x365
      30:	732f706f 	teqvc	pc, #111	; 0x6f
      34:	6f6f6863 	svcvs	0x006f6863
      38:	69572f6c 	ldmdbvs	r7, {r2, r3, r5, r6, r8, r9, sl, fp, sp}^
      3c:	7265746e 	rsbvc	r7, r5, #1845493760	; 0x6e000000
      40:	30323931 	eorscc	r3, r2, r1, lsr r9
      44:	3153432f 	cmpcc	r3, pc, lsr #6
      48:	2f453034 	svccs	0x00453034
      4c:	34317363 	ldrtcc	r7, [r1], #-867	; 0x363
      50:	322d6530 	eorcc	r6, sp, #48, 10	; 0xc000000
      54:	6e697730 	mcrvs	7, 3, r7, cr9, cr0, {1}
      58:	62696c2f 	rsbvs	r6, r9, #12032	; 0x2f00
      5c:	632f6970 	teqvs	pc, #112, 18	; 0x1c0000
      60:	30343173 	eorscc	r3, r4, r3, ror r1
      64:	72732d65 	rsbsvc	r2, r3, #6464	; 0x1940
      68:	552f0063 	strpl	r0, [pc, #-99]!	; d <_start-0x7ff3>
      6c:	73726573 	cmnvc	r2, #482344960	; 0x1cc00000
      70:	6972622f 	ldmdbvs	r2!, {r0, r1, r2, r3, r5, r9, sp, lr}^
      74:	756a6e61 	strbvc	r6, [sl, #-3681]!	; 0xe61
      78:	65442f6e 	strbvs	r2, [r4, #-3950]	; 0xf6e
      7c:	6f746b73 	svcvs	0x00746b73
      80:	63732f70 	cmnvs	r3, #112, 30	; 0x1c0
      84:	6c6f6f68 	stclvs	15, cr6, [pc], #-416	; fffffeec <__bss_end__+0xffff55b4>
      88:	6e69572f 	cdpvs	7, 6, cr5, cr9, cr15, {1}
      8c:	31726574 	cmncc	r2, r4, ror r5
      90:	2f303239 	svccs	0x00303239
      94:	34315343 	ldrtcc	r5, [r1], #-835	; 0x343
      98:	632f4530 	teqvs	pc, #48, 10	; 0xc000000
      9c:	30343173 	eorscc	r3, r4, r3, ror r1
      a0:	30322d65 	eorscc	r2, r2, r5, ror #26
      a4:	2f6e6977 	svccs	0x006e6977
      a8:	7062696c 	rsbvc	r6, r2, ip, ror #18
      ac:	73632f69 	cmnvc	r3, #420	; 0x1a4
      b0:	65303431 	ldrvs	r3, [r0, #-1073]!	; 0x431
      b4:	746e692d 	strbtvc	r6, [lr], #-2349	; 0x92d
      b8:	75727265 	ldrbvc	r7, [r2, #-613]!	; 0x265
      bc:	2f007470 	svccs	0x00007470
      c0:	72657355 	rsbvc	r7, r5, #1409286145	; 0x54000001
      c4:	72622f73 	rsbvc	r2, r2, #460	; 0x1cc
      c8:	6a6e6169 	bvs	1b98674 <__bss_end__+0x1b8dd3c>
      cc:	442f6e75 	strtmi	r6, [pc], #-3701	; d4 <_start-0x7f2c>
      d0:	746b7365 	strbtvc	r7, [fp], #-869	; 0x365
      d4:	732f706f 	teqvc	pc, #111	; 0x6f
      d8:	6f6f6863 	svcvs	0x006f6863
      dc:	69572f6c 	ldmdbvs	r7, {r2, r3, r5, r6, r8, r9, sl, fp, sp}^
      e0:	7265746e 	rsbvc	r7, r5, #1845493760	; 0x6e000000
      e4:	30323931 	eorscc	r3, r2, r1, lsr r9
      e8:	3153432f 	cmpcc	r3, pc, lsr #6
      ec:	2f453034 	svccs	0x00453034
      f0:	34317363 	ldrtcc	r7, [r1], #-867	; 0x363
      f4:	322d6530 	eorcc	r6, sp, #48, 10	; 0xc000000
      f8:	6e697730 	mcrvs	7, 3, r7, cr9, cr0, {1}
      fc:	62696c2f 	rsbvs	r6, r9, #12032	; 0x2f00
     100:	2f006970 	svccs	0x00006970
     104:	2f727375 	svccs	0x00727375
     108:	61636f6c 	cmnvs	r3, ip, ror #30
     10c:	65432f6c 	strbvs	r2, [r3, #-3948]	; 0xf6c
     110:	72616c6c 	rsbvc	r6, r1, #108, 24	; 0x6c00
     114:	6d72612f 	ldfvse	f6, [r2, #-188]!	; 0xffffff44
     118:	6e6f6e2d 	cdpvs	14, 6, cr6, cr15, cr13, {1}
     11c:	61652d65 	cmnvs	r5, r5, ror #26
     120:	342f6962 	strtcc	r6, [pc], #-2402	; 128 <_start-0x7ed8>
     124:	332e382e 	teqcc	lr, #3014656	; 0x2e0000
     128:	3173632d 	cmncc	r3, sp, lsr #6
     12c:	2f653037 	svccs	0x00653037
     130:	2f62696c 	svccs	0x0062696c
     134:	2f636367 	svccs	0x00636367
     138:	2d6d7261 	sfmcs	f7, 2, [sp, #-388]!	; 0xfffffe7c
     13c:	656e6f6e 	strbvs	r6, [lr, #-3950]!	; 0xf6e
     140:	6261652d 	rsbvs	r6, r1, #188743680	; 0xb400000
     144:	2e342f69 	cdpcs	15, 3, cr2, cr4, cr9, {3}
     148:	2f332e38 	svccs	0x00332e38
     14c:	6c636e69 	stclvs	14, cr6, [r3], #-420	; 0xfffffe5c
     150:	00656475 	rsbeq	r6, r5, r5, ror r4
     154:	6c2d3200 	sfmvs	f3, 4, [sp], #-0
     158:	6369676f 	cmnvs	r9, #29097984	; 0x1bc0000
     15c:	616e612d 	cmnvs	lr, sp, lsr #2
     160:	657a796c 	ldrbvs	r7, [sl, #-2412]!	; 0x96c
     164:	00632e72 	rsbeq	r2, r3, r2, ror lr
     168:	67000000 	strvs	r0, [r0, -r0]
     16c:	2e6f6970 	mcrcs	9, 3, r6, cr15, cr0, {3}
     170:	00010068 	andeq	r0, r1, r8, rrx
     174:	69707200 	ldmdbvs	r0!, {r9, ip, sp, lr}^
     178:	6d72612d 	ldfvse	f6, [r2, #-180]!	; 0xffffff4c
     17c:	656d6974 	strbvs	r6, [sp, #-2420]!	; 0x974
     180:	00682e72 	rsbeq	r2, r8, r2, ror lr
     184:	72000002 	andvc	r0, r0, #2
     188:	682e6970 	stmdavs	lr!, {r4, r5, r6, r8, fp, sp, lr}
     18c:	00000300 	andeq	r0, r0, r0, lsl #6
     190:	2d697072 	stclcs	0, cr7, [r9, #-456]!	; 0xfffffe38
     194:	65746e69 	ldrbvs	r6, [r4, #-3689]!	; 0xe69
     198:	70757272 	rsbsvc	r7, r5, r2, ror r2
     19c:	682e7374 	stmdavs	lr!, {r2, r4, r5, r6, r8, r9, ip, sp, lr}
     1a0:	00000200 	andeq	r0, r0, r0, lsl #4
     1a4:	69647473 	stmdbvs	r4!, {r0, r1, r4, r5, r6, sl, ip, sp, lr}^
     1a8:	672d746e 	strvs	r7, [sp, -lr, ror #8]!
     1ac:	682e6363 	stmdavs	lr!, {r0, r1, r5, r6, r8, r9, sp, lr}
     1b0:	00000400 	andeq	r0, r0, r0, lsl #8
     1b4:	02050000 	andeq	r0, r5, #0
     1b8:	00008010 	andeq	r8, r0, r0, lsl r0
     1bc:	0100c003 	tsteq	r0, r3
     1c0:	0402002f 	streq	r0, [r2], #-47	; 0x2f
     1c4:	064a0601 	strbeq	r0, [sl], -r1, lsl #12
     1c8:	30672fd7 	ldrdcc	r2, [r7], #-247	; 0xffffff09	; <UNPREDICTABLE>
     1cc:	020032a1 	andeq	r3, r0, #268435466	; 0x1000000a
     1d0:	2e060104 	adfcss	f0, f6, f4
     1d4:	002f6906 	eoreq	r6, pc, r6, lsl #18
     1d8:	06010402 	streq	r0, [r1], -r2, lsl #8
     1dc:	0402002e 	streq	r0, [r2], #-46	; 0x2e
     1e0:	9f840601 	svcls	0x00840601
     1e4:	040200bb 	streq	r0, [r2], #-187	; 0xbb
     1e8:	062e0601 	strteq	r0, [lr], -r1, lsl #12
     1ec:	0200d783 	andeq	sp, r0, #34340864	; 0x20c0000
     1f0:	2e060104 	adfcss	f0, f6, f4
     1f4:	00d78306 	sbcseq	r8, r7, r6, lsl #6
     1f8:	06010402 	streq	r0, [r1], -r2, lsl #8
     1fc:	d783062e 	strle	r0, [r3, lr, lsr #12]
     200:	01040200 	mrseq	r0, R12_usr
     204:	83062e06 	movwhi	r2, #28166	; 0x6e06
     208:	040200d7 	streq	r0, [r2], #-215	; 0xd7
     20c:	062e0601 	strteq	r0, [lr], -r1, lsl #12
     210:	0200d783 	andeq	sp, r0, #34340864	; 0x20c0000
     214:	2e060104 	adfcss	f0, f6, f4
     218:	00d78306 	sbcseq	r8, r7, r6, lsl #6
     21c:	06010402 	streq	r0, [r1], -r2, lsl #8
     220:	bb83062e 	bllt	fe0c1ae0 <__bss_end__+0xfe0b71a8>
     224:	01040200 	mrseq	r0, R12_usr
     228:	03062e06 	movweq	r2, #28166	; 0x6e06
     22c:	9308820c 	movwls	r8, #33292	; 0x820c
     230:	02003030 	andeq	r3, r0, #48	; 0x30
     234:	2e060104 	adfcss	f0, f6, f4
     238:	7fb80306 	svcvc	0x00b80306
     23c:	00cd0366 	sbceq	r0, sp, r6, ror #6
     240:	040200ba 	streq	r0, [r2], #-186	; 0xba
     244:	062e0601 	strteq	r0, [lr], -r1, lsl #12
     248:	827fb903 	rsbshi	fp, pc, #49152	; 0xc000
     24c:	a34a7503 	movtge	r7, #42243	; 0xa503
     250:	01040200 	mrseq	r0, R12_usr
     254:	8200cf03 	andhi	ip, r0, #3, 30
     258:	9e7fb703 	cdpls	7, 7, cr11, cr15, cr3, {0}
     25c:	a34a7503 	movtge	r7, #42243	; 0xa503
     260:	01040200 	mrseq	r0, R12_usr
     264:	8200d103 	andhi	sp, r0, #-1073741824	; 0xc0000000
     268:	9e7fb503 	cdpls	5, 7, cr11, cr15, cr3, {0}
     26c:	a34a7503 	movtge	r7, #42243	; 0xa503
     270:	01040200 	mrseq	r0, R12_usr
     274:	8200d303 	andhi	sp, r0, #201326592	; 0xc000000
     278:	9e7fb303 	cdpls	3, 7, cr11, cr15, cr3, {0}
     27c:	a34a7503 	movtge	r7, #42243	; 0xa503
     280:	01040200 	mrseq	r0, R12_usr
     284:	8200d503 	andhi	sp, r0, #12582912	; 0xc00000
     288:	9e7fb103 	explse	f3, f3
     28c:	a34a7503 	movtge	r7, #42243	; 0xa503
     290:	01040200 	mrseq	r0, R12_usr
     294:	8200d703 	andhi	sp, r0, #786432	; 0xc0000
     298:	9e7faf03 	cdpls	15, 7, cr10, cr15, cr3, {0}
     29c:	a34a7503 	movtge	r7, #42243	; 0xa503
     2a0:	01040200 	mrseq	r0, R12_usr
     2a4:	8200d903 	andhi	sp, r0, #49152	; 0xc000
     2a8:	9e7fad03 	cdpls	13, 7, cr10, cr15, cr3, {0}
     2ac:	a34a7503 	movtge	r7, #42243	; 0xa503
     2b0:	01040200 	mrseq	r0, R12_usr
     2b4:	8200db03 	andhi	sp, r0, #3072	; 0xc00
     2b8:	9e7fab03 	vaddls.f64	d26, d15, d3
     2bc:	a34a7503 	movtge	r7, #42243	; 0xa503
     2c0:	01040200 	mrseq	r0, R12_usr
     2c4:	8200dd03 	andhi	sp, r0, #3, 26	; 0xc0
     2c8:	9e7f9e03 	cdpls	14, 7, cr9, cr15, cr3, {0}
     2cc:	8200e403 	andhi	lr, r0, #50331648	; 0x3000000
     2d0:	01040200 	mrseq	r0, R12_usr
     2d4:	83062e06 	movwhi	r2, #28166	; 0x6e06
     2d8:	97039408 	strls	r9, [r3, -r8, lsl #8]
     2dc:	eb03667f 	bl	d9ce0 <__bss_end__+0xcf3a8>
     2e0:	004b9e00 	subeq	r9, fp, r0, lsl #28
     2e4:	06010402 	streq	r0, [r1], -r2, lsl #8
     2e8:	4b67062e 	blmi	19c1ba8 <__bss_end__+0x19b7270>
     2ec:	03362f2f 	teqeq	r6, #47, 30	; 0xbc
     2f0:	672f2e76 			; <UNDEFINED> instruction: 0x672f2e76
     2f4:	a0bcbca0 	adcsge	fp, ip, r0, lsr #25
     2f8:	01040200 	mrseq	r0, R12_usr
     2fc:	032e7603 	teqeq	lr, #3145728	; 0x300000
     300:	032f660d 	teqeq	pc, #13631488	; 0xd00000
     304:	36900809 	ldrcc	r0, [r0], r9, lsl #16
     308:	0402002f 	streq	r0, [r2], #-47	; 0x2f
     30c:	06820601 	streq	r0, [r2], r1, lsl #12
     310:	67678383 	strbvs	r8, [r7, -r3, lsl #7]!
     314:	a1836767 	orrge	r6, r3, r7, ror #14
     318:	4b6a834b 	blmi	1aa104c <__bss_end__+0x1a96714>
     31c:	302f2fbd 	strhtcc	r2, [pc], -sp
     320:	2f4c4c4b 	svccs	0x004c4c4b
     324:	02872f4b 	addeq	r2, r7, #300	; 0x12c
     328:	01010002 	tsteq	r1, r2
     32c:	00000102 	andeq	r0, r0, r2, lsl #2
     330:	00eb0002 	rsceq	r0, fp, r2
     334:	01020000 	mrseq	r0, (UNDEF: 2)
     338:	000d0efb 	strdeq	r0, [sp], -fp
     33c:	01010101 	tsteq	r1, r1, lsl #2
     340:	01000000 	mrseq	r0, (UNDEF: 0)
     344:	6c010000 	stcvs	0, cr0, [r1], {-0}
     348:	00636269 	rsbeq	r6, r3, r9, ror #4
     34c:	7273752f 	rsbsvc	r7, r3, #197132288	; 0xbc00000
     350:	636f6c2f 	cmnvs	pc, #12032	; 0x2f00
     354:	432f6c61 	teqmi	pc, #24832	; 0x6100
     358:	616c6c65 	cmnvs	ip, r5, ror #24
     35c:	72612f72 	rsbvc	r2, r1, #456	; 0x1c8
     360:	6f6e2d6d 	svcvs	0x006e2d6d
     364:	652d656e 	strvs	r6, [sp, #-1390]!	; 0x56e
     368:	2f696261 	svccs	0x00696261
     36c:	2e382e34 	mrccs	14, 1, r2, cr8, cr4, {1}
     370:	73632d33 	cmnvc	r3, #3264	; 0xcc0
     374:	65303731 	ldrvs	r3, [r0, #-1841]!	; 0x731
     378:	62696c2f 	rsbvs	r6, r9, #12032	; 0x2f00
     37c:	6363672f 	cmnvs	r3, #12320768	; 0xbc0000
     380:	6d72612f 	ldfvse	f6, [r2, #-188]!	; 0xffffff44
     384:	6e6f6e2d 	cdpvs	14, 6, cr6, cr15, cr13, {1}
     388:	61652d65 	cmnvs	r5, r5, ror #26
     38c:	342f6962 	strtcc	r6, [pc], #-2402	; 394 <_start-0x7c6c>
     390:	332e382e 	teqcc	lr, #3014656	; 0x2e0000
     394:	636e692f 	cmnvs	lr, #770048	; 0xbc000
     398:	6564756c 	strbvs	r7, [r4, #-1388]!	; 0x56c
     39c:	73552f00 	cmpvc	r5, #0, 30
     3a0:	2f737265 	svccs	0x00737265
     3a4:	61697262 	cmnvs	r9, r2, ror #4
     3a8:	6e756a6e 	vsubvs.f32	s13, s10, s29
     3ac:	7365442f 	cmnvc	r5, #788529152	; 0x2f000000
     3b0:	706f746b 	rsbvc	r7, pc, fp, ror #8
     3b4:	6863732f 	stmdavs	r3!, {r0, r1, r2, r3, r5, r8, r9, ip, sp, lr}^
     3b8:	2f6c6f6f 	svccs	0x006c6f6f
     3bc:	746e6957 	strbtvc	r6, [lr], #-2391	; 0x957
     3c0:	39317265 	ldmdbcc	r1!, {r0, r2, r5, r6, r9, ip, sp, lr}
     3c4:	432f3032 	teqmi	pc, #50	; 0x32
     3c8:	30343153 	eorscc	r3, r4, r3, asr r1
     3cc:	73632f45 	cmnvc	r3, #276	; 0x114
     3d0:	65303431 	ldrvs	r3, [r0, #-1073]!	; 0x431
     3d4:	7730322d 	ldrvc	r3, [r0, -sp, lsr #4]!
     3d8:	6c2f6e69 	stcvs	14, cr6, [pc], #-420	; 23c <_start-0x7dc4>
     3dc:	69706269 	ldmdbvs	r0!, {r0, r3, r5, r6, r9, sp, lr}^
     3e0:	72700000 	rsbsvc	r0, r0, #0
     3e4:	6b746e69 	blvs	1d1bd90 <__bss_end__+0x1d11458>
     3e8:	0100632e 	tsteq	r0, lr, lsr #6
     3ec:	74730000 	ldrbtvc	r0, [r3], #-0
     3f0:	67726164 	ldrbvs	r6, [r2, -r4, ror #2]!
     3f4:	0200682e 	andeq	r6, r0, #3014656	; 0x2e0000
     3f8:	623c0000 	eorsvs	r0, ip, #0
     3fc:	746c6975 	strbtvc	r6, [ip], #-2421	; 0x975
     400:	3e6e692d 	cdpcc	9, 6, cr6, cr14, cr13, {1}
     404:	00000000 	andeq	r0, r0, r0
     408:	2e697072 	mcrcs	0, 3, r7, cr9, cr2, {3}
     40c:	00030068 	andeq	r0, r3, r8, rrx
     410:	2d617600 	stclcs	6, cr7, [r1, #-0]
     414:	6e697270 	mcrvs	2, 3, r7, cr9, cr0, {3}
     418:	682e6b74 	stmdavs	lr!, {r2, r4, r5, r6, r8, r9, fp, sp, lr}
     41c:	00000100 	andeq	r0, r0, r0, lsl #2
     420:	02050000 	andeq	r0, r5, #0
     424:	00008700 	andeq	r8, r0, r0, lsl #14
     428:	bf4b6b17 	svclt	0x004b6b17
     42c:	000e0289 	andeq	r0, lr, r9, lsl #5
     430:	008a0101 	addeq	r0, sl, r1, lsl #2
     434:	00020000 	andeq	r0, r2, r0
     438:	00000072 	andeq	r0, r0, r2, ror r0
     43c:	0efb0102 	cdpeq	1, 15, cr0, cr11, cr2, {0}
     440:	0101000d 	tsteq	r1, sp
     444:	00000101 	andeq	r0, r0, r1, lsl #2
     448:	00000100 	andeq	r0, r0, r0, lsl #2
     44c:	62696c01 	rsbvs	r6, r9, #256	; 0x100
     450:	552f0063 	strpl	r0, [pc, #-99]!	; 3f5 <_start-0x7c0b>
     454:	73726573 	cmnvc	r2, #482344960	; 0x1cc00000
     458:	6972622f 	ldmdbvs	r2!, {r0, r1, r2, r3, r5, r9, sp, lr}^
     45c:	756a6e61 	strbvc	r6, [sl, #-3681]!	; 0xe61
     460:	65442f6e 	strbvs	r2, [r4, #-3950]	; 0xf6e
     464:	6f746b73 	svcvs	0x00746b73
     468:	63732f70 	cmnvs	r3, #112, 30	; 0x1c0
     46c:	6c6f6f68 	stclvs	15, cr6, [pc], #-416	; 2d4 <_start-0x7d2c>
     470:	6e69572f 	cdpvs	7, 6, cr5, cr9, cr15, {1}
     474:	31726574 	cmncc	r2, r4, ror r5
     478:	2f303239 	svccs	0x00303239
     47c:	34315343 	ldrtcc	r5, [r1], #-835	; 0x343
     480:	632f4530 	teqvs	pc, #48, 10	; 0xc000000
     484:	30343173 	eorscc	r3, r4, r3, ror r1
     488:	30322d65 	eorscc	r2, r2, r5, ror #26
     48c:	2f6e6977 	svccs	0x006e6977
     490:	7062696c 	rsbvc	r6, r2, ip, ror #18
     494:	70000069 	andvc	r0, r0, r9, rrx
     498:	68637475 	stmdavs	r3!, {r0, r2, r4, r5, r6, sl, ip, sp, lr}^
     49c:	632e7261 	teqvs	lr, #268435462	; 0x10000006
     4a0:	00000100 	andeq	r0, r0, r0, lsl #2
     4a4:	2e697072 	mcrcs	0, 3, r7, cr9, cr2, {3}
     4a8:	00020068 	andeq	r0, r2, r8, rrx
     4ac:	05000000 	streq	r0, [r0, #-0]
     4b0:	00875802 	addeq	r5, r7, r2, lsl #16
     4b4:	6b4a1400 	blvs	12854bc <__bss_end__+0x127ab84>
     4b8:	0213bc13 	andseq	fp, r3, #4864	; 0x1300
     4bc:	01010008 	tsteq	r1, r8
     4c0:	00000096 	muleq	r0, r6, r0
     4c4:	006f0002 	rsbeq	r0, pc, r2
     4c8:	01020000 	mrseq	r0, (UNDEF: 2)
     4cc:	000d0efb 	strdeq	r0, [sp], -fp
     4d0:	01010101 	tsteq	r1, r1, lsl #2
     4d4:	01000000 	mrseq	r0, (UNDEF: 0)
     4d8:	6c010000 	stcvs	0, cr0, [r1], {-0}
     4dc:	00636269 	rsbeq	r6, r3, r9, ror #4
     4e0:	6573552f 	ldrbvs	r5, [r3, #-1327]!	; 0x52f
     4e4:	622f7372 	eorvs	r7, pc, #-939524095	; 0xc8000001
     4e8:	6e616972 	mcrvs	9, 3, r6, cr1, cr2, {3}
     4ec:	2f6e756a 	svccs	0x006e756a
     4f0:	6b736544 	blvs	1cd9a08 <__bss_end__+0x1ccf0d0>
     4f4:	2f706f74 	svccs	0x00706f74
     4f8:	6f686373 	svcvs	0x00686373
     4fc:	572f6c6f 	strpl	r6, [pc, -pc, ror #24]!
     500:	65746e69 	ldrbvs	r6, [r4, #-3689]!	; 0xe69
     504:	32393172 	eorscc	r3, r9, #-2147483620	; 0x8000001c
     508:	53432f30 	movtpl	r2, #16176	; 0x3f30
     50c:	45303431 	ldrmi	r3, [r0, #-1073]!	; 0x431
     510:	3173632f 	cmncc	r3, pc, lsr #6
     514:	2d653034 	stclcs	0, cr3, [r5, #-208]!	; 0xffffff30
     518:	69773032 	ldmdbvs	r7!, {r1, r4, r5, ip, sp}^
     51c:	696c2f6e 	stmdbvs	ip!, {r1, r2, r3, r5, r6, r8, r9, sl, fp, sp}^
     520:	00697062 	rsbeq	r7, r9, r2, rrx
     524:	74757000 	ldrbtvc	r7, [r5], #-0
     528:	00632e6b 	rsbeq	r2, r3, fp, ror #28
     52c:	72000001 	andvc	r0, r0, #1
     530:	682e6970 	stmdavs	lr!, {r4, r5, r6, r8, fp, sp, lr}
     534:	00000200 	andeq	r0, r0, r0, lsl #4
     538:	02050000 	andeq	r0, r5, #0
     53c:	00008794 	muleq	r0, r4, r7
     540:	002d4c15 	eoreq	r4, sp, r5, lsl ip
     544:	2f020402 	svccs	0x00020402
     548:	02040200 	andeq	r0, r4, #0, 4
     54c:	04020049 	streq	r0, [r2], #-73	; 0x49
     550:	062e0601 	strteq	r0, [lr], -r1, lsl #12
     554:	0006026b 	andeq	r0, r6, fp, ror #4
     558:	01e20101 	mvneq	r0, r1, lsl #2
     55c:	00020000 	andeq	r0, r2, r0
     560:	000000df 	ldrdeq	r0, [r0], -pc	; <UNPREDICTABLE>
     564:	0efb0102 	cdpeq	1, 15, cr0, cr11, cr2, {0}
     568:	0101000d 	tsteq	r1, sp
     56c:	00000101 	andeq	r0, r0, r1, lsl #2
     570:	00000100 	andeq	r0, r0, r0, lsl #2
     574:	62696c01 	rsbvs	r6, r9, #256	; 0x100
     578:	752f0063 	strvc	r0, [pc, #-99]!	; 51d <_start-0x7ae3>
     57c:	6c2f7273 	sfmvs	f7, 4, [pc], #-460	; 3b8 <_start-0x7c48>
     580:	6c61636f 	stclvs	3, cr6, [r1], #-444	; 0xfffffe44
     584:	6c65432f 	stclvs	3, cr4, [r5], #-188	; 0xffffff44
     588:	2f72616c 	svccs	0x0072616c
     58c:	2d6d7261 	sfmcs	f7, 2, [sp, #-388]!	; 0xfffffe7c
     590:	656e6f6e 	strbvs	r6, [lr, #-3950]!	; 0xf6e
     594:	6261652d 	rsbvs	r6, r1, #188743680	; 0xb400000
     598:	2e342f69 	cdpcs	15, 3, cr2, cr4, cr9, {3}
     59c:	2d332e38 	ldccs	14, cr2, [r3, #-224]!	; 0xffffff20
     5a0:	37317363 	ldrcc	r7, [r1, -r3, ror #6]!
     5a4:	6c2f6530 	cfstr32vs	mvfx6, [pc], #-192	; 4ec <_start-0x7b14>
     5a8:	672f6269 	strvs	r6, [pc, -r9, ror #4]!
     5ac:	612f6363 	teqvs	pc, r3, ror #6
     5b0:	6e2d6d72 	mcrvs	13, 1, r6, cr13, cr2, {3}
     5b4:	2d656e6f 	stclcs	14, cr6, [r5, #-444]!	; 0xfffffe44
     5b8:	69626165 	stmdbvs	r2!, {r0, r2, r5, r6, r8, sp, lr}^
     5bc:	382e342f 	stmdacc	lr!, {r0, r1, r2, r3, r5, sl, ip, sp}
     5c0:	692f332e 	stmdbvs	pc!, {r1, r2, r3, r5, r8, r9, ip, sp}	; <UNPREDICTABLE>
     5c4:	756c636e 	strbvc	r6, [ip, #-878]!	; 0x36e
     5c8:	2f006564 	svccs	0x00006564
     5cc:	72657355 	rsbvc	r7, r5, #1409286145	; 0x54000001
     5d0:	72622f73 	rsbvc	r2, r2, #460	; 0x1cc
     5d4:	6a6e6169 	bvs	1b98b80 <__bss_end__+0x1b8e248>
     5d8:	442f6e75 	strtmi	r6, [pc], #-3701	; 5e0 <_start-0x7a20>
     5dc:	746b7365 	strbtvc	r7, [fp], #-869	; 0x365
     5e0:	732f706f 	teqvc	pc, #111	; 0x6f
     5e4:	6f6f6863 	svcvs	0x006f6863
     5e8:	69572f6c 	ldmdbvs	r7, {r2, r3, r5, r6, r8, r9, sl, fp, sp}^
     5ec:	7265746e 	rsbvc	r7, r5, #1845493760	; 0x6e000000
     5f0:	30323931 	eorscc	r3, r2, r1, lsr r9
     5f4:	3153432f 	cmpcc	r3, pc, lsr #6
     5f8:	2f453034 	svccs	0x00453034
     5fc:	34317363 	ldrtcc	r7, [r1], #-867	; 0x363
     600:	322d6530 	eorcc	r6, sp, #48, 10	; 0xc000000
     604:	6e697730 	mcrvs	7, 3, r7, cr9, cr0, {1}
     608:	62696c2f 	rsbvs	r6, r9, #12032	; 0x2f00
     60c:	00006970 	andeq	r6, r0, r0, ror r9
     610:	702d6176 	eorvc	r6, sp, r6, ror r1
     614:	746e6972 	strbtvc	r6, [lr], #-2418	; 0x972
     618:	00632e6b 	rsbeq	r2, r3, fp, ror #28
     61c:	73000001 	movwvc	r0, #1
     620:	72616474 	rsbvc	r6, r1, #116, 8	; 0x74000000
     624:	00682e67 	rsbeq	r2, r8, r7, ror #28
     628:	72000002 	andvc	r0, r0, #2
     62c:	682e6970 	stmdavs	lr!, {r4, r5, r6, r8, fp, sp, lr}
     630:	00000300 	andeq	r0, r0, r0, lsl #6
     634:	6975623c 	ldmdbvs	r5!, {r2, r3, r4, r5, r9, sp, lr}^
     638:	692d746c 	pushvs	{r2, r3, r5, r6, sl, ip, sp, lr}
     63c:	00003e6e 	andeq	r3, r0, lr, ror #28
     640:	00000000 	andeq	r0, r0, r0
     644:	87c80205 	strbhi	r0, [r8, r5, lsl #4]
     648:	26030000 	strcs	r0, [r3], -r0
     64c:	13a50101 			; <UNDEFINED> instruction: 0x13a50101
     650:	02002d31 	andeq	r2, r0, #3136	; 0xc40
     654:	002f0204 	eoreq	r0, pc, r4, lsl #4
     658:	2d020402 	cfstrscs	mvf0, [r2, #-8]
     65c:	02040200 	andeq	r0, r4, #0, 4
     660:	0402002f 	streq	r0, [r2], #-47	; 0x2f
     664:	4c4c2d01 	mcrrmi	13, 0, r2, ip, cr1
     668:	2f4b1430 	svccs	0x004b1430
     66c:	0402004f 	streq	r0, [r2], #-79	; 0x4f
     670:	02006702 	andeq	r6, r0, #524288	; 0x80000
     674:	4c650104 	stfmie	f0, [r5], #-16
     678:	2fa0304d 	svccs	0x00a0304d
     67c:	26023031 			; <UNDEFINED> instruction: 0x26023031
     680:	2c2d8416 	cfstrscs	mvf8, [sp], #-88	; 0xffffffa8
     684:	01040200 	mrseq	r0, R12_usr
     688:	04020030 	streq	r0, [r2], #-48	; 0x30
     68c:	66063301 	strvs	r3, [r6], -r1, lsl #6
     690:	01040200 	mrseq	r0, R12_usr
     694:	0402002e 	streq	r0, [r2], #-46	; 0x2e
     698:	21080601 	tstcs	r8, r1, lsl #12
     69c:	73032f67 	movwvc	r2, #16231	; 0x3f67
     6a0:	2e130382 	cdpcs	3, 1, cr0, cr3, cr2, {4}
     6a4:	01040200 	mrseq	r0, R12_usr
     6a8:	02002e06 	andeq	r2, r0, #6, 28	; 0x60
     6ac:	9f060104 	svcls	0x00060104
     6b0:	67034b6a 	strvs	r4, [r3, -sl, ror #22]
     6b4:	2e21032e 	cdpcs	3, 2, cr0, cr1, cr14, {1}
     6b8:	01040200 	mrseq	r0, R12_usr
     6bc:	02002e06 	andeq	r2, r0, #6, 28	; 0x60
     6c0:	9f060104 	svcls	0x00060104
     6c4:	01040200 	mrseq	r0, R12_usr
     6c8:	f323086a 	vsub.i32	q0, <illegal reg q1.5>, q13
     6cc:	087fa603 	ldmdaeq	pc!, {r0, r1, r9, sl, sp, pc}^	; <UNPREDICTABLE>
     6d0:	02004b3c 	andeq	r4, r0, #60, 22	; 0xf000
     6d4:	4a060104 	bmi	180aec <__bss_end__+0x1761b4>
     6d8:	4b210806 	blmi	8426f8 <__bss_end__+0x837dc0>
     6dc:	d9034b2f 	stmdble	r3, {r0, r1, r2, r3, r5, r8, r9, fp, lr}
     6e0:	4c83f200 	sfmmi	f7, 1, [r3], {0}
     6e4:	2e0e0348 	cdpcs	3, 0, cr0, cr14, cr8, {2}
     6e8:	2f2e7503 	svccs	0x002e7503
     6ec:	2f4b842f 	svccs	0x004b842f
     6f0:	30314d2d 	eorscc	r4, r1, sp, lsr #26
     6f4:	0200832f 	andeq	r8, r0, #-1140850688	; 0xbc000000
     6f8:	a22c0104 	eorge	r0, ip, #4, 2
     6fc:	01040200 	mrseq	r0, R12_usr
     700:	08064a06 	stmdaeq	r6, {r1, r2, r9, fp, lr}
     704:	16360222 	ldrtne	r0, [r6], -r2, lsr #4
     708:	08d60e03 	ldmeq	r6, {r0, r1, r9, sl, fp}^
     70c:	31f33021 	mvnscc	r3, r1, lsr #32
     710:	30f330f3 	ldrshtcc	r3, [r3], #3
     714:	30f3304b 	rscscc	r3, r3, fp, asr #32
     718:	2f312308 	svccs	0x00312308
     71c:	01040200 	mrseq	r0, R12_usr
     720:	04020065 	streq	r0, [r2], #-101	; 0x65
     724:	004a0602 	subeq	r0, sl, r2, lsl #12
     728:	06010402 	streq	r0, [r1], -r2, lsl #8
     72c:	00664203 	rsbeq	r4, r6, r3, lsl #4
     730:	06020402 	streq	r0, [r2], -r2, lsl #8
     734:	c2030666 	andgt	r0, r3, #106954752	; 0x6600000
     738:	02684a00 	rsbeq	r4, r8, #0, 20
     73c:	01010012 	tsteq	r1, r2, lsl r0
     740:	00000043 	andeq	r0, r0, r3, asr #32
     744:	00290002 	eoreq	r0, r9, r2
     748:	01020000 	mrseq	r0, (UNDEF: 2)
     74c:	000d0efb 	strdeq	r0, [sp], -fp
     750:	01010101 	tsteq	r1, r1, lsl #2
     754:	01000000 	mrseq	r0, (UNDEF: 0)
     758:	63010000 	movwvs	r0, #4096	; 0x1000
     75c:	30343173 	eorscc	r3, r4, r3, ror r1
     760:	72732d65 	rsbsvc	r2, r3, #6464	; 0x1940
     764:	63000063 	movwvs	r0, #99	; 0x63
     768:	65686361 	strbvs	r6, [r8, #-865]!	; 0x361
     76c:	0100632e 	tsteq	r0, lr, lsr #6
     770:	00000000 	andeq	r0, r0, r0
     774:	8cec0205 	sfmhi	f0, 2, [ip], #20
     778:	14140000 	ldrne	r0, [r4], #-0
     77c:	144e2f30 	strbne	r2, [lr], #-3888	; 0xf30
     780:	04022f31 	streq	r2, [r2], #-3889	; 0xf31
     784:	93010100 	movwls	r0, #4352	; 0x1100
     788:	02000000 	andeq	r0, r0, #0
     78c:	00007d00 	andeq	r7, r0, r0, lsl #26
     790:	fb010200 	blx	40f9a <__bss_end__+0x36662>
     794:	01000d0e 	tsteq	r0, lr, lsl #26
     798:	00010101 	andeq	r0, r1, r1, lsl #2
     79c:	00010000 	andeq	r0, r1, r0
     7a0:	73630100 	cmnvc	r3, #0, 2
     7a4:	65303431 	ldrvs	r3, [r0, #-1073]!	; 0x431
     7a8:	6372732d 	cmnvs	r2, #-1275068416	; 0xb4000000
     7ac:	73552f00 	cmpvc	r5, #0, 30
     7b0:	2f737265 	svccs	0x00737265
     7b4:	61697262 	cmnvs	r9, r2, ror #4
     7b8:	6e756a6e 	vsubvs.f32	s13, s10, s29
     7bc:	7365442f 	cmnvc	r5, #788529152	; 0x2f000000
     7c0:	706f746b 	rsbvc	r7, pc, fp, ror #8
     7c4:	6863732f 	stmdavs	r3!, {r0, r1, r2, r3, r5, r8, r9, ip, sp, lr}^
     7c8:	2f6c6f6f 	svccs	0x006c6f6f
     7cc:	746e6957 	strbtvc	r6, [lr], #-2391	; 0x957
     7d0:	39317265 	ldmdbcc	r1!, {r0, r2, r5, r6, r9, ip, sp, lr}
     7d4:	432f3032 	teqmi	pc, #50	; 0x32
     7d8:	30343153 	eorscc	r3, r4, r3, asr r1
     7dc:	73632f45 	cmnvc	r3, #276	; 0x114
     7e0:	65303431 	ldrvs	r3, [r0, #-1073]!	; 0x431
     7e4:	7730322d 	ldrvc	r3, [r0, -sp, lsr #4]!
     7e8:	6c2f6e69 	stcvs	14, cr6, [pc], #-420	; 64c <_start-0x79b4>
     7ec:	69706269 	ldmdbvs	r0!, {r0, r3, r5, r6, r9, sp, lr}^
     7f0:	6c630000 	stclvs	0, cr0, [r3], #-0
     7f4:	2d6e6165 	stfcse	f6, [lr, #-404]!	; 0xfffffe6c
     7f8:	6f626572 	svcvs	0x00626572
     7fc:	632e746f 	teqvs	lr, #1862270976	; 0x6f000000
     800:	00000100 	andeq	r0, r0, r0, lsl #2
     804:	2e697072 	mcrcs	0, 3, r7, cr9, cr2, {3}
     808:	00020068 	andeq	r0, r2, r8, rrx
     80c:	05000000 	streq	r0, [r0, #-0]
     810:	008d0c02 	addeq	r0, sp, r2, lsl #24
     814:	832f1500 	teqhi	pc, #0, 10
     818:	0006024b 	andeq	r0, r6, fp, asr #4
     81c:	01210101 	teqeq	r1, r1, lsl #2
     820:	00020000 	andeq	r0, r2, r0
     824:	000000f8 	strdeq	r0, [r0], -r8
     828:	0efb0102 	cdpeq	1, 15, cr0, cr11, cr2, {0}
     82c:	0101000d 	tsteq	r1, sp
     830:	00000101 	andeq	r0, r0, r1, lsl #2
     834:	00000100 	andeq	r0, r0, r0, lsl #2
     838:	31736301 	cmncc	r3, r1, lsl #6
     83c:	2d653034 	stclcs	0, cr3, [r5, #-208]!	; 0xffffff30
     840:	00637273 	rsbeq	r7, r3, r3, ror r2
     844:	7273752f 	rsbsvc	r7, r3, #197132288	; 0xbc00000
     848:	636f6c2f 	cmnvs	pc, #12032	; 0x2f00
     84c:	432f6c61 	teqmi	pc, #24832	; 0x6100
     850:	616c6c65 	cmnvs	ip, r5, ror #24
     854:	72612f72 	rsbvc	r2, r1, #456	; 0x1c8
     858:	6f6e2d6d 	svcvs	0x006e2d6d
     85c:	652d656e 	strvs	r6, [sp, #-1390]!	; 0x56e
     860:	2f696261 	svccs	0x00696261
     864:	2e382e34 	mrccs	14, 1, r2, cr8, cr4, {1}
     868:	73632d33 	cmnvc	r3, #3264	; 0xcc0
     86c:	65303731 	ldrvs	r3, [r0, #-1841]!	; 0x731
     870:	62696c2f 	rsbvs	r6, r9, #12032	; 0x2f00
     874:	6363672f 	cmnvs	r3, #12320768	; 0xbc0000
     878:	6d72612f 	ldfvse	f6, [r2, #-188]!	; 0xffffff44
     87c:	6e6f6e2d 	cdpvs	14, 6, cr6, cr15, cr13, {1}
     880:	61652d65 	cmnvs	r5, r5, ror #26
     884:	342f6962 	strtcc	r6, [pc], #-2402	; 88c <_start-0x7774>
     888:	332e382e 	teqcc	lr, #3014656	; 0x2e0000
     88c:	636e692f 	cmnvs	lr, #770048	; 0xbc000
     890:	6564756c 	strbvs	r7, [r4, #-1388]!	; 0x56c
     894:	73552f00 	cmpvc	r5, #0, 30
     898:	2f737265 	svccs	0x00737265
     89c:	61697262 	cmnvs	r9, r2, ror #4
     8a0:	6e756a6e 	vsubvs.f32	s13, s10, s29
     8a4:	7365442f 	cmnvc	r5, #788529152	; 0x2f000000
     8a8:	706f746b 	rsbvc	r7, pc, fp, ror #8
     8ac:	6863732f 	stmdavs	r3!, {r0, r1, r2, r3, r5, r8, r9, ip, sp, lr}^
     8b0:	2f6c6f6f 	svccs	0x006c6f6f
     8b4:	746e6957 	strbtvc	r6, [lr], #-2391	; 0x957
     8b8:	39317265 	ldmdbcc	r1!, {r0, r2, r5, r6, r9, ip, sp, lr}
     8bc:	432f3032 	teqmi	pc, #50	; 0x32
     8c0:	30343153 	eorscc	r3, r4, r3, asr r1
     8c4:	73632f45 	cmnvc	r3, #276	; 0x114
     8c8:	65303431 	ldrvs	r3, [r0, #-1073]!	; 0x431
     8cc:	7730322d 	ldrvc	r3, [r0, -sp, lsr #4]!
     8d0:	6c2f6e69 	stcvs	14, cr6, [pc], #-420	; 734 <_start-0x78cc>
     8d4:	69706269 	ldmdbvs	r0!, {r0, r3, r5, r6, r9, sp, lr}^
     8d8:	73630000 	cmnvc	r3, #0
     8dc:	74726174 	ldrbtvc	r6, [r2], #-372	; 0x174
     8e0:	0100632e 	tsteq	r0, lr, lsr #6
     8e4:	74730000 	ldrbtvc	r0, [r3], #-0
     8e8:	746e6964 	strbtvc	r6, [lr], #-2404	; 0x964
     8ec:	6363672d 	cmnvs	r3, #11796480	; 0xb40000
     8f0:	0200682e 	andeq	r6, r0, #3014656	; 0x2e0000
     8f4:	77730000 	ldrbvc	r0, [r3, -r0]!
     8f8:	7261752d 	rsbvc	r7, r1, #188743680	; 0xb400000
     8fc:	00682e74 	rsbeq	r2, r8, r4, ror lr
     900:	63000001 	movwvs	r0, #1
     904:	72746e6f 	rsbsvc	r6, r4, #1776	; 0x6f0
     908:	622d6c6f 	eorvs	r6, sp, #28416	; 0x6f00
     90c:	6b636f6c 	blvs	18dc6c4 <__bss_end__+0x18d1d8c>
     910:	0100682e 	tsteq	r0, lr, lsr #16
     914:	70720000 	rsbsvc	r0, r2, r0
     918:	00682e69 	rsbeq	r2, r8, r9, ror #28
     91c:	00000003 	andeq	r0, r0, r3
     920:	34020500 	strcc	r0, [r2], #-1280	; 0x500
     924:	1700008d 	strne	r0, [r0, -sp, lsl #1]
     928:	3268684b 	rsbcc	r6, r8, #4915200	; 0x4b0000
     92c:	2f2d2f31 	svccs	0x002d2f31
     930:	01040200 	mrseq	r0, R12_usr
     934:	4b2f4f49 	blmi	bd4660 <__bss_end__+0xbc9d28>
     938:	67836767 	strvs	r6, [r3, r7, ror #14]
     93c:	10022f4e 	andne	r2, r2, lr, asr #30
     940:	99010100 	stmdbls	r1, {r8}
     944:	02000000 	andeq	r0, r0, #0
     948:	00007700 	andeq	r7, r0, r0, lsl #14
     94c:	fb010200 	blx	41156 <__bss_end__+0x3681e>
     950:	01000d0e 	tsteq	r0, lr, lsl #26
     954:	00010101 	andeq	r0, r1, r1, lsl #2
     958:	00010000 	andeq	r0, r1, r0
     95c:	73630100 	cmnvc	r3, #0, 2
     960:	65303431 	ldrvs	r3, [r0, #-1073]!	; 0x431
     964:	6372732d 	cmnvs	r2, #-1275068416	; 0xb4000000
     968:	73552f00 	cmpvc	r5, #0, 30
     96c:	2f737265 	svccs	0x00737265
     970:	61697262 	cmnvs	r9, r2, ror #4
     974:	6e756a6e 	vsubvs.f32	s13, s10, s29
     978:	7365442f 	cmnvc	r5, #788529152	; 0x2f000000
     97c:	706f746b 	rsbvc	r7, pc, fp, ror #8
     980:	6863732f 	stmdavs	r3!, {r0, r1, r2, r3, r5, r8, r9, ip, sp, lr}^
     984:	2f6c6f6f 	svccs	0x006c6f6f
     988:	746e6957 	strbtvc	r6, [lr], #-2391	; 0x957
     98c:	39317265 	ldmdbcc	r1!, {r0, r2, r5, r6, r9, ip, sp, lr}
     990:	432f3032 	teqmi	pc, #50	; 0x32
     994:	30343153 	eorscc	r3, r4, r3, asr r1
     998:	73632f45 	cmnvc	r3, #276	; 0x114
     99c:	65303431 	ldrvs	r3, [r0, #-1073]!	; 0x431
     9a0:	7730322d 	ldrvc	r3, [r0, -sp, lsr #4]!
     9a4:	6c2f6e69 	stcvs	14, cr6, [pc], #-420	; 808 <_start-0x77f8>
     9a8:	69706269 	ldmdbvs	r0!, {r0, r3, r5, r6, r9, sp, lr}^
     9ac:	65720000 	ldrbvs	r0, [r2, #-0]!
     9b0:	746f6f62 	strbtvc	r6, [pc], #-3938	; 9b8 <_start-0x7648>
     9b4:	0100632e 	tsteq	r0, lr, lsr #6
     9b8:	70720000 	rsbsvc	r0, r2, r0
     9bc:	00682e69 	rsbeq	r2, r8, r9, ror #28
     9c0:	00000002 	andeq	r0, r0, r2
     9c4:	e4020500 	str	r0, [r2], #-1280	; 0x500
     9c8:	0300008d 	movweq	r0, #141	; 0x8d
     9cc:	3114010d 	tstcc	r4, sp, lsl #2
     9d0:	2f15852f 	svccs	0x0015852f
     9d4:	672f4d4b 	strvs	r4, [pc, -fp, asr #26]!
     9d8:	02675235 	rsbeq	r5, r7, #1342177283	; 0x50000003
     9dc:	01010010 	tsteq	r1, r0, lsl r0
     9e0:	000000a3 	andeq	r0, r0, r3, lsr #1
     9e4:	00760002 	rsbseq	r0, r6, r2
     9e8:	01020000 	mrseq	r0, (UNDEF: 2)
     9ec:	000d0efb 	strdeq	r0, [sp], -fp
     9f0:	01010101 	tsteq	r1, r1, lsl #2
     9f4:	01000000 	mrseq	r0, (UNDEF: 0)
     9f8:	63010000 	movwvs	r0, #4096	; 0x1000
     9fc:	30343173 	eorscc	r3, r4, r3, ror r1
     a00:	72732d65 	rsbsvc	r2, r3, #6464	; 0x1940
     a04:	552f0063 	strpl	r0, [pc, #-99]!	; 9a9 <_start-0x7657>
     a08:	73726573 	cmnvc	r2, #482344960	; 0x1cc00000
     a0c:	6972622f 	ldmdbvs	r2!, {r0, r1, r2, r3, r5, r9, sp, lr}^
     a10:	756a6e61 	strbvc	r6, [sl, #-3681]!	; 0xe61
     a14:	65442f6e 	strbvs	r2, [r4, #-3950]	; 0xf6e
     a18:	6f746b73 	svcvs	0x00746b73
     a1c:	63732f70 	cmnvs	r3, #112, 30	; 0x1c0
     a20:	6c6f6f68 	stclvs	15, cr6, [pc], #-416	; 888 <_start-0x7778>
     a24:	6e69572f 	cdpvs	7, 6, cr5, cr9, cr15, {1}
     a28:	31726574 	cmncc	r2, r4, ror r5
     a2c:	2f303239 	svccs	0x00303239
     a30:	34315343 	ldrtcc	r5, [r1], #-835	; 0x343
     a34:	632f4530 	teqvs	pc, #48, 10	; 0xc000000
     a38:	30343173 	eorscc	r3, r4, r3, ror r1
     a3c:	30322d65 	eorscc	r2, r2, r5, ror #26
     a40:	2f6e6977 	svccs	0x006e6977
     a44:	7062696c 	rsbvc	r6, r2, ip, ror #18
     a48:	74000069 	strvc	r0, [r0], #-105	; 0x69
     a4c:	72656d69 	rsbvc	r6, r5, #6720	; 0x1a40
     a50:	0100632e 	tsteq	r0, lr, lsr #6
     a54:	70720000 	rsbsvc	r0, r2, r0
     a58:	00682e69 	rsbeq	r2, r8, r9, ror #28
     a5c:	00000002 	andeq	r0, r0, r2
     a60:	58020500 	stmdapl	r2, {r8, sl}
     a64:	1600008e 	strne	r0, [r0], -lr, lsl #1
     a68:	002d2f13 	eoreq	r2, sp, r3, lsl pc
     a6c:	06010402 	streq	r0, [r1], -r2, lsl #8
     a70:	3168062e 	cmncc	r8, lr, lsr #12
     a74:	324d4b2f 	subcc	r4, sp, #48128	; 0xbc00
     a78:	4c4b3031 	mcrrmi	0, 3, r3, fp, cr1
     a7c:	2f2f6a2f 	svccs	0x002f6a2f
     a80:	08022f84 	stmdaeq	r2, {r2, r7, r8, r9, sl, fp, sp}
     a84:	7f010100 	svcvc	0x00010100
     a88:	02000001 	andeq	r0, r0, #1
     a8c:	0000ca00 	andeq	ip, r0, r0, lsl #20
     a90:	fb010200 	blx	4129a <__bss_end__+0x36962>
     a94:	01000d0e 	tsteq	r0, lr, lsl #26
     a98:	00010101 	andeq	r0, r1, r1, lsl #2
     a9c:	00010000 	andeq	r0, r1, r0
     aa0:	796d0100 	stmdbvc	sp!, {r8}^
     aa4:	6372732d 	cmnvs	r2, #-1275068416	; 0xb4000000
     aa8:	73552f00 	cmpvc	r5, #0, 30
     aac:	2f737265 	svccs	0x00737265
     ab0:	61697262 	cmnvs	r9, r2, ror #4
     ab4:	6e756a6e 	vsubvs.f32	s13, s10, s29
     ab8:	7365442f 	cmnvc	r5, #788529152	; 0x2f000000
     abc:	706f746b 	rsbvc	r7, pc, fp, ror #8
     ac0:	6863732f 	stmdavs	r3!, {r0, r1, r2, r3, r5, r8, r9, ip, sp, lr}^
     ac4:	2f6c6f6f 	svccs	0x006c6f6f
     ac8:	746e6957 	strbtvc	r6, [lr], #-2391	; 0x957
     acc:	39317265 	ldmdbcc	r1!, {r0, r2, r5, r6, r9, ip, sp, lr}
     ad0:	432f3032 	teqmi	pc, #50	; 0x32
     ad4:	30343153 	eorscc	r3, r4, r3, asr r1
     ad8:	73632f45 	cmnvc	r3, #276	; 0x114
     adc:	65303431 	ldrvs	r3, [r0, #-1073]!	; 0x431
     ae0:	7730322d 	ldrvc	r3, [r0, -sp, lsr #4]!
     ae4:	6c2f6e69 	stcvs	14, cr6, [pc], #-420	; 948 <_start-0x76b8>
     ae8:	69706269 	ldmdbvs	r0!, {r0, r3, r5, r6, r9, sp, lr}^
     aec:	3173632f 	cmncc	r3, pc, lsr #6
     af0:	2d653034 	stclcs	0, cr3, [r5, #-208]!	; 0xffffff30
     af4:	00637273 	rsbeq	r7, r3, r3, ror r2
     af8:	6573552f 	ldrbvs	r5, [r3, #-1327]!	; 0x52f
     afc:	622f7372 	eorvs	r7, pc, #-939524095	; 0xc8000001
     b00:	6e616972 	mcrvs	9, 3, r6, cr1, cr2, {3}
     b04:	2f6e756a 	svccs	0x006e756a
     b08:	6b736544 	blvs	1cda020 <__bss_end__+0x1ccf6e8>
     b0c:	2f706f74 	svccs	0x00706f74
     b10:	6f686373 	svcvs	0x00686373
     b14:	572f6c6f 	strpl	r6, [pc, -pc, ror #24]!
     b18:	65746e69 	ldrbvs	r6, [r4, #-3689]!	; 0xe69
     b1c:	32393172 	eorscc	r3, r9, #-2147483620	; 0x8000001c
     b20:	53432f30 	movtpl	r2, #16176	; 0x3f30
     b24:	45303431 	ldrmi	r3, [r0, #-1073]!	; 0x431
     b28:	3173632f 	cmncc	r3, pc, lsr #6
     b2c:	2d653034 	stclcs	0, cr3, [r5, #-208]!	; 0xffffff30
     b30:	69773032 	ldmdbvs	r7!, {r1, r4, r5, ip, sp}^
     b34:	696c2f6e 	stmdbvs	ip!, {r1, r2, r3, r5, r6, r8, r9, sl, fp, sp}^
     b38:	00697062 	rsbeq	r7, r9, r2, rrx
     b3c:	69706700 	ldmdbvs	r0!, {r8, r9, sl, sp, lr}^
     b40:	00632e6f 	rsbeq	r2, r3, pc, ror #28
     b44:	67000001 	strvs	r0, [r0, -r1]
     b48:	2e6f6970 	mcrcs	9, 3, r6, cr15, cr0, {3}
     b4c:	00020068 	andeq	r0, r2, r8, rrx
     b50:	69707200 	ldmdbvs	r0!, {r9, ip, sp, lr}^
     b54:	0300682e 	movweq	r6, #2094	; 0x82e
     b58:	00000000 	andeq	r0, r0, r0
     b5c:	8ee00205 	cdphi	2, 14, cr0, cr0, cr5, {0}
     b60:	3e030000 	cdpcc	0, 0, cr0, cr3, cr0, {0}
     b64:	69504e01 	ldmdbvs	r0, {r0, r9, sl, fp, lr}^
     b68:	67672108 	strbvs	r2, [r7, -r8, lsl #2]!
     b6c:	67676767 	strbvs	r6, [r7, -r7, ror #14]!
     b70:	22084b32 	andcs	r4, r8, #51200	; 0xc800
     b74:	135131dc 	cmpne	r1, #220, 2	; 0x37
     b78:	be30504e 	cdplt	0, 3, cr5, cr0, cr14, {2}
     b7c:	4d135031 	ldcmi	0, cr5, [r3, #-196]	; 0xffffff3c
     b80:	4cc0304f 	stclmi	0, cr3, [r0], {79}	; 0x4f
     b84:	21086950 	tstcs	r8, r0, asr r9
     b88:	67676767 	strbvs	r6, [r7, -r7, ror #14]!
     b8c:	4b326767 	blmi	c9a930 <__bss_end__+0xc8fff8>
     b90:	4ca42108 	stfmis	f2, [r4], #32
     b94:	69842f50 	stmibvs	r4, {r4, r6, r8, r9, sl, fp, sp}
     b98:	03827503 	orreq	r7, r2, #12582912	; 0xc00000
     b9c:	304d2e0c 	subcc	r2, sp, ip, lsl #28
     ba0:	4d4c4b4e 	vstrmi	d20, [ip, #-312]	; 0xfffffec8
     ba4:	08696b6a 	stmdaeq	r9!, {r1, r3, r5, r6, r8, r9, fp, sp, lr}^
     ba8:	67676721 	strbvs	r6, [r7, -r1, lsr #14]!
     bac:	32676767 	rsbcc	r6, r7, #27000832	; 0x19c0000
     bb0:	c022084b 	eorgt	r0, r2, fp, asr #16
     bb4:	4e135130 	mrcmi	1, 0, r5, cr3, cr0, {1}
     bb8:	18033050 	stmdane	r3, {r4, r6, ip, sp}
     bbc:	4c9f31ba 	ldfmis	f3, [pc], {186}	; 0xba
     bc0:	4e4d522f 	cdpmi	2, 4, cr5, cr13, cr15, {1}
     bc4:	4b674b2f 	blmi	19d3888 <__bss_end__+0x19c8f50>
     bc8:	4c676768 	stclmi	7, cr6, [r7], #-416	; 0xfffffe60
     bcc:	4b2f672f 	blmi	bda890 <__bss_end__+0xbcff58>
     bd0:	2f4e4c6e 	svccs	0x004e4c6e
     bd4:	684b674b 	stmdavs	fp, {r0, r1, r3, r6, r8, r9, sl, sp, lr}^
     bd8:	2f4c6767 	svccs	0x004c6767
     bdc:	6d4b2f67 	stclvs	15, cr2, [fp, #-412]	; 0xfffffe64
     be0:	4b2f4e4b 	blmi	bd4514 <__bss_end__+0xbc9bdc>
     be4:	04020067 	streq	r0, [r2], #-103	; 0x67
     be8:	06660601 	strbteq	r0, [r6], -r1, lsl #12
     bec:	002f9f68 	eoreq	r9, pc, r8, ror #30
     bf0:	06010402 	streq	r0, [r1], -r2, lsl #8
     bf4:	2f68064a 	svccs	0x0068064a
     bf8:	034a7303 	movteq	r7, #41731	; 0xa303
     bfc:	4c4d2e0e 	mcrrmi	14, 0, r2, sp, cr14
     c00:	bc4b2f4e 	mcrrlt	15, 4, r2, fp, cr14
     c04:	000602bc 			; <UNDEFINED> instruction: 0x000602bc
     c08:	03490101 	movteq	r0, #37121	; 0x9101
     c0c:	00020000 	andeq	r0, r2, r0
     c10:	000001bd 			; <UNDEFINED> instruction: 0x000001bd
     c14:	0efb0102 	cdpeq	1, 15, cr0, cr11, cr2, {0}
     c18:	0101000d 	tsteq	r1, sp
     c1c:	00000101 	andeq	r0, r0, r1, lsl #2
     c20:	00000100 	andeq	r0, r0, r0, lsl #2
     c24:	2d796d01 	ldclcs	13, cr6, [r9, #-4]!
     c28:	00637273 	rsbeq	r7, r3, r3, ror r2
     c2c:	6573552f 	ldrbvs	r5, [r3, #-1327]!	; 0x52f
     c30:	622f7372 	eorvs	r7, pc, #-939524095	; 0xc8000001
     c34:	6e616972 	mcrvs	9, 3, r6, cr1, cr2, {3}
     c38:	2f6e756a 	svccs	0x006e756a
     c3c:	6b736544 	blvs	1cda154 <__bss_end__+0x1ccf81c>
     c40:	2f706f74 	svccs	0x00706f74
     c44:	6f686373 	svcvs	0x00686373
     c48:	572f6c6f 	strpl	r6, [pc, -pc, ror #24]!
     c4c:	65746e69 	ldrbvs	r6, [r4, #-3689]!	; 0xe69
     c50:	32393172 	eorscc	r3, r9, #-2147483620	; 0x8000001c
     c54:	53432f30 	movtpl	r2, #16176	; 0x3f30
     c58:	45303431 	ldrmi	r3, [r0, #-1073]!	; 0x431
     c5c:	3173632f 	cmncc	r3, pc, lsr #6
     c60:	2d653034 	stclcs	0, cr3, [r5, #-208]!	; 0xffffff30
     c64:	69773032 	ldmdbvs	r7!, {r1, r4, r5, ip, sp}^
     c68:	696c2f6e 	stmdbvs	ip!, {r1, r2, r3, r5, r6, r8, r9, sl, fp, sp}^
     c6c:	2f697062 	svccs	0x00697062
     c70:	34317363 	ldrtcc	r7, [r1], #-867	; 0x363
     c74:	732d6530 	teqvc	sp, #48, 10	; 0xc000000
     c78:	2f006372 	svccs	0x00006372
     c7c:	2f727375 	svccs	0x00727375
     c80:	61636f6c 	cmnvs	r3, ip, ror #30
     c84:	65432f6c 	strbvs	r2, [r3, #-3948]	; 0xf6c
     c88:	72616c6c 	rsbvc	r6, r1, #108, 24	; 0x6c00
     c8c:	6d72612f 	ldfvse	f6, [r2, #-188]!	; 0xffffff44
     c90:	6e6f6e2d 	cdpvs	14, 6, cr6, cr15, cr13, {1}
     c94:	61652d65 	cmnvs	r5, r5, ror #26
     c98:	342f6962 	strtcc	r6, [pc], #-2402	; ca0 <_start-0x7360>
     c9c:	332e382e 	teqcc	lr, #3014656	; 0x2e0000
     ca0:	3173632d 	cmncc	r3, sp, lsr #6
     ca4:	2f653037 	svccs	0x00653037
     ca8:	2f62696c 	svccs	0x0062696c
     cac:	2f636367 	svccs	0x00636367
     cb0:	2d6d7261 	sfmcs	f7, 2, [sp, #-388]!	; 0xfffffe7c
     cb4:	656e6f6e 	strbvs	r6, [lr, #-3950]!	; 0xf6e
     cb8:	6261652d 	rsbvs	r6, r1, #188743680	; 0xb400000
     cbc:	2e342f69 	cdpcs	15, 3, cr2, cr4, cr9, {3}
     cc0:	2f332e38 	svccs	0x00332e38
     cc4:	6c636e69 	stclvs	14, cr6, [r3], #-420	; 0xfffffe5c
     cc8:	00656475 	rsbeq	r6, r5, r5, ror r4
     ccc:	6573552f 	ldrbvs	r5, [r3, #-1327]!	; 0x52f
     cd0:	622f7372 	eorvs	r7, pc, #-939524095	; 0xc8000001
     cd4:	6e616972 	mcrvs	9, 3, r6, cr1, cr2, {3}
     cd8:	2f6e756a 	svccs	0x006e756a
     cdc:	6b736544 	blvs	1cda1f4 <__bss_end__+0x1ccf8bc>
     ce0:	2f706f74 	svccs	0x00706f74
     ce4:	6f686373 	svcvs	0x00686373
     ce8:	572f6c6f 	strpl	r6, [pc, -pc, ror #24]!
     cec:	65746e69 	ldrbvs	r6, [r4, #-3689]!	; 0xe69
     cf0:	32393172 	eorscc	r3, r9, #-2147483620	; 0x8000001c
     cf4:	53432f30 	movtpl	r2, #16176	; 0x3f30
     cf8:	45303431 	ldrmi	r3, [r0, #-1073]!	; 0x431
     cfc:	3173632f 	cmncc	r3, pc, lsr #6
     d00:	2d653034 	stclcs	0, cr3, [r5, #-208]!	; 0xffffff30
     d04:	69773032 	ldmdbvs	r7!, {r1, r4, r5, ip, sp}^
     d08:	696c2f6e 	stmdbvs	ip!, {r1, r2, r3, r5, r6, r8, r9, sl, fp, sp}^
     d0c:	00697062 	rsbeq	r7, r9, r2, rrx
     d10:	6573552f 	ldrbvs	r5, [r3, #-1327]!	; 0x52f
     d14:	622f7372 	eorvs	r7, pc, #-939524095	; 0xc8000001
     d18:	6e616972 	mcrvs	9, 3, r6, cr1, cr2, {3}
     d1c:	2f6e756a 	svccs	0x006e756a
     d20:	6b736544 	blvs	1cda238 <__bss_end__+0x1ccf900>
     d24:	2f706f74 	svccs	0x00706f74
     d28:	6f686373 	svcvs	0x00686373
     d2c:	572f6c6f 	strpl	r6, [pc, -pc, ror #24]!
     d30:	65746e69 	ldrbvs	r6, [r4, #-3689]!	; 0xe69
     d34:	32393172 	eorscc	r3, r9, #-2147483620	; 0x8000001c
     d38:	53432f30 	movtpl	r2, #16176	; 0x3f30
     d3c:	45303431 	ldrmi	r3, [r0, #-1073]!	; 0x431
     d40:	3173632f 	cmncc	r3, pc, lsr #6
     d44:	2d653034 	stclcs	0, cr3, [r5, #-208]!	; 0xffffff30
     d48:	69773032 	ldmdbvs	r7!, {r1, r4, r5, ip, sp}^
     d4c:	696c2f6e 	stmdbvs	ip!, {r1, r2, r3, r5, r6, r8, r9, sl, fp, sp}^
     d50:	2f697062 	svccs	0x00697062
     d54:	6362696c 	cmnvs	r2, #108, 18	; 0x1b0000
     d58:	77730000 	ldrbvc	r0, [r3, -r0]!
     d5c:	7261752d 	rsbvc	r7, r1, #188743680	; 0xb400000
     d60:	00632e74 	rsbeq	r2, r3, r4, ror lr
     d64:	63000001 	movwvs	r0, #1
     d68:	656c6379 	strbvs	r6, [ip, #-889]!	; 0x379
     d6c:	6974752d 	ldmdbvs	r4!, {r0, r2, r3, r5, r8, sl, ip, sp, lr}^
     d70:	00682e6c 	rsbeq	r2, r8, ip, ror #28
     d74:	73000002 	movwvc	r0, #2
     d78:	6e696474 	mcrvs	4, 3, r6, cr9, cr4, {3}
     d7c:	63672d74 	cmnvs	r7, #116, 26	; 0x1d00
     d80:	00682e63 	rsbeq	r2, r8, r3, ror #28
     d84:	73000003 	movwvc	r0, #3
     d88:	61752d77 	cmnvs	r5, r7, ror sp
     d8c:	682e7472 	stmdavs	lr!, {r1, r4, r5, r6, sl, ip, sp, lr}
     d90:	00000200 	andeq	r0, r0, r0, lsl #4
     d94:	61647473 	smcvs	18243	; 0x4743
     d98:	682e6772 	stmdavs	lr!, {r1, r4, r5, r6, r8, r9, sl, sp, lr}
     d9c:	00000300 	andeq	r0, r0, r0, lsl #6
     da0:	6f697067 	svcvs	0x00697067
     da4:	0200682e 	andeq	r6, r0, #3014656	; 0x2e0000
     da8:	70720000 	rsbsvc	r0, r2, r0
     dac:	00682e69 	rsbeq	r2, r8, r9, ror #28
     db0:	76000004 	strvc	r0, [r0], -r4
     db4:	72702d61 	rsbsvc	r2, r0, #6208	; 0x1840
     db8:	6b746e69 	blvs	1d1c764 <__bss_end__+0x1d11e2c>
     dbc:	0500682e 	streq	r6, [r0, #-2094]	; 0x82e
     dc0:	623c0000 	eorsvs	r0, ip, #0
     dc4:	746c6975 	strbtvc	r6, [ip], #-2421	; 0x975
     dc8:	3e6e692d 	cdpcc	9, 6, cr6, cr14, cr13, {1}
     dcc:	00000000 	andeq	r0, r0, r0
     dd0:	02050000 	andeq	r0, r5, #0
     dd4:	00009480 	andeq	r9, r0, r0, lsl #9
     dd8:	302f4c1a 	eorcc	r4, pc, sl, lsl ip	; <UNPREDICTABLE>
     ddc:	0b030204 	bleq	c15f4 <__bss_end__+0xb6cbc>
     de0:	6673032e 	ldrbtvs	r0, [r3], -lr, lsr #6
     de4:	04880104 	streq	r0, [r8], #260	; 0x104
     de8:	73033502 	movwvc	r3, #13570	; 0x3502
     dec:	8a010466 	bhi	41f8c <__bss_end__+0x37654>
     df0:	03330204 	teqeq	r3, #4, 4	; 0x40000000
     df4:	01046673 	tsteq	r4, r3, ror r6
     df8:	04820a03 	streq	r0, [r2], #2563	; 0xa03
     dfc:	73033102 	movwvc	r3, #12546	; 0x3102
     e00:	03010466 	movweq	r0, #5222	; 0x1466
     e04:	0204820c 	andeq	r8, r4, #12, 4	; 0xc0000000
     e08:	6673032f 	ldrbtvs	r0, [r3], -pc, lsr #6
     e0c:	0e030104 	adfeqs	f0, f3, f4
     e10:	2d020482 	cfstrscs	mvf0, [r2, #-520]	; 0xfffffdf8
     e14:	04667303 	strbteq	r7, [r6], #-771	; 0x303
     e18:	82100301 	andshi	r0, r0, #67108864	; 0x4000000
     e1c:	032b0204 	teqeq	fp, #4, 4	; 0x40000000
     e20:	01046673 	tsteq	r4, r3, ror r6
     e24:	04821203 	streq	r1, [r2], #515	; 0x203
     e28:	73032902 	movwvc	r2, #14594	; 0x3902
     e2c:	03010466 	movweq	r0, #5222	; 0x1466
     e30:	02048214 	andeq	r8, r4, #20, 4	; 0x40000001
     e34:	032e7903 	teqeq	lr, #49152	; 0xc000
     e38:	01046673 	tsteq	r4, r3, ror r6
     e3c:	04821603 	streq	r1, [r2], #1539	; 0x603
     e40:	2e770302 	cdpcs	3, 7, cr0, cr7, cr2, {0}
     e44:	04667303 	strbteq	r7, [r6], #-771	; 0x303
     e48:	82180301 	andshi	r0, r8, #67108864	; 0x4000000
     e4c:	4b2e1003 	blmi	b84e60 <__bss_end__+0xb7a528>
     e50:	2e70034d 	cdpcs	3, 7, cr0, cr0, cr13, {2}
     e54:	4883844c 	stmmi	r3, {r2, r3, r6, sl, pc}
     e58:	4e2e0d03 	cdpmi	13, 2, cr0, cr14, cr3, {0}
     e5c:	02043331 	andeq	r3, r4, #-1006632960	; 0xc4000000
     e60:	042e4803 	strteq	r4, [lr], #-2051	; 0x803
     e64:	823a0301 	eorshi	r0, sl, #67108864	; 0x4000000
     e68:	0302042f 	movweq	r0, #9263	; 0x242f
     e6c:	01046645 	tsteq	r4, r5, asr #12
     e70:	2f823d03 	svccs	0x00823d03
     e74:	42030204 	andmi	r0, r3, #4, 4	; 0x40000000
     e78:	03010482 	movweq	r0, #5250	; 0x1482
     e7c:	2f8200c0 	svccs	0x008200c0
     e80:	bf030204 	svclt	0x00030204
     e84:	0104827f 	tsteq	r4, pc, ror r2
     e88:	8200c303 	andhi	ip, r0, #201326592	; 0xc000000
     e8c:	0302042f 	movweq	r0, #9263	; 0x242f
     e90:	04827fbc 	streq	r7, [r2], #4028	; 0xfbc
     e94:	00c60301 	sbceq	r0, r6, r1, lsl #6
     e98:	02042f82 	andeq	r2, r4, #520	; 0x208
     e9c:	827fb903 	rsbshi	fp, pc, #49152	; 0xc000
     ea0:	c9030104 	stmdbgt	r3, {r2, r8}
     ea4:	042f8200 	strteq	r8, [pc], #-512	; eac <_start-0x7154>
     ea8:	7fb60302 	svcvc	0x00b60302
     eac:	03010482 	movweq	r0, #5250	; 0x1482
     eb0:	2f8200cc 	svccs	0x008200cc
     eb4:	b3030204 	movwlt	r0, #12804	; 0x3204
     eb8:	0104827f 	tsteq	r4, pc, ror r2
     ebc:	8200d003 	andhi	sp, r0, #3
     ec0:	4c824c03 	stcmi	12, cr4, [r2], {3}
     ec4:	03488384 	movteq	r8, #33668	; 0x8384
     ec8:	034e2e36 	movteq	r2, #60982	; 0xee36
     ecc:	29034a54 	stmdbcs	r3, {r2, r4, r6, r9, fp, lr}
     ed0:	bb34324a 	bllt	d0d800 <__bss_end__+0xd02ec8>
     ed4:	01040200 	mrseq	r0, R12_usr
     ed8:	08064a06 	stmdaeq	r6, {r1, r2, r9, fp, lr}
     edc:	bb4b4e21 	bllt	12d4768 <__bss_end__+0x12c9e30>
     ee0:	0402002c 	streq	r0, [r2], #-44	; 0x2c
     ee4:	062e0601 	strteq	r0, [lr], -r1, lsl #12
     ee8:	a0dc4c6d 	sbcsge	r4, ip, sp, ror #24
     eec:	01040200 	mrseq	r0, R12_usr
     ef0:	08064a06 	stmdaeq	r6, {r1, r2, r9, fp, lr}
     ef4:	02004d21 	andeq	r4, r0, #2112	; 0x840
     ef8:	004b0204 	subeq	r0, fp, r4, lsl #4
     efc:	81020402 	tsthi	r2, r2, lsl #8
     f00:	01040200 	mrseq	r0, R12_usr
     f04:	4d062e06 	stcmi	14, cr2, [r6, #-24]	; 0xffffffe8
     f08:	4bd8dd4c 	blmi	ff638440 <__bss_end__+0xff62db08>
     f0c:	2f6a4b4b 	svccs	0x006a4b4b
     f10:	01040200 	mrseq	r0, R12_usr
     f14:	00828206 	addeq	r8, r2, r6, lsl #4
     f18:	9e040402 	cdpls	4, 0, cr0, cr4, cr2, {0}
     f1c:	01040200 	mrseq	r0, R12_usr
     f20:	2308064a 	movwcs	r0, #34378	; 0x864a
     f24:	4b2ff588 	blmi	bfe54c <__bss_end__+0xbf3c14>
     f28:	6740084b 	strbvs	r0, [r0, -fp, asr #16]
     f2c:	02040200 	andeq	r0, r4, #0, 4
     f30:	0402002f 	streq	r0, [r2], #-47	; 0x2f
     f34:	02004902 	andeq	r4, r0, #32768	; 0x8000
     f38:	2e060104 	adfcss	f0, f6, f4
     f3c:	86346806 	ldrthi	r6, [r4], -r6, lsl #16
     f40:	0200a04b 	andeq	sl, r0, #75	; 0x4b
     f44:	66060104 	strvs	r0, [r6], -r4, lsl #2
     f48:	68210806 	stmdavs	r1!, {r1, r2, fp}
     f4c:	674b3e08 	strbvs	r3, [fp, -r8, lsl #28]
     f50:	0a02d84b 	beq	b7084 <__bss_end__+0xac74c>
     f54:	01010100 	mrseq	r0, (UNDEF: 17)
     f58:	02000001 	andeq	r0, r0, #1
     f5c:	0000ca00 	andeq	ip, r0, r0, lsl #20
     f60:	fb010200 	blx	4176a <__bss_end__+0x36e32>
     f64:	01000d0e 	tsteq	r0, lr, lsl #26
     f68:	00010101 	andeq	r0, r1, r1, lsl #2
     f6c:	00010000 	andeq	r0, r1, r0
     f70:	796d0100 	stmdbvc	sp!, {r8}^
     f74:	6372732d 	cmnvs	r2, #-1275068416	; 0xb4000000
     f78:	73552f00 	cmpvc	r5, #0, 30
     f7c:	2f737265 	svccs	0x00737265
     f80:	61697262 	cmnvs	r9, r2, ror #4
     f84:	6e756a6e 	vsubvs.f32	s13, s10, s29
     f88:	7365442f 	cmnvc	r5, #788529152	; 0x2f000000
     f8c:	706f746b 	rsbvc	r7, pc, fp, ror #8
     f90:	6863732f 	stmdavs	r3!, {r0, r1, r2, r3, r5, r8, r9, ip, sp, lr}^
     f94:	2f6c6f6f 	svccs	0x006c6f6f
     f98:	746e6957 	strbtvc	r6, [lr], #-2391	; 0x957
     f9c:	39317265 	ldmdbcc	r1!, {r0, r2, r5, r6, r9, ip, sp, lr}
     fa0:	432f3032 	teqmi	pc, #50	; 0x32
     fa4:	30343153 	eorscc	r3, r4, r3, asr r1
     fa8:	73632f45 	cmnvc	r3, #276	; 0x114
     fac:	65303431 	ldrvs	r3, [r0, #-1073]!	; 0x431
     fb0:	7730322d 	ldrvc	r3, [r0, -sp, lsr #4]!
     fb4:	6c2f6e69 	stcvs	14, cr6, [pc], #-420	; e18 <_start-0x71e8>
     fb8:	69706269 	ldmdbvs	r0!, {r0, r3, r5, r6, r9, sp, lr}^
     fbc:	3173632f 	cmncc	r3, pc, lsr #6
     fc0:	2d653034 	stclcs	0, cr3, [r5, #-208]!	; 0xffffff30
     fc4:	00637273 	rsbeq	r7, r3, r3, ror r2
     fc8:	6573552f 	ldrbvs	r5, [r3, #-1327]!	; 0x52f
     fcc:	622f7372 	eorvs	r7, pc, #-939524095	; 0xc8000001
     fd0:	6e616972 	mcrvs	9, 3, r6, cr1, cr2, {3}
     fd4:	2f6e756a 	svccs	0x006e756a
     fd8:	6b736544 	blvs	1cda4f0 <__bss_end__+0x1ccfbb8>
     fdc:	2f706f74 	svccs	0x00706f74
     fe0:	6f686373 	svcvs	0x00686373
     fe4:	572f6c6f 	strpl	r6, [pc, -pc, ror #24]!
     fe8:	65746e69 	ldrbvs	r6, [r4, #-3689]!	; 0xe69
     fec:	32393172 	eorscc	r3, r9, #-2147483620	; 0x8000001c
     ff0:	53432f30 	movtpl	r2, #16176	; 0x3f30
     ff4:	45303431 	ldrmi	r3, [r0, #-1073]!	; 0x431
     ff8:	3173632f 	cmncc	r3, pc, lsr #6
     ffc:	2d653034 	stclcs	0, cr3, [r5, #-208]!	; 0xffffff30
    1000:	69773032 	ldmdbvs	r7!, {r1, r4, r5, ip, sp}^
    1004:	696c2f6e 	stmdbvs	ip!, {r1, r2, r3, r5, r6, r8, r9, sl, fp, sp}^
    1008:	00697062 	rsbeq	r7, r9, r2, rrx
    100c:	72617500 	rsbvc	r7, r1, #0, 10
    1010:	00632e74 	rsbeq	r2, r3, r4, ror lr
    1014:	67000001 	strvs	r0, [r0, -r1]
    1018:	2e6f6970 	mcrcs	9, 3, r6, cr15, cr0, {3}
    101c:	00020068 	andeq	r0, r2, r8, rrx
    1020:	69707200 	ldmdbvs	r0!, {r9, ip, sp, lr}^
    1024:	0300682e 	movweq	r6, #2094	; 0x82e
    1028:	00000000 	andeq	r0, r0, r0
    102c:	9ae80205 	bls	ffa01848 <__bss_end__+0xff9f6f10>
    1030:	36030000 	strcc	r0, [r3], -r0
    1034:	67333001 	ldrvs	r3, [r3, -r1]!
    1038:	30d8306d 	sbcscc	r3, r8, sp, rrx
    103c:	67676767 	strbvs	r6, [r7, -r7, ror #14]!
    1040:	2f866867 	svccs	0x00866867
    1044:	67306a67 	ldrvs	r6, [r0, -r7, ror #20]!
    1048:	672f6967 	strvs	r6, [pc, -r7, ror #18]!
    104c:	c1674c6a 	cmngt	r7, sl, ror #24
    1050:	2f302f2f 	svccs	0x00302f2f
    1054:	02304968 	eorseq	r4, r0, #104, 18	; 0x1a0000
    1058:	01010002 	tsteq	r1, r2
    105c:	000000c9 	andeq	r0, r0, r9, asr #1
    1060:	00970002 	addseq	r0, r7, r2
    1064:	01020000 	mrseq	r0, (UNDEF: 2)
    1068:	000d0efb 	strdeq	r0, [sp], -fp
    106c:	01010101 	tsteq	r1, r1, lsl #2
    1070:	01000000 	mrseq	r0, (UNDEF: 0)
    1074:	63010000 	movwvs	r0, #4096	; 0x1000
    1078:	30343173 	eorscc	r3, r4, r3, ror r1
    107c:	6e692d65 	cdpvs	13, 6, cr2, cr9, cr5, {3}
    1080:	72726574 	rsbsvc	r6, r2, #116, 10	; 0x1d000000
    1084:	00747075 	rsbseq	r7, r4, r5, ror r0
    1088:	6573552f 	ldrbvs	r5, [r3, #-1327]!	; 0x52f
    108c:	622f7372 	eorvs	r7, pc, #-939524095	; 0xc8000001
    1090:	6e616972 	mcrvs	9, 3, r6, cr1, cr2, {3}
    1094:	2f6e756a 	svccs	0x006e756a
    1098:	6b736544 	blvs	1cda5b0 <__bss_end__+0x1ccfc78>
    109c:	2f706f74 	svccs	0x00706f74
    10a0:	6f686373 	svcvs	0x00686373
    10a4:	572f6c6f 	strpl	r6, [pc, -pc, ror #24]!
    10a8:	65746e69 	ldrbvs	r6, [r4, #-3689]!	; 0xe69
    10ac:	32393172 	eorscc	r3, r9, #-2147483620	; 0x8000001c
    10b0:	53432f30 	movtpl	r2, #16176	; 0x3f30
    10b4:	45303431 	ldrmi	r3, [r0, #-1073]!	; 0x431
    10b8:	3173632f 	cmncc	r3, pc, lsr #6
    10bc:	2d653034 	stclcs	0, cr3, [r5, #-208]!	; 0xffffff30
    10c0:	69773032 	ldmdbvs	r7!, {r1, r4, r5, ip, sp}^
    10c4:	696c2f6e 	stmdbvs	ip!, {r1, r2, r3, r5, r6, r8, r9, sl, fp, sp}^
    10c8:	00697062 	rsbeq	r7, r9, r2, rrx
    10cc:	746e6900 	strbtvc	r6, [lr], #-2304	; 0x900
    10d0:	75727265 	ldrbvc	r7, [r2, #-613]!	; 0x265
    10d4:	2d737470 	cfldrdcs	mvd7, [r3, #-448]!	; 0xfffffe40
    10d8:	00632e63 	rsbeq	r2, r3, r3, ror #28
    10dc:	72000001 	andvc	r0, r0, #1
    10e0:	682e6970 	stmdavs	lr!, {r4, r5, r6, r8, fp, sp, lr}
    10e4:	00000200 	andeq	r0, r0, r0, lsl #4
    10e8:	2d697072 	stclcs	0, cr7, [r9, #-456]!	; 0xfffffe38
    10ec:	65746e69 	ldrbvs	r6, [r4, #-3689]!	; 0xe69
    10f0:	70757272 	rsbsvc	r7, r5, r2, ror r2
    10f4:	682e7374 	stmdavs	lr!, {r2, r4, r5, r6, r8, r9, ip, sp, lr}
    10f8:	00000100 	andeq	r0, r0, r0, lsl #2
    10fc:	02050000 	andeq	r0, r5, #0
    1100:	00009c3c 	andeq	r9, r0, ip, lsr ip
    1104:	31011a03 	tstcc	r1, r3, lsl #20
    1108:	09036767 	stmdbeq	r3, {r0, r1, r2, r5, r6, r8, r9, sl, sp, lr}
    110c:	2d2f832e 	stccs	3, cr8, [pc, #-184]!	; 105c <_start-0x6fa4>
    1110:	02040200 	andeq	r0, r4, #0, 4
    1114:	0402002f 	streq	r0, [r2], #-47	; 0x2f
    1118:	02006502 	andeq	r6, r0, #8388608	; 0x800000
    111c:	2e060104 	adfcss	f0, f6, f4
    1120:	67a04c06 	strvs	r4, [r0, r6, lsl #24]!
    1124:	01001c02 	tsteq	r0, r2, lsl #24
    1128:	00012801 	andeq	r2, r1, r1, lsl #16
    112c:	0d000200 	sfmeq	f0, 4, [r0, #-0]
    1130:	02000001 	andeq	r0, r0, #1
    1134:	0d0efb01 	vstreq	d15, [lr, #-4]
    1138:	01010100 	mrseq	r0, (UNDEF: 17)
    113c:	00000001 	andeq	r0, r0, r1
    1140:	01000001 	tsteq	r0, r1
    1144:	34317363 	ldrtcc	r7, [r1], #-867	; 0x363
    1148:	732d6530 	teqvc	sp, #48, 10	; 0xc000000
    114c:	2f006372 	svccs	0x00006372
    1150:	2f727375 	svccs	0x00727375
    1154:	61636f6c 	cmnvs	r3, ip, ror #30
    1158:	65432f6c 	strbvs	r2, [r3, #-3948]	; 0xf6c
    115c:	72616c6c 	rsbvc	r6, r1, #108, 24	; 0x6c00
    1160:	6d72612f 	ldfvse	f6, [r2, #-188]!	; 0xffffff44
    1164:	6e6f6e2d 	cdpvs	14, 6, cr6, cr15, cr13, {1}
    1168:	61652d65 	cmnvs	r5, r5, ror #26
    116c:	342f6962 	strtcc	r6, [pc], #-2402	; 1174 <_start-0x6e8c>
    1170:	332e382e 	teqcc	lr, #3014656	; 0x2e0000
    1174:	3173632d 	cmncc	r3, sp, lsr #6
    1178:	2f653037 	svccs	0x00653037
    117c:	2f62696c 	svccs	0x0062696c
    1180:	2f636367 	svccs	0x00636367
    1184:	2d6d7261 	sfmcs	f7, 2, [sp, #-388]!	; 0xfffffe7c
    1188:	656e6f6e 	strbvs	r6, [lr, #-3950]!	; 0xf6e
    118c:	6261652d 	rsbvs	r6, r1, #188743680	; 0xb400000
    1190:	2e342f69 	cdpcs	15, 3, cr2, cr4, cr9, {3}
    1194:	2f332e38 	svccs	0x00332e38
    1198:	6c636e69 	stclvs	14, cr6, [r3], #-420	; 0xfffffe5c
    119c:	00656475 	rsbeq	r6, r5, r5, ror r4
    11a0:	7273752f 	rsbsvc	r7, r3, #197132288	; 0xbc00000
    11a4:	636f6c2f 	cmnvs	pc, #12032	; 0x2f00
    11a8:	432f6c61 	teqmi	pc, #24832	; 0x6100
    11ac:	616c6c65 	cmnvs	ip, r5, ror #24
    11b0:	72612f72 	rsbvc	r2, r1, #456	; 0x1c8
    11b4:	6f6e2d6d 	svcvs	0x006e2d6d
    11b8:	652d656e 	strvs	r6, [sp, #-1390]!	; 0x56e
    11bc:	2f696261 	svccs	0x00696261
    11c0:	2e382e34 	mrccs	14, 1, r2, cr8, cr4, {1}
    11c4:	73632d33 	cmnvc	r3, #3264	; 0xcc0
    11c8:	65303731 	ldrvs	r3, [r0, #-1841]!	; 0x731
    11cc:	6d72612f 	ldfvse	f6, [r2, #-188]!	; 0xffffff44
    11d0:	6e6f6e2d 	cdpvs	14, 6, cr6, cr15, cr13, {1}
    11d4:	61652d65 	cmnvs	r5, r5, ror #26
    11d8:	692f6962 	stmdbvs	pc!, {r1, r5, r6, r8, fp, sp, lr}	; <UNPREDICTABLE>
    11dc:	756c636e 	strbvc	r6, [ip, #-878]!	; 0x36e
    11e0:	00006564 	andeq	r6, r0, r4, ror #10
    11e4:	746e6f63 	strbtvc	r6, [lr], #-3939	; 0xf63
    11e8:	2d6c6f72 	stclcs	15, cr6, [ip, #-456]!	; 0xfffffe38
    11ec:	636f6c62 	cmnvs	pc, #25088	; 0x6200
    11f0:	00632e6b 	rsbeq	r2, r3, fp, ror #28
    11f4:	73000001 	movwvc	r0, #1
    11f8:	65646474 	strbvs	r6, [r4, #-1140]!	; 0x474
    11fc:	00682e66 	rsbeq	r2, r8, r6, ror #28
    1200:	73000002 	movwvc	r0, #2
    1204:	6e696474 	mcrvs	4, 3, r6, cr9, cr4, {3}
    1208:	63672d74 	cmnvs	r7, #116, 26	; 0x1d00
    120c:	00682e63 	rsbeq	r2, r8, r3, ror #28
    1210:	73000002 	movwvc	r0, #2
    1214:	61752d77 	cmnvs	r5, r7, ror sp
    1218:	682e7472 	stmdavs	lr!, {r1, r4, r5, r6, sl, ip, sp, lr}
    121c:	00000100 	andeq	r0, r0, r0, lsl #2
    1220:	746e6f63 	strbtvc	r6, [lr], #-3939	; 0xf63
    1224:	2d6c6f72 	stclcs	15, cr6, [ip, #-456]!	; 0xfffffe38
    1228:	636f6c62 	cmnvs	pc, #25088	; 0x6200
    122c:	00682e6b 	rsbeq	r2, r8, fp, ror #28
    1230:	73000001 	movwvc	r0, #1
    1234:	6e697274 	mcrvs	2, 3, r7, cr9, cr4, {3}
    1238:	00682e67 	rsbeq	r2, r8, r7, ror #28
    123c:	00000003 	andeq	r0, r0, r3
    1240:	38020500 	stmdacc	r2, {r8, sl}
    1244:	1600009e 			; <UNDEFINED> instruction: 0x1600009e
    1248:	4c688330 	stclmi	3, cr8, [r8], #-192	; 0xffffff40
    124c:	2f4b9f14 	svccs	0x004b9f14
    1250:	01000402 	tsteq	r0, r2, lsl #8
    1254:	0000a501 	andeq	sl, r0, r1, lsl #10
    1258:	91000200 	mrsls	r0, R8_usr
    125c:	02000000 	andeq	r0, r0, #0
    1260:	0d0efb01 	vstreq	d15, [lr, #-4]
    1264:	01010100 	mrseq	r0, (UNDEF: 17)
    1268:	00000001 	andeq	r0, r0, r1
    126c:	01000001 	tsteq	r0, r1
    1270:	34317363 	ldrtcc	r7, [r1], #-867	; 0x363
    1274:	692d6530 	pushvs	{r4, r5, r8, sl, sp, lr}
    1278:	7265746e 	rsbvc	r7, r5, #1845493760	; 0x6e000000
    127c:	74707572 	ldrbtvc	r7, [r0], #-1394	; 0x572
    1280:	73552f00 	cmpvc	r5, #0, 30
    1284:	2f737265 	svccs	0x00737265
    1288:	61697262 	cmnvs	r9, r2, ror #4
    128c:	6e756a6e 	vsubvs.f32	s13, s10, s29
    1290:	7365442f 	cmnvc	r5, #788529152	; 0x2f000000
    1294:	706f746b 	rsbvc	r7, pc, fp, ror #8
    1298:	6863732f 	stmdavs	r3!, {r0, r1, r2, r3, r5, r8, r9, ip, sp, lr}^
    129c:	2f6c6f6f 	svccs	0x006c6f6f
    12a0:	746e6957 	strbtvc	r6, [lr], #-2391	; 0x957
    12a4:	39317265 	ldmdbcc	r1!, {r0, r2, r5, r6, r9, ip, sp, lr}
    12a8:	432f3032 	teqmi	pc, #50	; 0x32
    12ac:	30343153 	eorscc	r3, r4, r3, asr r1
    12b0:	73632f45 	cmnvc	r3, #276	; 0x114
    12b4:	65303431 	ldrvs	r3, [r0, #-1073]!	; 0x431
    12b8:	7730322d 	ldrvc	r3, [r0, -sp, lsr #4]!
    12bc:	6c2f6e69 	stcvs	14, cr6, [pc], #-420	; 1120 <_start-0x6ee0>
    12c0:	69706269 	ldmdbvs	r0!, {r0, r3, r5, r6, r9, sp, lr}^
    12c4:	65640000 	strbvs	r0, [r4, #-0]!
    12c8:	6c756166 	ldfvse	f6, [r5], #-408	; 0xfffffe68
    12cc:	61682d74 	smcvs	33492	; 0x82d4
    12d0:	656c646e 	strbvs	r6, [ip, #-1134]!	; 0x46e
    12d4:	61642d72 	smcvs	17106	; 0x42d2
    12d8:	612d6174 	teqvs	sp, r4, ror r1
    12dc:	74726f62 	ldrbtvc	r6, [r2], #-3938	; 0xf62
    12e0:	0100632e 	tsteq	r0, lr, lsr #6
    12e4:	70720000 	rsbsvc	r0, r2, r0
    12e8:	00682e69 	rsbeq	r2, r8, r9, ror #28
    12ec:	00000002 	andeq	r0, r0, r2
    12f0:	88020500 	stmdahi	r2, {r8, sl}
    12f4:	1300009e 	movwne	r0, #158	; 0x9e
    12f8:	001c0266 	andseq	r0, ip, r6, ror #4
    12fc:	00a30101 	adceq	r0, r3, r1, lsl #2
    1300:	00020000 	andeq	r0, r2, r0
    1304:	0000008f 	andeq	r0, r0, pc, lsl #1
    1308:	0efb0102 	cdpeq	1, 15, cr0, cr11, cr2, {0}
    130c:	0101000d 	tsteq	r1, sp
    1310:	00000101 	andeq	r0, r0, r1, lsl #2
    1314:	00000100 	andeq	r0, r0, r0, lsl #2
    1318:	31736301 	cmncc	r3, r1, lsl #6
    131c:	2d653034 	stclcs	0, cr3, [r5, #-208]!	; 0xffffff30
    1320:	65746e69 	ldrbvs	r6, [r4, #-3689]!	; 0xe69
    1324:	70757272 	rsbsvc	r7, r5, r2, ror r2
    1328:	552f0074 	strpl	r0, [pc, #-116]!	; 12bc <_start-0x6d44>
    132c:	73726573 	cmnvc	r2, #482344960	; 0x1cc00000
    1330:	6972622f 	ldmdbvs	r2!, {r0, r1, r2, r3, r5, r9, sp, lr}^
    1334:	756a6e61 	strbvc	r6, [sl, #-3681]!	; 0xe61
    1338:	65442f6e 	strbvs	r2, [r4, #-3950]	; 0xf6e
    133c:	6f746b73 	svcvs	0x00746b73
    1340:	63732f70 	cmnvs	r3, #112, 30	; 0x1c0
    1344:	6c6f6f68 	stclvs	15, cr6, [pc], #-416	; 11ac <_start-0x6e54>
    1348:	6e69572f 	cdpvs	7, 6, cr5, cr9, cr15, {1}
    134c:	31726574 	cmncc	r2, r4, ror r5
    1350:	2f303239 	svccs	0x00303239
    1354:	34315343 	ldrtcc	r5, [r1], #-835	; 0x343
    1358:	632f4530 	teqvs	pc, #48, 10	; 0xc000000
    135c:	30343173 	eorscc	r3, r4, r3, ror r1
    1360:	30322d65 	eorscc	r2, r2, r5, ror #26
    1364:	2f6e6977 	svccs	0x006e6977
    1368:	7062696c 	rsbvc	r6, r2, ip, ror #18
    136c:	64000069 	strvs	r0, [r0], #-105	; 0x69
    1370:	75616665 	strbvc	r6, [r1, #-1637]!	; 0x665
    1374:	682d746c 	stmdavs	sp!, {r2, r3, r5, r6, sl, ip, sp, lr}
    1378:	6c646e61 	stclvs	14, cr6, [r4], #-388	; 0xfffffe7c
    137c:	702d7265 	eorvc	r7, sp, r5, ror #4
    1380:	65666572 	strbvs	r6, [r6, #-1394]!	; 0x572
    1384:	2e686374 	mcrcs	3, 3, r6, cr8, cr4, {3}
    1388:	00010063 	andeq	r0, r1, r3, rrx
    138c:	69707200 	ldmdbvs	r0!, {r9, ip, sp, lr}^
    1390:	0200682e 	andeq	r6, r0, #3014656	; 0x2e0000
    1394:	00000000 	andeq	r0, r0, r0
    1398:	9ecc0205 	cdpls	2, 12, cr0, cr12, cr5, {0}
    139c:	66130000 	ldrvs	r0, [r3], -r0
    13a0:	01001c02 	tsteq	r0, r2, lsl #24
    13a4:	0000a001 	andeq	sl, r0, r1
    13a8:	8c000200 	sfmhi	f0, 4, [r0], {-0}
    13ac:	02000000 	andeq	r0, r0, #0
    13b0:	0d0efb01 	vstreq	d15, [lr, #-4]
    13b4:	01010100 	mrseq	r0, (UNDEF: 17)
    13b8:	00000001 	andeq	r0, r0, r1
    13bc:	01000001 	tsteq	r0, r1
    13c0:	34317363 	ldrtcc	r7, [r1], #-867	; 0x363
    13c4:	692d6530 	pushvs	{r4, r5, r8, sl, sp, lr}
    13c8:	7265746e 	rsbvc	r7, r5, #1845493760	; 0x6e000000
    13cc:	74707572 	ldrbtvc	r7, [r0], #-1394	; 0x572
    13d0:	73552f00 	cmpvc	r5, #0, 30
    13d4:	2f737265 	svccs	0x00737265
    13d8:	61697262 	cmnvs	r9, r2, ror #4
    13dc:	6e756a6e 	vsubvs.f32	s13, s10, s29
    13e0:	7365442f 	cmnvc	r5, #788529152	; 0x2f000000
    13e4:	706f746b 	rsbvc	r7, pc, fp, ror #8
    13e8:	6863732f 	stmdavs	r3!, {r0, r1, r2, r3, r5, r8, r9, ip, sp, lr}^
    13ec:	2f6c6f6f 	svccs	0x006c6f6f
    13f0:	746e6957 	strbtvc	r6, [lr], #-2391	; 0x957
    13f4:	39317265 	ldmdbcc	r1!, {r0, r2, r5, r6, r9, ip, sp, lr}
    13f8:	432f3032 	teqmi	pc, #50	; 0x32
    13fc:	30343153 	eorscc	r3, r4, r3, asr r1
    1400:	73632f45 	cmnvc	r3, #276	; 0x114
    1404:	65303431 	ldrvs	r3, [r0, #-1073]!	; 0x431
    1408:	7730322d 	ldrvc	r3, [r0, -sp, lsr #4]!
    140c:	6c2f6e69 	stcvs	14, cr6, [pc], #-420	; 1270 <_start-0x6d90>
    1410:	69706269 	ldmdbvs	r0!, {r0, r3, r5, r6, r9, sp, lr}^
    1414:	65640000 	strbvs	r0, [r4, #-0]!
    1418:	6c756166 	ldfvse	f6, [r5], #-408	; 0xfffffe68
    141c:	61682d74 	smcvs	33492	; 0x82d4
    1420:	656c646e 	strbvs	r6, [ip, #-1134]!	; 0x46e
    1424:	65722d72 	ldrbvs	r2, [r2, #-3442]!	; 0xd72
    1428:	2e746573 	mrccs	5, 3, r6, cr4, cr3, {3}
    142c:	00010063 	andeq	r0, r1, r3, rrx
    1430:	69707200 	ldmdbvs	r0!, {r9, ip, sp, lr}^
    1434:	0200682e 	andeq	r6, r0, #3014656	; 0x2e0000
    1438:	00000000 	andeq	r0, r0, r0
    143c:	9f100205 	svcls	0x00100205
    1440:	66130000 	ldrvs	r0, [r3], -r0
    1444:	01001c02 	tsteq	r0, r2, lsl #24
    1448:	0000a901 	andeq	sl, r0, r1, lsl #18
    144c:	95000200 	strls	r0, [r0, #-512]	; 0x200
    1450:	02000000 	andeq	r0, r0, #0
    1454:	0d0efb01 	vstreq	d15, [lr, #-4]
    1458:	01010100 	mrseq	r0, (UNDEF: 17)
    145c:	00000001 	andeq	r0, r0, r1
    1460:	01000001 	tsteq	r0, r1
    1464:	34317363 	ldrtcc	r7, [r1], #-867	; 0x363
    1468:	692d6530 	pushvs	{r4, r5, r8, sl, sp, lr}
    146c:	7265746e 	rsbvc	r7, r5, #1845493760	; 0x6e000000
    1470:	74707572 	ldrbtvc	r7, [r0], #-1394	; 0x572
    1474:	73552f00 	cmpvc	r5, #0, 30
    1478:	2f737265 	svccs	0x00737265
    147c:	61697262 	cmnvs	r9, r2, ror #4
    1480:	6e756a6e 	vsubvs.f32	s13, s10, s29
    1484:	7365442f 	cmnvc	r5, #788529152	; 0x2f000000
    1488:	706f746b 	rsbvc	r7, pc, fp, ror #8
    148c:	6863732f 	stmdavs	r3!, {r0, r1, r2, r3, r5, r8, r9, ip, sp, lr}^
    1490:	2f6c6f6f 	svccs	0x006c6f6f
    1494:	746e6957 	strbtvc	r6, [lr], #-2391	; 0x957
    1498:	39317265 	ldmdbcc	r1!, {r0, r2, r5, r6, r9, ip, sp, lr}
    149c:	432f3032 	teqmi	pc, #50	; 0x32
    14a0:	30343153 	eorscc	r3, r4, r3, asr r1
    14a4:	73632f45 	cmnvc	r3, #276	; 0x114
    14a8:	65303431 	ldrvs	r3, [r0, #-1073]!	; 0x431
    14ac:	7730322d 	ldrvc	r3, [r0, -sp, lsr #4]!
    14b0:	6c2f6e69 	stcvs	14, cr6, [pc], #-420	; 1314 <_start-0x6cec>
    14b4:	69706269 	ldmdbvs	r0!, {r0, r3, r5, r6, r9, sp, lr}^
    14b8:	65640000 	strbvs	r0, [r4, #-0]!
    14bc:	6c756166 	ldfvse	f6, [r5], #-408	; 0xfffffe68
    14c0:	61682d74 	smcvs	33492	; 0x82d4
    14c4:	656c646e 	strbvs	r6, [ip, #-1134]!	; 0x46e
    14c8:	6e752d72 	mrcvs	13, 3, r2, cr5, cr2, {3}
    14cc:	69666564 	stmdbvs	r6!, {r2, r5, r6, r8, sl, sp, lr}^
    14d0:	2d64656e 	cfstr64cs	mvdx6, [r4, #-440]!	; 0xfffffe48
    14d4:	74736e69 	ldrbtvc	r6, [r3], #-3689	; 0xe69
    14d8:	0100632e 	tsteq	r0, lr, lsr #6
    14dc:	70720000 	rsbsvc	r0, r2, r0
    14e0:	00682e69 	rsbeq	r2, r8, r9, ror #28
    14e4:	00000002 	andeq	r0, r0, r2
    14e8:	54020500 	strpl	r0, [r2], #-1280	; 0x500
    14ec:	1300009f 	movwne	r0, #159	; 0x9f
    14f0:	001c0266 	andseq	r0, ip, r6, ror #4
    14f4:	00ec0101 	rsceq	r0, ip, r1, lsl #2
    14f8:	00020000 	andeq	r0, r2, r0
    14fc:	000000d0 	ldrdeq	r0, [r0], -r0	; <UNPREDICTABLE>
    1500:	0efb0102 	cdpeq	1, 15, cr0, cr11, cr2, {0}
    1504:	0101000d 	tsteq	r1, sp
    1508:	00000101 	andeq	r0, r0, r1, lsl #2
    150c:	00000100 	andeq	r0, r0, r0, lsl #2
    1510:	62696c01 	rsbvs	r6, r9, #256	; 0x100
    1514:	752f0063 	strvc	r0, [pc, #-99]!	; 14b9 <_start-0x6b47>
    1518:	6c2f7273 	sfmvs	f7, 4, [pc], #-460	; 1354 <_start-0x6cac>
    151c:	6c61636f 	stclvs	3, cr6, [r1], #-444	; 0xfffffe44
    1520:	6c65432f 	stclvs	3, cr4, [r5], #-188	; 0xffffff44
    1524:	2f72616c 	svccs	0x0072616c
    1528:	2d6d7261 	sfmcs	f7, 2, [sp, #-388]!	; 0xfffffe7c
    152c:	656e6f6e 	strbvs	r6, [lr, #-3950]!	; 0xf6e
    1530:	6261652d 	rsbvs	r6, r1, #188743680	; 0xb400000
    1534:	2e342f69 	cdpcs	15, 3, cr2, cr4, cr9, {3}
    1538:	2d332e38 	ldccs	14, cr2, [r3, #-224]!	; 0xffffff20
    153c:	37317363 	ldrcc	r7, [r1, -r3, ror #6]!
    1540:	6c2f6530 	cfstr32vs	mvfx6, [pc], #-192	; 1488 <_start-0x6b78>
    1544:	672f6269 	strvs	r6, [pc, -r9, ror #4]!
    1548:	612f6363 	teqvs	pc, r3, ror #6
    154c:	6e2d6d72 	mcrvs	13, 1, r6, cr13, cr2, {3}
    1550:	2d656e6f 	stclcs	14, cr6, [r5, #-444]!	; 0xfffffe44
    1554:	69626165 	stmdbvs	r2!, {r0, r2, r5, r6, r8, sp, lr}^
    1558:	382e342f 	stmdacc	lr!, {r0, r1, r2, r3, r5, sl, ip, sp}
    155c:	692f332e 	stmdbvs	pc!, {r1, r2, r3, r5, r8, r9, ip, sp}	; <UNPREDICTABLE>
    1560:	756c636e 	strbvc	r6, [ip, #-878]!	; 0x36e
    1564:	2f006564 	svccs	0x00006564
    1568:	2f727375 	svccs	0x00727375
    156c:	61636f6c 	cmnvs	r3, ip, ror #30
    1570:	65432f6c 	strbvs	r2, [r3, #-3948]	; 0xf6c
    1574:	72616c6c 	rsbvc	r6, r1, #108, 24	; 0x6c00
    1578:	6d72612f 	ldfvse	f6, [r2, #-188]!	; 0xffffff44
    157c:	6e6f6e2d 	cdpvs	14, 6, cr6, cr15, cr13, {1}
    1580:	61652d65 	cmnvs	r5, r5, ror #26
    1584:	342f6962 	strtcc	r6, [pc], #-2402	; 158c <_start-0x6a74>
    1588:	332e382e 	teqcc	lr, #3014656	; 0x2e0000
    158c:	3173632d 	cmncc	r3, sp, lsr #6
    1590:	2f653037 	svccs	0x00653037
    1594:	2d6d7261 	sfmcs	f7, 2, [sp, #-388]!	; 0xfffffe7c
    1598:	656e6f6e 	strbvs	r6, [lr, #-3950]!	; 0xf6e
    159c:	6261652d 	rsbvs	r6, r1, #188743680	; 0xb400000
    15a0:	6e692f69 	cdpvs	15, 6, cr2, cr9, cr9, {3}
    15a4:	64756c63 	ldrbtvs	r6, [r5], #-3171	; 0xc63
    15a8:	6d000065 	stcvs	0, cr0, [r0, #-404]	; 0xfffffe6c
    15ac:	65736d65 	ldrbvs	r6, [r3, #-3429]!	; 0xd65
    15b0:	00632e74 	rsbeq	r2, r3, r4, ror lr
    15b4:	73000001 	movwvc	r0, #1
    15b8:	65646474 	strbvs	r6, [r4, #-1140]!	; 0x474
    15bc:	00682e66 	rsbeq	r2, r8, r6, ror #28
    15c0:	73000002 	movwvc	r0, #2
    15c4:	6e697274 	mcrvs	2, 3, r7, cr9, cr4, {3}
    15c8:	00682e67 	rsbeq	r2, r8, r7, ror #28
    15cc:	00000003 	andeq	r0, r0, r3
    15d0:	98020500 	stmdals	r2, {r8, sl}
    15d4:	1400009f 	strne	r0, [r0], #-159	; 0x9f
    15d8:	002f4c13 	eoreq	r4, pc, r3, lsl ip	; <UNPREDICTABLE>
    15dc:	49010402 	stmdbmi	r1, {r1, sl}
    15e0:	0002024d 	andeq	r0, r2, sp, asr #4
    15e4:	Address 0x00000000000015e4 is out of bounds.


Disassembly of section .debug_str:

00000000 <.debug_str>:
   0:	4f495047 	svcmi	0x00495047
   4:	544e495f 	strbpl	r4, [lr], #-2399	; 0x95f
   8:	50470030 	subpl	r0, r7, r0, lsr r0
   c:	495f4f49 	ldmdbmi	pc, {r0, r3, r6, r8, r9, sl, fp, lr}^	; <UNPREDICTABLE>
  10:	0031544e 	eorseq	r5, r1, lr, asr #8
  14:	4f495047 	svcmi	0x00495047
  18:	544e495f 	strbpl	r4, [lr], #-2399	; 0x95f
  1c:	50470032 	subpl	r0, r7, r2, lsr r0
  20:	495f4f49 	ldmdbmi	pc, {r0, r3, r6, r8, r9, sl, fp, lr}^	; <UNPREDICTABLE>
  24:	0033544e 	eorseq	r5, r3, lr, asr #8
  28:	53465047 	movtpl	r5, #24647	; 0x6047
  2c:	00324c45 	eorseq	r4, r2, r5, asr #24
  30:	4c435047 	mcrrmi	0, 4, r5, r3, cr7
  34:	66003052 			; <UNDEFINED> instruction: 0x66003052
  38:	5f747361 	svcpl	0x00747361
  3c:	6f697067 	svcvs	0x00697067
  40:	6972775f 	ldmdbvs	r2!, {r0, r1, r2, r3, r4, r6, r8, r9, sl, ip, sp, lr}^
  44:	61006574 	tstvs	r0, r4, ror r5
  48:	745f6d72 	ldrbvc	r6, [pc], #-3442	; 50 <_start-0x7fb0>
  4c:	72656d69 	rsbvc	r6, r5, #6720	; 0x1a40
  50:	5741525f 	smlsldpl	r5, r1, pc, r2	; <UNPREDICTABLE>
  54:	00515249 	subseq	r5, r1, r9, asr #4
  58:	74726175 	ldrbtvc	r6, [r2], #-373	; 0x175
  5c:	696e695f 	stmdbvs	lr!, {r0, r1, r2, r3, r4, r6, r8, fp, sp, lr}^
  60:	6f6c0074 	svcvs	0x006c0074
  64:	6c20676e 	stcvs	7, cr6, [r0], #-440	; 0xfffffe48
  68:	20676e6f 	rsbcs	r6, r7, pc, ror #28
  6c:	69736e75 	ldmdbvs	r3!, {r0, r2, r4, r5, r6, r9, sl, fp, sp, lr}^
  70:	64656e67 	strbtvs	r6, [r5], #-3687	; 0xe67
  74:	746e6920 	strbtvc	r6, [lr], #-2336	; 0x920
  78:	73616600 	cmnvc	r1, #0, 12
  7c:	70675f74 	rsbvc	r5, r7, r4, ror pc
  80:	735f6f69 	cmpvc	pc, #420	; 0x1a4
  84:	6f5f7465 	svcvs	0x005f7465
  88:	6f6c006e 	svcvs	0x006c006e
  8c:	6c20676e 	stcvs	7, cr6, [r0], #-440	; 0xfffffe48
  90:	20676e6f 	rsbcs	r6, r7, pc, ror #28
  94:	00746e69 	rsbseq	r6, r4, r9, ror #28
  98:	6576656e 	ldrbvs	r6, [r6, #-1390]!	; 0x56e
  9c:	0073746e 	rsbseq	r7, r3, lr, ror #8
  a0:	6379636e 	cmnvs	r9, #-1207959551	; 0xb8000001
  a4:	6100656c 	tstvs	r0, ip, ror #10
  a8:	745f6d72 	ldrbvc	r6, [pc], #-3442	; b0 <_start-0x7f50>
  ac:	72656d69 	rsbvc	r6, r5, #6720	; 0x1a40
  b0:	6e6f435f 	mcrvs	3, 3, r4, cr15, cr15, {2}
  b4:	6c6f7274 	sfmvs	f7, 2, [pc], #-464	; fffffeec <__bss_end__+0xffff55b4>
  b8:	53504700 	cmppl	r0, #0, 14
  bc:	00315445 	eorseq	r5, r1, r5, asr #8
  c0:	5f6d7261 	svcpl	0x006d7261
  c4:	656d6974 	strbvs	r6, [sp, #-2420]!	; 0x974
  c8:	6f4c5f72 	svcvs	0x004c5f72
  cc:	61006461 	tstvs	r0, r1, ror #8
  d0:	745f6d72 	ldrbvc	r6, [pc], #-3442	; d8 <_start-0x7f28>
  d4:	72656d69 	rsbvc	r6, r5, #6720	; 0x1a40
  d8:	7361425f 	cmnvc	r1, #-268435451	; 0xf0000005
  dc:	50470065 	subpl	r0, r7, r5, rrx
  e0:	3056454c 	subscc	r4, r6, ip, asr #10
  e4:	4c504700 	mrrcmi	7, 0, r4, r0, cr0
  e8:	00315645 	eorseq	r5, r1, r5, asr #12
  ec:	74736574 	ldrbtvc	r6, [r3], #-1396	; 0x574
  f0:	6e65675f 	mcrvs	7, 3, r6, cr5, cr15, {2}
  f4:	746f6e00 	strbtvc	r6, [pc], #-3584	; fc <_start-0x7f04>
  f8:	6e69616d 	powvsez	f6, f1, #5.0
  fc:	73616600 	cmnvc	r1, #0, 12
 100:	70675f74 	rsbvc	r5, r7, r4, ror pc
 104:	735f6f69 	cmpvc	pc, #420	; 0x1a4
 108:	6f5f7465 	svcvs	0x005f7465
 10c:	74006666 	strvc	r6, [r0], #-1638	; 0x666
 110:	00706d65 	rsbseq	r6, r0, r5, ror #26
 114:	5f6d7261 	svcpl	0x006d7261
 118:	656d6974 	strbvs	r6, [sp, #-2420]!	; 0x974
 11c:	614d5f72 	hvcvs	54770	; 0xd5f2
 120:	64656b73 	strbtvs	r6, [r5], #-2931	; 0xb73
 124:	00515249 	subseq	r5, r1, r9, asr #4
 128:	5f697072 	svcpl	0x00697072
 12c:	65736572 	ldrbvs	r6, [r3, #-1394]!	; 0x572
 130:	75705f74 	ldrbvc	r5, [r0, #-3956]!	; 0xf74
 134:	47006374 	smlsdxmi	r0, r4, r3, r6
 138:	45534650 	ldrbmi	r4, [r3, #-1616]	; 0x650
 13c:	4700304c 	strmi	r3, [r0, -ip, asr #32]
 140:	45534650 	ldrbmi	r4, [r3, #-1616]	; 0x650
 144:	4700314c 	strmi	r3, [r0, -ip, asr #2]
 148:	45534650 	ldrbmi	r4, [r3, #-1616]	; 0x650
 14c:	4700334c 	strmi	r3, [r0, -ip, asr #6]
 150:	45534650 	ldrbmi	r4, [r3, #-1616]	; 0x650
 154:	4700344c 	strmi	r3, [r0, -ip, asr #8]
 158:	45534650 	ldrbmi	r4, [r3, #-1616]	; 0x650
 15c:	6300354c 	movwvs	r3, #1356	; 0x54c
 160:	5f727275 	svcpl	0x00727275
 164:	756c6176 	strbvc	r6, [ip, #-374]!	; 0x176
 168:	70670065 	rsbvc	r0, r7, r5, rrx
 16c:	655f6f69 	ldrbvs	r6, [pc, #-3945]	; fffff20b <__bss_end__+0xffff48d3>
 170:	746e6576 	strbtvc	r6, [lr], #-1398	; 0x576
 174:	656c635f 	strbvs	r6, [ip, #-863]!	; 0x35f
 178:	5f007261 	svcpl	0x00007261
 17c:	4e55465f 	mrcmi	6, 2, r4, cr5, cr15, {2}
 180:	4f495443 	svcmi	0x00495443
 184:	005f5f4e 	subseq	r5, pc, lr, asr #30
 188:	726f6873 	rsbvc	r6, pc, #7536640	; 0x730000
 18c:	6e752074 	mrcvs	0, 3, r2, cr5, cr4, {3}
 190:	6e676973 	mcrvs	9, 3, r6, cr7, cr3, {3}
 194:	69206465 	stmdbvs	r0!, {r0, r2, r5, r6, sl, sp, lr}
 198:	6c00746e 	cfstrsvs	mvf7, [r0], {110}	; 0x6e
 19c:	00747361 	rsbseq	r7, r4, r1, ror #6
 1a0:	6573552f 	ldrbvs	r5, [r3, #-1327]!	; 0x52f
 1a4:	622f7372 	eorvs	r7, pc, #-939524095	; 0xc8000001
 1a8:	6e616972 	mcrvs	9, 3, r6, cr1, cr2, {3}
 1ac:	2f6e756a 	svccs	0x006e756a
 1b0:	6b736544 	blvs	1cd96c8 <__bss_end__+0x1cced90>
 1b4:	2f706f74 	svccs	0x00706f74
 1b8:	6f686373 	svcvs	0x00686373
 1bc:	532f6c6f 	teqpl	pc, #28416	; 0x6f00
 1c0:	6e697270 	mcrvs	2, 3, r7, cr9, cr0, {3}
 1c4:	32393167 	eorscc	r3, r9, #-1073741799	; 0xc0000019
 1c8:	53432f30 	movtpl	r2, #16176	; 0x3f30
 1cc:	4c303432 	cfldrsmi	mvf3, [r0], #-200	; 0xffffff38
 1d0:	73632f58 	cmnvc	r3, #88, 30	; 0x160
 1d4:	6c303432 	cfldrsvs	mvf3, [r0], #-200	; 0xffffff38
 1d8:	30322d78 	eorscc	r2, r2, r8, ror sp
 1dc:	2f727073 	svccs	0x00727073
 1e0:	7362616c 	cmnvc	r2, #108, 2
 1e4:	692d342f 	pushvs	{r0, r1, r2, r3, r5, sl, ip, sp}
 1e8:	7265746e 	rsbvc	r7, r5, #1845493760	; 0x6e000000
 1ec:	74707572 	ldrbtvc	r7, [r0], #-1394	; 0x572
 1f0:	2d77732d 	ldclcs	3, cr7, [r7, #-180]!	; 0xffffff4c
 1f4:	74726175 	ldrbtvc	r6, [r2], #-373	; 0x175
 1f8:	7265732f 	rsbvc	r7, r5, #-1140850688	; 0xbc000000
 1fc:	00726576 	rsbseq	r6, r2, r6, ror r5
 200:	6f697067 	svcvs	0x00697067
 204:	6573665f 	ldrbvs	r6, [r3, #-1631]!	; 0x65f
 208:	4700306c 	strmi	r3, [r0, -ip, rrx]
 20c:	524c4350 	subpl	r4, ip, #80, 6	; 0x40000001
 210:	70670031 	rsbvc	r0, r7, r1, lsr r0
 214:	725f6f69 	subsvc	r6, pc, #420	; 0x1a4
 218:	00646165 	rsbeq	r6, r4, r5, ror #2
 21c:	61656c63 	cmnvs	r5, r3, ror #24
 220:	65725f6e 	ldrbvs	r5, [r2, #-3950]!	; 0xf6e
 224:	746f6f62 	strbtvc	r6, [pc], #-3938	; 22c <_start-0x7dd4>
 228:	7a697300 	bvc	1a5ce30 <__bss_end__+0x1a524f8>
 22c:	70797465 	rsbsvc	r7, r9, r5, ror #8
 230:	72610065 	rsbvc	r0, r1, #101	; 0x65
 234:	69745f6d 	ldmdbvs	r4!, {r0, r2, r3, r5, r6, r8, r9, sl, fp, ip, lr}^
 238:	5f72656d 	svcpl	0x0072656d
 23c:	6f6c6552 	svcvs	0x006c6552
 240:	63006461 	movwvs	r6, #1121	; 0x461
 244:	656c6379 	strbvs	r6, [ip, #-889]!	; 0x379
 248:	756f635f 	strbvc	r6, [pc, #-863]!	; fffffef1 <__bss_end__+0xffff55b9>
 24c:	7265746e 	rsbvc	r7, r5, #1845493760	; 0x6e000000
 250:	746e6900 	strbtvc	r6, [lr], #-2304	; 0x900
 254:	696e695f 	stmdbvs	lr!, {r0, r1, r2, r3, r4, r6, r8, fp, sp, lr}^
 258:	6f5f0074 	svcvs	0x005f0074
 25c:	73007475 	movwvc	r7, #1141	; 0x475
 260:	65747379 	ldrbvs	r7, [r4, #-889]!	; 0x379
 264:	6e655f6d 	cdpvs	15, 6, cr5, cr5, cr13, {3}
 268:	656c6261 	strbvs	r6, [ip, #-609]!	; 0x261
 26c:	746e695f 	strbtvc	r6, [lr], #-2399	; 0x95f
 270:	75727265 	ldrbvc	r7, [r2, #-613]!	; 0x265
 274:	00737470 	rsbseq	r7, r3, r0, ror r4
 278:	775f7369 	ldrbvc	r7, [pc, -r9, ror #6]
 27c:	69746972 	ldmdbvs	r4!, {r1, r4, r5, r6, r8, fp, sp, lr}^
 280:	6400676e 	strvs	r6, [r0], #-1902	; 0x76e
 284:	625f7665 	subsvs	r7, pc, #105906176	; 0x6500000
 288:	69727261 	ldmdbvs	r2!, {r0, r5, r6, r9, ip, sp, lr}^
 28c:	75007265 	strvc	r7, [r0, #-613]	; 0x265
 290:	6769736e 	strbvs	r7, [r9, -lr, ror #6]!
 294:	2064656e 	rsbcs	r6, r4, lr, ror #10
 298:	72616863 	rsbvc	r6, r1, #6488064	; 0x630000
 29c:	6f637300 	svcvs	0x00637300
 2a0:	47006570 	smlsdxmi	r0, r0, r5, r6
 2a4:	54455350 	strbpl	r5, [r5], #-848	; 0x350
 2a8:	68730030 	ldmdavs	r3!, {r4, r5}^
 2ac:	2074726f 	rsbscs	r7, r4, pc, ror #4
 2b0:	00746e69 	rsbseq	r6, r4, r9, ror #28
 2b4:	616c6564 	cmnvs	ip, r4, ror #10
 2b8:	736d5f79 	cmnvc	sp, #484	; 0x1e4
 2bc:	63796300 	cmnvs	r9, #0, 6
 2c0:	5f73656c 	svcpl	0x0073656c
 2c4:	5f726570 	svcpl	0x00726570
 2c8:	00636573 	rsbeq	r6, r3, r3, ror r5
 2cc:	6f697067 	svcvs	0x00697067
 2d0:	7465735f 	strbtvc	r7, [r5], #-863	; 0x35f
 2d4:	69660030 	stmdbvs	r6!, {r4, r5}^
 2d8:	00747372 	rsbseq	r7, r4, r2, ror r3
 2dc:	69725f6e 	ldmdbvs	r2!, {r1, r2, r3, r5, r6, r8, r9, sl, fp, ip, lr}^
 2e0:	676e6973 			; <UNDEFINED> instruction: 0x676e6973
 2e4:	6764655f 			; <UNDEFINED> instruction: 0x6764655f
 2e8:	4e470065 	cdpmi	0, 4, cr0, cr7, cr5, {3}
 2ec:	20432055 	subcs	r2, r3, r5, asr r0
 2f0:	2e382e34 	mrccs	14, 1, r2, cr8, cr4, {1}
 2f4:	6d2d2033 	stcvs	0, cr2, [sp, #-204]!	; 0xffffff34
 2f8:	3d757063 	ldclcc	0, cr7, [r5, #-396]!	; 0xfffffe74
 2fc:	316d7261 	cmncc	sp, r1, ror #4
 300:	6a363731 	bvs	d8dfcc <__bss_end__+0xd83694>
 304:	732d667a 	teqvc	sp, #127926272	; 0x7a00000
 308:	746d2d20 	strbtvc	r2, [sp], #-3360	; 0xd20
 30c:	3d656e75 	stclcc	14, cr6, [r5, #-468]!	; 0xfffffe2c
 310:	316d7261 	cmncc	sp, r1, ror #4
 314:	6a363731 	bvs	d8dfe0 <__bss_end__+0xd836a8>
 318:	732d667a 	teqvc	sp, #127926272	; 0x7a00000
 31c:	67672d20 	strbvs	r2, [r7, -r0, lsr #26]!
 320:	2d206264 	sfmcs	f6, 4, [r0, #-400]!	; 0xfffffe70
 324:	2d20674f 	stccs	7, cr6, [r0, #-316]!	; 0xfffffec4
 328:	3d647473 	cfstrdcc	mvd7, [r4, #-460]!	; 0xfffffe34
 32c:	39756e67 	ldmdbcc	r5!, {r0, r1, r2, r5, r6, r9, sl, fp, sp, lr}^
 330:	662d2039 			; <UNDEFINED> instruction: 0x662d2039
 334:	65657266 	strbvs	r7, [r5, #-614]!	; 0x266
 338:	6e617473 	mcrvs	4, 3, r7, cr1, cr3, {3}
 33c:	676e6964 	strbvs	r6, [lr, -r4, ror #18]!
 340:	69706700 	ldmdbvs	r0!, {r8, r9, sl, sp, lr}^
 344:	65735f6f 	ldrbvs	r5, [r3, #-3951]!	; 0xf6f
 348:	6e695f74 	mcrvs	15, 3, r5, cr9, cr4, {3}
 34c:	00747570 	rsbseq	r7, r4, r0, ror r5
 350:	61665f6e 	cmnvs	r6, lr, ror #30
 354:	6e696c6c 	cdpvs	12, 6, cr6, cr9, cr12, {3}
 358:	64655f67 	strbtvs	r5, [r5], #-3943	; 0xf67
 35c:	32006567 	andcc	r6, r0, #432013312	; 0x19c00000
 360:	676f6c2d 	strbvs	r6, [pc, -sp, lsr #24]!
 364:	612d6369 	teqvs	sp, r9, ror #6
 368:	796c616e 	stmdbvc	ip!, {r1, r2, r3, r5, r6, r8, sp, lr}^
 36c:	2e72657a 	mrccs	5, 3, r6, cr2, cr10, {3}
 370:	72610063 	rsbvc	r0, r1, #99	; 0x63
 374:	69745f6d 	ldmdbvs	r4!, {r0, r2, r3, r5, r6, r8, r9, sl, fp, ip, lr}^
 378:	5f72656d 	svcpl	0x0072656d
 37c:	44657250 	strbtmi	r7, [r5], #-592	; 0x250
 380:	64697669 	strbtvs	r7, [r9], #-1641	; 0x669
 384:	61007265 	tstvs	r0, r5, ror #4
 388:	745f6d72 	ldrbvc	r6, [pc], #-3442	; 390 <_start-0x7c70>
 38c:	72656d69 	rsbvc	r6, r5, #6720	; 0x1a40
 390:	6c61565f 	stclvs	6, cr5, [r1], #-380	; 0xfffffe84
 394:	61006575 	tstvs	r0, r5, ror r5
 398:	745f6d72 	ldrbvc	r6, [pc], #-3442	; 3a0 <_start-0x7c60>
 39c:	72656d69 	rsbvc	r6, r5, #6720	; 0x1a40
 3a0:	5152495f 	cmppl	r2, pc, asr r9
 3a4:	61656c43 	cmnvs	r5, r3, asr #24
 3a8:	70670072 	rsbvc	r0, r7, r2, ror r0
 3ac:	735f6f69 	cmpvc	pc, #420	; 0x1a4
 3b0:	6f5f7465 	svcvs	0x005f7465
 3b4:	75707475 	ldrbvc	r7, [r0, #-1141]!	; 0x475
 3b8:	6e650074 	mcrvs	0, 3, r0, cr5, cr4, {3}
 3bc:	656c6261 	strbvs	r6, [ip, #-609]!	; 0x261
 3c0:	6361635f 	cmnvs	r1, #2080374785	; 0x7c000001
 3c4:	72006568 	andvc	r6, r0, #104, 10	; 0x1a000000
 3c8:	615f6970 	cmpvs	pc, r0, ror r9	; <UNPREDICTABLE>
 3cc:	745f6d72 	ldrbvc	r6, [pc], #-3442	; 3d4 <_start-0x7c2c>
 3d0:	72656d69 	rsbvc	r6, r5, #6720	; 0x1a40
 3d4:	7500745f 	strvc	r7, [r0, #-1119]	; 0x45f
 3d8:	38746e69 	ldmdacc	r4!, {r0, r3, r5, r6, r9, sl, fp, sp, lr}^
 3dc:	6700745f 	smlsdvs	r0, pc, r4, r7	; <UNPREDICTABLE>
 3e0:	5f6f6970 	svcpl	0x006f6970
 3e4:	5f746e69 	svcpl	0x00746e69
 3e8:	6c6c6166 	stfvse	f6, [ip], #-408	; 0xfffffe68
 3ec:	5f676e69 	svcpl	0x00676e69
 3f0:	65676465 	strbvs	r6, [r7, #-1125]!	; 0x465
 3f4:	5f736900 	svcpl	0x00736900
 3f8:	6f697067 	svcvs	0x00697067
 3fc:	746e695f 	strbtvc	r6, [lr], #-2399	; 0x95f
 400:	69706700 	ldmdbvs	r0!, {r8, r9, sl, sp, lr}^
 404:	6c635f6f 	stclvs	15, cr5, [r3], #-444	; 0xfffffe44
 408:	73003072 	movwvc	r3, #114	; 0x72
 40c:	65747379 	ldrbvs	r7, [r4, #-889]!	; 0x379
 410:	69645f6d 	stmdbvs	r4!, {r0, r2, r3, r5, r6, r8, r9, sl, fp, ip, lr}^
 414:	6c626173 	stfvse	f6, [r2], #-460	; 0xfffffe34
 418:	6e695f65 	cdpvs	15, 6, cr5, cr9, cr5, {3}
 41c:	72726574 	rsbsvc	r6, r2, #116, 10	; 0x1d000000
 420:	73747075 	cmnvc	r4, #117	; 0x75
 424:	6d726100 	ldfvse	f6, [r2, #-0]
 428:	6d69745f 	cfstrdvs	mvd7, [r9, #-380]!	; 0xfffffe84
 42c:	465f7265 	ldrbmi	r7, [pc], -r5, ror #4
 430:	52656572 	rsbpl	r6, r5, #478150656	; 0x1c800000
 434:	696e6e75 	stmdbvs	lr!, {r0, r2, r4, r5, r6, r9, sl, fp, sp, lr}^
 438:	6f43676e 	svcvs	0x0043676e
 43c:	65746e75 	ldrbvs	r6, [r4, #-3701]!	; 0xe75
 440:	5f5f0072 	svcpl	0x005f0072
 444:	63756e67 	cmnvs	r5, #1648	; 0x670
 448:	5f61765f 	svcpl	0x0061765f
 44c:	7473696c 	ldrbtvc	r6, [r3], #-2412	; 0x96c
 450:	62696c00 	rsbvs	r6, r9, #0, 24
 454:	72702f63 	rsbsvc	r2, r0, #396	; 0x18c
 458:	6b746e69 	blvs	1d1be04 <__bss_end__+0x1d114cc>
 45c:	7600632e 	strvc	r6, [r0], -lr, lsr #6
 460:	72705f61 	rsbsvc	r5, r0, #388	; 0x184
 464:	6b746e69 	blvs	1d1be10 <__bss_end__+0x1d114d8>
 468:	765f5f00 	ldrbvc	r5, [pc], -r0, lsl #30
 46c:	696c5f61 	stmdbvs	ip!, {r0, r5, r6, r8, r9, sl, fp, ip, lr}^
 470:	2f007473 	svccs	0x00007473
 474:	72657355 	rsbvc	r7, r5, #1409286145	; 0x54000001
 478:	72622f73 	rsbvc	r2, r2, #460	; 0x1cc
 47c:	6a6e6169 	bvs	1b98a28 <__bss_end__+0x1b8e0f0>
 480:	442f6e75 	strtmi	r6, [pc], #-3701	; 488 <_start-0x7b78>
 484:	746b7365 	strbtvc	r7, [fp], #-869	; 0x365
 488:	732f706f 	teqvc	pc, #111	; 0x6f
 48c:	6f6f6863 	svcvs	0x006f6863
 490:	69572f6c 	ldmdbvs	r7, {r2, r3, r5, r6, r8, r9, sl, fp, sp}^
 494:	7265746e 	rsbvc	r7, r5, #1845493760	; 0x6e000000
 498:	30323931 	eorscc	r3, r2, r1, lsr r9
 49c:	3153432f 	cmpcc	r3, pc, lsr #6
 4a0:	2f453034 	svccs	0x00453034
 4a4:	34317363 	ldrtcc	r7, [r1], #-867	; 0x363
 4a8:	322d6530 	eorcc	r6, sp, #48, 10	; 0xc000000
 4ac:	6e697730 	mcrvs	7, 3, r7, cr9, cr0, {1}
 4b0:	62696c2f 	rsbvs	r6, r9, #12032	; 0x2f00
 4b4:	61006970 	tstvs	r0, r0, ror r9
 4b8:	00736772 	rsbseq	r6, r3, r2, ror r7
 4bc:	70615f5f 	rsbvc	r5, r1, pc, asr pc
 4c0:	746e6900 	strbtvc	r6, [lr], #-2304	; 0x900
 4c4:	616e7265 	cmnvs	lr, r5, ror #4
 4c8:	75705f6c 	ldrbvc	r5, [r0, #-3948]!	; 0xf6c
 4cc:	61686374 	smcvs	34356	; 0x8634
 4d0:	70720072 	rsbsvc	r0, r2, r2, ror r0
 4d4:	75705f69 	ldrbvc	r5, [r0, #-3945]!	; 0xf69
 4d8:	61686374 	smcvs	34356	; 0x8634
 4dc:	696c0072 	stmdbvs	ip!, {r1, r4, r5, r6}^
 4e0:	702f6362 	eorvc	r6, pc, r2, ror #6
 4e4:	68637475 	stmdavs	r3!, {r0, r2, r4, r5, r6, sl, ip, sp, lr}^
 4e8:	632e7261 	teqvs	lr, #268435462	; 0x10000006
 4ec:	69707200 	ldmdbvs	r0!, {r9, ip, sp, lr}^
 4f0:	7465735f 	strbtvc	r7, [r5], #-863	; 0x35f
 4f4:	7475705f 	ldrbtvc	r7, [r5], #-95	; 0x5f
 4f8:	696c0063 	stmdbvs	ip!, {r0, r1, r5, r6}^
 4fc:	702f6362 	eorvc	r6, pc, r2, ror #6
 500:	2e6b7475 	mcrcs	4, 3, r7, cr11, cr5, {3}
 504:	6e690063 	cdpvs	0, 6, cr0, cr9, cr3, {3}
 508:	6e726574 	mrcvs	5, 3, r6, cr2, cr4, {3}
 50c:	705f6c61 	subsvc	r6, pc, r1, ror #24
 510:	006b7475 	rsbeq	r7, fp, r5, ror r4
 514:	5f67656e 	svcpl	0x0067656e
 518:	65720070 	ldrbvs	r0, [r2, #-112]!	; 0x70
 51c:	73726576 	cmnvc	r2, #494927872	; 0x1d800000
 520:	73690065 	cmnvc	r9, #101	; 0x65
 524:	69676964 	stmdbvs	r7!, {r2, r5, r6, r8, fp, sp, lr}^
 528:	75700074 	ldrbvc	r0, [r0, #-116]!	; 0x74
 52c:	665f7374 			; <UNDEFINED> instruction: 0x665f7374
 530:	61620070 	smcvs	8192	; 0x2000
 534:	73006573 	movwvc	r6, #1395	; 0x573
 538:	656e6769 	strbvs	r6, [lr, #-1897]!	; 0x769
 53c:	00705f64 	rsbseq	r5, r0, r4, ror #30
 540:	6362696c 	cmnvs	r2, #108, 18	; 0x1b0000
 544:	2d61762f 	stclcs	6, cr7, [r1, #-188]!	; 0xffffff44
 548:	6e697270 	mcrvs	2, 3, r7, cr9, cr0, {3}
 54c:	632e6b74 	teqvs	lr, #116, 22	; 0x1d000
 550:	69707200 	ldmdbvs	r0!, {r9, ip, sp, lr}^
 554:	7465735f 	strbtvc	r7, [r5], #-863	; 0x35f
 558:	74756f5f 	ldrbtvc	r6, [r5], #-3935	; 0xf5f
 55c:	00747570 	rsbseq	r7, r4, r0, ror r5
 560:	74646977 	strbtvc	r6, [r4], #-2423	; 0x977
 564:	75700068 	ldrbvc	r0, [r0, #-104]!	; 0x68
 568:	665f6374 			; <UNDEFINED> instruction: 0x665f6374
 56c:	6d650070 	stclvs	0, cr0, [r5, #-448]!	; 0xfffffe40
 570:	64007469 	strvs	r7, [r0], #-1129	; 0x469
 574:	62617369 	rsbvs	r7, r1, #-1543503871	; 0xa4000001
 578:	635f656c 	cmpvs	pc, #108, 10	; 0x1b000000
 57c:	65686361 	strbvs	r6, [r8, #-865]!	; 0x361
 580:	31736300 	cmncc	r3, r0, lsl #6
 584:	2d653034 	stclcs	0, cr3, [r5, #-208]!	; 0xffffff30
 588:	2f637273 	svccs	0x00637273
 58c:	68636163 	stmdavs	r3!, {r0, r1, r5, r6, r8, sp, lr}^
 590:	00632e65 	rsbeq	r2, r3, r5, ror #28
 594:	5f697072 	svcpl	0x00697072
 598:	6f626572 	svcvs	0x00626572
 59c:	6300746f 	movwvs	r7, #1135	; 0x46f
 5a0:	30343173 	eorscc	r3, r4, r3, ror r1
 5a4:	72732d65 	rsbsvc	r2, r3, #6464	; 0x1940
 5a8:	6c632f63 	stclvs	15, cr2, [r3], #-396	; 0xfffffe74
 5ac:	2d6e6165 	stfcse	f6, [lr, #-404]!	; 0xfffffe6c
 5b0:	6f626572 	svcvs	0x00626572
 5b4:	632e746f 	teqvs	lr, #1862270976	; 0x6f000000
 5b8:	746e6900 	strbtvc	r6, [lr], #-2304	; 0x900
 5bc:	616e7265 	cmnvs	lr, r5, ror #4
 5c0:	77735f6c 	ldrbvc	r5, [r3, -ip, ror #30]!
 5c4:	7475705f 	ldrbtvc	r7, [r5], #-95	; 0x5f
 5c8:	72616863 	rsbvc	r6, r1, #6488064	; 0x630000
 5cc:	625f5f00 	subsvs	r5, pc, #0, 30
 5d0:	735f7373 	cmpvc	pc, #-872415231	; 0xcc000001
 5d4:	74726174 	ldrbtvc	r6, [r2], #-372	; 0x174
 5d8:	62005f5f 	andvs	r5, r0, #380	; 0x17c
 5dc:	655f7373 	ldrbvs	r7, [pc, #-883]	; 271 <_start-0x7d8f>
 5e0:	6300646e 	movwvs	r6, #1134	; 0x46e
 5e4:	656c6379 	strbvs	r6, [ip, #-889]!	; 0x379
 5e8:	7265705f 	rsbvc	r7, r5, #95	; 0x5f
 5ec:	7469625f 	strbtvc	r6, [r9], #-607	; 0x25f
 5f0:	6e6f6300 	cdpvs	3, 6, cr6, cr15, cr0, {0}
 5f4:	656c6f73 	strbvs	r6, [ip, #-3955]!	; 0xf73
 5f8:	7261755f 	rsbvc	r7, r1, #398458880	; 0x17c00000
 5fc:	77730074 			; <UNDEFINED> instruction: 0x77730074
 600:	7261755f 	rsbvc	r7, r1, #398458880	; 0x17c00000
 604:	72705f74 	rsbsvc	r5, r0, #116, 30	; 0x1d0
 608:	6b746e69 	blvs	1d1bfb4 <__bss_end__+0x1d1167c>
 60c:	54555000 	ldrbpl	r5, [r5], #-0
 610:	53455f43 	movtpl	r5, #24387	; 0x5f43
 614:	41555f50 	cmpmi	r5, r0, asr pc
 618:	73005452 	movwvc	r5, #1106	; 0x452
 61c:	61755f77 	cmnvs	r5, r7, ror pc
 620:	745f7472 	ldrbvc	r7, [pc], #-1138	; 628 <_start-0x79d8>
 624:	54555000 	ldrbpl	r5, [r5], #-0
 628:	57535f43 	ldrbpl	r5, [r3, -r3, asr #30]
 62c:	5241555f 	subpl	r5, r1, #398458880	; 0x17c00000
 630:	61620054 	qdsubvs	r0, r4, r2
 634:	50006475 	andpl	r6, r0, r5, ror r4
 638:	5f435455 	svcpl	0x00435455
 63c:	555f5748 	ldrbpl	r5, [pc, #-1864]	; fffffefc <__bss_end__+0xffff55c4>
 640:	00545241 	subseq	r5, r4, r1, asr #4
 644:	7473635f 	ldrbtvc	r6, [r3], #-863	; 0x35f
 648:	00747261 	rsbseq	r7, r4, r1, ror #4
 64c:	74726175 	ldrbtvc	r6, [r2], #-373	; 0x175
 650:	7665645f 			; <UNDEFINED> instruction: 0x7665645f
 654:	7300745f 	movwvc	r7, #1119	; 0x45f
 658:	61755f77 	cmnvs	r5, r7, ror pc
 65c:	705f7472 	subsvc	r7, pc, r2, ror r4	; <UNPREDICTABLE>
 660:	00637475 	rsbeq	r7, r3, r5, ror r4
 664:	746e6f63 	strbtvc	r6, [lr], #-3939	; 0xf63
 668:	5f6c6f72 	svcpl	0x006c6f72
 66c:	5f6b6c62 	svcpl	0x006b6c62
 670:	77730074 			; <UNDEFINED> instruction: 0x77730074
 674:	7261755f 	rsbvc	r7, r1, #398458880	; 0x17c00000
 678:	62630074 	rsbvs	r0, r3, #116	; 0x74
 67c:	7465675f 	strbtvc	r6, [r5], #-1887	; 0x75f
 680:	6f6c625f 	svcvs	0x006c625f
 684:	5f006b63 	svcpl	0x00006b63
 688:	7373625f 	cmnvc	r3, #-268435451	; 0xf0000005
 68c:	646e655f 	strbtvs	r6, [lr], #-1375	; 0x55f
 690:	63005f5f 	movwvs	r5, #3935	; 0xf5f
 694:	30343173 	eorscc	r3, r4, r3, ror r1
 698:	72732d65 	rsbsvc	r2, r3, #6464	; 0x1940
 69c:	73632f63 	cmnvc	r3, #396	; 0x18c
 6a0:	74726174 	ldrbtvc	r6, [r2], #-372	; 0x174
 6a4:	6300632e 	movwvs	r6, #814	; 0x32e
 6a8:	6f736e6f 	svcvs	0x00736e6f
 6ac:	645f656c 	ldrbvs	r6, [pc], #-1388	; 6b4 <_start-0x794c>
 6b0:	75007665 	strvc	r7, [r0, #-1637]	; 0x665
 6b4:	33746e69 	cmncc	r4, #1680	; 0x690
 6b8:	00745f32 	rsbseq	r5, r4, r2, lsr pc
 6bc:	6967616d 	stmdbvs	r7!, {r0, r2, r3, r5, r6, r8, sp, lr}^
 6c0:	74610063 	strbtvc	r0, [r1], #-99	; 0x63
 6c4:	6573755f 	ldrbvs	r7, [r3, #-1375]!	; 0x55f
 6c8:	656c5f72 	strbvs	r5, [ip, #-3954]!	; 0xf72
 6cc:	006c6576 	rsbeq	r6, ip, r6, ror r5
 6d0:	505f4d50 	subspl	r4, pc, r0, asr sp	; <UNPREDICTABLE>
 6d4:	57535341 	ldrbpl	r5, [r3, -r1, asr #6]
 6d8:	0044524f 	subeq	r5, r4, pc, asr #4
 6dc:	34317363 	ldrtcc	r7, [r1], #-867	; 0x363
 6e0:	732d6530 	teqvc	sp, #48, 10	; 0xc000000
 6e4:	722f6372 	eorvc	r6, pc, #-939524095	; 0xc8000001
 6e8:	6f6f6265 	svcvs	0x006f6265
 6ec:	00632e74 	rsbeq	r2, r3, r4, ror lr
 6f0:	525f4d50 	subspl	r4, pc, #80, 26	; 0x1400
 6f4:	5f435453 	svcpl	0x00435453
 6f8:	46435257 			; <UNDEFINED> instruction: 0x46435257
 6fc:	55465f47 	strbpl	r5, [r6, #-3911]	; 0xf47
 700:	525f4c4c 	subspl	r4, pc, #76, 24	; 0x4c00
 704:	54455345 	strbpl	r5, [r5], #-837	; 0x345
 708:	5f4d5000 	svcpl	0x004d5000
 70c:	474f4457 	smlsldmi	r4, pc, r7, r4	; <UNPREDICTABLE>
 710:	74657300 	strbtvc	r7, [r5], #-768	; 0x300
 714:	6573755f 	ldrbvs	r7, [r3, #-1375]!	; 0x55f
 718:	656c5f72 	strbvs	r5, [ip, #-3954]!	; 0xf72
 71c:	006c6576 	rsbeq	r6, ip, r6, ror r5
 720:	33545550 	cmpcc	r4, #80, 10	; 0x14000000
 724:	4d500032 	ldclmi	0, cr0, [r0, #-200]	; 0xffffff38
 728:	5453525f 	ldrbpl	r5, [r3], #-607	; 0x25f
 72c:	70630043 	rsbvc	r0, r3, r3, asr #32
 730:	74007273 	strvc	r7, [r0], #-627	; 0x273
 734:	72656d69 	rsbvc	r6, r5, #6720	; 0x1a40
 738:	7465675f 	strbtvc	r6, [r5], #-1887	; 0x75f
 73c:	6573755f 	ldrbvs	r7, [r3, #-1375]!	; 0x55f
 740:	61725f63 	cmnvs	r2, r3, ror #30
 744:	65640077 	strbvs	r0, [r4, #-119]!	; 0x77
 748:	5f79616c 	svcpl	0x0079616c
 74c:	00636573 	rsbeq	r6, r3, r3, ror r5
 750:	34317363 	ldrtcc	r7, [r1], #-867	; 0x363
 754:	732d6530 	teqvc	sp, #48, 10	; 0xc000000
 758:	742f6372 	strtvc	r6, [pc], #-882	; 760 <_start-0x78a0>
 75c:	72656d69 	rsbvc	r6, r5, #6720	; 0x1a40
 760:	4700632e 	strmi	r6, [r0, -lr, lsr #6]
 764:	32335445 	eorscc	r5, r3, #1157627904	; 0x45000000
 768:	63697400 	cmnvs	r9, #0, 8
 76c:	6400736b 	strvs	r7, [r0], #-875	; 0x36b
 770:	79616c65 	stmdbvc	r1!, {r0, r2, r5, r6, sl, fp, sp, lr}^
 774:	6379635f 	cmnvs	r9, #2080374785	; 0x7c000001
 778:	0073656c 	rsbseq	r6, r3, ip, ror #10
 77c:	616c6564 	cmnvs	ip, r4, ror #10
 780:	73755f79 	cmnvc	r5, #484	; 0x1e4
 784:	6d697400 	cfstrdvs	mvd7, [r9, #-0]
 788:	675f7265 	ldrbvs	r7, [pc, -r5, ror #4]
 78c:	755f7465 	ldrbvc	r7, [pc, #-1125]	; 32f <_start-0x7cd1>
 790:	00636573 	rsbeq	r6, r3, r3, ror r5
 794:	6f697067 	svcvs	0x00697067
 798:	6576655f 	ldrbvs	r6, [r6, #-1375]!	; 0x55f
 79c:	645f746e 	ldrbvs	r7, [pc], #-1134	; 7a4 <_start-0x785c>
 7a0:	63657465 	cmnvs	r5, #1694498816	; 0x65000000
 7a4:	00646574 	rsbeq	r6, r4, r4, ror r5
 7a8:	33747570 	cmncc	r4, #112, 10	; 0x1c000000
 7ac:	4e450032 	mcrmi	0, 2, r0, cr5, cr2, {1}
 7b0:	454c4241 	strbmi	r4, [ip, #-577]	; 0x241
 7b4:	5152495f 	cmppl	r2, pc, asr r9
 7b8:	00325f53 	eorseq	r5, r2, r3, asr pc
 7bc:	4f495047 	svcmi	0x00495047
 7c0:	4e55465f 	mrcmi	6, 2, r4, cr5, cr15, {2}
 7c4:	4e495f43 	cdpmi	15, 4, cr5, cr9, cr3, {2}
 7c8:	00545550 	subseq	r5, r4, r0, asr r5
 7cc:	732d796d 	teqvc	sp, #1785856	; 0x1b4000
 7d0:	672f6372 			; <UNDEFINED> instruction: 0x672f6372
 7d4:	2e6f6970 	mcrcs	9, 3, r6, cr15, cr0, {3}
 7d8:	6e690063 	cdpvs	0, 6, cr0, cr9, cr3, {3}
 7dc:	616d5f74 	smcvs	54772	; 0xd5f4
 7e0:	72006b73 	andvc	r6, r0, #117760	; 0x1cc00
 7e4:	735f6765 	cmpvc	pc, #26476544	; 0x1940000
 7e8:	00746174 	rsbseq	r6, r4, r4, ror r1
 7ec:	6f697067 	svcvs	0x00697067
 7f0:	6765725f 			; <UNDEFINED> instruction: 0x6765725f
 7f4:	69706700 	ldmdbvs	r0!, {r8, r9, sl, sp, lr}^
 7f8:	6e695f6f 	cdpvs	15, 6, cr5, cr9, cr15, {3}
 7fc:	69725f74 	ldmdbvs	r2!, {r2, r4, r5, r6, r8, r9, sl, fp, ip, lr}^
 800:	676e6973 			; <UNDEFINED> instruction: 0x676e6973
 804:	6764655f 			; <UNDEFINED> instruction: 0x6764655f
 808:	70670065 	rsbvc	r0, r7, r5, rrx
 80c:	735f6f69 	cmpvc	pc, #420	; 0x1a4
 810:	665f7465 	ldrbvs	r7, [pc], -r5, ror #8
 814:	74636e75 	strbtvc	r6, [r3], #-3701	; 0xe75
 818:	006e6f69 	rsbeq	r6, lr, r9, ror #30
 81c:	45525047 	ldrbmi	r5, [r2, #-71]	; 0x47
 820:	4700304e 	strmi	r3, [r0, -lr, asr #32]
 824:	4e455250 	mcrmi	2, 2, r5, cr5, cr0, {2}
 828:	52490031 	subpl	r0, r9, #49	; 0x31
 82c:	45505f51 	ldrbmi	r5, [r0, #-3921]	; 0xf51
 830:	4e49444e 	cdpmi	4, 4, cr4, cr9, cr14, {2}
 834:	00315f47 	eorseq	r5, r1, r7, asr #30
 838:	5f515249 	svcpl	0x00515249
 83c:	444e4550 	strbmi	r4, [lr], #-1360	; 0x550
 840:	5f474e49 	svcpl	0x00474e49
 844:	69620032 	stmdbvs	r2!, {r1, r4, r5}^
 848:	73616d74 	cmnvc	r1, #116, 26	; 0x1d00
 84c:	7566006b 	strbvc	r0, [r6, #-107]!	; 0x6b
 850:	6700636e 	strvs	r6, [r0, -lr, ror #6]
 854:	5f6f6970 	svcpl	0x006f6970
 858:	67676f74 			; <UNDEFINED> instruction: 0x67676f74
 85c:	4700656c 	strmi	r6, [r0, -ip, ror #10]
 860:	53444550 	movtpl	r4, #17744	; 0x4550
 864:	50470030 	subpl	r0, r7, r0, lsr r0
 868:	31534445 	cmpcc	r3, r5, asr #8
 86c:	46504700 	ldrbmi	r4, [r0], -r0, lsl #14
 870:	00304e45 	eorseq	r4, r0, r5, asr #28
 874:	45465047 	strbmi	r5, [r6, #-71]	; 0x47
 878:	4700314e 	strmi	r3, [r0, -lr, asr #2]
 87c:	5f4f4950 	svcpl	0x004f4950
 880:	434e5546 	movtmi	r5, #58694	; 0xe546
 884:	54554f5f 	ldrbpl	r4, [r5], #-3935	; 0xf5f
 888:	00545550 	subseq	r5, r4, r0, asr r5
 88c:	33746567 	cmncc	r4, #432013312	; 0x19c00000
 890:	70670032 	rsbvc	r0, r7, r2, lsr r0
 894:	665f6f69 	ldrbvs	r6, [pc], -r9, ror #30
 898:	5f636e75 	svcpl	0x00636e75
 89c:	50470074 	subpl	r0, r7, r4, ror r0
 8a0:	465f4f49 	ldrbmi	r4, [pc], -r9, asr #30
 8a4:	5f434e55 	svcpl	0x00434e55
 8a8:	30544c41 	subscc	r4, r4, r1, asr #24
 8ac:	49504700 	ldmdbmi	r0, {r8, r9, sl, lr}^
 8b0:	55465f4f 	strbpl	r5, [r6, #-3919]	; 0xf4f
 8b4:	415f434e 	cmpmi	pc, lr, asr #6
 8b8:	0031544c 	eorseq	r5, r1, ip, asr #8
 8bc:	4f495047 	svcmi	0x00495047
 8c0:	4e55465f 	mrcmi	6, 2, r4, cr5, cr15, {2}
 8c4:	4c415f43 	mcrrmi	15, 4, r5, r1, cr3
 8c8:	47003254 	smlsdmi	r0, r4, r2, r3
 8cc:	5f4f4950 	svcpl	0x004f4950
 8d0:	434e5546 	movtmi	r5, #58694	; 0xe546
 8d4:	544c415f 	strbpl	r4, [ip], #-351	; 0x15f
 8d8:	50470033 	subpl	r0, r7, r3, lsr r0
 8dc:	465f4f49 	ldrbmi	r4, [pc], -r9, asr #30
 8e0:	5f434e55 	svcpl	0x00434e55
 8e4:	34544c41 	ldrbcc	r4, [r4], #-3137	; 0xc41
 8e8:	49504700 	ldmdbmi	r0, {r8, r9, sl, lr}^
 8ec:	55465f4f 	strbpl	r5, [r6, #-3919]	; 0xf4f
 8f0:	415f434e 	cmpmi	pc, lr, asr #6
 8f4:	0035544c 	eorseq	r5, r5, ip, asr #8
 8f8:	5f676572 	svcpl	0x00676572
 8fc:	656c6573 	strbvs	r6, [ip, #-1395]!	; 0x573
 900:	63007463 	movwvs	r7, #1123	; 0x463
 904:	705f6379 	subsvc	r6, pc, r9, ror r3	; <UNPREDICTABLE>
 908:	625f7265 	subsvs	r7, pc, #1342177286	; 0x50000006
 90c:	77007469 	strvc	r7, [r0, -r9, ror #8]
 910:	65746972 	ldrbvs	r6, [r4, #-2418]!	; 0x972
 914:	6379635f 	cmnvs	r9, #2080374785	; 0x7c000001
 918:	746e755f 	strbtvc	r7, [lr], #-1375	; 0x55f
 91c:	73006c69 	movwvc	r6, #3177	; 0xc69
 920:	61755f77 	cmnvs	r5, r7, ror pc
 924:	675f7472 			; <UNDEFINED> instruction: 0x675f7472
 928:	5f637465 	svcpl	0x00637465
 92c:	656d6974 	strbvs	r6, [sp, #-2420]!	; 0x974
 930:	0074756f 	rsbseq	r7, r4, pc, ror #10
 934:	755f7773 	ldrbvc	r7, [pc, #-1907]	; 1c9 <_start-0x7e37>
 938:	5f747261 	svcpl	0x00747261
 93c:	73746567 	cmnvc	r4, #432013312	; 0x19c00000
 940:	746e755f 	strbtvc	r7, [lr], #-1375	; 0x55f
 944:	73006c69 	movwvc	r6, #3177	; 0xc69
 948:	61755f77 	cmnvs	r5, r7, ror pc
 94c:	675f7472 			; <UNDEFINED> instruction: 0x675f7472
 950:	00637465 	rsbeq	r7, r3, r5, ror #8
 954:	69726564 	ldmdbvs	r2!, {r2, r5, r6, r8, sl, sp, lr}^
 958:	00646576 	rsbeq	r6, r4, r6, ror r5
 95c:	616c6564 	cmnvs	ip, r4, ror #10
 960:	636e5f79 	cmnvs	lr, #484	; 0x1e4
 964:	656c6379 	strbvs	r6, [ip, #-889]!	; 0x379
 968:	77730073 			; <UNDEFINED> instruction: 0x77730073
 96c:	7261755f 	rsbvc	r7, r1, #398458880	; 0x17c00000
 970:	6e695f74 	mcrvs	15, 3, r5, cr9, cr4, {3}
 974:	685f7469 	ldmdavs	pc, {r0, r3, r5, r6, sl, ip, sp, lr}^	; <UNPREDICTABLE>
 978:	65706c65 	ldrbvs	r6, [r0, #-3173]!	; 0xc65
 97c:	69740072 	ldmdbvs	r4!, {r1, r4, r5, r6}^
 980:	756f656d 	strbvc	r6, [pc, #-1389]!	; 41b <_start-0x7be5>
 984:	73755f74 	cmnvc	r5, #116, 30	; 0x1d0
 988:	73006365 	movwvc	r6, #869	; 0x365
 98c:	61755f77 	cmnvs	r5, r7, ror pc
 990:	705f7472 	subsvc	r7, pc, r2, ror r4	; <UNPREDICTABLE>
 994:	006b7475 	rsbeq	r7, fp, r5, ror r4
 998:	732d796d 	teqvc	sp, #1785856	; 0x1b4000
 99c:	732f6372 	teqvc	pc, #-939524095	; 0xc8000001
 9a0:	61752d77 	cmnvs	r5, r7, ror sp
 9a4:	632e7472 	teqvs	lr, #1912602624	; 0x72000000
 9a8:	61686300 	cmnvs	r8, r0, lsl #6
 9ac:	6e695f72 	mcrvs	15, 3, r5, cr9, cr2, {3}
 9b0:	5f777300 	svcpl	0x00777300
 9b4:	74726175 	ldrbtvc	r6, [r2], #-373	; 0x175
 9b8:	7465675f 	strbtvc	r6, [r5], #-1887	; 0x75f
 9bc:	69745f73 	ldmdbvs	r4!, {r0, r1, r4, r5, r6, r8, r9, sl, fp, ip, lr}^
 9c0:	756f656d 	strbvc	r6, [pc, #-1389]!	; 45b <_start-0x7ba5>
 9c4:	626e0074 	rsbvs	r0, lr, #116	; 0x74
 9c8:	73657479 	cmnvc	r5, #2030043136	; 0x79000000
 9cc:	65737500 	ldrbvs	r7, [r3, #-1280]!	; 0x500
 9d0:	69745f63 	ldmdbvs	r4!, {r0, r1, r5, r6, r8, r9, sl, fp, ip, lr}^
 9d4:	756f656d 	strbvc	r6, [pc, #-1389]!	; 46f <_start-0x7b91>
 9d8:	77730074 			; <UNDEFINED> instruction: 0x77730074
 9dc:	7261755f 	rsbvc	r7, r1, #398458880	; 0x17c00000
 9e0:	65675f74 	strbvs	r5, [r7, #-3956]!	; 0xf74
 9e4:	755f7374 	ldrbvc	r7, [pc, #-884]	; 678 <_start-0x7988>
 9e8:	6c69746e 	cfstrdvs	mvd7, [r9], #-440	; 0xfffffe48
 9ec:	6b6c625f 	blvs	1b19370 <__bss_end__+0x1b0ea38>
 9f0:	69617700 	stmdbvs	r1!, {r8, r9, sl, ip, sp, lr}^
 9f4:	6e755f74 	mrcvs	15, 3, r5, cr5, cr4, {3}
 9f8:	5f6c6974 	svcpl	0x006c6974
 9fc:	63657375 	cmnvs	r5, #-738197503	; 0xd4000001
 a00:	58554100 	ldmdapl	r5, {r8, lr}^
 a04:	5f554d5f 	svcpl	0x00554d5f
 a08:	5f52434d 	svcpl	0x0052434d
 a0c:	00474552 	subeq	r4, r7, r2, asr r5
 a10:	5f585541 	svcpl	0x00585541
 a14:	495f554d 	ldmdbmi	pc, {r0, r2, r3, r6, r8, sl, ip, lr}^	; <UNPREDICTABLE>
 a18:	45525f4f 	ldrbmi	r5, [r2, #-3919]	; 0xf4f
 a1c:	55410047 	strbpl	r0, [r1, #-71]	; 0x47
 a20:	554d5f58 	strbpl	r5, [sp, #-3928]	; 0xf58
 a24:	52534d5f 	subspl	r4, r3, #6080	; 0x17c0
 a28:	4745525f 	smlsldmi	r5, r5, pc, r2	; <UNPREDICTABLE>
 a2c:	72617500 	rsbvc	r7, r1, #0, 10
 a30:	61635f74 	smcvs	13812	; 0x35f4
 a34:	65675f6e 	strbvs	r5, [r7, #-3950]!	; 0xf6e
 a38:	41006374 	tstmi	r0, r4, ror r3
 a3c:	4d5f5855 	ldclmi	8, cr5, [pc, #-340]	; 8f0 <_start-0x7710>
 a40:	4e435f55 	mcrmi	15, 2, r5, cr3, cr5, {2}
 a44:	525f4c54 	subspl	r4, pc, #84, 24	; 0x5400
 a48:	75004745 	strvc	r4, [r0, #-1861]	; 0x745
 a4c:	5f747261 	svcpl	0x00747261
 a50:	5f736168 	svcpl	0x00736168
 a54:	61746164 	cmnvs	r4, r4, ror #2
 a58:	58554100 	ldmdapl	r5, {r8, lr}^
 a5c:	5f554d5f 	svcpl	0x00554d5f
 a60:	5f524549 	svcpl	0x00524549
 a64:	00474552 	subeq	r4, r7, r2, asr r5
 a68:	5f585541 	svcpl	0x00585541
 a6c:	495f554d 	ldmdbmi	pc, {r0, r2, r3, r6, r8, sl, ip, lr}^	; <UNPREDICTABLE>
 a70:	525f5249 	subspl	r5, pc, #-1879048188	; 0x90000004
 a74:	75004745 	strvc	r4, [r0, #-1861]	; 0x745
 a78:	5f747261 	svcpl	0x00747261
 a7c:	5f6e6163 	svcpl	0x006e6163
 a80:	63747570 	cmnvs	r4, #112, 10	; 0x1c000000
 a84:	58554100 	ldmdapl	r5, {r8, lr}^
 a88:	414e455f 	cmpmi	lr, pc, asr r5
 a8c:	53454c42 	movtpl	r4, #23618	; 0x5c42
 a90:	58554100 	ldmdapl	r5, {r8, lr}^
 a94:	5152495f 	cmppl	r2, pc, asr r9
 a98:	58554100 	ldmdapl	r5, {r8, lr}^
 a9c:	5f554d5f 	svcpl	0x00554d5f
 aa0:	44554142 	ldrbmi	r4, [r5], #-322	; 0x142
 aa4:	4745525f 	smlsldmi	r5, r5, pc, r2	; <UNPREDICTABLE>
 aa8:	58554100 	ldmdapl	r5, {r8, lr}^
 aac:	5f554d5f 	svcpl	0x00554d5f
 ab0:	54415453 	strbpl	r5, [r1], #-1107	; 0x453
 ab4:	4745525f 	smlsldmi	r5, r5, pc, r2	; <UNPREDICTABLE>
 ab8:	58554100 	ldmdapl	r5, {r8, lr}^
 abc:	5f554d5f 	svcpl	0x00554d5f
 ac0:	41524353 	cmpmi	r2, r3, asr r3
 ac4:	00484354 	subeq	r4, r8, r4, asr r3
 ac8:	732d796d 	teqvc	sp, #1785856	; 0x1b4000
 acc:	752f6372 	strvc	r6, [pc, #-882]!	; 762 <_start-0x789e>
 ad0:	2e747261 	cdpcs	2, 7, cr7, cr4, cr1, {3}
 ad4:	55410063 	strbpl	r0, [r1, #-99]	; 0x63
 ad8:	554d5f58 	strbpl	r5, [sp, #-3928]	; 0xf58
 adc:	52434c5f 	subpl	r4, r3, #24320	; 0x5f00
 ae0:	4745525f 	smlsldmi	r5, r5, pc, r2	; <UNPREDICTABLE>
 ae4:	58554100 	ldmdapl	r5, {r8, lr}^
 ae8:	5f554d5f 	svcpl	0x00554d5f
 aec:	5f52534c 	svcpl	0x0052534c
 af0:	00474552 	subeq	r4, r7, r2, asr r5
 af4:	74726175 	ldrbtvc	r6, [r2], #-373	; 0x175
 af8:	7465675f 	strbtvc	r6, [r5], #-1887	; 0x75f
 afc:	73615f63 	cmnvc	r1, #396	; 0x18c
 b00:	00636e79 	rsbeq	r6, r3, r9, ror lr
 b04:	5f515249 	svcpl	0x00515249
 b08:	646e6570 	strbtvs	r6, [lr], #-1392	; 0x570
 b0c:	5f676e69 	svcpl	0x00676e69
 b10:	69440032 	stmdbvs	r4, {r1, r4, r5}^
 b14:	6c626173 	stfvse	f6, [r2], #-460	; 0xfffffe34
 b18:	61425f65 	cmpvs	r2, r5, ror #30
 b1c:	5f636973 	svcpl	0x00636973
 b20:	73515249 	cmpvc	r1, #-1879048188	; 0x90000004
 b24:	51494600 	cmppl	r9, r0, lsl #12
 b28:	6e6f635f 	mcrvs	3, 3, r6, cr15, cr15, {2}
 b2c:	6c6f7274 	sfmvs	f7, 2, [pc], #-464	; 964 <_start-0x769c>
 b30:	6e695f00 	cdpvs	15, 6, cr5, cr9, cr0, {0}
 b34:	72726574 	rsbsvc	r6, r2, #116, 10	; 0x1d000000
 b38:	5f747075 	svcpl	0x00747075
 b3c:	6c626174 	stfvse	f6, [r2], #-464	; 0xfffffe30
 b40:	52490065 	subpl	r0, r9, #101	; 0x65
 b44:	61625f51 	cmnvs	r2, r1, asr pc
 b48:	5f636973 	svcpl	0x00636973
 b4c:	646e6570 	strbtvs	r6, [lr], #-1392	; 0x570
 b50:	00676e69 	rsbeq	r6, r7, r9, ror #28
 b54:	62616e45 	rsbvs	r6, r1, #1104	; 0x450
 b58:	425f656c 	subsmi	r6, pc, #108, 10	; 0x1b000000
 b5c:	63697361 	cmnvs	r9, #-2080374783	; 0x84000001
 b60:	5152495f 	cmppl	r2, pc, asr r9
 b64:	6e450073 	mcrvs	0, 2, r0, cr5, cr3, {3}
 b68:	656c6261 	strbvs	r6, [ip, #-609]!	; 0x261
 b6c:	5152495f 	cmppl	r2, pc, asr r9
 b70:	00315f73 	eorseq	r5, r1, r3, ror pc
 b74:	62616e45 	rsbvs	r6, r1, #1104	; 0x450
 b78:	495f656c 	ldmdbmi	pc, {r2, r3, r5, r6, r8, sl, sp, lr}^	; <UNPREDICTABLE>
 b7c:	5f735152 	svcpl	0x00735152
 b80:	695f0032 	ldmdbvs	pc, {r1, r4, r5}^	; <UNPREDICTABLE>
 b84:	7265746e 	rsbvc	r7, r5, #1845493760	; 0x6e000000
 b88:	74707572 	ldrbtvc	r7, [r0], #-1394	; 0x572
 b8c:	6261745f 	rsbvs	r7, r1, #1593835520	; 0x5f000000
 b90:	655f656c 	ldrbvs	r6, [pc, #-1388]	; 62c <_start-0x79d4>
 b94:	6300646e 	movwvs	r6, #1134	; 0x46e
 b98:	30343173 	eorscc	r3, r4, r3, ror r1
 b9c:	6e692d65 	cdpvs	13, 6, cr2, cr9, cr5, {3}
 ba0:	72726574 	rsbsvc	r6, r2, #116, 10	; 0x1d000000
 ba4:	2f747075 	svccs	0x00747075
 ba8:	65746e69 	ldrbvs	r6, [r4, #-3689]!	; 0xe69
 bac:	70757272 	rsbsvc	r7, r5, r2, ror r2
 bb0:	632d7374 	teqvs	sp, #116, 6	; 0xd0000001
 bb4:	4900632e 	stmdbmi	r0, {r1, r2, r3, r5, r8, r9, sp, lr}
 bb8:	425f5152 	subsmi	r5, pc, #-2147483628	; 0x80000014
 bbc:	00657361 	rsbeq	r7, r5, r1, ror #6
 bc0:	61736944 	cmnvs	r3, r4, asr #18
 bc4:	5f656c62 	svcpl	0x00656c62
 bc8:	73515249 	cmpvc	r1, #-1879048188	; 0x90000004
 bcc:	4400315f 	strmi	r3, [r0], #-351	; 0x15f
 bd0:	62617369 	rsbvs	r7, r1, #-1543503871	; 0xa4000001
 bd4:	495f656c 	ldmdbmi	pc, {r2, r3, r5, r6, r8, sl, sp, lr}^	; <UNPREDICTABLE>
 bd8:	5f735152 	svcpl	0x00735152
 bdc:	61660032 	cmnvs	r6, r2, lsr r0
 be0:	695f7473 	ldmdbvs	pc, {r0, r1, r4, r5, r6, sl, ip, sp, lr}^	; <UNPREDICTABLE>
 be4:	7265746e 	rsbvc	r7, r5, #1845493760	; 0x6e000000
 be8:	74707572 	ldrbtvc	r7, [r0], #-1394	; 0x572
 bec:	6365765f 	cmnvs	r5, #99614720	; 0x5f00000
 bf0:	00726f74 	rsbseq	r6, r2, r4, ror pc
 bf4:	5f515249 	svcpl	0x00515249
 bf8:	646e6570 	strbtvs	r6, [lr], #-1392	; 0x570
 bfc:	5f676e69 	svcpl	0x00676e69
 c00:	69730031 	ldmdbvs	r3!, {r0, r4, r5}^
 c04:	745f657a 	ldrbvc	r6, [pc], #-1402	; c0c <_start-0x73f4>
 c08:	6d656d00 	stclvs	13, cr6, [r5, #-0]
 c0c:	00746573 	rsbseq	r6, r4, r3, ror r5
 c10:	6e5f6263 	cdpvs	2, 5, cr6, cr15, cr3, {3}
 c14:	63007765 	movwvs	r7, #1893	; 0x765
 c18:	30343173 	eorscc	r3, r4, r3, ror r1
 c1c:	72732d65 	rsbsvc	r2, r3, #6464	; 0x1940
 c20:	6f632f63 	svcvs	0x00632f63
 c24:	6f72746e 	svcvs	0x0072746e
 c28:	6c622d6c 	stclvs	13, cr2, [r2], #-432	; 0xfffffe50
 c2c:	2e6b636f 	cdpcs	3, 6, cr6, cr11, cr15, {3}
 c30:	73630063 	cmnvc	r3, #99	; 0x63
 c34:	65303431 	ldrvs	r3, [r0, #-1073]!	; 0x431
 c38:	746e692d 	strbtvc	r6, [lr], #-2349	; 0x92d
 c3c:	75727265 	ldrbvc	r7, [r2, #-613]!	; 0x265
 c40:	642f7470 	strtvs	r7, [pc], #-1136	; c48 <_start-0x73b8>
 c44:	75616665 	strbvc	r6, [r1, #-1637]!	; 0x665
 c48:	682d746c 	stmdavs	sp!, {r2, r3, r5, r6, sl, ip, sp, lr}
 c4c:	6c646e61 	stclvs	14, cr6, [r4], #-388	; 0xfffffe7c
 c50:	642d7265 	strtvs	r7, [sp], #-613	; 0x265
 c54:	2d617461 	cfstrdcs	mvd7, [r1, #-388]!	; 0xfffffe7c
 c58:	726f6261 	rsbvc	r6, pc, #268435462	; 0x10000006
 c5c:	00632e74 	rsbeq	r2, r3, r4, ror lr
 c60:	61746164 	cmnvs	r4, r4, ror #2
 c64:	6f62615f 	svcvs	0x0062615f
 c68:	765f7472 			; <UNDEFINED> instruction: 0x765f7472
 c6c:	6f746365 	svcvs	0x00746365
 c70:	73630072 	cmnvc	r3, #114	; 0x72
 c74:	65303431 	ldrvs	r3, [r0, #-1073]!	; 0x431
 c78:	746e692d 	strbtvc	r6, [lr], #-2349	; 0x92d
 c7c:	75727265 	ldrbvc	r7, [r2, #-613]!	; 0x265
 c80:	642f7470 	strtvs	r7, [pc], #-1136	; c88 <_start-0x7378>
 c84:	75616665 	strbvc	r6, [r1, #-1637]!	; 0x665
 c88:	682d746c 	stmdavs	sp!, {r2, r3, r5, r6, sl, ip, sp, lr}
 c8c:	6c646e61 	stclvs	14, cr6, [r4], #-388	; 0xfffffe7c
 c90:	702d7265 	eorvc	r7, sp, r5, ror #4
 c94:	65666572 	strbvs	r6, [r6, #-1394]!	; 0x572
 c98:	2e686374 	mcrcs	3, 3, r6, cr8, cr4, {3}
 c9c:	72700063 	rsbsvc	r0, r0, #99	; 0x63
 ca0:	74656665 	strbtvc	r6, [r5], #-1637	; 0x665
 ca4:	615f6863 	cmpvs	pc, r3, ror #16
 ca8:	74726f62 	ldrbtvc	r6, [r2], #-3938	; 0xf62
 cac:	6365765f 	cmnvs	r5, #99614720	; 0x5f00000
 cb0:	00726f74 	rsbseq	r6, r2, r4, ror pc
 cb4:	65736572 	ldrbvs	r6, [r3, #-1394]!	; 0x572
 cb8:	65765f74 	ldrbvs	r5, [r6, #-3956]!	; 0xf74
 cbc:	726f7463 	rsbvc	r7, pc, #1660944384	; 0x63000000
 cc0:	31736300 	cmncc	r3, r0, lsl #6
 cc4:	2d653034 	stclcs	0, cr3, [r5, #-208]!	; 0xffffff30
 cc8:	65746e69 	ldrbvs	r6, [r4, #-3689]!	; 0xe69
 ccc:	70757272 	rsbsvc	r7, r5, r2, ror r2
 cd0:	65642f74 	strbvs	r2, [r4, #-3956]!	; 0xf74
 cd4:	6c756166 	ldfvse	f6, [r5], #-408	; 0xfffffe68
 cd8:	61682d74 	smcvs	33492	; 0x82d4
 cdc:	656c646e 	strbvs	r6, [ip, #-1134]!	; 0x46e
 ce0:	65722d72 	ldrbvs	r2, [r2, #-3442]!	; 0xd72
 ce4:	2e746573 	mrccs	5, 3, r6, cr4, cr3, {3}
 ce8:	73630063 	cmnvc	r3, #99	; 0x63
 cec:	65303431 	ldrvs	r3, [r0, #-1073]!	; 0x431
 cf0:	746e692d 	strbtvc	r6, [lr], #-2349	; 0x92d
 cf4:	75727265 	ldrbvc	r7, [r2, #-613]!	; 0x265
 cf8:	642f7470 	strtvs	r7, [pc], #-1136	; d00 <_start-0x7300>
 cfc:	75616665 	strbvc	r6, [r1, #-1637]!	; 0x665
 d00:	682d746c 	stmdavs	sp!, {r2, r3, r5, r6, sl, ip, sp, lr}
 d04:	6c646e61 	stclvs	14, cr6, [r4], #-388	; 0xfffffe7c
 d08:	752d7265 	strvc	r7, [sp, #-613]!	; 0x265
 d0c:	6665646e 	strbtvs	r6, [r5], -lr, ror #8
 d10:	64656e69 	strbtvs	r6, [r5], #-3689	; 0xe69
 d14:	736e692d 	cmnvc	lr, #737280	; 0xb4000
 d18:	00632e74 	rsbeq	r2, r3, r4, ror lr
 d1c:	65646e75 	strbvs	r6, [r4, #-3701]!	; 0xe75
 d20:	656e6966 	strbvs	r6, [lr, #-2406]!	; 0x966
 d24:	6e695f64 	cdpvs	15, 6, cr5, cr9, cr4, {3}
 d28:	75727473 	ldrbvc	r7, [r2, #-1139]!	; 0x473
 d2c:	6f697463 	svcvs	0x00697463
 d30:	65765f6e 	ldrbvs	r5, [r6, #-3950]!	; 0xf6e
 d34:	726f7463 	rsbvc	r7, pc, #1660944384	; 0x63000000
 d38:	62696c00 	rsbvs	r6, r9, #0, 24
 d3c:	656d2f63 	strbvs	r2, [sp, #-3939]!	; 0xf63
 d40:	7465736d 	strbtvc	r7, [r5], #-877	; 0x36d
 d44:	Address 0x0000000000000d44 is out of bounds.


Disassembly of section .debug_frame:

00000000 <.debug_frame>:
   0:	0000000c 	andeq	r0, r0, ip
   4:	ffffffff 			; <UNDEFINED> instruction: 0xffffffff
   8:	7c020001 	stcvc	0, cr0, [r2], {1}
   c:	000d0c0e 	andeq	r0, sp, lr, lsl #24
  10:	00000014 	andeq	r0, r0, r4, lsl r0
  14:	00000000 	andeq	r0, r0, r0
  18:	00008010 	andeq	r8, r0, r0, lsl r0
  1c:	00000050 	andeq	r0, r0, r0, asr r0
  20:	84080e42 	strhi	r0, [r8], #-3650	; 0xe42
  24:	00018e02 	andeq	r8, r1, r2, lsl #28
  28:	00000014 	andeq	r0, r0, r4, lsl r0
  2c:	00000000 	andeq	r0, r0, r0
  30:	00008060 	andeq	r8, r0, r0, rrx
  34:	000001ec 	andeq	r0, r0, ip, ror #3
  38:	84040e42 	strhi	r0, [r4], #-3650	; 0xe42
  3c:	00000001 	andeq	r0, r0, r1
  40:	00000014 	andeq	r0, r0, r4, lsl r0
  44:	00000000 	andeq	r0, r0, r0
  48:	0000824c 	andeq	r8, r0, ip, asr #4
  4c:	0000029c 	muleq	r0, ip, r2
  50:	84040e42 	strhi	r0, [r4], #-3650	; 0xe42
  54:	00000001 	andeq	r0, r0, r1
  58:	00000020 	andeq	r0, r0, r0, lsr #32
  5c:	00000000 	andeq	r0, r0, r0
  60:	000084e8 	andeq	r8, r0, r8, ror #9
  64:	00000100 	andeq	r0, r0, r0, lsl #2
  68:	83200e42 	teqhi	r0, #1056	; 0x420
  6c:	85078408 	strhi	r8, [r7, #-1032]	; 0x408
  70:	87058606 	strhi	r8, [r5, -r6, lsl #12]
  74:	89038804 	stmdbhi	r3, {r2, fp, pc}
  78:	00018e02 	andeq	r8, r1, r2, lsl #28
  7c:	00000014 	andeq	r0, r0, r4, lsl r0
  80:	00000000 	andeq	r0, r0, r0
  84:	000085e8 	andeq	r8, r0, r8, ror #11
  88:	000000d0 	ldrdeq	r0, [r0], -r0	; <UNPREDICTABLE>
  8c:	84080e42 	strhi	r0, [r8], #-3650	; 0xe42
  90:	00018e02 	andeq	r8, r1, r2, lsl #28
  94:	00000014 	andeq	r0, r0, r4, lsl r0
  98:	00000000 	andeq	r0, r0, r0
  9c:	000086b8 			; <UNDEFINED> instruction: 0x000086b8
  a0:	00000048 	andeq	r0, r0, r8, asr #32
  a4:	83080e42 	movwhi	r0, #36418	; 0x8e42
  a8:	00018e02 	andeq	r8, r1, r2, lsl #28
  ac:	0000000c 	andeq	r0, r0, ip
  b0:	ffffffff 			; <UNDEFINED> instruction: 0xffffffff
  b4:	7c020001 	stcvc	0, cr0, [r2], {1}
  b8:	000d0c0e 	andeq	r0, sp, lr, lsl #24
  bc:	00000024 	andeq	r0, r0, r4, lsr #32
  c0:	000000ac 	andeq	r0, r0, ip, lsr #1
  c4:	00008700 	andeq	r8, r0, r0, lsl #14
  c8:	00000058 	andeq	r0, r0, r8, asr r0
  cc:	80100e42 	andshi	r0, r0, r2, asr #28
  d0:	82038104 	andhi	r8, r3, #4, 2
  d4:	42018302 	andmi	r8, r1, #134217728	; 0x8000000
  d8:	07841c0e 	streq	r1, [r4, lr, lsl #24]
  dc:	058e0685 	streq	r0, [lr, #1669]	; 0x685
  e0:	00280e42 	eoreq	r0, r8, r2, asr #28
  e4:	0000000c 	andeq	r0, r0, ip
  e8:	ffffffff 			; <UNDEFINED> instruction: 0xffffffff
  ec:	7c020001 	stcvc	0, cr0, [r2], {1}
  f0:	000d0c0e 	andeq	r0, sp, lr, lsl #24
  f4:	00000014 	andeq	r0, r0, r4, lsl r0
  f8:	000000e4 	andeq	r0, r0, r4, ror #1
  fc:	00008758 	andeq	r8, r0, r8, asr r7
 100:	00000014 	andeq	r0, r0, r4, lsl r0
 104:	84080e42 	strhi	r0, [r8], #-3650	; 0xe42
 108:	00018e02 	andeq	r8, r1, r2, lsl #28
 10c:	0000000c 	andeq	r0, r0, ip
 110:	000000e4 	andeq	r0, r0, r4, ror #1
 114:	0000876c 	andeq	r8, r0, ip, ror #14
 118:	00000018 	andeq	r0, r0, r8, lsl r0
 11c:	0000000c 	andeq	r0, r0, ip
 120:	000000e4 	andeq	r0, r0, r4, ror #1
 124:	00008784 	andeq	r8, r0, r4, lsl #15
 128:	00000010 	andeq	r0, r0, r0, lsl r0
 12c:	0000000c 	andeq	r0, r0, ip
 130:	ffffffff 			; <UNDEFINED> instruction: 0xffffffff
 134:	7c020001 	stcvc	0, cr0, [r2], {1}
 138:	000d0c0e 	andeq	r0, sp, lr, lsl #24
 13c:	00000018 	andeq	r0, r0, r8, lsl r0
 140:	0000012c 	andeq	r0, r0, ip, lsr #2
 144:	00008794 	muleq	r0, r4, r7
 148:	00000034 	andeq	r0, r0, r4, lsr r0
 14c:	83100e42 	tsthi	r0, #1056	; 0x420
 150:	85038404 	strhi	r8, [r3, #-1028]	; 0x404
 154:	00018e02 	andeq	r8, r1, r2, lsl #28
 158:	0000000c 	andeq	r0, r0, ip
 15c:	ffffffff 			; <UNDEFINED> instruction: 0xffffffff
 160:	7c020001 	stcvc	0, cr0, [r2], {1}
 164:	000d0c0e 	andeq	r0, sp, lr, lsl #24
 168:	0000000c 	andeq	r0, r0, ip
 16c:	00000158 	andeq	r0, r0, r8, asr r1
 170:	000087c8 	andeq	r8, r0, r8, asr #15
 174:	00000014 	andeq	r0, r0, r4, lsl r0
 178:	0000000c 	andeq	r0, r0, ip
 17c:	00000158 	andeq	r0, r0, r8, asr r1
 180:	000087dc 	ldrdeq	r8, [r0], -ip
 184:	0000002c 	andeq	r0, r0, ip, lsr #32
 188:	0000000c 	andeq	r0, r0, ip
 18c:	00000158 	andeq	r0, r0, r8, asr r1
 190:	00008808 	andeq	r8, r0, r8, lsl #16
 194:	00000040 	andeq	r0, r0, r0, asr #32
 198:	00000020 	andeq	r0, r0, r0, lsr #32
 19c:	00000158 	andeq	r0, r0, r8, asr r1
 1a0:	00008848 	andeq	r8, r0, r8, asr #16
 1a4:	000001a8 	andeq	r0, r0, r8, lsr #3
 1a8:	84180e42 	ldrhi	r0, [r8], #-3650	; 0xe42
 1ac:	86058506 	strhi	r8, [r5], -r6, lsl #10
 1b0:	88038704 	stmdahi	r3, {r2, r8, r9, sl, pc}
 1b4:	42018e02 	andmi	r8, r1, #2, 28
 1b8:	0000600e 	andeq	r6, r0, lr
 1bc:	00000014 	andeq	r0, r0, r4, lsl r0
 1c0:	00000158 	andeq	r0, r0, r8, asr r1
 1c4:	000089f0 	strdeq	r8, [r0], -r0
 1c8:	00000068 	andeq	r0, r0, r8, rrx
 1cc:	8e040e42 	cdphi	14, 0, cr0, cr4, cr2, {2}
 1d0:	100e4201 	andne	r4, lr, r1, lsl #4
 1d4:	00000028 	andeq	r0, r0, r8, lsr #32
 1d8:	00000158 	andeq	r0, r0, r8, asr r1
 1dc:	00008a58 	andeq	r8, r0, r8, asr sl
 1e0:	00000294 	muleq	r0, r4, r2
 1e4:	84240e42 	strthi	r0, [r4], #-3650	; 0xe42
 1e8:	86088509 	strhi	r8, [r8], -r9, lsl #10
 1ec:	88068707 	stmdahi	r6, {r0, r1, r2, r8, r9, sl, pc}
 1f0:	8a048905 	bhi	12260c <__bss_end__+0x117cd4>
 1f4:	8e028b03 	vmlahi.f64	d8, d2, d3
 1f8:	b00e4201 	andlt	r4, lr, r1, lsl #4
 1fc:	00000001 	andeq	r0, r0, r1
 200:	0000000c 	andeq	r0, r0, ip
 204:	ffffffff 			; <UNDEFINED> instruction: 0xffffffff
 208:	7c020001 	stcvc	0, cr0, [r2], {1}
 20c:	000d0c0e 	andeq	r0, sp, lr, lsl #24
 210:	0000000c 	andeq	r0, r0, ip
 214:	00000200 	andeq	r0, r0, r0, lsl #4
 218:	00008cec 	andeq	r8, r0, ip, ror #25
 21c:	00000010 	andeq	r0, r0, r0, lsl r0
 220:	0000000c 	andeq	r0, r0, ip
 224:	00000200 	andeq	r0, r0, r0, lsl #4
 228:	00008cfc 	strdeq	r8, [r0], -ip
 22c:	00000010 	andeq	r0, r0, r0, lsl r0
 230:	0000000c 	andeq	r0, r0, ip
 234:	ffffffff 			; <UNDEFINED> instruction: 0xffffffff
 238:	7c020001 	stcvc	0, cr0, [r2], {1}
 23c:	000d0c0e 	andeq	r0, sp, lr, lsl #24
 240:	00000014 	andeq	r0, r0, r4, lsl r0
 244:	00000230 	andeq	r0, r0, r0, lsr r2
 248:	00008d0c 	andeq	r8, r0, ip, lsl #26
 24c:	00000028 	andeq	r0, r0, r8, lsr #32
 250:	83080e42 	movwhi	r0, #36418	; 0x8e42
 254:	00018e02 	andeq	r8, r1, r2, lsl #28
 258:	0000000c 	andeq	r0, r0, ip
 25c:	ffffffff 			; <UNDEFINED> instruction: 0xffffffff
 260:	7c020001 	stcvc	0, cr0, [r2], {1}
 264:	000d0c0e 	andeq	r0, sp, lr, lsl #24
 268:	00000014 	andeq	r0, r0, r4, lsl r0
 26c:	00000258 	andeq	r0, r0, r8, asr r2
 270:	00008d34 	andeq	r8, r0, r4, lsr sp
 274:	00000020 	andeq	r0, r0, r0, lsr #32
 278:	84080e42 	strhi	r0, [r8], #-3650	; 0xe42
 27c:	00018e02 	andeq	r8, r1, r2, lsl #28
 280:	00000014 	andeq	r0, r0, r4, lsl r0
 284:	00000258 	andeq	r0, r0, r8, asr r2
 288:	00008d54 	andeq	r8, r0, r4, asr sp
 28c:	00000090 	muleq	r0, r0, r0
 290:	83080e42 	movwhi	r0, #36418	; 0x8e42
 294:	00018e02 	andeq	r8, r1, r2, lsl #28
 298:	0000000c 	andeq	r0, r0, ip
 29c:	ffffffff 			; <UNDEFINED> instruction: 0xffffffff
 2a0:	7c020001 	stcvc	0, cr0, [r2], {1}
 2a4:	000d0c0e 	andeq	r0, sp, lr, lsl #24
 2a8:	0000000c 	andeq	r0, r0, ip
 2ac:	00000298 	muleq	r0, r8, r2
 2b0:	00008de4 	andeq	r8, r0, r4, ror #27
 2b4:	00000018 	andeq	r0, r0, r8, lsl r0
 2b8:	0000000c 	andeq	r0, r0, ip
 2bc:	00000298 	muleq	r0, r8, r2
 2c0:	00008dfc 	strdeq	r8, [r0], -ip
 2c4:	00000014 	andeq	r0, r0, r4, lsl r0
 2c8:	00000014 	andeq	r0, r0, r4, lsl r0
 2cc:	00000298 	muleq	r0, r8, r2
 2d0:	00008e10 	andeq	r8, r0, r0, lsl lr
 2d4:	00000048 	andeq	r0, r0, r8, asr #32
 2d8:	83080e42 	movwhi	r0, #36418	; 0x8e42
 2dc:	00018e02 	andeq	r8, r1, r2, lsl #28
 2e0:	0000000c 	andeq	r0, r0, ip
 2e4:	ffffffff 			; <UNDEFINED> instruction: 0xffffffff
 2e8:	7c020001 	stcvc	0, cr0, [r2], {1}
 2ec:	000d0c0e 	andeq	r0, sp, lr, lsl #24
 2f0:	0000000c 	andeq	r0, r0, ip
 2f4:	000002e0 	andeq	r0, r0, r0, ror #5
 2f8:	00008e58 	andeq	r8, r0, r8, asr lr
 2fc:	0000001c 	andeq	r0, r0, ip, lsl r0
 300:	00000014 	andeq	r0, r0, r4, lsl r0
 304:	000002e0 	andeq	r0, r0, r0, ror #5
 308:	00008e74 	andeq	r8, r0, r4, ror lr
 30c:	00000014 	andeq	r0, r0, r4, lsl r0
 310:	83080e42 	movwhi	r0, #36418	; 0x8e42
 314:	00018e02 	andeq	r8, r1, r2, lsl #28
 318:	00000014 	andeq	r0, r0, r4, lsl r0
 31c:	000002e0 	andeq	r0, r0, r0, ror #5
 320:	00008e88 	andeq	r8, r0, r8, lsl #29
 324:	0000000c 	andeq	r0, r0, ip
 328:	83080e42 	movwhi	r0, #36418	; 0x8e42
 32c:	00018e02 	andeq	r8, r1, r2, lsl #28
 330:	00000018 	andeq	r0, r0, r8, lsl r0
 334:	000002e0 	andeq	r0, r0, r0, ror #5
 338:	00008e94 	muleq	r0, r4, lr
 33c:	00000024 	andeq	r0, r0, r4, lsr #32
 340:	83100e42 	tsthi	r0, #1056	; 0x420
 344:	85038404 	strhi	r8, [r3, #-1028]	; 0x404
 348:	00018e02 	andeq	r8, r1, r2, lsl #28
 34c:	00000014 	andeq	r0, r0, r4, lsl r0
 350:	000002e0 	andeq	r0, r0, r0, ror #5
 354:	00008eb8 			; <UNDEFINED> instruction: 0x00008eb8
 358:	00000014 	andeq	r0, r0, r4, lsl r0
 35c:	83080e42 	movwhi	r0, #36418	; 0x8e42
 360:	00018e02 	andeq	r8, r1, r2, lsl #28
 364:	00000014 	andeq	r0, r0, r4, lsl r0
 368:	000002e0 	andeq	r0, r0, r0, ror #5
 36c:	00008ecc 	andeq	r8, r0, ip, asr #29
 370:	00000014 	andeq	r0, r0, r4, lsl r0
 374:	83080e42 	movwhi	r0, #36418	; 0x8e42
 378:	00018e02 	andeq	r8, r1, r2, lsl #28
 37c:	0000000c 	andeq	r0, r0, ip
 380:	ffffffff 			; <UNDEFINED> instruction: 0xffffffff
 384:	7c020001 	stcvc	0, cr0, [r2], {1}
 388:	000d0c0e 	andeq	r0, sp, lr, lsl #24
 38c:	00000018 	andeq	r0, r0, r8, lsl r0
 390:	0000037c 	andeq	r0, r0, ip, ror r3
 394:	00008ee0 	andeq	r8, r0, r0, ror #29
 398:	000000d4 	ldrdeq	r0, [r0], -r4
 39c:	83100e42 	tsthi	r0, #1056	; 0x420
 3a0:	85038404 	strhi	r8, [r3, #-1028]	; 0x404
 3a4:	00018e02 	andeq	r8, r1, r2, lsl #28
 3a8:	00000014 	andeq	r0, r0, r4, lsl r0
 3ac:	0000037c 	andeq	r0, r0, ip, ror r3
 3b0:	00008fb4 			; <UNDEFINED> instruction: 0x00008fb4
 3b4:	00000038 	andeq	r0, r0, r8, lsr r0
 3b8:	83080e42 	movwhi	r0, #36418	; 0x8e42
 3bc:	00018e02 	andeq	r8, r1, r2, lsl #28
 3c0:	00000014 	andeq	r0, r0, r4, lsl r0
 3c4:	0000037c 	andeq	r0, r0, ip, ror r3
 3c8:	00008fec 	andeq	r8, r0, ip, ror #31
 3cc:	00000038 	andeq	r0, r0, r8, lsr r0
 3d0:	83080e42 	movwhi	r0, #36418	; 0x8e42
 3d4:	00018e02 	andeq	r8, r1, r2, lsl #28
 3d8:	00000018 	andeq	r0, r0, r8, lsl r0
 3dc:	0000037c 	andeq	r0, r0, ip, ror r3
 3e0:	00009024 	andeq	r9, r0, r4, lsr #32
 3e4:	000000cc 	andeq	r0, r0, ip, asr #1
 3e8:	83100e42 	tsthi	r0, #1056	; 0x420
 3ec:	85038404 	strhi	r8, [r3, #-1028]	; 0x404
 3f0:	00018e02 	andeq	r8, r1, r2, lsl #28
 3f4:	00000014 	andeq	r0, r0, r4, lsl r0
 3f8:	0000037c 	andeq	r0, r0, ip, ror r3
 3fc:	000090f0 	strdeq	r9, [r0], -r0
 400:	0000004c 	andeq	r0, r0, ip, asr #32
 404:	84080e42 	strhi	r0, [r8], #-3650	; 0xe42
 408:	00018e02 	andeq	r8, r1, r2, lsl #28
 40c:	00000014 	andeq	r0, r0, r4, lsl r0
 410:	0000037c 	andeq	r0, r0, ip, ror r3
 414:	0000913c 	andeq	r9, r0, ip, lsr r1
 418:	00000024 	andeq	r0, r0, r4, lsr #32
 41c:	83080e42 	movwhi	r0, #36418	; 0x8e42
 420:	00018e02 	andeq	r8, r1, r2, lsl #28
 424:	00000018 	andeq	r0, r0, r8, lsl r0
 428:	0000037c 	andeq	r0, r0, ip, ror r3
 42c:	00009160 	andeq	r9, r0, r0, ror #2
 430:	000000d8 	ldrdeq	r0, [r0], -r8
 434:	84100e42 	ldrhi	r0, [r0], #-3650	; 0xe42
 438:	86038504 	strhi	r8, [r3], -r4, lsl #10
 43c:	00018e02 	andeq	r8, r1, r2, lsl #28
 440:	00000014 	andeq	r0, r0, r4, lsl r0
 444:	0000037c 	andeq	r0, r0, ip, ror r3
 448:	00009238 	andeq	r9, r0, r8, lsr r2
 44c:	00000038 	andeq	r0, r0, r8, lsr r0
 450:	83080e42 	movwhi	r0, #36418	; 0x8e42
 454:	00018e02 	andeq	r8, r1, r2, lsl #28
 458:	00000014 	andeq	r0, r0, r4, lsl r0
 45c:	0000037c 	andeq	r0, r0, ip, ror r3
 460:	00009270 	andeq	r9, r0, r0, ror r2
 464:	0000002c 	andeq	r0, r0, ip, lsr #32
 468:	83080e42 	movwhi	r0, #36418	; 0x8e42
 46c:	00018e02 	andeq	r8, r1, r2, lsl #28
 470:	00000018 	andeq	r0, r0, r8, lsl r0
 474:	0000037c 	andeq	r0, r0, ip, ror r3
 478:	0000929c 	muleq	r0, ip, r2
 47c:	00000084 	andeq	r0, r0, r4, lsl #1
 480:	83100e42 	tsthi	r0, #1056	; 0x420
 484:	85038404 	strhi	r8, [r3, #-1028]	; 0x404
 488:	00018e02 	andeq	r8, r1, r2, lsl #28
 48c:	00000018 	andeq	r0, r0, r8, lsl r0
 490:	0000037c 	andeq	r0, r0, ip, ror r3
 494:	00009320 	andeq	r9, r0, r0, lsr #6
 498:	00000084 	andeq	r0, r0, r4, lsl #1
 49c:	83100e42 	tsthi	r0, #1056	; 0x420
 4a0:	85038404 	strhi	r8, [r3, #-1028]	; 0x404
 4a4:	00018e02 	andeq	r8, r1, r2, lsl #28
 4a8:	00000014 	andeq	r0, r0, r4, lsl r0
 4ac:	0000037c 	andeq	r0, r0, ip, ror r3
 4b0:	000093a4 	andeq	r9, r0, r4, lsr #7
 4b4:	00000084 	andeq	r0, r0, r4, lsl #1
 4b8:	84080e42 	strhi	r0, [r8], #-3650	; 0xe42
 4bc:	00018e02 	andeq	r8, r1, r2, lsl #28
 4c0:	00000014 	andeq	r0, r0, r4, lsl r0
 4c4:	0000037c 	andeq	r0, r0, ip, ror r3
 4c8:	00009428 	andeq	r9, r0, r8, lsr #8
 4cc:	00000058 	andeq	r0, r0, r8, asr r0
 4d0:	84080e42 	strhi	r0, [r8], #-3650	; 0xe42
 4d4:	00018e02 	andeq	r8, r1, r2, lsl #28
 4d8:	0000000c 	andeq	r0, r0, ip
 4dc:	ffffffff 			; <UNDEFINED> instruction: 0xffffffff
 4e0:	7c020001 	stcvc	0, cr0, [r2], {1}
 4e4:	000d0c0e 	andeq	r0, sp, lr, lsl #24
 4e8:	0000001c 	andeq	r0, r0, ip, lsl r0
 4ec:	000004d8 	ldrdeq	r0, [r0], -r8
 4f0:	00009480 	andeq	r9, r0, r0, lsl #9
 4f4:	00000154 	andeq	r0, r0, r4, asr r1
 4f8:	84180e42 	ldrhi	r0, [r8], #-3650	; 0xe42
 4fc:	86058506 	strhi	r8, [r5], -r6, lsl #10
 500:	88038704 	stmdahi	r3, {r2, r8, r9, sl, pc}
 504:	00018e02 	andeq	r8, r1, r2, lsl #28
 508:	00000020 	andeq	r0, r0, r0, lsr #32
 50c:	000004d8 	ldrdeq	r0, [r0], -r8
 510:	000095d4 	ldrdeq	r9, [r0], -r4
 514:	000001c8 	andeq	r0, r0, r8, asr #3
 518:	83200e42 	teqhi	r0, #1056	; 0x420
 51c:	85078408 	strhi	r8, [r7, #-1032]	; 0x408
 520:	87058606 	strhi	r8, [r5, -r6, lsl #12]
 524:	89038804 	stmdbhi	r3, {r2, fp, pc}
 528:	00018e02 	andeq	r8, r1, r2, lsl #28
 52c:	00000024 	andeq	r0, r0, r4, lsr #32
 530:	000004d8 	ldrdeq	r0, [r0], -r8
 534:	0000979c 	muleq	r0, ip, r7
 538:	000000a4 	andeq	r0, r0, r4, lsr #1
 53c:	84200e42 	strthi	r0, [r0], #-3650	; 0xe42
 540:	86078508 	strhi	r8, [r7], -r8, lsl #10
 544:	88058706 	stmdahi	r5, {r1, r2, r8, r9, sl, pc}
 548:	8a038904 	bhi	e2960 <__bss_end__+0xd8028>
 54c:	42018e02 	andmi	r8, r1, #2, 28
 550:	0000280e 	andeq	r2, r0, lr, lsl #16
 554:	00000020 	andeq	r0, r0, r0, lsr #32
 558:	000004d8 	ldrdeq	r0, [r0], -r8
 55c:	00009840 	andeq	r9, r0, r0, asr #16
 560:	00000090 	muleq	r0, r0, r0
 564:	84180e42 	ldrhi	r0, [r8], #-3650	; 0xe42
 568:	86058506 	strhi	r8, [r5], -r6, lsl #10
 56c:	88038704 	stmdahi	r3, {r2, r8, r9, sl, pc}
 570:	42018e02 	andmi	r8, r1, #2, 28
 574:	0000200e 	andeq	r2, r0, lr
 578:	00000020 	andeq	r0, r0, r0, lsr #32
 57c:	000004d8 	ldrdeq	r0, [r0], -r8
 580:	000098d0 	ldrdeq	r9, [r0], -r0
 584:	000000d4 	ldrdeq	r0, [r0], -r4
 588:	84180e42 	ldrhi	r0, [r8], #-3650	; 0xe42
 58c:	86058506 	strhi	r8, [r5], -r6, lsl #10
 590:	88038704 	stmdahi	r3, {r2, r8, r9, sl, pc}
 594:	42018e02 	andmi	r8, r1, #2, 28
 598:	0000200e 	andeq	r2, r0, lr
 59c:	00000014 	andeq	r0, r0, r4, lsl r0
 5a0:	000004d8 	ldrdeq	r0, [r0], -r8
 5a4:	000099a4 	andeq	r9, r0, r4, lsr #19
 5a8:	0000003c 	andeq	r0, r0, ip, lsr r0
 5ac:	83080e42 	movwhi	r0, #36418	; 0x8e42
 5b0:	00018e02 	andeq	r8, r1, r2, lsl #28
 5b4:	00000018 	andeq	r0, r0, r8, lsl r0
 5b8:	000004d8 	ldrdeq	r0, [r0], -r8
 5bc:	000099e0 	andeq	r9, r0, r0, ror #19
 5c0:	0000002c 	andeq	r0, r0, ip, lsr #32
 5c4:	83100e42 	tsthi	r0, #1056	; 0x420
 5c8:	85038404 	strhi	r8, [r3, #-1028]	; 0x404
 5cc:	00018e02 	andeq	r8, r1, r2, lsl #28
 5d0:	00000024 	andeq	r0, r0, r4, lsr #32
 5d4:	000004d8 	ldrdeq	r0, [r0], -r8
 5d8:	00009a0c 	andeq	r9, r0, ip, lsl #20
 5dc:	00000090 	muleq	r0, r0, r0
 5e0:	810c0e42 	tsthi	ip, r2, asr #28
 5e4:	83028203 	movwhi	r8, #8707	; 0x2203
 5e8:	180e4201 	stmdane	lr, {r0, r9, lr}
 5ec:	05850684 	streq	r0, [r5, #1668]	; 0x684
 5f0:	0e42048e 	cdpeq	4, 4, cr0, cr2, cr14, {4}
 5f4:	000003f0 	strdeq	r0, [r0], -r0	; <UNPREDICTABLE>
 5f8:	00000014 	andeq	r0, r0, r4, lsl r0
 5fc:	000004d8 	ldrdeq	r0, [r0], -r8
 600:	00009a9c 	muleq	r0, ip, sl
 604:	0000004c 	andeq	r0, r0, ip, asr #32
 608:	8e040e42 	cdphi	14, 0, cr0, cr4, cr2, {2}
 60c:	100e4201 	andne	r4, lr, r1, lsl #4
 610:	0000000c 	andeq	r0, r0, ip
 614:	ffffffff 			; <UNDEFINED> instruction: 0xffffffff
 618:	7c020001 	stcvc	0, cr0, [r2], {1}
 61c:	000d0c0e 	andeq	r0, sp, lr, lsl #24
 620:	00000018 	andeq	r0, r0, r8, lsl r0
 624:	00000610 	andeq	r0, r0, r0, lsl r6
 628:	00009ae8 	andeq	r9, r0, r8, ror #21
 62c:	0000009c 	muleq	r0, ip, r0
 630:	83100e42 	tsthi	r0, #1056	; 0x420
 634:	85038404 	strhi	r8, [r3, #-1028]	; 0x404
 638:	00018e02 	andeq	r8, r1, r2, lsl #28
 63c:	00000014 	andeq	r0, r0, r4, lsl r0
 640:	00000610 	andeq	r0, r0, r0, lsl r6
 644:	00009b84 	andeq	r9, r0, r4, lsl #23
 648:	0000001c 	andeq	r0, r0, ip, lsl r0
 64c:	83080e42 	movwhi	r0, #36418	; 0x8e42
 650:	00018e02 	andeq	r8, r1, r2, lsl #28
 654:	00000014 	andeq	r0, r0, r4, lsl r0
 658:	00000610 	andeq	r0, r0, r0, lsl r6
 65c:	00009ba0 	andeq	r9, r0, r0, lsr #23
 660:	00000028 	andeq	r0, r0, r8, lsr #32
 664:	83080e42 	movwhi	r0, #36418	; 0x8e42
 668:	00018e02 	andeq	r8, r1, r2, lsl #28
 66c:	00000014 	andeq	r0, r0, r4, lsl r0
 670:	00000610 	andeq	r0, r0, r0, lsl r6
 674:	00009bc8 	andeq	r9, r0, r8, asr #23
 678:	0000001c 	andeq	r0, r0, ip, lsl r0
 67c:	83080e42 	movwhi	r0, #36418	; 0x8e42
 680:	00018e02 	andeq	r8, r1, r2, lsl #28
 684:	00000014 	andeq	r0, r0, r4, lsl r0
 688:	00000610 	andeq	r0, r0, r0, lsl r6
 68c:	00009be4 	andeq	r9, r0, r4, ror #23
 690:	0000002c 	andeq	r0, r0, ip, lsr #32
 694:	84080e42 	strhi	r0, [r8], #-3650	; 0xe42
 698:	00018e02 	andeq	r8, r1, r2, lsl #28
 69c:	00000014 	andeq	r0, r0, r4, lsl r0
 6a0:	00000610 	andeq	r0, r0, r0, lsl r6
 6a4:	00009c10 	andeq	r9, r0, r0, lsl ip
 6a8:	0000000c 	andeq	r0, r0, ip
 6ac:	83080e42 	movwhi	r0, #36418	; 0x8e42
 6b0:	00018e02 	andeq	r8, r1, r2, lsl #28
 6b4:	00000014 	andeq	r0, r0, r4, lsl r0
 6b8:	00000610 	andeq	r0, r0, r0, lsl r6
 6bc:	00009c1c 	andeq	r9, r0, ip, lsl ip
 6c0:	00000020 	andeq	r0, r0, r0, lsr #32
 6c4:	83080e42 	movwhi	r0, #36418	; 0x8e42
 6c8:	00018e02 	andeq	r8, r1, r2, lsl #28
 6cc:	0000000c 	andeq	r0, r0, ip
 6d0:	ffffffff 			; <UNDEFINED> instruction: 0xffffffff
 6d4:	7c020001 	stcvc	0, cr0, [r2], {1}
 6d8:	000d0c0e 	andeq	r0, sp, lr, lsl #24
 6dc:	00000014 	andeq	r0, r0, r4, lsl r0
 6e0:	000006cc 	andeq	r0, r0, ip, asr #13
 6e4:	00009c3c 	andeq	r9, r0, ip, lsr ip
 6e8:	00000068 	andeq	r0, r0, r8, rrx
 6ec:	83080e42 	movwhi	r0, #36418	; 0x8e42
 6f0:	00018e02 	andeq	r8, r1, r2, lsl #28
 6f4:	00000014 	andeq	r0, r0, r4, lsl r0
 6f8:	000006cc 	andeq	r0, r0, ip, asr #13
 6fc:	00009ca4 	andeq	r9, r0, r4, lsr #25
 700:	00000044 	andeq	r0, r0, r4, asr #32
 704:	8e040e42 	cdphi	14, 0, cr0, cr4, cr2, {2}
 708:	100e4201 	andne	r4, lr, r1, lsl #4
 70c:	0000000c 	andeq	r0, r0, ip
 710:	ffffffff 			; <UNDEFINED> instruction: 0xffffffff
 714:	7c020001 	stcvc	0, cr0, [r2], {1}
 718:	000d0c0e 	andeq	r0, sp, lr, lsl #24
 71c:	00000014 	andeq	r0, r0, r4, lsl r0
 720:	0000070c 	andeq	r0, r0, ip, lsl #14
 724:	00009e38 	andeq	r9, r0, r8, lsr lr
 728:	00000028 	andeq	r0, r0, r8, lsr #32
 72c:	83080e42 	movwhi	r0, #36418	; 0x8e42
 730:	00018e02 	andeq	r8, r1, r2, lsl #28
 734:	0000000c 	andeq	r0, r0, ip
 738:	0000070c 	andeq	r0, r0, ip, lsl #14
 73c:	00009e60 	andeq	r9, r0, r0, ror #28
 740:	00000028 	andeq	r0, r0, r8, lsr #32
 744:	0000000c 	andeq	r0, r0, ip
 748:	ffffffff 			; <UNDEFINED> instruction: 0xffffffff
 74c:	7c020001 	stcvc	0, cr0, [r2], {1}
 750:	000d0c0e 	andeq	r0, sp, lr, lsl #24
 754:	00000014 	andeq	r0, r0, r4, lsl r0
 758:	00000744 	andeq	r0, r0, r4, asr #14
 75c:	00009e88 	andeq	r9, r0, r8, lsl #29
 760:	00000044 	andeq	r0, r0, r4, asr #32
 764:	8e040e42 	cdphi	14, 0, cr0, cr4, cr2, {2}
 768:	100e4201 	andne	r4, lr, r1, lsl #4
 76c:	0000000c 	andeq	r0, r0, ip
 770:	ffffffff 			; <UNDEFINED> instruction: 0xffffffff
 774:	7c020001 	stcvc	0, cr0, [r2], {1}
 778:	000d0c0e 	andeq	r0, sp, lr, lsl #24
 77c:	00000014 	andeq	r0, r0, r4, lsl r0
 780:	0000076c 	andeq	r0, r0, ip, ror #14
 784:	00009ecc 	andeq	r9, r0, ip, asr #29
 788:	00000044 	andeq	r0, r0, r4, asr #32
 78c:	8e040e42 	cdphi	14, 0, cr0, cr4, cr2, {2}
 790:	100e4201 	andne	r4, lr, r1, lsl #4
 794:	0000000c 	andeq	r0, r0, ip
 798:	ffffffff 			; <UNDEFINED> instruction: 0xffffffff
 79c:	7c020001 	stcvc	0, cr0, [r2], {1}
 7a0:	000d0c0e 	andeq	r0, sp, lr, lsl #24
 7a4:	00000014 	andeq	r0, r0, r4, lsl r0
 7a8:	00000794 	muleq	r0, r4, r7
 7ac:	00009f10 	andeq	r9, r0, r0, lsl pc
 7b0:	00000044 	andeq	r0, r0, r4, asr #32
 7b4:	8e040e42 	cdphi	14, 0, cr0, cr4, cr2, {2}
 7b8:	100e4201 	andne	r4, lr, r1, lsl #4
 7bc:	0000000c 	andeq	r0, r0, ip
 7c0:	ffffffff 			; <UNDEFINED> instruction: 0xffffffff
 7c4:	7c020001 	stcvc	0, cr0, [r2], {1}
 7c8:	000d0c0e 	andeq	r0, sp, lr, lsl #24
 7cc:	00000014 	andeq	r0, r0, r4, lsl r0
 7d0:	000007bc 			; <UNDEFINED> instruction: 0x000007bc
 7d4:	00009f54 	andeq	r9, r0, r4, asr pc
 7d8:	00000044 	andeq	r0, r0, r4, asr #32
 7dc:	8e040e42 	cdphi	14, 0, cr0, cr4, cr2, {2}
 7e0:	100e4201 	andne	r4, lr, r1, lsl #4
 7e4:	0000000c 	andeq	r0, r0, ip
 7e8:	ffffffff 			; <UNDEFINED> instruction: 0xffffffff
 7ec:	7c020001 	stcvc	0, cr0, [r2], {1}
 7f0:	000d0c0e 	andeq	r0, sp, lr, lsl #24
 7f4:	0000000c 	andeq	r0, r0, ip
 7f8:	000007e4 	andeq	r0, r0, r4, ror #15
 7fc:	00009f98 	muleq	r0, r8, pc	; <UNPREDICTABLE>
 800:	00000020 	andeq	r0, r0, r0, lsr #32

Disassembly of section .debug_ranges:

00000000 <.debug_ranges>:
   0:	000002b4 			; <UNDEFINED> instruction: 0x000002b4
   4:	000002b8 			; <UNDEFINED> instruction: 0x000002b8
   8:	000002e8 	andeq	r0, r0, r8, ror #5
   c:	000004e0 	andeq	r0, r0, r0, ror #9
	...
  18:	00008de4 	andeq	r8, r0, r4, ror #27
  1c:	00008e58 	andeq	r8, r0, r8, asr lr
	...
