
2-logic-analyzer.elf:     file format elf32-littlearm


Disassembly of section .text:

00008000 <_start>:
    8000:	e3a0d302 	mov	sp, #134217728	; 0x8000000
    8004:	e3a0b000 	mov	fp, #0
    8008:	eb000490 	bl	9250 <_cstart>
    800c:	eb0004a7 	bl	92b0 <rpi_reboot>

00008010 <server>:
    8010:	e92d47f0 	push	{r4, r5, r6, r7, r8, r9, sl, lr}
    8014:	e1a0a002 	mov	sl, r2
    8018:	e59f3728 	ldr	r3, [pc, #1832]	; 8748 <server+0x738>
    801c:	e593201c 	ldr	r2, [r3, #28]
    8020:	e3a01001 	mov	r1, #1
    8024:	e1820011 	orr	r0, r2, r1, lsl r0
    8028:	e583001c 	str	r0, [r3, #28]
    802c:	e59f0718 	ldr	r0, [pc, #1816]	; 874c <server+0x73c>
    8030:	eb000304 	bl	8c48 <printk>
    8034:	e59f270c 	ldr	r2, [pc, #1804]	; 8748 <server+0x738>
    8038:	e5923034 	ldr	r3, [r2, #52]	; 0x34
    803c:	e3130601 	tst	r3, #1048576	; 0x100000
    8040:	0afffffc 	beq	8038 <server+0x28>
    8044:	e3a00001 	mov	r0, #1
    8048:	eb0004c2 	bl	9358 <delay_ms>
    804c:	eb0006cc 	bl	9b84 <system_enable_interrupts>
    8050:	e59f36f8 	ldr	r3, [pc, #1784]	; 8750 <server+0x740>
    8054:	e5930000 	ldr	r0, [r3]
    8058:	e6ef0070 	uxtb	r0, r0
    805c:	ee1f3f3c 	mrc	15, 0, r3, cr15, cr12, {1}
    8060:	e59f56e0 	ldr	r5, [pc, #1760]	; 8748 <server+0x738>
    8064:	e59f46e4 	ldr	r4, [pc, #1764]	; 8750 <server+0x740>
    8068:	e3a0e001 	mov	lr, #1
    806c:	e595c034 	ldr	ip, [r5, #52]	; 0x34
    8070:	e5942004 	ldr	r2, [r4, #4]
    8074:	e1a0121e 	lsl	r1, lr, r2
    8078:	e00cc001 	and	ip, ip, r1
    807c:	e1b0c23c 	lsrs	ip, ip, r2
    8080:	0afffff9 	beq	806c <server+0x5c>
    8084:	e59f26bc 	ldr	r2, [pc, #1724]	; 8748 <server+0x738>
    8088:	e592c028 	ldr	ip, [r2, #40]	; 0x28
    808c:	e181100c 	orr	r1, r1, ip
    8090:	e5821028 	str	r1, [r2, #40]	; 0x28
    8094:	e59fc6b4 	ldr	ip, [pc, #1716]	; 8750 <server+0x740>
    8098:	ee1f1f3c 	mrc	15, 0, r1, cr15, cr12, {1}
    809c:	e0631001 	rsb	r1, r3, r1
    80a0:	e59c2010 	ldr	r2, [ip, #16]
    80a4:	e1510002 	cmp	r1, r2
    80a8:	3afffffa 	bcc	8098 <server+0x88>
    80ac:	e59f269c 	ldr	r2, [pc, #1692]	; 8750 <server+0x740>
    80b0:	e5922004 	ldr	r2, [r2, #4]
    80b4:	e3100001 	tst	r0, #1
    80b8:	0a000005 	beq	80d4 <server+0xc4>
    80bc:	e59f1684 	ldr	r1, [pc, #1668]	; 8748 <server+0x738>
    80c0:	e591c01c 	ldr	ip, [r1, #28]
    80c4:	e3a0e001 	mov	lr, #1
    80c8:	e18c221e 	orr	r2, ip, lr, lsl r2
    80cc:	e581201c 	str	r2, [r1, #28]
    80d0:	ea000004 	b	80e8 <server+0xd8>
    80d4:	e59f166c 	ldr	r1, [pc, #1644]	; 8748 <server+0x738>
    80d8:	e591c028 	ldr	ip, [r1, #40]	; 0x28
    80dc:	e3a0e001 	mov	lr, #1
    80e0:	e18c221e 	orr	r2, ip, lr, lsl r2
    80e4:	e5812028 	str	r2, [r1, #40]	; 0x28
    80e8:	e59fc660 	ldr	ip, [pc, #1632]	; 8750 <server+0x740>
    80ec:	ee1f2f3c 	mrc	15, 0, r2, cr15, cr12, {1}
    80f0:	e0632002 	rsb	r2, r3, r2
    80f4:	e59c1010 	ldr	r1, [ip, #16]
    80f8:	e1520081 	cmp	r2, r1, lsl #1
    80fc:	3afffffa 	bcc	80ec <server+0xdc>
    8100:	e59f2648 	ldr	r2, [pc, #1608]	; 8750 <server+0x740>
    8104:	e5922004 	ldr	r2, [r2, #4]
    8108:	e3100002 	tst	r0, #2
    810c:	0a000005 	beq	8128 <server+0x118>
    8110:	e59f1630 	ldr	r1, [pc, #1584]	; 8748 <server+0x738>
    8114:	e591c01c 	ldr	ip, [r1, #28]
    8118:	e3a0e001 	mov	lr, #1
    811c:	e18c221e 	orr	r2, ip, lr, lsl r2
    8120:	e581201c 	str	r2, [r1, #28]
    8124:	ea000004 	b	813c <server+0x12c>
    8128:	e59f1618 	ldr	r1, [pc, #1560]	; 8748 <server+0x738>
    812c:	e591c028 	ldr	ip, [r1, #40]	; 0x28
    8130:	e3a0e001 	mov	lr, #1
    8134:	e18c221e 	orr	r2, ip, lr, lsl r2
    8138:	e5812028 	str	r2, [r1, #40]	; 0x28
    813c:	e59fc60c 	ldr	ip, [pc, #1548]	; 8750 <server+0x740>
    8140:	ee1f1f3c 	mrc	15, 0, r1, cr15, cr12, {1}
    8144:	e0631001 	rsb	r1, r3, r1
    8148:	e59c2010 	ldr	r2, [ip, #16]
    814c:	e0822082 	add	r2, r2, r2, lsl #1
    8150:	e1510002 	cmp	r1, r2
    8154:	3afffff9 	bcc	8140 <server+0x130>
    8158:	e59f25f0 	ldr	r2, [pc, #1520]	; 8750 <server+0x740>
    815c:	e5922004 	ldr	r2, [r2, #4]
    8160:	e3100004 	tst	r0, #4
    8164:	0a000005 	beq	8180 <server+0x170>
    8168:	e59f15d8 	ldr	r1, [pc, #1496]	; 8748 <server+0x738>
    816c:	e591c01c 	ldr	ip, [r1, #28]
    8170:	e3a0e001 	mov	lr, #1
    8174:	e18c221e 	orr	r2, ip, lr, lsl r2
    8178:	e581201c 	str	r2, [r1, #28]
    817c:	ea000004 	b	8194 <server+0x184>
    8180:	e59f15c0 	ldr	r1, [pc, #1472]	; 8748 <server+0x738>
    8184:	e591c028 	ldr	ip, [r1, #40]	; 0x28
    8188:	e3a0e001 	mov	lr, #1
    818c:	e18c221e 	orr	r2, ip, lr, lsl r2
    8190:	e5812028 	str	r2, [r1, #40]	; 0x28
    8194:	e59fc5b4 	ldr	ip, [pc, #1460]	; 8750 <server+0x740>
    8198:	ee1f2f3c 	mrc	15, 0, r2, cr15, cr12, {1}
    819c:	e0632002 	rsb	r2, r3, r2
    81a0:	e59c1010 	ldr	r1, [ip, #16]
    81a4:	e1520101 	cmp	r2, r1, lsl #2
    81a8:	3afffffa 	bcc	8198 <server+0x188>
    81ac:	e59f259c 	ldr	r2, [pc, #1436]	; 8750 <server+0x740>
    81b0:	e5922004 	ldr	r2, [r2, #4]
    81b4:	e3100008 	tst	r0, #8
    81b8:	0a000005 	beq	81d4 <server+0x1c4>
    81bc:	e59f1584 	ldr	r1, [pc, #1412]	; 8748 <server+0x738>
    81c0:	e591c01c 	ldr	ip, [r1, #28]
    81c4:	e3a0e001 	mov	lr, #1
    81c8:	e18c221e 	orr	r2, ip, lr, lsl r2
    81cc:	e581201c 	str	r2, [r1, #28]
    81d0:	ea000004 	b	81e8 <server+0x1d8>
    81d4:	e59f156c 	ldr	r1, [pc, #1388]	; 8748 <server+0x738>
    81d8:	e591c028 	ldr	ip, [r1, #40]	; 0x28
    81dc:	e3a0e001 	mov	lr, #1
    81e0:	e18c221e 	orr	r2, ip, lr, lsl r2
    81e4:	e5812028 	str	r2, [r1, #40]	; 0x28
    81e8:	e59fc560 	ldr	ip, [pc, #1376]	; 8750 <server+0x740>
    81ec:	ee1f1f3c 	mrc	15, 0, r1, cr15, cr12, {1}
    81f0:	e0631001 	rsb	r1, r3, r1
    81f4:	e59c2010 	ldr	r2, [ip, #16]
    81f8:	e0822102 	add	r2, r2, r2, lsl #2
    81fc:	e1510002 	cmp	r1, r2
    8200:	3afffff9 	bcc	81ec <server+0x1dc>
    8204:	e59f2544 	ldr	r2, [pc, #1348]	; 8750 <server+0x740>
    8208:	e5922004 	ldr	r2, [r2, #4]
    820c:	e3100010 	tst	r0, #16
    8210:	0a000005 	beq	822c <server+0x21c>
    8214:	e59f152c 	ldr	r1, [pc, #1324]	; 8748 <server+0x738>
    8218:	e591c01c 	ldr	ip, [r1, #28]
    821c:	e3a0e001 	mov	lr, #1
    8220:	e18c221e 	orr	r2, ip, lr, lsl r2
    8224:	e581201c 	str	r2, [r1, #28]
    8228:	ea000004 	b	8240 <server+0x230>
    822c:	e59f1514 	ldr	r1, [pc, #1300]	; 8748 <server+0x738>
    8230:	e591c028 	ldr	ip, [r1, #40]	; 0x28
    8234:	e3a0e001 	mov	lr, #1
    8238:	e18c221e 	orr	r2, ip, lr, lsl r2
    823c:	e5812028 	str	r2, [r1, #40]	; 0x28
    8240:	e59fc508 	ldr	ip, [pc, #1288]	; 8750 <server+0x740>
    8244:	ee1f1f3c 	mrc	15, 0, r1, cr15, cr12, {1}
    8248:	e0631001 	rsb	r1, r3, r1
    824c:	e59c2010 	ldr	r2, [ip, #16]
    8250:	e0822082 	add	r2, r2, r2, lsl #1
    8254:	e1a02082 	lsl	r2, r2, #1
    8258:	e1510002 	cmp	r1, r2
    825c:	3afffff8 	bcc	8244 <server+0x234>
    8260:	e59f24e8 	ldr	r2, [pc, #1256]	; 8750 <server+0x740>
    8264:	e5922004 	ldr	r2, [r2, #4]
    8268:	e3100020 	tst	r0, #32
    826c:	0a000005 	beq	8288 <server+0x278>
    8270:	e59f14d0 	ldr	r1, [pc, #1232]	; 8748 <server+0x738>
    8274:	e591c01c 	ldr	ip, [r1, #28]
    8278:	e3a0e001 	mov	lr, #1
    827c:	e18c221e 	orr	r2, ip, lr, lsl r2
    8280:	e581201c 	str	r2, [r1, #28]
    8284:	ea000004 	b	829c <server+0x28c>
    8288:	e59f14b8 	ldr	r1, [pc, #1208]	; 8748 <server+0x738>
    828c:	e591c028 	ldr	ip, [r1, #40]	; 0x28
    8290:	e3a0e001 	mov	lr, #1
    8294:	e18c221e 	orr	r2, ip, lr, lsl r2
    8298:	e5812028 	str	r2, [r1, #40]	; 0x28
    829c:	e59fc4ac 	ldr	ip, [pc, #1196]	; 8750 <server+0x740>
    82a0:	ee1f1f3c 	mrc	15, 0, r1, cr15, cr12, {1}
    82a4:	e0631001 	rsb	r1, r3, r1
    82a8:	e59c2010 	ldr	r2, [ip, #16]
    82ac:	e0622182 	rsb	r2, r2, r2, lsl #3
    82b0:	e1510002 	cmp	r1, r2
    82b4:	3afffff9 	bcc	82a0 <server+0x290>
    82b8:	e59f2490 	ldr	r2, [pc, #1168]	; 8750 <server+0x740>
    82bc:	e5922004 	ldr	r2, [r2, #4]
    82c0:	e3100040 	tst	r0, #64	; 0x40
    82c4:	0a000005 	beq	82e0 <server+0x2d0>
    82c8:	e59f1478 	ldr	r1, [pc, #1144]	; 8748 <server+0x738>
    82cc:	e591c01c 	ldr	ip, [r1, #28]
    82d0:	e3a0e001 	mov	lr, #1
    82d4:	e18c221e 	orr	r2, ip, lr, lsl r2
    82d8:	e581201c 	str	r2, [r1, #28]
    82dc:	ea000004 	b	82f4 <server+0x2e4>
    82e0:	e59f1460 	ldr	r1, [pc, #1120]	; 8748 <server+0x738>
    82e4:	e591c028 	ldr	ip, [r1, #40]	; 0x28
    82e8:	e3a0e001 	mov	lr, #1
    82ec:	e18c221e 	orr	r2, ip, lr, lsl r2
    82f0:	e5812028 	str	r2, [r1, #40]	; 0x28
    82f4:	e59fc454 	ldr	ip, [pc, #1108]	; 8750 <server+0x740>
    82f8:	ee1f2f3c 	mrc	15, 0, r2, cr15, cr12, {1}
    82fc:	e0632002 	rsb	r2, r3, r2
    8300:	e59c1010 	ldr	r1, [ip, #16]
    8304:	e1520181 	cmp	r2, r1, lsl #3
    8308:	3afffffa 	bcc	82f8 <server+0x2e8>
    830c:	e59f243c 	ldr	r2, [pc, #1084]	; 8750 <server+0x740>
    8310:	e5922004 	ldr	r2, [r2, #4]
    8314:	e3100080 	tst	r0, #128	; 0x80
    8318:	0a000005 	beq	8334 <server+0x324>
    831c:	e59f1424 	ldr	r1, [pc, #1060]	; 8748 <server+0x738>
    8320:	e591001c 	ldr	r0, [r1, #28]
    8324:	e3a0c001 	mov	ip, #1
    8328:	e180221c 	orr	r2, r0, ip, lsl r2
    832c:	e581201c 	str	r2, [r1, #28]
    8330:	ea000004 	b	8348 <server+0x338>
    8334:	e59f140c 	ldr	r1, [pc, #1036]	; 8748 <server+0x738>
    8338:	e5910028 	ldr	r0, [r1, #40]	; 0x28
    833c:	e3a0c001 	mov	ip, #1
    8340:	e180221c 	orr	r2, r0, ip, lsl r2
    8344:	e5812028 	str	r2, [r1, #40]	; 0x28
    8348:	e59f0400 	ldr	r0, [pc, #1024]	; 8750 <server+0x740>
    834c:	ee1f1f3c 	mrc	15, 0, r1, cr15, cr12, {1}
    8350:	e0631001 	rsb	r1, r3, r1
    8354:	e5902010 	ldr	r2, [r0, #16]
    8358:	e0822182 	add	r2, r2, r2, lsl #3
    835c:	e1510002 	cmp	r1, r2
    8360:	3afffff9 	bcc	834c <server+0x33c>
    8364:	e59f23e4 	ldr	r2, [pc, #996]	; 8750 <server+0x740>
    8368:	e5921004 	ldr	r1, [r2, #4]
    836c:	e59f23d4 	ldr	r2, [pc, #980]	; 8748 <server+0x738>
    8370:	e592001c 	ldr	r0, [r2, #28]
    8374:	e3a0c001 	mov	ip, #1
    8378:	e180111c 	orr	r1, r0, ip, lsl r1
    837c:	e582101c 	str	r1, [r2, #28]
    8380:	e59f03c8 	ldr	r0, [pc, #968]	; 8750 <server+0x740>
    8384:	ee1f1f3c 	mrc	15, 0, r1, cr15, cr12, {1}
    8388:	e0631001 	rsb	r1, r3, r1
    838c:	e5902010 	ldr	r2, [r0, #16]
    8390:	e0822102 	add	r2, r2, r2, lsl #2
    8394:	e1a02082 	lsl	r2, r2, #1
    8398:	e1510002 	cmp	r1, r2
    839c:	3afffff8 	bcc	8384 <server+0x374>
    83a0:	ea0000d7 	b	8704 <server+0x6f4>
    83a4:	e7942007 	ldr	r2, [r4, r7]
    83a8:	e7943006 	ldr	r3, [r4, r6]
    83ac:	e1520003 	cmp	r2, r3
    83b0:	0a000009 	beq	83dc <server+0x3cc>
    83b4:	e7942006 	ldr	r2, [r4, r6]
    83b8:	e0843002 	add	r3, r4, r2
    83bc:	e5d33014 	ldrb	r3, [r3, #20]
    83c0:	e6ef3073 	uxtb	r3, r3
    83c4:	e2822001 	add	r2, r2, #1
    83c8:	e1a02982 	lsl	r2, r2, #19
    83cc:	e1a029a2 	lsr	r2, r2, #19
    83d0:	e7842006 	str	r2, [r4, r6]
    83d4:	e3a02001 	mov	r2, #1
    83d8:	ea000001 	b	83e4 <server+0x3d4>
    83dc:	e3a03000 	mov	r3, #0
    83e0:	e1a02003 	mov	r2, r3
    83e4:	e3520000 	cmp	r2, #0
    83e8:	1a000006 	bne	8408 <server+0x3f8>
    83ec:	eb000230 	bl	8cb4 <rpi_reset_putc>
    83f0:	e59f035c 	ldr	r0, [pc, #860]	; 8754 <server+0x744>
    83f4:	e59f135c 	ldr	r1, [pc, #860]	; 8758 <server+0x748>
    83f8:	e59f235c 	ldr	r2, [pc, #860]	; 875c <server+0x74c>
    83fc:	e3a03051 	mov	r3, #81	; 0x51
    8400:	eb000210 	bl	8c48 <printk>
    8404:	eb000387 	bl	9228 <clean_reboot>
    8408:	e5883030 	str	r3, [r8, #48]	; 0x30
    840c:	e5942000 	ldr	r2, [r4]
    8410:	e1530002 	cmp	r3, r2
    8414:	0a000004 	beq	842c <server+0x41c>
    8418:	e5981030 	ldr	r1, [r8, #48]	; 0x30
    841c:	e5942000 	ldr	r2, [r4]
    8420:	e1a00009 	mov	r0, r9
    8424:	eb000207 	bl	8c48 <printk>
    8428:	ea0000b0 	b	86f0 <server+0x6e0>
    842c:	eb0005d8 	bl	9b94 <system_disable_interrupts>
    8430:	e5943000 	ldr	r3, [r4]
    8434:	e2833001 	add	r3, r3, #1
    8438:	e5843000 	str	r3, [r4]
    843c:	e5941000 	ldr	r1, [r4]
    8440:	e6ef1071 	uxtb	r1, r1
    8444:	ee1f3f3c 	mrc	15, 0, r3, cr15, cr12, {1}
    8448:	e3a0e001 	mov	lr, #1
    844c:	e595c034 	ldr	ip, [r5, #52]	; 0x34
    8450:	e5942004 	ldr	r2, [r4, #4]
    8454:	e1a0021e 	lsl	r0, lr, r2
    8458:	e00cc000 	and	ip, ip, r0
    845c:	e1b0c23c 	lsrs	ip, ip, r2
    8460:	0afffff9 	beq	844c <server+0x43c>
    8464:	e5952028 	ldr	r2, [r5, #40]	; 0x28
    8468:	e1800002 	orr	r0, r0, r2
    846c:	e5850028 	str	r0, [r5, #40]	; 0x28
    8470:	ee1f0f3c 	mrc	15, 0, r0, cr15, cr12, {1}
    8474:	e0630000 	rsb	r0, r3, r0
    8478:	e5942010 	ldr	r2, [r4, #16]
    847c:	e1500002 	cmp	r0, r2
    8480:	3afffffa 	bcc	8470 <server+0x460>
    8484:	e5942004 	ldr	r2, [r4, #4]
    8488:	e3110001 	tst	r1, #1
    848c:	0a000004 	beq	84a4 <server+0x494>
    8490:	e595001c 	ldr	r0, [r5, #28]
    8494:	e3a0c001 	mov	ip, #1
    8498:	e180221c 	orr	r2, r0, ip, lsl r2
    849c:	e585201c 	str	r2, [r5, #28]
    84a0:	ea000003 	b	84b4 <server+0x4a4>
    84a4:	e5950028 	ldr	r0, [r5, #40]	; 0x28
    84a8:	e3a0c001 	mov	ip, #1
    84ac:	e180221c 	orr	r2, r0, ip, lsl r2
    84b0:	e5852028 	str	r2, [r5, #40]	; 0x28
    84b4:	ee1f2f3c 	mrc	15, 0, r2, cr15, cr12, {1}
    84b8:	e0632002 	rsb	r2, r3, r2
    84bc:	e5940010 	ldr	r0, [r4, #16]
    84c0:	e1520080 	cmp	r2, r0, lsl #1
    84c4:	3afffffa 	bcc	84b4 <server+0x4a4>
    84c8:	e5942004 	ldr	r2, [r4, #4]
    84cc:	e3110002 	tst	r1, #2
    84d0:	0a000004 	beq	84e8 <server+0x4d8>
    84d4:	e595001c 	ldr	r0, [r5, #28]
    84d8:	e3a0c001 	mov	ip, #1
    84dc:	e180221c 	orr	r2, r0, ip, lsl r2
    84e0:	e585201c 	str	r2, [r5, #28]
    84e4:	ea000003 	b	84f8 <server+0x4e8>
    84e8:	e5950028 	ldr	r0, [r5, #40]	; 0x28
    84ec:	e3a0c001 	mov	ip, #1
    84f0:	e180221c 	orr	r2, r0, ip, lsl r2
    84f4:	e5852028 	str	r2, [r5, #40]	; 0x28
    84f8:	ee1f0f3c 	mrc	15, 0, r0, cr15, cr12, {1}
    84fc:	e0630000 	rsb	r0, r3, r0
    8500:	e5942010 	ldr	r2, [r4, #16]
    8504:	e0822082 	add	r2, r2, r2, lsl #1
    8508:	e1500002 	cmp	r0, r2
    850c:	3afffff9 	bcc	84f8 <server+0x4e8>
    8510:	e5942004 	ldr	r2, [r4, #4]
    8514:	e3110004 	tst	r1, #4
    8518:	0a000004 	beq	8530 <server+0x520>
    851c:	e595001c 	ldr	r0, [r5, #28]
    8520:	e3a0c001 	mov	ip, #1
    8524:	e180221c 	orr	r2, r0, ip, lsl r2
    8528:	e585201c 	str	r2, [r5, #28]
    852c:	ea000003 	b	8540 <server+0x530>
    8530:	e5950028 	ldr	r0, [r5, #40]	; 0x28
    8534:	e3a0c001 	mov	ip, #1
    8538:	e180221c 	orr	r2, r0, ip, lsl r2
    853c:	e5852028 	str	r2, [r5, #40]	; 0x28
    8540:	ee1f2f3c 	mrc	15, 0, r2, cr15, cr12, {1}
    8544:	e0632002 	rsb	r2, r3, r2
    8548:	e5940010 	ldr	r0, [r4, #16]
    854c:	e1520100 	cmp	r2, r0, lsl #2
    8550:	3afffffa 	bcc	8540 <server+0x530>
    8554:	e5942004 	ldr	r2, [r4, #4]
    8558:	e3110008 	tst	r1, #8
    855c:	0a000004 	beq	8574 <server+0x564>
    8560:	e595001c 	ldr	r0, [r5, #28]
    8564:	e3a0c001 	mov	ip, #1
    8568:	e180221c 	orr	r2, r0, ip, lsl r2
    856c:	e585201c 	str	r2, [r5, #28]
    8570:	ea000003 	b	8584 <server+0x574>
    8574:	e5950028 	ldr	r0, [r5, #40]	; 0x28
    8578:	e3a0c001 	mov	ip, #1
    857c:	e180221c 	orr	r2, r0, ip, lsl r2
    8580:	e5852028 	str	r2, [r5, #40]	; 0x28
    8584:	ee1f0f3c 	mrc	15, 0, r0, cr15, cr12, {1}
    8588:	e0630000 	rsb	r0, r3, r0
    858c:	e5942010 	ldr	r2, [r4, #16]
    8590:	e0822102 	add	r2, r2, r2, lsl #2
    8594:	e1500002 	cmp	r0, r2
    8598:	3afffff9 	bcc	8584 <server+0x574>
    859c:	e5942004 	ldr	r2, [r4, #4]
    85a0:	e3110010 	tst	r1, #16
    85a4:	0a000004 	beq	85bc <server+0x5ac>
    85a8:	e595001c 	ldr	r0, [r5, #28]
    85ac:	e3a0c001 	mov	ip, #1
    85b0:	e180221c 	orr	r2, r0, ip, lsl r2
    85b4:	e585201c 	str	r2, [r5, #28]
    85b8:	ea000003 	b	85cc <server+0x5bc>
    85bc:	e5950028 	ldr	r0, [r5, #40]	; 0x28
    85c0:	e3a0c001 	mov	ip, #1
    85c4:	e180221c 	orr	r2, r0, ip, lsl r2
    85c8:	e5852028 	str	r2, [r5, #40]	; 0x28
    85cc:	ee1f0f3c 	mrc	15, 0, r0, cr15, cr12, {1}
    85d0:	e0630000 	rsb	r0, r3, r0
    85d4:	e5942010 	ldr	r2, [r4, #16]
    85d8:	e0822082 	add	r2, r2, r2, lsl #1
    85dc:	e1a02082 	lsl	r2, r2, #1
    85e0:	e1500002 	cmp	r0, r2
    85e4:	3afffff8 	bcc	85cc <server+0x5bc>
    85e8:	e5942004 	ldr	r2, [r4, #4]
    85ec:	e3110020 	tst	r1, #32
    85f0:	0a000004 	beq	8608 <server+0x5f8>
    85f4:	e595001c 	ldr	r0, [r5, #28]
    85f8:	e3a0c001 	mov	ip, #1
    85fc:	e180221c 	orr	r2, r0, ip, lsl r2
    8600:	e585201c 	str	r2, [r5, #28]
    8604:	ea000003 	b	8618 <server+0x608>
    8608:	e5950028 	ldr	r0, [r5, #40]	; 0x28
    860c:	e3a0c001 	mov	ip, #1
    8610:	e180221c 	orr	r2, r0, ip, lsl r2
    8614:	e5852028 	str	r2, [r5, #40]	; 0x28
    8618:	ee1f0f3c 	mrc	15, 0, r0, cr15, cr12, {1}
    861c:	e0630000 	rsb	r0, r3, r0
    8620:	e5942010 	ldr	r2, [r4, #16]
    8624:	e0622182 	rsb	r2, r2, r2, lsl #3
    8628:	e1500002 	cmp	r0, r2
    862c:	3afffff9 	bcc	8618 <server+0x608>
    8630:	e5942004 	ldr	r2, [r4, #4]
    8634:	e3110040 	tst	r1, #64	; 0x40
    8638:	0a000004 	beq	8650 <server+0x640>
    863c:	e595001c 	ldr	r0, [r5, #28]
    8640:	e3a0c001 	mov	ip, #1
    8644:	e180221c 	orr	r2, r0, ip, lsl r2
    8648:	e585201c 	str	r2, [r5, #28]
    864c:	ea000003 	b	8660 <server+0x650>
    8650:	e5950028 	ldr	r0, [r5, #40]	; 0x28
    8654:	e3a0c001 	mov	ip, #1
    8658:	e180221c 	orr	r2, r0, ip, lsl r2
    865c:	e5852028 	str	r2, [r5, #40]	; 0x28
    8660:	ee1f2f3c 	mrc	15, 0, r2, cr15, cr12, {1}
    8664:	e0632002 	rsb	r2, r3, r2
    8668:	e5940010 	ldr	r0, [r4, #16]
    866c:	e1520180 	cmp	r2, r0, lsl #3
    8670:	3afffffa 	bcc	8660 <server+0x650>
    8674:	e5942004 	ldr	r2, [r4, #4]
    8678:	e3110080 	tst	r1, #128	; 0x80
    867c:	0a000004 	beq	8694 <server+0x684>
    8680:	e595101c 	ldr	r1, [r5, #28]
    8684:	e3a00001 	mov	r0, #1
    8688:	e1812210 	orr	r2, r1, r0, lsl r2
    868c:	e585201c 	str	r2, [r5, #28]
    8690:	ea000003 	b	86a4 <server+0x694>
    8694:	e5951028 	ldr	r1, [r5, #40]	; 0x28
    8698:	e3a00001 	mov	r0, #1
    869c:	e1812210 	orr	r2, r1, r0, lsl r2
    86a0:	e5852028 	str	r2, [r5, #40]	; 0x28
    86a4:	ee1f1f3c 	mrc	15, 0, r1, cr15, cr12, {1}
    86a8:	e0631001 	rsb	r1, r3, r1
    86ac:	e5942010 	ldr	r2, [r4, #16]
    86b0:	e0822182 	add	r2, r2, r2, lsl #3
    86b4:	e1510002 	cmp	r1, r2
    86b8:	3afffff9 	bcc	86a4 <server+0x694>
    86bc:	e5942004 	ldr	r2, [r4, #4]
    86c0:	e595101c 	ldr	r1, [r5, #28]
    86c4:	e3a00001 	mov	r0, #1
    86c8:	e1812210 	orr	r2, r1, r0, lsl r2
    86cc:	e585201c 	str	r2, [r5, #28]
    86d0:	ee1f1f3c 	mrc	15, 0, r1, cr15, cr12, {1}
    86d4:	e0631001 	rsb	r1, r3, r1
    86d8:	e5942010 	ldr	r2, [r4, #16]
    86dc:	e0822102 	add	r2, r2, r2, lsl #2
    86e0:	e1a02082 	lsl	r2, r2, #1
    86e4:	e1510002 	cmp	r1, r2
    86e8:	3afffff8 	bcc	86d0 <server+0x6c0>
    86ec:	eb000524 	bl	9b84 <system_enable_interrupts>
    86f0:	e7942007 	ldr	r2, [r4, r7]
    86f4:	e7943006 	ldr	r3, [r4, r6]
    86f8:	e1520003 	cmp	r2, r3
    86fc:	1affff28 	bne	83a4 <server+0x394>
    8700:	ea000005 	b	871c <server+0x70c>
    8704:	e59f4044 	ldr	r4, [pc, #68]	; 8750 <server+0x740>
    8708:	e59f7050 	ldr	r7, [pc, #80]	; 8760 <server+0x750>
    870c:	e59f6050 	ldr	r6, [pc, #80]	; 8764 <server+0x754>
    8710:	e59f8050 	ldr	r8, [pc, #80]	; 8768 <server+0x758>
    8714:	e59f502c 	ldr	r5, [pc, #44]	; 8748 <server+0x738>
    8718:	e59f904c 	ldr	r9, [pc, #76]	; 876c <server+0x75c>
    871c:	e5943000 	ldr	r3, [r4]
    8720:	e153000a 	cmp	r3, sl
    8724:	3afffff1 	bcc	86f0 <server+0x6e0>
    8728:	eb000519 	bl	9b94 <system_disable_interrupts>
    872c:	e59f301c 	ldr	r3, [pc, #28]	; 8750 <server+0x740>
    8730:	e5931000 	ldr	r1, [r3]
    8734:	e2411001 	sub	r1, r1, #1
    8738:	e5831000 	str	r1, [r3]
    873c:	e59f002c 	ldr	r0, [pc, #44]	; 8770 <server+0x760>
    8740:	eb000140 	bl	8c48 <printk>
    8744:	e8bd87f0 	pop	{r4, r5, r6, r7, r8, r9, sl, pc}
    8748:	20200000 	eorcs	r0, r0, r0
    874c:	00009e40 	andeq	r9, r0, r0, asr #28
    8750:	0000a2d4 	ldrdeq	sl, [r0], -r4
    8754:	00009e50 	andeq	r9, r0, r0, asr lr
    8758:	00009e90 	muleq	r0, r0, lr
    875c:	00009e20 	andeq	r9, r0, r0, lsr #28
    8760:	00002018 	andeq	r2, r0, r8, lsl r0
    8764:	0000201c 	andeq	r2, r0, ip, lsl r0
    8768:	0000c2cc 	andeq	ip, r0, ip, asr #5
    876c:	00009ee4 	andeq	r9, r0, r4, ror #29
    8770:	00009f08 	andeq	r9, r0, r8, lsl #30

00008774 <cycles_per_sec>:
    8774:	e92d4010 	push	{r4, lr}
    8778:	e3500001 	cmp	r0, #1
    877c:	9a000006 	bls	879c <cycles_per_sec+0x28>
    8780:	eb00014b 	bl	8cb4 <rpi_reset_putc>
    8784:	e59f002c 	ldr	r0, [pc, #44]	; 87b8 <cycles_per_sec+0x44>
    8788:	e59f102c 	ldr	r1, [pc, #44]	; 87bc <cycles_per_sec+0x48>
    878c:	e59f202c 	ldr	r2, [pc, #44]	; 87c0 <cycles_per_sec+0x4c>
    8790:	e3a0304f 	mov	r3, #79	; 0x4f
    8794:	eb00012b 	bl	8c48 <printk>
    8798:	eb0002a2 	bl	9228 <clean_reboot>
    879c:	ee1f4f3c 	mrc	15, 0, r4, cr15, cr12, {1}
    87a0:	e3a03ffa 	mov	r3, #1000	; 0x3e8
    87a4:	e0000093 	mul	r0, r3, r0
    87a8:	eb0002ea 	bl	9358 <delay_ms>
    87ac:	ee1f0f3c 	mrc	15, 0, r0, cr15, cr12, {1}
    87b0:	e0640000 	rsb	r0, r4, r0
    87b4:	e8bd8010 	pop	{r4, pc}
    87b8:	00009f24 	andeq	r9, r0, r4, lsr #30
    87bc:	00009f54 	andeq	r9, r0, r4, asr pc
    87c0:	00009e28 	andeq	r9, r0, r8, lsr #28

000087c4 <interrupt_vector>:
    87c4:	e92d40f8 	push	{r3, r4, r5, r6, r7, lr}
    87c8:	eb0004d4 	bl	9b20 <dev_barrier>
    87cc:	e59f3220 	ldr	r3, [pc, #544]	; 89f4 <interrupt_vector+0x230>
    87d0:	e593e010 	ldr	lr, [r3, #16]
    87d4:	e1a0c0ae 	lsr	ip, lr, #1
    87d8:	e59f5218 	ldr	r5, [pc, #536]	; 89f8 <interrupt_vector+0x234>
    87dc:	e1a04003 	mov	r4, r3
    87e0:	e3a00001 	mov	r0, #1
    87e4:	e5953034 	ldr	r3, [r5, #52]	; 0x34
    87e8:	e5942008 	ldr	r2, [r4, #8]
    87ec:	e1a01210 	lsl	r1, r0, r2
    87f0:	e0033001 	and	r3, r3, r1
    87f4:	e1b03233 	lsrs	r3, r3, r2
    87f8:	1afffff9 	bne	87e4 <interrupt_vector+0x20>
    87fc:	ee1f3f3c 	mrc	15, 0, r3, cr15, cr12, {1}
    8800:	ee1f0f3c 	mrc	15, 0, r0, cr15, cr12, {1}
    8804:	e0630000 	rsb	r0, r3, r0
    8808:	e15c0000 	cmp	ip, r0
    880c:	8afffffb 	bhi	8800 <interrupt_vector+0x3c>
    8810:	e08e400c 	add	r4, lr, ip
    8814:	ee1f0f3c 	mrc	15, 0, r0, cr15, cr12, {1}
    8818:	e0630000 	rsb	r0, r3, r0
    881c:	e1500004 	cmp	r0, r4
    8820:	3afffffb 	bcc	8814 <interrupt_vector+0x50>
    8824:	e59f01cc 	ldr	r0, [pc, #460]	; 89f8 <interrupt_vector+0x234>
    8828:	e5905034 	ldr	r5, [r0, #52]	; 0x34
    882c:	e0015005 	and	r5, r1, r5
    8830:	e1a05235 	lsr	r5, r5, r2
    8834:	e1a05385 	lsl	r5, r5, #7
    8838:	e6ef5075 	uxtb	r5, r5
    883c:	e08c408e 	add	r4, ip, lr, lsl #1
    8840:	ee1f0f3c 	mrc	15, 0, r0, cr15, cr12, {1}
    8844:	e0630000 	rsb	r0, r3, r0
    8848:	e1500004 	cmp	r0, r4
    884c:	3afffffb 	bcc	8840 <interrupt_vector+0x7c>
    8850:	e59f01a0 	ldr	r0, [pc, #416]	; 89f8 <interrupt_vector+0x234>
    8854:	e5907034 	ldr	r7, [r0, #52]	; 0x34
    8858:	e0017007 	and	r7, r1, r7
    885c:	e1a07237 	lsr	r7, r7, r2
    8860:	e2077001 	and	r7, r7, #1
    8864:	e1857307 	orr	r7, r5, r7, lsl #6
    8868:	e08e408e 	add	r4, lr, lr, lsl #1
    886c:	e08c4004 	add	r4, ip, r4
    8870:	ee1f0f3c 	mrc	15, 0, r0, cr15, cr12, {1}
    8874:	e0630000 	rsb	r0, r3, r0
    8878:	e1500004 	cmp	r0, r4
    887c:	3afffffb 	bcc	8870 <interrupt_vector+0xac>
    8880:	e59f0170 	ldr	r0, [pc, #368]	; 89f8 <interrupt_vector+0x234>
    8884:	e5906034 	ldr	r6, [r0, #52]	; 0x34
    8888:	e0016006 	and	r6, r1, r6
    888c:	e1a06236 	lsr	r6, r6, r2
    8890:	e2066001 	and	r6, r6, #1
    8894:	e1876286 	orr	r6, r7, r6, lsl #5
    8898:	e08c410e 	add	r4, ip, lr, lsl #2
    889c:	ee1f0f3c 	mrc	15, 0, r0, cr15, cr12, {1}
    88a0:	e0630000 	rsb	r0, r3, r0
    88a4:	e1500004 	cmp	r0, r4
    88a8:	3afffffb 	bcc	889c <interrupt_vector+0xd8>
    88ac:	e59f0144 	ldr	r0, [pc, #324]	; 89f8 <interrupt_vector+0x234>
    88b0:	e5905034 	ldr	r5, [r0, #52]	; 0x34
    88b4:	e0015005 	and	r5, r1, r5
    88b8:	e1a05235 	lsr	r5, r5, r2
    88bc:	e2055001 	and	r5, r5, #1
    88c0:	e1865205 	orr	r5, r6, r5, lsl #4
    88c4:	e08e410e 	add	r4, lr, lr, lsl #2
    88c8:	e08c4004 	add	r4, ip, r4
    88cc:	ee1f0f3c 	mrc	15, 0, r0, cr15, cr12, {1}
    88d0:	e0630000 	rsb	r0, r3, r0
    88d4:	e1500004 	cmp	r0, r4
    88d8:	3afffffb 	bcc	88cc <interrupt_vector+0x108>
    88dc:	e59f0114 	ldr	r0, [pc, #276]	; 89f8 <interrupt_vector+0x234>
    88e0:	e5907034 	ldr	r7, [r0, #52]	; 0x34
    88e4:	e0017007 	and	r7, r1, r7
    88e8:	e1a07237 	lsr	r7, r7, r2
    88ec:	e2077001 	and	r7, r7, #1
    88f0:	e1857187 	orr	r7, r5, r7, lsl #3
    88f4:	e08e408e 	add	r4, lr, lr, lsl #1
    88f8:	e08c4084 	add	r4, ip, r4, lsl #1
    88fc:	ee1f0f3c 	mrc	15, 0, r0, cr15, cr12, {1}
    8900:	e0630000 	rsb	r0, r3, r0
    8904:	e1500004 	cmp	r0, r4
    8908:	3afffffb 	bcc	88fc <interrupt_vector+0x138>
    890c:	e59f00e4 	ldr	r0, [pc, #228]	; 89f8 <interrupt_vector+0x234>
    8910:	e5906034 	ldr	r6, [r0, #52]	; 0x34
    8914:	e0016006 	and	r6, r1, r6
    8918:	e1a06236 	lsr	r6, r6, r2
    891c:	e2066001 	and	r6, r6, #1
    8920:	e1876106 	orr	r6, r7, r6, lsl #2
    8924:	e06e418e 	rsb	r4, lr, lr, lsl #3
    8928:	e08c4004 	add	r4, ip, r4
    892c:	ee1f0f3c 	mrc	15, 0, r0, cr15, cr12, {1}
    8930:	e0630000 	rsb	r0, r3, r0
    8934:	e1500004 	cmp	r0, r4
    8938:	3afffffb 	bcc	892c <interrupt_vector+0x168>
    893c:	e59f00b4 	ldr	r0, [pc, #180]	; 89f8 <interrupt_vector+0x234>
    8940:	e5905034 	ldr	r5, [r0, #52]	; 0x34
    8944:	e0015005 	and	r5, r1, r5
    8948:	e1a05235 	lsr	r5, r5, r2
    894c:	e2055001 	and	r5, r5, #1
    8950:	e1865085 	orr	r5, r6, r5, lsl #1
    8954:	e08c418e 	add	r4, ip, lr, lsl #3
    8958:	ee1f0f3c 	mrc	15, 0, r0, cr15, cr12, {1}
    895c:	e0630000 	rsb	r0, r3, r0
    8960:	e1500004 	cmp	r0, r4
    8964:	3afffffb 	bcc	8958 <interrupt_vector+0x194>
    8968:	e59f0088 	ldr	r0, [pc, #136]	; 89f8 <interrupt_vector+0x234>
    896c:	e5900034 	ldr	r0, [r0, #52]	; 0x34
    8970:	e0011000 	and	r1, r1, r0
    8974:	e1a02231 	lsr	r2, r1, r2
    8978:	e2022001 	and	r2, r2, #1
    897c:	e1852002 	orr	r2, r5, r2
    8980:	e08ee18e 	add	lr, lr, lr, lsl #3
    8984:	e08cc00e 	add	ip, ip, lr
    8988:	ee1f1f3c 	mrc	15, 0, r1, cr15, cr12, {1}
    898c:	e0631001 	rsb	r1, r3, r1
    8990:	e151000c 	cmp	r1, ip
    8994:	3afffffb 	bcc	8988 <interrupt_vector+0x1c4>
    8998:	e6efc072 	uxtb	ip, r2
    899c:	e59f3050 	ldr	r3, [pc, #80]	; 89f4 <interrupt_vector+0x230>
    89a0:	e59f2054 	ldr	r2, [pc, #84]	; 89fc <interrupt_vector+0x238>
    89a4:	e7931002 	ldr	r1, [r3, r2]
    89a8:	e7932002 	ldr	r2, [r3, r2]
    89ac:	e2822001 	add	r2, r2, #1
    89b0:	e1a02982 	lsl	r2, r2, #19
    89b4:	e59f0044 	ldr	r0, [pc, #68]	; 8a00 <interrupt_vector+0x23c>
    89b8:	e7933000 	ldr	r3, [r3, r0]
    89bc:	e15309a2 	cmp	r3, r2, lsr #19
    89c0:	0a000007 	beq	89e4 <interrupt_vector+0x220>
    89c4:	e59f3028 	ldr	r3, [pc, #40]	; 89f4 <interrupt_vector+0x230>
    89c8:	e0832001 	add	r2, r3, r1
    89cc:	e5c2c014 	strb	ip, [r2, #20]
    89d0:	e2811001 	add	r1, r1, #1
    89d4:	e1a01981 	lsl	r1, r1, #19
    89d8:	e1a019a1 	lsr	r1, r1, #19
    89dc:	e59f2018 	ldr	r2, [pc, #24]	; 89fc <interrupt_vector+0x238>
    89e0:	e7831002 	str	r1, [r3, r2]
    89e4:	e3a00014 	mov	r0, #20
    89e8:	eb0003b6 	bl	98c8 <gpio_event_clear>
    89ec:	eb00044b 	bl	9b20 <dev_barrier>
    89f0:	e8bd80f8 	pop	{r3, r4, r5, r6, r7, pc}
    89f4:	0000a2d4 	ldrdeq	sl, [r0], -r4
    89f8:	20200000 	eorcs	r0, r0, r0
    89fc:	00002018 	andeq	r2, r0, r8, lsl r0
    8a00:	0000201c 	andeq	r2, r0, ip, lsl r0

00008a04 <notmain>:
    8a04:	e92d4038 	push	{r3, r4, r5, lr}
    8a08:	eb0003c4 	bl	9920 <uart_init>
    8a0c:	eb000418 	bl	9a74 <int_init>
    8a10:	e3a00015 	mov	r0, #21
    8a14:	eb000259 	bl	9380 <gpio_set_output>
    8a18:	e3a00014 	mov	r0, #20
    8a1c:	eb0002a8 	bl	94c4 <gpio_set_input>
    8a20:	e59f41c8 	ldr	r4, [pc, #456]	; 8bf0 <notmain+0x1ec>
    8a24:	e3a03015 	mov	r3, #21
    8a28:	e5843004 	str	r3, [r4, #4]
    8a2c:	e3a00014 	mov	r0, #20
    8a30:	e5840008 	str	r0, [r4, #8]
    8a34:	e3a03be1 	mov	r3, #230400	; 0x38400
    8a38:	e584300c 	str	r3, [r4, #12]
    8a3c:	e59f31b0 	ldr	r3, [pc, #432]	; 8bf4 <notmain+0x1f0>
    8a40:	e5843010 	str	r3, [r4, #16]
    8a44:	eb00035d 	bl	97c0 <gpio_int_falling_edge>
    8a48:	e59f51a8 	ldr	r5, [pc, #424]	; 8bf8 <notmain+0x1f4>
    8a4c:	e2840014 	add	r0, r4, #20
    8a50:	e3a01000 	mov	r1, #0
    8a54:	e1a02005 	mov	r2, r5
    8a58:	eb000072 	bl	8c28 <memset>
    8a5c:	e59f3198 	ldr	r3, [pc, #408]	; 8bfc <notmain+0x1f8>
    8a60:	e7843005 	str	r3, [r4, r5]
    8a64:	e59f2194 	ldr	r2, [pc, #404]	; 8c00 <notmain+0x1fc>
    8a68:	e3a03000 	mov	r3, #0
    8a6c:	e7843002 	str	r3, [r4, r2]
    8a70:	e59f118c 	ldr	r1, [pc, #396]	; 8c04 <notmain+0x200>
    8a74:	e7843001 	str	r3, [r4, r1]
    8a78:	e59f0188 	ldr	r0, [pc, #392]	; 8c08 <notmain+0x204>
    8a7c:	e7843000 	str	r3, [r4, r0]
    8a80:	e59f3184 	ldr	r3, [pc, #388]	; 8c0c <notmain+0x208>
    8a84:	e7d40003 	ldrb	r0, [r4, r3]
    8a88:	e3800001 	orr	r0, r0, #1
    8a8c:	e7c40003 	strb	r0, [r4, r3]
    8a90:	e7941001 	ldr	r1, [r4, r1]
    8a94:	e7943002 	ldr	r3, [r4, r2]
    8a98:	e1510003 	cmp	r1, r3
    8a9c:	0a000006 	beq	8abc <notmain+0xb8>
    8aa0:	eb000083 	bl	8cb4 <rpi_reset_putc>
    8aa4:	e59f0164 	ldr	r0, [pc, #356]	; 8c10 <notmain+0x20c>
    8aa8:	e59f1164 	ldr	r1, [pc, #356]	; 8c14 <notmain+0x210>
    8aac:	e59f2164 	ldr	r2, [pc, #356]	; 8c18 <notmain+0x214>
    8ab0:	e3a0309f 	mov	r3, #159	; 0x9f
    8ab4:	eb000063 	bl	8c48 <printk>
    8ab8:	eb0001da 	bl	9228 <clean_reboot>
    8abc:	e59f312c 	ldr	r3, [pc, #300]	; 8bf0 <notmain+0x1ec>
    8ac0:	e59f213c 	ldr	r2, [pc, #316]	; 8c04 <notmain+0x200>
    8ac4:	e7932002 	ldr	r2, [r3, r2]
    8ac8:	e2822001 	add	r2, r2, #1
    8acc:	e1a02982 	lsl	r2, r2, #19
    8ad0:	e59f1128 	ldr	r1, [pc, #296]	; 8c00 <notmain+0x1fc>
    8ad4:	e7933001 	ldr	r3, [r3, r1]
    8ad8:	e15309a2 	cmp	r3, r2, lsr #19
    8adc:	1a000006 	bne	8afc <notmain+0xf8>
    8ae0:	eb000073 	bl	8cb4 <rpi_reset_putc>
    8ae4:	e59f0130 	ldr	r0, [pc, #304]	; 8c1c <notmain+0x218>
    8ae8:	e59f1124 	ldr	r1, [pc, #292]	; 8c14 <notmain+0x210>
    8aec:	e59f2124 	ldr	r2, [pc, #292]	; 8c18 <notmain+0x214>
    8af0:	e3a030a0 	mov	r3, #160	; 0xa0
    8af4:	eb000053 	bl	8c48 <printk>
    8af8:	eb0001ca 	bl	9228 <clean_reboot>
    8afc:	e59f30ec 	ldr	r3, [pc, #236]	; 8bf0 <notmain+0x1ec>
    8b00:	e59f20fc 	ldr	r2, [pc, #252]	; 8c04 <notmain+0x200>
    8b04:	e7932002 	ldr	r2, [r3, r2]
    8b08:	e59f10f0 	ldr	r1, [pc, #240]	; 8c00 <notmain+0x1fc>
    8b0c:	e7933001 	ldr	r3, [r3, r1]
    8b10:	e0633002 	rsb	r3, r3, r2
    8b14:	e1b03983 	lsls	r3, r3, #19
    8b18:	0a000006 	beq	8b38 <notmain+0x134>
    8b1c:	eb000064 	bl	8cb4 <rpi_reset_putc>
    8b20:	e59f00f8 	ldr	r0, [pc, #248]	; 8c20 <notmain+0x21c>
    8b24:	e59f10e8 	ldr	r1, [pc, #232]	; 8c14 <notmain+0x210>
    8b28:	e59f20e8 	ldr	r2, [pc, #232]	; 8c18 <notmain+0x214>
    8b2c:	e3a030a1 	mov	r3, #161	; 0xa1
    8b30:	eb000044 	bl	8c48 <printk>
    8b34:	eb0001bb 	bl	9228 <clean_reboot>
    8b38:	e59f30b0 	ldr	r3, [pc, #176]	; 8bf0 <notmain+0x1ec>
    8b3c:	e59f20c0 	ldr	r2, [pc, #192]	; 8c04 <notmain+0x200>
    8b40:	e7932002 	ldr	r2, [r3, r2]
    8b44:	e59f10b4 	ldr	r1, [pc, #180]	; 8c00 <notmain+0x1fc>
    8b48:	e7933001 	ldr	r3, [r3, r1]
    8b4c:	e1520003 	cmp	r2, r3
    8b50:	0a00000b 	beq	8b84 <notmain+0x180>
    8b54:	e59f3094 	ldr	r3, [pc, #148]	; 8bf0 <notmain+0x1ec>
    8b58:	e1a02001 	mov	r2, r1
    8b5c:	e7931001 	ldr	r1, [r3, r1]
    8b60:	e0830001 	add	r0, r3, r1
    8b64:	e5d00014 	ldrb	r0, [r0, #20]
    8b68:	e6ef0070 	uxtb	r0, r0
    8b6c:	e2811001 	add	r1, r1, #1
    8b70:	e1a01981 	lsl	r1, r1, #19
    8b74:	e1a019a1 	lsr	r1, r1, #19
    8b78:	e7831002 	str	r1, [r3, r2]
    8b7c:	e3a03001 	mov	r3, #1
    8b80:	ea000001 	b	8b8c <notmain+0x188>
    8b84:	e3a00012 	mov	r0, #18
    8b88:	e3a03000 	mov	r3, #0
    8b8c:	e3530000 	cmp	r3, #0
    8b90:	1a000002 	bne	8ba0 <notmain+0x19c>
    8b94:	e3500012 	cmp	r0, #18
    8b98:	0a000002 	beq	8ba8 <notmain+0x1a4>
    8b9c:	ea000002 	b	8bac <notmain+0x1a8>
    8ba0:	e3a03000 	mov	r3, #0
    8ba4:	ea000000 	b	8bac <notmain+0x1a8>
    8ba8:	e3a03001 	mov	r3, #1
    8bac:	e3530000 	cmp	r3, #0
    8bb0:	1a000006 	bne	8bd0 <notmain+0x1cc>
    8bb4:	eb00003e 	bl	8cb4 <rpi_reset_putc>
    8bb8:	e59f0064 	ldr	r0, [pc, #100]	; 8c24 <notmain+0x220>
    8bbc:	e59f1050 	ldr	r1, [pc, #80]	; 8c14 <notmain+0x210>
    8bc0:	e59f2050 	ldr	r2, [pc, #80]	; 8c18 <notmain+0x214>
    8bc4:	e3a030a3 	mov	r3, #163	; 0xa3
    8bc8:	eb00001e 	bl	8c48 <printk>
    8bcc:	eb000195 	bl	9228 <clean_reboot>
    8bd0:	eb00018c 	bl	9208 <enable_cache>
    8bd4:	e3a03001 	mov	r3, #1
    8bd8:	ee0f3f1c 	mcr	15, 0, r3, cr15, cr12, {0}
    8bdc:	e3a00015 	mov	r0, #21
    8be0:	e3a01014 	mov	r1, #20
    8be4:	e3a020ff 	mov	r2, #255	; 0xff
    8be8:	ebfffd08 	bl	8010 <server>
    8bec:	eb00018d 	bl	9228 <clean_reboot>
    8bf0:	0000a2d4 	ldrdeq	sl, [r0], -r4
    8bf4:	00000bde 	ldrdeq	r0, [r0], -lr
    8bf8:	00002014 	andeq	r2, r0, r4, lsl r0
    8bfc:	12345678 	eorsne	r5, r4, #120, 12	; 0x7800000
    8c00:	0000201c 	andeq	r2, r0, ip, lsl r0
    8c04:	00002018 	andeq	r2, r0, r8, lsl r0
    8c08:	00002020 	andeq	r2, r0, r0, lsr #32
    8c0c:	00002024 	andeq	r2, r0, r4, lsr #32
    8c10:	00009f68 	andeq	r9, r0, r8, ror #30
    8c14:	00009e90 	muleq	r0, r0, lr
    8c18:	00009e38 	andeq	r9, r0, r8, lsr lr
    8c1c:	00009f84 	andeq	r9, r0, r4, lsl #31
    8c20:	00009fa0 	andeq	r9, r0, r0, lsr #31
    8c24:	00009fc4 	andeq	r9, r0, r4, asr #31

00008c28 <memset>:
    8c28:	e0802002 	add	r2, r0, r2
    8c2c:	e1a03000 	mov	r3, r0
    8c30:	ea000001 	b	8c3c <memset+0x14>
    8c34:	e5c31000 	strb	r1, [r3]
    8c38:	e2833001 	add	r3, r3, #1
    8c3c:	e1530002 	cmp	r3, r2
    8c40:	3afffffb 	bcc	8c34 <memset+0xc>
    8c44:	e12fff1e 	bx	lr

00008c48 <printk>:
    8c48:	e92d000f 	push	{r0, r1, r2, r3}
    8c4c:	e92d4030 	push	{r4, r5, lr}
    8c50:	e24dd00c 	sub	sp, sp, #12
    8c54:	e28d301c 	add	r3, sp, #28
    8c58:	e58d3004 	str	r3, [sp, #4]
    8c5c:	e59f4034 	ldr	r4, [pc, #52]	; 8c98 <printk+0x50>
    8c60:	e1a00004 	mov	r0, r4
    8c64:	e3a01b01 	mov	r1, #1024	; 0x400
    8c68:	e59d2018 	ldr	r2, [sp, #24]
    8c6c:	eb0000c3 	bl	8f80 <va_printk>
    8c70:	e1a05000 	mov	r5, r0
    8c74:	e59f3020 	ldr	r3, [pc, #32]	; 8c9c <printk+0x54>
    8c78:	e5933000 	ldr	r3, [r3]
    8c7c:	e1a00004 	mov	r0, r4
    8c80:	e12fff33 	blx	r3
    8c84:	e1a00005 	mov	r0, r5
    8c88:	e28dd00c 	add	sp, sp, #12
    8c8c:	e8bd4030 	pop	{r4, r5, lr}
    8c90:	e28dd010 	add	sp, sp, #16
    8c94:	e12fff1e 	bx	lr
    8c98:	0000c310 	andeq	ip, r0, r0, lsl r3
    8c9c:	00009d88 	andeq	r9, r0, r8, lsl #27

00008ca0 <internal_putchar>:
    8ca0:	e92d4010 	push	{r4, lr}
    8ca4:	e1a04000 	mov	r4, r0
    8ca8:	eb00035b 	bl	9a1c <uart_putc>
    8cac:	e1a00004 	mov	r0, r4
    8cb0:	e8bd8010 	pop	{r4, pc}

00008cb4 <rpi_reset_putc>:
    8cb4:	e59f2008 	ldr	r2, [pc, #8]	; 8cc4 <rpi_reset_putc+0x10>
    8cb8:	e59f3008 	ldr	r3, [pc, #8]	; 8cc8 <rpi_reset_putc+0x14>
    8cbc:	e5832000 	str	r2, [r3]
    8cc0:	e12fff1e 	bx	lr
    8cc4:	00008ca0 	andeq	r8, r0, r0, lsr #25
    8cc8:	00009d84 	andeq	r9, r0, r4, lsl #27

00008ccc <rpi_set_putc>:
    8ccc:	e59f3004 	ldr	r3, [pc, #4]	; 8cd8 <rpi_set_putc+0xc>
    8cd0:	e5830000 	str	r0, [r3]
    8cd4:	e12fff1e 	bx	lr
    8cd8:	00009d84 	andeq	r9, r0, r4, lsl #27

00008cdc <internal_putk>:
    8cdc:	e92d4038 	push	{r3, r4, r5, lr}
    8ce0:	e1a04000 	mov	r4, r0
    8ce4:	e59f5020 	ldr	r5, [pc, #32]	; 8d0c <internal_putk+0x30>
    8ce8:	ea000002 	b	8cf8 <internal_putk+0x1c>
    8cec:	e5953000 	ldr	r3, [r5]
    8cf0:	e12fff33 	blx	r3
    8cf4:	e2844001 	add	r4, r4, #1
    8cf8:	e5d40000 	ldrb	r0, [r4]
    8cfc:	e3500000 	cmp	r0, #0
    8d00:	1afffff9 	bne	8cec <internal_putk+0x10>
    8d04:	e3a00001 	mov	r0, #1
    8d08:	e8bd8038 	pop	{r3, r4, r5, pc}
    8d0c:	00009d84 	andeq	r9, r0, r4, lsl #27

00008d10 <isdigit>:
    8d10:	e2400030 	sub	r0, r0, #48	; 0x30
    8d14:	e3500009 	cmp	r0, #9
    8d18:	83a00000 	movhi	r0, #0
    8d1c:	93a00001 	movls	r0, #1
    8d20:	e12fff1e 	bx	lr

00008d24 <pad>:
    8d24:	e0611000 	rsb	r1, r1, r0
    8d28:	e3a03020 	mov	r3, #32
    8d2c:	ea000002 	b	8d3c <pad+0x18>
    8d30:	e5c03000 	strb	r3, [r0]
    8d34:	e2811001 	add	r1, r1, #1
    8d38:	e2800001 	add	r0, r0, #1
    8d3c:	e1510002 	cmp	r1, r2
    8d40:	bafffffa 	blt	8d30 <pad+0xc>
    8d44:	e3a03000 	mov	r3, #0
    8d48:	e5c03000 	strb	r3, [r0]
    8d4c:	e12fff1e 	bx	lr

00008d50 <reverse>:
    8d50:	e063c002 	rsb	ip, r3, r2
    8d54:	e28cc001 	add	ip, ip, #1
    8d58:	e15c0001 	cmp	ip, r1
    8d5c:	c061100c 	rsbgt	r1, r1, ip
    8d60:	c0833001 	addgt	r3, r3, r1
    8d64:	e2422001 	sub	r2, r2, #1
    8d68:	e1a01000 	mov	r1, r0
    8d6c:	ea000002 	b	8d7c <reverse+0x2c>
    8d70:	e452c001 	ldrb	ip, [r2], #-1
    8d74:	e5c1c000 	strb	ip, [r1]
    8d78:	e2811001 	add	r1, r1, #1
    8d7c:	e1520003 	cmp	r2, r3
    8d80:	2afffffa 	bcs	8d70 <reverse+0x20>
    8d84:	e3a03000 	mov	r3, #0
    8d88:	e5c13000 	strb	r3, [r1]
    8d8c:	e12fff1e 	bx	lr

00008d90 <emit>:
    8d90:	e92d41f0 	push	{r4, r5, r6, r7, r8, lr}
    8d94:	e24dd040 	sub	sp, sp, #64	; 0x40
    8d98:	e1a05001 	mov	r5, r1
    8d9c:	e1a04002 	mov	r4, r2
    8da0:	e59d2058 	ldr	r2, [sp, #88]	; 0x58
    8da4:	e1520004 	cmp	r2, r4
    8da8:	c2442001 	subgt	r2, r4, #1
    8dac:	e1a0c003 	mov	ip, r3
    8db0:	e2400002 	sub	r0, r0, #2
    8db4:	e350000e 	cmp	r0, #14
    8db8:	979ff100 	ldrls	pc, [pc, r0, lsl #2]
    8dbc:	ea000042 	b	8ecc <emit+0x13c>
    8dc0:	00008ea4 	andeq	r8, r0, r4, lsr #29
    8dc4:	00008ecc 	andeq	r8, r0, ip, asr #29
    8dc8:	00008ecc 	andeq	r8, r0, ip, asr #29
    8dcc:	00008ecc 	andeq	r8, r0, ip, asr #29
    8dd0:	00008ecc 	andeq	r8, r0, ip, asr #29
    8dd4:	00008ecc 	andeq	r8, r0, ip, asr #29
    8dd8:	00008e98 	muleq	r0, r8, lr
    8ddc:	00008ecc 	andeq	r8, r0, ip, asr #29
    8de0:	00008dfc 	strdeq	r8, [r0], -ip
    8de4:	00008ecc 	andeq	r8, r0, ip, asr #29
    8de8:	00008ecc 	andeq	r8, r0, ip, asr #29
    8dec:	00008ecc 	andeq	r8, r0, ip, asr #29
    8df0:	00008ecc 	andeq	r8, r0, ip, asr #29
    8df4:	00008ecc 	andeq	r8, r0, ip, asr #29
    8df8:	00008e70 	andeq	r8, r0, r0, ror lr
    8dfc:	e59d105c 	ldr	r1, [sp, #92]	; 0x5c
    8e00:	e2911000 	adds	r1, r1, #0
    8e04:	13a01001 	movne	r1, #1
    8e08:	e0111fa3 	ands	r1, r1, r3, lsr #31
    8e0c:	1263c000 	rsbne	ip, r3, #0
    8e10:	13a08001 	movne	r8, #1
    8e14:	03a08000 	moveq	r8, #0
    8e18:	e1a0100d 	mov	r1, sp
    8e1c:	e59f70ec 	ldr	r7, [pc, #236]	; 8f10 <emit+0x180>
    8e20:	e59f60ec 	ldr	r6, [pc, #236]	; 8f14 <emit+0x184>
    8e24:	ea000000 	b	8e2c <emit+0x9c>
    8e28:	e1a01003 	mov	r1, r3
    8e2c:	e2813001 	add	r3, r1, #1
    8e30:	e08e0c97 	umull	r0, lr, r7, ip
    8e34:	e1a0e1ae 	lsr	lr, lr, #3
    8e38:	e1a0000e 	mov	r0, lr
    8e3c:	e08ee10e 	add	lr, lr, lr, lsl #2
    8e40:	e1a0e08e 	lsl	lr, lr, #1
    8e44:	e06ee00c 	rsb	lr, lr, ip
    8e48:	e7d6c00e 	ldrb	ip, [r6, lr]
    8e4c:	e5c1c000 	strb	ip, [r1]
    8e50:	e1a0c000 	mov	ip, r0
    8e54:	e3500000 	cmp	r0, #0
    8e58:	1afffff2 	bne	8e28 <emit+0x98>
    8e5c:	e3580000 	cmp	r8, #0
    8e60:	12813002 	addne	r3, r1, #2
    8e64:	13a0002d 	movne	r0, #45	; 0x2d
    8e68:	15c10001 	strbne	r0, [r1, #1]
    8e6c:	ea00001d 	b	8ee8 <emit+0x158>
    8e70:	e1a0e00d 	mov	lr, sp
    8e74:	e59f009c 	ldr	r0, [pc, #156]	; 8f18 <emit+0x188>
    8e78:	e28e3001 	add	r3, lr, #1
    8e7c:	e20c100f 	and	r1, ip, #15
    8e80:	e7d01001 	ldrb	r1, [r0, r1]
    8e84:	e5ce1000 	strb	r1, [lr]
    8e88:	e1a0e003 	mov	lr, r3
    8e8c:	e1b0c22c 	lsrs	ip, ip, #4
    8e90:	1afffff8 	bne	8e78 <emit+0xe8>
    8e94:	ea000013 	b	8ee8 <emit+0x158>
    8e98:	e5cd3000 	strb	r3, [sp]
    8e9c:	e28d3001 	add	r3, sp, #1
    8ea0:	ea000010 	b	8ee8 <emit+0x158>
    8ea4:	e1a0e00d 	mov	lr, sp
    8ea8:	e59f006c 	ldr	r0, [pc, #108]	; 8f1c <emit+0x18c>
    8eac:	e28e3001 	add	r3, lr, #1
    8eb0:	e20c1001 	and	r1, ip, #1
    8eb4:	e7d01001 	ldrb	r1, [r0, r1]
    8eb8:	e5ce1000 	strb	r1, [lr]
    8ebc:	e1a0e003 	mov	lr, r3
    8ec0:	e1b0c0ac 	lsrs	ip, ip, #1
    8ec4:	1afffff8 	bne	8eac <emit+0x11c>
    8ec8:	ea000006 	b	8ee8 <emit+0x158>
    8ecc:	ebffff78 	bl	8cb4 <rpi_reset_putc>
    8ed0:	e59f0048 	ldr	r0, [pc, #72]	; 8f20 <emit+0x190>
    8ed4:	e59f1048 	ldr	r1, [pc, #72]	; 8f24 <emit+0x194>
    8ed8:	e59f2048 	ldr	r2, [pc, #72]	; 8f28 <emit+0x198>
    8edc:	e3a03075 	mov	r3, #117	; 0x75
    8ee0:	ebffff58 	bl	8c48 <printk>
    8ee4:	eb0000cf 	bl	9228 <clean_reboot>
    8ee8:	e1a00003 	mov	r0, r3
    8eec:	e1a0100d 	mov	r1, sp
    8ef0:	ebffff8b 	bl	8d24 <pad>
    8ef4:	e1a02000 	mov	r2, r0
    8ef8:	e1a00005 	mov	r0, r5
    8efc:	e1a01004 	mov	r1, r4
    8f00:	e1a0300d 	mov	r3, sp
    8f04:	ebffff91 	bl	8d50 <reverse>
    8f08:	e28dd040 	add	sp, sp, #64	; 0x40
    8f0c:	e8bd81f0 	pop	{r4, r5, r6, r7, r8, pc}
    8f10:	cccccccd 	stclgt	12, cr12, [ip], {205}	; 0xcd
    8f14:	0000a048 	andeq	sl, r0, r8, asr #32
    8f18:	0000a054 	andeq	sl, r0, r4, asr r0
    8f1c:	0000a068 	andeq	sl, r0, r8, rrx
    8f20:	0000a020 	andeq	sl, r0, r0, lsr #32
    8f24:	0000a034 	andeq	sl, r0, r4, lsr r0
    8f28:	00009ffc 	strdeq	r9, [r0], -ip

00008f2c <rpi_set_output>:
    8f2c:	e92d4008 	push	{r3, lr}
    8f30:	e3500000 	cmp	r0, #0
    8f34:	1a000006 	bne	8f54 <rpi_set_output+0x28>
    8f38:	ebffff5d 	bl	8cb4 <rpi_reset_putc>
    8f3c:	e59f0028 	ldr	r0, [pc, #40]	; 8f6c <rpi_set_output+0x40>
    8f40:	e59f1028 	ldr	r1, [pc, #40]	; 8f70 <rpi_set_output+0x44>
    8f44:	e59f2028 	ldr	r2, [pc, #40]	; 8f74 <rpi_set_output+0x48>
    8f48:	e3a03020 	mov	r3, #32
    8f4c:	ebffff3d 	bl	8c48 <printk>
    8f50:	eb0000b4 	bl	9228 <clean_reboot>
    8f54:	e59f301c 	ldr	r3, [pc, #28]	; 8f78 <rpi_set_output+0x4c>
    8f58:	e5830000 	str	r0, [r3]
    8f5c:	e3510000 	cmp	r1, #0
    8f60:	159f3014 	ldrne	r3, [pc, #20]	; 8f7c <rpi_set_output+0x50>
    8f64:	15831000 	strne	r1, [r3]
    8f68:	e8bd8008 	pop	{r3, pc}
    8f6c:	0000a06c 	andeq	sl, r0, ip, rrx
    8f70:	0000a034 	andeq	sl, r0, r4, lsr r0
    8f74:	0000a004 	andeq	sl, r0, r4
    8f78:	00009d84 	andeq	r9, r0, r4, lsl #27
    8f7c:	00009d88 	andeq	r9, r0, r8, lsl #27

00008f80 <va_printk>:
    8f80:	e92d4ff0 	push	{r4, r5, r6, r7, r8, r9, sl, fp, lr}
    8f84:	e24dd08c 	sub	sp, sp, #140	; 0x8c
    8f88:	e1a0a000 	mov	sl, r0
    8f8c:	e1a09003 	mov	r9, r3
    8f90:	e2411001 	sub	r1, r1, #1
    8f94:	e0808001 	add	r8, r0, r1
    8f98:	e3a03000 	mov	r3, #0
    8f9c:	e5c03000 	strb	r3, [r0]
    8fa0:	e1a04000 	mov	r4, r0
    8fa4:	e1a0b003 	mov	fp, r3
    8fa8:	ea000086 	b	91c8 <va_printk+0x248>
    8fac:	e3530025 	cmp	r3, #37	; 0x25
    8fb0:	12822001 	addne	r2, r2, #1
    8fb4:	15c43000 	strbne	r3, [r4]
    8fb8:	12844001 	addne	r4, r4, #1
    8fbc:	1a000081 	bne	91c8 <va_printk+0x248>
    8fc0:	e5d21001 	ldrb	r1, [r2, #1]
    8fc4:	e3510025 	cmp	r1, #37	; 0x25
    8fc8:	05c43000 	strbeq	r3, [r4]
    8fcc:	02822002 	addeq	r2, r2, #2
    8fd0:	02844001 	addeq	r4, r4, #1
    8fd4:	0a00007b 	beq	91c8 <va_printk+0x248>
    8fd8:	e2826001 	add	r6, r2, #1
    8fdc:	e1a0700b 	mov	r7, fp
    8fe0:	ea000004 	b	8ff8 <va_printk+0x78>
    8fe4:	e0877107 	add	r7, r7, r7, lsl #2
    8fe8:	e1a07087 	lsl	r7, r7, #1
    8fec:	e0877005 	add	r7, r7, r5
    8ff0:	e2477030 	sub	r7, r7, #48	; 0x30
    8ff4:	e2866001 	add	r6, r6, #1
    8ff8:	e5d65000 	ldrb	r5, [r6]
    8ffc:	e1a00005 	mov	r0, r5
    9000:	ebffff42 	bl	8d10 <isdigit>
    9004:	e3500000 	cmp	r0, #0
    9008:	1afffff5 	bne	8fe4 <va_printk+0x64>
    900c:	e357001f 	cmp	r7, #31
    9010:	9a000006 	bls	9030 <va_printk+0xb0>
    9014:	ebffff26 	bl	8cb4 <rpi_reset_putc>
    9018:	e59f01d4 	ldr	r0, [pc, #468]	; 91f4 <va_printk+0x274>
    901c:	e59f11d4 	ldr	r1, [pc, #468]	; 91f8 <va_printk+0x278>
    9020:	e59f21d4 	ldr	r2, [pc, #468]	; 91fc <va_printk+0x27c>
    9024:	e3a03092 	mov	r3, #146	; 0x92
    9028:	ebffff06 	bl	8c48 <printk>
    902c:	eb00007d 	bl	9228 <clean_reboot>
    9030:	e2455062 	sub	r5, r5, #98	; 0x62
    9034:	e3550016 	cmp	r5, #22
    9038:	979ff105 	ldrls	pc, [pc, r5, lsl #2]
    903c:	ea00004e 	b	917c <va_printk+0x1fc>
    9040:	00009128 	andeq	r9, r0, r8, lsr #2
    9044:	00009158 	andeq	r9, r0, r8, asr r1
    9048:	000090b8 	strheq	r9, [r0], -r8
    904c:	0000917c 	andeq	r9, r0, ip, ror r1
    9050:	0000909c 	muleq	r0, ip, r0
    9054:	0000917c 	andeq	r9, r0, ip, ror r1
    9058:	0000917c 	andeq	r9, r0, ip, ror r1
    905c:	0000917c 	andeq	r9, r0, ip, ror r1
    9060:	0000917c 	andeq	r9, r0, ip, ror r1
    9064:	0000917c 	andeq	r9, r0, ip, ror r1
    9068:	0000917c 	andeq	r9, r0, ip, ror r1
    906c:	0000917c 	andeq	r9, r0, ip, ror r1
    9070:	0000917c 	andeq	r9, r0, ip, ror r1
    9074:	0000917c 	andeq	r9, r0, ip, ror r1
    9078:	00009104 	andeq	r9, r0, r4, lsl #2
    907c:	0000917c 	andeq	r9, r0, ip, ror r1
    9080:	0000917c 	andeq	r9, r0, ip, ror r1
    9084:	0000914c 	andeq	r9, r0, ip, asr #2
    9088:	0000917c 	andeq	r9, r0, ip, ror r1
    908c:	000090e0 	andeq	r9, r0, r0, ror #1
    9090:	0000917c 	andeq	r9, r0, ip, ror r1
    9094:	0000917c 	andeq	r9, r0, ip, ror r1
    9098:	00009104 	andeq	r9, r0, r4, lsl #2
    909c:	ebffff04 	bl	8cb4 <rpi_reset_putc>
    90a0:	e59f0158 	ldr	r0, [pc, #344]	; 9200 <va_printk+0x280>
    90a4:	e59f114c 	ldr	r1, [pc, #332]	; 91f8 <va_printk+0x278>
    90a8:	e59f214c 	ldr	r2, [pc, #332]	; 91fc <va_printk+0x27c>
    90ac:	e3a03098 	mov	r3, #152	; 0x98
    90b0:	ebfffee4 	bl	8c48 <printk>
    90b4:	eb00005b 	bl	9228 <clean_reboot>
    90b8:	e5993000 	ldr	r3, [r9]
    90bc:	e2899004 	add	r9, r9, #4
    90c0:	e58d7000 	str	r7, [sp]
    90c4:	e3a02001 	mov	r2, #1
    90c8:	e58d2004 	str	r2, [sp, #4]
    90cc:	e3a0000a 	mov	r0, #10
    90d0:	e28d1008 	add	r1, sp, #8
    90d4:	e3a02080 	mov	r2, #128	; 0x80
    90d8:	ebffff2c 	bl	8d90 <emit>
    90dc:	ea00002f 	b	91a0 <va_printk+0x220>
    90e0:	e5993000 	ldr	r3, [r9]
    90e4:	e2899004 	add	r9, r9, #4
    90e8:	e58d7000 	str	r7, [sp]
    90ec:	e58db004 	str	fp, [sp, #4]
    90f0:	e3a0000a 	mov	r0, #10
    90f4:	e28d1008 	add	r1, sp, #8
    90f8:	e3a02080 	mov	r2, #128	; 0x80
    90fc:	ebffff23 	bl	8d90 <emit>
    9100:	ea000026 	b	91a0 <va_printk+0x220>
    9104:	e5993000 	ldr	r3, [r9]
    9108:	e2899004 	add	r9, r9, #4
    910c:	e58d7000 	str	r7, [sp]
    9110:	e58db004 	str	fp, [sp, #4]
    9114:	e3a00010 	mov	r0, #16
    9118:	e28d1008 	add	r1, sp, #8
    911c:	e3a02080 	mov	r2, #128	; 0x80
    9120:	ebffff1a 	bl	8d90 <emit>
    9124:	ea00001d 	b	91a0 <va_printk+0x220>
    9128:	e5993000 	ldr	r3, [r9]
    912c:	e2899004 	add	r9, r9, #4
    9130:	e58d7000 	str	r7, [sp]
    9134:	e58db004 	str	fp, [sp, #4]
    9138:	e3a00002 	mov	r0, #2
    913c:	e28d1008 	add	r1, sp, #8
    9140:	e3a02080 	mov	r2, #128	; 0x80
    9144:	ebffff11 	bl	8d90 <emit>
    9148:	ea000014 	b	91a0 <va_printk+0x220>
    914c:	e5990000 	ldr	r0, [r9]
    9150:	e2899004 	add	r9, r9, #4
    9154:	ea000011 	b	91a0 <va_printk+0x220>
    9158:	e5993000 	ldr	r3, [r9]
    915c:	e2899004 	add	r9, r9, #4
    9160:	e58d7000 	str	r7, [sp]
    9164:	e58db004 	str	fp, [sp, #4]
    9168:	e3a00008 	mov	r0, #8
    916c:	e08d1000 	add	r1, sp, r0
    9170:	e3a02080 	mov	r2, #128	; 0x80
    9174:	ebffff05 	bl	8d90 <emit>
    9178:	ea000008 	b	91a0 <va_printk+0x220>
    917c:	ebfffecc 	bl	8cb4 <rpi_reset_putc>
    9180:	e5d63000 	ldrb	r3, [r6]
    9184:	e58d3000 	str	r3, [sp]
    9188:	e59f0074 	ldr	r0, [pc, #116]	; 9204 <va_printk+0x284>
    918c:	e59f1064 	ldr	r1, [pc, #100]	; 91f8 <va_printk+0x278>
    9190:	e59f2064 	ldr	r2, [pc, #100]	; 91fc <va_printk+0x27c>
    9194:	e3a030b9 	mov	r3, #185	; 0xb9
    9198:	ebfffeaa 	bl	8c48 <printk>
    919c:	eb000021 	bl	9228 <clean_reboot>
    91a0:	e2862001 	add	r2, r6, #1
    91a4:	ea000002 	b	91b4 <va_printk+0x234>
    91a8:	e2800001 	add	r0, r0, #1
    91ac:	e5c43000 	strb	r3, [r4]
    91b0:	e2844001 	add	r4, r4, #1
    91b4:	e1540008 	cmp	r4, r8
    91b8:	2a000002 	bcs	91c8 <va_printk+0x248>
    91bc:	e5d03000 	ldrb	r3, [r0]
    91c0:	e3530000 	cmp	r3, #0
    91c4:	1afffff7 	bne	91a8 <va_printk+0x228>
    91c8:	e5d23000 	ldrb	r3, [r2]
    91cc:	e3530000 	cmp	r3, #0
    91d0:	0a000001 	beq	91dc <va_printk+0x25c>
    91d4:	e1540008 	cmp	r4, r8
    91d8:	3affff73 	bcc	8fac <va_printk+0x2c>
    91dc:	e2840001 	add	r0, r4, #1
    91e0:	e3a03000 	mov	r3, #0
    91e4:	e5c43000 	strb	r3, [r4]
    91e8:	e06a0000 	rsb	r0, sl, r0
    91ec:	e28dd08c 	add	sp, sp, #140	; 0x8c
    91f0:	e8bd8ff0 	pop	{r4, r5, r6, r7, r8, r9, sl, fp, pc}
    91f4:	0000a084 	andeq	sl, r0, r4, lsl #1
    91f8:	0000a034 	andeq	sl, r0, r4, lsr r0
    91fc:	0000a014 	andeq	sl, r0, r4, lsl r0
    9200:	0000a0a0 	andeq	sl, r0, r0, lsr #1
    9204:	0000a0c8 	andeq	sl, r0, r8, asr #1

00009208 <enable_cache>:
    9208:	ee113f10 	mrc	15, 0, r3, cr1, cr0, {0}
    920c:	e3833b06 	orr	r3, r3, #6144	; 0x1800
    9210:	ee013f10 	mcr	15, 0, r3, cr1, cr0, {0}
    9214:	e12fff1e 	bx	lr

00009218 <disable_cache>:
    9218:	ee113f10 	mrc	15, 0, r3, cr1, cr0, {0}
    921c:	e3c33b06 	bic	r3, r3, #6144	; 0x1800
    9220:	ee013f10 	mcr	15, 0, r3, cr1, cr0, {0}
    9224:	e12fff1e 	bx	lr

00009228 <clean_reboot>:
    9228:	e92d4008 	push	{r3, lr}
    922c:	e59f3014 	ldr	r3, [pc, #20]	; 9248 <clean_reboot+0x20>
    9230:	e5933000 	ldr	r3, [r3]
    9234:	e59f0010 	ldr	r0, [pc, #16]	; 924c <clean_reboot+0x24>
    9238:	e12fff33 	blx	r3
    923c:	e3a00064 	mov	r0, #100	; 0x64
    9240:	eb000044 	bl	9358 <delay_ms>
    9244:	eb000019 	bl	92b0 <rpi_reboot>
    9248:	00009d88 	andeq	r9, r0, r8, lsl #27
    924c:	0000a100 	andeq	sl, r0, r0, lsl #2

00009250 <_cstart>:
    9250:	e92d4008 	push	{r3, lr}
    9254:	e59f3020 	ldr	r3, [pc, #32]	; 927c <_cstart+0x2c>
    9258:	e59f2020 	ldr	r2, [pc, #32]	; 9280 <_cstart+0x30>
    925c:	e3a01000 	mov	r1, #0
    9260:	ea000001 	b	926c <_cstart+0x1c>
    9264:	e5831000 	str	r1, [r3]
    9268:	e2833004 	add	r3, r3, #4
    926c:	e1530002 	cmp	r3, r2
    9270:	3afffffb 	bcc	9264 <_cstart+0x14>
    9274:	ebfffde2 	bl	8a04 <notmain>
    9278:	eb00000c 	bl	92b0 <rpi_reboot>
    927c:	0000a2d4 	ldrdeq	sl, [r0], -r4
    9280:	0000c718 	andeq	ip, r0, r8, lsl r7

00009284 <at_user_level>:
    9284:	e10f0000 	mrs	r0, CPSR
    9288:	e200001f 	and	r0, r0, #31
    928c:	e3500010 	cmp	r0, #16
    9290:	13a00000 	movne	r0, #0
    9294:	03a00001 	moveq	r0, #1
    9298:	e12fff1e 	bx	lr

0000929c <set_user_level>:
    929c:	e10f3000 	mrs	r3, CPSR
    92a0:	e3c3301f 	bic	r3, r3, #31
    92a4:	e3833010 	orr	r3, r3, #16
    92a8:	e129f003 	msr	CPSR_fc, r3
    92ac:	e12fff1e 	bx	lr

000092b0 <rpi_reboot>:
    92b0:	e92d4008 	push	{r3, lr}
    92b4:	ebfffff2 	bl	9284 <at_user_level>
    92b8:	e3500000 	cmp	r0, #0
    92bc:	0a000000 	beq	92c4 <rpi_reboot+0x14>
    92c0:	ebfffff5 	bl	929c <set_user_level>
    92c4:	e3a0001e 	mov	r0, #30
    92c8:	eb000022 	bl	9358 <delay_ms>
    92cc:	e59f0014 	ldr	r0, [pc, #20]	; 92e8 <rpi_reboot+0x38>
    92d0:	e59f1014 	ldr	r1, [pc, #20]	; 92ec <rpi_reboot+0x3c>
    92d4:	eb000219 	bl	9b40 <PUT32>
    92d8:	e59f0010 	ldr	r0, [pc, #16]	; 92f0 <rpi_reboot+0x40>
    92dc:	e59f1010 	ldr	r1, [pc, #16]	; 92f4 <rpi_reboot+0x44>
    92e0:	eb000216 	bl	9b40 <PUT32>
    92e4:	eafffffe 	b	92e4 <rpi_reboot+0x34>
    92e8:	20100024 	andscs	r0, r0, r4, lsr #32
    92ec:	5a000001 	bpl	92f8 <delay_cycles>
    92f0:	2010001c 	andscs	r0, r0, ip, lsl r0
    92f4:	5a000020 	bpl	937c <delay_sec+0x10>

000092f8 <delay_cycles>:
    92f8:	ea000001 	b	9304 <delay_cycles+0xc>
    92fc:	e2811000 	add	r1, r1, #0
    9300:	e1a00003 	mov	r0, r3
    9304:	e2403001 	sub	r3, r0, #1
    9308:	e3500000 	cmp	r0, #0
    930c:	1afffffa 	bne	92fc <delay_cycles+0x4>
    9310:	e12fff1e 	bx	lr

00009314 <timer_get_usec_raw>:
    9314:	e92d4008 	push	{r3, lr}
    9318:	e59f0004 	ldr	r0, [pc, #4]	; 9324 <timer_get_usec_raw+0x10>
    931c:	eb000213 	bl	9b70 <GET32>
    9320:	e8bd8008 	pop	{r3, pc}
    9324:	20003004 	andcs	r3, r0, r4

00009328 <timer_get_usec>:
    9328:	e92d4008 	push	{r3, lr}
    932c:	ebfffff8 	bl	9314 <timer_get_usec_raw>
    9330:	e8bd8008 	pop	{r3, pc}

00009334 <delay_us>:
    9334:	e92d4038 	push	{r3, r4, r5, lr}
    9338:	e1a05000 	mov	r5, r0
    933c:	ebfffff9 	bl	9328 <timer_get_usec>
    9340:	e1a04000 	mov	r4, r0
    9344:	ebfffff7 	bl	9328 <timer_get_usec>
    9348:	e0640000 	rsb	r0, r4, r0
    934c:	e1500005 	cmp	r0, r5
    9350:	3afffffb 	bcc	9344 <delay_us+0x10>
    9354:	e8bd8038 	pop	{r3, r4, r5, pc}

00009358 <delay_ms>:
    9358:	e92d4008 	push	{r3, lr}
    935c:	e3a03ffa 	mov	r3, #1000	; 0x3e8
    9360:	e0000093 	mul	r0, r3, r0
    9364:	ebfffff2 	bl	9334 <delay_us>
    9368:	e8bd8008 	pop	{r3, pc}

0000936c <delay_sec>:
    936c:	e92d4008 	push	{r3, lr}
    9370:	e3a03ffa 	mov	r3, #1000	; 0x3e8
    9374:	e0000093 	mul	r0, r3, r0
    9378:	ebfffff6 	bl	9358 <delay_ms>
    937c:	e8bd8008 	pop	{r3, pc}

00009380 <gpio_set_output>:
    9380:	e92d4038 	push	{r3, r4, r5, lr}
    9384:	e1a04000 	mov	r4, r0
    9388:	e350001f 	cmp	r0, #31
    938c:	88bd8038 	pophi	{r3, r4, r5, pc}
    9390:	e59f30b4 	ldr	r3, [pc, #180]	; 944c <gpio_set_output+0xcc>
    9394:	e0832093 	umull	r2, r3, r3, r0
    9398:	e1a031a3 	lsr	r3, r3, #3
    939c:	e3530005 	cmp	r3, #5
    93a0:	979ff103 	ldrls	pc, [pc, r3, lsl #2]
    93a4:	ea000017 	b	9408 <gpio_set_output+0x88>
    93a8:	000093c0 	andeq	r9, r0, r0, asr #7
    93ac:	000093cc 	andeq	r9, r0, ip, asr #7
    93b0:	000093d8 	ldrdeq	r9, [r0], -r8
    93b4:	000093e4 	andeq	r9, r0, r4, ror #7
    93b8:	000093f0 	strdeq	r9, [r0], -r0
    93bc:	000093fc 	strdeq	r9, [r0], -ip
    93c0:	e59f3088 	ldr	r3, [pc, #136]	; 9450 <gpio_set_output+0xd0>
    93c4:	e5935000 	ldr	r5, [r3]
    93c8:	ea00000f 	b	940c <gpio_set_output+0x8c>
    93cc:	e59f307c 	ldr	r3, [pc, #124]	; 9450 <gpio_set_output+0xd0>
    93d0:	e5935004 	ldr	r5, [r3, #4]
    93d4:	ea00000c 	b	940c <gpio_set_output+0x8c>
    93d8:	e59f3070 	ldr	r3, [pc, #112]	; 9450 <gpio_set_output+0xd0>
    93dc:	e5935008 	ldr	r5, [r3, #8]
    93e0:	ea000009 	b	940c <gpio_set_output+0x8c>
    93e4:	e59f3064 	ldr	r3, [pc, #100]	; 9450 <gpio_set_output+0xd0>
    93e8:	e593500c 	ldr	r5, [r3, #12]
    93ec:	ea000006 	b	940c <gpio_set_output+0x8c>
    93f0:	e59f3058 	ldr	r3, [pc, #88]	; 9450 <gpio_set_output+0xd0>
    93f4:	e5935010 	ldr	r5, [r3, #16]
    93f8:	ea000003 	b	940c <gpio_set_output+0x8c>
    93fc:	e59f304c 	ldr	r3, [pc, #76]	; 9450 <gpio_set_output+0xd0>
    9400:	e5935014 	ldr	r5, [r3, #20]
    9404:	ea000000 	b	940c <gpio_set_output+0x8c>
    9408:	e3a05000 	mov	r5, #0
    940c:	e1a00005 	mov	r0, r5
    9410:	eb0001d4 	bl	9b68 <get32>
    9414:	e59f1030 	ldr	r1, [pc, #48]	; 944c <gpio_set_output+0xcc>
    9418:	e0813491 	umull	r3, r1, r1, r4
    941c:	e1a011a1 	lsr	r1, r1, #3
    9420:	e0811101 	add	r1, r1, r1, lsl #2
    9424:	e1a01081 	lsl	r1, r1, #1
    9428:	e0611004 	rsb	r1, r1, r4
    942c:	e0811081 	add	r1, r1, r1, lsl #1
    9430:	e3a03007 	mov	r3, #7
    9434:	e1c03113 	bic	r3, r0, r3, lsl r1
    9438:	e1a00005 	mov	r0, r5
    943c:	e3a02001 	mov	r2, #1
    9440:	e1831112 	orr	r1, r3, r2, lsl r1
    9444:	eb0001bb 	bl	9b38 <put32>
    9448:	e8bd8038 	pop	{r3, r4, r5, pc}
    944c:	cccccccd 	stclgt	12, cr12, [ip], {205}	; 0xcd
    9450:	00009d8c 	andeq	r9, r0, ip, lsl #27

00009454 <gpio_set_on>:
    9454:	e92d4008 	push	{r3, lr}
    9458:	e350001f 	cmp	r0, #31
    945c:	88bd8008 	pophi	{r3, pc}
    9460:	959f3020 	ldrls	r3, [pc, #32]	; 9488 <gpio_set_on+0x34>
    9464:	95932018 	ldrls	r2, [r3, #24]
    9468:	859f3018 	ldrhi	r3, [pc, #24]	; 9488 <gpio_set_on+0x34>
    946c:	8593201c 	ldrhi	r2, [r3, #28]
    9470:	e200301f 	and	r3, r0, #31
    9474:	e1a00002 	mov	r0, r2
    9478:	e3a01001 	mov	r1, #1
    947c:	e1a01311 	lsl	r1, r1, r3
    9480:	eb0001ac 	bl	9b38 <put32>
    9484:	e8bd8008 	pop	{r3, pc}
    9488:	00009d8c 	andeq	r9, r0, ip, lsl #27

0000948c <gpio_set_off>:
    948c:	e92d4008 	push	{r3, lr}
    9490:	e350001f 	cmp	r0, #31
    9494:	88bd8008 	pophi	{r3, pc}
    9498:	959f3020 	ldrls	r3, [pc, #32]	; 94c0 <gpio_set_off+0x34>
    949c:	95932020 	ldrls	r2, [r3, #32]
    94a0:	859f3018 	ldrhi	r3, [pc, #24]	; 94c0 <gpio_set_off+0x34>
    94a4:	85932024 	ldrhi	r2, [r3, #36]	; 0x24
    94a8:	e200301f 	and	r3, r0, #31
    94ac:	e1a00002 	mov	r0, r2
    94b0:	e3a01001 	mov	r1, #1
    94b4:	e1a01311 	lsl	r1, r1, r3
    94b8:	eb00019e 	bl	9b38 <put32>
    94bc:	e8bd8008 	pop	{r3, pc}
    94c0:	00009d8c 	andeq	r9, r0, ip, lsl #27

000094c4 <gpio_set_input>:
    94c4:	e92d4038 	push	{r3, r4, r5, lr}
    94c8:	e1a04000 	mov	r4, r0
    94cc:	e350001f 	cmp	r0, #31
    94d0:	88bd8038 	pophi	{r3, r4, r5, pc}
    94d4:	e59f30ac 	ldr	r3, [pc, #172]	; 9588 <gpio_set_input+0xc4>
    94d8:	e0832093 	umull	r2, r3, r3, r0
    94dc:	e1a031a3 	lsr	r3, r3, #3
    94e0:	e3530005 	cmp	r3, #5
    94e4:	979ff103 	ldrls	pc, [pc, r3, lsl #2]
    94e8:	ea000017 	b	954c <gpio_set_input+0x88>
    94ec:	00009504 	andeq	r9, r0, r4, lsl #10
    94f0:	00009510 	andeq	r9, r0, r0, lsl r5
    94f4:	0000951c 	andeq	r9, r0, ip, lsl r5
    94f8:	00009528 	andeq	r9, r0, r8, lsr #10
    94fc:	00009534 	andeq	r9, r0, r4, lsr r5
    9500:	00009540 	andeq	r9, r0, r0, asr #10
    9504:	e59f3080 	ldr	r3, [pc, #128]	; 958c <gpio_set_input+0xc8>
    9508:	e5935000 	ldr	r5, [r3]
    950c:	ea00000f 	b	9550 <gpio_set_input+0x8c>
    9510:	e59f3074 	ldr	r3, [pc, #116]	; 958c <gpio_set_input+0xc8>
    9514:	e5935004 	ldr	r5, [r3, #4]
    9518:	ea00000c 	b	9550 <gpio_set_input+0x8c>
    951c:	e59f3068 	ldr	r3, [pc, #104]	; 958c <gpio_set_input+0xc8>
    9520:	e5935008 	ldr	r5, [r3, #8]
    9524:	ea000009 	b	9550 <gpio_set_input+0x8c>
    9528:	e59f305c 	ldr	r3, [pc, #92]	; 958c <gpio_set_input+0xc8>
    952c:	e593500c 	ldr	r5, [r3, #12]
    9530:	ea000006 	b	9550 <gpio_set_input+0x8c>
    9534:	e59f3050 	ldr	r3, [pc, #80]	; 958c <gpio_set_input+0xc8>
    9538:	e5935010 	ldr	r5, [r3, #16]
    953c:	ea000003 	b	9550 <gpio_set_input+0x8c>
    9540:	e59f3044 	ldr	r3, [pc, #68]	; 958c <gpio_set_input+0xc8>
    9544:	e5935014 	ldr	r5, [r3, #20]
    9548:	ea000000 	b	9550 <gpio_set_input+0x8c>
    954c:	e3a05000 	mov	r5, #0
    9550:	e1a00005 	mov	r0, r5
    9554:	eb000183 	bl	9b68 <get32>
    9558:	e59f1028 	ldr	r1, [pc, #40]	; 9588 <gpio_set_input+0xc4>
    955c:	e0813491 	umull	r3, r1, r1, r4
    9560:	e1a011a1 	lsr	r1, r1, #3
    9564:	e0811101 	add	r1, r1, r1, lsl #2
    9568:	e1a01081 	lsl	r1, r1, #1
    956c:	e0611004 	rsb	r1, r1, r4
    9570:	e0811081 	add	r1, r1, r1, lsl #1
    9574:	e3a03007 	mov	r3, #7
    9578:	e1c01113 	bic	r1, r0, r3, lsl r1
    957c:	e1a00005 	mov	r0, r5
    9580:	eb00016c 	bl	9b38 <put32>
    9584:	e8bd8038 	pop	{r3, r4, r5, pc}
    9588:	cccccccd 	stclgt	12, cr12, [ip], {205}	; 0xcd
    958c:	00009d8c 	andeq	r9, r0, ip, lsl #27

00009590 <gpio_read>:
    9590:	e92d4010 	push	{r4, lr}
    9594:	e1a04000 	mov	r4, r0
    9598:	e350001f 	cmp	r0, #31
    959c:	8a00000b 	bhi	95d0 <gpio_read+0x40>
    95a0:	8a000003 	bhi	95b4 <gpio_read+0x24>
    95a4:	e59f302c 	ldr	r3, [pc, #44]	; 95d8 <gpio_read+0x48>
    95a8:	e5930028 	ldr	r0, [r3, #40]	; 0x28
    95ac:	eb00016d 	bl	9b68 <get32>
    95b0:	ea000002 	b	95c0 <gpio_read+0x30>
    95b4:	e59f301c 	ldr	r3, [pc, #28]	; 95d8 <gpio_read+0x48>
    95b8:	e593002c 	ldr	r0, [r3, #44]	; 0x2c
    95bc:	eb000169 	bl	9b68 <get32>
    95c0:	e204401f 	and	r4, r4, #31
    95c4:	e3a03001 	mov	r3, #1
    95c8:	e0000413 	and	r0, r0, r3, lsl r4
    95cc:	e8bd8010 	pop	{r4, pc}
    95d0:	e3e00000 	mvn	r0, #0
    95d4:	e8bd8010 	pop	{r4, pc}
    95d8:	00009d8c 	andeq	r9, r0, ip, lsl #27

000095dc <gpio_write>:
    95dc:	e92d4008 	push	{r3, lr}
    95e0:	e350001f 	cmp	r0, #31
    95e4:	88bd8008 	pophi	{r3, pc}
    95e8:	e3510000 	cmp	r1, #0
    95ec:	0a000001 	beq	95f8 <gpio_write+0x1c>
    95f0:	ebffff97 	bl	9454 <gpio_set_on>
    95f4:	e8bd8008 	pop	{r3, pc}
    95f8:	ebffffa3 	bl	948c <gpio_set_off>
    95fc:	e8bd8008 	pop	{r3, pc}

00009600 <gpio_set_function>:
    9600:	e92d4070 	push	{r4, r5, r6, lr}
    9604:	e1a04000 	mov	r4, r0
    9608:	e1a05001 	mov	r5, r1
    960c:	e3510007 	cmp	r1, #7
    9610:	9350001f 	cmpls	r0, #31
    9614:	88bd8070 	pophi	{r4, r5, r6, pc}
    9618:	e59f30b0 	ldr	r3, [pc, #176]	; 96d0 <gpio_set_function+0xd0>
    961c:	e0832093 	umull	r2, r3, r3, r0
    9620:	e1a031a3 	lsr	r3, r3, #3
    9624:	e3530005 	cmp	r3, #5
    9628:	979ff103 	ldrls	pc, [pc, r3, lsl #2]
    962c:	ea000017 	b	9690 <gpio_set_function+0x90>
    9630:	00009648 	andeq	r9, r0, r8, asr #12
    9634:	00009654 	andeq	r9, r0, r4, asr r6
    9638:	00009660 	andeq	r9, r0, r0, ror #12
    963c:	0000966c 	andeq	r9, r0, ip, ror #12
    9640:	00009678 	andeq	r9, r0, r8, ror r6
    9644:	00009684 	andeq	r9, r0, r4, lsl #13
    9648:	e59f3084 	ldr	r3, [pc, #132]	; 96d4 <gpio_set_function+0xd4>
    964c:	e5936000 	ldr	r6, [r3]
    9650:	ea00000f 	b	9694 <gpio_set_function+0x94>
    9654:	e59f3078 	ldr	r3, [pc, #120]	; 96d4 <gpio_set_function+0xd4>
    9658:	e5936004 	ldr	r6, [r3, #4]
    965c:	ea00000c 	b	9694 <gpio_set_function+0x94>
    9660:	e59f306c 	ldr	r3, [pc, #108]	; 96d4 <gpio_set_function+0xd4>
    9664:	e5936008 	ldr	r6, [r3, #8]
    9668:	ea000009 	b	9694 <gpio_set_function+0x94>
    966c:	e59f3060 	ldr	r3, [pc, #96]	; 96d4 <gpio_set_function+0xd4>
    9670:	e593600c 	ldr	r6, [r3, #12]
    9674:	ea000006 	b	9694 <gpio_set_function+0x94>
    9678:	e59f3054 	ldr	r3, [pc, #84]	; 96d4 <gpio_set_function+0xd4>
    967c:	e5936010 	ldr	r6, [r3, #16]
    9680:	ea000003 	b	9694 <gpio_set_function+0x94>
    9684:	e59f3048 	ldr	r3, [pc, #72]	; 96d4 <gpio_set_function+0xd4>
    9688:	e5936014 	ldr	r6, [r3, #20]
    968c:	ea000000 	b	9694 <gpio_set_function+0x94>
    9690:	e3a06000 	mov	r6, #0
    9694:	e1a00006 	mov	r0, r6
    9698:	eb000132 	bl	9b68 <get32>
    969c:	e59f302c 	ldr	r3, [pc, #44]	; 96d0 <gpio_set_function+0xd0>
    96a0:	e0832493 	umull	r2, r3, r3, r4
    96a4:	e1a031a3 	lsr	r3, r3, #3
    96a8:	e0833103 	add	r3, r3, r3, lsl #2
    96ac:	e1a03083 	lsl	r3, r3, #1
    96b0:	e0633004 	rsb	r3, r3, r4
    96b4:	e0833083 	add	r3, r3, r3, lsl #1
    96b8:	e3a01007 	mov	r1, #7
    96bc:	e1c01311 	bic	r1, r0, r1, lsl r3
    96c0:	e1a00006 	mov	r0, r6
    96c4:	e1811315 	orr	r1, r1, r5, lsl r3
    96c8:	eb00011a 	bl	9b38 <put32>
    96cc:	e8bd8070 	pop	{r4, r5, r6, pc}
    96d0:	cccccccd 	stclgt	12, cr12, [ip], {205}	; 0xcd
    96d4:	00009d8c 	andeq	r9, r0, ip, lsl #27

000096d8 <gpio_toggle>:
    96d8:	e92d4008 	push	{r3, lr}
    96dc:	e350001f 	cmp	r0, #31
    96e0:	88bd8008 	pophi	{r3, pc}
    96e4:	959f3020 	ldrls	r3, [pc, #32]	; 970c <gpio_toggle+0x34>
    96e8:	95932018 	ldrls	r2, [r3, #24]
    96ec:	859f3018 	ldrhi	r3, [pc, #24]	; 970c <gpio_toggle+0x34>
    96f0:	8593201c 	ldrhi	r2, [r3, #28]
    96f4:	e200301f 	and	r3, r0, #31
    96f8:	e1a00002 	mov	r0, r2
    96fc:	e3a01001 	mov	r1, #1
    9700:	e1a01311 	lsl	r1, r1, r3
    9704:	eb00010b 	bl	9b38 <put32>
    9708:	e8bd8008 	pop	{r3, pc}
    970c:	00009d8c 	andeq	r9, r0, ip, lsl #27

00009710 <is_gpio_int>:
    9710:	e92d4008 	push	{r3, lr}
    9714:	e59f301c 	ldr	r3, [pc, #28]	; 9738 <is_gpio_int+0x28>
    9718:	e5930030 	ldr	r0, [r3, #48]	; 0x30
    971c:	eb000111 	bl	9b68 <get32>
    9720:	e3500000 	cmp	r0, #0
    9724:	0a000001 	beq	9730 <is_gpio_int+0x20>
    9728:	e3a00001 	mov	r0, #1
    972c:	e8bd8008 	pop	{r3, pc}
    9730:	e3a00000 	mov	r0, #0
    9734:	e8bd8008 	pop	{r3, pc}
    9738:	00009d8c 	andeq	r9, r0, ip, lsl #27

0000973c <gpio_int_rising_edge>:
    973c:	e92d4038 	push	{r3, r4, r5, lr}
    9740:	e1a04000 	mov	r4, r0
    9744:	e350001f 	cmp	r0, #31
    9748:	88bd8038 	pophi	{r3, r4, r5, pc}
    974c:	eb0000f3 	bl	9b20 <dev_barrier>
    9750:	e354001f 	cmp	r4, #31
    9754:	8a000007 	bhi	9778 <gpio_int_rising_edge+0x3c>
    9758:	e59f505c 	ldr	r5, [pc, #92]	; 97bc <gpio_int_rising_edge+0x80>
    975c:	e5950034 	ldr	r0, [r5, #52]	; 0x34
    9760:	eb000100 	bl	9b68 <get32>
    9764:	e3a01001 	mov	r1, #1
    9768:	e1801411 	orr	r1, r0, r1, lsl r4
    976c:	e5950034 	ldr	r0, [r5, #52]	; 0x34
    9770:	eb0000f0 	bl	9b38 <put32>
    9774:	ea000007 	b	9798 <gpio_int_rising_edge+0x5c>
    9778:	e59f503c 	ldr	r5, [pc, #60]	; 97bc <gpio_int_rising_edge+0x80>
    977c:	e5950038 	ldr	r0, [r5, #56]	; 0x38
    9780:	eb0000f8 	bl	9b68 <get32>
    9784:	e204401f 	and	r4, r4, #31
    9788:	e3a01001 	mov	r1, #1
    978c:	e1801411 	orr	r1, r0, r1, lsl r4
    9790:	e5950038 	ldr	r0, [r5, #56]	; 0x38
    9794:	eb0000e7 	bl	9b38 <put32>
    9798:	eb0000e0 	bl	9b20 <dev_barrier>
    979c:	e59f4018 	ldr	r4, [pc, #24]	; 97bc <gpio_int_rising_edge+0x80>
    97a0:	e594003c 	ldr	r0, [r4, #60]	; 0x3c
    97a4:	eb0000ef 	bl	9b68 <get32>
    97a8:	e3801802 	orr	r1, r0, #131072	; 0x20000
    97ac:	e594003c 	ldr	r0, [r4, #60]	; 0x3c
    97b0:	eb0000e0 	bl	9b38 <put32>
    97b4:	eb0000d9 	bl	9b20 <dev_barrier>
    97b8:	e8bd8038 	pop	{r3, r4, r5, pc}
    97bc:	00009d8c 	andeq	r9, r0, ip, lsl #27

000097c0 <gpio_int_falling_edge>:
    97c0:	e92d4038 	push	{r3, r4, r5, lr}
    97c4:	e1a04000 	mov	r4, r0
    97c8:	e350001f 	cmp	r0, #31
    97cc:	88bd8038 	pophi	{r3, r4, r5, pc}
    97d0:	eb0000d2 	bl	9b20 <dev_barrier>
    97d4:	e354001f 	cmp	r4, #31
    97d8:	8a000007 	bhi	97fc <gpio_int_falling_edge+0x3c>
    97dc:	e59f505c 	ldr	r5, [pc, #92]	; 9840 <gpio_int_falling_edge+0x80>
    97e0:	e5950040 	ldr	r0, [r5, #64]	; 0x40
    97e4:	eb0000df 	bl	9b68 <get32>
    97e8:	e3a01001 	mov	r1, #1
    97ec:	e1801411 	orr	r1, r0, r1, lsl r4
    97f0:	e5950040 	ldr	r0, [r5, #64]	; 0x40
    97f4:	eb0000cf 	bl	9b38 <put32>
    97f8:	ea000007 	b	981c <gpio_int_falling_edge+0x5c>
    97fc:	e59f503c 	ldr	r5, [pc, #60]	; 9840 <gpio_int_falling_edge+0x80>
    9800:	e5950044 	ldr	r0, [r5, #68]	; 0x44
    9804:	eb0000d7 	bl	9b68 <get32>
    9808:	e204401f 	and	r4, r4, #31
    980c:	e3a01001 	mov	r1, #1
    9810:	e1801411 	orr	r1, r0, r1, lsl r4
    9814:	e5950044 	ldr	r0, [r5, #68]	; 0x44
    9818:	eb0000c6 	bl	9b38 <put32>
    981c:	eb0000bf 	bl	9b20 <dev_barrier>
    9820:	e59f4018 	ldr	r4, [pc, #24]	; 9840 <gpio_int_falling_edge+0x80>
    9824:	e594003c 	ldr	r0, [r4, #60]	; 0x3c
    9828:	eb0000ce 	bl	9b68 <get32>
    982c:	e3801601 	orr	r1, r0, #1048576	; 0x100000
    9830:	e594003c 	ldr	r0, [r4, #60]	; 0x3c
    9834:	eb0000bf 	bl	9b38 <put32>
    9838:	eb0000b8 	bl	9b20 <dev_barrier>
    983c:	e8bd8038 	pop	{r3, r4, r5, pc}
    9840:	00009d8c 	andeq	r9, r0, ip, lsl #27

00009844 <gpio_event_detected>:
    9844:	e92d4010 	push	{r4, lr}
    9848:	e1a04000 	mov	r4, r0
    984c:	e350001f 	cmp	r0, #31
    9850:	8a000019 	bhi	98bc <gpio_event_detected+0x78>
    9854:	eb0000b1 	bl	9b20 <dev_barrier>
    9858:	e354001f 	cmp	r4, #31
    985c:	8a000008 	bhi	9884 <gpio_event_detected+0x40>
    9860:	e59f305c 	ldr	r3, [pc, #92]	; 98c4 <gpio_event_detected+0x80>
    9864:	e5930048 	ldr	r0, [r3, #72]	; 0x48
    9868:	eb0000be 	bl	9b68 <get32>
    986c:	e3a03001 	mov	r3, #1
    9870:	e0103413 	ands	r3, r0, r3, lsl r4
    9874:	0a00000d 	beq	98b0 <gpio_event_detected+0x6c>
    9878:	eb0000a8 	bl	9b20 <dev_barrier>
    987c:	e3a00001 	mov	r0, #1
    9880:	e8bd8010 	pop	{r4, pc}
    9884:	e59f3038 	ldr	r3, [pc, #56]	; 98c4 <gpio_event_detected+0x80>
    9888:	e593004c 	ldr	r0, [r3, #76]	; 0x4c
    988c:	eb0000b5 	bl	9b68 <get32>
    9890:	e3a03001 	mov	r3, #1
    9894:	e0004413 	and	r4, r0, r3, lsl r4
    9898:	eb0000a0 	bl	9b20 <dev_barrier>
    989c:	e3540000 	cmp	r4, #0
    98a0:	0a000002 	beq	98b0 <gpio_event_detected+0x6c>
    98a4:	eb00009d 	bl	9b20 <dev_barrier>
    98a8:	e3a00001 	mov	r0, #1
    98ac:	e8bd8010 	pop	{r4, pc}
    98b0:	eb00009a 	bl	9b20 <dev_barrier>
    98b4:	e3a00000 	mov	r0, #0
    98b8:	e8bd8010 	pop	{r4, pc}
    98bc:	e3e00000 	mvn	r0, #0
    98c0:	e8bd8010 	pop	{r4, pc}
    98c4:	00009d8c 	andeq	r9, r0, ip, lsl #27

000098c8 <gpio_event_clear>:
    98c8:	e92d4010 	push	{r4, lr}
    98cc:	e1a04000 	mov	r4, r0
    98d0:	e350001f 	cmp	r0, #31
    98d4:	88bd8010 	pophi	{r4, pc}
    98d8:	eb000090 	bl	9b20 <dev_barrier>
    98dc:	e354001f 	cmp	r4, #31
    98e0:	8a000005 	bhi	98fc <gpio_event_clear+0x34>
    98e4:	e59f3030 	ldr	r3, [pc, #48]	; 991c <gpio_event_clear+0x54>
    98e8:	e5930048 	ldr	r0, [r3, #72]	; 0x48
    98ec:	e3a01001 	mov	r1, #1
    98f0:	e1a01411 	lsl	r1, r1, r4
    98f4:	eb00008f 	bl	9b38 <put32>
    98f8:	ea000005 	b	9914 <gpio_event_clear+0x4c>
    98fc:	e204401f 	and	r4, r4, #31
    9900:	e59f3014 	ldr	r3, [pc, #20]	; 991c <gpio_event_clear+0x54>
    9904:	e593004c 	ldr	r0, [r3, #76]	; 0x4c
    9908:	e3a01001 	mov	r1, #1
    990c:	e1a01411 	lsl	r1, r1, r4
    9910:	eb000088 	bl	9b38 <put32>
    9914:	eb000081 	bl	9b20 <dev_barrier>
    9918:	e8bd8010 	pop	{r4, pc}
    991c:	00009d8c 	andeq	r9, r0, ip, lsl #27

00009920 <uart_init>:
    9920:	e92d4038 	push	{r3, r4, r5, lr}
    9924:	eb00007d 	bl	9b20 <dev_barrier>
    9928:	e3a0000e 	mov	r0, #14
    992c:	e3a01002 	mov	r1, #2
    9930:	ebffff32 	bl	9600 <gpio_set_function>
    9934:	e3a0000f 	mov	r0, #15
    9938:	e3a01002 	mov	r1, #2
    993c:	ebffff2f 	bl	9600 <gpio_set_function>
    9940:	eb000076 	bl	9b20 <dev_barrier>
    9944:	e59f4068 	ldr	r4, [pc, #104]	; 99b4 <uart_init+0x94>
    9948:	e5945000 	ldr	r5, [r4]
    994c:	e1a00005 	mov	r0, r5
    9950:	eb000084 	bl	9b68 <get32>
    9954:	e3801001 	orr	r1, r0, #1
    9958:	e1a00005 	mov	r0, r5
    995c:	eb000075 	bl	9b38 <put32>
    9960:	eb00006e 	bl	9b20 <dev_barrier>
    9964:	e5940004 	ldr	r0, [r4, #4]
    9968:	e3a01000 	mov	r1, #0
    996c:	eb000071 	bl	9b38 <put32>
    9970:	e5940008 	ldr	r0, [r4, #8]
    9974:	e3a01000 	mov	r1, #0
    9978:	eb00006e 	bl	9b38 <put32>
    997c:	e594000c 	ldr	r0, [r4, #12]
    9980:	e3a01006 	mov	r1, #6
    9984:	eb00006b 	bl	9b38 <put32>
    9988:	e5940010 	ldr	r0, [r4, #16]
    998c:	e3a01003 	mov	r1, #3
    9990:	eb000068 	bl	9b38 <put32>
    9994:	e5940014 	ldr	r0, [r4, #20]
    9998:	e59f1018 	ldr	r1, [pc, #24]	; 99b8 <uart_init+0x98>
    999c:	eb000065 	bl	9b38 <put32>
    99a0:	e5940004 	ldr	r0, [r4, #4]
    99a4:	e3a01003 	mov	r1, #3
    99a8:	eb000062 	bl	9b38 <put32>
    99ac:	eb00005b 	bl	9b20 <dev_barrier>
    99b0:	e8bd8038 	pop	{r3, r4, r5, pc}
    99b4:	00009dec 	andeq	r9, r0, ip, ror #27
    99b8:	0000010e 	andeq	r0, r0, lr, lsl #2

000099bc <uart_can_getc>:
    99bc:	e92d4008 	push	{r3, lr}
    99c0:	e59f300c 	ldr	r3, [pc, #12]	; 99d4 <uart_can_getc+0x18>
    99c4:	e5930018 	ldr	r0, [r3, #24]
    99c8:	eb000066 	bl	9b68 <get32>
    99cc:	e2000001 	and	r0, r0, #1
    99d0:	e8bd8008 	pop	{r3, pc}
    99d4:	00009dec 	andeq	r9, r0, ip, ror #27

000099d8 <uart_getc>:
    99d8:	e92d4008 	push	{r3, lr}
    99dc:	ebfffff6 	bl	99bc <uart_can_getc>
    99e0:	e3500000 	cmp	r0, #0
    99e4:	0afffffc 	beq	99dc <uart_getc+0x4>
    99e8:	e59f300c 	ldr	r3, [pc, #12]	; 99fc <uart_getc+0x24>
    99ec:	e593001c 	ldr	r0, [r3, #28]
    99f0:	eb00005c 	bl	9b68 <get32>
    99f4:	e6ef0070 	uxtb	r0, r0
    99f8:	e8bd8008 	pop	{r3, pc}
    99fc:	00009dec 	andeq	r9, r0, ip, ror #27

00009a00 <uart_can_putc>:
    9a00:	e92d4008 	push	{r3, lr}
    9a04:	e59f300c 	ldr	r3, [pc, #12]	; 9a18 <uart_can_putc+0x18>
    9a08:	e5930018 	ldr	r0, [r3, #24]
    9a0c:	eb000055 	bl	9b68 <get32>
    9a10:	e2000020 	and	r0, r0, #32
    9a14:	e8bd8008 	pop	{r3, pc}
    9a18:	00009dec 	andeq	r9, r0, ip, ror #27

00009a1c <uart_putc>:
    9a1c:	e92d4010 	push	{r4, lr}
    9a20:	e1a04000 	mov	r4, r0
    9a24:	ebfffff5 	bl	9a00 <uart_can_putc>
    9a28:	e3500000 	cmp	r0, #0
    9a2c:	0afffffc 	beq	9a24 <uart_putc+0x8>
    9a30:	e59f300c 	ldr	r3, [pc, #12]	; 9a44 <uart_putc+0x28>
    9a34:	e593001c 	ldr	r0, [r3, #28]
    9a38:	e1a01004 	mov	r1, r4
    9a3c:	eb00003d 	bl	9b38 <put32>
    9a40:	e8bd8010 	pop	{r4, pc}
    9a44:	00009dec 	andeq	r9, r0, ip, ror #27

00009a48 <uart_has_data>:
    9a48:	e92d4008 	push	{r3, lr}
    9a4c:	ebffffda 	bl	99bc <uart_can_getc>
    9a50:	e8bd8008 	pop	{r3, pc}

00009a54 <uart_getc_async>:
    9a54:	e92d4008 	push	{r3, lr}
    9a58:	ebfffffa 	bl	9a48 <uart_has_data>
    9a5c:	e3500000 	cmp	r0, #0
    9a60:	0a000001 	beq	9a6c <uart_getc_async+0x18>
    9a64:	ebffffdb 	bl	99d8 <uart_getc>
    9a68:	e8bd8008 	pop	{r3, pc}
    9a6c:	e3e00000 	mvn	r0, #0
    9a70:	e8bd8008 	pop	{r3, pc}

00009a74 <int_init>:
    9a74:	e92d4008 	push	{r3, lr}
    9a78:	e59f004c 	ldr	r0, [pc, #76]	; 9acc <int_init+0x58>
    9a7c:	e3e01000 	mvn	r1, #0
    9a80:	eb00002e 	bl	9b40 <PUT32>
    9a84:	e59f0044 	ldr	r0, [pc, #68]	; 9ad0 <int_init+0x5c>
    9a88:	e3e01000 	mvn	r1, #0
    9a8c:	eb00002b 	bl	9b40 <PUT32>
    9a90:	eb000022 	bl	9b20 <dev_barrier>
    9a94:	e59f3038 	ldr	r3, [pc, #56]	; 9ad4 <int_init+0x60>
    9a98:	e59f0038 	ldr	r0, [pc, #56]	; 9ad8 <int_init+0x64>
    9a9c:	e0630000 	rsb	r0, r3, r0
    9aa0:	e1a00140 	asr	r0, r0, #2
    9aa4:	e3a03000 	mov	r3, #0
    9aa8:	e59fc024 	ldr	ip, [pc, #36]	; 9ad4 <int_init+0x60>
    9aac:	ea000003 	b	9ac0 <int_init+0x4c>
    9ab0:	e1a02103 	lsl	r2, r3, #2
    9ab4:	e79c1103 	ldr	r1, [ip, r3, lsl #2]
    9ab8:	e5821000 	str	r1, [r2]
    9abc:	e2833001 	add	r3, r3, #1
    9ac0:	e1530000 	cmp	r3, r0
    9ac4:	3afffff9 	bcc	9ab0 <int_init+0x3c>
    9ac8:	e8bd8008 	pop	{r3, pc}
    9acc:	2000b21c 	andcs	fp, r0, ip, lsl r2
    9ad0:	2000b220 	andcs	fp, r0, r0, lsr #4
    9ad4:	00009ba4 	andeq	r9, r0, r4, lsr #23
    9ad8:	00009bf4 	strdeq	r9, [r0], -r4

00009adc <fast_interrupt_vector>:
    9adc:	e52de004 	push	{lr}		; (str lr, [sp, #-4]!)
    9ae0:	e24dd00c 	sub	sp, sp, #12
    9ae4:	e1a04000 	mov	r4, r0
    9ae8:	ebfffc71 	bl	8cb4 <rpi_reset_putc>
    9aec:	e59f301c 	ldr	r3, [pc, #28]	; 9b10 <fast_interrupt_vector+0x34>
    9af0:	e58d3000 	str	r3, [sp]
    9af4:	e58d4004 	str	r4, [sp, #4]
    9af8:	e59f0014 	ldr	r0, [pc, #20]	; 9b14 <fast_interrupt_vector+0x38>
    9afc:	e59f1014 	ldr	r1, [pc, #20]	; 9b18 <fast_interrupt_vector+0x3c>
    9b00:	e59f2014 	ldr	r2, [pc, #20]	; 9b1c <fast_interrupt_vector+0x40>
    9b04:	e3a0302f 	mov	r3, #47	; 0x2f
    9b08:	ebfffc4e 	bl	8c48 <printk>
    9b0c:	ebfffdc5 	bl	9228 <clean_reboot>
    9b10:	0000a180 	andeq	sl, r0, r0, lsl #3
    9b14:	0000a124 	andeq	sl, r0, r4, lsr #2
    9b18:	0000a160 	andeq	sl, r0, r0, ror #2
    9b1c:	0000a10c 	andeq	sl, r0, ip, lsl #2

00009b20 <dev_barrier>:
    9b20:	ea000002 	b	9b30 <dsb>

00009b24 <dmb>:
    9b24:	e3a00000 	mov	r0, #0
    9b28:	ee070fba 	mcr	15, 0, r0, cr7, cr10, {5}
    9b2c:	e12fff1e 	bx	lr

00009b30 <dsb>:
    9b30:	ee070f9a 	mcr	15, 0, r0, cr7, cr10, {4}
    9b34:	e12fff1e 	bx	lr

00009b38 <put32>:
    9b38:	e5801000 	str	r1, [r0]
    9b3c:	e12fff1e 	bx	lr

00009b40 <PUT32>:
    9b40:	e5801000 	str	r1, [r0]
    9b44:	e12fff1e 	bx	lr

00009b48 <put16>:
    9b48:	e1c010b0 	strh	r1, [r0]
    9b4c:	e12fff1e 	bx	lr

00009b50 <PUT16>:
    9b50:	e1c010b0 	strh	r1, [r0]
    9b54:	e12fff1e 	bx	lr

00009b58 <put8>:
    9b58:	e5c01000 	strb	r1, [r0]
    9b5c:	e12fff1e 	bx	lr

00009b60 <PUT8>:
    9b60:	e5c01000 	strb	r1, [r0]
    9b64:	e12fff1e 	bx	lr

00009b68 <get32>:
    9b68:	e5900000 	ldr	r0, [r0]
    9b6c:	e12fff1e 	bx	lr

00009b70 <GET32>:
    9b70:	e5900000 	ldr	r0, [r0]
    9b74:	e12fff1e 	bx	lr

00009b78 <GETPC>:
    9b78:	e1a0000e 	mov	r0, lr
    9b7c:	e12fff1e 	bx	lr

00009b80 <dummy>:
    9b80:	e12fff1e 	bx	lr

00009b84 <system_enable_interrupts>:
    9b84:	e10f0000 	mrs	r0, CPSR
    9b88:	e3c00080 	bic	r0, r0, #128	; 0x80
    9b8c:	e121f000 	msr	CPSR_c, r0
    9b90:	e12fff1e 	bx	lr

00009b94 <system_disable_interrupts>:
    9b94:	e10f0000 	mrs	r0, CPSR
    9b98:	e3800080 	orr	r0, r0, #128	; 0x80
    9b9c:	e121f000 	msr	CPSR_c, r0
    9ba0:	e12fff1e 	bx	lr

00009ba4 <_interrupt_table>:
    9ba4:	e59ff030 	ldr	pc, [pc, #48]	; 9bdc <_reset_asm>
    9ba8:	e59ff030 	ldr	pc, [pc, #48]	; 9be0 <_undefined_instruction_asm>
    9bac:	e59ff030 	ldr	pc, [pc, #48]	; 9be4 <_software_interrupt_asm>
    9bb0:	e59ff030 	ldr	pc, [pc, #48]	; 9be8 <_prefetch_abort_asm>
    9bb4:	e59ff030 	ldr	pc, [pc, #48]	; 9bec <_data_abort_asm>
    9bb8:	e59ff01c 	ldr	pc, [pc, #28]	; 9bdc <_reset_asm>
    9bbc:	e59ff02c 	ldr	pc, [pc, #44]	; 9bf0 <_interrupt_asm>

00009bc0 <fast_interrupt_asm>:
    9bc0:	e24ee004 	sub	lr, lr, #4
    9bc4:	e52de004 	push	{lr}		; (str lr, [sp, #-4]!)
    9bc8:	e92d1fff 	push	{r0, r1, r2, r3, r4, r5, r6, r7, r8, r9, sl, fp, ip}
    9bcc:	e1a0000e 	mov	r0, lr
    9bd0:	ebffffc1 	bl	9adc <fast_interrupt_vector>
    9bd4:	e8bd1fff 	pop	{r0, r1, r2, r3, r4, r5, r6, r7, r8, r9, sl, fp, ip}
    9bd8:	e8fd8000 	ldm	sp!, {pc}^

00009bdc <_reset_asm>:
    9bdc:	00009c3c 	andeq	r9, r0, ip, lsr ip

00009be0 <_undefined_instruction_asm>:
    9be0:	00009c44 	andeq	r9, r0, r4, asr #24

00009be4 <_software_interrupt_asm>:
    9be4:	00009c10 	andeq	r9, r0, r0, lsl ip

00009be8 <_prefetch_abort_asm>:
    9be8:	00009c4c 	andeq	r9, r0, ip, asr #24

00009bec <_data_abort_asm>:
    9bec:	00009c54 	andeq	r9, r0, r4, asr ip

00009bf0 <_interrupt_asm>:
    9bf0:	00009bf4 	strdeq	r9, [r0], -r4

00009bf4 <_interrupt_table_end>:
    9bf4:	e3a0d409 	mov	sp, #150994944	; 0x9000000
    9bf8:	e24ee004 	sub	lr, lr, #4
    9bfc:	e92d5fff 	push	{r0, r1, r2, r3, r4, r5, r6, r7, r8, r9, sl, fp, ip, lr}
    9c00:	e1a0000e 	mov	r0, lr
    9c04:	ebfffaee 	bl	87c4 <interrupt_vector>
    9c08:	e8bd5fff 	pop	{r0, r1, r2, r3, r4, r5, r6, r7, r8, r9, sl, fp, ip, lr}
    9c0c:	e1b0f00e 	movs	pc, lr

00009c10 <software_interrupt_asm>:
    9c10:	e52de004 	push	{lr}		; (str lr, [sp, #-4]!)
    9c14:	e92d1ffe 	push	{r1, r2, r3, r4, r5, r6, r7, r8, r9, sl, fp, ip}
    9c18:	e24ee004 	sub	lr, lr, #4
    9c1c:	e1a0200e 	mov	r2, lr
    9c20:	e1a01000 	mov	r1, r0
    9c24:	e1a0000e 	mov	r0, lr
    9c28:	eb000003 	bl	9c3c <reset_asm>
    9c2c:	e8bd1ffe 	pop	{r1, r2, r3, r4, r5, r6, r7, r8, r9, sl, fp, ip}
    9c30:	e49de004 	pop	{lr}		; (ldr lr, [sp], #4)
    9c34:	e8fd8000 	ldm	sp!, {pc}^
    9c38:	e1b0f00e 	movs	pc, lr

00009c3c <reset_asm>:
    9c3c:	e24ee004 	sub	lr, lr, #4
    9c40:	eb00002c 	bl	9cf8 <reset_vector>

00009c44 <undefined_instruction_asm>:
    9c44:	e24ee004 	sub	lr, lr, #4
    9c48:	eb00003b 	bl	9d3c <undefined_instruction_vector>

00009c4c <prefetch_abort_asm>:
    9c4c:	e24ee004 	sub	lr, lr, #4
    9c50:	eb000017 	bl	9cb4 <prefetch_abort_vector>

00009c54 <data_abort_asm>:
    9c54:	e3a0d409 	mov	sp, #150994944	; 0x9000000
    9c58:	e24ee008 	sub	lr, lr, #8
    9c5c:	e92d5fff 	push	{r0, r1, r2, r3, r4, r5, r6, r7, r8, r9, sl, fp, ip, lr}
    9c60:	e1a0000e 	mov	r0, lr
    9c64:	eb000001 	bl	9c70 <data_abort_vector>
    9c68:	e8bd5fff 	pop	{r0, r1, r2, r3, r4, r5, r6, r7, r8, r9, sl, fp, ip, lr}
    9c6c:	e1b0f00e 	movs	pc, lr

00009c70 <data_abort_vector>:
    9c70:	e52de004 	push	{lr}		; (str lr, [sp, #-4]!)
    9c74:	e24dd00c 	sub	sp, sp, #12
    9c78:	e1a04000 	mov	r4, r0
    9c7c:	ebfffc0c 	bl	8cb4 <rpi_reset_putc>
    9c80:	e59f301c 	ldr	r3, [pc, #28]	; 9ca4 <data_abort_vector+0x34>
    9c84:	e58d3000 	str	r3, [sp]
    9c88:	e58d4004 	str	r4, [sp, #4]
    9c8c:	e59f0014 	ldr	r0, [pc, #20]	; 9ca8 <data_abort_vector+0x38>
    9c90:	e59f1014 	ldr	r1, [pc, #20]	; 9cac <data_abort_vector+0x3c>
    9c94:	e59f2014 	ldr	r2, [pc, #20]	; 9cb0 <data_abort_vector+0x40>
    9c98:	e3a03002 	mov	r3, #2
    9c9c:	ebfffbe9 	bl	8c48 <printk>
    9ca0:	ebfffd60 	bl	9228 <clean_reboot>
    9ca4:	0000a1cc 	andeq	sl, r0, ip, asr #3
    9ca8:	0000a124 	andeq	sl, r0, r4, lsr #2
    9cac:	0000a19c 	muleq	r0, ip, r1
    9cb0:	0000a188 	andeq	sl, r0, r8, lsl #3

00009cb4 <prefetch_abort_vector>:
    9cb4:	e52de004 	push	{lr}		; (str lr, [sp, #-4]!)
    9cb8:	e24dd00c 	sub	sp, sp, #12
    9cbc:	e1a04000 	mov	r4, r0
    9cc0:	ebfffbfb 	bl	8cb4 <rpi_reset_putc>
    9cc4:	e59f301c 	ldr	r3, [pc, #28]	; 9ce8 <prefetch_abort_vector+0x34>
    9cc8:	e58d3000 	str	r3, [sp]
    9ccc:	e58d4004 	str	r4, [sp, #4]
    9cd0:	e59f0014 	ldr	r0, [pc, #20]	; 9cec <prefetch_abort_vector+0x38>
    9cd4:	e59f1014 	ldr	r1, [pc, #20]	; 9cf0 <prefetch_abort_vector+0x3c>
    9cd8:	e59f2014 	ldr	r2, [pc, #20]	; 9cf4 <prefetch_abort_vector+0x40>
    9cdc:	e3a03002 	mov	r3, #2
    9ce0:	ebfffbd8 	bl	8c48 <printk>
    9ce4:	ebfffd4f 	bl	9228 <clean_reboot>
    9ce8:	0000a21c 	andeq	sl, r0, ip, lsl r2
    9cec:	0000a124 	andeq	sl, r0, r4, lsr #2
    9cf0:	0000a1f0 	strdeq	sl, [r0], -r0
    9cf4:	0000a1d8 	ldrdeq	sl, [r0], -r8

00009cf8 <reset_vector>:
    9cf8:	e52de004 	push	{lr}		; (str lr, [sp, #-4]!)
    9cfc:	e24dd00c 	sub	sp, sp, #12
    9d00:	e1a04000 	mov	r4, r0
    9d04:	ebfffbea 	bl	8cb4 <rpi_reset_putc>
    9d08:	e59f301c 	ldr	r3, [pc, #28]	; 9d2c <reset_vector+0x34>
    9d0c:	e58d3000 	str	r3, [sp]
    9d10:	e58d4004 	str	r4, [sp, #4]
    9d14:	e59f0014 	ldr	r0, [pc, #20]	; 9d30 <reset_vector+0x38>
    9d18:	e59f1014 	ldr	r1, [pc, #20]	; 9d34 <reset_vector+0x3c>
    9d1c:	e59f2014 	ldr	r2, [pc, #20]	; 9d38 <reset_vector+0x40>
    9d20:	e3a03002 	mov	r3, #2
    9d24:	ebfffbc7 	bl	8c48 <printk>
    9d28:	ebfffd3e 	bl	9228 <clean_reboot>
    9d2c:	0000a268 	andeq	sl, r0, r8, ror #4
    9d30:	0000a124 	andeq	sl, r0, r4, lsr #2
    9d34:	0000a23c 	andeq	sl, r0, ip, lsr r2
    9d38:	0000a22c 	andeq	sl, r0, ip, lsr #4

00009d3c <undefined_instruction_vector>:
    9d3c:	e52de004 	push	{lr}		; (str lr, [sp, #-4]!)
    9d40:	e24dd00c 	sub	sp, sp, #12
    9d44:	e1a04000 	mov	r4, r0
    9d48:	ebfffbd9 	bl	8cb4 <rpi_reset_putc>
    9d4c:	e59f301c 	ldr	r3, [pc, #28]	; 9d70 <undefined_instruction_vector+0x34>
    9d50:	e58d3000 	str	r3, [sp]
    9d54:	e58d4004 	str	r4, [sp, #4]
    9d58:	e59f0014 	ldr	r0, [pc, #20]	; 9d74 <undefined_instruction_vector+0x38>
    9d5c:	e59f1014 	ldr	r1, [pc, #20]	; 9d78 <undefined_instruction_vector+0x3c>
    9d60:	e59f2014 	ldr	r2, [pc, #20]	; 9d7c <undefined_instruction_vector+0x40>
    9d64:	e3a03002 	mov	r3, #2
    9d68:	ebfffbb6 	bl	8c48 <printk>
    9d6c:	ebfffd2d 	bl	9228 <clean_reboot>
    9d70:	0000a2c4 	andeq	sl, r0, r4, asr #5
    9d74:	0000a124 	andeq	sl, r0, r4, lsr #2
    9d78:	0000a290 	muleq	r0, r0, r2
    9d7c:	0000a270 	andeq	sl, r0, r0, ror r2

Disassembly of section .data:

00009d80 <is_writing>:
    9d80:	00000001 	andeq	r0, r0, r1

00009d84 <rpi_putchar>:
    9d84:	00008ca0 	andeq	r8, r0, r0, lsr #25

00009d88 <putk>:
    9d88:	00008cdc 	ldrdeq	r8, [r0], -ip

00009d8c <GPFSEL0>:
    9d8c:	20200000 	eorcs	r0, r0, r0

00009d90 <GPFSEL1>:
    9d90:	20200004 	eorcs	r0, r0, r4

00009d94 <GPFSEL2>:
    9d94:	20200008 	eorcs	r0, r0, r8

00009d98 <GPFSEL3>:
    9d98:	2020000c 	eorcs	r0, r0, ip

00009d9c <GPFSEL4>:
    9d9c:	20200010 	eorcs	r0, r0, r0, lsl r0

00009da0 <GPFSEL5>:
    9da0:	20200014 	eorcs	r0, r0, r4, lsl r0

00009da4 <GPSET0>:
    9da4:	2020001c 	eorcs	r0, r0, ip, lsl r0

00009da8 <GPSET1>:
    9da8:	20200020 	eorcs	r0, r0, r0, lsr #32

00009dac <GPCLR0>:
    9dac:	20200028 	eorcs	r0, r0, r8, lsr #32

00009db0 <GPCLR1>:
    9db0:	2020002c 	eorcs	r0, r0, ip, lsr #32

00009db4 <GPLEV0>:
    9db4:	20200034 	eorcs	r0, r0, r4, lsr r0

00009db8 <GPLEV1>:
    9db8:	20200038 	eorcs	r0, r0, r8, lsr r0

00009dbc <IRQ_PENDING_2>:
    9dbc:	2000b208 	andcs	fp, r0, r8, lsl #4

00009dc0 <GPREN0>:
    9dc0:	2020004c 	eorcs	r0, r0, ip, asr #32

00009dc4 <GPREN1>:
    9dc4:	20200050 	eorcs	r0, r0, r0, asr r0

00009dc8 <ENABLE_IRQS_2>:
    9dc8:	2000b214 	andcs	fp, r0, r4, lsl r2

00009dcc <GPFEN0>:
    9dcc:	20200058 	eorcs	r0, r0, r8, asr r0

00009dd0 <GPFEN1>:
    9dd0:	2020005c 	eorcs	r0, r0, ip, asr r0

00009dd4 <GPEDS0>:
    9dd4:	20200040 	eorcs	r0, r0, r0, asr #32

00009dd8 <GPEDS1>:
    9dd8:	20200044 	eorcs	r0, r0, r4, asr #32

00009ddc <IRQ_PENDING_1>:
    9ddc:	2000b204 	andcs	fp, r0, r4, lsl #4

00009de0 <gpio_clr0>:
    9de0:	20200028 	eorcs	r0, r0, r8, lsr #32

00009de4 <gpio_set0>:
    9de4:	2020001c 	eorcs	r0, r0, ip, lsl r0

00009de8 <gpio_fsel0>:
    9de8:	20200000 	eorcs	r0, r0, r0

00009dec <AUX_ENABLES>:
    9dec:	20215004 	eorcs	r5, r1, r4

00009df0 <AUX_MU_CNTL_REG>:
    9df0:	20215060 	eorcs	r5, r1, r0, rrx

00009df4 <AUX_MU_IER_REG>:
    9df4:	20215044 	eorcs	r5, r1, r4, asr #32

00009df8 <AUX_MU_IIR_REG>:
    9df8:	20215048 	eorcs	r5, r1, r8, asr #32

00009dfc <AUX_MU_LCR_REG>:
    9dfc:	2021504c 	eorcs	r5, r1, ip, asr #32

00009e00 <AUX_MU_BAUD_REG>:
    9e00:	20215068 	eorcs	r5, r1, r8, rrx

00009e04 <AUX_MU_LSR_REG>:
    9e04:	20215054 	eorcs	r5, r1, r4, asr r0

00009e08 <AUX_MU_IO_REG>:
    9e08:	20215040 	eorcs	r5, r1, r0, asr #32

00009e0c <AUX_MU_STAT_REG>:
    9e0c:	20215064 	eorcs	r5, r1, r4, rrx

00009e10 <AUX_MU_SCRATCH>:
    9e10:	2021505c 	eorcs	r5, r1, ip, asr r0

00009e14 <AUX_MU_MSR_REG>:
    9e14:	20215058 	eorcs	r5, r1, r8, asr r0

00009e18 <AUX_MU_MCR_REG>:
    9e18:	20215050 	eorcs	r5, r1, r0, asr r0

00009e1c <AUX_IRQ>:
    9e1c:	20215000 	eorcs	r5, r1, r0

Disassembly of section .rodata:

00009e20 <__FUNCTION__.4305>:
    9e20:	705f7163 	subsvc	r7, pc, r3, ror #2
    9e24:	0000706f 	andeq	r7, r0, pc, rrx

00009e28 <__FUNCTION__.4479>:
    9e28:	6c637963 	stclvs	9, cr7, [r3], #-396	; 0xfffffe74
    9e2c:	705f7365 	subsvc	r7, pc, r5, ror #6
    9e30:	735f7265 	cmpvc	pc, #1342177286	; 0x50000006
    9e34:	00006365 	andeq	r6, r0, r5, ror #6

00009e38 <__FUNCTION__.4364>:
    9e38:	695f7163 	ldmdbvs	pc, {r0, r1, r5, r6, r8, ip, sp, lr}^	; <UNPREDICTABLE>
    9e3c:	0074696e 	rsbseq	r6, r4, lr, ror #18
    9e40:	61206d41 	teqvs	r0, r1, asr #26
    9e44:	72657320 	rsbvc	r7, r5, #32, 6	; 0x80000000
    9e48:	0a726576 	beq	1ca3428 <__bss_end__+0x1c96d10>
    9e4c:	00000000 	andeq	r0, r0, r0
    9e50:	494e4150 	stmdbmi	lr, {r4, r6, r8, lr}^
    9e54:	73253a43 	teqvc	r5, #274432	; 0x43000
    9e58:	3a73253a 	bcc	1cd3348 <__bss_end__+0x1cc6c30>
    9e5c:	773a6425 	ldrvc	r6, [sl, -r5, lsr #8]!
    9e60:	206c6c69 	rsbcs	r6, ip, r9, ror #24
    9e64:	64616564 	strbtvs	r6, [r1], #-1380	; 0x564
    9e68:	6b636f6c 	blvs	18e5c20 <__bss_end__+0x18d9508>
    9e6c:	6e69203a 	mcrvs	0, 3, r2, cr9, cr10, {1}
    9e70:	72726574 	rsbsvc	r6, r2, #116, 10	; 0x1d000000
    9e74:	73747075 	cmnvc	r4, #117	; 0x75
    9e78:	746f6e20 	strbtvc	r6, [pc], #-3616	; 9e80 <__FUNCTION__.4364+0x48>
    9e7c:	616e6520 	cmnvs	lr, r0, lsr #10
    9e80:	64656c62 	strbtvs	r6, [r5], #-3170	; 0xc62
    9e84:	49465b20 	stmdbmi	r6, {r5, r8, r9, fp, ip, lr}^
    9e88:	5d454d58 	stclpl	13, cr4, [r5, #-352]	; 0xfffffea0
    9e8c:	00000a0a 	andeq	r0, r0, sl, lsl #20
    9e90:	6573552f 	ldrbvs	r5, [r3, #-1327]!	; 0x52f
    9e94:	622f7372 	eorvs	r7, pc, #-939524095	; 0xc8000001
    9e98:	6e616972 	mcrvs	9, 3, r6, cr1, cr2, {3}
    9e9c:	2f6e756a 	svccs	0x006e756a
    9ea0:	6b736544 	blvs	1ce33b8 <__bss_end__+0x1cd6ca0>
    9ea4:	2f706f74 	svccs	0x00706f74
    9ea8:	6f686373 	svcvs	0x00686373
    9eac:	572f6c6f 	strpl	r6, [pc, -pc, ror #24]!
    9eb0:	65746e69 	ldrbvs	r6, [r4, #-3689]!	; 0xe69
    9eb4:	32393172 	eorscc	r3, r9, #-2147483620	; 0x8000001c
    9eb8:	53432f30 	movtpl	r2, #16176	; 0x3f30
    9ebc:	45303431 	ldrmi	r3, [r0, #-1073]!	; 0x431
    9ec0:	3173632f 	cmncc	r3, pc, lsr #6
    9ec4:	2d653034 	stclcs	0, cr3, [r5, #-208]!	; 0xffffff30
    9ec8:	69773032 	ldmdbvs	r7!, {r1, r4, r5, ip, sp}^
    9ecc:	696c2f6e 	stmdbvs	ip!, {r1, r2, r3, r5, r6, r8, r9, sl, fp, sp}^
    9ed0:	2f697062 	svccs	0x00697062
    9ed4:	6362696c 	cmnvs	r2, #108, 18	; 0x1b0000
    9ed8:	7269632f 	rsbvc	r6, r9, #-1140850688	; 0xbc000000
    9edc:	616c7563 	cmnvs	ip, r3, ror #10
    9ee0:	00682e72 	rsbeq	r2, r8, r2, ror lr
    9ee4:	6d73694d 	ldclvs	9, cr6, [r3, #-308]!	; 0xfffffecc
    9ee8:	68637461 	stmdavs	r3!, {r0, r5, r6, sl, ip, sp, lr}^
    9eec:	6f67202c 	svcvs	0x0067202c
    9ef0:	64252074 	strtvs	r2, [r5], #-116	; 0x74
    9ef4:	74756220 	ldrbtvc	r6, [r5], #-544	; 0x220
    9ef8:	70786520 	rsbsvc	r6, r8, r0, lsr #10
    9efc:	65746365 	ldrbvs	r6, [r4, #-869]!	; 0x365
    9f00:	64252064 	strtvs	r2, [r5], #-100	; 0x64
    9f04:	0000000a 	andeq	r0, r0, sl
    9f08:	65696c63 	strbvs	r6, [r9, #-3171]!	; 0xc63
    9f0c:	6420746e 	strtvs	r7, [r0], #-1134	; 0x46e
    9f10:	3a656e6f 	bcc	19658d4 <__bss_end__+0x19591bc>
    9f14:	646e6520 	strbtvs	r6, [lr], #-1312	; 0x520
    9f18:	77206465 	strvc	r6, [r0, -r5, ror #8]!
    9f1c:	20687469 	rsbcs	r7, r8, r9, ror #8
    9f20:	000a6425 	andeq	r6, sl, r5, lsr #8
    9f24:	4f525245 	svcmi	0x00525245
    9f28:	73253a52 	teqvc	r5, #335872	; 0x52000
    9f2c:	3a73253a 	bcc	1cd341c <__bss_end__+0x1cc6d04>
    9f30:	203a6425 	eorscs	r6, sl, r5, lsr #8
    9f34:	534c4146 	movtpl	r4, #49478	; 0xc146
    9f38:	733c2845 	teqvc	ip, #4521984	; 0x450000
    9f3c:	32203c20 	eorcc	r3, r0, #32, 24	; 0x2000
    9f40:	203a293e 	eorscs	r2, sl, lr, lsr r9
    9f44:	6c6c6977 	stclvs	9, cr6, [ip], #-476	; 0xfffffe24
    9f48:	65766f20 	ldrbvs	r6, [r6, #-3872]!	; 0xf20
    9f4c:	6f6c6672 	svcvs	0x006c6672
    9f50:	00000a77 	andeq	r0, r0, r7, ror sl
    9f54:	6f6c2d32 	svcvs	0x006c2d32
    9f58:	2d636967 	stclcs	9, cr6, [r3, #-412]!	; 0xfffffe64
    9f5c:	6c616e61 	stclvs	14, cr6, [r1], #-388	; 0xfffffe7c
    9f60:	72657a79 	rsbvc	r7, r5, #495616	; 0x79000
    9f64:	0000632e 	andeq	r6, r0, lr, lsr #6
    9f68:	494e4150 	stmdbmi	lr, {r4, r6, r8, lr}^
    9f6c:	73253a43 	teqvc	r5, #274432	; 0x43000
    9f70:	3a73253a 	bcc	1cd3460 <__bss_end__+0x1cc6d48>
    9f74:	633a6425 	teqvs	sl, #620756992	; 0x25000000
    9f78:	6d655f71 	stclvs	15, cr5, [r5, #-452]!	; 0xfffffe3c
    9f7c:	28797470 	ldmdacs	r9!, {r4, r5, r6, sl, ip, sp, lr}^
    9f80:	000a2963 	andeq	r2, sl, r3, ror #18
    9f84:	494e4150 	stmdbmi	lr, {r4, r6, r8, lr}^
    9f88:	73253a43 	teqvc	r5, #274432	; 0x43000
    9f8c:	3a73253a 	bcc	1cd347c <__bss_end__+0x1cc6d64>
    9f90:	213a6425 	teqcs	sl, r5, lsr #8
    9f94:	665f7163 	ldrbvs	r7, [pc], -r3, ror #2
    9f98:	286c6c75 	stmdacs	ip!, {r0, r2, r4, r5, r6, sl, fp, sp, lr}^
    9f9c:	000a2963 	andeq	r2, sl, r3, ror #18
    9fa0:	494e4150 	stmdbmi	lr, {r4, r6, r8, lr}^
    9fa4:	73253a43 	teqvc	r5, #274432	; 0x43000
    9fa8:	3a73253a 	bcc	1cd3498 <__bss_end__+0x1cc6d80>
    9fac:	633a6425 	teqvs	sl, #620756992	; 0x25000000
    9fb0:	656e5f71 	strbvs	r5, [lr, #-3953]!	; 0xf71
    9fb4:	286d656c 	stmdacs	sp!, {r2, r3, r5, r6, r8, sl, sp, lr}^
    9fb8:	3d202963 	stccc	9, cr2, [r0, #-396]!	; 0xfffffe74
    9fbc:	0a30203d 	beq	c120b8 <__bss_end__+0xc059a0>
    9fc0:	00000000 	andeq	r0, r0, r0
    9fc4:	494e4150 	stmdbmi	lr, {r4, r6, r8, lr}^
    9fc8:	73253a43 	teqvc	r5, #274432	; 0x43000
    9fcc:	3a73253a 	bcc	1cd34bc <__bss_end__+0x1cc6da4>
    9fd0:	633a6425 	teqvs	sl, #620756992	; 0x25000000
    9fd4:	6f705f71 	svcvs	0x00705f71
    9fd8:	6f6e5f70 	svcvs	0x006e5f70
    9fdc:	6f6c626e 	svcvs	0x006c626e
    9fe0:	63286b63 	teqvs	r8, #101376	; 0x18c00
    9fe4:	2965262c 	stmdbcs	r5!, {r2, r3, r5, r9, sl, sp}^
    9fe8:	203d3d20 	eorscs	r3, sp, r0, lsr #26
    9fec:	26262030 			; <UNDEFINED> instruction: 0x26262030
    9ff0:	3d206520 	cfstr32cc	mvfx6, [r0, #-128]!	; 0xffffff80
    9ff4:	7830203d 	ldmdavc	r0!, {r0, r2, r3, r4, r5, sp}
    9ff8:	000a3231 	andeq	r3, sl, r1, lsr r2

00009ffc <__FUNCTION__.4271>:
    9ffc:	74696d65 	strbtvc	r6, [r9], #-3429	; 0xd65
    a000:	00000000 	andeq	r0, r0, r0

0000a004 <__FUNCTION__.4219>:
    a004:	5f697072 	svcpl	0x00697072
    a008:	5f746573 	svcpl	0x00746573
    a00c:	7074756f 	rsbsvc	r7, r4, pc, ror #10
    a010:	00007475 	andeq	r7, r0, r5, ror r4

0000a014 <__FUNCTION__.4293>:
    a014:	705f6176 	subsvc	r6, pc, r6, ror r1	; <UNPREDICTABLE>
    a018:	746e6972 	strbtvc	r6, [lr], #-2418	; 0x972
    a01c:	0000006b 	andeq	r0, r0, fp, rrx
    a020:	494e4150 	stmdbmi	lr, {r4, r6, r8, lr}^
    a024:	73253a43 	teqvc	r5, #274432	; 0x43000
    a028:	3a73253a 	bcc	1cd3518 <__bss_end__+0x1cc6e00>
    a02c:	303a6425 	eorscc	r6, sl, r5, lsr #8
    a030:	0000000a 	andeq	r0, r0, sl
    a034:	6362696c 	cmnvs	r2, #108, 18	; 0x1b0000
    a038:	2d61762f 	stclcs	6, cr7, [r1, #-188]!	; 0xffffff44
    a03c:	6e697270 	mcrvs	2, 3, r7, cr9, cr0, {3}
    a040:	632e6b74 	teqvs	lr, #116, 22	; 0x1d000
    a044:	00000000 	andeq	r0, r0, r0
    a048:	33323130 	teqcc	r2, #48, 2
    a04c:	37363534 			; <UNDEFINED> instruction: 0x37363534
    a050:	00003938 	andeq	r3, r0, r8, lsr r9
    a054:	33323130 	teqcc	r2, #48, 2
    a058:	37363534 			; <UNDEFINED> instruction: 0x37363534
    a05c:	62613938 	rsbvs	r3, r1, #56, 18	; 0xe0000
    a060:	66656463 	strbtvs	r6, [r5], -r3, ror #8
    a064:	00000000 	andeq	r0, r0, r0
    a068:	00003130 	andeq	r3, r0, r0, lsr r1
    a06c:	494e4150 	stmdbmi	lr, {r4, r6, r8, lr}^
    a070:	73253a43 	teqvc	r5, #274432	; 0x43000
    a074:	3a73253a 	bcc	1cd3564 <__bss_end__+0x1cc6e4c>
    a078:	703a6425 	eorsvc	r6, sl, r5, lsr #8
    a07c:	5f637475 	svcpl	0x00637475
    a080:	000a7066 	andeq	r7, sl, r6, rrx
    a084:	494e4150 	stmdbmi	lr, {r4, r6, r8, lr}^
    a088:	73253a43 	teqvc	r5, #274432	; 0x43000
    a08c:	3a73253a 	bcc	1cd357c <__bss_end__+0x1cc6e64>
    a090:	773a6425 	ldrvc	r6, [sl, -r5, lsr #8]!
    a094:	68746469 	ldmdavs	r4!, {r0, r3, r5, r6, sl, sp, lr}^
    a098:	33203c20 	teqcc	r0, #32, 24	; 0x2000
    a09c:	00000a32 	andeq	r0, r0, r2, lsr sl
    a0a0:	494e4150 	stmdbmi	lr, {r4, r6, r8, lr}^
    a0a4:	73253a43 	teqvc	r5, #274432	; 0x43000
    a0a8:	3a73253a 	bcc	1cd3598 <__bss_end__+0x1cc6e80>
    a0ac:	663a6425 	ldrtvs	r6, [sl], -r5, lsr #8
    a0b0:	74616f6c 	strbtvc	r6, [r1], #-3948	; 0xf6c
    a0b4:	746f6e20 	strbtvc	r6, [pc], #-3616	; a0bc <__FUNCTION__.4293+0xa8>
    a0b8:	616e6520 	cmnvs	lr, r0, lsr #10
    a0bc:	64656c62 	strbtvs	r6, [r5], #-3170	; 0xc62
    a0c0:	0a212121 	beq	85254c <__bss_end__+0x845e34>
    a0c4:	00000000 	andeq	r0, r0, r0
    a0c8:	494e4150 	stmdbmi	lr, {r4, r6, r8, lr}^
    a0cc:	73253a43 	teqvc	r5, #274432	; 0x43000
    a0d0:	3a73253a 	bcc	1cd35c0 <__bss_end__+0x1cc6ea8>
    a0d4:	703a6425 	eorsvc	r6, sl, r5, lsr #8
    a0d8:	746e6972 	strbtvc	r6, [lr], #-2418	; 0x972
    a0dc:	6e203a6b 	vnmulvs.f32	s6, s0, s23
    a0e0:	6820746f 	stmdavs	r0!, {r0, r1, r2, r3, r5, r6, sl, ip, sp, lr}
    a0e4:	6c646e61 	stclvs	14, cr6, [r4], #-388	; 0xfffffe7c
    a0e8:	20676e69 	rsbcs	r6, r7, r9, ror #28
    a0ec:	63657073 	cmnvs	r5, #115	; 0x73
    a0f0:	65696669 	strbvs	r6, [r9, #-1641]!	; 0x669
    a0f4:	25272072 	strcs	r2, [r7, #-114]!	; 0x72
    a0f8:	0a0a2763 	beq	293e8c <__bss_end__+0x287774>
    a0fc:	00000000 	andeq	r0, r0, r0
    a100:	454e4f44 	strbmi	r4, [lr, #-3908]	; 0xf44
    a104:	0a212121 	beq	852590 <__bss_end__+0x845e78>
    a108:	00000000 	andeq	r0, r0, r0

0000a10c <__FUNCTION__.4261>:
    a10c:	74736166 	ldrbtvc	r6, [r3], #-358	; 0x166
    a110:	746e695f 	strbtvc	r6, [lr], #-2399	; 0x95f
    a114:	75727265 	ldrbvc	r7, [r2, #-613]!	; 0x265
    a118:	765f7470 			; <UNDEFINED> instruction: 0x765f7470
    a11c:	6f746365 	svcvs	0x00746365
    a120:	00000072 	andeq	r0, r0, r2, ror r0
    a124:	494e4150 	stmdbmi	lr, {r4, r6, r8, lr}^
    a128:	73253a43 	teqvc	r5, #274432	; 0x43000
    a12c:	3a73253a 	bcc	1cd361c <__bss_end__+0x1cc6f04>
    a130:	453a6425 	ldrmi	r6, [sl, #-1061]!	; 0x425
    a134:	524f5252 	subpl	r5, pc, #536870917	; 0x20000005
    a138:	6e75203a 	mrcvs	0, 3, r2, cr5, cr10, {1}
    a13c:	646e6168 	strbtvs	r6, [lr], #-360	; 0x168
    a140:	2064656c 	rsbcs	r6, r4, ip, ror #10
    a144:	65637865 	strbvs	r7, [r3, #-2149]!	; 0x865
    a148:	6f697470 	svcvs	0x00697470
    a14c:	253c206e 	ldrcs	r2, [ip, #-110]!	; 0x6e
    a150:	61203e73 	teqvs	r0, r3, ror lr
    a154:	43502074 	cmpmi	r0, #116	; 0x74
    a158:	0a78253d 	beq	1e13654 <__bss_end__+0x1e06f3c>
    a15c:	0000000a 	andeq	r0, r0, sl
    a160:	34317363 	ldrtcc	r7, [r1], #-867	; 0x363
    a164:	692d6530 	pushvs	{r4, r5, r8, sl, sp, lr}
    a168:	7265746e 	rsbvc	r7, r5, #1845493760	; 0x6e000000
    a16c:	74707572 	ldrbtvc	r7, [r0], #-1394	; 0x572
    a170:	746e692f 	strbtvc	r6, [lr], #-2351	; 0x92f
    a174:	75727265 	ldrbvc	r7, [r2, #-613]!	; 0x265
    a178:	2d737470 	cfldrdcs	mvd7, [r3, #-448]!	; 0xfffffe40
    a17c:	00632e63 	rsbeq	r2, r3, r3, ror #28
    a180:	74736166 	ldrbtvc	r6, [r3], #-358	; 0x166
    a184:	00000000 	andeq	r0, r0, r0

0000a188 <__FUNCTION__.4247>:
    a188:	61746164 	cmnvs	r4, r4, ror #2
    a18c:	6f62615f 	svcvs	0x0062615f
    a190:	765f7472 			; <UNDEFINED> instruction: 0x765f7472
    a194:	6f746365 	svcvs	0x00746365
    a198:	00000072 	andeq	r0, r0, r2, ror r0
    a19c:	34317363 	ldrtcc	r7, [r1], #-867	; 0x363
    a1a0:	692d6530 	pushvs	{r4, r5, r8, sl, sp, lr}
    a1a4:	7265746e 	rsbvc	r7, r5, #1845493760	; 0x6e000000
    a1a8:	74707572 	ldrbtvc	r7, [r0], #-1394	; 0x572
    a1ac:	6665642f 	strbtvs	r6, [r5], -pc, lsr #8
    a1b0:	746c7561 	strbtvc	r7, [ip], #-1377	; 0x561
    a1b4:	6e61682d 	cdpvs	8, 6, cr6, cr1, cr13, {1}
    a1b8:	72656c64 	rsbvc	r6, r5, #100, 24	; 0x6400
    a1bc:	7461642d 	strbtvc	r6, [r1], #-1069	; 0x42d
    a1c0:	62612d61 	rsbvs	r2, r1, #6208	; 0x1840
    a1c4:	2e74726f 	cdpcs	2, 7, cr7, cr4, cr15, {3}
    a1c8:	00000063 	andeq	r0, r0, r3, rrx
    a1cc:	61746164 	cmnvs	r4, r4, ror #2
    a1d0:	6f626120 	svcvs	0x00626120
    a1d4:	00007472 	andeq	r7, r0, r2, ror r4

0000a1d8 <__FUNCTION__.4247>:
    a1d8:	66657270 			; <UNDEFINED> instruction: 0x66657270
    a1dc:	68637465 	stmdavs	r3!, {r0, r2, r5, r6, sl, ip, sp, lr}^
    a1e0:	6f62615f 	svcvs	0x0062615f
    a1e4:	765f7472 			; <UNDEFINED> instruction: 0x765f7472
    a1e8:	6f746365 	svcvs	0x00746365
    a1ec:	00000072 	andeq	r0, r0, r2, ror r0
    a1f0:	34317363 	ldrtcc	r7, [r1], #-867	; 0x363
    a1f4:	692d6530 	pushvs	{r4, r5, r8, sl, sp, lr}
    a1f8:	7265746e 	rsbvc	r7, r5, #1845493760	; 0x6e000000
    a1fc:	74707572 	ldrbtvc	r7, [r0], #-1394	; 0x572
    a200:	6665642f 	strbtvs	r6, [r5], -pc, lsr #8
    a204:	746c7561 	strbtvc	r7, [ip], #-1377	; 0x561
    a208:	6e61682d 	cdpvs	8, 6, cr6, cr1, cr13, {1}
    a20c:	72656c64 	rsbvc	r6, r5, #100, 24	; 0x6400
    a210:	6572702d 	ldrbvs	r7, [r2, #-45]!	; 0x2d
    a214:	63746566 	cmnvs	r4, #427819008	; 0x19800000
    a218:	00632e68 	rsbeq	r2, r3, r8, ror #28
    a21c:	66657270 			; <UNDEFINED> instruction: 0x66657270
    a220:	68637465 	stmdavs	r3!, {r0, r2, r5, r6, sl, ip, sp, lr}^
    a224:	6f626120 	svcvs	0x00626120
    a228:	00007472 	andeq	r7, r0, r2, ror r4

0000a22c <__FUNCTION__.4247>:
    a22c:	65736572 	ldrbvs	r6, [r3, #-1394]!	; 0x572
    a230:	65765f74 	ldrbvs	r5, [r6, #-3956]!	; 0xf74
    a234:	726f7463 	rsbvc	r7, pc, #1660944384	; 0x63000000
    a238:	00000000 	andeq	r0, r0, r0
    a23c:	34317363 	ldrtcc	r7, [r1], #-867	; 0x363
    a240:	692d6530 	pushvs	{r4, r5, r8, sl, sp, lr}
    a244:	7265746e 	rsbvc	r7, r5, #1845493760	; 0x6e000000
    a248:	74707572 	ldrbtvc	r7, [r0], #-1394	; 0x572
    a24c:	6665642f 	strbtvs	r6, [r5], -pc, lsr #8
    a250:	746c7561 	strbtvc	r7, [ip], #-1377	; 0x561
    a254:	6e61682d 	cdpvs	8, 6, cr6, cr1, cr13, {1}
    a258:	72656c64 	rsbvc	r6, r5, #100, 24	; 0x6400
    a25c:	7365722d 	cmnvc	r5, #-805306366	; 0xd0000002
    a260:	632e7465 	teqvs	lr, #1694498816	; 0x65000000
    a264:	00000000 	andeq	r0, r0, r0
    a268:	65736572 	ldrbvs	r6, [r3, #-1394]!	; 0x572
    a26c:	00000074 	andeq	r0, r0, r4, ror r0

0000a270 <__FUNCTION__.4247>:
    a270:	65646e75 	strbvs	r6, [r4, #-3701]!	; 0xe75
    a274:	656e6966 	strbvs	r6, [lr, #-2406]!	; 0x966
    a278:	6e695f64 	cdpvs	15, 6, cr5, cr9, cr4, {3}
    a27c:	75727473 	ldrbvc	r7, [r2, #-1139]!	; 0x473
    a280:	6f697463 	svcvs	0x00697463
    a284:	65765f6e 	ldrbvs	r5, [r6, #-3950]!	; 0xf6e
    a288:	726f7463 	rsbvc	r7, pc, #1660944384	; 0x63000000
    a28c:	00000000 	andeq	r0, r0, r0
    a290:	34317363 	ldrtcc	r7, [r1], #-867	; 0x363
    a294:	692d6530 	pushvs	{r4, r5, r8, sl, sp, lr}
    a298:	7265746e 	rsbvc	r7, r5, #1845493760	; 0x6e000000
    a29c:	74707572 	ldrbtvc	r7, [r0], #-1394	; 0x572
    a2a0:	6665642f 	strbtvs	r6, [r5], -pc, lsr #8
    a2a4:	746c7561 	strbtvc	r7, [ip], #-1377	; 0x561
    a2a8:	6e61682d 	cdpvs	8, 6, cr6, cr1, cr13, {1}
    a2ac:	72656c64 	rsbvc	r6, r5, #100, 24	; 0x6400
    a2b0:	646e752d 	strbtvs	r7, [lr], #-1325	; 0x52d
    a2b4:	6e696665 	cdpvs	6, 6, cr6, cr9, cr5, {3}
    a2b8:	692d6465 	pushvs	{r0, r2, r5, r6, sl, sp, lr}
    a2bc:	2e74736e 	cdpcs	3, 7, cr7, cr4, cr14, {3}
    a2c0:	00000063 	andeq	r0, r0, r3, rrx
    a2c4:	65646e75 	strbvs	r6, [r4, #-3701]!	; 0xe75
    a2c8:	656e6966 	strbvs	r6, [lr, #-2406]!	; 0x966
    a2cc:	6e692064 	cdpvs	0, 6, cr2, cr9, cr4, {3}
    a2d0:	00007473 	andeq	r7, r0, r3, ror r4

Disassembly of section .bss:

0000a2d4 <__bss_start__>:
    a2d4:	00000000 	andeq	r0, r0, r0

0000a2d8 <u>:
	...

0000a2e8 <putQ>:
	...

0000c2fc <temp>:
    c2fc:	00000000 	andeq	r0, r0, r0

0000c300 <cycle_counter>:
    c300:	00000000 	andeq	r0, r0, r0

0000c304 <nevents>:
    c304:	00000000 	andeq	r0, r0, r0

0000c308 <n_falling_edge>:
    c308:	00000000 	andeq	r0, r0, r0

0000c30c <n_rising_edge>:
    c30c:	00000000 	andeq	r0, r0, r0

0000c310 <buf.4219>:
	...

0000c710 <rpi_arm_timer_t>:
	...

Disassembly of section .ARM.attributes:

00000000 <.ARM.attributes>:
   0:	00002a41 	andeq	r2, r0, r1, asr #20
   4:	61656100 	cmnvs	r5, r0, lsl #2
   8:	01006962 	tsteq	r0, r2, ror #18
   c:	00000020 	andeq	r0, r0, r0, lsr #32
  10:	4b5a3605 	blmi	168d82c <__bss_end__+0x1681114>
  14:	08070600 	stmdaeq	r7, {r9, sl}
  18:	12010901 	andne	r0, r1, #16384	; 0x4000
  1c:	15011404 	strne	r1, [r1, #-1028]	; 0x404
  20:	18031701 	stmdane	r3, {r0, r8, r9, sl, ip}
  24:	22011a01 	andcs	r1, r1, #4096	; 0x1000
  28:	Address 0x0000000000000028 is out of bounds.


Disassembly of section .comment:

00000000 <.comment>:
   0:	3a434347 	bcc	10d0d24 <__bss_end__+0x10c460c>
   4:	4e472820 	cdpmi	8, 4, cr2, cr7, cr0, {1}
   8:	34202955 	strtcc	r2, [r0], #-2389	; 0x955
   c:	332e382e 	teqcc	lr, #3014656	; 0x2e0000
	...

Disassembly of section .debug_info:

00000000 <.debug_info>:
       0:	000017dd 	ldrdeq	r1, [r0], -sp
       4:	00000004 	andeq	r0, r0, r4
       8:	01040000 	mrseq	r0, (UNDEF: 4)
       c:	00000345 	andeq	r0, r0, r5, asr #6
      10:	0003d601 	andeq	sp, r3, r1, lsl #12
      14:	0001d100 	andeq	sp, r1, r0, lsl #2
      18:	00801000 	addeq	r1, r0, r0
      1c:	000c1800 	andeq	r1, ip, r0, lsl #16
      20:	00000000 	andeq	r0, r0, r0
      24:	05040200 	streq	r0, [r4, #-512]	; 0x200
      28:	00746e69 	rsbseq	r6, r4, r9, ror #28
      2c:	00000003 	andeq	r0, r0, r3
      30:	37d40300 	ldrbcc	r0, [r4, r0, lsl #6]
      34:	04000000 	streq	r0, [r0], #-0
      38:	006f0704 	rsbeq	r0, pc, r4, lsl #14
      3c:	01040000 	mrseq	r0, (UNDEF: 4)
      40:	0002db06 	andeq	sp, r2, r6, lsl #22
      44:	05020400 	streq	r0, [r2, #-1024]	; 0x400
      48:	000002ee 	andeq	r0, r0, lr, ror #5
      4c:	a1050404 	tstge	r5, r4, lsl #8
      50:	04000000 	streq	r0, [r0], #-0
      54:	009c0508 	addseq	r0, ip, r8, lsl #10
      58:	5a030000 	bpl	c0060 <__bss_end__+0xb3948>
      5c:	04000004 	streq	r0, [r0], #-4
      60:	0000652e 	andeq	r6, r0, lr, lsr #10
      64:	08010400 	stmdaeq	r1, {sl}
      68:	000002d9 	ldrdeq	r0, [r0], -r9
      6c:	b9070204 	stmdblt	r7, {r2, r9}
      70:	04000001 	streq	r0, [r0], #-1
      74:	006a0704 	rsbeq	r0, sl, r4, lsl #14
      78:	08040000 	stmdaeq	r4, {}	; <UNPREDICTABLE>
      7c:	00006507 	andeq	r6, r0, r7, lsl #10
      80:	07040400 	streq	r0, [r4, -r0, lsl #8]
      84:	00000255 	andeq	r0, r0, r5, asr r2
      88:	01040405 	tsteq	r4, r5, lsl #8
      8c:	0002e208 	andeq	lr, r2, r8, lsl #4
      90:	97040600 	strls	r0, [r4, -r0, lsl #12]
      94:	07000000 	streq	r0, [r0, -r0]
      98:	0000008a 	andeq	r0, r0, sl, lsl #1
      9c:	00008a08 	andeq	r8, r0, r8, lsl #20
      a0:	0000ac00 	andeq	sl, r0, r0, lsl #24
      a4:	00810900 	addeq	r0, r1, r0, lsl #18
      a8:	00070000 	andeq	r0, r7, r0
      ac:	3305040a 	movwcc	r0, #21514	; 0x540a
      b0:	00000119 	andeq	r0, r0, r9, lsl r1
      b4:	0000e70b 	andeq	lr, r0, fp, lsl #14
      b8:	82e88000 	rschi	r8, r8, #0
      bc:	d80b0280 	stmdale	fp, {r7, r9}
      c0:	80000000 	andhi	r0, r0, r0
      c4:	028082e8 	addeq	r8, r0, #232, 4	; 0x8000000e
      c8:	0003fe0b 	andeq	pc, r3, fp, lsl #28
      cc:	82e88400 	rschi	r8, r8, #0, 8
      d0:	bf0b0280 	svclt	0x000b0280
      d4:	88000000 	stmdahi	r0, {}	; <UNPREDICTABLE>
      d8:	028082e8 	addeq	r8, r0, #232, 4	; 0x8000000e
      dc:	00040e0b 	andeq	r0, r4, fp, lsl #28
      e0:	82e88c00 	rschi	r8, r8, #0, 24
      e4:	3f0b0280 	svccc	0x000b0280
      e8:	90000000 	andls	r0, r0, r0
      ec:	028082e8 	addeq	r8, r0, #232, 4	; 0x8000000e
      f0:	00012f0b 	andeq	r2, r1, fp, lsl #30
      f4:	82e89400 	rschi	r9, r8, #0, 8
      f8:	6e0b0280 	cdpvs	2, 0, cr0, cr11, cr0, {4}
      fc:	98000002 	stmdals	r0, {r1}
     100:	028082e8 	addeq	r8, r0, #232, 4	; 0x8000000e
     104:	0003e90b 	andeq	lr, r3, fp, lsl #18
     108:	82e89c00 	rschi	r9, r8, #0, 24
     10c:	a80b0280 	stmdage	fp, {r7, r9}
     110:	a0000004 	andge	r0, r0, r4
     114:	028082e8 	addeq	r8, r0, #232, 4	; 0x8000000e
     118:	02ff0300 	rscseq	r0, pc, #0, 6
     11c:	1c020000 	stcne	0, cr0, [r2], {-0}
     120:	00000065 	andeq	r0, r0, r5, rrx
     124:	0220140c 	eoreq	r1, r0, #12, 8	; 0xc000000
     128:	00017e28 	andeq	r7, r1, r8, lsr #28
     12c:	007c0d00 	rsbseq	r0, ip, r0, lsl #26
     130:	2a020000 	bcs	80138 <__bss_end__+0x73a20>
     134:	0000018f 	andeq	r0, r0, pc, lsl #3
     138:	039c0e00 	orrseq	r0, ip, #0, 28
     13c:	2b020000 	blcs	80144 <__bss_end__+0x73a2c>
     140:	00000037 	andeq	r0, r0, r7, lsr r0
     144:	050e2000 	streq	r2, [lr, #-0]
     148:	02000003 	andeq	r0, r0, #3
     14c:	0001942c 	andeq	r9, r1, ip, lsr #8
     150:	0e200400 	cdpeq	4, 2, cr0, cr0, cr0, {0}
     154:	00000250 	andeq	r0, r0, r0, asr r2
     158:	01942c02 	orrseq	r2, r4, r2, lsl #24
     15c:	20080000 	andcs	r0, r8, r0
     160:	0003c00e 	andeq	ip, r3, lr
     164:	942f0200 	strtls	r0, [pc], #-512	; 16c <_start-0x7e94>
     168:	0c000001 	stceq	0, cr0, [r0], {1}
     16c:	00190f20 	andseq	r0, r9, r0, lsr #30
     170:	31020000 	mrscc	r0, (UNDEF: 2)
     174:	00000037 	andeq	r0, r0, r7, lsr r0
     178:	101f0104 	andsne	r0, pc, r4, lsl #2
     17c:	19080020 	stmdbne	r8, {r5}
     180:	8f000001 	svchi	0x00000001
     184:	10000001 	andne	r0, r0, r1
     188:	00000081 	andeq	r0, r0, r1, lsl #1
     18c:	11001fff 	strdne	r1, [r0, -pc]
     190:	0000017e 	andeq	r0, r0, lr, ror r1
     194:	00003711 	andeq	r3, r0, r1, lsl r7
     198:	04380300 	ldrteq	r0, [r8], #-768	; 0x300
     19c:	32020000 	andcc	r0, r2, #0
     1a0:	00000124 	andeq	r0, r0, r4, lsr #2
     1a4:	29011012 	stmdbcs	r1, {r1, r4, ip}
     1a8:	000001db 	ldrdeq	r0, [r0], -fp
     1ac:	00787413 	rsbseq	r7, r8, r3, lsl r4
     1b0:	00252a01 	eoreq	r2, r5, r1, lsl #20
     1b4:	13000000 	movwne	r0, #0
     1b8:	01007872 	tsteq	r0, r2, ror r8
     1bc:	0000252a 	andeq	r2, r0, sl, lsr #10
     1c0:	220d0400 	andcs	r0, sp, #0, 8
     1c4:	01000003 	tsteq	r0, r3
     1c8:	0000372b 	andeq	r3, r0, fp, lsr #14
     1cc:	780d0800 	stmdavc	sp, {fp}
     1d0:	01000004 	tsteq	r0, r4
     1d4:	0000372c 	andeq	r3, r0, ip, lsr #14
     1d8:	03000c00 	movweq	r0, #3072	; 0xc00
     1dc:	000002cc 	andeq	r0, r0, ip, asr #5
     1e0:	01a42d01 			; <UNDEFINED> instruction: 0x01a42d01
     1e4:	93140000 	tstls	r4, #0
     1e8:	02000000 	andeq	r0, r0, #0
     1ec:	00002539 	andeq	r2, r0, r9, lsr r5
     1f0:	02000300 	andeq	r0, r0, #0, 6
     1f4:	71150000 	tstvc	r5, r0
     1f8:	00390200 	eorseq	r0, r9, r0, lsl #4
     1fc:	00000002 	andeq	r0, r0, r2
     200:	01990406 	orrseq	r0, r9, r6, lsl #8
     204:	a0140000 	andsge	r0, r4, r0
     208:	02000004 	andeq	r0, r0, #4
     20c:	0000253c 	andeq	r2, r0, ip, lsr r5
     210:	02200300 	eoreq	r0, r0, #0, 6
     214:	71150000 	tstvc	r5, r0
     218:	003c0200 	eorseq	r0, ip, r0, lsl #4
     21c:	00000002 	andeq	r0, r0, r2
     220:	00008216 	andeq	r8, r0, r6, lsl r2
     224:	03360100 	teqeq	r6, #0, 2
     228:	00000238 	andeq	r0, r0, r8, lsr r2
     22c:	6e697015 	mcrvs	0, 3, r7, cr9, cr5, {0}
     230:	37360100 	ldrcc	r0, [r6, -r0, lsl #2]!
     234:	00000000 	andeq	r0, r0, r0
     238:	00011816 	andeq	r1, r1, r6, lsl r8
     23c:	033b0100 	teqeq	fp, #0, 2
     240:	00000250 	andeq	r0, r0, r0, asr r2
     244:	6e697015 	mcrvs	0, 3, r7, cr9, cr5, {0}
     248:	373b0100 	ldrcc	r0, [fp, -r0, lsl #2]!
     24c:	00000000 	andeq	r0, r0, r0
     250:	00002f16 	andeq	r2, r0, r6, lsl pc
     254:	03400100 	movteq	r0, #256	; 0x100
     258:	00000271 	andeq	r0, r0, r1, ror r2
     25c:	6e697015 	mcrvs	0, 3, r7, cr9, cr5, {0}
     260:	37400100 	strbcc	r0, [r0, -r0, lsl #2]
     264:	15000000 	strne	r0, [r0, #-0]
     268:	40010076 	andmi	r0, r1, r6, ror r0
     26c:	00000037 	andeq	r0, r0, r7, lsr r0
     270:	025e1400 	subseq	r1, lr, #0, 8
     274:	42020000 	andmi	r0, r2, #0
     278:	00000025 	andeq	r0, r0, r5, lsr #32
     27c:	00029f03 	andeq	r9, r2, r3, lsl #30
     280:	00631500 	rsbeq	r1, r3, r0, lsl #10
     284:	02004202 	andeq	r4, r0, #536870912	; 0x20000000
     288:	65150000 	ldrvs	r0, [r5, #-0]
     28c:	9f420200 	svcls	0x00420200
     290:	17000002 	strne	r0, [r0, -r2]
     294:	00000250 	andeq	r0, r0, r0, asr r2
     298:	00374502 	eorseq	r4, r7, r2, lsl #10
     29c:	06000000 	streq	r0, [r0], -r0
     2a0:	00011904 	andeq	r1, r1, r4, lsl #18
     2a4:	01b01400 	lslseq	r1, r0, #8
     2a8:	3e020000 	cdpcc	0, 0, cr0, cr2, cr0, {0}
     2ac:	00000037 	andeq	r0, r0, r7, lsr r0
     2b0:	0002bf03 	andeq	fp, r2, r3, lsl #30
     2b4:	00711500 	rsbseq	r1, r1, r0, lsl #10
     2b8:	02003e02 	andeq	r3, r0, #2, 28
     2bc:	14000000 	strne	r0, [r0], #-0
     2c0:	000003ce 	andeq	r0, r0, lr, asr #7
     2c4:	00255602 	eoreq	r5, r5, r2, lsl #12
     2c8:	ed030000 	stc	0, cr0, [r3, #-0]
     2cc:	15000002 	strne	r0, [r0, #-2]
     2d0:	56020063 	strpl	r0, [r2], -r3, rrx
     2d4:	00000200 	andeq	r0, r0, r0, lsl #4
     2d8:	02007815 	andeq	r7, r0, #1376256	; 0x150000
     2dc:	00011956 	andeq	r1, r1, r6, asr r9
     2e0:	03051700 	movweq	r1, #22272	; 0x5700
     2e4:	57020000 	strpl	r0, [r2, -r0]
     2e8:	00000037 	andeq	r0, r0, r7, lsr r0
     2ec:	01431600 	cmpeq	r3, r0, lsl #12
     2f0:	81010000 	mrshi	r0, (UNDEF: 1)
     2f4:	0003db03 	andeq	sp, r3, r3, lsl #22
     2f8:	02c71800 	sbceq	r1, r7, #0, 16
     2fc:	81010000 	mrshi	r0, (UNDEF: 1)
     300:	000003db 	ldrdeq	r0, [r0], -fp
     304:	00093c18 	andeq	r3, r9, r8, lsl ip
     308:	5a810100 	bpl	fe040710 <__bss_end__+0xfe033ff8>
     30c:	19000000 	stmdbne	r0, {}	; <UNPREDICTABLE>
     310:	82010069 	andhi	r0, r1, #105	; 0x69
     314:	00000037 	andeq	r0, r0, r7, lsr r0
     318:	00068c17 	andeq	r8, r6, r7, lsl ip
     31c:	37830100 	strcc	r0, [r3, r0, lsl #2]
     320:	1a000000 	bne	328 <_start-0x7cd8>
     324:	00000334 	andeq	r0, r0, r4, lsr r3
     328:	00029e17 	andeq	r9, r2, r7, lsl lr
     32c:	37830100 	strcc	r0, [r3, r0, lsl #2]
     330:	00000000 	andeq	r0, r0, r0
     334:	0003451a 	andeq	r4, r3, sl, lsl r5
     338:	029e1700 	addseq	r1, lr, #0, 14
     33c:	8a010000 	bhi	40344 <__bss_end__+0x33c2c>
     340:	00000037 	andeq	r0, r0, r7, lsr r0
     344:	03561a00 	cmpeq	r6, #0, 20
     348:	9e170000 	cdpls	0, 1, cr0, cr7, cr0, {0}
     34c:	01000002 	tsteq	r0, r2
     350:	0000378c 	andeq	r3, r0, ip, lsl #15
     354:	671a0000 	ldrvs	r0, [sl, -r0]
     358:	17000003 	strne	r0, [r0, -r3]
     35c:	0000029e 	muleq	r0, lr, r2
     360:	00378e01 	eorseq	r8, r7, r1, lsl #28
     364:	1a000000 	bne	36c <_start-0x7c94>
     368:	00000378 	andeq	r0, r0, r8, ror r3
     36c:	00029e17 	andeq	r9, r2, r7, lsl lr
     370:	37900100 	ldrcc	r0, [r0, r0, lsl #2]
     374:	00000000 	andeq	r0, r0, r0
     378:	0003891a 	andeq	r8, r3, sl, lsl r9
     37c:	029e1700 	addseq	r1, lr, #0, 14
     380:	92010000 	andls	r0, r1, #0
     384:	00000037 	andeq	r0, r0, r7, lsr r0
     388:	039a1a00 	orrseq	r1, sl, #0, 20
     38c:	9e170000 	cdpls	0, 1, cr0, cr7, cr0, {0}
     390:	01000002 	tsteq	r0, r2
     394:	00003794 	muleq	r0, r4, r7
     398:	ab1a0000 	blge	6803a0 <__bss_end__+0x673c88>
     39c:	17000003 	strne	r0, [r0, -r3]
     3a0:	0000029e 	muleq	r0, lr, r2
     3a4:	00379601 	eorseq	r9, r7, r1, lsl #12
     3a8:	1a000000 	bne	3b0 <_start-0x7c50>
     3ac:	000003bc 			; <UNDEFINED> instruction: 0x000003bc
     3b0:	00029e17 	andeq	r9, r2, r7, lsl lr
     3b4:	37980100 	ldrcc	r0, [r8, r0, lsl #2]
     3b8:	00000000 	andeq	r0, r0, r0
     3bc:	0003cd1a 	andeq	ip, r3, sl, lsl sp
     3c0:	029e1700 	addseq	r1, lr, #0, 14
     3c4:	9a010000 	bls	403cc <__bss_end__+0x33cb4>
     3c8:	00000037 	andeq	r0, r0, r7, lsr r0
     3cc:	9e171b00 	vnmlsls.f64	d1, d7, d0
     3d0:	01000002 	tsteq	r0, r2
     3d4:	0000379c 	muleq	r0, ip, r7
     3d8:	06000000 	streq	r0, [r0], -r0
     3dc:	0001db04 	andeq	sp, r1, r4, lsl #22
     3e0:	02f81400 	rscseq	r1, r8, #0, 8
     3e4:	4b020000 	blmi	803ec <__bss_end__+0x73cd4>
     3e8:	00000119 	andeq	r0, r0, r9, lsl r1
     3ec:	00041103 	andeq	r1, r4, r3, lsl #2
     3f0:	00631500 	rsbeq	r1, r3, r0, lsl #10
     3f4:	02004b02 	andeq	r4, r0, #2048	; 0x800
     3f8:	65190000 	ldrvs	r0, [r9, #-0]
     3fc:	194c0200 	stmdbne	ip, {r9}^
     400:	1c000001 	stcne	0, cr0, [r0], {1}
     404:	000001a3 	andeq	r0, r0, r3, lsr #3
     408:	00000421 	andeq	r0, r0, r1, lsr #8
     40c:	000002f8 	strdeq	r0, [r0], -r8
     410:	008a0800 	addeq	r0, sl, r0, lsl #16
     414:	04210000 	strteq	r0, [r1], #-0
     418:	81090000 	mrshi	r0, (UNDEF: 9)
     41c:	06000000 	streq	r0, [r0], -r0
     420:	04110700 	ldreq	r0, [r1], #-1792	; 0x700
     424:	2a1d0000 	bcs	74042c <__bss_end__+0x733d14>
     428:	01000002 	tsteq	r0, r2
     42c:	008010a2 	addeq	r1, r0, r2, lsr #1
     430:	00076400 	andeq	r6, r7, r0, lsl #8
     434:	849c0100 	ldrhi	r0, [ip], #256	; 0x100
     438:	1e00000e 	cdpne	0, 0, cr0, cr0, cr14, {0}
     43c:	01007874 	tsteq	r0, r4, ror r8
     440:	000037a2 	andeq	r3, r0, r2, lsr #15
     444:	00000000 	andeq	r0, r0, r0
     448:	78721e00 	ldmdavc	r2!, {r9, sl, fp, ip}^
     44c:	37a20100 	strcc	r0, [r2, r0, lsl #2]!
     450:	21000000 	mrscs	r0, (UNDEF: 0)
     454:	1e000000 	cdpne	0, 0, cr0, cr0, cr0, {0}
     458:	a201006e 	andge	r0, r1, #110	; 0x6e
     45c:	00000037 	andeq	r0, r0, r7, lsr r0
     460:	00000042 	andeq	r0, r0, r2, asr #32
     464:	0002201f 	andeq	r2, r2, pc, lsl r0
     468:	00801800 	addeq	r1, r0, r0, lsl #16
     46c:	00001400 	andeq	r1, r0, r0, lsl #8
     470:	81a30100 			; <UNDEFINED> instruction: 0x81a30100
     474:	20000004 	andcs	r0, r0, r4
     478:	0000022c 	andeq	r0, r0, ip, lsr #4
     47c:	00000060 	andeq	r0, r0, r0, rrx
     480:	02ed1f00 	rsceq	r1, sp, #0, 30
     484:	805c0000 	subshi	r0, ip, r0
     488:	03480000 	movteq	r0, #32768	; 0x8000
     48c:	a8010000 	stmdage	r1, {}	; <UNPREDICTABLE>
     490:	000008d6 	ldrdeq	r0, [r0], -r6
     494:	00030420 	andeq	r0, r3, r0, lsr #8
     498:	00008100 	andeq	r8, r0, r0, lsl #2
     49c:	02f92100 	rscseq	r2, r9, #0, 2
     4a0:	03060000 	movweq	r0, #24576	; 0x6000
     4a4:	0000a2d8 	ldrdeq	sl, [r0], -r8
     4a8:	805c229f 			; <UNDEFINED> instruction: 0x805c229f
     4ac:	03480000 	movteq	r0, #32768	; 0x8000
     4b0:	0f230000 	svceq	0x00230000
     4b4:	01000003 	tsteq	r0, r3
     4b8:	00031824 	andeq	r1, r3, r4, lsr #16
     4bc:	00009f00 	andeq	r9, r0, r0, lsl #30
     4c0:	805c2500 	subshi	r2, ip, r0, lsl #10
     4c4:	00040000 	andeq	r0, r4, r0
     4c8:	04d80000 	ldrbeq	r0, [r8], #0
     4cc:	28240000 	stmdacs	r4!, {}	; <UNPREDICTABLE>
     4d0:	9f000003 	svcls	0x00000003
     4d4:	00000000 	andeq	r0, r0, r0
     4d8:	0002381f 	andeq	r3, r2, pc, lsl r8
     4dc:	00808400 	addeq	r8, r0, r0, lsl #8
     4e0:	00001000 	andeq	r1, r0, r0
     4e4:	f5890100 			; <UNDEFINED> instruction: 0xf5890100
     4e8:	20000004 	andcs	r0, r0, r4
     4ec:	00000244 	andeq	r0, r0, r4, asr #4
     4f0:	000000bd 	strheq	r0, [r0], -sp
     4f4:	80982500 	addshi	r2, r8, r0, lsl #10
     4f8:	00040000 	andeq	r0, r4, r0
     4fc:	050c0000 	streq	r0, [ip, #-0]
     500:	39240000 	stmdbcc	r4!, {}	; <UNPREDICTABLE>
     504:	df000003 	svcle	0x00000003
     508:	00000000 	andeq	r0, r0, r0
     50c:	0002501f 	andeq	r5, r2, pc, lsl r0
     510:	0080b400 	addeq	fp, r0, r0, lsl #8
     514:	00003400 	andeq	r3, r0, r0, lsl #8
     518:	688b0100 	stmvs	fp, {r8}
     51c:	20000005 	andcs	r0, r0, r5
     520:	00000267 	andeq	r0, r0, r7, ror #4
     524:	000000f2 	strdeq	r0, [r0], -r2
     528:	00025c20 	andeq	r5, r2, r0, lsr #24
     52c:	00011e00 	andeq	r1, r1, r0, lsl #28
     530:	02201f00 	eoreq	r1, r0, #0, 30
     534:	80bc0000 	adcshi	r0, ip, r0
     538:	00180000 	andseq	r0, r8, r0
     53c:	43010000 	movwmi	r0, #4096	; 0x1000
     540:	0000054e 	andeq	r0, r0, lr, asr #10
     544:	00022c20 	andeq	r2, r2, r0, lsr #24
     548:	00018e00 	andeq	r8, r1, r0, lsl #28
     54c:	38260000 	stmdacc	r6!, {}	; <UNPREDICTABLE>
     550:	d4000002 	strle	r0, [r0], #-2
     554:	14000080 	strne	r0, [r0], #-128	; 0x80
     558:	01000000 	mrseq	r0, (UNDEF: 0)
     55c:	02442045 	subeq	r2, r4, #69	; 0x45
     560:	01b00000 	movseq	r0, r0
     564:	00000000 	andeq	r0, r0, r0
     568:	0080ec25 	addeq	lr, r0, r5, lsr #24
     56c:	00000400 	andeq	r0, r0, r0, lsl #8
     570:	00057f00 	andeq	r7, r5, r0, lsl #30
     574:	034a2400 	movteq	r2, #41984	; 0xa400
     578:	01d20000 	bicseq	r0, r2, r0
     57c:	1f000000 	svcne	0x00000000
     580:	00000250 	andeq	r0, r0, r0, asr r2
     584:	00008108 	andeq	r8, r0, r8, lsl #2
     588:	00000034 	andeq	r0, r0, r4, lsr r0
     58c:	05db8d01 	ldrbeq	r8, [fp, #3329]	; 0xd01
     590:	67200000 	strvs	r0, [r0, -r0]!
     594:	e5000002 	str	r0, [r0, #-2]
     598:	20000001 	andcs	r0, r0, r1
     59c:	0000025c 	andeq	r0, r0, ip, asr r2
     5a0:	00000211 	andeq	r0, r0, r1, lsl r2
     5a4:	0002201f 	andeq	r2, r2, pc, lsl r0
     5a8:	00811000 	addeq	r1, r1, r0
     5ac:	00001800 	andeq	r1, r0, r0, lsl #16
     5b0:	c1430100 	mrsgt	r0, (UNDEF: 83)
     5b4:	20000005 	andcs	r0, r0, r5
     5b8:	0000022c 	andeq	r0, r0, ip, lsr #4
     5bc:	00000281 	andeq	r0, r0, r1, lsl #5
     5c0:	02382600 	eorseq	r2, r8, #0, 12
     5c4:	81280000 	teqhi	r8, r0
     5c8:	00140000 	andseq	r0, r4, r0
     5cc:	45010000 	strmi	r0, [r1, #-0]
     5d0:	00024420 	andeq	r4, r2, r0, lsr #8
     5d4:	0002a300 	andeq	sl, r2, r0, lsl #6
     5d8:	25000000 	strcs	r0, [r0, #-0]
     5dc:	00008140 	andeq	r8, r0, r0, asr #2
     5e0:	00000004 	andeq	r0, r0, r4
     5e4:	000005f2 	strdeq	r0, [r0], -r2
     5e8:	00035b24 	andeq	r5, r3, r4, lsr #22
     5ec:	0002c500 	andeq	ip, r2, r0, lsl #10
     5f0:	501f0000 	andspl	r0, pc, r0
     5f4:	60000002 	andvs	r0, r0, r2
     5f8:	34000081 	strcc	r0, [r0], #-129	; 0x81
     5fc:	01000000 	mrseq	r0, (UNDEF: 0)
     600:	00064e8f 	andeq	r4, r6, pc, lsl #29
     604:	02672000 	rsbeq	r2, r7, #0
     608:	02d80000 	sbcseq	r0, r8, #0
     60c:	5c200000 	stcpl	0, cr0, [r0], #-0
     610:	04000002 	streq	r0, [r0], #-2
     614:	1f000003 	svcne	0x00000003
     618:	00000220 	andeq	r0, r0, r0, lsr #4
     61c:	00008168 	andeq	r8, r0, r8, ror #2
     620:	00000018 	andeq	r0, r0, r8, lsl r0
     624:	06344301 	ldrteq	r4, [r4], -r1, lsl #6
     628:	2c200000 	stccs	0, cr0, [r0], #-0
     62c:	74000002 	strvc	r0, [r0], #-2
     630:	00000003 	andeq	r0, r0, r3
     634:	00023826 	andeq	r3, r2, r6, lsr #16
     638:	00818000 	addeq	r8, r1, r0
     63c:	00001400 	andeq	r1, r0, r0, lsl #8
     640:	20450100 	subcs	r0, r5, r0, lsl #2
     644:	00000244 	andeq	r0, r0, r4, asr #4
     648:	00000396 	muleq	r0, r6, r3
     64c:	98250000 	stmdals	r5!, {}	; <UNPREDICTABLE>
     650:	04000081 	streq	r0, [r0], #-129	; 0x81
     654:	65000000 	strvs	r0, [r0, #-0]
     658:	24000006 	strcs	r0, [r0], #-6
     65c:	0000036c 	andeq	r0, r0, ip, ror #6
     660:	000003b8 			; <UNDEFINED> instruction: 0x000003b8
     664:	02501f00 	subseq	r1, r0, #0, 30
     668:	81b40000 			; <UNDEFINED> instruction: 0x81b40000
     66c:	00340000 	eorseq	r0, r4, r0
     670:	91010000 	mrsls	r0, (UNDEF: 1)
     674:	000006c1 	andeq	r0, r0, r1, asr #13
     678:	00026720 	andeq	r6, r2, r0, lsr #14
     67c:	0003cb00 	andeq	ip, r3, r0, lsl #22
     680:	025c2000 	subseq	r2, ip, #0
     684:	03f70000 	mvnseq	r0, #0
     688:	201f0000 	andscs	r0, pc, r0
     68c:	bc000002 	stclt	0, cr0, [r0], {2}
     690:	18000081 	stmdane	r0, {r0, r7}
     694:	01000000 	mrseq	r0, (UNDEF: 0)
     698:	0006a743 	andeq	sl, r6, r3, asr #14
     69c:	022c2000 	eoreq	r2, ip, #0
     6a0:	04670000 	strbteq	r0, [r7], #-0
     6a4:	26000000 	strcs	r0, [r0], -r0
     6a8:	00000238 	andeq	r0, r0, r8, lsr r2
     6ac:	000081d4 	ldrdeq	r8, [r0], -r4
     6b0:	00000014 	andeq	r0, r0, r4, lsl r0
     6b4:	44204501 	strtmi	r4, [r0], #-1281	; 0x501
     6b8:	89000002 	stmdbhi	r0, {r1}
     6bc:	00000004 	andeq	r0, r0, r4
     6c0:	81ec2500 	mvnhi	r2, r0, lsl #10
     6c4:	00040000 	andeq	r0, r4, r0
     6c8:	06d80000 	ldrbeq	r0, [r8], r0
     6cc:	7d240000 	stcvc	0, cr0, [r4, #-0]
     6d0:	ab000003 	blge	6e4 <_start-0x791c>
     6d4:	00000004 	andeq	r0, r0, r4
     6d8:	0002501f 	andeq	r5, r2, pc, lsl r0
     6dc:	00820c00 	addeq	r0, r2, r0, lsl #24
     6e0:	00003400 	andeq	r3, r0, r0, lsl #8
     6e4:	34930100 	ldrcc	r0, [r3], #256	; 0x100
     6e8:	20000007 	andcs	r0, r0, r7
     6ec:	00000267 	andeq	r0, r0, r7, ror #4
     6f0:	000004be 			; <UNDEFINED> instruction: 0x000004be
     6f4:	00025c20 	andeq	r5, r2, r0, lsr #24
     6f8:	0004ea00 	andeq	lr, r4, r0, lsl #20
     6fc:	02201f00 	eoreq	r1, r0, #0, 30
     700:	82140000 	andshi	r0, r4, #0
     704:	00180000 	andseq	r0, r8, r0
     708:	43010000 	movwmi	r0, #4096	; 0x1000
     70c:	0000071a 	andeq	r0, r0, sl, lsl r7
     710:	00022c20 	andeq	r2, r2, r0, lsr #24
     714:	00055a00 	andeq	r5, r5, r0, lsl #20
     718:	38260000 	stmdacc	r6!, {}	; <UNPREDICTABLE>
     71c:	2c000002 	stccs	0, cr0, [r0], {2}
     720:	14000082 	strne	r0, [r0], #-130	; 0x82
     724:	01000000 	mrseq	r0, (UNDEF: 0)
     728:	02442045 	subeq	r2, r4, #69	; 0x45
     72c:	057c0000 	ldrbeq	r0, [ip, #-0]!
     730:	00000000 	andeq	r0, r0, r0
     734:	00824425 	addeq	r4, r2, r5, lsr #8
     738:	00000400 	andeq	r0, r0, r0, lsl #8
     73c:	00074b00 	andeq	r4, r7, r0, lsl #22
     740:	038e2400 	orreq	r2, lr, #0, 8
     744:	059e0000 	ldreq	r0, [lr]
     748:	1f000000 	svcne	0x00000000
     74c:	00000250 	andeq	r0, r0, r0, asr r2
     750:	00008268 	andeq	r8, r0, r8, ror #4
     754:	00000034 	andeq	r0, r0, r4, lsr r0
     758:	07a79501 	streq	r9, [r7, r1, lsl #10]!
     75c:	67200000 	strvs	r0, [r0, -r0]!
     760:	b1000002 	tstlt	r0, r2
     764:	20000005 	andcs	r0, r0, r5
     768:	0000025c 	andeq	r0, r0, ip, asr r2
     76c:	000005df 	ldrdeq	r0, [r0], -pc	; <UNPREDICTABLE>
     770:	0002201f 	andeq	r2, r2, pc, lsl r0
     774:	00827000 	addeq	r7, r2, r0
     778:	00001800 	andeq	r1, r0, r0, lsl #16
     77c:	8d430100 	stfhie	f0, [r3, #-0]
     780:	20000007 	andcs	r0, r0, r7
     784:	0000022c 	andeq	r0, r0, ip, lsr #4
     788:	0000064f 	andeq	r0, r0, pc, asr #12
     78c:	02382600 	eorseq	r2, r8, #0, 12
     790:	82880000 	addhi	r0, r8, #0
     794:	00140000 	andseq	r0, r4, r0
     798:	45010000 	strmi	r0, [r1, #-0]
     79c:	00024420 	andeq	r4, r2, r0, lsr #8
     7a0:	00067100 	andeq	r7, r6, r0, lsl #2
     7a4:	25000000 	strcs	r0, [r0, #-0]
     7a8:	000082a0 	andeq	r8, r0, r0, lsr #5
     7ac:	00000004 	andeq	r0, r0, r4
     7b0:	000007be 			; <UNDEFINED> instruction: 0x000007be
     7b4:	00039f24 	andeq	r9, r3, r4, lsr #30
     7b8:	00069300 	andeq	r9, r6, r0, lsl #6
     7bc:	501f0000 	andspl	r0, pc, r0
     7c0:	c0000002 	andgt	r0, r0, r2
     7c4:	34000082 	strcc	r0, [r0], #-130	; 0x82
     7c8:	01000000 	mrseq	r0, (UNDEF: 0)
     7cc:	00081a97 	muleq	r8, r7, sl
     7d0:	02672000 	rsbeq	r2, r7, #0
     7d4:	06a60000 	strteq	r0, [r6], r0
     7d8:	5c200000 	stcpl	0, cr0, [r0], #-0
     7dc:	d4000002 	strle	r0, [r0], #-2
     7e0:	1f000006 	svcne	0x00000006
     7e4:	00000220 	andeq	r0, r0, r0, lsr #4
     7e8:	000082c8 	andeq	r8, r0, r8, asr #5
     7ec:	00000018 	andeq	r0, r0, r8, lsl r0
     7f0:	08004301 	stmdaeq	r0, {r0, r8, r9, lr}
     7f4:	2c200000 	stccs	0, cr0, [r0], #-0
     7f8:	44000002 	strmi	r0, [r0], #-2
     7fc:	00000007 	andeq	r0, r0, r7
     800:	00023826 	andeq	r3, r2, r6, lsr #16
     804:	0082e000 	addeq	lr, r2, r0
     808:	00001400 	andeq	r1, r0, r0, lsl #8
     80c:	20450100 	subcs	r0, r5, r0, lsl #2
     810:	00000244 	andeq	r0, r0, r4, asr #4
     814:	00000766 	andeq	r0, r0, r6, ror #14
     818:	f8250000 			; <UNDEFINED> instruction: 0xf8250000
     81c:	04000082 	streq	r0, [r0], #-130	; 0x82
     820:	31000000 	mrscc	r0, (UNDEF: 0)
     824:	24000008 	strcs	r0, [r0], #-8
     828:	000003b0 			; <UNDEFINED> instruction: 0x000003b0
     82c:	00000788 	andeq	r0, r0, r8, lsl #15
     830:	02501f00 	subseq	r1, r0, #0, 30
     834:	83140000 	tsthi	r4, #0
     838:	00340000 	eorseq	r0, r4, r0
     83c:	99010000 	stmdbls	r1, {}	; <UNPREDICTABLE>
     840:	0000088d 	andeq	r0, r0, sp, lsl #17
     844:	00026720 	andeq	r6, r2, r0, lsr #14
     848:	00079b00 	andeq	r9, r7, r0, lsl #22
     84c:	025c2000 	subseq	r2, ip, #0
     850:	07c90000 	strbeq	r0, [r9, r0]
     854:	201f0000 	andscs	r0, pc, r0
     858:	1c000002 	stcne	0, cr0, [r0], {2}
     85c:	18000083 	stmdane	r0, {r0, r1, r7}
     860:	01000000 	mrseq	r0, (UNDEF: 0)
     864:	00087343 	andeq	r7, r8, r3, asr #6
     868:	022c2000 	eoreq	r2, ip, #0
     86c:	08390000 	ldmdaeq	r9!, {}	; <UNPREDICTABLE>
     870:	26000000 	strcs	r0, [r0], -r0
     874:	00000238 	andeq	r0, r0, r8, lsr r2
     878:	00008334 	andeq	r8, r0, r4, lsr r3
     87c:	00000014 	andeq	r0, r0, r4, lsl r0
     880:	44204501 	strtmi	r4, [r0], #-1281	; 0x501
     884:	5b000002 	blpl	894 <_start-0x776c>
     888:	00000008 	andeq	r0, r0, r8
     88c:	834c2500 	movthi	r2, #50432	; 0xc500
     890:	00040000 	andeq	r0, r4, r0
     894:	08a40000 	stmiaeq	r4!, {}	; <UNPREDICTABLE>
     898:	c1240000 	teqgt	r4, r0
     89c:	7d000003 	stcvc	0, cr0, [r0, #-12]
     8a0:	00000008 	andeq	r0, r0, r8
     8a4:	0002201f 	andeq	r2, r2, pc, lsl r0
     8a8:	00836c00 	addeq	r6, r3, r0, lsl #24
     8ac:	00001400 	andeq	r1, r0, r0, lsl #8
     8b0:	c19b0100 	orrsgt	r0, fp, r0, lsl #2
     8b4:	20000008 	andcs	r0, r0, r8
     8b8:	0000022c 	andeq	r0, r0, ip, lsr #4
     8bc:	00000890 	muleq	r0, r0, r8
     8c0:	83842200 	orrhi	r2, r4, #0, 4
     8c4:	00040000 	andeq	r0, r4, r0
     8c8:	ce240000 	cdpgt	0, 2, cr0, cr4, cr0, {0}
     8cc:	b2000003 	andlt	r0, r0, #3
     8d0:	00000008 	andeq	r0, r0, r8
     8d4:	e11f0000 	tst	pc, r0
     8d8:	a4000003 	strge	r0, [r0], #-3
     8dc:	64000083 	strvs	r0, [r0], #-131	; 0x83
     8e0:	01000000 	mrseq	r0, (UNDEF: 0)
     8e4:	0009a0ab 	andeq	sl, r9, fp, lsr #1
     8e8:	03f12000 	mvnseq	r2, #0
     8ec:	08c50000 	stmiaeq	r5, {}^	; <UNPREDICTABLE>
     8f0:	a4220000 	strtge	r0, [r2], #-0
     8f4:	64000083 	strvs	r0, [r0], #-131	; 0x83
     8f8:	24000000 	strcs	r0, [r0], #-0
     8fc:	000003fa 	strdeq	r0, [r0], -sl
     900:	000008dd 	ldrdeq	r0, [r0], -sp
     904:	00040327 	andeq	r0, r4, r7, lsr #6
     908:	20030500 	andcs	r0, r3, r0, lsl #10
     90c:	2800009e 	stmdacs	r0, {r1, r2, r3, r4, r7}
     910:	00000271 	andeq	r0, r0, r1, ror r2
     914:	000083a4 	andeq	r8, r0, r4, lsr #7
     918:	00000000 	andeq	r0, r0, r0
     91c:	095d5002 	ldmdbeq	sp, {r1, ip, lr}^
     920:	8a200000 	bhi	800928 <__bss_end__+0x7f4210>
     924:	29000002 	stmdbcs	r0, {r1}
     928:	20000009 	andcs	r0, r0, r9
     92c:	00000281 	andeq	r0, r0, r1, lsl #5
     930:	000008c5 	andeq	r0, r0, r5, asr #17
     934:	00000029 	andeq	r0, r0, r9, lsr #32
     938:	02932400 	addseq	r2, r3, #0, 8
     93c:	09410000 	stmdbeq	r1, {}^	; <UNPREDICTABLE>
     940:	e6260000 	strt	r0, [r6], -r0
     944:	a4000001 	strge	r0, [r0], #-1
     948:	08000083 	stmdaeq	r0, {r0, r1, r7}
     94c:	02000000 	andeq	r0, r0, #0
     950:	01f62043 	mvnseq	r2, r3, asr #32
     954:	08c50000 	stmiaeq	r5, {}^	; <UNPREDICTABLE>
     958:	00000000 	andeq	r0, r0, r0
     95c:	83f02a00 	mvnshi	r2, #0, 20
     960:	171e0000 	ldrne	r0, [lr, -r0]
     964:	042b0000 	strteq	r0, [fp], #-0
     968:	25000084 	strcs	r0, [r0, #-132]	; 0x84
     96c:	95000017 	strls	r0, [r0, #-23]
     970:	2c000009 	stccs	0, cr0, [r0], {9}
     974:	08025301 	stmdaeq	r2, {r0, r8, r9, ip, lr}
     978:	52012c51 	andpl	r2, r1, #20736	; 0x5100
     97c:	9e200305 	cdpls	3, 2, cr0, cr0, cr5, {0}
     980:	012c0000 	teqeq	ip, r0
     984:	90030551 	andls	r0, r3, r1, asr r5
     988:	2c00009e 	stccs	0, cr0, [r0], {158}	; 0x9e
     98c:	03055001 	movweq	r5, #20481	; 0x5001
     990:	00009e50 	andeq	r9, r0, r0, asr lr
     994:	84082a00 	strhi	r2, [r8], #-2560	; 0xa00
     998:	173b0000 	ldrne	r0, [fp, -r0]!
     99c:	00000000 	andeq	r0, r0, r0
     9a0:	0002ed28 	andeq	lr, r2, r8, lsr #26
     9a4:	00844400 	addeq	r4, r4, r0, lsl #8
     9a8:	00001800 	andeq	r1, r0, r0, lsl #16
     9ac:	f1b00100 			; <UNDEFINED> instruction: 0xf1b00100
     9b0:	2000000d 	andcs	r0, r0, sp
     9b4:	00000304 	andeq	r0, r0, r4, lsl #6
     9b8:	00000963 	andeq	r0, r0, r3, ror #18
     9bc:	0002f920 	andeq	pc, r2, r0, lsr #18
     9c0:	00098100 	andeq	r8, r9, r0, lsl #2
     9c4:	00182900 	andseq	r2, r8, r0, lsl #18
     9c8:	0f240000 	svceq	0x00240000
     9cc:	99000003 	stmdbls	r0, {r0, r1}
     9d0:	24000009 	strcs	r0, [r0], #-9
     9d4:	00000318 	andeq	r0, r0, r8, lsl r3
     9d8:	000009ad 	andeq	r0, r0, sp, lsr #19
     9dc:	00844425 	addeq	r4, r4, r5, lsr #8
     9e0:	00000400 	andeq	r0, r0, r0, lsl #8
     9e4:	0009f300 	andeq	pc, r9, r0, lsl #6
     9e8:	03282400 	teqeq	r8, #0, 8
     9ec:	09ad0000 	stmibeq	sp!, {}	; <UNPREDICTABLE>
     9f0:	1f000000 	svcne	0x00000000
     9f4:	00000238 	andeq	r0, r0, r8, lsr r2
     9f8:	00008464 	andeq	r8, r0, r4, ror #8
     9fc:	0000000c 	andeq	r0, r0, ip
     a00:	0a108901 	beq	422e0c <__bss_end__+0x4166f4>
     a04:	44200000 	strtmi	r0, [r0], #-0
     a08:	c0000002 	andgt	r0, r0, r2
     a0c:	00000009 	andeq	r0, r0, r9
     a10:	00847025 	addeq	r7, r4, r5, lsr #32
     a14:	00000400 	andeq	r0, r0, r0, lsl #8
     a18:	000a2700 	andeq	r2, sl, r0, lsl #14
     a1c:	03392400 	teqeq	r9, #0, 8
     a20:	09e20000 	stmibeq	r2!, {}^	; <UNPREDICTABLE>
     a24:	1f000000 	svcne	0x00000000
     a28:	00000250 	andeq	r0, r0, r0, asr r2
     a2c:	00008488 	andeq	r8, r0, r8, lsl #9
     a30:	0000002c 	andeq	r0, r0, ip, lsr #32
     a34:	0a838b01 	beq	fe0e3640 <__bss_end__+0xfe0d6f28>
     a38:	67200000 	strvs	r0, [r0, -r0]!
     a3c:	f5000002 			; <UNDEFINED> instruction: 0xf5000002
     a40:	20000009 	andcs	r0, r0, r9
     a44:	0000025c 	andeq	r0, r0, ip, asr r2
     a48:	00000a21 	andeq	r0, r0, r1, lsr #20
     a4c:	0002201f 	andeq	r2, r2, pc, lsl r0
     a50:	00849000 	addeq	r9, r4, r0
     a54:	00001400 	andeq	r1, r0, r0, lsl #8
     a58:	69430100 	stmdbvs	r3, {r8}^
     a5c:	2000000a 	andcs	r0, r0, sl
     a60:	0000022c 	andeq	r0, r0, ip, lsr #4
     a64:	00000a5d 	andeq	r0, r0, sp, asr sl
     a68:	02382600 	eorseq	r2, r8, #0, 12
     a6c:	84a40000 	strthi	r0, [r4], #0
     a70:	00100000 	andseq	r0, r0, r0
     a74:	45010000 	strmi	r0, [r1, #-0]
     a78:	00024420 	andeq	r4, r2, r0, lsr #8
     a7c:	000a7f00 	andeq	r7, sl, r0, lsl #30
     a80:	25000000 	strcs	r0, [r0, #-0]
     a84:	000084b4 			; <UNDEFINED> instruction: 0x000084b4
     a88:	00000004 	andeq	r0, r0, r4
     a8c:	00000a9a 	muleq	r0, sl, sl
     a90:	00034a24 	andeq	r4, r3, r4, lsr #20
     a94:	000aa100 	andeq	sl, sl, r0, lsl #2
     a98:	501f0000 	andspl	r0, pc, r0
     a9c:	cc000002 	stcgt	0, cr0, [r0], {2}
     aa0:	2c000084 	stccs	0, cr0, [r0], {132}	; 0x84
     aa4:	01000000 	mrseq	r0, (UNDEF: 0)
     aa8:	000af68d 	andeq	pc, sl, sp, lsl #13
     aac:	02672000 	rsbeq	r2, r7, #0
     ab0:	0ab40000 	beq	fed00ab8 <__bss_end__+0xfecf43a0>
     ab4:	5c200000 	stcpl	0, cr0, [r0], #-0
     ab8:	e0000002 	and	r0, r0, r2
     abc:	1f00000a 	svcne	0x0000000a
     ac0:	00000220 	andeq	r0, r0, r0, lsr #4
     ac4:	000084d4 	ldrdeq	r8, [r0], -r4
     ac8:	00000014 	andeq	r0, r0, r4, lsl r0
     acc:	0adc4301 	beq	ff7116d8 <__bss_end__+0xff704fc0>
     ad0:	2c200000 	stccs	0, cr0, [r0], #-0
     ad4:	1c000002 	stcne	0, cr0, [r0], {2}
     ad8:	0000000b 	andeq	r0, r0, fp
     adc:	00023826 	andeq	r3, r2, r6, lsr #16
     ae0:	0084e800 	addeq	lr, r4, r0, lsl #16
     ae4:	00001000 	andeq	r1, r0, r0
     ae8:	20450100 	subcs	r0, r5, r0, lsl #2
     aec:	00000244 	andeq	r0, r0, r4, asr #4
     af0:	00000b3e 	andeq	r0, r0, lr, lsr fp
     af4:	f8250000 			; <UNDEFINED> instruction: 0xf8250000
     af8:	04000084 	streq	r0, [r0], #-132	; 0x84
     afc:	0d000000 	stceq	0, cr0, [r0, #-0]
     b00:	2400000b 	strcs	r0, [r0], #-11
     b04:	0000035b 	andeq	r0, r0, fp, asr r3
     b08:	00000b60 	andeq	r0, r0, r0, ror #22
     b0c:	02501f00 	subseq	r1, r0, #0, 30
     b10:	85140000 	ldrhi	r0, [r4, #-0]
     b14:	002c0000 	eoreq	r0, ip, r0
     b18:	8f010000 	svchi	0x00010000
     b1c:	00000b69 	andeq	r0, r0, r9, ror #22
     b20:	00026720 	andeq	r6, r2, r0, lsr #14
     b24:	000b7300 	andeq	r7, fp, r0, lsl #6
     b28:	025c2000 	subseq	r2, ip, #0
     b2c:	0b9f0000 	bleq	fe7c0b34 <__bss_end__+0xfe7b441c>
     b30:	201f0000 	andscs	r0, pc, r0
     b34:	1c000002 	stcne	0, cr0, [r0], {2}
     b38:	14000085 	strne	r0, [r0], #-133	; 0x85
     b3c:	01000000 	mrseq	r0, (UNDEF: 0)
     b40:	000b4f43 	andeq	r4, fp, r3, asr #30
     b44:	022c2000 	eoreq	r2, ip, #0
     b48:	0bdb0000 	bleq	ff6c0b50 <__bss_end__+0xff6b4438>
     b4c:	26000000 	strcs	r0, [r0], -r0
     b50:	00000238 	andeq	r0, r0, r8, lsr r2
     b54:	00008530 	andeq	r8, r0, r0, lsr r5
     b58:	00000010 	andeq	r0, r0, r0, lsl r0
     b5c:	44204501 	strtmi	r4, [r0], #-1281	; 0x501
     b60:	fd000002 	stc2	0, cr0, [r0, #-8]
     b64:	0000000b 	andeq	r0, r0, fp
     b68:	85402500 	strbhi	r2, [r0, #-1280]	; 0x500
     b6c:	00040000 	andeq	r0, r4, r0
     b70:	0b800000 	bleq	fe000b78 <__bss_end__+0xfdff4460>
     b74:	6c240000 	stcvs	0, cr0, [r4], #-0
     b78:	1f000003 	svcne	0x00000003
     b7c:	0000000c 	andeq	r0, r0, ip
     b80:	0002501f 	andeq	r5, r2, pc, lsl r0
     b84:	00855800 	addeq	r5, r5, r0, lsl #16
     b88:	00002c00 	andeq	r2, r0, r0, lsl #24
     b8c:	dc910100 	ldfles	f0, [r1], {0}
     b90:	2000000b 	andcs	r0, r0, fp
     b94:	00000267 	andeq	r0, r0, r7, ror #4
     b98:	00000c32 	andeq	r0, r0, r2, lsr ip
     b9c:	00025c20 	andeq	r5, r2, r0, lsr #24
     ba0:	000c5e00 	andeq	r5, ip, r0, lsl #28
     ba4:	02201f00 	eoreq	r1, r0, #0, 30
     ba8:	85600000 	strbhi	r0, [r0, #-0]!
     bac:	00140000 	andseq	r0, r4, r0
     bb0:	43010000 	movwmi	r0, #4096	; 0x1000
     bb4:	00000bc2 	andeq	r0, r0, r2, asr #23
     bb8:	00022c20 	andeq	r2, r2, r0, lsr #24
     bbc:	000c9a00 	andeq	r9, ip, r0, lsl #20
     bc0:	38260000 	stmdacc	r6!, {}	; <UNPREDICTABLE>
     bc4:	74000002 	strvc	r0, [r0], #-2
     bc8:	10000085 	andne	r0, r0, r5, lsl #1
     bcc:	01000000 	mrseq	r0, (UNDEF: 0)
     bd0:	02442045 	subeq	r2, r4, #69	; 0x45
     bd4:	0cbc0000 	ldceq	0, cr0, [ip]
     bd8:	00000000 	andeq	r0, r0, r0
     bdc:	00858425 	addeq	r8, r5, r5, lsr #8
     be0:	00000400 	andeq	r0, r0, r0, lsl #8
     be4:	000bf300 	andeq	pc, fp, r0, lsl #6
     be8:	037d2400 	cmneq	sp, #0, 8
     bec:	0cde0000 	ldcleq	0, cr0, [lr], {0}
     bf0:	1f000000 	svcne	0x00000000
     bf4:	00000250 	andeq	r0, r0, r0, asr r2
     bf8:	000085a0 	andeq	r8, r0, r0, lsr #11
     bfc:	0000002c 	andeq	r0, r0, ip, lsr #32
     c00:	0c4f9301 	mcrreq	3, 0, r9, pc, cr1
     c04:	67200000 	strvs	r0, [r0, -r0]!
     c08:	f1000002 	cps	#2
     c0c:	2000000c 	andcs	r0, r0, ip
     c10:	0000025c 	andeq	r0, r0, ip, asr r2
     c14:	00000d1d 	andeq	r0, r0, sp, lsl sp
     c18:	0002201f 	andeq	r2, r2, pc, lsl r0
     c1c:	0085a800 	addeq	sl, r5, r0, lsl #16
     c20:	00001400 	andeq	r1, r0, r0, lsl #8
     c24:	35430100 	strbcc	r0, [r3, #-256]	; 0x100
     c28:	2000000c 	andcs	r0, r0, ip
     c2c:	0000022c 	andeq	r0, r0, ip, lsr #4
     c30:	00000d59 	andeq	r0, r0, r9, asr sp
     c34:	02382600 	eorseq	r2, r8, #0, 12
     c38:	85bc0000 	ldrhi	r0, [ip, #0]!
     c3c:	00100000 	andseq	r0, r0, r0
     c40:	45010000 	strmi	r0, [r1, #-0]
     c44:	00024420 	andeq	r4, r2, r0, lsr #8
     c48:	000d7b00 	andeq	r7, sp, r0, lsl #22
     c4c:	25000000 	strcs	r0, [r0, #-0]
     c50:	000085cc 	andeq	r8, r0, ip, asr #11
     c54:	00000004 	andeq	r0, r0, r4
     c58:	00000c66 	andeq	r0, r0, r6, ror #24
     c5c:	00038e24 	andeq	r8, r3, r4, lsr #28
     c60:	000d9d00 	andeq	r9, sp, r0, lsl #26
     c64:	501f0000 	andspl	r0, pc, r0
     c68:	ec000002 	stc	0, cr0, [r0], {2}
     c6c:	2c000085 	stccs	0, cr0, [r0], {133}	; 0x85
     c70:	01000000 	mrseq	r0, (UNDEF: 0)
     c74:	000cc295 	muleq	ip, r5, r2
     c78:	02672000 	rsbeq	r2, r7, #0
     c7c:	0db00000 	ldceq	0, cr0, [r0]
     c80:	5c200000 	stcpl	0, cr0, [r0], #-0
     c84:	de000002 	cdple	0, 0, cr0, cr0, cr2, {0}
     c88:	1f00000d 	svcne	0x0000000d
     c8c:	00000220 	andeq	r0, r0, r0, lsr #4
     c90:	000085f4 	strdeq	r8, [r0], -r4
     c94:	00000014 	andeq	r0, r0, r4, lsl r0
     c98:	0ca84301 	stceq	3, cr4, [r8], #4
     c9c:	2c200000 	stccs	0, cr0, [r0], #-0
     ca0:	1a000002 	bne	cb0 <_start-0x7350>
     ca4:	0000000e 	andeq	r0, r0, lr
     ca8:	00023826 	andeq	r3, r2, r6, lsr #16
     cac:	00860800 	addeq	r0, r6, r0, lsl #16
     cb0:	00001000 	andeq	r1, r0, r0
     cb4:	20450100 	subcs	r0, r5, r0, lsl #2
     cb8:	00000244 	andeq	r0, r0, r4, asr #4
     cbc:	00000e3c 	andeq	r0, r0, ip, lsr lr
     cc0:	18250000 	stmdane	r5!, {}	; <UNPREDICTABLE>
     cc4:	04000086 	streq	r0, [r0], #-134	; 0x86
     cc8:	d9000000 	stmdble	r0, {}	; <UNPREDICTABLE>
     ccc:	2400000c 	strcs	r0, [r0], #-12
     cd0:	0000039f 	muleq	r0, pc, r3	; <UNPREDICTABLE>
     cd4:	00000e5e 	andeq	r0, r0, lr, asr lr
     cd8:	02501f00 	subseq	r1, r0, #0, 30
     cdc:	86340000 	ldrthi	r0, [r4], -r0
     ce0:	002c0000 	eoreq	r0, ip, r0
     ce4:	97010000 	strls	r0, [r1, -r0]
     ce8:	00000d35 	andeq	r0, r0, r5, lsr sp
     cec:	00026720 	andeq	r6, r2, r0, lsr #14
     cf0:	000e7100 	andeq	r7, lr, r0, lsl #2
     cf4:	025c2000 	subseq	r2, ip, #0
     cf8:	0e9f0000 	cdpeq	0, 9, cr0, cr15, cr0, {0}
     cfc:	201f0000 	andscs	r0, pc, r0
     d00:	3c000002 	stccc	0, cr0, [r0], {2}
     d04:	14000086 	strne	r0, [r0], #-134	; 0x86
     d08:	01000000 	mrseq	r0, (UNDEF: 0)
     d0c:	000d1b43 	andeq	r1, sp, r3, asr #22
     d10:	022c2000 	eoreq	r2, ip, #0
     d14:	0edb0000 	cdpeq	0, 13, cr0, cr11, cr0, {0}
     d18:	26000000 	strcs	r0, [r0], -r0
     d1c:	00000238 	andeq	r0, r0, r8, lsr r2
     d20:	00008650 	andeq	r8, r0, r0, asr r6
     d24:	00000010 	andeq	r0, r0, r0, lsl r0
     d28:	44204501 	strtmi	r4, [r0], #-1281	; 0x501
     d2c:	fd000002 	stc2	0, cr0, [r0, #-8]
     d30:	0000000e 	andeq	r0, r0, lr
     d34:	86602500 	strbthi	r2, [r0], -r0, lsl #10
     d38:	00040000 	andeq	r0, r4, r0
     d3c:	0d4c0000 	stcleq	0, cr0, [ip, #-0]
     d40:	b0240000 	eorlt	r0, r4, r0
     d44:	1f000003 	svcne	0x00000003
     d48:	0000000f 	andeq	r0, r0, pc
     d4c:	0002501f 	andeq	r5, r2, pc, lsl r0
     d50:	00867800 	addeq	r7, r6, r0, lsl #16
     d54:	00002c00 	andeq	r2, r0, r0, lsl #24
     d58:	a8990100 	ldmge	r9, {r8}
     d5c:	2000000d 	andcs	r0, r0, sp
     d60:	00000267 	andeq	r0, r0, r7, ror #4
     d64:	00000f32 	andeq	r0, r0, r2, lsr pc
     d68:	00025c20 	andeq	r5, r2, r0, lsr #24
     d6c:	000f6000 	andeq	r6, pc, r0
     d70:	02201f00 	eoreq	r1, r0, #0, 30
     d74:	86800000 	strhi	r0, [r0], r0
     d78:	00140000 	andseq	r0, r4, r0
     d7c:	43010000 	movwmi	r0, #4096	; 0x1000
     d80:	00000d8e 	andeq	r0, r0, lr, lsl #27
     d84:	00022c20 	andeq	r2, r2, r0, lsr #24
     d88:	000f9c00 	andeq	r9, pc, r0, lsl #24
     d8c:	38260000 	stmdacc	r6!, {}	; <UNPREDICTABLE>
     d90:	94000002 	strls	r0, [r0], #-2
     d94:	10000086 	andne	r0, r0, r6, lsl #1
     d98:	01000000 	mrseq	r0, (UNDEF: 0)
     d9c:	02442045 	subeq	r2, r4, #69	; 0x45
     da0:	0fbe0000 	svceq	0x00be0000
     da4:	00000000 	andeq	r0, r0, r0
     da8:	0086a425 	addeq	sl, r6, r5, lsr #8
     dac:	00000400 	andeq	r0, r0, r0, lsl #8
     db0:	000dbf00 	andeq	fp, sp, r0, lsl #30
     db4:	03c12400 	biceq	r2, r1, #0, 8
     db8:	0fe00000 	svceq	0x00e00000
     dbc:	1f000000 	svcne	0x00000000
     dc0:	00000220 	andeq	r0, r0, r0, lsr #4
     dc4:	000086c0 	andeq	r8, r0, r0, asr #13
     dc8:	00000010 	andeq	r0, r0, r0, lsl r0
     dcc:	0ddc9b01 	vldreq	d25, [ip, #4]
     dd0:	2c200000 	stccs	0, cr0, [r0], #-0
     dd4:	f3000002 	vhadd.u8	d0, d0, d2
     dd8:	0000000f 	andeq	r0, r0, pc
     ddc:	0086d022 	addeq	sp, r6, r2, lsr #32
     de0:	00000400 	andeq	r0, r0, r0, lsl #8
     de4:	03ce2400 	biceq	r2, lr, #0, 8
     de8:	10150000 	andsne	r0, r5, r0
     dec:	00000000 	andeq	r0, r0, r0
     df0:	01e62800 	mvneq	r2, r0, lsl #16
     df4:	86f00000 	ldrbthi	r0, [r0], r0
     df8:	00300000 	eorseq	r0, r0, r0
     dfc:	aa010000 	bge	40e04 <__bss_end__+0x346ec>
     e00:	00000e0e 	andeq	r0, r0, lr, lsl #28
     e04:	0001f620 	andeq	pc, r1, r0, lsr #12
     e08:	00102800 	andseq	r2, r0, r0, lsl #16
     e0c:	342b0000 	strtcc	r0, [fp], #-0
     e10:	25000080 	strcs	r0, [r0, #-128]	; 0x80
     e14:	25000017 	strcs	r0, [r0, #-23]
     e18:	2c00000e 	stccs	0, cr0, [r0], {14}
     e1c:	03055001 	movweq	r5, #20481	; 0x5001
     e20:	00009e40 	andeq	r9, r0, r0, asr #28
     e24:	804c2b00 	subhi	r2, ip, r0, lsl #22
     e28:	17420000 	strbne	r0, [r2, -r0]
     e2c:	0e380000 	cdpeq	0, 3, cr0, cr8, cr0, {0}
     e30:	012c0000 	teqeq	ip, r0
     e34:	00310150 	eorseq	r0, r1, r0, asr r1
     e38:	0080502a 	addeq	r5, r0, sl, lsr #32
     e3c:	00175300 	andseq	r5, r7, r0, lsl #6
     e40:	84282b00 	strthi	r2, [r8], #-2816	; 0xb00
     e44:	17250000 	strne	r0, [r5, -r0]!
     e48:	0e550000 	cdpeq	0, 5, cr0, cr5, cr0, {0}
     e4c:	012c0000 	teqeq	ip, r0
     e50:	00790250 	rsbseq	r0, r9, r0, asr r2
     e54:	84302a00 	ldrthi	r2, [r0], #-2560	; 0xa00
     e58:	175a0000 	ldrbne	r0, [sl, -r0]
     e5c:	f02a0000 			; <UNDEFINED> instruction: 0xf02a0000
     e60:	53000086 	movwpl	r0, #134	; 0x86
     e64:	2a000017 	bcs	ec8 <_start-0x7138>
     e68:	0000872c 	andeq	r8, r0, ip, lsr #14
     e6c:	0000175a 	andeq	r1, r0, sl, asr r7
     e70:	0087442d 	addeq	r4, r7, sp, lsr #8
     e74:	00172500 	andseq	r2, r7, r0, lsl #10
     e78:	50012c00 	andpl	r2, r1, r0, lsl #24
     e7c:	9f080305 	svcls	0x00080305
     e80:	00000000 	andeq	r0, r0, r0
     e84:	0003132e 	andeq	r1, r3, lr, lsr #6
     e88:	374e0100 	strbcc	r0, [lr, -r0, lsl #2]
     e8c:	74000000 	strvc	r0, [r0], #-0
     e90:	50000087 	andpl	r0, r0, r7, lsl #1
     e94:	01000000 	mrseq	r0, (UNDEF: 0)
     e98:	000f609c 	muleq	pc, ip, r0	; <UNPREDICTABLE>
     e9c:	00731e00 	rsbseq	r1, r3, r0, lsl #28
     ea0:	00374e01 	eorseq	r4, r7, r1, lsl #28
     ea4:	10400000 	subne	r0, r0, r0
     ea8:	a32f0000 	teqge	pc, #0
     eac:	70000001 	andvc	r0, r0, r1
     eb0:	0500000f 	streq	r0, [r0, #-15]
     eb4:	009e2803 	addseq	r2, lr, r3, lsl #16
     eb8:	03311700 	teqeq	r1, #0, 14
     ebc:	50010000 	andpl	r0, r1, r0
     ec0:	00000037 	andeq	r0, r0, r7, lsr r0
     ec4:	0003c930 	andeq	ip, r3, r0, lsr r9
     ec8:	37520100 	ldrbcc	r0, [r2, -r0, lsl #2]
     ecc:	7a000000 	bvc	ed4 <_start-0x712c>
     ed0:	25000010 	strcs	r0, [r0, #-16]
     ed4:	0000879c 	muleq	r0, ip, r7
     ed8:	00000004 	andeq	r0, r0, r4
     edc:	00000eec 	andeq	r0, r0, ip, ror #29
     ee0:	00029e17 	andeq	r9, r2, r7, lsl lr
     ee4:	37500100 	ldrbcc	r0, [r0, -r0, lsl #2]
     ee8:	00000000 	andeq	r0, r0, r0
     eec:	0087ac25 	addeq	sl, r7, r5, lsr #24
     ef0:	00000400 	andeq	r0, r0, r0, lsl #8
     ef4:	000f0900 	andeq	r0, pc, r0, lsl #18
     ef8:	029e3000 	addseq	r3, lr, #0
     efc:	52010000 	andpl	r0, r1, #0
     f00:	00000037 	andeq	r0, r0, r7, lsr r0
     f04:	0000107a 	andeq	r1, r0, sl, ror r0
     f08:	87842a00 	strhi	r2, [r4, r0, lsl #20]
     f0c:	171e0000 	ldrne	r0, [lr, -r0]
     f10:	982b0000 	stmdals	fp!, {}	; <UNPREDICTABLE>
     f14:	25000087 	strcs	r0, [r0, #-135]	; 0x87
     f18:	41000017 	tstmi	r0, r7, lsl r0
     f1c:	2c00000f 	stccs	0, cr0, [r0], {15}
     f20:	08025301 	stmdaeq	r2, {r0, r8, r9, ip, lr}
     f24:	52012c4f 	andpl	r2, r1, #20224	; 0x4f00
     f28:	9e280305 	cdpls	3, 2, cr0, cr8, cr5, {0}
     f2c:	012c0000 	teqeq	ip, r0
     f30:	54030551 	strpl	r0, [r3], #-1361	; 0x551
     f34:	2c00009f 	stccs	0, cr0, [r0], {159}	; 0x9f
     f38:	03055001 	movweq	r5, #20481	; 0x5001
     f3c:	00009f24 	andeq	r9, r0, r4, lsr #30
     f40:	879c2a00 	ldrhi	r2, [ip, r0, lsl #20]
     f44:	173b0000 	ldrne	r0, [fp, -r0]!
     f48:	ac2d0000 	stcge	0, cr0, [sp], #-0
     f4c:	42000087 	andmi	r0, r0, #135	; 0x87
     f50:	2c000017 	stccs	0, cr0, [r0], {23}
     f54:	f3075001 	vhadd.u8	d5, d7, d1
     f58:	e80a5001 	stmda	sl, {r0, ip, lr}
     f5c:	00001e03 	andeq	r1, r0, r3, lsl #28
     f60:	00008a08 	andeq	r8, r0, r8, lsl #20
     f64:	000f7000 	andeq	r7, pc, r0
     f68:	00810900 	addeq	r0, r1, r0, lsl #18
     f6c:	000e0000 	andeq	r0, lr, r0
     f70:	000f6007 	andeq	r6, pc, r7
     f74:	00b21400 	adcseq	r1, r2, r0, lsl #8
     f78:	57010000 	strpl	r0, [r1, -r0]
     f7c:	00000037 	andeq	r0, r0, r7, lsr r0
     f80:	00107203 	andseq	r7, r0, r3, lsl #4
     f84:	02c71800 	sbceq	r1, r7, #0, 16
     f88:	57010000 	strpl	r0, [r1, -r0]
     f8c:	000003db 	ldrdeq	r0, [r0], -fp
     f90:	00053717 	andeq	r3, r5, r7, lsl r7
     f94:	37590100 	ldrbcc	r0, [r9, -r0, lsl #2]
     f98:	19000000 	stmdbne	r0, {}	; <UNPREDICTABLE>
     f9c:	5a010069 	bpl	41148 <__bss_end__+0x34a30>
     fa0:	00000037 	andeq	r0, r0, r7, lsr r0
     fa4:	00005a17 	andeq	r5, r0, r7, lsl sl
     fa8:	375b0100 	ldrbcc	r0, [fp, -r0, lsl #2]
     fac:	17000000 	strne	r0, [r0, -r0]
     fb0:	0000068c 	andeq	r0, r0, ip, lsl #13
     fb4:	00375f01 	eorseq	r5, r7, r1, lsl #30
     fb8:	cb1a0000 	blgt	680fc0 <__bss_end__+0x6748a8>
     fbc:	1700000f 	strne	r0, [r0, -pc]
     fc0:	0000029e 	muleq	r0, lr, r2
     fc4:	00375f01 	eorseq	r5, r7, r1, lsl #30
     fc8:	1a000000 	bne	fd0 <_start-0x7030>
     fcc:	00000fdc 	ldrdeq	r0, [r0], -ip
     fd0:	00029e17 	andeq	r9, r2, r7, lsl lr
     fd4:	37600100 	strbcc	r0, [r0, -r0, lsl #2]!
     fd8:	00000000 	andeq	r0, r0, r0
     fdc:	000fed1a 	andeq	lr, pc, sl, lsl sp	; <UNPREDICTABLE>
     fe0:	029e1700 	addseq	r1, lr, #0, 14
     fe4:	62010000 	andvs	r0, r1, #0
     fe8:	00000037 	andeq	r0, r0, r7, lsr r0
     fec:	0ffe1a00 	svceq	0x00fe1a00
     ff0:	9e170000 	cdpls	0, 1, cr0, cr7, cr0, {0}
     ff4:	01000002 	tsteq	r0, r2
     ff8:	00003764 	andeq	r3, r0, r4, ror #14
     ffc:	0f1a0000 	svceq	0x001a0000
    1000:	17000010 	smladne	r0, r0, r0, r0
    1004:	0000029e 	muleq	r0, lr, r2
    1008:	00376601 	eorseq	r6, r7, r1, lsl #12
    100c:	1a000000 	bne	1014 <_start-0x6fec>
    1010:	00001020 	andeq	r1, r0, r0, lsr #32
    1014:	00029e17 	andeq	r9, r2, r7, lsl lr
    1018:	37680100 	strbcc	r0, [r8, -r0, lsl #2]!
    101c:	00000000 	andeq	r0, r0, r0
    1020:	0010311a 	andseq	r3, r0, sl, lsl r1
    1024:	029e1700 	addseq	r1, lr, #0, 14
    1028:	6a010000 	bvs	41030 <__bss_end__+0x34918>
    102c:	00000037 	andeq	r0, r0, r7, lsr r0
    1030:	10421a00 	subne	r1, r2, r0, lsl #20
    1034:	9e170000 	cdpls	0, 1, cr0, cr7, cr0, {0}
    1038:	01000002 	tsteq	r0, r2
    103c:	0000376c 	andeq	r3, r0, ip, ror #14
    1040:	531a0000 	tstpl	sl, #0
    1044:	17000010 	smladne	r0, r0, r0, r0
    1048:	0000029e 	muleq	r0, lr, r2
    104c:	00376e01 	eorseq	r6, r7, r1, lsl #28
    1050:	1a000000 	bne	1058 <_start-0x6fa8>
    1054:	00001064 	andeq	r1, r0, r4, rrx
    1058:	00029e17 	andeq	r9, r2, r7, lsl lr
    105c:	37700100 	ldrbcc	r0, [r0, -r0, lsl #2]!
    1060:	00000000 	andeq	r0, r0, r0
    1064:	029e171b 	addseq	r1, lr, #7077888	; 0x6c0000
    1068:	72010000 	andvc	r0, r1, #0
    106c:	00000037 	andeq	r0, r0, r7, lsr r0
    1070:	d5310000 	ldrle	r0, [r1, #-0]!
    1074:	0100000a 	tsteq	r0, sl
    1078:	0087c4bd 			; <UNDEFINED> instruction: 0x0087c4bd
    107c:	00024000 	andeq	r4, r2, r0
    1080:	579c0100 	ldrpl	r0, [ip, r0, lsl #2]
    1084:	1e000012 	mcrne	0, 0, r0, cr0, cr2, {0}
    1088:	01006370 	tsteq	r0, r0, ror r3
    108c:	000037bd 			; <UNDEFINED> instruction: 0x000037bd
    1090:	00108d00 	andseq	r8, r0, r0, lsl #26
    1094:	0f751f00 	svceq	0x00751f00
    1098:	87cc0000 	strbhi	r0, [ip, r0]
    109c:	01cc0000 	biceq	r0, ip, r0
    10a0:	c5010000 	strgt	r0, [r1, #-0]
    10a4:	000011d9 	ldrdeq	r1, [r0], -r9
    10a8:	000f8521 	andeq	r8, pc, r1, lsr #10
    10ac:	d8030600 	stmdale	r3, {r9, sl}
    10b0:	9f0000a2 	svcls	0x000000a2
    10b4:	0087cc22 	addeq	ip, r7, r2, lsr #24
    10b8:	0001cc00 	andeq	ip, r1, r0, lsl #24
    10bc:	0f902400 	svceq	0x00902400
    10c0:	10ae0000 	adcne	r0, lr, r0
    10c4:	9b230000 	blls	8c10cc <__bss_end__+0x8b49b4>
    10c8:	0100000f 	tsteq	r0, pc
    10cc:	000fa424 	andeq	sl, pc, r4, lsr #8
    10d0:	00113c00 	andseq	r3, r1, r0, lsl #24
    10d4:	0faf2400 	svceq	0x00af2400
    10d8:	11620000 	cmnne	r2, r0
    10dc:	fc250000 	stc2	0, cr0, [r5], #-0
    10e0:	04000087 	streq	r0, [r0], #-135	; 0x87
    10e4:	f5000000 			; <UNDEFINED> instruction: 0xf5000000
    10e8:	24000010 	strcs	r0, [r0], #-16
    10ec:	00000fbf 			; <UNDEFINED> instruction: 0x00000fbf
    10f0:	00001162 	andeq	r1, r0, r2, ror #2
    10f4:	88002500 	stmdahi	r0, {r8, sl, sp}
    10f8:	00040000 	andeq	r0, r4, r0
    10fc:	110c0000 	mrsne	r0, (UNDEF: 12)
    1100:	d0240000 	eorle	r0, r4, r0
    1104:	7500000f 	strvc	r0, [r0, #-15]
    1108:	00000011 	andeq	r0, r0, r1, lsl r0
    110c:	00881425 	addeq	r1, r8, r5, lsr #8
    1110:	00000400 	andeq	r0, r0, r0, lsl #8
    1114:	00112300 	andseq	r2, r1, r0, lsl #6
    1118:	0fe12400 	svceq	0x00e12400
    111c:	11880000 	orrne	r0, r8, r0
    1120:	25000000 	strcs	r0, [r0, #-0]
    1124:	00008840 	andeq	r8, r0, r0, asr #16
    1128:	00000004 	andeq	r0, r0, r4
    112c:	0000113a 	andeq	r1, r0, sl, lsr r1
    1130:	000ff224 	andeq	pc, pc, r4, lsr #4
    1134:	00119b00 	andseq	r9, r1, r0, lsl #22
    1138:	70250000 	eorvc	r0, r5, r0
    113c:	04000088 	streq	r0, [r0], #-136	; 0x88
    1140:	51000000 	mrspl	r0, (UNDEF: 0)
    1144:	24000011 	strcs	r0, [r0], #-17
    1148:	00001003 	andeq	r1, r0, r3
    114c:	000011ae 	andeq	r1, r0, lr, lsr #3
    1150:	889c2500 	ldmhi	ip, {r8, sl, sp}
    1154:	00040000 	andeq	r0, r4, r0
    1158:	11680000 	cmnne	r8, r0
    115c:	14240000 	strtne	r0, [r4], #-0
    1160:	c1000010 	tstgt	r0, r0, lsl r0
    1164:	00000011 	andeq	r0, r0, r1, lsl r0
    1168:	0088cc25 	addeq	ip, r8, r5, lsr #24
    116c:	00000400 	andeq	r0, r0, r0, lsl #8
    1170:	00117f00 	andseq	r7, r1, r0, lsl #30
    1174:	10252400 	eorne	r2, r5, r0, lsl #8
    1178:	11d40000 	bicsne	r0, r4, r0
    117c:	25000000 	strcs	r0, [r0, #-0]
    1180:	000088fc 	strdeq	r8, [r0], -ip
    1184:	00000004 	andeq	r0, r0, r4
    1188:	00001196 	muleq	r0, r6, r1
    118c:	00103624 	andseq	r3, r0, r4, lsr #12
    1190:	0011e700 	andseq	lr, r1, r0, lsl #14
    1194:	2c250000 	stccs	0, cr0, [r5], #-0
    1198:	04000089 	streq	r0, [r0], #-137	; 0x89
    119c:	ad000000 	stcge	0, cr0, [r0, #-0]
    11a0:	24000011 	strcs	r0, [r0], #-17
    11a4:	00001047 	andeq	r1, r0, r7, asr #32
    11a8:	000011fa 	strdeq	r1, [r0], -sl
    11ac:	89582500 	ldmdbhi	r8, {r8, sl, sp}^
    11b0:	00040000 	andeq	r0, r4, r0
    11b4:	11c40000 	bicne	r0, r4, r0
    11b8:	58240000 	stmdapl	r4!, {}	; <UNPREDICTABLE>
    11bc:	0d000010 	stceq	0, cr0, [r0, #-64]	; 0xffffffc0
    11c0:	00000012 	andeq	r0, r0, r2, lsl r0
    11c4:	00898822 	addeq	r8, r9, r2, lsr #16
    11c8:	00000400 	andeq	r0, r0, r0, lsl #8
    11cc:	10652400 	rsbne	r2, r5, r0, lsl #8
    11d0:	12200000 	eorne	r0, r0, #0
    11d4:	00000000 	andeq	r0, r0, r0
    11d8:	02bf1f00 	adcseq	r1, pc, #0, 30
    11dc:	899c0000 	ldmibhi	ip, {}	; <UNPREDICTABLE>
    11e0:	00480000 	subeq	r0, r8, r0
    11e4:	c5010000 	strgt	r0, [r1, #-0]
    11e8:	00001231 	andeq	r1, r0, r1, lsr r2
    11ec:	0002d820 	andeq	sp, r2, r0, lsr #16
    11f0:	00123300 	andseq	r3, r2, r0, lsl #6
    11f4:	02cf2100 	sbceq	r2, pc, #0, 2
    11f8:	03060000 	movweq	r0, #24576	; 0x6000
    11fc:	0000a2e8 	andeq	sl, r0, r8, ror #5
    1200:	899c229f 	ldmibhi	ip, {r0, r1, r2, r3, r4, r7, r9, sp}
    1204:	00480000 	subeq	r0, r8, r0
    1208:	e1240000 	teq	r4, r0
    120c:	51000002 	tstpl	r0, r2
    1210:	26000012 			; <UNDEFINED> instruction: 0x26000012
    1214:	00000206 	andeq	r0, r0, r6, lsl #4
    1218:	000089a8 	andeq	r8, r0, r8, lsr #19
    121c:	00000014 	andeq	r0, r0, r4, lsl r0
    1220:	16215802 	strtne	r5, [r1], -r2, lsl #16
    1224:	06000002 	streq	r0, [r0], -r2
    1228:	00a2e803 	adceq	lr, r2, r3, lsl #16
    122c:	00009f00 	andeq	r9, r0, r0, lsl #30
    1230:	87cc2a00 	strbhi	r2, [ip, r0, lsl #20]
    1234:	17610000 	strbne	r0, [r1, -r0]!
    1238:	ec2b0000 	stc	0, cr0, [fp], #-0
    123c:	68000089 	stmdavs	r0, {r0, r3, r7}
    1240:	4d000017 	stcmi	0, cr0, [r0, #-92]	; 0xffffffa4
    1244:	2c000012 	stccs	0, cr0, [r0], {18}
    1248:	44015001 	strmi	r5, [r1], #-1
    124c:	89f02a00 	ldmibhi	r0!, {r9, fp, sp}^
    1250:	17610000 	strbne	r0, [r1, -r0]!
    1254:	16000000 	strne	r0, [r0], -r0
    1258:	0000027f 	andeq	r0, r0, pc, ror r2
    125c:	8e039902 	cdphi	9, 0, cr9, cr3, cr2, {0}
    1260:	15000012 	strne	r0, [r0, #-18]
    1264:	99020063 	stmdbls	r2, {r0, r1, r5, r6}
    1268:	00000200 	andeq	r0, r0, r0, lsl #4
    126c:	00001918 	andeq	r1, r0, r8, lsl r9
    1270:	37990200 	ldrcc	r0, [r9, r0, lsl #4]
    1274:	1c000000 	stcne	0, cr0, [r0], {-0}
    1278:	000001a3 	andeq	r0, r0, r3, lsr #3
    127c:	0000128e 	andeq	r1, r0, lr, lsl #5
    1280:	0000027f 	andeq	r0, r0, pc, ror r2
    1284:	02006519 	andeq	r6, r0, #104857600	; 0x6400000
    1288:	000119a2 	andeq	r1, r1, r2, lsr #19
    128c:	9c070000 	stcls	0, cr0, [r7], {-0}
    1290:	31000000 	mrscc	r0, (UNDEF: 0)
    1294:	00000110 	andeq	r0, r0, r0, lsl r1
    1298:	8a04ca01 	bhi	133aa4 <__bss_end__+0x12738c>
    129c:	02240000 	eoreq	r0, r4, #0
    12a0:	9c010000 	stcls	0, cr0, [r1], {-0}
    12a4:	0000155b 	andeq	r1, r0, fp, asr r5
    12a8:	0012571f 	andseq	r5, r2, pc, lsl r7
    12ac:	008a4800 	addeq	r4, sl, r0, lsl #16
    12b0:	00018800 	andeq	r8, r1, r0, lsl #16
    12b4:	c6d20100 	ldrbgt	r0, [r2], r0, lsl #2
    12b8:	32000014 	andcc	r0, r0, #20
    12bc:	0000126c 	andeq	r1, r0, ip, ror #4
    12c0:	12632101 	rsbne	r2, r3, #1073741824	; 0x40000000
    12c4:	03060000 	movweq	r0, #24576	; 0x6000
    12c8:	0000a2e8 	andeq	sl, r0, r8, ror #5
    12cc:	8a48229f 	bhi	1209d50 <__bss_end__+0x11fd638>
    12d0:	01880000 	orreq	r0, r8, r0
    12d4:	84240000 	strthi	r0, [r4], #-0
    12d8:	73000012 	movwvc	r0, #18
    12dc:	27000012 	smladcs	r0, r2, r0, r0
    12e0:	00001277 	andeq	r1, r0, r7, ror r2
    12e4:	9e380305 	cdpls	3, 3, cr0, cr8, cr5, {0}
    12e8:	e61f0000 	ldr	r0, [pc], -r0
    12ec:	90000001 	andls	r0, r0, r1
    12f0:	0800008a 	stmdaeq	r0, {r1, r3, r7}
    12f4:	02000000 	andeq	r0, r0, #0
    12f8:	00130a9f 	mulseq	r3, pc, sl	; <UNPREDICTABLE>
    12fc:	01f62100 	mvnseq	r2, r0, lsl #2
    1300:	03060000 	movweq	r0, #24576	; 0x6000
    1304:	0000a2e8 	andeq	sl, r0, r8, ror #5
    1308:	061f009f 			; <UNDEFINED> instruction: 0x061f009f
    130c:	bc000002 	stclt	0, cr0, [r0], {2}
    1310:	1c00008a 	stcne	0, cr0, [r0], {138}	; 0x8a
    1314:	02000000 	andeq	r0, r0, #0
    1318:	00132aa0 	andseq	r2, r3, r0, lsr #21
    131c:	02162100 	andseq	r2, r6, #0, 2
    1320:	03060000 	movweq	r0, #24576	; 0x6000
    1324:	0000a2e8 	andeq	sl, r0, r8, ror #5
    1328:	a51f009f 	ldrge	r0, [pc, #-159]	; 1291 <_start-0x6d6f>
    132c:	fc000002 	stc2	0, cr0, [r0], {2}
    1330:	1800008a 	stmdane	r0, {r1, r3, r7}
    1334:	02000000 	andeq	r0, r0, #0
    1338:	00134aa1 	andseq	r4, r3, r1, lsr #21
    133c:	02b52100 	adcseq	r2, r5, #0, 2
    1340:	03060000 	movweq	r0, #24576	; 0x6000
    1344:	0000a2e8 	andeq	sl, r0, r8, ror #5
    1348:	7128009f 			; <UNDEFINED> instruction: 0x7128009f
    134c:	38000002 	stmdacc	r0, {r1}
    1350:	4800008b 	stmdami	r0, {r0, r1, r3, r7}
    1354:	02000000 	andeq	r0, r0, #0
    1358:	0013a1a3 	andseq	sl, r3, r3, lsr #3
    135c:	028a2100 	addeq	r2, sl, #0, 2
    1360:	f2060000 	vhadd.s8	d0, d6, d0
    1364:	000012d6 	ldrdeq	r1, [r0], -r6
    1368:	02812100 	addeq	r2, r1, #0, 2
    136c:	03060000 	movweq	r0, #24576	; 0x6000
    1370:	0000a2e8 	andeq	sl, r0, r8, ror #5
    1374:	0048299f 	umaaleq	r2, r8, pc, r9	; <UNPREDICTABLE>
    1378:	93240000 	teqls	r4, #0
    137c:	b4000002 	strlt	r0, [r0], #-2
    1380:	26000012 			; <UNDEFINED> instruction: 0x26000012
    1384:	000001e6 	andeq	r0, r0, r6, ror #3
    1388:	00008b38 	andeq	r8, r0, r8, lsr fp
    138c:	00000014 	andeq	r0, r0, r4, lsl r0
    1390:	f6214302 			; <UNDEFINED> instruction: 0xf6214302
    1394:	06000001 	streq	r0, [r0], -r1
    1398:	00a2e803 	adceq	lr, r2, r3, lsl #16
    139c:	00009f00 	andeq	r9, r0, r0, lsl #30
    13a0:	8a5c2b00 	bhi	170bfa8 <__bss_end__+0x16ff890>
    13a4:	17790000 	ldrbne	r0, [r9, -r0]!
    13a8:	13c00000 	bicne	r0, r0, #0
    13ac:	012c0000 	teqeq	ip, r0
    13b0:	00750252 	rsbseq	r0, r5, r2, asr r2
    13b4:	0151012c 	cmpeq	r1, ip, lsr #2
    13b8:	50012c30 	andpl	r2, r1, r0, lsr ip
    13bc:	00147402 	andseq	r7, r4, r2, lsl #8
    13c0:	008aa42a 	addeq	sl, sl, sl, lsr #8
    13c4:	00171e00 	andseq	r1, r7, r0, lsl #28
    13c8:	8ab82b00 	bhi	fee0bfd0 <__bss_end__+0xfedff8b8>
    13cc:	17250000 	strne	r0, [r5, -r0]!
    13d0:	13f80000 	mvnsne	r0, #0
    13d4:	012c0000 	teqeq	ip, r0
    13d8:	9f080253 	svcls	0x00080253
    13dc:	0552012c 	ldrbeq	r0, [r2, #-300]	; 0x12c
    13e0:	009e3803 	addseq	r3, lr, r3, lsl #16
    13e4:	51012c00 	tstpl	r1, r0, lsl #24
    13e8:	9e900305 	cdpls	3, 9, cr0, cr0, cr5, {0}
    13ec:	012c0000 	teqeq	ip, r0
    13f0:	68030550 	stmdavs	r3, {r4, r6, r8, sl}
    13f4:	0000009f 	muleq	r0, pc, r0	; <UNPREDICTABLE>
    13f8:	008abc2a 	addeq	fp, sl, sl, lsr #24
    13fc:	00173b00 	andseq	r3, r7, r0, lsl #22
    1400:	8ae42a00 	bhi	ff90bc08 <__bss_end__+0xff8ff4f0>
    1404:	171e0000 	ldrne	r0, [lr, -r0]
    1408:	f82b0000 			; <UNDEFINED> instruction: 0xf82b0000
    140c:	2500008a 	strcs	r0, [r0, #-138]	; 0x8a
    1410:	39000017 	stmdbcc	r0, {r0, r1, r2, r4}
    1414:	2c000014 	stccs	0, cr0, [r0], {20}
    1418:	08025301 	stmdaeq	r2, {r0, r8, r9, ip, lr}
    141c:	52012ca0 	andpl	r2, r1, #160, 24	; 0xa000
    1420:	9e380305 	cdpls	3, 3, cr0, cr8, cr5, {0}
    1424:	012c0000 	teqeq	ip, r0
    1428:	90030551 	andls	r0, r3, r1, asr r5
    142c:	2c00009e 	stccs	0, cr0, [r0], {158}	; 0x9e
    1430:	03055001 	movweq	r5, #20481	; 0x5001
    1434:	00009f84 	andeq	r9, r0, r4, lsl #31
    1438:	8afc2a00 	bhi	fff0bc40 <__bss_end__+0xffeff528>
    143c:	173b0000 	ldrne	r0, [fp, -r0]!
    1440:	202a0000 	eorcs	r0, sl, r0
    1444:	1e00008b 	cdpne	0, 0, cr0, cr0, cr11, {4}
    1448:	2b000017 	blcs	14ac <_start-0x6b54>
    144c:	00008b34 	andeq	r8, r0, r4, lsr fp
    1450:	00001725 	andeq	r1, r0, r5, lsr #14
    1454:	0000147a 	andeq	r1, r0, sl, ror r4
    1458:	0253012c 	subseq	r0, r3, #44, 2
    145c:	012ca108 	teqeq	ip, r8, lsl #2
    1460:	38030552 	stmdacc	r3, {r1, r4, r6, r8, sl}
    1464:	2c00009e 	stccs	0, cr0, [r0], {158}	; 0x9e
    1468:	03055101 	movweq	r5, #20737	; 0x5101
    146c:	00009e90 	muleq	r0, r0, lr
    1470:	0550012c 	ldrbeq	r0, [r0, #-300]	; 0x12c
    1474:	009fa003 	addseq	sl, pc, r3
    1478:	382a0000 	stmdacc	sl!, {}	; <UNPREDICTABLE>
    147c:	3b00008b 	blcc	16b0 <_start-0x6950>
    1480:	2a000017 	bcs	14e4 <_start-0x6b1c>
    1484:	00008bb8 			; <UNDEFINED> instruction: 0x00008bb8
    1488:	0000171e 	andeq	r1, r0, lr, lsl r7
    148c:	008bcc2b 	addeq	ip, fp, fp, lsr #24
    1490:	00172500 	andseq	r2, r7, r0, lsl #10
    1494:	0014bb00 	andseq	fp, r4, r0, lsl #22
    1498:	53012c00 	movwpl	r2, #7168	; 0x1c00
    149c:	2ca30802 	stccs	8, cr0, [r3], #8
    14a0:	03055201 	movweq	r5, #20993	; 0x5201
    14a4:	00009e38 	andeq	r9, r0, r8, lsr lr
    14a8:	0551012c 	ldrbeq	r0, [r1, #-300]	; 0x12c
    14ac:	009e9003 	addseq	r9, lr, r3
    14b0:	50012c00 	andpl	r2, r1, r0, lsl #24
    14b4:	9fc40305 	svcls	0x00c40305
    14b8:	2a000000 	bcs	14c0 <_start-0x6b40>
    14bc:	00008bd0 	ldrdeq	r8, [r0], -r0
    14c0:	0000173b 	andeq	r1, r0, fp, lsr r7
    14c4:	d4250000 	strtle	r0, [r5], #-0
    14c8:	0800008b 	stmdaeq	r0, {r0, r1, r3, r7}
    14cc:	df000000 	svcle	0x00000000
    14d0:	33000014 	movwcc	r0, #20
    14d4:	01006e69 	tsteq	r0, r9, ror #28
    14d8:	000037d5 	ldrdeq	r3, [r0], -r5
    14dc:	2a000100 	bcs	18e4 <_start-0x671c>
    14e0:	00008a0c 	andeq	r8, r0, ip, lsl #20
    14e4:	00001798 	muleq	r0, r8, r7
    14e8:	008a102a 	addeq	r1, sl, sl, lsr #32
    14ec:	00179f00 	andseq	r9, r7, r0, lsl #30
    14f0:	8a182b00 	bhi	60c0f8 <__bss_end__+0x5ff9e0>
    14f4:	17a60000 	strne	r0, [r6, r0]!
    14f8:	15040000 	strne	r0, [r4, #-0]
    14fc:	012c0000 	teqeq	ip, r0
    1500:	00450150 	subeq	r0, r5, r0, asr r1
    1504:	008a202b 	addeq	r2, sl, fp, lsr #32
    1508:	0017b700 	andseq	fp, r7, r0, lsl #14
    150c:	00151700 	andseq	r1, r5, r0, lsl #14
    1510:	50012c00 	andpl	r2, r1, r0, lsl #24
    1514:	2b004401 	blcs	12520 <__bss_end__+0x5e08>
    1518:	00008a48 	andeq	r8, r0, r8, asr #20
    151c:	000017c8 	andeq	r1, r0, r8, asr #15
    1520:	0000152a 	andeq	r1, r0, sl, lsr #10
    1524:	0150012c 	cmpeq	r0, ip, lsr #2
    1528:	d42a0044 	strtle	r0, [sl], #-68	; 0x44
    152c:	d900008b 	stmdble	r0, {r0, r1, r3, r7}
    1530:	2b000017 	blcs	1594 <_start-0x6a6c>
    1534:	00008bec 	andeq	r8, r0, ip, ror #23
    1538:	00000426 	andeq	r0, r0, r6, lsr #8
    153c:	00001551 	andeq	r1, r0, r1, asr r5
    1540:	0252012c 	subseq	r0, r2, #44, 2
    1544:	012cff08 	msreq	LR_mon, r8
    1548:	2c440151 	stfcse	f0, [r4], {81}	; 0x51
    154c:	45015001 	strmi	r5, [r1, #-1]
    1550:	8bf02a00 	blhi	ffc0bd58 <__bss_end__+0xffbff640>
    1554:	173b0000 	ldrne	r0, [fp, -r0]!
    1558:	34000000 	strcc	r0, [r0], #-0
    155c:	00000231 	andeq	r0, r0, r1, lsr r2
    1560:	156a0f01 	strbne	r0, [sl, #-3841]!	; 0xf01
    1564:	00000000 	andeq	r0, r0, r0
    1568:	04062020 	streq	r2, [r6], #-32
    156c:	00000194 	muleq	r0, r4, r1
    1570:	00032734 	andeq	r2, r3, r4, lsr r7
    1574:	6a100100 	bvs	40197c <__bss_end__+0x3f5264>
    1578:	1c000015 	stcne	0, cr0, [r0], {21}
    157c:	34202000 	strtcc	r2, [r0], #-0
    1580:	0000000f 	andeq	r0, r0, pc
    1584:	156a1101 	strbne	r1, [sl, #-257]!	; 0x101
    1588:	00280000 	eoreq	r0, r8, r0
    158c:	5f342020 	svcpl	0x00342020
    1590:	01000001 	tsteq	r0, r1
    1594:	00156a13 	andseq	r6, r5, r3, lsl sl
    1598:	20000000 	andcs	r0, r0, r0
    159c:	01673420 	cmneq	r7, r0, lsr #8
    15a0:	14010000 	strne	r0, [r1], #-0
    15a4:	0000156a 	andeq	r1, r0, sl, ror #10
    15a8:	20200004 	eorcs	r0, r0, r4
    15ac:	00000734 	andeq	r0, r0, r4, lsr r7
    15b0:	6a150100 	bvs	5419b8 <__bss_end__+0x5352a0>
    15b4:	08000015 	stmdaeq	r0, {r0, r2, r4}
    15b8:	34202000 	strtcc	r2, [r0], #-0
    15bc:	0000016f 	andeq	r0, r0, pc, ror #2
    15c0:	156a1601 	strbne	r1, [sl, #-1537]!	; 0x601
    15c4:	000c0000 	andeq	r0, ip, r0
    15c8:	77342020 	ldrvc	r2, [r4, -r0, lsr #32]!
    15cc:	01000001 	tsteq	r0, r1
    15d0:	00156a17 	andseq	r6, r5, r7, lsl sl
    15d4:	20001000 	andcs	r1, r0, r0
    15d8:	017f3420 	cmneq	pc, r0, lsr #8
    15dc:	18010000 	stmdane	r1, {}	; <UNPREDICTABLE>
    15e0:	0000156a 	andeq	r1, r0, sl, ror #10
    15e4:	20200014 	eorcs	r0, r0, r4, lsl r0
    15e8:	0002e734 	andeq	lr, r2, r4, lsr r7
    15ec:	f71a0100 			; <UNDEFINED> instruction: 0xf71a0100
    15f0:	1c000015 	stcne	0, cr0, [r0], {21}
    15f4:	07202000 	streq	r2, [r0, -r0]!
    15f8:	0000156a 	andeq	r1, r0, sl, ror #10
    15fc:	0000d134 	andeq	sp, r0, r4, lsr r1
    1600:	6a1b0100 	bvs	6c1a08 <__bss_end__+0x6b52f0>
    1604:	20000015 	andcs	r0, r0, r5, lsl r0
    1608:	34202000 	strtcc	r2, [r0], #-0
    160c:	00000028 	andeq	r0, r0, r8, lsr #32
    1610:	161a1d01 	ldrne	r1, [sl], -r1, lsl #26
    1614:	00280000 	eoreq	r0, r8, r0
    1618:	6a072020 	bvs	1c96a0 <__bss_end__+0x1bcf88>
    161c:	34000015 	strcc	r0, [r0], #-21
    1620:	0000023c 	andeq	r0, r0, ip, lsr r2
    1624:	156a1e01 	strbne	r1, [sl, #-3585]!	; 0xe01
    1628:	002c0000 	eoreq	r0, ip, r0
    162c:	02342020 	eorseq	r2, r4, #32
    1630:	01000001 	tsteq	r0, r1
    1634:	00163d20 	andseq	r3, r6, r0, lsr #26
    1638:	20003400 	andcs	r3, r0, r0, lsl #8
    163c:	156a0720 	strbne	r0, [sl, #-1824]!	; 0x720
    1640:	09340000 	ldmdbeq	r4!, {}	; <UNPREDICTABLE>
    1644:	01000001 	tsteq	r0, r1
    1648:	00156a21 	andseq	r6, r5, r1, lsr #20
    164c:	20003800 	andcs	r3, r0, r0, lsl #16
    1650:	78723320 	ldmdavc	r2!, {r5, r8, r9, ip, sp}^
    1654:	5c230100 	stfpls	f0, [r3], #-0
    1658:	14000016 	strne	r0, [r0], #-22
    165c:	00002507 	andeq	r2, r0, r7, lsl #10
    1660:	78743300 	ldmdavc	r4!, {r8, r9, ip, sp}^
    1664:	6c240100 	stfvss	f0, [r4], #-0
    1668:	15000016 	strne	r0, [r0, #-22]
    166c:	00002507 	andeq	r2, r0, r7, lsl #10
    1670:	01cc3500 	biceq	r3, ip, r0, lsl #10
    1674:	25010000 	strcs	r0, [r1, #-0]
    1678:	00000199 	muleq	r0, r9, r1
    167c:	a2e80305 	rscge	r0, r8, #335544320	; 0x14000000
    1680:	75360000 	ldrvc	r0, [r6, #-0]!
    1684:	db2f0100 	blle	bc1a8c <__bss_end__+0xbb5374>
    1688:	05000001 	streq	r0, [r0, #-1]
    168c:	00a2d803 	adceq	sp, r2, r3, lsl #16
    1690:	00aa3500 	adceq	r3, sl, r0, lsl #10
    1694:	b9010000 	stmdblt	r1, {}	; <UNPREDICTABLE>
    1698:	00000194 	muleq	r0, r4, r1
    169c:	c3040305 	movwgt	r0, #17157	; 0x4305
    16a0:	87350000 	ldrhi	r0, [r5, -r0]!
    16a4:	01000002 	tsteq	r0, r2
    16a8:	0016b3ba 			; <UNDEFINED> instruction: 0x0016b3ba
    16ac:	00030500 	andeq	r0, r3, r0, lsl #10
    16b0:	110000c3 	smlabtne	r0, r3, r0, r0
    16b4:	00000025 	andeq	r0, r0, r5, lsr #32
    16b8:	00044a37 	andeq	r4, r4, r7, lsr sl
    16bc:	ac800500 	cfstr32ge	mvfx0, [r0], {0}
    16c0:	05000000 	streq	r0, [r0, #-0]
    16c4:	00c71003 	sbceq	r1, r7, r3
    16c8:	03373700 	teqeq	r7, #0, 14
    16cc:	26010000 	strcs	r0, [r1], -r0
    16d0:	000016b3 			; <UNDEFINED> instruction: 0x000016b3
    16d4:	c30c0305 	movwgt	r0, #49925	; 0xc305
    16d8:	b1370000 	teqlt	r7, r0
    16dc:	01000003 	tsteq	r0, r3
    16e0:	0016b327 	andseq	fp, r6, r7, lsr #6
    16e4:	08030500 	stmdaeq	r3, {r8, sl}
    16e8:	370000c3 	strcc	r0, [r0, -r3, asr #1]
    16ec:	00000187 	andeq	r0, r0, r7, lsl #3
    16f0:	01949f01 	orrseq	r9, r4, r1, lsl #30
    16f4:	03050000 	movweq	r0, #20480	; 0x5000
    16f8:	0000a2d4 	ldrdeq	sl, [r0], -r4
    16fc:	0002bc37 	andeq	fp, r2, r7, lsr ip
    1700:	94a00100 	strtls	r0, [r0], #256	; 0x100
    1704:	05000001 	streq	r0, [r0, #-1]
    1708:	009d8003 	addseq	r8, sp, r3
    170c:	012a3700 	teqeq	sl, r0, lsl #14
    1710:	a1010000 	mrsge	r0, (UNDEF: 1)
    1714:	00000194 	muleq	r0, r4, r1
    1718:	c2fc0305 	rscsgt	r0, ip, #335544320	; 0x14000000
    171c:	50380000 	eorspl	r0, r8, r0
    1720:	06000001 	streq	r0, [r0], -r1
    1724:	0537391e 	ldreq	r3, [r7, #-2334]!	; 0x91e
    1728:	29060000 	stmdbcs	r6, {}	; <UNPREDICTABLE>
    172c:	00000025 	andeq	r0, r0, r5, lsr #32
    1730:	0000173b 	andeq	r1, r0, fp, lsr r7
    1734:	0000913a 	andeq	r9, r0, sl, lsr r1
    1738:	38003b00 	stmdacc	r0, {r8, r9, fp, ip, sp}
    173c:	00000243 	andeq	r0, r0, r3, asr #4
    1740:	0a3c6606 	beq	f1af60 <__bss_end__+0xf0e848>
    1744:	06000003 	streq	r0, [r0], -r3
    1748:	00175350 	andseq	r5, r7, r0, asr r3
    174c:	00373a00 	eorseq	r3, r7, r0, lsl #20
    1750:	38000000 	stmdacc	r0, {}	; <UNPREDICTABLE>
    1754:	000002a3 	andeq	r0, r0, r3, lsr #5
    1758:	86383107 	ldrthi	r3, [r8], -r7, lsl #2
    175c:	07000004 	streq	r0, [r0, -r4]
    1760:	00f63832 	rscseq	r3, r6, r2, lsr r8
    1764:	8a060000 	bhi	18176c <__bss_end__+0x175054>
    1768:	0001923c 	andeq	r9, r1, ip, lsr r2
    176c:	795a0800 	ldmdbvc	sl, {fp}^
    1770:	3a000017 	bcc	17d4 <_start-0x682c>
    1774:	00000037 	andeq	r0, r0, r7, lsr r0
    1778:	04213900 	strteq	r3, [r1], #-2304	; 0x900
    177c:	1b090000 	blne	241784 <__bss_end__+0x23506c>
    1780:	00000088 	andeq	r0, r0, r8, lsl #1
    1784:	00001798 	muleq	r0, r8, r7
    1788:	0000883a 	andeq	r8, r0, sl, lsr r8
    178c:	00253a00 	eoreq	r3, r5, r0, lsl #20
    1790:	2c3a0000 	ldccs	0, cr0, [sl], #-0
    1794:	00000000 	andeq	r0, r0, r0
    1798:	00005038 	andeq	r5, r0, r8, lsr r0
    179c:	383a0600 	ldmdacc	sl!, {r9, sl}
    17a0:	00000295 	muleq	r0, r5, r2
    17a4:	283c3307 	ldmdacs	ip!, {r0, r1, r2, r8, r9, ip, sp}
    17a8:	08000004 	stmdaeq	r0, {r2}
    17ac:	0017b71d 	andseq	fp, r7, sp, lsl r7
    17b0:	00373a00 	eorseq	r3, r7, r0, lsl #20
    17b4:	3c000000 	stccc	0, cr0, [r0], {-0}
    17b8:	000003a2 	andeq	r0, r0, r2, lsr #7
    17bc:	17c81c08 	strbne	r1, [r8, r8, lsl #24]
    17c0:	373a0000 	ldrcc	r0, [sl, -r0]!
    17c4:	00000000 	andeq	r0, r0, r0
    17c8:	0004623c 	andeq	r6, r4, ip, lsr r2
    17cc:	d9520800 	ldmdble	r2, {fp}^
    17d0:	3a000017 	bcc	1834 <_start-0x67cc>
    17d4:	00000037 	andeq	r0, r0, r7, lsr r0
    17d8:	043d3800 	ldrteq	r3, [sp], #-2048	; 0x800
    17dc:	8e060000 	cdphi	0, 0, cr0, cr6, cr0, {0}
    17e0:	0000db00 	andeq	sp, r0, r0, lsl #22
    17e4:	0f000400 	svceq	0x00000400
    17e8:	04000003 	streq	r0, [r0], #-3
    17ec:	00034501 	andeq	r4, r3, r1, lsl #10
    17f0:	04c50100 	strbeq	r0, [r5], #256	; 0x100
    17f4:	04d30000 	ldrbeq	r0, [r3], #0
    17f8:	8c280000 	stchi	0, cr0, [r8], #-0
    17fc:	00200000 	eoreq	r0, r0, r0
    1800:	04820000 	streq	r0, [r2], #0
    1804:	01020000 	mrseq	r0, (UNDEF: 2)
    1808:	0002db06 	andeq	sp, r2, r6, lsl #22
    180c:	08010200 	stmdaeq	r1, {r9}
    1810:	000002d9 	ldrdeq	r0, [r0], -r9
    1814:	ee050202 	cdp	2, 0, cr0, cr5, cr2, {0}
    1818:	02000002 	andeq	r0, r0, #2
    181c:	01b90702 			; <UNDEFINED> instruction: 0x01b90702
    1820:	04030000 	streq	r0, [r3], #-0
    1824:	746e6905 	strbtvc	r6, [lr], #-2309	; 0x905
    1828:	07040200 	streq	r0, [r4, -r0, lsl #4]
    182c:	0000006f 	andeq	r0, r0, pc, rrx
    1830:	9c050802 	stcls	8, cr0, [r5], {2}
    1834:	02000000 	andeq	r0, r0, #0
    1838:	00650708 	rsbeq	r0, r5, r8, lsl #14
    183c:	04020000 	streq	r0, [r2], #-0
    1840:	0000a105 	andeq	sl, r0, r5, lsl #2
    1844:	07040200 	streq	r0, [r4, -r0, lsl #4]
    1848:	00000255 	andeq	r0, r0, r5, asr r2
    184c:	04020404 	streq	r0, [r2], #-1028	; 0x404
    1850:	00006a07 	andeq	r6, r0, r7, lsl #20
    1854:	7a040500 	bvc	102c5c <__bss_end__+0xf6544>
    1858:	02000000 	andeq	r0, r0, #0
    185c:	02e20801 	rsceq	r0, r2, #65536	; 0x10000
    1860:	00060000 	andeq	r0, r6, r0
    1864:	02000000 	andeq	r0, r0, #0
    1868:	000048d4 	ldrdeq	r4, [r0], -r4	; <UNPREDICTABLE>
    186c:	04210700 	strteq	r0, [r1], #-1792	; 0x700
    1870:	1b030000 	blne	c1878 <__bss_end__+0xb5160>
    1874:	0000006b 	andeq	r0, r0, fp, rrx
    1878:	00008c28 	andeq	r8, r0, r8, lsr #24
    187c:	00000020 	andeq	r0, r0, r0, lsr #32
    1880:	5f089c01 	svcpl	0x00089c01
    1884:	03010070 	movweq	r0, #4208	; 0x1070
    1888:	0000006b 	andeq	r0, r0, fp, rrx
    188c:	63085001 	movwvs	r5, #32769	; 0x8001
    1890:	41030100 	mrsmi	r0, (UNDEF: 19)
    1894:	01000000 	mrseq	r0, (UNDEF: 0)
    1898:	006e0951 	rsbeq	r0, lr, r1, asr r9
    189c:	00810301 	addeq	r0, r1, r1, lsl #6
    18a0:	12d60000 	sbcsne	r0, r6, #0
    18a4:	700a0000 	andvc	r0, sl, r0
    18a8:	74040100 	strvc	r0, [r4], #-256	; 0x100
    18ac:	f7000000 			; <UNDEFINED> instruction: 0xf7000000
    18b0:	0b000012 	bleq	1900 <_start-0x6700>
    18b4:	04010065 	streq	r0, [r1], #-101	; 0x65
    18b8:	00000074 	andeq	r0, r0, r4, ror r0
    18bc:	00005201 	andeq	r5, r0, r1, lsl #4
    18c0:	00000191 	muleq	r0, r1, r1
    18c4:	03ac0004 			; <UNDEFINED> instruction: 0x03ac0004
    18c8:	01040000 	mrseq	r0, (UNDEF: 4)
    18cc:	00000345 	andeq	r0, r0, r5, asr #6
    18d0:	00052601 	andeq	r2, r5, r1, lsl #12
    18d4:	0004d300 	andeq	sp, r4, r0, lsl #6
    18d8:	008c4800 	addeq	r4, ip, r0, lsl #16
    18dc:	00005800 	andeq	r5, r0, r0, lsl #16
    18e0:	00057200 	andeq	r7, r5, r0, lsl #4
    18e4:	05170200 	ldreq	r0, [r7, #-512]	; 0x200
    18e8:	28020000 	stmdacs	r2, {}	; <UNPREDICTABLE>
    18ec:	00000030 	andeq	r0, r0, r0, lsr r0
    18f0:	00053e03 	andeq	r3, r5, r3, lsl #28
    18f4:	00030400 	andeq	r0, r3, r0, lsl #8
    18f8:	00000047 	andeq	r0, r0, r7, asr #32
    18fc:	00054d04 	andeq	r4, r5, r4, lsl #26
    1900:	00004700 	andeq	r4, r0, r0, lsl #14
    1904:	05000000 	streq	r0, [r0, #-0]
    1908:	05400204 	strbeq	r0, [r0, #-516]	; 0x204
    190c:	62020000 	andvs	r0, r2, #0
    1910:	00000025 	andeq	r0, r0, r5, lsr #32
    1914:	69050406 	stmdbvs	r5, {r1, r2, sl}
    1918:	0700746e 	streq	r7, [r0, -lr, ror #8]
    191c:	006f0704 	rsbeq	r0, pc, r4, lsl #14
    1920:	01070000 	mrseq	r0, (UNDEF: 7)
    1924:	0002db06 	andeq	sp, r2, r6, lsl #22
    1928:	05020700 	streq	r0, [r2, #-1792]	; 0x700
    192c:	000002ee 	andeq	r0, r0, lr, ror #5
    1930:	a1050407 	tstge	r5, r7, lsl #8
    1934:	07000000 	streq	r0, [r0, -r0]
    1938:	009c0508 	addseq	r0, ip, r8, lsl #10
    193c:	01070000 	mrseq	r0, (UNDEF: 7)
    1940:	0002d908 	andeq	sp, r2, r8, lsl #18
    1944:	07020700 	streq	r0, [r2, -r0, lsl #14]
    1948:	000001b9 			; <UNDEFINED> instruction: 0x000001b9
    194c:	6a070407 	bvs	1c2970 <__bss_end__+0x1b6258>
    1950:	07000000 	streq	r0, [r0, -r0]
    1954:	00650708 	rsbeq	r0, r5, r8, lsl #14
    1958:	04070000 	streq	r0, [r7], #-0
    195c:	00025507 	andeq	r5, r2, r7, lsl #10
    1960:	a7040800 	strge	r0, [r4, -r0, lsl #16]
    1964:	07000000 	streq	r0, [r0, -r0]
    1968:	02e20801 	rsceq	r0, r2, #65536	; 0x10000
    196c:	04080000 	streq	r0, [r8], #-0
    1970:	000000b4 	strheq	r0, [r0], -r4
    1974:	0000a709 	andeq	sl, r0, r9, lsl #14
    1978:	05370a00 	ldreq	r0, [r7, #-2560]!	; 0xa00
    197c:	06010000 	streq	r0, [r1], -r0
    1980:	00000054 	andeq	r0, r0, r4, asr r0
    1984:	00008c48 	andeq	r8, r0, r8, asr #24
    1988:	00000058 	andeq	r0, r0, r8, asr r0
    198c:	01439c01 	cmpeq	r3, r1, lsl #24
    1990:	660b0000 	strvs	r0, [fp], -r0
    1994:	0100746d 	tsteq	r0, sp, ror #8
    1998:	0000ae06 	andeq	sl, r0, r6, lsl #28
    199c:	70910200 	addsvc	r0, r1, r0, lsl #4
    19a0:	75620d0c 	strbvc	r0, [r2, #-3340]!	; 0xd0c
    19a4:	08010066 	stmdaeq	r1, {r1, r2, r5, r6}
    19a8:	00000143 	andeq	r0, r0, r3, asr #2
    19ac:	c3100305 	tstgt	r0, #335544320	; 0x14000000
    19b0:	480e0000 	stmdami	lr, {}	; <UNPREDICTABLE>
    19b4:	01000005 	tsteq	r0, r5
    19b8:	00004909 	andeq	r4, r0, r9, lsl #18
    19bc:	5c910200 	lfmpl	f0, 4, [r1], {0}
    19c0:	007a730f 	rsbseq	r7, sl, pc, lsl #6
    19c4:	00540c01 	subseq	r0, r4, r1, lsl #24
    19c8:	13220000 	teqne	r2, #0
    19cc:	70100000 	andsvc	r0, r0, r0
    19d0:	7400008c 	strvc	r0, [r0], #-140	; 0x8c
    19d4:	36000001 	strcc	r0, [r0], -r1
    19d8:	11000001 	tstne	r0, r1
    19dc:	91025301 	tstls	r2, r1, lsl #6
    19e0:	5201114c 	andpl	r1, r1, #76, 2
    19e4:	06489103 	strbeq	r9, [r8], -r3, lsl #2
    19e8:	03510111 	cmpeq	r1, #1073741828	; 0x40000004
    19ec:	1104000a 	tstne	r4, sl
    19f0:	74025001 	strvc	r5, [r2], #-1
    19f4:	84120000 	ldrhi	r0, [r2], #-0
    19f8:	1100008c 	smlabbne	r0, ip, r0, r0
    19fc:	74025001 	strvc	r5, [r2], #-1
    1a00:	13000000 	movwne	r0, #0
    1a04:	000000a7 	andeq	r0, r0, r7, lsr #1
    1a08:	00000154 	andeq	r0, r0, r4, asr r1
    1a0c:	00009a14 	andeq	r9, r0, r4, lsl sl
    1a10:	0003ff00 	andeq	pc, r3, r0, lsl #30
    1a14:	00005415 	andeq	r5, r0, r5, lsl r4
    1a18:	00016300 	andeq	r6, r1, r0, lsl #6
    1a1c:	00ae1600 	adceq	r1, lr, r0, lsl #12
    1a20:	17000000 	strne	r0, [r0, -r0]
    1a24:	000005aa 	andeq	r0, r0, sl, lsr #11
    1a28:	016e2204 	cmneq	lr, r4, lsl #4
    1a2c:	04080000 	streq	r0, [r8], #-0
    1a30:	00000154 	andeq	r0, r0, r4, asr r1
    1a34:	00053418 	andeq	r3, r5, r8, lsl r4
    1a38:	54020500 	strpl	r0, [r2], #-1280	; 0x500
    1a3c:	16000000 	strne	r0, [r0], -r0
    1a40:	000000a1 	andeq	r0, r0, r1, lsr #1
    1a44:	00005416 	andeq	r5, r0, r6, lsl r4
    1a48:	00ae1600 	adceq	r1, lr, r0, lsl #12
    1a4c:	49160000 	ldmdbmi	r6, {}	; <UNPREDICTABLE>
    1a50:	00000000 	andeq	r0, r0, r0
    1a54:	00011300 	andeq	r1, r1, r0, lsl #6
    1a58:	dd000400 	cfstrsle	mvf0, [r0, #-0]
    1a5c:	04000004 	streq	r0, [r0], #-4
    1a60:	00034501 	andeq	r4, r3, r1, lsl #10
    1a64:	05790100 	ldrbeq	r0, [r9, #-256]!	; 0x100
    1a68:	04d30000 	ldrbeq	r0, [r3], #0
    1a6c:	8ca00000 	stchi	0, cr0, [r0]
    1a70:	003c0000 	eorseq	r0, ip, r0
    1a74:	06780000 	ldrbteq	r0, [r8], -r0
    1a78:	04020000 	streq	r0, [r2], #-0
    1a7c:	746e6905 	strbtvc	r6, [lr], #-2309	; 0x905
    1a80:	07040300 	streq	r0, [r4, -r0, lsl #6]
    1a84:	0000006f 	andeq	r0, r0, pc, rrx
    1a88:	db060103 	blle	181e9c <__bss_end__+0x175784>
    1a8c:	03000002 	movweq	r0, #2
    1a90:	02ee0502 	rsceq	r0, lr, #8388608	; 0x800000
    1a94:	04030000 	streq	r0, [r3], #-0
    1a98:	0000a105 	andeq	sl, r0, r5, lsl #2
    1a9c:	05080300 	streq	r0, [r8, #-768]	; 0x300
    1aa0:	0000009c 	muleq	r0, ip, r0
    1aa4:	d9080103 	stmdble	r8, {r0, r1, r8}
    1aa8:	03000002 	movweq	r0, #2
    1aac:	01b90702 			; <UNDEFINED> instruction: 0x01b90702
    1ab0:	04030000 	streq	r0, [r3], #-0
    1ab4:	00006a07 	andeq	r6, r0, r7, lsl #20
    1ab8:	07080300 	streq	r0, [r8, -r0, lsl #6]
    1abc:	00000065 	andeq	r0, r0, r5, rrx
    1ac0:	55070403 	strpl	r0, [r7, #-1027]	; 0x403
    1ac4:	03000002 	movweq	r0, #2
    1ac8:	02e20801 	rsceq	r0, r2, #65536	; 0x10000
    1acc:	5c040000 	stcpl	0, cr0, [r4], {-0}
    1ad0:	01000005 	tsteq	r0, r5
    1ad4:	00002503 	andeq	r2, r0, r3, lsl #10
    1ad8:	008ca000 	addeq	sl, ip, r0
    1adc:	00001400 	andeq	r1, r0, r0, lsl #8
    1ae0:	b09c0100 	addslt	r0, ip, r0, lsl #2
    1ae4:	05000000 	streq	r0, [r0, #-0]
    1ae8:	03010063 	movweq	r0, #4195	; 0x1063
    1aec:	00000025 	andeq	r0, r0, r5, lsr #32
    1af0:	0000134b 	andeq	r1, r0, fp, asr #6
    1af4:	008cac06 	addeq	sl, ip, r6, lsl #24
    1af8:	00010900 	andeq	r0, r1, r0, lsl #18
    1afc:	50010700 	andpl	r0, r1, r0, lsl #14
    1b00:	00007402 	andeq	r7, r0, r2, lsl #8
    1b04:	01500800 	cmpeq	r0, r0, lsl #16
    1b08:	08010000 	stmdaeq	r1, {}	; <UNPREDICTABLE>
    1b0c:	00008cb4 			; <UNDEFINED> instruction: 0x00008cb4
    1b10:	00000018 	andeq	r0, r0, r8, lsl r0
    1b14:	88099c01 	stmdahi	r9, {r0, sl, fp, ip, pc}
    1b18:	01000005 	tsteq	r0, r5
    1b1c:	008ccc0b 	addeq	ip, ip, fp, lsl #24
    1b20:	00001000 	andeq	r1, r0, r0
    1b24:	e39c0100 	orrs	r0, ip, #0, 2
    1b28:	0a000000 	beq	1b30 <_start-0x64d0>
    1b2c:	01007066 	tsteq	r0, r6, rrx
    1b30:	0000f20b 	andeq	pc, r0, fp, lsl #4
    1b34:	00500100 	subseq	r0, r0, r0, lsl #2
    1b38:	0000250b 	andeq	r2, r0, fp, lsl #10
    1b3c:	0000f200 	andeq	pc, r0, r0, lsl #4
    1b40:	00250c00 	eoreq	r0, r5, r0, lsl #24
    1b44:	0d000000 	stceq	0, cr0, [r0, #-0]
    1b48:	0000e304 	andeq	lr, r0, r4, lsl #6
    1b4c:	056d0e00 	strbeq	r0, [sp, #-3584]!	; 0xe00
    1b50:	06010000 	streq	r0, [r1], -r0
    1b54:	000000f2 	strdeq	r0, [r0], -r2
    1b58:	9d840305 	stcls	3, cr0, [r4, #20]
    1b5c:	520f0000 	andpl	r0, pc, #0
    1b60:	02000005 	andeq	r0, r0, #5
    1b64:	002c0c3c 	eoreq	r0, ip, ip, lsr ip
    1b68:	00000000 	andeq	r0, r0, r0
    1b6c:	000000ee 	andeq	r0, r0, lr, ror #1
    1b70:	05c50004 	strbeq	r0, [r5, #4]
    1b74:	01040000 	mrseq	r0, (UNDEF: 4)
    1b78:	00000345 	andeq	r0, r0, r5, asr #6
    1b7c:	00059501 	andeq	r9, r5, r1, lsl #10
    1b80:	0004d300 	andeq	sp, r4, r0, lsl #6
    1b84:	008cdc00 	addeq	sp, ip, r0, lsl #24
    1b88:	00003400 	andeq	r3, r0, r0, lsl #8
    1b8c:	00070600 	andeq	r0, r7, r0, lsl #12
    1b90:	05040200 	streq	r0, [r4, #-512]	; 0x200
    1b94:	00746e69 	rsbseq	r6, r4, r9, ror #28
    1b98:	6f070403 	svcvs	0x00070403
    1b9c:	03000000 	movweq	r0, #0
    1ba0:	02db0601 	sbcseq	r0, fp, #1048576	; 0x100000
    1ba4:	02030000 	andeq	r0, r3, #0
    1ba8:	0002ee05 	andeq	lr, r2, r5, lsl #28
    1bac:	05040300 	streq	r0, [r4, #-768]	; 0x300
    1bb0:	000000a1 	andeq	r0, r0, r1, lsr #1
    1bb4:	9c050803 	stcls	8, cr0, [r5], {3}
    1bb8:	03000000 	movweq	r0, #0
    1bbc:	02d90801 	sbcseq	r0, r9, #65536	; 0x10000
    1bc0:	02030000 	andeq	r0, r3, #0
    1bc4:	0001b907 	andeq	fp, r1, r7, lsl #18
    1bc8:	07040300 	streq	r0, [r4, -r0, lsl #6]
    1bcc:	0000006a 	andeq	r0, r0, sl, rrx
    1bd0:	65070803 	strvs	r0, [r7, #-2051]	; 0x803
    1bd4:	03000000 	movweq	r0, #0
    1bd8:	02550704 	subseq	r0, r5, #4, 14	; 0x100000
    1bdc:	01030000 	mrseq	r0, (UNDEF: 3)
    1be0:	0002e208 	andeq	lr, r2, r8, lsl #4
    1be4:	7f040400 	svcvc	0x00040400
    1be8:	05000000 	streq	r0, [r0, #-0]
    1bec:	00000072 	andeq	r0, r0, r2, ror r0
    1bf0:	0005a106 	andeq	sl, r5, r6, lsl #2
    1bf4:	25040100 	strcs	r0, [r4, #-256]	; 0x100
    1bf8:	dc000000 	stcle	0, cr0, [r0], {-0}
    1bfc:	3400008c 	strcc	r0, [r0], #-140	; 0x8c
    1c00:	01000000 	mrseq	r0, (UNDEF: 0)
    1c04:	0000ab9c 	muleq	r0, ip, fp
    1c08:	00700700 	rsbseq	r0, r0, r0, lsl #14
    1c0c:	00790401 	rsbseq	r0, r9, r1, lsl #8
    1c10:	13690000 	cmnne	r9, #0
    1c14:	08000000 	stmdaeq	r0, {}	; <UNPREDICTABLE>
    1c18:	00000025 	andeq	r0, r0, r5, lsr #32
    1c1c:	000000ba 	strheq	r0, [r0], -sl
    1c20:	00002509 	andeq	r2, r0, r9, lsl #10
    1c24:	6d0a0000 	stcvs	0, cr0, [sl, #-0]
    1c28:	02000005 	andeq	r0, r0, #5
    1c2c:	0000c51d 	andeq	ip, r0, sp, lsl r5
    1c30:	ab040400 	blge	102c38 <__bss_end__+0xf6520>
    1c34:	08000000 	stmdaeq	r0, {}	; <UNPREDICTABLE>
    1c38:	00000025 	andeq	r0, r0, r5, lsr #32
    1c3c:	000000da 	ldrdeq	r0, [r0], -sl
    1c40:	00007909 	andeq	r7, r0, r9, lsl #18
    1c44:	aa0b0000 	bge	2c1c4c <__bss_end__+0x2b5534>
    1c48:	01000005 	tsteq	r0, r5
    1c4c:	0000eb0c 	andeq	lr, r0, ip, lsl #22
    1c50:	88030500 	stmdahi	r3, {r8, sl}
    1c54:	0400009d 	streq	r0, [r0], #-157	; 0x9d
    1c58:	0000cb04 	andeq	ip, r0, r4, lsl #22
    1c5c:	06810000 	streq	r0, [r1], r0
    1c60:	00040000 	andeq	r0, r4, r0
    1c64:	0000065e 	andeq	r0, r0, lr, asr r6
    1c68:	03450104 	movteq	r0, #20740	; 0x5104
    1c6c:	db010000 	blle	41c74 <__bss_end__+0x3555c>
    1c70:	d3000005 	movwle	r0, #5
    1c74:	10000004 	andne	r0, r0, r4
    1c78:	f800008d 			; <UNDEFINED> instruction: 0xf800008d
    1c7c:	a0000004 	andge	r0, r0, r4
    1c80:	02000007 	andeq	r0, r0, #7
    1c84:	6e690504 	cdpvs	5, 6, cr0, cr9, cr4, {0}
    1c88:	04030074 	streq	r0, [r3], #-116	; 0x74
    1c8c:	00006f07 	andeq	r6, r0, r7, lsl #30
    1c90:	06010300 	streq	r0, [r1], -r0, lsl #6
    1c94:	000002db 	ldrdeq	r0, [r0], -fp
    1c98:	ee050203 	cdp	2, 0, cr0, cr5, cr3, {0}
    1c9c:	03000002 	movweq	r0, #2
    1ca0:	00a10504 	adceq	r0, r1, r4, lsl #10
    1ca4:	08030000 	stmdaeq	r3, {}	; <UNPREDICTABLE>
    1ca8:	00009c05 	andeq	r9, r0, r5, lsl #24
    1cac:	08010300 	stmdaeq	r1, {r8, r9}
    1cb0:	000002d9 	ldrdeq	r0, [r0], -r9
    1cb4:	b9070203 	stmdblt	r7, {r0, r1, r9}
    1cb8:	03000001 	movweq	r0, #1
    1cbc:	006a0704 	rsbeq	r0, sl, r4, lsl #14
    1cc0:	08030000 	stmdaeq	r3, {}	; <UNPREDICTABLE>
    1cc4:	00006507 	andeq	r6, r0, r7, lsl #10
    1cc8:	07040300 	streq	r0, [r4, -r0, lsl #6]
    1ccc:	00000255 	andeq	r0, r0, r5, asr r2
    1cd0:	04050404 	streq	r0, [r5], #-1028	; 0x404
    1cd4:	0000007a 	andeq	r0, r0, sl, ror r0
    1cd8:	e2080103 	and	r0, r8, #-1073741824	; 0xc0000000
    1cdc:	05000002 	streq	r0, [r0, #-2]
    1ce0:	00008704 	andeq	r8, r0, r4, lsl #14
    1ce4:	007a0600 	rsbseq	r0, sl, r0, lsl #12
    1ce8:	17070000 	strne	r0, [r7, -r0]
    1cec:	02000005 	andeq	r0, r0, #5
    1cf0:	00009728 	andeq	r9, r0, r8, lsr #14
    1cf4:	053e0800 	ldreq	r0, [lr, #-2048]!	; 0x800
    1cf8:	04040000 	streq	r0, [r4], #-0
    1cfc:	0000ae00 	andeq	sl, r0, r0, lsl #28
    1d00:	054d0900 	strbeq	r0, [sp, #-2304]	; 0x900
    1d04:	00720000 	rsbseq	r0, r2, r0
    1d08:	00000000 	andeq	r0, r0, r0
    1d0c:	00054007 	andeq	r4, r5, r7
    1d10:	8c620200 	sfmhi	f0, 2, [r2], #-0
    1d14:	0a000000 	beq	1d1c <_start-0x62e4>
    1d18:	000005bd 			; <UNDEFINED> instruction: 0x000005bd
    1d1c:	00252701 	eoreq	r2, r5, r1, lsl #14
    1d20:	8d100000 	ldchi	0, cr0, [r0, #-0]
    1d24:	00140000 	andseq	r0, r4, r0
    1d28:	9c010000 	stcls	0, cr0, [r1], {-0}
    1d2c:	000000e0 	andeq	r0, r0, r0, ror #1
    1d30:	0100630b 	tsteq	r0, fp, lsl #6
    1d34:	00002527 	andeq	r2, r0, r7, lsr #10
    1d38:	00138700 	andseq	r8, r3, r0, lsl #14
    1d3c:	700c0000 	andvc	r0, ip, r0
    1d40:	01006461 	tsteq	r0, r1, ror #8
    1d44:	0000742e 	andeq	r7, r0, lr, lsr #8
    1d48:	008d2400 	addeq	r2, sp, r0, lsl #8
    1d4c:	00002c00 	andeq	r2, r0, r0, lsl #24
    1d50:	309c0100 	addscc	r0, ip, r0, lsl #2
    1d54:	0b000001 	bleq	1d60 <_start-0x62a0>
    1d58:	2e010070 	mcrcs	0, 0, r0, cr1, cr0, {3}
    1d5c:	00000074 	andeq	r0, r0, r4, ror r0
    1d60:	000013b5 			; <UNDEFINED> instruction: 0x000013b5
    1d64:	0005cd0d 	andeq	ip, r5, sp, lsl #26
    1d68:	742e0100 	strtvc	r0, [lr], #-256	; 0x100
    1d6c:	e0000000 	and	r0, r0, r0
    1d70:	0e000013 	mcreq	0, 0, r0, cr0, cr3, {0}
    1d74:	000005fb 	strdeq	r0, [r0], -fp
    1d78:	00252e01 	eoreq	r2, r5, r1, lsl #28
    1d7c:	52010000 	andpl	r0, r1, #0
    1d80:	6e656c0f 	cdpvs	12, 6, cr6, cr5, cr15, {0}
    1d84:	252f0100 	strcs	r0, [pc, #-256]!	; 1c8c <_start-0x6374>
    1d88:	01000000 	mrseq	r0, (UNDEF: 0)
    1d8c:	b50a0051 	strlt	r0, [sl, #-81]	; 0x51
    1d90:	01000005 	tsteq	r0, r5
    1d94:	00007437 	andeq	r7, r0, r7, lsr r4
    1d98:	008d5000 	addeq	r5, sp, r0
    1d9c:	00004000 	andeq	r4, r0, r0
    1da0:	9c9c0100 	ldflss	f0, [ip], {0}
    1da4:	0b000001 	bleq	1db0 <_start-0x6250>
    1da8:	00747364 	rsbseq	r7, r4, r4, ror #6
    1dac:	00743701 	rsbseq	r3, r4, r1, lsl #14
    1db0:	14010000 	strne	r0, [r1], #-0
    1db4:	6e0b0000 	cdpvs	0, 0, cr0, cr11, cr0, {0}
    1db8:	25370100 	ldrcs	r0, [r7, #-256]!	; 0x100
    1dbc:	39000000 	stmdbcc	r0, {}	; <UNPREDICTABLE>
    1dc0:	0b000014 	bleq	1e18 <_start-0x61e8>
    1dc4:	37010070 	smlsdxcc	r1, r0, r0, r0
    1dc8:	00000074 	andeq	r0, r0, r4, ror r0
    1dcc:	0000145a 	andeq	r1, r0, sl, asr r4
    1dd0:	00068c0d 	andeq	r8, r6, sp, lsl #24
    1dd4:	74370100 	ldrtvc	r0, [r7], #-256	; 0x100
    1dd8:	90000000 	andls	r0, r0, r0
    1ddc:	10000014 	andne	r0, r0, r4, lsl r0
    1de0:	006e656c 	rsbeq	r6, lr, ip, ror #10
    1de4:	00253901 	eoreq	r3, r5, r1, lsl #18
    1de8:	14ae0000 	strtne	r0, [lr], #0
    1dec:	730f0000 	movwvc	r0, #61440	; 0xf000
    1df0:	743d0100 	ldrtvc	r0, [sp], #-256	; 0x100
    1df4:	01000000 	mrseq	r0, (UNDEF: 0)
    1df8:	090a0050 	stmdbeq	sl, {r4, r6}
    1dfc:	01000006 	tsteq	r0, r6
    1e00:	00007447 	andeq	r7, r0, r7, asr #8
    1e04:	008d9000 	addeq	r9, sp, r0
    1e08:	00019c00 	andeq	r9, r1, r0, lsl #24
    1e0c:	d39c0100 	orrsle	r0, ip, #0, 2
    1e10:	0d000002 	stceq	0, cr0, [r0, #-8]
    1e14:	000005cd 	andeq	r0, r0, sp, asr #11
    1e18:	002c4701 	eoreq	r4, ip, r1, lsl #14
    1e1c:	14d50000 	ldrbne	r0, [r5], #0
    1e20:	640b0000 	strvs	r0, [fp], #-0
    1e24:	01007473 	tsteq	r0, r3, ror r4
    1e28:	00007447 	andeq	r7, r0, r7, asr #8
    1e2c:	00150300 	andseq	r0, r5, r0, lsl #6
    1e30:	006e0b00 	rsbeq	r0, lr, r0, lsl #22
    1e34:	00254701 	eoreq	r4, r5, r1, lsl #14
    1e38:	15710000 	ldrbne	r0, [r1, #-0]!
    1e3c:	760b0000 	strvc	r0, [fp], -r0
    1e40:	01006c61 	tsteq	r0, r1, ror #24
    1e44:	00002547 	andeq	r2, r0, r7, asr #10
    1e48:	00159d00 	andseq	r9, r5, r0, lsl #26
    1e4c:	05fb0d00 	ldrbeq	r0, [fp, #3328]!	; 0xd00
    1e50:	47010000 	strmi	r0, [r1, -r0]
    1e54:	00000025 	andeq	r0, r0, r5, lsr #32
    1e58:	0000161c 	andeq	r1, r0, ip, lsl r6
    1e5c:	0005d20e 	andeq	sp, r5, lr, lsl #4
    1e60:	25470100 	strbcs	r0, [r7, #-256]	; 0x100
    1e64:	02000000 	andeq	r0, r0, #0
    1e68:	620f0491 	andvs	r0, pc, #-1862270976	; 0x91000000
    1e6c:	01006675 	tsteq	r0, r5, ror r6
    1e70:	0002d34c 	andeq	sp, r2, ip, asr #6
    1e74:	a8910300 	ldmge	r1, {r8, r9}
    1e78:	0070107f 	rsbseq	r1, r0, pc, ror r0
    1e7c:	00744c01 	rsbseq	r4, r4, r1, lsl #24
    1e80:	16460000 	strbne	r0, [r6], -r0
    1e84:	75100000 	ldrvc	r0, [r0, #-0]
    1e88:	2c4d0100 	stfcse	f0, [sp], {-0}
    1e8c:	eb000000 	bl	1e94 <_start-0x616c>
    1e90:	11000016 	tstne	r0, r6, lsl r0
    1e94:	000001a3 	andeq	r0, r0, r3, lsr #3
    1e98:	000002f3 	strdeq	r0, [r0], -r3
    1e9c:	9ffc0305 	svcls	0x00fc0305
    1ea0:	fc120000 	ldc2	0, cr0, [r2], {-0}
    1ea4:	7400008d 	strvc	r0, [r0], #-141	; 0x8d
    1ea8:	61000000 	mrsvs	r0, (UNDEF: 0)
    1eac:	13000002 	movwne	r0, #2
    1eb0:	000005af 	andeq	r0, r0, pc, lsr #11
    1eb4:	002c5201 	eoreq	r5, ip, r1, lsl #4
    1eb8:	17f00000 	ldrbne	r0, [r0, r0]!
    1ebc:	14000000 	strne	r0, [r0], #-0
    1ec0:	00008ed0 	ldrdeq	r8, [r0], -r0
    1ec4:	00000660 	andeq	r0, r0, r0, ror #12
    1ec8:	008ee415 	addeq	lr, lr, r5, lsl r4
    1ecc:	00066700 	andeq	r6, r6, r0, lsl #14
    1ed0:	00029900 	andeq	r9, r2, r0, lsl #18
    1ed4:	53011600 	movwpl	r1, #5632	; 0x1600
    1ed8:	16750802 	ldrbtne	r0, [r5], -r2, lsl #16
    1edc:	03055201 	movweq	r5, #20993	; 0x5201
    1ee0:	00009ffc 	strdeq	r9, [r0], -ip
    1ee4:	05510116 	ldrbeq	r0, [r1, #-278]	; 0x116
    1ee8:	00a03403 	adceq	r3, r0, r3, lsl #8
    1eec:	50011600 	andpl	r1, r1, r0, lsl #12
    1ef0:	a0200305 	eorge	r0, r0, r5, lsl #6
    1ef4:	14000000 	strne	r0, [r0], #-0
    1ef8:	00008ee8 	andeq	r8, r0, r8, ror #29
    1efc:	0000067d 	andeq	r0, r0, sp, ror r6
    1f00:	008ef415 	addeq	pc, lr, r5, lsl r4	; <UNPREDICTABLE>
    1f04:	0000e000 	andeq	lr, r0, r0
    1f08:	0002b600 	andeq	fp, r2, r0, lsl #12
    1f0c:	51011600 	tstpl	r1, r0, lsl #12
    1f10:	00007d02 	andeq	r7, r0, r2, lsl #26
    1f14:	008f0817 	addeq	r0, pc, r7, lsl r8	; <UNPREDICTABLE>
    1f18:	00013000 	andeq	r3, r1, r0
    1f1c:	53011600 	movwpl	r1, #5632	; 0x1600
    1f20:	16007d02 	strne	r7, [r0], -r2, lsl #26
    1f24:	74025101 	strvc	r5, [r2], #-257	; 0x101
    1f28:	50011600 	andpl	r1, r1, r0, lsl #12
    1f2c:	00007502 	andeq	r7, r0, r2, lsl #10
    1f30:	007a1800 	rsbseq	r1, sl, r0, lsl #16
    1f34:	02e30000 	rsceq	r0, r3, #0
    1f38:	6b190000 	blvs	641f40 <__bss_end__+0x635828>
    1f3c:	3f000000 	svccc	0x00000000
    1f40:	007a1800 	rsbseq	r1, sl, r0, lsl #16
    1f44:	02f30000 	rscseq	r0, r3, #0
    1f48:	6b190000 	blvs	641f50 <__bss_end__+0x635838>
    1f4c:	04000000 	streq	r0, [r0], #-0
    1f50:	02e30600 	rsceq	r0, r3, #0, 12
    1f54:	ec1a0000 	ldc	0, cr0, [sl], {-0}
    1f58:	01000005 	tsteq	r0, r5
    1f5c:	008f2c1f 	addeq	r2, pc, pc, lsl ip	; <UNPREDICTABLE>
    1f60:	00005400 	andeq	r5, r0, r0, lsl #8
    1f64:	7c9c0100 	ldfvcs	f0, [ip], {0}
    1f68:	0d000003 	stceq	0, cr0, [r0, #-12]
    1f6c:	00000601 	andeq	r0, r0, r1, lsl #12
    1f70:	038b1f01 	orreq	r1, fp, #1, 30
    1f74:	181c0000 	ldmdane	ip, {}	; <UNPREDICTABLE>
    1f78:	c50d0000 	strgt	r0, [sp, #-0]
    1f7c:	01000005 	tsteq	r0, r5
    1f80:	0003a01f 	andeq	sl, r3, pc, lsl r0
    1f84:	00184800 	andseq	r4, r8, r0, lsl #16
    1f88:	01a31100 			; <UNDEFINED> instruction: 0x01a31100
    1f8c:	03b60000 			; <UNDEFINED> instruction: 0x03b60000
    1f90:	03050000 	movweq	r0, #20480	; 0x5000
    1f94:	0000a004 	andeq	sl, r0, r4
    1f98:	008f3c14 	addeq	r3, pc, r4, lsl ip	; <UNPREDICTABLE>
    1f9c:	00066000 	andeq	r6, r6, r0
    1fa0:	8f501500 	svchi	0x00501500
    1fa4:	06670000 	strbteq	r0, [r7], -r0
    1fa8:	03720000 	cmneq	r2, #0
    1fac:	01160000 	tsteq	r6, r0
    1fb0:	20080253 	andcs	r0, r8, r3, asr r2
    1fb4:	05520116 	ldrbeq	r0, [r2, #-278]	; 0x116
    1fb8:	00a00403 	adceq	r0, r0, r3, lsl #8
    1fbc:	51011600 	tstpl	r1, r0, lsl #12
    1fc0:	a0340305 	eorsge	r0, r4, r5, lsl #6
    1fc4:	01160000 	tsteq	r6, r0
    1fc8:	6c030550 	cfstr32vs	mvfx0, [r3], {80}	; 0x50
    1fcc:	000000a0 	andeq	r0, r0, r0, lsr #1
    1fd0:	008f5414 	addeq	r5, pc, r4, lsl r4	; <UNPREDICTABLE>
    1fd4:	00067d00 	andeq	r7, r6, r0, lsl #26
    1fd8:	251b0000 	ldrcs	r0, [fp, #-0]
    1fdc:	8b000000 	blhi	1fe4 <_start-0x601c>
    1fe0:	1c000003 	stcne	0, cr0, [r0], {3}
    1fe4:	00000025 	andeq	r0, r0, r5, lsr #32
    1fe8:	7c040500 	cfstr32vc	mvfx0, [r4], {-0}
    1fec:	1b000003 	blne	2000 <_start-0x6000>
    1ff0:	00000025 	andeq	r0, r0, r5, lsr #32
    1ff4:	000003a0 	andeq	r0, r0, r0, lsr #7
    1ff8:	0000811c 	andeq	r8, r0, ip, lsl r1
    1ffc:	04050000 	streq	r0, [r5], #-0
    2000:	00000391 	muleq	r0, r1, r3
    2004:	00007a18 	andeq	r7, r0, r8, lsl sl
    2008:	0003b600 	andeq	fp, r3, r0, lsl #12
    200c:	006b1900 	rsbeq	r1, fp, r0, lsl #18
    2010:	000e0000 	andeq	r0, lr, r0
    2014:	0003a606 	andeq	sl, r3, r6, lsl #12
    2018:	05341d00 	ldreq	r1, [r4, #-3328]!	; 0xd00
    201c:	7d010000 	stcvc	0, cr0, [r1, #-0]
    2020:	00000025 	andeq	r0, r0, r5, lsr #32
    2024:	00008f80 	andeq	r8, r0, r0, lsl #31
    2028:	00000288 	andeq	r0, r0, r8, lsl #5
    202c:	06259c01 	strteq	r9, [r5], -r1, lsl #24
    2030:	620b0000 	andvs	r0, fp, #0
    2034:	01006675 	tsteq	r0, r5, ror r6
    2038:	0000747d 	andeq	r7, r0, sp, ror r4
    203c:	00187400 	andseq	r7, r8, r0, lsl #8
    2040:	006e0b00 	rsbeq	r0, lr, r0, lsl #22
    2044:	00257d01 	eoreq	r7, r5, r1, lsl #26
    2048:	18a00000 	stmiane	r0!, {}	; <UNPREDICTABLE>
    204c:	660b0000 	strvs	r0, [fp], -r0
    2050:	0100746d 	tsteq	r0, sp, ror #8
    2054:	0000817d 	andeq	r8, r0, sp, ror r1
    2058:	0018ce00 	andseq	ip, r8, r0, lsl #28
    205c:	05480d00 	strbeq	r0, [r8, #-3328]	; 0xd00
    2060:	7d010000 	stcvc	0, cr0, [r1, #-0]
    2064:	000000ae 	andeq	r0, r0, lr, lsr #1
    2068:	00001902 	andeq	r1, r0, r2, lsl #18
    206c:	01007010 	tsteq	r0, r0, lsl r0
    2070:	0000747e 	andeq	r7, r0, lr, ror r4
    2074:	00191500 	andseq	r1, r9, r0, lsl #10
    2078:	00651000 	rsbeq	r1, r5, r0
    207c:	00747e01 	rsbseq	r7, r4, r1, lsl #28
    2080:	19930000 	ldmibne	r3, {}	; <UNPREDICTABLE>
    2084:	a3110000 	tstge	r1, #0
    2088:	35000001 	strcc	r0, [r0, #-1]
    208c:	05000006 	streq	r0, [r0, #-6]
    2090:	00a01403 	adceq	r1, r0, r3, lsl #8
    2094:	00601e00 	rsbeq	r1, r0, r0, lsl #28
    2098:	73100000 	tstvc	r0, #0
    209c:	748b0100 	strvc	r0, [fp], #256	; 0x100
    20a0:	ba000000 	blt	20a8 <_start-0x5f58>
    20a4:	0f000019 	svceq	0x00000019
    20a8:	006d756e 	rsbeq	r7, sp, lr, ror #10
    20ac:	063a8b01 	ldrteq	r8, [sl], -r1, lsl #22
    20b0:	91030000 	mrsls	r0, (UNDEF: 3)
    20b4:	fb137ed8 	blx	4e1c1e <__bss_end__+0x4d5506>
    20b8:	01000005 	tsteq	r0, r5
    20bc:	00002c8c 	andeq	r2, r0, ip, lsl #25
    20c0:	001a0f00 	andseq	r0, sl, r0, lsl #30
    20c4:	90041500 	andls	r1, r4, r0, lsl #10
    20c8:	00b90000 	adcseq	r0, r9, r0
    20cc:	047b0000 	ldrbteq	r0, [fp], #-0
    20d0:	01160000 	tsteq	r6, r0
    20d4:	00750250 	rsbseq	r0, r5, r0, asr r2
    20d8:	90181400 	andsls	r1, r8, r0, lsl #8
    20dc:	06600000 	strbteq	r0, [r0], -r0
    20e0:	2c150000 	ldccs	0, cr0, [r5], {-0}
    20e4:	67000090 			; <UNDEFINED> instruction: 0x67000090
    20e8:	b3000006 	movwlt	r0, #6
    20ec:	16000004 	strne	r0, [r0], -r4
    20f0:	08025301 	stmdaeq	r2, {r0, r8, r9, ip, lr}
    20f4:	52011692 	andpl	r1, r1, #153092096	; 0x9200000
    20f8:	a0140305 	andsge	r0, r4, r5, lsl #6
    20fc:	01160000 	tsteq	r6, r0
    2100:	34030551 	strcc	r0, [r3], #-1361	; 0x551
    2104:	160000a0 	strne	r0, [r0], -r0, lsr #1
    2108:	03055001 	movweq	r5, #20481	; 0x5001
    210c:	0000a084 	andeq	sl, r0, r4, lsl #1
    2110:	90301400 	eorsls	r1, r0, r0, lsl #8
    2114:	067d0000 	ldrbteq	r0, [sp], -r0
    2118:	a0140000 	andsge	r0, r4, r0
    211c:	60000090 	mulvs	r0, r0, r0
    2120:	15000006 	strne	r0, [r0, #-6]
    2124:	000090b4 	strheq	r9, [r0], -r4
    2128:	00000667 	andeq	r0, r0, r7, ror #12
    212c:	000004f4 	strdeq	r0, [r0], -r4
    2130:	02530116 	subseq	r0, r3, #-2147483643	; 0x80000005
    2134:	01169808 	tsteq	r6, r8, lsl #16
    2138:	14030552 	strne	r0, [r3], #-1362	; 0x552
    213c:	160000a0 	strne	r0, [r0], -r0, lsr #1
    2140:	03055101 	movweq	r5, #20737	; 0x5101
    2144:	0000a034 	andeq	sl, r0, r4, lsr r0
    2148:	05500116 	ldrbeq	r0, [r0, #-278]	; 0x116
    214c:	00a0a003 	adceq	sl, r0, r3
    2150:	b8140000 	ldmdalt	r4, {}	; <UNPREDICTABLE>
    2154:	7d000090 	stcvc	0, cr0, [r0, #-576]	; 0xfffffdc0
    2158:	15000006 	strne	r0, [r0, #-6]
    215c:	000090dc 	ldrdeq	r9, [r0], -ip
    2160:	0000019c 	muleq	r0, ip, r1
    2164:	0000052a 	andeq	r0, r0, sl, lsr #10
    2168:	02520116 	subseq	r0, r2, #-2147483643	; 0x80000005
    216c:	01168008 	tsteq	r6, r8
    2170:	d0910351 	addsle	r0, r1, r1, asr r3
    2174:	5001167e 	andpl	r1, r1, lr, ror r6
    2178:	02163a01 	andseq	r3, r6, #4096	; 0x1000
    217c:	3101047d 	tstcc	r1, sp, ror r4
    2180:	007d0216 	rsbseq	r0, sp, r6, lsl r2
    2184:	00007702 	andeq	r7, r0, r2, lsl #14
    2188:	00910015 	addseq	r0, r1, r5, lsl r0
    218c:	00019c00 	andeq	r9, r1, r0, lsl #24
    2190:	00055800 	andeq	r5, r5, r0, lsl #16
    2194:	52011600 	andpl	r1, r1, #0, 12
    2198:	16800802 	strne	r0, [r0], r2, lsl #16
    219c:	91035101 	tstls	r3, r1, lsl #2
    21a0:	01167ed0 			; <UNDEFINED> instruction: 0x01167ed0
    21a4:	163a0150 			; <UNDEFINED> instruction: 0x163a0150
    21a8:	02047d02 	andeq	r7, r4, #2, 26	; 0x80
    21ac:	0216007b 	andseq	r0, r6, #123	; 0x7b
    21b0:	7702007d 	smlsdxvc	r2, sp, r0, r0
    21b4:	24150000 	ldrcs	r0, [r5], #-0
    21b8:	9c000091 	stcls	0, cr0, [r0], {145}	; 0x91
    21bc:	86000001 	strhi	r0, [r0], -r1
    21c0:	16000005 	strne	r0, [r0], -r5
    21c4:	08025201 	stmdaeq	r2, {r0, r9, ip, lr}
    21c8:	51011680 	smlabbpl	r1, r0, r6, r1
    21cc:	7ed09103 	atnvcs	f1, f3
    21d0:	01500116 	cmpeq	r0, r6, lsl r1
    21d4:	7d021640 	stcvc	6, cr1, [r2, #-256]	; 0xffffff00
    21d8:	007b0204 	rsbseq	r0, fp, r4, lsl #4
    21dc:	007d0216 	rsbseq	r0, sp, r6, lsl r2
    21e0:	00007702 	andeq	r7, r0, r2, lsl #14
    21e4:	00914815 	addseq	r4, r1, r5, lsl r8
    21e8:	00019c00 	andeq	r9, r1, r0, lsl #24
    21ec:	0005b400 	andeq	fp, r5, r0, lsl #8
    21f0:	52011600 	andpl	r1, r1, #0, 12
    21f4:	16800802 	strne	r0, [r0], r2, lsl #16
    21f8:	91035101 	tstls	r3, r1, lsl #2
    21fc:	01167ed0 			; <UNDEFINED> instruction: 0x01167ed0
    2200:	16320150 			; <UNDEFINED> instruction: 0x16320150
    2204:	02047d02 	andeq	r7, r4, #2, 26	; 0x80
    2208:	0216007b 	andseq	r0, r6, #123	; 0x7b
    220c:	7702007d 	smlsdxvc	r2, sp, r0, r0
    2210:	78150000 	ldmdavc	r5, {}	; <UNPREDICTABLE>
    2214:	9c000091 	stcls	0, cr0, [r0], {145}	; 0x91
    2218:	e2000001 	and	r0, r0, #1
    221c:	16000005 	strne	r0, [r0], -r5
    2220:	08025201 	stmdaeq	r2, {r0, r9, ip, lr}
    2224:	51011680 	smlabbpl	r1, r0, r6, r1
    2228:	7ed09103 	atnvcs	f1, f3
    222c:	01500116 	cmpeq	r0, r6, lsl r1
    2230:	7d021638 	stcvc	6, cr1, [r2, #-224]	; 0xffffff20
    2234:	007b0204 	rsbseq	r0, fp, r4, lsl #4
    2238:	007d0216 	rsbseq	r0, sp, r6, lsl r2
    223c:	00007702 	andeq	r7, r0, r2, lsl #14
    2240:	00918014 	addseq	r8, r1, r4, lsl r0
    2244:	00066000 	andeq	r6, r6, r0
    2248:	919c1500 	orrsls	r1, ip, r0, lsl #10
    224c:	06670000 	strbteq	r0, [r7], -r0
    2250:	061a0000 	ldreq	r0, [sl], -r0
    2254:	01160000 	tsteq	r6, r0
    2258:	b9080253 	stmdblt	r8, {r0, r1, r4, r6, r9}
    225c:	05520116 	ldrbeq	r0, [r2, #-278]	; 0x116
    2260:	00a01403 	adceq	r1, r0, r3, lsl #8
    2264:	51011600 	tstpl	r1, r0, lsl #12
    2268:	a0340305 	eorsge	r0, r4, r5, lsl #6
    226c:	01160000 	tsteq	r6, r0
    2270:	c8030550 	stmdagt	r3, {r4, r6, r8, sl}
    2274:	000000a0 	andeq	r0, r0, r0, lsr #1
    2278:	0091a014 	addseq	sl, r1, r4, lsl r0
    227c:	00067d00 	andeq	r7, r6, r0, lsl #26
    2280:	18000000 	stmdane	r0, {}	; <UNPREDICTABLE>
    2284:	0000007a 	andeq	r0, r0, sl, ror r0
    2288:	00000635 	andeq	r0, r0, r5, lsr r6
    228c:	00006b19 	andeq	r6, r0, r9, lsl fp
    2290:	06000900 	streq	r0, [r0], -r0, lsl #18
    2294:	00000625 	andeq	r0, r0, r5, lsr #12
    2298:	00007a18 	andeq	r7, r0, r8, lsl sl
    229c:	00064a00 	andeq	r4, r6, r0, lsl #20
    22a0:	006b1900 	rsbeq	r1, fp, r0, lsl #18
    22a4:	007f0000 	rsbseq	r0, pc, r0
    22a8:	00056d1f 	andeq	r6, r5, pc, lsl sp
    22ac:	8b1d0300 	blhi	742eb4 <__bss_end__+0x73679c>
    22b0:	1f000003 	svcne	0x00000003
    22b4:	000005aa 	andeq	r0, r0, sl, lsr #11
    22b8:	03a02203 	moveq	r2, #805306368	; 0x30000000
    22bc:	50200000 	eorpl	r0, r0, r0
    22c0:	03000001 	movweq	r0, #1
    22c4:	0537211e 	ldreq	r2, [r7, #-286]!	; 0x11e
    22c8:	29030000 	stmdbcs	r3, {}	; <UNPREDICTABLE>
    22cc:	00000025 	andeq	r0, r0, r5, lsr #32
    22d0:	0000067d 	andeq	r0, r0, sp, ror r6
    22d4:	0000811c 	andeq	r8, r0, ip, lsl r1
    22d8:	20002200 	andcs	r2, r0, r0, lsl #4
    22dc:	00000243 	andeq	r0, r0, r3, asr #4
    22e0:	b8006603 	stmdalt	r0, {r0, r1, r9, sl, sp, lr}
    22e4:	04000000 	streq	r0, [r0], #-0
    22e8:	00083a00 	andeq	r3, r8, r0, lsl #20
    22ec:	45010400 	strmi	r0, [r1, #-1024]	; 0x400
    22f0:	01000003 	tsteq	r0, r3
    22f4:	0000061c 	andeq	r0, r0, ip, lsl r6
    22f8:	000004d3 	ldrdeq	r0, [r0], -r3
    22fc:	00009208 	andeq	r9, r0, r8, lsl #4
    2300:	00000020 	andeq	r0, r0, r0, lsr #32
    2304:	00000982 	andeq	r0, r0, r2, lsl #19
    2308:	69050402 	stmdbvs	r5, {r1, sl}
    230c:	0300746e 	movweq	r7, #1134	; 0x46e
    2310:	006f0704 	rsbeq	r0, pc, r4, lsl #14
    2314:	01030000 	mrseq	r0, (UNDEF: 3)
    2318:	0002db06 	andeq	sp, r2, r6, lsl #22
    231c:	05020300 	streq	r0, [r2, #-768]	; 0x300
    2320:	000002ee 	andeq	r0, r0, lr, ror #5
    2324:	a1050403 	tstge	r5, r3, lsl #8
    2328:	03000000 	movweq	r0, #0
    232c:	009c0508 	addseq	r0, ip, r8, lsl #10
    2330:	01030000 	mrseq	r0, (UNDEF: 3)
    2334:	0002d908 	andeq	sp, r2, r8, lsl #18
    2338:	07020300 	streq	r0, [r2, -r0, lsl #6]
    233c:	000001b9 			; <UNDEFINED> instruction: 0x000001b9
    2340:	6a070403 	bvs	1c3354 <__bss_end__+0x1b6c3c>
    2344:	03000000 	movweq	r0, #0
    2348:	00650708 	rsbeq	r0, r5, r8, lsl #14
    234c:	04030000 	streq	r0, [r3], #-0
    2350:	00025507 	andeq	r5, r2, r7, lsl #10
    2354:	08010300 	stmdaeq	r1, {r8, r9}
    2358:	000002e2 	andeq	r0, r0, r2, ror #5
    235c:	00043d04 	andeq	r3, r4, r4, lsl #26
    2360:	08030100 	stmdaeq	r3, {r8}
    2364:	10000092 	mulne	r0, r2, r0
    2368:	01000000 	mrseq	r0, (UNDEF: 0)
    236c:	00009c9c 	muleq	r0, ip, ip
    2370:	00720500 	rsbseq	r0, r2, r0, lsl #10
    2374:	002c0401 	eoreq	r0, ip, r1, lsl #8
    2378:	1a390000 	bne	e42380 <__bss_end__+0xe35c68>
    237c:	06000000 	streq	r0, [r0], -r0
    2380:	0000060e 	andeq	r0, r0, lr, lsl #12
    2384:	92180c01 	andsls	r0, r8, #256	; 0x100
    2388:	00100000 	andseq	r0, r0, r0
    238c:	9c010000 	stcls	0, cr0, [r1], {-0}
    2390:	01007205 	tsteq	r0, r5, lsl #4
    2394:	00002c0d 	andeq	r2, r0, sp, lsl #24
    2398:	001a5d00 	andseq	r5, sl, r0, lsl #26
    239c:	ff000000 			; <UNDEFINED> instruction: 0xff000000
    23a0:	04000000 	streq	r0, [r0], #-0
    23a4:	0008a500 	andeq	sl, r8, r0, lsl #10
    23a8:	45010400 	strmi	r0, [r1, #-1024]	; 0x400
    23ac:	01000003 	tsteq	r0, r3
    23b0:	0000063a 	andeq	r0, r0, sl, lsr r6
    23b4:	000004d3 	ldrdeq	r0, [r0], -r3
    23b8:	00009228 	andeq	r9, r0, r8, lsr #4
    23bc:	00000028 	andeq	r0, r0, r8, lsr #32
    23c0:	000009c9 	andeq	r0, r0, r9, asr #19
    23c4:	69050402 	stmdbvs	r5, {r1, sl}
    23c8:	0300746e 	movweq	r7, #1134	; 0x46e
    23cc:	006f0704 	rsbeq	r0, pc, r4, lsl #14
    23d0:	01030000 	mrseq	r0, (UNDEF: 3)
    23d4:	0002db06 	andeq	sp, r2, r6, lsl #22
    23d8:	05020300 	streq	r0, [r2, #-768]	; 0x300
    23dc:	000002ee 	andeq	r0, r0, lr, ror #5
    23e0:	a1050403 	tstge	r5, r3, lsl #8
    23e4:	03000000 	movweq	r0, #0
    23e8:	009c0508 	addseq	r0, ip, r8, lsl #10
    23ec:	01030000 	mrseq	r0, (UNDEF: 3)
    23f0:	0002d908 	andeq	sp, r2, r8, lsl #18
    23f4:	07020300 	streq	r0, [r2, -r0, lsl #6]
    23f8:	000001b9 			; <UNDEFINED> instruction: 0x000001b9
    23fc:	6a070403 	bvs	1c3410 <__bss_end__+0x1b6cf8>
    2400:	03000000 	movweq	r0, #0
    2404:	00650708 	rsbeq	r0, r5, r8, lsl #14
    2408:	04030000 	streq	r0, [r3], #-0
    240c:	00025507 	andeq	r5, r2, r7, lsl #10
    2410:	08010300 	stmdaeq	r1, {r8, r9}
    2414:	000002e2 	andeq	r0, r0, r2, ror #5
    2418:	007f0404 	rsbseq	r0, pc, r4, lsl #8
    241c:	72050000 	andvc	r0, r5, #0
    2420:	06000000 	streq	r0, [r0], -r0
    2424:	00000243 	andeq	r0, r0, r3, asr #4
    2428:	92280401 	eorls	r0, r8, #16777216	; 0x1000000
    242c:	00280000 	eoreq	r0, r8, r0
    2430:	9c010000 	stcls	0, cr0, [r1], {-0}
    2434:	000000ca 	andeq	r0, r0, sl, asr #1
    2438:	00923c07 	addseq	r3, r2, r7, lsl #24
    243c:	0000ac00 	andeq	sl, r0, r0, lsl #24
    2440:	50010800 	andpl	r0, r1, r0, lsl #16
    2444:	a1000305 	tstge	r0, r5, lsl #6
    2448:	09000000 	stmdbeq	r0, {}	; <UNPREDICTABLE>
    244c:	00009244 	andeq	r9, r0, r4, asr #4
    2450:	000000ea 	andeq	r0, r0, sl, ror #1
    2454:	000000c0 	andeq	r0, r0, r0, asr #1
    2458:	02500108 	subseq	r0, r0, #8, 2
    245c:	0a006408 	beq	1b484 <__bss_end__+0xed6c>
    2460:	00009248 	andeq	r9, r0, r8, asr #4
    2464:	000000fb 	strdeq	r0, [r0], -fp
    2468:	00250b00 	eoreq	r0, r5, r0, lsl #22
    246c:	00d90000 	sbcseq	r0, r9, r0
    2470:	790c0000 	stmdbvc	ip, {}	; <UNPREDICTABLE>
    2474:	00000000 	andeq	r0, r0, r0
    2478:	0005aa0d 	andeq	sl, r5, sp, lsl #20
    247c:	e4220200 	strt	r0, [r2], #-512	; 0x200
    2480:	04000000 	streq	r0, [r0], #-0
    2484:	0000ca04 	andeq	ip, r0, r4, lsl #20
    2488:	030a0e00 	movweq	r0, #44544	; 0xae00
    248c:	50020000 	andpl	r0, r2, r0
    2490:	000000fb 	strdeq	r0, [r0], -fp
    2494:	00002c0c 	andeq	r2, r0, ip, lsl #24
    2498:	2f0f0000 	svccs	0x000f0000
    249c:	02000006 	andeq	r0, r0, #6
    24a0:	00ff0063 	rscseq	r0, pc, r3, rrx
    24a4:	00040000 	andeq	r0, r4, r0
    24a8:	0000096f 	andeq	r0, r0, pc, ror #18
    24ac:	03450104 	movteq	r0, #20740	; 0x5104
    24b0:	54010000 	strpl	r0, [r1], #-0
    24b4:	d3000006 	movwle	r0, #6
    24b8:	50000004 	andpl	r0, r0, r4
    24bc:	34000092 	strcc	r0, [r0], #-146	; 0x92
    24c0:	60000000 	andvs	r0, r0, r0
    24c4:	0200000a 	andeq	r0, r0, #10
    24c8:	6e690504 	cdpvs	5, 6, cr0, cr9, cr4, {0}
    24cc:	04030074 	streq	r0, [r3], #-116	; 0x74
    24d0:	00006f07 	andeq	r6, r0, r7, lsl #30
    24d4:	06010300 	streq	r0, [r1], -r0, lsl #6
    24d8:	000002db 	ldrdeq	r0, [r0], -fp
    24dc:	ee050203 	cdp	2, 0, cr0, cr5, cr3, {0}
    24e0:	03000002 	movweq	r0, #2
    24e4:	00a10504 	adceq	r0, r1, r4, lsl #10
    24e8:	08030000 	stmdaeq	r3, {}	; <UNPREDICTABLE>
    24ec:	00009c05 	andeq	r9, r0, r5, lsl #24
    24f0:	08010300 	stmdaeq	r1, {r8, r9}
    24f4:	000002d9 	ldrdeq	r0, [r0], -r9
    24f8:	b9070203 	stmdblt	r7, {r0, r1, r9}
    24fc:	03000001 	movweq	r0, #1
    2500:	006a0704 	rsbeq	r0, sl, r4, lsl #14
    2504:	08030000 	stmdaeq	r3, {}	; <UNPREDICTABLE>
    2508:	00006507 	andeq	r6, r0, r7, lsl #10
    250c:	07040300 	streq	r0, [r4, -r0, lsl #6]
    2510:	00000255 	andeq	r0, r0, r5, asr r2
    2514:	e2080103 	and	r0, r8, #-1073741824	; 0xc0000000
    2518:	04000002 	streq	r0, [r0], #-2
    251c:	0000068a 	andeq	r0, r0, sl, lsl #13
    2520:	92500d01 	subsls	r0, r0, #1, 26	; 0x40
    2524:	00340000 	eorseq	r0, r4, r0
    2528:	9c010000 	stcls	0, cr0, [r1], {-0}
    252c:	000000d8 	ldrdeq	r0, [r0], -r8
    2530:	00066805 	andeq	r6, r6, r5, lsl #16
    2534:	250e0100 	strcs	r0, [lr, #-256]	; 0x100
    2538:	05000000 	streq	r0, [r0, #-0]
    253c:	00000676 	andeq	r0, r0, r6, ror r6
    2540:	00250e01 	eoreq	r0, r5, r1, lsl #28
    2544:	10060000 	andne	r0, r6, r0
    2548:	01000001 	tsteq	r0, r1
    254c:	7362070f 	cmnvc	r2, #3932160	; 0x3c0000
    2550:	11010073 	tstne	r1, r3, ror r0
    2554:	000000d8 	ldrdeq	r0, [r0], -r8
    2558:	00001a81 	andeq	r1, r0, r1, lsl #21
    255c:	00068208 	andeq	r8, r6, r8, lsl #4
    2560:	d8120100 	ldmdale	r2, {r8}
    2564:	09000000 	stmdbeq	r0, {}	; <UNPREDICTABLE>
    2568:	00009278 	andeq	r9, r0, r8, ror r2
    256c:	000000f4 	strdeq	r0, [r0], -r4
    2570:	00927c09 	addseq	r7, r2, r9, lsl #24
    2574:	0000fb00 	andeq	pc, r0, r0, lsl #22
    2578:	040a0000 	streq	r0, [sl], #-0
    257c:	00000025 	andeq	r0, r0, r5, lsr #32
    2580:	00066805 	andeq	r6, r6, r5, lsl #16
    2584:	250e0100 	strcs	r0, [lr, #-256]	; 0x100
    2588:	05000000 	streq	r0, [r0, #-0]
    258c:	00000676 	andeq	r0, r0, r6, ror r6
    2590:	00250e01 	eoreq	r0, r5, r1, lsl #28
    2594:	10060000 	andne	r0, r6, r0
    2598:	02000001 	andeq	r0, r0, #1
    259c:	062f06d8 			; <UNDEFINED> instruction: 0x062f06d8
    25a0:	63020000 	movwvs	r0, #8192	; 0x2000
    25a4:	0001ad00 	andeq	sl, r1, r0, lsl #26
    25a8:	03000400 	movweq	r0, #1024	; 0x400
    25ac:	0400000a 	streq	r0, [r0], #-10
    25b0:	00034501 	andeq	r4, r3, r1, lsl #10
    25b4:	06ac0100 	strteq	r0, [ip], r0, lsl #2
    25b8:	04d30000 	ldrbeq	r0, [r3], #0
    25bc:	00780000 	rsbseq	r0, r8, r0
    25c0:	00000000 	andeq	r0, r0, r0
    25c4:	0afe0000 	beq	fff825cc <__bss_end__+0xfff75eb4>
    25c8:	04020000 	streq	r0, [r2], #-0
    25cc:	746e6905 	strbtvc	r6, [lr], #-2309	; 0x905
    25d0:	07040300 	streq	r0, [r4, -r0, lsl #6]
    25d4:	0000006f 	andeq	r0, r0, pc, rrx
    25d8:	db060103 	blle	1829ec <__bss_end__+0x1762d4>
    25dc:	03000002 	movweq	r0, #2
    25e0:	02ee0502 	rsceq	r0, lr, #8388608	; 0x800000
    25e4:	04030000 	streq	r0, [r3], #-0
    25e8:	0000a105 	andeq	sl, r0, r5, lsl #2
    25ec:	05080300 	streq	r0, [r8, #-768]	; 0x300
    25f0:	0000009c 	muleq	r0, ip, r0
    25f4:	d9080103 	stmdble	r8, {r0, r1, r8}
    25f8:	03000002 	movweq	r0, #2
    25fc:	01b90702 			; <UNDEFINED> instruction: 0x01b90702
    2600:	04030000 	streq	r0, [r3], #-0
    2604:	00006a07 	andeq	r6, r0, r7, lsl #20
    2608:	07080300 	streq	r0, [r8, -r0, lsl #6]
    260c:	00000065 	andeq	r0, r0, r5, rrx
    2610:	55070403 	strpl	r0, [r7, #-1027]	; 0x403
    2614:	03000002 	movweq	r0, #2
    2618:	02e20801 	rsceq	r0, r2, #65536	; 0x10000
    261c:	92040000 	andls	r0, r4, #0
    2620:	01000006 	tsteq	r0, r6
    2624:	0000250e 	andeq	r2, r0, lr, lsl #10
    2628:	00928400 	addseq	r8, r2, r0, lsl #8
    262c:	00001800 	andeq	r1, r0, r0, lsl #16
    2630:	a29c0100 	addsge	r0, ip, #0, 2
    2634:	05000000 	streq	r0, [r0, #-0]
    2638:	000006fe 	strdeq	r0, [r0], -lr
    263c:	002c0f01 	eoreq	r0, ip, r1, lsl #30
    2640:	1aa10000 	bne	fe842648 <__bss_end__+0xfe835f30>
    2644:	06000000 	streq	r0, [r0], -r0
    2648:	000006e1 	andeq	r0, r0, r1, ror #13
    264c:	929c1701 	addsls	r1, ip, #262144	; 0x40000
    2650:	00140000 	andseq	r0, r4, r0
    2654:	9c010000 	stcls	0, cr0, [r1], {-0}
    2658:	000000c7 	andeq	r0, r0, r7, asr #1
    265c:	0006fe05 	andeq	pc, r6, r5, lsl #28
    2660:	2c180100 	ldfcss	f0, [r8], {-0}
    2664:	c0000000 	andgt	r0, r0, r0
    2668:	0000001a 	andeq	r0, r0, sl, lsl r0
    266c:	00062f06 	andeq	r2, r6, r6, lsl #30
    2670:	b01f0100 	andslt	r0, pc, r0, lsl #2
    2674:	48000092 	stmdami	r0, {r1, r4, r7}
    2678:	01000000 	mrseq	r0, (UNDEF: 0)
    267c:	0001779c 	muleq	r1, ip, r7
    2680:	06f60700 	ldrbteq	r0, [r6], r0, lsl #14
    2684:	2a010000 	bcs	4268c <__bss_end__+0x35f74>
    2688:	00000177 	andeq	r0, r0, r7, ror r1
    268c:	2010001c 	andscs	r0, r0, ip, lsl r0
    2690:	0006d907 	andeq	sp, r6, r7, lsl #18
    2694:	772b0100 	strvc	r0, [fp, -r0, lsl #2]!
    2698:	24000001 	strcs	r0, [r0], #-1
    269c:	07201000 	streq	r1, [r0, -r0]!
    26a0:	000006a0 	andeq	r0, r0, r0, lsr #13
    26a4:	01772c01 	cmneq	r7, r1, lsl #24
    26a8:	00000000 	andeq	r0, r0, r0
    26ac:	c0085a00 	andgt	r5, r8, r0, lsl #20
    26b0:	01000006 	tsteq	r0, r6
    26b4:	0001772d 	andeq	r7, r1, sp, lsr #14
    26b8:	b8092000 	stmdalt	r9, {sp}
    26bc:	79000092 	stmdbvc	r0, {r1, r4, r7}
    26c0:	09000000 	stmdbeq	r0, {}	; <UNPREDICTABLE>
    26c4:	000092c4 	andeq	r9, r0, r4, asr #5
    26c8:	000000a2 	andeq	r0, r0, r2, lsr #1
    26cc:	0092cc0a 	addseq	ip, r2, sl, lsl #24
    26d0:	00018d00 	andeq	r8, r1, r0, lsl #26
    26d4:	00013a00 	andeq	r3, r1, r0, lsl #20
    26d8:	50010b00 	andpl	r0, r1, r0, lsl #22
    26dc:	0a004e01 	beq	15ee8 <__bss_end__+0x97d0>
    26e0:	000092d8 	ldrdeq	r9, [r0], -r8
    26e4:	0000019e 	muleq	r0, lr, r1
    26e8:	0000015a 	andeq	r0, r0, sl, asr r1
    26ec:	0551010b 	ldrbeq	r0, [r1, #-267]	; 0x10b
    26f0:	0000010c 	andeq	r0, r0, ip, lsl #2
    26f4:	50010b5a 	andpl	r0, r1, sl, asr fp
    26f8:	00240c05 	eoreq	r0, r4, r5, lsl #24
    26fc:	0c002010 	stceq	0, cr2, [r0], {16}
    2700:	000092e4 	andeq	r9, r0, r4, ror #5
    2704:	0000019e 	muleq	r0, lr, r1
    2708:	0551010b 	ldrbeq	r0, [r1, #-267]	; 0x10b
    270c:	0000200c 	andeq	r2, r0, ip
    2710:	50010b5a 	andpl	r0, r1, sl, asr fp
    2714:	001c0c05 	andseq	r0, ip, r5, lsl #24
    2718:	00002010 	andeq	r2, r0, r0, lsl r0
    271c:	0000250d 	andeq	r2, r0, sp, lsl #10
    2720:	06950800 	ldreq	r0, [r5], r0, lsl #16
    2724:	0d010000 	stceq	0, cr0, [r1, #-0]
    2728:	00000188 	andeq	r0, r0, r8, lsl #3
    272c:	002c0d10 	eoreq	r0, ip, r0, lsl sp
    2730:	0a0e0000 	beq	382738 <__bss_end__+0x376020>
    2734:	02000003 	andeq	r0, r0, #3
    2738:	00019e50 	andeq	r9, r1, r0, asr lr
    273c:	002c0f00 	eoreq	r0, ip, r0, lsl #30
    2740:	10000000 	andne	r0, r0, r0
    2744:	000006f0 	strdeq	r0, [r0], -r0	; <UNPREDICTABLE>
    2748:	2c0f9c02 	stccs	12, cr9, [pc], {2}
    274c:	0f000000 	svceq	0x00000000
    2750:	0000002c 	andeq	r0, r0, ip, lsr #32
    2754:	01d80000 	bicseq	r0, r8, r0
    2758:	00040000 	andeq	r0, r4, r0
    275c:	00000af1 	strdeq	r0, [r0], -r1
    2760:	03450104 	movteq	r0, #20740	; 0x5104
    2764:	20010000 	andcs	r0, r1, r0
    2768:	d3000007 	movwle	r0, #7
    276c:	f8000004 			; <UNDEFINED> instruction: 0xf8000004
    2770:	88000092 	stmdahi	r0, {r1, r4, r7}
    2774:	9b000000 	blls	277c <_start-0x5884>
    2778:	0200000b 	andeq	r0, r0, #11
    277c:	6e690504 	cdpvs	5, 6, cr0, cr9, cr4, {0}
    2780:	04030074 	streq	r0, [r3], #-116	; 0x74
    2784:	00006f07 	andeq	r6, r0, r7, lsl #30
    2788:	06010300 	streq	r0, [r1], -r0, lsl #6
    278c:	000002db 	ldrdeq	r0, [r0], -fp
    2790:	ee050203 	cdp	2, 0, cr0, cr5, cr3, {0}
    2794:	03000002 	movweq	r0, #2
    2798:	00a10504 	adceq	r0, r1, r4, lsl #10
    279c:	08030000 	stmdaeq	r3, {}	; <UNPREDICTABLE>
    27a0:	00009c05 	andeq	r9, r0, r5, lsl #24
    27a4:	08010300 	stmdaeq	r1, {r8, r9}
    27a8:	000002d9 	ldrdeq	r0, [r0], -r9
    27ac:	b9070203 	stmdblt	r7, {r0, r1, r9}
    27b0:	03000001 	movweq	r0, #1
    27b4:	006a0704 	rsbeq	r0, sl, r4, lsl #14
    27b8:	08030000 	stmdaeq	r3, {}	; <UNPREDICTABLE>
    27bc:	00006507 	andeq	r6, r0, r7, lsl #10
    27c0:	07040300 	streq	r0, [r4, -r0, lsl #6]
    27c4:	00000255 	andeq	r0, r0, r5, asr r2
    27c8:	e2080103 	and	r0, r8, #-1073741824	; 0xc0000000
    27cc:	04000002 	streq	r0, [r0], #-2
    27d0:	0000073f 	andeq	r0, r0, pc, lsr r7
    27d4:	92f80501 	rscsls	r0, r8, #4194304	; 0x400000
    27d8:	001c0000 	andseq	r0, ip, r0
    27dc:	9c010000 	stcls	0, cr0, [r1], {-0}
    27e0:	0000009e 	muleq	r0, lr, r0
    27e4:	00073905 	andeq	r3, r7, r5, lsl #18
    27e8:	2c050100 	stfcss	f0, [r5], {-0}
    27ec:	ea000000 	b	27f4 <_start-0x580c>
    27f0:	0000001a 	andeq	r0, r0, sl, lsl r0
    27f4:	00070306 	andeq	r0, r7, r6, lsl #6
    27f8:	2c110100 	ldfcss	f0, [r1], {-0}
    27fc:	14000000 	strne	r0, [r0], #-0
    2800:	14000093 	strne	r0, [r0], #-147	; 0x93
    2804:	01000000 	mrseq	r0, (UNDEF: 0)
    2808:	0000cb9c 	muleq	r0, ip, fp
    280c:	93200700 	teqls	r0, #0, 14
    2810:	01ca0000 	biceq	r0, sl, r0
    2814:	01080000 	mrseq	r0, (UNDEF: 8)
    2818:	040c0550 	streq	r0, [ip], #-1360	; 0x550
    281c:	00200030 	eoreq	r0, r0, r0, lsr r0
    2820:	07550600 	ldrbeq	r0, [r5, -r0, lsl #12]
    2824:	16010000 	strne	r0, [r1], -r0
    2828:	0000002c 	andeq	r0, r0, ip, lsr #32
    282c:	00009328 	andeq	r9, r0, r8, lsr #6
    2830:	0000000c 	andeq	r0, r0, ip
    2834:	00f99c01 	rscseq	r9, r9, r1, lsl #24
    2838:	75090000 	strvc	r0, [r9, #-0]
    283c:	2c1a0100 	ldfcss	f0, [sl], {-0}
    2840:	01000000 	mrseq	r0, (UNDEF: 0)
    2844:	93300a50 	teqls	r0, #80, 20	; 0x50000
    2848:	009e0000 	addseq	r0, lr, r0
    284c:	04000000 	streq	r0, [r0], #-0
    2850:	0000074c 	andeq	r0, r0, ip, asr #14
    2854:	93341f01 	teqls	r4, #1, 30
    2858:	00240000 	eoreq	r0, r4, r0
    285c:	9c010000 	stcls	0, cr0, [r1], {-0}
    2860:	00000157 	andeq	r0, r0, r7, asr r1
    2864:	0073750b 	rsbseq	r7, r3, fp, lsl #10
    2868:	002c1f01 	eoreq	r1, ip, r1, lsl #30
    286c:	1b1e0000 	blne	782874 <__bss_end__+0x77615c>
    2870:	72090000 	andvc	r0, r9, #0
    2874:	20010062 	andcs	r0, r1, r2, rrx
    2878:	0000002c 	andeq	r0, r0, ip, lsr #32
    287c:	440c5401 	strmi	r5, [ip], #-1025	; 0x401
    2880:	10000093 	mulne	r0, r3, r0
    2884:	4d000000 	stcmi	0, cr0, [r0, #-0]
    2888:	0d000001 	stceq	0, cr0, [r0, #-4]
    288c:	01006172 	tsteq	r0, r2, ror r1
    2890:	00002c22 	andeq	r2, r0, r2, lsr #24
    2894:	001b3c00 	andseq	r3, fp, r0, lsl #24
    2898:	93480a00 	movtls	r0, #35328	; 0x8a00
    289c:	00cb0000 	sbceq	r0, fp, r0
    28a0:	0a000000 	beq	28a8 <_start-0x5758>
    28a4:	00009340 	andeq	r9, r0, r0, asr #6
    28a8:	000000cb 	andeq	r0, r0, fp, asr #1
    28ac:	030a0400 	movweq	r0, #41984	; 0xa400
    28b0:	28010000 	stmdacs	r1, {}	; <UNPREDICTABLE>
    28b4:	00009358 	andeq	r9, r0, r8, asr r3
    28b8:	00000014 	andeq	r0, r0, r4, lsl r0
    28bc:	01909c01 	orrseq	r9, r0, r1, lsl #24
    28c0:	6d0b0000 	stcvs	0, cr0, [fp, #-0]
    28c4:	28010073 	stmdacs	r1, {r0, r1, r4, r5, r6}
    28c8:	0000002c 	andeq	r0, r0, ip, lsr #32
    28cc:	00001b4f 	andeq	r1, r0, pc, asr #22
    28d0:	00936807 	addseq	r6, r3, r7, lsl #16
    28d4:	0000f900 	andeq	pc, r0, r0, lsl #18
    28d8:	50010800 	andpl	r0, r1, r0, lsl #16
    28dc:	5001f307 	andpl	pc, r1, r7, lsl #6
    28e0:	1e03e80a 	cdpne	8, 0, cr14, cr3, cr10, {0}
    28e4:	16040000 	strne	r0, [r4], -r0
    28e8:	01000007 	tsteq	r0, r7
    28ec:	00936c2b 	addseq	r6, r3, fp, lsr #24
    28f0:	00001400 	andeq	r1, r0, r0, lsl #8
    28f4:	ca9c0100 	bgt	fe702cfc <__bss_end__+0xfe6f65e4>
    28f8:	0b000001 	bleq	2904 <_start-0x56fc>
    28fc:	00636573 	rsbeq	r6, r3, r3, ror r5
    2900:	002c2b01 	eoreq	r2, ip, r1, lsl #22
    2904:	1b700000 	blne	1c0290c <__bss_end__+0x1bf61f4>
    2908:	7c070000 	stcvc	0, cr0, [r7], {-0}
    290c:	57000093 			; <UNDEFINED> instruction: 0x57000093
    2910:	08000001 	stmdaeq	r0, {r0}
    2914:	f3075001 	vhadd.u8	d5, d7, d1
    2918:	e80a5001 	stmda	sl, {r0, ip, lr}
    291c:	00001e03 	andeq	r1, r0, r3, lsl #28
    2920:	0007330e 	andeq	r3, r7, lr, lsl #6
    2924:	2ca80200 	sfmcs	f0, 4, [r8]
    2928:	0f000000 	svceq	0x00000000
    292c:	0000002c 	andeq	r0, r0, ip, lsr #32
    2930:	08820000 	stmeq	r2, {}	; <UNPREDICTABLE>
    2934:	00040000 	andeq	r0, r4, r0
    2938:	00000bd4 	ldrdeq	r0, [r0], -r4
    293c:	03450104 	movteq	r0, #20740	; 0x5104
    2940:	a8010000 	stmdage	r1, {}	; <UNPREDICTABLE>
    2944:	d3000007 	movwle	r0, #7
    2948:	80000004 	andhi	r0, r0, r4
    294c:	a0000093 	mulge	r0, r3, r0
    2950:	42000005 	andmi	r0, r0, #5
    2954:	0200000c 	andeq	r0, r0, #12
    2958:	00650708 	rsbeq	r0, r5, r8, lsl #14
    295c:	04020000 	streq	r0, [r2], #-0
    2960:	00006f07 	andeq	r6, r0, r7, lsl #30
    2964:	06010200 	streq	r0, [r1], -r0, lsl #4
    2968:	000002db 	ldrdeq	r0, [r0], -fp
    296c:	ee050202 	cdp	2, 0, cr0, cr5, cr2, {0}
    2970:	02000002 	andeq	r0, r0, #2
    2974:	00a10504 	adceq	r0, r1, r4, lsl #10
    2978:	08020000 	stmdaeq	r2, {}	; <UNPREDICTABLE>
    297c:	00009c05 	andeq	r9, r0, r5, lsl #24
    2980:	08010200 	stmdaeq	r1, {r9}
    2984:	000002d9 	ldrdeq	r0, [r0], -r9
    2988:	b9070202 	stmdblt	r7, {r1, r9}
    298c:	02000001 	andeq	r0, r0, #1
    2990:	006a0704 	rsbeq	r0, sl, r4, lsl #14
    2994:	04030000 	streq	r0, [r3], #-0
    2998:	746e6905 	strbtvc	r6, [lr], #-2309	; 0x905
    299c:	07040200 	streq	r0, [r4, -r0, lsl #4]
    29a0:	00000255 	andeq	r0, r0, r5, asr r2
    29a4:	e2080102 	and	r0, r8, #-2147483648	; 0x80000000
    29a8:	04000002 	streq	r0, [r0], #-2
    29ac:	b20c0201 	andlt	r0, ip, #268435456	; 0x10000000
    29b0:	05000000 	streq	r0, [r0, #-0]
    29b4:	00000798 	muleq	r0, r8, r7
    29b8:	08610500 	stmdaeq	r1!, {r8, sl}^
    29bc:	05010000 	streq	r0, [r1, #-0]
    29c0:	00000884 	andeq	r0, r0, r4, lsl #17
    29c4:	08930504 	ldmeq	r3, {r2, r8, sl}
    29c8:	05050000 	streq	r0, [r5, #-0]
    29cc:	000008a2 	andeq	r0, r0, r2, lsr #17
    29d0:	08b10506 	ldmeq	r1!, {r1, r2, r8, sl}
    29d4:	05070000 	streq	r0, [r7, #-0]
    29d8:	000008c0 	andeq	r0, r0, r0, asr #17
    29dc:	08cf0503 	stmiaeq	pc, {r0, r1, r8, sl}^	; <UNPREDICTABLE>
    29e0:	00020000 	andeq	r0, r2, r0
    29e4:	00087806 	andeq	r7, r8, r6, lsl #16
    29e8:	79150200 	ldmdbvc	r5, {r9}
    29ec:	07000000 	streq	r0, [r0, -r0]
    29f0:	00000428 	andeq	r0, r0, r8, lsr #8
    29f4:	93803f01 	orrls	r3, r0, #1, 30
    29f8:	00d40000 	sbcseq	r0, r4, r0
    29fc:	9c010000 	stcls	0, cr0, [r1], {-0}
    2a00:	00000133 	andeq	r0, r0, r3, lsr r1
    2a04:	6e697008 	cdpvs	0, 6, cr7, cr9, cr8, {0}
    2a08:	2c3f0100 	ldfcss	f0, [pc], #-0	; 2a10 <_start-0x55f0>
    2a0c:	91000000 	mrsls	r0, (UNDEF: 0)
    2a10:	0900001b 	stmdbeq	r0, {r0, r1, r3, r4}
    2a14:	000007c8 	andeq	r0, r0, r8, asr #15
    2a18:	01334701 	teqeq	r3, r1, lsl #14
    2a1c:	1baf0000 	blne	febc2a24 <__bss_end__+0xfebb630c>
    2a20:	de090000 	cdple	0, 0, cr0, cr9, cr0, {0}
    2a24:	01000008 	tsteq	r0, r8
    2a28:	00002c49 	andeq	r2, r0, r9, asr #24
    2a2c:	001c0400 	andseq	r0, ip, r0, lsl #8
    2a30:	082c0900 	stmdaeq	ip!, {r8, fp}
    2a34:	57010000 	strpl	r0, [r1, -r0]
    2a38:	0000002c 	andeq	r0, r0, ip, lsr #32
    2a3c:	00001dd0 	ldrdeq	r1, [r0], -r0
    2a40:	0094140a 	addseq	r1, r4, sl, lsl #8
    2a44:	00084100 	andeq	r4, r8, r0, lsl #2
    2a48:	00012200 	andeq	r2, r1, r0, lsl #4
    2a4c:	50010b00 	andpl	r0, r1, r0, lsl #22
    2a50:	00007502 	andeq	r7, r0, r2, lsl #10
    2a54:	0094480c 	addseq	r4, r4, ip, lsl #16
    2a58:	00086200 	andeq	r6, r8, r0, lsl #4
    2a5c:	50010b00 	andpl	r0, r1, r0, lsl #22
    2a60:	00007502 	andeq	r7, r0, r2, lsl #10
    2a64:	39040d00 	stmdbcc	r4, {r8, sl, fp}
    2a68:	0e000001 	cdpeq	0, 0, cr0, cr0, cr1, {0}
    2a6c:	0000002c 	andeq	r0, r0, ip, lsr #32
    2a70:	00008707 	andeq	r8, r0, r7, lsl #14
    2a74:	54600100 	strbtpl	r0, [r0], #-256	; 0x100
    2a78:	38000094 	stmdacc	r0, {r2, r4, r7}
    2a7c:	01000000 	mrseq	r0, (UNDEF: 0)
    2a80:	0001969c 	muleq	r1, ip, r6
    2a84:	69700800 	ldmdbvs	r0!, {fp}^
    2a88:	6001006e 	andvs	r0, r1, lr, rrx
    2a8c:	0000002c 	andeq	r0, r0, ip, lsr #32
    2a90:	00001e00 	andeq	r1, r0, r0, lsl #28
    2a94:	0007c809 	andeq	ip, r7, r9, lsl #16
    2a98:	33670100 	cmncc	r7, #0, 2
    2a9c:	21000001 	tstcs	r0, r1
    2aa0:	0900001e 	stmdbeq	r0, {r1, r2, r3, r4}
    2aa4:	0000082c 	andeq	r0, r0, ip, lsr #16
    2aa8:	002c6801 	eoreq	r6, ip, r1, lsl #16
    2aac:	1e570000 	cdpne	0, 5, cr0, cr7, cr0, {0}
    2ab0:	840c0000 	strhi	r0, [ip], #-0
    2ab4:	62000094 	andvs	r0, r0, #148	; 0x94
    2ab8:	0b000008 	bleq	2ae0 <_start-0x5520>
    2abc:	31075101 	tstcc	r7, r1, lsl #2
    2ac0:	4f5001f3 	svcmi	0x005001f3
    2ac4:	0000241a 	andeq	r2, r0, sl, lsl r4
    2ac8:	00011d07 	andeq	r1, r1, r7, lsl #26
    2acc:	8c7b0100 	ldfhie	f0, [fp], #-0
    2ad0:	38000094 	stmdacc	r0, {r2, r4, r7}
    2ad4:	01000000 	mrseq	r0, (UNDEF: 0)
    2ad8:	0001ee9c 	muleq	r1, ip, lr
    2adc:	69700800 	ldmdbvs	r0!, {fp}^
    2ae0:	7b01006e 	blvc	42ca0 <__bss_end__+0x36588>
    2ae4:	0000002c 	andeq	r0, r0, ip, lsr #32
    2ae8:	00001e97 	muleq	r0, r7, lr
    2aec:	0007c809 	andeq	ip, r7, r9, lsl #16
    2af0:	33810100 	orrcc	r0, r1, #0, 2
    2af4:	b8000001 	stmdalt	r0, {r0}
    2af8:	0900001e 	stmdbeq	r0, {r1, r2, r3, r4}
    2afc:	0000082c 	andeq	r0, r0, ip, lsr #16
    2b00:	002c8201 	eoreq	r8, ip, r1, lsl #4
    2b04:	1eee0000 	cdpne	0, 14, cr0, cr14, cr0, {0}
    2b08:	bc0c0000 	stclt	0, cr0, [ip], {-0}
    2b0c:	62000094 	andvs	r0, r0, #148	; 0x94
    2b10:	0b000008 	bleq	2b38 <_start-0x54c8>
    2b14:	31075101 	tstcc	r7, r1, lsl #2
    2b18:	4f5001f3 	svcmi	0x005001f3
    2b1c:	0000241a 	andeq	r2, r0, sl, lsl r4
    2b20:	0003a207 	andeq	sl, r3, r7, lsl #4
    2b24:	c4950100 	ldrgt	r0, [r5], #256	; 0x100
    2b28:	cc000094 	stcgt	0, cr0, [r0], {148}	; 0x94
    2b2c:	01000000 	mrseq	r0, (UNDEF: 0)
    2b30:	0002649c 	muleq	r2, ip, r4
    2b34:	69700800 	ldmdbvs	r0!, {fp}^
    2b38:	9501006e 	strls	r0, [r1, #-110]	; 0x6e
    2b3c:	0000002c 	andeq	r0, r0, ip, lsr #32
    2b40:	00001f2e 	andeq	r1, r0, lr, lsr #30
    2b44:	0007c809 	andeq	ip, r7, r9, lsl #16
    2b48:	339b0100 	orrscc	r0, fp, #0, 2
    2b4c:	4c000001 	stcmi	0, cr0, [r0], {1}
    2b50:	0900001f 	stmdbeq	r0, {r0, r1, r2, r3, r4}
    2b54:	000008de 	ldrdeq	r0, [r0], -lr
    2b58:	002c9d01 	eoreq	r9, ip, r1, lsl #26
    2b5c:	1fa10000 	svcne	0x00a10000
    2b60:	2c090000 	stccs	0, cr0, [r9], {-0}
    2b64:	01000008 	tsteq	r0, r8
    2b68:	00002cab 	andeq	r2, r0, fp, lsr #25
    2b6c:	00216d00 	eoreq	r6, r1, r0, lsl #26
    2b70:	95580a00 	ldrbls	r0, [r8, #-2560]	; 0xa00
    2b74:	08410000 	stmdaeq	r1, {}^	; <UNPREDICTABLE>
    2b78:	02530000 	subseq	r0, r3, #0
    2b7c:	010b0000 	mrseq	r0, (UNDEF: 11)
    2b80:	00750250 	rsbseq	r0, r5, r0, asr r2
    2b84:	95840c00 	strls	r0, [r4, #3072]	; 0xc00
    2b88:	08620000 	stmdaeq	r2!, {}^	; <UNPREDICTABLE>
    2b8c:	010b0000 	mrseq	r0, (UNDEF: 11)
    2b90:	00750250 	rsbseq	r0, r5, r0, asr r2
    2b94:	d10f0000 	mrsle	r0, CPSR
    2b98:	01000007 	tsteq	r0, r7
    2b9c:	000064b2 			; <UNDEFINED> instruction: 0x000064b2
    2ba0:	00959000 	addseq	r9, r5, r0
    2ba4:	00004c00 	andeq	r4, r0, r0, lsl #24
    2ba8:	ac9c0100 	ldfges	f0, [ip], {0}
    2bac:	08000002 	stmdaeq	r0, {r1}
    2bb0:	006e6970 	rsbeq	r6, lr, r0, ror r9
    2bb4:	002cb201 	eoreq	fp, ip, r1, lsl #4
    2bb8:	218b0000 	orrcs	r0, fp, r0
    2bbc:	76100000 	ldrvc	r0, [r0], -r0
    2bc0:	2cb80100 	ldfcss	f0, [r8]
    2bc4:	e3000000 	movw	r0, #0
    2bc8:	11000021 	tstne	r0, r1, lsr #32
    2bcc:	000095b0 			; <UNDEFINED> instruction: 0x000095b0
    2bd0:	00000841 	andeq	r0, r0, r1, asr #16
    2bd4:	0095c011 	addseq	ip, r5, r1, lsl r0
    2bd8:	00084100 	andeq	r4, r8, r0, lsl #2
    2bdc:	34070000 	strcc	r0, [r7], #-0
    2be0:	01000000 	mrseq	r0, (UNDEF: 0)
    2be4:	0095dcc4 	addseq	sp, r5, r4, asr #25
    2be8:	00002400 	andeq	r2, r0, r0, lsl #8
    2bec:	fc9c0100 	ldc2	1, cr0, [ip], {0}
    2bf0:	08000002 	stmdaeq	r0, {r1}
    2bf4:	006e6970 	rsbeq	r6, lr, r0, ror r9
    2bf8:	002cc401 	eoreq	ip, ip, r1, lsl #8
    2bfc:	22190000 	andscs	r0, r9, #0
    2c00:	76080000 	strvc	r0, [r8], -r0
    2c04:	2cc40100 	stfcse	f0, [r4], {0}
    2c08:	53000000 	movwpl	r0, #0
    2c0c:	0a000022 	beq	2c9c <_start-0x5364>
    2c10:	000095f4 	strdeq	r9, [r0], -r4
    2c14:	0000013e 	andeq	r0, r0, lr, lsr r1
    2c18:	000002f2 	strdeq	r0, [r0], -r2
    2c1c:	0350010b 	cmpeq	r0, #-1073741822	; 0xc0000002
    2c20:	005001f3 	ldrsheq	r0, [r0], #-19	; 0xffffffed
    2c24:	0095fc11 	addseq	pc, r5, r1, lsl ip	; <UNPREDICTABLE>
    2c28:	00019600 	andeq	r9, r1, r0, lsl #12
    2c2c:	f0070000 			; <UNDEFINED> instruction: 0xf0070000
    2c30:	01000007 	tsteq	r0, r7
    2c34:	009600d0 	ldrsbeq	r0, [r6], r0	; <UNPREDICTABLE>
    2c38:	0000d800 	andeq	sp, r0, r0, lsl #16
    2c3c:	819c0100 	orrshi	r0, ip, r0, lsl #2
    2c40:	08000003 	stmdaeq	r0, {r0, r1}
    2c44:	006e6970 	rsbeq	r6, lr, r0, ror r9
    2c48:	002cd001 	eoreq	sp, ip, r1
    2c4c:	228d0000 	addcs	r0, sp, #0
    2c50:	34120000 	ldrcc	r0, [r2], #-0
    2c54:	01000008 	tsteq	r0, r8
    2c58:	0000b2d0 	ldrdeq	fp, [r0], -r0
    2c5c:	0022ab00 	eoreq	sl, r2, r0, lsl #22
    2c60:	07c80900 	strbeq	r0, [r8, r0, lsl #18]
    2c64:	d8010000 	stmdale	r1, {}	; <UNPREDICTABLE>
    2c68:	00000133 	andeq	r0, r0, r3, lsr r1
    2c6c:	000022cc 	andeq	r2, r0, ip, asr #5
    2c70:	0008de09 	andeq	sp, r8, r9, lsl #28
    2c74:	2cd90100 	ldfcse	f0, [r9], {0}
    2c78:	21000000 	mrscs	r0, (UNDEF: 0)
    2c7c:	09000023 	stmdbeq	r0, {r0, r1, r5}
    2c80:	0000082c 	andeq	r0, r0, ip, lsr #16
    2c84:	002ce701 	eoreq	lr, ip, r1, lsl #14
    2c88:	24ed0000 	strbtcs	r0, [sp], #0
    2c8c:	9c0a0000 	stcls	0, cr0, [sl], {-0}
    2c90:	41000096 	swpmi	r0, r6, [r0]	; <UNPREDICTABLE>
    2c94:	70000008 	andvc	r0, r0, r8
    2c98:	0b000003 	bleq	2cac <_start-0x5354>
    2c9c:	76025001 	strvc	r5, [r2], -r1
    2ca0:	cc0c0000 	stcgt	0, cr0, [ip], {-0}
    2ca4:	62000096 	andvs	r0, r0, #150	; 0x96
    2ca8:	0b000008 	bleq	2cd0 <_start-0x5330>
    2cac:	76025001 	strvc	r5, [r2], -r1
    2cb0:	07000000 	streq	r0, [r0, -r0]
    2cb4:	00000839 	andeq	r0, r0, r9, lsr r8
    2cb8:	96d8f001 	ldrbls	pc, [r8], r1	; <UNPREDICTABLE>
    2cbc:	00380000 	eorseq	r0, r8, r0
    2cc0:	9c010000 	stcls	0, cr0, [r1], {-0}
    2cc4:	000003d9 	ldrdeq	r0, [r0], -r9
    2cc8:	6e697008 	cdpvs	0, 6, cr7, cr9, cr8, {0}
    2ccc:	2cf00100 	ldfcse	f0, [r0]
    2cd0:	1e000000 	cdpne	0, 0, cr0, cr0, cr0, {0}
    2cd4:	09000025 	stmdbeq	r0, {r0, r2, r5}
    2cd8:	000007c8 	andeq	r0, r0, r8, asr #15
    2cdc:	0133f601 	teqeq	r3, r1, lsl #12
    2ce0:	253f0000 	ldrcs	r0, [pc, #-0]!	; 2ce8 <_start-0x5318>
    2ce4:	2c090000 	stccs	0, cr0, [r9], {-0}
    2ce8:	01000008 	tsteq	r0, r8
    2cec:	00002cf7 	strdeq	r2, [r0], -r7
    2cf0:	00257500 	eoreq	r7, r5, r0, lsl #10
    2cf4:	97080c00 	strls	r0, [r8, -r0, lsl #24]
    2cf8:	08620000 	stmdaeq	r2!, {}^	; <UNPREDICTABLE>
    2cfc:	010b0000 	mrseq	r0, (UNDEF: 11)
    2d00:	f3310751 	vaba.u<illegal width 64>	q0, <illegal reg q0.5>, <illegal reg q0.5>
    2d04:	1a4f5001 	bne	13d6d10 <__bss_end__+0x13ca5f8>
    2d08:	13000024 	movwne	r0, #36	; 0x24
    2d0c:	0000078c 	andeq	r0, r0, ip, lsl #15
    2d10:	64011e01 	strvs	r1, [r1], #-3585	; 0xe01
    2d14:	10000000 	andne	r0, r0, r0
    2d18:	2c000097 	stccs	0, cr0, [r0], {151}	; 0x97
    2d1c:	01000000 	mrseq	r0, (UNDEF: 0)
    2d20:	00040d9c 	muleq	r4, ip, sp
    2d24:	078f1400 	streq	r1, [pc, r0, lsl #8]
    2d28:	1e010000 	cdpne	0, 0, cr0, cr1, cr0, {0}
    2d2c:	00002c01 	andeq	r2, r0, r1, lsl #24
    2d30:	0025b500 	eoreq	fp, r5, r0, lsl #10
    2d34:	97201100 	strls	r1, [r0, -r0, lsl #2]!
    2d38:	08410000 	stmdaeq	r1, {}^	; <UNPREDICTABLE>
    2d3c:	15000000 	strne	r0, [r0, #-0]
    2d40:	000007db 	ldrdeq	r0, [r0], -fp
    2d44:	3c012d01 	stccc	13, cr2, [r1], {1}
    2d48:	84000097 	strhi	r0, [r0], #-151	; 0x97
    2d4c:	01000000 	mrseq	r0, (UNDEF: 0)
    2d50:	0004d19c 	muleq	r4, ip, r1
    2d54:	69701600 	ldmdbvs	r0!, {r9, sl, ip}^
    2d58:	2d01006e 	stccs	0, cr0, [r1, #-440]	; 0xfffffe48
    2d5c:	00002c01 	andeq	r2, r0, r1, lsl #24
    2d60:	0025d600 	eoreq	sp, r5, r0, lsl #12
    2d64:	07b61700 	ldreq	r1, [r6, r0, lsl #14]!
    2d68:	3f010000 	svccc	0x00010000
    2d6c:	00002c01 	andeq	r2, r0, r1, lsl #24
    2d70:	00260200 	eoreq	r0, r6, r0, lsl #4
    2d74:	97581800 	ldrbls	r1, [r8, -r0, lsl #16]
    2d78:	001c0000 	andseq	r0, ip, r0
    2d7c:	04730000 	ldrbteq	r0, [r3], #-0
    2d80:	2c170000 	ldccs	0, cr0, [r7], {-0}
    2d84:	01000008 	tsteq	r0, r8
    2d88:	002c0136 	eoreq	r0, ip, r6, lsr r1
    2d8c:	26200000 	strtcs	r0, [r0], -r0
    2d90:	64110000 	ldrvs	r0, [r1], #-0
    2d94:	41000097 	swpmi	r0, r7, [r0]	; <UNPREDICTABLE>
    2d98:	11000008 	tstne	r0, r8
    2d9c:	00009774 	andeq	r9, r0, r4, ror r7
    2da0:	00000862 	andeq	r0, r0, r2, ror #16
    2da4:	97781800 	ldrbls	r1, [r8, -r0, lsl #16]!
    2da8:	00200000 	eoreq	r0, r0, r0
    2dac:	04a30000 	strteq	r0, [r3], #0
    2db0:	2c170000 	ldccs	0, cr0, [r7], {-0}
    2db4:	01000008 	tsteq	r0, r8
    2db8:	002c013a 	eoreq	r0, ip, sl, lsr r1
    2dbc:	263e0000 	ldrtcs	r0, [lr], -r0
    2dc0:	84110000 	ldrhi	r0, [r1], #-0
    2dc4:	41000097 	swpmi	r0, r7, [r0]	; <UNPREDICTABLE>
    2dc8:	11000008 	tstne	r0, r8
    2dcc:	00009798 	muleq	r0, r8, r7
    2dd0:	00000862 	andeq	r0, r0, r2, ror #16
    2dd4:	97501100 	ldrbls	r1, [r0, -r0, lsl #2]
    2dd8:	087e0000 	ldmdaeq	lr!, {}^	; <UNPREDICTABLE>
    2ddc:	9c110000 	ldcls	0, cr0, [r1], {-0}
    2de0:	7e000097 	mcrvc	0, 0, r0, cr0, cr7, {4}
    2de4:	11000008 	tstne	r0, r8
    2de8:	000097a8 	andeq	r9, r0, r8, lsr #15
    2dec:	00000841 	andeq	r0, r0, r1, asr #16
    2df0:	0097b411 	addseq	fp, r7, r1, lsl r4
    2df4:	00086200 	andeq	r6, r8, r0, lsl #4
    2df8:	97b81100 	ldrls	r1, [r8, r0, lsl #2]!
    2dfc:	087e0000 	ldmdaeq	lr!, {}^	; <UNPREDICTABLE>
    2e00:	15000000 	strne	r0, [r0, #-0]
    2e04:	00000462 	andeq	r0, r0, r2, ror #8
    2e08:	c0014a01 	andgt	r4, r1, r1, lsl #20
    2e0c:	84000097 	strhi	r0, [r0], #-151	; 0x97
    2e10:	01000000 	mrseq	r0, (UNDEF: 0)
    2e14:	0005959c 	muleq	r5, ip, r5
    2e18:	69701600 	ldmdbvs	r0!, {r9, sl, ip}^
    2e1c:	4a01006e 	bmi	42fdc <__bss_end__+0x368c4>
    2e20:	00002c01 	andeq	r2, r0, r1, lsl #24
    2e24:	00265c00 	eoreq	r5, r6, r0, lsl #24
    2e28:	07b61700 	ldreq	r1, [r6, r0, lsl #14]!
    2e2c:	5b010000 	blpl	42e34 <__bss_end__+0x3671c>
    2e30:	00002c01 	andeq	r2, r0, r1, lsl #24
    2e34:	00268800 	eoreq	r8, r6, r0, lsl #16
    2e38:	97dc1800 	ldrbls	r1, [ip, r0, lsl #16]
    2e3c:	001c0000 	andseq	r0, ip, r0
    2e40:	05370000 	ldreq	r0, [r7, #-0]!
    2e44:	2c170000 	ldccs	0, cr0, [r7], {-0}
    2e48:	01000008 	tsteq	r0, r8
    2e4c:	002c0152 	eoreq	r0, ip, r2, asr r1
    2e50:	26a60000 	strtcs	r0, [r6], r0
    2e54:	e8110000 	ldmda	r1, {}	; <UNPREDICTABLE>
    2e58:	41000097 	swpmi	r0, r7, [r0]	; <UNPREDICTABLE>
    2e5c:	11000008 	tstne	r0, r8
    2e60:	000097f8 	strdeq	r9, [r0], -r8
    2e64:	00000862 	andeq	r0, r0, r2, ror #16
    2e68:	97fc1800 	ldrbls	r1, [ip, r0, lsl #16]!
    2e6c:	00200000 	eoreq	r0, r0, r0
    2e70:	05670000 	strbeq	r0, [r7, #-0]!
    2e74:	2c170000 	ldccs	0, cr0, [r7], {-0}
    2e78:	01000008 	tsteq	r0, r8
    2e7c:	002c0156 	eoreq	r0, ip, r6, asr r1
    2e80:	26c40000 	strbcs	r0, [r4], r0
    2e84:	08110000 	ldmdaeq	r1, {}	; <UNPREDICTABLE>
    2e88:	41000098 	swpmi	r0, r8, [r0]	; <UNPREDICTABLE>
    2e8c:	11000008 	tstne	r0, r8
    2e90:	0000981c 	andeq	r9, r0, ip, lsl r8
    2e94:	00000862 	andeq	r0, r0, r2, ror #16
    2e98:	97d41100 	ldrbls	r1, [r4, r0, lsl #2]
    2e9c:	087e0000 	ldmdaeq	lr!, {}^	; <UNPREDICTABLE>
    2ea0:	20110000 	andscs	r0, r1, r0
    2ea4:	7e000098 	mcrvc	0, 0, r0, cr0, cr8, {4}
    2ea8:	11000008 	tstne	r0, r8
    2eac:	0000982c 	andeq	r9, r0, ip, lsr #16
    2eb0:	00000841 	andeq	r0, r0, r1, asr #16
    2eb4:	00983811 	addseq	r3, r8, r1, lsl r8
    2eb8:	00086200 	andeq	r6, r8, r0, lsl #4
    2ebc:	983c1100 	ldmdals	ip!, {r8, ip}
    2ec0:	087e0000 	ldmdaeq	lr!, {}^	; <UNPREDICTABLE>
    2ec4:	13000000 	movwne	r0, #0
    2ec8:	00000764 	andeq	r0, r0, r4, ror #14
    2ecc:	64016501 	strvs	r6, [r1], #-1281	; 0x501
    2ed0:	44000000 	strmi	r0, [r0], #-0
    2ed4:	84000098 	strhi	r0, [r0], #-152	; 0x98
    2ed8:	01000000 	mrseq	r0, (UNDEF: 0)
    2edc:	00063b9c 	muleq	r6, ip, fp
    2ee0:	69701600 	ldmdbvs	r0!, {r9, sl, ip}^
    2ee4:	6501006e 	strvs	r0, [r1, #-110]	; 0x6e
    2ee8:	00002c01 	andeq	r2, r0, r1, lsl #24
    2eec:	0026e200 	eoreq	lr, r6, r0, lsl #4
    2ef0:	98601800 	stmdals	r0!, {fp, ip}^
    2ef4:	00240000 	eoreq	r0, r4, r0
    2ef8:	05ef0000 	strbeq	r0, [pc, #0]!	; 2f00 <_start-0x5100>
    2efc:	bf170000 	svclt	0x00170000
    2f00:	01000007 	tsteq	r0, r7
    2f04:	002c016c 	eoreq	r0, ip, ip, ror #2
    2f08:	27240000 	strcs	r0, [r4, -r0]!
    2f0c:	6c110000 	ldcvs	0, cr0, [r1], {-0}
    2f10:	41000098 	swpmi	r0, r8, [r0]	; <UNPREDICTABLE>
    2f14:	11000008 	tstne	r0, r8
    2f18:	0000987c 	andeq	r9, r0, ip, ror r8
    2f1c:	0000087e 	andeq	r0, r0, lr, ror r8
    2f20:	98841800 	stmls	r4, {fp, ip}
    2f24:	002c0000 	eoreq	r0, ip, r0
    2f28:	06280000 	strteq	r0, [r8], -r0
    2f2c:	bf170000 	svclt	0x00170000
    2f30:	01000007 	tsteq	r0, r7
    2f34:	002c016f 	eoreq	r0, ip, pc, ror #2
    2f38:	273e0000 	ldrcs	r0, [lr, -r0]!
    2f3c:	90110000 	andsls	r0, r1, r0
    2f40:	41000098 	swpmi	r0, r8, [r0]	; <UNPREDICTABLE>
    2f44:	11000008 	tstne	r0, r8
    2f48:	0000989c 	muleq	r0, ip, r8
    2f4c:	0000087e 	andeq	r0, r0, lr, ror r8
    2f50:	0098a811 	addseq	sl, r8, r1, lsl r8
    2f54:	00087e00 	andeq	r7, r8, r0, lsl #28
    2f58:	58110000 	ldmdapl	r1, {}	; <UNPREDICTABLE>
    2f5c:	7e000098 	mcrvc	0, 0, r0, cr0, cr8, {4}
    2f60:	11000008 	tstne	r0, r8
    2f64:	000098b4 			; <UNDEFINED> instruction: 0x000098b4
    2f68:	0000087e 	andeq	r0, r0, lr, ror r8
    2f6c:	01921500 	orrseq	r1, r2, r0, lsl #10
    2f70:	78010000 	stmdavc	r1, {}	; <UNPREDICTABLE>
    2f74:	0098c801 	addseq	ip, r8, r1, lsl #16
    2f78:	00005800 	andeq	r5, r0, r0, lsl #16
    2f7c:	a09c0100 	addsge	r0, ip, r0, lsl #2
    2f80:	16000006 	strne	r0, [r0], -r6
    2f84:	006e6970 	rsbeq	r6, lr, r0, ror r9
    2f88:	2c017801 	stccs	8, cr7, [r1], {1}
    2f8c:	51000000 	mrspl	r0, (UNDEF: 0)
    2f90:	11000027 	tstne	r0, r7, lsr #32
    2f94:	000098dc 	ldrdeq	r9, [r0], -ip
    2f98:	0000087e 	andeq	r0, r0, lr, ror r8
    2f9c:	0098f80a 	addseq	pc, r8, sl, lsl #16
    2fa0:	00086200 	andeq	r6, r8, r0, lsl #4
    2fa4:	00068000 	andeq	r8, r6, r0
    2fa8:	51010b00 	tstpl	r1, r0, lsl #22
    2fac:	00743104 	rsbseq	r3, r4, r4, lsl #2
    2fb0:	140a0024 	strne	r0, [sl], #-36	; 0x24
    2fb4:	62000099 	andvs	r0, r0, #153	; 0x99
    2fb8:	96000008 	strls	r0, [r0], -r8
    2fbc:	0b000006 	bleq	2fdc <_start-0x5024>
    2fc0:	31045101 	tstcc	r4, r1, lsl #2
    2fc4:	00240074 	eoreq	r0, r4, r4, ror r0
    2fc8:	00991811 	addseq	r1, r9, r1, lsl r8
    2fcc:	00087e00 	andeq	r7, r8, r0, lsl #28
    2fd0:	31190000 	tstcc	r9, r0
    2fd4:	01000002 	tsteq	r0, r2
    2fd8:	00013328 	andeq	r3, r1, r8, lsr #6
    2fdc:	e8030500 	stmda	r3, {r8, sl}
    2fe0:	1900009d 	stmdbne	r0, {r0, r2, r3, r4, r7}
    2fe4:	00000327 	andeq	r0, r0, r7, lsr #6
    2fe8:	01332901 	teqeq	r3, r1, lsl #18
    2fec:	03050000 	movweq	r0, #20480	; 0x5000
    2ff0:	00009de4 	andeq	r9, r0, r4, ror #27
    2ff4:	00000f19 	andeq	r0, r0, r9, lsl pc
    2ff8:	332a0100 	teqcc	sl, #0, 2
    2ffc:	05000001 	streq	r0, [r0, #-1]
    3000:	009de003 	addseq	lr, sp, r3
    3004:	015f1900 	cmpeq	pc, r0, lsl #18
    3008:	2c010000 	stccs	0, cr0, [r1], {-0}
    300c:	00000133 	andeq	r0, r0, r3, lsr r1
    3010:	9d8c0305 	stcls	3, cr0, [ip, #20]
    3014:	67190000 	ldrvs	r0, [r9, -r0]
    3018:	01000001 	tsteq	r0, r1
    301c:	0001332d 	andeq	r3, r1, sp, lsr #6
    3020:	90030500 	andls	r0, r3, r0, lsl #10
    3024:	1900009d 	stmdbne	r0, {r0, r2, r3, r4, r7}
    3028:	00000007 	andeq	r0, r0, r7
    302c:	01332e01 	teqeq	r3, r1, lsl #28
    3030:	03050000 	movweq	r0, #20480	; 0x5000
    3034:	00009d94 	muleq	r0, r4, sp
    3038:	00016f19 	andeq	r6, r1, r9, lsl pc
    303c:	332f0100 	teqcc	pc, #0, 2
    3040:	05000001 	streq	r0, [r0, #-1]
    3044:	009d9803 	addseq	r9, sp, r3, lsl #16
    3048:	01771900 	cmneq	r7, r0, lsl #18
    304c:	30010000 	andcc	r0, r1, r0
    3050:	00000133 	andeq	r0, r0, r3, lsr r1
    3054:	9d9c0305 	ldcls	3, cr0, [ip, #20]
    3058:	7f190000 	svcvc	0x00190000
    305c:	01000001 	tsteq	r0, r1
    3060:	00013331 	andeq	r3, r1, r1, lsr r3
    3064:	a0030500 	andge	r0, r3, r0, lsl #10
    3068:	1900009d 	stmdbne	r0, {r0, r2, r3, r4, r7}
    306c:	000002e7 	andeq	r0, r0, r7, ror #5
    3070:	01333301 	teqeq	r3, r1, lsl #6
    3074:	03050000 	movweq	r0, #20480	; 0x5000
    3078:	00009da4 	andeq	r9, r0, r4, lsr #27
    307c:	0000d119 	andeq	sp, r0, r9, lsl r1
    3080:	33340100 	teqcc	r4, #0, 2
    3084:	05000001 	streq	r0, [r0, #-1]
    3088:	009da803 	addseq	sl, sp, r3, lsl #16
    308c:	00281900 	eoreq	r1, r8, r0, lsl #18
    3090:	36010000 	strcc	r0, [r1], -r0
    3094:	00000133 	andeq	r0, r0, r3, lsr r1
    3098:	9dac0305 	stcls	3, cr0, [ip, #20]!
    309c:	3c190000 	ldccc	0, cr0, [r9], {-0}
    30a0:	01000002 	tsteq	r0, r2
    30a4:	00013337 	andeq	r3, r1, r7, lsr r3
    30a8:	b0030500 	andlt	r0, r3, r0, lsl #10
    30ac:	1900009d 	stmdbne	r0, {r0, r2, r3, r4, r7}
    30b0:	00000102 	andeq	r0, r0, r2, lsl #2
    30b4:	01333901 	teqeq	r3, r1, lsl #18
    30b8:	03050000 	movweq	r0, #20480	; 0x5000
    30bc:	00009db4 			; <UNDEFINED> instruction: 0x00009db4
    30c0:	00010919 	andeq	r0, r1, r9, lsl r9
    30c4:	333a0100 	teqcc	sl, #0, 2
    30c8:	05000001 	streq	r0, [r0, #-1]
    30cc:	009db803 	addseq	fp, sp, r3, lsl #16
    30d0:	08101a00 	ldmdaeq	r0, {r9, fp, ip}
    30d4:	09010000 	stmdbeq	r1, {}	; <UNPREDICTABLE>
    30d8:	00013301 	andeq	r3, r1, r1, lsl #6
    30dc:	dc030500 	cfstr32le	mvfx0, [r3], {-0}
    30e0:	1a00009d 	bne	335c <_start-0x4ca4>
    30e4:	0000081e 	andeq	r0, r0, lr, lsl r8
    30e8:	33010a01 	movwcc	r0, #6657	; 0x1a01
    30ec:	05000001 	streq	r0, [r0, #-1]
    30f0:	009dbc03 	addseq	fp, sp, r3, lsl #24
    30f4:	08451a00 	stmdaeq	r5, {r9, fp, ip}^
    30f8:	0c010000 	stceq	0, cr0, [r1], {-0}
    30fc:	00013301 	andeq	r3, r1, r1, lsl #6
    3100:	d4030500 	strle	r0, [r3], #-1280	; 0x500
    3104:	1a00009d 	bne	3380 <_start-0x4c80>
    3108:	0000084c 	andeq	r0, r0, ip, asr #16
    310c:	33010d01 	movwcc	r0, #7425	; 0x1d01
    3110:	05000001 	streq	r0, [r0, #-1]
    3114:	009dd803 	addseq	sp, sp, r3, lsl #16
    3118:	08021a00 	stmdaeq	r2, {r9, fp, ip}
    311c:	0f010000 	svceq	0x00010000
    3120:	00013301 	andeq	r3, r1, r1, lsl #6
    3124:	c0030500 	andgt	r0, r3, r0, lsl #10
    3128:	1a00009d 	bne	33a4 <_start-0x4c5c>
    312c:	00000809 	andeq	r0, r0, r9, lsl #16
    3130:	33011001 	movwcc	r1, #4097	; 0x1001
    3134:	05000001 	streq	r0, [r0, #-1]
    3138:	009dc403 	addseq	ip, sp, r3, lsl #8
    313c:	08531a00 	ldmdaeq	r3, {r9, fp, ip}^
    3140:	12010000 	andne	r0, r1, #0
    3144:	00013301 	andeq	r3, r1, r1, lsl #6
    3148:	cc030500 	cfstr32gt	mvfx0, [r3], {-0}
    314c:	1a00009d 	bne	33c8 <_start-0x4c38>
    3150:	0000085a 	andeq	r0, r0, sl, asr r8
    3154:	33011301 	movwcc	r1, #4865	; 0x1301
    3158:	05000001 	streq	r0, [r0, #-1]
    315c:	009dd003 	addseq	sp, sp, r3
    3160:	077e1a00 	ldrbeq	r1, [lr, -r0, lsl #20]!
    3164:	15010000 	strne	r0, [r1, #-0]
    3168:	00013301 	andeq	r3, r1, r1, lsl #6
    316c:	c8030500 	stmdagt	r3, {r8, sl}
    3170:	1b00009d 	blne	33ec <_start-0x4c14>
    3174:	00000872 	andeq	r0, r0, r2, ror r8
    3178:	002c2001 	eoreq	r2, ip, r1
    317c:	08560000 	ldmdaeq	r6, {}^	; <UNPREDICTABLE>
    3180:	561c0000 	ldrpl	r0, [ip], -r0
    3184:	00000008 	andeq	r0, r0, r8
    3188:	085c040d 	ldmdaeq	ip, {r0, r2, r3, sl}^
    318c:	611d0000 	tstvs	sp, r0
    3190:	1e000008 	cdpne	0, 0, cr0, cr0, cr8, {0}
    3194:	0007781f 	andeq	r7, r7, pc, lsl r8
    3198:	781e0100 	ldmdavc	lr, {r8}
    319c:	1c000008 	stcne	0, cr0, [r0], {8}
    31a0:	00000878 	andeq	r0, r0, r8, ror r8
    31a4:	00002c1c 	andeq	r2, r0, ip, lsl ip
    31a8:	040d0000 	streq	r0, [sp], #-0
    31ac:	00000861 	andeq	r0, r0, r1, ror #16
    31b0:	0000f620 	andeq	pc, r0, r0, lsr #12
    31b4:	008a0300 	addeq	r0, sl, r0, lsl #6
    31b8:	000003ff 	strdeq	r0, [r0], -pc	; <UNPREDICTABLE>
    31bc:	0dae0004 	stceq	0, cr0, [lr, #16]!
    31c0:	01040000 	mrseq	r0, (UNDEF: 4)
    31c4:	00000345 	andeq	r0, r0, r5, asr #6
    31c8:	0009ba01 	andeq	fp, r9, r1, lsl #20
    31cc:	0004d300 	andeq	sp, r4, r0, lsl #6
    31d0:	00992000 	addseq	r2, r9, r0
    31d4:	00015400 	andeq	r5, r1, r0, lsl #8
    31d8:	000dc500 	andeq	ip, sp, r0, lsl #10
    31dc:	05040200 	streq	r0, [r4, #-512]	; 0x200
    31e0:	00746e69 	rsbseq	r6, r4, r9, ror #28
    31e4:	6f070403 	svcvs	0x00070403
    31e8:	03000000 	movweq	r0, #0
    31ec:	02db0601 	sbcseq	r0, fp, #1048576	; 0x100000
    31f0:	02030000 	andeq	r0, r3, #0
    31f4:	0002ee05 	andeq	lr, r2, r5, lsl #28
    31f8:	05040300 	streq	r0, [r4, #-768]	; 0x300
    31fc:	000000a1 	andeq	r0, r0, r1, lsr #1
    3200:	9c050803 	stcls	8, cr0, [r5], {3}
    3204:	03000000 	movweq	r0, #0
    3208:	02d90801 	sbcseq	r0, r9, #65536	; 0x10000
    320c:	02030000 	andeq	r0, r3, #0
    3210:	0001b907 	andeq	fp, r1, r7, lsl #18
    3214:	07040300 	streq	r0, [r4, -r0, lsl #6]
    3218:	0000006a 	andeq	r0, r0, sl, rrx
    321c:	65070803 	strvs	r0, [r7, #-2051]	; 0x803
    3220:	03000000 	movweq	r0, #0
    3224:	02550704 	subseq	r0, r5, #4, 14	; 0x100000
    3228:	01030000 	mrseq	r0, (UNDEF: 3)
    322c:	0002e208 	andeq	lr, r2, r8, lsl #4
    3230:	02010400 	andeq	r0, r1, #0, 8
    3234:	0000b20c 	andeq	fp, r0, ip, lsl #4
    3238:	07980500 	ldreq	r0, [r8, r0, lsl #10]
    323c:	05000000 	streq	r0, [r0, #-0]
    3240:	00000861 	andeq	r0, r0, r1, ror #16
    3244:	08840501 	stmeq	r4, {r0, r8, sl}
    3248:	05040000 	streq	r0, [r4, #-0]
    324c:	00000893 	muleq	r0, r3, r8
    3250:	08a20505 	stmiaeq	r2!, {r0, r2, r8, sl}
    3254:	05060000 	streq	r0, [r6, #-0]
    3258:	000008b1 			; <UNDEFINED> instruction: 0x000008b1
    325c:	08c00507 	stmiaeq	r0, {r0, r1, r2, r8, sl}^
    3260:	05030000 	streq	r0, [r3, #-0]
    3264:	000008cf 	andeq	r0, r0, pc, asr #17
    3268:	78060002 	stmdavc	r6, {r1}
    326c:	02000008 	andeq	r0, r0, #8
    3270:	00007915 	andeq	r7, r0, r5, lsl r9
    3274:	00500700 	subseq	r0, r0, r0, lsl #14
    3278:	37010000 	strcc	r0, [r1, -r0]
    327c:	00009920 	andeq	r9, r0, r0, lsr #18
    3280:	0000009c 	muleq	r0, ip, r0
    3284:	01c39c01 	biceq	r9, r3, r1, lsl #24
    3288:	28080000 	stmdacs	r8, {}	; <UNPREDICTABLE>
    328c:	a8000099 	stmdage	r0, {r0, r3, r4, r7}
    3290:	09000003 	stmdbeq	r0, {r0, r1}
    3294:	00009934 	andeq	r9, r0, r4, lsr r9
    3298:	000003af 	andeq	r0, r0, pc, lsr #7
    329c:	000000f3 	strdeq	r0, [r0], -r3
    32a0:	0151010a 	cmpeq	r1, sl, lsl #2
    32a4:	50010a32 	andpl	r0, r1, r2, lsr sl
    32a8:	09003e01 	stmdbeq	r0, {r0, r9, sl, fp, ip, sp}
    32ac:	00009940 	andeq	r9, r0, r0, asr #18
    32b0:	000003af 	andeq	r0, r0, pc, lsr #7
    32b4:	0000010b 	andeq	r0, r0, fp, lsl #2
    32b8:	0151010a 	cmpeq	r1, sl, lsl #2
    32bc:	50010a32 	andpl	r0, r1, r2, lsr sl
    32c0:	08003f01 	stmdaeq	r0, {r0, r8, r9, sl, fp, ip, sp}
    32c4:	00009944 	andeq	r9, r0, r4, asr #18
    32c8:	000003a8 	andeq	r0, r0, r8, lsr #7
    32cc:	00995409 	addseq	r5, r9, r9, lsl #8
    32d0:	0003c500 	andeq	ip, r3, r0, lsl #10
    32d4:	00012800 	andeq	r2, r1, r0, lsl #16
    32d8:	50010a00 	andpl	r0, r1, r0, lsl #20
    32dc:	00007502 	andeq	r7, r0, r2, lsl #10
    32e0:	00996009 	addseq	r6, r9, r9
    32e4:	0003e600 	andeq	lr, r3, r0, lsl #12
    32e8:	00013c00 	andeq	r3, r1, r0, lsl #24
    32ec:	50010a00 	andpl	r0, r1, r0, lsl #20
    32f0:	00007502 	andeq	r7, r0, r2, lsl #10
    32f4:	00996408 	addseq	r6, r9, r8, lsl #8
    32f8:	0003a800 	andeq	sl, r3, r0, lsl #16
    32fc:	99700900 	ldmdbls	r0!, {r8, fp}^
    3300:	03e60000 	mvneq	r0, #0
    3304:	01580000 	cmpeq	r8, r0
    3308:	010a0000 	mrseq	r0, (UNDEF: 10)
    330c:	00300151 	eorseq	r0, r0, r1, asr r1
    3310:	00997c09 	addseq	r7, r9, r9, lsl #24
    3314:	0003e600 	andeq	lr, r3, r0, lsl #12
    3318:	00016b00 	andeq	r6, r1, r0, lsl #22
    331c:	51010a00 	tstpl	r1, r0, lsl #20
    3320:	09003001 	stmdbeq	r0, {r0, ip, sp}
    3324:	00009988 	andeq	r9, r0, r8, lsl #19
    3328:	000003e6 	andeq	r0, r0, r6, ror #7
    332c:	0000017e 	andeq	r0, r0, lr, ror r1
    3330:	0151010a 	cmpeq	r1, sl, lsl #2
    3334:	94090036 	strls	r0, [r9], #-54	; 0x36
    3338:	e6000099 			; <UNDEFINED> instruction: 0xe6000099
    333c:	91000003 	tstls	r0, r3
    3340:	0a000001 	beq	334c <_start-0x4cb4>
    3344:	33015101 	movwcc	r5, #4353	; 0x1101
    3348:	99a00900 	stmibls	r0!, {r8, fp}
    334c:	03e60000 	mvneq	r0, #0
    3350:	01a60000 			; <UNDEFINED> instruction: 0x01a60000
    3354:	010a0000 	mrseq	r0, (UNDEF: 10)
    3358:	0e0a0351 	mcreq	3, 0, r0, cr10, cr1, {2}
    335c:	ac090001 	stcge	0, cr0, [r9], {1}
    3360:	e6000099 			; <UNDEFINED> instruction: 0xe6000099
    3364:	b9000003 	stmdblt	r0, {r0, r1}
    3368:	0a000001 	beq	3374 <_start-0x4c8c>
    336c:	33015101 	movwcc	r5, #4353	; 0x1101
    3370:	99b00800 	ldmibls	r0!, {fp}
    3374:	03a80000 			; <UNDEFINED> instruction: 0x03a80000
    3378:	0b000000 	bleq	3380 <_start-0x4c80>
    337c:	00000915 	andeq	r0, r0, r5, lsl r9
    3380:	00255701 	eoreq	r5, r5, r1, lsl #14
    3384:	99bc0000 	ldmibls	ip!, {}	; <UNPREDICTABLE>
    3388:	001c0000 	andseq	r0, ip, r0
    338c:	9c010000 	stcls	0, cr0, [r1], {-0}
    3390:	000001e6 	andeq	r0, r0, r6, ror #3
    3394:	0099cc08 	addseq	ip, r9, r8, lsl #24
    3398:	0003c500 	andeq	ip, r3, r0, lsl #10
    339c:	500b0000 	andpl	r0, fp, r0
    33a0:	01000009 	tsteq	r0, r9
    33a4:	0000255d 	andeq	r2, r0, sp, asr r5
    33a8:	0099d800 	addseq	sp, r9, r0, lsl #16
    33ac:	00002800 	andeq	r2, r0, r0, lsl #16
    33b0:	129c0100 	addsne	r0, ip, #0, 2
    33b4:	08000002 	stmdaeq	r0, {r1}
    33b8:	000099e0 	andeq	r9, r0, r0, ror #19
    33bc:	000001c3 	andeq	r0, r0, r3, asr #3
    33c0:	0099f408 	addseq	pc, r9, r8, lsl #8
    33c4:	0003c500 	andeq	ip, r3, r0, lsl #10
    33c8:	690b0000 	stmdbvs	fp, {}	; <UNPREDICTABLE>
    33cc:	01000009 	tsteq	r0, r9
    33d0:	00002564 	andeq	r2, r0, r4, ror #10
    33d4:	009a0000 	addseq	r0, sl, r0
    33d8:	00001c00 	andeq	r1, r0, r0, lsl #24
    33dc:	359c0100 	ldrcc	r0, [ip, #256]	; 0x100
    33e0:	08000002 	stmdaeq	r0, {r1}
    33e4:	00009a10 	andeq	r9, r0, r0, lsl sl
    33e8:	000003c5 	andeq	r0, r0, r5, asr #7
    33ec:	05520700 	ldrbeq	r0, [r2, #-1792]	; 0x700
    33f0:	6a010000 	bvs	433f8 <__bss_end__+0x36ce0>
    33f4:	00009a1c 	andeq	r9, r0, ip, lsl sl
    33f8:	0000002c 	andeq	r0, r0, ip, lsr #32
    33fc:	02719c01 	rsbseq	r9, r1, #256	; 0x100
    3400:	630c0000 	movwvs	r0, #49152	; 0xc000
    3404:	2c6a0100 	stfcse	f0, [sl], #-0
    3408:	7d000000 	stcvc	0, cr0, [r0, #-0]
    340c:	08000027 	stmdaeq	r0, {r0, r1, r2, r5}
    3410:	00009a28 	andeq	r9, r0, r8, lsr #20
    3414:	00000212 	andeq	r0, r0, r2, lsl r2
    3418:	009a400d 	addseq	r4, sl, sp
    341c:	0003e600 	andeq	lr, r3, r0, lsl #12
    3420:	51010a00 	tstpl	r1, r0, lsl #20
    3424:	00007402 	andeq	r7, r0, r2, lsl #8
    3428:	09330b00 	ldmdbeq	r3!, {r8, r9, fp}
    342c:	74010000 	strvc	r0, [r1], #-0
    3430:	00000025 	andeq	r0, r0, r5, lsr #32
    3434:	00009a48 	andeq	r9, r0, r8, asr #20
    3438:	0000000c 	andeq	r0, r0, ip
    343c:	02949c01 	addseq	r9, r4, #256	; 0x100
    3440:	50080000 	andpl	r0, r8, r0
    3444:	c300009a 	movwgt	r0, #154	; 0x9a
    3448:	00000001 	andeq	r0, r0, r1
    344c:	0009e60b 	andeq	lr, r9, fp, lsl #12
    3450:	25780100 	ldrbcs	r0, [r8, #-256]!	; 0x100
    3454:	54000000 	strpl	r0, [r0], #-0
    3458:	2000009a 	mulcs	r0, sl, r0
    345c:	01000000 	mrseq	r0, (UNDEF: 0)
    3460:	0002c09c 	muleq	r2, ip, r0
    3464:	9a5c0800 	bls	170546c <__bss_end__+0x16f8d54>
    3468:	02710000 	rsbseq	r0, r1, #0
    346c:	68080000 	stmdavs	r8, {}	; <UNPREDICTABLE>
    3470:	e600009a 			; <UNDEFINED> instruction: 0xe600009a
    3474:	00000001 	andeq	r0, r0, r1
    3478:	0009830e 	andeq	r8, r9, lr, lsl #6
    347c:	d1160100 	tstle	r6, r0, lsl #2
    3480:	05000002 	streq	r0, [r0, #-2]
    3484:	009e1c03 	addseq	r1, lr, r3, lsl #24
    3488:	d7040f00 	strle	r0, [r4, -r0, lsl #30]
    348c:	10000002 	andne	r0, r0, r2
    3490:	0000002c 	andeq	r0, r0, ip, lsr #32
    3494:	0009770e 	andeq	r7, r9, lr, lsl #14
    3498:	d1170100 	tstle	r7, r0, lsl #2
    349c:	05000002 	streq	r0, [r0, #-2]
    34a0:	009dec03 	addseq	lr, sp, r3, lsl #24
    34a4:	08f80e00 	ldmeq	r8!, {r9, sl, fp}^
    34a8:	1a010000 	bne	434b0 <__bss_end__+0x36d98>
    34ac:	000002d1 	ldrdeq	r0, [r0], -r1
    34b0:	9e080305 	cdpls	3, 0, cr0, cr8, cr5, {0}
    34b4:	410e0000 	mrsmi	r0, (UNDEF: 14)
    34b8:	01000009 	tsteq	r0, r9
    34bc:	0002d11b 	andeq	sp, r2, fp, lsl r1
    34c0:	f4030500 	vst3.8	{d0,d2,d4}, [r3], r0
    34c4:	0e00009d 	mcreq	0, 0, r0, cr0, cr13, {4}
    34c8:	0000095a 	andeq	r0, r0, sl, asr r9
    34cc:	02d11c01 	sbcseq	r1, r1, #256	; 0x100
    34d0:	03050000 	movweq	r0, #20480	; 0x5000
    34d4:	00009df8 	strdeq	r9, [r0], -r8
    34d8:	0009c80e 	andeq	ip, r9, lr, lsl #16
    34dc:	d11d0100 	tstle	sp, r0, lsl #2
    34e0:	05000002 	streq	r0, [r0, #-2]
    34e4:	009dfc03 	addseq	pc, sp, r3, lsl #24
    34e8:	08e90e00 	stmiaeq	r9!, {r9, sl, fp}^
    34ec:	1e010000 	cdpne	0, 0, cr0, cr1, cr0, {0}
    34f0:	000002d1 	ldrdeq	r0, [r0], -r1
    34f4:	9e180305 	cdpls	3, 1, cr0, cr8, cr5, {0}
    34f8:	d70e0000 	strle	r0, [lr, -r0]
    34fc:	01000009 	tsteq	r0, r9
    3500:	0002d11f 	andeq	sp, r2, pc, lsl r1
    3504:	04030500 	streq	r0, [r3], #-1280	; 0x500
    3508:	0e00009e 	mcreq	0, 0, r0, cr0, cr14, {4}
    350c:	00000906 	andeq	r0, r0, r6, lsl #18
    3510:	02d12001 	sbcseq	r2, r1, #1
    3514:	03050000 	movweq	r0, #20480	; 0x5000
    3518:	00009e14 	andeq	r9, r0, r4, lsl lr
    351c:	0009ab0e 	andeq	sl, r9, lr, lsl #22
    3520:	d1210100 	teqle	r1, r0, lsl #2
    3524:	05000002 	streq	r0, [r0, #-2]
    3528:	009e1003 	addseq	r1, lr, r3
    352c:	09230e00 	stmdbeq	r3!, {r9, sl, fp}
    3530:	22010000 	andcs	r0, r1, #0
    3534:	000002d1 	ldrdeq	r0, [r0], -r1
    3538:	9df00305 	ldclls	3, cr0, [r0, #20]!
    353c:	9b0e0000 	blls	383544 <__bss_end__+0x376e2c>
    3540:	01000009 	tsteq	r0, r9
    3544:	0002d123 	andeq	sp, r2, r3, lsr #2
    3548:	0c030500 	cfstr32eq	mvfx0, [r3], {-0}
    354c:	0e00009e 	mcreq	0, 0, r0, cr0, cr14, {4}
    3550:	0000098b 	andeq	r0, r0, fp, lsl #19
    3554:	02d12401 	sbcseq	r2, r1, #16777216	; 0x1000000
    3558:	03050000 	movweq	r0, #20480	; 0x5000
    355c:	00009e00 	andeq	r9, r0, r0, lsl #28
    3560:	0000f611 	andeq	pc, r0, r1, lsl r6	; <UNPREDICTABLE>
    3564:	128a0300 	addne	r0, sl, #0, 6
    3568:	000007f0 	strdeq	r0, [r0], -r0	; <UNPREDICTABLE>
    356c:	03c51902 	biceq	r1, r5, #32768	; 0x8000
    3570:	2c130000 	ldccs	0, cr0, [r3], {-0}
    3574:	13000000 	movwne	r0, #0
    3578:	000000b2 	strheq	r0, [r0], -r2
    357c:	08721400 	ldmdaeq	r2!, {sl, ip}^
    3580:	a9030000 	stmdbge	r3, {}	; <UNPREDICTABLE>
    3584:	0000002c 	andeq	r0, r0, ip, lsr #32
    3588:	000003da 	ldrdeq	r0, [r0], -sl
    358c:	0003da13 	andeq	sp, r3, r3, lsl sl
    3590:	040f0000 	streq	r0, [pc], #-0	; 3598 <_start-0x4a68>
    3594:	000003e0 	andeq	r0, r0, r0, ror #7
    3598:	0003e515 	andeq	lr, r3, r5, lsl r5
    359c:	78121600 	ldmdavc	r2, {r9, sl, ip}
    35a0:	03000007 	movweq	r0, #7
    35a4:	0003fc9d 	muleq	r3, sp, ip
    35a8:	03fc1300 	mvnseq	r1, #0, 6
    35ac:	2c130000 	ldccs	0, cr0, [r3], {-0}
    35b0:	00000000 	andeq	r0, r0, r0
    35b4:	03e5040f 	mvneq	r0, #251658240	; 0xf000000
    35b8:	9b000000 	blls	35c0 <_start-0x4a40>
    35bc:	04000002 	streq	r0, [r0], #-2
    35c0:	000edc00 	andeq	sp, lr, r0, lsl #24
    35c4:	45010400 	strmi	r0, [r1, #-1024]	; 0x400
    35c8:	01000003 	tsteq	r0, r3
    35cc:	00000a89 	andeq	r0, r0, r9, lsl #21
    35d0:	000004d3 	ldrdeq	r0, [r0], -r3
    35d4:	00009a74 	andeq	r9, r0, r4, ror sl
    35d8:	000000ac 	andeq	r0, r0, ip, lsr #1
    35dc:	00000eca 	andeq	r0, r0, sl, asr #29
    35e0:	69050402 	stmdbvs	r5, {r1, sl}
    35e4:	0300746e 	movweq	r7, #1134	; 0x46e
    35e8:	006f0704 	rsbeq	r0, pc, r4, lsl #14
    35ec:	01030000 	mrseq	r0, (UNDEF: 3)
    35f0:	0002db06 	andeq	sp, r2, r6, lsl #22
    35f4:	05020300 	streq	r0, [r2, #-768]	; 0x300
    35f8:	000002ee 	andeq	r0, r0, lr, ror #5
    35fc:	a1050403 	tstge	r5, r3, lsl #8
    3600:	03000000 	movweq	r0, #0
    3604:	009c0508 	addseq	r0, ip, r8, lsl #10
    3608:	01030000 	mrseq	r0, (UNDEF: 3)
    360c:	0002d908 	andeq	sp, r2, r8, lsl #18
    3610:	07020300 	streq	r0, [r2, -r0, lsl #6]
    3614:	000001b9 			; <UNDEFINED> instruction: 0x000001b9
    3618:	6a070403 	bvs	1c462c <__bss_end__+0x1b7f14>
    361c:	03000000 	movweq	r0, #0
    3620:	00650708 	rsbeq	r0, r5, r8, lsl #14
    3624:	04030000 	streq	r0, [r3], #-0
    3628:	00025507 	andeq	r5, r2, r7, lsl #10
    362c:	08010300 	stmdaeq	r1, {r8, r9}
    3630:	000002e2 	andeq	r0, r0, r2, ror #5
    3634:	007f0404 	rsbseq	r0, pc, r4, lsl #8
    3638:	72050000 	andvc	r0, r5, #0
    363c:	06000000 	streq	r0, [r0], -r0
    3640:	fb140304 	blx	50425a <__bss_end__+0x4f7b42>
    3644:	07000000 	streq	r0, [r0, -r0]
    3648:	00000aa9 	andeq	r0, r0, r9, lsr #21
    364c:	8082e480 	addhi	lr, r2, r0, lsl #9
    3650:	0a340702 	beq	d05260 <__bss_end__+0xcf8b48>
    3654:	e4800000 	str	r0, [r0], #0
    3658:	07028082 	streq	r8, [r2, -r2, lsl #1]
    365c:	00000ae6 	andeq	r0, r0, r6, ror #21
    3660:	8082e484 	addhi	lr, r2, r4, lsl #9
    3664:	09f60702 	ldmibeq	r6!, {r1, r8, r9, sl}^
    3668:	e4880000 	str	r0, [r8], #0
    366c:	07028082 	streq	r8, [r2, -r2, lsl #1]
    3670:	00000a17 	andeq	r0, r0, r7, lsl sl
    3674:	8082e48c 	addhi	lr, r2, ip, lsl #9
    3678:	0a580702 	beq	1605288 <__bss_end__+0x15f8b70>
    367c:	e4900000 	ldr	r0, [r0], #0
    3680:	07028082 	streq	r8, [r2, -r2, lsl #1]
    3684:	00000a66 	andeq	r0, r0, r6, ror #20
    3688:	8082e494 	umullhi	lr, r2, r4, r4
    368c:	0a460702 	beq	118529c <__bss_end__+0x1178b84>
    3690:	e4980000 	ldr	r0, [r8], #0
    3694:	07028082 	streq	r8, [r2, -r2, lsl #1]
    3698:	00000ab2 			; <UNDEFINED> instruction: 0x00000ab2
    369c:	8082e49c 	umullhi	lr, r2, ip, r4
    36a0:	0ac10702 	beq	ff0452b0 <__bss_end__+0xff038b98>
    36a4:	e4a00000 	strt	r0, [r0], #0
    36a8:	07028082 	streq	r8, [r2, -r2, lsl #1]
    36ac:	00000a04 	andeq	r0, r0, r4, lsl #20
    36b0:	8082e4a4 	addhi	lr, r2, r4, lsr #9
    36b4:	95080002 	strls	r0, [r8, #-2]
    36b8:	01000002 	tsteq	r0, r2
    36bc:	009a741b 	addseq	r7, sl, fp, lsl r4
    36c0:	00006800 	andeq	r6, r0, r0, lsl #16
    36c4:	a79c0100 	ldrge	r0, [ip, r0, lsl #2]
    36c8:	09000001 	stmdbeq	r0, {r0}
    36cc:	00000a23 	andeq	r0, r0, r3, lsr #20
    36d0:	002c2301 	eoreq	r2, ip, r1, lsl #6
    36d4:	74090000 	strvc	r0, [r9], #-0
    36d8:	0100000a 	tsteq	r0, sl
    36dc:	00002c24 	andeq	r2, r0, r4, lsr #24
    36e0:	73640a00 	cmnvc	r4, #0, 20
    36e4:	27010074 	smlsdxcs	r1, r4, r0, r0
    36e8:	000001a7 	andeq	r0, r0, r7, lsr #3
    36ec:	72730b00 	rsbsvc	r0, r3, #0, 22
    36f0:	28010063 	stmdacs	r1, {r0, r1, r5, r6}
    36f4:	000001a7 	andeq	r0, r0, r7, lsr #3
    36f8:	01006e0c 	tsteq	r0, ip, lsl #28
    36fc:	00002c29 	andeq	r2, r0, r9, lsr #24
    3700:	0d500100 	ldfeqe	f0, [r0, #-0]
    3704:	00009aa4 	andeq	r9, r0, r4, lsr #21
    3708:	00000024 	andeq	r0, r0, r4, lsr #32
    370c:	00000163 	andeq	r0, r0, r3, ror #2
    3710:	0100690e 	tsteq	r0, lr, lsl #18
    3714:	0000252a 	andeq	r2, r0, sl, lsr #10
    3718:	00279b00 	eoreq	r9, r7, r0, lsl #22
    371c:	840f0000 	strhi	r0, [pc], #-0	; 3724 <_start-0x48dc>
    3720:	5d00009a 	stcpl	0, cr0, [r0, #-616]	; 0xfffffd98
    3724:	80000002 	andhi	r0, r0, r2
    3728:	10000001 	andne	r0, r0, r1
    372c:	09025101 	stmdbeq	r2, {r0, r8, ip, lr}
    3730:	500110ff 	strdpl	r1, [r1], -pc	; <UNPREDICTABLE>
    3734:	b21c0c05 	andslt	r0, ip, #1280	; 0x500
    3738:	0f002000 	svceq	0x00002000
    373c:	00009a90 	muleq	r0, r0, sl
    3740:	0000025d 	andeq	r0, r0, sp, asr r2
    3744:	0000019d 	muleq	r0, sp, r1
    3748:	02510110 	subseq	r0, r1, #16, 2
    374c:	0110ff09 	tsteq	r0, r9, lsl #30
    3750:	200c0550 	andcs	r0, ip, r0, asr r5
    3754:	002000b2 	strhteq	r0, [r0], -r2
    3758:	009a9411 	addseq	r9, sl, r1, lsl r4
    375c:	00027300 	andeq	r7, r2, r0, lsl #6
    3760:	04040000 	streq	r0, [r4], #-0
    3764:	0000002c 	andeq	r0, r0, ip, lsr #32
    3768:	000ad008 	andeq	sp, sl, r8
    376c:	dc2e0100 	stfles	f0, [lr], #-0
    3770:	4400009a 	strmi	r0, [r0], #-154	; 0x9a
    3774:	01000000 	mrseq	r0, (UNDEF: 0)
    3778:	0002329c 	muleq	r2, ip, r2
    377c:	63701200 	cmnvs	r0, #0, 4
    3780:	2c2e0100 	stfcss	f0, [lr], #-0
    3784:	ba000000 	blt	378c <_start-0x4874>
    3788:	13000027 	movwne	r0, #39	; 0x27
    378c:	000001a3 	andeq	r0, r0, r3, lsr #3
    3790:	00000242 	andeq	r0, r0, r2, asr #4
    3794:	a10c0305 	tstge	ip, r5, lsl #6
    3798:	ec110000 	ldc	0, cr0, [r1], {-0}
    379c:	7a00009a 	bvc	3a0c <_start-0x45f4>
    37a0:	0f000002 	svceq	0x00000002
    37a4:	00009b0c 	andeq	r9, r0, ip, lsl #22
    37a8:	00000281 	andeq	r0, r0, r1, lsl #5
    37ac:	00000228 	andeq	r0, r0, r8, lsr #4
    37b0:	02530110 	subseq	r0, r3, #16, 2
    37b4:	01102f08 	tsteq	r0, r8, lsl #30
    37b8:	0c030552 	cfstr32eq	mvfx0, [r3], {82}	; 0x52
    37bc:	100000a1 	andne	r0, r0, r1, lsr #1
    37c0:	03055101 	movweq	r5, #20737	; 0x5101
    37c4:	0000a160 	andeq	sl, r0, r0, ror #2
    37c8:	05500110 	ldrbeq	r0, [r0, #-272]	; 0x110
    37cc:	00a12403 	adceq	r2, r1, r3, lsl #8
    37d0:	7d021000 	stcvc	0, cr1, [r2, #-0]
    37d4:	00740204 	rsbseq	r0, r4, r4, lsl #4
    37d8:	007d0210 	rsbseq	r0, sp, r0, lsl r2
    37dc:	a1800305 	orrge	r0, r0, r5, lsl #6
    37e0:	11000000 	mrsne	r0, (UNDEF: 0)
    37e4:	00009b10 	andeq	r9, r0, r0, lsl fp
    37e8:	00000297 	muleq	r0, r7, r2
    37ec:	00721400 	rsbseq	r1, r2, r0, lsl #8
    37f0:	02420000 	subeq	r0, r2, #0
    37f4:	6b150000 	blvs	5437fc <__bss_end__+0x5370e4>
    37f8:	15000000 	strne	r0, [r0, #-0]
    37fc:	02320500 	eorseq	r0, r2, #0, 10
    3800:	23090000 	movwcs	r0, #36864	; 0x9000
    3804:	0100000a 	tsteq	r0, sl
    3808:	00002c23 	andeq	r2, r0, r3, lsr #24
    380c:	0a740900 	beq	1d05c14 <__bss_end__+0x1cf94fc>
    3810:	24010000 	strcs	r0, [r1], #-0
    3814:	0000002c 	andeq	r0, r0, ip, lsr #32
    3818:	0006f016 	andeq	pc, r6, r6, lsl r0	; <UNPREDICTABLE>
    381c:	739c0200 	orrsvc	r0, ip, #0, 4
    3820:	17000002 	strne	r0, [r0, -r2]
    3824:	0000002c 	andeq	r0, r0, ip, lsr #32
    3828:	00002c17 	andeq	r2, r0, r7, lsl ip
    382c:	f6180000 			; <UNDEFINED> instruction: 0xf6180000
    3830:	02000000 	andeq	r0, r0, #0
    3834:	0150188a 	cmpeq	r0, sl, lsl #17
    3838:	1e020000 	cdpne	0, 0, cr0, cr2, cr0, {0}
    383c:	00053719 	andeq	r3, r5, r9, lsl r7
    3840:	25290200 	strcs	r0, [r9, #-512]!	; 0x200
    3844:	97000000 	strls	r0, [r0, -r0]
    3848:	17000002 	strne	r0, [r0, -r2]
    384c:	00000079 	andeq	r0, r0, r9, ror r0
    3850:	4318001a 	tstmi	r8, #26
    3854:	02000002 	andeq	r0, r0, #2
    3858:	013e0066 	teqeq	lr, r6, rrx
    385c:	00040000 	andeq	r0, r4, r0
    3860:	00001033 	andeq	r1, r0, r3, lsr r0
    3864:	03450104 	movteq	r0, #20740	; 0x5104
    3868:	f4010000 	vst4.8	{d0-d3}, [r1], r0
    386c:	d300000a 	movwle	r0, #10
    3870:	70000004 	andvc	r0, r0, r4
    3874:	4400009c 	strmi	r0, [r0], #-156	; 0x9c
    3878:	97000000 	strls	r0, [r0, -r0]
    387c:	0200000f 	andeq	r0, r0, #15
    3880:	6e690504 	cdpvs	5, 6, cr0, cr9, cr4, {0}
    3884:	04030074 	streq	r0, [r3], #-116	; 0x74
    3888:	00006f07 	andeq	r6, r0, r7, lsl #30
    388c:	06010300 	streq	r0, [r1], -r0, lsl #6
    3890:	000002db 	ldrdeq	r0, [r0], -fp
    3894:	ee050203 	cdp	2, 0, cr0, cr5, cr3, {0}
    3898:	03000002 	movweq	r0, #2
    389c:	00a10504 	adceq	r0, r1, r4, lsl #10
    38a0:	08030000 	stmdaeq	r3, {}	; <UNPREDICTABLE>
    38a4:	00009c05 	andeq	r9, r0, r5, lsl #24
    38a8:	08010300 	stmdaeq	r1, {r8, r9}
    38ac:	000002d9 	ldrdeq	r0, [r0], -r9
    38b0:	b9070203 	stmdblt	r7, {r0, r1, r9}
    38b4:	03000001 	movweq	r0, #1
    38b8:	006a0704 	rsbeq	r0, sl, r4, lsl #14
    38bc:	08030000 	stmdaeq	r3, {}	; <UNPREDICTABLE>
    38c0:	00006507 	andeq	r6, r0, r7, lsl #10
    38c4:	07040300 	streq	r0, [r4, -r0, lsl #6]
    38c8:	00000255 	andeq	r0, r0, r5, asr r2
    38cc:	e2080103 	and	r0, r8, #-1073741824	; 0xc0000000
    38d0:	04000002 	streq	r0, [r0], #-2
    38d4:	00007f04 	andeq	r7, r0, r4, lsl #30
    38d8:	00720500 	rsbseq	r0, r2, r0, lsl #10
    38dc:	22060000 	andcs	r0, r6, #0
    38e0:	0100000b 	tsteq	r0, fp
    38e4:	009c7002 	addseq	r7, ip, r2
    38e8:	00004400 	andeq	r4, r0, r0, lsl #8
    38ec:	089c0100 	ldmeq	ip, {r8}
    38f0:	07000001 	streq	r0, [r0, -r1]
    38f4:	01006370 	tsteq	r0, r0, ror r3
    38f8:	00002c02 	andeq	r2, r0, r2, lsl #24
    38fc:	0027d800 	eoreq	sp, r7, r0, lsl #16
    3900:	01a30800 			; <UNDEFINED> instruction: 0x01a30800
    3904:	01180000 	tsteq	r8, r0
    3908:	03050000 	movweq	r0, #20480	; 0x5000
    390c:	0000a188 	andeq	sl, r0, r8, lsl #3
    3910:	009c8009 	addseq	r8, ip, r9
    3914:	00011d00 	andeq	r1, r1, r0, lsl #26
    3918:	9ca00a00 	vstmials	r0!, {s0-s-1}
    391c:	01240000 	teqeq	r4, r0
    3920:	00fe0000 	rscseq	r0, lr, r0
    3924:	010b0000 	mrseq	r0, (UNDEF: 11)
    3928:	0b320153 	bleq	c83e7c <__bss_end__+0xc77764>
    392c:	03055201 	movweq	r5, #20993	; 0x5201
    3930:	0000a188 	andeq	sl, r0, r8, lsl #3
    3934:	0551010b 	ldrbeq	r0, [r1, #-267]	; 0x10b
    3938:	00a19c03 	adceq	r9, r1, r3, lsl #24
    393c:	50010b00 	andpl	r0, r1, r0, lsl #22
    3940:	a1240305 	teqge	r4, r5, lsl #6
    3944:	020b0000 	andeq	r0, fp, #0
    3948:	7402047d 	strvc	r0, [r2], #-1149	; 0x47d
    394c:	7d020b00 	vstrvc	d0, [r2, #-0]
    3950:	cc030500 	cfstr32gt	mvfx0, [r3], {-0}
    3954:	000000a1 	andeq	r0, r0, r1, lsr #1
    3958:	009ca409 	addseq	sl, ip, r9, lsl #8
    395c:	00013a00 	andeq	r3, r1, r0, lsl #20
    3960:	720c0000 	andvc	r0, ip, #0
    3964:	18000000 	stmdane	r0, {}	; <UNPREDICTABLE>
    3968:	0d000001 	stceq	0, cr0, [r0, #-4]
    396c:	0000006b 	andeq	r0, r0, fp, rrx
    3970:	08050011 	stmdaeq	r5, {r0, r4}
    3974:	0e000001 	cdpeq	0, 0, cr0, cr0, cr1, {0}
    3978:	00000150 	andeq	r0, r0, r0, asr r1
    397c:	370f1e02 	strcc	r1, [pc, -r2, lsl #28]
    3980:	02000005 	andeq	r0, r0, #5
    3984:	00002529 	andeq	r2, r0, r9, lsr #10
    3988:	00013a00 	andeq	r3, r1, r0, lsl #20
    398c:	00791000 	rsbseq	r1, r9, r0
    3990:	00110000 	andseq	r0, r1, r0
    3994:	0002430e 	andeq	r4, r2, lr, lsl #6
    3998:	00660200 	rsbeq	r0, r6, r0, lsl #4
    399c:	0000013e 	andeq	r0, r0, lr, lsr r1
    39a0:	110b0004 	tstne	fp, r4
    39a4:	01040000 	mrseq	r0, (UNDEF: 4)
    39a8:	00000345 	andeq	r0, r0, r5, asr #6
    39ac:	000b3401 	andeq	r3, fp, r1, lsl #8
    39b0:	0004d300 	andeq	sp, r4, r0, lsl #6
    39b4:	009cb400 	addseq	fp, ip, r0, lsl #8
    39b8:	00004400 	andeq	r4, r0, r0, lsl #8
    39bc:	00104000 	andseq	r4, r0, r0
    39c0:	05040200 	streq	r0, [r4, #-512]	; 0x200
    39c4:	00746e69 	rsbseq	r6, r4, r9, ror #28
    39c8:	6f070403 	svcvs	0x00070403
    39cc:	03000000 	movweq	r0, #0
    39d0:	02db0601 	sbcseq	r0, fp, #1048576	; 0x100000
    39d4:	02030000 	andeq	r0, r3, #0
    39d8:	0002ee05 	andeq	lr, r2, r5, lsl #28
    39dc:	05040300 	streq	r0, [r4, #-768]	; 0x300
    39e0:	000000a1 	andeq	r0, r0, r1, lsr #1
    39e4:	9c050803 	stcls	8, cr0, [r5], {3}
    39e8:	03000000 	movweq	r0, #0
    39ec:	02d90801 	sbcseq	r0, r9, #65536	; 0x10000
    39f0:	02030000 	andeq	r0, r3, #0
    39f4:	0001b907 	andeq	fp, r1, r7, lsl #18
    39f8:	07040300 	streq	r0, [r4, -r0, lsl #6]
    39fc:	0000006a 	andeq	r0, r0, sl, rrx
    3a00:	65070803 	strvs	r0, [r7, #-2051]	; 0x803
    3a04:	03000000 	movweq	r0, #0
    3a08:	02550704 	subseq	r0, r5, #4, 14	; 0x100000
    3a0c:	01030000 	mrseq	r0, (UNDEF: 3)
    3a10:	0002e208 	andeq	lr, r2, r8, lsl #4
    3a14:	7f040400 	svcvc	0x00040400
    3a18:	05000000 	streq	r0, [r0, #-0]
    3a1c:	00000072 	andeq	r0, r0, r2, ror r0
    3a20:	000b6006 	andeq	r6, fp, r6
    3a24:	b4020100 	strlt	r0, [r2], #-256	; 0x100
    3a28:	4400009c 	strmi	r0, [r0], #-156	; 0x9c
    3a2c:	01000000 	mrseq	r0, (UNDEF: 0)
    3a30:	0001089c 	muleq	r1, ip, r8
    3a34:	63700700 	cmnvs	r0, #0, 14
    3a38:	2c020100 	stfcss	f0, [r2], {-0}
    3a3c:	f6000000 			; <UNDEFINED> instruction: 0xf6000000
    3a40:	08000027 	stmdaeq	r0, {r0, r1, r2, r5}
    3a44:	000001a3 	andeq	r0, r0, r3, lsr #3
    3a48:	00000118 	andeq	r0, r0, r8, lsl r1
    3a4c:	a1d80305 	bicsge	r0, r8, r5, lsl #6
    3a50:	c4090000 	strgt	r0, [r9], #-0
    3a54:	1d00009c 	stcne	0, cr0, [r0, #-624]	; 0xfffffd90
    3a58:	0a000001 	beq	3a64 <_start-0x459c>
    3a5c:	00009ce4 	andeq	r9, r0, r4, ror #25
    3a60:	00000124 	andeq	r0, r0, r4, lsr #2
    3a64:	000000fe 	strdeq	r0, [r0], -lr
    3a68:	0153010b 	cmpeq	r3, fp, lsl #2
    3a6c:	52010b32 	andpl	r0, r1, #51200	; 0xc800
    3a70:	a1d80305 	bicsge	r0, r8, r5, lsl #6
    3a74:	010b0000 	mrseq	r0, (UNDEF: 11)
    3a78:	f0030551 			; <UNDEFINED> instruction: 0xf0030551
    3a7c:	0b0000a1 	bleq	3d08 <_start-0x42f8>
    3a80:	03055001 	movweq	r5, #20481	; 0x5001
    3a84:	0000a124 	andeq	sl, r0, r4, lsr #2
    3a88:	047d020b 	ldrbteq	r0, [sp], #-523	; 0x20b
    3a8c:	0b007402 	bleq	20a9c <__bss_end__+0x14384>
    3a90:	05007d02 	streq	r7, [r0, #-3330]	; 0xd02
    3a94:	00a21c03 	adceq	r1, r2, r3, lsl #24
    3a98:	e8090000 	stmda	r9, {}	; <UNPREDICTABLE>
    3a9c:	3a00009c 	bcc	3d14 <_start-0x42ec>
    3aa0:	00000001 	andeq	r0, r0, r1
    3aa4:	0000720c 	andeq	r7, r0, ip, lsl #4
    3aa8:	00011800 	andeq	r1, r1, r0, lsl #16
    3aac:	006b0d00 	rsbeq	r0, fp, r0, lsl #26
    3ab0:	00150000 	andseq	r0, r5, r0
    3ab4:	00010805 	andeq	r0, r1, r5, lsl #16
    3ab8:	01500e00 	cmpeq	r0, r0, lsl #28
    3abc:	1e020000 	cdpne	0, 0, cr0, cr2, cr0, {0}
    3ac0:	0005370f 	andeq	r3, r5, pc, lsl #14
    3ac4:	25290200 	strcs	r0, [r9, #-512]!	; 0x200
    3ac8:	3a000000 	bcc	3ad0 <_start-0x4530>
    3acc:	10000001 	andne	r0, r0, r1
    3ad0:	00000079 	andeq	r0, r0, r9, ror r0
    3ad4:	430e0011 	movwmi	r0, #57361	; 0xe011
    3ad8:	02000002 	andeq	r0, r0, #2
    3adc:	013e0066 	teqeq	lr, r6, rrx
    3ae0:	00040000 	andeq	r0, r4, r0
    3ae4:	000011e3 	andeq	r1, r0, r3, ror #3
    3ae8:	03450104 	movteq	r0, #20740	; 0x5104
    3aec:	83010000 	movwhi	r0, #4096	; 0x1000
    3af0:	d300000b 	movwle	r0, #11
    3af4:	f8000004 			; <UNDEFINED> instruction: 0xf8000004
    3af8:	4400009c 	strmi	r0, [r0], #-156	; 0x9c
    3afc:	e7000000 	str	r0, [r0, -r0]
    3b00:	02000010 	andeq	r0, r0, #16
    3b04:	6e690504 	cdpvs	5, 6, cr0, cr9, cr4, {0}
    3b08:	04030074 	streq	r0, [r3], #-116	; 0x74
    3b0c:	00006f07 	andeq	r6, r0, r7, lsl #30
    3b10:	06010300 	streq	r0, [r1], -r0, lsl #6
    3b14:	000002db 	ldrdeq	r0, [r0], -fp
    3b18:	ee050203 	cdp	2, 0, cr0, cr5, cr3, {0}
    3b1c:	03000002 	movweq	r0, #2
    3b20:	00a10504 	adceq	r0, r1, r4, lsl #10
    3b24:	08030000 	stmdaeq	r3, {}	; <UNPREDICTABLE>
    3b28:	00009c05 	andeq	r9, r0, r5, lsl #24
    3b2c:	08010300 	stmdaeq	r1, {r8, r9}
    3b30:	000002d9 	ldrdeq	r0, [r0], -r9
    3b34:	b9070203 	stmdblt	r7, {r0, r1, r9}
    3b38:	03000001 	movweq	r0, #1
    3b3c:	006a0704 	rsbeq	r0, sl, r4, lsl #14
    3b40:	08030000 	stmdaeq	r3, {}	; <UNPREDICTABLE>
    3b44:	00006507 	andeq	r6, r0, r7, lsl #10
    3b48:	07040300 	streq	r0, [r4, -r0, lsl #6]
    3b4c:	00000255 	andeq	r0, r0, r5, asr r2
    3b50:	e2080103 	and	r0, r8, #-1073741824	; 0xc0000000
    3b54:	04000002 	streq	r0, [r0], #-2
    3b58:	00007f04 	andeq	r7, r0, r4, lsl #30
    3b5c:	00720500 	rsbseq	r0, r2, r0, lsl #10
    3b60:	76060000 	strvc	r0, [r6], -r0
    3b64:	0100000b 	tsteq	r0, fp
    3b68:	009cf802 	addseq	pc, ip, r2, lsl #16
    3b6c:	00004400 	andeq	r4, r0, r0, lsl #8
    3b70:	089c0100 	ldmeq	ip, {r8}
    3b74:	07000001 	streq	r0, [r0, -r1]
    3b78:	01006370 	tsteq	r0, r0, ror r3
    3b7c:	00002c02 	andeq	r2, r0, r2, lsl #24
    3b80:	00281400 	eoreq	r1, r8, r0, lsl #8
    3b84:	01a30800 			; <UNDEFINED> instruction: 0x01a30800
    3b88:	01180000 	tsteq	r8, r0
    3b8c:	03050000 	movweq	r0, #20480	; 0x5000
    3b90:	0000a22c 	andeq	sl, r0, ip, lsr #4
    3b94:	009d0809 	addseq	r0, sp, r9, lsl #16
    3b98:	00011d00 	andeq	r1, r1, r0, lsl #26
    3b9c:	9d280a00 	vstmdbls	r8!, {s0-s-1}
    3ba0:	01240000 	teqeq	r4, r0
    3ba4:	00fe0000 	rscseq	r0, lr, r0
    3ba8:	010b0000 	mrseq	r0, (UNDEF: 11)
    3bac:	0b320153 	bleq	c84100 <__bss_end__+0xc779e8>
    3bb0:	03055201 	movweq	r5, #20993	; 0x5201
    3bb4:	0000a22c 	andeq	sl, r0, ip, lsr #4
    3bb8:	0551010b 	ldrbeq	r0, [r1, #-267]	; 0x10b
    3bbc:	00a23c03 	adceq	r3, r2, r3, lsl #24
    3bc0:	50010b00 	andpl	r0, r1, r0, lsl #22
    3bc4:	a1240305 	teqge	r4, r5, lsl #6
    3bc8:	020b0000 	andeq	r0, fp, #0
    3bcc:	7402047d 	strvc	r0, [r2], #-1149	; 0x47d
    3bd0:	7d020b00 	vstrvc	d0, [r2, #-0]
    3bd4:	68030500 	stmdavs	r3, {r8, sl}
    3bd8:	000000a2 	andeq	r0, r0, r2, lsr #1
    3bdc:	009d2c09 	addseq	r2, sp, r9, lsl #24
    3be0:	00013a00 	andeq	r3, r1, r0, lsl #20
    3be4:	720c0000 	andvc	r0, ip, #0
    3be8:	18000000 	stmdane	r0, {}	; <UNPREDICTABLE>
    3bec:	0d000001 	stceq	0, cr0, [r0, #-4]
    3bf0:	0000006b 	andeq	r0, r0, fp, rrx
    3bf4:	0805000c 	stmdaeq	r5, {r2, r3}
    3bf8:	0e000001 	cdpeq	0, 0, cr0, cr0, cr1, {0}
    3bfc:	00000150 	andeq	r0, r0, r0, asr r1
    3c00:	370f1e02 	strcc	r1, [pc, -r2, lsl #28]
    3c04:	02000005 	andeq	r0, r0, #5
    3c08:	00002529 	andeq	r2, r0, r9, lsr #10
    3c0c:	00013a00 	andeq	r3, r1, r0, lsl #20
    3c10:	00791000 	rsbseq	r1, r9, r0
    3c14:	00110000 	andseq	r0, r1, r0
    3c18:	0002430e 	andeq	r4, r2, lr, lsl #6
    3c1c:	00660200 	rsbeq	r0, r6, r0, lsl #4
    3c20:	0000013e 	andeq	r0, r0, lr, lsr r1
    3c24:	12bb0004 	adcsne	r0, fp, #4
    3c28:	01040000 	mrseq	r0, (UNDEF: 4)
    3c2c:	00000345 	andeq	r0, r0, r5, asr #6
    3c30:	000bac01 	andeq	sl, fp, r1, lsl #24
    3c34:	0004d300 	andeq	sp, r4, r0, lsl #6
    3c38:	009d3c00 	addseq	r3, sp, r0, lsl #24
    3c3c:	00004400 	andeq	r4, r0, r0, lsl #8
    3c40:	00118b00 	andseq	r8, r1, r0, lsl #22
    3c44:	05040200 	streq	r0, [r4, #-512]	; 0x200
    3c48:	00746e69 	rsbseq	r6, r4, r9, ror #28
    3c4c:	6f070403 	svcvs	0x00070403
    3c50:	03000000 	movweq	r0, #0
    3c54:	02db0601 	sbcseq	r0, fp, #1048576	; 0x100000
    3c58:	02030000 	andeq	r0, r3, #0
    3c5c:	0002ee05 	andeq	lr, r2, r5, lsl #28
    3c60:	05040300 	streq	r0, [r4, #-768]	; 0x300
    3c64:	000000a1 	andeq	r0, r0, r1, lsr #1
    3c68:	9c050803 	stcls	8, cr0, [r5], {3}
    3c6c:	03000000 	movweq	r0, #0
    3c70:	02d90801 	sbcseq	r0, r9, #65536	; 0x10000
    3c74:	02030000 	andeq	r0, r3, #0
    3c78:	0001b907 	andeq	fp, r1, r7, lsl #18
    3c7c:	07040300 	streq	r0, [r4, -r0, lsl #6]
    3c80:	0000006a 	andeq	r0, r0, sl, rrx
    3c84:	65070803 	strvs	r0, [r7, #-2051]	; 0x803
    3c88:	03000000 	movweq	r0, #0
    3c8c:	02550704 	subseq	r0, r5, #4, 14	; 0x100000
    3c90:	01030000 	mrseq	r0, (UNDEF: 3)
    3c94:	0002e208 	andeq	lr, r2, r8, lsl #4
    3c98:	7f040400 	svcvc	0x00040400
    3c9c:	05000000 	streq	r0, [r0, #-0]
    3ca0:	00000072 	andeq	r0, r0, r2, ror r0
    3ca4:	000bde06 	andeq	sp, fp, r6, lsl #28
    3ca8:	3c020100 	stfccs	f0, [r2], {-0}
    3cac:	4400009d 	strmi	r0, [r0], #-157	; 0x9d
    3cb0:	01000000 	mrseq	r0, (UNDEF: 0)
    3cb4:	0001089c 	muleq	r1, ip, r8
    3cb8:	63700700 	cmnvs	r0, #0, 14
    3cbc:	2c020100 	stfcss	f0, [r2], {-0}
    3cc0:	32000000 	andcc	r0, r0, #0
    3cc4:	08000028 	stmdaeq	r0, {r3, r5}
    3cc8:	000001a3 	andeq	r0, r0, r3, lsr #3
    3ccc:	00000118 	andeq	r0, r0, r8, lsl r1
    3cd0:	a2700305 	rsbsge	r0, r0, #335544320	; 0x14000000
    3cd4:	4c090000 	stcmi	0, cr0, [r9], {-0}
    3cd8:	1d00009d 	stcne	0, cr0, [r0, #-628]	; 0xfffffd8c
    3cdc:	0a000001 	beq	3ce8 <_start-0x4318>
    3ce0:	00009d6c 	andeq	r9, r0, ip, ror #26
    3ce4:	00000124 	andeq	r0, r0, r4, lsr #2
    3ce8:	000000fe 	strdeq	r0, [r0], -lr
    3cec:	0153010b 	cmpeq	r3, fp, lsl #2
    3cf0:	52010b32 	andpl	r0, r1, #51200	; 0xc800
    3cf4:	a2700305 	rsbsge	r0, r0, #335544320	; 0x14000000
    3cf8:	010b0000 	mrseq	r0, (UNDEF: 11)
    3cfc:	90030551 	andls	r0, r3, r1, asr r5
    3d00:	0b0000a2 	bleq	3f90 <_start-0x4070>
    3d04:	03055001 	movweq	r5, #20481	; 0x5001
    3d08:	0000a124 	andeq	sl, r0, r4, lsr #2
    3d0c:	047d020b 	ldrbteq	r0, [sp], #-523	; 0x20b
    3d10:	0b007402 	bleq	20d20 <__bss_end__+0x14608>
    3d14:	05007d02 	streq	r7, [r0, #-3330]	; 0xd02
    3d18:	00a2c403 	adceq	ip, r2, r3, lsl #8
    3d1c:	70090000 	andvc	r0, r9, r0
    3d20:	3a00009d 	bcc	3f9c <_start-0x4064>
    3d24:	00000001 	andeq	r0, r0, r1
    3d28:	0000720c 	andeq	r7, r0, ip, lsl #4
    3d2c:	00011800 	andeq	r1, r1, r0, lsl #16
    3d30:	006b0d00 	rsbeq	r0, fp, r0, lsl #26
    3d34:	001c0000 	andseq	r0, ip, r0
    3d38:	00010805 	andeq	r0, r1, r5, lsl #16
    3d3c:	01500e00 	cmpeq	r0, r0, lsl #28
    3d40:	1e020000 	cdpne	0, 0, cr0, cr2, cr0, {0}
    3d44:	0005370f 	andeq	r3, r5, pc, lsl #14
    3d48:	25290200 	strcs	r0, [r9, #-512]!	; 0x200
    3d4c:	3a000000 	bcc	3d54 <_start-0x42ac>
    3d50:	10000001 	andne	r0, r0, r1
    3d54:	00000079 	andeq	r0, r0, r9, ror r0
    3d58:	430e0011 	movwmi	r0, #57361	; 0xe011
    3d5c:	02000002 	andeq	r0, r0, #2
    3d60:	Address 0x0000000000003d60 is out of bounds.


Disassembly of section .debug_abbrev:

00000000 <.debug_abbrev>:
       0:	25011101 	strcs	r1, [r1, #-257]	; 0x101
       4:	030b130e 	movweq	r1, #45838	; 0xb30e
       8:	110e1b0e 	tstne	lr, lr, lsl #22
       c:	10061201 	andne	r1, r6, r1, lsl #4
      10:	02000017 	andeq	r0, r0, #23
      14:	0b0b0024 	bleq	2c00ac <__bss_end__+0x2b3994>
      18:	08030b3e 	stmdaeq	r3, {r1, r2, r3, r4, r5, r8, r9, fp}
      1c:	16030000 	strne	r0, [r3], -r0
      20:	3a0e0300 	bcc	380c28 <__bss_end__+0x374510>
      24:	490b3b0b 	stmdbmi	fp, {r0, r1, r3, r8, r9, fp, ip, sp}
      28:	04000013 	streq	r0, [r0], #-19
      2c:	0b0b0024 	bleq	2c00c4 <__bss_end__+0x2b39ac>
      30:	0e030b3e 	vmoveq.16	d3[0], r0
      34:	0f050000 	svceq	0x00050000
      38:	000b0b00 	andeq	r0, fp, r0, lsl #22
      3c:	000f0600 	andeq	r0, pc, r0, lsl #12
      40:	13490b0b 	movtne	r0, #39691	; 0x9b0b
      44:	26070000 	strcs	r0, [r7], -r0
      48:	00134900 	andseq	r4, r3, r0, lsl #18
      4c:	01010800 	tsteq	r1, r0, lsl #16
      50:	13011349 	movwne	r1, #4937	; 0x1349
      54:	21090000 	mrscs	r0, (UNDEF: 9)
      58:	2f134900 	svccs	0x00134900
      5c:	0a00000b 	beq	90 <_start-0x7f70>
      60:	0b0b0104 	bleq	2c0478 <__bss_end__+0x2b3d60>
      64:	0b3b0b3a 	bleq	ec2d54 <__bss_end__+0xeb663c>
      68:	00001301 	andeq	r1, r0, r1, lsl #6
      6c:	0300280b 	movweq	r2, #2059	; 0x80b
      70:	000d1c0e 	andeq	r1, sp, lr, lsl #24
      74:	01130c00 	tsteq	r3, r0, lsl #24
      78:	0b3a050b 	bleq	e814ac <__bss_end__+0xe74d94>
      7c:	13010b3b 	movwne	r0, #6971	; 0x1b3b
      80:	0d0d0000 	stceq	0, cr0, [sp, #-0]
      84:	3a0e0300 	bcc	380c8c <__bss_end__+0x374574>
      88:	490b3b0b 	stmdbmi	fp, {r0, r1, r3, r8, r9, fp, ip, sp}
      8c:	000b3813 	andeq	r3, fp, r3, lsl r8
      90:	000d0e00 	andeq	r0, sp, r0, lsl #28
      94:	0b3a0e03 	bleq	e838a8 <__bss_end__+0xe77190>
      98:	13490b3b 	movtne	r0, #39739	; 0x9b3b
      9c:	00000538 	andeq	r0, r0, r8, lsr r5
      a0:	03000d0f 	movweq	r0, #3343	; 0xd0f
      a4:	3b0b3a0e 	blcc	2ce8e4 <__bss_end__+0x2c21cc>
      a8:	0b13490b 	bleq	4d24dc <__bss_end__+0x4c5dc4>
      ac:	0c0b0d0b 	stceq	13, cr0, [fp], {11}
      b0:	0005380b 	andeq	r3, r5, fp, lsl #16
      b4:	00211000 	eoreq	r1, r1, r0
      b8:	052f1349 	streq	r1, [pc, #-841]!	; fffffd77 <__bss_end__+0xffff365f>
      bc:	35110000 	ldrcc	r0, [r1, #-0]
      c0:	00134900 	andseq	r4, r3, r0, lsl #18
      c4:	01131200 	tsteq	r3, r0, lsl #4
      c8:	0b3a0b0b 	bleq	e82cfc <__bss_end__+0xe765e4>
      cc:	13010b3b 	movwne	r0, #6971	; 0x1b3b
      d0:	0d130000 	ldceq	0, cr0, [r3, #-0]
      d4:	3a080300 	bcc	200cdc <__bss_end__+0x1f45c4>
      d8:	490b3b0b 	stmdbmi	fp, {r0, r1, r3, r8, r9, fp, ip, sp}
      dc:	000b3813 	andeq	r3, fp, r3, lsl r8
      e0:	012e1400 	teqeq	lr, r0, lsl #8
      e4:	0b3a0e03 	bleq	e838f8 <__bss_end__+0xe771e0>
      e8:	19270b3b 	stmdbne	r7!, {r0, r1, r3, r4, r5, r8, r9, fp}
      ec:	0b201349 	bleq	804e18 <__bss_end__+0x7f8700>
      f0:	00001301 	andeq	r1, r0, r1, lsl #6
      f4:	03000515 	movweq	r0, #1301	; 0x515
      f8:	3b0b3a08 	blcc	2ce920 <__bss_end__+0x2c2208>
      fc:	0013490b 	andseq	r4, r3, fp, lsl #18
     100:	012e1600 	teqeq	lr, r0, lsl #12
     104:	0b3a0e03 	bleq	e83918 <__bss_end__+0xe77200>
     108:	19270b3b 	stmdbne	r7!, {r0, r1, r3, r4, r5, r8, r9, fp}
     10c:	13010b20 	movwne	r0, #6944	; 0x1b20
     110:	34170000 	ldrcc	r0, [r7], #-0
     114:	3a0e0300 	bcc	380d1c <__bss_end__+0x374604>
     118:	490b3b0b 	stmdbmi	fp, {r0, r1, r3, r8, r9, fp, ip, sp}
     11c:	18000013 	stmdane	r0, {r0, r1, r4}
     120:	0e030005 	cdpeq	0, 0, cr0, cr3, cr5, {0}
     124:	0b3b0b3a 	bleq	ec2e14 <__bss_end__+0xeb66fc>
     128:	00001349 	andeq	r1, r0, r9, asr #6
     12c:	03003419 	movweq	r3, #1049	; 0x419
     130:	3b0b3a08 	blcc	2ce958 <__bss_end__+0x2c2240>
     134:	0013490b 	andseq	r4, r3, fp, lsl #18
     138:	010b1a00 	tsteq	fp, r0, lsl #20
     13c:	00001301 	andeq	r1, r0, r1, lsl #6
     140:	00010b1b 	andeq	r0, r1, fp, lsl fp
     144:	00341c00 	eorseq	r1, r4, r0, lsl #24
     148:	13490e03 	movtne	r0, #40451	; 0x9e03
     14c:	0e1c1934 	mrceq	9, 0, r1, cr12, cr4, {1}
     150:	2e1d0000 	cdpcs	0, 1, cr0, cr13, cr0, {0}
     154:	3a0e0301 	bcc	380d60 <__bss_end__+0x374648>
     158:	270b3b0b 	strcs	r3, [fp, -fp, lsl #22]
     15c:	12011119 	andne	r1, r1, #1073741830	; 0x40000006
     160:	97184006 	ldrls	r4, [r8, -r6]
     164:	13011942 	movwne	r1, #6466	; 0x1942
     168:	051e0000 	ldreq	r0, [lr, #-0]
     16c:	3a080300 	bcc	200d74 <__bss_end__+0x1f465c>
     170:	490b3b0b 	stmdbmi	fp, {r0, r1, r3, r8, r9, fp, ip, sp}
     174:	00170213 	andseq	r0, r7, r3, lsl r2
     178:	011d1f00 	tsteq	sp, r0, lsl #30
     17c:	01111331 	tsteq	r1, r1, lsr r3
     180:	0b580612 	bleq	16019d0 <__bss_end__+0x15f52b8>
     184:	13010b59 	movwne	r0, #7001	; 0x1b59
     188:	05200000 	streq	r0, [r0, #-0]!
     18c:	02133100 	andseq	r3, r3, #0, 2
     190:	21000017 	tstcs	r0, r7, lsl r0
     194:	13310005 	teqne	r1, #5
     198:	00001802 	andeq	r1, r0, r2, lsl #16
     19c:	11010b22 	tstne	r1, r2, lsr #22
     1a0:	00061201 	andeq	r1, r6, r1, lsl #4
     1a4:	00342300 	eorseq	r2, r4, r0, lsl #6
     1a8:	0b1c1331 	bleq	704e74 <__bss_end__+0x6f875c>
     1ac:	34240000 	strtcc	r0, [r4], #-0
     1b0:	02133100 	andseq	r3, r3, #0, 2
     1b4:	25000017 	strcs	r0, [r0, #-23]
     1b8:	0111010b 	tsteq	r1, fp, lsl #2
     1bc:	13010612 	movwne	r0, #5650	; 0x1612
     1c0:	1d260000 	stcne	0, cr0, [r6, #-0]
     1c4:	11133101 	tstne	r3, r1, lsl #2
     1c8:	58061201 	stmdapl	r6, {r0, r9, ip}
     1cc:	000b590b 	andeq	r5, fp, fp, lsl #18
     1d0:	00342700 	eorseq	r2, r4, r0, lsl #14
     1d4:	18021331 	stmdane	r2, {r0, r4, r5, r8, r9, ip}
     1d8:	1d280000 	stcne	0, cr0, [r8, #-0]
     1dc:	52133101 	andspl	r3, r3, #1073741824	; 0x40000000
     1e0:	58175501 	ldmdapl	r7, {r0, r8, sl, ip, lr}
     1e4:	010b590b 	tsteq	fp, fp, lsl #18
     1e8:	29000013 	stmdbcs	r0, {r0, r1, r4}
     1ec:	1755010b 	ldrbne	r0, [r5, -fp, lsl #2]
     1f0:	892a0000 	stmdbhi	sl!, {}	; <UNPREDICTABLE>
     1f4:	11000182 	smlabbne	r0, r2, r1, r0
     1f8:	00133101 	andseq	r3, r3, r1, lsl #2
     1fc:	82892b00 	addhi	r2, r9, #0, 22
     200:	01110101 	tsteq	r1, r1, lsl #2
     204:	13011331 	movwne	r1, #4913	; 0x1331
     208:	8a2c0000 	bhi	b00210 <__bss_end__+0xaf3af8>
     20c:	02000182 	andeq	r0, r0, #-2147483616	; 0x80000020
     210:	18429118 	stmdane	r2, {r3, r4, r8, ip, pc}^
     214:	892d0000 	pushhi	{}	; <UNPREDICTABLE>
     218:	11010182 	smlabbne	r1, r2, r1, r0
     21c:	00133101 	andseq	r3, r3, r1, lsl #2
     220:	012e2e00 	teqeq	lr, r0, lsl #28
     224:	0e03193f 	mcreq	9, 0, r1, cr3, cr15, {1}
     228:	0b3b0b3a 	bleq	ec2f18 <__bss_end__+0xeb6800>
     22c:	13491927 	movtne	r1, #39207	; 0x9927
     230:	06120111 			; <UNDEFINED> instruction: 0x06120111
     234:	42971840 	addsmi	r1, r7, #64, 16	; 0x400000
     238:	00130119 	andseq	r0, r3, r9, lsl r1
     23c:	00342f00 	eorseq	r2, r4, r0, lsl #30
     240:	13490e03 	movtne	r0, #40451	; 0x9e03
     244:	18021934 	stmdane	r2, {r2, r4, r5, r8, fp, ip}
     248:	34300000 	ldrtcc	r0, [r0], #-0
     24c:	3a0e0300 	bcc	380e54 <__bss_end__+0x37473c>
     250:	490b3b0b 	stmdbmi	fp, {r0, r1, r3, r8, r9, fp, ip, sp}
     254:	00170213 	andseq	r0, r7, r3, lsl r2
     258:	012e3100 	teqeq	lr, r0, lsl #2
     25c:	0e03193f 	mcreq	9, 0, r1, cr3, cr15, {1}
     260:	0b3b0b3a 	bleq	ec2f50 <__bss_end__+0xeb6838>
     264:	01111927 	tsteq	r1, r7, lsr #18
     268:	18400612 	stmdane	r0, {r1, r4, r9, sl}^
     26c:	01194297 			; <UNDEFINED> instruction: 0x01194297
     270:	32000013 	andcc	r0, r0, #19
     274:	13310005 	teqne	r1, #5
     278:	00000b1c 	andeq	r0, r0, ip, lsl fp
     27c:	03003433 	movweq	r3, #1075	; 0x433
     280:	3b0b3a08 	blcc	2ceaa8 <__bss_end__+0x2c2390>
     284:	1c13490b 	ldcne	9, cr4, [r3], {11}
     288:	3400000b 	strcc	r0, [r0], #-11
     28c:	0e030034 	mcreq	0, 0, r0, cr3, cr4, {1}
     290:	0b3b0b3a 	bleq	ec2f80 <__bss_end__+0xeb6868>
     294:	061c1349 	ldreq	r1, [ip], -r9, asr #6
     298:	34350000 	ldrtcc	r0, [r5], #-0
     29c:	3a0e0300 	bcc	380ea4 <__bss_end__+0x37478c>
     2a0:	490b3b0b 	stmdbmi	fp, {r0, r1, r3, r8, r9, fp, ip, sp}
     2a4:	00180213 	andseq	r0, r8, r3, lsl r2
     2a8:	00343600 	eorseq	r3, r4, r0, lsl #12
     2ac:	0b3a0803 	bleq	e822c0 <__bss_end__+0xe75ba8>
     2b0:	13490b3b 	movtne	r0, #39739	; 0x9b3b
     2b4:	00001802 	andeq	r1, r0, r2, lsl #16
     2b8:	03003437 	movweq	r3, #1079	; 0x437
     2bc:	3b0b3a0e 	blcc	2ceafc <__bss_end__+0x2c23e4>
     2c0:	3f13490b 	svccc	0x0013490b
     2c4:	00180219 	andseq	r0, r8, r9, lsl r2
     2c8:	002e3800 	eoreq	r3, lr, r0, lsl #16
     2cc:	0e03193f 	mcreq	9, 0, r1, cr3, cr15, {1}
     2d0:	0b3b0b3a 	bleq	ec2fc0 <__bss_end__+0xeb68a8>
     2d4:	193c1927 	ldmdbne	ip!, {r0, r1, r2, r5, r8, fp, ip}
     2d8:	2e390000 	cdpcs	0, 3, cr0, cr9, cr0, {0}
     2dc:	03193f01 	tsteq	r9, #1, 30
     2e0:	3b0b3a0e 	blcc	2ceb20 <__bss_end__+0x2c2408>
     2e4:	4919270b 	ldmdbmi	r9, {r0, r1, r3, r8, r9, sl, sp}
     2e8:	01193c13 	tsteq	r9, r3, lsl ip
     2ec:	3a000013 	bcc	340 <_start-0x7cc0>
     2f0:	13490005 	movtne	r0, #36869	; 0x9005
     2f4:	183b0000 	ldmdane	fp!, {}	; <UNPREDICTABLE>
     2f8:	3c000000 	stccc	0, cr0, [r0], {-0}
     2fc:	193f012e 	ldmdbne	pc!, {r1, r2, r3, r5, r8}	; <UNPREDICTABLE>
     300:	0b3a0e03 	bleq	e83b14 <__bss_end__+0xe773fc>
     304:	19270b3b 	stmdbne	r7!, {r0, r1, r3, r4, r5, r8, r9, fp}
     308:	1301193c 	movwne	r1, #6460	; 0x193c
     30c:	01000000 	mrseq	r0, (UNDEF: 0)
     310:	0e250111 	mcreq	1, 1, r0, cr5, cr1, {0}
     314:	0e030b13 	vmoveq.32	d3[0], r0
     318:	01110e1b 	tsteq	r1, fp, lsl lr
     31c:	17100612 			; <UNDEFINED> instruction: 0x17100612
     320:	24020000 	strcs	r0, [r2], #-0
     324:	3e0b0b00 	vmlacc.f64	d0, d11, d0
     328:	000e030b 	andeq	r0, lr, fp, lsl #6
     32c:	00240300 	eoreq	r0, r4, r0, lsl #6
     330:	0b3e0b0b 	bleq	f82f64 <__bss_end__+0xf7684c>
     334:	00000803 	andeq	r0, r0, r3, lsl #16
     338:	0b000f04 	bleq	3f50 <_start-0x40b0>
     33c:	0500000b 	streq	r0, [r0, #-11]
     340:	0b0b000f 	bleq	2c0384 <__bss_end__+0x2b3c6c>
     344:	00001349 	andeq	r1, r0, r9, asr #6
     348:	03001606 	movweq	r1, #1542	; 0x606
     34c:	3b0b3a0e 	blcc	2ceb8c <__bss_end__+0x2c2474>
     350:	0013490b 	andseq	r4, r3, fp, lsl #18
     354:	012e0700 	teqeq	lr, r0, lsl #14
     358:	0e03193f 	mcreq	9, 0, r1, cr3, cr15, {1}
     35c:	0b3b0b3a 	bleq	ec304c <__bss_end__+0xeb6934>
     360:	13491927 	movtne	r1, #39207	; 0x9927
     364:	06120111 			; <UNDEFINED> instruction: 0x06120111
     368:	42971840 	addsmi	r1, r7, #64, 16	; 0x400000
     36c:	08000019 	stmdaeq	r0, {r0, r3, r4}
     370:	08030005 	stmdaeq	r3, {r0, r2}
     374:	0b3b0b3a 	bleq	ec3064 <__bss_end__+0xeb694c>
     378:	18021349 	stmdane	r2, {r0, r3, r6, r8, r9, ip}
     37c:	05090000 	streq	r0, [r9, #-0]
     380:	3a080300 	bcc	200f88 <__bss_end__+0x1f4870>
     384:	490b3b0b 	stmdbmi	fp, {r0, r1, r3, r8, r9, fp, ip, sp}
     388:	00170213 	andseq	r0, r7, r3, lsl r2
     38c:	00340a00 	eorseq	r0, r4, r0, lsl #20
     390:	0b3a0803 	bleq	e823a4 <__bss_end__+0xe75c8c>
     394:	13490b3b 	movtne	r0, #39739	; 0x9b3b
     398:	00001702 	andeq	r1, r0, r2, lsl #14
     39c:	0300340b 	movweq	r3, #1035	; 0x40b
     3a0:	3b0b3a08 	blcc	2cebc8 <__bss_end__+0x2c24b0>
     3a4:	0213490b 	andseq	r4, r3, #180224	; 0x2c000
     3a8:	00000018 	andeq	r0, r0, r8, lsl r0
     3ac:	25011101 	strcs	r1, [r1, #-257]	; 0x101
     3b0:	030b130e 	movweq	r1, #45838	; 0xb30e
     3b4:	110e1b0e 	tstne	lr, lr, lsl #22
     3b8:	10061201 	andne	r1, r6, r1, lsl #4
     3bc:	02000017 	andeq	r0, r0, #23
     3c0:	0e030016 	mcreq	0, 0, r0, cr3, cr6, {0}
     3c4:	0b3b0b3a 	bleq	ec30b4 <__bss_end__+0xeb699c>
     3c8:	00001349 	andeq	r1, r0, r9, asr #6
     3cc:	03011303 	movweq	r1, #4867	; 0x1303
     3d0:	3a0b0b0e 	bcc	2c3010 <__bss_end__+0x2b68f8>
     3d4:	010b3b0b 	tsteq	fp, fp, lsl #22
     3d8:	04000013 	streq	r0, [r0], #-19
     3dc:	0e03000d 	cdpeq	0, 0, cr0, cr3, cr13, {0}
     3e0:	0b381349 	bleq	e0510c <__bss_end__+0xdf89f4>
     3e4:	00001934 	andeq	r1, r0, r4, lsr r9
     3e8:	0b000f05 	bleq	4004 <_start-0x3ffc>
     3ec:	0600000b 	streq	r0, [r0], -fp
     3f0:	0b0b0024 	bleq	2c0488 <__bss_end__+0x2b3d70>
     3f4:	08030b3e 	stmdaeq	r3, {r1, r2, r3, r4, r5, r8, r9, fp}
     3f8:	24070000 	strcs	r0, [r7], #-0
     3fc:	3e0b0b00 	vmlacc.f64	d0, d11, d0
     400:	000e030b 	andeq	r0, lr, fp, lsl #6
     404:	000f0800 	andeq	r0, pc, r0, lsl #16
     408:	13490b0b 	movtne	r0, #39691	; 0x9b0b
     40c:	26090000 	strcs	r0, [r9], -r0
     410:	00134900 	andseq	r4, r3, r0, lsl #18
     414:	012e0a00 	teqeq	lr, r0, lsl #20
     418:	0e03193f 	mcreq	9, 0, r1, cr3, cr15, {1}
     41c:	0b3b0b3a 	bleq	ec310c <__bss_end__+0xeb69f4>
     420:	13491927 	movtne	r1, #39207	; 0x9927
     424:	06120111 			; <UNDEFINED> instruction: 0x06120111
     428:	42971840 	addsmi	r1, r7, #64, 16	; 0x400000
     42c:	00130119 	andseq	r0, r3, r9, lsl r1
     430:	00050b00 	andeq	r0, r5, r0, lsl #22
     434:	0b3a0803 	bleq	e82448 <__bss_end__+0xe75d30>
     438:	13490b3b 	movtne	r0, #39739	; 0x9b3b
     43c:	00001802 	andeq	r1, r0, r2, lsl #16
     440:	0000180c 	andeq	r1, r0, ip, lsl #16
     444:	00340d00 	eorseq	r0, r4, r0, lsl #26
     448:	0b3a0803 	bleq	e8245c <__bss_end__+0xe75d44>
     44c:	13490b3b 	movtne	r0, #39739	; 0x9b3b
     450:	00001802 	andeq	r1, r0, r2, lsl #16
     454:	0300340e 	movweq	r3, #1038	; 0x40e
     458:	3b0b3a0e 	blcc	2cec98 <__bss_end__+0x2c2580>
     45c:	0213490b 	andseq	r4, r3, #180224	; 0x2c000
     460:	0f000018 	svceq	0x00000018
     464:	08030034 	stmdaeq	r3, {r2, r4, r5}
     468:	0b3b0b3a 	bleq	ec3158 <__bss_end__+0xeb6a40>
     46c:	17021349 	strne	r1, [r2, -r9, asr #6]
     470:	89100000 	ldmdbhi	r0, {}	; <UNPREDICTABLE>
     474:	11010182 	smlabbne	r1, r2, r1, r0
     478:	01133101 	tsteq	r3, r1, lsl #2
     47c:	11000013 	tstne	r0, r3, lsl r0
     480:	0001828a 	andeq	r8, r1, sl, lsl #5
     484:	42911802 	addsmi	r1, r1, #131072	; 0x20000
     488:	12000018 	andne	r0, r0, #24
     48c:	01018289 	smlabbeq	r1, r9, r2, r8
     490:	00000111 	andeq	r0, r0, r1, lsl r1
     494:	49010113 	stmdbmi	r1, {r0, r1, r4, r8}
     498:	00130113 	andseq	r0, r3, r3, lsl r1
     49c:	00211400 	eoreq	r1, r1, r0, lsl #8
     4a0:	052f1349 	streq	r1, [pc, #-841]!	; 15f <_start-0x7ea1>
     4a4:	15150000 	ldrne	r0, [r5, #-0]
     4a8:	49192701 	ldmdbmi	r9, {r0, r8, r9, sl, sp}
     4ac:	00130113 	andseq	r0, r3, r3, lsl r1
     4b0:	00051600 	andeq	r1, r5, r0, lsl #12
     4b4:	00001349 	andeq	r1, r0, r9, asr #6
     4b8:	03003417 	movweq	r3, #1047	; 0x417
     4bc:	3b0b3a0e 	blcc	2cecfc <__bss_end__+0x2c25e4>
     4c0:	3f13490b 	svccc	0x0013490b
     4c4:	00193c19 	andseq	r3, r9, r9, lsl ip
     4c8:	012e1800 	teqeq	lr, r0, lsl #16
     4cc:	0e03193f 	mcreq	9, 0, r1, cr3, cr15, {1}
     4d0:	0b3b0b3a 	bleq	ec31c0 <__bss_end__+0xeb6aa8>
     4d4:	13491927 	movtne	r1, #39207	; 0x9927
     4d8:	0000193c 	andeq	r1, r0, ip, lsr r9
     4dc:	01110100 	tsteq	r1, r0, lsl #2
     4e0:	0b130e25 	bleq	4c3d7c <__bss_end__+0x4b7664>
     4e4:	0e1b0e03 	cdpeq	14, 1, cr0, cr11, cr3, {0}
     4e8:	06120111 			; <UNDEFINED> instruction: 0x06120111
     4ec:	00001710 	andeq	r1, r0, r0, lsl r7
     4f0:	0b002402 	bleq	9500 <gpio_set_input+0x3c>
     4f4:	030b3e0b 	movweq	r3, #48651	; 0xbe0b
     4f8:	03000008 	movweq	r0, #8
     4fc:	0b0b0024 	bleq	2c0594 <__bss_end__+0x2b3e7c>
     500:	0e030b3e 	vmoveq.16	d3[0], r0
     504:	2e040000 	cdpcs	0, 0, cr0, cr4, cr0, {0}
     508:	3a0e0301 	bcc	381114 <__bss_end__+0x3749fc>
     50c:	270b3b0b 	strcs	r3, [fp, -fp, lsl #22]
     510:	11134919 	tstne	r3, r9, lsl r9
     514:	40061201 	andmi	r1, r6, r1, lsl #4
     518:	19429718 	stmdbne	r2, {r3, r4, r8, r9, sl, ip, pc}^
     51c:	00001301 	andeq	r1, r0, r1, lsl #6
     520:	03000505 	movweq	r0, #1285	; 0x505
     524:	3b0b3a08 	blcc	2ced4c <__bss_end__+0x2c2634>
     528:	0213490b 	andseq	r4, r3, #180224	; 0x2c000
     52c:	06000017 			; <UNDEFINED> instruction: 0x06000017
     530:	01018289 	smlabbeq	r1, r9, r2, r8
     534:	13310111 	teqne	r1, #1073741828	; 0x40000004
     538:	8a070000 	bhi	1c0540 <__bss_end__+0x1b3e28>
     53c:	02000182 	andeq	r0, r0, #-2147483616	; 0x80000020
     540:	18429118 	stmdane	r2, {r3, r4, r8, ip, pc}^
     544:	2e080000 	cdpcs	0, 0, cr0, cr8, cr0, {0}
     548:	03193f00 	tsteq	r9, #0, 30
     54c:	3b0b3a0e 	blcc	2ced8c <__bss_end__+0x2c2674>
     550:	1119270b 	tstne	r9, fp, lsl #14
     554:	40061201 	andmi	r1, r6, r1, lsl #4
     558:	19429718 	stmdbne	r2, {r3, r4, r8, r9, sl, ip, pc}^
     55c:	2e090000 	cdpcs	0, 0, cr0, cr9, cr0, {0}
     560:	03193f01 	tsteq	r9, #1, 30
     564:	3b0b3a0e 	blcc	2ceda4 <__bss_end__+0x2c268c>
     568:	1119270b 	tstne	r9, fp, lsl #14
     56c:	40061201 	andmi	r1, r6, r1, lsl #4
     570:	19429718 	stmdbne	r2, {r3, r4, r8, r9, sl, ip, pc}^
     574:	00001301 	andeq	r1, r0, r1, lsl #6
     578:	0300050a 	movweq	r0, #1290	; 0x50a
     57c:	3b0b3a08 	blcc	2ceda4 <__bss_end__+0x2c268c>
     580:	0213490b 	andseq	r4, r3, #180224	; 0x2c000
     584:	0b000018 	bleq	5ec <_start-0x7a14>
     588:	19270115 	stmdbne	r7!, {r0, r2, r4, r8}
     58c:	13011349 	movwne	r1, #4937	; 0x1349
     590:	050c0000 	streq	r0, [ip, #-0]
     594:	00134900 	andseq	r4, r3, r0, lsl #18
     598:	000f0d00 	andeq	r0, pc, r0, lsl #26
     59c:	13490b0b 	movtne	r0, #39691	; 0x9b0b
     5a0:	340e0000 	strcc	r0, [lr], #-0
     5a4:	3a0e0300 	bcc	3811ac <__bss_end__+0x374a94>
     5a8:	490b3b0b 	stmdbmi	fp, {r0, r1, r3, r8, r9, fp, ip, sp}
     5ac:	02193f13 	andseq	r3, r9, #19, 30	; 0x4c
     5b0:	0f000018 	svceq	0x00000018
     5b4:	193f012e 	ldmdbne	pc!, {r1, r2, r3, r5, r8}	; <UNPREDICTABLE>
     5b8:	0b3a0e03 	bleq	e83dcc <__bss_end__+0xe776b4>
     5bc:	19270b3b 	stmdbne	r7!, {r0, r1, r3, r4, r5, r8, r9, fp}
     5c0:	0000193c 	andeq	r1, r0, ip, lsr r9
     5c4:	01110100 	tsteq	r1, r0, lsl #2
     5c8:	0b130e25 	bleq	4c3e64 <__bss_end__+0x4b774c>
     5cc:	0e1b0e03 	cdpeq	14, 1, cr0, cr11, cr3, {0}
     5d0:	06120111 			; <UNDEFINED> instruction: 0x06120111
     5d4:	00001710 	andeq	r1, r0, r0, lsl r7
     5d8:	0b002402 	bleq	95e8 <gpio_write+0xc>
     5dc:	030b3e0b 	movweq	r3, #48651	; 0xbe0b
     5e0:	03000008 	movweq	r0, #8
     5e4:	0b0b0024 	bleq	2c067c <__bss_end__+0x2b3f64>
     5e8:	0e030b3e 	vmoveq.16	d3[0], r0
     5ec:	0f040000 	svceq	0x00040000
     5f0:	490b0b00 	stmdbmi	fp, {r8, r9, fp}
     5f4:	05000013 	streq	r0, [r0, #-19]
     5f8:	13490026 	movtne	r0, #36902	; 0x9026
     5fc:	2e060000 	cdpcs	0, 0, cr0, cr6, cr0, {0}
     600:	03193f01 	tsteq	r9, #1, 30
     604:	3b0b3a0e 	blcc	2cee44 <__bss_end__+0x2c272c>
     608:	4919270b 	ldmdbmi	r9, {r0, r1, r3, r8, r9, sl, sp}
     60c:	12011113 	andne	r1, r1, #-1073741820	; 0xc0000004
     610:	96184006 	ldrls	r4, [r8], -r6
     614:	13011942 	movwne	r1, #6466	; 0x1942
     618:	05070000 	streq	r0, [r7, #-0]
     61c:	3a080300 	bcc	201224 <__bss_end__+0x1f4b0c>
     620:	490b3b0b 	stmdbmi	fp, {r0, r1, r3, r8, r9, fp, ip, sp}
     624:	00170213 	andseq	r0, r7, r3, lsl r2
     628:	01150800 	tsteq	r5, r0, lsl #16
     62c:	13491927 	movtne	r1, #39207	; 0x9927
     630:	00001301 	andeq	r1, r0, r1, lsl #6
     634:	49000509 	stmdbmi	r0, {r0, r3, r8, sl}
     638:	0a000013 	beq	68c <_start-0x7974>
     63c:	0e030034 	mcreq	0, 0, r0, cr3, cr4, {1}
     640:	0b3b0b3a 	bleq	ec3330 <__bss_end__+0xeb6c18>
     644:	193f1349 	ldmdbne	pc!, {r0, r3, r6, r8, r9, ip}	; <UNPREDICTABLE>
     648:	0000193c 	andeq	r1, r0, ip, lsr r9
     64c:	0300340b 	movweq	r3, #1035	; 0x40b
     650:	3b0b3a0e 	blcc	2cee90 <__bss_end__+0x2c2778>
     654:	3f13490b 	svccc	0x0013490b
     658:	00180219 	andseq	r0, r8, r9, lsl r2
     65c:	11010000 	mrsne	r0, (UNDEF: 1)
     660:	130e2501 	movwne	r2, #58625	; 0xe501
     664:	1b0e030b 	blne	381298 <__bss_end__+0x374b80>
     668:	1201110e 	andne	r1, r1, #-2147483645	; 0x80000003
     66c:	00171006 	andseq	r1, r7, r6
     670:	00240200 	eoreq	r0, r4, r0, lsl #4
     674:	0b3e0b0b 	bleq	f832a8 <__bss_end__+0xf76b90>
     678:	00000803 	andeq	r0, r0, r3, lsl #16
     67c:	0b002403 	bleq	9690 <gpio_set_function+0x90>
     680:	030b3e0b 	movweq	r3, #48651	; 0xbe0b
     684:	0400000e 	streq	r0, [r0], #-14
     688:	0b0b000f 	bleq	2c06cc <__bss_end__+0x2b3fb4>
     68c:	0f050000 	svceq	0x00050000
     690:	490b0b00 	stmdbmi	fp, {r8, r9, fp}
     694:	06000013 			; <UNDEFINED> instruction: 0x06000013
     698:	13490026 	movtne	r0, #36902	; 0x9026
     69c:	16070000 	strne	r0, [r7], -r0
     6a0:	3a0e0300 	bcc	3812a8 <__bss_end__+0x374b90>
     6a4:	490b3b0b 	stmdbmi	fp, {r0, r1, r3, r8, r9, fp, ip, sp}
     6a8:	08000013 	stmdaeq	r0, {r0, r1, r4}
     6ac:	0e030113 	mcreq	1, 0, r0, cr3, cr3, {0}
     6b0:	0b3a0b0b 	bleq	e832e4 <__bss_end__+0xe76bcc>
     6b4:	13010b3b 	movwne	r0, #6971	; 0x1b3b
     6b8:	0d090000 	stceq	0, cr0, [r9, #-0]
     6bc:	490e0300 	stmdbmi	lr, {r8, r9}
     6c0:	340b3813 	strcc	r3, [fp], #-2067	; 0x813
     6c4:	0a000019 	beq	730 <_start-0x78d0>
     6c8:	0e03012e 	adfeqsp	f0, f3, #0.5
     6cc:	0b3b0b3a 	bleq	ec33bc <__bss_end__+0xeb6ca4>
     6d0:	13491927 	movtne	r1, #39207	; 0x9927
     6d4:	06120111 			; <UNDEFINED> instruction: 0x06120111
     6d8:	42971840 	addsmi	r1, r7, #64, 16	; 0x400000
     6dc:	00130119 	andseq	r0, r3, r9, lsl r1
     6e0:	00050b00 	andeq	r0, r5, r0, lsl #22
     6e4:	0b3a0803 	bleq	e826f8 <__bss_end__+0xe75fe0>
     6e8:	13490b3b 	movtne	r0, #39739	; 0x9b3b
     6ec:	00001702 	andeq	r1, r0, r2, lsl #14
     6f0:	03012e0c 	movweq	r2, #7692	; 0x1e0c
     6f4:	3b0b3a08 	blcc	2cef1c <__bss_end__+0x2c2804>
     6f8:	4919270b 	ldmdbmi	r9, {r0, r1, r3, r8, r9, sl, sp}
     6fc:	12011113 	andne	r1, r1, #-1073741820	; 0xc0000004
     700:	97184006 	ldrls	r4, [r8, -r6]
     704:	13011942 	movwne	r1, #6466	; 0x1942
     708:	050d0000 	streq	r0, [sp, #-0]
     70c:	3a0e0300 	bcc	381314 <__bss_end__+0x374bfc>
     710:	490b3b0b 	stmdbmi	fp, {r0, r1, r3, r8, r9, fp, ip, sp}
     714:	00170213 	andseq	r0, r7, r3, lsl r2
     718:	00050e00 	andeq	r0, r5, r0, lsl #28
     71c:	0b3a0e03 	bleq	e83f30 <__bss_end__+0xe77818>
     720:	13490b3b 	movtne	r0, #39739	; 0x9b3b
     724:	00001802 	andeq	r1, r0, r2, lsl #16
     728:	0300340f 	movweq	r3, #1039	; 0x40f
     72c:	3b0b3a08 	blcc	2cef54 <__bss_end__+0x2c283c>
     730:	0213490b 	andseq	r4, r3, #180224	; 0x2c000
     734:	10000018 	andne	r0, r0, r8, lsl r0
     738:	08030034 	stmdaeq	r3, {r2, r4, r5}
     73c:	0b3b0b3a 	bleq	ec342c <__bss_end__+0xeb6d14>
     740:	17021349 	strne	r1, [r2, -r9, asr #6]
     744:	34110000 	ldrcc	r0, [r1], #-0
     748:	490e0300 	stmdbmi	lr, {r8, r9}
     74c:	02193413 	andseq	r3, r9, #318767104	; 0x13000000
     750:	12000018 	andne	r0, r0, #24
     754:	0111010b 	tsteq	r1, fp, lsl #2
     758:	13010612 	movwne	r0, #5650	; 0x1612
     75c:	34130000 	ldrcc	r0, [r3], #-0
     760:	3a0e0300 	bcc	381368 <__bss_end__+0x374c50>
     764:	490b3b0b 	stmdbmi	fp, {r0, r1, r3, r8, r9, fp, ip, sp}
     768:	00170213 	andseq	r0, r7, r3, lsl r2
     76c:	82891400 	addhi	r1, r9, #0, 8
     770:	01110001 	tsteq	r1, r1
     774:	00001331 	andeq	r1, r0, r1, lsr r3
     778:	01828915 	orreq	r8, r2, r5, lsl r9
     77c:	31011101 	tstcc	r1, r1, lsl #2
     780:	00130113 	andseq	r0, r3, r3, lsl r1
     784:	828a1600 	addhi	r1, sl, #0, 12
     788:	18020001 	stmdane	r2, {r0}
     78c:	00184291 	mulseq	r8, r1, r2
     790:	82891700 	addhi	r1, r9, #0, 14
     794:	01110101 	tsteq	r1, r1, lsl #2
     798:	00001331 	andeq	r1, r0, r1, lsr r3
     79c:	49010118 	stmdbmi	r1, {r3, r4, r8}
     7a0:	00130113 	andseq	r0, r3, r3, lsl r1
     7a4:	00211900 	eoreq	r1, r1, r0, lsl #18
     7a8:	0b2f1349 	bleq	bc54d4 <__bss_end__+0xbb8dbc>
     7ac:	2e1a0000 	cdpcs	0, 1, cr0, cr10, cr0, {0}
     7b0:	03193f01 	tsteq	r9, #1, 30
     7b4:	3b0b3a0e 	blcc	2ceff4 <__bss_end__+0x2c28dc>
     7b8:	1119270b 	tstne	r9, fp, lsl #14
     7bc:	40061201 	andmi	r1, r6, r1, lsl #4
     7c0:	19429718 	stmdbne	r2, {r3, r4, r8, r9, sl, ip, pc}^
     7c4:	00001301 	andeq	r1, r0, r1, lsl #6
     7c8:	2701151b 	smladcs	r1, fp, r5, r1
     7cc:	01134919 	tsteq	r3, r9, lsl r9
     7d0:	1c000013 	stcne	0, cr0, [r0], {19}
     7d4:	13490005 	movtne	r0, #36869	; 0x9005
     7d8:	2e1d0000 	cdpcs	0, 1, cr0, cr13, cr0, {0}
     7dc:	03193f01 	tsteq	r9, #1, 30
     7e0:	3b0b3a0e 	blcc	2cf020 <__bss_end__+0x2c2908>
     7e4:	4919270b 	ldmdbmi	r9, {r0, r1, r3, r8, r9, sl, sp}
     7e8:	12011113 	andne	r1, r1, #-1073741820	; 0xc0000004
     7ec:	97184006 	ldrls	r4, [r8, -r6]
     7f0:	13011942 	movwne	r1, #6466	; 0x1942
     7f4:	0b1e0000 	bleq	7807fc <__bss_end__+0x7740e4>
     7f8:	00175501 	andseq	r5, r7, r1, lsl #10
     7fc:	00341f00 	eorseq	r1, r4, r0, lsl #30
     800:	0b3a0e03 	bleq	e84014 <__bss_end__+0xe778fc>
     804:	13490b3b 	movtne	r0, #39739	; 0x9b3b
     808:	193c193f 	ldmdbne	ip!, {r0, r1, r2, r3, r4, r5, r8, fp, ip}
     80c:	2e200000 	cdpcs	0, 2, cr0, cr0, cr0, {0}
     810:	03193f00 	tsteq	r9, #0, 30
     814:	3b0b3a0e 	blcc	2cf054 <__bss_end__+0x2c293c>
     818:	3c19270b 	ldccc	7, cr2, [r9], {11}
     81c:	21000019 	tstcs	r0, r9, lsl r0
     820:	193f012e 	ldmdbne	pc!, {r1, r2, r3, r5, r8}	; <UNPREDICTABLE>
     824:	0b3a0e03 	bleq	e84038 <__bss_end__+0xe77920>
     828:	19270b3b 	stmdbne	r7!, {r0, r1, r3, r4, r5, r8, r9, fp}
     82c:	193c1349 	ldmdbne	ip!, {r0, r3, r6, r8, r9, ip}
     830:	00001301 	andeq	r1, r0, r1, lsl #6
     834:	00001822 	andeq	r1, r0, r2, lsr #16
     838:	11010000 	mrsne	r0, (UNDEF: 1)
     83c:	130e2501 	movwne	r2, #58625	; 0xe501
     840:	1b0e030b 	blne	381474 <__bss_end__+0x374d5c>
     844:	1201110e 	andne	r1, r1, #-2147483645	; 0x80000003
     848:	00171006 	andseq	r1, r7, r6
     84c:	00240200 	eoreq	r0, r4, r0, lsl #4
     850:	0b3e0b0b 	bleq	f83484 <__bss_end__+0xf76d6c>
     854:	00000803 	andeq	r0, r0, r3, lsl #16
     858:	0b002403 	bleq	986c <gpio_event_detected+0x28>
     85c:	030b3e0b 	movweq	r3, #48651	; 0xbe0b
     860:	0400000e 	streq	r0, [r0], #-14
     864:	193f012e 	ldmdbne	pc!, {r1, r2, r3, r5, r8}	; <UNPREDICTABLE>
     868:	0b3a0e03 	bleq	e8407c <__bss_end__+0xe77964>
     86c:	19270b3b 	stmdbne	r7!, {r0, r1, r3, r4, r5, r8, r9, fp}
     870:	06120111 			; <UNDEFINED> instruction: 0x06120111
     874:	42971840 	addsmi	r1, r7, #64, 16	; 0x400000
     878:	00130119 	andseq	r0, r3, r9, lsl r1
     87c:	00340500 	eorseq	r0, r4, r0, lsl #10
     880:	0b3a0803 	bleq	e82894 <__bss_end__+0xe7617c>
     884:	13490b3b 	movtne	r0, #39739	; 0x9b3b
     888:	00001702 	andeq	r1, r0, r2, lsl #14
     88c:	3f012e06 	svccc	0x00012e06
     890:	3a0e0319 	bcc	3814fc <__bss_end__+0x374de4>
     894:	270b3b0b 	strcs	r3, [fp, -fp, lsl #22]
     898:	12011119 	andne	r1, r1, #1073741830	; 0x40000006
     89c:	97184006 	ldrls	r4, [r8, -r6]
     8a0:	00001942 	andeq	r1, r0, r2, asr #18
     8a4:	01110100 	tsteq	r1, r0, lsl #2
     8a8:	0b130e25 	bleq	4c4144 <__bss_end__+0x4b7a2c>
     8ac:	0e1b0e03 	cdpeq	14, 1, cr0, cr11, cr3, {0}
     8b0:	06120111 			; <UNDEFINED> instruction: 0x06120111
     8b4:	00001710 	andeq	r1, r0, r0, lsl r7
     8b8:	0b002402 	bleq	98c8 <gpio_event_clear>
     8bc:	030b3e0b 	movweq	r3, #48651	; 0xbe0b
     8c0:	03000008 	movweq	r0, #8
     8c4:	0b0b0024 	bleq	2c095c <__bss_end__+0x2b4244>
     8c8:	0e030b3e 	vmoveq.16	d3[0], r0
     8cc:	0f040000 	svceq	0x00040000
     8d0:	490b0b00 	stmdbmi	fp, {r8, r9, fp}
     8d4:	05000013 	streq	r0, [r0, #-19]
     8d8:	13490026 	movtne	r0, #36902	; 0x9026
     8dc:	2e060000 	cdpcs	0, 0, cr0, cr6, cr0, {0}
     8e0:	03193f01 	tsteq	r9, #1, 30
     8e4:	3b0b3a0e 	blcc	2cf124 <__bss_end__+0x2c2a0c>
     8e8:	1119270b 	tstne	r9, fp, lsl #14
     8ec:	40061201 	andmi	r1, r6, r1, lsl #4
     8f0:	19429718 	stmdbne	r2, {r3, r4, r8, r9, sl, ip, pc}^
     8f4:	00001301 	andeq	r1, r0, r1, lsl #6
     8f8:	01828907 	orreq	r8, r2, r7, lsl #18
     8fc:	01011101 	tsteq	r1, r1, lsl #2
     900:	08000013 	stmdaeq	r0, {r0, r1, r4}
     904:	0001828a 	andeq	r8, r1, sl, lsl #5
     908:	42911802 	addsmi	r1, r1, #131072	; 0x20000
     90c:	09000018 	stmdbeq	r0, {r3, r4}
     910:	01018289 	smlabbeq	r1, r9, r2, r8
     914:	13310111 	teqne	r1, #1073741828	; 0x40000004
     918:	00001301 	andeq	r1, r0, r1, lsl #6
     91c:	0182890a 	orreq	r8, r2, sl, lsl #18
     920:	31011100 	mrscc	r1, (UNDEF: 17)
     924:	0b000013 	bleq	978 <_start-0x7688>
     928:	19270115 	stmdbne	r7!, {r0, r2, r4, r8}
     92c:	13011349 	movwne	r1, #4937	; 0x1349
     930:	050c0000 	streq	r0, [ip, #-0]
     934:	00134900 	andseq	r4, r3, r0, lsl #18
     938:	00340d00 	eorseq	r0, r4, r0, lsl #26
     93c:	0b3a0e03 	bleq	e84150 <__bss_end__+0xe77a38>
     940:	13490b3b 	movtne	r0, #39739	; 0x9b3b
     944:	193c193f 	ldmdbne	ip!, {r0, r1, r2, r3, r4, r5, r8, fp, ip}
     948:	2e0e0000 	cdpcs	0, 0, cr0, cr14, cr0, {0}
     94c:	03193f01 	tsteq	r9, #1, 30
     950:	3b0b3a0e 	blcc	2cf190 <__bss_end__+0x2c2a78>
     954:	3c19270b 	ldccc	7, cr2, [r9], {11}
     958:	00130119 	andseq	r0, r3, r9, lsl r1
     95c:	002e0f00 	eoreq	r0, lr, r0, lsl #30
     960:	0e03193f 	mcreq	9, 0, r1, cr3, cr15, {1}
     964:	0b3b0b3a 	bleq	ec3654 <__bss_end__+0xeb6f3c>
     968:	193c1927 	ldmdbne	ip!, {r0, r1, r2, r5, r8, fp, ip}
     96c:	01000000 	mrseq	r0, (UNDEF: 0)
     970:	0e250111 	mcreq	1, 1, r0, cr5, cr1, {0}
     974:	0e030b13 	vmoveq.32	d3[0], r0
     978:	01110e1b 	tsteq	r1, fp, lsl lr
     97c:	17100612 			; <UNDEFINED> instruction: 0x17100612
     980:	24020000 	strcs	r0, [r2], #-0
     984:	3e0b0b00 	vmlacc.f64	d0, d11, d0
     988:	0008030b 	andeq	r0, r8, fp, lsl #6
     98c:	00240300 	eoreq	r0, r4, r0, lsl #6
     990:	0b3e0b0b 	bleq	f835c4 <__bss_end__+0xf76eac>
     994:	00000e03 	andeq	r0, r0, r3, lsl #28
     998:	3f012e04 	svccc	0x00012e04
     99c:	3a0e0319 	bcc	381608 <__bss_end__+0x374ef0>
     9a0:	110b3b0b 	tstne	fp, fp, lsl #22
     9a4:	40061201 	andmi	r1, r6, r1, lsl #4
     9a8:	19429718 	stmdbne	r2, {r3, r4, r8, r9, sl, ip, pc}^
     9ac:	00001301 	andeq	r1, r0, r1, lsl #6
     9b0:	03003405 	movweq	r3, #1029	; 0x405
     9b4:	3b0b3a0e 	blcc	2cf1f4 <__bss_end__+0x2c2adc>
     9b8:	3f13490b 	svccc	0x0013490b
     9bc:	00193c19 	andseq	r3, r9, r9, lsl ip
     9c0:	002e0600 	eoreq	r0, lr, r0, lsl #12
     9c4:	0e03193f 	mcreq	9, 0, r1, cr3, cr15, {1}
     9c8:	0b3b0b3a 	bleq	ec36b8 <__bss_end__+0xeb6fa0>
     9cc:	193c1927 	ldmdbne	ip!, {r0, r1, r2, r5, r8, fp, ip}
     9d0:	34070000 	strcc	r0, [r7], #-0
     9d4:	3a080300 	bcc	2015dc <__bss_end__+0x1f4ec4>
     9d8:	490b3b0b 	stmdbmi	fp, {r0, r1, r3, r8, r9, fp, ip, sp}
     9dc:	00170213 	andseq	r0, r7, r3, lsl r2
     9e0:	00340800 	eorseq	r0, r4, r0, lsl #16
     9e4:	0b3a0e03 	bleq	e841f8 <__bss_end__+0xe77ae0>
     9e8:	13490b3b 	movtne	r0, #39739	; 0x9b3b
     9ec:	89090000 	stmdbhi	r9, {}	; <UNPREDICTABLE>
     9f0:	11000182 	smlabbne	r0, r2, r1, r0
     9f4:	00133101 	andseq	r3, r3, r1, lsl #2
     9f8:	000f0a00 	andeq	r0, pc, r0, lsl #20
     9fc:	13490b0b 	movtne	r0, #39691	; 0x9b0b
     a00:	01000000 	mrseq	r0, (UNDEF: 0)
     a04:	0e250111 	mcreq	1, 1, r0, cr5, cr1, {0}
     a08:	0e030b13 	vmoveq.32	d3[0], r0
     a0c:	17550e1b 	smmlane	r5, fp, lr, r0
     a10:	17100111 			; <UNDEFINED> instruction: 0x17100111
     a14:	24020000 	strcs	r0, [r2], #-0
     a18:	3e0b0b00 	vmlacc.f64	d0, d11, d0
     a1c:	0008030b 	andeq	r0, r8, fp, lsl #6
     a20:	00240300 	eoreq	r0, r4, r0, lsl #6
     a24:	0b3e0b0b 	bleq	f83658 <__bss_end__+0xf76f40>
     a28:	00000e03 	andeq	r0, r0, r3, lsl #28
     a2c:	3f012e04 	svccc	0x00012e04
     a30:	3a0e0319 	bcc	38169c <__bss_end__+0x374f84>
     a34:	270b3b0b 	strcs	r3, [fp, -fp, lsl #22]
     a38:	11134919 	tstne	r3, r9, lsl r9
     a3c:	40061201 	andmi	r1, r6, r1, lsl #4
     a40:	19429718 	stmdbne	r2, {r3, r4, r8, r9, sl, ip, pc}^
     a44:	00001301 	andeq	r1, r0, r1, lsl #6
     a48:	03003405 	movweq	r3, #1029	; 0x405
     a4c:	3b0b3a0e 	blcc	2cf28c <__bss_end__+0x2c2b74>
     a50:	0213490b 	andseq	r4, r3, #180224	; 0x2c000
     a54:	06000017 			; <UNDEFINED> instruction: 0x06000017
     a58:	193f012e 	ldmdbne	pc!, {r1, r2, r3, r5, r8}	; <UNPREDICTABLE>
     a5c:	0b3a0e03 	bleq	e84270 <__bss_end__+0xe77b58>
     a60:	19270b3b 	stmdbne	r7!, {r0, r1, r3, r4, r5, r8, r9, fp}
     a64:	06120111 			; <UNDEFINED> instruction: 0x06120111
     a68:	42971840 	addsmi	r1, r7, #64, 16	; 0x400000
     a6c:	00130119 	andseq	r0, r3, r9, lsl r1
     a70:	00340700 	eorseq	r0, r4, r0, lsl #14
     a74:	0b3a0e03 	bleq	e84288 <__bss_end__+0xe77b70>
     a78:	13490b3b 	movtne	r0, #39739	; 0x9b3b
     a7c:	0000061c 	andeq	r0, r0, ip, lsl r6
     a80:	03003408 	movweq	r3, #1032	; 0x408
     a84:	3b0b3a0e 	blcc	2cf2c4 <__bss_end__+0x2c2bac>
     a88:	1c13490b 	ldcne	9, cr4, [r3], {11}
     a8c:	0900000b 	stmdbeq	r0, {r0, r1, r3}
     a90:	00018289 	andeq	r8, r1, r9, lsl #5
     a94:	13310111 	teqne	r1, #1073741828	; 0x40000004
     a98:	890a0000 	stmdbhi	sl, {}	; <UNPREDICTABLE>
     a9c:	11010182 	smlabbne	r1, r2, r1, r0
     aa0:	01133101 	tsteq	r3, r1, lsl #2
     aa4:	0b000013 	bleq	af8 <_start-0x7508>
     aa8:	0001828a 	andeq	r8, r1, sl, lsl #5
     aac:	42911802 	addsmi	r1, r1, #131072	; 0x20000
     ab0:	0c000018 	stceq	0, cr0, [r0], {24}
     ab4:	01018289 	smlabbeq	r1, r9, r2, r8
     ab8:	13310111 	teqne	r1, #1073741828	; 0x40000004
     abc:	260d0000 	strcs	r0, [sp], -r0
     ac0:	00134900 	andseq	r4, r3, r0, lsl #18
     ac4:	012e0e00 	teqeq	lr, r0, lsl #28
     ac8:	0e03193f 	mcreq	9, 0, r1, cr3, cr15, {1}
     acc:	0b3b0b3a 	bleq	ec37bc <__bss_end__+0xeb70a4>
     ad0:	193c1927 	ldmdbne	ip!, {r0, r1, r2, r5, r8, fp, ip}
     ad4:	00001301 	andeq	r1, r0, r1, lsl #6
     ad8:	4900050f 	stmdbmi	r0, {r0, r1, r2, r3, r8, sl}
     adc:	10000013 	andne	r0, r0, r3, lsl r0
     ae0:	193f012e 	ldmdbne	pc!, {r1, r2, r3, r5, r8}	; <UNPREDICTABLE>
     ae4:	0b3a0e03 	bleq	e842f8 <__bss_end__+0xe77be0>
     ae8:	19270b3b 	stmdbne	r7!, {r0, r1, r3, r4, r5, r8, r9, fp}
     aec:	0000193c 	andeq	r1, r0, ip, lsr r9
     af0:	01110100 	tsteq	r1, r0, lsl #2
     af4:	0b130e25 	bleq	4c4390 <__bss_end__+0x4b7c78>
     af8:	0e1b0e03 	cdpeq	14, 1, cr0, cr11, cr3, {0}
     afc:	06120111 			; <UNDEFINED> instruction: 0x06120111
     b00:	00001710 	andeq	r1, r0, r0, lsl r7
     b04:	0b002402 	bleq	9b14 <fast_interrupt_vector+0x38>
     b08:	030b3e0b 	movweq	r3, #48651	; 0xbe0b
     b0c:	03000008 	movweq	r0, #8
     b10:	0b0b0024 	bleq	2c0ba8 <__bss_end__+0x2b4490>
     b14:	0e030b3e 	vmoveq.16	d3[0], r0
     b18:	2e040000 	cdpcs	0, 0, cr0, cr4, cr0, {0}
     b1c:	03193f01 	tsteq	r9, #1, 30
     b20:	3b0b3a0e 	blcc	2cf360 <__bss_end__+0x2c2c48>
     b24:	1119270b 	tstne	r9, fp, lsl #14
     b28:	40061201 	andmi	r1, r6, r1, lsl #4
     b2c:	19429718 	stmdbne	r2, {r3, r4, r8, r9, sl, ip, pc}^
     b30:	00001301 	andeq	r1, r0, r1, lsl #6
     b34:	03000505 	movweq	r0, #1285	; 0x505
     b38:	3b0b3a0e 	blcc	2cf378 <__bss_end__+0x2c2c60>
     b3c:	0213490b 	andseq	r4, r3, #180224	; 0x2c000
     b40:	06000017 			; <UNDEFINED> instruction: 0x06000017
     b44:	193f012e 	ldmdbne	pc!, {r1, r2, r3, r5, r8}	; <UNPREDICTABLE>
     b48:	0b3a0e03 	bleq	e8435c <__bss_end__+0xe77c44>
     b4c:	19270b3b 	stmdbne	r7!, {r0, r1, r3, r4, r5, r8, r9, fp}
     b50:	01111349 	tsteq	r1, r9, asr #6
     b54:	18400612 	stmdane	r0, {r1, r4, r9, sl}^
     b58:	01194297 			; <UNDEFINED> instruction: 0x01194297
     b5c:	07000013 	smladeq	r0, r3, r0, r0
     b60:	01018289 	smlabbeq	r1, r9, r2, r8
     b64:	13310111 	teqne	r1, #1073741828	; 0x40000004
     b68:	8a080000 	bhi	200b70 <__bss_end__+0x1f4458>
     b6c:	02000182 	andeq	r0, r0, #-2147483616	; 0x80000020
     b70:	18429118 	stmdane	r2, {r3, r4, r8, ip, pc}^
     b74:	34090000 	strcc	r0, [r9], #-0
     b78:	3a080300 	bcc	201780 <__bss_end__+0x1f5068>
     b7c:	490b3b0b 	stmdbmi	fp, {r0, r1, r3, r8, r9, fp, ip, sp}
     b80:	00180213 	andseq	r0, r8, r3, lsl r2
     b84:	82890a00 	addhi	r0, r9, #0, 20
     b88:	01110001 	tsteq	r1, r1
     b8c:	00001331 	andeq	r1, r0, r1, lsr r3
     b90:	0300050b 	movweq	r0, #1291	; 0x50b
     b94:	3b0b3a08 	blcc	2cf3bc <__bss_end__+0x2c2ca4>
     b98:	0213490b 	andseq	r4, r3, #180224	; 0x2c000
     b9c:	0c000017 	stceq	0, cr0, [r0], {23}
     ba0:	0111010b 	tsteq	r1, fp, lsl #2
     ba4:	13010612 	movwne	r0, #5650	; 0x1612
     ba8:	340d0000 	strcc	r0, [sp], #-0
     bac:	3a080300 	bcc	2017b4 <__bss_end__+0x1f509c>
     bb0:	490b3b0b 	stmdbmi	fp, {r0, r1, r3, r8, r9, fp, ip, sp}
     bb4:	00170213 	andseq	r0, r7, r3, lsl r2
     bb8:	012e0e00 	teqeq	lr, r0, lsl #28
     bbc:	0e03193f 	mcreq	9, 0, r1, cr3, cr15, {1}
     bc0:	0b3b0b3a 	bleq	ec38b0 <__bss_end__+0xeb7198>
     bc4:	13491927 	movtne	r1, #39207	; 0x9927
     bc8:	0000193c 	andeq	r1, r0, ip, lsr r9
     bcc:	4900050f 	stmdbmi	r0, {r0, r1, r2, r3, r8, sl}
     bd0:	00000013 	andeq	r0, r0, r3, lsl r0
     bd4:	25011101 	strcs	r1, [r1, #-257]	; 0x101
     bd8:	030b130e 	movweq	r1, #45838	; 0xb30e
     bdc:	110e1b0e 	tstne	lr, lr, lsl #22
     be0:	10061201 	andne	r1, r6, r1, lsl #4
     be4:	02000017 	andeq	r0, r0, #23
     be8:	0b0b0024 	bleq	2c0c80 <__bss_end__+0x2b4568>
     bec:	0e030b3e 	vmoveq.16	d3[0], r0
     bf0:	24030000 	strcs	r0, [r3], #-0
     bf4:	3e0b0b00 	vmlacc.f64	d0, d11, d0
     bf8:	0008030b 	andeq	r0, r8, fp, lsl #6
     bfc:	01040400 	tsteq	r4, r0, lsl #8
     c00:	0b3a0b0b 	bleq	e83834 <__bss_end__+0xe7711c>
     c04:	13010b3b 	movwne	r0, #6971	; 0x1b3b
     c08:	28050000 	stmdacs	r5, {}	; <UNPREDICTABLE>
     c0c:	1c0e0300 	stcne	3, cr0, [lr], {-0}
     c10:	0600000d 	streq	r0, [r0], -sp
     c14:	0e030016 	mcreq	0, 0, r0, cr3, cr6, {0}
     c18:	0b3b0b3a 	bleq	ec3908 <__bss_end__+0xeb71f0>
     c1c:	00001349 	andeq	r1, r0, r9, asr #6
     c20:	3f012e07 	svccc	0x00012e07
     c24:	3a0e0319 	bcc	381890 <__bss_end__+0x375178>
     c28:	270b3b0b 	strcs	r3, [fp, -fp, lsl #22]
     c2c:	12011119 	andne	r1, r1, #1073741830	; 0x40000006
     c30:	97184006 	ldrls	r4, [r8, -r6]
     c34:	13011942 	movwne	r1, #6466	; 0x1942
     c38:	05080000 	streq	r0, [r8, #-0]
     c3c:	3a080300 	bcc	201844 <__bss_end__+0x1f512c>
     c40:	490b3b0b 	stmdbmi	fp, {r0, r1, r3, r8, r9, fp, ip, sp}
     c44:	00170213 	andseq	r0, r7, r3, lsl r2
     c48:	00340900 	eorseq	r0, r4, r0, lsl #18
     c4c:	0b3a0e03 	bleq	e84460 <__bss_end__+0xe77d48>
     c50:	13490b3b 	movtne	r0, #39739	; 0x9b3b
     c54:	00001702 	andeq	r1, r0, r2, lsl #14
     c58:	0182890a 	orreq	r8, r2, sl, lsl #18
     c5c:	31011101 	tstcc	r1, r1, lsl #2
     c60:	00130113 	andseq	r0, r3, r3, lsl r1
     c64:	828a0b00 	addhi	r0, sl, #0, 22
     c68:	18020001 	stmdane	r2, {r0}
     c6c:	00184291 	mulseq	r8, r1, r2
     c70:	82890c00 	addhi	r0, r9, #0, 24
     c74:	01110101 	tsteq	r1, r1, lsl #2
     c78:	00001331 	andeq	r1, r0, r1, lsr r3
     c7c:	0b000f0d 	bleq	48b8 <_start-0x3748>
     c80:	0013490b 	andseq	r4, r3, fp, lsl #18
     c84:	00350e00 	eorseq	r0, r5, r0, lsl #28
     c88:	00001349 	andeq	r1, r0, r9, asr #6
     c8c:	3f012e0f 	svccc	0x00012e0f
     c90:	3a0e0319 	bcc	3818fc <__bss_end__+0x3751e4>
     c94:	270b3b0b 	strcs	r3, [fp, -fp, lsl #22]
     c98:	11134919 	tstne	r3, r9, lsl r9
     c9c:	40061201 	andmi	r1, r6, r1, lsl #4
     ca0:	19429718 	stmdbne	r2, {r3, r4, r8, r9, sl, ip, pc}^
     ca4:	00001301 	andeq	r1, r0, r1, lsl #6
     ca8:	03003410 	movweq	r3, #1040	; 0x410
     cac:	3b0b3a08 	blcc	2cf4d4 <__bss_end__+0x2c2dbc>
     cb0:	0213490b 	andseq	r4, r3, #180224	; 0x2c000
     cb4:	11000017 	tstne	r0, r7, lsl r0
     cb8:	00018289 	andeq	r8, r1, r9, lsl #5
     cbc:	13310111 	teqne	r1, #1073741828	; 0x40000004
     cc0:	05120000 	ldreq	r0, [r2, #-0]
     cc4:	3a0e0300 	bcc	3818cc <__bss_end__+0x3751b4>
     cc8:	490b3b0b 	stmdbmi	fp, {r0, r1, r3, r8, r9, fp, ip, sp}
     ccc:	00170213 	andseq	r0, r7, r3, lsl r2
     cd0:	012e1300 	teqeq	lr, r0, lsl #6
     cd4:	0e03193f 	mcreq	9, 0, r1, cr3, cr15, {1}
     cd8:	053b0b3a 	ldreq	r0, [fp, #-2874]!	; 0xb3a
     cdc:	13491927 	movtne	r1, #39207	; 0x9927
     ce0:	06120111 			; <UNDEFINED> instruction: 0x06120111
     ce4:	42971840 	addsmi	r1, r7, #64, 16	; 0x400000
     ce8:	00130119 	andseq	r0, r3, r9, lsl r1
     cec:	00051400 	andeq	r1, r5, r0, lsl #8
     cf0:	0b3a0e03 	bleq	e84504 <__bss_end__+0xe77dec>
     cf4:	1349053b 	movtne	r0, #38203	; 0x953b
     cf8:	00001702 	andeq	r1, r0, r2, lsl #14
     cfc:	3f012e15 	svccc	0x00012e15
     d00:	3a0e0319 	bcc	38196c <__bss_end__+0x375254>
     d04:	27053b0b 	strcs	r3, [r5, -fp, lsl #22]
     d08:	12011119 	andne	r1, r1, #1073741830	; 0x40000006
     d0c:	97184006 	ldrls	r4, [r8, -r6]
     d10:	13011942 	movwne	r1, #6466	; 0x1942
     d14:	05160000 	ldreq	r0, [r6, #-0]
     d18:	3a080300 	bcc	201920 <__bss_end__+0x1f5208>
     d1c:	49053b0b 	stmdbmi	r5, {r0, r1, r3, r8, r9, fp, ip, sp}
     d20:	00170213 	andseq	r0, r7, r3, lsl r2
     d24:	00341700 	eorseq	r1, r4, r0, lsl #14
     d28:	0b3a0e03 	bleq	e8453c <__bss_end__+0xe77e24>
     d2c:	1349053b 	movtne	r0, #38203	; 0x953b
     d30:	00001702 	andeq	r1, r0, r2, lsl #14
     d34:	11010b18 	tstne	r1, r8, lsl fp
     d38:	01061201 	tsteq	r6, r1, lsl #4
     d3c:	19000013 	stmdbne	r0, {r0, r1, r4}
     d40:	0e030034 	mcreq	0, 0, r0, cr3, cr4, {1}
     d44:	0b3b0b3a 	bleq	ec3a34 <__bss_end__+0xeb731c>
     d48:	193f1349 	ldmdbne	pc!, {r0, r3, r6, r8, r9, ip}	; <UNPREDICTABLE>
     d4c:	00001802 	andeq	r1, r0, r2, lsl #16
     d50:	0300341a 	movweq	r3, #1050	; 0x41a
     d54:	3b0b3a0e 	blcc	2cf594 <__bss_end__+0x2c2e7c>
     d58:	3f134905 	svccc	0x00134905
     d5c:	00180219 	andseq	r0, r8, r9, lsl r2
     d60:	012e1b00 	teqeq	lr, r0, lsl #22
     d64:	0e03193f 	mcreq	9, 0, r1, cr3, cr15, {1}
     d68:	0b3b0b3a 	bleq	ec3a58 <__bss_end__+0xeb7340>
     d6c:	13491927 	movtne	r1, #39207	; 0x9927
     d70:	1301193c 	movwne	r1, #6460	; 0x193c
     d74:	051c0000 	ldreq	r0, [ip, #-0]
     d78:	00134900 	andseq	r4, r3, r0, lsl #18
     d7c:	00261d00 	eoreq	r1, r6, r0, lsl #26
     d80:	00001349 	andeq	r1, r0, r9, asr #6
     d84:	0000351e 	andeq	r3, r0, lr, lsl r5
     d88:	012e1f00 	teqeq	lr, r0, lsl #30
     d8c:	0e03193f 	mcreq	9, 0, r1, cr3, cr15, {1}
     d90:	0b3b0b3a 	bleq	ec3a80 <__bss_end__+0xeb7368>
     d94:	193c1927 	ldmdbne	ip!, {r0, r1, r2, r5, r8, fp, ip}
     d98:	00001301 	andeq	r1, r0, r1, lsl #6
     d9c:	3f002e20 	svccc	0x00002e20
     da0:	3a0e0319 	bcc	381a0c <__bss_end__+0x3752f4>
     da4:	270b3b0b 	strcs	r3, [fp, -fp, lsl #22]
     da8:	00193c19 	andseq	r3, r9, r9, lsl ip
     dac:	11010000 	mrsne	r0, (UNDEF: 1)
     db0:	130e2501 	movwne	r2, #58625	; 0xe501
     db4:	1b0e030b 	blne	3819e8 <__bss_end__+0x3752d0>
     db8:	1201110e 	andne	r1, r1, #-2147483645	; 0x80000003
     dbc:	00171006 	andseq	r1, r7, r6
     dc0:	00240200 	eoreq	r0, r4, r0, lsl #4
     dc4:	0b3e0b0b 	bleq	f839f8 <__bss_end__+0xf772e0>
     dc8:	00000803 	andeq	r0, r0, r3, lsl #16
     dcc:	0b002403 	bleq	9de0 <gpio_clr0>
     dd0:	030b3e0b 	movweq	r3, #48651	; 0xbe0b
     dd4:	0400000e 	streq	r0, [r0], #-14
     dd8:	0b0b0104 	bleq	2c11f0 <__bss_end__+0x2b4ad8>
     ddc:	0b3b0b3a 	bleq	ec3acc <__bss_end__+0xeb73b4>
     de0:	00001301 	andeq	r1, r0, r1, lsl #6
     de4:	03002805 	movweq	r2, #2053	; 0x805
     de8:	000d1c0e 	andeq	r1, sp, lr, lsl #24
     dec:	00160600 	andseq	r0, r6, r0, lsl #12
     df0:	0b3a0e03 	bleq	e84604 <__bss_end__+0xe77eec>
     df4:	13490b3b 	movtne	r0, #39739	; 0x9b3b
     df8:	2e070000 	cdpcs	0, 0, cr0, cr7, cr0, {0}
     dfc:	03193f01 	tsteq	r9, #1, 30
     e00:	3b0b3a0e 	blcc	2cf640 <__bss_end__+0x2c2f28>
     e04:	1119270b 	tstne	r9, fp, lsl #14
     e08:	40061201 	andmi	r1, r6, r1, lsl #4
     e0c:	19429718 	stmdbne	r2, {r3, r4, r8, r9, sl, ip, pc}^
     e10:	00001301 	andeq	r1, r0, r1, lsl #6
     e14:	01828908 	orreq	r8, r2, r8, lsl #18
     e18:	31011100 	mrscc	r1, (UNDEF: 17)
     e1c:	09000013 	stmdbeq	r0, {r0, r1, r4}
     e20:	01018289 	smlabbeq	r1, r9, r2, r8
     e24:	13310111 	teqne	r1, #1073741828	; 0x40000004
     e28:	00001301 	andeq	r1, r0, r1, lsl #6
     e2c:	01828a0a 	orreq	r8, r2, sl, lsl #20
     e30:	91180200 	tstls	r8, r0, lsl #4
     e34:	00001842 	andeq	r1, r0, r2, asr #16
     e38:	3f012e0b 	svccc	0x00012e0b
     e3c:	3a0e0319 	bcc	381aa8 <__bss_end__+0x375390>
     e40:	270b3b0b 	strcs	r3, [fp, -fp, lsl #22]
     e44:	11134919 	tstne	r3, r9, lsl r9
     e48:	40061201 	andmi	r1, r6, r1, lsl #4
     e4c:	19429718 	stmdbne	r2, {r3, r4, r8, r9, sl, ip, pc}^
     e50:	00001301 	andeq	r1, r0, r1, lsl #6
     e54:	0300050c 	movweq	r0, #1292	; 0x50c
     e58:	3b0b3a08 	blcc	2cf680 <__bss_end__+0x2c2f68>
     e5c:	0213490b 	andseq	r4, r3, #180224	; 0x2c000
     e60:	0d000017 	stceq	0, cr0, [r0, #-92]	; 0xffffffa4
     e64:	01018289 	smlabbeq	r1, r9, r2, r8
     e68:	13310111 	teqne	r1, #1073741828	; 0x40000004
     e6c:	340e0000 	strcc	r0, [lr], #-0
     e70:	3a0e0300 	bcc	381a78 <__bss_end__+0x375360>
     e74:	490b3b0b 	stmdbmi	fp, {r0, r1, r3, r8, r9, fp, ip, sp}
     e78:	02193f13 	andseq	r3, r9, #19, 30	; 0x4c
     e7c:	0f000018 	svceq	0x00000018
     e80:	0b0b000f 	bleq	2c0ec4 <__bss_end__+0x2b47ac>
     e84:	00001349 	andeq	r1, r0, r9, asr #6
     e88:	49003510 	stmdbmi	r0, {r4, r8, sl, ip, sp}
     e8c:	11000013 	tstne	r0, r3, lsl r0
     e90:	193f002e 	ldmdbne	pc!, {r1, r2, r3, r5}	; <UNPREDICTABLE>
     e94:	0b3a0e03 	bleq	e846a8 <__bss_end__+0xe77f90>
     e98:	19270b3b 	stmdbne	r7!, {r0, r1, r3, r4, r5, r8, r9, fp}
     e9c:	0000193c 	andeq	r1, r0, ip, lsr r9
     ea0:	3f012e12 	svccc	0x00012e12
     ea4:	3a0e0319 	bcc	381b10 <__bss_end__+0x3753f8>
     ea8:	270b3b0b 	strcs	r3, [fp, -fp, lsl #22]
     eac:	01193c19 	tsteq	r9, r9, lsl ip
     eb0:	13000013 	movwne	r0, #19
     eb4:	13490005 	movtne	r0, #36869	; 0x9005
     eb8:	2e140000 	cdpcs	0, 1, cr0, cr4, cr0, {0}
     ebc:	03193f01 	tsteq	r9, #1, 30
     ec0:	3b0b3a0e 	blcc	2cf700 <__bss_end__+0x2c2fe8>
     ec4:	4919270b 	ldmdbmi	r9, {r0, r1, r3, r8, r9, sl, sp}
     ec8:	01193c13 	tsteq	r9, r3, lsl ip
     ecc:	15000013 	strne	r0, [r0, #-19]
     ed0:	13490026 	movtne	r0, #36902	; 0x9026
     ed4:	35160000 	ldrcc	r0, [r6, #-0]
     ed8:	00000000 	andeq	r0, r0, r0
     edc:	25011101 	strcs	r1, [r1, #-257]	; 0x101
     ee0:	030b130e 	movweq	r1, #45838	; 0xb30e
     ee4:	110e1b0e 	tstne	lr, lr, lsl #22
     ee8:	10061201 	andne	r1, r6, r1, lsl #4
     eec:	02000017 	andeq	r0, r0, #23
     ef0:	0b0b0024 	bleq	2c0f88 <__bss_end__+0x2b4870>
     ef4:	08030b3e 	stmdaeq	r3, {r1, r2, r3, r4, r5, r8, r9, fp}
     ef8:	24030000 	strcs	r0, [r3], #-0
     efc:	3e0b0b00 	vmlacc.f64	d0, d11, d0
     f00:	000e030b 	andeq	r0, lr, fp, lsl #6
     f04:	000f0400 	andeq	r0, pc, r0, lsl #8
     f08:	13490b0b 	movtne	r0, #39691	; 0x9b0b
     f0c:	26050000 	strcs	r0, [r5], -r0
     f10:	00134900 	andseq	r4, r3, r0, lsl #18
     f14:	01040600 	tsteq	r4, r0, lsl #12
     f18:	0b3a0b0b 	bleq	e83b4c <__bss_end__+0xe77434>
     f1c:	13010b3b 	movwne	r0, #6971	; 0x1b3b
     f20:	28070000 	stmdacs	r7, {}	; <UNPREDICTABLE>
     f24:	1c0e0300 	stcne	3, cr0, [lr], {-0}
     f28:	0800000d 	stmdaeq	r0, {r0, r2, r3}
     f2c:	193f012e 	ldmdbne	pc!, {r1, r2, r3, r5, r8}	; <UNPREDICTABLE>
     f30:	0b3a0e03 	bleq	e84744 <__bss_end__+0xe7802c>
     f34:	19270b3b 	stmdbne	r7!, {r0, r1, r3, r4, r5, r8, r9, fp}
     f38:	06120111 			; <UNDEFINED> instruction: 0x06120111
     f3c:	42971840 	addsmi	r1, r7, #64, 16	; 0x400000
     f40:	00130119 	andseq	r0, r3, r9, lsl r1
     f44:	00340900 	eorseq	r0, r4, r0, lsl #18
     f48:	0b3a0e03 	bleq	e8475c <__bss_end__+0xe78044>
     f4c:	13490b3b 	movtne	r0, #39739	; 0x9b3b
     f50:	193c193f 	ldmdbne	ip!, {r0, r1, r2, r3, r4, r5, r8, fp, ip}
     f54:	340a0000 	strcc	r0, [sl], #-0
     f58:	3a080300 	bcc	201b60 <__bss_end__+0x1f5448>
     f5c:	490b3b0b 	stmdbmi	fp, {r0, r1, r3, r8, r9, fp, ip, sp}
     f60:	000b1c13 	andeq	r1, fp, r3, lsl ip
     f64:	00340b00 	eorseq	r0, r4, r0, lsl #22
     f68:	0b3a0803 	bleq	e82f7c <__bss_end__+0xe76864>
     f6c:	13490b3b 	movtne	r0, #39739	; 0x9b3b
     f70:	340c0000 	strcc	r0, [ip], #-0
     f74:	3a080300 	bcc	201b7c <__bss_end__+0x1f5464>
     f78:	490b3b0b 	stmdbmi	fp, {r0, r1, r3, r8, r9, fp, ip, sp}
     f7c:	00180213 	andseq	r0, r8, r3, lsl r2
     f80:	010b0d00 	tsteq	fp, r0, lsl #26
     f84:	06120111 			; <UNDEFINED> instruction: 0x06120111
     f88:	00001301 	andeq	r1, r0, r1, lsl #6
     f8c:	0300340e 	movweq	r3, #1038	; 0x40e
     f90:	3b0b3a08 	blcc	2cf7b8 <__bss_end__+0x2c30a0>
     f94:	0213490b 	andseq	r4, r3, #180224	; 0x2c000
     f98:	0f000017 	svceq	0x00000017
     f9c:	01018289 	smlabbeq	r1, r9, r2, r8
     fa0:	13310111 	teqne	r1, #1073741828	; 0x40000004
     fa4:	00001301 	andeq	r1, r0, r1, lsl #6
     fa8:	01828a10 	orreq	r8, r2, r0, lsl sl
     fac:	91180200 	tstls	r8, r0, lsl #4
     fb0:	00001842 	andeq	r1, r0, r2, asr #16
     fb4:	01828911 	orreq	r8, r2, r1, lsl r9
     fb8:	31011100 	mrscc	r1, (UNDEF: 17)
     fbc:	12000013 	andne	r0, r0, #19
     fc0:	08030005 	stmdaeq	r3, {r0, r2}
     fc4:	0b3b0b3a 	bleq	ec3cb4 <__bss_end__+0xeb759c>
     fc8:	17021349 	strne	r1, [r2, -r9, asr #6]
     fcc:	34130000 	ldrcc	r0, [r3], #-0
     fd0:	490e0300 	stmdbmi	lr, {r8, r9}
     fd4:	02193413 	andseq	r3, r9, #318767104	; 0x13000000
     fd8:	14000018 	strne	r0, [r0], #-24
     fdc:	13490101 	movtne	r0, #37121	; 0x9101
     fe0:	00001301 	andeq	r1, r0, r1, lsl #6
     fe4:	49002115 	stmdbmi	r0, {r0, r2, r4, r8, sp}
     fe8:	000b2f13 	andeq	r2, fp, r3, lsl pc
     fec:	012e1600 	teqeq	lr, r0, lsl #12
     ff0:	0e03193f 	mcreq	9, 0, r1, cr3, cr15, {1}
     ff4:	0b3b0b3a 	bleq	ec3ce4 <__bss_end__+0xeb75cc>
     ff8:	193c1927 	ldmdbne	ip!, {r0, r1, r2, r5, r8, fp, ip}
     ffc:	00001301 	andeq	r1, r0, r1, lsl #6
    1000:	49000517 	stmdbmi	r0, {r0, r1, r2, r4, r8, sl}
    1004:	18000013 	stmdane	r0, {r0, r1, r4}
    1008:	193f002e 	ldmdbne	pc!, {r1, r2, r3, r5}	; <UNPREDICTABLE>
    100c:	0b3a0e03 	bleq	e84820 <__bss_end__+0xe78108>
    1010:	19270b3b 	stmdbne	r7!, {r0, r1, r3, r4, r5, r8, r9, fp}
    1014:	0000193c 	andeq	r1, r0, ip, lsr r9
    1018:	3f012e19 	svccc	0x00012e19
    101c:	3a0e0319 	bcc	381c88 <__bss_end__+0x375570>
    1020:	270b3b0b 	strcs	r3, [fp, -fp, lsl #22]
    1024:	3c134919 	ldccc	9, cr4, [r3], {25}
    1028:	00130119 	andseq	r0, r3, r9, lsl r1
    102c:	00181a00 	andseq	r1, r8, r0, lsl #20
    1030:	01000000 	mrseq	r0, (UNDEF: 0)
    1034:	0e250111 	mcreq	1, 1, r0, cr5, cr1, {0}
    1038:	0e030b13 	vmoveq.32	d3[0], r0
    103c:	01110e1b 	tsteq	r1, fp, lsl lr
    1040:	17100612 			; <UNDEFINED> instruction: 0x17100612
    1044:	24020000 	strcs	r0, [r2], #-0
    1048:	3e0b0b00 	vmlacc.f64	d0, d11, d0
    104c:	0008030b 	andeq	r0, r8, fp, lsl #6
    1050:	00240300 	eoreq	r0, r4, r0, lsl #6
    1054:	0b3e0b0b 	bleq	f83c88 <__bss_end__+0xf77570>
    1058:	00000e03 	andeq	r0, r0, r3, lsl #28
    105c:	0b000f04 	bleq	4c74 <_start-0x338c>
    1060:	0013490b 	andseq	r4, r3, fp, lsl #18
    1064:	00260500 	eoreq	r0, r6, r0, lsl #10
    1068:	00001349 	andeq	r1, r0, r9, asr #6
    106c:	3f012e06 	svccc	0x00012e06
    1070:	3a0e0319 	bcc	381cdc <__bss_end__+0x3755c4>
    1074:	270b3b0b 	strcs	r3, [fp, -fp, lsl #22]
    1078:	12011119 	andne	r1, r1, #1073741830	; 0x40000006
    107c:	97184006 	ldrls	r4, [r8, -r6]
    1080:	13011942 	movwne	r1, #6466	; 0x1942
    1084:	05070000 	streq	r0, [r7, #-0]
    1088:	3a080300 	bcc	201c90 <__bss_end__+0x1f5578>
    108c:	490b3b0b 	stmdbmi	fp, {r0, r1, r3, r8, r9, fp, ip, sp}
    1090:	00170213 	andseq	r0, r7, r3, lsl r2
    1094:	00340800 	eorseq	r0, r4, r0, lsl #16
    1098:	13490e03 	movtne	r0, #40451	; 0x9e03
    109c:	18021934 	stmdane	r2, {r2, r4, r5, r8, fp, ip}
    10a0:	89090000 	stmdbhi	r9, {}	; <UNPREDICTABLE>
    10a4:	11000182 	smlabbne	r0, r2, r1, r0
    10a8:	00133101 	andseq	r3, r3, r1, lsl #2
    10ac:	82890a00 	addhi	r0, r9, #0, 20
    10b0:	01110101 	tsteq	r1, r1, lsl #2
    10b4:	13011331 	movwne	r1, #4913	; 0x1331
    10b8:	8a0b0000 	bhi	2c10c0 <__bss_end__+0x2b49a8>
    10bc:	02000182 	andeq	r0, r0, #-2147483616	; 0x80000020
    10c0:	18429118 	stmdane	r2, {r3, r4, r8, ip, pc}^
    10c4:	010c0000 	mrseq	r0, (UNDEF: 12)
    10c8:	01134901 	tsteq	r3, r1, lsl #18
    10cc:	0d000013 	stceq	0, cr0, [r0, #-76]	; 0xffffffb4
    10d0:	13490021 	movtne	r0, #36897	; 0x9021
    10d4:	00000b2f 	andeq	r0, r0, pc, lsr #22
    10d8:	3f002e0e 	svccc	0x00002e0e
    10dc:	3a0e0319 	bcc	381d48 <__bss_end__+0x375630>
    10e0:	270b3b0b 	strcs	r3, [fp, -fp, lsl #22]
    10e4:	00193c19 	andseq	r3, r9, r9, lsl ip
    10e8:	012e0f00 	teqeq	lr, r0, lsl #30
    10ec:	0e03193f 	mcreq	9, 0, r1, cr3, cr15, {1}
    10f0:	0b3b0b3a 	bleq	ec3de0 <__bss_end__+0xeb76c8>
    10f4:	13491927 	movtne	r1, #39207	; 0x9927
    10f8:	1301193c 	movwne	r1, #6460	; 0x193c
    10fc:	05100000 	ldreq	r0, [r0, #-0]
    1100:	00134900 	andseq	r4, r3, r0, lsl #18
    1104:	00181100 	andseq	r1, r8, r0, lsl #2
    1108:	01000000 	mrseq	r0, (UNDEF: 0)
    110c:	0e250111 	mcreq	1, 1, r0, cr5, cr1, {0}
    1110:	0e030b13 	vmoveq.32	d3[0], r0
    1114:	01110e1b 	tsteq	r1, fp, lsl lr
    1118:	17100612 			; <UNDEFINED> instruction: 0x17100612
    111c:	24020000 	strcs	r0, [r2], #-0
    1120:	3e0b0b00 	vmlacc.f64	d0, d11, d0
    1124:	0008030b 	andeq	r0, r8, fp, lsl #6
    1128:	00240300 	eoreq	r0, r4, r0, lsl #6
    112c:	0b3e0b0b 	bleq	f83d60 <__bss_end__+0xf77648>
    1130:	00000e03 	andeq	r0, r0, r3, lsl #28
    1134:	0b000f04 	bleq	4d4c <_start-0x32b4>
    1138:	0013490b 	andseq	r4, r3, fp, lsl #18
    113c:	00260500 	eoreq	r0, r6, r0, lsl #10
    1140:	00001349 	andeq	r1, r0, r9, asr #6
    1144:	3f012e06 	svccc	0x00012e06
    1148:	3a0e0319 	bcc	381db4 <__bss_end__+0x37569c>
    114c:	270b3b0b 	strcs	r3, [fp, -fp, lsl #22]
    1150:	12011119 	andne	r1, r1, #1073741830	; 0x40000006
    1154:	97184006 	ldrls	r4, [r8, -r6]
    1158:	13011942 	movwne	r1, #6466	; 0x1942
    115c:	05070000 	streq	r0, [r7, #-0]
    1160:	3a080300 	bcc	201d68 <__bss_end__+0x1f5650>
    1164:	490b3b0b 	stmdbmi	fp, {r0, r1, r3, r8, r9, fp, ip, sp}
    1168:	00170213 	andseq	r0, r7, r3, lsl r2
    116c:	00340800 	eorseq	r0, r4, r0, lsl #16
    1170:	13490e03 	movtne	r0, #40451	; 0x9e03
    1174:	18021934 	stmdane	r2, {r2, r4, r5, r8, fp, ip}
    1178:	89090000 	stmdbhi	r9, {}	; <UNPREDICTABLE>
    117c:	11000182 	smlabbne	r0, r2, r1, r0
    1180:	00133101 	andseq	r3, r3, r1, lsl #2
    1184:	82890a00 	addhi	r0, r9, #0, 20
    1188:	01110101 	tsteq	r1, r1, lsl #2
    118c:	13011331 	movwne	r1, #4913	; 0x1331
    1190:	8a0b0000 	bhi	2c1198 <__bss_end__+0x2b4a80>
    1194:	02000182 	andeq	r0, r0, #-2147483616	; 0x80000020
    1198:	18429118 	stmdane	r2, {r3, r4, r8, ip, pc}^
    119c:	010c0000 	mrseq	r0, (UNDEF: 12)
    11a0:	01134901 	tsteq	r3, r1, lsl #18
    11a4:	0d000013 	stceq	0, cr0, [r0, #-76]	; 0xffffffb4
    11a8:	13490021 	movtne	r0, #36897	; 0x9021
    11ac:	00000b2f 	andeq	r0, r0, pc, lsr #22
    11b0:	3f002e0e 	svccc	0x00002e0e
    11b4:	3a0e0319 	bcc	381e20 <__bss_end__+0x375708>
    11b8:	270b3b0b 	strcs	r3, [fp, -fp, lsl #22]
    11bc:	00193c19 	andseq	r3, r9, r9, lsl ip
    11c0:	012e0f00 	teqeq	lr, r0, lsl #30
    11c4:	0e03193f 	mcreq	9, 0, r1, cr3, cr15, {1}
    11c8:	0b3b0b3a 	bleq	ec3eb8 <__bss_end__+0xeb77a0>
    11cc:	13491927 	movtne	r1, #39207	; 0x9927
    11d0:	1301193c 	movwne	r1, #6460	; 0x193c
    11d4:	05100000 	ldreq	r0, [r0, #-0]
    11d8:	00134900 	andseq	r4, r3, r0, lsl #18
    11dc:	00181100 	andseq	r1, r8, r0, lsl #2
    11e0:	01000000 	mrseq	r0, (UNDEF: 0)
    11e4:	0e250111 	mcreq	1, 1, r0, cr5, cr1, {0}
    11e8:	0e030b13 	vmoveq.32	d3[0], r0
    11ec:	01110e1b 	tsteq	r1, fp, lsl lr
    11f0:	17100612 			; <UNDEFINED> instruction: 0x17100612
    11f4:	24020000 	strcs	r0, [r2], #-0
    11f8:	3e0b0b00 	vmlacc.f64	d0, d11, d0
    11fc:	0008030b 	andeq	r0, r8, fp, lsl #6
    1200:	00240300 	eoreq	r0, r4, r0, lsl #6
    1204:	0b3e0b0b 	bleq	f83e38 <__bss_end__+0xf77720>
    1208:	00000e03 	andeq	r0, r0, r3, lsl #28
    120c:	0b000f04 	bleq	4e24 <_start-0x31dc>
    1210:	0013490b 	andseq	r4, r3, fp, lsl #18
    1214:	00260500 	eoreq	r0, r6, r0, lsl #10
    1218:	00001349 	andeq	r1, r0, r9, asr #6
    121c:	3f012e06 	svccc	0x00012e06
    1220:	3a0e0319 	bcc	381e8c <__bss_end__+0x375774>
    1224:	270b3b0b 	strcs	r3, [fp, -fp, lsl #22]
    1228:	12011119 	andne	r1, r1, #1073741830	; 0x40000006
    122c:	97184006 	ldrls	r4, [r8, -r6]
    1230:	13011942 	movwne	r1, #6466	; 0x1942
    1234:	05070000 	streq	r0, [r7, #-0]
    1238:	3a080300 	bcc	201e40 <__bss_end__+0x1f5728>
    123c:	490b3b0b 	stmdbmi	fp, {r0, r1, r3, r8, r9, fp, ip, sp}
    1240:	00170213 	andseq	r0, r7, r3, lsl r2
    1244:	00340800 	eorseq	r0, r4, r0, lsl #16
    1248:	13490e03 	movtne	r0, #40451	; 0x9e03
    124c:	18021934 	stmdane	r2, {r2, r4, r5, r8, fp, ip}
    1250:	89090000 	stmdbhi	r9, {}	; <UNPREDICTABLE>
    1254:	11000182 	smlabbne	r0, r2, r1, r0
    1258:	00133101 	andseq	r3, r3, r1, lsl #2
    125c:	82890a00 	addhi	r0, r9, #0, 20
    1260:	01110101 	tsteq	r1, r1, lsl #2
    1264:	13011331 	movwne	r1, #4913	; 0x1331
    1268:	8a0b0000 	bhi	2c1270 <__bss_end__+0x2b4b58>
    126c:	02000182 	andeq	r0, r0, #-2147483616	; 0x80000020
    1270:	18429118 	stmdane	r2, {r3, r4, r8, ip, pc}^
    1274:	010c0000 	mrseq	r0, (UNDEF: 12)
    1278:	01134901 	tsteq	r3, r1, lsl #18
    127c:	0d000013 	stceq	0, cr0, [r0, #-76]	; 0xffffffb4
    1280:	13490021 	movtne	r0, #36897	; 0x9021
    1284:	00000b2f 	andeq	r0, r0, pc, lsr #22
    1288:	3f002e0e 	svccc	0x00002e0e
    128c:	3a0e0319 	bcc	381ef8 <__bss_end__+0x3757e0>
    1290:	270b3b0b 	strcs	r3, [fp, -fp, lsl #22]
    1294:	00193c19 	andseq	r3, r9, r9, lsl ip
    1298:	012e0f00 	teqeq	lr, r0, lsl #30
    129c:	0e03193f 	mcreq	9, 0, r1, cr3, cr15, {1}
    12a0:	0b3b0b3a 	bleq	ec3f90 <__bss_end__+0xeb7878>
    12a4:	13491927 	movtne	r1, #39207	; 0x9927
    12a8:	1301193c 	movwne	r1, #6460	; 0x193c
    12ac:	05100000 	ldreq	r0, [r0, #-0]
    12b0:	00134900 	andseq	r4, r3, r0, lsl #18
    12b4:	00181100 	andseq	r1, r8, r0, lsl #2
    12b8:	01000000 	mrseq	r0, (UNDEF: 0)
    12bc:	0e250111 	mcreq	1, 1, r0, cr5, cr1, {0}
    12c0:	0e030b13 	vmoveq.32	d3[0], r0
    12c4:	01110e1b 	tsteq	r1, fp, lsl lr
    12c8:	17100612 			; <UNDEFINED> instruction: 0x17100612
    12cc:	24020000 	strcs	r0, [r2], #-0
    12d0:	3e0b0b00 	vmlacc.f64	d0, d11, d0
    12d4:	0008030b 	andeq	r0, r8, fp, lsl #6
    12d8:	00240300 	eoreq	r0, r4, r0, lsl #6
    12dc:	0b3e0b0b 	bleq	f83f10 <__bss_end__+0xf777f8>
    12e0:	00000e03 	andeq	r0, r0, r3, lsl #28
    12e4:	0b000f04 	bleq	4efc <_start-0x3104>
    12e8:	0013490b 	andseq	r4, r3, fp, lsl #18
    12ec:	00260500 	eoreq	r0, r6, r0, lsl #10
    12f0:	00001349 	andeq	r1, r0, r9, asr #6
    12f4:	3f012e06 	svccc	0x00012e06
    12f8:	3a0e0319 	bcc	381f64 <__bss_end__+0x37584c>
    12fc:	270b3b0b 	strcs	r3, [fp, -fp, lsl #22]
    1300:	12011119 	andne	r1, r1, #1073741830	; 0x40000006
    1304:	97184006 	ldrls	r4, [r8, -r6]
    1308:	13011942 	movwne	r1, #6466	; 0x1942
    130c:	05070000 	streq	r0, [r7, #-0]
    1310:	3a080300 	bcc	201f18 <__bss_end__+0x1f5800>
    1314:	490b3b0b 	stmdbmi	fp, {r0, r1, r3, r8, r9, fp, ip, sp}
    1318:	00170213 	andseq	r0, r7, r3, lsl r2
    131c:	00340800 	eorseq	r0, r4, r0, lsl #16
    1320:	13490e03 	movtne	r0, #40451	; 0x9e03
    1324:	18021934 	stmdane	r2, {r2, r4, r5, r8, fp, ip}
    1328:	89090000 	stmdbhi	r9, {}	; <UNPREDICTABLE>
    132c:	11000182 	smlabbne	r0, r2, r1, r0
    1330:	00133101 	andseq	r3, r3, r1, lsl #2
    1334:	82890a00 	addhi	r0, r9, #0, 20
    1338:	01110101 	tsteq	r1, r1, lsl #2
    133c:	13011331 	movwne	r1, #4913	; 0x1331
    1340:	8a0b0000 	bhi	2c1348 <__bss_end__+0x2b4c30>
    1344:	02000182 	andeq	r0, r0, #-2147483616	; 0x80000020
    1348:	18429118 	stmdane	r2, {r3, r4, r8, ip, pc}^
    134c:	010c0000 	mrseq	r0, (UNDEF: 12)
    1350:	01134901 	tsteq	r3, r1, lsl #18
    1354:	0d000013 	stceq	0, cr0, [r0, #-76]	; 0xffffffb4
    1358:	13490021 	movtne	r0, #36897	; 0x9021
    135c:	00000b2f 	andeq	r0, r0, pc, lsr #22
    1360:	3f002e0e 	svccc	0x00002e0e
    1364:	3a0e0319 	bcc	381fd0 <__bss_end__+0x3758b8>
    1368:	270b3b0b 	strcs	r3, [fp, -fp, lsl #22]
    136c:	00193c19 	andseq	r3, r9, r9, lsl ip
    1370:	012e0f00 	teqeq	lr, r0, lsl #30
    1374:	0e03193f 	mcreq	9, 0, r1, cr3, cr15, {1}
    1378:	0b3b0b3a 	bleq	ec4068 <__bss_end__+0xeb7950>
    137c:	13491927 	movtne	r1, #39207	; 0x9927
    1380:	1301193c 	movwne	r1, #6460	; 0x193c
    1384:	05100000 	ldreq	r0, [r0, #-0]
    1388:	00134900 	andseq	r4, r3, r0, lsl #18
    138c:	00181100 	andseq	r1, r8, r0, lsl #2
    1390:	Address 0x0000000000001390 is out of bounds.


Disassembly of section .debug_loc:

00000000 <.debug_loc>:
       0:	00000000 	andeq	r0, r0, r0
       4:	00000018 	andeq	r0, r0, r8, lsl r0
       8:	18500001 	ldmdane	r0, {r0}^
       c:	64000000 	strvs	r0, [r0], #-0
      10:	04000007 	streq	r0, [r0], #-7
      14:	5001f300 	andpl	pc, r1, r0, lsl #6
      18:	0000009f 	muleq	r0, pc, r0	; <UNPREDICTABLE>
	...
      24:	00001400 	andeq	r1, r0, r0, lsl #8
      28:	51000100 	mrspl	r0, (UNDEF: 16)
      2c:	00000014 	andeq	r0, r0, r4, lsl r0
      30:	00000764 	andeq	r0, r0, r4, ror #14
      34:	01f30004 	mvnseq	r0, r4
      38:	00009f51 	andeq	r9, r0, r1, asr pc
	...
      44:	00100000 	andseq	r0, r0, r0
      48:	00010000 	andeq	r0, r1, r0
      4c:	00001052 	andeq	r1, r0, r2, asr r0
      50:	00076400 	andeq	r6, r7, r0, lsl #8
      54:	5a000100 	bpl	45c <_start-0x7ba4>
	...
      60:	00000008 	andeq	r0, r0, r8
      64:	00000018 	andeq	r0, r0, r8, lsl r0
      68:	18500001 	ldmdane	r0, {r0}^
      6c:	64000000 	strvs	r0, [r0], #-0
      70:	04000007 	streq	r0, [r0], #-7
      74:	5001f300 	andpl	pc, r1, r0, lsl #6
      78:	0000009f 	muleq	r0, pc, r0	; <UNPREDICTABLE>
      7c:	00000000 	andeq	r0, r0, r0
      80:	00004c00 	andeq	r4, r0, r0, lsl #24
      84:	00031400 	andeq	r1, r3, r0, lsl #8
      88:	50000100 	andpl	r0, r0, r0, lsl #2
      8c:	00000324 	andeq	r0, r0, r4, lsr #6
      90:	0000032c 	andeq	r0, r0, ip, lsr #6
      94:	00500001 	subseq	r0, r0, r1
      98:	00000000 	andeq	r0, r0, r0
      9c:	50000000 	andpl	r0, r0, r0
      a0:	94000000 	strls	r0, [r0], #-0
      a4:	01000003 	tsteq	r0, r3
      a8:	06f45300 	ldrbteq	r5, [r4], r0, lsl #6
      ac:	070c0000 	streq	r0, [ip, -r0]
      b0:	00010000 	andeq	r0, r1, r0
      b4:	00000053 	andeq	r0, r0, r3, asr r0
      b8:	00000000 	andeq	r0, r0, r0
      bc:	00007400 	andeq	r7, r0, r0, lsl #8
      c0:	00007800 	andeq	r7, r0, r0, lsl #16
      c4:	52000100 	andpl	r0, r0, #0, 2
      c8:	00000078 	andeq	r0, r0, r8, ror r0
      cc:	00000084 	andeq	r0, r0, r4, lsl #1
      d0:	d8030005 	stmdale	r3, {r0, r2}
      d4:	000000a2 	andeq	r0, r0, r2, lsr #1
      d8:	00000000 	andeq	r0, r0, r0
      dc:	8c000000 	stchi	0, cr0, [r0], {-0}
      e0:	90000000 	andls	r0, r0, r0
      e4:	01000000 	mrseq	r0, (UNDEF: 0)
      e8:	00005100 	andeq	r5, r0, r0, lsl #2
      ec:	00000000 	andeq	r0, r0, r0
      f0:	00a40000 	adceq	r0, r4, r0
      f4:	03140000 	tsteq	r4, #0
      f8:	00080000 	andeq	r0, r8, r0
      fc:	1a310070 	bne	c402c4 <__bss_end__+0xc33bac>
     100:	9f1aff08 	svcls	0x001aff08
     104:	00000324 	andeq	r0, r0, r4, lsr #6
     108:	0000032c 	andeq	r0, r0, ip, lsr #6
     10c:	00700008 	rsbseq	r0, r0, r8
     110:	ff081a31 			; <UNDEFINED> instruction: 0xff081a31
     114:	00009f1a 	andeq	r9, r0, sl, lsl pc
     118:	00000000 	andeq	r0, r0, r0
     11c:	00a40000 	adceq	r0, r4, r0
     120:	00bc0000 	adcseq	r0, ip, r0
     124:	00010000 	andeq	r0, r1, r0
     128:	0000bc52 	andeq	fp, r0, r2, asr ip
     12c:	0000c000 	andeq	ip, r0, r0
     130:	03000500 	movweq	r0, #1280	; 0x500
     134:	0000a2d8 	ldrdeq	sl, [r0], -r8
     138:	000000c4 	andeq	r0, r0, r4, asr #1
     13c:	000000d4 	ldrdeq	r0, [r0], -r4
     140:	d4520001 	ldrble	r0, [r2], #-1
     144:	d8000000 	stmdale	r0, {}	; <UNPREDICTABLE>
     148:	05000000 	streq	r0, [r0, #-0]
     14c:	a2d80300 	sbcsge	r0, r8, #0, 6
     150:	04780000 	ldrbteq	r0, [r8], #-0
     154:	048c0000 	streq	r0, [ip], #0
     158:	00010000 	andeq	r0, r1, r0
     15c:	00048c52 	andeq	r8, r4, r2, asr ip
     160:	00049000 	andeq	r9, r4, r0
     164:	03000500 	movweq	r0, #1280	; 0x500
     168:	0000a2d8 	ldrdeq	sl, [r0], -r8
     16c:	00000494 	muleq	r0, r4, r4
     170:	000004a0 	andeq	r0, r0, r0, lsr #9
     174:	a0520001 	subsge	r0, r2, r1
     178:	a4000004 	strge	r0, [r0], #-4
     17c:	05000004 	streq	r0, [r0, #-4]
     180:	a2d80300 	sbcsge	r0, r8, #0, 6
	...
     18c:	00ac0000 	adceq	r0, ip, r0
     190:	00bc0000 	adcseq	r0, ip, r0
     194:	00010000 	andeq	r0, r1, r0
     198:	0000bc52 	andeq	fp, r0, r2, asr ip
     19c:	0000c000 	andeq	ip, r0, r0
     1a0:	03000500 	movweq	r0, #1280	; 0x500
     1a4:	0000a2d8 	ldrdeq	sl, [r0], -r8
	...
     1b0:	000000c4 	andeq	r0, r0, r4, asr #1
     1b4:	000000d4 	ldrdeq	r0, [r0], -r4
     1b8:	d4520001 	ldrble	r0, [r2], #-1
     1bc:	d8000000 	stmdale	r0, {}	; <UNPREDICTABLE>
     1c0:	05000000 	streq	r0, [r0, #-0]
     1c4:	a2d80300 	sbcsge	r0, r8, #0, 6
	...
     1d0:	00e00000 	rsceq	r0, r0, r0
     1d4:	00e40000 	rsceq	r0, r4, r0
     1d8:	00010000 	andeq	r0, r1, r0
     1dc:	00000052 	andeq	r0, r0, r2, asr r0
     1e0:	00000000 	andeq	r0, r0, r0
     1e4:	0000f800 	andeq	pc, r0, r0, lsl #16
     1e8:	00031400 	andeq	r1, r3, r0, lsl #8
     1ec:	70000800 	andvc	r0, r0, r0, lsl #16
     1f0:	081a3200 	ldmdaeq	sl, {r9, ip, sp}
     1f4:	249f1aff 	ldrcs	r1, [pc], #2815	; 1fc <_start-0x7e04>
     1f8:	2c000003 	stccs	0, cr0, [r0], {3}
     1fc:	08000003 	stmdaeq	r0, {r0, r1}
     200:	32007000 	andcc	r7, r0, #0
     204:	1aff081a 	bne	fffc2274 <__bss_end__+0xfffb5b5c>
     208:	0000009f 	muleq	r0, pc, r0	; <UNPREDICTABLE>
     20c:	00000000 	andeq	r0, r0, r0
     210:	0000f800 	andeq	pc, r0, r0, lsl #16
     214:	00011000 	andeq	r1, r1, r0
     218:	52000100 	andpl	r0, r0, #0, 2
     21c:	00000110 	andeq	r0, r0, r0, lsl r1
     220:	00000114 	andeq	r0, r0, r4, lsl r1
     224:	d8030005 	stmdale	r3, {r0, r2}
     228:	180000a2 	stmdane	r0, {r1, r5, r7}
     22c:	28000001 	stmdacs	r0, {r0}
     230:	01000001 	tsteq	r0, r1
     234:	01285200 	teqeq	r8, r0, lsl #4
     238:	012c0000 	teqeq	ip, r0
     23c:	00050000 	andeq	r0, r5, r0
     240:	00a2d803 	adceq	sp, r2, r3, lsl #16
     244:	0004bc00 	andeq	fp, r4, r0, lsl #24
     248:	0004d000 	andeq	sp, r4, r0
     24c:	52000100 	andpl	r0, r0, #0, 2
     250:	000004d0 	ldrdeq	r0, [r0], -r0	; <UNPREDICTABLE>
     254:	000004d4 	ldrdeq	r0, [r0], -r4
     258:	d8030005 	stmdale	r3, {r0, r2}
     25c:	d80000a2 	stmdale	r0, {r1, r5, r7}
     260:	e4000004 	str	r0, [r0], #-4
     264:	01000004 	tsteq	r0, r4
     268:	04e45200 	strbteq	r5, [r4], #512	; 0x200
     26c:	04e80000 	strbteq	r0, [r8], #0
     270:	00050000 	andeq	r0, r5, r0
     274:	00a2d803 	adceq	sp, r2, r3, lsl #16
	...
     280:	00010000 	andeq	r0, r1, r0
     284:	00011000 	andeq	r1, r1, r0
     288:	52000100 	andpl	r0, r0, #0, 2
     28c:	00000110 	andeq	r0, r0, r0, lsl r1
     290:	00000114 	andeq	r0, r0, r4, lsl r1
     294:	d8030005 	stmdale	r3, {r0, r2}
     298:	000000a2 	andeq	r0, r0, r2, lsr #1
     29c:	00000000 	andeq	r0, r0, r0
     2a0:	18000000 	stmdane	r0, {}	; <UNPREDICTABLE>
     2a4:	28000001 	stmdacs	r0, {r0}
     2a8:	01000001 	tsteq	r0, r1
     2ac:	01285200 	teqeq	r8, r0, lsl #4
     2b0:	012c0000 	teqeq	ip, r0
     2b4:	00050000 	andeq	r0, r5, r0
     2b8:	00a2d803 	adceq	sp, r2, r3, lsl #16
	...
     2c4:	00013400 	andeq	r3, r1, r0, lsl #8
     2c8:	00013800 	andeq	r3, r1, r0, lsl #16
     2cc:	51000100 	mrspl	r0, (UNDEF: 16)
	...
     2d8:	00000150 	andeq	r0, r0, r0, asr r1
     2dc:	00000314 	andeq	r0, r0, r4, lsl r3
     2e0:	00700008 	rsbseq	r0, r0, r8
     2e4:	ff081a34 			; <UNDEFINED> instruction: 0xff081a34
     2e8:	03249f1a 	teqeq	r4, #26, 30	; 0x68
     2ec:	032c0000 	teqeq	ip, #0
     2f0:	00080000 	andeq	r0, r8, r0
     2f4:	1a340070 	bne	d004bc <__bss_end__+0xcf3da4>
     2f8:	9f1aff08 	svcls	0x001aff08
	...
     304:	00000150 	andeq	r0, r0, r0, asr r1
     308:	00000168 	andeq	r0, r0, r8, ror #2
     30c:	68520001 	ldmdavs	r2, {r0}^
     310:	6c000001 	stcvs	0, cr0, [r0], {1}
     314:	05000001 	streq	r0, [r0, #-1]
     318:	a2d80300 	sbcsge	r0, r8, #0, 6
     31c:	01700000 	cmneq	r0, r0
     320:	01800000 	orreq	r0, r0, r0
     324:	00010000 	andeq	r0, r1, r0
     328:	00018052 	andeq	r8, r1, r2, asr r0
     32c:	00018400 	andeq	r8, r1, r0, lsl #8
     330:	03000500 	movweq	r0, #1280	; 0x500
     334:	0000a2d8 	ldrdeq	sl, [r0], -r8
     338:	00000504 	andeq	r0, r0, r4, lsl #10
     33c:	00000518 	andeq	r0, r0, r8, lsl r5
     340:	18520001 	ldmdane	r2, {r0}^
     344:	1c000005 	stcne	0, cr0, [r0], {5}
     348:	05000005 	streq	r0, [r0, #-5]
     34c:	a2d80300 	sbcsge	r0, r8, #0, 6
     350:	05200000 	streq	r0, [r0, #-0]!
     354:	052c0000 	streq	r0, [ip, #-0]!
     358:	00010000 	andeq	r0, r1, r0
     35c:	00052c52 	andeq	r2, r5, r2, asr ip
     360:	00053000 	andeq	r3, r5, r0
     364:	03000500 	movweq	r0, #1280	; 0x500
     368:	0000a2d8 	ldrdeq	sl, [r0], -r8
	...
     374:	00000158 	andeq	r0, r0, r8, asr r1
     378:	00000168 	andeq	r0, r0, r8, ror #2
     37c:	68520001 	ldmdavs	r2, {r0}^
     380:	6c000001 	stcvs	0, cr0, [r0], {1}
     384:	05000001 	streq	r0, [r0, #-1]
     388:	a2d80300 	sbcsge	r0, r8, #0, 6
	...
     394:	01700000 	cmneq	r0, r0
     398:	01800000 	orreq	r0, r0, r0
     39c:	00010000 	andeq	r0, r1, r0
     3a0:	00018052 	andeq	r8, r1, r2, asr r0
     3a4:	00018400 	andeq	r8, r1, r0, lsl #8
     3a8:	03000500 	movweq	r0, #1280	; 0x500
     3ac:	0000a2d8 	ldrdeq	sl, [r0], -r8
	...
     3b8:	0000018c 	andeq	r0, r0, ip, lsl #3
     3bc:	00000190 	muleq	r0, r0, r1
     3c0:	00520001 	subseq	r0, r2, r1
     3c4:	00000000 	andeq	r0, r0, r0
     3c8:	a4000000 	strge	r0, [r0], #-0
     3cc:	14000001 	strne	r0, [r0], #-1
     3d0:	08000003 	stmdaeq	r0, {r0, r1}
     3d4:	38007000 	stmdacc	r0, {ip, sp, lr}
     3d8:	1aff081a 	bne	fffc2448 <__bss_end__+0xfffb5d30>
     3dc:	0003249f 	muleq	r3, pc, r4	; <UNPREDICTABLE>
     3e0:	00032c00 	andeq	r2, r3, r0, lsl #24
     3e4:	70000800 	andvc	r0, r0, r0, lsl #16
     3e8:	081a3800 	ldmdaeq	sl, {fp, ip, sp}
     3ec:	009f1aff 			; <UNDEFINED> instruction: 0x009f1aff
     3f0:	00000000 	andeq	r0, r0, r0
     3f4:	a4000000 	strge	r0, [r0], #-0
     3f8:	bc000001 	stclt	0, cr0, [r0], {1}
     3fc:	01000001 	tsteq	r0, r1
     400:	01bc5200 			; <UNDEFINED> instruction: 0x01bc5200
     404:	01c00000 	biceq	r0, r0, r0
     408:	00050000 	andeq	r0, r5, r0
     40c:	00a2d803 	adceq	sp, r2, r3, lsl #16
     410:	0001c400 	andeq	ip, r1, r0, lsl #8
     414:	0001d400 	andeq	sp, r1, r0, lsl #8
     418:	52000100 	andpl	r0, r0, #0, 2
     41c:	000001d4 	ldrdeq	r0, [r0], -r4
     420:	000001d8 	ldrdeq	r0, [r0], -r8
     424:	d8030005 	stmdale	r3, {r0, r2}
     428:	480000a2 	stmdami	r0, {r1, r5, r7}
     42c:	5c000005 	stcpl	0, cr0, [r0], {5}
     430:	01000005 	tsteq	r0, r5
     434:	055c5200 	ldrbeq	r5, [ip, #-512]	; 0x200
     438:	05600000 	strbeq	r0, [r0, #-0]!
     43c:	00050000 	andeq	r0, r5, r0
     440:	00a2d803 	adceq	sp, r2, r3, lsl #16
     444:	00056400 	andeq	r6, r5, r0, lsl #8
     448:	00057000 	andeq	r7, r5, r0
     44c:	52000100 	andpl	r0, r0, #0, 2
     450:	00000570 	andeq	r0, r0, r0, ror r5
     454:	00000574 	andeq	r0, r0, r4, ror r5
     458:	d8030005 	stmdale	r3, {r0, r2}
     45c:	000000a2 	andeq	r0, r0, r2, lsr #1
     460:	00000000 	andeq	r0, r0, r0
     464:	ac000000 	stcge	0, cr0, [r0], {-0}
     468:	bc000001 	stclt	0, cr0, [r0], {1}
     46c:	01000001 	tsteq	r0, r1
     470:	01bc5200 			; <UNDEFINED> instruction: 0x01bc5200
     474:	01c00000 	biceq	r0, r0, r0
     478:	00050000 	andeq	r0, r5, r0
     47c:	00a2d803 	adceq	sp, r2, r3, lsl #16
	...
     488:	0001c400 	andeq	ip, r1, r0, lsl #8
     48c:	0001d400 	andeq	sp, r1, r0, lsl #8
     490:	52000100 	andpl	r0, r0, #0, 2
     494:	000001d4 	ldrdeq	r0, [r0], -r4
     498:	000001d8 	ldrdeq	r0, [r0], -r8
     49c:	d8030005 	stmdale	r3, {r0, r2}
     4a0:	000000a2 	andeq	r0, r0, r2, lsr #1
     4a4:	00000000 	andeq	r0, r0, r0
     4a8:	e0000000 	and	r0, r0, r0
     4ac:	e4000001 	str	r0, [r0], #-1
     4b0:	01000001 	tsteq	r0, r1
     4b4:	00005100 	andeq	r5, r0, r0, lsl #2
     4b8:	00000000 	andeq	r0, r0, r0
     4bc:	01fc0000 	mvnseq	r0, r0
     4c0:	03140000 	tsteq	r4, #0
     4c4:	00080000 	andeq	r0, r8, r0
     4c8:	1a400070 	bne	1000690 <__bss_end__+0xff3f78>
     4cc:	9f1aff08 	svcls	0x001aff08
     4d0:	00000324 	andeq	r0, r0, r4, lsr #6
     4d4:	0000032c 	andeq	r0, r0, ip, lsr #6
     4d8:	00700008 	rsbseq	r0, r0, r8
     4dc:	ff081a40 			; <UNDEFINED> instruction: 0xff081a40
     4e0:	00009f1a 	andeq	r9, r0, sl, lsl pc
     4e4:	00000000 	andeq	r0, r0, r0
     4e8:	01fc0000 	mvnseq	r0, r0
     4ec:	02140000 	andseq	r0, r4, #0
     4f0:	00010000 	andeq	r0, r1, r0
     4f4:	00021452 	andeq	r1, r2, r2, asr r4
     4f8:	00021800 	andeq	r1, r2, r0, lsl #16
     4fc:	03000500 	movweq	r0, #1280	; 0x500
     500:	0000a2d8 	ldrdeq	sl, [r0], -r8
     504:	0000021c 	andeq	r0, r0, ip, lsl r2
     508:	0000022c 	andeq	r0, r0, ip, lsr #4
     50c:	2c520001 	mrrccs	0, 0, r0, r2, cr1
     510:	30000002 	andcc	r0, r0, r2
     514:	05000002 	streq	r0, [r0, #-2]
     518:	a2d80300 	sbcsge	r0, r8, #0, 6
     51c:	05900000 	ldreq	r0, [r0]
     520:	05a40000 	streq	r0, [r4, #0]!
     524:	00010000 	andeq	r0, r1, r0
     528:	0005a452 	andeq	sl, r5, r2, asr r4
     52c:	0005a800 	andeq	sl, r5, r0, lsl #16
     530:	03000500 	movweq	r0, #1280	; 0x500
     534:	0000a2d8 	ldrdeq	sl, [r0], -r8
     538:	000005ac 	andeq	r0, r0, ip, lsr #11
     53c:	000005b8 			; <UNDEFINED> instruction: 0x000005b8
     540:	b8520001 	ldmdalt	r2, {r0}^
     544:	bc000005 	stclt	0, cr0, [r0], {5}
     548:	05000005 	streq	r0, [r0, #-5]
     54c:	a2d80300 	sbcsge	r0, r8, #0, 6
	...
     558:	02040000 	andeq	r0, r4, #0
     55c:	02140000 	andseq	r0, r4, #0
     560:	00010000 	andeq	r0, r1, r0
     564:	00021452 	andeq	r1, r2, r2, asr r4
     568:	00021800 	andeq	r1, r2, r0, lsl #16
     56c:	03000500 	movweq	r0, #1280	; 0x500
     570:	0000a2d8 	ldrdeq	sl, [r0], -r8
	...
     57c:	0000021c 	andeq	r0, r0, ip, lsl r2
     580:	0000022c 	andeq	r0, r0, ip, lsr #4
     584:	2c520001 	mrrccs	0, 0, r0, r2, cr1
     588:	30000002 	andcc	r0, r0, r2
     58c:	05000002 	streq	r0, [r0, #-2]
     590:	a2d80300 	sbcsge	r0, r8, #0, 6
	...
     59c:	02380000 	eorseq	r0, r8, #0
     5a0:	023c0000 	eorseq	r0, ip, #0
     5a4:	00010000 	andeq	r0, r1, r0
     5a8:	00000051 	andeq	r0, r0, r1, asr r0
     5ac:	00000000 	andeq	r0, r0, r0
     5b0:	00025800 	andeq	r5, r2, r0, lsl #16
     5b4:	00031400 	andeq	r1, r3, r0, lsl #8
     5b8:	70000900 	andvc	r0, r0, r0, lsl #18
     5bc:	1a200800 	bne	8025c4 <__bss_end__+0x7f5eac>
     5c0:	9f1aff08 	svcls	0x001aff08
     5c4:	00000324 	andeq	r0, r0, r4, lsr #6
     5c8:	0000032c 	andeq	r0, r0, ip, lsr #6
     5cc:	00700009 	rsbseq	r0, r0, r9
     5d0:	081a2008 	ldmdaeq	sl, {r3, sp}
     5d4:	009f1aff 			; <UNDEFINED> instruction: 0x009f1aff
     5d8:	00000000 	andeq	r0, r0, r0
     5dc:	58000000 	stmdapl	r0, {}	; <UNPREDICTABLE>
     5e0:	70000002 	andvc	r0, r0, r2
     5e4:	01000002 	tsteq	r0, r2
     5e8:	02705200 	rsbseq	r5, r0, #0, 4
     5ec:	02740000 	rsbseq	r0, r4, #0
     5f0:	00050000 	andeq	r0, r5, r0
     5f4:	00a2d803 	adceq	sp, r2, r3, lsl #16
     5f8:	00027800 	andeq	r7, r2, r0, lsl #16
     5fc:	00028800 	andeq	r8, r2, r0, lsl #16
     600:	52000100 	andpl	r0, r0, #0, 2
     604:	00000288 	andeq	r0, r0, r8, lsl #5
     608:	0000028c 	andeq	r0, r0, ip, lsl #5
     60c:	d8030005 	stmdale	r3, {r0, r2}
     610:	dc0000a2 	stcle	0, cr0, [r0], {162}	; 0xa2
     614:	f0000005 			; <UNDEFINED> instruction: 0xf0000005
     618:	01000005 	tsteq	r0, r5
     61c:	05f05200 	ldrbeq	r5, [r0, #512]!	; 0x200
     620:	05f40000 	ldrbeq	r0, [r4, #0]!
     624:	00050000 	andeq	r0, r5, r0
     628:	00a2d803 	adceq	sp, r2, r3, lsl #16
     62c:	0005f800 	andeq	pc, r5, r0, lsl #16
     630:	00060400 	andeq	r0, r6, r0, lsl #8
     634:	52000100 	andpl	r0, r0, #0, 2
     638:	00000604 	andeq	r0, r0, r4, lsl #12
     63c:	00000608 	andeq	r0, r0, r8, lsl #12
     640:	d8030005 	stmdale	r3, {r0, r2}
     644:	000000a2 	andeq	r0, r0, r2, lsr #1
     648:	00000000 	andeq	r0, r0, r0
     64c:	60000000 	andvs	r0, r0, r0
     650:	70000002 	andvc	r0, r0, r2
     654:	01000002 	tsteq	r0, r2
     658:	02705200 	rsbseq	r5, r0, #0, 4
     65c:	02740000 	rsbseq	r0, r4, #0
     660:	00050000 	andeq	r0, r5, r0
     664:	00a2d803 	adceq	sp, r2, r3, lsl #16
	...
     670:	00027800 	andeq	r7, r2, r0, lsl #16
     674:	00028800 	andeq	r8, r2, r0, lsl #16
     678:	52000100 	andpl	r0, r0, #0, 2
     67c:	00000288 	andeq	r0, r0, r8, lsl #5
     680:	0000028c 	andeq	r0, r0, ip, lsl #5
     684:	d8030005 	stmdale	r3, {r0, r2}
     688:	000000a2 	andeq	r0, r0, r2, lsr #1
     68c:	00000000 	andeq	r0, r0, r0
     690:	94000000 	strls	r0, [r0], #-0
     694:	98000002 	stmdals	r0, {r1}
     698:	01000002 	tsteq	r0, r2
     69c:	00005100 	andeq	r5, r0, r0, lsl #2
     6a0:	00000000 	andeq	r0, r0, r0
     6a4:	02b00000 	adcseq	r0, r0, #0
     6a8:	03140000 	tsteq	r4, #0
     6ac:	00090000 	andeq	r0, r9, r0
     6b0:	40080070 	andmi	r0, r8, r0, ror r0
     6b4:	1aff081a 	bne	fffc2724 <__bss_end__+0xfffb600c>
     6b8:	0003249f 	muleq	r3, pc, r4	; <UNPREDICTABLE>
     6bc:	00032c00 	andeq	r2, r3, r0, lsl #24
     6c0:	70000900 	andvc	r0, r0, r0, lsl #18
     6c4:	1a400800 	bne	10026cc <__bss_end__+0xff5fb4>
     6c8:	9f1aff08 	svcls	0x001aff08
	...
     6d4:	000002b0 			; <UNDEFINED> instruction: 0x000002b0
     6d8:	000002c8 	andeq	r0, r0, r8, asr #5
     6dc:	c8520001 	ldmdagt	r2, {r0}^
     6e0:	cc000002 	stcgt	0, cr0, [r0], {2}
     6e4:	05000002 	streq	r0, [r0, #-2]
     6e8:	a2d80300 	sbcsge	r0, r8, #0, 6
     6ec:	02d00000 	sbcseq	r0, r0, #0
     6f0:	02e00000 	rsceq	r0, r0, #0
     6f4:	00010000 	andeq	r0, r1, r0
     6f8:	0002e052 	andeq	lr, r2, r2, asr r0
     6fc:	0002e400 	andeq	lr, r2, r0, lsl #8
     700:	03000500 	movweq	r0, #1280	; 0x500
     704:	0000a2d8 	ldrdeq	sl, [r0], -r8
     708:	00000624 	andeq	r0, r0, r4, lsr #12
     70c:	00000638 	andeq	r0, r0, r8, lsr r6
     710:	38520001 	ldmdacc	r2, {r0}^
     714:	3c000006 	stccc	0, cr0, [r0], {6}
     718:	05000006 	streq	r0, [r0, #-6]
     71c:	a2d80300 	sbcsge	r0, r8, #0, 6
     720:	06400000 	strbeq	r0, [r0], -r0
     724:	064c0000 	strbeq	r0, [ip], -r0
     728:	00010000 	andeq	r0, r1, r0
     72c:	00064c52 	andeq	r4, r6, r2, asr ip
     730:	00065000 	andeq	r5, r6, r0
     734:	03000500 	movweq	r0, #1280	; 0x500
     738:	0000a2d8 	ldrdeq	sl, [r0], -r8
	...
     744:	000002b8 			; <UNDEFINED> instruction: 0x000002b8
     748:	000002c8 	andeq	r0, r0, r8, asr #5
     74c:	c8520001 	ldmdagt	r2, {r0}^
     750:	cc000002 	stcgt	0, cr0, [r0], {2}
     754:	05000002 	streq	r0, [r0, #-2]
     758:	a2d80300 	sbcsge	r0, r8, #0, 6
	...
     764:	02d00000 	sbcseq	r0, r0, #0
     768:	02e00000 	rsceq	r0, r0, #0
     76c:	00010000 	andeq	r0, r1, r0
     770:	0002e052 	andeq	lr, r2, r2, asr r0
     774:	0002e400 	andeq	lr, r2, r0, lsl #8
     778:	03000500 	movweq	r0, #1280	; 0x500
     77c:	0000a2d8 	ldrdeq	sl, [r0], -r8
	...
     788:	000002ec 	andeq	r0, r0, ip, ror #5
     78c:	000002f0 	strdeq	r0, [r0], -r0	; <UNPREDICTABLE>
     790:	00520001 	subseq	r0, r2, r1
     794:	00000000 	andeq	r0, r0, r0
     798:	04000000 	streq	r0, [r0], #-0
     79c:	14000003 	strne	r0, [r0], #-3
     7a0:	09000003 	stmdbeq	r0, {r0, r1}
     7a4:	08007000 	stmdaeq	r0, {ip, sp, lr}
     7a8:	ff081a80 			; <UNDEFINED> instruction: 0xff081a80
     7ac:	03249f1a 	teqeq	r4, #26, 30	; 0x68
     7b0:	032c0000 	teqeq	ip, #0
     7b4:	00090000 	andeq	r0, r9, r0
     7b8:	80080070 	andhi	r0, r8, r0, ror r0
     7bc:	1aff081a 	bne	fffc282c <__bss_end__+0xfffb6114>
     7c0:	0000009f 	muleq	r0, pc, r0	; <UNPREDICTABLE>
     7c4:	00000000 	andeq	r0, r0, r0
     7c8:	00030400 	andeq	r0, r3, r0, lsl #8
     7cc:	00031c00 	andeq	r1, r3, r0, lsl #24
     7d0:	52000100 	andpl	r0, r0, #0, 2
     7d4:	0000031c 	andeq	r0, r0, ip, lsl r3
     7d8:	00000320 	andeq	r0, r0, r0, lsr #6
     7dc:	d8030005 	stmdale	r3, {r0, r2}
     7e0:	240000a2 	strcs	r0, [r0], #-162	; 0xa2
     7e4:	34000003 	strcc	r0, [r0], #-3
     7e8:	01000003 	tsteq	r0, r3
     7ec:	03345200 	teqeq	r4, #0, 4
     7f0:	03380000 	teqeq	r8, #0
     7f4:	00050000 	andeq	r0, r5, r0
     7f8:	00a2d803 	adceq	sp, r2, r3, lsl #16
     7fc:	00066800 	andeq	r6, r6, r0, lsl #16
     800:	00067c00 	andeq	r7, r6, r0, lsl #24
     804:	52000100 	andpl	r0, r0, #0, 2
     808:	0000067c 	andeq	r0, r0, ip, ror r6
     80c:	00000680 	andeq	r0, r0, r0, lsl #13
     810:	d8030005 	stmdale	r3, {r0, r2}
     814:	840000a2 	strhi	r0, [r0], #-162	; 0xa2
     818:	90000006 	andls	r0, r0, r6
     81c:	01000006 	tsteq	r0, r6
     820:	06905200 	ldreq	r5, [r0], r0, lsl #4
     824:	06940000 	ldreq	r0, [r4], r0
     828:	00050000 	andeq	r0, r5, r0
     82c:	00a2d803 	adceq	sp, r2, r3, lsl #16
	...
     838:	00030c00 	andeq	r0, r3, r0, lsl #24
     83c:	00031c00 	andeq	r1, r3, r0, lsl #24
     840:	52000100 	andpl	r0, r0, #0, 2
     844:	0000031c 	andeq	r0, r0, ip, lsl r3
     848:	00000320 	andeq	r0, r0, r0, lsr #6
     84c:	d8030005 	stmdale	r3, {r0, r2}
     850:	000000a2 	andeq	r0, r0, r2, lsr #1
     854:	00000000 	andeq	r0, r0, r0
     858:	24000000 	strcs	r0, [r0], #-0
     85c:	34000003 	strcc	r0, [r0], #-3
     860:	01000003 	tsteq	r0, r3
     864:	03345200 	teqeq	r4, #0, 4
     868:	03380000 	teqeq	r8, #0
     86c:	00050000 	andeq	r0, r5, r0
     870:	00a2d803 	adceq	sp, r2, r3, lsl #16
	...
     87c:	00034000 	andeq	r4, r3, r0
     880:	00034400 	andeq	r4, r3, r0, lsl #8
     884:	51000100 	mrspl	r0, (UNDEF: 16)
	...
     890:	0000035c 	andeq	r0, r0, ip, asr r3
     894:	0000036c 	andeq	r0, r0, ip, ror #6
     898:	6c510001 	mrrcvs	0, 0, r0, r1, cr1
     89c:	70000003 	andvc	r0, r0, r3
     8a0:	05000003 	streq	r0, [r0, #-3]
     8a4:	a2d80300 	sbcsge	r0, r8, #0, 6
	...
     8b0:	03780000 	cmneq	r8, #0
     8b4:	037c0000 	cmneq	ip, #0
     8b8:	00010000 	andeq	r0, r1, r0
     8bc:	00000051 	andeq	r0, r0, r1, asr r0
     8c0:	00000000 	andeq	r0, r0, r0
     8c4:	00039400 	andeq	r9, r3, r0, lsl #8
     8c8:	0006e000 	andeq	lr, r6, r0
     8cc:	03000600 	movweq	r0, #1536	; 0x600
     8d0:	0000a2e8 	andeq	sl, r0, r8, ror #5
     8d4:	0000009f 	muleq	r0, pc, r0	; <UNPREDICTABLE>
     8d8:	00000000 	andeq	r0, r0, r0
     8dc:	00039400 	andeq	r9, r3, r0, lsl #8
     8e0:	0003b400 	andeq	fp, r3, r0, lsl #8
     8e4:	30000200 	andcc	r0, r0, r0, lsl #4
     8e8:	0003b49f 	muleq	r3, pc, r4	; <UNPREDICTABLE>
     8ec:	0003cc00 	andeq	ip, r3, r0, lsl #24
     8f0:	53000100 	movwpl	r0, #256	; 0x100
     8f4:	000003cc 	andeq	r0, r0, ip, asr #7
     8f8:	000003d4 	ldrdeq	r0, [r0], -r4
     8fc:	9f300002 	svcls	0x00300002
     900:	000003d4 	ldrdeq	r0, [r0], -r4
     904:	000003df 	ldrdeq	r0, [r0], -pc	; <UNPREDICTABLE>
     908:	f8530001 			; <UNDEFINED> instruction: 0xf8530001
     90c:	17000003 	strne	r0, [r0, -r3]
     910:	01000004 	tsteq	r0, r4
     914:	041c5300 	ldreq	r5, [ip], #-768	; 0x300
     918:	041f0000 	ldreq	r0, [pc], #-0	; 920 <_start-0x76e0>
     91c:	00010000 	andeq	r0, r1, r0
     920:	00000053 	andeq	r0, r0, r3, asr r0
     924:	00000000 	andeq	r0, r0, r0
     928:	00039400 	andeq	r9, r3, r0, lsl #8
     92c:	0006e000 	andeq	lr, r6, r0
     930:	f2000600 	vmax.s8	d0, d0, d0
     934:	000008fb 	strdeq	r0, [r0], -fp
	...
     940:	0003a800 	andeq	sl, r3, r0, lsl #16
     944:	0003b800 	andeq	fp, r3, r0, lsl #16
     948:	52000100 	andpl	r0, r0, #0, 2
     94c:	000003b8 			; <UNDEFINED> instruction: 0x000003b8
     950:	000003c4 	andeq	r0, r0, r4, asr #7
     954:	f0030005 			; <UNDEFINED> instruction: 0xf0030005
     958:	000000c2 	andeq	r0, r0, r2, asr #1
     95c:	00000000 	andeq	r0, r0, r0
     960:	34000000 	strcc	r0, [r0], #-0
     964:	74000004 	strvc	r0, [r0], #-4
     968:	01000006 	tsteq	r0, r6
     96c:	06845100 	streq	r5, [r4], r0, lsl #2
     970:	06880000 	streq	r0, [r8], r0
     974:	00010000 	andeq	r0, r1, r0
     978:	00000051 	andeq	r0, r0, r1, asr r0
     97c:	00000000 	andeq	r0, r0, r0
     980:	00043400 	andeq	r3, r4, r0, lsl #8
     984:	0006e000 	andeq	lr, r6, r0
     988:	03000600 	movweq	r0, #1536	; 0x600
     98c:	0000a2d8 	ldrdeq	sl, [r0], -r8
     990:	0000009f 	muleq	r0, pc, r0	; <UNPREDICTABLE>
     994:	00000000 	andeq	r0, r0, r0
     998:	00043400 	andeq	r3, r4, r0, lsl #8
     99c:	0006e000 	andeq	lr, r6, r0
     9a0:	31000200 	mrscc	r0, R8_usr
     9a4:	0000009f 	muleq	r0, pc, r0	; <UNPREDICTABLE>
     9a8:	00000000 	andeq	r0, r0, r0
     9ac:	00043800 	andeq	r3, r4, r0, lsl #16
     9b0:	0006df00 	andeq	sp, r6, r0, lsl #30
     9b4:	53000100 	movwpl	r0, #256	; 0x100
	...
     9c0:	00000454 	andeq	r0, r0, r4, asr r4
     9c4:	00000458 	andeq	r0, r0, r8, asr r4
     9c8:	58520001 	ldmdapl	r2, {r0}^
     9cc:	60000004 	andvs	r0, r0, r4
     9d0:	05000004 	streq	r0, [r0, #-4]
     9d4:	a2d80300 	sbcsge	r0, r8, #0, 6
	...
     9e0:	04640000 	strbteq	r0, [r4], #-0
     9e4:	04680000 	strbteq	r0, [r8], #-0
     9e8:	00010000 	andeq	r0, r1, r0
     9ec:	00000050 	andeq	r0, r0, r0, asr r0
     9f0:	00000000 	andeq	r0, r0, r0
     9f4:	00047800 	andeq	r7, r4, r0, lsl #16
     9f8:	00067400 	andeq	r7, r6, r0, lsl #8
     9fc:	71000800 	tstvc	r0, r0, lsl #16
     a00:	081a3100 	ldmdaeq	sl, {r8, ip, sp}
     a04:	849f1aff 	ldrhi	r1, [pc], #2815	; a0c <_start-0x75f4>
     a08:	88000006 	stmdahi	r0, {r1, r2}
     a0c:	08000006 	stmdaeq	r0, {r1, r2}
     a10:	31007100 	mrscc	r7, (UNDEF: 16)
     a14:	1aff081a 	bne	fffc2a84 <__bss_end__+0xfffb636c>
     a18:	0000009f 	muleq	r0, pc, r0	; <UNPREDICTABLE>
     a1c:	00000000 	andeq	r0, r0, r0
     a20:	00047800 	andeq	r7, r4, r0, lsl #16
     a24:	00048c00 	andeq	r8, r4, r0, lsl #24
     a28:	52000100 	andpl	r0, r0, #0, 2
     a2c:	0000048c 	andeq	r0, r0, ip, lsl #9
     a30:	00000490 	muleq	r0, r0, r4
     a34:	d8030005 	stmdale	r3, {r0, r2}
     a38:	940000a2 	strls	r0, [r0], #-162	; 0xa2
     a3c:	a0000004 	andge	r0, r0, r4
     a40:	01000004 	tsteq	r0, r4
     a44:	04a05200 	strteq	r5, [r0], #512	; 0x200
     a48:	04a40000 	strteq	r0, [r4], #0
     a4c:	00050000 	andeq	r0, r5, r0
     a50:	00a2d803 	adceq	sp, r2, r3, lsl #16
	...
     a5c:	00048000 	andeq	r8, r4, r0
     a60:	00048c00 	andeq	r8, r4, r0, lsl #24
     a64:	52000100 	andpl	r0, r0, #0, 2
     a68:	0000048c 	andeq	r0, r0, ip, lsl #9
     a6c:	00000490 	muleq	r0, r0, r4
     a70:	d8030005 	stmdale	r3, {r0, r2}
     a74:	000000a2 	andeq	r0, r0, r2, lsr #1
     a78:	00000000 	andeq	r0, r0, r0
     a7c:	94000000 	strls	r0, [r0], #-0
     a80:	a0000004 	andge	r0, r0, r4
     a84:	01000004 	tsteq	r0, r4
     a88:	04a05200 	strteq	r5, [r0], #512	; 0x200
     a8c:	04a40000 	strteq	r0, [r4], #0
     a90:	00050000 	andeq	r0, r5, r0
     a94:	00a2d803 	adceq	sp, r2, r3, lsl #16
	...
     aa0:	0004a800 	andeq	sl, r4, r0, lsl #16
     aa4:	0004ac00 	andeq	sl, r4, r0, lsl #24
     aa8:	52000100 	andpl	r0, r0, #0, 2
	...
     ab4:	000004bc 			; <UNDEFINED> instruction: 0x000004bc
     ab8:	00000674 	andeq	r0, r0, r4, ror r6
     abc:	00710008 	rsbseq	r0, r1, r8
     ac0:	ff081a32 			; <UNDEFINED> instruction: 0xff081a32
     ac4:	06849f1a 	pkhbteq	r9, r4, sl, lsl #30
     ac8:	06880000 	streq	r0, [r8], r0
     acc:	00080000 	andeq	r0, r8, r0
     ad0:	1a320071 	bne	c80c9c <__bss_end__+0xc74584>
     ad4:	9f1aff08 	svcls	0x001aff08
	...
     ae0:	000004bc 			; <UNDEFINED> instruction: 0x000004bc
     ae4:	000004d0 	ldrdeq	r0, [r0], -r0	; <UNPREDICTABLE>
     ae8:	d0520001 	subsle	r0, r2, r1
     aec:	d4000004 	strle	r0, [r0], #-4
     af0:	05000004 	streq	r0, [r0, #-4]
     af4:	a2d80300 	sbcsge	r0, r8, #0, 6
     af8:	04d80000 	ldrbeq	r0, [r8], #0
     afc:	04e40000 	strbteq	r0, [r4], #0
     b00:	00010000 	andeq	r0, r1, r0
     b04:	0004e452 	andeq	lr, r4, r2, asr r4
     b08:	0004e800 	andeq	lr, r4, r0, lsl #16
     b0c:	03000500 	movweq	r0, #1280	; 0x500
     b10:	0000a2d8 	ldrdeq	sl, [r0], -r8
	...
     b1c:	000004c4 	andeq	r0, r0, r4, asr #9
     b20:	000004d0 	ldrdeq	r0, [r0], -r0	; <UNPREDICTABLE>
     b24:	d0520001 	subsle	r0, r2, r1
     b28:	d4000004 	strle	r0, [r0], #-4
     b2c:	05000004 	streq	r0, [r0, #-4]
     b30:	a2d80300 	sbcsge	r0, r8, #0, 6
	...
     b3c:	04d80000 	ldrbeq	r0, [r8], #0
     b40:	04e40000 	strbteq	r0, [r4], #0
     b44:	00010000 	andeq	r0, r1, r0
     b48:	0004e452 	andeq	lr, r4, r2, asr r4
     b4c:	0004e800 	andeq	lr, r4, r0, lsl #16
     b50:	03000500 	movweq	r0, #1280	; 0x500
     b54:	0000a2d8 	ldrdeq	sl, [r0], -r8
	...
     b60:	000004ec 	andeq	r0, r0, ip, ror #9
     b64:	000004f0 	strdeq	r0, [r0], -r0	; <UNPREDICTABLE>
     b68:	00500001 	subseq	r0, r0, r1
     b6c:	00000000 	andeq	r0, r0, r0
     b70:	04000000 	streq	r0, [r0], #-0
     b74:	74000005 	strvc	r0, [r0], #-5
     b78:	08000006 	stmdaeq	r0, {r1, r2}
     b7c:	34007100 	strcc	r7, [r0], #-256	; 0x100
     b80:	1aff081a 	bne	fffc2bf0 <__bss_end__+0xfffb64d8>
     b84:	0006849f 	muleq	r6, pc, r4	; <UNPREDICTABLE>
     b88:	00068800 	andeq	r8, r6, r0, lsl #16
     b8c:	71000800 	tstvc	r0, r0, lsl #16
     b90:	081a3400 	ldmdaeq	sl, {sl, ip, sp}
     b94:	009f1aff 			; <UNDEFINED> instruction: 0x009f1aff
     b98:	00000000 	andeq	r0, r0, r0
     b9c:	04000000 	streq	r0, [r0], #-0
     ba0:	18000005 	stmdane	r0, {r0, r2}
     ba4:	01000005 	tsteq	r0, r5
     ba8:	05185200 	ldreq	r5, [r8, #-512]	; 0x200
     bac:	051c0000 	ldreq	r0, [ip, #-0]
     bb0:	00050000 	andeq	r0, r5, r0
     bb4:	00a2d803 	adceq	sp, r2, r3, lsl #16
     bb8:	00052000 	andeq	r2, r5, r0
     bbc:	00052c00 	andeq	r2, r5, r0, lsl #24
     bc0:	52000100 	andpl	r0, r0, #0, 2
     bc4:	0000052c 	andeq	r0, r0, ip, lsr #10
     bc8:	00000530 	andeq	r0, r0, r0, lsr r5
     bcc:	d8030005 	stmdale	r3, {r0, r2}
     bd0:	000000a2 	andeq	r0, r0, r2, lsr #1
     bd4:	00000000 	andeq	r0, r0, r0
     bd8:	0c000000 	stceq	0, cr0, [r0], {-0}
     bdc:	18000005 	stmdane	r0, {r0, r2}
     be0:	01000005 	tsteq	r0, r5
     be4:	05185200 	ldreq	r5, [r8, #-512]	; 0x200
     be8:	051c0000 	ldreq	r0, [ip, #-0]
     bec:	00050000 	andeq	r0, r5, r0
     bf0:	00a2d803 	adceq	sp, r2, r3, lsl #16
	...
     bfc:	00052000 	andeq	r2, r5, r0
     c00:	00052c00 	andeq	r2, r5, r0, lsl #24
     c04:	52000100 	andpl	r0, r0, #0, 2
     c08:	0000052c 	andeq	r0, r0, ip, lsr #10
     c0c:	00000530 	andeq	r0, r0, r0, lsr r5
     c10:	d8030005 	stmdale	r3, {r0, r2}
     c14:	000000a2 	andeq	r0, r0, r2, lsr #1
     c18:	00000000 	andeq	r0, r0, r0
     c1c:	34000000 	strcc	r0, [r0], #-0
     c20:	38000005 	stmdacc	r0, {r0, r2}
     c24:	01000005 	tsteq	r0, r5
     c28:	00005200 	andeq	r5, r0, r0, lsl #4
     c2c:	00000000 	andeq	r0, r0, r0
     c30:	05480000 	strbeq	r0, [r8, #-0]
     c34:	06740000 	ldrbteq	r0, [r4], -r0
     c38:	00080000 	andeq	r0, r8, r0
     c3c:	1a380071 	bne	e00e08 <__bss_end__+0xdf46f0>
     c40:	9f1aff08 	svcls	0x001aff08
     c44:	00000684 	andeq	r0, r0, r4, lsl #13
     c48:	00000688 	andeq	r0, r0, r8, lsl #13
     c4c:	00710008 	rsbseq	r0, r1, r8
     c50:	ff081a38 			; <UNDEFINED> instruction: 0xff081a38
     c54:	00009f1a 	andeq	r9, r0, sl, lsl pc
     c58:	00000000 	andeq	r0, r0, r0
     c5c:	05480000 	strbeq	r0, [r8, #-0]
     c60:	055c0000 	ldrbeq	r0, [ip, #-0]
     c64:	00010000 	andeq	r0, r1, r0
     c68:	00055c52 	andeq	r5, r5, r2, asr ip
     c6c:	00056000 	andeq	r6, r5, r0
     c70:	03000500 	movweq	r0, #1280	; 0x500
     c74:	0000a2d8 	ldrdeq	sl, [r0], -r8
     c78:	00000564 	andeq	r0, r0, r4, ror #10
     c7c:	00000570 	andeq	r0, r0, r0, ror r5
     c80:	70520001 	subsvc	r0, r2, r1
     c84:	74000005 	strvc	r0, [r0], #-5
     c88:	05000005 	streq	r0, [r0, #-5]
     c8c:	a2d80300 	sbcsge	r0, r8, #0, 6
	...
     c98:	05500000 	ldrbeq	r0, [r0, #-0]
     c9c:	055c0000 	ldrbeq	r0, [ip, #-0]
     ca0:	00010000 	andeq	r0, r1, r0
     ca4:	00055c52 	andeq	r5, r5, r2, asr ip
     ca8:	00056000 	andeq	r6, r5, r0
     cac:	03000500 	movweq	r0, #1280	; 0x500
     cb0:	0000a2d8 	ldrdeq	sl, [r0], -r8
	...
     cbc:	00000564 	andeq	r0, r0, r4, ror #10
     cc0:	00000570 	andeq	r0, r0, r0, ror r5
     cc4:	70520001 	subsvc	r0, r2, r1
     cc8:	74000005 	strvc	r0, [r0], #-5
     ccc:	05000005 	streq	r0, [r0, #-5]
     cd0:	a2d80300 	sbcsge	r0, r8, #0, 6
	...
     cdc:	05780000 	ldrbeq	r0, [r8, #-0]!
     ce0:	057c0000 	ldrbeq	r0, [ip, #-0]!
     ce4:	00010000 	andeq	r0, r1, r0
     ce8:	00000050 	andeq	r0, r0, r0, asr r0
     cec:	00000000 	andeq	r0, r0, r0
     cf0:	00059000 	andeq	r9, r5, r0
     cf4:	00067400 	andeq	r7, r6, r0, lsl #8
     cf8:	71000800 	tstvc	r0, r0, lsl #16
     cfc:	081a4000 	ldmdaeq	sl, {lr}
     d00:	849f1aff 	ldrhi	r1, [pc], #2815	; d08 <_start-0x72f8>
     d04:	88000006 	stmdahi	r0, {r1, r2}
     d08:	08000006 	stmdaeq	r0, {r1, r2}
     d0c:	40007100 	andmi	r7, r0, r0, lsl #2
     d10:	1aff081a 	bne	fffc2d80 <__bss_end__+0xfffb6668>
     d14:	0000009f 	muleq	r0, pc, r0	; <UNPREDICTABLE>
     d18:	00000000 	andeq	r0, r0, r0
     d1c:	00059000 	andeq	r9, r5, r0
     d20:	0005a400 	andeq	sl, r5, r0, lsl #8
     d24:	52000100 	andpl	r0, r0, #0, 2
     d28:	000005a4 	andeq	r0, r0, r4, lsr #11
     d2c:	000005a8 	andeq	r0, r0, r8, lsr #11
     d30:	d8030005 	stmdale	r3, {r0, r2}
     d34:	ac0000a2 	stcge	0, cr0, [r0], {162}	; 0xa2
     d38:	b8000005 	stmdalt	r0, {r0, r2}
     d3c:	01000005 	tsteq	r0, r5
     d40:	05b85200 	ldreq	r5, [r8, #512]!	; 0x200
     d44:	05bc0000 	ldreq	r0, [ip, #0]!
     d48:	00050000 	andeq	r0, r5, r0
     d4c:	00a2d803 	adceq	sp, r2, r3, lsl #16
	...
     d58:	00059800 	andeq	r9, r5, r0, lsl #16
     d5c:	0005a400 	andeq	sl, r5, r0, lsl #8
     d60:	52000100 	andpl	r0, r0, #0, 2
     d64:	000005a4 	andeq	r0, r0, r4, lsr #11
     d68:	000005a8 	andeq	r0, r0, r8, lsr #11
     d6c:	d8030005 	stmdale	r3, {r0, r2}
     d70:	000000a2 	andeq	r0, r0, r2, lsr #1
     d74:	00000000 	andeq	r0, r0, r0
     d78:	ac000000 	stcge	0, cr0, [r0], {-0}
     d7c:	b8000005 	stmdalt	r0, {r0, r2}
     d80:	01000005 	tsteq	r0, r5
     d84:	05b85200 	ldreq	r5, [r8, #512]!	; 0x200
     d88:	05bc0000 	ldreq	r0, [ip, #0]!
     d8c:	00050000 	andeq	r0, r5, r0
     d90:	00a2d803 	adceq	sp, r2, r3, lsl #16
	...
     d9c:	0005c000 	andeq	ip, r5, r0
     da0:	0005c400 	andeq	ip, r5, r0, lsl #8
     da4:	50000100 	andpl	r0, r0, r0, lsl #2
	...
     db0:	000005dc 	ldrdeq	r0, [r0], -ip
     db4:	00000674 	andeq	r0, r0, r4, ror r6
     db8:	00710009 	rsbseq	r0, r1, r9
     dbc:	081a2008 	ldmdaeq	sl, {r3, sp}
     dc0:	849f1aff 	ldrhi	r1, [pc], #2815	; dc8 <_start-0x7238>
     dc4:	88000006 	stmdahi	r0, {r1, r2}
     dc8:	09000006 	stmdbeq	r0, {r1, r2}
     dcc:	08007100 	stmdaeq	r0, {r8, ip, sp, lr}
     dd0:	ff081a20 			; <UNDEFINED> instruction: 0xff081a20
     dd4:	00009f1a 	andeq	r9, r0, sl, lsl pc
     dd8:	00000000 	andeq	r0, r0, r0
     ddc:	05dc0000 	ldrbeq	r0, [ip]
     de0:	05f00000 	ldrbeq	r0, [r0, #0]!
     de4:	00010000 	andeq	r0, r1, r0
     de8:	0005f052 	andeq	pc, r5, r2, asr r0	; <UNPREDICTABLE>
     dec:	0005f400 	andeq	pc, r5, r0, lsl #8
     df0:	03000500 	movweq	r0, #1280	; 0x500
     df4:	0000a2d8 	ldrdeq	sl, [r0], -r8
     df8:	000005f8 	strdeq	r0, [r0], -r8
     dfc:	00000604 	andeq	r0, r0, r4, lsl #12
     e00:	04520001 	ldrbeq	r0, [r2], #-1
     e04:	08000006 	stmdaeq	r0, {r1, r2}
     e08:	05000006 	streq	r0, [r0, #-6]
     e0c:	a2d80300 	sbcsge	r0, r8, #0, 6
	...
     e18:	05e40000 	strbeq	r0, [r4, #0]!
     e1c:	05f00000 	ldrbeq	r0, [r0, #0]!
     e20:	00010000 	andeq	r0, r1, r0
     e24:	0005f052 	andeq	pc, r5, r2, asr r0	; <UNPREDICTABLE>
     e28:	0005f400 	andeq	pc, r5, r0, lsl #8
     e2c:	03000500 	movweq	r0, #1280	; 0x500
     e30:	0000a2d8 	ldrdeq	sl, [r0], -r8
	...
     e3c:	000005f8 	strdeq	r0, [r0], -r8
     e40:	00000604 	andeq	r0, r0, r4, lsl #12
     e44:	04520001 	ldrbeq	r0, [r2], #-1
     e48:	08000006 	stmdaeq	r0, {r1, r2}
     e4c:	05000006 	streq	r0, [r0, #-6]
     e50:	a2d80300 	sbcsge	r0, r8, #0, 6
	...
     e5c:	060c0000 	streq	r0, [ip], -r0
     e60:	06100000 	ldreq	r0, [r0], -r0
     e64:	00010000 	andeq	r0, r1, r0
     e68:	00000050 	andeq	r0, r0, r0, asr r0
     e6c:	00000000 	andeq	r0, r0, r0
     e70:	00062400 	andeq	r2, r6, r0, lsl #8
     e74:	00067400 	andeq	r7, r6, r0, lsl #8
     e78:	71000900 	tstvc	r0, r0, lsl #18
     e7c:	1a400800 	bne	1002e84 <__bss_end__+0xff676c>
     e80:	9f1aff08 	svcls	0x001aff08
     e84:	00000684 	andeq	r0, r0, r4, lsl #13
     e88:	00000688 	andeq	r0, r0, r8, lsl #13
     e8c:	00710009 	rsbseq	r0, r1, r9
     e90:	081a4008 	ldmdaeq	sl, {r3, lr}
     e94:	009f1aff 			; <UNDEFINED> instruction: 0x009f1aff
     e98:	00000000 	andeq	r0, r0, r0
     e9c:	24000000 	strcs	r0, [r0], #-0
     ea0:	38000006 	stmdacc	r0, {r1, r2}
     ea4:	01000006 	tsteq	r0, r6
     ea8:	06385200 	ldrteq	r5, [r8], -r0, lsl #4
     eac:	063c0000 	ldrteq	r0, [ip], -r0
     eb0:	00050000 	andeq	r0, r5, r0
     eb4:	00a2d803 	adceq	sp, r2, r3, lsl #16
     eb8:	00064000 	andeq	r4, r6, r0
     ebc:	00064c00 	andeq	r4, r6, r0, lsl #24
     ec0:	52000100 	andpl	r0, r0, #0, 2
     ec4:	0000064c 	andeq	r0, r0, ip, asr #12
     ec8:	00000650 	andeq	r0, r0, r0, asr r6
     ecc:	d8030005 	stmdale	r3, {r0, r2}
     ed0:	000000a2 	andeq	r0, r0, r2, lsr #1
     ed4:	00000000 	andeq	r0, r0, r0
     ed8:	2c000000 	stccs	0, cr0, [r0], {-0}
     edc:	38000006 	stmdacc	r0, {r1, r2}
     ee0:	01000006 	tsteq	r0, r6
     ee4:	06385200 	ldrteq	r5, [r8], -r0, lsl #4
     ee8:	063c0000 	ldrteq	r0, [ip], -r0
     eec:	00050000 	andeq	r0, r5, r0
     ef0:	00a2d803 	adceq	sp, r2, r3, lsl #16
	...
     efc:	00064000 	andeq	r4, r6, r0
     f00:	00064c00 	andeq	r4, r6, r0, lsl #24
     f04:	52000100 	andpl	r0, r0, #0, 2
     f08:	0000064c 	andeq	r0, r0, ip, asr #12
     f0c:	00000650 	andeq	r0, r0, r0, asr r6
     f10:	d8030005 	stmdale	r3, {r0, r2}
     f14:	000000a2 	andeq	r0, r0, r2, lsr #1
     f18:	00000000 	andeq	r0, r0, r0
     f1c:	54000000 	strpl	r0, [r0], #-0
     f20:	58000006 	stmdapl	r0, {r1, r2}
     f24:	01000006 	tsteq	r0, r6
     f28:	00005200 	andeq	r5, r0, r0, lsl #4
     f2c:	00000000 	andeq	r0, r0, r0
     f30:	06680000 	strbteq	r0, [r8], -r0
     f34:	06740000 	ldrbteq	r0, [r4], -r0
     f38:	00090000 	andeq	r0, r9, r0
     f3c:	80080071 	andhi	r0, r8, r1, ror r0
     f40:	1aff081a 	bne	fffc2fb0 <__bss_end__+0xfffb6898>
     f44:	0006849f 	muleq	r6, pc, r4	; <UNPREDICTABLE>
     f48:	00068800 	andeq	r8, r6, r0, lsl #16
     f4c:	71000900 	tstvc	r0, r0, lsl #18
     f50:	1a800800 	bne	fe002f58 <__bss_end__+0xfdff6840>
     f54:	9f1aff08 	svcls	0x001aff08
	...
     f60:	00000668 	andeq	r0, r0, r8, ror #12
     f64:	0000067c 	andeq	r0, r0, ip, ror r6
     f68:	7c520001 	mrrcvc	0, 0, r0, r2, cr1
     f6c:	80000006 	andhi	r0, r0, r6
     f70:	05000006 	streq	r0, [r0, #-6]
     f74:	a2d80300 	sbcsge	r0, r8, #0, 6
     f78:	06840000 	streq	r0, [r4], r0
     f7c:	06900000 	ldreq	r0, [r0], r0
     f80:	00010000 	andeq	r0, r1, r0
     f84:	00069052 	andeq	r9, r6, r2, asr r0
     f88:	00069400 	andeq	r9, r6, r0, lsl #8
     f8c:	03000500 	movweq	r0, #1280	; 0x500
     f90:	0000a2d8 	ldrdeq	sl, [r0], -r8
	...
     f9c:	00000670 	andeq	r0, r0, r0, ror r6
     fa0:	0000067c 	andeq	r0, r0, ip, ror r6
     fa4:	7c520001 	mrrcvc	0, 0, r0, r2, cr1
     fa8:	80000006 	andhi	r0, r0, r6
     fac:	05000006 	streq	r0, [r0, #-6]
     fb0:	a2d80300 	sbcsge	r0, r8, #0, 6
	...
     fbc:	06840000 	streq	r0, [r4], r0
     fc0:	06900000 	ldreq	r0, [r0], r0
     fc4:	00010000 	andeq	r0, r1, r0
     fc8:	00069052 	andeq	r9, r6, r2, asr r0
     fcc:	00069400 	andeq	r9, r6, r0, lsl #8
     fd0:	03000500 	movweq	r0, #1280	; 0x500
     fd4:	0000a2d8 	ldrdeq	sl, [r0], -r8
	...
     fe0:	00000698 	muleq	r0, r8, r6
     fe4:	0000069c 	muleq	r0, ip, r6
     fe8:	00510001 	subseq	r0, r1, r1
     fec:	00000000 	andeq	r0, r0, r0
     ff0:	b0000000 	andlt	r0, r0, r0
     ff4:	bc000006 	stclt	0, cr0, [r0], {6}
     ff8:	01000006 	tsteq	r0, r6
     ffc:	06bc5200 	ldrteq	r5, [ip], r0, lsl #4
    1000:	06c00000 	strbeq	r0, [r0], r0
    1004:	00050000 	andeq	r0, r5, r0
    1008:	00a2d803 	adceq	sp, r2, r3, lsl #16
	...
    1014:	0006c400 	andeq	ip, r6, r0, lsl #8
    1018:	0006c800 	andeq	ip, r6, r0, lsl #16
    101c:	51000100 	mrspl	r0, (UNDEF: 16)
	...
    1028:	00000394 	muleq	r0, r4, r3
    102c:	000006f4 	strdeq	r0, [r0], -r4
    1030:	e8030006 	stmda	r3, {r1, r2}
    1034:	9f0000a2 	svcls	0x000000a2
	...
    1040:	00000764 	andeq	r0, r0, r4, ror #14
    1044:	00000773 	andeq	r0, r0, r3, ror r7
    1048:	73500001 	cmpvc	r0, #1
    104c:	8c000007 	stchi	0, cr0, [r0], {7}
    1050:	04000007 	streq	r0, [r0], #-7
    1054:	5001f300 	andpl	pc, r1, r0, lsl #6
    1058:	00078c9f 	muleq	r7, pc, ip	; <UNPREDICTABLE>
    105c:	00079800 	andeq	r9, r7, r0, lsl #16
    1060:	50000100 	andpl	r0, r0, r0, lsl #2
    1064:	00000798 	muleq	r0, r8, r7
    1068:	000007b4 			; <UNDEFINED> instruction: 0x000007b4
    106c:	01f30004 	mvnseq	r0, r4
    1070:	00009f50 	andeq	r9, r0, r0, asr pc
    1074:	00000000 	andeq	r0, r0, r0
    1078:	07a00000 	streq	r0, [r0, r0]!
    107c:	07a40000 	streq	r0, [r4, r0]!
    1080:	00010000 	andeq	r0, r1, r0
    1084:	00000050 	andeq	r0, r0, r0, asr r0
    1088:	00000000 	andeq	r0, r0, r0
    108c:	0007b400 	andeq	fp, r7, r0, lsl #8
    1090:	0007bb00 	andeq	fp, r7, r0, lsl #22
    1094:	50000100 	andpl	r0, r0, r0, lsl #2
    1098:	000007bb 			; <UNDEFINED> instruction: 0x000007bb
    109c:	000009f4 	strdeq	r0, [r0], -r4
    10a0:	01f30004 	mvnseq	r0, r4
    10a4:	00009f50 	andeq	r9, r0, r0, asr pc
    10a8:	00000000 	andeq	r0, r0, r0
    10ac:	07bc0000 	ldreq	r0, [ip, r0]!
    10b0:	082c0000 	stmdaeq	ip!, {}	; <UNPREDICTABLE>
    10b4:	00020000 	andeq	r0, r2, r0
    10b8:	082c9f30 	stmdaeq	ip!, {r4, r5, r8, r9, sl, fp, ip, pc}
    10bc:	08580000 	ldmdaeq	r8, {}^	; <UNPREDICTABLE>
    10c0:	00010000 	andeq	r0, r1, r0
    10c4:	00085855 	andeq	r5, r8, r5, asr r8
    10c8:	00088800 	andeq	r8, r8, r0, lsl #16
    10cc:	57000100 	strpl	r0, [r0, -r0, lsl #2]
    10d0:	00000888 	andeq	r0, r0, r8, lsl #17
    10d4:	000008b4 			; <UNDEFINED> instruction: 0x000008b4
    10d8:	b4560001 	ldrblt	r0, [r6], #-1
    10dc:	e4000008 	str	r0, [r0], #-8
    10e0:	01000008 	tsteq	r0, r8
    10e4:	08e45500 	stmiaeq	r4!, {r8, sl, ip, lr}^
    10e8:	09140000 	ldmdbeq	r4, {}	; <UNPREDICTABLE>
    10ec:	00010000 	andeq	r0, r1, r0
    10f0:	00091457 	andeq	r1, r9, r7, asr r4
    10f4:	00094400 	andeq	r4, r9, r0, lsl #8
    10f8:	56000100 	strpl	r0, [r0], -r0, lsl #2
    10fc:	00000944 	andeq	r0, r0, r4, asr #18
    1100:	00000970 	andeq	r0, r0, r0, ror r9
    1104:	70550001 	subsvc	r0, r5, r1
    1108:	94000009 	strls	r0, [r0], #-9
    110c:	01000009 	tsteq	r0, r9
    1110:	09945200 	ldmibeq	r4, {r9, ip, lr}
    1114:	09a80000 	stmibeq	r8!, {}	; <UNPREDICTABLE>
    1118:	00180000 	andseq	r0, r8, r0
    111c:	a2dc0331 	sbcsge	r0, ip, #-1006632960	; 0xc4000000
    1120:	24060000 	strcs	r0, [r6], #-0
    1124:	031a0070 	tsteq	sl, #112	; 0x70
    1128:	0000a2dc 	ldrdeq	sl, [r0], -ip
    112c:	1a312506 	bne	c4a54c <__bss_end__+0xc3de34>
    1130:	9f210075 	svcls	0x00210075
	...
    113c:	000007c8 	andeq	r0, r0, r8, asr #15
    1140:	00000978 	andeq	r0, r0, r8, ror r9
    1144:	785c0001 	ldmdavc	ip, {r0}^
    1148:	db000009 	blle	1174 <_start-0x6e8c>
    114c:	09000009 	stmdbeq	r0, {r0, r3}
    1150:	a2e40300 	rscge	r0, r4, #0, 6
    1154:	31060000 	mrscc	r0, (UNDEF: 6)
    1158:	00009f25 	andeq	r9, r0, r5, lsr #30
    115c:	00000000 	andeq	r0, r0, r0
    1160:	07f00000 	ldrbeq	r0, [r0, r0]!
    1164:	09900000 	ldmibeq	r0, {}	; <UNPREDICTABLE>
    1168:	00010000 	andeq	r0, r1, r0
    116c:	00000053 	andeq	r0, r0, r3, asr r0
    1170:	00000000 	andeq	r0, r0, r0
    1174:	0007f400 	andeq	pc, r7, r0, lsl #8
    1178:	0007f800 	andeq	pc, r7, r0, lsl #16
    117c:	50000100 	andpl	r0, r0, r0, lsl #2
	...
    1188:	00000808 	andeq	r0, r0, r8, lsl #16
    118c:	0000080c 	andeq	r0, r0, ip, lsl #16
    1190:	00500001 	subseq	r0, r0, r1
    1194:	00000000 	andeq	r0, r0, r0
    1198:	34000000 	strcc	r0, [r0], #-0
    119c:	38000008 	stmdacc	r0, {r3}
    11a0:	01000008 	tsteq	r0, r8
    11a4:	00005000 	andeq	r5, r0, r0
    11a8:	00000000 	andeq	r0, r0, r0
    11ac:	08640000 	stmdaeq	r4!, {}^	; <UNPREDICTABLE>
    11b0:	08680000 	stmdaeq	r8!, {}^	; <UNPREDICTABLE>
    11b4:	00010000 	andeq	r0, r1, r0
    11b8:	00000050 	andeq	r0, r0, r0, asr r0
    11bc:	00000000 	andeq	r0, r0, r0
    11c0:	00089000 	andeq	r9, r8, r0
    11c4:	00089400 	andeq	r9, r8, r0, lsl #8
    11c8:	50000100 	andpl	r0, r0, r0, lsl #2
	...
    11d4:	000008c0 	andeq	r0, r0, r0, asr #17
    11d8:	000008c4 	andeq	r0, r0, r4, asr #17
    11dc:	00500001 	subseq	r0, r0, r1
    11e0:	00000000 	andeq	r0, r0, r0
    11e4:	f0000000 			; <UNDEFINED> instruction: 0xf0000000
    11e8:	f4000008 	vst4.8	{d0-d3}, [r0], r8
    11ec:	01000008 	tsteq	r0, r8
    11f0:	00005000 	andeq	r5, r0, r0
    11f4:	00000000 	andeq	r0, r0, r0
    11f8:	09200000 	stmdbeq	r0!, {}	; <UNPREDICTABLE>
    11fc:	09240000 	stmdbeq	r4!, {}	; <UNPREDICTABLE>
    1200:	00010000 	andeq	r0, r1, r0
    1204:	00000050 	andeq	r0, r0, r0, asr r0
    1208:	00000000 	andeq	r0, r0, r0
    120c:	00094c00 	andeq	r4, r9, r0, lsl #24
    1210:	00095000 	andeq	r5, r9, r0
    1214:	50000100 	andpl	r0, r0, r0, lsl #2
	...
    1220:	0000097c 	andeq	r0, r0, ip, ror r9
    1224:	00000980 	andeq	r0, r0, r0, lsl #19
    1228:	00510001 	subseq	r0, r1, r1
    122c:	00000000 	andeq	r0, r0, r0
    1230:	8c000000 	stchi	0, cr0, [r0], {-0}
    1234:	94000009 	strls	r0, [r0], #-9
    1238:	01000009 	tsteq	r0, r9
    123c:	09945200 	ldmibeq	r4, {r9, ip, lr}
    1240:	09db0000 	ldmibeq	fp, {}^	; <UNPREDICTABLE>
    1244:	00010000 	andeq	r0, r1, r0
    1248:	0000005c 	andeq	r0, r0, ip, asr r0
    124c:	00000000 	andeq	r0, r0, r0
    1250:	00099800 	andeq	r9, r9, r0, lsl #16
    1254:	0009c400 	andeq	ip, r9, r0, lsl #8
    1258:	51000100 	mrspl	r0, (UNDEF: 16)
    125c:	000009c4 	andeq	r0, r0, r4, asr #19
    1260:	000009db 	ldrdeq	r0, [r0], -fp
    1264:	ec030005 	stc	0, cr0, [r3], {5}
    1268:	000000c2 	andeq	r0, r0, r2, asr #1
    126c:	00000000 	andeq	r0, r0, r0
    1270:	28000000 	stmdacs	r0, {}	; <UNPREDICTABLE>
    1274:	5c00000b 	stcpl	0, cr0, [r0], {11}
    1278:	0200000b 	andeq	r0, r0, #11
    127c:	5c9f4200 	lfmpl	f4, 4, [pc], {0}
    1280:	7400000b 	strvc	r0, [r0], #-11
    1284:	0100000b 	tsteq	r0, fp
    1288:	0b745000 	bleq	1d15290 <__bss_end__+0x1d08b78>
    128c:	0b7c0000 	bleq	1f01294 <__bss_end__+0x1ef4b7c>
    1290:	00020000 	andeq	r0, r2, r0
    1294:	0b7c9f42 	bleq	1f28fa4 <__bss_end__+0x1f1c88c>
    1298:	0ba70000 	bleq	fe9c12a0 <__bss_end__+0xfe9b4b88>
    129c:	00010000 	andeq	r0, r1, r0
    12a0:	000bc050 	andeq	ip, fp, r0, asr r0
    12a4:	000bc300 	andeq	ip, fp, r0, lsl #6
    12a8:	50000100 	andpl	r0, r0, r0, lsl #2
	...
    12b4:	00000b50 	andeq	r0, r0, r0, asr fp
    12b8:	00000b60 	andeq	r0, r0, r0, ror #22
    12bc:	60510001 	subsvs	r0, r1, r1
    12c0:	7400000b 	strvc	r0, [r0], #-11
    12c4:	0500000b 	streq	r0, [r0, #-11]
    12c8:	c2f00300 	rscsgt	r0, r0, #0, 6
	...
    12d8:	00040000 	andeq	r0, r4, r0
    12dc:	00010000 	andeq	r0, r1, r0
    12e0:	00000452 	andeq	r0, r0, r2, asr r4
    12e4:	00002000 	andeq	r2, r0, r0
    12e8:	f3000400 	vshl.u8	d0, d0, d0
    12ec:	009f5201 	addseq	r5, pc, r1, lsl #4
	...
    12f8:	0c000000 	stceq	0, cr0, [r0], {-0}
    12fc:	01000000 	mrseq	r0, (UNDEF: 0)
    1300:	000c5000 	andeq	r5, ip, r0
    1304:	00140000 	andseq	r0, r4, r0
    1308:	00030000 	andeq	r0, r3, r0
    130c:	149f0173 	ldrne	r0, [pc], #371	; 1314 <_start-0x6cec>
    1310:	20000000 	andcs	r0, r0, r0
    1314:	01000000 	mrseq	r0, (UNDEF: 0)
    1318:	00005300 	andeq	r5, r0, r0, lsl #6
    131c:	00000000 	andeq	r0, r0, r0
    1320:	002c0000 	eoreq	r0, ip, r0
    1324:	00380000 	eorseq	r0, r8, r0
    1328:	00010000 	andeq	r0, r1, r0
    132c:	00003850 	andeq	r3, r0, r0, asr r8
    1330:	00004800 	andeq	r4, r0, r0, lsl #16
    1334:	55000100 	strpl	r0, [r0, #-256]	; 0x100
    1338:	00000048 	andeq	r0, r0, r8, asr #32
    133c:	00000058 	andeq	r0, r0, r8, asr r0
    1340:	00500001 	subseq	r0, r0, r1
	...
    134c:	0b000000 	bleq	1354 <_start-0x6cac>
    1350:	01000000 	mrseq	r0, (UNDEF: 0)
    1354:	000b5000 	andeq	r5, fp, r0
    1358:	00140000 	andseq	r0, r4, r0
    135c:	00010000 	andeq	r0, r1, r0
    1360:	00000054 	andeq	r0, r0, r4, asr r0
	...
    136c:	00001000 	andeq	r1, r0, r0
    1370:	50000100 	andpl	r0, r0, r0, lsl #2
    1374:	00000010 	andeq	r0, r0, r0, lsl r0
    1378:	00000034 	andeq	r0, r0, r4, lsr r0
    137c:	00540001 	subseq	r0, r4, r1
	...
    1388:	04000000 	streq	r0, [r0], #-0
    138c:	01000000 	mrseq	r0, (UNDEF: 0)
    1390:	00045000 	andeq	r5, r4, r0
    1394:	000c0000 	andeq	r0, ip, r0
    1398:	00030000 	andeq	r0, r3, r0
    139c:	0c9f3070 	ldceq	0, cr3, [pc], {112}	; 0x70
    13a0:	14000000 	strne	r0, [r0], #-0
    13a4:	04000000 	streq	r0, [r0], #-0
    13a8:	5001f300 	andpl	pc, r1, r0, lsl #6
    13ac:	0000009f 	muleq	r0, pc, r0	; <UNPREDICTABLE>
    13b0:	00000000 	andeq	r0, r0, r0
    13b4:	00001400 	andeq	r1, r0, r0, lsl #8
    13b8:	00002000 	andeq	r2, r0, r0
    13bc:	50000100 	andpl	r0, r0, r0, lsl #2
    13c0:	00000020 	andeq	r0, r0, r0, lsr #32
    13c4:	0000002c 	andeq	r0, r0, ip, lsr #32
    13c8:	01700003 	cmneq	r0, r3
    13cc:	00002c9f 	muleq	r0, pc, ip	; <UNPREDICTABLE>
    13d0:	00004000 	andeq	r4, r0, r0
    13d4:	50000100 	andpl	r0, r0, r0, lsl #2
	...
    13e0:	00000014 	andeq	r0, r0, r4, lsl r0
    13e4:	00000018 	andeq	r0, r0, r8, lsl r0
    13e8:	18510001 	ldmdane	r1, {r0}^
    13ec:	40000000 	andmi	r0, r0, r0
    13f0:	04000000 	streq	r0, [r0], #-0
    13f4:	5101f300 	mrspl	pc, SP_irq	; <UNPREDICTABLE>
    13f8:	0000009f 	muleq	r0, pc, r0	; <UNPREDICTABLE>
    13fc:	00000000 	andeq	r0, r0, r0
    1400:	00004000 	andeq	r4, r0, r0
    1404:	00006000 	andeq	r6, r0, r0
    1408:	50000100 	andpl	r0, r0, r0, lsl #2
    140c:	00000060 	andeq	r0, r0, r0, rrx
    1410:	0000006c 	andeq	r0, r0, ip, rrx
    1414:	01710003 	cmneq	r1, r3
    1418:	00006c9f 	muleq	r0, pc, ip	; <UNPREDICTABLE>
    141c:	00007400 	andeq	r7, r0, r0, lsl #8
    1420:	51000100 	mrspl	r0, (UNDEF: 16)
    1424:	00000074 	andeq	r0, r0, r4, ror r0
    1428:	00000080 	andeq	r0, r0, r0, lsl #1
    142c:	01710003 	cmneq	r1, r3
    1430:	0000009f 	muleq	r0, pc, r0	; <UNPREDICTABLE>
    1434:	00000000 	andeq	r0, r0, r0
    1438:	00004000 	andeq	r4, r0, r0
    143c:	00005000 	andeq	r5, r0, r0
    1440:	51000100 	mrspl	r0, (UNDEF: 16)
    1444:	00000050 	andeq	r0, r0, r0, asr r0
    1448:	00000080 	andeq	r0, r0, r0, lsl #1
    144c:	01f30004 	mvnseq	r0, r4
    1450:	00009f51 	andeq	r9, r0, r1, asr pc
    1454:	00000000 	andeq	r0, r0, r0
    1458:	00400000 	subeq	r0, r0, r0
    145c:	00580000 	subseq	r0, r8, r0
    1460:	00010000 	andeq	r0, r1, r0
    1464:	00005852 	andeq	r5, r0, r2, asr r8
    1468:	00006400 	andeq	r6, r0, r0, lsl #8
    146c:	52000100 	andpl	r0, r0, #0, 2
    1470:	00000064 	andeq	r0, r0, r4, rrx
    1474:	00000068 	andeq	r0, r0, r8, rrx
    1478:	01720003 	cmneq	r2, r3
    147c:	0000689f 	muleq	r0, pc, r8	; <UNPREDICTABLE>
    1480:	00008000 	andeq	r8, r0, r0
    1484:	52000100 	andpl	r0, r0, #0, 2
	...
    1490:	00000040 	andeq	r0, r0, r0, asr #32
    1494:	00000054 	andeq	r0, r0, r4, asr r0
    1498:	54530001 	ldrbpl	r0, [r3], #-1
    149c:	78000000 	stmdavc	r0, {}	; <UNPREDICTABLE>
    14a0:	01000000 	mrseq	r0, (UNDEF: 0)
    14a4:	00005300 	andeq	r5, r0, r0, lsl #6
    14a8:	00000000 	andeq	r0, r0, r0
    14ac:	00480000 	subeq	r0, r8, r0
    14b0:	00600000 	rsbeq	r0, r0, r0
    14b4:	00010000 	andeq	r0, r1, r0
    14b8:	0000605c 	andeq	r6, r0, ip, asr r0
    14bc:	00008000 	andeq	r8, r0, r0
    14c0:	f3000a00 	vpmax.u8	d0, d0, d0
    14c4:	01f35201 	mvnseq	r5, r1, lsl #4
    14c8:	01231c53 	teqeq	r3, r3, asr ip
    14cc:	0000009f 	muleq	r0, pc, r0	; <UNPREDICTABLE>
    14d0:	00000000 	andeq	r0, r0, r0
    14d4:	00008000 	andeq	r8, r0, r0
    14d8:	0000a400 	andeq	sl, r0, r0, lsl #8
    14dc:	50000100 	andpl	r0, r0, r0, lsl #2
    14e0:	000000a4 	andeq	r0, r0, r4, lsr #1
    14e4:	00000118 	andeq	r0, r0, r8, lsl r1
    14e8:	02700003 	rsbseq	r0, r0, #3
    14ec:	0001189f 	muleq	r1, pc, r8	; <UNPREDICTABLE>
    14f0:	00021c00 	andeq	r1, r2, r0, lsl #24
    14f4:	f3000400 	vshl.u8	d0, d0, d0
    14f8:	009f5001 	addseq	r5, pc, r1
    14fc:	00000000 	andeq	r0, r0, r0
    1500:	80000000 	andhi	r0, r0, r0
    1504:	f0000000 			; <UNDEFINED> instruction: 0xf0000000
    1508:	01000000 	mrseq	r0, (UNDEF: 0)
    150c:	00f05100 	rscseq	r5, r0, r0, lsl #2
    1510:	01600000 	cmneq	r0, r0
    1514:	00010000 	andeq	r0, r1, r0
    1518:	00016055 	andeq	r6, r1, r5, asr r0
    151c:	00016800 	andeq	r6, r1, r0, lsl #16
    1520:	51000100 	mrspl	r0, (UNDEF: 16)
    1524:	00000168 	andeq	r0, r0, r8, ror #2
    1528:	00000188 	andeq	r0, r0, r8, lsl #3
    152c:	88550001 	ldmdahi	r5, {r0}^
    1530:	9c000001 	stcls	0, cr0, [r0], {1}
    1534:	01000001 	tsteq	r0, r1
    1538:	019c5100 	orrseq	r5, ip, r0, lsl #2
    153c:	01bc0000 			; <UNDEFINED> instruction: 0x01bc0000
    1540:	00010000 	andeq	r0, r1, r0
    1544:	0001bc55 	andeq	fp, r1, r5, asr ip
    1548:	0001bf00 	andeq	fp, r1, r0, lsl #30
    154c:	51000100 	mrspl	r0, (UNDEF: 16)
    1550:	000001bf 			; <UNDEFINED> instruction: 0x000001bf
    1554:	00000200 	andeq	r0, r0, r0, lsl #4
    1558:	00550001 	subseq	r0, r5, r1
    155c:	1c000002 	stcne	0, cr0, [r0], {2}
    1560:	04000002 	streq	r0, [r0], #-2
    1564:	5101f300 	mrspl	pc, SP_irq	; <UNPREDICTABLE>
    1568:	0000009f 	muleq	r0, pc, r0	; <UNPREDICTABLE>
    156c:	00000000 	andeq	r0, r0, r0
    1570:	00008000 	andeq	r8, r0, r0
    1574:	00009400 	andeq	r9, r0, r0, lsl #8
    1578:	52000100 	andpl	r0, r0, #0, 2
    157c:	00000094 	muleq	r0, r4, r0
    1580:	00000200 	andeq	r0, r0, r0, lsl #4
    1584:	00540001 	subseq	r0, r4, r1
    1588:	1c000002 	stcne	0, cr0, [r0], {2}
    158c:	04000002 	streq	r0, [r0], #-2
    1590:	5201f300 	andpl	pc, r1, #0, 6
    1594:	0000009f 	muleq	r0, pc, r0	; <UNPREDICTABLE>
    1598:	00000000 	andeq	r0, r0, r0
    159c:	00008000 	andeq	r8, r0, r0
    15a0:	00010000 	andeq	r0, r1, r0
    15a4:	53000100 	movwpl	r0, #256	; 0x100
    15a8:	00000104 	andeq	r0, r0, r4, lsl #2
    15ac:	00000108 	andeq	r0, r0, r8, lsl #2
    15b0:	60530001 	subsvs	r0, r3, r1
    15b4:	68000001 	stmdavs	r0, {r0}
    15b8:	01000001 	tsteq	r0, r1
    15bc:	01685300 	cmneq	r8, r0, lsl #6
    15c0:	01880000 	orreq	r0, r8, r0
    15c4:	00040000 	andeq	r0, r4, r0
    15c8:	9f5301f3 	svcls	0x005301f3
    15cc:	00000188 	andeq	r0, r0, r8, lsl #3
    15d0:	00000190 	muleq	r0, r0, r1
    15d4:	90530001 	subsls	r0, r3, r1
    15d8:	94000001 	strls	r0, [r0], #-1
    15dc:	01000001 	tsteq	r0, r1
    15e0:	01945c00 	orrseq	r5, r4, r0, lsl #24
    15e4:	019c0000 	orrseq	r0, ip, r0
    15e8:	00010000 	andeq	r0, r1, r0
    15ec:	00019c53 	andeq	r9, r1, r3, asr ip
    15f0:	0001bc00 	andeq	fp, r1, r0, lsl #24
    15f4:	f3000400 	vshl.u8	d0, d0, d0
    15f8:	bc9f5301 	ldclt	3, cr5, [pc], {1}
    15fc:	bf000001 	svclt	0x00000001
    1600:	01000001 	tsteq	r0, r1
    1604:	01bf5300 			; <UNDEFINED> instruction: 0x01bf5300
    1608:	01d80000 	bicseq	r0, r8, r0
    160c:	00040000 	andeq	r0, r4, r0
    1610:	9f5301f3 	svcls	0x005301f3
	...
    161c:	00000080 	andeq	r0, r0, r0, lsl #1
    1620:	0000009c 	muleq	r0, ip, r0
    1624:	00910002 	addseq	r0, r1, r2
    1628:	0000009c 	muleq	r0, ip, r0
    162c:	000001bf 			; <UNDEFINED> instruction: 0x000001bf
    1630:	d8520001 	ldmdale	r2, {r0}^
    1634:	e3000001 	movw	r0, #1
    1638:	01000001 	tsteq	r0, r1
    163c:	00005200 	andeq	r5, r0, r0, lsl #4
    1640:	00000000 	andeq	r0, r0, r0
    1644:	009c0000 	addseq	r0, ip, r0
    1648:	01180000 	tsteq	r8, r0
    164c:	00010000 	andeq	r0, r1, r0
    1650:	0001185d 	andeq	r1, r1, sp, asr r8
    1654:	00011c00 	andeq	r1, r1, r0, lsl #24
    1658:	53000100 	movwpl	r0, #256	; 0x100
    165c:	0000011c 	andeq	r0, r0, ip, lsl r1
    1660:	00000120 	andeq	r0, r0, r0, lsr #2
    1664:	20510001 	subscs	r0, r1, r1
    1668:	60000001 	andvs	r0, r0, r1
    166c:	01000001 	tsteq	r0, r1
    1670:	01605300 	cmneq	r0, r0, lsl #6
    1674:	01680000 	cmneq	r8, r0
    1678:	00010000 	andeq	r0, r1, r0
    167c:	0001685d 	andeq	r6, r1, sp, asr r8
    1680:	00016c00 	andeq	r6, r1, r0, lsl #24
    1684:	5e000100 	adfpls	f0, f0, f0
    1688:	0000016c 	andeq	r0, r0, ip, ror #2
    168c:	00000188 	andeq	r0, r0, r8, lsl #3
    1690:	88530001 	ldmdahi	r3, {r0}^
    1694:	90000001 	andls	r0, r0, r1
    1698:	04000001 	streq	r0, [r0], #-1
    169c:	7fa19100 	svcvc	0x00a19100
    16a0:	0001909f 	muleq	r1, pc, r0	; <UNPREDICTABLE>
    16a4:	00019400 	andeq	r9, r1, r0, lsl #8
    16a8:	53000100 	movwpl	r0, #256	; 0x100
    16ac:	00000194 	muleq	r0, r4, r1
    16b0:	0000019c 	muleq	r0, ip, r1
    16b4:	9c5d0001 	mrrcls	0, 0, r0, sp, cr1
    16b8:	a0000001 	andge	r0, r0, r1
    16bc:	01000001 	tsteq	r0, r1
    16c0:	01a05e00 	lsleq	r5, r0, #28
    16c4:	01bc0000 			; <UNDEFINED> instruction: 0x01bc0000
    16c8:	00010000 	andeq	r0, r1, r0
    16cc:	0001bc53 	andeq	fp, r1, r3, asr ip
    16d0:	0001d800 	andeq	sp, r1, r0, lsl #16
    16d4:	5d000100 	stfpls	f0, [r0, #-0]
    16d8:	000001d8 	ldrdeq	r0, [r0], -r8
    16dc:	000001e3 	andeq	r0, r0, r3, ror #3
    16e0:	00530001 	subseq	r0, r3, r1
    16e4:	00000000 	andeq	r0, r0, r0
    16e8:	a0000000 	andge	r0, r0, r0
    16ec:	ec000000 	stc	0, cr0, [r0], {-0}
    16f0:	01000000 	mrseq	r0, (UNDEF: 0)
    16f4:	00ec5c00 	rsceq	r5, ip, r0, lsl #24
    16f8:	01000000 	mrseq	r0, (UNDEF: 0)
    16fc:	00010000 	andeq	r0, r1, r0
    1700:	00010053 	andeq	r0, r1, r3, asr r0
    1704:	00010400 	andeq	r0, r1, r0, lsl #8
    1708:	5c000100 	stfpls	f0, [r0], {-0}
    170c:	00000104 	andeq	r0, r0, r4, lsl #2
    1710:	00000108 	andeq	r0, r0, r8, lsl #2
    1714:	08530001 	ldmdaeq	r3, {r0}^
    1718:	18000001 	stmdane	r0, {r0}
    171c:	01000001 	tsteq	r0, r1
    1720:	01185c00 	tsteq	r8, r0, lsl #24
    1724:	011c0000 	tsteq	ip, r0
    1728:	00010000 	andeq	r0, r1, r0
    172c:	00011c50 	andeq	r1, r1, r0, asr ip
    1730:	00013c00 	andeq	r3, r1, r0, lsl #24
    1734:	5c000100 	stfpls	f0, [r0], {-0}
    1738:	00000144 	andeq	r0, r0, r4, asr #2
    173c:	00000158 	andeq	r0, r0, r8, asr r1
    1740:	58500001 	ldmdapl	r0, {r0}^
    1744:	60000001 	andvs	r0, r0, r1
    1748:	01000001 	tsteq	r0, r1
    174c:	01605c00 	cmneq	r0, r0, lsl #24
    1750:	01680000 	cmneq	r8, r0
    1754:	00010000 	andeq	r0, r1, r0
    1758:	00016853 	andeq	r6, r1, r3, asr r8
    175c:	00017800 	andeq	r7, r1, r0, lsl #16
    1760:	5c000100 	stfpls	f0, [r0], {-0}
    1764:	00000178 	andeq	r0, r0, r8, ror r1
    1768:	00000180 	andeq	r0, r0, r0, lsl #3
    176c:	007c0005 	rsbseq	r0, ip, r5
    1770:	809f2534 	addshi	r2, pc, r4, lsr r5	; <UNPREDICTABLE>
    1774:	88000001 	stmdahi	r0, {r0}
    1778:	01000001 	tsteq	r0, r1
    177c:	01885c00 	orreq	r5, r8, r0, lsl #24
    1780:	01900000 	orrseq	r0, r0, r0
    1784:	00010000 	andeq	r0, r1, r0
    1788:	00019053 	andeq	r9, r1, r3, asr r0
    178c:	00019400 	andeq	r9, r1, r0, lsl #8
    1790:	5c000100 	stfpls	f0, [r0], {-0}
    1794:	00000194 	muleq	r0, r4, r1
    1798:	0000019c 	muleq	r0, ip, r1
    179c:	9c530001 	mrrcls	0, 0, r0, r3, cr1
    17a0:	ac000001 	stcge	0, cr0, [r0], {1}
    17a4:	01000001 	tsteq	r0, r1
    17a8:	01ac5c00 			; <UNDEFINED> instruction: 0x01ac5c00
    17ac:	01b40000 			; <UNDEFINED> instruction: 0x01b40000
    17b0:	00050000 	andeq	r0, r5, r0
    17b4:	2531007c 	ldrcs	r0, [r1, #-124]!	; 0x7c
    17b8:	0001b49f 	muleq	r1, pc, r4	; <UNPREDICTABLE>
    17bc:	0001bc00 	andeq	fp, r1, r0, lsl #24
    17c0:	5c000100 	stfpls	f0, [r0], {-0}
    17c4:	000001bc 			; <UNDEFINED> instruction: 0x000001bc
    17c8:	000001bf 			; <UNDEFINED> instruction: 0x000001bf
    17cc:	bf530001 	svclt	0x00530001
    17d0:	d8000001 	stmdale	r0, {r0}
    17d4:	04000001 	streq	r0, [r0], #-1
    17d8:	5301f300 	movwpl	pc, #4864	; 0x1300	; <UNPREDICTABLE>
    17dc:	0001d89f 	muleq	r1, pc, r8	; <UNPREDICTABLE>
    17e0:	0001e300 	andeq	lr, r1, r0, lsl #6
    17e4:	5c000100 	stfpls	f0, [r0], {-0}
	...
    17f0:	000000ec 	andeq	r0, r0, ip, ror #1
    17f4:	000000fc 	strdeq	r0, [r0], -ip
    17f8:	9f300002 	svcls	0x00300002
    17fc:	000000fc 	strdeq	r0, [r0], -ip
    1800:	00000104 	andeq	r0, r0, r4, lsl #2
    1804:	9f310002 	svcls	0x00310002
    1808:	00000104 	andeq	r0, r0, r4, lsl #2
    180c:	00000108 	andeq	r0, r0, r8, lsl #2
    1810:	9f300002 	svcls	0x00300002
	...
    181c:	0000021c 	andeq	r0, r0, ip, lsl r2
    1820:	0000022b 	andeq	r0, r0, fp, lsr #4
    1824:	2b500001 	blcs	1401830 <__bss_end__+0x13f5118>
    1828:	44000002 	strmi	r0, [r0], #-2
    182c:	04000002 	streq	r0, [r0], #-2
    1830:	5001f300 	andpl	pc, r1, r0, lsl #6
    1834:	0002449f 	muleq	r2, pc, r4	; <UNPREDICTABLE>
    1838:	00027000 	andeq	r7, r2, r0
    183c:	50000100 	andpl	r0, r0, r0, lsl #2
	...
    1848:	0000021c 	andeq	r0, r0, ip, lsl r2
    184c:	0000022b 	andeq	r0, r0, fp, lsr #4
    1850:	2b510001 	blcs	144185c <__bss_end__+0x1435144>
    1854:	44000002 	strmi	r0, [r0], #-2
    1858:	04000002 	streq	r0, [r0], #-2
    185c:	5101f300 	mrspl	pc, SP_irq	; <UNPREDICTABLE>
    1860:	0002449f 	muleq	r2, pc, r4	; <UNPREDICTABLE>
    1864:	00027000 	andeq	r7, r2, r0
    1868:	51000100 	mrspl	r0, (UNDEF: 16)
	...
    1874:	00000270 	andeq	r0, r0, r0, ror r2
    1878:	0000029c 	muleq	r0, ip, r2
    187c:	9c500001 	mrrcls	0, 0, r0, r0, cr1	; <UNPREDICTABLE>
    1880:	e4000002 	str	r0, [r0], #-2
    1884:	01000004 	tsteq	r0, r4
    1888:	04e45a00 	strbteq	r5, [r4], #2560	; 0xa00
    188c:	04f80000 	ldrbteq	r0, [r8], #0
    1890:	00040000 	andeq	r0, r4, r0
    1894:	9f5001f3 	svcls	0x005001f3
	...
    18a0:	00000270 	andeq	r0, r0, r0, ror r2
    18a4:	00000284 	andeq	r0, r0, r4, lsl #5
    18a8:	84510001 	ldrbhi	r0, [r1], #-1
    18ac:	9c000002 	stcls	0, cr0, [r0], {2}
    18b0:	03000002 	movweq	r0, #2
    18b4:	9f017100 	svcls	0x00017100
    18b8:	0000029c 	muleq	r0, ip, r2
    18bc:	000004f8 	strdeq	r0, [r0], -r8
    18c0:	01f30004 	mvnseq	r0, r4
    18c4:	00009f51 	andeq	r9, r0, r1, asr pc
    18c8:	00000000 	andeq	r0, r0, r0
    18cc:	02700000 	rsbseq	r0, r0, #0
    18d0:	02a40000 	adceq	r0, r4, #0
    18d4:	00010000 	andeq	r0, r1, r0
    18d8:	0002a452 	andeq	sl, r2, r2, asr r4
    18dc:	0002cc00 	andeq	ip, r2, r0, lsl #24
    18e0:	52000100 	andpl	r0, r0, #0, 2
    18e4:	000002cc 	andeq	r0, r0, ip, asr #5
    18e8:	00000494 	muleq	r0, r4, r4
    18ec:	94560001 	ldrbls	r0, [r6], #-1
    18f0:	f8000004 			; <UNDEFINED> instruction: 0xf8000004
    18f4:	01000004 	tsteq	r0, r4
    18f8:	00005200 	andeq	r5, r0, r0, lsl #4
    18fc:	00000000 	andeq	r0, r0, r0
    1900:	02700000 	rsbseq	r0, r0, #0
    1904:	028c0000 	addeq	r0, ip, #0
    1908:	00010000 	andeq	r0, r1, r0
    190c:	00000053 	andeq	r0, r0, r3, asr r0
    1910:	00000000 	andeq	r0, r0, r0
    1914:	00028000 	andeq	r8, r2, r0
    1918:	00029c00 	andeq	r9, r2, r0, lsl #24
    191c:	50000100 	andpl	r0, r0, r0, lsl #2
    1920:	0000029c 	muleq	r0, ip, r2
    1924:	000002a0 	andeq	r0, r0, r0, lsr #5
    1928:	a0540001 	subsge	r0, r4, r1
    192c:	ac000002 	stcge	0, cr0, [r0], {2}
    1930:	03000002 	movweq	r0, #2
    1934:	9f017400 	svcls	0x00017400
    1938:	000002ac 	andeq	r0, r0, ip, lsr #5
    193c:	000002b8 			; <UNDEFINED> instruction: 0x000002b8
    1940:	b8540001 	ldmdalt	r4, {r0}^
    1944:	c4000002 	strgt	r0, [r0], #-2
    1948:	03000002 	movweq	r0, #2
    194c:	9f017400 	svcls	0x00017400
    1950:	000002c4 	andeq	r0, r0, r4, asr #5
    1954:	00000498 	muleq	r0, r8, r4
    1958:	98540001 	ldmdals	r4, {r0}^
    195c:	a4000004 	strge	r0, [r0], #-4
    1960:	03000004 	movweq	r0, #4
    1964:	9f017400 	svcls	0x00017400
    1968:	000004a4 	andeq	r0, r0, r4, lsr #9
    196c:	000004d0 	ldrdeq	r0, [r0], -r0	; <UNPREDICTABLE>
    1970:	d0540001 	subsle	r0, r4, r1
    1974:	dc000004 	stcle	0, cr0, [r0], {4}
    1978:	01000004 	tsteq	r0, r4
    197c:	04dc5000 	ldrbeq	r5, [ip], #0
    1980:	04e40000 	strbteq	r0, [r4], #0
    1984:	00030000 	andeq	r0, r3, r0
    1988:	009f0174 	addseq	r0, pc, r4, ror r1	; <UNPREDICTABLE>
    198c:	00000000 	andeq	r0, r0, r0
    1990:	88000000 	stmdahi	r0, {}	; <UNPREDICTABLE>
    1994:	e4000002 	str	r0, [r0], #-2
    1998:	01000004 	tsteq	r0, r4
    199c:	04e45800 	strbteq	r5, [r4], #2048	; 0x800
    19a0:	04f80000 	ldrbteq	r0, [r8], #0
    19a4:	000a0000 	andeq	r0, sl, r0
    19a8:	f35101f3 	vbsl	q8, <illegal reg q8.5>, <illegal reg q9.5>
    19ac:	31225001 	teqcc	r2, r1
    19b0:	00009f1c 	andeq	r9, r0, ip, lsl pc
    19b4:	00000000 	andeq	r0, r0, r0
    19b8:	03cc0000 	biceq	r0, ip, #0
    19bc:	03d00000 	bicseq	r0, r0, #0
    19c0:	00010000 	andeq	r0, r1, r0
    19c4:	0003f050 	andeq	pc, r3, r0, asr r0	; <UNPREDICTABLE>
    19c8:	0003f400 	andeq	pc, r3, r0, lsl #8
    19cc:	50000100 	andpl	r0, r0, r0, lsl #2
    19d0:	00000414 	andeq	r0, r0, r4, lsl r4
    19d4:	00000418 	andeq	r0, r0, r8, lsl r4
    19d8:	38500001 	ldmdacc	r0, {r0}^
    19dc:	3c000004 	stccc	0, cr0, [r0], {4}
    19e0:	01000004 	tsteq	r0, r4
    19e4:	04445000 	strbeq	r5, [r4], #-0
    19e8:	04480000 	strbeq	r0, [r8], #-0
    19ec:	00010000 	andeq	r0, r1, r0
    19f0:	00046850 	andeq	r6, r4, r0, asr r8
    19f4:	00046c00 	andeq	r6, r4, r0, lsl #24
    19f8:	50000100 	andpl	r0, r0, r0, lsl #2
    19fc:	00000490 	muleq	r0, r0, r4
    1a00:	000004b8 			; <UNDEFINED> instruction: 0x000004b8
    1a04:	00500001 	subseq	r0, r0, r1
    1a08:	00000000 	andeq	r0, r0, r0
    1a0c:	cc000000 	stcgt	0, cr0, [r0], {-0}
    1a10:	d4000002 	strle	r0, [r0], #-2
    1a14:	02000002 	andeq	r0, r0, #2
    1a18:	d49f3000 	ldrle	r3, [pc], #0	; 1a20 <_start-0x65e0>
    1a1c:	d8000002 	stmdale	r0, {r1}
    1a20:	01000002 	tsteq	r0, r2
    1a24:	02e45700 	rsceq	r5, r4, #0, 14
    1a28:	04b80000 	ldrteq	r0, [r8], #0
    1a2c:	00010000 	andeq	r0, r1, r0
    1a30:	00000057 	andeq	r0, r0, r7, asr r0
    1a34:	00000000 	andeq	r0, r0, r0
    1a38:	00000400 	andeq	r0, r0, r0, lsl #8
    1a3c:	00000800 	andeq	r0, r0, r0, lsl #16
    1a40:	73000700 	movwvc	r0, #1792	; 0x700
    1a44:	10000a00 	andne	r0, r0, r0, lsl #20
    1a48:	00089f21 	andeq	r9, r8, r1, lsr #30
    1a4c:	00100000 	andseq	r0, r0, r0
    1a50:	00010000 	andeq	r0, r1, r0
    1a54:	00000053 	andeq	r0, r0, r3, asr r0
    1a58:	00000000 	andeq	r0, r0, r0
    1a5c:	00001400 	andeq	r1, r0, r0, lsl #8
    1a60:	00001800 	andeq	r1, r0, r0, lsl #16
    1a64:	73000700 	movwvc	r0, #1792	; 0x700
    1a68:	efff0b00 	svc	0x00ff0b00
    1a6c:	00189f1a 	andseq	r9, r8, sl, lsl pc
    1a70:	00200000 	eoreq	r0, r0, r0
    1a74:	00010000 	andeq	r0, r1, r0
    1a78:	00000053 	andeq	r0, r0, r3, asr r0
    1a7c:	00000000 	andeq	r0, r0, r0
    1a80:	00001400 	andeq	r1, r0, r0, lsl #8
    1a84:	00001c00 	andeq	r1, r0, r0, lsl #24
    1a88:	73000300 	movwvc	r0, #768	; 0x300
    1a8c:	001c9f04 	andseq	r9, ip, r4, lsl #30
    1a90:	00270000 	eoreq	r0, r7, r0
    1a94:	00010000 	andeq	r0, r1, r0
    1a98:	00000053 	andeq	r0, r0, r3, asr r0
    1a9c:	00000000 	andeq	r0, r0, r0
    1aa0:	00928400 	addseq	r8, r2, r0, lsl #8
    1aa4:	00928800 	addseq	r8, r2, r0, lsl #16
    1aa8:	30000200 	andcc	r0, r0, r0, lsl #4
    1aac:	0092889f 	umullseq	r8, r2, pc, r8	; <UNPREDICTABLE>
    1ab0:	00928c00 	addseq	r8, r2, r0, lsl #24
    1ab4:	50000100 	andpl	r0, r0, r0, lsl #2
	...
    1ac0:	0000929c 	muleq	r0, ip, r2
    1ac4:	000092a0 	andeq	r9, r0, r0, lsr #5
    1ac8:	9f300002 	svcls	0x00300002
    1acc:	000092a0 	andeq	r9, r0, r0, lsr #5
    1ad0:	000092a4 	andeq	r9, r0, r4, lsr #5
    1ad4:	a8530001 	ldmdage	r3, {r0}^
    1ad8:	b0000092 	mullt	r0, r2, r0
    1adc:	01000092 	swpeq	r0, r2, [r0]	; <UNPREDICTABLE>
    1ae0:	00005300 	andeq	r5, r0, r0, lsl #6
	...
    1aec:	00040000 	andeq	r0, r4, r0
    1af0:	00010000 	andeq	r0, r1, r0
    1af4:	00000450 	andeq	r0, r0, r0, asr r4
    1af8:	00000c00 	andeq	r0, r0, r0, lsl #24
    1afc:	53000100 	movwpl	r0, #256	; 0x100
    1b00:	0000000c 	andeq	r0, r0, ip
    1b04:	00000010 	andeq	r0, r0, r0, lsl r0
    1b08:	10500001 	subsne	r0, r0, r1
    1b0c:	1c000000 	stcne	0, cr0, [r0], {-0}
    1b10:	01000000 	mrseq	r0, (UNDEF: 0)
    1b14:	00005300 	andeq	r5, r0, r0, lsl #6
    1b18:	00000000 	andeq	r0, r0, r0
    1b1c:	003c0000 	eorseq	r0, ip, r0
    1b20:	00470000 	subeq	r0, r7, r0
    1b24:	00010000 	andeq	r0, r1, r0
    1b28:	00004750 	andeq	r4, r0, r0, asr r7
    1b2c:	00006000 	andeq	r6, r0, r0
    1b30:	55000100 	strpl	r0, [r0, #-256]	; 0x100
	...
    1b3c:	00000050 	andeq	r0, r0, r0, asr r0
    1b40:	00000054 	andeq	r0, r0, r4, asr r0
    1b44:	00500001 	subseq	r0, r0, r1
    1b48:	00000000 	andeq	r0, r0, r0
    1b4c:	60000000 	andvs	r0, r0, r0
    1b50:	6c000000 	stcvs	0, cr0, [r0], {-0}
    1b54:	01000000 	mrseq	r0, (UNDEF: 0)
    1b58:	006c5000 	rsbeq	r5, ip, r0
    1b5c:	00740000 	rsbseq	r0, r4, r0
    1b60:	00040000 	andeq	r0, r4, r0
    1b64:	9f5001f3 	svcls	0x005001f3
	...
    1b70:	00000074 	andeq	r0, r0, r4, ror r0
    1b74:	00000080 	andeq	r0, r0, r0, lsl #1
    1b78:	80500001 	subshi	r0, r0, r1
    1b7c:	88000000 	stmdahi	r0, {}	; <UNPREDICTABLE>
    1b80:	04000000 	streq	r0, [r0], #-0
    1b84:	5001f300 	andpl	pc, r1, r0, lsl #6
    1b88:	0000009f 	muleq	r0, pc, r0	; <UNPREDICTABLE>
	...
    1b94:	00009000 	andeq	r9, r0, r0
    1b98:	50000100 	andpl	r0, r0, r0, lsl #2
    1b9c:	00000090 	muleq	r0, r0, r0
    1ba0:	000000d4 	ldrdeq	r0, [r0], -r4
    1ba4:	00540001 	subseq	r0, r4, r1
    1ba8:	00000000 	andeq	r0, r0, r0
    1bac:	48000000 	stmdami	r0, {}	; <UNPREDICTABLE>
    1bb0:	4c000000 	stcmi	0, cr0, [r0], {-0}
    1bb4:	01000000 	mrseq	r0, (UNDEF: 0)
    1bb8:	00545500 	subseq	r5, r4, r0, lsl #10
    1bbc:	00580000 	subseq	r0, r8, r0
    1bc0:	00010000 	andeq	r0, r1, r0
    1bc4:	00006055 	andeq	r6, r0, r5, asr r0
    1bc8:	00006400 	andeq	r6, r0, r0, lsl #8
    1bcc:	55000100 	strpl	r0, [r0, #-256]	; 0x100
    1bd0:	0000006c 	andeq	r0, r0, ip, rrx
    1bd4:	00000070 	andeq	r0, r0, r0, ror r0
    1bd8:	78550001 	ldmdavc	r5, {r0}^
    1bdc:	7c000000 	stcvc	0, cr0, [r0], {-0}
    1be0:	01000000 	mrseq	r0, (UNDEF: 0)
    1be4:	00845500 	addeq	r5, r4, r0, lsl #10
    1be8:	00880000 	addeq	r0, r8, r0
    1bec:	00010000 	andeq	r0, r1, r0
    1bf0:	00008c55 	andeq	r8, r0, r5, asr ip
    1bf4:	0000d400 	andeq	sp, r0, r0, lsl #8
    1bf8:	55000100 	strpl	r0, [r0, #-256]	; 0x100
	...
    1c04:	0000001c 	andeq	r0, r0, ip, lsl r0
    1c08:	00000044 	andeq	r0, r0, r4, asr #32
    1c0c:	44530001 	ldrbmi	r0, [r3], #-1
    1c10:	4c000000 	stcmi	0, cr0, [r0], {-0}
    1c14:	1c000000 	stcne	0, cr0, [r0], {-0}
    1c18:	f7007000 			; <UNDEFINED> instruction: 0xf7007000
    1c1c:	f425f72c 	vld1.8	{d15}, [r5 :128], ip
    1c20:	cccd0825 	stclgt	8, cr0, [sp], {37}	; 0x25
    1c24:	0000cccc 	andeq	ip, r0, ip, asr #25
    1c28:	081e0000 	ldmdaeq	lr, {}	; <UNPREDICTABLE>
    1c2c:	2525f720 	strcs	pc, [r5, #-1824]!	; 0x720
    1c30:	25332cf7 	ldrcs	r2, [r3, #-3319]!	; 0xcf7
    1c34:	00004c9f 	muleq	r0, pc, ip	; <UNPREDICTABLE>
    1c38:	00005000 	andeq	r5, r0, r0
    1c3c:	53000100 	movwpl	r0, #256	; 0x100
    1c40:	00000050 	andeq	r0, r0, r0, asr r0
    1c44:	00000058 	andeq	r0, r0, r8, asr r0
    1c48:	0070001c 	rsbseq	r0, r0, ip, lsl r0
    1c4c:	25f72cf7 	ldrbcs	r2, [r7, #3319]!	; 0xcf7
    1c50:	cd0825f4 	cfstr32gt	mvfx2, [r8, #-976]	; 0xfffffc30
    1c54:	00cccccc 	sbceq	ip, ip, ip, asr #25
    1c58:	1e000000 	cdpne	0, 0, cr0, cr0, cr0, {0}
    1c5c:	25f72008 	ldrbcs	r2, [r7, #8]!
    1c60:	332cf725 	msrcc	CPSR_fs, #9699328	; 0x940000
    1c64:	00589f25 	subseq	r9, r8, r5, lsr #30
    1c68:	005c0000 	subseq	r0, ip, r0
    1c6c:	00010000 	andeq	r0, r1, r0
    1c70:	00005c53 	andeq	r5, r0, r3, asr ip
    1c74:	00006400 	andeq	r6, r0, r0, lsl #8
    1c78:	70001c00 	andvc	r1, r0, r0, lsl #24
    1c7c:	f72cf700 			; <UNDEFINED> instruction: 0xf72cf700
    1c80:	0825f425 	stmdaeq	r5!, {r0, r2, r5, sl, ip, sp, lr, pc}
    1c84:	cccccccd 	stclgt	12, cr12, [ip], {205}	; 0xcd
    1c88:	00000000 	andeq	r0, r0, r0
    1c8c:	f720081e 			; <UNDEFINED> instruction: 0xf720081e
    1c90:	2cf72525 	cfldr64cs	mvdx2, [r7], #148	; 0x94
    1c94:	649f2533 	ldrvs	r2, [pc], #1331	; 1c9c <_start-0x6364>
    1c98:	68000000 	stmdavs	r0, {}	; <UNPREDICTABLE>
    1c9c:	01000000 	mrseq	r0, (UNDEF: 0)
    1ca0:	00685300 	rsbeq	r5, r8, r0, lsl #6
    1ca4:	00700000 	rsbseq	r0, r0, r0
    1ca8:	001c0000 	andseq	r0, ip, r0
    1cac:	2cf70070 	ldclcs	0, cr0, [r7], #448	; 0x1c0
    1cb0:	25f425f7 	ldrbcs	r2, [r4, #1527]!	; 0x5f7
    1cb4:	cccccd08 	stclgt	13, cr12, [ip], {8}
    1cb8:	000000cc 	andeq	r0, r0, ip, asr #1
    1cbc:	20081e00 	andcs	r1, r8, r0, lsl #28
    1cc0:	f72525f7 			; <UNDEFINED> instruction: 0xf72525f7
    1cc4:	9f25332c 	svcls	0x0025332c
    1cc8:	00000070 	andeq	r0, r0, r0, ror r0
    1ccc:	00000074 	andeq	r0, r0, r4, ror r0
    1cd0:	74530001 	ldrbvc	r0, [r3], #-1
    1cd4:	7c000000 	stcvc	0, cr0, [r0], {-0}
    1cd8:	1c000000 	stcne	0, cr0, [r0], {-0}
    1cdc:	f7007000 			; <UNDEFINED> instruction: 0xf7007000
    1ce0:	f425f72c 	vld1.8	{d15}, [r5 :128], ip
    1ce4:	cccd0825 	stclgt	8, cr0, [sp], {37}	; 0x25
    1ce8:	0000cccc 	andeq	ip, r0, ip, asr #25
    1cec:	081e0000 	ldmdaeq	lr, {}	; <UNPREDICTABLE>
    1cf0:	2525f720 	strcs	pc, [r5, #-1824]!	; 0x720
    1cf4:	25332cf7 	ldrcs	r2, [r3, #-3319]!	; 0xcf7
    1cf8:	00007c9f 	muleq	r0, pc, ip	; <UNPREDICTABLE>
    1cfc:	00008000 	andeq	r8, r0, r0
    1d00:	53000100 	movwpl	r0, #256	; 0x100
    1d04:	00000080 	andeq	r0, r0, r0, lsl #1
    1d08:	00000088 	andeq	r0, r0, r8, lsl #1
    1d0c:	0070001c 	rsbseq	r0, r0, ip, lsl r0
    1d10:	25f72cf7 	ldrbcs	r2, [r7, #3319]!	; 0xcf7
    1d14:	cd0825f4 	cfstr32gt	mvfx2, [r8, #-976]	; 0xfffffc30
    1d18:	00cccccc 	sbceq	ip, ip, ip, asr #25
    1d1c:	1e000000 	cdpne	0, 0, cr0, cr0, cr0, {0}
    1d20:	25f72008 	ldrbcs	r2, [r7, #8]!
    1d24:	332cf725 	msrcc	CPSR_fs, #9699328	; 0x940000
    1d28:	00889f25 	addeq	r9, r8, r5, lsr #30
    1d2c:	008c0000 	addeq	r0, ip, r0
    1d30:	00010000 	andeq	r0, r1, r0
    1d34:	00008c53 	andeq	r8, r0, r3, asr ip
    1d38:	00009000 	andeq	r9, r0, r0
    1d3c:	70001c00 	andvc	r1, r0, r0, lsl #24
    1d40:	f72cf700 			; <UNDEFINED> instruction: 0xf72cf700
    1d44:	0825f425 	stmdaeq	r5!, {r0, r2, r5, sl, ip, sp, lr, pc}
    1d48:	cccccccd 	stclgt	12, cr12, [ip], {205}	; 0xcd
    1d4c:	00000000 	andeq	r0, r0, r0
    1d50:	f720081e 			; <UNDEFINED> instruction: 0xf720081e
    1d54:	2cf72525 	cfldr64cs	mvdx2, [r7], #148	; 0x94
    1d58:	909f2533 	addsls	r2, pc, r3, lsr r5	; <UNPREDICTABLE>
    1d5c:	98000000 	stmdals	r0, {}	; <UNPREDICTABLE>
    1d60:	1c000000 	stcne	0, cr0, [r0], {-0}
    1d64:	f7007400 			; <UNDEFINED> instruction: 0xf7007400
    1d68:	f425f72c 	vld1.8	{d15}, [r5 :128], ip
    1d6c:	cccd0825 	stclgt	8, cr0, [sp], {37}	; 0x25
    1d70:	0000cccc 	andeq	ip, r0, ip, asr #25
    1d74:	081e0000 	ldmdaeq	lr, {}	; <UNPREDICTABLE>
    1d78:	2525f720 	strcs	pc, [r5, #-1824]!	; 0x720
    1d7c:	25332cf7 	ldrcs	r2, [r3, #-3319]!	; 0xcf7
    1d80:	0000989f 	muleq	r0, pc, r8	; <UNPREDICTABLE>
    1d84:	00009c00 	andeq	r9, r0, r0, lsl #24
    1d88:	74001700 	strvc	r1, [r0], #-1792	; 0x700
    1d8c:	f72cf700 			; <UNDEFINED> instruction: 0xf72cf700
    1d90:	f7007125 			; <UNDEFINED> instruction: 0xf7007125
    1d94:	1e25f72c 	cdpne	7, 2, cr15, cr5, cr12, {1}
    1d98:	25f72008 	ldrbcs	r2, [r7, #8]!
    1d9c:	332cf725 	msrcc	CPSR_fs, #9699328	; 0x940000
    1da0:	009c9f25 	addseq	r9, ip, r5, lsr #30
    1da4:	00d40000 	sbcseq	r0, r4, r0
    1da8:	001c0000 	andseq	r0, ip, r0
    1dac:	2cf70074 	ldclcs	0, cr0, [r7], #464	; 0x1d0
    1db0:	25f425f7 	ldrbcs	r2, [r4, #1527]!	; 0x5f7
    1db4:	cccccd08 	stclgt	13, cr12, [ip], {8}
    1db8:	000000cc 	andeq	r0, r0, ip, asr #1
    1dbc:	20081e00 	andcs	r1, r8, r0, lsl #28
    1dc0:	f72525f7 			; <UNDEFINED> instruction: 0xf72525f7
    1dc4:	9f25332c 	svcls	0x0025332c
	...
    1dd0:	00000094 	muleq	r0, r4, r0
    1dd4:	000000b8 	strheq	r0, [r0], -r8
    1dd8:	b8500001 	ldmdalt	r0, {r0}^
    1ddc:	c4000000 	strgt	r0, [r0], #-0
    1de0:	08000000 	stmdaeq	r0, {}	; <UNPREDICTABLE>
    1de4:	00713100 	rsbseq	r3, r1, r0, lsl #2
    1de8:	21007324 	tstcs	r0, r4, lsr #6
    1dec:	0000c49f 	muleq	r0, pc, r4	; <UNPREDICTABLE>
    1df0:	0000c700 	andeq	ip, r0, r0, lsl #14
    1df4:	51000100 	mrspl	r0, (UNDEF: 16)
	...
    1e00:	000000d4 	ldrdeq	r0, [r0], -r4
    1e04:	000000f8 	strdeq	r0, [r0], -r8
    1e08:	f8500001 			; <UNDEFINED> instruction: 0xf8500001
    1e0c:	0c000000 	stceq	0, cr0, [r0], {-0}
    1e10:	04000001 	streq	r0, [r0], #-1
    1e14:	5001f300 	andpl	pc, r1, r0, lsl #6
    1e18:	0000009f 	muleq	r0, pc, r0	; <UNPREDICTABLE>
    1e1c:	00000000 	andeq	r0, r0, r0
    1e20:	0000e000 	andeq	lr, r0, r0
    1e24:	0000e800 	andeq	lr, r0, r0, lsl #16
    1e28:	30000200 	andcc	r0, r0, r0, lsl #4
    1e2c:	0000e89f 	muleq	r0, pc, r8	; <UNPREDICTABLE>
    1e30:	0000e800 	andeq	lr, r0, r0, lsl #16
    1e34:	52000100 	andpl	r0, r0, #0, 2
    1e38:	000000e8 	andeq	r0, r0, r8, ror #1
    1e3c:	000000f0 	strdeq	r0, [r0], -r0	; <UNPREDICTABLE>
    1e40:	9f300002 	svcls	0x00300002
    1e44:	000000f0 	strdeq	r0, [r0], -r0	; <UNPREDICTABLE>
    1e48:	00000103 	andeq	r0, r0, r3, lsl #2
    1e4c:	00520001 	subseq	r0, r2, r1
    1e50:	00000000 	andeq	r0, r0, r0
    1e54:	e0000000 	and	r0, r0, r0
    1e58:	f4000000 	vst4.8	{d0-d3}, [r0], r0
    1e5c:	02000000 	andeq	r0, r0, #0
    1e60:	f49f3000 			; <UNDEFINED> instruction: 0xf49f3000
    1e64:	00000000 	andeq	r0, r0, r0
    1e68:	05000001 	streq	r0, [r0, #-1]
    1e6c:	00733100 	rsbseq	r3, r3, r0, lsl #2
    1e70:	01009f24 	tsteq	r0, r4, lsr #30
    1e74:	01030000 	mrseq	r0, (UNDEF: 3)
    1e78:	00010000 	andeq	r0, r1, r0
    1e7c:	00010351 	andeq	r0, r1, r1, asr r3
    1e80:	00010c00 	andeq	r0, r1, r0, lsl #24
    1e84:	31000800 	tstcc	r0, r0, lsl #16
    1e88:	4f5001f3 	svcmi	0x005001f3
    1e8c:	009f241a 	addseq	r2, pc, sl, lsl r4	; <UNPREDICTABLE>
    1e90:	00000000 	andeq	r0, r0, r0
    1e94:	0c000000 	stceq	0, cr0, [r0], {-0}
    1e98:	30000001 	andcc	r0, r0, r1
    1e9c:	01000001 	tsteq	r0, r1
    1ea0:	01305000 	teqeq	r0, r0
    1ea4:	01440000 	mrseq	r0, (UNDEF: 68)
    1ea8:	00040000 	andeq	r0, r4, r0
    1eac:	9f5001f3 	svcls	0x005001f3
	...
    1eb8:	00000118 	andeq	r0, r0, r8, lsl r1
    1ebc:	00000120 	andeq	r0, r0, r0, lsr #2
    1ec0:	9f300002 	svcls	0x00300002
    1ec4:	00000120 	andeq	r0, r0, r0, lsr #2
    1ec8:	00000120 	andeq	r0, r0, r0, lsr #2
    1ecc:	20520001 	subscs	r0, r2, r1
    1ed0:	28000001 	stmdacs	r0, {r0}
    1ed4:	02000001 	andeq	r0, r0, #1
    1ed8:	289f3000 	ldmcs	pc, {ip, sp}	; <UNPREDICTABLE>
    1edc:	3b000001 	blcc	1ee8 <_start-0x6118>
    1ee0:	01000001 	tsteq	r0, r1
    1ee4:	00005200 	andeq	r5, r0, r0, lsl #4
    1ee8:	00000000 	andeq	r0, r0, r0
    1eec:	01180000 	tsteq	r8, r0
    1ef0:	012c0000 	teqeq	ip, r0
    1ef4:	00020000 	andeq	r0, r2, r0
    1ef8:	012c9f30 	teqeq	ip, r0, lsr pc
    1efc:	01380000 	teqeq	r8, r0
    1f00:	00050000 	andeq	r0, r5, r0
    1f04:	24007331 	strcs	r7, [r0], #-817	; 0x331
    1f08:	0001389f 	muleq	r1, pc, r8	; <UNPREDICTABLE>
    1f0c:	00013b00 	andeq	r3, r1, r0, lsl #22
    1f10:	51000100 	mrspl	r0, (UNDEF: 16)
    1f14:	0000013b 	andeq	r0, r0, fp, lsr r1
    1f18:	00000144 	andeq	r0, r0, r4, asr #2
    1f1c:	f3310008 	vhadd.u<illegal width 64>	d0, d1, d8
    1f20:	1a4f5001 	bne	13d5f2c <__bss_end__+0x13c9814>
    1f24:	00009f24 	andeq	r9, r0, r4, lsr #30
    1f28:	00000000 	andeq	r0, r0, r0
    1f2c:	01440000 	mrseq	r0, (UNDEF: 68)
    1f30:	01d40000 	bicseq	r0, r4, r0
    1f34:	00010000 	andeq	r0, r1, r0
    1f38:	0001d450 	andeq	sp, r1, r0, asr r4
    1f3c:	00021000 	andeq	r1, r2, r0
    1f40:	54000100 	strpl	r0, [r0], #-256	; 0x100
	...
    1f4c:	0000018c 	andeq	r0, r0, ip, lsl #3
    1f50:	00000190 	muleq	r0, r0, r1
    1f54:	98550001 	ldmdals	r5, {r0}^
    1f58:	9c000001 	stcls	0, cr0, [r0], {1}
    1f5c:	01000001 	tsteq	r0, r1
    1f60:	01a45500 			; <UNDEFINED> instruction: 0x01a45500
    1f64:	01a80000 			; <UNDEFINED> instruction: 0x01a80000
    1f68:	00010000 	andeq	r0, r1, r0
    1f6c:	0001b055 	andeq	fp, r1, r5, asr r0
    1f70:	0001b400 	andeq	fp, r1, r0, lsl #8
    1f74:	55000100 	strpl	r0, [r0, #-256]	; 0x100
    1f78:	000001bc 			; <UNDEFINED> instruction: 0x000001bc
    1f7c:	000001c0 	andeq	r0, r0, r0, asr #3
    1f80:	c8550001 	ldmdagt	r5, {r0}^
    1f84:	cc000001 	stcgt	0, cr0, [r0], {1}
    1f88:	01000001 	tsteq	r0, r1
    1f8c:	01d05500 	bicseq	r5, r0, r0, lsl #10
    1f90:	02100000 	andseq	r0, r0, #0
    1f94:	00010000 	andeq	r0, r1, r0
    1f98:	00000055 	andeq	r0, r0, r5, asr r0
    1f9c:	00000000 	andeq	r0, r0, r0
    1fa0:	00016000 	andeq	r6, r1, r0
    1fa4:	00018800 	andeq	r8, r1, r0, lsl #16
    1fa8:	53000100 	movwpl	r0, #256	; 0x100
    1fac:	00000188 	andeq	r0, r0, r8, lsl #3
    1fb0:	00000190 	muleq	r0, r0, r1
    1fb4:	0070001c 	rsbseq	r0, r0, ip, lsl r0
    1fb8:	25f72cf7 	ldrbcs	r2, [r7, #3319]!	; 0xcf7
    1fbc:	cd0825f4 	cfstr32gt	mvfx2, [r8, #-976]	; 0xfffffc30
    1fc0:	00cccccc 	sbceq	ip, ip, ip, asr #25
    1fc4:	1e000000 	cdpne	0, 0, cr0, cr0, cr0, {0}
    1fc8:	25f72008 	ldrbcs	r2, [r7, #8]!
    1fcc:	332cf725 	msrcc	CPSR_fs, #9699328	; 0x940000
    1fd0:	01909f25 	orrseq	r9, r0, r5, lsr #30
    1fd4:	01940000 	orrseq	r0, r4, r0
    1fd8:	00010000 	andeq	r0, r1, r0
    1fdc:	00019453 	andeq	r9, r1, r3, asr r4
    1fe0:	00019c00 	andeq	r9, r1, r0, lsl #24
    1fe4:	70001c00 	andvc	r1, r0, r0, lsl #24
    1fe8:	f72cf700 			; <UNDEFINED> instruction: 0xf72cf700
    1fec:	0825f425 	stmdaeq	r5!, {r0, r2, r5, sl, ip, sp, lr, pc}
    1ff0:	cccccccd 	stclgt	12, cr12, [ip], {205}	; 0xcd
    1ff4:	00000000 	andeq	r0, r0, r0
    1ff8:	f720081e 			; <UNDEFINED> instruction: 0xf720081e
    1ffc:	2cf72525 	cfldr64cs	mvdx2, [r7], #148	; 0x94
    2000:	9c9f2533 	cfldr32ls	mvfx2, [pc], {51}	; 0x33
    2004:	a0000001 	andge	r0, r0, r1
    2008:	01000001 	tsteq	r0, r1
    200c:	01a05300 	lsleq	r5, r0, #6
    2010:	01a80000 			; <UNDEFINED> instruction: 0x01a80000
    2014:	001c0000 	andseq	r0, ip, r0
    2018:	2cf70070 	ldclcs	0, cr0, [r7], #448	; 0x1c0
    201c:	25f425f7 	ldrbcs	r2, [r4, #1527]!	; 0x5f7
    2020:	cccccd08 	stclgt	13, cr12, [ip], {8}
    2024:	000000cc 	andeq	r0, r0, ip, asr #1
    2028:	20081e00 	andcs	r1, r8, r0, lsl #28
    202c:	f72525f7 			; <UNDEFINED> instruction: 0xf72525f7
    2030:	9f25332c 	svcls	0x0025332c
    2034:	000001a8 	andeq	r0, r0, r8, lsr #3
    2038:	000001ac 	andeq	r0, r0, ip, lsr #3
    203c:	ac530001 	mrrcge	0, 0, r0, r3, cr1
    2040:	b4000001 	strlt	r0, [r0], #-1
    2044:	1c000001 	stcne	0, cr0, [r0], {1}
    2048:	f7007000 			; <UNDEFINED> instruction: 0xf7007000
    204c:	f425f72c 	vld1.8	{d15}, [r5 :128], ip
    2050:	cccd0825 	stclgt	8, cr0, [sp], {37}	; 0x25
    2054:	0000cccc 	andeq	ip, r0, ip, asr #25
    2058:	081e0000 	ldmdaeq	lr, {}	; <UNPREDICTABLE>
    205c:	2525f720 	strcs	pc, [r5, #-1824]!	; 0x720
    2060:	25332cf7 	ldrcs	r2, [r3, #-3319]!	; 0xcf7
    2064:	0001b49f 	muleq	r1, pc, r4	; <UNPREDICTABLE>
    2068:	0001b800 	andeq	fp, r1, r0, lsl #16
    206c:	53000100 	movwpl	r0, #256	; 0x100
    2070:	000001b8 			; <UNDEFINED> instruction: 0x000001b8
    2074:	000001c0 	andeq	r0, r0, r0, asr #3
    2078:	0070001c 	rsbseq	r0, r0, ip, lsl r0
    207c:	25f72cf7 	ldrbcs	r2, [r7, #3319]!	; 0xcf7
    2080:	cd0825f4 	cfstr32gt	mvfx2, [r8, #-976]	; 0xfffffc30
    2084:	00cccccc 	sbceq	ip, ip, ip, asr #25
    2088:	1e000000 	cdpne	0, 0, cr0, cr0, cr0, {0}
    208c:	25f72008 	ldrbcs	r2, [r7, #8]!
    2090:	332cf725 	msrcc	CPSR_fs, #9699328	; 0x940000
    2094:	01c09f25 	biceq	r9, r0, r5, lsr #30
    2098:	01c40000 	biceq	r0, r4, r0
    209c:	00010000 	andeq	r0, r1, r0
    20a0:	0001c453 	andeq	ip, r1, r3, asr r4
    20a4:	0001cc00 	andeq	ip, r1, r0, lsl #24
    20a8:	70001c00 	andvc	r1, r0, r0, lsl #24
    20ac:	f72cf700 			; <UNDEFINED> instruction: 0xf72cf700
    20b0:	0825f425 	stmdaeq	r5!, {r0, r2, r5, sl, ip, sp, lr, pc}
    20b4:	cccccccd 	stclgt	12, cr12, [ip], {205}	; 0xcd
    20b8:	00000000 	andeq	r0, r0, r0
    20bc:	f720081e 			; <UNDEFINED> instruction: 0xf720081e
    20c0:	2cf72525 	cfldr64cs	mvdx2, [r7], #148	; 0x94
    20c4:	cc9f2533 	cfldr32gt	mvfx2, [pc], {51}	; 0x33
    20c8:	d0000001 	andle	r0, r0, r1
    20cc:	01000001 	tsteq	r0, r1
    20d0:	01d05300 	bicseq	r5, r0, r0, lsl #6
    20d4:	01d40000 	bicseq	r0, r4, r0
    20d8:	001c0000 	andseq	r0, ip, r0
    20dc:	2cf70070 	ldclcs	0, cr0, [r7], #448	; 0x1c0
    20e0:	25f425f7 	ldrbcs	r2, [r4, #1527]!	; 0x5f7
    20e4:	cccccd08 	stclgt	13, cr12, [ip], {8}
    20e8:	000000cc 	andeq	r0, r0, ip, asr #1
    20ec:	20081e00 	andcs	r1, r8, r0, lsl #28
    20f0:	f72525f7 			; <UNDEFINED> instruction: 0xf72525f7
    20f4:	9f25332c 	svcls	0x0025332c
    20f8:	000001d4 	ldrdeq	r0, [r0], -r4
    20fc:	000001dc 	ldrdeq	r0, [r0], -ip
    2100:	0074001c 	rsbseq	r0, r4, ip, lsl r0
    2104:	25f72cf7 	ldrbcs	r2, [r7, #3319]!	; 0xcf7
    2108:	cd0825f4 	cfstr32gt	mvfx2, [r8, #-976]	; 0xfffffc30
    210c:	00cccccc 	sbceq	ip, ip, ip, asr #25
    2110:	1e000000 	cdpne	0, 0, cr0, cr0, cr0, {0}
    2114:	25f72008 	ldrbcs	r2, [r7, #8]!
    2118:	332cf725 	msrcc	CPSR_fs, #9699328	; 0x940000
    211c:	01dc9f25 	bicseq	r9, ip, r5, lsr #30
    2120:	01e00000 	mvneq	r0, r0
    2124:	00170000 	andseq	r0, r7, r0
    2128:	2cf70074 	ldclcs	0, cr0, [r7], #464	; 0x1d0
    212c:	007125f7 	ldrshteq	r2, [r1], #-87	; 0xffffffa9
    2130:	25f72cf7 	ldrbcs	r2, [r7, #3319]!	; 0xcf7
    2134:	f720081e 			; <UNDEFINED> instruction: 0xf720081e
    2138:	2cf72525 	cfldr64cs	mvdx2, [r7], #148	; 0x94
    213c:	e09f2533 	adds	r2, pc, r3, lsr r5	; <UNPREDICTABLE>
    2140:	10000001 	andne	r0, r0, r1
    2144:	1c000002 	stcne	0, cr0, [r0], {2}
    2148:	f7007400 			; <UNDEFINED> instruction: 0xf7007400
    214c:	f425f72c 	vld1.8	{d15}, [r5 :128], ip
    2150:	cccd0825 	stclgt	8, cr0, [sp], {37}	; 0x25
    2154:	0000cccc 	andeq	ip, r0, ip, asr #25
    2158:	081e0000 	ldmdaeq	lr, {}	; <UNPREDICTABLE>
    215c:	2525f720 	strcs	pc, [r5, #-1824]!	; 0x720
    2160:	25332cf7 	ldrcs	r2, [r3, #-3319]!	; 0xcf7
    2164:	0000009f 	muleq	r0, pc, r0	; <UNPREDICTABLE>
    2168:	00000000 	andeq	r0, r0, r0
    216c:	0001d800 	andeq	sp, r1, r0, lsl #16
    2170:	0001fc00 	andeq	pc, r1, r0, lsl #24
    2174:	50000100 	andpl	r0, r0, r0, lsl #2
    2178:	000001fc 	strdeq	r0, [r0], -ip
    217c:	00000203 	andeq	r0, r0, r3, lsl #4
    2180:	00510001 	subseq	r0, r1, r1
    2184:	00000000 	andeq	r0, r0, r0
    2188:	10000000 	andne	r0, r0, r0
    218c:	2c000002 	stccs	0, cr0, [r0], {2}
    2190:	01000002 	tsteq	r0, r2
    2194:	022c5000 	eoreq	r5, ip, #0
    2198:	02340000 	eorseq	r0, r4, #0
    219c:	00010000 	andeq	r0, r1, r0
    21a0:	00023454 	andeq	r3, r2, r4, asr r4
    21a4:	00023c00 	andeq	r3, r2, r0, lsl #24
    21a8:	50000100 	andpl	r0, r0, r0, lsl #2
    21ac:	0000023c 	andeq	r0, r0, ip, lsr r2
    21b0:	00000244 	andeq	r0, r0, r4, asr #4
    21b4:	44540001 	ldrbmi	r0, [r4], #-1
    21b8:	50000002 	andpl	r0, r0, r2
    21bc:	04000002 	streq	r0, [r0], #-2
    21c0:	5001f300 	andpl	pc, r1, r0, lsl #6
    21c4:	0002509f 	muleq	r2, pc, r0	; <UNPREDICTABLE>
    21c8:	00025400 	andeq	r5, r2, r0, lsl #8
    21cc:	50000100 	andpl	r0, r0, r0, lsl #2
    21d0:	00000254 	andeq	r0, r0, r4, asr r2
    21d4:	0000025c 	andeq	r0, r0, ip, asr r2
    21d8:	00540001 	subseq	r0, r4, r1
    21dc:	00000000 	andeq	r0, r0, r0
    21e0:	20000000 	andcs	r0, r0, r0
    21e4:	30000002 	andcc	r0, r0, r2
    21e8:	02000002 	andeq	r0, r0, #2
    21ec:	309f3000 	addscc	r3, pc, r0
    21f0:	34000002 	strcc	r0, [r0], #-2
    21f4:	01000002 	tsteq	r0, r2
    21f8:	02345000 	eorseq	r5, r4, #0
    21fc:	02400000 	subeq	r0, r0, #0
    2200:	00020000 	andeq	r0, r2, r0
    2204:	02409f30 	subeq	r9, r0, #48, 30	; 0xc0
    2208:	024c0000 	subeq	r0, ip, #0
    220c:	00010000 	andeq	r0, r1, r0
    2210:	00000050 	andeq	r0, r0, r0, asr r0
    2214:	00000000 	andeq	r0, r0, r0
    2218:	00025c00 	andeq	r5, r2, r0, lsl #24
    221c:	00027300 	andeq	r7, r2, r0, lsl #6
    2220:	50000100 	andpl	r0, r0, r0, lsl #2
    2224:	00000273 	andeq	r0, r0, r3, ror r2
    2228:	00000278 	andeq	r0, r0, r8, ror r2
    222c:	01f30004 	mvnseq	r0, r4
    2230:	02789f50 	rsbseq	r9, r8, #80, 30	; 0x140
    2234:	027b0000 	rsbseq	r0, fp, #0
    2238:	00010000 	andeq	r0, r1, r0
    223c:	00027b50 	andeq	r7, r2, r0, asr fp
    2240:	00028000 	andeq	r8, r2, r0
    2244:	f3000400 	vshl.u8	d0, d0, d0
    2248:	009f5001 	addseq	r5, pc, r1
    224c:	00000000 	andeq	r0, r0, r0
    2250:	5c000000 	stcpl	0, cr0, [r0], {-0}
    2254:	73000002 	movwvc	r0, #2
    2258:	01000002 	tsteq	r0, r2
    225c:	02735100 	rsbseq	r5, r3, #0, 2
    2260:	02780000 	rsbseq	r0, r8, #0
    2264:	00040000 	andeq	r0, r4, r0
    2268:	9f5101f3 	svcls	0x005101f3
    226c:	00000278 	andeq	r0, r0, r8, ror r2
    2270:	0000027b 	andeq	r0, r0, fp, ror r2
    2274:	7b510001 	blvc	1442280 <__bss_end__+0x1435b68>
    2278:	80000002 	andhi	r0, r0, r2
    227c:	04000002 	streq	r0, [r0], #-2
    2280:	5101f300 	mrspl	pc, SP_irq	; <UNPREDICTABLE>
    2284:	0000009f 	muleq	r0, pc, r0	; <UNPREDICTABLE>
    2288:	00000000 	andeq	r0, r0, r0
    228c:	00028000 	andeq	r8, r2, r0
    2290:	00031800 	andeq	r1, r3, r0, lsl #16
    2294:	50000100 	andpl	r0, r0, r0, lsl #2
    2298:	00000318 	andeq	r0, r0, r8, lsl r3
    229c:	00000358 	andeq	r0, r0, r8, asr r3
    22a0:	00540001 	subseq	r0, r4, r1
    22a4:	00000000 	andeq	r0, r0, r0
    22a8:	80000000 	andhi	r0, r0, r0
    22ac:	1b000002 	blne	22bc <_start-0x5d44>
    22b0:	01000003 	tsteq	r0, r3
    22b4:	031b5100 	tsteq	fp, #0, 2
    22b8:	03580000 	cmpeq	r8, #0
    22bc:	00040000 	andeq	r0, r4, r0
    22c0:	9f5101f3 	svcls	0x005101f3
	...
    22cc:	000002d0 	ldrdeq	r0, [r0], -r0	; <UNPREDICTABLE>
    22d0:	000002d4 	ldrdeq	r0, [r0], -r4
    22d4:	dc560001 	mrrcle	0, 0, r0, r6, cr1
    22d8:	e0000002 	and	r0, r0, r2
    22dc:	01000002 	tsteq	r0, r2
    22e0:	02e85600 	rsceq	r5, r8, #0, 12
    22e4:	02ec0000 	rsceq	r0, ip, #0
    22e8:	00010000 	andeq	r0, r1, r0
    22ec:	0002f456 	andeq	pc, r2, r6, asr r4	; <UNPREDICTABLE>
    22f0:	0002f800 	andeq	pc, r2, r0, lsl #16
    22f4:	56000100 	strpl	r0, [r0], -r0, lsl #2
    22f8:	00000300 	andeq	r0, r0, r0, lsl #6
    22fc:	00000304 	andeq	r0, r0, r4, lsl #6
    2300:	0c560001 	mrrceq	0, 0, r0, r6, cr1
    2304:	10000003 	andne	r0, r0, r3
    2308:	01000003 	tsteq	r0, r3
    230c:	03145600 	tsteq	r4, #0, 12
    2310:	03580000 	cmpeq	r8, #0
    2314:	00010000 	andeq	r0, r1, r0
    2318:	00000056 	andeq	r0, r0, r6, asr r0
    231c:	00000000 	andeq	r0, r0, r0
    2320:	0002a400 	andeq	sl, r2, r0, lsl #8
    2324:	0002cc00 	andeq	ip, r2, r0, lsl #24
    2328:	53000100 	movwpl	r0, #256	; 0x100
    232c:	000002cc 	andeq	r0, r0, ip, asr #5
    2330:	000002d4 	ldrdeq	r0, [r0], -r4
    2334:	0070001c 	rsbseq	r0, r0, ip, lsl r0
    2338:	25f72cf7 	ldrbcs	r2, [r7, #3319]!	; 0xcf7
    233c:	cd0825f4 	cfstr32gt	mvfx2, [r8, #-976]	; 0xfffffc30
    2340:	00cccccc 	sbceq	ip, ip, ip, asr #25
    2344:	1e000000 	cdpne	0, 0, cr0, cr0, cr0, {0}
    2348:	25f72008 	ldrbcs	r2, [r7, #8]!
    234c:	332cf725 	msrcc	CPSR_fs, #9699328	; 0x940000
    2350:	02d49f25 	sbcseq	r9, r4, #37, 30	; 0x94
    2354:	02d80000 	sbcseq	r0, r8, #0
    2358:	00010000 	andeq	r0, r1, r0
    235c:	0002d853 	andeq	sp, r2, r3, asr r8
    2360:	0002e000 	andeq	lr, r2, r0
    2364:	70001c00 	andvc	r1, r0, r0, lsl #24
    2368:	f72cf700 			; <UNDEFINED> instruction: 0xf72cf700
    236c:	0825f425 	stmdaeq	r5!, {r0, r2, r5, sl, ip, sp, lr, pc}
    2370:	cccccccd 	stclgt	12, cr12, [ip], {205}	; 0xcd
    2374:	00000000 	andeq	r0, r0, r0
    2378:	f720081e 			; <UNDEFINED> instruction: 0xf720081e
    237c:	2cf72525 	cfldr64cs	mvdx2, [r7], #148	; 0x94
    2380:	e09f2533 	adds	r2, pc, r3, lsr r5	; <UNPREDICTABLE>
    2384:	e4000002 	str	r0, [r0], #-2
    2388:	01000002 	tsteq	r0, r2
    238c:	02e45300 	rsceq	r5, r4, #0, 6
    2390:	02ec0000 	rsceq	r0, ip, #0
    2394:	001c0000 	andseq	r0, ip, r0
    2398:	2cf70070 	ldclcs	0, cr0, [r7], #448	; 0x1c0
    239c:	25f425f7 	ldrbcs	r2, [r4, #1527]!	; 0x5f7
    23a0:	cccccd08 	stclgt	13, cr12, [ip], {8}
    23a4:	000000cc 	andeq	r0, r0, ip, asr #1
    23a8:	20081e00 	andcs	r1, r8, r0, lsl #28
    23ac:	f72525f7 			; <UNDEFINED> instruction: 0xf72525f7
    23b0:	9f25332c 	svcls	0x0025332c
    23b4:	000002ec 	andeq	r0, r0, ip, ror #5
    23b8:	000002f0 	strdeq	r0, [r0], -r0	; <UNPREDICTABLE>
    23bc:	f0530001 			; <UNDEFINED> instruction: 0xf0530001
    23c0:	f8000002 			; <UNDEFINED> instruction: 0xf8000002
    23c4:	1c000002 	stcne	0, cr0, [r0], {2}
    23c8:	f7007000 			; <UNDEFINED> instruction: 0xf7007000
    23cc:	f425f72c 	vld1.8	{d15}, [r5 :128], ip
    23d0:	cccd0825 	stclgt	8, cr0, [sp], {37}	; 0x25
    23d4:	0000cccc 	andeq	ip, r0, ip, asr #25
    23d8:	081e0000 	ldmdaeq	lr, {}	; <UNPREDICTABLE>
    23dc:	2525f720 	strcs	pc, [r5, #-1824]!	; 0x720
    23e0:	25332cf7 	ldrcs	r2, [r3, #-3319]!	; 0xcf7
    23e4:	0002f89f 	muleq	r2, pc, r8	; <UNPREDICTABLE>
    23e8:	0002fc00 	andeq	pc, r2, r0, lsl #24
    23ec:	53000100 	movwpl	r0, #256	; 0x100
    23f0:	000002fc 	strdeq	r0, [r0], -ip
    23f4:	00000304 	andeq	r0, r0, r4, lsl #6
    23f8:	0070001c 	rsbseq	r0, r0, ip, lsl r0
    23fc:	25f72cf7 	ldrbcs	r2, [r7, #3319]!	; 0xcf7
    2400:	cd0825f4 	cfstr32gt	mvfx2, [r8, #-976]	; 0xfffffc30
    2404:	00cccccc 	sbceq	ip, ip, ip, asr #25
    2408:	1e000000 	cdpne	0, 0, cr0, cr0, cr0, {0}
    240c:	25f72008 	ldrbcs	r2, [r7, #8]!
    2410:	332cf725 	msrcc	CPSR_fs, #9699328	; 0x940000
    2414:	03049f25 	movweq	r9, #20261	; 0x4f25
    2418:	03080000 	movweq	r0, #32768	; 0x8000
    241c:	00010000 	andeq	r0, r1, r0
    2420:	00030853 	andeq	r0, r3, r3, asr r8
    2424:	00031000 	andeq	r1, r3, r0
    2428:	70001c00 	andvc	r1, r0, r0, lsl #24
    242c:	f72cf700 			; <UNDEFINED> instruction: 0xf72cf700
    2430:	0825f425 	stmdaeq	r5!, {r0, r2, r5, sl, ip, sp, lr, pc}
    2434:	cccccccd 	stclgt	12, cr12, [ip], {205}	; 0xcd
    2438:	00000000 	andeq	r0, r0, r0
    243c:	f720081e 			; <UNDEFINED> instruction: 0xf720081e
    2440:	2cf72525 	cfldr64cs	mvdx2, [r7], #148	; 0x94
    2444:	109f2533 	addsne	r2, pc, r3, lsr r5	; <UNPREDICTABLE>
    2448:	14000003 	strne	r0, [r0], #-3
    244c:	01000003 	tsteq	r0, r3
    2450:	03145300 	tsteq	r4, #0, 6
    2454:	03180000 	tsteq	r8, #0
    2458:	001c0000 	andseq	r0, ip, r0
    245c:	2cf70070 	ldclcs	0, cr0, [r7], #448	; 0x1c0
    2460:	25f425f7 	ldrbcs	r2, [r4, #1527]!	; 0x5f7
    2464:	cccccd08 	stclgt	13, cr12, [ip], {8}
    2468:	000000cc 	andeq	r0, r0, ip, asr #1
    246c:	20081e00 	andcs	r1, r8, r0, lsl #28
    2470:	f72525f7 			; <UNDEFINED> instruction: 0xf72525f7
    2474:	9f25332c 	svcls	0x0025332c
    2478:	00000318 	andeq	r0, r0, r8, lsl r3
    247c:	00000320 	andeq	r0, r0, r0, lsr #6
    2480:	0074001c 	rsbseq	r0, r4, ip, lsl r0
    2484:	25f72cf7 	ldrbcs	r2, [r7, #3319]!	; 0xcf7
    2488:	cd0825f4 	cfstr32gt	mvfx2, [r8, #-976]	; 0xfffffc30
    248c:	00cccccc 	sbceq	ip, ip, ip, asr #25
    2490:	1e000000 	cdpne	0, 0, cr0, cr0, cr0, {0}
    2494:	25f72008 	ldrbcs	r2, [r7, #8]!
    2498:	332cf725 	msrcc	CPSR_fs, #9699328	; 0x940000
    249c:	03209f25 	teqeq	r0, #37, 30	; 0x94
    24a0:	03240000 	teqeq	r4, #0
    24a4:	00170000 	andseq	r0, r7, r0
    24a8:	2cf70074 	ldclcs	0, cr0, [r7], #464	; 0x1d0
    24ac:	007325f7 	ldrshteq	r2, [r3], #-87	; 0xffffffa9
    24b0:	25f72cf7 	ldrbcs	r2, [r7, #3319]!	; 0xcf7
    24b4:	f720081e 			; <UNDEFINED> instruction: 0xf720081e
    24b8:	2cf72525 	cfldr64cs	mvdx2, [r7], #148	; 0x94
    24bc:	249f2533 	ldrcs	r2, [pc], #1331	; 24c4 <_start-0x5b3c>
    24c0:	58000003 	stmdapl	r0, {r0, r1}
    24c4:	1c000003 	stcne	0, cr0, [r0], {3}
    24c8:	f7007400 			; <UNDEFINED> instruction: 0xf7007400
    24cc:	f425f72c 	vld1.8	{d15}, [r5 :128], ip
    24d0:	cccd0825 	stclgt	8, cr0, [sp], {37}	; 0x25
    24d4:	0000cccc 	andeq	ip, r0, ip, asr #25
    24d8:	081e0000 	ldmdaeq	lr, {}	; <UNPREDICTABLE>
    24dc:	2525f720 	strcs	pc, [r5, #-1824]!	; 0x720
    24e0:	25332cf7 	ldrcs	r2, [r3, #-3319]!	; 0xcf7
    24e4:	0000009f 	muleq	r0, pc, r0	; <UNPREDICTABLE>
    24e8:	00000000 	andeq	r0, r0, r0
    24ec:	00031c00 	andeq	r1, r3, r0, lsl #24
    24f0:	00034000 	andeq	r4, r3, r0
    24f4:	50000100 	andpl	r0, r0, r0, lsl #2
    24f8:	00000340 	andeq	r0, r0, r0, asr #6
    24fc:	00000348 	andeq	r0, r0, r8, asr #6
    2500:	00750009 	rsbseq	r0, r5, r9
    2504:	71240073 	teqvc	r4, r3, ror r0
    2508:	489f2100 	ldmmi	pc, {r8, sp}	; <UNPREDICTABLE>
    250c:	4b000003 	blmi	2520 <_start-0x5ae0>
    2510:	01000003 	tsteq	r0, r3
    2514:	00005100 	andeq	r5, r0, r0, lsl #2
    2518:	00000000 	andeq	r0, r0, r0
    251c:	03580000 	cmpeq	r8, #0
    2520:	037c0000 	cmneq	ip, #0
    2524:	00010000 	andeq	r0, r1, r0
    2528:	00037c50 	andeq	r7, r3, r0, asr ip
    252c:	00039000 	andeq	r9, r3, r0
    2530:	f3000400 	vshl.u8	d0, d0, d0
    2534:	009f5001 	addseq	r5, pc, r1
    2538:	00000000 	andeq	r0, r0, r0
    253c:	64000000 	strvs	r0, [r0], #-0
    2540:	6c000003 	stcvs	0, cr0, [r0], {3}
    2544:	02000003 	andeq	r0, r0, #3
    2548:	6c9f3000 	ldcvs	0, cr3, [pc], {0}
    254c:	6c000003 	stcvs	0, cr0, [r0], {3}
    2550:	01000003 	tsteq	r0, r3
    2554:	036c5200 	cmneq	ip, #0, 4
    2558:	03740000 	cmneq	r4, #0
    255c:	00020000 	andeq	r0, r2, r0
    2560:	03749f30 	cmneq	r4, #48, 30	; 0xc0
    2564:	03870000 	orreq	r0, r7, #0
    2568:	00010000 	andeq	r0, r1, r0
    256c:	00000052 	andeq	r0, r0, r2, asr r0
    2570:	00000000 	andeq	r0, r0, r0
    2574:	00036400 	andeq	r6, r3, r0, lsl #8
    2578:	00037800 	andeq	r7, r3, r0, lsl #16
    257c:	30000200 	andcc	r0, r0, r0, lsl #4
    2580:	0003789f 	muleq	r3, pc, r8	; <UNPREDICTABLE>
    2584:	00038400 	andeq	r8, r3, r0, lsl #8
    2588:	31000500 	tstcc	r0, r0, lsl #10
    258c:	9f240073 	svcls	0x00240073
    2590:	00000384 	andeq	r0, r0, r4, lsl #7
    2594:	00000387 	andeq	r0, r0, r7, lsl #7
    2598:	87510001 	ldrbhi	r0, [r1, -r1]
    259c:	90000003 	andls	r0, r0, r3
    25a0:	08000003 	stmdaeq	r0, {r0, r1}
    25a4:	01f33100 	mvnseq	r3, r0, lsl #2
    25a8:	241a4f50 	ldrcs	r4, [sl], #-3920	; 0xf50
    25ac:	0000009f 	muleq	r0, pc, r0	; <UNPREDICTABLE>
    25b0:	00000000 	andeq	r0, r0, r0
    25b4:	00039000 	andeq	r9, r3, r0
    25b8:	00039c00 	andeq	r9, r3, r0, lsl #24
    25bc:	50000100 	andpl	r0, r0, r0, lsl #2
    25c0:	0000039c 	muleq	r0, ip, r3
    25c4:	000003bc 			; <UNDEFINED> instruction: 0x000003bc
    25c8:	01f30004 	mvnseq	r0, r4
    25cc:	00009f50 	andeq	r9, r0, r0, asr pc
    25d0:	00000000 	andeq	r0, r0, r0
    25d4:	03bc0000 			; <UNDEFINED> instruction: 0x03bc0000
    25d8:	03cf0000 	biceq	r0, pc, #0
    25dc:	00010000 	andeq	r0, r1, r0
    25e0:	0003cf50 	andeq	ip, r3, r0, asr pc
    25e4:	00040800 	andeq	r0, r4, r0, lsl #16
    25e8:	54000100 	strpl	r0, [r0], #-256	; 0x100
    25ec:	00000408 	andeq	r0, r0, r8, lsl #8
    25f0:	00000440 	andeq	r0, r0, r0, asr #8
    25f4:	01f30004 	mvnseq	r0, r4
    25f8:	00009f50 	andeq	r9, r0, r0, asr pc
    25fc:	00000000 	andeq	r0, r0, r0
    2600:	04280000 	strteq	r0, [r8], #-0
    2604:	042c0000 	strteq	r0, [ip], #-0
    2608:	00010000 	andeq	r0, r1, r0
    260c:	00042c50 	andeq	r2, r4, r0, asr ip
    2610:	00043300 	andeq	r3, r4, r0, lsl #6
    2614:	51000100 	mrspl	r0, (UNDEF: 16)
	...
    2620:	000003e4 	andeq	r0, r0, r4, ror #7
    2624:	000003ec 	andeq	r0, r0, ip, ror #7
    2628:	ec500001 	mrrc	0, 0, r0, r0, cr1	; <UNPREDICTABLE>
    262c:	f3000003 	vhadd.u8	d0, d0, d3
    2630:	01000003 	tsteq	r0, r3
    2634:	00005100 	andeq	r5, r0, r0, lsl #2
    2638:	00000000 	andeq	r0, r0, r0
    263c:	04040000 	streq	r0, [r4], #-0
    2640:	04100000 	ldreq	r0, [r0], #-0
    2644:	00010000 	andeq	r0, r1, r0
    2648:	00041050 	andeq	r1, r4, r0, asr r0
    264c:	00041700 	andeq	r1, r4, r0, lsl #14
    2650:	51000100 	mrspl	r0, (UNDEF: 16)
	...
    265c:	00000440 	andeq	r0, r0, r0, asr #8
    2660:	00000453 	andeq	r0, r0, r3, asr r4
    2664:	53500001 	cmppl	r0, #1
    2668:	8c000004 	stchi	0, cr0, [r0], {4}
    266c:	01000004 	tsteq	r0, r4
    2670:	048c5400 	streq	r5, [ip], #1024	; 0x400
    2674:	04c40000 	strbeq	r0, [r4], #0
    2678:	00040000 	andeq	r0, r4, r0
    267c:	9f5001f3 	svcls	0x005001f3
	...
    2688:	000004ac 	andeq	r0, r0, ip, lsr #9
    268c:	000004b0 			; <UNDEFINED> instruction: 0x000004b0
    2690:	b0500001 	subslt	r0, r0, r1
    2694:	b7000004 	strlt	r0, [r0, -r4]
    2698:	01000004 	tsteq	r0, r4
    269c:	00005100 	andeq	r5, r0, r0, lsl #2
    26a0:	00000000 	andeq	r0, r0, r0
    26a4:	04680000 	strbteq	r0, [r8], #-0
    26a8:	04700000 	ldrbteq	r0, [r0], #-0
    26ac:	00010000 	andeq	r0, r1, r0
    26b0:	00047050 	andeq	r7, r4, r0, asr r0
    26b4:	00047700 	andeq	r7, r4, r0, lsl #14
    26b8:	51000100 	mrspl	r0, (UNDEF: 16)
	...
    26c4:	00000488 	andeq	r0, r0, r8, lsl #9
    26c8:	00000494 	muleq	r0, r4, r4
    26cc:	94500001 	ldrbls	r0, [r0], #-1
    26d0:	9b000004 	blls	26e8 <_start-0x5918>
    26d4:	01000004 	tsteq	r0, r4
    26d8:	00005100 	andeq	r5, r0, r0, lsl #2
    26dc:	00000000 	andeq	r0, r0, r0
    26e0:	04c40000 	strbeq	r0, [r4], #0
    26e4:	04d70000 	ldrbeq	r0, [r7], #0
    26e8:	00010000 	andeq	r0, r1, r0
    26ec:	0004d750 	andeq	sp, r4, r0, asr r7
    26f0:	00051800 	andeq	r1, r5, r0, lsl #16
    26f4:	54000100 	strpl	r0, [r0], #-256	; 0x100
    26f8:	00000518 	andeq	r0, r0, r8, lsl r5
    26fc:	0000053c 	andeq	r0, r0, ip, lsr r5
    2700:	01f30004 	mvnseq	r0, r4
    2704:	053c9f50 	ldreq	r9, [ip, #-3920]!	; 0xf50
    2708:	05400000 	strbeq	r0, [r0, #-0]
    270c:	00010000 	andeq	r0, r1, r0
    2710:	00054050 	andeq	r4, r5, r0, asr r0
    2714:	00054800 	andeq	r4, r5, r0, lsl #16
    2718:	54000100 	strpl	r0, [r0], #-256	; 0x100
	...
    2724:	000004ec 	andeq	r0, r0, ip, ror #9
    2728:	000004fb 	strdeq	r0, [r0], -fp
    272c:	74310008 	ldrtvc	r0, [r1], #-8
    2730:	00702400 	rsbseq	r2, r0, r0, lsl #8
    2734:	00009f1a 	andeq	r9, r0, sl, lsl pc
    2738:	00000000 	andeq	r0, r0, r0
    273c:	05180000 	ldreq	r0, [r8, #-0]
    2740:	05300000 	ldreq	r0, [r0, #-0]!
    2744:	00010000 	andeq	r0, r1, r0
    2748:	00000054 	andeq	r0, r0, r4, asr r0
    274c:	00000000 	andeq	r0, r0, r0
    2750:	00054800 	andeq	r4, r5, r0, lsl #16
    2754:	00055b00 	andeq	r5, r5, r0, lsl #22
    2758:	50000100 	andpl	r0, r0, r0, lsl #2
    275c:	0000055b 	andeq	r0, r0, fp, asr r5
    2760:	00000580 	andeq	r0, r0, r0, lsl #11
    2764:	80540001 	subshi	r0, r4, r1
    2768:	a0000005 	andge	r0, r0, r5
    276c:	04000005 	streq	r0, [r0], #-5
    2770:	5001f300 	andpl	pc, r1, r0, lsl #6
    2774:	0000009f 	muleq	r0, pc, r0	; <UNPREDICTABLE>
    2778:	00000000 	andeq	r0, r0, r0
    277c:	0000fc00 	andeq	pc, r0, r0, lsl #24
    2780:	00010400 	andeq	r0, r1, r0, lsl #8
    2784:	50000100 	andpl	r0, r0, r0, lsl #2
    2788:	00000104 	andeq	r0, r0, r4, lsl #2
    278c:	00000128 	andeq	r0, r0, r8, lsr #2
    2790:	00540001 	subseq	r0, r4, r1
    2794:	00000000 	andeq	r0, r0, r0
    2798:	30000000 	andcc	r0, r0, r0
    279c:	3c000000 	stccc	0, cr0, [r0], {-0}
    27a0:	02000000 	andeq	r0, r0, #0
    27a4:	3c9f3000 	ldccc	0, cr3, [pc], {0}
    27a8:	68000000 	stmdavs	r0, {}	; <UNPREDICTABLE>
    27ac:	01000000 	mrseq	r0, (UNDEF: 0)
    27b0:	00005300 	andeq	r5, r0, r0, lsl #6
    27b4:	00000000 	andeq	r0, r0, r0
    27b8:	00680000 	rsbeq	r0, r8, r0
    27bc:	00770000 	rsbseq	r0, r7, r0
    27c0:	00010000 	andeq	r0, r1, r0
    27c4:	00007750 	andeq	r7, r0, r0, asr r7
    27c8:	0000ac00 	andeq	sl, r0, r0, lsl #24
    27cc:	54000100 	strpl	r0, [r0], #-256	; 0x100
	...
    27dc:	0000000f 	andeq	r0, r0, pc
    27e0:	0f500001 	svceq	0x00500001
    27e4:	44000000 	strmi	r0, [r0], #-0
    27e8:	01000000 	mrseq	r0, (UNDEF: 0)
    27ec:	00005400 	andeq	r5, r0, r0, lsl #8
	...
    27f8:	000f0000 	andeq	r0, pc, r0
    27fc:	00010000 	andeq	r0, r1, r0
    2800:	00000f50 	andeq	r0, r0, r0, asr pc
    2804:	00004400 	andeq	r4, r0, r0, lsl #8
    2808:	54000100 	strpl	r0, [r0], #-256	; 0x100
	...
    2818:	0000000f 	andeq	r0, r0, pc
    281c:	0f500001 	svceq	0x00500001
    2820:	44000000 	strmi	r0, [r0], #-0
    2824:	01000000 	mrseq	r0, (UNDEF: 0)
    2828:	00005400 	andeq	r5, r0, r0, lsl #8
	...
    2834:	000f0000 	andeq	r0, pc, r0
    2838:	00010000 	andeq	r0, r1, r0
    283c:	00000f50 	andeq	r0, r0, r0, asr pc
    2840:	00004400 	andeq	r4, r0, r0, lsl #8
    2844:	54000100 	strpl	r0, [r0], #-256	; 0x100
	...

Disassembly of section .debug_aranges:

00000000 <.debug_aranges>:
   0:	0000001c 	andeq	r0, r0, ip, lsl r0
   4:	00000002 	andeq	r0, r0, r2
   8:	00040000 	andeq	r0, r4, r0
   c:	00000000 	andeq	r0, r0, r0
  10:	00008010 	andeq	r8, r0, r0, lsl r0
  14:	00000c18 	andeq	r0, r0, r8, lsl ip
	...
  20:	0000001c 	andeq	r0, r0, ip, lsl r0
  24:	17e10002 	strbne	r0, [r1, r2]!
  28:	00040000 	andeq	r0, r4, r0
  2c:	00000000 	andeq	r0, r0, r0
  30:	00008c28 	andeq	r8, r0, r8, lsr #24
  34:	00000020 	andeq	r0, r0, r0, lsr #32
	...
  40:	0000001c 	andeq	r0, r0, ip, lsl r0
  44:	18c00002 	stmiane	r0, {r1}^
  48:	00040000 	andeq	r0, r4, r0
  4c:	00000000 	andeq	r0, r0, r0
  50:	00008c48 	andeq	r8, r0, r8, asr #24
  54:	00000058 	andeq	r0, r0, r8, asr r0
	...
  60:	0000001c 	andeq	r0, r0, ip, lsl r0
  64:	1a550002 	bne	1540074 <__bss_end__+0x153395c>
  68:	00040000 	andeq	r0, r4, r0
  6c:	00000000 	andeq	r0, r0, r0
  70:	00008ca0 	andeq	r8, r0, r0, lsr #25
  74:	0000003c 	andeq	r0, r0, ip, lsr r0
	...
  80:	0000001c 	andeq	r0, r0, ip, lsl r0
  84:	1b6c0002 	blne	1b00094 <__bss_end__+0x1af397c>
  88:	00040000 	andeq	r0, r4, r0
  8c:	00000000 	andeq	r0, r0, r0
  90:	00008cdc 	ldrdeq	r8, [r0], -ip
  94:	00000034 	andeq	r0, r0, r4, lsr r0
	...
  a0:	0000001c 	andeq	r0, r0, ip, lsl r0
  a4:	1c5e0002 	mrrcne	0, 0, r0, lr, cr2
  a8:	00040000 	andeq	r0, r4, r0
  ac:	00000000 	andeq	r0, r0, r0
  b0:	00008d10 	andeq	r8, r0, r0, lsl sp
  b4:	000004f8 	strdeq	r0, [r0], -r8
	...
  c0:	0000001c 	andeq	r0, r0, ip, lsl r0
  c4:	22e30002 	rsccs	r0, r3, #2
  c8:	00040000 	andeq	r0, r4, r0
  cc:	00000000 	andeq	r0, r0, r0
  d0:	00009208 	andeq	r9, r0, r8, lsl #4
  d4:	00000020 	andeq	r0, r0, r0, lsr #32
	...
  e0:	0000001c 	andeq	r0, r0, ip, lsl r0
  e4:	239f0002 	orrscs	r0, pc, #2
  e8:	00040000 	andeq	r0, r4, r0
  ec:	00000000 	andeq	r0, r0, r0
  f0:	00009228 	andeq	r9, r0, r8, lsr #4
  f4:	00000028 	andeq	r0, r0, r8, lsr #32
	...
 100:	0000001c 	andeq	r0, r0, ip, lsl r0
 104:	24a20002 	strtcs	r0, [r2], #2
 108:	00040000 	andeq	r0, r4, r0
 10c:	00000000 	andeq	r0, r0, r0
 110:	00009250 	andeq	r9, r0, r0, asr r2
 114:	00000034 	andeq	r0, r0, r4, lsr r0
	...
 120:	0000001c 	andeq	r0, r0, ip, lsl r0
 124:	25a50002 	strcs	r0, [r5, #2]!
 128:	00040000 	andeq	r0, r4, r0
 12c:	00000000 	andeq	r0, r0, r0
 130:	00009284 	andeq	r9, r0, r4, lsl #5
 134:	00000074 	andeq	r0, r0, r4, ror r0
	...
 140:	0000001c 	andeq	r0, r0, ip, lsl r0
 144:	27560002 	ldrbcs	r0, [r6, -r2]
 148:	00040000 	andeq	r0, r4, r0
 14c:	00000000 	andeq	r0, r0, r0
 150:	000092f8 	strdeq	r9, [r0], -r8
 154:	00000088 	andeq	r0, r0, r8, lsl #1
	...
 160:	0000001c 	andeq	r0, r0, ip, lsl r0
 164:	29320002 	ldmdbcs	r2!, {r1}
 168:	00040000 	andeq	r0, r4, r0
 16c:	00000000 	andeq	r0, r0, r0
 170:	00009380 	andeq	r9, r0, r0, lsl #7
 174:	000005a0 	andeq	r0, r0, r0, lsr #11
	...
 180:	0000001c 	andeq	r0, r0, ip, lsl r0
 184:	31b80002 			; <UNDEFINED> instruction: 0x31b80002
 188:	00040000 	andeq	r0, r4, r0
 18c:	00000000 	andeq	r0, r0, r0
 190:	00009920 	andeq	r9, r0, r0, lsr #18
 194:	00000154 	andeq	r0, r0, r4, asr r1
	...
 1a0:	0000001c 	andeq	r0, r0, ip, lsl r0
 1a4:	35bb0002 	ldrcc	r0, [fp, #2]!
 1a8:	00040000 	andeq	r0, r4, r0
 1ac:	00000000 	andeq	r0, r0, r0
 1b0:	00009a74 	andeq	r9, r0, r4, ror sl
 1b4:	000000ac 	andeq	r0, r0, ip, lsr #1
	...
 1c0:	0000001c 	andeq	r0, r0, ip, lsl r0
 1c4:	385a0002 	ldmdacc	sl, {r1}^
 1c8:	00040000 	andeq	r0, r4, r0
 1cc:	00000000 	andeq	r0, r0, r0
 1d0:	00009c70 	andeq	r9, r0, r0, ror ip
 1d4:	00000044 	andeq	r0, r0, r4, asr #32
	...
 1e0:	0000001c 	andeq	r0, r0, ip, lsl r0
 1e4:	399c0002 	ldmibcc	ip, {r1}
 1e8:	00040000 	andeq	r0, r4, r0
 1ec:	00000000 	andeq	r0, r0, r0
 1f0:	00009cb4 			; <UNDEFINED> instruction: 0x00009cb4
 1f4:	00000044 	andeq	r0, r0, r4, asr #32
	...
 200:	0000001c 	andeq	r0, r0, ip, lsl r0
 204:	3ade0002 	bcc	ff780214 <__bss_end__+0xff773afc>
 208:	00040000 	andeq	r0, r4, r0
 20c:	00000000 	andeq	r0, r0, r0
 210:	00009cf8 	strdeq	r9, [r0], -r8
 214:	00000044 	andeq	r0, r0, r4, asr #32
	...
 220:	0000001c 	andeq	r0, r0, ip, lsl r0
 224:	3c200002 	stccc	0, cr0, [r0], #-8
 228:	00040000 	andeq	r0, r4, r0
 22c:	00000000 	andeq	r0, r0, r0
 230:	00009d3c 	andeq	r9, r0, ip, lsr sp
 234:	00000044 	andeq	r0, r0, r4, asr #32
	...

Disassembly of section .debug_ranges:

00000000 <.debug_ranges>:
   0:	00000394 	muleq	r0, r4, r3
   4:	000003cc 	andeq	r0, r0, ip, asr #7
   8:	000003d0 	ldrdeq	r0, [r0], -r0	; <UNPREDICTABLE>
   c:	000003d4 	ldrdeq	r0, [r0], -r4
	...
  18:	00000434 	andeq	r0, r0, r4, lsr r4
  1c:	000006dc 	ldrdeq	r0, [r0], -ip
  20:	00000704 	andeq	r0, r0, r4, lsl #14
  24:	00000708 	andeq	r0, r0, r8, lsl #14
	...
  30:	000006e0 	andeq	r0, r0, r0, ror #13
  34:	000006e8 	andeq	r0, r0, r8, ror #13
  38:	000006f8 	strdeq	r0, [r0], -r8
  3c:	00000700 	andeq	r0, r0, r0, lsl #14
	...
  48:	00000b28 	andeq	r0, r0, r8, lsr #22
  4c:	00000b74 	andeq	r0, r0, r4, ror fp
  50:	00000b78 	andeq	r0, r0, r8, ror fp
  54:	00000b7c 	andeq	r0, r0, ip, ror fp
	...
  60:	00000294 	muleq	r0, r4, r2
  64:	00000298 	muleq	r0, r8, r2
  68:	000002c8 	andeq	r0, r0, r8, asr #5
  6c:	000004b8 			; <UNDEFINED> instruction: 0x000004b8
	...
  78:	00009284 	andeq	r9, r0, r4, lsl #5
  7c:	000092f8 	strdeq	r9, [r0], -r8
	...

Disassembly of section .debug_line:

00000000 <.debug_line>:
       0:	0000047e 	andeq	r0, r0, lr, ror r4
       4:	025d0002 	subseq	r0, sp, #2
       8:	01020000 	mrseq	r0, (UNDEF: 2)
       c:	000d0efb 	strdeq	r0, [sp], -fp
      10:	01010101 	tsteq	r1, r1, lsl #2
      14:	01000000 	mrseq	r0, (UNDEF: 0)
      18:	2f010000 	svccs	0x00010000
      1c:	72657355 	rsbvc	r7, r5, #1409286145	; 0x54000001
      20:	72622f73 	rsbvc	r2, r2, #460	; 0x1cc
      24:	6a6e6169 	bvs	1b985d0 <__bss_end__+0x1b8beb8>
      28:	442f6e75 	strtmi	r6, [pc], #-3701	; 30 <_start-0x7fd0>
      2c:	746b7365 	strbtvc	r7, [fp], #-869	; 0x365
      30:	732f706f 	teqvc	pc, #111	; 0x6f
      34:	6f6f6863 	svcvs	0x006f6863
      38:	69572f6c 	ldmdbvs	r7, {r2, r3, r5, r6, r8, r9, sl, fp, sp}^
      3c:	7265746e 	rsbvc	r7, r5, #1845493760	; 0x6e000000
      40:	30323931 	eorscc	r3, r2, r1, lsr r9
      44:	3153432f 	cmpcc	r3, pc, lsr #6
      48:	2f453034 	svccs	0x00453034
      4c:	34317363 	ldrtcc	r7, [r1], #-867	; 0x363
      50:	322d6530 	eorcc	r6, sp, #48, 10	; 0xc000000
      54:	6e697730 	mcrvs	7, 3, r7, cr9, cr0, {1}
      58:	62696c2f 	rsbvs	r6, r9, #12032	; 0x2f00
      5c:	6c2f6970 	stcvs	9, cr6, [pc], #-448	; fffffea4 <__bss_end__+0xffff378c>
      60:	00636269 	rsbeq	r6, r3, r9, ror #4
      64:	7273752f 	rsbsvc	r7, r3, #197132288	; 0xbc00000
      68:	636f6c2f 	cmnvs	pc, #12032	; 0x2f00
      6c:	432f6c61 	teqmi	pc, #24832	; 0x6100
      70:	616c6c65 	cmnvs	ip, r5, ror #24
      74:	72612f72 	rsbvc	r2, r1, #456	; 0x1c8
      78:	6f6e2d6d 	svcvs	0x006e2d6d
      7c:	652d656e 	strvs	r6, [sp, #-1390]!	; 0x56e
      80:	2f696261 	svccs	0x00696261
      84:	2e382e34 	mrccs	14, 1, r2, cr8, cr4, {1}
      88:	73632d33 	cmnvc	r3, #3264	; 0xcc0
      8c:	65303731 	ldrvs	r3, [r0, #-1841]!	; 0x731
      90:	62696c2f 	rsbvs	r6, r9, #12032	; 0x2f00
      94:	6363672f 	cmnvs	r3, #12320768	; 0xbc0000
      98:	6d72612f 	ldfvse	f6, [r2, #-188]!	; 0xffffff44
      9c:	6e6f6e2d 	cdpvs	14, 6, cr6, cr15, cr13, {1}
      a0:	61652d65 	cmnvs	r5, r5, ror #26
      a4:	342f6962 	strtcc	r6, [pc], #-2402	; ac <_start-0x7f54>
      a8:	332e382e 	teqcc	lr, #3014656	; 0x2e0000
      ac:	636e692f 	cmnvs	lr, #770048	; 0xbc000
      b0:	6564756c 	strbvs	r7, [r4, #-1388]!	; 0x56c
      b4:	73552f00 	cmpvc	r5, #0, 30
      b8:	2f737265 	svccs	0x00737265
      bc:	61697262 	cmnvs	r9, r2, ror #4
      c0:	6e756a6e 	vsubvs.f32	s13, s10, s29
      c4:	7365442f 	cmnvc	r5, #788529152	; 0x2f000000
      c8:	706f746b 	rsbvc	r7, pc, fp, ror #8
      cc:	6863732f 	stmdavs	r3!, {r0, r1, r2, r3, r5, r8, r9, ip, sp, lr}^
      d0:	2f6c6f6f 	svccs	0x006c6f6f
      d4:	746e6957 	strbtvc	r6, [lr], #-2391	; 0x957
      d8:	39317265 	ldmdbcc	r1!, {r0, r2, r5, r6, r9, ip, sp, lr}
      dc:	432f3032 	teqmi	pc, #50	; 0x32
      e0:	30343153 	eorscc	r3, r4, r3, asr r1
      e4:	73632f45 	cmnvc	r3, #276	; 0x114
      e8:	65303431 	ldrvs	r3, [r0, #-1073]!	; 0x431
      ec:	7730322d 	ldrvc	r3, [r0, -sp, lsr #4]!
      f0:	6c2f6e69 	stcvs	14, cr6, [pc], #-420	; ffffff54 <__bss_end__+0xffff383c>
      f4:	69706269 	ldmdbvs	r0!, {r0, r3, r5, r6, r9, sp, lr}^
      f8:	3173632f 	cmncc	r3, pc, lsr #6
      fc:	2d653034 	stclcs	0, cr3, [r5, #-208]!	; 0xffffff30
     100:	65746e69 	ldrbvs	r6, [r4, #-3689]!	; 0xe69
     104:	70757272 	rsbsvc	r7, r5, r2, ror r2
     108:	552f0074 	strpl	r0, [pc, #-116]!	; 9c <_start-0x7f64>
     10c:	73726573 	cmnvc	r2, #482344960	; 0x1cc00000
     110:	6972622f 	ldmdbvs	r2!, {r0, r1, r2, r3, r5, r9, sp, lr}^
     114:	756a6e61 	strbvc	r6, [sl, #-3681]!	; 0xe61
     118:	65442f6e 	strbvs	r2, [r4, #-3950]	; 0xf6e
     11c:	6f746b73 	svcvs	0x00746b73
     120:	63732f70 	cmnvs	r3, #112, 30	; 0x1c0
     124:	6c6f6f68 	stclvs	15, cr6, [pc], #-416	; ffffff8c <__bss_end__+0xffff3874>
     128:	6e69572f 	cdpvs	7, 6, cr5, cr9, cr15, {1}
     12c:	31726574 	cmncc	r2, r4, ror r5
     130:	2f303239 	svccs	0x00303239
     134:	34315343 	ldrtcc	r5, [r1], #-835	; 0x343
     138:	632f4530 	teqvs	pc, #48, 10	; 0xc000000
     13c:	30343173 	eorscc	r3, r4, r3, ror r1
     140:	30322d65 	eorscc	r2, r2, r5, ror #26
     144:	2f6e6977 	svccs	0x006e6977
     148:	7062696c 	rsbvc	r6, r2, ip, ror #18
     14c:	552f0069 	strpl	r0, [pc, #-105]!	; eb <_start-0x7f15>
     150:	73726573 	cmnvc	r2, #482344960	; 0x1cc00000
     154:	6972622f 	ldmdbvs	r2!, {r0, r1, r2, r3, r5, r9, sp, lr}^
     158:	756a6e61 	strbvc	r6, [sl, #-3681]!	; 0xe61
     15c:	65442f6e 	strbvs	r2, [r4, #-3950]	; 0xf6e
     160:	6f746b73 	svcvs	0x00746b73
     164:	63732f70 	cmnvs	r3, #112, 30	; 0x1c0
     168:	6c6f6f68 	stclvs	15, cr6, [pc], #-416	; ffffffd0 <__bss_end__+0xffff38b8>
     16c:	6e69572f 	cdpvs	7, 6, cr5, cr9, cr15, {1}
     170:	31726574 	cmncc	r2, r4, ror r5
     174:	2f303239 	svccs	0x00303239
     178:	34315343 	ldrtcc	r5, [r1], #-835	; 0x343
     17c:	632f4530 	teqvs	pc, #48, 10	; 0xc000000
     180:	30343173 	eorscc	r3, r4, r3, ror r1
     184:	30322d65 	eorscc	r2, r2, r5, ror #26
     188:	2f6e6977 	svccs	0x006e6977
     18c:	7062696c 	rsbvc	r6, r2, ip, ror #18
     190:	73632f69 	cmnvc	r3, #420	; 0x1a4
     194:	65303431 	ldrvs	r3, [r0, #-1073]!	; 0x431
     198:	6372732d 	cmnvs	r2, #-1275068416	; 0xb4000000
     19c:	73752f00 	cmnvc	r5, #0, 30
     1a0:	6f6c2f72 	svcvs	0x006c2f72
     1a4:	2f6c6163 	svccs	0x006c6163
     1a8:	6c6c6543 	cfstr64vs	mvdx6, [ip], #-268	; 0xfffffef4
     1ac:	612f7261 	teqvs	pc, r1, ror #4
     1b0:	6e2d6d72 	mcrvs	13, 1, r6, cr13, cr2, {3}
     1b4:	2d656e6f 	stclcs	14, cr6, [r5, #-444]!	; 0xfffffe44
     1b8:	69626165 	stmdbvs	r2!, {r0, r2, r5, r6, r8, sp, lr}^
     1bc:	382e342f 	stmdacc	lr!, {r0, r1, r2, r3, r5, sl, ip, sp}
     1c0:	632d332e 	teqvs	sp, #-1207959552	; 0xb8000000
     1c4:	30373173 	eorscc	r3, r7, r3, ror r1
     1c8:	72612f65 	rsbvc	r2, r1, #404	; 0x194
     1cc:	6f6e2d6d 	svcvs	0x006e2d6d
     1d0:	652d656e 	strvs	r6, [sp, #-1390]!	; 0x56e
     1d4:	2f696261 	svccs	0x00696261
     1d8:	6c636e69 	stclvs	14, cr6, [r3], #-420	; 0xfffffe5c
     1dc:	00656475 	rsbeq	r6, r5, r5, ror r4
     1e0:	6c2d3200 	sfmvs	f3, 4, [sp], #-0
     1e4:	6369676f 	cmnvs	r9, #29097984	; 0x1bc0000
     1e8:	616e612d 	cmnvs	lr, sp, lsr #2
     1ec:	657a796c 	ldrbvs	r7, [sl, #-2412]!	; 0x96c
     1f0:	00632e72 	rsbeq	r2, r3, r2, ror lr
     1f4:	63000000 	movwvs	r0, #0
     1f8:	75637269 	strbvc	r7, [r3, #-617]!	; 0x269
     1fc:	2e72616c 	rpwcssz	f6, f2, #4.0
     200:	00010068 	andeq	r0, r1, r8, rrx
     204:	64747300 	ldrbtvs	r7, [r4], #-768	; 0x300
     208:	2e666564 	cdpcs	5, 6, cr6, cr6, cr4, {3}
     20c:	00020068 	andeq	r0, r2, r8, rrx
     210:	64747300 	ldrbtvs	r7, [r4], #-768	; 0x300
     214:	2d746e69 	ldclcs	14, cr6, [r4, #-420]!	; 0xfffffe5c
     218:	2e636367 	cdpcs	3, 6, cr6, cr3, cr7, {3}
     21c:	00020068 	andeq	r0, r2, r8, rrx
     220:	69707200 	ldmdbvs	r0!, {r9, ip, sp, lr}^
     224:	6d72612d 	ldfvse	f6, [r2, #-180]!	; 0xffffff4c
     228:	656d6974 	strbvs	r6, [sp, #-2420]!	; 0x974
     22c:	00682e72 	rsbeq	r2, r8, r2, ror lr
     230:	72000003 	andvc	r0, r0, #3
     234:	682e6970 	stmdavs	lr!, {r4, r5, r6, r8, fp, sp, lr}
     238:	00000400 	andeq	r0, r0, r0, lsl #8
     23c:	2d697072 	stclcs	0, cr7, [r9, #-456]!	; 0xfffffe38
     240:	65746e69 	ldrbvs	r6, [r4, #-3689]!	; 0xe69
     244:	70757272 	rsbsvc	r7, r5, r2, ror r2
     248:	682e7374 	stmdavs	lr!, {r2, r4, r5, r6, r8, r9, ip, sp, lr}
     24c:	00000300 	andeq	r0, r0, r0, lsl #6
     250:	6f697067 	svcvs	0x00697067
     254:	0500682e 	streq	r6, [r0, #-2094]	; 0x82e
     258:	74730000 	ldrbtvc	r0, [r3], #-0
     25c:	676e6972 			; <UNDEFINED> instruction: 0x676e6972
     260:	0600682e 	streq	r6, [r0], -lr, lsr #16
     264:	00000000 	andeq	r0, r0, r0
     268:	80100205 	andshi	r0, r0, r5, lsl #4
     26c:	a1030000 	mrsge	r0, (UNDEF: 3)
     270:	95030101 	strls	r0, [r3, #-257]	; 0x101
     274:	ed034a7f 	vstr	s8, [r3, #-508]	; 0xfffffe04
     278:	004b9e00 	subeq	r9, fp, r0, lsl #28
     27c:	06010402 	streq	r0, [r1], -r2, lsl #8
     280:	4b67062e 	blmi	19c1b40 <__bss_end__+0x19b5428>
     284:	665b032f 	ldrbvs	r0, [fp], -pc, lsr #6
     288:	7fb70330 	svcvc	0x00b70330
     28c:	ce032008 	cdpgt	0, 0, cr2, cr3, cr8, {0}
     290:	03bb8200 			; <UNDEFINED> instruction: 0x03bb8200
     294:	034a7fb7 	movteq	r7, #44983	; 0xafb7
     298:	03bf4a75 			; <UNDEFINED> instruction: 0x03bf4a75
     29c:	bb9e00d0 	bllt	fe7805e4 <__bss_end__+0xfe773ecc>
     2a0:	4a7fb503 	bmi	1fed6b4 <__bss_end__+0x1fe0f9c>
     2a4:	bf4a7503 	svclt	0x004a7503
     2a8:	9e00d203 	cdpls	2, 0, cr13, cr0, cr3, {0}
     2ac:	7fb303d7 	svcvc	0x00b303d7
     2b0:	4a75034a 	bmi	1d40fe0 <__bss_end__+0x1d348c8>
     2b4:	00d403bf 	ldrheq	r0, [r4], #63	; 0x3f
     2b8:	b103bb9e 			; <UNDEFINED> instruction: 0xb103bb9e
     2bc:	75034a7f 	strvc	r4, [r3, #-2687]	; 0xa7f
     2c0:	d603bf4a 	strle	fp, [r3], -sl, asr #30
     2c4:	03d79e00 	bicseq	r9, r7, #0, 28
     2c8:	034a7faf 	movteq	r7, #44975	; 0xafaf
     2cc:	03bf4a75 			; <UNDEFINED> instruction: 0x03bf4a75
     2d0:	f39e00d8 	vshr.u64	q0, q4, #34
     2d4:	4a7fad03 	bmi	1feb6e8 <__bss_end__+0x1fdefd0>
     2d8:	bf4a7503 	svclt	0x004a7503
     2dc:	9e00da03 	vmlals.f32	s26, s0, s6
     2e0:	7fab03d7 	svcvc	0x00ab03d7
     2e4:	4a75034a 	bmi	1d41014 <__bss_end__+0x1d348fc>
     2e8:	00dc03bf 	ldrheq	r0, [ip], #63	; 0x3f
     2ec:	a903bb9e 	stmdbge	r3, {r1, r2, r3, r4, r7, r8, r9, fp, ip, sp, pc}
     2f0:	75034a7f 	strvc	r4, [r3, #-2687]	; 0xa7f
     2f4:	de03bf4a 	cdple	15, 0, cr11, cr3, cr10, {2}
     2f8:	03d79e00 	bicseq	r9, r7, #0, 28
     2fc:	034a7f9c 	movteq	r7, #44956	; 0xaf9c
     300:	049e00e5 	ldreq	r0, [lr], #229	; 0xe5
     304:	7f9d0302 	svcvc	0x009d0302
     308:	0a032008 	beq	c8330 <__bss_end__+0xbbc18>
     30c:	672f4c4a 	strvs	r4, [pc, -sl, asr #24]!
     310:	78034e83 	stmdavc	r3, {r0, r1, r7, r9, sl, fp, lr}
     314:	2e0c032e 	cdpcs	3, 0, cr0, cr12, cr14, {1}
     318:	0301044b 	movweq	r0, #5195	; 0x144b
     31c:	83d600da 	bicshi	r0, r6, #218	; 0xda
     320:	03672fa0 	cmneq	r7, #160, 30	; 0x280
     324:	03304a53 	teqeq	r0, #339968	; 0x53000
     328:	03d67fb7 	bicseq	r7, r6, #732	; 0x2dc
     32c:	9f6600ce 	svcls	0x006600ce
     330:	2e7fb703 	cdpcs	7, 7, cr11, cr15, cr3, {0}
     334:	a34a7503 	movtge	r7, #42243	; 0xa503
     338:	8200d003 	andhi	sp, r0, #3
     33c:	7fb5039f 	svcvc	0x00b5039f
     340:	4a75032e 	bmi	1d41000 <__bss_end__+0x1d348e8>
     344:	00d203a3 	sbcseq	r0, r2, r3, lsr #7
     348:	b303bb82 	movwlt	fp, #15234	; 0x3b82
     34c:	75032e7f 	strvc	r2, [r3, #-3711]	; 0xe7f
     350:	d403a34a 	strle	sl, [r3], #-842	; 0x34a
     354:	039f8200 	orrseq	r8, pc, #0, 4
     358:	032e7fb1 	teqeq	lr, #708	; 0x2c4
     35c:	03a34a75 			; <UNDEFINED> instruction: 0x03a34a75
     360:	bb8200d6 	bllt	fe0806c0 <__bss_end__+0xfe073fa8>
     364:	2e7faf03 	cdpcs	15, 7, cr10, cr15, cr3, {0}
     368:	a34a7503 	movtge	r7, #42243	; 0xa503
     36c:	8200d803 	andhi	sp, r0, #196608	; 0x30000
     370:	7fad03d7 	svcvc	0x00ad03d7
     374:	4a75032e 	bmi	1d41034 <__bss_end__+0x1d3491c>
     378:	00da03a3 	sbcseq	r0, sl, r3, lsr #7
     37c:	ab03bb82 	blge	ef18c <__bss_end__+0xe2a74>
     380:	75032e7f 	strvc	r2, [r3, #-3711]	; 0xe7f
     384:	dc03a34a 	stcle	3, cr10, [r3], {74}	; 0x4a
     388:	039f8200 	orrseq	r8, pc, #0, 4
     38c:	032e7fa9 	teqeq	lr, #676	; 0x2a4
     390:	03a34a75 			; <UNDEFINED> instruction: 0x03a34a75
     394:	bb8200de 	bllt	fe080714 <__bss_end__+0xfe073ffc>
     398:	2e7f9c03 	cdpcs	12, 7, cr9, cr15, cr3, {0}
     39c:	8200e503 	andhi	lr, r0, #12582912	; 0xc00000
     3a0:	04d61503 	ldrbeq	r1, [r6], #1283	; 0x503
     3a4:	04020002 	streq	r0, [r2], #-2
     3a8:	7f880301 	svcvc	0x00880301
     3ac:	0001042e 	andeq	r0, r1, lr, lsr #8
     3b0:	03010402 	movweq	r0, #5122	; 0x1402
     3b4:	004a00f1 	strdeq	r0, [sl], #-1
     3b8:	65010402 	strvs	r0, [r1, #-1026]	; 0x402
     3bc:	02000204 	andeq	r0, r0, #4, 4	; 0x40000000
     3c0:	90030104 	andls	r0, r3, r4, lsl #2
     3c4:	01042e7f 	tsteq	r4, pc, ror lr
     3c8:	01040200 	mrseq	r0, R12_usr
     3cc:	4a00f203 	bmi	3cbe0 <__bss_end__+0x304c8>
     3d0:	01040200 	mrseq	r0, R12_usr
     3d4:	002e5a03 	eoreq	r5, lr, r3, lsl #20
     3d8:	03010402 	movweq	r0, #5122	; 0x1402
     3dc:	02002e27 	andeq	r2, r0, #624	; 0x270
     3e0:	032b0104 	teqeq	fp, #4, 2
     3e4:	032f660c 	teqeq	pc, #12, 12	; 0xc00000
     3e8:	24027f98 	strcs	r7, [r2], #-3992	; 0xf98
     3ec:	02002f01 	andeq	r2, r0, #1, 30
     3f0:	4a060104 	bmi	180808 <__bss_end__+0x1740f0>
     3f4:	672fd706 	strvs	sp, [pc, -r6, lsl #14]!
     3f8:	00e90330 	rsceq	r0, r9, r0, lsr r3
     3fc:	9703359e 			; <UNDEFINED> instruction: 0x9703359e
     400:	08672e7f 	stmdaeq	r7!, {r0, r1, r2, r3, r4, r5, r6, r9, sl, fp, sp}^
     404:	9f842f23 	svcls	0x00842f23
     408:	bbbb9fbb 	bllt	feee82fc <__bss_end__+0xfeedbbe4>
     40c:	bbbb9fbb 	bllt	feee8300 <__bss_end__+0xfeedbbe8>
     410:	bbbbbbbb 	bllt	feeef304 <__bss_end__+0xfeee2bec>
     414:	03bb9fbb 			; <UNDEFINED> instruction: 0x03bb9fbb
     418:	04ba00d3 	ldrteq	r0, [sl], #211	; 0xd3
     41c:	7f920302 	svcvc	0x00920302
     420:	6665032e 	strbtvs	r0, [r5], -lr, lsr #6
     424:	4c9e1c03 	ldcmi	12, cr1, [lr], {3}
     428:	03010467 	movweq	r0, #5223	; 0x1467
     42c:	4b9e00eb 	blmi	fe7807e0 <__bss_end__+0xfe7740c8>
     430:	302f2fbd 	strhtcc	r2, [pc], -sp
     434:	21084b4b 	tstcs	r8, fp, asr #22
     438:	49030204 	stmdbmi	r3, {r2, r9}
     43c:	9f4b9f2e 	svcls	0x004b9f2e
     440:	7f9b034b 	svcvc	0x009b034b
     444:	00e60382 	rsceq	r0, r6, r2, lsl #7
     448:	7f9d034a 	svcvc	0x009d034a
     44c:	e4032008 	str	r2, [r3], #-8
     450:	9e03d600 	cfmadd32ls	mvax0, mvfx13, mvfx3, mvfx0
     454:	0320087f 	teqeq	r0, #8323072	; 0x7f0000
     458:	03ba00e3 			; <UNDEFINED> instruction: 0x03ba00e3
     45c:	20087f98 	mulcs	r8, r8, pc	; <UNPREDICTABLE>
     460:	4c9e0a03 	vldmiami	lr, {s0-s2}
     464:	03836767 	orreq	r6, r3, #27000832	; 0x19c0000
     468:	034a00da 	movteq	r0, #41178	; 0xa0da
     46c:	032e7fa2 	teqeq	lr, #648	; 0x288
     470:	042e00df 	strteq	r0, [lr], #-223	; 0xdf
     474:	02310301 	eorseq	r0, r1, #67108864	; 0x4000000
     478:	4b2f0122 	blmi	bc0908 <__bss_end__+0xbb41f0>
     47c:	001e0287 	andseq	r0, lr, r7, lsl #5
     480:	00ec0101 	rsceq	r0, ip, r1, lsl #2
     484:	00020000 	andeq	r0, r2, r0
     488:	000000d0 	ldrdeq	r0, [r0], -r0	; <UNPREDICTABLE>
     48c:	0efb0102 	cdpeq	1, 15, cr0, cr11, cr2, {0}
     490:	0101000d 	tsteq	r1, sp
     494:	00000101 	andeq	r0, r0, r1, lsl #2
     498:	00000100 	andeq	r0, r0, r0, lsl #2
     49c:	62696c01 	rsbvs	r6, r9, #256	; 0x100
     4a0:	752f0063 	strvc	r0, [pc, #-99]!	; 445 <_start-0x7bbb>
     4a4:	6c2f7273 	sfmvs	f7, 4, [pc], #-460	; 2e0 <_start-0x7d20>
     4a8:	6c61636f 	stclvs	3, cr6, [r1], #-444	; 0xfffffe44
     4ac:	6c65432f 	stclvs	3, cr4, [r5], #-188	; 0xffffff44
     4b0:	2f72616c 	svccs	0x0072616c
     4b4:	2d6d7261 	sfmcs	f7, 2, [sp, #-388]!	; 0xfffffe7c
     4b8:	656e6f6e 	strbvs	r6, [lr, #-3950]!	; 0xf6e
     4bc:	6261652d 	rsbvs	r6, r1, #188743680	; 0xb400000
     4c0:	2e342f69 	cdpcs	15, 3, cr2, cr4, cr9, {3}
     4c4:	2d332e38 	ldccs	14, cr2, [r3, #-224]!	; 0xffffff20
     4c8:	37317363 	ldrcc	r7, [r1, -r3, ror #6]!
     4cc:	6c2f6530 	cfstr32vs	mvfx6, [pc], #-192	; 414 <_start-0x7bec>
     4d0:	672f6269 	strvs	r6, [pc, -r9, ror #4]!
     4d4:	612f6363 	teqvs	pc, r3, ror #6
     4d8:	6e2d6d72 	mcrvs	13, 1, r6, cr13, cr2, {3}
     4dc:	2d656e6f 	stclcs	14, cr6, [r5, #-444]!	; 0xfffffe44
     4e0:	69626165 	stmdbvs	r2!, {r0, r2, r5, r6, r8, sp, lr}^
     4e4:	382e342f 	stmdacc	lr!, {r0, r1, r2, r3, r5, sl, ip, sp}
     4e8:	692f332e 	stmdbvs	pc!, {r1, r2, r3, r5, r8, r9, ip, sp}	; <UNPREDICTABLE>
     4ec:	756c636e 	strbvc	r6, [ip, #-878]!	; 0x36e
     4f0:	2f006564 	svccs	0x00006564
     4f4:	2f727375 	svccs	0x00727375
     4f8:	61636f6c 	cmnvs	r3, ip, ror #30
     4fc:	65432f6c 	strbvs	r2, [r3, #-3948]	; 0xf6c
     500:	72616c6c 	rsbvc	r6, r1, #108, 24	; 0x6c00
     504:	6d72612f 	ldfvse	f6, [r2, #-188]!	; 0xffffff44
     508:	6e6f6e2d 	cdpvs	14, 6, cr6, cr15, cr13, {1}
     50c:	61652d65 	cmnvs	r5, r5, ror #26
     510:	342f6962 	strtcc	r6, [pc], #-2402	; 518 <_start-0x7ae8>
     514:	332e382e 	teqcc	lr, #3014656	; 0x2e0000
     518:	3173632d 	cmncc	r3, sp, lsr #6
     51c:	2f653037 	svccs	0x00653037
     520:	2d6d7261 	sfmcs	f7, 2, [sp, #-388]!	; 0xfffffe7c
     524:	656e6f6e 	strbvs	r6, [lr, #-3950]!	; 0xf6e
     528:	6261652d 	rsbvs	r6, r1, #188743680	; 0xb400000
     52c:	6e692f69 	cdpvs	15, 6, cr2, cr9, cr9, {3}
     530:	64756c63 	ldrbtvs	r6, [r5], #-3171	; 0xc63
     534:	6d000065 	stcvs	0, cr0, [r0, #-404]	; 0xfffffe6c
     538:	65736d65 	ldrbvs	r6, [r3, #-3429]!	; 0xd65
     53c:	00632e74 	rsbeq	r2, r3, r4, ror lr
     540:	73000001 	movwvc	r0, #1
     544:	65646474 	strbvs	r6, [r4, #-1140]!	; 0x474
     548:	00682e66 	rsbeq	r2, r8, r6, ror #28
     54c:	73000002 	movwvc	r0, #2
     550:	6e697274 	mcrvs	2, 3, r7, cr9, cr4, {3}
     554:	00682e67 	rsbeq	r2, r8, r7, ror #28
     558:	00000003 	andeq	r0, r0, r3
     55c:	28020500 	stmdacs	r2, {r8, sl}
     560:	1400008c 	strne	r0, [r0], #-140	; 0x8c
     564:	002f4c13 	eoreq	r4, pc, r3, lsl ip	; <UNPREDICTABLE>
     568:	49010402 	stmdbmi	r1, {r1, sl}
     56c:	0002024d 	andeq	r0, r2, sp, asr #4
     570:	01020101 	tsteq	r2, r1, lsl #2
     574:	00020000 	andeq	r0, r2, r0
     578:	000000eb 	andeq	r0, r0, fp, ror #1
     57c:	0efb0102 	cdpeq	1, 15, cr0, cr11, cr2, {0}
     580:	0101000d 	tsteq	r1, sp
     584:	00000101 	andeq	r0, r0, r1, lsl #2
     588:	00000100 	andeq	r0, r0, r0, lsl #2
     58c:	62696c01 	rsbvs	r6, r9, #256	; 0x100
     590:	752f0063 	strvc	r0, [pc, #-99]!	; 535 <_start-0x7acb>
     594:	6c2f7273 	sfmvs	f7, 4, [pc], #-460	; 3d0 <_start-0x7c30>
     598:	6c61636f 	stclvs	3, cr6, [r1], #-444	; 0xfffffe44
     59c:	6c65432f 	stclvs	3, cr4, [r5], #-188	; 0xffffff44
     5a0:	2f72616c 	svccs	0x0072616c
     5a4:	2d6d7261 	sfmcs	f7, 2, [sp, #-388]!	; 0xfffffe7c
     5a8:	656e6f6e 	strbvs	r6, [lr, #-3950]!	; 0xf6e
     5ac:	6261652d 	rsbvs	r6, r1, #188743680	; 0xb400000
     5b0:	2e342f69 	cdpcs	15, 3, cr2, cr4, cr9, {3}
     5b4:	2d332e38 	ldccs	14, cr2, [r3, #-224]!	; 0xffffff20
     5b8:	37317363 	ldrcc	r7, [r1, -r3, ror #6]!
     5bc:	6c2f6530 	cfstr32vs	mvfx6, [pc], #-192	; 504 <_start-0x7afc>
     5c0:	672f6269 	strvs	r6, [pc, -r9, ror #4]!
     5c4:	612f6363 	teqvs	pc, r3, ror #6
     5c8:	6e2d6d72 	mcrvs	13, 1, r6, cr13, cr2, {3}
     5cc:	2d656e6f 	stclcs	14, cr6, [r5, #-444]!	; 0xfffffe44
     5d0:	69626165 	stmdbvs	r2!, {r0, r2, r5, r6, r8, sp, lr}^
     5d4:	382e342f 	stmdacc	lr!, {r0, r1, r2, r3, r5, sl, ip, sp}
     5d8:	692f332e 	stmdbvs	pc!, {r1, r2, r3, r5, r8, r9, ip, sp}	; <UNPREDICTABLE>
     5dc:	756c636e 	strbvc	r6, [ip, #-878]!	; 0x36e
     5e0:	2f006564 	svccs	0x00006564
     5e4:	72657355 	rsbvc	r7, r5, #1409286145	; 0x54000001
     5e8:	72622f73 	rsbvc	r2, r2, #460	; 0x1cc
     5ec:	6a6e6169 	bvs	1b98b98 <__bss_end__+0x1b8c480>
     5f0:	442f6e75 	strtmi	r6, [pc], #-3701	; 5f8 <_start-0x7a08>
     5f4:	746b7365 	strbtvc	r7, [fp], #-869	; 0x365
     5f8:	732f706f 	teqvc	pc, #111	; 0x6f
     5fc:	6f6f6863 	svcvs	0x006f6863
     600:	69572f6c 	ldmdbvs	r7, {r2, r3, r5, r6, r8, r9, sl, fp, sp}^
     604:	7265746e 	rsbvc	r7, r5, #1845493760	; 0x6e000000
     608:	30323931 	eorscc	r3, r2, r1, lsr r9
     60c:	3153432f 	cmpcc	r3, pc, lsr #6
     610:	2f453034 	svccs	0x00453034
     614:	34317363 	ldrtcc	r7, [r1], #-867	; 0x363
     618:	322d6530 	eorcc	r6, sp, #48, 10	; 0xc000000
     61c:	6e697730 	mcrvs	7, 3, r7, cr9, cr0, {1}
     620:	62696c2f 	rsbvs	r6, r9, #12032	; 0x2f00
     624:	00006970 	andeq	r6, r0, r0, ror r9
     628:	6e697270 	mcrvs	2, 3, r7, cr9, cr0, {3}
     62c:	632e6b74 	teqvs	lr, #116, 22	; 0x1d000
     630:	00000100 	andeq	r0, r0, r0, lsl #2
     634:	61647473 	smcvs	18243	; 0x4743
     638:	682e6772 	stmdavs	lr!, {r1, r4, r5, r6, r8, r9, sl, sp, lr}
     63c:	00000200 	andeq	r0, r0, r0, lsl #4
     640:	6975623c 	ldmdbvs	r5!, {r2, r3, r4, r5, r9, sp, lr}^
     644:	692d746c 	pushvs	{r2, r3, r5, r6, sl, ip, sp, lr}
     648:	00003e6e 	andeq	r3, r0, lr, ror #28
     64c:	70720000 	rsbsvc	r0, r2, r0
     650:	00682e69 	rsbeq	r2, r8, r9, ror #28
     654:	76000003 	strvc	r0, [r0], -r3
     658:	72702d61 	rsbsvc	r2, r0, #6208	; 0x1840
     65c:	6b746e69 	blvs	1d1c008 <__bss_end__+0x1d0f8f0>
     660:	0100682e 	tsteq	r0, lr, lsr #16
     664:	00000000 	andeq	r0, r0, r0
     668:	8c480205 	sfmhi	f0, 2, [r8], {5}
     66c:	6b170000 	blvs	5c0674 <__bss_end__+0x5b3f5c>
     670:	0289bf4b 	addeq	fp, r9, #300	; 0x12c
     674:	0101000e 	tsteq	r1, lr
     678:	0000008a 	andeq	r0, r0, sl, lsl #1
     67c:	00720002 	rsbseq	r0, r2, r2
     680:	01020000 	mrseq	r0, (UNDEF: 2)
     684:	000d0efb 	strdeq	r0, [sp], -fp
     688:	01010101 	tsteq	r1, r1, lsl #2
     68c:	01000000 	mrseq	r0, (UNDEF: 0)
     690:	6c010000 	stcvs	0, cr0, [r1], {-0}
     694:	00636269 	rsbeq	r6, r3, r9, ror #4
     698:	6573552f 	ldrbvs	r5, [r3, #-1327]!	; 0x52f
     69c:	622f7372 	eorvs	r7, pc, #-939524095	; 0xc8000001
     6a0:	6e616972 	mcrvs	9, 3, r6, cr1, cr2, {3}
     6a4:	2f6e756a 	svccs	0x006e756a
     6a8:	6b736544 	blvs	1cd9bc0 <__bss_end__+0x1ccd4a8>
     6ac:	2f706f74 	svccs	0x00706f74
     6b0:	6f686373 	svcvs	0x00686373
     6b4:	572f6c6f 	strpl	r6, [pc, -pc, ror #24]!
     6b8:	65746e69 	ldrbvs	r6, [r4, #-3689]!	; 0xe69
     6bc:	32393172 	eorscc	r3, r9, #-2147483620	; 0x8000001c
     6c0:	53432f30 	movtpl	r2, #16176	; 0x3f30
     6c4:	45303431 	ldrmi	r3, [r0, #-1073]!	; 0x431
     6c8:	3173632f 	cmncc	r3, pc, lsr #6
     6cc:	2d653034 	stclcs	0, cr3, [r5, #-208]!	; 0xffffff30
     6d0:	69773032 	ldmdbvs	r7!, {r1, r4, r5, ip, sp}^
     6d4:	696c2f6e 	stmdbvs	ip!, {r1, r2, r3, r5, r6, r8, r9, sl, fp, sp}^
     6d8:	00697062 	rsbeq	r7, r9, r2, rrx
     6dc:	74757000 	ldrbtvc	r7, [r5], #-0
     6e0:	72616863 	rsbvc	r6, r1, #6488064	; 0x630000
     6e4:	0100632e 	tsteq	r0, lr, lsr #6
     6e8:	70720000 	rsbsvc	r0, r2, r0
     6ec:	00682e69 	rsbeq	r2, r8, r9, ror #28
     6f0:	00000002 	andeq	r0, r0, r2
     6f4:	a0020500 	andge	r0, r2, r0, lsl #10
     6f8:	1400008c 	strne	r0, [r0], #-140	; 0x8c
     6fc:	bc136b4a 	ldclt	11, cr6, [r3], {74}	; 0x4a
     700:	00080213 	andeq	r0, r8, r3, lsl r2
     704:	00960101 	addseq	r0, r6, r1, lsl #2
     708:	00020000 	andeq	r0, r2, r0
     70c:	0000006f 	andeq	r0, r0, pc, rrx
     710:	0efb0102 	cdpeq	1, 15, cr0, cr11, cr2, {0}
     714:	0101000d 	tsteq	r1, sp
     718:	00000101 	andeq	r0, r0, r1, lsl #2
     71c:	00000100 	andeq	r0, r0, r0, lsl #2
     720:	62696c01 	rsbvs	r6, r9, #256	; 0x100
     724:	552f0063 	strpl	r0, [pc, #-99]!	; 6c9 <_start-0x7937>
     728:	73726573 	cmnvc	r2, #482344960	; 0x1cc00000
     72c:	6972622f 	ldmdbvs	r2!, {r0, r1, r2, r3, r5, r9, sp, lr}^
     730:	756a6e61 	strbvc	r6, [sl, #-3681]!	; 0xe61
     734:	65442f6e 	strbvs	r2, [r4, #-3950]	; 0xf6e
     738:	6f746b73 	svcvs	0x00746b73
     73c:	63732f70 	cmnvs	r3, #112, 30	; 0x1c0
     740:	6c6f6f68 	stclvs	15, cr6, [pc], #-416	; 5a8 <_start-0x7a58>
     744:	6e69572f 	cdpvs	7, 6, cr5, cr9, cr15, {1}
     748:	31726574 	cmncc	r2, r4, ror r5
     74c:	2f303239 	svccs	0x00303239
     750:	34315343 	ldrtcc	r5, [r1], #-835	; 0x343
     754:	632f4530 	teqvs	pc, #48, 10	; 0xc000000
     758:	30343173 	eorscc	r3, r4, r3, ror r1
     75c:	30322d65 	eorscc	r2, r2, r5, ror #26
     760:	2f6e6977 	svccs	0x006e6977
     764:	7062696c 	rsbvc	r6, r2, ip, ror #18
     768:	70000069 	andvc	r0, r0, r9, rrx
     76c:	2e6b7475 	mcrcs	4, 3, r7, cr11, cr5, {3}
     770:	00010063 	andeq	r0, r1, r3, rrx
     774:	69707200 	ldmdbvs	r0!, {r9, ip, sp, lr}^
     778:	0200682e 	andeq	r6, r0, #3014656	; 0x2e0000
     77c:	00000000 	andeq	r0, r0, r0
     780:	8cdc0205 	lfmhi	f0, 2, [ip], {5}
     784:	4c150000 	ldcmi	0, cr0, [r5], {-0}
     788:	0402002d 	streq	r0, [r2], #-45	; 0x2d
     78c:	02002f02 	andeq	r2, r0, #2, 30
     790:	00490204 	subeq	r0, r9, r4, lsl #4
     794:	06010402 	streq	r0, [r1], -r2, lsl #8
     798:	026b062e 	rsbeq	r0, fp, #48234496	; 0x2e00000
     79c:	01010006 	tsteq	r1, r6
     7a0:	000001de 	ldrdeq	r0, [r0], -lr
     7a4:	00df0002 	sbcseq	r0, pc, r2
     7a8:	01020000 	mrseq	r0, (UNDEF: 2)
     7ac:	000d0efb 	strdeq	r0, [sp], -fp
     7b0:	01010101 	tsteq	r1, r1, lsl #2
     7b4:	01000000 	mrseq	r0, (UNDEF: 0)
     7b8:	6c010000 	stcvs	0, cr0, [r1], {-0}
     7bc:	00636269 	rsbeq	r6, r3, r9, ror #4
     7c0:	7273752f 	rsbsvc	r7, r3, #197132288	; 0xbc00000
     7c4:	636f6c2f 	cmnvs	pc, #12032	; 0x2f00
     7c8:	432f6c61 	teqmi	pc, #24832	; 0x6100
     7cc:	616c6c65 	cmnvs	ip, r5, ror #24
     7d0:	72612f72 	rsbvc	r2, r1, #456	; 0x1c8
     7d4:	6f6e2d6d 	svcvs	0x006e2d6d
     7d8:	652d656e 	strvs	r6, [sp, #-1390]!	; 0x56e
     7dc:	2f696261 	svccs	0x00696261
     7e0:	2e382e34 	mrccs	14, 1, r2, cr8, cr4, {1}
     7e4:	73632d33 	cmnvc	r3, #3264	; 0xcc0
     7e8:	65303731 	ldrvs	r3, [r0, #-1841]!	; 0x731
     7ec:	62696c2f 	rsbvs	r6, r9, #12032	; 0x2f00
     7f0:	6363672f 	cmnvs	r3, #12320768	; 0xbc0000
     7f4:	6d72612f 	ldfvse	f6, [r2, #-188]!	; 0xffffff44
     7f8:	6e6f6e2d 	cdpvs	14, 6, cr6, cr15, cr13, {1}
     7fc:	61652d65 	cmnvs	r5, r5, ror #26
     800:	342f6962 	strtcc	r6, [pc], #-2402	; 808 <_start-0x77f8>
     804:	332e382e 	teqcc	lr, #3014656	; 0x2e0000
     808:	636e692f 	cmnvs	lr, #770048	; 0xbc000
     80c:	6564756c 	strbvs	r7, [r4, #-1388]!	; 0x56c
     810:	73552f00 	cmpvc	r5, #0, 30
     814:	2f737265 	svccs	0x00737265
     818:	61697262 	cmnvs	r9, r2, ror #4
     81c:	6e756a6e 	vsubvs.f32	s13, s10, s29
     820:	7365442f 	cmnvc	r5, #788529152	; 0x2f000000
     824:	706f746b 	rsbvc	r7, pc, fp, ror #8
     828:	6863732f 	stmdavs	r3!, {r0, r1, r2, r3, r5, r8, r9, ip, sp, lr}^
     82c:	2f6c6f6f 	svccs	0x006c6f6f
     830:	746e6957 	strbtvc	r6, [lr], #-2391	; 0x957
     834:	39317265 	ldmdbcc	r1!, {r0, r2, r5, r6, r9, ip, sp, lr}
     838:	432f3032 	teqmi	pc, #50	; 0x32
     83c:	30343153 	eorscc	r3, r4, r3, asr r1
     840:	73632f45 	cmnvc	r3, #276	; 0x114
     844:	65303431 	ldrvs	r3, [r0, #-1073]!	; 0x431
     848:	7730322d 	ldrvc	r3, [r0, -sp, lsr #4]!
     84c:	6c2f6e69 	stcvs	14, cr6, [pc], #-420	; 6b0 <_start-0x7950>
     850:	69706269 	ldmdbvs	r0!, {r0, r3, r5, r6, r9, sp, lr}^
     854:	61760000 	cmnvs	r6, r0
     858:	6972702d 	ldmdbvs	r2!, {r0, r2, r3, r5, ip, sp, lr}^
     85c:	2e6b746e 	cdpcs	4, 6, cr7, cr11, cr14, {3}
     860:	00010063 	andeq	r0, r1, r3, rrx
     864:	64747300 	ldrbtvs	r7, [r4], #-768	; 0x300
     868:	2e677261 	cdpcs	2, 6, cr7, cr7, cr1, {3}
     86c:	00020068 	andeq	r0, r2, r8, rrx
     870:	69707200 	ldmdbvs	r0!, {r9, ip, sp, lr}^
     874:	0300682e 	movweq	r6, #2094	; 0x82e
     878:	623c0000 	eorsvs	r0, ip, #0
     87c:	746c6975 	strbtvc	r6, [ip], #-2421	; 0x975
     880:	3e6e692d 	cdpcc	9, 6, cr6, cr14, cr13, {1}
     884:	00000000 	andeq	r0, r0, r0
     888:	02050000 	andeq	r0, r5, #0
     88c:	00008d10 	andeq	r8, r0, r0, lsl sp
     890:	01012603 	tsteq	r1, r3, lsl #12
     894:	2d3113a5 	ldccs	3, cr1, [r1, #-660]!	; 0xfffffd6c
     898:	02040200 	andeq	r0, r4, #0, 4
     89c:	0402002f 	streq	r0, [r2], #-47	; 0x2f
     8a0:	02002d02 	andeq	r2, r0, #2, 26	; 0x80
     8a4:	002f0204 	eoreq	r0, pc, r4, lsl #4
     8a8:	2d010402 	cfstrscs	mvf0, [r1, #-8]
     8ac:	14304c4c 	ldrtne	r4, [r0], #-3148	; 0xc4c
     8b0:	004f2f4b 	subeq	r2, pc, fp, asr #30
     8b4:	67020402 	strvs	r0, [r2, -r2, lsl #8]
     8b8:	01040200 	mrseq	r0, R12_usr
     8bc:	304d4c65 	subcc	r4, sp, r5, ror #24
     8c0:	30312fa0 	eorscc	r2, r1, r0, lsr #31
     8c4:	84162602 	ldrhi	r2, [r6], #-1538	; 0x602
     8c8:	02002c2d 	andeq	r2, r0, #11520	; 0x2d00
     8cc:	00300104 	eorseq	r0, r0, r4, lsl #2
     8d0:	33010402 	movwcc	r0, #5122	; 0x1402
     8d4:	02006606 	andeq	r6, r0, #6291456	; 0x600000
     8d8:	002e0104 	eoreq	r0, lr, r4, lsl #2
     8dc:	06010402 	streq	r0, [r1], -r2, lsl #8
     8e0:	2f672108 	svccs	0x00672108
     8e4:	03827303 	orreq	r7, r2, #201326592	; 0xc000000
     8e8:	02002e13 	andeq	r2, r0, #304	; 0x130
     8ec:	2e060104 	adfcss	f0, f6, f4
     8f0:	01040200 	mrseq	r0, R12_usr
     8f4:	4b6a9f06 	blmi	1aa8514 <__bss_end__+0x1a9bdfc>
     8f8:	032e6703 	teqeq	lr, #786432	; 0xc0000
     8fc:	02002e21 	andeq	r2, r0, #528	; 0x210
     900:	2e060104 	adfcss	f0, f6, f4
     904:	01040200 	mrseq	r0, R12_usr
     908:	02009f06 	andeq	r9, r0, #6, 30
     90c:	d96a0104 	stmdble	sl!, {r2, r8}^
     910:	7fa603f3 	svcvc	0x00a603f3
     914:	002f2008 	eoreq	r2, pc, r8
     918:	06010402 	streq	r0, [r1], -r2, lsl #8
     91c:	4bd7064a 	blmi	ff5c224c <__bss_end__+0xff5b5b34>
     920:	00da032f 	sbcseq	r0, sl, pc, lsr #6
     924:	484c83f2 	stmdami	ip, {r1, r4, r5, r6, r7, r8, r9, pc}^
     928:	032e0e03 	teqeq	lr, #3, 28	; 0x30
     92c:	2f2f2e75 	svccs	0x002f2e75
     930:	2d2f4b84 	vstmdbcs	pc!, {d4-d5}
     934:	2f30314d 	svccs	0x0030314d
     938:	04020083 	streq	r0, [r2], #-131	; 0x83
     93c:	00a22c01 	adceq	r2, r2, r1, lsl #24
     940:	06010402 	streq	r0, [r1], -r2, lsl #8
     944:	02d8064a 	sbcseq	r0, r8, #77594624	; 0x4a00000
     948:	0e031636 	mcreq	6, 0, r1, cr3, cr6, {1}
     94c:	302108d6 	ldrdcc	r0, [r1], -r6	; <UNPREDICTABLE>
     950:	30f331f3 	ldrshtcc	r3, [r3], #19
     954:	304b30f3 	strdcc	r3, [fp], #-3
     958:	230830f3 	movwcs	r3, #33011	; 0x80f3
     95c:	02002f31 	andeq	r2, r0, #49, 30	; 0xc4
     960:	00650104 	rsbeq	r0, r5, r4, lsl #2
     964:	06020402 	streq	r0, [r2], -r2, lsl #8
     968:	0402004a 	streq	r0, [r2], #-74	; 0x4a
     96c:	42030601 	andmi	r0, r3, #1048576	; 0x100000
     970:	04020066 	streq	r0, [r2], #-102	; 0x66
     974:	06660602 	strbteq	r0, [r6], -r2, lsl #12
     978:	4a00c203 	bmi	3118c <__bss_end__+0x24a74>
     97c:	00100268 	andseq	r0, r0, r8, ror #4
     980:	00430101 	subeq	r0, r3, r1, lsl #2
     984:	00020000 	andeq	r0, r2, r0
     988:	00000029 	andeq	r0, r0, r9, lsr #32
     98c:	0efb0102 	cdpeq	1, 15, cr0, cr11, cr2, {0}
     990:	0101000d 	tsteq	r1, sp
     994:	00000101 	andeq	r0, r0, r1, lsl #2
     998:	00000100 	andeq	r0, r0, r0, lsl #2
     99c:	31736301 	cmncc	r3, r1, lsl #6
     9a0:	2d653034 	stclcs	0, cr3, [r5, #-208]!	; 0xffffff30
     9a4:	00637273 	rsbeq	r7, r3, r3, ror r2
     9a8:	63616300 	cmnvs	r1, #0, 6
     9ac:	632e6568 	teqvs	lr, #104, 10	; 0x1a000000
     9b0:	00000100 	andeq	r0, r0, r0, lsl #2
     9b4:	02050000 	andeq	r0, r5, #0
     9b8:	00009208 	andeq	r9, r0, r8, lsl #4
     9bc:	2f301414 	svccs	0x00301414
     9c0:	2f31144e 	svccs	0x0031144e
     9c4:	01000402 	tsteq	r0, r2, lsl #8
     9c8:	00009301 	andeq	r9, r0, r1, lsl #6
     9cc:	7d000200 	sfmvc	f0, 4, [r0, #-0]
     9d0:	02000000 	andeq	r0, r0, #0
     9d4:	0d0efb01 	vstreq	d15, [lr, #-4]
     9d8:	01010100 	mrseq	r0, (UNDEF: 17)
     9dc:	00000001 	andeq	r0, r0, r1
     9e0:	01000001 	tsteq	r0, r1
     9e4:	34317363 	ldrtcc	r7, [r1], #-867	; 0x363
     9e8:	732d6530 	teqvc	sp, #48, 10	; 0xc000000
     9ec:	2f006372 	svccs	0x00006372
     9f0:	72657355 	rsbvc	r7, r5, #1409286145	; 0x54000001
     9f4:	72622f73 	rsbvc	r2, r2, #460	; 0x1cc
     9f8:	6a6e6169 	bvs	1b98fa4 <__bss_end__+0x1b8c88c>
     9fc:	442f6e75 	strtmi	r6, [pc], #-3701	; a04 <_start-0x75fc>
     a00:	746b7365 	strbtvc	r7, [fp], #-869	; 0x365
     a04:	732f706f 	teqvc	pc, #111	; 0x6f
     a08:	6f6f6863 	svcvs	0x006f6863
     a0c:	69572f6c 	ldmdbvs	r7, {r2, r3, r5, r6, r8, r9, sl, fp, sp}^
     a10:	7265746e 	rsbvc	r7, r5, #1845493760	; 0x6e000000
     a14:	30323931 	eorscc	r3, r2, r1, lsr r9
     a18:	3153432f 	cmpcc	r3, pc, lsr #6
     a1c:	2f453034 	svccs	0x00453034
     a20:	34317363 	ldrtcc	r7, [r1], #-867	; 0x363
     a24:	322d6530 	eorcc	r6, sp, #48, 10	; 0xc000000
     a28:	6e697730 	mcrvs	7, 3, r7, cr9, cr0, {1}
     a2c:	62696c2f 	rsbvs	r6, r9, #12032	; 0x2f00
     a30:	00006970 	andeq	r6, r0, r0, ror r9
     a34:	61656c63 	cmnvs	r5, r3, ror #24
     a38:	65722d6e 	ldrbvs	r2, [r2, #-3438]!	; 0xd6e
     a3c:	746f6f62 	strbtvc	r6, [pc], #-3938	; a44 <_start-0x75bc>
     a40:	0100632e 	tsteq	r0, lr, lsr #6
     a44:	70720000 	rsbsvc	r0, r2, r0
     a48:	00682e69 	rsbeq	r2, r8, r9, ror #28
     a4c:	00000002 	andeq	r0, r0, r2
     a50:	28020500 	stmdacs	r2, {r8, sl}
     a54:	15000092 	strne	r0, [r0, #-146]	; 0x92
     a58:	024b832f 	subeq	r8, fp, #-1140850688	; 0xbc000000
     a5c:	01010006 	tsteq	r1, r6
     a60:	0000009a 	muleq	r0, sl, r0
     a64:	00770002 	rsbseq	r0, r7, r2
     a68:	01020000 	mrseq	r0, (UNDEF: 2)
     a6c:	000d0efb 	strdeq	r0, [sp], -fp
     a70:	01010101 	tsteq	r1, r1, lsl #2
     a74:	01000000 	mrseq	r0, (UNDEF: 0)
     a78:	63010000 	movwvs	r0, #4096	; 0x1000
     a7c:	30343173 	eorscc	r3, r4, r3, ror r1
     a80:	72732d65 	rsbsvc	r2, r3, #6464	; 0x1940
     a84:	552f0063 	strpl	r0, [pc, #-99]!	; a29 <_start-0x75d7>
     a88:	73726573 	cmnvc	r2, #482344960	; 0x1cc00000
     a8c:	6972622f 	ldmdbvs	r2!, {r0, r1, r2, r3, r5, r9, sp, lr}^
     a90:	756a6e61 	strbvc	r6, [sl, #-3681]!	; 0xe61
     a94:	65442f6e 	strbvs	r2, [r4, #-3950]	; 0xf6e
     a98:	6f746b73 	svcvs	0x00746b73
     a9c:	63732f70 	cmnvs	r3, #112, 30	; 0x1c0
     aa0:	6c6f6f68 	stclvs	15, cr6, [pc], #-416	; 908 <_start-0x76f8>
     aa4:	6e69572f 	cdpvs	7, 6, cr5, cr9, cr15, {1}
     aa8:	31726574 	cmncc	r2, r4, ror r5
     aac:	2f303239 	svccs	0x00303239
     ab0:	34315343 	ldrtcc	r5, [r1], #-835	; 0x343
     ab4:	632f4530 	teqvs	pc, #48, 10	; 0xc000000
     ab8:	30343173 	eorscc	r3, r4, r3, ror r1
     abc:	30322d65 	eorscc	r2, r2, r5, ror #26
     ac0:	2f6e6977 	svccs	0x006e6977
     ac4:	7062696c 	rsbvc	r6, r2, ip, ror #18
     ac8:	63000069 	movwvs	r0, #105	; 0x69
     acc:	72617473 	rsbvc	r7, r1, #1929379840	; 0x73000000
     ad0:	00632e74 	rsbeq	r2, r3, r4, ror lr
     ad4:	72000001 	andvc	r0, r0, #1
     ad8:	682e6970 	stmdavs	lr!, {r4, r5, r6, r8, fp, sp, lr}
     adc:	00000200 	andeq	r0, r0, r0, lsl #4
     ae0:	02050000 	andeq	r0, r5, #0
     ae4:	00009250 	andeq	r9, r0, r0, asr r2
     ae8:	32010c03 	andcc	r0, r1, #768	; 0x300
     aec:	2f2d2f31 	svccs	0x002d2f31
     af0:	01040200 	mrseq	r0, R12_usr
     af4:	4a0f0349 	bmi	3c1820 <__bss_end__+0x3b5108>
     af8:	0006022f 	andeq	r0, r6, pc, lsr #4
     afc:	00990101 	addseq	r0, r9, r1, lsl #2
     b00:	00020000 	andeq	r0, r2, r0
     b04:	00000077 	andeq	r0, r0, r7, ror r0
     b08:	0efb0102 	cdpeq	1, 15, cr0, cr11, cr2, {0}
     b0c:	0101000d 	tsteq	r1, sp
     b10:	00000101 	andeq	r0, r0, r1, lsl #2
     b14:	00000100 	andeq	r0, r0, r0, lsl #2
     b18:	31736301 	cmncc	r3, r1, lsl #6
     b1c:	2d653034 	stclcs	0, cr3, [r5, #-208]!	; 0xffffff30
     b20:	00637273 	rsbeq	r7, r3, r3, ror r2
     b24:	6573552f 	ldrbvs	r5, [r3, #-1327]!	; 0x52f
     b28:	622f7372 	eorvs	r7, pc, #-939524095	; 0xc8000001
     b2c:	6e616972 	mcrvs	9, 3, r6, cr1, cr2, {3}
     b30:	2f6e756a 	svccs	0x006e756a
     b34:	6b736544 	blvs	1cda04c <__bss_end__+0x1ccd934>
     b38:	2f706f74 	svccs	0x00706f74
     b3c:	6f686373 	svcvs	0x00686373
     b40:	572f6c6f 	strpl	r6, [pc, -pc, ror #24]!
     b44:	65746e69 	ldrbvs	r6, [r4, #-3689]!	; 0xe69
     b48:	32393172 	eorscc	r3, r9, #-2147483620	; 0x8000001c
     b4c:	53432f30 	movtpl	r2, #16176	; 0x3f30
     b50:	45303431 	ldrmi	r3, [r0, #-1073]!	; 0x431
     b54:	3173632f 	cmncc	r3, pc, lsr #6
     b58:	2d653034 	stclcs	0, cr3, [r5, #-208]!	; 0xffffff30
     b5c:	69773032 	ldmdbvs	r7!, {r1, r4, r5, ip, sp}^
     b60:	696c2f6e 	stmdbvs	ip!, {r1, r2, r3, r5, r6, r8, r9, sl, fp, sp}^
     b64:	00697062 	rsbeq	r7, r9, r2, rrx
     b68:	62657200 	rsbvs	r7, r5, #0, 4
     b6c:	2e746f6f 	cdpcs	15, 7, cr6, cr4, cr15, {3}
     b70:	00010063 	andeq	r0, r1, r3, rrx
     b74:	69707200 	ldmdbvs	r0!, {r9, ip, sp, lr}^
     b78:	0200682e 	andeq	r6, r0, #3014656	; 0x2e0000
     b7c:	00000000 	andeq	r0, r0, r0
     b80:	92840205 	addls	r0, r4, #1342177280	; 0x50000000
     b84:	0d030000 	stceq	0, cr0, [r3, #-0]
     b88:	2f311401 	svccs	0x00311401
     b8c:	4b2f1585 	blmi	bc61a8 <__bss_end__+0xbb9a90>
     b90:	35672f4d 	strbcc	r2, [r7, #-3917]!	; 0xf4d
     b94:	10026752 	andne	r6, r2, r2, asr r7
     b98:	a3010100 	movwge	r0, #4352	; 0x1100
     b9c:	02000000 	andeq	r0, r0, #0
     ba0:	00007600 	andeq	r7, r0, r0, lsl #12
     ba4:	fb010200 	blx	413ae <__bss_end__+0x34c96>
     ba8:	01000d0e 	tsteq	r0, lr, lsl #26
     bac:	00010101 	andeq	r0, r1, r1, lsl #2
     bb0:	00010000 	andeq	r0, r1, r0
     bb4:	73630100 	cmnvc	r3, #0, 2
     bb8:	65303431 	ldrvs	r3, [r0, #-1073]!	; 0x431
     bbc:	6372732d 	cmnvs	r2, #-1275068416	; 0xb4000000
     bc0:	73552f00 	cmpvc	r5, #0, 30
     bc4:	2f737265 	svccs	0x00737265
     bc8:	61697262 	cmnvs	r9, r2, ror #4
     bcc:	6e756a6e 	vsubvs.f32	s13, s10, s29
     bd0:	7365442f 	cmnvc	r5, #788529152	; 0x2f000000
     bd4:	706f746b 	rsbvc	r7, pc, fp, ror #8
     bd8:	6863732f 	stmdavs	r3!, {r0, r1, r2, r3, r5, r8, r9, ip, sp, lr}^
     bdc:	2f6c6f6f 	svccs	0x006c6f6f
     be0:	746e6957 	strbtvc	r6, [lr], #-2391	; 0x957
     be4:	39317265 	ldmdbcc	r1!, {r0, r2, r5, r6, r9, ip, sp, lr}
     be8:	432f3032 	teqmi	pc, #50	; 0x32
     bec:	30343153 	eorscc	r3, r4, r3, asr r1
     bf0:	73632f45 	cmnvc	r3, #276	; 0x114
     bf4:	65303431 	ldrvs	r3, [r0, #-1073]!	; 0x431
     bf8:	7730322d 	ldrvc	r3, [r0, -sp, lsr #4]!
     bfc:	6c2f6e69 	stcvs	14, cr6, [pc], #-420	; a60 <_start-0x75a0>
     c00:	69706269 	ldmdbvs	r0!, {r0, r3, r5, r6, r9, sp, lr}^
     c04:	69740000 	ldmdbvs	r4!, {}^	; <UNPREDICTABLE>
     c08:	2e72656d 	cdpcs	5, 7, cr6, cr2, cr13, {3}
     c0c:	00010063 	andeq	r0, r1, r3, rrx
     c10:	69707200 	ldmdbvs	r0!, {r9, ip, sp, lr}^
     c14:	0200682e 	andeq	r6, r0, #3014656	; 0x2e0000
     c18:	00000000 	andeq	r0, r0, r0
     c1c:	92f80205 	rscsls	r0, r8, #1342177280	; 0x50000000
     c20:	14160000 	ldrne	r0, [r6], #-0
     c24:	02002d2f 	andeq	r2, r0, #3008	; 0xbc0
     c28:	2e060104 	adfcss	f0, f6, f4
     c2c:	2f316d06 	svccs	0x00316d06
     c30:	31324d4b 	teqcc	r2, fp, asr #26
     c34:	2f4c4b30 	svccs	0x004c4b30
     c38:	842f2f6a 	strthi	r2, [pc], #-3946	; c40 <_start-0x73c0>
     c3c:	0008022f 	andeq	r0, r8, pc, lsr #4
     c40:	017f0101 	cmneq	pc, r1, lsl #2
     c44:	00020000 	andeq	r0, r2, r0
     c48:	000000ca 	andeq	r0, r0, sl, asr #1
     c4c:	0efb0102 	cdpeq	1, 15, cr0, cr11, cr2, {0}
     c50:	0101000d 	tsteq	r1, sp
     c54:	00000101 	andeq	r0, r0, r1, lsl #2
     c58:	00000100 	andeq	r0, r0, r0, lsl #2
     c5c:	2d796d01 	ldclcs	13, cr6, [r9, #-4]!
     c60:	00637273 	rsbeq	r7, r3, r3, ror r2
     c64:	6573552f 	ldrbvs	r5, [r3, #-1327]!	; 0x52f
     c68:	622f7372 	eorvs	r7, pc, #-939524095	; 0xc8000001
     c6c:	6e616972 	mcrvs	9, 3, r6, cr1, cr2, {3}
     c70:	2f6e756a 	svccs	0x006e756a
     c74:	6b736544 	blvs	1cda18c <__bss_end__+0x1ccda74>
     c78:	2f706f74 	svccs	0x00706f74
     c7c:	6f686373 	svcvs	0x00686373
     c80:	572f6c6f 	strpl	r6, [pc, -pc, ror #24]!
     c84:	65746e69 	ldrbvs	r6, [r4, #-3689]!	; 0xe69
     c88:	32393172 	eorscc	r3, r9, #-2147483620	; 0x8000001c
     c8c:	53432f30 	movtpl	r2, #16176	; 0x3f30
     c90:	45303431 	ldrmi	r3, [r0, #-1073]!	; 0x431
     c94:	3173632f 	cmncc	r3, pc, lsr #6
     c98:	2d653034 	stclcs	0, cr3, [r5, #-208]!	; 0xffffff30
     c9c:	69773032 	ldmdbvs	r7!, {r1, r4, r5, ip, sp}^
     ca0:	696c2f6e 	stmdbvs	ip!, {r1, r2, r3, r5, r6, r8, r9, sl, fp, sp}^
     ca4:	2f697062 	svccs	0x00697062
     ca8:	34317363 	ldrtcc	r7, [r1], #-867	; 0x363
     cac:	732d6530 	teqvc	sp, #48, 10	; 0xc000000
     cb0:	2f006372 	svccs	0x00006372
     cb4:	72657355 	rsbvc	r7, r5, #1409286145	; 0x54000001
     cb8:	72622f73 	rsbvc	r2, r2, #460	; 0x1cc
     cbc:	6a6e6169 	bvs	1b99268 <__bss_end__+0x1b8cb50>
     cc0:	442f6e75 	strtmi	r6, [pc], #-3701	; cc8 <_start-0x7338>
     cc4:	746b7365 	strbtvc	r7, [fp], #-869	; 0x365
     cc8:	732f706f 	teqvc	pc, #111	; 0x6f
     ccc:	6f6f6863 	svcvs	0x006f6863
     cd0:	69572f6c 	ldmdbvs	r7, {r2, r3, r5, r6, r8, r9, sl, fp, sp}^
     cd4:	7265746e 	rsbvc	r7, r5, #1845493760	; 0x6e000000
     cd8:	30323931 	eorscc	r3, r2, r1, lsr r9
     cdc:	3153432f 	cmpcc	r3, pc, lsr #6
     ce0:	2f453034 	svccs	0x00453034
     ce4:	34317363 	ldrtcc	r7, [r1], #-867	; 0x363
     ce8:	322d6530 	eorcc	r6, sp, #48, 10	; 0xc000000
     cec:	6e697730 	mcrvs	7, 3, r7, cr9, cr0, {1}
     cf0:	62696c2f 	rsbvs	r6, r9, #12032	; 0x2f00
     cf4:	00006970 	andeq	r6, r0, r0, ror r9
     cf8:	6f697067 	svcvs	0x00697067
     cfc:	0100632e 	tsteq	r0, lr, lsr #6
     d00:	70670000 	rsbvc	r0, r7, r0
     d04:	682e6f69 	stmdavs	lr!, {r0, r3, r5, r6, r8, r9, sl, fp, sp, lr}
     d08:	00000200 	andeq	r0, r0, r0, lsl #4
     d0c:	2e697072 	mcrcs	0, 3, r7, cr9, cr2, {3}
     d10:	00030068 	andeq	r0, r3, r8, rrx
     d14:	05000000 	streq	r0, [r0, #-0]
     d18:	00938002 	addseq	r8, r3, r2
     d1c:	013e0300 	teqeq	lr, r0, lsl #6
     d20:	0869504e 	stmdaeq	r9!, {r1, r2, r3, r6, ip, lr}^
     d24:	67676721 	strbvs	r6, [r7, -r1, lsr #14]!
     d28:	32676767 	rsbcc	r6, r7, #27000832	; 0x19c0000
     d2c:	dc22084b 	stcle	8, cr0, [r2], #-300	; 0xfffffed4
     d30:	4e135131 	mrcmi	1, 0, r5, cr3, cr1, {1}
     d34:	31be3050 			; <UNDEFINED> instruction: 0x31be3050
     d38:	4f4d1350 	svcmi	0x004d1350
     d3c:	504cc030 	subpl	ip, ip, r0, lsr r0
     d40:	67210869 	strvs	r0, [r1, -r9, ror #16]!
     d44:	67676767 	strbvs	r6, [r7, -r7, ror #14]!
     d48:	084b3267 	stmdaeq	fp, {r0, r1, r2, r5, r6, r9, ip, sp}^
     d4c:	504ca321 	subpl	sl, ip, r1, lsr #6
     d50:	0369842f 	cmneq	r9, #788529152	; 0x2f000000
     d54:	0c038275 	sfmeq	f0, 1, [r3], {117}	; 0x75
     d58:	4e304d2e 	cdpmi	13, 3, cr4, cr0, cr14, {1}
     d5c:	6a4d4c4b 	bvs	1353e90 <__bss_end__+0x1347778>
     d60:	2108696b 	tstcs	r8, fp, ror #18
     d64:	67676767 	strbvs	r6, [r7, -r7, ror #14]!
     d68:	4b326767 	blmi	c9ab0c <__bss_end__+0xc8e3f4>
     d6c:	30c02208 	sbccc	r2, r0, r8, lsl #4
     d70:	504e1351 	subpl	r1, lr, r1, asr r3
     d74:	ba180330 	blt	601a3c <__bss_end__+0x5f5324>
     d78:	2f4c9f31 	svccs	0x004c9f31
     d7c:	2f4e4d52 	svccs	0x004e4d52
     d80:	684b674b 	stmdavs	fp, {r0, r1, r3, r6, r8, r9, sl, sp, lr}^
     d84:	2f4c6767 	svccs	0x004c6767
     d88:	6e4b2f67 	cdpvs	15, 4, cr2, cr11, cr7, {3}
     d8c:	4b2f4e4c 	blmi	bd46c4 <__bss_end__+0xbc7fac>
     d90:	67684b67 	strbvs	r4, [r8, -r7, ror #22]!
     d94:	672f4c67 	strvs	r4, [pc, -r7, ror #24]!
     d98:	4b6d4b2f 	blmi	1b53a5c <__bss_end__+0x1b47344>
     d9c:	674b2f4e 	strbvs	r2, [fp, -lr, asr #30]
     da0:	01040200 	mrseq	r0, R12_usr
     da4:	68066606 	stmdavs	r6, {r1, r2, r9, sl, sp, lr}
     da8:	02002f9f 	andeq	r2, r0, #636	; 0x27c
     dac:	4a060104 	bmi	1811c4 <__bss_end__+0x174aac>
     db0:	032f6806 	teqeq	pc, #393216	; 0x60000
     db4:	0e034a73 	mcreq	10, 0, r4, cr3, cr3, {3}
     db8:	4e4c4d2e 	cdpmi	13, 4, cr4, cr12, cr14, {1}
     dbc:	bcbc4b2f 	fldmiaxlt	ip!, {d4-d26}	;@ Deprecated
     dc0:	01000602 	tsteq	r0, r2, lsl #12
     dc4:	00010101 	andeq	r0, r1, r1, lsl #2
     dc8:	ca000200 	bgt	15d0 <_start-0x6a30>
     dcc:	02000000 	andeq	r0, r0, #0
     dd0:	0d0efb01 	vstreq	d15, [lr, #-4]
     dd4:	01010100 	mrseq	r0, (UNDEF: 17)
     dd8:	00000001 	andeq	r0, r0, r1
     ddc:	01000001 	tsteq	r0, r1
     de0:	732d796d 	teqvc	sp, #1785856	; 0x1b4000
     de4:	2f006372 	svccs	0x00006372
     de8:	72657355 	rsbvc	r7, r5, #1409286145	; 0x54000001
     dec:	72622f73 	rsbvc	r2, r2, #460	; 0x1cc
     df0:	6a6e6169 	bvs	1b9939c <__bss_end__+0x1b8cc84>
     df4:	442f6e75 	strtmi	r6, [pc], #-3701	; dfc <_start-0x7204>
     df8:	746b7365 	strbtvc	r7, [fp], #-869	; 0x365
     dfc:	732f706f 	teqvc	pc, #111	; 0x6f
     e00:	6f6f6863 	svcvs	0x006f6863
     e04:	69572f6c 	ldmdbvs	r7, {r2, r3, r5, r6, r8, r9, sl, fp, sp}^
     e08:	7265746e 	rsbvc	r7, r5, #1845493760	; 0x6e000000
     e0c:	30323931 	eorscc	r3, r2, r1, lsr r9
     e10:	3153432f 	cmpcc	r3, pc, lsr #6
     e14:	2f453034 	svccs	0x00453034
     e18:	34317363 	ldrtcc	r7, [r1], #-867	; 0x363
     e1c:	322d6530 	eorcc	r6, sp, #48, 10	; 0xc000000
     e20:	6e697730 	mcrvs	7, 3, r7, cr9, cr0, {1}
     e24:	62696c2f 	rsbvs	r6, r9, #12032	; 0x2f00
     e28:	632f6970 	teqvs	pc, #112, 18	; 0x1c0000
     e2c:	30343173 	eorscc	r3, r4, r3, ror r1
     e30:	72732d65 	rsbsvc	r2, r3, #6464	; 0x1940
     e34:	552f0063 	strpl	r0, [pc, #-99]!	; dd9 <_start-0x7227>
     e38:	73726573 	cmnvc	r2, #482344960	; 0x1cc00000
     e3c:	6972622f 	ldmdbvs	r2!, {r0, r1, r2, r3, r5, r9, sp, lr}^
     e40:	756a6e61 	strbvc	r6, [sl, #-3681]!	; 0xe61
     e44:	65442f6e 	strbvs	r2, [r4, #-3950]	; 0xf6e
     e48:	6f746b73 	svcvs	0x00746b73
     e4c:	63732f70 	cmnvs	r3, #112, 30	; 0x1c0
     e50:	6c6f6f68 	stclvs	15, cr6, [pc], #-416	; cb8 <_start-0x7348>
     e54:	6e69572f 	cdpvs	7, 6, cr5, cr9, cr15, {1}
     e58:	31726574 	cmncc	r2, r4, ror r5
     e5c:	2f303239 	svccs	0x00303239
     e60:	34315343 	ldrtcc	r5, [r1], #-835	; 0x343
     e64:	632f4530 	teqvs	pc, #48, 10	; 0xc000000
     e68:	30343173 	eorscc	r3, r4, r3, ror r1
     e6c:	30322d65 	eorscc	r2, r2, r5, ror #26
     e70:	2f6e6977 	svccs	0x006e6977
     e74:	7062696c 	rsbvc	r6, r2, ip, ror #18
     e78:	75000069 	strvc	r0, [r0, #-105]	; 0x69
     e7c:	2e747261 	cdpcs	2, 7, cr7, cr4, cr1, {3}
     e80:	00010063 	andeq	r0, r1, r3, rrx
     e84:	69706700 	ldmdbvs	r0!, {r8, r9, sl, sp, lr}^
     e88:	00682e6f 	rsbeq	r2, r8, pc, ror #28
     e8c:	72000002 	andvc	r0, r0, #2
     e90:	682e6970 	stmdavs	lr!, {r4, r5, r6, r8, fp, sp, lr}
     e94:	00000300 	andeq	r0, r0, r0, lsl #6
     e98:	02050000 	andeq	r0, r5, #0
     e9c:	00009920 	andeq	r9, r0, r0, lsr #18
     ea0:	30013603 	andcc	r3, r1, r3, lsl #12
     ea4:	306d6733 	rsbcc	r6, sp, r3, lsr r7
     ea8:	676730d8 			; <UNDEFINED> instruction: 0x676730d8
     eac:	68676767 	stmdavs	r7!, {r0, r1, r2, r5, r6, r8, r9, sl, sp, lr}^
     eb0:	6a672f86 	bvs	19cccd0 <__bss_end__+0x19c05b8>
     eb4:	69676730 	stmdbvs	r7!, {r4, r5, r8, r9, sl, sp, lr}^
     eb8:	4c6a672f 	stclmi	7, cr6, [sl], #-188	; 0xffffff44
     ebc:	2f2fc167 	svccs	0x002fc167
     ec0:	49682f30 	stmdbmi	r8!, {r4, r5, r8, r9, sl, fp, sp}^
     ec4:	00020230 	andeq	r0, r2, r0, lsr r2
     ec8:	00c90101 	sbceq	r0, r9, r1, lsl #2
     ecc:	00020000 	andeq	r0, r2, r0
     ed0:	00000097 	muleq	r0, r7, r0
     ed4:	0efb0102 	cdpeq	1, 15, cr0, cr11, cr2, {0}
     ed8:	0101000d 	tsteq	r1, sp
     edc:	00000101 	andeq	r0, r0, r1, lsl #2
     ee0:	00000100 	andeq	r0, r0, r0, lsl #2
     ee4:	31736301 	cmncc	r3, r1, lsl #6
     ee8:	2d653034 	stclcs	0, cr3, [r5, #-208]!	; 0xffffff30
     eec:	65746e69 	ldrbvs	r6, [r4, #-3689]!	; 0xe69
     ef0:	70757272 	rsbsvc	r7, r5, r2, ror r2
     ef4:	552f0074 	strpl	r0, [pc, #-116]!	; e88 <_start-0x7178>
     ef8:	73726573 	cmnvc	r2, #482344960	; 0x1cc00000
     efc:	6972622f 	ldmdbvs	r2!, {r0, r1, r2, r3, r5, r9, sp, lr}^
     f00:	756a6e61 	strbvc	r6, [sl, #-3681]!	; 0xe61
     f04:	65442f6e 	strbvs	r2, [r4, #-3950]	; 0xf6e
     f08:	6f746b73 	svcvs	0x00746b73
     f0c:	63732f70 	cmnvs	r3, #112, 30	; 0x1c0
     f10:	6c6f6f68 	stclvs	15, cr6, [pc], #-416	; d78 <_start-0x7288>
     f14:	6e69572f 	cdpvs	7, 6, cr5, cr9, cr15, {1}
     f18:	31726574 	cmncc	r2, r4, ror r5
     f1c:	2f303239 	svccs	0x00303239
     f20:	34315343 	ldrtcc	r5, [r1], #-835	; 0x343
     f24:	632f4530 	teqvs	pc, #48, 10	; 0xc000000
     f28:	30343173 	eorscc	r3, r4, r3, ror r1
     f2c:	30322d65 	eorscc	r2, r2, r5, ror #26
     f30:	2f6e6977 	svccs	0x006e6977
     f34:	7062696c 	rsbvc	r6, r2, ip, ror #18
     f38:	69000069 	stmdbvs	r0, {r0, r3, r5, r6}
     f3c:	7265746e 	rsbvc	r7, r5, #1845493760	; 0x6e000000
     f40:	74707572 	ldrbtvc	r7, [r0], #-1394	; 0x572
     f44:	2e632d73 	mcrcs	13, 3, r2, cr3, cr3, {3}
     f48:	00010063 	andeq	r0, r1, r3, rrx
     f4c:	69707200 	ldmdbvs	r0!, {r9, ip, sp, lr}^
     f50:	0200682e 	andeq	r6, r0, #3014656	; 0x2e0000
     f54:	70720000 	rsbsvc	r0, r2, r0
     f58:	6e692d69 	cdpvs	13, 6, cr2, cr9, cr9, {3}
     f5c:	72726574 	rsbsvc	r6, r2, #116, 10	; 0x1d000000
     f60:	73747075 	cmnvc	r4, #117	; 0x75
     f64:	0100682e 	tsteq	r0, lr, lsr #16
     f68:	00000000 	andeq	r0, r0, r0
     f6c:	9a740205 	bls	1d01788 <__bss_end__+0x1cf5070>
     f70:	1a030000 	bne	c0f78 <__bss_end__+0xb4860>
     f74:	67673101 	strbvs	r3, [r7, -r1, lsl #2]!
     f78:	832e0903 	teqhi	lr, #49152	; 0xc000
     f7c:	02002d2f 	andeq	r2, r0, #3008	; 0xbc0
     f80:	002f0204 	eoreq	r0, pc, r4, lsl #4
     f84:	65020402 	strvs	r0, [r2, #-1026]	; 0x402
     f88:	01040200 	mrseq	r0, R12_usr
     f8c:	4c062e06 	stcmi	14, cr2, [r6], {6}
     f90:	1c0267a0 	stcne	7, cr6, [r2], {160}	; 0xa0
     f94:	a5010100 	strge	r0, [r1, #-256]	; 0x100
     f98:	02000000 	andeq	r0, r0, #0
     f9c:	00009100 	andeq	r9, r0, r0, lsl #2
     fa0:	fb010200 	blx	417aa <__bss_end__+0x35092>
     fa4:	01000d0e 	tsteq	r0, lr, lsl #26
     fa8:	00010101 	andeq	r0, r1, r1, lsl #2
     fac:	00010000 	andeq	r0, r1, r0
     fb0:	73630100 	cmnvc	r3, #0, 2
     fb4:	65303431 	ldrvs	r3, [r0, #-1073]!	; 0x431
     fb8:	746e692d 	strbtvc	r6, [lr], #-2349	; 0x92d
     fbc:	75727265 	ldrbvc	r7, [r2, #-613]!	; 0x265
     fc0:	2f007470 	svccs	0x00007470
     fc4:	72657355 	rsbvc	r7, r5, #1409286145	; 0x54000001
     fc8:	72622f73 	rsbvc	r2, r2, #460	; 0x1cc
     fcc:	6a6e6169 	bvs	1b99578 <__bss_end__+0x1b8ce60>
     fd0:	442f6e75 	strtmi	r6, [pc], #-3701	; fd8 <_start-0x7028>
     fd4:	746b7365 	strbtvc	r7, [fp], #-869	; 0x365
     fd8:	732f706f 	teqvc	pc, #111	; 0x6f
     fdc:	6f6f6863 	svcvs	0x006f6863
     fe0:	69572f6c 	ldmdbvs	r7, {r2, r3, r5, r6, r8, r9, sl, fp, sp}^
     fe4:	7265746e 	rsbvc	r7, r5, #1845493760	; 0x6e000000
     fe8:	30323931 	eorscc	r3, r2, r1, lsr r9
     fec:	3153432f 	cmpcc	r3, pc, lsr #6
     ff0:	2f453034 	svccs	0x00453034
     ff4:	34317363 	ldrtcc	r7, [r1], #-867	; 0x363
     ff8:	322d6530 	eorcc	r6, sp, #48, 10	; 0xc000000
     ffc:	6e697730 	mcrvs	7, 3, r7, cr9, cr0, {1}
    1000:	62696c2f 	rsbvs	r6, r9, #12032	; 0x2f00
    1004:	00006970 	andeq	r6, r0, r0, ror r9
    1008:	61666564 	cmnvs	r6, r4, ror #10
    100c:	2d746c75 	ldclcs	12, cr6, [r4, #-468]!	; 0xfffffe2c
    1010:	646e6168 	strbtvs	r6, [lr], #-360	; 0x168
    1014:	2d72656c 	cfldr64cs	mvdx6, [r2, #-432]!	; 0xfffffe50
    1018:	61746164 	cmnvs	r4, r4, ror #2
    101c:	6f62612d 	svcvs	0x0062612d
    1020:	632e7472 	teqvs	lr, #1912602624	; 0x72000000
    1024:	00000100 	andeq	r0, r0, r0, lsl #2
    1028:	2e697072 	mcrcs	0, 3, r7, cr9, cr2, {3}
    102c:	00020068 	andeq	r0, r2, r8, rrx
    1030:	05000000 	streq	r0, [r0, #-0]
    1034:	009c7002 	addseq	r7, ip, r2
    1038:	02661300 	rsbeq	r1, r6, #0, 6
    103c:	0101001c 	tsteq	r1, ip, lsl r0
    1040:	000000a3 	andeq	r0, r0, r3, lsr #1
    1044:	008f0002 	addeq	r0, pc, r2
    1048:	01020000 	mrseq	r0, (UNDEF: 2)
    104c:	000d0efb 	strdeq	r0, [sp], -fp
    1050:	01010101 	tsteq	r1, r1, lsl #2
    1054:	01000000 	mrseq	r0, (UNDEF: 0)
    1058:	63010000 	movwvs	r0, #4096	; 0x1000
    105c:	30343173 	eorscc	r3, r4, r3, ror r1
    1060:	6e692d65 	cdpvs	13, 6, cr2, cr9, cr5, {3}
    1064:	72726574 	rsbsvc	r6, r2, #116, 10	; 0x1d000000
    1068:	00747075 	rsbseq	r7, r4, r5, ror r0
    106c:	6573552f 	ldrbvs	r5, [r3, #-1327]!	; 0x52f
    1070:	622f7372 	eorvs	r7, pc, #-939524095	; 0xc8000001
    1074:	6e616972 	mcrvs	9, 3, r6, cr1, cr2, {3}
    1078:	2f6e756a 	svccs	0x006e756a
    107c:	6b736544 	blvs	1cda594 <__bss_end__+0x1ccde7c>
    1080:	2f706f74 	svccs	0x00706f74
    1084:	6f686373 	svcvs	0x00686373
    1088:	572f6c6f 	strpl	r6, [pc, -pc, ror #24]!
    108c:	65746e69 	ldrbvs	r6, [r4, #-3689]!	; 0xe69
    1090:	32393172 	eorscc	r3, r9, #-2147483620	; 0x8000001c
    1094:	53432f30 	movtpl	r2, #16176	; 0x3f30
    1098:	45303431 	ldrmi	r3, [r0, #-1073]!	; 0x431
    109c:	3173632f 	cmncc	r3, pc, lsr #6
    10a0:	2d653034 	stclcs	0, cr3, [r5, #-208]!	; 0xffffff30
    10a4:	69773032 	ldmdbvs	r7!, {r1, r4, r5, ip, sp}^
    10a8:	696c2f6e 	stmdbvs	ip!, {r1, r2, r3, r5, r6, r8, r9, sl, fp, sp}^
    10ac:	00697062 	rsbeq	r7, r9, r2, rrx
    10b0:	66656400 	strbtvs	r6, [r5], -r0, lsl #8
    10b4:	746c7561 	strbtvc	r7, [ip], #-1377	; 0x561
    10b8:	6e61682d 	cdpvs	8, 6, cr6, cr1, cr13, {1}
    10bc:	72656c64 	rsbvc	r6, r5, #100, 24	; 0x6400
    10c0:	6572702d 	ldrbvs	r7, [r2, #-45]!	; 0x2d
    10c4:	63746566 	cmnvs	r4, #427819008	; 0x19800000
    10c8:	00632e68 	rsbeq	r2, r3, r8, ror #28
    10cc:	72000001 	andvc	r0, r0, #1
    10d0:	682e6970 	stmdavs	lr!, {r4, r5, r6, r8, fp, sp, lr}
    10d4:	00000200 	andeq	r0, r0, r0, lsl #4
    10d8:	02050000 	andeq	r0, r5, #0
    10dc:	00009cb4 			; <UNDEFINED> instruction: 0x00009cb4
    10e0:	1c026613 	stcne	6, cr6, [r2], {19}
    10e4:	a0010100 	andge	r0, r1, r0, lsl #2
    10e8:	02000000 	andeq	r0, r0, #0
    10ec:	00008c00 	andeq	r8, r0, r0, lsl #24
    10f0:	fb010200 	blx	418fa <__bss_end__+0x351e2>
    10f4:	01000d0e 	tsteq	r0, lr, lsl #26
    10f8:	00010101 	andeq	r0, r1, r1, lsl #2
    10fc:	00010000 	andeq	r0, r1, r0
    1100:	73630100 	cmnvc	r3, #0, 2
    1104:	65303431 	ldrvs	r3, [r0, #-1073]!	; 0x431
    1108:	746e692d 	strbtvc	r6, [lr], #-2349	; 0x92d
    110c:	75727265 	ldrbvc	r7, [r2, #-613]!	; 0x265
    1110:	2f007470 	svccs	0x00007470
    1114:	72657355 	rsbvc	r7, r5, #1409286145	; 0x54000001
    1118:	72622f73 	rsbvc	r2, r2, #460	; 0x1cc
    111c:	6a6e6169 	bvs	1b996c8 <__bss_end__+0x1b8cfb0>
    1120:	442f6e75 	strtmi	r6, [pc], #-3701	; 1128 <_start-0x6ed8>
    1124:	746b7365 	strbtvc	r7, [fp], #-869	; 0x365
    1128:	732f706f 	teqvc	pc, #111	; 0x6f
    112c:	6f6f6863 	svcvs	0x006f6863
    1130:	69572f6c 	ldmdbvs	r7, {r2, r3, r5, r6, r8, r9, sl, fp, sp}^
    1134:	7265746e 	rsbvc	r7, r5, #1845493760	; 0x6e000000
    1138:	30323931 	eorscc	r3, r2, r1, lsr r9
    113c:	3153432f 	cmpcc	r3, pc, lsr #6
    1140:	2f453034 	svccs	0x00453034
    1144:	34317363 	ldrtcc	r7, [r1], #-867	; 0x363
    1148:	322d6530 	eorcc	r6, sp, #48, 10	; 0xc000000
    114c:	6e697730 	mcrvs	7, 3, r7, cr9, cr0, {1}
    1150:	62696c2f 	rsbvs	r6, r9, #12032	; 0x2f00
    1154:	00006970 	andeq	r6, r0, r0, ror r9
    1158:	61666564 	cmnvs	r6, r4, ror #10
    115c:	2d746c75 	ldclcs	12, cr6, [r4, #-468]!	; 0xfffffe2c
    1160:	646e6168 	strbtvs	r6, [lr], #-360	; 0x168
    1164:	2d72656c 	cfldr64cs	mvdx6, [r2, #-432]!	; 0xfffffe50
    1168:	65736572 	ldrbvs	r6, [r3, #-1394]!	; 0x572
    116c:	00632e74 	rsbeq	r2, r3, r4, ror lr
    1170:	72000001 	andvc	r0, r0, #1
    1174:	682e6970 	stmdavs	lr!, {r4, r5, r6, r8, fp, sp, lr}
    1178:	00000200 	andeq	r0, r0, r0, lsl #4
    117c:	02050000 	andeq	r0, r5, #0
    1180:	00009cf8 	strdeq	r9, [r0], -r8
    1184:	1c026613 	stcne	6, cr6, [r2], {19}
    1188:	a9010100 	stmdbge	r1, {r8}
    118c:	02000000 	andeq	r0, r0, #0
    1190:	00009500 	andeq	r9, r0, r0, lsl #10
    1194:	fb010200 	blx	4199e <__bss_end__+0x35286>
    1198:	01000d0e 	tsteq	r0, lr, lsl #26
    119c:	00010101 	andeq	r0, r1, r1, lsl #2
    11a0:	00010000 	andeq	r0, r1, r0
    11a4:	73630100 	cmnvc	r3, #0, 2
    11a8:	65303431 	ldrvs	r3, [r0, #-1073]!	; 0x431
    11ac:	746e692d 	strbtvc	r6, [lr], #-2349	; 0x92d
    11b0:	75727265 	ldrbvc	r7, [r2, #-613]!	; 0x265
    11b4:	2f007470 	svccs	0x00007470
    11b8:	72657355 	rsbvc	r7, r5, #1409286145	; 0x54000001
    11bc:	72622f73 	rsbvc	r2, r2, #460	; 0x1cc
    11c0:	6a6e6169 	bvs	1b9976c <__bss_end__+0x1b8d054>
    11c4:	442f6e75 	strtmi	r6, [pc], #-3701	; 11cc <_start-0x6e34>
    11c8:	746b7365 	strbtvc	r7, [fp], #-869	; 0x365
    11cc:	732f706f 	teqvc	pc, #111	; 0x6f
    11d0:	6f6f6863 	svcvs	0x006f6863
    11d4:	69572f6c 	ldmdbvs	r7, {r2, r3, r5, r6, r8, r9, sl, fp, sp}^
    11d8:	7265746e 	rsbvc	r7, r5, #1845493760	; 0x6e000000
    11dc:	30323931 	eorscc	r3, r2, r1, lsr r9
    11e0:	3153432f 	cmpcc	r3, pc, lsr #6
    11e4:	2f453034 	svccs	0x00453034
    11e8:	34317363 	ldrtcc	r7, [r1], #-867	; 0x363
    11ec:	322d6530 	eorcc	r6, sp, #48, 10	; 0xc000000
    11f0:	6e697730 	mcrvs	7, 3, r7, cr9, cr0, {1}
    11f4:	62696c2f 	rsbvs	r6, r9, #12032	; 0x2f00
    11f8:	00006970 	andeq	r6, r0, r0, ror r9
    11fc:	61666564 	cmnvs	r6, r4, ror #10
    1200:	2d746c75 	ldclcs	12, cr6, [r4, #-468]!	; 0xfffffe2c
    1204:	646e6168 	strbtvs	r6, [lr], #-360	; 0x168
    1208:	2d72656c 	cfldr64cs	mvdx6, [r2, #-432]!	; 0xfffffe50
    120c:	65646e75 	strbvs	r6, [r4, #-3701]!	; 0xe75
    1210:	656e6966 	strbvs	r6, [lr, #-2406]!	; 0x966
    1214:	6e692d64 	cdpvs	13, 6, cr2, cr9, cr4, {3}
    1218:	632e7473 	teqvs	lr, #1929379840	; 0x73000000
    121c:	00000100 	andeq	r0, r0, r0, lsl #2
    1220:	2e697072 	mcrcs	0, 3, r7, cr9, cr2, {3}
    1224:	00020068 	andeq	r0, r2, r8, rrx
    1228:	05000000 	streq	r0, [r0, #-0]
    122c:	009d3c02 	addseq	r3, sp, r2, lsl #24
    1230:	02661300 	rsbeq	r1, r6, #0, 6
    1234:	0101001c 	tsteq	r1, ip, lsl r0

Disassembly of section .debug_str:

00000000 <.debug_str>:
   0:	657a6973 	ldrbvs	r6, [sl, #-2419]!	; 0x973
   4:	4700745f 	smlsdmi	r0, pc, r4, r7	; <UNPREDICTABLE>
   8:	45534650 	ldrbmi	r4, [r3, #-1616]	; 0x650
   c:	6700324c 	strvs	r3, [r0, -ip, asr #4]
  10:	5f6f6970 	svcpl	0x006f6970
  14:	30726c63 	rsbscc	r6, r2, r3, ror #24
  18:	72726500 	rsbsvc	r6, r2, #0, 10
  1c:	5f73726f 	svcpl	0x0073726f
  20:	61746166 	cmnvs	r4, r6, ror #2
  24:	00705f6c 	rsbseq	r5, r0, ip, ror #30
  28:	4c435047 	mcrrmi	0, 4, r5, r3, cr7
  2c:	66003052 			; <UNDEFINED> instruction: 0x66003052
  30:	5f747361 	svcpl	0x00747361
  34:	6f697067 	svcvs	0x00697067
  38:	6972775f 	ldmdbvs	r2!, {r0, r1, r2, r3, r4, r6, r8, r9, sl, ip, sp, lr}^
  3c:	61006574 	tstvs	r0, r4, ror r5
  40:	745f6d72 	ldrbvc	r6, [pc], #-3442	; 48 <_start-0x7fb8>
  44:	72656d69 	rsbvc	r6, r5, #6720	; 0x1a40
  48:	5741525f 	smlsldpl	r5, r1, pc, r2	; <UNPREDICTABLE>
  4c:	00515249 	subseq	r5, r1, r9, asr #4
  50:	74726175 	ldrbtvc	r6, [r2], #-373	; 0x175
  54:	696e695f 	stmdbvs	lr!, {r0, r1, r2, r3, r4, r6, r8, fp, sp, lr}^
  58:	61680074 	smcvs	32772	; 0x8004
  5c:	645f666c 	ldrbvs	r6, [pc], #-1644	; 64 <_start-0x7f9c>
  60:	79616c65 	stmdbvc	r1!, {r0, r2, r5, r6, sl, fp, sp, lr}^
  64:	6e6f6c00 	cdpvs	12, 6, cr6, cr15, cr0, {0}
  68:	6f6c2067 	svcvs	0x006c2067
  6c:	7520676e 	strvc	r6, [r0, #-1902]!	; 0x76e
  70:	6769736e 	strbvs	r7, [r9, -lr, ror #6]!
  74:	2064656e 	rsbcs	r6, r4, lr, ror #10
  78:	00746e69 	rsbseq	r6, r4, r9, ror #28
  7c:	75625f63 	strbvc	r5, [r2, #-3939]!	; 0xf63
  80:	61660066 	cmnvs	r6, r6, rrx
  84:	675f7473 			; <UNDEFINED> instruction: 0x675f7473
  88:	5f6f6970 	svcpl	0x006f6970
  8c:	5f746573 	svcpl	0x00746573
  90:	63006e6f 	movwvs	r6, #3695	; 0xe6f
  94:	6d655f71 	stclvs	15, cr5, [r5, #-452]!	; 0xfffffe3c
  98:	00797470 	rsbseq	r7, r9, r0, ror r4
  9c:	676e6f6c 	strbvs	r6, [lr, -ip, ror #30]!
  a0:	6e6f6c20 	cdpvs	12, 6, cr6, cr15, cr0, {1}
  a4:	6e692067 	cdpvs	0, 6, cr2, cr9, cr7, {3}
  a8:	656e0074 	strbvs	r0, [lr, #-116]!	; 0x74
  ac:	746e6576 	strbtvc	r6, [lr], #-1398	; 0x576
  b0:	77730073 			; <UNDEFINED> instruction: 0x77730073
  b4:	7261755f 	rsbvc	r7, r1, #398458880	; 0x17c00000
  b8:	65675f74 	strbvs	r5, [r7, #-3956]!	; 0xf74
  bc:	61003874 	tstvs	r0, r4, ror r8
  c0:	745f6d72 	ldrbvc	r6, [pc], #-3442	; c8 <_start-0x7f38>
  c4:	72656d69 	rsbvc	r6, r5, #6720	; 0x1a40
  c8:	6e6f435f 	mcrvs	3, 3, r4, cr15, cr15, {2}
  cc:	6c6f7274 	sfmvs	f7, 2, [pc], #-464	; ffffff04 <__bss_end__+0xffff37ec>
  d0:	53504700 	cmppl	r0, #0, 14
  d4:	00315445 	eorseq	r5, r1, r5, asr #8
  d8:	5f6d7261 	svcpl	0x006d7261
  dc:	656d6974 	strbvs	r6, [sp, #-2420]!	; 0x974
  e0:	6f4c5f72 	svcvs	0x004c5f72
  e4:	61006461 	tstvs	r0, r1, ror #8
  e8:	745f6d72 	ldrbvc	r6, [pc], #-3442	; f0 <_start-0x7f10>
  ec:	72656d69 	rsbvc	r6, r5, #6720	; 0x1a40
  f0:	7361425f 	cmnvc	r1, #-268435451	; 0xf0000005
  f4:	65640065 	strbvs	r0, [r4, #-101]!	; 0x65
  f8:	61625f76 	smcvs	9718	; 0x25f6
  fc:	65697272 	strbvs	r7, [r9, #-626]!	; 0x272
 100:	50470072 	subpl	r0, r7, r2, ror r0
 104:	3056454c 	subscc	r4, r6, ip, asr #10
 108:	4c504700 	mrrcmi	7, 0, r4, r0, cr0
 10c:	00315645 	eorseq	r5, r1, r5, asr #12
 110:	6d746f6e 	ldclvs	15, cr6, [r4, #-440]!	; 0xfffffe48
 114:	006e6961 	rsbeq	r6, lr, r1, ror #18
 118:	74736166 	ldrbtvc	r6, [r3], #-358	; 0x166
 11c:	6970675f 	ldmdbvs	r0!, {r0, r1, r2, r3, r4, r6, r8, r9, sl, sp, lr}^
 120:	65735f6f 	ldrbvs	r5, [r3, #-3951]!	; 0xf6f
 124:	666f5f74 	uqsub16vs	r5, pc, r4	; <UNPREDICTABLE>
 128:	65740066 	ldrbvs	r0, [r4, #-102]!	; 0x66
 12c:	6100706d 	tstvs	r0, sp, rrx
 130:	745f6d72 	ldrbvc	r6, [pc], #-3442	; 138 <_start-0x7ec8>
 134:	72656d69 	rsbvc	r6, r5, #6720	; 0x1a40
 138:	73614d5f 	cmnvc	r1, #6080	; 0x17c0
 13c:	4964656b 	stmdbmi	r4!, {r0, r1, r3, r5, r6, r8, sl, sp, lr}^
 140:	73005152 	movwvc	r5, #338	; 0x152
 144:	61755f77 	cmnvs	r5, r7, ror pc
 148:	705f7472 	subsvc	r7, pc, r2, ror r4	; <UNPREDICTABLE>
 14c:	00387475 	eorseq	r7, r8, r5, ror r4
 150:	5f697072 	svcpl	0x00697072
 154:	65736572 	ldrbvs	r6, [r3, #-1394]!	; 0x572
 158:	75705f74 	ldrbvc	r5, [r0, #-3956]!	; 0xf74
 15c:	47006374 	smlsdxmi	r0, r4, r3, r6
 160:	45534650 	ldrbmi	r4, [r3, #-1616]	; 0x650
 164:	4700304c 	strmi	r3, [r0, -ip, asr #32]
 168:	45534650 	ldrbmi	r4, [r3, #-1616]	; 0x650
 16c:	4700314c 	strmi	r3, [r0, -ip, asr #2]
 170:	45534650 	ldrbmi	r4, [r3, #-1616]	; 0x650
 174:	4700334c 	strmi	r3, [r0, -ip, asr #6]
 178:	45534650 	ldrbmi	r4, [r3, #-1616]	; 0x650
 17c:	4700344c 	strmi	r3, [r0, -ip, asr #8]
 180:	45534650 	ldrbmi	r4, [r3, #-1616]	; 0x650
 184:	6300354c 	movwvs	r3, #1356	; 0x54c
 188:	5f727275 	svcpl	0x00727275
 18c:	756c6176 	strbvc	r6, [ip, #-374]!	; 0x176
 190:	70670065 	rsbvc	r0, r7, r5, rrx
 194:	655f6f69 	ldrbvs	r6, [pc, #-3945]	; fffff233 <__bss_end__+0xffff2b1b>
 198:	746e6576 	strbtvc	r6, [lr], #-1398	; 0x576
 19c:	656c635f 	strbvs	r6, [ip, #-863]!	; 0x35f
 1a0:	5f007261 	svcpl	0x00007261
 1a4:	4e55465f 	mrcmi	6, 2, r4, cr5, cr15, {2}
 1a8:	4f495443 	svcmi	0x00495443
 1ac:	005f5f4e 	subseq	r5, pc, lr, asr #30
 1b0:	6e5f7163 	rdfvsez	f7, f7, f3
 1b4:	6d656c65 	stclvs	12, cr6, [r5, #-404]!	; 0xfffffe6c
 1b8:	6f687300 	svcvs	0x00687300
 1bc:	75207472 	strvc	r7, [r0, #-1138]!	; 0x472
 1c0:	6769736e 	strbvs	r7, [r9, -lr, ror #6]!
 1c4:	2064656e 	rsbcs	r6, r4, lr, ror #10
 1c8:	00746e69 	rsbseq	r6, r4, r9, ror #28
 1cc:	51747570 	cmnpl	r4, r0, ror r5
 1d0:	73552f00 	cmpvc	r5, #0, 30
 1d4:	2f737265 	svccs	0x00737265
 1d8:	61697262 	cmnvs	r9, r2, ror #4
 1dc:	6e756a6e 	vsubvs.f32	s13, s10, s29
 1e0:	7365442f 	cmnvc	r5, #788529152	; 0x2f000000
 1e4:	706f746b 	rsbvc	r7, pc, fp, ror #8
 1e8:	6863732f 	stmdavs	r3!, {r0, r1, r2, r3, r5, r8, r9, ip, sp, lr}^
 1ec:	2f6c6f6f 	svccs	0x006c6f6f
 1f0:	69727053 	ldmdbvs	r2!, {r0, r1, r4, r6, ip, sp, lr}^
 1f4:	3931676e 	ldmdbcc	r1!, {r1, r2, r3, r5, r6, r8, r9, sl, sp, lr}
 1f8:	432f3032 	teqmi	pc, #50	; 0x32
 1fc:	30343253 	eorscc	r3, r4, r3, asr r2
 200:	632f584c 	teqvs	pc, #76, 16	; 0x4c0000
 204:	30343273 	eorscc	r3, r4, r3, ror r2
 208:	322d786c 	eorcc	r7, sp, #108, 16	; 0x6c0000
 20c:	72707330 	rsbsvc	r7, r0, #48, 6	; 0xc0000000
 210:	62616c2f 	rsbvs	r6, r1, #12032	; 0x2f00
 214:	2d342f73 	ldccs	15, cr2, [r4, #-460]!	; 0xfffffe34
 218:	65746e69 	ldrbvs	r6, [r4, #-3689]!	; 0xe69
 21c:	70757272 	rsbsvc	r7, r5, r2, ror r2
 220:	77732d74 			; <UNDEFINED> instruction: 0x77732d74
 224:	7261752d 	rsbvc	r7, r1, #188743680	; 0xb400000
 228:	65732f74 	ldrbvs	r2, [r3, #-3956]!	; 0xf74
 22c:	72657672 	rsbvc	r7, r5, #119537664	; 0x7200000
 230:	69706700 	ldmdbvs	r0!, {r8, r9, sl, sp, lr}^
 234:	73665f6f 	cmnvc	r6, #444	; 0x1bc
 238:	00306c65 	eorseq	r6, r0, r5, ror #24
 23c:	4c435047 	mcrrmi	0, 4, r5, r3, cr7
 240:	63003152 	movwvs	r3, #338	; 0x152
 244:	6e61656c 	cdpvs	5, 6, cr6, cr1, cr12, {3}
 248:	6265725f 	rsbvs	r7, r5, #-268435451	; 0xf0000005
 24c:	00746f6f 	rsbseq	r6, r4, pc, ror #30
 250:	6c696174 	stfvse	f6, [r9], #-464	; 0xfffffe30
 254:	7a697300 	bvc	1a5ce5c <__bss_end__+0x1a50744>
 258:	70797465 	rsbsvc	r7, r9, r5, ror #8
 25c:	71630065 	cmnvc	r3, r5, rrx
 260:	706f705f 	rsbvc	r7, pc, pc, asr r0	; <UNPREDICTABLE>
 264:	6e6f6e5f 	mcrvs	14, 3, r6, cr15, cr15, {2}
 268:	636f6c62 	cmnvs	pc, #25088	; 0x6200
 26c:	7261006b 	rsbvc	r0, r1, #107	; 0x6b
 270:	69745f6d 	ldmdbvs	r4!, {r0, r2, r3, r5, r6, r8, r9, sl, fp, ip, lr}^
 274:	5f72656d 	svcpl	0x0072656d
 278:	6f6c6552 	svcvs	0x006c6552
 27c:	63006461 	movwvs	r6, #1121	; 0x461
 280:	6e695f71 	mcrvs	15, 3, r5, cr9, cr1, {3}
 284:	63007469 	movwvs	r7, #1129	; 0x469
 288:	656c6379 	strbvs	r6, [ip, #-889]!	; 0x379
 28c:	756f635f 	strbvc	r6, [pc, #-863]!	; ffffff35 <__bss_end__+0xffff381d>
 290:	7265746e 	rsbvc	r7, r5, #1845493760	; 0x6e000000
 294:	746e6900 	strbtvc	r6, [lr], #-2304	; 0x900
 298:	696e695f 	stmdbvs	lr!, {r0, r1, r2, r3, r4, r6, r8, fp, sp, lr}^
 29c:	6f5f0074 	svcvs	0x005f0074
 2a0:	73007475 	movwvc	r7, #1141	; 0x475
 2a4:	65747379 	ldrbvs	r7, [r4, #-889]!	; 0x379
 2a8:	6e655f6d 	cdpvs	15, 6, cr5, cr5, cr13, {3}
 2ac:	656c6261 	strbvs	r6, [ip, #-609]!	; 0x261
 2b0:	746e695f 	strbtvc	r6, [lr], #-2399	; 0x95f
 2b4:	75727265 	ldrbvc	r7, [r2, #-613]!	; 0x265
 2b8:	00737470 	rsbseq	r7, r3, r0, ror r4
 2bc:	775f7369 	ldrbvc	r7, [pc, -r9, ror #6]
 2c0:	69746972 	ldmdbvs	r4!, {r1, r4, r5, r6, r8, fp, sp, lr}^
 2c4:	7500676e 	strvc	r6, [r0, #-1902]	; 0x76e
 2c8:	00747261 	rsbseq	r7, r4, r1, ror #4
 2cc:	735f796d 	cmpvc	pc, #1785856	; 0x1b4000
 2d0:	61755f77 	cmnvs	r5, r7, ror pc
 2d4:	745f7472 	ldrbvc	r7, [pc], #-1138	; 2dc <_start-0x7d24>
 2d8:	736e7500 	cmnvc	lr, #0, 10
 2dc:	656e6769 	strbvs	r6, [lr, #-1897]!	; 0x769
 2e0:	68632064 	stmdavs	r3!, {r2, r5, r6, sp}^
 2e4:	47007261 	strmi	r7, [r0, -r1, ror #4]
 2e8:	54455350 	strbpl	r5, [r5], #-848	; 0x350
 2ec:	68730030 	ldmdavs	r3!, {r4, r5}^
 2f0:	2074726f 	rsbscs	r7, r4, pc, ror #4
 2f4:	00746e69 	rsbseq	r6, r4, r9, ror #28
 2f8:	705f7163 	subsvc	r7, pc, r3, ror #2
 2fc:	6300706f 	movwvs	r7, #111	; 0x6f
 300:	745f6571 	ldrbvc	r6, [pc], #-1393	; 308 <_start-0x7cf8>
 304:	61656800 	cmnvs	r5, r0, lsl #16
 308:	65640064 	strbvs	r0, [r4, #-100]!	; 0x64
 30c:	5f79616c 	svcpl	0x0079616c
 310:	6300736d 	movwvs	r7, #877	; 0x36d
 314:	656c6379 	strbvs	r6, [ip, #-889]!	; 0x379
 318:	65705f73 	ldrbvs	r5, [r0, #-3955]!	; 0xf73
 31c:	65735f72 	ldrbvs	r5, [r3, #-3954]!	; 0xf72
 320:	61620063 	cmnvs	r2, r3, rrx
 324:	67006475 	smlsdxvs	r0, r5, r4, r6
 328:	5f6f6970 	svcpl	0x006f6970
 32c:	30746573 	rsbscc	r6, r4, r3, ror r5
 330:	72696600 	rsbvc	r6, r9, #0, 12
 334:	6e007473 	mcrvs	4, 0, r7, cr0, cr3, {3}
 338:	7369725f 	cmnvc	r9, #-268435451	; 0xf0000005
 33c:	5f676e69 	svcpl	0x00676e69
 340:	65676465 	strbvs	r6, [r7, #-1125]!	; 0x465
 344:	554e4700 	strbpl	r4, [lr, #-1792]	; 0x700
 348:	34204320 	strtcc	r4, [r0], #-800	; 0x320
 34c:	332e382e 	teqcc	lr, #3014656	; 0x2e0000
 350:	636d2d20 	cmnvs	sp, #32, 26	; 0x800
 354:	613d7570 	teqvs	sp, r0, ror r5
 358:	31316d72 	teqcc	r1, r2, ror sp
 35c:	7a6a3637 	bvc	1a8dc40 <__bss_end__+0x1a81528>
 360:	20732d66 	rsbscs	r2, r3, r6, ror #26
 364:	75746d2d 	ldrbvc	r6, [r4, #-3373]!	; 0xd2d
 368:	613d656e 	teqvs	sp, lr, ror #10
 36c:	31316d72 	teqcc	r1, r2, ror sp
 370:	7a6a3637 	bvc	1a8dc54 <__bss_end__+0x1a8153c>
 374:	20732d66 	rsbscs	r2, r3, r6, ror #26
 378:	6467672d 	strbtvs	r6, [r7], #-1837	; 0x72d
 37c:	4f2d2062 	svcmi	0x002d2062
 380:	732d2067 	teqvc	sp, #103	; 0x67
 384:	673d6474 			; <UNDEFINED> instruction: 0x673d6474
 388:	3939756e 	ldmdbcc	r9!, {r1, r2, r3, r5, r6, r8, sl, ip, sp, lr}
 38c:	66662d20 	strbtvs	r2, [r6], -r0, lsr #26
 390:	73656572 	cmnvc	r5, #478150656	; 0x1c800000
 394:	646e6174 	strbtvs	r6, [lr], #-372	; 0x174
 398:	00676e69 	rsbeq	r6, r7, r9, ror #28
 39c:	636e6566 	cmnvs	lr, #427819008	; 0x19800000
 3a0:	70670065 	rsbvc	r0, r7, r5, rrx
 3a4:	735f6f69 	cmpvc	pc, #420	; 0x1a4
 3a8:	695f7465 	ldmdbvs	pc, {r0, r2, r5, r6, sl, ip, sp, lr}^	; <UNPREDICTABLE>
 3ac:	7475706e 	ldrbtvc	r7, [r5], #-110	; 0x6e
 3b0:	665f6e00 	ldrbvs	r6, [pc], -r0, lsl #28
 3b4:	696c6c61 	stmdbvs	ip!, {r0, r5, r6, sl, fp, sp, lr}^
 3b8:	655f676e 	ldrbvs	r6, [pc, #-1902]	; fffffc52 <__bss_end__+0xffff353a>
 3bc:	00656764 	rsbeq	r6, r5, r4, ror #14
 3c0:	7265766f 	rsbvc	r7, r5, #116391936	; 0x6f00000
 3c4:	776f6c66 	strbvc	r6, [pc, -r6, ror #24]!
 3c8:	73616c00 	cmnvc	r1, #0, 24
 3cc:	71630074 	smcvc	12292	; 0x3004
 3d0:	7375705f 	cmnvc	r5, #95	; 0x5f
 3d4:	2d320068 	ldccs	0, cr0, [r2, #-416]!	; 0xfffffe60
 3d8:	69676f6c 	stmdbvs	r7!, {r2, r3, r5, r6, r8, r9, sl, fp, sp, lr}^
 3dc:	6e612d63 	cdpvs	13, 6, cr2, cr1, cr3, {3}
 3e0:	7a796c61 	bvc	1e5b56c <__bss_end__+0x1e4ee54>
 3e4:	632e7265 	teqvs	lr, #1342177286	; 0x50000006
 3e8:	6d726100 	ldfvse	f6, [r2, #-0]
 3ec:	6d69745f 	cfstrdvs	mvd7, [r9, #-380]!	; 0xfffffe84
 3f0:	505f7265 	subspl	r7, pc, r5, ror #4
 3f4:	69446572 	stmdbvs	r4, {r1, r4, r5, r6, r8, sl, sp, lr}^
 3f8:	65646976 	strbvs	r6, [r4, #-2422]!	; 0x976
 3fc:	72610072 	rsbvc	r0, r1, #114	; 0x72
 400:	69745f6d 	ldmdbvs	r4!, {r0, r2, r3, r5, r6, r8, r9, sl, fp, ip, lr}^
 404:	5f72656d 	svcpl	0x0072656d
 408:	756c6156 	strbvc	r6, [ip, #-342]!	; 0x156
 40c:	72610065 	rsbvc	r0, r1, #101	; 0x65
 410:	69745f6d 	ldmdbvs	r4!, {r0, r2, r3, r5, r6, r8, r9, sl, fp, ip, lr}^
 414:	5f72656d 	svcpl	0x0072656d
 418:	43515249 	cmpmi	r1, #-1879048188	; 0x90000004
 41c:	7261656c 	rsbvc	r6, r1, #108, 10	; 0x1b000000
 420:	6d656d00 	stclvs	13, cr6, [r5, #-0]
 424:	00746573 	rsbseq	r6, r4, r3, ror r5
 428:	6f697067 	svcvs	0x00697067
 42c:	7465735f 	strbtvc	r7, [r5], #-863	; 0x35f
 430:	74756f5f 	ldrbtvc	r6, [r5], #-3935	; 0xf5f
 434:	00747570 	rsbseq	r7, r4, r0, ror r5
 438:	745f7163 	ldrbvc	r7, [pc], #-355	; 440 <_start-0x7bc0>
 43c:	616e6500 	cmnvs	lr, r0, lsl #10
 440:	5f656c62 	svcpl	0x00656c62
 444:	68636163 	stmdavs	r3!, {r0, r1, r5, r6, r8, sp, lr}^
 448:	70720065 	rsbsvc	r0, r2, r5, rrx
 44c:	72615f69 	rsbvc	r5, r1, #420	; 0x1a4
 450:	69745f6d 	ldmdbvs	r4!, {r0, r2, r3, r5, r6, r8, r9, sl, fp, ip, lr}^
 454:	5f72656d 	svcpl	0x0072656d
 458:	69750074 	ldmdbvs	r5!, {r2, r4, r5, r6}^
 45c:	5f38746e 	svcpl	0x0038746e
 460:	70670074 	rsbvc	r0, r7, r4, ror r0
 464:	695f6f69 	ldmdbvs	pc, {r0, r3, r5, r6, r8, r9, sl, fp, sp, lr}^	; <UNPREDICTABLE>
 468:	665f746e 	ldrbvs	r7, [pc], -lr, ror #8
 46c:	696c6c61 	stmdbvs	ip!, {r0, r5, r6, sl, fp, sp, lr}^
 470:	655f676e 	ldrbvs	r6, [pc, #-1902]	; fffffd0a <__bss_end__+0xffff35f2>
 474:	00656764 	rsbeq	r6, r5, r4, ror #14
 478:	6c637963 	stclvs	9, cr7, [r3], #-396	; 0xfffffe74
 47c:	65705f65 	ldrbvs	r5, [r0, #-3941]!	; 0xf65
 480:	69625f72 	stmdbvs	r2!, {r1, r4, r5, r6, r8, r9, sl, fp, ip, lr}^
 484:	79730074 	ldmdbvc	r3!, {r2, r4, r5, r6}^
 488:	6d657473 	cfstrdvs	mvd7, [r5, #-460]!	; 0xfffffe34
 48c:	7369645f 	cmnvc	r9, #1593835520	; 0x5f000000
 490:	656c6261 	strbvs	r6, [ip, #-609]!	; 0x261
 494:	746e695f 	strbtvc	r6, [lr], #-2399	; 0x95f
 498:	75727265 	ldrbvc	r7, [r2, #-613]!	; 0x265
 49c:	00737470 	rsbseq	r7, r3, r0, ror r4
 4a0:	665f7163 	ldrbvs	r7, [pc], -r3, ror #2
 4a4:	006c6c75 	rsbeq	r6, ip, r5, ror ip
 4a8:	5f6d7261 	svcpl	0x006d7261
 4ac:	656d6974 	strbvs	r6, [sp, #-2420]!	; 0x974
 4b0:	72465f72 	subvc	r5, r6, #456	; 0x1c8
 4b4:	75526565 	ldrbvc	r6, [r2, #-1381]	; 0x565
 4b8:	6e696e6e 	cdpvs	14, 6, cr6, cr9, cr14, {3}
 4bc:	756f4367 	strbvc	r4, [pc, #-871]!	; 15d <_start-0x7ea3>
 4c0:	7265746e 	rsbvc	r7, r5, #1845493760	; 0x6e000000
 4c4:	62696c00 	rsbvs	r6, r9, #0, 24
 4c8:	656d2f63 	strbvs	r2, [sp, #-3939]!	; 0xf63
 4cc:	7465736d 	strbtvc	r7, [r5], #-877	; 0x36d
 4d0:	2f00632e 	svccs	0x0000632e
 4d4:	72657355 	rsbvc	r7, r5, #1409286145	; 0x54000001
 4d8:	72622f73 	rsbvc	r2, r2, #460	; 0x1cc
 4dc:	6a6e6169 	bvs	1b98a88 <__bss_end__+0x1b8c370>
 4e0:	442f6e75 	strtmi	r6, [pc], #-3701	; 4e8 <_start-0x7b18>
 4e4:	746b7365 	strbtvc	r7, [fp], #-869	; 0x365
 4e8:	732f706f 	teqvc	pc, #111	; 0x6f
 4ec:	6f6f6863 	svcvs	0x006f6863
 4f0:	69572f6c 	ldmdbvs	r7, {r2, r3, r5, r6, r8, r9, sl, fp, sp}^
 4f4:	7265746e 	rsbvc	r7, r5, #1845493760	; 0x6e000000
 4f8:	30323931 	eorscc	r3, r2, r1, lsr r9
 4fc:	3153432f 	cmpcc	r3, pc, lsr #6
 500:	2f453034 	svccs	0x00453034
 504:	34317363 	ldrtcc	r7, [r1], #-867	; 0x363
 508:	322d6530 	eorcc	r6, sp, #48, 10	; 0xc000000
 50c:	6e697730 	mcrvs	7, 3, r7, cr9, cr0, {1}
 510:	62696c2f 	rsbvs	r6, r9, #12032	; 0x2f00
 514:	5f006970 	svcpl	0x00006970
 518:	756e675f 	strbvc	r6, [lr, #-1887]!	; 0x75f
 51c:	61765f63 	cmnvs	r6, r3, ror #30
 520:	73696c5f 	cmnvc	r9, #24320	; 0x5f00
 524:	696c0074 	stmdbvs	ip!, {r2, r4, r5, r6}^
 528:	702f6362 	eorvc	r6, pc, r2, ror #6
 52c:	746e6972 	strbtvc	r6, [lr], #-2418	; 0x972
 530:	00632e6b 	rsbeq	r2, r3, fp, ror #28
 534:	705f6176 	subsvc	r6, pc, r6, ror r1	; <UNPREDICTABLE>
 538:	746e6972 	strbtvc	r6, [lr], #-2418	; 0x972
 53c:	5f5f006b 	svcpl	0x005f006b
 540:	6c5f6176 	ldfvse	f6, [pc], {118}	; 0x76
 544:	00747369 	rsbseq	r7, r4, r9, ror #6
 548:	73677261 	cmnvc	r7, #268435462	; 0x10000006
 54c:	615f5f00 	cmpvs	pc, r0, lsl #30
 550:	61750070 	cmnvs	r5, r0, ror r0
 554:	705f7472 	subsvc	r7, pc, r2, ror r4	; <UNPREDICTABLE>
 558:	00637475 	rsbeq	r7, r3, r5, ror r4
 55c:	65746e69 	ldrbvs	r6, [r4, #-3689]!	; 0xe69
 560:	6c616e72 	stclvs	14, cr6, [r1], #-456	; 0xfffffe38
 564:	7475705f 	ldrbtvc	r7, [r5], #-95	; 0x5f
 568:	72616863 	rsbvc	r6, r1, #6488064	; 0x630000
 56c:	69707200 	ldmdbvs	r0!, {r9, ip, sp, lr}^
 570:	7475705f 	ldrbtvc	r7, [r5], #-95	; 0x5f
 574:	72616863 	rsbvc	r6, r1, #6488064	; 0x630000
 578:	62696c00 	rsbvs	r6, r9, #0, 24
 57c:	75702f63 	ldrbvc	r2, [r0, #-3939]!	; 0xf63
 580:	61686374 	smcvs	34356	; 0x8634
 584:	00632e72 	rsbeq	r2, r3, r2, ror lr
 588:	5f697072 	svcpl	0x00697072
 58c:	5f746573 	svcpl	0x00746573
 590:	63747570 	cmnvs	r4, #112, 10	; 0x1c000000
 594:	62696c00 	rsbvs	r6, r9, #0, 24
 598:	75702f63 	ldrbvc	r2, [r0, #-3939]!	; 0xf63
 59c:	632e6b74 	teqvs	lr, #116, 22	; 0x1d000
 5a0:	746e6900 	strbtvc	r6, [lr], #-2304	; 0x900
 5a4:	616e7265 	cmnvs	lr, r5, ror #4
 5a8:	75705f6c 	ldrbvc	r5, [r0, #-3948]!	; 0xf6c
 5ac:	6e006b74 	vmovvs.16	d0[1], r6
 5b0:	705f6765 	subsvc	r6, pc, r5, ror #14
 5b4:	76657200 	strbtvc	r7, [r5], -r0, lsl #4
 5b8:	65737265 	ldrbvs	r7, [r3, #-613]!	; 0x265
 5bc:	64736900 	ldrbtvs	r6, [r3], #-2304	; 0x900
 5c0:	74696769 	strbtvc	r6, [r9], #-1897	; 0x769
 5c4:	74757000 	ldrbtvc	r7, [r5], #-0
 5c8:	70665f73 	rsbvc	r5, r6, r3, ror pc
 5cc:	73616200 	cmnvc	r1, #0, 4
 5d0:	69730065 	ldmdbvs	r3!, {r0, r2, r5, r6}^
 5d4:	64656e67 	strbtvs	r6, [r5], #-3687	; 0xe67
 5d8:	6c00705f 	stcvs	0, cr7, [r0], {95}	; 0x5f
 5dc:	2f636269 	svccs	0x00636269
 5e0:	702d6176 	eorvc	r6, sp, r6, ror r1
 5e4:	746e6972 	strbtvc	r6, [lr], #-2418	; 0x972
 5e8:	00632e6b 	rsbeq	r2, r3, fp, ror #28
 5ec:	5f697072 	svcpl	0x00697072
 5f0:	5f746573 	svcpl	0x00746573
 5f4:	7074756f 	rsbsvc	r7, r4, pc, ror #10
 5f8:	77007475 	smlsdxvc	r0, r5, r4, r7
 5fc:	68746469 	ldmdavs	r4!, {r0, r3, r5, r6, sl, sp, lr}^
 600:	74757000 	ldrbtvc	r7, [r5], #-0
 604:	70665f63 	rsbvc	r5, r6, r3, ror #30
 608:	696d6500 	stmdbvs	sp!, {r8, sl, sp, lr}^
 60c:	69640074 	stmdbvs	r4!, {r2, r4, r5, r6}^
 610:	6c626173 	stfvse	f6, [r2], #-460	; 0xfffffe34
 614:	61635f65 	cmnvs	r3, r5, ror #30
 618:	00656863 	rsbeq	r6, r5, r3, ror #16
 61c:	34317363 	ldrtcc	r7, [r1], #-867	; 0x363
 620:	732d6530 	teqvc	sp, #48, 10	; 0xc000000
 624:	632f6372 	teqvs	pc, #-939524095	; 0xc8000001
 628:	65686361 	strbvs	r6, [r8, #-865]!	; 0x361
 62c:	7200632e 	andvc	r6, r0, #-1207959552	; 0xb8000000
 630:	725f6970 	subsvc	r6, pc, #112, 18	; 0x1c0000
 634:	6f6f6265 	svcvs	0x006f6265
 638:	73630074 	cmnvc	r3, #116	; 0x74
 63c:	65303431 	ldrvs	r3, [r0, #-1073]!	; 0x431
 640:	6372732d 	cmnvs	r2, #-1275068416	; 0xb4000000
 644:	656c632f 	strbvs	r6, [ip, #-815]!	; 0x32f
 648:	722d6e61 	eorvc	r6, sp, #1552	; 0x610
 64c:	6f6f6265 	svcvs	0x006f6265
 650:	00632e74 	rsbeq	r2, r3, r4, ror lr
 654:	34317363 	ldrtcc	r7, [r1], #-867	; 0x363
 658:	732d6530 	teqvc	sp, #48, 10	; 0xc000000
 65c:	632f6372 	teqvs	pc, #-939524095	; 0xc8000001
 660:	72617473 	rsbvc	r7, r1, #1929379840	; 0x73000000
 664:	00632e74 	rsbeq	r2, r3, r4, ror lr
 668:	73625f5f 	cmnvc	r2, #380	; 0x17c
 66c:	74735f73 	ldrbtvc	r5, [r3], #-3955	; 0xf73
 670:	5f747261 	svcpl	0x00747261
 674:	5f5f005f 	svcpl	0x005f005f
 678:	5f737362 	svcpl	0x00737362
 67c:	5f646e65 	svcpl	0x00646e65
 680:	7362005f 	cmnvc	r2, #95	; 0x5f
 684:	6e655f73 	mcrvs	15, 3, r5, cr5, cr3, {3}
 688:	635f0064 	cmpvs	pc, #100	; 0x64
 68c:	72617473 	rsbvc	r7, r1, #1929379840	; 0x73000000
 690:	74610074 	strbtvc	r0, [r1], #-116	; 0x74
 694:	6573755f 	ldrbvs	r7, [r3, #-1375]!	; 0x55f
 698:	656c5f72 	strbvs	r5, [ip, #-3954]!	; 0xf72
 69c:	006c6576 	rsbeq	r6, ip, r6, ror r5
 6a0:	505f4d50 	subspl	r4, pc, r0, asr sp	; <UNPREDICTABLE>
 6a4:	57535341 	ldrbpl	r5, [r3, -r1, asr #6]
 6a8:	0044524f 	subeq	r5, r4, pc, asr #4
 6ac:	34317363 	ldrtcc	r7, [r1], #-867	; 0x363
 6b0:	732d6530 	teqvc	sp, #48, 10	; 0xc000000
 6b4:	722f6372 	eorvc	r6, pc, #-939524095	; 0xc8000001
 6b8:	6f6f6265 	svcvs	0x006f6265
 6bc:	00632e74 	rsbeq	r2, r3, r4, ror lr
 6c0:	525f4d50 	subspl	r4, pc, #80, 26	; 0x1400
 6c4:	5f435453 	svcpl	0x00435453
 6c8:	46435257 			; <UNDEFINED> instruction: 0x46435257
 6cc:	55465f47 	strbpl	r5, [r6, #-3911]	; 0xf47
 6d0:	525f4c4c 	subspl	r4, pc, #76, 24	; 0x4c00
 6d4:	54455345 	strbpl	r5, [r5], #-837	; 0x345
 6d8:	5f4d5000 	svcpl	0x004d5000
 6dc:	474f4457 	smlsldmi	r4, pc, r7, r4	; <UNPREDICTABLE>
 6e0:	74657300 	strbtvc	r7, [r5], #-768	; 0x300
 6e4:	6573755f 	ldrbvs	r7, [r3, #-1375]!	; 0x55f
 6e8:	656c5f72 	strbvs	r5, [ip, #-3954]!	; 0xf72
 6ec:	006c6576 	rsbeq	r6, ip, r6, ror r5
 6f0:	33545550 	cmpcc	r4, #80, 10	; 0x14000000
 6f4:	4d500032 	ldclmi	0, cr0, [r0, #-200]	; 0xffffff38
 6f8:	5453525f 	ldrbpl	r5, [r3], #-607	; 0x25f
 6fc:	70630043 	rsbvc	r0, r3, r3, asr #32
 700:	74007273 	strvc	r7, [r0], #-627	; 0x273
 704:	72656d69 	rsbvc	r6, r5, #6720	; 0x1a40
 708:	7465675f 	strbtvc	r6, [r5], #-1887	; 0x75f
 70c:	6573755f 	ldrbvs	r7, [r3, #-1375]!	; 0x55f
 710:	61725f63 	cmnvs	r2, r3, ror #30
 714:	65640077 	strbvs	r0, [r4, #-119]!	; 0x77
 718:	5f79616c 	svcpl	0x0079616c
 71c:	00636573 	rsbeq	r6, r3, r3, ror r5
 720:	34317363 	ldrtcc	r7, [r1], #-867	; 0x363
 724:	732d6530 	teqvc	sp, #48, 10	; 0xc000000
 728:	742f6372 	strtvc	r6, [pc], #-882	; 730 <_start-0x78d0>
 72c:	72656d69 	rsbvc	r6, r5, #6720	; 0x1a40
 730:	4700632e 	strmi	r6, [r0, -lr, lsr #6]
 734:	32335445 	eorscc	r5, r3, #1157627904	; 0x45000000
 738:	63697400 	cmnvs	r9, #0, 8
 73c:	6400736b 	strvs	r7, [r0], #-875	; 0x36b
 740:	79616c65 	stmdbvc	r1!, {r0, r2, r5, r6, sl, fp, sp, lr}^
 744:	6379635f 	cmnvs	r9, #2080374785	; 0x7c000001
 748:	0073656c 	rsbseq	r6, r3, ip, ror #10
 74c:	616c6564 	cmnvs	ip, r4, ror #10
 750:	73755f79 	cmnvc	r5, #484	; 0x1e4
 754:	6d697400 	cfstrdvs	mvd7, [r9, #-0]
 758:	675f7265 	ldrbvs	r7, [pc, -r5, ror #4]
 75c:	755f7465 	ldrbvc	r7, [pc, #-1125]	; 2ff <_start-0x7d01>
 760:	00636573 	rsbeq	r6, r3, r3, ror r5
 764:	6f697067 	svcvs	0x00697067
 768:	6576655f 	ldrbvs	r6, [r6, #-1375]!	; 0x55f
 76c:	645f746e 	ldrbvs	r7, [pc], #-1134	; 774 <_start-0x788c>
 770:	63657465 	cmnvs	r5, #1694498816	; 0x65000000
 774:	00646574 	rsbeq	r6, r4, r4, ror r5
 778:	33747570 	cmncc	r4, #112, 10	; 0x1c000000
 77c:	4e450032 	mcrmi	0, 2, r0, cr5, cr2, {1}
 780:	454c4241 	strbmi	r4, [ip, #-577]	; 0x241
 784:	5152495f 	cmppl	r2, pc, asr r9
 788:	00325f53 	eorseq	r5, r2, r3, asr pc
 78c:	675f7369 	ldrbvs	r7, [pc, -r9, ror #6]
 790:	5f6f6970 	svcpl	0x006f6970
 794:	00746e69 	rsbseq	r6, r4, r9, ror #28
 798:	4f495047 	svcmi	0x00495047
 79c:	4e55465f 	mrcmi	6, 2, r4, cr5, cr15, {2}
 7a0:	4e495f43 	cdpmi	15, 4, cr5, cr9, cr3, {2}
 7a4:	00545550 	subseq	r5, r4, r0, asr r5
 7a8:	732d796d 	teqvc	sp, #1785856	; 0x1b4000
 7ac:	672f6372 			; <UNDEFINED> instruction: 0x672f6372
 7b0:	2e6f6970 	mcrcs	9, 3, r6, cr15, cr0, {3}
 7b4:	6e690063 	cdpvs	0, 6, cr0, cr9, cr3, {3}
 7b8:	616d5f74 	smcvs	54772	; 0xd5f4
 7bc:	72006b73 	andvc	r6, r0, #117760	; 0x1cc00
 7c0:	735f6765 	cmpvc	pc, #26476544	; 0x1940000
 7c4:	00746174 	rsbseq	r6, r4, r4, ror r1
 7c8:	6f697067 	svcvs	0x00697067
 7cc:	6765725f 			; <UNDEFINED> instruction: 0x6765725f
 7d0:	69706700 	ldmdbvs	r0!, {r8, r9, sl, sp, lr}^
 7d4:	65725f6f 	ldrbvs	r5, [r2, #-3951]!	; 0xf6f
 7d8:	67006461 	strvs	r6, [r0, -r1, ror #8]
 7dc:	5f6f6970 	svcpl	0x006f6970
 7e0:	5f746e69 	svcpl	0x00746e69
 7e4:	69736972 	ldmdbvs	r3!, {r1, r4, r5, r6, r8, fp, sp, lr}^
 7e8:	655f676e 	ldrbvs	r6, [pc, #-1902]	; 82 <_start-0x7f7e>
 7ec:	00656764 	rsbeq	r6, r5, r4, ror #14
 7f0:	6f697067 	svcvs	0x00697067
 7f4:	7465735f 	strbtvc	r7, [r5], #-863	; 0x35f
 7f8:	6e75665f 	mrcvs	6, 3, r6, cr5, cr15, {2}
 7fc:	6f697463 	svcvs	0x00697463
 800:	5047006e 	subpl	r0, r7, lr, rrx
 804:	304e4552 	subcc	r4, lr, r2, asr r5
 808:	52504700 	subspl	r4, r0, #0, 14
 80c:	00314e45 	eorseq	r4, r1, r5, asr #28
 810:	5f515249 	svcpl	0x00515249
 814:	444e4550 	strbmi	r4, [lr], #-1360	; 0x550
 818:	5f474e49 	svcpl	0x00474e49
 81c:	52490031 	subpl	r0, r9, #49	; 0x31
 820:	45505f51 	ldrbmi	r5, [r0, #-3921]	; 0xf51
 824:	4e49444e 	cdpmi	4, 4, cr4, cr9, cr14, {2}
 828:	00325f47 	eorseq	r5, r2, r7, asr #30
 82c:	6d746962 	ldclvs	9, cr6, [r4, #-392]!	; 0xfffffe78
 830:	006b7361 	rsbeq	r7, fp, r1, ror #6
 834:	636e7566 	cmnvs	lr, #427819008	; 0x19800000
 838:	69706700 	ldmdbvs	r0!, {r8, r9, sl, sp, lr}^
 83c:	6f745f6f 	svcvs	0x00745f6f
 840:	656c6767 	strbvs	r6, [ip, #-1895]!	; 0x767
 844:	45504700 	ldrbmi	r4, [r0, #-1792]	; 0x700
 848:	00305344 	eorseq	r5, r0, r4, asr #6
 84c:	44455047 	strbmi	r5, [r5], #-71	; 0x47
 850:	47003153 	smlsdmi	r0, r3, r1, r3
 854:	4e454650 	mcrmi	6, 2, r4, cr5, cr0, {2}
 858:	50470030 	subpl	r0, r7, r0, lsr r0
 85c:	314e4546 	cmpcc	lr, r6, asr #10
 860:	49504700 	ldmdbmi	r0, {r8, r9, sl, lr}^
 864:	55465f4f 	strbpl	r5, [r6, #-3919]	; 0xf4f
 868:	4f5f434e 	svcmi	0x005f434e
 86c:	55505455 	ldrbpl	r5, [r0, #-1109]	; 0x455
 870:	65670054 	strbvs	r0, [r7, #-84]!	; 0x54
 874:	00323374 	eorseq	r3, r2, r4, ror r3
 878:	6f697067 	svcvs	0x00697067
 87c:	6e75665f 	mrcvs	6, 3, r6, cr5, cr15, {2}
 880:	00745f63 	rsbseq	r5, r4, r3, ror #30
 884:	4f495047 	svcmi	0x00495047
 888:	4e55465f 	mrcmi	6, 2, r4, cr5, cr15, {2}
 88c:	4c415f43 	mcrrmi	15, 4, r5, r1, cr3
 890:	47003054 	smlsdmi	r0, r4, r0, r3
 894:	5f4f4950 	svcpl	0x004f4950
 898:	434e5546 	movtmi	r5, #58694	; 0xe546
 89c:	544c415f 	strbpl	r4, [ip], #-351	; 0x15f
 8a0:	50470031 	subpl	r0, r7, r1, lsr r0
 8a4:	465f4f49 	ldrbmi	r4, [pc], -r9, asr #30
 8a8:	5f434e55 	svcpl	0x00434e55
 8ac:	32544c41 	subscc	r4, r4, #16640	; 0x4100
 8b0:	49504700 	ldmdbmi	r0, {r8, r9, sl, lr}^
 8b4:	55465f4f 	strbpl	r5, [r6, #-3919]	; 0xf4f
 8b8:	415f434e 	cmpmi	pc, lr, asr #6
 8bc:	0033544c 	eorseq	r5, r3, ip, asr #8
 8c0:	4f495047 	svcmi	0x00495047
 8c4:	4e55465f 	mrcmi	6, 2, r4, cr5, cr15, {2}
 8c8:	4c415f43 	mcrrmi	15, 4, r5, r1, cr3
 8cc:	47003454 	smlsdmi	r0, r4, r4, r3
 8d0:	5f4f4950 	svcpl	0x004f4950
 8d4:	434e5546 	movtmi	r5, #58694	; 0xe546
 8d8:	544c415f 	strbpl	r4, [ip], #-351	; 0x15f
 8dc:	65720035 	ldrbvs	r0, [r2, #-53]!	; 0x35
 8e0:	65735f67 	ldrbvs	r5, [r3, #-3943]!	; 0xf67
 8e4:	7463656c 	strbtvc	r6, [r3], #-1388	; 0x56c
 8e8:	58554100 	ldmdapl	r5, {r8, lr}^
 8ec:	5f554d5f 	svcpl	0x00554d5f
 8f0:	5f52434d 	svcpl	0x0052434d
 8f4:	00474552 	subeq	r4, r7, r2, asr r5
 8f8:	5f585541 	svcpl	0x00585541
 8fc:	495f554d 	ldmdbmi	pc, {r0, r2, r3, r6, r8, sl, ip, lr}^	; <UNPREDICTABLE>
 900:	45525f4f 	ldrbmi	r5, [r2, #-3919]	; 0xf4f
 904:	55410047 	strbpl	r0, [r1, #-71]	; 0x47
 908:	554d5f58 	strbpl	r5, [sp, #-3928]	; 0xf58
 90c:	52534d5f 	subspl	r4, r3, #6080	; 0x17c0
 910:	4745525f 	smlsldmi	r5, r5, pc, r2	; <UNPREDICTABLE>
 914:	72617500 	rsbvc	r7, r1, #0, 10
 918:	61635f74 	smcvs	13812	; 0x35f4
 91c:	65675f6e 	strbvs	r5, [r7, #-3950]!	; 0xf6e
 920:	41006374 	tstmi	r0, r4, ror r3
 924:	4d5f5855 	ldclmi	8, cr5, [pc, #-340]	; 7d8 <_start-0x7828>
 928:	4e435f55 	mcrmi	15, 2, r5, cr3, cr5, {2}
 92c:	525f4c54 	subspl	r4, pc, #84, 24	; 0x5400
 930:	75004745 	strvc	r4, [r0, #-1861]	; 0x745
 934:	5f747261 	svcpl	0x00747261
 938:	5f736168 	svcpl	0x00736168
 93c:	61746164 	cmnvs	r4, r4, ror #2
 940:	58554100 	ldmdapl	r5, {r8, lr}^
 944:	5f554d5f 	svcpl	0x00554d5f
 948:	5f524549 	svcpl	0x00524549
 94c:	00474552 	subeq	r4, r7, r2, asr r5
 950:	74726175 	ldrbtvc	r6, [r2], #-373	; 0x175
 954:	7465675f 	strbtvc	r6, [r5], #-1887	; 0x75f
 958:	55410063 	strbpl	r0, [r1, #-99]	; 0x63
 95c:	554d5f58 	strbpl	r5, [sp, #-3928]	; 0xf58
 960:	5249495f 	subpl	r4, r9, #1556480	; 0x17c000
 964:	4745525f 	smlsldmi	r5, r5, pc, r2	; <UNPREDICTABLE>
 968:	72617500 	rsbvc	r7, r1, #0, 10
 96c:	61635f74 	smcvs	13812	; 0x35f4
 970:	75705f6e 	ldrbvc	r5, [r0, #-3950]!	; 0xf6e
 974:	41006374 	tstmi	r0, r4, ror r3
 978:	455f5855 	ldrbmi	r5, [pc, #-2133]	; 12b <_start-0x7ed5>
 97c:	4c42414e 	stfmie	f4, [r2], {78}	; 0x4e
 980:	41005345 	tstmi	r0, r5, asr #6
 984:	495f5855 	ldmdbmi	pc, {r0, r2, r4, r6, fp, ip, lr}^	; <UNPREDICTABLE>
 988:	41005152 	tstmi	r0, r2, asr r1
 98c:	4d5f5855 	ldclmi	8, cr5, [pc, #-340]	; 840 <_start-0x77c0>
 990:	41425f55 	cmpmi	r2, r5, asr pc
 994:	525f4455 	subspl	r4, pc, #1426063360	; 0x55000000
 998:	41004745 	tstmi	r0, r5, asr #14
 99c:	4d5f5855 	ldclmi	8, cr5, [pc, #-340]	; 850 <_start-0x77b0>
 9a0:	54535f55 	ldrbpl	r5, [r3], #-3925	; 0xf55
 9a4:	525f5441 	subspl	r5, pc, #1090519040	; 0x41000000
 9a8:	41004745 	tstmi	r0, r5, asr #14
 9ac:	4d5f5855 	ldclmi	8, cr5, [pc, #-340]	; 860 <_start-0x77a0>
 9b0:	43535f55 	cmpmi	r3, #340	; 0x154
 9b4:	43544152 	cmpmi	r4, #-2147483628	; 0x80000014
 9b8:	796d0048 	stmdbvc	sp!, {r3, r6}^
 9bc:	6372732d 	cmnvs	r2, #-1275068416	; 0xb4000000
 9c0:	7261752f 	rsbvc	r7, r1, #197132288	; 0xbc00000
 9c4:	00632e74 	rsbeq	r2, r3, r4, ror lr
 9c8:	5f585541 	svcpl	0x00585541
 9cc:	4c5f554d 	cfldr64mi	mvdx5, [pc], {77}	; 0x4d
 9d0:	525f5243 	subspl	r5, pc, #805306372	; 0x30000004
 9d4:	41004745 	tstmi	r0, r5, asr #14
 9d8:	4d5f5855 	ldclmi	8, cr5, [pc, #-340]	; 88c <_start-0x7774>
 9dc:	534c5f55 	movtpl	r5, #53077	; 0xcf55
 9e0:	45525f52 	ldrbmi	r5, [r2, #-3922]	; 0xf52
 9e4:	61750047 	cmnvs	r5, r7, asr #32
 9e8:	675f7472 			; <UNDEFINED> instruction: 0x675f7472
 9ec:	5f637465 	svcpl	0x00637465
 9f0:	6e797361 	cdpvs	3, 7, cr7, cr9, cr1, {3}
 9f4:	52490063 	subpl	r0, r9, #99	; 0x63
 9f8:	65705f51 	ldrbvs	r5, [r0, #-3921]!	; 0xf51
 9fc:	6e69646e 	cdpvs	4, 6, cr6, cr9, cr14, {3}
 a00:	00325f67 	eorseq	r5, r2, r7, ror #30
 a04:	61736944 	cmnvs	r3, r4, asr #18
 a08:	5f656c62 	svcpl	0x00656c62
 a0c:	69736142 	ldmdbvs	r3!, {r1, r6, r8, sp, lr}^
 a10:	52495f63 	subpl	r5, r9, #396	; 0x18c
 a14:	46007351 			; <UNDEFINED> instruction: 0x46007351
 a18:	635f5149 	cmpvs	pc, #1073741842	; 0x40000012
 a1c:	72746e6f 	rsbsvc	r6, r4, #1776	; 0x6f0
 a20:	5f006c6f 	svcpl	0x00006c6f
 a24:	65746e69 	ldrbvs	r6, [r4, #-3689]!	; 0xe69
 a28:	70757272 	rsbsvc	r7, r5, r2, ror r2
 a2c:	61745f74 	cmnvs	r4, r4, ror pc
 a30:	00656c62 	rsbeq	r6, r5, r2, ror #24
 a34:	5f515249 	svcpl	0x00515249
 a38:	69736162 	ldmdbvs	r3!, {r1, r5, r6, r8, sp, lr}^
 a3c:	65705f63 	ldrbvs	r5, [r0, #-3939]!	; 0xf63
 a40:	6e69646e 	cdpvs	4, 6, cr6, cr9, cr14, {3}
 a44:	6e450067 	cdpvs	0, 4, cr0, cr5, cr7, {3}
 a48:	656c6261 	strbvs	r6, [ip, #-609]!	; 0x261
 a4c:	7361425f 	cmnvc	r1, #-268435451	; 0xf0000005
 a50:	495f6369 	ldmdbmi	pc, {r0, r3, r5, r6, r8, r9, sp, lr}^	; <UNPREDICTABLE>
 a54:	00735152 	rsbseq	r5, r3, r2, asr r1
 a58:	62616e45 	rsbvs	r6, r1, #1104	; 0x450
 a5c:	495f656c 	ldmdbmi	pc, {r2, r3, r5, r6, r8, sl, sp, lr}^	; <UNPREDICTABLE>
 a60:	5f735152 	svcpl	0x00735152
 a64:	6e450031 	mcrvs	0, 2, r0, cr5, cr1, {1}
 a68:	656c6261 	strbvs	r6, [ip, #-609]!	; 0x261
 a6c:	5152495f 	cmppl	r2, pc, asr r9
 a70:	00325f73 	eorseq	r5, r2, r3, ror pc
 a74:	746e695f 	strbtvc	r6, [lr], #-2399	; 0x95f
 a78:	75727265 	ldrbvc	r7, [r2, #-613]!	; 0x265
 a7c:	745f7470 	ldrbvc	r7, [pc], #-1136	; a84 <_start-0x757c>
 a80:	656c6261 	strbvs	r6, [ip, #-609]!	; 0x261
 a84:	646e655f 	strbtvs	r6, [lr], #-1375	; 0x55f
 a88:	31736300 	cmncc	r3, r0, lsl #6
 a8c:	2d653034 	stclcs	0, cr3, [r5, #-208]!	; 0xffffff30
 a90:	65746e69 	ldrbvs	r6, [r4, #-3689]!	; 0xe69
 a94:	70757272 	rsbsvc	r7, r5, r2, ror r2
 a98:	6e692f74 	mcrvs	15, 3, r2, cr9, cr4, {3}
 a9c:	72726574 	rsbsvc	r6, r2, #116, 10	; 0x1d000000
 aa0:	73747075 	cmnvc	r4, #117	; 0x75
 aa4:	632e632d 	teqvs	lr, #-1275068416	; 0xb4000000
 aa8:	51524900 	cmppl	r2, r0, lsl #18
 aac:	7361425f 	cmnvc	r1, #-268435451	; 0xf0000005
 ab0:	69440065 	stmdbvs	r4, {r0, r2, r5, r6}^
 ab4:	6c626173 	stfvse	f6, [r2], #-460	; 0xfffffe34
 ab8:	52495f65 	subpl	r5, r9, #404	; 0x194
 abc:	315f7351 	cmpcc	pc, r1, asr r3	; <UNPREDICTABLE>
 ac0:	73694400 	cmnvc	r9, #0, 8
 ac4:	656c6261 	strbvs	r6, [ip, #-609]!	; 0x261
 ac8:	5152495f 	cmppl	r2, pc, asr r9
 acc:	00325f73 	eorseq	r5, r2, r3, ror pc
 ad0:	74736166 	ldrbtvc	r6, [r3], #-358	; 0x166
 ad4:	746e695f 	strbtvc	r6, [lr], #-2399	; 0x95f
 ad8:	75727265 	ldrbvc	r7, [r2, #-613]!	; 0x265
 adc:	765f7470 			; <UNDEFINED> instruction: 0x765f7470
 ae0:	6f746365 	svcvs	0x00746365
 ae4:	52490072 	subpl	r0, r9, #114	; 0x72
 ae8:	65705f51 	ldrbvs	r5, [r0, #-3921]!	; 0xf51
 aec:	6e69646e 	cdpvs	4, 6, cr6, cr9, cr14, {3}
 af0:	00315f67 	eorseq	r5, r1, r7, ror #30
 af4:	34317363 	ldrtcc	r7, [r1], #-867	; 0x363
 af8:	692d6530 	pushvs	{r4, r5, r8, sl, sp, lr}
 afc:	7265746e 	rsbvc	r7, r5, #1845493760	; 0x6e000000
 b00:	74707572 	ldrbtvc	r7, [r0], #-1394	; 0x572
 b04:	6665642f 	strbtvs	r6, [r5], -pc, lsr #8
 b08:	746c7561 	strbtvc	r7, [ip], #-1377	; 0x561
 b0c:	6e61682d 	cdpvs	8, 6, cr6, cr1, cr13, {1}
 b10:	72656c64 	rsbvc	r6, r5, #100, 24	; 0x6400
 b14:	7461642d 	strbtvc	r6, [r1], #-1069	; 0x42d
 b18:	62612d61 	rsbvs	r2, r1, #6208	; 0x1840
 b1c:	2e74726f 	cdpcs	2, 7, cr7, cr4, cr15, {3}
 b20:	61640063 	cmnvs	r4, r3, rrx
 b24:	615f6174 	cmpvs	pc, r4, ror r1	; <UNPREDICTABLE>
 b28:	74726f62 	ldrbtvc	r6, [r2], #-3938	; 0xf62
 b2c:	6365765f 	cmnvs	r5, #99614720	; 0x5f00000
 b30:	00726f74 	rsbseq	r6, r2, r4, ror pc
 b34:	34317363 	ldrtcc	r7, [r1], #-867	; 0x363
 b38:	692d6530 	pushvs	{r4, r5, r8, sl, sp, lr}
 b3c:	7265746e 	rsbvc	r7, r5, #1845493760	; 0x6e000000
 b40:	74707572 	ldrbtvc	r7, [r0], #-1394	; 0x572
 b44:	6665642f 	strbtvs	r6, [r5], -pc, lsr #8
 b48:	746c7561 	strbtvc	r7, [ip], #-1377	; 0x561
 b4c:	6e61682d 	cdpvs	8, 6, cr6, cr1, cr13, {1}
 b50:	72656c64 	rsbvc	r6, r5, #100, 24	; 0x6400
 b54:	6572702d 	ldrbvs	r7, [r2, #-45]!	; 0x2d
 b58:	63746566 	cmnvs	r4, #427819008	; 0x19800000
 b5c:	00632e68 	rsbeq	r2, r3, r8, ror #28
 b60:	66657270 			; <UNDEFINED> instruction: 0x66657270
 b64:	68637465 	stmdavs	r3!, {r0, r2, r5, r6, sl, ip, sp, lr}^
 b68:	6f62615f 	svcvs	0x0062615f
 b6c:	765f7472 			; <UNDEFINED> instruction: 0x765f7472
 b70:	6f746365 	svcvs	0x00746365
 b74:	65720072 	ldrbvs	r0, [r2, #-114]!	; 0x72
 b78:	5f746573 	svcpl	0x00746573
 b7c:	74636576 	strbtvc	r6, [r3], #-1398	; 0x576
 b80:	6300726f 	movwvs	r7, #623	; 0x26f
 b84:	30343173 	eorscc	r3, r4, r3, ror r1
 b88:	6e692d65 	cdpvs	13, 6, cr2, cr9, cr5, {3}
 b8c:	72726574 	rsbsvc	r6, r2, #116, 10	; 0x1d000000
 b90:	2f747075 	svccs	0x00747075
 b94:	61666564 	cmnvs	r6, r4, ror #10
 b98:	2d746c75 	ldclcs	12, cr6, [r4, #-468]!	; 0xfffffe2c
 b9c:	646e6168 	strbtvs	r6, [lr], #-360	; 0x168
 ba0:	2d72656c 	cfldr64cs	mvdx6, [r2, #-432]!	; 0xfffffe50
 ba4:	65736572 	ldrbvs	r6, [r3, #-1394]!	; 0x572
 ba8:	00632e74 	rsbeq	r2, r3, r4, ror lr
 bac:	34317363 	ldrtcc	r7, [r1], #-867	; 0x363
 bb0:	692d6530 	pushvs	{r4, r5, r8, sl, sp, lr}
 bb4:	7265746e 	rsbvc	r7, r5, #1845493760	; 0x6e000000
 bb8:	74707572 	ldrbtvc	r7, [r0], #-1394	; 0x572
 bbc:	6665642f 	strbtvs	r6, [r5], -pc, lsr #8
 bc0:	746c7561 	strbtvc	r7, [ip], #-1377	; 0x561
 bc4:	6e61682d 	cdpvs	8, 6, cr6, cr1, cr13, {1}
 bc8:	72656c64 	rsbvc	r6, r5, #100, 24	; 0x6400
 bcc:	646e752d 	strbtvs	r7, [lr], #-1325	; 0x52d
 bd0:	6e696665 	cdpvs	6, 6, cr6, cr9, cr5, {3}
 bd4:	692d6465 	pushvs	{r0, r2, r5, r6, sl, sp, lr}
 bd8:	2e74736e 	cdpcs	3, 7, cr7, cr4, cr14, {3}
 bdc:	6e750063 	cdpvs	0, 7, cr0, cr5, cr3, {3}
 be0:	69666564 	stmdbvs	r6!, {r2, r5, r6, r8, sl, sp, lr}^
 be4:	5f64656e 	svcpl	0x0064656e
 be8:	74736e69 	ldrbtvc	r6, [r3], #-3689	; 0xe69
 bec:	74637572 	strbtvc	r7, [r3], #-1394	; 0x572
 bf0:	5f6e6f69 	svcpl	0x006e6f69
 bf4:	74636576 	strbtvc	r6, [r3], #-1398	; 0x576
 bf8:	Address 0x0000000000000bf8 is out of bounds.


Disassembly of section .debug_frame:

00000000 <.debug_frame>:
   0:	0000000c 	andeq	r0, r0, ip
   4:	ffffffff 			; <UNDEFINED> instruction: 0xffffffff
   8:	7c020001 	stcvc	0, cr0, [r2], {1}
   c:	000d0c0e 	andeq	r0, sp, lr, lsl #24
  10:	00000020 	andeq	r0, r0, r0, lsr #32
  14:	00000000 	andeq	r0, r0, r0
  18:	00008010 	andeq	r8, r0, r0, lsl r0
  1c:	00000764 	andeq	r0, r0, r4, ror #14
  20:	84200e42 	strthi	r0, [r0], #-3650	; 0xe42
  24:	86078508 	strhi	r8, [r7], -r8, lsl #10
  28:	88058706 	stmdahi	r5, {r1, r2, r8, r9, sl, pc}
  2c:	8a038904 	bhi	e2444 <__bss_end__+0xd5d2c>
  30:	00018e02 	andeq	r8, r1, r2, lsl #28
  34:	00000014 	andeq	r0, r0, r4, lsl r0
  38:	00000000 	andeq	r0, r0, r0
  3c:	00008774 	andeq	r8, r0, r4, ror r7
  40:	00000050 	andeq	r0, r0, r0, asr r0
  44:	84080e42 	strhi	r0, [r8], #-3650	; 0xe42
  48:	00018e02 	andeq	r8, r1, r2, lsl #28
  4c:	0000001c 	andeq	r0, r0, ip, lsl r0
  50:	00000000 	andeq	r0, r0, r0
  54:	000087c4 	andeq	r8, r0, r4, asr #15
  58:	00000240 	andeq	r0, r0, r0, asr #4
  5c:	83180e42 	tsthi	r8, #1056	; 0x420
  60:	85058406 	strhi	r8, [r5, #-1030]	; 0x406
  64:	87038604 	strhi	r8, [r3, -r4, lsl #12]
  68:	00018e02 	andeq	r8, r1, r2, lsl #28
  6c:	00000018 	andeq	r0, r0, r8, lsl r0
  70:	00000000 	andeq	r0, r0, r0
  74:	00008a04 	andeq	r8, r0, r4, lsl #20
  78:	00000224 	andeq	r0, r0, r4, lsr #4
  7c:	83100e42 	tsthi	r0, #1056	; 0x420
  80:	85038404 	strhi	r8, [r3, #-1028]	; 0x404
  84:	00018e02 	andeq	r8, r1, r2, lsl #28
  88:	0000000c 	andeq	r0, r0, ip
  8c:	ffffffff 			; <UNDEFINED> instruction: 0xffffffff
  90:	7c020001 	stcvc	0, cr0, [r2], {1}
  94:	000d0c0e 	andeq	r0, sp, lr, lsl #24
  98:	0000000c 	andeq	r0, r0, ip
  9c:	00000088 	andeq	r0, r0, r8, lsl #1
  a0:	00008c28 	andeq	r8, r0, r8, lsr #24
  a4:	00000020 	andeq	r0, r0, r0, lsr #32
  a8:	0000000c 	andeq	r0, r0, ip
  ac:	ffffffff 			; <UNDEFINED> instruction: 0xffffffff
  b0:	7c020001 	stcvc	0, cr0, [r2], {1}
  b4:	000d0c0e 	andeq	r0, sp, lr, lsl #24
  b8:	00000024 	andeq	r0, r0, r4, lsr #32
  bc:	000000a8 	andeq	r0, r0, r8, lsr #1
  c0:	00008c48 	andeq	r8, r0, r8, asr #24
  c4:	00000058 	andeq	r0, r0, r8, asr r0
  c8:	80100e42 	andshi	r0, r0, r2, asr #28
  cc:	82038104 	andhi	r8, r3, #4, 2
  d0:	42018302 	andmi	r8, r1, #134217728	; 0x8000000
  d4:	07841c0e 	streq	r1, [r4, lr, lsl #24]
  d8:	058e0685 	streq	r0, [lr, #1669]	; 0x685
  dc:	00280e42 	eoreq	r0, r8, r2, asr #28
  e0:	0000000c 	andeq	r0, r0, ip
  e4:	ffffffff 			; <UNDEFINED> instruction: 0xffffffff
  e8:	7c020001 	stcvc	0, cr0, [r2], {1}
  ec:	000d0c0e 	andeq	r0, sp, lr, lsl #24
  f0:	00000014 	andeq	r0, r0, r4, lsl r0
  f4:	000000e0 	andeq	r0, r0, r0, ror #1
  f8:	00008ca0 	andeq	r8, r0, r0, lsr #25
  fc:	00000014 	andeq	r0, r0, r4, lsl r0
 100:	84080e42 	strhi	r0, [r8], #-3650	; 0xe42
 104:	00018e02 	andeq	r8, r1, r2, lsl #28
 108:	0000000c 	andeq	r0, r0, ip
 10c:	000000e0 	andeq	r0, r0, r0, ror #1
 110:	00008cb4 			; <UNDEFINED> instruction: 0x00008cb4
 114:	00000018 	andeq	r0, r0, r8, lsl r0
 118:	0000000c 	andeq	r0, r0, ip
 11c:	000000e0 	andeq	r0, r0, r0, ror #1
 120:	00008ccc 	andeq	r8, r0, ip, asr #25
 124:	00000010 	andeq	r0, r0, r0, lsl r0
 128:	0000000c 	andeq	r0, r0, ip
 12c:	ffffffff 			; <UNDEFINED> instruction: 0xffffffff
 130:	7c020001 	stcvc	0, cr0, [r2], {1}
 134:	000d0c0e 	andeq	r0, sp, lr, lsl #24
 138:	00000018 	andeq	r0, r0, r8, lsl r0
 13c:	00000128 	andeq	r0, r0, r8, lsr #2
 140:	00008cdc 	ldrdeq	r8, [r0], -ip
 144:	00000034 	andeq	r0, r0, r4, lsr r0
 148:	83100e42 	tsthi	r0, #1056	; 0x420
 14c:	85038404 	strhi	r8, [r3, #-1028]	; 0x404
 150:	00018e02 	andeq	r8, r1, r2, lsl #28
 154:	0000000c 	andeq	r0, r0, ip
 158:	ffffffff 			; <UNDEFINED> instruction: 0xffffffff
 15c:	7c020001 	stcvc	0, cr0, [r2], {1}
 160:	000d0c0e 	andeq	r0, sp, lr, lsl #24
 164:	0000000c 	andeq	r0, r0, ip
 168:	00000154 	andeq	r0, r0, r4, asr r1
 16c:	00008d10 	andeq	r8, r0, r0, lsl sp
 170:	00000014 	andeq	r0, r0, r4, lsl r0
 174:	0000000c 	andeq	r0, r0, ip
 178:	00000154 	andeq	r0, r0, r4, asr r1
 17c:	00008d24 	andeq	r8, r0, r4, lsr #26
 180:	0000002c 	andeq	r0, r0, ip, lsr #32
 184:	0000000c 	andeq	r0, r0, ip
 188:	00000154 	andeq	r0, r0, r4, asr r1
 18c:	00008d50 	andeq	r8, r0, r0, asr sp
 190:	00000040 	andeq	r0, r0, r0, asr #32
 194:	00000020 	andeq	r0, r0, r0, lsr #32
 198:	00000154 	andeq	r0, r0, r4, asr r1
 19c:	00008d90 	muleq	r0, r0, sp
 1a0:	0000019c 	muleq	r0, ip, r1
 1a4:	84180e42 	ldrhi	r0, [r8], #-3650	; 0xe42
 1a8:	86058506 	strhi	r8, [r5], -r6, lsl #10
 1ac:	88038704 	stmdahi	r3, {r2, r8, r9, sl, pc}
 1b0:	42018e02 	andmi	r8, r1, #2, 28
 1b4:	0000580e 	andeq	r5, r0, lr, lsl #16
 1b8:	00000014 	andeq	r0, r0, r4, lsl r0
 1bc:	00000154 	andeq	r0, r0, r4, asr r1
 1c0:	00008f2c 	andeq	r8, r0, ip, lsr #30
 1c4:	00000054 	andeq	r0, r0, r4, asr r0
 1c8:	83080e42 	movwhi	r0, #36418	; 0x8e42
 1cc:	00018e02 	andeq	r8, r1, r2, lsl #28
 1d0:	00000028 	andeq	r0, r0, r8, lsr #32
 1d4:	00000154 	andeq	r0, r0, r4, asr r1
 1d8:	00008f80 	andeq	r8, r0, r0, lsl #31
 1dc:	00000288 	andeq	r0, r0, r8, lsl #5
 1e0:	84240e42 	strthi	r0, [r4], #-3650	; 0xe42
 1e4:	86088509 	strhi	r8, [r8], -r9, lsl #10
 1e8:	88068707 	stmdahi	r6, {r0, r1, r2, r8, r9, sl, pc}
 1ec:	8a048905 	bhi	122608 <__bss_end__+0x115ef0>
 1f0:	8e028b03 	vmlahi.f64	d8, d2, d3
 1f4:	b00e4201 	andlt	r4, lr, r1, lsl #4
 1f8:	00000001 	andeq	r0, r0, r1
 1fc:	0000000c 	andeq	r0, r0, ip
 200:	ffffffff 			; <UNDEFINED> instruction: 0xffffffff
 204:	7c020001 	stcvc	0, cr0, [r2], {1}
 208:	000d0c0e 	andeq	r0, sp, lr, lsl #24
 20c:	0000000c 	andeq	r0, r0, ip
 210:	000001fc 	strdeq	r0, [r0], -ip
 214:	00009208 	andeq	r9, r0, r8, lsl #4
 218:	00000010 	andeq	r0, r0, r0, lsl r0
 21c:	0000000c 	andeq	r0, r0, ip
 220:	000001fc 	strdeq	r0, [r0], -ip
 224:	00009218 	andeq	r9, r0, r8, lsl r2
 228:	00000010 	andeq	r0, r0, r0, lsl r0
 22c:	0000000c 	andeq	r0, r0, ip
 230:	ffffffff 			; <UNDEFINED> instruction: 0xffffffff
 234:	7c020001 	stcvc	0, cr0, [r2], {1}
 238:	000d0c0e 	andeq	r0, sp, lr, lsl #24
 23c:	00000014 	andeq	r0, r0, r4, lsl r0
 240:	0000022c 	andeq	r0, r0, ip, lsr #4
 244:	00009228 	andeq	r9, r0, r8, lsr #4
 248:	00000028 	andeq	r0, r0, r8, lsr #32
 24c:	83080e42 	movwhi	r0, #36418	; 0x8e42
 250:	00018e02 	andeq	r8, r1, r2, lsl #28
 254:	0000000c 	andeq	r0, r0, ip
 258:	ffffffff 			; <UNDEFINED> instruction: 0xffffffff
 25c:	7c020001 	stcvc	0, cr0, [r2], {1}
 260:	000d0c0e 	andeq	r0, sp, lr, lsl #24
 264:	00000014 	andeq	r0, r0, r4, lsl r0
 268:	00000254 	andeq	r0, r0, r4, asr r2
 26c:	00009250 	andeq	r9, r0, r0, asr r2
 270:	00000034 	andeq	r0, r0, r4, lsr r0
 274:	83080e42 	movwhi	r0, #36418	; 0x8e42
 278:	00018e02 	andeq	r8, r1, r2, lsl #28
 27c:	0000000c 	andeq	r0, r0, ip
 280:	ffffffff 			; <UNDEFINED> instruction: 0xffffffff
 284:	7c020001 	stcvc	0, cr0, [r2], {1}
 288:	000d0c0e 	andeq	r0, sp, lr, lsl #24
 28c:	0000000c 	andeq	r0, r0, ip
 290:	0000027c 	andeq	r0, r0, ip, ror r2
 294:	00009284 	andeq	r9, r0, r4, lsl #5
 298:	00000018 	andeq	r0, r0, r8, lsl r0
 29c:	0000000c 	andeq	r0, r0, ip
 2a0:	0000027c 	andeq	r0, r0, ip, ror r2
 2a4:	0000929c 	muleq	r0, ip, r2
 2a8:	00000014 	andeq	r0, r0, r4, lsl r0
 2ac:	00000014 	andeq	r0, r0, r4, lsl r0
 2b0:	0000027c 	andeq	r0, r0, ip, ror r2
 2b4:	000092b0 			; <UNDEFINED> instruction: 0x000092b0
 2b8:	00000048 	andeq	r0, r0, r8, asr #32
 2bc:	83080e42 	movwhi	r0, #36418	; 0x8e42
 2c0:	00018e02 	andeq	r8, r1, r2, lsl #28
 2c4:	0000000c 	andeq	r0, r0, ip
 2c8:	ffffffff 			; <UNDEFINED> instruction: 0xffffffff
 2cc:	7c020001 	stcvc	0, cr0, [r2], {1}
 2d0:	000d0c0e 	andeq	r0, sp, lr, lsl #24
 2d4:	0000000c 	andeq	r0, r0, ip
 2d8:	000002c4 	andeq	r0, r0, r4, asr #5
 2dc:	000092f8 	strdeq	r9, [r0], -r8
 2e0:	0000001c 	andeq	r0, r0, ip, lsl r0
 2e4:	00000014 	andeq	r0, r0, r4, lsl r0
 2e8:	000002c4 	andeq	r0, r0, r4, asr #5
 2ec:	00009314 	andeq	r9, r0, r4, lsl r3
 2f0:	00000014 	andeq	r0, r0, r4, lsl r0
 2f4:	83080e42 	movwhi	r0, #36418	; 0x8e42
 2f8:	00018e02 	andeq	r8, r1, r2, lsl #28
 2fc:	00000014 	andeq	r0, r0, r4, lsl r0
 300:	000002c4 	andeq	r0, r0, r4, asr #5
 304:	00009328 	andeq	r9, r0, r8, lsr #6
 308:	0000000c 	andeq	r0, r0, ip
 30c:	83080e42 	movwhi	r0, #36418	; 0x8e42
 310:	00018e02 	andeq	r8, r1, r2, lsl #28
 314:	00000018 	andeq	r0, r0, r8, lsl r0
 318:	000002c4 	andeq	r0, r0, r4, asr #5
 31c:	00009334 	andeq	r9, r0, r4, lsr r3
 320:	00000024 	andeq	r0, r0, r4, lsr #32
 324:	83100e42 	tsthi	r0, #1056	; 0x420
 328:	85038404 	strhi	r8, [r3, #-1028]	; 0x404
 32c:	00018e02 	andeq	r8, r1, r2, lsl #28
 330:	00000014 	andeq	r0, r0, r4, lsl r0
 334:	000002c4 	andeq	r0, r0, r4, asr #5
 338:	00009358 	andeq	r9, r0, r8, asr r3
 33c:	00000014 	andeq	r0, r0, r4, lsl r0
 340:	83080e42 	movwhi	r0, #36418	; 0x8e42
 344:	00018e02 	andeq	r8, r1, r2, lsl #28
 348:	00000014 	andeq	r0, r0, r4, lsl r0
 34c:	000002c4 	andeq	r0, r0, r4, asr #5
 350:	0000936c 	andeq	r9, r0, ip, ror #6
 354:	00000014 	andeq	r0, r0, r4, lsl r0
 358:	83080e42 	movwhi	r0, #36418	; 0x8e42
 35c:	00018e02 	andeq	r8, r1, r2, lsl #28
 360:	0000000c 	andeq	r0, r0, ip
 364:	ffffffff 			; <UNDEFINED> instruction: 0xffffffff
 368:	7c020001 	stcvc	0, cr0, [r2], {1}
 36c:	000d0c0e 	andeq	r0, sp, lr, lsl #24
 370:	00000018 	andeq	r0, r0, r8, lsl r0
 374:	00000360 	andeq	r0, r0, r0, ror #6
 378:	00009380 	andeq	r9, r0, r0, lsl #7
 37c:	000000d4 	ldrdeq	r0, [r0], -r4
 380:	83100e42 	tsthi	r0, #1056	; 0x420
 384:	85038404 	strhi	r8, [r3, #-1028]	; 0x404
 388:	00018e02 	andeq	r8, r1, r2, lsl #28
 38c:	00000014 	andeq	r0, r0, r4, lsl r0
 390:	00000360 	andeq	r0, r0, r0, ror #6
 394:	00009454 	andeq	r9, r0, r4, asr r4
 398:	00000038 	andeq	r0, r0, r8, lsr r0
 39c:	83080e42 	movwhi	r0, #36418	; 0x8e42
 3a0:	00018e02 	andeq	r8, r1, r2, lsl #28
 3a4:	00000014 	andeq	r0, r0, r4, lsl r0
 3a8:	00000360 	andeq	r0, r0, r0, ror #6
 3ac:	0000948c 	andeq	r9, r0, ip, lsl #9
 3b0:	00000038 	andeq	r0, r0, r8, lsr r0
 3b4:	83080e42 	movwhi	r0, #36418	; 0x8e42
 3b8:	00018e02 	andeq	r8, r1, r2, lsl #28
 3bc:	00000018 	andeq	r0, r0, r8, lsl r0
 3c0:	00000360 	andeq	r0, r0, r0, ror #6
 3c4:	000094c4 	andeq	r9, r0, r4, asr #9
 3c8:	000000cc 	andeq	r0, r0, ip, asr #1
 3cc:	83100e42 	tsthi	r0, #1056	; 0x420
 3d0:	85038404 	strhi	r8, [r3, #-1028]	; 0x404
 3d4:	00018e02 	andeq	r8, r1, r2, lsl #28
 3d8:	00000014 	andeq	r0, r0, r4, lsl r0
 3dc:	00000360 	andeq	r0, r0, r0, ror #6
 3e0:	00009590 	muleq	r0, r0, r5
 3e4:	0000004c 	andeq	r0, r0, ip, asr #32
 3e8:	84080e42 	strhi	r0, [r8], #-3650	; 0xe42
 3ec:	00018e02 	andeq	r8, r1, r2, lsl #28
 3f0:	00000014 	andeq	r0, r0, r4, lsl r0
 3f4:	00000360 	andeq	r0, r0, r0, ror #6
 3f8:	000095dc 	ldrdeq	r9, [r0], -ip
 3fc:	00000024 	andeq	r0, r0, r4, lsr #32
 400:	83080e42 	movwhi	r0, #36418	; 0x8e42
 404:	00018e02 	andeq	r8, r1, r2, lsl #28
 408:	00000018 	andeq	r0, r0, r8, lsl r0
 40c:	00000360 	andeq	r0, r0, r0, ror #6
 410:	00009600 	andeq	r9, r0, r0, lsl #12
 414:	000000d8 	ldrdeq	r0, [r0], -r8
 418:	84100e42 	ldrhi	r0, [r0], #-3650	; 0xe42
 41c:	86038504 	strhi	r8, [r3], -r4, lsl #10
 420:	00018e02 	andeq	r8, r1, r2, lsl #28
 424:	00000014 	andeq	r0, r0, r4, lsl r0
 428:	00000360 	andeq	r0, r0, r0, ror #6
 42c:	000096d8 	ldrdeq	r9, [r0], -r8
 430:	00000038 	andeq	r0, r0, r8, lsr r0
 434:	83080e42 	movwhi	r0, #36418	; 0x8e42
 438:	00018e02 	andeq	r8, r1, r2, lsl #28
 43c:	00000014 	andeq	r0, r0, r4, lsl r0
 440:	00000360 	andeq	r0, r0, r0, ror #6
 444:	00009710 	andeq	r9, r0, r0, lsl r7
 448:	0000002c 	andeq	r0, r0, ip, lsr #32
 44c:	83080e42 	movwhi	r0, #36418	; 0x8e42
 450:	00018e02 	andeq	r8, r1, r2, lsl #28
 454:	00000018 	andeq	r0, r0, r8, lsl r0
 458:	00000360 	andeq	r0, r0, r0, ror #6
 45c:	0000973c 	andeq	r9, r0, ip, lsr r7
 460:	00000084 	andeq	r0, r0, r4, lsl #1
 464:	83100e42 	tsthi	r0, #1056	; 0x420
 468:	85038404 	strhi	r8, [r3, #-1028]	; 0x404
 46c:	00018e02 	andeq	r8, r1, r2, lsl #28
 470:	00000018 	andeq	r0, r0, r8, lsl r0
 474:	00000360 	andeq	r0, r0, r0, ror #6
 478:	000097c0 	andeq	r9, r0, r0, asr #15
 47c:	00000084 	andeq	r0, r0, r4, lsl #1
 480:	83100e42 	tsthi	r0, #1056	; 0x420
 484:	85038404 	strhi	r8, [r3, #-1028]	; 0x404
 488:	00018e02 	andeq	r8, r1, r2, lsl #28
 48c:	00000014 	andeq	r0, r0, r4, lsl r0
 490:	00000360 	andeq	r0, r0, r0, ror #6
 494:	00009844 	andeq	r9, r0, r4, asr #16
 498:	00000084 	andeq	r0, r0, r4, lsl #1
 49c:	84080e42 	strhi	r0, [r8], #-3650	; 0xe42
 4a0:	00018e02 	andeq	r8, r1, r2, lsl #28
 4a4:	00000014 	andeq	r0, r0, r4, lsl r0
 4a8:	00000360 	andeq	r0, r0, r0, ror #6
 4ac:	000098c8 	andeq	r9, r0, r8, asr #17
 4b0:	00000058 	andeq	r0, r0, r8, asr r0
 4b4:	84080e42 	strhi	r0, [r8], #-3650	; 0xe42
 4b8:	00018e02 	andeq	r8, r1, r2, lsl #28
 4bc:	0000000c 	andeq	r0, r0, ip
 4c0:	ffffffff 			; <UNDEFINED> instruction: 0xffffffff
 4c4:	7c020001 	stcvc	0, cr0, [r2], {1}
 4c8:	000d0c0e 	andeq	r0, sp, lr, lsl #24
 4cc:	00000018 	andeq	r0, r0, r8, lsl r0
 4d0:	000004bc 			; <UNDEFINED> instruction: 0x000004bc
 4d4:	00009920 	andeq	r9, r0, r0, lsr #18
 4d8:	0000009c 	muleq	r0, ip, r0
 4dc:	83100e42 	tsthi	r0, #1056	; 0x420
 4e0:	85038404 	strhi	r8, [r3, #-1028]	; 0x404
 4e4:	00018e02 	andeq	r8, r1, r2, lsl #28
 4e8:	00000014 	andeq	r0, r0, r4, lsl r0
 4ec:	000004bc 			; <UNDEFINED> instruction: 0x000004bc
 4f0:	000099bc 			; <UNDEFINED> instruction: 0x000099bc
 4f4:	0000001c 	andeq	r0, r0, ip, lsl r0
 4f8:	83080e42 	movwhi	r0, #36418	; 0x8e42
 4fc:	00018e02 	andeq	r8, r1, r2, lsl #28
 500:	00000014 	andeq	r0, r0, r4, lsl r0
 504:	000004bc 			; <UNDEFINED> instruction: 0x000004bc
 508:	000099d8 	ldrdeq	r9, [r0], -r8
 50c:	00000028 	andeq	r0, r0, r8, lsr #32
 510:	83080e42 	movwhi	r0, #36418	; 0x8e42
 514:	00018e02 	andeq	r8, r1, r2, lsl #28
 518:	00000014 	andeq	r0, r0, r4, lsl r0
 51c:	000004bc 			; <UNDEFINED> instruction: 0x000004bc
 520:	00009a00 	andeq	r9, r0, r0, lsl #20
 524:	0000001c 	andeq	r0, r0, ip, lsl r0
 528:	83080e42 	movwhi	r0, #36418	; 0x8e42
 52c:	00018e02 	andeq	r8, r1, r2, lsl #28
 530:	00000014 	andeq	r0, r0, r4, lsl r0
 534:	000004bc 			; <UNDEFINED> instruction: 0x000004bc
 538:	00009a1c 	andeq	r9, r0, ip, lsl sl
 53c:	0000002c 	andeq	r0, r0, ip, lsr #32
 540:	84080e42 	strhi	r0, [r8], #-3650	; 0xe42
 544:	00018e02 	andeq	r8, r1, r2, lsl #28
 548:	00000014 	andeq	r0, r0, r4, lsl r0
 54c:	000004bc 			; <UNDEFINED> instruction: 0x000004bc
 550:	00009a48 	andeq	r9, r0, r8, asr #20
 554:	0000000c 	andeq	r0, r0, ip
 558:	83080e42 	movwhi	r0, #36418	; 0x8e42
 55c:	00018e02 	andeq	r8, r1, r2, lsl #28
 560:	00000014 	andeq	r0, r0, r4, lsl r0
 564:	000004bc 			; <UNDEFINED> instruction: 0x000004bc
 568:	00009a54 	andeq	r9, r0, r4, asr sl
 56c:	00000020 	andeq	r0, r0, r0, lsr #32
 570:	83080e42 	movwhi	r0, #36418	; 0x8e42
 574:	00018e02 	andeq	r8, r1, r2, lsl #28
 578:	0000000c 	andeq	r0, r0, ip
 57c:	ffffffff 			; <UNDEFINED> instruction: 0xffffffff
 580:	7c020001 	stcvc	0, cr0, [r2], {1}
 584:	000d0c0e 	andeq	r0, sp, lr, lsl #24
 588:	00000014 	andeq	r0, r0, r4, lsl r0
 58c:	00000578 	andeq	r0, r0, r8, ror r5
 590:	00009a74 	andeq	r9, r0, r4, ror sl
 594:	00000068 	andeq	r0, r0, r8, rrx
 598:	83080e42 	movwhi	r0, #36418	; 0x8e42
 59c:	00018e02 	andeq	r8, r1, r2, lsl #28
 5a0:	00000014 	andeq	r0, r0, r4, lsl r0
 5a4:	00000578 	andeq	r0, r0, r8, ror r5
 5a8:	00009adc 	ldrdeq	r9, [r0], -ip
 5ac:	00000044 	andeq	r0, r0, r4, asr #32
 5b0:	8e040e42 	cdphi	14, 0, cr0, cr4, cr2, {2}
 5b4:	100e4201 	andne	r4, lr, r1, lsl #4
 5b8:	0000000c 	andeq	r0, r0, ip
 5bc:	ffffffff 			; <UNDEFINED> instruction: 0xffffffff
 5c0:	7c020001 	stcvc	0, cr0, [r2], {1}
 5c4:	000d0c0e 	andeq	r0, sp, lr, lsl #24
 5c8:	00000014 	andeq	r0, r0, r4, lsl r0
 5cc:	000005b8 			; <UNDEFINED> instruction: 0x000005b8
 5d0:	00009c70 	andeq	r9, r0, r0, ror ip
 5d4:	00000044 	andeq	r0, r0, r4, asr #32
 5d8:	8e040e42 	cdphi	14, 0, cr0, cr4, cr2, {2}
 5dc:	100e4201 	andne	r4, lr, r1, lsl #4
 5e0:	0000000c 	andeq	r0, r0, ip
 5e4:	ffffffff 			; <UNDEFINED> instruction: 0xffffffff
 5e8:	7c020001 	stcvc	0, cr0, [r2], {1}
 5ec:	000d0c0e 	andeq	r0, sp, lr, lsl #24
 5f0:	00000014 	andeq	r0, r0, r4, lsl r0
 5f4:	000005e0 	andeq	r0, r0, r0, ror #11
 5f8:	00009cb4 			; <UNDEFINED> instruction: 0x00009cb4
 5fc:	00000044 	andeq	r0, r0, r4, asr #32
 600:	8e040e42 	cdphi	14, 0, cr0, cr4, cr2, {2}
 604:	100e4201 	andne	r4, lr, r1, lsl #4
 608:	0000000c 	andeq	r0, r0, ip
 60c:	ffffffff 			; <UNDEFINED> instruction: 0xffffffff
 610:	7c020001 	stcvc	0, cr0, [r2], {1}
 614:	000d0c0e 	andeq	r0, sp, lr, lsl #24
 618:	00000014 	andeq	r0, r0, r4, lsl r0
 61c:	00000608 	andeq	r0, r0, r8, lsl #12
 620:	00009cf8 	strdeq	r9, [r0], -r8
 624:	00000044 	andeq	r0, r0, r4, asr #32
 628:	8e040e42 	cdphi	14, 0, cr0, cr4, cr2, {2}
 62c:	100e4201 	andne	r4, lr, r1, lsl #4
 630:	0000000c 	andeq	r0, r0, ip
 634:	ffffffff 			; <UNDEFINED> instruction: 0xffffffff
 638:	7c020001 	stcvc	0, cr0, [r2], {1}
 63c:	000d0c0e 	andeq	r0, sp, lr, lsl #24
 640:	00000014 	andeq	r0, r0, r4, lsl r0
 644:	00000630 	andeq	r0, r0, r0, lsr r6
 648:	00009d3c 	andeq	r9, r0, ip, lsr sp
 64c:	00000044 	andeq	r0, r0, r4, asr #32
 650:	8e040e42 	cdphi	14, 0, cr0, cr4, cr2, {2}
 654:	100e4201 	andne	r4, lr, r1, lsl #4
