
2-logic-analyzer.elf:     file format elf32-littlearm


Disassembly of section .text:

00008000 <_start>:
    8000:	e3a0d302 	mov	sp, #134217728	; 0x8000000
    8004:	e3a0b000 	mov	fp, #0
    8008:	eb000345 	bl	8d24 <_cstart>
    800c:	eb000373 	bl	8de0 <rpi_reboot>

00008010 <cycles_per_sec>:
    8010:	e92d4010 	push	{r4, lr}
    8014:	e3500001 	cmp	r0, #1
    8018:	9a000006 	bls	8038 <cycles_per_sec+0x28>
    801c:	eb0001c6 	bl	873c <rpi_reset_putc>
    8020:	e59f002c 	ldr	r0, [pc, #44]	; 8054 <cycles_per_sec+0x44>
    8024:	e59f102c 	ldr	r1, [pc, #44]	; 8058 <cycles_per_sec+0x48>
    8028:	e59f202c 	ldr	r2, [pc, #44]	; 805c <cycles_per_sec+0x4c>
    802c:	e3a03042 	mov	r3, #66	; 0x42
    8030:	eb0001a6 	bl	86d0 <printk>
    8034:	eb000328 	bl	8cdc <clean_reboot>
    8038:	ee1f4f3c 	mrc	15, 0, r4, cr15, cr12, {1}
    803c:	e3a03ffa 	mov	r3, #1000	; 0x3e8
    8040:	e0000093 	mul	r0, r3, r0
    8044:	eb00038f 	bl	8e88 <delay_ms>
    8048:	ee1f0f3c 	mrc	15, 0, r0, cr15, cr12, {1}
    804c:	e0640000 	rsb	r0, r4, r0
    8050:	e8bd8010 	pop	{r4, pc}
    8054:	0000a038 	andeq	sl, r0, r8, lsr r0
    8058:	0000a068 	andeq	sl, r0, r8, rrx
    805c:	0000a028 	andeq	sl, r0, r8, lsr #32

00008060 <scope>:
    8060:	e52d4004 	push	{r4}		; (str r4, [sp, #-4]!)
    8064:	e59f21b4 	ldr	r2, [pc, #436]	; 8220 <scope+0x1c0>
    8068:	e5923034 	ldr	r3, [r2, #52]	; 0x34
    806c:	e3130601 	tst	r3, #1048576	; 0x100000
    8070:	1afffffc 	bne	8068 <scope+0x8>
    8074:	ee1f3f3c 	mrc	15, 0, r3, cr15, cr12, {1}
    8078:	e59f11a4 	ldr	r1, [pc, #420]	; 8224 <scope+0x1c4>
    807c:	ee1f2f3c 	mrc	15, 0, r2, cr15, cr12, {1}
    8080:	e0632002 	rsb	r2, r3, r2
    8084:	e1520001 	cmp	r2, r1
    8088:	9afffffb 	bls	807c <scope+0x1c>
    808c:	e59f1194 	ldr	r1, [pc, #404]	; 8228 <scope+0x1c8>
    8090:	ee1f2f3c 	mrc	15, 0, r2, cr15, cr12, {1}
    8094:	e0632002 	rsb	r2, r3, r2
    8098:	e1520001 	cmp	r2, r1
    809c:	9afffffb 	bls	8090 <scope+0x30>
    80a0:	e59f2178 	ldr	r2, [pc, #376]	; 8220 <scope+0x1c0>
    80a4:	e5920034 	ldr	r0, [r2, #52]	; 0x34
    80a8:	e2000601 	and	r0, r0, #1048576	; 0x100000
    80ac:	e1a00a20 	lsr	r0, r0, #20
    80b0:	e1a00380 	lsl	r0, r0, #7
    80b4:	e6ef0070 	uxtb	r0, r0
    80b8:	e59f116c 	ldr	r1, [pc, #364]	; 822c <scope+0x1cc>
    80bc:	ee1f2f3c 	mrc	15, 0, r2, cr15, cr12, {1}
    80c0:	e0632002 	rsb	r2, r3, r2
    80c4:	e1520001 	cmp	r2, r1
    80c8:	9afffffb 	bls	80bc <scope+0x5c>
    80cc:	e59f214c 	ldr	r2, [pc, #332]	; 8220 <scope+0x1c0>
    80d0:	e5922034 	ldr	r2, [r2, #52]	; 0x34
    80d4:	e2022601 	and	r2, r2, #1048576	; 0x100000
    80d8:	e3520000 	cmp	r2, #0
    80dc:	13a02040 	movne	r2, #64	; 0x40
    80e0:	03a02000 	moveq	r2, #0
    80e4:	e1800002 	orr	r0, r0, r2
    80e8:	e59f1140 	ldr	r1, [pc, #320]	; 8230 <scope+0x1d0>
    80ec:	ee1f2f3c 	mrc	15, 0, r2, cr15, cr12, {1}
    80f0:	e0632002 	rsb	r2, r3, r2
    80f4:	e1520001 	cmp	r2, r1
    80f8:	9afffffb 	bls	80ec <scope+0x8c>
    80fc:	e59f211c 	ldr	r2, [pc, #284]	; 8220 <scope+0x1c0>
    8100:	e5924034 	ldr	r4, [r2, #52]	; 0x34
    8104:	e2044601 	and	r4, r4, #1048576	; 0x100000
    8108:	e3540000 	cmp	r4, #0
    810c:	13a04020 	movne	r4, #32
    8110:	03a04000 	moveq	r4, #0
    8114:	e1844000 	orr	r4, r4, r0
    8118:	e59f1114 	ldr	r1, [pc, #276]	; 8234 <scope+0x1d4>
    811c:	ee1f2f3c 	mrc	15, 0, r2, cr15, cr12, {1}
    8120:	e0632002 	rsb	r2, r3, r2
    8124:	e1520001 	cmp	r2, r1
    8128:	9afffffb 	bls	811c <scope+0xbc>
    812c:	e59f20ec 	ldr	r2, [pc, #236]	; 8220 <scope+0x1c0>
    8130:	e592c034 	ldr	ip, [r2, #52]	; 0x34
    8134:	e20cc601 	and	ip, ip, #1048576	; 0x100000
    8138:	e35c0000 	cmp	ip, #0
    813c:	13a0c010 	movne	ip, #16
    8140:	03a0c000 	moveq	ip, #0
    8144:	e18cc004 	orr	ip, ip, r4
    8148:	e59f10e8 	ldr	r1, [pc, #232]	; 8238 <scope+0x1d8>
    814c:	ee1f2f3c 	mrc	15, 0, r2, cr15, cr12, {1}
    8150:	e0632002 	rsb	r2, r3, r2
    8154:	e1520001 	cmp	r2, r1
    8158:	9afffffb 	bls	814c <scope+0xec>
    815c:	e59f20bc 	ldr	r2, [pc, #188]	; 8220 <scope+0x1c0>
    8160:	e5920034 	ldr	r0, [r2, #52]	; 0x34
    8164:	e2000601 	and	r0, r0, #1048576	; 0x100000
    8168:	e3500000 	cmp	r0, #0
    816c:	13a00008 	movne	r0, #8
    8170:	03a00000 	moveq	r0, #0
    8174:	e180000c 	orr	r0, r0, ip
    8178:	e59f10bc 	ldr	r1, [pc, #188]	; 823c <scope+0x1dc>
    817c:	ee1f2f3c 	mrc	15, 0, r2, cr15, cr12, {1}
    8180:	e0632002 	rsb	r2, r3, r2
    8184:	e1520001 	cmp	r2, r1
    8188:	9afffffb 	bls	817c <scope+0x11c>
    818c:	e59f208c 	ldr	r2, [pc, #140]	; 8220 <scope+0x1c0>
    8190:	e5924034 	ldr	r4, [r2, #52]	; 0x34
    8194:	e2044601 	and	r4, r4, #1048576	; 0x100000
    8198:	e3540000 	cmp	r4, #0
    819c:	13a04004 	movne	r4, #4
    81a0:	03a04000 	moveq	r4, #0
    81a4:	e1844000 	orr	r4, r4, r0
    81a8:	e59f1090 	ldr	r1, [pc, #144]	; 8240 <scope+0x1e0>
    81ac:	ee1f2f3c 	mrc	15, 0, r2, cr15, cr12, {1}
    81b0:	e0632002 	rsb	r2, r3, r2
    81b4:	e1520001 	cmp	r2, r1
    81b8:	9afffffb 	bls	81ac <scope+0x14c>
    81bc:	e59f205c 	ldr	r2, [pc, #92]	; 8220 <scope+0x1c0>
    81c0:	e592c034 	ldr	ip, [r2, #52]	; 0x34
    81c4:	e20cc601 	and	ip, ip, #1048576	; 0x100000
    81c8:	e35c0000 	cmp	ip, #0
    81cc:	13a0c002 	movne	ip, #2
    81d0:	03a0c000 	moveq	ip, #0
    81d4:	e18cc004 	orr	ip, ip, r4
    81d8:	e59f1064 	ldr	r1, [pc, #100]	; 8244 <scope+0x1e4>
    81dc:	ee1f2f3c 	mrc	15, 0, r2, cr15, cr12, {1}
    81e0:	e0632002 	rsb	r2, r3, r2
    81e4:	e1520001 	cmp	r2, r1
    81e8:	9afffffb 	bls	81dc <scope+0x17c>
    81ec:	e59f202c 	ldr	r2, [pc, #44]	; 8220 <scope+0x1c0>
    81f0:	e5920034 	ldr	r0, [r2, #52]	; 0x34
    81f4:	e2000601 	and	r0, r0, #1048576	; 0x100000
    81f8:	e3500000 	cmp	r0, #0
    81fc:	01a0000c 	moveq	r0, ip
    8200:	138c0001 	orrne	r0, ip, #1
    8204:	e59f103c 	ldr	r1, [pc, #60]	; 8248 <scope+0x1e8>
    8208:	ee1f2f3c 	mrc	15, 0, r2, cr15, cr12, {1}
    820c:	e0632002 	rsb	r2, r3, r2
    8210:	e1520001 	cmp	r2, r1
    8214:	9afffffb 	bls	8208 <scope+0x1a8>
    8218:	e49d4004 	pop	{r4}		; (ldr r4, [sp], #4)
    821c:	e12fff1e 	bx	lr
    8220:	20200000 	eorcs	r0, r0, r0
    8224:	00000bdd 	ldrdeq	r0, [r0], -sp
    8228:	00002399 	muleq	r0, r9, r3
    822c:	00003b55 	andeq	r3, r0, r5, asr fp
    8230:	00005311 	andeq	r5, r0, r1, lsl r3
    8234:	00006acd 	andeq	r6, r0, sp, asr #21
    8238:	00008289 	andeq	r8, r0, r9, lsl #5
    823c:	00009a45 	andeq	r9, r0, r5, asr #20
    8240:	0000b201 	andeq	fp, r0, r1, lsl #4
    8244:	0000c9bd 			; <UNDEFINED> instruction: 0x0000c9bd
    8248:	0000e179 	andeq	lr, r0, r9, ror r1

0000824c <test_gen>:
    824c:	e52d4004 	push	{r4}		; (str r4, [sp, #-4]!)
    8250:	ee1f3f3c 	mrc	15, 0, r3, cr15, cr12, {1}
    8254:	e59f2250 	ldr	r2, [pc, #592]	; 84ac <test_gen+0x260>
    8258:	e592c028 	ldr	ip, [r2, #40]	; 0x28
    825c:	e3a04001 	mov	r4, #1
    8260:	e1a00014 	lsl	r0, r4, r0
    8264:	e18cc000 	orr	ip, ip, r0
    8268:	e582c028 	str	ip, [r2, #40]	; 0x28
    826c:	e59fc23c 	ldr	ip, [pc, #572]	; 84b0 <test_gen+0x264>
    8270:	ee1f2f3c 	mrc	15, 0, r2, cr15, cr12, {1}
    8274:	e0632002 	rsb	r2, r3, r2
    8278:	e152000c 	cmp	r2, ip
    827c:	9afffffb 	bls	8270 <test_gen+0x24>
    8280:	e3110001 	tst	r1, #1
    8284:	0a000004 	beq	829c <test_gen+0x50>
    8288:	e59f221c 	ldr	r2, [pc, #540]	; 84ac <test_gen+0x260>
    828c:	e592c01c 	ldr	ip, [r2, #28]
    8290:	e180c00c 	orr	ip, r0, ip
    8294:	e582c01c 	str	ip, [r2, #28]
    8298:	ea000003 	b	82ac <test_gen+0x60>
    829c:	e59f2208 	ldr	r2, [pc, #520]	; 84ac <test_gen+0x260>
    82a0:	e592c028 	ldr	ip, [r2, #40]	; 0x28
    82a4:	e180c00c 	orr	ip, r0, ip
    82a8:	e582c028 	str	ip, [r2, #40]	; 0x28
    82ac:	e59fc200 	ldr	ip, [pc, #512]	; 84b4 <test_gen+0x268>
    82b0:	ee1f2f3c 	mrc	15, 0, r2, cr15, cr12, {1}
    82b4:	e0632002 	rsb	r2, r3, r2
    82b8:	e152000c 	cmp	r2, ip
    82bc:	9afffffb 	bls	82b0 <test_gen+0x64>
    82c0:	e3110002 	tst	r1, #2
    82c4:	0a000004 	beq	82dc <test_gen+0x90>
    82c8:	e59f21dc 	ldr	r2, [pc, #476]	; 84ac <test_gen+0x260>
    82cc:	e592c01c 	ldr	ip, [r2, #28]
    82d0:	e180c00c 	orr	ip, r0, ip
    82d4:	e582c01c 	str	ip, [r2, #28]
    82d8:	ea000003 	b	82ec <test_gen+0xa0>
    82dc:	e59f21c8 	ldr	r2, [pc, #456]	; 84ac <test_gen+0x260>
    82e0:	e592c028 	ldr	ip, [r2, #40]	; 0x28
    82e4:	e180c00c 	orr	ip, r0, ip
    82e8:	e582c028 	str	ip, [r2, #40]	; 0x28
    82ec:	e59fc1c4 	ldr	ip, [pc, #452]	; 84b8 <test_gen+0x26c>
    82f0:	ee1f2f3c 	mrc	15, 0, r2, cr15, cr12, {1}
    82f4:	e0632002 	rsb	r2, r3, r2
    82f8:	e152000c 	cmp	r2, ip
    82fc:	9afffffb 	bls	82f0 <test_gen+0xa4>
    8300:	e3110004 	tst	r1, #4
    8304:	0a000004 	beq	831c <test_gen+0xd0>
    8308:	e59f219c 	ldr	r2, [pc, #412]	; 84ac <test_gen+0x260>
    830c:	e592c01c 	ldr	ip, [r2, #28]
    8310:	e180c00c 	orr	ip, r0, ip
    8314:	e582c01c 	str	ip, [r2, #28]
    8318:	ea000003 	b	832c <test_gen+0xe0>
    831c:	e59f2188 	ldr	r2, [pc, #392]	; 84ac <test_gen+0x260>
    8320:	e592c028 	ldr	ip, [r2, #40]	; 0x28
    8324:	e180c00c 	orr	ip, r0, ip
    8328:	e582c028 	str	ip, [r2, #40]	; 0x28
    832c:	e59fc188 	ldr	ip, [pc, #392]	; 84bc <test_gen+0x270>
    8330:	ee1f2f3c 	mrc	15, 0, r2, cr15, cr12, {1}
    8334:	e0632002 	rsb	r2, r3, r2
    8338:	e152000c 	cmp	r2, ip
    833c:	9afffffb 	bls	8330 <test_gen+0xe4>
    8340:	e3110008 	tst	r1, #8
    8344:	0a000004 	beq	835c <test_gen+0x110>
    8348:	e59f215c 	ldr	r2, [pc, #348]	; 84ac <test_gen+0x260>
    834c:	e592c01c 	ldr	ip, [r2, #28]
    8350:	e180c00c 	orr	ip, r0, ip
    8354:	e582c01c 	str	ip, [r2, #28]
    8358:	ea000003 	b	836c <test_gen+0x120>
    835c:	e59f2148 	ldr	r2, [pc, #328]	; 84ac <test_gen+0x260>
    8360:	e592c028 	ldr	ip, [r2, #40]	; 0x28
    8364:	e180c00c 	orr	ip, r0, ip
    8368:	e582c028 	str	ip, [r2, #40]	; 0x28
    836c:	e59fc14c 	ldr	ip, [pc, #332]	; 84c0 <test_gen+0x274>
    8370:	ee1f2f3c 	mrc	15, 0, r2, cr15, cr12, {1}
    8374:	e0632002 	rsb	r2, r3, r2
    8378:	e152000c 	cmp	r2, ip
    837c:	9afffffb 	bls	8370 <test_gen+0x124>
    8380:	e3110010 	tst	r1, #16
    8384:	0a000004 	beq	839c <test_gen+0x150>
    8388:	e59f211c 	ldr	r2, [pc, #284]	; 84ac <test_gen+0x260>
    838c:	e592c01c 	ldr	ip, [r2, #28]
    8390:	e180c00c 	orr	ip, r0, ip
    8394:	e582c01c 	str	ip, [r2, #28]
    8398:	ea000003 	b	83ac <test_gen+0x160>
    839c:	e59f2108 	ldr	r2, [pc, #264]	; 84ac <test_gen+0x260>
    83a0:	e592c028 	ldr	ip, [r2, #40]	; 0x28
    83a4:	e180c00c 	orr	ip, r0, ip
    83a8:	e582c028 	str	ip, [r2, #40]	; 0x28
    83ac:	e59fc110 	ldr	ip, [pc, #272]	; 84c4 <test_gen+0x278>
    83b0:	ee1f2f3c 	mrc	15, 0, r2, cr15, cr12, {1}
    83b4:	e0632002 	rsb	r2, r3, r2
    83b8:	e152000c 	cmp	r2, ip
    83bc:	9afffffb 	bls	83b0 <test_gen+0x164>
    83c0:	e3110020 	tst	r1, #32
    83c4:	0a000004 	beq	83dc <test_gen+0x190>
    83c8:	e59f20dc 	ldr	r2, [pc, #220]	; 84ac <test_gen+0x260>
    83cc:	e592c01c 	ldr	ip, [r2, #28]
    83d0:	e180c00c 	orr	ip, r0, ip
    83d4:	e582c01c 	str	ip, [r2, #28]
    83d8:	ea000003 	b	83ec <test_gen+0x1a0>
    83dc:	e59f20c8 	ldr	r2, [pc, #200]	; 84ac <test_gen+0x260>
    83e0:	e592c028 	ldr	ip, [r2, #40]	; 0x28
    83e4:	e180c00c 	orr	ip, r0, ip
    83e8:	e582c028 	str	ip, [r2, #40]	; 0x28
    83ec:	e59fc0d4 	ldr	ip, [pc, #212]	; 84c8 <test_gen+0x27c>
    83f0:	ee1f2f3c 	mrc	15, 0, r2, cr15, cr12, {1}
    83f4:	e0632002 	rsb	r2, r3, r2
    83f8:	e152000c 	cmp	r2, ip
    83fc:	9afffffb 	bls	83f0 <test_gen+0x1a4>
    8400:	e3110040 	tst	r1, #64	; 0x40
    8404:	0a000004 	beq	841c <test_gen+0x1d0>
    8408:	e59f209c 	ldr	r2, [pc, #156]	; 84ac <test_gen+0x260>
    840c:	e592c01c 	ldr	ip, [r2, #28]
    8410:	e180c00c 	orr	ip, r0, ip
    8414:	e582c01c 	str	ip, [r2, #28]
    8418:	ea000003 	b	842c <test_gen+0x1e0>
    841c:	e59f2088 	ldr	r2, [pc, #136]	; 84ac <test_gen+0x260>
    8420:	e592c028 	ldr	ip, [r2, #40]	; 0x28
    8424:	e180c00c 	orr	ip, r0, ip
    8428:	e582c028 	str	ip, [r2, #40]	; 0x28
    842c:	e59fc098 	ldr	ip, [pc, #152]	; 84cc <test_gen+0x280>
    8430:	ee1f2f3c 	mrc	15, 0, r2, cr15, cr12, {1}
    8434:	e0632002 	rsb	r2, r3, r2
    8438:	e152000c 	cmp	r2, ip
    843c:	9afffffb 	bls	8430 <test_gen+0x1e4>
    8440:	e3110080 	tst	r1, #128	; 0x80
    8444:	0a000004 	beq	845c <test_gen+0x210>
    8448:	e59f205c 	ldr	r2, [pc, #92]	; 84ac <test_gen+0x260>
    844c:	e592101c 	ldr	r1, [r2, #28]
    8450:	e1801001 	orr	r1, r0, r1
    8454:	e582101c 	str	r1, [r2, #28]
    8458:	ea000003 	b	846c <test_gen+0x220>
    845c:	e59f2048 	ldr	r2, [pc, #72]	; 84ac <test_gen+0x260>
    8460:	e5921028 	ldr	r1, [r2, #40]	; 0x28
    8464:	e1801001 	orr	r1, r0, r1
    8468:	e5821028 	str	r1, [r2, #40]	; 0x28
    846c:	e59f105c 	ldr	r1, [pc, #92]	; 84d0 <test_gen+0x284>
    8470:	ee1f2f3c 	mrc	15, 0, r2, cr15, cr12, {1}
    8474:	e0632002 	rsb	r2, r3, r2
    8478:	e1520001 	cmp	r2, r1
    847c:	9afffffb 	bls	8470 <test_gen+0x224>
    8480:	e59f2024 	ldr	r2, [pc, #36]	; 84ac <test_gen+0x260>
    8484:	e592101c 	ldr	r1, [r2, #28]
    8488:	e1800001 	orr	r0, r0, r1
    848c:	e582001c 	str	r0, [r2, #28]
    8490:	e59f103c 	ldr	r1, [pc, #60]	; 84d4 <test_gen+0x288>
    8494:	ee1f2f3c 	mrc	15, 0, r2, cr15, cr12, {1}
    8498:	e0632002 	rsb	r2, r3, r2
    849c:	e1520001 	cmp	r2, r1
    84a0:	9afffffb 	bls	8494 <test_gen+0x248>
    84a4:	e49d4004 	pop	{r4}		; (ldr r4, [sp], #4)
    84a8:	e12fff1e 	bx	lr
    84ac:	20200000 	eorcs	r0, r0, r0
    84b0:	000017bb 			; <UNDEFINED> instruction: 0x000017bb
    84b4:	00002f77 	andeq	r2, r0, r7, ror pc
    84b8:	00004733 	andeq	r4, r0, r3, lsr r7
    84bc:	00005eef 	andeq	r5, r0, pc, ror #29
    84c0:	000076ab 	andeq	r7, r0, fp, lsr #13
    84c4:	00008e67 	andeq	r8, r0, r7, ror #28
    84c8:	0000a623 	andeq	sl, r0, r3, lsr #12
    84cc:	0000bddf 	ldrdeq	fp, [r0], -pc	; <UNPREDICTABLE>
    84d0:	0000d59b 	muleq	r0, fp, r5
    84d4:	0000ed57 	andeq	lr, r0, r7, asr sp

000084d8 <server>:
    84d8:	e92d43f8 	push	{r3, r4, r5, r6, r7, r8, r9, lr}
    84dc:	e1a07000 	mov	r7, r0
    84e0:	e1a05002 	mov	r5, r2
    84e4:	e59f30d8 	ldr	r3, [pc, #216]	; 85c4 <server+0xec>
    84e8:	e593201c 	ldr	r2, [r3, #28]
    84ec:	e3a01001 	mov	r1, #1
    84f0:	e1822011 	orr	r2, r2, r1, lsl r0
    84f4:	e583201c 	str	r2, [r3, #28]
    84f8:	e59f00c8 	ldr	r0, [pc, #200]	; 85c8 <server+0xf0>
    84fc:	eb000073 	bl	86d0 <printk>
    8500:	e59f20bc 	ldr	r2, [pc, #188]	; 85c4 <server+0xec>
    8504:	e5923034 	ldr	r3, [r2, #52]	; 0x34
    8508:	e3130601 	tst	r3, #1048576	; 0x100000
    850c:	0afffffc 	beq	8504 <server+0x2c>
    8510:	e3a00001 	mov	r0, #1
    8514:	eb00025b 	bl	8e88 <delay_ms>
    8518:	e59f40ac 	ldr	r4, [pc, #172]	; 85cc <server+0xf4>
    851c:	e59f60ac 	ldr	r6, [pc, #172]	; 85d0 <server+0xf8>
    8520:	e59f80ac 	ldr	r8, [pc, #172]	; 85d4 <server+0xfc>
    8524:	e3a09000 	mov	r9, #0
    8528:	ea00001a 	b	8598 <server+0xc0>
    852c:	e5963000 	ldr	r3, [r6]
    8530:	e3530000 	cmp	r3, #0
    8534:	0a000017 	beq	8598 <server+0xc0>
    8538:	e5941000 	ldr	r1, [r4]
    853c:	e1a00007 	mov	r0, r7
    8540:	e1a01c21 	lsr	r1, r1, #24
    8544:	e1a02008 	mov	r2, r8
    8548:	ebffff3f 	bl	824c <test_gen>
    854c:	e5941000 	ldr	r1, [r4]
    8550:	e20118ff 	and	r1, r1, #16711680	; 0xff0000
    8554:	e1a00007 	mov	r0, r7
    8558:	e1a01821 	lsr	r1, r1, #16
    855c:	e1a02008 	mov	r2, r8
    8560:	ebffff39 	bl	824c <test_gen>
    8564:	e5941000 	ldr	r1, [r4]
    8568:	e2011cff 	and	r1, r1, #65280	; 0xff00
    856c:	e1a00007 	mov	r0, r7
    8570:	e1a01421 	lsr	r1, r1, #8
    8574:	e1a02008 	mov	r2, r8
    8578:	ebffff33 	bl	824c <test_gen>
    857c:	e5941000 	ldr	r1, [r4]
    8580:	e1a00007 	mov	r0, r7
    8584:	e6ef1071 	uxtb	r1, r1
    8588:	e1a02008 	mov	r2, r8
    858c:	ebffff2e 	bl	824c <test_gen>
    8590:	e5869000 	str	r9, [r6]
    8594:	eb0005e0 	bl	9d1c <system_enable_interrupts>
    8598:	e5943000 	ldr	r3, [r4]
    859c:	e1530005 	cmp	r3, r5
    85a0:	9affffe1 	bls	852c <server+0x54>
    85a4:	eb0005e0 	bl	9d2c <system_disable_interrupts>
    85a8:	e59f301c 	ldr	r3, [pc, #28]	; 85cc <server+0xf4>
    85ac:	e5931000 	ldr	r1, [r3]
    85b0:	e2411001 	sub	r1, r1, #1
    85b4:	e5831000 	str	r1, [r3]
    85b8:	e59f0018 	ldr	r0, [pc, #24]	; 85d8 <server+0x100>
    85bc:	eb000043 	bl	86d0 <printk>
    85c0:	e8bd83f8 	pop	{r3, r4, r5, r6, r7, r8, r9, pc}
    85c4:	20200000 	eorcs	r0, r0, r0
    85c8:	0000a07c 	andeq	sl, r0, ip, ror r0
    85cc:	0000a4d0 	ldrdeq	sl, [r0], -r0
    85d0:	00009f88 	andeq	r9, r0, r8, lsl #31
    85d4:	000017bc 			; <UNDEFINED> instruction: 0x000017bc
    85d8:	0000a08c 	andeq	sl, r0, ip, lsl #1

000085dc <interrupt_vector>:
    85dc:	e92d4010 	push	{r4, lr}
    85e0:	e3a00014 	mov	r0, #20
    85e4:	ebfffe9d 	bl	8060 <scope>
    85e8:	e1a00c00 	lsl	r0, r0, #24
    85ec:	e59f408c 	ldr	r4, [pc, #140]	; 8680 <interrupt_vector+0xa4>
    85f0:	e5840004 	str	r0, [r4, #4]
    85f4:	e3a00014 	mov	r0, #20
    85f8:	ebfffe98 	bl	8060 <scope>
    85fc:	e5943004 	ldr	r3, [r4, #4]
    8600:	e1830800 	orr	r0, r3, r0, lsl #16
    8604:	e5840004 	str	r0, [r4, #4]
    8608:	e3a00014 	mov	r0, #20
    860c:	ebfffe93 	bl	8060 <scope>
    8610:	e5943004 	ldr	r3, [r4, #4]
    8614:	e1830400 	orr	r0, r3, r0, lsl #8
    8618:	e5840004 	str	r0, [r4, #4]
    861c:	e3a00014 	mov	r0, #20
    8620:	ebfffe8e 	bl	8060 <scope>
    8624:	e5943004 	ldr	r3, [r4, #4]
    8628:	e1800003 	orr	r0, r0, r3
    862c:	e5840004 	str	r0, [r4, #4]
    8630:	e5942004 	ldr	r2, [r4, #4]
    8634:	e5943000 	ldr	r3, [r4]
    8638:	e1520003 	cmp	r2, r3
    863c:	0a000004 	beq	8654 <interrupt_vector+0x78>
    8640:	e5941004 	ldr	r1, [r4, #4]
    8644:	e5942000 	ldr	r2, [r4]
    8648:	e59f0034 	ldr	r0, [pc, #52]	; 8684 <interrupt_vector+0xa8>
    864c:	eb00001f 	bl	86d0 <printk>
    8650:	ea000007 	b	8674 <interrupt_vector+0x98>
    8654:	e59f3024 	ldr	r3, [pc, #36]	; 8680 <interrupt_vector+0xa4>
    8658:	e5932000 	ldr	r2, [r3]
    865c:	e2822001 	add	r2, r2, #1
    8660:	e5832000 	str	r2, [r3]
    8664:	e3a02001 	mov	r2, #1
    8668:	e59f3018 	ldr	r3, [pc, #24]	; 8688 <interrupt_vector+0xac>
    866c:	e5832000 	str	r2, [r3]
    8670:	eb0005ad 	bl	9d2c <system_disable_interrupts>
    8674:	e3a00014 	mov	r0, #20
    8678:	eb00035e 	bl	93f8 <gpio_event_clear>
    867c:	e8bd8010 	pop	{r4, pc}
    8680:	0000a4d0 	ldrdeq	sl, [r0], -r0
    8684:	0000a0a8 	andeq	sl, r0, r8, lsr #1
    8688:	00009f88 	andeq	r9, r0, r8, lsl #31

0000868c <notmain>:
    868c:	e92d4008 	push	{r3, lr}
    8690:	eb000508 	bl	9ab8 <uart_init>
    8694:	eb00055c 	bl	9c0c <int_init>
    8698:	e3a00015 	mov	r0, #21
    869c:	eb000203 	bl	8eb0 <gpio_set_output>
    86a0:	e3a00014 	mov	r0, #20
    86a4:	eb000252 	bl	8ff4 <gpio_set_input>
    86a8:	e3a00014 	mov	r0, #20
    86ac:	eb00030f 	bl	92f0 <gpio_int_falling_edge>
    86b0:	eb000181 	bl	8cbc <enable_cache>
    86b4:	e3a03001 	mov	r3, #1
    86b8:	ee0f3f1c 	mcr	15, 0, r3, cr15, cr12, {0}
    86bc:	e3a00015 	mov	r0, #21
    86c0:	e3a01014 	mov	r1, #20
    86c4:	e3a02a01 	mov	r2, #4096	; 0x1000
    86c8:	ebffff82 	bl	84d8 <server>
    86cc:	eb000182 	bl	8cdc <clean_reboot>

000086d0 <printk>:
    86d0:	e92d000f 	push	{r0, r1, r2, r3}
    86d4:	e92d4030 	push	{r4, r5, lr}
    86d8:	e24dd00c 	sub	sp, sp, #12
    86dc:	e28d301c 	add	r3, sp, #28
    86e0:	e58d3004 	str	r3, [sp, #4]
    86e4:	e59f4034 	ldr	r4, [pc, #52]	; 8720 <printk+0x50>
    86e8:	e1a00004 	mov	r0, r4
    86ec:	e3a01b01 	mov	r1, #1024	; 0x400
    86f0:	e59d2018 	ldr	r2, [sp, #24]
    86f4:	eb0000cb 	bl	8a28 <va_printk>
    86f8:	e1a05000 	mov	r5, r0
    86fc:	e59f3020 	ldr	r3, [pc, #32]	; 8724 <printk+0x54>
    8700:	e5933000 	ldr	r3, [r3]
    8704:	e1a00004 	mov	r0, r4
    8708:	e12fff33 	blx	r3
    870c:	e1a00005 	mov	r0, r5
    8710:	e28dd00c 	add	sp, sp, #12
    8714:	e8bd4030 	pop	{r4, r5, lr}
    8718:	e28dd010 	add	sp, sp, #16
    871c:	e12fff1e 	bx	lr
    8720:	0000a4e8 	andeq	sl, r0, r8, ror #9
    8724:	00009f90 	muleq	r0, r0, pc	; <UNPREDICTABLE>

00008728 <internal_putchar>:
    8728:	e92d4010 	push	{r4, lr}
    872c:	e1a04000 	mov	r4, r0
    8730:	eb00051f 	bl	9bb4 <uart_putc>
    8734:	e1a00004 	mov	r0, r4
    8738:	e8bd8010 	pop	{r4, pc}

0000873c <rpi_reset_putc>:
    873c:	e59f2008 	ldr	r2, [pc, #8]	; 874c <rpi_reset_putc+0x10>
    8740:	e59f3008 	ldr	r3, [pc, #8]	; 8750 <rpi_reset_putc+0x14>
    8744:	e5832000 	str	r2, [r3]
    8748:	e12fff1e 	bx	lr
    874c:	00008728 	andeq	r8, r0, r8, lsr #14
    8750:	00009f8c 	andeq	r9, r0, ip, lsl #31

00008754 <rpi_set_putc>:
    8754:	e59f3004 	ldr	r3, [pc, #4]	; 8760 <rpi_set_putc+0xc>
    8758:	e5830000 	str	r0, [r3]
    875c:	e12fff1e 	bx	lr
    8760:	00009f8c 	andeq	r9, r0, ip, lsl #31

00008764 <internal_putk>:
    8764:	e92d4038 	push	{r3, r4, r5, lr}
    8768:	e1a04000 	mov	r4, r0
    876c:	e59f5020 	ldr	r5, [pc, #32]	; 8794 <internal_putk+0x30>
    8770:	ea000002 	b	8780 <internal_putk+0x1c>
    8774:	e5953000 	ldr	r3, [r5]
    8778:	e12fff33 	blx	r3
    877c:	e2844001 	add	r4, r4, #1
    8780:	e5d40000 	ldrb	r0, [r4]
    8784:	e3500000 	cmp	r0, #0
    8788:	1afffff9 	bne	8774 <internal_putk+0x10>
    878c:	e3a00001 	mov	r0, #1
    8790:	e8bd8038 	pop	{r3, r4, r5, pc}
    8794:	00009f8c 	andeq	r9, r0, ip, lsl #31

00008798 <isdigit>:
    8798:	e2400030 	sub	r0, r0, #48	; 0x30
    879c:	e3500009 	cmp	r0, #9
    87a0:	83a00000 	movhi	r0, #0
    87a4:	93a00001 	movls	r0, #1
    87a8:	e12fff1e 	bx	lr

000087ac <pad>:
    87ac:	e0611000 	rsb	r1, r1, r0
    87b0:	e3a03020 	mov	r3, #32
    87b4:	ea000002 	b	87c4 <pad+0x18>
    87b8:	e5c03000 	strb	r3, [r0]
    87bc:	e2811001 	add	r1, r1, #1
    87c0:	e2800001 	add	r0, r0, #1
    87c4:	e1510002 	cmp	r1, r2
    87c8:	bafffffa 	blt	87b8 <pad+0xc>
    87cc:	e3a03000 	mov	r3, #0
    87d0:	e5c03000 	strb	r3, [r0]
    87d4:	e12fff1e 	bx	lr

000087d8 <reverse>:
    87d8:	e063c002 	rsb	ip, r3, r2
    87dc:	e28cc001 	add	ip, ip, #1
    87e0:	e15c0001 	cmp	ip, r1
    87e4:	c061100c 	rsbgt	r1, r1, ip
    87e8:	c0833001 	addgt	r3, r3, r1
    87ec:	e2422001 	sub	r2, r2, #1
    87f0:	e1a01000 	mov	r1, r0
    87f4:	ea000002 	b	8804 <reverse+0x2c>
    87f8:	e452c001 	ldrb	ip, [r2], #-1
    87fc:	e5c1c000 	strb	ip, [r1]
    8800:	e2811001 	add	r1, r1, #1
    8804:	e1520003 	cmp	r2, r3
    8808:	2afffffa 	bcs	87f8 <reverse+0x20>
    880c:	e3a03000 	mov	r3, #0
    8810:	e5c13000 	strb	r3, [r1]
    8814:	e12fff1e 	bx	lr

00008818 <emit>:
    8818:	e92d41f0 	push	{r4, r5, r6, r7, r8, lr}
    881c:	e24dd048 	sub	sp, sp, #72	; 0x48
    8820:	e1a05001 	mov	r5, r1
    8824:	e1a04002 	mov	r4, r2
    8828:	e59d2060 	ldr	r2, [sp, #96]	; 0x60
    882c:	e1520004 	cmp	r2, r4
    8830:	c2442001 	subgt	r2, r4, #1
    8834:	e1a0c003 	mov	ip, r3
    8838:	e2400002 	sub	r0, r0, #2
    883c:	e350000e 	cmp	r0, #14
    8840:	979ff100 	ldrls	pc, [pc, r0, lsl #2]
    8844:	ea000042 	b	8954 <emit+0x13c>
    8848:	0000892c 	andeq	r8, r0, ip, lsr #18
    884c:	00008954 	andeq	r8, r0, r4, asr r9
    8850:	00008954 	andeq	r8, r0, r4, asr r9
    8854:	00008954 	andeq	r8, r0, r4, asr r9
    8858:	00008954 	andeq	r8, r0, r4, asr r9
    885c:	00008954 	andeq	r8, r0, r4, asr r9
    8860:	00008920 	andeq	r8, r0, r0, lsr #18
    8864:	00008954 	andeq	r8, r0, r4, asr r9
    8868:	00008884 	andeq	r8, r0, r4, lsl #17
    886c:	00008954 	andeq	r8, r0, r4, asr r9
    8870:	00008954 	andeq	r8, r0, r4, asr r9
    8874:	00008954 	andeq	r8, r0, r4, asr r9
    8878:	00008954 	andeq	r8, r0, r4, asr r9
    887c:	00008954 	andeq	r8, r0, r4, asr r9
    8880:	000088f8 	strdeq	r8, [r0], -r8	; <UNPREDICTABLE>
    8884:	e59d1064 	ldr	r1, [sp, #100]	; 0x64
    8888:	e2911000 	adds	r1, r1, #0
    888c:	13a01001 	movne	r1, #1
    8890:	e0111fa3 	ands	r1, r1, r3, lsr #31
    8894:	1263c000 	rsbne	ip, r3, #0
    8898:	13a08001 	movne	r8, #1
    889c:	03a08000 	moveq	r8, #0
    88a0:	e28d1008 	add	r1, sp, #8
    88a4:	e59f70f4 	ldr	r7, [pc, #244]	; 89a0 <emit+0x188>
    88a8:	e59f60f4 	ldr	r6, [pc, #244]	; 89a4 <emit+0x18c>
    88ac:	ea000000 	b	88b4 <emit+0x9c>
    88b0:	e1a01003 	mov	r1, r3
    88b4:	e2813001 	add	r3, r1, #1
    88b8:	e08e0c97 	umull	r0, lr, r7, ip
    88bc:	e1a0e1ae 	lsr	lr, lr, #3
    88c0:	e1a0000e 	mov	r0, lr
    88c4:	e08ee10e 	add	lr, lr, lr, lsl #2
    88c8:	e1a0e08e 	lsl	lr, lr, #1
    88cc:	e06ee00c 	rsb	lr, lr, ip
    88d0:	e7d6c00e 	ldrb	ip, [r6, lr]
    88d4:	e5c1c000 	strb	ip, [r1]
    88d8:	e1a0c000 	mov	ip, r0
    88dc:	e3500000 	cmp	r0, #0
    88e0:	1afffff2 	bne	88b0 <emit+0x98>
    88e4:	e3580000 	cmp	r8, #0
    88e8:	12813002 	addne	r3, r1, #2
    88ec:	13a0002d 	movne	r0, #45	; 0x2d
    88f0:	15c10001 	strbne	r0, [r1, #1]
    88f4:	ea00001f 	b	8978 <emit+0x160>
    88f8:	e28de008 	add	lr, sp, #8
    88fc:	e59f00a4 	ldr	r0, [pc, #164]	; 89a8 <emit+0x190>
    8900:	e28e3001 	add	r3, lr, #1
    8904:	e20c100f 	and	r1, ip, #15
    8908:	e7d01001 	ldrb	r1, [r0, r1]
    890c:	e5ce1000 	strb	r1, [lr]
    8910:	e1a0e003 	mov	lr, r3
    8914:	e1b0c22c 	lsrs	ip, ip, #4
    8918:	1afffff8 	bne	8900 <emit+0xe8>
    891c:	ea000015 	b	8978 <emit+0x160>
    8920:	e5cd3008 	strb	r3, [sp, #8]
    8924:	e28d3009 	add	r3, sp, #9
    8928:	ea000012 	b	8978 <emit+0x160>
    892c:	e28de008 	add	lr, sp, #8
    8930:	e59f0074 	ldr	r0, [pc, #116]	; 89ac <emit+0x194>
    8934:	e28e3001 	add	r3, lr, #1
    8938:	e20c1001 	and	r1, ip, #1
    893c:	e7d01001 	ldrb	r1, [r0, r1]
    8940:	e5ce1000 	strb	r1, [lr]
    8944:	e1a0e003 	mov	lr, r3
    8948:	e1b0c0ac 	lsrs	ip, ip, #1
    894c:	1afffff8 	bne	8934 <emit+0x11c>
    8950:	ea000008 	b	8978 <emit+0x160>
    8954:	ebffff78 	bl	873c <rpi_reset_putc>
    8958:	e59f3050 	ldr	r3, [pc, #80]	; 89b0 <emit+0x198>
    895c:	e58d3000 	str	r3, [sp]
    8960:	e59f004c 	ldr	r0, [pc, #76]	; 89b4 <emit+0x19c>
    8964:	e59f104c 	ldr	r1, [pc, #76]	; 89b8 <emit+0x1a0>
    8968:	e59f204c 	ldr	r2, [pc, #76]	; 89bc <emit+0x1a4>
    896c:	e3a03075 	mov	r3, #117	; 0x75
    8970:	ebffff56 	bl	86d0 <printk>
    8974:	eb0000d8 	bl	8cdc <clean_reboot>
    8978:	e1a00003 	mov	r0, r3
    897c:	e28d1008 	add	r1, sp, #8
    8980:	ebffff89 	bl	87ac <pad>
    8984:	e1a02000 	mov	r2, r0
    8988:	e1a00005 	mov	r0, r5
    898c:	e1a01004 	mov	r1, r4
    8990:	e28d3008 	add	r3, sp, #8
    8994:	ebffff8f 	bl	87d8 <reverse>
    8998:	e28dd048 	add	sp, sp, #72	; 0x48
    899c:	e8bd81f0 	pop	{r4, r5, r6, r7, r8, pc}
    89a0:	cccccccd 	stclgt	12, cr12, [ip], {205}	; 0xcd
    89a4:	0000a11c 	andeq	sl, r0, ip, lsl r1
    89a8:	0000a128 	andeq	sl, r0, r8, lsr #2
    89ac:	0000a13c 	andeq	sl, r0, ip, lsr r1
    89b0:	0000a118 	andeq	sl, r0, r8, lsl r1
    89b4:	0000a0f0 	strdeq	sl, [r0], -r0
    89b8:	0000a104 	andeq	sl, r0, r4, lsl #2
    89bc:	0000a0cc 	andeq	sl, r0, ip, asr #1

000089c0 <rpi_set_output>:
    89c0:	e52de004 	push	{lr}		; (str lr, [sp, #-4]!)
    89c4:	e24dd00c 	sub	sp, sp, #12
    89c8:	e3500000 	cmp	r0, #0
    89cc:	1a000008 	bne	89f4 <rpi_set_output+0x34>
    89d0:	ebffff59 	bl	873c <rpi_reset_putc>
    89d4:	e59f3034 	ldr	r3, [pc, #52]	; 8a10 <rpi_set_output+0x50>
    89d8:	e58d3000 	str	r3, [sp]
    89dc:	e59f0030 	ldr	r0, [pc, #48]	; 8a14 <rpi_set_output+0x54>
    89e0:	e59f1030 	ldr	r1, [pc, #48]	; 8a18 <rpi_set_output+0x58>
    89e4:	e59f2030 	ldr	r2, [pc, #48]	; 8a1c <rpi_set_output+0x5c>
    89e8:	e3a03020 	mov	r3, #32
    89ec:	ebffff37 	bl	86d0 <printk>
    89f0:	eb0000b9 	bl	8cdc <clean_reboot>
    89f4:	e59f3024 	ldr	r3, [pc, #36]	; 8a20 <rpi_set_output+0x60>
    89f8:	e5830000 	str	r0, [r3]
    89fc:	e3510000 	cmp	r1, #0
    8a00:	159f301c 	ldrne	r3, [pc, #28]	; 8a24 <rpi_set_output+0x64>
    8a04:	15831000 	strne	r1, [r3]
    8a08:	e28dd00c 	add	sp, sp, #12
    8a0c:	e49df004 	pop	{pc}		; (ldr pc, [sp], #4)
    8a10:	0000a140 	andeq	sl, r0, r0, asr #2
    8a14:	0000a0f0 	strdeq	sl, [r0], -r0
    8a18:	0000a104 	andeq	sl, r0, r4, lsl #2
    8a1c:	0000a0d4 	ldrdeq	sl, [r0], -r4
    8a20:	00009f8c 	andeq	r9, r0, ip, lsl #31
    8a24:	00009f90 	muleq	r0, r0, pc	; <UNPREDICTABLE>

00008a28 <va_printk>:
    8a28:	e92d4ff0 	push	{r4, r5, r6, r7, r8, r9, sl, fp, lr}
    8a2c:	e24dd08c 	sub	sp, sp, #140	; 0x8c
    8a30:	e1a0a000 	mov	sl, r0
    8a34:	e1a09003 	mov	r9, r3
    8a38:	e2411001 	sub	r1, r1, #1
    8a3c:	e0808001 	add	r8, r0, r1
    8a40:	e3a03000 	mov	r3, #0
    8a44:	e5c03000 	strb	r3, [r0]
    8a48:	e1a04000 	mov	r4, r0
    8a4c:	e1a0b003 	mov	fp, r3
    8a50:	ea000088 	b	8c78 <va_printk+0x250>
    8a54:	e3530025 	cmp	r3, #37	; 0x25
    8a58:	12822001 	addne	r2, r2, #1
    8a5c:	15c43000 	strbne	r3, [r4]
    8a60:	12844001 	addne	r4, r4, #1
    8a64:	1a000083 	bne	8c78 <va_printk+0x250>
    8a68:	e5d21001 	ldrb	r1, [r2, #1]
    8a6c:	e3510025 	cmp	r1, #37	; 0x25
    8a70:	05c43000 	strbeq	r3, [r4]
    8a74:	02822002 	addeq	r2, r2, #2
    8a78:	02844001 	addeq	r4, r4, #1
    8a7c:	0a00007d 	beq	8c78 <va_printk+0x250>
    8a80:	e2826001 	add	r6, r2, #1
    8a84:	e1a0700b 	mov	r7, fp
    8a88:	ea000004 	b	8aa0 <va_printk+0x78>
    8a8c:	e0877107 	add	r7, r7, r7, lsl #2
    8a90:	e1a07087 	lsl	r7, r7, #1
    8a94:	e0877005 	add	r7, r7, r5
    8a98:	e2477030 	sub	r7, r7, #48	; 0x30
    8a9c:	e2866001 	add	r6, r6, #1
    8aa0:	e5d65000 	ldrb	r5, [r6]
    8aa4:	e1a00005 	mov	r0, r5
    8aa8:	ebffff3a 	bl	8798 <isdigit>
    8aac:	e3500000 	cmp	r0, #0
    8ab0:	1afffff5 	bne	8a8c <va_printk+0x64>
    8ab4:	e357001f 	cmp	r7, #31
    8ab8:	9a000008 	bls	8ae0 <va_printk+0xb8>
    8abc:	ebffff1e 	bl	873c <rpi_reset_putc>
    8ac0:	e59f31dc 	ldr	r3, [pc, #476]	; 8ca4 <va_printk+0x27c>
    8ac4:	e58d3000 	str	r3, [sp]
    8ac8:	e59f01d8 	ldr	r0, [pc, #472]	; 8ca8 <va_printk+0x280>
    8acc:	e59f11d8 	ldr	r1, [pc, #472]	; 8cac <va_printk+0x284>
    8ad0:	e59f21d8 	ldr	r2, [pc, #472]	; 8cb0 <va_printk+0x288>
    8ad4:	e3a03092 	mov	r3, #146	; 0x92
    8ad8:	ebfffefc 	bl	86d0 <printk>
    8adc:	eb00007e 	bl	8cdc <clean_reboot>
    8ae0:	e2455062 	sub	r5, r5, #98	; 0x62
    8ae4:	e3550016 	cmp	r5, #22
    8ae8:	979ff105 	ldrls	pc, [pc, r5, lsl #2]
    8aec:	ea00004e 	b	8c2c <va_printk+0x204>
    8af0:	00008bd8 	ldrdeq	r8, [r0], -r8	; <UNPREDICTABLE>
    8af4:	00008c08 	andeq	r8, r0, r8, lsl #24
    8af8:	00008b68 	andeq	r8, r0, r8, ror #22
    8afc:	00008c2c 	andeq	r8, r0, ip, lsr #24
    8b00:	00008b4c 	andeq	r8, r0, ip, asr #22
    8b04:	00008c2c 	andeq	r8, r0, ip, lsr #24
    8b08:	00008c2c 	andeq	r8, r0, ip, lsr #24
    8b0c:	00008c2c 	andeq	r8, r0, ip, lsr #24
    8b10:	00008c2c 	andeq	r8, r0, ip, lsr #24
    8b14:	00008c2c 	andeq	r8, r0, ip, lsr #24
    8b18:	00008c2c 	andeq	r8, r0, ip, lsr #24
    8b1c:	00008c2c 	andeq	r8, r0, ip, lsr #24
    8b20:	00008c2c 	andeq	r8, r0, ip, lsr #24
    8b24:	00008c2c 	andeq	r8, r0, ip, lsr #24
    8b28:	00008bb4 			; <UNDEFINED> instruction: 0x00008bb4
    8b2c:	00008c2c 	andeq	r8, r0, ip, lsr #24
    8b30:	00008c2c 	andeq	r8, r0, ip, lsr #24
    8b34:	00008bfc 	strdeq	r8, [r0], -ip
    8b38:	00008c2c 	andeq	r8, r0, ip, lsr #24
    8b3c:	00008b90 	muleq	r0, r0, fp
    8b40:	00008c2c 	andeq	r8, r0, ip, lsr #24
    8b44:	00008c2c 	andeq	r8, r0, ip, lsr #24
    8b48:	00008bb4 			; <UNDEFINED> instruction: 0x00008bb4
    8b4c:	ebfffefa 	bl	873c <rpi_reset_putc>
    8b50:	e59f015c 	ldr	r0, [pc, #348]	; 8cb4 <va_printk+0x28c>
    8b54:	e59f1150 	ldr	r1, [pc, #336]	; 8cac <va_printk+0x284>
    8b58:	e59f2150 	ldr	r2, [pc, #336]	; 8cb0 <va_printk+0x288>
    8b5c:	e3a03098 	mov	r3, #152	; 0x98
    8b60:	ebfffeda 	bl	86d0 <printk>
    8b64:	eb00005c 	bl	8cdc <clean_reboot>
    8b68:	e5993000 	ldr	r3, [r9]
    8b6c:	e2899004 	add	r9, r9, #4
    8b70:	e58d7000 	str	r7, [sp]
    8b74:	e3a02001 	mov	r2, #1
    8b78:	e58d2004 	str	r2, [sp, #4]
    8b7c:	e3a0000a 	mov	r0, #10
    8b80:	e28d1008 	add	r1, sp, #8
    8b84:	e3a02080 	mov	r2, #128	; 0x80
    8b88:	ebffff22 	bl	8818 <emit>
    8b8c:	ea00002f 	b	8c50 <va_printk+0x228>
    8b90:	e5993000 	ldr	r3, [r9]
    8b94:	e2899004 	add	r9, r9, #4
    8b98:	e58d7000 	str	r7, [sp]
    8b9c:	e58db004 	str	fp, [sp, #4]
    8ba0:	e3a0000a 	mov	r0, #10
    8ba4:	e28d1008 	add	r1, sp, #8
    8ba8:	e3a02080 	mov	r2, #128	; 0x80
    8bac:	ebffff19 	bl	8818 <emit>
    8bb0:	ea000026 	b	8c50 <va_printk+0x228>
    8bb4:	e5993000 	ldr	r3, [r9]
    8bb8:	e2899004 	add	r9, r9, #4
    8bbc:	e58d7000 	str	r7, [sp]
    8bc0:	e58db004 	str	fp, [sp, #4]
    8bc4:	e3a00010 	mov	r0, #16
    8bc8:	e28d1008 	add	r1, sp, #8
    8bcc:	e3a02080 	mov	r2, #128	; 0x80
    8bd0:	ebffff10 	bl	8818 <emit>
    8bd4:	ea00001d 	b	8c50 <va_printk+0x228>
    8bd8:	e5993000 	ldr	r3, [r9]
    8bdc:	e2899004 	add	r9, r9, #4
    8be0:	e58d7000 	str	r7, [sp]
    8be4:	e58db004 	str	fp, [sp, #4]
    8be8:	e3a00002 	mov	r0, #2
    8bec:	e28d1008 	add	r1, sp, #8
    8bf0:	e3a02080 	mov	r2, #128	; 0x80
    8bf4:	ebffff07 	bl	8818 <emit>
    8bf8:	ea000014 	b	8c50 <va_printk+0x228>
    8bfc:	e5990000 	ldr	r0, [r9]
    8c00:	e2899004 	add	r9, r9, #4
    8c04:	ea000011 	b	8c50 <va_printk+0x228>
    8c08:	e5993000 	ldr	r3, [r9]
    8c0c:	e2899004 	add	r9, r9, #4
    8c10:	e58d7000 	str	r7, [sp]
    8c14:	e58db004 	str	fp, [sp, #4]
    8c18:	e3a00008 	mov	r0, #8
    8c1c:	e08d1000 	add	r1, sp, r0
    8c20:	e3a02080 	mov	r2, #128	; 0x80
    8c24:	ebfffefb 	bl	8818 <emit>
    8c28:	ea000008 	b	8c50 <va_printk+0x228>
    8c2c:	ebfffec2 	bl	873c <rpi_reset_putc>
    8c30:	e5d63000 	ldrb	r3, [r6]
    8c34:	e58d3000 	str	r3, [sp]
    8c38:	e59f0078 	ldr	r0, [pc, #120]	; 8cb8 <va_printk+0x290>
    8c3c:	e59f1068 	ldr	r1, [pc, #104]	; 8cac <va_printk+0x284>
    8c40:	e59f2068 	ldr	r2, [pc, #104]	; 8cb0 <va_printk+0x288>
    8c44:	e3a030b9 	mov	r3, #185	; 0xb9
    8c48:	ebfffea0 	bl	86d0 <printk>
    8c4c:	eb000022 	bl	8cdc <clean_reboot>
    8c50:	e2862001 	add	r2, r6, #1
    8c54:	ea000002 	b	8c64 <va_printk+0x23c>
    8c58:	e2800001 	add	r0, r0, #1
    8c5c:	e5c43000 	strb	r3, [r4]
    8c60:	e2844001 	add	r4, r4, #1
    8c64:	e1540008 	cmp	r4, r8
    8c68:	2a000002 	bcs	8c78 <va_printk+0x250>
    8c6c:	e5d03000 	ldrb	r3, [r0]
    8c70:	e3530000 	cmp	r3, #0
    8c74:	1afffff7 	bne	8c58 <va_printk+0x230>
    8c78:	e5d23000 	ldrb	r3, [r2]
    8c7c:	e3530000 	cmp	r3, #0
    8c80:	0a000001 	beq	8c8c <va_printk+0x264>
    8c84:	e1540008 	cmp	r4, r8
    8c88:	3affff71 	bcc	8a54 <va_printk+0x2c>
    8c8c:	e2840001 	add	r0, r4, #1
    8c90:	e3a03000 	mov	r3, #0
    8c94:	e5c43000 	strb	r3, [r4]
    8c98:	e06a0000 	rsb	r0, sl, r0
    8c9c:	e28dd08c 	add	sp, sp, #140	; 0x8c
    8ca0:	e8bd8ff0 	pop	{r4, r5, r6, r7, r8, r9, sl, fp, pc}
    8ca4:	0000a148 	andeq	sl, r0, r8, asr #2
    8ca8:	0000a0f0 	strdeq	sl, [r0], -r0
    8cac:	0000a104 	andeq	sl, r0, r4, lsl #2
    8cb0:	0000a0e4 	andeq	sl, r0, r4, ror #1
    8cb4:	0000a154 	andeq	sl, r0, r4, asr r1
    8cb8:	0000a17c 	andeq	sl, r0, ip, ror r1

00008cbc <enable_cache>:
    8cbc:	ee113f10 	mrc	15, 0, r3, cr1, cr0, {0}
    8cc0:	e3833b06 	orr	r3, r3, #6144	; 0x1800
    8cc4:	ee013f10 	mcr	15, 0, r3, cr1, cr0, {0}
    8cc8:	e12fff1e 	bx	lr

00008ccc <disable_cache>:
    8ccc:	ee113f10 	mrc	15, 0, r3, cr1, cr0, {0}
    8cd0:	e3c33b06 	bic	r3, r3, #6144	; 0x1800
    8cd4:	ee013f10 	mcr	15, 0, r3, cr1, cr0, {0}
    8cd8:	e12fff1e 	bx	lr

00008cdc <clean_reboot>:
    8cdc:	e92d4008 	push	{r3, lr}
    8ce0:	e59f3014 	ldr	r3, [pc, #20]	; 8cfc <clean_reboot+0x20>
    8ce4:	e5933000 	ldr	r3, [r3]
    8ce8:	e59f0010 	ldr	r0, [pc, #16]	; 8d00 <clean_reboot+0x24>
    8cec:	e12fff33 	blx	r3
    8cf0:	e3a00064 	mov	r0, #100	; 0x64
    8cf4:	eb000063 	bl	8e88 <delay_ms>
    8cf8:	eb000038 	bl	8de0 <rpi_reboot>
    8cfc:	00009f90 	muleq	r0, r0, pc	; <UNPREDICTABLE>
    8d00:	0000a1b4 			; <UNDEFINED> instruction: 0x0000a1b4

00008d04 <internal_sw_putchar>:
    8d04:	e92d4010 	push	{r4, lr}
    8d08:	e1a04000 	mov	r4, r0
    8d0c:	e59f000c 	ldr	r0, [pc, #12]	; 8d20 <internal_sw_putchar+0x1c>
    8d10:	e6ef1074 	uxtb	r1, r4
    8d14:	eb0001cd 	bl	9450 <sw_uart_putc>
    8d18:	e1a00004 	mov	r0, r4
    8d1c:	e8bd8010 	pop	{r4, pc}
    8d20:	0000a8e8 	andeq	sl, r0, r8, ror #17

00008d24 <_cstart>:
    8d24:	e92d4008 	push	{r3, lr}
    8d28:	e59f3068 	ldr	r3, [pc, #104]	; 8d98 <_cstart+0x74>
    8d2c:	e59f2068 	ldr	r2, [pc, #104]	; 8d9c <_cstart+0x78>
    8d30:	e3a01000 	mov	r1, #0
    8d34:	ea000001 	b	8d40 <_cstart+0x1c>
    8d38:	e5831000 	str	r1, [r3]
    8d3c:	e2833004 	add	r3, r3, #4
    8d40:	e1530002 	cmp	r3, r2
    8d44:	3afffffb 	bcc	8d38 <_cstart+0x14>
    8d48:	eb000438 	bl	9e30 <cb_get_block>
    8d4c:	e3500000 	cmp	r0, #0
    8d50:	0a00000e 	beq	8d90 <_cstart+0x6c>
    8d54:	e5d02004 	ldrb	r2, [r0, #4]
    8d58:	e3520002 	cmp	r2, #2
    8d5c:	1a00000b 	bne	8d90 <_cstart+0x6c>
    8d60:	e59f1038 	ldr	r1, [pc, #56]	; 8da0 <_cstart+0x7c>
    8d64:	e59f2038 	ldr	r2, [pc, #56]	; 8da4 <_cstart+0x80>
    8d68:	e5821000 	str	r1, [r2]
    8d6c:	e59fc034 	ldr	ip, [pc, #52]	; 8da8 <_cstart+0x84>
    8d70:	e2803008 	add	r3, r0, #8
    8d74:	e8930007 	ldm	r3, {r0, r1, r2}
    8d78:	e88c0007 	stm	ip, {r0, r1, r2}
    8d7c:	e1a0000c 	mov	r0, ip
    8d80:	e59f1024 	ldr	r1, [pc, #36]	; 8dac <_cstart+0x88>
    8d84:	eb000314 	bl	99dc <sw_uart_printk>
    8d88:	e59f0020 	ldr	r0, [pc, #32]	; 8db0 <_cstart+0x8c>
    8d8c:	ebfffe4f 	bl	86d0 <printk>
    8d90:	ebfffe3d 	bl	868c <notmain>
    8d94:	eb000011 	bl	8de0 <rpi_reboot>
    8d98:	0000a4d0 	ldrdeq	sl, [r0], -r0
    8d9c:	0000a8f8 	strdeq	sl, [r0], -r8
    8da0:	00008d04 	andeq	r8, r0, r4, lsl #26
    8da4:	00009f8c 	andeq	r9, r0, ip, lsl #31
    8da8:	0000a8e8 	andeq	sl, r0, r8, ror #17
    8dac:	0000a1c0 	andeq	sl, r0, r0, asr #3
    8db0:	0000a1e4 	andeq	sl, r0, r4, ror #3

00008db4 <at_user_level>:
    8db4:	e10f0000 	mrs	r0, CPSR
    8db8:	e200001f 	and	r0, r0, #31
    8dbc:	e3500010 	cmp	r0, #16
    8dc0:	13a00000 	movne	r0, #0
    8dc4:	03a00001 	moveq	r0, #1
    8dc8:	e12fff1e 	bx	lr

00008dcc <set_user_level>:
    8dcc:	e10f3000 	mrs	r3, CPSR
    8dd0:	e3c3301f 	bic	r3, r3, #31
    8dd4:	e3833010 	orr	r3, r3, #16
    8dd8:	e129f003 	msr	CPSR_fc, r3
    8ddc:	e12fff1e 	bx	lr

00008de0 <rpi_reboot>:
    8de0:	e92d4008 	push	{r3, lr}
    8de4:	ebfffff2 	bl	8db4 <at_user_level>
    8de8:	e3500000 	cmp	r0, #0
    8dec:	0a000000 	beq	8df4 <rpi_reboot+0x14>
    8df0:	ebfffff5 	bl	8dcc <set_user_level>
    8df4:	e3a0001e 	mov	r0, #30
    8df8:	eb000022 	bl	8e88 <delay_ms>
    8dfc:	e59f0014 	ldr	r0, [pc, #20]	; 8e18 <rpi_reboot+0x38>
    8e00:	e59f1014 	ldr	r1, [pc, #20]	; 8e1c <rpi_reboot+0x3c>
    8e04:	eb0003b3 	bl	9cd8 <PUT32>
    8e08:	e59f0010 	ldr	r0, [pc, #16]	; 8e20 <rpi_reboot+0x40>
    8e0c:	e59f1010 	ldr	r1, [pc, #16]	; 8e24 <rpi_reboot+0x44>
    8e10:	eb0003b0 	bl	9cd8 <PUT32>
    8e14:	eafffffe 	b	8e14 <rpi_reboot+0x34>
    8e18:	20100024 	andscs	r0, r0, r4, lsr #32
    8e1c:	5a000001 	bpl	8e28 <delay_cycles>
    8e20:	2010001c 	andscs	r0, r0, ip, lsl r0
    8e24:	5a000020 	bpl	8eac <delay_sec+0x10>

00008e28 <delay_cycles>:
    8e28:	ea000001 	b	8e34 <delay_cycles+0xc>
    8e2c:	e2811000 	add	r1, r1, #0
    8e30:	e1a00003 	mov	r0, r3
    8e34:	e2403001 	sub	r3, r0, #1
    8e38:	e3500000 	cmp	r0, #0
    8e3c:	1afffffa 	bne	8e2c <delay_cycles+0x4>
    8e40:	e12fff1e 	bx	lr

00008e44 <timer_get_usec_raw>:
    8e44:	e92d4008 	push	{r3, lr}
    8e48:	e59f0004 	ldr	r0, [pc, #4]	; 8e54 <timer_get_usec_raw+0x10>
    8e4c:	eb0003ad 	bl	9d08 <GET32>
    8e50:	e8bd8008 	pop	{r3, pc}
    8e54:	20003004 	andcs	r3, r0, r4

00008e58 <timer_get_usec>:
    8e58:	e92d4008 	push	{r3, lr}
    8e5c:	ebfffff8 	bl	8e44 <timer_get_usec_raw>
    8e60:	e8bd8008 	pop	{r3, pc}

00008e64 <delay_us>:
    8e64:	e92d4038 	push	{r3, r4, r5, lr}
    8e68:	e1a05000 	mov	r5, r0
    8e6c:	ebfffff9 	bl	8e58 <timer_get_usec>
    8e70:	e1a04000 	mov	r4, r0
    8e74:	ebfffff7 	bl	8e58 <timer_get_usec>
    8e78:	e0640000 	rsb	r0, r4, r0
    8e7c:	e1500005 	cmp	r0, r5
    8e80:	3afffffb 	bcc	8e74 <delay_us+0x10>
    8e84:	e8bd8038 	pop	{r3, r4, r5, pc}

00008e88 <delay_ms>:
    8e88:	e92d4008 	push	{r3, lr}
    8e8c:	e3a03ffa 	mov	r3, #1000	; 0x3e8
    8e90:	e0000093 	mul	r0, r3, r0
    8e94:	ebfffff2 	bl	8e64 <delay_us>
    8e98:	e8bd8008 	pop	{r3, pc}

00008e9c <delay_sec>:
    8e9c:	e92d4008 	push	{r3, lr}
    8ea0:	e3a03ffa 	mov	r3, #1000	; 0x3e8
    8ea4:	e0000093 	mul	r0, r3, r0
    8ea8:	ebfffff6 	bl	8e88 <delay_ms>
    8eac:	e8bd8008 	pop	{r3, pc}

00008eb0 <gpio_set_output>:
    8eb0:	e92d4038 	push	{r3, r4, r5, lr}
    8eb4:	e1a04000 	mov	r4, r0
    8eb8:	e350001f 	cmp	r0, #31
    8ebc:	88bd8038 	pophi	{r3, r4, r5, pc}
    8ec0:	e59f30b4 	ldr	r3, [pc, #180]	; 8f7c <gpio_set_output+0xcc>
    8ec4:	e0832093 	umull	r2, r3, r3, r0
    8ec8:	e1a031a3 	lsr	r3, r3, #3
    8ecc:	e3530005 	cmp	r3, #5
    8ed0:	979ff103 	ldrls	pc, [pc, r3, lsl #2]
    8ed4:	ea000017 	b	8f38 <gpio_set_output+0x88>
    8ed8:	00008ef0 	strdeq	r8, [r0], -r0
    8edc:	00008efc 	strdeq	r8, [r0], -ip
    8ee0:	00008f08 	andeq	r8, r0, r8, lsl #30
    8ee4:	00008f14 	andeq	r8, r0, r4, lsl pc
    8ee8:	00008f20 	andeq	r8, r0, r0, lsr #30
    8eec:	00008f2c 	andeq	r8, r0, ip, lsr #30
    8ef0:	e59f3088 	ldr	r3, [pc, #136]	; 8f80 <gpio_set_output+0xd0>
    8ef4:	e5935000 	ldr	r5, [r3]
    8ef8:	ea00000f 	b	8f3c <gpio_set_output+0x8c>
    8efc:	e59f307c 	ldr	r3, [pc, #124]	; 8f80 <gpio_set_output+0xd0>
    8f00:	e5935004 	ldr	r5, [r3, #4]
    8f04:	ea00000c 	b	8f3c <gpio_set_output+0x8c>
    8f08:	e59f3070 	ldr	r3, [pc, #112]	; 8f80 <gpio_set_output+0xd0>
    8f0c:	e5935008 	ldr	r5, [r3, #8]
    8f10:	ea000009 	b	8f3c <gpio_set_output+0x8c>
    8f14:	e59f3064 	ldr	r3, [pc, #100]	; 8f80 <gpio_set_output+0xd0>
    8f18:	e593500c 	ldr	r5, [r3, #12]
    8f1c:	ea000006 	b	8f3c <gpio_set_output+0x8c>
    8f20:	e59f3058 	ldr	r3, [pc, #88]	; 8f80 <gpio_set_output+0xd0>
    8f24:	e5935010 	ldr	r5, [r3, #16]
    8f28:	ea000003 	b	8f3c <gpio_set_output+0x8c>
    8f2c:	e59f304c 	ldr	r3, [pc, #76]	; 8f80 <gpio_set_output+0xd0>
    8f30:	e5935014 	ldr	r5, [r3, #20]
    8f34:	ea000000 	b	8f3c <gpio_set_output+0x8c>
    8f38:	e3a05000 	mov	r5, #0
    8f3c:	e1a00005 	mov	r0, r5
    8f40:	eb00036e 	bl	9d00 <get32>
    8f44:	e59f1030 	ldr	r1, [pc, #48]	; 8f7c <gpio_set_output+0xcc>
    8f48:	e0813491 	umull	r3, r1, r1, r4
    8f4c:	e1a011a1 	lsr	r1, r1, #3
    8f50:	e0811101 	add	r1, r1, r1, lsl #2
    8f54:	e1a01081 	lsl	r1, r1, #1
    8f58:	e0611004 	rsb	r1, r1, r4
    8f5c:	e0811081 	add	r1, r1, r1, lsl #1
    8f60:	e3a03007 	mov	r3, #7
    8f64:	e1c03113 	bic	r3, r0, r3, lsl r1
    8f68:	e1a00005 	mov	r0, r5
    8f6c:	e3a02001 	mov	r2, #1
    8f70:	e1831112 	orr	r1, r3, r2, lsl r1
    8f74:	eb000355 	bl	9cd0 <put32>
    8f78:	e8bd8038 	pop	{r3, r4, r5, pc}
    8f7c:	cccccccd 	stclgt	12, cr12, [ip], {205}	; 0xcd
    8f80:	00009f94 	muleq	r0, r4, pc	; <UNPREDICTABLE>

00008f84 <gpio_set_on>:
    8f84:	e92d4008 	push	{r3, lr}
    8f88:	e350001f 	cmp	r0, #31
    8f8c:	88bd8008 	pophi	{r3, pc}
    8f90:	959f3020 	ldrls	r3, [pc, #32]	; 8fb8 <gpio_set_on+0x34>
    8f94:	95932018 	ldrls	r2, [r3, #24]
    8f98:	859f3018 	ldrhi	r3, [pc, #24]	; 8fb8 <gpio_set_on+0x34>
    8f9c:	8593201c 	ldrhi	r2, [r3, #28]
    8fa0:	e200301f 	and	r3, r0, #31
    8fa4:	e1a00002 	mov	r0, r2
    8fa8:	e3a01001 	mov	r1, #1
    8fac:	e1a01311 	lsl	r1, r1, r3
    8fb0:	eb000346 	bl	9cd0 <put32>
    8fb4:	e8bd8008 	pop	{r3, pc}
    8fb8:	00009f94 	muleq	r0, r4, pc	; <UNPREDICTABLE>

00008fbc <gpio_set_off>:
    8fbc:	e92d4008 	push	{r3, lr}
    8fc0:	e350001f 	cmp	r0, #31
    8fc4:	88bd8008 	pophi	{r3, pc}
    8fc8:	959f3020 	ldrls	r3, [pc, #32]	; 8ff0 <gpio_set_off+0x34>
    8fcc:	95932020 	ldrls	r2, [r3, #32]
    8fd0:	859f3018 	ldrhi	r3, [pc, #24]	; 8ff0 <gpio_set_off+0x34>
    8fd4:	85932024 	ldrhi	r2, [r3, #36]	; 0x24
    8fd8:	e200301f 	and	r3, r0, #31
    8fdc:	e1a00002 	mov	r0, r2
    8fe0:	e3a01001 	mov	r1, #1
    8fe4:	e1a01311 	lsl	r1, r1, r3
    8fe8:	eb000338 	bl	9cd0 <put32>
    8fec:	e8bd8008 	pop	{r3, pc}
    8ff0:	00009f94 	muleq	r0, r4, pc	; <UNPREDICTABLE>

00008ff4 <gpio_set_input>:
    8ff4:	e92d4038 	push	{r3, r4, r5, lr}
    8ff8:	e1a04000 	mov	r4, r0
    8ffc:	e350001f 	cmp	r0, #31
    9000:	88bd8038 	pophi	{r3, r4, r5, pc}
    9004:	e59f30ac 	ldr	r3, [pc, #172]	; 90b8 <gpio_set_input+0xc4>
    9008:	e0832093 	umull	r2, r3, r3, r0
    900c:	e1a031a3 	lsr	r3, r3, #3
    9010:	e3530005 	cmp	r3, #5
    9014:	979ff103 	ldrls	pc, [pc, r3, lsl #2]
    9018:	ea000017 	b	907c <gpio_set_input+0x88>
    901c:	00009034 	andeq	r9, r0, r4, lsr r0
    9020:	00009040 	andeq	r9, r0, r0, asr #32
    9024:	0000904c 	andeq	r9, r0, ip, asr #32
    9028:	00009058 	andeq	r9, r0, r8, asr r0
    902c:	00009064 	andeq	r9, r0, r4, rrx
    9030:	00009070 	andeq	r9, r0, r0, ror r0
    9034:	e59f3080 	ldr	r3, [pc, #128]	; 90bc <gpio_set_input+0xc8>
    9038:	e5935000 	ldr	r5, [r3]
    903c:	ea00000f 	b	9080 <gpio_set_input+0x8c>
    9040:	e59f3074 	ldr	r3, [pc, #116]	; 90bc <gpio_set_input+0xc8>
    9044:	e5935004 	ldr	r5, [r3, #4]
    9048:	ea00000c 	b	9080 <gpio_set_input+0x8c>
    904c:	e59f3068 	ldr	r3, [pc, #104]	; 90bc <gpio_set_input+0xc8>
    9050:	e5935008 	ldr	r5, [r3, #8]
    9054:	ea000009 	b	9080 <gpio_set_input+0x8c>
    9058:	e59f305c 	ldr	r3, [pc, #92]	; 90bc <gpio_set_input+0xc8>
    905c:	e593500c 	ldr	r5, [r3, #12]
    9060:	ea000006 	b	9080 <gpio_set_input+0x8c>
    9064:	e59f3050 	ldr	r3, [pc, #80]	; 90bc <gpio_set_input+0xc8>
    9068:	e5935010 	ldr	r5, [r3, #16]
    906c:	ea000003 	b	9080 <gpio_set_input+0x8c>
    9070:	e59f3044 	ldr	r3, [pc, #68]	; 90bc <gpio_set_input+0xc8>
    9074:	e5935014 	ldr	r5, [r3, #20]
    9078:	ea000000 	b	9080 <gpio_set_input+0x8c>
    907c:	e3a05000 	mov	r5, #0
    9080:	e1a00005 	mov	r0, r5
    9084:	eb00031d 	bl	9d00 <get32>
    9088:	e59f1028 	ldr	r1, [pc, #40]	; 90b8 <gpio_set_input+0xc4>
    908c:	e0813491 	umull	r3, r1, r1, r4
    9090:	e1a011a1 	lsr	r1, r1, #3
    9094:	e0811101 	add	r1, r1, r1, lsl #2
    9098:	e1a01081 	lsl	r1, r1, #1
    909c:	e0611004 	rsb	r1, r1, r4
    90a0:	e0811081 	add	r1, r1, r1, lsl #1
    90a4:	e3a03007 	mov	r3, #7
    90a8:	e1c01113 	bic	r1, r0, r3, lsl r1
    90ac:	e1a00005 	mov	r0, r5
    90b0:	eb000306 	bl	9cd0 <put32>
    90b4:	e8bd8038 	pop	{r3, r4, r5, pc}
    90b8:	cccccccd 	stclgt	12, cr12, [ip], {205}	; 0xcd
    90bc:	00009f94 	muleq	r0, r4, pc	; <UNPREDICTABLE>

000090c0 <gpio_read>:
    90c0:	e92d4010 	push	{r4, lr}
    90c4:	e1a04000 	mov	r4, r0
    90c8:	e350001f 	cmp	r0, #31
    90cc:	8a00000b 	bhi	9100 <gpio_read+0x40>
    90d0:	8a000003 	bhi	90e4 <gpio_read+0x24>
    90d4:	e59f302c 	ldr	r3, [pc, #44]	; 9108 <gpio_read+0x48>
    90d8:	e5930028 	ldr	r0, [r3, #40]	; 0x28
    90dc:	eb000307 	bl	9d00 <get32>
    90e0:	ea000002 	b	90f0 <gpio_read+0x30>
    90e4:	e59f301c 	ldr	r3, [pc, #28]	; 9108 <gpio_read+0x48>
    90e8:	e593002c 	ldr	r0, [r3, #44]	; 0x2c
    90ec:	eb000303 	bl	9d00 <get32>
    90f0:	e204401f 	and	r4, r4, #31
    90f4:	e3a03001 	mov	r3, #1
    90f8:	e0000413 	and	r0, r0, r3, lsl r4
    90fc:	e8bd8010 	pop	{r4, pc}
    9100:	e3e00000 	mvn	r0, #0
    9104:	e8bd8010 	pop	{r4, pc}
    9108:	00009f94 	muleq	r0, r4, pc	; <UNPREDICTABLE>

0000910c <gpio_write>:
    910c:	e92d4008 	push	{r3, lr}
    9110:	e350001f 	cmp	r0, #31
    9114:	88bd8008 	pophi	{r3, pc}
    9118:	e3510000 	cmp	r1, #0
    911c:	0a000001 	beq	9128 <gpio_write+0x1c>
    9120:	ebffff97 	bl	8f84 <gpio_set_on>
    9124:	e8bd8008 	pop	{r3, pc}
    9128:	ebffffa3 	bl	8fbc <gpio_set_off>
    912c:	e8bd8008 	pop	{r3, pc}

00009130 <gpio_set_function>:
    9130:	e92d4070 	push	{r4, r5, r6, lr}
    9134:	e1a04000 	mov	r4, r0
    9138:	e1a05001 	mov	r5, r1
    913c:	e3510007 	cmp	r1, #7
    9140:	9350001f 	cmpls	r0, #31
    9144:	88bd8070 	pophi	{r4, r5, r6, pc}
    9148:	e59f30b0 	ldr	r3, [pc, #176]	; 9200 <gpio_set_function+0xd0>
    914c:	e0832093 	umull	r2, r3, r3, r0
    9150:	e1a031a3 	lsr	r3, r3, #3
    9154:	e3530005 	cmp	r3, #5
    9158:	979ff103 	ldrls	pc, [pc, r3, lsl #2]
    915c:	ea000017 	b	91c0 <gpio_set_function+0x90>
    9160:	00009178 	andeq	r9, r0, r8, ror r1
    9164:	00009184 	andeq	r9, r0, r4, lsl #3
    9168:	00009190 	muleq	r0, r0, r1
    916c:	0000919c 	muleq	r0, ip, r1
    9170:	000091a8 	andeq	r9, r0, r8, lsr #3
    9174:	000091b4 			; <UNDEFINED> instruction: 0x000091b4
    9178:	e59f3084 	ldr	r3, [pc, #132]	; 9204 <gpio_set_function+0xd4>
    917c:	e5936000 	ldr	r6, [r3]
    9180:	ea00000f 	b	91c4 <gpio_set_function+0x94>
    9184:	e59f3078 	ldr	r3, [pc, #120]	; 9204 <gpio_set_function+0xd4>
    9188:	e5936004 	ldr	r6, [r3, #4]
    918c:	ea00000c 	b	91c4 <gpio_set_function+0x94>
    9190:	e59f306c 	ldr	r3, [pc, #108]	; 9204 <gpio_set_function+0xd4>
    9194:	e5936008 	ldr	r6, [r3, #8]
    9198:	ea000009 	b	91c4 <gpio_set_function+0x94>
    919c:	e59f3060 	ldr	r3, [pc, #96]	; 9204 <gpio_set_function+0xd4>
    91a0:	e593600c 	ldr	r6, [r3, #12]
    91a4:	ea000006 	b	91c4 <gpio_set_function+0x94>
    91a8:	e59f3054 	ldr	r3, [pc, #84]	; 9204 <gpio_set_function+0xd4>
    91ac:	e5936010 	ldr	r6, [r3, #16]
    91b0:	ea000003 	b	91c4 <gpio_set_function+0x94>
    91b4:	e59f3048 	ldr	r3, [pc, #72]	; 9204 <gpio_set_function+0xd4>
    91b8:	e5936014 	ldr	r6, [r3, #20]
    91bc:	ea000000 	b	91c4 <gpio_set_function+0x94>
    91c0:	e3a06000 	mov	r6, #0
    91c4:	e1a00006 	mov	r0, r6
    91c8:	eb0002cc 	bl	9d00 <get32>
    91cc:	e59f302c 	ldr	r3, [pc, #44]	; 9200 <gpio_set_function+0xd0>
    91d0:	e0832493 	umull	r2, r3, r3, r4
    91d4:	e1a031a3 	lsr	r3, r3, #3
    91d8:	e0833103 	add	r3, r3, r3, lsl #2
    91dc:	e1a03083 	lsl	r3, r3, #1
    91e0:	e0633004 	rsb	r3, r3, r4
    91e4:	e0833083 	add	r3, r3, r3, lsl #1
    91e8:	e3a01007 	mov	r1, #7
    91ec:	e1c01311 	bic	r1, r0, r1, lsl r3
    91f0:	e1a00006 	mov	r0, r6
    91f4:	e1811315 	orr	r1, r1, r5, lsl r3
    91f8:	eb0002b4 	bl	9cd0 <put32>
    91fc:	e8bd8070 	pop	{r4, r5, r6, pc}
    9200:	cccccccd 	stclgt	12, cr12, [ip], {205}	; 0xcd
    9204:	00009f94 	muleq	r0, r4, pc	; <UNPREDICTABLE>

00009208 <gpio_toggle>:
    9208:	e92d4008 	push	{r3, lr}
    920c:	e350001f 	cmp	r0, #31
    9210:	88bd8008 	pophi	{r3, pc}
    9214:	959f3020 	ldrls	r3, [pc, #32]	; 923c <gpio_toggle+0x34>
    9218:	95932018 	ldrls	r2, [r3, #24]
    921c:	859f3018 	ldrhi	r3, [pc, #24]	; 923c <gpio_toggle+0x34>
    9220:	8593201c 	ldrhi	r2, [r3, #28]
    9224:	e200301f 	and	r3, r0, #31
    9228:	e1a00002 	mov	r0, r2
    922c:	e3a01001 	mov	r1, #1
    9230:	e1a01311 	lsl	r1, r1, r3
    9234:	eb0002a5 	bl	9cd0 <put32>
    9238:	e8bd8008 	pop	{r3, pc}
    923c:	00009f94 	muleq	r0, r4, pc	; <UNPREDICTABLE>

00009240 <is_gpio_int>:
    9240:	e92d4008 	push	{r3, lr}
    9244:	e59f301c 	ldr	r3, [pc, #28]	; 9268 <is_gpio_int+0x28>
    9248:	e5930030 	ldr	r0, [r3, #48]	; 0x30
    924c:	eb0002ab 	bl	9d00 <get32>
    9250:	e3500000 	cmp	r0, #0
    9254:	0a000001 	beq	9260 <is_gpio_int+0x20>
    9258:	e3a00001 	mov	r0, #1
    925c:	e8bd8008 	pop	{r3, pc}
    9260:	e3a00000 	mov	r0, #0
    9264:	e8bd8008 	pop	{r3, pc}
    9268:	00009f94 	muleq	r0, r4, pc	; <UNPREDICTABLE>

0000926c <gpio_int_rising_edge>:
    926c:	e92d4038 	push	{r3, r4, r5, lr}
    9270:	e1a04000 	mov	r4, r0
    9274:	e350001f 	cmp	r0, #31
    9278:	88bd8038 	pophi	{r3, r4, r5, pc}
    927c:	eb00028d 	bl	9cb8 <dev_barrier>
    9280:	e354001f 	cmp	r4, #31
    9284:	8a000007 	bhi	92a8 <gpio_int_rising_edge+0x3c>
    9288:	e59f505c 	ldr	r5, [pc, #92]	; 92ec <gpio_int_rising_edge+0x80>
    928c:	e5950034 	ldr	r0, [r5, #52]	; 0x34
    9290:	eb00029a 	bl	9d00 <get32>
    9294:	e3a01001 	mov	r1, #1
    9298:	e1801411 	orr	r1, r0, r1, lsl r4
    929c:	e5950034 	ldr	r0, [r5, #52]	; 0x34
    92a0:	eb00028a 	bl	9cd0 <put32>
    92a4:	ea000007 	b	92c8 <gpio_int_rising_edge+0x5c>
    92a8:	e59f503c 	ldr	r5, [pc, #60]	; 92ec <gpio_int_rising_edge+0x80>
    92ac:	e5950038 	ldr	r0, [r5, #56]	; 0x38
    92b0:	eb000292 	bl	9d00 <get32>
    92b4:	e204401f 	and	r4, r4, #31
    92b8:	e3a01001 	mov	r1, #1
    92bc:	e1801411 	orr	r1, r0, r1, lsl r4
    92c0:	e5950038 	ldr	r0, [r5, #56]	; 0x38
    92c4:	eb000281 	bl	9cd0 <put32>
    92c8:	eb00027a 	bl	9cb8 <dev_barrier>
    92cc:	e59f4018 	ldr	r4, [pc, #24]	; 92ec <gpio_int_rising_edge+0x80>
    92d0:	e594003c 	ldr	r0, [r4, #60]	; 0x3c
    92d4:	eb000289 	bl	9d00 <get32>
    92d8:	e3801802 	orr	r1, r0, #131072	; 0x20000
    92dc:	e594003c 	ldr	r0, [r4, #60]	; 0x3c
    92e0:	eb00027a 	bl	9cd0 <put32>
    92e4:	eb000273 	bl	9cb8 <dev_barrier>
    92e8:	e8bd8038 	pop	{r3, r4, r5, pc}
    92ec:	00009f94 	muleq	r0, r4, pc	; <UNPREDICTABLE>

000092f0 <gpio_int_falling_edge>:
    92f0:	e92d4038 	push	{r3, r4, r5, lr}
    92f4:	e1a04000 	mov	r4, r0
    92f8:	e350001f 	cmp	r0, #31
    92fc:	88bd8038 	pophi	{r3, r4, r5, pc}
    9300:	eb00026c 	bl	9cb8 <dev_barrier>
    9304:	e354001f 	cmp	r4, #31
    9308:	8a000007 	bhi	932c <gpio_int_falling_edge+0x3c>
    930c:	e59f505c 	ldr	r5, [pc, #92]	; 9370 <gpio_int_falling_edge+0x80>
    9310:	e5950040 	ldr	r0, [r5, #64]	; 0x40
    9314:	eb000279 	bl	9d00 <get32>
    9318:	e3a01001 	mov	r1, #1
    931c:	e1801411 	orr	r1, r0, r1, lsl r4
    9320:	e5950040 	ldr	r0, [r5, #64]	; 0x40
    9324:	eb000269 	bl	9cd0 <put32>
    9328:	ea000007 	b	934c <gpio_int_falling_edge+0x5c>
    932c:	e59f503c 	ldr	r5, [pc, #60]	; 9370 <gpio_int_falling_edge+0x80>
    9330:	e5950044 	ldr	r0, [r5, #68]	; 0x44
    9334:	eb000271 	bl	9d00 <get32>
    9338:	e204401f 	and	r4, r4, #31
    933c:	e3a01001 	mov	r1, #1
    9340:	e1801411 	orr	r1, r0, r1, lsl r4
    9344:	e5950044 	ldr	r0, [r5, #68]	; 0x44
    9348:	eb000260 	bl	9cd0 <put32>
    934c:	eb000259 	bl	9cb8 <dev_barrier>
    9350:	e59f4018 	ldr	r4, [pc, #24]	; 9370 <gpio_int_falling_edge+0x80>
    9354:	e594003c 	ldr	r0, [r4, #60]	; 0x3c
    9358:	eb000268 	bl	9d00 <get32>
    935c:	e3801601 	orr	r1, r0, #1048576	; 0x100000
    9360:	e594003c 	ldr	r0, [r4, #60]	; 0x3c
    9364:	eb000259 	bl	9cd0 <put32>
    9368:	eb000252 	bl	9cb8 <dev_barrier>
    936c:	e8bd8038 	pop	{r3, r4, r5, pc}
    9370:	00009f94 	muleq	r0, r4, pc	; <UNPREDICTABLE>

00009374 <gpio_event_detected>:
    9374:	e92d4010 	push	{r4, lr}
    9378:	e1a04000 	mov	r4, r0
    937c:	e350001f 	cmp	r0, #31
    9380:	8a000019 	bhi	93ec <gpio_event_detected+0x78>
    9384:	eb00024b 	bl	9cb8 <dev_barrier>
    9388:	e354001f 	cmp	r4, #31
    938c:	8a000008 	bhi	93b4 <gpio_event_detected+0x40>
    9390:	e59f305c 	ldr	r3, [pc, #92]	; 93f4 <gpio_event_detected+0x80>
    9394:	e5930048 	ldr	r0, [r3, #72]	; 0x48
    9398:	eb000258 	bl	9d00 <get32>
    939c:	e3a03001 	mov	r3, #1
    93a0:	e0103413 	ands	r3, r0, r3, lsl r4
    93a4:	0a00000d 	beq	93e0 <gpio_event_detected+0x6c>
    93a8:	eb000242 	bl	9cb8 <dev_barrier>
    93ac:	e3a00001 	mov	r0, #1
    93b0:	e8bd8010 	pop	{r4, pc}
    93b4:	e59f3038 	ldr	r3, [pc, #56]	; 93f4 <gpio_event_detected+0x80>
    93b8:	e593004c 	ldr	r0, [r3, #76]	; 0x4c
    93bc:	eb00024f 	bl	9d00 <get32>
    93c0:	e3a03001 	mov	r3, #1
    93c4:	e0004413 	and	r4, r0, r3, lsl r4
    93c8:	eb00023a 	bl	9cb8 <dev_barrier>
    93cc:	e3540000 	cmp	r4, #0
    93d0:	0a000002 	beq	93e0 <gpio_event_detected+0x6c>
    93d4:	eb000237 	bl	9cb8 <dev_barrier>
    93d8:	e3a00001 	mov	r0, #1
    93dc:	e8bd8010 	pop	{r4, pc}
    93e0:	eb000234 	bl	9cb8 <dev_barrier>
    93e4:	e3a00000 	mov	r0, #0
    93e8:	e8bd8010 	pop	{r4, pc}
    93ec:	e3e00000 	mvn	r0, #0
    93f0:	e8bd8010 	pop	{r4, pc}
    93f4:	00009f94 	muleq	r0, r4, pc	; <UNPREDICTABLE>

000093f8 <gpio_event_clear>:
    93f8:	e92d4010 	push	{r4, lr}
    93fc:	e1a04000 	mov	r4, r0
    9400:	e350001f 	cmp	r0, #31
    9404:	88bd8010 	pophi	{r4, pc}
    9408:	eb00022a 	bl	9cb8 <dev_barrier>
    940c:	e354001f 	cmp	r4, #31
    9410:	8a000005 	bhi	942c <gpio_event_clear+0x34>
    9414:	e59f3030 	ldr	r3, [pc, #48]	; 944c <gpio_event_clear+0x54>
    9418:	e5930048 	ldr	r0, [r3, #72]	; 0x48
    941c:	e3a01001 	mov	r1, #1
    9420:	e1a01411 	lsl	r1, r1, r4
    9424:	eb000229 	bl	9cd0 <put32>
    9428:	ea000005 	b	9444 <gpio_event_clear+0x4c>
    942c:	e204401f 	and	r4, r4, #31
    9430:	e59f3014 	ldr	r3, [pc, #20]	; 944c <gpio_event_clear+0x54>
    9434:	e593004c 	ldr	r0, [r3, #76]	; 0x4c
    9438:	e3a01001 	mov	r1, #1
    943c:	e1a01411 	lsl	r1, r1, r4
    9440:	eb000222 	bl	9cd0 <put32>
    9444:	eb00021b 	bl	9cb8 <dev_barrier>
    9448:	e8bd8010 	pop	{r4, pc}
    944c:	00009f94 	muleq	r0, r4, pc	; <UNPREDICTABLE>

00009450 <sw_uart_putc>:
    9450:	e92d41f0 	push	{r4, r5, r6, r7, r8, lr}
    9454:	e1a07001 	mov	r7, r1
    9458:	e5d06000 	ldrb	r6, [r0]
    945c:	e5905008 	ldr	r5, [r0, #8]
    9460:	ee1f4f3c 	mrc	15, 0, r4, cr15, cr12, {1}
    9464:	e1a00006 	mov	r0, r6
    9468:	e3a01000 	mov	r1, #0
    946c:	ebffff26 	bl	910c <gpio_write>
    9470:	ee1f3f3c 	mrc	15, 0, r3, cr15, cr12, {1}
    9474:	e0643003 	rsb	r3, r4, r3
    9478:	e1550003 	cmp	r5, r3
    947c:	8afffffb 	bhi	9470 <sw_uart_putc+0x20>
    9480:	e1a08085 	lsl	r8, r5, #1
    9484:	e1a00006 	mov	r0, r6
    9488:	e2071001 	and	r1, r7, #1
    948c:	ebffff1e 	bl	910c <gpio_write>
    9490:	ee1f3f3c 	mrc	15, 0, r3, cr15, cr12, {1}
    9494:	e0643003 	rsb	r3, r4, r3
    9498:	e1580003 	cmp	r8, r3
    949c:	8afffffb 	bhi	9490 <sw_uart_putc+0x40>
    94a0:	e0888005 	add	r8, r8, r5
    94a4:	e1a00006 	mov	r0, r6
    94a8:	e2071002 	and	r1, r7, #2
    94ac:	ebffff16 	bl	910c <gpio_write>
    94b0:	ee1f3f3c 	mrc	15, 0, r3, cr15, cr12, {1}
    94b4:	e0643003 	rsb	r3, r4, r3
    94b8:	e1580003 	cmp	r8, r3
    94bc:	8afffffb 	bhi	94b0 <sw_uart_putc+0x60>
    94c0:	e0888005 	add	r8, r8, r5
    94c4:	e1a00006 	mov	r0, r6
    94c8:	e2071004 	and	r1, r7, #4
    94cc:	ebffff0e 	bl	910c <gpio_write>
    94d0:	ee1f3f3c 	mrc	15, 0, r3, cr15, cr12, {1}
    94d4:	e0643003 	rsb	r3, r4, r3
    94d8:	e1580003 	cmp	r8, r3
    94dc:	8afffffb 	bhi	94d0 <sw_uart_putc+0x80>
    94e0:	e0888005 	add	r8, r8, r5
    94e4:	e1a00006 	mov	r0, r6
    94e8:	e2071008 	and	r1, r7, #8
    94ec:	ebffff06 	bl	910c <gpio_write>
    94f0:	ee1f3f3c 	mrc	15, 0, r3, cr15, cr12, {1}
    94f4:	e0643003 	rsb	r3, r4, r3
    94f8:	e1580003 	cmp	r8, r3
    94fc:	8afffffb 	bhi	94f0 <sw_uart_putc+0xa0>
    9500:	e0888005 	add	r8, r8, r5
    9504:	e1a00006 	mov	r0, r6
    9508:	e2071010 	and	r1, r7, #16
    950c:	ebfffefe 	bl	910c <gpio_write>
    9510:	ee1f3f3c 	mrc	15, 0, r3, cr15, cr12, {1}
    9514:	e0643003 	rsb	r3, r4, r3
    9518:	e1580003 	cmp	r8, r3
    951c:	8afffffb 	bhi	9510 <sw_uart_putc+0xc0>
    9520:	e0888005 	add	r8, r8, r5
    9524:	e1a00006 	mov	r0, r6
    9528:	e2071020 	and	r1, r7, #32
    952c:	ebfffef6 	bl	910c <gpio_write>
    9530:	ee1f3f3c 	mrc	15, 0, r3, cr15, cr12, {1}
    9534:	e0643003 	rsb	r3, r4, r3
    9538:	e1580003 	cmp	r8, r3
    953c:	8afffffb 	bhi	9530 <sw_uart_putc+0xe0>
    9540:	e0888005 	add	r8, r8, r5
    9544:	e1a00006 	mov	r0, r6
    9548:	e2071040 	and	r1, r7, #64	; 0x40
    954c:	ebfffeee 	bl	910c <gpio_write>
    9550:	ee1f3f3c 	mrc	15, 0, r3, cr15, cr12, {1}
    9554:	e0643003 	rsb	r3, r4, r3
    9558:	e1580003 	cmp	r8, r3
    955c:	8afffffb 	bhi	9550 <sw_uart_putc+0x100>
    9560:	e0888005 	add	r8, r8, r5
    9564:	e1a00006 	mov	r0, r6
    9568:	e2071080 	and	r1, r7, #128	; 0x80
    956c:	ebfffee6 	bl	910c <gpio_write>
    9570:	ee1f3f3c 	mrc	15, 0, r3, cr15, cr12, {1}
    9574:	e0643003 	rsb	r3, r4, r3
    9578:	e1580003 	cmp	r8, r3
    957c:	8afffffb 	bhi	9570 <sw_uart_putc+0x120>
    9580:	e0885005 	add	r5, r8, r5
    9584:	e1a00006 	mov	r0, r6
    9588:	e3a01001 	mov	r1, #1
    958c:	ebfffede 	bl	910c <gpio_write>
    9590:	ee1f3f3c 	mrc	15, 0, r3, cr15, cr12, {1}
    9594:	e0643003 	rsb	r3, r4, r3
    9598:	e1550003 	cmp	r5, r3
    959c:	8afffffb 	bhi	9590 <sw_uart_putc+0x140>
    95a0:	e8bd81f0 	pop	{r4, r5, r6, r7, r8, pc}

000095a4 <sw_uart_getc_timeout>:
    95a4:	e92d43f8 	push	{r3, r4, r5, r6, r7, r8, r9, lr}
    95a8:	e1a09000 	mov	r9, r0
    95ac:	e5d07001 	ldrb	r7, [r0, #1]
    95b0:	e1a05007 	mov	r5, r7
    95b4:	e1a06001 	mov	r6, r1
    95b8:	ebfffe21 	bl	8e44 <timer_get_usec_raw>
    95bc:	e1a04000 	mov	r4, r0
    95c0:	e1a00005 	mov	r0, r5
    95c4:	ebfffebd 	bl	90c0 <gpio_read>
    95c8:	e3500000 	cmp	r0, #0
    95cc:	0a000005 	beq	95e8 <sw_uart_getc_timeout+0x44>
    95d0:	ebfffe1b 	bl	8e44 <timer_get_usec_raw>
    95d4:	e0640000 	rsb	r0, r4, r0
    95d8:	e1560000 	cmp	r6, r0
    95dc:	2afffff7 	bcs	95c0 <sw_uart_getc_timeout+0x1c>
    95e0:	e3a03000 	mov	r3, #0
    95e4:	ea000000 	b	95ec <sw_uart_getc_timeout+0x48>
    95e8:	e3a03001 	mov	r3, #1
    95ec:	e3530000 	cmp	r3, #0
    95f0:	0a000059 	beq	975c <sw_uart_getc_timeout+0x1b8>
    95f4:	ee1f8f3c 	mrc	15, 0, r8, cr15, cr12, {1}
    95f8:	e5994008 	ldr	r4, [r9, #8]
    95fc:	e08420a4 	add	r2, r4, r4, lsr #1
    9600:	ee1f3f3c 	mrc	15, 0, r3, cr15, cr12, {1}
    9604:	e0683003 	rsb	r3, r8, r3
    9608:	e1520003 	cmp	r2, r3
    960c:	8afffffb 	bhi	9600 <sw_uart_getc_timeout+0x5c>
    9610:	e0888004 	add	r8, r8, r4
    9614:	e1a00007 	mov	r0, r7
    9618:	ebfffea8 	bl	90c0 <gpio_read>
    961c:	e1a09750 	asr	r9, r0, r7
    9620:	ee1f3f3c 	mrc	15, 0, r3, cr15, cr12, {1}
    9624:	e0683003 	rsb	r3, r8, r3
    9628:	e1540003 	cmp	r4, r3
    962c:	8afffffb 	bhi	9620 <sw_uart_getc_timeout+0x7c>
    9630:	e0888004 	add	r8, r8, r4
    9634:	e1a00007 	mov	r0, r7
    9638:	ebfffea0 	bl	90c0 <gpio_read>
    963c:	e1a00750 	asr	r0, r0, r7
    9640:	e1899080 	orr	r9, r9, r0, lsl #1
    9644:	ee1f3f3c 	mrc	15, 0, r3, cr15, cr12, {1}
    9648:	e0683003 	rsb	r3, r8, r3
    964c:	e1540003 	cmp	r4, r3
    9650:	8afffffb 	bhi	9644 <sw_uart_getc_timeout+0xa0>
    9654:	e0888004 	add	r8, r8, r4
    9658:	e1a00007 	mov	r0, r7
    965c:	ebfffe97 	bl	90c0 <gpio_read>
    9660:	e1a00750 	asr	r0, r0, r7
    9664:	e1899100 	orr	r9, r9, r0, lsl #2
    9668:	ee1f3f3c 	mrc	15, 0, r3, cr15, cr12, {1}
    966c:	e0683003 	rsb	r3, r8, r3
    9670:	e1540003 	cmp	r4, r3
    9674:	8afffffb 	bhi	9668 <sw_uart_getc_timeout+0xc4>
    9678:	e0888004 	add	r8, r8, r4
    967c:	e1a00007 	mov	r0, r7
    9680:	ebfffe8e 	bl	90c0 <gpio_read>
    9684:	e1a00750 	asr	r0, r0, r7
    9688:	e1899180 	orr	r9, r9, r0, lsl #3
    968c:	ee1f3f3c 	mrc	15, 0, r3, cr15, cr12, {1}
    9690:	e0683003 	rsb	r3, r8, r3
    9694:	e1540003 	cmp	r4, r3
    9698:	8afffffb 	bhi	968c <sw_uart_getc_timeout+0xe8>
    969c:	e0888004 	add	r8, r8, r4
    96a0:	e1a00007 	mov	r0, r7
    96a4:	ebfffe85 	bl	90c0 <gpio_read>
    96a8:	e1a00750 	asr	r0, r0, r7
    96ac:	e1899200 	orr	r9, r9, r0, lsl #4
    96b0:	ee1f3f3c 	mrc	15, 0, r3, cr15, cr12, {1}
    96b4:	e0683003 	rsb	r3, r8, r3
    96b8:	e1540003 	cmp	r4, r3
    96bc:	8afffffb 	bhi	96b0 <sw_uart_getc_timeout+0x10c>
    96c0:	e0888004 	add	r8, r8, r4
    96c4:	e1a00007 	mov	r0, r7
    96c8:	ebfffe7c 	bl	90c0 <gpio_read>
    96cc:	e1a00750 	asr	r0, r0, r7
    96d0:	e1899280 	orr	r9, r9, r0, lsl #5
    96d4:	ee1f3f3c 	mrc	15, 0, r3, cr15, cr12, {1}
    96d8:	e0683003 	rsb	r3, r8, r3
    96dc:	e1540003 	cmp	r4, r3
    96e0:	8afffffb 	bhi	96d4 <sw_uart_getc_timeout+0x130>
    96e4:	e0888004 	add	r8, r8, r4
    96e8:	e1a00007 	mov	r0, r7
    96ec:	ebfffe73 	bl	90c0 <gpio_read>
    96f0:	e1a00750 	asr	r0, r0, r7
    96f4:	e1899300 	orr	r9, r9, r0, lsl #6
    96f8:	ee1f3f3c 	mrc	15, 0, r3, cr15, cr12, {1}
    96fc:	e0683003 	rsb	r3, r8, r3
    9700:	e1540003 	cmp	r4, r3
    9704:	8afffffb 	bhi	96f8 <sw_uart_getc_timeout+0x154>
    9708:	e1a00007 	mov	r0, r7
    970c:	ebfffe6b 	bl	90c0 <gpio_read>
    9710:	e1a00750 	asr	r0, r0, r7
    9714:	e1899380 	orr	r9, r9, r0, lsl #7
    9718:	ebfffdc9 	bl	8e44 <timer_get_usec_raw>
    971c:	e1a04000 	mov	r4, r0
    9720:	e1a00005 	mov	r0, r5
    9724:	ebfffe65 	bl	90c0 <gpio_read>
    9728:	e3500000 	cmp	r0, #0
    972c:	0a000005 	beq	9748 <sw_uart_getc_timeout+0x1a4>
    9730:	ebfffdc3 	bl	8e44 <timer_get_usec_raw>
    9734:	e0640000 	rsb	r0, r4, r0
    9738:	e1560000 	cmp	r6, r0
    973c:	2afffff7 	bcs	9720 <sw_uart_getc_timeout+0x17c>
    9740:	e3a03000 	mov	r3, #0
    9744:	ea000000 	b	974c <sw_uart_getc_timeout+0x1a8>
    9748:	e3a03001 	mov	r3, #1
    974c:	e3530000 	cmp	r3, #0
    9750:	0a000003 	beq	9764 <sw_uart_getc_timeout+0x1c0>
    9754:	e1a00009 	mov	r0, r9
    9758:	e8bd83f8 	pop	{r3, r4, r5, r6, r7, r8, r9, pc}
    975c:	e3e00000 	mvn	r0, #0
    9760:	e8bd83f8 	pop	{r3, r4, r5, r6, r7, r8, r9, pc}
    9764:	e3e00000 	mvn	r0, #0
    9768:	e8bd83f8 	pop	{r3, r4, r5, r6, r7, r8, r9, pc}

0000976c <sw_uart_gets_until>:
    976c:	e92d47f0 	push	{r4, r5, r6, r7, r8, r9, sl, lr}
    9770:	e24dd008 	sub	sp, sp, #8
    9774:	e1a08000 	mov	r8, r0
    9778:	e1a06001 	mov	r6, r1
    977c:	e1a09003 	mov	r9, r3
    9780:	e59da028 	ldr	sl, [sp, #40]	; 0x28
    9784:	e3520000 	cmp	r2, #0
    9788:	1a000008 	bne	97b0 <sw_uart_gets_until+0x44>
    978c:	ebfffbea 	bl	873c <rpi_reset_putc>
    9790:	e59f3068 	ldr	r3, [pc, #104]	; 9800 <sw_uart_gets_until+0x94>
    9794:	e58d3000 	str	r3, [sp]
    9798:	e59f0064 	ldr	r0, [pc, #100]	; 9804 <sw_uart_gets_until+0x98>
    979c:	e59f1064 	ldr	r1, [pc, #100]	; 9808 <sw_uart_gets_until+0x9c>
    97a0:	e59f2064 	ldr	r2, [pc, #100]	; 980c <sw_uart_gets_until+0xa0>
    97a4:	e3a0306d 	mov	r3, #109	; 0x6d
    97a8:	ebfffbc8 	bl	86d0 <printk>
    97ac:	ebfffd4a 	bl	8cdc <clean_reboot>
    97b0:	e3a04000 	mov	r4, #0
    97b4:	e5c14000 	strb	r4, [r1]
    97b8:	e2427001 	sub	r7, r2, #1
    97bc:	ea000007 	b	97e0 <sw_uart_gets_until+0x74>
    97c0:	e1a00008 	mov	r0, r8
    97c4:	e1a0100a 	mov	r1, sl
    97c8:	ebffff75 	bl	95a4 <sw_uart_getc_timeout>
    97cc:	e6ef0070 	uxtb	r0, r0
    97d0:	e1500009 	cmp	r0, r9
    97d4:	0a000004 	beq	97ec <sw_uart_gets_until+0x80>
    97d8:	e7c60005 	strb	r0, [r6, r5]
    97dc:	e2844001 	add	r4, r4, #1
    97e0:	e1a05004 	mov	r5, r4
    97e4:	e1540007 	cmp	r4, r7
    97e8:	3afffff4 	bcc	97c0 <sw_uart_gets_until+0x54>
    97ec:	e3a03000 	mov	r3, #0
    97f0:	e7c63005 	strb	r3, [r6, r5]
    97f4:	e1a00004 	mov	r0, r4
    97f8:	e28dd008 	add	sp, sp, #8
    97fc:	e8bd87f0 	pop	{r4, r5, r6, r7, r8, r9, sl, pc}
    9800:	0000a27c 	andeq	sl, r0, ip, ror r2
    9804:	0000a0f0 	strdeq	sl, [r0], -r0
    9808:	0000a268 	andeq	sl, r0, r8, ror #4
    980c:	0000a1f0 	strdeq	sl, [r0], -r0

00009810 <sw_uart_gets_timeout>:
    9810:	e92d41f0 	push	{r4, r5, r6, r7, r8, lr}
    9814:	e24dd008 	sub	sp, sp, #8
    9818:	e1a07000 	mov	r7, r0
    981c:	e1a05001 	mov	r5, r1
    9820:	e1a08003 	mov	r8, r3
    9824:	e3520000 	cmp	r2, #0
    9828:	1a000008 	bne	9850 <sw_uart_gets_timeout+0x40>
    982c:	ebfffbc2 	bl	873c <rpi_reset_putc>
    9830:	e59f3058 	ldr	r3, [pc, #88]	; 9890 <sw_uart_gets_timeout+0x80>
    9834:	e58d3000 	str	r3, [sp]
    9838:	e59f0054 	ldr	r0, [pc, #84]	; 9894 <sw_uart_gets_timeout+0x84>
    983c:	e59f1054 	ldr	r1, [pc, #84]	; 9898 <sw_uart_gets_timeout+0x88>
    9840:	e59f2054 	ldr	r2, [pc, #84]	; 989c <sw_uart_gets_timeout+0x8c>
    9844:	e3a03083 	mov	r3, #131	; 0x83
    9848:	ebfffba0 	bl	86d0 <printk>
    984c:	ebfffd22 	bl	8cdc <clean_reboot>
    9850:	e3a04000 	mov	r4, #0
    9854:	e5c14000 	strb	r4, [r1]
    9858:	e2426001 	sub	r6, r2, #1
    985c:	ea000004 	b	9874 <sw_uart_gets_timeout+0x64>
    9860:	e1a00007 	mov	r0, r7
    9864:	e1a01008 	mov	r1, r8
    9868:	ebffff4d 	bl	95a4 <sw_uart_getc_timeout>
    986c:	e7c50004 	strb	r0, [r5, r4]
    9870:	e2844001 	add	r4, r4, #1
    9874:	e1540006 	cmp	r4, r6
    9878:	3afffff8 	bcc	9860 <sw_uart_gets_timeout+0x50>
    987c:	e3a03000 	mov	r3, #0
    9880:	e7c53004 	strb	r3, [r5, r4]
    9884:	e1a00004 	mov	r0, r4
    9888:	e28dd008 	add	sp, sp, #8
    988c:	e8bd81f0 	pop	{r4, r5, r6, r7, r8, pc}
    9890:	0000a27c 	andeq	sl, r0, ip, ror r2
    9894:	0000a0f0 	strdeq	sl, [r0], -r0
    9898:	0000a268 	andeq	sl, r0, r8, ror #4
    989c:	0000a204 	andeq	sl, r0, r4, lsl #4

000098a0 <sw_uart_init_helper>:
    98a0:	e92d41f0 	push	{r4, r5, r6, r7, r8, lr}
    98a4:	e24dd008 	sub	sp, sp, #8
    98a8:	e1a04000 	mov	r4, r0
    98ac:	e1a06001 	mov	r6, r1
    98b0:	e1a08002 	mov	r8, r2
    98b4:	e1a05003 	mov	r5, r3
    98b8:	e59d7020 	ldr	r7, [sp, #32]
    98bc:	e1a00001 	mov	r0, r1
    98c0:	ebfffd7a 	bl	8eb0 <gpio_set_output>
    98c4:	e1a00008 	mov	r0, r8
    98c8:	ebfffdc9 	bl	8ff4 <gpio_set_input>
    98cc:	e3a03001 	mov	r3, #1
    98d0:	ee0f3f1c 	mcr	15, 0, r3, cr15, cr12, {0}
    98d4:	e1a00006 	mov	r0, r6
    98d8:	e3a01001 	mov	r1, #1
    98dc:	ebfffe0a 	bl	910c <gpio_write>
    98e0:	e0020795 	mul	r2, r5, r7
    98e4:	e59f3074 	ldr	r3, [pc, #116]	; 9960 <sw_uart_init_helper+0xc0>
    98e8:	e0653003 	rsb	r3, r5, r3
    98ec:	e1530002 	cmp	r3, r2
    98f0:	8a000005 	bhi	990c <sw_uart_init_helper+0x6c>
    98f4:	e59f3064 	ldr	r3, [pc, #100]	; 9960 <sw_uart_init_helper+0xc0>
    98f8:	e0853003 	add	r3, r5, r3
    98fc:	e1530002 	cmp	r3, r2
    9900:	2a000003 	bcs	9914 <sw_uart_init_helper+0x74>
    9904:	e3a03000 	mov	r3, #0
    9908:	ea000002 	b	9918 <sw_uart_init_helper+0x78>
    990c:	e3a03000 	mov	r3, #0
    9910:	ea000000 	b	9918 <sw_uart_init_helper+0x78>
    9914:	e3a03001 	mov	r3, #1
    9918:	e3530000 	cmp	r3, #0
    991c:	1a000008 	bne	9944 <sw_uart_init_helper+0xa4>
    9920:	ebfffb85 	bl	873c <rpi_reset_putc>
    9924:	e59f3038 	ldr	r3, [pc, #56]	; 9964 <sw_uart_init_helper+0xc4>
    9928:	e58d3000 	str	r3, [sp]
    992c:	e59f0034 	ldr	r0, [pc, #52]	; 9968 <sw_uart_init_helper+0xc8>
    9930:	e59f1034 	ldr	r1, [pc, #52]	; 996c <sw_uart_init_helper+0xcc>
    9934:	e59f2034 	ldr	r2, [pc, #52]	; 9970 <sw_uart_init_helper+0xd0>
    9938:	e3a0309d 	mov	r3, #157	; 0x9d
    993c:	ebfffb63 	bl	86d0 <printk>
    9940:	ebfffce5 	bl	8cdc <clean_reboot>
    9944:	e5c46000 	strb	r6, [r4]
    9948:	e5c48001 	strb	r8, [r4, #1]
    994c:	e5845004 	str	r5, [r4, #4]
    9950:	e5847008 	str	r7, [r4, #8]
    9954:	e1a00004 	mov	r0, r4
    9958:	e28dd008 	add	sp, sp, #8
    995c:	e8bd81f0 	pop	{r4, r5, r6, r7, r8, pc}
    9960:	29b92700 	ldmibcs	r9!, {r8, r9, sl, sp}
    9964:	0000a288 	andeq	sl, r0, r8, lsl #5
    9968:	0000a0f0 	strdeq	sl, [r0], -r0
    996c:	0000a268 	andeq	sl, r0, r8, ror #4
    9970:	0000a21c 	andeq	sl, r0, ip, lsl r2

00009974 <sw_uart_getc>:
    9974:	e92d4008 	push	{r3, lr}
    9978:	e3e01000 	mvn	r1, #0
    997c:	ebffff08 	bl	95a4 <sw_uart_getc_timeout>
    9980:	e3500000 	cmp	r0, #0
    9984:	a8bd8008 	popge	{r3, pc}
    9988:	ebfffb6b 	bl	873c <rpi_reset_putc>
    998c:	e59f0010 	ldr	r0, [pc, #16]	; 99a4 <sw_uart_getc+0x30>
    9990:	e59f1010 	ldr	r1, [pc, #16]	; 99a8 <sw_uart_getc+0x34>
    9994:	e59f2010 	ldr	r2, [pc, #16]	; 99ac <sw_uart_getc+0x38>
    9998:	e3a030ac 	mov	r3, #172	; 0xac
    999c:	ebfffb4b 	bl	86d0 <printk>
    99a0:	ebfffccd 	bl	8cdc <clean_reboot>
    99a4:	0000a2bc 			; <UNDEFINED> instruction: 0x0000a2bc
    99a8:	0000a268 	andeq	sl, r0, r8, ror #4
    99ac:	0000a230 	andeq	sl, r0, r0, lsr r2

000099b0 <sw_uart_putk>:
    99b0:	e92d4038 	push	{r3, r4, r5, lr}
    99b4:	e1a05000 	mov	r5, r0
    99b8:	e1a04001 	mov	r4, r1
    99bc:	ea000002 	b	99cc <sw_uart_putk+0x1c>
    99c0:	e1a00005 	mov	r0, r5
    99c4:	ebfffea1 	bl	9450 <sw_uart_putc>
    99c8:	e2844001 	add	r4, r4, #1
    99cc:	e5d41000 	ldrb	r1, [r4]
    99d0:	e3510000 	cmp	r1, #0
    99d4:	1afffff9 	bne	99c0 <sw_uart_putk+0x10>
    99d8:	e8bd8038 	pop	{r3, r4, r5, pc}

000099dc <sw_uart_printk>:
    99dc:	e92d000e 	push	{r1, r2, r3}
    99e0:	e92d4030 	push	{r4, r5, lr}
    99e4:	e24ddf76 	sub	sp, sp, #472	; 0x1d8
    99e8:	e1a05000 	mov	r5, r0
    99ec:	e28d3f7a 	add	r3, sp, #488	; 0x1e8
    99f0:	e58d3008 	str	r3, [sp, #8]
    99f4:	e28d000c 	add	r0, sp, #12
    99f8:	e3a01f73 	mov	r1, #460	; 0x1cc
    99fc:	e59d21e4 	ldr	r2, [sp, #484]	; 0x1e4
    9a00:	ebfffc08 	bl	8a28 <va_printk>
    9a04:	e1a04000 	mov	r4, r0
    9a08:	e59f3048 	ldr	r3, [pc, #72]	; 9a58 <sw_uart_printk+0x7c>
    9a0c:	e1500003 	cmp	r0, r3
    9a10:	9a000008 	bls	9a38 <sw_uart_printk+0x5c>
    9a14:	ebfffb48 	bl	873c <rpi_reset_putc>
    9a18:	e59f303c 	ldr	r3, [pc, #60]	; 9a5c <sw_uart_printk+0x80>
    9a1c:	e58d3000 	str	r3, [sp]
    9a20:	e59f0038 	ldr	r0, [pc, #56]	; 9a60 <sw_uart_printk+0x84>
    9a24:	e59f1038 	ldr	r1, [pc, #56]	; 9a64 <sw_uart_printk+0x88>
    9a28:	e59f2038 	ldr	r2, [pc, #56]	; 9a68 <sw_uart_printk+0x8c>
    9a2c:	e3a030c0 	mov	r3, #192	; 0xc0
    9a30:	ebfffb26 	bl	86d0 <printk>
    9a34:	ebfffca8 	bl	8cdc <clean_reboot>
    9a38:	e1a00005 	mov	r0, r5
    9a3c:	e28d100c 	add	r1, sp, #12
    9a40:	ebffffda 	bl	99b0 <sw_uart_putk>
    9a44:	e1a00004 	mov	r0, r4
    9a48:	e28ddf76 	add	sp, sp, #472	; 0x1d8
    9a4c:	e8bd4030 	pop	{r4, r5, lr}
    9a50:	e28dd00c 	add	sp, sp, #12
    9a54:	e12fff1e 	bx	lr
    9a58:	000001ca 	andeq	r0, r0, sl, asr #3
    9a5c:	0000a2f4 	strdeq	sl, [r0], -r4
    9a60:	0000a0f0 	strdeq	sl, [r0], -r0
    9a64:	0000a268 	andeq	sl, r0, r8, ror #4
    9a68:	0000a240 	andeq	sl, r0, r0, asr #4

00009a6c <sw_uart_gets_until_blk>:
    9a6c:	e52de004 	push	{lr}		; (str lr, [sp, #-4]!)
    9a70:	e24dd00c 	sub	sp, sp, #12
    9a74:	e3e0c000 	mvn	ip, #0
    9a78:	e58dc000 	str	ip, [sp]
    9a7c:	ebffff3a 	bl	976c <sw_uart_gets_until>
    9a80:	e3500000 	cmp	r0, #0
    9a84:	aa000006 	bge	9aa4 <sw_uart_gets_until_blk+0x38>
    9a88:	ebfffb2b 	bl	873c <rpi_reset_putc>
    9a8c:	e59f0018 	ldr	r0, [pc, #24]	; 9aac <sw_uart_gets_until_blk+0x40>
    9a90:	e59f1018 	ldr	r1, [pc, #24]	; 9ab0 <sw_uart_gets_until_blk+0x44>
    9a94:	e59f2018 	ldr	r2, [pc, #24]	; 9ab4 <sw_uart_gets_until_blk+0x48>
    9a98:	e3a030c8 	mov	r3, #200	; 0xc8
    9a9c:	ebfffb0b 	bl	86d0 <printk>
    9aa0:	ebfffc8d 	bl	8cdc <clean_reboot>
    9aa4:	e28dd00c 	add	sp, sp, #12
    9aa8:	e49df004 	pop	{pc}		; (ldr pc, [sp], #4)
    9aac:	0000a2bc 			; <UNDEFINED> instruction: 0x0000a2bc
    9ab0:	0000a268 	andeq	sl, r0, r8, ror #4
    9ab4:	0000a250 	andeq	sl, r0, r0, asr r2

00009ab8 <uart_init>:
    9ab8:	e92d4038 	push	{r3, r4, r5, lr}
    9abc:	eb00007d 	bl	9cb8 <dev_barrier>
    9ac0:	e3a0000e 	mov	r0, #14
    9ac4:	e3a01002 	mov	r1, #2
    9ac8:	ebfffd98 	bl	9130 <gpio_set_function>
    9acc:	e3a0000f 	mov	r0, #15
    9ad0:	e3a01002 	mov	r1, #2
    9ad4:	ebfffd95 	bl	9130 <gpio_set_function>
    9ad8:	eb000076 	bl	9cb8 <dev_barrier>
    9adc:	e59f4068 	ldr	r4, [pc, #104]	; 9b4c <uart_init+0x94>
    9ae0:	e5945000 	ldr	r5, [r4]
    9ae4:	e1a00005 	mov	r0, r5
    9ae8:	eb000084 	bl	9d00 <get32>
    9aec:	e3801001 	orr	r1, r0, #1
    9af0:	e1a00005 	mov	r0, r5
    9af4:	eb000075 	bl	9cd0 <put32>
    9af8:	eb00006e 	bl	9cb8 <dev_barrier>
    9afc:	e5940004 	ldr	r0, [r4, #4]
    9b00:	e3a01000 	mov	r1, #0
    9b04:	eb000071 	bl	9cd0 <put32>
    9b08:	e5940008 	ldr	r0, [r4, #8]
    9b0c:	e3a01000 	mov	r1, #0
    9b10:	eb00006e 	bl	9cd0 <put32>
    9b14:	e594000c 	ldr	r0, [r4, #12]
    9b18:	e3a01006 	mov	r1, #6
    9b1c:	eb00006b 	bl	9cd0 <put32>
    9b20:	e5940010 	ldr	r0, [r4, #16]
    9b24:	e3a01003 	mov	r1, #3
    9b28:	eb000068 	bl	9cd0 <put32>
    9b2c:	e5940014 	ldr	r0, [r4, #20]
    9b30:	e59f1018 	ldr	r1, [pc, #24]	; 9b50 <uart_init+0x98>
    9b34:	eb000065 	bl	9cd0 <put32>
    9b38:	e5940004 	ldr	r0, [r4, #4]
    9b3c:	e3a01003 	mov	r1, #3
    9b40:	eb000062 	bl	9cd0 <put32>
    9b44:	eb00005b 	bl	9cb8 <dev_barrier>
    9b48:	e8bd8038 	pop	{r3, r4, r5, pc}
    9b4c:	00009ff4 	strdeq	r9, [r0], -r4
    9b50:	0000010e 	andeq	r0, r0, lr, lsl #2

00009b54 <uart_can_getc>:
    9b54:	e92d4008 	push	{r3, lr}
    9b58:	e59f300c 	ldr	r3, [pc, #12]	; 9b6c <uart_can_getc+0x18>
    9b5c:	e5930018 	ldr	r0, [r3, #24]
    9b60:	eb000066 	bl	9d00 <get32>
    9b64:	e2000001 	and	r0, r0, #1
    9b68:	e8bd8008 	pop	{r3, pc}
    9b6c:	00009ff4 	strdeq	r9, [r0], -r4

00009b70 <uart_getc>:
    9b70:	e92d4008 	push	{r3, lr}
    9b74:	ebfffff6 	bl	9b54 <uart_can_getc>
    9b78:	e3500000 	cmp	r0, #0
    9b7c:	0afffffc 	beq	9b74 <uart_getc+0x4>
    9b80:	e59f300c 	ldr	r3, [pc, #12]	; 9b94 <uart_getc+0x24>
    9b84:	e593001c 	ldr	r0, [r3, #28]
    9b88:	eb00005c 	bl	9d00 <get32>
    9b8c:	e6ef0070 	uxtb	r0, r0
    9b90:	e8bd8008 	pop	{r3, pc}
    9b94:	00009ff4 	strdeq	r9, [r0], -r4

00009b98 <uart_can_putc>:
    9b98:	e92d4008 	push	{r3, lr}
    9b9c:	e59f300c 	ldr	r3, [pc, #12]	; 9bb0 <uart_can_putc+0x18>
    9ba0:	e5930018 	ldr	r0, [r3, #24]
    9ba4:	eb000055 	bl	9d00 <get32>
    9ba8:	e2000020 	and	r0, r0, #32
    9bac:	e8bd8008 	pop	{r3, pc}
    9bb0:	00009ff4 	strdeq	r9, [r0], -r4

00009bb4 <uart_putc>:
    9bb4:	e92d4010 	push	{r4, lr}
    9bb8:	e1a04000 	mov	r4, r0
    9bbc:	ebfffff5 	bl	9b98 <uart_can_putc>
    9bc0:	e3500000 	cmp	r0, #0
    9bc4:	0afffffc 	beq	9bbc <uart_putc+0x8>
    9bc8:	e59f300c 	ldr	r3, [pc, #12]	; 9bdc <uart_putc+0x28>
    9bcc:	e593001c 	ldr	r0, [r3, #28]
    9bd0:	e1a01004 	mov	r1, r4
    9bd4:	eb00003d 	bl	9cd0 <put32>
    9bd8:	e8bd8010 	pop	{r4, pc}
    9bdc:	00009ff4 	strdeq	r9, [r0], -r4

00009be0 <uart_has_data>:
    9be0:	e92d4008 	push	{r3, lr}
    9be4:	ebffffda 	bl	9b54 <uart_can_getc>
    9be8:	e8bd8008 	pop	{r3, pc}

00009bec <uart_getc_async>:
    9bec:	e92d4008 	push	{r3, lr}
    9bf0:	ebfffffa 	bl	9be0 <uart_has_data>
    9bf4:	e3500000 	cmp	r0, #0
    9bf8:	0a000001 	beq	9c04 <uart_getc_async+0x18>
    9bfc:	ebffffdb 	bl	9b70 <uart_getc>
    9c00:	e8bd8008 	pop	{r3, pc}
    9c04:	e3e00000 	mvn	r0, #0
    9c08:	e8bd8008 	pop	{r3, pc}

00009c0c <int_init>:
    9c0c:	e92d4008 	push	{r3, lr}
    9c10:	e59f004c 	ldr	r0, [pc, #76]	; 9c64 <int_init+0x58>
    9c14:	e3e01000 	mvn	r1, #0
    9c18:	eb00002e 	bl	9cd8 <PUT32>
    9c1c:	e59f0044 	ldr	r0, [pc, #68]	; 9c68 <int_init+0x5c>
    9c20:	e3e01000 	mvn	r1, #0
    9c24:	eb00002b 	bl	9cd8 <PUT32>
    9c28:	eb000022 	bl	9cb8 <dev_barrier>
    9c2c:	e59f3038 	ldr	r3, [pc, #56]	; 9c6c <int_init+0x60>
    9c30:	e59f0038 	ldr	r0, [pc, #56]	; 9c70 <int_init+0x64>
    9c34:	e0630000 	rsb	r0, r3, r0
    9c38:	e1a00140 	asr	r0, r0, #2
    9c3c:	e3a03000 	mov	r3, #0
    9c40:	e59fc024 	ldr	ip, [pc, #36]	; 9c6c <int_init+0x60>
    9c44:	ea000003 	b	9c58 <int_init+0x4c>
    9c48:	e1a02103 	lsl	r2, r3, #2
    9c4c:	e79c1103 	ldr	r1, [ip, r3, lsl #2]
    9c50:	e5821000 	str	r1, [r2]
    9c54:	e2833001 	add	r3, r3, #1
    9c58:	e1530000 	cmp	r3, r0
    9c5c:	3afffff9 	bcc	9c48 <int_init+0x3c>
    9c60:	e8bd8008 	pop	{r3, pc}
    9c64:	2000b21c 	andcs	fp, r0, ip, lsl r2
    9c68:	2000b220 	andcs	fp, r0, r0, lsr #4
    9c6c:	00009d3c 	andeq	r9, r0, ip, lsr sp
    9c70:	00009d8c 	andeq	r9, r0, ip, lsl #27

00009c74 <fast_interrupt_vector>:
    9c74:	e52de004 	push	{lr}		; (str lr, [sp, #-4]!)
    9c78:	e24dd00c 	sub	sp, sp, #12
    9c7c:	e1a04000 	mov	r4, r0
    9c80:	ebfffaad 	bl	873c <rpi_reset_putc>
    9c84:	e59f301c 	ldr	r3, [pc, #28]	; 9ca8 <fast_interrupt_vector+0x34>
    9c88:	e58d3000 	str	r3, [sp]
    9c8c:	e58d4004 	str	r4, [sp, #4]
    9c90:	e59f0014 	ldr	r0, [pc, #20]	; 9cac <fast_interrupt_vector+0x38>
    9c94:	e59f1014 	ldr	r1, [pc, #20]	; 9cb0 <fast_interrupt_vector+0x3c>
    9c98:	e59f2014 	ldr	r2, [pc, #20]	; 9cb4 <fast_interrupt_vector+0x40>
    9c9c:	e3a0302f 	mov	r3, #47	; 0x2f
    9ca0:	ebfffa8a 	bl	86d0 <printk>
    9ca4:	ebfffc0c 	bl	8cdc <clean_reboot>
    9ca8:	0000a37c 	andeq	sl, r0, ip, ror r3
    9cac:	0000a320 	andeq	sl, r0, r0, lsr #6
    9cb0:	0000a35c 	andeq	sl, r0, ip, asr r3
    9cb4:	0000a308 	andeq	sl, r0, r8, lsl #6

00009cb8 <dev_barrier>:
    9cb8:	ea000002 	b	9cc8 <dsb>

00009cbc <dmb>:
    9cbc:	e3a00000 	mov	r0, #0
    9cc0:	ee070fba 	mcr	15, 0, r0, cr7, cr10, {5}
    9cc4:	e12fff1e 	bx	lr

00009cc8 <dsb>:
    9cc8:	ee070f9a 	mcr	15, 0, r0, cr7, cr10, {4}
    9ccc:	e12fff1e 	bx	lr

00009cd0 <put32>:
    9cd0:	e5801000 	str	r1, [r0]
    9cd4:	e12fff1e 	bx	lr

00009cd8 <PUT32>:
    9cd8:	e5801000 	str	r1, [r0]
    9cdc:	e12fff1e 	bx	lr

00009ce0 <put16>:
    9ce0:	e1c010b0 	strh	r1, [r0]
    9ce4:	e12fff1e 	bx	lr

00009ce8 <PUT16>:
    9ce8:	e1c010b0 	strh	r1, [r0]
    9cec:	e12fff1e 	bx	lr

00009cf0 <put8>:
    9cf0:	e5c01000 	strb	r1, [r0]
    9cf4:	e12fff1e 	bx	lr

00009cf8 <PUT8>:
    9cf8:	e5c01000 	strb	r1, [r0]
    9cfc:	e12fff1e 	bx	lr

00009d00 <get32>:
    9d00:	e5900000 	ldr	r0, [r0]
    9d04:	e12fff1e 	bx	lr

00009d08 <GET32>:
    9d08:	e5900000 	ldr	r0, [r0]
    9d0c:	e12fff1e 	bx	lr

00009d10 <GETPC>:
    9d10:	e1a0000e 	mov	r0, lr
    9d14:	e12fff1e 	bx	lr

00009d18 <dummy>:
    9d18:	e12fff1e 	bx	lr

00009d1c <system_enable_interrupts>:
    9d1c:	e10f0000 	mrs	r0, CPSR
    9d20:	e3c00080 	bic	r0, r0, #128	; 0x80
    9d24:	e121f000 	msr	CPSR_c, r0
    9d28:	e12fff1e 	bx	lr

00009d2c <system_disable_interrupts>:
    9d2c:	e10f0000 	mrs	r0, CPSR
    9d30:	e3800080 	orr	r0, r0, #128	; 0x80
    9d34:	e121f000 	msr	CPSR_c, r0
    9d38:	e12fff1e 	bx	lr

00009d3c <_interrupt_table>:
    9d3c:	e59ff030 	ldr	pc, [pc, #48]	; 9d74 <_reset_asm>
    9d40:	e59ff030 	ldr	pc, [pc, #48]	; 9d78 <_undefined_instruction_asm>
    9d44:	e59ff030 	ldr	pc, [pc, #48]	; 9d7c <_software_interrupt_asm>
    9d48:	e59ff030 	ldr	pc, [pc, #48]	; 9d80 <_prefetch_abort_asm>
    9d4c:	e59ff030 	ldr	pc, [pc, #48]	; 9d84 <_data_abort_asm>
    9d50:	e59ff01c 	ldr	pc, [pc, #28]	; 9d74 <_reset_asm>
    9d54:	e59ff02c 	ldr	pc, [pc, #44]	; 9d88 <_interrupt_asm>

00009d58 <fast_interrupt_asm>:
    9d58:	e24ee004 	sub	lr, lr, #4
    9d5c:	e52de004 	push	{lr}		; (str lr, [sp, #-4]!)
    9d60:	e92d1fff 	push	{r0, r1, r2, r3, r4, r5, r6, r7, r8, r9, sl, fp, ip}
    9d64:	e1a0000e 	mov	r0, lr
    9d68:	ebffffc1 	bl	9c74 <fast_interrupt_vector>
    9d6c:	e8bd1fff 	pop	{r0, r1, r2, r3, r4, r5, r6, r7, r8, r9, sl, fp, ip}
    9d70:	e8fd8000 	ldm	sp!, {pc}^

00009d74 <_reset_asm>:
    9d74:	00009dd4 	ldrdeq	r9, [r0], -r4

00009d78 <_undefined_instruction_asm>:
    9d78:	00009ddc 	ldrdeq	r9, [r0], -ip

00009d7c <_software_interrupt_asm>:
    9d7c:	00009da8 	andeq	r9, r0, r8, lsr #27

00009d80 <_prefetch_abort_asm>:
    9d80:	00009de4 	andeq	r9, r0, r4, ror #27

00009d84 <_data_abort_asm>:
    9d84:	00009dec 	andeq	r9, r0, ip, ror #27

00009d88 <_interrupt_asm>:
    9d88:	00009d8c 	andeq	r9, r0, ip, lsl #27

00009d8c <_interrupt_table_end>:
    9d8c:	e3a0d409 	mov	sp, #150994944	; 0x9000000
    9d90:	e24ee004 	sub	lr, lr, #4
    9d94:	e92d5fff 	push	{r0, r1, r2, r3, r4, r5, r6, r7, r8, r9, sl, fp, ip, lr}
    9d98:	e1a0000e 	mov	r0, lr
    9d9c:	ebfffa0e 	bl	85dc <interrupt_vector>
    9da0:	e8bd5fff 	pop	{r0, r1, r2, r3, r4, r5, r6, r7, r8, r9, sl, fp, ip, lr}
    9da4:	e1b0f00e 	movs	pc, lr

00009da8 <software_interrupt_asm>:
    9da8:	e52de004 	push	{lr}		; (str lr, [sp, #-4]!)
    9dac:	e92d1ffe 	push	{r1, r2, r3, r4, r5, r6, r7, r8, r9, sl, fp, ip}
    9db0:	e24ee004 	sub	lr, lr, #4
    9db4:	e1a0200e 	mov	r2, lr
    9db8:	e1a01000 	mov	r1, r0
    9dbc:	e1a0000e 	mov	r0, lr
    9dc0:	eb000003 	bl	9dd4 <reset_asm>
    9dc4:	e8bd1ffe 	pop	{r1, r2, r3, r4, r5, r6, r7, r8, r9, sl, fp, ip}
    9dc8:	e49de004 	pop	{lr}		; (ldr lr, [sp], #4)
    9dcc:	e8fd8000 	ldm	sp!, {pc}^
    9dd0:	e1b0f00e 	movs	pc, lr

00009dd4 <reset_asm>:
    9dd4:	e24ee004 	sub	lr, lr, #4
    9dd8:	eb000040 	bl	9ee0 <reset_vector>

00009ddc <undefined_instruction_asm>:
    9ddc:	e24ee004 	sub	lr, lr, #4
    9de0:	eb00004f 	bl	9f24 <undefined_instruction_vector>

00009de4 <prefetch_abort_asm>:
    9de4:	e24ee004 	sub	lr, lr, #4
    9de8:	eb00002b 	bl	9e9c <prefetch_abort_vector>

00009dec <data_abort_asm>:
    9dec:	e3a0d409 	mov	sp, #150994944	; 0x9000000
    9df0:	e24ee008 	sub	lr, lr, #8
    9df4:	e92d5fff 	push	{r0, r1, r2, r3, r4, r5, r6, r7, r8, r9, sl, fp, ip, lr}
    9df8:	e1a0000e 	mov	r0, lr
    9dfc:	eb000015 	bl	9e58 <data_abort_vector>
    9e00:	e8bd5fff 	pop	{r0, r1, r2, r3, r4, r5, r6, r7, r8, r9, sl, fp, ip, lr}
    9e04:	e1b0f00e 	movs	pc, lr

00009e08 <cb_new>:
    9e08:	e92d4008 	push	{r3, lr}
    9e0c:	e3a00409 	mov	r0, #150994944	; 0x9000000
    9e10:	e3a01000 	mov	r1, #0
    9e14:	e3a02004 	mov	r2, #4
    9e18:	eb000052 	bl	9f68 <memset>
    9e1c:	e3a00409 	mov	r0, #150994944	; 0x9000000
    9e20:	e59f3004 	ldr	r3, [pc, #4]	; 9e2c <cb_new+0x24>
    9e24:	e5803000 	str	r3, [r0]
    9e28:	e8bd8008 	pop	{r3, pc}
    9e2c:	12345678 	eorsne	r5, r4, #120, 12	; 0x7800000

00009e30 <cb_get_block>:
    9e30:	e3a03409 	mov	r3, #150994944	; 0x9000000
    9e34:	e5932000 	ldr	r2, [r3]
    9e38:	e59f3014 	ldr	r3, [pc, #20]	; 9e54 <cb_get_block+0x24>
    9e3c:	e1520003 	cmp	r2, r3
    9e40:	0a000001 	beq	9e4c <cb_get_block+0x1c>
    9e44:	e3a00000 	mov	r0, #0
    9e48:	e12fff1e 	bx	lr
    9e4c:	e3a00409 	mov	r0, #150994944	; 0x9000000
    9e50:	e12fff1e 	bx	lr
    9e54:	12345678 	eorsne	r5, r4, #120, 12	; 0x7800000

00009e58 <data_abort_vector>:
    9e58:	e52de004 	push	{lr}		; (str lr, [sp, #-4]!)
    9e5c:	e24dd00c 	sub	sp, sp, #12
    9e60:	e1a04000 	mov	r4, r0
    9e64:	ebfffa34 	bl	873c <rpi_reset_putc>
    9e68:	e59f301c 	ldr	r3, [pc, #28]	; 9e8c <data_abort_vector+0x34>
    9e6c:	e58d3000 	str	r3, [sp]
    9e70:	e58d4004 	str	r4, [sp, #4]
    9e74:	e59f0014 	ldr	r0, [pc, #20]	; 9e90 <data_abort_vector+0x38>
    9e78:	e59f1014 	ldr	r1, [pc, #20]	; 9e94 <data_abort_vector+0x3c>
    9e7c:	e59f2014 	ldr	r2, [pc, #20]	; 9e98 <data_abort_vector+0x40>
    9e80:	e3a03002 	mov	r3, #2
    9e84:	ebfffa11 	bl	86d0 <printk>
    9e88:	ebfffb93 	bl	8cdc <clean_reboot>
    9e8c:	0000a3c8 	andeq	sl, r0, r8, asr #7
    9e90:	0000a320 	andeq	sl, r0, r0, lsr #6
    9e94:	0000a398 	muleq	r0, r8, r3
    9e98:	0000a384 	andeq	sl, r0, r4, lsl #7

00009e9c <prefetch_abort_vector>:
    9e9c:	e52de004 	push	{lr}		; (str lr, [sp, #-4]!)
    9ea0:	e24dd00c 	sub	sp, sp, #12
    9ea4:	e1a04000 	mov	r4, r0
    9ea8:	ebfffa23 	bl	873c <rpi_reset_putc>
    9eac:	e59f301c 	ldr	r3, [pc, #28]	; 9ed0 <prefetch_abort_vector+0x34>
    9eb0:	e58d3000 	str	r3, [sp]
    9eb4:	e58d4004 	str	r4, [sp, #4]
    9eb8:	e59f0014 	ldr	r0, [pc, #20]	; 9ed4 <prefetch_abort_vector+0x38>
    9ebc:	e59f1014 	ldr	r1, [pc, #20]	; 9ed8 <prefetch_abort_vector+0x3c>
    9ec0:	e59f2014 	ldr	r2, [pc, #20]	; 9edc <prefetch_abort_vector+0x40>
    9ec4:	e3a03002 	mov	r3, #2
    9ec8:	ebfffa00 	bl	86d0 <printk>
    9ecc:	ebfffb82 	bl	8cdc <clean_reboot>
    9ed0:	0000a418 	andeq	sl, r0, r8, lsl r4
    9ed4:	0000a320 	andeq	sl, r0, r0, lsr #6
    9ed8:	0000a3ec 	andeq	sl, r0, ip, ror #7
    9edc:	0000a3d4 	ldrdeq	sl, [r0], -r4

00009ee0 <reset_vector>:
    9ee0:	e52de004 	push	{lr}		; (str lr, [sp, #-4]!)
    9ee4:	e24dd00c 	sub	sp, sp, #12
    9ee8:	e1a04000 	mov	r4, r0
    9eec:	ebfffa12 	bl	873c <rpi_reset_putc>
    9ef0:	e59f301c 	ldr	r3, [pc, #28]	; 9f14 <reset_vector+0x34>
    9ef4:	e58d3000 	str	r3, [sp]
    9ef8:	e58d4004 	str	r4, [sp, #4]
    9efc:	e59f0014 	ldr	r0, [pc, #20]	; 9f18 <reset_vector+0x38>
    9f00:	e59f1014 	ldr	r1, [pc, #20]	; 9f1c <reset_vector+0x3c>
    9f04:	e59f2014 	ldr	r2, [pc, #20]	; 9f20 <reset_vector+0x40>
    9f08:	e3a03002 	mov	r3, #2
    9f0c:	ebfff9ef 	bl	86d0 <printk>
    9f10:	ebfffb71 	bl	8cdc <clean_reboot>
    9f14:	0000a464 	andeq	sl, r0, r4, ror #8
    9f18:	0000a320 	andeq	sl, r0, r0, lsr #6
    9f1c:	0000a438 	andeq	sl, r0, r8, lsr r4
    9f20:	0000a428 	andeq	sl, r0, r8, lsr #8

00009f24 <undefined_instruction_vector>:
    9f24:	e52de004 	push	{lr}		; (str lr, [sp, #-4]!)
    9f28:	e24dd00c 	sub	sp, sp, #12
    9f2c:	e1a04000 	mov	r4, r0
    9f30:	ebfffa01 	bl	873c <rpi_reset_putc>
    9f34:	e59f301c 	ldr	r3, [pc, #28]	; 9f58 <undefined_instruction_vector+0x34>
    9f38:	e58d3000 	str	r3, [sp]
    9f3c:	e58d4004 	str	r4, [sp, #4]
    9f40:	e59f0014 	ldr	r0, [pc, #20]	; 9f5c <undefined_instruction_vector+0x38>
    9f44:	e59f1014 	ldr	r1, [pc, #20]	; 9f60 <undefined_instruction_vector+0x3c>
    9f48:	e59f2014 	ldr	r2, [pc, #20]	; 9f64 <undefined_instruction_vector+0x40>
    9f4c:	e3a03002 	mov	r3, #2
    9f50:	ebfff9de 	bl	86d0 <printk>
    9f54:	ebfffb60 	bl	8cdc <clean_reboot>
    9f58:	0000a4c0 	andeq	sl, r0, r0, asr #9
    9f5c:	0000a320 	andeq	sl, r0, r0, lsr #6
    9f60:	0000a48c 	andeq	sl, r0, ip, lsl #9
    9f64:	0000a46c 	andeq	sl, r0, ip, ror #8

00009f68 <memset>:
    9f68:	e0802002 	add	r2, r0, r2
    9f6c:	e1a03000 	mov	r3, r0
    9f70:	ea000001 	b	9f7c <memset+0x14>
    9f74:	e5c31000 	strb	r1, [r3]
    9f78:	e2833001 	add	r3, r3, #1
    9f7c:	e1530002 	cmp	r3, r2
    9f80:	3afffffb 	bcc	9f74 <memset+0xc>
    9f84:	e12fff1e 	bx	lr

Disassembly of section .data:

00009f88 <is_writing>:
    9f88:	00000001 	andeq	r0, r0, r1

00009f8c <rpi_putchar>:
    9f8c:	00008728 	andeq	r8, r0, r8, lsr #14

00009f90 <putk>:
    9f90:	00008764 	andeq	r8, r0, r4, ror #14

00009f94 <GPFSEL0>:
    9f94:	20200000 	eorcs	r0, r0, r0

00009f98 <GPFSEL1>:
    9f98:	20200004 	eorcs	r0, r0, r4

00009f9c <GPFSEL2>:
    9f9c:	20200008 	eorcs	r0, r0, r8

00009fa0 <GPFSEL3>:
    9fa0:	2020000c 	eorcs	r0, r0, ip

00009fa4 <GPFSEL4>:
    9fa4:	20200010 	eorcs	r0, r0, r0, lsl r0

00009fa8 <GPFSEL5>:
    9fa8:	20200014 	eorcs	r0, r0, r4, lsl r0

00009fac <GPSET0>:
    9fac:	2020001c 	eorcs	r0, r0, ip, lsl r0

00009fb0 <GPSET1>:
    9fb0:	20200020 	eorcs	r0, r0, r0, lsr #32

00009fb4 <GPCLR0>:
    9fb4:	20200028 	eorcs	r0, r0, r8, lsr #32

00009fb8 <GPCLR1>:
    9fb8:	2020002c 	eorcs	r0, r0, ip, lsr #32

00009fbc <GPLEV0>:
    9fbc:	20200034 	eorcs	r0, r0, r4, lsr r0

00009fc0 <GPLEV1>:
    9fc0:	20200038 	eorcs	r0, r0, r8, lsr r0

00009fc4 <IRQ_PENDING_2>:
    9fc4:	2000b208 	andcs	fp, r0, r8, lsl #4

00009fc8 <GPREN0>:
    9fc8:	2020004c 	eorcs	r0, r0, ip, asr #32

00009fcc <GPREN1>:
    9fcc:	20200050 	eorcs	r0, r0, r0, asr r0

00009fd0 <ENABLE_IRQS_2>:
    9fd0:	2000b214 	andcs	fp, r0, r4, lsl r2

00009fd4 <GPFEN0>:
    9fd4:	20200058 	eorcs	r0, r0, r8, asr r0

00009fd8 <GPFEN1>:
    9fd8:	2020005c 	eorcs	r0, r0, ip, asr r0

00009fdc <GPEDS0>:
    9fdc:	20200040 	eorcs	r0, r0, r0, asr #32

00009fe0 <GPEDS1>:
    9fe0:	20200044 	eorcs	r0, r0, r4, asr #32

00009fe4 <IRQ_PENDING_1>:
    9fe4:	2000b204 	andcs	fp, r0, r4, lsl #4

00009fe8 <gpio_clr0>:
    9fe8:	20200028 	eorcs	r0, r0, r8, lsr #32

00009fec <gpio_set0>:
    9fec:	2020001c 	eorcs	r0, r0, ip, lsl r0

00009ff0 <gpio_fsel0>:
    9ff0:	20200000 	eorcs	r0, r0, r0

00009ff4 <AUX_ENABLES>:
    9ff4:	20215004 	eorcs	r5, r1, r4

00009ff8 <AUX_MU_CNTL_REG>:
    9ff8:	20215060 	eorcs	r5, r1, r0, rrx

00009ffc <AUX_MU_IER_REG>:
    9ffc:	20215044 	eorcs	r5, r1, r4, asr #32

0000a000 <AUX_MU_IIR_REG>:
    a000:	20215048 	eorcs	r5, r1, r8, asr #32

0000a004 <AUX_MU_LCR_REG>:
    a004:	2021504c 	eorcs	r5, r1, ip, asr #32

0000a008 <AUX_MU_BAUD_REG>:
    a008:	20215068 	eorcs	r5, r1, r8, rrx

0000a00c <AUX_MU_LSR_REG>:
    a00c:	20215054 	eorcs	r5, r1, r4, asr r0

0000a010 <AUX_MU_IO_REG>:
    a010:	20215040 	eorcs	r5, r1, r0, asr #32

0000a014 <AUX_MU_STAT_REG>:
    a014:	20215064 	eorcs	r5, r1, r4, rrx

0000a018 <AUX_MU_SCRATCH>:
    a018:	2021505c 	eorcs	r5, r1, ip, asr r0

0000a01c <AUX_MU_MSR_REG>:
    a01c:	20215058 	eorcs	r5, r1, r8, asr r0

0000a020 <AUX_MU_MCR_REG>:
    a020:	20215050 	eorcs	r5, r1, r0, asr r0

0000a024 <AUX_IRQ>:
    a024:	20215000 	eorcs	r5, r1, r0

Disassembly of section .rodata:

0000a028 <__FUNCTION__.4465>:
    a028:	6c637963 	stclvs	9, cr7, [r3], #-396	; 0xfffffe74
    a02c:	705f7365 	subsvc	r7, pc, r5, ror #6
    a030:	735f7265 	cmpvc	pc, #1342177286	; 0x50000006
    a034:	00006365 	andeq	r6, r0, r5, ror #6
    a038:	4f525245 	svcmi	0x00525245
    a03c:	73253a52 	teqvc	r5, #335872	; 0x52000
    a040:	3a73253a 	bcc	1cd3530 <__bss_end__+0x1cc8c38>
    a044:	203a6425 	eorscs	r6, sl, r5, lsr #8
    a048:	534c4146 	movtpl	r4, #49478	; 0xc146
    a04c:	733c2845 	teqvc	ip, #4521984	; 0x450000
    a050:	32203c20 	eorcc	r3, r0, #32, 24	; 0x2000
    a054:	203a293e 	eorscs	r2, sl, lr, lsr r9
    a058:	6c6c6977 	stclvs	9, cr6, [ip], #-476	; 0xfffffe24
    a05c:	65766f20 	ldrbvs	r6, [r6, #-3872]!	; 0xf20
    a060:	6f6c6672 	svcvs	0x006c6672
    a064:	00000a77 	andeq	r0, r0, r7, ror sl
    a068:	6f6c2d32 	svcvs	0x006c2d32
    a06c:	2d636967 	stclcs	9, cr6, [r3, #-412]!	; 0xfffffe64
    a070:	6c616e61 	stclvs	14, cr6, [r1], #-388	; 0xfffffe7c
    a074:	72657a79 	rsbvc	r7, r5, #495616	; 0x79000
    a078:	0000632e 	andeq	r6, r0, lr, lsr #6
    a07c:	61206d41 	teqvs	r0, r1, asr #26
    a080:	72657320 	rsbvc	r7, r5, #32, 6	; 0x80000000
    a084:	0a726576 	beq	1ca3664 <__bss_end__+0x1c98d6c>
    a088:	00000000 	andeq	r0, r0, r0
    a08c:	65696c63 	strbvs	r6, [r9, #-3171]!	; 0xc63
    a090:	6420746e 	strtvs	r7, [r0], #-1134	; 0x46e
    a094:	3a656e6f 	bcc	1965a58 <__bss_end__+0x195b160>
    a098:	646e6520 	strbtvs	r6, [lr], #-1312	; 0x520
    a09c:	77206465 	strvc	r6, [r0, -r5, ror #8]!
    a0a0:	20687469 	rsbcs	r7, r8, r9, ror #8
    a0a4:	000a6425 	andeq	r6, sl, r5, lsr #8
    a0a8:	6d73694d 	ldclvs	9, cr6, [r3, #-308]!	; 0xfffffecc
    a0ac:	68637461 	stmdavs	r3!, {r0, r5, r6, sl, ip, sp, lr}^
    a0b0:	6f67202c 	svcvs	0x0067202c
    a0b4:	64252074 	strtvs	r2, [r5], #-116	; 0x74
    a0b8:	74756220 	ldrbtvc	r6, [r5], #-544	; 0x220
    a0bc:	70786520 	rsbsvc	r6, r8, r0, lsr #10
    a0c0:	65746365 	ldrbvs	r6, [r4, #-869]!	; 0x365
    a0c4:	64252064 	strtvs	r2, [r5], #-100	; 0x64
    a0c8:	0000000a 	andeq	r0, r0, sl

0000a0cc <__FUNCTION__.4265>:
    a0cc:	74696d65 	strbtvc	r6, [r9], #-3429	; 0xd65
    a0d0:	00000000 	andeq	r0, r0, r0

0000a0d4 <__FUNCTION__.4213>:
    a0d4:	5f697072 	svcpl	0x00697072
    a0d8:	5f746573 	svcpl	0x00746573
    a0dc:	7074756f 	rsbsvc	r7, r4, pc, ror #10
    a0e0:	00007475 	andeq	r7, r0, r5, ror r4

0000a0e4 <__FUNCTION__.4287>:
    a0e4:	705f6176 	subsvc	r6, pc, r6, ror r1	; <UNPREDICTABLE>
    a0e8:	746e6972 	strbtvc	r6, [lr], #-2418	; 0x972
    a0ec:	0000006b 	andeq	r0, r0, fp, rrx
    a0f0:	494e4150 	stmdbmi	lr, {r4, r6, r8, lr}^
    a0f4:	73253a43 	teqvc	r5, #274432	; 0x43000
    a0f8:	3a73253a 	bcc	1cd35e8 <__bss_end__+0x1cc8cf0>
    a0fc:	253a6425 	ldrcs	r6, [sl, #-1061]!	; 0x425
    a100:	00000a73 	andeq	r0, r0, r3, ror sl
    a104:	6362696c 	cmnvs	r2, #108, 18	; 0x1b0000
    a108:	2d61762f 	stclcs	6, cr7, [r1, #-188]!	; 0xffffff44
    a10c:	6e697270 	mcrvs	2, 3, r7, cr9, cr0, {3}
    a110:	632e6b74 	teqvs	lr, #116, 22	; 0x1d000
    a114:	00000000 	andeq	r0, r0, r0
    a118:	00000030 	andeq	r0, r0, r0, lsr r0
    a11c:	33323130 	teqcc	r2, #48, 2
    a120:	37363534 			; <UNDEFINED> instruction: 0x37363534
    a124:	00003938 	andeq	r3, r0, r8, lsr r9
    a128:	33323130 	teqcc	r2, #48, 2
    a12c:	37363534 			; <UNDEFINED> instruction: 0x37363534
    a130:	62613938 	rsbvs	r3, r1, #56, 18	; 0xe0000
    a134:	66656463 	strbtvs	r6, [r5], -r3, ror #8
    a138:	00000000 	andeq	r0, r0, r0
    a13c:	00003130 	andeq	r3, r0, r0, lsr r1
    a140:	63747570 	cmnvs	r4, #112, 10	; 0x1c000000
    a144:	0070665f 	rsbseq	r6, r0, pc, asr r6
    a148:	74646977 	strbtvc	r6, [r4], #-2423	; 0x977
    a14c:	203c2068 	eorscs	r2, ip, r8, rrx
    a150:	00003233 	andeq	r3, r0, r3, lsr r2
    a154:	494e4150 	stmdbmi	lr, {r4, r6, r8, lr}^
    a158:	73253a43 	teqvc	r5, #274432	; 0x43000
    a15c:	3a73253a 	bcc	1cd364c <__bss_end__+0x1cc8d54>
    a160:	663a6425 	ldrtvs	r6, [sl], -r5, lsr #8
    a164:	74616f6c 	strbtvc	r6, [r1], #-3948	; 0xf6c
    a168:	746f6e20 	strbtvc	r6, [pc], #-3616	; a170 <__FUNCTION__.4287+0x8c>
    a16c:	616e6520 	cmnvs	lr, r0, lsr #10
    a170:	64656c62 	strbtvs	r6, [r5], #-3170	; 0xc62
    a174:	0a212121 	beq	852600 <__bss_end__+0x847d08>
    a178:	00000000 	andeq	r0, r0, r0
    a17c:	494e4150 	stmdbmi	lr, {r4, r6, r8, lr}^
    a180:	73253a43 	teqvc	r5, #274432	; 0x43000
    a184:	3a73253a 	bcc	1cd3674 <__bss_end__+0x1cc8d7c>
    a188:	703a6425 	eorsvc	r6, sl, r5, lsr #8
    a18c:	746e6972 	strbtvc	r6, [lr], #-2418	; 0x972
    a190:	6e203a6b 	vnmulvs.f32	s6, s0, s23
    a194:	6820746f 	stmdavs	r0!, {r0, r1, r2, r3, r5, r6, sl, ip, sp, lr}
    a198:	6c646e61 	stclvs	14, cr6, [r4], #-388	; 0xfffffe7c
    a19c:	20676e69 	rsbcs	r6, r7, r9, ror #28
    a1a0:	63657073 	cmnvs	r5, #115	; 0x73
    a1a4:	65696669 	strbvs	r6, [r9, #-1641]!	; 0x669
    a1a8:	25272072 	strcs	r2, [r7, #-114]!	; 0x72
    a1ac:	0a0a2763 	beq	293f40 <__bss_end__+0x289648>
    a1b0:	00000000 	andeq	r0, r0, r0
    a1b4:	454e4f44 	strbmi	r4, [lr, #-3908]	; 0xf44
    a1b8:	0a212121 	beq	852644 <__bss_end__+0x847d4c>
    a1bc:	00000000 	andeq	r0, r0, r0
    a1c0:	756f6261 	strbvc	r6, [pc, #-609]!	; 9f67 <undefined_instruction_vector+0x43>
    a1c4:	6f742074 	svcvs	0x00742074
    a1c8:	69727020 	ldmdbvs	r2!, {r5, ip, sp, lr}^
    a1cc:	6f20746e 	svcvs	0x0020746e
    a1d0:	6572206e 	ldrbvs	r2, [r2, #-110]!	; 0x6e
    a1d4:	616c7567 	cmnvs	ip, r7, ror #10
    a1d8:	72702072 	rsbsvc	r2, r0, #114	; 0x72
    a1dc:	66746e69 	ldrbtvs	r6, [r4], -r9, ror #28
    a1e0:	0000000a 	andeq	r0, r0, sl
    a1e4:	63637573 	cmnvs	r3, #482344960	; 0x1cc00000
    a1e8:	21737365 	cmncs	r3, r5, ror #6
    a1ec:	0000000a 	andeq	r0, r0, sl

0000a1f0 <__FUNCTION__.4314>:
    a1f0:	755f7773 	ldrbvc	r7, [pc, #-1907]	; 9a85 <sw_uart_gets_until_blk+0x19>
    a1f4:	5f747261 	svcpl	0x00747261
    a1f8:	73746567 	cmnvc	r4, #432013312	; 0x19c00000
    a1fc:	746e755f 	strbtvc	r7, [lr], #-1375	; 0x55f
    a200:	00006c69 	andeq	r6, r0, r9, ror #24

0000a204 <__FUNCTION__.4326>:
    a204:	755f7773 	ldrbvc	r7, [pc, #-1907]	; 9a99 <sw_uart_gets_until_blk+0x2d>
    a208:	5f747261 	svcpl	0x00747261
    a20c:	73746567 	cmnvc	r4, #432013312	; 0x19c00000
    a210:	6d69745f 	cfstrdvs	mvd7, [r9, #-380]!	; 0xfffffe84
    a214:	74756f65 	ldrbtvc	r6, [r5], #-3941	; 0xf65
    a218:	00000000 	andeq	r0, r0, r0

0000a21c <__FUNCTION__.4340>:
    a21c:	755f7773 	ldrbvc	r7, [pc, #-1907]	; 9ab1 <sw_uart_gets_until_blk+0x45>
    a220:	5f747261 	svcpl	0x00747261
    a224:	74696e69 	strbtvc	r6, [r9], #-3689	; 0xe69
    a228:	6c65685f 	stclvs	8, cr6, [r5], #-380	; 0xfffffe84
    a22c:	00726570 	rsbseq	r6, r2, r0, ror r5

0000a230 <__FUNCTION__.4346>:
    a230:	755f7773 	ldrbvc	r7, [pc, #-1907]	; 9ac5 <uart_init+0xd>
    a234:	5f747261 	svcpl	0x00747261
    a238:	63746567 	cmnvs	r4, #432013312	; 0x19c00000
    a23c:	00000000 	andeq	r0, r0, r0

0000a240 <__FUNCTION__.4368>:
    a240:	755f7773 	ldrbvc	r7, [pc, #-1907]	; 9ad5 <uart_init+0x1d>
    a244:	5f747261 	svcpl	0x00747261
    a248:	6e697270 	mcrvs	2, 3, r7, cr9, cr0, {3}
    a24c:	00006b74 	andeq	r6, r0, r4, ror fp

0000a250 <__FUNCTION__.4376>:
    a250:	755f7773 	ldrbvc	r7, [pc, #-1907]	; 9ae5 <uart_init+0x2d>
    a254:	5f747261 	svcpl	0x00747261
    a258:	73746567 	cmnvc	r4, #432013312	; 0x19c00000
    a25c:	746e755f 	strbtvc	r7, [lr], #-1375	; 0x55f
    a260:	625f6c69 	subsvs	r6, pc, #26880	; 0x6900
    a264:	00006b6c 	andeq	r6, r0, ip, ror #22
    a268:	732d796d 	teqvc	sp, #1785856	; 0x1b4000
    a26c:	732f6372 	teqvc	pc, #-939524095	; 0xc8000001
    a270:	61752d77 	cmnvs	r5, r7, ror sp
    a274:	632e7472 	teqvs	lr, #1912602624	; 0x72000000
    a278:	00000000 	andeq	r0, r0, r0
    a27c:	7479626e 	ldrbtvc	r6, [r9], #-622	; 0x26e
    a280:	303e7365 	eorscc	r7, lr, r5, ror #6
    a284:	00000000 	andeq	r0, r0, r0
    a288:	7a686d28 	bvc	1a25730 <__bss_end__+0x1a1ae38>
    a28c:	62202d20 	eorvs	r2, r0, #32, 26	; 0x800
    a290:	29647561 	stmdbcs	r4!, {r0, r5, r6, r8, sl, ip, sp, lr}^
    a294:	203d3c20 	eorscs	r3, sp, r0, lsr #24
    a298:	69726564 	ldmdbvs	r2!, {r2, r5, r6, r8, sl, sp, lr}^
    a29c:	20646576 	rsbcs	r6, r4, r6, ror r5
    a2a0:	64202626 	strtvs	r2, [r0], #-1574	; 0x626
    a2a4:	76697265 	strbtvc	r7, [r9], -r5, ror #4
    a2a8:	3c206465 	cfstrscc	mvf6, [r0], #-404	; 0xfffffe6c
    a2ac:	6d28203d 	stcvs	0, cr2, [r8, #-244]!	; 0xffffff0c
    a2b0:	2b207a68 	blcs	828c58 <__bss_end__+0x81e360>
    a2b4:	75616220 	strbvc	r6, [r1, #-544]!	; 0x220
    a2b8:	00002964 	andeq	r2, r0, r4, ror #18
    a2bc:	494e4150 	stmdbmi	lr, {r4, r6, r8, lr}^
    a2c0:	73253a43 	teqvc	r5, #274432	; 0x43000
    a2c4:	3a73253a 	bcc	1cd37b4 <__bss_end__+0x1cc8ebc>
    a2c8:	693a6425 	ldmdbvs	sl!, {r0, r2, r5, sl, sp, lr}
    a2cc:	736f706d 	cmnvc	pc, #109	; 0x6d
    a2d0:	6c626973 	stclvs	9, cr6, [r2], #-460	; 0xfffffe34
    a2d4:	68203a65 	stmdavs	r0!, {r0, r2, r5, r6, r9, fp, ip, sp}
    a2d8:	20657661 	rsbcs	r7, r5, r1, ror #12
    a2dc:	69206e61 	stmdbvs	r0!, {r0, r5, r6, r9, sl, fp, sp, lr}
    a2e0:	6e69666e 	cdpvs	6, 6, cr6, cr9, cr14, {3}
    a2e4:	20657469 	rsbcs	r7, r5, r9, ror #8
    a2e8:	656d6974 	strbvs	r6, [sp, #-2420]!	; 0x974
    a2ec:	2174756f 	cmncs	r4, pc, ror #10
    a2f0:	00000a0a 	andeq	r0, r0, sl, lsl #20
    a2f4:	3c207a73 	stccc	10, cr7, [r0], #-460	; 0xfffffe34
    a2f8:	7a697320 	bvc	1a66f80 <__bss_end__+0x1a5c688>
    a2fc:	20666f65 	rsbcs	r6, r6, r5, ror #30
    a300:	2d667562 	cfstr64cs	mvdx7, [r6, #-392]!	; 0xfffffe78
    a304:	00000031 	andeq	r0, r0, r1, lsr r0

0000a308 <__FUNCTION__.4255>:
    a308:	74736166 	ldrbtvc	r6, [r3], #-358	; 0x166
    a30c:	746e695f 	strbtvc	r6, [lr], #-2399	; 0x95f
    a310:	75727265 	ldrbvc	r7, [r2, #-613]!	; 0x265
    a314:	765f7470 			; <UNDEFINED> instruction: 0x765f7470
    a318:	6f746365 	svcvs	0x00746365
    a31c:	00000072 	andeq	r0, r0, r2, ror r0
    a320:	494e4150 	stmdbmi	lr, {r4, r6, r8, lr}^
    a324:	73253a43 	teqvc	r5, #274432	; 0x43000
    a328:	3a73253a 	bcc	1cd3818 <__bss_end__+0x1cc8f20>
    a32c:	453a6425 	ldrmi	r6, [sl, #-1061]!	; 0x425
    a330:	524f5252 	subpl	r5, pc, #536870917	; 0x20000005
    a334:	6e75203a 	mrcvs	0, 3, r2, cr5, cr10, {1}
    a338:	646e6168 	strbtvs	r6, [lr], #-360	; 0x168
    a33c:	2064656c 	rsbcs	r6, r4, ip, ror #10
    a340:	65637865 	strbvs	r7, [r3, #-2149]!	; 0x865
    a344:	6f697470 	svcvs	0x00697470
    a348:	253c206e 	ldrcs	r2, [ip, #-110]!	; 0x6e
    a34c:	61203e73 	teqvs	r0, r3, ror lr
    a350:	43502074 	cmpmi	r0, #116	; 0x74
    a354:	0a78253d 	beq	1e13850 <__bss_end__+0x1e08f58>
    a358:	0000000a 	andeq	r0, r0, sl
    a35c:	34317363 	ldrtcc	r7, [r1], #-867	; 0x363
    a360:	692d6530 	pushvs	{r4, r5, r8, sl, sp, lr}
    a364:	7265746e 	rsbvc	r7, r5, #1845493760	; 0x6e000000
    a368:	74707572 	ldrbtvc	r7, [r0], #-1394	; 0x572
    a36c:	746e692f 	strbtvc	r6, [lr], #-2351	; 0x92f
    a370:	75727265 	ldrbvc	r7, [r2, #-613]!	; 0x265
    a374:	2d737470 	cfldrdcs	mvd7, [r3, #-448]!	; 0xfffffe40
    a378:	00632e63 	rsbeq	r2, r3, r3, ror #28
    a37c:	74736166 	ldrbtvc	r6, [r3], #-358	; 0x166
    a380:	00000000 	andeq	r0, r0, r0

0000a384 <__FUNCTION__.4241>:
    a384:	61746164 	cmnvs	r4, r4, ror #2
    a388:	6f62615f 	svcvs	0x0062615f
    a38c:	765f7472 			; <UNDEFINED> instruction: 0x765f7472
    a390:	6f746365 	svcvs	0x00746365
    a394:	00000072 	andeq	r0, r0, r2, ror r0
    a398:	34317363 	ldrtcc	r7, [r1], #-867	; 0x363
    a39c:	692d6530 	pushvs	{r4, r5, r8, sl, sp, lr}
    a3a0:	7265746e 	rsbvc	r7, r5, #1845493760	; 0x6e000000
    a3a4:	74707572 	ldrbtvc	r7, [r0], #-1394	; 0x572
    a3a8:	6665642f 	strbtvs	r6, [r5], -pc, lsr #8
    a3ac:	746c7561 	strbtvc	r7, [ip], #-1377	; 0x561
    a3b0:	6e61682d 	cdpvs	8, 6, cr6, cr1, cr13, {1}
    a3b4:	72656c64 	rsbvc	r6, r5, #100, 24	; 0x6400
    a3b8:	7461642d 	strbtvc	r6, [r1], #-1069	; 0x42d
    a3bc:	62612d61 	rsbvs	r2, r1, #6208	; 0x1840
    a3c0:	2e74726f 	cdpcs	2, 7, cr7, cr4, cr15, {3}
    a3c4:	00000063 	andeq	r0, r0, r3, rrx
    a3c8:	61746164 	cmnvs	r4, r4, ror #2
    a3cc:	6f626120 	svcvs	0x00626120
    a3d0:	00007472 	andeq	r7, r0, r2, ror r4

0000a3d4 <__FUNCTION__.4241>:
    a3d4:	66657270 			; <UNDEFINED> instruction: 0x66657270
    a3d8:	68637465 	stmdavs	r3!, {r0, r2, r5, r6, sl, ip, sp, lr}^
    a3dc:	6f62615f 	svcvs	0x0062615f
    a3e0:	765f7472 			; <UNDEFINED> instruction: 0x765f7472
    a3e4:	6f746365 	svcvs	0x00746365
    a3e8:	00000072 	andeq	r0, r0, r2, ror r0
    a3ec:	34317363 	ldrtcc	r7, [r1], #-867	; 0x363
    a3f0:	692d6530 	pushvs	{r4, r5, r8, sl, sp, lr}
    a3f4:	7265746e 	rsbvc	r7, r5, #1845493760	; 0x6e000000
    a3f8:	74707572 	ldrbtvc	r7, [r0], #-1394	; 0x572
    a3fc:	6665642f 	strbtvs	r6, [r5], -pc, lsr #8
    a400:	746c7561 	strbtvc	r7, [ip], #-1377	; 0x561
    a404:	6e61682d 	cdpvs	8, 6, cr6, cr1, cr13, {1}
    a408:	72656c64 	rsbvc	r6, r5, #100, 24	; 0x6400
    a40c:	6572702d 	ldrbvs	r7, [r2, #-45]!	; 0x2d
    a410:	63746566 	cmnvs	r4, #427819008	; 0x19800000
    a414:	00632e68 	rsbeq	r2, r3, r8, ror #28
    a418:	66657270 			; <UNDEFINED> instruction: 0x66657270
    a41c:	68637465 	stmdavs	r3!, {r0, r2, r5, r6, sl, ip, sp, lr}^
    a420:	6f626120 	svcvs	0x00626120
    a424:	00007472 	andeq	r7, r0, r2, ror r4

0000a428 <__FUNCTION__.4241>:
    a428:	65736572 	ldrbvs	r6, [r3, #-1394]!	; 0x572
    a42c:	65765f74 	ldrbvs	r5, [r6, #-3956]!	; 0xf74
    a430:	726f7463 	rsbvc	r7, pc, #1660944384	; 0x63000000
    a434:	00000000 	andeq	r0, r0, r0
    a438:	34317363 	ldrtcc	r7, [r1], #-867	; 0x363
    a43c:	692d6530 	pushvs	{r4, r5, r8, sl, sp, lr}
    a440:	7265746e 	rsbvc	r7, r5, #1845493760	; 0x6e000000
    a444:	74707572 	ldrbtvc	r7, [r0], #-1394	; 0x572
    a448:	6665642f 	strbtvs	r6, [r5], -pc, lsr #8
    a44c:	746c7561 	strbtvc	r7, [ip], #-1377	; 0x561
    a450:	6e61682d 	cdpvs	8, 6, cr6, cr1, cr13, {1}
    a454:	72656c64 	rsbvc	r6, r5, #100, 24	; 0x6400
    a458:	7365722d 	cmnvc	r5, #-805306366	; 0xd0000002
    a45c:	632e7465 	teqvs	lr, #1694498816	; 0x65000000
    a460:	00000000 	andeq	r0, r0, r0
    a464:	65736572 	ldrbvs	r6, [r3, #-1394]!	; 0x572
    a468:	00000074 	andeq	r0, r0, r4, ror r0

0000a46c <__FUNCTION__.4241>:
    a46c:	65646e75 	strbvs	r6, [r4, #-3701]!	; 0xe75
    a470:	656e6966 	strbvs	r6, [lr, #-2406]!	; 0x966
    a474:	6e695f64 	cdpvs	15, 6, cr5, cr9, cr4, {3}
    a478:	75727473 	ldrbvc	r7, [r2, #-1139]!	; 0x473
    a47c:	6f697463 	svcvs	0x00697463
    a480:	65765f6e 	ldrbvs	r5, [r6, #-3950]!	; 0xf6e
    a484:	726f7463 	rsbvc	r7, pc, #1660944384	; 0x63000000
    a488:	00000000 	andeq	r0, r0, r0
    a48c:	34317363 	ldrtcc	r7, [r1], #-867	; 0x363
    a490:	692d6530 	pushvs	{r4, r5, r8, sl, sp, lr}
    a494:	7265746e 	rsbvc	r7, r5, #1845493760	; 0x6e000000
    a498:	74707572 	ldrbtvc	r7, [r0], #-1394	; 0x572
    a49c:	6665642f 	strbtvs	r6, [r5], -pc, lsr #8
    a4a0:	746c7561 	strbtvc	r7, [ip], #-1377	; 0x561
    a4a4:	6e61682d 	cdpvs	8, 6, cr6, cr1, cr13, {1}
    a4a8:	72656c64 	rsbvc	r6, r5, #100, 24	; 0x6400
    a4ac:	646e752d 	strbtvs	r7, [lr], #-1325	; 0x52d
    a4b0:	6e696665 	cdpvs	6, 6, cr6, cr9, cr5, {3}
    a4b4:	692d6465 	pushvs	{r0, r2, r5, r6, sl, sp, lr}
    a4b8:	2e74736e 	cdpcs	3, 7, cr7, cr4, cr14, {3}
    a4bc:	00000063 	andeq	r0, r0, r3, rrx
    a4c0:	65646e75 	strbvs	r6, [r4, #-3701]!	; 0xe75
    a4c4:	656e6966 	strbvs	r6, [lr, #-2406]!	; 0x966
    a4c8:	6e692064 	cdpvs	0, 6, cr2, cr9, cr4, {3}
    a4cc:	00007473 	andeq	r7, r0, r3, ror r4

Disassembly of section .bss:

0000a4d0 <__bss_start__>:
    a4d0:	00000000 	andeq	r0, r0, r0

0000a4d4 <temp>:
    a4d4:	00000000 	andeq	r0, r0, r0

0000a4d8 <cycle_counter>:
    a4d8:	00000000 	andeq	r0, r0, r0

0000a4dc <nevents>:
    a4dc:	00000000 	andeq	r0, r0, r0

0000a4e0 <n_falling_edge>:
    a4e0:	00000000 	andeq	r0, r0, r0

0000a4e4 <n_rising_edge>:
    a4e4:	00000000 	andeq	r0, r0, r0

0000a4e8 <buf.4213>:
	...

0000a8e8 <console_uart>:
	...

0000a8f4 <rpi_arm_timer_t>:
    a8f4:	00000000 	andeq	r0, r0, r0

Disassembly of section .ARM.attributes:

00000000 <.ARM.attributes>:
   0:	00002a41 	andeq	r2, r0, r1, asr #20
   4:	61656100 	cmnvs	r5, r0, lsl #2
   8:	01006962 	tsteq	r0, r2, ror #18
   c:	00000020 	andeq	r0, r0, r0, lsr #32
  10:	4b5a3605 	blmi	168d82c <__bss_end__+0x1682f34>
  14:	08070600 	stmdaeq	r7, {r9, sl}
  18:	12010901 	andne	r0, r1, #16384	; 0x4000
  1c:	15011404 	strne	r1, [r1, #-1028]	; 0x404
  20:	18031701 	stmdane	r3, {r0, r8, r9, sl, ip}
  24:	22011a01 	andcs	r1, r1, #4096	; 0x1000
  28:	Address 0x0000000000000028 is out of bounds.


Disassembly of section .comment:

00000000 <.comment>:
   0:	3a434347 	bcc	10d0d24 <__bss_end__+0x10c642c>
   4:	4e472820 	cdpmi	8, 4, cr2, cr7, cr0, {1}
   8:	34202955 	strtcc	r2, [r0], #-2389	; 0x955
   c:	332e382e 	teqcc	lr, #3014656	; 0x2e0000
	...

Disassembly of section .debug_info:

00000000 <.debug_info>:
       0:	00000d1a 	andeq	r0, r0, sl, lsl sp
       4:	00000004 	andeq	r0, r0, r4
       8:	01040000 	mrseq	r0, (UNDEF: 4)
       c:	000002ac 	andeq	r0, r0, ip, lsr #5
      10:	00032101 	andeq	r2, r3, r1, lsl #2
      14:	00017800 	andeq	r7, r1, r0, lsl #16
      18:	00801000 	addeq	r1, r0, r0
      1c:	0006c000 	andeq	ip, r6, r0
      20:	00000000 	andeq	r0, r0, r0
      24:	05040200 	streq	r0, [r4, #-512]	; 0x200
      28:	00746e69 	rsbseq	r6, r4, r9, ror #28
      2c:	44070403 	strmi	r0, [r7], #-1027	; 0x403
      30:	03000000 	movweq	r0, #0
      34:	02530601 	subseq	r0, r3, #1048576	; 0x100000
      38:	02030000 	andeq	r0, r3, #0
      3c:	00026c05 	andeq	r6, r2, r5, lsl #24
      40:	05040300 	streq	r0, [r4, #-768]	; 0x300
      44:	00000067 	andeq	r0, r0, r7, rrx
      48:	62050803 	andvs	r0, r5, #196608	; 0x30000
      4c:	04000000 	streq	r0, [r0], #-0
      50:	00000399 	muleq	r0, r9, r3
      54:	005a2e06 	subseq	r2, sl, r6, lsl #28
      58:	01030000 	mrseq	r0, (UNDEF: 3)
      5c:	00025108 	andeq	r5, r2, r8, lsl #2
      60:	07020300 	streq	r0, [r2, -r0, lsl #6]
      64:	00000160 	andeq	r0, r0, r0, ror #2
      68:	3f070403 	svccc	0x00070403
      6c:	03000000 	movweq	r0, #0
      70:	003a0708 	eorseq	r0, sl, r8, lsl #14
      74:	04030000 	streq	r0, [r3], #-0
      78:	0001f707 	andeq	pc, r1, r7, lsl #14
      7c:	08010300 	stmdaeq	r1, {r8, r9}
      80:	0000025a 	andeq	r0, r0, sl, asr r2
      84:	008a0405 	addeq	r0, sl, r5, lsl #8
      88:	7d060000 	stcvc	0, cr0, [r6, #-0]
      8c:	07000000 	streq	r0, [r0, -r0]
      90:	fc330204 	ldc2	2, cr0, [r3], #-16
      94:	08000000 	stmdaeq	r0, {}	; <UNPREDICTABLE>
      98:	000000a7 	andeq	r0, r0, r7, lsr #1
      9c:	8082e880 	addhi	lr, r2, r0, lsl #17
      a0:	00980802 	addseq	r0, r8, r2, lsl #16
      a4:	e8800000 	stm	r0, {}	; <UNPREDICTABLE>
      a8:	08028082 	stmdaeq	r2, {r1, r7, pc}
      ac:	00000349 	andeq	r0, r0, r9, asr #6
      b0:	8082e884 	addhi	lr, r2, r4, lsl #17
      b4:	007f0802 	rsbseq	r0, pc, r2, lsl #16
      b8:	e8880000 	stm	r8, {}	; <UNPREDICTABLE>
      bc:	08028082 	stmdaeq	r2, {r1, r7, pc}
      c0:	00000359 	andeq	r0, r0, r9, asr r3
      c4:	8082e88c 	addhi	lr, r2, ip, lsl #17
      c8:	001f0802 	andseq	r0, pc, r2, lsl #16
      cc:	e8900000 	ldm	r0, {}	; <UNPREDICTABLE>
      d0:	08028082 	stmdaeq	r2, {r1, r7, pc}
      d4:	000000ec 	andeq	r0, r0, ip, ror #1
      d8:	8082e894 	umullhi	lr, r2, r4, r8
      dc:	02000802 	andeq	r0, r0, #131072	; 0x20000
      e0:	e8980000 	ldm	r8, {}	; <UNPREDICTABLE>
      e4:	08028082 	stmdaeq	r2, {r1, r7, pc}
      e8:	00000334 	andeq	r0, r0, r4, lsr r3
      ec:	8082e89c 	umullhi	lr, r2, ip, r8
      f0:	03db0802 	bicseq	r0, fp, #131072	; 0x20000
      f4:	e8a00000 	stmia	r0!, {}	; <UNPREDICTABLE>
      f8:	00028082 	andeq	r8, r2, r2, lsl #1
      fc:	00002c09 	andeq	r2, r0, r9, lsl #24
     100:	00510a00 	subseq	r0, r1, r0, lsl #20
     104:	29010000 	stmdbcs	r1, {}	; <UNPREDICTABLE>
     108:	00011903 	andeq	r1, r1, r3, lsl #18
     10c:	69700b00 	ldmdbvs	r0!, {r8, r9, fp}^
     110:	2901006e 	stmdbcs	r1, {r1, r2, r3, r5, r6}
     114:	0000002c 	andeq	r0, r0, ip, lsr #32
     118:	00d50a00 	sbcseq	r0, r5, r0, lsl #20
     11c:	2e010000 	cdpcs	0, 0, cr0, cr1, cr0, {0}
     120:	00013103 	andeq	r3, r1, r3, lsl #2
     124:	69700b00 	ldmdbvs	r0!, {r8, r9, fp}^
     128:	2e01006e 	cdpcs	0, 0, cr0, cr1, cr14, {3}
     12c:	0000002c 	andeq	r0, r0, ip, lsr #32
     130:	000f0a00 	andeq	r0, pc, r0, lsl #20
     134:	33010000 	movwcc	r0, #4096	; 0x1000
     138:	00015203 	andeq	r5, r1, r3, lsl #4
     13c:	69700b00 	ldmdbvs	r0!, {r8, r9, fp}^
     140:	3301006e 	movwcc	r0, #4206	; 0x106e
     144:	0000002c 	andeq	r0, r0, ip, lsr #32
     148:	0100760b 	tsteq	r0, fp, lsl #12
     14c:	00002c33 	andeq	r2, r0, r3, lsr ip
     150:	7f0c0000 	svcvc	0x000c0000
     154:	01000002 	tsteq	r0, r2
     158:	00002c41 	andeq	r2, r0, r1, asr #24
     15c:	00801000 	addeq	r1, r0, r0
     160:	00005000 	andeq	r5, r0, r0
     164:	2e9c0100 	fmlcse	f0, f4, f0
     168:	0d000002 	stceq	0, cr0, [r0, #-8]
     16c:	41010073 	tstmi	r1, r3, ror r0
     170:	0000002c 	andeq	r0, r0, ip, lsr #32
     174:	00000000 	andeq	r0, r0, r0
     178:	0001530e 	andeq	r5, r1, lr, lsl #6
     17c:	00023e00 	andeq	r3, r2, r0, lsl #28
     180:	28030500 	stmdacs	r3, {r8, sl}
     184:	0f0000a0 	svceq	0x000000a0
     188:	00000298 	muleq	r0, r8, r2
     18c:	002c4301 	eoreq	r4, ip, r1, lsl #6
     190:	73100000 	tstvc	r0, #0
     194:	01000001 	tsteq	r0, r1
     198:	00002c45 	andeq	r2, r0, r5, asr #24
     19c:	00003a00 	andeq	r3, r0, r0, lsl #20
     1a0:	80381100 	eorshi	r1, r8, r0, lsl #2
     1a4:	00040000 	andeq	r0, r4, r0
     1a8:	01ba0000 			; <UNDEFINED> instruction: 0x01ba0000
     1ac:	280f0000 	stmdacs	pc, {}	; <UNPREDICTABLE>
     1b0:	01000002 	tsteq	r0, r2
     1b4:	00002c43 	andeq	r2, r0, r3, asr #24
     1b8:	48110000 	ldmdami	r1, {}	; <UNPREDICTABLE>
     1bc:	04000080 	streq	r0, [r0], #-128	; 0x80
     1c0:	d7000000 	strle	r0, [r0, -r0]
     1c4:	10000001 	andne	r0, r0, r1
     1c8:	00000228 	andeq	r0, r0, r8, lsr #4
     1cc:	002c4501 	eoreq	r4, ip, r1, lsl #10
     1d0:	003a0000 	eorseq	r0, sl, r0
     1d4:	12000000 	andne	r0, r0, #0
     1d8:	00008020 	andeq	r8, r0, r0, lsr #32
     1dc:	00000c81 	andeq	r0, r0, r1, lsl #25
     1e0:	00803413 	addeq	r3, r0, r3, lsl r4
     1e4:	000c8800 	andeq	r8, ip, r0, lsl #16
     1e8:	00020f00 	andeq	r0, r2, r0, lsl #30
     1ec:	53011400 	movwpl	r1, #5120	; 0x1400
     1f0:	14420802 	strbne	r0, [r2], #-2050	; 0x802
     1f4:	03055201 	movweq	r5, #20993	; 0x5201
     1f8:	0000a028 	andeq	sl, r0, r8, lsr #32
     1fc:	05510114 	ldrbeq	r0, [r1, #-276]	; 0x114
     200:	00a06803 	adceq	r6, r0, r3, lsl #16
     204:	50011400 	andpl	r1, r1, r0, lsl #8
     208:	a0380305 	eorsge	r0, r8, r5, lsl #6
     20c:	12000000 	andne	r0, r0, #0
     210:	00008038 	andeq	r8, r0, r8, lsr r0
     214:	00000c9e 	muleq	r0, lr, ip
     218:	00804815 	addeq	r4, r0, r5, lsl r8
     21c:	000ca500 	andeq	sl, ip, r0, lsl #10
     220:	50011400 	andpl	r1, r1, r0, lsl #8
     224:	5001f307 	andpl	pc, r1, r7, lsl #6
     228:	1e03e80a 	cdpne	8, 0, cr14, cr3, cr10, {0}
     22c:	7d160000 	ldcvc	0, cr0, [r6, #-0]
     230:	3e000000 	cdpcc	0, 0, cr0, cr0, cr0, {0}
     234:	17000002 	strne	r0, [r0, -r2]
     238:	00000076 	andeq	r0, r0, r6, ror r0
     23c:	2e06000e 	cdpcs	0, 0, cr0, cr6, cr14, {0}
     240:	0c000002 	stceq	0, cr0, [r0], {2}
     244:	0000025f 	andeq	r0, r0, pc, asr r2
     248:	002c4a01 	eoreq	r4, ip, r1, lsl #20
     24c:	80600000 	rsbhi	r0, r0, r0
     250:	01ec0000 	mvneq	r0, r0
     254:	9c010000 	stcls	0, cr0, [r1], {-0}
     258:	000003cb 	andeq	r0, r0, fp, asr #7
     25c:	6e69700d 	cdpvs	0, 6, cr7, cr9, cr13, {0}
     260:	2c4a0100 	stfcse	f0, [sl], {-0}
     264:	4d000000 	stcmi	0, cr0, [r0, #-0]
     268:	10000000 	andne	r0, r0, r0
     26c:	00000418 	andeq	r0, r0, r8, lsl r4
     270:	002c4c01 	eoreq	r4, ip, r1, lsl #24
     274:	006e0000 	rsbeq	r0, lr, r0
     278:	69180000 	ldmdbvs	r8, {}	; <UNPREDICTABLE>
     27c:	2c4d0100 	stfcse	f0, [sp], {-0}
     280:	01000000 	mrseq	r0, (UNDEF: 0)
     284:	0005fc19 	andeq	pc, r5, r9, lsl ip	; <UNPREDICTABLE>
     288:	2c510100 	ldfcse	f0, [r1], {-0}
     28c:	01000000 	mrseq	r0, (UNDEF: 0)
     290:	80741153 	rsbshi	r1, r4, r3, asr r1
     294:	00040000 	andeq	r0, r4, r0
     298:	02ac0000 	adceq	r0, ip, #0
     29c:	28190000 	ldmdacs	r9, {}	; <UNPREDICTABLE>
     2a0:	01000002 	tsteq	r0, r2
     2a4:	00002c51 	andeq	r2, r0, r1, asr ip
     2a8:	00530100 	subseq	r0, r3, r0, lsl #2
     2ac:	00807c11 	addeq	r7, r0, r1, lsl ip
     2b0:	00000400 	andeq	r0, r0, r0, lsl #8
     2b4:	0002c900 	andeq	ip, r2, r0, lsl #18
     2b8:	02281000 	eoreq	r1, r8, #0
     2bc:	52010000 	andpl	r0, r1, #0
     2c0:	0000002c 	andeq	r0, r0, ip, lsr #32
     2c4:	000000cf 	andeq	r0, r0, pc, asr #1
     2c8:	80901100 	addshi	r1, r0, r0, lsl #2
     2cc:	00040000 	andeq	r0, r4, r0
     2d0:	02e60000 	rsceq	r0, r6, #0
     2d4:	28100000 	ldmdacs	r0, {}	; <UNPREDICTABLE>
     2d8:	01000002 	tsteq	r0, r2
     2dc:	00002c54 	andeq	r2, r0, r4, asr ip
     2e0:	0000e200 	andeq	lr, r0, r0, lsl #4
     2e4:	bc110000 	ldclt	0, cr0, [r1], {-0}
     2e8:	04000080 	streq	r0, [r0], #-128	; 0x80
     2ec:	03000000 	movweq	r0, #0
     2f0:	10000003 	andne	r0, r0, r3
     2f4:	00000228 	andeq	r0, r0, r8, lsr #4
     2f8:	002c5601 	eoreq	r5, ip, r1, lsl #12
     2fc:	00f50000 	rscseq	r0, r5, r0
     300:	11000000 	mrsne	r0, (UNDEF: 0)
     304:	000080ec 	andeq	r8, r0, ip, ror #1
     308:	00000004 	andeq	r0, r0, r4
     30c:	00000320 	andeq	r0, r0, r0, lsr #6
     310:	00022810 	andeq	r2, r2, r0, lsl r8
     314:	2c580100 	ldfcse	f0, [r8], {-0}
     318:	08000000 	stmdaeq	r0, {}	; <UNPREDICTABLE>
     31c:	00000001 	andeq	r0, r0, r1
     320:	00811c11 	addeq	r1, r1, r1, lsl ip
     324:	00000400 	andeq	r0, r0, r0, lsl #8
     328:	00033d00 	andeq	r3, r3, r0, lsl #26
     32c:	02281000 	eoreq	r1, r8, #0
     330:	5a010000 	bpl	40338 <__bss_end__+0x35a40>
     334:	0000002c 	andeq	r0, r0, ip, lsr #32
     338:	0000011b 	andeq	r0, r0, fp, lsl r1
     33c:	814c1100 	mrshi	r1, (UNDEF: 92)
     340:	00040000 	andeq	r0, r4, r0
     344:	035a0000 	cmpeq	sl, #0
     348:	28100000 	ldmdacs	r0, {}	; <UNPREDICTABLE>
     34c:	01000002 	tsteq	r0, r2
     350:	00002c5c 	andeq	r2, r0, ip, asr ip
     354:	00012e00 	andeq	r2, r1, r0, lsl #28
     358:	7c110000 	ldcvc	0, cr0, [r1], {-0}
     35c:	04000081 	streq	r0, [r0], #-129	; 0x81
     360:	77000000 	strvc	r0, [r0, -r0]
     364:	10000003 	andne	r0, r0, r3
     368:	00000228 	andeq	r0, r0, r8, lsr #4
     36c:	002c5e01 	eoreq	r5, ip, r1, lsl #28
     370:	01410000 	mrseq	r0, (UNDEF: 65)
     374:	11000000 	mrsne	r0, (UNDEF: 0)
     378:	000081ac 	andeq	r8, r0, ip, lsr #3
     37c:	00000004 	andeq	r0, r0, r4
     380:	00000394 	muleq	r0, r4, r3
     384:	00022810 	andeq	r2, r2, r0, lsl r8
     388:	2c600100 	stfcse	f0, [r0], #-0
     38c:	54000000 	strpl	r0, [r0], #-0
     390:	00000001 	andeq	r0, r0, r1
     394:	0081dc11 	addeq	sp, r1, r1, lsl ip
     398:	00000400 	andeq	r0, r0, r0, lsl #8
     39c:	0003b100 	andeq	fp, r3, r0, lsl #2
     3a0:	02281000 	eoreq	r1, r8, #0
     3a4:	62010000 	andvs	r0, r1, #0
     3a8:	0000002c 	andeq	r0, r0, ip, lsr #32
     3ac:	00000167 	andeq	r0, r0, r7, ror #2
     3b0:	82081a00 	andhi	r1, r8, #0, 20
     3b4:	00040000 	andeq	r0, r4, r0
     3b8:	28100000 	ldmdacs	r0, {}	; <UNPREDICTABLE>
     3bc:	01000002 	tsteq	r0, r2
     3c0:	00002c64 	andeq	r2, r0, r4, ror #24
     3c4:	00017a00 	andeq	r7, r1, r0, lsl #20
     3c8:	1b000000 	blne	3d0 <_start-0x7c30>
     3cc:	000000c4 	andeq	r0, r0, r4, asr #1
     3d0:	824c7301 	subhi	r7, ip, #67108864	; 0x4000000
     3d4:	028c0000 	addeq	r0, ip, #0
     3d8:	9c010000 	stcls	0, cr0, [r1], {-0}
     3dc:	00000881 	andeq	r0, r0, r1, lsl #17
     3e0:	6e69700d 	cdpvs	0, 6, cr7, cr9, cr13, {0}
     3e4:	2c730100 	ldfcse	f0, [r3], #-0
     3e8:	8d000000 	stchi	0, cr0, [r0, #-0]
     3ec:	1c000001 	stcne	0, cr0, [r0], {1}
     3f0:	00000a2c 	andeq	r0, r0, ip, lsr #20
     3f4:	004f7301 	subeq	r7, pc, r1, lsl #6
     3f8:	01ae0000 			; <UNDEFINED> instruction: 0x01ae0000
     3fc:	781c0000 	ldmdavc	ip, {}	; <UNPREDICTABLE>
     400:	01000000 	mrseq	r0, (UNDEF: 0)
     404:	00002c73 	andeq	r2, r0, r3, ror ip
     408:	0001e800 	andeq	lr, r1, r0, lsl #16
     40c:	00691800 	rsbeq	r1, r9, r0, lsl #16
     410:	002c7401 	eoreq	r7, ip, r1, lsl #8
     414:	19010000 	stmdbne	r1, {}	; <UNPREDICTABLE>
     418:	000005fc 	strdeq	r0, [r0], -ip
     41c:	002c7501 	eoreq	r7, ip, r1, lsl #10
     420:	53010000 	movwpl	r0, #4096	; 0x1000
     424:	00825011 	addeq	r5, r2, r1, lsl r0
     428:	00000400 	andeq	r0, r0, r0, lsl #8
     42c:	00043f00 	andeq	r3, r4, r0, lsl #30
     430:	02281900 	eoreq	r1, r8, #0, 18
     434:	75010000 	strvc	r0, [r1, #-0]
     438:	0000002c 	andeq	r0, r0, ip, lsr #32
     43c:	1d005301 	stcne	3, cr5, [r0, #-4]
     440:	00000119 	andeq	r0, r0, r9, lsl r1
     444:	00008254 	andeq	r8, r0, r4, asr r2
     448:	00000018 	andeq	r0, r0, r8, lsl r0
     44c:	045c7701 	ldrbeq	r7, [ip], #-1793	; 0x701
     450:	251e0000 	ldrcs	r0, [lr, #-0]
     454:	09000001 	stmdbeq	r0, {r0}
     458:	00000002 	andeq	r0, r0, r2
     45c:	00827011 	addeq	r7, r2, r1, lsl r0
     460:	00000400 	andeq	r0, r0, r0, lsl #8
     464:	00047900 	andeq	r7, r4, r0, lsl #18
     468:	02281000 	eoreq	r1, r8, #0
     46c:	78010000 	stmdavc	r1, {}	; <UNPREDICTABLE>
     470:	0000002c 	andeq	r0, r0, ip, lsr #32
     474:	0000022a 	andeq	r0, r0, sl, lsr #4
     478:	01311d00 	teqeq	r1, r0, lsl #26
     47c:	82800000 	addhi	r0, r0, #0
     480:	002c0000 	eoreq	r0, ip, r0
     484:	79010000 	stmdbvc	r1, {}	; <UNPREDICTABLE>
     488:	000004d6 	ldrdeq	r0, [r0], -r6
     48c:	0001481e 	andeq	r4, r1, lr, lsl r8
     490:	00023d00 	andeq	r3, r2, r0, lsl #26
     494:	013d1f00 	teqeq	sp, r0, lsl #30
     498:	f3040000 	vhadd.u8	d0, d4, d0
     49c:	1d9f5001 	ldcne	0, cr5, [pc, #4]	; 4a8 <_start-0x7b58>
     4a0:	00000101 	andeq	r0, r0, r1, lsl #2
     4a4:	00008288 	andeq	r8, r0, r8, lsl #5
     4a8:	00000014 	andeq	r0, r0, r4, lsl r0
     4ac:	04bc3601 	ldrteq	r3, [ip], #1537	; 0x601
     4b0:	0d1e0000 	ldceq	0, cr0, [lr, #-0]
     4b4:	69000001 	stmdbvs	r0, {r0}
     4b8:	00000002 	andeq	r0, r0, r2
     4bc:	00011920 	andeq	r1, r1, r0, lsr #18
     4c0:	00829c00 	addeq	r9, r2, r0, lsl #24
     4c4:	00001000 	andeq	r1, r0, r0
     4c8:	1e380100 	rsfnee	f0, f0, f0
     4cc:	00000125 	andeq	r0, r0, r5, lsr #2
     4d0:	0000027f 	andeq	r0, r0, pc, ror r2
     4d4:	b0110000 	andslt	r0, r1, r0
     4d8:	04000082 	streq	r0, [r0], #-130	; 0x82
     4dc:	f3000000 	vhadd.u8	d0, d0, d0
     4e0:	10000004 	andne	r0, r0, r4
     4e4:	00000228 	andeq	r0, r0, r8, lsr #4
     4e8:	002c7a01 	eoreq	r7, ip, r1, lsl #20
     4ec:	02950000 	addseq	r0, r5, #0
     4f0:	1d000000 	stcne	0, cr0, [r0, #-0]
     4f4:	00000131 	andeq	r0, r0, r1, lsr r1
     4f8:	000082c0 	andeq	r8, r0, r0, asr #5
     4fc:	0000002c 	andeq	r0, r0, ip, lsr #32
     500:	05507b01 	ldrbeq	r7, [r0, #-2817]	; 0xb01
     504:	481e0000 	ldmdami	lr, {}	; <UNPREDICTABLE>
     508:	a8000001 	stmdage	r0, {r0}
     50c:	1f000002 	svcne	0x00000002
     510:	0000013d 	andeq	r0, r0, sp, lsr r1
     514:	5001f304 	andpl	pc, r1, r4, lsl #6
     518:	01011d9f 			; <UNDEFINED> instruction: 0x01011d9f
     51c:	82c80000 	sbchi	r0, r8, #0
     520:	00140000 	andseq	r0, r4, r0
     524:	36010000 	strcc	r0, [r1], -r0
     528:	00000536 	andeq	r0, r0, r6, lsr r5
     52c:	00010d1e 	andeq	r0, r1, lr, lsl sp
     530:	0002d400 	andeq	sp, r2, r0, lsl #8
     534:	19200000 	stmdbne	r0!, {}	; <UNPREDICTABLE>
     538:	dc000001 	stcle	0, cr0, [r0], {1}
     53c:	10000082 	andne	r0, r0, r2, lsl #1
     540:	01000000 	mrseq	r0, (UNDEF: 0)
     544:	01251e38 	teqeq	r5, r8, lsr lr
     548:	02ea0000 	rsceq	r0, sl, #0
     54c:	00000000 	andeq	r0, r0, r0
     550:	0082f011 	addeq	pc, r2, r1, lsl r0	; <UNPREDICTABLE>
     554:	00000400 	andeq	r0, r0, r0, lsl #8
     558:	00056d00 	andeq	r6, r5, r0, lsl #26
     55c:	02281000 	eoreq	r1, r8, #0
     560:	7c010000 	stcvc	0, cr0, [r1], {-0}
     564:	0000002c 	andeq	r0, r0, ip, lsr #32
     568:	00000300 	andeq	r0, r0, r0, lsl #6
     56c:	01311d00 	teqeq	r1, r0, lsl #26
     570:	83000000 	movwhi	r0, #0
     574:	002c0000 	eoreq	r0, ip, r0
     578:	7d010000 	stcvc	0, cr0, [r1, #-0]
     57c:	000005ca 	andeq	r0, r0, sl, asr #11
     580:	0001481e 	andeq	r4, r1, lr, lsl r8
     584:	00031300 	andeq	r1, r3, r0, lsl #6
     588:	013d1f00 	teqeq	sp, r0, lsl #30
     58c:	f3040000 	vhadd.u8	d0, d4, d0
     590:	1d9f5001 	ldcne	0, cr5, [pc, #4]	; 59c <_start-0x7a64>
     594:	00000101 	andeq	r0, r0, r1, lsl #2
     598:	00008308 	andeq	r8, r0, r8, lsl #6
     59c:	00000014 	andeq	r0, r0, r4, lsl r0
     5a0:	05b03601 	ldreq	r3, [r0, #1537]!	; 0x601
     5a4:	0d1e0000 	ldceq	0, cr0, [lr, #-0]
     5a8:	3f000001 	svccc	0x00000001
     5ac:	00000003 	andeq	r0, r0, r3
     5b0:	00011920 	andeq	r1, r1, r0, lsr #18
     5b4:	00831c00 	addeq	r1, r3, r0, lsl #24
     5b8:	00001000 	andeq	r1, r0, r0
     5bc:	1e380100 	rsfnee	f0, f0, f0
     5c0:	00000125 	andeq	r0, r0, r5, lsr #2
     5c4:	00000355 	andeq	r0, r0, r5, asr r3
     5c8:	30110000 	andscc	r0, r1, r0
     5cc:	04000083 	streq	r0, [r0], #-131	; 0x83
     5d0:	e7000000 	str	r0, [r0, -r0]
     5d4:	10000005 	andne	r0, r0, r5
     5d8:	00000228 	andeq	r0, r0, r8, lsr #4
     5dc:	002c7e01 	eoreq	r7, ip, r1, lsl #28
     5e0:	036b0000 	cmneq	fp, #0
     5e4:	1d000000 	stcne	0, cr0, [r0, #-0]
     5e8:	00000131 	andeq	r0, r0, r1, lsr r1
     5ec:	00008340 	andeq	r8, r0, r0, asr #6
     5f0:	0000002c 	andeq	r0, r0, ip, lsr #32
     5f4:	06447f01 	strbeq	r7, [r4], -r1, lsl #30
     5f8:	481e0000 	ldmdami	lr, {}	; <UNPREDICTABLE>
     5fc:	7e000001 	cdpvc	0, 0, cr0, cr0, cr1, {0}
     600:	1f000003 	svcne	0x00000003
     604:	0000013d 	andeq	r0, r0, sp, lsr r1
     608:	5001f304 	andpl	pc, r1, r4, lsl #6
     60c:	01011d9f 			; <UNDEFINED> instruction: 0x01011d9f
     610:	83480000 	movthi	r0, #32768	; 0x8000
     614:	00140000 	andseq	r0, r4, r0
     618:	36010000 	strcc	r0, [r1], -r0
     61c:	0000062a 	andeq	r0, r0, sl, lsr #12
     620:	00010d1e 	andeq	r0, r1, lr, lsl sp
     624:	0003aa00 	andeq	sl, r3, r0, lsl #20
     628:	19200000 	stmdbne	r0!, {}	; <UNPREDICTABLE>
     62c:	5c000001 	stcpl	0, cr0, [r0], {1}
     630:	10000083 	andne	r0, r0, r3, lsl #1
     634:	01000000 	mrseq	r0, (UNDEF: 0)
     638:	01251e38 	teqeq	r5, r8, lsr lr
     63c:	03c00000 	biceq	r0, r0, #0
     640:	00000000 	andeq	r0, r0, r0
     644:	00837011 	addeq	r7, r3, r1, lsl r0
     648:	00000400 	andeq	r0, r0, r0, lsl #8
     64c:	00066100 	andeq	r6, r6, r0, lsl #2
     650:	02281000 	eoreq	r1, r8, #0
     654:	80010000 	andhi	r0, r1, r0
     658:	0000002c 	andeq	r0, r0, ip, lsr #32
     65c:	000003d6 	ldrdeq	r0, [r0], -r6
     660:	01311d00 	teqeq	r1, r0, lsl #26
     664:	83800000 	orrhi	r0, r0, #0
     668:	002c0000 	eoreq	r0, ip, r0
     66c:	81010000 	mrshi	r0, (UNDEF: 1)
     670:	000006be 			; <UNDEFINED> instruction: 0x000006be
     674:	0001481e 	andeq	r4, r1, lr, lsl r8
     678:	0003e900 	andeq	lr, r3, r0, lsl #18
     67c:	013d1f00 	teqeq	sp, r0, lsl #30
     680:	f3040000 	vhadd.u8	d0, d4, d0
     684:	1d9f5001 	ldcne	0, cr5, [pc, #4]	; 690 <_start-0x7970>
     688:	00000101 	andeq	r0, r0, r1, lsl #2
     68c:	00008388 	andeq	r8, r0, r8, lsl #7
     690:	00000014 	andeq	r0, r0, r4, lsl r0
     694:	06a43601 	strteq	r3, [r4], r1, lsl #12
     698:	0d1e0000 	ldceq	0, cr0, [lr, #-0]
     69c:	15000001 	strne	r0, [r0, #-1]
     6a0:	00000004 	andeq	r0, r0, r4
     6a4:	00011920 	andeq	r1, r1, r0, lsr #18
     6a8:	00839c00 	addeq	r9, r3, r0, lsl #24
     6ac:	00001000 	andeq	r1, r0, r0
     6b0:	1e380100 	rsfnee	f0, f0, f0
     6b4:	00000125 	andeq	r0, r0, r5, lsr #2
     6b8:	0000042b 	andeq	r0, r0, fp, lsr #8
     6bc:	b0110000 	andslt	r0, r1, r0
     6c0:	04000083 	streq	r0, [r0], #-131	; 0x83
     6c4:	db000000 	blle	6cc <_start-0x7934>
     6c8:	10000006 	andne	r0, r0, r6
     6cc:	00000228 	andeq	r0, r0, r8, lsr #4
     6d0:	002c8201 	eoreq	r8, ip, r1, lsl #4
     6d4:	04410000 	strbeq	r0, [r1], #-0
     6d8:	1d000000 	stcne	0, cr0, [r0, #-0]
     6dc:	00000131 	andeq	r0, r0, r1, lsr r1
     6e0:	000083c0 	andeq	r8, r0, r0, asr #7
     6e4:	0000002c 	andeq	r0, r0, ip, lsr #32
     6e8:	07388301 	ldreq	r8, [r8, -r1, lsl #6]!
     6ec:	481e0000 	ldmdami	lr, {}	; <UNPREDICTABLE>
     6f0:	54000001 	strpl	r0, [r0], #-1
     6f4:	1f000004 	svcne	0x00000004
     6f8:	0000013d 	andeq	r0, r0, sp, lsr r1
     6fc:	5001f304 	andpl	pc, r1, r4, lsl #6
     700:	01011d9f 			; <UNDEFINED> instruction: 0x01011d9f
     704:	83c80000 	bichi	r0, r8, #0
     708:	00140000 	andseq	r0, r4, r0
     70c:	36010000 	strcc	r0, [r1], -r0
     710:	0000071e 	andeq	r0, r0, lr, lsl r7
     714:	00010d1e 	andeq	r0, r1, lr, lsl sp
     718:	00048200 	andeq	r8, r4, r0, lsl #4
     71c:	19200000 	stmdbne	r0!, {}	; <UNPREDICTABLE>
     720:	dc000001 	stcle	0, cr0, [r0], {1}
     724:	10000083 	andne	r0, r0, r3, lsl #1
     728:	01000000 	mrseq	r0, (UNDEF: 0)
     72c:	01251e38 	teqeq	r5, r8, lsr lr
     730:	04980000 	ldreq	r0, [r8], #0
     734:	00000000 	andeq	r0, r0, r0
     738:	0083f011 	addeq	pc, r3, r1, lsl r0	; <UNPREDICTABLE>
     73c:	00000400 	andeq	r0, r0, r0, lsl #8
     740:	00075500 	andeq	r5, r7, r0, lsl #10
     744:	02281000 	eoreq	r1, r8, #0
     748:	84010000 	strhi	r0, [r1], #-0
     74c:	0000002c 	andeq	r0, r0, ip, lsr #32
     750:	000004ae 	andeq	r0, r0, lr, lsr #9
     754:	01311d00 	teqeq	r1, r0, lsl #26
     758:	84000000 	strhi	r0, [r0], #-0
     75c:	002c0000 	eoreq	r0, ip, r0
     760:	85010000 	strhi	r0, [r1, #-0]
     764:	000007b2 			; <UNDEFINED> instruction: 0x000007b2
     768:	0001481e 	andeq	r4, r1, lr, lsl r8
     76c:	0004c100 	andeq	ip, r4, r0, lsl #2
     770:	013d1f00 	teqeq	sp, r0, lsl #30
     774:	f3040000 	vhadd.u8	d0, d4, d0
     778:	1d9f5001 	ldcne	0, cr5, [pc, #4]	; 784 <_start-0x787c>
     77c:	00000101 	andeq	r0, r0, r1, lsl #2
     780:	00008408 	andeq	r8, r0, r8, lsl #8
     784:	00000014 	andeq	r0, r0, r4, lsl r0
     788:	07983601 	ldreq	r3, [r8, r1, lsl #12]
     78c:	0d1e0000 	ldceq	0, cr0, [lr, #-0]
     790:	ef000001 	svc	0x00000001
     794:	00000004 	andeq	r0, r0, r4
     798:	00011920 	andeq	r1, r1, r0, lsr #18
     79c:	00841c00 	addeq	r1, r4, r0, lsl #24
     7a0:	00001000 	andeq	r1, r0, r0
     7a4:	1e380100 	rsfnee	f0, f0, f0
     7a8:	00000125 	andeq	r0, r0, r5, lsr #2
     7ac:	00000505 	andeq	r0, r0, r5, lsl #10
     7b0:	30110000 	andscc	r0, r1, r0
     7b4:	04000084 	streq	r0, [r0], #-132	; 0x84
     7b8:	cf000000 	svcgt	0x00000000
     7bc:	10000007 	andne	r0, r0, r7
     7c0:	00000228 	andeq	r0, r0, r8, lsr #4
     7c4:	002c8601 	eoreq	r8, ip, r1, lsl #12
     7c8:	051b0000 	ldreq	r0, [fp, #-0]
     7cc:	1d000000 	stcne	0, cr0, [r0, #-0]
     7d0:	00000131 	andeq	r0, r0, r1, lsr r1
     7d4:	00008440 	andeq	r8, r0, r0, asr #8
     7d8:	0000002c 	andeq	r0, r0, ip, lsr #32
     7dc:	082c8701 	stmdaeq	ip!, {r0, r8, r9, sl, pc}
     7e0:	481e0000 	ldmdami	lr, {}	; <UNPREDICTABLE>
     7e4:	2e000001 	cdpcs	0, 0, cr0, cr0, cr1, {0}
     7e8:	1f000005 	svcne	0x00000005
     7ec:	0000013d 	andeq	r0, r0, sp, lsr r1
     7f0:	5001f304 	andpl	pc, r1, r4, lsl #6
     7f4:	01011d9f 			; <UNDEFINED> instruction: 0x01011d9f
     7f8:	84480000 	strbhi	r0, [r8], #-0
     7fc:	00140000 	andseq	r0, r4, r0
     800:	36010000 	strcc	r0, [r1], -r0
     804:	00000812 	andeq	r0, r0, r2, lsl r8
     808:	00010d1e 	andeq	r0, r1, lr, lsl sp
     80c:	00055c00 	andeq	r5, r5, r0, lsl #24
     810:	19200000 	stmdbne	r0!, {}	; <UNPREDICTABLE>
     814:	5c000001 	stcpl	0, cr0, [r0], {1}
     818:	10000084 	andne	r0, r0, r4, lsl #1
     81c:	01000000 	mrseq	r0, (UNDEF: 0)
     820:	01251e38 	teqeq	r5, r8, lsr lr
     824:	05720000 	ldrbeq	r0, [r2, #-0]!
     828:	00000000 	andeq	r0, r0, r0
     82c:	00847011 	addeq	r7, r4, r1, lsl r0
     830:	00000400 	andeq	r0, r0, r0, lsl #8
     834:	00084900 	andeq	r4, r8, r0, lsl #18
     838:	02281000 	eoreq	r1, r8, #0
     83c:	88010000 	stmdahi	r1, {}	; <UNPREDICTABLE>
     840:	0000002c 	andeq	r0, r0, ip, lsr #32
     844:	00000588 	andeq	r0, r0, r8, lsl #11
     848:	01011d00 	tsteq	r1, r0, lsl #26
     84c:	84800000 	strhi	r0, [r0], #0
     850:	00100000 	andseq	r0, r0, r0
     854:	89010000 	stmdbhi	r1, {}	; <UNPREDICTABLE>
     858:	00000867 	andeq	r0, r0, r7, ror #16
     85c:	00010d1f 	andeq	r0, r1, pc, lsl sp
     860:	01f30400 	mvnseq	r0, r0, lsl #8
     864:	1a009f50 	bne	285ac <__bss_end__+0x1dcb4>
     868:	00008494 	muleq	r0, r4, r4
     86c:	00000004 	andeq	r0, r0, r4
     870:	00022810 	andeq	r2, r2, r0, lsl r8
     874:	2c8a0100 	stfcss	f0, [sl], {0}
     878:	9b000000 	blls	880 <_start-0x7780>
     87c:	00000005 	andeq	r0, r0, r5
     880:	01d12100 	bicseq	r2, r1, r0, lsl #2
     884:	8f010000 	svchi	0x00010000
     888:	000084d8 	ldrdeq	r8, [r0], -r8	; <UNPREDICTABLE>
     88c:	00000104 	andeq	r0, r0, r4, lsl #2
     890:	09949c01 	ldmibeq	r4, {r0, sl, fp, ip, pc}
     894:	740d0000 	strvc	r0, [sp], #-0
     898:	8f010078 	svchi	0x00010078
     89c:	0000002c 	andeq	r0, r0, ip, lsr #32
     8a0:	000005ae 	andeq	r0, r0, lr, lsr #11
     8a4:	0078720d 	rsbseq	r7, r8, sp, lsl #4
     8a8:	002c8f01 	eoreq	r8, ip, r1, lsl #30
     8ac:	05cc0000 	strbeq	r0, [ip]
     8b0:	6e0d0000 	cdpvs	0, 0, cr0, cr13, cr0, {0}
     8b4:	2c8f0100 	stfcss	f0, [pc], {0}
     8b8:	ed000000 	stc	0, cr0, [r0, #-0]
     8bc:	1d000005 	stcne	0, cr0, [r0, #-20]	; 0xffffffec
     8c0:	00000101 	andeq	r0, r0, r1, lsl #2
     8c4:	000084e4 	andeq	r8, r0, r4, ror #9
     8c8:	00000014 	andeq	r0, r0, r4, lsl r0
     8cc:	08dc9001 	ldmeq	ip, {r0, ip, pc}^
     8d0:	0d1e0000 	ldceq	0, cr0, [lr, #-0]
     8d4:	0b000001 	bleq	8e0 <_start-0x7720>
     8d8:	00000006 	andeq	r0, r0, r6
     8dc:	00850013 	addeq	r0, r5, r3, lsl r0
     8e0:	000c8800 	andeq	r8, ip, r0, lsl #16
     8e4:	0008f300 	andeq	pc, r8, r0, lsl #6
     8e8:	50011400 	andpl	r1, r1, r0, lsl #8
     8ec:	a07c0305 	rsbsge	r0, ip, r5, lsl #6
     8f0:	13000000 	movwne	r0, #0
     8f4:	00008518 	andeq	r8, r0, r8, lsl r5
     8f8:	00000ca5 	andeq	r0, r0, r5, lsr #25
     8fc:	00000906 	andeq	r0, r0, r6, lsl #18
     900:	01500114 	cmpeq	r0, r4, lsl r1
     904:	4c130031 	ldcmi	0, cr0, [r3], {49}	; 0x31
     908:	cb000085 	blgt	b24 <_start-0x74dc>
     90c:	20000003 	andcs	r0, r0, r3
     910:	14000009 	strne	r0, [r0], #-9
     914:	78025201 	stmdavc	r2, {r0, r9, ip, lr}
     918:	50011400 	andpl	r1, r1, r0, lsl #8
     91c:	00007702 	andeq	r7, r0, r2, lsl #14
     920:	00856413 	addeq	r6, r5, r3, lsl r4
     924:	0003cb00 	andeq	ip, r3, r0, lsl #22
     928:	00093a00 	andeq	r3, r9, r0, lsl #20
     92c:	52011400 	andpl	r1, r1, #0, 8
     930:	14007802 	strne	r7, [r0], #-2050	; 0x802
     934:	77025001 	strvc	r5, [r2, -r1]
     938:	7c130000 	ldcvc	0, cr0, [r3], {-0}
     93c:	cb000085 	blgt	b58 <_start-0x74a8>
     940:	54000003 	strpl	r0, [r0], #-3
     944:	14000009 	strne	r0, [r0], #-9
     948:	78025201 	stmdavc	r2, {r0, r9, ip, lr}
     94c:	50011400 	andpl	r1, r1, r0, lsl #8
     950:	00007702 	andeq	r7, r0, r2, lsl #14
     954:	00859013 	addeq	r9, r5, r3, lsl r0
     958:	0003cb00 	andeq	ip, r3, r0, lsl #22
     95c:	00096e00 	andeq	r6, r9, r0, lsl #28
     960:	52011400 	andpl	r1, r1, #0, 8
     964:	14007802 	strne	r7, [r0], #-2050	; 0x802
     968:	77025001 	strvc	r5, [r2, -r1]
     96c:	98120000 	ldmdals	r2, {}	; <UNPREDICTABLE>
     970:	b6000085 	strlt	r0, [r0], -r5, lsl #1
     974:	1200000c 	andne	r0, r0, #12
     978:	000085a8 	andeq	r8, r0, r8, lsr #11
     97c:	00000cbd 			; <UNDEFINED> instruction: 0x00000cbd
     980:	0085c015 	addeq	ip, r5, r5, lsl r0
     984:	000c8800 	andeq	r8, ip, r0, lsl #16
     988:	50011400 	andpl	r1, r1, r0, lsl #8
     98c:	a08c0305 	addge	r0, ip, r5, lsl #6
     990:	00000000 	andeq	r0, r0, r0
     994:	000bbb1b 	andeq	fp, fp, fp, lsl fp
     998:	dcac0100 	stfles	f0, [ip]
     99c:	b0000085 	andlt	r0, r0, r5, lsl #1
     9a0:	01000000 	mrseq	r0, (UNDEF: 0)
     9a4:	000a339c 	muleq	sl, ip, r3
     9a8:	63700d00 	cmnvs	r0, #0, 26
     9ac:	2cac0100 	stfcss	f0, [ip]
     9b0:	29000000 	stmdbcs	r0, {}	; <UNPREDICTABLE>
     9b4:	13000006 	movwne	r0, #6
     9b8:	000085e8 	andeq	r8, r0, r8, ror #11
     9bc:	00000243 	andeq	r0, r0, r3, asr #4
     9c0:	000009ca 	andeq	r0, r0, sl, asr #19
     9c4:	01500114 	cmpeq	r0, r4, lsl r1
     9c8:	fc130044 	ldc2	0, cr0, [r3], {68}	; 0x44
     9cc:	43000085 	movwmi	r0, #133	; 0x85
     9d0:	dd000002 	stcle	0, cr0, [r0, #-8]
     9d4:	14000009 	strne	r0, [r0], #-9
     9d8:	44015001 	strmi	r5, [r1], #-1
     9dc:	86101300 	ldrhi	r1, [r0], -r0, lsl #6
     9e0:	02430000 	subeq	r0, r3, #0
     9e4:	09f00000 	ldmibeq	r0!, {}^	; <UNPREDICTABLE>
     9e8:	01140000 	tsteq	r4, r0
     9ec:	00440150 	subeq	r0, r4, r0, asr r1
     9f0:	00862413 	addeq	r2, r6, r3, lsl r4
     9f4:	00024300 	andeq	r4, r2, r0, lsl #6
     9f8:	000a0300 	andeq	r0, sl, r0, lsl #6
     9fc:	50011400 	andpl	r1, r1, r0, lsl #8
     a00:	13004401 	movwne	r4, #1025	; 0x401
     a04:	00008650 	andeq	r8, r0, r0, asr r6
     a08:	00000c88 	andeq	r0, r0, r8, lsl #25
     a0c:	00000a1a 	andeq	r0, r0, sl, lsl sl
     a10:	05500114 	ldrbeq	r0, [r0, #-276]	; 0x114
     a14:	00a0a803 	adceq	sl, r0, r3, lsl #16
     a18:	74120000 	ldrvc	r0, [r2], #-0
     a1c:	bd000086 	stclt	0, cr0, [r0, #-536]	; 0xfffffde8
     a20:	1500000c 	strne	r0, [r0, #-12]
     a24:	0000867c 	andeq	r8, r0, ip, ror r6
     a28:	00000cc4 	andeq	r0, r0, r4, asr #25
     a2c:	01500114 	cmpeq	r0, r4, lsl r1
     a30:	1b000044 	blne	b48 <_start-0x74b8>
     a34:	000000cd 	andeq	r0, r0, sp, asr #1
     a38:	868cca01 	strhi	ip, [ip], r1, lsl #20
     a3c:	00440000 	subeq	r0, r4, r0
     a40:	9c010000 	stcls	0, cr0, [r1], {-0}
     a44:	00000ade 	ldrdeq	r0, [r0], -lr
     a48:	0086b411 	addeq	fp, r6, r1, lsl r4
     a4c:	00000800 	andeq	r0, r0, r0, lsl #16
     a50:	000a6100 	andeq	r6, sl, r0, lsl #2
     a54:	6e691800 	cdpvs	8, 6, cr1, cr9, cr0, {0}
     a58:	2cd40100 	ldfcse	f0, [r4], {0}
     a5c:	01000000 	mrseq	r0, (UNDEF: 0)
     a60:	86941200 	ldrhi	r1, [r4], r0, lsl #4
     a64:	0cd50000 	ldcleq	0, cr0, [r5], {0}
     a68:	98120000 	ldmdals	r2, {}	; <UNPREDICTABLE>
     a6c:	dc000086 	stcle	0, cr0, [r0], {134}	; 0x86
     a70:	1300000c 	movwne	r0, #12
     a74:	000086a0 	andeq	r8, r0, r0, lsr #13
     a78:	00000ce3 	andeq	r0, r0, r3, ror #25
     a7c:	00000a86 	andeq	r0, r0, r6, lsl #21
     a80:	01500114 	cmpeq	r0, r4, lsl r1
     a84:	a8130045 	ldmdage	r3, {r0, r2, r6}
     a88:	f4000086 	vst4.32	{d0-d3}, [r0], r6
     a8c:	9900000c 	stmdbls	r0, {r2, r3}
     a90:	1400000a 	strne	r0, [r0], #-10
     a94:	44015001 	strmi	r5, [r1], #-1
     a98:	86b01300 	ldrthi	r1, [r0], r0, lsl #6
     a9c:	0d050000 	stceq	0, cr0, [r5, #-0]
     aa0:	0aac0000 	beq	feb00aa8 <__bss_end__+0xfeaf61b0>
     aa4:	01140000 	tsteq	r4, r0
     aa8:	00440150 	subeq	r0, r4, r0, asr r1
     aac:	0086b412 	addeq	fp, r6, r2, lsl r4
     ab0:	000d1600 	andeq	r1, sp, r0, lsl #12
     ab4:	86cc1300 	strbhi	r1, [ip], r0, lsl #6
     ab8:	08810000 	stmeq	r1, {}	; <UNPREDICTABLE>
     abc:	0ad40000 	beq	ff500ac4 <__bss_end__+0xff4f61cc>
     ac0:	01140000 	tsteq	r4, r0
     ac4:	000a0352 	andeq	r0, sl, r2, asr r3
     ac8:	51011410 	tstpl	r1, r0, lsl r4
     acc:	01144401 	tsteq	r4, r1, lsl #8
     ad0:	00450150 	subeq	r0, r5, r0, asr r1
     ad4:	0086d012 	addeq	sp, r6, r2, lsl r0
     ad8:	000c9e00 	andeq	r9, ip, r0, lsl #28
     adc:	d8220000 	stmdale	r2!, {}	; <UNPREDICTABLE>
     ae0:	01000001 	tsteq	r0, r1
     ae4:	000aed0f 	andeq	lr, sl, pc, lsl #26
     ae8:	20000000 	andcs	r0, r0, r0
     aec:	fc040520 	stc2	5, cr0, [r4], {32}
     af0:	22000000 	andcs	r0, r0, #0
     af4:	0000028e 	andeq	r0, r0, lr, lsl #5
     af8:	0aed1001 	beq	ffb44b04 <__bss_end__+0xffb3a20c>
     afc:	001c0000 	andseq	r0, ip, r0
     b00:	b7222020 	strlt	r2, [r2, -r0, lsr #32]!
     b04:	01000003 	tsteq	r0, r3
     b08:	000aed11 	andeq	lr, sl, r1, lsl sp
     b0c:	20002800 	andcs	r2, r0, r0, lsl #16
     b10:	010f2220 	tsteq	pc, r0, lsr #4
     b14:	13010000 	movwne	r0, #4096	; 0x1000
     b18:	00000aed 	andeq	r0, r0, sp, ror #21
     b1c:	20200000 	eorcs	r0, r0, r0
     b20:	00011722 	andeq	r1, r1, r2, lsr #14
     b24:	ed140100 	ldfs	f0, [r4, #-0]
     b28:	0400000a 	streq	r0, [r0], #-10
     b2c:	22202000 	eorcs	r2, r0, #0
     b30:	00000000 	andeq	r0, r0, r0
     b34:	0aed1501 	beq	ffb45f40 <__bss_end__+0xffb3b648>
     b38:	00080000 	andeq	r0, r8, r0
     b3c:	1f222020 	svcne	0x00222020
     b40:	01000001 	tsteq	r0, r1
     b44:	000aed16 	andeq	lr, sl, r6, lsl sp
     b48:	20000c00 	andcs	r0, r0, r0, lsl #24
     b4c:	01272220 	teqeq	r7, r0, lsr #4
     b50:	17010000 	strne	r0, [r1, -r0]
     b54:	00000aed 	andeq	r0, r0, sp, ror #21
     b58:	20200010 	eorcs	r0, r0, r0, lsl r0
     b5c:	00012f22 	andeq	r2, r1, r2, lsr #30
     b60:	ed180100 	ldfs	f0, [r8, #-0]
     b64:	1400000a 	strne	r0, [r0], #-10
     b68:	22202000 	eorcs	r2, r0, #0
     b6c:	00000265 	andeq	r0, r0, r5, ror #4
     b70:	0b7a1a01 	bleq	1e8737c <__bss_end__+0x1e7ca84>
     b74:	001c0000 	andseq	r0, ip, r0
     b78:	ed062020 	stc	0, cr2, [r6, #-128]	; 0xffffff80
     b7c:	2200000a 	andcs	r0, r0, #10
     b80:	00000091 	muleq	r0, r1, r0
     b84:	0aed1b01 	beq	ffb47790 <__bss_end__+0xffb3ce98>
     b88:	00200000 	eoreq	r0, r0, r0
     b8c:	08222020 	stmdaeq	r2!, {r5, sp}
     b90:	01000000 	mrseq	r0, (UNDEF: 0)
     b94:	000b9d1d 	andeq	r9, fp, sp, lsl sp
     b98:	20002800 	andcs	r2, r0, r0, lsl #16
     b9c:	0aed0620 	beq	ffb42424 <__bss_end__+0xffb37b2c>
     ba0:	e3220000 	teq	r2, #0
     ba4:	01000001 	tsteq	r0, r1
     ba8:	000aed1e 	andeq	lr, sl, lr, lsl sp
     bac:	20002c00 	andcs	r2, r0, r0, lsl #24
     bb0:	00b62220 	adcseq	r2, r6, r0, lsr #4
     bb4:	20010000 	andcs	r0, r1, r0
     bb8:	00000bc0 	andeq	r0, r0, r0, asr #23
     bbc:	20200034 	eorcs	r0, r0, r4, lsr r0
     bc0:	000aed06 	andeq	lr, sl, r6, lsl #26
     bc4:	00bd2200 	adcseq	r2, sp, r0, lsl #4
     bc8:	21010000 	mrscs	r0, (UNDEF: 1)
     bcc:	00000aed 	andeq	r0, r0, sp, ror #21
     bd0:	20200038 	eorcs	r0, r0, r8, lsr r0
     bd4:	00787218 	rsbseq	r7, r8, r8, lsl r2
     bd8:	0bdf2301 	bleq	ff7c97e4 <__bss_end__+0xff7beeec>
     bdc:	06140000 	ldreq	r0, [r4], -r0
     be0:	00000025 	andeq	r0, r0, r5, lsr #32
     be4:	00787418 	rsbseq	r7, r8, r8, lsl r4
     be8:	0bef2401 	bleq	ffbc9bf4 <__bss_end__+0xffbbf2fc>
     bec:	06150000 	ldreq	r0, [r5], -r0
     bf0:	00000025 	andeq	r0, r0, r5, lsr #32
     bf4:	00007019 	andeq	r7, r0, r9, lsl r0
     bf8:	fca60100 	stc2	1, cr0, [r6]
     bfc:	05000000 	streq	r0, [r0, #-0]
     c00:	00a4dc03 	adceq	sp, r4, r3, lsl #24
     c04:	02111900 	andseq	r1, r1, #0, 18
     c08:	a7010000 	strge	r0, [r1, -r0]
     c0c:	00000c16 	andeq	r0, r0, r6, lsl ip
     c10:	a4d80305 	ldrbge	r0, [r8], #773	; 0x305
     c14:	25090000 	strcs	r0, [r9, #-0]
     c18:	23000000 	movwcs	r0, #0
     c1c:	00000389 	andeq	r0, r0, r9, lsl #7
     c20:	008f8002 	addeq	r8, pc, r2
     c24:	03050000 	movweq	r0, #20480	; 0x5000
     c28:	0000a8f4 	strdeq	sl, [r0], -r4
     c2c:	00029e23 	andeq	r9, r2, r3, lsr #28
     c30:	16250100 	strtne	r0, [r5], -r0, lsl #2
     c34:	0500000c 	streq	r0, [r0, #-12]
     c38:	00a4e403 	adceq	lr, r4, r3, lsl #8
     c3c:	03122300 	tsteq	r2, #0, 6
     c40:	26010000 	strcs	r0, [r1], -r0
     c44:	00000c16 	andeq	r0, r0, r6, lsl ip
     c48:	a4e00305 	strbtge	r0, [r0], #773	; 0x305
     c4c:	37230000 	strcc	r0, [r3, -r0]!
     c50:	01000001 	tsteq	r0, r1
     c54:	0000fc8d 	andeq	pc, r0, sp, lsl #25
     c58:	d0030500 	andle	r0, r3, r0, lsl #10
     c5c:	230000a4 	movwcs	r0, #164	; 0xa4
     c60:	00000246 	andeq	r0, r0, r6, asr #4
     c64:	00fc8e01 	rscseq	r8, ip, r1, lsl #28
     c68:	03050000 	movweq	r0, #20480	; 0x5000
     c6c:	00009f88 	andeq	r9, r0, r8, lsl #31
     c70:	0000e723 	andeq	lr, r0, r3, lsr #14
     c74:	fca90100 	stc2	1, cr0, [r9]
     c78:	05000000 	streq	r0, [r0, #-0]
     c7c:	00a4d403 	adceq	sp, r4, r3, lsl #8
     c80:	01002400 	tsteq	r0, r0, lsl #8
     c84:	1e030000 	cdpne	0, 0, cr0, cr3, cr0, {0}
     c88:	00041825 	andeq	r1, r4, r5, lsr #16
     c8c:	25290300 	strcs	r0, [r9, #-768]!	; 0x300
     c90:	9e000000 	cdpls	0, 0, cr0, cr0, cr0, {0}
     c94:	2600000c 	strcs	r0, [r0], -ip
     c98:	00000084 	andeq	r0, r0, r4, lsl #1
     c9c:	ea240027 	b	900d40 <__bss_end__+0x8f6448>
     ca0:	03000001 	movweq	r0, #1
     ca4:	02762866 	rsbseq	r2, r6, #6684672	; 0x660000
     ca8:	50030000 	andpl	r0, r3, r0
     cac:	00000cb6 			; <UNDEFINED> instruction: 0x00000cb6
     cb0:	00002c26 	andeq	r2, r0, r6, lsr #24
     cb4:	2d240000 	stccs	0, cr0, [r4, #-0]
     cb8:	04000002 	streq	r0, [r0], #-2
     cbc:	03c12431 	biceq	r2, r1, #822083584	; 0x31000000
     cc0:	32040000 	andcc	r0, r4, #0
     cc4:	00014228 	andeq	r4, r1, r8, lsr #4
     cc8:	d5500500 	ldrble	r0, [r0, #-1280]	; 0x500
     ccc:	2600000c 	strcs	r0, [r0], -ip
     cd0:	0000002c 	andeq	r0, r0, ip, lsr #32
     cd4:	00302400 	eorseq	r2, r0, r0, lsl #8
     cd8:	3a030000 	bcc	c0ce0 <__bss_end__+0xb63e8>
     cdc:	00021f24 	andeq	r1, r2, r4, lsr #30
     ce0:	28330400 	ldmdacs	r3!, {sl}
     ce4:	0000036c 	andeq	r0, r0, ip, ror #6
     ce8:	0cf41d05 	ldcleq	13, cr1, [r4], #20
     cec:	2c260000 	stccs	0, cr0, [r6], #-0
     cf0:	00000000 	andeq	r0, r0, r0
     cf4:	00030328 	andeq	r0, r3, r8, lsr #6
     cf8:	051c0500 	ldreq	r0, [ip, #-1280]	; 0x500
     cfc:	2600000d 	strcs	r0, [r0], -sp
     d00:	0000002c 	andeq	r0, r0, ip, lsr #32
     d04:	03a12800 			; <UNDEFINED> instruction: 0x03a12800
     d08:	48050000 	stmdami	r5, {}	; <UNPREDICTABLE>
     d0c:	00000d16 	andeq	r0, r0, r6, lsl sp
     d10:	00002c26 	andeq	r2, r0, r6, lsr #24
     d14:	7c240000 	stcvc	0, cr0, [r4], #-0
     d18:	03000003 	movweq	r0, #3
     d1c:	0191008e 	orrseq	r0, r1, lr, lsl #1
     d20:	00040000 	andeq	r0, r4, r0
     d24:	00000221 	andeq	r0, r0, r1, lsr #4
     d28:	02ac0104 	adceq	r0, ip, #4, 2
     d2c:	07010000 	streq	r0, [r1, -r0]
     d30:	29000004 	stmdbcs	r0, {r2}
     d34:	d0000004 	andle	r0, r0, r4
     d38:	58000086 	stmdapl	r0, {r1, r2, r7}
     d3c:	1b000000 	blne	d44 <_start-0x72bc>
     d40:	02000003 	andeq	r0, r0, #3
     d44:	000003f8 	strdeq	r0, [r0], -r8
     d48:	00302802 	eorseq	r2, r0, r2, lsl #16
     d4c:	1f030000 	svcne	0x00030000
     d50:	04000004 	streq	r0, [r0], #-4
     d54:	00470003 	subeq	r0, r7, r3
     d58:	72040000 	andvc	r0, r4, #0
     d5c:	47000004 	strmi	r0, [r0, -r4]
     d60:	00000000 	andeq	r0, r0, r0
     d64:	02040500 	andeq	r0, r4, #0, 10
     d68:	00000421 	andeq	r0, r0, r1, lsr #8
     d6c:	00256202 	eoreq	r6, r5, r2, lsl #4
     d70:	04060000 	streq	r0, [r6], #-0
     d74:	746e6905 	strbtvc	r6, [lr], #-2309	; 0x905
     d78:	07040700 	streq	r0, [r4, -r0, lsl #14]
     d7c:	00000044 	andeq	r0, r0, r4, asr #32
     d80:	53060107 	movwpl	r0, #24839	; 0x6107
     d84:	07000002 	streq	r0, [r0, -r2]
     d88:	026c0502 	rsbeq	r0, ip, #8388608	; 0x800000
     d8c:	04070000 	streq	r0, [r7], #-0
     d90:	00006705 	andeq	r6, r0, r5, lsl #14
     d94:	05080700 	streq	r0, [r8, #-1792]	; 0x700
     d98:	00000062 	andeq	r0, r0, r2, rrx
     d9c:	51080107 	tstpl	r8, r7, lsl #2
     da0:	07000002 	streq	r0, [r0, -r2]
     da4:	01600702 	cmneq	r0, r2, lsl #14
     da8:	04070000 	streq	r0, [r7], #-0
     dac:	00003f07 	andeq	r3, r0, r7, lsl #30
     db0:	07080700 	streq	r0, [r8, -r0, lsl #14]
     db4:	0000003a 	andeq	r0, r0, sl, lsr r0
     db8:	f7070407 			; <UNDEFINED> instruction: 0xf7070407
     dbc:	08000001 	stmdaeq	r0, {r0}
     dc0:	0000a704 	andeq	sl, r0, r4, lsl #14
     dc4:	08010700 	stmdaeq	r1, {r8, r9, sl}
     dc8:	0000025a 	andeq	r0, r0, sl, asr r2
     dcc:	00b40408 	adcseq	r0, r4, r8, lsl #8
     dd0:	a7090000 	strge	r0, [r9, -r0]
     dd4:	0a000000 	beq	ddc <_start-0x7224>
     dd8:	00000418 	andeq	r0, r0, r8, lsl r4
     ddc:	00540601 	subseq	r0, r4, r1, lsl #12
     de0:	86d00000 	ldrbhi	r0, [r0], r0
     de4:	00580000 	subseq	r0, r8, r0
     de8:	9c010000 	stcls	0, cr0, [r1], {-0}
     dec:	00000143 	andeq	r0, r0, r3, asr #2
     df0:	746d660b 	strbtvc	r6, [sp], #-1547	; 0x60b
     df4:	ae060100 	adfges	f0, f6, f0
     df8:	02000000 	andeq	r0, r0, #0
     dfc:	0d0c7091 	stceq	0, cr7, [ip, #-580]	; 0xfffffdbc
     e00:	00667562 	rsbeq	r7, r6, r2, ror #10
     e04:	01430801 	cmpeq	r3, r1, lsl #16
     e08:	03050000 	movweq	r0, #20480	; 0x5000
     e0c:	0000a4e8 	andeq	sl, r0, r8, ror #9
     e10:	00046d0e 	andeq	r6, r4, lr, lsl #26
     e14:	49090100 	stmdbmi	r9, {r8}
     e18:	02000000 	andeq	r0, r0, #0
     e1c:	730f5c91 	movwvc	r5, #64657	; 0xfc91
     e20:	0c01007a 	stceq	0, cr0, [r1], {122}	; 0x7a
     e24:	00000054 	andeq	r0, r0, r4, asr r0
     e28:	0000064a 	andeq	r0, r0, sl, asr #12
     e2c:	0086f810 	addeq	pc, r6, r0, lsl r8	; <UNPREDICTABLE>
     e30:	00017400 	andeq	r7, r1, r0, lsl #8
     e34:	00013600 	andeq	r3, r1, r0, lsl #12
     e38:	53011100 	movwpl	r1, #4352	; 0x1100
     e3c:	114c9102 	cmpne	ip, r2, lsl #2
     e40:	91035201 	tstls	r3, r1, lsl #4
     e44:	01110648 	tsteq	r1, r8, asr #12
     e48:	000a0351 	andeq	r0, sl, r1, asr r3
     e4c:	50011104 	andpl	r1, r1, r4, lsl #2
     e50:	00007402 	andeq	r7, r0, r2, lsl #8
     e54:	00870c12 	addeq	r0, r7, r2, lsl ip
     e58:	50011100 	andpl	r1, r1, r0, lsl #2
     e5c:	00007402 	andeq	r7, r0, r2, lsl #8
     e60:	00a71300 	adceq	r1, r7, r0, lsl #6
     e64:	01540000 	cmpeq	r4, r0
     e68:	9a140000 	bls	500e70 <__bss_end__+0x4f6578>
     e6c:	ff000000 			; <UNDEFINED> instruction: 0xff000000
     e70:	54150003 	ldrpl	r0, [r5], #-3
     e74:	63000000 	movwvs	r0, #0
     e78:	16000001 	strne	r0, [r0], -r1
     e7c:	000000ae 	andeq	r0, r0, lr, lsr #1
     e80:	04c51700 	strbeq	r1, [r5], #1792	; 0x700
     e84:	22040000 	andcs	r0, r4, #0
     e88:	0000016e 	andeq	r0, r0, lr, ror #2
     e8c:	01540408 	cmpeq	r4, r8, lsl #8
     e90:	15180000 	ldrne	r0, [r8, #-0]
     e94:	05000004 	streq	r0, [r0, #-4]
     e98:	00005402 	andeq	r5, r0, r2, lsl #8
     e9c:	00a11600 	adceq	r1, r1, r0, lsl #12
     ea0:	54160000 	ldrpl	r0, [r6], #-0
     ea4:	16000000 	strne	r0, [r0], -r0
     ea8:	000000ae 	andeq	r0, r0, lr, lsr #1
     eac:	00004916 	andeq	r4, r0, r6, lsl r9
     eb0:	13000000 	movwne	r0, #0
     eb4:	04000001 	streq	r0, [r0], #-1
     eb8:	00035200 	andeq	r5, r3, r0, lsl #4
     ebc:	ac010400 	cfstrsge	mvf0, [r1], {-0}
     ec0:	01000002 	tsteq	r0, r2
     ec4:	00000494 	muleq	r0, r4, r4
     ec8:	00000429 	andeq	r0, r0, r9, lsr #8
     ecc:	00008728 	andeq	r8, r0, r8, lsr #14
     ed0:	0000003c 	andeq	r0, r0, ip, lsr r0
     ed4:	00000421 	andeq	r0, r0, r1, lsr #8
     ed8:	69050402 	stmdbvs	r5, {r1, sl}
     edc:	0300746e 	movweq	r7, #1134	; 0x46e
     ee0:	00440704 	subeq	r0, r4, r4, lsl #14
     ee4:	01030000 	mrseq	r0, (UNDEF: 3)
     ee8:	00025306 	andeq	r5, r2, r6, lsl #6
     eec:	05020300 	streq	r0, [r2, #-768]	; 0x300
     ef0:	0000026c 	andeq	r0, r0, ip, ror #4
     ef4:	67050403 	strvs	r0, [r5, -r3, lsl #8]
     ef8:	03000000 	movweq	r0, #0
     efc:	00620508 	rsbeq	r0, r2, r8, lsl #10
     f00:	01030000 	mrseq	r0, (UNDEF: 3)
     f04:	00025108 	andeq	r5, r2, r8, lsl #2
     f08:	07020300 	streq	r0, [r2, -r0, lsl #6]
     f0c:	00000160 	andeq	r0, r0, r0, ror #2
     f10:	3f070403 	svccc	0x00070403
     f14:	03000000 	movweq	r0, #0
     f18:	003a0708 	eorseq	r0, sl, r8, lsl #14
     f1c:	04030000 	streq	r0, [r3], #-0
     f20:	0001f707 	andeq	pc, r1, r7, lsl #14
     f24:	08010300 	stmdaeq	r1, {r8, r9}
     f28:	0000025a 	andeq	r0, r0, sl, asr r2
     f2c:	00047704 	andeq	r7, r4, r4, lsl #14
     f30:	25030100 	strcs	r0, [r3, #-256]	; 0x100
     f34:	28000000 	stmdacs	r0, {}	; <UNPREDICTABLE>
     f38:	14000087 	strne	r0, [r0], #-135	; 0x87
     f3c:	01000000 	mrseq	r0, (UNDEF: 0)
     f40:	0000b09c 	muleq	r0, ip, r0
     f44:	00630500 	rsbeq	r0, r3, r0, lsl #10
     f48:	00250301 	eoreq	r0, r5, r1, lsl #6
     f4c:	06730000 	ldrbteq	r0, [r3], -r0
     f50:	34060000 	strcc	r0, [r6], #-0
     f54:	09000087 	stmdbeq	r0, {r0, r1, r2, r7}
     f58:	07000001 	streq	r0, [r0, -r1]
     f5c:	74025001 	strvc	r5, [r2], #-1
     f60:	08000000 	stmdaeq	r0, {}	; <UNPREDICTABLE>
     f64:	00000100 	andeq	r0, r0, r0, lsl #2
     f68:	873c0801 	ldrhi	r0, [ip, -r1, lsl #16]!
     f6c:	00180000 	andseq	r0, r8, r0
     f70:	9c010000 	stcls	0, cr0, [r1], {-0}
     f74:	0004a309 	andeq	sl, r4, r9, lsl #6
     f78:	540b0100 	strpl	r0, [fp], #-256	; 0x100
     f7c:	10000087 	andne	r0, r0, r7, lsl #1
     f80:	01000000 	mrseq	r0, (UNDEF: 0)
     f84:	0000e39c 	muleq	r0, ip, r3
     f88:	70660a00 	rsbvc	r0, r6, r0, lsl #20
     f8c:	f20b0100 	vrhadd.s8	d0, d11, d0
     f90:	01000000 	mrseq	r0, (UNDEF: 0)
     f94:	250b0050 	strcs	r0, [fp, #-80]	; 0x50
     f98:	f2000000 	vhadd.s8	d0, d0, d0
     f9c:	0c000000 	stceq	0, cr0, [r0], {-0}
     fa0:	00000025 	andeq	r0, r0, r5, lsr #32
     fa4:	e3040d00 	movw	r0, #19712	; 0x4d00
     fa8:	0e000000 	cdpeq	0, 0, cr0, cr0, cr0, {0}
     fac:	00000488 	andeq	r0, r0, r8, lsl #9
     fb0:	00f20601 	rscseq	r0, r2, r1, lsl #12
     fb4:	03050000 	movweq	r0, #20480	; 0x5000
     fb8:	00009f8c 	andeq	r9, r0, ip, lsl #31
     fbc:	0006100f 	andeq	r1, r6, pc
     fc0:	0c3c0200 	lfmeq	f0, 4, [ip], #-0
     fc4:	0000002c 	andeq	r0, r0, ip, lsr #32
     fc8:	00ee0000 	rsceq	r0, lr, r0
     fcc:	00040000 	andeq	r0, r4, r0
     fd0:	0000043a 	andeq	r0, r0, sl, lsr r4
     fd4:	02ac0104 	adceq	r0, ip, #4, 2
     fd8:	b0010000 	andlt	r0, r1, r0
     fdc:	29000004 	stmdbcs	r0, {r2}
     fe0:	64000004 	strvs	r0, [r0], #-4
     fe4:	34000087 	strcc	r0, [r0], #-135	; 0x87
     fe8:	af000000 	svcge	0x00000000
     fec:	02000004 	andeq	r0, r0, #4
     ff0:	6e690504 	cdpvs	5, 6, cr0, cr9, cr4, {0}
     ff4:	04030074 	streq	r0, [r3], #-116	; 0x74
     ff8:	00004407 	andeq	r4, r0, r7, lsl #8
     ffc:	06010300 	streq	r0, [r1], -r0, lsl #6
    1000:	00000253 	andeq	r0, r0, r3, asr r2
    1004:	6c050203 	sfmvs	f0, 4, [r5], {3}
    1008:	03000002 	movweq	r0, #2
    100c:	00670504 	rsbeq	r0, r7, r4, lsl #10
    1010:	08030000 	stmdaeq	r3, {}	; <UNPREDICTABLE>
    1014:	00006205 	andeq	r6, r0, r5, lsl #4
    1018:	08010300 	stmdaeq	r1, {r8, r9}
    101c:	00000251 	andeq	r0, r0, r1, asr r2
    1020:	60070203 	andvs	r0, r7, r3, lsl #4
    1024:	03000001 	movweq	r0, #1
    1028:	003f0704 	eorseq	r0, pc, r4, lsl #14
    102c:	08030000 	stmdaeq	r3, {}	; <UNPREDICTABLE>
    1030:	00003a07 	andeq	r3, r0, r7, lsl #20
    1034:	07040300 	streq	r0, [r4, -r0, lsl #6]
    1038:	000001f7 	strdeq	r0, [r0], -r7
    103c:	5a080103 	bpl	201450 <__bss_end__+0x1f6b58>
    1040:	04000002 	streq	r0, [r0], #-2
    1044:	00007f04 	andeq	r7, r0, r4, lsl #30
    1048:	00720500 	rsbseq	r0, r2, r0, lsl #10
    104c:	bc060000 	stclt	0, cr0, [r6], {-0}
    1050:	01000004 	tsteq	r0, r4
    1054:	00002504 	andeq	r2, r0, r4, lsl #10
    1058:	00876400 	addeq	r6, r7, r0, lsl #8
    105c:	00003400 	andeq	r3, r0, r0, lsl #8
    1060:	ab9c0100 	blge	fe701468 <__bss_end__+0xfe6f6b70>
    1064:	07000000 	streq	r0, [r0, -r0]
    1068:	04010070 	streq	r0, [r1], #-112	; 0x70
    106c:	00000079 	andeq	r0, r0, r9, ror r0
    1070:	00000691 	muleq	r0, r1, r6
    1074:	00250800 	eoreq	r0, r5, r0, lsl #16
    1078:	00ba0000 	adcseq	r0, sl, r0
    107c:	25090000 	strcs	r0, [r9, #-0]
    1080:	00000000 	andeq	r0, r0, r0
    1084:	0004880a 	andeq	r8, r4, sl, lsl #16
    1088:	c51d0200 	ldrgt	r0, [sp, #-512]	; 0x200
    108c:	04000000 	streq	r0, [r0], #-0
    1090:	0000ab04 	andeq	sl, r0, r4, lsl #22
    1094:	00250800 	eoreq	r0, r5, r0, lsl #16
    1098:	00da0000 	sbcseq	r0, sl, r0
    109c:	79090000 	stmdbvc	r9, {}	; <UNPREDICTABLE>
    10a0:	00000000 	andeq	r0, r0, r0
    10a4:	0004c50b 	andeq	ip, r4, fp, lsl #10
    10a8:	eb0c0100 	bl	3014b0 <__bss_end__+0x2f6bb8>
    10ac:	05000000 	streq	r0, [r0, #-0]
    10b0:	009f9003 	addseq	r9, pc, r3
    10b4:	cb040400 	blgt	1020bc <__bss_end__+0xf77c4>
    10b8:	00000000 	andeq	r0, r0, r0
    10bc:	000006a1 	andeq	r0, r0, r1, lsr #13
    10c0:	04d30004 	ldrbeq	r0, [r3], #4
    10c4:	01040000 	mrseq	r0, (UNDEF: 4)
    10c8:	000002ac 	andeq	r0, r0, ip, lsr #5
    10cc:	0004f601 	andeq	pc, r4, r1, lsl #12
    10d0:	00042900 	andeq	r2, r4, r0, lsl #18
    10d4:	00879800 	addeq	r9, r7, r0, lsl #16
    10d8:	00052400 	andeq	r2, r5, r0, lsl #8
    10dc:	00054900 	andeq	r4, r5, r0, lsl #18
    10e0:	05040200 	streq	r0, [r4, #-512]	; 0x200
    10e4:	00746e69 	rsbseq	r6, r4, r9, ror #28
    10e8:	44070403 	strmi	r0, [r7], #-1027	; 0x403
    10ec:	03000000 	movweq	r0, #0
    10f0:	02530601 	subseq	r0, r3, #1048576	; 0x100000
    10f4:	02030000 	andeq	r0, r3, #0
    10f8:	00026c05 	andeq	r6, r2, r5, lsl #24
    10fc:	05040300 	streq	r0, [r4, #-768]	; 0x300
    1100:	00000067 	andeq	r0, r0, r7, rrx
    1104:	62050803 	andvs	r0, r5, #196608	; 0x30000
    1108:	03000000 	movweq	r0, #0
    110c:	02510801 	subseq	r0, r1, #65536	; 0x10000
    1110:	02030000 	andeq	r0, r3, #0
    1114:	00016007 	andeq	r6, r1, r7
    1118:	07040300 	streq	r0, [r4, -r0, lsl #6]
    111c:	0000003f 	andeq	r0, r0, pc, lsr r0
    1120:	3a070803 	bcc	1c3134 <__bss_end__+0x1b883c>
    1124:	03000000 	movweq	r0, #0
    1128:	01f70704 	mvnseq	r0, r4, lsl #14
    112c:	04040000 	streq	r0, [r4], #-0
    1130:	007a0405 	rsbseq	r0, sl, r5, lsl #8
    1134:	01030000 	mrseq	r0, (UNDEF: 3)
    1138:	00025a08 	andeq	r5, r2, r8, lsl #20
    113c:	87040500 	strhi	r0, [r4, -r0, lsl #10]
    1140:	06000000 	streq	r0, [r0], -r0
    1144:	0000007a 	andeq	r0, r0, sl, ror r0
    1148:	0003f807 	andeq	pc, r3, r7, lsl #16
    114c:	97280200 	strls	r0, [r8, -r0, lsl #4]!
    1150:	08000000 	stmdaeq	r0, {}	; <UNPREDICTABLE>
    1154:	0000041f 	andeq	r0, r0, pc, lsl r4
    1158:	ae000404 	cdpge	4, 0, cr0, cr0, cr4, {0}
    115c:	09000000 	stmdbeq	r0, {}	; <UNPREDICTABLE>
    1160:	00000472 	andeq	r0, r0, r2, ror r4
    1164:	00000072 	andeq	r0, r0, r2, ror r0
    1168:	21070000 	mrscs	r0, (UNDEF: 7)
    116c:	02000004 	andeq	r0, r0, #4
    1170:	00008c62 	andeq	r8, r0, r2, ror #24
    1174:	04d80a00 	ldrbeq	r0, [r8], #2560	; 0xa00
    1178:	27010000 	strcs	r0, [r1, -r0]
    117c:	00000025 	andeq	r0, r0, r5, lsr #32
    1180:	00008798 	muleq	r0, r8, r7
    1184:	00000014 	andeq	r0, r0, r4, lsl r0
    1188:	00e09c01 	rsceq	r9, r0, r1, lsl #24
    118c:	630b0000 	movwvs	r0, #45056	; 0xb000
    1190:	25270100 	strcs	r0, [r7, #-256]!	; 0x100
    1194:	af000000 	svcge	0x00000000
    1198:	00000006 	andeq	r0, r0, r6
    119c:	6461700c 	strbtvs	r7, [r1], #-12
    11a0:	742e0100 	strtvc	r0, [lr], #-256	; 0x100
    11a4:	ac000000 	stcge	0, cr0, [r0], {-0}
    11a8:	2c000087 	stccs	0, cr0, [r0], {135}	; 0x87
    11ac:	01000000 	mrseq	r0, (UNDEF: 0)
    11b0:	0001309c 	muleq	r1, ip, r0
    11b4:	00700b00 	rsbseq	r0, r0, r0, lsl #22
    11b8:	00742e01 	rsbseq	r2, r4, r1, lsl #28
    11bc:	06dd0000 	ldrbeq	r0, [sp], r0
    11c0:	e80d0000 	stmda	sp, {}	; <UNPREDICTABLE>
    11c4:	01000004 	tsteq	r0, r4
    11c8:	0000742e 	andeq	r7, r0, lr, lsr #8
    11cc:	00070800 	andeq	r0, r7, r0, lsl #16
    11d0:	05160e00 	ldreq	r0, [r6, #-3584]	; 0xe00
    11d4:	2e010000 	cdpcs	0, 0, cr0, cr1, cr0, {0}
    11d8:	00000025 	andeq	r0, r0, r5, lsr #32
    11dc:	6c0f5201 	sfmvs	f5, 4, [pc], {1}
    11e0:	01006e65 	tsteq	r0, r5, ror #28
    11e4:	0000252f 	andeq	r2, r0, pc, lsr #10
    11e8:	00510100 	subseq	r0, r1, r0, lsl #2
    11ec:	0004d00a 	andeq	sp, r4, sl
    11f0:	74370100 	ldrtvc	r0, [r7], #-256	; 0x100
    11f4:	d8000000 	stmdale	r0, {}	; <UNPREDICTABLE>
    11f8:	40000087 	andmi	r0, r0, r7, lsl #1
    11fc:	01000000 	mrseq	r0, (UNDEF: 0)
    1200:	00019c9c 	muleq	r1, ip, ip
    1204:	73640b00 	cmnvc	r4, #0, 22
    1208:	37010074 	smlsdxcc	r1, r4, r0, r0
    120c:	00000074 	andeq	r0, r0, r4, ror r0
    1210:	00000729 	andeq	r0, r0, r9, lsr #14
    1214:	01006e0b 	tsteq	r0, fp, lsl #28
    1218:	00002537 	andeq	r2, r0, r7, lsr r5
    121c:	00076100 	andeq	r6, r7, r0, lsl #2
    1220:	00700b00 	rsbseq	r0, r0, r0, lsl #22
    1224:	00743701 	rsbseq	r3, r4, r1, lsl #14
    1228:	07820000 	streq	r0, [r2, r0]
    122c:	fc0d0000 	stc2	0, cr0, [sp], {-0}
    1230:	01000005 	tsteq	r0, r5
    1234:	00007437 	andeq	r7, r0, r7, lsr r4
    1238:	0007b800 	andeq	fp, r7, r0, lsl #16
    123c:	656c1000 	strbvs	r1, [ip, #-0]!
    1240:	3901006e 	stmdbcc	r1, {r1, r2, r3, r5, r6}
    1244:	00000025 	andeq	r0, r0, r5, lsr #32
    1248:	000007d6 	ldrdeq	r0, [r0], -r6
    124c:	0100730f 	tsteq	r0, pc, lsl #6
    1250:	0000743d 	andeq	r7, r0, sp, lsr r4
    1254:	00500100 	subseq	r0, r0, r0, lsl #2
    1258:	0005240a 	andeq	r2, r5, sl, lsl #8
    125c:	74470100 	strbvc	r0, [r7], #-256	; 0x100
    1260:	18000000 	stmdane	r0, {}	; <UNPREDICTABLE>
    1264:	a8000088 	stmdage	r0, {r3, r7}
    1268:	01000001 	tsteq	r0, r1
    126c:	0002df9c 	muleq	r2, ip, pc	; <UNPREDICTABLE>
    1270:	04e80d00 	strbteq	r0, [r8], #3328	; 0xd00
    1274:	47010000 	strmi	r0, [r1, -r0]
    1278:	0000002c 	andeq	r0, r0, ip, lsr #32
    127c:	000007fd 	strdeq	r0, [r0], -sp
    1280:	7473640b 	ldrbtvc	r6, [r3], #-1035	; 0x40b
    1284:	74470100 	strbvc	r0, [r7], #-256	; 0x100
    1288:	2b000000 	blcs	1290 <_start-0x6d70>
    128c:	0b000008 	bleq	12b4 <_start-0x6d4c>
    1290:	4701006e 	strmi	r0, [r1, -lr, rrx]
    1294:	00000025 	andeq	r0, r0, r5, lsr #32
    1298:	00000899 	muleq	r0, r9, r8
    129c:	6c61760b 	stclvs	6, cr7, [r1], #-44	; 0xffffffd4
    12a0:	25470100 	strbcs	r0, [r7, #-256]	; 0x100
    12a4:	c5000000 	strgt	r0, [r0, #-0]
    12a8:	0d000008 	stceq	0, cr0, [r0, #-32]	; 0xffffffe0
    12ac:	00000516 	andeq	r0, r0, r6, lsl r5
    12b0:	00254701 	eoreq	r4, r5, r1, lsl #14
    12b4:	09440000 	stmdbeq	r4, {}^	; <UNPREDICTABLE>
    12b8:	ed0e0000 	stc	0, cr0, [lr, #-0]
    12bc:	01000004 	tsteq	r0, r4
    12c0:	00002547 	andeq	r2, r0, r7, asr #10
    12c4:	04910200 	ldreq	r0, [r1], #512	; 0x200
    12c8:	6675620f 	ldrbtvs	r6, [r5], -pc, lsl #4
    12cc:	df4c0100 	svcle	0x004c0100
    12d0:	03000002 	movweq	r0, #2
    12d4:	107fa891 			; <UNDEFINED> instruction: 0x107fa891
    12d8:	4c010070 	stcmi	0, cr0, [r1], {112}	; 0x70
    12dc:	00000074 	andeq	r0, r0, r4, ror r0
    12e0:	0000096e 	andeq	r0, r0, lr, ror #18
    12e4:	01007510 	tsteq	r0, r0, lsl r5
    12e8:	00002c4d 	andeq	r2, r0, sp, asr #24
    12ec:	000a2a00 	andeq	r2, sl, r0, lsl #20
    12f0:	01531100 	cmpeq	r3, r0, lsl #2
    12f4:	02ff0000 	rscseq	r0, pc, #0
    12f8:	03050000 	movweq	r0, #20480	; 0x5000
    12fc:	0000a0cc 	andeq	sl, r0, ip, asr #1
    1300:	00888412 	addeq	r8, r8, r2, lsl r4
    1304:	00007400 	andeq	r7, r0, r0, lsl #8
    1308:	00026100 	andeq	r6, r2, r0, lsl #2
    130c:	04ca1300 	strbeq	r1, [sl], #768	; 0x300
    1310:	52010000 	andpl	r0, r1, #0
    1314:	0000002c 	andeq	r0, r0, ip, lsr #32
    1318:	00000b2f 	andeq	r0, r0, pc, lsr #22
    131c:	89581400 	ldmdbhi	r8, {sl, ip}^
    1320:	06800000 	streq	r0, [r0], r0
    1324:	74150000 	ldrvc	r0, [r5], #-0
    1328:	87000089 	strhi	r0, [r0, -r9, lsl #1]
    132c:	a3000006 	movwge	r0, #6
    1330:	16000002 	strne	r0, [r0], -r2
    1334:	08025301 	stmdaeq	r2, {r0, r8, r9, ip, lr}
    1338:	52011675 	andpl	r1, r1, #122683392	; 0x7500000
    133c:	a0cc0305 	sbcge	r0, ip, r5, lsl #6
    1340:	01160000 	tsteq	r6, r0
    1344:	04030551 	streq	r0, [r3], #-1361	; 0x551
    1348:	160000a1 	strne	r0, [r0], -r1, lsr #1
    134c:	03055001 	movweq	r5, #20481	; 0x5001
    1350:	0000a0f0 	strdeq	sl, [r0], -r0
    1354:	007d0216 	rsbseq	r0, sp, r6, lsl r2
    1358:	a1180305 	tstge	r8, r5, lsl #6
    135c:	14000000 	strne	r0, [r0], #-0
    1360:	00008978 	andeq	r8, r0, r8, ror r9
    1364:	0000069d 	muleq	r0, sp, r6
    1368:	00898415 	addeq	r8, r9, r5, lsl r4
    136c:	0000e000 	andeq	lr, r0, r0
    1370:	0002c100 	andeq	ip, r2, r0, lsl #2
    1374:	51011600 	tstpl	r1, r0, lsl #12
    1378:	7fa09103 	svcvc	0x00a09103
    137c:	89981700 	ldmibhi	r8, {r8, r9, sl, ip}
    1380:	01300000 	teqeq	r0, r0
    1384:	01160000 	tsteq	r6, r0
    1388:	a0910353 	addsge	r0, r1, r3, asr r3
    138c:	5101167f 	tstpl	r1, pc, ror r6
    1390:	16007402 	strne	r7, [r0], -r2, lsl #8
    1394:	75025001 	strvc	r5, [r2, #-1]
    1398:	18000000 	stmdane	r0, {}	; <UNPREDICTABLE>
    139c:	0000007a 	andeq	r0, r0, sl, ror r0
    13a0:	000002ef 	andeq	r0, r0, pc, ror #5
    13a4:	00006b19 	andeq	r6, r0, r9, lsl fp
    13a8:	18003f00 	stmdane	r0, {r8, r9, sl, fp, ip, sp}
    13ac:	0000007a 	andeq	r0, r0, sl, ror r0
    13b0:	000002ff 	strdeq	r0, [r0], -pc	; <UNPREDICTABLE>
    13b4:	00006b19 	andeq	r6, r0, r9, lsl fp
    13b8:	06000400 	streq	r0, [r0], -r0, lsl #8
    13bc:	000002ef 	andeq	r0, r0, pc, ror #5
    13c0:	0005071a 	andeq	r0, r5, sl, lsl r7
    13c4:	c01f0100 	andsgt	r0, pc, r0, lsl #2
    13c8:	68000089 	stmdavs	r0, {r0, r3, r7}
    13cc:	01000000 	mrseq	r0, (UNDEF: 0)
    13d0:	0003929c 	muleq	r3, ip, r2
    13d4:	051c0d00 	ldreq	r0, [ip, #-3328]	; 0xd00
    13d8:	1f010000 	svcne	0x00010000
    13dc:	000003a1 	andeq	r0, r0, r1, lsr #7
    13e0:	00000b5b 	andeq	r0, r0, fp, asr fp
    13e4:	0004e00d 	andeq	lr, r4, sp
    13e8:	b61f0100 	ldrlt	r0, [pc], -r0, lsl #2
    13ec:	87000003 	strhi	r0, [r0, -r3]
    13f0:	1100000b 	tstne	r0, fp
    13f4:	00000153 	andeq	r0, r0, r3, asr r1
    13f8:	000003cc 	andeq	r0, r0, ip, asr #7
    13fc:	a0d40305 	sbcsge	r0, r4, r5, lsl #6
    1400:	d4140000 	ldrle	r0, [r4], #-0
    1404:	80000089 	andhi	r0, r0, r9, lsl #1
    1408:	15000006 	strne	r0, [r0, #-6]
    140c:	000089f0 	strdeq	r8, [r0], -r0
    1410:	00000687 	andeq	r0, r0, r7, lsl #13
    1414:	00000388 	andeq	r0, r0, r8, lsl #7
    1418:	02530116 	subseq	r0, r3, #-2147483643	; 0x80000005
    141c:	01162008 	tsteq	r6, r8
    1420:	d4030552 	strle	r0, [r3], #-1362	; 0x552
    1424:	160000a0 	strne	r0, [r0], -r0, lsr #1
    1428:	03055101 	movweq	r5, #20737	; 0x5101
    142c:	0000a104 	andeq	sl, r0, r4, lsl #2
    1430:	05500116 	ldrbeq	r0, [r0, #-278]	; 0x116
    1434:	00a0f003 	adceq	pc, r0, r3
    1438:	7d021600 	stcvc	6, cr1, [r2, #-0]
    143c:	40030500 	andmi	r0, r3, r0, lsl #10
    1440:	000000a1 	andeq	r0, r0, r1, lsr #1
    1444:	0089f414 	addeq	pc, r9, r4, lsl r4	; <UNPREDICTABLE>
    1448:	00069d00 	andeq	r9, r6, r0, lsl #26
    144c:	251b0000 	ldrcs	r0, [fp, #-0]
    1450:	a1000000 	mrsge	r0, (UNDEF: 0)
    1454:	1c000003 	stcne	0, cr0, [r0], {3}
    1458:	00000025 	andeq	r0, r0, r5, lsr #32
    145c:	92040500 	andls	r0, r4, #0, 10
    1460:	1b000003 	blne	1474 <_start-0x6b8c>
    1464:	00000025 	andeq	r0, r0, r5, lsr #32
    1468:	000003b6 			; <UNDEFINED> instruction: 0x000003b6
    146c:	0000811c 	andeq	r8, r0, ip, lsl r1
    1470:	04050000 	streq	r0, [r5], #-0
    1474:	000003a7 	andeq	r0, r0, r7, lsr #7
    1478:	00007a18 	andeq	r7, r0, r8, lsl sl
    147c:	0003cc00 	andeq	ip, r3, r0, lsl #24
    1480:	006b1900 	rsbeq	r1, fp, r0, lsl #18
    1484:	000e0000 	andeq	r0, lr, r0
    1488:	0003bc06 	andeq	fp, r3, r6, lsl #24
    148c:	04151d00 	ldreq	r1, [r5], #-3328	; 0xd00
    1490:	7d010000 	stcvc	0, cr0, [r1, #-0]
    1494:	00000025 	andeq	r0, r0, r5, lsr #32
    1498:	00008a28 	andeq	r8, r0, r8, lsr #20
    149c:	00000294 	muleq	r0, r4, r2
    14a0:	06459c01 	strbeq	r9, [r5], -r1, lsl #24
    14a4:	620b0000 	andvs	r0, fp, #0
    14a8:	01006675 	tsteq	r0, r5, ror r6
    14ac:	0000747d 	andeq	r7, r0, sp, ror r4
    14b0:	000bb300 	andeq	fp, fp, r0, lsl #6
    14b4:	006e0b00 	rsbeq	r0, lr, r0, lsl #22
    14b8:	00257d01 	eoreq	r7, r5, r1, lsl #26
    14bc:	0bdf0000 	bleq	ff7c14c4 <__bss_end__+0xff7b6bcc>
    14c0:	660b0000 	strvs	r0, [fp], -r0
    14c4:	0100746d 	tsteq	r0, sp, ror #8
    14c8:	0000817d 	andeq	r8, r0, sp, ror r1
    14cc:	000c0d00 	andeq	r0, ip, r0, lsl #26
    14d0:	046d0d00 	strbteq	r0, [sp], #-3328	; 0xd00
    14d4:	7d010000 	stcvc	0, cr0, [r1, #-0]
    14d8:	000000ae 	andeq	r0, r0, lr, lsr #1
    14dc:	00000c41 	andeq	r0, r0, r1, asr #24
    14e0:	01007010 	tsteq	r0, r0, lsl r0
    14e4:	0000747e 	andeq	r7, r0, lr, ror r4
    14e8:	000c5400 	andeq	r5, ip, r0, lsl #8
    14ec:	00651000 	rsbeq	r1, r5, r0
    14f0:	00747e01 	rsbseq	r7, r4, r1, lsl #28
    14f4:	0cd20000 	ldcleq	0, cr0, [r2], {0}
    14f8:	53110000 	tstpl	r1, #0
    14fc:	55000001 	strpl	r0, [r0, #-1]
    1500:	05000006 	streq	r0, [r0, #-6]
    1504:	00a0e403 	adceq	lr, r0, r3, lsl #8
    1508:	00001e00 	andeq	r1, r0, r0, lsl #28
    150c:	73100000 	tstvc	r0, #0
    1510:	748b0100 	strvc	r0, [fp], #256	; 0x100
    1514:	f9000000 			; <UNDEFINED> instruction: 0xf9000000
    1518:	0f00000c 	svceq	0x0000000c
    151c:	006d756e 	rsbeq	r7, sp, lr, ror #10
    1520:	065a8b01 	ldrbeq	r8, [sl], -r1, lsl #22
    1524:	91030000 	mrsls	r0, (UNDEF: 3)
    1528:	16137ed8 			; <UNDEFINED> instruction: 0x16137ed8
    152c:	01000005 	tsteq	r0, r5
    1530:	00002c8c 	andeq	r2, r0, ip, lsl #25
    1534:	000d4e00 	andeq	r4, sp, r0, lsl #28
    1538:	8aac1500 	bhi	feb06940 <__bss_end__+0xfeafc048>
    153c:	00b90000 	adcseq	r0, r9, r0
    1540:	04910000 	ldreq	r0, [r1], #0
    1544:	01160000 	tsteq	r6, r0
    1548:	00750250 	rsbseq	r0, r5, r0, asr r2
    154c:	8ac01400 	bhi	ff006554 <__bss_end__+0xfeffbc5c>
    1550:	06800000 	streq	r0, [r0], r0
    1554:	dc150000 	ldcle	0, cr0, [r5], {-0}
    1558:	8700008a 	strhi	r0, [r0, -sl, lsl #1]
    155c:	d3000006 	movwle	r0, #6
    1560:	16000004 	strne	r0, [r0], -r4
    1564:	08025301 	stmdaeq	r2, {r0, r8, r9, ip, lr}
    1568:	52011692 	andpl	r1, r1, #153092096	; 0x9200000
    156c:	a0e40305 	rscge	r0, r4, r5, lsl #6
    1570:	01160000 	tsteq	r6, r0
    1574:	04030551 	streq	r0, [r3], #-1361	; 0x551
    1578:	160000a1 	strne	r0, [r0], -r1, lsr #1
    157c:	03055001 	movweq	r5, #20481	; 0x5001
    1580:	0000a0f0 	strdeq	sl, [r0], -r0
    1584:	007d0216 	rsbseq	r0, sp, r6, lsl r2
    1588:	a1480305 	cmpge	r8, r5, lsl #6
    158c:	14000000 	strne	r0, [r0], #-0
    1590:	00008ae0 	andeq	r8, r0, r0, ror #21
    1594:	0000069d 	muleq	r0, sp, r6
    1598:	008b5014 	addeq	r5, fp, r4, lsl r0
    159c:	00068000 	andeq	r8, r6, r0
    15a0:	8b641500 	blhi	19069a8 <__bss_end__+0x18fc0b0>
    15a4:	06870000 	streq	r0, [r7], r0
    15a8:	05140000 	ldreq	r0, [r4, #-0]
    15ac:	01160000 	tsteq	r6, r0
    15b0:	98080253 	stmdals	r8, {r0, r1, r4, r6, r9}
    15b4:	05520116 	ldrbeq	r0, [r2, #-278]	; 0x116
    15b8:	00a0e403 	adceq	lr, r0, r3, lsl #8
    15bc:	51011600 	tstpl	r1, r0, lsl #12
    15c0:	a1040305 	tstge	r4, r5, lsl #6
    15c4:	01160000 	tsteq	r6, r0
    15c8:	54030550 	strpl	r0, [r3], #-1360	; 0x550
    15cc:	000000a1 	andeq	r0, r0, r1, lsr #1
    15d0:	008b6814 	addeq	r6, fp, r4, lsl r8
    15d4:	00069d00 	andeq	r9, r6, r0, lsl #26
    15d8:	8b8c1500 	blhi	fe3069e0 <__bss_end__+0xfe2fc0e8>
    15dc:	019c0000 	orrseq	r0, ip, r0
    15e0:	054a0000 	strbeq	r0, [sl, #-0]
    15e4:	01160000 	tsteq	r6, r0
    15e8:	80080252 	andhi	r0, r8, r2, asr r2
    15ec:	03510116 	cmpeq	r1, #-2147483643	; 0x80000005
    15f0:	167ed091 			; <UNDEFINED> instruction: 0x167ed091
    15f4:	3a015001 	bcc	55600 <__bss_end__+0x4ad08>
    15f8:	047d0216 	ldrbteq	r0, [sp], #-534	; 0x216
    15fc:	02163101 	andseq	r3, r6, #1073741824	; 0x40000000
    1600:	7702007d 	smlsdxvc	r2, sp, r0, r0
    1604:	b0150000 	andslt	r0, r5, r0
    1608:	9c00008b 	stcls	0, cr0, [r0], {139}	; 0x8b
    160c:	78000001 	stmdavc	r0, {r0}
    1610:	16000005 	strne	r0, [r0], -r5
    1614:	08025201 	stmdaeq	r2, {r0, r9, ip, lr}
    1618:	51011680 	smlabbpl	r1, r0, r6, r1
    161c:	7ed09103 	atnvcs	f1, f3
    1620:	01500116 	cmpeq	r0, r6, lsl r1
    1624:	7d02163a 	stcvc	6, cr1, [r2, #-232]	; 0xffffff18
    1628:	007b0204 	rsbseq	r0, fp, r4, lsl #4
    162c:	007d0216 	rsbseq	r0, sp, r6, lsl r2
    1630:	00007702 	andeq	r7, r0, r2, lsl #14
    1634:	008bd415 	addeq	sp, fp, r5, lsl r4
    1638:	00019c00 	andeq	r9, r1, r0, lsl #24
    163c:	0005a600 	andeq	sl, r5, r0, lsl #12
    1640:	52011600 	andpl	r1, r1, #0, 12
    1644:	16800802 	strne	r0, [r0], r2, lsl #16
    1648:	91035101 	tstls	r3, r1, lsl #2
    164c:	01167ed0 			; <UNDEFINED> instruction: 0x01167ed0
    1650:	16400150 			; <UNDEFINED> instruction: 0x16400150
    1654:	02047d02 	andeq	r7, r4, #2, 26	; 0x80
    1658:	0216007b 	andseq	r0, r6, #123	; 0x7b
    165c:	7702007d 	smlsdxvc	r2, sp, r0, r0
    1660:	f8150000 			; <UNDEFINED> instruction: 0xf8150000
    1664:	9c00008b 	stcls	0, cr0, [r0], {139}	; 0x8b
    1668:	d4000001 	strle	r0, [r0], #-1
    166c:	16000005 	strne	r0, [r0], -r5
    1670:	08025201 	stmdaeq	r2, {r0, r9, ip, lr}
    1674:	51011680 	smlabbpl	r1, r0, r6, r1
    1678:	7ed09103 	atnvcs	f1, f3
    167c:	01500116 	cmpeq	r0, r6, lsl r1
    1680:	7d021632 	stcvc	6, cr1, [r2, #-200]	; 0xffffff38
    1684:	007b0204 	rsbseq	r0, fp, r4, lsl #4
    1688:	007d0216 	rsbseq	r0, sp, r6, lsl r2
    168c:	00007702 	andeq	r7, r0, r2, lsl #14
    1690:	008c2815 	addeq	r2, ip, r5, lsl r8
    1694:	00019c00 	andeq	r9, r1, r0, lsl #24
    1698:	00060200 	andeq	r0, r6, r0, lsl #4
    169c:	52011600 	andpl	r1, r1, #0, 12
    16a0:	16800802 	strne	r0, [r0], r2, lsl #16
    16a4:	91035101 	tstls	r3, r1, lsl #2
    16a8:	01167ed0 			; <UNDEFINED> instruction: 0x01167ed0
    16ac:	16380150 			; <UNDEFINED> instruction: 0x16380150
    16b0:	02047d02 	andeq	r7, r4, #2, 26	; 0x80
    16b4:	0216007b 	andseq	r0, r6, #123	; 0x7b
    16b8:	7702007d 	smlsdxvc	r2, sp, r0, r0
    16bc:	30140000 	andscc	r0, r4, r0
    16c0:	8000008c 	andhi	r0, r0, ip, lsl #1
    16c4:	15000006 	strne	r0, [r0, #-6]
    16c8:	00008c4c 	andeq	r8, r0, ip, asr #24
    16cc:	00000687 	andeq	r0, r0, r7, lsl #13
    16d0:	0000063a 	andeq	r0, r0, sl, lsr r6
    16d4:	02530116 	subseq	r0, r3, #-2147483643	; 0x80000005
    16d8:	0116b908 	tsteq	r6, r8, lsl #18
    16dc:	e4030552 	str	r0, [r3], #-1362	; 0x552
    16e0:	160000a0 	strne	r0, [r0], -r0, lsr #1
    16e4:	03055101 	movweq	r5, #20737	; 0x5101
    16e8:	0000a104 	andeq	sl, r0, r4, lsl #2
    16ec:	05500116 	ldrbeq	r0, [r0, #-278]	; 0x116
    16f0:	00a17c03 	adceq	r7, r1, r3, lsl #24
    16f4:	50140000 	andspl	r0, r4, r0
    16f8:	9d00008c 	stcls	0, cr0, [r0, #-560]	; 0xfffffdd0
    16fc:	00000006 	andeq	r0, r0, r6
    1700:	007a1800 	rsbseq	r1, sl, r0, lsl #16
    1704:	06550000 	ldrbeq	r0, [r5], -r0
    1708:	6b190000 	blvs	641710 <__bss_end__+0x636e18>
    170c:	09000000 	stmdbeq	r0, {}	; <UNPREDICTABLE>
    1710:	06450600 	strbeq	r0, [r5], -r0, lsl #12
    1714:	7a180000 	bvc	60171c <__bss_end__+0x5f6e24>
    1718:	6a000000 	bvs	1720 <_start-0x68e0>
    171c:	19000006 	stmdbne	r0, {r1, r2}
    1720:	0000006b 	andeq	r0, r0, fp, rrx
    1724:	881f007f 	ldmdahi	pc, {r0, r1, r2, r3, r4, r5, r6}	; <UNPREDICTABLE>
    1728:	03000004 	movweq	r0, #4
    172c:	0003a11d 	andeq	sl, r3, sp, lsl r1
    1730:	04c51f00 	strbeq	r1, [r5], #3840	; 0xf00
    1734:	22030000 	andcs	r0, r3, #0
    1738:	000003b6 			; <UNDEFINED> instruction: 0x000003b6
    173c:	00010020 	andeq	r0, r1, r0, lsr #32
    1740:	211e0300 	tstcs	lr, r0, lsl #6
    1744:	00000418 	andeq	r0, r0, r8, lsl r4
    1748:	00252903 	eoreq	r2, r5, r3, lsl #18
    174c:	069d0000 	ldreq	r0, [sp], r0
    1750:	811c0000 	tsthi	ip, r0
    1754:	22000000 	andcs	r0, r0, #0
    1758:	01ea2000 	mvneq	r2, r0
    175c:	66030000 	strvs	r0, [r3], -r0
    1760:	0000b800 	andeq	fp, r0, r0, lsl #16
    1764:	af000400 	svcge	0x00000400
    1768:	04000006 	streq	r0, [r0], #-6
    176c:	0002ac01 	andeq	sl, r2, r1, lsl #24
    1770:	05370100 	ldreq	r0, [r7, #-256]!	; 0x100
    1774:	04290000 	strteq	r0, [r9], #-0
    1778:	8cbc0000 	ldchi	0, cr0, [ip]
    177c:	00200000 	eoreq	r0, r0, r0
    1780:	072f0000 	streq	r0, [pc, -r0]!
    1784:	04020000 	streq	r0, [r2], #-0
    1788:	746e6905 	strbtvc	r6, [lr], #-2309	; 0x905
    178c:	07040300 	streq	r0, [r4, -r0, lsl #6]
    1790:	00000044 	andeq	r0, r0, r4, asr #32
    1794:	53060103 	movwpl	r0, #24835	; 0x6103
    1798:	03000002 	movweq	r0, #2
    179c:	026c0502 	rsbeq	r0, ip, #8388608	; 0x800000
    17a0:	04030000 	streq	r0, [r3], #-0
    17a4:	00006705 	andeq	r6, r0, r5, lsl #14
    17a8:	05080300 	streq	r0, [r8, #-768]	; 0x300
    17ac:	00000062 	andeq	r0, r0, r2, rrx
    17b0:	51080103 	tstpl	r8, r3, lsl #2
    17b4:	03000002 	movweq	r0, #2
    17b8:	01600702 	cmneq	r0, r2, lsl #14
    17bc:	04030000 	streq	r0, [r3], #-0
    17c0:	00003f07 	andeq	r3, r0, r7, lsl #30
    17c4:	07080300 	streq	r0, [r8, -r0, lsl #6]
    17c8:	0000003a 	andeq	r0, r0, sl, lsr r0
    17cc:	f7070403 			; <UNDEFINED> instruction: 0xf7070403
    17d0:	03000001 	movweq	r0, #1
    17d4:	025a0801 	subseq	r0, sl, #65536	; 0x10000
    17d8:	7c040000 	stcvc	0, cr0, [r4], {-0}
    17dc:	01000003 	tsteq	r0, r3
    17e0:	008cbc03 	addeq	fp, ip, r3, lsl #24
    17e4:	00001000 	andeq	r1, r0, r0
    17e8:	9c9c0100 	ldflss	f0, [ip], {0}
    17ec:	05000000 	streq	r0, [r0, #-0]
    17f0:	04010072 	streq	r0, [r1], #-114	; 0x72
    17f4:	0000002c 	andeq	r0, r0, ip, lsr #32
    17f8:	00000d78 	andeq	r0, r0, r8, ror sp
    17fc:	05290600 	streq	r0, [r9, #-1536]!	; 0x600
    1800:	0c010000 	stceq	0, cr0, [r1], {-0}
    1804:	00008ccc 	andeq	r8, r0, ip, asr #25
    1808:	00000010 	andeq	r0, r0, r0, lsl r0
    180c:	72059c01 	andvc	r9, r5, #256	; 0x100
    1810:	2c0d0100 	stfcss	f0, [sp], {-0}
    1814:	9c000000 	stcls	0, cr0, [r0], {-0}
    1818:	0000000d 	andeq	r0, r0, sp
    181c:	0000ff00 	andeq	pc, r0, r0, lsl #30
    1820:	1a000400 	bne	2828 <_start-0x57d8>
    1824:	04000007 	streq	r0, [r0], #-7
    1828:	0002ac01 	andeq	sl, r2, r1, lsl #24
    182c:	05550100 	ldrbeq	r0, [r5, #-256]	; 0x100
    1830:	04290000 	strteq	r0, [r9], #-0
    1834:	8cdc0000 	ldclhi	0, cr0, [ip], {0}
    1838:	00280000 	eoreq	r0, r8, r0
    183c:	07760000 	ldrbeq	r0, [r6, -r0]!
    1840:	04020000 	streq	r0, [r2], #-0
    1844:	746e6905 	strbtvc	r6, [lr], #-2309	; 0x905
    1848:	07040300 	streq	r0, [r4, -r0, lsl #6]
    184c:	00000044 	andeq	r0, r0, r4, asr #32
    1850:	53060103 	movwpl	r0, #24835	; 0x6103
    1854:	03000002 	movweq	r0, #2
    1858:	026c0502 	rsbeq	r0, ip, #8388608	; 0x800000
    185c:	04030000 	streq	r0, [r3], #-0
    1860:	00006705 	andeq	r6, r0, r5, lsl #14
    1864:	05080300 	streq	r0, [r8, #-768]	; 0x300
    1868:	00000062 	andeq	r0, r0, r2, rrx
    186c:	51080103 	tstpl	r8, r3, lsl #2
    1870:	03000002 	movweq	r0, #2
    1874:	01600702 	cmneq	r0, r2, lsl #14
    1878:	04030000 	streq	r0, [r3], #-0
    187c:	00003f07 	andeq	r3, r0, r7, lsl #30
    1880:	07080300 	streq	r0, [r8, -r0, lsl #6]
    1884:	0000003a 	andeq	r0, r0, sl, lsr r0
    1888:	f7070403 			; <UNDEFINED> instruction: 0xf7070403
    188c:	03000001 	movweq	r0, #1
    1890:	025a0801 	subseq	r0, sl, #65536	; 0x10000
    1894:	04040000 	streq	r0, [r4], #-0
    1898:	0000007f 	andeq	r0, r0, pc, ror r0
    189c:	00007205 	andeq	r7, r0, r5, lsl #4
    18a0:	01ea0600 	mvneq	r0, r0, lsl #12
    18a4:	04010000 	streq	r0, [r1], #-0
    18a8:	00008cdc 	ldrdeq	r8, [r0], -ip
    18ac:	00000028 	andeq	r0, r0, r8, lsr #32
    18b0:	00ca9c01 	sbceq	r9, sl, r1, lsl #24
    18b4:	f0070000 			; <UNDEFINED> instruction: 0xf0070000
    18b8:	ac00008c 	stcge	0, cr0, [r0], {140}	; 0x8c
    18bc:	08000000 	stmdaeq	r0, {}	; <UNPREDICTABLE>
    18c0:	03055001 	movweq	r5, #20481	; 0x5001
    18c4:	0000a1b4 			; <UNDEFINED> instruction: 0x0000a1b4
    18c8:	8cf80900 	ldclhi	9, cr0, [r8]
    18cc:	00ea0000 	rsceq	r0, sl, r0
    18d0:	00c00000 	sbceq	r0, r0, r0
    18d4:	01080000 	mrseq	r0, (UNDEF: 8)
    18d8:	64080250 	strvs	r0, [r8], #-592	; 0x250
    18dc:	8cfc0a00 	vldmiahi	ip!, {s1-s0}
    18e0:	00fb0000 	rscseq	r0, fp, r0
    18e4:	0b000000 	bleq	18ec <_start-0x6714>
    18e8:	00000025 	andeq	r0, r0, r5, lsr #32
    18ec:	000000d9 	ldrdeq	r0, [r0], -r9
    18f0:	0000790c 	andeq	r7, r0, ip, lsl #18
    18f4:	c50d0000 	strgt	r0, [sp, #-0]
    18f8:	02000004 	andeq	r0, r0, #4
    18fc:	0000e422 	andeq	lr, r0, r2, lsr #8
    1900:	ca040400 	bgt	102908 <__bss_end__+0xf8010>
    1904:	0e000000 	cdpeq	0, 0, cr0, cr0, cr0, {0}
    1908:	00000276 	andeq	r0, r0, r6, ror r2
    190c:	00fb5002 	rscseq	r5, fp, r2
    1910:	2c0c0000 	stccs	0, cr0, [ip], {-0}
    1914:	00000000 	andeq	r0, r0, r0
    1918:	00054a0f 	andeq	r4, r5, pc, lsl #20
    191c:	00630200 	rsbeq	r0, r3, r0, lsl #4
    1920:	000002dd 	ldrdeq	r0, [r0], -sp
    1924:	07e40004 	strbeq	r0, [r4, r4]!
    1928:	01040000 	mrseq	r0, (UNDEF: 4)
    192c:	000002ac 	andeq	r0, r0, ip, lsr #5
    1930:	00064901 	andeq	r4, r6, r1, lsl #18
    1934:	00042900 	andeq	r2, r4, r0, lsl #18
    1938:	008d0400 	addeq	r0, sp, r0, lsl #8
    193c:	0000b000 	andeq	fp, r0, r0
    1940:	00080d00 	andeq	r0, r8, r0, lsl #26
    1944:	05040200 	streq	r0, [r4, #-512]	; 0x200
    1948:	00746e69 	rsbseq	r6, r4, r9, ror #28
    194c:	44070403 	strmi	r0, [r7], #-1027	; 0x403
    1950:	03000000 	movweq	r0, #0
    1954:	02530601 	subseq	r0, r3, #1048576	; 0x100000
    1958:	02030000 	andeq	r0, r3, #0
    195c:	00026c05 	andeq	r6, r2, r5, lsl #24
    1960:	05040300 	streq	r0, [r4, #-768]	; 0x300
    1964:	00000067 	andeq	r0, r0, r7, rrx
    1968:	62050803 	andvs	r0, r5, #196608	; 0x30000
    196c:	04000000 	streq	r0, [r0], #-0
    1970:	00000399 	muleq	r0, r9, r3
    1974:	005a2e02 	subseq	r2, sl, r2, lsl #28
    1978:	01030000 	mrseq	r0, (UNDEF: 3)
    197c:	00025108 	andeq	r5, r2, r8, lsl #2
    1980:	07020300 	streq	r0, [r2, -r0, lsl #6]
    1984:	00000160 	andeq	r0, r0, r0, ror #2
    1988:	00066904 	andeq	r6, r6, r4, lsl #18
    198c:	73340200 	teqvc	r4, #0, 4
    1990:	03000000 	movweq	r0, #0
    1994:	003f0704 	eorseq	r0, pc, r4, lsl #14
    1998:	08030000 	stmdaeq	r3, {}	; <UNPREDICTABLE>
    199c:	00003a07 	andeq	r3, r0, r7, lsl #20
    19a0:	07040300 	streq	r0, [r4, -r0, lsl #6]
    19a4:	000001f7 	strdeq	r0, [r0], -r7
    19a8:	5a080103 	bpl	201dbc <__bss_end__+0x1f74c4>
    19ac:	05000002 	streq	r0, [r0, #-2]
    19b0:	00009504 	andeq	r9, r0, r4, lsl #10
    19b4:	00880600 	addeq	r0, r8, r0, lsl #12
    19b8:	0c070000 	stceq	0, cr0, [r7], {-0}
    19bc:	00d10e03 	sbcseq	r0, r1, r3, lsl #28
    19c0:	74080000 	strvc	r0, [r8], #-0
    19c4:	0f030078 	svceq	0x00030078
    19c8:	0000004f 	andeq	r0, r0, pc, asr #32
    19cc:	78720800 	ldmdavc	r2!, {fp}^
    19d0:	4f0f0300 	svcmi	0x000f0300
    19d4:	01000000 	mrseq	r0, (UNDEF: 0)
    19d8:	0005e809 	andeq	lr, r5, r9, lsl #16
    19dc:	68100300 	ldmdavs	r0, {r8, r9}
    19e0:	04000000 	streq	r0, [r0], #-0
    19e4:	00059909 	andeq	r9, r5, r9, lsl #18
    19e8:	68110300 	ldmdavs	r1, {r8, r9}
    19ec:	08000000 	stmdaeq	r0, {}	; <UNPREDICTABLE>
    19f0:	05d10400 	ldrbeq	r0, [r1, #1024]	; 0x400
    19f4:	12030000 	andne	r0, r3, #0
    19f8:	0000009a 	muleq	r0, sl, r0
    19fc:	1004010a 	andne	r0, r4, sl, lsl #2
    1a00:	000000f7 	strdeq	r0, [r0], -r7
    1a04:	0005ed0b 	andeq	lr, r5, fp, lsl #26
    1a08:	db0b0100 	blle	2c1e10 <__bss_end__+0x2b7518>
    1a0c:	02000005 	andeq	r0, r0, #5
    1a10:	0005c30b 	andeq	ip, r5, fp, lsl #6
    1a14:	04000300 	streq	r0, [r0], #-768	; 0x300
    1a18:	00000602 	andeq	r0, r0, r2, lsl #12
    1a1c:	00dc1004 	sbcseq	r1, ip, r4
    1a20:	14070000 	strne	r0, [r7], #-0
    1a24:	012f1404 	teqeq	pc, r4, lsl #8
    1a28:	72090000 	andvc	r0, r9, #0
    1a2c:	04000006 	streq	r0, [r0], #-6
    1a30:	00002c15 	andeq	r2, r0, r5, lsl ip
    1a34:	5d090000 	stcpl	0, cr0, [r9, #-0]
    1a38:	04000006 	streq	r0, [r0], #-6
    1a3c:	0000f718 	andeq	pc, r0, r8, lsl r7	; <UNPREDICTABLE>
    1a40:	28090400 	stmdacs	r9, {sl}
    1a44:	04000006 	streq	r0, [r0], #-6
    1a48:	0000d11b 	andeq	sp, r0, fp, lsl r1
    1a4c:	04000800 	streq	r0, [r0], #-2048	; 0x800
    1a50:	0000061a 	andeq	r0, r0, sl, lsl r6
    1a54:	01022004 	tsteq	r2, r4
    1a58:	6f0c0000 	svcvs	0x000c0000
    1a5c:	01000005 	tsteq	r0, r5
    1a60:	00002506 	andeq	r2, r0, r6, lsl #10
    1a64:	008d0400 	addeq	r0, sp, r0, lsl #8
    1a68:	00002000 	andeq	r2, r0, r0
    1a6c:	7a9c0100 	bvc	fe701e74 <__bss_end__+0xfe6f757c>
    1a70:	0d000001 	stceq	0, cr0, [r0, #-4]
    1a74:	06010063 	streq	r0, [r1], -r3, rrx
    1a78:	00000025 	andeq	r0, r0, r5, lsr #32
    1a7c:	00000dc0 	andeq	r0, r0, r0, asr #27
    1a80:	008d180e 	addeq	r1, sp, lr, lsl #16
    1a84:	00027a00 	andeq	r7, r2, r0, lsl #20
    1a88:	51010f00 	tstpl	r1, r0, lsl #30
    1a8c:	0f007402 	svceq	0x00007402
    1a90:	03055001 	movweq	r5, #20481	; 0x5001
    1a94:	0000a8e8 	andeq	sl, r0, r8, ror #17
    1a98:	fa100000 	blx	401aa0 <__bss_end__+0x3f71a8>
    1a9c:	01000005 	tsteq	r0, r5
    1aa0:	008d240b 	addeq	r2, sp, fp, lsl #8
    1aa4:	00009000 	andeq	r9, r0, r0
    1aa8:	279c0100 	ldrcs	r0, [ip, r0, lsl #2]
    1aac:	11000002 	tstne	r0, r2
    1ab0:	00000583 	andeq	r0, r0, r3, lsl #11
    1ab4:	00250c01 	eoreq	r0, r5, r1, lsl #24
    1ab8:	3d110000 	ldccc	0, cr0, [r1, #-0]
    1abc:	01000006 	tsteq	r0, r6
    1ac0:	0000250c 	andeq	r2, r0, ip, lsl #10
    1ac4:	00cd1200 	sbceq	r1, sp, r0, lsl #4
    1ac8:	0d010000 	stceq	0, cr0, [r1, #-0]
    1acc:	73736213 	cmnvc	r3, #805306369	; 0x30000001
    1ad0:	270f0100 	strcs	r0, [pc, -r0, lsl #2]
    1ad4:	de000002 	cdple	0, 0, cr0, cr0, cr2, {0}
    1ad8:	1400000d 	strne	r0, [r0], #-13
    1adc:	00000591 	muleq	r0, r1, r5
    1ae0:	02271001 	eoreq	r1, r7, #1
    1ae4:	63130000 	tstvs	r3, #0
    1ae8:	17010062 	strne	r0, [r1, -r2, rrx]
    1aec:	0000022d 	andeq	r0, r0, sp, lsr #4
    1af0:	00000dfe 	strdeq	r0, [r0], -lr
    1af4:	008d4c15 	addeq	r4, sp, r5, lsl ip
    1af8:	00029600 	andeq	r9, r2, r0, lsl #12
    1afc:	8d881600 	stchi	6, cr1, [r8]
    1b00:	02a10000 	adceq	r0, r1, #0
    1b04:	01fd0000 	mvnseq	r0, r0
    1b08:	010f0000 	mrseq	r0, CPSR
    1b0c:	c0030551 	andgt	r0, r3, r1, asr r5
    1b10:	0f0000a1 	svceq	0x000000a1
    1b14:	03055001 	movweq	r5, #20481	; 0x5001
    1b18:	0000a8e8 	andeq	sl, r0, r8, ror #17
    1b1c:	8d901600 	ldchi	6, cr1, [r0]
    1b20:	02bc0000 	adcseq	r0, ip, #0
    1b24:	02140000 	andseq	r0, r4, #0
    1b28:	010f0000 	mrseq	r0, CPSR
    1b2c:	e4030550 	str	r0, [r3], #-1360	; 0x550
    1b30:	000000a1 	andeq	r0, r0, r1, lsr #1
    1b34:	008d9415 	addeq	r9, sp, r5, lsl r4
    1b38:	0002d200 	andeq	sp, r2, r0, lsl #4
    1b3c:	8d981500 	cfldr32hi	mvfx1, [r8]
    1b40:	02d90000 	sbcseq	r0, r9, #0
    1b44:	05000000 	streq	r0, [r0, #-0]
    1b48:	00002504 	andeq	r2, r0, r4, lsl #10
    1b4c:	2f040500 	svccs	0x00040500
    1b50:	17000001 	strne	r0, [r0, -r1]
    1b54:	000005a7 	andeq	r0, r0, r7, lsr #11
    1b58:	00d10501 	sbcseq	r0, r1, r1, lsl #10
    1b5c:	03050000 	movweq	r0, #20480	; 0x5000
    1b60:	0000a8e8 	andeq	sl, r0, r8, ror #17
    1b64:	00002518 	andeq	r2, r0, r8, lsl r5
    1b68:	00025300 	andeq	r5, r2, r0, lsl #6
    1b6c:	00251900 	eoreq	r1, r5, r0, lsl #18
    1b70:	11000000 	mrsne	r0, (UNDEF: 0)
    1b74:	00000488 	andeq	r0, r0, r8, lsl #9
    1b78:	025e1d05 	subseq	r1, lr, #320	; 0x140
    1b7c:	04050000 	streq	r0, [r5], #-0
    1b80:	00000244 	andeq	r0, r0, r4, asr #4
    1b84:	00058311 	andeq	r8, r5, r1, lsl r3
    1b88:	250c0100 	strcs	r0, [ip, #-256]	; 0x100
    1b8c:	11000000 	mrsne	r0, (UNDEF: 0)
    1b90:	0000063d 	andeq	r0, r0, sp, lsr r6
    1b94:	00250c01 	eoreq	r0, r5, r1, lsl #24
    1b98:	0d1a0000 	ldceq	0, cr0, [sl, #-0]
    1b9c:	03000006 	movweq	r0, #6
    1ba0:	00029044 	andeq	r9, r2, r4, asr #32
    1ba4:	02901900 	addseq	r1, r0, #0, 18
    1ba8:	5a190000 	bpl	641bb0 <__bss_end__+0x6372b8>
    1bac:	00000000 	andeq	r0, r0, r0
    1bb0:	00d10405 	sbcseq	r0, r1, r5, lsl #8
    1bb4:	301b0000 	andscc	r0, fp, r0
    1bb8:	04000006 	streq	r0, [r0], #-6
    1bbc:	00022d2a 	andeq	r2, r2, sl, lsr #26
    1bc0:	05b41c00 	ldreq	r1, [r4, #3072]!	; 0xc00
    1bc4:	15030000 	strne	r0, [r3, #-0]
    1bc8:	00000025 	andeq	r0, r0, r5, lsr #32
    1bcc:	000002bc 			; <UNDEFINED> instruction: 0x000002bc
    1bd0:	00029019 	andeq	r9, r2, r9, lsl r0
    1bd4:	008f1900 	addeq	r1, pc, r0, lsl #18
    1bd8:	001d0000 	andseq	r0, sp, r0
    1bdc:	0004181c 	andeq	r1, r4, ip, lsl r8
    1be0:	25290500 	strcs	r0, [r9, #-1280]!	; 0x500
    1be4:	d2000000 	andle	r0, r0, #0
    1be8:	19000002 	stmdbne	r0, {r1}
    1bec:	0000008f 	andeq	r0, r0, pc, lsl #1
    1bf0:	cd12001d 	ldcgt	0, cr0, [r2, #-116]	; 0xffffff8c
    1bf4:	05000000 	streq	r0, [r0, #-0]
    1bf8:	054a12d1 	strbeq	r1, [sl, #-721]	; 0x2d1
    1bfc:	63050000 	movwvs	r0, #20480	; 0x5000
    1c00:	0001ad00 	andeq	sl, r1, r0, lsl #26
    1c04:	7b000400 	blvc	2c0c <_start-0x53f4>
    1c08:	04000009 	streq	r0, [r0], #-9
    1c0c:	0002ac01 	andeq	sl, r2, r1, lsl #24
    1c10:	06920100 	ldreq	r0, [r2], r0, lsl #2
    1c14:	04290000 	strteq	r0, [r9], #-0
    1c18:	00180000 	andseq	r0, r8, r0
    1c1c:	00000000 	andeq	r0, r0, r0
    1c20:	09320000 	ldmdbeq	r2!, {}	; <UNPREDICTABLE>
    1c24:	04020000 	streq	r0, [r2], #-0
    1c28:	746e6905 	strbtvc	r6, [lr], #-2309	; 0x905
    1c2c:	07040300 	streq	r0, [r4, -r0, lsl #6]
    1c30:	00000044 	andeq	r0, r0, r4, asr #32
    1c34:	53060103 	movwpl	r0, #24835	; 0x6103
    1c38:	03000002 	movweq	r0, #2
    1c3c:	026c0502 	rsbeq	r0, ip, #8388608	; 0x800000
    1c40:	04030000 	streq	r0, [r3], #-0
    1c44:	00006705 	andeq	r6, r0, r5, lsl #14
    1c48:	05080300 	streq	r0, [r8, #-768]	; 0x300
    1c4c:	00000062 	andeq	r0, r0, r2, rrx
    1c50:	51080103 	tstpl	r8, r3, lsl #2
    1c54:	03000002 	movweq	r0, #2
    1c58:	01600702 	cmneq	r0, r2, lsl #14
    1c5c:	04030000 	streq	r0, [r3], #-0
    1c60:	00003f07 	andeq	r3, r0, r7, lsl #30
    1c64:	07080300 	streq	r0, [r8, -r0, lsl #6]
    1c68:	0000003a 	andeq	r0, r0, sl, lsr r0
    1c6c:	f7070403 			; <UNDEFINED> instruction: 0xf7070403
    1c70:	03000001 	movweq	r0, #1
    1c74:	025a0801 	subseq	r0, sl, #65536	; 0x10000
    1c78:	78040000 	stmdavc	r4, {}	; <UNPREDICTABLE>
    1c7c:	01000006 	tsteq	r0, r6
    1c80:	0000250e 	andeq	r2, r0, lr, lsl #10
    1c84:	008db400 	addeq	fp, sp, r0, lsl #8
    1c88:	00001800 	andeq	r1, r0, r0, lsl #16
    1c8c:	a29c0100 	addsge	r0, ip, #0, 2
    1c90:	05000000 	streq	r0, [r0, #-0]
    1c94:	000006e4 	andeq	r0, r0, r4, ror #13
    1c98:	002c0f01 	eoreq	r0, ip, r1, lsl #30
    1c9c:	0e1e0000 	cdpeq	0, 1, cr0, cr14, cr0, {0}
    1ca0:	06000000 	streq	r0, [r0], -r0
    1ca4:	000006c7 	andeq	r0, r0, r7, asr #13
    1ca8:	8dcc1701 	stclhi	7, cr1, [ip, #4]
    1cac:	00140000 	andseq	r0, r4, r0
    1cb0:	9c010000 	stcls	0, cr0, [r1], {-0}
    1cb4:	000000c7 	andeq	r0, r0, r7, asr #1
    1cb8:	0006e405 	andeq	lr, r6, r5, lsl #8
    1cbc:	2c180100 	ldfcss	f0, [r8], {-0}
    1cc0:	3d000000 	stccc	0, cr0, [r0, #-0]
    1cc4:	0000000e 	andeq	r0, r0, lr
    1cc8:	00054a06 	andeq	r4, r5, r6, lsl #20
    1ccc:	e01f0100 	ands	r0, pc, r0, lsl #2
    1cd0:	4800008d 	stmdami	r0, {r0, r2, r3, r7}
    1cd4:	01000000 	mrseq	r0, (UNDEF: 0)
    1cd8:	0001779c 	muleq	r1, ip, r7
    1cdc:	06dc0700 	ldrbeq	r0, [ip], r0, lsl #14
    1ce0:	2a010000 	bcs	41ce8 <__bss_end__+0x373f0>
    1ce4:	00000177 	andeq	r0, r0, r7, ror r1
    1ce8:	2010001c 	andscs	r0, r0, ip, lsl r0
    1cec:	0006bf07 	andeq	fp, r6, r7, lsl #30
    1cf0:	772b0100 	strvc	r0, [fp, -r0, lsl #2]!
    1cf4:	24000001 	strcs	r0, [r0], #-1
    1cf8:	07201000 	streq	r1, [r0, -r0]!
    1cfc:	00000686 	andeq	r0, r0, r6, lsl #13
    1d00:	01772c01 	cmneq	r7, r1, lsl #24
    1d04:	00000000 	andeq	r0, r0, r0
    1d08:	a6085a00 	strge	r5, [r8], -r0, lsl #20
    1d0c:	01000006 	tsteq	r0, r6
    1d10:	0001772d 	andeq	r7, r1, sp, lsr #14
    1d14:	e8092000 	stmda	r9, {sp}
    1d18:	7900008d 	stmdbvc	r0, {r0, r2, r3, r7}
    1d1c:	09000000 	stmdbeq	r0, {}	; <UNPREDICTABLE>
    1d20:	00008df4 	strdeq	r8, [r0], -r4
    1d24:	000000a2 	andeq	r0, r0, r2, lsr #1
    1d28:	008dfc0a 	addeq	pc, sp, sl, lsl #24
    1d2c:	00018d00 	andeq	r8, r1, r0, lsl #26
    1d30:	00013a00 	andeq	r3, r1, r0, lsl #20
    1d34:	50010b00 	andpl	r0, r1, r0, lsl #22
    1d38:	0a004e01 	beq	15544 <__bss_end__+0xac4c>
    1d3c:	00008e08 	andeq	r8, r0, r8, lsl #28
    1d40:	0000019e 	muleq	r0, lr, r1
    1d44:	0000015a 	andeq	r0, r0, sl, asr r1
    1d48:	0551010b 	ldrbeq	r0, [r1, #-267]	; 0x10b
    1d4c:	0000010c 	andeq	r0, r0, ip, lsl #2
    1d50:	50010b5a 	andpl	r0, r1, sl, asr fp
    1d54:	00240c05 	eoreq	r0, r4, r5, lsl #24
    1d58:	0c002010 	stceq	0, cr2, [r0], {16}
    1d5c:	00008e14 	andeq	r8, r0, r4, lsl lr
    1d60:	0000019e 	muleq	r0, lr, r1
    1d64:	0551010b 	ldrbeq	r0, [r1, #-267]	; 0x10b
    1d68:	0000200c 	andeq	r2, r0, ip
    1d6c:	50010b5a 	andpl	r0, r1, sl, asr fp
    1d70:	001c0c05 	andseq	r0, ip, r5, lsl #24
    1d74:	00002010 	andeq	r2, r0, r0, lsl r0
    1d78:	0000250d 	andeq	r2, r0, sp, lsl #10
    1d7c:	067b0800 	ldrbteq	r0, [fp], -r0, lsl #16
    1d80:	0d010000 	stceq	0, cr0, [r1, #-0]
    1d84:	00000188 	andeq	r0, r0, r8, lsl #3
    1d88:	002c0d10 	eoreq	r0, ip, r0, lsl sp
    1d8c:	760e0000 	strvc	r0, [lr], -r0
    1d90:	02000002 	andeq	r0, r0, #2
    1d94:	00019e50 	andeq	r9, r1, r0, asr lr
    1d98:	002c0f00 	eoreq	r0, ip, r0, lsl #30
    1d9c:	10000000 	andne	r0, r0, r0
    1da0:	000006d6 	ldrdeq	r0, [r0], -r6
    1da4:	2c0f9c02 	stccs	12, cr9, [pc], {2}
    1da8:	0f000000 	svceq	0x00000000
    1dac:	0000002c 	andeq	r0, r0, ip, lsr #32
    1db0:	01d80000 	bicseq	r0, r8, r0
    1db4:	00040000 	andeq	r0, r4, r0
    1db8:	00000a69 	andeq	r0, r0, r9, ror #20
    1dbc:	02ac0104 	adceq	r0, ip, #4, 2
    1dc0:	06010000 	streq	r0, [r1], -r0
    1dc4:	29000007 	stmdbcs	r0, {r0, r1, r2}
    1dc8:	28000004 	stmdacs	r0, {r2}
    1dcc:	8800008e 	stmdahi	r0, {r1, r2, r3, r7}
    1dd0:	cf000000 	svcgt	0x00000000
    1dd4:	02000009 	andeq	r0, r0, #9
    1dd8:	6e690504 	cdpvs	5, 6, cr0, cr9, cr4, {0}
    1ddc:	04030074 	streq	r0, [r3], #-116	; 0x74
    1de0:	00004407 	andeq	r4, r0, r7, lsl #8
    1de4:	06010300 	streq	r0, [r1], -r0, lsl #6
    1de8:	00000253 	andeq	r0, r0, r3, asr r2
    1dec:	6c050203 	sfmvs	f0, 4, [r5], {3}
    1df0:	03000002 	movweq	r0, #2
    1df4:	00670504 	rsbeq	r0, r7, r4, lsl #10
    1df8:	08030000 	stmdaeq	r3, {}	; <UNPREDICTABLE>
    1dfc:	00006205 	andeq	r6, r0, r5, lsl #4
    1e00:	08010300 	stmdaeq	r1, {r8, r9}
    1e04:	00000251 	andeq	r0, r0, r1, asr r2
    1e08:	60070203 	andvs	r0, r7, r3, lsl #4
    1e0c:	03000001 	movweq	r0, #1
    1e10:	003f0704 	eorseq	r0, pc, r4, lsl #14
    1e14:	08030000 	stmdaeq	r3, {}	; <UNPREDICTABLE>
    1e18:	00003a07 	andeq	r3, r0, r7, lsl #20
    1e1c:	07040300 	streq	r0, [r4, -r0, lsl #6]
    1e20:	000001f7 	strdeq	r0, [r0], -r7
    1e24:	5a080103 	bpl	202238 <__bss_end__+0x1f7940>
    1e28:	04000002 	streq	r0, [r0], #-2
    1e2c:	00000725 	andeq	r0, r0, r5, lsr #14
    1e30:	8e280501 	cfsh64hi	mvdx0, mvdx8, #1
    1e34:	001c0000 	andseq	r0, ip, r0
    1e38:	9c010000 	stcls	0, cr0, [r1], {-0}
    1e3c:	0000009e 	muleq	r0, lr, r0
    1e40:	00071f05 	andeq	r1, r7, r5, lsl #30
    1e44:	2c050100 	stfcss	f0, [r5], {-0}
    1e48:	67000000 	strvs	r0, [r0, -r0]
    1e4c:	0000000e 	andeq	r0, r0, lr
    1e50:	0006e906 	andeq	lr, r6, r6, lsl #18
    1e54:	2c0b0100 	stfcss	f0, [fp], {-0}
    1e58:	44000000 	strmi	r0, [r0], #-0
    1e5c:	1400008e 	strne	r0, [r0], #-142	; 0x8e
    1e60:	01000000 	mrseq	r0, (UNDEF: 0)
    1e64:	0000cb9c 	muleq	r0, ip, fp
    1e68:	8e500700 	cdphi	7, 5, cr0, cr0, cr0, {0}
    1e6c:	01ca0000 	biceq	r0, sl, r0
    1e70:	01080000 	mrseq	r0, (UNDEF: 8)
    1e74:	040c0550 	streq	r0, [ip], #-1360	; 0x550
    1e78:	00200030 	eoreq	r0, r0, r0, lsr r0
    1e7c:	073b0600 	ldreq	r0, [fp, -r0, lsl #12]!
    1e80:	10010000 	andne	r0, r1, r0
    1e84:	0000002c 	andeq	r0, r0, ip, lsr #32
    1e88:	00008e58 	andeq	r8, r0, r8, asr lr
    1e8c:	0000000c 	andeq	r0, r0, ip
    1e90:	00f99c01 	rscseq	r9, r9, r1, lsl #24
    1e94:	75090000 	strvc	r0, [r9, #-0]
    1e98:	2c140100 	ldfcss	f0, [r4], {-0}
    1e9c:	01000000 	mrseq	r0, (UNDEF: 0)
    1ea0:	8e600a50 	mcrhi	10, 3, r0, cr0, cr0, {2}
    1ea4:	009e0000 	addseq	r0, lr, r0
    1ea8:	04000000 	streq	r0, [r0], #-0
    1eac:	00000732 	andeq	r0, r0, r2, lsr r7
    1eb0:	8e641901 	cdphi	9, 6, cr1, cr4, cr1, {0}
    1eb4:	00240000 	eoreq	r0, r4, r0
    1eb8:	9c010000 	stcls	0, cr0, [r1], {-0}
    1ebc:	00000157 	andeq	r0, r0, r7, asr r1
    1ec0:	0073750b 	rsbseq	r7, r3, fp, lsl #10
    1ec4:	002c1901 	eoreq	r1, ip, r1, lsl #18
    1ec8:	0e9b0000 	cdpeq	0, 9, cr0, cr11, cr0, {0}
    1ecc:	72090000 	andvc	r0, r9, #0
    1ed0:	1a010062 	bne	42060 <__bss_end__+0x37768>
    1ed4:	0000002c 	andeq	r0, r0, ip, lsr #32
    1ed8:	740c5401 	strvc	r5, [ip], #-1025	; 0x401
    1edc:	1000008e 	andne	r0, r0, lr, lsl #1
    1ee0:	4d000000 	stcmi	0, cr0, [r0, #-0]
    1ee4:	0d000001 	stceq	0, cr0, [r0, #-4]
    1ee8:	01006172 	tsteq	r0, r2, ror r1
    1eec:	00002c1c 	andeq	r2, r0, ip, lsl ip
    1ef0:	000eb900 	andeq	fp, lr, r0, lsl #18
    1ef4:	8e780a00 	vaddhi.f32	s1, s16, s0
    1ef8:	00cb0000 	sbceq	r0, fp, r0
    1efc:	0a000000 	beq	1f04 <_start-0x60fc>
    1f00:	00008e70 	andeq	r8, r0, r0, ror lr
    1f04:	000000cb 	andeq	r0, r0, fp, asr #1
    1f08:	02760400 	rsbseq	r0, r6, #0, 8
    1f0c:	22010000 	andcs	r0, r1, #0
    1f10:	00008e88 	andeq	r8, r0, r8, lsl #29
    1f14:	00000014 	andeq	r0, r0, r4, lsl r0
    1f18:	01909c01 	orrseq	r9, r0, r1, lsl #24
    1f1c:	6d0b0000 	stcvs	0, cr0, [fp, #-0]
    1f20:	22010073 	andcs	r0, r1, #115	; 0x73
    1f24:	0000002c 	andeq	r0, r0, ip, lsr #32
    1f28:	00000ecc 	andeq	r0, r0, ip, asr #29
    1f2c:	008e9807 	addeq	r9, lr, r7, lsl #16
    1f30:	0000f900 	andeq	pc, r0, r0, lsl #18
    1f34:	50010800 	andpl	r0, r1, r0, lsl #16
    1f38:	5001f307 	andpl	pc, r1, r7, lsl #6
    1f3c:	1e03e80a 	cdpne	8, 0, cr14, cr3, cr10, {0}
    1f40:	fc040000 	stc2	0, cr0, [r4], {-0}
    1f44:	01000006 	tsteq	r0, r6
    1f48:	008e9c25 	addeq	r9, lr, r5, lsr #24
    1f4c:	00001400 	andeq	r1, r0, r0, lsl #8
    1f50:	ca9c0100 	bgt	fe702358 <__bss_end__+0xfe6f7a60>
    1f54:	0b000001 	bleq	1f60 <_start-0x60a0>
    1f58:	00636573 	rsbeq	r6, r3, r3, ror r5
    1f5c:	002c2501 	eoreq	r2, ip, r1, lsl #10
    1f60:	0eed0000 	cdpeq	0, 14, cr0, cr13, cr0, {0}
    1f64:	ac070000 	stcge	0, cr0, [r7], {-0}
    1f68:	5700008e 	strpl	r0, [r0, -lr, lsl #1]
    1f6c:	08000001 	stmdaeq	r0, {r0}
    1f70:	f3075001 	vhadd.u8	d5, d7, d1
    1f74:	e80a5001 	stmda	sl, {r0, ip, lr}
    1f78:	00001e03 	andeq	r1, r0, r3, lsl #28
    1f7c:	0007190e 	andeq	r1, r7, lr, lsl #18
    1f80:	2ca80200 	sfmcs	f0, 4, [r8]
    1f84:	0f000000 	svceq	0x00000000
    1f88:	0000002c 	andeq	r0, r0, ip, lsr #32
    1f8c:	08820000 	stmeq	r2, {}	; <UNPREDICTABLE>
    1f90:	00040000 	andeq	r0, r4, r0
    1f94:	00000b4c 	andeq	r0, r0, ip, asr #22
    1f98:	02ac0104 	adceq	r0, ip, #4, 2
    1f9c:	8e010000 	cdphi	0, 0, cr0, cr1, cr0, {0}
    1fa0:	29000007 	stmdbcs	r0, {r0, r1, r2}
    1fa4:	b0000004 	andlt	r0, r0, r4
    1fa8:	a000008e 	andge	r0, r0, lr, lsl #1
    1fac:	76000005 	strvc	r0, [r0], -r5
    1fb0:	0200000a 	andeq	r0, r0, #10
    1fb4:	003a0708 	eorseq	r0, sl, r8, lsl #14
    1fb8:	04020000 	streq	r0, [r2], #-0
    1fbc:	00004407 	andeq	r4, r0, r7, lsl #8
    1fc0:	06010200 	streq	r0, [r1], -r0, lsl #4
    1fc4:	00000253 	andeq	r0, r0, r3, asr r2
    1fc8:	6c050202 	sfmvs	f0, 4, [r5], {2}
    1fcc:	02000002 	andeq	r0, r0, #2
    1fd0:	00670504 	rsbeq	r0, r7, r4, lsl #10
    1fd4:	08020000 	stmdaeq	r2, {}	; <UNPREDICTABLE>
    1fd8:	00006205 	andeq	r6, r0, r5, lsl #4
    1fdc:	08010200 	stmdaeq	r1, {r9}
    1fe0:	00000251 	andeq	r0, r0, r1, asr r2
    1fe4:	60070202 	andvs	r0, r7, r2, lsl #4
    1fe8:	02000001 	andeq	r0, r0, #1
    1fec:	003f0704 	eorseq	r0, pc, r4, lsl #14
    1ff0:	04030000 	streq	r0, [r3], #-0
    1ff4:	746e6905 	strbtvc	r6, [lr], #-2309	; 0x905
    1ff8:	07040200 	streq	r0, [r4, -r0, lsl #4]
    1ffc:	000001f7 	strdeq	r0, [r0], -r7
    2000:	5a080102 	bpl	202410 <__bss_end__+0x1f7b18>
    2004:	04000002 	streq	r0, [r0], #-2
    2008:	b20c0201 	andlt	r0, ip, #268435456	; 0x10000000
    200c:	05000000 	streq	r0, [r0, #-0]
    2010:	0000077e 	andeq	r0, r0, lr, ror r7
    2014:	08530500 	ldmdaeq	r3, {r8, sl}^
    2018:	05010000 	streq	r0, [r1, #-0]
    201c:	00000876 	andeq	r0, r0, r6, ror r8
    2020:	08850504 	stmeq	r5, {r2, r8, sl}
    2024:	05050000 	streq	r0, [r5, #-0]
    2028:	00000894 	muleq	r0, r4, r8
    202c:	08a30506 	stmiaeq	r3!, {r1, r2, r8, sl}
    2030:	05070000 	streq	r0, [r7, #-0]
    2034:	000008b2 			; <UNDEFINED> instruction: 0x000008b2
    2038:	08c10503 	stmiaeq	r1, {r0, r1, r8, sl}^
    203c:	00020000 	andeq	r0, r2, r0
    2040:	00086a06 	andeq	r6, r8, r6, lsl #20
    2044:	79150200 	ldmdbvc	r5, {r9}
    2048:	07000000 	streq	r0, [r0, -r0]
    204c:	0000036c 	andeq	r0, r0, ip, ror #6
    2050:	8eb03f01 	cdphi	15, 11, cr3, cr0, cr1, {0}
    2054:	00d40000 	sbcseq	r0, r4, r0
    2058:	9c010000 	stcls	0, cr0, [r1], {-0}
    205c:	00000133 	andeq	r0, r0, r3, lsr r1
    2060:	6e697008 	cdpvs	0, 6, cr7, cr9, cr8, {0}
    2064:	2c3f0100 	ldfcss	f0, [pc], #-0	; 206c <_start-0x5f94>
    2068:	0e000000 	cdpeq	0, 0, cr0, cr0, cr0, {0}
    206c:	0900000f 	stmdbeq	r0, {r0, r1, r2, r3}
    2070:	000007ae 	andeq	r0, r0, lr, lsr #15
    2074:	01334701 	teqeq	r3, r1, lsl #14
    2078:	0f2c0000 	svceq	0x002c0000
    207c:	d0090000 	andle	r0, r9, r0
    2080:	01000008 	tsteq	r0, r8
    2084:	00002c49 	andeq	r2, r0, r9, asr #24
    2088:	000f8100 	andeq	r8, pc, r0, lsl #2
    208c:	081e0900 	ldmdaeq	lr, {r8, fp}
    2090:	57010000 	strpl	r0, [r1, -r0]
    2094:	0000002c 	andeq	r0, r0, ip, lsr #32
    2098:	0000114d 	andeq	r1, r0, sp, asr #2
    209c:	008f440a 	addeq	r4, pc, sl, lsl #8
    20a0:	00084100 	andeq	r4, r8, r0, lsl #2
    20a4:	00012200 	andeq	r2, r1, r0, lsl #4
    20a8:	50010b00 	andpl	r0, r1, r0, lsl #22
    20ac:	00007502 	andeq	r7, r0, r2, lsl #10
    20b0:	008f780c 	addeq	r7, pc, ip, lsl #16
    20b4:	00086200 	andeq	r6, r8, r0, lsl #4
    20b8:	50010b00 	andpl	r0, r1, r0, lsl #22
    20bc:	00007502 	andeq	r7, r0, r2, lsl #10
    20c0:	39040d00 	stmdbcc	r4, {r8, sl, fp}
    20c4:	0e000001 	cdpeq	0, 0, cr0, cr0, cr1, {0}
    20c8:	0000002c 	andeq	r0, r0, ip, lsr #32
    20cc:	00005607 	andeq	r5, r0, r7, lsl #12
    20d0:	84600100 	strbthi	r0, [r0], #-256	; 0x100
    20d4:	3800008f 	stmdacc	r0, {r0, r1, r2, r3, r7}
    20d8:	01000000 	mrseq	r0, (UNDEF: 0)
    20dc:	0001969c 	muleq	r1, ip, r6
    20e0:	69700800 	ldmdbvs	r0!, {fp}^
    20e4:	6001006e 	andvs	r0, r1, lr, rrx
    20e8:	0000002c 	andeq	r0, r0, ip, lsr #32
    20ec:	0000117d 	andeq	r1, r0, sp, ror r1
    20f0:	0007ae09 	andeq	sl, r7, r9, lsl #28
    20f4:	33670100 	cmncc	r7, #0, 2
    20f8:	9e000001 	cdpls	0, 0, cr0, cr0, cr1, {0}
    20fc:	09000011 	stmdbeq	r0, {r0, r4}
    2100:	0000081e 	andeq	r0, r0, lr, lsl r8
    2104:	002c6801 	eoreq	r6, ip, r1, lsl #16
    2108:	11d40000 	bicsne	r0, r4, r0
    210c:	b40c0000 	strlt	r0, [ip], #-0
    2110:	6200008f 	andvs	r0, r0, #143	; 0x8f
    2114:	0b000008 	bleq	213c <_start-0x5ec4>
    2118:	31075101 	tstcc	r7, r1, lsl #2
    211c:	4f5001f3 	svcmi	0x005001f3
    2120:	0000241a 	andeq	r2, r0, sl, lsl r4
    2124:	0000da07 	andeq	sp, r0, r7, lsl #20
    2128:	bc7b0100 	ldflte	f0, [fp], #-0
    212c:	3800008f 	stmdacc	r0, {r0, r1, r2, r3, r7}
    2130:	01000000 	mrseq	r0, (UNDEF: 0)
    2134:	0001ee9c 	muleq	r1, ip, lr
    2138:	69700800 	ldmdbvs	r0!, {fp}^
    213c:	7b01006e 	blvc	422fc <__bss_end__+0x37a04>
    2140:	0000002c 	andeq	r0, r0, ip, lsr #32
    2144:	00001214 	andeq	r1, r0, r4, lsl r2
    2148:	0007ae09 	andeq	sl, r7, r9, lsl #28
    214c:	33810100 	orrcc	r0, r1, #0, 2
    2150:	35000001 	strcc	r0, [r0, #-1]
    2154:	09000012 	stmdbeq	r0, {r1, r4}
    2158:	0000081e 	andeq	r0, r0, lr, lsl r8
    215c:	002c8201 	eoreq	r8, ip, r1, lsl #4
    2160:	126b0000 	rsbne	r0, fp, #0
    2164:	ec0c0000 	stc	0, cr0, [ip], {-0}
    2168:	6200008f 	andvs	r0, r0, #143	; 0x8f
    216c:	0b000008 	bleq	2194 <_start-0x5e6c>
    2170:	31075101 	tstcc	r7, r1, lsl #2
    2174:	4f5001f3 	svcmi	0x005001f3
    2178:	0000241a 	andeq	r2, r0, sl, lsl r4
    217c:	00030307 	andeq	r0, r3, r7, lsl #6
    2180:	f4950100 			; <UNDEFINED> instruction: 0xf4950100
    2184:	cc00008f 	stcgt	0, cr0, [r0], {143}	; 0x8f
    2188:	01000000 	mrseq	r0, (UNDEF: 0)
    218c:	0002649c 	muleq	r2, ip, r4
    2190:	69700800 	ldmdbvs	r0!, {fp}^
    2194:	9501006e 	strls	r0, [r1, #-110]	; 0x6e
    2198:	0000002c 	andeq	r0, r0, ip, lsr #32
    219c:	000012ab 	andeq	r1, r0, fp, lsr #5
    21a0:	0007ae09 	andeq	sl, r7, r9, lsl #28
    21a4:	339b0100 	orrscc	r0, fp, #0, 2
    21a8:	c9000001 	stmdbgt	r0, {r0}
    21ac:	09000012 	stmdbeq	r0, {r1, r4}
    21b0:	000008d0 	ldrdeq	r0, [r0], -r0	; <UNPREDICTABLE>
    21b4:	002c9d01 	eoreq	r9, ip, r1, lsl #26
    21b8:	131e0000 	tstne	lr, #0
    21bc:	1e090000 	cdpne	0, 0, cr0, cr9, cr0, {0}
    21c0:	01000008 	tsteq	r0, r8
    21c4:	00002cab 	andeq	r2, r0, fp, lsr #25
    21c8:	0014ea00 	andseq	lr, r4, r0, lsl #20
    21cc:	90880a00 	addls	r0, r8, r0, lsl #20
    21d0:	08410000 	stmdaeq	r1, {}^	; <UNPREDICTABLE>
    21d4:	02530000 	subseq	r0, r3, #0
    21d8:	010b0000 	mrseq	r0, (UNDEF: 11)
    21dc:	00750250 	rsbseq	r0, r5, r0, asr r2
    21e0:	90b40c00 	adcsls	r0, r4, r0, lsl #24
    21e4:	08620000 	stmdaeq	r2!, {}^	; <UNPREDICTABLE>
    21e8:	010b0000 	mrseq	r0, (UNDEF: 11)
    21ec:	00750250 	rsbseq	r0, r5, r0, asr r2
    21f0:	c30f0000 	movwgt	r0, #61440	; 0xf000
    21f4:	01000007 	tsteq	r0, r7
    21f8:	000064b3 			; <UNDEFINED> instruction: 0x000064b3
    21fc:	0090c000 	addseq	ip, r0, r0
    2200:	00004c00 	andeq	r4, r0, r0, lsl #24
    2204:	ac9c0100 	ldfges	f0, [ip], {0}
    2208:	08000002 	stmdaeq	r0, {r1}
    220c:	006e6970 	rsbeq	r6, lr, r0, ror r9
    2210:	002cb301 	eoreq	fp, ip, r1, lsl #6
    2214:	15080000 	strne	r0, [r8, #-0]
    2218:	76100000 	ldrvc	r0, [r0], -r0
    221c:	2cb90100 	ldfcss	f0, [r9]
    2220:	60000000 	andvs	r0, r0, r0
    2224:	11000015 	tstne	r0, r5, lsl r0
    2228:	000090e0 	andeq	r9, r0, r0, ror #1
    222c:	00000841 	andeq	r0, r0, r1, asr #16
    2230:	0090f011 	addseq	pc, r0, r1, lsl r0	; <UNPREDICTABLE>
    2234:	00084100 	andeq	r4, r8, r0, lsl #2
    2238:	14070000 	strne	r0, [r7], #-0
    223c:	01000000 	mrseq	r0, (UNDEF: 0)
    2240:	00910cc5 	addseq	r0, r1, r5, asr #25
    2244:	00002400 	andeq	r2, r0, r0, lsl #8
    2248:	fc9c0100 	ldc2	1, cr0, [ip], {0}
    224c:	08000002 	stmdaeq	r0, {r1}
    2250:	006e6970 	rsbeq	r6, lr, r0, ror r9
    2254:	002cc501 	eoreq	ip, ip, r1, lsl #10
    2258:	15960000 	ldrne	r0, [r6]
    225c:	76080000 	strvc	r0, [r8], -r0
    2260:	2cc50100 	stfcse	f0, [r5], {0}
    2264:	d0000000 	andle	r0, r0, r0
    2268:	0a000015 	beq	22c4 <_start-0x5d3c>
    226c:	00009124 	andeq	r9, r0, r4, lsr #2
    2270:	0000013e 	andeq	r0, r0, lr, lsr r1
    2274:	000002f2 	strdeq	r0, [r0], -r2
    2278:	0350010b 	cmpeq	r0, #-1073741822	; 0xc0000002
    227c:	005001f3 	ldrsheq	r0, [r0], #-19	; 0xffffffed
    2280:	00912c11 	addseq	r2, r1, r1, lsl ip
    2284:	00019600 	andeq	r9, r1, r0, lsl #12
    2288:	e2070000 	and	r0, r7, #0
    228c:	01000007 	tsteq	r0, r7
    2290:	009130d1 	ldrsbeq	r3, [r1], r1
    2294:	0000d800 	andeq	sp, r0, r0, lsl #16
    2298:	819c0100 	orrshi	r0, ip, r0, lsl #2
    229c:	08000003 	stmdaeq	r0, {r0, r1}
    22a0:	006e6970 	rsbeq	r6, lr, r0, ror r9
    22a4:	002cd101 	eoreq	sp, ip, r1, lsl #2
    22a8:	160a0000 	strne	r0, [sl], -r0
    22ac:	26120000 	ldrcs	r0, [r2], -r0
    22b0:	01000008 	tsteq	r0, r8
    22b4:	0000b2d1 	ldrdeq	fp, [r0], -r1
    22b8:	00162800 	andseq	r2, r6, r0, lsl #16
    22bc:	07ae0900 	streq	r0, [lr, r0, lsl #18]!
    22c0:	d9010000 	stmdble	r1, {}	; <UNPREDICTABLE>
    22c4:	00000133 	andeq	r0, r0, r3, lsr r1
    22c8:	00001649 	andeq	r1, r0, r9, asr #12
    22cc:	0008d009 	andeq	sp, r8, r9
    22d0:	2cda0100 	ldfcse	f0, [sl], {0}
    22d4:	9e000000 	cdpls	0, 0, cr0, cr0, cr0, {0}
    22d8:	09000016 	stmdbeq	r0, {r1, r2, r4}
    22dc:	0000081e 	andeq	r0, r0, lr, lsl r8
    22e0:	002ce801 	eoreq	lr, ip, r1, lsl #16
    22e4:	186a0000 	stmdane	sl!, {}^	; <UNPREDICTABLE>
    22e8:	cc0a0000 	stcgt	0, cr0, [sl], {-0}
    22ec:	41000091 	swpmi	r0, r1, [r0]	; <UNPREDICTABLE>
    22f0:	70000008 	andvc	r0, r0, r8
    22f4:	0b000003 	bleq	2308 <_start-0x5cf8>
    22f8:	76025001 	strvc	r5, [r2], -r1
    22fc:	fc0c0000 	stc2	0, cr0, [ip], {-0}
    2300:	62000091 	andvs	r0, r0, #145	; 0x91
    2304:	0b000008 	bleq	232c <_start-0x5cd4>
    2308:	76025001 	strvc	r5, [r2], -r1
    230c:	07000000 	streq	r0, [r0, -r0]
    2310:	0000082b 	andeq	r0, r0, fp, lsr #16
    2314:	9208f101 	andls	pc, r8, #1073741824	; 0x40000000
    2318:	00380000 	eorseq	r0, r8, r0
    231c:	9c010000 	stcls	0, cr0, [r1], {-0}
    2320:	000003d9 	ldrdeq	r0, [r0], -r9
    2324:	6e697008 	cdpvs	0, 6, cr7, cr9, cr8, {0}
    2328:	2cf10100 	ldfcse	f0, [r1]
    232c:	9b000000 	blls	2334 <_start-0x5ccc>
    2330:	09000018 	stmdbeq	r0, {r3, r4}
    2334:	000007ae 	andeq	r0, r0, lr, lsr #15
    2338:	0133f701 	teqeq	r3, r1, lsl #14
    233c:	18bc0000 	ldmne	ip!, {}	; <UNPREDICTABLE>
    2340:	1e090000 	cdpne	0, 0, cr0, cr9, cr0, {0}
    2344:	01000008 	tsteq	r0, r8
    2348:	00002cf8 	strdeq	r2, [r0], -r8
    234c:	0018f200 	andseq	pc, r8, r0, lsl #4
    2350:	92380c00 	eorsls	r0, r8, #0, 24
    2354:	08620000 	stmdaeq	r2!, {}^	; <UNPREDICTABLE>
    2358:	010b0000 	mrseq	r0, (UNDEF: 11)
    235c:	f3310751 	vaba.u<illegal width 64>	q0, <illegal reg q0.5>, <illegal reg q0.5>
    2360:	1a4f5001 	bne	13d636c <__bss_end__+0x13cba74>
    2364:	13000024 	movwne	r0, #36	; 0x24
    2368:	00000772 	andeq	r0, r0, r2, ror r7
    236c:	64011f01 	strvs	r1, [r1], #-3841	; 0xf01
    2370:	40000000 	andmi	r0, r0, r0
    2374:	2c000092 	stccs	0, cr0, [r0], {146}	; 0x92
    2378:	01000000 	mrseq	r0, (UNDEF: 0)
    237c:	00040d9c 	muleq	r4, ip, sp
    2380:	07751400 	ldrbeq	r1, [r5, -r0, lsl #8]!
    2384:	1f010000 	svcne	0x00010000
    2388:	00002c01 	andeq	r2, r0, r1, lsl #24
    238c:	00193200 	andseq	r3, r9, r0, lsl #4
    2390:	92501100 	subsls	r1, r0, #0, 2
    2394:	08410000 	stmdaeq	r1, {}^	; <UNPREDICTABLE>
    2398:	15000000 	strne	r0, [r0, #-0]
    239c:	000007cd 	andeq	r0, r0, sp, asr #15
    23a0:	6c012e01 	stcvs	14, cr2, [r1], {1}
    23a4:	84000092 	strhi	r0, [r0], #-146	; 0x92
    23a8:	01000000 	mrseq	r0, (UNDEF: 0)
    23ac:	0004d19c 	muleq	r4, ip, r1
    23b0:	69701600 	ldmdbvs	r0!, {r9, sl, ip}^
    23b4:	2e01006e 	cdpcs	0, 0, cr0, cr1, cr14, {3}
    23b8:	00002c01 	andeq	r2, r0, r1, lsl #24
    23bc:	00195300 	andseq	r5, r9, r0, lsl #6
    23c0:	079c1700 	ldreq	r1, [ip, r0, lsl #14]
    23c4:	40010000 	andmi	r0, r1, r0
    23c8:	00002c01 	andeq	r2, r0, r1, lsl #24
    23cc:	00197f00 	andseq	r7, r9, r0, lsl #30
    23d0:	92881800 	addls	r1, r8, #0, 16
    23d4:	001c0000 	andseq	r0, ip, r0
    23d8:	04730000 	ldrbteq	r0, [r3], #-0
    23dc:	1e170000 	cdpne	0, 1, cr0, cr7, cr0, {0}
    23e0:	01000008 	tsteq	r0, r8
    23e4:	002c0137 	eoreq	r0, ip, r7, lsr r1
    23e8:	199d0000 	ldmibne	sp, {}	; <UNPREDICTABLE>
    23ec:	94110000 	ldrls	r0, [r1], #-0
    23f0:	41000092 	swpmi	r0, r2, [r0]	; <UNPREDICTABLE>
    23f4:	11000008 	tstne	r0, r8
    23f8:	000092a4 	andeq	r9, r0, r4, lsr #5
    23fc:	00000862 	andeq	r0, r0, r2, ror #16
    2400:	92a81800 	adcls	r1, r8, #0, 16
    2404:	00200000 	eoreq	r0, r0, r0
    2408:	04a30000 	strteq	r0, [r3], #0
    240c:	1e170000 	cdpne	0, 1, cr0, cr7, cr0, {0}
    2410:	01000008 	tsteq	r0, r8
    2414:	002c013b 	eoreq	r0, ip, fp, lsr r1
    2418:	19bb0000 	ldmibne	fp!, {}	; <UNPREDICTABLE>
    241c:	b4110000 	ldrlt	r0, [r1], #-0
    2420:	41000092 	swpmi	r0, r2, [r0]	; <UNPREDICTABLE>
    2424:	11000008 	tstne	r0, r8
    2428:	000092c8 	andeq	r9, r0, r8, asr #5
    242c:	00000862 	andeq	r0, r0, r2, ror #16
    2430:	92801100 	addls	r1, r0, #0, 2
    2434:	087e0000 	ldmdaeq	lr!, {}^	; <UNPREDICTABLE>
    2438:	cc110000 	ldcgt	0, cr0, [r1], {-0}
    243c:	7e000092 	mcrvc	0, 0, r0, cr0, cr2, {4}
    2440:	11000008 	tstne	r0, r8
    2444:	000092d8 	ldrdeq	r9, [r0], -r8
    2448:	00000841 	andeq	r0, r0, r1, asr #16
    244c:	0092e411 	addseq	lr, r2, r1, lsl r4
    2450:	00086200 	andeq	r6, r8, r0, lsl #4
    2454:	92e81100 	rscls	r1, r8, #0, 2
    2458:	087e0000 	ldmdaeq	lr!, {}^	; <UNPREDICTABLE>
    245c:	15000000 	strne	r0, [r0, #-0]
    2460:	000003a1 	andeq	r0, r0, r1, lsr #7
    2464:	f0014b01 			; <UNDEFINED> instruction: 0xf0014b01
    2468:	84000092 	strhi	r0, [r0], #-146	; 0x92
    246c:	01000000 	mrseq	r0, (UNDEF: 0)
    2470:	0005959c 	muleq	r5, ip, r5
    2474:	69701600 	ldmdbvs	r0!, {r9, sl, ip}^
    2478:	4b01006e 	blmi	42638 <__bss_end__+0x37d40>
    247c:	00002c01 	andeq	r2, r0, r1, lsl #24
    2480:	0019d900 	andseq	sp, r9, r0, lsl #18
    2484:	079c1700 	ldreq	r1, [ip, r0, lsl #14]
    2488:	5c010000 	stcpl	0, cr0, [r1], {-0}
    248c:	00002c01 	andeq	r2, r0, r1, lsl #24
    2490:	001a0500 	andseq	r0, sl, r0, lsl #10
    2494:	930c1800 	movwls	r1, #51200	; 0xc800
    2498:	001c0000 	andseq	r0, ip, r0
    249c:	05370000 	ldreq	r0, [r7, #-0]!
    24a0:	1e170000 	cdpne	0, 1, cr0, cr7, cr0, {0}
    24a4:	01000008 	tsteq	r0, r8
    24a8:	002c0153 	eoreq	r0, ip, r3, asr r1
    24ac:	1a230000 	bne	8c24b4 <__bss_end__+0x8b7bbc>
    24b0:	18110000 	ldmdane	r1, {}	; <UNPREDICTABLE>
    24b4:	41000093 	swpmi	r0, r3, [r0]	; <UNPREDICTABLE>
    24b8:	11000008 	tstne	r0, r8
    24bc:	00009328 	andeq	r9, r0, r8, lsr #6
    24c0:	00000862 	andeq	r0, r0, r2, ror #16
    24c4:	932c1800 	teqls	ip, #0, 16
    24c8:	00200000 	eoreq	r0, r0, r0
    24cc:	05670000 	strbeq	r0, [r7, #-0]!
    24d0:	1e170000 	cdpne	0, 1, cr0, cr7, cr0, {0}
    24d4:	01000008 	tsteq	r0, r8
    24d8:	002c0157 	eoreq	r0, ip, r7, asr r1
    24dc:	1a410000 	bne	10424e4 <__bss_end__+0x1037bec>
    24e0:	38110000 	ldmdacc	r1, {}	; <UNPREDICTABLE>
    24e4:	41000093 	swpmi	r0, r3, [r0]	; <UNPREDICTABLE>
    24e8:	11000008 	tstne	r0, r8
    24ec:	0000934c 	andeq	r9, r0, ip, asr #6
    24f0:	00000862 	andeq	r0, r0, r2, ror #16
    24f4:	93041100 	movwls	r1, #16640	; 0x4100
    24f8:	087e0000 	ldmdaeq	lr!, {}^	; <UNPREDICTABLE>
    24fc:	50110000 	andspl	r0, r1, r0
    2500:	7e000093 	mcrvc	0, 0, r0, cr0, cr3, {4}
    2504:	11000008 	tstne	r0, r8
    2508:	0000935c 	andeq	r9, r0, ip, asr r3
    250c:	00000841 	andeq	r0, r0, r1, asr #16
    2510:	00936811 	addseq	r6, r3, r1, lsl r8
    2514:	00086200 	andeq	r6, r8, r0, lsl #4
    2518:	936c1100 	cmnls	ip, #0, 2
    251c:	087e0000 	ldmdaeq	lr!, {}^	; <UNPREDICTABLE>
    2520:	13000000 	movwne	r0, #0
    2524:	0000074a 	andeq	r0, r0, sl, asr #14
    2528:	64016601 	strvs	r6, [r1], #-1537	; 0x601
    252c:	74000000 	strvc	r0, [r0], #-0
    2530:	84000093 	strhi	r0, [r0], #-147	; 0x93
    2534:	01000000 	mrseq	r0, (UNDEF: 0)
    2538:	00063b9c 	muleq	r6, ip, fp
    253c:	69701600 	ldmdbvs	r0!, {r9, sl, ip}^
    2540:	6601006e 	strvs	r0, [r1], -lr, rrx
    2544:	00002c01 	andeq	r2, r0, r1, lsl #24
    2548:	001a5f00 	andseq	r5, sl, r0, lsl #30
    254c:	93901800 	orrsls	r1, r0, #0, 16
    2550:	00240000 	eoreq	r0, r4, r0
    2554:	05ef0000 	strbeq	r0, [pc, #0]!	; 255c <_start-0x5aa4>
    2558:	a5170000 	ldrge	r0, [r7, #-0]
    255c:	01000007 	tsteq	r0, r7
    2560:	002c016d 	eoreq	r0, ip, sp, ror #2
    2564:	1aa10000 	bne	fe84256c <__bss_end__+0xfe837c74>
    2568:	9c110000 	ldcls	0, cr0, [r1], {-0}
    256c:	41000093 	swpmi	r0, r3, [r0]	; <UNPREDICTABLE>
    2570:	11000008 	tstne	r0, r8
    2574:	000093ac 	andeq	r9, r0, ip, lsr #7
    2578:	0000087e 	andeq	r0, r0, lr, ror r8
    257c:	93b41800 			; <UNDEFINED> instruction: 0x93b41800
    2580:	002c0000 	eoreq	r0, ip, r0
    2584:	06280000 	strteq	r0, [r8], -r0
    2588:	a5170000 	ldrge	r0, [r7, #-0]
    258c:	01000007 	tsteq	r0, r7
    2590:	002c0170 	eoreq	r0, ip, r0, ror r1
    2594:	1abb0000 	bne	feec259c <__bss_end__+0xfeeb7ca4>
    2598:	c0110000 	andsgt	r0, r1, r0
    259c:	41000093 	swpmi	r0, r3, [r0]	; <UNPREDICTABLE>
    25a0:	11000008 	tstne	r0, r8
    25a4:	000093cc 	andeq	r9, r0, ip, asr #7
    25a8:	0000087e 	andeq	r0, r0, lr, ror r8
    25ac:	0093d811 	addseq	sp, r3, r1, lsl r8
    25b0:	00087e00 	andeq	r7, r8, r0, lsl #28
    25b4:	88110000 	ldmdahi	r1, {}	; <UNPREDICTABLE>
    25b8:	7e000093 	mcrvc	0, 0, r0, cr0, cr3, {4}
    25bc:	11000008 	tstne	r0, r8
    25c0:	000093e4 	andeq	r9, r0, r4, ror #7
    25c4:	0000087e 	andeq	r0, r0, lr, ror r8
    25c8:	01421500 	cmpeq	r2, r0, lsl #10
    25cc:	79010000 	stmdbvc	r1, {}	; <UNPREDICTABLE>
    25d0:	0093f801 	addseq	pc, r3, r1, lsl #16
    25d4:	00005800 	andeq	r5, r0, r0, lsl #16
    25d8:	a09c0100 	addsge	r0, ip, r0, lsl #2
    25dc:	16000006 	strne	r0, [r0], -r6
    25e0:	006e6970 	rsbeq	r6, lr, r0, ror r9
    25e4:	2c017901 	stccs	9, cr7, [r1], {1}
    25e8:	ce000000 	cdpgt	0, 0, cr0, cr0, cr0, {0}
    25ec:	1100001a 	tstne	r0, sl, lsl r0
    25f0:	0000940c 	andeq	r9, r0, ip, lsl #8
    25f4:	0000087e 	andeq	r0, r0, lr, ror r8
    25f8:	0094280a 	addseq	r2, r4, sl, lsl #16
    25fc:	00086200 	andeq	r6, r8, r0, lsl #4
    2600:	00068000 	andeq	r8, r6, r0
    2604:	51010b00 	tstpl	r1, r0, lsl #22
    2608:	00743104 	rsbseq	r3, r4, r4, lsl #2
    260c:	440a0024 	strmi	r0, [sl], #-36	; 0x24
    2610:	62000094 	andvs	r0, r0, #148	; 0x94
    2614:	96000008 	strls	r0, [r0], -r8
    2618:	0b000006 	bleq	2638 <_start-0x59c8>
    261c:	31045101 	tstcc	r4, r1, lsl #2
    2620:	00240074 	eoreq	r0, r4, r4, ror r0
    2624:	00944811 	addseq	r4, r4, r1, lsl r8
    2628:	00087e00 	andeq	r7, r8, r0, lsl #28
    262c:	d8190000 	ldmdale	r9, {}	; <UNPREDICTABLE>
    2630:	01000001 	tsteq	r0, r1
    2634:	00013328 	andeq	r3, r1, r8, lsr #6
    2638:	f0030500 			; <UNDEFINED> instruction: 0xf0030500
    263c:	1900009f 	stmdbne	r0, {r0, r1, r2, r3, r4, r7}
    2640:	0000028e 	andeq	r0, r0, lr, lsl #5
    2644:	01332901 	teqeq	r3, r1, lsl #18
    2648:	03050000 	movweq	r0, #20480	; 0x5000
    264c:	00009fec 	andeq	r9, r0, ip, ror #31
    2650:	0003b719 	andeq	fp, r3, r9, lsl r7
    2654:	332a0100 	teqcc	sl, #0, 2
    2658:	05000001 	streq	r0, [r0, #-1]
    265c:	009fe803 	addseq	lr, pc, r3, lsl #16
    2660:	010f1900 	tsteq	pc, r0, lsl #18
    2664:	2c010000 	stccs	0, cr0, [r1], {-0}
    2668:	00000133 	andeq	r0, r0, r3, lsr r1
    266c:	9f940305 	svcls	0x00940305
    2670:	17190000 	ldrne	r0, [r9, -r0]
    2674:	01000001 	tsteq	r0, r1
    2678:	0001332d 	andeq	r3, r1, sp, lsr #6
    267c:	98030500 	stmdals	r3, {r8, sl}
    2680:	1900009f 	stmdbne	r0, {r0, r1, r2, r3, r4, r7}
    2684:	00000000 	andeq	r0, r0, r0
    2688:	01332e01 	teqeq	r3, r1, lsl #28
    268c:	03050000 	movweq	r0, #20480	; 0x5000
    2690:	00009f9c 	muleq	r0, ip, pc	; <UNPREDICTABLE>
    2694:	00011f19 	andeq	r1, r1, r9, lsl pc
    2698:	332f0100 	teqcc	pc, #0, 2
    269c:	05000001 	streq	r0, [r0, #-1]
    26a0:	009fa003 	addseq	sl, pc, r3
    26a4:	01271900 	teqeq	r7, r0, lsl #18
    26a8:	30010000 	andcc	r0, r1, r0
    26ac:	00000133 	andeq	r0, r0, r3, lsr r1
    26b0:	9fa40305 	svcls	0x00a40305
    26b4:	2f190000 	svccs	0x00190000
    26b8:	01000001 	tsteq	r0, r1
    26bc:	00013331 	andeq	r3, r1, r1, lsr r3
    26c0:	a8030500 	stmdage	r3, {r8, sl}
    26c4:	1900009f 	stmdbne	r0, {r0, r1, r2, r3, r4, r7}
    26c8:	00000265 	andeq	r0, r0, r5, ror #4
    26cc:	01333301 	teqeq	r3, r1, lsl #6
    26d0:	03050000 	movweq	r0, #20480	; 0x5000
    26d4:	00009fac 	andeq	r9, r0, ip, lsr #31
    26d8:	00009119 	andeq	r9, r0, r9, lsl r1
    26dc:	33340100 	teqcc	r4, #0, 2
    26e0:	05000001 	streq	r0, [r0, #-1]
    26e4:	009fb003 	addseq	fp, pc, r3
    26e8:	00081900 	andeq	r1, r8, r0, lsl #18
    26ec:	36010000 	strcc	r0, [r1], -r0
    26f0:	00000133 	andeq	r0, r0, r3, lsr r1
    26f4:	9fb40305 	svcls	0x00b40305
    26f8:	e3190000 	tst	r9, #0
    26fc:	01000001 	tsteq	r0, r1
    2700:	00013337 	andeq	r3, r1, r7, lsr r3
    2704:	b8030500 	stmdalt	r3, {r8, sl}
    2708:	1900009f 	stmdbne	r0, {r0, r1, r2, r3, r4, r7}
    270c:	000000b6 	strheq	r0, [r0], -r6
    2710:	01333901 	teqeq	r3, r1, lsl #18
    2714:	03050000 	movweq	r0, #20480	; 0x5000
    2718:	00009fbc 			; <UNDEFINED> instruction: 0x00009fbc
    271c:	0000bd19 	andeq	fp, r0, r9, lsl sp
    2720:	333a0100 	teqcc	sl, #0, 2
    2724:	05000001 	streq	r0, [r0, #-1]
    2728:	009fc003 	addseq	ip, pc, r3
    272c:	08021a00 	stmdaeq	r2, {r9, fp, ip}
    2730:	0a010000 	beq	42738 <__bss_end__+0x37e40>
    2734:	00013301 	andeq	r3, r1, r1, lsl #6
    2738:	e4030500 	str	r0, [r3], #-1280	; 0x500
    273c:	1a00009f 	bne	29c0 <_start-0x5640>
    2740:	00000810 	andeq	r0, r0, r0, lsl r8
    2744:	33010b01 	movwcc	r0, #6913	; 0x1b01
    2748:	05000001 	streq	r0, [r0, #-1]
    274c:	009fc403 	addseq	ip, pc, r3, lsl #8
    2750:	08371a00 	ldmdaeq	r7!, {r9, fp, ip}
    2754:	0d010000 	stceq	0, cr0, [r1, #-0]
    2758:	00013301 	andeq	r3, r1, r1, lsl #6
    275c:	dc030500 	cfstr32le	mvfx0, [r3], {-0}
    2760:	1a00009f 	bne	29e4 <_start-0x561c>
    2764:	0000083e 	andeq	r0, r0, lr, lsr r8
    2768:	33010e01 	movwcc	r0, #7681	; 0x1e01
    276c:	05000001 	streq	r0, [r0, #-1]
    2770:	009fe003 	addseq	lr, pc, r3
    2774:	07f41a00 	ldrbeq	r1, [r4, r0, lsl #20]!
    2778:	10010000 	andne	r0, r1, r0
    277c:	00013301 	andeq	r3, r1, r1, lsl #6
    2780:	c8030500 	stmdagt	r3, {r8, sl}
    2784:	1a00009f 	bne	2a08 <_start-0x55f8>
    2788:	000007fb 	strdeq	r0, [r0], -fp
    278c:	33011101 	movwcc	r1, #4353	; 0x1101
    2790:	05000001 	streq	r0, [r0, #-1]
    2794:	009fcc03 	addseq	ip, pc, r3, lsl #24
    2798:	08451a00 	stmdaeq	r5, {r9, fp, ip}^
    279c:	13010000 	movwne	r0, #4096	; 0x1000
    27a0:	00013301 	andeq	r3, r1, r1, lsl #6
    27a4:	d4030500 	strle	r0, [r3], #-1280	; 0x500
    27a8:	1a00009f 	bne	2a2c <_start-0x55d4>
    27ac:	0000084c 	andeq	r0, r0, ip, asr #16
    27b0:	33011401 	movwcc	r1, #5121	; 0x1401
    27b4:	05000001 	streq	r0, [r0, #-1]
    27b8:	009fd803 	addseq	sp, pc, r3, lsl #16
    27bc:	07641a00 	strbeq	r1, [r4, -r0, lsl #20]!
    27c0:	16010000 	strne	r0, [r1], -r0
    27c4:	00013301 	andeq	r3, r1, r1, lsl #6
    27c8:	d0030500 	andle	r0, r3, r0, lsl #10
    27cc:	1b00009f 	blne	2a50 <_start-0x55b0>
    27d0:	00000864 	andeq	r0, r0, r4, ror #16
    27d4:	002c2001 	eoreq	r2, ip, r1
    27d8:	08560000 	ldmdaeq	r6, {}^	; <UNPREDICTABLE>
    27dc:	561c0000 	ldrpl	r0, [ip], -r0
    27e0:	00000008 	andeq	r0, r0, r8
    27e4:	085c040d 	ldmdaeq	ip, {r0, r2, r3, sl}^
    27e8:	611d0000 	tstvs	sp, r0
    27ec:	1e000008 	cdpne	0, 0, cr0, cr0, cr8, {0}
    27f0:	00075e1f 	andeq	r5, r7, pc, lsl lr
    27f4:	781e0100 	ldmdavc	lr, {r8}
    27f8:	1c000008 	stcne	0, cr0, [r0], {8}
    27fc:	00000878 	andeq	r0, r0, r8, ror r8
    2800:	00002c1c 	andeq	r2, r0, ip, lsl ip
    2804:	040d0000 	streq	r0, [sp], #-0
    2808:	00000861 	andeq	r0, r0, r1, ror #16
    280c:	0007b720 	andeq	fp, r7, r0, lsr #14
    2810:	008a0300 	addeq	r0, sl, r0, lsl #6
    2814:	000011f2 	strdeq	r1, [r0], -r2
    2818:	0d260004 	stceq	0, cr0, [r6, #-16]!
    281c:	01040000 	mrseq	r0, (UNDEF: 4)
    2820:	000002ac 	andeq	r0, r0, ip, lsr #5
    2824:	00097001 	andeq	r7, r9, r1
    2828:	00042900 	andeq	r2, r4, r0, lsl #18
    282c:	00945000 	addseq	r5, r4, r0
    2830:	00066800 	andeq	r6, r6, r0, lsl #16
    2834:	000bf900 	andeq	pc, fp, r0, lsl #18
    2838:	05040200 	streq	r0, [r4, #-512]	; 0x200
    283c:	00746e69 	rsbseq	r6, r4, r9, ror #28
    2840:	44070403 	strmi	r0, [r7], #-1027	; 0x403
    2844:	03000000 	movweq	r0, #0
    2848:	02530601 	subseq	r0, r3, #1048576	; 0x100000
    284c:	02030000 	andeq	r0, r3, #0
    2850:	00026c05 	andeq	r6, r2, r5, lsl #24
    2854:	05040300 	streq	r0, [r4, #-768]	; 0x300
    2858:	00000067 	andeq	r0, r0, r7, rrx
    285c:	62050803 	andvs	r0, r5, #196608	; 0x30000
    2860:	04000000 	streq	r0, [r0], #-0
    2864:	00000399 	muleq	r0, r9, r3
    2868:	005a2e03 	subseq	r2, sl, r3, lsl #28
    286c:	01030000 	mrseq	r0, (UNDEF: 3)
    2870:	00025108 	andeq	r5, r2, r8, lsl #2
    2874:	07020300 	streq	r0, [r2, -r0, lsl #6]
    2878:	00000160 	andeq	r0, r0, r0, ror #2
    287c:	00066904 	andeq	r6, r6, r4, lsl #18
    2880:	73340300 	teqvc	r4, #0, 6
    2884:	03000000 	movweq	r0, #0
    2888:	003f0704 	eorseq	r0, pc, r4, lsl #14
    288c:	08030000 	stmdaeq	r3, {}	; <UNPREDICTABLE>
    2890:	00003a07 	andeq	r3, r0, r7, lsl #20
    2894:	07040300 	streq	r0, [r4, -r0, lsl #6]
    2898:	000001f7 	strdeq	r0, [r0], -r7
    289c:	04060405 	streq	r0, [r6], #-1029	; 0x405
    28a0:	00000090 	muleq	r0, r0, r0
    28a4:	5a080103 	bpl	202cb8 <__bss_end__+0x1f83c0>
    28a8:	06000002 	streq	r0, [r0], -r2
    28ac:	00009d04 	andeq	r9, r0, r4, lsl #26
    28b0:	00900700 	addseq	r0, r0, r0, lsl #14
    28b4:	0c080000 	stceq	0, cr0, [r8], {-0}
    28b8:	00d90e04 	sbcseq	r0, r9, r4, lsl #28
    28bc:	74090000 	strvc	r0, [r9], #-0
    28c0:	0f040078 	svceq	0x00040078
    28c4:	0000004f 	andeq	r0, r0, pc, asr #32
    28c8:	78720900 	ldmdavc	r2!, {r8, fp}^
    28cc:	4f0f0400 	svcmi	0x000f0400
    28d0:	01000000 	mrseq	r0, (UNDEF: 0)
    28d4:	0005e80a 	andeq	lr, r5, sl, lsl #16
    28d8:	68100400 	ldmdavs	r0, {sl}
    28dc:	04000000 	streq	r0, [r0], #-0
    28e0:	0005990a 	andeq	r9, r5, sl, lsl #18
    28e4:	68110400 	ldmdavs	r1, {sl}
    28e8:	08000000 	stmdaeq	r0, {}	; <UNPREDICTABLE>
    28ec:	05d10400 	ldrbeq	r0, [r1, #1024]	; 0x400
    28f0:	12040000 	andne	r0, r4, #0
    28f4:	000000a2 	andeq	r0, r0, r2, lsr #1
    28f8:	0003f804 	andeq	pc, r3, r4, lsl #16
    28fc:	ef280500 	svc	0x00280500
    2900:	0b000000 	bleq	2908 <_start-0x56f8>
    2904:	0000041f 	andeq	r0, r0, pc, lsl r4
    2908:	06000904 	streq	r0, [r0], -r4, lsl #18
    290c:	0c000001 	stceq	0, cr0, [r0], {1}
    2910:	00000472 	andeq	r0, r0, r2, ror r4
    2914:	00000088 	andeq	r0, r0, r8, lsl #1
    2918:	21040000 	mrscs	r0, (UNDEF: 4)
    291c:	05000004 	streq	r0, [r0, #-4]
    2920:	0000e462 	andeq	lr, r0, r2, ror #8
    2924:	09340d00 	ldmdbeq	r4!, {r8, sl, fp}
    2928:	09020000 	stmdbeq	r2, {}	; <UNPREDICTABLE>
    292c:	00013f03 	andeq	r3, r1, r3, lsl #30
    2930:	05fc0e00 	ldrbeq	r0, [ip, #3584]!	; 0xe00
    2934:	09020000 	stmdbeq	r2, {}	; <UNPREDICTABLE>
    2938:	0000002c 	andeq	r0, r0, ip, lsr #32
    293c:	02006e0f 	andeq	r6, r0, #15, 28	; 0xf0
    2940:	00002c09 	andeq	r2, r0, r9, lsl #24
    2944:	28111000 	ldmdacs	r1, {ip}
    2948:	02000002 	andeq	r0, r0, #2
    294c:	00002c0c 	andeq	r2, r0, ip, lsl #24
    2950:	0d000000 	stceq	0, cr0, [r0, #-0]
    2954:	000008e7 	andeq	r0, r0, r7, ror #17
    2958:	76031702 	strvc	r1, [r3], -r2, lsl #14
    295c:	0f000001 	svceq	0x00000001
    2960:	006e6970 	rsbeq	r6, lr, r0, ror r9
    2964:	002c1702 	eoreq	r1, ip, r2, lsl #14
    2968:	760f0000 	strvc	r0, [pc], -r0
    296c:	2c170200 	lfmcs	f0, 4, [r7], {-0}
    2970:	0e000000 	cdpeq	0, 0, cr0, cr0, cr0, {0}
    2974:	000005fc 	strdeq	r0, [r0], -ip
    2978:	002c1702 	eoreq	r1, ip, r2, lsl #14
    297c:	3a0e0000 	bcc	382984 <__bss_end__+0x37808c>
    2980:	02000009 	andeq	r0, r0, #9
    2984:	00002c17 	andeq	r2, r0, r7, lsl ip
    2988:	0d120000 	ldceq	0, cr0, [r2, #-0]
    298c:	01000006 	tsteq	r0, r6
    2990:	00945009 	addseq	r5, r4, r9
    2994:	00015400 	andeq	r5, r1, r0, lsl #8
    2998:	229c0100 	addscs	r0, ip, #0, 2
    299c:	13000007 	movwne	r0, #7
    29a0:	000005af 	andeq	r0, r0, pc, lsr #11
    29a4:	07220901 	streq	r0, [r2, -r1, lsl #18]!
    29a8:	1afa0000 	bne	ffe829b0 <__bss_end__+0xffe780b8>
    29ac:	63140000 	tstvs	r4, #0
    29b0:	5a090100 	bpl	242db8 <__bss_end__+0x2384c0>
    29b4:	1b000000 	blne	29bc <_start-0x5644>
    29b8:	1500001b 	strne	r0, [r0, #-27]
    29bc:	01007874 	tsteq	r0, r4, ror r8
    29c0:	0000250b 	andeq	r2, r0, fp, lsl #10
    29c4:	00760600 	rsbseq	r0, r6, r0, lsl #12
    29c8:	9f1aff08 	svcls	0x001aff08
    29cc:	01006e16 	tsteq	r0, r6, lsl lr
    29d0:	0000680c 	andeq	r6, r0, ip, lsl #16
    29d4:	001b3c00 	andseq	r3, fp, r0, lsl #24
    29d8:	00751600 	rsbseq	r1, r5, r0, lsl #12
    29dc:	00680d01 	rsbeq	r0, r8, r1, lsl #26
    29e0:	1b4f0000 	blne	13c29e8 <__bss_end__+0x13b80f0>
    29e4:	73150000 	tstvc	r5, #0
    29e8:	680e0100 	stmdavs	lr, {r8}
    29ec:	01000000 	mrseq	r0, (UNDEF: 0)
    29f0:	94601754 	strbtls	r1, [r0], #-1876	; 0x754
    29f4:	00040000 	andeq	r0, r4, r0
    29f8:	01f80000 	mvnseq	r0, r0
    29fc:	28180000 	ldmdacs	r8, {}	; <UNPREDICTABLE>
    2a00:	01000002 	tsteq	r0, r2
    2a04:	00002c0e 	andeq	r2, r0, lr, lsl #24
    2a08:	00540100 	subseq	r0, r4, r0, lsl #2
    2a0c:	00013f19 	andeq	r3, r1, r9, lsl pc
    2a10:	00946400 	addseq	r6, r4, r0, lsl #8
    2a14:	00001c00 	andeq	r1, r0, r0, lsl #24
    2a18:	75110100 	ldrvc	r0, [r1, #-256]	; 0x100
    2a1c:	1a000002 	bne	2a2c <_start-0x55d4>
    2a20:	0000016a 	andeq	r0, r0, sl, ror #2
    2a24:	00001b78 	andeq	r1, r0, r8, ror fp
    2a28:	00015f1b 	andeq	r5, r1, fp, lsl pc
    2a2c:	1c540100 	ldfnee	f0, [r4], {-0}
    2a30:	00000156 	andeq	r0, r0, r6, asr r1
    2a34:	014b1b00 	cmpeq	fp, r0, lsl #22
    2a38:	56010000 	strpl	r0, [r1], -r0
    2a3c:	00011119 	andeq	r1, r1, r9, lsl r1
    2a40:	00947000 	addseq	r7, r4, r0
    2a44:	00001000 	andeq	r1, r0, r0
    2a48:	5f1a0200 	svcpl	0x001a0200
    2a4c:	1a000002 	bne	2a5c <_start-0x55a4>
    2a50:	00000128 	andeq	r0, r0, r8, lsr #2
    2a54:	00001b8b 	andeq	r1, r0, fp, lsl #23
    2a58:	00011d1b 	andeq	r1, r1, fp, lsl sp
    2a5c:	1d540100 	ldfnee	f0, [r4, #-0]
    2a60:	00009470 	andeq	r9, r0, r0, ror r4
    2a64:	00000004 	andeq	r0, r0, r4
    2a68:	0001321e 	andeq	r3, r1, lr, lsl r2
    2a6c:	001b9e00 	andseq	r9, fp, r0, lsl #28
    2a70:	1f000000 	svcne	0x00000000
    2a74:	00009470 	andeq	r9, r0, r0, ror r4
    2a78:	00001159 	andeq	r1, r0, r9, asr r1
    2a7c:	01510120 	cmpeq	r1, r0, lsr #2
    2a80:	50012030 	andpl	r2, r1, r0, lsr r0
    2a84:	00007602 	andeq	r7, r0, r2, lsl #12
    2a88:	013f1900 	teqeq	pc, r0, lsl #18
    2a8c:	94840000 	strls	r0, [r4], #0
    2a90:	001c0000 	andseq	r0, ip, r0
    2a94:	13010000 	movwne	r0, #4096	; 0x1000
    2a98:	000002f8 	strdeq	r0, [r0], -r8
    2a9c:	00016a1a 	andeq	r6, r1, sl, lsl sl
    2aa0:	001bb100 	andseq	fp, fp, r0, lsl #2
    2aa4:	015f1b00 	cmpeq	pc, r0, lsl #22
    2aa8:	54010000 	strpl	r0, [r1], #-0
    2aac:	0001561a 	andeq	r5, r1, sl, lsl r6
    2ab0:	001bd300 	andseq	sp, fp, r0, lsl #6
    2ab4:	014b1b00 	cmpeq	fp, r0, lsl #22
    2ab8:	56010000 	strpl	r0, [r1], -r0
    2abc:	00011119 	andeq	r1, r1, r9, lsl r1
    2ac0:	00949000 	addseq	r9, r4, r0
    2ac4:	00001000 	andeq	r1, r0, r0
    2ac8:	df1a0200 	svcle	0x001a0200
    2acc:	1a000002 	bne	2adc <_start-0x5524>
    2ad0:	00000128 	andeq	r0, r0, r8, lsr #2
    2ad4:	00001c04 	andeq	r1, r0, r4, lsl #24
    2ad8:	00011d1b 	andeq	r1, r1, fp, lsl sp
    2adc:	1d540100 	ldfnee	f0, [r4, #-0]
    2ae0:	00009490 	muleq	r0, r0, r4
    2ae4:	00000004 	andeq	r0, r0, r4
    2ae8:	0001321e 	andeq	r3, r1, lr, lsl r2
    2aec:	001c2600 	andseq	r2, ip, r0, lsl #12
    2af0:	1f000000 	svcne	0x00000000
    2af4:	00009490 	muleq	r0, r0, r4
    2af8:	00001159 	andeq	r1, r0, r9, asr r1
    2afc:	04510120 	ldrbeq	r0, [r1], #-288	; 0x120
    2b00:	1a310077 	bne	c42ce4 <__bss_end__+0xc383ec>
    2b04:	02500120 	subseq	r0, r0, #32, 2
    2b08:	00000076 	andeq	r0, r0, r6, ror r0
    2b0c:	00013f19 	andeq	r3, r1, r9, lsl pc
    2b10:	0094a400 	addseq	sl, r4, r0, lsl #8
    2b14:	00001c00 	andeq	r1, r0, r0, lsl #24
    2b18:	80150100 	andshi	r0, r5, r0, lsl #2
    2b1c:	1a000003 	bne	2b30 <_start-0x54d0>
    2b20:	0000016a 	andeq	r0, r0, sl, ror #2
    2b24:	00001c39 	andeq	r1, r0, r9, lsr ip
    2b28:	00015f1b 	andeq	r5, r1, fp, lsl pc
    2b2c:	1b540100 	blne	1502f34 <__bss_end__+0x14f863c>
    2b30:	00000156 	andeq	r0, r0, r6, asr r1
    2b34:	32007708 	andcc	r7, r0, #8, 14	; 0x200000
    2b38:	1aff081a 	bne	fffc4ba8 <__bss_end__+0xfffba2b0>
    2b3c:	014b1b9f 			; <UNDEFINED> instruction: 0x014b1b9f
    2b40:	56010000 	strpl	r0, [r1], -r0
    2b44:	00011119 	andeq	r1, r1, r9, lsl r1
    2b48:	0094b000 	addseq	fp, r4, r0
    2b4c:	00001000 	andeq	r1, r0, r0
    2b50:	671a0200 	ldrvs	r0, [sl, -r0, lsl #4]
    2b54:	1a000003 	bne	2b68 <_start-0x5498>
    2b58:	00000128 	andeq	r0, r0, r8, lsr #2
    2b5c:	00001c5e 	andeq	r1, r0, lr, asr ip
    2b60:	00011d1b 	andeq	r1, r1, fp, lsl sp
    2b64:	1d540100 	ldfnee	f0, [r4, #-0]
    2b68:	000094b0 			; <UNDEFINED> instruction: 0x000094b0
    2b6c:	00000004 	andeq	r0, r0, r4
    2b70:	0001321e 	andeq	r3, r1, lr, lsl r2
    2b74:	001c8300 	andseq	r8, ip, r0, lsl #6
    2b78:	1f000000 	svcne	0x00000000
    2b7c:	000094b0 			; <UNDEFINED> instruction: 0x000094b0
    2b80:	00001159 	andeq	r1, r0, r9, asr r1
    2b84:	04510120 	ldrbeq	r0, [r1], #-288	; 0x120
    2b88:	1a320077 	bne	c82d6c <__bss_end__+0xc78474>
    2b8c:	02500120 	subseq	r0, r0, #32, 2
    2b90:	00000076 	andeq	r0, r0, r6, ror r0
    2b94:	00013f19 	andeq	r3, r1, r9, lsl pc
    2b98:	0094c400 	addseq	ip, r4, r0, lsl #8
    2b9c:	00001c00 	andeq	r1, r0, r0, lsl #24
    2ba0:	08170100 	ldmdaeq	r7, {r8}
    2ba4:	1a000004 	bne	2bbc <_start-0x5444>
    2ba8:	0000016a 	andeq	r0, r0, sl, ror #2
    2bac:	00001c96 	muleq	r0, r6, ip
    2bb0:	00015f1b 	andeq	r5, r1, fp, lsl pc
    2bb4:	1b540100 	blne	1502fbc <__bss_end__+0x14f86c4>
    2bb8:	00000156 	andeq	r0, r0, r6, asr r1
    2bbc:	34007708 	strcc	r7, [r0], #-1800	; 0x708
    2bc0:	1aff081a 	bne	fffc4c30 <__bss_end__+0xfffba338>
    2bc4:	014b1b9f 			; <UNDEFINED> instruction: 0x014b1b9f
    2bc8:	56010000 	strpl	r0, [r1], -r0
    2bcc:	00011119 	andeq	r1, r1, r9, lsl r1
    2bd0:	0094d000 	addseq	sp, r4, r0
    2bd4:	00001000 	andeq	r1, r0, r0
    2bd8:	ef1a0200 	svc	0x001a0200
    2bdc:	1a000003 	bne	2bf0 <_start-0x5410>
    2be0:	00000128 	andeq	r0, r0, r8, lsr #2
    2be4:	00001cb8 			; <UNDEFINED> instruction: 0x00001cb8
    2be8:	00011d1b 	andeq	r1, r1, fp, lsl sp
    2bec:	1d540100 	ldfnee	f0, [r4, #-0]
    2bf0:	000094d0 	ldrdeq	r9, [r0], -r0
    2bf4:	00000004 	andeq	r0, r0, r4
    2bf8:	0001321e 	andeq	r3, r1, lr, lsl r2
    2bfc:	001cda00 	andseq	sp, ip, r0, lsl #20
    2c00:	1f000000 	svcne	0x00000000
    2c04:	000094d0 	ldrdeq	r9, [r0], -r0
    2c08:	00001159 	andeq	r1, r0, r9, asr r1
    2c0c:	04510120 	ldrbeq	r0, [r1], #-288	; 0x120
    2c10:	1a340077 	bne	d02df4 <__bss_end__+0xcf84fc>
    2c14:	02500120 	subseq	r0, r0, #32, 2
    2c18:	00000076 	andeq	r0, r0, r6, ror r0
    2c1c:	00013f19 	andeq	r3, r1, r9, lsl pc
    2c20:	0094e400 	addseq	lr, r4, r0, lsl #8
    2c24:	00001c00 	andeq	r1, r0, r0, lsl #24
    2c28:	90190100 	andsls	r0, r9, r0, lsl #2
    2c2c:	1a000004 	bne	2c44 <_start-0x53bc>
    2c30:	0000016a 	andeq	r0, r0, sl, ror #2
    2c34:	00001ced 	andeq	r1, r0, sp, ror #25
    2c38:	00015f1b 	andeq	r5, r1, fp, lsl pc
    2c3c:	1b540100 	blne	1503044 <__bss_end__+0x14f874c>
    2c40:	00000156 	andeq	r0, r0, r6, asr r1
    2c44:	38007708 	stmdacc	r0, {r3, r8, r9, sl, ip, sp, lr}
    2c48:	1aff081a 	bne	fffc4cb8 <__bss_end__+0xfffba3c0>
    2c4c:	014b1b9f 			; <UNDEFINED> instruction: 0x014b1b9f
    2c50:	56010000 	strpl	r0, [r1], -r0
    2c54:	00011119 	andeq	r1, r1, r9, lsl r1
    2c58:	0094f000 	addseq	pc, r4, r0
    2c5c:	00001000 	andeq	r1, r0, r0
    2c60:	771a0200 	ldrvc	r0, [sl, -r0, lsl #4]
    2c64:	1a000004 	bne	2c7c <_start-0x5384>
    2c68:	00000128 	andeq	r0, r0, r8, lsr #2
    2c6c:	00001d12 	andeq	r1, r0, r2, lsl sp
    2c70:	00011d1b 	andeq	r1, r1, fp, lsl sp
    2c74:	1d540100 	ldfnee	f0, [r4, #-0]
    2c78:	000094f0 	strdeq	r9, [r0], -r0
    2c7c:	00000004 	andeq	r0, r0, r4
    2c80:	0001321e 	andeq	r3, r1, lr, lsl r2
    2c84:	001d3700 	andseq	r3, sp, r0, lsl #14
    2c88:	1f000000 	svcne	0x00000000
    2c8c:	000094f0 	strdeq	r9, [r0], -r0
    2c90:	00001159 	andeq	r1, r0, r9, asr r1
    2c94:	04510120 	ldrbeq	r0, [r1], #-288	; 0x120
    2c98:	1a380077 	bne	e02e7c <__bss_end__+0xdf8584>
    2c9c:	02500120 	subseq	r0, r0, #32, 2
    2ca0:	00000076 	andeq	r0, r0, r6, ror r0
    2ca4:	00013f19 	andeq	r3, r1, r9, lsl pc
    2ca8:	00950400 	addseq	r0, r5, r0, lsl #8
    2cac:	00001c00 	andeq	r1, r0, r0, lsl #24
    2cb0:	181b0100 	ldmdane	fp, {r8}
    2cb4:	1a000005 	bne	2cd0 <_start-0x5330>
    2cb8:	0000016a 	andeq	r0, r0, sl, ror #2
    2cbc:	00001d4a 	andeq	r1, r0, sl, asr #26
    2cc0:	00015f1b 	andeq	r5, r1, fp, lsl pc
    2cc4:	1b540100 	blne	15030cc <__bss_end__+0x14f87d4>
    2cc8:	00000156 	andeq	r0, r0, r6, asr r1
    2ccc:	40007708 	andmi	r7, r0, r8, lsl #14
    2cd0:	1aff081a 	bne	fffc4d40 <__bss_end__+0xfffba448>
    2cd4:	014b1b9f 			; <UNDEFINED> instruction: 0x014b1b9f
    2cd8:	56010000 	strpl	r0, [r1], -r0
    2cdc:	00011119 	andeq	r1, r1, r9, lsl r1
    2ce0:	00951000 	addseq	r1, r5, r0
    2ce4:	00001000 	andeq	r1, r0, r0
    2ce8:	ff1a0200 			; <UNDEFINED> instruction: 0xff1a0200
    2cec:	1a000004 	bne	2d04 <_start-0x52fc>
    2cf0:	00000128 	andeq	r0, r0, r8, lsr #2
    2cf4:	00001d71 	andeq	r1, r0, r1, ror sp
    2cf8:	00011d1b 	andeq	r1, r1, fp, lsl sp
    2cfc:	1d540100 	ldfnee	f0, [r4, #-0]
    2d00:	00009510 	andeq	r9, r0, r0, lsl r5
    2d04:	00000004 	andeq	r0, r0, r4
    2d08:	0001321e 	andeq	r3, r1, lr, lsl r2
    2d0c:	001d9800 	andseq	r9, sp, r0, lsl #16
    2d10:	1f000000 	svcne	0x00000000
    2d14:	00009510 	andeq	r9, r0, r0, lsl r5
    2d18:	00001159 	andeq	r1, r0, r9, asr r1
    2d1c:	04510120 	ldrbeq	r0, [r1], #-288	; 0x120
    2d20:	1a400077 	bne	1002f04 <__bss_end__+0xff860c>
    2d24:	02500120 	subseq	r0, r0, #32, 2
    2d28:	00000076 	andeq	r0, r0, r6, ror r0
    2d2c:	00013f19 	andeq	r3, r1, r9, lsl pc
    2d30:	00952400 	addseq	r2, r5, r0, lsl #8
    2d34:	00001c00 	andeq	r1, r0, r0, lsl #24
    2d38:	a21d0100 	andsge	r0, sp, #0, 2
    2d3c:	1a000005 	bne	2d58 <_start-0x52a8>
    2d40:	0000016a 	andeq	r0, r0, sl, ror #2
    2d44:	00001dab 	andeq	r1, r0, fp, lsr #27
    2d48:	00015f1b 	andeq	r5, r1, fp, lsl pc
    2d4c:	1b540100 	blne	1503154 <__bss_end__+0x14f885c>
    2d50:	00000156 	andeq	r0, r0, r6, asr r1
    2d54:	08007709 	stmdaeq	r0, {r0, r3, r8, r9, sl, ip, sp, lr}
    2d58:	ff081a20 			; <UNDEFINED> instruction: 0xff081a20
    2d5c:	4b1b9f1a 	blmi	6ea9cc <__bss_end__+0x6e00d4>
    2d60:	01000001 	tsteq	r0, r1
    2d64:	01111956 	tsteq	r1, r6, asr r9
    2d68:	95300000 	ldrls	r0, [r0, #-0]!
    2d6c:	00100000 	andseq	r0, r0, r0
    2d70:	1a020000 	bne	82d78 <__bss_end__+0x78480>
    2d74:	00000588 	andeq	r0, r0, r8, lsl #11
    2d78:	0001281a 	andeq	r2, r1, sl, lsl r8
    2d7c:	001dd500 	andseq	sp, sp, r0, lsl #10
    2d80:	011d1b00 	tsteq	sp, r0, lsl #22
    2d84:	54010000 	strpl	r0, [r1], #-0
    2d88:	0095301d 	addseq	r3, r5, sp, lsl r0
    2d8c:	00000400 	andeq	r0, r0, r0, lsl #8
    2d90:	01321e00 	teqeq	r2, r0, lsl #28
    2d94:	1dff0000 	ldclne	0, cr0, [pc]	; 2d9c <_start-0x5264>
    2d98:	00000000 	andeq	r0, r0, r0
    2d9c:	0095301f 	addseq	r3, r5, pc, lsl r0
    2da0:	00115900 	andseq	r5, r1, r0, lsl #18
    2da4:	51012000 	mrspl	r2, (UNDEF: 1)
    2da8:	08007705 	stmdaeq	r0, {r0, r2, r8, r9, sl, ip, sp, lr}
    2dac:	01201a20 	teqeq	r0, r0, lsr #20
    2db0:	00760250 	rsbseq	r0, r6, r0, asr r2
    2db4:	3f190000 	svccc	0x00190000
    2db8:	44000001 	strmi	r0, [r0], #-1
    2dbc:	1c000095 	stcne	0, cr0, [r0], {149}	; 0x95
    2dc0:	01000000 	mrseq	r0, (UNDEF: 0)
    2dc4:	00062c1f 	andeq	r2, r6, pc, lsl ip
    2dc8:	016a1a00 	cmneq	sl, r0, lsl #20
    2dcc:	1e120000 	cdpne	0, 1, cr0, cr2, cr0, {0}
    2dd0:	5f1b0000 	svcpl	0x001b0000
    2dd4:	01000001 	tsteq	r0, r1
    2dd8:	01561b54 	cmpeq	r6, r4, asr fp
    2ddc:	77090000 	strvc	r0, [r9, -r0]
    2de0:	1a400800 	bne	1004de8 <__bss_end__+0xffa4f0>
    2de4:	9f1aff08 	svcls	0x001aff08
    2de8:	00014b1b 	andeq	r4, r1, fp, lsl fp
    2dec:	19560100 	ldmdbne	r6, {r8}^
    2df0:	00000111 	andeq	r0, r0, r1, lsl r1
    2df4:	00009550 	andeq	r9, r0, r0, asr r5
    2df8:	00000010 	andeq	r0, r0, r0, lsl r0
    2dfc:	06121a02 	ldreq	r1, [r2], -r2, lsl #20
    2e00:	281a0000 	ldmdacs	sl, {}	; <UNPREDICTABLE>
    2e04:	34000001 	strcc	r0, [r0], #-1
    2e08:	1b00001e 	blne	2e88 <_start-0x5178>
    2e0c:	0000011d 	andeq	r0, r0, sp, lsl r1
    2e10:	501d5401 	andspl	r5, sp, r1, lsl #8
    2e14:	04000095 	streq	r0, [r0], #-149	; 0x95
    2e18:	1e000000 	cdpne	0, 0, cr0, cr0, cr0, {0}
    2e1c:	00000132 	andeq	r0, r0, r2, lsr r1
    2e20:	00001e56 	andeq	r1, r0, r6, asr lr
    2e24:	501f0000 	andspl	r0, pc, r0
    2e28:	59000095 	stmdbpl	r0, {r0, r2, r4, r7}
    2e2c:	20000011 	andcs	r0, r0, r1, lsl r0
    2e30:	77055101 	strvc	r5, [r5, -r1, lsl #2]
    2e34:	1a400800 	bne	1004e3c <__bss_end__+0xffa544>
    2e38:	02500120 	subseq	r0, r0, #32, 2
    2e3c:	00000076 	andeq	r0, r0, r6, ror r0
    2e40:	00013f19 	andeq	r3, r1, r9, lsl pc
    2e44:	00956400 	addseq	r6, r5, r0, lsl #8
    2e48:	00001c00 	andeq	r1, r0, r0, lsl #24
    2e4c:	ac210100 	stfges	f0, [r1], #-0
    2e50:	1b000006 	blne	2e70 <_start-0x5190>
    2e54:	0000016a 	andeq	r0, r0, sl, ror #2
    2e58:	5f1b5801 	svcpl	0x001b5801
    2e5c:	01000001 	tsteq	r0, r1
    2e60:	01561a54 	cmpeq	r6, r4, asr sl
    2e64:	1e690000 	cdpne	0, 6, cr0, cr9, cr0, {0}
    2e68:	4b1b0000 	blmi	6c2e70 <__bss_end__+0x6b8578>
    2e6c:	01000001 	tsteq	r0, r1
    2e70:	01111956 	tsteq	r1, r6, asr r9
    2e74:	95700000 	ldrbls	r0, [r0, #-0]!
    2e78:	00100000 	andseq	r0, r0, r0
    2e7c:	1a020000 	bne	82e84 <__bss_end__+0x7858c>
    2e80:	00000692 	muleq	r0, r2, r6
    2e84:	0001281b 	andeq	r2, r1, fp, lsl r8
    2e88:	1b580100 	blne	1603290 <__bss_end__+0x15f8998>
    2e8c:	0000011d 	andeq	r0, r0, sp, lsl r1
    2e90:	701d5401 	andsvc	r5, sp, r1, lsl #8
    2e94:	04000095 	streq	r0, [r0], #-149	; 0x95
    2e98:	1e000000 	cdpne	0, 0, cr0, cr0, cr0, {0}
    2e9c:	00000132 	andeq	r0, r0, r2, lsr r1
    2ea0:	00001e9c 	muleq	r0, ip, lr
    2ea4:	701f0000 	andsvc	r0, pc, r0
    2ea8:	59000095 	stmdbpl	r0, {r0, r2, r4, r7}
    2eac:	20000011 	andcs	r0, r0, r1, lsl r0
    2eb0:	77055101 	strvc	r5, [r5, -r1, lsl #2]
    2eb4:	1a800800 	bne	fe004ebc <__bss_end__+0xfdffa5c4>
    2eb8:	02500120 	subseq	r0, r0, #32, 2
    2ebc:	00000076 	andeq	r0, r0, r6, ror r0
    2ec0:	00013f21 	andeq	r3, r1, r1, lsr #30
    2ec4:	00958400 	addseq	r8, r5, r0, lsl #8
    2ec8:	00001c00 	andeq	r1, r0, r0, lsl #24
    2ecc:	1b230100 	blne	8c32d4 <__bss_end__+0x8b89dc>
    2ed0:	0000016a 	andeq	r0, r0, sl, ror #2
    2ed4:	5f1b5501 	svcpl	0x001b5501
    2ed8:	01000001 	tsteq	r0, r1
    2edc:	01561c54 	cmpeq	r6, r4, asr ip
    2ee0:	1b010000 	blne	42ee8 <__bss_end__+0x385f0>
    2ee4:	0000014b 	andeq	r0, r0, fp, asr #2
    2ee8:	11195601 	tstne	r9, r1, lsl #12
    2eec:	90000001 	andls	r0, r0, r1
    2ef0:	10000095 	mulne	r0, r5, r0
    2ef4:	02000000 	andeq	r0, r0, #0
    2ef8:	00070b1a 	andeq	r0, r7, sl, lsl fp
    2efc:	01281b00 	teqeq	r8, r0, lsl #22
    2f00:	55010000 	strpl	r0, [r1, #-0]
    2f04:	00011d1b 	andeq	r1, r1, fp, lsl sp
    2f08:	1d540100 	ldfnee	f0, [r4, #-0]
    2f0c:	00009590 	muleq	r0, r0, r5
    2f10:	00000004 	andeq	r0, r0, r4
    2f14:	0001321e 	andeq	r3, r1, lr, lsl r2
    2f18:	001eaf00 	andseq	sl, lr, r0, lsl #30
    2f1c:	1f000000 	svcne	0x00000000
    2f20:	00009590 	muleq	r0, r0, r5
    2f24:	00001159 	andeq	r1, r0, r9, asr r1
    2f28:	01510120 	cmpeq	r1, r0, lsr #2
    2f2c:	50012031 	andpl	r2, r1, r1, lsr r0
    2f30:	00007602 	andeq	r7, r0, r2, lsl #12
    2f34:	04060000 	streq	r0, [r6], #-0
    2f38:	000000d9 	ldrdeq	r0, [r0], -r9
    2f3c:	0009c922 	andeq	ip, r9, r2, lsr #18
    2f40:	25270100 	strcs	r0, [r7, #-256]!	; 0x100
    2f44:	03000000 	movweq	r0, #0
    2f48:	00000762 	andeq	r0, r0, r2, ror #14
    2f4c:	0078720f 	rsbseq	r7, r8, pc, lsl #4
    2f50:	00252701 	eoreq	r2, r5, r1, lsl #14
    2f54:	760f0000 	strvc	r0, [pc], -r0
    2f58:	25270100 	strcs	r0, [r7, #-256]!	; 0x100
    2f5c:	0e000000 	cdpeq	0, 0, cr0, cr0, cr0, {0}
    2f60:	00000956 	andeq	r0, r0, r6, asr r9
    2f64:	002c2701 	eoreq	r2, ip, r1, lsl #14
    2f68:	fc110000 	ldc2	0, cr0, [r1], {-0}
    2f6c:	01000005 	tsteq	r0, r5
    2f70:	00002c28 	andeq	r2, r0, r8, lsr #24
    2f74:	f7230000 			; <UNDEFINED> instruction: 0xf7230000
    2f78:	01000008 	tsteq	r0, r8
    2f7c:	00002534 	andeq	r2, r0, r4, lsr r5
    2f80:	0095a400 	addseq	sl, r5, r0, lsl #8
    2f84:	0001c800 	andeq	ip, r1, r0, lsl #16
    2f88:	1e9c0100 	fmlnee	f0, f4, f0
    2f8c:	1300000b 	movwne	r0, #11
    2f90:	000005af 	andeq	r0, r0, pc, lsr #11
    2f94:	07223401 	streq	r3, [r2, -r1, lsl #8]!
    2f98:	1ec20000 	cdpne	0, 12, cr0, cr2, cr0, {0}
    2f9c:	56130000 	ldrpl	r0, [r3], -r0
    2fa0:	01000009 	tsteq	r0, r9
    2fa4:	00002534 	andeq	r2, r0, r4, lsr r5
    2fa8:	001f0700 	andseq	r0, pc, r0, lsl #14
    2fac:	78721500 	ldmdavc	r2!, {r8, sl, ip}^
    2fb0:	25350100 	ldrcs	r0, [r5, #-256]!	; 0x100
    2fb4:	01000000 	mrseq	r0, (UNDEF: 0)
    2fb8:	00731655 	rsbseq	r1, r3, r5, asr r6
    2fbc:	002c3c01 	eoreq	r3, ip, r1, lsl #24
    2fc0:	1f250000 	svcne	0x00250000
    2fc4:	75160000 	ldrvc	r0, [r6, #-0]
    2fc8:	683f0100 	ldmdavs	pc!, {r8}	; <UNPREDICTABLE>
    2fcc:	38000000 	stmdacc	r0, {}	; <UNPREDICTABLE>
    2fd0:	1600001f 			; <UNDEFINED> instruction: 0x1600001f
    2fd4:	4001006e 	andmi	r0, r1, lr, rrx
    2fd8:	0000002c 	andeq	r0, r0, ip, lsr #32
    2fdc:	00001f4b 	andeq	r1, r0, fp, asr #30
    2fe0:	01006316 	tsteq	r0, r6, lsl r3
    2fe4:	00002c41 	andeq	r2, r0, r1, asr #24
    2fe8:	001f6200 	andseq	r6, pc, r0, lsl #4
    2fec:	07281900 	streq	r1, [r8, -r0, lsl #18]!
    2ff0:	95b80000 	ldrls	r0, [r8, #0]!
    2ff4:	00340000 	eorseq	r0, r4, r0
    2ff8:	38010000 	stmdacc	r1, {}	; <UNPREDICTABLE>
    2ffc:	0000083c 	andeq	r0, r0, ip, lsr r8
    3000:	00074b1a 	andeq	r4, r7, sl, lsl fp
    3004:	001f8c00 	andseq	r8, pc, r0, lsl #24
    3008:	07421c00 	strbeq	r1, [r2, -r0, lsl #24]
    300c:	1b000000 	blne	3014 <_start-0x4fec>
    3010:	00000738 	andeq	r0, r0, r8, lsr r7
    3014:	b81d5501 	ldmdalt	sp, {r0, r8, sl, ip, lr}
    3018:	34000095 	strcc	r0, [r0], #-149	; 0x95
    301c:	1e000000 	cdpne	0, 0, cr0, cr0, cr0, {0}
    3020:	00000756 	andeq	r0, r0, r6, asr r7
    3024:	00001faa 	andeq	r1, r0, sl, lsr #31
    3028:	0095bc24 	addseq	fp, r5, r4, lsr #24
    302c:	00116f00 	andseq	r6, r1, r0, lsl #30
    3030:	95c82500 	strbls	r2, [r8, #1280]	; 0x500
    3034:	117a0000 	cmnne	sl, r0
    3038:	08310000 	ldmdaeq	r1!, {}	; <UNPREDICTABLE>
    303c:	01200000 	teqeq	r0, r0
    3040:	00750250 	rsbseq	r0, r5, r0, asr r2
    3044:	95d42400 	ldrbls	r2, [r4, #1024]	; 0x400
    3048:	116f0000 	cmnne	pc, r0
    304c:	00000000 	andeq	r0, r0, r0
    3050:	0095f417 	addseq	pc, r5, r7, lsl r4	; <UNPREDICTABLE>
    3054:	00000400 	andeq	r0, r0, r0, lsl #8
    3058:	00085900 	andeq	r5, r8, r0, lsl #18
    305c:	02282600 	eoreq	r2, r8, #0, 12
    3060:	3c010000 	stccc	0, cr0, [r1], {-0}
    3064:	0000002c 	andeq	r0, r0, ip, lsr #32
    3068:	00001fc8 	andeq	r1, r0, r8, asr #31
    306c:	01111900 	tsteq	r1, r0, lsl #18
    3070:	96000000 	strls	r0, [r0], -r0
    3074:	00100000 	andseq	r0, r0, r0
    3078:	44010000 	strmi	r0, [r1], #-0
    307c:	00000892 	muleq	r0, r2, r8
    3080:	0001281a 	andeq	r2, r1, sl, lsl r8
    3084:	001fdb00 	andseq	sp, pc, r0, lsl #22
    3088:	011d1a00 	tsteq	sp, r0, lsl #20
    308c:	20000000 	andcs	r0, r0, r0
    3090:	001d0000 	andseq	r0, sp, r0
    3094:	04000096 	streq	r0, [r0], #-150	; 0x96
    3098:	1e000000 	cdpne	0, 0, cr0, cr0, cr0, {0}
    309c:	00000132 	andeq	r0, r0, r2, lsr r1
    30a0:	00002013 	andeq	r2, r0, r3, lsl r0
    30a4:	11190000 	tstne	r9, r0
    30a8:	20000001 	andcs	r0, r0, r1
    30ac:	10000096 	mulne	r0, r6, r0
    30b0:	01000000 	mrseq	r0, (UNDEF: 0)
    30b4:	0008cb48 	andeq	ip, r8, r8, asr #22
    30b8:	01281a00 	teqeq	r8, r0, lsl #20
    30bc:	20260000 	eorcs	r0, r6, r0
    30c0:	1d1a0000 	ldcne	0, cr0, [sl, #-0]
    30c4:	39000001 	stmdbcc	r0, {r0}
    30c8:	1d000020 	stcne	0, cr0, [r0, #-128]	; 0xffffff80
    30cc:	00009620 	andeq	r9, r0, r0, lsr #12
    30d0:	00000004 	andeq	r0, r0, r4
    30d4:	0001321e 	andeq	r3, r1, lr, lsl r2
    30d8:	00204c00 	eoreq	r4, r0, r0, lsl #24
    30dc:	19000000 	stmdbne	r0, {}	; <UNPREDICTABLE>
    30e0:	00000111 	andeq	r0, r0, r1, lsl r1
    30e4:	00009644 	andeq	r9, r0, r4, asr #12
    30e8:	00000010 	andeq	r0, r0, r0, lsl r0
    30ec:	09044b01 	stmdbeq	r4, {r0, r8, r9, fp, lr}
    30f0:	281a0000 	ldmdacs	sl, {}	; <UNPREDICTABLE>
    30f4:	5f000001 	svcpl	0x00000001
    30f8:	1a000020 	bne	3180 <_start-0x4e80>
    30fc:	0000011d 	andeq	r0, r0, sp, lsl r1
    3100:	00002072 	andeq	r2, r0, r2, ror r0
    3104:	0096441d 	addseq	r4, r6, sp, lsl r4
    3108:	00000400 	andeq	r0, r0, r0, lsl #8
    310c:	01321e00 	teqeq	r2, r0, lsl #28
    3110:	20850000 	addcs	r0, r5, r0
    3114:	00000000 	andeq	r0, r0, r0
    3118:	00011119 	andeq	r1, r1, r9, lsl r1
    311c:	00966800 	addseq	r6, r6, r0, lsl #16
    3120:	00001000 	andeq	r1, r0, r0
    3124:	3d4e0100 	stfcce	f0, [lr, #-0]
    3128:	1a000009 	bne	3154 <_start-0x4eac>
    312c:	00000128 	andeq	r0, r0, r8, lsr #2
    3130:	00002098 	muleq	r0, r8, r0
    3134:	00011d1a 	andeq	r1, r1, sl, lsl sp
    3138:	0020ab00 	eoreq	sl, r0, r0, lsl #22
    313c:	96681d00 	strbtls	r1, [r8], -r0, lsl #26
    3140:	00040000 	andeq	r0, r4, r0
    3144:	321e0000 	andscc	r0, lr, #0
    3148:	be000001 	cdplt	0, 0, cr0, cr0, cr1, {0}
    314c:	00000020 	andeq	r0, r0, r0, lsr #32
    3150:	01111900 	tsteq	r1, r0, lsl #18
    3154:	968c0000 	strls	r0, [ip], r0
    3158:	00100000 	andseq	r0, r0, r0
    315c:	51010000 	mrspl	r0, (UNDEF: 1)
    3160:	00000976 	andeq	r0, r0, r6, ror r9
    3164:	0001281a 	andeq	r2, r1, sl, lsl r8
    3168:	0020d100 	eoreq	sp, r0, r0, lsl #2
    316c:	011d1a00 	tsteq	sp, r0, lsl #20
    3170:	20e40000 	rsccs	r0, r4, r0
    3174:	8c1d0000 	ldchi	0, cr0, [sp], {-0}
    3178:	04000096 	streq	r0, [r0], #-150	; 0x96
    317c:	1e000000 	cdpne	0, 0, cr0, cr0, cr0, {0}
    3180:	00000132 	andeq	r0, r0, r2, lsr r1
    3184:	000020f7 	strdeq	r2, [r0], -r7
    3188:	11190000 	tstne	r9, r0
    318c:	b0000001 	andlt	r0, r0, r1
    3190:	10000096 	mulne	r0, r6, r0
    3194:	01000000 	mrseq	r0, (UNDEF: 0)
    3198:	0009af54 	andeq	sl, r9, r4, asr pc
    319c:	01281a00 	teqeq	r8, r0, lsl #20
    31a0:	210a0000 	mrscs	r0, (UNDEF: 10)
    31a4:	1d1a0000 	ldcne	0, cr0, [sl, #-0]
    31a8:	1d000001 	stcne	0, cr0, [r0, #-4]
    31ac:	1d000021 	stcne	0, cr0, [r0, #-132]	; 0xffffff7c
    31b0:	000096b0 			; <UNDEFINED> instruction: 0x000096b0
    31b4:	00000004 	andeq	r0, r0, r4
    31b8:	0001321e 	andeq	r3, r1, lr, lsl r2
    31bc:	00213000 	eoreq	r3, r1, r0
    31c0:	19000000 	stmdbne	r0, {}	; <UNPREDICTABLE>
    31c4:	00000111 	andeq	r0, r0, r1, lsl r1
    31c8:	000096d4 	ldrdeq	r9, [r0], -r4
    31cc:	00000010 	andeq	r0, r0, r0, lsl r0
    31d0:	09e85701 	stmibeq	r8!, {r0, r8, r9, sl, ip, lr}^
    31d4:	281a0000 	ldmdacs	sl, {}	; <UNPREDICTABLE>
    31d8:	43000001 	movwmi	r0, #1
    31dc:	1a000021 	bne	3268 <_start-0x4d98>
    31e0:	0000011d 	andeq	r0, r0, sp, lsl r1
    31e4:	00002156 	andeq	r2, r0, r6, asr r1
    31e8:	0096d41d 	addseq	sp, r6, sp, lsl r4
    31ec:	00000400 	andeq	r0, r0, r0, lsl #8
    31f0:	01321e00 	teqeq	r2, r0, lsl #28
    31f4:	21690000 	cmncs	r9, r0
    31f8:	00000000 	andeq	r0, r0, r0
    31fc:	00011119 	andeq	r1, r1, r9, lsl r1
    3200:	0096f800 	addseq	pc, r6, r0, lsl #16
    3204:	00001000 	andeq	r1, r0, r0
    3208:	1d5a0100 	ldfnee	f0, [sl, #-0]
    320c:	1a00000a 	bne	323c <_start-0x4dc4>
    3210:	00000128 	andeq	r0, r0, r8, lsr #2
    3214:	0000217c 	andeq	r2, r0, ip, ror r1
    3218:	00011d27 	andeq	r1, r1, r7, lsr #26
    321c:	96f81d00 	ldrbtls	r1, [r8], r0, lsl #26
    3220:	00040000 	andeq	r0, r4, r0
    3224:	321e0000 	andscc	r0, lr, #0
    3228:	8f000001 	svchi	0x00000001
    322c:	00000021 	andeq	r0, r0, r1, lsr #32
    3230:	07281900 	streq	r1, [r8, -r0, lsl #18]!
    3234:	97180000 	ldrls	r0, [r8, -r0]
    3238:	00340000 	eorseq	r0, r4, r0
    323c:	61010000 	mrsvs	r0, (UNDEF: 1)
    3240:	00000a81 	andeq	r0, r0, r1, lsl #21
    3244:	00074b27 	andeq	r4, r7, r7, lsr #22
    3248:	07421a00 	strbeq	r1, [r2, -r0, lsl #20]
    324c:	21a20000 			; <UNDEFINED> instruction: 0x21a20000
    3250:	381a0000 	ldmdacc	sl, {}	; <UNPREDICTABLE>
    3254:	c2000007 	andgt	r0, r0, #7
    3258:	1d000021 	stcne	0, cr0, [r0, #-132]	; 0xffffff7c
    325c:	00009718 	andeq	r9, r0, r8, lsl r7
    3260:	00000034 	andeq	r0, r0, r4, lsr r0
    3264:	0007561e 	andeq	r5, r7, lr, lsl r6
    3268:	0021e000 	eoreq	lr, r1, r0
    326c:	971c2400 	ldrls	r2, [ip, -r0, lsl #8]
    3270:	116f0000 	cmnne	pc, r0
    3274:	28250000 	stmdacs	r5!, {}	; <UNPREDICTABLE>
    3278:	7a000097 	bvc	34dc <_start-0x4b24>
    327c:	76000011 			; <UNDEFINED> instruction: 0x76000011
    3280:	2000000a 	andcs	r0, r0, sl
    3284:	75025001 	strvc	r5, [r2, #-1]
    3288:	34240000 	strtcc	r0, [r4], #-0
    328c:	6f000097 	svcvs	0x00000097
    3290:	00000011 	andeq	r0, r0, r1, lsl r0
    3294:	961c2500 	ldrls	r2, [ip], -r0, lsl #10
    3298:	117a0000 	cmnne	sl, r0
    329c:	0a950000 	beq	fe5432a4 <__bss_end__+0xfe5389ac>
    32a0:	01200000 	teqeq	r0, r0
    32a4:	00750250 	rsbseq	r0, r5, r0, asr r2
    32a8:	963c2500 	ldrtls	r2, [ip], -r0, lsl #10
    32ac:	117a0000 	cmnne	sl, r0
    32b0:	0aa90000 	beq	fea432b8 <__bss_end__+0xfea389c0>
    32b4:	01200000 	teqeq	r0, r0
    32b8:	00750250 	rsbseq	r0, r5, r0, asr r2
    32bc:	96602500 	strbtls	r2, [r0], -r0, lsl #10
    32c0:	117a0000 	cmnne	sl, r0
    32c4:	0abd0000 	beq	fef432cc <__bss_end__+0xfef389d4>
    32c8:	01200000 	teqeq	r0, r0
    32cc:	00750250 	rsbseq	r0, r5, r0, asr r2
    32d0:	96842500 	strls	r2, [r4], r0, lsl #10
    32d4:	117a0000 	cmnne	sl, r0
    32d8:	0ad10000 	beq	ff4432e0 <__bss_end__+0xff4389e8>
    32dc:	01200000 	teqeq	r0, r0
    32e0:	00750250 	rsbseq	r0, r5, r0, asr r2
    32e4:	96a82500 	strtls	r2, [r8], r0, lsl #10
    32e8:	117a0000 	cmnne	sl, r0
    32ec:	0ae50000 	beq	ff9432f4 <__bss_end__+0xff9389fc>
    32f0:	01200000 	teqeq	r0, r0
    32f4:	00750250 	rsbseq	r0, r5, r0, asr r2
    32f8:	96cc2500 	strbls	r2, [ip], r0, lsl #10
    32fc:	117a0000 	cmnne	sl, r0
    3300:	0af90000 	beq	ffe43308 <__bss_end__+0xffe38a10>
    3304:	01200000 	teqeq	r0, r0
    3308:	00750250 	rsbseq	r0, r5, r0, asr r2
    330c:	96f02500 	ldrbtls	r2, [r0], r0, lsl #10
    3310:	117a0000 	cmnne	sl, r0
    3314:	0b0d0000 	bleq	34331c <__bss_end__+0x338a24>
    3318:	01200000 	teqeq	r0, r0
    331c:	00750250 	rsbseq	r0, r5, r0, asr r2
    3320:	97101f00 	ldrls	r1, [r0, -r0, lsl #30]
    3324:	117a0000 	cmnne	sl, r0
    3328:	01200000 	teqeq	r0, r0
    332c:	00750250 	rsbseq	r0, r5, r0, asr r2
    3330:	0c230000 	stceq	0, cr0, [r3], #-0
    3334:	01000009 	tsteq	r0, r9
    3338:	0000256c 	andeq	r2, r0, ip, ror #10
    333c:	00976c00 	addseq	r6, r7, r0, lsl #24
    3340:	0000a400 	andeq	sl, r0, r0, lsl #8
    3344:	0c9c0100 	ldfeqs	f0, [ip], {0}
    3348:	1400000c 	strne	r0, [r0], #-12
    334c:	6c010075 	stcvs	0, cr0, [r1], {117}	; 0x75
    3350:	00000722 	andeq	r0, r0, r2, lsr #14
    3354:	000021fe 	strdeq	r2, [r0], -lr
    3358:	66756214 			; <UNDEFINED> instruction: 0x66756214
    335c:	0c6c0100 	stfeqe	f0, [ip], #-0
    3360:	4000000c 	andmi	r0, r0, ip
    3364:	13000022 	movwne	r0, #34	; 0x22
    3368:	0000099e 	muleq	r0, lr, r9
    336c:	00686c01 	rsbeq	r6, r8, r1, lsl #24
    3370:	22820000 	addcs	r0, r2, #0
    3374:	65140000 	ldrvs	r0, [r4, #-0]
    3378:	0100646e 	tsteq	r0, lr, ror #8
    337c:	00004f6c 	andeq	r4, r0, ip, ror #30
    3380:	0022c900 	eoreq	ip, r2, r0, lsl #18
    3384:	09a52800 	stmibeq	r5!, {fp, sp}
    3388:	6c010000 	stcvs	0, cr0, [r1], {-0}
    338c:	00000068 	andeq	r0, r0, r8, rrx
    3390:	29009102 	stmdbcs	r0, {r1, r8, ip, pc}
    3394:	00000153 	andeq	r0, r0, r3, asr r1
    3398:	00000c22 	andeq	r0, r0, r2, lsr #24
    339c:	a1f00305 	mvnsge	r0, r5, lsl #6
    33a0:	69160000 	ldmdbvs	r6, {}	; <UNPREDICTABLE>
    33a4:	25700100 	ldrbcs	r0, [r0, #-256]!	; 0x100
    33a8:	03000000 	movweq	r0, #0
    33ac:	26000023 	strcs	r0, [r0], -r3, lsr #32
    33b0:	00000981 	andeq	r0, r0, r1, lsl #19
    33b4:	004f7101 	subeq	r7, pc, r1, lsl #2
    33b8:	232d0000 	teqcs	sp, #0
    33bc:	90240000 	eorls	r0, r4, r0
    33c0:	8f000097 	svchi	0x00000097
    33c4:	25000011 	strcs	r0, [r0, #-17]
    33c8:	000097ac 	andeq	r9, r0, ip, lsr #15
    33cc:	00001196 	muleq	r0, r6, r1
    33d0:	00000bec 	andeq	r0, r0, ip, ror #23
    33d4:	02530120 	subseq	r0, r3, #32, 2
    33d8:	01206d08 	teqeq	r0, r8, lsl #26
    33dc:	f0030552 			; <UNDEFINED> instruction: 0xf0030552
    33e0:	200000a1 	andcs	r0, r0, r1, lsr #1
    33e4:	03055101 	movweq	r5, #20737	; 0x5101
    33e8:	0000a268 	andeq	sl, r0, r8, ror #4
    33ec:	05500120 	ldrbeq	r0, [r0, #-288]	; 0x120
    33f0:	00a0f003 	adceq	pc, r0, r3
    33f4:	7d022000 	stcvc	0, cr2, [r2, #-0]
    33f8:	7c030500 	cfstr32vc	mvfx0, [r3], {-0}
    33fc:	000000a2 	andeq	r0, r0, r2, lsr #1
    3400:	0097b024 	addseq	fp, r7, r4, lsr #32
    3404:	0011ac00 	andseq	sl, r1, r0, lsl #24
    3408:	97cc1f00 	strbls	r1, [ip, r0, lsl #30]
    340c:	07620000 	strbeq	r0, [r2, -r0]!
    3410:	01200000 	teqeq	r0, r0
    3414:	007a0251 	rsbseq	r0, sl, r1, asr r2
    3418:	02500120 	subseq	r0, r0, #32, 2
    341c:	00000078 	andeq	r0, r0, r8, ror r0
    3420:	004f0406 	subeq	r0, pc, r6, lsl #8
    3424:	902a0000 	eorls	r0, sl, r0
    3428:	22000000 	andcs	r0, r0, #0
    342c:	2b00000c 	blcs	3464 <_start-0x4b9c>
    3430:	00000081 	andeq	r0, r0, r1, lsl #1
    3434:	12070012 	andne	r0, r7, #18
    3438:	2300000c 	movwcs	r0, #12
    343c:	00000989 	andeq	r0, r0, r9, lsl #19
    3440:	00258001 	eoreq	r8, r5, r1
    3444:	98100000 	ldmdals	r0, {}	; <UNPREDICTABLE>
    3448:	00900000 	addseq	r0, r0, r0
    344c:	9c010000 	stcls	0, cr0, [r1], {-0}
    3450:	00000cf8 	strdeq	r0, [r0], -r8
    3454:	01007514 	tsteq	r0, r4, lsl r5
    3458:	00072280 	andeq	r2, r7, r0, lsl #5
    345c:	00234000 	eoreq	r4, r3, r0
    3460:	75621400 	strbvc	r1, [r2, #-1024]!	; 0x400
    3464:	80010066 	andhi	r0, r1, r6, rrx
    3468:	00000c0c 	andeq	r0, r0, ip, lsl #24
    346c:	00002382 	andeq	r2, r0, r2, lsl #7
    3470:	00099e13 	andeq	r9, r9, r3, lsl lr
    3474:	68810100 	stmvs	r1, {r8}
    3478:	c4000000 	strgt	r0, [r0], #-0
    347c:	13000023 	movwne	r0, #35	; 0x23
    3480:	000009a5 	andeq	r0, r0, r5, lsr #19
    3484:	00688101 	rsbeq	r8, r8, r1, lsl #2
    3488:	240b0000 	strcs	r0, [fp], #-0
    348c:	53290000 	teqpl	r9, #0
    3490:	08000001 	stmdaeq	r0, {r0}
    3494:	0500000d 	streq	r0, [r0, #-13]
    3498:	00a20403 	adceq	r0, r2, r3, lsl #8
    349c:	00691600 	rsbeq	r1, r9, r0, lsl #12
    34a0:	00258601 	eoreq	r8, r5, r1, lsl #12
    34a4:	244d0000 	strbcs	r0, [sp], #-0
    34a8:	30240000 	eorcc	r0, r4, r0
    34ac:	8f000098 	svchi	0x00000098
    34b0:	25000011 	strcs	r0, [r0, #-17]
    34b4:	0000984c 	andeq	r9, r0, ip, asr #16
    34b8:	00001196 	muleq	r0, r6, r1
    34bc:	00000cd8 	ldrdeq	r0, [r0], -r8
    34c0:	02530120 	subseq	r0, r3, #32, 2
    34c4:	01208308 	teqeq	r0, r8, lsl #6
    34c8:	04030552 	streq	r0, [r3], #-1362	; 0x552
    34cc:	200000a2 	andcs	r0, r0, r2, lsr #1
    34d0:	03055101 	movweq	r5, #20737	; 0x5101
    34d4:	0000a268 	andeq	sl, r0, r8, ror #4
    34d8:	05500120 	ldrbeq	r0, [r0, #-288]	; 0x120
    34dc:	00a0f003 	adceq	pc, r0, r3
    34e0:	7d022000 	stcvc	0, cr2, [r2, #-0]
    34e4:	7c030500 	cfstr32vc	mvfx0, [r3], {-0}
    34e8:	000000a2 	andeq	r0, r0, r2, lsr #1
    34ec:	00985024 	addseq	r5, r8, r4, lsr #32
    34f0:	0011ac00 	andseq	sl, r1, r0, lsl #24
    34f4:	986c1f00 	stmdals	ip!, {r8, r9, sl, fp, ip}^
    34f8:	07620000 	strbeq	r0, [r2, -r0]!
    34fc:	01200000 	teqeq	r0, r0
    3500:	00780251 	rsbseq	r0, r8, r1, asr r2
    3504:	02500120 	subseq	r0, r0, #32, 2
    3508:	00000077 	andeq	r0, r0, r7, ror r0
    350c:	0000902a 	andeq	r9, r0, sl, lsr #32
    3510:	000d0800 	andeq	r0, sp, r0, lsl #16
    3514:	00812b00 	addeq	r2, r1, r0, lsl #22
    3518:	00140000 	andseq	r0, r4, r0
    351c:	000cf807 	andeq	pc, ip, r7, lsl #16
    3520:	09422300 	stmdbeq	r2, {r8, r9, sp}^
    3524:	93010000 	movwls	r0, #4096	; 0x1000
    3528:	000000d9 	ldrdeq	r0, [r0], -r9
    352c:	000098a0 	andeq	r9, r0, r0, lsr #17
    3530:	000000d4 	ldrdeq	r0, [r0], -r4
    3534:	0e329c01 	cdpeq	12, 3, cr9, cr2, cr1, {0}
    3538:	74140000 	ldrvc	r0, [r4], #-0
    353c:	93010078 	movwls	r0, #4216	; 0x1078
    3540:	0000004f 	andeq	r0, r0, pc, asr #32
    3544:	00002477 	andeq	r2, r0, r7, ror r4
    3548:	00787214 	rsbseq	r7, r8, r4, lsl r2
    354c:	004f9301 	subeq	r9, pc, r1, lsl #6
    3550:	24980000 	ldrcs	r0, [r8], #0
    3554:	e8130000 	ldmda	r3, {}	; <UNPREDICTABLE>
    3558:	01000005 	tsteq	r0, r5
    355c:	00006893 	muleq	r0, r3, r8
    3560:	0024b900 	eoreq	fp, r4, r0, lsl #18
    3564:	08db2800 	ldmeq	fp, {fp, sp}^
    3568:	93010000 	movwls	r0, #4096	; 0x1000
    356c:	00000068 	andeq	r0, r0, r8, rrx
    3570:	2c009102 	stfcsd	f1, [r0], {2}
    3574:	007a686d 	rsbseq	r6, sl, sp, ror #16
    3578:	002c9b01 	eoreq	r9, ip, r1, lsl #22
    357c:	27000000 	strcs	r0, [r0, -r0]
    3580:	2c2629b9 	stccs	9, cr2, [r6], #-740	; 0xfffffd1c
    3584:	01000009 	tsteq	r0, r9
    3588:	00002c9c 	muleq	r0, ip, ip
    358c:	0024e300 	eoreq	lr, r4, r0, lsl #6
    3590:	01532900 	cmpeq	r3, r0, lsl #18
    3594:	0e420000 	cdpeq	0, 4, cr0, cr2, cr0, {0}
    3598:	03050000 	movweq	r0, #20480	; 0x5000
    359c:	0000a21c 	andeq	sl, r0, ip, lsl r2
    35a0:	0098cc17 	addseq	ip, r8, r7, lsl ip
    35a4:	00000800 	andeq	r0, r0, r0, lsl #16
    35a8:	000da500 	andeq	sl, sp, r0, lsl #10
    35ac:	6e692d00 	cdpvs	13, 6, cr2, cr9, cr0, {0}
    35b0:	2c970100 	ldfcss	f0, [r7], {0}
    35b4:	01000000 	mrseq	r0, (UNDEF: 0)
    35b8:	98c42500 	stmials	r4, {r8, sl, sp}^
    35bc:	11b30000 			; <UNDEFINED> instruction: 0x11b30000
    35c0:	0db90000 	ldceq	0, cr0, [r9]
    35c4:	01200000 	teqeq	r0, r0
    35c8:	00760250 	rsbseq	r0, r6, r0, asr r2
    35cc:	98cc2500 	stmials	ip, {r8, sl, sp}^
    35d0:	11c40000 	bicne	r0, r4, r0
    35d4:	0dcd0000 	stcleq	0, cr0, [sp]
    35d8:	01200000 	teqeq	r0, r0
    35dc:	00780250 	rsbseq	r0, r8, r0, asr r2
    35e0:	98e02500 	stmials	r0!, {r8, sl, sp}^
    35e4:	11590000 	cmpne	r9, r0
    35e8:	0de60000 	stcleq	0, cr0, [r6]
    35ec:	01200000 	teqeq	r0, r0
    35f0:	20310151 	eorscs	r0, r1, r1, asr r1
    35f4:	76025001 	strvc	r5, [r2], -r1
    35f8:	24240000 	strtcs	r0, [r4], #-0
    35fc:	8f000099 	svchi	0x00000099
    3600:	25000011 	strcs	r0, [r0, #-17]
    3604:	00009940 	andeq	r9, r0, r0, asr #18
    3608:	00001196 	muleq	r0, r6, r1
    360c:	00000e28 	andeq	r0, r0, r8, lsr #28
    3610:	02530120 	subseq	r0, r3, #32, 2
    3614:	01209d08 	teqeq	r0, r8, lsl #26
    3618:	1c030552 	cfstr32ne	mvfx0, [r3], {82}	; 0x52
    361c:	200000a2 	andcs	r0, r0, r2, lsr #1
    3620:	03055101 	movweq	r5, #20737	; 0x5101
    3624:	0000a268 	andeq	sl, r0, r8, ror #4
    3628:	05500120 	ldrbeq	r0, [r0, #-288]	; 0x120
    362c:	00a0f003 	adceq	pc, r0, r3
    3630:	7d022000 	stcvc	0, cr2, [r2, #-0]
    3634:	88030500 	stmdahi	r3, {r8, sl}
    3638:	000000a2 	andeq	r0, r0, r2, lsr #1
    363c:	00994424 	addseq	r4, r9, r4, lsr #8
    3640:	0011ac00 	andseq	sl, r1, r0, lsl #24
    3644:	902a0000 	eorls	r0, sl, r0
    3648:	42000000 	andmi	r0, r0, #0
    364c:	2b00000e 	blcs	368c <_start-0x4974>
    3650:	00000081 	andeq	r0, r0, r1, lsl #1
    3654:	32070013 	andcc	r0, r7, #19
    3658:	2300000e 	movwcs	r0, #14
    365c:	0000091f 	andeq	r0, r0, pc, lsl r9
    3660:	0025a901 	eoreq	sl, r5, r1, lsl #18
    3664:	99740000 	ldmdbls	r4!, {}^	; <UNPREDICTABLE>
    3668:	003c0000 	eorseq	r0, ip, r0
    366c:	9c010000 	stcls	0, cr0, [r1], {-0}
    3670:	00000eea 	andeq	r0, r0, sl, ror #29
    3674:	0005af13 	andeq	sl, r5, r3, lsl pc
    3678:	22a90100 	adccs	r0, r9, #0, 2
    367c:	11000007 	tstne	r0, r7
    3680:	16000025 	strne	r0, [r0], -r5, lsr #32
    3684:	00736572 	rsbseq	r6, r3, r2, ror r5
    3688:	0025aa01 	eoreq	sl, r5, r1, lsl #20
    368c:	25320000 	ldrcs	r0, [r2, #-0]!
    3690:	53290000 	teqpl	r9, #0
    3694:	fa000001 	blx	36a0 <_start-0x4960>
    3698:	0500000e 	streq	r0, [r0, #-14]
    369c:	00a23003 	adceq	r3, r2, r3
    36a0:	99802500 	stmibls	r0, {r8, sl, sp}
    36a4:	07620000 	strbeq	r0, [r2, -r0]!
    36a8:	0ea80000 	cdpeq	0, 10, cr0, cr8, cr0, {0}
    36ac:	01200000 	teqeq	r0, r0
    36b0:	ff090251 			; <UNDEFINED> instruction: 0xff090251
    36b4:	03500120 	cmpeq	r0, #32, 2
    36b8:	005001f3 	ldrsheq	r0, [r0], #-19	; 0xffffffed
    36bc:	00998c24 	addseq	r8, r9, r4, lsr #24
    36c0:	00118f00 	andseq	r8, r1, r0, lsl #30
    36c4:	99a02500 	stmibls	r0!, {r8, sl, sp}
    36c8:	11960000 	orrsne	r0, r6, r0
    36cc:	0ee00000 	cdpeq	0, 14, cr0, cr0, cr0, {0}
    36d0:	01200000 	teqeq	r0, r0
    36d4:	ac080253 	sfmge	f0, 4, [r8], {83}	; 0x53
    36d8:	05520120 	ldrbeq	r0, [r2, #-288]	; 0x120
    36dc:	00a23003 	adceq	r3, r2, r3
    36e0:	51012000 	mrspl	r2, (UNDEF: 1)
    36e4:	a2680305 	rsbge	r0, r8, #335544320	; 0x14000000
    36e8:	01200000 	teqeq	r0, r0
    36ec:	bc030550 	cfstr32lt	mvfx0, [r3], {80}	; 0x50
    36f0:	000000a2 	andeq	r0, r0, r2, lsr #1
    36f4:	0099a424 	addseq	sl, r9, r4, lsr #8
    36f8:	0011ac00 	andseq	sl, r1, r0, lsl #24
    36fc:	902a0000 	eorls	r0, sl, r0
    3700:	fa000000 	blx	3708 <_start-0x48f8>
    3704:	2b00000e 	blcs	3744 <_start-0x48bc>
    3708:	00000081 	andeq	r0, r0, r1, lsl #1
    370c:	ea07000c 	b	1c3744 <__bss_end__+0x1b8e4c>
    3710:	1200000e 	andne	r0, r0, #14
    3714:	00000963 	andeq	r0, r0, r3, ror #18
    3718:	99b0b001 	ldmibls	r0!, {r0, ip, sp, pc}
    371c:	002c0000 	eoreq	r0, ip, r0
    3720:	9c010000 	stcls	0, cr0, [r1], {-0}
    3724:	00000f43 	andeq	r0, r0, r3, asr #30
    3728:	0005af13 	andeq	sl, r5, r3, lsl pc
    372c:	22b00100 	adcscs	r0, r0, #0, 2
    3730:	45000007 	strmi	r0, [r0, #-7]
    3734:	14000025 	strne	r0, [r0], #-37	; 0x25
    3738:	0067736d 	rsbeq	r7, r7, sp, ror #6
    373c:	0097b001 	addseq	fp, r7, r1
    3740:	25630000 	strbcs	r0, [r3, #-0]!
    3744:	c81f0000 	ldmdagt	pc, {}	; <UNPREDICTABLE>
    3748:	76000099 			; <UNDEFINED> instruction: 0x76000099
    374c:	20000001 	andcs	r0, r0, r1
    3750:	75025001 	strvc	r5, [r2, #-1]
    3754:	23000000 	movwcs	r0, #0
    3758:	000005b4 			; <UNDEFINED> instruction: 0x000005b4
    375c:	0025b901 	eoreq	fp, r5, r1, lsl #18
    3760:	99dc0000 	ldmibls	ip, {}^	; <UNPREDICTABLE>
    3764:	00900000 	addseq	r0, r0, r0
    3768:	9c010000 	stcls	0, cr0, [r1], {-0}
    376c:	00001041 	andeq	r1, r0, r1, asr #32
    3770:	0005af13 	andeq	sl, r5, r3, lsl pc
    3774:	22b90100 	adcscs	r0, r9, #0, 2
    3778:	81000007 	tsthi	r0, r7
    377c:	2e000025 	cdpcs	0, 0, cr0, cr0, cr5, {1}
    3780:	00746d66 	rsbseq	r6, r4, r6, ror #26
    3784:	0097b901 	addseq	fp, r7, r1, lsl #18
    3788:	91020000 	mrsls	r0, (UNDEF: 2)
    378c:	62152f74 	andsvs	r2, r5, #116, 30	; 0x1d0
    3790:	01006675 	tsteq	r0, r5, ror r6
    3794:	001041ba 			; <UNDEFINED> instruction: 0x001041ba
    3798:	9c910300 	ldcls	3, cr0, [r1], {0}
    379c:	046d187c 	strbteq	r1, [sp], #-2172	; 0x87c
    37a0:	bc010000 	stclt	0, cr0, [r1], {-0}
    37a4:	00000106 	andeq	r0, r0, r6, lsl #2
    37a8:	7c989103 	ldfvcd	f1, [r8], {3}
    37ac:	007a7316 	rsbseq	r7, sl, r6, lsl r3
    37b0:	0025be01 	eoreq	fp, r5, r1, lsl #28
    37b4:	25ad0000 	strcs	r0, [sp, #0]!
    37b8:	53290000 	teqpl	r9, #0
    37bc:	62000001 	andvs	r0, r0, #1
    37c0:	05000010 	streq	r0, [r0, #-16]
    37c4:	00a24003 	adceq	r4, r2, r3
    37c8:	9a042500 	bls	10cbd0 <__bss_end__+0x1022d8>
    37cc:	11d50000 	bicsne	r0, r5, r0
    37d0:	0fde0000 	svceq	0x00de0000
    37d4:	01200000 	teqeq	r0, r0
    37d8:	58910253 	ldmpl	r1, {r0, r1, r4, r6, r9}
    37dc:	03520120 	cmpeq	r2, #32, 2
    37e0:	20065491 	mulcs	r6, r1, r4
    37e4:	0a035101 	beq	d7bf0 <__bss_end__+0xcd2f8>
    37e8:	012001cc 	smlawteq	r0, ip, r1, r0
    37ec:	fc910350 	ldc2	3, cr0, [r1], {80}	; 0x50
    37f0:	1824007b 	stmdane	r4!, {r0, r1, r3, r4, r5, r6}
    37f4:	8f00009a 	svchi	0x0000009a
    37f8:	25000011 	strcs	r0, [r0, #-17]
    37fc:	00009a34 	andeq	r9, r0, r4, lsr sl
    3800:	00001196 	muleq	r0, r6, r1
    3804:	00001020 	andeq	r1, r0, r0, lsr #32
    3808:	02530120 	subseq	r0, r3, #32, 2
    380c:	0120c008 	teqeq	r0, r8
    3810:	40030552 	andmi	r0, r3, r2, asr r5
    3814:	200000a2 	andcs	r0, r0, r2, lsr #1
    3818:	03055101 	movweq	r5, #20737	; 0x5101
    381c:	0000a268 	andeq	sl, r0, r8, ror #4
    3820:	05500120 	ldrbeq	r0, [r0, #-288]	; 0x120
    3824:	00a0f003 	adceq	pc, r0, r3
    3828:	7d022000 	stcvc	0, cr2, [r2, #-0]
    382c:	f4030500 	vst3.8	{d0,d2,d4}, [r3], r0
    3830:	000000a2 	andeq	r0, r0, r2, lsr #1
    3834:	009a3824 	addseq	r3, sl, r4, lsr #16
    3838:	0011ac00 	andseq	sl, r1, r0, lsl #24
    383c:	9a441f00 	bls	110b444 <__bss_end__+0x1100b4c>
    3840:	0eff0000 	cdpeq	0, 15, cr0, cr15, cr0, {0}
    3844:	01200000 	teqeq	r0, r0
    3848:	fc910351 	ldc2	3, cr0, [r1], {81}	; 0x51
    384c:	5001207b 	andpl	r2, r1, fp, ror r0
    3850:	00007502 	andeq	r7, r0, r2, lsl #10
    3854:	00902a00 	addseq	r2, r0, r0, lsl #20
    3858:	10520000 	subsne	r0, r2, r0
    385c:	81300000 	teqhi	r0, r0
    3860:	cb000000 	blgt	3868 <_start-0x4798>
    3864:	902a0001 	eorls	r0, sl, r1
    3868:	62000000 	andvs	r0, r0, #0
    386c:	2b000010 	blcs	38b4 <_start-0x474c>
    3870:	00000081 	andeq	r0, r0, r1, lsl #1
    3874:	5207000e 	andpl	r0, r7, #14
    3878:	23000010 	movwcs	r0, #16
    387c:	000009b2 			; <UNDEFINED> instruction: 0x000009b2
    3880:	0025c501 	eoreq	ip, r5, r1, lsl #10
    3884:	9a6c0000 	bls	1b0388c <__bss_end__+0x1af8f94>
    3888:	004c0000 	subeq	r0, ip, r0
    388c:	9c010000 	stcls	0, cr0, [r1], {-0}
    3890:	00001144 	andeq	r1, r0, r4, asr #2
    3894:	01007514 	tsteq	r0, r4, lsl r5
    3898:	000722c5 	andeq	r2, r7, r5, asr #5
    389c:	0025ec00 	eoreq	lr, r5, r0, lsl #24
    38a0:	75621400 	strbvc	r1, [r2, #-1024]!	; 0x400
    38a4:	c5010066 	strgt	r0, [r1, #-102]	; 0x66
    38a8:	00000c0c 	andeq	r0, r0, ip, lsl #24
    38ac:	0000260d 	andeq	r2, r0, sp, lsl #12
    38b0:	00099e13 	andeq	r9, r9, r3, lsl lr
    38b4:	68c50100 	stmiavs	r5, {r8}^
    38b8:	2e000000 	cdpcs	0, 0, cr0, cr0, cr0, {0}
    38bc:	14000026 	strne	r0, [r0], #-38	; 0x26
    38c0:	00646e65 	rsbeq	r6, r4, r5, ror #28
    38c4:	004fc501 	subeq	ip, pc, r1, lsl #10
    38c8:	264f0000 	strbcs	r0, [pc], -r0
    38cc:	72160000 	andsvc	r0, r6, #0
    38d0:	01007365 	tsteq	r0, r5, ror #6
    38d4:	000025c6 	andeq	r2, r0, r6, asr #11
    38d8:	00267000 	eoreq	r7, r6, r0
    38dc:	01532900 	cmpeq	r3, r0, lsl #18
    38e0:	11540000 	cmpne	r4, r0
    38e4:	03050000 	movweq	r0, #20480	; 0x5000
    38e8:	0000a250 	andeq	sl, r0, r0, asr r2
    38ec:	009a8025 	addseq	r8, sl, r5, lsr #32
    38f0:	000b1e00 	andeq	r1, fp, r0, lsl #28
    38f4:	00110200 	andseq	r0, r1, r0, lsl #4
    38f8:	52012000 	andpl	r2, r1, #0
    38fc:	5201f303 	andpl	pc, r1, #201326592	; 0xc000000
    3900:	03510120 	cmpeq	r1, #32, 2
    3904:	205101f3 	ldrshcs	r0, [r1], #-19	; 0xffffffed
    3908:	f3035001 	vhadd.u8	d5, d3, d1
    390c:	02205001 	eoreq	r5, r0, #1
    3910:	0902007d 	stmdbeq	r2, {r0, r2, r3, r4, r5, r6}
    3914:	8c2400ff 	stchi	0, cr0, [r4], #-1020	; 0xfffffc04
    3918:	8f00009a 	svchi	0x0000009a
    391c:	25000011 	strcs	r0, [r0, #-17]
    3920:	00009aa0 	andeq	r9, r0, r0, lsr #21
    3924:	00001196 	muleq	r0, r6, r1
    3928:	0000113a 	andeq	r1, r0, sl, lsr r1
    392c:	02530120 	subseq	r0, r3, #32, 2
    3930:	0120c808 	teqeq	r0, r8, lsl #16
    3934:	50030552 	andpl	r0, r3, r2, asr r5
    3938:	200000a2 	andcs	r0, r0, r2, lsr #1
    393c:	03055101 	movweq	r5, #20737	; 0x5101
    3940:	0000a268 	andeq	sl, r0, r8, ror #4
    3944:	05500120 	ldrbeq	r0, [r0, #-288]	; 0x120
    3948:	00a2bc03 	adceq	fp, r2, r3, lsl #24
    394c:	a4240000 	strtge	r0, [r4], #-0
    3950:	ac00009a 	stcge	0, cr0, [r0], {154}	; 0x9a
    3954:	00000011 	andeq	r0, r0, r1, lsl r0
    3958:	0000902a 	andeq	r9, r0, sl, lsr #32
    395c:	00115400 	andseq	r5, r1, r0, lsl #8
    3960:	00812b00 	addeq	r2, r1, r0, lsl #22
    3964:	00160000 	andseq	r0, r6, r0
    3968:	00114407 	andseq	r4, r1, r7, lsl #8
    396c:	00143100 	andseq	r3, r4, r0, lsl #2
    3970:	21060000 	mrscs	r0, (UNDEF: 6)
    3974:	0000116f 	andeq	r1, r0, pc, ror #2
    3978:	00002c32 	andeq	r2, r0, r2, lsr ip
    397c:	002c3200 	eoreq	r3, ip, r0, lsl #4
    3980:	33000000 	movwcc	r0, #0
    3984:	000006e9 	andeq	r0, r0, r9, ror #13
    3988:	002c5707 	eoreq	r5, ip, r7, lsl #14
    398c:	c3340000 	teqgt	r4, #0
    3990:	06000007 	streq	r0, [r0], -r7
    3994:	00002524 	andeq	r2, r0, r4, lsr #10
    3998:	00118f00 	andseq	r8, r1, r0, lsl #30
    399c:	002c3200 	eoreq	r3, ip, r0, lsl #4
    39a0:	35000000 	strcc	r0, [r0, #-0]
    39a4:	00000100 	andeq	r0, r0, r0, lsl #2
    39a8:	18341e07 	ldmdane	r4!, {r0, r1, r2, r9, sl, fp, ip}
    39ac:	07000004 	streq	r0, [r0, -r4]
    39b0:	00002529 	andeq	r2, r0, r9, lsr #10
    39b4:	0011ac00 	andseq	sl, r1, r0, lsl #24
    39b8:	00973200 	addseq	r3, r7, r0, lsl #4
    39bc:	002f0000 	eoreq	r0, pc, r0
    39c0:	0001ea35 	andeq	lr, r1, r5, lsr sl
    39c4:	31660700 	cmncc	r6, r0, lsl #14
    39c8:	0000036c 	andeq	r0, r0, ip, ror #6
    39cc:	11c41d06 	bicne	r1, r4, r6, lsl #26
    39d0:	2c320000 	ldccs	0, cr0, [r2], #-0
    39d4:	00000000 	andeq	r0, r0, r0
    39d8:	00030331 	andeq	r0, r3, r1, lsr r3
    39dc:	d51c0600 	ldrle	r0, [ip, #-1536]	; 0x600
    39e0:	32000011 	andcc	r0, r0, #17
    39e4:	0000002c 	andeq	r0, r0, ip, lsr #32
    39e8:	04153600 	ldreq	r3, [r5], #-1536	; 0x600
    39ec:	02080000 	andeq	r0, r8, #0
    39f0:	00000025 	andeq	r0, r0, r5, lsr #32
    39f4:	00008a32 	andeq	r8, r0, r2, lsr sl
    39f8:	00253200 	eoreq	r3, r5, r0, lsl #4
    39fc:	97320000 	ldrls	r0, [r2, -r0]!
    3a00:	32000000 	andcc	r0, r0, #0
    3a04:	00000106 	andeq	r0, r0, r6, lsl #2
    3a08:	03ff0000 	mvnseq	r0, #0
    3a0c:	00040000 	andeq	r0, r4, r0
    3a10:	00000ff8 	strdeq	r0, [r0], -r8
    3a14:	02ac0104 	adceq	r0, ip, #4, 2
    3a18:	a0010000 	andge	r0, r1, r0
    3a1c:	2900000a 	stmdbcs	r0, {r1, r3}
    3a20:	b8000004 	stmdalt	r0, {r2}
    3a24:	5400009a 	strpl	r0, [r0], #-154	; 0x9a
    3a28:	46000001 	strmi	r0, [r0], -r1
    3a2c:	0200000f 	andeq	r0, r0, #15
    3a30:	6e690504 	cdpvs	5, 6, cr0, cr9, cr4, {0}
    3a34:	04030074 	streq	r0, [r3], #-116	; 0x74
    3a38:	00004407 	andeq	r4, r0, r7, lsl #8
    3a3c:	06010300 	streq	r0, [r1], -r0, lsl #6
    3a40:	00000253 	andeq	r0, r0, r3, asr r2
    3a44:	6c050203 	sfmvs	f0, 4, [r5], {3}
    3a48:	03000002 	movweq	r0, #2
    3a4c:	00670504 	rsbeq	r0, r7, r4, lsl #10
    3a50:	08030000 	stmdaeq	r3, {}	; <UNPREDICTABLE>
    3a54:	00006205 	andeq	r6, r0, r5, lsl #4
    3a58:	08010300 	stmdaeq	r1, {r8, r9}
    3a5c:	00000251 	andeq	r0, r0, r1, asr r2
    3a60:	60070203 	andvs	r0, r7, r3, lsl #4
    3a64:	03000001 	movweq	r0, #1
    3a68:	003f0704 	eorseq	r0, pc, r4, lsl #14
    3a6c:	08030000 	stmdaeq	r3, {}	; <UNPREDICTABLE>
    3a70:	00003a07 	andeq	r3, r0, r7, lsl #20
    3a74:	07040300 	streq	r0, [r4, -r0, lsl #6]
    3a78:	000001f7 	strdeq	r0, [r0], -r7
    3a7c:	5a080103 	bpl	203e90 <__bss_end__+0x1f9598>
    3a80:	04000002 	streq	r0, [r0], #-2
    3a84:	b20c0201 	andlt	r0, ip, #268435456	; 0x10000000
    3a88:	05000000 	streq	r0, [r0, #-0]
    3a8c:	0000077e 	andeq	r0, r0, lr, ror r7
    3a90:	08530500 	ldmdaeq	r3, {r8, sl}^
    3a94:	05010000 	streq	r0, [r1, #-0]
    3a98:	00000876 	andeq	r0, r0, r6, ror r8
    3a9c:	08850504 	stmeq	r5, {r2, r8, sl}
    3aa0:	05050000 	streq	r0, [r5, #-0]
    3aa4:	00000894 	muleq	r0, r4, r8
    3aa8:	08a30506 	stmiaeq	r3!, {r1, r2, r8, sl}
    3aac:	05070000 	streq	r0, [r7, #-0]
    3ab0:	000008b2 			; <UNDEFINED> instruction: 0x000008b2
    3ab4:	08c10503 	stmiaeq	r1, {r0, r1, r8, sl}^
    3ab8:	00020000 	andeq	r0, r2, r0
    3abc:	00086a06 	andeq	r6, r8, r6, lsl #20
    3ac0:	79150200 	ldmdbvc	r5, {r9}
    3ac4:	07000000 	streq	r0, [r0, -r0]
    3ac8:	00000030 	andeq	r0, r0, r0, lsr r0
    3acc:	9ab83701 	bls	fee116d8 <__bss_end__+0xfee06de0>
    3ad0:	009c0000 	addseq	r0, ip, r0
    3ad4:	9c010000 	stcls	0, cr0, [r1], {-0}
    3ad8:	000001c3 	andeq	r0, r0, r3, asr #3
    3adc:	009ac008 	addseq	ip, sl, r8
    3ae0:	0003a800 	andeq	sl, r3, r0, lsl #16
    3ae4:	9acc0900 	bls	ff305eec <__bss_end__+0xff2fb5f4>
    3ae8:	03af0000 			; <UNDEFINED> instruction: 0x03af0000
    3aec:	00f30000 	rscseq	r0, r3, r0
    3af0:	010a0000 	mrseq	r0, (UNDEF: 10)
    3af4:	0a320151 	beq	c84040 <__bss_end__+0xc79748>
    3af8:	3e015001 	cdpcc	0, 0, cr5, cr1, cr1, {0}
    3afc:	9ad80900 	bls	ff605f04 <__bss_end__+0xff5fb60c>
    3b00:	03af0000 			; <UNDEFINED> instruction: 0x03af0000
    3b04:	010b0000 	mrseq	r0, (UNDEF: 11)
    3b08:	010a0000 	mrseq	r0, (UNDEF: 10)
    3b0c:	0a320151 	beq	c84058 <__bss_end__+0xc79760>
    3b10:	3f015001 	svccc	0x00015001
    3b14:	9adc0800 	bls	ff705b1c <__bss_end__+0xff6fb224>
    3b18:	03a80000 			; <UNDEFINED> instruction: 0x03a80000
    3b1c:	ec090000 	stc	0, cr0, [r9], {-0}
    3b20:	c500009a 	strgt	r0, [r0, #-154]	; 0x9a
    3b24:	28000003 	stmdacs	r0, {r0, r1}
    3b28:	0a000001 	beq	3b34 <_start-0x44cc>
    3b2c:	75025001 	strvc	r5, [r2, #-1]
    3b30:	f8090000 			; <UNDEFINED> instruction: 0xf8090000
    3b34:	e600009a 			; <UNDEFINED> instruction: 0xe600009a
    3b38:	3c000003 	stccc	0, cr0, [r0], {3}
    3b3c:	0a000001 	beq	3b48 <_start-0x44b8>
    3b40:	75025001 	strvc	r5, [r2, #-1]
    3b44:	fc080000 	stc2	0, cr0, [r8], {-0}
    3b48:	a800009a 	stmdage	r0, {r1, r3, r4, r7}
    3b4c:	09000003 	stmdbeq	r0, {r0, r1}
    3b50:	00009b08 	andeq	r9, r0, r8, lsl #22
    3b54:	000003e6 	andeq	r0, r0, r6, ror #7
    3b58:	00000158 	andeq	r0, r0, r8, asr r1
    3b5c:	0151010a 	cmpeq	r1, sl, lsl #2
    3b60:	14090030 	strne	r0, [r9], #-48	; 0x30
    3b64:	e600009b 			; <UNDEFINED> instruction: 0xe600009b
    3b68:	6b000003 	blvs	3b7c <_start-0x4484>
    3b6c:	0a000001 	beq	3b78 <_start-0x4488>
    3b70:	30015101 	andcc	r5, r1, r1, lsl #2
    3b74:	9b200900 	blls	805f7c <__bss_end__+0x7fb684>
    3b78:	03e60000 	mvneq	r0, #0
    3b7c:	017e0000 	cmneq	lr, r0
    3b80:	010a0000 	mrseq	r0, (UNDEF: 10)
    3b84:	00360151 	eorseq	r0, r6, r1, asr r1
    3b88:	009b2c09 	addseq	r2, fp, r9, lsl #24
    3b8c:	0003e600 	andeq	lr, r3, r0, lsl #12
    3b90:	00019100 	andeq	r9, r1, r0, lsl #2
    3b94:	51010a00 	tstpl	r1, r0, lsl #20
    3b98:	09003301 	stmdbeq	r0, {r0, r8, r9, ip, sp}
    3b9c:	00009b38 	andeq	r9, r0, r8, lsr fp
    3ba0:	000003e6 	andeq	r0, r0, r6, ror #7
    3ba4:	000001a6 	andeq	r0, r0, r6, lsr #3
    3ba8:	0351010a 	cmpeq	r1, #-2147483646	; 0x80000002
    3bac:	00010e0a 	andeq	r0, r1, sl, lsl #28
    3bb0:	009b4409 	addseq	r4, fp, r9, lsl #8
    3bb4:	0003e600 	andeq	lr, r3, r0, lsl #12
    3bb8:	0001b900 	andeq	fp, r1, r0, lsl #18
    3bbc:	51010a00 	tstpl	r1, r0, lsl #20
    3bc0:	08003301 	stmdaeq	r0, {r0, r8, r9, ip, sp}
    3bc4:	00009b48 	andeq	r9, r0, r8, asr #22
    3bc8:	000003a8 	andeq	r0, r0, r8, lsr #7
    3bcc:	0a050b00 	beq	1467d4 <__bss_end__+0x13bedc>
    3bd0:	57010000 	strpl	r0, [r1, -r0]
    3bd4:	00000025 	andeq	r0, r0, r5, lsr #32
    3bd8:	00009b54 	andeq	r9, r0, r4, asr fp
    3bdc:	0000001c 	andeq	r0, r0, ip, lsl r0
    3be0:	01e69c01 	mvneq	r9, r1, lsl #24
    3be4:	64080000 	strvs	r0, [r8], #-0
    3be8:	c500009b 	strgt	r0, [r0, #-155]	; 0x9b
    3bec:	00000003 	andeq	r0, r0, r3
    3bf0:	0009220b 	andeq	r2, r9, fp, lsl #4
    3bf4:	255d0100 	ldrbcs	r0, [sp, #-256]	; 0x100
    3bf8:	70000000 	andvc	r0, r0, r0
    3bfc:	2800009b 	stmdacs	r0, {r0, r1, r3, r4, r7}
    3c00:	01000000 	mrseq	r0, (UNDEF: 0)
    3c04:	0002129c 	muleq	r2, ip, r2
    3c08:	9b780800 	blls	1e05c10 <__bss_end__+0x1dfb318>
    3c0c:	01c30000 	biceq	r0, r3, r0
    3c10:	8c080000 	stchi	0, cr0, [r8], {-0}
    3c14:	c500009b 	strgt	r0, [r0, #-155]	; 0x9b
    3c18:	00000003 	andeq	r0, r0, r3
    3c1c:	000a4f0b 	andeq	r4, sl, fp, lsl #30
    3c20:	25640100 	strbcs	r0, [r4, #-256]!	; 0x100
    3c24:	98000000 	stmdals	r0, {}	; <UNPREDICTABLE>
    3c28:	1c00009b 	stcne	0, cr0, [r0], {155}	; 0x9b
    3c2c:	01000000 	mrseq	r0, (UNDEF: 0)
    3c30:	0002359c 	muleq	r2, ip, r5
    3c34:	9ba80800 	blls	fea05c3c <__bss_end__+0xfe9fb344>
    3c38:	03c50000 	biceq	r0, r5, #0
    3c3c:	07000000 	streq	r0, [r0, -r0]
    3c40:	00000610 	andeq	r0, r0, r0, lsl r6
    3c44:	9bb46a01 	blls	fed1e450 <__bss_end__+0xfed13b58>
    3c48:	002c0000 	eoreq	r0, ip, r0
    3c4c:	9c010000 	stcls	0, cr0, [r1], {-0}
    3c50:	00000271 	andeq	r0, r0, r1, ror r2
    3c54:	0100630c 	tsteq	r0, ip, lsl #6
    3c58:	00002c6a 	andeq	r2, r0, sl, ror #24
    3c5c:	00268e00 	eoreq	r8, r6, r0, lsl #28
    3c60:	9bc00800 	blls	ff005c68 <__bss_end__+0xfeffb370>
    3c64:	02120000 	andseq	r0, r2, #0
    3c68:	d80d0000 	stmdale	sp, {}	; <UNPREDICTABLE>
    3c6c:	e600009b 			; <UNDEFINED> instruction: 0xe600009b
    3c70:	0a000003 	beq	3c84 <_start-0x437c>
    3c74:	74025101 	strvc	r5, [r2], #-257	; 0x101
    3c78:	0b000000 	bleq	3c80 <_start-0x4380>
    3c7c:	00000a23 	andeq	r0, r0, r3, lsr #20
    3c80:	00257401 	eoreq	r7, r5, r1, lsl #8
    3c84:	9be00000 	blls	ff803c8c <__bss_end__+0xff7f9394>
    3c88:	000c0000 	andeq	r0, ip, r0
    3c8c:	9c010000 	stcls	0, cr0, [r1], {-0}
    3c90:	00000294 	muleq	r0, r4, r2
    3c94:	009be808 	addseq	lr, fp, r8, lsl #16
    3c98:	0001c300 	andeq	ip, r1, r0, lsl #6
    3c9c:	cc0b0000 	stcgt	0, cr0, [fp], {-0}
    3ca0:	0100000a 	tsteq	r0, sl
    3ca4:	00002578 	andeq	r2, r0, r8, ror r5
    3ca8:	009bec00 	addseq	lr, fp, r0, lsl #24
    3cac:	00002000 	andeq	r2, r0, r0
    3cb0:	c09c0100 	addsgt	r0, ip, r0, lsl #2
    3cb4:	08000002 	stmdaeq	r0, {r1}
    3cb8:	00009bf4 	strdeq	r9, [r0], -r4
    3cbc:	00000271 	andeq	r0, r0, r1, ror r2
    3cc0:	009c0008 	addseq	r0, ip, r8
    3cc4:	0001e600 	andeq	lr, r1, r0, lsl #12
    3cc8:	690e0000 	stmdbvs	lr, {}	; <UNPREDICTABLE>
    3ccc:	0100000a 	tsteq	r0, sl
    3cd0:	0002d116 	andeq	sp, r2, r6, lsl r1
    3cd4:	24030500 	strcs	r0, [r3], #-1280	; 0x500
    3cd8:	0f0000a0 	svceq	0x000000a0
    3cdc:	0002d704 	andeq	sp, r2, r4, lsl #14
    3ce0:	002c1000 	eoreq	r1, ip, r0
    3ce4:	5d0e0000 	stcpl	0, cr0, [lr, #-0]
    3ce8:	0100000a 	tsteq	r0, sl
    3cec:	0002d117 	andeq	sp, r2, r7, lsl r1
    3cf0:	f4030500 	vst3.8	{d0,d2,d4}, [r3], r0
    3cf4:	0e00009f 	mcreq	0, 0, r0, cr0, cr15, {4}
    3cf8:	000009e8 	andeq	r0, r0, r8, ror #19
    3cfc:	02d11a01 	sbcseq	r1, r1, #4096	; 0x1000
    3d00:	03050000 	movweq	r0, #20480	; 0x5000
    3d04:	0000a010 	andeq	sl, r0, r0, lsl r0
    3d08:	000a310e 	andeq	r3, sl, lr, lsl #2
    3d0c:	d11b0100 	tstle	fp, r0, lsl #2
    3d10:	05000002 	streq	r0, [r0, #-2]
    3d14:	009ffc03 	addseq	pc, pc, r3, lsl #24
    3d18:	0a400e00 	beq	1007520 <__bss_end__+0xffcc28>
    3d1c:	1c010000 	stcne	0, cr0, [r1], {-0}
    3d20:	000002d1 	ldrdeq	r0, [r0], -r1
    3d24:	a0000305 	andge	r0, r0, r5, lsl #6
    3d28:	ae0e0000 	cdpge	0, 0, cr0, cr14, cr0, {0}
    3d2c:	0100000a 	tsteq	r0, sl
    3d30:	0002d11d 	andeq	sp, r2, sp, lsl r1
    3d34:	04030500 	streq	r0, [r3], #-1280	; 0x500
    3d38:	0e0000a0 	cdpeq	0, 0, cr0, cr0, cr0, {5}
    3d3c:	000009d9 	ldrdeq	r0, [r0], -r9
    3d40:	02d11e01 	sbcseq	r1, r1, #1, 28
    3d44:	03050000 	movweq	r0, #20480	; 0x5000
    3d48:	0000a020 	andeq	sl, r0, r0, lsr #32
    3d4c:	000abd0e 	andeq	fp, sl, lr, lsl #26
    3d50:	d11f0100 	tstle	pc, r0, lsl #2
    3d54:	05000002 	streq	r0, [r0, #-2]
    3d58:	00a00c03 	adceq	r0, r0, r3, lsl #24
    3d5c:	09f60e00 	ldmibeq	r6!, {r9, sl, fp}^
    3d60:	20010000 	andcs	r0, r1, r0
    3d64:	000002d1 	ldrdeq	r0, [r0], -r1
    3d68:	a01c0305 	andsge	r0, ip, r5, lsl #6
    3d6c:	910e0000 	mrsls	r0, (UNDEF: 14)
    3d70:	0100000a 	tsteq	r0, sl
    3d74:	0002d121 	andeq	sp, r2, r1, lsr #2
    3d78:	18030500 	stmdane	r3, {r8, sl}
    3d7c:	0e0000a0 	cdpeq	0, 0, cr0, cr0, cr0, {5}
    3d80:	00000a13 	andeq	r0, r0, r3, lsl sl
    3d84:	02d12201 	sbcseq	r2, r1, #268435456	; 0x10000000
    3d88:	03050000 	movweq	r0, #20480	; 0x5000
    3d8c:	00009ff8 	strdeq	r9, [r0], -r8
    3d90:	000a810e 	andeq	r8, sl, lr, lsl #2
    3d94:	d1230100 	teqle	r3, r0, lsl #2
    3d98:	05000002 	streq	r0, [r0, #-2]
    3d9c:	00a01403 	adceq	r1, r0, r3, lsl #8
    3da0:	0a710e00 	beq	1c475a8 <__bss_end__+0x1c3ccb0>
    3da4:	24010000 	strcs	r0, [r1], #-0
    3da8:	000002d1 	ldrdeq	r0, [r0], -r1
    3dac:	a0080305 	andge	r0, r8, r5, lsl #6
    3db0:	b7110000 	ldrlt	r0, [r1, -r0]
    3db4:	03000007 	movweq	r0, #7
    3db8:	07e2128a 	strbeq	r1, [r2, sl, lsl #5]!
    3dbc:	19020000 	stmdbne	r2, {}	; <UNPREDICTABLE>
    3dc0:	000003c5 	andeq	r0, r0, r5, asr #7
    3dc4:	00002c13 	andeq	r2, r0, r3, lsl ip
    3dc8:	00b21300 	adcseq	r1, r2, r0, lsl #6
    3dcc:	14000000 	strne	r0, [r0], #-0
    3dd0:	00000864 	andeq	r0, r0, r4, ror #16
    3dd4:	002ca903 	eoreq	sl, ip, r3, lsl #18
    3dd8:	03da0000 	bicseq	r0, sl, #0
    3ddc:	da130000 	ble	4c3de4 <__bss_end__+0x4b94ec>
    3de0:	00000003 	andeq	r0, r0, r3
    3de4:	03e0040f 	mvneq	r0, #251658240	; 0xf000000
    3de8:	e5150000 	ldr	r0, [r5, #-0]
    3dec:	16000003 	strne	r0, [r0], -r3
    3df0:	00075e12 	andeq	r5, r7, r2, lsl lr
    3df4:	fc9d0300 	ldc2	3, cr0, [sp], {0}
    3df8:	13000003 	movwne	r0, #3
    3dfc:	000003fc 	strdeq	r0, [r0], -ip
    3e00:	00002c13 	andeq	r2, r0, r3, lsl ip
    3e04:	040f0000 	streq	r0, [pc], #-0	; 3e0c <_start-0x41f4>
    3e08:	000003e5 	andeq	r0, r0, r5, ror #7
    3e0c:	00029b00 	andeq	r9, r2, r0, lsl #22
    3e10:	26000400 	strcs	r0, [r0], -r0, lsl #8
    3e14:	04000011 	streq	r0, [r0], #-17
    3e18:	0002ac01 	andeq	sl, r2, r1, lsl #24
    3e1c:	0b6f0100 	bleq	1bc4224 <__bss_end__+0x1bb992c>
    3e20:	04290000 	strteq	r0, [r9], #-0
    3e24:	9c0c0000 	stcls	0, cr0, [ip], {-0}
    3e28:	00ac0000 	adceq	r0, ip, r0
    3e2c:	104b0000 	subne	r0, fp, r0
    3e30:	04020000 	streq	r0, [r2], #-0
    3e34:	746e6905 	strbtvc	r6, [lr], #-2309	; 0x905
    3e38:	07040300 	streq	r0, [r4, -r0, lsl #6]
    3e3c:	00000044 	andeq	r0, r0, r4, asr #32
    3e40:	53060103 	movwpl	r0, #24835	; 0x6103
    3e44:	03000002 	movweq	r0, #2
    3e48:	026c0502 	rsbeq	r0, ip, #8388608	; 0x800000
    3e4c:	04030000 	streq	r0, [r3], #-0
    3e50:	00006705 	andeq	r6, r0, r5, lsl #14
    3e54:	05080300 	streq	r0, [r8, #-768]	; 0x300
    3e58:	00000062 	andeq	r0, r0, r2, rrx
    3e5c:	51080103 	tstpl	r8, r3, lsl #2
    3e60:	03000002 	movweq	r0, #2
    3e64:	01600702 	cmneq	r0, r2, lsl #14
    3e68:	04030000 	streq	r0, [r3], #-0
    3e6c:	00003f07 	andeq	r3, r0, r7, lsl #30
    3e70:	07080300 	streq	r0, [r8, -r0, lsl #6]
    3e74:	0000003a 	andeq	r0, r0, sl, lsr r0
    3e78:	f7070403 			; <UNDEFINED> instruction: 0xf7070403
    3e7c:	03000001 	movweq	r0, #1
    3e80:	025a0801 	subseq	r0, sl, #65536	; 0x10000
    3e84:	04040000 	streq	r0, [r4], #-0
    3e88:	0000007f 	andeq	r0, r0, pc, ror r0
    3e8c:	00007205 	andeq	r7, r0, r5, lsl #4
    3e90:	03040600 	movweq	r0, #17920	; 0x4600
    3e94:	0000fb14 	andeq	pc, r0, r4, lsl fp	; <UNPREDICTABLE>
    3e98:	0b8f0700 	bleq	fe3c5aa0 <__bss_end__+0xfe3bb1a8>
    3e9c:	e4800000 	str	r0, [r0], #0
    3ea0:	07028082 	streq	r8, [r2, -r2, lsl #1]
    3ea4:	00000b1a 	andeq	r0, r0, sl, lsl fp
    3ea8:	8082e480 	addhi	lr, r2, r0, lsl #9
    3eac:	0bcc0702 	bleq	ff305abc <__bss_end__+0xff2fb1c4>
    3eb0:	e4840000 	str	r0, [r4], #0
    3eb4:	07028082 	streq	r8, [r2, -r2, lsl #1]
    3eb8:	00000adc 	ldrdeq	r0, [r0], -ip
    3ebc:	8082e488 	addhi	lr, r2, r8, lsl #9
    3ec0:	0afd0702 	beq	fff45ad0 <__bss_end__+0xfff3b1d8>
    3ec4:	e48c0000 	str	r0, [ip], #0
    3ec8:	07028082 	streq	r8, [r2, -r2, lsl #1]
    3ecc:	00000b3e 	andeq	r0, r0, lr, lsr fp
    3ed0:	8082e490 	umullhi	lr, r2, r0, r4
    3ed4:	0b4c0702 	bleq	1305ae4 <__bss_end__+0x12fb1ec>
    3ed8:	e4940000 	ldr	r0, [r4], #0
    3edc:	07028082 	streq	r8, [r2, -r2, lsl #1]
    3ee0:	00000b2c 	andeq	r0, r0, ip, lsr #22
    3ee4:	8082e498 	umullhi	lr, r2, r8, r4
    3ee8:	0b980702 	bleq	fe605af8 <__bss_end__+0xfe5fb200>
    3eec:	e49c0000 	ldr	r0, [ip], #0
    3ef0:	07028082 	streq	r8, [r2, -r2, lsl #1]
    3ef4:	00000ba7 	andeq	r0, r0, r7, lsr #23
    3ef8:	8082e4a0 	addhi	lr, r2, r0, lsr #9
    3efc:	0aea0702 	beq	ffa85b0c <__bss_end__+0xffa7b214>
    3f00:	e4a40000 	strt	r0, [r4], #0
    3f04:	00028082 	andeq	r8, r2, r2, lsl #1
    3f08:	00021f08 	andeq	r1, r2, r8, lsl #30
    3f0c:	0c1b0100 	ldfeqs	f0, [fp], {-0}
    3f10:	6800009c 	stmdavs	r0, {r2, r3, r4, r7}
    3f14:	01000000 	mrseq	r0, (UNDEF: 0)
    3f18:	0001a79c 	muleq	r1, ip, r7
    3f1c:	0b090900 	bleq	246324 <__bss_end__+0x23ba2c>
    3f20:	23010000 	movwcs	r0, #4096	; 0x1000
    3f24:	0000002c 	andeq	r0, r0, ip, lsr #32
    3f28:	000b5a09 	andeq	r5, fp, r9, lsl #20
    3f2c:	2c240100 	stfcss	f0, [r4], #-0
    3f30:	0a000000 	beq	3f38 <_start-0x40c8>
    3f34:	00747364 	rsbseq	r7, r4, r4, ror #6
    3f38:	01a72701 			; <UNDEFINED> instruction: 0x01a72701
    3f3c:	0b000000 	bleq	3f44 <_start-0x40bc>
    3f40:	00637273 	rsbeq	r7, r3, r3, ror r2
    3f44:	01a72801 			; <UNDEFINED> instruction: 0x01a72801
    3f48:	6e0c0000 	cdpvs	0, 0, cr0, cr12, cr0, {0}
    3f4c:	2c290100 	stfcss	f0, [r9], #-0
    3f50:	01000000 	mrseq	r0, (UNDEF: 0)
    3f54:	9c3c0d50 	ldcls	13, cr0, [ip], #-320	; 0xfffffec0
    3f58:	00240000 	eoreq	r0, r4, r0
    3f5c:	01630000 	cmneq	r3, r0
    3f60:	690e0000 	stmdbvs	lr, {}	; <UNPREDICTABLE>
    3f64:	252a0100 	strcs	r0, [sl, #-256]!	; 0x100
    3f68:	ac000000 	stcge	0, cr0, [r0], {-0}
    3f6c:	00000026 	andeq	r0, r0, r6, lsr #32
    3f70:	009c1c0f 	addseq	r1, ip, pc, lsl #24
    3f74:	00025d00 	andeq	r5, r2, r0, lsl #26
    3f78:	00018000 	andeq	r8, r1, r0
    3f7c:	51011000 	mrspl	r1, (UNDEF: 1)
    3f80:	10ff0902 	rscsne	r0, pc, r2, lsl #18
    3f84:	0c055001 	stceq	0, cr5, [r5], {1}
    3f88:	2000b21c 	andcs	fp, r0, ip, lsl r2
    3f8c:	9c280f00 	stcls	15, cr0, [r8], #-0
    3f90:	025d0000 	subseq	r0, sp, #0
    3f94:	019d0000 	orrseq	r0, sp, r0
    3f98:	01100000 	tsteq	r0, r0
    3f9c:	ff090251 			; <UNDEFINED> instruction: 0xff090251
    3fa0:	05500110 	ldrbeq	r0, [r0, #-272]	; 0x110
    3fa4:	00b2200c 	adcseq	r2, r2, ip
    3fa8:	2c110020 	ldccs	0, cr0, [r1], {32}
    3fac:	7300009c 	movwvc	r0, #156	; 0x9c
    3fb0:	00000002 	andeq	r0, r0, r2
    3fb4:	002c0404 	eoreq	r0, ip, r4, lsl #8
    3fb8:	b6080000 	strlt	r0, [r8], -r0
    3fbc:	0100000b 	tsteq	r0, fp
    3fc0:	009c742e 	addseq	r7, ip, lr, lsr #8
    3fc4:	00004400 	andeq	r4, r0, r0, lsl #8
    3fc8:	329c0100 	addscc	r0, ip, #0, 2
    3fcc:	12000002 	andne	r0, r0, #2
    3fd0:	01006370 	tsteq	r0, r0, ror r3
    3fd4:	00002c2e 	andeq	r2, r0, lr, lsr #24
    3fd8:	0026cb00 	eoreq	ip, r6, r0, lsl #22
    3fdc:	01531300 	cmpeq	r3, r0, lsl #6
    3fe0:	02420000 	subeq	r0, r2, #0
    3fe4:	03050000 	movweq	r0, #20480	; 0x5000
    3fe8:	0000a308 	andeq	sl, r0, r8, lsl #6
    3fec:	009c8411 	addseq	r8, ip, r1, lsl r4
    3ff0:	00027a00 	andeq	r7, r2, r0, lsl #20
    3ff4:	9ca40f00 	stcls	15, cr0, [r4]
    3ff8:	02810000 	addeq	r0, r1, #0
    3ffc:	02280000 	eoreq	r0, r8, #0
    4000:	01100000 	tsteq	r0, r0
    4004:	2f080253 	svccs	0x00080253
    4008:	05520110 	ldrbeq	r0, [r2, #-272]	; 0x110
    400c:	00a30803 	adceq	r0, r3, r3, lsl #16
    4010:	51011000 	mrspl	r1, (UNDEF: 1)
    4014:	a35c0305 	cmpge	ip, #335544320	; 0x14000000
    4018:	01100000 	tsteq	r0, r0
    401c:	20030550 	andcs	r0, r3, r0, asr r5
    4020:	100000a3 	andne	r0, r0, r3, lsr #1
    4024:	02047d02 	andeq	r7, r4, #2, 26	; 0x80
    4028:	02100074 	andseq	r0, r0, #116	; 0x74
    402c:	0305007d 	movweq	r0, #20605	; 0x507d
    4030:	0000a37c 	andeq	sl, r0, ip, ror r3
    4034:	9ca81100 	stflss	f1, [r8]
    4038:	02970000 	addseq	r0, r7, #0
    403c:	14000000 	strne	r0, [r0], #-0
    4040:	00000072 	andeq	r0, r0, r2, ror r0
    4044:	00000242 	andeq	r0, r0, r2, asr #4
    4048:	00006b15 	andeq	r6, r0, r5, lsl fp
    404c:	05001500 	streq	r1, [r0, #-1280]	; 0x500
    4050:	00000232 	andeq	r0, r0, r2, lsr r2
    4054:	000b0909 	andeq	r0, fp, r9, lsl #18
    4058:	2c230100 	stfcss	f0, [r3], #-0
    405c:	09000000 	stmdbeq	r0, {}	; <UNPREDICTABLE>
    4060:	00000b5a 	andeq	r0, r0, sl, asr fp
    4064:	002c2401 	eoreq	r2, ip, r1, lsl #8
    4068:	d6160000 	ldrle	r0, [r6], -r0
    406c:	02000006 	andeq	r0, r0, #6
    4070:	0002739c 	muleq	r2, ip, r3
    4074:	002c1700 	eoreq	r1, ip, r0, lsl #14
    4078:	2c170000 	ldccs	0, cr0, [r7], {-0}
    407c:	00000000 	andeq	r0, r0, r0
    4080:	0007b718 	andeq	fp, r7, r8, lsl r7
    4084:	188a0200 	stmne	sl, {r9}
    4088:	00000100 	andeq	r0, r0, r0, lsl #2
    408c:	18191e02 	ldmdane	r9, {r1, r9, sl, fp, ip}
    4090:	02000004 	andeq	r0, r0, #4
    4094:	00002529 	andeq	r2, r0, r9, lsr #10
    4098:	00029700 	andeq	r9, r2, r0, lsl #14
    409c:	00791700 	rsbseq	r1, r9, r0, lsl #14
    40a0:	001a0000 	andseq	r0, sl, r0
    40a4:	0001ea18 	andeq	lr, r1, r8, lsl sl
    40a8:	00660200 	rsbeq	r0, r6, r0, lsl #4
    40ac:	000001c3 	andeq	r0, r0, r3, asr #3
    40b0:	127d0004 	rsbsne	r0, sp, #4
    40b4:	01040000 	mrseq	r0, (UNDEF: 4)
    40b8:	000002ac 	andeq	r0, r0, ip, lsr #5
    40bc:	000bef01 	andeq	lr, fp, r1, lsl #30
    40c0:	00042900 	andeq	r2, r4, r0, lsl #18
    40c4:	009e0800 	addseq	r0, lr, r0, lsl #16
    40c8:	00005000 	andeq	r5, r0, r0
    40cc:	00111800 	andseq	r1, r1, r0, lsl #16
    40d0:	05040200 	streq	r0, [r4, #-512]	; 0x200
    40d4:	00746e69 	rsbseq	r6, r4, r9, ror #28
    40d8:	000bda03 	andeq	sp, fp, r3, lsl #20
    40dc:	37d40200 	ldrbcc	r0, [r4, r0, lsl #4]
    40e0:	04000000 	streq	r0, [r0], #-0
    40e4:	00440704 	subeq	r0, r4, r4, lsl #14
    40e8:	01040000 	mrseq	r0, (UNDEF: 4)
    40ec:	00025306 	andeq	r5, r2, r6, lsl #6
    40f0:	05020400 	streq	r0, [r2, #-1024]	; 0x400
    40f4:	0000026c 	andeq	r0, r0, ip, ror #4
    40f8:	67050404 	strvs	r0, [r5, -r4, lsl #8]
    40fc:	04000000 	streq	r0, [r0], #-0
    4100:	00620508 	rsbeq	r0, r2, r8, lsl #10
    4104:	99030000 	stmdbls	r3, {}	; <UNPREDICTABLE>
    4108:	03000003 	movweq	r0, #3
    410c:	0000652e 	andeq	r6, r0, lr, lsr #10
    4110:	08010400 	stmdaeq	r1, {sl}
    4114:	00000251 	andeq	r0, r0, r1, asr r2
    4118:	60070204 	andvs	r0, r7, r4, lsl #4
    411c:	03000001 	movweq	r0, #1
    4120:	00000669 	andeq	r0, r0, r9, ror #12
    4124:	007e3403 	rsbseq	r3, lr, r3, lsl #8
    4128:	04040000 	streq	r0, [r4], #-0
    412c:	00003f07 	andeq	r3, r0, r7, lsl #30
    4130:	07080400 	streq	r0, [r8, -r0, lsl #8]
    4134:	0000003a 	andeq	r0, r0, sl, lsr r0
    4138:	f7070404 			; <UNDEFINED> instruction: 0xf7070404
    413c:	05000001 	streq	r0, [r0, #-1]
    4140:	08010404 	stmdaeq	r1, {r2, sl}
    4144:	0000025a 	andeq	r0, r0, sl, asr r2
    4148:	0e040c06 	cdpeq	12, 0, cr0, cr4, cr6, {0}
    414c:	000000d3 	ldrdeq	r0, [r0], -r3
    4150:	00787407 	rsbseq	r7, r8, r7, lsl #8
    4154:	005a0f04 	subseq	r0, sl, r4, lsl #30
    4158:	07000000 	streq	r0, [r0, -r0]
    415c:	04007872 	streq	r7, [r0], #-2162	; 0x872
    4160:	00005a0f 	andeq	r5, r0, pc, lsl #20
    4164:	e8080100 	stmda	r8, {r8}
    4168:	04000005 	streq	r0, [r0], #-5
    416c:	00007310 	andeq	r7, r0, r0, lsl r3
    4170:	99080400 	stmdbls	r8, {sl}
    4174:	04000005 	streq	r0, [r0], #-5
    4178:	00007311 	andeq	r7, r0, r1, lsl r3
    417c:	03000800 	movweq	r0, #2048	; 0x800
    4180:	000005d1 	ldrdeq	r0, [r0], -r1
    4184:	009c1204 	addseq	r1, ip, r4, lsl #4
    4188:	01090000 	mrseq	r0, (UNDEF: 9)
    418c:	00f91005 	rscseq	r1, r9, r5
    4190:	ed0a0000 	stc	0, cr0, [sl, #-0]
    4194:	01000005 	tsteq	r0, r5
    4198:	0005db0a 	andeq	sp, r5, sl, lsl #22
    419c:	c30a0200 	movwgt	r0, #41472	; 0xa200
    41a0:	03000005 	movweq	r0, #5
    41a4:	06020300 	streq	r0, [r2], -r0, lsl #6
    41a8:	10050000 	andne	r0, r5, r0
    41ac:	000000de 	ldrdeq	r0, [r0], -lr
    41b0:	14051406 	strne	r1, [r5], #-1030	; 0x406
    41b4:	00000131 	andeq	r0, r0, r1, lsr r1
    41b8:	00067208 	andeq	r7, r6, r8, lsl #4
    41bc:	37150500 	ldrcc	r0, [r5, -r0, lsl #10]
    41c0:	00000000 	andeq	r0, r0, r0
    41c4:	00065d08 	andeq	r5, r6, r8, lsl #26
    41c8:	f9180500 			; <UNDEFINED> instruction: 0xf9180500
    41cc:	04000000 	streq	r0, [r0], #-0
    41d0:	00062808 	andeq	r2, r6, r8, lsl #16
    41d4:	d31b0500 	tstle	fp, #0, 10
    41d8:	08000000 	stmdaeq	r0, {}	; <UNPREDICTABLE>
    41dc:	061a0300 	ldreq	r0, [sl], -r0, lsl #6
    41e0:	20050000 	andcs	r0, r5, r0
    41e4:	00000104 	andeq	r0, r0, r4, lsl #2
    41e8:	000be80b 	andeq	lr, fp, fp, lsl #16
    41ec:	7e050100 	adfvcs	f0, f5, f0
    41f0:	08000001 	stmdaeq	r0, {r0}
    41f4:	2800009e 	stmdacs	r0, {r1, r2, r3, r4, r7}
    41f8:	01000000 	mrseq	r0, (UNDEF: 0)
    41fc:	00017e9c 	muleq	r1, ip, lr
    4200:	00630c00 	rsbeq	r0, r3, r0, lsl #24
    4204:	017e0601 	cmneq	lr, r1, lsl #12
    4208:	00000000 	andeq	r0, r0, r0
    420c:	1c0d0900 	stcne	9, cr0, [sp], {-0}
    4210:	ab00009e 	blge	4490 <_start-0x3b70>
    4214:	0e000001 	cdpeq	0, 0, cr0, cr0, cr1, {0}
    4218:	34015201 	strcc	r5, [r1], #-513	; 0x201
    421c:	0151010e 	cmpeq	r1, lr, lsl #2
    4220:	50010e30 	andpl	r0, r1, r0, lsr lr
    4224:	24474203 	strbcs	r4, [r7], #-515	; 0x203
    4228:	040f0000 	streq	r0, [pc], #-0	; 4230 <_start-0x3dd0>
    422c:	00000131 	andeq	r0, r0, r1, lsr r1
    4230:	0006300b 	andeq	r3, r6, fp
    4234:	7e0c0100 	adfvce	f0, f4, f0
    4238:	30000001 	andcc	r0, r0, r1
    423c:	2800009e 	stmdacs	r0, {r1, r2, r3, r4, r7}
    4240:	01000000 	mrseq	r0, (UNDEF: 0)
    4244:	0001ab9c 	muleq	r1, ip, fp
    4248:	00630c00 	rsbeq	r0, r3, r0, lsl #24
    424c:	017e0d01 	cmneq	lr, r1, lsl #26
    4250:	00000000 	andeq	r0, r0, r0
    4254:	10000900 	andne	r0, r0, r0, lsl #18
    4258:	00000be1 	andeq	r0, r0, r1, ror #23
    425c:	00931b06 	addseq	r1, r3, r6, lsl #22
    4260:	93110000 	tstls	r1, #0
    4264:	11000000 	mrsne	r0, (UNDEF: 0)
    4268:	00000025 	andeq	r0, r0, r5, lsr #32
    426c:	00002c11 	andeq	r2, r0, r1, lsl ip
    4270:	3e000000 	cdpcc	0, 0, cr0, cr0, cr0, {0}
    4274:	04000001 	streq	r0, [r0], #-1
    4278:	00136100 	andseq	r6, r3, r0, lsl #2
    427c:	ac010400 	cfstrsge	mvf0, [r1], {-0}
    4280:	01000002 	tsteq	r0, r2
    4284:	00000c0a 	andeq	r0, r0, sl, lsl #24
    4288:	00000429 	andeq	r0, r0, r9, lsr #8
    428c:	00009e58 	andeq	r9, r0, r8, asr lr
    4290:	00000044 	andeq	r0, r0, r4, asr #32
    4294:	00001244 	andeq	r1, r0, r4, asr #4
    4298:	69050402 	stmdbvs	r5, {r1, sl}
    429c:	0300746e 	movweq	r7, #1134	; 0x46e
    42a0:	00440704 	subeq	r0, r4, r4, lsl #14
    42a4:	01030000 	mrseq	r0, (UNDEF: 3)
    42a8:	00025306 	andeq	r5, r2, r6, lsl #6
    42ac:	05020300 	streq	r0, [r2, #-768]	; 0x300
    42b0:	0000026c 	andeq	r0, r0, ip, ror #4
    42b4:	67050403 	strvs	r0, [r5, -r3, lsl #8]
    42b8:	03000000 	movweq	r0, #0
    42bc:	00620508 	rsbeq	r0, r2, r8, lsl #10
    42c0:	01030000 	mrseq	r0, (UNDEF: 3)
    42c4:	00025108 	andeq	r5, r2, r8, lsl #2
    42c8:	07020300 	streq	r0, [r2, -r0, lsl #6]
    42cc:	00000160 	andeq	r0, r0, r0, ror #2
    42d0:	3f070403 	svccc	0x00070403
    42d4:	03000000 	movweq	r0, #0
    42d8:	003a0708 	eorseq	r0, sl, r8, lsl #14
    42dc:	04030000 	streq	r0, [r3], #-0
    42e0:	0001f707 	andeq	pc, r1, r7, lsl #14
    42e4:	08010300 	stmdaeq	r1, {r8, r9}
    42e8:	0000025a 	andeq	r0, r0, sl, asr r2
    42ec:	007f0404 	rsbseq	r0, pc, r4, lsl #8
    42f0:	72050000 	andvc	r0, r5, #0
    42f4:	06000000 	streq	r0, [r0], -r0
    42f8:	00000c38 	andeq	r0, r0, r8, lsr ip
    42fc:	9e580201 	cdpls	2, 5, cr0, cr8, cr1, {0}
    4300:	00440000 	subeq	r0, r4, r0
    4304:	9c010000 	stcls	0, cr0, [r1], {-0}
    4308:	00000108 	andeq	r0, r0, r8, lsl #2
    430c:	00637007 	rsbeq	r7, r3, r7
    4310:	002c0201 	eoreq	r0, ip, r1, lsl #4
    4314:	26e90000 	strbtcs	r0, [r9], r0
    4318:	53080000 	movwpl	r0, #32768	; 0x8000
    431c:	18000001 	stmdane	r0, {r0}
    4320:	05000001 	streq	r0, [r0, #-1]
    4324:	00a38403 	adceq	r8, r3, r3, lsl #8
    4328:	9e680900 	cdpls	9, 6, cr0, cr8, cr0, {0}
    432c:	011d0000 	tsteq	sp, r0
    4330:	880a0000 	stmdahi	sl, {}	; <UNPREDICTABLE>
    4334:	2400009e 	strcs	r0, [r0], #-158	; 0x9e
    4338:	fe000001 	cdp2	0, 0, cr0, cr0, cr1, {0}
    433c:	0b000000 	bleq	4344 <_start-0x3cbc>
    4340:	32015301 	andcc	r5, r1, #67108864	; 0x4000000
    4344:	0552010b 	ldrbeq	r0, [r2, #-267]	; 0x10b
    4348:	00a38403 	adceq	r8, r3, r3, lsl #8
    434c:	51010b00 	tstpl	r1, r0, lsl #22
    4350:	a3980305 	orrsge	r0, r8, #335544320	; 0x14000000
    4354:	010b0000 	mrseq	r0, (UNDEF: 11)
    4358:	20030550 	andcs	r0, r3, r0, asr r5
    435c:	0b0000a3 	bleq	45f0 <_start-0x3a10>
    4360:	02047d02 	andeq	r7, r4, #2, 26	; 0x80
    4364:	020b0074 	andeq	r0, fp, #116	; 0x74
    4368:	0305007d 	movweq	r0, #20605	; 0x507d
    436c:	0000a3c8 	andeq	sl, r0, r8, asr #7
    4370:	9e8c0900 	cdpls	9, 8, cr0, cr12, cr0, {0}
    4374:	013a0000 	teqeq	sl, r0
    4378:	0c000000 	stceq	0, cr0, [r0], {-0}
    437c:	00000072 	andeq	r0, r0, r2, ror r0
    4380:	00000118 	andeq	r0, r0, r8, lsl r1
    4384:	00006b0d 	andeq	r6, r0, sp, lsl #22
    4388:	05001100 	streq	r1, [r0, #-256]	; 0x100
    438c:	00000108 	andeq	r0, r0, r8, lsl #2
    4390:	0001000e 	andeq	r0, r1, lr
    4394:	0f1e0200 	svceq	0x001e0200
    4398:	00000418 	andeq	r0, r0, r8, lsl r4
    439c:	00252902 	eoreq	r2, r5, r2, lsl #18
    43a0:	013a0000 	teqeq	sl, r0
    43a4:	79100000 	ldmdbvc	r0, {}	; <UNPREDICTABLE>
    43a8:	11000000 	mrsne	r0, (UNDEF: 0)
    43ac:	01ea0e00 	mvneq	r0, r0, lsl #28
    43b0:	66020000 	strvs	r0, [r2], -r0
    43b4:	00013e00 	andeq	r3, r1, r0, lsl #28
    43b8:	39000400 	stmdbcc	r0, {sl}
    43bc:	04000014 	streq	r0, [r0], #-20
    43c0:	0002ac01 	andeq	sl, r2, r1, lsl #24
    43c4:	0c4a0100 	stfeqe	f0, [sl], {-0}
    43c8:	04290000 	strteq	r0, [r9], #-0
    43cc:	9e9c0000 	cdpls	0, 9, cr0, cr12, cr0, {0}
    43d0:	00440000 	subeq	r0, r4, r0
    43d4:	12ed0000 	rscne	r0, sp, #0
    43d8:	04020000 	streq	r0, [r2], #-0
    43dc:	746e6905 	strbtvc	r6, [lr], #-2309	; 0x905
    43e0:	07040300 	streq	r0, [r4, -r0, lsl #6]
    43e4:	00000044 	andeq	r0, r0, r4, asr #32
    43e8:	53060103 	movwpl	r0, #24835	; 0x6103
    43ec:	03000002 	movweq	r0, #2
    43f0:	026c0502 	rsbeq	r0, ip, #8388608	; 0x800000
    43f4:	04030000 	streq	r0, [r3], #-0
    43f8:	00006705 	andeq	r6, r0, r5, lsl #14
    43fc:	05080300 	streq	r0, [r8, #-768]	; 0x300
    4400:	00000062 	andeq	r0, r0, r2, rrx
    4404:	51080103 	tstpl	r8, r3, lsl #2
    4408:	03000002 	movweq	r0, #2
    440c:	01600702 	cmneq	r0, r2, lsl #14
    4410:	04030000 	streq	r0, [r3], #-0
    4414:	00003f07 	andeq	r3, r0, r7, lsl #30
    4418:	07080300 	streq	r0, [r8, -r0, lsl #6]
    441c:	0000003a 	andeq	r0, r0, sl, lsr r0
    4420:	f7070403 			; <UNDEFINED> instruction: 0xf7070403
    4424:	03000001 	movweq	r0, #1
    4428:	025a0801 	subseq	r0, sl, #65536	; 0x10000
    442c:	04040000 	streq	r0, [r4], #-0
    4430:	0000007f 	andeq	r0, r0, pc, ror r0
    4434:	00007205 	andeq	r7, r0, r5, lsl #4
    4438:	0c760600 	ldcleq	6, cr0, [r6], #-0
    443c:	02010000 	andeq	r0, r1, #0
    4440:	00009e9c 	muleq	r0, ip, lr
    4444:	00000044 	andeq	r0, r0, r4, asr #32
    4448:	01089c01 	tsteq	r8, r1, lsl #24
    444c:	70070000 	andvc	r0, r7, r0
    4450:	02010063 	andeq	r0, r1, #99	; 0x63
    4454:	0000002c 	andeq	r0, r0, ip, lsr #32
    4458:	00002707 	andeq	r2, r0, r7, lsl #14
    445c:	00015308 	andeq	r5, r1, r8, lsl #6
    4460:	00011800 	andeq	r1, r1, r0, lsl #16
    4464:	d4030500 	strle	r0, [r3], #-1280	; 0x500
    4468:	090000a3 	stmdbeq	r0, {r0, r1, r5, r7}
    446c:	00009eac 	andeq	r9, r0, ip, lsr #29
    4470:	0000011d 	andeq	r0, r0, sp, lsl r1
    4474:	009ecc0a 	addseq	ip, lr, sl, lsl #24
    4478:	00012400 	andeq	r2, r1, r0, lsl #8
    447c:	0000fe00 	andeq	pc, r0, r0, lsl #28
    4480:	53010b00 	movwpl	r0, #6912	; 0x1b00
    4484:	010b3201 	tsteq	fp, r1, lsl #4
    4488:	d4030552 	strle	r0, [r3], #-1362	; 0x552
    448c:	0b0000a3 	bleq	4720 <_start-0x38e0>
    4490:	03055101 	movweq	r5, #20737	; 0x5101
    4494:	0000a3ec 	andeq	sl, r0, ip, ror #7
    4498:	0550010b 	ldrbeq	r0, [r0, #-267]	; 0x10b
    449c:	00a32003 	adceq	r2, r3, r3
    44a0:	7d020b00 	vstrvc	d0, [r2, #-0]
    44a4:	00740204 	rsbseq	r0, r4, r4, lsl #4
    44a8:	007d020b 	rsbseq	r0, sp, fp, lsl #4
    44ac:	a4180305 	ldrge	r0, [r8], #-773	; 0x305
    44b0:	09000000 	stmdbeq	r0, {}	; <UNPREDICTABLE>
    44b4:	00009ed0 	ldrdeq	r9, [r0], -r0
    44b8:	0000013a 	andeq	r0, r0, sl, lsr r1
    44bc:	00720c00 	rsbseq	r0, r2, r0, lsl #24
    44c0:	01180000 	tsteq	r8, r0
    44c4:	6b0d0000 	blvs	3444cc <__bss_end__+0x339bd4>
    44c8:	15000000 	strne	r0, [r0, #-0]
    44cc:	01080500 	tsteq	r8, r0, lsl #10
    44d0:	000e0000 	andeq	r0, lr, r0
    44d4:	02000001 	andeq	r0, r0, #1
    44d8:	04180f1e 	ldreq	r0, [r8], #-3870	; 0xf1e
    44dc:	29020000 	stmdbcs	r2, {}	; <UNPREDICTABLE>
    44e0:	00000025 	andeq	r0, r0, r5, lsr #32
    44e4:	0000013a 	andeq	r0, r0, sl, lsr r1
    44e8:	00007910 	andeq	r7, r0, r0, lsl r9
    44ec:	0e001100 	adfeqs	f1, f0, f0
    44f0:	000001ea 	andeq	r0, r0, sl, ror #3
    44f4:	3e006602 	cfmadd32cc	mvax0, mvfx6, mvfx0, mvfx2
    44f8:	04000001 	streq	r0, [r0], #-1
    44fc:	00151100 	andseq	r1, r5, r0, lsl #2
    4500:	ac010400 	cfstrsge	mvf0, [r1], {-0}
    4504:	01000002 	tsteq	r0, r2
    4508:	00000c99 	muleq	r0, r9, ip
    450c:	00000429 	andeq	r0, r0, r9, lsr #8
    4510:	00009ee0 	andeq	r9, r0, r0, ror #29
    4514:	00000044 	andeq	r0, r0, r4, asr #32
    4518:	00001394 	muleq	r0, r4, r3
    451c:	69050402 	stmdbvs	r5, {r1, sl}
    4520:	0300746e 	movweq	r7, #1134	; 0x46e
    4524:	00440704 	subeq	r0, r4, r4, lsl #14
    4528:	01030000 	mrseq	r0, (UNDEF: 3)
    452c:	00025306 	andeq	r5, r2, r6, lsl #6
    4530:	05020300 	streq	r0, [r2, #-768]	; 0x300
    4534:	0000026c 	andeq	r0, r0, ip, ror #4
    4538:	67050403 	strvs	r0, [r5, -r3, lsl #8]
    453c:	03000000 	movweq	r0, #0
    4540:	00620508 	rsbeq	r0, r2, r8, lsl #10
    4544:	01030000 	mrseq	r0, (UNDEF: 3)
    4548:	00025108 	andeq	r5, r2, r8, lsl #2
    454c:	07020300 	streq	r0, [r2, -r0, lsl #6]
    4550:	00000160 	andeq	r0, r0, r0, ror #2
    4554:	3f070403 	svccc	0x00070403
    4558:	03000000 	movweq	r0, #0
    455c:	003a0708 	eorseq	r0, sl, r8, lsl #14
    4560:	04030000 	streq	r0, [r3], #-0
    4564:	0001f707 	andeq	pc, r1, r7, lsl #14
    4568:	08010300 	stmdaeq	r1, {r8, r9}
    456c:	0000025a 	andeq	r0, r0, sl, asr r2
    4570:	007f0404 	rsbseq	r0, pc, r4, lsl #8
    4574:	72050000 	andvc	r0, r5, #0
    4578:	06000000 	streq	r0, [r0], -r0
    457c:	00000c8c 	andeq	r0, r0, ip, lsl #25
    4580:	9ee00201 	cdpls	2, 14, cr0, cr0, cr1, {0}
    4584:	00440000 	subeq	r0, r4, r0
    4588:	9c010000 	stcls	0, cr0, [r1], {-0}
    458c:	00000108 	andeq	r0, r0, r8, lsl #2
    4590:	00637007 	rsbeq	r7, r3, r7
    4594:	002c0201 	eoreq	r0, ip, r1, lsl #4
    4598:	27250000 	strcs	r0, [r5, -r0]!
    459c:	53080000 	movwpl	r0, #32768	; 0x8000
    45a0:	18000001 	stmdane	r0, {r0}
    45a4:	05000001 	streq	r0, [r0, #-1]
    45a8:	00a42803 	adceq	r2, r4, r3, lsl #16
    45ac:	9ef00900 	cdpls	9, 15, cr0, cr0, cr0, {0}
    45b0:	011d0000 	tsteq	sp, r0
    45b4:	100a0000 	andne	r0, sl, r0
    45b8:	2400009f 	strcs	r0, [r0], #-159	; 0x9f
    45bc:	fe000001 	cdp2	0, 0, cr0, cr0, cr1, {0}
    45c0:	0b000000 	bleq	45c8 <_start-0x3a38>
    45c4:	32015301 	andcc	r5, r1, #67108864	; 0x4000000
    45c8:	0552010b 	ldrbeq	r0, [r2, #-267]	; 0x10b
    45cc:	00a42803 	adceq	r2, r4, r3, lsl #16
    45d0:	51010b00 	tstpl	r1, r0, lsl #22
    45d4:	a4380305 	ldrtge	r0, [r8], #-773	; 0x305
    45d8:	010b0000 	mrseq	r0, (UNDEF: 11)
    45dc:	20030550 	andcs	r0, r3, r0, asr r5
    45e0:	0b0000a3 	bleq	4874 <_start-0x378c>
    45e4:	02047d02 	andeq	r7, r4, #2, 26	; 0x80
    45e8:	020b0074 	andeq	r0, fp, #116	; 0x74
    45ec:	0305007d 	movweq	r0, #20605	; 0x507d
    45f0:	0000a464 	andeq	sl, r0, r4, ror #8
    45f4:	9f140900 	svcls	0x00140900
    45f8:	013a0000 	teqeq	sl, r0
    45fc:	0c000000 	stceq	0, cr0, [r0], {-0}
    4600:	00000072 	andeq	r0, r0, r2, ror r0
    4604:	00000118 	andeq	r0, r0, r8, lsl r1
    4608:	00006b0d 	andeq	r6, r0, sp, lsl #22
    460c:	05000c00 	streq	r0, [r0, #-3072]	; 0xc00
    4610:	00000108 	andeq	r0, r0, r8, lsl #2
    4614:	0001000e 	andeq	r0, r1, lr
    4618:	0f1e0200 	svceq	0x001e0200
    461c:	00000418 	andeq	r0, r0, r8, lsl r4
    4620:	00252902 	eoreq	r2, r5, r2, lsl #18
    4624:	013a0000 	teqeq	sl, r0
    4628:	79100000 	ldmdbvc	r0, {}	; <UNPREDICTABLE>
    462c:	11000000 	mrsne	r0, (UNDEF: 0)
    4630:	01ea0e00 	mvneq	r0, r0, lsl #28
    4634:	66020000 	strvs	r0, [r2], -r0
    4638:	00013e00 	andeq	r3, r1, r0, lsl #28
    463c:	e9000400 	stmdb	r0, {sl}
    4640:	04000015 	streq	r0, [r0], #-21
    4644:	0002ac01 	andeq	sl, r2, r1, lsl #24
    4648:	0cc20100 	stfeqe	f0, [r2], {0}
    464c:	04290000 	strteq	r0, [r9], #-0
    4650:	9f240000 	svcls	0x00240000
    4654:	00440000 	subeq	r0, r4, r0
    4658:	14380000 	ldrtne	r0, [r8], #-0
    465c:	04020000 	streq	r0, [r2], #-0
    4660:	746e6905 	strbtvc	r6, [lr], #-2309	; 0x905
    4664:	07040300 	streq	r0, [r4, -r0, lsl #6]
    4668:	00000044 	andeq	r0, r0, r4, asr #32
    466c:	53060103 	movwpl	r0, #24835	; 0x6103
    4670:	03000002 	movweq	r0, #2
    4674:	026c0502 	rsbeq	r0, ip, #8388608	; 0x800000
    4678:	04030000 	streq	r0, [r3], #-0
    467c:	00006705 	andeq	r6, r0, r5, lsl #14
    4680:	05080300 	streq	r0, [r8, #-768]	; 0x300
    4684:	00000062 	andeq	r0, r0, r2, rrx
    4688:	51080103 	tstpl	r8, r3, lsl #2
    468c:	03000002 	movweq	r0, #2
    4690:	01600702 	cmneq	r0, r2, lsl #14
    4694:	04030000 	streq	r0, [r3], #-0
    4698:	00003f07 	andeq	r3, r0, r7, lsl #30
    469c:	07080300 	streq	r0, [r8, -r0, lsl #6]
    46a0:	0000003a 	andeq	r0, r0, sl, lsr r0
    46a4:	f7070403 			; <UNDEFINED> instruction: 0xf7070403
    46a8:	03000001 	movweq	r0, #1
    46ac:	025a0801 	subseq	r0, sl, #65536	; 0x10000
    46b0:	04040000 	streq	r0, [r4], #-0
    46b4:	0000007f 	andeq	r0, r0, pc, ror r0
    46b8:	00007205 	andeq	r7, r0, r5, lsl #4
    46bc:	0cf40600 	ldcleq	6, cr0, [r4]
    46c0:	02010000 	andeq	r0, r1, #0
    46c4:	00009f24 	andeq	r9, r0, r4, lsr #30
    46c8:	00000044 	andeq	r0, r0, r4, asr #32
    46cc:	01089c01 	tsteq	r8, r1, lsl #24
    46d0:	70070000 	andvc	r0, r7, r0
    46d4:	02010063 	andeq	r0, r1, #99	; 0x63
    46d8:	0000002c 	andeq	r0, r0, ip, lsr #32
    46dc:	00002743 	andeq	r2, r0, r3, asr #14
    46e0:	00015308 	andeq	r5, r1, r8, lsl #6
    46e4:	00011800 	andeq	r1, r1, r0, lsl #16
    46e8:	6c030500 	cfstr32vs	mvfx0, [r3], {-0}
    46ec:	090000a4 	stmdbeq	r0, {r2, r5, r7}
    46f0:	00009f34 	andeq	r9, r0, r4, lsr pc
    46f4:	0000011d 	andeq	r0, r0, sp, lsl r1
    46f8:	009f540a 	addseq	r5, pc, sl, lsl #8
    46fc:	00012400 	andeq	r2, r1, r0, lsl #8
    4700:	0000fe00 	andeq	pc, r0, r0, lsl #28
    4704:	53010b00 	movwpl	r0, #6912	; 0x1b00
    4708:	010b3201 	tsteq	fp, r1, lsl #4
    470c:	6c030552 	cfstr32vs	mvfx0, [r3], {82}	; 0x52
    4710:	0b0000a4 	bleq	49a8 <_start-0x3658>
    4714:	03055101 	movweq	r5, #20737	; 0x5101
    4718:	0000a48c 	andeq	sl, r0, ip, lsl #9
    471c:	0550010b 	ldrbeq	r0, [r0, #-267]	; 0x10b
    4720:	00a32003 	adceq	r2, r3, r3
    4724:	7d020b00 	vstrvc	d0, [r2, #-0]
    4728:	00740204 	rsbseq	r0, r4, r4, lsl #4
    472c:	007d020b 	rsbseq	r0, sp, fp, lsl #4
    4730:	a4c00305 	strbge	r0, [r0], #773	; 0x305
    4734:	09000000 	stmdbeq	r0, {}	; <UNPREDICTABLE>
    4738:	00009f58 	andeq	r9, r0, r8, asr pc
    473c:	0000013a 	andeq	r0, r0, sl, lsr r1
    4740:	00720c00 	rsbseq	r0, r2, r0, lsl #24
    4744:	01180000 	tsteq	r8, r0
    4748:	6b0d0000 	blvs	344750 <__bss_end__+0x339e58>
    474c:	1c000000 	stcne	0, cr0, [r0], {-0}
    4750:	01080500 	tsteq	r8, r0, lsl #10
    4754:	000e0000 	andeq	r0, lr, r0
    4758:	02000001 	andeq	r0, r0, #1
    475c:	04180f1e 	ldreq	r0, [r8], #-3870	; 0xf1e
    4760:	29020000 	stmdbcs	r2, {}	; <UNPREDICTABLE>
    4764:	00000025 	andeq	r0, r0, r5, lsr #32
    4768:	0000013a 	andeq	r0, r0, sl, lsr r1
    476c:	00007910 	andeq	r7, r0, r0, lsl r9
    4770:	0e001100 	adfeqs	f1, f0, f0
    4774:	000001ea 	andeq	r0, r0, sl, ror #3
    4778:	db006602 	blle	1df88 <__bss_end__+0x13690>
    477c:	04000000 	streq	r0, [r0], #-0
    4780:	0016c100 	andseq	ip, r6, r0, lsl #2
    4784:	ac010400 	cfstrsge	mvf0, [r1], {-0}
    4788:	01000002 	tsteq	r0, r2
    478c:	00000d11 	andeq	r0, r0, r1, lsl sp
    4790:	00000429 	andeq	r0, r0, r9, lsr #8
    4794:	00009f68 	andeq	r9, r0, r8, ror #30
    4798:	00000020 	andeq	r0, r0, r0, lsr #32
    479c:	000014e5 	andeq	r1, r0, r5, ror #9
    47a0:	53060102 	movwpl	r0, #24834	; 0x6102
    47a4:	02000002 	andeq	r0, r0, #2
    47a8:	02510801 	subseq	r0, r1, #65536	; 0x10000
    47ac:	02020000 	andeq	r0, r2, #0
    47b0:	00026c05 	andeq	r6, r2, r5, lsl #24
    47b4:	07020200 	streq	r0, [r2, -r0, lsl #4]
    47b8:	00000160 	andeq	r0, r0, r0, ror #2
    47bc:	69050403 	stmdbvs	r5, {r0, r1, sl}
    47c0:	0200746e 	andeq	r7, r0, #1845493760	; 0x6e000000
    47c4:	00440704 	subeq	r0, r4, r4, lsl #14
    47c8:	08020000 	stmdaeq	r2, {}	; <UNPREDICTABLE>
    47cc:	00006205 	andeq	r6, r0, r5, lsl #4
    47d0:	07080200 	streq	r0, [r8, -r0, lsl #4]
    47d4:	0000003a 	andeq	r0, r0, sl, lsr r0
    47d8:	67050402 	strvs	r0, [r5, -r2, lsl #8]
    47dc:	02000000 	andeq	r0, r0, #0
    47e0:	01f70704 	mvnseq	r0, r4, lsl #14
    47e4:	04040000 	streq	r0, [r4], #-0
    47e8:	3f070402 	svccc	0x00070402
    47ec:	05000000 	streq	r0, [r0, #-0]
    47f0:	00007a04 	andeq	r7, r0, r4, lsl #20
    47f4:	08010200 	stmdaeq	r1, {r9}
    47f8:	0000025a 	andeq	r0, r0, sl, asr r2
    47fc:	000bda06 	andeq	sp, fp, r6, lsl #20
    4800:	48d40200 	ldmmi	r4, {r9}^
    4804:	07000000 	streq	r0, [r0, -r0]
    4808:	00000be1 	andeq	r0, r0, r1, ror #23
    480c:	006b1b03 	rsbeq	r1, fp, r3, lsl #22
    4810:	9f680000 	svcls	0x00680000
    4814:	00200000 	eoreq	r0, r0, r0
    4818:	9c010000 	stcls	0, cr0, [r1], {-0}
    481c:	00705f08 	rsbseq	r5, r0, r8, lsl #30
    4820:	006b0301 	rsbeq	r0, fp, r1, lsl #6
    4824:	50010000 	andpl	r0, r1, r0
    4828:	01006308 	tsteq	r0, r8, lsl #6
    482c:	00004103 	andeq	r4, r0, r3, lsl #2
    4830:	09510100 	ldmdbeq	r1, {r8}^
    4834:	0301006e 	movweq	r0, #4206	; 0x106e
    4838:	00000081 	andeq	r0, r0, r1, lsl #1
    483c:	00002761 	andeq	r2, r0, r1, ror #14
    4840:	0100700a 	tsteq	r0, sl
    4844:	00007404 	andeq	r7, r0, r4, lsl #8
    4848:	00278200 	eoreq	r8, r7, r0, lsl #4
    484c:	00650b00 	rsbeq	r0, r5, r0, lsl #22
    4850:	00740401 	rsbseq	r0, r4, r1, lsl #8
    4854:	52010000 	andpl	r0, r1, #0
	...

Disassembly of section .debug_abbrev:

00000000 <.debug_abbrev>:
       0:	25011101 	strcs	r1, [r1, #-257]	; 0x101
       4:	030b130e 	movweq	r1, #45838	; 0xb30e
       8:	110e1b0e 	tstne	lr, lr, lsl #22
       c:	10061201 	andne	r1, r6, r1, lsl #4
      10:	02000017 	andeq	r0, r0, #23
      14:	0b0b0024 	bleq	2c00ac <__bss_end__+0x2b57b4>
      18:	08030b3e 	stmdaeq	r3, {r1, r2, r3, r4, r5, r8, r9, fp}
      1c:	24030000 	strcs	r0, [r3], #-0
      20:	3e0b0b00 	vmlacc.f64	d0, d11, d0
      24:	000e030b 	andeq	r0, lr, fp, lsl #6
      28:	00160400 	andseq	r0, r6, r0, lsl #8
      2c:	0b3a0e03 	bleq	e83840 <__bss_end__+0xe78f48>
      30:	13490b3b 	movtne	r0, #39739	; 0x9b3b
      34:	0f050000 	svceq	0x00050000
      38:	490b0b00 	stmdbmi	fp, {r8, r9, fp}
      3c:	06000013 			; <UNDEFINED> instruction: 0x06000013
      40:	13490026 	movtne	r0, #36902	; 0x9026
      44:	04070000 	streq	r0, [r7], #-0
      48:	3a0b0b01 	bcc	2c2c54 <__bss_end__+0x2b835c>
      4c:	010b3b0b 	tsteq	fp, fp, lsl #22
      50:	08000013 	stmdaeq	r0, {r0, r1, r4}
      54:	0e030028 	cdpeq	0, 0, cr0, cr3, cr8, {1}
      58:	00000d1c 	andeq	r0, r0, ip, lsl sp
      5c:	49003509 	stmdbmi	r0, {r0, r3, r8, sl, ip, sp}
      60:	0a000013 	beq	b4 <_start-0x7f4c>
      64:	0e03012e 	adfeqsp	f0, f3, #0.5
      68:	0b3b0b3a 	bleq	ec2d58 <__bss_end__+0xeb8460>
      6c:	0b201927 	bleq	806510 <__bss_end__+0x7fbc18>
      70:	00001301 	andeq	r1, r0, r1, lsl #6
      74:	0300050b 	movweq	r0, #1291	; 0x50b
      78:	3b0b3a08 	blcc	2ce8a0 <__bss_end__+0x2c3fa8>
      7c:	0013490b 	andseq	r4, r3, fp, lsl #18
      80:	012e0c00 	teqeq	lr, r0, lsl #24
      84:	0e03193f 	mcreq	9, 0, r1, cr3, cr15, {1}
      88:	0b3b0b3a 	bleq	ec2d78 <__bss_end__+0xeb8480>
      8c:	13491927 	movtne	r1, #39207	; 0x9927
      90:	06120111 			; <UNDEFINED> instruction: 0x06120111
      94:	42971840 	addsmi	r1, r7, #64, 16	; 0x400000
      98:	00130119 	andseq	r0, r3, r9, lsl r1
      9c:	00050d00 	andeq	r0, r5, r0, lsl #26
      a0:	0b3a0803 	bleq	e820b4 <__bss_end__+0xe777bc>
      a4:	13490b3b 	movtne	r0, #39739	; 0x9b3b
      a8:	00001702 	andeq	r1, r0, r2, lsl #14
      ac:	0300340e 	movweq	r3, #1038	; 0x40e
      b0:	3413490e 	ldrcc	r4, [r3], #-2318	; 0x90e
      b4:	00180219 	andseq	r0, r8, r9, lsl r2
      b8:	00340f00 	eorseq	r0, r4, r0, lsl #30
      bc:	0b3a0e03 	bleq	e838d0 <__bss_end__+0xe78fd8>
      c0:	13490b3b 	movtne	r0, #39739	; 0x9b3b
      c4:	34100000 	ldrcc	r0, [r0], #-0
      c8:	3a0e0300 	bcc	380cd0 <__bss_end__+0x3763d8>
      cc:	490b3b0b 	stmdbmi	fp, {r0, r1, r3, r8, r9, fp, ip, sp}
      d0:	00170213 	andseq	r0, r7, r3, lsl r2
      d4:	010b1100 	mrseq	r1, (UNDEF: 27)
      d8:	06120111 			; <UNDEFINED> instruction: 0x06120111
      dc:	00001301 	andeq	r1, r0, r1, lsl #6
      e0:	01828912 	orreq	r8, r2, r2, lsl r9
      e4:	31011100 	mrscc	r1, (UNDEF: 17)
      e8:	13000013 	movwne	r0, #19
      ec:	01018289 	smlabbeq	r1, r9, r2, r8
      f0:	13310111 	teqne	r1, #1073741828	; 0x40000004
      f4:	00001301 	andeq	r1, r0, r1, lsl #6
      f8:	01828a14 	orreq	r8, r2, r4, lsl sl
      fc:	91180200 	tstls	r8, r0, lsl #4
     100:	00001842 	andeq	r1, r0, r2, asr #16
     104:	01828915 	orreq	r8, r2, r5, lsl r9
     108:	31011101 	tstcc	r1, r1, lsl #2
     10c:	16000013 			; <UNDEFINED> instruction: 0x16000013
     110:	13490101 	movtne	r0, #37121	; 0x9101
     114:	00001301 	andeq	r1, r0, r1, lsl #6
     118:	49002117 	stmdbmi	r0, {r0, r1, r2, r4, r8, sp}
     11c:	000b2f13 	andeq	r2, fp, r3, lsl pc
     120:	00341800 	eorseq	r1, r4, r0, lsl #16
     124:	0b3a0803 	bleq	e82138 <__bss_end__+0xe77840>
     128:	13490b3b 	movtne	r0, #39739	; 0x9b3b
     12c:	00000b1c 	andeq	r0, r0, ip, lsl fp
     130:	03003419 	movweq	r3, #1049	; 0x419
     134:	3b0b3a0e 	blcc	2ce974 <__bss_end__+0x2c407c>
     138:	0213490b 	andseq	r4, r3, #180224	; 0x2c000
     13c:	1a000018 	bne	1a4 <_start-0x7e5c>
     140:	0111010b 	tsteq	r1, fp, lsl #2
     144:	00000612 	andeq	r0, r0, r2, lsl r6
     148:	3f012e1b 	svccc	0x00012e1b
     14c:	3a0e0319 	bcc	380db8 <__bss_end__+0x3764c0>
     150:	270b3b0b 	strcs	r3, [fp, -fp, lsl #22]
     154:	12011119 	andne	r1, r1, #1073741830	; 0x40000006
     158:	97184006 	ldrls	r4, [r8, -r6]
     15c:	13011942 	movwne	r1, #6466	; 0x1942
     160:	051c0000 	ldreq	r0, [ip, #-0]
     164:	3a0e0300 	bcc	380d6c <__bss_end__+0x376474>
     168:	490b3b0b 	stmdbmi	fp, {r0, r1, r3, r8, r9, fp, ip, sp}
     16c:	00170213 	andseq	r0, r7, r3, lsl r2
     170:	011d1d00 	tsteq	sp, r0, lsl #26
     174:	01111331 	tsteq	r1, r1, lsr r3
     178:	0b580612 	bleq	16019c8 <__bss_end__+0x15f70d0>
     17c:	13010b59 	movwne	r0, #7001	; 0x1b59
     180:	051e0000 	ldreq	r0, [lr, #-0]
     184:	02133100 	andseq	r3, r3, #0, 2
     188:	1f000017 	svcne	0x00000017
     18c:	13310005 	teqne	r1, #5
     190:	00001802 	andeq	r1, r0, r2, lsl #16
     194:	31011d20 	tstcc	r1, r0, lsr #26
     198:	12011113 	andne	r1, r1, #-1073741820	; 0xc0000004
     19c:	590b5806 	stmdbpl	fp, {r1, r2, fp, ip, lr}
     1a0:	2100000b 	tstcs	r0, fp
     1a4:	0e03012e 	adfeqsp	f0, f3, #0.5
     1a8:	0b3b0b3a 	bleq	ec2e98 <__bss_end__+0xeb85a0>
     1ac:	01111927 	tsteq	r1, r7, lsr #18
     1b0:	18400612 	stmdane	r0, {r1, r4, r9, sl}^
     1b4:	01194297 			; <UNDEFINED> instruction: 0x01194297
     1b8:	22000013 	andcs	r0, r0, #19
     1bc:	0e030034 	mcreq	0, 0, r0, cr3, cr4, {1}
     1c0:	0b3b0b3a 	bleq	ec2eb0 <__bss_end__+0xeb85b8>
     1c4:	061c1349 	ldreq	r1, [ip], -r9, asr #6
     1c8:	34230000 	strtcc	r0, [r3], #-0
     1cc:	3a0e0300 	bcc	380dd4 <__bss_end__+0x3764dc>
     1d0:	490b3b0b 	stmdbmi	fp, {r0, r1, r3, r8, r9, fp, ip, sp}
     1d4:	02193f13 	andseq	r3, r9, #19, 30	; 0x4c
     1d8:	24000018 	strcs	r0, [r0], #-24
     1dc:	193f002e 	ldmdbne	pc!, {r1, r2, r3, r5}	; <UNPREDICTABLE>
     1e0:	0b3a0e03 	bleq	e839f4 <__bss_end__+0xe790fc>
     1e4:	19270b3b 	stmdbne	r7!, {r0, r1, r3, r4, r5, r8, r9, fp}
     1e8:	0000193c 	andeq	r1, r0, ip, lsr r9
     1ec:	3f012e25 	svccc	0x00012e25
     1f0:	3a0e0319 	bcc	380e5c <__bss_end__+0x376564>
     1f4:	270b3b0b 	strcs	r3, [fp, -fp, lsl #22]
     1f8:	3c134919 	ldccc	9, cr4, [r3], {25}
     1fc:	00130119 	andseq	r0, r3, r9, lsl r1
     200:	00052600 	andeq	r2, r5, r0, lsl #12
     204:	00001349 	andeq	r1, r0, r9, asr #6
     208:	00001827 	andeq	r1, r0, r7, lsr #16
     20c:	012e2800 	teqeq	lr, r0, lsl #16
     210:	0e03193f 	mcreq	9, 0, r1, cr3, cr15, {1}
     214:	0b3b0b3a 	bleq	ec2f04 <__bss_end__+0xeb860c>
     218:	193c1927 	ldmdbne	ip!, {r0, r1, r2, r5, r8, fp, ip}
     21c:	00001301 	andeq	r1, r0, r1, lsl #6
     220:	01110100 	tsteq	r1, r0, lsl #2
     224:	0b130e25 	bleq	4c3ac0 <__bss_end__+0x4b91c8>
     228:	0e1b0e03 	cdpeq	14, 1, cr0, cr11, cr3, {0}
     22c:	06120111 			; <UNDEFINED> instruction: 0x06120111
     230:	00001710 	andeq	r1, r0, r0, lsl r7
     234:	03001602 	movweq	r1, #1538	; 0x602
     238:	3b0b3a0e 	blcc	2cea78 <__bss_end__+0x2c4180>
     23c:	0013490b 	andseq	r4, r3, fp, lsl #18
     240:	01130300 	tsteq	r3, r0, lsl #6
     244:	0b0b0e03 	bleq	2c3a58 <__bss_end__+0x2b9160>
     248:	0b3b0b3a 	bleq	ec2f38 <__bss_end__+0xeb8640>
     24c:	00001301 	andeq	r1, r0, r1, lsl #6
     250:	03000d04 	movweq	r0, #3332	; 0xd04
     254:	3813490e 	ldmdacc	r3, {r1, r2, r3, r8, fp, lr}
     258:	0019340b 	andseq	r3, r9, fp, lsl #8
     25c:	000f0500 	andeq	r0, pc, r0, lsl #10
     260:	00000b0b 	andeq	r0, r0, fp, lsl #22
     264:	0b002406 	bleq	9284 <gpio_int_rising_edge+0x18>
     268:	030b3e0b 	movweq	r3, #48651	; 0xbe0b
     26c:	07000008 	streq	r0, [r0, -r8]
     270:	0b0b0024 	bleq	2c0308 <__bss_end__+0x2b5a10>
     274:	0e030b3e 	vmoveq.16	d3[0], r0
     278:	0f080000 	svceq	0x00080000
     27c:	490b0b00 	stmdbmi	fp, {r8, r9, fp}
     280:	09000013 	stmdbeq	r0, {r0, r1, r4}
     284:	13490026 	movtne	r0, #36902	; 0x9026
     288:	2e0a0000 	cdpcs	0, 0, cr0, cr10, cr0, {0}
     28c:	03193f01 	tsteq	r9, #1, 30
     290:	3b0b3a0e 	blcc	2cead0 <__bss_end__+0x2c41d8>
     294:	4919270b 	ldmdbmi	r9, {r0, r1, r3, r8, r9, sl, sp}
     298:	12011113 	andne	r1, r1, #-1073741820	; 0xc0000004
     29c:	97184006 	ldrls	r4, [r8, -r6]
     2a0:	13011942 	movwne	r1, #6466	; 0x1942
     2a4:	050b0000 	streq	r0, [fp, #-0]
     2a8:	3a080300 	bcc	200eb0 <__bss_end__+0x1f65b8>
     2ac:	490b3b0b 	stmdbmi	fp, {r0, r1, r3, r8, r9, fp, ip, sp}
     2b0:	00180213 	andseq	r0, r8, r3, lsl r2
     2b4:	00180c00 	andseq	r0, r8, r0, lsl #24
     2b8:	340d0000 	strcc	r0, [sp], #-0
     2bc:	3a080300 	bcc	200ec4 <__bss_end__+0x1f65cc>
     2c0:	490b3b0b 	stmdbmi	fp, {r0, r1, r3, r8, r9, fp, ip, sp}
     2c4:	00180213 	andseq	r0, r8, r3, lsl r2
     2c8:	00340e00 	eorseq	r0, r4, r0, lsl #28
     2cc:	0b3a0e03 	bleq	e83ae0 <__bss_end__+0xe791e8>
     2d0:	13490b3b 	movtne	r0, #39739	; 0x9b3b
     2d4:	00001802 	andeq	r1, r0, r2, lsl #16
     2d8:	0300340f 	movweq	r3, #1039	; 0x40f
     2dc:	3b0b3a08 	blcc	2ceb04 <__bss_end__+0x2c420c>
     2e0:	0213490b 	andseq	r4, r3, #180224	; 0x2c000
     2e4:	10000017 	andne	r0, r0, r7, lsl r0
     2e8:	01018289 	smlabbeq	r1, r9, r2, r8
     2ec:	13310111 	teqne	r1, #1073741828	; 0x40000004
     2f0:	00001301 	andeq	r1, r0, r1, lsl #6
     2f4:	01828a11 	orreq	r8, r2, r1, lsl sl
     2f8:	91180200 	tstls	r8, r0, lsl #4
     2fc:	00001842 	andeq	r1, r0, r2, asr #16
     300:	01828912 	orreq	r8, r2, r2, lsl r9
     304:	00011101 	andeq	r1, r1, r1, lsl #2
     308:	01011300 	mrseq	r1, SP_irq
     30c:	13011349 	movwne	r1, #4937	; 0x1349
     310:	21140000 	tstcs	r4, r0
     314:	2f134900 	svccs	0x00134900
     318:	15000005 	strne	r0, [r0, #-5]
     31c:	19270115 	stmdbne	r7!, {r0, r2, r4, r8}
     320:	13011349 	movwne	r1, #4937	; 0x1349
     324:	05160000 	ldreq	r0, [r6, #-0]
     328:	00134900 	andseq	r4, r3, r0, lsl #18
     32c:	00341700 	eorseq	r1, r4, r0, lsl #14
     330:	0b3a0e03 	bleq	e83b44 <__bss_end__+0xe7924c>
     334:	13490b3b 	movtne	r0, #39739	; 0x9b3b
     338:	193c193f 	ldmdbne	ip!, {r0, r1, r2, r3, r4, r5, r8, fp, ip}
     33c:	2e180000 	cdpcs	0, 1, cr0, cr8, cr0, {0}
     340:	03193f01 	tsteq	r9, #1, 30
     344:	3b0b3a0e 	blcc	2ceb84 <__bss_end__+0x2c428c>
     348:	4919270b 	ldmdbmi	r9, {r0, r1, r3, r8, r9, sl, sp}
     34c:	00193c13 	andseq	r3, r9, r3, lsl ip
     350:	11010000 	mrsne	r0, (UNDEF: 1)
     354:	130e2501 	movwne	r2, #58625	; 0xe501
     358:	1b0e030b 	blne	380f8c <__bss_end__+0x376694>
     35c:	1201110e 	andne	r1, r1, #-2147483645	; 0x80000003
     360:	00171006 	andseq	r1, r7, r6
     364:	00240200 	eoreq	r0, r4, r0, lsl #4
     368:	0b3e0b0b 	bleq	f82f9c <__bss_end__+0xf786a4>
     36c:	00000803 	andeq	r0, r0, r3, lsl #16
     370:	0b002403 	bleq	9384 <gpio_event_detected+0x10>
     374:	030b3e0b 	movweq	r3, #48651	; 0xbe0b
     378:	0400000e 	streq	r0, [r0], #-14
     37c:	0e03012e 	adfeqsp	f0, f3, #0.5
     380:	0b3b0b3a 	bleq	ec3070 <__bss_end__+0xeb8778>
     384:	13491927 	movtne	r1, #39207	; 0x9927
     388:	06120111 			; <UNDEFINED> instruction: 0x06120111
     38c:	42971840 	addsmi	r1, r7, #64, 16	; 0x400000
     390:	00130119 	andseq	r0, r3, r9, lsl r1
     394:	00050500 	andeq	r0, r5, r0, lsl #10
     398:	0b3a0803 	bleq	e823ac <__bss_end__+0xe77ab4>
     39c:	13490b3b 	movtne	r0, #39739	; 0x9b3b
     3a0:	00001702 	andeq	r1, r0, r2, lsl #14
     3a4:	01828906 	orreq	r8, r2, r6, lsl #18
     3a8:	31011101 	tstcc	r1, r1, lsl #2
     3ac:	07000013 	smladeq	r0, r3, r0, r0
     3b0:	0001828a 	andeq	r8, r1, sl, lsl #5
     3b4:	42911802 	addsmi	r1, r1, #131072	; 0x20000
     3b8:	08000018 	stmdaeq	r0, {r3, r4}
     3bc:	193f002e 	ldmdbne	pc!, {r1, r2, r3, r5}	; <UNPREDICTABLE>
     3c0:	0b3a0e03 	bleq	e83bd4 <__bss_end__+0xe792dc>
     3c4:	19270b3b 	stmdbne	r7!, {r0, r1, r3, r4, r5, r8, r9, fp}
     3c8:	06120111 			; <UNDEFINED> instruction: 0x06120111
     3cc:	42971840 	addsmi	r1, r7, #64, 16	; 0x400000
     3d0:	09000019 	stmdbeq	r0, {r0, r3, r4}
     3d4:	193f012e 	ldmdbne	pc!, {r1, r2, r3, r5, r8}	; <UNPREDICTABLE>
     3d8:	0b3a0e03 	bleq	e83bec <__bss_end__+0xe792f4>
     3dc:	19270b3b 	stmdbne	r7!, {r0, r1, r3, r4, r5, r8, r9, fp}
     3e0:	06120111 			; <UNDEFINED> instruction: 0x06120111
     3e4:	42971840 	addsmi	r1, r7, #64, 16	; 0x400000
     3e8:	00130119 	andseq	r0, r3, r9, lsl r1
     3ec:	00050a00 	andeq	r0, r5, r0, lsl #20
     3f0:	0b3a0803 	bleq	e82404 <__bss_end__+0xe77b0c>
     3f4:	13490b3b 	movtne	r0, #39739	; 0x9b3b
     3f8:	00001802 	andeq	r1, r0, r2, lsl #16
     3fc:	2701150b 	strcs	r1, [r1, -fp, lsl #10]
     400:	01134919 	tsteq	r3, r9, lsl r9
     404:	0c000013 	stceq	0, cr0, [r0], {19}
     408:	13490005 	movtne	r0, #36869	; 0x9005
     40c:	0f0d0000 	svceq	0x000d0000
     410:	490b0b00 	stmdbmi	fp, {r8, r9, fp}
     414:	0e000013 	mcreq	0, 0, r0, cr0, cr3, {0}
     418:	0e030034 	mcreq	0, 0, r0, cr3, cr4, {1}
     41c:	0b3b0b3a 	bleq	ec310c <__bss_end__+0xeb8814>
     420:	193f1349 	ldmdbne	pc!, {r0, r3, r6, r8, r9, ip}	; <UNPREDICTABLE>
     424:	00001802 	andeq	r1, r0, r2, lsl #16
     428:	3f012e0f 	svccc	0x00012e0f
     42c:	3a0e0319 	bcc	381098 <__bss_end__+0x3767a0>
     430:	270b3b0b 	strcs	r3, [fp, -fp, lsl #22]
     434:	00193c19 	andseq	r3, r9, r9, lsl ip
     438:	11010000 	mrsne	r0, (UNDEF: 1)
     43c:	130e2501 	movwne	r2, #58625	; 0xe501
     440:	1b0e030b 	blne	381074 <__bss_end__+0x37677c>
     444:	1201110e 	andne	r1, r1, #-2147483645	; 0x80000003
     448:	00171006 	andseq	r1, r7, r6
     44c:	00240200 	eoreq	r0, r4, r0, lsl #4
     450:	0b3e0b0b 	bleq	f83084 <__bss_end__+0xf7878c>
     454:	00000803 	andeq	r0, r0, r3, lsl #16
     458:	0b002403 	bleq	946c <sw_uart_putc+0x1c>
     45c:	030b3e0b 	movweq	r3, #48651	; 0xbe0b
     460:	0400000e 	streq	r0, [r0], #-14
     464:	0b0b000f 	bleq	2c04a8 <__bss_end__+0x2b5bb0>
     468:	00001349 	andeq	r1, r0, r9, asr #6
     46c:	49002605 	stmdbmi	r0, {r0, r2, r9, sl, sp}
     470:	06000013 			; <UNDEFINED> instruction: 0x06000013
     474:	193f012e 	ldmdbne	pc!, {r1, r2, r3, r5, r8}	; <UNPREDICTABLE>
     478:	0b3a0e03 	bleq	e83c8c <__bss_end__+0xe79394>
     47c:	19270b3b 	stmdbne	r7!, {r0, r1, r3, r4, r5, r8, r9, fp}
     480:	01111349 	tsteq	r1, r9, asr #6
     484:	18400612 	stmdane	r0, {r1, r4, r9, sl}^
     488:	01194296 			; <UNDEFINED> instruction: 0x01194296
     48c:	07000013 	smladeq	r0, r3, r0, r0
     490:	08030005 	stmdaeq	r3, {r0, r2}
     494:	0b3b0b3a 	bleq	ec3184 <__bss_end__+0xeb888c>
     498:	17021349 	strne	r1, [r2, -r9, asr #6]
     49c:	15080000 	strne	r0, [r8, #-0]
     4a0:	49192701 	ldmdbmi	r9, {r0, r8, r9, sl, sp}
     4a4:	00130113 	andseq	r0, r3, r3, lsl r1
     4a8:	00050900 	andeq	r0, r5, r0, lsl #18
     4ac:	00001349 	andeq	r1, r0, r9, asr #6
     4b0:	0300340a 	movweq	r3, #1034	; 0x40a
     4b4:	3b0b3a0e 	blcc	2cecf4 <__bss_end__+0x2c43fc>
     4b8:	3f13490b 	svccc	0x0013490b
     4bc:	00193c19 	andseq	r3, r9, r9, lsl ip
     4c0:	00340b00 	eorseq	r0, r4, r0, lsl #22
     4c4:	0b3a0e03 	bleq	e83cd8 <__bss_end__+0xe793e0>
     4c8:	13490b3b 	movtne	r0, #39739	; 0x9b3b
     4cc:	1802193f 	stmdane	r2, {r0, r1, r2, r3, r4, r5, r8, fp, ip}
     4d0:	01000000 	mrseq	r0, (UNDEF: 0)
     4d4:	0e250111 	mcreq	1, 1, r0, cr5, cr1, {0}
     4d8:	0e030b13 	vmoveq.32	d3[0], r0
     4dc:	01110e1b 	tsteq	r1, fp, lsl lr
     4e0:	17100612 			; <UNDEFINED> instruction: 0x17100612
     4e4:	24020000 	strcs	r0, [r2], #-0
     4e8:	3e0b0b00 	vmlacc.f64	d0, d11, d0
     4ec:	0008030b 	andeq	r0, r8, fp, lsl #6
     4f0:	00240300 	eoreq	r0, r4, r0, lsl #6
     4f4:	0b3e0b0b 	bleq	f83128 <__bss_end__+0xf78830>
     4f8:	00000e03 	andeq	r0, r0, r3, lsl #28
     4fc:	0b000f04 	bleq	4114 <_start-0x3eec>
     500:	0500000b 	streq	r0, [r0, #-11]
     504:	0b0b000f 	bleq	2c0548 <__bss_end__+0x2b5c50>
     508:	00001349 	andeq	r1, r0, r9, asr #6
     50c:	49002606 	stmdbmi	r0, {r1, r2, r9, sl, sp}
     510:	07000013 	smladeq	r0, r3, r0, r0
     514:	0e030016 	mcreq	0, 0, r0, cr3, cr6, {0}
     518:	0b3b0b3a 	bleq	ec3208 <__bss_end__+0xeb8910>
     51c:	00001349 	andeq	r1, r0, r9, asr #6
     520:	03011308 	movweq	r1, #4872	; 0x1308
     524:	3a0b0b0e 	bcc	2c3164 <__bss_end__+0x2b886c>
     528:	010b3b0b 	tsteq	fp, fp, lsl #22
     52c:	09000013 	stmdbeq	r0, {r0, r1, r4}
     530:	0e03000d 	cdpeq	0, 0, cr0, cr3, cr13, {0}
     534:	0b381349 	bleq	e05260 <__bss_end__+0xdfa968>
     538:	00001934 	andeq	r1, r0, r4, lsr r9
     53c:	03012e0a 	movweq	r2, #7690	; 0x1e0a
     540:	3b0b3a0e 	blcc	2ced80 <__bss_end__+0x2c4488>
     544:	4919270b 	ldmdbmi	r9, {r0, r1, r3, r8, r9, sl, sp}
     548:	12011113 	andne	r1, r1, #-1073741820	; 0xc0000004
     54c:	97184006 	ldrls	r4, [r8, -r6]
     550:	13011942 	movwne	r1, #6466	; 0x1942
     554:	050b0000 	streq	r0, [fp, #-0]
     558:	3a080300 	bcc	201160 <__bss_end__+0x1f6868>
     55c:	490b3b0b 	stmdbmi	fp, {r0, r1, r3, r8, r9, fp, ip, sp}
     560:	00170213 	andseq	r0, r7, r3, lsl r2
     564:	012e0c00 	teqeq	lr, r0, lsl #24
     568:	0b3a0803 	bleq	e8257c <__bss_end__+0xe77c84>
     56c:	19270b3b 	stmdbne	r7!, {r0, r1, r3, r4, r5, r8, r9, fp}
     570:	01111349 	tsteq	r1, r9, asr #6
     574:	18400612 	stmdane	r0, {r1, r4, r9, sl}^
     578:	01194297 			; <UNDEFINED> instruction: 0x01194297
     57c:	0d000013 	stceq	0, cr0, [r0, #-76]	; 0xffffffb4
     580:	0e030005 	cdpeq	0, 0, cr0, cr3, cr5, {0}
     584:	0b3b0b3a 	bleq	ec3274 <__bss_end__+0xeb897c>
     588:	17021349 	strne	r1, [r2, -r9, asr #6]
     58c:	050e0000 	streq	r0, [lr, #-0]
     590:	3a0e0300 	bcc	381198 <__bss_end__+0x3768a0>
     594:	490b3b0b 	stmdbmi	fp, {r0, r1, r3, r8, r9, fp, ip, sp}
     598:	00180213 	andseq	r0, r8, r3, lsl r2
     59c:	00340f00 	eorseq	r0, r4, r0, lsl #30
     5a0:	0b3a0803 	bleq	e825b4 <__bss_end__+0xe77cbc>
     5a4:	13490b3b 	movtne	r0, #39739	; 0x9b3b
     5a8:	00001802 	andeq	r1, r0, r2, lsl #16
     5ac:	03003410 	movweq	r3, #1040	; 0x410
     5b0:	3b0b3a08 	blcc	2cedd8 <__bss_end__+0x2c44e0>
     5b4:	0213490b 	andseq	r4, r3, #180224	; 0x2c000
     5b8:	11000017 	tstne	r0, r7, lsl r0
     5bc:	0e030034 	mcreq	0, 0, r0, cr3, cr4, {1}
     5c0:	19341349 	ldmdbne	r4!, {r0, r3, r6, r8, r9, ip}
     5c4:	00001802 	andeq	r1, r0, r2, lsl #16
     5c8:	11010b12 	tstne	r1, r2, lsl fp
     5cc:	01061201 	tsteq	r6, r1, lsl #4
     5d0:	13000013 	movwne	r0, #19
     5d4:	0e030034 	mcreq	0, 0, r0, cr3, cr4, {1}
     5d8:	0b3b0b3a 	bleq	ec32c8 <__bss_end__+0xeb89d0>
     5dc:	17021349 	strne	r1, [r2, -r9, asr #6]
     5e0:	89140000 	ldmdbhi	r4, {}	; <UNPREDICTABLE>
     5e4:	11000182 	smlabbne	r0, r2, r1, r0
     5e8:	00133101 	andseq	r3, r3, r1, lsl #2
     5ec:	82891500 	addhi	r1, r9, #0, 10
     5f0:	01110101 	tsteq	r1, r1, lsl #2
     5f4:	13011331 	movwne	r1, #4913	; 0x1331
     5f8:	8a160000 	bhi	580600 <__bss_end__+0x575d08>
     5fc:	02000182 	andeq	r0, r0, #-2147483616	; 0x80000020
     600:	18429118 	stmdane	r2, {r3, r4, r8, ip, pc}^
     604:	89170000 	ldmdbhi	r7, {}	; <UNPREDICTABLE>
     608:	11010182 	smlabbne	r1, r2, r1, r0
     60c:	00133101 	andseq	r3, r3, r1, lsl #2
     610:	01011800 	tsteq	r1, r0, lsl #16
     614:	13011349 	movwne	r1, #4937	; 0x1349
     618:	21190000 	tstcs	r9, r0
     61c:	2f134900 	svccs	0x00134900
     620:	1a00000b 	bne	654 <_start-0x79ac>
     624:	193f012e 	ldmdbne	pc!, {r1, r2, r3, r5, r8}	; <UNPREDICTABLE>
     628:	0b3a0e03 	bleq	e83e3c <__bss_end__+0xe79544>
     62c:	19270b3b 	stmdbne	r7!, {r0, r1, r3, r4, r5, r8, r9, fp}
     630:	06120111 			; <UNDEFINED> instruction: 0x06120111
     634:	42971840 	addsmi	r1, r7, #64, 16	; 0x400000
     638:	00130119 	andseq	r0, r3, r9, lsl r1
     63c:	01151b00 	tsteq	r5, r0, lsl #22
     640:	13491927 	movtne	r1, #39207	; 0x9927
     644:	00001301 	andeq	r1, r0, r1, lsl #6
     648:	4900051c 	stmdbmi	r0, {r2, r3, r4, r8, sl}
     64c:	1d000013 	stcne	0, cr0, [r0, #-76]	; 0xffffffb4
     650:	193f012e 	ldmdbne	pc!, {r1, r2, r3, r5, r8}	; <UNPREDICTABLE>
     654:	0b3a0e03 	bleq	e83e68 <__bss_end__+0xe79570>
     658:	19270b3b 	stmdbne	r7!, {r0, r1, r3, r4, r5, r8, r9, fp}
     65c:	01111349 	tsteq	r1, r9, asr #6
     660:	18400612 	stmdane	r0, {r1, r4, r9, sl}^
     664:	01194297 			; <UNDEFINED> instruction: 0x01194297
     668:	1e000013 	mcrne	0, 0, r0, cr0, cr3, {0}
     66c:	1755010b 	ldrbne	r0, [r5, -fp, lsl #2]
     670:	341f0000 	ldrcc	r0, [pc], #-0	; 678 <_start-0x7988>
     674:	3a0e0300 	bcc	38127c <__bss_end__+0x376984>
     678:	490b3b0b 	stmdbmi	fp, {r0, r1, r3, r8, r9, fp, ip, sp}
     67c:	3c193f13 	ldccc	15, cr3, [r9], {19}
     680:	20000019 	andcs	r0, r0, r9, lsl r0
     684:	193f002e 	ldmdbne	pc!, {r1, r2, r3, r5}	; <UNPREDICTABLE>
     688:	0b3a0e03 	bleq	e83e9c <__bss_end__+0xe795a4>
     68c:	19270b3b 	stmdbne	r7!, {r0, r1, r3, r4, r5, r8, r9, fp}
     690:	0000193c 	andeq	r1, r0, ip, lsr r9
     694:	3f012e21 	svccc	0x00012e21
     698:	3a0e0319 	bcc	381304 <__bss_end__+0x376a0c>
     69c:	270b3b0b 	strcs	r3, [fp, -fp, lsl #22]
     6a0:	3c134919 	ldccc	9, cr4, [r3], {25}
     6a4:	00130119 	andseq	r0, r3, r9, lsl r1
     6a8:	00182200 	andseq	r2, r8, r0, lsl #4
     6ac:	01000000 	mrseq	r0, (UNDEF: 0)
     6b0:	0e250111 	mcreq	1, 1, r0, cr5, cr1, {0}
     6b4:	0e030b13 	vmoveq.32	d3[0], r0
     6b8:	01110e1b 	tsteq	r1, fp, lsl lr
     6bc:	17100612 			; <UNDEFINED> instruction: 0x17100612
     6c0:	24020000 	strcs	r0, [r2], #-0
     6c4:	3e0b0b00 	vmlacc.f64	d0, d11, d0
     6c8:	0008030b 	andeq	r0, r8, fp, lsl #6
     6cc:	00240300 	eoreq	r0, r4, r0, lsl #6
     6d0:	0b3e0b0b 	bleq	f83304 <__bss_end__+0xf78a0c>
     6d4:	00000e03 	andeq	r0, r0, r3, lsl #28
     6d8:	3f012e04 	svccc	0x00012e04
     6dc:	3a0e0319 	bcc	381348 <__bss_end__+0x376a50>
     6e0:	270b3b0b 	strcs	r3, [fp, -fp, lsl #22]
     6e4:	12011119 	andne	r1, r1, #1073741830	; 0x40000006
     6e8:	97184006 	ldrls	r4, [r8, -r6]
     6ec:	13011942 	movwne	r1, #6466	; 0x1942
     6f0:	34050000 	strcc	r0, [r5], #-0
     6f4:	3a080300 	bcc	2012fc <__bss_end__+0x1f6a04>
     6f8:	490b3b0b 	stmdbmi	fp, {r0, r1, r3, r8, r9, fp, ip, sp}
     6fc:	00170213 	andseq	r0, r7, r3, lsl r2
     700:	012e0600 	teqeq	lr, r0, lsl #12
     704:	0e03193f 	mcreq	9, 0, r1, cr3, cr15, {1}
     708:	0b3b0b3a 	bleq	ec33f8 <__bss_end__+0xeb8b00>
     70c:	01111927 	tsteq	r1, r7, lsr #18
     710:	18400612 	stmdane	r0, {r1, r4, r9, sl}^
     714:	00194297 	mulseq	r9, r7, r2
     718:	11010000 	mrsne	r0, (UNDEF: 1)
     71c:	130e2501 	movwne	r2, #58625	; 0xe501
     720:	1b0e030b 	blne	381354 <__bss_end__+0x376a5c>
     724:	1201110e 	andne	r1, r1, #-2147483645	; 0x80000003
     728:	00171006 	andseq	r1, r7, r6
     72c:	00240200 	eoreq	r0, r4, r0, lsl #4
     730:	0b3e0b0b 	bleq	f83364 <__bss_end__+0xf78a6c>
     734:	00000803 	andeq	r0, r0, r3, lsl #16
     738:	0b002403 	bleq	974c <sw_uart_getc_timeout+0x1a8>
     73c:	030b3e0b 	movweq	r3, #48651	; 0xbe0b
     740:	0400000e 	streq	r0, [r0], #-14
     744:	0b0b000f 	bleq	2c0788 <__bss_end__+0x2b5e90>
     748:	00001349 	andeq	r1, r0, r9, asr #6
     74c:	49002605 	stmdbmi	r0, {r0, r2, r9, sl, sp}
     750:	06000013 			; <UNDEFINED> instruction: 0x06000013
     754:	193f012e 	ldmdbne	pc!, {r1, r2, r3, r5, r8}	; <UNPREDICTABLE>
     758:	0b3a0e03 	bleq	e83f6c <__bss_end__+0xe79674>
     75c:	19270b3b 	stmdbne	r7!, {r0, r1, r3, r4, r5, r8, r9, fp}
     760:	06120111 			; <UNDEFINED> instruction: 0x06120111
     764:	42971840 	addsmi	r1, r7, #64, 16	; 0x400000
     768:	00130119 	andseq	r0, r3, r9, lsl r1
     76c:	82890700 	addhi	r0, r9, #0, 14
     770:	01110101 	tsteq	r1, r1, lsl #2
     774:	00001301 	andeq	r1, r0, r1, lsl #6
     778:	01828a08 	orreq	r8, r2, r8, lsl #20
     77c:	91180200 	tstls	r8, r0, lsl #4
     780:	00001842 	andeq	r1, r0, r2, asr #16
     784:	01828909 	orreq	r8, r2, r9, lsl #18
     788:	31011101 	tstcc	r1, r1, lsl #2
     78c:	00130113 	andseq	r0, r3, r3, lsl r1
     790:	82890a00 	addhi	r0, r9, #0, 20
     794:	01110001 	tsteq	r1, r1
     798:	00001331 	andeq	r1, r0, r1, lsr r3
     79c:	2701150b 	strcs	r1, [r1, -fp, lsl #10]
     7a0:	01134919 	tsteq	r3, r9, lsl r9
     7a4:	0c000013 	stceq	0, cr0, [r0], {19}
     7a8:	13490005 	movtne	r0, #36869	; 0x9005
     7ac:	340d0000 	strcc	r0, [sp], #-0
     7b0:	3a0e0300 	bcc	3813b8 <__bss_end__+0x376ac0>
     7b4:	490b3b0b 	stmdbmi	fp, {r0, r1, r3, r8, r9, fp, ip, sp}
     7b8:	3c193f13 	ldccc	15, cr3, [r9], {19}
     7bc:	0e000019 	mcreq	0, 0, r0, cr0, cr9, {0}
     7c0:	193f012e 	ldmdbne	pc!, {r1, r2, r3, r5, r8}	; <UNPREDICTABLE>
     7c4:	0b3a0e03 	bleq	e83fd8 <__bss_end__+0xe796e0>
     7c8:	19270b3b 	stmdbne	r7!, {r0, r1, r3, r4, r5, r8, r9, fp}
     7cc:	1301193c 	movwne	r1, #6460	; 0x193c
     7d0:	2e0f0000 	cdpcs	0, 0, cr0, cr15, cr0, {0}
     7d4:	03193f00 	tsteq	r9, #0, 30
     7d8:	3b0b3a0e 	blcc	2cf018 <__bss_end__+0x2c4720>
     7dc:	3c19270b 	ldccc	7, cr2, [r9], {11}
     7e0:	00000019 	andeq	r0, r0, r9, lsl r0
     7e4:	25011101 	strcs	r1, [r1, #-257]	; 0x101
     7e8:	030b130e 	movweq	r1, #45838	; 0xb30e
     7ec:	110e1b0e 	tstne	lr, lr, lsl #22
     7f0:	10061201 	andne	r1, r6, r1, lsl #4
     7f4:	02000017 	andeq	r0, r0, #23
     7f8:	0b0b0024 	bleq	2c0890 <__bss_end__+0x2b5f98>
     7fc:	08030b3e 	stmdaeq	r3, {r1, r2, r3, r4, r5, r8, r9, fp}
     800:	24030000 	strcs	r0, [r3], #-0
     804:	3e0b0b00 	vmlacc.f64	d0, d11, d0
     808:	000e030b 	andeq	r0, lr, fp, lsl #6
     80c:	00160400 	andseq	r0, r6, r0, lsl #8
     810:	0b3a0e03 	bleq	e84024 <__bss_end__+0xe7972c>
     814:	13490b3b 	movtne	r0, #39739	; 0x9b3b
     818:	0f050000 	svceq	0x00050000
     81c:	490b0b00 	stmdbmi	fp, {r8, r9, fp}
     820:	06000013 			; <UNDEFINED> instruction: 0x06000013
     824:	13490026 	movtne	r0, #36902	; 0x9026
     828:	13070000 	movwne	r0, #28672	; 0x7000
     82c:	3a0b0b01 	bcc	2c3438 <__bss_end__+0x2b8b40>
     830:	010b3b0b 	tsteq	fp, fp, lsl #22
     834:	08000013 	stmdaeq	r0, {r0, r1, r4}
     838:	0803000d 	stmdaeq	r3, {r0, r2, r3}
     83c:	0b3b0b3a 	bleq	ec352c <__bss_end__+0xeb8c34>
     840:	0b381349 	bleq	e0556c <__bss_end__+0xdfac74>
     844:	0d090000 	stceq	0, cr0, [r9, #-0]
     848:	3a0e0300 	bcc	381450 <__bss_end__+0x376b58>
     84c:	490b3b0b 	stmdbmi	fp, {r0, r1, r3, r8, r9, fp, ip, sp}
     850:	000b3813 	andeq	r3, fp, r3, lsl r8
     854:	01040a00 	tsteq	r4, r0, lsl #20
     858:	0b3a0b0b 	bleq	e8348c <__bss_end__+0xe78b94>
     85c:	13010b3b 	movwne	r0, #6971	; 0x1b3b
     860:	280b0000 	stmdacs	fp, {}	; <UNPREDICTABLE>
     864:	1c0e0300 	stcne	3, cr0, [lr], {-0}
     868:	0c00000d 	stceq	0, cr0, [r0], {13}
     86c:	0e03012e 	adfeqsp	f0, f3, #0.5
     870:	0b3b0b3a 	bleq	ec3560 <__bss_end__+0xeb8c68>
     874:	13491927 	movtne	r1, #39207	; 0x9927
     878:	06120111 			; <UNDEFINED> instruction: 0x06120111
     87c:	42971840 	addsmi	r1, r7, #64, 16	; 0x400000
     880:	00130119 	andseq	r0, r3, r9, lsl r1
     884:	00050d00 	andeq	r0, r5, r0, lsl #26
     888:	0b3a0803 	bleq	e8289c <__bss_end__+0xe77fa4>
     88c:	13490b3b 	movtne	r0, #39739	; 0x9b3b
     890:	00001702 	andeq	r1, r0, r2, lsl #14
     894:	0182890e 	orreq	r8, r2, lr, lsl #18
     898:	31011101 	tstcc	r1, r1, lsl #2
     89c:	0f000013 	svceq	0x00000013
     8a0:	0001828a 	andeq	r8, r1, sl, lsl #5
     8a4:	42911802 	addsmi	r1, r1, #131072	; 0x20000
     8a8:	10000018 	andne	r0, r0, r8, lsl r0
     8ac:	193f012e 	ldmdbne	pc!, {r1, r2, r3, r5, r8}	; <UNPREDICTABLE>
     8b0:	0b3a0e03 	bleq	e840c4 <__bss_end__+0xe797cc>
     8b4:	01110b3b 	tsteq	r1, fp, lsr fp
     8b8:	18400612 	stmdane	r0, {r1, r4, r9, sl}^
     8bc:	01194297 			; <UNDEFINED> instruction: 0x01194297
     8c0:	11000013 	tstne	r0, r3, lsl r0
     8c4:	0e030034 	mcreq	0, 0, r0, cr3, cr4, {1}
     8c8:	0b3b0b3a 	bleq	ec35b8 <__bss_end__+0xeb8cc0>
     8cc:	193f1349 	ldmdbne	pc!, {r0, r3, r6, r8, r9, ip}	; <UNPREDICTABLE>
     8d0:	0000193c 	andeq	r1, r0, ip, lsr r9
     8d4:	3f002e12 	svccc	0x00002e12
     8d8:	3a0e0319 	bcc	381544 <__bss_end__+0x376c4c>
     8dc:	270b3b0b 	strcs	r3, [fp, -fp, lsl #22]
     8e0:	00193c19 	andseq	r3, r9, r9, lsl ip
     8e4:	00341300 	eorseq	r1, r4, r0, lsl #6
     8e8:	0b3a0803 	bleq	e828fc <__bss_end__+0xe78004>
     8ec:	13490b3b 	movtne	r0, #39739	; 0x9b3b
     8f0:	00001702 	andeq	r1, r0, r2, lsl #14
     8f4:	03003414 	movweq	r3, #1044	; 0x414
     8f8:	3b0b3a0e 	blcc	2cf138 <__bss_end__+0x2c4840>
     8fc:	0013490b 	andseq	r4, r3, fp, lsl #18
     900:	82891500 	addhi	r1, r9, #0, 10
     904:	01110001 	tsteq	r1, r1
     908:	00001331 	andeq	r1, r0, r1, lsr r3
     90c:	01828916 	orreq	r8, r2, r6, lsl r9
     910:	31011101 	tstcc	r1, r1, lsl #2
     914:	00130113 	andseq	r0, r3, r3, lsl r1
     918:	00341700 	eorseq	r1, r4, r0, lsl #14
     91c:	0b3a0e03 	bleq	e84130 <__bss_end__+0xe79838>
     920:	13490b3b 	movtne	r0, #39739	; 0x9b3b
     924:	00001802 	andeq	r1, r0, r2, lsl #16
     928:	27011518 	smladcs	r1, r8, r5, r1
     92c:	01134919 	tsteq	r3, r9, lsl r9
     930:	19000013 	stmdbne	r0, {r0, r1, r4}
     934:	13490005 	movtne	r0, #36869	; 0x9005
     938:	2e1a0000 	cdpcs	0, 1, cr0, cr10, cr0, {0}
     93c:	03193f01 	tsteq	r9, #1, 30
     940:	3b0b3a0e 	blcc	2cf180 <__bss_end__+0x2c4888>
     944:	3c19270b 	ldccc	7, cr2, [r9], {11}
     948:	00130119 	andseq	r0, r3, r9, lsl r1
     94c:	002e1b00 	eoreq	r1, lr, r0, lsl #22
     950:	0e03193f 	mcreq	9, 0, r1, cr3, cr15, {1}
     954:	0b3b0b3a 	bleq	ec3644 <__bss_end__+0xeb8d4c>
     958:	13491927 	movtne	r1, #39207	; 0x9927
     95c:	0000193c 	andeq	r1, r0, ip, lsr r9
     960:	3f012e1c 	svccc	0x00012e1c
     964:	3a0e0319 	bcc	3815d0 <__bss_end__+0x376cd8>
     968:	270b3b0b 	strcs	r3, [fp, -fp, lsl #22]
     96c:	3c134919 	ldccc	9, cr4, [r3], {25}
     970:	00130119 	andseq	r0, r3, r9, lsl r1
     974:	00181d00 	andseq	r1, r8, r0, lsl #26
     978:	01000000 	mrseq	r0, (UNDEF: 0)
     97c:	0e250111 	mcreq	1, 1, r0, cr5, cr1, {0}
     980:	0e030b13 	vmoveq.32	d3[0], r0
     984:	17550e1b 	smmlane	r5, fp, lr, r0
     988:	17100111 			; <UNDEFINED> instruction: 0x17100111
     98c:	24020000 	strcs	r0, [r2], #-0
     990:	3e0b0b00 	vmlacc.f64	d0, d11, d0
     994:	0008030b 	andeq	r0, r8, fp, lsl #6
     998:	00240300 	eoreq	r0, r4, r0, lsl #6
     99c:	0b3e0b0b 	bleq	f835d0 <__bss_end__+0xf78cd8>
     9a0:	00000e03 	andeq	r0, r0, r3, lsl #28
     9a4:	3f012e04 	svccc	0x00012e04
     9a8:	3a0e0319 	bcc	381614 <__bss_end__+0x376d1c>
     9ac:	270b3b0b 	strcs	r3, [fp, -fp, lsl #22]
     9b0:	11134919 	tstne	r3, r9, lsl r9
     9b4:	40061201 	andmi	r1, r6, r1, lsl #4
     9b8:	19429718 	stmdbne	r2, {r3, r4, r8, r9, sl, ip, pc}^
     9bc:	00001301 	andeq	r1, r0, r1, lsl #6
     9c0:	03003405 	movweq	r3, #1029	; 0x405
     9c4:	3b0b3a0e 	blcc	2cf204 <__bss_end__+0x2c490c>
     9c8:	0213490b 	andseq	r4, r3, #180224	; 0x2c000
     9cc:	06000017 			; <UNDEFINED> instruction: 0x06000017
     9d0:	193f012e 	ldmdbne	pc!, {r1, r2, r3, r5, r8}	; <UNPREDICTABLE>
     9d4:	0b3a0e03 	bleq	e841e8 <__bss_end__+0xe798f0>
     9d8:	19270b3b 	stmdbne	r7!, {r0, r1, r3, r4, r5, r8, r9, fp}
     9dc:	06120111 			; <UNDEFINED> instruction: 0x06120111
     9e0:	42971840 	addsmi	r1, r7, #64, 16	; 0x400000
     9e4:	00130119 	andseq	r0, r3, r9, lsl r1
     9e8:	00340700 	eorseq	r0, r4, r0, lsl #14
     9ec:	0b3a0e03 	bleq	e84200 <__bss_end__+0xe79908>
     9f0:	13490b3b 	movtne	r0, #39739	; 0x9b3b
     9f4:	0000061c 	andeq	r0, r0, ip, lsl r6
     9f8:	03003408 	movweq	r3, #1032	; 0x408
     9fc:	3b0b3a0e 	blcc	2cf23c <__bss_end__+0x2c4944>
     a00:	1c13490b 	ldcne	9, cr4, [r3], {11}
     a04:	0900000b 	stmdbeq	r0, {r0, r1, r3}
     a08:	00018289 	andeq	r8, r1, r9, lsl #5
     a0c:	13310111 	teqne	r1, #1073741828	; 0x40000004
     a10:	890a0000 	stmdbhi	sl, {}	; <UNPREDICTABLE>
     a14:	11010182 	smlabbne	r1, r2, r1, r0
     a18:	01133101 	tsteq	r3, r1, lsl #2
     a1c:	0b000013 	bleq	a70 <_start-0x7590>
     a20:	0001828a 	andeq	r8, r1, sl, lsl #5
     a24:	42911802 	addsmi	r1, r1, #131072	; 0x20000
     a28:	0c000018 	stceq	0, cr0, [r0], {24}
     a2c:	01018289 	smlabbeq	r1, r9, r2, r8
     a30:	13310111 	teqne	r1, #1073741828	; 0x40000004
     a34:	260d0000 	strcs	r0, [sp], -r0
     a38:	00134900 	andseq	r4, r3, r0, lsl #18
     a3c:	012e0e00 	teqeq	lr, r0, lsl #28
     a40:	0e03193f 	mcreq	9, 0, r1, cr3, cr15, {1}
     a44:	0b3b0b3a 	bleq	ec3734 <__bss_end__+0xeb8e3c>
     a48:	193c1927 	ldmdbne	ip!, {r0, r1, r2, r5, r8, fp, ip}
     a4c:	00001301 	andeq	r1, r0, r1, lsl #6
     a50:	4900050f 	stmdbmi	r0, {r0, r1, r2, r3, r8, sl}
     a54:	10000013 	andne	r0, r0, r3, lsl r0
     a58:	193f012e 	ldmdbne	pc!, {r1, r2, r3, r5, r8}	; <UNPREDICTABLE>
     a5c:	0b3a0e03 	bleq	e84270 <__bss_end__+0xe79978>
     a60:	19270b3b 	stmdbne	r7!, {r0, r1, r3, r4, r5, r8, r9, fp}
     a64:	0000193c 	andeq	r1, r0, ip, lsr r9
     a68:	01110100 	tsteq	r1, r0, lsl #2
     a6c:	0b130e25 	bleq	4c4308 <__bss_end__+0x4b9a10>
     a70:	0e1b0e03 	cdpeq	14, 1, cr0, cr11, cr3, {0}
     a74:	06120111 			; <UNDEFINED> instruction: 0x06120111
     a78:	00001710 	andeq	r1, r0, r0, lsl r7
     a7c:	0b002402 	bleq	9a8c <sw_uart_gets_until_blk+0x20>
     a80:	030b3e0b 	movweq	r3, #48651	; 0xbe0b
     a84:	03000008 	movweq	r0, #8
     a88:	0b0b0024 	bleq	2c0b20 <__bss_end__+0x2b6228>
     a8c:	0e030b3e 	vmoveq.16	d3[0], r0
     a90:	2e040000 	cdpcs	0, 0, cr0, cr4, cr0, {0}
     a94:	03193f01 	tsteq	r9, #1, 30
     a98:	3b0b3a0e 	blcc	2cf2d8 <__bss_end__+0x2c49e0>
     a9c:	1119270b 	tstne	r9, fp, lsl #14
     aa0:	40061201 	andmi	r1, r6, r1, lsl #4
     aa4:	19429718 	stmdbne	r2, {r3, r4, r8, r9, sl, ip, pc}^
     aa8:	00001301 	andeq	r1, r0, r1, lsl #6
     aac:	03000505 	movweq	r0, #1285	; 0x505
     ab0:	3b0b3a0e 	blcc	2cf2f0 <__bss_end__+0x2c49f8>
     ab4:	0213490b 	andseq	r4, r3, #180224	; 0x2c000
     ab8:	06000017 			; <UNDEFINED> instruction: 0x06000017
     abc:	193f012e 	ldmdbne	pc!, {r1, r2, r3, r5, r8}	; <UNPREDICTABLE>
     ac0:	0b3a0e03 	bleq	e842d4 <__bss_end__+0xe799dc>
     ac4:	19270b3b 	stmdbne	r7!, {r0, r1, r3, r4, r5, r8, r9, fp}
     ac8:	01111349 	tsteq	r1, r9, asr #6
     acc:	18400612 	stmdane	r0, {r1, r4, r9, sl}^
     ad0:	01194297 			; <UNDEFINED> instruction: 0x01194297
     ad4:	07000013 	smladeq	r0, r3, r0, r0
     ad8:	01018289 	smlabbeq	r1, r9, r2, r8
     adc:	13310111 	teqne	r1, #1073741828	; 0x40000004
     ae0:	8a080000 	bhi	200ae8 <__bss_end__+0x1f61f0>
     ae4:	02000182 	andeq	r0, r0, #-2147483616	; 0x80000020
     ae8:	18429118 	stmdane	r2, {r3, r4, r8, ip, pc}^
     aec:	34090000 	strcc	r0, [r9], #-0
     af0:	3a080300 	bcc	2016f8 <__bss_end__+0x1f6e00>
     af4:	490b3b0b 	stmdbmi	fp, {r0, r1, r3, r8, r9, fp, ip, sp}
     af8:	00180213 	andseq	r0, r8, r3, lsl r2
     afc:	82890a00 	addhi	r0, r9, #0, 20
     b00:	01110001 	tsteq	r1, r1
     b04:	00001331 	andeq	r1, r0, r1, lsr r3
     b08:	0300050b 	movweq	r0, #1291	; 0x50b
     b0c:	3b0b3a08 	blcc	2cf334 <__bss_end__+0x2c4a3c>
     b10:	0213490b 	andseq	r4, r3, #180224	; 0x2c000
     b14:	0c000017 	stceq	0, cr0, [r0], {23}
     b18:	0111010b 	tsteq	r1, fp, lsl #2
     b1c:	13010612 	movwne	r0, #5650	; 0x1612
     b20:	340d0000 	strcc	r0, [sp], #-0
     b24:	3a080300 	bcc	20172c <__bss_end__+0x1f6e34>
     b28:	490b3b0b 	stmdbmi	fp, {r0, r1, r3, r8, r9, fp, ip, sp}
     b2c:	00170213 	andseq	r0, r7, r3, lsl r2
     b30:	012e0e00 	teqeq	lr, r0, lsl #28
     b34:	0e03193f 	mcreq	9, 0, r1, cr3, cr15, {1}
     b38:	0b3b0b3a 	bleq	ec3828 <__bss_end__+0xeb8f30>
     b3c:	13491927 	movtne	r1, #39207	; 0x9927
     b40:	0000193c 	andeq	r1, r0, ip, lsr r9
     b44:	4900050f 	stmdbmi	r0, {r0, r1, r2, r3, r8, sl}
     b48:	00000013 	andeq	r0, r0, r3, lsl r0
     b4c:	25011101 	strcs	r1, [r1, #-257]	; 0x101
     b50:	030b130e 	movweq	r1, #45838	; 0xb30e
     b54:	110e1b0e 	tstne	lr, lr, lsl #22
     b58:	10061201 	andne	r1, r6, r1, lsl #4
     b5c:	02000017 	andeq	r0, r0, #23
     b60:	0b0b0024 	bleq	2c0bf8 <__bss_end__+0x2b6300>
     b64:	0e030b3e 	vmoveq.16	d3[0], r0
     b68:	24030000 	strcs	r0, [r3], #-0
     b6c:	3e0b0b00 	vmlacc.f64	d0, d11, d0
     b70:	0008030b 	andeq	r0, r8, fp, lsl #6
     b74:	01040400 	tsteq	r4, r0, lsl #8
     b78:	0b3a0b0b 	bleq	e837ac <__bss_end__+0xe78eb4>
     b7c:	13010b3b 	movwne	r0, #6971	; 0x1b3b
     b80:	28050000 	stmdacs	r5, {}	; <UNPREDICTABLE>
     b84:	1c0e0300 	stcne	3, cr0, [lr], {-0}
     b88:	0600000d 	streq	r0, [r0], -sp
     b8c:	0e030016 	mcreq	0, 0, r0, cr3, cr6, {0}
     b90:	0b3b0b3a 	bleq	ec3880 <__bss_end__+0xeb8f88>
     b94:	00001349 	andeq	r1, r0, r9, asr #6
     b98:	3f012e07 	svccc	0x00012e07
     b9c:	3a0e0319 	bcc	381808 <__bss_end__+0x376f10>
     ba0:	270b3b0b 	strcs	r3, [fp, -fp, lsl #22]
     ba4:	12011119 	andne	r1, r1, #1073741830	; 0x40000006
     ba8:	97184006 	ldrls	r4, [r8, -r6]
     bac:	13011942 	movwne	r1, #6466	; 0x1942
     bb0:	05080000 	streq	r0, [r8, #-0]
     bb4:	3a080300 	bcc	2017bc <__bss_end__+0x1f6ec4>
     bb8:	490b3b0b 	stmdbmi	fp, {r0, r1, r3, r8, r9, fp, ip, sp}
     bbc:	00170213 	andseq	r0, r7, r3, lsl r2
     bc0:	00340900 	eorseq	r0, r4, r0, lsl #18
     bc4:	0b3a0e03 	bleq	e843d8 <__bss_end__+0xe79ae0>
     bc8:	13490b3b 	movtne	r0, #39739	; 0x9b3b
     bcc:	00001702 	andeq	r1, r0, r2, lsl #14
     bd0:	0182890a 	orreq	r8, r2, sl, lsl #18
     bd4:	31011101 	tstcc	r1, r1, lsl #2
     bd8:	00130113 	andseq	r0, r3, r3, lsl r1
     bdc:	828a0b00 	addhi	r0, sl, #0, 22
     be0:	18020001 	stmdane	r2, {r0}
     be4:	00184291 	mulseq	r8, r1, r2
     be8:	82890c00 	addhi	r0, r9, #0, 24
     bec:	01110101 	tsteq	r1, r1, lsl #2
     bf0:	00001331 	andeq	r1, r0, r1, lsr r3
     bf4:	0b000f0d 	bleq	4830 <_start-0x37d0>
     bf8:	0013490b 	andseq	r4, r3, fp, lsl #18
     bfc:	00350e00 	eorseq	r0, r5, r0, lsl #28
     c00:	00001349 	andeq	r1, r0, r9, asr #6
     c04:	3f012e0f 	svccc	0x00012e0f
     c08:	3a0e0319 	bcc	381874 <__bss_end__+0x376f7c>
     c0c:	270b3b0b 	strcs	r3, [fp, -fp, lsl #22]
     c10:	11134919 	tstne	r3, r9, lsl r9
     c14:	40061201 	andmi	r1, r6, r1, lsl #4
     c18:	19429718 	stmdbne	r2, {r3, r4, r8, r9, sl, ip, pc}^
     c1c:	00001301 	andeq	r1, r0, r1, lsl #6
     c20:	03003410 	movweq	r3, #1040	; 0x410
     c24:	3b0b3a08 	blcc	2cf44c <__bss_end__+0x2c4b54>
     c28:	0213490b 	andseq	r4, r3, #180224	; 0x2c000
     c2c:	11000017 	tstne	r0, r7, lsl r0
     c30:	00018289 	andeq	r8, r1, r9, lsl #5
     c34:	13310111 	teqne	r1, #1073741828	; 0x40000004
     c38:	05120000 	ldreq	r0, [r2, #-0]
     c3c:	3a0e0300 	bcc	381844 <__bss_end__+0x376f4c>
     c40:	490b3b0b 	stmdbmi	fp, {r0, r1, r3, r8, r9, fp, ip, sp}
     c44:	00170213 	andseq	r0, r7, r3, lsl r2
     c48:	012e1300 	teqeq	lr, r0, lsl #6
     c4c:	0e03193f 	mcreq	9, 0, r1, cr3, cr15, {1}
     c50:	053b0b3a 	ldreq	r0, [fp, #-2874]!	; 0xb3a
     c54:	13491927 	movtne	r1, #39207	; 0x9927
     c58:	06120111 			; <UNDEFINED> instruction: 0x06120111
     c5c:	42971840 	addsmi	r1, r7, #64, 16	; 0x400000
     c60:	00130119 	andseq	r0, r3, r9, lsl r1
     c64:	00051400 	andeq	r1, r5, r0, lsl #8
     c68:	0b3a0e03 	bleq	e8447c <__bss_end__+0xe79b84>
     c6c:	1349053b 	movtne	r0, #38203	; 0x953b
     c70:	00001702 	andeq	r1, r0, r2, lsl #14
     c74:	3f012e15 	svccc	0x00012e15
     c78:	3a0e0319 	bcc	3818e4 <__bss_end__+0x376fec>
     c7c:	27053b0b 	strcs	r3, [r5, -fp, lsl #22]
     c80:	12011119 	andne	r1, r1, #1073741830	; 0x40000006
     c84:	97184006 	ldrls	r4, [r8, -r6]
     c88:	13011942 	movwne	r1, #6466	; 0x1942
     c8c:	05160000 	ldreq	r0, [r6, #-0]
     c90:	3a080300 	bcc	201898 <__bss_end__+0x1f6fa0>
     c94:	49053b0b 	stmdbmi	r5, {r0, r1, r3, r8, r9, fp, ip, sp}
     c98:	00170213 	andseq	r0, r7, r3, lsl r2
     c9c:	00341700 	eorseq	r1, r4, r0, lsl #14
     ca0:	0b3a0e03 	bleq	e844b4 <__bss_end__+0xe79bbc>
     ca4:	1349053b 	movtne	r0, #38203	; 0x953b
     ca8:	00001702 	andeq	r1, r0, r2, lsl #14
     cac:	11010b18 	tstne	r1, r8, lsl fp
     cb0:	01061201 	tsteq	r6, r1, lsl #4
     cb4:	19000013 	stmdbne	r0, {r0, r1, r4}
     cb8:	0e030034 	mcreq	0, 0, r0, cr3, cr4, {1}
     cbc:	0b3b0b3a 	bleq	ec39ac <__bss_end__+0xeb90b4>
     cc0:	193f1349 	ldmdbne	pc!, {r0, r3, r6, r8, r9, ip}	; <UNPREDICTABLE>
     cc4:	00001802 	andeq	r1, r0, r2, lsl #16
     cc8:	0300341a 	movweq	r3, #1050	; 0x41a
     ccc:	3b0b3a0e 	blcc	2cf50c <__bss_end__+0x2c4c14>
     cd0:	3f134905 	svccc	0x00134905
     cd4:	00180219 	andseq	r0, r8, r9, lsl r2
     cd8:	012e1b00 	teqeq	lr, r0, lsl #22
     cdc:	0e03193f 	mcreq	9, 0, r1, cr3, cr15, {1}
     ce0:	0b3b0b3a 	bleq	ec39d0 <__bss_end__+0xeb90d8>
     ce4:	13491927 	movtne	r1, #39207	; 0x9927
     ce8:	1301193c 	movwne	r1, #6460	; 0x193c
     cec:	051c0000 	ldreq	r0, [ip, #-0]
     cf0:	00134900 	andseq	r4, r3, r0, lsl #18
     cf4:	00261d00 	eoreq	r1, r6, r0, lsl #26
     cf8:	00001349 	andeq	r1, r0, r9, asr #6
     cfc:	0000351e 	andeq	r3, r0, lr, lsl r5
     d00:	012e1f00 	teqeq	lr, r0, lsl #30
     d04:	0e03193f 	mcreq	9, 0, r1, cr3, cr15, {1}
     d08:	0b3b0b3a 	bleq	ec39f8 <__bss_end__+0xeb9100>
     d0c:	193c1927 	ldmdbne	ip!, {r0, r1, r2, r5, r8, fp, ip}
     d10:	00001301 	andeq	r1, r0, r1, lsl #6
     d14:	3f002e20 	svccc	0x00002e20
     d18:	3a0e0319 	bcc	381984 <__bss_end__+0x37708c>
     d1c:	270b3b0b 	strcs	r3, [fp, -fp, lsl #22]
     d20:	00193c19 	andseq	r3, r9, r9, lsl ip
     d24:	11010000 	mrsne	r0, (UNDEF: 1)
     d28:	130e2501 	movwne	r2, #58625	; 0xe501
     d2c:	1b0e030b 	blne	381960 <__bss_end__+0x377068>
     d30:	1201110e 	andne	r1, r1, #-2147483645	; 0x80000003
     d34:	00171006 	andseq	r1, r7, r6
     d38:	00240200 	eoreq	r0, r4, r0, lsl #4
     d3c:	0b3e0b0b 	bleq	f83970 <__bss_end__+0xf79078>
     d40:	00000803 	andeq	r0, r0, r3, lsl #16
     d44:	0b002403 	bleq	9d58 <fast_interrupt_asm>
     d48:	030b3e0b 	movweq	r3, #48651	; 0xbe0b
     d4c:	0400000e 	streq	r0, [r0], #-14
     d50:	0e030016 	mcreq	0, 0, r0, cr3, cr6, {0}
     d54:	0b3b0b3a 	bleq	ec3a44 <__bss_end__+0xeb914c>
     d58:	00001349 	andeq	r1, r0, r9, asr #6
     d5c:	0b000f05 	bleq	4978 <_start-0x3688>
     d60:	0600000b 	streq	r0, [r0], -fp
     d64:	0b0b000f 	bleq	2c0da8 <__bss_end__+0x2b64b0>
     d68:	00001349 	andeq	r1, r0, r9, asr #6
     d6c:	49002607 	stmdbmi	r0, {r0, r1, r2, r9, sl, sp}
     d70:	08000013 	stmdaeq	r0, {r0, r1, r4}
     d74:	0b0b0113 	bleq	2c11c8 <__bss_end__+0x2b68d0>
     d78:	0b3b0b3a 	bleq	ec3a68 <__bss_end__+0xeb9170>
     d7c:	00001301 	andeq	r1, r0, r1, lsl #6
     d80:	03000d09 	movweq	r0, #3337	; 0xd09
     d84:	3b0b3a08 	blcc	2cf5ac <__bss_end__+0x2c4cb4>
     d88:	3813490b 	ldmdacc	r3, {r0, r1, r3, r8, fp, lr}
     d8c:	0a00000b 	beq	dc0 <_start-0x7240>
     d90:	0e03000d 	cdpeq	0, 0, cr0, cr3, cr13, {0}
     d94:	0b3b0b3a 	bleq	ec3a84 <__bss_end__+0xeb918c>
     d98:	0b381349 	bleq	e05ac4 <__bss_end__+0xdfb1cc>
     d9c:	130b0000 	movwne	r0, #45056	; 0xb000
     da0:	0b0e0301 	bleq	3819ac <__bss_end__+0x3770b4>
     da4:	3b0b3a0b 	blcc	2cf5d8 <__bss_end__+0x2c4ce0>
     da8:	0013010b 	andseq	r0, r3, fp, lsl #2
     dac:	000d0c00 	andeq	r0, sp, r0, lsl #24
     db0:	13490e03 	movtne	r0, #40451	; 0x9e03
     db4:	19340b38 	ldmdbne	r4!, {r3, r4, r5, r8, r9, fp}
     db8:	2e0d0000 	cdpcs	0, 0, cr0, cr13, cr0, {0}
     dbc:	3a0e0301 	bcc	3819c8 <__bss_end__+0x3770d0>
     dc0:	270b3b0b 	strcs	r3, [fp, -fp, lsl #22]
     dc4:	010b2019 	tsteq	fp, r9, lsl r0
     dc8:	0e000013 	mcreq	0, 0, r0, cr0, cr3, {0}
     dcc:	0e030005 	cdpeq	0, 0, cr0, cr3, cr5, {0}
     dd0:	0b3b0b3a 	bleq	ec3ac0 <__bss_end__+0xeb91c8>
     dd4:	00001349 	andeq	r1, r0, r9, asr #6
     dd8:	0300050f 	movweq	r0, #1295	; 0x50f
     ddc:	3b0b3a08 	blcc	2cf604 <__bss_end__+0x2c4d0c>
     de0:	0013490b 	andseq	r4, r3, fp, lsl #18
     de4:	010b1000 	mrseq	r1, (UNDEF: 11)
     de8:	34110000 	ldrcc	r0, [r1], #-0
     dec:	3a0e0300 	bcc	3819f4 <__bss_end__+0x3770fc>
     df0:	490b3b0b 	stmdbmi	fp, {r0, r1, r3, r8, r9, fp, ip, sp}
     df4:	12000013 	andne	r0, r0, #19
     df8:	193f012e 	ldmdbne	pc!, {r1, r2, r3, r5, r8}	; <UNPREDICTABLE>
     dfc:	0b3a0e03 	bleq	e84610 <__bss_end__+0xe79d18>
     e00:	19270b3b 	stmdbne	r7!, {r0, r1, r3, r4, r5, r8, r9, fp}
     e04:	06120111 			; <UNDEFINED> instruction: 0x06120111
     e08:	42971840 	addsmi	r1, r7, #64, 16	; 0x400000
     e0c:	00130119 	andseq	r0, r3, r9, lsl r1
     e10:	00051300 	andeq	r1, r5, r0, lsl #6
     e14:	0b3a0e03 	bleq	e84628 <__bss_end__+0xe79d30>
     e18:	13490b3b 	movtne	r0, #39739	; 0x9b3b
     e1c:	00001702 	andeq	r1, r0, r2, lsl #14
     e20:	03000514 	movweq	r0, #1300	; 0x514
     e24:	3b0b3a08 	blcc	2cf64c <__bss_end__+0x2c4d54>
     e28:	0213490b 	andseq	r4, r3, #180224	; 0x2c000
     e2c:	15000017 	strne	r0, [r0, #-23]
     e30:	08030034 	stmdaeq	r3, {r2, r4, r5}
     e34:	0b3b0b3a 	bleq	ec3b24 <__bss_end__+0xeb922c>
     e38:	18021349 	stmdane	r2, {r0, r3, r6, r8, r9, ip}
     e3c:	34160000 	ldrcc	r0, [r6], #-0
     e40:	3a080300 	bcc	201a48 <__bss_end__+0x1f7150>
     e44:	490b3b0b 	stmdbmi	fp, {r0, r1, r3, r8, r9, fp, ip, sp}
     e48:	00170213 	andseq	r0, r7, r3, lsl r2
     e4c:	010b1700 	tsteq	fp, r0, lsl #14
     e50:	06120111 			; <UNDEFINED> instruction: 0x06120111
     e54:	00001301 	andeq	r1, r0, r1, lsl #6
     e58:	03003418 	movweq	r3, #1048	; 0x418
     e5c:	3b0b3a0e 	blcc	2cf69c <__bss_end__+0x2c4da4>
     e60:	0213490b 	andseq	r4, r3, #180224	; 0x2c000
     e64:	19000018 	stmdbne	r0, {r3, r4}
     e68:	1331011d 	teqne	r1, #1073741831	; 0x40000007
     e6c:	06120111 			; <UNDEFINED> instruction: 0x06120111
     e70:	0b590b58 	bleq	1643bd8 <__bss_end__+0x16392e0>
     e74:	00001301 	andeq	r1, r0, r1, lsl #6
     e78:	3100051a 	tstcc	r0, sl, lsl r5
     e7c:	00170213 	andseq	r0, r7, r3, lsl r2
     e80:	00051b00 	andeq	r1, r5, r0, lsl #22
     e84:	18021331 	stmdane	r2, {r0, r4, r5, r8, r9, ip}
     e88:	051c0000 	ldreq	r0, [ip, #-0]
     e8c:	1c133100 	ldfnes	f3, [r3], {-0}
     e90:	1d00000b 	stcne	0, cr0, [r0, #-44]	; 0xffffffd4
     e94:	0111010b 	tsteq	r1, fp, lsl #2
     e98:	00000612 	andeq	r0, r0, r2, lsl r6
     e9c:	3100341e 	tstcc	r0, lr, lsl r4
     ea0:	00170213 	andseq	r0, r7, r3, lsl r2
     ea4:	82891f00 	addhi	r1, r9, #0, 30
     ea8:	01110101 	tsteq	r1, r1, lsl #2
     eac:	00001331 	andeq	r1, r0, r1, lsr r3
     eb0:	01828a20 	orreq	r8, r2, r0, lsr #20
     eb4:	91180200 	tstls	r8, r0, lsl #4
     eb8:	00001842 	andeq	r1, r0, r2, asr #16
     ebc:	31011d21 	tstcc	r1, r1, lsr #26
     ec0:	12011113 	andne	r1, r1, #-1073741820	; 0xc0000004
     ec4:	590b5806 	stmdbpl	fp, {r1, r2, fp, ip, lr}
     ec8:	2200000b 	andcs	r0, r0, #11
     ecc:	0e03012e 	adfeqsp	f0, f3, #0.5
     ed0:	0b3b0b3a 	bleq	ec3bc0 <__bss_end__+0xeb92c8>
     ed4:	13491927 	movtne	r1, #39207	; 0x9927
     ed8:	13010b20 	movwne	r0, #6944	; 0x1b20
     edc:	2e230000 	cdpcs	0, 2, cr0, cr3, cr0, {0}
     ee0:	03193f01 	tsteq	r9, #1, 30
     ee4:	3b0b3a0e 	blcc	2cf724 <__bss_end__+0x2c4e2c>
     ee8:	4919270b 	ldmdbmi	r9, {r0, r1, r3, r8, r9, sl, sp}
     eec:	12011113 	andne	r1, r1, #-1073741820	; 0xc0000004
     ef0:	97184006 	ldrls	r4, [r8, -r6]
     ef4:	13011942 	movwne	r1, #6466	; 0x1942
     ef8:	89240000 	stmdbhi	r4!, {}	; <UNPREDICTABLE>
     efc:	11000182 	smlabbne	r0, r2, r1, r0
     f00:	00133101 	andseq	r3, r3, r1, lsl #2
     f04:	82892500 	addhi	r2, r9, #0, 10
     f08:	01110101 	tsteq	r1, r1, lsl #2
     f0c:	13011331 	movwne	r1, #4913	; 0x1331
     f10:	34260000 	strtcc	r0, [r6], #-0
     f14:	3a0e0300 	bcc	381b1c <__bss_end__+0x377224>
     f18:	490b3b0b 	stmdbmi	fp, {r0, r1, r3, r8, r9, fp, ip, sp}
     f1c:	00170213 	andseq	r0, r7, r3, lsl r2
     f20:	00052700 	andeq	r2, r5, r0, lsl #14
     f24:	00001331 	andeq	r1, r0, r1, lsr r3
     f28:	03000528 	movweq	r0, #1320	; 0x528
     f2c:	3b0b3a0e 	blcc	2cf76c <__bss_end__+0x2c4e74>
     f30:	0213490b 	andseq	r4, r3, #180224	; 0x2c000
     f34:	29000018 	stmdbcs	r0, {r3, r4}
     f38:	0e030034 	mcreq	0, 0, r0, cr3, cr4, {1}
     f3c:	19341349 	ldmdbne	r4!, {r0, r3, r6, r8, r9, ip}
     f40:	00001802 	andeq	r1, r0, r2, lsl #16
     f44:	4901012a 	stmdbmi	r1, {r1, r3, r5, r8}
     f48:	00130113 	andseq	r0, r3, r3, lsl r1
     f4c:	00212b00 	eoreq	r2, r1, r0, lsl #22
     f50:	0b2f1349 	bleq	bc5c7c <__bss_end__+0xbbb384>
     f54:	342c0000 	strtcc	r0, [ip], #-0
     f58:	3a080300 	bcc	201b60 <__bss_end__+0x1f7268>
     f5c:	490b3b0b 	stmdbmi	fp, {r0, r1, r3, r8, r9, fp, ip, sp}
     f60:	00061c13 	andeq	r1, r6, r3, lsl ip
     f64:	00342d00 	eorseq	r2, r4, r0, lsl #26
     f68:	0b3a0803 	bleq	e82f7c <__bss_end__+0xe78684>
     f6c:	13490b3b 	movtne	r0, #39739	; 0x9b3b
     f70:	00000b1c 	andeq	r0, r0, ip, lsl fp
     f74:	0300052e 	movweq	r0, #1326	; 0x52e
     f78:	3b0b3a08 	blcc	2cf7a0 <__bss_end__+0x2c4ea8>
     f7c:	0213490b 	andseq	r4, r3, #180224	; 0x2c000
     f80:	2f000018 	svccs	0x00000018
     f84:	00000018 	andeq	r0, r0, r8, lsl r0
     f88:	49002130 	stmdbmi	r0, {r4, r5, r8, sp}
     f8c:	00052f13 	andeq	r2, r5, r3, lsl pc
     f90:	012e3100 	teqeq	lr, r0, lsl #2
     f94:	0e03193f 	mcreq	9, 0, r1, cr3, cr15, {1}
     f98:	0b3b0b3a 	bleq	ec3c88 <__bss_end__+0xeb9390>
     f9c:	193c1927 	ldmdbne	ip!, {r0, r1, r2, r5, r8, fp, ip}
     fa0:	00001301 	andeq	r1, r0, r1, lsl #6
     fa4:	49000532 	stmdbmi	r0, {r1, r4, r5, r8, sl}
     fa8:	33000013 	movwcc	r0, #19
     fac:	193f002e 	ldmdbne	pc!, {r1, r2, r3, r5}	; <UNPREDICTABLE>
     fb0:	0b3a0e03 	bleq	e847c4 <__bss_end__+0xe79ecc>
     fb4:	19270b3b 	stmdbne	r7!, {r0, r1, r3, r4, r5, r8, r9, fp}
     fb8:	193c1349 	ldmdbne	ip!, {r0, r3, r6, r8, r9, ip}
     fbc:	2e340000 	cdpcs	0, 3, cr0, cr4, cr0, {0}
     fc0:	03193f01 	tsteq	r9, #1, 30
     fc4:	3b0b3a0e 	blcc	2cf804 <__bss_end__+0x2c4f0c>
     fc8:	4919270b 	ldmdbmi	r9, {r0, r1, r3, r8, r9, sl, sp}
     fcc:	01193c13 	tsteq	r9, r3, lsl ip
     fd0:	35000013 	strcc	r0, [r0, #-19]
     fd4:	193f002e 	ldmdbne	pc!, {r1, r2, r3, r5}	; <UNPREDICTABLE>
     fd8:	0b3a0e03 	bleq	e847ec <__bss_end__+0xe79ef4>
     fdc:	19270b3b 	stmdbne	r7!, {r0, r1, r3, r4, r5, r8, r9, fp}
     fe0:	0000193c 	andeq	r1, r0, ip, lsr r9
     fe4:	3f012e36 	svccc	0x00012e36
     fe8:	3a0e0319 	bcc	381c54 <__bss_end__+0x37735c>
     fec:	270b3b0b 	strcs	r3, [fp, -fp, lsl #22]
     ff0:	3c134919 	ldccc	9, cr4, [r3], {25}
     ff4:	00000019 	andeq	r0, r0, r9, lsl r0
     ff8:	25011101 	strcs	r1, [r1, #-257]	; 0x101
     ffc:	030b130e 	movweq	r1, #45838	; 0xb30e
    1000:	110e1b0e 	tstne	lr, lr, lsl #22
    1004:	10061201 	andne	r1, r6, r1, lsl #4
    1008:	02000017 	andeq	r0, r0, #23
    100c:	0b0b0024 	bleq	2c10a4 <__bss_end__+0x2b67ac>
    1010:	08030b3e 	stmdaeq	r3, {r1, r2, r3, r4, r5, r8, r9, fp}
    1014:	24030000 	strcs	r0, [r3], #-0
    1018:	3e0b0b00 	vmlacc.f64	d0, d11, d0
    101c:	000e030b 	andeq	r0, lr, fp, lsl #6
    1020:	01040400 	tsteq	r4, r0, lsl #8
    1024:	0b3a0b0b 	bleq	e83c58 <__bss_end__+0xe79360>
    1028:	13010b3b 	movwne	r0, #6971	; 0x1b3b
    102c:	28050000 	stmdacs	r5, {}	; <UNPREDICTABLE>
    1030:	1c0e0300 	stcne	3, cr0, [lr], {-0}
    1034:	0600000d 	streq	r0, [r0], -sp
    1038:	0e030016 	mcreq	0, 0, r0, cr3, cr6, {0}
    103c:	0b3b0b3a 	bleq	ec3d2c <__bss_end__+0xeb9434>
    1040:	00001349 	andeq	r1, r0, r9, asr #6
    1044:	3f012e07 	svccc	0x00012e07
    1048:	3a0e0319 	bcc	381cb4 <__bss_end__+0x3773bc>
    104c:	270b3b0b 	strcs	r3, [fp, -fp, lsl #22]
    1050:	12011119 	andne	r1, r1, #1073741830	; 0x40000006
    1054:	97184006 	ldrls	r4, [r8, -r6]
    1058:	13011942 	movwne	r1, #6466	; 0x1942
    105c:	89080000 	stmdbhi	r8, {}	; <UNPREDICTABLE>
    1060:	11000182 	smlabbne	r0, r2, r1, r0
    1064:	00133101 	andseq	r3, r3, r1, lsl #2
    1068:	82890900 	addhi	r0, r9, #0, 18
    106c:	01110101 	tsteq	r1, r1, lsl #2
    1070:	13011331 	movwne	r1, #4913	; 0x1331
    1074:	8a0a0000 	bhi	28107c <__bss_end__+0x276784>
    1078:	02000182 	andeq	r0, r0, #-2147483616	; 0x80000020
    107c:	18429118 	stmdane	r2, {r3, r4, r8, ip, pc}^
    1080:	2e0b0000 	cdpcs	0, 0, cr0, cr11, cr0, {0}
    1084:	03193f01 	tsteq	r9, #1, 30
    1088:	3b0b3a0e 	blcc	2cf8c8 <__bss_end__+0x2c4fd0>
    108c:	4919270b 	ldmdbmi	r9, {r0, r1, r3, r8, r9, sl, sp}
    1090:	12011113 	andne	r1, r1, #-1073741820	; 0xc0000004
    1094:	97184006 	ldrls	r4, [r8, -r6]
    1098:	13011942 	movwne	r1, #6466	; 0x1942
    109c:	050c0000 	streq	r0, [ip, #-0]
    10a0:	3a080300 	bcc	201ca8 <__bss_end__+0x1f73b0>
    10a4:	490b3b0b 	stmdbmi	fp, {r0, r1, r3, r8, r9, fp, ip, sp}
    10a8:	00170213 	andseq	r0, r7, r3, lsl r2
    10ac:	82890d00 	addhi	r0, r9, #0, 26
    10b0:	01110101 	tsteq	r1, r1, lsl #2
    10b4:	00001331 	andeq	r1, r0, r1, lsr r3
    10b8:	0300340e 	movweq	r3, #1038	; 0x40e
    10bc:	3b0b3a0e 	blcc	2cf8fc <__bss_end__+0x2c5004>
    10c0:	3f13490b 	svccc	0x0013490b
    10c4:	00180219 	andseq	r0, r8, r9, lsl r2
    10c8:	000f0f00 	andeq	r0, pc, r0, lsl #30
    10cc:	13490b0b 	movtne	r0, #39691	; 0x9b0b
    10d0:	35100000 	ldrcc	r0, [r0, #-0]
    10d4:	00134900 	andseq	r4, r3, r0, lsl #18
    10d8:	002e1100 	eoreq	r1, lr, r0, lsl #2
    10dc:	0e03193f 	mcreq	9, 0, r1, cr3, cr15, {1}
    10e0:	0b3b0b3a 	bleq	ec3dd0 <__bss_end__+0xeb94d8>
    10e4:	193c1927 	ldmdbne	ip!, {r0, r1, r2, r5, r8, fp, ip}
    10e8:	2e120000 	cdpcs	0, 1, cr0, cr2, cr0, {0}
    10ec:	03193f01 	tsteq	r9, #1, 30
    10f0:	3b0b3a0e 	blcc	2cf930 <__bss_end__+0x2c5038>
    10f4:	3c19270b 	ldccc	7, cr2, [r9], {11}
    10f8:	00130119 	andseq	r0, r3, r9, lsl r1
    10fc:	00051300 	andeq	r1, r5, r0, lsl #6
    1100:	00001349 	andeq	r1, r0, r9, asr #6
    1104:	3f012e14 	svccc	0x00012e14
    1108:	3a0e0319 	bcc	381d74 <__bss_end__+0x37747c>
    110c:	270b3b0b 	strcs	r3, [fp, -fp, lsl #22]
    1110:	3c134919 	ldccc	9, cr4, [r3], {25}
    1114:	00130119 	andseq	r0, r3, r9, lsl r1
    1118:	00261500 	eoreq	r1, r6, r0, lsl #10
    111c:	00001349 	andeq	r1, r0, r9, asr #6
    1120:	00003516 	andeq	r3, r0, r6, lsl r5
    1124:	11010000 	mrsne	r0, (UNDEF: 1)
    1128:	130e2501 	movwne	r2, #58625	; 0xe501
    112c:	1b0e030b 	blne	381d60 <__bss_end__+0x377468>
    1130:	1201110e 	andne	r1, r1, #-2147483645	; 0x80000003
    1134:	00171006 	andseq	r1, r7, r6
    1138:	00240200 	eoreq	r0, r4, r0, lsl #4
    113c:	0b3e0b0b 	bleq	f83d70 <__bss_end__+0xf79478>
    1140:	00000803 	andeq	r0, r0, r3, lsl #16
    1144:	0b002403 	bleq	a158 <__FUNCTION__.4287+0x74>
    1148:	030b3e0b 	movweq	r3, #48651	; 0xbe0b
    114c:	0400000e 	streq	r0, [r0], #-14
    1150:	0b0b000f 	bleq	2c1194 <__bss_end__+0x2b689c>
    1154:	00001349 	andeq	r1, r0, r9, asr #6
    1158:	49002605 	stmdbmi	r0, {r0, r2, r9, sl, sp}
    115c:	06000013 			; <UNDEFINED> instruction: 0x06000013
    1160:	0b0b0104 	bleq	2c1578 <__bss_end__+0x2b6c80>
    1164:	0b3b0b3a 	bleq	ec3e54 <__bss_end__+0xeb955c>
    1168:	00001301 	andeq	r1, r0, r1, lsl #6
    116c:	03002807 	movweq	r2, #2055	; 0x807
    1170:	000d1c0e 	andeq	r1, sp, lr, lsl #24
    1174:	012e0800 	teqeq	lr, r0, lsl #16
    1178:	0e03193f 	mcreq	9, 0, r1, cr3, cr15, {1}
    117c:	0b3b0b3a 	bleq	ec3e6c <__bss_end__+0xeb9574>
    1180:	01111927 	tsteq	r1, r7, lsr #18
    1184:	18400612 	stmdane	r0, {r1, r4, r9, sl}^
    1188:	01194297 			; <UNDEFINED> instruction: 0x01194297
    118c:	09000013 	stmdbeq	r0, {r0, r1, r4}
    1190:	0e030034 	mcreq	0, 0, r0, cr3, cr4, {1}
    1194:	0b3b0b3a 	bleq	ec3e84 <__bss_end__+0xeb958c>
    1198:	193f1349 	ldmdbne	pc!, {r0, r3, r6, r8, r9, ip}	; <UNPREDICTABLE>
    119c:	0000193c 	andeq	r1, r0, ip, lsr r9
    11a0:	0300340a 	movweq	r3, #1034	; 0x40a
    11a4:	3b0b3a08 	blcc	2cf9cc <__bss_end__+0x2c50d4>
    11a8:	1c13490b 	ldcne	9, cr4, [r3], {11}
    11ac:	0b00000b 	bleq	11e0 <_start-0x6e20>
    11b0:	08030034 	stmdaeq	r3, {r2, r4, r5}
    11b4:	0b3b0b3a 	bleq	ec3ea4 <__bss_end__+0xeb95ac>
    11b8:	00001349 	andeq	r1, r0, r9, asr #6
    11bc:	0300340c 	movweq	r3, #1036	; 0x40c
    11c0:	3b0b3a08 	blcc	2cf9e8 <__bss_end__+0x2c50f0>
    11c4:	0213490b 	andseq	r4, r3, #180224	; 0x2c000
    11c8:	0d000018 	stceq	0, cr0, [r0, #-96]	; 0xffffffa0
    11cc:	0111010b 	tsteq	r1, fp, lsl #2
    11d0:	13010612 	movwne	r0, #5650	; 0x1612
    11d4:	340e0000 	strcc	r0, [lr], #-0
    11d8:	3a080300 	bcc	201de0 <__bss_end__+0x1f74e8>
    11dc:	490b3b0b 	stmdbmi	fp, {r0, r1, r3, r8, r9, fp, ip, sp}
    11e0:	00170213 	andseq	r0, r7, r3, lsl r2
    11e4:	82890f00 	addhi	r0, r9, #0, 30
    11e8:	01110101 	tsteq	r1, r1, lsl #2
    11ec:	13011331 	movwne	r1, #4913	; 0x1331
    11f0:	8a100000 	bhi	4011f8 <__bss_end__+0x3f6900>
    11f4:	02000182 	andeq	r0, r0, #-2147483616	; 0x80000020
    11f8:	18429118 	stmdane	r2, {r3, r4, r8, ip, pc}^
    11fc:	89110000 	ldmdbhi	r1, {}	; <UNPREDICTABLE>
    1200:	11000182 	smlabbne	r0, r2, r1, r0
    1204:	00133101 	andseq	r3, r3, r1, lsl #2
    1208:	00051200 	andeq	r1, r5, r0, lsl #4
    120c:	0b3a0803 	bleq	e83220 <__bss_end__+0xe78928>
    1210:	13490b3b 	movtne	r0, #39739	; 0x9b3b
    1214:	00001702 	andeq	r1, r0, r2, lsl #14
    1218:	03003413 	movweq	r3, #1043	; 0x413
    121c:	3413490e 	ldrcc	r4, [r3], #-2318	; 0x90e
    1220:	00180219 	andseq	r0, r8, r9, lsl r2
    1224:	01011400 	tsteq	r1, r0, lsl #8
    1228:	13011349 	movwne	r1, #4937	; 0x1349
    122c:	21150000 	tstcs	r5, r0
    1230:	2f134900 	svccs	0x00134900
    1234:	1600000b 	strne	r0, [r0], -fp
    1238:	193f012e 	ldmdbne	pc!, {r1, r2, r3, r5, r8}	; <UNPREDICTABLE>
    123c:	0b3a0e03 	bleq	e84a50 <__bss_end__+0xe7a158>
    1240:	19270b3b 	stmdbne	r7!, {r0, r1, r3, r4, r5, r8, r9, fp}
    1244:	1301193c 	movwne	r1, #6460	; 0x193c
    1248:	05170000 	ldreq	r0, [r7, #-0]
    124c:	00134900 	andseq	r4, r3, r0, lsl #18
    1250:	002e1800 	eoreq	r1, lr, r0, lsl #16
    1254:	0e03193f 	mcreq	9, 0, r1, cr3, cr15, {1}
    1258:	0b3b0b3a 	bleq	ec3f48 <__bss_end__+0xeb9650>
    125c:	193c1927 	ldmdbne	ip!, {r0, r1, r2, r5, r8, fp, ip}
    1260:	2e190000 	cdpcs	0, 1, cr0, cr9, cr0, {0}
    1264:	03193f01 	tsteq	r9, #1, 30
    1268:	3b0b3a0e 	blcc	2cfaa8 <__bss_end__+0x2c51b0>
    126c:	4919270b 	ldmdbmi	r9, {r0, r1, r3, r8, r9, sl, sp}
    1270:	01193c13 	tsteq	r9, r3, lsl ip
    1274:	1a000013 	bne	12c8 <_start-0x6d38>
    1278:	00000018 	andeq	r0, r0, r8, lsl r0
    127c:	01110100 	tsteq	r1, r0, lsl #2
    1280:	0b130e25 	bleq	4c4b1c <__bss_end__+0x4ba224>
    1284:	0e1b0e03 	cdpeq	14, 1, cr0, cr11, cr3, {0}
    1288:	06120111 			; <UNDEFINED> instruction: 0x06120111
    128c:	00001710 	andeq	r1, r0, r0, lsl r7
    1290:	0b002402 	bleq	a2a0 <__FUNCTION__.4376+0x50>
    1294:	030b3e0b 	movweq	r3, #48651	; 0xbe0b
    1298:	03000008 	movweq	r0, #8
    129c:	0e030016 	mcreq	0, 0, r0, cr3, cr6, {0}
    12a0:	0b3b0b3a 	bleq	ec3f90 <__bss_end__+0xeb9698>
    12a4:	00001349 	andeq	r1, r0, r9, asr #6
    12a8:	0b002404 	bleq	a2c0 <__FUNCTION__.4376+0x70>
    12ac:	030b3e0b 	movweq	r3, #48651	; 0xbe0b
    12b0:	0500000e 	streq	r0, [r0, #-14]
    12b4:	0b0b000f 	bleq	2c12f8 <__bss_end__+0x2b6a00>
    12b8:	13060000 	movwne	r0, #24576	; 0x6000
    12bc:	3a0b0b01 	bcc	2c3ec8 <__bss_end__+0x2b95d0>
    12c0:	010b3b0b 	tsteq	fp, fp, lsl #22
    12c4:	07000013 	smladeq	r0, r3, r0, r0
    12c8:	0803000d 	stmdaeq	r3, {r0, r2, r3}
    12cc:	0b3b0b3a 	bleq	ec3fbc <__bss_end__+0xeb96c4>
    12d0:	0b381349 	bleq	e05ffc <__bss_end__+0xdfb704>
    12d4:	0d080000 	stceq	0, cr0, [r8, #-0]
    12d8:	3a0e0300 	bcc	381ee0 <__bss_end__+0x3775e8>
    12dc:	490b3b0b 	stmdbmi	fp, {r0, r1, r3, r8, r9, fp, ip, sp}
    12e0:	000b3813 	andeq	r3, fp, r3, lsl r8
    12e4:	01040900 	tsteq	r4, r0, lsl #18
    12e8:	0b3a0b0b 	bleq	e83f1c <__bss_end__+0xe79624>
    12ec:	13010b3b 	movwne	r0, #6971	; 0x1b3b
    12f0:	280a0000 	stmdacs	sl, {}	; <UNPREDICTABLE>
    12f4:	1c0e0300 	stcne	3, cr0, [lr], {-0}
    12f8:	0b00000d 	bleq	1334 <_start-0x6ccc>
    12fc:	193f012e 	ldmdbne	pc!, {r1, r2, r3, r5, r8}	; <UNPREDICTABLE>
    1300:	0b3a0e03 	bleq	e84b14 <__bss_end__+0xe7a21c>
    1304:	19270b3b 	stmdbne	r7!, {r0, r1, r3, r4, r5, r8, r9, fp}
    1308:	01111349 	tsteq	r1, r9, asr #6
    130c:	18400612 	stmdane	r0, {r1, r4, r9, sl}^
    1310:	01194297 			; <UNDEFINED> instruction: 0x01194297
    1314:	0c000013 	stceq	0, cr0, [r0], {19}
    1318:	08030034 	stmdaeq	r3, {r2, r4, r5}
    131c:	0b3b0b3a 	bleq	ec400c <__bss_end__+0xeb9714>
    1320:	061c1349 	ldreq	r1, [ip], -r9, asr #6
    1324:	890d0000 	stmdbhi	sp, {}	; <UNPREDICTABLE>
    1328:	11010182 	smlabbne	r1, r2, r1, r0
    132c:	00133101 	andseq	r3, r3, r1, lsl #2
    1330:	828a0e00 	addhi	r0, sl, #0, 28
    1334:	18020001 	stmdane	r2, {r0}
    1338:	00184291 	mulseq	r8, r1, r2
    133c:	000f0f00 	andeq	r0, pc, r0, lsl #30
    1340:	13490b0b 	movtne	r0, #39691	; 0x9b0b
    1344:	2e100000 	cdpcs	0, 1, cr0, cr0, cr0, {0}
    1348:	03193f01 	tsteq	r9, #1, 30
    134c:	3b0b3a0e 	blcc	2cfb8c <__bss_end__+0x2c5294>
    1350:	4919270b 	ldmdbmi	r9, {r0, r1, r3, r8, r9, sl, sp}
    1354:	00193c13 	andseq	r3, r9, r3, lsl ip
    1358:	00051100 	andeq	r1, r5, r0, lsl #2
    135c:	00001349 	andeq	r1, r0, r9, asr #6
    1360:	01110100 	tsteq	r1, r0, lsl #2
    1364:	0b130e25 	bleq	4c4c00 <__bss_end__+0x4ba308>
    1368:	0e1b0e03 	cdpeq	14, 1, cr0, cr11, cr3, {0}
    136c:	06120111 			; <UNDEFINED> instruction: 0x06120111
    1370:	00001710 	andeq	r1, r0, r0, lsl r7
    1374:	0b002402 	bleq	a384 <__FUNCTION__.4241>
    1378:	030b3e0b 	movweq	r3, #48651	; 0xbe0b
    137c:	03000008 	movweq	r0, #8
    1380:	0b0b0024 	bleq	2c1418 <__bss_end__+0x2b6b20>
    1384:	0e030b3e 	vmoveq.16	d3[0], r0
    1388:	0f040000 	svceq	0x00040000
    138c:	490b0b00 	stmdbmi	fp, {r8, r9, fp}
    1390:	05000013 	streq	r0, [r0, #-19]
    1394:	13490026 	movtne	r0, #36902	; 0x9026
    1398:	2e060000 	cdpcs	0, 0, cr0, cr6, cr0, {0}
    139c:	03193f01 	tsteq	r9, #1, 30
    13a0:	3b0b3a0e 	blcc	2cfbe0 <__bss_end__+0x2c52e8>
    13a4:	1119270b 	tstne	r9, fp, lsl #14
    13a8:	40061201 	andmi	r1, r6, r1, lsl #4
    13ac:	19429718 	stmdbne	r2, {r3, r4, r8, r9, sl, ip, pc}^
    13b0:	00001301 	andeq	r1, r0, r1, lsl #6
    13b4:	03000507 	movweq	r0, #1287	; 0x507
    13b8:	3b0b3a08 	blcc	2cfbe0 <__bss_end__+0x2c52e8>
    13bc:	0213490b 	andseq	r4, r3, #180224	; 0x2c000
    13c0:	08000017 	stmdaeq	r0, {r0, r1, r2, r4}
    13c4:	0e030034 	mcreq	0, 0, r0, cr3, cr4, {1}
    13c8:	19341349 	ldmdbne	r4!, {r0, r3, r6, r8, r9, ip}
    13cc:	00001802 	andeq	r1, r0, r2, lsl #16
    13d0:	01828909 	orreq	r8, r2, r9, lsl #18
    13d4:	31011100 	mrscc	r1, (UNDEF: 17)
    13d8:	0a000013 	beq	142c <_start-0x6bd4>
    13dc:	01018289 	smlabbeq	r1, r9, r2, r8
    13e0:	13310111 	teqne	r1, #1073741828	; 0x40000004
    13e4:	00001301 	andeq	r1, r0, r1, lsl #6
    13e8:	01828a0b 	orreq	r8, r2, fp, lsl #20
    13ec:	91180200 	tstls	r8, r0, lsl #4
    13f0:	00001842 	andeq	r1, r0, r2, asr #16
    13f4:	4901010c 	stmdbmi	r1, {r2, r3, r8}
    13f8:	00130113 	andseq	r0, r3, r3, lsl r1
    13fc:	00210d00 	eoreq	r0, r1, r0, lsl #26
    1400:	0b2f1349 	bleq	bc612c <__bss_end__+0xbbb834>
    1404:	2e0e0000 	cdpcs	0, 0, cr0, cr14, cr0, {0}
    1408:	03193f00 	tsteq	r9, #0, 30
    140c:	3b0b3a0e 	blcc	2cfc4c <__bss_end__+0x2c5354>
    1410:	3c19270b 	ldccc	7, cr2, [r9], {11}
    1414:	0f000019 	svceq	0x00000019
    1418:	193f012e 	ldmdbne	pc!, {r1, r2, r3, r5, r8}	; <UNPREDICTABLE>
    141c:	0b3a0e03 	bleq	e84c30 <__bss_end__+0xe7a338>
    1420:	19270b3b 	stmdbne	r7!, {r0, r1, r3, r4, r5, r8, r9, fp}
    1424:	193c1349 	ldmdbne	ip!, {r0, r3, r6, r8, r9, ip}
    1428:	00001301 	andeq	r1, r0, r1, lsl #6
    142c:	49000510 	stmdbmi	r0, {r4, r8, sl}
    1430:	11000013 	tstne	r0, r3, lsl r0
    1434:	00000018 	andeq	r0, r0, r8, lsl r0
    1438:	01110100 	tsteq	r1, r0, lsl #2
    143c:	0b130e25 	bleq	4c4cd8 <__bss_end__+0x4ba3e0>
    1440:	0e1b0e03 	cdpeq	14, 1, cr0, cr11, cr3, {0}
    1444:	06120111 			; <UNDEFINED> instruction: 0x06120111
    1448:	00001710 	andeq	r1, r0, r0, lsl r7
    144c:	0b002402 	bleq	a45c <__FUNCTION__.4241+0x34>
    1450:	030b3e0b 	movweq	r3, #48651	; 0xbe0b
    1454:	03000008 	movweq	r0, #8
    1458:	0b0b0024 	bleq	2c14f0 <__bss_end__+0x2b6bf8>
    145c:	0e030b3e 	vmoveq.16	d3[0], r0
    1460:	0f040000 	svceq	0x00040000
    1464:	490b0b00 	stmdbmi	fp, {r8, r9, fp}
    1468:	05000013 	streq	r0, [r0, #-19]
    146c:	13490026 	movtne	r0, #36902	; 0x9026
    1470:	2e060000 	cdpcs	0, 0, cr0, cr6, cr0, {0}
    1474:	03193f01 	tsteq	r9, #1, 30
    1478:	3b0b3a0e 	blcc	2cfcb8 <__bss_end__+0x2c53c0>
    147c:	1119270b 	tstne	r9, fp, lsl #14
    1480:	40061201 	andmi	r1, r6, r1, lsl #4
    1484:	19429718 	stmdbne	r2, {r3, r4, r8, r9, sl, ip, pc}^
    1488:	00001301 	andeq	r1, r0, r1, lsl #6
    148c:	03000507 	movweq	r0, #1287	; 0x507
    1490:	3b0b3a08 	blcc	2cfcb8 <__bss_end__+0x2c53c0>
    1494:	0213490b 	andseq	r4, r3, #180224	; 0x2c000
    1498:	08000017 	stmdaeq	r0, {r0, r1, r2, r4}
    149c:	0e030034 	mcreq	0, 0, r0, cr3, cr4, {1}
    14a0:	19341349 	ldmdbne	r4!, {r0, r3, r6, r8, r9, ip}
    14a4:	00001802 	andeq	r1, r0, r2, lsl #16
    14a8:	01828909 	orreq	r8, r2, r9, lsl #18
    14ac:	31011100 	mrscc	r1, (UNDEF: 17)
    14b0:	0a000013 	beq	1504 <_start-0x6afc>
    14b4:	01018289 	smlabbeq	r1, r9, r2, r8
    14b8:	13310111 	teqne	r1, #1073741828	; 0x40000004
    14bc:	00001301 	andeq	r1, r0, r1, lsl #6
    14c0:	01828a0b 	orreq	r8, r2, fp, lsl #20
    14c4:	91180200 	tstls	r8, r0, lsl #4
    14c8:	00001842 	andeq	r1, r0, r2, asr #16
    14cc:	4901010c 	stmdbmi	r1, {r2, r3, r8}
    14d0:	00130113 	andseq	r0, r3, r3, lsl r1
    14d4:	00210d00 	eoreq	r0, r1, r0, lsl #26
    14d8:	0b2f1349 	bleq	bc6204 <__bss_end__+0xbbb90c>
    14dc:	2e0e0000 	cdpcs	0, 0, cr0, cr14, cr0, {0}
    14e0:	03193f00 	tsteq	r9, #0, 30
    14e4:	3b0b3a0e 	blcc	2cfd24 <__bss_end__+0x2c542c>
    14e8:	3c19270b 	ldccc	7, cr2, [r9], {11}
    14ec:	0f000019 	svceq	0x00000019
    14f0:	193f012e 	ldmdbne	pc!, {r1, r2, r3, r5, r8}	; <UNPREDICTABLE>
    14f4:	0b3a0e03 	bleq	e84d08 <__bss_end__+0xe7a410>
    14f8:	19270b3b 	stmdbne	r7!, {r0, r1, r3, r4, r5, r8, r9, fp}
    14fc:	193c1349 	ldmdbne	ip!, {r0, r3, r6, r8, r9, ip}
    1500:	00001301 	andeq	r1, r0, r1, lsl #6
    1504:	49000510 	stmdbmi	r0, {r4, r8, sl}
    1508:	11000013 	tstne	r0, r3, lsl r0
    150c:	00000018 	andeq	r0, r0, r8, lsl r0
    1510:	01110100 	tsteq	r1, r0, lsl #2
    1514:	0b130e25 	bleq	4c4db0 <__bss_end__+0x4ba4b8>
    1518:	0e1b0e03 	cdpeq	14, 1, cr0, cr11, cr3, {0}
    151c:	06120111 			; <UNDEFINED> instruction: 0x06120111
    1520:	00001710 	andeq	r1, r0, r0, lsl r7
    1524:	0b002402 	bleq	a534 <buf.4213+0x4c>
    1528:	030b3e0b 	movweq	r3, #48651	; 0xbe0b
    152c:	03000008 	movweq	r0, #8
    1530:	0b0b0024 	bleq	2c15c8 <__bss_end__+0x2b6cd0>
    1534:	0e030b3e 	vmoveq.16	d3[0], r0
    1538:	0f040000 	svceq	0x00040000
    153c:	490b0b00 	stmdbmi	fp, {r8, r9, fp}
    1540:	05000013 	streq	r0, [r0, #-19]
    1544:	13490026 	movtne	r0, #36902	; 0x9026
    1548:	2e060000 	cdpcs	0, 0, cr0, cr6, cr0, {0}
    154c:	03193f01 	tsteq	r9, #1, 30
    1550:	3b0b3a0e 	blcc	2cfd90 <__bss_end__+0x2c5498>
    1554:	1119270b 	tstne	r9, fp, lsl #14
    1558:	40061201 	andmi	r1, r6, r1, lsl #4
    155c:	19429718 	stmdbne	r2, {r3, r4, r8, r9, sl, ip, pc}^
    1560:	00001301 	andeq	r1, r0, r1, lsl #6
    1564:	03000507 	movweq	r0, #1287	; 0x507
    1568:	3b0b3a08 	blcc	2cfd90 <__bss_end__+0x2c5498>
    156c:	0213490b 	andseq	r4, r3, #180224	; 0x2c000
    1570:	08000017 	stmdaeq	r0, {r0, r1, r2, r4}
    1574:	0e030034 	mcreq	0, 0, r0, cr3, cr4, {1}
    1578:	19341349 	ldmdbne	r4!, {r0, r3, r6, r8, r9, ip}
    157c:	00001802 	andeq	r1, r0, r2, lsl #16
    1580:	01828909 	orreq	r8, r2, r9, lsl #18
    1584:	31011100 	mrscc	r1, (UNDEF: 17)
    1588:	0a000013 	beq	15dc <_start-0x6a24>
    158c:	01018289 	smlabbeq	r1, r9, r2, r8
    1590:	13310111 	teqne	r1, #1073741828	; 0x40000004
    1594:	00001301 	andeq	r1, r0, r1, lsl #6
    1598:	01828a0b 	orreq	r8, r2, fp, lsl #20
    159c:	91180200 	tstls	r8, r0, lsl #4
    15a0:	00001842 	andeq	r1, r0, r2, asr #16
    15a4:	4901010c 	stmdbmi	r1, {r2, r3, r8}
    15a8:	00130113 	andseq	r0, r3, r3, lsl r1
    15ac:	00210d00 	eoreq	r0, r1, r0, lsl #26
    15b0:	0b2f1349 	bleq	bc62dc <__bss_end__+0xbbb9e4>
    15b4:	2e0e0000 	cdpcs	0, 0, cr0, cr14, cr0, {0}
    15b8:	03193f00 	tsteq	r9, #0, 30
    15bc:	3b0b3a0e 	blcc	2cfdfc <__bss_end__+0x2c5504>
    15c0:	3c19270b 	ldccc	7, cr2, [r9], {11}
    15c4:	0f000019 	svceq	0x00000019
    15c8:	193f012e 	ldmdbne	pc!, {r1, r2, r3, r5, r8}	; <UNPREDICTABLE>
    15cc:	0b3a0e03 	bleq	e84de0 <__bss_end__+0xe7a4e8>
    15d0:	19270b3b 	stmdbne	r7!, {r0, r1, r3, r4, r5, r8, r9, fp}
    15d4:	193c1349 	ldmdbne	ip!, {r0, r3, r6, r8, r9, ip}
    15d8:	00001301 	andeq	r1, r0, r1, lsl #6
    15dc:	49000510 	stmdbmi	r0, {r4, r8, sl}
    15e0:	11000013 	tstne	r0, r3, lsl r0
    15e4:	00000018 	andeq	r0, r0, r8, lsl r0
    15e8:	01110100 	tsteq	r1, r0, lsl #2
    15ec:	0b130e25 	bleq	4c4e88 <__bss_end__+0x4ba590>
    15f0:	0e1b0e03 	cdpeq	14, 1, cr0, cr11, cr3, {0}
    15f4:	06120111 			; <UNDEFINED> instruction: 0x06120111
    15f8:	00001710 	andeq	r1, r0, r0, lsl r7
    15fc:	0b002402 	bleq	a60c <buf.4213+0x124>
    1600:	030b3e0b 	movweq	r3, #48651	; 0xbe0b
    1604:	03000008 	movweq	r0, #8
    1608:	0b0b0024 	bleq	2c16a0 <__bss_end__+0x2b6da8>
    160c:	0e030b3e 	vmoveq.16	d3[0], r0
    1610:	0f040000 	svceq	0x00040000
    1614:	490b0b00 	stmdbmi	fp, {r8, r9, fp}
    1618:	05000013 	streq	r0, [r0, #-19]
    161c:	13490026 	movtne	r0, #36902	; 0x9026
    1620:	2e060000 	cdpcs	0, 0, cr0, cr6, cr0, {0}
    1624:	03193f01 	tsteq	r9, #1, 30
    1628:	3b0b3a0e 	blcc	2cfe68 <__bss_end__+0x2c5570>
    162c:	1119270b 	tstne	r9, fp, lsl #14
    1630:	40061201 	andmi	r1, r6, r1, lsl #4
    1634:	19429718 	stmdbne	r2, {r3, r4, r8, r9, sl, ip, pc}^
    1638:	00001301 	andeq	r1, r0, r1, lsl #6
    163c:	03000507 	movweq	r0, #1287	; 0x507
    1640:	3b0b3a08 	blcc	2cfe68 <__bss_end__+0x2c5570>
    1644:	0213490b 	andseq	r4, r3, #180224	; 0x2c000
    1648:	08000017 	stmdaeq	r0, {r0, r1, r2, r4}
    164c:	0e030034 	mcreq	0, 0, r0, cr3, cr4, {1}
    1650:	19341349 	ldmdbne	r4!, {r0, r3, r6, r8, r9, ip}
    1654:	00001802 	andeq	r1, r0, r2, lsl #16
    1658:	01828909 	orreq	r8, r2, r9, lsl #18
    165c:	31011100 	mrscc	r1, (UNDEF: 17)
    1660:	0a000013 	beq	16b4 <_start-0x694c>
    1664:	01018289 	smlabbeq	r1, r9, r2, r8
    1668:	13310111 	teqne	r1, #1073741828	; 0x40000004
    166c:	00001301 	andeq	r1, r0, r1, lsl #6
    1670:	01828a0b 	orreq	r8, r2, fp, lsl #20
    1674:	91180200 	tstls	r8, r0, lsl #4
    1678:	00001842 	andeq	r1, r0, r2, asr #16
    167c:	4901010c 	stmdbmi	r1, {r2, r3, r8}
    1680:	00130113 	andseq	r0, r3, r3, lsl r1
    1684:	00210d00 	eoreq	r0, r1, r0, lsl #26
    1688:	0b2f1349 	bleq	bc63b4 <__bss_end__+0xbbbabc>
    168c:	2e0e0000 	cdpcs	0, 0, cr0, cr14, cr0, {0}
    1690:	03193f00 	tsteq	r9, #0, 30
    1694:	3b0b3a0e 	blcc	2cfed4 <__bss_end__+0x2c55dc>
    1698:	3c19270b 	ldccc	7, cr2, [r9], {11}
    169c:	0f000019 	svceq	0x00000019
    16a0:	193f012e 	ldmdbne	pc!, {r1, r2, r3, r5, r8}	; <UNPREDICTABLE>
    16a4:	0b3a0e03 	bleq	e84eb8 <__bss_end__+0xe7a5c0>
    16a8:	19270b3b 	stmdbne	r7!, {r0, r1, r3, r4, r5, r8, r9, fp}
    16ac:	193c1349 	ldmdbne	ip!, {r0, r3, r6, r8, r9, ip}
    16b0:	00001301 	andeq	r1, r0, r1, lsl #6
    16b4:	49000510 	stmdbmi	r0, {r4, r8, sl}
    16b8:	11000013 	tstne	r0, r3, lsl r0
    16bc:	00000018 	andeq	r0, r0, r8, lsl r0
    16c0:	01110100 	tsteq	r1, r0, lsl #2
    16c4:	0b130e25 	bleq	4c4f60 <__bss_end__+0x4ba668>
    16c8:	0e1b0e03 	cdpeq	14, 1, cr0, cr11, cr3, {0}
    16cc:	06120111 			; <UNDEFINED> instruction: 0x06120111
    16d0:	00001710 	andeq	r1, r0, r0, lsl r7
    16d4:	0b002402 	bleq	a6e4 <buf.4213+0x1fc>
    16d8:	030b3e0b 	movweq	r3, #48651	; 0xbe0b
    16dc:	0300000e 	movweq	r0, #14
    16e0:	0b0b0024 	bleq	2c1778 <__bss_end__+0x2b6e80>
    16e4:	08030b3e 	stmdaeq	r3, {r1, r2, r3, r4, r5, r8, r9, fp}
    16e8:	0f040000 	svceq	0x00040000
    16ec:	000b0b00 	andeq	r0, fp, r0, lsl #22
    16f0:	000f0500 	andeq	r0, pc, r0, lsl #10
    16f4:	13490b0b 	movtne	r0, #39691	; 0x9b0b
    16f8:	16060000 	strne	r0, [r6], -r0
    16fc:	3a0e0300 	bcc	382304 <__bss_end__+0x377a0c>
    1700:	490b3b0b 	stmdbmi	fp, {r0, r1, r3, r8, r9, fp, ip, sp}
    1704:	07000013 	smladeq	r0, r3, r0, r0
    1708:	193f012e 	ldmdbne	pc!, {r1, r2, r3, r5, r8}	; <UNPREDICTABLE>
    170c:	0b3a0e03 	bleq	e84f20 <__bss_end__+0xe7a628>
    1710:	19270b3b 	stmdbne	r7!, {r0, r1, r3, r4, r5, r8, r9, fp}
    1714:	01111349 	tsteq	r1, r9, asr #6
    1718:	18400612 	stmdane	r0, {r1, r4, r9, sl}^
    171c:	00194297 	mulseq	r9, r7, r2
    1720:	00050800 	andeq	r0, r5, r0, lsl #16
    1724:	0b3a0803 	bleq	e83738 <__bss_end__+0xe78e40>
    1728:	13490b3b 	movtne	r0, #39739	; 0x9b3b
    172c:	00001802 	andeq	r1, r0, r2, lsl #16
    1730:	03000509 	movweq	r0, #1289	; 0x509
    1734:	3b0b3a08 	blcc	2cff5c <__bss_end__+0x2c5664>
    1738:	0213490b 	andseq	r4, r3, #180224	; 0x2c000
    173c:	0a000017 	beq	17a0 <_start-0x6860>
    1740:	08030034 	stmdaeq	r3, {r2, r4, r5}
    1744:	0b3b0b3a 	bleq	ec4434 <__bss_end__+0xeb9b3c>
    1748:	17021349 	strne	r1, [r2, -r9, asr #6]
    174c:	340b0000 	strcc	r0, [fp], #-0
    1750:	3a080300 	bcc	202358 <__bss_end__+0x1f7a60>
    1754:	490b3b0b 	stmdbmi	fp, {r0, r1, r3, r8, r9, fp, ip, sp}
    1758:	00180213 	andseq	r0, r8, r3, lsl r2
	...

Disassembly of section .debug_loc:

00000000 <.debug_loc>:
       0:	00000000 	andeq	r0, r0, r0
       4:	0000000f 	andeq	r0, r0, pc
       8:	0f500001 	svceq	0x00500001
       c:	28000000 	stmdacs	r0, {}	; <UNPREDICTABLE>
      10:	04000000 	streq	r0, [r0], #-0
      14:	5001f300 	andpl	pc, r1, r0, lsl #6
      18:	0000289f 	muleq	r0, pc, r8	; <UNPREDICTABLE>
      1c:	00003400 	andeq	r3, r0, r0, lsl #8
      20:	50000100 	andpl	r0, r0, r0, lsl #2
      24:	00000034 	andeq	r0, r0, r4, lsr r0
      28:	00000050 	andeq	r0, r0, r0, asr r0
      2c:	01f30004 	mvnseq	r0, r4
      30:	00009f50 	andeq	r9, r0, r0, asr pc
      34:	00000000 	andeq	r0, r0, r0
      38:	003c0000 	eorseq	r0, ip, r0
      3c:	00400000 	subeq	r0, r0, r0
      40:	00010000 	andeq	r0, r1, r0
      44:	00000050 	andeq	r0, r0, r0, asr r0
      48:	00000000 	andeq	r0, r0, r0
      4c:	00005000 	andeq	r5, r0, r0
      50:	00009800 	andeq	r9, r0, r0, lsl #16
      54:	50000100 	andpl	r0, r0, r0, lsl #2
      58:	00000098 	muleq	r0, r8, r0
      5c:	0000023c 	andeq	r0, r0, ip, lsr r2
      60:	01f30004 	mvnseq	r0, r4
      64:	00009f50 	andeq	r9, r0, r0, asr pc
      68:	00000000 	andeq	r0, r0, r0
      6c:	00540000 	subseq	r0, r4, r0
      70:	00a80000 	adceq	r0, r8, r0
      74:	00020000 	andeq	r0, r2, r0
      78:	00a89f30 	adceq	r9, r8, r0, lsr pc
      7c:	01080000 	mrseq	r0, (UNDEF: 8)
      80:	00010000 	andeq	r0, r1, r0
      84:	00010850 	andeq	r0, r1, r0, asr r8
      88:	00013800 	andeq	r3, r1, r0, lsl #16
      8c:	54000100 	strpl	r0, [r0], #-256	; 0x100
      90:	00000138 	andeq	r0, r0, r8, lsr r1
      94:	00000168 	andeq	r0, r0, r8, ror #2
      98:	685c0001 	ldmdavs	ip, {r0}^
      9c:	98000001 	stmdals	r0, {r0}
      a0:	01000001 	tsteq	r0, r1
      a4:	01985000 	orrseq	r5, r8, r0
      a8:	01c80000 	biceq	r0, r8, r0
      ac:	00010000 	andeq	r0, r1, r0
      b0:	0001c854 	andeq	ip, r1, r4, asr r8
      b4:	0001f400 	andeq	pc, r1, r0, lsl #8
      b8:	5c000100 	stfpls	f0, [r0], {-0}
      bc:	000001f4 	strdeq	r0, [r0], -r4
      c0:	0000023c 	andeq	r0, r0, ip, lsr r2
      c4:	00500001 	subseq	r0, r0, r1
      c8:	00000000 	andeq	r0, r0, r0
      cc:	70000000 	andvc	r0, r0, r0
      d0:	74000000 	strvc	r0, [r0], #-0
      d4:	01000000 	mrseq	r0, (UNDEF: 0)
      d8:	00005200 	andeq	r5, r0, r0, lsl #4
      dc:	00000000 	andeq	r0, r0, r0
      e0:	00840000 	addeq	r0, r4, r0
      e4:	00880000 	addeq	r0, r8, r0
      e8:	00010000 	andeq	r0, r1, r0
      ec:	00000052 	andeq	r0, r0, r2, asr r0
      f0:	00000000 	andeq	r0, r0, r0
      f4:	0000b000 	andeq	fp, r0, r0
      f8:	0000b400 	andeq	fp, r0, r0, lsl #8
      fc:	52000100 	andpl	r0, r0, #0, 2
	...
     108:	000000e0 	andeq	r0, r0, r0, ror #1
     10c:	000000e4 	andeq	r0, r0, r4, ror #1
     110:	00520001 	subseq	r0, r2, r1
     114:	00000000 	andeq	r0, r0, r0
     118:	10000000 	andne	r0, r0, r0
     11c:	14000001 	strne	r0, [r0], #-1
     120:	01000001 	tsteq	r0, r1
     124:	00005200 	andeq	r5, r0, r0, lsl #4
     128:	00000000 	andeq	r0, r0, r0
     12c:	01400000 	mrseq	r0, (UNDEF: 64)
     130:	01440000 	mrseq	r0, (UNDEF: 68)
     134:	00010000 	andeq	r0, r1, r0
     138:	00000052 	andeq	r0, r0, r2, asr r0
     13c:	00000000 	andeq	r0, r0, r0
     140:	00017000 	andeq	r7, r1, r0
     144:	00017400 	andeq	r7, r1, r0, lsl #8
     148:	52000100 	andpl	r0, r0, #0, 2
	...
     154:	000001a0 	andeq	r0, r0, r0, lsr #3
     158:	000001a4 	andeq	r0, r0, r4, lsr #3
     15c:	00520001 	subseq	r0, r2, r1
     160:	00000000 	andeq	r0, r0, r0
     164:	d0000000 	andle	r0, r0, r0
     168:	d4000001 	strle	r0, [r0], #-1
     16c:	01000001 	tsteq	r0, r1
     170:	00005200 	andeq	r5, r0, r0, lsl #4
     174:	00000000 	andeq	r0, r0, r0
     178:	01fc0000 	mvnseq	r0, r0
     17c:	02000000 	andeq	r0, r0, #0
     180:	00010000 	andeq	r0, r1, r0
     184:	00000052 	andeq	r0, r0, r2, asr r0
     188:	00000000 	andeq	r0, r0, r0
     18c:	00023c00 	andeq	r3, r2, r0, lsl #24
     190:	00025400 	andeq	r5, r2, r0, lsl #8
     194:	50000100 	andpl	r0, r0, r0, lsl #2
     198:	00000254 	andeq	r0, r0, r4, asr r2
     19c:	000004c8 	andeq	r0, r0, r8, asr #9
     1a0:	01f30004 	mvnseq	r0, r4
     1a4:	00009f50 	andeq	r9, r0, r0, asr pc
     1a8:	00000000 	andeq	r0, r0, r0
     1ac:	023c0000 	eorseq	r0, ip, #0
     1b0:	04400000 	strbeq	r0, [r0], #-0
     1b4:	00010000 	andeq	r0, r1, r0
     1b8:	00044051 	andeq	r4, r4, r1, asr r0
     1bc:	00044c00 	andeq	r4, r4, r0, lsl #24
     1c0:	f3000400 	vshl.u8	d0, d0, d0
     1c4:	4c9f5101 	ldfmis	f5, [pc], {1}
     1c8:	54000004 	strpl	r0, [r0], #-4
     1cc:	01000004 	tsteq	r0, r4
     1d0:	04545100 	ldrbeq	r5, [r4], #-256	; 0x100
     1d4:	04c80000 	strbeq	r0, [r8], #0
     1d8:	00040000 	andeq	r0, r4, r0
     1dc:	9f5101f3 	svcls	0x005101f3
	...
     1e8:	0000023c 	andeq	r0, r0, ip, lsr r2
     1ec:	00000248 	andeq	r0, r0, r8, asr #4
     1f0:	48520001 	ldmdami	r2, {r0}^
     1f4:	c8000002 	stmdagt	r0, {r1}
     1f8:	04000004 	streq	r0, [r0], #-4
     1fc:	5201f300 	andpl	pc, r1, #0, 6
     200:	0000009f 	muleq	r0, pc, r0	; <UNPREDICTABLE>
     204:	00000000 	andeq	r0, r0, r0
     208:	00024400 	andeq	r4, r2, r0, lsl #8
     20c:	00025400 	andeq	r5, r2, r0, lsl #8
     210:	50000100 	andpl	r0, r0, r0, lsl #2
     214:	00000254 	andeq	r0, r0, r4, asr r2
     218:	000004c8 	andeq	r0, r0, r8, asr #9
     21c:	01f30004 	mvnseq	r0, r4
     220:	00009f50 	andeq	r9, r0, r0, asr pc
     224:	00000000 	andeq	r0, r0, r0
     228:	02640000 	rsbeq	r0, r4, #0
     22c:	02680000 	rsbeq	r0, r8, #0
     230:	00010000 	andeq	r0, r1, r0
     234:	00000052 	andeq	r0, r0, r2, asr r0
     238:	00000000 	andeq	r0, r0, r0
     23c:	00027000 	andeq	r7, r2, r0
     240:	00044000 	andeq	r4, r4, r0
     244:	71000800 	tstvc	r0, r0, lsl #16
     248:	081a3100 	ldmdaeq	sl, {r8, ip, sp}
     24c:	4c9f1aff 	vldmiami	pc, {s2-s256}
     250:	54000004 	strpl	r0, [r0], #-4
     254:	08000004 	stmdaeq	r0, {r2}
     258:	31007100 	mrscc	r7, (UNDEF: 16)
     25c:	1aff081a 	bne	fffc22cc <__bss_end__+0xfffb79d4>
     260:	0000009f 	muleq	r0, pc, r0	; <UNPREDICTABLE>
     264:	00000000 	andeq	r0, r0, r0
     268:	00027800 	andeq	r7, r2, r0, lsl #16
     26c:	00028c00 	andeq	r8, r2, r0, lsl #24
     270:	f3000400 	vshl.u8	d0, d0, d0
     274:	009f5001 	addseq	r5, pc, r1
     278:	00000000 	andeq	r0, r0, r0
     27c:	8c000000 	stchi	0, cr0, [r0], {-0}
     280:	9c000002 	stcls	0, cr0, [r0], {2}
     284:	04000002 	streq	r0, [r0], #-2
     288:	5001f300 	andpl	pc, r1, r0, lsl #6
     28c:	0000009f 	muleq	r0, pc, r0	; <UNPREDICTABLE>
     290:	00000000 	andeq	r0, r0, r0
     294:	0002a400 	andeq	sl, r2, r0, lsl #8
     298:	0002a800 	andeq	sl, r2, r0, lsl #16
     29c:	52000100 	andpl	r0, r0, #0, 2
	...
     2a8:	000002b0 			; <UNDEFINED> instruction: 0x000002b0
     2ac:	00000440 	andeq	r0, r0, r0, asr #8
     2b0:	00710008 	rsbseq	r0, r1, r8
     2b4:	ff081a32 			; <UNDEFINED> instruction: 0xff081a32
     2b8:	044c9f1a 	strbeq	r9, [ip], #-3866	; 0xf1a
     2bc:	04540000 	ldrbeq	r0, [r4], #-0
     2c0:	00080000 	andeq	r0, r8, r0
     2c4:	1a320071 	bne	c80490 <__bss_end__+0xc75b98>
     2c8:	9f1aff08 	svcls	0x001aff08
	...
     2d4:	000002b8 			; <UNDEFINED> instruction: 0x000002b8
     2d8:	000002cc 	andeq	r0, r0, ip, asr #5
     2dc:	01f30004 	mvnseq	r0, r4
     2e0:	00009f50 	andeq	r9, r0, r0, asr pc
     2e4:	00000000 	andeq	r0, r0, r0
     2e8:	02cc0000 	sbceq	r0, ip, #0
     2ec:	02dc0000 	sbcseq	r0, ip, #0
     2f0:	00040000 	andeq	r0, r4, r0
     2f4:	9f5001f3 	svcls	0x005001f3
	...
     300:	000002e4 	andeq	r0, r0, r4, ror #5
     304:	000002e8 	andeq	r0, r0, r8, ror #5
     308:	00520001 	subseq	r0, r2, r1
     30c:	00000000 	andeq	r0, r0, r0
     310:	f0000000 			; <UNDEFINED> instruction: 0xf0000000
     314:	40000002 	andmi	r0, r0, r2
     318:	08000004 	stmdaeq	r0, {r2}
     31c:	34007100 	strcc	r7, [r0], #-256	; 0x100
     320:	1aff081a 	bne	fffc2390 <__bss_end__+0xfffb7a98>
     324:	00044c9f 	muleq	r4, pc, ip	; <UNPREDICTABLE>
     328:	00045400 	andeq	r5, r4, r0, lsl #8
     32c:	71000800 	tstvc	r0, r0, lsl #16
     330:	081a3400 	ldmdaeq	sl, {sl, ip, sp}
     334:	009f1aff 			; <UNDEFINED> instruction: 0x009f1aff
     338:	00000000 	andeq	r0, r0, r0
     33c:	f8000000 			; <UNDEFINED> instruction: 0xf8000000
     340:	0c000002 	stceq	0, cr0, [r0], {2}
     344:	04000003 	streq	r0, [r0], #-3
     348:	5001f300 	andpl	pc, r1, r0, lsl #6
     34c:	0000009f 	muleq	r0, pc, r0	; <UNPREDICTABLE>
     350:	00000000 	andeq	r0, r0, r0
     354:	00030c00 	andeq	r0, r3, r0, lsl #24
     358:	00031c00 	andeq	r1, r3, r0, lsl #24
     35c:	f3000400 	vshl.u8	d0, d0, d0
     360:	009f5001 	addseq	r5, pc, r1
     364:	00000000 	andeq	r0, r0, r0
     368:	24000000 	strcs	r0, [r0], #-0
     36c:	28000003 	stmdacs	r0, {r0, r1}
     370:	01000003 	tsteq	r0, r3
     374:	00005200 	andeq	r5, r0, r0, lsl #4
     378:	00000000 	andeq	r0, r0, r0
     37c:	03300000 	teqeq	r0, #0
     380:	04400000 	strbeq	r0, [r0], #-0
     384:	00080000 	andeq	r0, r8, r0
     388:	1a380071 	bne	e00554 <__bss_end__+0xdf5c5c>
     38c:	9f1aff08 	svcls	0x001aff08
     390:	0000044c 	andeq	r0, r0, ip, asr #8
     394:	00000454 	andeq	r0, r0, r4, asr r4
     398:	00710008 	rsbseq	r0, r1, r8
     39c:	ff081a38 			; <UNDEFINED> instruction: 0xff081a38
     3a0:	00009f1a 	andeq	r9, r0, sl, lsl pc
     3a4:	00000000 	andeq	r0, r0, r0
     3a8:	03380000 	teqeq	r8, #0
     3ac:	034c0000 	movteq	r0, #49152	; 0xc000
     3b0:	00040000 	andeq	r0, r4, r0
     3b4:	9f5001f3 	svcls	0x005001f3
	...
     3c0:	0000034c 	andeq	r0, r0, ip, asr #6
     3c4:	0000035c 	andeq	r0, r0, ip, asr r3
     3c8:	01f30004 	mvnseq	r0, r4
     3cc:	00009f50 	andeq	r9, r0, r0, asr pc
     3d0:	00000000 	andeq	r0, r0, r0
     3d4:	03640000 	cmneq	r4, #0
     3d8:	03680000 	cmneq	r8, #0
     3dc:	00010000 	andeq	r0, r1, r0
     3e0:	00000052 	andeq	r0, r0, r2, asr r0
     3e4:	00000000 	andeq	r0, r0, r0
     3e8:	00037000 	andeq	r7, r3, r0
     3ec:	00044000 	andeq	r4, r4, r0
     3f0:	71000800 	tstvc	r0, r0, lsl #16
     3f4:	081a4000 	ldmdaeq	sl, {lr}
     3f8:	4c9f1aff 	vldmiami	pc, {s2-s256}
     3fc:	54000004 	strpl	r0, [r0], #-4
     400:	08000004 	stmdaeq	r0, {r2}
     404:	40007100 	andmi	r7, r0, r0, lsl #2
     408:	1aff081a 	bne	fffc2478 <__bss_end__+0xfffb7b80>
     40c:	0000009f 	muleq	r0, pc, r0	; <UNPREDICTABLE>
     410:	00000000 	andeq	r0, r0, r0
     414:	00037800 	andeq	r7, r3, r0, lsl #16
     418:	00038c00 	andeq	r8, r3, r0, lsl #24
     41c:	f3000400 	vshl.u8	d0, d0, d0
     420:	009f5001 	addseq	r5, pc, r1
     424:	00000000 	andeq	r0, r0, r0
     428:	8c000000 	stchi	0, cr0, [r0], {-0}
     42c:	9c000003 	stcls	0, cr0, [r0], {3}
     430:	04000003 	streq	r0, [r0], #-3
     434:	5001f300 	andpl	pc, r1, r0, lsl #6
     438:	0000009f 	muleq	r0, pc, r0	; <UNPREDICTABLE>
     43c:	00000000 	andeq	r0, r0, r0
     440:	0003a400 	andeq	sl, r3, r0, lsl #8
     444:	0003a800 	andeq	sl, r3, r0, lsl #16
     448:	52000100 	andpl	r0, r0, #0, 2
	...
     454:	000003b0 			; <UNDEFINED> instruction: 0x000003b0
     458:	00000440 	andeq	r0, r0, r0, asr #8
     45c:	00710009 	rsbseq	r0, r1, r9
     460:	081a2008 	ldmdaeq	sl, {r3, sp}
     464:	4c9f1aff 	vldmiami	pc, {s2-s256}
     468:	54000004 	strpl	r0, [r0], #-4
     46c:	09000004 	stmdbeq	r0, {r2}
     470:	08007100 	stmdaeq	r0, {r8, ip, sp, lr}
     474:	ff081a20 			; <UNDEFINED> instruction: 0xff081a20
     478:	00009f1a 	andeq	r9, r0, sl, lsl pc
     47c:	00000000 	andeq	r0, r0, r0
     480:	03b80000 			; <UNDEFINED> instruction: 0x03b80000
     484:	03cc0000 	biceq	r0, ip, #0
     488:	00040000 	andeq	r0, r4, r0
     48c:	9f5001f3 	svcls	0x005001f3
	...
     498:	000003cc 	andeq	r0, r0, ip, asr #7
     49c:	000003dc 	ldrdeq	r0, [r0], -ip
     4a0:	01f30004 	mvnseq	r0, r4
     4a4:	00009f50 	andeq	r9, r0, r0, asr pc
     4a8:	00000000 	andeq	r0, r0, r0
     4ac:	03e40000 	mvneq	r0, #0
     4b0:	03e80000 	mvneq	r0, #0
     4b4:	00010000 	andeq	r0, r1, r0
     4b8:	00000052 	andeq	r0, r0, r2, asr r0
     4bc:	00000000 	andeq	r0, r0, r0
     4c0:	0003f000 	andeq	pc, r3, r0
     4c4:	00044000 	andeq	r4, r4, r0
     4c8:	71000900 	tstvc	r0, r0, lsl #18
     4cc:	1a400800 	bne	10024d4 <__bss_end__+0xff7bdc>
     4d0:	9f1aff08 	svcls	0x001aff08
     4d4:	0000044c 	andeq	r0, r0, ip, asr #8
     4d8:	00000454 	andeq	r0, r0, r4, asr r4
     4dc:	00710009 	rsbseq	r0, r1, r9
     4e0:	081a4008 	ldmdaeq	sl, {r3, lr}
     4e4:	009f1aff 			; <UNDEFINED> instruction: 0x009f1aff
     4e8:	00000000 	andeq	r0, r0, r0
     4ec:	f8000000 			; <UNDEFINED> instruction: 0xf8000000
     4f0:	0c000003 	stceq	0, cr0, [r0], {3}
     4f4:	04000004 	streq	r0, [r0], #-4
     4f8:	5001f300 	andpl	pc, r1, r0, lsl #6
     4fc:	0000009f 	muleq	r0, pc, r0	; <UNPREDICTABLE>
     500:	00000000 	andeq	r0, r0, r0
     504:	00040c00 	andeq	r0, r4, r0, lsl #24
     508:	00041c00 	andeq	r1, r4, r0, lsl #24
     50c:	f3000400 	vshl.u8	d0, d0, d0
     510:	009f5001 	addseq	r5, pc, r1
     514:	00000000 	andeq	r0, r0, r0
     518:	24000000 	strcs	r0, [r0], #-0
     51c:	28000004 	stmdacs	r0, {r2}
     520:	01000004 	tsteq	r0, r4
     524:	00005200 	andeq	r5, r0, r0, lsl #4
     528:	00000000 	andeq	r0, r0, r0
     52c:	04300000 	ldrteq	r0, [r0], #-0
     530:	04400000 	strbeq	r0, [r0], #-0
     534:	00090000 	andeq	r0, r9, r0
     538:	80080071 	andhi	r0, r8, r1, ror r0
     53c:	1aff081a 	bne	fffc25ac <__bss_end__+0xfffb7cb4>
     540:	00044c9f 	muleq	r4, pc, ip	; <UNPREDICTABLE>
     544:	00045400 	andeq	r5, r4, r0, lsl #8
     548:	71000900 	tstvc	r0, r0, lsl #18
     54c:	1a800800 	bne	fe002554 <__bss_end__+0xfdff7c5c>
     550:	9f1aff08 	svcls	0x001aff08
	...
     55c:	00000438 	andeq	r0, r0, r8, lsr r4
     560:	0000044c 	andeq	r0, r0, ip, asr #8
     564:	01f30004 	mvnseq	r0, r4
     568:	00009f50 	andeq	r9, r0, r0, asr pc
     56c:	00000000 	andeq	r0, r0, r0
     570:	044c0000 	strbeq	r0, [ip], #-0
     574:	045c0000 	ldrbeq	r0, [ip], #-0
     578:	00040000 	andeq	r0, r4, r0
     57c:	9f5001f3 	svcls	0x005001f3
	...
     588:	00000464 	andeq	r0, r0, r4, ror #8
     58c:	00000468 	andeq	r0, r0, r8, ror #8
     590:	00520001 	subseq	r0, r2, r1
     594:	00000000 	andeq	r0, r0, r0
     598:	88000000 	stmdahi	r0, {}	; <UNPREDICTABLE>
     59c:	8c000004 	stchi	0, cr0, [r0], {4}
     5a0:	01000004 	tsteq	r0, r4
     5a4:	00005200 	andeq	r5, r0, r0, lsl #4
     5a8:	00000000 	andeq	r0, r0, r0
     5ac:	04c80000 	strbeq	r0, [r8], #0
     5b0:	04ec0000 	strbteq	r0, [ip], #0
     5b4:	00010000 	andeq	r0, r1, r0
     5b8:	0004ec50 	andeq	lr, r4, r0, asr ip
     5bc:	0005cc00 	andeq	ip, r5, r0, lsl #24
     5c0:	57000100 	strpl	r0, [r0, -r0, lsl #2]
	...
     5cc:	000004c8 	andeq	r0, r0, r8, asr #9
     5d0:	000004e0 	andeq	r0, r0, r0, ror #9
     5d4:	e0510001 	subs	r0, r1, r1
     5d8:	cc000004 	stcgt	0, cr0, [r0], {4}
     5dc:	04000005 	streq	r0, [r0], #-5
     5e0:	5101f300 	mrspl	pc, SP_irq	; <UNPREDICTABLE>
     5e4:	0000009f 	muleq	r0, pc, r0	; <UNPREDICTABLE>
     5e8:	00000000 	andeq	r0, r0, r0
     5ec:	0004c800 	andeq	ip, r4, r0, lsl #16
     5f0:	0004dc00 	andeq	sp, r4, r0, lsl #24
     5f4:	52000100 	andpl	r0, r0, #0, 2
     5f8:	000004dc 	ldrdeq	r0, [r0], -ip
     5fc:	000005cc 	andeq	r0, r0, ip, asr #11
     600:	00550001 	subseq	r0, r5, r1
     604:	00000000 	andeq	r0, r0, r0
     608:	d4000000 	strle	r0, [r0], #-0
     60c:	ec000004 	stc	0, cr0, [r0], {4}
     610:	01000004 	tsteq	r0, r4
     614:	04ec5000 	strbteq	r5, [ip], #0
     618:	05cc0000 	strbeq	r0, [ip]
     61c:	00010000 	andeq	r0, r1, r0
     620:	00000057 	andeq	r0, r0, r7, asr r0
     624:	00000000 	andeq	r0, r0, r0
     628:	0005cc00 	andeq	ip, r5, r0, lsl #24
     62c:	0005d400 	andeq	sp, r5, r0, lsl #8
     630:	50000100 	andpl	r0, r0, r0, lsl #2
     634:	000005d4 	ldrdeq	r0, [r0], -r4
     638:	0000067c 	andeq	r0, r0, ip, ror r6
     63c:	01f30004 	mvnseq	r0, r4
     640:	00009f50 	andeq	r9, r0, r0, asr pc
     644:	00000000 	andeq	r0, r0, r0
     648:	002c0000 	eoreq	r0, ip, r0
     64c:	00380000 	eorseq	r0, r8, r0
     650:	00010000 	andeq	r0, r1, r0
     654:	00003850 	andeq	r3, r0, r0, asr r8
     658:	00004800 	andeq	r4, r0, r0, lsl #16
     65c:	55000100 	strpl	r0, [r0, #-256]	; 0x100
     660:	00000048 	andeq	r0, r0, r8, asr #32
     664:	00000058 	andeq	r0, r0, r8, asr r0
     668:	00500001 	subseq	r0, r0, r1
	...
     674:	0b000000 	bleq	67c <_start-0x7984>
     678:	01000000 	mrseq	r0, (UNDEF: 0)
     67c:	000b5000 	andeq	r5, fp, r0
     680:	00140000 	andseq	r0, r4, r0
     684:	00010000 	andeq	r0, r1, r0
     688:	00000054 	andeq	r0, r0, r4, asr r0
	...
     694:	00001000 	andeq	r1, r0, r0
     698:	50000100 	andpl	r0, r0, r0, lsl #2
     69c:	00000010 	andeq	r0, r0, r0, lsl r0
     6a0:	00000034 	andeq	r0, r0, r4, lsr r0
     6a4:	00540001 	subseq	r0, r4, r1
	...
     6b0:	04000000 	streq	r0, [r0], #-0
     6b4:	01000000 	mrseq	r0, (UNDEF: 0)
     6b8:	00045000 	andeq	r5, r4, r0
     6bc:	000c0000 	andeq	r0, ip, r0
     6c0:	00030000 	andeq	r0, r3, r0
     6c4:	0c9f3070 	ldceq	0, cr3, [pc], {112}	; 0x70
     6c8:	14000000 	strne	r0, [r0], #-0
     6cc:	04000000 	streq	r0, [r0], #-0
     6d0:	5001f300 	andpl	pc, r1, r0, lsl #6
     6d4:	0000009f 	muleq	r0, pc, r0	; <UNPREDICTABLE>
     6d8:	00000000 	andeq	r0, r0, r0
     6dc:	00001400 	andeq	r1, r0, r0, lsl #8
     6e0:	00002000 	andeq	r2, r0, r0
     6e4:	50000100 	andpl	r0, r0, r0, lsl #2
     6e8:	00000020 	andeq	r0, r0, r0, lsr #32
     6ec:	0000002c 	andeq	r0, r0, ip, lsr #32
     6f0:	01700003 	cmneq	r0, r3
     6f4:	00002c9f 	muleq	r0, pc, ip	; <UNPREDICTABLE>
     6f8:	00004000 	andeq	r4, r0, r0
     6fc:	50000100 	andpl	r0, r0, r0, lsl #2
	...
     708:	00000014 	andeq	r0, r0, r4, lsl r0
     70c:	00000018 	andeq	r0, r0, r8, lsl r0
     710:	18510001 	ldmdane	r1, {r0}^
     714:	40000000 	andmi	r0, r0, r0
     718:	04000000 	streq	r0, [r0], #-0
     71c:	5101f300 	mrspl	pc, SP_irq	; <UNPREDICTABLE>
     720:	0000009f 	muleq	r0, pc, r0	; <UNPREDICTABLE>
     724:	00000000 	andeq	r0, r0, r0
     728:	00004000 	andeq	r4, r0, r0
     72c:	00006000 	andeq	r6, r0, r0
     730:	50000100 	andpl	r0, r0, r0, lsl #2
     734:	00000060 	andeq	r0, r0, r0, rrx
     738:	0000006c 	andeq	r0, r0, ip, rrx
     73c:	01710003 	cmneq	r1, r3
     740:	00006c9f 	muleq	r0, pc, ip	; <UNPREDICTABLE>
     744:	00007400 	andeq	r7, r0, r0, lsl #8
     748:	51000100 	mrspl	r0, (UNDEF: 16)
     74c:	00000074 	andeq	r0, r0, r4, ror r0
     750:	00000080 	andeq	r0, r0, r0, lsl #1
     754:	01710003 	cmneq	r1, r3
     758:	0000009f 	muleq	r0, pc, r0	; <UNPREDICTABLE>
     75c:	00000000 	andeq	r0, r0, r0
     760:	00004000 	andeq	r4, r0, r0
     764:	00005000 	andeq	r5, r0, r0
     768:	51000100 	mrspl	r0, (UNDEF: 16)
     76c:	00000050 	andeq	r0, r0, r0, asr r0
     770:	00000080 	andeq	r0, r0, r0, lsl #1
     774:	01f30004 	mvnseq	r0, r4
     778:	00009f51 	andeq	r9, r0, r1, asr pc
     77c:	00000000 	andeq	r0, r0, r0
     780:	00400000 	subeq	r0, r0, r0
     784:	00580000 	subseq	r0, r8, r0
     788:	00010000 	andeq	r0, r1, r0
     78c:	00005852 	andeq	r5, r0, r2, asr r8
     790:	00006400 	andeq	r6, r0, r0, lsl #8
     794:	52000100 	andpl	r0, r0, #0, 2
     798:	00000064 	andeq	r0, r0, r4, rrx
     79c:	00000068 	andeq	r0, r0, r8, rrx
     7a0:	01720003 	cmneq	r2, r3
     7a4:	0000689f 	muleq	r0, pc, r8	; <UNPREDICTABLE>
     7a8:	00008000 	andeq	r8, r0, r0
     7ac:	52000100 	andpl	r0, r0, #0, 2
	...
     7b8:	00000040 	andeq	r0, r0, r0, asr #32
     7bc:	00000054 	andeq	r0, r0, r4, asr r0
     7c0:	54530001 	ldrbpl	r0, [r3], #-1
     7c4:	78000000 	stmdavc	r0, {}	; <UNPREDICTABLE>
     7c8:	01000000 	mrseq	r0, (UNDEF: 0)
     7cc:	00005300 	andeq	r5, r0, r0, lsl #6
     7d0:	00000000 	andeq	r0, r0, r0
     7d4:	00480000 	subeq	r0, r8, r0
     7d8:	00600000 	rsbeq	r0, r0, r0
     7dc:	00010000 	andeq	r0, r1, r0
     7e0:	0000605c 	andeq	r6, r0, ip, asr r0
     7e4:	00008000 	andeq	r8, r0, r0
     7e8:	f3000a00 	vpmax.u8	d0, d0, d0
     7ec:	01f35201 	mvnseq	r5, r1, lsl #4
     7f0:	01231c53 	teqeq	r3, r3, asr ip
     7f4:	0000009f 	muleq	r0, pc, r0	; <UNPREDICTABLE>
     7f8:	00000000 	andeq	r0, r0, r0
     7fc:	00008000 	andeq	r8, r0, r0
     800:	0000a400 	andeq	sl, r0, r0, lsl #8
     804:	50000100 	andpl	r0, r0, r0, lsl #2
     808:	000000a4 	andeq	r0, r0, r4, lsr #1
     80c:	00000118 	andeq	r0, r0, r8, lsl r1
     810:	02700003 	rsbseq	r0, r0, #3
     814:	0001189f 	muleq	r1, pc, r8	; <UNPREDICTABLE>
     818:	00022800 	andeq	r2, r2, r0, lsl #16
     81c:	f3000400 	vshl.u8	d0, d0, d0
     820:	009f5001 	addseq	r5, pc, r1
     824:	00000000 	andeq	r0, r0, r0
     828:	80000000 	andhi	r0, r0, r0
     82c:	f0000000 			; <UNDEFINED> instruction: 0xf0000000
     830:	01000000 	mrseq	r0, (UNDEF: 0)
     834:	00f05100 	rscseq	r5, r0, r0, lsl #2
     838:	01600000 	cmneq	r0, r0
     83c:	00010000 	andeq	r0, r1, r0
     840:	00016055 	andeq	r6, r1, r5, asr r0
     844:	00016800 	andeq	r6, r1, r0, lsl #16
     848:	51000100 	mrspl	r0, (UNDEF: 16)
     84c:	00000168 	andeq	r0, r0, r8, ror #2
     850:	00000188 	andeq	r0, r0, r8, lsl #3
     854:	88550001 	ldmdahi	r5, {r0}^
     858:	9c000001 	stcls	0, cr0, [r0], {1}
     85c:	01000001 	tsteq	r0, r1
     860:	019c5100 	orrseq	r5, ip, r0, lsl #2
     864:	01bc0000 			; <UNDEFINED> instruction: 0x01bc0000
     868:	00010000 	andeq	r0, r1, r0
     86c:	0001bc55 	andeq	fp, r1, r5, asr ip
     870:	0001bf00 	andeq	fp, r1, r0, lsl #30
     874:	51000100 	mrspl	r0, (UNDEF: 16)
     878:	000001bf 			; <UNDEFINED> instruction: 0x000001bf
     87c:	00000208 	andeq	r0, r0, r8, lsl #4
     880:	08550001 	ldmdaeq	r5, {r0}^
     884:	28000002 	stmdacs	r0, {r1}
     888:	04000002 	streq	r0, [r0], #-2
     88c:	5101f300 	mrspl	pc, SP_irq	; <UNPREDICTABLE>
     890:	0000009f 	muleq	r0, pc, r0	; <UNPREDICTABLE>
     894:	00000000 	andeq	r0, r0, r0
     898:	00008000 	andeq	r8, r0, r0
     89c:	00009400 	andeq	r9, r0, r0, lsl #8
     8a0:	52000100 	andpl	r0, r0, #0, 2
     8a4:	00000094 	muleq	r0, r4, r0
     8a8:	00000208 	andeq	r0, r0, r8, lsl #4
     8ac:	08540001 	ldmdaeq	r4, {r0}^
     8b0:	28000002 	stmdacs	r0, {r1}
     8b4:	04000002 	streq	r0, [r0], #-2
     8b8:	5201f300 	andpl	pc, r1, #0, 6
     8bc:	0000009f 	muleq	r0, pc, r0	; <UNPREDICTABLE>
     8c0:	00000000 	andeq	r0, r0, r0
     8c4:	00008000 	andeq	r8, r0, r0
     8c8:	00010000 	andeq	r0, r1, r0
     8cc:	53000100 	movwpl	r0, #256	; 0x100
     8d0:	00000104 	andeq	r0, r0, r4, lsl #2
     8d4:	00000108 	andeq	r0, r0, r8, lsl #2
     8d8:	60530001 	subsvs	r0, r3, r1
     8dc:	68000001 	stmdavs	r0, {r0}
     8e0:	01000001 	tsteq	r0, r1
     8e4:	01685300 	cmneq	r8, r0, lsl #6
     8e8:	01880000 	orreq	r0, r8, r0
     8ec:	00040000 	andeq	r0, r4, r0
     8f0:	9f5301f3 	svcls	0x005301f3
     8f4:	00000188 	andeq	r0, r0, r8, lsl #3
     8f8:	00000190 	muleq	r0, r0, r1
     8fc:	90530001 	subsls	r0, r3, r1
     900:	94000001 	strls	r0, [r0], #-1
     904:	01000001 	tsteq	r0, r1
     908:	01945c00 	orrseq	r5, r4, r0, lsl #24
     90c:	019c0000 	orrseq	r0, ip, r0
     910:	00010000 	andeq	r0, r1, r0
     914:	00019c53 	andeq	r9, r1, r3, asr ip
     918:	0001bc00 	andeq	fp, r1, r0, lsl #24
     91c:	f3000400 	vshl.u8	d0, d0, d0
     920:	bc9f5301 	ldclt	3, cr5, [pc], {1}
     924:	bf000001 	svclt	0x00000001
     928:	01000001 	tsteq	r0, r1
     92c:	01bf5300 			; <UNDEFINED> instruction: 0x01bf5300
     930:	01e00000 	mvneq	r0, r0
     934:	00040000 	andeq	r0, r4, r0
     938:	9f5301f3 	svcls	0x005301f3
	...
     944:	00000080 	andeq	r0, r0, r0, lsl #1
     948:	0000009c 	muleq	r0, ip, r0
     94c:	00910002 	addseq	r0, r1, r2
     950:	0000009c 	muleq	r0, ip, r0
     954:	000001bf 			; <UNDEFINED> instruction: 0x000001bf
     958:	e0520001 	subs	r0, r2, r1
     95c:	eb000001 	bl	968 <_start-0x7698>
     960:	01000001 	tsteq	r0, r1
     964:	00005200 	andeq	r5, r0, r0, lsl #4
     968:	00000000 	andeq	r0, r0, r0
     96c:	009c0000 	addseq	r0, ip, r0
     970:	010c0000 	mrseq	r0, (UNDEF: 12)
     974:	00040000 	andeq	r0, r4, r0
     978:	9f7fa091 	svcls	0x007fa091
     97c:	0000010c 	andeq	r0, r0, ip, lsl #2
     980:	00000118 	andeq	r0, r0, r8, lsl r1
     984:	18510001 	ldmdane	r1, {r0}^
     988:	1c000001 	stcne	0, cr0, [r0], {1}
     98c:	01000001 	tsteq	r0, r1
     990:	011c5300 	tsteq	ip, r0, lsl #6
     994:	01200000 	teqeq	r0, r0
     998:	00010000 	andeq	r0, r1, r0
     99c:	00012051 	andeq	r2, r1, r1, asr r0
     9a0:	00016000 	andeq	r6, r1, r0
     9a4:	53000100 	movwpl	r0, #256	; 0x100
     9a8:	00000160 	andeq	r0, r0, r0, ror #2
     9ac:	00000164 	andeq	r0, r0, r4, ror #2
     9b0:	a0910004 	addsge	r0, r1, r4
     9b4:	01649f7f 	smceq	18943	; 0x49ff
     9b8:	016c0000 	cmneq	ip, r0
     9bc:	00010000 	andeq	r0, r1, r0
     9c0:	00016c5e 	andeq	r6, r1, lr, asr ip
     9c4:	00018800 	andeq	r8, r1, r0, lsl #16
     9c8:	53000100 	movwpl	r0, #256	; 0x100
     9cc:	00000188 	andeq	r0, r0, r8, lsl #3
     9d0:	00000190 	muleq	r0, r0, r1
     9d4:	a1910004 	orrsge	r0, r1, r4
     9d8:	01909f7f 	orrseq	r9, r0, pc, ror pc
     9dc:	01940000 	orrseq	r0, r4, r0
     9e0:	00010000 	andeq	r0, r1, r0
     9e4:	00019453 	andeq	r9, r1, r3, asr r4
     9e8:	00019800 	andeq	r9, r1, r0, lsl #16
     9ec:	91000400 	tstls	r0, r0, lsl #8
     9f0:	989f7fa0 	ldmls	pc, {r5, r7, r8, r9, sl, fp, ip, sp, lr}	; <UNPREDICTABLE>
     9f4:	a0000001 	andge	r0, r0, r1
     9f8:	01000001 	tsteq	r0, r1
     9fc:	01a05e00 	lsleq	r5, r0, #28
     a00:	01bc0000 			; <UNDEFINED> instruction: 0x01bc0000
     a04:	00010000 	andeq	r0, r1, r0
     a08:	0001bc53 	andeq	fp, r1, r3, asr ip
     a0c:	0001e000 	andeq	lr, r1, r0
     a10:	91000400 	tstls	r0, r0, lsl #8
     a14:	e09f7fa0 	adds	r7, pc, r0, lsr #31
     a18:	eb000001 	bl	a24 <_start-0x75dc>
     a1c:	01000001 	tsteq	r0, r1
     a20:	00005300 	andeq	r5, r0, r0, lsl #6
     a24:	00000000 	andeq	r0, r0, r0
     a28:	00a00000 	adceq	r0, r0, r0
     a2c:	00ec0000 	rsceq	r0, ip, r0
     a30:	00010000 	andeq	r0, r1, r0
     a34:	0000ec5c 	andeq	lr, r0, ip, asr ip
     a38:	00010000 	andeq	r0, r1, r0
     a3c:	53000100 	movwpl	r0, #256	; 0x100
     a40:	00000100 	andeq	r0, r0, r0, lsl #2
     a44:	00000104 	andeq	r0, r0, r4, lsl #2
     a48:	045c0001 	ldrbeq	r0, [ip], #-1
     a4c:	08000001 	stmdaeq	r0, {r0}
     a50:	01000001 	tsteq	r0, r1
     a54:	01085300 	mrseq	r5, (UNDEF: 56)
     a58:	01180000 	tsteq	r8, r0
     a5c:	00010000 	andeq	r0, r1, r0
     a60:	0001185c 	andeq	r1, r1, ip, asr r8
     a64:	00011c00 	andeq	r1, r1, r0, lsl #24
     a68:	50000100 	andpl	r0, r0, r0, lsl #2
     a6c:	0000011c 	andeq	r0, r0, ip, lsl r1
     a70:	0000013c 	andeq	r0, r0, ip, lsr r1
     a74:	445c0001 	ldrbmi	r0, [ip], #-1
     a78:	58000001 	stmdapl	r0, {r0}
     a7c:	01000001 	tsteq	r0, r1
     a80:	01585000 	cmpeq	r8, r0
     a84:	01600000 	cmneq	r0, r0
     a88:	00010000 	andeq	r0, r1, r0
     a8c:	0001605c 	andeq	r6, r1, ip, asr r0
     a90:	00016800 	andeq	r6, r1, r0, lsl #16
     a94:	53000100 	movwpl	r0, #256	; 0x100
     a98:	00000168 	andeq	r0, r0, r8, ror #2
     a9c:	00000178 	andeq	r0, r0, r8, ror r1
     aa0:	785c0001 	ldmdavc	ip, {r0}^
     aa4:	80000001 	andhi	r0, r0, r1
     aa8:	05000001 	streq	r0, [r0, #-1]
     aac:	34007c00 	strcc	r7, [r0], #-3072	; 0xc00
     ab0:	01809f25 	orreq	r9, r0, r5, lsr #30
     ab4:	01880000 	orreq	r0, r8, r0
     ab8:	00010000 	andeq	r0, r1, r0
     abc:	0001885c 	andeq	r8, r1, ip, asr r8
     ac0:	00019000 	andeq	r9, r1, r0
     ac4:	53000100 	movwpl	r0, #256	; 0x100
     ac8:	00000190 	muleq	r0, r0, r1
     acc:	00000194 	muleq	r0, r4, r1
     ad0:	945c0001 	ldrbls	r0, [ip], #-1
     ad4:	9c000001 	stcls	0, cr0, [r0], {1}
     ad8:	01000001 	tsteq	r0, r1
     adc:	019c5300 	orrseq	r5, ip, r0, lsl #6
     ae0:	01ac0000 			; <UNDEFINED> instruction: 0x01ac0000
     ae4:	00010000 	andeq	r0, r1, r0
     ae8:	0001ac5c 	andeq	sl, r1, ip, asr ip
     aec:	0001b400 	andeq	fp, r1, r0, lsl #8
     af0:	7c000500 	cfstr32vc	mvfx0, [r0], {-0}
     af4:	9f253100 	svcls	0x00253100
     af8:	000001b4 			; <UNDEFINED> instruction: 0x000001b4
     afc:	000001bc 			; <UNDEFINED> instruction: 0x000001bc
     b00:	bc5c0001 	mrrclt	0, 0, r0, ip, cr1
     b04:	bf000001 	svclt	0x00000001
     b08:	01000001 	tsteq	r0, r1
     b0c:	01bf5300 			; <UNDEFINED> instruction: 0x01bf5300
     b10:	01e00000 	mvneq	r0, r0
     b14:	00040000 	andeq	r0, r4, r0
     b18:	9f5301f3 	svcls	0x005301f3
     b1c:	000001e0 	andeq	r0, r0, r0, ror #3
     b20:	000001eb 	andeq	r0, r0, fp, ror #3
     b24:	005c0001 	subseq	r0, ip, r1
     b28:	00000000 	andeq	r0, r0, r0
     b2c:	ec000000 	stc	0, cr0, [r0], {-0}
     b30:	fc000000 	stc2	0, cr0, [r0], {-0}
     b34:	02000000 	andeq	r0, r0, #0
     b38:	fc9f3000 	ldc2	0, cr3, [pc], {0}
     b3c:	04000000 	streq	r0, [r0], #-0
     b40:	02000001 	andeq	r0, r0, #1
     b44:	049f3100 	ldreq	r3, [pc], #256	; b4c <_start-0x74b4>
     b48:	08000001 	stmdaeq	r0, {r0}
     b4c:	02000001 	andeq	r0, r0, #1
     b50:	009f3000 	addseq	r3, pc, r0
     b54:	00000000 	andeq	r0, r0, r0
     b58:	28000000 	stmdacs	r0, {}	; <UNPREDICTABLE>
     b5c:	3b000002 	blcc	b6c <_start-0x7494>
     b60:	01000002 	tsteq	r0, r2
     b64:	023b5000 	eorseq	r5, fp, #0
     b68:	025c0000 	subseq	r0, ip, #0
     b6c:	00040000 	andeq	r0, r4, r0
     b70:	9f5001f3 	svcls	0x005001f3
     b74:	0000025c 	andeq	r0, r0, ip, asr r2
     b78:	00000290 	muleq	r0, r0, r2
     b7c:	00500001 	subseq	r0, r0, r1
     b80:	00000000 	andeq	r0, r0, r0
     b84:	28000000 	stmdacs	r0, {}	; <UNPREDICTABLE>
     b88:	3b000002 	blcc	b98 <_start-0x7468>
     b8c:	01000002 	tsteq	r0, r2
     b90:	023b5100 	eorseq	r5, fp, #0, 2
     b94:	025c0000 	subseq	r0, ip, #0
     b98:	00040000 	andeq	r0, r4, r0
     b9c:	9f5101f3 	svcls	0x005101f3
     ba0:	0000025c 	andeq	r0, r0, ip, asr r2
     ba4:	00000290 	muleq	r0, r0, r2
     ba8:	00510001 	subseq	r0, r1, r1
     bac:	00000000 	andeq	r0, r0, r0
     bb0:	90000000 	andls	r0, r0, r0
     bb4:	bc000002 	stclt	0, cr0, [r0], {2}
     bb8:	01000002 	tsteq	r0, r2
     bbc:	02bc5000 	adcseq	r5, ip, #0
     bc0:	050c0000 	streq	r0, [ip, #-0]
     bc4:	00010000 	andeq	r0, r1, r0
     bc8:	00050c5a 	andeq	r0, r5, sl, asr ip
     bcc:	00052400 	andeq	r2, r5, r0, lsl #8
     bd0:	f3000400 	vshl.u8	d0, d0, d0
     bd4:	009f5001 	addseq	r5, pc, r1
     bd8:	00000000 	andeq	r0, r0, r0
     bdc:	90000000 	andls	r0, r0, r0
     be0:	a4000002 	strge	r0, [r0], #-2
     be4:	01000002 	tsteq	r0, r2
     be8:	02a45100 	adceq	r5, r4, #0, 2
     bec:	02bc0000 	adcseq	r0, ip, #0
     bf0:	00030000 	andeq	r0, r3, r0
     bf4:	bc9f0171 	ldflts	f0, [pc], {113}	; 0x71
     bf8:	24000002 	strcs	r0, [r0], #-2
     bfc:	04000005 	streq	r0, [r0], #-5
     c00:	5101f300 	mrspl	pc, SP_irq	; <UNPREDICTABLE>
     c04:	0000009f 	muleq	r0, pc, r0	; <UNPREDICTABLE>
     c08:	00000000 	andeq	r0, r0, r0
     c0c:	00029000 	andeq	r9, r2, r0
     c10:	0002c400 	andeq	ip, r2, r0, lsl #8
     c14:	52000100 	andpl	r0, r0, #0, 2
     c18:	000002c4 	andeq	r0, r0, r4, asr #5
     c1c:	000002ec 	andeq	r0, r0, ip, ror #5
     c20:	ec520001 	mrrc	0, 0, r0, r2, cr1
     c24:	bc000002 	stclt	0, cr0, [r0], {2}
     c28:	01000004 	tsteq	r0, r4
     c2c:	04bc5600 	ldrteq	r5, [ip], #1536	; 0x600
     c30:	05240000 	streq	r0, [r4, #-0]!
     c34:	00010000 	andeq	r0, r1, r0
     c38:	00000052 	andeq	r0, r0, r2, asr r0
     c3c:	00000000 	andeq	r0, r0, r0
     c40:	00029000 	andeq	r9, r2, r0
     c44:	0002ac00 	andeq	sl, r2, r0, lsl #24
     c48:	53000100 	movwpl	r0, #256	; 0x100
	...
     c54:	000002a0 	andeq	r0, r0, r0, lsr #5
     c58:	000002bc 			; <UNDEFINED> instruction: 0x000002bc
     c5c:	bc500001 	mrrclt	0, 0, r0, r0, cr1	; <UNPREDICTABLE>
     c60:	c0000002 	andgt	r0, r0, r2
     c64:	01000002 	tsteq	r0, r2
     c68:	02c05400 	sbceq	r5, r0, #0, 8
     c6c:	02cc0000 	sbceq	r0, ip, #0
     c70:	00030000 	andeq	r0, r3, r0
     c74:	cc9f0174 	ldfgts	f0, [pc], {116}	; 0x74
     c78:	d8000002 	stmdale	r0, {r1}
     c7c:	01000002 	tsteq	r0, r2
     c80:	02d85400 	sbcseq	r5, r8, #0, 8
     c84:	02e40000 	rsceq	r0, r4, #0
     c88:	00030000 	andeq	r0, r3, r0
     c8c:	e49f0174 	ldr	r0, [pc], #372	; c94 <_start-0x736c>
     c90:	c0000002 	andgt	r0, r0, r2
     c94:	01000004 	tsteq	r0, r4
     c98:	04c05400 	strbeq	r5, [r0], #1024	; 0x400
     c9c:	04cc0000 	strbeq	r0, [ip], #0
     ca0:	00030000 	andeq	r0, r3, r0
     ca4:	cc9f0174 	ldfgts	f0, [pc], {116}	; 0x74
     ca8:	f8000004 			; <UNDEFINED> instruction: 0xf8000004
     cac:	01000004 	tsteq	r0, r4
     cb0:	04f85400 	ldrbteq	r5, [r8], #1024	; 0x400
     cb4:	05040000 	streq	r0, [r4, #-0]
     cb8:	00010000 	andeq	r0, r1, r0
     cbc:	00050450 	andeq	r0, r5, r0, asr r4
     cc0:	00050c00 	andeq	r0, r5, r0, lsl #24
     cc4:	74000300 	strvc	r0, [r0], #-768	; 0x300
     cc8:	00009f01 	andeq	r9, r0, r1, lsl #30
     ccc:	00000000 	andeq	r0, r0, r0
     cd0:	02a80000 	adceq	r0, r8, #0
     cd4:	050c0000 	streq	r0, [ip, #-0]
     cd8:	00010000 	andeq	r0, r1, r0
     cdc:	00050c58 	andeq	r0, r5, r8, asr ip
     ce0:	00052400 	andeq	r2, r5, r0, lsl #8
     ce4:	f3000a00 	vpmax.u8	d0, d0, d0
     ce8:	01f35101 	mvnseq	r5, r1, lsl #2
     cec:	1c312250 	lfmne	f2, 4, [r1], #-320	; 0xfffffec0
     cf0:	0000009f 	muleq	r0, pc, r0	; <UNPREDICTABLE>
     cf4:	00000000 	andeq	r0, r0, r0
     cf8:	0003f400 	andeq	pc, r3, r0, lsl #8
     cfc:	0003f800 	andeq	pc, r3, r0, lsl #16
     d00:	50000100 	andpl	r0, r0, r0, lsl #2
     d04:	00000418 	andeq	r0, r0, r8, lsl r4
     d08:	0000041c 	andeq	r0, r0, ip, lsl r4
     d0c:	3c500001 	mrrccc	0, 0, r0, r0, cr1	; <UNPREDICTABLE>
     d10:	40000004 	andmi	r0, r0, r4
     d14:	01000004 	tsteq	r0, r4
     d18:	04605000 	strbteq	r5, [r0], #-0
     d1c:	04640000 	strbteq	r0, [r4], #-0
     d20:	00010000 	andeq	r0, r1, r0
     d24:	00046c50 	andeq	r6, r4, r0, asr ip
     d28:	00047000 	andeq	r7, r4, r0
     d2c:	50000100 	andpl	r0, r0, r0, lsl #2
     d30:	00000490 	muleq	r0, r0, r4
     d34:	00000494 	muleq	r0, r4, r4
     d38:	b8500001 	ldmdalt	r0, {r0}^
     d3c:	e0000004 	and	r0, r0, r4
     d40:	01000004 	tsteq	r0, r4
     d44:	00005000 	andeq	r5, r0, r0
     d48:	00000000 	andeq	r0, r0, r0
     d4c:	02ec0000 	rsceq	r0, ip, #0
     d50:	02f40000 	rscseq	r0, r4, #0
     d54:	00020000 	andeq	r0, r2, r0
     d58:	02f49f30 	rscseq	r9, r4, #48, 30	; 0xc0
     d5c:	02f80000 	rscseq	r0, r8, #0
     d60:	00010000 	andeq	r0, r1, r0
     d64:	00030457 	andeq	r0, r3, r7, asr r4
     d68:	0004e000 	andeq	lr, r4, r0
     d6c:	57000100 	strpl	r0, [r0, -r0, lsl #2]
	...
     d78:	00000004 	andeq	r0, r0, r4
     d7c:	00000008 	andeq	r0, r0, r8
     d80:	00730007 	rsbseq	r0, r3, r7
     d84:	2110000a 	tstcs	r0, sl
     d88:	0000089f 	muleq	r0, pc, r8	; <UNPREDICTABLE>
     d8c:	00001000 	andeq	r1, r0, r0
     d90:	53000100 	movwpl	r0, #256	; 0x100
	...
     d9c:	00000014 	andeq	r0, r0, r4, lsl r0
     da0:	00000018 	andeq	r0, r0, r8, lsl r0
     da4:	00730007 	rsbseq	r0, r3, r7
     da8:	1aefff0b 	bne	ffc009dc <__bss_end__+0xffbf60e4>
     dac:	0000189f 	muleq	r0, pc, r8	; <UNPREDICTABLE>
     db0:	00002000 	andeq	r2, r0, r0
     db4:	53000100 	movwpl	r0, #256	; 0x100
	...
     dc4:	0000000c 	andeq	r0, r0, ip
     dc8:	0c500001 	mrrceq	0, 0, r0, r0, cr1	; <UNPREDICTABLE>
     dcc:	20000000 	andcs	r0, r0, r0
     dd0:	01000000 	mrseq	r0, (UNDEF: 0)
     dd4:	00005400 	andeq	r5, r0, r0, lsl #8
     dd8:	00000000 	andeq	r0, r0, r0
     ddc:	00340000 	eorseq	r0, r4, r0
     de0:	003c0000 	eorseq	r0, ip, r0
     de4:	00030000 	andeq	r0, r3, r0
     de8:	3c9f0473 	cfldrscc	mvf0, [pc], {115}	; 0x73
     dec:	47000000 	strmi	r0, [r0, -r0]
     df0:	01000000 	mrseq	r0, (UNDEF: 0)
     df4:	00005300 	andeq	r5, r0, r0, lsl #6
     df8:	00000000 	andeq	r0, r0, r0
     dfc:	00480000 	subeq	r0, r8, r0
     e00:	00740000 	rsbseq	r0, r4, r0
     e04:	00010000 	andeq	r0, r1, r0
     e08:	00007450 	andeq	r7, r0, r0, asr r4
     e0c:	00008300 	andeq	r8, r0, r0, lsl #6
     e10:	73000300 	movwvc	r0, #768	; 0x300
     e14:	00009f78 	andeq	r9, r0, r8, ror pc
     e18:	00000000 	andeq	r0, r0, r0
     e1c:	8db40000 	ldchi	0, cr0, [r4]
     e20:	8db80000 	ldchi	0, cr0, [r8]
     e24:	00020000 	andeq	r0, r2, r0
     e28:	8db89f30 	ldchi	15, cr9, [r8, #192]!	; 0xc0
     e2c:	8dbc0000 	ldchi	0, cr0, [ip]
     e30:	00010000 	andeq	r0, r1, r0
     e34:	00000050 	andeq	r0, r0, r0, asr r0
     e38:	00000000 	andeq	r0, r0, r0
     e3c:	008dcc00 	addeq	ip, sp, r0, lsl #24
     e40:	008dd000 	addeq	sp, sp, r0
     e44:	30000200 	andcc	r0, r0, r0, lsl #4
     e48:	008dd09f 	umulleq	sp, sp, pc, r0	; <UNPREDICTABLE>
     e4c:	008dd400 	addeq	sp, sp, r0, lsl #8
     e50:	53000100 	movwpl	r0, #256	; 0x100
     e54:	00008dd8 	ldrdeq	r8, [r0], -r8	; <UNPREDICTABLE>
     e58:	00008de0 	andeq	r8, r0, r0, ror #27
     e5c:	00530001 	subseq	r0, r3, r1
	...
     e68:	04000000 	streq	r0, [r0], #-0
     e6c:	01000000 	mrseq	r0, (UNDEF: 0)
     e70:	00045000 	andeq	r5, r4, r0
     e74:	000c0000 	andeq	r0, ip, r0
     e78:	00010000 	andeq	r0, r1, r0
     e7c:	00000c53 	andeq	r0, r0, r3, asr ip
     e80:	00001000 	andeq	r1, r0, r0
     e84:	50000100 	andpl	r0, r0, r0, lsl #2
     e88:	00000010 	andeq	r0, r0, r0, lsl r0
     e8c:	0000001c 	andeq	r0, r0, ip, lsl r0
     e90:	00530001 	subseq	r0, r3, r1
     e94:	00000000 	andeq	r0, r0, r0
     e98:	3c000000 	stccc	0, cr0, [r0], {-0}
     e9c:	47000000 	strmi	r0, [r0, -r0]
     ea0:	01000000 	mrseq	r0, (UNDEF: 0)
     ea4:	00475000 	subeq	r5, r7, r0
     ea8:	00600000 	rsbeq	r0, r0, r0
     eac:	00010000 	andeq	r0, r1, r0
     eb0:	00000055 	andeq	r0, r0, r5, asr r0
     eb4:	00000000 	andeq	r0, r0, r0
     eb8:	00005000 	andeq	r5, r0, r0
     ebc:	00005400 	andeq	r5, r0, r0, lsl #8
     ec0:	50000100 	andpl	r0, r0, r0, lsl #2
	...
     ecc:	00000060 	andeq	r0, r0, r0, rrx
     ed0:	0000006c 	andeq	r0, r0, ip, rrx
     ed4:	6c500001 	mrrcvs	0, 0, r0, r0, cr1	; <UNPREDICTABLE>
     ed8:	74000000 	strvc	r0, [r0], #-0
     edc:	04000000 	streq	r0, [r0], #-0
     ee0:	5001f300 	andpl	pc, r1, r0, lsl #6
     ee4:	0000009f 	muleq	r0, pc, r0	; <UNPREDICTABLE>
     ee8:	00000000 	andeq	r0, r0, r0
     eec:	00007400 	andeq	r7, r0, r0, lsl #8
     ef0:	00008000 	andeq	r8, r0, r0
     ef4:	50000100 	andpl	r0, r0, r0, lsl #2
     ef8:	00000080 	andeq	r0, r0, r0, lsl #1
     efc:	00000088 	andeq	r0, r0, r8, lsl #1
     f00:	01f30004 	mvnseq	r0, r4
     f04:	00009f50 	andeq	r9, r0, r0, asr pc
	...
     f10:	00900000 	addseq	r0, r0, r0
     f14:	00010000 	andeq	r0, r1, r0
     f18:	00009050 	andeq	r9, r0, r0, asr r0
     f1c:	0000d400 	andeq	sp, r0, r0, lsl #8
     f20:	54000100 	strpl	r0, [r0], #-256	; 0x100
	...
     f2c:	00000048 	andeq	r0, r0, r8, asr #32
     f30:	0000004c 	andeq	r0, r0, ip, asr #32
     f34:	54550001 	ldrbpl	r0, [r5], #-1
     f38:	58000000 	stmdapl	r0, {}	; <UNPREDICTABLE>
     f3c:	01000000 	mrseq	r0, (UNDEF: 0)
     f40:	00605500 	rsbeq	r5, r0, r0, lsl #10
     f44:	00640000 	rsbeq	r0, r4, r0
     f48:	00010000 	andeq	r0, r1, r0
     f4c:	00006c55 	andeq	r6, r0, r5, asr ip
     f50:	00007000 	andeq	r7, r0, r0
     f54:	55000100 	strpl	r0, [r0, #-256]	; 0x100
     f58:	00000078 	andeq	r0, r0, r8, ror r0
     f5c:	0000007c 	andeq	r0, r0, ip, ror r0
     f60:	84550001 	ldrbhi	r0, [r5], #-1
     f64:	88000000 	stmdahi	r0, {}	; <UNPREDICTABLE>
     f68:	01000000 	mrseq	r0, (UNDEF: 0)
     f6c:	008c5500 	addeq	r5, ip, r0, lsl #10
     f70:	00d40000 	sbcseq	r0, r4, r0
     f74:	00010000 	andeq	r0, r1, r0
     f78:	00000055 	andeq	r0, r0, r5, asr r0
     f7c:	00000000 	andeq	r0, r0, r0
     f80:	00001c00 	andeq	r1, r0, r0, lsl #24
     f84:	00004400 	andeq	r4, r0, r0, lsl #8
     f88:	53000100 	movwpl	r0, #256	; 0x100
     f8c:	00000044 	andeq	r0, r0, r4, asr #32
     f90:	0000004c 	andeq	r0, r0, ip, asr #32
     f94:	0070001c 	rsbseq	r0, r0, ip, lsl r0
     f98:	25f72cf7 	ldrbcs	r2, [r7, #3319]!	; 0xcf7
     f9c:	cd0825f4 	cfstr32gt	mvfx2, [r8, #-976]	; 0xfffffc30
     fa0:	00cccccc 	sbceq	ip, ip, ip, asr #25
     fa4:	1e000000 	cdpne	0, 0, cr0, cr0, cr0, {0}
     fa8:	25f72008 	ldrbcs	r2, [r7, #8]!
     fac:	332cf725 	msrcc	CPSR_fs, #9699328	; 0x940000
     fb0:	004c9f25 	subeq	r9, ip, r5, lsr #30
     fb4:	00500000 	subseq	r0, r0, r0
     fb8:	00010000 	andeq	r0, r1, r0
     fbc:	00005053 	andeq	r5, r0, r3, asr r0
     fc0:	00005800 	andeq	r5, r0, r0, lsl #16
     fc4:	70001c00 	andvc	r1, r0, r0, lsl #24
     fc8:	f72cf700 			; <UNDEFINED> instruction: 0xf72cf700
     fcc:	0825f425 	stmdaeq	r5!, {r0, r2, r5, sl, ip, sp, lr, pc}
     fd0:	cccccccd 	stclgt	12, cr12, [ip], {205}	; 0xcd
     fd4:	00000000 	andeq	r0, r0, r0
     fd8:	f720081e 			; <UNDEFINED> instruction: 0xf720081e
     fdc:	2cf72525 	cfldr64cs	mvdx2, [r7], #148	; 0x94
     fe0:	589f2533 	ldmpl	pc, {r0, r1, r4, r5, r8, sl, sp}	; <UNPREDICTABLE>
     fe4:	5c000000 	stcpl	0, cr0, [r0], {-0}
     fe8:	01000000 	mrseq	r0, (UNDEF: 0)
     fec:	005c5300 	subseq	r5, ip, r0, lsl #6
     ff0:	00640000 	rsbeq	r0, r4, r0
     ff4:	001c0000 	andseq	r0, ip, r0
     ff8:	2cf70070 	ldclcs	0, cr0, [r7], #448	; 0x1c0
     ffc:	25f425f7 	ldrbcs	r2, [r4, #1527]!	; 0x5f7
    1000:	cccccd08 	stclgt	13, cr12, [ip], {8}
    1004:	000000cc 	andeq	r0, r0, ip, asr #1
    1008:	20081e00 	andcs	r1, r8, r0, lsl #28
    100c:	f72525f7 			; <UNDEFINED> instruction: 0xf72525f7
    1010:	9f25332c 	svcls	0x0025332c
    1014:	00000064 	andeq	r0, r0, r4, rrx
    1018:	00000068 	andeq	r0, r0, r8, rrx
    101c:	68530001 	ldmdavs	r3, {r0}^
    1020:	70000000 	andvc	r0, r0, r0
    1024:	1c000000 	stcne	0, cr0, [r0], {-0}
    1028:	f7007000 			; <UNDEFINED> instruction: 0xf7007000
    102c:	f425f72c 	vld1.8	{d15}, [r5 :128], ip
    1030:	cccd0825 	stclgt	8, cr0, [sp], {37}	; 0x25
    1034:	0000cccc 	andeq	ip, r0, ip, asr #25
    1038:	081e0000 	ldmdaeq	lr, {}	; <UNPREDICTABLE>
    103c:	2525f720 	strcs	pc, [r5, #-1824]!	; 0x720
    1040:	25332cf7 	ldrcs	r2, [r3, #-3319]!	; 0xcf7
    1044:	0000709f 	muleq	r0, pc, r0	; <UNPREDICTABLE>
    1048:	00007400 	andeq	r7, r0, r0, lsl #8
    104c:	53000100 	movwpl	r0, #256	; 0x100
    1050:	00000074 	andeq	r0, r0, r4, ror r0
    1054:	0000007c 	andeq	r0, r0, ip, ror r0
    1058:	0070001c 	rsbseq	r0, r0, ip, lsl r0
    105c:	25f72cf7 	ldrbcs	r2, [r7, #3319]!	; 0xcf7
    1060:	cd0825f4 	cfstr32gt	mvfx2, [r8, #-976]	; 0xfffffc30
    1064:	00cccccc 	sbceq	ip, ip, ip, asr #25
    1068:	1e000000 	cdpne	0, 0, cr0, cr0, cr0, {0}
    106c:	25f72008 	ldrbcs	r2, [r7, #8]!
    1070:	332cf725 	msrcc	CPSR_fs, #9699328	; 0x940000
    1074:	007c9f25 	rsbseq	r9, ip, r5, lsr #30
    1078:	00800000 	addeq	r0, r0, r0
    107c:	00010000 	andeq	r0, r1, r0
    1080:	00008053 	andeq	r8, r0, r3, asr r0
    1084:	00008800 	andeq	r8, r0, r0, lsl #16
    1088:	70001c00 	andvc	r1, r0, r0, lsl #24
    108c:	f72cf700 			; <UNDEFINED> instruction: 0xf72cf700
    1090:	0825f425 	stmdaeq	r5!, {r0, r2, r5, sl, ip, sp, lr, pc}
    1094:	cccccccd 	stclgt	12, cr12, [ip], {205}	; 0xcd
    1098:	00000000 	andeq	r0, r0, r0
    109c:	f720081e 			; <UNDEFINED> instruction: 0xf720081e
    10a0:	2cf72525 	cfldr64cs	mvdx2, [r7], #148	; 0x94
    10a4:	889f2533 	ldmhi	pc, {r0, r1, r4, r5, r8, sl, sp}	; <UNPREDICTABLE>
    10a8:	8c000000 	stchi	0, cr0, [r0], {-0}
    10ac:	01000000 	mrseq	r0, (UNDEF: 0)
    10b0:	008c5300 	addeq	r5, ip, r0, lsl #6
    10b4:	00900000 	addseq	r0, r0, r0
    10b8:	001c0000 	andseq	r0, ip, r0
    10bc:	2cf70070 	ldclcs	0, cr0, [r7], #448	; 0x1c0
    10c0:	25f425f7 	ldrbcs	r2, [r4, #1527]!	; 0x5f7
    10c4:	cccccd08 	stclgt	13, cr12, [ip], {8}
    10c8:	000000cc 	andeq	r0, r0, ip, asr #1
    10cc:	20081e00 	andcs	r1, r8, r0, lsl #28
    10d0:	f72525f7 			; <UNDEFINED> instruction: 0xf72525f7
    10d4:	9f25332c 	svcls	0x0025332c
    10d8:	00000090 	muleq	r0, r0, r0
    10dc:	00000098 	muleq	r0, r8, r0
    10e0:	0074001c 	rsbseq	r0, r4, ip, lsl r0
    10e4:	25f72cf7 	ldrbcs	r2, [r7, #3319]!	; 0xcf7
    10e8:	cd0825f4 	cfstr32gt	mvfx2, [r8, #-976]	; 0xfffffc30
    10ec:	00cccccc 	sbceq	ip, ip, ip, asr #25
    10f0:	1e000000 	cdpne	0, 0, cr0, cr0, cr0, {0}
    10f4:	25f72008 	ldrbcs	r2, [r7, #8]!
    10f8:	332cf725 	msrcc	CPSR_fs, #9699328	; 0x940000
    10fc:	00989f25 	addseq	r9, r8, r5, lsr #30
    1100:	009c0000 	addseq	r0, ip, r0
    1104:	00170000 	andseq	r0, r7, r0
    1108:	2cf70074 	ldclcs	0, cr0, [r7], #464	; 0x1d0
    110c:	007125f7 	ldrshteq	r2, [r1], #-87	; 0xffffffa9
    1110:	25f72cf7 	ldrbcs	r2, [r7, #3319]!	; 0xcf7
    1114:	f720081e 			; <UNDEFINED> instruction: 0xf720081e
    1118:	2cf72525 	cfldr64cs	mvdx2, [r7], #148	; 0x94
    111c:	9c9f2533 	cfldr32ls	mvfx2, [pc], {51}	; 0x33
    1120:	d4000000 	strle	r0, [r0], #-0
    1124:	1c000000 	stcne	0, cr0, [r0], {-0}
    1128:	f7007400 			; <UNDEFINED> instruction: 0xf7007400
    112c:	f425f72c 	vld1.8	{d15}, [r5 :128], ip
    1130:	cccd0825 	stclgt	8, cr0, [sp], {37}	; 0x25
    1134:	0000cccc 	andeq	ip, r0, ip, asr #25
    1138:	081e0000 	ldmdaeq	lr, {}	; <UNPREDICTABLE>
    113c:	2525f720 	strcs	pc, [r5, #-1824]!	; 0x720
    1140:	25332cf7 	ldrcs	r2, [r3, #-3319]!	; 0xcf7
    1144:	0000009f 	muleq	r0, pc, r0	; <UNPREDICTABLE>
    1148:	00000000 	andeq	r0, r0, r0
    114c:	00009400 	andeq	r9, r0, r0, lsl #8
    1150:	0000b800 	andeq	fp, r0, r0, lsl #16
    1154:	50000100 	andpl	r0, r0, r0, lsl #2
    1158:	000000b8 	strheq	r0, [r0], -r8
    115c:	000000c4 	andeq	r0, r0, r4, asr #1
    1160:	71310008 	teqvc	r1, r8
    1164:	00732400 	rsbseq	r2, r3, r0, lsl #8
    1168:	00c49f21 	sbceq	r9, r4, r1, lsr #30
    116c:	00c70000 	sbceq	r0, r7, r0
    1170:	00010000 	andeq	r0, r1, r0
    1174:	00000051 	andeq	r0, r0, r1, asr r0
    1178:	00000000 	andeq	r0, r0, r0
    117c:	0000d400 	andeq	sp, r0, r0, lsl #8
    1180:	0000f800 	andeq	pc, r0, r0, lsl #16
    1184:	50000100 	andpl	r0, r0, r0, lsl #2
    1188:	000000f8 	strdeq	r0, [r0], -r8
    118c:	0000010c 	andeq	r0, r0, ip, lsl #2
    1190:	01f30004 	mvnseq	r0, r4
    1194:	00009f50 	andeq	r9, r0, r0, asr pc
    1198:	00000000 	andeq	r0, r0, r0
    119c:	00e00000 	rsceq	r0, r0, r0
    11a0:	00e80000 	rsceq	r0, r8, r0
    11a4:	00020000 	andeq	r0, r2, r0
    11a8:	00e89f30 	rsceq	r9, r8, r0, lsr pc
    11ac:	00e80000 	rsceq	r0, r8, r0
    11b0:	00010000 	andeq	r0, r1, r0
    11b4:	0000e852 	andeq	lr, r0, r2, asr r8
    11b8:	0000f000 	andeq	pc, r0, r0
    11bc:	30000200 	andcc	r0, r0, r0, lsl #4
    11c0:	0000f09f 	muleq	r0, pc, r0	; <UNPREDICTABLE>
    11c4:	00010300 	andeq	r0, r1, r0, lsl #6
    11c8:	52000100 	andpl	r0, r0, #0, 2
	...
    11d4:	000000e0 	andeq	r0, r0, r0, ror #1
    11d8:	000000f4 	strdeq	r0, [r0], -r4
    11dc:	9f300002 	svcls	0x00300002
    11e0:	000000f4 	strdeq	r0, [r0], -r4
    11e4:	00000100 	andeq	r0, r0, r0, lsl #2
    11e8:	73310005 	teqvc	r1, #5
    11ec:	009f2400 	addseq	r2, pc, r0, lsl #8
    11f0:	03000001 	movweq	r0, #1
    11f4:	01000001 	tsteq	r0, r1
    11f8:	01035100 	mrseq	r5, (UNDEF: 19)
    11fc:	010c0000 	mrseq	r0, (UNDEF: 12)
    1200:	00080000 	andeq	r0, r8, r0
    1204:	5001f331 	andpl	pc, r1, r1, lsr r3	; <UNPREDICTABLE>
    1208:	9f241a4f 	svcls	0x00241a4f
	...
    1214:	0000010c 	andeq	r0, r0, ip, lsl #2
    1218:	00000130 	andeq	r0, r0, r0, lsr r1
    121c:	30500001 	subscc	r0, r0, r1
    1220:	44000001 	strmi	r0, [r0], #-1
    1224:	04000001 	streq	r0, [r0], #-1
    1228:	5001f300 	andpl	pc, r1, r0, lsl #6
    122c:	0000009f 	muleq	r0, pc, r0	; <UNPREDICTABLE>
    1230:	00000000 	andeq	r0, r0, r0
    1234:	00011800 	andeq	r1, r1, r0, lsl #16
    1238:	00012000 	andeq	r2, r1, r0
    123c:	30000200 	andcc	r0, r0, r0, lsl #4
    1240:	0001209f 	muleq	r1, pc, r0	; <UNPREDICTABLE>
    1244:	00012000 	andeq	r2, r1, r0
    1248:	52000100 	andpl	r0, r0, #0, 2
    124c:	00000120 	andeq	r0, r0, r0, lsr #2
    1250:	00000128 	andeq	r0, r0, r8, lsr #2
    1254:	9f300002 	svcls	0x00300002
    1258:	00000128 	andeq	r0, r0, r8, lsr #2
    125c:	0000013b 	andeq	r0, r0, fp, lsr r1
    1260:	00520001 	subseq	r0, r2, r1
    1264:	00000000 	andeq	r0, r0, r0
    1268:	18000000 	stmdane	r0, {}	; <UNPREDICTABLE>
    126c:	2c000001 	stccs	0, cr0, [r0], {1}
    1270:	02000001 	andeq	r0, r0, #1
    1274:	2c9f3000 	ldccs	0, cr3, [pc], {0}
    1278:	38000001 	stmdacc	r0, {r0}
    127c:	05000001 	streq	r0, [r0, #-1]
    1280:	00733100 	rsbseq	r3, r3, r0, lsl #2
    1284:	01389f24 	teqeq	r8, r4, lsr #30
    1288:	013b0000 	teqeq	fp, r0
    128c:	00010000 	andeq	r0, r1, r0
    1290:	00013b51 	andeq	r3, r1, r1, asr fp
    1294:	00014400 	andeq	r4, r1, r0, lsl #8
    1298:	31000800 	tstcc	r0, r0, lsl #16
    129c:	4f5001f3 	svcmi	0x005001f3
    12a0:	009f241a 	addseq	r2, pc, sl, lsl r4	; <UNPREDICTABLE>
    12a4:	00000000 	andeq	r0, r0, r0
    12a8:	44000000 	strmi	r0, [r0], #-0
    12ac:	d4000001 	strle	r0, [r0], #-1
    12b0:	01000001 	tsteq	r0, r1
    12b4:	01d45000 	bicseq	r5, r4, r0
    12b8:	02100000 	andseq	r0, r0, #0
    12bc:	00010000 	andeq	r0, r1, r0
    12c0:	00000054 	andeq	r0, r0, r4, asr r0
    12c4:	00000000 	andeq	r0, r0, r0
    12c8:	00018c00 	andeq	r8, r1, r0, lsl #24
    12cc:	00019000 	andeq	r9, r1, r0
    12d0:	55000100 	strpl	r0, [r0, #-256]	; 0x100
    12d4:	00000198 	muleq	r0, r8, r1
    12d8:	0000019c 	muleq	r0, ip, r1
    12dc:	a4550001 	ldrbge	r0, [r5], #-1
    12e0:	a8000001 	stmdage	r0, {r0}
    12e4:	01000001 	tsteq	r0, r1
    12e8:	01b05500 	lslseq	r5, r0, #10
    12ec:	01b40000 			; <UNDEFINED> instruction: 0x01b40000
    12f0:	00010000 	andeq	r0, r1, r0
    12f4:	0001bc55 	andeq	fp, r1, r5, asr ip
    12f8:	0001c000 	andeq	ip, r1, r0
    12fc:	55000100 	strpl	r0, [r0, #-256]	; 0x100
    1300:	000001c8 	andeq	r0, r0, r8, asr #3
    1304:	000001cc 	andeq	r0, r0, ip, asr #3
    1308:	d0550001 	subsle	r0, r5, r1
    130c:	10000001 	andne	r0, r0, r1
    1310:	01000002 	tsteq	r0, r2
    1314:	00005500 	andeq	r5, r0, r0, lsl #10
    1318:	00000000 	andeq	r0, r0, r0
    131c:	01600000 	cmneq	r0, r0
    1320:	01880000 	orreq	r0, r8, r0
    1324:	00010000 	andeq	r0, r1, r0
    1328:	00018853 	andeq	r8, r1, r3, asr r8
    132c:	00019000 	andeq	r9, r1, r0
    1330:	70001c00 	andvc	r1, r0, r0, lsl #24
    1334:	f72cf700 			; <UNDEFINED> instruction: 0xf72cf700
    1338:	0825f425 	stmdaeq	r5!, {r0, r2, r5, sl, ip, sp, lr, pc}
    133c:	cccccccd 	stclgt	12, cr12, [ip], {205}	; 0xcd
    1340:	00000000 	andeq	r0, r0, r0
    1344:	f720081e 			; <UNDEFINED> instruction: 0xf720081e
    1348:	2cf72525 	cfldr64cs	mvdx2, [r7], #148	; 0x94
    134c:	909f2533 	addsls	r2, pc, r3, lsr r5	; <UNPREDICTABLE>
    1350:	94000001 	strls	r0, [r0], #-1
    1354:	01000001 	tsteq	r0, r1
    1358:	01945300 	orrseq	r5, r4, r0, lsl #6
    135c:	019c0000 	orrseq	r0, ip, r0
    1360:	001c0000 	andseq	r0, ip, r0
    1364:	2cf70070 	ldclcs	0, cr0, [r7], #448	; 0x1c0
    1368:	25f425f7 	ldrbcs	r2, [r4, #1527]!	; 0x5f7
    136c:	cccccd08 	stclgt	13, cr12, [ip], {8}
    1370:	000000cc 	andeq	r0, r0, ip, asr #1
    1374:	20081e00 	andcs	r1, r8, r0, lsl #28
    1378:	f72525f7 			; <UNDEFINED> instruction: 0xf72525f7
    137c:	9f25332c 	svcls	0x0025332c
    1380:	0000019c 	muleq	r0, ip, r1
    1384:	000001a0 	andeq	r0, r0, r0, lsr #3
    1388:	a0530001 	subsge	r0, r3, r1
    138c:	a8000001 	stmdage	r0, {r0}
    1390:	1c000001 	stcne	0, cr0, [r0], {1}
    1394:	f7007000 			; <UNDEFINED> instruction: 0xf7007000
    1398:	f425f72c 	vld1.8	{d15}, [r5 :128], ip
    139c:	cccd0825 	stclgt	8, cr0, [sp], {37}	; 0x25
    13a0:	0000cccc 	andeq	ip, r0, ip, asr #25
    13a4:	081e0000 	ldmdaeq	lr, {}	; <UNPREDICTABLE>
    13a8:	2525f720 	strcs	pc, [r5, #-1824]!	; 0x720
    13ac:	25332cf7 	ldrcs	r2, [r3, #-3319]!	; 0xcf7
    13b0:	0001a89f 	muleq	r1, pc, r8	; <UNPREDICTABLE>
    13b4:	0001ac00 	andeq	sl, r1, r0, lsl #24
    13b8:	53000100 	movwpl	r0, #256	; 0x100
    13bc:	000001ac 	andeq	r0, r0, ip, lsr #3
    13c0:	000001b4 			; <UNDEFINED> instruction: 0x000001b4
    13c4:	0070001c 	rsbseq	r0, r0, ip, lsl r0
    13c8:	25f72cf7 	ldrbcs	r2, [r7, #3319]!	; 0xcf7
    13cc:	cd0825f4 	cfstr32gt	mvfx2, [r8, #-976]	; 0xfffffc30
    13d0:	00cccccc 	sbceq	ip, ip, ip, asr #25
    13d4:	1e000000 	cdpne	0, 0, cr0, cr0, cr0, {0}
    13d8:	25f72008 	ldrbcs	r2, [r7, #8]!
    13dc:	332cf725 	msrcc	CPSR_fs, #9699328	; 0x940000
    13e0:	01b49f25 			; <UNDEFINED> instruction: 0x01b49f25
    13e4:	01b80000 			; <UNDEFINED> instruction: 0x01b80000
    13e8:	00010000 	andeq	r0, r1, r0
    13ec:	0001b853 	andeq	fp, r1, r3, asr r8
    13f0:	0001c000 	andeq	ip, r1, r0
    13f4:	70001c00 	andvc	r1, r0, r0, lsl #24
    13f8:	f72cf700 			; <UNDEFINED> instruction: 0xf72cf700
    13fc:	0825f425 	stmdaeq	r5!, {r0, r2, r5, sl, ip, sp, lr, pc}
    1400:	cccccccd 	stclgt	12, cr12, [ip], {205}	; 0xcd
    1404:	00000000 	andeq	r0, r0, r0
    1408:	f720081e 			; <UNDEFINED> instruction: 0xf720081e
    140c:	2cf72525 	cfldr64cs	mvdx2, [r7], #148	; 0x94
    1410:	c09f2533 	addsgt	r2, pc, r3, lsr r5	; <UNPREDICTABLE>
    1414:	c4000001 	strgt	r0, [r0], #-1
    1418:	01000001 	tsteq	r0, r1
    141c:	01c45300 	biceq	r5, r4, r0, lsl #6
    1420:	01cc0000 	biceq	r0, ip, r0
    1424:	001c0000 	andseq	r0, ip, r0
    1428:	2cf70070 	ldclcs	0, cr0, [r7], #448	; 0x1c0
    142c:	25f425f7 	ldrbcs	r2, [r4, #1527]!	; 0x5f7
    1430:	cccccd08 	stclgt	13, cr12, [ip], {8}
    1434:	000000cc 	andeq	r0, r0, ip, asr #1
    1438:	20081e00 	andcs	r1, r8, r0, lsl #28
    143c:	f72525f7 			; <UNDEFINED> instruction: 0xf72525f7
    1440:	9f25332c 	svcls	0x0025332c
    1444:	000001cc 	andeq	r0, r0, ip, asr #3
    1448:	000001d0 	ldrdeq	r0, [r0], -r0	; <UNPREDICTABLE>
    144c:	d0530001 	subsle	r0, r3, r1
    1450:	d4000001 	strle	r0, [r0], #-1
    1454:	1c000001 	stcne	0, cr0, [r0], {1}
    1458:	f7007000 			; <UNDEFINED> instruction: 0xf7007000
    145c:	f425f72c 	vld1.8	{d15}, [r5 :128], ip
    1460:	cccd0825 	stclgt	8, cr0, [sp], {37}	; 0x25
    1464:	0000cccc 	andeq	ip, r0, ip, asr #25
    1468:	081e0000 	ldmdaeq	lr, {}	; <UNPREDICTABLE>
    146c:	2525f720 	strcs	pc, [r5, #-1824]!	; 0x720
    1470:	25332cf7 	ldrcs	r2, [r3, #-3319]!	; 0xcf7
    1474:	0001d49f 	muleq	r1, pc, r4	; <UNPREDICTABLE>
    1478:	0001dc00 	andeq	sp, r1, r0, lsl #24
    147c:	74001c00 	strvc	r1, [r0], #-3072	; 0xc00
    1480:	f72cf700 			; <UNDEFINED> instruction: 0xf72cf700
    1484:	0825f425 	stmdaeq	r5!, {r0, r2, r5, sl, ip, sp, lr, pc}
    1488:	cccccccd 	stclgt	12, cr12, [ip], {205}	; 0xcd
    148c:	00000000 	andeq	r0, r0, r0
    1490:	f720081e 			; <UNDEFINED> instruction: 0xf720081e
    1494:	2cf72525 	cfldr64cs	mvdx2, [r7], #148	; 0x94
    1498:	dc9f2533 	cfldr32le	mvfx2, [pc], {51}	; 0x33
    149c:	e0000001 	and	r0, r0, r1
    14a0:	17000001 	strne	r0, [r0, -r1]
    14a4:	f7007400 			; <UNDEFINED> instruction: 0xf7007400
    14a8:	7125f72c 	msrvc	SP_abt, ip
    14ac:	f72cf700 			; <UNDEFINED> instruction: 0xf72cf700
    14b0:	20081e25 	andcs	r1, r8, r5, lsr #28
    14b4:	f72525f7 			; <UNDEFINED> instruction: 0xf72525f7
    14b8:	9f25332c 	svcls	0x0025332c
    14bc:	000001e0 	andeq	r0, r0, r0, ror #3
    14c0:	00000210 	andeq	r0, r0, r0, lsl r2
    14c4:	0074001c 	rsbseq	r0, r4, ip, lsl r0
    14c8:	25f72cf7 	ldrbcs	r2, [r7, #3319]!	; 0xcf7
    14cc:	cd0825f4 	cfstr32gt	mvfx2, [r8, #-976]	; 0xfffffc30
    14d0:	00cccccc 	sbceq	ip, ip, ip, asr #25
    14d4:	1e000000 	cdpne	0, 0, cr0, cr0, cr0, {0}
    14d8:	25f72008 	ldrbcs	r2, [r7, #8]!
    14dc:	332cf725 	msrcc	CPSR_fs, #9699328	; 0x940000
    14e0:	00009f25 	andeq	r9, r0, r5, lsr #30
    14e4:	00000000 	andeq	r0, r0, r0
    14e8:	01d80000 	bicseq	r0, r8, r0
    14ec:	01fc0000 	mvnseq	r0, r0
    14f0:	00010000 	andeq	r0, r1, r0
    14f4:	0001fc50 	andeq	pc, r1, r0, asr ip	; <UNPREDICTABLE>
    14f8:	00020300 	andeq	r0, r2, r0, lsl #6
    14fc:	51000100 	mrspl	r0, (UNDEF: 16)
	...
    1508:	00000210 	andeq	r0, r0, r0, lsl r2
    150c:	0000022c 	andeq	r0, r0, ip, lsr #4
    1510:	2c500001 	mrrccs	0, 0, r0, r0, cr1	; <UNPREDICTABLE>
    1514:	34000002 	strcc	r0, [r0], #-2
    1518:	01000002 	tsteq	r0, r2
    151c:	02345400 	eorseq	r5, r4, #0, 8
    1520:	023c0000 	eorseq	r0, ip, #0
    1524:	00010000 	andeq	r0, r1, r0
    1528:	00023c50 	andeq	r3, r2, r0, asr ip
    152c:	00024400 	andeq	r4, r2, r0, lsl #8
    1530:	54000100 	strpl	r0, [r0], #-256	; 0x100
    1534:	00000244 	andeq	r0, r0, r4, asr #4
    1538:	00000250 	andeq	r0, r0, r0, asr r2
    153c:	01f30004 	mvnseq	r0, r4
    1540:	02509f50 	subseq	r9, r0, #80, 30	; 0x140
    1544:	02540000 	subseq	r0, r4, #0
    1548:	00010000 	andeq	r0, r1, r0
    154c:	00025450 	andeq	r5, r2, r0, asr r4
    1550:	00025c00 	andeq	r5, r2, r0, lsl #24
    1554:	54000100 	strpl	r0, [r0], #-256	; 0x100
	...
    1560:	00000220 	andeq	r0, r0, r0, lsr #4
    1564:	00000230 	andeq	r0, r0, r0, lsr r2
    1568:	9f300002 	svcls	0x00300002
    156c:	00000230 	andeq	r0, r0, r0, lsr r2
    1570:	00000234 	andeq	r0, r0, r4, lsr r2
    1574:	34500001 	ldrbcc	r0, [r0], #-1
    1578:	40000002 	andmi	r0, r0, r2
    157c:	02000002 	andeq	r0, r0, #2
    1580:	409f3000 	addsmi	r3, pc, r0
    1584:	4c000002 	stcmi	0, cr0, [r0], {2}
    1588:	01000002 	tsteq	r0, r2
    158c:	00005000 	andeq	r5, r0, r0
    1590:	00000000 	andeq	r0, r0, r0
    1594:	025c0000 	subseq	r0, ip, #0
    1598:	02730000 	rsbseq	r0, r3, #0
    159c:	00010000 	andeq	r0, r1, r0
    15a0:	00027350 	andeq	r7, r2, r0, asr r3
    15a4:	00027800 	andeq	r7, r2, r0, lsl #16
    15a8:	f3000400 	vshl.u8	d0, d0, d0
    15ac:	789f5001 	ldmvc	pc, {r0, ip, lr}	; <UNPREDICTABLE>
    15b0:	7b000002 	blvc	15c0 <_start-0x6a40>
    15b4:	01000002 	tsteq	r0, r2
    15b8:	027b5000 	rsbseq	r5, fp, #0
    15bc:	02800000 	addeq	r0, r0, #0
    15c0:	00040000 	andeq	r0, r4, r0
    15c4:	9f5001f3 	svcls	0x005001f3
	...
    15d0:	0000025c 	andeq	r0, r0, ip, asr r2
    15d4:	00000273 	andeq	r0, r0, r3, ror r2
    15d8:	73510001 	cmpvc	r1, #1
    15dc:	78000002 	stmdavc	r0, {r1}
    15e0:	04000002 	streq	r0, [r0], #-2
    15e4:	5101f300 	mrspl	pc, SP_irq	; <UNPREDICTABLE>
    15e8:	0002789f 	muleq	r2, pc, r8	; <UNPREDICTABLE>
    15ec:	00027b00 	andeq	r7, r2, r0, lsl #22
    15f0:	51000100 	mrspl	r0, (UNDEF: 16)
    15f4:	0000027b 	andeq	r0, r0, fp, ror r2
    15f8:	00000280 	andeq	r0, r0, r0, lsl #5
    15fc:	01f30004 	mvnseq	r0, r4
    1600:	00009f51 	andeq	r9, r0, r1, asr pc
    1604:	00000000 	andeq	r0, r0, r0
    1608:	02800000 	addeq	r0, r0, #0
    160c:	03180000 	tsteq	r8, #0
    1610:	00010000 	andeq	r0, r1, r0
    1614:	00031850 	andeq	r1, r3, r0, asr r8
    1618:	00035800 	andeq	r5, r3, r0, lsl #16
    161c:	54000100 	strpl	r0, [r0], #-256	; 0x100
	...
    1628:	00000280 	andeq	r0, r0, r0, lsl #5
    162c:	0000031b 	andeq	r0, r0, fp, lsl r3
    1630:	1b510001 	blne	144163c <__bss_end__+0x1436d44>
    1634:	58000003 	stmdapl	r0, {r0, r1}
    1638:	04000003 	streq	r0, [r0], #-3
    163c:	5101f300 	mrspl	pc, SP_irq	; <UNPREDICTABLE>
    1640:	0000009f 	muleq	r0, pc, r0	; <UNPREDICTABLE>
    1644:	00000000 	andeq	r0, r0, r0
    1648:	0002d000 	andeq	sp, r2, r0
    164c:	0002d400 	andeq	sp, r2, r0, lsl #8
    1650:	56000100 	strpl	r0, [r0], -r0, lsl #2
    1654:	000002dc 	ldrdeq	r0, [r0], -ip
    1658:	000002e0 	andeq	r0, r0, r0, ror #5
    165c:	e8560001 	ldmda	r6, {r0}^
    1660:	ec000002 	stc	0, cr0, [r0], {2}
    1664:	01000002 	tsteq	r0, r2
    1668:	02f45600 	rscseq	r5, r4, #0, 12
    166c:	02f80000 	rscseq	r0, r8, #0
    1670:	00010000 	andeq	r0, r1, r0
    1674:	00030056 	andeq	r0, r3, r6, asr r0
    1678:	00030400 	andeq	r0, r3, r0, lsl #8
    167c:	56000100 	strpl	r0, [r0], -r0, lsl #2
    1680:	0000030c 	andeq	r0, r0, ip, lsl #6
    1684:	00000310 	andeq	r0, r0, r0, lsl r3
    1688:	14560001 	ldrbne	r0, [r6], #-1
    168c:	58000003 	stmdapl	r0, {r0, r1}
    1690:	01000003 	tsteq	r0, r3
    1694:	00005600 	andeq	r5, r0, r0, lsl #12
    1698:	00000000 	andeq	r0, r0, r0
    169c:	02a40000 	adceq	r0, r4, #0
    16a0:	02cc0000 	sbceq	r0, ip, #0
    16a4:	00010000 	andeq	r0, r1, r0
    16a8:	0002cc53 	andeq	ip, r2, r3, asr ip
    16ac:	0002d400 	andeq	sp, r2, r0, lsl #8
    16b0:	70001c00 	andvc	r1, r0, r0, lsl #24
    16b4:	f72cf700 			; <UNDEFINED> instruction: 0xf72cf700
    16b8:	0825f425 	stmdaeq	r5!, {r0, r2, r5, sl, ip, sp, lr, pc}
    16bc:	cccccccd 	stclgt	12, cr12, [ip], {205}	; 0xcd
    16c0:	00000000 	andeq	r0, r0, r0
    16c4:	f720081e 			; <UNDEFINED> instruction: 0xf720081e
    16c8:	2cf72525 	cfldr64cs	mvdx2, [r7], #148	; 0x94
    16cc:	d49f2533 	ldrle	r2, [pc], #1331	; 16d4 <_start-0x692c>
    16d0:	d8000002 	stmdale	r0, {r1}
    16d4:	01000002 	tsteq	r0, r2
    16d8:	02d85300 	sbcseq	r5, r8, #0, 6
    16dc:	02e00000 	rsceq	r0, r0, #0
    16e0:	001c0000 	andseq	r0, ip, r0
    16e4:	2cf70070 	ldclcs	0, cr0, [r7], #448	; 0x1c0
    16e8:	25f425f7 	ldrbcs	r2, [r4, #1527]!	; 0x5f7
    16ec:	cccccd08 	stclgt	13, cr12, [ip], {8}
    16f0:	000000cc 	andeq	r0, r0, ip, asr #1
    16f4:	20081e00 	andcs	r1, r8, r0, lsl #28
    16f8:	f72525f7 			; <UNDEFINED> instruction: 0xf72525f7
    16fc:	9f25332c 	svcls	0x0025332c
    1700:	000002e0 	andeq	r0, r0, r0, ror #5
    1704:	000002e4 	andeq	r0, r0, r4, ror #5
    1708:	e4530001 	ldrb	r0, [r3], #-1
    170c:	ec000002 	stc	0, cr0, [r0], {2}
    1710:	1c000002 	stcne	0, cr0, [r0], {2}
    1714:	f7007000 			; <UNDEFINED> instruction: 0xf7007000
    1718:	f425f72c 	vld1.8	{d15}, [r5 :128], ip
    171c:	cccd0825 	stclgt	8, cr0, [sp], {37}	; 0x25
    1720:	0000cccc 	andeq	ip, r0, ip, asr #25
    1724:	081e0000 	ldmdaeq	lr, {}	; <UNPREDICTABLE>
    1728:	2525f720 	strcs	pc, [r5, #-1824]!	; 0x720
    172c:	25332cf7 	ldrcs	r2, [r3, #-3319]!	; 0xcf7
    1730:	0002ec9f 	muleq	r2, pc, ip	; <UNPREDICTABLE>
    1734:	0002f000 	andeq	pc, r2, r0
    1738:	53000100 	movwpl	r0, #256	; 0x100
    173c:	000002f0 	strdeq	r0, [r0], -r0	; <UNPREDICTABLE>
    1740:	000002f8 	strdeq	r0, [r0], -r8
    1744:	0070001c 	rsbseq	r0, r0, ip, lsl r0
    1748:	25f72cf7 	ldrbcs	r2, [r7, #3319]!	; 0xcf7
    174c:	cd0825f4 	cfstr32gt	mvfx2, [r8, #-976]	; 0xfffffc30
    1750:	00cccccc 	sbceq	ip, ip, ip, asr #25
    1754:	1e000000 	cdpne	0, 0, cr0, cr0, cr0, {0}
    1758:	25f72008 	ldrbcs	r2, [r7, #8]!
    175c:	332cf725 	msrcc	CPSR_fs, #9699328	; 0x940000
    1760:	02f89f25 	rscseq	r9, r8, #37, 30	; 0x94
    1764:	02fc0000 	rscseq	r0, ip, #0
    1768:	00010000 	andeq	r0, r1, r0
    176c:	0002fc53 	andeq	pc, r2, r3, asr ip	; <UNPREDICTABLE>
    1770:	00030400 	andeq	r0, r3, r0, lsl #8
    1774:	70001c00 	andvc	r1, r0, r0, lsl #24
    1778:	f72cf700 			; <UNDEFINED> instruction: 0xf72cf700
    177c:	0825f425 	stmdaeq	r5!, {r0, r2, r5, sl, ip, sp, lr, pc}
    1780:	cccccccd 	stclgt	12, cr12, [ip], {205}	; 0xcd
    1784:	00000000 	andeq	r0, r0, r0
    1788:	f720081e 			; <UNDEFINED> instruction: 0xf720081e
    178c:	2cf72525 	cfldr64cs	mvdx2, [r7], #148	; 0x94
    1790:	049f2533 	ldreq	r2, [pc], #1331	; 1798 <_start-0x6868>
    1794:	08000003 	stmdaeq	r0, {r0, r1}
    1798:	01000003 	tsteq	r0, r3
    179c:	03085300 	movweq	r5, #33536	; 0x8300
    17a0:	03100000 	tsteq	r0, #0
    17a4:	001c0000 	andseq	r0, ip, r0
    17a8:	2cf70070 	ldclcs	0, cr0, [r7], #448	; 0x1c0
    17ac:	25f425f7 	ldrbcs	r2, [r4, #1527]!	; 0x5f7
    17b0:	cccccd08 	stclgt	13, cr12, [ip], {8}
    17b4:	000000cc 	andeq	r0, r0, ip, asr #1
    17b8:	20081e00 	andcs	r1, r8, r0, lsl #28
    17bc:	f72525f7 			; <UNDEFINED> instruction: 0xf72525f7
    17c0:	9f25332c 	svcls	0x0025332c
    17c4:	00000310 	andeq	r0, r0, r0, lsl r3
    17c8:	00000314 	andeq	r0, r0, r4, lsl r3
    17cc:	14530001 	ldrbne	r0, [r3], #-1
    17d0:	18000003 	stmdane	r0, {r0, r1}
    17d4:	1c000003 	stcne	0, cr0, [r0], {3}
    17d8:	f7007000 			; <UNDEFINED> instruction: 0xf7007000
    17dc:	f425f72c 	vld1.8	{d15}, [r5 :128], ip
    17e0:	cccd0825 	stclgt	8, cr0, [sp], {37}	; 0x25
    17e4:	0000cccc 	andeq	ip, r0, ip, asr #25
    17e8:	081e0000 	ldmdaeq	lr, {}	; <UNPREDICTABLE>
    17ec:	2525f720 	strcs	pc, [r5, #-1824]!	; 0x720
    17f0:	25332cf7 	ldrcs	r2, [r3, #-3319]!	; 0xcf7
    17f4:	0003189f 	muleq	r3, pc, r8	; <UNPREDICTABLE>
    17f8:	00032000 	andeq	r2, r3, r0
    17fc:	74001c00 	strvc	r1, [r0], #-3072	; 0xc00
    1800:	f72cf700 			; <UNDEFINED> instruction: 0xf72cf700
    1804:	0825f425 	stmdaeq	r5!, {r0, r2, r5, sl, ip, sp, lr, pc}
    1808:	cccccccd 	stclgt	12, cr12, [ip], {205}	; 0xcd
    180c:	00000000 	andeq	r0, r0, r0
    1810:	f720081e 			; <UNDEFINED> instruction: 0xf720081e
    1814:	2cf72525 	cfldr64cs	mvdx2, [r7], #148	; 0x94
    1818:	209f2533 	addscs	r2, pc, r3, lsr r5	; <UNPREDICTABLE>
    181c:	24000003 	strcs	r0, [r0], #-3
    1820:	17000003 	strne	r0, [r0, -r3]
    1824:	f7007400 			; <UNDEFINED> instruction: 0xf7007400
    1828:	7325f72c 	msrvc	CPSR_sc, #44, 14	; 0xb00000
    182c:	f72cf700 			; <UNDEFINED> instruction: 0xf72cf700
    1830:	20081e25 	andcs	r1, r8, r5, lsr #28
    1834:	f72525f7 			; <UNDEFINED> instruction: 0xf72525f7
    1838:	9f25332c 	svcls	0x0025332c
    183c:	00000324 	andeq	r0, r0, r4, lsr #6
    1840:	00000358 	andeq	r0, r0, r8, asr r3
    1844:	0074001c 	rsbseq	r0, r4, ip, lsl r0
    1848:	25f72cf7 	ldrbcs	r2, [r7, #3319]!	; 0xcf7
    184c:	cd0825f4 	cfstr32gt	mvfx2, [r8, #-976]	; 0xfffffc30
    1850:	00cccccc 	sbceq	ip, ip, ip, asr #25
    1854:	1e000000 	cdpne	0, 0, cr0, cr0, cr0, {0}
    1858:	25f72008 	ldrbcs	r2, [r7, #8]!
    185c:	332cf725 	msrcc	CPSR_fs, #9699328	; 0x940000
    1860:	00009f25 	andeq	r9, r0, r5, lsr #30
    1864:	00000000 	andeq	r0, r0, r0
    1868:	031c0000 	tsteq	ip, #0
    186c:	03400000 	movteq	r0, #0
    1870:	00010000 	andeq	r0, r1, r0
    1874:	00034050 	andeq	r4, r3, r0, asr r0
    1878:	00034800 	andeq	r4, r3, r0, lsl #16
    187c:	75000900 	strvc	r0, [r0, #-2304]	; 0x900
    1880:	24007300 	strcs	r7, [r0], #-768	; 0x300
    1884:	9f210071 	svcls	0x00210071
    1888:	00000348 	andeq	r0, r0, r8, asr #6
    188c:	0000034b 	andeq	r0, r0, fp, asr #6
    1890:	00510001 	subseq	r0, r1, r1
    1894:	00000000 	andeq	r0, r0, r0
    1898:	58000000 	stmdapl	r0, {}	; <UNPREDICTABLE>
    189c:	7c000003 	stcvc	0, cr0, [r0], {3}
    18a0:	01000003 	tsteq	r0, r3
    18a4:	037c5000 	cmneq	ip, #0
    18a8:	03900000 	orrseq	r0, r0, #0
    18ac:	00040000 	andeq	r0, r4, r0
    18b0:	9f5001f3 	svcls	0x005001f3
	...
    18bc:	00000364 	andeq	r0, r0, r4, ror #6
    18c0:	0000036c 	andeq	r0, r0, ip, ror #6
    18c4:	9f300002 	svcls	0x00300002
    18c8:	0000036c 	andeq	r0, r0, ip, ror #6
    18cc:	0000036c 	andeq	r0, r0, ip, ror #6
    18d0:	6c520001 	mrrcvs	0, 0, r0, r2, cr1
    18d4:	74000003 	strvc	r0, [r0], #-3
    18d8:	02000003 	andeq	r0, r0, #3
    18dc:	749f3000 	ldrvc	r3, [pc], #0	; 18e4 <_start-0x671c>
    18e0:	87000003 	strhi	r0, [r0, -r3]
    18e4:	01000003 	tsteq	r0, r3
    18e8:	00005200 	andeq	r5, r0, r0, lsl #4
    18ec:	00000000 	andeq	r0, r0, r0
    18f0:	03640000 	cmneq	r4, #0
    18f4:	03780000 	cmneq	r8, #0
    18f8:	00020000 	andeq	r0, r2, r0
    18fc:	03789f30 	cmneq	r8, #48, 30	; 0xc0
    1900:	03840000 	orreq	r0, r4, #0
    1904:	00050000 	andeq	r0, r5, r0
    1908:	24007331 	strcs	r7, [r0], #-817	; 0x331
    190c:	0003849f 	muleq	r3, pc, r4	; <UNPREDICTABLE>
    1910:	00038700 	andeq	r8, r3, r0, lsl #14
    1914:	51000100 	mrspl	r0, (UNDEF: 16)
    1918:	00000387 	andeq	r0, r0, r7, lsl #7
    191c:	00000390 	muleq	r0, r0, r3
    1920:	f3310008 	vhadd.u<illegal width 64>	d0, d1, d8
    1924:	1a4f5001 	bne	13d5930 <__bss_end__+0x13cb038>
    1928:	00009f24 	andeq	r9, r0, r4, lsr #30
    192c:	00000000 	andeq	r0, r0, r0
    1930:	03900000 	orrseq	r0, r0, #0
    1934:	039c0000 	orrseq	r0, ip, #0
    1938:	00010000 	andeq	r0, r1, r0
    193c:	00039c50 	andeq	r9, r3, r0, asr ip
    1940:	0003bc00 	andeq	fp, r3, r0, lsl #24
    1944:	f3000400 	vshl.u8	d0, d0, d0
    1948:	009f5001 	addseq	r5, pc, r1
    194c:	00000000 	andeq	r0, r0, r0
    1950:	bc000000 	stclt	0, cr0, [r0], {-0}
    1954:	cf000003 	svcgt	0x00000003
    1958:	01000003 	tsteq	r0, r3
    195c:	03cf5000 	biceq	r5, pc, #0
    1960:	04080000 	streq	r0, [r8], #-0
    1964:	00010000 	andeq	r0, r1, r0
    1968:	00040854 	andeq	r0, r4, r4, asr r8
    196c:	00044000 	andeq	r4, r4, r0
    1970:	f3000400 	vshl.u8	d0, d0, d0
    1974:	009f5001 	addseq	r5, pc, r1
    1978:	00000000 	andeq	r0, r0, r0
    197c:	28000000 	stmdacs	r0, {}	; <UNPREDICTABLE>
    1980:	2c000004 	stccs	0, cr0, [r0], {4}
    1984:	01000004 	tsteq	r0, r4
    1988:	042c5000 	strteq	r5, [ip], #-0
    198c:	04330000 	ldrteq	r0, [r3], #-0
    1990:	00010000 	andeq	r0, r1, r0
    1994:	00000051 	andeq	r0, r0, r1, asr r0
    1998:	00000000 	andeq	r0, r0, r0
    199c:	0003e400 	andeq	lr, r3, r0, lsl #8
    19a0:	0003ec00 	andeq	lr, r3, r0, lsl #24
    19a4:	50000100 	andpl	r0, r0, r0, lsl #2
    19a8:	000003ec 	andeq	r0, r0, ip, ror #7
    19ac:	000003f3 	strdeq	r0, [r0], -r3
    19b0:	00510001 	subseq	r0, r1, r1
    19b4:	00000000 	andeq	r0, r0, r0
    19b8:	04000000 	streq	r0, [r0], #-0
    19bc:	10000004 	andne	r0, r0, r4
    19c0:	01000004 	tsteq	r0, r4
    19c4:	04105000 	ldreq	r5, [r0], #-0
    19c8:	04170000 	ldreq	r0, [r7], #-0
    19cc:	00010000 	andeq	r0, r1, r0
    19d0:	00000051 	andeq	r0, r0, r1, asr r0
    19d4:	00000000 	andeq	r0, r0, r0
    19d8:	00044000 	andeq	r4, r4, r0
    19dc:	00045300 	andeq	r5, r4, r0, lsl #6
    19e0:	50000100 	andpl	r0, r0, r0, lsl #2
    19e4:	00000453 	andeq	r0, r0, r3, asr r4
    19e8:	0000048c 	andeq	r0, r0, ip, lsl #9
    19ec:	8c540001 	mrrchi	0, 0, r0, r4, cr1
    19f0:	c4000004 	strgt	r0, [r0], #-4
    19f4:	04000004 	streq	r0, [r0], #-4
    19f8:	5001f300 	andpl	pc, r1, r0, lsl #6
    19fc:	0000009f 	muleq	r0, pc, r0	; <UNPREDICTABLE>
    1a00:	00000000 	andeq	r0, r0, r0
    1a04:	0004ac00 	andeq	sl, r4, r0, lsl #24
    1a08:	0004b000 	andeq	fp, r4, r0
    1a0c:	50000100 	andpl	r0, r0, r0, lsl #2
    1a10:	000004b0 			; <UNDEFINED> instruction: 0x000004b0
    1a14:	000004b7 			; <UNDEFINED> instruction: 0x000004b7
    1a18:	00510001 	subseq	r0, r1, r1
    1a1c:	00000000 	andeq	r0, r0, r0
    1a20:	68000000 	stmdavs	r0, {}	; <UNPREDICTABLE>
    1a24:	70000004 	andvc	r0, r0, r4
    1a28:	01000004 	tsteq	r0, r4
    1a2c:	04705000 	ldrbteq	r5, [r0], #-0
    1a30:	04770000 	ldrbteq	r0, [r7], #-0
    1a34:	00010000 	andeq	r0, r1, r0
    1a38:	00000051 	andeq	r0, r0, r1, asr r0
    1a3c:	00000000 	andeq	r0, r0, r0
    1a40:	00048800 	andeq	r8, r4, r0, lsl #16
    1a44:	00049400 	andeq	r9, r4, r0, lsl #8
    1a48:	50000100 	andpl	r0, r0, r0, lsl #2
    1a4c:	00000494 	muleq	r0, r4, r4
    1a50:	0000049b 	muleq	r0, fp, r4
    1a54:	00510001 	subseq	r0, r1, r1
    1a58:	00000000 	andeq	r0, r0, r0
    1a5c:	c4000000 	strgt	r0, [r0], #-0
    1a60:	d7000004 	strle	r0, [r0, -r4]
    1a64:	01000004 	tsteq	r0, r4
    1a68:	04d75000 	ldrbeq	r5, [r7], #0
    1a6c:	05180000 	ldreq	r0, [r8, #-0]
    1a70:	00010000 	andeq	r0, r1, r0
    1a74:	00051854 	andeq	r1, r5, r4, asr r8
    1a78:	00053c00 	andeq	r3, r5, r0, lsl #24
    1a7c:	f3000400 	vshl.u8	d0, d0, d0
    1a80:	3c9f5001 	ldccc	0, cr5, [pc], {1}
    1a84:	40000005 	andmi	r0, r0, r5
    1a88:	01000005 	tsteq	r0, r5
    1a8c:	05405000 	strbeq	r5, [r0, #-0]
    1a90:	05480000 	strbeq	r0, [r8, #-0]
    1a94:	00010000 	andeq	r0, r1, r0
    1a98:	00000054 	andeq	r0, r0, r4, asr r0
    1a9c:	00000000 	andeq	r0, r0, r0
    1aa0:	0004ec00 	andeq	lr, r4, r0, lsl #24
    1aa4:	0004fb00 	andeq	pc, r4, r0, lsl #22
    1aa8:	31000800 	tstcc	r0, r0, lsl #16
    1aac:	70240074 	eorvc	r0, r4, r4, ror r0
    1ab0:	009f1a00 	addseq	r1, pc, r0, lsl #20
    1ab4:	00000000 	andeq	r0, r0, r0
    1ab8:	18000000 	stmdane	r0, {}	; <UNPREDICTABLE>
    1abc:	30000005 	andcc	r0, r0, r5
    1ac0:	01000005 	tsteq	r0, r5
    1ac4:	00005400 	andeq	r5, r0, r0, lsl #8
    1ac8:	00000000 	andeq	r0, r0, r0
    1acc:	05480000 	strbeq	r0, [r8, #-0]
    1ad0:	055b0000 	ldrbeq	r0, [fp, #-0]
    1ad4:	00010000 	andeq	r0, r1, r0
    1ad8:	00055b50 	andeq	r5, r5, r0, asr fp
    1adc:	00058000 	andeq	r8, r5, r0
    1ae0:	54000100 	strpl	r0, [r0], #-256	; 0x100
    1ae4:	00000580 	andeq	r0, r0, r0, lsl #11
    1ae8:	000005a0 	andeq	r0, r0, r0, lsr #11
    1aec:	01f30004 	mvnseq	r0, r4
    1af0:	00009f50 	andeq	r9, r0, r0, asr pc
	...
    1afc:	00180000 	andseq	r0, r8, r0
    1b00:	00010000 	andeq	r0, r1, r0
    1b04:	00001850 	andeq	r1, r0, r0, asr r8
    1b08:	00015400 	andeq	r5, r1, r0, lsl #8
    1b0c:	f3000400 	vshl.u8	d0, d0, d0
    1b10:	009f5001 	addseq	r5, pc, r1
	...
    1b1c:	1c000000 	stcne	0, cr0, [r0], {-0}
    1b20:	01000000 	mrseq	r0, (UNDEF: 0)
    1b24:	001c5100 	andseq	r5, ip, r0, lsl #2
    1b28:	01540000 	cmpeq	r4, r0
    1b2c:	00040000 	andeq	r0, r4, r0
    1b30:	9f5101f3 	svcls	0x005101f3
	...
    1b3c:	00000010 	andeq	r0, r0, r0, lsl r0
    1b40:	00000134 	andeq	r0, r0, r4, lsr r1
    1b44:	00550001 	subseq	r0, r5, r1
    1b48:	00000000 	andeq	r0, r0, r0
    1b4c:	10000000 	andne	r0, r0, r0
    1b50:	34000000 	strcc	r0, [r0], #-0
    1b54:	01000000 	mrseq	r0, (UNDEF: 0)
    1b58:	00345500 	eorseq	r5, r4, r0, lsl #10
    1b5c:	01340000 	teqeq	r4, r0
    1b60:	00010000 	andeq	r0, r1, r0
    1b64:	00013458 	andeq	r3, r1, r8, asr r4
    1b68:	00015400 	andeq	r5, r1, r0, lsl #8
    1b6c:	55000100 	strpl	r0, [r0, #-256]	; 0x100
	...
    1b78:	00000014 	andeq	r0, r0, r4, lsl r0
    1b7c:	00000134 	andeq	r0, r0, r4, lsr r1
    1b80:	00550001 	subseq	r0, r5, r1
    1b84:	00000000 	andeq	r0, r0, r0
    1b88:	20000000 	andcs	r0, r0, r0
    1b8c:	34000000 	strcc	r0, [r0], #-0
    1b90:	01000001 	tsteq	r0, r1
    1b94:	00005500 	andeq	r5, r0, r0, lsl #10
    1b98:	00000000 	andeq	r0, r0, r0
    1b9c:	00240000 	eoreq	r0, r4, r0
    1ba0:	00280000 	eoreq	r0, r8, r0
    1ba4:	00010000 	andeq	r0, r1, r0
    1ba8:	00000053 	andeq	r0, r0, r3, asr r0
    1bac:	00000000 	andeq	r0, r0, r0
    1bb0:	00003400 	andeq	r3, r0, r0, lsl #8
    1bb4:	00005400 	andeq	r5, r0, r0, lsl #8
    1bb8:	58000100 	stmdapl	r0, {r8}
    1bbc:	00000054 	andeq	r0, r0, r4, asr r0
    1bc0:	00000134 	andeq	r0, r0, r4, lsr r1
    1bc4:	00750005 	rsbseq	r0, r5, r5
    1bc8:	009f2431 	addseq	r2, pc, r1, lsr r4	; <UNPREDICTABLE>
    1bcc:	00000000 	andeq	r0, r0, r0
    1bd0:	34000000 	strcc	r0, [r0], #-0
    1bd4:	3c000000 	stccc	0, cr0, [r0], {-0}
    1bd8:	05000000 	streq	r0, [r0, #-0]
    1bdc:	31007700 	tstcc	r0, r0, lsl #14
    1be0:	003c9f1a 	eorseq	r9, ip, sl, lsl pc
    1be4:	003f0000 	eorseq	r0, pc, r0
    1be8:	00010000 	andeq	r0, r1, r0
    1bec:	00003f51 	andeq	r3, r0, r1, asr pc
    1bf0:	00015400 	andeq	r5, r1, r0, lsl #8
    1bf4:	77000500 	strvc	r0, [r0, -r0, lsl #10]
    1bf8:	9f1a3100 	svcls	0x001a3100
	...
    1c04:	00000040 	andeq	r0, r0, r0, asr #32
    1c08:	00000054 	andeq	r0, r0, r4, asr r0
    1c0c:	54580001 	ldrbpl	r0, [r8], #-1
    1c10:	34000000 	strcc	r0, [r0], #-0
    1c14:	05000001 	streq	r0, [r0, #-1]
    1c18:	31007500 	tstcc	r0, r0, lsl #10
    1c1c:	00009f24 	andeq	r9, r0, r4, lsr #30
    1c20:	00000000 	andeq	r0, r0, r0
    1c24:	00440000 	subeq	r0, r4, r0
    1c28:	00480000 	subeq	r0, r8, r0
    1c2c:	00010000 	andeq	r0, r1, r0
    1c30:	00000053 	andeq	r0, r0, r3, asr r0
    1c34:	00000000 	andeq	r0, r0, r0
    1c38:	00005400 	andeq	r5, r0, r0, lsl #8
    1c3c:	00007400 	andeq	r7, r0, r0, lsl #8
    1c40:	58000100 	stmdapl	r0, {r8}
    1c44:	00000074 	andeq	r0, r0, r4, ror r0
    1c48:	00000134 	andeq	r0, r0, r4, lsr r1
    1c4c:	00750008 	rsbseq	r0, r5, r8
    1c50:	00752431 	rsbseq	r2, r5, r1, lsr r4
    1c54:	00009f22 	andeq	r9, r0, r2, lsr #30
    1c58:	00000000 	andeq	r0, r0, r0
    1c5c:	00600000 	rsbeq	r0, r0, r0
    1c60:	00740000 	rsbseq	r0, r4, r0
    1c64:	00010000 	andeq	r0, r1, r0
    1c68:	00007458 	andeq	r7, r0, r8, asr r4
    1c6c:	00013400 	andeq	r3, r1, r0, lsl #8
    1c70:	75000800 	strvc	r0, [r0, #-2048]	; 0x800
    1c74:	75243100 	strvc	r3, [r4, #-256]!	; 0x100
    1c78:	009f2200 	addseq	r2, pc, r0, lsl #4
    1c7c:	00000000 	andeq	r0, r0, r0
    1c80:	64000000 	strvs	r0, [r0], #-0
    1c84:	68000000 	stmdavs	r0, {}	; <UNPREDICTABLE>
    1c88:	01000000 	mrseq	r0, (UNDEF: 0)
    1c8c:	00005300 	andeq	r5, r0, r0, lsl #6
    1c90:	00000000 	andeq	r0, r0, r0
    1c94:	00740000 	rsbseq	r0, r4, r0
    1c98:	00940000 	addseq	r0, r4, r0
    1c9c:	00010000 	andeq	r0, r1, r0
    1ca0:	00009458 	andeq	r9, r0, r8, asr r4
    1ca4:	00013400 	andeq	r3, r1, r0, lsl #8
    1ca8:	75000500 	strvc	r0, [r0, #-1280]	; 0x500
    1cac:	9f243200 	svcls	0x00243200
	...
    1cb8:	00000080 	andeq	r0, r0, r0, lsl #1
    1cbc:	00000094 	muleq	r0, r4, r0
    1cc0:	94580001 	ldrbls	r0, [r8], #-1
    1cc4:	34000000 	strcc	r0, [r0], #-0
    1cc8:	05000001 	streq	r0, [r0, #-1]
    1ccc:	32007500 	andcc	r7, r0, #0, 10
    1cd0:	00009f24 	andeq	r9, r0, r4, lsr #30
    1cd4:	00000000 	andeq	r0, r0, r0
    1cd8:	00840000 	addeq	r0, r4, r0
    1cdc:	00880000 	addeq	r0, r8, r0
    1ce0:	00010000 	andeq	r0, r1, r0
    1ce4:	00000053 	andeq	r0, r0, r3, asr r0
    1ce8:	00000000 	andeq	r0, r0, r0
    1cec:	00009400 	andeq	r9, r0, r0, lsl #8
    1cf0:	0000b400 	andeq	fp, r0, r0, lsl #8
    1cf4:	58000100 	stmdapl	r0, {r8}
    1cf8:	000000b4 	strheq	r0, [r0], -r4
    1cfc:	00000134 	andeq	r0, r0, r4, lsr r1
    1d00:	00750008 	rsbseq	r0, r5, r8
    1d04:	00752432 	rsbseq	r2, r5, r2, lsr r4
    1d08:	00009f22 	andeq	r9, r0, r2, lsr #30
    1d0c:	00000000 	andeq	r0, r0, r0
    1d10:	00a00000 	adceq	r0, r0, r0
    1d14:	00b40000 	adcseq	r0, r4, r0
    1d18:	00010000 	andeq	r0, r1, r0
    1d1c:	0000b458 	andeq	fp, r0, r8, asr r4
    1d20:	00013400 	andeq	r3, r1, r0, lsl #8
    1d24:	75000800 	strvc	r0, [r0, #-2048]	; 0x800
    1d28:	75243200 	strvc	r3, [r4, #-512]!	; 0x200
    1d2c:	009f2200 	addseq	r2, pc, r0, lsl #4
    1d30:	00000000 	andeq	r0, r0, r0
    1d34:	a4000000 	strge	r0, [r0], #-0
    1d38:	a8000000 	stmdage	r0, {}	; <UNPREDICTABLE>
    1d3c:	01000000 	mrseq	r0, (UNDEF: 0)
    1d40:	00005300 	andeq	r5, r0, r0, lsl #6
    1d44:	00000000 	andeq	r0, r0, r0
    1d48:	00b40000 	adcseq	r0, r4, r0
    1d4c:	00d40000 	sbcseq	r0, r4, r0
    1d50:	00010000 	andeq	r0, r1, r0
    1d54:	0000d458 	andeq	sp, r0, r8, asr r4
    1d58:	00013400 	andeq	r3, r1, r0, lsl #8
    1d5c:	75000a00 	strvc	r0, [r0, #-2560]	; 0xa00
    1d60:	75243200 	strvc	r3, [r4, #-512]!	; 0x200
    1d64:	22243100 	eorcs	r3, r4, #0, 2
    1d68:	0000009f 	muleq	r0, pc, r0	; <UNPREDICTABLE>
    1d6c:	00000000 	andeq	r0, r0, r0
    1d70:	0000c000 	andeq	ip, r0, r0
    1d74:	0000d400 	andeq	sp, r0, r0, lsl #8
    1d78:	58000100 	stmdapl	r0, {r8}
    1d7c:	000000d4 	ldrdeq	r0, [r0], -r4
    1d80:	00000134 	andeq	r0, r0, r4, lsr r1
    1d84:	0075000a 	rsbseq	r0, r5, sl
    1d88:	00752432 	rsbseq	r2, r5, r2, lsr r4
    1d8c:	9f222431 	svcls	0x00222431
	...
    1d98:	000000c4 	andeq	r0, r0, r4, asr #1
    1d9c:	000000c8 	andeq	r0, r0, r8, asr #1
    1da0:	00530001 	subseq	r0, r3, r1
    1da4:	00000000 	andeq	r0, r0, r0
    1da8:	d4000000 	strle	r0, [r0], #-0
    1dac:	f4000000 	vst4.8	{d0-d3}, [r0], r0
    1db0:	01000000 	mrseq	r0, (UNDEF: 0)
    1db4:	00f45800 	rscseq	r5, r4, r0, lsl #16
    1db8:	01340000 	teqeq	r4, r0
    1dbc:	000d0000 	andeq	r0, sp, r0
    1dc0:	24320075 	ldrtcs	r0, [r2], #-117	; 0x75
    1dc4:	24310075 	ldrtcs	r0, [r1], #-117	; 0x75
    1dc8:	22007522 	andcs	r7, r0, #142606336	; 0x8800000
    1dcc:	0000009f 	muleq	r0, pc, r0	; <UNPREDICTABLE>
    1dd0:	00000000 	andeq	r0, r0, r0
    1dd4:	0000e000 	andeq	lr, r0, r0
    1dd8:	0000f400 	andeq	pc, r0, r0, lsl #8
    1ddc:	58000100 	stmdapl	r0, {r8}
    1de0:	000000f4 	strdeq	r0, [r0], -r4
    1de4:	00000134 	andeq	r0, r0, r4, lsr r1
    1de8:	0075000d 	rsbseq	r0, r5, sp
    1dec:	00752432 	rsbseq	r2, r5, r2, lsr r4
    1df0:	75222431 	strvc	r2, [r2, #-1073]!	; 0x431
    1df4:	009f2200 	addseq	r2, pc, r0, lsl #4
    1df8:	00000000 	andeq	r0, r0, r0
    1dfc:	e4000000 	str	r0, [r0], #-0
    1e00:	e8000000 	stmda	r0, {}	; <UNPREDICTABLE>
    1e04:	01000000 	mrseq	r0, (UNDEF: 0)
    1e08:	00005300 	andeq	r5, r0, r0, lsl #6
    1e0c:	00000000 	andeq	r0, r0, r0
    1e10:	00f40000 	rscseq	r0, r4, r0
    1e14:	01140000 	tsteq	r4, r0
    1e18:	00010000 	andeq	r0, r1, r0
    1e1c:	00011458 	andeq	r1, r1, r8, asr r4
    1e20:	00013400 	andeq	r3, r1, r0, lsl #8
    1e24:	75000500 	strvc	r0, [r0, #-1280]	; 0x500
    1e28:	9f243300 	svcls	0x00243300
	...
    1e34:	00000100 	andeq	r0, r0, r0, lsl #2
    1e38:	00000114 	andeq	r0, r0, r4, lsl r1
    1e3c:	14580001 	ldrbne	r0, [r8], #-1
    1e40:	34000001 	strcc	r0, [r0], #-1
    1e44:	05000001 	streq	r0, [r0, #-1]
    1e48:	33007500 	movwcc	r7, #1280	; 0x500
    1e4c:	00009f24 	andeq	r9, r0, r4, lsr #30
    1e50:	00000000 	andeq	r0, r0, r0
    1e54:	01040000 	mrseq	r0, (UNDEF: 4)
    1e58:	01080000 	mrseq	r0, (UNDEF: 8)
    1e5c:	00010000 	andeq	r0, r1, r0
    1e60:	00000053 	andeq	r0, r0, r3, asr r0
    1e64:	00000000 	andeq	r0, r0, r0
    1e68:	00011400 	andeq	r1, r1, r0, lsl #8
    1e6c:	00011c00 	andeq	r1, r1, r0, lsl #24
    1e70:	77000600 	strvc	r0, [r0, -r0, lsl #12]
    1e74:	1a800800 	bne	fe003e7c <__bss_end__+0xfdff9584>
    1e78:	00011c9f 	muleq	r1, pc, ip	; <UNPREDICTABLE>
    1e7c:	00011f00 	andeq	r1, r1, r0, lsl #30
    1e80:	51000100 	mrspl	r0, (UNDEF: 16)
    1e84:	0000011f 	andeq	r0, r0, pc, lsl r1
    1e88:	00000154 	andeq	r0, r0, r4, asr r1
    1e8c:	00770006 	rsbseq	r0, r7, r6
    1e90:	9f1a8008 	svcls	0x001a8008
	...
    1e9c:	00000124 	andeq	r0, r0, r4, lsr #2
    1ea0:	00000128 	andeq	r0, r0, r8, lsr #2
    1ea4:	00530001 	subseq	r0, r3, r1
    1ea8:	00000000 	andeq	r0, r0, r0
    1eac:	44000000 	strmi	r0, [r0], #-0
    1eb0:	48000001 	stmdami	r0, {r0}
    1eb4:	01000001 	tsteq	r0, r1
    1eb8:	00005300 	andeq	r5, r0, r0, lsl #6
    1ebc:	00000000 	andeq	r0, r0, r0
    1ec0:	01540000 	cmpeq	r4, r0
    1ec4:	016b0000 	cmneq	fp, r0
    1ec8:	00010000 	andeq	r0, r1, r0
    1ecc:	00016b50 	andeq	r6, r1, r0, asr fp
    1ed0:	0001d000 	andeq	sp, r1, r0
    1ed4:	59000100 	stmdbpl	r0, {r8}
    1ed8:	000001d0 	ldrdeq	r0, [r0], -r0	; <UNPREDICTABLE>
    1edc:	0000030c 	andeq	r0, r0, ip, lsl #6
    1ee0:	01f30004 	mvnseq	r0, r4
    1ee4:	030c9f50 	movweq	r9, #53072	; 0xcf50
    1ee8:	03140000 	tsteq	r4, #0
    1eec:	00010000 	andeq	r0, r1, r0
    1ef0:	00031459 	andeq	r1, r3, r9, asr r4
    1ef4:	00031c00 	andeq	r1, r3, r0, lsl #24
    1ef8:	f3000400 	vshl.u8	d0, d0, d0
    1efc:	009f5001 	addseq	r5, pc, r1
    1f00:	00000000 	andeq	r0, r0, r0
    1f04:	54000000 	strpl	r0, [r0], #-0
    1f08:	6b000001 	blvs	1f14 <_start-0x60ec>
    1f0c:	01000001 	tsteq	r0, r1
    1f10:	016b5100 	cmneq	fp, r0, lsl #2
    1f14:	031c0000 	tsteq	ip, #0
    1f18:	00010000 	andeq	r0, r1, r0
    1f1c:	00000056 	andeq	r0, r0, r6, asr r0
    1f20:	00000000 	andeq	r0, r0, r0
    1f24:	0001a800 	andeq	sl, r1, r0, lsl #16
    1f28:	00029800 	andeq	r9, r2, r0, lsl #16
    1f2c:	58000100 	stmdapl	r0, {r8}
	...
    1f38:	000001ac 	andeq	r0, r0, ip, lsr #3
    1f3c:	000002d0 	ldrdeq	r0, [r0], -r0	; <UNPREDICTABLE>
    1f40:	00540001 	subseq	r0, r4, r1
    1f44:	00000000 	andeq	r0, r0, r0
    1f48:	ac000000 	stcge	0, cr0, [r0], {-0}
    1f4c:	d0000001 	andle	r0, r0, r1
    1f50:	05000002 	streq	r0, [r0, #-2]
    1f54:	31007400 	tstcc	r0, r0, lsl #8
    1f58:	00009f25 	andeq	r9, r0, r5, lsr #30
    1f5c:	00000000 	andeq	r0, r0, r0
    1f60:	01ac0000 			; <UNDEFINED> instruction: 0x01ac0000
    1f64:	01d00000 	bicseq	r0, r0, r0
    1f68:	00020000 	andeq	r0, r2, r0
    1f6c:	01d09f30 	bicseq	r9, r0, r0, lsr pc
    1f70:	030c0000 	movweq	r0, #49152	; 0xc000
    1f74:	00010000 	andeq	r0, r1, r0
    1f78:	00031459 	andeq	r1, r3, r9, asr r4
    1f7c:	00031c00 	andeq	r1, r3, r0, lsl #24
    1f80:	59000100 	stmdbpl	r0, {r8}
	...
    1f8c:	00000168 	andeq	r0, r0, r8, ror #2
    1f90:	0000016b 	andeq	r0, r0, fp, ror #2
    1f94:	6b510001 	blvs	1441fa0 <__bss_end__+0x14376a8>
    1f98:	1c000001 	stcne	0, cr0, [r0], {1}
    1f9c:	01000003 	tsteq	r0, r3
    1fa0:	00005600 	andeq	r5, r0, r0, lsl #12
    1fa4:	00000000 	andeq	r0, r0, r0
    1fa8:	01700000 	cmneq	r0, r0
    1fac:	01ac0000 			; <UNDEFINED> instruction: 0x01ac0000
    1fb0:	00010000 	andeq	r0, r1, r0
    1fb4:	00030c54 	andeq	r0, r3, r4, asr ip
    1fb8:	00031400 	andeq	r1, r3, r0, lsl #8
    1fbc:	54000100 	strpl	r0, [r0], #-256	; 0x100
	...
    1fc8:	000001a8 	andeq	r0, r0, r8, lsr #3
    1fcc:	000001c4 	andeq	r0, r0, r4, asr #3
    1fd0:	00580001 	subseq	r0, r8, r1
    1fd4:	00000000 	andeq	r0, r0, r0
    1fd8:	b0000000 	andlt	r0, r0, r0
    1fdc:	cb000001 	blgt	1fe8 <_start-0x6018>
    1fe0:	01000001 	tsteq	r0, r1
    1fe4:	01cb5200 	biceq	r5, fp, r0, lsl #4
    1fe8:	02d00000 	sbcseq	r0, r0, #0
    1fec:	00080000 	andeq	r0, r8, r0
    1ff0:	25310074 	ldrcs	r0, [r1, #-116]!	; 0x74
    1ff4:	9f220074 	svcls	0x00220074
	...
    2000:	000001b0 			; <UNDEFINED> instruction: 0x000001b0
    2004:	000001c4 	andeq	r0, r0, r4, asr #3
    2008:	00580001 	subseq	r0, r8, r1
    200c:	00000000 	andeq	r0, r0, r0
    2010:	b4000000 	strlt	r0, [r0], #-0
    2014:	b8000001 	stmdalt	r0, {r0}
    2018:	01000001 	tsteq	r0, r1
    201c:	00005300 	andeq	r5, r0, r0, lsl #6
    2020:	00000000 	andeq	r0, r0, r0
    2024:	01d00000 	bicseq	r0, r0, r0
    2028:	02d00000 	sbcseq	r0, r0, #0
    202c:	00010000 	andeq	r0, r1, r0
    2030:	00000054 	andeq	r0, r0, r4, asr r0
    2034:	00000000 	andeq	r0, r0, r0
    2038:	0001d000 	andeq	sp, r1, r0
    203c:	0001e400 	andeq	lr, r1, r0, lsl #8
    2040:	58000100 	stmdapl	r0, {r8}
	...
    204c:	000001d4 	ldrdeq	r0, [r0], -r4
    2050:	000001d8 	ldrdeq	r0, [r0], -r8
    2054:	00530001 	subseq	r0, r3, r1
    2058:	00000000 	andeq	r0, r0, r0
    205c:	f4000000 	vst4.8	{d0-d3}, [r0], r0
    2060:	d0000001 	andle	r0, r0, r1
    2064:	01000002 	tsteq	r0, r2
    2068:	00005400 	andeq	r5, r0, r0, lsl #8
    206c:	00000000 	andeq	r0, r0, r0
    2070:	01f40000 	mvnseq	r0, r0
    2074:	02080000 	andeq	r0, r8, #0
    2078:	00010000 	andeq	r0, r1, r0
    207c:	00000058 	andeq	r0, r0, r8, asr r0
    2080:	00000000 	andeq	r0, r0, r0
    2084:	0001f800 	andeq	pc, r1, r0, lsl #16
    2088:	0001fc00 	andeq	pc, r1, r0, lsl #24
    208c:	53000100 	movwpl	r0, #256	; 0x100
	...
    2098:	00000218 	andeq	r0, r0, r8, lsl r2
    209c:	000002d0 	ldrdeq	r0, [r0], -r0	; <UNPREDICTABLE>
    20a0:	00540001 	subseq	r0, r4, r1
    20a4:	00000000 	andeq	r0, r0, r0
    20a8:	18000000 	stmdane	r0, {}	; <UNPREDICTABLE>
    20ac:	2c000002 	stccs	0, cr0, [r0], {2}
    20b0:	01000002 	tsteq	r0, r2
    20b4:	00005800 	andeq	r5, r0, r0, lsl #16
    20b8:	00000000 	andeq	r0, r0, r0
    20bc:	021c0000 	andseq	r0, ip, #0
    20c0:	02200000 	eoreq	r0, r0, #0
    20c4:	00010000 	andeq	r0, r1, r0
    20c8:	00000053 	andeq	r0, r0, r3, asr r0
    20cc:	00000000 	andeq	r0, r0, r0
    20d0:	00023c00 	andeq	r3, r2, r0, lsl #24
    20d4:	0002d000 	andeq	sp, r2, r0
    20d8:	54000100 	strpl	r0, [r0], #-256	; 0x100
	...
    20e4:	0000023c 	andeq	r0, r0, ip, lsr r2
    20e8:	00000250 	andeq	r0, r0, r0, asr r2
    20ec:	00580001 	subseq	r0, r8, r1
    20f0:	00000000 	andeq	r0, r0, r0
    20f4:	40000000 	andmi	r0, r0, r0
    20f8:	44000002 	strmi	r0, [r0], #-2
    20fc:	01000002 	tsteq	r0, r2
    2100:	00005300 	andeq	r5, r0, r0, lsl #6
    2104:	00000000 	andeq	r0, r0, r0
    2108:	02600000 	rsbeq	r0, r0, #0
    210c:	02d00000 	sbcseq	r0, r0, #0
    2110:	00010000 	andeq	r0, r1, r0
    2114:	00000054 	andeq	r0, r0, r4, asr r0
    2118:	00000000 	andeq	r0, r0, r0
    211c:	00026000 	andeq	r6, r2, r0
    2120:	00027400 	andeq	r7, r2, r0, lsl #8
    2124:	58000100 	stmdapl	r0, {r8}
	...
    2130:	00000264 	andeq	r0, r0, r4, ror #4
    2134:	00000268 	andeq	r0, r0, r8, ror #4
    2138:	00530001 	subseq	r0, r3, r1
    213c:	00000000 	andeq	r0, r0, r0
    2140:	84000000 	strhi	r0, [r0], #-0
    2144:	d0000002 	andle	r0, r0, r2
    2148:	01000002 	tsteq	r0, r2
    214c:	00005400 	andeq	r5, r0, r0, lsl #8
    2150:	00000000 	andeq	r0, r0, r0
    2154:	02840000 	addeq	r0, r4, #0
    2158:	02980000 	addseq	r0, r8, #0
    215c:	00010000 	andeq	r0, r1, r0
    2160:	00000058 	andeq	r0, r0, r8, asr r0
    2164:	00000000 	andeq	r0, r0, r0
    2168:	00028800 	andeq	r8, r2, r0, lsl #16
    216c:	00028c00 	andeq	r8, r2, r0, lsl #24
    2170:	53000100 	movwpl	r0, #256	; 0x100
	...
    217c:	000002a8 	andeq	r0, r0, r8, lsr #5
    2180:	000002d0 	ldrdeq	r0, [r0], -r0	; <UNPREDICTABLE>
    2184:	00540001 	subseq	r0, r4, r1
    2188:	00000000 	andeq	r0, r0, r0
    218c:	ac000000 	stcge	0, cr0, [r0], {-0}
    2190:	b0000002 	andlt	r0, r0, r2
    2194:	01000002 	tsteq	r0, r2
    2198:	00005300 	andeq	r5, r0, r0, lsl #6
    219c:	00000000 	andeq	r0, r0, r0
    21a0:	02c80000 	sbceq	r0, r8, #0
    21a4:	030c0000 	movweq	r0, #49152	; 0xc000
    21a8:	00020000 	andeq	r0, r2, r0
    21ac:	03149f30 	tsteq	r4, #48, 30	; 0xc0
    21b0:	031c0000 	tsteq	ip, #0
    21b4:	00020000 	andeq	r0, r2, r0
    21b8:	00009f30 	andeq	r9, r0, r0, lsr pc
    21bc:	00000000 	andeq	r0, r0, r0
    21c0:	02c80000 	sbceq	r0, r8, #0
    21c4:	030c0000 	movweq	r0, #49152	; 0xc000
    21c8:	00010000 	andeq	r0, r1, r0
    21cc:	00031455 	andeq	r1, r3, r5, asr r4
    21d0:	00031c00 	andeq	r1, r3, r0, lsl #24
    21d4:	55000100 	strpl	r0, [r0, #-256]	; 0x100
	...
    21e0:	000002d0 	ldrdeq	r0, [r0], -r0	; <UNPREDICTABLE>
    21e4:	0000030c 	andeq	r0, r0, ip, lsl #6
    21e8:	14540001 	ldrbne	r0, [r4], #-1
    21ec:	1c000003 	stcne	0, cr0, [r0], {3}
    21f0:	01000003 	tsteq	r0, r3
    21f4:	00005400 	andeq	r5, r0, r0, lsl #8
    21f8:	00000000 	andeq	r0, r0, r0
    21fc:	031c0000 	tsteq	ip, #0
    2200:	033f0000 	teqeq	pc, #0
    2204:	00010000 	andeq	r0, r1, r0
    2208:	00033f50 	andeq	r3, r3, r0, asr pc
    220c:	00036000 	andeq	r6, r3, r0
    2210:	58000100 	stmdapl	r0, {r8}
    2214:	00000360 	andeq	r0, r0, r0, ror #6
    2218:	00000370 	andeq	r0, r0, r0, ror r3
    221c:	70500001 	subsvc	r0, r0, r1
    2220:	b0000003 	andlt	r0, r0, r3
    2224:	01000003 	tsteq	r0, r3
    2228:	03b05800 	movseq	r5, #0, 16
    222c:	03c00000 	biceq	r0, r0, #0
    2230:	00040000 	andeq	r0, r4, r0
    2234:	9f5001f3 	svcls	0x005001f3
	...
    2240:	0000031c 	andeq	r0, r0, ip, lsl r3
    2244:	0000033f 	andeq	r0, r0, pc, lsr r3
    2248:	3f510001 	svccc	0x00510001
    224c:	60000003 	andvs	r0, r0, r3
    2250:	01000003 	tsteq	r0, r3
    2254:	03605600 	cmneq	r0, #0, 12
    2258:	03700000 	cmneq	r0, #0
    225c:	00010000 	andeq	r0, r1, r0
    2260:	00037051 	andeq	r7, r3, r1, asr r0
    2264:	0003b000 	andeq	fp, r3, r0
    2268:	56000100 	strpl	r0, [r0], -r0, lsl #2
    226c:	000003b0 			; <UNDEFINED> instruction: 0x000003b0
    2270:	000003c0 	andeq	r0, r0, r0, asr #7
    2274:	01f30004 	mvnseq	r0, r4
    2278:	00009f51 	andeq	r9, r0, r1, asr pc
    227c:	00000000 	andeq	r0, r0, r0
    2280:	031c0000 	tsteq	ip, #0
    2284:	033f0000 	teqeq	pc, #0
    2288:	00010000 	andeq	r0, r1, r0
    228c:	00033f52 	andeq	r3, r3, r2, asr pc
    2290:	00036000 	andeq	r6, r3, r0
    2294:	f3000400 	vshl.u8	d0, d0, d0
    2298:	609f5201 	addsvs	r5, pc, r1, lsl #4
    229c:	70000003 	andvc	r0, r0, r3
    22a0:	01000003 	tsteq	r0, r3
    22a4:	03705200 	cmneq	r0, #0, 4
    22a8:	03b00000 	movseq	r0, #0
    22ac:	00030000 	andeq	r0, r3, r0
    22b0:	b09f0177 	addslt	r0, pc, r7, ror r1	; <UNPREDICTABLE>
    22b4:	c0000003 	andgt	r0, r0, r3
    22b8:	04000003 	streq	r0, [r0], #-3
    22bc:	5201f300 	andpl	pc, r1, #0, 6
    22c0:	0000009f 	muleq	r0, pc, r0	; <UNPREDICTABLE>
    22c4:	00000000 	andeq	r0, r0, r0
    22c8:	00031c00 	andeq	r1, r3, r0, lsl #24
    22cc:	00033f00 	andeq	r3, r3, r0, lsl #30
    22d0:	53000100 	movwpl	r0, #256	; 0x100
    22d4:	0000033f 	andeq	r0, r0, pc, lsr r3
    22d8:	00000360 	andeq	r0, r0, r0, ror #6
    22dc:	01f30004 	mvnseq	r0, r4
    22e0:	03609f53 	cmneq	r0, #332	; 0x14c
    22e4:	03700000 	cmneq	r0, #0
    22e8:	00010000 	andeq	r0, r1, r0
    22ec:	00037053 	andeq	r7, r3, r3, asr r0
    22f0:	0003c000 	andeq	ip, r3, r0
    22f4:	f3000400 	vshl.u8	d0, d0, d0
    22f8:	009f5301 	addseq	r5, pc, r1, lsl #6
    22fc:	00000000 	andeq	r0, r0, r0
    2300:	68000000 	stmdavs	r0, {}	; <UNPREDICTABLE>
    2304:	70000003 	andvc	r0, r0, r3
    2308:	02000003 	andeq	r0, r0, #3
    230c:	709f3000 	addsvc	r3, pc, r0
    2310:	b0000003 	andlt	r0, r0, r3
    2314:	01000003 	tsteq	r0, r3
    2318:	03b05400 	movseq	r5, #0, 8
    231c:	03c00000 	biceq	r0, r0, #0
    2320:	00010000 	andeq	r0, r1, r0
    2324:	00000050 	andeq	r0, r0, r0, asr r0
    2328:	00000000 	andeq	r0, r0, r0
    232c:	00038000 	andeq	r8, r3, r0
    2330:	00039000 	andeq	r9, r3, r0
    2334:	50000100 	andpl	r0, r0, r0, lsl #2
	...
    2340:	000003c0 	andeq	r0, r0, r0, asr #7
    2344:	000003df 	ldrdeq	r0, [r0], -pc	; <UNPREDICTABLE>
    2348:	df500001 	svcle	0x00500001
    234c:	00000003 	andeq	r0, r0, r3
    2350:	01000004 	tsteq	r0, r4
    2354:	04005700 	streq	r5, [r0], #-1792	; 0x700
    2358:	04100000 	ldreq	r0, [r0], #-0
    235c:	00010000 	andeq	r0, r1, r0
    2360:	00041050 	andeq	r1, r4, r0, asr r0
    2364:	00044000 	andeq	r4, r4, r0
    2368:	57000100 	strpl	r0, [r0, -r0, lsl #2]
    236c:	00000440 	andeq	r0, r0, r0, asr #8
    2370:	00000450 	andeq	r0, r0, r0, asr r4
    2374:	01f30004 	mvnseq	r0, r4
    2378:	00009f50 	andeq	r9, r0, r0, asr pc
    237c:	00000000 	andeq	r0, r0, r0
    2380:	03c00000 	biceq	r0, r0, #0
    2384:	03df0000 	bicseq	r0, pc, #0
    2388:	00010000 	andeq	r0, r1, r0
    238c:	0003df51 	andeq	sp, r3, r1, asr pc
    2390:	00040000 	andeq	r0, r4, r0
    2394:	55000100 	strpl	r0, [r0, #-256]	; 0x100
    2398:	00000400 	andeq	r0, r0, r0, lsl #8
    239c:	00000410 	andeq	r0, r0, r0, lsl r4
    23a0:	10510001 	subsne	r0, r1, r1
    23a4:	40000004 	andmi	r0, r0, r4
    23a8:	01000004 	tsteq	r0, r4
    23ac:	04405500 	strbeq	r5, [r0], #-1280	; 0x500
    23b0:	04500000 	ldrbeq	r0, [r0], #-0
    23b4:	00040000 	andeq	r0, r4, r0
    23b8:	9f5101f3 	svcls	0x005101f3
	...
    23c4:	000003c0 	andeq	r0, r0, r0, asr #7
    23c8:	000003df 	ldrdeq	r0, [r0], -pc	; <UNPREDICTABLE>
    23cc:	df520001 	svcle	0x00520001
    23d0:	00000003 	andeq	r0, r0, r3
    23d4:	04000004 	streq	r0, [r0], #-4
    23d8:	5201f300 	andpl	pc, r1, #0, 6
    23dc:	0004009f 	muleq	r4, pc, r0	; <UNPREDICTABLE>
    23e0:	00041000 	andeq	r1, r4, r0
    23e4:	52000100 	andpl	r0, r0, #0, 2
    23e8:	00000410 	andeq	r0, r0, r0, lsl r4
    23ec:	00000440 	andeq	r0, r0, r0, asr #8
    23f0:	01760003 	cmneq	r6, r3
    23f4:	0004409f 	muleq	r4, pc, r0	; <UNPREDICTABLE>
    23f8:	00045000 	andeq	r5, r4, r0
    23fc:	f3000400 	vshl.u8	d0, d0, d0
    2400:	009f5201 	addseq	r5, pc, r1, lsl #4
    2404:	00000000 	andeq	r0, r0, r0
    2408:	c0000000 	andgt	r0, r0, r0
    240c:	df000003 	svcle	0x00000003
    2410:	01000003 	tsteq	r0, r3
    2414:	03df5300 	bicseq	r5, pc, #0, 6
    2418:	04000000 	streq	r0, [r0], #-0
    241c:	00010000 	andeq	r0, r1, r0
    2420:	00040058 	andeq	r0, r4, r8, asr r0
    2424:	00041000 	andeq	r1, r4, r0
    2428:	53000100 	movwpl	r0, #256	; 0x100
    242c:	00000410 	andeq	r0, r0, r0, lsl r4
    2430:	00000440 	andeq	r0, r0, r0, asr #8
    2434:	40580001 	subsmi	r0, r8, r1
    2438:	50000004 	andpl	r0, r0, r4
    243c:	04000004 	streq	r0, [r0], #-4
    2440:	5301f300 	movwpl	pc, #4864	; 0x1300	; <UNPREDICTABLE>
    2444:	0000009f 	muleq	r0, pc, r0	; <UNPREDICTABLE>
    2448:	00000000 	andeq	r0, r0, r0
    244c:	00040800 	andeq	r0, r4, r0, lsl #16
    2450:	00041000 	andeq	r1, r4, r0
    2454:	30000200 	andcc	r0, r0, r0, lsl #4
    2458:	0004109f 	muleq	r4, pc, r0	; <UNPREDICTABLE>
    245c:	00044000 	andeq	r4, r4, r0
    2460:	54000100 	strpl	r0, [r0], #-256	; 0x100
    2464:	00000440 	andeq	r0, r0, r0, asr #8
    2468:	00000450 	andeq	r0, r0, r0, asr r4
    246c:	00500001 	subseq	r0, r0, r1
    2470:	00000000 	andeq	r0, r0, r0
    2474:	50000000 	andpl	r0, r0, r0
    2478:	73000004 	movwvc	r0, #4
    247c:	01000004 	tsteq	r0, r4
    2480:	04735100 	ldrbteq	r5, [r3], #-256	; 0x100
    2484:	05240000 	streq	r0, [r4, #-0]!
    2488:	00040000 	andeq	r0, r4, r0
    248c:	9f5101f3 	svcls	0x005101f3
	...
    2498:	00000450 	andeq	r0, r0, r0, asr r4
    249c:	00000473 	andeq	r0, r0, r3, ror r4
    24a0:	73520001 	cmpvc	r2, #1
    24a4:	24000004 	strcs	r0, [r0], #-4
    24a8:	04000005 	streq	r0, [r0], #-5
    24ac:	5201f300 	andpl	pc, r1, #0, 6
    24b0:	0000009f 	muleq	r0, pc, r0	; <UNPREDICTABLE>
    24b4:	00000000 	andeq	r0, r0, r0
    24b8:	00045000 	andeq	r5, r4, r0
    24bc:	00047300 	andeq	r7, r4, r0, lsl #6
    24c0:	53000100 	movwpl	r0, #256	; 0x100
    24c4:	00000473 	andeq	r0, r0, r3, ror r4
    24c8:	00000510 	andeq	r0, r0, r0, lsl r5
    24cc:	10550001 	subsne	r0, r5, r1
    24d0:	24000005 	strcs	r0, [r0], #-5
    24d4:	02000005 	andeq	r0, r0, #5
    24d8:	00047000 	andeq	r7, r4, r0
    24dc:	00000000 	andeq	r0, r0, r0
    24e0:	94000000 	strls	r0, [r0], #-0
    24e4:	d3000004 	movwle	r0, #4
    24e8:	01000004 	tsteq	r0, r4
    24ec:	04d35200 	ldrbeq	r5, [r3], #512	; 0x200
    24f0:	04f40000 	ldrbteq	r0, [r4], #0
    24f4:	00060000 	andeq	r0, r6, r0
    24f8:	00770075 	rsbseq	r0, r7, r5, ror r0
    24fc:	04f49f1e 	ldrbteq	r9, [r4], #3870	; 0xf1e
    2500:	05240000 	streq	r0, [r4, #-0]!
    2504:	00010000 	andeq	r0, r1, r0
    2508:	00000052 	andeq	r0, r0, r2, asr r0
    250c:	00000000 	andeq	r0, r0, r0
    2510:	00052400 	andeq	r2, r5, r0, lsl #8
    2514:	00052f00 	andeq	r2, r5, r0, lsl #30
    2518:	50000100 	andpl	r0, r0, r0, lsl #2
    251c:	0000052f 	andeq	r0, r0, pc, lsr #10
    2520:	00000560 	andeq	r0, r0, r0, ror #10
    2524:	01f30004 	mvnseq	r0, r4
    2528:	00009f50 	andeq	r9, r0, r0, asr pc
    252c:	00000000 	andeq	r0, r0, r0
    2530:	05300000 	ldreq	r0, [r0, #-0]!
    2534:	053b0000 	ldreq	r0, [fp, #-0]!
    2538:	00010000 	andeq	r0, r1, r0
    253c:	00000050 	andeq	r0, r0, r0, asr r0
    2540:	00000000 	andeq	r0, r0, r0
    2544:	00056000 	andeq	r6, r5, r0
    2548:	00057000 	andeq	r7, r5, r0
    254c:	50000100 	andpl	r0, r0, r0, lsl #2
    2550:	00000570 	andeq	r0, r0, r0, ror r5
    2554:	0000058c 	andeq	r0, r0, ip, lsl #11
    2558:	00550001 	subseq	r0, r5, r1
    255c:	00000000 	andeq	r0, r0, r0
    2560:	60000000 	andvs	r0, r0, r0
    2564:	70000005 	andvc	r0, r0, r5
    2568:	01000005 	tsteq	r0, r5
    256c:	05705100 	ldrbeq	r5, [r0, #-256]!	; 0x100
    2570:	058c0000 	streq	r0, [ip]
    2574:	00010000 	andeq	r0, r1, r0
    2578:	00000054 	andeq	r0, r0, r4, asr r0
    257c:	00000000 	andeq	r0, r0, r0
    2580:	00058c00 	andeq	r8, r5, r0, lsl #24
    2584:	0005a800 	andeq	sl, r5, r0, lsl #16
    2588:	50000100 	andpl	r0, r0, r0, lsl #2
    258c:	000005a8 	andeq	r0, r0, r8, lsr #11
    2590:	00000600 	andeq	r0, r0, r0, lsl #12
    2594:	00550001 	subseq	r0, r5, r1
    2598:	1c000006 	stcne	0, cr0, [r0], {6}
    259c:	04000006 	streq	r0, [r0], #-6
    25a0:	5001f300 	andpl	pc, r1, r0, lsl #6
    25a4:	0000009f 	muleq	r0, pc, r0	; <UNPREDICTABLE>
    25a8:	00000000 	andeq	r0, r0, r0
    25ac:	0005b800 	andeq	fp, r5, r0, lsl #16
    25b0:	0005c700 	andeq	ip, r5, r0, lsl #14
    25b4:	50000100 	andpl	r0, r0, r0, lsl #2
    25b8:	000005c7 	andeq	r0, r0, r7, asr #11
    25bc:	000005e8 	andeq	r0, r0, r8, ror #11
    25c0:	e8540001 	ldmda	r4, {r0}^
    25c4:	ec000005 	stc	0, cr0, [r0], {5}
    25c8:	01000005 	tsteq	r0, r5
    25cc:	05ec5000 	strbeq	r5, [ip, #0]!
    25d0:	06000000 	streq	r0, [r0], -r0
    25d4:	00010000 	andeq	r0, r1, r0
    25d8:	00060054 	andeq	r0, r6, r4, asr r0
    25dc:	00061c00 	andeq	r1, r6, r0, lsl #24
    25e0:	50000100 	andpl	r0, r0, r0, lsl #2
	...
    25ec:	0000061c 	andeq	r0, r0, ip, lsl r6
    25f0:	0000062f 	andeq	r0, r0, pc, lsr #12
    25f4:	2f500001 	svccs	0x00500001
    25f8:	68000006 	stmdavs	r0, {r1, r2}
    25fc:	04000006 	streq	r0, [r0], #-6
    2600:	5001f300 	andpl	pc, r1, r0, lsl #6
    2604:	0000009f 	muleq	r0, pc, r0	; <UNPREDICTABLE>
    2608:	00000000 	andeq	r0, r0, r0
    260c:	00061c00 	andeq	r1, r6, r0, lsl #24
    2610:	00062f00 	andeq	r2, r6, r0, lsl #30
    2614:	51000100 	mrspl	r0, (UNDEF: 16)
    2618:	0000062f 	andeq	r0, r0, pc, lsr #12
    261c:	00000668 	andeq	r0, r0, r8, ror #12
    2620:	01f30004 	mvnseq	r0, r4
    2624:	00009f51 	andeq	r9, r0, r1, asr pc
    2628:	00000000 	andeq	r0, r0, r0
    262c:	061c0000 	ldreq	r0, [ip], -r0
    2630:	062f0000 	strteq	r0, [pc], -r0
    2634:	00010000 	andeq	r0, r1, r0
    2638:	00062f52 	andeq	r2, r6, r2, asr pc
    263c:	00066800 	andeq	r6, r6, r0, lsl #16
    2640:	f3000400 	vshl.u8	d0, d0, d0
    2644:	009f5201 	addseq	r5, pc, r1, lsl #4
    2648:	00000000 	andeq	r0, r0, r0
    264c:	1c000000 	stcne	0, cr0, [r0], {-0}
    2650:	2f000006 	svccs	0x00000006
    2654:	01000006 	tsteq	r0, r6
    2658:	062f5300 	strteq	r5, [pc], -r0, lsl #6
    265c:	06680000 	strbteq	r0, [r8], -r0
    2660:	00040000 	andeq	r0, r4, r0
    2664:	9f5301f3 	svcls	0x005301f3
	...
    2670:	00000630 	andeq	r0, r0, r0, lsr r6
    2674:	0000063b 	andeq	r0, r0, fp, lsr r6
    2678:	54500001 	ldrbpl	r0, [r0], #-1
    267c:	68000006 	stmdavs	r0, {r1, r2}
    2680:	01000006 	tsteq	r0, r6
    2684:	00005000 	andeq	r5, r0, r0
    2688:	00000000 	andeq	r0, r0, r0
    268c:	00fc0000 	rscseq	r0, ip, r0
    2690:	01040000 	mrseq	r0, (UNDEF: 4)
    2694:	00010000 	andeq	r0, r1, r0
    2698:	00010450 	andeq	r0, r1, r0, asr r4
    269c:	00012800 	andeq	r2, r1, r0, lsl #16
    26a0:	54000100 	strpl	r0, [r0], #-256	; 0x100
	...
    26ac:	00000030 	andeq	r0, r0, r0, lsr r0
    26b0:	0000003c 	andeq	r0, r0, ip, lsr r0
    26b4:	9f300002 	svcls	0x00300002
    26b8:	0000003c 	andeq	r0, r0, ip, lsr r0
    26bc:	00000068 	andeq	r0, r0, r8, rrx
    26c0:	00530001 	subseq	r0, r3, r1
    26c4:	00000000 	andeq	r0, r0, r0
    26c8:	68000000 	stmdavs	r0, {}	; <UNPREDICTABLE>
    26cc:	77000000 	strvc	r0, [r0, -r0]
    26d0:	01000000 	mrseq	r0, (UNDEF: 0)
    26d4:	00775000 	rsbseq	r5, r7, r0
    26d8:	00ac0000 	adceq	r0, ip, r0
    26dc:	00010000 	andeq	r0, r1, r0
    26e0:	00000054 	andeq	r0, r0, r4, asr r0
	...
    26ec:	00000f00 	andeq	r0, r0, r0, lsl #30
    26f0:	50000100 	andpl	r0, r0, r0, lsl #2
    26f4:	0000000f 	andeq	r0, r0, pc
    26f8:	00000044 	andeq	r0, r0, r4, asr #32
    26fc:	00540001 	subseq	r0, r4, r1
	...
    2708:	0f000000 	svceq	0x00000000
    270c:	01000000 	mrseq	r0, (UNDEF: 0)
    2710:	000f5000 	andeq	r5, pc, r0
    2714:	00440000 	subeq	r0, r4, r0
    2718:	00010000 	andeq	r0, r1, r0
    271c:	00000054 	andeq	r0, r0, r4, asr r0
	...
    2728:	00000f00 	andeq	r0, r0, r0, lsl #30
    272c:	50000100 	andpl	r0, r0, r0, lsl #2
    2730:	0000000f 	andeq	r0, r0, pc
    2734:	00000044 	andeq	r0, r0, r4, asr #32
    2738:	00540001 	subseq	r0, r4, r1
	...
    2744:	0f000000 	svceq	0x00000000
    2748:	01000000 	mrseq	r0, (UNDEF: 0)
    274c:	000f5000 	andeq	r5, pc, r0
    2750:	00440000 	subeq	r0, r4, r0
    2754:	00010000 	andeq	r0, r1, r0
    2758:	00000054 	andeq	r0, r0, r4, asr r0
	...
    2764:	00000400 	andeq	r0, r0, r0, lsl #8
    2768:	52000100 	andpl	r0, r0, #0, 2
    276c:	00000004 	andeq	r0, r0, r4
    2770:	00000020 	andeq	r0, r0, r0, lsr #32
    2774:	01f30004 	mvnseq	r0, r4
    2778:	00009f52 	andeq	r9, r0, r2, asr pc
	...
    2784:	000c0000 	andeq	r0, ip, r0
    2788:	00010000 	andeq	r0, r1, r0
    278c:	00000c50 	andeq	r0, r0, r0, asr ip
    2790:	00001400 	andeq	r1, r0, r0, lsl #8
    2794:	73000300 	movwvc	r0, #768	; 0x300
    2798:	00149f01 	andseq	r9, r4, r1, lsl #30
    279c:	00200000 	eoreq	r0, r0, r0
    27a0:	00010000 	andeq	r0, r1, r0
    27a4:	00000053 	andeq	r0, r0, r3, asr r0
    27a8:	00000000 	andeq	r0, r0, r0
	...

Disassembly of section .debug_aranges:

00000000 <.debug_aranges>:
   0:	0000001c 	andeq	r0, r0, ip, lsl r0
   4:	00000002 	andeq	r0, r0, r2
   8:	00040000 	andeq	r0, r4, r0
   c:	00000000 	andeq	r0, r0, r0
  10:	00008010 	andeq	r8, r0, r0, lsl r0
  14:	000006c0 	andeq	r0, r0, r0, asr #13
	...
  20:	0000001c 	andeq	r0, r0, ip, lsl r0
  24:	0d1e0002 	ldceq	0, cr0, [lr, #-8]
  28:	00040000 	andeq	r0, r4, r0
  2c:	00000000 	andeq	r0, r0, r0
  30:	000086d0 	ldrdeq	r8, [r0], -r0
  34:	00000058 	andeq	r0, r0, r8, asr r0
	...
  40:	0000001c 	andeq	r0, r0, ip, lsl r0
  44:	0eb30002 	cdpeq	0, 11, cr0, cr3, cr2, {0}
  48:	00040000 	andeq	r0, r4, r0
  4c:	00000000 	andeq	r0, r0, r0
  50:	00008728 	andeq	r8, r0, r8, lsr #14
  54:	0000003c 	andeq	r0, r0, ip, lsr r0
	...
  60:	0000001c 	andeq	r0, r0, ip, lsl r0
  64:	0fca0002 	svceq	0x00ca0002
  68:	00040000 	andeq	r0, r4, r0
  6c:	00000000 	andeq	r0, r0, r0
  70:	00008764 	andeq	r8, r0, r4, ror #14
  74:	00000034 	andeq	r0, r0, r4, lsr r0
	...
  80:	0000001c 	andeq	r0, r0, ip, lsl r0
  84:	10bc0002 	adcsne	r0, ip, r2
  88:	00040000 	andeq	r0, r4, r0
  8c:	00000000 	andeq	r0, r0, r0
  90:	00008798 	muleq	r0, r8, r7
  94:	00000524 	andeq	r0, r0, r4, lsr #10
	...
  a0:	0000001c 	andeq	r0, r0, ip, lsl r0
  a4:	17610002 	strbne	r0, [r1, -r2]!
  a8:	00040000 	andeq	r0, r4, r0
  ac:	00000000 	andeq	r0, r0, r0
  b0:	00008cbc 			; <UNDEFINED> instruction: 0x00008cbc
  b4:	00000020 	andeq	r0, r0, r0, lsr #32
	...
  c0:	0000001c 	andeq	r0, r0, ip, lsl r0
  c4:	181d0002 	ldmdane	sp, {r1}
  c8:	00040000 	andeq	r0, r4, r0
  cc:	00000000 	andeq	r0, r0, r0
  d0:	00008cdc 	ldrdeq	r8, [r0], -ip
  d4:	00000028 	andeq	r0, r0, r8, lsr #32
	...
  e0:	0000001c 	andeq	r0, r0, ip, lsl r0
  e4:	19200002 	stmdbne	r0!, {r1}
  e8:	00040000 	andeq	r0, r4, r0
  ec:	00000000 	andeq	r0, r0, r0
  f0:	00008d04 	andeq	r8, r0, r4, lsl #26
  f4:	000000b0 	strheq	r0, [r0], -r0	; <UNPREDICTABLE>
	...
 100:	0000001c 	andeq	r0, r0, ip, lsl r0
 104:	1c010002 	stcne	0, cr0, [r1], {2}
 108:	00040000 	andeq	r0, r4, r0
 10c:	00000000 	andeq	r0, r0, r0
 110:	00008db4 			; <UNDEFINED> instruction: 0x00008db4
 114:	00000074 	andeq	r0, r0, r4, ror r0
	...
 120:	0000001c 	andeq	r0, r0, ip, lsl r0
 124:	1db20002 	ldcne	0, cr0, [r2, #8]!
 128:	00040000 	andeq	r0, r4, r0
 12c:	00000000 	andeq	r0, r0, r0
 130:	00008e28 	andeq	r8, r0, r8, lsr #28
 134:	00000088 	andeq	r0, r0, r8, lsl #1
	...
 140:	0000001c 	andeq	r0, r0, ip, lsl r0
 144:	1f8e0002 	svcne	0x008e0002
 148:	00040000 	andeq	r0, r4, r0
 14c:	00000000 	andeq	r0, r0, r0
 150:	00008eb0 			; <UNDEFINED> instruction: 0x00008eb0
 154:	000005a0 	andeq	r0, r0, r0, lsr #11
	...
 160:	0000001c 	andeq	r0, r0, ip, lsl r0
 164:	28140002 	ldmdacs	r4, {r1}
 168:	00040000 	andeq	r0, r4, r0
 16c:	00000000 	andeq	r0, r0, r0
 170:	00009450 	andeq	r9, r0, r0, asr r4
 174:	00000668 	andeq	r0, r0, r8, ror #12
	...
 180:	0000001c 	andeq	r0, r0, ip, lsl r0
 184:	3a0a0002 	bcc	280194 <__bss_end__+0x27589c>
 188:	00040000 	andeq	r0, r4, r0
 18c:	00000000 	andeq	r0, r0, r0
 190:	00009ab8 			; <UNDEFINED> instruction: 0x00009ab8
 194:	00000154 	andeq	r0, r0, r4, asr r1
	...
 1a0:	0000001c 	andeq	r0, r0, ip, lsl r0
 1a4:	3e0d0002 	cdpcc	0, 0, cr0, cr13, cr2, {0}
 1a8:	00040000 	andeq	r0, r4, r0
 1ac:	00000000 	andeq	r0, r0, r0
 1b0:	00009c0c 	andeq	r9, r0, ip, lsl #24
 1b4:	000000ac 	andeq	r0, r0, ip, lsr #1
	...
 1c0:	0000001c 	andeq	r0, r0, ip, lsl r0
 1c4:	40ac0002 	adcmi	r0, ip, r2
 1c8:	00040000 	andeq	r0, r4, r0
 1cc:	00000000 	andeq	r0, r0, r0
 1d0:	00009e08 	andeq	r9, r0, r8, lsl #28
 1d4:	00000050 	andeq	r0, r0, r0, asr r0
	...
 1e0:	0000001c 	andeq	r0, r0, ip, lsl r0
 1e4:	42730002 	rsbsmi	r0, r3, #2
 1e8:	00040000 	andeq	r0, r4, r0
 1ec:	00000000 	andeq	r0, r0, r0
 1f0:	00009e58 	andeq	r9, r0, r8, asr lr
 1f4:	00000044 	andeq	r0, r0, r4, asr #32
	...
 200:	0000001c 	andeq	r0, r0, ip, lsl r0
 204:	43b50002 			; <UNDEFINED> instruction: 0x43b50002
 208:	00040000 	andeq	r0, r4, r0
 20c:	00000000 	andeq	r0, r0, r0
 210:	00009e9c 	muleq	r0, ip, lr
 214:	00000044 	andeq	r0, r0, r4, asr #32
	...
 220:	0000001c 	andeq	r0, r0, ip, lsl r0
 224:	44f70002 	ldrbtmi	r0, [r7], #2
 228:	00040000 	andeq	r0, r4, r0
 22c:	00000000 	andeq	r0, r0, r0
 230:	00009ee0 	andeq	r9, r0, r0, ror #29
 234:	00000044 	andeq	r0, r0, r4, asr #32
	...
 240:	0000001c 	andeq	r0, r0, ip, lsl r0
 244:	46390002 	ldrtmi	r0, [r9], -r2
 248:	00040000 	andeq	r0, r4, r0
 24c:	00000000 	andeq	r0, r0, r0
 250:	00009f24 	andeq	r9, r0, r4, lsr #30
 254:	00000044 	andeq	r0, r0, r4, asr #32
	...
 260:	0000001c 	andeq	r0, r0, ip, lsl r0
 264:	477b0002 	ldrbmi	r0, [fp, -r2]!
 268:	00040000 	andeq	r0, r4, r0
 26c:	00000000 	andeq	r0, r0, r0
 270:	00009f68 	andeq	r9, r0, r8, ror #30
 274:	00000020 	andeq	r0, r0, r0, lsr #32
	...

Disassembly of section .debug_line:

00000000 <.debug_line>:
       0:	00000317 	andeq	r0, r0, r7, lsl r3
       4:	01ab0002 			; <UNDEFINED> instruction: 0x01ab0002
       8:	01020000 	mrseq	r0, (UNDEF: 2)
       c:	000d0efb 	strdeq	r0, [sp], -fp
      10:	01010101 	tsteq	r1, r1, lsl #2
      14:	01000000 	mrseq	r0, (UNDEF: 0)
      18:	2f010000 	svccs	0x00010000
      1c:	72657355 	rsbvc	r7, r5, #1409286145	; 0x54000001
      20:	72622f73 	rsbvc	r2, r2, #460	; 0x1cc
      24:	6a6e6169 	bvs	1b985d0 <__bss_end__+0x1b8dcd8>
      28:	442f6e75 	strtmi	r6, [pc], #-3701	; 30 <_start-0x7fd0>
      2c:	746b7365 	strbtvc	r7, [fp], #-869	; 0x365
      30:	732f706f 	teqvc	pc, #111	; 0x6f
      34:	6f6f6863 	svcvs	0x006f6863
      38:	69572f6c 	ldmdbvs	r7, {r2, r3, r5, r6, r8, r9, sl, fp, sp}^
      3c:	7265746e 	rsbvc	r7, r5, #1845493760	; 0x6e000000
      40:	30323931 	eorscc	r3, r2, r1, lsr r9
      44:	3153432f 	cmpcc	r3, pc, lsr #6
      48:	2f453034 	svccs	0x00453034
      4c:	34317363 	ldrtcc	r7, [r1], #-867	; 0x363
      50:	322d6530 	eorcc	r6, sp, #48, 10	; 0xc000000
      54:	6e697730 	mcrvs	7, 3, r7, cr9, cr0, {1}
      58:	62696c2f 	rsbvs	r6, r9, #12032	; 0x2f00
      5c:	632f6970 	teqvs	pc, #112, 18	; 0x1c0000
      60:	30343173 	eorscc	r3, r4, r3, ror r1
      64:	6e692d65 	cdpvs	13, 6, cr2, cr9, cr5, {3}
      68:	72726574 	rsbsvc	r6, r2, #116, 10	; 0x1d000000
      6c:	00747075 	rsbseq	r7, r4, r5, ror r0
      70:	6573552f 	ldrbvs	r5, [r3, #-1327]!	; 0x52f
      74:	622f7372 	eorvs	r7, pc, #-939524095	; 0xc8000001
      78:	6e616972 	mcrvs	9, 3, r6, cr1, cr2, {3}
      7c:	2f6e756a 	svccs	0x006e756a
      80:	6b736544 	blvs	1cd9598 <__bss_end__+0x1cceca0>
      84:	2f706f74 	svccs	0x00706f74
      88:	6f686373 	svcvs	0x00686373
      8c:	572f6c6f 	strpl	r6, [pc, -pc, ror #24]!
      90:	65746e69 	ldrbvs	r6, [r4, #-3689]!	; 0xe69
      94:	32393172 	eorscc	r3, r9, #-2147483620	; 0x8000001c
      98:	53432f30 	movtpl	r2, #16176	; 0x3f30
      9c:	45303431 	ldrmi	r3, [r0, #-1073]!	; 0x431
      a0:	3173632f 	cmncc	r3, pc, lsr #6
      a4:	2d653034 	stclcs	0, cr3, [r5, #-208]!	; 0xffffff30
      a8:	69773032 	ldmdbvs	r7!, {r1, r4, r5, ip, sp}^
      ac:	696c2f6e 	stmdbvs	ip!, {r1, r2, r3, r5, r6, r8, r9, sl, fp, sp}^
      b0:	00697062 	rsbeq	r7, r9, r2, rrx
      b4:	6573552f 	ldrbvs	r5, [r3, #-1327]!	; 0x52f
      b8:	622f7372 	eorvs	r7, pc, #-939524095	; 0xc8000001
      bc:	6e616972 	mcrvs	9, 3, r6, cr1, cr2, {3}
      c0:	2f6e756a 	svccs	0x006e756a
      c4:	6b736544 	blvs	1cd95dc <__bss_end__+0x1ccece4>
      c8:	2f706f74 	svccs	0x00706f74
      cc:	6f686373 	svcvs	0x00686373
      d0:	572f6c6f 	strpl	r6, [pc, -pc, ror #24]!
      d4:	65746e69 	ldrbvs	r6, [r4, #-3689]!	; 0xe69
      d8:	32393172 	eorscc	r3, r9, #-2147483620	; 0x8000001c
      dc:	53432f30 	movtpl	r2, #16176	; 0x3f30
      e0:	45303431 	ldrmi	r3, [r0, #-1073]!	; 0x431
      e4:	3173632f 	cmncc	r3, pc, lsr #6
      e8:	2d653034 	stclcs	0, cr3, [r5, #-208]!	; 0xffffff30
      ec:	69773032 	ldmdbvs	r7!, {r1, r4, r5, ip, sp}^
      f0:	696c2f6e 	stmdbvs	ip!, {r1, r2, r3, r5, r6, r8, r9, sl, fp, sp}^
      f4:	2f697062 	svccs	0x00697062
      f8:	34317363 	ldrtcc	r7, [r1], #-867	; 0x363
      fc:	732d6530 	teqvc	sp, #48, 10	; 0xc000000
     100:	2f006372 	svccs	0x00006372
     104:	2f727375 	svccs	0x00727375
     108:	61636f6c 	cmnvs	r3, ip, ror #30
     10c:	65432f6c 	strbvs	r2, [r3, #-3948]	; 0xf6c
     110:	72616c6c 	rsbvc	r6, r1, #108, 24	; 0x6c00
     114:	6d72612f 	ldfvse	f6, [r2, #-188]!	; 0xffffff44
     118:	6e6f6e2d 	cdpvs	14, 6, cr6, cr15, cr13, {1}
     11c:	61652d65 	cmnvs	r5, r5, ror #26
     120:	342f6962 	strtcc	r6, [pc], #-2402	; 128 <_start-0x7ed8>
     124:	332e382e 	teqcc	lr, #3014656	; 0x2e0000
     128:	3173632d 	cmncc	r3, sp, lsr #6
     12c:	2f653037 	svccs	0x00653037
     130:	2f62696c 	svccs	0x0062696c
     134:	2f636367 	svccs	0x00636367
     138:	2d6d7261 	sfmcs	f7, 2, [sp, #-388]!	; 0xfffffe7c
     13c:	656e6f6e 	strbvs	r6, [lr, #-3950]!	; 0xf6e
     140:	6261652d 	rsbvs	r6, r1, #188743680	; 0xb400000
     144:	2e342f69 	cdpcs	15, 3, cr2, cr4, cr9, {3}
     148:	2f332e38 	svccs	0x00332e38
     14c:	6c636e69 	stclvs	14, cr6, [r3], #-420	; 0xfffffe5c
     150:	00656475 	rsbeq	r6, r5, r5, ror r4
     154:	6c2d3200 	sfmvs	f3, 4, [sp], #-0
     158:	6369676f 	cmnvs	r9, #29097984	; 0x1bc0000
     15c:	616e612d 	cmnvs	lr, sp, lsr #2
     160:	657a796c 	ldrbvs	r7, [sl, #-2412]!	; 0x96c
     164:	00632e72 	rsbeq	r2, r3, r2, ror lr
     168:	72000000 	andvc	r0, r0, #0
     16c:	612d6970 	teqvs	sp, r0, ror r9
     170:	69746d72 	ldmdbvs	r4!, {r1, r4, r5, r6, r8, sl, fp, sp, lr}^
     174:	2e72656d 	cdpcs	5, 7, cr6, cr2, cr13, {3}
     178:	00010068 	andeq	r0, r1, r8, rrx
     17c:	69707200 	ldmdbvs	r0!, {r9, ip, sp, lr}^
     180:	0200682e 	andeq	r6, r0, #3014656	; 0x2e0000
     184:	70720000 	rsbsvc	r0, r2, r0
     188:	6e692d69 	cdpvs	13, 6, cr2, cr9, cr9, {3}
     18c:	72726574 	rsbsvc	r6, r2, #116, 10	; 0x1d000000
     190:	73747075 	cmnvc	r4, #117	; 0x75
     194:	0100682e 	tsteq	r0, lr, lsr #16
     198:	70670000 	rsbvc	r0, r7, r0
     19c:	682e6f69 	stmdavs	lr!, {r0, r3, r5, r6, r8, r9, sl, fp, sp, lr}
     1a0:	00000300 	andeq	r0, r0, r0, lsl #6
     1a4:	69647473 	stmdbvs	r4!, {r0, r1, r4, r5, r6, sl, ip, sp, lr}^
     1a8:	672d746e 	strvs	r7, [sp, -lr, ror #8]!
     1ac:	682e6363 	stmdavs	lr!, {r0, r1, r5, r6, r8, r9, sp, lr}
     1b0:	00000400 	andeq	r0, r0, r0, lsl #8
     1b4:	02050000 	andeq	r0, r5, #0
     1b8:	00008010 	andeq	r8, r0, r0, lsl r0
     1bc:	0100c003 	tsteq	r0, r3
     1c0:	0402002f 	streq	r0, [r2], #-47	; 0x2f
     1c4:	064a0601 	strbeq	r0, [sl], -r1, lsl #12
     1c8:	30672fd7 	ldrdcc	r2, [r7], #-247	; 0xffffff09	; <UNPREDICTABLE>
     1cc:	020032a1 	andeq	r3, r0, #268435466	; 0x1000000a
     1d0:	2e060104 	adfcss	f0, f6, f4
     1d4:	002f6906 	eoreq	r6, pc, r6, lsl #18
     1d8:	06010402 	streq	r0, [r1], -r2, lsl #8
     1dc:	0402002e 	streq	r0, [r2], #-46	; 0x2e
     1e0:	9f840601 	svcls	0x00840601
     1e4:	040200bb 	streq	r0, [r2], #-187	; 0xbb
     1e8:	062e0601 	strteq	r0, [lr], -r1, lsl #12
     1ec:	0200d783 	andeq	sp, r0, #34340864	; 0x20c0000
     1f0:	2e060104 	adfcss	f0, f6, f4
     1f4:	00d78306 	sbcseq	r8, r7, r6, lsl #6
     1f8:	06010402 	streq	r0, [r1], -r2, lsl #8
     1fc:	d783062e 	strle	r0, [r3, lr, lsr #12]
     200:	01040200 	mrseq	r0, R12_usr
     204:	83062e06 	movwhi	r2, #28166	; 0x6e06
     208:	040200d7 	streq	r0, [r2], #-215	; 0xd7
     20c:	062e0601 	strteq	r0, [lr], -r1, lsl #12
     210:	0200d783 	andeq	sp, r0, #34340864	; 0x20c0000
     214:	2e060104 	adfcss	f0, f6, f4
     218:	00d78306 	sbcseq	r8, r7, r6, lsl #6
     21c:	06010402 	streq	r0, [r1], -r2, lsl #8
     220:	bb83062e 	bllt	fe0c1ae0 <__bss_end__+0xfe0b71e8>
     224:	01040200 	mrseq	r0, R12_usr
     228:	03062e06 	movweq	r2, #28166	; 0x6e06
     22c:	9308820c 	movwls	r8, #33292	; 0x820c
     230:	7fba0330 	svcvc	0x00ba0330
     234:	00c9032e 	sbceq	r0, r9, lr, lsr #6
     238:	040200ba 	streq	r0, [r2], #-186	; 0xba
     23c:	062e0601 	strteq	r0, [lr], -r1, lsl #12
     240:	827fbd03 	rsbshi	fp, pc, #3, 26	; 0xc0
     244:	a34a7503 	movtge	r7, #42243	; 0xa503
     248:	01040200 	mrseq	r0, R12_usr
     24c:	8200cb03 	andhi	ip, r0, #3072	; 0xc00
     250:	9e7fbb03 	vaddls.f64	d27, d15, d3
     254:	a34a7503 	movtge	r7, #42243	; 0xa503
     258:	01040200 	mrseq	r0, R12_usr
     25c:	8200cd03 	andhi	ip, r0, #3, 26	; 0xc0
     260:	9e7fb903 	cdpls	9, 7, cr11, cr15, cr3, {0}
     264:	a34a7503 	movtge	r7, #42243	; 0xa503
     268:	01040200 	mrseq	r0, R12_usr
     26c:	8200cf03 	andhi	ip, r0, #3, 30
     270:	9e7fb703 	cdpls	7, 7, cr11, cr15, cr3, {0}
     274:	a34a7503 	movtge	r7, #42243	; 0xa503
     278:	01040200 	mrseq	r0, R12_usr
     27c:	8200d103 	andhi	sp, r0, #-1073741824	; 0xc0000000
     280:	9e7fb503 	cdpls	5, 7, cr11, cr15, cr3, {0}
     284:	a34a7503 	movtge	r7, #42243	; 0xa503
     288:	01040200 	mrseq	r0, R12_usr
     28c:	8200d303 	andhi	sp, r0, #201326592	; 0xc000000
     290:	9e7fb303 	cdpls	3, 7, cr11, cr15, cr3, {0}
     294:	a34a7503 	movtge	r7, #42243	; 0xa503
     298:	01040200 	mrseq	r0, R12_usr
     29c:	8200d503 	andhi	sp, r0, #12582912	; 0xc00000
     2a0:	9e7fb103 	explse	f3, f3
     2a4:	a34a7503 	movtge	r7, #42243	; 0xa503
     2a8:	01040200 	mrseq	r0, R12_usr
     2ac:	8200d703 	andhi	sp, r0, #786432	; 0xc0000
     2b0:	9e7faf03 	cdpls	15, 7, cr10, cr15, cr3, {0}
     2b4:	a34a7503 	movtge	r7, #42243	; 0xa503
     2b8:	01040200 	mrseq	r0, R12_usr
     2bc:	8200d903 	andhi	sp, r0, #49152	; 0xc000
     2c0:	9e7fa203 	cdpls	2, 7, cr10, cr15, cr3, {0}
     2c4:	8200e003 	andhi	lr, r0, #3
     2c8:	01040200 	mrseq	r0, R12_usr
     2cc:	83062e06 	movwhi	r2, #28166	; 0x6e06
     2d0:	9b039408 	blls	e52f8 <__bss_end__+0xdaa00>
     2d4:	e703667f 	smlsdx	r3, pc, r6, r6	; <UNPREDICTABLE>
     2d8:	004b9e00 	subeq	r9, fp, r0, lsl #28
     2dc:	06010402 	streq	r0, [r1], -r2, lsl #8
     2e0:	4b67062e 	blmi	19c1ba0 <__bss_end__+0x19b72a8>
     2e4:	03362f2f 	teqeq	r6, #47, 30	; 0xbc
     2e8:	672f2e76 			; <UNDEFINED> instruction: 0x672f2e76
     2ec:	a0bcbca0 	adcsge	fp, ip, r0, lsr #25
     2f0:	0402002f 	streq	r0, [r2], #-47	; 0x2f
     2f4:	2e750301 	cdpcs	3, 7, cr0, cr5, cr1, {0}
     2f8:	2f660e03 	svccs	0x00660e03
     2fc:	90080903 	andls	r0, r8, r3, lsl #18
     300:	9f2e0a03 	svcls	0x002e0a03
     304:	839f9f9f 	orrshi	r9, pc, #636	; 0x27c
     308:	326783a3 	rsbcc	r8, r7, #-1946157054	; 0x8c000002
     30c:	302f2fbe 	strhtcc	r2, [pc], -lr
     310:	2f4c4c4b 	svccs	0x004c4c4b
     314:	0202874c 	andeq	r8, r2, #76, 14	; 0x1300000
     318:	02010100 	andeq	r0, r1, #0, 2
     31c:	02000001 	andeq	r0, r0, #1
     320:	0000eb00 	andeq	lr, r0, r0, lsl #22
     324:	fb010200 	blx	40b2e <__bss_end__+0x36236>
     328:	01000d0e 	tsteq	r0, lr, lsl #26
     32c:	00010101 	andeq	r0, r1, r1, lsl #2
     330:	00010000 	andeq	r0, r1, r0
     334:	696c0100 	stmdbvs	ip!, {r8}^
     338:	2f006362 	svccs	0x00006362
     33c:	2f727375 	svccs	0x00727375
     340:	61636f6c 	cmnvs	r3, ip, ror #30
     344:	65432f6c 	strbvs	r2, [r3, #-3948]	; 0xf6c
     348:	72616c6c 	rsbvc	r6, r1, #108, 24	; 0x6c00
     34c:	6d72612f 	ldfvse	f6, [r2, #-188]!	; 0xffffff44
     350:	6e6f6e2d 	cdpvs	14, 6, cr6, cr15, cr13, {1}
     354:	61652d65 	cmnvs	r5, r5, ror #26
     358:	342f6962 	strtcc	r6, [pc], #-2402	; 360 <_start-0x7ca0>
     35c:	332e382e 	teqcc	lr, #3014656	; 0x2e0000
     360:	3173632d 	cmncc	r3, sp, lsr #6
     364:	2f653037 	svccs	0x00653037
     368:	2f62696c 	svccs	0x0062696c
     36c:	2f636367 	svccs	0x00636367
     370:	2d6d7261 	sfmcs	f7, 2, [sp, #-388]!	; 0xfffffe7c
     374:	656e6f6e 	strbvs	r6, [lr, #-3950]!	; 0xf6e
     378:	6261652d 	rsbvs	r6, r1, #188743680	; 0xb400000
     37c:	2e342f69 	cdpcs	15, 3, cr2, cr4, cr9, {3}
     380:	2f332e38 	svccs	0x00332e38
     384:	6c636e69 	stclvs	14, cr6, [r3], #-420	; 0xfffffe5c
     388:	00656475 	rsbeq	r6, r5, r5, ror r4
     38c:	6573552f 	ldrbvs	r5, [r3, #-1327]!	; 0x52f
     390:	622f7372 	eorvs	r7, pc, #-939524095	; 0xc8000001
     394:	6e616972 	mcrvs	9, 3, r6, cr1, cr2, {3}
     398:	2f6e756a 	svccs	0x006e756a
     39c:	6b736544 	blvs	1cd98b4 <__bss_end__+0x1ccefbc>
     3a0:	2f706f74 	svccs	0x00706f74
     3a4:	6f686373 	svcvs	0x00686373
     3a8:	572f6c6f 	strpl	r6, [pc, -pc, ror #24]!
     3ac:	65746e69 	ldrbvs	r6, [r4, #-3689]!	; 0xe69
     3b0:	32393172 	eorscc	r3, r9, #-2147483620	; 0x8000001c
     3b4:	53432f30 	movtpl	r2, #16176	; 0x3f30
     3b8:	45303431 	ldrmi	r3, [r0, #-1073]!	; 0x431
     3bc:	3173632f 	cmncc	r3, pc, lsr #6
     3c0:	2d653034 	stclcs	0, cr3, [r5, #-208]!	; 0xffffff30
     3c4:	69773032 	ldmdbvs	r7!, {r1, r4, r5, ip, sp}^
     3c8:	696c2f6e 	stmdbvs	ip!, {r1, r2, r3, r5, r6, r8, r9, sl, fp, sp}^
     3cc:	00697062 	rsbeq	r7, r9, r2, rrx
     3d0:	69727000 	ldmdbvs	r2!, {ip, sp, lr}^
     3d4:	2e6b746e 	cdpcs	4, 6, cr7, cr11, cr14, {3}
     3d8:	00010063 	andeq	r0, r1, r3, rrx
     3dc:	64747300 	ldrbtvs	r7, [r4], #-768	; 0x300
     3e0:	2e677261 	cdpcs	2, 6, cr7, cr7, cr1, {3}
     3e4:	00020068 	andeq	r0, r2, r8, rrx
     3e8:	75623c00 	strbvc	r3, [r2, #-3072]!	; 0xc00
     3ec:	2d746c69 	ldclcs	12, cr6, [r4, #-420]!	; 0xfffffe5c
     3f0:	003e6e69 	eorseq	r6, lr, r9, ror #28
     3f4:	72000000 	andvc	r0, r0, #0
     3f8:	682e6970 	stmdavs	lr!, {r4, r5, r6, r8, fp, sp, lr}
     3fc:	00000300 	andeq	r0, r0, r0, lsl #6
     400:	702d6176 	eorvc	r6, sp, r6, ror r1
     404:	746e6972 	strbtvc	r6, [lr], #-2418	; 0x972
     408:	00682e6b 	rsbeq	r2, r8, fp, ror #28
     40c:	00000001 	andeq	r0, r0, r1
     410:	d0020500 	andle	r0, r2, r0, lsl #10
     414:	17000086 	strne	r0, [r0, -r6, lsl #1]
     418:	89bf4b6b 	ldmibhi	pc!, {r0, r1, r3, r5, r6, r8, r9, fp, lr}	; <UNPREDICTABLE>
     41c:	01000e02 	tsteq	r0, r2, lsl #28
     420:	00008a01 	andeq	r8, r0, r1, lsl #20
     424:	72000200 	andvc	r0, r0, #0, 4
     428:	02000000 	andeq	r0, r0, #0
     42c:	0d0efb01 	vstreq	d15, [lr, #-4]
     430:	01010100 	mrseq	r0, (UNDEF: 17)
     434:	00000001 	andeq	r0, r0, r1
     438:	01000001 	tsteq	r0, r1
     43c:	6362696c 	cmnvs	r2, #108, 18	; 0x1b0000
     440:	73552f00 	cmpvc	r5, #0, 30
     444:	2f737265 	svccs	0x00737265
     448:	61697262 	cmnvs	r9, r2, ror #4
     44c:	6e756a6e 	vsubvs.f32	s13, s10, s29
     450:	7365442f 	cmnvc	r5, #788529152	; 0x2f000000
     454:	706f746b 	rsbvc	r7, pc, fp, ror #8
     458:	6863732f 	stmdavs	r3!, {r0, r1, r2, r3, r5, r8, r9, ip, sp, lr}^
     45c:	2f6c6f6f 	svccs	0x006c6f6f
     460:	746e6957 	strbtvc	r6, [lr], #-2391	; 0x957
     464:	39317265 	ldmdbcc	r1!, {r0, r2, r5, r6, r9, ip, sp, lr}
     468:	432f3032 	teqmi	pc, #50	; 0x32
     46c:	30343153 	eorscc	r3, r4, r3, asr r1
     470:	73632f45 	cmnvc	r3, #276	; 0x114
     474:	65303431 	ldrvs	r3, [r0, #-1073]!	; 0x431
     478:	7730322d 	ldrvc	r3, [r0, -sp, lsr #4]!
     47c:	6c2f6e69 	stcvs	14, cr6, [pc], #-420	; 2e0 <_start-0x7d20>
     480:	69706269 	ldmdbvs	r0!, {r0, r3, r5, r6, r9, sp, lr}^
     484:	75700000 	ldrbvc	r0, [r0, #-0]!
     488:	61686374 	smcvs	34356	; 0x8634
     48c:	00632e72 	rsbeq	r2, r3, r2, ror lr
     490:	72000001 	andvc	r0, r0, #1
     494:	682e6970 	stmdavs	lr!, {r4, r5, r6, r8, fp, sp, lr}
     498:	00000200 	andeq	r0, r0, r0, lsl #4
     49c:	02050000 	andeq	r0, r5, #0
     4a0:	00008728 	andeq	r8, r0, r8, lsr #14
     4a4:	136b4a14 	cmnne	fp, #20, 20	; 0x14000
     4a8:	080213bc 	stmdaeq	r2, {r2, r3, r4, r5, r7, r8, r9, ip}
     4ac:	96010100 	strls	r0, [r1], -r0, lsl #2
     4b0:	02000000 	andeq	r0, r0, #0
     4b4:	00006f00 	andeq	r6, r0, r0, lsl #30
     4b8:	fb010200 	blx	40cc2 <__bss_end__+0x363ca>
     4bc:	01000d0e 	tsteq	r0, lr, lsl #26
     4c0:	00010101 	andeq	r0, r1, r1, lsl #2
     4c4:	00010000 	andeq	r0, r1, r0
     4c8:	696c0100 	stmdbvs	ip!, {r8}^
     4cc:	2f006362 	svccs	0x00006362
     4d0:	72657355 	rsbvc	r7, r5, #1409286145	; 0x54000001
     4d4:	72622f73 	rsbvc	r2, r2, #460	; 0x1cc
     4d8:	6a6e6169 	bvs	1b98a84 <__bss_end__+0x1b8e18c>
     4dc:	442f6e75 	strtmi	r6, [pc], #-3701	; 4e4 <_start-0x7b1c>
     4e0:	746b7365 	strbtvc	r7, [fp], #-869	; 0x365
     4e4:	732f706f 	teqvc	pc, #111	; 0x6f
     4e8:	6f6f6863 	svcvs	0x006f6863
     4ec:	69572f6c 	ldmdbvs	r7, {r2, r3, r5, r6, r8, r9, sl, fp, sp}^
     4f0:	7265746e 	rsbvc	r7, r5, #1845493760	; 0x6e000000
     4f4:	30323931 	eorscc	r3, r2, r1, lsr r9
     4f8:	3153432f 	cmpcc	r3, pc, lsr #6
     4fc:	2f453034 	svccs	0x00453034
     500:	34317363 	ldrtcc	r7, [r1], #-867	; 0x363
     504:	322d6530 	eorcc	r6, sp, #48, 10	; 0xc000000
     508:	6e697730 	mcrvs	7, 3, r7, cr9, cr0, {1}
     50c:	62696c2f 	rsbvs	r6, r9, #12032	; 0x2f00
     510:	00006970 	andeq	r6, r0, r0, ror r9
     514:	6b747570 	blvs	1d1dadc <__bss_end__+0x1d131e4>
     518:	0100632e 	tsteq	r0, lr, lsr #6
     51c:	70720000 	rsbsvc	r0, r2, r0
     520:	00682e69 	rsbeq	r2, r8, r9, ror #28
     524:	00000002 	andeq	r0, r0, r2
     528:	64020500 	strvs	r0, [r2], #-1280	; 0x500
     52c:	15000087 	strne	r0, [r0, #-135]	; 0x87
     530:	02002d4c 	andeq	r2, r0, #76, 26	; 0x1300
     534:	002f0204 	eoreq	r0, pc, r4, lsl #4
     538:	49020402 	stmdbmi	r2, {r1, sl}
     53c:	01040200 	mrseq	r0, R12_usr
     540:	6b062e06 	blvs	18bd60 <__bss_end__+0x181468>
     544:	01000602 	tsteq	r0, r2, lsl #12
     548:	0001e201 	andeq	lr, r1, r1, lsl #4
     54c:	df000200 	svcle	0x00000200
     550:	02000000 	andeq	r0, r0, #0
     554:	0d0efb01 	vstreq	d15, [lr, #-4]
     558:	01010100 	mrseq	r0, (UNDEF: 17)
     55c:	00000001 	andeq	r0, r0, r1
     560:	01000001 	tsteq	r0, r1
     564:	6362696c 	cmnvs	r2, #108, 18	; 0x1b0000
     568:	73752f00 	cmnvc	r5, #0, 30
     56c:	6f6c2f72 	svcvs	0x006c2f72
     570:	2f6c6163 	svccs	0x006c6163
     574:	6c6c6543 	cfstr64vs	mvdx6, [ip], #-268	; 0xfffffef4
     578:	612f7261 	teqvs	pc, r1, ror #4
     57c:	6e2d6d72 	mcrvs	13, 1, r6, cr13, cr2, {3}
     580:	2d656e6f 	stclcs	14, cr6, [r5, #-444]!	; 0xfffffe44
     584:	69626165 	stmdbvs	r2!, {r0, r2, r5, r6, r8, sp, lr}^
     588:	382e342f 	stmdacc	lr!, {r0, r1, r2, r3, r5, sl, ip, sp}
     58c:	632d332e 	teqvs	sp, #-1207959552	; 0xb8000000
     590:	30373173 	eorscc	r3, r7, r3, ror r1
     594:	696c2f65 	stmdbvs	ip!, {r0, r2, r5, r6, r8, r9, sl, fp, sp}^
     598:	63672f62 	cmnvs	r7, #392	; 0x188
     59c:	72612f63 	rsbvc	r2, r1, #396	; 0x18c
     5a0:	6f6e2d6d 	svcvs	0x006e2d6d
     5a4:	652d656e 	strvs	r6, [sp, #-1390]!	; 0x56e
     5a8:	2f696261 	svccs	0x00696261
     5ac:	2e382e34 	mrccs	14, 1, r2, cr8, cr4, {1}
     5b0:	6e692f33 	mcrvs	15, 3, r2, cr9, cr3, {1}
     5b4:	64756c63 	ldrbtvs	r6, [r5], #-3171	; 0xc63
     5b8:	552f0065 	strpl	r0, [pc, #-101]!	; 55b <_start-0x7aa5>
     5bc:	73726573 	cmnvc	r2, #482344960	; 0x1cc00000
     5c0:	6972622f 	ldmdbvs	r2!, {r0, r1, r2, r3, r5, r9, sp, lr}^
     5c4:	756a6e61 	strbvc	r6, [sl, #-3681]!	; 0xe61
     5c8:	65442f6e 	strbvs	r2, [r4, #-3950]	; 0xf6e
     5cc:	6f746b73 	svcvs	0x00746b73
     5d0:	63732f70 	cmnvs	r3, #112, 30	; 0x1c0
     5d4:	6c6f6f68 	stclvs	15, cr6, [pc], #-416	; 43c <_start-0x7bc4>
     5d8:	6e69572f 	cdpvs	7, 6, cr5, cr9, cr15, {1}
     5dc:	31726574 	cmncc	r2, r4, ror r5
     5e0:	2f303239 	svccs	0x00303239
     5e4:	34315343 	ldrtcc	r5, [r1], #-835	; 0x343
     5e8:	632f4530 	teqvs	pc, #48, 10	; 0xc000000
     5ec:	30343173 	eorscc	r3, r4, r3, ror r1
     5f0:	30322d65 	eorscc	r2, r2, r5, ror #26
     5f4:	2f6e6977 	svccs	0x006e6977
     5f8:	7062696c 	rsbvc	r6, r2, ip, ror #18
     5fc:	76000069 	strvc	r0, [r0], -r9, rrx
     600:	72702d61 	rsbsvc	r2, r0, #6208	; 0x1840
     604:	6b746e69 	blvs	1d1bfb0 <__bss_end__+0x1d116b8>
     608:	0100632e 	tsteq	r0, lr, lsr #6
     60c:	74730000 	ldrbtvc	r0, [r3], #-0
     610:	67726164 	ldrbvs	r6, [r2, -r4, ror #2]!
     614:	0200682e 	andeq	r6, r0, #3014656	; 0x2e0000
     618:	70720000 	rsbsvc	r0, r2, r0
     61c:	00682e69 	rsbeq	r2, r8, r9, ror #28
     620:	3c000003 	stccc	0, cr0, [r0], {3}
     624:	6c697562 	cfstr64vs	mvdx7, [r9], #-392	; 0xfffffe78
     628:	6e692d74 	mcrvs	13, 3, r2, cr9, cr4, {3}
     62c:	0000003e 	andeq	r0, r0, lr, lsr r0
     630:	05000000 	streq	r0, [r0, #-0]
     634:	00879802 	addeq	r9, r7, r2, lsl #16
     638:	01260300 	teqeq	r6, r0, lsl #6
     63c:	3113a501 	tstcc	r3, r1, lsl #10
     640:	0402002d 	streq	r0, [r2], #-45	; 0x2d
     644:	02002f02 	andeq	r2, r0, #2, 30
     648:	002d0204 	eoreq	r0, sp, r4, lsl #4
     64c:	2f020402 	svccs	0x00020402
     650:	01040200 	mrseq	r0, R12_usr
     654:	304c4c2d 	subcc	r4, ip, sp, lsr #24
     658:	4f2f4b14 	svcmi	0x002f4b14
     65c:	02040200 	andeq	r0, r4, #0, 4
     660:	04020067 	streq	r0, [r2], #-103	; 0x67
     664:	4d4c6501 	cfstr64mi	mvdx6, [ip, #-4]
     668:	312fa030 	teqcc	pc, r0, lsr r0	; <UNPREDICTABLE>
     66c:	16260230 			; <UNDEFINED> instruction: 0x16260230
     670:	002c2d84 	eoreq	r2, ip, r4, lsl #27
     674:	30010402 	andcc	r0, r1, r2, lsl #8
     678:	01040200 	mrseq	r0, R12_usr
     67c:	00660633 	rsbeq	r0, r6, r3, lsr r6
     680:	2e010402 	cdpcs	4, 0, cr0, cr1, cr2, {0}
     684:	01040200 	mrseq	r0, R12_usr
     688:	67210806 	strvs	r0, [r1, -r6, lsl #16]!
     68c:	8273032f 	rsbshi	r0, r3, #-1140850688	; 0xbc000000
     690:	002e1303 	eoreq	r1, lr, r3, lsl #6
     694:	06010402 	streq	r0, [r1], -r2, lsl #8
     698:	0402002e 	streq	r0, [r2], #-46	; 0x2e
     69c:	6a9f0601 	bvs	fe7c1ea8 <__bss_end__+0xfe7b75b0>
     6a0:	2e67034b 	cdpcs	3, 6, cr0, cr7, cr11, {2}
     6a4:	002e2103 	eoreq	r2, lr, r3, lsl #2
     6a8:	06010402 	streq	r0, [r1], -r2, lsl #8
     6ac:	0402002e 	streq	r0, [r2], #-46	; 0x2e
     6b0:	009f0601 	addseq	r0, pc, r1, lsl #12
     6b4:	6a010402 	bvs	416c4 <__bss_end__+0x36dcc>
     6b8:	03f32308 	mvnseq	r2, #8, 6	; 0x20000000
     6bc:	3c087fa6 	stccc	15, cr7, [r8], {166}	; 0xa6
     6c0:	0402004b 	streq	r0, [r2], #-75	; 0x4b
     6c4:	064a0601 	strbeq	r0, [sl], -r1, lsl #12
     6c8:	2f4b2108 	svccs	0x004b2108
     6cc:	00d9034b 	sbcseq	r0, r9, fp, asr #6
     6d0:	484c83f2 	stmdami	ip, {r1, r4, r5, r6, r7, r8, r9, pc}^
     6d4:	032e0e03 	teqeq	lr, #3, 28	; 0x30
     6d8:	2f2f2e75 	svccs	0x002f2e75
     6dc:	2d2f4b84 	vstmdbcs	pc!, {d4-d5}
     6e0:	2f30314d 	svccs	0x0030314d
     6e4:	04020083 	streq	r0, [r2], #-131	; 0x83
     6e8:	00a22c01 	adceq	r2, r2, r1, lsl #24
     6ec:	06010402 	streq	r0, [r1], -r2, lsl #8
     6f0:	2208064a 	andcs	r0, r8, #77594624	; 0x4a00000
     6f4:	03163602 	tsteq	r6, #2097152	; 0x200000
     6f8:	2108d60e 	tstcs	r8, lr, lsl #12
     6fc:	f331f330 	vcge.u<illegal width 64>	d15, d1, d16
     700:	4b30f330 	blmi	c3d3c8 <__bss_end__+0xc32ad0>
     704:	0830f330 	ldmdaeq	r0!, {r4, r5, r8, r9, ip, sp, lr, pc}
     708:	002f3123 	eoreq	r3, pc, r3, lsr #2
     70c:	65010402 	strvs	r0, [r1, #-1026]	; 0x402
     710:	02040200 	andeq	r0, r4, #0, 4
     714:	02004a06 	andeq	r4, r0, #24576	; 0x6000
     718:	03060104 	movweq	r0, #24836	; 0x6104
     71c:	02006642 	andeq	r6, r0, #69206016	; 0x4200000
     720:	66060204 	strvs	r0, [r6], -r4, lsl #4
     724:	00c20306 	sbceq	r0, r2, r6, lsl #6
     728:	1202684a 	andne	r6, r2, #4849664	; 0x4a0000
     72c:	43010100 	movwmi	r0, #4352	; 0x1100
     730:	02000000 	andeq	r0, r0, #0
     734:	00002900 	andeq	r2, r0, r0, lsl #18
     738:	fb010200 	blx	40f42 <__bss_end__+0x3664a>
     73c:	01000d0e 	tsteq	r0, lr, lsl #26
     740:	00010101 	andeq	r0, r1, r1, lsl #2
     744:	00010000 	andeq	r0, r1, r0
     748:	73630100 	cmnvc	r3, #0, 2
     74c:	65303431 	ldrvs	r3, [r0, #-1073]!	; 0x431
     750:	6372732d 	cmnvs	r2, #-1275068416	; 0xb4000000
     754:	61630000 	cmnvs	r3, r0
     758:	2e656863 	cdpcs	8, 6, cr6, cr5, cr3, {3}
     75c:	00010063 	andeq	r0, r1, r3, rrx
     760:	05000000 	streq	r0, [r0, #-0]
     764:	008cbc02 	addeq	fp, ip, r2, lsl #24
     768:	30141400 	andscc	r1, r4, r0, lsl #8
     76c:	31144e2f 	tstcc	r4, pc, lsr #28
     770:	0004022f 	andeq	r0, r4, pc, lsr #4
     774:	00930101 	addseq	r0, r3, r1, lsl #2
     778:	00020000 	andeq	r0, r2, r0
     77c:	0000007d 	andeq	r0, r0, sp, ror r0
     780:	0efb0102 	cdpeq	1, 15, cr0, cr11, cr2, {0}
     784:	0101000d 	tsteq	r1, sp
     788:	00000101 	andeq	r0, r0, r1, lsl #2
     78c:	00000100 	andeq	r0, r0, r0, lsl #2
     790:	31736301 	cmncc	r3, r1, lsl #6
     794:	2d653034 	stclcs	0, cr3, [r5, #-208]!	; 0xffffff30
     798:	00637273 	rsbeq	r7, r3, r3, ror r2
     79c:	6573552f 	ldrbvs	r5, [r3, #-1327]!	; 0x52f
     7a0:	622f7372 	eorvs	r7, pc, #-939524095	; 0xc8000001
     7a4:	6e616972 	mcrvs	9, 3, r6, cr1, cr2, {3}
     7a8:	2f6e756a 	svccs	0x006e756a
     7ac:	6b736544 	blvs	1cd9cc4 <__bss_end__+0x1ccf3cc>
     7b0:	2f706f74 	svccs	0x00706f74
     7b4:	6f686373 	svcvs	0x00686373
     7b8:	572f6c6f 	strpl	r6, [pc, -pc, ror #24]!
     7bc:	65746e69 	ldrbvs	r6, [r4, #-3689]!	; 0xe69
     7c0:	32393172 	eorscc	r3, r9, #-2147483620	; 0x8000001c
     7c4:	53432f30 	movtpl	r2, #16176	; 0x3f30
     7c8:	45303431 	ldrmi	r3, [r0, #-1073]!	; 0x431
     7cc:	3173632f 	cmncc	r3, pc, lsr #6
     7d0:	2d653034 	stclcs	0, cr3, [r5, #-208]!	; 0xffffff30
     7d4:	69773032 	ldmdbvs	r7!, {r1, r4, r5, ip, sp}^
     7d8:	696c2f6e 	stmdbvs	ip!, {r1, r2, r3, r5, r6, r8, r9, sl, fp, sp}^
     7dc:	00697062 	rsbeq	r7, r9, r2, rrx
     7e0:	656c6300 	strbvs	r6, [ip, #-768]!	; 0x300
     7e4:	722d6e61 	eorvc	r6, sp, #1552	; 0x610
     7e8:	6f6f6265 	svcvs	0x006f6265
     7ec:	00632e74 	rsbeq	r2, r3, r4, ror lr
     7f0:	72000001 	andvc	r0, r0, #1
     7f4:	682e6970 	stmdavs	lr!, {r4, r5, r6, r8, fp, sp, lr}
     7f8:	00000200 	andeq	r0, r0, r0, lsl #4
     7fc:	02050000 	andeq	r0, r5, #0
     800:	00008cdc 	ldrdeq	r8, [r0], -ip
     804:	4b832f15 	blmi	fe0cc460 <__bss_end__+0xfe0c1b68>
     808:	01000602 	tsteq	r0, r2, lsl #12
     80c:	00012101 	andeq	r2, r1, r1, lsl #2
     810:	f8000200 			; <UNDEFINED> instruction: 0xf8000200
     814:	02000000 	andeq	r0, r0, #0
     818:	0d0efb01 	vstreq	d15, [lr, #-4]
     81c:	01010100 	mrseq	r0, (UNDEF: 17)
     820:	00000001 	andeq	r0, r0, r1
     824:	01000001 	tsteq	r0, r1
     828:	34317363 	ldrtcc	r7, [r1], #-867	; 0x363
     82c:	732d6530 	teqvc	sp, #48, 10	; 0xc000000
     830:	2f006372 	svccs	0x00006372
     834:	2f727375 	svccs	0x00727375
     838:	61636f6c 	cmnvs	r3, ip, ror #30
     83c:	65432f6c 	strbvs	r2, [r3, #-3948]	; 0xf6c
     840:	72616c6c 	rsbvc	r6, r1, #108, 24	; 0x6c00
     844:	6d72612f 	ldfvse	f6, [r2, #-188]!	; 0xffffff44
     848:	6e6f6e2d 	cdpvs	14, 6, cr6, cr15, cr13, {1}
     84c:	61652d65 	cmnvs	r5, r5, ror #26
     850:	342f6962 	strtcc	r6, [pc], #-2402	; 858 <_start-0x77a8>
     854:	332e382e 	teqcc	lr, #3014656	; 0x2e0000
     858:	3173632d 	cmncc	r3, sp, lsr #6
     85c:	2f653037 	svccs	0x00653037
     860:	2f62696c 	svccs	0x0062696c
     864:	2f636367 	svccs	0x00636367
     868:	2d6d7261 	sfmcs	f7, 2, [sp, #-388]!	; 0xfffffe7c
     86c:	656e6f6e 	strbvs	r6, [lr, #-3950]!	; 0xf6e
     870:	6261652d 	rsbvs	r6, r1, #188743680	; 0xb400000
     874:	2e342f69 	cdpcs	15, 3, cr2, cr4, cr9, {3}
     878:	2f332e38 	svccs	0x00332e38
     87c:	6c636e69 	stclvs	14, cr6, [r3], #-420	; 0xfffffe5c
     880:	00656475 	rsbeq	r6, r5, r5, ror r4
     884:	6573552f 	ldrbvs	r5, [r3, #-1327]!	; 0x52f
     888:	622f7372 	eorvs	r7, pc, #-939524095	; 0xc8000001
     88c:	6e616972 	mcrvs	9, 3, r6, cr1, cr2, {3}
     890:	2f6e756a 	svccs	0x006e756a
     894:	6b736544 	blvs	1cd9dac <__bss_end__+0x1ccf4b4>
     898:	2f706f74 	svccs	0x00706f74
     89c:	6f686373 	svcvs	0x00686373
     8a0:	572f6c6f 	strpl	r6, [pc, -pc, ror #24]!
     8a4:	65746e69 	ldrbvs	r6, [r4, #-3689]!	; 0xe69
     8a8:	32393172 	eorscc	r3, r9, #-2147483620	; 0x8000001c
     8ac:	53432f30 	movtpl	r2, #16176	; 0x3f30
     8b0:	45303431 	ldrmi	r3, [r0, #-1073]!	; 0x431
     8b4:	3173632f 	cmncc	r3, pc, lsr #6
     8b8:	2d653034 	stclcs	0, cr3, [r5, #-208]!	; 0xffffff30
     8bc:	69773032 	ldmdbvs	r7!, {r1, r4, r5, ip, sp}^
     8c0:	696c2f6e 	stmdbvs	ip!, {r1, r2, r3, r5, r6, r8, r9, sl, fp, sp}^
     8c4:	00697062 	rsbeq	r7, r9, r2, rrx
     8c8:	74736300 	ldrbtvc	r6, [r3], #-768	; 0x300
     8cc:	2e747261 	cdpcs	2, 7, cr7, cr4, cr1, {3}
     8d0:	00010063 	andeq	r0, r1, r3, rrx
     8d4:	64747300 	ldrbtvs	r7, [r4], #-768	; 0x300
     8d8:	2d746e69 	ldclcs	14, cr6, [r4, #-420]!	; 0xfffffe5c
     8dc:	2e636367 	cdpcs	3, 6, cr6, cr3, cr7, {3}
     8e0:	00020068 	andeq	r0, r2, r8, rrx
     8e4:	2d777300 	ldclcs	3, cr7, [r7, #-0]
     8e8:	74726175 	ldrbtvc	r6, [r2], #-373	; 0x175
     8ec:	0100682e 	tsteq	r0, lr, lsr #16
     8f0:	6f630000 	svcvs	0x00630000
     8f4:	6f72746e 	svcvs	0x0072746e
     8f8:	6c622d6c 	stclvs	13, cr2, [r2], #-432	; 0xfffffe50
     8fc:	2e6b636f 	cdpcs	3, 6, cr6, cr11, cr15, {3}
     900:	00010068 	andeq	r0, r1, r8, rrx
     904:	69707200 	ldmdbvs	r0!, {r9, ip, sp, lr}^
     908:	0300682e 	movweq	r6, #2094	; 0x82e
     90c:	00000000 	andeq	r0, r0, r0
     910:	8d040205 	sfmhi	f0, 4, [r4, #-20]	; 0xffffffec
     914:	4b170000 	blmi	5c091c <__bss_end__+0x5b6024>
     918:	31326868 	teqcc	r2, r8, ror #16
     91c:	002f2d2f 	eoreq	r2, pc, pc, lsr #26
     920:	49010402 	stmdbmi	r1, {r1, sl}
     924:	674b2f4f 	strbvs	r2, [fp, -pc, asr #30]
     928:	4e678367 	cdpmi	3, 6, cr8, cr7, cr7, {3}
     92c:	0010022f 	andseq	r0, r0, pc, lsr #4
     930:	00990101 	addseq	r0, r9, r1, lsl #2
     934:	00020000 	andeq	r0, r2, r0
     938:	00000077 	andeq	r0, r0, r7, ror r0
     93c:	0efb0102 	cdpeq	1, 15, cr0, cr11, cr2, {0}
     940:	0101000d 	tsteq	r1, sp
     944:	00000101 	andeq	r0, r0, r1, lsl #2
     948:	00000100 	andeq	r0, r0, r0, lsl #2
     94c:	31736301 	cmncc	r3, r1, lsl #6
     950:	2d653034 	stclcs	0, cr3, [r5, #-208]!	; 0xffffff30
     954:	00637273 	rsbeq	r7, r3, r3, ror r2
     958:	6573552f 	ldrbvs	r5, [r3, #-1327]!	; 0x52f
     95c:	622f7372 	eorvs	r7, pc, #-939524095	; 0xc8000001
     960:	6e616972 	mcrvs	9, 3, r6, cr1, cr2, {3}
     964:	2f6e756a 	svccs	0x006e756a
     968:	6b736544 	blvs	1cd9e80 <__bss_end__+0x1ccf588>
     96c:	2f706f74 	svccs	0x00706f74
     970:	6f686373 	svcvs	0x00686373
     974:	572f6c6f 	strpl	r6, [pc, -pc, ror #24]!
     978:	65746e69 	ldrbvs	r6, [r4, #-3689]!	; 0xe69
     97c:	32393172 	eorscc	r3, r9, #-2147483620	; 0x8000001c
     980:	53432f30 	movtpl	r2, #16176	; 0x3f30
     984:	45303431 	ldrmi	r3, [r0, #-1073]!	; 0x431
     988:	3173632f 	cmncc	r3, pc, lsr #6
     98c:	2d653034 	stclcs	0, cr3, [r5, #-208]!	; 0xffffff30
     990:	69773032 	ldmdbvs	r7!, {r1, r4, r5, ip, sp}^
     994:	696c2f6e 	stmdbvs	ip!, {r1, r2, r3, r5, r6, r8, r9, sl, fp, sp}^
     998:	00697062 	rsbeq	r7, r9, r2, rrx
     99c:	62657200 	rsbvs	r7, r5, #0, 4
     9a0:	2e746f6f 	cdpcs	15, 7, cr6, cr4, cr15, {3}
     9a4:	00010063 	andeq	r0, r1, r3, rrx
     9a8:	69707200 	ldmdbvs	r0!, {r9, ip, sp, lr}^
     9ac:	0200682e 	andeq	r6, r0, #3014656	; 0x2e0000
     9b0:	00000000 	andeq	r0, r0, r0
     9b4:	8db40205 	lfmhi	f0, 4, [r4, #20]!
     9b8:	0d030000 	stceq	0, cr0, [r3, #-0]
     9bc:	2f311401 	svccs	0x00311401
     9c0:	4b2f1585 	blmi	bc5fdc <__bss_end__+0xbbb6e4>
     9c4:	35672f4d 	strbcc	r2, [r7, #-3917]!	; 0xf4d
     9c8:	10026752 	andne	r6, r2, r2, asr r7
     9cc:	a3010100 	movwge	r0, #4352	; 0x1100
     9d0:	02000000 	andeq	r0, r0, #0
     9d4:	00007600 	andeq	r7, r0, r0, lsl #12
     9d8:	fb010200 	blx	411e2 <__bss_end__+0x368ea>
     9dc:	01000d0e 	tsteq	r0, lr, lsl #26
     9e0:	00010101 	andeq	r0, r1, r1, lsl #2
     9e4:	00010000 	andeq	r0, r1, r0
     9e8:	73630100 	cmnvc	r3, #0, 2
     9ec:	65303431 	ldrvs	r3, [r0, #-1073]!	; 0x431
     9f0:	6372732d 	cmnvs	r2, #-1275068416	; 0xb4000000
     9f4:	73552f00 	cmpvc	r5, #0, 30
     9f8:	2f737265 	svccs	0x00737265
     9fc:	61697262 	cmnvs	r9, r2, ror #4
     a00:	6e756a6e 	vsubvs.f32	s13, s10, s29
     a04:	7365442f 	cmnvc	r5, #788529152	; 0x2f000000
     a08:	706f746b 	rsbvc	r7, pc, fp, ror #8
     a0c:	6863732f 	stmdavs	r3!, {r0, r1, r2, r3, r5, r8, r9, ip, sp, lr}^
     a10:	2f6c6f6f 	svccs	0x006c6f6f
     a14:	746e6957 	strbtvc	r6, [lr], #-2391	; 0x957
     a18:	39317265 	ldmdbcc	r1!, {r0, r2, r5, r6, r9, ip, sp, lr}
     a1c:	432f3032 	teqmi	pc, #50	; 0x32
     a20:	30343153 	eorscc	r3, r4, r3, asr r1
     a24:	73632f45 	cmnvc	r3, #276	; 0x114
     a28:	65303431 	ldrvs	r3, [r0, #-1073]!	; 0x431
     a2c:	7730322d 	ldrvc	r3, [r0, -sp, lsr #4]!
     a30:	6c2f6e69 	stcvs	14, cr6, [pc], #-420	; 894 <_start-0x776c>
     a34:	69706269 	ldmdbvs	r0!, {r0, r3, r5, r6, r9, sp, lr}^
     a38:	69740000 	ldmdbvs	r4!, {}^	; <UNPREDICTABLE>
     a3c:	2e72656d 	cdpcs	5, 7, cr6, cr2, cr13, {3}
     a40:	00010063 	andeq	r0, r1, r3, rrx
     a44:	69707200 	ldmdbvs	r0!, {r9, ip, sp, lr}^
     a48:	0200682e 	andeq	r6, r0, #3014656	; 0x2e0000
     a4c:	00000000 	andeq	r0, r0, r0
     a50:	8e280205 	cdphi	2, 2, cr0, cr8, cr5, {0}
     a54:	13160000 	tstne	r6, #0
     a58:	02002d2f 	andeq	r2, r0, #3008	; 0xbc0
     a5c:	2e060104 	adfcss	f0, f6, f4
     a60:	2f316806 	svccs	0x00316806
     a64:	31324d4b 	teqcc	r2, fp, asr #26
     a68:	2f4c4b30 	svccs	0x004c4b30
     a6c:	842f2f6a 	strthi	r2, [pc], #-3946	; a74 <_start-0x758c>
     a70:	0008022f 	andeq	r0, r8, pc, lsr #4
     a74:	017f0101 	cmneq	pc, r1, lsl #2
     a78:	00020000 	andeq	r0, r2, r0
     a7c:	000000ca 	andeq	r0, r0, sl, asr #1
     a80:	0efb0102 	cdpeq	1, 15, cr0, cr11, cr2, {0}
     a84:	0101000d 	tsteq	r1, sp
     a88:	00000101 	andeq	r0, r0, r1, lsl #2
     a8c:	00000100 	andeq	r0, r0, r0, lsl #2
     a90:	2d796d01 	ldclcs	13, cr6, [r9, #-4]!
     a94:	00637273 	rsbeq	r7, r3, r3, ror r2
     a98:	6573552f 	ldrbvs	r5, [r3, #-1327]!	; 0x52f
     a9c:	622f7372 	eorvs	r7, pc, #-939524095	; 0xc8000001
     aa0:	6e616972 	mcrvs	9, 3, r6, cr1, cr2, {3}
     aa4:	2f6e756a 	svccs	0x006e756a
     aa8:	6b736544 	blvs	1cd9fc0 <__bss_end__+0x1ccf6c8>
     aac:	2f706f74 	svccs	0x00706f74
     ab0:	6f686373 	svcvs	0x00686373
     ab4:	572f6c6f 	strpl	r6, [pc, -pc, ror #24]!
     ab8:	65746e69 	ldrbvs	r6, [r4, #-3689]!	; 0xe69
     abc:	32393172 	eorscc	r3, r9, #-2147483620	; 0x8000001c
     ac0:	53432f30 	movtpl	r2, #16176	; 0x3f30
     ac4:	45303431 	ldrmi	r3, [r0, #-1073]!	; 0x431
     ac8:	3173632f 	cmncc	r3, pc, lsr #6
     acc:	2d653034 	stclcs	0, cr3, [r5, #-208]!	; 0xffffff30
     ad0:	69773032 	ldmdbvs	r7!, {r1, r4, r5, ip, sp}^
     ad4:	696c2f6e 	stmdbvs	ip!, {r1, r2, r3, r5, r6, r8, r9, sl, fp, sp}^
     ad8:	2f697062 	svccs	0x00697062
     adc:	34317363 	ldrtcc	r7, [r1], #-867	; 0x363
     ae0:	732d6530 	teqvc	sp, #48, 10	; 0xc000000
     ae4:	2f006372 	svccs	0x00006372
     ae8:	72657355 	rsbvc	r7, r5, #1409286145	; 0x54000001
     aec:	72622f73 	rsbvc	r2, r2, #460	; 0x1cc
     af0:	6a6e6169 	bvs	1b9909c <__bss_end__+0x1b8e7a4>
     af4:	442f6e75 	strtmi	r6, [pc], #-3701	; afc <_start-0x7504>
     af8:	746b7365 	strbtvc	r7, [fp], #-869	; 0x365
     afc:	732f706f 	teqvc	pc, #111	; 0x6f
     b00:	6f6f6863 	svcvs	0x006f6863
     b04:	69572f6c 	ldmdbvs	r7, {r2, r3, r5, r6, r8, r9, sl, fp, sp}^
     b08:	7265746e 	rsbvc	r7, r5, #1845493760	; 0x6e000000
     b0c:	30323931 	eorscc	r3, r2, r1, lsr r9
     b10:	3153432f 	cmpcc	r3, pc, lsr #6
     b14:	2f453034 	svccs	0x00453034
     b18:	34317363 	ldrtcc	r7, [r1], #-867	; 0x363
     b1c:	322d6530 	eorcc	r6, sp, #48, 10	; 0xc000000
     b20:	6e697730 	mcrvs	7, 3, r7, cr9, cr0, {1}
     b24:	62696c2f 	rsbvs	r6, r9, #12032	; 0x2f00
     b28:	00006970 	andeq	r6, r0, r0, ror r9
     b2c:	6f697067 	svcvs	0x00697067
     b30:	0100632e 	tsteq	r0, lr, lsr #6
     b34:	70670000 	rsbvc	r0, r7, r0
     b38:	682e6f69 	stmdavs	lr!, {r0, r3, r5, r6, r8, r9, sl, fp, sp, lr}
     b3c:	00000200 	andeq	r0, r0, r0, lsl #4
     b40:	2e697072 	mcrcs	0, 3, r7, cr9, cr2, {3}
     b44:	00030068 	andeq	r0, r3, r8, rrx
     b48:	05000000 	streq	r0, [r0, #-0]
     b4c:	008eb002 	addeq	fp, lr, r2
     b50:	013e0300 	teqeq	lr, r0, lsl #6
     b54:	0869504e 	stmdaeq	r9!, {r1, r2, r3, r6, ip, lr}^
     b58:	67676721 	strbvs	r6, [r7, -r1, lsr #14]!
     b5c:	32676767 	rsbcc	r6, r7, #27000832	; 0x19c0000
     b60:	dc22084b 	stcle	8, cr0, [r2], #-300	; 0xfffffed4
     b64:	4e135131 	mrcmi	1, 0, r5, cr3, cr1, {1}
     b68:	31be3050 			; <UNDEFINED> instruction: 0x31be3050
     b6c:	4f4d1350 	svcmi	0x004d1350
     b70:	504cc030 	subpl	ip, ip, r0, lsr r0
     b74:	67210869 	strvs	r0, [r1, -r9, ror #16]!
     b78:	67676767 	strbvs	r6, [r7, -r7, ror #14]!
     b7c:	084b3267 	stmdaeq	fp, {r0, r1, r2, r5, r6, r9, ip, sp}^
     b80:	504ca421 	subpl	sl, ip, r1, lsr #8
     b84:	0369842f 	cmneq	r9, #788529152	; 0x2f000000
     b88:	0c038275 	sfmeq	f0, 1, [r3], {117}	; 0x75
     b8c:	4e304d2e 	cdpmi	13, 3, cr4, cr0, cr14, {1}
     b90:	6a4d4c4b 	bvs	1353cc4 <__bss_end__+0x13493cc>
     b94:	2108696b 	tstcs	r8, fp, ror #18
     b98:	67676767 	strbvs	r6, [r7, -r7, ror #14]!
     b9c:	4b326767 	blmi	c9a940 <__bss_end__+0xc90048>
     ba0:	30c02208 	sbccc	r2, r0, r8, lsl #4
     ba4:	504e1351 	subpl	r1, lr, r1, asr r3
     ba8:	ba180330 	blt	601870 <__bss_end__+0x5f6f78>
     bac:	2f4c9f31 	svccs	0x004c9f31
     bb0:	2f4e4d52 	svccs	0x004e4d52
     bb4:	684b674b 	stmdavs	fp, {r0, r1, r3, r6, r8, r9, sl, sp, lr}^
     bb8:	2f4c6767 	svccs	0x004c6767
     bbc:	6e4b2f67 	cdpvs	15, 4, cr2, cr11, cr7, {3}
     bc0:	4b2f4e4c 	blmi	bd44f8 <__bss_end__+0xbc9c00>
     bc4:	67684b67 	strbvs	r4, [r8, -r7, ror #22]!
     bc8:	672f4c67 	strvs	r4, [pc, -r7, ror #24]!
     bcc:	4b6d4b2f 	blmi	1b53890 <__bss_end__+0x1b48f98>
     bd0:	674b2f4e 	strbvs	r2, [fp, -lr, asr #30]
     bd4:	01040200 	mrseq	r0, R12_usr
     bd8:	68066606 	stmdavs	r6, {r1, r2, r9, sl, sp, lr}
     bdc:	02002f9f 	andeq	r2, r0, #636	; 0x27c
     be0:	4a060104 	bmi	180ff8 <__bss_end__+0x176700>
     be4:	032f6806 	teqeq	pc, #393216	; 0x60000
     be8:	0e034a73 	mcreq	10, 0, r4, cr3, cr3, {3}
     bec:	4e4c4d2e 	cdpmi	13, 4, cr4, cr12, cr14, {1}
     bf0:	bcbc4b2f 	fldmiaxlt	ip!, {d4-d26}	;@ Deprecated
     bf4:	01000602 	tsteq	r0, r2, lsl #12
     bf8:	00034901 	andeq	r4, r3, r1, lsl #18
     bfc:	bd000200 	sfmlt	f0, 4, [r0, #-0]
     c00:	02000001 	andeq	r0, r0, #1
     c04:	0d0efb01 	vstreq	d15, [lr, #-4]
     c08:	01010100 	mrseq	r0, (UNDEF: 17)
     c0c:	00000001 	andeq	r0, r0, r1
     c10:	01000001 	tsteq	r0, r1
     c14:	732d796d 	teqvc	sp, #1785856	; 0x1b4000
     c18:	2f006372 	svccs	0x00006372
     c1c:	72657355 	rsbvc	r7, r5, #1409286145	; 0x54000001
     c20:	72622f73 	rsbvc	r2, r2, #460	; 0x1cc
     c24:	6a6e6169 	bvs	1b991d0 <__bss_end__+0x1b8e8d8>
     c28:	442f6e75 	strtmi	r6, [pc], #-3701	; c30 <_start-0x73d0>
     c2c:	746b7365 	strbtvc	r7, [fp], #-869	; 0x365
     c30:	732f706f 	teqvc	pc, #111	; 0x6f
     c34:	6f6f6863 	svcvs	0x006f6863
     c38:	69572f6c 	ldmdbvs	r7, {r2, r3, r5, r6, r8, r9, sl, fp, sp}^
     c3c:	7265746e 	rsbvc	r7, r5, #1845493760	; 0x6e000000
     c40:	30323931 	eorscc	r3, r2, r1, lsr r9
     c44:	3153432f 	cmpcc	r3, pc, lsr #6
     c48:	2f453034 	svccs	0x00453034
     c4c:	34317363 	ldrtcc	r7, [r1], #-867	; 0x363
     c50:	322d6530 	eorcc	r6, sp, #48, 10	; 0xc000000
     c54:	6e697730 	mcrvs	7, 3, r7, cr9, cr0, {1}
     c58:	62696c2f 	rsbvs	r6, r9, #12032	; 0x2f00
     c5c:	632f6970 	teqvs	pc, #112, 18	; 0x1c0000
     c60:	30343173 	eorscc	r3, r4, r3, ror r1
     c64:	72732d65 	rsbsvc	r2, r3, #6464	; 0x1940
     c68:	752f0063 	strvc	r0, [pc, #-99]!	; c0d <_start-0x73f3>
     c6c:	6c2f7273 	sfmvs	f7, 4, [pc], #-460	; aa8 <_start-0x7558>
     c70:	6c61636f 	stclvs	3, cr6, [r1], #-444	; 0xfffffe44
     c74:	6c65432f 	stclvs	3, cr4, [r5], #-188	; 0xffffff44
     c78:	2f72616c 	svccs	0x0072616c
     c7c:	2d6d7261 	sfmcs	f7, 2, [sp, #-388]!	; 0xfffffe7c
     c80:	656e6f6e 	strbvs	r6, [lr, #-3950]!	; 0xf6e
     c84:	6261652d 	rsbvs	r6, r1, #188743680	; 0xb400000
     c88:	2e342f69 	cdpcs	15, 3, cr2, cr4, cr9, {3}
     c8c:	2d332e38 	ldccs	14, cr2, [r3, #-224]!	; 0xffffff20
     c90:	37317363 	ldrcc	r7, [r1, -r3, ror #6]!
     c94:	6c2f6530 	cfstr32vs	mvfx6, [pc], #-192	; bdc <_start-0x7424>
     c98:	672f6269 	strvs	r6, [pc, -r9, ror #4]!
     c9c:	612f6363 	teqvs	pc, r3, ror #6
     ca0:	6e2d6d72 	mcrvs	13, 1, r6, cr13, cr2, {3}
     ca4:	2d656e6f 	stclcs	14, cr6, [r5, #-444]!	; 0xfffffe44
     ca8:	69626165 	stmdbvs	r2!, {r0, r2, r5, r6, r8, sp, lr}^
     cac:	382e342f 	stmdacc	lr!, {r0, r1, r2, r3, r5, sl, ip, sp}
     cb0:	692f332e 	stmdbvs	pc!, {r1, r2, r3, r5, r8, r9, ip, sp}	; <UNPREDICTABLE>
     cb4:	756c636e 	strbvc	r6, [ip, #-878]!	; 0x36e
     cb8:	2f006564 	svccs	0x00006564
     cbc:	72657355 	rsbvc	r7, r5, #1409286145	; 0x54000001
     cc0:	72622f73 	rsbvc	r2, r2, #460	; 0x1cc
     cc4:	6a6e6169 	bvs	1b99270 <__bss_end__+0x1b8e978>
     cc8:	442f6e75 	strtmi	r6, [pc], #-3701	; cd0 <_start-0x7330>
     ccc:	746b7365 	strbtvc	r7, [fp], #-869	; 0x365
     cd0:	732f706f 	teqvc	pc, #111	; 0x6f
     cd4:	6f6f6863 	svcvs	0x006f6863
     cd8:	69572f6c 	ldmdbvs	r7, {r2, r3, r5, r6, r8, r9, sl, fp, sp}^
     cdc:	7265746e 	rsbvc	r7, r5, #1845493760	; 0x6e000000
     ce0:	30323931 	eorscc	r3, r2, r1, lsr r9
     ce4:	3153432f 	cmpcc	r3, pc, lsr #6
     ce8:	2f453034 	svccs	0x00453034
     cec:	34317363 	ldrtcc	r7, [r1], #-867	; 0x363
     cf0:	322d6530 	eorcc	r6, sp, #48, 10	; 0xc000000
     cf4:	6e697730 	mcrvs	7, 3, r7, cr9, cr0, {1}
     cf8:	62696c2f 	rsbvs	r6, r9, #12032	; 0x2f00
     cfc:	2f006970 	svccs	0x00006970
     d00:	72657355 	rsbvc	r7, r5, #1409286145	; 0x54000001
     d04:	72622f73 	rsbvc	r2, r2, #460	; 0x1cc
     d08:	6a6e6169 	bvs	1b992b4 <__bss_end__+0x1b8e9bc>
     d0c:	442f6e75 	strtmi	r6, [pc], #-3701	; d14 <_start-0x72ec>
     d10:	746b7365 	strbtvc	r7, [fp], #-869	; 0x365
     d14:	732f706f 	teqvc	pc, #111	; 0x6f
     d18:	6f6f6863 	svcvs	0x006f6863
     d1c:	69572f6c 	ldmdbvs	r7, {r2, r3, r5, r6, r8, r9, sl, fp, sp}^
     d20:	7265746e 	rsbvc	r7, r5, #1845493760	; 0x6e000000
     d24:	30323931 	eorscc	r3, r2, r1, lsr r9
     d28:	3153432f 	cmpcc	r3, pc, lsr #6
     d2c:	2f453034 	svccs	0x00453034
     d30:	34317363 	ldrtcc	r7, [r1], #-867	; 0x363
     d34:	322d6530 	eorcc	r6, sp, #48, 10	; 0xc000000
     d38:	6e697730 	mcrvs	7, 3, r7, cr9, cr0, {1}
     d3c:	62696c2f 	rsbvs	r6, r9, #12032	; 0x2f00
     d40:	6c2f6970 	stcvs	9, cr6, [pc], #-448	; b88 <_start-0x7478>
     d44:	00636269 	rsbeq	r6, r3, r9, ror #4
     d48:	2d777300 	ldclcs	3, cr7, [r7, #-0]
     d4c:	74726175 	ldrbtvc	r6, [r2], #-373	; 0x175
     d50:	0100632e 	tsteq	r0, lr, lsr #6
     d54:	79630000 	stmdbvc	r3!, {}^	; <UNPREDICTABLE>
     d58:	2d656c63 	stclcs	12, cr6, [r5, #-396]!	; 0xfffffe74
     d5c:	6c697475 	cfstrdvs	mvd7, [r9], #-468	; 0xfffffe2c
     d60:	0200682e 	andeq	r6, r0, #3014656	; 0x2e0000
     d64:	74730000 	ldrbtvc	r0, [r3], #-0
     d68:	746e6964 	strbtvc	r6, [lr], #-2404	; 0x964
     d6c:	6363672d 	cmnvs	r3, #11796480	; 0xb40000
     d70:	0300682e 	movweq	r6, #2094	; 0x82e
     d74:	77730000 	ldrbvc	r0, [r3, -r0]!
     d78:	7261752d 	rsbvc	r7, r1, #188743680	; 0xb400000
     d7c:	00682e74 	rsbeq	r2, r8, r4, ror lr
     d80:	73000002 	movwvc	r0, #2
     d84:	72616474 	rsbvc	r6, r1, #116, 8	; 0x74000000
     d88:	00682e67 	rsbeq	r2, r8, r7, ror #28
     d8c:	67000003 	strvs	r0, [r0, -r3]
     d90:	2e6f6970 	mcrcs	9, 3, r6, cr15, cr0, {3}
     d94:	00020068 	andeq	r0, r2, r8, rrx
     d98:	69707200 	ldmdbvs	r0!, {r9, ip, sp, lr}^
     d9c:	0400682e 	streq	r6, [r0], #-2094	; 0x82e
     da0:	61760000 	cmnvs	r6, r0
     da4:	6972702d 	ldmdbvs	r2!, {r0, r2, r3, r5, ip, sp, lr}^
     da8:	2e6b746e 	cdpcs	4, 6, cr7, cr11, cr14, {3}
     dac:	00050068 	andeq	r0, r5, r8, rrx
     db0:	75623c00 	strbvc	r3, [r2, #-3072]!	; 0xc00
     db4:	2d746c69 	ldclcs	12, cr6, [r4, #-420]!	; 0xfffffe5c
     db8:	003e6e69 	eorseq	r6, lr, r9, ror #28
     dbc:	00000000 	andeq	r0, r0, r0
     dc0:	50020500 	andpl	r0, r2, r0, lsl #10
     dc4:	1a000094 	bne	101c <_start-0x6fe4>
     dc8:	04302f4c 	ldrteq	r2, [r0], #-3916	; 0xf4c
     dcc:	2e0b0302 	cdpcs	3, 0, cr0, cr11, cr2, {0}
     dd0:	04667303 	strbteq	r7, [r6], #-771	; 0x303
     dd4:	02048801 	andeq	r8, r4, #65536	; 0x10000
     dd8:	66730335 			; <UNDEFINED> instruction: 0x66730335
     ddc:	048a0104 	streq	r0, [sl], #260	; 0x104
     de0:	73033302 	movwvc	r3, #13058	; 0x3302
     de4:	03010466 	movweq	r0, #5222	; 0x1466
     de8:	0204820a 	andeq	r8, r4, #-1610612736	; 0xa0000000
     dec:	66730331 			; <UNDEFINED> instruction: 0x66730331
     df0:	0c030104 	stfeqs	f0, [r3], {4}
     df4:	2f020482 	svccs	0x00020482
     df8:	04667303 	strbteq	r7, [r6], #-771	; 0x303
     dfc:	820e0301 	andhi	r0, lr, #67108864	; 0x4000000
     e00:	032d0204 	teqeq	sp, #4, 4	; 0x40000000
     e04:	01046673 	tsteq	r4, r3, ror r6
     e08:	04821003 	streq	r1, [r2], #3
     e0c:	73032b02 	movwvc	r2, #15106	; 0x3b02
     e10:	03010466 	movweq	r0, #5222	; 0x1466
     e14:	02048212 	andeq	r8, r4, #536870913	; 0x20000001
     e18:	66730329 	ldrbtvs	r0, [r3], -r9, lsr #6
     e1c:	14030104 	strne	r0, [r3], #-260	; 0x104
     e20:	03020482 	movweq	r0, #9346	; 0x2482
     e24:	73032e79 	movwvc	r2, #15993	; 0x3e79
     e28:	03010466 	movweq	r0, #5222	; 0x1466
     e2c:	02048216 	andeq	r8, r4, #1610612737	; 0x60000001
     e30:	032e7703 	teqeq	lr, #786432	; 0xc0000
     e34:	01046673 	tsteq	r4, r3, ror r6
     e38:	03821803 	orreq	r1, r2, #196608	; 0x30000
     e3c:	4d4b2e10 	stclmi	14, cr2, [fp, #-64]	; 0xffffffc0
     e40:	4c2e7003 	stcmi	0, cr7, [lr], #-12
     e44:	03488384 	movteq	r8, #33668	; 0x8384
     e48:	314e2e0d 	cmpcc	lr, sp, lsl #28
     e4c:	03020433 	movweq	r0, #9267	; 0x2433
     e50:	01042e48 	tsteq	r4, r8, asr #28
     e54:	2f823a03 	svccs	0x00823a03
     e58:	45030204 	strmi	r0, [r3, #-516]	; 0x204
     e5c:	03010466 	movweq	r0, #5222	; 0x1466
     e60:	042f823d 	strteq	r8, [pc], #-573	; e68 <_start-0x7198>
     e64:	82420302 	subhi	r0, r2, #134217728	; 0x8000000
     e68:	c0030104 	andgt	r0, r3, r4, lsl #2
     e6c:	042f8200 	strteq	r8, [pc], #-512	; e74 <_start-0x718c>
     e70:	7fbf0302 	svcvc	0x00bf0302
     e74:	03010482 	movweq	r0, #5250	; 0x1482
     e78:	2f8200c3 	svccs	0x008200c3
     e7c:	bc030204 	sfmlt	f0, 4, [r3], {4}
     e80:	0104827f 	tsteq	r4, pc, ror r2
     e84:	8200c603 	andhi	ip, r0, #3145728	; 0x300000
     e88:	0302042f 	movweq	r0, #9263	; 0x242f
     e8c:	04827fb9 	streq	r7, [r2], #4025	; 0xfb9
     e90:	00c90301 	sbceq	r0, r9, r1, lsl #6
     e94:	02042f82 	andeq	r2, r4, #520	; 0x208
     e98:	827fb603 	rsbshi	fp, pc, #3145728	; 0x300000
     e9c:	cc030104 	stfgts	f0, [r3], {4}
     ea0:	042f8200 	strteq	r8, [pc], #-512	; ea8 <_start-0x7158>
     ea4:	7fb30302 	svcvc	0x00b30302
     ea8:	03010482 	movweq	r0, #5250	; 0x1482
     eac:	038200d0 	orreq	r0, r2, #208	; 0xd0
     eb0:	844c824c 	strbhi	r8, [ip], #-588	; 0x24c
     eb4:	36034883 	strcc	r4, [r3], -r3, lsl #17
     eb8:	54034e2e 	strpl	r4, [r3], #-3630	; 0xe2e
     ebc:	4a29034a 	bmi	a41bec <__bss_end__+0xa372f4>
     ec0:	00bb3432 	adcseq	r3, fp, r2, lsr r4
     ec4:	06010402 	streq	r0, [r1], -r2, lsl #8
     ec8:	2108064a 	tstcs	r8, sl, asr #12
     ecc:	2cbb4b4e 	vldmiacs	fp!, {d4-<overflow reg d42>}
     ed0:	01040200 	mrseq	r0, R12_usr
     ed4:	6d062e06 	stcvs	14, cr2, [r6, #-24]	; 0xffffffe8
     ed8:	00a0dc4c 	adceq	sp, r0, ip, asr #24
     edc:	06010402 	streq	r0, [r1], -r2, lsl #8
     ee0:	2108064a 	tstcs	r8, sl, asr #12
     ee4:	0402004d 	streq	r0, [r2], #-77	; 0x4d
     ee8:	02004b02 	andeq	r4, r0, #2048	; 0x800
     eec:	00810204 	addeq	r0, r1, r4, lsl #4
     ef0:	06010402 	streq	r0, [r1], -r2, lsl #8
     ef4:	4c4d062e 	mcrrmi	6, 2, r0, sp, cr14
     ef8:	4b4bd8dd 	blmi	12f7274 <__bss_end__+0x12ec97c>
     efc:	002f6a4b 	eoreq	r6, pc, fp, asr #20
     f00:	06010402 	streq	r0, [r1], -r2, lsl #8
     f04:	02008282 	andeq	r8, r0, #536870920	; 0x20000008
     f08:	009e0404 	addseq	r0, lr, r4, lsl #8
     f0c:	4a010402 	bmi	41f1c <__bss_end__+0x37624>
     f10:	88230806 	stmdahi	r3!, {r1, r2, fp}
     f14:	4b4b2ff5 	blmi	12ccef0 <__bss_end__+0x12c25f8>
     f18:	00674008 	rsbeq	r4, r7, r8
     f1c:	2f020402 	svccs	0x00020402
     f20:	02040200 	andeq	r0, r4, #0, 4
     f24:	04020049 	streq	r0, [r2], #-73	; 0x49
     f28:	062e0601 	strteq	r0, [lr], -r1, lsl #12
     f2c:	4b863468 	blmi	fe18e0d4 <__bss_end__+0xfe1837dc>
     f30:	040200a0 	streq	r0, [r2], #-160	; 0xa0
     f34:	06660601 	strbteq	r0, [r6], -r1, lsl #12
     f38:	08682108 	stmdaeq	r8!, {r3, r8, sp}^
     f3c:	4b674b3e 	blmi	19d3c3c <__bss_end__+0x19c9344>
     f40:	000a02d8 	ldrdeq	r0, [sl], -r8
     f44:	01010101 	tsteq	r1, r1, lsl #2
     f48:	00020000 	andeq	r0, r2, r0
     f4c:	000000ca 	andeq	r0, r0, sl, asr #1
     f50:	0efb0102 	cdpeq	1, 15, cr0, cr11, cr2, {0}
     f54:	0101000d 	tsteq	r1, sp
     f58:	00000101 	andeq	r0, r0, r1, lsl #2
     f5c:	00000100 	andeq	r0, r0, r0, lsl #2
     f60:	2d796d01 	ldclcs	13, cr6, [r9, #-4]!
     f64:	00637273 	rsbeq	r7, r3, r3, ror r2
     f68:	6573552f 	ldrbvs	r5, [r3, #-1327]!	; 0x52f
     f6c:	622f7372 	eorvs	r7, pc, #-939524095	; 0xc8000001
     f70:	6e616972 	mcrvs	9, 3, r6, cr1, cr2, {3}
     f74:	2f6e756a 	svccs	0x006e756a
     f78:	6b736544 	blvs	1cda490 <__bss_end__+0x1ccfb98>
     f7c:	2f706f74 	svccs	0x00706f74
     f80:	6f686373 	svcvs	0x00686373
     f84:	572f6c6f 	strpl	r6, [pc, -pc, ror #24]!
     f88:	65746e69 	ldrbvs	r6, [r4, #-3689]!	; 0xe69
     f8c:	32393172 	eorscc	r3, r9, #-2147483620	; 0x8000001c
     f90:	53432f30 	movtpl	r2, #16176	; 0x3f30
     f94:	45303431 	ldrmi	r3, [r0, #-1073]!	; 0x431
     f98:	3173632f 	cmncc	r3, pc, lsr #6
     f9c:	2d653034 	stclcs	0, cr3, [r5, #-208]!	; 0xffffff30
     fa0:	69773032 	ldmdbvs	r7!, {r1, r4, r5, ip, sp}^
     fa4:	696c2f6e 	stmdbvs	ip!, {r1, r2, r3, r5, r6, r8, r9, sl, fp, sp}^
     fa8:	2f697062 	svccs	0x00697062
     fac:	34317363 	ldrtcc	r7, [r1], #-867	; 0x363
     fb0:	732d6530 	teqvc	sp, #48, 10	; 0xc000000
     fb4:	2f006372 	svccs	0x00006372
     fb8:	72657355 	rsbvc	r7, r5, #1409286145	; 0x54000001
     fbc:	72622f73 	rsbvc	r2, r2, #460	; 0x1cc
     fc0:	6a6e6169 	bvs	1b9956c <__bss_end__+0x1b8ec74>
     fc4:	442f6e75 	strtmi	r6, [pc], #-3701	; fcc <_start-0x7034>
     fc8:	746b7365 	strbtvc	r7, [fp], #-869	; 0x365
     fcc:	732f706f 	teqvc	pc, #111	; 0x6f
     fd0:	6f6f6863 	svcvs	0x006f6863
     fd4:	69572f6c 	ldmdbvs	r7, {r2, r3, r5, r6, r8, r9, sl, fp, sp}^
     fd8:	7265746e 	rsbvc	r7, r5, #1845493760	; 0x6e000000
     fdc:	30323931 	eorscc	r3, r2, r1, lsr r9
     fe0:	3153432f 	cmpcc	r3, pc, lsr #6
     fe4:	2f453034 	svccs	0x00453034
     fe8:	34317363 	ldrtcc	r7, [r1], #-867	; 0x363
     fec:	322d6530 	eorcc	r6, sp, #48, 10	; 0xc000000
     ff0:	6e697730 	mcrvs	7, 3, r7, cr9, cr0, {1}
     ff4:	62696c2f 	rsbvs	r6, r9, #12032	; 0x2f00
     ff8:	00006970 	andeq	r6, r0, r0, ror r9
     ffc:	74726175 	ldrbtvc	r6, [r2], #-373	; 0x175
    1000:	0100632e 	tsteq	r0, lr, lsr #6
    1004:	70670000 	rsbvc	r0, r7, r0
    1008:	682e6f69 	stmdavs	lr!, {r0, r3, r5, r6, r8, r9, sl, fp, sp, lr}
    100c:	00000200 	andeq	r0, r0, r0, lsl #4
    1010:	2e697072 	mcrcs	0, 3, r7, cr9, cr2, {3}
    1014:	00030068 	andeq	r0, r3, r8, rrx
    1018:	05000000 	streq	r0, [r0, #-0]
    101c:	009ab802 	addseq	fp, sl, r2, lsl #16
    1020:	01360300 	teqeq	r6, r0, lsl #6
    1024:	6d673330 	stclvs	3, cr3, [r7, #-192]!	; 0xffffff40
    1028:	6730d830 			; <UNDEFINED> instruction: 0x6730d830
    102c:	67676767 	strbvs	r6, [r7, -r7, ror #14]!
    1030:	672f8668 	strvs	r8, [pc, -r8, ror #12]!
    1034:	6767306a 	strbvs	r3, [r7, -sl, rrx]!
    1038:	6a672f69 	bvs	19ccde4 <__bss_end__+0x19c24ec>
    103c:	2fc1674c 	svccs	0x00c1674c
    1040:	682f302f 	stmdavs	pc!, {r0, r1, r2, r3, r5, ip, sp}	; <UNPREDICTABLE>
    1044:	02023049 	andeq	r3, r2, #73	; 0x49
    1048:	c9010100 	stmdbgt	r1, {r8}
    104c:	02000000 	andeq	r0, r0, #0
    1050:	00009700 	andeq	r9, r0, r0, lsl #14
    1054:	fb010200 	blx	4185e <__bss_end__+0x36f66>
    1058:	01000d0e 	tsteq	r0, lr, lsl #26
    105c:	00010101 	andeq	r0, r1, r1, lsl #2
    1060:	00010000 	andeq	r0, r1, r0
    1064:	73630100 	cmnvc	r3, #0, 2
    1068:	65303431 	ldrvs	r3, [r0, #-1073]!	; 0x431
    106c:	746e692d 	strbtvc	r6, [lr], #-2349	; 0x92d
    1070:	75727265 	ldrbvc	r7, [r2, #-613]!	; 0x265
    1074:	2f007470 	svccs	0x00007470
    1078:	72657355 	rsbvc	r7, r5, #1409286145	; 0x54000001
    107c:	72622f73 	rsbvc	r2, r2, #460	; 0x1cc
    1080:	6a6e6169 	bvs	1b9962c <__bss_end__+0x1b8ed34>
    1084:	442f6e75 	strtmi	r6, [pc], #-3701	; 108c <_start-0x6f74>
    1088:	746b7365 	strbtvc	r7, [fp], #-869	; 0x365
    108c:	732f706f 	teqvc	pc, #111	; 0x6f
    1090:	6f6f6863 	svcvs	0x006f6863
    1094:	69572f6c 	ldmdbvs	r7, {r2, r3, r5, r6, r8, r9, sl, fp, sp}^
    1098:	7265746e 	rsbvc	r7, r5, #1845493760	; 0x6e000000
    109c:	30323931 	eorscc	r3, r2, r1, lsr r9
    10a0:	3153432f 	cmpcc	r3, pc, lsr #6
    10a4:	2f453034 	svccs	0x00453034
    10a8:	34317363 	ldrtcc	r7, [r1], #-867	; 0x363
    10ac:	322d6530 	eorcc	r6, sp, #48, 10	; 0xc000000
    10b0:	6e697730 	mcrvs	7, 3, r7, cr9, cr0, {1}
    10b4:	62696c2f 	rsbvs	r6, r9, #12032	; 0x2f00
    10b8:	00006970 	andeq	r6, r0, r0, ror r9
    10bc:	65746e69 	ldrbvs	r6, [r4, #-3689]!	; 0xe69
    10c0:	70757272 	rsbsvc	r7, r5, r2, ror r2
    10c4:	632d7374 	teqvs	sp, #116, 6	; 0xd0000001
    10c8:	0100632e 	tsteq	r0, lr, lsr #6
    10cc:	70720000 	rsbsvc	r0, r2, r0
    10d0:	00682e69 	rsbeq	r2, r8, r9, ror #28
    10d4:	72000002 	andvc	r0, r0, #2
    10d8:	692d6970 	pushvs	{r4, r5, r6, r8, fp, sp, lr}
    10dc:	7265746e 	rsbvc	r7, r5, #1845493760	; 0x6e000000
    10e0:	74707572 	ldrbtvc	r7, [r0], #-1394	; 0x572
    10e4:	00682e73 	rsbeq	r2, r8, r3, ror lr
    10e8:	00000001 	andeq	r0, r0, r1
    10ec:	0c020500 	cfstr32eq	mvfx0, [r2], {-0}
    10f0:	0300009c 	movweq	r0, #156	; 0x9c
    10f4:	6731011a 			; <UNDEFINED> instruction: 0x6731011a
    10f8:	2e090367 	cdpcs	3, 0, cr0, cr9, cr7, {3}
    10fc:	002d2f83 	eoreq	r2, sp, r3, lsl #31
    1100:	2f020402 	svccs	0x00020402
    1104:	02040200 	andeq	r0, r4, #0, 4
    1108:	04020065 	streq	r0, [r2], #-101	; 0x65
    110c:	062e0601 	strteq	r0, [lr], -r1, lsl #12
    1110:	0267a04c 	rsbeq	sl, r7, #76	; 0x4c
    1114:	0101001c 	tsteq	r1, ip, lsl r0
    1118:	00000128 	andeq	r0, r0, r8, lsr #2
    111c:	010d0002 	tsteq	sp, r2
    1120:	01020000 	mrseq	r0, (UNDEF: 2)
    1124:	000d0efb 	strdeq	r0, [sp], -fp
    1128:	01010101 	tsteq	r1, r1, lsl #2
    112c:	01000000 	mrseq	r0, (UNDEF: 0)
    1130:	63010000 	movwvs	r0, #4096	; 0x1000
    1134:	30343173 	eorscc	r3, r4, r3, ror r1
    1138:	72732d65 	rsbsvc	r2, r3, #6464	; 0x1940
    113c:	752f0063 	strvc	r0, [pc, #-99]!	; 10e1 <_start-0x6f1f>
    1140:	6c2f7273 	sfmvs	f7, 4, [pc], #-460	; f7c <_start-0x7084>
    1144:	6c61636f 	stclvs	3, cr6, [r1], #-444	; 0xfffffe44
    1148:	6c65432f 	stclvs	3, cr4, [r5], #-188	; 0xffffff44
    114c:	2f72616c 	svccs	0x0072616c
    1150:	2d6d7261 	sfmcs	f7, 2, [sp, #-388]!	; 0xfffffe7c
    1154:	656e6f6e 	strbvs	r6, [lr, #-3950]!	; 0xf6e
    1158:	6261652d 	rsbvs	r6, r1, #188743680	; 0xb400000
    115c:	2e342f69 	cdpcs	15, 3, cr2, cr4, cr9, {3}
    1160:	2d332e38 	ldccs	14, cr2, [r3, #-224]!	; 0xffffff20
    1164:	37317363 	ldrcc	r7, [r1, -r3, ror #6]!
    1168:	6c2f6530 	cfstr32vs	mvfx6, [pc], #-192	; 10b0 <_start-0x6f50>
    116c:	672f6269 	strvs	r6, [pc, -r9, ror #4]!
    1170:	612f6363 	teqvs	pc, r3, ror #6
    1174:	6e2d6d72 	mcrvs	13, 1, r6, cr13, cr2, {3}
    1178:	2d656e6f 	stclcs	14, cr6, [r5, #-444]!	; 0xfffffe44
    117c:	69626165 	stmdbvs	r2!, {r0, r2, r5, r6, r8, sp, lr}^
    1180:	382e342f 	stmdacc	lr!, {r0, r1, r2, r3, r5, sl, ip, sp}
    1184:	692f332e 	stmdbvs	pc!, {r1, r2, r3, r5, r8, r9, ip, sp}	; <UNPREDICTABLE>
    1188:	756c636e 	strbvc	r6, [ip, #-878]!	; 0x36e
    118c:	2f006564 	svccs	0x00006564
    1190:	2f727375 	svccs	0x00727375
    1194:	61636f6c 	cmnvs	r3, ip, ror #30
    1198:	65432f6c 	strbvs	r2, [r3, #-3948]	; 0xf6c
    119c:	72616c6c 	rsbvc	r6, r1, #108, 24	; 0x6c00
    11a0:	6d72612f 	ldfvse	f6, [r2, #-188]!	; 0xffffff44
    11a4:	6e6f6e2d 	cdpvs	14, 6, cr6, cr15, cr13, {1}
    11a8:	61652d65 	cmnvs	r5, r5, ror #26
    11ac:	342f6962 	strtcc	r6, [pc], #-2402	; 11b4 <_start-0x6e4c>
    11b0:	332e382e 	teqcc	lr, #3014656	; 0x2e0000
    11b4:	3173632d 	cmncc	r3, sp, lsr #6
    11b8:	2f653037 	svccs	0x00653037
    11bc:	2d6d7261 	sfmcs	f7, 2, [sp, #-388]!	; 0xfffffe7c
    11c0:	656e6f6e 	strbvs	r6, [lr, #-3950]!	; 0xf6e
    11c4:	6261652d 	rsbvs	r6, r1, #188743680	; 0xb400000
    11c8:	6e692f69 	cdpvs	15, 6, cr2, cr9, cr9, {3}
    11cc:	64756c63 	ldrbtvs	r6, [r5], #-3171	; 0xc63
    11d0:	63000065 	movwvs	r0, #101	; 0x65
    11d4:	72746e6f 	rsbsvc	r6, r4, #1776	; 0x6f0
    11d8:	622d6c6f 	eorvs	r6, sp, #28416	; 0x6f00
    11dc:	6b636f6c 	blvs	18dcf94 <__bss_end__+0x18d269c>
    11e0:	0100632e 	tsteq	r0, lr, lsr #6
    11e4:	74730000 	ldrbtvc	r0, [r3], #-0
    11e8:	66656464 	strbtvs	r6, [r5], -r4, ror #8
    11ec:	0200682e 	andeq	r6, r0, #3014656	; 0x2e0000
    11f0:	74730000 	ldrbtvc	r0, [r3], #-0
    11f4:	746e6964 	strbtvc	r6, [lr], #-2404	; 0x964
    11f8:	6363672d 	cmnvs	r3, #11796480	; 0xb40000
    11fc:	0200682e 	andeq	r6, r0, #3014656	; 0x2e0000
    1200:	77730000 	ldrbvc	r0, [r3, -r0]!
    1204:	7261752d 	rsbvc	r7, r1, #188743680	; 0xb400000
    1208:	00682e74 	rsbeq	r2, r8, r4, ror lr
    120c:	63000001 	movwvs	r0, #1
    1210:	72746e6f 	rsbsvc	r6, r4, #1776	; 0x6f0
    1214:	622d6c6f 	eorvs	r6, sp, #28416	; 0x6f00
    1218:	6b636f6c 	blvs	18dcfd0 <__bss_end__+0x18d26d8>
    121c:	0100682e 	tsteq	r0, lr, lsr #16
    1220:	74730000 	ldrbtvc	r0, [r3], #-0
    1224:	676e6972 			; <UNDEFINED> instruction: 0x676e6972
    1228:	0300682e 	movweq	r6, #2094	; 0x82e
    122c:	00000000 	andeq	r0, r0, r0
    1230:	9e080205 	cdpls	2, 0, cr0, cr8, cr5, {0}
    1234:	30160000 	andscc	r0, r6, r0
    1238:	144c6883 	strbne	r6, [ip], #-2179	; 0x883
    123c:	022f4b9f 	eoreq	r4, pc, #162816	; 0x27c00
    1240:	01010004 	tsteq	r1, r4
    1244:	000000a5 	andeq	r0, r0, r5, lsr #1
    1248:	00910002 	addseq	r0, r1, r2
    124c:	01020000 	mrseq	r0, (UNDEF: 2)
    1250:	000d0efb 	strdeq	r0, [sp], -fp
    1254:	01010101 	tsteq	r1, r1, lsl #2
    1258:	01000000 	mrseq	r0, (UNDEF: 0)
    125c:	63010000 	movwvs	r0, #4096	; 0x1000
    1260:	30343173 	eorscc	r3, r4, r3, ror r1
    1264:	6e692d65 	cdpvs	13, 6, cr2, cr9, cr5, {3}
    1268:	72726574 	rsbsvc	r6, r2, #116, 10	; 0x1d000000
    126c:	00747075 	rsbseq	r7, r4, r5, ror r0
    1270:	6573552f 	ldrbvs	r5, [r3, #-1327]!	; 0x52f
    1274:	622f7372 	eorvs	r7, pc, #-939524095	; 0xc8000001
    1278:	6e616972 	mcrvs	9, 3, r6, cr1, cr2, {3}
    127c:	2f6e756a 	svccs	0x006e756a
    1280:	6b736544 	blvs	1cda798 <__bss_end__+0x1ccfea0>
    1284:	2f706f74 	svccs	0x00706f74
    1288:	6f686373 	svcvs	0x00686373
    128c:	572f6c6f 	strpl	r6, [pc, -pc, ror #24]!
    1290:	65746e69 	ldrbvs	r6, [r4, #-3689]!	; 0xe69
    1294:	32393172 	eorscc	r3, r9, #-2147483620	; 0x8000001c
    1298:	53432f30 	movtpl	r2, #16176	; 0x3f30
    129c:	45303431 	ldrmi	r3, [r0, #-1073]!	; 0x431
    12a0:	3173632f 	cmncc	r3, pc, lsr #6
    12a4:	2d653034 	stclcs	0, cr3, [r5, #-208]!	; 0xffffff30
    12a8:	69773032 	ldmdbvs	r7!, {r1, r4, r5, ip, sp}^
    12ac:	696c2f6e 	stmdbvs	ip!, {r1, r2, r3, r5, r6, r8, r9, sl, fp, sp}^
    12b0:	00697062 	rsbeq	r7, r9, r2, rrx
    12b4:	66656400 	strbtvs	r6, [r5], -r0, lsl #8
    12b8:	746c7561 	strbtvc	r7, [ip], #-1377	; 0x561
    12bc:	6e61682d 	cdpvs	8, 6, cr6, cr1, cr13, {1}
    12c0:	72656c64 	rsbvc	r6, r5, #100, 24	; 0x6400
    12c4:	7461642d 	strbtvc	r6, [r1], #-1069	; 0x42d
    12c8:	62612d61 	rsbvs	r2, r1, #6208	; 0x1840
    12cc:	2e74726f 	cdpcs	2, 7, cr7, cr4, cr15, {3}
    12d0:	00010063 	andeq	r0, r1, r3, rrx
    12d4:	69707200 	ldmdbvs	r0!, {r9, ip, sp, lr}^
    12d8:	0200682e 	andeq	r6, r0, #3014656	; 0x2e0000
    12dc:	00000000 	andeq	r0, r0, r0
    12e0:	9e580205 	cdpls	2, 5, cr0, cr8, cr5, {0}
    12e4:	66130000 	ldrvs	r0, [r3], -r0
    12e8:	01001c02 	tsteq	r0, r2, lsl #24
    12ec:	0000a301 	andeq	sl, r0, r1, lsl #6
    12f0:	8f000200 	svchi	0x00000200
    12f4:	02000000 	andeq	r0, r0, #0
    12f8:	0d0efb01 	vstreq	d15, [lr, #-4]
    12fc:	01010100 	mrseq	r0, (UNDEF: 17)
    1300:	00000001 	andeq	r0, r0, r1
    1304:	01000001 	tsteq	r0, r1
    1308:	34317363 	ldrtcc	r7, [r1], #-867	; 0x363
    130c:	692d6530 	pushvs	{r4, r5, r8, sl, sp, lr}
    1310:	7265746e 	rsbvc	r7, r5, #1845493760	; 0x6e000000
    1314:	74707572 	ldrbtvc	r7, [r0], #-1394	; 0x572
    1318:	73552f00 	cmpvc	r5, #0, 30
    131c:	2f737265 	svccs	0x00737265
    1320:	61697262 	cmnvs	r9, r2, ror #4
    1324:	6e756a6e 	vsubvs.f32	s13, s10, s29
    1328:	7365442f 	cmnvc	r5, #788529152	; 0x2f000000
    132c:	706f746b 	rsbvc	r7, pc, fp, ror #8
    1330:	6863732f 	stmdavs	r3!, {r0, r1, r2, r3, r5, r8, r9, ip, sp, lr}^
    1334:	2f6c6f6f 	svccs	0x006c6f6f
    1338:	746e6957 	strbtvc	r6, [lr], #-2391	; 0x957
    133c:	39317265 	ldmdbcc	r1!, {r0, r2, r5, r6, r9, ip, sp, lr}
    1340:	432f3032 	teqmi	pc, #50	; 0x32
    1344:	30343153 	eorscc	r3, r4, r3, asr r1
    1348:	73632f45 	cmnvc	r3, #276	; 0x114
    134c:	65303431 	ldrvs	r3, [r0, #-1073]!	; 0x431
    1350:	7730322d 	ldrvc	r3, [r0, -sp, lsr #4]!
    1354:	6c2f6e69 	stcvs	14, cr6, [pc], #-420	; 11b8 <_start-0x6e48>
    1358:	69706269 	ldmdbvs	r0!, {r0, r3, r5, r6, r9, sp, lr}^
    135c:	65640000 	strbvs	r0, [r4, #-0]!
    1360:	6c756166 	ldfvse	f6, [r5], #-408	; 0xfffffe68
    1364:	61682d74 	smcvs	33492	; 0x82d4
    1368:	656c646e 	strbvs	r6, [ip, #-1134]!	; 0x46e
    136c:	72702d72 	rsbsvc	r2, r0, #7296	; 0x1c80
    1370:	74656665 	strbtvc	r6, [r5], #-1637	; 0x665
    1374:	632e6863 	teqvs	lr, #6488064	; 0x630000
    1378:	00000100 	andeq	r0, r0, r0, lsl #2
    137c:	2e697072 	mcrcs	0, 3, r7, cr9, cr2, {3}
    1380:	00020068 	andeq	r0, r2, r8, rrx
    1384:	05000000 	streq	r0, [r0, #-0]
    1388:	009e9c02 	addseq	r9, lr, r2, lsl #24
    138c:	02661300 	rsbeq	r1, r6, #0, 6
    1390:	0101001c 	tsteq	r1, ip, lsl r0
    1394:	000000a0 	andeq	r0, r0, r0, lsr #1
    1398:	008c0002 	addeq	r0, ip, r2
    139c:	01020000 	mrseq	r0, (UNDEF: 2)
    13a0:	000d0efb 	strdeq	r0, [sp], -fp
    13a4:	01010101 	tsteq	r1, r1, lsl #2
    13a8:	01000000 	mrseq	r0, (UNDEF: 0)
    13ac:	63010000 	movwvs	r0, #4096	; 0x1000
    13b0:	30343173 	eorscc	r3, r4, r3, ror r1
    13b4:	6e692d65 	cdpvs	13, 6, cr2, cr9, cr5, {3}
    13b8:	72726574 	rsbsvc	r6, r2, #116, 10	; 0x1d000000
    13bc:	00747075 	rsbseq	r7, r4, r5, ror r0
    13c0:	6573552f 	ldrbvs	r5, [r3, #-1327]!	; 0x52f
    13c4:	622f7372 	eorvs	r7, pc, #-939524095	; 0xc8000001
    13c8:	6e616972 	mcrvs	9, 3, r6, cr1, cr2, {3}
    13cc:	2f6e756a 	svccs	0x006e756a
    13d0:	6b736544 	blvs	1cda8e8 <__bss_end__+0x1ccfff0>
    13d4:	2f706f74 	svccs	0x00706f74
    13d8:	6f686373 	svcvs	0x00686373
    13dc:	572f6c6f 	strpl	r6, [pc, -pc, ror #24]!
    13e0:	65746e69 	ldrbvs	r6, [r4, #-3689]!	; 0xe69
    13e4:	32393172 	eorscc	r3, r9, #-2147483620	; 0x8000001c
    13e8:	53432f30 	movtpl	r2, #16176	; 0x3f30
    13ec:	45303431 	ldrmi	r3, [r0, #-1073]!	; 0x431
    13f0:	3173632f 	cmncc	r3, pc, lsr #6
    13f4:	2d653034 	stclcs	0, cr3, [r5, #-208]!	; 0xffffff30
    13f8:	69773032 	ldmdbvs	r7!, {r1, r4, r5, ip, sp}^
    13fc:	696c2f6e 	stmdbvs	ip!, {r1, r2, r3, r5, r6, r8, r9, sl, fp, sp}^
    1400:	00697062 	rsbeq	r7, r9, r2, rrx
    1404:	66656400 	strbtvs	r6, [r5], -r0, lsl #8
    1408:	746c7561 	strbtvc	r7, [ip], #-1377	; 0x561
    140c:	6e61682d 	cdpvs	8, 6, cr6, cr1, cr13, {1}
    1410:	72656c64 	rsbvc	r6, r5, #100, 24	; 0x6400
    1414:	7365722d 	cmnvc	r5, #-805306366	; 0xd0000002
    1418:	632e7465 	teqvs	lr, #1694498816	; 0x65000000
    141c:	00000100 	andeq	r0, r0, r0, lsl #2
    1420:	2e697072 	mcrcs	0, 3, r7, cr9, cr2, {3}
    1424:	00020068 	andeq	r0, r2, r8, rrx
    1428:	05000000 	streq	r0, [r0, #-0]
    142c:	009ee002 	addseq	lr, lr, r2
    1430:	02661300 	rsbeq	r1, r6, #0, 6
    1434:	0101001c 	tsteq	r1, ip, lsl r0
    1438:	000000a9 	andeq	r0, r0, r9, lsr #1
    143c:	00950002 	addseq	r0, r5, r2
    1440:	01020000 	mrseq	r0, (UNDEF: 2)
    1444:	000d0efb 	strdeq	r0, [sp], -fp
    1448:	01010101 	tsteq	r1, r1, lsl #2
    144c:	01000000 	mrseq	r0, (UNDEF: 0)
    1450:	63010000 	movwvs	r0, #4096	; 0x1000
    1454:	30343173 	eorscc	r3, r4, r3, ror r1
    1458:	6e692d65 	cdpvs	13, 6, cr2, cr9, cr5, {3}
    145c:	72726574 	rsbsvc	r6, r2, #116, 10	; 0x1d000000
    1460:	00747075 	rsbseq	r7, r4, r5, ror r0
    1464:	6573552f 	ldrbvs	r5, [r3, #-1327]!	; 0x52f
    1468:	622f7372 	eorvs	r7, pc, #-939524095	; 0xc8000001
    146c:	6e616972 	mcrvs	9, 3, r6, cr1, cr2, {3}
    1470:	2f6e756a 	svccs	0x006e756a
    1474:	6b736544 	blvs	1cda98c <__bss_end__+0x1cd0094>
    1478:	2f706f74 	svccs	0x00706f74
    147c:	6f686373 	svcvs	0x00686373
    1480:	572f6c6f 	strpl	r6, [pc, -pc, ror #24]!
    1484:	65746e69 	ldrbvs	r6, [r4, #-3689]!	; 0xe69
    1488:	32393172 	eorscc	r3, r9, #-2147483620	; 0x8000001c
    148c:	53432f30 	movtpl	r2, #16176	; 0x3f30
    1490:	45303431 	ldrmi	r3, [r0, #-1073]!	; 0x431
    1494:	3173632f 	cmncc	r3, pc, lsr #6
    1498:	2d653034 	stclcs	0, cr3, [r5, #-208]!	; 0xffffff30
    149c:	69773032 	ldmdbvs	r7!, {r1, r4, r5, ip, sp}^
    14a0:	696c2f6e 	stmdbvs	ip!, {r1, r2, r3, r5, r6, r8, r9, sl, fp, sp}^
    14a4:	00697062 	rsbeq	r7, r9, r2, rrx
    14a8:	66656400 	strbtvs	r6, [r5], -r0, lsl #8
    14ac:	746c7561 	strbtvc	r7, [ip], #-1377	; 0x561
    14b0:	6e61682d 	cdpvs	8, 6, cr6, cr1, cr13, {1}
    14b4:	72656c64 	rsbvc	r6, r5, #100, 24	; 0x6400
    14b8:	646e752d 	strbtvs	r7, [lr], #-1325	; 0x52d
    14bc:	6e696665 	cdpvs	6, 6, cr6, cr9, cr5, {3}
    14c0:	692d6465 	pushvs	{r0, r2, r5, r6, sl, sp, lr}
    14c4:	2e74736e 	cdpcs	3, 7, cr7, cr4, cr14, {3}
    14c8:	00010063 	andeq	r0, r1, r3, rrx
    14cc:	69707200 	ldmdbvs	r0!, {r9, ip, sp, lr}^
    14d0:	0200682e 	andeq	r6, r0, #3014656	; 0x2e0000
    14d4:	00000000 	andeq	r0, r0, r0
    14d8:	9f240205 	svcls	0x00240205
    14dc:	66130000 	ldrvs	r0, [r3], -r0
    14e0:	01001c02 	tsteq	r0, r2, lsl #24
    14e4:	0000ec01 	andeq	lr, r0, r1, lsl #24
    14e8:	d0000200 	andle	r0, r0, r0, lsl #4
    14ec:	02000000 	andeq	r0, r0, #0
    14f0:	0d0efb01 	vstreq	d15, [lr, #-4]
    14f4:	01010100 	mrseq	r0, (UNDEF: 17)
    14f8:	00000001 	andeq	r0, r0, r1
    14fc:	01000001 	tsteq	r0, r1
    1500:	6362696c 	cmnvs	r2, #108, 18	; 0x1b0000
    1504:	73752f00 	cmnvc	r5, #0, 30
    1508:	6f6c2f72 	svcvs	0x006c2f72
    150c:	2f6c6163 	svccs	0x006c6163
    1510:	6c6c6543 	cfstr64vs	mvdx6, [ip], #-268	; 0xfffffef4
    1514:	612f7261 	teqvs	pc, r1, ror #4
    1518:	6e2d6d72 	mcrvs	13, 1, r6, cr13, cr2, {3}
    151c:	2d656e6f 	stclcs	14, cr6, [r5, #-444]!	; 0xfffffe44
    1520:	69626165 	stmdbvs	r2!, {r0, r2, r5, r6, r8, sp, lr}^
    1524:	382e342f 	stmdacc	lr!, {r0, r1, r2, r3, r5, sl, ip, sp}
    1528:	632d332e 	teqvs	sp, #-1207959552	; 0xb8000000
    152c:	30373173 	eorscc	r3, r7, r3, ror r1
    1530:	696c2f65 	stmdbvs	ip!, {r0, r2, r5, r6, r8, r9, sl, fp, sp}^
    1534:	63672f62 	cmnvs	r7, #392	; 0x188
    1538:	72612f63 	rsbvc	r2, r1, #396	; 0x18c
    153c:	6f6e2d6d 	svcvs	0x006e2d6d
    1540:	652d656e 	strvs	r6, [sp, #-1390]!	; 0x56e
    1544:	2f696261 	svccs	0x00696261
    1548:	2e382e34 	mrccs	14, 1, r2, cr8, cr4, {1}
    154c:	6e692f33 	mcrvs	15, 3, r2, cr9, cr3, {1}
    1550:	64756c63 	ldrbtvs	r6, [r5], #-3171	; 0xc63
    1554:	752f0065 	strvc	r0, [pc, #-101]!	; 14f7 <_start-0x6b09>
    1558:	6c2f7273 	sfmvs	f7, 4, [pc], #-460	; 1394 <_start-0x6c6c>
    155c:	6c61636f 	stclvs	3, cr6, [r1], #-444	; 0xfffffe44
    1560:	6c65432f 	stclvs	3, cr4, [r5], #-188	; 0xffffff44
    1564:	2f72616c 	svccs	0x0072616c
    1568:	2d6d7261 	sfmcs	f7, 2, [sp, #-388]!	; 0xfffffe7c
    156c:	656e6f6e 	strbvs	r6, [lr, #-3950]!	; 0xf6e
    1570:	6261652d 	rsbvs	r6, r1, #188743680	; 0xb400000
    1574:	2e342f69 	cdpcs	15, 3, cr2, cr4, cr9, {3}
    1578:	2d332e38 	ldccs	14, cr2, [r3, #-224]!	; 0xffffff20
    157c:	37317363 	ldrcc	r7, [r1, -r3, ror #6]!
    1580:	612f6530 	teqvs	pc, r0, lsr r5	; <UNPREDICTABLE>
    1584:	6e2d6d72 	mcrvs	13, 1, r6, cr13, cr2, {3}
    1588:	2d656e6f 	stclcs	14, cr6, [r5, #-444]!	; 0xfffffe44
    158c:	69626165 	stmdbvs	r2!, {r0, r2, r5, r6, r8, sp, lr}^
    1590:	636e692f 	cmnvs	lr, #770048	; 0xbc000
    1594:	6564756c 	strbvs	r7, [r4, #-1388]!	; 0x56c
    1598:	656d0000 	strbvs	r0, [sp, #-0]!
    159c:	7465736d 	strbtvc	r7, [r5], #-877	; 0x36d
    15a0:	0100632e 	tsteq	r0, lr, lsr #6
    15a4:	74730000 	ldrbtvc	r0, [r3], #-0
    15a8:	66656464 	strbtvs	r6, [r5], -r4, ror #8
    15ac:	0200682e 	andeq	r6, r0, #3014656	; 0x2e0000
    15b0:	74730000 	ldrbtvc	r0, [r3], #-0
    15b4:	676e6972 			; <UNDEFINED> instruction: 0x676e6972
    15b8:	0300682e 	movweq	r6, #2094	; 0x82e
    15bc:	00000000 	andeq	r0, r0, r0
    15c0:	9f680205 	svcls	0x00680205
    15c4:	13140000 	tstne	r4, #0
    15c8:	02002f4c 	andeq	r2, r0, #76, 30	; 0x130
    15cc:	4d490104 	stfmie	f0, [r9, #-16]
    15d0:	01000202 	tsteq	r0, r2, lsl #4
    15d4:	Address 0x00000000000015d4 is out of bounds.


Disassembly of section .debug_str:

00000000 <.debug_str>:
   0:	53465047 	movtpl	r5, #24647	; 0x6047
   4:	00324c45 	eorseq	r4, r2, r5, asr #24
   8:	4c435047 	mcrrmi	0, 4, r5, r3, cr7
   c:	66003052 			; <UNDEFINED> instruction: 0x66003052
  10:	5f747361 	svcpl	0x00747361
  14:	6f697067 	svcvs	0x00697067
  18:	6972775f 	ldmdbvs	r2!, {r0, r1, r2, r3, r4, r6, r8, r9, sl, ip, sp, lr}^
  1c:	61006574 	tstvs	r0, r4, ror r5
  20:	745f6d72 	ldrbvc	r6, [pc], #-3442	; 28 <_start-0x7fd8>
  24:	72656d69 	rsbvc	r6, r5, #6720	; 0x1a40
  28:	5741525f 	smlsldpl	r5, r1, pc, r2	; <UNPREDICTABLE>
  2c:	00515249 	subseq	r5, r1, r9, asr #4
  30:	74726175 	ldrbtvc	r6, [r2], #-373	; 0x175
  34:	696e695f 	stmdbvs	lr!, {r0, r1, r2, r3, r4, r6, r8, fp, sp, lr}^
  38:	6f6c0074 	svcvs	0x006c0074
  3c:	6c20676e 	stcvs	7, cr6, [r0], #-440	; 0xfffffe48
  40:	20676e6f 	rsbcs	r6, r7, pc, ror #28
  44:	69736e75 	ldmdbvs	r3!, {r0, r2, r4, r5, r6, r9, sl, fp, sp, lr}^
  48:	64656e67 	strbtvs	r6, [r5], #-3687	; 0xe67
  4c:	746e6920 	strbtvc	r6, [lr], #-2336	; 0x920
  50:	73616600 	cmnvc	r1, #0, 12
  54:	70675f74 	rsbvc	r5, r7, r4, ror pc
  58:	735f6f69 	cmpvc	pc, #420	; 0x1a4
  5c:	6f5f7465 	svcvs	0x005f7465
  60:	6f6c006e 	svcvs	0x006c006e
  64:	6c20676e 	stcvs	7, cr6, [r0], #-440	; 0xfffffe48
  68:	20676e6f 	rsbcs	r6, r7, pc, ror #28
  6c:	00746e69 	rsbseq	r6, r4, r9, ror #28
  70:	6576656e 	ldrbvs	r6, [r6, #-1390]!	; 0x56e
  74:	0073746e 	rsbseq	r7, r3, lr, ror #8
  78:	6379636e 	cmnvs	r9, #-1207959551	; 0xb8000001
  7c:	6100656c 	tstvs	r0, ip, ror #10
  80:	745f6d72 	ldrbvc	r6, [pc], #-3442	; 88 <_start-0x7f78>
  84:	72656d69 	rsbvc	r6, r5, #6720	; 0x1a40
  88:	6e6f435f 	mcrvs	3, 3, r4, cr15, cr15, {2}
  8c:	6c6f7274 	sfmvs	f7, 2, [pc], #-464	; fffffec4 <__bss_end__+0xffff55cc>
  90:	53504700 	cmppl	r0, #0, 14
  94:	00315445 	eorseq	r5, r1, r5, asr #8
  98:	5f6d7261 	svcpl	0x006d7261
  9c:	656d6974 	strbvs	r6, [sp, #-2420]!	; 0x974
  a0:	6f4c5f72 	svcvs	0x004c5f72
  a4:	61006461 	tstvs	r0, r1, ror #8
  a8:	745f6d72 	ldrbvc	r6, [pc], #-3442	; b0 <_start-0x7f50>
  ac:	72656d69 	rsbvc	r6, r5, #6720	; 0x1a40
  b0:	7361425f 	cmnvc	r1, #-268435451	; 0xf0000005
  b4:	50470065 	subpl	r0, r7, r5, rrx
  b8:	3056454c 	subscc	r4, r6, ip, asr #10
  bc:	4c504700 	mrrcmi	7, 0, r4, r0, cr0
  c0:	00315645 	eorseq	r5, r1, r5, asr #12
  c4:	74736574 	ldrbtvc	r6, [r3], #-1396	; 0x574
  c8:	6e65675f 	mcrvs	7, 3, r6, cr5, cr15, {2}
  cc:	746f6e00 	strbtvc	r6, [pc], #-3584	; d4 <_start-0x7f2c>
  d0:	6e69616d 	powvsez	f6, f1, #5.0
  d4:	73616600 	cmnvc	r1, #0, 12
  d8:	70675f74 	rsbvc	r5, r7, r4, ror pc
  dc:	735f6f69 	cmpvc	pc, #420	; 0x1a4
  e0:	6f5f7465 	svcvs	0x005f7465
  e4:	74006666 	strvc	r6, [r0], #-1638	; 0x666
  e8:	00706d65 	rsbseq	r6, r0, r5, ror #26
  ec:	5f6d7261 	svcpl	0x006d7261
  f0:	656d6974 	strbvs	r6, [sp, #-2420]!	; 0x974
  f4:	614d5f72 	hvcvs	54770	; 0xd5f2
  f8:	64656b73 	strbtvs	r6, [r5], #-2931	; 0xb73
  fc:	00515249 	subseq	r5, r1, r9, asr #4
 100:	5f697072 	svcpl	0x00697072
 104:	65736572 	ldrbvs	r6, [r3, #-1394]!	; 0x572
 108:	75705f74 	ldrbvc	r5, [r0, #-3956]!	; 0xf74
 10c:	47006374 	smlsdxmi	r0, r4, r3, r6
 110:	45534650 	ldrbmi	r4, [r3, #-1616]	; 0x650
 114:	4700304c 	strmi	r3, [r0, -ip, asr #32]
 118:	45534650 	ldrbmi	r4, [r3, #-1616]	; 0x650
 11c:	4700314c 	strmi	r3, [r0, -ip, asr #2]
 120:	45534650 	ldrbmi	r4, [r3, #-1616]	; 0x650
 124:	4700334c 	strmi	r3, [r0, -ip, asr #6]
 128:	45534650 	ldrbmi	r4, [r3, #-1616]	; 0x650
 12c:	4700344c 	strmi	r3, [r0, -ip, asr #8]
 130:	45534650 	ldrbmi	r4, [r3, #-1616]	; 0x650
 134:	6300354c 	movwvs	r3, #1356	; 0x54c
 138:	5f727275 	svcpl	0x00727275
 13c:	756c6176 	strbvc	r6, [ip, #-374]!	; 0x176
 140:	70670065 	rsbvc	r0, r7, r5, rrx
 144:	655f6f69 	ldrbvs	r6, [pc, #-3945]	; fffff1e3 <__bss_end__+0xffff48eb>
 148:	746e6576 	strbtvc	r6, [lr], #-1398	; 0x576
 14c:	656c635f 	strbvs	r6, [ip, #-863]!	; 0x35f
 150:	5f007261 	svcpl	0x00007261
 154:	4e55465f 	mrcmi	6, 2, r4, cr5, cr15, {2}
 158:	4f495443 	svcmi	0x00495443
 15c:	005f5f4e 	subseq	r5, pc, lr, asr #30
 160:	726f6873 	rsbvc	r6, pc, #7536640	; 0x730000
 164:	6e752074 	mrcvs	0, 3, r2, cr5, cr4, {3}
 168:	6e676973 	mcrvs	9, 3, r6, cr7, cr3, {3}
 16c:	69206465 	stmdbvs	r0!, {r0, r2, r5, r6, sl, sp, lr}
 170:	6c00746e 	cfstrsvs	mvf7, [r0], {110}	; 0x6e
 174:	00747361 	rsbseq	r7, r4, r1, ror #6
 178:	6573552f 	ldrbvs	r5, [r3, #-1327]!	; 0x52f
 17c:	622f7372 	eorvs	r7, pc, #-939524095	; 0xc8000001
 180:	6e616972 	mcrvs	9, 3, r6, cr1, cr2, {3}
 184:	2f6e756a 	svccs	0x006e756a
 188:	6b736544 	blvs	1cd96a0 <__bss_end__+0x1cceda8>
 18c:	2f706f74 	svccs	0x00706f74
 190:	6f686373 	svcvs	0x00686373
 194:	532f6c6f 	teqpl	pc, #28416	; 0x6f00
 198:	6e697270 	mcrvs	2, 3, r7, cr9, cr0, {3}
 19c:	32393167 	eorscc	r3, r9, #-1073741799	; 0xc0000019
 1a0:	53432f30 	movtpl	r2, #16176	; 0x3f30
 1a4:	4c303432 	cfldrsmi	mvf3, [r0], #-200	; 0xffffff38
 1a8:	73632f58 	cmnvc	r3, #88, 30	; 0x160
 1ac:	6c303432 	cfldrsvs	mvf3, [r0], #-200	; 0xffffff38
 1b0:	30322d78 	eorscc	r2, r2, r8, ror sp
 1b4:	2f727073 	svccs	0x00727073
 1b8:	7362616c 	cmnvc	r2, #108, 2
 1bc:	692d342f 	pushvs	{r0, r1, r2, r3, r5, sl, ip, sp}
 1c0:	7265746e 	rsbvc	r7, r5, #1845493760	; 0x6e000000
 1c4:	74707572 	ldrbtvc	r7, [r0], #-1394	; 0x572
 1c8:	2d77732d 	ldclcs	3, cr7, [r7, #-180]!	; 0xffffff4c
 1cc:	74726175 	ldrbtvc	r6, [r2], #-373	; 0x175
 1d0:	7265732f 	rsbvc	r7, r5, #-1140850688	; 0xbc000000
 1d4:	00726576 	rsbseq	r6, r2, r6, ror r5
 1d8:	6f697067 	svcvs	0x00697067
 1dc:	6573665f 	ldrbvs	r6, [r3, #-1631]!	; 0x65f
 1e0:	4700306c 	strmi	r3, [r0, -ip, rrx]
 1e4:	524c4350 	subpl	r4, ip, #80, 6	; 0x40000001
 1e8:	6c630031 	stclvs	0, cr0, [r3], #-196	; 0xffffff3c
 1ec:	5f6e6165 	svcpl	0x006e6165
 1f0:	6f626572 	svcvs	0x00626572
 1f4:	7300746f 	movwvc	r7, #1135	; 0x46f
 1f8:	74657a69 	strbtvc	r7, [r5], #-2665	; 0xa69
 1fc:	00657079 	rsbeq	r7, r5, r9, ror r0
 200:	5f6d7261 	svcpl	0x006d7261
 204:	656d6974 	strbvs	r6, [sp, #-2420]!	; 0x974
 208:	65525f72 	ldrbvs	r5, [r2, #-3954]	; 0xf72
 20c:	64616f6c 	strbtvs	r6, [r1], #-3948	; 0xf6c
 210:	63796300 	cmnvs	r9, #0, 6
 214:	635f656c 	cmpvs	pc, #108, 10	; 0x1b000000
 218:	746e756f 	strbtvc	r7, [lr], #-1391	; 0x56f
 21c:	69007265 	stmdbvs	r0, {r0, r2, r5, r6, r9, ip, sp, lr}
 220:	695f746e 	ldmdbvs	pc, {r1, r2, r3, r5, r6, sl, ip, sp, lr}^	; <UNPREDICTABLE>
 224:	0074696e 	rsbseq	r6, r4, lr, ror #18
 228:	74756f5f 	ldrbtvc	r6, [r5], #-3935	; 0xf5f
 22c:	73797300 	cmnvc	r9, #0, 6
 230:	5f6d6574 	svcpl	0x006d6574
 234:	62616e65 	rsbvs	r6, r1, #1616	; 0x650
 238:	695f656c 	ldmdbvs	pc, {r2, r3, r5, r6, r8, sl, sp, lr}^	; <UNPREDICTABLE>
 23c:	7265746e 	rsbvc	r7, r5, #1845493760	; 0x6e000000
 240:	74707572 	ldrbtvc	r7, [r0], #-1394	; 0x572
 244:	73690073 	cmnvc	r9, #115	; 0x73
 248:	6972775f 	ldmdbvs	r2!, {r0, r1, r2, r3, r4, r6, r8, r9, sl, ip, sp, lr}^
 24c:	676e6974 			; <UNDEFINED> instruction: 0x676e6974
 250:	736e7500 	cmnvc	lr, #0, 10
 254:	656e6769 	strbvs	r6, [lr, #-1897]!	; 0x769
 258:	68632064 	stmdavs	r3!, {r2, r5, r6, sp}^
 25c:	73007261 	movwvc	r7, #609	; 0x261
 260:	65706f63 	ldrbvs	r6, [r0, #-3939]!	; 0xf63
 264:	53504700 	cmppl	r0, #0, 14
 268:	00305445 	eorseq	r5, r0, r5, asr #8
 26c:	726f6873 	rsbvc	r6, pc, #7536640	; 0x730000
 270:	6e692074 	mcrvs	0, 3, r2, cr9, cr4, {3}
 274:	65640074 	strbvs	r0, [r4, #-116]!	; 0x74
 278:	5f79616c 	svcpl	0x0079616c
 27c:	6300736d 	movwvs	r7, #877	; 0x36d
 280:	656c6379 	strbvs	r6, [ip, #-889]!	; 0x379
 284:	65705f73 	ldrbvs	r5, [r0, #-3955]!	; 0xf73
 288:	65735f72 	ldrbvs	r5, [r3, #-3954]!	; 0xf72
 28c:	70670063 	rsbvc	r0, r7, r3, rrx
 290:	735f6f69 	cmpvc	pc, #420	; 0x1a4
 294:	00307465 	eorseq	r7, r0, r5, ror #8
 298:	73726966 	cmnvc	r2, #1671168	; 0x198000
 29c:	5f6e0074 	svcpl	0x006e0074
 2a0:	69736972 	ldmdbvs	r3!, {r1, r4, r5, r6, r8, fp, sp, lr}^
 2a4:	655f676e 	ldrbvs	r6, [pc, #-1902]	; fffffb3e <__bss_end__+0xffff5246>
 2a8:	00656764 	rsbeq	r6, r5, r4, ror #14
 2ac:	20554e47 	subscs	r4, r5, r7, asr #28
 2b0:	2e342043 	cdpcs	0, 3, cr2, cr4, cr3, {2}
 2b4:	20332e38 	eorscs	r2, r3, r8, lsr lr
 2b8:	70636d2d 	rsbvc	r6, r3, sp, lsr #26
 2bc:	72613d75 	rsbvc	r3, r1, #7488	; 0x1d40
 2c0:	3731316d 	ldrcc	r3, [r1, -sp, ror #2]!
 2c4:	667a6a36 			; <UNDEFINED> instruction: 0x667a6a36
 2c8:	2d20732d 	stccs	3, cr7, [r0, #-180]!	; 0xffffff4c
 2cc:	6e75746d 	cdpvs	4, 7, cr7, cr5, cr13, {3}
 2d0:	72613d65 	rsbvc	r3, r1, #6464	; 0x1940
 2d4:	3731316d 	ldrcc	r3, [r1, -sp, ror #2]!
 2d8:	667a6a36 			; <UNDEFINED> instruction: 0x667a6a36
 2dc:	2d20732d 	stccs	3, cr7, [r0, #-180]!	; 0xffffff4c
 2e0:	62646767 	rsbvs	r6, r4, #27000832	; 0x19c0000
 2e4:	674f2d20 	strbvs	r2, [pc, -r0, lsr #26]
 2e8:	74732d20 	ldrbtvc	r2, [r3], #-3360	; 0xd20
 2ec:	6e673d64 	cdpvs	13, 6, cr3, cr7, cr4, {3}
 2f0:	20393975 	eorscs	r3, r9, r5, ror r9
 2f4:	7266662d 	rsbvc	r6, r6, #47185920	; 0x2d00000
 2f8:	74736565 	ldrbtvc	r6, [r3], #-1381	; 0x565
 2fc:	69646e61 	stmdbvs	r4!, {r0, r5, r6, r9, sl, fp, sp, lr}^
 300:	6700676e 	strvs	r6, [r0, -lr, ror #14]
 304:	5f6f6970 	svcpl	0x006f6970
 308:	5f746573 	svcpl	0x00746573
 30c:	75706e69 	ldrbvc	r6, [r0, #-3689]!	; 0xe69
 310:	5f6e0074 	svcpl	0x006e0074
 314:	6c6c6166 	stfvse	f6, [ip], #-408	; 0xfffffe68
 318:	5f676e69 	svcpl	0x00676e69
 31c:	65676465 	strbvs	r6, [r7, #-1125]!	; 0x465
 320:	6c2d3200 	sfmvs	f3, 4, [sp], #-0
 324:	6369676f 	cmnvs	r9, #29097984	; 0x1bc0000
 328:	616e612d 	cmnvs	lr, sp, lsr #2
 32c:	657a796c 	ldrbvs	r7, [sl, #-2412]!	; 0x96c
 330:	00632e72 	rsbeq	r2, r3, r2, ror lr
 334:	5f6d7261 	svcpl	0x006d7261
 338:	656d6974 	strbvs	r6, [sp, #-2420]!	; 0x974
 33c:	72505f72 	subsvc	r5, r0, #456	; 0x1c8
 340:	76694465 	strbtvc	r4, [r9], -r5, ror #8
 344:	72656469 	rsbvc	r6, r5, #1761607680	; 0x69000000
 348:	6d726100 	ldfvse	f6, [r2, #-0]
 34c:	6d69745f 	cfstrdvs	mvd7, [r9, #-380]!	; 0xfffffe84
 350:	565f7265 	ldrbpl	r7, [pc], -r5, ror #4
 354:	65756c61 	ldrbvs	r6, [r5, #-3169]!	; 0xc61
 358:	6d726100 	ldfvse	f6, [r2, #-0]
 35c:	6d69745f 	cfstrdvs	mvd7, [r9, #-380]!	; 0xfffffe84
 360:	495f7265 	ldmdbmi	pc, {r0, r2, r5, r6, r9, ip, sp, lr}^	; <UNPREDICTABLE>
 364:	6c435152 	stfvse	f5, [r3], {82}	; 0x52
 368:	00726165 	rsbseq	r6, r2, r5, ror #2
 36c:	6f697067 	svcvs	0x00697067
 370:	7465735f 	strbtvc	r7, [r5], #-863	; 0x35f
 374:	74756f5f 	ldrbtvc	r6, [r5], #-3935	; 0xf5f
 378:	00747570 	rsbseq	r7, r4, r0, ror r5
 37c:	62616e65 	rsbvs	r6, r1, #1616	; 0x650
 380:	635f656c 	cmpvs	pc, #108, 10	; 0x1b000000
 384:	65686361 	strbvs	r6, [r8, #-865]!	; 0x361
 388:	69707200 	ldmdbvs	r0!, {r9, ip, sp, lr}^
 38c:	6d72615f 	ldfvse	f6, [r2, #-380]!	; 0xfffffe84
 390:	6d69745f 	cfstrdvs	mvd7, [r9, #-380]!	; 0xfffffe84
 394:	745f7265 	ldrbvc	r7, [pc], #-613	; 39c <_start-0x7c64>
 398:	6e697500 	cdpvs	5, 6, cr7, cr9, cr0, {0}
 39c:	745f3874 	ldrbvc	r3, [pc], #-2164	; 3a4 <_start-0x7c5c>
 3a0:	69706700 	ldmdbvs	r0!, {r8, r9, sl, sp, lr}^
 3a4:	6e695f6f 	cdpvs	15, 6, cr5, cr9, cr15, {3}
 3a8:	61665f74 	smcvs	26100	; 0x65f4
 3ac:	6e696c6c 	cdpvs	12, 6, cr6, cr9, cr12, {3}
 3b0:	64655f67 	strbtvs	r5, [r5], #-3943	; 0xf67
 3b4:	67006567 	strvs	r6, [r0, -r7, ror #10]
 3b8:	5f6f6970 	svcpl	0x006f6970
 3bc:	30726c63 	rsbscc	r6, r2, r3, ror #24
 3c0:	73797300 	cmnvc	r9, #0, 6
 3c4:	5f6d6574 	svcpl	0x006d6574
 3c8:	61736964 	cmnvs	r3, r4, ror #18
 3cc:	5f656c62 	svcpl	0x00656c62
 3d0:	65746e69 	ldrbvs	r6, [r4, #-3689]!	; 0xe69
 3d4:	70757272 	rsbsvc	r7, r5, r2, ror r2
 3d8:	61007374 	tstvs	r0, r4, ror r3
 3dc:	745f6d72 	ldrbvc	r6, [pc], #-3442	; 3e4 <_start-0x7c1c>
 3e0:	72656d69 	rsbvc	r6, r5, #6720	; 0x1a40
 3e4:	6572465f 	ldrbvs	r4, [r2, #-1631]!	; 0x65f
 3e8:	6e755265 	cdpvs	2, 7, cr5, cr5, cr5, {3}
 3ec:	676e696e 	strbvs	r6, [lr, -lr, ror #18]!
 3f0:	6e756f43 	cdpvs	15, 7, cr6, cr5, cr3, {2}
 3f4:	00726574 	rsbseq	r6, r2, r4, ror r5
 3f8:	6e675f5f 	mcrvs	15, 3, r5, cr7, cr15, {2}
 3fc:	765f6375 			; <UNDEFINED> instruction: 0x765f6375
 400:	696c5f61 	stmdbvs	ip!, {r0, r5, r6, r8, r9, sl, fp, ip, lr}^
 404:	6c007473 	cfstrsvs	mvf7, [r0], {115}	; 0x73
 408:	2f636269 	svccs	0x00636269
 40c:	6e697270 	mcrvs	2, 3, r7, cr9, cr0, {3}
 410:	632e6b74 	teqvs	lr, #116, 22	; 0x1d000
 414:	5f617600 	svcpl	0x00617600
 418:	6e697270 	mcrvs	2, 3, r7, cr9, cr0, {3}
 41c:	5f006b74 	svcpl	0x00006b74
 420:	5f61765f 	svcpl	0x0061765f
 424:	7473696c 	ldrbtvc	r6, [r3], #-2412	; 0x96c
 428:	73552f00 	cmpvc	r5, #0, 30
 42c:	2f737265 	svccs	0x00737265
 430:	61697262 	cmnvs	r9, r2, ror #4
 434:	6e756a6e 	vsubvs.f32	s13, s10, s29
 438:	7365442f 	cmnvc	r5, #788529152	; 0x2f000000
 43c:	706f746b 	rsbvc	r7, pc, fp, ror #8
 440:	6863732f 	stmdavs	r3!, {r0, r1, r2, r3, r5, r8, r9, ip, sp, lr}^
 444:	2f6c6f6f 	svccs	0x006c6f6f
 448:	746e6957 	strbtvc	r6, [lr], #-2391	; 0x957
 44c:	39317265 	ldmdbcc	r1!, {r0, r2, r5, r6, r9, ip, sp, lr}
 450:	432f3032 	teqmi	pc, #50	; 0x32
 454:	30343153 	eorscc	r3, r4, r3, asr r1
 458:	73632f45 	cmnvc	r3, #276	; 0x114
 45c:	65303431 	ldrvs	r3, [r0, #-1073]!	; 0x431
 460:	7730322d 	ldrvc	r3, [r0, -sp, lsr #4]!
 464:	6c2f6e69 	stcvs	14, cr6, [pc], #-420	; 2c8 <_start-0x7d38>
 468:	69706269 	ldmdbvs	r0!, {r0, r3, r5, r6, r9, sp, lr}^
 46c:	67726100 	ldrbvs	r6, [r2, -r0, lsl #2]!
 470:	5f5f0073 	svcpl	0x005f0073
 474:	69007061 	stmdbvs	r0, {r0, r5, r6, ip, sp, lr}
 478:	7265746e 	rsbvc	r7, r5, #1845493760	; 0x6e000000
 47c:	5f6c616e 	svcpl	0x006c616e
 480:	63747570 	cmnvs	r4, #112, 10	; 0x1c000000
 484:	00726168 	rsbseq	r6, r2, r8, ror #2
 488:	5f697072 	svcpl	0x00697072
 48c:	63747570 	cmnvs	r4, #112, 10	; 0x1c000000
 490:	00726168 	rsbseq	r6, r2, r8, ror #2
 494:	6362696c 	cmnvs	r2, #108, 18	; 0x1b0000
 498:	7475702f 	ldrbtvc	r7, [r5], #-47	; 0x2f
 49c:	72616863 	rsbvc	r6, r1, #6488064	; 0x630000
 4a0:	7200632e 	andvc	r6, r0, #-1207959552	; 0xb8000000
 4a4:	735f6970 	cmpvc	pc, #112, 18	; 0x1c0000
 4a8:	705f7465 	subsvc	r7, pc, r5, ror #8
 4ac:	00637475 	rsbeq	r7, r3, r5, ror r4
 4b0:	6362696c 	cmnvs	r2, #108, 18	; 0x1b0000
 4b4:	7475702f 	ldrbtvc	r7, [r5], #-47	; 0x2f
 4b8:	00632e6b 	rsbeq	r2, r3, fp, ror #28
 4bc:	65746e69 	ldrbvs	r6, [r4, #-3689]!	; 0xe69
 4c0:	6c616e72 	stclvs	14, cr6, [r1], #-456	; 0xfffffe38
 4c4:	7475705f 	ldrbtvc	r7, [r5], #-95	; 0x5f
 4c8:	656e006b 	strbvs	r0, [lr, #-107]!	; 0x6b
 4cc:	00705f67 	rsbseq	r5, r0, r7, ror #30
 4d0:	65766572 	ldrbvs	r6, [r6, #-1394]!	; 0x572
 4d4:	00657372 	rsbeq	r7, r5, r2, ror r3
 4d8:	69647369 	stmdbvs	r4!, {r0, r3, r5, r6, r8, r9, ip, sp, lr}^
 4dc:	00746967 	rsbseq	r6, r4, r7, ror #18
 4e0:	73747570 	cmnvc	r4, #112, 10	; 0x1c000000
 4e4:	0070665f 	rsbseq	r6, r0, pc, asr r6
 4e8:	65736162 	ldrbvs	r6, [r3, #-354]!	; 0x162
 4ec:	67697300 	strbvs	r7, [r9, -r0, lsl #6]!
 4f0:	5f64656e 	svcpl	0x0064656e
 4f4:	696c0070 	stmdbvs	ip!, {r4, r5, r6}^
 4f8:	762f6362 	strtvc	r6, [pc], -r2, ror #6
 4fc:	72702d61 	rsbsvc	r2, r0, #6208	; 0x1840
 500:	6b746e69 	blvs	1d1beac <__bss_end__+0x1d115b4>
 504:	7200632e 	andvc	r6, r0, #-1207959552	; 0xb8000000
 508:	735f6970 	cmpvc	pc, #112, 18	; 0x1c0000
 50c:	6f5f7465 	svcvs	0x005f7465
 510:	75707475 	ldrbvc	r7, [r0, #-1141]!	; 0x475
 514:	69770074 	ldmdbvs	r7!, {r2, r4, r5, r6}^
 518:	00687464 	rsbeq	r7, r8, r4, ror #8
 51c:	63747570 	cmnvs	r4, #112, 10	; 0x1c000000
 520:	0070665f 	rsbseq	r6, r0, pc, asr r6
 524:	74696d65 	strbtvc	r6, [r9], #-3429	; 0xd65
 528:	73696400 	cmnvc	r9, #0, 8
 52c:	656c6261 	strbvs	r6, [ip, #-609]!	; 0x261
 530:	6361635f 	cmnvs	r1, #2080374785	; 0x7c000001
 534:	63006568 	movwvs	r6, #1384	; 0x568
 538:	30343173 	eorscc	r3, r4, r3, ror r1
 53c:	72732d65 	rsbsvc	r2, r3, #6464	; 0x1940
 540:	61632f63 	cmnvs	r3, r3, ror #30
 544:	2e656863 	cdpcs	8, 6, cr6, cr5, cr3, {3}
 548:	70720063 	rsbsvc	r0, r2, r3, rrx
 54c:	65725f69 	ldrbvs	r5, [r2, #-3945]!	; 0xf69
 550:	746f6f62 	strbtvc	r6, [pc], #-3938	; 558 <_start-0x7aa8>
 554:	31736300 	cmncc	r3, r0, lsl #6
 558:	2d653034 	stclcs	0, cr3, [r5, #-208]!	; 0xffffff30
 55c:	2f637273 	svccs	0x00637273
 560:	61656c63 	cmnvs	r5, r3, ror #24
 564:	65722d6e 	ldrbvs	r2, [r2, #-3438]!	; 0xd6e
 568:	746f6f62 	strbtvc	r6, [pc], #-3938	; 570 <_start-0x7a90>
 56c:	6900632e 	stmdbvs	r0, {r1, r2, r3, r5, r8, r9, sp, lr}
 570:	7265746e 	rsbvc	r7, r5, #1845493760	; 0x6e000000
 574:	5f6c616e 	svcpl	0x006c616e
 578:	705f7773 	subsvc	r7, pc, r3, ror r7	; <UNPREDICTABLE>
 57c:	68637475 	stmdavs	r3!, {r0, r2, r4, r5, r6, sl, ip, sp, lr}^
 580:	5f007261 	svcpl	0x00007261
 584:	7373625f 	cmnvc	r3, #-268435451	; 0xf0000005
 588:	6174735f 	cmnvs	r4, pc, asr r3
 58c:	5f5f7472 	svcpl	0x005f7472
 590:	73736200 	cmnvc	r3, #0, 4
 594:	646e655f 	strbtvs	r6, [lr], #-1375	; 0x55f
 598:	63796300 	cmnvs	r9, #0, 6
 59c:	705f656c 	subsvc	r6, pc, ip, ror #10
 5a0:	625f7265 	subsvs	r7, pc, #1342177286	; 0x50000006
 5a4:	63007469 	movwvs	r7, #1129	; 0x469
 5a8:	6f736e6f 	svcvs	0x00736e6f
 5ac:	755f656c 	ldrbvc	r6, [pc, #-1388]	; 48 <_start-0x7fb8>
 5b0:	00747261 	rsbseq	r7, r4, r1, ror #4
 5b4:	755f7773 	ldrbvc	r7, [pc, #-1907]	; fffffe49 <__bss_end__+0xffff5551>
 5b8:	5f747261 	svcpl	0x00747261
 5bc:	6e697270 	mcrvs	2, 3, r7, cr9, cr0, {3}
 5c0:	50006b74 	andpl	r6, r0, r4, ror fp
 5c4:	5f435455 	svcpl	0x00435455
 5c8:	5f505345 	svcpl	0x00505345
 5cc:	54524155 	ldrbpl	r4, [r2], #-341	; 0x155
 5d0:	5f777300 	svcpl	0x00777300
 5d4:	74726175 	ldrbtvc	r6, [r2], #-373	; 0x175
 5d8:	5000745f 	andpl	r7, r0, pc, asr r4
 5dc:	5f435455 	svcpl	0x00435455
 5e0:	555f5753 	ldrbpl	r5, [pc, #-1875]	; fffffe95 <__bss_end__+0xffff559d>
 5e4:	00545241 	subseq	r5, r4, r1, asr #4
 5e8:	64756162 	ldrbtvs	r6, [r5], #-354	; 0x162
 5ec:	54555000 	ldrbpl	r5, [r5], #-0
 5f0:	57485f43 	strbpl	r5, [r8, -r3, asr #30]
 5f4:	5241555f 	subpl	r5, r1, #398458880	; 0x17c00000
 5f8:	635f0054 	cmpvs	pc, #84	; 0x54
 5fc:	72617473 	rsbvc	r7, r1, #1929379840	; 0x73000000
 600:	61750074 	cmnvs	r5, r4, ror r0
 604:	645f7472 	ldrbvs	r7, [pc], #-1138	; 60c <_start-0x79f4>
 608:	745f7665 	ldrbvc	r7, [pc], #-1637	; 610 <_start-0x79f0>
 60c:	5f777300 	svcpl	0x00777300
 610:	74726175 	ldrbtvc	r6, [r2], #-373	; 0x175
 614:	7475705f 	ldrbtvc	r7, [r5], #-95	; 0x5f
 618:	6f630063 	svcvs	0x00630063
 61c:	6f72746e 	svcvs	0x0072746e
 620:	6c625f6c 	stclvs	15, cr5, [r2], #-432	; 0xfffffe50
 624:	00745f6b 	rsbseq	r5, r4, fp, ror #30
 628:	755f7773 	ldrbvc	r7, [pc, #-1907]	; fffffebd <__bss_end__+0xffff55c5>
 62c:	00747261 	rsbseq	r7, r4, r1, ror #4
 630:	675f6263 	ldrbvs	r6, [pc, -r3, ror #4]
 634:	625f7465 	subsvs	r7, pc, #1694498816	; 0x65000000
 638:	6b636f6c 	blvs	18dc3f0 <__bss_end__+0x18d1af8>
 63c:	625f5f00 	subsvs	r5, pc, #0, 30
 640:	655f7373 	ldrbvs	r7, [pc, #-883]	; 2d5 <_start-0x7d2b>
 644:	5f5f646e 	svcpl	0x005f646e
 648:	31736300 	cmncc	r3, r0, lsl #6
 64c:	2d653034 	stclcs	0, cr3, [r5, #-208]!	; 0xffffff30
 650:	2f637273 	svccs	0x00637273
 654:	61747363 	cmnvs	r4, r3, ror #6
 658:	632e7472 	teqvs	lr, #1912602624	; 0x72000000
 65c:	6e6f6300 	cdpvs	3, 6, cr6, cr15, cr0, {0}
 660:	656c6f73 	strbvs	r6, [ip, #-3955]!	; 0xf73
 664:	7665645f 			; <UNDEFINED> instruction: 0x7665645f
 668:	6e697500 	cdpvs	5, 6, cr7, cr9, cr0, {0}
 66c:	5f323374 	svcpl	0x00323374
 670:	616d0074 	smcvs	53252	; 0xd004
 674:	00636967 	rsbeq	r6, r3, r7, ror #18
 678:	755f7461 	ldrbvc	r7, [pc, #-1121]	; 21f <_start-0x7de1>
 67c:	5f726573 	svcpl	0x00726573
 680:	6576656c 	ldrbvs	r6, [r6, #-1388]!	; 0x56c
 684:	4d50006c 	ldclmi	0, cr0, [r0, #-432]	; 0xfffffe50
 688:	5341505f 	movtpl	r5, #4191	; 0x105f
 68c:	524f5753 	subpl	r5, pc, #21757952	; 0x14c0000
 690:	73630044 	cmnvc	r3, #68	; 0x44
 694:	65303431 	ldrvs	r3, [r0, #-1073]!	; 0x431
 698:	6372732d 	cmnvs	r2, #-1275068416	; 0xb4000000
 69c:	6265722f 	rsbvs	r7, r5, #-268435454	; 0xf0000002
 6a0:	2e746f6f 	cdpcs	15, 7, cr6, cr4, cr15, {3}
 6a4:	4d500063 	ldclmi	0, cr0, [r0, #-396]	; 0xfffffe74
 6a8:	5453525f 	ldrbpl	r5, [r3], #-607	; 0x25f
 6ac:	52575f43 	subspl	r5, r7, #268	; 0x10c
 6b0:	5f474643 	svcpl	0x00474643
 6b4:	4c4c5546 	cfstr64mi	mvdx5, [ip], {70}	; 0x46
 6b8:	5345525f 	movtpl	r5, #21087	; 0x525f
 6bc:	50005445 	andpl	r5, r0, r5, asr #8
 6c0:	44575f4d 	ldrbmi	r5, [r7], #-3917	; 0xf4d
 6c4:	7300474f 	movwvc	r4, #1871	; 0x74f
 6c8:	755f7465 	ldrbvc	r7, [pc, #-1125]	; 26b <_start-0x7d95>
 6cc:	5f726573 	svcpl	0x00726573
 6d0:	6576656c 	ldrbvs	r6, [r6, #-1388]!	; 0x56c
 6d4:	5550006c 	ldrbpl	r0, [r0, #-108]	; 0x6c
 6d8:	00323354 	eorseq	r3, r2, r4, asr r3
 6dc:	525f4d50 	subspl	r4, pc, #80, 26	; 0x1400
 6e0:	00435453 	subeq	r5, r3, r3, asr r4
 6e4:	72737063 	rsbsvc	r7, r3, #99	; 0x63
 6e8:	6d697400 	cfstrdvs	mvd7, [r9, #-0]
 6ec:	675f7265 	ldrbvs	r7, [pc, -r5, ror #4]
 6f0:	755f7465 	ldrbvc	r7, [pc, #-1125]	; 293 <_start-0x7d6d>
 6f4:	5f636573 	svcpl	0x00636573
 6f8:	00776172 	rsbseq	r6, r7, r2, ror r1
 6fc:	616c6564 	cmnvs	ip, r4, ror #10
 700:	65735f79 	ldrbvs	r5, [r3, #-3961]!	; 0xf79
 704:	73630063 	cmnvc	r3, #99	; 0x63
 708:	65303431 	ldrvs	r3, [r0, #-1073]!	; 0x431
 70c:	6372732d 	cmnvs	r2, #-1275068416	; 0xb4000000
 710:	6d69742f 	cfstrdvs	mvd7, [r9, #-188]!	; 0xffffff44
 714:	632e7265 	teqvs	lr, #1342177286	; 0x50000006
 718:	54454700 	strbpl	r4, [r5], #-1792	; 0x700
 71c:	74003233 	strvc	r3, [r0], #-563	; 0x233
 720:	736b6369 	cmnvc	fp, #-1543503871	; 0xa4000001
 724:	6c656400 	cfstrdvs	mvd6, [r5], #-0
 728:	635f7961 	cmpvs	pc, #1589248	; 0x184000
 72c:	656c6379 	strbvs	r6, [ip, #-889]!	; 0x379
 730:	65640073 	strbvs	r0, [r4, #-115]!	; 0x73
 734:	5f79616c 	svcpl	0x0079616c
 738:	74007375 	strvc	r7, [r0], #-885	; 0x375
 73c:	72656d69 	rsbvc	r6, r5, #6720	; 0x1a40
 740:	7465675f 	strbtvc	r6, [r5], #-1887	; 0x75f
 744:	6573755f 	ldrbvs	r7, [r3, #-1375]!	; 0x55f
 748:	70670063 	rsbvc	r0, r7, r3, rrx
 74c:	655f6f69 	ldrbvs	r6, [pc, #-3945]	; fffff7eb <__bss_end__+0xffff4ef3>
 750:	746e6576 	strbtvc	r6, [lr], #-1398	; 0x576
 754:	7465645f 	strbtvc	r6, [r5], #-1119	; 0x45f
 758:	65746365 	ldrbvs	r6, [r4, #-869]!	; 0x365
 75c:	75700064 	ldrbvc	r0, [r0, #-100]!	; 0x64
 760:	00323374 	eorseq	r3, r2, r4, ror r3
 764:	42414e45 	submi	r4, r1, #1104	; 0x450
 768:	495f454c 	ldmdbmi	pc, {r2, r3, r6, r8, sl, lr}^	; <UNPREDICTABLE>
 76c:	5f535152 	svcpl	0x00535152
 770:	73690032 	cmnvc	r9, #50	; 0x32
 774:	6970675f 	ldmdbvs	r0!, {r0, r1, r2, r3, r4, r6, r8, r9, sl, sp, lr}^
 778:	6e695f6f 	cdpvs	15, 6, cr5, cr9, cr15, {3}
 77c:	50470074 	subpl	r0, r7, r4, ror r0
 780:	465f4f49 	ldrbmi	r4, [pc], -r9, asr #30
 784:	5f434e55 	svcpl	0x00434e55
 788:	55504e49 	ldrbpl	r4, [r0, #-3657]	; 0xe49
 78c:	796d0054 	stmdbvc	sp!, {r2, r4, r6}^
 790:	6372732d 	cmnvs	r2, #-1275068416	; 0xb4000000
 794:	6970672f 	ldmdbvs	r0!, {r0, r1, r2, r3, r5, r8, r9, sl, sp, lr}^
 798:	00632e6f 	rsbeq	r2, r3, pc, ror #28
 79c:	5f746e69 	svcpl	0x00746e69
 7a0:	6b73616d 	blvs	1cd8d5c <__bss_end__+0x1cce464>
 7a4:	67657200 	strbvs	r7, [r5, -r0, lsl #4]!
 7a8:	6174735f 	cmnvs	r4, pc, asr r3
 7ac:	70670074 	rsbvc	r0, r7, r4, ror r0
 7b0:	725f6f69 	subsvc	r6, pc, #420	; 0x1a4
 7b4:	64006765 	strvs	r6, [r0], #-1893	; 0x765
 7b8:	625f7665 	subsvs	r7, pc, #105906176	; 0x6500000
 7bc:	69727261 	ldmdbvs	r2!, {r0, r5, r6, r9, ip, sp, lr}^
 7c0:	67007265 	strvs	r7, [r0, -r5, ror #4]
 7c4:	5f6f6970 	svcpl	0x006f6970
 7c8:	64616572 	strbtvs	r6, [r1], #-1394	; 0x572
 7cc:	69706700 	ldmdbvs	r0!, {r8, r9, sl, sp, lr}^
 7d0:	6e695f6f 	cdpvs	15, 6, cr5, cr9, cr15, {3}
 7d4:	69725f74 	ldmdbvs	r2!, {r2, r4, r5, r6, r8, r9, sl, fp, ip, lr}^
 7d8:	676e6973 			; <UNDEFINED> instruction: 0x676e6973
 7dc:	6764655f 			; <UNDEFINED> instruction: 0x6764655f
 7e0:	70670065 	rsbvc	r0, r7, r5, rrx
 7e4:	735f6f69 	cmpvc	pc, #420	; 0x1a4
 7e8:	665f7465 	ldrbvs	r7, [pc], -r5, ror #8
 7ec:	74636e75 	strbtvc	r6, [r3], #-3701	; 0xe75
 7f0:	006e6f69 	rsbeq	r6, lr, r9, ror #30
 7f4:	45525047 	ldrbmi	r5, [r2, #-71]	; 0x47
 7f8:	4700304e 	strmi	r3, [r0, -lr, asr #32]
 7fc:	4e455250 	mcrmi	2, 2, r5, cr5, cr0, {2}
 800:	52490031 	subpl	r0, r9, #49	; 0x31
 804:	45505f51 	ldrbmi	r5, [r0, #-3921]	; 0xf51
 808:	4e49444e 	cdpmi	4, 4, cr4, cr9, cr14, {2}
 80c:	00315f47 	eorseq	r5, r1, r7, asr #30
 810:	5f515249 	svcpl	0x00515249
 814:	444e4550 	strbmi	r4, [lr], #-1360	; 0x550
 818:	5f474e49 	svcpl	0x00474e49
 81c:	69620032 	stmdbvs	r2!, {r1, r4, r5}^
 820:	73616d74 	cmnvc	r1, #116, 26	; 0x1d00
 824:	7566006b 	strbvc	r0, [r6, #-107]!	; 0x6b
 828:	6700636e 	strvs	r6, [r0, -lr, ror #6]
 82c:	5f6f6970 	svcpl	0x006f6970
 830:	67676f74 			; <UNDEFINED> instruction: 0x67676f74
 834:	4700656c 	strmi	r6, [r0, -ip, ror #10]
 838:	53444550 	movtpl	r4, #17744	; 0x4550
 83c:	50470030 	subpl	r0, r7, r0, lsr r0
 840:	31534445 	cmpcc	r3, r5, asr #8
 844:	46504700 	ldrbmi	r4, [r0], -r0, lsl #14
 848:	00304e45 	eorseq	r4, r0, r5, asr #28
 84c:	45465047 	strbmi	r5, [r6, #-71]	; 0x47
 850:	4700314e 	strmi	r3, [r0, -lr, asr #2]
 854:	5f4f4950 	svcpl	0x004f4950
 858:	434e5546 	movtmi	r5, #58694	; 0xe546
 85c:	54554f5f 	ldrbpl	r4, [r5], #-3935	; 0xf5f
 860:	00545550 	subseq	r5, r4, r0, asr r5
 864:	33746567 	cmncc	r4, #432013312	; 0x19c00000
 868:	70670032 	rsbvc	r0, r7, r2, lsr r0
 86c:	665f6f69 	ldrbvs	r6, [pc], -r9, ror #30
 870:	5f636e75 	svcpl	0x00636e75
 874:	50470074 	subpl	r0, r7, r4, ror r0
 878:	465f4f49 	ldrbmi	r4, [pc], -r9, asr #30
 87c:	5f434e55 	svcpl	0x00434e55
 880:	30544c41 	subscc	r4, r4, r1, asr #24
 884:	49504700 	ldmdbmi	r0, {r8, r9, sl, lr}^
 888:	55465f4f 	strbpl	r5, [r6, #-3919]	; 0xf4f
 88c:	415f434e 	cmpmi	pc, lr, asr #6
 890:	0031544c 	eorseq	r5, r1, ip, asr #8
 894:	4f495047 	svcmi	0x00495047
 898:	4e55465f 	mrcmi	6, 2, r4, cr5, cr15, {2}
 89c:	4c415f43 	mcrrmi	15, 4, r5, r1, cr3
 8a0:	47003254 	smlsdmi	r0, r4, r2, r3
 8a4:	5f4f4950 	svcpl	0x004f4950
 8a8:	434e5546 	movtmi	r5, #58694	; 0xe546
 8ac:	544c415f 	strbpl	r4, [ip], #-351	; 0x15f
 8b0:	50470033 	subpl	r0, r7, r3, lsr r0
 8b4:	465f4f49 	ldrbmi	r4, [pc], -r9, asr #30
 8b8:	5f434e55 	svcpl	0x00434e55
 8bc:	34544c41 	ldrbcc	r4, [r4], #-3137	; 0xc41
 8c0:	49504700 	ldmdbmi	r0, {r8, r9, sl, lr}^
 8c4:	55465f4f 	strbpl	r5, [r6, #-3919]	; 0xf4f
 8c8:	415f434e 	cmpmi	pc, lr, asr #6
 8cc:	0035544c 	eorseq	r5, r5, ip, asr #8
 8d0:	5f676572 	svcpl	0x00676572
 8d4:	656c6573 	strbvs	r6, [ip, #-1395]!	; 0x573
 8d8:	63007463 	movwvs	r7, #1123	; 0x463
 8dc:	705f6379 	subsvc	r6, pc, r9, ror r3	; <UNPREDICTABLE>
 8e0:	625f7265 	subsvs	r7, pc, #1342177286	; 0x50000006
 8e4:	77007469 	strvc	r7, [r0, -r9, ror #8]
 8e8:	65746972 	ldrbvs	r6, [r4, #-2418]!	; 0x972
 8ec:	6379635f 	cmnvs	r9, #2080374785	; 0x7c000001
 8f0:	746e755f 	strbtvc	r7, [lr], #-1375	; 0x55f
 8f4:	73006c69 	movwvc	r6, #3177	; 0xc69
 8f8:	61755f77 	cmnvs	r5, r7, ror pc
 8fc:	675f7472 			; <UNDEFINED> instruction: 0x675f7472
 900:	5f637465 	svcpl	0x00637465
 904:	656d6974 	strbvs	r6, [sp, #-2420]!	; 0x974
 908:	0074756f 	rsbseq	r7, r4, pc, ror #10
 90c:	755f7773 	ldrbvc	r7, [pc, #-1907]	; 1a1 <_start-0x7e5f>
 910:	5f747261 	svcpl	0x00747261
 914:	73746567 	cmnvc	r4, #432013312	; 0x19c00000
 918:	746e755f 	strbtvc	r7, [lr], #-1375	; 0x55f
 91c:	73006c69 	movwvc	r6, #3177	; 0xc69
 920:	61755f77 	cmnvs	r5, r7, ror pc
 924:	675f7472 			; <UNDEFINED> instruction: 0x675f7472
 928:	00637465 	rsbeq	r7, r3, r5, ror #8
 92c:	69726564 	ldmdbvs	r2!, {r2, r5, r6, r8, sl, sp, lr}^
 930:	00646576 	rsbeq	r6, r4, r6, ror r5
 934:	616c6564 	cmnvs	ip, r4, ror #10
 938:	636e5f79 	cmnvs	lr, #484	; 0x1e4
 93c:	656c6379 	strbvs	r6, [ip, #-889]!	; 0x379
 940:	77730073 			; <UNDEFINED> instruction: 0x77730073
 944:	7261755f 	rsbvc	r7, r1, #398458880	; 0x17c00000
 948:	6e695f74 	mcrvs	15, 3, r5, cr9, cr4, {3}
 94c:	685f7469 	ldmdavs	pc, {r0, r3, r5, r6, sl, ip, sp, lr}^	; <UNPREDICTABLE>
 950:	65706c65 	ldrbvs	r6, [r0, #-3173]!	; 0xc65
 954:	69740072 	ldmdbvs	r4!, {r1, r4, r5, r6}^
 958:	756f656d 	strbvc	r6, [pc, #-1389]!	; 3f3 <_start-0x7c0d>
 95c:	73755f74 	cmnvc	r5, #116, 30	; 0x1d0
 960:	73006365 	movwvc	r6, #869	; 0x365
 964:	61755f77 	cmnvs	r5, r7, ror pc
 968:	705f7472 	subsvc	r7, pc, r2, ror r4	; <UNPREDICTABLE>
 96c:	006b7475 	rsbeq	r7, fp, r5, ror r4
 970:	732d796d 	teqvc	sp, #1785856	; 0x1b4000
 974:	732f6372 	teqvc	pc, #-939524095	; 0xc8000001
 978:	61752d77 	cmnvs	r5, r7, ror sp
 97c:	632e7472 	teqvs	lr, #1912602624	; 0x72000000
 980:	61686300 	cmnvs	r8, r0, lsl #6
 984:	6e695f72 	mcrvs	15, 3, r5, cr9, cr2, {3}
 988:	5f777300 	svcpl	0x00777300
 98c:	74726175 	ldrbtvc	r6, [r2], #-373	; 0x175
 990:	7465675f 	strbtvc	r6, [r5], #-1887	; 0x75f
 994:	69745f73 	ldmdbvs	r4!, {r0, r1, r4, r5, r6, r8, r9, sl, fp, ip, lr}^
 998:	756f656d 	strbvc	r6, [pc, #-1389]!	; 433 <_start-0x7bcd>
 99c:	626e0074 	rsbvs	r0, lr, #116	; 0x74
 9a0:	73657479 	cmnvc	r5, #2030043136	; 0x79000000
 9a4:	65737500 	ldrbvs	r7, [r3, #-1280]!	; 0x500
 9a8:	69745f63 	ldmdbvs	r4!, {r0, r1, r5, r6, r8, r9, sl, fp, ip, lr}^
 9ac:	756f656d 	strbvc	r6, [pc, #-1389]!	; 447 <_start-0x7bb9>
 9b0:	77730074 			; <UNDEFINED> instruction: 0x77730074
 9b4:	7261755f 	rsbvc	r7, r1, #398458880	; 0x17c00000
 9b8:	65675f74 	strbvs	r5, [r7, #-3956]!	; 0xf74
 9bc:	755f7374 	ldrbvc	r7, [pc, #-884]	; 650 <_start-0x79b0>
 9c0:	6c69746e 	cfstrdvs	mvd7, [r9], #-440	; 0xfffffe48
 9c4:	6b6c625f 	blvs	1b19348 <__bss_end__+0x1b0ea50>
 9c8:	69617700 	stmdbvs	r1!, {r8, r9, sl, ip, sp, lr}^
 9cc:	6e755f74 	mrcvs	15, 3, r5, cr5, cr4, {3}
 9d0:	5f6c6974 	svcpl	0x006c6974
 9d4:	63657375 	cmnvs	r5, #-738197503	; 0xd4000001
 9d8:	58554100 	ldmdapl	r5, {r8, lr}^
 9dc:	5f554d5f 	svcpl	0x00554d5f
 9e0:	5f52434d 	svcpl	0x0052434d
 9e4:	00474552 	subeq	r4, r7, r2, asr r5
 9e8:	5f585541 	svcpl	0x00585541
 9ec:	495f554d 	ldmdbmi	pc, {r0, r2, r3, r6, r8, sl, ip, lr}^	; <UNPREDICTABLE>
 9f0:	45525f4f 	ldrbmi	r5, [r2, #-3919]	; 0xf4f
 9f4:	55410047 	strbpl	r0, [r1, #-71]	; 0x47
 9f8:	554d5f58 	strbpl	r5, [sp, #-3928]	; 0xf58
 9fc:	52534d5f 	subspl	r4, r3, #6080	; 0x17c0
 a00:	4745525f 	smlsldmi	r5, r5, pc, r2	; <UNPREDICTABLE>
 a04:	72617500 	rsbvc	r7, r1, #0, 10
 a08:	61635f74 	smcvs	13812	; 0x35f4
 a0c:	65675f6e 	strbvs	r5, [r7, #-3950]!	; 0xf6e
 a10:	41006374 	tstmi	r0, r4, ror r3
 a14:	4d5f5855 	ldclmi	8, cr5, [pc, #-340]	; 8c8 <_start-0x7738>
 a18:	4e435f55 	mcrmi	15, 2, r5, cr3, cr5, {2}
 a1c:	525f4c54 	subspl	r4, pc, #84, 24	; 0x5400
 a20:	75004745 	strvc	r4, [r0, #-1861]	; 0x745
 a24:	5f747261 	svcpl	0x00747261
 a28:	5f736168 	svcpl	0x00736168
 a2c:	61746164 	cmnvs	r4, r4, ror #2
 a30:	58554100 	ldmdapl	r5, {r8, lr}^
 a34:	5f554d5f 	svcpl	0x00554d5f
 a38:	5f524549 	svcpl	0x00524549
 a3c:	00474552 	subeq	r4, r7, r2, asr r5
 a40:	5f585541 	svcpl	0x00585541
 a44:	495f554d 	ldmdbmi	pc, {r0, r2, r3, r6, r8, sl, ip, lr}^	; <UNPREDICTABLE>
 a48:	525f5249 	subspl	r5, pc, #-1879048188	; 0x90000004
 a4c:	75004745 	strvc	r4, [r0, #-1861]	; 0x745
 a50:	5f747261 	svcpl	0x00747261
 a54:	5f6e6163 	svcpl	0x006e6163
 a58:	63747570 	cmnvs	r4, #112, 10	; 0x1c000000
 a5c:	58554100 	ldmdapl	r5, {r8, lr}^
 a60:	414e455f 	cmpmi	lr, pc, asr r5
 a64:	53454c42 	movtpl	r4, #23618	; 0x5c42
 a68:	58554100 	ldmdapl	r5, {r8, lr}^
 a6c:	5152495f 	cmppl	r2, pc, asr r9
 a70:	58554100 	ldmdapl	r5, {r8, lr}^
 a74:	5f554d5f 	svcpl	0x00554d5f
 a78:	44554142 	ldrbmi	r4, [r5], #-322	; 0x142
 a7c:	4745525f 	smlsldmi	r5, r5, pc, r2	; <UNPREDICTABLE>
 a80:	58554100 	ldmdapl	r5, {r8, lr}^
 a84:	5f554d5f 	svcpl	0x00554d5f
 a88:	54415453 	strbpl	r5, [r1], #-1107	; 0x453
 a8c:	4745525f 	smlsldmi	r5, r5, pc, r2	; <UNPREDICTABLE>
 a90:	58554100 	ldmdapl	r5, {r8, lr}^
 a94:	5f554d5f 	svcpl	0x00554d5f
 a98:	41524353 	cmpmi	r2, r3, asr r3
 a9c:	00484354 	subeq	r4, r8, r4, asr r3
 aa0:	732d796d 	teqvc	sp, #1785856	; 0x1b4000
 aa4:	752f6372 	strvc	r6, [pc, #-882]!	; 73a <_start-0x78c6>
 aa8:	2e747261 	cdpcs	2, 7, cr7, cr4, cr1, {3}
 aac:	55410063 	strbpl	r0, [r1, #-99]	; 0x63
 ab0:	554d5f58 	strbpl	r5, [sp, #-3928]	; 0xf58
 ab4:	52434c5f 	subpl	r4, r3, #24320	; 0x5f00
 ab8:	4745525f 	smlsldmi	r5, r5, pc, r2	; <UNPREDICTABLE>
 abc:	58554100 	ldmdapl	r5, {r8, lr}^
 ac0:	5f554d5f 	svcpl	0x00554d5f
 ac4:	5f52534c 	svcpl	0x0052534c
 ac8:	00474552 	subeq	r4, r7, r2, asr r5
 acc:	74726175 	ldrbtvc	r6, [r2], #-373	; 0x175
 ad0:	7465675f 	strbtvc	r6, [r5], #-1887	; 0x75f
 ad4:	73615f63 	cmnvc	r1, #396	; 0x18c
 ad8:	00636e79 	rsbeq	r6, r3, r9, ror lr
 adc:	5f515249 	svcpl	0x00515249
 ae0:	646e6570 	strbtvs	r6, [lr], #-1392	; 0x570
 ae4:	5f676e69 	svcpl	0x00676e69
 ae8:	69440032 	stmdbvs	r4, {r1, r4, r5}^
 aec:	6c626173 	stfvse	f6, [r2], #-460	; 0xfffffe34
 af0:	61425f65 	cmpvs	r2, r5, ror #30
 af4:	5f636973 	svcpl	0x00636973
 af8:	73515249 	cmpvc	r1, #-1879048188	; 0x90000004
 afc:	51494600 	cmppl	r9, r0, lsl #12
 b00:	6e6f635f 	mcrvs	3, 3, r6, cr15, cr15, {2}
 b04:	6c6f7274 	sfmvs	f7, 2, [pc], #-464	; 93c <_start-0x76c4>
 b08:	6e695f00 	cdpvs	15, 6, cr5, cr9, cr0, {0}
 b0c:	72726574 	rsbsvc	r6, r2, #116, 10	; 0x1d000000
 b10:	5f747075 	svcpl	0x00747075
 b14:	6c626174 	stfvse	f6, [r2], #-464	; 0xfffffe30
 b18:	52490065 	subpl	r0, r9, #101	; 0x65
 b1c:	61625f51 	cmnvs	r2, r1, asr pc
 b20:	5f636973 	svcpl	0x00636973
 b24:	646e6570 	strbtvs	r6, [lr], #-1392	; 0x570
 b28:	00676e69 	rsbeq	r6, r7, r9, ror #28
 b2c:	62616e45 	rsbvs	r6, r1, #1104	; 0x450
 b30:	425f656c 	subsmi	r6, pc, #108, 10	; 0x1b000000
 b34:	63697361 	cmnvs	r9, #-2080374783	; 0x84000001
 b38:	5152495f 	cmppl	r2, pc, asr r9
 b3c:	6e450073 	mcrvs	0, 2, r0, cr5, cr3, {3}
 b40:	656c6261 	strbvs	r6, [ip, #-609]!	; 0x261
 b44:	5152495f 	cmppl	r2, pc, asr r9
 b48:	00315f73 	eorseq	r5, r1, r3, ror pc
 b4c:	62616e45 	rsbvs	r6, r1, #1104	; 0x450
 b50:	495f656c 	ldmdbmi	pc, {r2, r3, r5, r6, r8, sl, sp, lr}^	; <UNPREDICTABLE>
 b54:	5f735152 	svcpl	0x00735152
 b58:	695f0032 	ldmdbvs	pc, {r1, r4, r5}^	; <UNPREDICTABLE>
 b5c:	7265746e 	rsbvc	r7, r5, #1845493760	; 0x6e000000
 b60:	74707572 	ldrbtvc	r7, [r0], #-1394	; 0x572
 b64:	6261745f 	rsbvs	r7, r1, #1593835520	; 0x5f000000
 b68:	655f656c 	ldrbvs	r6, [pc, #-1388]	; 604 <_start-0x79fc>
 b6c:	6300646e 	movwvs	r6, #1134	; 0x46e
 b70:	30343173 	eorscc	r3, r4, r3, ror r1
 b74:	6e692d65 	cdpvs	13, 6, cr2, cr9, cr5, {3}
 b78:	72726574 	rsbsvc	r6, r2, #116, 10	; 0x1d000000
 b7c:	2f747075 	svccs	0x00747075
 b80:	65746e69 	ldrbvs	r6, [r4, #-3689]!	; 0xe69
 b84:	70757272 	rsbsvc	r7, r5, r2, ror r2
 b88:	632d7374 	teqvs	sp, #116, 6	; 0xd0000001
 b8c:	4900632e 	stmdbmi	r0, {r1, r2, r3, r5, r8, r9, sp, lr}
 b90:	425f5152 	subsmi	r5, pc, #-2147483628	; 0x80000014
 b94:	00657361 	rsbeq	r7, r5, r1, ror #6
 b98:	61736944 	cmnvs	r3, r4, asr #18
 b9c:	5f656c62 	svcpl	0x00656c62
 ba0:	73515249 	cmpvc	r1, #-1879048188	; 0x90000004
 ba4:	4400315f 	strmi	r3, [r0], #-351	; 0x15f
 ba8:	62617369 	rsbvs	r7, r1, #-1543503871	; 0xa4000001
 bac:	495f656c 	ldmdbmi	pc, {r2, r3, r5, r6, r8, sl, sp, lr}^	; <UNPREDICTABLE>
 bb0:	5f735152 	svcpl	0x00735152
 bb4:	61660032 	cmnvs	r6, r2, lsr r0
 bb8:	695f7473 	ldmdbvs	pc, {r0, r1, r4, r5, r6, sl, ip, sp, lr}^	; <UNPREDICTABLE>
 bbc:	7265746e 	rsbvc	r7, r5, #1845493760	; 0x6e000000
 bc0:	74707572 	ldrbtvc	r7, [r0], #-1394	; 0x572
 bc4:	6365765f 	cmnvs	r5, #99614720	; 0x5f00000
 bc8:	00726f74 	rsbseq	r6, r2, r4, ror pc
 bcc:	5f515249 	svcpl	0x00515249
 bd0:	646e6570 	strbtvs	r6, [lr], #-1392	; 0x570
 bd4:	5f676e69 	svcpl	0x00676e69
 bd8:	69730031 	ldmdbvs	r3!, {r0, r4, r5}^
 bdc:	745f657a 	ldrbvc	r6, [pc], #-1402	; be4 <_start-0x741c>
 be0:	6d656d00 	stclvs	13, cr6, [r5, #-0]
 be4:	00746573 	rsbseq	r6, r4, r3, ror r5
 be8:	6e5f6263 	cdpvs	2, 5, cr6, cr15, cr3, {3}
 bec:	63007765 	movwvs	r7, #1893	; 0x765
 bf0:	30343173 	eorscc	r3, r4, r3, ror r1
 bf4:	72732d65 	rsbsvc	r2, r3, #6464	; 0x1940
 bf8:	6f632f63 	svcvs	0x00632f63
 bfc:	6f72746e 	svcvs	0x0072746e
 c00:	6c622d6c 	stclvs	13, cr2, [r2], #-432	; 0xfffffe50
 c04:	2e6b636f 	cdpcs	3, 6, cr6, cr11, cr15, {3}
 c08:	73630063 	cmnvc	r3, #99	; 0x63
 c0c:	65303431 	ldrvs	r3, [r0, #-1073]!	; 0x431
 c10:	746e692d 	strbtvc	r6, [lr], #-2349	; 0x92d
 c14:	75727265 	ldrbvc	r7, [r2, #-613]!	; 0x265
 c18:	642f7470 	strtvs	r7, [pc], #-1136	; c20 <_start-0x73e0>
 c1c:	75616665 	strbvc	r6, [r1, #-1637]!	; 0x665
 c20:	682d746c 	stmdavs	sp!, {r2, r3, r5, r6, sl, ip, sp, lr}
 c24:	6c646e61 	stclvs	14, cr6, [r4], #-388	; 0xfffffe7c
 c28:	642d7265 	strtvs	r7, [sp], #-613	; 0x265
 c2c:	2d617461 	cfstrdcs	mvd7, [r1, #-388]!	; 0xfffffe7c
 c30:	726f6261 	rsbvc	r6, pc, #268435462	; 0x10000006
 c34:	00632e74 	rsbeq	r2, r3, r4, ror lr
 c38:	61746164 	cmnvs	r4, r4, ror #2
 c3c:	6f62615f 	svcvs	0x0062615f
 c40:	765f7472 			; <UNDEFINED> instruction: 0x765f7472
 c44:	6f746365 	svcvs	0x00746365
 c48:	73630072 	cmnvc	r3, #114	; 0x72
 c4c:	65303431 	ldrvs	r3, [r0, #-1073]!	; 0x431
 c50:	746e692d 	strbtvc	r6, [lr], #-2349	; 0x92d
 c54:	75727265 	ldrbvc	r7, [r2, #-613]!	; 0x265
 c58:	642f7470 	strtvs	r7, [pc], #-1136	; c60 <_start-0x73a0>
 c5c:	75616665 	strbvc	r6, [r1, #-1637]!	; 0x665
 c60:	682d746c 	stmdavs	sp!, {r2, r3, r5, r6, sl, ip, sp, lr}
 c64:	6c646e61 	stclvs	14, cr6, [r4], #-388	; 0xfffffe7c
 c68:	702d7265 	eorvc	r7, sp, r5, ror #4
 c6c:	65666572 	strbvs	r6, [r6, #-1394]!	; 0x572
 c70:	2e686374 	mcrcs	3, 3, r6, cr8, cr4, {3}
 c74:	72700063 	rsbsvc	r0, r0, #99	; 0x63
 c78:	74656665 	strbtvc	r6, [r5], #-1637	; 0x665
 c7c:	615f6863 	cmpvs	pc, r3, ror #16
 c80:	74726f62 	ldrbtvc	r6, [r2], #-3938	; 0xf62
 c84:	6365765f 	cmnvs	r5, #99614720	; 0x5f00000
 c88:	00726f74 	rsbseq	r6, r2, r4, ror pc
 c8c:	65736572 	ldrbvs	r6, [r3, #-1394]!	; 0x572
 c90:	65765f74 	ldrbvs	r5, [r6, #-3956]!	; 0xf74
 c94:	726f7463 	rsbvc	r7, pc, #1660944384	; 0x63000000
 c98:	31736300 	cmncc	r3, r0, lsl #6
 c9c:	2d653034 	stclcs	0, cr3, [r5, #-208]!	; 0xffffff30
 ca0:	65746e69 	ldrbvs	r6, [r4, #-3689]!	; 0xe69
 ca4:	70757272 	rsbsvc	r7, r5, r2, ror r2
 ca8:	65642f74 	strbvs	r2, [r4, #-3956]!	; 0xf74
 cac:	6c756166 	ldfvse	f6, [r5], #-408	; 0xfffffe68
 cb0:	61682d74 	smcvs	33492	; 0x82d4
 cb4:	656c646e 	strbvs	r6, [ip, #-1134]!	; 0x46e
 cb8:	65722d72 	ldrbvs	r2, [r2, #-3442]!	; 0xd72
 cbc:	2e746573 	mrccs	5, 3, r6, cr4, cr3, {3}
 cc0:	73630063 	cmnvc	r3, #99	; 0x63
 cc4:	65303431 	ldrvs	r3, [r0, #-1073]!	; 0x431
 cc8:	746e692d 	strbtvc	r6, [lr], #-2349	; 0x92d
 ccc:	75727265 	ldrbvc	r7, [r2, #-613]!	; 0x265
 cd0:	642f7470 	strtvs	r7, [pc], #-1136	; cd8 <_start-0x7328>
 cd4:	75616665 	strbvc	r6, [r1, #-1637]!	; 0x665
 cd8:	682d746c 	stmdavs	sp!, {r2, r3, r5, r6, sl, ip, sp, lr}
 cdc:	6c646e61 	stclvs	14, cr6, [r4], #-388	; 0xfffffe7c
 ce0:	752d7265 	strvc	r7, [sp, #-613]!	; 0x265
 ce4:	6665646e 	strbtvs	r6, [r5], -lr, ror #8
 ce8:	64656e69 	strbtvs	r6, [r5], #-3689	; 0xe69
 cec:	736e692d 	cmnvc	lr, #737280	; 0xb4000
 cf0:	00632e74 	rsbeq	r2, r3, r4, ror lr
 cf4:	65646e75 	strbvs	r6, [r4, #-3701]!	; 0xe75
 cf8:	656e6966 	strbvs	r6, [lr, #-2406]!	; 0x966
 cfc:	6e695f64 	cdpvs	15, 6, cr5, cr9, cr4, {3}
 d00:	75727473 	ldrbvc	r7, [r2, #-1139]!	; 0x473
 d04:	6f697463 	svcvs	0x00697463
 d08:	65765f6e 	ldrbvs	r5, [r6, #-3950]!	; 0xf6e
 d0c:	726f7463 	rsbvc	r7, pc, #1660944384	; 0x63000000
 d10:	62696c00 	rsbvs	r6, r9, #0, 24
 d14:	656d2f63 	strbvs	r2, [sp, #-3939]!	; 0xf63
 d18:	7465736d 	strbtvc	r7, [r5], #-877	; 0x36d
 d1c:	Address 0x0000000000000d1c is out of bounds.


Disassembly of section .debug_frame:

00000000 <.debug_frame>:
   0:	0000000c 	andeq	r0, r0, ip
   4:	ffffffff 			; <UNDEFINED> instruction: 0xffffffff
   8:	7c020001 	stcvc	0, cr0, [r2], {1}
   c:	000d0c0e 	andeq	r0, sp, lr, lsl #24
  10:	00000014 	andeq	r0, r0, r4, lsl r0
  14:	00000000 	andeq	r0, r0, r0
  18:	00008010 	andeq	r8, r0, r0, lsl r0
  1c:	00000050 	andeq	r0, r0, r0, asr r0
  20:	84080e42 	strhi	r0, [r8], #-3650	; 0xe42
  24:	00018e02 	andeq	r8, r1, r2, lsl #28
  28:	00000014 	andeq	r0, r0, r4, lsl r0
  2c:	00000000 	andeq	r0, r0, r0
  30:	00008060 	andeq	r8, r0, r0, rrx
  34:	000001ec 	andeq	r0, r0, ip, ror #3
  38:	84040e42 	strhi	r0, [r4], #-3650	; 0xe42
  3c:	00000001 	andeq	r0, r0, r1
  40:	00000014 	andeq	r0, r0, r4, lsl r0
  44:	00000000 	andeq	r0, r0, r0
  48:	0000824c 	andeq	r8, r0, ip, asr #4
  4c:	0000028c 	andeq	r0, r0, ip, lsl #5
  50:	84040e42 	strhi	r0, [r4], #-3650	; 0xe42
  54:	00000001 	andeq	r0, r0, r1
  58:	00000020 	andeq	r0, r0, r0, lsr #32
  5c:	00000000 	andeq	r0, r0, r0
  60:	000084d8 	ldrdeq	r8, [r0], -r8	; <UNPREDICTABLE>
  64:	00000104 	andeq	r0, r0, r4, lsl #2
  68:	83200e42 	teqhi	r0, #1056	; 0x420
  6c:	85078408 	strhi	r8, [r7, #-1032]	; 0x408
  70:	87058606 	strhi	r8, [r5, -r6, lsl #12]
  74:	89038804 	stmdbhi	r3, {r2, fp, pc}
  78:	00018e02 	andeq	r8, r1, r2, lsl #28
  7c:	00000014 	andeq	r0, r0, r4, lsl r0
  80:	00000000 	andeq	r0, r0, r0
  84:	000085dc 	ldrdeq	r8, [r0], -ip
  88:	000000b0 	strheq	r0, [r0], -r0	; <UNPREDICTABLE>
  8c:	84080e42 	strhi	r0, [r8], #-3650	; 0xe42
  90:	00018e02 	andeq	r8, r1, r2, lsl #28
  94:	00000014 	andeq	r0, r0, r4, lsl r0
  98:	00000000 	andeq	r0, r0, r0
  9c:	0000868c 	andeq	r8, r0, ip, lsl #13
  a0:	00000044 	andeq	r0, r0, r4, asr #32
  a4:	83080e42 	movwhi	r0, #36418	; 0x8e42
  a8:	00018e02 	andeq	r8, r1, r2, lsl #28
  ac:	0000000c 	andeq	r0, r0, ip
  b0:	ffffffff 			; <UNDEFINED> instruction: 0xffffffff
  b4:	7c020001 	stcvc	0, cr0, [r2], {1}
  b8:	000d0c0e 	andeq	r0, sp, lr, lsl #24
  bc:	00000024 	andeq	r0, r0, r4, lsr #32
  c0:	000000ac 	andeq	r0, r0, ip, lsr #1
  c4:	000086d0 	ldrdeq	r8, [r0], -r0
  c8:	00000058 	andeq	r0, r0, r8, asr r0
  cc:	80100e42 	andshi	r0, r0, r2, asr #28
  d0:	82038104 	andhi	r8, r3, #4, 2
  d4:	42018302 	andmi	r8, r1, #134217728	; 0x8000000
  d8:	07841c0e 	streq	r1, [r4, lr, lsl #24]
  dc:	058e0685 	streq	r0, [lr, #1669]	; 0x685
  e0:	00280e42 	eoreq	r0, r8, r2, asr #28
  e4:	0000000c 	andeq	r0, r0, ip
  e8:	ffffffff 			; <UNDEFINED> instruction: 0xffffffff
  ec:	7c020001 	stcvc	0, cr0, [r2], {1}
  f0:	000d0c0e 	andeq	r0, sp, lr, lsl #24
  f4:	00000014 	andeq	r0, r0, r4, lsl r0
  f8:	000000e4 	andeq	r0, r0, r4, ror #1
  fc:	00008728 	andeq	r8, r0, r8, lsr #14
 100:	00000014 	andeq	r0, r0, r4, lsl r0
 104:	84080e42 	strhi	r0, [r8], #-3650	; 0xe42
 108:	00018e02 	andeq	r8, r1, r2, lsl #28
 10c:	0000000c 	andeq	r0, r0, ip
 110:	000000e4 	andeq	r0, r0, r4, ror #1
 114:	0000873c 	andeq	r8, r0, ip, lsr r7
 118:	00000018 	andeq	r0, r0, r8, lsl r0
 11c:	0000000c 	andeq	r0, r0, ip
 120:	000000e4 	andeq	r0, r0, r4, ror #1
 124:	00008754 	andeq	r8, r0, r4, asr r7
 128:	00000010 	andeq	r0, r0, r0, lsl r0
 12c:	0000000c 	andeq	r0, r0, ip
 130:	ffffffff 			; <UNDEFINED> instruction: 0xffffffff
 134:	7c020001 	stcvc	0, cr0, [r2], {1}
 138:	000d0c0e 	andeq	r0, sp, lr, lsl #24
 13c:	00000018 	andeq	r0, r0, r8, lsl r0
 140:	0000012c 	andeq	r0, r0, ip, lsr #2
 144:	00008764 	andeq	r8, r0, r4, ror #14
 148:	00000034 	andeq	r0, r0, r4, lsr r0
 14c:	83100e42 	tsthi	r0, #1056	; 0x420
 150:	85038404 	strhi	r8, [r3, #-1028]	; 0x404
 154:	00018e02 	andeq	r8, r1, r2, lsl #28
 158:	0000000c 	andeq	r0, r0, ip
 15c:	ffffffff 			; <UNDEFINED> instruction: 0xffffffff
 160:	7c020001 	stcvc	0, cr0, [r2], {1}
 164:	000d0c0e 	andeq	r0, sp, lr, lsl #24
 168:	0000000c 	andeq	r0, r0, ip
 16c:	00000158 	andeq	r0, r0, r8, asr r1
 170:	00008798 	muleq	r0, r8, r7
 174:	00000014 	andeq	r0, r0, r4, lsl r0
 178:	0000000c 	andeq	r0, r0, ip
 17c:	00000158 	andeq	r0, r0, r8, asr r1
 180:	000087ac 	andeq	r8, r0, ip, lsr #15
 184:	0000002c 	andeq	r0, r0, ip, lsr #32
 188:	0000000c 	andeq	r0, r0, ip
 18c:	00000158 	andeq	r0, r0, r8, asr r1
 190:	000087d8 	ldrdeq	r8, [r0], -r8	; <UNPREDICTABLE>
 194:	00000040 	andeq	r0, r0, r0, asr #32
 198:	00000020 	andeq	r0, r0, r0, lsr #32
 19c:	00000158 	andeq	r0, r0, r8, asr r1
 1a0:	00008818 	andeq	r8, r0, r8, lsl r8
 1a4:	000001a8 	andeq	r0, r0, r8, lsr #3
 1a8:	84180e42 	ldrhi	r0, [r8], #-3650	; 0xe42
 1ac:	86058506 	strhi	r8, [r5], -r6, lsl #10
 1b0:	88038704 	stmdahi	r3, {r2, r8, r9, sl, pc}
 1b4:	42018e02 	andmi	r8, r1, #2, 28
 1b8:	0000600e 	andeq	r6, r0, lr
 1bc:	00000014 	andeq	r0, r0, r4, lsl r0
 1c0:	00000158 	andeq	r0, r0, r8, asr r1
 1c4:	000089c0 	andeq	r8, r0, r0, asr #19
 1c8:	00000068 	andeq	r0, r0, r8, rrx
 1cc:	8e040e42 	cdphi	14, 0, cr0, cr4, cr2, {2}
 1d0:	100e4201 	andne	r4, lr, r1, lsl #4
 1d4:	00000028 	andeq	r0, r0, r8, lsr #32
 1d8:	00000158 	andeq	r0, r0, r8, asr r1
 1dc:	00008a28 	andeq	r8, r0, r8, lsr #20
 1e0:	00000294 	muleq	r0, r4, r2
 1e4:	84240e42 	strthi	r0, [r4], #-3650	; 0xe42
 1e8:	86088509 	strhi	r8, [r8], -r9, lsl #10
 1ec:	88068707 	stmdahi	r6, {r0, r1, r2, r8, r9, sl, pc}
 1f0:	8a048905 	bhi	12260c <__bss_end__+0x117d14>
 1f4:	8e028b03 	vmlahi.f64	d8, d2, d3
 1f8:	b00e4201 	andlt	r4, lr, r1, lsl #4
 1fc:	00000001 	andeq	r0, r0, r1
 200:	0000000c 	andeq	r0, r0, ip
 204:	ffffffff 			; <UNDEFINED> instruction: 0xffffffff
 208:	7c020001 	stcvc	0, cr0, [r2], {1}
 20c:	000d0c0e 	andeq	r0, sp, lr, lsl #24
 210:	0000000c 	andeq	r0, r0, ip
 214:	00000200 	andeq	r0, r0, r0, lsl #4
 218:	00008cbc 			; <UNDEFINED> instruction: 0x00008cbc
 21c:	00000010 	andeq	r0, r0, r0, lsl r0
 220:	0000000c 	andeq	r0, r0, ip
 224:	00000200 	andeq	r0, r0, r0, lsl #4
 228:	00008ccc 	andeq	r8, r0, ip, asr #25
 22c:	00000010 	andeq	r0, r0, r0, lsl r0
 230:	0000000c 	andeq	r0, r0, ip
 234:	ffffffff 			; <UNDEFINED> instruction: 0xffffffff
 238:	7c020001 	stcvc	0, cr0, [r2], {1}
 23c:	000d0c0e 	andeq	r0, sp, lr, lsl #24
 240:	00000014 	andeq	r0, r0, r4, lsl r0
 244:	00000230 	andeq	r0, r0, r0, lsr r2
 248:	00008cdc 	ldrdeq	r8, [r0], -ip
 24c:	00000028 	andeq	r0, r0, r8, lsr #32
 250:	83080e42 	movwhi	r0, #36418	; 0x8e42
 254:	00018e02 	andeq	r8, r1, r2, lsl #28
 258:	0000000c 	andeq	r0, r0, ip
 25c:	ffffffff 			; <UNDEFINED> instruction: 0xffffffff
 260:	7c020001 	stcvc	0, cr0, [r2], {1}
 264:	000d0c0e 	andeq	r0, sp, lr, lsl #24
 268:	00000014 	andeq	r0, r0, r4, lsl r0
 26c:	00000258 	andeq	r0, r0, r8, asr r2
 270:	00008d04 	andeq	r8, r0, r4, lsl #26
 274:	00000020 	andeq	r0, r0, r0, lsr #32
 278:	84080e42 	strhi	r0, [r8], #-3650	; 0xe42
 27c:	00018e02 	andeq	r8, r1, r2, lsl #28
 280:	00000014 	andeq	r0, r0, r4, lsl r0
 284:	00000258 	andeq	r0, r0, r8, asr r2
 288:	00008d24 	andeq	r8, r0, r4, lsr #26
 28c:	00000090 	muleq	r0, r0, r0
 290:	83080e42 	movwhi	r0, #36418	; 0x8e42
 294:	00018e02 	andeq	r8, r1, r2, lsl #28
 298:	0000000c 	andeq	r0, r0, ip
 29c:	ffffffff 			; <UNDEFINED> instruction: 0xffffffff
 2a0:	7c020001 	stcvc	0, cr0, [r2], {1}
 2a4:	000d0c0e 	andeq	r0, sp, lr, lsl #24
 2a8:	0000000c 	andeq	r0, r0, ip
 2ac:	00000298 	muleq	r0, r8, r2
 2b0:	00008db4 			; <UNDEFINED> instruction: 0x00008db4
 2b4:	00000018 	andeq	r0, r0, r8, lsl r0
 2b8:	0000000c 	andeq	r0, r0, ip
 2bc:	00000298 	muleq	r0, r8, r2
 2c0:	00008dcc 	andeq	r8, r0, ip, asr #27
 2c4:	00000014 	andeq	r0, r0, r4, lsl r0
 2c8:	00000014 	andeq	r0, r0, r4, lsl r0
 2cc:	00000298 	muleq	r0, r8, r2
 2d0:	00008de0 	andeq	r8, r0, r0, ror #27
 2d4:	00000048 	andeq	r0, r0, r8, asr #32
 2d8:	83080e42 	movwhi	r0, #36418	; 0x8e42
 2dc:	00018e02 	andeq	r8, r1, r2, lsl #28
 2e0:	0000000c 	andeq	r0, r0, ip
 2e4:	ffffffff 			; <UNDEFINED> instruction: 0xffffffff
 2e8:	7c020001 	stcvc	0, cr0, [r2], {1}
 2ec:	000d0c0e 	andeq	r0, sp, lr, lsl #24
 2f0:	0000000c 	andeq	r0, r0, ip
 2f4:	000002e0 	andeq	r0, r0, r0, ror #5
 2f8:	00008e28 	andeq	r8, r0, r8, lsr #28
 2fc:	0000001c 	andeq	r0, r0, ip, lsl r0
 300:	00000014 	andeq	r0, r0, r4, lsl r0
 304:	000002e0 	andeq	r0, r0, r0, ror #5
 308:	00008e44 	andeq	r8, r0, r4, asr #28
 30c:	00000014 	andeq	r0, r0, r4, lsl r0
 310:	83080e42 	movwhi	r0, #36418	; 0x8e42
 314:	00018e02 	andeq	r8, r1, r2, lsl #28
 318:	00000014 	andeq	r0, r0, r4, lsl r0
 31c:	000002e0 	andeq	r0, r0, r0, ror #5
 320:	00008e58 	andeq	r8, r0, r8, asr lr
 324:	0000000c 	andeq	r0, r0, ip
 328:	83080e42 	movwhi	r0, #36418	; 0x8e42
 32c:	00018e02 	andeq	r8, r1, r2, lsl #28
 330:	00000018 	andeq	r0, r0, r8, lsl r0
 334:	000002e0 	andeq	r0, r0, r0, ror #5
 338:	00008e64 	andeq	r8, r0, r4, ror #28
 33c:	00000024 	andeq	r0, r0, r4, lsr #32
 340:	83100e42 	tsthi	r0, #1056	; 0x420
 344:	85038404 	strhi	r8, [r3, #-1028]	; 0x404
 348:	00018e02 	andeq	r8, r1, r2, lsl #28
 34c:	00000014 	andeq	r0, r0, r4, lsl r0
 350:	000002e0 	andeq	r0, r0, r0, ror #5
 354:	00008e88 	andeq	r8, r0, r8, lsl #29
 358:	00000014 	andeq	r0, r0, r4, lsl r0
 35c:	83080e42 	movwhi	r0, #36418	; 0x8e42
 360:	00018e02 	andeq	r8, r1, r2, lsl #28
 364:	00000014 	andeq	r0, r0, r4, lsl r0
 368:	000002e0 	andeq	r0, r0, r0, ror #5
 36c:	00008e9c 	muleq	r0, ip, lr
 370:	00000014 	andeq	r0, r0, r4, lsl r0
 374:	83080e42 	movwhi	r0, #36418	; 0x8e42
 378:	00018e02 	andeq	r8, r1, r2, lsl #28
 37c:	0000000c 	andeq	r0, r0, ip
 380:	ffffffff 			; <UNDEFINED> instruction: 0xffffffff
 384:	7c020001 	stcvc	0, cr0, [r2], {1}
 388:	000d0c0e 	andeq	r0, sp, lr, lsl #24
 38c:	00000018 	andeq	r0, r0, r8, lsl r0
 390:	0000037c 	andeq	r0, r0, ip, ror r3
 394:	00008eb0 			; <UNDEFINED> instruction: 0x00008eb0
 398:	000000d4 	ldrdeq	r0, [r0], -r4
 39c:	83100e42 	tsthi	r0, #1056	; 0x420
 3a0:	85038404 	strhi	r8, [r3, #-1028]	; 0x404
 3a4:	00018e02 	andeq	r8, r1, r2, lsl #28
 3a8:	00000014 	andeq	r0, r0, r4, lsl r0
 3ac:	0000037c 	andeq	r0, r0, ip, ror r3
 3b0:	00008f84 	andeq	r8, r0, r4, lsl #31
 3b4:	00000038 	andeq	r0, r0, r8, lsr r0
 3b8:	83080e42 	movwhi	r0, #36418	; 0x8e42
 3bc:	00018e02 	andeq	r8, r1, r2, lsl #28
 3c0:	00000014 	andeq	r0, r0, r4, lsl r0
 3c4:	0000037c 	andeq	r0, r0, ip, ror r3
 3c8:	00008fbc 			; <UNDEFINED> instruction: 0x00008fbc
 3cc:	00000038 	andeq	r0, r0, r8, lsr r0
 3d0:	83080e42 	movwhi	r0, #36418	; 0x8e42
 3d4:	00018e02 	andeq	r8, r1, r2, lsl #28
 3d8:	00000018 	andeq	r0, r0, r8, lsl r0
 3dc:	0000037c 	andeq	r0, r0, ip, ror r3
 3e0:	00008ff4 	strdeq	r8, [r0], -r4
 3e4:	000000cc 	andeq	r0, r0, ip, asr #1
 3e8:	83100e42 	tsthi	r0, #1056	; 0x420
 3ec:	85038404 	strhi	r8, [r3, #-1028]	; 0x404
 3f0:	00018e02 	andeq	r8, r1, r2, lsl #28
 3f4:	00000014 	andeq	r0, r0, r4, lsl r0
 3f8:	0000037c 	andeq	r0, r0, ip, ror r3
 3fc:	000090c0 	andeq	r9, r0, r0, asr #1
 400:	0000004c 	andeq	r0, r0, ip, asr #32
 404:	84080e42 	strhi	r0, [r8], #-3650	; 0xe42
 408:	00018e02 	andeq	r8, r1, r2, lsl #28
 40c:	00000014 	andeq	r0, r0, r4, lsl r0
 410:	0000037c 	andeq	r0, r0, ip, ror r3
 414:	0000910c 	andeq	r9, r0, ip, lsl #2
 418:	00000024 	andeq	r0, r0, r4, lsr #32
 41c:	83080e42 	movwhi	r0, #36418	; 0x8e42
 420:	00018e02 	andeq	r8, r1, r2, lsl #28
 424:	00000018 	andeq	r0, r0, r8, lsl r0
 428:	0000037c 	andeq	r0, r0, ip, ror r3
 42c:	00009130 	andeq	r9, r0, r0, lsr r1
 430:	000000d8 	ldrdeq	r0, [r0], -r8
 434:	84100e42 	ldrhi	r0, [r0], #-3650	; 0xe42
 438:	86038504 	strhi	r8, [r3], -r4, lsl #10
 43c:	00018e02 	andeq	r8, r1, r2, lsl #28
 440:	00000014 	andeq	r0, r0, r4, lsl r0
 444:	0000037c 	andeq	r0, r0, ip, ror r3
 448:	00009208 	andeq	r9, r0, r8, lsl #4
 44c:	00000038 	andeq	r0, r0, r8, lsr r0
 450:	83080e42 	movwhi	r0, #36418	; 0x8e42
 454:	00018e02 	andeq	r8, r1, r2, lsl #28
 458:	00000014 	andeq	r0, r0, r4, lsl r0
 45c:	0000037c 	andeq	r0, r0, ip, ror r3
 460:	00009240 	andeq	r9, r0, r0, asr #4
 464:	0000002c 	andeq	r0, r0, ip, lsr #32
 468:	83080e42 	movwhi	r0, #36418	; 0x8e42
 46c:	00018e02 	andeq	r8, r1, r2, lsl #28
 470:	00000018 	andeq	r0, r0, r8, lsl r0
 474:	0000037c 	andeq	r0, r0, ip, ror r3
 478:	0000926c 	andeq	r9, r0, ip, ror #4
 47c:	00000084 	andeq	r0, r0, r4, lsl #1
 480:	83100e42 	tsthi	r0, #1056	; 0x420
 484:	85038404 	strhi	r8, [r3, #-1028]	; 0x404
 488:	00018e02 	andeq	r8, r1, r2, lsl #28
 48c:	00000018 	andeq	r0, r0, r8, lsl r0
 490:	0000037c 	andeq	r0, r0, ip, ror r3
 494:	000092f0 	strdeq	r9, [r0], -r0
 498:	00000084 	andeq	r0, r0, r4, lsl #1
 49c:	83100e42 	tsthi	r0, #1056	; 0x420
 4a0:	85038404 	strhi	r8, [r3, #-1028]	; 0x404
 4a4:	00018e02 	andeq	r8, r1, r2, lsl #28
 4a8:	00000014 	andeq	r0, r0, r4, lsl r0
 4ac:	0000037c 	andeq	r0, r0, ip, ror r3
 4b0:	00009374 	andeq	r9, r0, r4, ror r3
 4b4:	00000084 	andeq	r0, r0, r4, lsl #1
 4b8:	84080e42 	strhi	r0, [r8], #-3650	; 0xe42
 4bc:	00018e02 	andeq	r8, r1, r2, lsl #28
 4c0:	00000014 	andeq	r0, r0, r4, lsl r0
 4c4:	0000037c 	andeq	r0, r0, ip, ror r3
 4c8:	000093f8 	strdeq	r9, [r0], -r8
 4cc:	00000058 	andeq	r0, r0, r8, asr r0
 4d0:	84080e42 	strhi	r0, [r8], #-3650	; 0xe42
 4d4:	00018e02 	andeq	r8, r1, r2, lsl #28
 4d8:	0000000c 	andeq	r0, r0, ip
 4dc:	ffffffff 			; <UNDEFINED> instruction: 0xffffffff
 4e0:	7c020001 	stcvc	0, cr0, [r2], {1}
 4e4:	000d0c0e 	andeq	r0, sp, lr, lsl #24
 4e8:	0000001c 	andeq	r0, r0, ip, lsl r0
 4ec:	000004d8 	ldrdeq	r0, [r0], -r8
 4f0:	00009450 	andeq	r9, r0, r0, asr r4
 4f4:	00000154 	andeq	r0, r0, r4, asr r1
 4f8:	84180e42 	ldrhi	r0, [r8], #-3650	; 0xe42
 4fc:	86058506 	strhi	r8, [r5], -r6, lsl #10
 500:	88038704 	stmdahi	r3, {r2, r8, r9, sl, pc}
 504:	00018e02 	andeq	r8, r1, r2, lsl #28
 508:	00000020 	andeq	r0, r0, r0, lsr #32
 50c:	000004d8 	ldrdeq	r0, [r0], -r8
 510:	000095a4 	andeq	r9, r0, r4, lsr #11
 514:	000001c8 	andeq	r0, r0, r8, asr #3
 518:	83200e42 	teqhi	r0, #1056	; 0x420
 51c:	85078408 	strhi	r8, [r7, #-1032]	; 0x408
 520:	87058606 	strhi	r8, [r5, -r6, lsl #12]
 524:	89038804 	stmdbhi	r3, {r2, fp, pc}
 528:	00018e02 	andeq	r8, r1, r2, lsl #28
 52c:	00000024 	andeq	r0, r0, r4, lsr #32
 530:	000004d8 	ldrdeq	r0, [r0], -r8
 534:	0000976c 	andeq	r9, r0, ip, ror #14
 538:	000000a4 	andeq	r0, r0, r4, lsr #1
 53c:	84200e42 	strthi	r0, [r0], #-3650	; 0xe42
 540:	86078508 	strhi	r8, [r7], -r8, lsl #10
 544:	88058706 	stmdahi	r5, {r1, r2, r8, r9, sl, pc}
 548:	8a038904 	bhi	e2960 <__bss_end__+0xd8068>
 54c:	42018e02 	andmi	r8, r1, #2, 28
 550:	0000280e 	andeq	r2, r0, lr, lsl #16
 554:	00000020 	andeq	r0, r0, r0, lsr #32
 558:	000004d8 	ldrdeq	r0, [r0], -r8
 55c:	00009810 	andeq	r9, r0, r0, lsl r8
 560:	00000090 	muleq	r0, r0, r0
 564:	84180e42 	ldrhi	r0, [r8], #-3650	; 0xe42
 568:	86058506 	strhi	r8, [r5], -r6, lsl #10
 56c:	88038704 	stmdahi	r3, {r2, r8, r9, sl, pc}
 570:	42018e02 	andmi	r8, r1, #2, 28
 574:	0000200e 	andeq	r2, r0, lr
 578:	00000020 	andeq	r0, r0, r0, lsr #32
 57c:	000004d8 	ldrdeq	r0, [r0], -r8
 580:	000098a0 	andeq	r9, r0, r0, lsr #17
 584:	000000d4 	ldrdeq	r0, [r0], -r4
 588:	84180e42 	ldrhi	r0, [r8], #-3650	; 0xe42
 58c:	86058506 	strhi	r8, [r5], -r6, lsl #10
 590:	88038704 	stmdahi	r3, {r2, r8, r9, sl, pc}
 594:	42018e02 	andmi	r8, r1, #2, 28
 598:	0000200e 	andeq	r2, r0, lr
 59c:	00000014 	andeq	r0, r0, r4, lsl r0
 5a0:	000004d8 	ldrdeq	r0, [r0], -r8
 5a4:	00009974 	andeq	r9, r0, r4, ror r9
 5a8:	0000003c 	andeq	r0, r0, ip, lsr r0
 5ac:	83080e42 	movwhi	r0, #36418	; 0x8e42
 5b0:	00018e02 	andeq	r8, r1, r2, lsl #28
 5b4:	00000018 	andeq	r0, r0, r8, lsl r0
 5b8:	000004d8 	ldrdeq	r0, [r0], -r8
 5bc:	000099b0 			; <UNDEFINED> instruction: 0x000099b0
 5c0:	0000002c 	andeq	r0, r0, ip, lsr #32
 5c4:	83100e42 	tsthi	r0, #1056	; 0x420
 5c8:	85038404 	strhi	r8, [r3, #-1028]	; 0x404
 5cc:	00018e02 	andeq	r8, r1, r2, lsl #28
 5d0:	00000024 	andeq	r0, r0, r4, lsr #32
 5d4:	000004d8 	ldrdeq	r0, [r0], -r8
 5d8:	000099dc 	ldrdeq	r9, [r0], -ip
 5dc:	00000090 	muleq	r0, r0, r0
 5e0:	810c0e42 	tsthi	ip, r2, asr #28
 5e4:	83028203 	movwhi	r8, #8707	; 0x2203
 5e8:	180e4201 	stmdane	lr, {r0, r9, lr}
 5ec:	05850684 	streq	r0, [r5, #1668]	; 0x684
 5f0:	0e42048e 	cdpeq	4, 4, cr0, cr2, cr14, {4}
 5f4:	000003f0 	strdeq	r0, [r0], -r0	; <UNPREDICTABLE>
 5f8:	00000014 	andeq	r0, r0, r4, lsl r0
 5fc:	000004d8 	ldrdeq	r0, [r0], -r8
 600:	00009a6c 	andeq	r9, r0, ip, ror #20
 604:	0000004c 	andeq	r0, r0, ip, asr #32
 608:	8e040e42 	cdphi	14, 0, cr0, cr4, cr2, {2}
 60c:	100e4201 	andne	r4, lr, r1, lsl #4
 610:	0000000c 	andeq	r0, r0, ip
 614:	ffffffff 			; <UNDEFINED> instruction: 0xffffffff
 618:	7c020001 	stcvc	0, cr0, [r2], {1}
 61c:	000d0c0e 	andeq	r0, sp, lr, lsl #24
 620:	00000018 	andeq	r0, r0, r8, lsl r0
 624:	00000610 	andeq	r0, r0, r0, lsl r6
 628:	00009ab8 			; <UNDEFINED> instruction: 0x00009ab8
 62c:	0000009c 	muleq	r0, ip, r0
 630:	83100e42 	tsthi	r0, #1056	; 0x420
 634:	85038404 	strhi	r8, [r3, #-1028]	; 0x404
 638:	00018e02 	andeq	r8, r1, r2, lsl #28
 63c:	00000014 	andeq	r0, r0, r4, lsl r0
 640:	00000610 	andeq	r0, r0, r0, lsl r6
 644:	00009b54 	andeq	r9, r0, r4, asr fp
 648:	0000001c 	andeq	r0, r0, ip, lsl r0
 64c:	83080e42 	movwhi	r0, #36418	; 0x8e42
 650:	00018e02 	andeq	r8, r1, r2, lsl #28
 654:	00000014 	andeq	r0, r0, r4, lsl r0
 658:	00000610 	andeq	r0, r0, r0, lsl r6
 65c:	00009b70 	andeq	r9, r0, r0, ror fp
 660:	00000028 	andeq	r0, r0, r8, lsr #32
 664:	83080e42 	movwhi	r0, #36418	; 0x8e42
 668:	00018e02 	andeq	r8, r1, r2, lsl #28
 66c:	00000014 	andeq	r0, r0, r4, lsl r0
 670:	00000610 	andeq	r0, r0, r0, lsl r6
 674:	00009b98 	muleq	r0, r8, fp
 678:	0000001c 	andeq	r0, r0, ip, lsl r0
 67c:	83080e42 	movwhi	r0, #36418	; 0x8e42
 680:	00018e02 	andeq	r8, r1, r2, lsl #28
 684:	00000014 	andeq	r0, r0, r4, lsl r0
 688:	00000610 	andeq	r0, r0, r0, lsl r6
 68c:	00009bb4 			; <UNDEFINED> instruction: 0x00009bb4
 690:	0000002c 	andeq	r0, r0, ip, lsr #32
 694:	84080e42 	strhi	r0, [r8], #-3650	; 0xe42
 698:	00018e02 	andeq	r8, r1, r2, lsl #28
 69c:	00000014 	andeq	r0, r0, r4, lsl r0
 6a0:	00000610 	andeq	r0, r0, r0, lsl r6
 6a4:	00009be0 	andeq	r9, r0, r0, ror #23
 6a8:	0000000c 	andeq	r0, r0, ip
 6ac:	83080e42 	movwhi	r0, #36418	; 0x8e42
 6b0:	00018e02 	andeq	r8, r1, r2, lsl #28
 6b4:	00000014 	andeq	r0, r0, r4, lsl r0
 6b8:	00000610 	andeq	r0, r0, r0, lsl r6
 6bc:	00009bec 	andeq	r9, r0, ip, ror #23
 6c0:	00000020 	andeq	r0, r0, r0, lsr #32
 6c4:	83080e42 	movwhi	r0, #36418	; 0x8e42
 6c8:	00018e02 	andeq	r8, r1, r2, lsl #28
 6cc:	0000000c 	andeq	r0, r0, ip
 6d0:	ffffffff 			; <UNDEFINED> instruction: 0xffffffff
 6d4:	7c020001 	stcvc	0, cr0, [r2], {1}
 6d8:	000d0c0e 	andeq	r0, sp, lr, lsl #24
 6dc:	00000014 	andeq	r0, r0, r4, lsl r0
 6e0:	000006cc 	andeq	r0, r0, ip, asr #13
 6e4:	00009c0c 	andeq	r9, r0, ip, lsl #24
 6e8:	00000068 	andeq	r0, r0, r8, rrx
 6ec:	83080e42 	movwhi	r0, #36418	; 0x8e42
 6f0:	00018e02 	andeq	r8, r1, r2, lsl #28
 6f4:	00000014 	andeq	r0, r0, r4, lsl r0
 6f8:	000006cc 	andeq	r0, r0, ip, asr #13
 6fc:	00009c74 	andeq	r9, r0, r4, ror ip
 700:	00000044 	andeq	r0, r0, r4, asr #32
 704:	8e040e42 	cdphi	14, 0, cr0, cr4, cr2, {2}
 708:	100e4201 	andne	r4, lr, r1, lsl #4
 70c:	0000000c 	andeq	r0, r0, ip
 710:	ffffffff 			; <UNDEFINED> instruction: 0xffffffff
 714:	7c020001 	stcvc	0, cr0, [r2], {1}
 718:	000d0c0e 	andeq	r0, sp, lr, lsl #24
 71c:	00000014 	andeq	r0, r0, r4, lsl r0
 720:	0000070c 	andeq	r0, r0, ip, lsl #14
 724:	00009e08 	andeq	r9, r0, r8, lsl #28
 728:	00000028 	andeq	r0, r0, r8, lsr #32
 72c:	83080e42 	movwhi	r0, #36418	; 0x8e42
 730:	00018e02 	andeq	r8, r1, r2, lsl #28
 734:	0000000c 	andeq	r0, r0, ip
 738:	0000070c 	andeq	r0, r0, ip, lsl #14
 73c:	00009e30 	andeq	r9, r0, r0, lsr lr
 740:	00000028 	andeq	r0, r0, r8, lsr #32
 744:	0000000c 	andeq	r0, r0, ip
 748:	ffffffff 			; <UNDEFINED> instruction: 0xffffffff
 74c:	7c020001 	stcvc	0, cr0, [r2], {1}
 750:	000d0c0e 	andeq	r0, sp, lr, lsl #24
 754:	00000014 	andeq	r0, r0, r4, lsl r0
 758:	00000744 	andeq	r0, r0, r4, asr #14
 75c:	00009e58 	andeq	r9, r0, r8, asr lr
 760:	00000044 	andeq	r0, r0, r4, asr #32
 764:	8e040e42 	cdphi	14, 0, cr0, cr4, cr2, {2}
 768:	100e4201 	andne	r4, lr, r1, lsl #4
 76c:	0000000c 	andeq	r0, r0, ip
 770:	ffffffff 			; <UNDEFINED> instruction: 0xffffffff
 774:	7c020001 	stcvc	0, cr0, [r2], {1}
 778:	000d0c0e 	andeq	r0, sp, lr, lsl #24
 77c:	00000014 	andeq	r0, r0, r4, lsl r0
 780:	0000076c 	andeq	r0, r0, ip, ror #14
 784:	00009e9c 	muleq	r0, ip, lr
 788:	00000044 	andeq	r0, r0, r4, asr #32
 78c:	8e040e42 	cdphi	14, 0, cr0, cr4, cr2, {2}
 790:	100e4201 	andne	r4, lr, r1, lsl #4
 794:	0000000c 	andeq	r0, r0, ip
 798:	ffffffff 			; <UNDEFINED> instruction: 0xffffffff
 79c:	7c020001 	stcvc	0, cr0, [r2], {1}
 7a0:	000d0c0e 	andeq	r0, sp, lr, lsl #24
 7a4:	00000014 	andeq	r0, r0, r4, lsl r0
 7a8:	00000794 	muleq	r0, r4, r7
 7ac:	00009ee0 	andeq	r9, r0, r0, ror #29
 7b0:	00000044 	andeq	r0, r0, r4, asr #32
 7b4:	8e040e42 	cdphi	14, 0, cr0, cr4, cr2, {2}
 7b8:	100e4201 	andne	r4, lr, r1, lsl #4
 7bc:	0000000c 	andeq	r0, r0, ip
 7c0:	ffffffff 			; <UNDEFINED> instruction: 0xffffffff
 7c4:	7c020001 	stcvc	0, cr0, [r2], {1}
 7c8:	000d0c0e 	andeq	r0, sp, lr, lsl #24
 7cc:	00000014 	andeq	r0, r0, r4, lsl r0
 7d0:	000007bc 			; <UNDEFINED> instruction: 0x000007bc
 7d4:	00009f24 	andeq	r9, r0, r4, lsr #30
 7d8:	00000044 	andeq	r0, r0, r4, asr #32
 7dc:	8e040e42 	cdphi	14, 0, cr0, cr4, cr2, {2}
 7e0:	100e4201 	andne	r4, lr, r1, lsl #4
 7e4:	0000000c 	andeq	r0, r0, ip
 7e8:	ffffffff 			; <UNDEFINED> instruction: 0xffffffff
 7ec:	7c020001 	stcvc	0, cr0, [r2], {1}
 7f0:	000d0c0e 	andeq	r0, sp, lr, lsl #24
 7f4:	0000000c 	andeq	r0, r0, ip
 7f8:	000007e4 	andeq	r0, r0, r4, ror #15
 7fc:	00009f68 	andeq	r9, r0, r8, ror #30
 800:	00000020 	andeq	r0, r0, r0, lsr #32

Disassembly of section .debug_ranges:

00000000 <.debug_ranges>:
   0:	000002b4 			; <UNDEFINED> instruction: 0x000002b4
   4:	000002b8 			; <UNDEFINED> instruction: 0x000002b8
   8:	000002e8 	andeq	r0, r0, r8, ror #5
   c:	000004e0 	andeq	r0, r0, r0, ror #9
	...
  18:	00008db4 			; <UNDEFINED> instruction: 0x00008db4
  1c:	00008e28 	andeq	r8, r0, r8, lsr #28
	...
