
2-logic-analyzer.elf:     file format elf32-littlearm


Disassembly of section .text:

00008000 <_start>:
    8000:	e3a0d302 	mov	sp, #134217728	; 0x8000000
    8004:	e3a0b000 	mov	fp, #0
    8008:	eb000304 	bl	8c20 <_cstart>
    800c:	eb000332 	bl	8cdc <rpi_reboot>

00008010 <cycles_per_sec>:
    8010:	e92d4010 	push	{r4, lr}
    8014:	e3500001 	cmp	r0, #1
    8018:	9a000006 	bls	8038 <cycles_per_sec+0x28>
    801c:	eb000185 	bl	8638 <rpi_reset_putc>
    8020:	e59f002c 	ldr	r0, [pc, #44]	; 8054 <cycles_per_sec+0x44>
    8024:	e59f102c 	ldr	r1, [pc, #44]	; 8058 <cycles_per_sec+0x48>
    8028:	e59f202c 	ldr	r2, [pc, #44]	; 805c <cycles_per_sec+0x4c>
    802c:	e3a03042 	mov	r3, #66	; 0x42
    8030:	eb000165 	bl	85cc <printk>
    8034:	eb0002e7 	bl	8bd8 <clean_reboot>
    8038:	ee1f4f3c 	mrc	15, 0, r4, cr15, cr12, {1}
    803c:	e3a03ffa 	mov	r3, #1000	; 0x3e8
    8040:	e0000093 	mul	r0, r3, r0
    8044:	eb00034e 	bl	8d84 <delay_ms>
    8048:	ee1f0f3c 	mrc	15, 0, r0, cr15, cr12, {1}
    804c:	e0640000 	rsb	r0, r4, r0
    8050:	e8bd8010 	pop	{r4, pc}
    8054:	00009f30 	andeq	r9, r0, r0, lsr pc
    8058:	00009f60 	andeq	r9, r0, r0, ror #30
    805c:	00009f20 	andeq	r9, r0, r0, lsr #30

00008060 <scope>:
    8060:	e52d4004 	push	{r4}		; (str r4, [sp, #-4]!)
    8064:	e59f21b4 	ldr	r2, [pc, #436]	; 8220 <scope+0x1c0>
    8068:	e5923034 	ldr	r3, [r2, #52]	; 0x34
    806c:	e3130601 	tst	r3, #1048576	; 0x100000
    8070:	1afffffc 	bne	8068 <scope+0x8>
    8074:	ee1f3f3c 	mrc	15, 0, r3, cr15, cr12, {1}
    8078:	e59f11a4 	ldr	r1, [pc, #420]	; 8224 <scope+0x1c4>
    807c:	ee1f2f3c 	mrc	15, 0, r2, cr15, cr12, {1}
    8080:	e0632002 	rsb	r2, r3, r2
    8084:	e1520001 	cmp	r2, r1
    8088:	9afffffb 	bls	807c <scope+0x1c>
    808c:	e59f1194 	ldr	r1, [pc, #404]	; 8228 <scope+0x1c8>
    8090:	ee1f2f3c 	mrc	15, 0, r2, cr15, cr12, {1}
    8094:	e0632002 	rsb	r2, r3, r2
    8098:	e1520001 	cmp	r2, r1
    809c:	9afffffb 	bls	8090 <scope+0x30>
    80a0:	e59f2178 	ldr	r2, [pc, #376]	; 8220 <scope+0x1c0>
    80a4:	e5920034 	ldr	r0, [r2, #52]	; 0x34
    80a8:	e2000601 	and	r0, r0, #1048576	; 0x100000
    80ac:	e1a00a20 	lsr	r0, r0, #20
    80b0:	e1a00380 	lsl	r0, r0, #7
    80b4:	e6ef0070 	uxtb	r0, r0
    80b8:	e59f116c 	ldr	r1, [pc, #364]	; 822c <scope+0x1cc>
    80bc:	ee1f2f3c 	mrc	15, 0, r2, cr15, cr12, {1}
    80c0:	e0632002 	rsb	r2, r3, r2
    80c4:	e1520001 	cmp	r2, r1
    80c8:	9afffffb 	bls	80bc <scope+0x5c>
    80cc:	e59f214c 	ldr	r2, [pc, #332]	; 8220 <scope+0x1c0>
    80d0:	e5922034 	ldr	r2, [r2, #52]	; 0x34
    80d4:	e2022601 	and	r2, r2, #1048576	; 0x100000
    80d8:	e3520000 	cmp	r2, #0
    80dc:	13a02040 	movne	r2, #64	; 0x40
    80e0:	03a02000 	moveq	r2, #0
    80e4:	e1800002 	orr	r0, r0, r2
    80e8:	e59f1140 	ldr	r1, [pc, #320]	; 8230 <scope+0x1d0>
    80ec:	ee1f2f3c 	mrc	15, 0, r2, cr15, cr12, {1}
    80f0:	e0632002 	rsb	r2, r3, r2
    80f4:	e1520001 	cmp	r2, r1
    80f8:	9afffffb 	bls	80ec <scope+0x8c>
    80fc:	e59f211c 	ldr	r2, [pc, #284]	; 8220 <scope+0x1c0>
    8100:	e5924034 	ldr	r4, [r2, #52]	; 0x34
    8104:	e2044601 	and	r4, r4, #1048576	; 0x100000
    8108:	e3540000 	cmp	r4, #0
    810c:	13a04020 	movne	r4, #32
    8110:	03a04000 	moveq	r4, #0
    8114:	e1844000 	orr	r4, r4, r0
    8118:	e59f1114 	ldr	r1, [pc, #276]	; 8234 <scope+0x1d4>
    811c:	ee1f2f3c 	mrc	15, 0, r2, cr15, cr12, {1}
    8120:	e0632002 	rsb	r2, r3, r2
    8124:	e1520001 	cmp	r2, r1
    8128:	9afffffb 	bls	811c <scope+0xbc>
    812c:	e59f20ec 	ldr	r2, [pc, #236]	; 8220 <scope+0x1c0>
    8130:	e592c034 	ldr	ip, [r2, #52]	; 0x34
    8134:	e20cc601 	and	ip, ip, #1048576	; 0x100000
    8138:	e35c0000 	cmp	ip, #0
    813c:	13a0c010 	movne	ip, #16
    8140:	03a0c000 	moveq	ip, #0
    8144:	e18cc004 	orr	ip, ip, r4
    8148:	e59f10e8 	ldr	r1, [pc, #232]	; 8238 <scope+0x1d8>
    814c:	ee1f2f3c 	mrc	15, 0, r2, cr15, cr12, {1}
    8150:	e0632002 	rsb	r2, r3, r2
    8154:	e1520001 	cmp	r2, r1
    8158:	9afffffb 	bls	814c <scope+0xec>
    815c:	e59f20bc 	ldr	r2, [pc, #188]	; 8220 <scope+0x1c0>
    8160:	e5920034 	ldr	r0, [r2, #52]	; 0x34
    8164:	e2000601 	and	r0, r0, #1048576	; 0x100000
    8168:	e3500000 	cmp	r0, #0
    816c:	13a00008 	movne	r0, #8
    8170:	03a00000 	moveq	r0, #0
    8174:	e180000c 	orr	r0, r0, ip
    8178:	e59f10bc 	ldr	r1, [pc, #188]	; 823c <scope+0x1dc>
    817c:	ee1f2f3c 	mrc	15, 0, r2, cr15, cr12, {1}
    8180:	e0632002 	rsb	r2, r3, r2
    8184:	e1520001 	cmp	r2, r1
    8188:	9afffffb 	bls	817c <scope+0x11c>
    818c:	e59f208c 	ldr	r2, [pc, #140]	; 8220 <scope+0x1c0>
    8190:	e5924034 	ldr	r4, [r2, #52]	; 0x34
    8194:	e2044601 	and	r4, r4, #1048576	; 0x100000
    8198:	e3540000 	cmp	r4, #0
    819c:	13a04004 	movne	r4, #4
    81a0:	03a04000 	moveq	r4, #0
    81a4:	e1844000 	orr	r4, r4, r0
    81a8:	e59f1090 	ldr	r1, [pc, #144]	; 8240 <scope+0x1e0>
    81ac:	ee1f2f3c 	mrc	15, 0, r2, cr15, cr12, {1}
    81b0:	e0632002 	rsb	r2, r3, r2
    81b4:	e1520001 	cmp	r2, r1
    81b8:	9afffffb 	bls	81ac <scope+0x14c>
    81bc:	e59f205c 	ldr	r2, [pc, #92]	; 8220 <scope+0x1c0>
    81c0:	e592c034 	ldr	ip, [r2, #52]	; 0x34
    81c4:	e20cc601 	and	ip, ip, #1048576	; 0x100000
    81c8:	e35c0000 	cmp	ip, #0
    81cc:	13a0c002 	movne	ip, #2
    81d0:	03a0c000 	moveq	ip, #0
    81d4:	e18cc004 	orr	ip, ip, r4
    81d8:	e59f1064 	ldr	r1, [pc, #100]	; 8244 <scope+0x1e4>
    81dc:	ee1f2f3c 	mrc	15, 0, r2, cr15, cr12, {1}
    81e0:	e0632002 	rsb	r2, r3, r2
    81e4:	e1520001 	cmp	r2, r1
    81e8:	9afffffb 	bls	81dc <scope+0x17c>
    81ec:	e59f202c 	ldr	r2, [pc, #44]	; 8220 <scope+0x1c0>
    81f0:	e5920034 	ldr	r0, [r2, #52]	; 0x34
    81f4:	e2000601 	and	r0, r0, #1048576	; 0x100000
    81f8:	e3500000 	cmp	r0, #0
    81fc:	01a0000c 	moveq	r0, ip
    8200:	138c0001 	orrne	r0, ip, #1
    8204:	e59f103c 	ldr	r1, [pc, #60]	; 8248 <scope+0x1e8>
    8208:	ee1f2f3c 	mrc	15, 0, r2, cr15, cr12, {1}
    820c:	e0632002 	rsb	r2, r3, r2
    8210:	e1520001 	cmp	r2, r1
    8214:	9afffffb 	bls	8208 <scope+0x1a8>
    8218:	e49d4004 	pop	{r4}		; (ldr r4, [sp], #4)
    821c:	e12fff1e 	bx	lr
    8220:	20200000 	eorcs	r0, r0, r0
    8224:	00000bdd 	ldrdeq	r0, [r0], -sp
    8228:	00002399 	muleq	r0, r9, r3
    822c:	00003b55 	andeq	r3, r0, r5, asr fp
    8230:	00005311 	andeq	r5, r0, r1, lsl r3
    8234:	00006acd 	andeq	r6, r0, sp, asr #21
    8238:	00008289 	andeq	r8, r0, r9, lsl #5
    823c:	00009a45 	andeq	r9, r0, r5, asr #20
    8240:	0000b201 	andeq	fp, r0, r1, lsl #4
    8244:	0000c9bd 			; <UNDEFINED> instruction: 0x0000c9bd
    8248:	0000e179 	andeq	lr, r0, r9, ror r1

0000824c <test_gen>:
    824c:	e52d4004 	push	{r4}		; (str r4, [sp, #-4]!)
    8250:	ee1f3f3c 	mrc	15, 0, r3, cr15, cr12, {1}
    8254:	e59fc260 	ldr	ip, [pc, #608]	; 84bc <test_gen+0x270>
    8258:	e59c2034 	ldr	r2, [ip, #52]	; 0x34
    825c:	e3120602 	tst	r2, #2097152	; 0x200000
    8260:	0afffffc 	beq	8258 <test_gen+0xc>
    8264:	e59f2250 	ldr	r2, [pc, #592]	; 84bc <test_gen+0x270>
    8268:	e592c028 	ldr	ip, [r2, #40]	; 0x28
    826c:	e3a04001 	mov	r4, #1
    8270:	e1a00014 	lsl	r0, r4, r0
    8274:	e18cc000 	orr	ip, ip, r0
    8278:	e582c028 	str	ip, [r2, #40]	; 0x28
    827c:	e59fc23c 	ldr	ip, [pc, #572]	; 84c0 <test_gen+0x274>
    8280:	ee1f2f3c 	mrc	15, 0, r2, cr15, cr12, {1}
    8284:	e0632002 	rsb	r2, r3, r2
    8288:	e152000c 	cmp	r2, ip
    828c:	9afffffb 	bls	8280 <test_gen+0x34>
    8290:	e3110001 	tst	r1, #1
    8294:	0a000004 	beq	82ac <test_gen+0x60>
    8298:	e59f221c 	ldr	r2, [pc, #540]	; 84bc <test_gen+0x270>
    829c:	e592c01c 	ldr	ip, [r2, #28]
    82a0:	e180c00c 	orr	ip, r0, ip
    82a4:	e582c01c 	str	ip, [r2, #28]
    82a8:	ea000003 	b	82bc <test_gen+0x70>
    82ac:	e59f2208 	ldr	r2, [pc, #520]	; 84bc <test_gen+0x270>
    82b0:	e592c028 	ldr	ip, [r2, #40]	; 0x28
    82b4:	e180c00c 	orr	ip, r0, ip
    82b8:	e582c028 	str	ip, [r2, #40]	; 0x28
    82bc:	e59fc200 	ldr	ip, [pc, #512]	; 84c4 <test_gen+0x278>
    82c0:	ee1f2f3c 	mrc	15, 0, r2, cr15, cr12, {1}
    82c4:	e0632002 	rsb	r2, r3, r2
    82c8:	e152000c 	cmp	r2, ip
    82cc:	9afffffb 	bls	82c0 <test_gen+0x74>
    82d0:	e3110002 	tst	r1, #2
    82d4:	0a000004 	beq	82ec <test_gen+0xa0>
    82d8:	e59f21dc 	ldr	r2, [pc, #476]	; 84bc <test_gen+0x270>
    82dc:	e592c01c 	ldr	ip, [r2, #28]
    82e0:	e180c00c 	orr	ip, r0, ip
    82e4:	e582c01c 	str	ip, [r2, #28]
    82e8:	ea000003 	b	82fc <test_gen+0xb0>
    82ec:	e59f21c8 	ldr	r2, [pc, #456]	; 84bc <test_gen+0x270>
    82f0:	e592c028 	ldr	ip, [r2, #40]	; 0x28
    82f4:	e180c00c 	orr	ip, r0, ip
    82f8:	e582c028 	str	ip, [r2, #40]	; 0x28
    82fc:	e59fc1c4 	ldr	ip, [pc, #452]	; 84c8 <test_gen+0x27c>
    8300:	ee1f2f3c 	mrc	15, 0, r2, cr15, cr12, {1}
    8304:	e0632002 	rsb	r2, r3, r2
    8308:	e152000c 	cmp	r2, ip
    830c:	9afffffb 	bls	8300 <test_gen+0xb4>
    8310:	e3110004 	tst	r1, #4
    8314:	0a000004 	beq	832c <test_gen+0xe0>
    8318:	e59f219c 	ldr	r2, [pc, #412]	; 84bc <test_gen+0x270>
    831c:	e592c01c 	ldr	ip, [r2, #28]
    8320:	e180c00c 	orr	ip, r0, ip
    8324:	e582c01c 	str	ip, [r2, #28]
    8328:	ea000003 	b	833c <test_gen+0xf0>
    832c:	e59f2188 	ldr	r2, [pc, #392]	; 84bc <test_gen+0x270>
    8330:	e592c028 	ldr	ip, [r2, #40]	; 0x28
    8334:	e180c00c 	orr	ip, r0, ip
    8338:	e582c028 	str	ip, [r2, #40]	; 0x28
    833c:	e59fc188 	ldr	ip, [pc, #392]	; 84cc <test_gen+0x280>
    8340:	ee1f2f3c 	mrc	15, 0, r2, cr15, cr12, {1}
    8344:	e0632002 	rsb	r2, r3, r2
    8348:	e152000c 	cmp	r2, ip
    834c:	9afffffb 	bls	8340 <test_gen+0xf4>
    8350:	e3110008 	tst	r1, #8
    8354:	0a000004 	beq	836c <test_gen+0x120>
    8358:	e59f215c 	ldr	r2, [pc, #348]	; 84bc <test_gen+0x270>
    835c:	e592c01c 	ldr	ip, [r2, #28]
    8360:	e180c00c 	orr	ip, r0, ip
    8364:	e582c01c 	str	ip, [r2, #28]
    8368:	ea000003 	b	837c <test_gen+0x130>
    836c:	e59f2148 	ldr	r2, [pc, #328]	; 84bc <test_gen+0x270>
    8370:	e592c028 	ldr	ip, [r2, #40]	; 0x28
    8374:	e180c00c 	orr	ip, r0, ip
    8378:	e582c028 	str	ip, [r2, #40]	; 0x28
    837c:	e59fc14c 	ldr	ip, [pc, #332]	; 84d0 <test_gen+0x284>
    8380:	ee1f2f3c 	mrc	15, 0, r2, cr15, cr12, {1}
    8384:	e0632002 	rsb	r2, r3, r2
    8388:	e152000c 	cmp	r2, ip
    838c:	9afffffb 	bls	8380 <test_gen+0x134>
    8390:	e3110010 	tst	r1, #16
    8394:	0a000004 	beq	83ac <test_gen+0x160>
    8398:	e59f211c 	ldr	r2, [pc, #284]	; 84bc <test_gen+0x270>
    839c:	e592c01c 	ldr	ip, [r2, #28]
    83a0:	e180c00c 	orr	ip, r0, ip
    83a4:	e582c01c 	str	ip, [r2, #28]
    83a8:	ea000003 	b	83bc <test_gen+0x170>
    83ac:	e59f2108 	ldr	r2, [pc, #264]	; 84bc <test_gen+0x270>
    83b0:	e592c028 	ldr	ip, [r2, #40]	; 0x28
    83b4:	e180c00c 	orr	ip, r0, ip
    83b8:	e582c028 	str	ip, [r2, #40]	; 0x28
    83bc:	e59fc110 	ldr	ip, [pc, #272]	; 84d4 <test_gen+0x288>
    83c0:	ee1f2f3c 	mrc	15, 0, r2, cr15, cr12, {1}
    83c4:	e0632002 	rsb	r2, r3, r2
    83c8:	e152000c 	cmp	r2, ip
    83cc:	9afffffb 	bls	83c0 <test_gen+0x174>
    83d0:	e3110020 	tst	r1, #32
    83d4:	0a000004 	beq	83ec <test_gen+0x1a0>
    83d8:	e59f20dc 	ldr	r2, [pc, #220]	; 84bc <test_gen+0x270>
    83dc:	e592c01c 	ldr	ip, [r2, #28]
    83e0:	e180c00c 	orr	ip, r0, ip
    83e4:	e582c01c 	str	ip, [r2, #28]
    83e8:	ea000003 	b	83fc <test_gen+0x1b0>
    83ec:	e59f20c8 	ldr	r2, [pc, #200]	; 84bc <test_gen+0x270>
    83f0:	e592c028 	ldr	ip, [r2, #40]	; 0x28
    83f4:	e180c00c 	orr	ip, r0, ip
    83f8:	e582c028 	str	ip, [r2, #40]	; 0x28
    83fc:	e59fc0d4 	ldr	ip, [pc, #212]	; 84d8 <test_gen+0x28c>
    8400:	ee1f2f3c 	mrc	15, 0, r2, cr15, cr12, {1}
    8404:	e0632002 	rsb	r2, r3, r2
    8408:	e152000c 	cmp	r2, ip
    840c:	9afffffb 	bls	8400 <test_gen+0x1b4>
    8410:	e3110040 	tst	r1, #64	; 0x40
    8414:	0a000004 	beq	842c <test_gen+0x1e0>
    8418:	e59f209c 	ldr	r2, [pc, #156]	; 84bc <test_gen+0x270>
    841c:	e592c01c 	ldr	ip, [r2, #28]
    8420:	e180c00c 	orr	ip, r0, ip
    8424:	e582c01c 	str	ip, [r2, #28]
    8428:	ea000003 	b	843c <test_gen+0x1f0>
    842c:	e59f2088 	ldr	r2, [pc, #136]	; 84bc <test_gen+0x270>
    8430:	e592c028 	ldr	ip, [r2, #40]	; 0x28
    8434:	e180c00c 	orr	ip, r0, ip
    8438:	e582c028 	str	ip, [r2, #40]	; 0x28
    843c:	e59fc098 	ldr	ip, [pc, #152]	; 84dc <test_gen+0x290>
    8440:	ee1f2f3c 	mrc	15, 0, r2, cr15, cr12, {1}
    8444:	e0632002 	rsb	r2, r3, r2
    8448:	e152000c 	cmp	r2, ip
    844c:	9afffffb 	bls	8440 <test_gen+0x1f4>
    8450:	e3110080 	tst	r1, #128	; 0x80
    8454:	0a000004 	beq	846c <test_gen+0x220>
    8458:	e59f205c 	ldr	r2, [pc, #92]	; 84bc <test_gen+0x270>
    845c:	e592101c 	ldr	r1, [r2, #28]
    8460:	e1801001 	orr	r1, r0, r1
    8464:	e582101c 	str	r1, [r2, #28]
    8468:	ea000003 	b	847c <test_gen+0x230>
    846c:	e59f2048 	ldr	r2, [pc, #72]	; 84bc <test_gen+0x270>
    8470:	e5921028 	ldr	r1, [r2, #40]	; 0x28
    8474:	e1801001 	orr	r1, r0, r1
    8478:	e5821028 	str	r1, [r2, #40]	; 0x28
    847c:	e59f105c 	ldr	r1, [pc, #92]	; 84e0 <test_gen+0x294>
    8480:	ee1f2f3c 	mrc	15, 0, r2, cr15, cr12, {1}
    8484:	e0632002 	rsb	r2, r3, r2
    8488:	e1520001 	cmp	r2, r1
    848c:	9afffffb 	bls	8480 <test_gen+0x234>
    8490:	e59f2024 	ldr	r2, [pc, #36]	; 84bc <test_gen+0x270>
    8494:	e592101c 	ldr	r1, [r2, #28]
    8498:	e1800001 	orr	r0, r0, r1
    849c:	e582001c 	str	r0, [r2, #28]
    84a0:	e59f103c 	ldr	r1, [pc, #60]	; 84e4 <test_gen+0x298>
    84a4:	ee1f2f3c 	mrc	15, 0, r2, cr15, cr12, {1}
    84a8:	e0632002 	rsb	r2, r3, r2
    84ac:	e1520001 	cmp	r2, r1
    84b0:	9afffffb 	bls	84a4 <test_gen+0x258>
    84b4:	e49d4004 	pop	{r4}		; (ldr r4, [sp], #4)
    84b8:	e12fff1e 	bx	lr
    84bc:	20200000 	eorcs	r0, r0, r0
    84c0:	000017bb 			; <UNDEFINED> instruction: 0x000017bb
    84c4:	00002f77 	andeq	r2, r0, r7, ror pc
    84c8:	00004733 	andeq	r4, r0, r3, lsr r7
    84cc:	00005eef 	andeq	r5, r0, pc, ror #29
    84d0:	000076ab 	andeq	r7, r0, fp, lsr #13
    84d4:	00008e67 	andeq	r8, r0, r7, ror #28
    84d8:	0000a623 	andeq	sl, r0, r3, lsr #12
    84dc:	0000bddf 	ldrdeq	fp, [r0], -pc	; <UNPREDICTABLE>
    84e0:	0000d59b 	muleq	r0, fp, r5
    84e4:	0000ed57 	andeq	lr, r0, r7, asr sp

000084e8 <interrupt_vector>:
    84e8:	e92d4010 	push	{r4, lr}
    84ec:	ee1f4f3c 	mrc	15, 0, r4, cr15, cr12, {1}
    84f0:	eb0005af 	bl	9bb4 <dev_barrier>
    84f4:	e3a00031 	mov	r0, #49	; 0x31
    84f8:	eb00030f 	bl	913c <is_gpio_int>
    84fc:	e3500000 	cmp	r0, #0
    8500:	1a000003 	bne	8514 <interrupt_vector+0x2c>
    8504:	e3a00032 	mov	r0, #50	; 0x32
    8508:	eb00030b 	bl	913c <is_gpio_int>
    850c:	e3500000 	cmp	r0, #0
    8510:	0a000016 	beq	8570 <interrupt_vector+0x88>
    8514:	e3a00014 	mov	r0, #20
    8518:	eb0002a7 	bl	8fbc <gpio_read>
    851c:	e3500000 	cmp	r0, #0
    8520:	1a000007 	bne	8544 <interrupt_vector+0x5c>
    8524:	e59f305c 	ldr	r3, [pc, #92]	; 8588 <interrupt_vector+0xa0>
    8528:	e5932000 	ldr	r2, [r3]
    852c:	e2822001 	add	r2, r2, #1
    8530:	e5832000 	str	r2, [r3]
    8534:	e5932004 	ldr	r2, [r3, #4]
    8538:	e2822001 	add	r2, r2, #1
    853c:	e5832004 	str	r2, [r3, #4]
    8540:	ea00000a 	b	8570 <interrupt_vector+0x88>
    8544:	e3a00014 	mov	r0, #20
    8548:	eb00029b 	bl	8fbc <gpio_read>
    854c:	e3500000 	cmp	r0, #0
    8550:	da000006 	ble	8570 <interrupt_vector+0x88>
    8554:	e59f302c 	ldr	r3, [pc, #44]	; 8588 <interrupt_vector+0xa0>
    8558:	e5932008 	ldr	r2, [r3, #8]
    855c:	e2822001 	add	r2, r2, #1
    8560:	e5832008 	str	r2, [r3, #8]
    8564:	e5932004 	ldr	r2, [r3, #4]
    8568:	e2822001 	add	r2, r2, #1
    856c:	e5832004 	str	r2, [r3, #4]
    8570:	e59f3010 	ldr	r3, [pc, #16]	; 8588 <interrupt_vector+0xa0>
    8574:	e583400c 	str	r4, [r3, #12]
    8578:	e3a00014 	mov	r0, #20
    857c:	eb00035c 	bl	92f4 <gpio_event_clear>
    8580:	eb00058b 	bl	9bb4 <dev_barrier>
    8584:	e8bd8010 	pop	{r4, pc}
    8588:	0000a378 	andeq	sl, r0, r8, ror r3

0000858c <notmain>:
    858c:	e92d4008 	push	{r3, lr}
    8590:	eb000507 	bl	99b4 <uart_init>
    8594:	eb00055b 	bl	9b08 <int_init>
    8598:	e3a00015 	mov	r0, #21
    859c:	eb000202 	bl	8dac <gpio_set_output>
    85a0:	e3a00014 	mov	r0, #20
    85a4:	eb000251 	bl	8ef0 <gpio_set_input>
    85a8:	e3a00014 	mov	r0, #20
    85ac:	eb0002ed 	bl	9168 <gpio_int_rising_edge>
    85b0:	e3a00014 	mov	r0, #20
    85b4:	eb00030c 	bl	91ec <gpio_int_falling_edge>
    85b8:	eb00017e 	bl	8bb8 <enable_cache>
    85bc:	e3a03001 	mov	r3, #1
    85c0:	ee0f3f1c 	mcr	15, 0, r3, cr15, cr12, {0}
    85c4:	eb000593 	bl	9c18 <system_enable_interrupts>
    85c8:	eb000182 	bl	8bd8 <clean_reboot>

000085cc <printk>:
    85cc:	e92d000f 	push	{r0, r1, r2, r3}
    85d0:	e92d4030 	push	{r4, r5, lr}
    85d4:	e24dd00c 	sub	sp, sp, #12
    85d8:	e28d301c 	add	r3, sp, #28
    85dc:	e58d3004 	str	r3, [sp, #4]
    85e0:	e59f4034 	ldr	r4, [pc, #52]	; 861c <printk+0x50>
    85e4:	e1a00004 	mov	r0, r4
    85e8:	e3a01b01 	mov	r1, #1024	; 0x400
    85ec:	e59d2018 	ldr	r2, [sp, #24]
    85f0:	eb0000cb 	bl	8924 <va_printk>
    85f4:	e1a05000 	mov	r5, r0
    85f8:	e59f3020 	ldr	r3, [pc, #32]	; 8620 <printk+0x54>
    85fc:	e5933000 	ldr	r3, [r3]
    8600:	e1a00004 	mov	r0, r4
    8604:	e12fff33 	blx	r3
    8608:	e1a00005 	mov	r0, r5
    860c:	e28dd00c 	add	sp, sp, #12
    8610:	e8bd4030 	pop	{r4, r5, lr}
    8614:	e28dd010 	add	sp, sp, #16
    8618:	e12fff1e 	bx	lr
    861c:	0000a388 	andeq	sl, r0, r8, lsl #7
    8620:	00009e88 	andeq	r9, r0, r8, lsl #29

00008624 <internal_putchar>:
    8624:	e92d4010 	push	{r4, lr}
    8628:	e1a04000 	mov	r4, r0
    862c:	eb00051f 	bl	9ab0 <uart_putc>
    8630:	e1a00004 	mov	r0, r4
    8634:	e8bd8010 	pop	{r4, pc}

00008638 <rpi_reset_putc>:
    8638:	e59f2008 	ldr	r2, [pc, #8]	; 8648 <rpi_reset_putc+0x10>
    863c:	e59f3008 	ldr	r3, [pc, #8]	; 864c <rpi_reset_putc+0x14>
    8640:	e5832000 	str	r2, [r3]
    8644:	e12fff1e 	bx	lr
    8648:	00008624 	andeq	r8, r0, r4, lsr #12
    864c:	00009e84 	andeq	r9, r0, r4, lsl #29

00008650 <rpi_set_putc>:
    8650:	e59f3004 	ldr	r3, [pc, #4]	; 865c <rpi_set_putc+0xc>
    8654:	e5830000 	str	r0, [r3]
    8658:	e12fff1e 	bx	lr
    865c:	00009e84 	andeq	r9, r0, r4, lsl #29

00008660 <internal_putk>:
    8660:	e92d4038 	push	{r3, r4, r5, lr}
    8664:	e1a04000 	mov	r4, r0
    8668:	e59f5020 	ldr	r5, [pc, #32]	; 8690 <internal_putk+0x30>
    866c:	ea000002 	b	867c <internal_putk+0x1c>
    8670:	e5953000 	ldr	r3, [r5]
    8674:	e12fff33 	blx	r3
    8678:	e2844001 	add	r4, r4, #1
    867c:	e5d40000 	ldrb	r0, [r4]
    8680:	e3500000 	cmp	r0, #0
    8684:	1afffff9 	bne	8670 <internal_putk+0x10>
    8688:	e3a00001 	mov	r0, #1
    868c:	e8bd8038 	pop	{r3, r4, r5, pc}
    8690:	00009e84 	andeq	r9, r0, r4, lsl #29

00008694 <isdigit>:
    8694:	e2400030 	sub	r0, r0, #48	; 0x30
    8698:	e3500009 	cmp	r0, #9
    869c:	83a00000 	movhi	r0, #0
    86a0:	93a00001 	movls	r0, #1
    86a4:	e12fff1e 	bx	lr

000086a8 <pad>:
    86a8:	e0611000 	rsb	r1, r1, r0
    86ac:	e3a03020 	mov	r3, #32
    86b0:	ea000002 	b	86c0 <pad+0x18>
    86b4:	e5c03000 	strb	r3, [r0]
    86b8:	e2811001 	add	r1, r1, #1
    86bc:	e2800001 	add	r0, r0, #1
    86c0:	e1510002 	cmp	r1, r2
    86c4:	bafffffa 	blt	86b4 <pad+0xc>
    86c8:	e3a03000 	mov	r3, #0
    86cc:	e5c03000 	strb	r3, [r0]
    86d0:	e12fff1e 	bx	lr

000086d4 <reverse>:
    86d4:	e063c002 	rsb	ip, r3, r2
    86d8:	e28cc001 	add	ip, ip, #1
    86dc:	e15c0001 	cmp	ip, r1
    86e0:	c061100c 	rsbgt	r1, r1, ip
    86e4:	c0833001 	addgt	r3, r3, r1
    86e8:	e2422001 	sub	r2, r2, #1
    86ec:	e1a01000 	mov	r1, r0
    86f0:	ea000002 	b	8700 <reverse+0x2c>
    86f4:	e452c001 	ldrb	ip, [r2], #-1
    86f8:	e5c1c000 	strb	ip, [r1]
    86fc:	e2811001 	add	r1, r1, #1
    8700:	e1520003 	cmp	r2, r3
    8704:	2afffffa 	bcs	86f4 <reverse+0x20>
    8708:	e3a03000 	mov	r3, #0
    870c:	e5c13000 	strb	r3, [r1]
    8710:	e12fff1e 	bx	lr

00008714 <emit>:
    8714:	e92d41f0 	push	{r4, r5, r6, r7, r8, lr}
    8718:	e24dd048 	sub	sp, sp, #72	; 0x48
    871c:	e1a05001 	mov	r5, r1
    8720:	e1a04002 	mov	r4, r2
    8724:	e59d2060 	ldr	r2, [sp, #96]	; 0x60
    8728:	e1520004 	cmp	r2, r4
    872c:	c2442001 	subgt	r2, r4, #1
    8730:	e1a0c003 	mov	ip, r3
    8734:	e2400002 	sub	r0, r0, #2
    8738:	e350000e 	cmp	r0, #14
    873c:	979ff100 	ldrls	pc, [pc, r0, lsl #2]
    8740:	ea000042 	b	8850 <emit+0x13c>
    8744:	00008828 	andeq	r8, r0, r8, lsr #16
    8748:	00008850 	andeq	r8, r0, r0, asr r8
    874c:	00008850 	andeq	r8, r0, r0, asr r8
    8750:	00008850 	andeq	r8, r0, r0, asr r8
    8754:	00008850 	andeq	r8, r0, r0, asr r8
    8758:	00008850 	andeq	r8, r0, r0, asr r8
    875c:	0000881c 	andeq	r8, r0, ip, lsl r8
    8760:	00008850 	andeq	r8, r0, r0, asr r8
    8764:	00008780 	andeq	r8, r0, r0, lsl #15
    8768:	00008850 	andeq	r8, r0, r0, asr r8
    876c:	00008850 	andeq	r8, r0, r0, asr r8
    8770:	00008850 	andeq	r8, r0, r0, asr r8
    8774:	00008850 	andeq	r8, r0, r0, asr r8
    8778:	00008850 	andeq	r8, r0, r0, asr r8
    877c:	000087f4 	strdeq	r8, [r0], -r4
    8780:	e59d1064 	ldr	r1, [sp, #100]	; 0x64
    8784:	e2911000 	adds	r1, r1, #0
    8788:	13a01001 	movne	r1, #1
    878c:	e0111fa3 	ands	r1, r1, r3, lsr #31
    8790:	1263c000 	rsbne	ip, r3, #0
    8794:	13a08001 	movne	r8, #1
    8798:	03a08000 	moveq	r8, #0
    879c:	e28d1008 	add	r1, sp, #8
    87a0:	e59f70f4 	ldr	r7, [pc, #244]	; 889c <emit+0x188>
    87a4:	e59f60f4 	ldr	r6, [pc, #244]	; 88a0 <emit+0x18c>
    87a8:	ea000000 	b	87b0 <emit+0x9c>
    87ac:	e1a01003 	mov	r1, r3
    87b0:	e2813001 	add	r3, r1, #1
    87b4:	e08e0c97 	umull	r0, lr, r7, ip
    87b8:	e1a0e1ae 	lsr	lr, lr, #3
    87bc:	e1a0000e 	mov	r0, lr
    87c0:	e08ee10e 	add	lr, lr, lr, lsl #2
    87c4:	e1a0e08e 	lsl	lr, lr, #1
    87c8:	e06ee00c 	rsb	lr, lr, ip
    87cc:	e7d6c00e 	ldrb	ip, [r6, lr]
    87d0:	e5c1c000 	strb	ip, [r1]
    87d4:	e1a0c000 	mov	ip, r0
    87d8:	e3500000 	cmp	r0, #0
    87dc:	1afffff2 	bne	87ac <emit+0x98>
    87e0:	e3580000 	cmp	r8, #0
    87e4:	12813002 	addne	r3, r1, #2
    87e8:	13a0002d 	movne	r0, #45	; 0x2d
    87ec:	15c10001 	strbne	r0, [r1, #1]
    87f0:	ea00001f 	b	8874 <emit+0x160>
    87f4:	e28de008 	add	lr, sp, #8
    87f8:	e59f00a4 	ldr	r0, [pc, #164]	; 88a4 <emit+0x190>
    87fc:	e28e3001 	add	r3, lr, #1
    8800:	e20c100f 	and	r1, ip, #15
    8804:	e7d01001 	ldrb	r1, [r0, r1]
    8808:	e5ce1000 	strb	r1, [lr]
    880c:	e1a0e003 	mov	lr, r3
    8810:	e1b0c22c 	lsrs	ip, ip, #4
    8814:	1afffff8 	bne	87fc <emit+0xe8>
    8818:	ea000015 	b	8874 <emit+0x160>
    881c:	e5cd3008 	strb	r3, [sp, #8]
    8820:	e28d3009 	add	r3, sp, #9
    8824:	ea000012 	b	8874 <emit+0x160>
    8828:	e28de008 	add	lr, sp, #8
    882c:	e59f0074 	ldr	r0, [pc, #116]	; 88a8 <emit+0x194>
    8830:	e28e3001 	add	r3, lr, #1
    8834:	e20c1001 	and	r1, ip, #1
    8838:	e7d01001 	ldrb	r1, [r0, r1]
    883c:	e5ce1000 	strb	r1, [lr]
    8840:	e1a0e003 	mov	lr, r3
    8844:	e1b0c0ac 	lsrs	ip, ip, #1
    8848:	1afffff8 	bne	8830 <emit+0x11c>
    884c:	ea000008 	b	8874 <emit+0x160>
    8850:	ebffff78 	bl	8638 <rpi_reset_putc>
    8854:	e59f3050 	ldr	r3, [pc, #80]	; 88ac <emit+0x198>
    8858:	e58d3000 	str	r3, [sp]
    885c:	e59f004c 	ldr	r0, [pc, #76]	; 88b0 <emit+0x19c>
    8860:	e59f104c 	ldr	r1, [pc, #76]	; 88b4 <emit+0x1a0>
    8864:	e59f204c 	ldr	r2, [pc, #76]	; 88b8 <emit+0x1a4>
    8868:	e3a03075 	mov	r3, #117	; 0x75
    886c:	ebffff56 	bl	85cc <printk>
    8870:	eb0000d8 	bl	8bd8 <clean_reboot>
    8874:	e1a00003 	mov	r0, r3
    8878:	e28d1008 	add	r1, sp, #8
    887c:	ebffff89 	bl	86a8 <pad>
    8880:	e1a02000 	mov	r2, r0
    8884:	e1a00005 	mov	r0, r5
    8888:	e1a01004 	mov	r1, r4
    888c:	e28d3008 	add	r3, sp, #8
    8890:	ebffff8f 	bl	86d4 <reverse>
    8894:	e28dd048 	add	sp, sp, #72	; 0x48
    8898:	e8bd81f0 	pop	{r4, r5, r6, r7, r8, pc}
    889c:	cccccccd 	stclgt	12, cr12, [ip], {205}	; 0xcd
    88a0:	00009fc4 	andeq	r9, r0, r4, asr #31
    88a4:	00009fd0 	ldrdeq	r9, [r0], -r0
    88a8:	00009fe4 	andeq	r9, r0, r4, ror #31
    88ac:	00009fc0 	andeq	r9, r0, r0, asr #31
    88b0:	00009f98 	muleq	r0, r8, pc	; <UNPREDICTABLE>
    88b4:	00009fac 	andeq	r9, r0, ip, lsr #31
    88b8:	00009f74 	andeq	r9, r0, r4, ror pc

000088bc <rpi_set_output>:
    88bc:	e52de004 	push	{lr}		; (str lr, [sp, #-4]!)
    88c0:	e24dd00c 	sub	sp, sp, #12
    88c4:	e3500000 	cmp	r0, #0
    88c8:	1a000008 	bne	88f0 <rpi_set_output+0x34>
    88cc:	ebffff59 	bl	8638 <rpi_reset_putc>
    88d0:	e59f3034 	ldr	r3, [pc, #52]	; 890c <rpi_set_output+0x50>
    88d4:	e58d3000 	str	r3, [sp]
    88d8:	e59f0030 	ldr	r0, [pc, #48]	; 8910 <rpi_set_output+0x54>
    88dc:	e59f1030 	ldr	r1, [pc, #48]	; 8914 <rpi_set_output+0x58>
    88e0:	e59f2030 	ldr	r2, [pc, #48]	; 8918 <rpi_set_output+0x5c>
    88e4:	e3a03020 	mov	r3, #32
    88e8:	ebffff37 	bl	85cc <printk>
    88ec:	eb0000b9 	bl	8bd8 <clean_reboot>
    88f0:	e59f3024 	ldr	r3, [pc, #36]	; 891c <rpi_set_output+0x60>
    88f4:	e5830000 	str	r0, [r3]
    88f8:	e3510000 	cmp	r1, #0
    88fc:	159f301c 	ldrne	r3, [pc, #28]	; 8920 <rpi_set_output+0x64>
    8900:	15831000 	strne	r1, [r3]
    8904:	e28dd00c 	add	sp, sp, #12
    8908:	e49df004 	pop	{pc}		; (ldr pc, [sp], #4)
    890c:	00009fe8 	andeq	r9, r0, r8, ror #31
    8910:	00009f98 	muleq	r0, r8, pc	; <UNPREDICTABLE>
    8914:	00009fac 	andeq	r9, r0, ip, lsr #31
    8918:	00009f7c 	andeq	r9, r0, ip, ror pc
    891c:	00009e84 	andeq	r9, r0, r4, lsl #29
    8920:	00009e88 	andeq	r9, r0, r8, lsl #29

00008924 <va_printk>:
    8924:	e92d4ff0 	push	{r4, r5, r6, r7, r8, r9, sl, fp, lr}
    8928:	e24dd08c 	sub	sp, sp, #140	; 0x8c
    892c:	e1a0a000 	mov	sl, r0
    8930:	e1a09003 	mov	r9, r3
    8934:	e2411001 	sub	r1, r1, #1
    8938:	e0808001 	add	r8, r0, r1
    893c:	e3a03000 	mov	r3, #0
    8940:	e5c03000 	strb	r3, [r0]
    8944:	e1a04000 	mov	r4, r0
    8948:	e1a0b003 	mov	fp, r3
    894c:	ea000088 	b	8b74 <va_printk+0x250>
    8950:	e3530025 	cmp	r3, #37	; 0x25
    8954:	12822001 	addne	r2, r2, #1
    8958:	15c43000 	strbne	r3, [r4]
    895c:	12844001 	addne	r4, r4, #1
    8960:	1a000083 	bne	8b74 <va_printk+0x250>
    8964:	e5d21001 	ldrb	r1, [r2, #1]
    8968:	e3510025 	cmp	r1, #37	; 0x25
    896c:	05c43000 	strbeq	r3, [r4]
    8970:	02822002 	addeq	r2, r2, #2
    8974:	02844001 	addeq	r4, r4, #1
    8978:	0a00007d 	beq	8b74 <va_printk+0x250>
    897c:	e2826001 	add	r6, r2, #1
    8980:	e1a0700b 	mov	r7, fp
    8984:	ea000004 	b	899c <va_printk+0x78>
    8988:	e0877107 	add	r7, r7, r7, lsl #2
    898c:	e1a07087 	lsl	r7, r7, #1
    8990:	e0877005 	add	r7, r7, r5
    8994:	e2477030 	sub	r7, r7, #48	; 0x30
    8998:	e2866001 	add	r6, r6, #1
    899c:	e5d65000 	ldrb	r5, [r6]
    89a0:	e1a00005 	mov	r0, r5
    89a4:	ebffff3a 	bl	8694 <isdigit>
    89a8:	e3500000 	cmp	r0, #0
    89ac:	1afffff5 	bne	8988 <va_printk+0x64>
    89b0:	e357001f 	cmp	r7, #31
    89b4:	9a000008 	bls	89dc <va_printk+0xb8>
    89b8:	ebffff1e 	bl	8638 <rpi_reset_putc>
    89bc:	e59f31dc 	ldr	r3, [pc, #476]	; 8ba0 <va_printk+0x27c>
    89c0:	e58d3000 	str	r3, [sp]
    89c4:	e59f01d8 	ldr	r0, [pc, #472]	; 8ba4 <va_printk+0x280>
    89c8:	e59f11d8 	ldr	r1, [pc, #472]	; 8ba8 <va_printk+0x284>
    89cc:	e59f21d8 	ldr	r2, [pc, #472]	; 8bac <va_printk+0x288>
    89d0:	e3a03092 	mov	r3, #146	; 0x92
    89d4:	ebfffefc 	bl	85cc <printk>
    89d8:	eb00007e 	bl	8bd8 <clean_reboot>
    89dc:	e2455062 	sub	r5, r5, #98	; 0x62
    89e0:	e3550016 	cmp	r5, #22
    89e4:	979ff105 	ldrls	pc, [pc, r5, lsl #2]
    89e8:	ea00004e 	b	8b28 <va_printk+0x204>
    89ec:	00008ad4 	ldrdeq	r8, [r0], -r4
    89f0:	00008b04 	andeq	r8, r0, r4, lsl #22
    89f4:	00008a64 	andeq	r8, r0, r4, ror #20
    89f8:	00008b28 	andeq	r8, r0, r8, lsr #22
    89fc:	00008a48 	andeq	r8, r0, r8, asr #20
    8a00:	00008b28 	andeq	r8, r0, r8, lsr #22
    8a04:	00008b28 	andeq	r8, r0, r8, lsr #22
    8a08:	00008b28 	andeq	r8, r0, r8, lsr #22
    8a0c:	00008b28 	andeq	r8, r0, r8, lsr #22
    8a10:	00008b28 	andeq	r8, r0, r8, lsr #22
    8a14:	00008b28 	andeq	r8, r0, r8, lsr #22
    8a18:	00008b28 	andeq	r8, r0, r8, lsr #22
    8a1c:	00008b28 	andeq	r8, r0, r8, lsr #22
    8a20:	00008b28 	andeq	r8, r0, r8, lsr #22
    8a24:	00008ab0 			; <UNDEFINED> instruction: 0x00008ab0
    8a28:	00008b28 	andeq	r8, r0, r8, lsr #22
    8a2c:	00008b28 	andeq	r8, r0, r8, lsr #22
    8a30:	00008af8 	strdeq	r8, [r0], -r8	; <UNPREDICTABLE>
    8a34:	00008b28 	andeq	r8, r0, r8, lsr #22
    8a38:	00008a8c 	andeq	r8, r0, ip, lsl #21
    8a3c:	00008b28 	andeq	r8, r0, r8, lsr #22
    8a40:	00008b28 	andeq	r8, r0, r8, lsr #22
    8a44:	00008ab0 			; <UNDEFINED> instruction: 0x00008ab0
    8a48:	ebfffefa 	bl	8638 <rpi_reset_putc>
    8a4c:	e59f015c 	ldr	r0, [pc, #348]	; 8bb0 <va_printk+0x28c>
    8a50:	e59f1150 	ldr	r1, [pc, #336]	; 8ba8 <va_printk+0x284>
    8a54:	e59f2150 	ldr	r2, [pc, #336]	; 8bac <va_printk+0x288>
    8a58:	e3a03098 	mov	r3, #152	; 0x98
    8a5c:	ebfffeda 	bl	85cc <printk>
    8a60:	eb00005c 	bl	8bd8 <clean_reboot>
    8a64:	e5993000 	ldr	r3, [r9]
    8a68:	e2899004 	add	r9, r9, #4
    8a6c:	e58d7000 	str	r7, [sp]
    8a70:	e3a02001 	mov	r2, #1
    8a74:	e58d2004 	str	r2, [sp, #4]
    8a78:	e3a0000a 	mov	r0, #10
    8a7c:	e28d1008 	add	r1, sp, #8
    8a80:	e3a02080 	mov	r2, #128	; 0x80
    8a84:	ebffff22 	bl	8714 <emit>
    8a88:	ea00002f 	b	8b4c <va_printk+0x228>
    8a8c:	e5993000 	ldr	r3, [r9]
    8a90:	e2899004 	add	r9, r9, #4
    8a94:	e58d7000 	str	r7, [sp]
    8a98:	e58db004 	str	fp, [sp, #4]
    8a9c:	e3a0000a 	mov	r0, #10
    8aa0:	e28d1008 	add	r1, sp, #8
    8aa4:	e3a02080 	mov	r2, #128	; 0x80
    8aa8:	ebffff19 	bl	8714 <emit>
    8aac:	ea000026 	b	8b4c <va_printk+0x228>
    8ab0:	e5993000 	ldr	r3, [r9]
    8ab4:	e2899004 	add	r9, r9, #4
    8ab8:	e58d7000 	str	r7, [sp]
    8abc:	e58db004 	str	fp, [sp, #4]
    8ac0:	e3a00010 	mov	r0, #16
    8ac4:	e28d1008 	add	r1, sp, #8
    8ac8:	e3a02080 	mov	r2, #128	; 0x80
    8acc:	ebffff10 	bl	8714 <emit>
    8ad0:	ea00001d 	b	8b4c <va_printk+0x228>
    8ad4:	e5993000 	ldr	r3, [r9]
    8ad8:	e2899004 	add	r9, r9, #4
    8adc:	e58d7000 	str	r7, [sp]
    8ae0:	e58db004 	str	fp, [sp, #4]
    8ae4:	e3a00002 	mov	r0, #2
    8ae8:	e28d1008 	add	r1, sp, #8
    8aec:	e3a02080 	mov	r2, #128	; 0x80
    8af0:	ebffff07 	bl	8714 <emit>
    8af4:	ea000014 	b	8b4c <va_printk+0x228>
    8af8:	e5990000 	ldr	r0, [r9]
    8afc:	e2899004 	add	r9, r9, #4
    8b00:	ea000011 	b	8b4c <va_printk+0x228>
    8b04:	e5993000 	ldr	r3, [r9]
    8b08:	e2899004 	add	r9, r9, #4
    8b0c:	e58d7000 	str	r7, [sp]
    8b10:	e58db004 	str	fp, [sp, #4]
    8b14:	e3a00008 	mov	r0, #8
    8b18:	e08d1000 	add	r1, sp, r0
    8b1c:	e3a02080 	mov	r2, #128	; 0x80
    8b20:	ebfffefb 	bl	8714 <emit>
    8b24:	ea000008 	b	8b4c <va_printk+0x228>
    8b28:	ebfffec2 	bl	8638 <rpi_reset_putc>
    8b2c:	e5d63000 	ldrb	r3, [r6]
    8b30:	e58d3000 	str	r3, [sp]
    8b34:	e59f0078 	ldr	r0, [pc, #120]	; 8bb4 <va_printk+0x290>
    8b38:	e59f1068 	ldr	r1, [pc, #104]	; 8ba8 <va_printk+0x284>
    8b3c:	e59f2068 	ldr	r2, [pc, #104]	; 8bac <va_printk+0x288>
    8b40:	e3a030b9 	mov	r3, #185	; 0xb9
    8b44:	ebfffea0 	bl	85cc <printk>
    8b48:	eb000022 	bl	8bd8 <clean_reboot>
    8b4c:	e2862001 	add	r2, r6, #1
    8b50:	ea000002 	b	8b60 <va_printk+0x23c>
    8b54:	e2800001 	add	r0, r0, #1
    8b58:	e5c43000 	strb	r3, [r4]
    8b5c:	e2844001 	add	r4, r4, #1
    8b60:	e1540008 	cmp	r4, r8
    8b64:	2a000002 	bcs	8b74 <va_printk+0x250>
    8b68:	e5d03000 	ldrb	r3, [r0]
    8b6c:	e3530000 	cmp	r3, #0
    8b70:	1afffff7 	bne	8b54 <va_printk+0x230>
    8b74:	e5d23000 	ldrb	r3, [r2]
    8b78:	e3530000 	cmp	r3, #0
    8b7c:	0a000001 	beq	8b88 <va_printk+0x264>
    8b80:	e1540008 	cmp	r4, r8
    8b84:	3affff71 	bcc	8950 <va_printk+0x2c>
    8b88:	e2840001 	add	r0, r4, #1
    8b8c:	e3a03000 	mov	r3, #0
    8b90:	e5c43000 	strb	r3, [r4]
    8b94:	e06a0000 	rsb	r0, sl, r0
    8b98:	e28dd08c 	add	sp, sp, #140	; 0x8c
    8b9c:	e8bd8ff0 	pop	{r4, r5, r6, r7, r8, r9, sl, fp, pc}
    8ba0:	00009ff0 	strdeq	r9, [r0], -r0
    8ba4:	00009f98 	muleq	r0, r8, pc	; <UNPREDICTABLE>
    8ba8:	00009fac 	andeq	r9, r0, ip, lsr #31
    8bac:	00009f8c 	andeq	r9, r0, ip, lsl #31
    8bb0:	00009ffc 	strdeq	r9, [r0], -ip
    8bb4:	0000a024 	andeq	sl, r0, r4, lsr #32

00008bb8 <enable_cache>:
    8bb8:	ee113f10 	mrc	15, 0, r3, cr1, cr0, {0}
    8bbc:	e3833b06 	orr	r3, r3, #6144	; 0x1800
    8bc0:	ee013f10 	mcr	15, 0, r3, cr1, cr0, {0}
    8bc4:	e12fff1e 	bx	lr

00008bc8 <disable_cache>:
    8bc8:	ee113f10 	mrc	15, 0, r3, cr1, cr0, {0}
    8bcc:	e3c33b06 	bic	r3, r3, #6144	; 0x1800
    8bd0:	ee013f10 	mcr	15, 0, r3, cr1, cr0, {0}
    8bd4:	e12fff1e 	bx	lr

00008bd8 <clean_reboot>:
    8bd8:	e92d4008 	push	{r3, lr}
    8bdc:	e59f3014 	ldr	r3, [pc, #20]	; 8bf8 <clean_reboot+0x20>
    8be0:	e5933000 	ldr	r3, [r3]
    8be4:	e59f0010 	ldr	r0, [pc, #16]	; 8bfc <clean_reboot+0x24>
    8be8:	e12fff33 	blx	r3
    8bec:	e3a00064 	mov	r0, #100	; 0x64
    8bf0:	eb000063 	bl	8d84 <delay_ms>
    8bf4:	eb000038 	bl	8cdc <rpi_reboot>
    8bf8:	00009e88 	andeq	r9, r0, r8, lsl #29
    8bfc:	0000a05c 	andeq	sl, r0, ip, asr r0

00008c00 <internal_sw_putchar>:
    8c00:	e92d4010 	push	{r4, lr}
    8c04:	e1a04000 	mov	r4, r0
    8c08:	e59f000c 	ldr	r0, [pc, #12]	; 8c1c <internal_sw_putchar+0x1c>
    8c0c:	e6ef1074 	uxtb	r1, r4
    8c10:	eb0001cd 	bl	934c <sw_uart_putc>
    8c14:	e1a00004 	mov	r0, r4
    8c18:	e8bd8010 	pop	{r4, pc}
    8c1c:	0000a788 	andeq	sl, r0, r8, lsl #15

00008c20 <_cstart>:
    8c20:	e92d4008 	push	{r3, lr}
    8c24:	e59f3068 	ldr	r3, [pc, #104]	; 8c94 <_cstart+0x74>
    8c28:	e59f2068 	ldr	r2, [pc, #104]	; 8c98 <_cstart+0x78>
    8c2c:	e3a01000 	mov	r1, #0
    8c30:	ea000001 	b	8c3c <_cstart+0x1c>
    8c34:	e5831000 	str	r1, [r3]
    8c38:	e2833004 	add	r3, r3, #4
    8c3c:	e1530002 	cmp	r3, r2
    8c40:	3afffffb 	bcc	8c34 <_cstart+0x14>
    8c44:	eb000438 	bl	9d2c <cb_get_block>
    8c48:	e3500000 	cmp	r0, #0
    8c4c:	0a00000e 	beq	8c8c <_cstart+0x6c>
    8c50:	e5d02004 	ldrb	r2, [r0, #4]
    8c54:	e3520002 	cmp	r2, #2
    8c58:	1a00000b 	bne	8c8c <_cstart+0x6c>
    8c5c:	e59f1038 	ldr	r1, [pc, #56]	; 8c9c <_cstart+0x7c>
    8c60:	e59f2038 	ldr	r2, [pc, #56]	; 8ca0 <_cstart+0x80>
    8c64:	e5821000 	str	r1, [r2]
    8c68:	e59fc034 	ldr	ip, [pc, #52]	; 8ca4 <_cstart+0x84>
    8c6c:	e2803008 	add	r3, r0, #8
    8c70:	e8930007 	ldm	r3, {r0, r1, r2}
    8c74:	e88c0007 	stm	ip, {r0, r1, r2}
    8c78:	e1a0000c 	mov	r0, ip
    8c7c:	e59f1024 	ldr	r1, [pc, #36]	; 8ca8 <_cstart+0x88>
    8c80:	eb000314 	bl	98d8 <sw_uart_printk>
    8c84:	e59f0020 	ldr	r0, [pc, #32]	; 8cac <_cstart+0x8c>
    8c88:	ebfffe4f 	bl	85cc <printk>
    8c8c:	ebfffe3e 	bl	858c <notmain>
    8c90:	eb000011 	bl	8cdc <rpi_reboot>
    8c94:	0000a378 	andeq	sl, r0, r8, ror r3
    8c98:	0000a798 	muleq	r0, r8, r7
    8c9c:	00008c00 	andeq	r8, r0, r0, lsl #24
    8ca0:	00009e84 	andeq	r9, r0, r4, lsl #29
    8ca4:	0000a788 	andeq	sl, r0, r8, lsl #15
    8ca8:	0000a068 	andeq	sl, r0, r8, rrx
    8cac:	0000a08c 	andeq	sl, r0, ip, lsl #1

00008cb0 <at_user_level>:
    8cb0:	e10f0000 	mrs	r0, CPSR
    8cb4:	e200001f 	and	r0, r0, #31
    8cb8:	e3500010 	cmp	r0, #16
    8cbc:	13a00000 	movne	r0, #0
    8cc0:	03a00001 	moveq	r0, #1
    8cc4:	e12fff1e 	bx	lr

00008cc8 <set_user_level>:
    8cc8:	e10f3000 	mrs	r3, CPSR
    8ccc:	e3c3301f 	bic	r3, r3, #31
    8cd0:	e3833010 	orr	r3, r3, #16
    8cd4:	e129f003 	msr	CPSR_fc, r3
    8cd8:	e12fff1e 	bx	lr

00008cdc <rpi_reboot>:
    8cdc:	e92d4008 	push	{r3, lr}
    8ce0:	ebfffff2 	bl	8cb0 <at_user_level>
    8ce4:	e3500000 	cmp	r0, #0
    8ce8:	0a000000 	beq	8cf0 <rpi_reboot+0x14>
    8cec:	ebfffff5 	bl	8cc8 <set_user_level>
    8cf0:	e3a0001e 	mov	r0, #30
    8cf4:	eb000022 	bl	8d84 <delay_ms>
    8cf8:	e59f0014 	ldr	r0, [pc, #20]	; 8d14 <rpi_reboot+0x38>
    8cfc:	e59f1014 	ldr	r1, [pc, #20]	; 8d18 <rpi_reboot+0x3c>
    8d00:	eb0003b3 	bl	9bd4 <PUT32>
    8d04:	e59f0010 	ldr	r0, [pc, #16]	; 8d1c <rpi_reboot+0x40>
    8d08:	e59f1010 	ldr	r1, [pc, #16]	; 8d20 <rpi_reboot+0x44>
    8d0c:	eb0003b0 	bl	9bd4 <PUT32>
    8d10:	eafffffe 	b	8d10 <rpi_reboot+0x34>
    8d14:	20100024 	andscs	r0, r0, r4, lsr #32
    8d18:	5a000001 	bpl	8d24 <delay_cycles>
    8d1c:	2010001c 	andscs	r0, r0, ip, lsl r0
    8d20:	5a000020 	bpl	8da8 <delay_sec+0x10>

00008d24 <delay_cycles>:
    8d24:	ea000001 	b	8d30 <delay_cycles+0xc>
    8d28:	e2811000 	add	r1, r1, #0
    8d2c:	e1a00003 	mov	r0, r3
    8d30:	e2403001 	sub	r3, r0, #1
    8d34:	e3500000 	cmp	r0, #0
    8d38:	1afffffa 	bne	8d28 <delay_cycles+0x4>
    8d3c:	e12fff1e 	bx	lr

00008d40 <timer_get_usec_raw>:
    8d40:	e92d4008 	push	{r3, lr}
    8d44:	e59f0004 	ldr	r0, [pc, #4]	; 8d50 <timer_get_usec_raw+0x10>
    8d48:	eb0003ad 	bl	9c04 <GET32>
    8d4c:	e8bd8008 	pop	{r3, pc}
    8d50:	20003004 	andcs	r3, r0, r4

00008d54 <timer_get_usec>:
    8d54:	e92d4008 	push	{r3, lr}
    8d58:	ebfffff8 	bl	8d40 <timer_get_usec_raw>
    8d5c:	e8bd8008 	pop	{r3, pc}

00008d60 <delay_us>:
    8d60:	e92d4038 	push	{r3, r4, r5, lr}
    8d64:	e1a05000 	mov	r5, r0
    8d68:	ebfffff9 	bl	8d54 <timer_get_usec>
    8d6c:	e1a04000 	mov	r4, r0
    8d70:	ebfffff7 	bl	8d54 <timer_get_usec>
    8d74:	e0640000 	rsb	r0, r4, r0
    8d78:	e1500005 	cmp	r0, r5
    8d7c:	3afffffb 	bcc	8d70 <delay_us+0x10>
    8d80:	e8bd8038 	pop	{r3, r4, r5, pc}

00008d84 <delay_ms>:
    8d84:	e92d4008 	push	{r3, lr}
    8d88:	e3a03ffa 	mov	r3, #1000	; 0x3e8
    8d8c:	e0000093 	mul	r0, r3, r0
    8d90:	ebfffff2 	bl	8d60 <delay_us>
    8d94:	e8bd8008 	pop	{r3, pc}

00008d98 <delay_sec>:
    8d98:	e92d4008 	push	{r3, lr}
    8d9c:	e3a03ffa 	mov	r3, #1000	; 0x3e8
    8da0:	e0000093 	mul	r0, r3, r0
    8da4:	ebfffff6 	bl	8d84 <delay_ms>
    8da8:	e8bd8008 	pop	{r3, pc}

00008dac <gpio_set_output>:
    8dac:	e92d4038 	push	{r3, r4, r5, lr}
    8db0:	e1a04000 	mov	r4, r0
    8db4:	e350001f 	cmp	r0, #31
    8db8:	88bd8038 	pophi	{r3, r4, r5, pc}
    8dbc:	e59f30b4 	ldr	r3, [pc, #180]	; 8e78 <gpio_set_output+0xcc>
    8dc0:	e0832093 	umull	r2, r3, r3, r0
    8dc4:	e1a031a3 	lsr	r3, r3, #3
    8dc8:	e3530005 	cmp	r3, #5
    8dcc:	979ff103 	ldrls	pc, [pc, r3, lsl #2]
    8dd0:	ea000017 	b	8e34 <gpio_set_output+0x88>
    8dd4:	00008dec 	andeq	r8, r0, ip, ror #27
    8dd8:	00008df8 	strdeq	r8, [r0], -r8	; <UNPREDICTABLE>
    8ddc:	00008e04 	andeq	r8, r0, r4, lsl #28
    8de0:	00008e10 	andeq	r8, r0, r0, lsl lr
    8de4:	00008e1c 	andeq	r8, r0, ip, lsl lr
    8de8:	00008e28 	andeq	r8, r0, r8, lsr #28
    8dec:	e59f3088 	ldr	r3, [pc, #136]	; 8e7c <gpio_set_output+0xd0>
    8df0:	e5935000 	ldr	r5, [r3]
    8df4:	ea00000f 	b	8e38 <gpio_set_output+0x8c>
    8df8:	e59f307c 	ldr	r3, [pc, #124]	; 8e7c <gpio_set_output+0xd0>
    8dfc:	e5935004 	ldr	r5, [r3, #4]
    8e00:	ea00000c 	b	8e38 <gpio_set_output+0x8c>
    8e04:	e59f3070 	ldr	r3, [pc, #112]	; 8e7c <gpio_set_output+0xd0>
    8e08:	e5935008 	ldr	r5, [r3, #8]
    8e0c:	ea000009 	b	8e38 <gpio_set_output+0x8c>
    8e10:	e59f3064 	ldr	r3, [pc, #100]	; 8e7c <gpio_set_output+0xd0>
    8e14:	e593500c 	ldr	r5, [r3, #12]
    8e18:	ea000006 	b	8e38 <gpio_set_output+0x8c>
    8e1c:	e59f3058 	ldr	r3, [pc, #88]	; 8e7c <gpio_set_output+0xd0>
    8e20:	e5935010 	ldr	r5, [r3, #16]
    8e24:	ea000003 	b	8e38 <gpio_set_output+0x8c>
    8e28:	e59f304c 	ldr	r3, [pc, #76]	; 8e7c <gpio_set_output+0xd0>
    8e2c:	e5935014 	ldr	r5, [r3, #20]
    8e30:	ea000000 	b	8e38 <gpio_set_output+0x8c>
    8e34:	e3a05000 	mov	r5, #0
    8e38:	e1a00005 	mov	r0, r5
    8e3c:	eb00036e 	bl	9bfc <get32>
    8e40:	e59f1030 	ldr	r1, [pc, #48]	; 8e78 <gpio_set_output+0xcc>
    8e44:	e0813491 	umull	r3, r1, r1, r4
    8e48:	e1a011a1 	lsr	r1, r1, #3
    8e4c:	e0811101 	add	r1, r1, r1, lsl #2
    8e50:	e1a01081 	lsl	r1, r1, #1
    8e54:	e0611004 	rsb	r1, r1, r4
    8e58:	e0811081 	add	r1, r1, r1, lsl #1
    8e5c:	e3a03007 	mov	r3, #7
    8e60:	e1c03113 	bic	r3, r0, r3, lsl r1
    8e64:	e1a00005 	mov	r0, r5
    8e68:	e3a02001 	mov	r2, #1
    8e6c:	e1831112 	orr	r1, r3, r2, lsl r1
    8e70:	eb000355 	bl	9bcc <put32>
    8e74:	e8bd8038 	pop	{r3, r4, r5, pc}
    8e78:	cccccccd 	stclgt	12, cr12, [ip], {205}	; 0xcd
    8e7c:	00009e8c 	andeq	r9, r0, ip, lsl #29

00008e80 <gpio_set_on>:
    8e80:	e92d4008 	push	{r3, lr}
    8e84:	e350001f 	cmp	r0, #31
    8e88:	88bd8008 	pophi	{r3, pc}
    8e8c:	959f3020 	ldrls	r3, [pc, #32]	; 8eb4 <gpio_set_on+0x34>
    8e90:	95932018 	ldrls	r2, [r3, #24]
    8e94:	859f3018 	ldrhi	r3, [pc, #24]	; 8eb4 <gpio_set_on+0x34>
    8e98:	8593201c 	ldrhi	r2, [r3, #28]
    8e9c:	e200301f 	and	r3, r0, #31
    8ea0:	e1a00002 	mov	r0, r2
    8ea4:	e3a01001 	mov	r1, #1
    8ea8:	e1a01311 	lsl	r1, r1, r3
    8eac:	eb000346 	bl	9bcc <put32>
    8eb0:	e8bd8008 	pop	{r3, pc}
    8eb4:	00009e8c 	andeq	r9, r0, ip, lsl #29

00008eb8 <gpio_set_off>:
    8eb8:	e92d4008 	push	{r3, lr}
    8ebc:	e350001f 	cmp	r0, #31
    8ec0:	88bd8008 	pophi	{r3, pc}
    8ec4:	959f3020 	ldrls	r3, [pc, #32]	; 8eec <gpio_set_off+0x34>
    8ec8:	95932020 	ldrls	r2, [r3, #32]
    8ecc:	859f3018 	ldrhi	r3, [pc, #24]	; 8eec <gpio_set_off+0x34>
    8ed0:	85932024 	ldrhi	r2, [r3, #36]	; 0x24
    8ed4:	e200301f 	and	r3, r0, #31
    8ed8:	e1a00002 	mov	r0, r2
    8edc:	e3a01001 	mov	r1, #1
    8ee0:	e1a01311 	lsl	r1, r1, r3
    8ee4:	eb000338 	bl	9bcc <put32>
    8ee8:	e8bd8008 	pop	{r3, pc}
    8eec:	00009e8c 	andeq	r9, r0, ip, lsl #29

00008ef0 <gpio_set_input>:
    8ef0:	e92d4038 	push	{r3, r4, r5, lr}
    8ef4:	e1a04000 	mov	r4, r0
    8ef8:	e350001f 	cmp	r0, #31
    8efc:	88bd8038 	pophi	{r3, r4, r5, pc}
    8f00:	e59f30ac 	ldr	r3, [pc, #172]	; 8fb4 <gpio_set_input+0xc4>
    8f04:	e0832093 	umull	r2, r3, r3, r0
    8f08:	e1a031a3 	lsr	r3, r3, #3
    8f0c:	e3530005 	cmp	r3, #5
    8f10:	979ff103 	ldrls	pc, [pc, r3, lsl #2]
    8f14:	ea000017 	b	8f78 <gpio_set_input+0x88>
    8f18:	00008f30 	andeq	r8, r0, r0, lsr pc
    8f1c:	00008f3c 	andeq	r8, r0, ip, lsr pc
    8f20:	00008f48 	andeq	r8, r0, r8, asr #30
    8f24:	00008f54 	andeq	r8, r0, r4, asr pc
    8f28:	00008f60 	andeq	r8, r0, r0, ror #30
    8f2c:	00008f6c 	andeq	r8, r0, ip, ror #30
    8f30:	e59f3080 	ldr	r3, [pc, #128]	; 8fb8 <gpio_set_input+0xc8>
    8f34:	e5935000 	ldr	r5, [r3]
    8f38:	ea00000f 	b	8f7c <gpio_set_input+0x8c>
    8f3c:	e59f3074 	ldr	r3, [pc, #116]	; 8fb8 <gpio_set_input+0xc8>
    8f40:	e5935004 	ldr	r5, [r3, #4]
    8f44:	ea00000c 	b	8f7c <gpio_set_input+0x8c>
    8f48:	e59f3068 	ldr	r3, [pc, #104]	; 8fb8 <gpio_set_input+0xc8>
    8f4c:	e5935008 	ldr	r5, [r3, #8]
    8f50:	ea000009 	b	8f7c <gpio_set_input+0x8c>
    8f54:	e59f305c 	ldr	r3, [pc, #92]	; 8fb8 <gpio_set_input+0xc8>
    8f58:	e593500c 	ldr	r5, [r3, #12]
    8f5c:	ea000006 	b	8f7c <gpio_set_input+0x8c>
    8f60:	e59f3050 	ldr	r3, [pc, #80]	; 8fb8 <gpio_set_input+0xc8>
    8f64:	e5935010 	ldr	r5, [r3, #16]
    8f68:	ea000003 	b	8f7c <gpio_set_input+0x8c>
    8f6c:	e59f3044 	ldr	r3, [pc, #68]	; 8fb8 <gpio_set_input+0xc8>
    8f70:	e5935014 	ldr	r5, [r3, #20]
    8f74:	ea000000 	b	8f7c <gpio_set_input+0x8c>
    8f78:	e3a05000 	mov	r5, #0
    8f7c:	e1a00005 	mov	r0, r5
    8f80:	eb00031d 	bl	9bfc <get32>
    8f84:	e59f1028 	ldr	r1, [pc, #40]	; 8fb4 <gpio_set_input+0xc4>
    8f88:	e0813491 	umull	r3, r1, r1, r4
    8f8c:	e1a011a1 	lsr	r1, r1, #3
    8f90:	e0811101 	add	r1, r1, r1, lsl #2
    8f94:	e1a01081 	lsl	r1, r1, #1
    8f98:	e0611004 	rsb	r1, r1, r4
    8f9c:	e0811081 	add	r1, r1, r1, lsl #1
    8fa0:	e3a03007 	mov	r3, #7
    8fa4:	e1c01113 	bic	r1, r0, r3, lsl r1
    8fa8:	e1a00005 	mov	r0, r5
    8fac:	eb000306 	bl	9bcc <put32>
    8fb0:	e8bd8038 	pop	{r3, r4, r5, pc}
    8fb4:	cccccccd 	stclgt	12, cr12, [ip], {205}	; 0xcd
    8fb8:	00009e8c 	andeq	r9, r0, ip, lsl #29

00008fbc <gpio_read>:
    8fbc:	e92d4010 	push	{r4, lr}
    8fc0:	e1a04000 	mov	r4, r0
    8fc4:	e350001f 	cmp	r0, #31
    8fc8:	8a00000b 	bhi	8ffc <gpio_read+0x40>
    8fcc:	8a000003 	bhi	8fe0 <gpio_read+0x24>
    8fd0:	e59f302c 	ldr	r3, [pc, #44]	; 9004 <gpio_read+0x48>
    8fd4:	e5930028 	ldr	r0, [r3, #40]	; 0x28
    8fd8:	eb000307 	bl	9bfc <get32>
    8fdc:	ea000002 	b	8fec <gpio_read+0x30>
    8fe0:	e59f301c 	ldr	r3, [pc, #28]	; 9004 <gpio_read+0x48>
    8fe4:	e593002c 	ldr	r0, [r3, #44]	; 0x2c
    8fe8:	eb000303 	bl	9bfc <get32>
    8fec:	e204401f 	and	r4, r4, #31
    8ff0:	e3a03001 	mov	r3, #1
    8ff4:	e0000413 	and	r0, r0, r3, lsl r4
    8ff8:	e8bd8010 	pop	{r4, pc}
    8ffc:	e3e00000 	mvn	r0, #0
    9000:	e8bd8010 	pop	{r4, pc}
    9004:	00009e8c 	andeq	r9, r0, ip, lsl #29

00009008 <gpio_write>:
    9008:	e92d4008 	push	{r3, lr}
    900c:	e350001f 	cmp	r0, #31
    9010:	88bd8008 	pophi	{r3, pc}
    9014:	e3510000 	cmp	r1, #0
    9018:	0a000001 	beq	9024 <gpio_write+0x1c>
    901c:	ebffff97 	bl	8e80 <gpio_set_on>
    9020:	e8bd8008 	pop	{r3, pc}
    9024:	ebffffa3 	bl	8eb8 <gpio_set_off>
    9028:	e8bd8008 	pop	{r3, pc}

0000902c <gpio_set_function>:
    902c:	e92d4070 	push	{r4, r5, r6, lr}
    9030:	e1a04000 	mov	r4, r0
    9034:	e1a05001 	mov	r5, r1
    9038:	e3510007 	cmp	r1, #7
    903c:	9350001f 	cmpls	r0, #31
    9040:	88bd8070 	pophi	{r4, r5, r6, pc}
    9044:	e59f30b0 	ldr	r3, [pc, #176]	; 90fc <gpio_set_function+0xd0>
    9048:	e0832093 	umull	r2, r3, r3, r0
    904c:	e1a031a3 	lsr	r3, r3, #3
    9050:	e3530005 	cmp	r3, #5
    9054:	979ff103 	ldrls	pc, [pc, r3, lsl #2]
    9058:	ea000017 	b	90bc <gpio_set_function+0x90>
    905c:	00009074 	andeq	r9, r0, r4, ror r0
    9060:	00009080 	andeq	r9, r0, r0, lsl #1
    9064:	0000908c 	andeq	r9, r0, ip, lsl #1
    9068:	00009098 	muleq	r0, r8, r0
    906c:	000090a4 	andeq	r9, r0, r4, lsr #1
    9070:	000090b0 	strheq	r9, [r0], -r0
    9074:	e59f3084 	ldr	r3, [pc, #132]	; 9100 <gpio_set_function+0xd4>
    9078:	e5936000 	ldr	r6, [r3]
    907c:	ea00000f 	b	90c0 <gpio_set_function+0x94>
    9080:	e59f3078 	ldr	r3, [pc, #120]	; 9100 <gpio_set_function+0xd4>
    9084:	e5936004 	ldr	r6, [r3, #4]
    9088:	ea00000c 	b	90c0 <gpio_set_function+0x94>
    908c:	e59f306c 	ldr	r3, [pc, #108]	; 9100 <gpio_set_function+0xd4>
    9090:	e5936008 	ldr	r6, [r3, #8]
    9094:	ea000009 	b	90c0 <gpio_set_function+0x94>
    9098:	e59f3060 	ldr	r3, [pc, #96]	; 9100 <gpio_set_function+0xd4>
    909c:	e593600c 	ldr	r6, [r3, #12]
    90a0:	ea000006 	b	90c0 <gpio_set_function+0x94>
    90a4:	e59f3054 	ldr	r3, [pc, #84]	; 9100 <gpio_set_function+0xd4>
    90a8:	e5936010 	ldr	r6, [r3, #16]
    90ac:	ea000003 	b	90c0 <gpio_set_function+0x94>
    90b0:	e59f3048 	ldr	r3, [pc, #72]	; 9100 <gpio_set_function+0xd4>
    90b4:	e5936014 	ldr	r6, [r3, #20]
    90b8:	ea000000 	b	90c0 <gpio_set_function+0x94>
    90bc:	e3a06000 	mov	r6, #0
    90c0:	e1a00006 	mov	r0, r6
    90c4:	eb0002cc 	bl	9bfc <get32>
    90c8:	e59f302c 	ldr	r3, [pc, #44]	; 90fc <gpio_set_function+0xd0>
    90cc:	e0832493 	umull	r2, r3, r3, r4
    90d0:	e1a031a3 	lsr	r3, r3, #3
    90d4:	e0833103 	add	r3, r3, r3, lsl #2
    90d8:	e1a03083 	lsl	r3, r3, #1
    90dc:	e0633004 	rsb	r3, r3, r4
    90e0:	e0833083 	add	r3, r3, r3, lsl #1
    90e4:	e3a01007 	mov	r1, #7
    90e8:	e1c01311 	bic	r1, r0, r1, lsl r3
    90ec:	e1a00006 	mov	r0, r6
    90f0:	e1811315 	orr	r1, r1, r5, lsl r3
    90f4:	eb0002b4 	bl	9bcc <put32>
    90f8:	e8bd8070 	pop	{r4, r5, r6, pc}
    90fc:	cccccccd 	stclgt	12, cr12, [ip], {205}	; 0xcd
    9100:	00009e8c 	andeq	r9, r0, ip, lsl #29

00009104 <gpio_toggle>:
    9104:	e92d4008 	push	{r3, lr}
    9108:	e350001f 	cmp	r0, #31
    910c:	88bd8008 	pophi	{r3, pc}
    9110:	959f3020 	ldrls	r3, [pc, #32]	; 9138 <gpio_toggle+0x34>
    9114:	95932018 	ldrls	r2, [r3, #24]
    9118:	859f3018 	ldrhi	r3, [pc, #24]	; 9138 <gpio_toggle+0x34>
    911c:	8593201c 	ldrhi	r2, [r3, #28]
    9120:	e200301f 	and	r3, r0, #31
    9124:	e1a00002 	mov	r0, r2
    9128:	e3a01001 	mov	r1, #1
    912c:	e1a01311 	lsl	r1, r1, r3
    9130:	eb0002a5 	bl	9bcc <put32>
    9134:	e8bd8008 	pop	{r3, pc}
    9138:	00009e8c 	andeq	r9, r0, ip, lsl #29

0000913c <is_gpio_int>:
    913c:	e92d4008 	push	{r3, lr}
    9140:	e59f301c 	ldr	r3, [pc, #28]	; 9164 <is_gpio_int+0x28>
    9144:	e5930030 	ldr	r0, [r3, #48]	; 0x30
    9148:	eb0002ab 	bl	9bfc <get32>
    914c:	e3500000 	cmp	r0, #0
    9150:	0a000001 	beq	915c <is_gpio_int+0x20>
    9154:	e3a00001 	mov	r0, #1
    9158:	e8bd8008 	pop	{r3, pc}
    915c:	e3a00000 	mov	r0, #0
    9160:	e8bd8008 	pop	{r3, pc}
    9164:	00009e8c 	andeq	r9, r0, ip, lsl #29

00009168 <gpio_int_rising_edge>:
    9168:	e92d4038 	push	{r3, r4, r5, lr}
    916c:	e1a04000 	mov	r4, r0
    9170:	e350001f 	cmp	r0, #31
    9174:	88bd8038 	pophi	{r3, r4, r5, pc}
    9178:	eb00028d 	bl	9bb4 <dev_barrier>
    917c:	e354001f 	cmp	r4, #31
    9180:	8a000007 	bhi	91a4 <gpio_int_rising_edge+0x3c>
    9184:	e59f505c 	ldr	r5, [pc, #92]	; 91e8 <gpio_int_rising_edge+0x80>
    9188:	e5950034 	ldr	r0, [r5, #52]	; 0x34
    918c:	eb00029a 	bl	9bfc <get32>
    9190:	e3a01001 	mov	r1, #1
    9194:	e1801411 	orr	r1, r0, r1, lsl r4
    9198:	e5950034 	ldr	r0, [r5, #52]	; 0x34
    919c:	eb00028a 	bl	9bcc <put32>
    91a0:	ea000007 	b	91c4 <gpio_int_rising_edge+0x5c>
    91a4:	e59f503c 	ldr	r5, [pc, #60]	; 91e8 <gpio_int_rising_edge+0x80>
    91a8:	e5950038 	ldr	r0, [r5, #56]	; 0x38
    91ac:	eb000292 	bl	9bfc <get32>
    91b0:	e204401f 	and	r4, r4, #31
    91b4:	e3a01001 	mov	r1, #1
    91b8:	e1801411 	orr	r1, r0, r1, lsl r4
    91bc:	e5950038 	ldr	r0, [r5, #56]	; 0x38
    91c0:	eb000281 	bl	9bcc <put32>
    91c4:	eb00027a 	bl	9bb4 <dev_barrier>
    91c8:	e59f4018 	ldr	r4, [pc, #24]	; 91e8 <gpio_int_rising_edge+0x80>
    91cc:	e594003c 	ldr	r0, [r4, #60]	; 0x3c
    91d0:	eb000289 	bl	9bfc <get32>
    91d4:	e3801802 	orr	r1, r0, #131072	; 0x20000
    91d8:	e594003c 	ldr	r0, [r4, #60]	; 0x3c
    91dc:	eb00027a 	bl	9bcc <put32>
    91e0:	eb000273 	bl	9bb4 <dev_barrier>
    91e4:	e8bd8038 	pop	{r3, r4, r5, pc}
    91e8:	00009e8c 	andeq	r9, r0, ip, lsl #29

000091ec <gpio_int_falling_edge>:
    91ec:	e92d4038 	push	{r3, r4, r5, lr}
    91f0:	e1a04000 	mov	r4, r0
    91f4:	e350001f 	cmp	r0, #31
    91f8:	88bd8038 	pophi	{r3, r4, r5, pc}
    91fc:	eb00026c 	bl	9bb4 <dev_barrier>
    9200:	e354001f 	cmp	r4, #31
    9204:	8a000007 	bhi	9228 <gpio_int_falling_edge+0x3c>
    9208:	e59f505c 	ldr	r5, [pc, #92]	; 926c <gpio_int_falling_edge+0x80>
    920c:	e5950040 	ldr	r0, [r5, #64]	; 0x40
    9210:	eb000279 	bl	9bfc <get32>
    9214:	e3a01001 	mov	r1, #1
    9218:	e1801411 	orr	r1, r0, r1, lsl r4
    921c:	e5950040 	ldr	r0, [r5, #64]	; 0x40
    9220:	eb000269 	bl	9bcc <put32>
    9224:	ea000007 	b	9248 <gpio_int_falling_edge+0x5c>
    9228:	e59f503c 	ldr	r5, [pc, #60]	; 926c <gpio_int_falling_edge+0x80>
    922c:	e5950044 	ldr	r0, [r5, #68]	; 0x44
    9230:	eb000271 	bl	9bfc <get32>
    9234:	e204401f 	and	r4, r4, #31
    9238:	e3a01001 	mov	r1, #1
    923c:	e1801411 	orr	r1, r0, r1, lsl r4
    9240:	e5950044 	ldr	r0, [r5, #68]	; 0x44
    9244:	eb000260 	bl	9bcc <put32>
    9248:	eb000259 	bl	9bb4 <dev_barrier>
    924c:	e59f4018 	ldr	r4, [pc, #24]	; 926c <gpio_int_falling_edge+0x80>
    9250:	e594003c 	ldr	r0, [r4, #60]	; 0x3c
    9254:	eb000268 	bl	9bfc <get32>
    9258:	e3801601 	orr	r1, r0, #1048576	; 0x100000
    925c:	e594003c 	ldr	r0, [r4, #60]	; 0x3c
    9260:	eb000259 	bl	9bcc <put32>
    9264:	eb000252 	bl	9bb4 <dev_barrier>
    9268:	e8bd8038 	pop	{r3, r4, r5, pc}
    926c:	00009e8c 	andeq	r9, r0, ip, lsl #29

00009270 <gpio_event_detected>:
    9270:	e92d4010 	push	{r4, lr}
    9274:	e1a04000 	mov	r4, r0
    9278:	e350001f 	cmp	r0, #31
    927c:	8a000019 	bhi	92e8 <gpio_event_detected+0x78>
    9280:	eb00024b 	bl	9bb4 <dev_barrier>
    9284:	e354001f 	cmp	r4, #31
    9288:	8a000008 	bhi	92b0 <gpio_event_detected+0x40>
    928c:	e59f305c 	ldr	r3, [pc, #92]	; 92f0 <gpio_event_detected+0x80>
    9290:	e5930048 	ldr	r0, [r3, #72]	; 0x48
    9294:	eb000258 	bl	9bfc <get32>
    9298:	e3a03001 	mov	r3, #1
    929c:	e0103413 	ands	r3, r0, r3, lsl r4
    92a0:	0a00000d 	beq	92dc <gpio_event_detected+0x6c>
    92a4:	eb000242 	bl	9bb4 <dev_barrier>
    92a8:	e3a00001 	mov	r0, #1
    92ac:	e8bd8010 	pop	{r4, pc}
    92b0:	e59f3038 	ldr	r3, [pc, #56]	; 92f0 <gpio_event_detected+0x80>
    92b4:	e593004c 	ldr	r0, [r3, #76]	; 0x4c
    92b8:	eb00024f 	bl	9bfc <get32>
    92bc:	e3a03001 	mov	r3, #1
    92c0:	e0004413 	and	r4, r0, r3, lsl r4
    92c4:	eb00023a 	bl	9bb4 <dev_barrier>
    92c8:	e3540000 	cmp	r4, #0
    92cc:	0a000002 	beq	92dc <gpio_event_detected+0x6c>
    92d0:	eb000237 	bl	9bb4 <dev_barrier>
    92d4:	e3a00001 	mov	r0, #1
    92d8:	e8bd8010 	pop	{r4, pc}
    92dc:	eb000234 	bl	9bb4 <dev_barrier>
    92e0:	e3a00000 	mov	r0, #0
    92e4:	e8bd8010 	pop	{r4, pc}
    92e8:	e3e00000 	mvn	r0, #0
    92ec:	e8bd8010 	pop	{r4, pc}
    92f0:	00009e8c 	andeq	r9, r0, ip, lsl #29

000092f4 <gpio_event_clear>:
    92f4:	e92d4010 	push	{r4, lr}
    92f8:	e1a04000 	mov	r4, r0
    92fc:	e350001f 	cmp	r0, #31
    9300:	88bd8010 	pophi	{r4, pc}
    9304:	eb00022a 	bl	9bb4 <dev_barrier>
    9308:	e354001f 	cmp	r4, #31
    930c:	8a000005 	bhi	9328 <gpio_event_clear+0x34>
    9310:	e59f3030 	ldr	r3, [pc, #48]	; 9348 <gpio_event_clear+0x54>
    9314:	e5930048 	ldr	r0, [r3, #72]	; 0x48
    9318:	e3a01001 	mov	r1, #1
    931c:	e1a01411 	lsl	r1, r1, r4
    9320:	eb000229 	bl	9bcc <put32>
    9324:	ea000005 	b	9340 <gpio_event_clear+0x4c>
    9328:	e204401f 	and	r4, r4, #31
    932c:	e59f3014 	ldr	r3, [pc, #20]	; 9348 <gpio_event_clear+0x54>
    9330:	e593004c 	ldr	r0, [r3, #76]	; 0x4c
    9334:	e3a01001 	mov	r1, #1
    9338:	e1a01411 	lsl	r1, r1, r4
    933c:	eb000222 	bl	9bcc <put32>
    9340:	eb00021b 	bl	9bb4 <dev_barrier>
    9344:	e8bd8010 	pop	{r4, pc}
    9348:	00009e8c 	andeq	r9, r0, ip, lsl #29

0000934c <sw_uart_putc>:
    934c:	e92d41f0 	push	{r4, r5, r6, r7, r8, lr}
    9350:	e1a07001 	mov	r7, r1
    9354:	e5d06000 	ldrb	r6, [r0]
    9358:	e5905008 	ldr	r5, [r0, #8]
    935c:	ee1f4f3c 	mrc	15, 0, r4, cr15, cr12, {1}
    9360:	e1a00006 	mov	r0, r6
    9364:	e3a01000 	mov	r1, #0
    9368:	ebffff26 	bl	9008 <gpio_write>
    936c:	ee1f3f3c 	mrc	15, 0, r3, cr15, cr12, {1}
    9370:	e0643003 	rsb	r3, r4, r3
    9374:	e1550003 	cmp	r5, r3
    9378:	8afffffb 	bhi	936c <sw_uart_putc+0x20>
    937c:	e1a08085 	lsl	r8, r5, #1
    9380:	e1a00006 	mov	r0, r6
    9384:	e2071001 	and	r1, r7, #1
    9388:	ebffff1e 	bl	9008 <gpio_write>
    938c:	ee1f3f3c 	mrc	15, 0, r3, cr15, cr12, {1}
    9390:	e0643003 	rsb	r3, r4, r3
    9394:	e1580003 	cmp	r8, r3
    9398:	8afffffb 	bhi	938c <sw_uart_putc+0x40>
    939c:	e0888005 	add	r8, r8, r5
    93a0:	e1a00006 	mov	r0, r6
    93a4:	e2071002 	and	r1, r7, #2
    93a8:	ebffff16 	bl	9008 <gpio_write>
    93ac:	ee1f3f3c 	mrc	15, 0, r3, cr15, cr12, {1}
    93b0:	e0643003 	rsb	r3, r4, r3
    93b4:	e1580003 	cmp	r8, r3
    93b8:	8afffffb 	bhi	93ac <sw_uart_putc+0x60>
    93bc:	e0888005 	add	r8, r8, r5
    93c0:	e1a00006 	mov	r0, r6
    93c4:	e2071004 	and	r1, r7, #4
    93c8:	ebffff0e 	bl	9008 <gpio_write>
    93cc:	ee1f3f3c 	mrc	15, 0, r3, cr15, cr12, {1}
    93d0:	e0643003 	rsb	r3, r4, r3
    93d4:	e1580003 	cmp	r8, r3
    93d8:	8afffffb 	bhi	93cc <sw_uart_putc+0x80>
    93dc:	e0888005 	add	r8, r8, r5
    93e0:	e1a00006 	mov	r0, r6
    93e4:	e2071008 	and	r1, r7, #8
    93e8:	ebffff06 	bl	9008 <gpio_write>
    93ec:	ee1f3f3c 	mrc	15, 0, r3, cr15, cr12, {1}
    93f0:	e0643003 	rsb	r3, r4, r3
    93f4:	e1580003 	cmp	r8, r3
    93f8:	8afffffb 	bhi	93ec <sw_uart_putc+0xa0>
    93fc:	e0888005 	add	r8, r8, r5
    9400:	e1a00006 	mov	r0, r6
    9404:	e2071010 	and	r1, r7, #16
    9408:	ebfffefe 	bl	9008 <gpio_write>
    940c:	ee1f3f3c 	mrc	15, 0, r3, cr15, cr12, {1}
    9410:	e0643003 	rsb	r3, r4, r3
    9414:	e1580003 	cmp	r8, r3
    9418:	8afffffb 	bhi	940c <sw_uart_putc+0xc0>
    941c:	e0888005 	add	r8, r8, r5
    9420:	e1a00006 	mov	r0, r6
    9424:	e2071020 	and	r1, r7, #32
    9428:	ebfffef6 	bl	9008 <gpio_write>
    942c:	ee1f3f3c 	mrc	15, 0, r3, cr15, cr12, {1}
    9430:	e0643003 	rsb	r3, r4, r3
    9434:	e1580003 	cmp	r8, r3
    9438:	8afffffb 	bhi	942c <sw_uart_putc+0xe0>
    943c:	e0888005 	add	r8, r8, r5
    9440:	e1a00006 	mov	r0, r6
    9444:	e2071040 	and	r1, r7, #64	; 0x40
    9448:	ebfffeee 	bl	9008 <gpio_write>
    944c:	ee1f3f3c 	mrc	15, 0, r3, cr15, cr12, {1}
    9450:	e0643003 	rsb	r3, r4, r3
    9454:	e1580003 	cmp	r8, r3
    9458:	8afffffb 	bhi	944c <sw_uart_putc+0x100>
    945c:	e0888005 	add	r8, r8, r5
    9460:	e1a00006 	mov	r0, r6
    9464:	e2071080 	and	r1, r7, #128	; 0x80
    9468:	ebfffee6 	bl	9008 <gpio_write>
    946c:	ee1f3f3c 	mrc	15, 0, r3, cr15, cr12, {1}
    9470:	e0643003 	rsb	r3, r4, r3
    9474:	e1580003 	cmp	r8, r3
    9478:	8afffffb 	bhi	946c <sw_uart_putc+0x120>
    947c:	e0885005 	add	r5, r8, r5
    9480:	e1a00006 	mov	r0, r6
    9484:	e3a01001 	mov	r1, #1
    9488:	ebfffede 	bl	9008 <gpio_write>
    948c:	ee1f3f3c 	mrc	15, 0, r3, cr15, cr12, {1}
    9490:	e0643003 	rsb	r3, r4, r3
    9494:	e1550003 	cmp	r5, r3
    9498:	8afffffb 	bhi	948c <sw_uart_putc+0x140>
    949c:	e8bd81f0 	pop	{r4, r5, r6, r7, r8, pc}

000094a0 <sw_uart_getc_timeout>:
    94a0:	e92d43f8 	push	{r3, r4, r5, r6, r7, r8, r9, lr}
    94a4:	e1a09000 	mov	r9, r0
    94a8:	e5d07001 	ldrb	r7, [r0, #1]
    94ac:	e1a05007 	mov	r5, r7
    94b0:	e1a06001 	mov	r6, r1
    94b4:	ebfffe21 	bl	8d40 <timer_get_usec_raw>
    94b8:	e1a04000 	mov	r4, r0
    94bc:	e1a00005 	mov	r0, r5
    94c0:	ebfffebd 	bl	8fbc <gpio_read>
    94c4:	e3500000 	cmp	r0, #0
    94c8:	0a000005 	beq	94e4 <sw_uart_getc_timeout+0x44>
    94cc:	ebfffe1b 	bl	8d40 <timer_get_usec_raw>
    94d0:	e0640000 	rsb	r0, r4, r0
    94d4:	e1560000 	cmp	r6, r0
    94d8:	2afffff7 	bcs	94bc <sw_uart_getc_timeout+0x1c>
    94dc:	e3a03000 	mov	r3, #0
    94e0:	ea000000 	b	94e8 <sw_uart_getc_timeout+0x48>
    94e4:	e3a03001 	mov	r3, #1
    94e8:	e3530000 	cmp	r3, #0
    94ec:	0a000059 	beq	9658 <sw_uart_getc_timeout+0x1b8>
    94f0:	ee1f8f3c 	mrc	15, 0, r8, cr15, cr12, {1}
    94f4:	e5994008 	ldr	r4, [r9, #8]
    94f8:	e08420a4 	add	r2, r4, r4, lsr #1
    94fc:	ee1f3f3c 	mrc	15, 0, r3, cr15, cr12, {1}
    9500:	e0683003 	rsb	r3, r8, r3
    9504:	e1520003 	cmp	r2, r3
    9508:	8afffffb 	bhi	94fc <sw_uart_getc_timeout+0x5c>
    950c:	e0888004 	add	r8, r8, r4
    9510:	e1a00007 	mov	r0, r7
    9514:	ebfffea8 	bl	8fbc <gpio_read>
    9518:	e1a09750 	asr	r9, r0, r7
    951c:	ee1f3f3c 	mrc	15, 0, r3, cr15, cr12, {1}
    9520:	e0683003 	rsb	r3, r8, r3
    9524:	e1540003 	cmp	r4, r3
    9528:	8afffffb 	bhi	951c <sw_uart_getc_timeout+0x7c>
    952c:	e0888004 	add	r8, r8, r4
    9530:	e1a00007 	mov	r0, r7
    9534:	ebfffea0 	bl	8fbc <gpio_read>
    9538:	e1a00750 	asr	r0, r0, r7
    953c:	e1899080 	orr	r9, r9, r0, lsl #1
    9540:	ee1f3f3c 	mrc	15, 0, r3, cr15, cr12, {1}
    9544:	e0683003 	rsb	r3, r8, r3
    9548:	e1540003 	cmp	r4, r3
    954c:	8afffffb 	bhi	9540 <sw_uart_getc_timeout+0xa0>
    9550:	e0888004 	add	r8, r8, r4
    9554:	e1a00007 	mov	r0, r7
    9558:	ebfffe97 	bl	8fbc <gpio_read>
    955c:	e1a00750 	asr	r0, r0, r7
    9560:	e1899100 	orr	r9, r9, r0, lsl #2
    9564:	ee1f3f3c 	mrc	15, 0, r3, cr15, cr12, {1}
    9568:	e0683003 	rsb	r3, r8, r3
    956c:	e1540003 	cmp	r4, r3
    9570:	8afffffb 	bhi	9564 <sw_uart_getc_timeout+0xc4>
    9574:	e0888004 	add	r8, r8, r4
    9578:	e1a00007 	mov	r0, r7
    957c:	ebfffe8e 	bl	8fbc <gpio_read>
    9580:	e1a00750 	asr	r0, r0, r7
    9584:	e1899180 	orr	r9, r9, r0, lsl #3
    9588:	ee1f3f3c 	mrc	15, 0, r3, cr15, cr12, {1}
    958c:	e0683003 	rsb	r3, r8, r3
    9590:	e1540003 	cmp	r4, r3
    9594:	8afffffb 	bhi	9588 <sw_uart_getc_timeout+0xe8>
    9598:	e0888004 	add	r8, r8, r4
    959c:	e1a00007 	mov	r0, r7
    95a0:	ebfffe85 	bl	8fbc <gpio_read>
    95a4:	e1a00750 	asr	r0, r0, r7
    95a8:	e1899200 	orr	r9, r9, r0, lsl #4
    95ac:	ee1f3f3c 	mrc	15, 0, r3, cr15, cr12, {1}
    95b0:	e0683003 	rsb	r3, r8, r3
    95b4:	e1540003 	cmp	r4, r3
    95b8:	8afffffb 	bhi	95ac <sw_uart_getc_timeout+0x10c>
    95bc:	e0888004 	add	r8, r8, r4
    95c0:	e1a00007 	mov	r0, r7
    95c4:	ebfffe7c 	bl	8fbc <gpio_read>
    95c8:	e1a00750 	asr	r0, r0, r7
    95cc:	e1899280 	orr	r9, r9, r0, lsl #5
    95d0:	ee1f3f3c 	mrc	15, 0, r3, cr15, cr12, {1}
    95d4:	e0683003 	rsb	r3, r8, r3
    95d8:	e1540003 	cmp	r4, r3
    95dc:	8afffffb 	bhi	95d0 <sw_uart_getc_timeout+0x130>
    95e0:	e0888004 	add	r8, r8, r4
    95e4:	e1a00007 	mov	r0, r7
    95e8:	ebfffe73 	bl	8fbc <gpio_read>
    95ec:	e1a00750 	asr	r0, r0, r7
    95f0:	e1899300 	orr	r9, r9, r0, lsl #6
    95f4:	ee1f3f3c 	mrc	15, 0, r3, cr15, cr12, {1}
    95f8:	e0683003 	rsb	r3, r8, r3
    95fc:	e1540003 	cmp	r4, r3
    9600:	8afffffb 	bhi	95f4 <sw_uart_getc_timeout+0x154>
    9604:	e1a00007 	mov	r0, r7
    9608:	ebfffe6b 	bl	8fbc <gpio_read>
    960c:	e1a00750 	asr	r0, r0, r7
    9610:	e1899380 	orr	r9, r9, r0, lsl #7
    9614:	ebfffdc9 	bl	8d40 <timer_get_usec_raw>
    9618:	e1a04000 	mov	r4, r0
    961c:	e1a00005 	mov	r0, r5
    9620:	ebfffe65 	bl	8fbc <gpio_read>
    9624:	e3500000 	cmp	r0, #0
    9628:	0a000005 	beq	9644 <sw_uart_getc_timeout+0x1a4>
    962c:	ebfffdc3 	bl	8d40 <timer_get_usec_raw>
    9630:	e0640000 	rsb	r0, r4, r0
    9634:	e1560000 	cmp	r6, r0
    9638:	2afffff7 	bcs	961c <sw_uart_getc_timeout+0x17c>
    963c:	e3a03000 	mov	r3, #0
    9640:	ea000000 	b	9648 <sw_uart_getc_timeout+0x1a8>
    9644:	e3a03001 	mov	r3, #1
    9648:	e3530000 	cmp	r3, #0
    964c:	0a000003 	beq	9660 <sw_uart_getc_timeout+0x1c0>
    9650:	e1a00009 	mov	r0, r9
    9654:	e8bd83f8 	pop	{r3, r4, r5, r6, r7, r8, r9, pc}
    9658:	e3e00000 	mvn	r0, #0
    965c:	e8bd83f8 	pop	{r3, r4, r5, r6, r7, r8, r9, pc}
    9660:	e3e00000 	mvn	r0, #0
    9664:	e8bd83f8 	pop	{r3, r4, r5, r6, r7, r8, r9, pc}

00009668 <sw_uart_gets_until>:
    9668:	e92d47f0 	push	{r4, r5, r6, r7, r8, r9, sl, lr}
    966c:	e24dd008 	sub	sp, sp, #8
    9670:	e1a08000 	mov	r8, r0
    9674:	e1a06001 	mov	r6, r1
    9678:	e1a09003 	mov	r9, r3
    967c:	e59da028 	ldr	sl, [sp, #40]	; 0x28
    9680:	e3520000 	cmp	r2, #0
    9684:	1a000008 	bne	96ac <sw_uart_gets_until+0x44>
    9688:	ebfffbea 	bl	8638 <rpi_reset_putc>
    968c:	e59f3068 	ldr	r3, [pc, #104]	; 96fc <sw_uart_gets_until+0x94>
    9690:	e58d3000 	str	r3, [sp]
    9694:	e59f0064 	ldr	r0, [pc, #100]	; 9700 <sw_uart_gets_until+0x98>
    9698:	e59f1064 	ldr	r1, [pc, #100]	; 9704 <sw_uart_gets_until+0x9c>
    969c:	e59f2064 	ldr	r2, [pc, #100]	; 9708 <sw_uart_gets_until+0xa0>
    96a0:	e3a0306d 	mov	r3, #109	; 0x6d
    96a4:	ebfffbc8 	bl	85cc <printk>
    96a8:	ebfffd4a 	bl	8bd8 <clean_reboot>
    96ac:	e3a04000 	mov	r4, #0
    96b0:	e5c14000 	strb	r4, [r1]
    96b4:	e2427001 	sub	r7, r2, #1
    96b8:	ea000007 	b	96dc <sw_uart_gets_until+0x74>
    96bc:	e1a00008 	mov	r0, r8
    96c0:	e1a0100a 	mov	r1, sl
    96c4:	ebffff75 	bl	94a0 <sw_uart_getc_timeout>
    96c8:	e6ef0070 	uxtb	r0, r0
    96cc:	e1500009 	cmp	r0, r9
    96d0:	0a000004 	beq	96e8 <sw_uart_gets_until+0x80>
    96d4:	e7c60005 	strb	r0, [r6, r5]
    96d8:	e2844001 	add	r4, r4, #1
    96dc:	e1a05004 	mov	r5, r4
    96e0:	e1540007 	cmp	r4, r7
    96e4:	3afffff4 	bcc	96bc <sw_uart_gets_until+0x54>
    96e8:	e3a03000 	mov	r3, #0
    96ec:	e7c63005 	strb	r3, [r6, r5]
    96f0:	e1a00004 	mov	r0, r4
    96f4:	e28dd008 	add	sp, sp, #8
    96f8:	e8bd87f0 	pop	{r4, r5, r6, r7, r8, r9, sl, pc}
    96fc:	0000a124 	andeq	sl, r0, r4, lsr #2
    9700:	00009f98 	muleq	r0, r8, pc	; <UNPREDICTABLE>
    9704:	0000a110 	andeq	sl, r0, r0, lsl r1
    9708:	0000a098 	muleq	r0, r8, r0

0000970c <sw_uart_gets_timeout>:
    970c:	e92d41f0 	push	{r4, r5, r6, r7, r8, lr}
    9710:	e24dd008 	sub	sp, sp, #8
    9714:	e1a07000 	mov	r7, r0
    9718:	e1a05001 	mov	r5, r1
    971c:	e1a08003 	mov	r8, r3
    9720:	e3520000 	cmp	r2, #0
    9724:	1a000008 	bne	974c <sw_uart_gets_timeout+0x40>
    9728:	ebfffbc2 	bl	8638 <rpi_reset_putc>
    972c:	e59f3058 	ldr	r3, [pc, #88]	; 978c <sw_uart_gets_timeout+0x80>
    9730:	e58d3000 	str	r3, [sp]
    9734:	e59f0054 	ldr	r0, [pc, #84]	; 9790 <sw_uart_gets_timeout+0x84>
    9738:	e59f1054 	ldr	r1, [pc, #84]	; 9794 <sw_uart_gets_timeout+0x88>
    973c:	e59f2054 	ldr	r2, [pc, #84]	; 9798 <sw_uart_gets_timeout+0x8c>
    9740:	e3a03083 	mov	r3, #131	; 0x83
    9744:	ebfffba0 	bl	85cc <printk>
    9748:	ebfffd22 	bl	8bd8 <clean_reboot>
    974c:	e3a04000 	mov	r4, #0
    9750:	e5c14000 	strb	r4, [r1]
    9754:	e2426001 	sub	r6, r2, #1
    9758:	ea000004 	b	9770 <sw_uart_gets_timeout+0x64>
    975c:	e1a00007 	mov	r0, r7
    9760:	e1a01008 	mov	r1, r8
    9764:	ebffff4d 	bl	94a0 <sw_uart_getc_timeout>
    9768:	e7c50004 	strb	r0, [r5, r4]
    976c:	e2844001 	add	r4, r4, #1
    9770:	e1540006 	cmp	r4, r6
    9774:	3afffff8 	bcc	975c <sw_uart_gets_timeout+0x50>
    9778:	e3a03000 	mov	r3, #0
    977c:	e7c53004 	strb	r3, [r5, r4]
    9780:	e1a00004 	mov	r0, r4
    9784:	e28dd008 	add	sp, sp, #8
    9788:	e8bd81f0 	pop	{r4, r5, r6, r7, r8, pc}
    978c:	0000a124 	andeq	sl, r0, r4, lsr #2
    9790:	00009f98 	muleq	r0, r8, pc	; <UNPREDICTABLE>
    9794:	0000a110 	andeq	sl, r0, r0, lsl r1
    9798:	0000a0ac 	andeq	sl, r0, ip, lsr #1

0000979c <sw_uart_init_helper>:
    979c:	e92d41f0 	push	{r4, r5, r6, r7, r8, lr}
    97a0:	e24dd008 	sub	sp, sp, #8
    97a4:	e1a04000 	mov	r4, r0
    97a8:	e1a06001 	mov	r6, r1
    97ac:	e1a08002 	mov	r8, r2
    97b0:	e1a05003 	mov	r5, r3
    97b4:	e59d7020 	ldr	r7, [sp, #32]
    97b8:	e1a00001 	mov	r0, r1
    97bc:	ebfffd7a 	bl	8dac <gpio_set_output>
    97c0:	e1a00008 	mov	r0, r8
    97c4:	ebfffdc9 	bl	8ef0 <gpio_set_input>
    97c8:	e3a03001 	mov	r3, #1
    97cc:	ee0f3f1c 	mcr	15, 0, r3, cr15, cr12, {0}
    97d0:	e1a00006 	mov	r0, r6
    97d4:	e3a01001 	mov	r1, #1
    97d8:	ebfffe0a 	bl	9008 <gpio_write>
    97dc:	e0020795 	mul	r2, r5, r7
    97e0:	e59f3074 	ldr	r3, [pc, #116]	; 985c <sw_uart_init_helper+0xc0>
    97e4:	e0653003 	rsb	r3, r5, r3
    97e8:	e1530002 	cmp	r3, r2
    97ec:	8a000005 	bhi	9808 <sw_uart_init_helper+0x6c>
    97f0:	e59f3064 	ldr	r3, [pc, #100]	; 985c <sw_uart_init_helper+0xc0>
    97f4:	e0853003 	add	r3, r5, r3
    97f8:	e1530002 	cmp	r3, r2
    97fc:	2a000003 	bcs	9810 <sw_uart_init_helper+0x74>
    9800:	e3a03000 	mov	r3, #0
    9804:	ea000002 	b	9814 <sw_uart_init_helper+0x78>
    9808:	e3a03000 	mov	r3, #0
    980c:	ea000000 	b	9814 <sw_uart_init_helper+0x78>
    9810:	e3a03001 	mov	r3, #1
    9814:	e3530000 	cmp	r3, #0
    9818:	1a000008 	bne	9840 <sw_uart_init_helper+0xa4>
    981c:	ebfffb85 	bl	8638 <rpi_reset_putc>
    9820:	e59f3038 	ldr	r3, [pc, #56]	; 9860 <sw_uart_init_helper+0xc4>
    9824:	e58d3000 	str	r3, [sp]
    9828:	e59f0034 	ldr	r0, [pc, #52]	; 9864 <sw_uart_init_helper+0xc8>
    982c:	e59f1034 	ldr	r1, [pc, #52]	; 9868 <sw_uart_init_helper+0xcc>
    9830:	e59f2034 	ldr	r2, [pc, #52]	; 986c <sw_uart_init_helper+0xd0>
    9834:	e3a0309d 	mov	r3, #157	; 0x9d
    9838:	ebfffb63 	bl	85cc <printk>
    983c:	ebfffce5 	bl	8bd8 <clean_reboot>
    9840:	e5c46000 	strb	r6, [r4]
    9844:	e5c48001 	strb	r8, [r4, #1]
    9848:	e5845004 	str	r5, [r4, #4]
    984c:	e5847008 	str	r7, [r4, #8]
    9850:	e1a00004 	mov	r0, r4
    9854:	e28dd008 	add	sp, sp, #8
    9858:	e8bd81f0 	pop	{r4, r5, r6, r7, r8, pc}
    985c:	29b92700 	ldmibcs	r9!, {r8, r9, sl, sp}
    9860:	0000a130 	andeq	sl, r0, r0, lsr r1
    9864:	00009f98 	muleq	r0, r8, pc	; <UNPREDICTABLE>
    9868:	0000a110 	andeq	sl, r0, r0, lsl r1
    986c:	0000a0c4 	andeq	sl, r0, r4, asr #1

00009870 <sw_uart_getc>:
    9870:	e92d4008 	push	{r3, lr}
    9874:	e3e01000 	mvn	r1, #0
    9878:	ebffff08 	bl	94a0 <sw_uart_getc_timeout>
    987c:	e3500000 	cmp	r0, #0
    9880:	a8bd8008 	popge	{r3, pc}
    9884:	ebfffb6b 	bl	8638 <rpi_reset_putc>
    9888:	e59f0010 	ldr	r0, [pc, #16]	; 98a0 <sw_uart_getc+0x30>
    988c:	e59f1010 	ldr	r1, [pc, #16]	; 98a4 <sw_uart_getc+0x34>
    9890:	e59f2010 	ldr	r2, [pc, #16]	; 98a8 <sw_uart_getc+0x38>
    9894:	e3a030ac 	mov	r3, #172	; 0xac
    9898:	ebfffb4b 	bl	85cc <printk>
    989c:	ebfffccd 	bl	8bd8 <clean_reboot>
    98a0:	0000a164 	andeq	sl, r0, r4, ror #2
    98a4:	0000a110 	andeq	sl, r0, r0, lsl r1
    98a8:	0000a0d8 	ldrdeq	sl, [r0], -r8

000098ac <sw_uart_putk>:
    98ac:	e92d4038 	push	{r3, r4, r5, lr}
    98b0:	e1a05000 	mov	r5, r0
    98b4:	e1a04001 	mov	r4, r1
    98b8:	ea000002 	b	98c8 <sw_uart_putk+0x1c>
    98bc:	e1a00005 	mov	r0, r5
    98c0:	ebfffea1 	bl	934c <sw_uart_putc>
    98c4:	e2844001 	add	r4, r4, #1
    98c8:	e5d41000 	ldrb	r1, [r4]
    98cc:	e3510000 	cmp	r1, #0
    98d0:	1afffff9 	bne	98bc <sw_uart_putk+0x10>
    98d4:	e8bd8038 	pop	{r3, r4, r5, pc}

000098d8 <sw_uart_printk>:
    98d8:	e92d000e 	push	{r1, r2, r3}
    98dc:	e92d4030 	push	{r4, r5, lr}
    98e0:	e24ddf76 	sub	sp, sp, #472	; 0x1d8
    98e4:	e1a05000 	mov	r5, r0
    98e8:	e28d3f7a 	add	r3, sp, #488	; 0x1e8
    98ec:	e58d3008 	str	r3, [sp, #8]
    98f0:	e28d000c 	add	r0, sp, #12
    98f4:	e3a01f73 	mov	r1, #460	; 0x1cc
    98f8:	e59d21e4 	ldr	r2, [sp, #484]	; 0x1e4
    98fc:	ebfffc08 	bl	8924 <va_printk>
    9900:	e1a04000 	mov	r4, r0
    9904:	e59f3048 	ldr	r3, [pc, #72]	; 9954 <sw_uart_printk+0x7c>
    9908:	e1500003 	cmp	r0, r3
    990c:	9a000008 	bls	9934 <sw_uart_printk+0x5c>
    9910:	ebfffb48 	bl	8638 <rpi_reset_putc>
    9914:	e59f303c 	ldr	r3, [pc, #60]	; 9958 <sw_uart_printk+0x80>
    9918:	e58d3000 	str	r3, [sp]
    991c:	e59f0038 	ldr	r0, [pc, #56]	; 995c <sw_uart_printk+0x84>
    9920:	e59f1038 	ldr	r1, [pc, #56]	; 9960 <sw_uart_printk+0x88>
    9924:	e59f2038 	ldr	r2, [pc, #56]	; 9964 <sw_uart_printk+0x8c>
    9928:	e3a030c0 	mov	r3, #192	; 0xc0
    992c:	ebfffb26 	bl	85cc <printk>
    9930:	ebfffca8 	bl	8bd8 <clean_reboot>
    9934:	e1a00005 	mov	r0, r5
    9938:	e28d100c 	add	r1, sp, #12
    993c:	ebffffda 	bl	98ac <sw_uart_putk>
    9940:	e1a00004 	mov	r0, r4
    9944:	e28ddf76 	add	sp, sp, #472	; 0x1d8
    9948:	e8bd4030 	pop	{r4, r5, lr}
    994c:	e28dd00c 	add	sp, sp, #12
    9950:	e12fff1e 	bx	lr
    9954:	000001ca 	andeq	r0, r0, sl, asr #3
    9958:	0000a19c 	muleq	r0, ip, r1
    995c:	00009f98 	muleq	r0, r8, pc	; <UNPREDICTABLE>
    9960:	0000a110 	andeq	sl, r0, r0, lsl r1
    9964:	0000a0e8 	andeq	sl, r0, r8, ror #1

00009968 <sw_uart_gets_until_blk>:
    9968:	e52de004 	push	{lr}		; (str lr, [sp, #-4]!)
    996c:	e24dd00c 	sub	sp, sp, #12
    9970:	e3e0c000 	mvn	ip, #0
    9974:	e58dc000 	str	ip, [sp]
    9978:	ebffff3a 	bl	9668 <sw_uart_gets_until>
    997c:	e3500000 	cmp	r0, #0
    9980:	aa000006 	bge	99a0 <sw_uart_gets_until_blk+0x38>
    9984:	ebfffb2b 	bl	8638 <rpi_reset_putc>
    9988:	e59f0018 	ldr	r0, [pc, #24]	; 99a8 <sw_uart_gets_until_blk+0x40>
    998c:	e59f1018 	ldr	r1, [pc, #24]	; 99ac <sw_uart_gets_until_blk+0x44>
    9990:	e59f2018 	ldr	r2, [pc, #24]	; 99b0 <sw_uart_gets_until_blk+0x48>
    9994:	e3a030c8 	mov	r3, #200	; 0xc8
    9998:	ebfffb0b 	bl	85cc <printk>
    999c:	ebfffc8d 	bl	8bd8 <clean_reboot>
    99a0:	e28dd00c 	add	sp, sp, #12
    99a4:	e49df004 	pop	{pc}		; (ldr pc, [sp], #4)
    99a8:	0000a164 	andeq	sl, r0, r4, ror #2
    99ac:	0000a110 	andeq	sl, r0, r0, lsl r1
    99b0:	0000a0f8 	strdeq	sl, [r0], -r8

000099b4 <uart_init>:
    99b4:	e92d4038 	push	{r3, r4, r5, lr}
    99b8:	eb00007d 	bl	9bb4 <dev_barrier>
    99bc:	e3a0000e 	mov	r0, #14
    99c0:	e3a01002 	mov	r1, #2
    99c4:	ebfffd98 	bl	902c <gpio_set_function>
    99c8:	e3a0000f 	mov	r0, #15
    99cc:	e3a01002 	mov	r1, #2
    99d0:	ebfffd95 	bl	902c <gpio_set_function>
    99d4:	eb000076 	bl	9bb4 <dev_barrier>
    99d8:	e59f4068 	ldr	r4, [pc, #104]	; 9a48 <uart_init+0x94>
    99dc:	e5945000 	ldr	r5, [r4]
    99e0:	e1a00005 	mov	r0, r5
    99e4:	eb000084 	bl	9bfc <get32>
    99e8:	e3801001 	orr	r1, r0, #1
    99ec:	e1a00005 	mov	r0, r5
    99f0:	eb000075 	bl	9bcc <put32>
    99f4:	eb00006e 	bl	9bb4 <dev_barrier>
    99f8:	e5940004 	ldr	r0, [r4, #4]
    99fc:	e3a01000 	mov	r1, #0
    9a00:	eb000071 	bl	9bcc <put32>
    9a04:	e5940008 	ldr	r0, [r4, #8]
    9a08:	e3a01000 	mov	r1, #0
    9a0c:	eb00006e 	bl	9bcc <put32>
    9a10:	e594000c 	ldr	r0, [r4, #12]
    9a14:	e3a01006 	mov	r1, #6
    9a18:	eb00006b 	bl	9bcc <put32>
    9a1c:	e5940010 	ldr	r0, [r4, #16]
    9a20:	e3a01003 	mov	r1, #3
    9a24:	eb000068 	bl	9bcc <put32>
    9a28:	e5940014 	ldr	r0, [r4, #20]
    9a2c:	e59f1018 	ldr	r1, [pc, #24]	; 9a4c <uart_init+0x98>
    9a30:	eb000065 	bl	9bcc <put32>
    9a34:	e5940004 	ldr	r0, [r4, #4]
    9a38:	e3a01003 	mov	r1, #3
    9a3c:	eb000062 	bl	9bcc <put32>
    9a40:	eb00005b 	bl	9bb4 <dev_barrier>
    9a44:	e8bd8038 	pop	{r3, r4, r5, pc}
    9a48:	00009eec 	andeq	r9, r0, ip, ror #29
    9a4c:	0000010e 	andeq	r0, r0, lr, lsl #2

00009a50 <uart_can_getc>:
    9a50:	e92d4008 	push	{r3, lr}
    9a54:	e59f300c 	ldr	r3, [pc, #12]	; 9a68 <uart_can_getc+0x18>
    9a58:	e5930018 	ldr	r0, [r3, #24]
    9a5c:	eb000066 	bl	9bfc <get32>
    9a60:	e2000001 	and	r0, r0, #1
    9a64:	e8bd8008 	pop	{r3, pc}
    9a68:	00009eec 	andeq	r9, r0, ip, ror #29

00009a6c <uart_getc>:
    9a6c:	e92d4008 	push	{r3, lr}
    9a70:	ebfffff6 	bl	9a50 <uart_can_getc>
    9a74:	e3500000 	cmp	r0, #0
    9a78:	0afffffc 	beq	9a70 <uart_getc+0x4>
    9a7c:	e59f300c 	ldr	r3, [pc, #12]	; 9a90 <uart_getc+0x24>
    9a80:	e593001c 	ldr	r0, [r3, #28]
    9a84:	eb00005c 	bl	9bfc <get32>
    9a88:	e6ef0070 	uxtb	r0, r0
    9a8c:	e8bd8008 	pop	{r3, pc}
    9a90:	00009eec 	andeq	r9, r0, ip, ror #29

00009a94 <uart_can_putc>:
    9a94:	e92d4008 	push	{r3, lr}
    9a98:	e59f300c 	ldr	r3, [pc, #12]	; 9aac <uart_can_putc+0x18>
    9a9c:	e5930018 	ldr	r0, [r3, #24]
    9aa0:	eb000055 	bl	9bfc <get32>
    9aa4:	e2000020 	and	r0, r0, #32
    9aa8:	e8bd8008 	pop	{r3, pc}
    9aac:	00009eec 	andeq	r9, r0, ip, ror #29

00009ab0 <uart_putc>:
    9ab0:	e92d4010 	push	{r4, lr}
    9ab4:	e1a04000 	mov	r4, r0
    9ab8:	ebfffff5 	bl	9a94 <uart_can_putc>
    9abc:	e3500000 	cmp	r0, #0
    9ac0:	0afffffc 	beq	9ab8 <uart_putc+0x8>
    9ac4:	e59f300c 	ldr	r3, [pc, #12]	; 9ad8 <uart_putc+0x28>
    9ac8:	e593001c 	ldr	r0, [r3, #28]
    9acc:	e1a01004 	mov	r1, r4
    9ad0:	eb00003d 	bl	9bcc <put32>
    9ad4:	e8bd8010 	pop	{r4, pc}
    9ad8:	00009eec 	andeq	r9, r0, ip, ror #29

00009adc <uart_has_data>:
    9adc:	e92d4008 	push	{r3, lr}
    9ae0:	ebffffda 	bl	9a50 <uart_can_getc>
    9ae4:	e8bd8008 	pop	{r3, pc}

00009ae8 <uart_getc_async>:
    9ae8:	e92d4008 	push	{r3, lr}
    9aec:	ebfffffa 	bl	9adc <uart_has_data>
    9af0:	e3500000 	cmp	r0, #0
    9af4:	0a000001 	beq	9b00 <uart_getc_async+0x18>
    9af8:	ebffffdb 	bl	9a6c <uart_getc>
    9afc:	e8bd8008 	pop	{r3, pc}
    9b00:	e3e00000 	mvn	r0, #0
    9b04:	e8bd8008 	pop	{r3, pc}

00009b08 <int_init>:
    9b08:	e92d4008 	push	{r3, lr}
    9b0c:	e59f004c 	ldr	r0, [pc, #76]	; 9b60 <int_init+0x58>
    9b10:	e3e01000 	mvn	r1, #0
    9b14:	eb00002e 	bl	9bd4 <PUT32>
    9b18:	e59f0044 	ldr	r0, [pc, #68]	; 9b64 <int_init+0x5c>
    9b1c:	e3e01000 	mvn	r1, #0
    9b20:	eb00002b 	bl	9bd4 <PUT32>
    9b24:	eb000022 	bl	9bb4 <dev_barrier>
    9b28:	e59f3038 	ldr	r3, [pc, #56]	; 9b68 <int_init+0x60>
    9b2c:	e59f0038 	ldr	r0, [pc, #56]	; 9b6c <int_init+0x64>
    9b30:	e0630000 	rsb	r0, r3, r0
    9b34:	e1a00140 	asr	r0, r0, #2
    9b38:	e3a03000 	mov	r3, #0
    9b3c:	e59fc024 	ldr	ip, [pc, #36]	; 9b68 <int_init+0x60>
    9b40:	ea000003 	b	9b54 <int_init+0x4c>
    9b44:	e1a02103 	lsl	r2, r3, #2
    9b48:	e79c1103 	ldr	r1, [ip, r3, lsl #2]
    9b4c:	e5821000 	str	r1, [r2]
    9b50:	e2833001 	add	r3, r3, #1
    9b54:	e1530000 	cmp	r3, r0
    9b58:	3afffff9 	bcc	9b44 <int_init+0x3c>
    9b5c:	e8bd8008 	pop	{r3, pc}
    9b60:	2000b21c 	andcs	fp, r0, ip, lsl r2
    9b64:	2000b220 	andcs	fp, r0, r0, lsr #4
    9b68:	00009c38 	andeq	r9, r0, r8, lsr ip
    9b6c:	00009c88 	andeq	r9, r0, r8, lsl #25

00009b70 <fast_interrupt_vector>:
    9b70:	e52de004 	push	{lr}		; (str lr, [sp, #-4]!)
    9b74:	e24dd00c 	sub	sp, sp, #12
    9b78:	e1a04000 	mov	r4, r0
    9b7c:	ebfffaad 	bl	8638 <rpi_reset_putc>
    9b80:	e59f301c 	ldr	r3, [pc, #28]	; 9ba4 <fast_interrupt_vector+0x34>
    9b84:	e58d3000 	str	r3, [sp]
    9b88:	e58d4004 	str	r4, [sp, #4]
    9b8c:	e59f0014 	ldr	r0, [pc, #20]	; 9ba8 <fast_interrupt_vector+0x38>
    9b90:	e59f1014 	ldr	r1, [pc, #20]	; 9bac <fast_interrupt_vector+0x3c>
    9b94:	e59f2014 	ldr	r2, [pc, #20]	; 9bb0 <fast_interrupt_vector+0x40>
    9b98:	e3a0302f 	mov	r3, #47	; 0x2f
    9b9c:	ebfffa8a 	bl	85cc <printk>
    9ba0:	ebfffc0c 	bl	8bd8 <clean_reboot>
    9ba4:	0000a224 	andeq	sl, r0, r4, lsr #4
    9ba8:	0000a1c8 	andeq	sl, r0, r8, asr #3
    9bac:	0000a204 	andeq	sl, r0, r4, lsl #4
    9bb0:	0000a1b0 			; <UNDEFINED> instruction: 0x0000a1b0

00009bb4 <dev_barrier>:
    9bb4:	ea000002 	b	9bc4 <dsb>

00009bb8 <dmb>:
    9bb8:	e3a00000 	mov	r0, #0
    9bbc:	ee070fba 	mcr	15, 0, r0, cr7, cr10, {5}
    9bc0:	e12fff1e 	bx	lr

00009bc4 <dsb>:
    9bc4:	ee070f9a 	mcr	15, 0, r0, cr7, cr10, {4}
    9bc8:	e12fff1e 	bx	lr

00009bcc <put32>:
    9bcc:	e5801000 	str	r1, [r0]
    9bd0:	e12fff1e 	bx	lr

00009bd4 <PUT32>:
    9bd4:	e5801000 	str	r1, [r0]
    9bd8:	e12fff1e 	bx	lr

00009bdc <put16>:
    9bdc:	e1c010b0 	strh	r1, [r0]
    9be0:	e12fff1e 	bx	lr

00009be4 <PUT16>:
    9be4:	e1c010b0 	strh	r1, [r0]
    9be8:	e12fff1e 	bx	lr

00009bec <put8>:
    9bec:	e5c01000 	strb	r1, [r0]
    9bf0:	e12fff1e 	bx	lr

00009bf4 <PUT8>:
    9bf4:	e5c01000 	strb	r1, [r0]
    9bf8:	e12fff1e 	bx	lr

00009bfc <get32>:
    9bfc:	e5900000 	ldr	r0, [r0]
    9c00:	e12fff1e 	bx	lr

00009c04 <GET32>:
    9c04:	e5900000 	ldr	r0, [r0]
    9c08:	e12fff1e 	bx	lr

00009c0c <GETPC>:
    9c0c:	e1a0000e 	mov	r0, lr
    9c10:	e12fff1e 	bx	lr

00009c14 <dummy>:
    9c14:	e12fff1e 	bx	lr

00009c18 <system_enable_interrupts>:
    9c18:	e10f0000 	mrs	r0, CPSR
    9c1c:	e3c00080 	bic	r0, r0, #128	; 0x80
    9c20:	e121f000 	msr	CPSR_c, r0
    9c24:	e12fff1e 	bx	lr

00009c28 <system_disable_interrupts>:
    9c28:	e10f0000 	mrs	r0, CPSR
    9c2c:	e3800080 	orr	r0, r0, #128	; 0x80
    9c30:	e121f000 	msr	CPSR_c, r0
    9c34:	e12fff1e 	bx	lr

00009c38 <_interrupt_table>:
    9c38:	e59ff030 	ldr	pc, [pc, #48]	; 9c70 <_reset_asm>
    9c3c:	e59ff030 	ldr	pc, [pc, #48]	; 9c74 <_undefined_instruction_asm>
    9c40:	e59ff030 	ldr	pc, [pc, #48]	; 9c78 <_software_interrupt_asm>
    9c44:	e59ff030 	ldr	pc, [pc, #48]	; 9c7c <_prefetch_abort_asm>
    9c48:	e59ff030 	ldr	pc, [pc, #48]	; 9c80 <_data_abort_asm>
    9c4c:	e59ff01c 	ldr	pc, [pc, #28]	; 9c70 <_reset_asm>
    9c50:	e59ff02c 	ldr	pc, [pc, #44]	; 9c84 <_interrupt_asm>

00009c54 <fast_interrupt_asm>:
    9c54:	e24ee004 	sub	lr, lr, #4
    9c58:	e52de004 	push	{lr}		; (str lr, [sp, #-4]!)
    9c5c:	e92d1fff 	push	{r0, r1, r2, r3, r4, r5, r6, r7, r8, r9, sl, fp, ip}
    9c60:	e1a0000e 	mov	r0, lr
    9c64:	ebffffc1 	bl	9b70 <fast_interrupt_vector>
    9c68:	e8bd1fff 	pop	{r0, r1, r2, r3, r4, r5, r6, r7, r8, r9, sl, fp, ip}
    9c6c:	e8fd8000 	ldm	sp!, {pc}^

00009c70 <_reset_asm>:
    9c70:	00009cd0 	ldrdeq	r9, [r0], -r0

00009c74 <_undefined_instruction_asm>:
    9c74:	00009cd8 	ldrdeq	r9, [r0], -r8

00009c78 <_software_interrupt_asm>:
    9c78:	00009ca4 	andeq	r9, r0, r4, lsr #25

00009c7c <_prefetch_abort_asm>:
    9c7c:	00009ce0 	andeq	r9, r0, r0, ror #25

00009c80 <_data_abort_asm>:
    9c80:	00009ce8 	andeq	r9, r0, r8, ror #25

00009c84 <_interrupt_asm>:
    9c84:	00009c88 	andeq	r9, r0, r8, lsl #25

00009c88 <_interrupt_table_end>:
    9c88:	e3a0d409 	mov	sp, #150994944	; 0x9000000
    9c8c:	e24ee004 	sub	lr, lr, #4
    9c90:	e92d5fff 	push	{r0, r1, r2, r3, r4, r5, r6, r7, r8, r9, sl, fp, ip, lr}
    9c94:	e1a0000e 	mov	r0, lr
    9c98:	ebfffa12 	bl	84e8 <interrupt_vector>
    9c9c:	e8bd5fff 	pop	{r0, r1, r2, r3, r4, r5, r6, r7, r8, r9, sl, fp, ip, lr}
    9ca0:	e1b0f00e 	movs	pc, lr

00009ca4 <software_interrupt_asm>:
    9ca4:	e52de004 	push	{lr}		; (str lr, [sp, #-4]!)
    9ca8:	e92d1ffe 	push	{r1, r2, r3, r4, r5, r6, r7, r8, r9, sl, fp, ip}
    9cac:	e24ee004 	sub	lr, lr, #4
    9cb0:	e1a0200e 	mov	r2, lr
    9cb4:	e1a01000 	mov	r1, r0
    9cb8:	e1a0000e 	mov	r0, lr
    9cbc:	eb000003 	bl	9cd0 <reset_asm>
    9cc0:	e8bd1ffe 	pop	{r1, r2, r3, r4, r5, r6, r7, r8, r9, sl, fp, ip}
    9cc4:	e49de004 	pop	{lr}		; (ldr lr, [sp], #4)
    9cc8:	e8fd8000 	ldm	sp!, {pc}^
    9ccc:	e1b0f00e 	movs	pc, lr

00009cd0 <reset_asm>:
    9cd0:	e24ee004 	sub	lr, lr, #4
    9cd4:	eb000040 	bl	9ddc <reset_vector>

00009cd8 <undefined_instruction_asm>:
    9cd8:	e24ee004 	sub	lr, lr, #4
    9cdc:	eb00004f 	bl	9e20 <undefined_instruction_vector>

00009ce0 <prefetch_abort_asm>:
    9ce0:	e24ee004 	sub	lr, lr, #4
    9ce4:	eb00002b 	bl	9d98 <prefetch_abort_vector>

00009ce8 <data_abort_asm>:
    9ce8:	e3a0d409 	mov	sp, #150994944	; 0x9000000
    9cec:	e24ee008 	sub	lr, lr, #8
    9cf0:	e92d5fff 	push	{r0, r1, r2, r3, r4, r5, r6, r7, r8, r9, sl, fp, ip, lr}
    9cf4:	e1a0000e 	mov	r0, lr
    9cf8:	eb000015 	bl	9d54 <data_abort_vector>
    9cfc:	e8bd5fff 	pop	{r0, r1, r2, r3, r4, r5, r6, r7, r8, r9, sl, fp, ip, lr}
    9d00:	e1b0f00e 	movs	pc, lr

00009d04 <cb_new>:
    9d04:	e92d4008 	push	{r3, lr}
    9d08:	e3a00409 	mov	r0, #150994944	; 0x9000000
    9d0c:	e3a01000 	mov	r1, #0
    9d10:	e3a02004 	mov	r2, #4
    9d14:	eb000052 	bl	9e64 <memset>
    9d18:	e3a00409 	mov	r0, #150994944	; 0x9000000
    9d1c:	e59f3004 	ldr	r3, [pc, #4]	; 9d28 <cb_new+0x24>
    9d20:	e5803000 	str	r3, [r0]
    9d24:	e8bd8008 	pop	{r3, pc}
    9d28:	12345678 	eorsne	r5, r4, #120, 12	; 0x7800000

00009d2c <cb_get_block>:
    9d2c:	e3a03409 	mov	r3, #150994944	; 0x9000000
    9d30:	e5932000 	ldr	r2, [r3]
    9d34:	e59f3014 	ldr	r3, [pc, #20]	; 9d50 <cb_get_block+0x24>
    9d38:	e1520003 	cmp	r2, r3
    9d3c:	0a000001 	beq	9d48 <cb_get_block+0x1c>
    9d40:	e3a00000 	mov	r0, #0
    9d44:	e12fff1e 	bx	lr
    9d48:	e3a00409 	mov	r0, #150994944	; 0x9000000
    9d4c:	e12fff1e 	bx	lr
    9d50:	12345678 	eorsne	r5, r4, #120, 12	; 0x7800000

00009d54 <data_abort_vector>:
    9d54:	e52de004 	push	{lr}		; (str lr, [sp, #-4]!)
    9d58:	e24dd00c 	sub	sp, sp, #12
    9d5c:	e1a04000 	mov	r4, r0
    9d60:	ebfffa34 	bl	8638 <rpi_reset_putc>
    9d64:	e59f301c 	ldr	r3, [pc, #28]	; 9d88 <data_abort_vector+0x34>
    9d68:	e58d3000 	str	r3, [sp]
    9d6c:	e58d4004 	str	r4, [sp, #4]
    9d70:	e59f0014 	ldr	r0, [pc, #20]	; 9d8c <data_abort_vector+0x38>
    9d74:	e59f1014 	ldr	r1, [pc, #20]	; 9d90 <data_abort_vector+0x3c>
    9d78:	e59f2014 	ldr	r2, [pc, #20]	; 9d94 <data_abort_vector+0x40>
    9d7c:	e3a03002 	mov	r3, #2
    9d80:	ebfffa11 	bl	85cc <printk>
    9d84:	ebfffb93 	bl	8bd8 <clean_reboot>
    9d88:	0000a270 	andeq	sl, r0, r0, ror r2
    9d8c:	0000a1c8 	andeq	sl, r0, r8, asr #3
    9d90:	0000a240 	andeq	sl, r0, r0, asr #4
    9d94:	0000a22c 	andeq	sl, r0, ip, lsr #4

00009d98 <prefetch_abort_vector>:
    9d98:	e52de004 	push	{lr}		; (str lr, [sp, #-4]!)
    9d9c:	e24dd00c 	sub	sp, sp, #12
    9da0:	e1a04000 	mov	r4, r0
    9da4:	ebfffa23 	bl	8638 <rpi_reset_putc>
    9da8:	e59f301c 	ldr	r3, [pc, #28]	; 9dcc <prefetch_abort_vector+0x34>
    9dac:	e58d3000 	str	r3, [sp]
    9db0:	e58d4004 	str	r4, [sp, #4]
    9db4:	e59f0014 	ldr	r0, [pc, #20]	; 9dd0 <prefetch_abort_vector+0x38>
    9db8:	e59f1014 	ldr	r1, [pc, #20]	; 9dd4 <prefetch_abort_vector+0x3c>
    9dbc:	e59f2014 	ldr	r2, [pc, #20]	; 9dd8 <prefetch_abort_vector+0x40>
    9dc0:	e3a03002 	mov	r3, #2
    9dc4:	ebfffa00 	bl	85cc <printk>
    9dc8:	ebfffb82 	bl	8bd8 <clean_reboot>
    9dcc:	0000a2c0 	andeq	sl, r0, r0, asr #5
    9dd0:	0000a1c8 	andeq	sl, r0, r8, asr #3
    9dd4:	0000a294 	muleq	r0, r4, r2
    9dd8:	0000a27c 	andeq	sl, r0, ip, ror r2

00009ddc <reset_vector>:
    9ddc:	e52de004 	push	{lr}		; (str lr, [sp, #-4]!)
    9de0:	e24dd00c 	sub	sp, sp, #12
    9de4:	e1a04000 	mov	r4, r0
    9de8:	ebfffa12 	bl	8638 <rpi_reset_putc>
    9dec:	e59f301c 	ldr	r3, [pc, #28]	; 9e10 <reset_vector+0x34>
    9df0:	e58d3000 	str	r3, [sp]
    9df4:	e58d4004 	str	r4, [sp, #4]
    9df8:	e59f0014 	ldr	r0, [pc, #20]	; 9e14 <reset_vector+0x38>
    9dfc:	e59f1014 	ldr	r1, [pc, #20]	; 9e18 <reset_vector+0x3c>
    9e00:	e59f2014 	ldr	r2, [pc, #20]	; 9e1c <reset_vector+0x40>
    9e04:	e3a03002 	mov	r3, #2
    9e08:	ebfff9ef 	bl	85cc <printk>
    9e0c:	ebfffb71 	bl	8bd8 <clean_reboot>
    9e10:	0000a30c 	andeq	sl, r0, ip, lsl #6
    9e14:	0000a1c8 	andeq	sl, r0, r8, asr #3
    9e18:	0000a2e0 	andeq	sl, r0, r0, ror #5
    9e1c:	0000a2d0 	ldrdeq	sl, [r0], -r0

00009e20 <undefined_instruction_vector>:
    9e20:	e52de004 	push	{lr}		; (str lr, [sp, #-4]!)
    9e24:	e24dd00c 	sub	sp, sp, #12
    9e28:	e1a04000 	mov	r4, r0
    9e2c:	ebfffa01 	bl	8638 <rpi_reset_putc>
    9e30:	e59f301c 	ldr	r3, [pc, #28]	; 9e54 <undefined_instruction_vector+0x34>
    9e34:	e58d3000 	str	r3, [sp]
    9e38:	e58d4004 	str	r4, [sp, #4]
    9e3c:	e59f0014 	ldr	r0, [pc, #20]	; 9e58 <undefined_instruction_vector+0x38>
    9e40:	e59f1014 	ldr	r1, [pc, #20]	; 9e5c <undefined_instruction_vector+0x3c>
    9e44:	e59f2014 	ldr	r2, [pc, #20]	; 9e60 <undefined_instruction_vector+0x40>
    9e48:	e3a03002 	mov	r3, #2
    9e4c:	ebfff9de 	bl	85cc <printk>
    9e50:	ebfffb60 	bl	8bd8 <clean_reboot>
    9e54:	0000a368 	andeq	sl, r0, r8, ror #6
    9e58:	0000a1c8 	andeq	sl, r0, r8, asr #3
    9e5c:	0000a334 	andeq	sl, r0, r4, lsr r3
    9e60:	0000a314 	andeq	sl, r0, r4, lsl r3

00009e64 <memset>:
    9e64:	e0802002 	add	r2, r0, r2
    9e68:	e1a03000 	mov	r3, r0
    9e6c:	ea000001 	b	9e78 <memset+0x14>
    9e70:	e5c31000 	strb	r1, [r3]
    9e74:	e2833001 	add	r3, r3, #1
    9e78:	e1530002 	cmp	r3, r2
    9e7c:	3afffffb 	bcc	9e70 <memset+0xc>
    9e80:	e12fff1e 	bx	lr

Disassembly of section .data:

00009e84 <rpi_putchar>:
    9e84:	00008624 	andeq	r8, r0, r4, lsr #12

00009e88 <putk>:
    9e88:	00008660 	andeq	r8, r0, r0, ror #12

00009e8c <GPFSEL0>:
    9e8c:	20200000 	eorcs	r0, r0, r0

00009e90 <GPFSEL1>:
    9e90:	20200004 	eorcs	r0, r0, r4

00009e94 <GPFSEL2>:
    9e94:	20200008 	eorcs	r0, r0, r8

00009e98 <GPFSEL3>:
    9e98:	2020000c 	eorcs	r0, r0, ip

00009e9c <GPFSEL4>:
    9e9c:	20200010 	eorcs	r0, r0, r0, lsl r0

00009ea0 <GPFSEL5>:
    9ea0:	20200014 	eorcs	r0, r0, r4, lsl r0

00009ea4 <GPSET0>:
    9ea4:	2020001c 	eorcs	r0, r0, ip, lsl r0

00009ea8 <GPSET1>:
    9ea8:	20200020 	eorcs	r0, r0, r0, lsr #32

00009eac <GPCLR0>:
    9eac:	20200028 	eorcs	r0, r0, r8, lsr #32

00009eb0 <GPCLR1>:
    9eb0:	2020002c 	eorcs	r0, r0, ip, lsr #32

00009eb4 <GPLEV0>:
    9eb4:	20200034 	eorcs	r0, r0, r4, lsr r0

00009eb8 <GPLEV1>:
    9eb8:	20200038 	eorcs	r0, r0, r8, lsr r0

00009ebc <IRQ_PENDING_2>:
    9ebc:	2000b208 	andcs	fp, r0, r8, lsl #4

00009ec0 <GPREN0>:
    9ec0:	2020004c 	eorcs	r0, r0, ip, asr #32

00009ec4 <GPREN1>:
    9ec4:	20200050 	eorcs	r0, r0, r0, asr r0

00009ec8 <ENABLE_IRQS_2>:
    9ec8:	2000b214 	andcs	fp, r0, r4, lsl r2

00009ecc <GPFEN0>:
    9ecc:	20200058 	eorcs	r0, r0, r8, asr r0

00009ed0 <GPFEN1>:
    9ed0:	2020005c 	eorcs	r0, r0, ip, asr r0

00009ed4 <GPEDS0>:
    9ed4:	20200040 	eorcs	r0, r0, r0, asr #32

00009ed8 <GPEDS1>:
    9ed8:	20200044 	eorcs	r0, r0, r4, asr #32

00009edc <IRQ_PENDING_1>:
    9edc:	2000b204 	andcs	fp, r0, r4, lsl #4

00009ee0 <gpio_clr0>:
    9ee0:	20200028 	eorcs	r0, r0, r8, lsr #32

00009ee4 <gpio_set0>:
    9ee4:	2020001c 	eorcs	r0, r0, ip, lsl r0

00009ee8 <gpio_fsel0>:
    9ee8:	20200000 	eorcs	r0, r0, r0

00009eec <AUX_ENABLES>:
    9eec:	20215004 	eorcs	r5, r1, r4

00009ef0 <AUX_MU_CNTL_REG>:
    9ef0:	20215060 	eorcs	r5, r1, r0, rrx

00009ef4 <AUX_MU_IER_REG>:
    9ef4:	20215044 	eorcs	r5, r1, r4, asr #32

00009ef8 <AUX_MU_IIR_REG>:
    9ef8:	20215048 	eorcs	r5, r1, r8, asr #32

00009efc <AUX_MU_LCR_REG>:
    9efc:	2021504c 	eorcs	r5, r1, ip, asr #32

00009f00 <AUX_MU_BAUD_REG>:
    9f00:	20215068 	eorcs	r5, r1, r8, rrx

00009f04 <AUX_MU_LSR_REG>:
    9f04:	20215054 	eorcs	r5, r1, r4, asr r0

00009f08 <AUX_MU_IO_REG>:
    9f08:	20215040 	eorcs	r5, r1, r0, asr #32

00009f0c <AUX_MU_STAT_REG>:
    9f0c:	20215064 	eorcs	r5, r1, r4, rrx

00009f10 <AUX_MU_SCRATCH>:
    9f10:	2021505c 	eorcs	r5, r1, ip, asr r0

00009f14 <AUX_MU_MSR_REG>:
    9f14:	20215058 	eorcs	r5, r1, r8, asr r0

00009f18 <AUX_MU_MCR_REG>:
    9f18:	20215050 	eorcs	r5, r1, r0, asr r0

00009f1c <AUX_IRQ>:
    9f1c:	20215000 	eorcs	r5, r1, r0

Disassembly of section .rodata:

00009f20 <__FUNCTION__.4465>:
    9f20:	6c637963 	stclvs	9, cr7, [r3], #-396	; 0xfffffe74
    9f24:	705f7365 	subsvc	r7, pc, r5, ror #6
    9f28:	735f7265 	cmpvc	pc, #1342177286	; 0x50000006
    9f2c:	00006365 	andeq	r6, r0, r5, ror #6
    9f30:	4f525245 	svcmi	0x00525245
    9f34:	73253a52 	teqvc	r5, #335872	; 0x52000
    9f38:	3a73253a 	bcc	1cd3428 <__bss_end__+0x1cc8c90>
    9f3c:	203a6425 	eorscs	r6, sl, r5, lsr #8
    9f40:	534c4146 	movtpl	r4, #49478	; 0xc146
    9f44:	733c2845 	teqvc	ip, #4521984	; 0x450000
    9f48:	32203c20 	eorcc	r3, r0, #32, 24	; 0x2000
    9f4c:	203a293e 	eorscs	r2, sl, lr, lsr r9
    9f50:	6c6c6977 	stclvs	9, cr6, [ip], #-476	; 0xfffffe24
    9f54:	65766f20 	ldrbvs	r6, [r6, #-3872]!	; 0xf20
    9f58:	6f6c6672 	svcvs	0x006c6672
    9f5c:	00000a77 	andeq	r0, r0, r7, ror sl
    9f60:	6f6c2d32 	svcvs	0x006c2d32
    9f64:	2d636967 	stclcs	9, cr6, [r3, #-412]!	; 0xfffffe64
    9f68:	6c616e61 	stclvs	14, cr6, [r1], #-388	; 0xfffffe7c
    9f6c:	72657a79 	rsbvc	r7, r5, #495616	; 0x79000
    9f70:	0000632e 	andeq	r6, r0, lr, lsr #6

00009f74 <__FUNCTION__.4265>:
    9f74:	74696d65 	strbtvc	r6, [r9], #-3429	; 0xd65
    9f78:	00000000 	andeq	r0, r0, r0

00009f7c <__FUNCTION__.4213>:
    9f7c:	5f697072 	svcpl	0x00697072
    9f80:	5f746573 	svcpl	0x00746573
    9f84:	7074756f 	rsbsvc	r7, r4, pc, ror #10
    9f88:	00007475 	andeq	r7, r0, r5, ror r4

00009f8c <__FUNCTION__.4287>:
    9f8c:	705f6176 	subsvc	r6, pc, r6, ror r1	; <UNPREDICTABLE>
    9f90:	746e6972 	strbtvc	r6, [lr], #-2418	; 0x972
    9f94:	0000006b 	andeq	r0, r0, fp, rrx
    9f98:	494e4150 	stmdbmi	lr, {r4, r6, r8, lr}^
    9f9c:	73253a43 	teqvc	r5, #274432	; 0x43000
    9fa0:	3a73253a 	bcc	1cd3490 <__bss_end__+0x1cc8cf8>
    9fa4:	253a6425 	ldrcs	r6, [sl, #-1061]!	; 0x425
    9fa8:	00000a73 	andeq	r0, r0, r3, ror sl
    9fac:	6362696c 	cmnvs	r2, #108, 18	; 0x1b0000
    9fb0:	2d61762f 	stclcs	6, cr7, [r1, #-188]!	; 0xffffff44
    9fb4:	6e697270 	mcrvs	2, 3, r7, cr9, cr0, {3}
    9fb8:	632e6b74 	teqvs	lr, #116, 22	; 0x1d000
    9fbc:	00000000 	andeq	r0, r0, r0
    9fc0:	00000030 	andeq	r0, r0, r0, lsr r0
    9fc4:	33323130 	teqcc	r2, #48, 2
    9fc8:	37363534 			; <UNDEFINED> instruction: 0x37363534
    9fcc:	00003938 	andeq	r3, r0, r8, lsr r9
    9fd0:	33323130 	teqcc	r2, #48, 2
    9fd4:	37363534 			; <UNDEFINED> instruction: 0x37363534
    9fd8:	62613938 	rsbvs	r3, r1, #56, 18	; 0xe0000
    9fdc:	66656463 	strbtvs	r6, [r5], -r3, ror #8
    9fe0:	00000000 	andeq	r0, r0, r0
    9fe4:	00003130 	andeq	r3, r0, r0, lsr r1
    9fe8:	63747570 	cmnvs	r4, #112, 10	; 0x1c000000
    9fec:	0070665f 	rsbseq	r6, r0, pc, asr r6
    9ff0:	74646977 	strbtvc	r6, [r4], #-2423	; 0x977
    9ff4:	203c2068 	eorscs	r2, ip, r8, rrx
    9ff8:	00003233 	andeq	r3, r0, r3, lsr r2
    9ffc:	494e4150 	stmdbmi	lr, {r4, r6, r8, lr}^
    a000:	73253a43 	teqvc	r5, #274432	; 0x43000
    a004:	3a73253a 	bcc	1cd34f4 <__bss_end__+0x1cc8d5c>
    a008:	663a6425 	ldrtvs	r6, [sl], -r5, lsr #8
    a00c:	74616f6c 	strbtvc	r6, [r1], #-3948	; 0xf6c
    a010:	746f6e20 	strbtvc	r6, [pc], #-3616	; a018 <__FUNCTION__.4287+0x8c>
    a014:	616e6520 	cmnvs	lr, r0, lsr #10
    a018:	64656c62 	strbtvs	r6, [r5], #-3170	; 0xc62
    a01c:	0a212121 	beq	8524a8 <__bss_end__+0x847d10>
    a020:	00000000 	andeq	r0, r0, r0
    a024:	494e4150 	stmdbmi	lr, {r4, r6, r8, lr}^
    a028:	73253a43 	teqvc	r5, #274432	; 0x43000
    a02c:	3a73253a 	bcc	1cd351c <__bss_end__+0x1cc8d84>
    a030:	703a6425 	eorsvc	r6, sl, r5, lsr #8
    a034:	746e6972 	strbtvc	r6, [lr], #-2418	; 0x972
    a038:	6e203a6b 	vnmulvs.f32	s6, s0, s23
    a03c:	6820746f 	stmdavs	r0!, {r0, r1, r2, r3, r5, r6, sl, ip, sp, lr}
    a040:	6c646e61 	stclvs	14, cr6, [r4], #-388	; 0xfffffe7c
    a044:	20676e69 	rsbcs	r6, r7, r9, ror #28
    a048:	63657073 	cmnvs	r5, #115	; 0x73
    a04c:	65696669 	strbvs	r6, [r9, #-1641]!	; 0x669
    a050:	25272072 	strcs	r2, [r7, #-114]!	; 0x72
    a054:	0a0a2763 	beq	293de8 <__bss_end__+0x289650>
    a058:	00000000 	andeq	r0, r0, r0
    a05c:	454e4f44 	strbmi	r4, [lr, #-3908]	; 0xf44
    a060:	0a212121 	beq	8524ec <__bss_end__+0x847d54>
    a064:	00000000 	andeq	r0, r0, r0
    a068:	756f6261 	strbvc	r6, [pc, #-609]!	; 9e0f <reset_vector+0x33>
    a06c:	6f742074 	svcvs	0x00742074
    a070:	69727020 	ldmdbvs	r2!, {r5, ip, sp, lr}^
    a074:	6f20746e 	svcvs	0x0020746e
    a078:	6572206e 	ldrbvs	r2, [r2, #-110]!	; 0x6e
    a07c:	616c7567 	cmnvs	ip, r7, ror #10
    a080:	72702072 	rsbsvc	r2, r0, #114	; 0x72
    a084:	66746e69 	ldrbtvs	r6, [r4], -r9, ror #28
    a088:	0000000a 	andeq	r0, r0, sl
    a08c:	63637573 	cmnvs	r3, #482344960	; 0x1cc00000
    a090:	21737365 	cmncs	r3, r5, ror #6
    a094:	0000000a 	andeq	r0, r0, sl

0000a098 <__FUNCTION__.4314>:
    a098:	755f7773 	ldrbvc	r7, [pc, #-1907]	; 992d <sw_uart_printk+0x55>
    a09c:	5f747261 	svcpl	0x00747261
    a0a0:	73746567 	cmnvc	r4, #432013312	; 0x19c00000
    a0a4:	746e755f 	strbtvc	r7, [lr], #-1375	; 0x55f
    a0a8:	00006c69 	andeq	r6, r0, r9, ror #24

0000a0ac <__FUNCTION__.4326>:
    a0ac:	755f7773 	ldrbvc	r7, [pc, #-1907]	; 9941 <sw_uart_printk+0x69>
    a0b0:	5f747261 	svcpl	0x00747261
    a0b4:	73746567 	cmnvc	r4, #432013312	; 0x19c00000
    a0b8:	6d69745f 	cfstrdvs	mvd7, [r9, #-380]!	; 0xfffffe84
    a0bc:	74756f65 	ldrbtvc	r6, [r5], #-3941	; 0xf65
    a0c0:	00000000 	andeq	r0, r0, r0

0000a0c4 <__FUNCTION__.4340>:
    a0c4:	755f7773 	ldrbvc	r7, [pc, #-1907]	; 9959 <sw_uart_printk+0x81>
    a0c8:	5f747261 	svcpl	0x00747261
    a0cc:	74696e69 	strbtvc	r6, [r9], #-3689	; 0xe69
    a0d0:	6c65685f 	stclvs	8, cr6, [r5], #-380	; 0xfffffe84
    a0d4:	00726570 	rsbseq	r6, r2, r0, ror r5

0000a0d8 <__FUNCTION__.4346>:
    a0d8:	755f7773 	ldrbvc	r7, [pc, #-1907]	; 996d <sw_uart_gets_until_blk+0x5>
    a0dc:	5f747261 	svcpl	0x00747261
    a0e0:	63746567 	cmnvs	r4, #432013312	; 0x19c00000
    a0e4:	00000000 	andeq	r0, r0, r0

0000a0e8 <__FUNCTION__.4368>:
    a0e8:	755f7773 	ldrbvc	r7, [pc, #-1907]	; 997d <sw_uart_gets_until_blk+0x15>
    a0ec:	5f747261 	svcpl	0x00747261
    a0f0:	6e697270 	mcrvs	2, 3, r7, cr9, cr0, {3}
    a0f4:	00006b74 	andeq	r6, r0, r4, ror fp

0000a0f8 <__FUNCTION__.4376>:
    a0f8:	755f7773 	ldrbvc	r7, [pc, #-1907]	; 998d <sw_uart_gets_until_blk+0x25>
    a0fc:	5f747261 	svcpl	0x00747261
    a100:	73746567 	cmnvc	r4, #432013312	; 0x19c00000
    a104:	746e755f 	strbtvc	r7, [lr], #-1375	; 0x55f
    a108:	625f6c69 	subsvs	r6, pc, #26880	; 0x6900
    a10c:	00006b6c 	andeq	r6, r0, ip, ror #22
    a110:	732d796d 	teqvc	sp, #1785856	; 0x1b4000
    a114:	732f6372 	teqvc	pc, #-939524095	; 0xc8000001
    a118:	61752d77 	cmnvs	r5, r7, ror sp
    a11c:	632e7472 	teqvs	lr, #1912602624	; 0x72000000
    a120:	00000000 	andeq	r0, r0, r0
    a124:	7479626e 	ldrbtvc	r6, [r9], #-622	; 0x26e
    a128:	303e7365 	eorscc	r7, lr, r5, ror #6
    a12c:	00000000 	andeq	r0, r0, r0
    a130:	7a686d28 	bvc	1a255d8 <__bss_end__+0x1a1ae40>
    a134:	62202d20 	eorvs	r2, r0, #32, 26	; 0x800
    a138:	29647561 	stmdbcs	r4!, {r0, r5, r6, r8, sl, ip, sp, lr}^
    a13c:	203d3c20 	eorscs	r3, sp, r0, lsr #24
    a140:	69726564 	ldmdbvs	r2!, {r2, r5, r6, r8, sl, sp, lr}^
    a144:	20646576 	rsbcs	r6, r4, r6, ror r5
    a148:	64202626 	strtvs	r2, [r0], #-1574	; 0x626
    a14c:	76697265 	strbtvc	r7, [r9], -r5, ror #4
    a150:	3c206465 	cfstrscc	mvf6, [r0], #-404	; 0xfffffe6c
    a154:	6d28203d 	stcvs	0, cr2, [r8, #-244]!	; 0xffffff0c
    a158:	2b207a68 	blcs	828b00 <__bss_end__+0x81e368>
    a15c:	75616220 	strbvc	r6, [r1, #-544]!	; 0x220
    a160:	00002964 	andeq	r2, r0, r4, ror #18
    a164:	494e4150 	stmdbmi	lr, {r4, r6, r8, lr}^
    a168:	73253a43 	teqvc	r5, #274432	; 0x43000
    a16c:	3a73253a 	bcc	1cd365c <__bss_end__+0x1cc8ec4>
    a170:	693a6425 	ldmdbvs	sl!, {r0, r2, r5, sl, sp, lr}
    a174:	736f706d 	cmnvc	pc, #109	; 0x6d
    a178:	6c626973 	stclvs	9, cr6, [r2], #-460	; 0xfffffe34
    a17c:	68203a65 	stmdavs	r0!, {r0, r2, r5, r6, r9, fp, ip, sp}
    a180:	20657661 	rsbcs	r7, r5, r1, ror #12
    a184:	69206e61 	stmdbvs	r0!, {r0, r5, r6, r9, sl, fp, sp, lr}
    a188:	6e69666e 	cdpvs	6, 6, cr6, cr9, cr14, {3}
    a18c:	20657469 	rsbcs	r7, r5, r9, ror #8
    a190:	656d6974 	strbvs	r6, [sp, #-2420]!	; 0x974
    a194:	2174756f 	cmncs	r4, pc, ror #10
    a198:	00000a0a 	andeq	r0, r0, sl, lsl #20
    a19c:	3c207a73 	stccc	10, cr7, [r0], #-460	; 0xfffffe34
    a1a0:	7a697320 	bvc	1a66e28 <__bss_end__+0x1a5c690>
    a1a4:	20666f65 	rsbcs	r6, r6, r5, ror #30
    a1a8:	2d667562 	cfstr64cs	mvdx7, [r6, #-392]!	; 0xfffffe78
    a1ac:	00000031 	andeq	r0, r0, r1, lsr r0

0000a1b0 <__FUNCTION__.4255>:
    a1b0:	74736166 	ldrbtvc	r6, [r3], #-358	; 0x166
    a1b4:	746e695f 	strbtvc	r6, [lr], #-2399	; 0x95f
    a1b8:	75727265 	ldrbvc	r7, [r2, #-613]!	; 0x265
    a1bc:	765f7470 			; <UNDEFINED> instruction: 0x765f7470
    a1c0:	6f746365 	svcvs	0x00746365
    a1c4:	00000072 	andeq	r0, r0, r2, ror r0
    a1c8:	494e4150 	stmdbmi	lr, {r4, r6, r8, lr}^
    a1cc:	73253a43 	teqvc	r5, #274432	; 0x43000
    a1d0:	3a73253a 	bcc	1cd36c0 <__bss_end__+0x1cc8f28>
    a1d4:	453a6425 	ldrmi	r6, [sl, #-1061]!	; 0x425
    a1d8:	524f5252 	subpl	r5, pc, #536870917	; 0x20000005
    a1dc:	6e75203a 	mrcvs	0, 3, r2, cr5, cr10, {1}
    a1e0:	646e6168 	strbtvs	r6, [lr], #-360	; 0x168
    a1e4:	2064656c 	rsbcs	r6, r4, ip, ror #10
    a1e8:	65637865 	strbvs	r7, [r3, #-2149]!	; 0x865
    a1ec:	6f697470 	svcvs	0x00697470
    a1f0:	253c206e 	ldrcs	r2, [ip, #-110]!	; 0x6e
    a1f4:	61203e73 	teqvs	r0, r3, ror lr
    a1f8:	43502074 	cmpmi	r0, #116	; 0x74
    a1fc:	0a78253d 	beq	1e136f8 <__bss_end__+0x1e08f60>
    a200:	0000000a 	andeq	r0, r0, sl
    a204:	34317363 	ldrtcc	r7, [r1], #-867	; 0x363
    a208:	692d6530 	pushvs	{r4, r5, r8, sl, sp, lr}
    a20c:	7265746e 	rsbvc	r7, r5, #1845493760	; 0x6e000000
    a210:	74707572 	ldrbtvc	r7, [r0], #-1394	; 0x572
    a214:	746e692f 	strbtvc	r6, [lr], #-2351	; 0x92f
    a218:	75727265 	ldrbvc	r7, [r2, #-613]!	; 0x265
    a21c:	2d737470 	cfldrdcs	mvd7, [r3, #-448]!	; 0xfffffe40
    a220:	00632e63 	rsbeq	r2, r3, r3, ror #28
    a224:	74736166 	ldrbtvc	r6, [r3], #-358	; 0x166
    a228:	00000000 	andeq	r0, r0, r0

0000a22c <__FUNCTION__.4241>:
    a22c:	61746164 	cmnvs	r4, r4, ror #2
    a230:	6f62615f 	svcvs	0x0062615f
    a234:	765f7472 			; <UNDEFINED> instruction: 0x765f7472
    a238:	6f746365 	svcvs	0x00746365
    a23c:	00000072 	andeq	r0, r0, r2, ror r0
    a240:	34317363 	ldrtcc	r7, [r1], #-867	; 0x363
    a244:	692d6530 	pushvs	{r4, r5, r8, sl, sp, lr}
    a248:	7265746e 	rsbvc	r7, r5, #1845493760	; 0x6e000000
    a24c:	74707572 	ldrbtvc	r7, [r0], #-1394	; 0x572
    a250:	6665642f 	strbtvs	r6, [r5], -pc, lsr #8
    a254:	746c7561 	strbtvc	r7, [ip], #-1377	; 0x561
    a258:	6e61682d 	cdpvs	8, 6, cr6, cr1, cr13, {1}
    a25c:	72656c64 	rsbvc	r6, r5, #100, 24	; 0x6400
    a260:	7461642d 	strbtvc	r6, [r1], #-1069	; 0x42d
    a264:	62612d61 	rsbvs	r2, r1, #6208	; 0x1840
    a268:	2e74726f 	cdpcs	2, 7, cr7, cr4, cr15, {3}
    a26c:	00000063 	andeq	r0, r0, r3, rrx
    a270:	61746164 	cmnvs	r4, r4, ror #2
    a274:	6f626120 	svcvs	0x00626120
    a278:	00007472 	andeq	r7, r0, r2, ror r4

0000a27c <__FUNCTION__.4241>:
    a27c:	66657270 			; <UNDEFINED> instruction: 0x66657270
    a280:	68637465 	stmdavs	r3!, {r0, r2, r5, r6, sl, ip, sp, lr}^
    a284:	6f62615f 	svcvs	0x0062615f
    a288:	765f7472 			; <UNDEFINED> instruction: 0x765f7472
    a28c:	6f746365 	svcvs	0x00746365
    a290:	00000072 	andeq	r0, r0, r2, ror r0
    a294:	34317363 	ldrtcc	r7, [r1], #-867	; 0x363
    a298:	692d6530 	pushvs	{r4, r5, r8, sl, sp, lr}
    a29c:	7265746e 	rsbvc	r7, r5, #1845493760	; 0x6e000000
    a2a0:	74707572 	ldrbtvc	r7, [r0], #-1394	; 0x572
    a2a4:	6665642f 	strbtvs	r6, [r5], -pc, lsr #8
    a2a8:	746c7561 	strbtvc	r7, [ip], #-1377	; 0x561
    a2ac:	6e61682d 	cdpvs	8, 6, cr6, cr1, cr13, {1}
    a2b0:	72656c64 	rsbvc	r6, r5, #100, 24	; 0x6400
    a2b4:	6572702d 	ldrbvs	r7, [r2, #-45]!	; 0x2d
    a2b8:	63746566 	cmnvs	r4, #427819008	; 0x19800000
    a2bc:	00632e68 	rsbeq	r2, r3, r8, ror #28
    a2c0:	66657270 			; <UNDEFINED> instruction: 0x66657270
    a2c4:	68637465 	stmdavs	r3!, {r0, r2, r5, r6, sl, ip, sp, lr}^
    a2c8:	6f626120 	svcvs	0x00626120
    a2cc:	00007472 	andeq	r7, r0, r2, ror r4

0000a2d0 <__FUNCTION__.4241>:
    a2d0:	65736572 	ldrbvs	r6, [r3, #-1394]!	; 0x572
    a2d4:	65765f74 	ldrbvs	r5, [r6, #-3956]!	; 0xf74
    a2d8:	726f7463 	rsbvc	r7, pc, #1660944384	; 0x63000000
    a2dc:	00000000 	andeq	r0, r0, r0
    a2e0:	34317363 	ldrtcc	r7, [r1], #-867	; 0x363
    a2e4:	692d6530 	pushvs	{r4, r5, r8, sl, sp, lr}
    a2e8:	7265746e 	rsbvc	r7, r5, #1845493760	; 0x6e000000
    a2ec:	74707572 	ldrbtvc	r7, [r0], #-1394	; 0x572
    a2f0:	6665642f 	strbtvs	r6, [r5], -pc, lsr #8
    a2f4:	746c7561 	strbtvc	r7, [ip], #-1377	; 0x561
    a2f8:	6e61682d 	cdpvs	8, 6, cr6, cr1, cr13, {1}
    a2fc:	72656c64 	rsbvc	r6, r5, #100, 24	; 0x6400
    a300:	7365722d 	cmnvc	r5, #-805306366	; 0xd0000002
    a304:	632e7465 	teqvs	lr, #1694498816	; 0x65000000
    a308:	00000000 	andeq	r0, r0, r0
    a30c:	65736572 	ldrbvs	r6, [r3, #-1394]!	; 0x572
    a310:	00000074 	andeq	r0, r0, r4, ror r0

0000a314 <__FUNCTION__.4241>:
    a314:	65646e75 	strbvs	r6, [r4, #-3701]!	; 0xe75
    a318:	656e6966 	strbvs	r6, [lr, #-2406]!	; 0x966
    a31c:	6e695f64 	cdpvs	15, 6, cr5, cr9, cr4, {3}
    a320:	75727473 	ldrbvc	r7, [r2, #-1139]!	; 0x473
    a324:	6f697463 	svcvs	0x00697463
    a328:	65765f6e 	ldrbvs	r5, [r6, #-3950]!	; 0xf6e
    a32c:	726f7463 	rsbvc	r7, pc, #1660944384	; 0x63000000
    a330:	00000000 	andeq	r0, r0, r0
    a334:	34317363 	ldrtcc	r7, [r1], #-867	; 0x363
    a338:	692d6530 	pushvs	{r4, r5, r8, sl, sp, lr}
    a33c:	7265746e 	rsbvc	r7, r5, #1845493760	; 0x6e000000
    a340:	74707572 	ldrbtvc	r7, [r0], #-1394	; 0x572
    a344:	6665642f 	strbtvs	r6, [r5], -pc, lsr #8
    a348:	746c7561 	strbtvc	r7, [ip], #-1377	; 0x561
    a34c:	6e61682d 	cdpvs	8, 6, cr6, cr1, cr13, {1}
    a350:	72656c64 	rsbvc	r6, r5, #100, 24	; 0x6400
    a354:	646e752d 	strbtvs	r7, [lr], #-1325	; 0x52d
    a358:	6e696665 	cdpvs	6, 6, cr6, cr9, cr5, {3}
    a35c:	692d6465 	pushvs	{r0, r2, r5, r6, sl, sp, lr}
    a360:	2e74736e 	cdpcs	3, 7, cr7, cr4, cr14, {3}
    a364:	00000063 	andeq	r0, r0, r3, rrx
    a368:	65646e75 	strbvs	r6, [r4, #-3701]!	; 0xe75
    a36c:	656e6966 	strbvs	r6, [lr, #-2406]!	; 0x966
    a370:	6e692064 	cdpvs	0, 6, cr2, cr9, cr4, {3}
    a374:	00007473 	andeq	r7, r0, r3, ror r4

Disassembly of section .bss:

0000a378 <__bss_start__>:
    a378:	00000000 	andeq	r0, r0, r0

0000a37c <nevents>:
    a37c:	00000000 	andeq	r0, r0, r0

0000a380 <n_rising_edge>:
    a380:	00000000 	andeq	r0, r0, r0

0000a384 <cycle_counter>:
    a384:	00000000 	andeq	r0, r0, r0

0000a388 <buf.4213>:
	...

0000a788 <console_uart>:
	...

0000a794 <rpi_arm_timer_t>:
    a794:	00000000 	andeq	r0, r0, r0

Disassembly of section .ARM.attributes:

00000000 <.ARM.attributes>:
   0:	00002a41 	andeq	r2, r0, r1, asr #20
   4:	61656100 	cmnvs	r5, r0, lsl #2
   8:	01006962 	tsteq	r0, r2, ror #18
   c:	00000020 	andeq	r0, r0, r0, lsr #32
  10:	4b5a3605 	blmi	168d82c <__bss_end__+0x1683094>
  14:	08070600 	stmdaeq	r7, {r9, sl}
  18:	12010901 	andne	r0, r1, #16384	; 0x4000
  1c:	15011404 	strne	r1, [r1, #-1028]	; 0x404
  20:	18031701 	stmdane	r3, {r0, r8, r9, sl, ip}
  24:	22011a01 	andcs	r1, r1, #4096	; 0x1000
  28:	Address 0x0000000000000028 is out of bounds.


Disassembly of section .comment:

00000000 <.comment>:
   0:	3a434347 	bcc	10d0d24 <__bss_end__+0x10c658c>
   4:	4e472820 	cdpmi	8, 4, cr2, cr7, cr0, {1}
   8:	34202955 	strtcc	r2, [r0], #-2389	; 0x955
   c:	332e382e 	teqcc	lr, #3014656	; 0x2e0000
	...

Disassembly of section .debug_info:

00000000 <.debug_info>:
       0:	00000c4b 	andeq	r0, r0, fp, asr #24
       4:	00000004 	andeq	r0, r0, r4
       8:	01040000 	mrseq	r0, (UNDEF: 4)
       c:	000002e4 	andeq	r0, r0, r4, ror #5
      10:	00035901 	andeq	r5, r3, r1, lsl #18
      14:	00019000 	andeq	r9, r1, r0
      18:	00801000 	addeq	r1, r0, r0
      1c:	0005bc00 	andeq	fp, r5, r0, lsl #24
      20:	00000000 	andeq	r0, r0, r0
      24:	05040200 	streq	r0, [r4, #-512]	; 0x200
      28:	00746e69 	rsbseq	r6, r4, r9, ror #28
      2c:	6c070403 	cfstrsvs	mvf0, [r7], {3}
      30:	03000000 	movweq	r0, #0
      34:	028b0601 	addeq	r0, fp, #1048576	; 0x100000
      38:	02030000 	andeq	r0, r3, #0
      3c:	0002a405 	andeq	sl, r2, r5, lsl #8
      40:	05040300 	streq	r0, [r4, #-768]	; 0x300
      44:	0000008f 	andeq	r0, r0, pc, lsl #1
      48:	8a050803 	bhi	14205c <__bss_end__+0x1378c4>
      4c:	04000000 	streq	r0, [r0], #-0
      50:	000003d1 	ldrdeq	r0, [r0], -r1
      54:	005a2e06 	subseq	r2, sl, r6, lsl #28
      58:	01030000 	mrseq	r0, (UNDEF: 3)
      5c:	00028908 	andeq	r8, r2, r8, lsl #18
      60:	07020300 	streq	r0, [r2, -r0, lsl #6]
      64:	00000178 	andeq	r0, r0, r8, ror r1
      68:	67070403 	strvs	r0, [r7, -r3, lsl #8]
      6c:	03000000 	movweq	r0, #0
      70:	00620708 	rsbeq	r0, r2, r8, lsl #14
      74:	04030000 	streq	r0, [r3], #-0
      78:	00022e07 	andeq	r2, r2, r7, lsl #28
      7c:	08010300 	stmdaeq	r1, {r8, r9}
      80:	00000292 	muleq	r0, r2, r2
      84:	008a0405 	addeq	r0, sl, r5, lsl #8
      88:	7d060000 	stcvc	0, cr0, [r6, #-0]
      8c:	07000000 	streq	r0, [r0, -r0]
      90:	b0390201 	eorslt	r0, r9, r1, lsl #4
      94:	08000000 	stmdaeq	r0, {}	; <UNPREDICTABLE>
      98:	00000000 	andeq	r0, r0, r0
      9c:	000a0831 	andeq	r0, sl, r1, lsr r8
      a0:	08320000 	ldmdaeq	r2!, {}	; <UNPREDICTABLE>
      a4:	00000014 	andeq	r0, r0, r4, lsl r0
      a8:	001e0833 	andseq	r0, lr, r3, lsr r8
      ac:	00340000 	eorseq	r0, r4, r0
      b0:	33030407 	movwcc	r0, #13319	; 0x3407
      b4:	0000011d 	andeq	r0, r0, sp, lsl r1
      b8:	0000cf08 	andeq	ip, r0, r8, lsl #30
      bc:	82e88000 	rschi	r8, r8, #0
      c0:	c0080280 	andgt	r0, r8, r0, lsl #5
      c4:	80000000 	andhi	r0, r0, r0
      c8:	028082e8 	addeq	r8, r0, #232, 4	; 0x8000000e
      cc:	00038108 	andeq	r8, r3, r8, lsl #2
      d0:	82e88400 	rschi	r8, r8, #0, 8
      d4:	a7080280 	strge	r0, [r8, -r0, lsl #5]
      d8:	88000000 	stmdahi	r0, {}	; <UNPREDICTABLE>
      dc:	028082e8 	addeq	r8, r0, #232, 4	; 0x8000000e
      e0:	00039108 	andeq	r9, r3, r8, lsl #2
      e4:	82e88c00 	rschi	r8, r8, #0, 24
      e8:	47080280 	strmi	r0, [r8, -r0, lsl #5]
      ec:	90000000 	andls	r0, r0, r0
      f0:	028082e8 	addeq	r8, r0, #232, 4	; 0x8000000e
      f4:	00010f08 	andeq	r0, r1, r8, lsl #30
      f8:	82e89400 	rschi	r9, r8, #0, 8
      fc:	37080280 	strcc	r0, [r8, -r0, lsl #5]
     100:	98000002 	stmdals	r0, {r1}
     104:	028082e8 	addeq	r8, r0, #232, 4	; 0x8000000e
     108:	00036c08 	andeq	r6, r3, r8, lsl #24
     10c:	82e89c00 	rschi	r9, r8, #0, 24
     110:	05080280 	streq	r0, [r8, #-640]	; 0x280
     114:	a0000004 	andge	r0, r0, r4
     118:	028082e8 	addeq	r8, r0, #232, 4	; 0x8000000e
     11c:	002c0900 	eoreq	r0, ip, r0, lsl #18
     120:	790a0000 	stmdbvc	sl, {}	; <UNPREDICTABLE>
     124:	01000000 	mrseq	r0, (UNDEF: 0)
     128:	013a0329 	teqeq	sl, r9, lsr #6
     12c:	700b0000 	andvc	r0, fp, r0
     130:	01006e69 	tsteq	r0, r9, ror #28
     134:	00002c29 	andeq	r2, r0, r9, lsr #24
     138:	fd0a0000 	stc2	0, cr0, [sl, #-0]
     13c:	01000000 	mrseq	r0, (UNDEF: 0)
     140:	0152032e 	cmpeq	r2, lr, lsr #6
     144:	700b0000 	andvc	r0, fp, r0
     148:	01006e69 	tsteq	r0, r9, ror #28
     14c:	00002c2e 	andeq	r2, r0, lr, lsr #24
     150:	370a0000 	strcc	r0, [sl, -r0]
     154:	01000000 	mrseq	r0, (UNDEF: 0)
     158:	01730333 	cmneq	r3, r3, lsr r3
     15c:	700b0000 	andvc	r0, fp, r0
     160:	01006e69 	tsteq	r0, r9, ror #28
     164:	00002c33 	andeq	r2, r0, r3, lsr ip
     168:	00760b00 	rsbseq	r0, r6, r0, lsl #22
     16c:	002c3301 	eoreq	r3, ip, r1, lsl #6
     170:	0c000000 	stceq	0, cr0, [r0], {-0}
     174:	000002b7 			; <UNDEFINED> instruction: 0x000002b7
     178:	002c4101 	eoreq	r4, ip, r1, lsl #2
     17c:	80100000 	andshi	r0, r0, r0
     180:	00500000 	subseq	r0, r0, r0
     184:	9c010000 	stcls	0, cr0, [r1], {-0}
     188:	0000024f 	andeq	r0, r0, pc, asr #4
     18c:	0100730d 	tsteq	r0, sp, lsl #6
     190:	00002c41 	andeq	r2, r0, r1, asr #24
     194:	00000000 	andeq	r0, r0, r0
     198:	016b0e00 	cmneq	fp, r0, lsl #28
     19c:	025f0000 	subseq	r0, pc, #0
     1a0:	03050000 	movweq	r0, #20480	; 0x5000
     1a4:	00009f20 	andeq	r9, r0, r0, lsr #30
     1a8:	0002d00f 	andeq	sp, r2, pc
     1ac:	2c430100 	stfcse	f0, [r3], {-0}
     1b0:	10000000 	andne	r0, r0, r0
     1b4:	0000018b 	andeq	r0, r0, fp, lsl #3
     1b8:	002c4501 	eoreq	r4, ip, r1, lsl #10
     1bc:	003a0000 	eorseq	r0, sl, r0
     1c0:	38110000 	ldmdacc	r1, {}	; <UNPREDICTABLE>
     1c4:	04000080 	streq	r0, [r0], #-128	; 0x80
     1c8:	db000000 	blle	1d0 <_start-0x7e30>
     1cc:	0f000001 	svceq	0x00000001
     1d0:	0000025f 	andeq	r0, r0, pc, asr r2
     1d4:	002c4301 	eoreq	r4, ip, r1, lsl #6
     1d8:	11000000 	mrsne	r0, (UNDEF: 0)
     1dc:	00008048 	andeq	r8, r0, r8, asr #32
     1e0:	00000004 	andeq	r0, r0, r4
     1e4:	000001f8 	strdeq	r0, [r0], -r8
     1e8:	00025f10 	andeq	r5, r2, r0, lsl pc
     1ec:	2c450100 	stfcse	f0, [r5], {-0}
     1f0:	3a000000 	bcc	1f8 <_start-0x7e08>
     1f4:	00000000 	andeq	r0, r0, r0
     1f8:	00802012 	addeq	r2, r0, r2, lsl r0
     1fc:	000b7700 	andeq	r7, fp, r0, lsl #14
     200:	80341300 	eorshi	r1, r4, r0, lsl #6
     204:	0b7e0000 	bleq	1f8020c <__bss_end__+0x1f75a74>
     208:	02300000 	eorseq	r0, r0, #0
     20c:	01140000 	tsteq	r4, r0
     210:	42080253 	andmi	r0, r8, #805306373	; 0x30000005
     214:	05520114 	ldrbeq	r0, [r2, #-276]	; 0x114
     218:	009f2003 	addseq	r2, pc, r3
     21c:	51011400 	tstpl	r1, r0, lsl #8
     220:	9f600305 	svcls	0x00600305
     224:	01140000 	tsteq	r4, r0
     228:	30030550 	andcc	r0, r3, r0, asr r5
     22c:	0000009f 	muleq	r0, pc, r0	; <UNPREDICTABLE>
     230:	00803812 	addeq	r3, r0, r2, lsl r8
     234:	000b9400 	andeq	r9, fp, r0, lsl #8
     238:	80481500 	subhi	r1, r8, r0, lsl #10
     23c:	0b9b0000 	bleq	fe6c0244 <__bss_end__+0xfe6b5aac>
     240:	01140000 	tsteq	r4, r0
     244:	01f30750 	mvnseq	r0, r0, asr r7
     248:	03e80a50 	mvneq	r0, #80, 20	; 0x50000
     24c:	1600001e 			; <UNDEFINED> instruction: 0x1600001e
     250:	0000007d 	andeq	r0, r0, sp, ror r0
     254:	0000025f 	andeq	r0, r0, pc, asr r2
     258:	00007617 	andeq	r7, r0, r7, lsl r6
     25c:	06000e00 	streq	r0, [r0], -r0, lsl #28
     260:	0000024f 	andeq	r0, r0, pc, asr #4
     264:	0002970c 	andeq	r9, r2, ip, lsl #14
     268:	2c4a0100 	stfcse	f0, [sl], {-0}
     26c:	60000000 	andvs	r0, r0, r0
     270:	ec000080 	stc	0, cr0, [r0], {128}	; 0x80
     274:	01000001 	tsteq	r0, r1
     278:	0003ec9c 	muleq	r3, ip, ip
     27c:	69700d00 	ldmdbvs	r0!, {r8, sl, fp}^
     280:	4a01006e 	bmi	40440 <__bss_end__+0x35ca8>
     284:	0000002c 	andeq	r0, r0, ip, lsr #32
     288:	0000004d 	andeq	r0, r0, sp, asr #32
     28c:	00044210 	andeq	r4, r4, r0, lsl r2
     290:	2c4c0100 	stfcse	f0, [ip], {-0}
     294:	6e000000 	cdpvs	0, 0, cr0, cr0, cr0, {0}
     298:	18000000 	stmdane	r0, {}	; <UNPREDICTABLE>
     29c:	4d010069 	stcmi	0, cr0, [r1, #-420]	; 0xfffffe5c
     2a0:	0000002c 	andeq	r0, r0, ip, lsr #32
     2a4:	06261901 	strteq	r1, [r6], -r1, lsl #18
     2a8:	51010000 	mrspl	r0, (UNDEF: 1)
     2ac:	0000002c 	andeq	r0, r0, ip, lsr #32
     2b0:	74115301 	ldrvc	r5, [r1], #-769	; 0x301
     2b4:	04000080 	streq	r0, [r0], #-128	; 0x80
     2b8:	cd000000 	stcgt	0, cr0, [r0, #-0]
     2bc:	19000002 	stmdbne	r0, {r1}
     2c0:	0000025f 	andeq	r0, r0, pc, asr r2
     2c4:	002c5101 	eoreq	r5, ip, r1, lsl #2
     2c8:	53010000 	movwpl	r0, #4096	; 0x1000
     2cc:	807c1100 	rsbshi	r1, ip, r0, lsl #2
     2d0:	00040000 	andeq	r0, r4, r0
     2d4:	02ea0000 	rsceq	r0, sl, #0
     2d8:	5f100000 	svcpl	0x00100000
     2dc:	01000002 	tsteq	r0, r2
     2e0:	00002c52 	andeq	r2, r0, r2, asr ip
     2e4:	0000cf00 	andeq	ip, r0, r0, lsl #30
     2e8:	90110000 	andsls	r0, r1, r0
     2ec:	04000080 	streq	r0, [r0], #-128	; 0x80
     2f0:	07000000 	streq	r0, [r0, -r0]
     2f4:	10000003 	andne	r0, r0, r3
     2f8:	0000025f 	andeq	r0, r0, pc, asr r2
     2fc:	002c5401 	eoreq	r5, ip, r1, lsl #8
     300:	00e20000 	rsceq	r0, r2, r0
     304:	11000000 	mrsne	r0, (UNDEF: 0)
     308:	000080bc 	strheq	r8, [r0], -ip
     30c:	00000004 	andeq	r0, r0, r4
     310:	00000324 	andeq	r0, r0, r4, lsr #6
     314:	00025f10 	andeq	r5, r2, r0, lsl pc
     318:	2c560100 	ldfcse	f0, [r6], {-0}
     31c:	f5000000 			; <UNDEFINED> instruction: 0xf5000000
     320:	00000000 	andeq	r0, r0, r0
     324:	0080ec11 	addeq	lr, r0, r1, lsl ip
     328:	00000400 	andeq	r0, r0, r0, lsl #8
     32c:	00034100 	andeq	r4, r3, r0, lsl #2
     330:	025f1000 	subseq	r1, pc, #0
     334:	58010000 	stmdapl	r1, {}	; <UNPREDICTABLE>
     338:	0000002c 	andeq	r0, r0, ip, lsr #32
     33c:	00000108 	andeq	r0, r0, r8, lsl #2
     340:	811c1100 	tsthi	ip, r0, lsl #2
     344:	00040000 	andeq	r0, r4, r0
     348:	035e0000 	cmpeq	lr, #0
     34c:	5f100000 	svcpl	0x00100000
     350:	01000002 	tsteq	r0, r2
     354:	00002c5a 	andeq	r2, r0, sl, asr ip
     358:	00011b00 	andeq	r1, r1, r0, lsl #22
     35c:	4c110000 	ldcmi	0, cr0, [r1], {-0}
     360:	04000081 	streq	r0, [r0], #-129	; 0x81
     364:	7b000000 	blvc	36c <_start-0x7c94>
     368:	10000003 	andne	r0, r0, r3
     36c:	0000025f 	andeq	r0, r0, pc, asr r2
     370:	002c5c01 	eoreq	r5, ip, r1, lsl #24
     374:	012e0000 	teqeq	lr, r0
     378:	11000000 	mrsne	r0, (UNDEF: 0)
     37c:	0000817c 	andeq	r8, r0, ip, ror r1
     380:	00000004 	andeq	r0, r0, r4
     384:	00000398 	muleq	r0, r8, r3
     388:	00025f10 	andeq	r5, r2, r0, lsl pc
     38c:	2c5e0100 	ldfcse	f0, [lr], {-0}
     390:	41000000 	mrsmi	r0, (UNDEF: 0)
     394:	00000001 	andeq	r0, r0, r1
     398:	0081ac11 	addeq	sl, r1, r1, lsl ip
     39c:	00000400 	andeq	r0, r0, r0, lsl #8
     3a0:	0003b500 	andeq	fp, r3, r0, lsl #10
     3a4:	025f1000 	subseq	r1, pc, #0
     3a8:	60010000 	andvs	r0, r1, r0
     3ac:	0000002c 	andeq	r0, r0, ip, lsr #32
     3b0:	00000154 	andeq	r0, r0, r4, asr r1
     3b4:	81dc1100 	bicshi	r1, ip, r0, lsl #2
     3b8:	00040000 	andeq	r0, r4, r0
     3bc:	03d20000 	bicseq	r0, r2, #0
     3c0:	5f100000 	svcpl	0x00100000
     3c4:	01000002 	tsteq	r0, r2
     3c8:	00002c62 	andeq	r2, r0, r2, ror #24
     3cc:	00016700 	andeq	r6, r1, r0, lsl #14
     3d0:	081a0000 	ldmdaeq	sl, {}	; <UNPREDICTABLE>
     3d4:	04000082 	streq	r0, [r0], #-130	; 0x82
     3d8:	10000000 	andne	r0, r0, r0
     3dc:	0000025f 	andeq	r0, r0, pc, asr r2
     3e0:	002c6401 	eoreq	r6, ip, r1, lsl #8
     3e4:	017a0000 	cmneq	sl, r0
     3e8:	00000000 	andeq	r0, r0, r0
     3ec:	0000ec1b 	andeq	lr, r0, fp, lsl ip
     3f0:	4c730100 	ldfmie	f0, [r3], #-0
     3f4:	9c000082 	stcls	0, cr0, [r0], {130}	; 0x82
     3f8:	01000002 	tsteq	r0, r2
     3fc:	0008a29c 	muleq	r8, ip, r2
     400:	69700d00 	ldmdbvs	r0!, {r8, sl, fp}^
     404:	7301006e 	movwvc	r0, #4206	; 0x106e
     408:	0000002c 	andeq	r0, r0, ip, lsr #32
     40c:	0000018d 	andeq	r0, r0, sp, lsl #3
     410:	000a1f1c 	andeq	r1, sl, ip, lsl pc
     414:	4f730100 	svcmi	0x00730100
     418:	ae000000 	cdpge	0, 0, cr0, cr0, cr0, {0}
     41c:	1c000001 	stcne	0, cr0, [r0], {1}
     420:	000000a0 	andeq	r0, r0, r0, lsr #1
     424:	002c7301 	eoreq	r7, ip, r1, lsl #6
     428:	01e80000 	mvneq	r0, r0
     42c:	69180000 	ldmdbvs	r8, {}	; <UNPREDICTABLE>
     430:	2c740100 	ldfcse	f0, [r4], #-0
     434:	01000000 	mrseq	r0, (UNDEF: 0)
     438:	00062619 	andeq	r2, r6, r9, lsl r6
     43c:	2c750100 	ldfcse	f0, [r5], #-0
     440:	01000000 	mrseq	r0, (UNDEF: 0)
     444:	82501153 	subshi	r1, r0, #-1073741804	; 0xc0000014
     448:	00040000 	andeq	r0, r4, r0
     44c:	04600000 	strbteq	r0, [r0], #-0
     450:	5f190000 	svcpl	0x00190000
     454:	01000002 	tsteq	r0, r2
     458:	00002c75 	andeq	r2, r0, r5, ror ip
     45c:	00530100 	subseq	r0, r3, r0, lsl #2
     460:	00013a1d 	andeq	r3, r1, sp, lsl sl
     464:	00826400 	addeq	r6, r2, r0, lsl #8
     468:	00001800 	andeq	r1, r0, r0, lsl #16
     46c:	7d7b0100 	ldfvce	f0, [fp, #-0]
     470:	1e000004 	cdpne	0, 0, cr0, cr0, cr4, {0}
     474:	00000146 	andeq	r0, r0, r6, asr #2
     478:	00000209 	andeq	r0, r0, r9, lsl #4
     47c:	82801100 	addhi	r1, r0, #0, 2
     480:	00040000 	andeq	r0, r4, r0
     484:	049a0000 	ldreq	r0, [sl], #0
     488:	5f100000 	svcpl	0x00100000
     48c:	01000002 	tsteq	r0, r2
     490:	00002c7c 	andeq	r2, r0, ip, ror ip
     494:	00022a00 	andeq	r2, r2, r0, lsl #20
     498:	521d0000 	andspl	r0, sp, #0
     49c:	90000001 	andls	r0, r0, r1
     4a0:	2c000082 	stccs	0, cr0, [r0], {130}	; 0x82
     4a4:	01000000 	mrseq	r0, (UNDEF: 0)
     4a8:	0004f77d 	andeq	pc, r4, sp, ror r7	; <UNPREDICTABLE>
     4ac:	01691e00 	cmneq	r9, r0, lsl #28
     4b0:	023d0000 	eorseq	r0, sp, #0
     4b4:	5e1f0000 	cdppl	0, 1, cr0, cr15, cr0, {0}
     4b8:	04000001 	streq	r0, [r0], #-1
     4bc:	9f5001f3 	svcls	0x005001f3
     4c0:	0001221d 	andeq	r2, r1, sp, lsl r2
     4c4:	00829800 	addeq	r9, r2, r0, lsl #16
     4c8:	00001400 	andeq	r1, r0, r0, lsl #8
     4cc:	dd360100 	ldfles	f0, [r6, #-0]
     4d0:	1e000004 	cdpne	0, 0, cr0, cr0, cr4, {0}
     4d4:	0000012e 	andeq	r0, r0, lr, lsr #2
     4d8:	00000269 	andeq	r0, r0, r9, ror #4
     4dc:	013a2000 	teqeq	sl, r0
     4e0:	82ac0000 	adchi	r0, ip, #0
     4e4:	00100000 	andseq	r0, r0, r0
     4e8:	38010000 	stmdacc	r1, {}	; <UNPREDICTABLE>
     4ec:	0001461e 	andeq	r4, r1, lr, lsl r6
     4f0:	00027f00 	andeq	r7, r2, r0, lsl #30
     4f4:	11000000 	mrsne	r0, (UNDEF: 0)
     4f8:	000082c0 	andeq	r8, r0, r0, asr #5
     4fc:	00000004 	andeq	r0, r0, r4
     500:	00000514 	andeq	r0, r0, r4, lsl r5
     504:	00025f10 	andeq	r5, r2, r0, lsl pc
     508:	2c7e0100 	ldfcse	f0, [lr], #-0
     50c:	95000000 	strls	r0, [r0, #-0]
     510:	00000002 	andeq	r0, r0, r2
     514:	0001521d 	andeq	r5, r1, sp, lsl r2
     518:	0082d000 	addeq	sp, r2, r0
     51c:	00002c00 	andeq	r2, r0, r0, lsl #24
     520:	717f0100 	cmnvc	pc, r0, lsl #2
     524:	1e000005 	cdpne	0, 0, cr0, cr0, cr5, {0}
     528:	00000169 	andeq	r0, r0, r9, ror #2
     52c:	000002a8 	andeq	r0, r0, r8, lsr #5
     530:	00015e1f 	andeq	r5, r1, pc, lsl lr
     534:	01f30400 	mvnseq	r0, r0, lsl #8
     538:	221d9f50 	andscs	r9, sp, #80, 30	; 0x140
     53c:	d8000001 	stmdale	r0, {r0}
     540:	14000082 	strne	r0, [r0], #-130	; 0x82
     544:	01000000 	mrseq	r0, (UNDEF: 0)
     548:	00055736 	andeq	r5, r5, r6, lsr r7
     54c:	012e1e00 	teqeq	lr, r0, lsl #28
     550:	02d40000 	sbcseq	r0, r4, #0
     554:	20000000 	andcs	r0, r0, r0
     558:	0000013a 	andeq	r0, r0, sl, lsr r1
     55c:	000082ec 	andeq	r8, r0, ip, ror #5
     560:	00000010 	andeq	r0, r0, r0, lsl r0
     564:	461e3801 	ldrmi	r3, [lr], -r1, lsl #16
     568:	ea000001 	b	574 <_start-0x7a8c>
     56c:	00000002 	andeq	r0, r0, r2
     570:	83001100 	movwhi	r1, #256	; 0x100
     574:	00040000 	andeq	r0, r4, r0
     578:	058e0000 	streq	r0, [lr]
     57c:	5f100000 	svcpl	0x00100000
     580:	01000002 	tsteq	r0, r2
     584:	00002c80 	andeq	r2, r0, r0, lsl #25
     588:	00030000 	andeq	r0, r3, r0
     58c:	521d0000 	andspl	r0, sp, #0
     590:	10000001 	andne	r0, r0, r1
     594:	2c000083 	stccs	0, cr0, [r0], {131}	; 0x83
     598:	01000000 	mrseq	r0, (UNDEF: 0)
     59c:	0005eb81 	andeq	lr, r5, r1, lsl #23
     5a0:	01691e00 	cmneq	r9, r0, lsl #28
     5a4:	03130000 	tsteq	r3, #0
     5a8:	5e1f0000 	cdppl	0, 1, cr0, cr15, cr0, {0}
     5ac:	04000001 	streq	r0, [r0], #-1
     5b0:	9f5001f3 	svcls	0x005001f3
     5b4:	0001221d 	andeq	r2, r1, sp, lsl r2
     5b8:	00831800 	addeq	r1, r3, r0, lsl #16
     5bc:	00001400 	andeq	r1, r0, r0, lsl #8
     5c0:	d1360100 	teqle	r6, r0, lsl #2
     5c4:	1e000005 	cdpne	0, 0, cr0, cr0, cr5, {0}
     5c8:	0000012e 	andeq	r0, r0, lr, lsr #2
     5cc:	0000033f 	andeq	r0, r0, pc, lsr r3
     5d0:	013a2000 	teqeq	sl, r0
     5d4:	832c0000 	teqhi	ip, #0
     5d8:	00100000 	andseq	r0, r0, r0
     5dc:	38010000 	stmdacc	r1, {}	; <UNPREDICTABLE>
     5e0:	0001461e 	andeq	r4, r1, lr, lsl r6
     5e4:	00035500 	andeq	r5, r3, r0, lsl #10
     5e8:	11000000 	mrsne	r0, (UNDEF: 0)
     5ec:	00008340 	andeq	r8, r0, r0, asr #6
     5f0:	00000004 	andeq	r0, r0, r4
     5f4:	00000608 	andeq	r0, r0, r8, lsl #12
     5f8:	00025f10 	andeq	r5, r2, r0, lsl pc
     5fc:	2c820100 	stfcss	f0, [r2], {0}
     600:	6b000000 	blvs	608 <_start-0x79f8>
     604:	00000003 	andeq	r0, r0, r3
     608:	0001521d 	andeq	r5, r1, sp, lsl r2
     60c:	00835000 	addeq	r5, r3, r0
     610:	00002c00 	andeq	r2, r0, r0, lsl #24
     614:	65830100 	strvs	r0, [r3, #256]	; 0x100
     618:	1e000006 	cdpne	0, 0, cr0, cr0, cr6, {0}
     61c:	00000169 	andeq	r0, r0, r9, ror #2
     620:	0000037e 	andeq	r0, r0, lr, ror r3
     624:	00015e1f 	andeq	r5, r1, pc, lsl lr
     628:	01f30400 	mvnseq	r0, r0, lsl #8
     62c:	221d9f50 	andscs	r9, sp, #80, 30	; 0x140
     630:	58000001 	stmdapl	r0, {r0}
     634:	14000083 	strne	r0, [r0], #-131	; 0x83
     638:	01000000 	mrseq	r0, (UNDEF: 0)
     63c:	00064b36 	andeq	r4, r6, r6, lsr fp
     640:	012e1e00 	teqeq	lr, r0, lsl #28
     644:	03aa0000 			; <UNDEFINED> instruction: 0x03aa0000
     648:	20000000 	andcs	r0, r0, r0
     64c:	0000013a 	andeq	r0, r0, sl, lsr r1
     650:	0000836c 	andeq	r8, r0, ip, ror #6
     654:	00000010 	andeq	r0, r0, r0, lsl r0
     658:	461e3801 	ldrmi	r3, [lr], -r1, lsl #16
     65c:	c0000001 	andgt	r0, r0, r1
     660:	00000003 	andeq	r0, r0, r3
     664:	83801100 	orrhi	r1, r0, #0, 2
     668:	00040000 	andeq	r0, r4, r0
     66c:	06820000 	streq	r0, [r2], r0
     670:	5f100000 	svcpl	0x00100000
     674:	01000002 	tsteq	r0, r2
     678:	00002c84 	andeq	r2, r0, r4, lsl #25
     67c:	0003d600 	andeq	sp, r3, r0, lsl #12
     680:	521d0000 	andspl	r0, sp, #0
     684:	90000001 	andls	r0, r0, r1
     688:	2c000083 	stccs	0, cr0, [r0], {131}	; 0x83
     68c:	01000000 	mrseq	r0, (UNDEF: 0)
     690:	0006df85 	andeq	sp, r6, r5, lsl #31
     694:	01691e00 	cmneq	r9, r0, lsl #28
     698:	03e90000 	mvneq	r0, #0
     69c:	5e1f0000 	cdppl	0, 1, cr0, cr15, cr0, {0}
     6a0:	04000001 	streq	r0, [r0], #-1
     6a4:	9f5001f3 	svcls	0x005001f3
     6a8:	0001221d 	andeq	r2, r1, sp, lsl r2
     6ac:	00839800 	addeq	r9, r3, r0, lsl #16
     6b0:	00001400 	andeq	r1, r0, r0, lsl #8
     6b4:	c5360100 	ldrgt	r0, [r6, #-256]!	; 0x100
     6b8:	1e000006 	cdpne	0, 0, cr0, cr0, cr6, {0}
     6bc:	0000012e 	andeq	r0, r0, lr, lsr #2
     6c0:	00000415 	andeq	r0, r0, r5, lsl r4
     6c4:	013a2000 	teqeq	sl, r0
     6c8:	83ac0000 			; <UNDEFINED> instruction: 0x83ac0000
     6cc:	00100000 	andseq	r0, r0, r0
     6d0:	38010000 	stmdacc	r1, {}	; <UNPREDICTABLE>
     6d4:	0001461e 	andeq	r4, r1, lr, lsl r6
     6d8:	00042b00 	andeq	r2, r4, r0, lsl #22
     6dc:	11000000 	mrsne	r0, (UNDEF: 0)
     6e0:	000083c0 	andeq	r8, r0, r0, asr #7
     6e4:	00000004 	andeq	r0, r0, r4
     6e8:	000006fc 	strdeq	r0, [r0], -ip
     6ec:	00025f10 	andeq	r5, r2, r0, lsl pc
     6f0:	2c860100 	stfcss	f0, [r6], {0}
     6f4:	41000000 	mrsmi	r0, (UNDEF: 0)
     6f8:	00000004 	andeq	r0, r0, r4
     6fc:	0001521d 	andeq	r5, r1, sp, lsl r2
     700:	0083d000 	addeq	sp, r3, r0
     704:	00002c00 	andeq	r2, r0, r0, lsl #24
     708:	59870100 	stmibpl	r7, {r8}
     70c:	1e000007 	cdpne	0, 0, cr0, cr0, cr7, {0}
     710:	00000169 	andeq	r0, r0, r9, ror #2
     714:	00000454 	andeq	r0, r0, r4, asr r4
     718:	00015e1f 	andeq	r5, r1, pc, lsl lr
     71c:	01f30400 	mvnseq	r0, r0, lsl #8
     720:	221d9f50 	andscs	r9, sp, #80, 30	; 0x140
     724:	d8000001 	stmdale	r0, {r0}
     728:	14000083 	strne	r0, [r0], #-131	; 0x83
     72c:	01000000 	mrseq	r0, (UNDEF: 0)
     730:	00073f36 	andeq	r3, r7, r6, lsr pc
     734:	012e1e00 	teqeq	lr, r0, lsl #28
     738:	04820000 	streq	r0, [r2], #0
     73c:	20000000 	andcs	r0, r0, r0
     740:	0000013a 	andeq	r0, r0, sl, lsr r1
     744:	000083ec 	andeq	r8, r0, ip, ror #7
     748:	00000010 	andeq	r0, r0, r0, lsl r0
     74c:	461e3801 	ldrmi	r3, [lr], -r1, lsl #16
     750:	98000001 	stmdals	r0, {r0}
     754:	00000004 	andeq	r0, r0, r4
     758:	84001100 	strhi	r1, [r0], #-256	; 0x100
     75c:	00040000 	andeq	r0, r4, r0
     760:	07760000 	ldrbeq	r0, [r6, -r0]!
     764:	5f100000 	svcpl	0x00100000
     768:	01000002 	tsteq	r0, r2
     76c:	00002c88 	andeq	r2, r0, r8, lsl #25
     770:	0004ae00 	andeq	sl, r4, r0, lsl #28
     774:	521d0000 	andspl	r0, sp, #0
     778:	10000001 	andne	r0, r0, r1
     77c:	2c000084 	stccs	0, cr0, [r0], {132}	; 0x84
     780:	01000000 	mrseq	r0, (UNDEF: 0)
     784:	0007d389 	andeq	sp, r7, r9, lsl #7
     788:	01691e00 	cmneq	r9, r0, lsl #28
     78c:	04c10000 	strbeq	r0, [r1], #0
     790:	5e1f0000 	cdppl	0, 1, cr0, cr15, cr0, {0}
     794:	04000001 	streq	r0, [r0], #-1
     798:	9f5001f3 	svcls	0x005001f3
     79c:	0001221d 	andeq	r2, r1, sp, lsl r2
     7a0:	00841800 	addeq	r1, r4, r0, lsl #16
     7a4:	00001400 	andeq	r1, r0, r0, lsl #8
     7a8:	b9360100 	ldmdblt	r6!, {r8}
     7ac:	1e000007 	cdpne	0, 0, cr0, cr0, cr7, {0}
     7b0:	0000012e 	andeq	r0, r0, lr, lsr #2
     7b4:	000004ef 	andeq	r0, r0, pc, ror #9
     7b8:	013a2000 	teqeq	sl, r0
     7bc:	842c0000 	strthi	r0, [ip], #-0
     7c0:	00100000 	andseq	r0, r0, r0
     7c4:	38010000 	stmdacc	r1, {}	; <UNPREDICTABLE>
     7c8:	0001461e 	andeq	r4, r1, lr, lsl r6
     7cc:	00050500 	andeq	r0, r5, r0, lsl #10
     7d0:	11000000 	mrsne	r0, (UNDEF: 0)
     7d4:	00008440 	andeq	r8, r0, r0, asr #8
     7d8:	00000004 	andeq	r0, r0, r4
     7dc:	000007f0 	strdeq	r0, [r0], -r0	; <UNPREDICTABLE>
     7e0:	00025f10 	andeq	r5, r2, r0, lsl pc
     7e4:	2c8a0100 	stfcss	f0, [sl], {0}
     7e8:	1b000000 	blne	7f0 <_start-0x7810>
     7ec:	00000005 	andeq	r0, r0, r5
     7f0:	0001521d 	andeq	r5, r1, sp, lsl r2
     7f4:	00845000 	addeq	r5, r4, r0
     7f8:	00002c00 	andeq	r2, r0, r0, lsl #24
     7fc:	4d8b0100 	stfmis	f0, [fp]
     800:	1e000008 	cdpne	0, 0, cr0, cr0, cr8, {0}
     804:	00000169 	andeq	r0, r0, r9, ror #2
     808:	0000052e 	andeq	r0, r0, lr, lsr #10
     80c:	00015e1f 	andeq	r5, r1, pc, lsl lr
     810:	01f30400 	mvnseq	r0, r0, lsl #8
     814:	221d9f50 	andscs	r9, sp, #80, 30	; 0x140
     818:	58000001 	stmdapl	r0, {r0}
     81c:	14000084 	strne	r0, [r0], #-132	; 0x84
     820:	01000000 	mrseq	r0, (UNDEF: 0)
     824:	00083336 	andeq	r3, r8, r6, lsr r3
     828:	012e1e00 	teqeq	lr, r0, lsl #28
     82c:	055c0000 	ldrbeq	r0, [ip, #-0]
     830:	20000000 	andcs	r0, r0, r0
     834:	0000013a 	andeq	r0, r0, sl, lsr r1
     838:	0000846c 	andeq	r8, r0, ip, ror #8
     83c:	00000010 	andeq	r0, r0, r0, lsl r0
     840:	461e3801 	ldrmi	r3, [lr], -r1, lsl #16
     844:	72000001 	andvc	r0, r0, #1
     848:	00000005 	andeq	r0, r0, r5
     84c:	84801100 	strhi	r1, [r0], #256	; 0x100
     850:	00040000 	andeq	r0, r4, r0
     854:	086a0000 	stmdaeq	sl!, {}^	; <UNPREDICTABLE>
     858:	5f100000 	svcpl	0x00100000
     85c:	01000002 	tsteq	r0, r2
     860:	00002c8c 	andeq	r2, r0, ip, lsl #25
     864:	00058800 	andeq	r8, r5, r0, lsl #16
     868:	221d0000 	andscs	r0, sp, #0
     86c:	90000001 	andls	r0, r0, r1
     870:	10000084 	andne	r0, r0, r4, lsl #1
     874:	01000000 	mrseq	r0, (UNDEF: 0)
     878:	0008888d 	andeq	r8, r8, sp, lsl #17
     87c:	012e1f00 	teqeq	lr, r0, lsl #30
     880:	f3040000 	vhadd.u8	d0, d4, d0
     884:	009f5001 	addseq	r5, pc, r1
     888:	0084a41a 	addeq	sl, r4, sl, lsl r4
     88c:	00000400 	andeq	r0, r0, r0, lsl #8
     890:	025f1000 	subseq	r1, pc, #0
     894:	8e010000 	cdphi	0, 0, cr0, cr1, cr0, {0}
     898:	0000002c 	andeq	r0, r0, ip, lsr #32
     89c:	0000059b 	muleq	r0, fp, r5
     8a0:	ae1b0000 	cdpge	0, 1, cr0, cr11, cr0, {0}
     8a4:	0100000b 	tsteq	r0, fp
     8a8:	0084e8b3 			; <UNDEFINED> instruction: 0x0084e8b3
     8ac:	0000a400 	andeq	sl, r0, r0, lsl #8
     8b0:	5f9c0100 	svcpl	0x009c0100
     8b4:	0d000009 	stceq	0, cr0, [r0, #-36]	; 0xffffffdc
     8b8:	01006370 	tsteq	r0, r0, ror r3
     8bc:	00002cb3 			; <UNDEFINED> instruction: 0x00002cb3
     8c0:	0005ae00 	andeq	sl, r5, r0, lsl #28
     8c4:	00732100 	rsbseq	r2, r3, r0, lsl #2
     8c8:	002cba01 	eoreq	fp, ip, r1, lsl #20
     8cc:	54010000 	strpl	r0, [r1], #-0
     8d0:	0084ec11 	addeq	lr, r4, r1, lsl ip
     8d4:	00000400 	andeq	r0, r0, r0, lsl #8
     8d8:	0008eb00 	andeq	lr, r8, r0, lsl #22
     8dc:	025f1900 	subseq	r1, pc, #0, 18
     8e0:	ba010000 	blt	408e8 <__bss_end__+0x36150>
     8e4:	0000002c 	andeq	r0, r0, ip, lsr #32
     8e8:	12005401 	andne	r5, r0, #16777216	; 0x1000000
     8ec:	000084f4 	strdeq	r8, [r0], -r4
     8f0:	00000bac 	andeq	r0, r0, ip, lsr #23
     8f4:	0084fc13 	addeq	pc, r4, r3, lsl ip	; <UNPREDICTABLE>
     8f8:	000bb300 	andeq	fp, fp, r0, lsl #6
     8fc:	00090800 	andeq	r0, r9, r0, lsl #16
     900:	50011400 	andpl	r1, r1, r0, lsl #8
     904:	00310802 	eorseq	r0, r1, r2, lsl #16
     908:	00850c13 	addeq	r0, r5, r3, lsl ip
     90c:	000bb300 	andeq	fp, fp, r0, lsl #6
     910:	00091c00 	andeq	r1, r9, r0, lsl #24
     914:	50011400 	andpl	r1, r1, r0, lsl #8
     918:	00320802 	eorseq	r0, r2, r2, lsl #16
     91c:	00851c13 	addeq	r1, r5, r3, lsl ip
     920:	000bc800 	andeq	ip, fp, r0, lsl #16
     924:	00092f00 	andeq	r2, r9, r0, lsl #30
     928:	50011400 	andpl	r1, r1, r0, lsl #8
     92c:	13004401 	movwne	r4, #1025	; 0x401
     930:	0000854c 	andeq	r8, r0, ip, asr #10
     934:	00000bc8 	andeq	r0, r0, r8, asr #23
     938:	00000942 	andeq	r0, r0, r2, asr #18
     93c:	01500114 	cmpeq	r0, r4, lsl r1
     940:	80130044 	andshi	r0, r3, r4, asr #32
     944:	dd000085 	stcle	0, cr0, [r0, #-532]	; 0xfffffdec
     948:	5500000b 	strpl	r0, [r0, #-11]
     94c:	14000009 	strne	r0, [r0], #-9
     950:	44015001 	strmi	r5, [r1], #-1
     954:	85841200 	strhi	r1, [r4, #512]	; 0x200
     958:	0bac0000 	bleq	feb00960 <__bss_end__+0xfeaf61c8>
     95c:	1b000000 	blne	964 <_start-0x769c>
     960:	000000f5 	strdeq	r0, [r0], -r5
     964:	858ccd01 	strhi	ip, [ip, #3329]	; 0xd01
     968:	00400000 	subeq	r0, r0, r0
     96c:	9c010000 	stcls	0, cr0, [r1], {-0}
     970:	00000a07 	andeq	r0, r0, r7, lsl #20
     974:	0085bc11 	addeq	fp, r5, r1, lsl ip
     978:	00000800 	andeq	r0, r0, r0, lsl #16
     97c:	00098d00 	andeq	r8, r9, r0, lsl #26
     980:	6e691800 	cdpvs	8, 6, cr1, cr9, cr0, {0}
     984:	2cd80100 	ldfcse	f0, [r8], {0}
     988:	01000000 	mrseq	r0, (UNDEF: 0)
     98c:	85941200 	ldrhi	r1, [r4, #512]	; 0x200
     990:	0bee0000 	bleq	ffb80998 <__bss_end__+0xffb76200>
     994:	98120000 	ldmdals	r2, {}	; <UNPREDICTABLE>
     998:	f5000085 			; <UNDEFINED> instruction: 0xf5000085
     99c:	1300000b 	movwne	r0, #11
     9a0:	000085a0 	andeq	r8, r0, r0, lsr #11
     9a4:	00000bfc 	strdeq	r0, [r0], -ip
     9a8:	000009b2 			; <UNDEFINED> instruction: 0x000009b2
     9ac:	01500114 	cmpeq	r0, r4, lsl r1
     9b0:	a8130045 	ldmdage	r3, {r0, r2, r6}
     9b4:	0d000085 	stceq	0, cr0, [r0, #-532]	; 0xfffffdec
     9b8:	c500000c 	strgt	r0, [r0, #-12]
     9bc:	14000009 	strne	r0, [r0], #-9
     9c0:	44015001 	strmi	r5, [r1], #-1
     9c4:	85b01300 	ldrhi	r1, [r0, #768]!	; 0x300
     9c8:	0c1e0000 	ldceq	0, cr0, [lr], {-0}
     9cc:	09d80000 	ldmibeq	r8, {}^	; <UNPREDICTABLE>
     9d0:	01140000 	tsteq	r4, r0
     9d4:	00440150 	subeq	r0, r4, r0, asr r1
     9d8:	0085b813 	addeq	fp, r5, r3, lsl r8
     9dc:	000c2f00 	andeq	r2, ip, r0, lsl #30
     9e0:	0009eb00 	andeq	lr, r9, r0, lsl #22
     9e4:	50011400 	andpl	r1, r1, r0, lsl #8
     9e8:	12004401 	andne	r4, r0, #16777216	; 0x1000000
     9ec:	000085bc 			; <UNDEFINED> instruction: 0x000085bc
     9f0:	00000c40 	andeq	r0, r0, r0, asr #24
     9f4:	0085c812 	addeq	ip, r5, r2, lsl r8
     9f8:	000c4700 	andeq	r4, ip, r0, lsl #14
     9fc:	85cc1200 	strbhi	r1, [ip, #512]	; 0x200
     a00:	0b940000 	bleq	fe500a08 <__bss_end__+0xfe4f6270>
     a04:	22000000 	andcs	r0, r0, #0
     a08:	000001f0 	strdeq	r0, [r0], -r0	; <UNPREDICTABLE>
     a0c:	0a160f01 	beq	584618 <__bss_end__+0x579e80>
     a10:	00000000 	andeq	r0, r0, r0
     a14:	04052020 	streq	r2, [r5], #-32
     a18:	0000011d 	andeq	r0, r0, sp, lsl r1
     a1c:	0002c622 	andeq	ip, r2, r2, lsr #12
     a20:	16100100 	ldrne	r0, [r0], -r0, lsl #2
     a24:	1c00000a 	stcne	0, cr0, [r0], {10}
     a28:	22202000 	eorcs	r2, r0, #0
     a2c:	000003fb 	strdeq	r0, [r0], -fp
     a30:	0a161101 	beq	584e3c <__bss_end__+0x57a6a4>
     a34:	00280000 	eoreq	r0, r8, r0
     a38:	32222020 	eorcc	r2, r2, #32
     a3c:	01000001 	tsteq	r0, r1
     a40:	000a1613 	andeq	r1, sl, r3, lsl r6
     a44:	20000000 	andcs	r0, r0, r0
     a48:	013a2220 	teqeq	sl, r0, lsr #4
     a4c:	14010000 	strne	r0, [r1], #-0
     a50:	00000a16 	andeq	r0, r0, r6, lsl sl
     a54:	20200004 	eorcs	r0, r0, r4
     a58:	00002822 	andeq	r2, r0, r2, lsr #16
     a5c:	16150100 	ldrne	r0, [r5], -r0, lsl #2
     a60:	0800000a 	stmdaeq	r0, {r1, r3}
     a64:	22202000 	eorcs	r2, r0, #0
     a68:	00000142 	andeq	r0, r0, r2, asr #2
     a6c:	0a161601 	beq	586278 <__bss_end__+0x57bae0>
     a70:	000c0000 	andeq	r0, ip, r0
     a74:	4a222020 	bmi	888afc <__bss_end__+0x87e364>
     a78:	01000001 	tsteq	r0, r1
     a7c:	000a1617 	andeq	r1, sl, r7, lsl r6
     a80:	20001000 	andcs	r1, r0, r0
     a84:	01522220 	cmpeq	r2, r0, lsr #4
     a88:	18010000 	stmdane	r1, {}	; <UNPREDICTABLE>
     a8c:	00000a16 	andeq	r0, r0, r6, lsl sl
     a90:	20200014 	eorcs	r0, r0, r4, lsl r0
     a94:	00029d22 	andeq	r9, r2, r2, lsr #26
     a98:	a31a0100 	tstge	sl, #0, 2
     a9c:	1c00000a 	stcne	0, cr0, [r0], {10}
     aa0:	06202000 	strteq	r2, [r0], -r0
     aa4:	00000a16 	andeq	r0, r0, r6, lsl sl
     aa8:	0000b922 	andeq	fp, r0, r2, lsr #18
     aac:	161b0100 	ldrne	r0, [fp], -r0, lsl #2
     ab0:	2000000a 	andcs	r0, r0, sl
     ab4:	22202000 	eorcs	r2, r0, #0
     ab8:	00000030 	andeq	r0, r0, r0, lsr r0
     abc:	0ac61d01 	beq	ff187ec8 <__bss_end__+0xff17d730>
     ac0:	00280000 	eoreq	r0, r8, r0
     ac4:	16062020 	strne	r2, [r6], -r0, lsr #32
     ac8:	2200000a 	andcs	r0, r0, #10
     acc:	000001fb 	strdeq	r0, [r0], -fp
     ad0:	0a161e01 	beq	5882dc <__bss_end__+0x57db44>
     ad4:	002c0000 	eoreq	r0, ip, r0
     ad8:	de222020 	cdple	0, 2, cr2, cr2, cr0, {1}
     adc:	01000000 	mrseq	r0, (UNDEF: 0)
     ae0:	000ae920 	andeq	lr, sl, r0, lsr #18
     ae4:	20003400 	andcs	r3, r0, r0, lsl #8
     ae8:	0a160620 	beq	582370 <__bss_end__+0x577bd8>
     aec:	e5220000 	str	r0, [r2, #-0]!
     af0:	01000000 	mrseq	r0, (UNDEF: 0)
     af4:	000a1621 	andeq	r1, sl, r1, lsr #12
     af8:	20003800 	andcs	r3, r0, r0, lsl #16
     afc:	78721820 	ldmdavc	r2!, {r5, fp, ip}^
     b00:	08230100 	stmdaeq	r3!, {r8}
     b04:	1400000b 	strne	r0, [r0], #-11
     b08:	00002506 	andeq	r2, r0, r6, lsl #10
     b0c:	78741800 	ldmdavc	r4!, {fp, ip}^
     b10:	18240100 	stmdane	r4!, {r8}
     b14:	1500000b 	strne	r0, [r0, #-11]
     b18:	00002506 	andeq	r2, r0, r6, lsl #10
     b1c:	00981900 	addseq	r1, r8, r0, lsl #18
     b20:	b0010000 	andlt	r0, r1, r0
     b24:	0000011d 	andeq	r0, r0, sp, lsl r1
     b28:	a37c0305 	cmnge	ip, #335544320	; 0x14000000
     b2c:	48190000 	ldmdami	r9, {}	; <UNPREDICTABLE>
     b30:	01000002 	tsteq	r0, r2
     b34:	000b3fb1 			; <UNDEFINED> instruction: 0x000b3fb1
     b38:	84030500 	strhi	r0, [r3], #-1280	; 0x500
     b3c:	090000a3 	stmdbeq	r0, {r0, r1, r5, r7}
     b40:	00000025 	andeq	r0, r0, r5, lsr #32
     b44:	0003c123 	andeq	ip, r3, r3, lsr #2
     b48:	b0800300 	addlt	r0, r0, r0, lsl #6
     b4c:	05000000 	streq	r0, [r0, #-0]
     b50:	00a79403 	adceq	r9, r7, r3, lsl #8
     b54:	02d62300 	sbcseq	r2, r6, #0, 6
     b58:	25010000 	strcs	r0, [r1, #-0]
     b5c:	00000b3f 	andeq	r0, r0, pc, lsr fp
     b60:	a3800305 	orrge	r0, r0, #335544320	; 0x14000000
     b64:	4a230000 	bmi	8c0b6c <__bss_end__+0x8b63d4>
     b68:	01000003 	tsteq	r0, r3
     b6c:	000b3f26 	andeq	r3, fp, r6, lsr #30
     b70:	78030500 	stmdavc	r3, {r8, sl}
     b74:	240000a3 	strcs	r0, [r0], #-163	; 0xa3
     b78:	00000123 	andeq	r0, r0, r3, lsr #2
     b7c:	42251e04 	eormi	r1, r5, #4, 28	; 0x40
     b80:	04000004 	streq	r0, [r0], #-4
     b84:	00002529 	andeq	r2, r0, r9, lsr #10
     b88:	000b9400 	andeq	r9, fp, r0, lsl #8
     b8c:	00842600 	addeq	r2, r4, r0, lsl #12
     b90:	00270000 	eoreq	r0, r7, r0
     b94:	00020c24 	andeq	r0, r2, r4, lsr #24
     b98:	28660400 	stmdacs	r6!, {sl}^
     b9c:	000002ae 	andeq	r0, r0, lr, lsr #5
     ba0:	0bac5004 	bleq	feb14bb8 <__bss_end__+0xfeb0a420>
     ba4:	2c260000 	stccs	0, cr0, [r6], #-0
     ba8:	00000000 	andeq	r0, r0, r0
     bac:	00027d24 	andeq	r7, r2, r4, lsr #26
     bb0:	258a0400 	strcs	r0, [sl, #1024]	; 0x400
     bb4:	000003ef 	andeq	r0, r0, pc, ror #7
     bb8:	00253a02 	eoreq	r3, r5, r2, lsl #20
     bbc:	0bc80000 	bleq	ff200bc4 <__bss_end__+0xff1f642c>
     bc0:	2c260000 	stccs	0, cr0, [r6], #-0
     bc4:	00000000 	andeq	r0, r0, r0
     bc8:	00020225 	andeq	r0, r2, r5, lsr #4
     bcc:	25240200 	strcs	r0, [r4, #-512]!	; 0x200
     bd0:	dd000000 	stcle	0, cr0, [r0, #-0]
     bd4:	2600000b 	strcs	r0, [r0], -fp
     bd8:	0000002c 	andeq	r0, r0, ip, lsr #32
     bdc:	015a2800 	cmpeq	sl, r0, lsl #16
     be0:	50020000 	andpl	r0, r2, r0
     be4:	00000bee 	andeq	r0, r0, lr, ror #23
     be8:	00002c26 	andeq	r2, r0, r6, lsr #24
     bec:	58240000 	stmdapl	r4!, {}	; <UNPREDICTABLE>
     bf0:	04000000 	streq	r0, [r0], #-0
     bf4:	0256243a 	subseq	r2, r6, #973078528	; 0x3a000000
     bf8:	33050000 	movwcc	r0, #20480	; 0x5000
     bfc:	0003a428 	andeq	sl, r3, r8, lsr #8
     c00:	0d1d0200 	lfmeq	f0, 4, [sp, #-0]
     c04:	2600000c 	strcs	r0, [r0], -ip
     c08:	0000002c 	andeq	r0, r0, ip, lsr #32
     c0c:	033b2800 	teqeq	fp, #0, 16
     c10:	1c020000 	stcne	0, cr0, [r2], {-0}
     c14:	00000c1e 	andeq	r0, r0, lr, lsl ip
     c18:	00002c26 	andeq	r2, r0, r6, lsr #24
     c1c:	19280000 	stmdbne	r8!, {}	; <UNPREDICTABLE>
     c20:	02000002 	andeq	r0, r0, #2
     c24:	000c2f41 	andeq	r2, ip, r1, asr #30
     c28:	002c2600 	eoreq	r2, ip, r0, lsl #12
     c2c:	28000000 	stmdacs	r0, {}	; <UNPREDICTABLE>
     c30:	000003d9 	ldrdeq	r0, [r0], -r9
     c34:	0c404802 	mcrreq	8, 0, r4, r0, cr2
     c38:	2c260000 	stccs	0, cr0, [r6], #-0
     c3c:	00000000 	andeq	r0, r0, r0
     c40:	0003b424 	andeq	fp, r3, r4, lsr #8
     c44:	248e0400 	strcs	r0, [lr], #1024	; 0x400
     c48:	00000264 	andeq	r0, r0, r4, ror #4
     c4c:	91003105 	tstls	r0, r5, lsl #2
     c50:	04000001 	streq	r0, [r0], #-1
     c54:	00021800 	andeq	r1, r2, r0, lsl #16
     c58:	e4010400 	str	r0, [r1], #-1024	; 0x400
     c5c:	01000002 	tsteq	r0, r2
     c60:	00000431 	andeq	r0, r0, r1, lsr r4
     c64:	00000453 	andeq	r0, r0, r3, asr r4
     c68:	000085cc 	andeq	r8, r0, ip, asr #11
     c6c:	00000058 	andeq	r0, r0, r8, asr r0
     c70:	000002ff 	strdeq	r0, [r0], -pc	; <UNPREDICTABLE>
     c74:	00042202 	andeq	r2, r4, r2, lsl #4
     c78:	30280200 	eorcc	r0, r8, r0, lsl #4
     c7c:	03000000 	movweq	r0, #0
     c80:	00000449 	andeq	r0, r0, r9, asr #8
     c84:	47000304 	strmi	r0, [r0, -r4, lsl #6]
     c88:	04000000 	streq	r0, [r0], #-0
     c8c:	0000049c 	muleq	r0, ip, r4
     c90:	00000047 	andeq	r0, r0, r7, asr #32
     c94:	04050000 	streq	r0, [r5], #-0
     c98:	00044b02 	andeq	r4, r4, r2, lsl #22
     c9c:	25620200 	strbcs	r0, [r2, #-512]!	; 0x200
     ca0:	06000000 	streq	r0, [r0], -r0
     ca4:	6e690504 	cdpvs	5, 6, cr0, cr9, cr4, {0}
     ca8:	04070074 	streq	r0, [r7], #-116	; 0x74
     cac:	00006c07 	andeq	r6, r0, r7, lsl #24
     cb0:	06010700 	streq	r0, [r1], -r0, lsl #14
     cb4:	0000028b 	andeq	r0, r0, fp, lsl #5
     cb8:	a4050207 	strge	r0, [r5], #-519	; 0x207
     cbc:	07000002 	streq	r0, [r0, -r2]
     cc0:	008f0504 	addeq	r0, pc, r4, lsl #10
     cc4:	08070000 	stmdaeq	r7, {}	; <UNPREDICTABLE>
     cc8:	00008a05 	andeq	r8, r0, r5, lsl #20
     ccc:	08010700 	stmdaeq	r1, {r8, r9, sl}
     cd0:	00000289 	andeq	r0, r0, r9, lsl #5
     cd4:	78070207 	stmdavc	r7, {r0, r1, r2, r9}
     cd8:	07000001 	streq	r0, [r0, -r1]
     cdc:	00670704 	rsbeq	r0, r7, r4, lsl #14
     ce0:	08070000 	stmdaeq	r7, {}	; <UNPREDICTABLE>
     ce4:	00006207 	andeq	r6, r0, r7, lsl #4
     ce8:	07040700 	streq	r0, [r4, -r0, lsl #14]
     cec:	0000022e 	andeq	r0, r0, lr, lsr #4
     cf0:	00a70408 	adceq	r0, r7, r8, lsl #8
     cf4:	01070000 	mrseq	r0, (UNDEF: 7)
     cf8:	00029208 	andeq	r9, r2, r8, lsl #4
     cfc:	b4040800 	strlt	r0, [r4], #-2048	; 0x800
     d00:	09000000 	stmdbeq	r0, {}	; <UNPREDICTABLE>
     d04:	000000a7 	andeq	r0, r0, r7, lsr #1
     d08:	0004420a 	andeq	r4, r4, sl, lsl #4
     d0c:	54060100 	strpl	r0, [r6], #-256	; 0x100
     d10:	cc000000 	stcgt	0, cr0, [r0], {-0}
     d14:	58000085 	stmdapl	r0, {r0, r2, r7}
     d18:	01000000 	mrseq	r0, (UNDEF: 0)
     d1c:	0001439c 	muleq	r1, ip, r3
     d20:	6d660b00 	vstmdbvs	r6!, {d16-d15}
     d24:	06010074 			; <UNDEFINED> instruction: 0x06010074
     d28:	000000ae 	andeq	r0, r0, lr, lsr #1
     d2c:	0c709102 	ldfeqp	f1, [r0], #-8
     d30:	6675620d 	ldrbtvs	r6, [r5], -sp, lsl #4
     d34:	43080100 	movwmi	r0, #33024	; 0x8100
     d38:	05000001 	streq	r0, [r0, #-1]
     d3c:	00a38803 	adceq	r8, r3, r3, lsl #16
     d40:	04970e00 	ldreq	r0, [r7], #3584	; 0xe00
     d44:	09010000 	stmdbeq	r1, {}	; <UNPREDICTABLE>
     d48:	00000049 	andeq	r0, r0, r9, asr #32
     d4c:	0f5c9102 	svceq	0x005c9102
     d50:	01007a73 	tsteq	r0, r3, ror sl
     d54:	0000540c 	andeq	r5, r0, ip, lsl #8
     d58:	0005cf00 	andeq	ip, r5, r0, lsl #30
     d5c:	85f41000 	ldrbhi	r1, [r4, #0]!
     d60:	01740000 	cmneq	r4, r0
     d64:	01360000 	teqeq	r6, r0
     d68:	01110000 	tsteq	r1, r0
     d6c:	4c910253 	lfmmi	f0, 4, [r1], {83}	; 0x53
     d70:	03520111 	cmpeq	r2, #1073741828	; 0x40000004
     d74:	11064891 			; <UNDEFINED> instruction: 0x11064891
     d78:	0a035101 	beq	d5184 <__bss_end__+0xca9ec>
     d7c:	01110400 	tsteq	r1, r0, lsl #8
     d80:	00740250 	rsbseq	r0, r4, r0, asr r2
     d84:	86081200 	strhi	r1, [r8], -r0, lsl #4
     d88:	01110000 	tsteq	r1, r0
     d8c:	00740250 	rsbseq	r0, r4, r0, asr r2
     d90:	a7130000 	ldrge	r0, [r3, -r0]
     d94:	54000000 	strpl	r0, [r0], #-0
     d98:	14000001 	strne	r0, [r0], #-1
     d9c:	0000009a 	muleq	r0, sl, r0
     da0:	150003ff 	strne	r0, [r0, #-1023]	; 0x3ff
     da4:	00000054 	andeq	r0, r0, r4, asr r0
     da8:	00000163 	andeq	r0, r0, r3, ror #2
     dac:	0000ae16 	andeq	sl, r0, r6, lsl lr
     db0:	ef170000 	svc	0x00170000
     db4:	04000004 	streq	r0, [r0], #-4
     db8:	00016e22 	andeq	r6, r1, r2, lsr #28
     dbc:	54040800 	strpl	r0, [r4], #-2048	; 0x800
     dc0:	18000001 	stmdane	r0, {r0}
     dc4:	0000043f 	andeq	r0, r0, pc, lsr r4
     dc8:	00540205 	subseq	r0, r4, r5, lsl #4
     dcc:	a1160000 	tstge	r6, r0
     dd0:	16000000 	strne	r0, [r0], -r0
     dd4:	00000054 	andeq	r0, r0, r4, asr r0
     dd8:	0000ae16 	andeq	sl, r0, r6, lsl lr
     ddc:	00491600 	subeq	r1, r9, r0, lsl #12
     de0:	00000000 	andeq	r0, r0, r0
     de4:	00000113 	andeq	r0, r0, r3, lsl r1
     de8:	03490004 	movteq	r0, #36868	; 0x9004
     dec:	01040000 	mrseq	r0, (UNDEF: 4)
     df0:	000002e4 	andeq	r0, r0, r4, ror #5
     df4:	0004be01 	andeq	fp, r4, r1, lsl #28
     df8:	00045300 	andeq	r5, r4, r0, lsl #6
     dfc:	00862400 	addeq	r2, r6, r0, lsl #8
     e00:	00003c00 	andeq	r3, r0, r0, lsl #24
     e04:	00040500 	andeq	r0, r4, r0, lsl #10
     e08:	05040200 	streq	r0, [r4, #-512]	; 0x200
     e0c:	00746e69 	rsbseq	r6, r4, r9, ror #28
     e10:	6c070403 	cfstrsvs	mvf0, [r7], {3}
     e14:	03000000 	movweq	r0, #0
     e18:	028b0601 	addeq	r0, fp, #1048576	; 0x100000
     e1c:	02030000 	andeq	r0, r3, #0
     e20:	0002a405 	andeq	sl, r2, r5, lsl #8
     e24:	05040300 	streq	r0, [r4, #-768]	; 0x300
     e28:	0000008f 	andeq	r0, r0, pc, lsl #1
     e2c:	8a050803 	bhi	142e40 <__bss_end__+0x1386a8>
     e30:	03000000 	movweq	r0, #0
     e34:	02890801 	addeq	r0, r9, #65536	; 0x10000
     e38:	02030000 	andeq	r0, r3, #0
     e3c:	00017807 	andeq	r7, r1, r7, lsl #16
     e40:	07040300 	streq	r0, [r4, -r0, lsl #6]
     e44:	00000067 	andeq	r0, r0, r7, rrx
     e48:	62070803 	andvs	r0, r7, #196608	; 0x30000
     e4c:	03000000 	movweq	r0, #0
     e50:	022e0704 	eoreq	r0, lr, #4, 14	; 0x100000
     e54:	01030000 	mrseq	r0, (UNDEF: 3)
     e58:	00029208 	andeq	r9, r2, r8, lsl #4
     e5c:	04a10400 	strteq	r0, [r1], #1024	; 0x400
     e60:	03010000 	movweq	r0, #4096	; 0x1000
     e64:	00000025 	andeq	r0, r0, r5, lsr #32
     e68:	00008624 	andeq	r8, r0, r4, lsr #12
     e6c:	00000014 	andeq	r0, r0, r4, lsl r0
     e70:	00b09c01 	adcseq	r9, r0, r1, lsl #24
     e74:	63050000 	movwvs	r0, #20480	; 0x5000
     e78:	25030100 	strcs	r0, [r3, #-256]	; 0x100
     e7c:	f8000000 			; <UNDEFINED> instruction: 0xf8000000
     e80:	06000005 	streq	r0, [r0], -r5
     e84:	00008630 	andeq	r8, r0, r0, lsr r6
     e88:	00000109 	andeq	r0, r0, r9, lsl #2
     e8c:	02500107 	subseq	r0, r0, #-1073741823	; 0xc0000001
     e90:	00000074 	andeq	r0, r0, r4, ror r0
     e94:	00012308 	andeq	r2, r1, r8, lsl #6
     e98:	38080100 	stmdacc	r8, {r8}
     e9c:	18000086 	stmdane	r0, {r1, r2, r7}
     ea0:	01000000 	mrseq	r0, (UNDEF: 0)
     ea4:	04cd099c 	strbeq	r0, [sp], #2460	; 0x99c
     ea8:	0b010000 	bleq	40eb0 <__bss_end__+0x36718>
     eac:	00008650 	andeq	r8, r0, r0, asr r6
     eb0:	00000010 	andeq	r0, r0, r0, lsl r0
     eb4:	00e39c01 	rsceq	r9, r3, r1, lsl #24
     eb8:	660a0000 	strvs	r0, [sl], -r0
     ebc:	0b010070 	bleq	41084 <__bss_end__+0x368ec>
     ec0:	000000f2 	strdeq	r0, [r0], -r2
     ec4:	0b005001 	bleq	14ed0 <__bss_end__+0xa738>
     ec8:	00000025 	andeq	r0, r0, r5, lsr #32
     ecc:	000000f2 	strdeq	r0, [r0], -r2
     ed0:	0000250c 	andeq	r2, r0, ip, lsl #10
     ed4:	040d0000 	streq	r0, [sp], #-0
     ed8:	000000e3 	andeq	r0, r0, r3, ror #1
     edc:	0004b20e 	andeq	fp, r4, lr, lsl #4
     ee0:	f2060100 	vrhadd.s8	d0, d6, d0
     ee4:	05000000 	streq	r0, [r0, #-0]
     ee8:	009e8403 	addseq	r8, lr, r3, lsl #8
     eec:	063a0f00 	ldrteq	r0, [sl], -r0, lsl #30
     ef0:	3c020000 	stccc	0, cr0, [r2], {-0}
     ef4:	00002c0c 	andeq	r2, r0, ip, lsl #24
     ef8:	ee000000 	cdp	0, 0, cr0, cr0, cr0, {0}
     efc:	04000000 	streq	r0, [r0], #-0
     f00:	00043100 	andeq	r3, r4, r0, lsl #2
     f04:	e4010400 	str	r0, [r1], #-1024	; 0x400
     f08:	01000002 	tsteq	r0, r2
     f0c:	000004da 	ldrdeq	r0, [r0], -sl
     f10:	00000453 	andeq	r0, r0, r3, asr r4
     f14:	00008660 	andeq	r8, r0, r0, ror #12
     f18:	00000034 	andeq	r0, r0, r4, lsr r0
     f1c:	00000493 	muleq	r0, r3, r4
     f20:	69050402 	stmdbvs	r5, {r1, sl}
     f24:	0300746e 	movweq	r7, #1134	; 0x46e
     f28:	006c0704 	rsbeq	r0, ip, r4, lsl #14
     f2c:	01030000 	mrseq	r0, (UNDEF: 3)
     f30:	00028b06 	andeq	r8, r2, r6, lsl #22
     f34:	05020300 	streq	r0, [r2, #-768]	; 0x300
     f38:	000002a4 	andeq	r0, r0, r4, lsr #5
     f3c:	8f050403 	svchi	0x00050403
     f40:	03000000 	movweq	r0, #0
     f44:	008a0508 	addeq	r0, sl, r8, lsl #10
     f48:	01030000 	mrseq	r0, (UNDEF: 3)
     f4c:	00028908 	andeq	r8, r2, r8, lsl #18
     f50:	07020300 	streq	r0, [r2, -r0, lsl #6]
     f54:	00000178 	andeq	r0, r0, r8, ror r1
     f58:	67070403 	strvs	r0, [r7, -r3, lsl #8]
     f5c:	03000000 	movweq	r0, #0
     f60:	00620708 	rsbeq	r0, r2, r8, lsl #14
     f64:	04030000 	streq	r0, [r3], #-0
     f68:	00022e07 	andeq	r2, r2, r7, lsl #28
     f6c:	08010300 	stmdaeq	r1, {r8, r9}
     f70:	00000292 	muleq	r0, r2, r2
     f74:	007f0404 	rsbseq	r0, pc, r4, lsl #8
     f78:	72050000 	andvc	r0, r5, #0
     f7c:	06000000 	streq	r0, [r0], -r0
     f80:	000004e6 	andeq	r0, r0, r6, ror #9
     f84:	00250401 	eoreq	r0, r5, r1, lsl #8
     f88:	86600000 	strbthi	r0, [r0], -r0
     f8c:	00340000 	eorseq	r0, r4, r0
     f90:	9c010000 	stcls	0, cr0, [r1], {-0}
     f94:	000000ab 	andeq	r0, r0, fp, lsr #1
     f98:	01007007 	tsteq	r0, r7
     f9c:	00007904 	andeq	r7, r0, r4, lsl #18
     fa0:	00061600 	andeq	r1, r6, r0, lsl #12
     fa4:	25080000 	strcs	r0, [r8, #-0]
     fa8:	ba000000 	blt	fb0 <_start-0x7050>
     fac:	09000000 	stmdbeq	r0, {}	; <UNPREDICTABLE>
     fb0:	00000025 	andeq	r0, r0, r5, lsr #32
     fb4:	04b20a00 	ldrteq	r0, [r2], #2560	; 0xa00
     fb8:	1d020000 	stcne	0, cr0, [r2, #-0]
     fbc:	000000c5 	andeq	r0, r0, r5, asr #1
     fc0:	00ab0404 	adceq	r0, fp, r4, lsl #8
     fc4:	25080000 	strcs	r0, [r8, #-0]
     fc8:	da000000 	ble	fd0 <_start-0x7030>
     fcc:	09000000 	stmdbeq	r0, {}	; <UNPREDICTABLE>
     fd0:	00000079 	andeq	r0, r0, r9, ror r0
     fd4:	04ef0b00 	strbteq	r0, [pc], #2816	; fdc <_start-0x7024>
     fd8:	0c010000 	stceq	0, cr0, [r1], {-0}
     fdc:	000000eb 	andeq	r0, r0, fp, ror #1
     fe0:	9e880305 	cdpls	3, 8, cr0, cr8, cr5, {0}
     fe4:	04040000 	streq	r0, [r4], #-0
     fe8:	000000cb 	andeq	r0, r0, fp, asr #1
     fec:	0006a100 	andeq	sl, r6, r0, lsl #2
     ff0:	ca000400 	bgt	1ff8 <_start-0x6008>
     ff4:	04000004 	streq	r0, [r0], #-4
     ff8:	0002e401 	andeq	lr, r2, r1, lsl #8
     ffc:	05200100 	streq	r0, [r0, #-256]!	; 0x100
    1000:	04530000 	ldrbeq	r0, [r3], #-0
    1004:	86940000 	ldrhi	r0, [r4], r0
    1008:	05240000 	streq	r0, [r4, #-0]!
    100c:	052d0000 	streq	r0, [sp, #-0]!
    1010:	04020000 	streq	r0, [r2], #-0
    1014:	746e6905 	strbtvc	r6, [lr], #-2309	; 0x905
    1018:	07040300 	streq	r0, [r4, -r0, lsl #6]
    101c:	0000006c 	andeq	r0, r0, ip, rrx
    1020:	8b060103 	blhi	181434 <__bss_end__+0x176c9c>
    1024:	03000002 	movweq	r0, #2
    1028:	02a40502 	adceq	r0, r4, #8388608	; 0x800000
    102c:	04030000 	streq	r0, [r3], #-0
    1030:	00008f05 	andeq	r8, r0, r5, lsl #30
    1034:	05080300 	streq	r0, [r8, #-768]	; 0x300
    1038:	0000008a 	andeq	r0, r0, sl, lsl #1
    103c:	89080103 	stmdbhi	r8, {r0, r1, r8}
    1040:	03000002 	movweq	r0, #2
    1044:	01780702 	cmneq	r8, r2, lsl #14
    1048:	04030000 	streq	r0, [r3], #-0
    104c:	00006707 	andeq	r6, r0, r7, lsl #14
    1050:	07080300 	streq	r0, [r8, -r0, lsl #6]
    1054:	00000062 	andeq	r0, r0, r2, rrx
    1058:	2e070403 	cdpcs	4, 0, cr0, cr7, cr3, {0}
    105c:	04000002 	streq	r0, [r0], #-2
    1060:	7a040504 	bvc	102478 <__bss_end__+0xf7ce0>
    1064:	03000000 	movweq	r0, #0
    1068:	02920801 	addseq	r0, r2, #65536	; 0x10000
    106c:	04050000 	streq	r0, [r5], #-0
    1070:	00000087 	andeq	r0, r0, r7, lsl #1
    1074:	00007a06 	andeq	r7, r0, r6, lsl #20
    1078:	04220700 	strteq	r0, [r2], #-1792	; 0x700
    107c:	28020000 	stmdacs	r2, {}	; <UNPREDICTABLE>
    1080:	00000097 	muleq	r0, r7, r0
    1084:	00044908 	andeq	r4, r4, r8, lsl #18
    1088:	00040400 	andeq	r0, r4, r0, lsl #8
    108c:	000000ae 	andeq	r0, r0, lr, lsr #1
    1090:	00049c09 	andeq	r9, r4, r9, lsl #24
    1094:	00007200 	andeq	r7, r0, r0, lsl #4
    1098:	07000000 	streq	r0, [r0, -r0]
    109c:	0000044b 	andeq	r0, r0, fp, asr #8
    10a0:	008c6202 	addeq	r6, ip, r2, lsl #4
    10a4:	020a0000 	andeq	r0, sl, #0
    10a8:	01000005 	tsteq	r0, r5
    10ac:	00002527 	andeq	r2, r0, r7, lsr #10
    10b0:	00869400 	addeq	r9, r6, r0, lsl #8
    10b4:	00001400 	andeq	r1, r0, r0, lsl #8
    10b8:	e09c0100 	adds	r0, ip, r0, lsl #2
    10bc:	0b000000 	bleq	10c4 <_start-0x6f3c>
    10c0:	27010063 	strcs	r0, [r1, -r3, rrx]
    10c4:	00000025 	andeq	r0, r0, r5, lsr #32
    10c8:	00000634 	andeq	r0, r0, r4, lsr r6
    10cc:	61700c00 	cmnvs	r0, r0, lsl #24
    10d0:	2e010064 	cdpcs	0, 0, cr0, cr1, cr4, {3}
    10d4:	00000074 	andeq	r0, r0, r4, ror r0
    10d8:	000086a8 	andeq	r8, r0, r8, lsr #13
    10dc:	0000002c 	andeq	r0, r0, ip, lsr #32
    10e0:	01309c01 	teqeq	r0, r1, lsl #24
    10e4:	700b0000 	andvc	r0, fp, r0
    10e8:	742e0100 	strtvc	r0, [lr], #-256	; 0x100
    10ec:	62000000 	andvs	r0, r0, #0
    10f0:	0d000006 	stceq	0, cr0, [r0, #-24]	; 0xffffffe8
    10f4:	00000512 	andeq	r0, r0, r2, lsl r5
    10f8:	00742e01 	rsbseq	r2, r4, r1, lsl #28
    10fc:	068d0000 	streq	r0, [sp], r0
    1100:	400e0000 	andmi	r0, lr, r0
    1104:	01000005 	tsteq	r0, r5
    1108:	0000252e 	andeq	r2, r0, lr, lsr #10
    110c:	0f520100 	svceq	0x00520100
    1110:	006e656c 	rsbeq	r6, lr, ip, ror #10
    1114:	00252f01 	eoreq	r2, r5, r1, lsl #30
    1118:	51010000 	mrspl	r0, (UNDEF: 1)
    111c:	04fa0a00 	ldrbteq	r0, [sl], #2560	; 0xa00
    1120:	37010000 	strcc	r0, [r1, -r0]
    1124:	00000074 	andeq	r0, r0, r4, ror r0
    1128:	000086d4 	ldrdeq	r8, [r0], -r4
    112c:	00000040 	andeq	r0, r0, r0, asr #32
    1130:	019c9c01 	orrseq	r9, ip, r1, lsl #24
    1134:	640b0000 	strvs	r0, [fp], #-0
    1138:	01007473 	tsteq	r0, r3, ror r4
    113c:	00007437 	andeq	r7, r0, r7, lsr r4
    1140:	0006ae00 	andeq	sl, r6, r0, lsl #28
    1144:	006e0b00 	rsbeq	r0, lr, r0, lsl #22
    1148:	00253701 	eoreq	r3, r5, r1, lsl #14
    114c:	06e60000 	strbteq	r0, [r6], r0
    1150:	700b0000 	andvc	r0, fp, r0
    1154:	74370100 	ldrtvc	r0, [r7], #-256	; 0x100
    1158:	07000000 	streq	r0, [r0, -r0]
    115c:	0d000007 	stceq	0, cr0, [r0, #-28]	; 0xffffffe4
    1160:	00000626 	andeq	r0, r0, r6, lsr #12
    1164:	00743701 	rsbseq	r3, r4, r1, lsl #14
    1168:	073d0000 	ldreq	r0, [sp, -r0]!
    116c:	6c100000 	ldcvs	0, cr0, [r0], {-0}
    1170:	01006e65 	tsteq	r0, r5, ror #28
    1174:	00002539 	andeq	r2, r0, r9, lsr r5
    1178:	00075b00 	andeq	r5, r7, r0, lsl #22
    117c:	00730f00 	rsbseq	r0, r3, r0, lsl #30
    1180:	00743d01 	rsbseq	r3, r4, r1, lsl #26
    1184:	50010000 	andpl	r0, r1, r0
    1188:	054e0a00 	strbeq	r0, [lr, #-2560]	; 0xa00
    118c:	47010000 	strmi	r0, [r1, -r0]
    1190:	00000074 	andeq	r0, r0, r4, ror r0
    1194:	00008714 	andeq	r8, r0, r4, lsl r7
    1198:	000001a8 	andeq	r0, r0, r8, lsr #3
    119c:	02df9c01 	sbcseq	r9, pc, #256	; 0x100
    11a0:	120d0000 	andne	r0, sp, #0
    11a4:	01000005 	tsteq	r0, r5
    11a8:	00002c47 	andeq	r2, r0, r7, asr #24
    11ac:	00078200 	andeq	r8, r7, r0, lsl #4
    11b0:	73640b00 	cmnvc	r4, #0, 22
    11b4:	47010074 	smlsdxmi	r1, r4, r0, r0
    11b8:	00000074 	andeq	r0, r0, r4, ror r0
    11bc:	000007b0 			; <UNDEFINED> instruction: 0x000007b0
    11c0:	01006e0b 	tsteq	r0, fp, lsl #28
    11c4:	00002547 	andeq	r2, r0, r7, asr #10
    11c8:	00081e00 	andeq	r1, r8, r0, lsl #28
    11cc:	61760b00 	cmnvs	r6, r0, lsl #22
    11d0:	4701006c 	strmi	r0, [r1, -ip, rrx]
    11d4:	00000025 	andeq	r0, r0, r5, lsr #32
    11d8:	0000084a 	andeq	r0, r0, sl, asr #16
    11dc:	0005400d 	andeq	r4, r5, sp
    11e0:	25470100 	strbcs	r0, [r7, #-256]	; 0x100
    11e4:	c9000000 	stmdbgt	r0, {}	; <UNPREDICTABLE>
    11e8:	0e000008 	cdpeq	0, 0, cr0, cr0, cr8, {0}
    11ec:	00000517 	andeq	r0, r0, r7, lsl r5
    11f0:	00254701 	eoreq	r4, r5, r1, lsl #14
    11f4:	91020000 	mrsls	r0, (UNDEF: 2)
    11f8:	75620f04 	strbvc	r0, [r2, #-3844]!	; 0xf04
    11fc:	4c010066 	stcmi	0, cr0, [r1], {102}	; 0x66
    1200:	000002df 	ldrdeq	r0, [r0], -pc	; <UNPREDICTABLE>
    1204:	7fa89103 	svcvc	0x00a89103
    1208:	01007010 	tsteq	r0, r0, lsl r0
    120c:	0000744c 	andeq	r7, r0, ip, asr #8
    1210:	0008f300 	andeq	pc, r8, r0, lsl #6
    1214:	00751000 	rsbseq	r1, r5, r0
    1218:	002c4d01 	eoreq	r4, ip, r1, lsl #26
    121c:	09af0000 	stmibeq	pc!, {}	; <UNPREDICTABLE>
    1220:	6b110000 	blvs	441228 <__bss_end__+0x436a90>
    1224:	ff000001 			; <UNDEFINED> instruction: 0xff000001
    1228:	05000002 	streq	r0, [r0, #-2]
    122c:	009f7403 	addseq	r7, pc, r3, lsl #8
    1230:	87801200 	strhi	r1, [r0, r0, lsl #4]
    1234:	00740000 	rsbseq	r0, r4, r0
    1238:	02610000 	rsbeq	r0, r1, #0
    123c:	f4130000 			; <UNDEFINED> instruction: 0xf4130000
    1240:	01000004 	tsteq	r0, r4
    1244:	00002c52 	andeq	r2, r0, r2, asr ip
    1248:	000ab400 	andeq	fp, sl, r0, lsl #8
    124c:	54140000 	ldrpl	r0, [r4], #-0
    1250:	80000088 	andhi	r0, r0, r8, lsl #1
    1254:	15000006 	strne	r0, [r0, #-6]
    1258:	00008870 	andeq	r8, r0, r0, ror r8
    125c:	00000687 	andeq	r0, r0, r7, lsl #13
    1260:	000002a3 	andeq	r0, r0, r3, lsr #5
    1264:	02530116 	subseq	r0, r3, #-2147483643	; 0x80000005
    1268:	01167508 	tsteq	r6, r8, lsl #10
    126c:	74030552 	strvc	r0, [r3], #-1362	; 0x552
    1270:	1600009f 			; <UNDEFINED> instruction: 0x1600009f
    1274:	03055101 	movweq	r5, #20737	; 0x5101
    1278:	00009fac 	andeq	r9, r0, ip, lsr #31
    127c:	05500116 	ldrbeq	r0, [r0, #-278]	; 0x116
    1280:	009f9803 	addseq	r9, pc, r3, lsl #16
    1284:	7d021600 	stcvc	6, cr1, [r2, #-0]
    1288:	c0030500 	andgt	r0, r3, r0, lsl #10
    128c:	0000009f 	muleq	r0, pc, r0	; <UNPREDICTABLE>
    1290:	00887414 	addeq	r7, r8, r4, lsl r4
    1294:	00069d00 	andeq	r9, r6, r0, lsl #26
    1298:	88801500 	stmhi	r0, {r8, sl, ip}
    129c:	00e00000 	rsceq	r0, r0, r0
    12a0:	02c10000 	sbceq	r0, r1, #0
    12a4:	01160000 	tsteq	r6, r0
    12a8:	a0910351 	addsge	r0, r1, r1, asr r3
    12ac:	9417007f 	ldrls	r0, [r7], #-127	; 0x7f
    12b0:	30000088 	andcc	r0, r0, r8, lsl #1
    12b4:	16000001 	strne	r0, [r0], -r1
    12b8:	91035301 	tstls	r3, r1, lsl #6
    12bc:	01167fa0 	tsteq	r6, r0, lsr #31
    12c0:	00740251 	rsbseq	r0, r4, r1, asr r2
    12c4:	02500116 	subseq	r0, r0, #-2147483643	; 0x80000005
    12c8:	00000075 	andeq	r0, r0, r5, ror r0
    12cc:	00007a18 	andeq	r7, r0, r8, lsl sl
    12d0:	0002ef00 	andeq	lr, r2, r0, lsl #30
    12d4:	006b1900 	rsbeq	r1, fp, r0, lsl #18
    12d8:	003f0000 	eorseq	r0, pc, r0
    12dc:	00007a18 	andeq	r7, r0, r8, lsl sl
    12e0:	0002ff00 	andeq	pc, r2, r0, lsl #30
    12e4:	006b1900 	rsbeq	r1, fp, r0, lsl #18
    12e8:	00040000 	andeq	r0, r4, r0
    12ec:	0002ef06 	andeq	lr, r2, r6, lsl #30
    12f0:	05311a00 	ldreq	r1, [r1, #-2560]!	; 0xa00
    12f4:	1f010000 	svcne	0x00010000
    12f8:	000088bc 			; <UNDEFINED> instruction: 0x000088bc
    12fc:	00000068 	andeq	r0, r0, r8, rrx
    1300:	03929c01 	orrseq	r9, r2, #256	; 0x100
    1304:	460d0000 	strmi	r0, [sp], -r0
    1308:	01000005 	tsteq	r0, r5
    130c:	0003a11f 	andeq	sl, r3, pc, lsl r1
    1310:	000ae000 	andeq	lr, sl, r0
    1314:	050a0d00 	streq	r0, [sl, #-3328]	; 0xd00
    1318:	1f010000 	svcne	0x00010000
    131c:	000003b6 			; <UNDEFINED> instruction: 0x000003b6
    1320:	00000b0c 	andeq	r0, r0, ip, lsl #22
    1324:	00016b11 	andeq	r6, r1, r1, lsl fp
    1328:	0003cc00 	andeq	ip, r3, r0, lsl #24
    132c:	7c030500 	cfstr32vc	mvfx0, [r3], {-0}
    1330:	1400009f 	strne	r0, [r0], #-159	; 0x9f
    1334:	000088d0 	ldrdeq	r8, [r0], -r0
    1338:	00000680 	andeq	r0, r0, r0, lsl #13
    133c:	0088ec15 	addeq	lr, r8, r5, lsl ip
    1340:	00068700 	andeq	r8, r6, r0, lsl #14
    1344:	00038800 	andeq	r8, r3, r0, lsl #16
    1348:	53011600 	movwpl	r1, #5632	; 0x1600
    134c:	16200802 	strtne	r0, [r0], -r2, lsl #16
    1350:	03055201 	movweq	r5, #20993	; 0x5201
    1354:	00009f7c 	andeq	r9, r0, ip, ror pc
    1358:	05510116 	ldrbeq	r0, [r1, #-278]	; 0x116
    135c:	009fac03 	addseq	sl, pc, r3, lsl #24
    1360:	50011600 	andpl	r1, r1, r0, lsl #12
    1364:	9f980305 	svcls	0x00980305
    1368:	02160000 	andseq	r0, r6, #0
    136c:	0305007d 	movweq	r0, #20605	; 0x507d
    1370:	00009fe8 	andeq	r9, r0, r8, ror #31
    1374:	88f01400 	ldmhi	r0!, {sl, ip}^
    1378:	069d0000 	ldreq	r0, [sp], r0
    137c:	1b000000 	blne	1384 <_start-0x6c7c>
    1380:	00000025 	andeq	r0, r0, r5, lsr #32
    1384:	000003a1 	andeq	r0, r0, r1, lsr #7
    1388:	0000251c 	andeq	r2, r0, ip, lsl r5
    138c:	04050000 	streq	r0, [r5], #-0
    1390:	00000392 	muleq	r0, r2, r3
    1394:	0000251b 	andeq	r2, r0, fp, lsl r5
    1398:	0003b600 	andeq	fp, r3, r0, lsl #12
    139c:	00811c00 	addeq	r1, r1, r0, lsl #24
    13a0:	05000000 	streq	r0, [r0, #-0]
    13a4:	0003a704 	andeq	sl, r3, r4, lsl #14
    13a8:	007a1800 	rsbseq	r1, sl, r0, lsl #16
    13ac:	03cc0000 	biceq	r0, ip, #0
    13b0:	6b190000 	blvs	6413b8 <__bss_end__+0x636c20>
    13b4:	0e000000 	cdpeq	0, 0, cr0, cr0, cr0, {0}
    13b8:	03bc0600 			; <UNDEFINED> instruction: 0x03bc0600
    13bc:	3f1d0000 	svccc	0x001d0000
    13c0:	01000004 	tsteq	r0, r4
    13c4:	0000257d 	andeq	r2, r0, sp, ror r5
    13c8:	00892400 	addeq	r2, r9, r0, lsl #8
    13cc:	00029400 	andeq	r9, r2, r0, lsl #8
    13d0:	459c0100 	ldrmi	r0, [ip, #256]	; 0x100
    13d4:	0b000006 	bleq	13f4 <_start-0x6c0c>
    13d8:	00667562 	rsbeq	r7, r6, r2, ror #10
    13dc:	00747d01 	rsbseq	r7, r4, r1, lsl #26
    13e0:	0b380000 	bleq	e013e8 <__bss_end__+0xdf6c50>
    13e4:	6e0b0000 	cdpvs	0, 0, cr0, cr11, cr0, {0}
    13e8:	257d0100 	ldrbcs	r0, [sp, #-256]!	; 0x100
    13ec:	64000000 	strvs	r0, [r0], #-0
    13f0:	0b00000b 	bleq	1424 <_start-0x6bdc>
    13f4:	00746d66 	rsbseq	r6, r4, r6, ror #26
    13f8:	00817d01 	addeq	r7, r1, r1, lsl #26
    13fc:	0b920000 	bleq	fe481404 <__bss_end__+0xfe476c6c>
    1400:	970d0000 	strls	r0, [sp, -r0]
    1404:	01000004 	tsteq	r0, r4
    1408:	0000ae7d 	andeq	sl, r0, sp, ror lr
    140c:	000bc600 	andeq	ip, fp, r0, lsl #12
    1410:	00701000 	rsbseq	r1, r0, r0
    1414:	00747e01 	rsbseq	r7, r4, r1, lsl #28
    1418:	0bd90000 	bleq	ff641420 <__bss_end__+0xff636c88>
    141c:	65100000 	ldrvs	r0, [r0, #-0]
    1420:	747e0100 	ldrbtvc	r0, [lr], #-256	; 0x100
    1424:	57000000 	strpl	r0, [r0, -r0]
    1428:	1100000c 	tstne	r0, ip
    142c:	0000016b 	andeq	r0, r0, fp, ror #2
    1430:	00000655 	andeq	r0, r0, r5, asr r6
    1434:	9f8c0305 	svcls	0x008c0305
    1438:	001e0000 	andseq	r0, lr, r0
    143c:	10000000 	andne	r0, r0, r0
    1440:	8b010073 	blhi	41614 <__bss_end__+0x36e7c>
    1444:	00000074 	andeq	r0, r0, r4, ror r0
    1448:	00000c7e 	andeq	r0, r0, lr, ror ip
    144c:	6d756e0f 	ldclvs	14, cr6, [r5, #-60]!	; 0xffffffc4
    1450:	5a8b0100 	bpl	fe2c1858 <__bss_end__+0xfe2b70c0>
    1454:	03000006 	movweq	r0, #6
    1458:	137ed891 	cmnne	lr, #9502720	; 0x910000
    145c:	00000540 	andeq	r0, r0, r0, asr #10
    1460:	002c8c01 	eoreq	r8, ip, r1, lsl #24
    1464:	0cd30000 	ldcleq	0, cr0, [r3], {0}
    1468:	a8150000 	ldmdage	r5, {}	; <UNPREDICTABLE>
    146c:	b9000089 	stmdblt	r0, {r0, r3, r7}
    1470:	91000000 	mrsls	r0, (UNDEF: 0)
    1474:	16000004 	strne	r0, [r0], -r4
    1478:	75025001 	strvc	r5, [r2, #-1]
    147c:	bc140000 	ldclt	0, cr0, [r4], {-0}
    1480:	80000089 	andhi	r0, r0, r9, lsl #1
    1484:	15000006 	strne	r0, [r0, #-6]
    1488:	000089d8 	ldrdeq	r8, [r0], -r8	; <UNPREDICTABLE>
    148c:	00000687 	andeq	r0, r0, r7, lsl #13
    1490:	000004d3 	ldrdeq	r0, [r0], -r3
    1494:	02530116 	subseq	r0, r3, #-2147483643	; 0x80000005
    1498:	01169208 	tsteq	r6, r8, lsl #4
    149c:	8c030552 	cfstr32hi	mvfx0, [r3], {82}	; 0x52
    14a0:	1600009f 			; <UNDEFINED> instruction: 0x1600009f
    14a4:	03055101 	movweq	r5, #20737	; 0x5101
    14a8:	00009fac 	andeq	r9, r0, ip, lsr #31
    14ac:	05500116 	ldrbeq	r0, [r0, #-278]	; 0x116
    14b0:	009f9803 	addseq	r9, pc, r3, lsl #16
    14b4:	7d021600 	stcvc	6, cr1, [r2, #-0]
    14b8:	f0030500 			; <UNDEFINED> instruction: 0xf0030500
    14bc:	0000009f 	muleq	r0, pc, r0	; <UNPREDICTABLE>
    14c0:	0089dc14 	addeq	sp, r9, r4, lsl ip
    14c4:	00069d00 	andeq	r9, r6, r0, lsl #26
    14c8:	8a4c1400 	bhi	13064d0 <__bss_end__+0x12fbd38>
    14cc:	06800000 	streq	r0, [r0], r0
    14d0:	60150000 	andsvs	r0, r5, r0
    14d4:	8700008a 	strhi	r0, [r0, -sl, lsl #1]
    14d8:	14000006 	strne	r0, [r0], #-6
    14dc:	16000005 	strne	r0, [r0], -r5
    14e0:	08025301 	stmdaeq	r2, {r0, r8, r9, ip, lr}
    14e4:	52011698 	andpl	r1, r1, #152, 12	; 0x9800000
    14e8:	9f8c0305 	svcls	0x008c0305
    14ec:	01160000 	tsteq	r6, r0
    14f0:	ac030551 	cfstr32ge	mvfx0, [r3], {81}	; 0x51
    14f4:	1600009f 			; <UNDEFINED> instruction: 0x1600009f
    14f8:	03055001 	movweq	r5, #20481	; 0x5001
    14fc:	00009ffc 	strdeq	r9, [r0], -ip
    1500:	8a641400 	bhi	1906508 <__bss_end__+0x18fbd70>
    1504:	069d0000 	ldreq	r0, [sp], r0
    1508:	88150000 	ldmdahi	r5, {}	; <UNPREDICTABLE>
    150c:	9c00008a 	stcls	0, cr0, [r0], {138}	; 0x8a
    1510:	4a000001 	bmi	151c <_start-0x6ae4>
    1514:	16000005 	strne	r0, [r0], -r5
    1518:	08025201 	stmdaeq	r2, {r0, r9, ip, lr}
    151c:	51011680 	smlabbpl	r1, r0, r6, r1
    1520:	7ed09103 	atnvcs	f1, f3
    1524:	01500116 	cmpeq	r0, r6, lsl r1
    1528:	7d02163a 	stcvc	6, cr1, [r2, #-232]	; 0xffffff18
    152c:	16310104 	ldrtne	r0, [r1], -r4, lsl #2
    1530:	02007d02 	andeq	r7, r0, #2, 26	; 0x80
    1534:	15000077 	strne	r0, [r0, #-119]	; 0x77
    1538:	00008aac 	andeq	r8, r0, ip, lsr #21
    153c:	0000019c 	muleq	r0, ip, r1
    1540:	00000578 	andeq	r0, r0, r8, ror r5
    1544:	02520116 	subseq	r0, r2, #-2147483643	; 0x80000005
    1548:	01168008 	tsteq	r6, r8
    154c:	d0910351 	addsle	r0, r1, r1, asr r3
    1550:	5001167e 	andpl	r1, r1, lr, ror r6
    1554:	02163a01 	andseq	r3, r6, #4096	; 0x1000
    1558:	7b02047d 	blvc	82754 <__bss_end__+0x77fbc>
    155c:	7d021600 	stcvc	6, cr1, [r2, #-0]
    1560:	00770200 	rsbseq	r0, r7, r0, lsl #4
    1564:	8ad01500 	bhi	ff40696c <__bss_end__+0xff3fc1d4>
    1568:	019c0000 	orrseq	r0, ip, r0
    156c:	05a60000 	streq	r0, [r6, #0]!
    1570:	01160000 	tsteq	r6, r0
    1574:	80080252 	andhi	r0, r8, r2, asr r2
    1578:	03510116 	cmpeq	r1, #-2147483643	; 0x80000005
    157c:	167ed091 			; <UNDEFINED> instruction: 0x167ed091
    1580:	40015001 	andmi	r5, r1, r1
    1584:	047d0216 	ldrbteq	r0, [sp], #-534	; 0x216
    1588:	16007b02 	strne	r7, [r0], -r2, lsl #22
    158c:	02007d02 	andeq	r7, r0, #2, 26	; 0x80
    1590:	15000077 	strne	r0, [r0, #-119]	; 0x77
    1594:	00008af4 	strdeq	r8, [r0], -r4
    1598:	0000019c 	muleq	r0, ip, r1
    159c:	000005d4 	ldrdeq	r0, [r0], -r4
    15a0:	02520116 	subseq	r0, r2, #-2147483643	; 0x80000005
    15a4:	01168008 	tsteq	r6, r8
    15a8:	d0910351 	addsle	r0, r1, r1, asr r3
    15ac:	5001167e 	andpl	r1, r1, lr, ror r6
    15b0:	02163201 	andseq	r3, r6, #268435456	; 0x10000000
    15b4:	7b02047d 	blvc	827b0 <__bss_end__+0x78018>
    15b8:	7d021600 	stcvc	6, cr1, [r2, #-0]
    15bc:	00770200 	rsbseq	r0, r7, r0, lsl #4
    15c0:	8b241500 	blhi	9069c8 <__bss_end__+0x8fc230>
    15c4:	019c0000 	orrseq	r0, ip, r0
    15c8:	06020000 	streq	r0, [r2], -r0
    15cc:	01160000 	tsteq	r6, r0
    15d0:	80080252 	andhi	r0, r8, r2, asr r2
    15d4:	03510116 	cmpeq	r1, #-2147483643	; 0x80000005
    15d8:	167ed091 			; <UNDEFINED> instruction: 0x167ed091
    15dc:	38015001 	stmdacc	r1, {r0, ip, lr}
    15e0:	047d0216 	ldrbteq	r0, [sp], #-534	; 0x216
    15e4:	16007b02 	strne	r7, [r0], -r2, lsl #22
    15e8:	02007d02 	andeq	r7, r0, #2, 26	; 0x80
    15ec:	14000077 	strne	r0, [r0], #-119	; 0x77
    15f0:	00008b2c 	andeq	r8, r0, ip, lsr #22
    15f4:	00000680 	andeq	r0, r0, r0, lsl #13
    15f8:	008b4815 	addeq	r4, fp, r5, lsl r8
    15fc:	00068700 	andeq	r8, r6, r0, lsl #14
    1600:	00063a00 	andeq	r3, r6, r0, lsl #20
    1604:	53011600 	movwpl	r1, #5632	; 0x1600
    1608:	16b90802 	ldrtne	r0, [r9], r2, lsl #16
    160c:	03055201 	movweq	r5, #20993	; 0x5201
    1610:	00009f8c 	andeq	r9, r0, ip, lsl #31
    1614:	05510116 	ldrbeq	r0, [r1, #-278]	; 0x116
    1618:	009fac03 	addseq	sl, pc, r3, lsl #24
    161c:	50011600 	andpl	r1, r1, r0, lsl #12
    1620:	a0240305 	eorge	r0, r4, r5, lsl #6
    1624:	14000000 	strne	r0, [r0], #-0
    1628:	00008b4c 	andeq	r8, r0, ip, asr #22
    162c:	0000069d 	muleq	r0, sp, r6
    1630:	7a180000 	bvc	601638 <__bss_end__+0x5f6ea0>
    1634:	55000000 	strpl	r0, [r0, #-0]
    1638:	19000006 	stmdbne	r0, {r1, r2}
    163c:	0000006b 	andeq	r0, r0, fp, rrx
    1640:	45060009 	strmi	r0, [r6, #-9]
    1644:	18000006 	stmdane	r0, {r1, r2}
    1648:	0000007a 	andeq	r0, r0, sl, ror r0
    164c:	0000066a 	andeq	r0, r0, sl, ror #12
    1650:	00006b19 	andeq	r6, r0, r9, lsl fp
    1654:	1f007f00 	svcne	0x00007f00
    1658:	000004b2 			; <UNDEFINED> instruction: 0x000004b2
    165c:	03a11d03 			; <UNDEFINED> instruction: 0x03a11d03
    1660:	ef1f0000 	svc	0x001f0000
    1664:	03000004 	movweq	r0, #4
    1668:	0003b622 	andeq	fp, r3, r2, lsr #12
    166c:	01232000 	teqeq	r3, r0
    1670:	1e030000 	cdpne	0, 0, cr0, cr3, cr0, {0}
    1674:	00044221 	andeq	r4, r4, r1, lsr #4
    1678:	25290300 	strcs	r0, [r9, #-768]!	; 0x300
    167c:	9d000000 	stcls	0, cr0, [r0, #-0]
    1680:	1c000006 	stcne	0, cr0, [r0], {6}
    1684:	00000081 	andeq	r0, r0, r1, lsl #1
    1688:	0c200022 	stceq	0, cr0, [r0], #-136	; 0xffffff78
    168c:	03000002 	movweq	r0, #2
    1690:	00b80066 	adcseq	r0, r8, r6, rrx
    1694:	00040000 	andeq	r0, r4, r0
    1698:	000006a6 	andeq	r0, r0, r6, lsr #13
    169c:	02e40104 	rsceq	r0, r4, #4, 2
    16a0:	61010000 	mrsvs	r0, (UNDEF: 1)
    16a4:	53000005 	movwpl	r0, #5
    16a8:	b8000004 	stmdalt	r0, {r2}
    16ac:	2000008b 	andcs	r0, r0, fp, lsl #1
    16b0:	13000000 	movwne	r0, #0
    16b4:	02000007 	andeq	r0, r0, #7
    16b8:	6e690504 	cdpvs	5, 6, cr0, cr9, cr4, {0}
    16bc:	04030074 	streq	r0, [r3], #-116	; 0x74
    16c0:	00006c07 	andeq	r6, r0, r7, lsl #24
    16c4:	06010300 	streq	r0, [r1], -r0, lsl #6
    16c8:	0000028b 	andeq	r0, r0, fp, lsl #5
    16cc:	a4050203 	strge	r0, [r5], #-515	; 0x203
    16d0:	03000002 	movweq	r0, #2
    16d4:	008f0504 	addeq	r0, pc, r4, lsl #10
    16d8:	08030000 	stmdaeq	r3, {}	; <UNPREDICTABLE>
    16dc:	00008a05 	andeq	r8, r0, r5, lsl #20
    16e0:	08010300 	stmdaeq	r1, {r8, r9}
    16e4:	00000289 	andeq	r0, r0, r9, lsl #5
    16e8:	78070203 	stmdavc	r7, {r0, r1, r9}
    16ec:	03000001 	movweq	r0, #1
    16f0:	00670704 	rsbeq	r0, r7, r4, lsl #14
    16f4:	08030000 	stmdaeq	r3, {}	; <UNPREDICTABLE>
    16f8:	00006207 	andeq	r6, r0, r7, lsl #4
    16fc:	07040300 	streq	r0, [r4, -r0, lsl #6]
    1700:	0000022e 	andeq	r0, r0, lr, lsr #4
    1704:	92080103 	andls	r0, r8, #-1073741824	; 0xc0000000
    1708:	04000002 	streq	r0, [r0], #-2
    170c:	000003b4 			; <UNDEFINED> instruction: 0x000003b4
    1710:	8bb80301 	blhi	fee0231c <__bss_end__+0xfedf7b84>
    1714:	00100000 	andseq	r0, r0, r0
    1718:	9c010000 	stcls	0, cr0, [r1], {-0}
    171c:	0000009c 	muleq	r0, ip, r0
    1720:	01007205 	tsteq	r0, r5, lsl #4
    1724:	00002c04 	andeq	r2, r0, r4, lsl #24
    1728:	000cfd00 	andeq	pc, ip, r0, lsl #26
    172c:	53060000 	movwpl	r0, #24576	; 0x6000
    1730:	01000005 	tsteq	r0, r5
    1734:	008bc80c 	addeq	ip, fp, ip, lsl #16
    1738:	00001000 	andeq	r1, r0, r0
    173c:	059c0100 	ldreq	r0, [ip, #256]	; 0x100
    1740:	0d010072 	stceq	0, cr0, [r1, #-456]	; 0xfffffe38
    1744:	0000002c 	andeq	r0, r0, ip, lsr #32
    1748:	00000d21 	andeq	r0, r0, r1, lsr #26
    174c:	00ff0000 	rscseq	r0, pc, r0
    1750:	00040000 	andeq	r0, r4, r0
    1754:	00000711 	andeq	r0, r0, r1, lsl r7
    1758:	02e40104 	rsceq	r0, r4, #4, 2
    175c:	7f010000 	svcvc	0x00010000
    1760:	53000005 	movwpl	r0, #5
    1764:	d8000004 	stmdale	r0, {r2}
    1768:	2800008b 	stmdacs	r0, {r0, r1, r3, r7}
    176c:	5a000000 	bpl	1774 <_start-0x688c>
    1770:	02000007 	andeq	r0, r0, #7
    1774:	6e690504 	cdpvs	5, 6, cr0, cr9, cr4, {0}
    1778:	04030074 	streq	r0, [r3], #-116	; 0x74
    177c:	00006c07 	andeq	r6, r0, r7, lsl #24
    1780:	06010300 	streq	r0, [r1], -r0, lsl #6
    1784:	0000028b 	andeq	r0, r0, fp, lsl #5
    1788:	a4050203 	strge	r0, [r5], #-515	; 0x203
    178c:	03000002 	movweq	r0, #2
    1790:	008f0504 	addeq	r0, pc, r4, lsl #10
    1794:	08030000 	stmdaeq	r3, {}	; <UNPREDICTABLE>
    1798:	00008a05 	andeq	r8, r0, r5, lsl #20
    179c:	08010300 	stmdaeq	r1, {r8, r9}
    17a0:	00000289 	andeq	r0, r0, r9, lsl #5
    17a4:	78070203 	stmdavc	r7, {r0, r1, r9}
    17a8:	03000001 	movweq	r0, #1
    17ac:	00670704 	rsbeq	r0, r7, r4, lsl #14
    17b0:	08030000 	stmdaeq	r3, {}	; <UNPREDICTABLE>
    17b4:	00006207 	andeq	r6, r0, r7, lsl #4
    17b8:	07040300 	streq	r0, [r4, -r0, lsl #6]
    17bc:	0000022e 	andeq	r0, r0, lr, lsr #4
    17c0:	92080103 	andls	r0, r8, #-1073741824	; 0xc0000000
    17c4:	04000002 	streq	r0, [r0], #-2
    17c8:	00007f04 	andeq	r7, r0, r4, lsl #30
    17cc:	00720500 	rsbseq	r0, r2, r0, lsl #10
    17d0:	0c060000 	stceq	0, cr0, [r6], {-0}
    17d4:	01000002 	tsteq	r0, r2
    17d8:	008bd804 	addeq	sp, fp, r4, lsl #16
    17dc:	00002800 	andeq	r2, r0, r0, lsl #16
    17e0:	ca9c0100 	bgt	fe701be8 <__bss_end__+0xfe6f7450>
    17e4:	07000000 	streq	r0, [r0, -r0]
    17e8:	00008bec 	andeq	r8, r0, ip, ror #23
    17ec:	000000ac 	andeq	r0, r0, ip, lsr #1
    17f0:	05500108 	ldrbeq	r0, [r0, #-264]	; 0x108
    17f4:	00a05c03 	adceq	r5, r0, r3, lsl #24
    17f8:	f4090000 	vst4.8	{d0-d3}, [r9], r0
    17fc:	ea00008b 	b	1a30 <_start-0x65d0>
    1800:	c0000000 	andgt	r0, r0, r0
    1804:	08000000 	stmdaeq	r0, {}	; <UNPREDICTABLE>
    1808:	08025001 	stmdaeq	r2, {r0, ip, lr}
    180c:	f80a0064 			; <UNDEFINED> instruction: 0xf80a0064
    1810:	fb00008b 	blx	1a46 <_start-0x65ba>
    1814:	00000000 	andeq	r0, r0, r0
    1818:	0000250b 	andeq	r2, r0, fp, lsl #10
    181c:	0000d900 	andeq	sp, r0, r0, lsl #18
    1820:	00790c00 	rsbseq	r0, r9, r0, lsl #24
    1824:	0d000000 	stceq	0, cr0, [r0, #-0]
    1828:	000004ef 	andeq	r0, r0, pc, ror #9
    182c:	00e42202 	rsceq	r2, r4, r2, lsl #4
    1830:	04040000 	streq	r0, [r4], #-0
    1834:	000000ca 	andeq	r0, r0, sl, asr #1
    1838:	0002ae0e 	andeq	sl, r2, lr, lsl #28
    183c:	fb500200 	blx	1402046 <__bss_end__+0x13f78ae>
    1840:	0c000000 	stceq	0, cr0, [r0], {-0}
    1844:	0000002c 	andeq	r0, r0, ip, lsr #32
    1848:	05740f00 	ldrbeq	r0, [r4, #-3840]!	; 0xf00
    184c:	63020000 	movwvs	r0, #8192	; 0x2000
    1850:	0002dd00 	andeq	sp, r2, r0, lsl #26
    1854:	db000400 	blle	285c <_start-0x57a4>
    1858:	04000007 	streq	r0, [r0], #-7
    185c:	0002e401 	andeq	lr, r2, r1, lsl #8
    1860:	06730100 	ldrbteq	r0, [r3], -r0, lsl #2
    1864:	04530000 	ldrbeq	r0, [r3], #-0
    1868:	8c000000 	stchi	0, cr0, [r0], {-0}
    186c:	00b00000 	adcseq	r0, r0, r0
    1870:	07f10000 	ldrbeq	r0, [r1, r0]!
    1874:	04020000 	streq	r0, [r2], #-0
    1878:	746e6905 	strbtvc	r6, [lr], #-2309	; 0x905
    187c:	07040300 	streq	r0, [r4, -r0, lsl #6]
    1880:	0000006c 	andeq	r0, r0, ip, rrx
    1884:	8b060103 	blhi	181c98 <__bss_end__+0x177500>
    1888:	03000002 	movweq	r0, #2
    188c:	02a40502 	adceq	r0, r4, #8388608	; 0x800000
    1890:	04030000 	streq	r0, [r3], #-0
    1894:	00008f05 	andeq	r8, r0, r5, lsl #30
    1898:	05080300 	streq	r0, [r8, #-768]	; 0x300
    189c:	0000008a 	andeq	r0, r0, sl, lsl #1
    18a0:	0003d104 	andeq	sp, r3, r4, lsl #2
    18a4:	5a2e0200 	bpl	b820ac <__bss_end__+0xb77914>
    18a8:	03000000 	movweq	r0, #0
    18ac:	02890801 	addeq	r0, r9, #65536	; 0x10000
    18b0:	02030000 	andeq	r0, r3, #0
    18b4:	00017807 	andeq	r7, r1, r7, lsl #16
    18b8:	06930400 	ldreq	r0, [r3], r0, lsl #8
    18bc:	34020000 	strcc	r0, [r2], #-0
    18c0:	00000073 	andeq	r0, r0, r3, ror r0
    18c4:	67070403 	strvs	r0, [r7, -r3, lsl #8]
    18c8:	03000000 	movweq	r0, #0
    18cc:	00620708 	rsbeq	r0, r2, r8, lsl #14
    18d0:	04030000 	streq	r0, [r3], #-0
    18d4:	00022e07 	andeq	r2, r2, r7, lsl #28
    18d8:	08010300 	stmdaeq	r1, {r8, r9}
    18dc:	00000292 	muleq	r0, r2, r2
    18e0:	00950405 	addseq	r0, r5, r5, lsl #8
    18e4:	88060000 	stmdahi	r6, {}	; <UNPREDICTABLE>
    18e8:	07000000 	streq	r0, [r0, -r0]
    18ec:	d10e030c 	tstle	lr, ip, lsl #6
    18f0:	08000000 	stmdaeq	r0, {}	; <UNPREDICTABLE>
    18f4:	03007874 	movweq	r7, #2164	; 0x874
    18f8:	00004f0f 	andeq	r4, r0, pc, lsl #30
    18fc:	72080000 	andvc	r0, r8, #0
    1900:	0f030078 	svceq	0x00030078
    1904:	0000004f 	andeq	r0, r0, pc, asr #32
    1908:	06120901 	ldreq	r0, [r2], -r1, lsl #18
    190c:	10030000 	andne	r0, r3, r0
    1910:	00000068 	andeq	r0, r0, r8, rrx
    1914:	05c30904 	strbeq	r0, [r3, #2308]	; 0x904
    1918:	11030000 	mrsne	r0, (UNDEF: 3)
    191c:	00000068 	andeq	r0, r0, r8, rrx
    1920:	fb040008 	blx	10194a <__bss_end__+0xf71b2>
    1924:	03000005 	movweq	r0, #5
    1928:	00009a12 	andeq	r9, r0, r2, lsl sl
    192c:	04010a00 	streq	r0, [r1], #-2560	; 0xa00
    1930:	0000f710 	andeq	pc, r0, r0, lsl r7	; <UNPREDICTABLE>
    1934:	06170b00 	ldreq	r0, [r7], -r0, lsl #22
    1938:	0b010000 	bleq	41940 <__bss_end__+0x371a8>
    193c:	00000605 	andeq	r0, r0, r5, lsl #12
    1940:	05ed0b02 	strbeq	r0, [sp, #2818]!	; 0xb02
    1944:	00030000 	andeq	r0, r3, r0
    1948:	00062c04 	andeq	r2, r6, r4, lsl #24
    194c:	dc100400 	cfldrsle	mvf0, [r0], {-0}
    1950:	07000000 	streq	r0, [r0, -r0]
    1954:	2f140414 	svccs	0x00140414
    1958:	09000001 	stmdbeq	r0, {r0}
    195c:	0000069c 	muleq	r0, ip, r6
    1960:	002c1504 	eoreq	r1, ip, r4, lsl #10
    1964:	09000000 	stmdbeq	r0, {}	; <UNPREDICTABLE>
    1968:	00000687 	andeq	r0, r0, r7, lsl #13
    196c:	00f71804 	rscseq	r1, r7, r4, lsl #16
    1970:	09040000 	stmdbeq	r4, {}	; <UNPREDICTABLE>
    1974:	00000652 	andeq	r0, r0, r2, asr r6
    1978:	00d11b04 	sbcseq	r1, r1, r4, lsl #22
    197c:	00080000 	andeq	r0, r8, r0
    1980:	00064404 	andeq	r4, r6, r4, lsl #8
    1984:	02200400 	eoreq	r0, r0, #0, 8
    1988:	0c000001 	stceq	0, cr0, [r0], {1}
    198c:	00000599 	muleq	r0, r9, r5
    1990:	00250601 	eoreq	r0, r5, r1, lsl #12
    1994:	8c000000 	stchi	0, cr0, [r0], {-0}
    1998:	00200000 	eoreq	r0, r0, r0
    199c:	9c010000 	stcls	0, cr0, [r1], {-0}
    19a0:	0000017a 	andeq	r0, r0, sl, ror r1
    19a4:	0100630d 	tsteq	r0, sp, lsl #6
    19a8:	00002506 	andeq	r2, r0, r6, lsl #10
    19ac:	000d4500 	andeq	r4, sp, r0, lsl #10
    19b0:	8c140e00 	ldchi	14, cr0, [r4], {-0}
    19b4:	027a0000 	rsbseq	r0, sl, #0
    19b8:	010f0000 	mrseq	r0, CPSR
    19bc:	00740251 	rsbseq	r0, r4, r1, asr r2
    19c0:	0550010f 	ldrbeq	r0, [r0, #-271]	; 0x10f
    19c4:	00a78803 	adceq	r8, r7, r3, lsl #16
    19c8:	10000000 	andne	r0, r0, r0
    19cc:	00000624 	andeq	r0, r0, r4, lsr #12
    19d0:	8c200b01 	stchi	11, cr0, [r0], #-4
    19d4:	00900000 	addseq	r0, r0, r0
    19d8:	9c010000 	stcls	0, cr0, [r1], {-0}
    19dc:	00000227 	andeq	r0, r0, r7, lsr #4
    19e0:	0005ad11 	andeq	sl, r5, r1, lsl sp
    19e4:	250c0100 	strcs	r0, [ip, #-256]	; 0x100
    19e8:	11000000 	mrsne	r0, (UNDEF: 0)
    19ec:	00000667 	andeq	r0, r0, r7, ror #12
    19f0:	00250c01 	eoreq	r0, r5, r1, lsl #24
    19f4:	f5120000 			; <UNDEFINED> instruction: 0xf5120000
    19f8:	01000000 	mrseq	r0, (UNDEF: 0)
    19fc:	7362130d 	cmnvc	r2, #872415232	; 0x34000000
    1a00:	0f010073 	svceq	0x00010073
    1a04:	00000227 	andeq	r0, r0, r7, lsr #4
    1a08:	00000d63 	andeq	r0, r0, r3, ror #26
    1a0c:	0005bb14 	andeq	fp, r5, r4, lsl fp
    1a10:	27100100 	ldrcs	r0, [r0, -r0, lsl #2]
    1a14:	13000002 	movwne	r0, #2
    1a18:	01006263 	tsteq	r0, r3, ror #4
    1a1c:	00022d17 	andeq	r2, r2, r7, lsl sp
    1a20:	000d8300 	andeq	r8, sp, r0, lsl #6
    1a24:	8c481500 	cfstr64hi	mvdx1, [r8], {-0}
    1a28:	02960000 	addseq	r0, r6, #0
    1a2c:	84160000 	ldrhi	r0, [r6], #-0
    1a30:	a100008c 	smlabbge	r0, ip, r0, r0
    1a34:	fd000002 	stc2	0, cr0, [r0, #-8]
    1a38:	0f000001 	svceq	0x00000001
    1a3c:	03055101 	movweq	r5, #20737	; 0x5101
    1a40:	0000a068 	andeq	sl, r0, r8, rrx
    1a44:	0550010f 	ldrbeq	r0, [r0, #-271]	; 0x10f
    1a48:	00a78803 	adceq	r8, r7, r3, lsl #16
    1a4c:	8c160000 	ldchi	0, cr0, [r6], {-0}
    1a50:	bc00008c 	stclt	0, cr0, [r0], {140}	; 0x8c
    1a54:	14000002 	strne	r0, [r0], #-2
    1a58:	0f000002 	svceq	0x00000002
    1a5c:	03055001 	movweq	r5, #20481	; 0x5001
    1a60:	0000a08c 	andeq	sl, r0, ip, lsl #1
    1a64:	8c901500 	cfldr32hi	mvfx1, [r0], {0}
    1a68:	02d20000 	sbcseq	r0, r2, #0
    1a6c:	94150000 	ldrls	r0, [r5], #-0
    1a70:	d900008c 	stmdble	r0, {r2, r3, r7}
    1a74:	00000002 	andeq	r0, r0, r2
    1a78:	00250405 	eoreq	r0, r5, r5, lsl #8
    1a7c:	04050000 	streq	r0, [r5], #-0
    1a80:	0000012f 	andeq	r0, r0, pc, lsr #2
    1a84:	0005d117 	andeq	sp, r5, r7, lsl r1
    1a88:	d1050100 	mrsle	r0, (UNDEF: 21)
    1a8c:	05000000 	streq	r0, [r0, #-0]
    1a90:	00a78803 	adceq	r8, r7, r3, lsl #16
    1a94:	00251800 	eoreq	r1, r5, r0, lsl #16
    1a98:	02530000 	subseq	r0, r3, #0
    1a9c:	25190000 	ldrcs	r0, [r9, #-0]
    1aa0:	00000000 	andeq	r0, r0, r0
    1aa4:	0004b211 	andeq	fp, r4, r1, lsl r2
    1aa8:	5e1d0500 	cfmul32pl	mvfx0, mvfx13, mvfx0
    1aac:	05000002 	streq	r0, [r0, #-2]
    1ab0:	00024404 	andeq	r4, r2, r4, lsl #8
    1ab4:	05ad1100 	streq	r1, [sp, #256]!	; 0x100
    1ab8:	0c010000 	stceq	0, cr0, [r1], {-0}
    1abc:	00000025 	andeq	r0, r0, r5, lsr #32
    1ac0:	00066711 	andeq	r6, r6, r1, lsl r7
    1ac4:	250c0100 	strcs	r0, [ip, #-256]	; 0x100
    1ac8:	1a000000 	bne	1ad0 <_start-0x6530>
    1acc:	00000637 	andeq	r0, r0, r7, lsr r6
    1ad0:	02904403 	addseq	r4, r0, #50331648	; 0x3000000
    1ad4:	90190000 	andsls	r0, r9, r0
    1ad8:	19000002 	stmdbne	r0, {r1}
    1adc:	0000005a 	andeq	r0, r0, sl, asr r0
    1ae0:	d1040500 	tstle	r4, r0, lsl #10
    1ae4:	1b000000 	blne	1aec <_start-0x6514>
    1ae8:	0000065a 	andeq	r0, r0, sl, asr r6
    1aec:	022d2a04 	eoreq	r2, sp, #4, 20	; 0x4000
    1af0:	de1c0000 	cdple	0, 1, cr0, cr12, cr0, {0}
    1af4:	03000005 	movweq	r0, #5
    1af8:	00002515 	andeq	r2, r0, r5, lsl r5
    1afc:	0002bc00 	andeq	fp, r2, r0, lsl #24
    1b00:	02901900 	addseq	r1, r0, #0, 18
    1b04:	8f190000 	svchi	0x00190000
    1b08:	1d000000 	stcne	0, cr0, [r0, #-0]
    1b0c:	04421c00 	strbeq	r1, [r2], #-3072	; 0xc00
    1b10:	29050000 	stmdbcs	r5, {}	; <UNPREDICTABLE>
    1b14:	00000025 	andeq	r0, r0, r5, lsr #32
    1b18:	000002d2 	ldrdeq	r0, [r0], -r2
    1b1c:	00008f19 	andeq	r8, r0, r9, lsl pc
    1b20:	12001d00 	andne	r1, r0, #0, 26
    1b24:	000000f5 	strdeq	r0, [r0], -r5
    1b28:	7412d105 	ldrvc	sp, [r2], #-261	; 0x105
    1b2c:	05000005 	streq	r0, [r0, #-5]
    1b30:	01ad0063 			; <UNDEFINED> instruction: 0x01ad0063
    1b34:	00040000 	andeq	r0, r4, r0
    1b38:	00000972 	andeq	r0, r0, r2, ror r9
    1b3c:	02e40104 	rsceq	r0, r4, #4, 2
    1b40:	bc010000 	stclt	0, cr0, [r1], {-0}
    1b44:	53000006 	movwpl	r0, #6
    1b48:	18000004 	stmdane	r0, {r2}
    1b4c:	00000000 	andeq	r0, r0, r0
    1b50:	16000000 	strne	r0, [r0], -r0
    1b54:	02000009 	andeq	r0, r0, #9
    1b58:	6e690504 	cdpvs	5, 6, cr0, cr9, cr4, {0}
    1b5c:	04030074 	streq	r0, [r3], #-116	; 0x74
    1b60:	00006c07 	andeq	r6, r0, r7, lsl #24
    1b64:	06010300 	streq	r0, [r1], -r0, lsl #6
    1b68:	0000028b 	andeq	r0, r0, fp, lsl #5
    1b6c:	a4050203 	strge	r0, [r5], #-515	; 0x203
    1b70:	03000002 	movweq	r0, #2
    1b74:	008f0504 	addeq	r0, pc, r4, lsl #10
    1b78:	08030000 	stmdaeq	r3, {}	; <UNPREDICTABLE>
    1b7c:	00008a05 	andeq	r8, r0, r5, lsl #20
    1b80:	08010300 	stmdaeq	r1, {r8, r9}
    1b84:	00000289 	andeq	r0, r0, r9, lsl #5
    1b88:	78070203 	stmdavc	r7, {r0, r1, r9}
    1b8c:	03000001 	movweq	r0, #1
    1b90:	00670704 	rsbeq	r0, r7, r4, lsl #14
    1b94:	08030000 	stmdaeq	r3, {}	; <UNPREDICTABLE>
    1b98:	00006207 	andeq	r6, r0, r7, lsl #4
    1b9c:	07040300 	streq	r0, [r4, -r0, lsl #6]
    1ba0:	0000022e 	andeq	r0, r0, lr, lsr #4
    1ba4:	92080103 	andls	r0, r8, #-1073741824	; 0xc0000000
    1ba8:	04000002 	streq	r0, [r0], #-2
    1bac:	000006a2 	andeq	r0, r0, r2, lsr #13
    1bb0:	00250e01 	eoreq	r0, r5, r1, lsl #28
    1bb4:	8cb00000 	ldchi	0, cr0, [r0]
    1bb8:	00180000 	andseq	r0, r8, r0
    1bbc:	9c010000 	stcls	0, cr0, [r1], {-0}
    1bc0:	000000a2 	andeq	r0, r0, r2, lsr #1
    1bc4:	00070e05 	andeq	r0, r7, r5, lsl #28
    1bc8:	2c0f0100 	stfcss	f0, [pc], {-0}
    1bcc:	a3000000 	movwge	r0, #0
    1bd0:	0000000d 	andeq	r0, r0, sp
    1bd4:	0006f106 	andeq	pc, r6, r6, lsl #2
    1bd8:	c8170100 	ldmdagt	r7, {r8}
    1bdc:	1400008c 	strne	r0, [r0], #-140	; 0x8c
    1be0:	01000000 	mrseq	r0, (UNDEF: 0)
    1be4:	0000c79c 	muleq	r0, ip, r7
    1be8:	070e0500 	streq	r0, [lr, -r0, lsl #10]
    1bec:	18010000 	stmdane	r1, {}	; <UNPREDICTABLE>
    1bf0:	0000002c 	andeq	r0, r0, ip, lsr #32
    1bf4:	00000dc2 	andeq	r0, r0, r2, asr #27
    1bf8:	05740600 	ldrbeq	r0, [r4, #-1536]!	; 0x600
    1bfc:	1f010000 	svcne	0x00010000
    1c00:	00008cdc 	ldrdeq	r8, [r0], -ip
    1c04:	00000048 	andeq	r0, r0, r8, asr #32
    1c08:	01779c01 	cmneq	r7, r1, lsl #24
    1c0c:	06070000 	streq	r0, [r7], -r0
    1c10:	01000007 	tsteq	r0, r7
    1c14:	0001772a 	andeq	r7, r1, sl, lsr #14
    1c18:	10001c00 	andne	r1, r0, r0, lsl #24
    1c1c:	06e90720 	strbteq	r0, [r9], r0, lsr #14
    1c20:	2b010000 	blcs	41c28 <__bss_end__+0x37490>
    1c24:	00000177 	andeq	r0, r0, r7, ror r1
    1c28:	20100024 	andscs	r0, r0, r4, lsr #32
    1c2c:	0006b007 	andeq	fp, r6, r7
    1c30:	772c0100 	strvc	r0, [ip, -r0, lsl #2]!
    1c34:	00000001 	andeq	r0, r0, r1
    1c38:	085a0000 	ldmdaeq	sl, {}^	; <UNPREDICTABLE>
    1c3c:	000006d0 	ldrdeq	r0, [r0], -r0	; <UNPREDICTABLE>
    1c40:	01772d01 	cmneq	r7, r1, lsl #26
    1c44:	09200000 	stmdbeq	r0!, {}	; <UNPREDICTABLE>
    1c48:	00008ce4 	andeq	r8, r0, r4, ror #25
    1c4c:	00000079 	andeq	r0, r0, r9, ror r0
    1c50:	008cf009 	addeq	pc, ip, r9
    1c54:	0000a200 	andeq	sl, r0, r0, lsl #4
    1c58:	8cf80a00 	vldmiahi	r8!, {s1-s0}
    1c5c:	018d0000 	orreq	r0, sp, r0
    1c60:	013a0000 	teqeq	sl, r0
    1c64:	010b0000 	mrseq	r0, (UNDEF: 11)
    1c68:	004e0150 	subeq	r0, lr, r0, asr r1
    1c6c:	008d040a 	addeq	r0, sp, sl, lsl #8
    1c70:	00019e00 	andeq	r9, r1, r0, lsl #28
    1c74:	00015a00 	andeq	r5, r1, r0, lsl #20
    1c78:	51010b00 	tstpl	r1, r0, lsl #22
    1c7c:	00010c05 	andeq	r0, r1, r5, lsl #24
    1c80:	010b5a00 	tsteq	fp, r0, lsl #20
    1c84:	240c0550 	strcs	r0, [ip], #-1360	; 0x550
    1c88:	00201000 	eoreq	r1, r0, r0
    1c8c:	008d100c 	addeq	r1, sp, ip
    1c90:	00019e00 	andeq	r9, r1, r0, lsl #28
    1c94:	51010b00 	tstpl	r1, r0, lsl #22
    1c98:	00200c05 	eoreq	r0, r0, r5, lsl #24
    1c9c:	010b5a00 	tsteq	fp, r0, lsl #20
    1ca0:	1c0c0550 	cfstr32ne	mvfx0, [ip], {80}	; 0x50
    1ca4:	00201000 	eoreq	r1, r0, r0
    1ca8:	00250d00 	eoreq	r0, r5, r0, lsl #26
    1cac:	a5080000 	strge	r0, [r8, #-0]
    1cb0:	01000006 	tsteq	r0, r6
    1cb4:	0001880d 	andeq	r8, r1, sp, lsl #16
    1cb8:	2c0d1000 	stccs	0, cr1, [sp], {-0}
    1cbc:	0e000000 	cdpeq	0, 0, cr0, cr0, cr0, {0}
    1cc0:	000002ae 	andeq	r0, r0, lr, lsr #5
    1cc4:	019e5002 	orrseq	r5, lr, r2
    1cc8:	2c0f0000 	stccs	0, cr0, [pc], {-0}
    1ccc:	00000000 	andeq	r0, r0, r0
    1cd0:	00070010 	andeq	r0, r7, r0, lsl r0
    1cd4:	0f9c0200 	svceq	0x009c0200
    1cd8:	0000002c 	andeq	r0, r0, ip, lsr #32
    1cdc:	00002c0f 	andeq	r2, r0, pc, lsl #24
    1ce0:	d8000000 	stmdale	r0, {}	; <UNPREDICTABLE>
    1ce4:	04000001 	streq	r0, [r0], #-1
    1ce8:	000a6000 	andeq	r6, sl, r0
    1cec:	e4010400 	str	r0, [r1], #-1024	; 0x400
    1cf0:	01000002 	tsteq	r0, r2
    1cf4:	00000730 	andeq	r0, r0, r0, lsr r7
    1cf8:	00000453 	andeq	r0, r0, r3, asr r4
    1cfc:	00008d24 	andeq	r8, r0, r4, lsr #26
    1d00:	00000088 	andeq	r0, r0, r8, lsl #1
    1d04:	000009b3 			; <UNDEFINED> instruction: 0x000009b3
    1d08:	69050402 	stmdbvs	r5, {r1, sl}
    1d0c:	0300746e 	movweq	r7, #1134	; 0x46e
    1d10:	006c0704 	rsbeq	r0, ip, r4, lsl #14
    1d14:	01030000 	mrseq	r0, (UNDEF: 3)
    1d18:	00028b06 	andeq	r8, r2, r6, lsl #22
    1d1c:	05020300 	streq	r0, [r2, #-768]	; 0x300
    1d20:	000002a4 	andeq	r0, r0, r4, lsr #5
    1d24:	8f050403 	svchi	0x00050403
    1d28:	03000000 	movweq	r0, #0
    1d2c:	008a0508 	addeq	r0, sl, r8, lsl #10
    1d30:	01030000 	mrseq	r0, (UNDEF: 3)
    1d34:	00028908 	andeq	r8, r2, r8, lsl #18
    1d38:	07020300 	streq	r0, [r2, -r0, lsl #6]
    1d3c:	00000178 	andeq	r0, r0, r8, ror r1
    1d40:	67070403 	strvs	r0, [r7, -r3, lsl #8]
    1d44:	03000000 	movweq	r0, #0
    1d48:	00620708 	rsbeq	r0, r2, r8, lsl #14
    1d4c:	04030000 	streq	r0, [r3], #-0
    1d50:	00022e07 	andeq	r2, r2, r7, lsl #28
    1d54:	08010300 	stmdaeq	r1, {r8, r9}
    1d58:	00000292 	muleq	r0, r2, r2
    1d5c:	00074f04 	andeq	r4, r7, r4, lsl #30
    1d60:	24050100 	strcs	r0, [r5], #-256	; 0x100
    1d64:	1c00008d 	stcne	0, cr0, [r0], {141}	; 0x8d
    1d68:	01000000 	mrseq	r0, (UNDEF: 0)
    1d6c:	00009e9c 	muleq	r0, ip, lr
    1d70:	07490500 	strbeq	r0, [r9, -r0, lsl #10]
    1d74:	05010000 	streq	r0, [r1, #-0]
    1d78:	0000002c 	andeq	r0, r0, ip, lsr #32
    1d7c:	00000dec 	andeq	r0, r0, ip, ror #27
    1d80:	07130600 	ldreq	r0, [r3, -r0, lsl #12]
    1d84:	0b010000 	bleq	41d8c <__bss_end__+0x375f4>
    1d88:	0000002c 	andeq	r0, r0, ip, lsr #32
    1d8c:	00008d40 	andeq	r8, r0, r0, asr #26
    1d90:	00000014 	andeq	r0, r0, r4, lsl r0
    1d94:	00cb9c01 	sbceq	r9, fp, r1, lsl #24
    1d98:	4c070000 	stcmi	0, cr0, [r7], {-0}
    1d9c:	ca00008d 	bgt	1fd8 <_start-0x6028>
    1da0:	08000001 	stmdaeq	r0, {r0}
    1da4:	0c055001 	stceq	0, cr5, [r5], {1}
    1da8:	20003004 	andcs	r3, r0, r4
    1dac:	65060000 	strvs	r0, [r6, #-0]
    1db0:	01000007 	tsteq	r0, r7
    1db4:	00002c10 	andeq	r2, r0, r0, lsl ip
    1db8:	008d5400 	addeq	r5, sp, r0, lsl #8
    1dbc:	00000c00 	andeq	r0, r0, r0, lsl #24
    1dc0:	f99c0100 			; <UNDEFINED> instruction: 0xf99c0100
    1dc4:	09000000 	stmdbeq	r0, {}	; <UNPREDICTABLE>
    1dc8:	14010075 	strne	r0, [r1], #-117	; 0x75
    1dcc:	0000002c 	andeq	r0, r0, ip, lsr #32
    1dd0:	5c0a5001 	stcpl	0, cr5, [sl], {1}
    1dd4:	9e00008d 	cdpls	0, 0, cr0, cr0, cr13, {4}
    1dd8:	00000000 	andeq	r0, r0, r0
    1ddc:	00075c04 	andeq	r5, r7, r4, lsl #24
    1de0:	60190100 	andsvs	r0, r9, r0, lsl #2
    1de4:	2400008d 	strcs	r0, [r0], #-141	; 0x8d
    1de8:	01000000 	mrseq	r0, (UNDEF: 0)
    1dec:	0001579c 	muleq	r1, ip, r7
    1df0:	73750b00 	cmnvc	r5, #0, 22
    1df4:	2c190100 	ldfcss	f0, [r9], {-0}
    1df8:	20000000 	andcs	r0, r0, r0
    1dfc:	0900000e 	stmdbeq	r0, {r1, r2, r3}
    1e00:	01006272 	tsteq	r0, r2, ror r2
    1e04:	00002c1a 	andeq	r2, r0, sl, lsl ip
    1e08:	0c540100 	ldfeqe	f0, [r4], {-0}
    1e0c:	00008d70 	andeq	r8, r0, r0, ror sp
    1e10:	00000010 	andeq	r0, r0, r0, lsl r0
    1e14:	0000014d 	andeq	r0, r0, sp, asr #2
    1e18:	0061720d 	rsbeq	r7, r1, sp, lsl #4
    1e1c:	002c1c01 	eoreq	r1, ip, r1, lsl #24
    1e20:	0e3e0000 	cdpeq	0, 3, cr0, cr14, cr0, {0}
    1e24:	740a0000 	strvc	r0, [sl], #-0
    1e28:	cb00008d 	blgt	2064 <_start-0x5f9c>
    1e2c:	00000000 	andeq	r0, r0, r0
    1e30:	008d6c0a 	addeq	r6, sp, sl, lsl #24
    1e34:	0000cb00 	andeq	ip, r0, r0, lsl #22
    1e38:	ae040000 	cdpge	0, 0, cr0, cr4, cr0, {0}
    1e3c:	01000002 	tsteq	r0, r2
    1e40:	008d8422 	addeq	r8, sp, r2, lsr #8
    1e44:	00001400 	andeq	r1, r0, r0, lsl #8
    1e48:	909c0100 	addsls	r0, ip, r0, lsl #2
    1e4c:	0b000001 	bleq	1e58 <_start-0x61a8>
    1e50:	0100736d 	tsteq	r0, sp, ror #6
    1e54:	00002c22 	andeq	r2, r0, r2, lsr #24
    1e58:	000e5100 	andeq	r5, lr, r0, lsl #2
    1e5c:	8d940700 	ldchi	7, cr0, [r4]
    1e60:	00f90000 	rscseq	r0, r9, r0
    1e64:	01080000 	mrseq	r0, (UNDEF: 8)
    1e68:	01f30750 	mvnseq	r0, r0, asr r7
    1e6c:	03e80a50 	mvneq	r0, #80, 20	; 0x50000
    1e70:	0400001e 	streq	r0, [r0], #-30
    1e74:	00000726 	andeq	r0, r0, r6, lsr #14
    1e78:	8d982501 	cfldr32hi	mvfx2, [r8, #4]
    1e7c:	00140000 	andseq	r0, r4, r0
    1e80:	9c010000 	stcls	0, cr0, [r1], {-0}
    1e84:	000001ca 	andeq	r0, r0, sl, asr #3
    1e88:	6365730b 	cmnvs	r5, #738197504	; 0x2c000000
    1e8c:	2c250100 	stfcss	f0, [r5], #-0
    1e90:	72000000 	andvc	r0, r0, #0
    1e94:	0700000e 	streq	r0, [r0, -lr]
    1e98:	00008da8 	andeq	r8, r0, r8, lsr #27
    1e9c:	00000157 	andeq	r0, r0, r7, asr r1
    1ea0:	07500108 	ldrbeq	r0, [r0, -r8, lsl #2]
    1ea4:	0a5001f3 	beq	1402678 <__bss_end__+0x13f7ee0>
    1ea8:	001e03e8 	andseq	r0, lr, r8, ror #7
    1eac:	07430e00 	strbeq	r0, [r3, -r0, lsl #28]
    1eb0:	a8020000 	stmdage	r2, {}	; <UNPREDICTABLE>
    1eb4:	0000002c 	andeq	r0, r0, ip, lsr #32
    1eb8:	00002c0f 	andeq	r2, r0, pc, lsl #24
    1ebc:	82000000 	andhi	r0, r0, #0
    1ec0:	04000008 	streq	r0, [r0], #-8
    1ec4:	000b4300 	andeq	r4, fp, r0, lsl #6
    1ec8:	e4010400 	str	r0, [r1], #-1024	; 0x400
    1ecc:	01000002 	tsteq	r0, r2
    1ed0:	000007ac 	andeq	r0, r0, ip, lsr #15
    1ed4:	00000453 	andeq	r0, r0, r3, asr r4
    1ed8:	00008dac 	andeq	r8, r0, ip, lsr #27
    1edc:	000005a0 	andeq	r0, r0, r0, lsr #11
    1ee0:	00000a5a 	andeq	r0, r0, sl, asr sl
    1ee4:	62070802 	andvs	r0, r7, #131072	; 0x20000
    1ee8:	02000000 	andeq	r0, r0, #0
    1eec:	006c0704 	rsbeq	r0, ip, r4, lsl #14
    1ef0:	01020000 	mrseq	r0, (UNDEF: 2)
    1ef4:	00028b06 	andeq	r8, r2, r6, lsl #22
    1ef8:	05020200 	streq	r0, [r2, #-512]	; 0x200
    1efc:	000002a4 	andeq	r0, r0, r4, lsr #5
    1f00:	8f050402 	svchi	0x00050402
    1f04:	02000000 	andeq	r0, r0, #0
    1f08:	008a0508 	addeq	r0, sl, r8, lsl #10
    1f0c:	01020000 	mrseq	r0, (UNDEF: 2)
    1f10:	00028908 	andeq	r8, r2, r8, lsl #18
    1f14:	07020200 	streq	r0, [r2, -r0, lsl #4]
    1f18:	00000178 	andeq	r0, r0, r8, ror r1
    1f1c:	67070402 	strvs	r0, [r7, -r2, lsl #8]
    1f20:	03000000 	movweq	r0, #0
    1f24:	6e690504 	cdpvs	5, 6, cr0, cr9, cr4, {0}
    1f28:	04020074 	streq	r0, [r2], #-116	; 0x74
    1f2c:	00022e07 	andeq	r2, r2, r7, lsl #28
    1f30:	08010200 	stmdaeq	r1, {r9}
    1f34:	00000292 	muleq	r0, r2, r2
    1f38:	0c020104 	stfeqs	f0, [r2], {4}
    1f3c:	000000b2 	strheq	r0, [r0], -r2
    1f40:	00079c05 	andeq	r9, r7, r5, lsl #24
    1f44:	46050000 	strmi	r0, [r5], -r0
    1f48:	01000008 	tsteq	r0, r8
    1f4c:	00086905 	andeq	r6, r8, r5, lsl #18
    1f50:	78050400 	stmdavc	r5, {sl}
    1f54:	05000008 	streq	r0, [r0, #-8]
    1f58:	00088705 	andeq	r8, r8, r5, lsl #14
    1f5c:	96050600 	strls	r0, [r5], -r0, lsl #12
    1f60:	07000008 	streq	r0, [r0, -r8]
    1f64:	0008a505 	andeq	sl, r8, r5, lsl #10
    1f68:	b4050300 	strlt	r0, [r5], #-768	; 0x300
    1f6c:	02000008 	andeq	r0, r0, #8
    1f70:	085d0600 	ldmdaeq	sp, {r9, sl}^
    1f74:	15020000 	strne	r0, [r2, #-0]
    1f78:	00000079 	andeq	r0, r0, r9, ror r0
    1f7c:	0003a407 	andeq	sl, r3, r7, lsl #8
    1f80:	ac3f0100 	ldfges	f0, [pc], #-0	; 1f88 <_start-0x6078>
    1f84:	d400008d 	strle	r0, [r0], #-141	; 0x8d
    1f88:	01000000 	mrseq	r0, (UNDEF: 0)
    1f8c:	0001339c 	muleq	r1, ip, r3
    1f90:	69700800 	ldmdbvs	r0!, {fp}^
    1f94:	3f01006e 	svccc	0x0001006e
    1f98:	0000002c 	andeq	r0, r0, ip, lsr #32
    1f9c:	00000e93 	muleq	r0, r3, lr
    1fa0:	0007cc09 	andeq	ip, r7, r9, lsl #24
    1fa4:	33470100 	movtcc	r0, #28928	; 0x7100
    1fa8:	b1000001 	tstlt	r0, r1
    1fac:	0900000e 	stmdbeq	r0, {r1, r2, r3}
    1fb0:	000008c3 	andeq	r0, r0, r3, asr #17
    1fb4:	002c4901 	eoreq	r4, ip, r1, lsl #18
    1fb8:	0f060000 	svceq	0x00060000
    1fbc:	11090000 	mrsne	r0, (UNDEF: 9)
    1fc0:	01000008 	tsteq	r0, r8
    1fc4:	00002c57 	andeq	r2, r0, r7, asr ip
    1fc8:	0010d200 	andseq	sp, r0, r0, lsl #4
    1fcc:	8e400a00 	vmlahi.f32	s1, s0, s0
    1fd0:	08410000 	stmdaeq	r1, {}^	; <UNPREDICTABLE>
    1fd4:	01220000 	teqeq	r2, r0
    1fd8:	010b0000 	mrseq	r0, (UNDEF: 11)
    1fdc:	00750250 	rsbseq	r0, r5, r0, asr r2
    1fe0:	8e740c00 	cdphi	12, 7, cr0, cr4, cr0, {0}
    1fe4:	08620000 	stmdaeq	r2!, {}^	; <UNPREDICTABLE>
    1fe8:	010b0000 	mrseq	r0, (UNDEF: 11)
    1fec:	00750250 	rsbseq	r0, r5, r0, asr r2
    1ff0:	040d0000 	streq	r0, [sp], #-0
    1ff4:	00000139 	andeq	r0, r0, r9, lsr r1
    1ff8:	00002c0e 	andeq	r2, r0, lr, lsl #24
    1ffc:	007e0700 	rsbseq	r0, lr, r0, lsl #14
    2000:	60010000 	andvs	r0, r1, r0
    2004:	00008e80 	andeq	r8, r0, r0, lsl #29
    2008:	00000038 	andeq	r0, r0, r8, lsr r0
    200c:	01969c01 	orrseq	r9, r6, r1, lsl #24
    2010:	70080000 	andvc	r0, r8, r0
    2014:	01006e69 	tsteq	r0, r9, ror #28
    2018:	00002c60 	andeq	r2, r0, r0, ror #24
    201c:	00110200 	andseq	r0, r1, r0, lsl #4
    2020:	07cc0900 	strbeq	r0, [ip, r0, lsl #18]
    2024:	67010000 	strvs	r0, [r1, -r0]
    2028:	00000133 	andeq	r0, r0, r3, lsr r1
    202c:	00001123 	andeq	r1, r0, r3, lsr #2
    2030:	00081109 	andeq	r1, r8, r9, lsl #2
    2034:	2c680100 	stfcse	f0, [r8], #-0
    2038:	59000000 	stmdbpl	r0, {}	; <UNPREDICTABLE>
    203c:	0c000011 	stceq	0, cr0, [r0], {17}
    2040:	00008eb0 			; <UNDEFINED> instruction: 0x00008eb0
    2044:	00000862 	andeq	r0, r0, r2, ror #16
    2048:	0751010b 	ldrbeq	r0, [r1, -fp, lsl #2]
    204c:	5001f331 	andpl	pc, r1, r1, lsr r3	; <UNPREDICTABLE>
    2050:	00241a4f 	eoreq	r1, r4, pc, asr #20
    2054:	01020700 	tsteq	r2, r0, lsl #14
    2058:	7b010000 	blvc	42060 <__bss_end__+0x378c8>
    205c:	00008eb8 			; <UNDEFINED> instruction: 0x00008eb8
    2060:	00000038 	andeq	r0, r0, r8, lsr r0
    2064:	01ee9c01 	mvneq	r9, r1, lsl #24
    2068:	70080000 	andvc	r0, r8, r0
    206c:	01006e69 	tsteq	r0, r9, ror #28
    2070:	00002c7b 	andeq	r2, r0, fp, ror ip
    2074:	00119900 	andseq	r9, r1, r0, lsl #18
    2078:	07cc0900 	strbeq	r0, [ip, r0, lsl #18]
    207c:	81010000 	mrshi	r0, (UNDEF: 1)
    2080:	00000133 	andeq	r0, r0, r3, lsr r1
    2084:	000011ba 			; <UNDEFINED> instruction: 0x000011ba
    2088:	00081109 	andeq	r1, r8, r9, lsl #2
    208c:	2c820100 	stfcss	f0, [r2], {0}
    2090:	f0000000 			; <UNDEFINED> instruction: 0xf0000000
    2094:	0c000011 	stceq	0, cr0, [r0], {17}
    2098:	00008ee8 	andeq	r8, r0, r8, ror #29
    209c:	00000862 	andeq	r0, r0, r2, ror #16
    20a0:	0751010b 	ldrbeq	r0, [r1, -fp, lsl #2]
    20a4:	5001f331 	andpl	pc, r1, r1, lsr r3	; <UNPREDICTABLE>
    20a8:	00241a4f 	eoreq	r1, r4, pc, asr #20
    20ac:	033b0700 	teqeq	fp, #0, 14
    20b0:	95010000 	strls	r0, [r1, #-0]
    20b4:	00008ef0 	strdeq	r8, [r0], -r0
    20b8:	000000cc 	andeq	r0, r0, ip, asr #1
    20bc:	02649c01 	rsbeq	r9, r4, #256	; 0x100
    20c0:	70080000 	andvc	r0, r8, r0
    20c4:	01006e69 	tsteq	r0, r9, ror #28
    20c8:	00002c95 	muleq	r0, r5, ip
    20cc:	00123000 	andseq	r3, r2, r0
    20d0:	07cc0900 	strbeq	r0, [ip, r0, lsl #18]
    20d4:	9b010000 	blls	420dc <__bss_end__+0x37944>
    20d8:	00000133 	andeq	r0, r0, r3, lsr r1
    20dc:	0000124e 	andeq	r1, r0, lr, asr #4
    20e0:	0008c309 	andeq	ip, r8, r9, lsl #6
    20e4:	2c9d0100 	ldfcss	f0, [sp], {0}
    20e8:	a3000000 	movwge	r0, #0
    20ec:	09000012 	stmdbeq	r0, {r1, r4}
    20f0:	00000811 	andeq	r0, r0, r1, lsl r8
    20f4:	002cab01 	eoreq	sl, ip, r1, lsl #22
    20f8:	146f0000 	strbtne	r0, [pc], #-0	; 2100 <_start-0x5f00>
    20fc:	840a0000 	strhi	r0, [sl], #-0
    2100:	4100008f 	smlabbmi	r0, pc, r0, r0	; <UNPREDICTABLE>
    2104:	53000008 	movwpl	r0, #8
    2108:	0b000002 	bleq	2118 <_start-0x5ee8>
    210c:	75025001 	strvc	r5, [r2, #-1]
    2110:	b00c0000 	andlt	r0, ip, r0
    2114:	6200008f 	andvs	r0, r0, #143	; 0x8f
    2118:	0b000008 	bleq	2140 <_start-0x5ec0>
    211c:	75025001 	strvc	r5, [r2, #-1]
    2120:	0f000000 	svceq	0x00000000
    2124:	00000202 	andeq	r0, r0, r2, lsl #4
    2128:	0064b301 	rsbeq	fp, r4, r1, lsl #6
    212c:	8fbc0000 	svchi	0x00bc0000
    2130:	004c0000 	subeq	r0, ip, r0
    2134:	9c010000 	stcls	0, cr0, [r1], {-0}
    2138:	000002ac 	andeq	r0, r0, ip, lsr #5
    213c:	6e697008 	cdpvs	0, 6, cr7, cr9, cr8, {0}
    2140:	2cb30100 	ldfcss	f0, [r3]
    2144:	8d000000 	stchi	0, cr0, [r0, #-0]
    2148:	10000014 	andne	r0, r0, r4, lsl r0
    214c:	b9010076 	stmdblt	r1, {r1, r2, r4, r5, r6}
    2150:	0000002c 	andeq	r0, r0, ip, lsr #32
    2154:	000014e5 	andeq	r1, r0, r5, ror #9
    2158:	008fdc11 	addeq	sp, pc, r1, lsl ip	; <UNPREDICTABLE>
    215c:	00084100 	andeq	r4, r8, r0, lsl #2
    2160:	8fec1100 	svchi	0x00ec1100
    2164:	08410000 	stmdaeq	r1, {}^	; <UNPREDICTABLE>
    2168:	07000000 	streq	r0, [r0, -r0]
    216c:	0000003c 	andeq	r0, r0, ip, lsr r0
    2170:	9008c501 	andls	ip, r8, r1, lsl #10
    2174:	00240000 	eoreq	r0, r4, r0
    2178:	9c010000 	stcls	0, cr0, [r1], {-0}
    217c:	000002fc 	strdeq	r0, [r0], -ip
    2180:	6e697008 	cdpvs	0, 6, cr7, cr9, cr8, {0}
    2184:	2cc50100 	stfcse	f0, [r5], {0}
    2188:	1b000000 	blne	2190 <_start-0x5e70>
    218c:	08000015 	stmdaeq	r0, {r0, r2, r4}
    2190:	c5010076 	strgt	r0, [r1, #-118]	; 0x76
    2194:	0000002c 	andeq	r0, r0, ip, lsr #32
    2198:	00001555 	andeq	r1, r0, r5, asr r5
    219c:	0090200a 	addseq	r2, r0, sl
    21a0:	00013e00 	andeq	r3, r1, r0, lsl #28
    21a4:	0002f200 	andeq	pc, r2, r0, lsl #4
    21a8:	50010b00 	andpl	r0, r1, r0, lsl #22
    21ac:	5001f303 	andpl	pc, r1, r3, lsl #6
    21b0:	90281100 	eorls	r1, r8, r0, lsl #2
    21b4:	01960000 	orrseq	r0, r6, r0
    21b8:	07000000 	streq	r0, [r0, -r0]
    21bc:	000007d5 	ldrdeq	r0, [r0], -r5
    21c0:	902cd101 	eorls	sp, ip, r1, lsl #2
    21c4:	00d80000 	sbcseq	r0, r8, r0
    21c8:	9c010000 	stcls	0, cr0, [r1], {-0}
    21cc:	00000381 	andeq	r0, r0, r1, lsl #7
    21d0:	6e697008 	cdpvs	0, 6, cr7, cr9, cr8, {0}
    21d4:	2cd10100 	ldfcse	f0, [r1], {0}
    21d8:	8f000000 	svchi	0x00000000
    21dc:	12000015 	andne	r0, r0, #21
    21e0:	00000819 	andeq	r0, r0, r9, lsl r8
    21e4:	00b2d101 	adcseq	sp, r2, r1, lsl #2
    21e8:	15ad0000 	strne	r0, [sp, #0]!
    21ec:	cc090000 	stcgt	0, cr0, [r9], {-0}
    21f0:	01000007 	tsteq	r0, r7
    21f4:	000133d9 	ldrdeq	r3, [r1], -r9
    21f8:	0015ce00 	andseq	ip, r5, r0, lsl #28
    21fc:	08c30900 	stmiaeq	r3, {r8, fp}^
    2200:	da010000 	ble	42208 <__bss_end__+0x37a70>
    2204:	0000002c 	andeq	r0, r0, ip, lsr #32
    2208:	00001623 	andeq	r1, r0, r3, lsr #12
    220c:	00081109 	andeq	r1, r8, r9, lsl #2
    2210:	2ce80100 	stfcse	f0, [r8]
    2214:	ef000000 	svc	0x00000000
    2218:	0a000017 	beq	227c <_start-0x5d84>
    221c:	000090c8 	andeq	r9, r0, r8, asr #1
    2220:	00000841 	andeq	r0, r0, r1, asr #16
    2224:	00000370 	andeq	r0, r0, r0, ror r3
    2228:	0250010b 	subseq	r0, r0, #-1073741822	; 0xc0000002
    222c:	0c000076 	stceq	0, cr0, [r0], {118}	; 0x76
    2230:	000090f8 	strdeq	r9, [r0], -r8
    2234:	00000862 	andeq	r0, r0, r2, ror #16
    2238:	0250010b 	subseq	r0, r0, #-1073741822	; 0xc0000002
    223c:	00000076 	andeq	r0, r0, r6, ror r0
    2240:	00081e07 	andeq	r1, r8, r7, lsl #28
    2244:	04f10100 	ldrbteq	r0, [r1], #256	; 0x100
    2248:	38000091 	stmdacc	r0, {r0, r4, r7}
    224c:	01000000 	mrseq	r0, (UNDEF: 0)
    2250:	0003d99c 	muleq	r3, ip, r9
    2254:	69700800 	ldmdbvs	r0!, {fp}^
    2258:	f101006e 	setend	le
    225c:	0000002c 	andeq	r0, r0, ip, lsr #32
    2260:	00001820 	andeq	r1, r0, r0, lsr #16
    2264:	0007cc09 	andeq	ip, r7, r9, lsl #24
    2268:	33f70100 	mvnscc	r0, #0, 2
    226c:	41000001 	tstmi	r0, r1
    2270:	09000018 	stmdbeq	r0, {r3, r4}
    2274:	00000811 	andeq	r0, r0, r1, lsl r8
    2278:	002cf801 	eoreq	pc, ip, r1, lsl #16
    227c:	18770000 	ldmdane	r7!, {}^	; <UNPREDICTABLE>
    2280:	340c0000 	strcc	r0, [ip], #-0
    2284:	62000091 	andvs	r0, r0, #145	; 0x91
    2288:	0b000008 	bleq	22b0 <_start-0x5d50>
    228c:	31075101 	tstcc	r7, r1, lsl #2
    2290:	4f5001f3 	svcmi	0x005001f3
    2294:	0000241a 	andeq	r2, r0, sl, lsl r4
    2298:	0003ef13 	andeq	lr, r3, r3, lsl pc
    229c:	011f0100 	tsteq	pc, r0, lsl #2
    22a0:	00000064 	andeq	r0, r0, r4, rrx
    22a4:	0000913c 	andeq	r9, r0, ip, lsr r1
    22a8:	0000002c 	andeq	r0, r0, ip, lsr #32
    22ac:	040d9c01 	streq	r9, [sp], #-3073	; 0xc01
    22b0:	f2140000 	vhadd.s16	d0, d4, d0
    22b4:	01000003 	tsteq	r0, r3
    22b8:	002c011f 	eoreq	r0, ip, pc, lsl r1
    22bc:	18b70000 	ldmne	r7!, {}	; <UNPREDICTABLE>
    22c0:	4c110000 	ldcmi	0, cr0, [r1], {-0}
    22c4:	41000091 	swpmi	r0, r1, [r0]	; <UNPREDICTABLE>
    22c8:	00000008 	andeq	r0, r0, r8
    22cc:	00021915 	andeq	r1, r2, r5, lsl r9
    22d0:	012e0100 	teqeq	lr, r0, lsl #2
    22d4:	00009168 	andeq	r9, r0, r8, ror #2
    22d8:	00000084 	andeq	r0, r0, r4, lsl #1
    22dc:	04d19c01 	ldrbeq	r9, [r1], #3073	; 0xc01
    22e0:	70160000 	andsvc	r0, r6, r0
    22e4:	01006e69 	tsteq	r0, r9, ror #28
    22e8:	002c012e 	eoreq	r0, ip, lr, lsr #2
    22ec:	18d80000 	ldmne	r8, {}^	; <UNPREDICTABLE>
    22f0:	ba170000 	blt	5c22f8 <__bss_end__+0x5b7b60>
    22f4:	01000007 	tsteq	r0, r7
    22f8:	002c0140 	eoreq	r0, ip, r0, asr #2
    22fc:	19040000 	stmdbne	r4, {}	; <UNPREDICTABLE>
    2300:	84180000 	ldrhi	r0, [r8], #-0
    2304:	1c000091 	stcne	0, cr0, [r0], {145}	; 0x91
    2308:	73000000 	movwvc	r0, #0
    230c:	17000004 	strne	r0, [r0, -r4]
    2310:	00000811 	andeq	r0, r0, r1, lsl r8
    2314:	2c013701 	stccs	7, cr3, [r1], {1}
    2318:	22000000 	andcs	r0, r0, #0
    231c:	11000019 	tstne	r0, r9, lsl r0
    2320:	00009190 	muleq	r0, r0, r1
    2324:	00000841 	andeq	r0, r0, r1, asr #16
    2328:	0091a011 	addseq	sl, r1, r1, lsl r0
    232c:	00086200 	andeq	r6, r8, r0, lsl #4
    2330:	a4180000 	ldrge	r0, [r8], #-0
    2334:	20000091 	mulcs	r0, r1, r0
    2338:	a3000000 	movwge	r0, #0
    233c:	17000004 	strne	r0, [r0, -r4]
    2340:	00000811 	andeq	r0, r0, r1, lsl r8
    2344:	2c013b01 	stccs	11, cr3, [r1], {1}
    2348:	40000000 	andmi	r0, r0, r0
    234c:	11000019 	tstne	r0, r9, lsl r0
    2350:	000091b0 			; <UNDEFINED> instruction: 0x000091b0
    2354:	00000841 	andeq	r0, r0, r1, asr #16
    2358:	0091c411 	addseq	ip, r1, r1, lsl r4
    235c:	00086200 	andeq	r6, r8, r0, lsl #4
    2360:	7c110000 	ldcvc	0, cr0, [r1], {-0}
    2364:	7e000091 	mcrvc	0, 0, r0, cr0, cr1, {4}
    2368:	11000008 	tstne	r0, r8
    236c:	000091c8 	andeq	r9, r0, r8, asr #3
    2370:	0000087e 	andeq	r0, r0, lr, ror r8
    2374:	0091d411 	addseq	sp, r1, r1, lsl r4
    2378:	00084100 	andeq	r4, r8, r0, lsl #2
    237c:	91e01100 	mvnls	r1, r0, lsl #2
    2380:	08620000 	stmdaeq	r2!, {}^	; <UNPREDICTABLE>
    2384:	e4110000 	ldr	r0, [r1], #-0
    2388:	7e000091 	mcrvc	0, 0, r0, cr0, cr1, {4}
    238c:	00000008 	andeq	r0, r0, r8
    2390:	0003d915 	andeq	sp, r3, r5, lsl r9
    2394:	014b0100 	mrseq	r0, (UNDEF: 91)
    2398:	000091ec 	andeq	r9, r0, ip, ror #3
    239c:	00000084 	andeq	r0, r0, r4, lsl #1
    23a0:	05959c01 	ldreq	r9, [r5, #3073]	; 0xc01
    23a4:	70160000 	andsvc	r0, r6, r0
    23a8:	01006e69 	tsteq	r0, r9, ror #28
    23ac:	002c014b 	eoreq	r0, ip, fp, asr #2
    23b0:	195e0000 	ldmdbne	lr, {}^	; <UNPREDICTABLE>
    23b4:	ba170000 	blt	5c23bc <__bss_end__+0x5b7c24>
    23b8:	01000007 	tsteq	r0, r7
    23bc:	002c015c 	eoreq	r0, ip, ip, asr r1
    23c0:	198a0000 	stmibne	sl, {}	; <UNPREDICTABLE>
    23c4:	08180000 	ldmdaeq	r8, {}	; <UNPREDICTABLE>
    23c8:	1c000092 	stcne	0, cr0, [r0], {146}	; 0x92
    23cc:	37000000 	strcc	r0, [r0, -r0]
    23d0:	17000005 	strne	r0, [r0, -r5]
    23d4:	00000811 	andeq	r0, r0, r1, lsl r8
    23d8:	2c015301 	stccs	3, cr5, [r1], {1}
    23dc:	a8000000 	stmdage	r0, {}	; <UNPREDICTABLE>
    23e0:	11000019 	tstne	r0, r9, lsl r0
    23e4:	00009214 	andeq	r9, r0, r4, lsl r2
    23e8:	00000841 	andeq	r0, r0, r1, asr #16
    23ec:	00922411 	addseq	r2, r2, r1, lsl r4
    23f0:	00086200 	andeq	r6, r8, r0, lsl #4
    23f4:	28180000 	ldmdacs	r8, {}	; <UNPREDICTABLE>
    23f8:	20000092 	mulcs	r0, r2, r0
    23fc:	67000000 	strvs	r0, [r0, -r0]
    2400:	17000005 	strne	r0, [r0, -r5]
    2404:	00000811 	andeq	r0, r0, r1, lsl r8
    2408:	2c015701 	stccs	7, cr5, [r1], {1}
    240c:	c6000000 	strgt	r0, [r0], -r0
    2410:	11000019 	tstne	r0, r9, lsl r0
    2414:	00009234 	andeq	r9, r0, r4, lsr r2
    2418:	00000841 	andeq	r0, r0, r1, asr #16
    241c:	00924811 	addseq	r4, r2, r1, lsl r8
    2420:	00086200 	andeq	r6, r8, r0, lsl #4
    2424:	00110000 	andseq	r0, r1, r0
    2428:	7e000092 	mcrvc	0, 0, r0, cr0, cr2, {4}
    242c:	11000008 	tstne	r0, r8
    2430:	0000924c 	andeq	r9, r0, ip, asr #4
    2434:	0000087e 	andeq	r0, r0, lr, ror r8
    2438:	00925811 	addseq	r5, r2, r1, lsl r8
    243c:	00084100 	andeq	r4, r8, r0, lsl #2
    2440:	92641100 	rsbls	r1, r4, #0, 2
    2444:	08620000 	stmdaeq	r2!, {}^	; <UNPREDICTABLE>
    2448:	68110000 	ldmdavs	r1, {}	; <UNPREDICTABLE>
    244c:	7e000092 	mcrvc	0, 0, r0, cr0, cr2, {4}
    2450:	00000008 	andeq	r0, r0, r8
    2454:	00077413 	andeq	r7, r7, r3, lsl r4
    2458:	01660100 	cmneq	r6, r0, lsl #2
    245c:	00000064 	andeq	r0, r0, r4, rrx
    2460:	00009270 	andeq	r9, r0, r0, ror r2
    2464:	00000084 	andeq	r0, r0, r4, lsl #1
    2468:	063b9c01 	ldrteq	r9, [fp], -r1, lsl #24
    246c:	70160000 	andsvc	r0, r6, r0
    2470:	01006e69 	tsteq	r0, r9, ror #28
    2474:	002c0166 	eoreq	r0, ip, r6, ror #2
    2478:	19e40000 	stmibne	r4!, {}^	; <UNPREDICTABLE>
    247c:	8c180000 	ldchi	0, cr0, [r8], {-0}
    2480:	24000092 	strcs	r0, [r0], #-146	; 0x92
    2484:	ef000000 	svc	0x00000000
    2488:	17000005 	strne	r0, [r0, -r5]
    248c:	000007c3 	andeq	r0, r0, r3, asr #15
    2490:	2c016d01 	stccs	13, cr6, [r1], {1}
    2494:	26000000 	strcs	r0, [r0], -r0
    2498:	1100001a 	tstne	r0, sl, lsl r0
    249c:	00009298 	muleq	r0, r8, r2
    24a0:	00000841 	andeq	r0, r0, r1, asr #16
    24a4:	0092a811 	addseq	sl, r2, r1, lsl r8
    24a8:	00087e00 	andeq	r7, r8, r0, lsl #28
    24ac:	b0180000 	andslt	r0, r8, r0
    24b0:	2c000092 	stccs	0, cr0, [r0], {146}	; 0x92
    24b4:	28000000 	stmdacs	r0, {}	; <UNPREDICTABLE>
    24b8:	17000006 	strne	r0, [r0, -r6]
    24bc:	000007c3 	andeq	r0, r0, r3, asr #15
    24c0:	2c017001 	stccs	0, cr7, [r1], {1}
    24c4:	40000000 	andmi	r0, r0, r0
    24c8:	1100001a 	tstne	r0, sl, lsl r0
    24cc:	000092bc 			; <UNDEFINED> instruction: 0x000092bc
    24d0:	00000841 	andeq	r0, r0, r1, asr #16
    24d4:	0092c811 	addseq	ip, r2, r1, lsl r8
    24d8:	00087e00 	andeq	r7, r8, r0, lsl #28
    24dc:	92d41100 	sbcsls	r1, r4, #0, 2
    24e0:	087e0000 	ldmdaeq	lr!, {}^	; <UNPREDICTABLE>
    24e4:	11000000 	mrsne	r0, (UNDEF: 0)
    24e8:	00009284 	andeq	r9, r0, r4, lsl #5
    24ec:	0000087e 	andeq	r0, r0, lr, ror r8
    24f0:	0092e011 	addseq	lr, r2, r1, lsl r0
    24f4:	00087e00 	andeq	r7, r8, r0, lsl #28
    24f8:	5a150000 	bpl	542500 <__bss_end__+0x537d68>
    24fc:	01000001 	tsteq	r0, r1
    2500:	92f40179 	rscsls	r0, r4, #1073741854	; 0x4000001e
    2504:	00580000 	subseq	r0, r8, r0
    2508:	9c010000 	stcls	0, cr0, [r1], {-0}
    250c:	000006a0 	andeq	r0, r0, r0, lsr #13
    2510:	6e697016 	mcrvs	0, 3, r7, cr9, cr6, {0}
    2514:	01790100 	cmneq	r9, r0, lsl #2
    2518:	0000002c 	andeq	r0, r0, ip, lsr #32
    251c:	00001a53 	andeq	r1, r0, r3, asr sl
    2520:	00930811 	addseq	r0, r3, r1, lsl r8
    2524:	00087e00 	andeq	r7, r8, r0, lsl #28
    2528:	93240a00 	teqls	r4, #0, 20
    252c:	08620000 	stmdaeq	r2!, {}^	; <UNPREDICTABLE>
    2530:	06800000 	streq	r0, [r0], r0
    2534:	010b0000 	mrseq	r0, (UNDEF: 11)
    2538:	74310451 	ldrtvc	r0, [r1], #-1105	; 0x451
    253c:	0a002400 	beq	b544 <__bss_end__+0xdac>
    2540:	00009340 	andeq	r9, r0, r0, asr #6
    2544:	00000862 	andeq	r0, r0, r2, ror #16
    2548:	00000696 	muleq	r0, r6, r6
    254c:	0451010b 	ldrbeq	r0, [r1], #-267	; 0x10b
    2550:	24007431 	strcs	r7, [r0], #-1073	; 0x431
    2554:	93441100 	movtls	r1, #16640	; 0x4100
    2558:	087e0000 	ldmdaeq	lr!, {}^	; <UNPREDICTABLE>
    255c:	19000000 	stmdbne	r0, {}	; <UNPREDICTABLE>
    2560:	000001f0 	strdeq	r0, [r0], -r0	; <UNPREDICTABLE>
    2564:	01332801 	teqeq	r3, r1, lsl #16
    2568:	03050000 	movweq	r0, #20480	; 0x5000
    256c:	00009ee8 	andeq	r9, r0, r8, ror #29
    2570:	0002c619 	andeq	ip, r2, r9, lsl r6
    2574:	33290100 	teqcc	r9, #0, 2
    2578:	05000001 	streq	r0, [r0, #-1]
    257c:	009ee403 	addseq	lr, lr, r3, lsl #8
    2580:	03fb1900 	mvnseq	r1, #0, 18
    2584:	2a010000 	bcs	4258c <__bss_end__+0x37df4>
    2588:	00000133 	andeq	r0, r0, r3, lsr r1
    258c:	9ee00305 	cdpls	3, 14, cr0, cr0, cr5, {0}
    2590:	32190000 	andscc	r0, r9, #0
    2594:	01000001 	tsteq	r0, r1
    2598:	0001332c 	andeq	r3, r1, ip, lsr #6
    259c:	8c030500 	cfstr32hi	mvfx0, [r3], {-0}
    25a0:	1900009e 	stmdbne	r0, {r1, r2, r3, r4, r7}
    25a4:	0000013a 	andeq	r0, r0, sl, lsr r1
    25a8:	01332d01 	teqeq	r3, r1, lsl #26
    25ac:	03050000 	movweq	r0, #20480	; 0x5000
    25b0:	00009e90 	muleq	r0, r0, lr
    25b4:	00002819 	andeq	r2, r0, r9, lsl r8
    25b8:	332e0100 	teqcc	lr, #0, 2
    25bc:	05000001 	streq	r0, [r0, #-1]
    25c0:	009e9403 	addseq	r9, lr, r3, lsl #8
    25c4:	01421900 	cmpeq	r2, r0, lsl #18
    25c8:	2f010000 	svccs	0x00010000
    25cc:	00000133 	andeq	r0, r0, r3, lsr r1
    25d0:	9e980305 	cdpls	3, 9, cr0, cr8, cr5, {0}
    25d4:	4a190000 	bmi	6425dc <__bss_end__+0x637e44>
    25d8:	01000001 	tsteq	r0, r1
    25dc:	00013330 	andeq	r3, r1, r0, lsr r3
    25e0:	9c030500 	cfstr32ls	mvfx0, [r3], {-0}
    25e4:	1900009e 	stmdbne	r0, {r1, r2, r3, r4, r7}
    25e8:	00000152 	andeq	r0, r0, r2, asr r1
    25ec:	01333101 	teqeq	r3, r1, lsl #2
    25f0:	03050000 	movweq	r0, #20480	; 0x5000
    25f4:	00009ea0 	andeq	r9, r0, r0, lsr #29
    25f8:	00029d19 	andeq	r9, r2, r9, lsl sp
    25fc:	33330100 	teqcc	r3, #0, 2
    2600:	05000001 	streq	r0, [r0, #-1]
    2604:	009ea403 	addseq	sl, lr, r3, lsl #8
    2608:	00b91900 	adcseq	r1, r9, r0, lsl #18
    260c:	34010000 	strcc	r0, [r1], #-0
    2610:	00000133 	andeq	r0, r0, r3, lsr r1
    2614:	9ea80305 	cdpls	3, 10, cr0, cr8, cr5, {0}
    2618:	30190000 	andscc	r0, r9, r0
    261c:	01000000 	mrseq	r0, (UNDEF: 0)
    2620:	00013336 	andeq	r3, r1, r6, lsr r3
    2624:	ac030500 	cfstr32ge	mvfx0, [r3], {-0}
    2628:	1900009e 	stmdbne	r0, {r1, r2, r3, r4, r7}
    262c:	000001fb 	strdeq	r0, [r0], -fp
    2630:	01333701 	teqeq	r3, r1, lsl #14
    2634:	03050000 	movweq	r0, #20480	; 0x5000
    2638:	00009eb0 			; <UNDEFINED> instruction: 0x00009eb0
    263c:	0000de19 	andeq	sp, r0, r9, lsl lr
    2640:	33390100 	teqcc	r9, #0, 2
    2644:	05000001 	streq	r0, [r0, #-1]
    2648:	009eb403 	addseq	fp, lr, r3, lsl #8
    264c:	00e51900 	rsceq	r1, r5, r0, lsl #18
    2650:	3a010000 	bcc	42658 <__bss_end__+0x37ec0>
    2654:	00000133 	andeq	r0, r0, r3, lsr r1
    2658:	9eb80305 	cdpls	3, 11, cr0, cr8, cr5, {0}
    265c:	f51a0000 			; <UNDEFINED> instruction: 0xf51a0000
    2660:	01000007 	tsteq	r0, r7
    2664:	0133010a 	teqeq	r3, sl, lsl #2
    2668:	03050000 	movweq	r0, #20480	; 0x5000
    266c:	00009edc 	ldrdeq	r9, [r0], -ip
    2670:	0008031a 	andeq	r0, r8, sl, lsl r3
    2674:	010b0100 	mrseq	r0, (UNDEF: 27)
    2678:	00000133 	andeq	r0, r0, r3, lsr r1
    267c:	9ebc0305 	cdpls	3, 11, cr0, cr12, cr5, {0}
    2680:	2a1a0000 	bcs	682688 <__bss_end__+0x677ef0>
    2684:	01000008 	tsteq	r0, r8
    2688:	0133010d 	teqeq	r3, sp, lsl #2
    268c:	03050000 	movweq	r0, #20480	; 0x5000
    2690:	00009ed4 	ldrdeq	r9, [r0], -r4
    2694:	0008311a 	andeq	r3, r8, sl, lsl r1
    2698:	010e0100 	mrseq	r0, (UNDEF: 30)
    269c:	00000133 	andeq	r0, r0, r3, lsr r1
    26a0:	9ed80305 	cdpls	3, 13, cr0, cr8, cr5, {0}
    26a4:	e71a0000 	ldr	r0, [sl, -r0]
    26a8:	01000007 	tsteq	r0, r7
    26ac:	01330110 	teqeq	r3, r0, lsl r1
    26b0:	03050000 	movweq	r0, #20480	; 0x5000
    26b4:	00009ec0 	andeq	r9, r0, r0, asr #29
    26b8:	0007ee1a 	andeq	lr, r7, sl, lsl lr
    26bc:	01110100 	tsteq	r1, r0, lsl #2
    26c0:	00000133 	andeq	r0, r0, r3, lsr r1
    26c4:	9ec40305 	cdpls	3, 12, cr0, cr4, cr5, {0}
    26c8:	381a0000 	ldmdacc	sl, {}	; <UNPREDICTABLE>
    26cc:	01000008 	tsteq	r0, r8
    26d0:	01330113 	teqeq	r3, r3, lsl r1
    26d4:	03050000 	movweq	r0, #20480	; 0x5000
    26d8:	00009ecc 	andeq	r9, r0, ip, asr #29
    26dc:	00083f1a 	andeq	r3, r8, sl, lsl pc
    26e0:	01140100 	tsteq	r4, r0, lsl #2
    26e4:	00000133 	andeq	r0, r0, r3, lsr r1
    26e8:	9ed00305 	cdpls	3, 13, cr0, cr0, cr5, {0}
    26ec:	8e1a0000 	cdphi	0, 1, cr0, cr10, cr0, {0}
    26f0:	01000007 	tsteq	r0, r7
    26f4:	01330116 	teqeq	r3, r6, lsl r1
    26f8:	03050000 	movweq	r0, #20480	; 0x5000
    26fc:	00009ec8 	andeq	r9, r0, r8, asr #29
    2700:	0008571b 	andeq	r5, r8, fp, lsl r7
    2704:	2c200100 	stfcss	f0, [r0], #-0
    2708:	56000000 	strpl	r0, [r0], -r0
    270c:	1c000008 	stcne	0, cr0, [r0], {8}
    2710:	00000856 	andeq	r0, r0, r6, asr r8
    2714:	5c040d00 	stcpl	13, cr0, [r4], {-0}
    2718:	1d000008 	stcne	0, cr0, [r0, #-32]	; 0xffffffe0
    271c:	00000861 	andeq	r0, r0, r1, ror #16
    2720:	07881f1e 	usada8eq	r8, lr, pc, r1	; <UNPREDICTABLE>
    2724:	1e010000 	cdpne	0, 0, cr0, cr1, cr0, {0}
    2728:	00000878 	andeq	r0, r0, r8, ror r8
    272c:	0008781c 	andeq	r7, r8, ip, lsl r8
    2730:	002c1c00 	eoreq	r1, ip, r0, lsl #24
    2734:	0d000000 	stceq	0, cr0, [r0, #-0]
    2738:	00086104 	andeq	r6, r8, r4, lsl #2
    273c:	027d2000 	rsbseq	r2, sp, #0
    2740:	8a030000 	bhi	c2748 <__bss_end__+0xb7fb0>
    2744:	0011f200 	andseq	pc, r1, r0, lsl #4
    2748:	1d000400 	cfstrsne	mvf0, [r0, #-0]
    274c:	0400000d 	streq	r0, [r0], #-13
    2750:	0002e401 	andeq	lr, r2, r1, lsl #8
    2754:	09630100 	stmdbeq	r3!, {r8}^
    2758:	04530000 	ldrbeq	r0, [r3], #-0
    275c:	934c0000 	movtls	r0, #49152	; 0xc000
    2760:	06680000 	strbteq	r0, [r8], -r0
    2764:	0bdd0000 	bleq	ff74276c <__bss_end__+0xff737fd4>
    2768:	04020000 	streq	r0, [r2], #-0
    276c:	746e6905 	strbtvc	r6, [lr], #-2309	; 0x905
    2770:	07040300 	streq	r0, [r4, -r0, lsl #6]
    2774:	0000006c 	andeq	r0, r0, ip, rrx
    2778:	8b060103 	blhi	182b8c <__bss_end__+0x1783f4>
    277c:	03000002 	movweq	r0, #2
    2780:	02a40502 	adceq	r0, r4, #8388608	; 0x800000
    2784:	04030000 	streq	r0, [r3], #-0
    2788:	00008f05 	andeq	r8, r0, r5, lsl #30
    278c:	05080300 	streq	r0, [r8, #-768]	; 0x300
    2790:	0000008a 	andeq	r0, r0, sl, lsl #1
    2794:	0003d104 	andeq	sp, r3, r4, lsl #2
    2798:	5a2e0300 	bpl	b833a0 <__bss_end__+0xb78c08>
    279c:	03000000 	movweq	r0, #0
    27a0:	02890801 	addeq	r0, r9, #65536	; 0x10000
    27a4:	02030000 	andeq	r0, r3, #0
    27a8:	00017807 	andeq	r7, r1, r7, lsl #16
    27ac:	06930400 	ldreq	r0, [r3], r0, lsl #8
    27b0:	34030000 	strcc	r0, [r3], #-0
    27b4:	00000073 	andeq	r0, r0, r3, ror r0
    27b8:	67070403 	strvs	r0, [r7, -r3, lsl #8]
    27bc:	03000000 	movweq	r0, #0
    27c0:	00620708 	rsbeq	r0, r2, r8, lsl #14
    27c4:	04030000 	streq	r0, [r3], #-0
    27c8:	00022e07 	andeq	r2, r2, r7, lsl #28
    27cc:	06040500 	streq	r0, [r4], -r0, lsl #10
    27d0:	00009004 	andeq	r9, r0, r4
    27d4:	08010300 	stmdaeq	r1, {r8, r9}
    27d8:	00000292 	muleq	r0, r2, r2
    27dc:	009d0406 	addseq	r0, sp, r6, lsl #8
    27e0:	90070000 	andls	r0, r7, r0
    27e4:	08000000 	stmdaeq	r0, {}	; <UNPREDICTABLE>
    27e8:	d90e040c 	stmdble	lr, {r2, r3, sl}
    27ec:	09000000 	stmdbeq	r0, {}	; <UNPREDICTABLE>
    27f0:	04007874 	streq	r7, [r0], #-2164	; 0x874
    27f4:	00004f0f 	andeq	r4, r0, pc, lsl #30
    27f8:	72090000 	andvc	r0, r9, #0
    27fc:	0f040078 	svceq	0x00040078
    2800:	0000004f 	andeq	r0, r0, pc, asr #32
    2804:	06120a01 	ldreq	r0, [r2], -r1, lsl #20
    2808:	10040000 	andne	r0, r4, r0
    280c:	00000068 	andeq	r0, r0, r8, rrx
    2810:	05c30a04 	strbeq	r0, [r3, #2564]	; 0xa04
    2814:	11040000 	mrsne	r0, (UNDEF: 4)
    2818:	00000068 	andeq	r0, r0, r8, rrx
    281c:	fb040008 	blx	102846 <__bss_end__+0xf80ae>
    2820:	04000005 	streq	r0, [r0], #-5
    2824:	0000a212 	andeq	sl, r0, r2, lsl r2
    2828:	04220400 	strteq	r0, [r2], #-1024	; 0x400
    282c:	28050000 	stmdacs	r5, {}	; <UNPREDICTABLE>
    2830:	000000ef 	andeq	r0, r0, pc, ror #1
    2834:	0004490b 	andeq	r4, r4, fp, lsl #18
    2838:	00090400 	andeq	r0, r9, r0, lsl #8
    283c:	00000106 	andeq	r0, r0, r6, lsl #2
    2840:	00049c0c 	andeq	r9, r4, ip, lsl #24
    2844:	00008800 	andeq	r8, r0, r0, lsl #16
    2848:	04000000 	streq	r0, [r0], #-0
    284c:	0000044b 	andeq	r0, r0, fp, asr #8
    2850:	00e46205 	rsceq	r6, r4, r5, lsl #4
    2854:	270d0000 	strcs	r0, [sp, -r0]
    2858:	02000009 	andeq	r0, r0, #9
    285c:	013f0309 	teqeq	pc, r9, lsl #6
    2860:	260e0000 	strcs	r0, [lr], -r0
    2864:	02000006 	andeq	r0, r0, #6
    2868:	00002c09 	andeq	r2, r0, r9, lsl #24
    286c:	006e0f00 	rsbeq	r0, lr, r0, lsl #30
    2870:	002c0902 	eoreq	r0, ip, r2, lsl #18
    2874:	11100000 	tstne	r0, r0
    2878:	0000025f 	andeq	r0, r0, pc, asr r2
    287c:	002c0c02 	eoreq	r0, ip, r2, lsl #24
    2880:	00000000 	andeq	r0, r0, r0
    2884:	0008da0d 	andeq	sp, r8, sp, lsl #20
    2888:	03170200 	tsteq	r7, #0, 4
    288c:	00000176 	andeq	r0, r0, r6, ror r1
    2890:	6e69700f 	cdpvs	0, 6, cr7, cr9, cr15, {0}
    2894:	2c170200 	lfmcs	f0, 4, [r7], {-0}
    2898:	0f000000 	svceq	0x00000000
    289c:	17020076 	smlsdxne	r2, r6, r0, r0
    28a0:	0000002c 	andeq	r0, r0, ip, lsr #32
    28a4:	0006260e 	andeq	r2, r6, lr, lsl #12
    28a8:	2c170200 	lfmcs	f0, 4, [r7], {-0}
    28ac:	0e000000 	cdpeq	0, 0, cr0, cr0, cr0, {0}
    28b0:	0000092d 	andeq	r0, r0, sp, lsr #18
    28b4:	002c1702 	eoreq	r1, ip, r2, lsl #14
    28b8:	12000000 	andne	r0, r0, #0
    28bc:	00000637 	andeq	r0, r0, r7, lsr r6
    28c0:	934c0901 	movtls	r0, #51457	; 0xc901
    28c4:	01540000 	cmpeq	r4, r0
    28c8:	9c010000 	stcls	0, cr0, [r1], {-0}
    28cc:	00000722 	andeq	r0, r0, r2, lsr #14
    28d0:	0005d913 	andeq	sp, r5, r3, lsl r9
    28d4:	22090100 	andcs	r0, r9, #0, 2
    28d8:	7f000007 	svcvc	0x00000007
    28dc:	1400001a 	strne	r0, [r0], #-26
    28e0:	09010063 	stmdbeq	r1, {r0, r1, r5, r6}
    28e4:	0000005a 	andeq	r0, r0, sl, asr r0
    28e8:	00001aa0 	andeq	r1, r0, r0, lsr #21
    28ec:	00787415 	rsbseq	r7, r8, r5, lsl r4
    28f0:	00250b01 	eoreq	r0, r5, r1, lsl #22
    28f4:	76060000 	strvc	r0, [r6], -r0
    28f8:	1aff0800 	bne	fffc4900 <__bss_end__+0xfffba168>
    28fc:	006e169f 	mlseq	lr, pc, r6, r1	; <UNPREDICTABLE>
    2900:	00680c01 	rsbeq	r0, r8, r1, lsl #24
    2904:	1ac10000 	bne	ff04290c <__bss_end__+0xff038174>
    2908:	75160000 	ldrvc	r0, [r6, #-0]
    290c:	680d0100 	stmdavs	sp, {r8}
    2910:	d4000000 	strle	r0, [r0], #-0
    2914:	1500001a 	strne	r0, [r0, #-26]
    2918:	0e010073 	mcreq	0, 0, r0, cr1, cr3, {3}
    291c:	00000068 	andeq	r0, r0, r8, rrx
    2920:	5c175401 	cfldrspl	mvf5, [r7], {1}
    2924:	04000093 	streq	r0, [r0], #-147	; 0x93
    2928:	f8000000 			; <UNDEFINED> instruction: 0xf8000000
    292c:	18000001 	stmdane	r0, {r0}
    2930:	0000025f 	andeq	r0, r0, pc, asr r2
    2934:	002c0e01 	eoreq	r0, ip, r1, lsl #28
    2938:	54010000 	strpl	r0, [r1], #-0
    293c:	013f1900 	teqeq	pc, r0, lsl #18
    2940:	93600000 	cmnls	r0, #0
    2944:	001c0000 	andseq	r0, ip, r0
    2948:	11010000 	mrsne	r0, (UNDEF: 1)
    294c:	00000275 	andeq	r0, r0, r5, ror r2
    2950:	00016a1a 	andeq	r6, r1, sl, lsl sl
    2954:	001afd00 	andseq	pc, sl, r0, lsl #26
    2958:	015f1b00 	cmpeq	pc, r0, lsl #22
    295c:	54010000 	strpl	r0, [r1], #-0
    2960:	0001561c 	andeq	r5, r1, ip, lsl r6
    2964:	4b1b0000 	blmi	6c296c <__bss_end__+0x6b81d4>
    2968:	01000001 	tsteq	r0, r1
    296c:	01111956 	tsteq	r1, r6, asr r9
    2970:	936c0000 	cmnls	ip, #0
    2974:	00100000 	andseq	r0, r0, r0
    2978:	1a020000 	bne	82980 <__bss_end__+0x781e8>
    297c:	0000025f 	andeq	r0, r0, pc, asr r2
    2980:	0001281a 	andeq	r2, r1, sl, lsl r8
    2984:	001b1000 	andseq	r1, fp, r0
    2988:	011d1b00 	tsteq	sp, r0, lsl #22
    298c:	54010000 	strpl	r0, [r1], #-0
    2990:	00936c1d 	addseq	r6, r3, sp, lsl ip
    2994:	00000400 	andeq	r0, r0, r0, lsl #8
    2998:	01321e00 	teqeq	r2, r0, lsl #28
    299c:	1b230000 	blne	8c29a4 <__bss_end__+0x8b820c>
    29a0:	00000000 	andeq	r0, r0, r0
    29a4:	00936c1f 	addseq	r6, r3, pc, lsl ip
    29a8:	00115900 	andseq	r5, r1, r0, lsl #18
    29ac:	51012000 	mrspl	r2, (UNDEF: 1)
    29b0:	01203001 	teqeq	r0, r1
    29b4:	00760250 	rsbseq	r0, r6, r0, asr r2
    29b8:	3f190000 	svccc	0x00190000
    29bc:	80000001 	andhi	r0, r0, r1
    29c0:	1c000093 	stcne	0, cr0, [r0], {147}	; 0x93
    29c4:	01000000 	mrseq	r0, (UNDEF: 0)
    29c8:	0002f813 	andeq	pc, r2, r3, lsl r8	; <UNPREDICTABLE>
    29cc:	016a1a00 	cmneq	sl, r0, lsl #20
    29d0:	1b360000 	blne	d829d8 <__bss_end__+0xd78240>
    29d4:	5f1b0000 	svcpl	0x001b0000
    29d8:	01000001 	tsteq	r0, r1
    29dc:	01561a54 	cmpeq	r6, r4, asr sl
    29e0:	1b580000 	blne	16029e8 <__bss_end__+0x15f8250>
    29e4:	4b1b0000 	blmi	6c29ec <__bss_end__+0x6b8254>
    29e8:	01000001 	tsteq	r0, r1
    29ec:	01111956 	tsteq	r1, r6, asr r9
    29f0:	938c0000 	orrls	r0, ip, #0
    29f4:	00100000 	andseq	r0, r0, r0
    29f8:	1a020000 	bne	82a00 <__bss_end__+0x78268>
    29fc:	000002df 	ldrdeq	r0, [r0], -pc	; <UNPREDICTABLE>
    2a00:	0001281a 	andeq	r2, r1, sl, lsl r8
    2a04:	001b8900 	andseq	r8, fp, r0, lsl #18
    2a08:	011d1b00 	tsteq	sp, r0, lsl #22
    2a0c:	54010000 	strpl	r0, [r1], #-0
    2a10:	00938c1d 	addseq	r8, r3, sp, lsl ip
    2a14:	00000400 	andeq	r0, r0, r0, lsl #8
    2a18:	01321e00 	teqeq	r2, r0, lsl #28
    2a1c:	1bab0000 	blne	feac2a24 <__bss_end__+0xfeab828c>
    2a20:	00000000 	andeq	r0, r0, r0
    2a24:	00938c1f 	addseq	r8, r3, pc, lsl ip
    2a28:	00115900 	andseq	r5, r1, r0, lsl #18
    2a2c:	51012000 	mrspl	r2, (UNDEF: 1)
    2a30:	31007704 	tstcc	r0, r4, lsl #14
    2a34:	5001201a 	andpl	r2, r1, sl, lsl r0
    2a38:	00007602 	andeq	r7, r0, r2, lsl #12
    2a3c:	013f1900 	teqeq	pc, r0, lsl #18
    2a40:	93a00000 	movls	r0, #0
    2a44:	001c0000 	andseq	r0, ip, r0
    2a48:	15010000 	strne	r0, [r1, #-0]
    2a4c:	00000380 	andeq	r0, r0, r0, lsl #7
    2a50:	00016a1a 	andeq	r6, r1, sl, lsl sl
    2a54:	001bbe00 	andseq	fp, fp, r0, lsl #28
    2a58:	015f1b00 	cmpeq	pc, r0, lsl #22
    2a5c:	54010000 	strpl	r0, [r1], #-0
    2a60:	0001561b 	andeq	r5, r1, fp, lsl r6
    2a64:	00770800 	rsbseq	r0, r7, r0, lsl #16
    2a68:	ff081a32 			; <UNDEFINED> instruction: 0xff081a32
    2a6c:	4b1b9f1a 	blmi	6ea6dc <__bss_end__+0x6dff44>
    2a70:	01000001 	tsteq	r0, r1
    2a74:	01111956 	tsteq	r1, r6, asr r9
    2a78:	93ac0000 			; <UNDEFINED> instruction: 0x93ac0000
    2a7c:	00100000 	andseq	r0, r0, r0
    2a80:	1a020000 	bne	82a88 <__bss_end__+0x782f0>
    2a84:	00000367 	andeq	r0, r0, r7, ror #6
    2a88:	0001281a 	andeq	r2, r1, sl, lsl r8
    2a8c:	001be300 	andseq	lr, fp, r0, lsl #6
    2a90:	011d1b00 	tsteq	sp, r0, lsl #22
    2a94:	54010000 	strpl	r0, [r1], #-0
    2a98:	0093ac1d 	addseq	sl, r3, sp, lsl ip
    2a9c:	00000400 	andeq	r0, r0, r0, lsl #8
    2aa0:	01321e00 	teqeq	r2, r0, lsl #28
    2aa4:	1c080000 	stcne	0, cr0, [r8], {-0}
    2aa8:	00000000 	andeq	r0, r0, r0
    2aac:	0093ac1f 	addseq	sl, r3, pc, lsl ip
    2ab0:	00115900 	andseq	r5, r1, r0, lsl #18
    2ab4:	51012000 	mrspl	r2, (UNDEF: 1)
    2ab8:	32007704 	andcc	r7, r0, #4, 14	; 0x100000
    2abc:	5001201a 	andpl	r2, r1, sl, lsl r0
    2ac0:	00007602 	andeq	r7, r0, r2, lsl #12
    2ac4:	013f1900 	teqeq	pc, r0, lsl #18
    2ac8:	93c00000 	bicls	r0, r0, #0
    2acc:	001c0000 	andseq	r0, ip, r0
    2ad0:	17010000 	strne	r0, [r1, -r0]
    2ad4:	00000408 	andeq	r0, r0, r8, lsl #8
    2ad8:	00016a1a 	andeq	r6, r1, sl, lsl sl
    2adc:	001c1b00 	andseq	r1, ip, r0, lsl #22
    2ae0:	015f1b00 	cmpeq	pc, r0, lsl #22
    2ae4:	54010000 	strpl	r0, [r1], #-0
    2ae8:	0001561b 	andeq	r5, r1, fp, lsl r6
    2aec:	00770800 	rsbseq	r0, r7, r0, lsl #16
    2af0:	ff081a34 			; <UNDEFINED> instruction: 0xff081a34
    2af4:	4b1b9f1a 	blmi	6ea764 <__bss_end__+0x6dffcc>
    2af8:	01000001 	tsteq	r0, r1
    2afc:	01111956 	tsteq	r1, r6, asr r9
    2b00:	93cc0000 	bicls	r0, ip, #0
    2b04:	00100000 	andseq	r0, r0, r0
    2b08:	1a020000 	bne	82b10 <__bss_end__+0x78378>
    2b0c:	000003ef 	andeq	r0, r0, pc, ror #7
    2b10:	0001281a 	andeq	r2, r1, sl, lsl r8
    2b14:	001c3d00 	andseq	r3, ip, r0, lsl #26
    2b18:	011d1b00 	tsteq	sp, r0, lsl #22
    2b1c:	54010000 	strpl	r0, [r1], #-0
    2b20:	0093cc1d 	addseq	ip, r3, sp, lsl ip
    2b24:	00000400 	andeq	r0, r0, r0, lsl #8
    2b28:	01321e00 	teqeq	r2, r0, lsl #28
    2b2c:	1c5f0000 	mrane	r0, pc, acc0
    2b30:	00000000 	andeq	r0, r0, r0
    2b34:	0093cc1f 	addseq	ip, r3, pc, lsl ip
    2b38:	00115900 	andseq	r5, r1, r0, lsl #18
    2b3c:	51012000 	mrspl	r2, (UNDEF: 1)
    2b40:	34007704 	strcc	r7, [r0], #-1796	; 0x704
    2b44:	5001201a 	andpl	r2, r1, sl, lsl r0
    2b48:	00007602 	andeq	r7, r0, r2, lsl #12
    2b4c:	013f1900 	teqeq	pc, r0, lsl #18
    2b50:	93e00000 	mvnls	r0, #0
    2b54:	001c0000 	andseq	r0, ip, r0
    2b58:	19010000 	stmdbne	r1, {}	; <UNPREDICTABLE>
    2b5c:	00000490 	muleq	r0, r0, r4
    2b60:	00016a1a 	andeq	r6, r1, sl, lsl sl
    2b64:	001c7200 	andseq	r7, ip, r0, lsl #4
    2b68:	015f1b00 	cmpeq	pc, r0, lsl #22
    2b6c:	54010000 	strpl	r0, [r1], #-0
    2b70:	0001561b 	andeq	r5, r1, fp, lsl r6
    2b74:	00770800 	rsbseq	r0, r7, r0, lsl #16
    2b78:	ff081a38 			; <UNDEFINED> instruction: 0xff081a38
    2b7c:	4b1b9f1a 	blmi	6ea7ec <__bss_end__+0x6e0054>
    2b80:	01000001 	tsteq	r0, r1
    2b84:	01111956 	tsteq	r1, r6, asr r9
    2b88:	93ec0000 	mvnls	r0, #0
    2b8c:	00100000 	andseq	r0, r0, r0
    2b90:	1a020000 	bne	82b98 <__bss_end__+0x78400>
    2b94:	00000477 	andeq	r0, r0, r7, ror r4
    2b98:	0001281a 	andeq	r2, r1, sl, lsl r8
    2b9c:	001c9700 	andseq	r9, ip, r0, lsl #14
    2ba0:	011d1b00 	tsteq	sp, r0, lsl #22
    2ba4:	54010000 	strpl	r0, [r1], #-0
    2ba8:	0093ec1d 	addseq	lr, r3, sp, lsl ip
    2bac:	00000400 	andeq	r0, r0, r0, lsl #8
    2bb0:	01321e00 	teqeq	r2, r0, lsl #28
    2bb4:	1cbc0000 	ldcne	0, cr0, [ip]
    2bb8:	00000000 	andeq	r0, r0, r0
    2bbc:	0093ec1f 	addseq	lr, r3, pc, lsl ip
    2bc0:	00115900 	andseq	r5, r1, r0, lsl #18
    2bc4:	51012000 	mrspl	r2, (UNDEF: 1)
    2bc8:	38007704 	stmdacc	r0, {r2, r8, r9, sl, ip, sp, lr}
    2bcc:	5001201a 	andpl	r2, r1, sl, lsl r0
    2bd0:	00007602 	andeq	r7, r0, r2, lsl #12
    2bd4:	013f1900 	teqeq	pc, r0, lsl #18
    2bd8:	94000000 	strls	r0, [r0], #-0
    2bdc:	001c0000 	andseq	r0, ip, r0
    2be0:	1b010000 	blne	42be8 <__bss_end__+0x38450>
    2be4:	00000518 	andeq	r0, r0, r8, lsl r5
    2be8:	00016a1a 	andeq	r6, r1, sl, lsl sl
    2bec:	001ccf00 	andseq	ip, ip, r0, lsl #30
    2bf0:	015f1b00 	cmpeq	pc, r0, lsl #22
    2bf4:	54010000 	strpl	r0, [r1], #-0
    2bf8:	0001561b 	andeq	r5, r1, fp, lsl r6
    2bfc:	00770800 	rsbseq	r0, r7, r0, lsl #16
    2c00:	ff081a40 			; <UNDEFINED> instruction: 0xff081a40
    2c04:	4b1b9f1a 	blmi	6ea874 <__bss_end__+0x6e00dc>
    2c08:	01000001 	tsteq	r0, r1
    2c0c:	01111956 	tsteq	r1, r6, asr r9
    2c10:	940c0000 	strls	r0, [ip], #-0
    2c14:	00100000 	andseq	r0, r0, r0
    2c18:	1a020000 	bne	82c20 <__bss_end__+0x78488>
    2c1c:	000004ff 	strdeq	r0, [r0], -pc	; <UNPREDICTABLE>
    2c20:	0001281a 	andeq	r2, r1, sl, lsl r8
    2c24:	001cf600 	andseq	pc, ip, r0, lsl #12
    2c28:	011d1b00 	tsteq	sp, r0, lsl #22
    2c2c:	54010000 	strpl	r0, [r1], #-0
    2c30:	00940c1d 	addseq	r0, r4, sp, lsl ip
    2c34:	00000400 	andeq	r0, r0, r0, lsl #8
    2c38:	01321e00 	teqeq	r2, r0, lsl #28
    2c3c:	1d1d0000 	ldcne	0, cr0, [sp, #-0]
    2c40:	00000000 	andeq	r0, r0, r0
    2c44:	00940c1f 	addseq	r0, r4, pc, lsl ip
    2c48:	00115900 	andseq	r5, r1, r0, lsl #18
    2c4c:	51012000 	mrspl	r2, (UNDEF: 1)
    2c50:	40007704 	andmi	r7, r0, r4, lsl #14
    2c54:	5001201a 	andpl	r2, r1, sl, lsl r0
    2c58:	00007602 	andeq	r7, r0, r2, lsl #12
    2c5c:	013f1900 	teqeq	pc, r0, lsl #18
    2c60:	94200000 	strtls	r0, [r0], #-0
    2c64:	001c0000 	andseq	r0, ip, r0
    2c68:	1d010000 	stcne	0, cr0, [r1, #-0]
    2c6c:	000005a2 	andeq	r0, r0, r2, lsr #11
    2c70:	00016a1a 	andeq	r6, r1, sl, lsl sl
    2c74:	001d3000 	andseq	r3, sp, r0
    2c78:	015f1b00 	cmpeq	pc, r0, lsl #22
    2c7c:	54010000 	strpl	r0, [r1], #-0
    2c80:	0001561b 	andeq	r5, r1, fp, lsl r6
    2c84:	00770900 	rsbseq	r0, r7, r0, lsl #18
    2c88:	081a2008 	ldmdaeq	sl, {r3, sp}
    2c8c:	1b9f1aff 	blne	fe7c9890 <__bss_end__+0xfe7bf0f8>
    2c90:	0000014b 	andeq	r0, r0, fp, asr #2
    2c94:	11195601 	tstne	r9, r1, lsl #12
    2c98:	2c000001 	stccs	0, cr0, [r0], {1}
    2c9c:	10000094 	mulne	r0, r4, r0
    2ca0:	02000000 	andeq	r0, r0, #0
    2ca4:	0005881a 	andeq	r8, r5, sl, lsl r8
    2ca8:	01281a00 	teqeq	r8, r0, lsl #20
    2cac:	1d5a0000 	ldclne	0, cr0, [sl, #-0]
    2cb0:	1d1b0000 	ldcne	0, cr0, [fp, #-0]
    2cb4:	01000001 	tsteq	r0, r1
    2cb8:	942c1d54 	strtls	r1, [ip], #-3412	; 0xd54
    2cbc:	00040000 	andeq	r0, r4, r0
    2cc0:	321e0000 	andscc	r0, lr, #0
    2cc4:	84000001 	strhi	r0, [r0], #-1
    2cc8:	0000001d 	andeq	r0, r0, sp, lsl r0
    2ccc:	942c1f00 	strtls	r1, [ip], #-3840	; 0xf00
    2cd0:	11590000 	cmpne	r9, r0
    2cd4:	01200000 	teqeq	r0, r0
    2cd8:	00770551 	rsbseq	r0, r7, r1, asr r5
    2cdc:	201a2008 	andscs	r2, sl, r8
    2ce0:	76025001 	strvc	r5, [r2], -r1
    2ce4:	19000000 	stmdbne	r0, {}	; <UNPREDICTABLE>
    2ce8:	0000013f 	andeq	r0, r0, pc, lsr r1
    2cec:	00009440 	andeq	r9, r0, r0, asr #8
    2cf0:	0000001c 	andeq	r0, r0, ip, lsl r0
    2cf4:	062c1f01 	strteq	r1, [ip], -r1, lsl #30
    2cf8:	6a1a0000 	bvs	682d00 <__bss_end__+0x678568>
    2cfc:	97000001 	strls	r0, [r0, -r1]
    2d00:	1b00001d 	blne	2d7c <_start-0x5284>
    2d04:	0000015f 	andeq	r0, r0, pc, asr r1
    2d08:	561b5401 	ldrpl	r5, [fp], -r1, lsl #8
    2d0c:	09000001 	stmdbeq	r0, {r0}
    2d10:	40080077 	andmi	r0, r8, r7, ror r0
    2d14:	1aff081a 	bne	fffc4d84 <__bss_end__+0xfffba5ec>
    2d18:	014b1b9f 			; <UNDEFINED> instruction: 0x014b1b9f
    2d1c:	56010000 	strpl	r0, [r1], -r0
    2d20:	00011119 	andeq	r1, r1, r9, lsl r1
    2d24:	00944c00 	addseq	r4, r4, r0, lsl #24
    2d28:	00001000 	andeq	r1, r0, r0
    2d2c:	121a0200 	andsne	r0, sl, #0, 4
    2d30:	1a000006 	bne	2d50 <_start-0x52b0>
    2d34:	00000128 	andeq	r0, r0, r8, lsr #2
    2d38:	00001db9 			; <UNDEFINED> instruction: 0x00001db9
    2d3c:	00011d1b 	andeq	r1, r1, fp, lsl sp
    2d40:	1d540100 	ldfnee	f0, [r4, #-0]
    2d44:	0000944c 	andeq	r9, r0, ip, asr #8
    2d48:	00000004 	andeq	r0, r0, r4
    2d4c:	0001321e 	andeq	r3, r1, lr, lsl r2
    2d50:	001ddb00 	andseq	sp, sp, r0, lsl #22
    2d54:	1f000000 	svcne	0x00000000
    2d58:	0000944c 	andeq	r9, r0, ip, asr #8
    2d5c:	00001159 	andeq	r1, r0, r9, asr r1
    2d60:	05510120 	ldrbeq	r0, [r1, #-288]	; 0x120
    2d64:	40080077 	andmi	r0, r8, r7, ror r0
    2d68:	5001201a 	andpl	r2, r1, sl, lsl r0
    2d6c:	00007602 	andeq	r7, r0, r2, lsl #12
    2d70:	013f1900 	teqeq	pc, r0, lsl #18
    2d74:	94600000 	strbtls	r0, [r0], #-0
    2d78:	001c0000 	andseq	r0, ip, r0
    2d7c:	21010000 	mrscs	r0, (UNDEF: 1)
    2d80:	000006ac 	andeq	r0, r0, ip, lsr #13
    2d84:	00016a1b 	andeq	r6, r1, fp, lsl sl
    2d88:	1b580100 	blne	1603190 <__bss_end__+0x15f89f8>
    2d8c:	0000015f 	andeq	r0, r0, pc, asr r1
    2d90:	561a5401 	ldrpl	r5, [sl], -r1, lsl #8
    2d94:	ee000001 	cdp	0, 0, cr0, cr0, cr1, {0}
    2d98:	1b00001d 	blne	2e14 <_start-0x51ec>
    2d9c:	0000014b 	andeq	r0, r0, fp, asr #2
    2da0:	11195601 	tstne	r9, r1, lsl #12
    2da4:	6c000001 	stcvs	0, cr0, [r0], {1}
    2da8:	10000094 	mulne	r0, r4, r0
    2dac:	02000000 	andeq	r0, r0, #0
    2db0:	0006921a 	andeq	r9, r6, sl, lsl r2
    2db4:	01281b00 	teqeq	r8, r0, lsl #22
    2db8:	58010000 	stmdapl	r1, {}	; <UNPREDICTABLE>
    2dbc:	00011d1b 	andeq	r1, r1, fp, lsl sp
    2dc0:	1d540100 	ldfnee	f0, [r4, #-0]
    2dc4:	0000946c 	andeq	r9, r0, ip, ror #8
    2dc8:	00000004 	andeq	r0, r0, r4
    2dcc:	0001321e 	andeq	r3, r1, lr, lsl r2
    2dd0:	001e2100 	andseq	r2, lr, r0, lsl #2
    2dd4:	1f000000 	svcne	0x00000000
    2dd8:	0000946c 	andeq	r9, r0, ip, ror #8
    2ddc:	00001159 	andeq	r1, r0, r9, asr r1
    2de0:	05510120 	ldrbeq	r0, [r1, #-288]	; 0x120
    2de4:	80080077 	andhi	r0, r8, r7, ror r0
    2de8:	5001201a 	andpl	r2, r1, sl, lsl r0
    2dec:	00007602 	andeq	r7, r0, r2, lsl #12
    2df0:	013f2100 	teqeq	pc, r0, lsl #2
    2df4:	94800000 	strls	r0, [r0], #0
    2df8:	001c0000 	andseq	r0, ip, r0
    2dfc:	23010000 	movwcs	r0, #4096	; 0x1000
    2e00:	00016a1b 	andeq	r6, r1, fp, lsl sl
    2e04:	1b550100 	blne	154320c <__bss_end__+0x1538a74>
    2e08:	0000015f 	andeq	r0, r0, pc, asr r1
    2e0c:	561c5401 	ldrpl	r5, [ip], -r1, lsl #8
    2e10:	01000001 	tsteq	r0, r1
    2e14:	00014b1b 	andeq	r4, r1, fp, lsl fp
    2e18:	19560100 	ldmdbne	r6, {r8}^
    2e1c:	00000111 	andeq	r0, r0, r1, lsl r1
    2e20:	0000948c 	andeq	r9, r0, ip, lsl #9
    2e24:	00000010 	andeq	r0, r0, r0, lsl r0
    2e28:	070b1a02 	streq	r1, [fp, -r2, lsl #20]
    2e2c:	281b0000 	ldmdacs	fp, {}	; <UNPREDICTABLE>
    2e30:	01000001 	tsteq	r0, r1
    2e34:	011d1b55 	tsteq	sp, r5, asr fp
    2e38:	54010000 	strpl	r0, [r1], #-0
    2e3c:	00948c1d 	addseq	r8, r4, sp, lsl ip
    2e40:	00000400 	andeq	r0, r0, r0, lsl #8
    2e44:	01321e00 	teqeq	r2, r0, lsl #28
    2e48:	1e340000 	cdpne	0, 3, cr0, cr4, cr0, {0}
    2e4c:	00000000 	andeq	r0, r0, r0
    2e50:	00948c1f 	addseq	r8, r4, pc, lsl ip
    2e54:	00115900 	andseq	r5, r1, r0, lsl #18
    2e58:	51012000 	mrspl	r2, (UNDEF: 1)
    2e5c:	01203101 	teqeq	r0, r1, lsl #2
    2e60:	00760250 	rsbseq	r0, r6, r0, asr r2
    2e64:	06000000 	streq	r0, [r0], -r0
    2e68:	0000d904 	andeq	sp, r0, r4, lsl #18
    2e6c:	09bc2200 	ldmibeq	ip!, {r9, sp}
    2e70:	27010000 	strcs	r0, [r1, -r0]
    2e74:	00000025 	andeq	r0, r0, r5, lsr #32
    2e78:	00076203 	andeq	r6, r7, r3, lsl #4
    2e7c:	78720f00 	ldmdavc	r2!, {r8, r9, sl, fp}^
    2e80:	25270100 	strcs	r0, [r7, #-256]!	; 0x100
    2e84:	0f000000 	svceq	0x00000000
    2e88:	27010076 	smlsdxcs	r1, r6, r0, r0
    2e8c:	00000025 	andeq	r0, r0, r5, lsr #32
    2e90:	0009490e 	andeq	r4, r9, lr, lsl #18
    2e94:	2c270100 	stfcss	f0, [r7], #-0
    2e98:	11000000 	mrsne	r0, (UNDEF: 0)
    2e9c:	00000626 	andeq	r0, r0, r6, lsr #12
    2ea0:	002c2801 	eoreq	r2, ip, r1, lsl #16
    2ea4:	23000000 	movwcs	r0, #0
    2ea8:	000008ea 	andeq	r0, r0, sl, ror #17
    2eac:	00253401 	eoreq	r3, r5, r1, lsl #8
    2eb0:	94a00000 	strtls	r0, [r0], #0
    2eb4:	01c80000 	biceq	r0, r8, r0
    2eb8:	9c010000 	stcls	0, cr0, [r1], {-0}
    2ebc:	00000b1e 	andeq	r0, r0, lr, lsl fp
    2ec0:	0005d913 	andeq	sp, r5, r3, lsl r9
    2ec4:	22340100 	eorscs	r0, r4, #0, 2
    2ec8:	47000007 	strmi	r0, [r0, -r7]
    2ecc:	1300001e 	movwne	r0, #30
    2ed0:	00000949 	andeq	r0, r0, r9, asr #18
    2ed4:	00253401 	eoreq	r3, r5, r1, lsl #8
    2ed8:	1e8c0000 	cdpne	0, 8, cr0, cr12, cr0, {0}
    2edc:	72150000 	andsvc	r0, r5, #0
    2ee0:	35010078 	strcc	r0, [r1, #-120]	; 0x78
    2ee4:	00000025 	andeq	r0, r0, r5, lsr #32
    2ee8:	73165501 	tstvc	r6, #4194304	; 0x400000
    2eec:	2c3c0100 	ldfcss	f0, [ip], #-0
    2ef0:	aa000000 	bge	2ef8 <_start-0x5108>
    2ef4:	1600001e 			; <UNDEFINED> instruction: 0x1600001e
    2ef8:	3f010075 	svccc	0x00010075
    2efc:	00000068 	andeq	r0, r0, r8, rrx
    2f00:	00001ebd 			; <UNDEFINED> instruction: 0x00001ebd
    2f04:	01006e16 	tsteq	r0, r6, lsl lr
    2f08:	00002c40 	andeq	r2, r0, r0, asr #24
    2f0c:	001ed000 	andseq	sp, lr, r0
    2f10:	00631600 	rsbeq	r1, r3, r0, lsl #12
    2f14:	002c4101 	eoreq	r4, ip, r1, lsl #2
    2f18:	1ee70000 	cdpne	0, 14, cr0, cr7, cr0, {0}
    2f1c:	28190000 	ldmdacs	r9, {}	; <UNPREDICTABLE>
    2f20:	b4000007 	strlt	r0, [r0], #-7
    2f24:	34000094 	strcc	r0, [r0], #-148	; 0x94
    2f28:	01000000 	mrseq	r0, (UNDEF: 0)
    2f2c:	00083c38 	andeq	r3, r8, r8, lsr ip
    2f30:	074b1a00 	strbeq	r1, [fp, -r0, lsl #20]
    2f34:	1f110000 	svcne	0x00110000
    2f38:	421c0000 	andsmi	r0, ip, #0
    2f3c:	00000007 	andeq	r0, r0, r7
    2f40:	0007381b 	andeq	r3, r7, fp, lsl r8
    2f44:	1d550100 	ldfnee	f0, [r5, #-0]
    2f48:	000094b4 			; <UNDEFINED> instruction: 0x000094b4
    2f4c:	00000034 	andeq	r0, r0, r4, lsr r0
    2f50:	0007561e 	andeq	r5, r7, lr, lsl r6
    2f54:	001f2f00 	andseq	r2, pc, r0, lsl #30
    2f58:	94b82400 	ldrtls	r2, [r8], #1024	; 0x400
    2f5c:	116f0000 	cmnne	pc, r0
    2f60:	c4250000 	strtgt	r0, [r5], #-0
    2f64:	7a000094 	bvc	31bc <_start-0x4e44>
    2f68:	31000011 	tstcc	r0, r1, lsl r0
    2f6c:	20000008 	andcs	r0, r0, r8
    2f70:	75025001 	strvc	r5, [r2, #-1]
    2f74:	d0240000 	eorle	r0, r4, r0
    2f78:	6f000094 	svcvs	0x00000094
    2f7c:	00000011 	andeq	r0, r0, r1, lsl r0
    2f80:	94f01700 	ldrbtls	r1, [r0], #1792	; 0x700
    2f84:	00040000 	andeq	r0, r4, r0
    2f88:	08590000 	ldmdaeq	r9, {}^	; <UNPREDICTABLE>
    2f8c:	5f260000 	svcpl	0x00260000
    2f90:	01000002 	tsteq	r0, r2
    2f94:	00002c3c 	andeq	r2, r0, ip, lsr ip
    2f98:	001f4d00 	andseq	r4, pc, r0, lsl #26
    2f9c:	11190000 	tstne	r9, r0
    2fa0:	fc000001 	stc2	0, cr0, [r0], {1}
    2fa4:	10000094 	mulne	r0, r4, r0
    2fa8:	01000000 	mrseq	r0, (UNDEF: 0)
    2fac:	00089244 	andeq	r9, r8, r4, asr #4
    2fb0:	01281a00 	teqeq	r8, r0, lsl #20
    2fb4:	1f600000 	svcne	0x00600000
    2fb8:	1d1a0000 	ldcne	0, cr0, [sl, #-0]
    2fbc:	85000001 	strhi	r0, [r0, #-1]
    2fc0:	1d00001f 	stcne	0, cr0, [r0, #-124]	; 0xffffff84
    2fc4:	000094fc 	strdeq	r9, [r0], -ip
    2fc8:	00000004 	andeq	r0, r0, r4
    2fcc:	0001321e 	andeq	r3, r1, lr, lsl r2
    2fd0:	001f9800 	andseq	r9, pc, r0, lsl #16
    2fd4:	19000000 	stmdbne	r0, {}	; <UNPREDICTABLE>
    2fd8:	00000111 	andeq	r0, r0, r1, lsl r1
    2fdc:	0000951c 	andeq	r9, r0, ip, lsl r5
    2fe0:	00000010 	andeq	r0, r0, r0, lsl r0
    2fe4:	08cb4801 	stmiaeq	fp, {r0, fp, lr}^
    2fe8:	281a0000 	ldmdacs	sl, {}	; <UNPREDICTABLE>
    2fec:	ab000001 	blge	2ff8 <_start-0x5008>
    2ff0:	1a00001f 	bne	3074 <_start-0x4f8c>
    2ff4:	0000011d 	andeq	r0, r0, sp, lsl r1
    2ff8:	00001fbe 			; <UNDEFINED> instruction: 0x00001fbe
    2ffc:	00951c1d 	addseq	r1, r5, sp, lsl ip
    3000:	00000400 	andeq	r0, r0, r0, lsl #8
    3004:	01321e00 	teqeq	r2, r0, lsl #28
    3008:	1fd10000 	svcne	0x00d10000
    300c:	00000000 	andeq	r0, r0, r0
    3010:	00011119 	andeq	r1, r1, r9, lsl r1
    3014:	00954000 	addseq	r4, r5, r0
    3018:	00001000 	andeq	r1, r0, r0
    301c:	044b0100 	strbeq	r0, [fp], #-256	; 0x100
    3020:	1a000009 	bne	304c <_start-0x4fb4>
    3024:	00000128 	andeq	r0, r0, r8, lsr #2
    3028:	00001fe4 	andeq	r1, r0, r4, ror #31
    302c:	00011d1a 	andeq	r1, r1, sl, lsl sp
    3030:	001ff700 	andseq	pc, pc, r0, lsl #14
    3034:	95401d00 	strbls	r1, [r0, #-3328]	; 0xd00
    3038:	00040000 	andeq	r0, r4, r0
    303c:	321e0000 	andscc	r0, lr, #0
    3040:	0a000001 	beq	304c <_start-0x4fb4>
    3044:	00000020 	andeq	r0, r0, r0, lsr #32
    3048:	01111900 	tsteq	r1, r0, lsl #18
    304c:	95640000 	strbls	r0, [r4, #-0]!
    3050:	00100000 	andseq	r0, r0, r0
    3054:	4e010000 	cdpmi	0, 0, cr0, cr1, cr0, {0}
    3058:	0000093d 	andeq	r0, r0, sp, lsr r9
    305c:	0001281a 	andeq	r2, r1, sl, lsl r8
    3060:	00201d00 	eoreq	r1, r0, r0, lsl #26
    3064:	011d1a00 	tsteq	sp, r0, lsl #20
    3068:	20300000 	eorscs	r0, r0, r0
    306c:	641d0000 	ldrvs	r0, [sp], #-0
    3070:	04000095 	streq	r0, [r0], #-149	; 0x95
    3074:	1e000000 	cdpne	0, 0, cr0, cr0, cr0, {0}
    3078:	00000132 	andeq	r0, r0, r2, lsr r1
    307c:	00002043 	andeq	r2, r0, r3, asr #32
    3080:	11190000 	tstne	r9, r0
    3084:	88000001 	stmdahi	r0, {r0}
    3088:	10000095 	mulne	r0, r5, r0
    308c:	01000000 	mrseq	r0, (UNDEF: 0)
    3090:	00097651 	andeq	r7, r9, r1, asr r6
    3094:	01281a00 	teqeq	r8, r0, lsl #20
    3098:	20560000 	subscs	r0, r6, r0
    309c:	1d1a0000 	ldcne	0, cr0, [sl, #-0]
    30a0:	69000001 	stmdbvs	r0, {r0}
    30a4:	1d000020 	stcne	0, cr0, [r0, #-128]	; 0xffffff80
    30a8:	00009588 	andeq	r9, r0, r8, lsl #11
    30ac:	00000004 	andeq	r0, r0, r4
    30b0:	0001321e 	andeq	r3, r1, lr, lsl r2
    30b4:	00207c00 	eoreq	r7, r0, r0, lsl #24
    30b8:	19000000 	stmdbne	r0, {}	; <UNPREDICTABLE>
    30bc:	00000111 	andeq	r0, r0, r1, lsl r1
    30c0:	000095ac 	andeq	r9, r0, ip, lsr #11
    30c4:	00000010 	andeq	r0, r0, r0, lsl r0
    30c8:	09af5401 	stmibeq	pc!, {r0, sl, ip, lr}	; <UNPREDICTABLE>
    30cc:	281a0000 	ldmdacs	sl, {}	; <UNPREDICTABLE>
    30d0:	8f000001 	svchi	0x00000001
    30d4:	1a000020 	bne	315c <_start-0x4ea4>
    30d8:	0000011d 	andeq	r0, r0, sp, lsl r1
    30dc:	000020a2 	andeq	r2, r0, r2, lsr #1
    30e0:	0095ac1d 	addseq	sl, r5, sp, lsl ip
    30e4:	00000400 	andeq	r0, r0, r0, lsl #8
    30e8:	01321e00 	teqeq	r2, r0, lsl #28
    30ec:	20b50000 	adcscs	r0, r5, r0
    30f0:	00000000 	andeq	r0, r0, r0
    30f4:	00011119 	andeq	r1, r1, r9, lsl r1
    30f8:	0095d000 	addseq	sp, r5, r0
    30fc:	00001000 	andeq	r1, r0, r0
    3100:	e8570100 	ldmda	r7, {r8}^
    3104:	1a000009 	bne	3130 <_start-0x4ed0>
    3108:	00000128 	andeq	r0, r0, r8, lsr #2
    310c:	000020c8 	andeq	r2, r0, r8, asr #1
    3110:	00011d1a 	andeq	r1, r1, sl, lsl sp
    3114:	0020db00 	eoreq	sp, r0, r0, lsl #22
    3118:	95d01d00 	ldrbls	r1, [r0, #3328]	; 0xd00
    311c:	00040000 	andeq	r0, r4, r0
    3120:	321e0000 	andscc	r0, lr, #0
    3124:	ee000001 	cdp	0, 0, cr0, cr0, cr1, {0}
    3128:	00000020 	andeq	r0, r0, r0, lsr #32
    312c:	01111900 	tsteq	r1, r0, lsl #18
    3130:	95f40000 	ldrbls	r0, [r4, #0]!
    3134:	00100000 	andseq	r0, r0, r0
    3138:	5a010000 	bpl	43140 <__bss_end__+0x389a8>
    313c:	00000a1d 	andeq	r0, r0, sp, lsl sl
    3140:	0001281a 	andeq	r2, r1, sl, lsl r8
    3144:	00210100 	eoreq	r0, r1, r0, lsl #2
    3148:	011d2700 	tsteq	sp, r0, lsl #14
    314c:	f41d0000 			; <UNDEFINED> instruction: 0xf41d0000
    3150:	04000095 	streq	r0, [r0], #-149	; 0x95
    3154:	1e000000 	cdpne	0, 0, cr0, cr0, cr0, {0}
    3158:	00000132 	andeq	r0, r0, r2, lsr r1
    315c:	00002114 	andeq	r2, r0, r4, lsl r1
    3160:	28190000 	ldmdacs	r9, {}	; <UNPREDICTABLE>
    3164:	14000007 	strne	r0, [r0], #-7
    3168:	34000096 	strcc	r0, [r0], #-150	; 0x96
    316c:	01000000 	mrseq	r0, (UNDEF: 0)
    3170:	000a8161 	andeq	r8, sl, r1, ror #2
    3174:	074b2700 	strbeq	r2, [fp, -r0, lsl #14]
    3178:	421a0000 	andsmi	r0, sl, #0
    317c:	27000007 	strcs	r0, [r0, -r7]
    3180:	1a000021 	bne	320c <_start-0x4df4>
    3184:	00000738 	andeq	r0, r0, r8, lsr r7
    3188:	00002147 	andeq	r2, r0, r7, asr #2
    318c:	0096141d 	addseq	r1, r6, sp, lsl r4
    3190:	00003400 	andeq	r3, r0, r0, lsl #8
    3194:	07561e00 	ldrbeq	r1, [r6, -r0, lsl #28]
    3198:	21650000 	cmncs	r5, r0
    319c:	18240000 	stmdane	r4!, {}	; <UNPREDICTABLE>
    31a0:	6f000096 	svcvs	0x00000096
    31a4:	25000011 	strcs	r0, [r0, #-17]
    31a8:	00009624 	andeq	r9, r0, r4, lsr #12
    31ac:	0000117a 	andeq	r1, r0, sl, ror r1
    31b0:	00000a76 	andeq	r0, r0, r6, ror sl
    31b4:	02500120 	subseq	r0, r0, #32, 2
    31b8:	24000075 	strcs	r0, [r0], #-117	; 0x75
    31bc:	00009630 	andeq	r9, r0, r0, lsr r6
    31c0:	0000116f 	andeq	r1, r0, pc, ror #2
    31c4:	18250000 	stmdane	r5!, {}	; <UNPREDICTABLE>
    31c8:	7a000095 	bvc	3424 <_start-0x4bdc>
    31cc:	95000011 	strls	r0, [r0, #-17]
    31d0:	2000000a 	andcs	r0, r0, sl
    31d4:	75025001 	strvc	r5, [r2, #-1]
    31d8:	38250000 	stmdacc	r5!, {}	; <UNPREDICTABLE>
    31dc:	7a000095 	bvc	3438 <_start-0x4bc8>
    31e0:	a9000011 	stmdbge	r0, {r0, r4}
    31e4:	2000000a 	andcs	r0, r0, sl
    31e8:	75025001 	strvc	r5, [r2, #-1]
    31ec:	5c250000 	stcpl	0, cr0, [r5], #-0
    31f0:	7a000095 	bvc	344c <_start-0x4bb4>
    31f4:	bd000011 	stclt	0, cr0, [r0, #-68]	; 0xffffffbc
    31f8:	2000000a 	andcs	r0, r0, sl
    31fc:	75025001 	strvc	r5, [r2, #-1]
    3200:	80250000 	eorhi	r0, r5, r0
    3204:	7a000095 	bvc	3460 <_start-0x4ba0>
    3208:	d1000011 	tstle	r0, r1, lsl r0
    320c:	2000000a 	andcs	r0, r0, sl
    3210:	75025001 	strvc	r5, [r2, #-1]
    3214:	a4250000 	strtge	r0, [r5], #-0
    3218:	7a000095 	bvc	3474 <_start-0x4b8c>
    321c:	e5000011 	str	r0, [r0, #-17]
    3220:	2000000a 	andcs	r0, r0, sl
    3224:	75025001 	strvc	r5, [r2, #-1]
    3228:	c8250000 	stmdagt	r5!, {}	; <UNPREDICTABLE>
    322c:	7a000095 	bvc	3488 <_start-0x4b78>
    3230:	f9000011 			; <UNDEFINED> instruction: 0xf9000011
    3234:	2000000a 	andcs	r0, r0, sl
    3238:	75025001 	strvc	r5, [r2, #-1]
    323c:	ec250000 	stc	0, cr0, [r5], #-0
    3240:	7a000095 	bvc	349c <_start-0x4b64>
    3244:	0d000011 	stceq	0, cr0, [r0, #-68]	; 0xffffffbc
    3248:	2000000b 	andcs	r0, r0, fp
    324c:	75025001 	strvc	r5, [r2, #-1]
    3250:	0c1f0000 	ldceq	0, cr0, [pc], {-0}
    3254:	7a000096 	bvc	34b4 <_start-0x4b4c>
    3258:	20000011 	andcs	r0, r0, r1, lsl r0
    325c:	75025001 	strvc	r5, [r2, #-1]
    3260:	23000000 	movwcs	r0, #0
    3264:	000008ff 	strdeq	r0, [r0], -pc	; <UNPREDICTABLE>
    3268:	00256c01 	eoreq	r6, r5, r1, lsl #24
    326c:	96680000 	strbtls	r0, [r8], -r0
    3270:	00a40000 	adceq	r0, r4, r0
    3274:	9c010000 	stcls	0, cr0, [r1], {-0}
    3278:	00000c0c 	andeq	r0, r0, ip, lsl #24
    327c:	01007514 	tsteq	r0, r4, lsl r5
    3280:	0007226c 	andeq	r2, r7, ip, ror #4
    3284:	00218300 	eoreq	r8, r1, r0, lsl #6
    3288:	75621400 	strbvc	r1, [r2, #-1024]!	; 0x400
    328c:	6c010066 	stcvs	0, cr0, [r1], {102}	; 0x66
    3290:	00000c0c 	andeq	r0, r0, ip, lsl #24
    3294:	000021c5 	andeq	r2, r0, r5, asr #3
    3298:	00099113 	andeq	r9, r9, r3, lsl r1
    329c:	686c0100 	stmdavs	ip!, {r8}^
    32a0:	07000000 	streq	r0, [r0, -r0]
    32a4:	14000022 	strne	r0, [r0], #-34	; 0x22
    32a8:	00646e65 	rsbeq	r6, r4, r5, ror #28
    32ac:	004f6c01 	subeq	r6, pc, r1, lsl #24
    32b0:	224e0000 	subcs	r0, lr, #0
    32b4:	98280000 	stmdals	r8!, {}	; <UNPREDICTABLE>
    32b8:	01000009 	tsteq	r0, r9
    32bc:	0000686c 	andeq	r6, r0, ip, ror #16
    32c0:	00910200 	addseq	r0, r1, r0, lsl #4
    32c4:	00016b29 	andeq	r6, r1, r9, lsr #22
    32c8:	000c2200 	andeq	r2, ip, r0, lsl #4
    32cc:	98030500 	stmdals	r3, {r8, sl}
    32d0:	160000a0 	strne	r0, [r0], -r0, lsr #1
    32d4:	70010069 	andvc	r0, r1, r9, rrx
    32d8:	00000025 	andeq	r0, r0, r5, lsr #32
    32dc:	00002288 	andeq	r2, r0, r8, lsl #5
    32e0:	00097426 	andeq	r7, r9, r6, lsr #8
    32e4:	4f710100 	svcmi	0x00710100
    32e8:	b2000000 	andlt	r0, r0, #0
    32ec:	24000022 	strcs	r0, [r0], #-34	; 0x22
    32f0:	0000968c 	andeq	r9, r0, ip, lsl #13
    32f4:	0000118f 	andeq	r1, r0, pc, lsl #3
    32f8:	0096a825 	addseq	sl, r6, r5, lsr #16
    32fc:	00119600 	andseq	r9, r1, r0, lsl #12
    3300:	000bec00 	andeq	lr, fp, r0, lsl #24
    3304:	53012000 	movwpl	r2, #4096	; 0x1000
    3308:	206d0802 	rsbcs	r0, sp, r2, lsl #16
    330c:	03055201 	movweq	r5, #20993	; 0x5201
    3310:	0000a098 	muleq	r0, r8, r0
    3314:	05510120 	ldrbeq	r0, [r1, #-288]	; 0x120
    3318:	00a11003 	adceq	r1, r1, r3
    331c:	50012000 	andpl	r2, r1, r0
    3320:	9f980305 	svcls	0x00980305
    3324:	02200000 	eoreq	r0, r0, #0
    3328:	0305007d 	movweq	r0, #20605	; 0x507d
    332c:	0000a124 	andeq	sl, r0, r4, lsr #2
    3330:	96ac2400 	strtls	r2, [ip], r0, lsl #8
    3334:	11ac0000 			; <UNDEFINED> instruction: 0x11ac0000
    3338:	c81f0000 	ldmdagt	pc, {}	; <UNPREDICTABLE>
    333c:	62000096 	andvs	r0, r0, #150	; 0x96
    3340:	20000007 	andcs	r0, r0, r7
    3344:	7a025101 	bvc	97750 <__bss_end__+0x8cfb8>
    3348:	50012000 	andpl	r2, r1, r0
    334c:	00007802 	andeq	r7, r0, r2, lsl #16
    3350:	4f040600 	svcmi	0x00040600
    3354:	2a000000 	bcs	335c <_start-0x4ca4>
    3358:	00000090 	muleq	r0, r0, r0
    335c:	00000c22 	andeq	r0, r0, r2, lsr #24
    3360:	0000812b 	andeq	r8, r0, fp, lsr #2
    3364:	07001200 	streq	r1, [r0, -r0, lsl #4]
    3368:	00000c12 	andeq	r0, r0, r2, lsl ip
    336c:	00097c23 	andeq	r7, r9, r3, lsr #24
    3370:	25800100 	strcs	r0, [r0, #256]	; 0x100
    3374:	0c000000 	stceq	0, cr0, [r0], {-0}
    3378:	90000097 	mulls	r0, r7, r0
    337c:	01000000 	mrseq	r0, (UNDEF: 0)
    3380:	000cf89c 	muleq	ip, ip, r8
    3384:	00751400 	rsbseq	r1, r5, r0, lsl #8
    3388:	07228001 	streq	r8, [r2, -r1]!
    338c:	22c50000 	sbccs	r0, r5, #0
    3390:	62140000 	andsvs	r0, r4, #0
    3394:	01006675 	tsteq	r0, r5, ror r6
    3398:	000c0c80 	andeq	r0, ip, r0, lsl #25
    339c:	00230700 	eoreq	r0, r3, r0, lsl #14
    33a0:	09911300 	ldmibeq	r1, {r8, r9, ip}
    33a4:	81010000 	mrshi	r0, (UNDEF: 1)
    33a8:	00000068 	andeq	r0, r0, r8, rrx
    33ac:	00002349 	andeq	r2, r0, r9, asr #6
    33b0:	00099813 	andeq	r9, r9, r3, lsl r8
    33b4:	68810100 	stmvs	r1, {r8}
    33b8:	90000000 	andls	r0, r0, r0
    33bc:	29000023 	stmdbcs	r0, {r0, r1, r5}
    33c0:	0000016b 	andeq	r0, r0, fp, ror #2
    33c4:	00000d08 	andeq	r0, r0, r8, lsl #26
    33c8:	a0ac0305 	adcge	r0, ip, r5, lsl #6
    33cc:	69160000 	ldmdbvs	r6, {}	; <UNPREDICTABLE>
    33d0:	25860100 	strcs	r0, [r6, #256]	; 0x100
    33d4:	d2000000 	andle	r0, r0, #0
    33d8:	24000023 	strcs	r0, [r0], #-35	; 0x23
    33dc:	0000972c 	andeq	r9, r0, ip, lsr #14
    33e0:	0000118f 	andeq	r1, r0, pc, lsl #3
    33e4:	00974825 	addseq	r4, r7, r5, lsr #16
    33e8:	00119600 	andseq	r9, r1, r0, lsl #12
    33ec:	000cd800 	andeq	sp, ip, r0, lsl #16
    33f0:	53012000 	movwpl	r2, #4096	; 0x1000
    33f4:	20830802 	addcs	r0, r3, r2, lsl #16
    33f8:	03055201 	movweq	r5, #20993	; 0x5201
    33fc:	0000a0ac 	andeq	sl, r0, ip, lsr #1
    3400:	05510120 	ldrbeq	r0, [r1, #-288]	; 0x120
    3404:	00a11003 	adceq	r1, r1, r3
    3408:	50012000 	andpl	r2, r1, r0
    340c:	9f980305 	svcls	0x00980305
    3410:	02200000 	eoreq	r0, r0, #0
    3414:	0305007d 	movweq	r0, #20605	; 0x507d
    3418:	0000a124 	andeq	sl, r0, r4, lsr #2
    341c:	974c2400 	strbls	r2, [ip, -r0, lsl #8]
    3420:	11ac0000 			; <UNDEFINED> instruction: 0x11ac0000
    3424:	681f0000 	ldmdavs	pc, {}	; <UNPREDICTABLE>
    3428:	62000097 	andvs	r0, r0, #151	; 0x97
    342c:	20000007 	andcs	r0, r0, r7
    3430:	78025101 	stmdavc	r2, {r0, r8, ip, lr}
    3434:	50012000 	andpl	r2, r1, r0
    3438:	00007702 	andeq	r7, r0, r2, lsl #14
    343c:	00902a00 	addseq	r2, r0, r0, lsl #20
    3440:	0d080000 	stceq	0, cr0, [r8, #-0]
    3444:	812b0000 	teqhi	fp, r0
    3448:	14000000 	strne	r0, [r0], #-0
    344c:	0cf80700 	ldcleq	7, cr0, [r8]
    3450:	35230000 	strcc	r0, [r3, #-0]!
    3454:	01000009 	tsteq	r0, r9
    3458:	0000d993 	muleq	r0, r3, r9
    345c:	00979c00 	addseq	r9, r7, r0, lsl #24
    3460:	0000d400 	andeq	sp, r0, r0, lsl #8
    3464:	329c0100 	addscc	r0, ip, #0, 2
    3468:	1400000e 	strne	r0, [r0], #-14
    346c:	01007874 	tsteq	r0, r4, ror r8
    3470:	00004f93 	muleq	r0, r3, pc	; <UNPREDICTABLE>
    3474:	0023fc00 	eoreq	pc, r3, r0, lsl #24
    3478:	78721400 	ldmdavc	r2!, {sl, ip}^
    347c:	4f930100 	svcmi	0x00930100
    3480:	1d000000 	stcne	0, cr0, [r0, #-0]
    3484:	13000024 	movwne	r0, #36	; 0x24
    3488:	00000612 	andeq	r0, r0, r2, lsl r6
    348c:	00689301 	rsbeq	r9, r8, r1, lsl #6
    3490:	243e0000 	ldrtcs	r0, [lr], #-0
    3494:	ce280000 	cdpgt	0, 2, cr0, cr8, cr0, {0}
    3498:	01000008 	tsteq	r0, r8
    349c:	00006893 	muleq	r0, r3, r8
    34a0:	00910200 	addseq	r0, r1, r0, lsl #4
    34a4:	7a686d2c 	bvc	1a1e95c <__bss_end__+0x1a141c4>
    34a8:	2c9b0100 	ldfcss	f0, [fp], {0}
    34ac:	00000000 	andeq	r0, r0, r0
    34b0:	2629b927 	strtcs	fp, [r9], -r7, lsr #18
    34b4:	0000091f 	andeq	r0, r0, pc, lsl r9
    34b8:	002c9c01 	eoreq	r9, ip, r1, lsl #24
    34bc:	24680000 	strbtcs	r0, [r8], #-0
    34c0:	6b290000 	blvs	a434c8 <__bss_end__+0xa38d30>
    34c4:	42000001 	andmi	r0, r0, #1
    34c8:	0500000e 	streq	r0, [r0, #-14]
    34cc:	00a0c403 	adceq	ip, r0, r3, lsl #8
    34d0:	97c81700 	strbls	r1, [r8, r0, lsl #14]
    34d4:	00080000 	andeq	r0, r8, r0
    34d8:	0da50000 	stceq	0, cr0, [r5]
    34dc:	692d0000 	pushvs	{}	; <UNPREDICTABLE>
    34e0:	9701006e 	strls	r0, [r1, -lr, rrx]
    34e4:	0000002c 	andeq	r0, r0, ip, lsr #32
    34e8:	c0250001 	eorgt	r0, r5, r1
    34ec:	b3000097 	movwlt	r0, #151	; 0x97
    34f0:	b9000011 	stmdblt	r0, {r0, r4}
    34f4:	2000000d 	andcs	r0, r0, sp
    34f8:	76025001 	strvc	r5, [r2], -r1
    34fc:	c8250000 	stmdagt	r5!, {}	; <UNPREDICTABLE>
    3500:	c4000097 	strgt	r0, [r0], #-151	; 0x97
    3504:	cd000011 	stcgt	0, cr0, [r0, #-68]	; 0xffffffbc
    3508:	2000000d 	andcs	r0, r0, sp
    350c:	78025001 	stmdavc	r2, {r0, ip, lr}
    3510:	dc250000 	stcle	0, cr0, [r5], #-0
    3514:	59000097 	stmdbpl	r0, {r0, r1, r2, r4, r7}
    3518:	e6000011 			; <UNDEFINED> instruction: 0xe6000011
    351c:	2000000d 	andcs	r0, r0, sp
    3520:	31015101 	tstcc	r1, r1, lsl #2
    3524:	02500120 	subseq	r0, r0, #32, 2
    3528:	24000076 	strcs	r0, [r0], #-118	; 0x76
    352c:	00009820 	andeq	r9, r0, r0, lsr #16
    3530:	0000118f 	andeq	r1, r0, pc, lsl #3
    3534:	00983c25 	addseq	r3, r8, r5, lsr #24
    3538:	00119600 	andseq	r9, r1, r0, lsl #12
    353c:	000e2800 	andeq	r2, lr, r0, lsl #16
    3540:	53012000 	movwpl	r2, #4096	; 0x1000
    3544:	209d0802 	addscs	r0, sp, r2, lsl #16
    3548:	03055201 	movweq	r5, #20993	; 0x5201
    354c:	0000a0c4 	andeq	sl, r0, r4, asr #1
    3550:	05510120 	ldrbeq	r0, [r1, #-288]	; 0x120
    3554:	00a11003 	adceq	r1, r1, r3
    3558:	50012000 	andpl	r2, r1, r0
    355c:	9f980305 	svcls	0x00980305
    3560:	02200000 	eoreq	r0, r0, #0
    3564:	0305007d 	movweq	r0, #20605	; 0x507d
    3568:	0000a130 	andeq	sl, r0, r0, lsr r1
    356c:	98402400 	stmdals	r0, {sl, sp}^
    3570:	11ac0000 			; <UNDEFINED> instruction: 0x11ac0000
    3574:	2a000000 	bcs	357c <_start-0x4a84>
    3578:	00000090 	muleq	r0, r0, r0
    357c:	00000e42 	andeq	r0, r0, r2, asr #28
    3580:	0000812b 	andeq	r8, r0, fp, lsr #2
    3584:	07001300 	streq	r1, [r0, -r0, lsl #6]
    3588:	00000e32 	andeq	r0, r0, r2, lsr lr
    358c:	00091223 	andeq	r1, r9, r3, lsr #4
    3590:	25a90100 	strcs	r0, [r9, #256]!	; 0x100
    3594:	70000000 	andvc	r0, r0, r0
    3598:	3c000098 	stccc	0, cr0, [r0], {152}	; 0x98
    359c:	01000000 	mrseq	r0, (UNDEF: 0)
    35a0:	000eea9c 	muleq	lr, ip, sl
    35a4:	05d91300 	ldrbeq	r1, [r9, #768]	; 0x300
    35a8:	a9010000 	stmdbge	r1, {}	; <UNPREDICTABLE>
    35ac:	00000722 	andeq	r0, r0, r2, lsr #14
    35b0:	00002496 	muleq	r0, r6, r4
    35b4:	73657216 	cmnvc	r5, #1610612737	; 0x60000001
    35b8:	25aa0100 	strcs	r0, [sl, #256]!	; 0x100
    35bc:	b7000000 	strlt	r0, [r0, -r0]
    35c0:	29000024 	stmdbcs	r0, {r2, r5}
    35c4:	0000016b 	andeq	r0, r0, fp, ror #2
    35c8:	00000efa 	strdeq	r0, [r0], -sl
    35cc:	a0d80305 	sbcsge	r0, r8, r5, lsl #6
    35d0:	7c250000 	stcvc	0, cr0, [r5], #-0
    35d4:	62000098 	andvs	r0, r0, #152	; 0x98
    35d8:	a8000007 	stmdage	r0, {r0, r1, r2}
    35dc:	2000000e 	andcs	r0, r0, lr
    35e0:	09025101 	stmdbeq	r2, {r0, r8, ip, lr}
    35e4:	500120ff 	strdpl	r2, [r1], -pc	; <UNPREDICTABLE>
    35e8:	5001f303 	andpl	pc, r1, r3, lsl #6
    35ec:	98882400 	stmls	r8, {sl, sp}
    35f0:	118f0000 	orrne	r0, pc, r0
    35f4:	9c250000 	stcls	0, cr0, [r5], #-0
    35f8:	96000098 			; <UNDEFINED> instruction: 0x96000098
    35fc:	e0000011 	and	r0, r0, r1, lsl r0
    3600:	2000000e 	andcs	r0, r0, lr
    3604:	08025301 	stmdaeq	r2, {r0, r8, r9, ip, lr}
    3608:	520120ac 	andpl	r2, r1, #172	; 0xac
    360c:	a0d80305 	sbcsge	r0, r8, r5, lsl #6
    3610:	01200000 	teqeq	r0, r0
    3614:	10030551 	andne	r0, r3, r1, asr r5
    3618:	200000a1 	andcs	r0, r0, r1, lsr #1
    361c:	03055001 	movweq	r5, #20481	; 0x5001
    3620:	0000a164 	andeq	sl, r0, r4, ror #2
    3624:	98a02400 	stmials	r0!, {sl, sp}
    3628:	11ac0000 			; <UNDEFINED> instruction: 0x11ac0000
    362c:	2a000000 	bcs	3634 <_start-0x49cc>
    3630:	00000090 	muleq	r0, r0, r0
    3634:	00000efa 	strdeq	r0, [r0], -sl
    3638:	0000812b 	andeq	r8, r0, fp, lsr #2
    363c:	07000c00 	streq	r0, [r0, -r0, lsl #24]
    3640:	00000eea 	andeq	r0, r0, sl, ror #29
    3644:	00095612 	andeq	r5, r9, r2, lsl r6
    3648:	acb00100 	ldfges	f0, [r0]
    364c:	2c000098 	stccs	0, cr0, [r0], {152}	; 0x98
    3650:	01000000 	mrseq	r0, (UNDEF: 0)
    3654:	000f439c 	muleq	pc, ip, r3	; <UNPREDICTABLE>
    3658:	05d91300 	ldrbeq	r1, [r9, #768]	; 0x300
    365c:	b0010000 	andlt	r0, r1, r0
    3660:	00000722 	andeq	r0, r0, r2, lsr #14
    3664:	000024ca 	andeq	r2, r0, sl, asr #9
    3668:	67736d14 			; <UNDEFINED> instruction: 0x67736d14
    366c:	97b00100 	ldrls	r0, [r0, r0, lsl #2]!
    3670:	e8000000 	stmda	r0, {}	; <UNPREDICTABLE>
    3674:	1f000024 	svcne	0x00000024
    3678:	000098c4 	andeq	r9, r0, r4, asr #17
    367c:	00000176 	andeq	r0, r0, r6, ror r1
    3680:	02500120 	subseq	r0, r0, #32, 2
    3684:	00000075 	andeq	r0, r0, r5, ror r0
    3688:	0005de23 	andeq	sp, r5, r3, lsr #28
    368c:	25b90100 	ldrcs	r0, [r9, #256]!	; 0x100
    3690:	d8000000 	stmdale	r0, {}	; <UNPREDICTABLE>
    3694:	90000098 	mulls	r0, r8, r0
    3698:	01000000 	mrseq	r0, (UNDEF: 0)
    369c:	0010419c 	mulseq	r0, ip, r1
    36a0:	05d91300 	ldrbeq	r1, [r9, #768]	; 0x300
    36a4:	b9010000 	stmdblt	r1, {}	; <UNPREDICTABLE>
    36a8:	00000722 	andeq	r0, r0, r2, lsr #14
    36ac:	00002506 	andeq	r2, r0, r6, lsl #10
    36b0:	746d662e 	strbtvc	r6, [sp], #-1582	; 0x62e
    36b4:	97b90100 	ldrls	r0, [r9, r0, lsl #2]!
    36b8:	02000000 	andeq	r0, r0, #0
    36bc:	152f7491 	strne	r7, [pc, #-1169]!	; 3233 <_start-0x4dcd>
    36c0:	00667562 	rsbeq	r7, r6, r2, ror #10
    36c4:	1041ba01 	subne	fp, r1, r1, lsl #20
    36c8:	91030000 	mrsls	r0, (UNDEF: 3)
    36cc:	97187c9c 			; <UNDEFINED> instruction: 0x97187c9c
    36d0:	01000004 	tsteq	r0, r4
    36d4:	000106bc 			; <UNDEFINED> instruction: 0x000106bc
    36d8:	98910300 	ldmls	r1, {r8, r9}
    36dc:	7a73167c 	bvc	1cc90d4 <__bss_end__+0x1cbe93c>
    36e0:	25be0100 	ldrcs	r0, [lr, #256]!	; 0x100
    36e4:	32000000 	andcc	r0, r0, #0
    36e8:	29000025 	stmdbcs	r0, {r0, r2, r5}
    36ec:	0000016b 	andeq	r0, r0, fp, ror #2
    36f0:	00001062 	andeq	r1, r0, r2, rrx
    36f4:	a0e80305 	rscge	r0, r8, r5, lsl #6
    36f8:	00250000 	eoreq	r0, r5, r0
    36fc:	d5000099 	strle	r0, [r0, #-153]	; 0x99
    3700:	de000011 	mcrle	0, 0, r0, cr0, cr1, {0}
    3704:	2000000f 	andcs	r0, r0, pc
    3708:	91025301 	tstls	r2, r1, lsl #6
    370c:	52012058 	andpl	r2, r1, #88	; 0x58
    3710:	06549103 	ldrbeq	r9, [r4], -r3, lsl #2
    3714:	03510120 	cmpeq	r1, #32, 2
    3718:	2001cc0a 	andcs	ip, r1, sl, lsl #24
    371c:	91035001 	tstls	r3, r1
    3720:	24007bfc 	strcs	r7, [r0], #-3068	; 0xbfc
    3724:	00009914 	andeq	r9, r0, r4, lsl r9
    3728:	0000118f 	andeq	r1, r0, pc, lsl #3
    372c:	00993025 	addseq	r3, r9, r5, lsr #32
    3730:	00119600 	andseq	r9, r1, r0, lsl #12
    3734:	00102000 	andseq	r2, r0, r0
    3738:	53012000 	movwpl	r2, #4096	; 0x1000
    373c:	20c00802 	sbccs	r0, r0, r2, lsl #16
    3740:	03055201 	movweq	r5, #20993	; 0x5201
    3744:	0000a0e8 	andeq	sl, r0, r8, ror #1
    3748:	05510120 	ldrbeq	r0, [r1, #-288]	; 0x120
    374c:	00a11003 	adceq	r1, r1, r3
    3750:	50012000 	andpl	r2, r1, r0
    3754:	9f980305 	svcls	0x00980305
    3758:	02200000 	eoreq	r0, r0, #0
    375c:	0305007d 	movweq	r0, #20605	; 0x507d
    3760:	0000a19c 	muleq	r0, ip, r1
    3764:	99342400 	ldmdbls	r4!, {sl, sp}
    3768:	11ac0000 			; <UNDEFINED> instruction: 0x11ac0000
    376c:	401f0000 	andsmi	r0, pc, r0
    3770:	ff000099 			; <UNDEFINED> instruction: 0xff000099
    3774:	2000000e 	andcs	r0, r0, lr
    3778:	91035101 	tstls	r3, r1, lsl #2
    377c:	01207bfc 	strdeq	r7, [r0, -ip]!
    3780:	00750250 	rsbseq	r0, r5, r0, asr r2
    3784:	902a0000 	eorls	r0, sl, r0
    3788:	52000000 	andpl	r0, r0, #0
    378c:	30000010 	andcc	r0, r0, r0, lsl r0
    3790:	00000081 	andeq	r0, r0, r1, lsl #1
    3794:	2a0001cb 	bcs	3ec8 <_start-0x4138>
    3798:	00000090 	muleq	r0, r0, r0
    379c:	00001062 	andeq	r1, r0, r2, rrx
    37a0:	0000812b 	andeq	r8, r0, fp, lsr #2
    37a4:	07000e00 	streq	r0, [r0, -r0, lsl #28]
    37a8:	00001052 	andeq	r1, r0, r2, asr r0
    37ac:	0009a523 	andeq	sl, r9, r3, lsr #10
    37b0:	25c50100 	strbcs	r0, [r5, #256]	; 0x100
    37b4:	68000000 	stmdavs	r0, {}	; <UNPREDICTABLE>
    37b8:	4c000099 	stcmi	0, cr0, [r0], {153}	; 0x99
    37bc:	01000000 	mrseq	r0, (UNDEF: 0)
    37c0:	0011449c 	mulseq	r1, ip, r4
    37c4:	00751400 	rsbseq	r1, r5, r0, lsl #8
    37c8:	0722c501 	streq	ip, [r2, -r1, lsl #10]!
    37cc:	25710000 	ldrbcs	r0, [r1, #-0]!
    37d0:	62140000 	andsvs	r0, r4, #0
    37d4:	01006675 	tsteq	r0, r5, ror r6
    37d8:	000c0cc5 	andeq	r0, ip, r5, asr #25
    37dc:	00259200 	eoreq	r9, r5, r0, lsl #4
    37e0:	09911300 	ldmibeq	r1, {r8, r9, ip}
    37e4:	c5010000 	strgt	r0, [r1, #-0]
    37e8:	00000068 	andeq	r0, r0, r8, rrx
    37ec:	000025b3 			; <UNDEFINED> instruction: 0x000025b3
    37f0:	646e6514 	strbtvs	r6, [lr], #-1300	; 0x514
    37f4:	4fc50100 	svcmi	0x00c50100
    37f8:	d4000000 	strle	r0, [r0], #-0
    37fc:	16000025 	strne	r0, [r0], -r5, lsr #32
    3800:	00736572 	rsbseq	r6, r3, r2, ror r5
    3804:	0025c601 	eoreq	ip, r5, r1, lsl #12
    3808:	25f50000 	ldrbcs	r0, [r5, #0]!
    380c:	6b290000 	blvs	a43814 <__bss_end__+0xa3907c>
    3810:	54000001 	strpl	r0, [r0], #-1
    3814:	05000011 	streq	r0, [r0, #-17]
    3818:	00a0f803 	adceq	pc, r0, r3, lsl #16
    381c:	997c2500 	ldmdbls	ip!, {r8, sl, sp}^
    3820:	0b1e0000 	bleq	783828 <__bss_end__+0x779090>
    3824:	11020000 	mrsne	r0, (UNDEF: 2)
    3828:	01200000 	teqeq	r0, r0
    382c:	01f30352 	mvnseq	r0, r2, asr r3
    3830:	51012052 	qaddpl	r2, r2, r1
    3834:	5101f303 	tstpl	r1, r3, lsl #6
    3838:	03500120 	cmpeq	r0, #32, 2
    383c:	205001f3 	ldrshcs	r0, [r0], #-19	; 0xffffffed
    3840:	02007d02 	andeq	r7, r0, #2, 26	; 0x80
    3844:	2400ff09 	strcs	pc, [r0], #-3849	; 0xf09
    3848:	00009988 	andeq	r9, r0, r8, lsl #19
    384c:	0000118f 	andeq	r1, r0, pc, lsl #3
    3850:	00999c25 	addseq	r9, r9, r5, lsr #24
    3854:	00119600 	andseq	r9, r1, r0, lsl #12
    3858:	00113a00 	andseq	r3, r1, r0, lsl #20
    385c:	53012000 	movwpl	r2, #4096	; 0x1000
    3860:	20c80802 	sbccs	r0, r8, r2, lsl #16
    3864:	03055201 	movweq	r5, #20993	; 0x5201
    3868:	0000a0f8 	strdeq	sl, [r0], -r8
    386c:	05510120 	ldrbeq	r0, [r1, #-288]	; 0x120
    3870:	00a11003 	adceq	r1, r1, r3
    3874:	50012000 	andpl	r2, r1, r0
    3878:	a1640305 	cmnge	r4, r5, lsl #6
    387c:	24000000 	strcs	r0, [r0], #-0
    3880:	000099a0 	andeq	r9, r0, r0, lsr #19
    3884:	000011ac 	andeq	r1, r0, ip, lsr #3
    3888:	00902a00 	addseq	r2, r0, r0, lsl #20
    388c:	11540000 	cmpne	r4, r0
    3890:	812b0000 	teqhi	fp, r0
    3894:	16000000 	strne	r0, [r0], -r0
    3898:	11440700 	cmpne	r4, r0, lsl #14
    389c:	3c310000 	ldccc	0, cr0, [r1], #-0
    38a0:	06000000 	streq	r0, [r0], -r0
    38a4:	00116f21 	andseq	r6, r1, r1, lsr #30
    38a8:	002c3200 	eoreq	r3, ip, r0, lsl #4
    38ac:	2c320000 	ldccs	0, cr0, [r2], #-0
    38b0:	00000000 	andeq	r0, r0, r0
    38b4:	00071333 	andeq	r1, r7, r3, lsr r3
    38b8:	2c570700 	mrrccs	7, 0, r0, r7, cr0
    38bc:	34000000 	strcc	r0, [r0], #-0
    38c0:	00000202 	andeq	r0, r0, r2, lsl #4
    38c4:	00252406 	eoreq	r2, r5, r6, lsl #8
    38c8:	118f0000 	orrne	r0, pc, r0
    38cc:	2c320000 	ldccs	0, cr0, [r2], #-0
    38d0:	00000000 	andeq	r0, r0, r0
    38d4:	00012335 	andeq	r2, r1, r5, lsr r3
    38d8:	341e0700 	ldrcc	r0, [lr], #-1792	; 0x700
    38dc:	00000442 	andeq	r0, r0, r2, asr #8
    38e0:	00252907 	eoreq	r2, r5, r7, lsl #18
    38e4:	11ac0000 			; <UNDEFINED> instruction: 0x11ac0000
    38e8:	97320000 	ldrls	r0, [r2, -r0]!
    38ec:	2f000000 	svccs	0x00000000
    38f0:	020c3500 	andeq	r3, ip, #0, 10
    38f4:	66070000 	strvs	r0, [r7], -r0
    38f8:	0003a431 	andeq	sl, r3, r1, lsr r4
    38fc:	c41d0600 	ldrgt	r0, [sp], #-1536	; 0x600
    3900:	32000011 	andcc	r0, r0, #17
    3904:	0000002c 	andeq	r0, r0, ip, lsr #32
    3908:	033b3100 	teqeq	fp, #0, 2
    390c:	1c060000 	stcne	0, cr0, [r6], {-0}
    3910:	000011d5 	ldrdeq	r1, [r0], -r5
    3914:	00002c32 	andeq	r2, r0, r2, lsr ip
    3918:	3f360000 	svccc	0x00360000
    391c:	08000004 	stmdaeq	r0, {r2}
    3920:	00002502 	andeq	r2, r0, r2, lsl #10
    3924:	008a3200 	addeq	r3, sl, r0, lsl #4
    3928:	25320000 	ldrcs	r0, [r2, #-0]!
    392c:	32000000 	andcc	r0, r0, #0
    3930:	00000097 	muleq	r0, r7, r0
    3934:	00010632 	andeq	r0, r1, r2, lsr r6
    3938:	ff000000 			; <UNDEFINED> instruction: 0xff000000
    393c:	04000003 	streq	r0, [r0], #-3
    3940:	000fef00 	andeq	lr, pc, r0, lsl #30
    3944:	e4010400 	str	r0, [r1], #-1024	; 0x400
    3948:	01000002 	tsteq	r0, r2
    394c:	00000a93 	muleq	r0, r3, sl
    3950:	00000453 	andeq	r0, r0, r3, asr r4
    3954:	000099b4 			; <UNDEFINED> instruction: 0x000099b4
    3958:	00000154 	andeq	r0, r0, r4, asr r1
    395c:	00000f2a 	andeq	r0, r0, sl, lsr #30
    3960:	69050402 	stmdbvs	r5, {r1, sl}
    3964:	0300746e 	movweq	r7, #1134	; 0x46e
    3968:	006c0704 	rsbeq	r0, ip, r4, lsl #14
    396c:	01030000 	mrseq	r0, (UNDEF: 3)
    3970:	00028b06 	andeq	r8, r2, r6, lsl #22
    3974:	05020300 	streq	r0, [r2, #-768]	; 0x300
    3978:	000002a4 	andeq	r0, r0, r4, lsr #5
    397c:	8f050403 	svchi	0x00050403
    3980:	03000000 	movweq	r0, #0
    3984:	008a0508 	addeq	r0, sl, r8, lsl #10
    3988:	01030000 	mrseq	r0, (UNDEF: 3)
    398c:	00028908 	andeq	r8, r2, r8, lsl #18
    3990:	07020300 	streq	r0, [r2, -r0, lsl #6]
    3994:	00000178 	andeq	r0, r0, r8, ror r1
    3998:	67070403 	strvs	r0, [r7, -r3, lsl #8]
    399c:	03000000 	movweq	r0, #0
    39a0:	00620708 	rsbeq	r0, r2, r8, lsl #14
    39a4:	04030000 	streq	r0, [r3], #-0
    39a8:	00022e07 	andeq	r2, r2, r7, lsl #28
    39ac:	08010300 	stmdaeq	r1, {r8, r9}
    39b0:	00000292 	muleq	r0, r2, r2
    39b4:	0c020104 	stfeqs	f0, [r2], {4}
    39b8:	000000b2 	strheq	r0, [r0], -r2
    39bc:	00079c05 	andeq	r9, r7, r5, lsl #24
    39c0:	46050000 	strmi	r0, [r5], -r0
    39c4:	01000008 	tsteq	r0, r8
    39c8:	00086905 	andeq	r6, r8, r5, lsl #18
    39cc:	78050400 	stmdavc	r5, {sl}
    39d0:	05000008 	streq	r0, [r0, #-8]
    39d4:	00088705 	andeq	r8, r8, r5, lsl #14
    39d8:	96050600 	strls	r0, [r5], -r0, lsl #12
    39dc:	07000008 	streq	r0, [r0, -r8]
    39e0:	0008a505 	andeq	sl, r8, r5, lsl #10
    39e4:	b4050300 	strlt	r0, [r5], #-768	; 0x300
    39e8:	02000008 	andeq	r0, r0, #8
    39ec:	085d0600 	ldmdaeq	sp, {r9, sl}^
    39f0:	15020000 	strne	r0, [r2, #-0]
    39f4:	00000079 	andeq	r0, r0, r9, ror r0
    39f8:	00005807 	andeq	r5, r0, r7, lsl #16
    39fc:	b4370100 	ldrtlt	r0, [r7], #-256	; 0x100
    3a00:	9c000099 	stcls	0, cr0, [r0], {153}	; 0x99
    3a04:	01000000 	mrseq	r0, (UNDEF: 0)
    3a08:	0001c39c 	muleq	r1, ip, r3
    3a0c:	99bc0800 	ldmibls	ip!, {fp}
    3a10:	03a80000 			; <UNDEFINED> instruction: 0x03a80000
    3a14:	c8090000 	stmdagt	r9, {}	; <UNPREDICTABLE>
    3a18:	af000099 	svcge	0x00000099
    3a1c:	f3000003 	vhadd.u8	d0, d0, d3
    3a20:	0a000000 	beq	3a28 <_start-0x45d8>
    3a24:	32015101 	andcc	r5, r1, #1073741824	; 0x40000000
    3a28:	0150010a 	cmpeq	r0, sl, lsl #2
    3a2c:	d409003e 	strle	r0, [r9], #-62	; 0x3e
    3a30:	af000099 	svcge	0x00000099
    3a34:	0b000003 	bleq	3a48 <_start-0x45b8>
    3a38:	0a000001 	beq	3a44 <_start-0x45bc>
    3a3c:	32015101 	andcc	r5, r1, #1073741824	; 0x40000000
    3a40:	0150010a 	cmpeq	r0, sl, lsl #2
    3a44:	d808003f 	stmdale	r8, {r0, r1, r2, r3, r4, r5}
    3a48:	a8000099 	stmdage	r0, {r0, r3, r4, r7}
    3a4c:	09000003 	stmdbeq	r0, {r0, r1}
    3a50:	000099e8 	andeq	r9, r0, r8, ror #19
    3a54:	000003c5 	andeq	r0, r0, r5, asr #7
    3a58:	00000128 	andeq	r0, r0, r8, lsr #2
    3a5c:	0250010a 	subseq	r0, r0, #-2147483646	; 0x80000002
    3a60:	09000075 	stmdbeq	r0, {r0, r2, r4, r5, r6}
    3a64:	000099f4 	strdeq	r9, [r0], -r4
    3a68:	000003e6 	andeq	r0, r0, r6, ror #7
    3a6c:	0000013c 	andeq	r0, r0, ip, lsr r1
    3a70:	0250010a 	subseq	r0, r0, #-2147483646	; 0x80000002
    3a74:	08000075 	stmdaeq	r0, {r0, r2, r4, r5, r6}
    3a78:	000099f8 	strdeq	r9, [r0], -r8
    3a7c:	000003a8 	andeq	r0, r0, r8, lsr #7
    3a80:	009a0409 	addseq	r0, sl, r9, lsl #8
    3a84:	0003e600 	andeq	lr, r3, r0, lsl #12
    3a88:	00015800 	andeq	r5, r1, r0, lsl #16
    3a8c:	51010a00 	tstpl	r1, r0, lsl #20
    3a90:	09003001 	stmdbeq	r0, {r0, ip, sp}
    3a94:	00009a10 	andeq	r9, r0, r0, lsl sl
    3a98:	000003e6 	andeq	r0, r0, r6, ror #7
    3a9c:	0000016b 	andeq	r0, r0, fp, ror #2
    3aa0:	0151010a 	cmpeq	r1, sl, lsl #2
    3aa4:	1c090030 	stcne	0, cr0, [r9], {48}	; 0x30
    3aa8:	e600009a 			; <UNDEFINED> instruction: 0xe600009a
    3aac:	7e000003 	cdpvc	0, 0, cr0, cr0, cr3, {0}
    3ab0:	0a000001 	beq	3abc <_start-0x4544>
    3ab4:	36015101 	strcc	r5, [r1], -r1, lsl #2
    3ab8:	9a280900 	bls	a05ec0 <__bss_end__+0x9fb728>
    3abc:	03e60000 	mvneq	r0, #0
    3ac0:	01910000 	orrseq	r0, r1, r0
    3ac4:	010a0000 	mrseq	r0, (UNDEF: 10)
    3ac8:	00330151 	eorseq	r0, r3, r1, asr r1
    3acc:	009a3409 	addseq	r3, sl, r9, lsl #8
    3ad0:	0003e600 	andeq	lr, r3, r0, lsl #12
    3ad4:	0001a600 	andeq	sl, r1, r0, lsl #12
    3ad8:	51010a00 	tstpl	r1, r0, lsl #20
    3adc:	010e0a03 	tsteq	lr, r3, lsl #20
    3ae0:	9a400900 	bls	1005ee8 <__bss_end__+0xffb750>
    3ae4:	03e60000 	mvneq	r0, #0
    3ae8:	01b90000 			; <UNDEFINED> instruction: 0x01b90000
    3aec:	010a0000 	mrseq	r0, (UNDEF: 10)
    3af0:	00330151 	eorseq	r0, r3, r1, asr r1
    3af4:	009a4408 	addseq	r4, sl, r8, lsl #8
    3af8:	0003a800 	andeq	sl, r3, r0, lsl #16
    3afc:	f80b0000 			; <UNDEFINED> instruction: 0xf80b0000
    3b00:	01000009 	tsteq	r0, r9
    3b04:	00002557 	andeq	r2, r0, r7, asr r5
    3b08:	009a5000 	addseq	r5, sl, r0
    3b0c:	00001c00 	andeq	r1, r0, r0, lsl #24
    3b10:	e69c0100 	ldr	r0, [ip], r0, lsl #2
    3b14:	08000001 	stmdaeq	r0, {r0}
    3b18:	00009a60 	andeq	r9, r0, r0, ror #20
    3b1c:	000003c5 	andeq	r0, r0, r5, asr #7
    3b20:	09150b00 	ldmdbeq	r5, {r8, r9, fp}
    3b24:	5d010000 	stcpl	0, cr0, [r1, #-0]
    3b28:	00000025 	andeq	r0, r0, r5, lsr #32
    3b2c:	00009a6c 	andeq	r9, r0, ip, ror #20
    3b30:	00000028 	andeq	r0, r0, r8, lsr #32
    3b34:	02129c01 	andseq	r9, r2, #256	; 0x100
    3b38:	74080000 	strvc	r0, [r8], #-0
    3b3c:	c300009a 	movwgt	r0, #154	; 0x9a
    3b40:	08000001 	stmdaeq	r0, {r0}
    3b44:	00009a88 	andeq	r9, r0, r8, lsl #21
    3b48:	000003c5 	andeq	r0, r0, r5, asr #7
    3b4c:	0a420b00 	beq	1086754 <__bss_end__+0x107bfbc>
    3b50:	64010000 	strvs	r0, [r1], #-0
    3b54:	00000025 	andeq	r0, r0, r5, lsr #32
    3b58:	00009a94 	muleq	r0, r4, sl
    3b5c:	0000001c 	andeq	r0, r0, ip, lsl r0
    3b60:	02359c01 	eorseq	r9, r5, #256	; 0x100
    3b64:	a4080000 	strge	r0, [r8], #-0
    3b68:	c500009a 	strgt	r0, [r0, #-154]	; 0x9a
    3b6c:	00000003 	andeq	r0, r0, r3
    3b70:	00063a07 	andeq	r3, r6, r7, lsl #20
    3b74:	b06a0100 	rsblt	r0, sl, r0, lsl #2
    3b78:	2c00009a 	stccs	0, cr0, [r0], {154}	; 0x9a
    3b7c:	01000000 	mrseq	r0, (UNDEF: 0)
    3b80:	0002719c 	muleq	r2, ip, r1
    3b84:	00630c00 	rsbeq	r0, r3, r0, lsl #24
    3b88:	002c6a01 	eoreq	r6, ip, r1, lsl #20
    3b8c:	26130000 	ldrcs	r0, [r3], -r0
    3b90:	bc080000 	stclt	0, cr0, [r8], {-0}
    3b94:	1200009a 	andne	r0, r0, #154	; 0x9a
    3b98:	0d000002 	stceq	0, cr0, [r0, #-8]
    3b9c:	00009ad4 	ldrdeq	r9, [r0], -r4
    3ba0:	000003e6 	andeq	r0, r0, r6, ror #7
    3ba4:	0251010a 	subseq	r0, r1, #-2147483646	; 0x80000002
    3ba8:	00000074 	andeq	r0, r0, r4, ror r0
    3bac:	000a160b 	andeq	r1, sl, fp, lsl #12
    3bb0:	25740100 	ldrbcs	r0, [r4, #-256]!	; 0x100
    3bb4:	dc000000 	stcle	0, cr0, [r0], {-0}
    3bb8:	0c00009a 	stceq	0, cr0, [r0], {154}	; 0x9a
    3bbc:	01000000 	mrseq	r0, (UNDEF: 0)
    3bc0:	0002949c 	muleq	r2, ip, r4
    3bc4:	9ae40800 	bls	ff905bcc <__bss_end__+0xff8fb434>
    3bc8:	01c30000 	biceq	r0, r3, r0
    3bcc:	0b000000 	bleq	3bd4 <_start-0x442c>
    3bd0:	00000abf 			; <UNDEFINED> instruction: 0x00000abf
    3bd4:	00257801 	eoreq	r7, r5, r1, lsl #16
    3bd8:	9ae80000 	bls	ffa03be0 <__bss_end__+0xff9f9448>
    3bdc:	00200000 	eoreq	r0, r0, r0
    3be0:	9c010000 	stcls	0, cr0, [r1], {-0}
    3be4:	000002c0 	andeq	r0, r0, r0, asr #5
    3be8:	009af008 	addseq	pc, sl, r8
    3bec:	00027100 	andeq	r7, r2, r0, lsl #2
    3bf0:	9afc0800 	bls	fff05bf8 <__bss_end__+0xffefb460>
    3bf4:	01e60000 	mvneq	r0, r0
    3bf8:	0e000000 	cdpeq	0, 0, cr0, cr0, cr0, {0}
    3bfc:	00000a5c 	andeq	r0, r0, ip, asr sl
    3c00:	02d11601 	sbcseq	r1, r1, #1048576	; 0x100000
    3c04:	03050000 	movweq	r0, #20480	; 0x5000
    3c08:	00009f1c 	andeq	r9, r0, ip, lsl pc
    3c0c:	02d7040f 	sbcseq	r0, r7, #251658240	; 0xf000000
    3c10:	2c100000 	ldccs	0, cr0, [r0], {-0}
    3c14:	0e000000 	cdpeq	0, 0, cr0, cr0, cr0, {0}
    3c18:	00000a50 	andeq	r0, r0, r0, asr sl
    3c1c:	02d11701 	sbcseq	r1, r1, #262144	; 0x40000
    3c20:	03050000 	movweq	r0, #20480	; 0x5000
    3c24:	00009eec 	andeq	r9, r0, ip, ror #29
    3c28:	0009db0e 	andeq	sp, r9, lr, lsl #22
    3c2c:	d11a0100 	tstle	sl, r0, lsl #2
    3c30:	05000002 	streq	r0, [r0, #-2]
    3c34:	009f0803 	addseq	r0, pc, r3, lsl #16
    3c38:	0a240e00 	beq	907440 <__bss_end__+0x8fcca8>
    3c3c:	1b010000 	blne	43c44 <__bss_end__+0x394ac>
    3c40:	000002d1 	ldrdeq	r0, [r0], -r1
    3c44:	9ef40305 	cdpls	3, 15, cr0, cr4, cr5, {0}
    3c48:	330e0000 	movwcc	r0, #57344	; 0xe000
    3c4c:	0100000a 	tsteq	r0, sl
    3c50:	0002d11c 	andeq	sp, r2, ip, lsl r1
    3c54:	f8030500 			; <UNDEFINED> instruction: 0xf8030500
    3c58:	0e00009e 	mcreq	0, 0, r0, cr0, cr14, {4}
    3c5c:	00000aa1 	andeq	r0, r0, r1, lsr #21
    3c60:	02d11d01 	sbcseq	r1, r1, #1, 26	; 0x40
    3c64:	03050000 	movweq	r0, #20480	; 0x5000
    3c68:	00009efc 	strdeq	r9, [r0], -ip
    3c6c:	0009cc0e 	andeq	ip, r9, lr, lsl #24
    3c70:	d11e0100 	tstle	lr, r0, lsl #2
    3c74:	05000002 	streq	r0, [r0, #-2]
    3c78:	009f1803 	addseq	r1, pc, r3, lsl #16
    3c7c:	0ab00e00 	beq	fec07484 <__bss_end__+0xfebfccec>
    3c80:	1f010000 	svcne	0x00010000
    3c84:	000002d1 	ldrdeq	r0, [r0], -r1
    3c88:	9f040305 	svcls	0x00040305
    3c8c:	e90e0000 	stmdb	lr, {}	; <UNPREDICTABLE>
    3c90:	01000009 	tsteq	r0, r9
    3c94:	0002d120 	andeq	sp, r2, r0, lsr #2
    3c98:	14030500 	strne	r0, [r3], #-1280	; 0x500
    3c9c:	0e00009f 	mcreq	0, 0, r0, cr0, cr15, {4}
    3ca0:	00000a84 	andeq	r0, r0, r4, lsl #21
    3ca4:	02d12101 	sbcseq	r2, r1, #1073741824	; 0x40000000
    3ca8:	03050000 	movweq	r0, #20480	; 0x5000
    3cac:	00009f10 	andeq	r9, r0, r0, lsl pc
    3cb0:	000a060e 	andeq	r0, sl, lr, lsl #12
    3cb4:	d1220100 	teqle	r2, r0, lsl #2
    3cb8:	05000002 	streq	r0, [r0, #-2]
    3cbc:	009ef003 	addseq	pc, lr, r3
    3cc0:	0a740e00 	beq	1d074c8 <__bss_end__+0x1cfcd30>
    3cc4:	23010000 	movwcs	r0, #4096	; 0x1000
    3cc8:	000002d1 	ldrdeq	r0, [r0], -r1
    3ccc:	9f0c0305 	svcls	0x000c0305
    3cd0:	640e0000 	strvs	r0, [lr], #-0
    3cd4:	0100000a 	tsteq	r0, sl
    3cd8:	0002d124 	andeq	sp, r2, r4, lsr #2
    3cdc:	00030500 	andeq	r0, r3, r0, lsl #10
    3ce0:	1100009f 	swpne	r0, pc, [r0]	; <UNPREDICTABLE>
    3ce4:	0000027d 	andeq	r0, r0, sp, ror r2
    3ce8:	d5128a03 	ldrle	r8, [r2, #-2563]	; 0xa03
    3cec:	02000007 	andeq	r0, r0, #7
    3cf0:	0003c519 	andeq	ip, r3, r9, lsl r5
    3cf4:	002c1300 	eoreq	r1, ip, r0, lsl #6
    3cf8:	b2130000 	andslt	r0, r3, #0
    3cfc:	00000000 	andeq	r0, r0, r0
    3d00:	00085714 	andeq	r5, r8, r4, lsl r7
    3d04:	2ca90300 	stccs	3, cr0, [r9]
    3d08:	da000000 	ble	3d10 <_start-0x42f0>
    3d0c:	13000003 	movwne	r0, #3
    3d10:	000003da 	ldrdeq	r0, [r0], -sl
    3d14:	e0040f00 	and	r0, r4, r0, lsl #30
    3d18:	15000003 	strne	r0, [r0, #-3]
    3d1c:	000003e5 	andeq	r0, r0, r5, ror #7
    3d20:	07881216 	usada8eq	r8, r6, r2, r1
    3d24:	9d030000 	stcls	0, cr0, [r3, #-0]
    3d28:	000003fc 	strdeq	r0, [r0], -ip
    3d2c:	0003fc13 	andeq	pc, r3, r3, lsl ip	; <UNPREDICTABLE>
    3d30:	002c1300 	eoreq	r1, ip, r0, lsl #6
    3d34:	0f000000 	svceq	0x00000000
    3d38:	0003e504 	andeq	lr, r3, r4, lsl #10
    3d3c:	029b0000 	addseq	r0, fp, #0
    3d40:	00040000 	andeq	r0, r4, r0
    3d44:	0000111d 	andeq	r1, r0, sp, lsl r1
    3d48:	02e40104 	rsceq	r0, r4, #4, 2
    3d4c:	62010000 	andvs	r0, r1, #0
    3d50:	5300000b 	movwpl	r0, #11
    3d54:	08000004 	stmdaeq	r0, {r2}
    3d58:	ac00009b 	stcge	0, cr0, [r0], {155}	; 0x9b
    3d5c:	2f000000 	svccs	0x00000000
    3d60:	02000010 	andeq	r0, r0, #16
    3d64:	6e690504 	cdpvs	5, 6, cr0, cr9, cr4, {0}
    3d68:	04030074 	streq	r0, [r3], #-116	; 0x74
    3d6c:	00006c07 	andeq	r6, r0, r7, lsl #24
    3d70:	06010300 	streq	r0, [r1], -r0, lsl #6
    3d74:	0000028b 	andeq	r0, r0, fp, lsl #5
    3d78:	a4050203 	strge	r0, [r5], #-515	; 0x203
    3d7c:	03000002 	movweq	r0, #2
    3d80:	008f0504 	addeq	r0, pc, r4, lsl #10
    3d84:	08030000 	stmdaeq	r3, {}	; <UNPREDICTABLE>
    3d88:	00008a05 	andeq	r8, r0, r5, lsl #20
    3d8c:	08010300 	stmdaeq	r1, {r8, r9}
    3d90:	00000289 	andeq	r0, r0, r9, lsl #5
    3d94:	78070203 	stmdavc	r7, {r0, r1, r9}
    3d98:	03000001 	movweq	r0, #1
    3d9c:	00670704 	rsbeq	r0, r7, r4, lsl #14
    3da0:	08030000 	stmdaeq	r3, {}	; <UNPREDICTABLE>
    3da4:	00006207 	andeq	r6, r0, r7, lsl #4
    3da8:	07040300 	streq	r0, [r4, -r0, lsl #6]
    3dac:	0000022e 	andeq	r0, r0, lr, lsr #4
    3db0:	92080103 	andls	r0, r8, #-1073741824	; 0xc0000000
    3db4:	04000002 	streq	r0, [r0], #-2
    3db8:	00007f04 	andeq	r7, r0, r4, lsl #30
    3dbc:	00720500 	rsbseq	r0, r2, r0, lsl #10
    3dc0:	04060000 	streq	r0, [r6], #-0
    3dc4:	00fb1403 	rscseq	r1, fp, r3, lsl #8
    3dc8:	82070000 	andhi	r0, r7, #0
    3dcc:	8000000b 	andhi	r0, r0, fp
    3dd0:	028082e4 	addeq	r8, r0, #228, 4	; 0x4000000e
    3dd4:	000b0d07 	andeq	r0, fp, r7, lsl #26
    3dd8:	82e48000 	rschi	r8, r4, #0
    3ddc:	bf070280 	svclt	0x00070280
    3de0:	8400000b 	strhi	r0, [r0], #-11
    3de4:	028082e4 	addeq	r8, r0, #228, 4	; 0x4000000e
    3de8:	000acf07 	andeq	ip, sl, r7, lsl #30
    3dec:	82e48800 	rschi	r8, r4, #0, 16
    3df0:	f0070280 			; <UNDEFINED> instruction: 0xf0070280
    3df4:	8c00000a 	stchi	0, cr0, [r0], {10}
    3df8:	028082e4 	addeq	r8, r0, #228, 4	; 0x4000000e
    3dfc:	000b3107 	andeq	r3, fp, r7, lsl #2
    3e00:	82e49000 	rschi	r9, r4, #0
    3e04:	3f070280 	svccc	0x00070280
    3e08:	9400000b 	strls	r0, [r0], #-11
    3e0c:	028082e4 	addeq	r8, r0, #228, 4	; 0x4000000e
    3e10:	000b1f07 	andeq	r1, fp, r7, lsl #30
    3e14:	82e49800 	rschi	r9, r4, #0, 16
    3e18:	8b070280 	blhi	1c4820 <__bss_end__+0x1ba088>
    3e1c:	9c00000b 	stcls	0, cr0, [r0], {11}
    3e20:	028082e4 	addeq	r8, r0, #228, 4	; 0x4000000e
    3e24:	000b9a07 	andeq	r9, fp, r7, lsl #20
    3e28:	82e4a000 	rschi	sl, r4, #0
    3e2c:	dd070280 	sfmle	f0, 4, [r7, #-512]	; 0xfffffe00
    3e30:	a400000a 	strge	r0, [r0], #-10
    3e34:	028082e4 	addeq	r8, r0, #228, 4	; 0x4000000e
    3e38:	02560800 	subseq	r0, r6, #0, 16
    3e3c:	1b010000 	blne	43e44 <__bss_end__+0x396ac>
    3e40:	00009b08 	andeq	r9, r0, r8, lsl #22
    3e44:	00000068 	andeq	r0, r0, r8, rrx
    3e48:	01a79c01 			; <UNDEFINED> instruction: 0x01a79c01
    3e4c:	fc090000 	stc2	0, cr0, [r9], {-0}
    3e50:	0100000a 	tsteq	r0, sl
    3e54:	00002c23 	andeq	r2, r0, r3, lsr #24
    3e58:	0b4d0900 	bleq	1346260 <__bss_end__+0x133bac8>
    3e5c:	24010000 	strcs	r0, [r1], #-0
    3e60:	0000002c 	andeq	r0, r0, ip, lsr #32
    3e64:	7473640a 	ldrbtvc	r6, [r3], #-1034	; 0x40a
    3e68:	a7270100 	strge	r0, [r7, -r0, lsl #2]!
    3e6c:	00000001 	andeq	r0, r0, r1
    3e70:	6372730b 	cmnvs	r2, #738197504	; 0x2c000000
    3e74:	a7280100 	strge	r0, [r8, -r0, lsl #2]!
    3e78:	0c000001 	stceq	0, cr0, [r0], {1}
    3e7c:	2901006e 	stmdbcs	r1, {r1, r2, r3, r5, r6}
    3e80:	0000002c 	andeq	r0, r0, ip, lsr #32
    3e84:	380d5001 	stmdacc	sp, {r0, ip, lr}
    3e88:	2400009b 	strcs	r0, [r0], #-155	; 0x9b
    3e8c:	63000000 	movwvs	r0, #0
    3e90:	0e000001 	cdpeq	0, 0, cr0, cr0, cr1, {0}
    3e94:	2a010069 	bcs	44040 <__bss_end__+0x398a8>
    3e98:	00000025 	andeq	r0, r0, r5, lsr #32
    3e9c:	00002631 	andeq	r2, r0, r1, lsr r6
    3ea0:	9b180f00 	blls	607aa8 <__bss_end__+0x5fd310>
    3ea4:	025d0000 	subseq	r0, sp, #0
    3ea8:	01800000 	orreq	r0, r0, r0
    3eac:	01100000 	tsteq	r0, r0
    3eb0:	ff090251 			; <UNDEFINED> instruction: 0xff090251
    3eb4:	05500110 	ldrbeq	r0, [r0, #-272]	; 0x110
    3eb8:	00b21c0c 	adcseq	r1, r2, ip, lsl #24
    3ebc:	240f0020 	strcs	r0, [pc], #-32	; 3ec4 <_start-0x413c>
    3ec0:	5d00009b 	stcpl	0, cr0, [r0, #-620]	; 0xfffffd94
    3ec4:	9d000002 	stcls	0, cr0, [r0, #-8]
    3ec8:	10000001 	andne	r0, r0, r1
    3ecc:	09025101 	stmdbeq	r2, {r0, r8, ip, lr}
    3ed0:	500110ff 	strdpl	r1, [r1], -pc	; <UNPREDICTABLE>
    3ed4:	b2200c05 	eorlt	r0, r0, #1280	; 0x500
    3ed8:	11002000 	mrsne	r2, (UNDEF: 0)
    3edc:	00009b28 	andeq	r9, r0, r8, lsr #22
    3ee0:	00000273 	andeq	r0, r0, r3, ror r2
    3ee4:	2c040400 	cfstrscs	mvf0, [r4], {-0}
    3ee8:	08000000 	stmdaeq	r0, {}	; <UNPREDICTABLE>
    3eec:	00000ba9 	andeq	r0, r0, r9, lsr #23
    3ef0:	9b702e01 	blls	1c0f6fc <__bss_end__+0x1c04f64>
    3ef4:	00440000 	subeq	r0, r4, r0
    3ef8:	9c010000 	stcls	0, cr0, [r1], {-0}
    3efc:	00000232 	andeq	r0, r0, r2, lsr r2
    3f00:	00637012 	rsbeq	r7, r3, r2, lsl r0
    3f04:	002c2e01 	eoreq	r2, ip, r1, lsl #28
    3f08:	26500000 	ldrbcs	r0, [r0], -r0
    3f0c:	6b130000 	blvs	4c3f14 <__bss_end__+0x4b977c>
    3f10:	42000001 	andmi	r0, r0, #1
    3f14:	05000002 	streq	r0, [r0, #-2]
    3f18:	00a1b003 	adceq	fp, r1, r3
    3f1c:	9b801100 	blls	fe008324 <__bss_end__+0xfdffdb8c>
    3f20:	027a0000 	rsbseq	r0, sl, #0
    3f24:	a00f0000 	andge	r0, pc, r0
    3f28:	8100009b 	swphi	r0, fp, [r0]	; <UNPREDICTABLE>
    3f2c:	28000002 	stmdacs	r0, {r1}
    3f30:	10000002 	andne	r0, r0, r2
    3f34:	08025301 	stmdaeq	r2, {r0, r8, r9, ip, lr}
    3f38:	5201102f 	andpl	r1, r1, #47	; 0x2f
    3f3c:	a1b00305 	lslsge	r0, r5, #6
    3f40:	01100000 	tsteq	r0, r0
    3f44:	04030551 	streq	r0, [r3], #-1361	; 0x551
    3f48:	100000a2 	andne	r0, r0, r2, lsr #1
    3f4c:	03055001 	movweq	r5, #20481	; 0x5001
    3f50:	0000a1c8 	andeq	sl, r0, r8, asr #3
    3f54:	047d0210 	ldrbteq	r0, [sp], #-528	; 0x210
    3f58:	10007402 	andne	r7, r0, r2, lsl #8
    3f5c:	05007d02 	streq	r7, [r0, #-3330]	; 0xd02
    3f60:	00a22403 	adceq	r2, r2, r3, lsl #8
    3f64:	a4110000 	ldrge	r0, [r1], #-0
    3f68:	9700009b 			; <UNDEFINED> instruction: 0x9700009b
    3f6c:	00000002 	andeq	r0, r0, r2
    3f70:	00007214 	andeq	r7, r0, r4, lsl r2
    3f74:	00024200 	andeq	r4, r2, r0, lsl #4
    3f78:	006b1500 	rsbeq	r1, fp, r0, lsl #10
    3f7c:	00150000 	andseq	r0, r5, r0
    3f80:	00023205 	andeq	r3, r2, r5, lsl #4
    3f84:	0afc0900 	beq	fff0638c <__bss_end__+0xffefbbf4>
    3f88:	23010000 	movwcs	r0, #4096	; 0x1000
    3f8c:	0000002c 	andeq	r0, r0, ip, lsr #32
    3f90:	000b4d09 	andeq	r4, fp, r9, lsl #26
    3f94:	2c240100 	stfcss	f0, [r4], #-0
    3f98:	16000000 	strne	r0, [r0], -r0
    3f9c:	00000700 	andeq	r0, r0, r0, lsl #14
    3fa0:	02739c02 	rsbseq	r9, r3, #512	; 0x200
    3fa4:	2c170000 	ldccs	0, cr0, [r7], {-0}
    3fa8:	17000000 	strne	r0, [r0, -r0]
    3fac:	0000002c 	andeq	r0, r0, ip, lsr #32
    3fb0:	027d1800 	rsbseq	r1, sp, #0, 16
    3fb4:	8a020000 	bhi	83fbc <__bss_end__+0x79824>
    3fb8:	00012318 	andeq	r2, r1, r8, lsl r3
    3fbc:	191e0200 	ldmdbne	lr, {r9}
    3fc0:	00000442 	andeq	r0, r0, r2, asr #8
    3fc4:	00252902 	eoreq	r2, r5, r2, lsl #18
    3fc8:	02970000 	addseq	r0, r7, #0
    3fcc:	79170000 	ldmdbvc	r7, {}	; <UNPREDICTABLE>
    3fd0:	1a000000 	bne	3fd8 <_start-0x4028>
    3fd4:	020c1800 	andeq	r1, ip, #0, 16
    3fd8:	66020000 	strvs	r0, [r2], -r0
    3fdc:	0001c300 	andeq	ip, r1, r0, lsl #6
    3fe0:	74000400 	strvc	r0, [r0], #-1024	; 0x400
    3fe4:	04000012 	streq	r0, [r0], #-18
    3fe8:	0002e401 	andeq	lr, r2, r1, lsl #8
    3fec:	0be20100 	bleq	ff8843f4 <__bss_end__+0xff879c5c>
    3ff0:	04530000 	ldrbeq	r0, [r3], #-0
    3ff4:	9d040000 	stcls	0, cr0, [r4, #-0]
    3ff8:	00500000 	subseq	r0, r0, r0
    3ffc:	10fc0000 	rscsne	r0, ip, r0
    4000:	04020000 	streq	r0, [r2], #-0
    4004:	746e6905 	strbtvc	r6, [lr], #-2309	; 0x905
    4008:	0bcd0300 	bleq	ff344c10 <__bss_end__+0xff33a478>
    400c:	d4020000 	strle	r0, [r2], #-0
    4010:	00000037 	andeq	r0, r0, r7, lsr r0
    4014:	6c070404 	cfstrsvs	mvf0, [r7], {4}
    4018:	04000000 	streq	r0, [r0], #-0
    401c:	028b0601 	addeq	r0, fp, #1048576	; 0x100000
    4020:	02040000 	andeq	r0, r4, #0
    4024:	0002a405 	andeq	sl, r2, r5, lsl #8
    4028:	05040400 	streq	r0, [r4, #-1024]	; 0x400
    402c:	0000008f 	andeq	r0, r0, pc, lsl #1
    4030:	8a050804 	bhi	146048 <__bss_end__+0x13b8b0>
    4034:	03000000 	movweq	r0, #0
    4038:	000003d1 	ldrdeq	r0, [r0], -r1
    403c:	00652e03 	rsbeq	r2, r5, r3, lsl #28
    4040:	01040000 	mrseq	r0, (UNDEF: 4)
    4044:	00028908 	andeq	r8, r2, r8, lsl #18
    4048:	07020400 	streq	r0, [r2, -r0, lsl #8]
    404c:	00000178 	andeq	r0, r0, r8, ror r1
    4050:	00069303 	andeq	r9, r6, r3, lsl #6
    4054:	7e340300 	cdpvc	3, 3, cr0, cr4, cr0, {0}
    4058:	04000000 	streq	r0, [r0], #-0
    405c:	00670704 	rsbeq	r0, r7, r4, lsl #14
    4060:	08040000 	stmdaeq	r4, {}	; <UNPREDICTABLE>
    4064:	00006207 	andeq	r6, r0, r7, lsl #4
    4068:	07040400 	streq	r0, [r4, -r0, lsl #8]
    406c:	0000022e 	andeq	r0, r0, lr, lsr #4
    4070:	01040405 	tsteq	r4, r5, lsl #8
    4074:	00029208 	andeq	r9, r2, r8, lsl #4
    4078:	040c0600 	streq	r0, [ip], #-1536	; 0x600
    407c:	0000d30e 	andeq	sp, r0, lr, lsl #6
    4080:	78740700 	ldmdavc	r4!, {r8, r9, sl}^
    4084:	5a0f0400 	bpl	3c508c <__bss_end__+0x3ba8f4>
    4088:	00000000 	andeq	r0, r0, r0
    408c:	00787207 	rsbseq	r7, r8, r7, lsl #4
    4090:	005a0f04 	subseq	r0, sl, r4, lsl #30
    4094:	08010000 	stmdaeq	r1, {}	; <UNPREDICTABLE>
    4098:	00000612 	andeq	r0, r0, r2, lsl r6
    409c:	00731004 	rsbseq	r1, r3, r4
    40a0:	08040000 	stmdaeq	r4, {}	; <UNPREDICTABLE>
    40a4:	000005c3 	andeq	r0, r0, r3, asr #11
    40a8:	00731104 	rsbseq	r1, r3, r4, lsl #2
    40ac:	00080000 	andeq	r0, r8, r0
    40b0:	0005fb03 	andeq	pc, r5, r3, lsl #22
    40b4:	9c120400 	cfldrsls	mvf0, [r2], {-0}
    40b8:	09000000 	stmdbeq	r0, {}	; <UNPREDICTABLE>
    40bc:	f9100501 			; <UNDEFINED> instruction: 0xf9100501
    40c0:	0a000000 	beq	40c8 <_start-0x3f38>
    40c4:	00000617 	andeq	r0, r0, r7, lsl r6
    40c8:	06050a01 	streq	r0, [r5], -r1, lsl #20
    40cc:	0a020000 	beq	840d4 <__bss_end__+0x7993c>
    40d0:	000005ed 	andeq	r0, r0, sp, ror #11
    40d4:	2c030003 	stccs	0, cr0, [r3], {3}
    40d8:	05000006 	streq	r0, [r0, #-6]
    40dc:	0000de10 	andeq	sp, r0, r0, lsl lr
    40e0:	05140600 	ldreq	r0, [r4, #-1536]	; 0x600
    40e4:	00013114 	andeq	r3, r1, r4, lsl r1
    40e8:	069c0800 	ldreq	r0, [ip], r0, lsl #16
    40ec:	15050000 	strne	r0, [r5, #-0]
    40f0:	00000037 	andeq	r0, r0, r7, lsr r0
    40f4:	06870800 	streq	r0, [r7], r0, lsl #16
    40f8:	18050000 	stmdane	r5, {}	; <UNPREDICTABLE>
    40fc:	000000f9 	strdeq	r0, [r0], -r9
    4100:	06520804 	ldrbeq	r0, [r2], -r4, lsl #16
    4104:	1b050000 	blne	14410c <__bss_end__+0x139974>
    4108:	000000d3 	ldrdeq	r0, [r0], -r3
    410c:	44030008 	strmi	r0, [r3], #-8
    4110:	05000006 	streq	r0, [r0, #-6]
    4114:	00010420 	andeq	r0, r1, r0, lsr #8
    4118:	0bdb0b00 	bleq	ff6c6d20 <__bss_end__+0xff6bc588>
    411c:	05010000 	streq	r0, [r1, #-0]
    4120:	0000017e 	andeq	r0, r0, lr, ror r1
    4124:	00009d04 	andeq	r9, r0, r4, lsl #26
    4128:	00000028 	andeq	r0, r0, r8, lsr #32
    412c:	017e9c01 	cmneq	lr, r1, lsl #24
    4130:	630c0000 	movwvs	r0, #49152	; 0xc000
    4134:	7e060100 	adfvcs	f0, f6, f0
    4138:	00000001 	andeq	r0, r0, r1
    413c:	0d090000 	stceq	0, cr0, [r9, #-0]
    4140:	00009d18 	andeq	r9, r0, r8, lsl sp
    4144:	000001ab 	andeq	r0, r0, fp, lsr #3
    4148:	0152010e 	cmpeq	r2, lr, lsl #2
    414c:	51010e34 	tstpl	r1, r4, lsr lr
    4150:	010e3001 	tsteq	lr, r1
    4154:	47420350 	smlsldmi	r0, r2, r0, r3
    4158:	0f000024 	svceq	0x00000024
    415c:	00013104 	andeq	r3, r1, r4, lsl #2
    4160:	065a0b00 	ldrbeq	r0, [sl], -r0, lsl #22
    4164:	0c010000 	stceq	0, cr0, [r1], {-0}
    4168:	0000017e 	andeq	r0, r0, lr, ror r1
    416c:	00009d2c 	andeq	r9, r0, ip, lsr #26
    4170:	00000028 	andeq	r0, r0, r8, lsr #32
    4174:	01ab9c01 			; <UNDEFINED> instruction: 0x01ab9c01
    4178:	630c0000 	movwvs	r0, #49152	; 0xc000
    417c:	7e0d0100 	adfvce	f0, f5, f0
    4180:	00000001 	andeq	r0, r0, r1
    4184:	00090000 	andeq	r0, r9, r0
    4188:	000bd410 	andeq	sp, fp, r0, lsl r4
    418c:	931b0600 	tstls	fp, #0, 12
    4190:	11000000 	mrsne	r0, (UNDEF: 0)
    4194:	00000093 	muleq	r0, r3, r0
    4198:	00002511 	andeq	r2, r0, r1, lsl r5
    419c:	002c1100 	eoreq	r1, ip, r0, lsl #2
    41a0:	00000000 	andeq	r0, r0, r0
    41a4:	0000013e 	andeq	r0, r0, lr, lsr r1
    41a8:	13580004 	cmpne	r8, #4
    41ac:	01040000 	mrseq	r0, (UNDEF: 4)
    41b0:	000002e4 	andeq	r0, r0, r4, ror #5
    41b4:	000bfd01 	andeq	pc, fp, r1, lsl #26
    41b8:	00045300 	andeq	r5, r4, r0, lsl #6
    41bc:	009d5400 	addseq	r5, sp, r0, lsl #8
    41c0:	00004400 	andeq	r4, r0, r0, lsl #8
    41c4:	00122800 	andseq	r2, r2, r0, lsl #16
    41c8:	05040200 	streq	r0, [r4, #-512]	; 0x200
    41cc:	00746e69 	rsbseq	r6, r4, r9, ror #28
    41d0:	6c070403 	cfstrsvs	mvf0, [r7], {3}
    41d4:	03000000 	movweq	r0, #0
    41d8:	028b0601 	addeq	r0, fp, #1048576	; 0x100000
    41dc:	02030000 	andeq	r0, r3, #0
    41e0:	0002a405 	andeq	sl, r2, r5, lsl #8
    41e4:	05040300 	streq	r0, [r4, #-768]	; 0x300
    41e8:	0000008f 	andeq	r0, r0, pc, lsl #1
    41ec:	8a050803 	bhi	146200 <__bss_end__+0x13ba68>
    41f0:	03000000 	movweq	r0, #0
    41f4:	02890801 	addeq	r0, r9, #65536	; 0x10000
    41f8:	02030000 	andeq	r0, r3, #0
    41fc:	00017807 	andeq	r7, r1, r7, lsl #16
    4200:	07040300 	streq	r0, [r4, -r0, lsl #6]
    4204:	00000067 	andeq	r0, r0, r7, rrx
    4208:	62070803 	andvs	r0, r7, #196608	; 0x30000
    420c:	03000000 	movweq	r0, #0
    4210:	022e0704 	eoreq	r0, lr, #4, 14	; 0x100000
    4214:	01030000 	mrseq	r0, (UNDEF: 3)
    4218:	00029208 	andeq	r9, r2, r8, lsl #4
    421c:	7f040400 	svcvc	0x00040400
    4220:	05000000 	streq	r0, [r0, #-0]
    4224:	00000072 	andeq	r0, r0, r2, ror r0
    4228:	000c2b06 	andeq	r2, ip, r6, lsl #22
    422c:	54020100 	strpl	r0, [r2], #-256	; 0x100
    4230:	4400009d 	strmi	r0, [r0], #-157	; 0x9d
    4234:	01000000 	mrseq	r0, (UNDEF: 0)
    4238:	0001089c 	muleq	r1, ip, r8
    423c:	63700700 	cmnvs	r0, #0, 14
    4240:	2c020100 	stfcss	f0, [r2], {-0}
    4244:	6e000000 	cdpvs	0, 0, cr0, cr0, cr0, {0}
    4248:	08000026 	stmdaeq	r0, {r1, r2, r5}
    424c:	0000016b 	andeq	r0, r0, fp, ror #2
    4250:	00000118 	andeq	r0, r0, r8, lsl r1
    4254:	a22c0305 	eorge	r0, ip, #335544320	; 0x14000000
    4258:	64090000 	strvs	r0, [r9], #-0
    425c:	1d00009d 	stcne	0, cr0, [r0, #-628]	; 0xfffffd8c
    4260:	0a000001 	beq	426c <_start-0x3d94>
    4264:	00009d84 	andeq	r9, r0, r4, lsl #27
    4268:	00000124 	andeq	r0, r0, r4, lsr #2
    426c:	000000fe 	strdeq	r0, [r0], -lr
    4270:	0153010b 	cmpeq	r3, fp, lsl #2
    4274:	52010b32 	andpl	r0, r1, #51200	; 0xc800
    4278:	a22c0305 	eorge	r0, ip, #335544320	; 0x14000000
    427c:	010b0000 	mrseq	r0, (UNDEF: 11)
    4280:	40030551 	andmi	r0, r3, r1, asr r5
    4284:	0b0000a2 	bleq	4514 <_start-0x3aec>
    4288:	03055001 	movweq	r5, #20481	; 0x5001
    428c:	0000a1c8 	andeq	sl, r0, r8, asr #3
    4290:	047d020b 	ldrbteq	r0, [sp], #-523	; 0x20b
    4294:	0b007402 	bleq	212a4 <__bss_end__+0x16b0c>
    4298:	05007d02 	streq	r7, [r0, #-3330]	; 0xd02
    429c:	00a27003 	adceq	r7, r2, r3
    42a0:	88090000 	stmdahi	r9, {}	; <UNPREDICTABLE>
    42a4:	3a00009d 	bcc	4520 <_start-0x3ae0>
    42a8:	00000001 	andeq	r0, r0, r1
    42ac:	0000720c 	andeq	r7, r0, ip, lsl #4
    42b0:	00011800 	andeq	r1, r1, r0, lsl #16
    42b4:	006b0d00 	rsbeq	r0, fp, r0, lsl #26
    42b8:	00110000 	andseq	r0, r1, r0
    42bc:	00010805 	andeq	r0, r1, r5, lsl #16
    42c0:	01230e00 	teqeq	r3, r0, lsl #28
    42c4:	1e020000 	cdpne	0, 0, cr0, cr2, cr0, {0}
    42c8:	0004420f 	andeq	r4, r4, pc, lsl #4
    42cc:	25290200 	strcs	r0, [r9, #-512]!	; 0x200
    42d0:	3a000000 	bcc	42d8 <_start-0x3d28>
    42d4:	10000001 	andne	r0, r0, r1
    42d8:	00000079 	andeq	r0, r0, r9, ror r0
    42dc:	0c0e0011 	stceq	0, cr0, [lr], {17}
    42e0:	02000002 	andeq	r0, r0, #2
    42e4:	013e0066 	teqeq	lr, r6, rrx
    42e8:	00040000 	andeq	r0, r4, r0
    42ec:	00001430 	andeq	r1, r0, r0, lsr r4
    42f0:	02e40104 	rsceq	r0, r4, #4, 2
    42f4:	3d010000 	stccc	0, cr0, [r1, #-0]
    42f8:	5300000c 	movwpl	r0, #12
    42fc:	98000004 	stmdals	r0, {r2}
    4300:	4400009d 	strmi	r0, [r0], #-157	; 0x9d
    4304:	d1000000 	mrsle	r0, (UNDEF: 0)
    4308:	02000012 	andeq	r0, r0, #18
    430c:	6e690504 	cdpvs	5, 6, cr0, cr9, cr4, {0}
    4310:	04030074 	streq	r0, [r3], #-116	; 0x74
    4314:	00006c07 	andeq	r6, r0, r7, lsl #24
    4318:	06010300 	streq	r0, [r1], -r0, lsl #6
    431c:	0000028b 	andeq	r0, r0, fp, lsl #5
    4320:	a4050203 	strge	r0, [r5], #-515	; 0x203
    4324:	03000002 	movweq	r0, #2
    4328:	008f0504 	addeq	r0, pc, r4, lsl #10
    432c:	08030000 	stmdaeq	r3, {}	; <UNPREDICTABLE>
    4330:	00008a05 	andeq	r8, r0, r5, lsl #20
    4334:	08010300 	stmdaeq	r1, {r8, r9}
    4338:	00000289 	andeq	r0, r0, r9, lsl #5
    433c:	78070203 	stmdavc	r7, {r0, r1, r9}
    4340:	03000001 	movweq	r0, #1
    4344:	00670704 	rsbeq	r0, r7, r4, lsl #14
    4348:	08030000 	stmdaeq	r3, {}	; <UNPREDICTABLE>
    434c:	00006207 	andeq	r6, r0, r7, lsl #4
    4350:	07040300 	streq	r0, [r4, -r0, lsl #6]
    4354:	0000022e 	andeq	r0, r0, lr, lsr #4
    4358:	92080103 	andls	r0, r8, #-1073741824	; 0xc0000000
    435c:	04000002 	streq	r0, [r0], #-2
    4360:	00007f04 	andeq	r7, r0, r4, lsl #30
    4364:	00720500 	rsbseq	r0, r2, r0, lsl #10
    4368:	69060000 	stmdbvs	r6, {}	; <UNPREDICTABLE>
    436c:	0100000c 	tsteq	r0, ip
    4370:	009d9802 	addseq	r9, sp, r2, lsl #16
    4374:	00004400 	andeq	r4, r0, r0, lsl #8
    4378:	089c0100 	ldmeq	ip, {r8}
    437c:	07000001 	streq	r0, [r0, -r1]
    4380:	01006370 	tsteq	r0, r0, ror r3
    4384:	00002c02 	andeq	r2, r0, r2, lsl #24
    4388:	00268c00 	eoreq	r8, r6, r0, lsl #24
    438c:	016b0800 	cmneq	fp, r0, lsl #16
    4390:	01180000 	tsteq	r8, r0
    4394:	03050000 	movweq	r0, #20480	; 0x5000
    4398:	0000a27c 	andeq	sl, r0, ip, ror r2
    439c:	009da809 	addseq	sl, sp, r9, lsl #16
    43a0:	00011d00 	andeq	r1, r1, r0, lsl #26
    43a4:	9dc80a00 	vstrls	s1, [r8]
    43a8:	01240000 	teqeq	r4, r0
    43ac:	00fe0000 	rscseq	r0, lr, r0
    43b0:	010b0000 	mrseq	r0, (UNDEF: 11)
    43b4:	0b320153 	bleq	c84908 <__bss_end__+0xc7a170>
    43b8:	03055201 	movweq	r5, #20993	; 0x5201
    43bc:	0000a27c 	andeq	sl, r0, ip, ror r2
    43c0:	0551010b 	ldrbeq	r0, [r1, #-267]	; 0x10b
    43c4:	00a29403 	adceq	r9, r2, r3, lsl #8
    43c8:	50010b00 	andpl	r0, r1, r0, lsl #22
    43cc:	a1c80305 	bicge	r0, r8, r5, lsl #6
    43d0:	020b0000 	andeq	r0, fp, #0
    43d4:	7402047d 	strvc	r0, [r2], #-1149	; 0x47d
    43d8:	7d020b00 	vstrvc	d0, [r2, #-0]
    43dc:	c0030500 	andgt	r0, r3, r0, lsl #10
    43e0:	000000a2 	andeq	r0, r0, r2, lsr #1
    43e4:	009dcc09 	addseq	ip, sp, r9, lsl #24
    43e8:	00013a00 	andeq	r3, r1, r0, lsl #20
    43ec:	720c0000 	andvc	r0, ip, #0
    43f0:	18000000 	stmdane	r0, {}	; <UNPREDICTABLE>
    43f4:	0d000001 	stceq	0, cr0, [r0, #-4]
    43f8:	0000006b 	andeq	r0, r0, fp, rrx
    43fc:	08050015 	stmdaeq	r5, {r0, r2, r4}
    4400:	0e000001 	cdpeq	0, 0, cr0, cr0, cr1, {0}
    4404:	00000123 	andeq	r0, r0, r3, lsr #2
    4408:	420f1e02 	andmi	r1, pc, #2, 28
    440c:	02000004 	andeq	r0, r0, #4
    4410:	00002529 	andeq	r2, r0, r9, lsr #10
    4414:	00013a00 	andeq	r3, r1, r0, lsl #20
    4418:	00791000 	rsbseq	r1, r9, r0
    441c:	00110000 	andseq	r0, r1, r0
    4420:	00020c0e 	andeq	r0, r2, lr, lsl #24
    4424:	00660200 	rsbeq	r0, r6, r0, lsl #4
    4428:	0000013e 	andeq	r0, r0, lr, lsr r1
    442c:	15080004 	strne	r0, [r8, #-4]
    4430:	01040000 	mrseq	r0, (UNDEF: 4)
    4434:	000002e4 	andeq	r0, r0, r4, ror #5
    4438:	000c8c01 	andeq	r8, ip, r1, lsl #24
    443c:	00045300 	andeq	r5, r4, r0, lsl #6
    4440:	009ddc00 	addseq	sp, sp, r0, lsl #24
    4444:	00004400 	andeq	r4, r0, r0, lsl #8
    4448:	00137800 	andseq	r7, r3, r0, lsl #16
    444c:	05040200 	streq	r0, [r4, #-512]	; 0x200
    4450:	00746e69 	rsbseq	r6, r4, r9, ror #28
    4454:	6c070403 	cfstrsvs	mvf0, [r7], {3}
    4458:	03000000 	movweq	r0, #0
    445c:	028b0601 	addeq	r0, fp, #1048576	; 0x100000
    4460:	02030000 	andeq	r0, r3, #0
    4464:	0002a405 	andeq	sl, r2, r5, lsl #8
    4468:	05040300 	streq	r0, [r4, #-768]	; 0x300
    446c:	0000008f 	andeq	r0, r0, pc, lsl #1
    4470:	8a050803 	bhi	146484 <__bss_end__+0x13bcec>
    4474:	03000000 	movweq	r0, #0
    4478:	02890801 	addeq	r0, r9, #65536	; 0x10000
    447c:	02030000 	andeq	r0, r3, #0
    4480:	00017807 	andeq	r7, r1, r7, lsl #16
    4484:	07040300 	streq	r0, [r4, -r0, lsl #6]
    4488:	00000067 	andeq	r0, r0, r7, rrx
    448c:	62070803 	andvs	r0, r7, #196608	; 0x30000
    4490:	03000000 	movweq	r0, #0
    4494:	022e0704 	eoreq	r0, lr, #4, 14	; 0x100000
    4498:	01030000 	mrseq	r0, (UNDEF: 3)
    449c:	00029208 	andeq	r9, r2, r8, lsl #4
    44a0:	7f040400 	svcvc	0x00040400
    44a4:	05000000 	streq	r0, [r0, #-0]
    44a8:	00000072 	andeq	r0, r0, r2, ror r0
    44ac:	000c7f06 	andeq	r7, ip, r6, lsl #30
    44b0:	dc020100 	stfles	f0, [r2], {-0}
    44b4:	4400009d 	strmi	r0, [r0], #-157	; 0x9d
    44b8:	01000000 	mrseq	r0, (UNDEF: 0)
    44bc:	0001089c 	muleq	r1, ip, r8
    44c0:	63700700 	cmnvs	r0, #0, 14
    44c4:	2c020100 	stfcss	f0, [r2], {-0}
    44c8:	aa000000 	bge	44d0 <_start-0x3b30>
    44cc:	08000026 	stmdaeq	r0, {r1, r2, r5}
    44d0:	0000016b 	andeq	r0, r0, fp, ror #2
    44d4:	00000118 	andeq	r0, r0, r8, lsl r1
    44d8:	a2d00305 	sbcsge	r0, r0, #335544320	; 0x14000000
    44dc:	ec090000 	stc	0, cr0, [r9], {-0}
    44e0:	1d00009d 	stcne	0, cr0, [r0, #-628]	; 0xfffffd8c
    44e4:	0a000001 	beq	44f0 <_start-0x3b10>
    44e8:	00009e0c 	andeq	r9, r0, ip, lsl #28
    44ec:	00000124 	andeq	r0, r0, r4, lsr #2
    44f0:	000000fe 	strdeq	r0, [r0], -lr
    44f4:	0153010b 	cmpeq	r3, fp, lsl #2
    44f8:	52010b32 	andpl	r0, r1, #51200	; 0xc800
    44fc:	a2d00305 	sbcsge	r0, r0, #335544320	; 0x14000000
    4500:	010b0000 	mrseq	r0, (UNDEF: 11)
    4504:	e0030551 	and	r0, r3, r1, asr r5
    4508:	0b0000a2 	bleq	4798 <_start-0x3868>
    450c:	03055001 	movweq	r5, #20481	; 0x5001
    4510:	0000a1c8 	andeq	sl, r0, r8, asr #3
    4514:	047d020b 	ldrbteq	r0, [sp], #-523	; 0x20b
    4518:	0b007402 	bleq	21528 <__bss_end__+0x16d90>
    451c:	05007d02 	streq	r7, [r0, #-3330]	; 0xd02
    4520:	00a30c03 	adceq	r0, r3, r3, lsl #24
    4524:	10090000 	andne	r0, r9, r0
    4528:	3a00009e 	bcc	47a8 <_start-0x3858>
    452c:	00000001 	andeq	r0, r0, r1
    4530:	0000720c 	andeq	r7, r0, ip, lsl #4
    4534:	00011800 	andeq	r1, r1, r0, lsl #16
    4538:	006b0d00 	rsbeq	r0, fp, r0, lsl #26
    453c:	000c0000 	andeq	r0, ip, r0
    4540:	00010805 	andeq	r0, r1, r5, lsl #16
    4544:	01230e00 	teqeq	r3, r0, lsl #28
    4548:	1e020000 	cdpne	0, 0, cr0, cr2, cr0, {0}
    454c:	0004420f 	andeq	r4, r4, pc, lsl #4
    4550:	25290200 	strcs	r0, [r9, #-512]!	; 0x200
    4554:	3a000000 	bcc	455c <_start-0x3aa4>
    4558:	10000001 	andne	r0, r0, r1
    455c:	00000079 	andeq	r0, r0, r9, ror r0
    4560:	0c0e0011 	stceq	0, cr0, [lr], {17}
    4564:	02000002 	andeq	r0, r0, #2
    4568:	013e0066 	teqeq	lr, r6, rrx
    456c:	00040000 	andeq	r0, r4, r0
    4570:	000015e0 	andeq	r1, r0, r0, ror #11
    4574:	02e40104 	rsceq	r0, r4, #4, 2
    4578:	b5010000 	strlt	r0, [r1, #-0]
    457c:	5300000c 	movwpl	r0, #12
    4580:	20000004 	andcs	r0, r0, r4
    4584:	4400009e 	strmi	r0, [r0], #-158	; 0x9e
    4588:	1c000000 	stcne	0, cr0, [r0], {-0}
    458c:	02000014 	andeq	r0, r0, #20
    4590:	6e690504 	cdpvs	5, 6, cr0, cr9, cr4, {0}
    4594:	04030074 	streq	r0, [r3], #-116	; 0x74
    4598:	00006c07 	andeq	r6, r0, r7, lsl #24
    459c:	06010300 	streq	r0, [r1], -r0, lsl #6
    45a0:	0000028b 	andeq	r0, r0, fp, lsl #5
    45a4:	a4050203 	strge	r0, [r5], #-515	; 0x203
    45a8:	03000002 	movweq	r0, #2
    45ac:	008f0504 	addeq	r0, pc, r4, lsl #10
    45b0:	08030000 	stmdaeq	r3, {}	; <UNPREDICTABLE>
    45b4:	00008a05 	andeq	r8, r0, r5, lsl #20
    45b8:	08010300 	stmdaeq	r1, {r8, r9}
    45bc:	00000289 	andeq	r0, r0, r9, lsl #5
    45c0:	78070203 	stmdavc	r7, {r0, r1, r9}
    45c4:	03000001 	movweq	r0, #1
    45c8:	00670704 	rsbeq	r0, r7, r4, lsl #14
    45cc:	08030000 	stmdaeq	r3, {}	; <UNPREDICTABLE>
    45d0:	00006207 	andeq	r6, r0, r7, lsl #4
    45d4:	07040300 	streq	r0, [r4, -r0, lsl #6]
    45d8:	0000022e 	andeq	r0, r0, lr, lsr #4
    45dc:	92080103 	andls	r0, r8, #-1073741824	; 0xc0000000
    45e0:	04000002 	streq	r0, [r0], #-2
    45e4:	00007f04 	andeq	r7, r0, r4, lsl #30
    45e8:	00720500 	rsbseq	r0, r2, r0, lsl #10
    45ec:	e7060000 	str	r0, [r6, -r0]
    45f0:	0100000c 	tsteq	r0, ip
    45f4:	009e2002 	addseq	r2, lr, r2
    45f8:	00004400 	andeq	r4, r0, r0, lsl #8
    45fc:	089c0100 	ldmeq	ip, {r8}
    4600:	07000001 	streq	r0, [r0, -r1]
    4604:	01006370 	tsteq	r0, r0, ror r3
    4608:	00002c02 	andeq	r2, r0, r2, lsl #24
    460c:	0026c800 	eoreq	ip, r6, r0, lsl #16
    4610:	016b0800 	cmneq	fp, r0, lsl #16
    4614:	01180000 	tsteq	r8, r0
    4618:	03050000 	movweq	r0, #20480	; 0x5000
    461c:	0000a314 	andeq	sl, r0, r4, lsl r3
    4620:	009e3009 	addseq	r3, lr, r9
    4624:	00011d00 	andeq	r1, r1, r0, lsl #26
    4628:	9e500a00 	vnmlsls.f32	s1, s0, s0
    462c:	01240000 	teqeq	r4, r0
    4630:	00fe0000 	rscseq	r0, lr, r0
    4634:	010b0000 	mrseq	r0, (UNDEF: 11)
    4638:	0b320153 	bleq	c84b8c <__bss_end__+0xc7a3f4>
    463c:	03055201 	movweq	r5, #20993	; 0x5201
    4640:	0000a314 	andeq	sl, r0, r4, lsl r3
    4644:	0551010b 	ldrbeq	r0, [r1, #-267]	; 0x10b
    4648:	00a33403 	adceq	r3, r3, r3, lsl #8
    464c:	50010b00 	andpl	r0, r1, r0, lsl #22
    4650:	a1c80305 	bicge	r0, r8, r5, lsl #6
    4654:	020b0000 	andeq	r0, fp, #0
    4658:	7402047d 	strvc	r0, [r2], #-1149	; 0x47d
    465c:	7d020b00 	vstrvc	d0, [r2, #-0]
    4660:	68030500 	stmdavs	r3, {r8, sl}
    4664:	000000a3 	andeq	r0, r0, r3, lsr #1
    4668:	009e5409 	addseq	r5, lr, r9, lsl #8
    466c:	00013a00 	andeq	r3, r1, r0, lsl #20
    4670:	720c0000 	andvc	r0, ip, #0
    4674:	18000000 	stmdane	r0, {}	; <UNPREDICTABLE>
    4678:	0d000001 	stceq	0, cr0, [r0, #-4]
    467c:	0000006b 	andeq	r0, r0, fp, rrx
    4680:	0805001c 	stmdaeq	r5, {r2, r3, r4}
    4684:	0e000001 	cdpeq	0, 0, cr0, cr0, cr1, {0}
    4688:	00000123 	andeq	r0, r0, r3, lsr #2
    468c:	420f1e02 	andmi	r1, pc, #2, 28
    4690:	02000004 	andeq	r0, r0, #4
    4694:	00002529 	andeq	r2, r0, r9, lsr #10
    4698:	00013a00 	andeq	r3, r1, r0, lsl #20
    469c:	00791000 	rsbseq	r1, r9, r0
    46a0:	00110000 	andseq	r0, r1, r0
    46a4:	00020c0e 	andeq	r0, r2, lr, lsl #24
    46a8:	00660200 	rsbeq	r0, r6, r0, lsl #4
    46ac:	000000db 	ldrdeq	r0, [r0], -fp
    46b0:	16b80004 	ldrtne	r0, [r8], r4
    46b4:	01040000 	mrseq	r0, (UNDEF: 4)
    46b8:	000002e4 	andeq	r0, r0, r4, ror #5
    46bc:	000d0401 	andeq	r0, sp, r1, lsl #8
    46c0:	00045300 	andeq	r5, r4, r0, lsl #6
    46c4:	009e6400 	addseq	r6, lr, r0, lsl #8
    46c8:	00002000 	andeq	r2, r0, r0
    46cc:	0014c900 	andseq	ip, r4, r0, lsl #18
    46d0:	06010200 	streq	r0, [r1], -r0, lsl #4
    46d4:	0000028b 	andeq	r0, r0, fp, lsl #5
    46d8:	89080102 	stmdbhi	r8, {r1, r8}
    46dc:	02000002 	andeq	r0, r0, #2
    46e0:	02a40502 	adceq	r0, r4, #8388608	; 0x800000
    46e4:	02020000 	andeq	r0, r2, #0
    46e8:	00017807 	andeq	r7, r1, r7, lsl #16
    46ec:	05040300 	streq	r0, [r4, #-768]	; 0x300
    46f0:	00746e69 	rsbseq	r6, r4, r9, ror #28
    46f4:	6c070402 	cfstrsvs	mvf0, [r7], {2}
    46f8:	02000000 	andeq	r0, r0, #0
    46fc:	008a0508 	addeq	r0, sl, r8, lsl #10
    4700:	08020000 	stmdaeq	r2, {}	; <UNPREDICTABLE>
    4704:	00006207 	andeq	r6, r0, r7, lsl #4
    4708:	05040200 	streq	r0, [r4, #-512]	; 0x200
    470c:	0000008f 	andeq	r0, r0, pc, lsl #1
    4710:	2e070402 	cdpcs	4, 0, cr0, cr7, cr2, {0}
    4714:	04000002 	streq	r0, [r0], #-2
    4718:	07040204 	streq	r0, [r4, -r4, lsl #4]
    471c:	00000067 	andeq	r0, r0, r7, rrx
    4720:	007a0405 	rsbseq	r0, sl, r5, lsl #8
    4724:	01020000 	mrseq	r0, (UNDEF: 2)
    4728:	00029208 	andeq	r9, r2, r8, lsl #4
    472c:	0bcd0600 	bleq	ff345f34 <__bss_end__+0xff33b79c>
    4730:	d4020000 	strle	r0, [r2], #-0
    4734:	00000048 	andeq	r0, r0, r8, asr #32
    4738:	000bd407 	andeq	sp, fp, r7, lsl #8
    473c:	6b1b0300 	blvs	6c5344 <__bss_end__+0x6babac>
    4740:	64000000 	strvs	r0, [r0], #-0
    4744:	2000009e 	mulcs	r0, lr, r0
    4748:	01000000 	mrseq	r0, (UNDEF: 0)
    474c:	705f089c 			; <UNDEFINED> instruction: 0x705f089c
    4750:	6b030100 	blvs	c4b58 <__bss_end__+0xba3c0>
    4754:	01000000 	mrseq	r0, (UNDEF: 0)
    4758:	00630850 	rsbeq	r0, r3, r0, asr r8
    475c:	00410301 	subeq	r0, r1, r1, lsl #6
    4760:	51010000 	mrspl	r0, (UNDEF: 1)
    4764:	01006e09 	tsteq	r0, r9, lsl #28
    4768:	00008103 	andeq	r8, r0, r3, lsl #2
    476c:	0026e600 	eoreq	lr, r6, r0, lsl #12
    4770:	00700a00 	rsbseq	r0, r0, r0, lsl #20
    4774:	00740401 	rsbseq	r0, r4, r1, lsl #8
    4778:	27070000 	strcs	r0, [r7, -r0]
    477c:	650b0000 	strvs	r0, [fp, #-0]
    4780:	74040100 	strvc	r0, [r4], #-256	; 0x100
    4784:	01000000 	mrseq	r0, (UNDEF: 0)
    4788:	Address 0x0000000000004788 is out of bounds.


Disassembly of section .debug_abbrev:

00000000 <.debug_abbrev>:
       0:	25011101 	strcs	r1, [r1, #-257]	; 0x101
       4:	030b130e 	movweq	r1, #45838	; 0xb30e
       8:	110e1b0e 	tstne	lr, lr, lsl #22
       c:	10061201 	andne	r1, r6, r1, lsl #4
      10:	02000017 	andeq	r0, r0, #23
      14:	0b0b0024 	bleq	2c00ac <__bss_end__+0x2b5914>
      18:	08030b3e 	stmdaeq	r3, {r1, r2, r3, r4, r5, r8, r9, fp}
      1c:	24030000 	strcs	r0, [r3], #-0
      20:	3e0b0b00 	vmlacc.f64	d0, d11, d0
      24:	000e030b 	andeq	r0, lr, fp, lsl #6
      28:	00160400 	andseq	r0, r6, r0, lsl #8
      2c:	0b3a0e03 	bleq	e83840 <__bss_end__+0xe790a8>
      30:	13490b3b 	movtne	r0, #39739	; 0x9b3b
      34:	0f050000 	svceq	0x00050000
      38:	490b0b00 	stmdbmi	fp, {r8, r9, fp}
      3c:	06000013 			; <UNDEFINED> instruction: 0x06000013
      40:	13490026 	movtne	r0, #36902	; 0x9026
      44:	04070000 	streq	r0, [r7], #-0
      48:	3a0b0b01 	bcc	2c2c54 <__bss_end__+0x2b84bc>
      4c:	010b3b0b 	tsteq	fp, fp, lsl #22
      50:	08000013 	stmdaeq	r0, {r0, r1, r4}
      54:	0e030028 	cdpeq	0, 0, cr0, cr3, cr8, {1}
      58:	00000d1c 	andeq	r0, r0, ip, lsl sp
      5c:	49003509 	stmdbmi	r0, {r0, r3, r8, sl, ip, sp}
      60:	0a000013 	beq	b4 <_start-0x7f4c>
      64:	0e03012e 	adfeqsp	f0, f3, #0.5
      68:	0b3b0b3a 	bleq	ec2d58 <__bss_end__+0xeb85c0>
      6c:	0b201927 	bleq	806510 <__bss_end__+0x7fbd78>
      70:	00001301 	andeq	r1, r0, r1, lsl #6
      74:	0300050b 	movweq	r0, #1291	; 0x50b
      78:	3b0b3a08 	blcc	2ce8a0 <__bss_end__+0x2c4108>
      7c:	0013490b 	andseq	r4, r3, fp, lsl #18
      80:	012e0c00 	teqeq	lr, r0, lsl #24
      84:	0e03193f 	mcreq	9, 0, r1, cr3, cr15, {1}
      88:	0b3b0b3a 	bleq	ec2d78 <__bss_end__+0xeb85e0>
      8c:	13491927 	movtne	r1, #39207	; 0x9927
      90:	06120111 			; <UNDEFINED> instruction: 0x06120111
      94:	42971840 	addsmi	r1, r7, #64, 16	; 0x400000
      98:	00130119 	andseq	r0, r3, r9, lsl r1
      9c:	00050d00 	andeq	r0, r5, r0, lsl #26
      a0:	0b3a0803 	bleq	e820b4 <__bss_end__+0xe7791c>
      a4:	13490b3b 	movtne	r0, #39739	; 0x9b3b
      a8:	00001702 	andeq	r1, r0, r2, lsl #14
      ac:	0300340e 	movweq	r3, #1038	; 0x40e
      b0:	3413490e 	ldrcc	r4, [r3], #-2318	; 0x90e
      b4:	00180219 	andseq	r0, r8, r9, lsl r2
      b8:	00340f00 	eorseq	r0, r4, r0, lsl #30
      bc:	0b3a0e03 	bleq	e838d0 <__bss_end__+0xe79138>
      c0:	13490b3b 	movtne	r0, #39739	; 0x9b3b
      c4:	34100000 	ldrcc	r0, [r0], #-0
      c8:	3a0e0300 	bcc	380cd0 <__bss_end__+0x376538>
      cc:	490b3b0b 	stmdbmi	fp, {r0, r1, r3, r8, r9, fp, ip, sp}
      d0:	00170213 	andseq	r0, r7, r3, lsl r2
      d4:	010b1100 	mrseq	r1, (UNDEF: 27)
      d8:	06120111 			; <UNDEFINED> instruction: 0x06120111
      dc:	00001301 	andeq	r1, r0, r1, lsl #6
      e0:	01828912 	orreq	r8, r2, r2, lsl r9
      e4:	31011100 	mrscc	r1, (UNDEF: 17)
      e8:	13000013 	movwne	r0, #19
      ec:	01018289 	smlabbeq	r1, r9, r2, r8
      f0:	13310111 	teqne	r1, #1073741828	; 0x40000004
      f4:	00001301 	andeq	r1, r0, r1, lsl #6
      f8:	01828a14 	orreq	r8, r2, r4, lsl sl
      fc:	91180200 	tstls	r8, r0, lsl #4
     100:	00001842 	andeq	r1, r0, r2, asr #16
     104:	01828915 	orreq	r8, r2, r5, lsl r9
     108:	31011101 	tstcc	r1, r1, lsl #2
     10c:	16000013 			; <UNDEFINED> instruction: 0x16000013
     110:	13490101 	movtne	r0, #37121	; 0x9101
     114:	00001301 	andeq	r1, r0, r1, lsl #6
     118:	49002117 	stmdbmi	r0, {r0, r1, r2, r4, r8, sp}
     11c:	000b2f13 	andeq	r2, fp, r3, lsl pc
     120:	00341800 	eorseq	r1, r4, r0, lsl #16
     124:	0b3a0803 	bleq	e82138 <__bss_end__+0xe779a0>
     128:	13490b3b 	movtne	r0, #39739	; 0x9b3b
     12c:	00000b1c 	andeq	r0, r0, ip, lsl fp
     130:	03003419 	movweq	r3, #1049	; 0x419
     134:	3b0b3a0e 	blcc	2ce974 <__bss_end__+0x2c41dc>
     138:	0213490b 	andseq	r4, r3, #180224	; 0x2c000
     13c:	1a000018 	bne	1a4 <_start-0x7e5c>
     140:	0111010b 	tsteq	r1, fp, lsl #2
     144:	00000612 	andeq	r0, r0, r2, lsl r6
     148:	3f012e1b 	svccc	0x00012e1b
     14c:	3a0e0319 	bcc	380db8 <__bss_end__+0x376620>
     150:	270b3b0b 	strcs	r3, [fp, -fp, lsl #22]
     154:	12011119 	andne	r1, r1, #1073741830	; 0x40000006
     158:	97184006 	ldrls	r4, [r8, -r6]
     15c:	13011942 	movwne	r1, #6466	; 0x1942
     160:	051c0000 	ldreq	r0, [ip, #-0]
     164:	3a0e0300 	bcc	380d6c <__bss_end__+0x3765d4>
     168:	490b3b0b 	stmdbmi	fp, {r0, r1, r3, r8, r9, fp, ip, sp}
     16c:	00170213 	andseq	r0, r7, r3, lsl r2
     170:	011d1d00 	tsteq	sp, r0, lsl #26
     174:	01111331 	tsteq	r1, r1, lsr r3
     178:	0b580612 	bleq	16019c8 <__bss_end__+0x15f7230>
     17c:	13010b59 	movwne	r0, #7001	; 0x1b59
     180:	051e0000 	ldreq	r0, [lr, #-0]
     184:	02133100 	andseq	r3, r3, #0, 2
     188:	1f000017 	svcne	0x00000017
     18c:	13310005 	teqne	r1, #5
     190:	00001802 	andeq	r1, r0, r2, lsl #16
     194:	31011d20 	tstcc	r1, r0, lsr #26
     198:	12011113 	andne	r1, r1, #-1073741820	; 0xc0000004
     19c:	590b5806 	stmdbpl	fp, {r1, r2, fp, ip, lr}
     1a0:	2100000b 	tstcs	r0, fp
     1a4:	08030034 	stmdaeq	r3, {r2, r4, r5}
     1a8:	0b3b0b3a 	bleq	ec2e98 <__bss_end__+0xeb8700>
     1ac:	18021349 	stmdane	r2, {r0, r3, r6, r8, r9, ip}
     1b0:	34220000 	strtcc	r0, [r2], #-0
     1b4:	3a0e0300 	bcc	380dbc <__bss_end__+0x376624>
     1b8:	490b3b0b 	stmdbmi	fp, {r0, r1, r3, r8, r9, fp, ip, sp}
     1bc:	00061c13 	andeq	r1, r6, r3, lsl ip
     1c0:	00342300 	eorseq	r2, r4, r0, lsl #6
     1c4:	0b3a0e03 	bleq	e839d8 <__bss_end__+0xe79240>
     1c8:	13490b3b 	movtne	r0, #39739	; 0x9b3b
     1cc:	1802193f 	stmdane	r2, {r0, r1, r2, r3, r4, r5, r8, fp, ip}
     1d0:	2e240000 	cdpcs	0, 2, cr0, cr4, cr0, {0}
     1d4:	03193f00 	tsteq	r9, #0, 30
     1d8:	3b0b3a0e 	blcc	2cea18 <__bss_end__+0x2c4280>
     1dc:	3c19270b 	ldccc	7, cr2, [r9], {11}
     1e0:	25000019 	strcs	r0, [r0, #-25]
     1e4:	193f012e 	ldmdbne	pc!, {r1, r2, r3, r5, r8}	; <UNPREDICTABLE>
     1e8:	0b3a0e03 	bleq	e839fc <__bss_end__+0xe79264>
     1ec:	19270b3b 	stmdbne	r7!, {r0, r1, r3, r4, r5, r8, r9, fp}
     1f0:	193c1349 	ldmdbne	ip!, {r0, r3, r6, r8, r9, ip}
     1f4:	00001301 	andeq	r1, r0, r1, lsl #6
     1f8:	49000526 	stmdbmi	r0, {r1, r2, r5, r8, sl}
     1fc:	27000013 	smladcs	r0, r3, r0, r0
     200:	00000018 	andeq	r0, r0, r8, lsl r0
     204:	3f012e28 	svccc	0x00012e28
     208:	3a0e0319 	bcc	380e74 <__bss_end__+0x3766dc>
     20c:	270b3b0b 	strcs	r3, [fp, -fp, lsl #22]
     210:	01193c19 	tsteq	r9, r9, lsl ip
     214:	00000013 	andeq	r0, r0, r3, lsl r0
     218:	25011101 	strcs	r1, [r1, #-257]	; 0x101
     21c:	030b130e 	movweq	r1, #45838	; 0xb30e
     220:	110e1b0e 	tstne	lr, lr, lsl #22
     224:	10061201 	andne	r1, r6, r1, lsl #4
     228:	02000017 	andeq	r0, r0, #23
     22c:	0e030016 	mcreq	0, 0, r0, cr3, cr6, {0}
     230:	0b3b0b3a 	bleq	ec2f20 <__bss_end__+0xeb8788>
     234:	00001349 	andeq	r1, r0, r9, asr #6
     238:	03011303 	movweq	r1, #4867	; 0x1303
     23c:	3a0b0b0e 	bcc	2c2e7c <__bss_end__+0x2b86e4>
     240:	010b3b0b 	tsteq	fp, fp, lsl #22
     244:	04000013 	streq	r0, [r0], #-19
     248:	0e03000d 	cdpeq	0, 0, cr0, cr3, cr13, {0}
     24c:	0b381349 	bleq	e04f78 <__bss_end__+0xdfa7e0>
     250:	00001934 	andeq	r1, r0, r4, lsr r9
     254:	0b000f05 	bleq	3e70 <_start-0x4190>
     258:	0600000b 	streq	r0, [r0], -fp
     25c:	0b0b0024 	bleq	2c02f4 <__bss_end__+0x2b5b5c>
     260:	08030b3e 	stmdaeq	r3, {r1, r2, r3, r4, r5, r8, r9, fp}
     264:	24070000 	strcs	r0, [r7], #-0
     268:	3e0b0b00 	vmlacc.f64	d0, d11, d0
     26c:	000e030b 	andeq	r0, lr, fp, lsl #6
     270:	000f0800 	andeq	r0, pc, r0, lsl #16
     274:	13490b0b 	movtne	r0, #39691	; 0x9b0b
     278:	26090000 	strcs	r0, [r9], -r0
     27c:	00134900 	andseq	r4, r3, r0, lsl #18
     280:	012e0a00 	teqeq	lr, r0, lsl #20
     284:	0e03193f 	mcreq	9, 0, r1, cr3, cr15, {1}
     288:	0b3b0b3a 	bleq	ec2f78 <__bss_end__+0xeb87e0>
     28c:	13491927 	movtne	r1, #39207	; 0x9927
     290:	06120111 			; <UNDEFINED> instruction: 0x06120111
     294:	42971840 	addsmi	r1, r7, #64, 16	; 0x400000
     298:	00130119 	andseq	r0, r3, r9, lsl r1
     29c:	00050b00 	andeq	r0, r5, r0, lsl #22
     2a0:	0b3a0803 	bleq	e822b4 <__bss_end__+0xe77b1c>
     2a4:	13490b3b 	movtne	r0, #39739	; 0x9b3b
     2a8:	00001802 	andeq	r1, r0, r2, lsl #16
     2ac:	0000180c 	andeq	r1, r0, ip, lsl #16
     2b0:	00340d00 	eorseq	r0, r4, r0, lsl #26
     2b4:	0b3a0803 	bleq	e822c8 <__bss_end__+0xe77b30>
     2b8:	13490b3b 	movtne	r0, #39739	; 0x9b3b
     2bc:	00001802 	andeq	r1, r0, r2, lsl #16
     2c0:	0300340e 	movweq	r3, #1038	; 0x40e
     2c4:	3b0b3a0e 	blcc	2ceb04 <__bss_end__+0x2c436c>
     2c8:	0213490b 	andseq	r4, r3, #180224	; 0x2c000
     2cc:	0f000018 	svceq	0x00000018
     2d0:	08030034 	stmdaeq	r3, {r2, r4, r5}
     2d4:	0b3b0b3a 	bleq	ec2fc4 <__bss_end__+0xeb882c>
     2d8:	17021349 	strne	r1, [r2, -r9, asr #6]
     2dc:	89100000 	ldmdbhi	r0, {}	; <UNPREDICTABLE>
     2e0:	11010182 	smlabbne	r1, r2, r1, r0
     2e4:	01133101 	tsteq	r3, r1, lsl #2
     2e8:	11000013 	tstne	r0, r3, lsl r0
     2ec:	0001828a 	andeq	r8, r1, sl, lsl #5
     2f0:	42911802 	addsmi	r1, r1, #131072	; 0x20000
     2f4:	12000018 	andne	r0, r0, #24
     2f8:	01018289 	smlabbeq	r1, r9, r2, r8
     2fc:	00000111 	andeq	r0, r0, r1, lsl r1
     300:	49010113 	stmdbmi	r1, {r0, r1, r4, r8}
     304:	00130113 	andseq	r0, r3, r3, lsl r1
     308:	00211400 	eoreq	r1, r1, r0, lsl #8
     30c:	052f1349 	streq	r1, [pc, #-841]!	; ffffffcb <__bss_end__+0xffff5833>
     310:	15150000 	ldrne	r0, [r5, #-0]
     314:	49192701 	ldmdbmi	r9, {r0, r8, r9, sl, sp}
     318:	00130113 	andseq	r0, r3, r3, lsl r1
     31c:	00051600 	andeq	r1, r5, r0, lsl #12
     320:	00001349 	andeq	r1, r0, r9, asr #6
     324:	03003417 	movweq	r3, #1047	; 0x417
     328:	3b0b3a0e 	blcc	2ceb68 <__bss_end__+0x2c43d0>
     32c:	3f13490b 	svccc	0x0013490b
     330:	00193c19 	andseq	r3, r9, r9, lsl ip
     334:	012e1800 	teqeq	lr, r0, lsl #16
     338:	0e03193f 	mcreq	9, 0, r1, cr3, cr15, {1}
     33c:	0b3b0b3a 	bleq	ec302c <__bss_end__+0xeb8894>
     340:	13491927 	movtne	r1, #39207	; 0x9927
     344:	0000193c 	andeq	r1, r0, ip, lsr r9
     348:	01110100 	tsteq	r1, r0, lsl #2
     34c:	0b130e25 	bleq	4c3be8 <__bss_end__+0x4b9450>
     350:	0e1b0e03 	cdpeq	14, 1, cr0, cr11, cr3, {0}
     354:	06120111 			; <UNDEFINED> instruction: 0x06120111
     358:	00001710 	andeq	r1, r0, r0, lsl r7
     35c:	0b002402 	bleq	936c <sw_uart_putc+0x20>
     360:	030b3e0b 	movweq	r3, #48651	; 0xbe0b
     364:	03000008 	movweq	r0, #8
     368:	0b0b0024 	bleq	2c0400 <__bss_end__+0x2b5c68>
     36c:	0e030b3e 	vmoveq.16	d3[0], r0
     370:	2e040000 	cdpcs	0, 0, cr0, cr4, cr0, {0}
     374:	3a0e0301 	bcc	380f80 <__bss_end__+0x3767e8>
     378:	270b3b0b 	strcs	r3, [fp, -fp, lsl #22]
     37c:	11134919 	tstne	r3, r9, lsl r9
     380:	40061201 	andmi	r1, r6, r1, lsl #4
     384:	19429718 	stmdbne	r2, {r3, r4, r8, r9, sl, ip, pc}^
     388:	00001301 	andeq	r1, r0, r1, lsl #6
     38c:	03000505 	movweq	r0, #1285	; 0x505
     390:	3b0b3a08 	blcc	2cebb8 <__bss_end__+0x2c4420>
     394:	0213490b 	andseq	r4, r3, #180224	; 0x2c000
     398:	06000017 			; <UNDEFINED> instruction: 0x06000017
     39c:	01018289 	smlabbeq	r1, r9, r2, r8
     3a0:	13310111 	teqne	r1, #1073741828	; 0x40000004
     3a4:	8a070000 	bhi	1c03ac <__bss_end__+0x1b5c14>
     3a8:	02000182 	andeq	r0, r0, #-2147483616	; 0x80000020
     3ac:	18429118 	stmdane	r2, {r3, r4, r8, ip, pc}^
     3b0:	2e080000 	cdpcs	0, 0, cr0, cr8, cr0, {0}
     3b4:	03193f00 	tsteq	r9, #0, 30
     3b8:	3b0b3a0e 	blcc	2cebf8 <__bss_end__+0x2c4460>
     3bc:	1119270b 	tstne	r9, fp, lsl #14
     3c0:	40061201 	andmi	r1, r6, r1, lsl #4
     3c4:	19429718 	stmdbne	r2, {r3, r4, r8, r9, sl, ip, pc}^
     3c8:	2e090000 	cdpcs	0, 0, cr0, cr9, cr0, {0}
     3cc:	03193f01 	tsteq	r9, #1, 30
     3d0:	3b0b3a0e 	blcc	2cec10 <__bss_end__+0x2c4478>
     3d4:	1119270b 	tstne	r9, fp, lsl #14
     3d8:	40061201 	andmi	r1, r6, r1, lsl #4
     3dc:	19429718 	stmdbne	r2, {r3, r4, r8, r9, sl, ip, pc}^
     3e0:	00001301 	andeq	r1, r0, r1, lsl #6
     3e4:	0300050a 	movweq	r0, #1290	; 0x50a
     3e8:	3b0b3a08 	blcc	2cec10 <__bss_end__+0x2c4478>
     3ec:	0213490b 	andseq	r4, r3, #180224	; 0x2c000
     3f0:	0b000018 	bleq	458 <_start-0x7ba8>
     3f4:	19270115 	stmdbne	r7!, {r0, r2, r4, r8}
     3f8:	13011349 	movwne	r1, #4937	; 0x1349
     3fc:	050c0000 	streq	r0, [ip, #-0]
     400:	00134900 	andseq	r4, r3, r0, lsl #18
     404:	000f0d00 	andeq	r0, pc, r0, lsl #26
     408:	13490b0b 	movtne	r0, #39691	; 0x9b0b
     40c:	340e0000 	strcc	r0, [lr], #-0
     410:	3a0e0300 	bcc	381018 <__bss_end__+0x376880>
     414:	490b3b0b 	stmdbmi	fp, {r0, r1, r3, r8, r9, fp, ip, sp}
     418:	02193f13 	andseq	r3, r9, #19, 30	; 0x4c
     41c:	0f000018 	svceq	0x00000018
     420:	193f012e 	ldmdbne	pc!, {r1, r2, r3, r5, r8}	; <UNPREDICTABLE>
     424:	0b3a0e03 	bleq	e83c38 <__bss_end__+0xe794a0>
     428:	19270b3b 	stmdbne	r7!, {r0, r1, r3, r4, r5, r8, r9, fp}
     42c:	0000193c 	andeq	r1, r0, ip, lsr r9
     430:	01110100 	tsteq	r1, r0, lsl #2
     434:	0b130e25 	bleq	4c3cd0 <__bss_end__+0x4b9538>
     438:	0e1b0e03 	cdpeq	14, 1, cr0, cr11, cr3, {0}
     43c:	06120111 			; <UNDEFINED> instruction: 0x06120111
     440:	00001710 	andeq	r1, r0, r0, lsl r7
     444:	0b002402 	bleq	9454 <sw_uart_putc+0x108>
     448:	030b3e0b 	movweq	r3, #48651	; 0xbe0b
     44c:	03000008 	movweq	r0, #8
     450:	0b0b0024 	bleq	2c04e8 <__bss_end__+0x2b5d50>
     454:	0e030b3e 	vmoveq.16	d3[0], r0
     458:	0f040000 	svceq	0x00040000
     45c:	490b0b00 	stmdbmi	fp, {r8, r9, fp}
     460:	05000013 	streq	r0, [r0, #-19]
     464:	13490026 	movtne	r0, #36902	; 0x9026
     468:	2e060000 	cdpcs	0, 0, cr0, cr6, cr0, {0}
     46c:	03193f01 	tsteq	r9, #1, 30
     470:	3b0b3a0e 	blcc	2cecb0 <__bss_end__+0x2c4518>
     474:	4919270b 	ldmdbmi	r9, {r0, r1, r3, r8, r9, sl, sp}
     478:	12011113 	andne	r1, r1, #-1073741820	; 0xc0000004
     47c:	96184006 	ldrls	r4, [r8], -r6
     480:	13011942 	movwne	r1, #6466	; 0x1942
     484:	05070000 	streq	r0, [r7, #-0]
     488:	3a080300 	bcc	201090 <__bss_end__+0x1f68f8>
     48c:	490b3b0b 	stmdbmi	fp, {r0, r1, r3, r8, r9, fp, ip, sp}
     490:	00170213 	andseq	r0, r7, r3, lsl r2
     494:	01150800 	tsteq	r5, r0, lsl #16
     498:	13491927 	movtne	r1, #39207	; 0x9927
     49c:	00001301 	andeq	r1, r0, r1, lsl #6
     4a0:	49000509 	stmdbmi	r0, {r0, r3, r8, sl}
     4a4:	0a000013 	beq	4f8 <_start-0x7b08>
     4a8:	0e030034 	mcreq	0, 0, r0, cr3, cr4, {1}
     4ac:	0b3b0b3a 	bleq	ec319c <__bss_end__+0xeb8a04>
     4b0:	193f1349 	ldmdbne	pc!, {r0, r3, r6, r8, r9, ip}	; <UNPREDICTABLE>
     4b4:	0000193c 	andeq	r1, r0, ip, lsr r9
     4b8:	0300340b 	movweq	r3, #1035	; 0x40b
     4bc:	3b0b3a0e 	blcc	2cecfc <__bss_end__+0x2c4564>
     4c0:	3f13490b 	svccc	0x0013490b
     4c4:	00180219 	andseq	r0, r8, r9, lsl r2
     4c8:	11010000 	mrsne	r0, (UNDEF: 1)
     4cc:	130e2501 	movwne	r2, #58625	; 0xe501
     4d0:	1b0e030b 	blne	381104 <__bss_end__+0x37696c>
     4d4:	1201110e 	andne	r1, r1, #-2147483645	; 0x80000003
     4d8:	00171006 	andseq	r1, r7, r6
     4dc:	00240200 	eoreq	r0, r4, r0, lsl #4
     4e0:	0b3e0b0b 	bleq	f83114 <__bss_end__+0xf7897c>
     4e4:	00000803 	andeq	r0, r0, r3, lsl #16
     4e8:	0b002403 	bleq	94fc <sw_uart_getc_timeout+0x5c>
     4ec:	030b3e0b 	movweq	r3, #48651	; 0xbe0b
     4f0:	0400000e 	streq	r0, [r0], #-14
     4f4:	0b0b000f 	bleq	2c0538 <__bss_end__+0x2b5da0>
     4f8:	0f050000 	svceq	0x00050000
     4fc:	490b0b00 	stmdbmi	fp, {r8, r9, fp}
     500:	06000013 			; <UNDEFINED> instruction: 0x06000013
     504:	13490026 	movtne	r0, #36902	; 0x9026
     508:	16070000 	strne	r0, [r7], -r0
     50c:	3a0e0300 	bcc	381114 <__bss_end__+0x37697c>
     510:	490b3b0b 	stmdbmi	fp, {r0, r1, r3, r8, r9, fp, ip, sp}
     514:	08000013 	stmdaeq	r0, {r0, r1, r4}
     518:	0e030113 	mcreq	1, 0, r0, cr3, cr3, {0}
     51c:	0b3a0b0b 	bleq	e83150 <__bss_end__+0xe789b8>
     520:	13010b3b 	movwne	r0, #6971	; 0x1b3b
     524:	0d090000 	stceq	0, cr0, [r9, #-0]
     528:	490e0300 	stmdbmi	lr, {r8, r9}
     52c:	340b3813 	strcc	r3, [fp], #-2067	; 0x813
     530:	0a000019 	beq	59c <_start-0x7a64>
     534:	0e03012e 	adfeqsp	f0, f3, #0.5
     538:	0b3b0b3a 	bleq	ec3228 <__bss_end__+0xeb8a90>
     53c:	13491927 	movtne	r1, #39207	; 0x9927
     540:	06120111 			; <UNDEFINED> instruction: 0x06120111
     544:	42971840 	addsmi	r1, r7, #64, 16	; 0x400000
     548:	00130119 	andseq	r0, r3, r9, lsl r1
     54c:	00050b00 	andeq	r0, r5, r0, lsl #22
     550:	0b3a0803 	bleq	e82564 <__bss_end__+0xe77dcc>
     554:	13490b3b 	movtne	r0, #39739	; 0x9b3b
     558:	00001702 	andeq	r1, r0, r2, lsl #14
     55c:	03012e0c 	movweq	r2, #7692	; 0x1e0c
     560:	3b0b3a08 	blcc	2ced88 <__bss_end__+0x2c45f0>
     564:	4919270b 	ldmdbmi	r9, {r0, r1, r3, r8, r9, sl, sp}
     568:	12011113 	andne	r1, r1, #-1073741820	; 0xc0000004
     56c:	97184006 	ldrls	r4, [r8, -r6]
     570:	13011942 	movwne	r1, #6466	; 0x1942
     574:	050d0000 	streq	r0, [sp, #-0]
     578:	3a0e0300 	bcc	381180 <__bss_end__+0x3769e8>
     57c:	490b3b0b 	stmdbmi	fp, {r0, r1, r3, r8, r9, fp, ip, sp}
     580:	00170213 	andseq	r0, r7, r3, lsl r2
     584:	00050e00 	andeq	r0, r5, r0, lsl #28
     588:	0b3a0e03 	bleq	e83d9c <__bss_end__+0xe79604>
     58c:	13490b3b 	movtne	r0, #39739	; 0x9b3b
     590:	00001802 	andeq	r1, r0, r2, lsl #16
     594:	0300340f 	movweq	r3, #1039	; 0x40f
     598:	3b0b3a08 	blcc	2cedc0 <__bss_end__+0x2c4628>
     59c:	0213490b 	andseq	r4, r3, #180224	; 0x2c000
     5a0:	10000018 	andne	r0, r0, r8, lsl r0
     5a4:	08030034 	stmdaeq	r3, {r2, r4, r5}
     5a8:	0b3b0b3a 	bleq	ec3298 <__bss_end__+0xeb8b00>
     5ac:	17021349 	strne	r1, [r2, -r9, asr #6]
     5b0:	34110000 	ldrcc	r0, [r1], #-0
     5b4:	490e0300 	stmdbmi	lr, {r8, r9}
     5b8:	02193413 	andseq	r3, r9, #318767104	; 0x13000000
     5bc:	12000018 	andne	r0, r0, #24
     5c0:	0111010b 	tsteq	r1, fp, lsl #2
     5c4:	13010612 	movwne	r0, #5650	; 0x1612
     5c8:	34130000 	ldrcc	r0, [r3], #-0
     5cc:	3a0e0300 	bcc	3811d4 <__bss_end__+0x376a3c>
     5d0:	490b3b0b 	stmdbmi	fp, {r0, r1, r3, r8, r9, fp, ip, sp}
     5d4:	00170213 	andseq	r0, r7, r3, lsl r2
     5d8:	82891400 	addhi	r1, r9, #0, 8
     5dc:	01110001 	tsteq	r1, r1
     5e0:	00001331 	andeq	r1, r0, r1, lsr r3
     5e4:	01828915 	orreq	r8, r2, r5, lsl r9
     5e8:	31011101 	tstcc	r1, r1, lsl #2
     5ec:	00130113 	andseq	r0, r3, r3, lsl r1
     5f0:	828a1600 	addhi	r1, sl, #0, 12
     5f4:	18020001 	stmdane	r2, {r0}
     5f8:	00184291 	mulseq	r8, r1, r2
     5fc:	82891700 	addhi	r1, r9, #0, 14
     600:	01110101 	tsteq	r1, r1, lsl #2
     604:	00001331 	andeq	r1, r0, r1, lsr r3
     608:	49010118 	stmdbmi	r1, {r3, r4, r8}
     60c:	00130113 	andseq	r0, r3, r3, lsl r1
     610:	00211900 	eoreq	r1, r1, r0, lsl #18
     614:	0b2f1349 	bleq	bc5340 <__bss_end__+0xbbaba8>
     618:	2e1a0000 	cdpcs	0, 1, cr0, cr10, cr0, {0}
     61c:	03193f01 	tsteq	r9, #1, 30
     620:	3b0b3a0e 	blcc	2cee60 <__bss_end__+0x2c46c8>
     624:	1119270b 	tstne	r9, fp, lsl #14
     628:	40061201 	andmi	r1, r6, r1, lsl #4
     62c:	19429718 	stmdbne	r2, {r3, r4, r8, r9, sl, ip, pc}^
     630:	00001301 	andeq	r1, r0, r1, lsl #6
     634:	2701151b 	smladcs	r1, fp, r5, r1
     638:	01134919 	tsteq	r3, r9, lsl r9
     63c:	1c000013 	stcne	0, cr0, [r0], {19}
     640:	13490005 	movtne	r0, #36869	; 0x9005
     644:	2e1d0000 	cdpcs	0, 1, cr0, cr13, cr0, {0}
     648:	03193f01 	tsteq	r9, #1, 30
     64c:	3b0b3a0e 	blcc	2cee8c <__bss_end__+0x2c46f4>
     650:	4919270b 	ldmdbmi	r9, {r0, r1, r3, r8, r9, sl, sp}
     654:	12011113 	andne	r1, r1, #-1073741820	; 0xc0000004
     658:	97184006 	ldrls	r4, [r8, -r6]
     65c:	13011942 	movwne	r1, #6466	; 0x1942
     660:	0b1e0000 	bleq	780668 <__bss_end__+0x775ed0>
     664:	00175501 	andseq	r5, r7, r1, lsl #10
     668:	00341f00 	eorseq	r1, r4, r0, lsl #30
     66c:	0b3a0e03 	bleq	e83e80 <__bss_end__+0xe796e8>
     670:	13490b3b 	movtne	r0, #39739	; 0x9b3b
     674:	193c193f 	ldmdbne	ip!, {r0, r1, r2, r3, r4, r5, r8, fp, ip}
     678:	2e200000 	cdpcs	0, 2, cr0, cr0, cr0, {0}
     67c:	03193f00 	tsteq	r9, #0, 30
     680:	3b0b3a0e 	blcc	2ceec0 <__bss_end__+0x2c4728>
     684:	3c19270b 	ldccc	7, cr2, [r9], {11}
     688:	21000019 	tstcs	r0, r9, lsl r0
     68c:	193f012e 	ldmdbne	pc!, {r1, r2, r3, r5, r8}	; <UNPREDICTABLE>
     690:	0b3a0e03 	bleq	e83ea4 <__bss_end__+0xe7970c>
     694:	19270b3b 	stmdbne	r7!, {r0, r1, r3, r4, r5, r8, r9, fp}
     698:	193c1349 	ldmdbne	ip!, {r0, r3, r6, r8, r9, ip}
     69c:	00001301 	andeq	r1, r0, r1, lsl #6
     6a0:	00001822 	andeq	r1, r0, r2, lsr #16
     6a4:	11010000 	mrsne	r0, (UNDEF: 1)
     6a8:	130e2501 	movwne	r2, #58625	; 0xe501
     6ac:	1b0e030b 	blne	3812e0 <__bss_end__+0x376b48>
     6b0:	1201110e 	andne	r1, r1, #-2147483645	; 0x80000003
     6b4:	00171006 	andseq	r1, r7, r6
     6b8:	00240200 	eoreq	r0, r4, r0, lsl #4
     6bc:	0b3e0b0b 	bleq	f832f0 <__bss_end__+0xf78b58>
     6c0:	00000803 	andeq	r0, r0, r3, lsl #16
     6c4:	0b002403 	bleq	96d8 <sw_uart_gets_until+0x70>
     6c8:	030b3e0b 	movweq	r3, #48651	; 0xbe0b
     6cc:	0400000e 	streq	r0, [r0], #-14
     6d0:	193f012e 	ldmdbne	pc!, {r1, r2, r3, r5, r8}	; <UNPREDICTABLE>
     6d4:	0b3a0e03 	bleq	e83ee8 <__bss_end__+0xe79750>
     6d8:	19270b3b 	stmdbne	r7!, {r0, r1, r3, r4, r5, r8, r9, fp}
     6dc:	06120111 			; <UNDEFINED> instruction: 0x06120111
     6e0:	42971840 	addsmi	r1, r7, #64, 16	; 0x400000
     6e4:	00130119 	andseq	r0, r3, r9, lsl r1
     6e8:	00340500 	eorseq	r0, r4, r0, lsl #10
     6ec:	0b3a0803 	bleq	e82700 <__bss_end__+0xe77f68>
     6f0:	13490b3b 	movtne	r0, #39739	; 0x9b3b
     6f4:	00001702 	andeq	r1, r0, r2, lsl #14
     6f8:	3f012e06 	svccc	0x00012e06
     6fc:	3a0e0319 	bcc	381368 <__bss_end__+0x376bd0>
     700:	270b3b0b 	strcs	r3, [fp, -fp, lsl #22]
     704:	12011119 	andne	r1, r1, #1073741830	; 0x40000006
     708:	97184006 	ldrls	r4, [r8, -r6]
     70c:	00001942 	andeq	r1, r0, r2, asr #18
     710:	01110100 	tsteq	r1, r0, lsl #2
     714:	0b130e25 	bleq	4c3fb0 <__bss_end__+0x4b9818>
     718:	0e1b0e03 	cdpeq	14, 1, cr0, cr11, cr3, {0}
     71c:	06120111 			; <UNDEFINED> instruction: 0x06120111
     720:	00001710 	andeq	r1, r0, r0, lsl r7
     724:	0b002402 	bleq	9734 <sw_uart_gets_timeout+0x28>
     728:	030b3e0b 	movweq	r3, #48651	; 0xbe0b
     72c:	03000008 	movweq	r0, #8
     730:	0b0b0024 	bleq	2c07c8 <__bss_end__+0x2b6030>
     734:	0e030b3e 	vmoveq.16	d3[0], r0
     738:	0f040000 	svceq	0x00040000
     73c:	490b0b00 	stmdbmi	fp, {r8, r9, fp}
     740:	05000013 	streq	r0, [r0, #-19]
     744:	13490026 	movtne	r0, #36902	; 0x9026
     748:	2e060000 	cdpcs	0, 0, cr0, cr6, cr0, {0}
     74c:	03193f01 	tsteq	r9, #1, 30
     750:	3b0b3a0e 	blcc	2cef90 <__bss_end__+0x2c47f8>
     754:	1119270b 	tstne	r9, fp, lsl #14
     758:	40061201 	andmi	r1, r6, r1, lsl #4
     75c:	19429718 	stmdbne	r2, {r3, r4, r8, r9, sl, ip, pc}^
     760:	00001301 	andeq	r1, r0, r1, lsl #6
     764:	01828907 	orreq	r8, r2, r7, lsl #18
     768:	01011101 	tsteq	r1, r1, lsl #2
     76c:	08000013 	stmdaeq	r0, {r0, r1, r4}
     770:	0001828a 	andeq	r8, r1, sl, lsl #5
     774:	42911802 	addsmi	r1, r1, #131072	; 0x20000
     778:	09000018 	stmdbeq	r0, {r3, r4}
     77c:	01018289 	smlabbeq	r1, r9, r2, r8
     780:	13310111 	teqne	r1, #1073741828	; 0x40000004
     784:	00001301 	andeq	r1, r0, r1, lsl #6
     788:	0182890a 	orreq	r8, r2, sl, lsl #18
     78c:	31011100 	mrscc	r1, (UNDEF: 17)
     790:	0b000013 	bleq	7e4 <_start-0x781c>
     794:	19270115 	stmdbne	r7!, {r0, r2, r4, r8}
     798:	13011349 	movwne	r1, #4937	; 0x1349
     79c:	050c0000 	streq	r0, [ip, #-0]
     7a0:	00134900 	andseq	r4, r3, r0, lsl #18
     7a4:	00340d00 	eorseq	r0, r4, r0, lsl #26
     7a8:	0b3a0e03 	bleq	e83fbc <__bss_end__+0xe79824>
     7ac:	13490b3b 	movtne	r0, #39739	; 0x9b3b
     7b0:	193c193f 	ldmdbne	ip!, {r0, r1, r2, r3, r4, r5, r8, fp, ip}
     7b4:	2e0e0000 	cdpcs	0, 0, cr0, cr14, cr0, {0}
     7b8:	03193f01 	tsteq	r9, #1, 30
     7bc:	3b0b3a0e 	blcc	2ceffc <__bss_end__+0x2c4864>
     7c0:	3c19270b 	ldccc	7, cr2, [r9], {11}
     7c4:	00130119 	andseq	r0, r3, r9, lsl r1
     7c8:	002e0f00 	eoreq	r0, lr, r0, lsl #30
     7cc:	0e03193f 	mcreq	9, 0, r1, cr3, cr15, {1}
     7d0:	0b3b0b3a 	bleq	ec34c0 <__bss_end__+0xeb8d28>
     7d4:	193c1927 	ldmdbne	ip!, {r0, r1, r2, r5, r8, fp, ip}
     7d8:	01000000 	mrseq	r0, (UNDEF: 0)
     7dc:	0e250111 	mcreq	1, 1, r0, cr5, cr1, {0}
     7e0:	0e030b13 	vmoveq.32	d3[0], r0
     7e4:	01110e1b 	tsteq	r1, fp, lsl lr
     7e8:	17100612 			; <UNDEFINED> instruction: 0x17100612
     7ec:	24020000 	strcs	r0, [r2], #-0
     7f0:	3e0b0b00 	vmlacc.f64	d0, d11, d0
     7f4:	0008030b 	andeq	r0, r8, fp, lsl #6
     7f8:	00240300 	eoreq	r0, r4, r0, lsl #6
     7fc:	0b3e0b0b 	bleq	f83430 <__bss_end__+0xf78c98>
     800:	00000e03 	andeq	r0, r0, r3, lsl #28
     804:	03001604 	movweq	r1, #1540	; 0x604
     808:	3b0b3a0e 	blcc	2cf048 <__bss_end__+0x2c48b0>
     80c:	0013490b 	andseq	r4, r3, fp, lsl #18
     810:	000f0500 	andeq	r0, pc, r0, lsl #10
     814:	13490b0b 	movtne	r0, #39691	; 0x9b0b
     818:	26060000 	strcs	r0, [r6], -r0
     81c:	00134900 	andseq	r4, r3, r0, lsl #18
     820:	01130700 	tsteq	r3, r0, lsl #14
     824:	0b3a0b0b 	bleq	e83458 <__bss_end__+0xe78cc0>
     828:	13010b3b 	movwne	r0, #6971	; 0x1b3b
     82c:	0d080000 	stceq	0, cr0, [r8, #-0]
     830:	3a080300 	bcc	201438 <__bss_end__+0x1f6ca0>
     834:	490b3b0b 	stmdbmi	fp, {r0, r1, r3, r8, r9, fp, ip, sp}
     838:	000b3813 	andeq	r3, fp, r3, lsl r8
     83c:	000d0900 	andeq	r0, sp, r0, lsl #18
     840:	0b3a0e03 	bleq	e84054 <__bss_end__+0xe798bc>
     844:	13490b3b 	movtne	r0, #39739	; 0x9b3b
     848:	00000b38 	andeq	r0, r0, r8, lsr fp
     84c:	0b01040a 	bleq	4187c <__bss_end__+0x370e4>
     850:	3b0b3a0b 	blcc	2cf084 <__bss_end__+0x2c48ec>
     854:	0013010b 	andseq	r0, r3, fp, lsl #2
     858:	00280b00 	eoreq	r0, r8, r0, lsl #22
     85c:	0d1c0e03 	ldceq	14, cr0, [ip, #-12]
     860:	2e0c0000 	cdpcs	0, 0, cr0, cr12, cr0, {0}
     864:	3a0e0301 	bcc	381470 <__bss_end__+0x376cd8>
     868:	270b3b0b 	strcs	r3, [fp, -fp, lsl #22]
     86c:	11134919 	tstne	r3, r9, lsl r9
     870:	40061201 	andmi	r1, r6, r1, lsl #4
     874:	19429718 	stmdbne	r2, {r3, r4, r8, r9, sl, ip, pc}^
     878:	00001301 	andeq	r1, r0, r1, lsl #6
     87c:	0300050d 	movweq	r0, #1293	; 0x50d
     880:	3b0b3a08 	blcc	2cf0a8 <__bss_end__+0x2c4910>
     884:	0213490b 	andseq	r4, r3, #180224	; 0x2c000
     888:	0e000017 	mcreq	0, 0, r0, cr0, cr7, {0}
     88c:	01018289 	smlabbeq	r1, r9, r2, r8
     890:	13310111 	teqne	r1, #1073741828	; 0x40000004
     894:	8a0f0000 	bhi	3c089c <__bss_end__+0x3b6104>
     898:	02000182 	andeq	r0, r0, #-2147483616	; 0x80000020
     89c:	18429118 	stmdane	r2, {r3, r4, r8, ip, pc}^
     8a0:	2e100000 	cdpcs	0, 1, cr0, cr0, cr0, {0}
     8a4:	03193f01 	tsteq	r9, #1, 30
     8a8:	3b0b3a0e 	blcc	2cf0e8 <__bss_end__+0x2c4950>
     8ac:	1201110b 	andne	r1, r1, #-1073741822	; 0xc0000002
     8b0:	97184006 	ldrls	r4, [r8, -r6]
     8b4:	13011942 	movwne	r1, #6466	; 0x1942
     8b8:	34110000 	ldrcc	r0, [r1], #-0
     8bc:	3a0e0300 	bcc	3814c4 <__bss_end__+0x376d2c>
     8c0:	490b3b0b 	stmdbmi	fp, {r0, r1, r3, r8, r9, fp, ip, sp}
     8c4:	3c193f13 	ldccc	15, cr3, [r9], {19}
     8c8:	12000019 	andne	r0, r0, #25
     8cc:	193f002e 	ldmdbne	pc!, {r1, r2, r3, r5}	; <UNPREDICTABLE>
     8d0:	0b3a0e03 	bleq	e840e4 <__bss_end__+0xe7994c>
     8d4:	19270b3b 	stmdbne	r7!, {r0, r1, r3, r4, r5, r8, r9, fp}
     8d8:	0000193c 	andeq	r1, r0, ip, lsr r9
     8dc:	03003413 	movweq	r3, #1043	; 0x413
     8e0:	3b0b3a08 	blcc	2cf108 <__bss_end__+0x2c4970>
     8e4:	0213490b 	andseq	r4, r3, #180224	; 0x2c000
     8e8:	14000017 	strne	r0, [r0], #-23
     8ec:	0e030034 	mcreq	0, 0, r0, cr3, cr4, {1}
     8f0:	0b3b0b3a 	bleq	ec35e0 <__bss_end__+0xeb8e48>
     8f4:	00001349 	andeq	r1, r0, r9, asr #6
     8f8:	01828915 	orreq	r8, r2, r5, lsl r9
     8fc:	31011100 	mrscc	r1, (UNDEF: 17)
     900:	16000013 			; <UNDEFINED> instruction: 0x16000013
     904:	01018289 	smlabbeq	r1, r9, r2, r8
     908:	13310111 	teqne	r1, #1073741828	; 0x40000004
     90c:	00001301 	andeq	r1, r0, r1, lsl #6
     910:	03003417 	movweq	r3, #1047	; 0x417
     914:	3b0b3a0e 	blcc	2cf154 <__bss_end__+0x2c49bc>
     918:	0213490b 	andseq	r4, r3, #180224	; 0x2c000
     91c:	18000018 	stmdane	r0, {r3, r4}
     920:	19270115 	stmdbne	r7!, {r0, r2, r4, r8}
     924:	13011349 	movwne	r1, #4937	; 0x1349
     928:	05190000 	ldreq	r0, [r9, #-0]
     92c:	00134900 	andseq	r4, r3, r0, lsl #18
     930:	012e1a00 	teqeq	lr, r0, lsl #20
     934:	0e03193f 	mcreq	9, 0, r1, cr3, cr15, {1}
     938:	0b3b0b3a 	bleq	ec3628 <__bss_end__+0xeb8e90>
     93c:	193c1927 	ldmdbne	ip!, {r0, r1, r2, r5, r8, fp, ip}
     940:	00001301 	andeq	r1, r0, r1, lsl #6
     944:	3f002e1b 	svccc	0x00002e1b
     948:	3a0e0319 	bcc	3815b4 <__bss_end__+0x376e1c>
     94c:	270b3b0b 	strcs	r3, [fp, -fp, lsl #22]
     950:	3c134919 	ldccc	9, cr4, [r3], {25}
     954:	1c000019 	stcne	0, cr0, [r0], {25}
     958:	193f012e 	ldmdbne	pc!, {r1, r2, r3, r5, r8}	; <UNPREDICTABLE>
     95c:	0b3a0e03 	bleq	e84170 <__bss_end__+0xe799d8>
     960:	19270b3b 	stmdbne	r7!, {r0, r1, r3, r4, r5, r8, r9, fp}
     964:	193c1349 	ldmdbne	ip!, {r0, r3, r6, r8, r9, ip}
     968:	00001301 	andeq	r1, r0, r1, lsl #6
     96c:	0000181d 	andeq	r1, r0, sp, lsl r8
     970:	11010000 	mrsne	r0, (UNDEF: 1)
     974:	130e2501 	movwne	r2, #58625	; 0xe501
     978:	1b0e030b 	blne	3815ac <__bss_end__+0x376e14>
     97c:	1117550e 	tstne	r7, lr, lsl #10
     980:	00171001 	andseq	r1, r7, r1
     984:	00240200 	eoreq	r0, r4, r0, lsl #4
     988:	0b3e0b0b 	bleq	f835bc <__bss_end__+0xf78e24>
     98c:	00000803 	andeq	r0, r0, r3, lsl #16
     990:	0b002403 	bleq	99a4 <sw_uart_gets_until_blk+0x3c>
     994:	030b3e0b 	movweq	r3, #48651	; 0xbe0b
     998:	0400000e 	streq	r0, [r0], #-14
     99c:	193f012e 	ldmdbne	pc!, {r1, r2, r3, r5, r8}	; <UNPREDICTABLE>
     9a0:	0b3a0e03 	bleq	e841b4 <__bss_end__+0xe79a1c>
     9a4:	19270b3b 	stmdbne	r7!, {r0, r1, r3, r4, r5, r8, r9, fp}
     9a8:	01111349 	tsteq	r1, r9, asr #6
     9ac:	18400612 	stmdane	r0, {r1, r4, r9, sl}^
     9b0:	01194297 			; <UNDEFINED> instruction: 0x01194297
     9b4:	05000013 	streq	r0, [r0, #-19]
     9b8:	0e030034 	mcreq	0, 0, r0, cr3, cr4, {1}
     9bc:	0b3b0b3a 	bleq	ec36ac <__bss_end__+0xeb8f14>
     9c0:	17021349 	strne	r1, [r2, -r9, asr #6]
     9c4:	2e060000 	cdpcs	0, 0, cr0, cr6, cr0, {0}
     9c8:	03193f01 	tsteq	r9, #1, 30
     9cc:	3b0b3a0e 	blcc	2cf20c <__bss_end__+0x2c4a74>
     9d0:	1119270b 	tstne	r9, fp, lsl #14
     9d4:	40061201 	andmi	r1, r6, r1, lsl #4
     9d8:	19429718 	stmdbne	r2, {r3, r4, r8, r9, sl, ip, pc}^
     9dc:	00001301 	andeq	r1, r0, r1, lsl #6
     9e0:	03003407 	movweq	r3, #1031	; 0x407
     9e4:	3b0b3a0e 	blcc	2cf224 <__bss_end__+0x2c4a8c>
     9e8:	1c13490b 	ldcne	9, cr4, [r3], {11}
     9ec:	08000006 	stmdaeq	r0, {r1, r2}
     9f0:	0e030034 	mcreq	0, 0, r0, cr3, cr4, {1}
     9f4:	0b3b0b3a 	bleq	ec36e4 <__bss_end__+0xeb8f4c>
     9f8:	0b1c1349 	bleq	705724 <__bss_end__+0x6faf8c>
     9fc:	89090000 	stmdbhi	r9, {}	; <UNPREDICTABLE>
     a00:	11000182 	smlabbne	r0, r2, r1, r0
     a04:	00133101 	andseq	r3, r3, r1, lsl #2
     a08:	82890a00 	addhi	r0, r9, #0, 20
     a0c:	01110101 	tsteq	r1, r1, lsl #2
     a10:	13011331 	movwne	r1, #4913	; 0x1331
     a14:	8a0b0000 	bhi	2c0a1c <__bss_end__+0x2b6284>
     a18:	02000182 	andeq	r0, r0, #-2147483616	; 0x80000020
     a1c:	18429118 	stmdane	r2, {r3, r4, r8, ip, pc}^
     a20:	890c0000 	stmdbhi	ip, {}	; <UNPREDICTABLE>
     a24:	11010182 	smlabbne	r1, r2, r1, r0
     a28:	00133101 	andseq	r3, r3, r1, lsl #2
     a2c:	00260d00 	eoreq	r0, r6, r0, lsl #26
     a30:	00001349 	andeq	r1, r0, r9, asr #6
     a34:	3f012e0e 	svccc	0x00012e0e
     a38:	3a0e0319 	bcc	3816a4 <__bss_end__+0x376f0c>
     a3c:	270b3b0b 	strcs	r3, [fp, -fp, lsl #22]
     a40:	01193c19 	tsteq	r9, r9, lsl ip
     a44:	0f000013 	svceq	0x00000013
     a48:	13490005 	movtne	r0, #36869	; 0x9005
     a4c:	2e100000 	cdpcs	0, 1, cr0, cr0, cr0, {0}
     a50:	03193f01 	tsteq	r9, #1, 30
     a54:	3b0b3a0e 	blcc	2cf294 <__bss_end__+0x2c4afc>
     a58:	3c19270b 	ldccc	7, cr2, [r9], {11}
     a5c:	00000019 	andeq	r0, r0, r9, lsl r0
     a60:	25011101 	strcs	r1, [r1, #-257]	; 0x101
     a64:	030b130e 	movweq	r1, #45838	; 0xb30e
     a68:	110e1b0e 	tstne	lr, lr, lsl #22
     a6c:	10061201 	andne	r1, r6, r1, lsl #4
     a70:	02000017 	andeq	r0, r0, #23
     a74:	0b0b0024 	bleq	2c0b0c <__bss_end__+0x2b6374>
     a78:	08030b3e 	stmdaeq	r3, {r1, r2, r3, r4, r5, r8, r9, fp}
     a7c:	24030000 	strcs	r0, [r3], #-0
     a80:	3e0b0b00 	vmlacc.f64	d0, d11, d0
     a84:	000e030b 	andeq	r0, lr, fp, lsl #6
     a88:	012e0400 	teqeq	lr, r0, lsl #8
     a8c:	0e03193f 	mcreq	9, 0, r1, cr3, cr15, {1}
     a90:	0b3b0b3a 	bleq	ec3780 <__bss_end__+0xeb8fe8>
     a94:	01111927 	tsteq	r1, r7, lsr #18
     a98:	18400612 	stmdane	r0, {r1, r4, r9, sl}^
     a9c:	01194297 			; <UNDEFINED> instruction: 0x01194297
     aa0:	05000013 	streq	r0, [r0, #-19]
     aa4:	0e030005 	cdpeq	0, 0, cr0, cr3, cr5, {0}
     aa8:	0b3b0b3a 	bleq	ec3798 <__bss_end__+0xeb9000>
     aac:	17021349 	strne	r1, [r2, -r9, asr #6]
     ab0:	2e060000 	cdpcs	0, 0, cr0, cr6, cr0, {0}
     ab4:	03193f01 	tsteq	r9, #1, 30
     ab8:	3b0b3a0e 	blcc	2cf2f8 <__bss_end__+0x2c4b60>
     abc:	4919270b 	ldmdbmi	r9, {r0, r1, r3, r8, r9, sl, sp}
     ac0:	12011113 	andne	r1, r1, #-1073741820	; 0xc0000004
     ac4:	97184006 	ldrls	r4, [r8, -r6]
     ac8:	13011942 	movwne	r1, #6466	; 0x1942
     acc:	89070000 	stmdbhi	r7, {}	; <UNPREDICTABLE>
     ad0:	11010182 	smlabbne	r1, r2, r1, r0
     ad4:	00133101 	andseq	r3, r3, r1, lsl #2
     ad8:	828a0800 	addhi	r0, sl, #0, 16
     adc:	18020001 	stmdane	r2, {r0}
     ae0:	00184291 	mulseq	r8, r1, r2
     ae4:	00340900 	eorseq	r0, r4, r0, lsl #18
     ae8:	0b3a0803 	bleq	e82afc <__bss_end__+0xe78364>
     aec:	13490b3b 	movtne	r0, #39739	; 0x9b3b
     af0:	00001802 	andeq	r1, r0, r2, lsl #16
     af4:	0182890a 	orreq	r8, r2, sl, lsl #18
     af8:	31011100 	mrscc	r1, (UNDEF: 17)
     afc:	0b000013 	bleq	b50 <_start-0x74b0>
     b00:	08030005 	stmdaeq	r3, {r0, r2}
     b04:	0b3b0b3a 	bleq	ec37f4 <__bss_end__+0xeb905c>
     b08:	17021349 	strne	r1, [r2, -r9, asr #6]
     b0c:	0b0c0000 	bleq	300b14 <__bss_end__+0x2f637c>
     b10:	12011101 	andne	r1, r1, #1073741824	; 0x40000000
     b14:	00130106 	andseq	r0, r3, r6, lsl #2
     b18:	00340d00 	eorseq	r0, r4, r0, lsl #26
     b1c:	0b3a0803 	bleq	e82b30 <__bss_end__+0xe78398>
     b20:	13490b3b 	movtne	r0, #39739	; 0x9b3b
     b24:	00001702 	andeq	r1, r0, r2, lsl #14
     b28:	3f012e0e 	svccc	0x00012e0e
     b2c:	3a0e0319 	bcc	381798 <__bss_end__+0x377000>
     b30:	270b3b0b 	strcs	r3, [fp, -fp, lsl #22]
     b34:	3c134919 	ldccc	9, cr4, [r3], {25}
     b38:	0f000019 	svceq	0x00000019
     b3c:	13490005 	movtne	r0, #36869	; 0x9005
     b40:	01000000 	mrseq	r0, (UNDEF: 0)
     b44:	0e250111 	mcreq	1, 1, r0, cr5, cr1, {0}
     b48:	0e030b13 	vmoveq.32	d3[0], r0
     b4c:	01110e1b 	tsteq	r1, fp, lsl lr
     b50:	17100612 			; <UNDEFINED> instruction: 0x17100612
     b54:	24020000 	strcs	r0, [r2], #-0
     b58:	3e0b0b00 	vmlacc.f64	d0, d11, d0
     b5c:	000e030b 	andeq	r0, lr, fp, lsl #6
     b60:	00240300 	eoreq	r0, r4, r0, lsl #6
     b64:	0b3e0b0b 	bleq	f83798 <__bss_end__+0xf79000>
     b68:	00000803 	andeq	r0, r0, r3, lsl #16
     b6c:	0b010404 	bleq	41b84 <__bss_end__+0x373ec>
     b70:	3b0b3a0b 	blcc	2cf3a4 <__bss_end__+0x2c4c0c>
     b74:	0013010b 	andseq	r0, r3, fp, lsl #2
     b78:	00280500 	eoreq	r0, r8, r0, lsl #10
     b7c:	0d1c0e03 	ldceq	14, cr0, [ip, #-12]
     b80:	16060000 	strne	r0, [r6], -r0
     b84:	3a0e0300 	bcc	38178c <__bss_end__+0x376ff4>
     b88:	490b3b0b 	stmdbmi	fp, {r0, r1, r3, r8, r9, fp, ip, sp}
     b8c:	07000013 	smladeq	r0, r3, r0, r0
     b90:	193f012e 	ldmdbne	pc!, {r1, r2, r3, r5, r8}	; <UNPREDICTABLE>
     b94:	0b3a0e03 	bleq	e843a8 <__bss_end__+0xe79c10>
     b98:	19270b3b 	stmdbne	r7!, {r0, r1, r3, r4, r5, r8, r9, fp}
     b9c:	06120111 			; <UNDEFINED> instruction: 0x06120111
     ba0:	42971840 	addsmi	r1, r7, #64, 16	; 0x400000
     ba4:	00130119 	andseq	r0, r3, r9, lsl r1
     ba8:	00050800 	andeq	r0, r5, r0, lsl #16
     bac:	0b3a0803 	bleq	e82bc0 <__bss_end__+0xe78428>
     bb0:	13490b3b 	movtne	r0, #39739	; 0x9b3b
     bb4:	00001702 	andeq	r1, r0, r2, lsl #14
     bb8:	03003409 	movweq	r3, #1033	; 0x409
     bbc:	3b0b3a0e 	blcc	2cf3fc <__bss_end__+0x2c4c64>
     bc0:	0213490b 	andseq	r4, r3, #180224	; 0x2c000
     bc4:	0a000017 	beq	c28 <_start-0x73d8>
     bc8:	01018289 	smlabbeq	r1, r9, r2, r8
     bcc:	13310111 	teqne	r1, #1073741828	; 0x40000004
     bd0:	00001301 	andeq	r1, r0, r1, lsl #6
     bd4:	01828a0b 	orreq	r8, r2, fp, lsl #20
     bd8:	91180200 	tstls	r8, r0, lsl #4
     bdc:	00001842 	andeq	r1, r0, r2, asr #16
     be0:	0182890c 	orreq	r8, r2, ip, lsl #18
     be4:	31011101 	tstcc	r1, r1, lsl #2
     be8:	0d000013 	stceq	0, cr0, [r0, #-76]	; 0xffffffb4
     bec:	0b0b000f 	bleq	2c0c30 <__bss_end__+0x2b6498>
     bf0:	00001349 	andeq	r1, r0, r9, asr #6
     bf4:	4900350e 	stmdbmi	r0, {r1, r2, r3, r8, sl, ip, sp}
     bf8:	0f000013 	svceq	0x00000013
     bfc:	193f012e 	ldmdbne	pc!, {r1, r2, r3, r5, r8}	; <UNPREDICTABLE>
     c00:	0b3a0e03 	bleq	e84414 <__bss_end__+0xe79c7c>
     c04:	19270b3b 	stmdbne	r7!, {r0, r1, r3, r4, r5, r8, r9, fp}
     c08:	01111349 	tsteq	r1, r9, asr #6
     c0c:	18400612 	stmdane	r0, {r1, r4, r9, sl}^
     c10:	01194297 			; <UNDEFINED> instruction: 0x01194297
     c14:	10000013 	andne	r0, r0, r3, lsl r0
     c18:	08030034 	stmdaeq	r3, {r2, r4, r5}
     c1c:	0b3b0b3a 	bleq	ec390c <__bss_end__+0xeb9174>
     c20:	17021349 	strne	r1, [r2, -r9, asr #6]
     c24:	89110000 	ldmdbhi	r1, {}	; <UNPREDICTABLE>
     c28:	11000182 	smlabbne	r0, r2, r1, r0
     c2c:	00133101 	andseq	r3, r3, r1, lsl #2
     c30:	00051200 	andeq	r1, r5, r0, lsl #4
     c34:	0b3a0e03 	bleq	e84448 <__bss_end__+0xe79cb0>
     c38:	13490b3b 	movtne	r0, #39739	; 0x9b3b
     c3c:	00001702 	andeq	r1, r0, r2, lsl #14
     c40:	3f012e13 	svccc	0x00012e13
     c44:	3a0e0319 	bcc	3818b0 <__bss_end__+0x377118>
     c48:	27053b0b 	strcs	r3, [r5, -fp, lsl #22]
     c4c:	11134919 	tstne	r3, r9, lsl r9
     c50:	40061201 	andmi	r1, r6, r1, lsl #4
     c54:	19429718 	stmdbne	r2, {r3, r4, r8, r9, sl, ip, pc}^
     c58:	00001301 	andeq	r1, r0, r1, lsl #6
     c5c:	03000514 	movweq	r0, #1300	; 0x514
     c60:	3b0b3a0e 	blcc	2cf4a0 <__bss_end__+0x2c4d08>
     c64:	02134905 	andseq	r4, r3, #81920	; 0x14000
     c68:	15000017 	strne	r0, [r0, #-23]
     c6c:	193f012e 	ldmdbne	pc!, {r1, r2, r3, r5, r8}	; <UNPREDICTABLE>
     c70:	0b3a0e03 	bleq	e84484 <__bss_end__+0xe79cec>
     c74:	1927053b 	stmdbne	r7!, {r0, r1, r3, r4, r5, r8, sl}
     c78:	06120111 			; <UNDEFINED> instruction: 0x06120111
     c7c:	42971840 	addsmi	r1, r7, #64, 16	; 0x400000
     c80:	00130119 	andseq	r0, r3, r9, lsl r1
     c84:	00051600 	andeq	r1, r5, r0, lsl #12
     c88:	0b3a0803 	bleq	e82c9c <__bss_end__+0xe78504>
     c8c:	1349053b 	movtne	r0, #38203	; 0x953b
     c90:	00001702 	andeq	r1, r0, r2, lsl #14
     c94:	03003417 	movweq	r3, #1047	; 0x417
     c98:	3b0b3a0e 	blcc	2cf4d8 <__bss_end__+0x2c4d40>
     c9c:	02134905 	andseq	r4, r3, #81920	; 0x14000
     ca0:	18000017 	stmdane	r0, {r0, r1, r2, r4}
     ca4:	0111010b 	tsteq	r1, fp, lsl #2
     ca8:	13010612 	movwne	r0, #5650	; 0x1612
     cac:	34190000 	ldrcc	r0, [r9], #-0
     cb0:	3a0e0300 	bcc	3818b8 <__bss_end__+0x377120>
     cb4:	490b3b0b 	stmdbmi	fp, {r0, r1, r3, r8, r9, fp, ip, sp}
     cb8:	02193f13 	andseq	r3, r9, #19, 30	; 0x4c
     cbc:	1a000018 	bne	d24 <_start-0x72dc>
     cc0:	0e030034 	mcreq	0, 0, r0, cr3, cr4, {1}
     cc4:	053b0b3a 	ldreq	r0, [fp, #-2874]!	; 0xb3a
     cc8:	193f1349 	ldmdbne	pc!, {r0, r3, r6, r8, r9, ip}	; <UNPREDICTABLE>
     ccc:	00001802 	andeq	r1, r0, r2, lsl #16
     cd0:	3f012e1b 	svccc	0x00012e1b
     cd4:	3a0e0319 	bcc	381940 <__bss_end__+0x3771a8>
     cd8:	270b3b0b 	strcs	r3, [fp, -fp, lsl #22]
     cdc:	3c134919 	ldccc	9, cr4, [r3], {25}
     ce0:	00130119 	andseq	r0, r3, r9, lsl r1
     ce4:	00051c00 	andeq	r1, r5, r0, lsl #24
     ce8:	00001349 	andeq	r1, r0, r9, asr #6
     cec:	4900261d 	stmdbmi	r0, {r0, r2, r3, r4, r9, sl, sp}
     cf0:	1e000013 	mcrne	0, 0, r0, cr0, cr3, {0}
     cf4:	00000035 	andeq	r0, r0, r5, lsr r0
     cf8:	3f012e1f 	svccc	0x00012e1f
     cfc:	3a0e0319 	bcc	381968 <__bss_end__+0x3771d0>
     d00:	270b3b0b 	strcs	r3, [fp, -fp, lsl #22]
     d04:	01193c19 	tsteq	r9, r9, lsl ip
     d08:	20000013 	andcs	r0, r0, r3, lsl r0
     d0c:	193f002e 	ldmdbne	pc!, {r1, r2, r3, r5}	; <UNPREDICTABLE>
     d10:	0b3a0e03 	bleq	e84524 <__bss_end__+0xe79d8c>
     d14:	19270b3b 	stmdbne	r7!, {r0, r1, r3, r4, r5, r8, r9, fp}
     d18:	0000193c 	andeq	r1, r0, ip, lsr r9
     d1c:	01110100 	tsteq	r1, r0, lsl #2
     d20:	0b130e25 	bleq	4c45bc <__bss_end__+0x4b9e24>
     d24:	0e1b0e03 	cdpeq	14, 1, cr0, cr11, cr3, {0}
     d28:	06120111 			; <UNDEFINED> instruction: 0x06120111
     d2c:	00001710 	andeq	r1, r0, r0, lsl r7
     d30:	0b002402 	bleq	9d40 <cb_get_block+0x14>
     d34:	030b3e0b 	movweq	r3, #48651	; 0xbe0b
     d38:	03000008 	movweq	r0, #8
     d3c:	0b0b0024 	bleq	2c0dd4 <__bss_end__+0x2b663c>
     d40:	0e030b3e 	vmoveq.16	d3[0], r0
     d44:	16040000 	strne	r0, [r4], -r0
     d48:	3a0e0300 	bcc	381950 <__bss_end__+0x3771b8>
     d4c:	490b3b0b 	stmdbmi	fp, {r0, r1, r3, r8, r9, fp, ip, sp}
     d50:	05000013 	streq	r0, [r0, #-19]
     d54:	0b0b000f 	bleq	2c0d98 <__bss_end__+0x2b6600>
     d58:	0f060000 	svceq	0x00060000
     d5c:	490b0b00 	stmdbmi	fp, {r8, r9, fp}
     d60:	07000013 	smladeq	r0, r3, r0, r0
     d64:	13490026 	movtne	r0, #36902	; 0x9026
     d68:	13080000 	movwne	r0, #32768	; 0x8000
     d6c:	3a0b0b01 	bcc	2c3978 <__bss_end__+0x2b91e0>
     d70:	010b3b0b 	tsteq	fp, fp, lsl #22
     d74:	09000013 	stmdbeq	r0, {r0, r1, r4}
     d78:	0803000d 	stmdaeq	r3, {r0, r2, r3}
     d7c:	0b3b0b3a 	bleq	ec3a6c <__bss_end__+0xeb92d4>
     d80:	0b381349 	bleq	e05aac <__bss_end__+0xdfb314>
     d84:	0d0a0000 	stceq	0, cr0, [sl, #-0]
     d88:	3a0e0300 	bcc	381990 <__bss_end__+0x3771f8>
     d8c:	490b3b0b 	stmdbmi	fp, {r0, r1, r3, r8, r9, fp, ip, sp}
     d90:	000b3813 	andeq	r3, fp, r3, lsl r8
     d94:	01130b00 	tsteq	r3, r0, lsl #22
     d98:	0b0b0e03 	bleq	2c45ac <__bss_end__+0x2b9e14>
     d9c:	0b3b0b3a 	bleq	ec3a8c <__bss_end__+0xeb92f4>
     da0:	00001301 	andeq	r1, r0, r1, lsl #6
     da4:	03000d0c 	movweq	r0, #3340	; 0xd0c
     da8:	3813490e 	ldmdacc	r3, {r1, r2, r3, r8, fp, lr}
     dac:	0019340b 	andseq	r3, r9, fp, lsl #8
     db0:	012e0d00 	teqeq	lr, r0, lsl #26
     db4:	0b3a0e03 	bleq	e845c8 <__bss_end__+0xe79e30>
     db8:	19270b3b 	stmdbne	r7!, {r0, r1, r3, r4, r5, r8, r9, fp}
     dbc:	13010b20 	movwne	r0, #6944	; 0x1b20
     dc0:	050e0000 	streq	r0, [lr, #-0]
     dc4:	3a0e0300 	bcc	3819cc <__bss_end__+0x377234>
     dc8:	490b3b0b 	stmdbmi	fp, {r0, r1, r3, r8, r9, fp, ip, sp}
     dcc:	0f000013 	svceq	0x00000013
     dd0:	08030005 	stmdaeq	r3, {r0, r2}
     dd4:	0b3b0b3a 	bleq	ec3ac4 <__bss_end__+0xeb932c>
     dd8:	00001349 	andeq	r1, r0, r9, asr #6
     ddc:	00010b10 	andeq	r0, r1, r0, lsl fp
     de0:	00341100 	eorseq	r1, r4, r0, lsl #2
     de4:	0b3a0e03 	bleq	e845f8 <__bss_end__+0xe79e60>
     de8:	13490b3b 	movtne	r0, #39739	; 0x9b3b
     dec:	2e120000 	cdpcs	0, 1, cr0, cr2, cr0, {0}
     df0:	03193f01 	tsteq	r9, #1, 30
     df4:	3b0b3a0e 	blcc	2cf634 <__bss_end__+0x2c4e9c>
     df8:	1119270b 	tstne	r9, fp, lsl #14
     dfc:	40061201 	andmi	r1, r6, r1, lsl #4
     e00:	19429718 	stmdbne	r2, {r3, r4, r8, r9, sl, ip, pc}^
     e04:	00001301 	andeq	r1, r0, r1, lsl #6
     e08:	03000513 	movweq	r0, #1299	; 0x513
     e0c:	3b0b3a0e 	blcc	2cf64c <__bss_end__+0x2c4eb4>
     e10:	0213490b 	andseq	r4, r3, #180224	; 0x2c000
     e14:	14000017 	strne	r0, [r0], #-23
     e18:	08030005 	stmdaeq	r3, {r0, r2}
     e1c:	0b3b0b3a 	bleq	ec3b0c <__bss_end__+0xeb9374>
     e20:	17021349 	strne	r1, [r2, -r9, asr #6]
     e24:	34150000 	ldrcc	r0, [r5], #-0
     e28:	3a080300 	bcc	201a30 <__bss_end__+0x1f7298>
     e2c:	490b3b0b 	stmdbmi	fp, {r0, r1, r3, r8, r9, fp, ip, sp}
     e30:	00180213 	andseq	r0, r8, r3, lsl r2
     e34:	00341600 	eorseq	r1, r4, r0, lsl #12
     e38:	0b3a0803 	bleq	e82e4c <__bss_end__+0xe786b4>
     e3c:	13490b3b 	movtne	r0, #39739	; 0x9b3b
     e40:	00001702 	andeq	r1, r0, r2, lsl #14
     e44:	11010b17 	tstne	r1, r7, lsl fp
     e48:	01061201 	tsteq	r6, r1, lsl #4
     e4c:	18000013 	stmdane	r0, {r0, r1, r4}
     e50:	0e030034 	mcreq	0, 0, r0, cr3, cr4, {1}
     e54:	0b3b0b3a 	bleq	ec3b44 <__bss_end__+0xeb93ac>
     e58:	18021349 	stmdane	r2, {r0, r3, r6, r8, r9, ip}
     e5c:	1d190000 	ldcne	0, cr0, [r9, #-0]
     e60:	11133101 	tstne	r3, r1, lsl #2
     e64:	58061201 	stmdapl	r6, {r0, r9, ip}
     e68:	010b590b 	tsteq	fp, fp, lsl #18
     e6c:	1a000013 	bne	ec0 <_start-0x7140>
     e70:	13310005 	teqne	r1, #5
     e74:	00001702 	andeq	r1, r0, r2, lsl #14
     e78:	3100051b 	tstcc	r0, fp, lsl r5
     e7c:	00180213 	andseq	r0, r8, r3, lsl r2
     e80:	00051c00 	andeq	r1, r5, r0, lsl #24
     e84:	0b1c1331 	bleq	705b50 <__bss_end__+0x6fb3b8>
     e88:	0b1d0000 	bleq	740e90 <__bss_end__+0x7366f8>
     e8c:	12011101 	andne	r1, r1, #1073741824	; 0x40000000
     e90:	1e000006 	cdpne	0, 0, cr0, cr0, cr6, {0}
     e94:	13310034 	teqne	r1, #52	; 0x34
     e98:	00001702 	andeq	r1, r0, r2, lsl #14
     e9c:	0182891f 	orreq	r8, r2, pc, lsl r9
     ea0:	31011101 	tstcc	r1, r1, lsl #2
     ea4:	20000013 	andcs	r0, r0, r3, lsl r0
     ea8:	0001828a 	andeq	r8, r1, sl, lsl #5
     eac:	42911802 	addsmi	r1, r1, #131072	; 0x20000
     eb0:	21000018 	tstcs	r0, r8, lsl r0
     eb4:	1331011d 	teqne	r1, #1073741831	; 0x40000007
     eb8:	06120111 			; <UNDEFINED> instruction: 0x06120111
     ebc:	0b590b58 	bleq	1643c24 <__bss_end__+0x163948c>
     ec0:	2e220000 	cdpcs	0, 2, cr0, cr2, cr0, {0}
     ec4:	3a0e0301 	bcc	381ad0 <__bss_end__+0x377338>
     ec8:	270b3b0b 	strcs	r3, [fp, -fp, lsl #22]
     ecc:	20134919 	andscs	r4, r3, r9, lsl r9
     ed0:	0013010b 	andseq	r0, r3, fp, lsl #2
     ed4:	012e2300 	teqeq	lr, r0, lsl #6
     ed8:	0e03193f 	mcreq	9, 0, r1, cr3, cr15, {1}
     edc:	0b3b0b3a 	bleq	ec3bcc <__bss_end__+0xeb9434>
     ee0:	13491927 	movtne	r1, #39207	; 0x9927
     ee4:	06120111 			; <UNDEFINED> instruction: 0x06120111
     ee8:	42971840 	addsmi	r1, r7, #64, 16	; 0x400000
     eec:	00130119 	andseq	r0, r3, r9, lsl r1
     ef0:	82892400 	addhi	r2, r9, #0, 8
     ef4:	01110001 	tsteq	r1, r1
     ef8:	00001331 	andeq	r1, r0, r1, lsr r3
     efc:	01828925 	orreq	r8, r2, r5, lsr #18
     f00:	31011101 	tstcc	r1, r1, lsl #2
     f04:	00130113 	andseq	r0, r3, r3, lsl r1
     f08:	00342600 	eorseq	r2, r4, r0, lsl #12
     f0c:	0b3a0e03 	bleq	e84720 <__bss_end__+0xe79f88>
     f10:	13490b3b 	movtne	r0, #39739	; 0x9b3b
     f14:	00001702 	andeq	r1, r0, r2, lsl #14
     f18:	31000527 	tstcc	r0, r7, lsr #10
     f1c:	28000013 	stmdacs	r0, {r0, r1, r4}
     f20:	0e030005 	cdpeq	0, 0, cr0, cr3, cr5, {0}
     f24:	0b3b0b3a 	bleq	ec3c14 <__bss_end__+0xeb947c>
     f28:	18021349 	stmdane	r2, {r0, r3, r6, r8, r9, ip}
     f2c:	34290000 	strtcc	r0, [r9], #-0
     f30:	490e0300 	stmdbmi	lr, {r8, r9}
     f34:	02193413 	andseq	r3, r9, #318767104	; 0x13000000
     f38:	2a000018 	bcs	fa0 <_start-0x7060>
     f3c:	13490101 	movtne	r0, #37121	; 0x9101
     f40:	00001301 	andeq	r1, r0, r1, lsl #6
     f44:	4900212b 	stmdbmi	r0, {r0, r1, r3, r5, r8, sp}
     f48:	000b2f13 	andeq	r2, fp, r3, lsl pc
     f4c:	00342c00 	eorseq	r2, r4, r0, lsl #24
     f50:	0b3a0803 	bleq	e82f64 <__bss_end__+0xe787cc>
     f54:	13490b3b 	movtne	r0, #39739	; 0x9b3b
     f58:	0000061c 	andeq	r0, r0, ip, lsl r6
     f5c:	0300342d 	movweq	r3, #1069	; 0x42d
     f60:	3b0b3a08 	blcc	2cf788 <__bss_end__+0x2c4ff0>
     f64:	1c13490b 	ldcne	9, cr4, [r3], {11}
     f68:	2e00000b 	cdpcs	0, 0, cr0, cr0, cr11, {0}
     f6c:	08030005 	stmdaeq	r3, {r0, r2}
     f70:	0b3b0b3a 	bleq	ec3c60 <__bss_end__+0xeb94c8>
     f74:	18021349 	stmdane	r2, {r0, r3, r6, r8, r9, ip}
     f78:	182f0000 	stmdane	pc!, {}	; <UNPREDICTABLE>
     f7c:	30000000 	andcc	r0, r0, r0
     f80:	13490021 	movtne	r0, #36897	; 0x9021
     f84:	0000052f 	andeq	r0, r0, pc, lsr #10
     f88:	3f012e31 	svccc	0x00012e31
     f8c:	3a0e0319 	bcc	381bf8 <__bss_end__+0x377460>
     f90:	270b3b0b 	strcs	r3, [fp, -fp, lsl #22]
     f94:	01193c19 	tsteq	r9, r9, lsl ip
     f98:	32000013 	andcc	r0, r0, #19
     f9c:	13490005 	movtne	r0, #36869	; 0x9005
     fa0:	2e330000 	cdpcs	0, 3, cr0, cr3, cr0, {0}
     fa4:	03193f00 	tsteq	r9, #0, 30
     fa8:	3b0b3a0e 	blcc	2cf7e8 <__bss_end__+0x2c5050>
     fac:	4919270b 	ldmdbmi	r9, {r0, r1, r3, r8, r9, sl, sp}
     fb0:	00193c13 	andseq	r3, r9, r3, lsl ip
     fb4:	012e3400 	teqeq	lr, r0, lsl #8
     fb8:	0e03193f 	mcreq	9, 0, r1, cr3, cr15, {1}
     fbc:	0b3b0b3a 	bleq	ec3cac <__bss_end__+0xeb9514>
     fc0:	13491927 	movtne	r1, #39207	; 0x9927
     fc4:	1301193c 	movwne	r1, #6460	; 0x193c
     fc8:	2e350000 	cdpcs	0, 3, cr0, cr5, cr0, {0}
     fcc:	03193f00 	tsteq	r9, #0, 30
     fd0:	3b0b3a0e 	blcc	2cf810 <__bss_end__+0x2c5078>
     fd4:	3c19270b 	ldccc	7, cr2, [r9], {11}
     fd8:	36000019 			; <UNDEFINED> instruction: 0x36000019
     fdc:	193f012e 	ldmdbne	pc!, {r1, r2, r3, r5, r8}	; <UNPREDICTABLE>
     fe0:	0b3a0e03 	bleq	e847f4 <__bss_end__+0xe7a05c>
     fe4:	19270b3b 	stmdbne	r7!, {r0, r1, r3, r4, r5, r8, r9, fp}
     fe8:	193c1349 	ldmdbne	ip!, {r0, r3, r6, r8, r9, ip}
     fec:	01000000 	mrseq	r0, (UNDEF: 0)
     ff0:	0e250111 	mcreq	1, 1, r0, cr5, cr1, {0}
     ff4:	0e030b13 	vmoveq.32	d3[0], r0
     ff8:	01110e1b 	tsteq	r1, fp, lsl lr
     ffc:	17100612 			; <UNDEFINED> instruction: 0x17100612
    1000:	24020000 	strcs	r0, [r2], #-0
    1004:	3e0b0b00 	vmlacc.f64	d0, d11, d0
    1008:	0008030b 	andeq	r0, r8, fp, lsl #6
    100c:	00240300 	eoreq	r0, r4, r0, lsl #6
    1010:	0b3e0b0b 	bleq	f83c44 <__bss_end__+0xf794ac>
    1014:	00000e03 	andeq	r0, r0, r3, lsl #28
    1018:	0b010404 	bleq	42030 <__bss_end__+0x37898>
    101c:	3b0b3a0b 	blcc	2cf850 <__bss_end__+0x2c50b8>
    1020:	0013010b 	andseq	r0, r3, fp, lsl #2
    1024:	00280500 	eoreq	r0, r8, r0, lsl #10
    1028:	0d1c0e03 	ldceq	14, cr0, [ip, #-12]
    102c:	16060000 	strne	r0, [r6], -r0
    1030:	3a0e0300 	bcc	381c38 <__bss_end__+0x3774a0>
    1034:	490b3b0b 	stmdbmi	fp, {r0, r1, r3, r8, r9, fp, ip, sp}
    1038:	07000013 	smladeq	r0, r3, r0, r0
    103c:	193f012e 	ldmdbne	pc!, {r1, r2, r3, r5, r8}	; <UNPREDICTABLE>
    1040:	0b3a0e03 	bleq	e84854 <__bss_end__+0xe7a0bc>
    1044:	19270b3b 	stmdbne	r7!, {r0, r1, r3, r4, r5, r8, r9, fp}
    1048:	06120111 			; <UNDEFINED> instruction: 0x06120111
    104c:	42971840 	addsmi	r1, r7, #64, 16	; 0x400000
    1050:	00130119 	andseq	r0, r3, r9, lsl r1
    1054:	82890800 	addhi	r0, r9, #0, 16
    1058:	01110001 	tsteq	r1, r1
    105c:	00001331 	andeq	r1, r0, r1, lsr r3
    1060:	01828909 	orreq	r8, r2, r9, lsl #18
    1064:	31011101 	tstcc	r1, r1, lsl #2
    1068:	00130113 	andseq	r0, r3, r3, lsl r1
    106c:	828a0a00 	addhi	r0, sl, #0, 20
    1070:	18020001 	stmdane	r2, {r0}
    1074:	00184291 	mulseq	r8, r1, r2
    1078:	012e0b00 	teqeq	lr, r0, lsl #22
    107c:	0e03193f 	mcreq	9, 0, r1, cr3, cr15, {1}
    1080:	0b3b0b3a 	bleq	ec3d70 <__bss_end__+0xeb95d8>
    1084:	13491927 	movtne	r1, #39207	; 0x9927
    1088:	06120111 			; <UNDEFINED> instruction: 0x06120111
    108c:	42971840 	addsmi	r1, r7, #64, 16	; 0x400000
    1090:	00130119 	andseq	r0, r3, r9, lsl r1
    1094:	00050c00 	andeq	r0, r5, r0, lsl #24
    1098:	0b3a0803 	bleq	e830ac <__bss_end__+0xe78914>
    109c:	13490b3b 	movtne	r0, #39739	; 0x9b3b
    10a0:	00001702 	andeq	r1, r0, r2, lsl #14
    10a4:	0182890d 	orreq	r8, r2, sp, lsl #18
    10a8:	31011101 	tstcc	r1, r1, lsl #2
    10ac:	0e000013 	mcreq	0, 0, r0, cr0, cr3, {0}
    10b0:	0e030034 	mcreq	0, 0, r0, cr3, cr4, {1}
    10b4:	0b3b0b3a 	bleq	ec3da4 <__bss_end__+0xeb960c>
    10b8:	193f1349 	ldmdbne	pc!, {r0, r3, r6, r8, r9, ip}	; <UNPREDICTABLE>
    10bc:	00001802 	andeq	r1, r0, r2, lsl #16
    10c0:	0b000f0f 	bleq	4d04 <_start-0x32fc>
    10c4:	0013490b 	andseq	r4, r3, fp, lsl #18
    10c8:	00351000 	eorseq	r1, r5, r0
    10cc:	00001349 	andeq	r1, r0, r9, asr #6
    10d0:	3f002e11 	svccc	0x00002e11
    10d4:	3a0e0319 	bcc	381d40 <__bss_end__+0x3775a8>
    10d8:	270b3b0b 	strcs	r3, [fp, -fp, lsl #22]
    10dc:	00193c19 	andseq	r3, r9, r9, lsl ip
    10e0:	012e1200 	teqeq	lr, r0, lsl #4
    10e4:	0e03193f 	mcreq	9, 0, r1, cr3, cr15, {1}
    10e8:	0b3b0b3a 	bleq	ec3dd8 <__bss_end__+0xeb9640>
    10ec:	193c1927 	ldmdbne	ip!, {r0, r1, r2, r5, r8, fp, ip}
    10f0:	00001301 	andeq	r1, r0, r1, lsl #6
    10f4:	49000513 	stmdbmi	r0, {r0, r1, r4, r8, sl}
    10f8:	14000013 	strne	r0, [r0], #-19
    10fc:	193f012e 	ldmdbne	pc!, {r1, r2, r3, r5, r8}	; <UNPREDICTABLE>
    1100:	0b3a0e03 	bleq	e84914 <__bss_end__+0xe7a17c>
    1104:	19270b3b 	stmdbne	r7!, {r0, r1, r3, r4, r5, r8, r9, fp}
    1108:	193c1349 	ldmdbne	ip!, {r0, r3, r6, r8, r9, ip}
    110c:	00001301 	andeq	r1, r0, r1, lsl #6
    1110:	49002615 	stmdbmi	r0, {r0, r2, r4, r9, sl, sp}
    1114:	16000013 			; <UNDEFINED> instruction: 0x16000013
    1118:	00000035 	andeq	r0, r0, r5, lsr r0
    111c:	01110100 	tsteq	r1, r0, lsl #2
    1120:	0b130e25 	bleq	4c49bc <__bss_end__+0x4ba224>
    1124:	0e1b0e03 	cdpeq	14, 1, cr0, cr11, cr3, {0}
    1128:	06120111 			; <UNDEFINED> instruction: 0x06120111
    112c:	00001710 	andeq	r1, r0, r0, lsl r7
    1130:	0b002402 	bleq	a140 <__FUNCTION__.4376+0x48>
    1134:	030b3e0b 	movweq	r3, #48651	; 0xbe0b
    1138:	03000008 	movweq	r0, #8
    113c:	0b0b0024 	bleq	2c11d4 <__bss_end__+0x2b6a3c>
    1140:	0e030b3e 	vmoveq.16	d3[0], r0
    1144:	0f040000 	svceq	0x00040000
    1148:	490b0b00 	stmdbmi	fp, {r8, r9, fp}
    114c:	05000013 	streq	r0, [r0, #-19]
    1150:	13490026 	movtne	r0, #36902	; 0x9026
    1154:	04060000 	streq	r0, [r6], #-0
    1158:	3a0b0b01 	bcc	2c3d64 <__bss_end__+0x2b95cc>
    115c:	010b3b0b 	tsteq	fp, fp, lsl #22
    1160:	07000013 	smladeq	r0, r3, r0, r0
    1164:	0e030028 	cdpeq	0, 0, cr0, cr3, cr8, {1}
    1168:	00000d1c 	andeq	r0, r0, ip, lsl sp
    116c:	3f012e08 	svccc	0x00012e08
    1170:	3a0e0319 	bcc	381ddc <__bss_end__+0x377644>
    1174:	270b3b0b 	strcs	r3, [fp, -fp, lsl #22]
    1178:	12011119 	andne	r1, r1, #1073741830	; 0x40000006
    117c:	97184006 	ldrls	r4, [r8, -r6]
    1180:	13011942 	movwne	r1, #6466	; 0x1942
    1184:	34090000 	strcc	r0, [r9], #-0
    1188:	3a0e0300 	bcc	381d90 <__bss_end__+0x3775f8>
    118c:	490b3b0b 	stmdbmi	fp, {r0, r1, r3, r8, r9, fp, ip, sp}
    1190:	3c193f13 	ldccc	15, cr3, [r9], {19}
    1194:	0a000019 	beq	1200 <_start-0x6e00>
    1198:	08030034 	stmdaeq	r3, {r2, r4, r5}
    119c:	0b3b0b3a 	bleq	ec3e8c <__bss_end__+0xeb96f4>
    11a0:	0b1c1349 	bleq	705ecc <__bss_end__+0x6fb734>
    11a4:	340b0000 	strcc	r0, [fp], #-0
    11a8:	3a080300 	bcc	201db0 <__bss_end__+0x1f7618>
    11ac:	490b3b0b 	stmdbmi	fp, {r0, r1, r3, r8, r9, fp, ip, sp}
    11b0:	0c000013 	stceq	0, cr0, [r0], {19}
    11b4:	08030034 	stmdaeq	r3, {r2, r4, r5}
    11b8:	0b3b0b3a 	bleq	ec3ea8 <__bss_end__+0xeb9710>
    11bc:	18021349 	stmdane	r2, {r0, r3, r6, r8, r9, ip}
    11c0:	0b0d0000 	bleq	3411c8 <__bss_end__+0x336a30>
    11c4:	12011101 	andne	r1, r1, #1073741824	; 0x40000000
    11c8:	00130106 	andseq	r0, r3, r6, lsl #2
    11cc:	00340e00 	eorseq	r0, r4, r0, lsl #28
    11d0:	0b3a0803 	bleq	e831e4 <__bss_end__+0xe78a4c>
    11d4:	13490b3b 	movtne	r0, #39739	; 0x9b3b
    11d8:	00001702 	andeq	r1, r0, r2, lsl #14
    11dc:	0182890f 	orreq	r8, r2, pc, lsl #18
    11e0:	31011101 	tstcc	r1, r1, lsl #2
    11e4:	00130113 	andseq	r0, r3, r3, lsl r1
    11e8:	828a1000 	addhi	r1, sl, #0
    11ec:	18020001 	stmdane	r2, {r0}
    11f0:	00184291 	mulseq	r8, r1, r2
    11f4:	82891100 	addhi	r1, r9, #0, 2
    11f8:	01110001 	tsteq	r1, r1
    11fc:	00001331 	andeq	r1, r0, r1, lsr r3
    1200:	03000512 	movweq	r0, #1298	; 0x512
    1204:	3b0b3a08 	blcc	2cfa2c <__bss_end__+0x2c5294>
    1208:	0213490b 	andseq	r4, r3, #180224	; 0x2c000
    120c:	13000017 	movwne	r0, #23
    1210:	0e030034 	mcreq	0, 0, r0, cr3, cr4, {1}
    1214:	19341349 	ldmdbne	r4!, {r0, r3, r6, r8, r9, ip}
    1218:	00001802 	andeq	r1, r0, r2, lsl #16
    121c:	49010114 	stmdbmi	r1, {r2, r4, r8}
    1220:	00130113 	andseq	r0, r3, r3, lsl r1
    1224:	00211500 	eoreq	r1, r1, r0, lsl #10
    1228:	0b2f1349 	bleq	bc5f54 <__bss_end__+0xbbb7bc>
    122c:	2e160000 	cdpcs	0, 1, cr0, cr6, cr0, {0}
    1230:	03193f01 	tsteq	r9, #1, 30
    1234:	3b0b3a0e 	blcc	2cfa74 <__bss_end__+0x2c52dc>
    1238:	3c19270b 	ldccc	7, cr2, [r9], {11}
    123c:	00130119 	andseq	r0, r3, r9, lsl r1
    1240:	00051700 	andeq	r1, r5, r0, lsl #14
    1244:	00001349 	andeq	r1, r0, r9, asr #6
    1248:	3f002e18 	svccc	0x00002e18
    124c:	3a0e0319 	bcc	381eb8 <__bss_end__+0x377720>
    1250:	270b3b0b 	strcs	r3, [fp, -fp, lsl #22]
    1254:	00193c19 	andseq	r3, r9, r9, lsl ip
    1258:	012e1900 	teqeq	lr, r0, lsl #18
    125c:	0e03193f 	mcreq	9, 0, r1, cr3, cr15, {1}
    1260:	0b3b0b3a 	bleq	ec3f50 <__bss_end__+0xeb97b8>
    1264:	13491927 	movtne	r1, #39207	; 0x9927
    1268:	1301193c 	movwne	r1, #6460	; 0x193c
    126c:	181a0000 	ldmdane	sl, {}	; <UNPREDICTABLE>
    1270:	00000000 	andeq	r0, r0, r0
    1274:	25011101 	strcs	r1, [r1, #-257]	; 0x101
    1278:	030b130e 	movweq	r1, #45838	; 0xb30e
    127c:	110e1b0e 	tstne	lr, lr, lsl #22
    1280:	10061201 	andne	r1, r6, r1, lsl #4
    1284:	02000017 	andeq	r0, r0, #23
    1288:	0b0b0024 	bleq	2c1320 <__bss_end__+0x2b6b88>
    128c:	08030b3e 	stmdaeq	r3, {r1, r2, r3, r4, r5, r8, r9, fp}
    1290:	16030000 	strne	r0, [r3], -r0
    1294:	3a0e0300 	bcc	381e9c <__bss_end__+0x377704>
    1298:	490b3b0b 	stmdbmi	fp, {r0, r1, r3, r8, r9, fp, ip, sp}
    129c:	04000013 	streq	r0, [r0], #-19
    12a0:	0b0b0024 	bleq	2c1338 <__bss_end__+0x2b6ba0>
    12a4:	0e030b3e 	vmoveq.16	d3[0], r0
    12a8:	0f050000 	svceq	0x00050000
    12ac:	000b0b00 	andeq	r0, fp, r0, lsl #22
    12b0:	01130600 	tsteq	r3, r0, lsl #12
    12b4:	0b3a0b0b 	bleq	e83ee8 <__bss_end__+0xe79750>
    12b8:	13010b3b 	movwne	r0, #6971	; 0x1b3b
    12bc:	0d070000 	stceq	0, cr0, [r7, #-0]
    12c0:	3a080300 	bcc	201ec8 <__bss_end__+0x1f7730>
    12c4:	490b3b0b 	stmdbmi	fp, {r0, r1, r3, r8, r9, fp, ip, sp}
    12c8:	000b3813 	andeq	r3, fp, r3, lsl r8
    12cc:	000d0800 	andeq	r0, sp, r0, lsl #16
    12d0:	0b3a0e03 	bleq	e84ae4 <__bss_end__+0xe7a34c>
    12d4:	13490b3b 	movtne	r0, #39739	; 0x9b3b
    12d8:	00000b38 	andeq	r0, r0, r8, lsr fp
    12dc:	0b010409 	bleq	42308 <__bss_end__+0x37b70>
    12e0:	3b0b3a0b 	blcc	2cfb14 <__bss_end__+0x2c537c>
    12e4:	0013010b 	andseq	r0, r3, fp, lsl #2
    12e8:	00280a00 	eoreq	r0, r8, r0, lsl #20
    12ec:	0d1c0e03 	ldceq	14, cr0, [ip, #-12]
    12f0:	2e0b0000 	cdpcs	0, 0, cr0, cr11, cr0, {0}
    12f4:	03193f01 	tsteq	r9, #1, 30
    12f8:	3b0b3a0e 	blcc	2cfb38 <__bss_end__+0x2c53a0>
    12fc:	4919270b 	ldmdbmi	r9, {r0, r1, r3, r8, r9, sl, sp}
    1300:	12011113 	andne	r1, r1, #-1073741820	; 0xc0000004
    1304:	97184006 	ldrls	r4, [r8, -r6]
    1308:	13011942 	movwne	r1, #6466	; 0x1942
    130c:	340c0000 	strcc	r0, [ip], #-0
    1310:	3a080300 	bcc	201f18 <__bss_end__+0x1f7780>
    1314:	490b3b0b 	stmdbmi	fp, {r0, r1, r3, r8, r9, fp, ip, sp}
    1318:	00061c13 	andeq	r1, r6, r3, lsl ip
    131c:	82890d00 	addhi	r0, r9, #0, 26
    1320:	01110101 	tsteq	r1, r1, lsl #2
    1324:	00001331 	andeq	r1, r0, r1, lsr r3
    1328:	01828a0e 	orreq	r8, r2, lr, lsl #20
    132c:	91180200 	tstls	r8, r0, lsl #4
    1330:	00001842 	andeq	r1, r0, r2, asr #16
    1334:	0b000f0f 	bleq	4f78 <_start-0x3088>
    1338:	0013490b 	andseq	r4, r3, fp, lsl #18
    133c:	012e1000 	teqeq	lr, r0
    1340:	0e03193f 	mcreq	9, 0, r1, cr3, cr15, {1}
    1344:	0b3b0b3a 	bleq	ec4034 <__bss_end__+0xeb989c>
    1348:	13491927 	movtne	r1, #39207	; 0x9927
    134c:	0000193c 	andeq	r1, r0, ip, lsr r9
    1350:	49000511 	stmdbmi	r0, {r0, r4, r8, sl}
    1354:	00000013 	andeq	r0, r0, r3, lsl r0
    1358:	25011101 	strcs	r1, [r1, #-257]	; 0x101
    135c:	030b130e 	movweq	r1, #45838	; 0xb30e
    1360:	110e1b0e 	tstne	lr, lr, lsl #22
    1364:	10061201 	andne	r1, r6, r1, lsl #4
    1368:	02000017 	andeq	r0, r0, #23
    136c:	0b0b0024 	bleq	2c1404 <__bss_end__+0x2b6c6c>
    1370:	08030b3e 	stmdaeq	r3, {r1, r2, r3, r4, r5, r8, r9, fp}
    1374:	24030000 	strcs	r0, [r3], #-0
    1378:	3e0b0b00 	vmlacc.f64	d0, d11, d0
    137c:	000e030b 	andeq	r0, lr, fp, lsl #6
    1380:	000f0400 	andeq	r0, pc, r0, lsl #8
    1384:	13490b0b 	movtne	r0, #39691	; 0x9b0b
    1388:	26050000 	strcs	r0, [r5], -r0
    138c:	00134900 	andseq	r4, r3, r0, lsl #18
    1390:	012e0600 	teqeq	lr, r0, lsl #12
    1394:	0e03193f 	mcreq	9, 0, r1, cr3, cr15, {1}
    1398:	0b3b0b3a 	bleq	ec4088 <__bss_end__+0xeb98f0>
    139c:	01111927 	tsteq	r1, r7, lsr #18
    13a0:	18400612 	stmdane	r0, {r1, r4, r9, sl}^
    13a4:	01194297 			; <UNDEFINED> instruction: 0x01194297
    13a8:	07000013 	smladeq	r0, r3, r0, r0
    13ac:	08030005 	stmdaeq	r3, {r0, r2}
    13b0:	0b3b0b3a 	bleq	ec40a0 <__bss_end__+0xeb9908>
    13b4:	17021349 	strne	r1, [r2, -r9, asr #6]
    13b8:	34080000 	strcc	r0, [r8], #-0
    13bc:	490e0300 	stmdbmi	lr, {r8, r9}
    13c0:	02193413 	andseq	r3, r9, #318767104	; 0x13000000
    13c4:	09000018 	stmdbeq	r0, {r3, r4}
    13c8:	00018289 	andeq	r8, r1, r9, lsl #5
    13cc:	13310111 	teqne	r1, #1073741828	; 0x40000004
    13d0:	890a0000 	stmdbhi	sl, {}	; <UNPREDICTABLE>
    13d4:	11010182 	smlabbne	r1, r2, r1, r0
    13d8:	01133101 	tsteq	r3, r1, lsl #2
    13dc:	0b000013 	bleq	1430 <_start-0x6bd0>
    13e0:	0001828a 	andeq	r8, r1, sl, lsl #5
    13e4:	42911802 	addsmi	r1, r1, #131072	; 0x20000
    13e8:	0c000018 	stceq	0, cr0, [r0], {24}
    13ec:	13490101 	movtne	r0, #37121	; 0x9101
    13f0:	00001301 	andeq	r1, r0, r1, lsl #6
    13f4:	4900210d 	stmdbmi	r0, {r0, r2, r3, r8, sp}
    13f8:	000b2f13 	andeq	r2, fp, r3, lsl pc
    13fc:	002e0e00 	eoreq	r0, lr, r0, lsl #28
    1400:	0e03193f 	mcreq	9, 0, r1, cr3, cr15, {1}
    1404:	0b3b0b3a 	bleq	ec40f4 <__bss_end__+0xeb995c>
    1408:	193c1927 	ldmdbne	ip!, {r0, r1, r2, r5, r8, fp, ip}
    140c:	2e0f0000 	cdpcs	0, 0, cr0, cr15, cr0, {0}
    1410:	03193f01 	tsteq	r9, #1, 30
    1414:	3b0b3a0e 	blcc	2cfc54 <__bss_end__+0x2c54bc>
    1418:	4919270b 	ldmdbmi	r9, {r0, r1, r3, r8, r9, sl, sp}
    141c:	01193c13 	tsteq	r9, r3, lsl ip
    1420:	10000013 	andne	r0, r0, r3, lsl r0
    1424:	13490005 	movtne	r0, #36869	; 0x9005
    1428:	18110000 	ldmdane	r1, {}	; <UNPREDICTABLE>
    142c:	00000000 	andeq	r0, r0, r0
    1430:	25011101 	strcs	r1, [r1, #-257]	; 0x101
    1434:	030b130e 	movweq	r1, #45838	; 0xb30e
    1438:	110e1b0e 	tstne	lr, lr, lsl #22
    143c:	10061201 	andne	r1, r6, r1, lsl #4
    1440:	02000017 	andeq	r0, r0, #23
    1444:	0b0b0024 	bleq	2c14dc <__bss_end__+0x2b6d44>
    1448:	08030b3e 	stmdaeq	r3, {r1, r2, r3, r4, r5, r8, r9, fp}
    144c:	24030000 	strcs	r0, [r3], #-0
    1450:	3e0b0b00 	vmlacc.f64	d0, d11, d0
    1454:	000e030b 	andeq	r0, lr, fp, lsl #6
    1458:	000f0400 	andeq	r0, pc, r0, lsl #8
    145c:	13490b0b 	movtne	r0, #39691	; 0x9b0b
    1460:	26050000 	strcs	r0, [r5], -r0
    1464:	00134900 	andseq	r4, r3, r0, lsl #18
    1468:	012e0600 	teqeq	lr, r0, lsl #12
    146c:	0e03193f 	mcreq	9, 0, r1, cr3, cr15, {1}
    1470:	0b3b0b3a 	bleq	ec4160 <__bss_end__+0xeb99c8>
    1474:	01111927 	tsteq	r1, r7, lsr #18
    1478:	18400612 	stmdane	r0, {r1, r4, r9, sl}^
    147c:	01194297 			; <UNDEFINED> instruction: 0x01194297
    1480:	07000013 	smladeq	r0, r3, r0, r0
    1484:	08030005 	stmdaeq	r3, {r0, r2}
    1488:	0b3b0b3a 	bleq	ec4178 <__bss_end__+0xeb99e0>
    148c:	17021349 	strne	r1, [r2, -r9, asr #6]
    1490:	34080000 	strcc	r0, [r8], #-0
    1494:	490e0300 	stmdbmi	lr, {r8, r9}
    1498:	02193413 	andseq	r3, r9, #318767104	; 0x13000000
    149c:	09000018 	stmdbeq	r0, {r3, r4}
    14a0:	00018289 	andeq	r8, r1, r9, lsl #5
    14a4:	13310111 	teqne	r1, #1073741828	; 0x40000004
    14a8:	890a0000 	stmdbhi	sl, {}	; <UNPREDICTABLE>
    14ac:	11010182 	smlabbne	r1, r2, r1, r0
    14b0:	01133101 	tsteq	r3, r1, lsl #2
    14b4:	0b000013 	bleq	1508 <_start-0x6af8>
    14b8:	0001828a 	andeq	r8, r1, sl, lsl #5
    14bc:	42911802 	addsmi	r1, r1, #131072	; 0x20000
    14c0:	0c000018 	stceq	0, cr0, [r0], {24}
    14c4:	13490101 	movtne	r0, #37121	; 0x9101
    14c8:	00001301 	andeq	r1, r0, r1, lsl #6
    14cc:	4900210d 	stmdbmi	r0, {r0, r2, r3, r8, sp}
    14d0:	000b2f13 	andeq	r2, fp, r3, lsl pc
    14d4:	002e0e00 	eoreq	r0, lr, r0, lsl #28
    14d8:	0e03193f 	mcreq	9, 0, r1, cr3, cr15, {1}
    14dc:	0b3b0b3a 	bleq	ec41cc <__bss_end__+0xeb9a34>
    14e0:	193c1927 	ldmdbne	ip!, {r0, r1, r2, r5, r8, fp, ip}
    14e4:	2e0f0000 	cdpcs	0, 0, cr0, cr15, cr0, {0}
    14e8:	03193f01 	tsteq	r9, #1, 30
    14ec:	3b0b3a0e 	blcc	2cfd2c <__bss_end__+0x2c5594>
    14f0:	4919270b 	ldmdbmi	r9, {r0, r1, r3, r8, r9, sl, sp}
    14f4:	01193c13 	tsteq	r9, r3, lsl ip
    14f8:	10000013 	andne	r0, r0, r3, lsl r0
    14fc:	13490005 	movtne	r0, #36869	; 0x9005
    1500:	18110000 	ldmdane	r1, {}	; <UNPREDICTABLE>
    1504:	00000000 	andeq	r0, r0, r0
    1508:	25011101 	strcs	r1, [r1, #-257]	; 0x101
    150c:	030b130e 	movweq	r1, #45838	; 0xb30e
    1510:	110e1b0e 	tstne	lr, lr, lsl #22
    1514:	10061201 	andne	r1, r6, r1, lsl #4
    1518:	02000017 	andeq	r0, r0, #23
    151c:	0b0b0024 	bleq	2c15b4 <__bss_end__+0x2b6e1c>
    1520:	08030b3e 	stmdaeq	r3, {r1, r2, r3, r4, r5, r8, r9, fp}
    1524:	24030000 	strcs	r0, [r3], #-0
    1528:	3e0b0b00 	vmlacc.f64	d0, d11, d0
    152c:	000e030b 	andeq	r0, lr, fp, lsl #6
    1530:	000f0400 	andeq	r0, pc, r0, lsl #8
    1534:	13490b0b 	movtne	r0, #39691	; 0x9b0b
    1538:	26050000 	strcs	r0, [r5], -r0
    153c:	00134900 	andseq	r4, r3, r0, lsl #18
    1540:	012e0600 	teqeq	lr, r0, lsl #12
    1544:	0e03193f 	mcreq	9, 0, r1, cr3, cr15, {1}
    1548:	0b3b0b3a 	bleq	ec4238 <__bss_end__+0xeb9aa0>
    154c:	01111927 	tsteq	r1, r7, lsr #18
    1550:	18400612 	stmdane	r0, {r1, r4, r9, sl}^
    1554:	01194297 			; <UNDEFINED> instruction: 0x01194297
    1558:	07000013 	smladeq	r0, r3, r0, r0
    155c:	08030005 	stmdaeq	r3, {r0, r2}
    1560:	0b3b0b3a 	bleq	ec4250 <__bss_end__+0xeb9ab8>
    1564:	17021349 	strne	r1, [r2, -r9, asr #6]
    1568:	34080000 	strcc	r0, [r8], #-0
    156c:	490e0300 	stmdbmi	lr, {r8, r9}
    1570:	02193413 	andseq	r3, r9, #318767104	; 0x13000000
    1574:	09000018 	stmdbeq	r0, {r3, r4}
    1578:	00018289 	andeq	r8, r1, r9, lsl #5
    157c:	13310111 	teqne	r1, #1073741828	; 0x40000004
    1580:	890a0000 	stmdbhi	sl, {}	; <UNPREDICTABLE>
    1584:	11010182 	smlabbne	r1, r2, r1, r0
    1588:	01133101 	tsteq	r3, r1, lsl #2
    158c:	0b000013 	bleq	15e0 <_start-0x6a20>
    1590:	0001828a 	andeq	r8, r1, sl, lsl #5
    1594:	42911802 	addsmi	r1, r1, #131072	; 0x20000
    1598:	0c000018 	stceq	0, cr0, [r0], {24}
    159c:	13490101 	movtne	r0, #37121	; 0x9101
    15a0:	00001301 	andeq	r1, r0, r1, lsl #6
    15a4:	4900210d 	stmdbmi	r0, {r0, r2, r3, r8, sp}
    15a8:	000b2f13 	andeq	r2, fp, r3, lsl pc
    15ac:	002e0e00 	eoreq	r0, lr, r0, lsl #28
    15b0:	0e03193f 	mcreq	9, 0, r1, cr3, cr15, {1}
    15b4:	0b3b0b3a 	bleq	ec42a4 <__bss_end__+0xeb9b0c>
    15b8:	193c1927 	ldmdbne	ip!, {r0, r1, r2, r5, r8, fp, ip}
    15bc:	2e0f0000 	cdpcs	0, 0, cr0, cr15, cr0, {0}
    15c0:	03193f01 	tsteq	r9, #1, 30
    15c4:	3b0b3a0e 	blcc	2cfe04 <__bss_end__+0x2c566c>
    15c8:	4919270b 	ldmdbmi	r9, {r0, r1, r3, r8, r9, sl, sp}
    15cc:	01193c13 	tsteq	r9, r3, lsl ip
    15d0:	10000013 	andne	r0, r0, r3, lsl r0
    15d4:	13490005 	movtne	r0, #36869	; 0x9005
    15d8:	18110000 	ldmdane	r1, {}	; <UNPREDICTABLE>
    15dc:	00000000 	andeq	r0, r0, r0
    15e0:	25011101 	strcs	r1, [r1, #-257]	; 0x101
    15e4:	030b130e 	movweq	r1, #45838	; 0xb30e
    15e8:	110e1b0e 	tstne	lr, lr, lsl #22
    15ec:	10061201 	andne	r1, r6, r1, lsl #4
    15f0:	02000017 	andeq	r0, r0, #23
    15f4:	0b0b0024 	bleq	2c168c <__bss_end__+0x2b6ef4>
    15f8:	08030b3e 	stmdaeq	r3, {r1, r2, r3, r4, r5, r8, r9, fp}
    15fc:	24030000 	strcs	r0, [r3], #-0
    1600:	3e0b0b00 	vmlacc.f64	d0, d11, d0
    1604:	000e030b 	andeq	r0, lr, fp, lsl #6
    1608:	000f0400 	andeq	r0, pc, r0, lsl #8
    160c:	13490b0b 	movtne	r0, #39691	; 0x9b0b
    1610:	26050000 	strcs	r0, [r5], -r0
    1614:	00134900 	andseq	r4, r3, r0, lsl #18
    1618:	012e0600 	teqeq	lr, r0, lsl #12
    161c:	0e03193f 	mcreq	9, 0, r1, cr3, cr15, {1}
    1620:	0b3b0b3a 	bleq	ec4310 <__bss_end__+0xeb9b78>
    1624:	01111927 	tsteq	r1, r7, lsr #18
    1628:	18400612 	stmdane	r0, {r1, r4, r9, sl}^
    162c:	01194297 			; <UNDEFINED> instruction: 0x01194297
    1630:	07000013 	smladeq	r0, r3, r0, r0
    1634:	08030005 	stmdaeq	r3, {r0, r2}
    1638:	0b3b0b3a 	bleq	ec4328 <__bss_end__+0xeb9b90>
    163c:	17021349 	strne	r1, [r2, -r9, asr #6]
    1640:	34080000 	strcc	r0, [r8], #-0
    1644:	490e0300 	stmdbmi	lr, {r8, r9}
    1648:	02193413 	andseq	r3, r9, #318767104	; 0x13000000
    164c:	09000018 	stmdbeq	r0, {r3, r4}
    1650:	00018289 	andeq	r8, r1, r9, lsl #5
    1654:	13310111 	teqne	r1, #1073741828	; 0x40000004
    1658:	890a0000 	stmdbhi	sl, {}	; <UNPREDICTABLE>
    165c:	11010182 	smlabbne	r1, r2, r1, r0
    1660:	01133101 	tsteq	r3, r1, lsl #2
    1664:	0b000013 	bleq	16b8 <_start-0x6948>
    1668:	0001828a 	andeq	r8, r1, sl, lsl #5
    166c:	42911802 	addsmi	r1, r1, #131072	; 0x20000
    1670:	0c000018 	stceq	0, cr0, [r0], {24}
    1674:	13490101 	movtne	r0, #37121	; 0x9101
    1678:	00001301 	andeq	r1, r0, r1, lsl #6
    167c:	4900210d 	stmdbmi	r0, {r0, r2, r3, r8, sp}
    1680:	000b2f13 	andeq	r2, fp, r3, lsl pc
    1684:	002e0e00 	eoreq	r0, lr, r0, lsl #28
    1688:	0e03193f 	mcreq	9, 0, r1, cr3, cr15, {1}
    168c:	0b3b0b3a 	bleq	ec437c <__bss_end__+0xeb9be4>
    1690:	193c1927 	ldmdbne	ip!, {r0, r1, r2, r5, r8, fp, ip}
    1694:	2e0f0000 	cdpcs	0, 0, cr0, cr15, cr0, {0}
    1698:	03193f01 	tsteq	r9, #1, 30
    169c:	3b0b3a0e 	blcc	2cfedc <__bss_end__+0x2c5744>
    16a0:	4919270b 	ldmdbmi	r9, {r0, r1, r3, r8, r9, sl, sp}
    16a4:	01193c13 	tsteq	r9, r3, lsl ip
    16a8:	10000013 	andne	r0, r0, r3, lsl r0
    16ac:	13490005 	movtne	r0, #36869	; 0x9005
    16b0:	18110000 	ldmdane	r1, {}	; <UNPREDICTABLE>
    16b4:	00000000 	andeq	r0, r0, r0
    16b8:	25011101 	strcs	r1, [r1, #-257]	; 0x101
    16bc:	030b130e 	movweq	r1, #45838	; 0xb30e
    16c0:	110e1b0e 	tstne	lr, lr, lsl #22
    16c4:	10061201 	andne	r1, r6, r1, lsl #4
    16c8:	02000017 	andeq	r0, r0, #23
    16cc:	0b0b0024 	bleq	2c1764 <__bss_end__+0x2b6fcc>
    16d0:	0e030b3e 	vmoveq.16	d3[0], r0
    16d4:	24030000 	strcs	r0, [r3], #-0
    16d8:	3e0b0b00 	vmlacc.f64	d0, d11, d0
    16dc:	0008030b 	andeq	r0, r8, fp, lsl #6
    16e0:	000f0400 	andeq	r0, pc, r0, lsl #8
    16e4:	00000b0b 	andeq	r0, r0, fp, lsl #22
    16e8:	0b000f05 	bleq	5304 <_start-0x2cfc>
    16ec:	0013490b 	andseq	r4, r3, fp, lsl #18
    16f0:	00160600 	andseq	r0, r6, r0, lsl #12
    16f4:	0b3a0e03 	bleq	e84f08 <__bss_end__+0xe7a770>
    16f8:	13490b3b 	movtne	r0, #39739	; 0x9b3b
    16fc:	2e070000 	cdpcs	0, 0, cr0, cr7, cr0, {0}
    1700:	03193f01 	tsteq	r9, #1, 30
    1704:	3b0b3a0e 	blcc	2cff44 <__bss_end__+0x2c57ac>
    1708:	4919270b 	ldmdbmi	r9, {r0, r1, r3, r8, r9, sl, sp}
    170c:	12011113 	andne	r1, r1, #-1073741820	; 0xc0000004
    1710:	97184006 	ldrls	r4, [r8, -r6]
    1714:	00001942 	andeq	r1, r0, r2, asr #18
    1718:	03000508 	movweq	r0, #1288	; 0x508
    171c:	3b0b3a08 	blcc	2cff44 <__bss_end__+0x2c57ac>
    1720:	0213490b 	andseq	r4, r3, #180224	; 0x2c000
    1724:	09000018 	stmdbeq	r0, {r3, r4}
    1728:	08030005 	stmdaeq	r3, {r0, r2}
    172c:	0b3b0b3a 	bleq	ec441c <__bss_end__+0xeb9c84>
    1730:	17021349 	strne	r1, [r2, -r9, asr #6]
    1734:	340a0000 	strcc	r0, [sl], #-0
    1738:	3a080300 	bcc	202340 <__bss_end__+0x1f7ba8>
    173c:	490b3b0b 	stmdbmi	fp, {r0, r1, r3, r8, r9, fp, ip, sp}
    1740:	00170213 	andseq	r0, r7, r3, lsl r2
    1744:	00340b00 	eorseq	r0, r4, r0, lsl #22
    1748:	0b3a0803 	bleq	e8375c <__bss_end__+0xe78fc4>
    174c:	13490b3b 	movtne	r0, #39739	; 0x9b3b
    1750:	00001802 	andeq	r1, r0, r2, lsl #16
	...

Disassembly of section .debug_loc:

00000000 <.debug_loc>:
       0:	00000000 	andeq	r0, r0, r0
       4:	0000000f 	andeq	r0, r0, pc
       8:	0f500001 	svceq	0x00500001
       c:	28000000 	stmdacs	r0, {}	; <UNPREDICTABLE>
      10:	04000000 	streq	r0, [r0], #-0
      14:	5001f300 	andpl	pc, r1, r0, lsl #6
      18:	0000289f 	muleq	r0, pc, r8	; <UNPREDICTABLE>
      1c:	00003400 	andeq	r3, r0, r0, lsl #8
      20:	50000100 	andpl	r0, r0, r0, lsl #2
      24:	00000034 	andeq	r0, r0, r4, lsr r0
      28:	00000050 	andeq	r0, r0, r0, asr r0
      2c:	01f30004 	mvnseq	r0, r4
      30:	00009f50 	andeq	r9, r0, r0, asr pc
      34:	00000000 	andeq	r0, r0, r0
      38:	003c0000 	eorseq	r0, ip, r0
      3c:	00400000 	subeq	r0, r0, r0
      40:	00010000 	andeq	r0, r1, r0
      44:	00000050 	andeq	r0, r0, r0, asr r0
      48:	00000000 	andeq	r0, r0, r0
      4c:	00005000 	andeq	r5, r0, r0
      50:	00009800 	andeq	r9, r0, r0, lsl #16
      54:	50000100 	andpl	r0, r0, r0, lsl #2
      58:	00000098 	muleq	r0, r8, r0
      5c:	0000023c 	andeq	r0, r0, ip, lsr r2
      60:	01f30004 	mvnseq	r0, r4
      64:	00009f50 	andeq	r9, r0, r0, asr pc
      68:	00000000 	andeq	r0, r0, r0
      6c:	00540000 	subseq	r0, r4, r0
      70:	00a80000 	adceq	r0, r8, r0
      74:	00020000 	andeq	r0, r2, r0
      78:	00a89f30 	adceq	r9, r8, r0, lsr pc
      7c:	01080000 	mrseq	r0, (UNDEF: 8)
      80:	00010000 	andeq	r0, r1, r0
      84:	00010850 	andeq	r0, r1, r0, asr r8
      88:	00013800 	andeq	r3, r1, r0, lsl #16
      8c:	54000100 	strpl	r0, [r0], #-256	; 0x100
      90:	00000138 	andeq	r0, r0, r8, lsr r1
      94:	00000168 	andeq	r0, r0, r8, ror #2
      98:	685c0001 	ldmdavs	ip, {r0}^
      9c:	98000001 	stmdals	r0, {r0}
      a0:	01000001 	tsteq	r0, r1
      a4:	01985000 	orrseq	r5, r8, r0
      a8:	01c80000 	biceq	r0, r8, r0
      ac:	00010000 	andeq	r0, r1, r0
      b0:	0001c854 	andeq	ip, r1, r4, asr r8
      b4:	0001f400 	andeq	pc, r1, r0, lsl #8
      b8:	5c000100 	stfpls	f0, [r0], {-0}
      bc:	000001f4 	strdeq	r0, [r0], -r4
      c0:	0000023c 	andeq	r0, r0, ip, lsr r2
      c4:	00500001 	subseq	r0, r0, r1
      c8:	00000000 	andeq	r0, r0, r0
      cc:	70000000 	andvc	r0, r0, r0
      d0:	74000000 	strvc	r0, [r0], #-0
      d4:	01000000 	mrseq	r0, (UNDEF: 0)
      d8:	00005200 	andeq	r5, r0, r0, lsl #4
      dc:	00000000 	andeq	r0, r0, r0
      e0:	00840000 	addeq	r0, r4, r0
      e4:	00880000 	addeq	r0, r8, r0
      e8:	00010000 	andeq	r0, r1, r0
      ec:	00000052 	andeq	r0, r0, r2, asr r0
      f0:	00000000 	andeq	r0, r0, r0
      f4:	0000b000 	andeq	fp, r0, r0
      f8:	0000b400 	andeq	fp, r0, r0, lsl #8
      fc:	52000100 	andpl	r0, r0, #0, 2
	...
     108:	000000e0 	andeq	r0, r0, r0, ror #1
     10c:	000000e4 	andeq	r0, r0, r4, ror #1
     110:	00520001 	subseq	r0, r2, r1
     114:	00000000 	andeq	r0, r0, r0
     118:	10000000 	andne	r0, r0, r0
     11c:	14000001 	strne	r0, [r0], #-1
     120:	01000001 	tsteq	r0, r1
     124:	00005200 	andeq	r5, r0, r0, lsl #4
     128:	00000000 	andeq	r0, r0, r0
     12c:	01400000 	mrseq	r0, (UNDEF: 64)
     130:	01440000 	mrseq	r0, (UNDEF: 68)
     134:	00010000 	andeq	r0, r1, r0
     138:	00000052 	andeq	r0, r0, r2, asr r0
     13c:	00000000 	andeq	r0, r0, r0
     140:	00017000 	andeq	r7, r1, r0
     144:	00017400 	andeq	r7, r1, r0, lsl #8
     148:	52000100 	andpl	r0, r0, #0, 2
	...
     154:	000001a0 	andeq	r0, r0, r0, lsr #3
     158:	000001a4 	andeq	r0, r0, r4, lsr #3
     15c:	00520001 	subseq	r0, r2, r1
     160:	00000000 	andeq	r0, r0, r0
     164:	d0000000 	andle	r0, r0, r0
     168:	d4000001 	strle	r0, [r0], #-1
     16c:	01000001 	tsteq	r0, r1
     170:	00005200 	andeq	r5, r0, r0, lsl #4
     174:	00000000 	andeq	r0, r0, r0
     178:	01fc0000 	mvnseq	r0, r0
     17c:	02000000 	andeq	r0, r0, #0
     180:	00010000 	andeq	r0, r1, r0
     184:	00000052 	andeq	r0, r0, r2, asr r0
     188:	00000000 	andeq	r0, r0, r0
     18c:	00023c00 	andeq	r3, r2, r0, lsl #24
     190:	00026400 	andeq	r6, r2, r0, lsl #8
     194:	50000100 	andpl	r0, r0, r0, lsl #2
     198:	00000264 	andeq	r0, r0, r4, ror #4
     19c:	000004d8 	ldrdeq	r0, [r0], -r8
     1a0:	01f30004 	mvnseq	r0, r4
     1a4:	00009f50 	andeq	r9, r0, r0, asr pc
     1a8:	00000000 	andeq	r0, r0, r0
     1ac:	023c0000 	eorseq	r0, ip, #0
     1b0:	04500000 	ldrbeq	r0, [r0], #-0
     1b4:	00010000 	andeq	r0, r1, r0
     1b8:	00045051 	andeq	r5, r4, r1, asr r0
     1bc:	00045c00 	andeq	r5, r4, r0, lsl #24
     1c0:	f3000400 	vshl.u8	d0, d0, d0
     1c4:	5c9f5101 	ldfpls	f5, [pc], {1}
     1c8:	64000004 	strvs	r0, [r0], #-4
     1cc:	01000004 	tsteq	r0, r4
     1d0:	04645100 	strbteq	r5, [r4], #-256	; 0x100
     1d4:	04d80000 	ldrbeq	r0, [r8], #0
     1d8:	00040000 	andeq	r0, r4, r0
     1dc:	9f5101f3 	svcls	0x005101f3
	...
     1e8:	0000023c 	andeq	r0, r0, ip, lsr r2
     1ec:	00000248 	andeq	r0, r0, r8, asr #4
     1f0:	48520001 	ldmdami	r2, {r0}^
     1f4:	d8000002 	stmdale	r0, {r1}
     1f8:	04000004 	streq	r0, [r0], #-4
     1fc:	5201f300 	andpl	pc, r1, #0, 6
     200:	0000009f 	muleq	r0, pc, r0	; <UNPREDICTABLE>
     204:	00000000 	andeq	r0, r0, r0
     208:	00025400 	andeq	r5, r2, r0, lsl #8
     20c:	00026400 	andeq	r6, r2, r0, lsl #8
     210:	50000100 	andpl	r0, r0, r0, lsl #2
     214:	00000264 	andeq	r0, r0, r4, ror #4
     218:	000004d8 	ldrdeq	r0, [r0], -r8
     21c:	01f30004 	mvnseq	r0, r4
     220:	00009f50 	andeq	r9, r0, r0, asr pc
     224:	00000000 	andeq	r0, r0, r0
     228:	02740000 	rsbseq	r0, r4, #0
     22c:	02780000 	rsbseq	r0, r8, #0
     230:	00010000 	andeq	r0, r1, r0
     234:	00000052 	andeq	r0, r0, r2, asr r0
     238:	00000000 	andeq	r0, r0, r0
     23c:	00028000 	andeq	r8, r2, r0
     240:	00045000 	andeq	r5, r4, r0
     244:	71000800 	tstvc	r0, r0, lsl #16
     248:	081a3100 	ldmdaeq	sl, {r8, ip, sp}
     24c:	5c9f1aff 	vldmiapl	pc, {s2-s256}
     250:	64000004 	strvs	r0, [r0], #-4
     254:	08000004 	stmdaeq	r0, {r2}
     258:	31007100 	mrscc	r7, (UNDEF: 16)
     25c:	1aff081a 	bne	fffc22cc <__bss_end__+0xfffb7b34>
     260:	0000009f 	muleq	r0, pc, r0	; <UNPREDICTABLE>
     264:	00000000 	andeq	r0, r0, r0
     268:	00028800 	andeq	r8, r2, r0, lsl #16
     26c:	00029c00 	andeq	r9, r2, r0, lsl #24
     270:	f3000400 	vshl.u8	d0, d0, d0
     274:	009f5001 	addseq	r5, pc, r1
     278:	00000000 	andeq	r0, r0, r0
     27c:	9c000000 	stcls	0, cr0, [r0], {-0}
     280:	ac000002 	stcge	0, cr0, [r0], {2}
     284:	04000002 	streq	r0, [r0], #-2
     288:	5001f300 	andpl	pc, r1, r0, lsl #6
     28c:	0000009f 	muleq	r0, pc, r0	; <UNPREDICTABLE>
     290:	00000000 	andeq	r0, r0, r0
     294:	0002b400 	andeq	fp, r2, r0, lsl #8
     298:	0002b800 	andeq	fp, r2, r0, lsl #16
     29c:	52000100 	andpl	r0, r0, #0, 2
	...
     2a8:	000002c0 	andeq	r0, r0, r0, asr #5
     2ac:	00000450 	andeq	r0, r0, r0, asr r4
     2b0:	00710008 	rsbseq	r0, r1, r8
     2b4:	ff081a32 			; <UNDEFINED> instruction: 0xff081a32
     2b8:	045c9f1a 	ldrbeq	r9, [ip], #-3866	; 0xf1a
     2bc:	04640000 	strbteq	r0, [r4], #-0
     2c0:	00080000 	andeq	r0, r8, r0
     2c4:	1a320071 	bne	c80490 <__bss_end__+0xc75cf8>
     2c8:	9f1aff08 	svcls	0x001aff08
	...
     2d4:	000002c8 	andeq	r0, r0, r8, asr #5
     2d8:	000002dc 	ldrdeq	r0, [r0], -ip
     2dc:	01f30004 	mvnseq	r0, r4
     2e0:	00009f50 	andeq	r9, r0, r0, asr pc
     2e4:	00000000 	andeq	r0, r0, r0
     2e8:	02dc0000 	sbcseq	r0, ip, #0
     2ec:	02ec0000 	rsceq	r0, ip, #0
     2f0:	00040000 	andeq	r0, r4, r0
     2f4:	9f5001f3 	svcls	0x005001f3
	...
     300:	000002f4 	strdeq	r0, [r0], -r4
     304:	000002f8 	strdeq	r0, [r0], -r8
     308:	00520001 	subseq	r0, r2, r1
	...
     314:	50000003 	andpl	r0, r0, r3
     318:	08000004 	stmdaeq	r0, {r2}
     31c:	34007100 	strcc	r7, [r0], #-256	; 0x100
     320:	1aff081a 	bne	fffc2390 <__bss_end__+0xfffb7bf8>
     324:	00045c9f 	muleq	r4, pc, ip	; <UNPREDICTABLE>
     328:	00046400 	andeq	r6, r4, r0, lsl #8
     32c:	71000800 	tstvc	r0, r0, lsl #16
     330:	081a3400 	ldmdaeq	sl, {sl, ip, sp}
     334:	009f1aff 			; <UNDEFINED> instruction: 0x009f1aff
     338:	00000000 	andeq	r0, r0, r0
     33c:	08000000 	stmdaeq	r0, {}	; <UNPREDICTABLE>
     340:	1c000003 	stcne	0, cr0, [r0], {3}
     344:	04000003 	streq	r0, [r0], #-3
     348:	5001f300 	andpl	pc, r1, r0, lsl #6
     34c:	0000009f 	muleq	r0, pc, r0	; <UNPREDICTABLE>
     350:	00000000 	andeq	r0, r0, r0
     354:	00031c00 	andeq	r1, r3, r0, lsl #24
     358:	00032c00 	andeq	r2, r3, r0, lsl #24
     35c:	f3000400 	vshl.u8	d0, d0, d0
     360:	009f5001 	addseq	r5, pc, r1
     364:	00000000 	andeq	r0, r0, r0
     368:	34000000 	strcc	r0, [r0], #-0
     36c:	38000003 	stmdacc	r0, {r0, r1}
     370:	01000003 	tsteq	r0, r3
     374:	00005200 	andeq	r5, r0, r0, lsl #4
     378:	00000000 	andeq	r0, r0, r0
     37c:	03400000 	movteq	r0, #0
     380:	04500000 	ldrbeq	r0, [r0], #-0
     384:	00080000 	andeq	r0, r8, r0
     388:	1a380071 	bne	e00554 <__bss_end__+0xdf5dbc>
     38c:	9f1aff08 	svcls	0x001aff08
     390:	0000045c 	andeq	r0, r0, ip, asr r4
     394:	00000464 	andeq	r0, r0, r4, ror #8
     398:	00710008 	rsbseq	r0, r1, r8
     39c:	ff081a38 			; <UNDEFINED> instruction: 0xff081a38
     3a0:	00009f1a 	andeq	r9, r0, sl, lsl pc
     3a4:	00000000 	andeq	r0, r0, r0
     3a8:	03480000 	movteq	r0, #32768	; 0x8000
     3ac:	035c0000 	cmpeq	ip, #0
     3b0:	00040000 	andeq	r0, r4, r0
     3b4:	9f5001f3 	svcls	0x005001f3
	...
     3c0:	0000035c 	andeq	r0, r0, ip, asr r3
     3c4:	0000036c 	andeq	r0, r0, ip, ror #6
     3c8:	01f30004 	mvnseq	r0, r4
     3cc:	00009f50 	andeq	r9, r0, r0, asr pc
     3d0:	00000000 	andeq	r0, r0, r0
     3d4:	03740000 	cmneq	r4, #0
     3d8:	03780000 	cmneq	r8, #0
     3dc:	00010000 	andeq	r0, r1, r0
     3e0:	00000052 	andeq	r0, r0, r2, asr r0
     3e4:	00000000 	andeq	r0, r0, r0
     3e8:	00038000 	andeq	r8, r3, r0
     3ec:	00045000 	andeq	r5, r4, r0
     3f0:	71000800 	tstvc	r0, r0, lsl #16
     3f4:	081a4000 	ldmdaeq	sl, {lr}
     3f8:	5c9f1aff 	vldmiapl	pc, {s2-s256}
     3fc:	64000004 	strvs	r0, [r0], #-4
     400:	08000004 	stmdaeq	r0, {r2}
     404:	40007100 	andmi	r7, r0, r0, lsl #2
     408:	1aff081a 	bne	fffc2478 <__bss_end__+0xfffb7ce0>
     40c:	0000009f 	muleq	r0, pc, r0	; <UNPREDICTABLE>
     410:	00000000 	andeq	r0, r0, r0
     414:	00038800 	andeq	r8, r3, r0, lsl #16
     418:	00039c00 	andeq	r9, r3, r0, lsl #24
     41c:	f3000400 	vshl.u8	d0, d0, d0
     420:	009f5001 	addseq	r5, pc, r1
     424:	00000000 	andeq	r0, r0, r0
     428:	9c000000 	stcls	0, cr0, [r0], {-0}
     42c:	ac000003 	stcge	0, cr0, [r0], {3}
     430:	04000003 	streq	r0, [r0], #-3
     434:	5001f300 	andpl	pc, r1, r0, lsl #6
     438:	0000009f 	muleq	r0, pc, r0	; <UNPREDICTABLE>
     43c:	00000000 	andeq	r0, r0, r0
     440:	0003b400 	andeq	fp, r3, r0, lsl #8
     444:	0003b800 	andeq	fp, r3, r0, lsl #16
     448:	52000100 	andpl	r0, r0, #0, 2
	...
     454:	000003c0 	andeq	r0, r0, r0, asr #7
     458:	00000450 	andeq	r0, r0, r0, asr r4
     45c:	00710009 	rsbseq	r0, r1, r9
     460:	081a2008 	ldmdaeq	sl, {r3, sp}
     464:	5c9f1aff 	vldmiapl	pc, {s2-s256}
     468:	64000004 	strvs	r0, [r0], #-4
     46c:	09000004 	stmdbeq	r0, {r2}
     470:	08007100 	stmdaeq	r0, {r8, ip, sp, lr}
     474:	ff081a20 			; <UNDEFINED> instruction: 0xff081a20
     478:	00009f1a 	andeq	r9, r0, sl, lsl pc
     47c:	00000000 	andeq	r0, r0, r0
     480:	03c80000 	biceq	r0, r8, #0
     484:	03dc0000 	bicseq	r0, ip, #0
     488:	00040000 	andeq	r0, r4, r0
     48c:	9f5001f3 	svcls	0x005001f3
	...
     498:	000003dc 	ldrdeq	r0, [r0], -ip
     49c:	000003ec 	andeq	r0, r0, ip, ror #7
     4a0:	01f30004 	mvnseq	r0, r4
     4a4:	00009f50 	andeq	r9, r0, r0, asr pc
     4a8:	00000000 	andeq	r0, r0, r0
     4ac:	03f40000 	mvnseq	r0, #0
     4b0:	03f80000 	mvnseq	r0, #0
     4b4:	00010000 	andeq	r0, r1, r0
     4b8:	00000052 	andeq	r0, r0, r2, asr r0
     4bc:	00000000 	andeq	r0, r0, r0
     4c0:	00040000 	andeq	r0, r4, r0
     4c4:	00045000 	andeq	r5, r4, r0
     4c8:	71000900 	tstvc	r0, r0, lsl #18
     4cc:	1a400800 	bne	10024d4 <__bss_end__+0xff7d3c>
     4d0:	9f1aff08 	svcls	0x001aff08
     4d4:	0000045c 	andeq	r0, r0, ip, asr r4
     4d8:	00000464 	andeq	r0, r0, r4, ror #8
     4dc:	00710009 	rsbseq	r0, r1, r9
     4e0:	081a4008 	ldmdaeq	sl, {r3, lr}
     4e4:	009f1aff 			; <UNDEFINED> instruction: 0x009f1aff
     4e8:	00000000 	andeq	r0, r0, r0
     4ec:	08000000 	stmdaeq	r0, {}	; <UNPREDICTABLE>
     4f0:	1c000004 	stcne	0, cr0, [r0], {4}
     4f4:	04000004 	streq	r0, [r0], #-4
     4f8:	5001f300 	andpl	pc, r1, r0, lsl #6
     4fc:	0000009f 	muleq	r0, pc, r0	; <UNPREDICTABLE>
     500:	00000000 	andeq	r0, r0, r0
     504:	00041c00 	andeq	r1, r4, r0, lsl #24
     508:	00042c00 	andeq	r2, r4, r0, lsl #24
     50c:	f3000400 	vshl.u8	d0, d0, d0
     510:	009f5001 	addseq	r5, pc, r1
     514:	00000000 	andeq	r0, r0, r0
     518:	34000000 	strcc	r0, [r0], #-0
     51c:	38000004 	stmdacc	r0, {r2}
     520:	01000004 	tsteq	r0, r4
     524:	00005200 	andeq	r5, r0, r0, lsl #4
     528:	00000000 	andeq	r0, r0, r0
     52c:	04400000 	strbeq	r0, [r0], #-0
     530:	04500000 	ldrbeq	r0, [r0], #-0
     534:	00090000 	andeq	r0, r9, r0
     538:	80080071 	andhi	r0, r8, r1, ror r0
     53c:	1aff081a 	bne	fffc25ac <__bss_end__+0xfffb7e14>
     540:	00045c9f 	muleq	r4, pc, ip	; <UNPREDICTABLE>
     544:	00046400 	andeq	r6, r4, r0, lsl #8
     548:	71000900 	tstvc	r0, r0, lsl #18
     54c:	1a800800 	bne	fe002554 <__bss_end__+0xfdff7dbc>
     550:	9f1aff08 	svcls	0x001aff08
	...
     55c:	00000448 	andeq	r0, r0, r8, asr #8
     560:	0000045c 	andeq	r0, r0, ip, asr r4
     564:	01f30004 	mvnseq	r0, r4
     568:	00009f50 	andeq	r9, r0, r0, asr pc
     56c:	00000000 	andeq	r0, r0, r0
     570:	045c0000 	ldrbeq	r0, [ip], #-0
     574:	046c0000 	strbteq	r0, [ip], #-0
     578:	00040000 	andeq	r0, r4, r0
     57c:	9f5001f3 	svcls	0x005001f3
	...
     588:	00000474 	andeq	r0, r0, r4, ror r4
     58c:	00000478 	andeq	r0, r0, r8, ror r4
     590:	00520001 	subseq	r0, r2, r1
     594:	00000000 	andeq	r0, r0, r0
     598:	98000000 	stmdals	r0, {}	; <UNPREDICTABLE>
     59c:	9c000004 	stcls	0, cr0, [r0], {4}
     5a0:	01000004 	tsteq	r0, r4
     5a4:	00005200 	andeq	r5, r0, r0, lsl #4
     5a8:	00000000 	andeq	r0, r0, r0
     5ac:	04d80000 	ldrbeq	r0, [r8], #0
     5b0:	04e30000 	strbteq	r0, [r3], #0
     5b4:	00010000 	andeq	r0, r1, r0
     5b8:	0004e350 	andeq	lr, r4, r0, asr r3
     5bc:	00057c00 	andeq	r7, r5, r0, lsl #24
     5c0:	f3000400 	vshl.u8	d0, d0, d0
     5c4:	009f5001 	addseq	r5, pc, r1
     5c8:	00000000 	andeq	r0, r0, r0
     5cc:	2c000000 	stccs	0, cr0, [r0], {-0}
     5d0:	38000000 	stmdacc	r0, {}	; <UNPREDICTABLE>
     5d4:	01000000 	mrseq	r0, (UNDEF: 0)
     5d8:	00385000 	eorseq	r5, r8, r0
     5dc:	00480000 	subeq	r0, r8, r0
     5e0:	00010000 	andeq	r0, r1, r0
     5e4:	00004855 	andeq	r4, r0, r5, asr r8
     5e8:	00005800 	andeq	r5, r0, r0, lsl #16
     5ec:	50000100 	andpl	r0, r0, r0, lsl #2
	...
     5fc:	0000000b 	andeq	r0, r0, fp
     600:	0b500001 	bleq	140060c <__bss_end__+0x13f5e74>
     604:	14000000 	strne	r0, [r0], #-0
     608:	01000000 	mrseq	r0, (UNDEF: 0)
     60c:	00005400 	andeq	r5, r0, r0, lsl #8
	...
     618:	00100000 	andseq	r0, r0, r0
     61c:	00010000 	andeq	r0, r1, r0
     620:	00001050 	andeq	r1, r0, r0, asr r0
     624:	00003400 	andeq	r3, r0, r0, lsl #8
     628:	54000100 	strpl	r0, [r0], #-256	; 0x100
	...
     638:	00000004 	andeq	r0, r0, r4
     63c:	04500001 	ldrbeq	r0, [r0], #-1
     640:	0c000000 	stceq	0, cr0, [r0], {-0}
     644:	03000000 	movweq	r0, #0
     648:	9f307000 	svcls	0x00307000
     64c:	0000000c 	andeq	r0, r0, ip
     650:	00000014 	andeq	r0, r0, r4, lsl r0
     654:	01f30004 	mvnseq	r0, r4
     658:	00009f50 	andeq	r9, r0, r0, asr pc
     65c:	00000000 	andeq	r0, r0, r0
     660:	00140000 	andseq	r0, r4, r0
     664:	00200000 	eoreq	r0, r0, r0
     668:	00010000 	andeq	r0, r1, r0
     66c:	00002050 	andeq	r2, r0, r0, asr r0
     670:	00002c00 	andeq	r2, r0, r0, lsl #24
     674:	70000300 	andvc	r0, r0, r0, lsl #6
     678:	002c9f01 	eoreq	r9, ip, r1, lsl #30
     67c:	00400000 	subeq	r0, r0, r0
     680:	00010000 	andeq	r0, r1, r0
     684:	00000050 	andeq	r0, r0, r0, asr r0
     688:	00000000 	andeq	r0, r0, r0
     68c:	00001400 	andeq	r1, r0, r0, lsl #8
     690:	00001800 	andeq	r1, r0, r0, lsl #16
     694:	51000100 	mrspl	r0, (UNDEF: 16)
     698:	00000018 	andeq	r0, r0, r8, lsl r0
     69c:	00000040 	andeq	r0, r0, r0, asr #32
     6a0:	01f30004 	mvnseq	r0, r4
     6a4:	00009f51 	andeq	r9, r0, r1, asr pc
     6a8:	00000000 	andeq	r0, r0, r0
     6ac:	00400000 	subeq	r0, r0, r0
     6b0:	00600000 	rsbeq	r0, r0, r0
     6b4:	00010000 	andeq	r0, r1, r0
     6b8:	00006050 	andeq	r6, r0, r0, asr r0
     6bc:	00006c00 	andeq	r6, r0, r0, lsl #24
     6c0:	71000300 	mrsvc	r0, LR_irq
     6c4:	006c9f01 	rsbeq	r9, ip, r1, lsl #30
     6c8:	00740000 	rsbseq	r0, r4, r0
     6cc:	00010000 	andeq	r0, r1, r0
     6d0:	00007451 	andeq	r7, r0, r1, asr r4
     6d4:	00008000 	andeq	r8, r0, r0
     6d8:	71000300 	mrsvc	r0, LR_irq
     6dc:	00009f01 	andeq	r9, r0, r1, lsl #30
     6e0:	00000000 	andeq	r0, r0, r0
     6e4:	00400000 	subeq	r0, r0, r0
     6e8:	00500000 	subseq	r0, r0, r0
     6ec:	00010000 	andeq	r0, r1, r0
     6f0:	00005051 	andeq	r5, r0, r1, asr r0
     6f4:	00008000 	andeq	r8, r0, r0
     6f8:	f3000400 	vshl.u8	d0, d0, d0
     6fc:	009f5101 	addseq	r5, pc, r1, lsl #2
     700:	00000000 	andeq	r0, r0, r0
     704:	40000000 	andmi	r0, r0, r0
     708:	58000000 	stmdapl	r0, {}	; <UNPREDICTABLE>
     70c:	01000000 	mrseq	r0, (UNDEF: 0)
     710:	00585200 	subseq	r5, r8, r0, lsl #4
     714:	00640000 	rsbeq	r0, r4, r0
     718:	00010000 	andeq	r0, r1, r0
     71c:	00006452 	andeq	r6, r0, r2, asr r4
     720:	00006800 	andeq	r6, r0, r0, lsl #16
     724:	72000300 	andvc	r0, r0, #0, 6
     728:	00689f01 	rsbeq	r9, r8, r1, lsl #30
     72c:	00800000 	addeq	r0, r0, r0
     730:	00010000 	andeq	r0, r1, r0
     734:	00000052 	andeq	r0, r0, r2, asr r0
     738:	00000000 	andeq	r0, r0, r0
     73c:	00004000 	andeq	r4, r0, r0
     740:	00005400 	andeq	r5, r0, r0, lsl #8
     744:	53000100 	movwpl	r0, #256	; 0x100
     748:	00000054 	andeq	r0, r0, r4, asr r0
     74c:	00000078 	andeq	r0, r0, r8, ror r0
     750:	00530001 	subseq	r0, r3, r1
     754:	00000000 	andeq	r0, r0, r0
     758:	48000000 	stmdami	r0, {}	; <UNPREDICTABLE>
     75c:	60000000 	andvs	r0, r0, r0
     760:	01000000 	mrseq	r0, (UNDEF: 0)
     764:	00605c00 	rsbeq	r5, r0, r0, lsl #24
     768:	00800000 	addeq	r0, r0, r0
     76c:	000a0000 	andeq	r0, sl, r0
     770:	f35201f3 	vbsl	q8, q9, <illegal reg q9.5>
     774:	231c5301 	tstcs	ip, #67108864	; 0x4000000
     778:	00009f01 	andeq	r9, r0, r1, lsl #30
     77c:	00000000 	andeq	r0, r0, r0
     780:	00800000 	addeq	r0, r0, r0
     784:	00a40000 	adceq	r0, r4, r0
     788:	00010000 	andeq	r0, r1, r0
     78c:	0000a450 	andeq	sl, r0, r0, asr r4
     790:	00011800 	andeq	r1, r1, r0, lsl #16
     794:	70000300 	andvc	r0, r0, r0, lsl #6
     798:	01189f02 	tsteq	r8, r2, lsl #30
     79c:	02280000 	eoreq	r0, r8, #0
     7a0:	00040000 	andeq	r0, r4, r0
     7a4:	9f5001f3 	svcls	0x005001f3
	...
     7b0:	00000080 	andeq	r0, r0, r0, lsl #1
     7b4:	000000f0 	strdeq	r0, [r0], -r0	; <UNPREDICTABLE>
     7b8:	f0510001 			; <UNDEFINED> instruction: 0xf0510001
     7bc:	60000000 	andvs	r0, r0, r0
     7c0:	01000001 	tsteq	r0, r1
     7c4:	01605500 	cmneq	r0, r0, lsl #10
     7c8:	01680000 	cmneq	r8, r0
     7cc:	00010000 	andeq	r0, r1, r0
     7d0:	00016851 	andeq	r6, r1, r1, asr r8
     7d4:	00018800 	andeq	r8, r1, r0, lsl #16
     7d8:	55000100 	strpl	r0, [r0, #-256]	; 0x100
     7dc:	00000188 	andeq	r0, r0, r8, lsl #3
     7e0:	0000019c 	muleq	r0, ip, r1
     7e4:	9c510001 	mrrcls	0, 0, r0, r1, cr1
     7e8:	bc000001 	stclt	0, cr0, [r0], {1}
     7ec:	01000001 	tsteq	r0, r1
     7f0:	01bc5500 			; <UNDEFINED> instruction: 0x01bc5500
     7f4:	01bf0000 			; <UNDEFINED> instruction: 0x01bf0000
     7f8:	00010000 	andeq	r0, r1, r0
     7fc:	0001bf51 	andeq	fp, r1, r1, asr pc
     800:	00020800 	andeq	r0, r2, r0, lsl #16
     804:	55000100 	strpl	r0, [r0, #-256]	; 0x100
     808:	00000208 	andeq	r0, r0, r8, lsl #4
     80c:	00000228 	andeq	r0, r0, r8, lsr #4
     810:	01f30004 	mvnseq	r0, r4
     814:	00009f51 	andeq	r9, r0, r1, asr pc
     818:	00000000 	andeq	r0, r0, r0
     81c:	00800000 	addeq	r0, r0, r0
     820:	00940000 	addseq	r0, r4, r0
     824:	00010000 	andeq	r0, r1, r0
     828:	00009452 	andeq	r9, r0, r2, asr r4
     82c:	00020800 	andeq	r0, r2, r0, lsl #16
     830:	54000100 	strpl	r0, [r0], #-256	; 0x100
     834:	00000208 	andeq	r0, r0, r8, lsl #4
     838:	00000228 	andeq	r0, r0, r8, lsr #4
     83c:	01f30004 	mvnseq	r0, r4
     840:	00009f52 	andeq	r9, r0, r2, asr pc
     844:	00000000 	andeq	r0, r0, r0
     848:	00800000 	addeq	r0, r0, r0
     84c:	01000000 	mrseq	r0, (UNDEF: 0)
     850:	00010000 	andeq	r0, r1, r0
     854:	00010453 	andeq	r0, r1, r3, asr r4
     858:	00010800 	andeq	r0, r1, r0, lsl #16
     85c:	53000100 	movwpl	r0, #256	; 0x100
     860:	00000160 	andeq	r0, r0, r0, ror #2
     864:	00000168 	andeq	r0, r0, r8, ror #2
     868:	68530001 	ldmdavs	r3, {r0}^
     86c:	88000001 	stmdahi	r0, {r0}
     870:	04000001 	streq	r0, [r0], #-1
     874:	5301f300 	movwpl	pc, #4864	; 0x1300	; <UNPREDICTABLE>
     878:	0001889f 	muleq	r1, pc, r8	; <UNPREDICTABLE>
     87c:	00019000 	andeq	r9, r1, r0
     880:	53000100 	movwpl	r0, #256	; 0x100
     884:	00000190 	muleq	r0, r0, r1
     888:	00000194 	muleq	r0, r4, r1
     88c:	945c0001 	ldrbls	r0, [ip], #-1
     890:	9c000001 	stcls	0, cr0, [r0], {1}
     894:	01000001 	tsteq	r0, r1
     898:	019c5300 	orrseq	r5, ip, r0, lsl #6
     89c:	01bc0000 			; <UNDEFINED> instruction: 0x01bc0000
     8a0:	00040000 	andeq	r0, r4, r0
     8a4:	9f5301f3 	svcls	0x005301f3
     8a8:	000001bc 			; <UNDEFINED> instruction: 0x000001bc
     8ac:	000001bf 			; <UNDEFINED> instruction: 0x000001bf
     8b0:	bf530001 	svclt	0x00530001
     8b4:	e0000001 	and	r0, r0, r1
     8b8:	04000001 	streq	r0, [r0], #-1
     8bc:	5301f300 	movwpl	pc, #4864	; 0x1300	; <UNPREDICTABLE>
     8c0:	0000009f 	muleq	r0, pc, r0	; <UNPREDICTABLE>
     8c4:	00000000 	andeq	r0, r0, r0
     8c8:	00008000 	andeq	r8, r0, r0
     8cc:	00009c00 	andeq	r9, r0, r0, lsl #24
     8d0:	91000200 	mrsls	r0, R8_usr
     8d4:	00009c00 	andeq	r9, r0, r0, lsl #24
     8d8:	0001bf00 	andeq	fp, r1, r0, lsl #30
     8dc:	52000100 	andpl	r0, r0, #0, 2
     8e0:	000001e0 	andeq	r0, r0, r0, ror #3
     8e4:	000001eb 	andeq	r0, r0, fp, ror #3
     8e8:	00520001 	subseq	r0, r2, r1
     8ec:	00000000 	andeq	r0, r0, r0
     8f0:	9c000000 	stcls	0, cr0, [r0], {-0}
     8f4:	0c000000 	stceq	0, cr0, [r0], {-0}
     8f8:	04000001 	streq	r0, [r0], #-1
     8fc:	7fa09100 	svcvc	0x00a09100
     900:	00010c9f 	muleq	r1, pc, ip	; <UNPREDICTABLE>
     904:	00011800 	andeq	r1, r1, r0, lsl #16
     908:	51000100 	mrspl	r0, (UNDEF: 16)
     90c:	00000118 	andeq	r0, r0, r8, lsl r1
     910:	0000011c 	andeq	r0, r0, ip, lsl r1
     914:	1c530001 	mrrcne	0, 0, r0, r3, cr1
     918:	20000001 	andcs	r0, r0, r1
     91c:	01000001 	tsteq	r0, r1
     920:	01205100 	teqeq	r0, r0, lsl #2
     924:	01600000 	cmneq	r0, r0
     928:	00010000 	andeq	r0, r1, r0
     92c:	00016053 	andeq	r6, r1, r3, asr r0
     930:	00016400 	andeq	r6, r1, r0, lsl #8
     934:	91000400 	tstls	r0, r0, lsl #8
     938:	649f7fa0 	ldrvs	r7, [pc], #4000	; 940 <_start-0x76c0>
     93c:	6c000001 	stcvs	0, cr0, [r0], {1}
     940:	01000001 	tsteq	r0, r1
     944:	016c5e00 	cmneq	ip, r0, lsl #28
     948:	01880000 	orreq	r0, r8, r0
     94c:	00010000 	andeq	r0, r1, r0
     950:	00018853 	andeq	r8, r1, r3, asr r8
     954:	00019000 	andeq	r9, r1, r0
     958:	91000400 	tstls	r0, r0, lsl #8
     95c:	909f7fa1 	addsls	r7, pc, r1, lsr #31
     960:	94000001 	strls	r0, [r0], #-1
     964:	01000001 	tsteq	r0, r1
     968:	01945300 	orrseq	r5, r4, r0, lsl #6
     96c:	01980000 	orrseq	r0, r8, r0
     970:	00040000 	andeq	r0, r4, r0
     974:	9f7fa091 	svcls	0x007fa091
     978:	00000198 	muleq	r0, r8, r1
     97c:	000001a0 	andeq	r0, r0, r0, lsr #3
     980:	a05e0001 	subsge	r0, lr, r1
     984:	bc000001 	stclt	0, cr0, [r0], {1}
     988:	01000001 	tsteq	r0, r1
     98c:	01bc5300 			; <UNDEFINED> instruction: 0x01bc5300
     990:	01e00000 	mvneq	r0, r0
     994:	00040000 	andeq	r0, r4, r0
     998:	9f7fa091 	svcls	0x007fa091
     99c:	000001e0 	andeq	r0, r0, r0, ror #3
     9a0:	000001eb 	andeq	r0, r0, fp, ror #3
     9a4:	00530001 	subseq	r0, r3, r1
     9a8:	00000000 	andeq	r0, r0, r0
     9ac:	a0000000 	andge	r0, r0, r0
     9b0:	ec000000 	stc	0, cr0, [r0], {-0}
     9b4:	01000000 	mrseq	r0, (UNDEF: 0)
     9b8:	00ec5c00 	rsceq	r5, ip, r0, lsl #24
     9bc:	01000000 	mrseq	r0, (UNDEF: 0)
     9c0:	00010000 	andeq	r0, r1, r0
     9c4:	00010053 	andeq	r0, r1, r3, asr r0
     9c8:	00010400 	andeq	r0, r1, r0, lsl #8
     9cc:	5c000100 	stfpls	f0, [r0], {-0}
     9d0:	00000104 	andeq	r0, r0, r4, lsl #2
     9d4:	00000108 	andeq	r0, r0, r8, lsl #2
     9d8:	08530001 	ldmdaeq	r3, {r0}^
     9dc:	18000001 	stmdane	r0, {r0}
     9e0:	01000001 	tsteq	r0, r1
     9e4:	01185c00 	tsteq	r8, r0, lsl #24
     9e8:	011c0000 	tsteq	ip, r0
     9ec:	00010000 	andeq	r0, r1, r0
     9f0:	00011c50 	andeq	r1, r1, r0, asr ip
     9f4:	00013c00 	andeq	r3, r1, r0, lsl #24
     9f8:	5c000100 	stfpls	f0, [r0], {-0}
     9fc:	00000144 	andeq	r0, r0, r4, asr #2
     a00:	00000158 	andeq	r0, r0, r8, asr r1
     a04:	58500001 	ldmdapl	r0, {r0}^
     a08:	60000001 	andvs	r0, r0, r1
     a0c:	01000001 	tsteq	r0, r1
     a10:	01605c00 	cmneq	r0, r0, lsl #24
     a14:	01680000 	cmneq	r8, r0
     a18:	00010000 	andeq	r0, r1, r0
     a1c:	00016853 	andeq	r6, r1, r3, asr r8
     a20:	00017800 	andeq	r7, r1, r0, lsl #16
     a24:	5c000100 	stfpls	f0, [r0], {-0}
     a28:	00000178 	andeq	r0, r0, r8, ror r1
     a2c:	00000180 	andeq	r0, r0, r0, lsl #3
     a30:	007c0005 	rsbseq	r0, ip, r5
     a34:	809f2534 	addshi	r2, pc, r4, lsr r5	; <UNPREDICTABLE>
     a38:	88000001 	stmdahi	r0, {r0}
     a3c:	01000001 	tsteq	r0, r1
     a40:	01885c00 	orreq	r5, r8, r0, lsl #24
     a44:	01900000 	orrseq	r0, r0, r0
     a48:	00010000 	andeq	r0, r1, r0
     a4c:	00019053 	andeq	r9, r1, r3, asr r0
     a50:	00019400 	andeq	r9, r1, r0, lsl #8
     a54:	5c000100 	stfpls	f0, [r0], {-0}
     a58:	00000194 	muleq	r0, r4, r1
     a5c:	0000019c 	muleq	r0, ip, r1
     a60:	9c530001 	mrrcls	0, 0, r0, r3, cr1
     a64:	ac000001 	stcge	0, cr0, [r0], {1}
     a68:	01000001 	tsteq	r0, r1
     a6c:	01ac5c00 			; <UNDEFINED> instruction: 0x01ac5c00
     a70:	01b40000 			; <UNDEFINED> instruction: 0x01b40000
     a74:	00050000 	andeq	r0, r5, r0
     a78:	2531007c 	ldrcs	r0, [r1, #-124]!	; 0x7c
     a7c:	0001b49f 	muleq	r1, pc, r4	; <UNPREDICTABLE>
     a80:	0001bc00 	andeq	fp, r1, r0, lsl #24
     a84:	5c000100 	stfpls	f0, [r0], {-0}
     a88:	000001bc 			; <UNDEFINED> instruction: 0x000001bc
     a8c:	000001bf 			; <UNDEFINED> instruction: 0x000001bf
     a90:	bf530001 	svclt	0x00530001
     a94:	e0000001 	and	r0, r0, r1
     a98:	04000001 	streq	r0, [r0], #-1
     a9c:	5301f300 	movwpl	pc, #4864	; 0x1300	; <UNPREDICTABLE>
     aa0:	0001e09f 	muleq	r1, pc, r0	; <UNPREDICTABLE>
     aa4:	0001eb00 	andeq	lr, r1, r0, lsl #22
     aa8:	5c000100 	stfpls	f0, [r0], {-0}
	...
     ab4:	000000ec 	andeq	r0, r0, ip, ror #1
     ab8:	000000fc 	strdeq	r0, [r0], -ip
     abc:	9f300002 	svcls	0x00300002
     ac0:	000000fc 	strdeq	r0, [r0], -ip
     ac4:	00000104 	andeq	r0, r0, r4, lsl #2
     ac8:	9f310002 	svcls	0x00310002
     acc:	00000104 	andeq	r0, r0, r4, lsl #2
     ad0:	00000108 	andeq	r0, r0, r8, lsl #2
     ad4:	9f300002 	svcls	0x00300002
	...
     ae0:	00000228 	andeq	r0, r0, r8, lsr #4
     ae4:	0000023b 	andeq	r0, r0, fp, lsr r2
     ae8:	3b500001 	blcc	1400af4 <__bss_end__+0x13f635c>
     aec:	5c000002 	stcpl	0, cr0, [r0], {2}
     af0:	04000002 	streq	r0, [r0], #-2
     af4:	5001f300 	andpl	pc, r1, r0, lsl #6
     af8:	00025c9f 	muleq	r2, pc, ip	; <UNPREDICTABLE>
     afc:	00029000 	andeq	r9, r2, r0
     b00:	50000100 	andpl	r0, r0, r0, lsl #2
	...
     b0c:	00000228 	andeq	r0, r0, r8, lsr #4
     b10:	0000023b 	andeq	r0, r0, fp, lsr r2
     b14:	3b510001 	blcc	1440b20 <__bss_end__+0x1436388>
     b18:	5c000002 	stcpl	0, cr0, [r0], {2}
     b1c:	04000002 	streq	r0, [r0], #-2
     b20:	5101f300 	mrspl	pc, SP_irq	; <UNPREDICTABLE>
     b24:	00025c9f 	muleq	r2, pc, ip	; <UNPREDICTABLE>
     b28:	00029000 	andeq	r9, r2, r0
     b2c:	51000100 	mrspl	r0, (UNDEF: 16)
	...
     b38:	00000290 	muleq	r0, r0, r2
     b3c:	000002bc 			; <UNDEFINED> instruction: 0x000002bc
     b40:	bc500001 	mrrclt	0, 0, r0, r0, cr1	; <UNPREDICTABLE>
     b44:	0c000002 	stceq	0, cr0, [r0], {2}
     b48:	01000005 	tsteq	r0, r5
     b4c:	050c5a00 	streq	r5, [ip, #-2560]	; 0xa00
     b50:	05240000 	streq	r0, [r4, #-0]!
     b54:	00040000 	andeq	r0, r4, r0
     b58:	9f5001f3 	svcls	0x005001f3
	...
     b64:	00000290 	muleq	r0, r0, r2
     b68:	000002a4 	andeq	r0, r0, r4, lsr #5
     b6c:	a4510001 	ldrbge	r0, [r1], #-1
     b70:	bc000002 	stclt	0, cr0, [r0], {2}
     b74:	03000002 	movweq	r0, #2
     b78:	9f017100 	svcls	0x00017100
     b7c:	000002bc 			; <UNDEFINED> instruction: 0x000002bc
     b80:	00000524 	andeq	r0, r0, r4, lsr #10
     b84:	01f30004 	mvnseq	r0, r4
     b88:	00009f51 	andeq	r9, r0, r1, asr pc
     b8c:	00000000 	andeq	r0, r0, r0
     b90:	02900000 	addseq	r0, r0, #0
     b94:	02c40000 	sbceq	r0, r4, #0
     b98:	00010000 	andeq	r0, r1, r0
     b9c:	0002c452 	andeq	ip, r2, r2, asr r4
     ba0:	0002ec00 	andeq	lr, r2, r0, lsl #24
     ba4:	52000100 	andpl	r0, r0, #0, 2
     ba8:	000002ec 	andeq	r0, r0, ip, ror #5
     bac:	000004bc 			; <UNDEFINED> instruction: 0x000004bc
     bb0:	bc560001 	mrrclt	0, 0, r0, r6, cr1
     bb4:	24000004 	strcs	r0, [r0], #-4
     bb8:	01000005 	tsteq	r0, r5
     bbc:	00005200 	andeq	r5, r0, r0, lsl #4
     bc0:	00000000 	andeq	r0, r0, r0
     bc4:	02900000 	addseq	r0, r0, #0
     bc8:	02ac0000 	adceq	r0, ip, #0
     bcc:	00010000 	andeq	r0, r1, r0
     bd0:	00000053 	andeq	r0, r0, r3, asr r0
     bd4:	00000000 	andeq	r0, r0, r0
     bd8:	0002a000 	andeq	sl, r2, r0
     bdc:	0002bc00 	andeq	fp, r2, r0, lsl #24
     be0:	50000100 	andpl	r0, r0, r0, lsl #2
     be4:	000002bc 			; <UNDEFINED> instruction: 0x000002bc
     be8:	000002c0 	andeq	r0, r0, r0, asr #5
     bec:	c0540001 	subsgt	r0, r4, r1
     bf0:	cc000002 	stcgt	0, cr0, [r0], {2}
     bf4:	03000002 	movweq	r0, #2
     bf8:	9f017400 	svcls	0x00017400
     bfc:	000002cc 	andeq	r0, r0, ip, asr #5
     c00:	000002d8 	ldrdeq	r0, [r0], -r8
     c04:	d8540001 	ldmdale	r4, {r0}^
     c08:	e4000002 	str	r0, [r0], #-2
     c0c:	03000002 	movweq	r0, #2
     c10:	9f017400 	svcls	0x00017400
     c14:	000002e4 	andeq	r0, r0, r4, ror #5
     c18:	000004c0 	andeq	r0, r0, r0, asr #9
     c1c:	c0540001 	subsgt	r0, r4, r1
     c20:	cc000004 	stcgt	0, cr0, [r0], {4}
     c24:	03000004 	movweq	r0, #4
     c28:	9f017400 	svcls	0x00017400
     c2c:	000004cc 	andeq	r0, r0, ip, asr #9
     c30:	000004f8 	strdeq	r0, [r0], -r8
     c34:	f8540001 			; <UNDEFINED> instruction: 0xf8540001
     c38:	04000004 	streq	r0, [r0], #-4
     c3c:	01000005 	tsteq	r0, r5
     c40:	05045000 	streq	r5, [r4, #-0]
     c44:	050c0000 	streq	r0, [ip, #-0]
     c48:	00030000 	andeq	r0, r3, r0
     c4c:	009f0174 	addseq	r0, pc, r4, ror r1	; <UNPREDICTABLE>
     c50:	00000000 	andeq	r0, r0, r0
     c54:	a8000000 	stmdage	r0, {}	; <UNPREDICTABLE>
     c58:	0c000002 	stceq	0, cr0, [r0], {2}
     c5c:	01000005 	tsteq	r0, r5
     c60:	050c5800 	streq	r5, [ip, #-2048]	; 0x800
     c64:	05240000 	streq	r0, [r4, #-0]!
     c68:	000a0000 	andeq	r0, sl, r0
     c6c:	f35101f3 	vbsl	q8, <illegal reg q8.5>, <illegal reg q9.5>
     c70:	31225001 	teqcc	r2, r1
     c74:	00009f1c 	andeq	r9, r0, ip, lsl pc
     c78:	00000000 	andeq	r0, r0, r0
     c7c:	03f40000 	mvnseq	r0, #0
     c80:	03f80000 	mvnseq	r0, #0
     c84:	00010000 	andeq	r0, r1, r0
     c88:	00041850 	andeq	r1, r4, r0, asr r8
     c8c:	00041c00 	andeq	r1, r4, r0, lsl #24
     c90:	50000100 	andpl	r0, r0, r0, lsl #2
     c94:	0000043c 	andeq	r0, r0, ip, lsr r4
     c98:	00000440 	andeq	r0, r0, r0, asr #8
     c9c:	60500001 	subsvs	r0, r0, r1
     ca0:	64000004 	strvs	r0, [r0], #-4
     ca4:	01000004 	tsteq	r0, r4
     ca8:	046c5000 	strbteq	r5, [ip], #-0
     cac:	04700000 	ldrbteq	r0, [r0], #-0
     cb0:	00010000 	andeq	r0, r1, r0
     cb4:	00049050 	andeq	r9, r4, r0, asr r0
     cb8:	00049400 	andeq	r9, r4, r0, lsl #8
     cbc:	50000100 	andpl	r0, r0, r0, lsl #2
     cc0:	000004b8 			; <UNDEFINED> instruction: 0x000004b8
     cc4:	000004e0 	andeq	r0, r0, r0, ror #9
     cc8:	00500001 	subseq	r0, r0, r1
     ccc:	00000000 	andeq	r0, r0, r0
     cd0:	ec000000 	stc	0, cr0, [r0], {-0}
     cd4:	f4000002 	vst4.8	{d0-d3}, [r0], r2
     cd8:	02000002 	andeq	r0, r0, #2
     cdc:	f49f3000 			; <UNDEFINED> instruction: 0xf49f3000
     ce0:	f8000002 			; <UNDEFINED> instruction: 0xf8000002
     ce4:	01000002 	tsteq	r0, r2
     ce8:	03045700 	movweq	r5, #18176	; 0x4700
     cec:	04e00000 	strbteq	r0, [r0], #0
     cf0:	00010000 	andeq	r0, r1, r0
     cf4:	00000057 	andeq	r0, r0, r7, asr r0
     cf8:	00000000 	andeq	r0, r0, r0
     cfc:	00000400 	andeq	r0, r0, r0, lsl #8
     d00:	00000800 	andeq	r0, r0, r0, lsl #16
     d04:	73000700 	movwvc	r0, #1792	; 0x700
     d08:	10000a00 	andne	r0, r0, r0, lsl #20
     d0c:	00089f21 	andeq	r9, r8, r1, lsr #30
     d10:	00100000 	andseq	r0, r0, r0
     d14:	00010000 	andeq	r0, r1, r0
     d18:	00000053 	andeq	r0, r0, r3, asr r0
     d1c:	00000000 	andeq	r0, r0, r0
     d20:	00001400 	andeq	r1, r0, r0, lsl #8
     d24:	00001800 	andeq	r1, r0, r0, lsl #16
     d28:	73000700 	movwvc	r0, #1792	; 0x700
     d2c:	efff0b00 	svc	0x00ff0b00
     d30:	00189f1a 	andseq	r9, r8, sl, lsl pc
     d34:	00200000 	eoreq	r0, r0, r0
     d38:	00010000 	andeq	r0, r1, r0
     d3c:	00000053 	andeq	r0, r0, r3, asr r0
	...
     d48:	00000c00 	andeq	r0, r0, r0, lsl #24
     d4c:	50000100 	andpl	r0, r0, r0, lsl #2
     d50:	0000000c 	andeq	r0, r0, ip
     d54:	00000020 	andeq	r0, r0, r0, lsr #32
     d58:	00540001 	subseq	r0, r4, r1
     d5c:	00000000 	andeq	r0, r0, r0
     d60:	34000000 	strcc	r0, [r0], #-0
     d64:	3c000000 	stccc	0, cr0, [r0], {-0}
     d68:	03000000 	movweq	r0, #0
     d6c:	9f047300 	svcls	0x00047300
     d70:	0000003c 	andeq	r0, r0, ip, lsr r0
     d74:	00000047 	andeq	r0, r0, r7, asr #32
     d78:	00530001 	subseq	r0, r3, r1
     d7c:	00000000 	andeq	r0, r0, r0
     d80:	48000000 	stmdami	r0, {}	; <UNPREDICTABLE>
     d84:	74000000 	strvc	r0, [r0], #-0
     d88:	01000000 	mrseq	r0, (UNDEF: 0)
     d8c:	00745000 	rsbseq	r5, r4, r0
     d90:	00830000 	addeq	r0, r3, r0
     d94:	00030000 	andeq	r0, r3, r0
     d98:	009f7873 	addseq	r7, pc, r3, ror r8	; <UNPREDICTABLE>
     d9c:	00000000 	andeq	r0, r0, r0
     da0:	b0000000 	andlt	r0, r0, r0
     da4:	b400008c 	strlt	r0, [r0], #-140	; 0x8c
     da8:	0200008c 	andeq	r0, r0, #140	; 0x8c
     dac:	b49f3000 	ldrlt	r3, [pc], #0	; db4 <_start-0x724c>
     db0:	b800008c 	stmdalt	r0, {r2, r3, r7}
     db4:	0100008c 	smlabbeq	r0, ip, r0, r0
     db8:	00005000 	andeq	r5, r0, r0
     dbc:	00000000 	andeq	r0, r0, r0
     dc0:	8cc80000 	stclhi	0, cr0, [r8], {0}
     dc4:	8ccc0000 	stclhi	0, cr0, [ip], {0}
     dc8:	00020000 	andeq	r0, r2, r0
     dcc:	8ccc9f30 	stclhi	15, cr9, [ip], {48}	; 0x30
     dd0:	8cd00000 	ldclhi	0, cr0, [r0], {0}
     dd4:	00010000 	andeq	r0, r1, r0
     dd8:	008cd453 	addeq	sp, ip, r3, asr r4
     ddc:	008cdc00 	addeq	sp, ip, r0, lsl #24
     de0:	53000100 	movwpl	r0, #256	; 0x100
	...
     df0:	00000004 	andeq	r0, r0, r4
     df4:	04500001 	ldrbeq	r0, [r0], #-1
     df8:	0c000000 	stceq	0, cr0, [r0], {-0}
     dfc:	01000000 	mrseq	r0, (UNDEF: 0)
     e00:	000c5300 	andeq	r5, ip, r0, lsl #6
     e04:	00100000 	andseq	r0, r0, r0
     e08:	00010000 	andeq	r0, r1, r0
     e0c:	00001050 	andeq	r1, r0, r0, asr r0
     e10:	00001c00 	andeq	r1, r0, r0, lsl #24
     e14:	53000100 	movwpl	r0, #256	; 0x100
	...
     e20:	0000003c 	andeq	r0, r0, ip, lsr r0
     e24:	00000047 	andeq	r0, r0, r7, asr #32
     e28:	47500001 	ldrbmi	r0, [r0, -r1]
     e2c:	60000000 	andvs	r0, r0, r0
     e30:	01000000 	mrseq	r0, (UNDEF: 0)
     e34:	00005500 	andeq	r5, r0, r0, lsl #10
     e38:	00000000 	andeq	r0, r0, r0
     e3c:	00500000 	subseq	r0, r0, r0
     e40:	00540000 	subseq	r0, r4, r0
     e44:	00010000 	andeq	r0, r1, r0
     e48:	00000050 	andeq	r0, r0, r0, asr r0
     e4c:	00000000 	andeq	r0, r0, r0
     e50:	00006000 	andeq	r6, r0, r0
     e54:	00006c00 	andeq	r6, r0, r0, lsl #24
     e58:	50000100 	andpl	r0, r0, r0, lsl #2
     e5c:	0000006c 	andeq	r0, r0, ip, rrx
     e60:	00000074 	andeq	r0, r0, r4, ror r0
     e64:	01f30004 	mvnseq	r0, r4
     e68:	00009f50 	andeq	r9, r0, r0, asr pc
     e6c:	00000000 	andeq	r0, r0, r0
     e70:	00740000 	rsbseq	r0, r4, r0
     e74:	00800000 	addeq	r0, r0, r0
     e78:	00010000 	andeq	r0, r1, r0
     e7c:	00008050 	andeq	r8, r0, r0, asr r0
     e80:	00008800 	andeq	r8, r0, r0, lsl #16
     e84:	f3000400 	vshl.u8	d0, d0, d0
     e88:	009f5001 	addseq	r5, pc, r1
	...
     e94:	90000000 	andls	r0, r0, r0
     e98:	01000000 	mrseq	r0, (UNDEF: 0)
     e9c:	00905000 	addseq	r5, r0, r0
     ea0:	00d40000 	sbcseq	r0, r4, r0
     ea4:	00010000 	andeq	r0, r1, r0
     ea8:	00000054 	andeq	r0, r0, r4, asr r0
     eac:	00000000 	andeq	r0, r0, r0
     eb0:	00004800 	andeq	r4, r0, r0, lsl #16
     eb4:	00004c00 	andeq	r4, r0, r0, lsl #24
     eb8:	55000100 	strpl	r0, [r0, #-256]	; 0x100
     ebc:	00000054 	andeq	r0, r0, r4, asr r0
     ec0:	00000058 	andeq	r0, r0, r8, asr r0
     ec4:	60550001 	subsvs	r0, r5, r1
     ec8:	64000000 	strvs	r0, [r0], #-0
     ecc:	01000000 	mrseq	r0, (UNDEF: 0)
     ed0:	006c5500 	rsbeq	r5, ip, r0, lsl #10
     ed4:	00700000 	rsbseq	r0, r0, r0
     ed8:	00010000 	andeq	r0, r1, r0
     edc:	00007855 	andeq	r7, r0, r5, asr r8
     ee0:	00007c00 	andeq	r7, r0, r0, lsl #24
     ee4:	55000100 	strpl	r0, [r0, #-256]	; 0x100
     ee8:	00000084 	andeq	r0, r0, r4, lsl #1
     eec:	00000088 	andeq	r0, r0, r8, lsl #1
     ef0:	8c550001 	mrrchi	0, 0, r0, r5, cr1
     ef4:	d4000000 	strle	r0, [r0], #-0
     ef8:	01000000 	mrseq	r0, (UNDEF: 0)
     efc:	00005500 	andeq	r5, r0, r0, lsl #10
     f00:	00000000 	andeq	r0, r0, r0
     f04:	001c0000 	andseq	r0, ip, r0
     f08:	00440000 	subeq	r0, r4, r0
     f0c:	00010000 	andeq	r0, r1, r0
     f10:	00004453 	andeq	r4, r0, r3, asr r4
     f14:	00004c00 	andeq	r4, r0, r0, lsl #24
     f18:	70001c00 	andvc	r1, r0, r0, lsl #24
     f1c:	f72cf700 			; <UNDEFINED> instruction: 0xf72cf700
     f20:	0825f425 	stmdaeq	r5!, {r0, r2, r5, sl, ip, sp, lr, pc}
     f24:	cccccccd 	stclgt	12, cr12, [ip], {205}	; 0xcd
     f28:	00000000 	andeq	r0, r0, r0
     f2c:	f720081e 			; <UNDEFINED> instruction: 0xf720081e
     f30:	2cf72525 	cfldr64cs	mvdx2, [r7], #148	; 0x94
     f34:	4c9f2533 	cfldr32mi	mvfx2, [pc], {51}	; 0x33
     f38:	50000000 	andpl	r0, r0, r0
     f3c:	01000000 	mrseq	r0, (UNDEF: 0)
     f40:	00505300 	subseq	r5, r0, r0, lsl #6
     f44:	00580000 	subseq	r0, r8, r0
     f48:	001c0000 	andseq	r0, ip, r0
     f4c:	2cf70070 	ldclcs	0, cr0, [r7], #448	; 0x1c0
     f50:	25f425f7 	ldrbcs	r2, [r4, #1527]!	; 0x5f7
     f54:	cccccd08 	stclgt	13, cr12, [ip], {8}
     f58:	000000cc 	andeq	r0, r0, ip, asr #1
     f5c:	20081e00 	andcs	r1, r8, r0, lsl #28
     f60:	f72525f7 			; <UNDEFINED> instruction: 0xf72525f7
     f64:	9f25332c 	svcls	0x0025332c
     f68:	00000058 	andeq	r0, r0, r8, asr r0
     f6c:	0000005c 	andeq	r0, r0, ip, asr r0
     f70:	5c530001 	mrrcpl	0, 0, r0, r3, cr1
     f74:	64000000 	strvs	r0, [r0], #-0
     f78:	1c000000 	stcne	0, cr0, [r0], {-0}
     f7c:	f7007000 			; <UNDEFINED> instruction: 0xf7007000
     f80:	f425f72c 	vld1.8	{d15}, [r5 :128], ip
     f84:	cccd0825 	stclgt	8, cr0, [sp], {37}	; 0x25
     f88:	0000cccc 	andeq	ip, r0, ip, asr #25
     f8c:	081e0000 	ldmdaeq	lr, {}	; <UNPREDICTABLE>
     f90:	2525f720 	strcs	pc, [r5, #-1824]!	; 0x720
     f94:	25332cf7 	ldrcs	r2, [r3, #-3319]!	; 0xcf7
     f98:	0000649f 	muleq	r0, pc, r4	; <UNPREDICTABLE>
     f9c:	00006800 	andeq	r6, r0, r0, lsl #16
     fa0:	53000100 	movwpl	r0, #256	; 0x100
     fa4:	00000068 	andeq	r0, r0, r8, rrx
     fa8:	00000070 	andeq	r0, r0, r0, ror r0
     fac:	0070001c 	rsbseq	r0, r0, ip, lsl r0
     fb0:	25f72cf7 	ldrbcs	r2, [r7, #3319]!	; 0xcf7
     fb4:	cd0825f4 	cfstr32gt	mvfx2, [r8, #-976]	; 0xfffffc30
     fb8:	00cccccc 	sbceq	ip, ip, ip, asr #25
     fbc:	1e000000 	cdpne	0, 0, cr0, cr0, cr0, {0}
     fc0:	25f72008 	ldrbcs	r2, [r7, #8]!
     fc4:	332cf725 	msrcc	CPSR_fs, #9699328	; 0x940000
     fc8:	00709f25 	rsbseq	r9, r0, r5, lsr #30
     fcc:	00740000 	rsbseq	r0, r4, r0
     fd0:	00010000 	andeq	r0, r1, r0
     fd4:	00007453 	andeq	r7, r0, r3, asr r4
     fd8:	00007c00 	andeq	r7, r0, r0, lsl #24
     fdc:	70001c00 	andvc	r1, r0, r0, lsl #24
     fe0:	f72cf700 			; <UNDEFINED> instruction: 0xf72cf700
     fe4:	0825f425 	stmdaeq	r5!, {r0, r2, r5, sl, ip, sp, lr, pc}
     fe8:	cccccccd 	stclgt	12, cr12, [ip], {205}	; 0xcd
     fec:	00000000 	andeq	r0, r0, r0
     ff0:	f720081e 			; <UNDEFINED> instruction: 0xf720081e
     ff4:	2cf72525 	cfldr64cs	mvdx2, [r7], #148	; 0x94
     ff8:	7c9f2533 	cfldr32vc	mvfx2, [pc], {51}	; 0x33
     ffc:	80000000 	andhi	r0, r0, r0
    1000:	01000000 	mrseq	r0, (UNDEF: 0)
    1004:	00805300 	addeq	r5, r0, r0, lsl #6
    1008:	00880000 	addeq	r0, r8, r0
    100c:	001c0000 	andseq	r0, ip, r0
    1010:	2cf70070 	ldclcs	0, cr0, [r7], #448	; 0x1c0
    1014:	25f425f7 	ldrbcs	r2, [r4, #1527]!	; 0x5f7
    1018:	cccccd08 	stclgt	13, cr12, [ip], {8}
    101c:	000000cc 	andeq	r0, r0, ip, asr #1
    1020:	20081e00 	andcs	r1, r8, r0, lsl #28
    1024:	f72525f7 			; <UNDEFINED> instruction: 0xf72525f7
    1028:	9f25332c 	svcls	0x0025332c
    102c:	00000088 	andeq	r0, r0, r8, lsl #1
    1030:	0000008c 	andeq	r0, r0, ip, lsl #1
    1034:	8c530001 	mrrchi	0, 0, r0, r3, cr1
    1038:	90000000 	andls	r0, r0, r0
    103c:	1c000000 	stcne	0, cr0, [r0], {-0}
    1040:	f7007000 			; <UNDEFINED> instruction: 0xf7007000
    1044:	f425f72c 	vld1.8	{d15}, [r5 :128], ip
    1048:	cccd0825 	stclgt	8, cr0, [sp], {37}	; 0x25
    104c:	0000cccc 	andeq	ip, r0, ip, asr #25
    1050:	081e0000 	ldmdaeq	lr, {}	; <UNPREDICTABLE>
    1054:	2525f720 	strcs	pc, [r5, #-1824]!	; 0x720
    1058:	25332cf7 	ldrcs	r2, [r3, #-3319]!	; 0xcf7
    105c:	0000909f 	muleq	r0, pc, r0	; <UNPREDICTABLE>
    1060:	00009800 	andeq	r9, r0, r0, lsl #16
    1064:	74001c00 	strvc	r1, [r0], #-3072	; 0xc00
    1068:	f72cf700 			; <UNDEFINED> instruction: 0xf72cf700
    106c:	0825f425 	stmdaeq	r5!, {r0, r2, r5, sl, ip, sp, lr, pc}
    1070:	cccccccd 	stclgt	12, cr12, [ip], {205}	; 0xcd
    1074:	00000000 	andeq	r0, r0, r0
    1078:	f720081e 			; <UNDEFINED> instruction: 0xf720081e
    107c:	2cf72525 	cfldr64cs	mvdx2, [r7], #148	; 0x94
    1080:	989f2533 	ldmls	pc, {r0, r1, r4, r5, r8, sl, sp}	; <UNPREDICTABLE>
    1084:	9c000000 	stcls	0, cr0, [r0], {-0}
    1088:	17000000 	strne	r0, [r0, -r0]
    108c:	f7007400 			; <UNDEFINED> instruction: 0xf7007400
    1090:	7125f72c 	msrvc	SP_abt, ip
    1094:	f72cf700 			; <UNDEFINED> instruction: 0xf72cf700
    1098:	20081e25 	andcs	r1, r8, r5, lsr #28
    109c:	f72525f7 			; <UNDEFINED> instruction: 0xf72525f7
    10a0:	9f25332c 	svcls	0x0025332c
    10a4:	0000009c 	muleq	r0, ip, r0
    10a8:	000000d4 	ldrdeq	r0, [r0], -r4
    10ac:	0074001c 	rsbseq	r0, r4, ip, lsl r0
    10b0:	25f72cf7 	ldrbcs	r2, [r7, #3319]!	; 0xcf7
    10b4:	cd0825f4 	cfstr32gt	mvfx2, [r8, #-976]	; 0xfffffc30
    10b8:	00cccccc 	sbceq	ip, ip, ip, asr #25
    10bc:	1e000000 	cdpne	0, 0, cr0, cr0, cr0, {0}
    10c0:	25f72008 	ldrbcs	r2, [r7, #8]!
    10c4:	332cf725 	msrcc	CPSR_fs, #9699328	; 0x940000
    10c8:	00009f25 	andeq	r9, r0, r5, lsr #30
    10cc:	00000000 	andeq	r0, r0, r0
    10d0:	00940000 	addseq	r0, r4, r0
    10d4:	00b80000 	adcseq	r0, r8, r0
    10d8:	00010000 	andeq	r0, r1, r0
    10dc:	0000b850 	andeq	fp, r0, r0, asr r8
    10e0:	0000c400 	andeq	ip, r0, r0, lsl #8
    10e4:	31000800 	tstcc	r0, r0, lsl #16
    10e8:	73240071 	teqvc	r4, #113	; 0x71
    10ec:	c49f2100 	ldrgt	r2, [pc], #256	; 10f4 <_start-0x6f0c>
    10f0:	c7000000 	strgt	r0, [r0, -r0]
    10f4:	01000000 	mrseq	r0, (UNDEF: 0)
    10f8:	00005100 	andeq	r5, r0, r0, lsl #2
    10fc:	00000000 	andeq	r0, r0, r0
    1100:	00d40000 	sbcseq	r0, r4, r0
    1104:	00f80000 	rscseq	r0, r8, r0
    1108:	00010000 	andeq	r0, r1, r0
    110c:	0000f850 	andeq	pc, r0, r0, asr r8	; <UNPREDICTABLE>
    1110:	00010c00 	andeq	r0, r1, r0, lsl #24
    1114:	f3000400 	vshl.u8	d0, d0, d0
    1118:	009f5001 	addseq	r5, pc, r1
    111c:	00000000 	andeq	r0, r0, r0
    1120:	e0000000 	and	r0, r0, r0
    1124:	e8000000 	stmda	r0, {}	; <UNPREDICTABLE>
    1128:	02000000 	andeq	r0, r0, #0
    112c:	e89f3000 	ldm	pc, {ip, sp}	; <UNPREDICTABLE>
    1130:	e8000000 	stmda	r0, {}	; <UNPREDICTABLE>
    1134:	01000000 	mrseq	r0, (UNDEF: 0)
    1138:	00e85200 	rsceq	r5, r8, r0, lsl #4
    113c:	00f00000 	rscseq	r0, r0, r0
    1140:	00020000 	andeq	r0, r2, r0
    1144:	00f09f30 	rscseq	r9, r0, r0, lsr pc
    1148:	01030000 	mrseq	r0, (UNDEF: 3)
    114c:	00010000 	andeq	r0, r1, r0
    1150:	00000052 	andeq	r0, r0, r2, asr r0
    1154:	00000000 	andeq	r0, r0, r0
    1158:	0000e000 	andeq	lr, r0, r0
    115c:	0000f400 	andeq	pc, r0, r0, lsl #8
    1160:	30000200 	andcc	r0, r0, r0, lsl #4
    1164:	0000f49f 	muleq	r0, pc, r4	; <UNPREDICTABLE>
    1168:	00010000 	andeq	r0, r1, r0
    116c:	31000500 	tstcc	r0, r0, lsl #10
    1170:	9f240073 	svcls	0x00240073
    1174:	00000100 	andeq	r0, r0, r0, lsl #2
    1178:	00000103 	andeq	r0, r0, r3, lsl #2
    117c:	03510001 	cmpeq	r1, #1
    1180:	0c000001 	stceq	0, cr0, [r0], {1}
    1184:	08000001 	stmdaeq	r0, {r0}
    1188:	01f33100 	mvnseq	r3, r0, lsl #2
    118c:	241a4f50 	ldrcs	r4, [sl], #-3920	; 0xf50
    1190:	0000009f 	muleq	r0, pc, r0	; <UNPREDICTABLE>
    1194:	00000000 	andeq	r0, r0, r0
    1198:	00010c00 	andeq	r0, r1, r0, lsl #24
    119c:	00013000 	andeq	r3, r1, r0
    11a0:	50000100 	andpl	r0, r0, r0, lsl #2
    11a4:	00000130 	andeq	r0, r0, r0, lsr r1
    11a8:	00000144 	andeq	r0, r0, r4, asr #2
    11ac:	01f30004 	mvnseq	r0, r4
    11b0:	00009f50 	andeq	r9, r0, r0, asr pc
    11b4:	00000000 	andeq	r0, r0, r0
    11b8:	01180000 	tsteq	r8, r0
    11bc:	01200000 	teqeq	r0, r0
    11c0:	00020000 	andeq	r0, r2, r0
    11c4:	01209f30 	teqeq	r0, r0, lsr pc
    11c8:	01200000 	teqeq	r0, r0
    11cc:	00010000 	andeq	r0, r1, r0
    11d0:	00012052 	andeq	r2, r1, r2, asr r0
    11d4:	00012800 	andeq	r2, r1, r0, lsl #16
    11d8:	30000200 	andcc	r0, r0, r0, lsl #4
    11dc:	0001289f 	muleq	r1, pc, r8	; <UNPREDICTABLE>
    11e0:	00013b00 	andeq	r3, r1, r0, lsl #22
    11e4:	52000100 	andpl	r0, r0, #0, 2
	...
    11f0:	00000118 	andeq	r0, r0, r8, lsl r1
    11f4:	0000012c 	andeq	r0, r0, ip, lsr #2
    11f8:	9f300002 	svcls	0x00300002
    11fc:	0000012c 	andeq	r0, r0, ip, lsr #2
    1200:	00000138 	andeq	r0, r0, r8, lsr r1
    1204:	73310005 	teqvc	r1, #5
    1208:	389f2400 	ldmcc	pc, {sl, sp}	; <UNPREDICTABLE>
    120c:	3b000001 	blcc	1218 <_start-0x6de8>
    1210:	01000001 	tsteq	r0, r1
    1214:	013b5100 	teqeq	fp, r0, lsl #2
    1218:	01440000 	mrseq	r0, (UNDEF: 68)
    121c:	00080000 	andeq	r0, r8, r0
    1220:	5001f331 	andpl	pc, r1, r1, lsr r3	; <UNPREDICTABLE>
    1224:	9f241a4f 	svcls	0x00241a4f
	...
    1230:	00000144 	andeq	r0, r0, r4, asr #2
    1234:	000001d4 	ldrdeq	r0, [r0], -r4
    1238:	d4500001 	ldrble	r0, [r0], #-1
    123c:	10000001 	andne	r0, r0, r1
    1240:	01000002 	tsteq	r0, r2
    1244:	00005400 	andeq	r5, r0, r0, lsl #8
    1248:	00000000 	andeq	r0, r0, r0
    124c:	018c0000 	orreq	r0, ip, r0
    1250:	01900000 	orrseq	r0, r0, r0
    1254:	00010000 	andeq	r0, r1, r0
    1258:	00019855 	andeq	r9, r1, r5, asr r8
    125c:	00019c00 	andeq	r9, r1, r0, lsl #24
    1260:	55000100 	strpl	r0, [r0, #-256]	; 0x100
    1264:	000001a4 	andeq	r0, r0, r4, lsr #3
    1268:	000001a8 	andeq	r0, r0, r8, lsr #3
    126c:	b0550001 	subslt	r0, r5, r1
    1270:	b4000001 	strlt	r0, [r0], #-1
    1274:	01000001 	tsteq	r0, r1
    1278:	01bc5500 			; <UNDEFINED> instruction: 0x01bc5500
    127c:	01c00000 	biceq	r0, r0, r0
    1280:	00010000 	andeq	r0, r1, r0
    1284:	0001c855 	andeq	ip, r1, r5, asr r8
    1288:	0001cc00 	andeq	ip, r1, r0, lsl #24
    128c:	55000100 	strpl	r0, [r0, #-256]	; 0x100
    1290:	000001d0 	ldrdeq	r0, [r0], -r0	; <UNPREDICTABLE>
    1294:	00000210 	andeq	r0, r0, r0, lsl r2
    1298:	00550001 	subseq	r0, r5, r1
    129c:	00000000 	andeq	r0, r0, r0
    12a0:	60000000 	andvs	r0, r0, r0
    12a4:	88000001 	stmdahi	r0, {r0}
    12a8:	01000001 	tsteq	r0, r1
    12ac:	01885300 	orreq	r5, r8, r0, lsl #6
    12b0:	01900000 	orrseq	r0, r0, r0
    12b4:	001c0000 	andseq	r0, ip, r0
    12b8:	2cf70070 	ldclcs	0, cr0, [r7], #448	; 0x1c0
    12bc:	25f425f7 	ldrbcs	r2, [r4, #1527]!	; 0x5f7
    12c0:	cccccd08 	stclgt	13, cr12, [ip], {8}
    12c4:	000000cc 	andeq	r0, r0, ip, asr #1
    12c8:	20081e00 	andcs	r1, r8, r0, lsl #28
    12cc:	f72525f7 			; <UNDEFINED> instruction: 0xf72525f7
    12d0:	9f25332c 	svcls	0x0025332c
    12d4:	00000190 	muleq	r0, r0, r1
    12d8:	00000194 	muleq	r0, r4, r1
    12dc:	94530001 	ldrbls	r0, [r3], #-1
    12e0:	9c000001 	stcls	0, cr0, [r0], {1}
    12e4:	1c000001 	stcne	0, cr0, [r0], {1}
    12e8:	f7007000 			; <UNDEFINED> instruction: 0xf7007000
    12ec:	f425f72c 	vld1.8	{d15}, [r5 :128], ip
    12f0:	cccd0825 	stclgt	8, cr0, [sp], {37}	; 0x25
    12f4:	0000cccc 	andeq	ip, r0, ip, asr #25
    12f8:	081e0000 	ldmdaeq	lr, {}	; <UNPREDICTABLE>
    12fc:	2525f720 	strcs	pc, [r5, #-1824]!	; 0x720
    1300:	25332cf7 	ldrcs	r2, [r3, #-3319]!	; 0xcf7
    1304:	00019c9f 	muleq	r1, pc, ip	; <UNPREDICTABLE>
    1308:	0001a000 	andeq	sl, r1, r0
    130c:	53000100 	movwpl	r0, #256	; 0x100
    1310:	000001a0 	andeq	r0, r0, r0, lsr #3
    1314:	000001a8 	andeq	r0, r0, r8, lsr #3
    1318:	0070001c 	rsbseq	r0, r0, ip, lsl r0
    131c:	25f72cf7 	ldrbcs	r2, [r7, #3319]!	; 0xcf7
    1320:	cd0825f4 	cfstr32gt	mvfx2, [r8, #-976]	; 0xfffffc30
    1324:	00cccccc 	sbceq	ip, ip, ip, asr #25
    1328:	1e000000 	cdpne	0, 0, cr0, cr0, cr0, {0}
    132c:	25f72008 	ldrbcs	r2, [r7, #8]!
    1330:	332cf725 	msrcc	CPSR_fs, #9699328	; 0x940000
    1334:	01a89f25 			; <UNDEFINED> instruction: 0x01a89f25
    1338:	01ac0000 			; <UNDEFINED> instruction: 0x01ac0000
    133c:	00010000 	andeq	r0, r1, r0
    1340:	0001ac53 	andeq	sl, r1, r3, asr ip
    1344:	0001b400 	andeq	fp, r1, r0, lsl #8
    1348:	70001c00 	andvc	r1, r0, r0, lsl #24
    134c:	f72cf700 			; <UNDEFINED> instruction: 0xf72cf700
    1350:	0825f425 	stmdaeq	r5!, {r0, r2, r5, sl, ip, sp, lr, pc}
    1354:	cccccccd 	stclgt	12, cr12, [ip], {205}	; 0xcd
    1358:	00000000 	andeq	r0, r0, r0
    135c:	f720081e 			; <UNDEFINED> instruction: 0xf720081e
    1360:	2cf72525 	cfldr64cs	mvdx2, [r7], #148	; 0x94
    1364:	b49f2533 	ldrlt	r2, [pc], #1331	; 136c <_start-0x6c94>
    1368:	b8000001 	stmdalt	r0, {r0}
    136c:	01000001 	tsteq	r0, r1
    1370:	01b85300 			; <UNDEFINED> instruction: 0x01b85300
    1374:	01c00000 	biceq	r0, r0, r0
    1378:	001c0000 	andseq	r0, ip, r0
    137c:	2cf70070 	ldclcs	0, cr0, [r7], #448	; 0x1c0
    1380:	25f425f7 	ldrbcs	r2, [r4, #1527]!	; 0x5f7
    1384:	cccccd08 	stclgt	13, cr12, [ip], {8}
    1388:	000000cc 	andeq	r0, r0, ip, asr #1
    138c:	20081e00 	andcs	r1, r8, r0, lsl #28
    1390:	f72525f7 			; <UNDEFINED> instruction: 0xf72525f7
    1394:	9f25332c 	svcls	0x0025332c
    1398:	000001c0 	andeq	r0, r0, r0, asr #3
    139c:	000001c4 	andeq	r0, r0, r4, asr #3
    13a0:	c4530001 	ldrbgt	r0, [r3], #-1
    13a4:	cc000001 	stcgt	0, cr0, [r0], {1}
    13a8:	1c000001 	stcne	0, cr0, [r0], {1}
    13ac:	f7007000 			; <UNDEFINED> instruction: 0xf7007000
    13b0:	f425f72c 	vld1.8	{d15}, [r5 :128], ip
    13b4:	cccd0825 	stclgt	8, cr0, [sp], {37}	; 0x25
    13b8:	0000cccc 	andeq	ip, r0, ip, asr #25
    13bc:	081e0000 	ldmdaeq	lr, {}	; <UNPREDICTABLE>
    13c0:	2525f720 	strcs	pc, [r5, #-1824]!	; 0x720
    13c4:	25332cf7 	ldrcs	r2, [r3, #-3319]!	; 0xcf7
    13c8:	0001cc9f 	muleq	r1, pc, ip	; <UNPREDICTABLE>
    13cc:	0001d000 	andeq	sp, r1, r0
    13d0:	53000100 	movwpl	r0, #256	; 0x100
    13d4:	000001d0 	ldrdeq	r0, [r0], -r0	; <UNPREDICTABLE>
    13d8:	000001d4 	ldrdeq	r0, [r0], -r4
    13dc:	0070001c 	rsbseq	r0, r0, ip, lsl r0
    13e0:	25f72cf7 	ldrbcs	r2, [r7, #3319]!	; 0xcf7
    13e4:	cd0825f4 	cfstr32gt	mvfx2, [r8, #-976]	; 0xfffffc30
    13e8:	00cccccc 	sbceq	ip, ip, ip, asr #25
    13ec:	1e000000 	cdpne	0, 0, cr0, cr0, cr0, {0}
    13f0:	25f72008 	ldrbcs	r2, [r7, #8]!
    13f4:	332cf725 	msrcc	CPSR_fs, #9699328	; 0x940000
    13f8:	01d49f25 	bicseq	r9, r4, r5, lsr #30
    13fc:	01dc0000 	bicseq	r0, ip, r0
    1400:	001c0000 	andseq	r0, ip, r0
    1404:	2cf70074 	ldclcs	0, cr0, [r7], #464	; 0x1d0
    1408:	25f425f7 	ldrbcs	r2, [r4, #1527]!	; 0x5f7
    140c:	cccccd08 	stclgt	13, cr12, [ip], {8}
    1410:	000000cc 	andeq	r0, r0, ip, asr #1
    1414:	20081e00 	andcs	r1, r8, r0, lsl #28
    1418:	f72525f7 			; <UNDEFINED> instruction: 0xf72525f7
    141c:	9f25332c 	svcls	0x0025332c
    1420:	000001dc 	ldrdeq	r0, [r0], -ip
    1424:	000001e0 	andeq	r0, r0, r0, ror #3
    1428:	00740017 	rsbseq	r0, r4, r7, lsl r0
    142c:	25f72cf7 	ldrbcs	r2, [r7, #3319]!	; 0xcf7
    1430:	2cf70071 	ldclcs	0, cr0, [r7], #452	; 0x1c4
    1434:	081e25f7 	ldmdaeq	lr, {r0, r1, r2, r4, r5, r6, r7, r8, sl, sp}
    1438:	2525f720 	strcs	pc, [r5, #-1824]!	; 0x720
    143c:	25332cf7 	ldrcs	r2, [r3, #-3319]!	; 0xcf7
    1440:	0001e09f 	muleq	r1, pc, r0	; <UNPREDICTABLE>
    1444:	00021000 	andeq	r1, r2, r0
    1448:	74001c00 	strvc	r1, [r0], #-3072	; 0xc00
    144c:	f72cf700 			; <UNDEFINED> instruction: 0xf72cf700
    1450:	0825f425 	stmdaeq	r5!, {r0, r2, r5, sl, ip, sp, lr, pc}
    1454:	cccccccd 	stclgt	12, cr12, [ip], {205}	; 0xcd
    1458:	00000000 	andeq	r0, r0, r0
    145c:	f720081e 			; <UNDEFINED> instruction: 0xf720081e
    1460:	2cf72525 	cfldr64cs	mvdx2, [r7], #148	; 0x94
    1464:	009f2533 	addseq	r2, pc, r3, lsr r5	; <UNPREDICTABLE>
    1468:	00000000 	andeq	r0, r0, r0
    146c:	d8000000 	stmdale	r0, {}	; <UNPREDICTABLE>
    1470:	fc000001 	stc2	0, cr0, [r0], {1}
    1474:	01000001 	tsteq	r0, r1
    1478:	01fc5000 	mvnseq	r5, r0
    147c:	02030000 	andeq	r0, r3, #0
    1480:	00010000 	andeq	r0, r1, r0
    1484:	00000051 	andeq	r0, r0, r1, asr r0
    1488:	00000000 	andeq	r0, r0, r0
    148c:	00021000 	andeq	r1, r2, r0
    1490:	00022c00 	andeq	r2, r2, r0, lsl #24
    1494:	50000100 	andpl	r0, r0, r0, lsl #2
    1498:	0000022c 	andeq	r0, r0, ip, lsr #4
    149c:	00000234 	andeq	r0, r0, r4, lsr r2
    14a0:	34540001 	ldrbcc	r0, [r4], #-1
    14a4:	3c000002 	stccc	0, cr0, [r0], {2}
    14a8:	01000002 	tsteq	r0, r2
    14ac:	023c5000 	eorseq	r5, ip, #0
    14b0:	02440000 	subeq	r0, r4, #0
    14b4:	00010000 	andeq	r0, r1, r0
    14b8:	00024454 	andeq	r4, r2, r4, asr r4
    14bc:	00025000 	andeq	r5, r2, r0
    14c0:	f3000400 	vshl.u8	d0, d0, d0
    14c4:	509f5001 	addspl	r5, pc, r1
    14c8:	54000002 	strpl	r0, [r0], #-2
    14cc:	01000002 	tsteq	r0, r2
    14d0:	02545000 	subseq	r5, r4, #0
    14d4:	025c0000 	subseq	r0, ip, #0
    14d8:	00010000 	andeq	r0, r1, r0
    14dc:	00000054 	andeq	r0, r0, r4, asr r0
    14e0:	00000000 	andeq	r0, r0, r0
    14e4:	00022000 	andeq	r2, r2, r0
    14e8:	00023000 	andeq	r3, r2, r0
    14ec:	30000200 	andcc	r0, r0, r0, lsl #4
    14f0:	0002309f 	muleq	r2, pc, r0	; <UNPREDICTABLE>
    14f4:	00023400 	andeq	r3, r2, r0, lsl #8
    14f8:	50000100 	andpl	r0, r0, r0, lsl #2
    14fc:	00000234 	andeq	r0, r0, r4, lsr r2
    1500:	00000240 	andeq	r0, r0, r0, asr #4
    1504:	9f300002 	svcls	0x00300002
    1508:	00000240 	andeq	r0, r0, r0, asr #4
    150c:	0000024c 	andeq	r0, r0, ip, asr #4
    1510:	00500001 	subseq	r0, r0, r1
    1514:	00000000 	andeq	r0, r0, r0
    1518:	5c000000 	stcpl	0, cr0, [r0], {-0}
    151c:	73000002 	movwvc	r0, #2
    1520:	01000002 	tsteq	r0, r2
    1524:	02735000 	rsbseq	r5, r3, #0
    1528:	02780000 	rsbseq	r0, r8, #0
    152c:	00040000 	andeq	r0, r4, r0
    1530:	9f5001f3 	svcls	0x005001f3
    1534:	00000278 	andeq	r0, r0, r8, ror r2
    1538:	0000027b 	andeq	r0, r0, fp, ror r2
    153c:	7b500001 	blvc	1401548 <__bss_end__+0x13f6db0>
    1540:	80000002 	andhi	r0, r0, r2
    1544:	04000002 	streq	r0, [r0], #-2
    1548:	5001f300 	andpl	pc, r1, r0, lsl #6
    154c:	0000009f 	muleq	r0, pc, r0	; <UNPREDICTABLE>
    1550:	00000000 	andeq	r0, r0, r0
    1554:	00025c00 	andeq	r5, r2, r0, lsl #24
    1558:	00027300 	andeq	r7, r2, r0, lsl #6
    155c:	51000100 	mrspl	r0, (UNDEF: 16)
    1560:	00000273 	andeq	r0, r0, r3, ror r2
    1564:	00000278 	andeq	r0, r0, r8, ror r2
    1568:	01f30004 	mvnseq	r0, r4
    156c:	02789f51 	rsbseq	r9, r8, #324	; 0x144
    1570:	027b0000 	rsbseq	r0, fp, #0
    1574:	00010000 	andeq	r0, r1, r0
    1578:	00027b51 	andeq	r7, r2, r1, asr fp
    157c:	00028000 	andeq	r8, r2, r0
    1580:	f3000400 	vshl.u8	d0, d0, d0
    1584:	009f5101 	addseq	r5, pc, r1, lsl #2
    1588:	00000000 	andeq	r0, r0, r0
    158c:	80000000 	andhi	r0, r0, r0
    1590:	18000002 	stmdane	r0, {r1}
    1594:	01000003 	tsteq	r0, r3
    1598:	03185000 	tsteq	r8, #0
    159c:	03580000 	cmpeq	r8, #0
    15a0:	00010000 	andeq	r0, r1, r0
    15a4:	00000054 	andeq	r0, r0, r4, asr r0
    15a8:	00000000 	andeq	r0, r0, r0
    15ac:	00028000 	andeq	r8, r2, r0
    15b0:	00031b00 	andeq	r1, r3, r0, lsl #22
    15b4:	51000100 	mrspl	r0, (UNDEF: 16)
    15b8:	0000031b 	andeq	r0, r0, fp, lsl r3
    15bc:	00000358 	andeq	r0, r0, r8, asr r3
    15c0:	01f30004 	mvnseq	r0, r4
    15c4:	00009f51 	andeq	r9, r0, r1, asr pc
    15c8:	00000000 	andeq	r0, r0, r0
    15cc:	02d00000 	sbcseq	r0, r0, #0
    15d0:	02d40000 	sbcseq	r0, r4, #0
    15d4:	00010000 	andeq	r0, r1, r0
    15d8:	0002dc56 	andeq	sp, r2, r6, asr ip
    15dc:	0002e000 	andeq	lr, r2, r0
    15e0:	56000100 	strpl	r0, [r0], -r0, lsl #2
    15e4:	000002e8 	andeq	r0, r0, r8, ror #5
    15e8:	000002ec 	andeq	r0, r0, ip, ror #5
    15ec:	f4560001 			; <UNDEFINED> instruction: 0xf4560001
    15f0:	f8000002 			; <UNDEFINED> instruction: 0xf8000002
    15f4:	01000002 	tsteq	r0, r2
    15f8:	03005600 	movweq	r5, #1536	; 0x600
    15fc:	03040000 	movweq	r0, #16384	; 0x4000
    1600:	00010000 	andeq	r0, r1, r0
    1604:	00030c56 	andeq	r0, r3, r6, asr ip
    1608:	00031000 	andeq	r1, r3, r0
    160c:	56000100 	strpl	r0, [r0], -r0, lsl #2
    1610:	00000314 	andeq	r0, r0, r4, lsl r3
    1614:	00000358 	andeq	r0, r0, r8, asr r3
    1618:	00560001 	subseq	r0, r6, r1
    161c:	00000000 	andeq	r0, r0, r0
    1620:	a4000000 	strge	r0, [r0], #-0
    1624:	cc000002 	stcgt	0, cr0, [r0], {2}
    1628:	01000002 	tsteq	r0, r2
    162c:	02cc5300 	sbceq	r5, ip, #0, 6
    1630:	02d40000 	sbcseq	r0, r4, #0
    1634:	001c0000 	andseq	r0, ip, r0
    1638:	2cf70070 	ldclcs	0, cr0, [r7], #448	; 0x1c0
    163c:	25f425f7 	ldrbcs	r2, [r4, #1527]!	; 0x5f7
    1640:	cccccd08 	stclgt	13, cr12, [ip], {8}
    1644:	000000cc 	andeq	r0, r0, ip, asr #1
    1648:	20081e00 	andcs	r1, r8, r0, lsl #28
    164c:	f72525f7 			; <UNDEFINED> instruction: 0xf72525f7
    1650:	9f25332c 	svcls	0x0025332c
    1654:	000002d4 	ldrdeq	r0, [r0], -r4
    1658:	000002d8 	ldrdeq	r0, [r0], -r8
    165c:	d8530001 	ldmdale	r3, {r0}^
    1660:	e0000002 	and	r0, r0, r2
    1664:	1c000002 	stcne	0, cr0, [r0], {2}
    1668:	f7007000 			; <UNDEFINED> instruction: 0xf7007000
    166c:	f425f72c 	vld1.8	{d15}, [r5 :128], ip
    1670:	cccd0825 	stclgt	8, cr0, [sp], {37}	; 0x25
    1674:	0000cccc 	andeq	ip, r0, ip, asr #25
    1678:	081e0000 	ldmdaeq	lr, {}	; <UNPREDICTABLE>
    167c:	2525f720 	strcs	pc, [r5, #-1824]!	; 0x720
    1680:	25332cf7 	ldrcs	r2, [r3, #-3319]!	; 0xcf7
    1684:	0002e09f 	muleq	r2, pc, r0	; <UNPREDICTABLE>
    1688:	0002e400 	andeq	lr, r2, r0, lsl #8
    168c:	53000100 	movwpl	r0, #256	; 0x100
    1690:	000002e4 	andeq	r0, r0, r4, ror #5
    1694:	000002ec 	andeq	r0, r0, ip, ror #5
    1698:	0070001c 	rsbseq	r0, r0, ip, lsl r0
    169c:	25f72cf7 	ldrbcs	r2, [r7, #3319]!	; 0xcf7
    16a0:	cd0825f4 	cfstr32gt	mvfx2, [r8, #-976]	; 0xfffffc30
    16a4:	00cccccc 	sbceq	ip, ip, ip, asr #25
    16a8:	1e000000 	cdpne	0, 0, cr0, cr0, cr0, {0}
    16ac:	25f72008 	ldrbcs	r2, [r7, #8]!
    16b0:	332cf725 	msrcc	CPSR_fs, #9699328	; 0x940000
    16b4:	02ec9f25 	rsceq	r9, ip, #37, 30	; 0x94
    16b8:	02f00000 	rscseq	r0, r0, #0
    16bc:	00010000 	andeq	r0, r1, r0
    16c0:	0002f053 	andeq	pc, r2, r3, asr r0	; <UNPREDICTABLE>
    16c4:	0002f800 	andeq	pc, r2, r0, lsl #16
    16c8:	70001c00 	andvc	r1, r0, r0, lsl #24
    16cc:	f72cf700 			; <UNDEFINED> instruction: 0xf72cf700
    16d0:	0825f425 	stmdaeq	r5!, {r0, r2, r5, sl, ip, sp, lr, pc}
    16d4:	cccccccd 	stclgt	12, cr12, [ip], {205}	; 0xcd
    16d8:	00000000 	andeq	r0, r0, r0
    16dc:	f720081e 			; <UNDEFINED> instruction: 0xf720081e
    16e0:	2cf72525 	cfldr64cs	mvdx2, [r7], #148	; 0x94
    16e4:	f89f2533 			; <UNDEFINED> instruction: 0xf89f2533
    16e8:	fc000002 	stc2	0, cr0, [r0], {2}
    16ec:	01000002 	tsteq	r0, r2
    16f0:	02fc5300 	rscseq	r5, ip, #0, 6
    16f4:	03040000 	movweq	r0, #16384	; 0x4000
    16f8:	001c0000 	andseq	r0, ip, r0
    16fc:	2cf70070 	ldclcs	0, cr0, [r7], #448	; 0x1c0
    1700:	25f425f7 	ldrbcs	r2, [r4, #1527]!	; 0x5f7
    1704:	cccccd08 	stclgt	13, cr12, [ip], {8}
    1708:	000000cc 	andeq	r0, r0, ip, asr #1
    170c:	20081e00 	andcs	r1, r8, r0, lsl #28
    1710:	f72525f7 			; <UNDEFINED> instruction: 0xf72525f7
    1714:	9f25332c 	svcls	0x0025332c
    1718:	00000304 	andeq	r0, r0, r4, lsl #6
    171c:	00000308 	andeq	r0, r0, r8, lsl #6
    1720:	08530001 	ldmdaeq	r3, {r0}^
    1724:	10000003 	andne	r0, r0, r3
    1728:	1c000003 	stcne	0, cr0, [r0], {3}
    172c:	f7007000 			; <UNDEFINED> instruction: 0xf7007000
    1730:	f425f72c 	vld1.8	{d15}, [r5 :128], ip
    1734:	cccd0825 	stclgt	8, cr0, [sp], {37}	; 0x25
    1738:	0000cccc 	andeq	ip, r0, ip, asr #25
    173c:	081e0000 	ldmdaeq	lr, {}	; <UNPREDICTABLE>
    1740:	2525f720 	strcs	pc, [r5, #-1824]!	; 0x720
    1744:	25332cf7 	ldrcs	r2, [r3, #-3319]!	; 0xcf7
    1748:	0003109f 	muleq	r3, pc, r0	; <UNPREDICTABLE>
    174c:	00031400 	andeq	r1, r3, r0, lsl #8
    1750:	53000100 	movwpl	r0, #256	; 0x100
    1754:	00000314 	andeq	r0, r0, r4, lsl r3
    1758:	00000318 	andeq	r0, r0, r8, lsl r3
    175c:	0070001c 	rsbseq	r0, r0, ip, lsl r0
    1760:	25f72cf7 	ldrbcs	r2, [r7, #3319]!	; 0xcf7
    1764:	cd0825f4 	cfstr32gt	mvfx2, [r8, #-976]	; 0xfffffc30
    1768:	00cccccc 	sbceq	ip, ip, ip, asr #25
    176c:	1e000000 	cdpne	0, 0, cr0, cr0, cr0, {0}
    1770:	25f72008 	ldrbcs	r2, [r7, #8]!
    1774:	332cf725 	msrcc	CPSR_fs, #9699328	; 0x940000
    1778:	03189f25 	tsteq	r8, #37, 30	; 0x94
    177c:	03200000 	teqeq	r0, #0
    1780:	001c0000 	andseq	r0, ip, r0
    1784:	2cf70074 	ldclcs	0, cr0, [r7], #464	; 0x1d0
    1788:	25f425f7 	ldrbcs	r2, [r4, #1527]!	; 0x5f7
    178c:	cccccd08 	stclgt	13, cr12, [ip], {8}
    1790:	000000cc 	andeq	r0, r0, ip, asr #1
    1794:	20081e00 	andcs	r1, r8, r0, lsl #28
    1798:	f72525f7 			; <UNDEFINED> instruction: 0xf72525f7
    179c:	9f25332c 	svcls	0x0025332c
    17a0:	00000320 	andeq	r0, r0, r0, lsr #6
    17a4:	00000324 	andeq	r0, r0, r4, lsr #6
    17a8:	00740017 	rsbseq	r0, r4, r7, lsl r0
    17ac:	25f72cf7 	ldrbcs	r2, [r7, #3319]!	; 0xcf7
    17b0:	2cf70073 	ldclcs	0, cr0, [r7], #460	; 0x1cc
    17b4:	081e25f7 	ldmdaeq	lr, {r0, r1, r2, r4, r5, r6, r7, r8, sl, sp}
    17b8:	2525f720 	strcs	pc, [r5, #-1824]!	; 0x720
    17bc:	25332cf7 	ldrcs	r2, [r3, #-3319]!	; 0xcf7
    17c0:	0003249f 	muleq	r3, pc, r4	; <UNPREDICTABLE>
    17c4:	00035800 	andeq	r5, r3, r0, lsl #16
    17c8:	74001c00 	strvc	r1, [r0], #-3072	; 0xc00
    17cc:	f72cf700 			; <UNDEFINED> instruction: 0xf72cf700
    17d0:	0825f425 	stmdaeq	r5!, {r0, r2, r5, sl, ip, sp, lr, pc}
    17d4:	cccccccd 	stclgt	12, cr12, [ip], {205}	; 0xcd
    17d8:	00000000 	andeq	r0, r0, r0
    17dc:	f720081e 			; <UNDEFINED> instruction: 0xf720081e
    17e0:	2cf72525 	cfldr64cs	mvdx2, [r7], #148	; 0x94
    17e4:	009f2533 	addseq	r2, pc, r3, lsr r5	; <UNPREDICTABLE>
    17e8:	00000000 	andeq	r0, r0, r0
    17ec:	1c000000 	stcne	0, cr0, [r0], {-0}
    17f0:	40000003 	andmi	r0, r0, r3
    17f4:	01000003 	tsteq	r0, r3
    17f8:	03405000 	movteq	r5, #0
    17fc:	03480000 	movteq	r0, #32768	; 0x8000
    1800:	00090000 	andeq	r0, r9, r0
    1804:	00730075 	rsbseq	r0, r3, r5, ror r0
    1808:	21007124 	tstcs	r0, r4, lsr #2
    180c:	0003489f 	muleq	r3, pc, r8	; <UNPREDICTABLE>
    1810:	00034b00 	andeq	r4, r3, r0, lsl #22
    1814:	51000100 	mrspl	r0, (UNDEF: 16)
	...
    1820:	00000358 	andeq	r0, r0, r8, asr r3
    1824:	0000037c 	andeq	r0, r0, ip, ror r3
    1828:	7c500001 	mrrcvc	0, 0, r0, r0, cr1	; <UNPREDICTABLE>
    182c:	90000003 	andls	r0, r0, r3
    1830:	04000003 	streq	r0, [r0], #-3
    1834:	5001f300 	andpl	pc, r1, r0, lsl #6
    1838:	0000009f 	muleq	r0, pc, r0	; <UNPREDICTABLE>
    183c:	00000000 	andeq	r0, r0, r0
    1840:	00036400 	andeq	r6, r3, r0, lsl #8
    1844:	00036c00 	andeq	r6, r3, r0, lsl #24
    1848:	30000200 	andcc	r0, r0, r0, lsl #4
    184c:	00036c9f 	muleq	r3, pc, ip	; <UNPREDICTABLE>
    1850:	00036c00 	andeq	r6, r3, r0, lsl #24
    1854:	52000100 	andpl	r0, r0, #0, 2
    1858:	0000036c 	andeq	r0, r0, ip, ror #6
    185c:	00000374 	andeq	r0, r0, r4, ror r3
    1860:	9f300002 	svcls	0x00300002
    1864:	00000374 	andeq	r0, r0, r4, ror r3
    1868:	00000387 	andeq	r0, r0, r7, lsl #7
    186c:	00520001 	subseq	r0, r2, r1
    1870:	00000000 	andeq	r0, r0, r0
    1874:	64000000 	strvs	r0, [r0], #-0
    1878:	78000003 	stmdavc	r0, {r0, r1}
    187c:	02000003 	andeq	r0, r0, #3
    1880:	789f3000 	ldmvc	pc, {ip, sp}	; <UNPREDICTABLE>
    1884:	84000003 	strhi	r0, [r0], #-3
    1888:	05000003 	streq	r0, [r0, #-3]
    188c:	00733100 	rsbseq	r3, r3, r0, lsl #2
    1890:	03849f24 	orreq	r9, r4, #36, 30	; 0x90
    1894:	03870000 	orreq	r0, r7, #0
    1898:	00010000 	andeq	r0, r1, r0
    189c:	00038751 	andeq	r8, r3, r1, asr r7
    18a0:	00039000 	andeq	r9, r3, r0
    18a4:	31000800 	tstcc	r0, r0, lsl #16
    18a8:	4f5001f3 	svcmi	0x005001f3
    18ac:	009f241a 	addseq	r2, pc, sl, lsl r4	; <UNPREDICTABLE>
    18b0:	00000000 	andeq	r0, r0, r0
    18b4:	90000000 	andls	r0, r0, r0
    18b8:	9c000003 	stcls	0, cr0, [r0], {3}
    18bc:	01000003 	tsteq	r0, r3
    18c0:	039c5000 	orrseq	r5, ip, #0
    18c4:	03bc0000 			; <UNDEFINED> instruction: 0x03bc0000
    18c8:	00040000 	andeq	r0, r4, r0
    18cc:	9f5001f3 	svcls	0x005001f3
	...
    18d8:	000003bc 			; <UNDEFINED> instruction: 0x000003bc
    18dc:	000003cf 	andeq	r0, r0, pc, asr #7
    18e0:	cf500001 	svcgt	0x00500001
    18e4:	08000003 	stmdaeq	r0, {r0, r1}
    18e8:	01000004 	tsteq	r0, r4
    18ec:	04085400 	streq	r5, [r8], #-1024	; 0x400
    18f0:	04400000 	strbeq	r0, [r0], #-0
    18f4:	00040000 	andeq	r0, r4, r0
    18f8:	9f5001f3 	svcls	0x005001f3
	...
    1904:	00000428 	andeq	r0, r0, r8, lsr #8
    1908:	0000042c 	andeq	r0, r0, ip, lsr #8
    190c:	2c500001 	mrrccs	0, 0, r0, r0, cr1	; <UNPREDICTABLE>
    1910:	33000004 	movwcc	r0, #4
    1914:	01000004 	tsteq	r0, r4
    1918:	00005100 	andeq	r5, r0, r0, lsl #2
    191c:	00000000 	andeq	r0, r0, r0
    1920:	03e40000 	mvneq	r0, #0
    1924:	03ec0000 	mvneq	r0, #0
    1928:	00010000 	andeq	r0, r1, r0
    192c:	0003ec50 	andeq	lr, r3, r0, asr ip
    1930:	0003f300 	andeq	pc, r3, r0, lsl #6
    1934:	51000100 	mrspl	r0, (UNDEF: 16)
	...
    1940:	00000404 	andeq	r0, r0, r4, lsl #8
    1944:	00000410 	andeq	r0, r0, r0, lsl r4
    1948:	10500001 	subsne	r0, r0, r1
    194c:	17000004 	strne	r0, [r0, -r4]
    1950:	01000004 	tsteq	r0, r4
    1954:	00005100 	andeq	r5, r0, r0, lsl #2
    1958:	00000000 	andeq	r0, r0, r0
    195c:	04400000 	strbeq	r0, [r0], #-0
    1960:	04530000 	ldrbeq	r0, [r3], #-0
    1964:	00010000 	andeq	r0, r1, r0
    1968:	00045350 	andeq	r5, r4, r0, asr r3
    196c:	00048c00 	andeq	r8, r4, r0, lsl #24
    1970:	54000100 	strpl	r0, [r0], #-256	; 0x100
    1974:	0000048c 	andeq	r0, r0, ip, lsl #9
    1978:	000004c4 	andeq	r0, r0, r4, asr #9
    197c:	01f30004 	mvnseq	r0, r4
    1980:	00009f50 	andeq	r9, r0, r0, asr pc
    1984:	00000000 	andeq	r0, r0, r0
    1988:	04ac0000 	strteq	r0, [ip], #0
    198c:	04b00000 	ldrteq	r0, [r0], #0
    1990:	00010000 	andeq	r0, r1, r0
    1994:	0004b050 	andeq	fp, r4, r0, asr r0
    1998:	0004b700 	andeq	fp, r4, r0, lsl #14
    199c:	51000100 	mrspl	r0, (UNDEF: 16)
	...
    19a8:	00000468 	andeq	r0, r0, r8, ror #8
    19ac:	00000470 	andeq	r0, r0, r0, ror r4
    19b0:	70500001 	subsvc	r0, r0, r1
    19b4:	77000004 	strvc	r0, [r0, -r4]
    19b8:	01000004 	tsteq	r0, r4
    19bc:	00005100 	andeq	r5, r0, r0, lsl #2
    19c0:	00000000 	andeq	r0, r0, r0
    19c4:	04880000 	streq	r0, [r8], #0
    19c8:	04940000 	ldreq	r0, [r4], #0
    19cc:	00010000 	andeq	r0, r1, r0
    19d0:	00049450 	andeq	r9, r4, r0, asr r4
    19d4:	00049b00 	andeq	r9, r4, r0, lsl #22
    19d8:	51000100 	mrspl	r0, (UNDEF: 16)
	...
    19e4:	000004c4 	andeq	r0, r0, r4, asr #9
    19e8:	000004d7 	ldrdeq	r0, [r0], -r7
    19ec:	d7500001 	ldrble	r0, [r0, -r1]
    19f0:	18000004 	stmdane	r0, {r2}
    19f4:	01000005 	tsteq	r0, r5
    19f8:	05185400 	ldreq	r5, [r8, #-1024]	; 0x400
    19fc:	053c0000 	ldreq	r0, [ip, #-0]!
    1a00:	00040000 	andeq	r0, r4, r0
    1a04:	9f5001f3 	svcls	0x005001f3
    1a08:	0000053c 	andeq	r0, r0, ip, lsr r5
    1a0c:	00000540 	andeq	r0, r0, r0, asr #10
    1a10:	40500001 	subsmi	r0, r0, r1
    1a14:	48000005 	stmdami	r0, {r0, r2}
    1a18:	01000005 	tsteq	r0, r5
    1a1c:	00005400 	andeq	r5, r0, r0, lsl #8
    1a20:	00000000 	andeq	r0, r0, r0
    1a24:	04ec0000 	strbteq	r0, [ip], #0
    1a28:	04fb0000 	ldrbteq	r0, [fp], #0
    1a2c:	00080000 	andeq	r0, r8, r0
    1a30:	24007431 	strcs	r7, [r0], #-1073	; 0x431
    1a34:	9f1a0070 	svcls	0x001a0070
	...
    1a40:	00000518 	andeq	r0, r0, r8, lsl r5
    1a44:	00000530 	andeq	r0, r0, r0, lsr r5
    1a48:	00540001 	subseq	r0, r4, r1
    1a4c:	00000000 	andeq	r0, r0, r0
    1a50:	48000000 	stmdami	r0, {}	; <UNPREDICTABLE>
    1a54:	5b000005 	blpl	1a70 <_start-0x6590>
    1a58:	01000005 	tsteq	r0, r5
    1a5c:	055b5000 	ldrbeq	r5, [fp, #-0]
    1a60:	05800000 	streq	r0, [r0]
    1a64:	00010000 	andeq	r0, r1, r0
    1a68:	00058054 	andeq	r8, r5, r4, asr r0
    1a6c:	0005a000 	andeq	sl, r5, r0
    1a70:	f3000400 	vshl.u8	d0, d0, d0
    1a74:	009f5001 	addseq	r5, pc, r1
	...
    1a80:	18000000 	stmdane	r0, {}	; <UNPREDICTABLE>
    1a84:	01000000 	mrseq	r0, (UNDEF: 0)
    1a88:	00185000 	andseq	r5, r8, r0
    1a8c:	01540000 	cmpeq	r4, r0
    1a90:	00040000 	andeq	r0, r4, r0
    1a94:	9f5001f3 	svcls	0x005001f3
	...
    1aa4:	0000001c 	andeq	r0, r0, ip, lsl r0
    1aa8:	1c510001 	mrrcne	0, 0, r0, r1, cr1
    1aac:	54000000 	strpl	r0, [r0], #-0
    1ab0:	04000001 	streq	r0, [r0], #-1
    1ab4:	5101f300 	mrspl	pc, SP_irq	; <UNPREDICTABLE>
    1ab8:	0000009f 	muleq	r0, pc, r0	; <UNPREDICTABLE>
    1abc:	00000000 	andeq	r0, r0, r0
    1ac0:	00001000 	andeq	r1, r0, r0
    1ac4:	00013400 	andeq	r3, r1, r0, lsl #8
    1ac8:	55000100 	strpl	r0, [r0, #-256]	; 0x100
	...
    1ad4:	00000010 	andeq	r0, r0, r0, lsl r0
    1ad8:	00000034 	andeq	r0, r0, r4, lsr r0
    1adc:	34550001 	ldrbcc	r0, [r5], #-1
    1ae0:	34000000 	strcc	r0, [r0], #-0
    1ae4:	01000001 	tsteq	r0, r1
    1ae8:	01345800 	teqeq	r4, r0, lsl #16
    1aec:	01540000 	cmpeq	r4, r0
    1af0:	00010000 	andeq	r0, r1, r0
    1af4:	00000055 	andeq	r0, r0, r5, asr r0
    1af8:	00000000 	andeq	r0, r0, r0
    1afc:	00001400 	andeq	r1, r0, r0, lsl #8
    1b00:	00013400 	andeq	r3, r1, r0, lsl #8
    1b04:	55000100 	strpl	r0, [r0, #-256]	; 0x100
	...
    1b10:	00000020 	andeq	r0, r0, r0, lsr #32
    1b14:	00000134 	andeq	r0, r0, r4, lsr r1
    1b18:	00550001 	subseq	r0, r5, r1
    1b1c:	00000000 	andeq	r0, r0, r0
    1b20:	24000000 	strcs	r0, [r0], #-0
    1b24:	28000000 	stmdacs	r0, {}	; <UNPREDICTABLE>
    1b28:	01000000 	mrseq	r0, (UNDEF: 0)
    1b2c:	00005300 	andeq	r5, r0, r0, lsl #6
    1b30:	00000000 	andeq	r0, r0, r0
    1b34:	00340000 	eorseq	r0, r4, r0
    1b38:	00540000 	subseq	r0, r4, r0
    1b3c:	00010000 	andeq	r0, r1, r0
    1b40:	00005458 	andeq	r5, r0, r8, asr r4
    1b44:	00013400 	andeq	r3, r1, r0, lsl #8
    1b48:	75000500 	strvc	r0, [r0, #-1280]	; 0x500
    1b4c:	9f243100 	svcls	0x00243100
	...
    1b58:	00000034 	andeq	r0, r0, r4, lsr r0
    1b5c:	0000003c 	andeq	r0, r0, ip, lsr r0
    1b60:	00770005 	rsbseq	r0, r7, r5
    1b64:	3c9f1a31 	vldmiacc	pc, {s2-s50}
    1b68:	3f000000 	svccc	0x00000000
    1b6c:	01000000 	mrseq	r0, (UNDEF: 0)
    1b70:	003f5100 	eorseq	r5, pc, r0, lsl #2
    1b74:	01540000 	cmpeq	r4, r0
    1b78:	00050000 	andeq	r0, r5, r0
    1b7c:	1a310077 	bne	c41d60 <__bss_end__+0xc375c8>
    1b80:	0000009f 	muleq	r0, pc, r0	; <UNPREDICTABLE>
    1b84:	00000000 	andeq	r0, r0, r0
    1b88:	00004000 	andeq	r4, r0, r0
    1b8c:	00005400 	andeq	r5, r0, r0, lsl #8
    1b90:	58000100 	stmdapl	r0, {r8}
    1b94:	00000054 	andeq	r0, r0, r4, asr r0
    1b98:	00000134 	andeq	r0, r0, r4, lsr r1
    1b9c:	00750005 	rsbseq	r0, r5, r5
    1ba0:	009f2431 	addseq	r2, pc, r1, lsr r4	; <UNPREDICTABLE>
    1ba4:	00000000 	andeq	r0, r0, r0
    1ba8:	44000000 	strmi	r0, [r0], #-0
    1bac:	48000000 	stmdami	r0, {}	; <UNPREDICTABLE>
    1bb0:	01000000 	mrseq	r0, (UNDEF: 0)
    1bb4:	00005300 	andeq	r5, r0, r0, lsl #6
    1bb8:	00000000 	andeq	r0, r0, r0
    1bbc:	00540000 	subseq	r0, r4, r0
    1bc0:	00740000 	rsbseq	r0, r4, r0
    1bc4:	00010000 	andeq	r0, r1, r0
    1bc8:	00007458 	andeq	r7, r0, r8, asr r4
    1bcc:	00013400 	andeq	r3, r1, r0, lsl #8
    1bd0:	75000800 	strvc	r0, [r0, #-2048]	; 0x800
    1bd4:	75243100 	strvc	r3, [r4, #-256]!	; 0x100
    1bd8:	009f2200 	addseq	r2, pc, r0, lsl #4
    1bdc:	00000000 	andeq	r0, r0, r0
    1be0:	60000000 	andvs	r0, r0, r0
    1be4:	74000000 	strvc	r0, [r0], #-0
    1be8:	01000000 	mrseq	r0, (UNDEF: 0)
    1bec:	00745800 	rsbseq	r5, r4, r0, lsl #16
    1bf0:	01340000 	teqeq	r4, r0
    1bf4:	00080000 	andeq	r0, r8, r0
    1bf8:	24310075 	ldrtcs	r0, [r1], #-117	; 0x75
    1bfc:	9f220075 	svcls	0x00220075
	...
    1c08:	00000064 	andeq	r0, r0, r4, rrx
    1c0c:	00000068 	andeq	r0, r0, r8, rrx
    1c10:	00530001 	subseq	r0, r3, r1
    1c14:	00000000 	andeq	r0, r0, r0
    1c18:	74000000 	strvc	r0, [r0], #-0
    1c1c:	94000000 	strls	r0, [r0], #-0
    1c20:	01000000 	mrseq	r0, (UNDEF: 0)
    1c24:	00945800 	addseq	r5, r4, r0, lsl #16
    1c28:	01340000 	teqeq	r4, r0
    1c2c:	00050000 	andeq	r0, r5, r0
    1c30:	24320075 	ldrtcs	r0, [r2], #-117	; 0x75
    1c34:	0000009f 	muleq	r0, pc, r0	; <UNPREDICTABLE>
    1c38:	00000000 	andeq	r0, r0, r0
    1c3c:	00008000 	andeq	r8, r0, r0
    1c40:	00009400 	andeq	r9, r0, r0, lsl #8
    1c44:	58000100 	stmdapl	r0, {r8}
    1c48:	00000094 	muleq	r0, r4, r0
    1c4c:	00000134 	andeq	r0, r0, r4, lsr r1
    1c50:	00750005 	rsbseq	r0, r5, r5
    1c54:	009f2432 	addseq	r2, pc, r2, lsr r4	; <UNPREDICTABLE>
    1c58:	00000000 	andeq	r0, r0, r0
    1c5c:	84000000 	strhi	r0, [r0], #-0
    1c60:	88000000 	stmdahi	r0, {}	; <UNPREDICTABLE>
    1c64:	01000000 	mrseq	r0, (UNDEF: 0)
    1c68:	00005300 	andeq	r5, r0, r0, lsl #6
    1c6c:	00000000 	andeq	r0, r0, r0
    1c70:	00940000 	addseq	r0, r4, r0
    1c74:	00b40000 	adcseq	r0, r4, r0
    1c78:	00010000 	andeq	r0, r1, r0
    1c7c:	0000b458 	andeq	fp, r0, r8, asr r4
    1c80:	00013400 	andeq	r3, r1, r0, lsl #8
    1c84:	75000800 	strvc	r0, [r0, #-2048]	; 0x800
    1c88:	75243200 	strvc	r3, [r4, #-512]!	; 0x200
    1c8c:	009f2200 	addseq	r2, pc, r0, lsl #4
    1c90:	00000000 	andeq	r0, r0, r0
    1c94:	a0000000 	andge	r0, r0, r0
    1c98:	b4000000 	strlt	r0, [r0], #-0
    1c9c:	01000000 	mrseq	r0, (UNDEF: 0)
    1ca0:	00b45800 	adcseq	r5, r4, r0, lsl #16
    1ca4:	01340000 	teqeq	r4, r0
    1ca8:	00080000 	andeq	r0, r8, r0
    1cac:	24320075 	ldrtcs	r0, [r2], #-117	; 0x75
    1cb0:	9f220075 	svcls	0x00220075
	...
    1cbc:	000000a4 	andeq	r0, r0, r4, lsr #1
    1cc0:	000000a8 	andeq	r0, r0, r8, lsr #1
    1cc4:	00530001 	subseq	r0, r3, r1
    1cc8:	00000000 	andeq	r0, r0, r0
    1ccc:	b4000000 	strlt	r0, [r0], #-0
    1cd0:	d4000000 	strle	r0, [r0], #-0
    1cd4:	01000000 	mrseq	r0, (UNDEF: 0)
    1cd8:	00d45800 	sbcseq	r5, r4, r0, lsl #16
    1cdc:	01340000 	teqeq	r4, r0
    1ce0:	000a0000 	andeq	r0, sl, r0
    1ce4:	24320075 	ldrtcs	r0, [r2], #-117	; 0x75
    1ce8:	24310075 	ldrtcs	r0, [r1], #-117	; 0x75
    1cec:	00009f22 	andeq	r9, r0, r2, lsr #30
    1cf0:	00000000 	andeq	r0, r0, r0
    1cf4:	00c00000 	sbceq	r0, r0, r0
    1cf8:	00d40000 	sbcseq	r0, r4, r0
    1cfc:	00010000 	andeq	r0, r1, r0
    1d00:	0000d458 	andeq	sp, r0, r8, asr r4
    1d04:	00013400 	andeq	r3, r1, r0, lsl #8
    1d08:	75000a00 	strvc	r0, [r0, #-2560]	; 0xa00
    1d0c:	75243200 	strvc	r3, [r4, #-512]!	; 0x200
    1d10:	22243100 	eorcs	r3, r4, #0, 2
    1d14:	0000009f 	muleq	r0, pc, r0	; <UNPREDICTABLE>
    1d18:	00000000 	andeq	r0, r0, r0
    1d1c:	0000c400 	andeq	ip, r0, r0, lsl #8
    1d20:	0000c800 	andeq	ip, r0, r0, lsl #16
    1d24:	53000100 	movwpl	r0, #256	; 0x100
	...
    1d30:	000000d4 	ldrdeq	r0, [r0], -r4
    1d34:	000000f4 	strdeq	r0, [r0], -r4
    1d38:	f4580001 			; <UNDEFINED> instruction: 0xf4580001
    1d3c:	34000000 	strcc	r0, [r0], #-0
    1d40:	0d000001 	stceq	0, cr0, [r0, #-4]
    1d44:	32007500 	andcc	r7, r0, #0, 10
    1d48:	31007524 	tstcc	r0, r4, lsr #10
    1d4c:	00752224 	rsbseq	r2, r5, r4, lsr #4
    1d50:	00009f22 	andeq	r9, r0, r2, lsr #30
    1d54:	00000000 	andeq	r0, r0, r0
    1d58:	00e00000 	rsceq	r0, r0, r0
    1d5c:	00f40000 	rscseq	r0, r4, r0
    1d60:	00010000 	andeq	r0, r1, r0
    1d64:	0000f458 	andeq	pc, r0, r8, asr r4	; <UNPREDICTABLE>
    1d68:	00013400 	andeq	r3, r1, r0, lsl #8
    1d6c:	75000d00 	strvc	r0, [r0, #-3328]	; 0xd00
    1d70:	75243200 	strvc	r3, [r4, #-512]!	; 0x200
    1d74:	22243100 	eorcs	r3, r4, #0, 2
    1d78:	9f220075 	svcls	0x00220075
	...
    1d84:	000000e4 	andeq	r0, r0, r4, ror #1
    1d88:	000000e8 	andeq	r0, r0, r8, ror #1
    1d8c:	00530001 	subseq	r0, r3, r1
    1d90:	00000000 	andeq	r0, r0, r0
    1d94:	f4000000 	vst4.8	{d0-d3}, [r0], r0
    1d98:	14000000 	strne	r0, [r0], #-0
    1d9c:	01000001 	tsteq	r0, r1
    1da0:	01145800 	tsteq	r4, r0, lsl #16
    1da4:	01340000 	teqeq	r4, r0
    1da8:	00050000 	andeq	r0, r5, r0
    1dac:	24330075 	ldrtcs	r0, [r3], #-117	; 0x75
    1db0:	0000009f 	muleq	r0, pc, r0	; <UNPREDICTABLE>
    1db4:	00000000 	andeq	r0, r0, r0
    1db8:	00010000 	andeq	r0, r1, r0
    1dbc:	00011400 	andeq	r1, r1, r0, lsl #8
    1dc0:	58000100 	stmdapl	r0, {r8}
    1dc4:	00000114 	andeq	r0, r0, r4, lsl r1
    1dc8:	00000134 	andeq	r0, r0, r4, lsr r1
    1dcc:	00750005 	rsbseq	r0, r5, r5
    1dd0:	009f2433 	addseq	r2, pc, r3, lsr r4	; <UNPREDICTABLE>
    1dd4:	00000000 	andeq	r0, r0, r0
    1dd8:	04000000 	streq	r0, [r0], #-0
    1ddc:	08000001 	stmdaeq	r0, {r0}
    1de0:	01000001 	tsteq	r0, r1
    1de4:	00005300 	andeq	r5, r0, r0, lsl #6
    1de8:	00000000 	andeq	r0, r0, r0
    1dec:	01140000 	tsteq	r4, r0
    1df0:	011c0000 	tsteq	ip, r0
    1df4:	00060000 	andeq	r0, r6, r0
    1df8:	80080077 	andhi	r0, r8, r7, ror r0
    1dfc:	011c9f1a 	tsteq	ip, sl, lsl pc
    1e00:	011f0000 	tsteq	pc, r0
    1e04:	00010000 	andeq	r0, r1, r0
    1e08:	00011f51 	andeq	r1, r1, r1, asr pc
    1e0c:	00015400 	andeq	r5, r1, r0, lsl #8
    1e10:	77000600 	strvc	r0, [r0, -r0, lsl #12]
    1e14:	1a800800 	bne	fe003e1c <__bss_end__+0xfdff9684>
    1e18:	0000009f 	muleq	r0, pc, r0	; <UNPREDICTABLE>
    1e1c:	00000000 	andeq	r0, r0, r0
    1e20:	00012400 	andeq	r2, r1, r0, lsl #8
    1e24:	00012800 	andeq	r2, r1, r0, lsl #16
    1e28:	53000100 	movwpl	r0, #256	; 0x100
	...
    1e34:	00000144 	andeq	r0, r0, r4, asr #2
    1e38:	00000148 	andeq	r0, r0, r8, asr #2
    1e3c:	00530001 	subseq	r0, r3, r1
    1e40:	00000000 	andeq	r0, r0, r0
    1e44:	54000000 	strpl	r0, [r0], #-0
    1e48:	6b000001 	blvs	1e54 <_start-0x61ac>
    1e4c:	01000001 	tsteq	r0, r1
    1e50:	016b5000 	cmneq	fp, r0
    1e54:	01d00000 	bicseq	r0, r0, r0
    1e58:	00010000 	andeq	r0, r1, r0
    1e5c:	0001d059 	andeq	sp, r1, r9, asr r0
    1e60:	00030c00 	andeq	r0, r3, r0, lsl #24
    1e64:	f3000400 	vshl.u8	d0, d0, d0
    1e68:	0c9f5001 	ldceq	0, cr5, [pc], {1}
    1e6c:	14000003 	strne	r0, [r0], #-3
    1e70:	01000003 	tsteq	r0, r3
    1e74:	03145900 	tsteq	r4, #0, 18
    1e78:	031c0000 	tsteq	ip, #0
    1e7c:	00040000 	andeq	r0, r4, r0
    1e80:	9f5001f3 	svcls	0x005001f3
	...
    1e8c:	00000154 	andeq	r0, r0, r4, asr r1
    1e90:	0000016b 	andeq	r0, r0, fp, ror #2
    1e94:	6b510001 	blvs	1441ea0 <__bss_end__+0x1437708>
    1e98:	1c000001 	stcne	0, cr0, [r0], {1}
    1e9c:	01000003 	tsteq	r0, r3
    1ea0:	00005600 	andeq	r5, r0, r0, lsl #12
    1ea4:	00000000 	andeq	r0, r0, r0
    1ea8:	01a80000 			; <UNDEFINED> instruction: 0x01a80000
    1eac:	02980000 	addseq	r0, r8, #0
    1eb0:	00010000 	andeq	r0, r1, r0
    1eb4:	00000058 	andeq	r0, r0, r8, asr r0
    1eb8:	00000000 	andeq	r0, r0, r0
    1ebc:	0001ac00 	andeq	sl, r1, r0, lsl #24
    1ec0:	0002d000 	andeq	sp, r2, r0
    1ec4:	54000100 	strpl	r0, [r0], #-256	; 0x100
	...
    1ed0:	000001ac 	andeq	r0, r0, ip, lsr #3
    1ed4:	000002d0 	ldrdeq	r0, [r0], -r0	; <UNPREDICTABLE>
    1ed8:	00740005 	rsbseq	r0, r4, r5
    1edc:	009f2531 	addseq	r2, pc, r1, lsr r5	; <UNPREDICTABLE>
    1ee0:	00000000 	andeq	r0, r0, r0
    1ee4:	ac000000 	stcge	0, cr0, [r0], {-0}
    1ee8:	d0000001 	andle	r0, r0, r1
    1eec:	02000001 	andeq	r0, r0, #1
    1ef0:	d09f3000 	addsle	r3, pc, r0
    1ef4:	0c000001 	stceq	0, cr0, [r0], {1}
    1ef8:	01000003 	tsteq	r0, r3
    1efc:	03145900 	tsteq	r4, #0, 18
    1f00:	031c0000 	tsteq	ip, #0
    1f04:	00010000 	andeq	r0, r1, r0
    1f08:	00000059 	andeq	r0, r0, r9, asr r0
    1f0c:	00000000 	andeq	r0, r0, r0
    1f10:	00016800 	andeq	r6, r1, r0, lsl #16
    1f14:	00016b00 	andeq	r6, r1, r0, lsl #22
    1f18:	51000100 	mrspl	r0, (UNDEF: 16)
    1f1c:	0000016b 	andeq	r0, r0, fp, ror #2
    1f20:	0000031c 	andeq	r0, r0, ip, lsl r3
    1f24:	00560001 	subseq	r0, r6, r1
    1f28:	00000000 	andeq	r0, r0, r0
    1f2c:	70000000 	andvc	r0, r0, r0
    1f30:	ac000001 	stcge	0, cr0, [r0], {1}
    1f34:	01000001 	tsteq	r0, r1
    1f38:	030c5400 	movweq	r5, #50176	; 0xc400
    1f3c:	03140000 	tsteq	r4, #0
    1f40:	00010000 	andeq	r0, r1, r0
    1f44:	00000054 	andeq	r0, r0, r4, asr r0
    1f48:	00000000 	andeq	r0, r0, r0
    1f4c:	0001a800 	andeq	sl, r1, r0, lsl #16
    1f50:	0001c400 	andeq	ip, r1, r0, lsl #8
    1f54:	58000100 	stmdapl	r0, {r8}
	...
    1f60:	000001b0 			; <UNDEFINED> instruction: 0x000001b0
    1f64:	000001cb 	andeq	r0, r0, fp, asr #3
    1f68:	cb520001 	blgt	1481f74 <__bss_end__+0x14777dc>
    1f6c:	d0000001 	andle	r0, r0, r1
    1f70:	08000002 	stmdaeq	r0, {r1}
    1f74:	31007400 	tstcc	r0, r0, lsl #8
    1f78:	22007425 	andcs	r7, r0, #620756992	; 0x25000000
    1f7c:	0000009f 	muleq	r0, pc, r0	; <UNPREDICTABLE>
    1f80:	00000000 	andeq	r0, r0, r0
    1f84:	0001b000 	andeq	fp, r1, r0
    1f88:	0001c400 	andeq	ip, r1, r0, lsl #8
    1f8c:	58000100 	stmdapl	r0, {r8}
	...
    1f98:	000001b4 			; <UNDEFINED> instruction: 0x000001b4
    1f9c:	000001b8 			; <UNDEFINED> instruction: 0x000001b8
    1fa0:	00530001 	subseq	r0, r3, r1
    1fa4:	00000000 	andeq	r0, r0, r0
    1fa8:	d0000000 	andle	r0, r0, r0
    1fac:	d0000001 	andle	r0, r0, r1
    1fb0:	01000002 	tsteq	r0, r2
    1fb4:	00005400 	andeq	r5, r0, r0, lsl #8
    1fb8:	00000000 	andeq	r0, r0, r0
    1fbc:	01d00000 	bicseq	r0, r0, r0
    1fc0:	01e40000 	mvneq	r0, r0
    1fc4:	00010000 	andeq	r0, r1, r0
    1fc8:	00000058 	andeq	r0, r0, r8, asr r0
    1fcc:	00000000 	andeq	r0, r0, r0
    1fd0:	0001d400 	andeq	sp, r1, r0, lsl #8
    1fd4:	0001d800 	andeq	sp, r1, r0, lsl #16
    1fd8:	53000100 	movwpl	r0, #256	; 0x100
	...
    1fe4:	000001f4 	strdeq	r0, [r0], -r4
    1fe8:	000002d0 	ldrdeq	r0, [r0], -r0	; <UNPREDICTABLE>
    1fec:	00540001 	subseq	r0, r4, r1
    1ff0:	00000000 	andeq	r0, r0, r0
    1ff4:	f4000000 	vst4.8	{d0-d3}, [r0], r0
    1ff8:	08000001 	stmdaeq	r0, {r0}
    1ffc:	01000002 	tsteq	r0, r2
    2000:	00005800 	andeq	r5, r0, r0, lsl #16
    2004:	00000000 	andeq	r0, r0, r0
    2008:	01f80000 	mvnseq	r0, r0
    200c:	01fc0000 	mvnseq	r0, r0
    2010:	00010000 	andeq	r0, r1, r0
    2014:	00000053 	andeq	r0, r0, r3, asr r0
    2018:	00000000 	andeq	r0, r0, r0
    201c:	00021800 	andeq	r1, r2, r0, lsl #16
    2020:	0002d000 	andeq	sp, r2, r0
    2024:	54000100 	strpl	r0, [r0], #-256	; 0x100
	...
    2030:	00000218 	andeq	r0, r0, r8, lsl r2
    2034:	0000022c 	andeq	r0, r0, ip, lsr #4
    2038:	00580001 	subseq	r0, r8, r1
    203c:	00000000 	andeq	r0, r0, r0
    2040:	1c000000 	stcne	0, cr0, [r0], {-0}
    2044:	20000002 	andcs	r0, r0, r2
    2048:	01000002 	tsteq	r0, r2
    204c:	00005300 	andeq	r5, r0, r0, lsl #6
    2050:	00000000 	andeq	r0, r0, r0
    2054:	023c0000 	eorseq	r0, ip, #0
    2058:	02d00000 	sbcseq	r0, r0, #0
    205c:	00010000 	andeq	r0, r1, r0
    2060:	00000054 	andeq	r0, r0, r4, asr r0
    2064:	00000000 	andeq	r0, r0, r0
    2068:	00023c00 	andeq	r3, r2, r0, lsl #24
    206c:	00025000 	andeq	r5, r2, r0
    2070:	58000100 	stmdapl	r0, {r8}
	...
    207c:	00000240 	andeq	r0, r0, r0, asr #4
    2080:	00000244 	andeq	r0, r0, r4, asr #4
    2084:	00530001 	subseq	r0, r3, r1
    2088:	00000000 	andeq	r0, r0, r0
    208c:	60000000 	andvs	r0, r0, r0
    2090:	d0000002 	andle	r0, r0, r2
    2094:	01000002 	tsteq	r0, r2
    2098:	00005400 	andeq	r5, r0, r0, lsl #8
    209c:	00000000 	andeq	r0, r0, r0
    20a0:	02600000 	rsbeq	r0, r0, #0
    20a4:	02740000 	rsbseq	r0, r4, #0
    20a8:	00010000 	andeq	r0, r1, r0
    20ac:	00000058 	andeq	r0, r0, r8, asr r0
    20b0:	00000000 	andeq	r0, r0, r0
    20b4:	00026400 	andeq	r6, r2, r0, lsl #8
    20b8:	00026800 	andeq	r6, r2, r0, lsl #16
    20bc:	53000100 	movwpl	r0, #256	; 0x100
	...
    20c8:	00000284 	andeq	r0, r0, r4, lsl #5
    20cc:	000002d0 	ldrdeq	r0, [r0], -r0	; <UNPREDICTABLE>
    20d0:	00540001 	subseq	r0, r4, r1
    20d4:	00000000 	andeq	r0, r0, r0
    20d8:	84000000 	strhi	r0, [r0], #-0
    20dc:	98000002 	stmdals	r0, {r1}
    20e0:	01000002 	tsteq	r0, r2
    20e4:	00005800 	andeq	r5, r0, r0, lsl #16
    20e8:	00000000 	andeq	r0, r0, r0
    20ec:	02880000 	addeq	r0, r8, #0
    20f0:	028c0000 	addeq	r0, ip, #0
    20f4:	00010000 	andeq	r0, r1, r0
    20f8:	00000053 	andeq	r0, r0, r3, asr r0
    20fc:	00000000 	andeq	r0, r0, r0
    2100:	0002a800 	andeq	sl, r2, r0, lsl #16
    2104:	0002d000 	andeq	sp, r2, r0
    2108:	54000100 	strpl	r0, [r0], #-256	; 0x100
	...
    2114:	000002ac 	andeq	r0, r0, ip, lsr #5
    2118:	000002b0 			; <UNDEFINED> instruction: 0x000002b0
    211c:	00530001 	subseq	r0, r3, r1
    2120:	00000000 	andeq	r0, r0, r0
    2124:	c8000000 	stmdagt	r0, {}	; <UNPREDICTABLE>
    2128:	0c000002 	stceq	0, cr0, [r0], {2}
    212c:	02000003 	andeq	r0, r0, #3
    2130:	149f3000 	ldrne	r3, [pc], #0	; 2138 <_start-0x5ec8>
    2134:	1c000003 	stcne	0, cr0, [r0], {3}
    2138:	02000003 	andeq	r0, r0, #3
    213c:	009f3000 	addseq	r3, pc, r0
    2140:	00000000 	andeq	r0, r0, r0
    2144:	c8000000 	stmdagt	r0, {}	; <UNPREDICTABLE>
    2148:	0c000002 	stceq	0, cr0, [r0], {2}
    214c:	01000003 	tsteq	r0, r3
    2150:	03145500 	tsteq	r4, #0, 10
    2154:	031c0000 	tsteq	ip, #0
    2158:	00010000 	andeq	r0, r1, r0
    215c:	00000055 	andeq	r0, r0, r5, asr r0
    2160:	00000000 	andeq	r0, r0, r0
    2164:	0002d000 	andeq	sp, r2, r0
    2168:	00030c00 	andeq	r0, r3, r0, lsl #24
    216c:	54000100 	strpl	r0, [r0], #-256	; 0x100
    2170:	00000314 	andeq	r0, r0, r4, lsl r3
    2174:	0000031c 	andeq	r0, r0, ip, lsl r3
    2178:	00540001 	subseq	r0, r4, r1
    217c:	00000000 	andeq	r0, r0, r0
    2180:	1c000000 	stcne	0, cr0, [r0], {-0}
    2184:	3f000003 	svccc	0x00000003
    2188:	01000003 	tsteq	r0, r3
    218c:	033f5000 	teqeq	pc, #0
    2190:	03600000 	cmneq	r0, #0
    2194:	00010000 	andeq	r0, r1, r0
    2198:	00036058 	andeq	r6, r3, r8, asr r0
    219c:	00037000 	andeq	r7, r3, r0
    21a0:	50000100 	andpl	r0, r0, r0, lsl #2
    21a4:	00000370 	andeq	r0, r0, r0, ror r3
    21a8:	000003b0 			; <UNDEFINED> instruction: 0x000003b0
    21ac:	b0580001 	subslt	r0, r8, r1
    21b0:	c0000003 	andgt	r0, r0, r3
    21b4:	04000003 	streq	r0, [r0], #-3
    21b8:	5001f300 	andpl	pc, r1, r0, lsl #6
    21bc:	0000009f 	muleq	r0, pc, r0	; <UNPREDICTABLE>
    21c0:	00000000 	andeq	r0, r0, r0
    21c4:	00031c00 	andeq	r1, r3, r0, lsl #24
    21c8:	00033f00 	andeq	r3, r3, r0, lsl #30
    21cc:	51000100 	mrspl	r0, (UNDEF: 16)
    21d0:	0000033f 	andeq	r0, r0, pc, lsr r3
    21d4:	00000360 	andeq	r0, r0, r0, ror #6
    21d8:	60560001 	subsvs	r0, r6, r1
    21dc:	70000003 	andvc	r0, r0, r3
    21e0:	01000003 	tsteq	r0, r3
    21e4:	03705100 	cmneq	r0, #0, 2
    21e8:	03b00000 	movseq	r0, #0
    21ec:	00010000 	andeq	r0, r1, r0
    21f0:	0003b056 	andeq	fp, r3, r6, asr r0
    21f4:	0003c000 	andeq	ip, r3, r0
    21f8:	f3000400 	vshl.u8	d0, d0, d0
    21fc:	009f5101 	addseq	r5, pc, r1, lsl #2
    2200:	00000000 	andeq	r0, r0, r0
    2204:	1c000000 	stcne	0, cr0, [r0], {-0}
    2208:	3f000003 	svccc	0x00000003
    220c:	01000003 	tsteq	r0, r3
    2210:	033f5200 	teqeq	pc, #0, 4
    2214:	03600000 	cmneq	r0, #0
    2218:	00040000 	andeq	r0, r4, r0
    221c:	9f5201f3 	svcls	0x005201f3
    2220:	00000360 	andeq	r0, r0, r0, ror #6
    2224:	00000370 	andeq	r0, r0, r0, ror r3
    2228:	70520001 	subsvc	r0, r2, r1
    222c:	b0000003 	andlt	r0, r0, r3
    2230:	03000003 	movweq	r0, #3
    2234:	9f017700 	svcls	0x00017700
    2238:	000003b0 			; <UNDEFINED> instruction: 0x000003b0
    223c:	000003c0 	andeq	r0, r0, r0, asr #7
    2240:	01f30004 	mvnseq	r0, r4
    2244:	00009f52 	andeq	r9, r0, r2, asr pc
    2248:	00000000 	andeq	r0, r0, r0
    224c:	031c0000 	tsteq	ip, #0
    2250:	033f0000 	teqeq	pc, #0
    2254:	00010000 	andeq	r0, r1, r0
    2258:	00033f53 	andeq	r3, r3, r3, asr pc
    225c:	00036000 	andeq	r6, r3, r0
    2260:	f3000400 	vshl.u8	d0, d0, d0
    2264:	609f5301 	addsvs	r5, pc, r1, lsl #6
    2268:	70000003 	andvc	r0, r0, r3
    226c:	01000003 	tsteq	r0, r3
    2270:	03705300 	cmneq	r0, #0, 6
    2274:	03c00000 	biceq	r0, r0, #0
    2278:	00040000 	andeq	r0, r4, r0
    227c:	9f5301f3 	svcls	0x005301f3
	...
    2288:	00000368 	andeq	r0, r0, r8, ror #6
    228c:	00000370 	andeq	r0, r0, r0, ror r3
    2290:	9f300002 	svcls	0x00300002
    2294:	00000370 	andeq	r0, r0, r0, ror r3
    2298:	000003b0 			; <UNDEFINED> instruction: 0x000003b0
    229c:	b0540001 	subslt	r0, r4, r1
    22a0:	c0000003 	andgt	r0, r0, r3
    22a4:	01000003 	tsteq	r0, r3
    22a8:	00005000 	andeq	r5, r0, r0
    22ac:	00000000 	andeq	r0, r0, r0
    22b0:	03800000 	orreq	r0, r0, #0
    22b4:	03900000 	orrseq	r0, r0, #0
    22b8:	00010000 	andeq	r0, r1, r0
    22bc:	00000050 	andeq	r0, r0, r0, asr r0
    22c0:	00000000 	andeq	r0, r0, r0
    22c4:	0003c000 	andeq	ip, r3, r0
    22c8:	0003df00 	andeq	sp, r3, r0, lsl #30
    22cc:	50000100 	andpl	r0, r0, r0, lsl #2
    22d0:	000003df 	ldrdeq	r0, [r0], -pc	; <UNPREDICTABLE>
    22d4:	00000400 	andeq	r0, r0, r0, lsl #8
    22d8:	00570001 	subseq	r0, r7, r1
    22dc:	10000004 	andne	r0, r0, r4
    22e0:	01000004 	tsteq	r0, r4
    22e4:	04105000 	ldreq	r5, [r0], #-0
    22e8:	04400000 	strbeq	r0, [r0], #-0
    22ec:	00010000 	andeq	r0, r1, r0
    22f0:	00044057 	andeq	r4, r4, r7, asr r0
    22f4:	00045000 	andeq	r5, r4, r0
    22f8:	f3000400 	vshl.u8	d0, d0, d0
    22fc:	009f5001 	addseq	r5, pc, r1
    2300:	00000000 	andeq	r0, r0, r0
    2304:	c0000000 	andgt	r0, r0, r0
    2308:	df000003 	svcle	0x00000003
    230c:	01000003 	tsteq	r0, r3
    2310:	03df5100 	bicseq	r5, pc, #0, 2
    2314:	04000000 	streq	r0, [r0], #-0
    2318:	00010000 	andeq	r0, r1, r0
    231c:	00040055 	andeq	r0, r4, r5, asr r0
    2320:	00041000 	andeq	r1, r4, r0
    2324:	51000100 	mrspl	r0, (UNDEF: 16)
    2328:	00000410 	andeq	r0, r0, r0, lsl r4
    232c:	00000440 	andeq	r0, r0, r0, asr #8
    2330:	40550001 	subsmi	r0, r5, r1
    2334:	50000004 	andpl	r0, r0, r4
    2338:	04000004 	streq	r0, [r0], #-4
    233c:	5101f300 	mrspl	pc, SP_irq	; <UNPREDICTABLE>
    2340:	0000009f 	muleq	r0, pc, r0	; <UNPREDICTABLE>
    2344:	00000000 	andeq	r0, r0, r0
    2348:	0003c000 	andeq	ip, r3, r0
    234c:	0003df00 	andeq	sp, r3, r0, lsl #30
    2350:	52000100 	andpl	r0, r0, #0, 2
    2354:	000003df 	ldrdeq	r0, [r0], -pc	; <UNPREDICTABLE>
    2358:	00000400 	andeq	r0, r0, r0, lsl #8
    235c:	01f30004 	mvnseq	r0, r4
    2360:	04009f52 	streq	r9, [r0], #-3922	; 0xf52
    2364:	04100000 	ldreq	r0, [r0], #-0
    2368:	00010000 	andeq	r0, r1, r0
    236c:	00041052 	andeq	r1, r4, r2, asr r0
    2370:	00044000 	andeq	r4, r4, r0
    2374:	76000300 	strvc	r0, [r0], -r0, lsl #6
    2378:	04409f01 	strbeq	r9, [r0], #-3841	; 0xf01
    237c:	04500000 	ldrbeq	r0, [r0], #-0
    2380:	00040000 	andeq	r0, r4, r0
    2384:	9f5201f3 	svcls	0x005201f3
	...
    2390:	000003c0 	andeq	r0, r0, r0, asr #7
    2394:	000003df 	ldrdeq	r0, [r0], -pc	; <UNPREDICTABLE>
    2398:	df530001 	svcle	0x00530001
    239c:	00000003 	andeq	r0, r0, r3
    23a0:	01000004 	tsteq	r0, r4
    23a4:	04005800 	streq	r5, [r0], #-2048	; 0x800
    23a8:	04100000 	ldreq	r0, [r0], #-0
    23ac:	00010000 	andeq	r0, r1, r0
    23b0:	00041053 	andeq	r1, r4, r3, asr r0
    23b4:	00044000 	andeq	r4, r4, r0
    23b8:	58000100 	stmdapl	r0, {r8}
    23bc:	00000440 	andeq	r0, r0, r0, asr #8
    23c0:	00000450 	andeq	r0, r0, r0, asr r4
    23c4:	01f30004 	mvnseq	r0, r4
    23c8:	00009f53 	andeq	r9, r0, r3, asr pc
    23cc:	00000000 	andeq	r0, r0, r0
    23d0:	04080000 	streq	r0, [r8], #-0
    23d4:	04100000 	ldreq	r0, [r0], #-0
    23d8:	00020000 	andeq	r0, r2, r0
    23dc:	04109f30 	ldreq	r9, [r0], #-3888	; 0xf30
    23e0:	04400000 	strbeq	r0, [r0], #-0
    23e4:	00010000 	andeq	r0, r1, r0
    23e8:	00044054 	andeq	r4, r4, r4, asr r0
    23ec:	00045000 	andeq	r5, r4, r0
    23f0:	50000100 	andpl	r0, r0, r0, lsl #2
	...
    23fc:	00000450 	andeq	r0, r0, r0, asr r4
    2400:	00000473 	andeq	r0, r0, r3, ror r4
    2404:	73510001 	cmpvc	r1, #1
    2408:	24000004 	strcs	r0, [r0], #-4
    240c:	04000005 	streq	r0, [r0], #-5
    2410:	5101f300 	mrspl	pc, SP_irq	; <UNPREDICTABLE>
    2414:	0000009f 	muleq	r0, pc, r0	; <UNPREDICTABLE>
    2418:	00000000 	andeq	r0, r0, r0
    241c:	00045000 	andeq	r5, r4, r0
    2420:	00047300 	andeq	r7, r4, r0, lsl #6
    2424:	52000100 	andpl	r0, r0, #0, 2
    2428:	00000473 	andeq	r0, r0, r3, ror r4
    242c:	00000524 	andeq	r0, r0, r4, lsr #10
    2430:	01f30004 	mvnseq	r0, r4
    2434:	00009f52 	andeq	r9, r0, r2, asr pc
    2438:	00000000 	andeq	r0, r0, r0
    243c:	04500000 	ldrbeq	r0, [r0], #-0
    2440:	04730000 	ldrbteq	r0, [r3], #-0
    2444:	00010000 	andeq	r0, r1, r0
    2448:	00047353 	andeq	r7, r4, r3, asr r3
    244c:	00051000 	andeq	r1, r5, r0
    2450:	55000100 	strpl	r0, [r0, #-256]	; 0x100
    2454:	00000510 	andeq	r0, r0, r0, lsl r5
    2458:	00000524 	andeq	r0, r0, r4, lsr #10
    245c:	04700002 	ldrbteq	r0, [r0], #-2
	...
    2468:	00000494 	muleq	r0, r4, r4
    246c:	000004d3 	ldrdeq	r0, [r0], -r3
    2470:	d3520001 	cmple	r2, #1
    2474:	f4000004 	vst4.8	{d0-d3}, [r0], r4
    2478:	06000004 	streq	r0, [r0], -r4
    247c:	77007500 	strvc	r7, [r0, -r0, lsl #10]
    2480:	f49f1e00 			; <UNDEFINED> instruction: 0xf49f1e00
    2484:	24000004 	strcs	r0, [r0], #-4
    2488:	01000005 	tsteq	r0, r5
    248c:	00005200 	andeq	r5, r0, r0, lsl #4
    2490:	00000000 	andeq	r0, r0, r0
    2494:	05240000 	streq	r0, [r4, #-0]!
    2498:	052f0000 	streq	r0, [pc, #-0]!	; 24a0 <_start-0x5b60>
    249c:	00010000 	andeq	r0, r1, r0
    24a0:	00052f50 	andeq	r2, r5, r0, asr pc
    24a4:	00056000 	andeq	r6, r5, r0
    24a8:	f3000400 	vshl.u8	d0, d0, d0
    24ac:	009f5001 	addseq	r5, pc, r1
    24b0:	00000000 	andeq	r0, r0, r0
    24b4:	30000000 	andcc	r0, r0, r0
    24b8:	3b000005 	blcc	24d4 <_start-0x5b2c>
    24bc:	01000005 	tsteq	r0, r5
    24c0:	00005000 	andeq	r5, r0, r0
    24c4:	00000000 	andeq	r0, r0, r0
    24c8:	05600000 	strbeq	r0, [r0, #-0]!
    24cc:	05700000 	ldrbeq	r0, [r0, #-0]!
    24d0:	00010000 	andeq	r0, r1, r0
    24d4:	00057050 	andeq	r7, r5, r0, asr r0
    24d8:	00058c00 	andeq	r8, r5, r0, lsl #24
    24dc:	55000100 	strpl	r0, [r0, #-256]	; 0x100
	...
    24e8:	00000560 	andeq	r0, r0, r0, ror #10
    24ec:	00000570 	andeq	r0, r0, r0, ror r5
    24f0:	70510001 	subsvc	r0, r1, r1
    24f4:	8c000005 	stchi	0, cr0, [r0], {5}
    24f8:	01000005 	tsteq	r0, r5
    24fc:	00005400 	andeq	r5, r0, r0, lsl #8
    2500:	00000000 	andeq	r0, r0, r0
    2504:	058c0000 	streq	r0, [ip]
    2508:	05a80000 	streq	r0, [r8, #0]!
    250c:	00010000 	andeq	r0, r1, r0
    2510:	0005a850 	andeq	sl, r5, r0, asr r8
    2514:	00060000 	andeq	r0, r6, r0
    2518:	55000100 	strpl	r0, [r0, #-256]	; 0x100
    251c:	00000600 	andeq	r0, r0, r0, lsl #12
    2520:	0000061c 	andeq	r0, r0, ip, lsl r6
    2524:	01f30004 	mvnseq	r0, r4
    2528:	00009f50 	andeq	r9, r0, r0, asr pc
    252c:	00000000 	andeq	r0, r0, r0
    2530:	05b80000 	ldreq	r0, [r8, #0]!
    2534:	05c70000 	strbeq	r0, [r7]
    2538:	00010000 	andeq	r0, r1, r0
    253c:	0005c750 	andeq	ip, r5, r0, asr r7
    2540:	0005e800 	andeq	lr, r5, r0, lsl #16
    2544:	54000100 	strpl	r0, [r0], #-256	; 0x100
    2548:	000005e8 	andeq	r0, r0, r8, ror #11
    254c:	000005ec 	andeq	r0, r0, ip, ror #11
    2550:	ec500001 	mrrc	0, 0, r0, r0, cr1	; <UNPREDICTABLE>
    2554:	00000005 	andeq	r0, r0, r5
    2558:	01000006 	tsteq	r0, r6
    255c:	06005400 	streq	r5, [r0], -r0, lsl #8
    2560:	061c0000 	ldreq	r0, [ip], -r0
    2564:	00010000 	andeq	r0, r1, r0
    2568:	00000050 	andeq	r0, r0, r0, asr r0
    256c:	00000000 	andeq	r0, r0, r0
    2570:	00061c00 	andeq	r1, r6, r0, lsl #24
    2574:	00062f00 	andeq	r2, r6, r0, lsl #30
    2578:	50000100 	andpl	r0, r0, r0, lsl #2
    257c:	0000062f 	andeq	r0, r0, pc, lsr #12
    2580:	00000668 	andeq	r0, r0, r8, ror #12
    2584:	01f30004 	mvnseq	r0, r4
    2588:	00009f50 	andeq	r9, r0, r0, asr pc
    258c:	00000000 	andeq	r0, r0, r0
    2590:	061c0000 	ldreq	r0, [ip], -r0
    2594:	062f0000 	strteq	r0, [pc], -r0
    2598:	00010000 	andeq	r0, r1, r0
    259c:	00062f51 	andeq	r2, r6, r1, asr pc
    25a0:	00066800 	andeq	r6, r6, r0, lsl #16
    25a4:	f3000400 	vshl.u8	d0, d0, d0
    25a8:	009f5101 	addseq	r5, pc, r1, lsl #2
    25ac:	00000000 	andeq	r0, r0, r0
    25b0:	1c000000 	stcne	0, cr0, [r0], {-0}
    25b4:	2f000006 	svccs	0x00000006
    25b8:	01000006 	tsteq	r0, r6
    25bc:	062f5200 	strteq	r5, [pc], -r0, lsl #4
    25c0:	06680000 	strbteq	r0, [r8], -r0
    25c4:	00040000 	andeq	r0, r4, r0
    25c8:	9f5201f3 	svcls	0x005201f3
	...
    25d4:	0000061c 	andeq	r0, r0, ip, lsl r6
    25d8:	0000062f 	andeq	r0, r0, pc, lsr #12
    25dc:	2f530001 	svccs	0x00530001
    25e0:	68000006 	stmdavs	r0, {r1, r2}
    25e4:	04000006 	streq	r0, [r0], #-6
    25e8:	5301f300 	movwpl	pc, #4864	; 0x1300	; <UNPREDICTABLE>
    25ec:	0000009f 	muleq	r0, pc, r0	; <UNPREDICTABLE>
    25f0:	00000000 	andeq	r0, r0, r0
    25f4:	00063000 	andeq	r3, r6, r0
    25f8:	00063b00 	andeq	r3, r6, r0, lsl #22
    25fc:	50000100 	andpl	r0, r0, r0, lsl #2
    2600:	00000654 	andeq	r0, r0, r4, asr r6
    2604:	00000668 	andeq	r0, r0, r8, ror #12
    2608:	00500001 	subseq	r0, r0, r1
    260c:	00000000 	andeq	r0, r0, r0
    2610:	fc000000 	stc2	0, cr0, [r0], {-0}
    2614:	04000000 	streq	r0, [r0], #-0
    2618:	01000001 	tsteq	r0, r1
    261c:	01045000 	mrseq	r5, (UNDEF: 4)
    2620:	01280000 	teqeq	r8, r0
    2624:	00010000 	andeq	r0, r1, r0
    2628:	00000054 	andeq	r0, r0, r4, asr r0
    262c:	00000000 	andeq	r0, r0, r0
    2630:	00003000 	andeq	r3, r0, r0
    2634:	00003c00 	andeq	r3, r0, r0, lsl #24
    2638:	30000200 	andcc	r0, r0, r0, lsl #4
    263c:	00003c9f 	muleq	r0, pc, ip	; <UNPREDICTABLE>
    2640:	00006800 	andeq	r6, r0, r0, lsl #16
    2644:	53000100 	movwpl	r0, #256	; 0x100
	...
    2650:	00000068 	andeq	r0, r0, r8, rrx
    2654:	00000077 	andeq	r0, r0, r7, ror r0
    2658:	77500001 	ldrbvc	r0, [r0, -r1]
    265c:	ac000000 	stcge	0, cr0, [r0], {-0}
    2660:	01000000 	mrseq	r0, (UNDEF: 0)
    2664:	00005400 	andeq	r5, r0, r0, lsl #8
	...
    2670:	000f0000 	andeq	r0, pc, r0
    2674:	00010000 	andeq	r0, r1, r0
    2678:	00000f50 	andeq	r0, r0, r0, asr pc
    267c:	00004400 	andeq	r4, r0, r0, lsl #8
    2680:	54000100 	strpl	r0, [r0], #-256	; 0x100
	...
    2690:	0000000f 	andeq	r0, r0, pc
    2694:	0f500001 	svceq	0x00500001
    2698:	44000000 	strmi	r0, [r0], #-0
    269c:	01000000 	mrseq	r0, (UNDEF: 0)
    26a0:	00005400 	andeq	r5, r0, r0, lsl #8
	...
    26ac:	000f0000 	andeq	r0, pc, r0
    26b0:	00010000 	andeq	r0, r1, r0
    26b4:	00000f50 	andeq	r0, r0, r0, asr pc
    26b8:	00004400 	andeq	r4, r0, r0, lsl #8
    26bc:	54000100 	strpl	r0, [r0], #-256	; 0x100
	...
    26cc:	0000000f 	andeq	r0, r0, pc
    26d0:	0f500001 	svceq	0x00500001
    26d4:	44000000 	strmi	r0, [r0], #-0
    26d8:	01000000 	mrseq	r0, (UNDEF: 0)
    26dc:	00005400 	andeq	r5, r0, r0, lsl #8
	...
    26e8:	00040000 	andeq	r0, r4, r0
    26ec:	00010000 	andeq	r0, r1, r0
    26f0:	00000452 	andeq	r0, r0, r2, asr r4
    26f4:	00002000 	andeq	r2, r0, r0
    26f8:	f3000400 	vshl.u8	d0, d0, d0
    26fc:	009f5201 	addseq	r5, pc, r1, lsl #4
	...
    2708:	0c000000 	stceq	0, cr0, [r0], {-0}
    270c:	01000000 	mrseq	r0, (UNDEF: 0)
    2710:	000c5000 	andeq	r5, ip, r0
    2714:	00140000 	andseq	r0, r4, r0
    2718:	00030000 	andeq	r0, r3, r0
    271c:	149f0173 	ldrne	r0, [pc], #371	; 2724 <_start-0x58dc>
    2720:	20000000 	andcs	r0, r0, r0
    2724:	01000000 	mrseq	r0, (UNDEF: 0)
    2728:	00005300 	andeq	r5, r0, r0, lsl #6
    272c:	00000000 	andeq	r0, r0, r0
	...

Disassembly of section .debug_aranges:

00000000 <.debug_aranges>:
   0:	0000001c 	andeq	r0, r0, ip, lsl r0
   4:	00000002 	andeq	r0, r0, r2
   8:	00040000 	andeq	r0, r4, r0
   c:	00000000 	andeq	r0, r0, r0
  10:	00008010 	andeq	r8, r0, r0, lsl r0
  14:	000005bc 			; <UNDEFINED> instruction: 0x000005bc
	...
  20:	0000001c 	andeq	r0, r0, ip, lsl r0
  24:	0c4f0002 	mcrreq	0, 0, r0, pc, cr2
  28:	00040000 	andeq	r0, r4, r0
  2c:	00000000 	andeq	r0, r0, r0
  30:	000085cc 	andeq	r8, r0, ip, asr #11
  34:	00000058 	andeq	r0, r0, r8, asr r0
	...
  40:	0000001c 	andeq	r0, r0, ip, lsl r0
  44:	0de40002 	stcleq	0, cr0, [r4, #8]!
  48:	00040000 	andeq	r0, r4, r0
  4c:	00000000 	andeq	r0, r0, r0
  50:	00008624 	andeq	r8, r0, r4, lsr #12
  54:	0000003c 	andeq	r0, r0, ip, lsr r0
	...
  60:	0000001c 	andeq	r0, r0, ip, lsl r0
  64:	0efb0002 	cdpeq	0, 15, cr0, cr11, cr2, {0}
  68:	00040000 	andeq	r0, r4, r0
  6c:	00000000 	andeq	r0, r0, r0
  70:	00008660 	andeq	r8, r0, r0, ror #12
  74:	00000034 	andeq	r0, r0, r4, lsr r0
	...
  80:	0000001c 	andeq	r0, r0, ip, lsl r0
  84:	0fed0002 	svceq	0x00ed0002
  88:	00040000 	andeq	r0, r4, r0
  8c:	00000000 	andeq	r0, r0, r0
  90:	00008694 	muleq	r0, r4, r6
  94:	00000524 	andeq	r0, r0, r4, lsr #10
	...
  a0:	0000001c 	andeq	r0, r0, ip, lsl r0
  a4:	16920002 	ldrne	r0, [r2], r2
  a8:	00040000 	andeq	r0, r4, r0
  ac:	00000000 	andeq	r0, r0, r0
  b0:	00008bb8 			; <UNDEFINED> instruction: 0x00008bb8
  b4:	00000020 	andeq	r0, r0, r0, lsr #32
	...
  c0:	0000001c 	andeq	r0, r0, ip, lsl r0
  c4:	174e0002 	strbne	r0, [lr, -r2]
  c8:	00040000 	andeq	r0, r4, r0
  cc:	00000000 	andeq	r0, r0, r0
  d0:	00008bd8 	ldrdeq	r8, [r0], -r8	; <UNPREDICTABLE>
  d4:	00000028 	andeq	r0, r0, r8, lsr #32
	...
  e0:	0000001c 	andeq	r0, r0, ip, lsl r0
  e4:	18510002 	ldmdane	r1, {r1}^
  e8:	00040000 	andeq	r0, r4, r0
  ec:	00000000 	andeq	r0, r0, r0
  f0:	00008c00 	andeq	r8, r0, r0, lsl #24
  f4:	000000b0 	strheq	r0, [r0], -r0	; <UNPREDICTABLE>
	...
 100:	0000001c 	andeq	r0, r0, ip, lsl r0
 104:	1b320002 	blne	c80114 <__bss_end__+0xc7597c>
 108:	00040000 	andeq	r0, r4, r0
 10c:	00000000 	andeq	r0, r0, r0
 110:	00008cb0 			; <UNDEFINED> instruction: 0x00008cb0
 114:	00000074 	andeq	r0, r0, r4, ror r0
	...
 120:	0000001c 	andeq	r0, r0, ip, lsl r0
 124:	1ce30002 	stclne	0, cr0, [r3], #8
 128:	00040000 	andeq	r0, r4, r0
 12c:	00000000 	andeq	r0, r0, r0
 130:	00008d24 	andeq	r8, r0, r4, lsr #26
 134:	00000088 	andeq	r0, r0, r8, lsl #1
	...
 140:	0000001c 	andeq	r0, r0, ip, lsl r0
 144:	1ebf0002 	cdpne	0, 11, cr0, cr15, cr2, {0}
 148:	00040000 	andeq	r0, r4, r0
 14c:	00000000 	andeq	r0, r0, r0
 150:	00008dac 	andeq	r8, r0, ip, lsr #27
 154:	000005a0 	andeq	r0, r0, r0, lsr #11
	...
 160:	0000001c 	andeq	r0, r0, ip, lsl r0
 164:	27450002 	strbcs	r0, [r5, -r2]
 168:	00040000 	andeq	r0, r4, r0
 16c:	00000000 	andeq	r0, r0, r0
 170:	0000934c 	andeq	r9, r0, ip, asr #6
 174:	00000668 	andeq	r0, r0, r8, ror #12
	...
 180:	0000001c 	andeq	r0, r0, ip, lsl r0
 184:	393b0002 	ldmdbcc	fp!, {r1}
 188:	00040000 	andeq	r0, r4, r0
 18c:	00000000 	andeq	r0, r0, r0
 190:	000099b4 			; <UNDEFINED> instruction: 0x000099b4
 194:	00000154 	andeq	r0, r0, r4, asr r1
	...
 1a0:	0000001c 	andeq	r0, r0, ip, lsl r0
 1a4:	3d3e0002 	ldccc	0, cr0, [lr, #-8]!
 1a8:	00040000 	andeq	r0, r4, r0
 1ac:	00000000 	andeq	r0, r0, r0
 1b0:	00009b08 	andeq	r9, r0, r8, lsl #22
 1b4:	000000ac 	andeq	r0, r0, ip, lsr #1
	...
 1c0:	0000001c 	andeq	r0, r0, ip, lsl r0
 1c4:	3fdd0002 	svccc	0x00dd0002
 1c8:	00040000 	andeq	r0, r4, r0
 1cc:	00000000 	andeq	r0, r0, r0
 1d0:	00009d04 	andeq	r9, r0, r4, lsl #26
 1d4:	00000050 	andeq	r0, r0, r0, asr r0
	...
 1e0:	0000001c 	andeq	r0, r0, ip, lsl r0
 1e4:	41a40002 			; <UNDEFINED> instruction: 0x41a40002
 1e8:	00040000 	andeq	r0, r4, r0
 1ec:	00000000 	andeq	r0, r0, r0
 1f0:	00009d54 	andeq	r9, r0, r4, asr sp
 1f4:	00000044 	andeq	r0, r0, r4, asr #32
	...
 200:	0000001c 	andeq	r0, r0, ip, lsl r0
 204:	42e60002 	rscmi	r0, r6, #2
 208:	00040000 	andeq	r0, r4, r0
 20c:	00000000 	andeq	r0, r0, r0
 210:	00009d98 	muleq	r0, r8, sp
 214:	00000044 	andeq	r0, r0, r4, asr #32
	...
 220:	0000001c 	andeq	r0, r0, ip, lsl r0
 224:	44280002 	strtmi	r0, [r8], #-2
 228:	00040000 	andeq	r0, r4, r0
 22c:	00000000 	andeq	r0, r0, r0
 230:	00009ddc 	ldrdeq	r9, [r0], -ip
 234:	00000044 	andeq	r0, r0, r4, asr #32
	...
 240:	0000001c 	andeq	r0, r0, ip, lsl r0
 244:	456a0002 	strbmi	r0, [sl, #-2]!
 248:	00040000 	andeq	r0, r4, r0
 24c:	00000000 	andeq	r0, r0, r0
 250:	00009e20 	andeq	r9, r0, r0, lsr #28
 254:	00000044 	andeq	r0, r0, r4, asr #32
	...
 260:	0000001c 	andeq	r0, r0, ip, lsl r0
 264:	46ac0002 	strtmi	r0, [ip], r2
 268:	00040000 	andeq	r0, r4, r0
 26c:	00000000 	andeq	r0, r0, r0
 270:	00009e64 	andeq	r9, r0, r4, ror #28
 274:	00000020 	andeq	r0, r0, r0, lsr #32
	...

Disassembly of section .debug_line:

00000000 <.debug_line>:
       0:	000002fb 	strdeq	r0, [r0], -fp
       4:	01ab0002 			; <UNDEFINED> instruction: 0x01ab0002
       8:	01020000 	mrseq	r0, (UNDEF: 2)
       c:	000d0efb 	strdeq	r0, [sp], -fp
      10:	01010101 	tsteq	r1, r1, lsl #2
      14:	01000000 	mrseq	r0, (UNDEF: 0)
      18:	2f010000 	svccs	0x00010000
      1c:	72657355 	rsbvc	r7, r5, #1409286145	; 0x54000001
      20:	72622f73 	rsbvc	r2, r2, #460	; 0x1cc
      24:	6a6e6169 	bvs	1b985d0 <__bss_end__+0x1b8de38>
      28:	442f6e75 	strtmi	r6, [pc], #-3701	; 30 <_start-0x7fd0>
      2c:	746b7365 	strbtvc	r7, [fp], #-869	; 0x365
      30:	732f706f 	teqvc	pc, #111	; 0x6f
      34:	6f6f6863 	svcvs	0x006f6863
      38:	69572f6c 	ldmdbvs	r7, {r2, r3, r5, r6, r8, r9, sl, fp, sp}^
      3c:	7265746e 	rsbvc	r7, r5, #1845493760	; 0x6e000000
      40:	30323931 	eorscc	r3, r2, r1, lsr r9
      44:	3153432f 	cmpcc	r3, pc, lsr #6
      48:	2f453034 	svccs	0x00453034
      4c:	34317363 	ldrtcc	r7, [r1], #-867	; 0x363
      50:	322d6530 	eorcc	r6, sp, #48, 10	; 0xc000000
      54:	6e697730 	mcrvs	7, 3, r7, cr9, cr0, {1}
      58:	62696c2f 	rsbvs	r6, r9, #12032	; 0x2f00
      5c:	632f6970 	teqvs	pc, #112, 18	; 0x1c0000
      60:	30343173 	eorscc	r3, r4, r3, ror r1
      64:	72732d65 	rsbsvc	r2, r3, #6464	; 0x1940
      68:	552f0063 	strpl	r0, [pc, #-99]!	; d <_start-0x7ff3>
      6c:	73726573 	cmnvc	r2, #482344960	; 0x1cc00000
      70:	6972622f 	ldmdbvs	r2!, {r0, r1, r2, r3, r5, r9, sp, lr}^
      74:	756a6e61 	strbvc	r6, [sl, #-3681]!	; 0xe61
      78:	65442f6e 	strbvs	r2, [r4, #-3950]	; 0xf6e
      7c:	6f746b73 	svcvs	0x00746b73
      80:	63732f70 	cmnvs	r3, #112, 30	; 0x1c0
      84:	6c6f6f68 	stclvs	15, cr6, [pc], #-416	; fffffeec <__bss_end__+0xffff5754>
      88:	6e69572f 	cdpvs	7, 6, cr5, cr9, cr15, {1}
      8c:	31726574 	cmncc	r2, r4, ror r5
      90:	2f303239 	svccs	0x00303239
      94:	34315343 	ldrtcc	r5, [r1], #-835	; 0x343
      98:	632f4530 	teqvs	pc, #48, 10	; 0xc000000
      9c:	30343173 	eorscc	r3, r4, r3, ror r1
      a0:	30322d65 	eorscc	r2, r2, r5, ror #26
      a4:	2f6e6977 	svccs	0x006e6977
      a8:	7062696c 	rsbvc	r6, r2, ip, ror #18
      ac:	73632f69 	cmnvc	r3, #420	; 0x1a4
      b0:	65303431 	ldrvs	r3, [r0, #-1073]!	; 0x431
      b4:	746e692d 	strbtvc	r6, [lr], #-2349	; 0x92d
      b8:	75727265 	ldrbvc	r7, [r2, #-613]!	; 0x265
      bc:	2f007470 	svccs	0x00007470
      c0:	72657355 	rsbvc	r7, r5, #1409286145	; 0x54000001
      c4:	72622f73 	rsbvc	r2, r2, #460	; 0x1cc
      c8:	6a6e6169 	bvs	1b98674 <__bss_end__+0x1b8dedc>
      cc:	442f6e75 	strtmi	r6, [pc], #-3701	; d4 <_start-0x7f2c>
      d0:	746b7365 	strbtvc	r7, [fp], #-869	; 0x365
      d4:	732f706f 	teqvc	pc, #111	; 0x6f
      d8:	6f6f6863 	svcvs	0x006f6863
      dc:	69572f6c 	ldmdbvs	r7, {r2, r3, r5, r6, r8, r9, sl, fp, sp}^
      e0:	7265746e 	rsbvc	r7, r5, #1845493760	; 0x6e000000
      e4:	30323931 	eorscc	r3, r2, r1, lsr r9
      e8:	3153432f 	cmpcc	r3, pc, lsr #6
      ec:	2f453034 	svccs	0x00453034
      f0:	34317363 	ldrtcc	r7, [r1], #-867	; 0x363
      f4:	322d6530 	eorcc	r6, sp, #48, 10	; 0xc000000
      f8:	6e697730 	mcrvs	7, 3, r7, cr9, cr0, {1}
      fc:	62696c2f 	rsbvs	r6, r9, #12032	; 0x2f00
     100:	2f006970 	svccs	0x00006970
     104:	2f727375 	svccs	0x00727375
     108:	61636f6c 	cmnvs	r3, ip, ror #30
     10c:	65432f6c 	strbvs	r2, [r3, #-3948]	; 0xf6c
     110:	72616c6c 	rsbvc	r6, r1, #108, 24	; 0x6c00
     114:	6d72612f 	ldfvse	f6, [r2, #-188]!	; 0xffffff44
     118:	6e6f6e2d 	cdpvs	14, 6, cr6, cr15, cr13, {1}
     11c:	61652d65 	cmnvs	r5, r5, ror #26
     120:	342f6962 	strtcc	r6, [pc], #-2402	; 128 <_start-0x7ed8>
     124:	332e382e 	teqcc	lr, #3014656	; 0x2e0000
     128:	3173632d 	cmncc	r3, sp, lsr #6
     12c:	2f653037 	svccs	0x00653037
     130:	2f62696c 	svccs	0x0062696c
     134:	2f636367 	svccs	0x00636367
     138:	2d6d7261 	sfmcs	f7, 2, [sp, #-388]!	; 0xfffffe7c
     13c:	656e6f6e 	strbvs	r6, [lr, #-3950]!	; 0xf6e
     140:	6261652d 	rsbvs	r6, r1, #188743680	; 0xb400000
     144:	2e342f69 	cdpcs	15, 3, cr2, cr4, cr9, {3}
     148:	2f332e38 	svccs	0x00332e38
     14c:	6c636e69 	stclvs	14, cr6, [r3], #-420	; 0xfffffe5c
     150:	00656475 	rsbeq	r6, r5, r5, ror r4
     154:	6c2d3200 	sfmvs	f3, 4, [sp], #-0
     158:	6369676f 	cmnvs	r9, #29097984	; 0x1bc0000
     15c:	616e612d 	cmnvs	lr, sp, lsr #2
     160:	657a796c 	ldrbvs	r7, [sl, #-2412]!	; 0x96c
     164:	00632e72 	rsbeq	r2, r3, r2, ror lr
     168:	67000000 	strvs	r0, [r0, -r0]
     16c:	2e6f6970 	mcrcs	9, 3, r6, cr15, cr0, {3}
     170:	00010068 	andeq	r0, r1, r8, rrx
     174:	69707200 	ldmdbvs	r0!, {r9, ip, sp, lr}^
     178:	6d72612d 	ldfvse	f6, [r2, #-180]!	; 0xffffff4c
     17c:	656d6974 	strbvs	r6, [sp, #-2420]!	; 0x974
     180:	00682e72 	rsbeq	r2, r8, r2, ror lr
     184:	72000002 	andvc	r0, r0, #2
     188:	682e6970 	stmdavs	lr!, {r4, r5, r6, r8, fp, sp, lr}
     18c:	00000300 	andeq	r0, r0, r0, lsl #6
     190:	2d697072 	stclcs	0, cr7, [r9, #-456]!	; 0xfffffe38
     194:	65746e69 	ldrbvs	r6, [r4, #-3689]!	; 0xe69
     198:	70757272 	rsbsvc	r7, r5, r2, ror r2
     19c:	682e7374 	stmdavs	lr!, {r2, r4, r5, r6, r8, r9, ip, sp, lr}
     1a0:	00000200 	andeq	r0, r0, r0, lsl #4
     1a4:	69647473 	stmdbvs	r4!, {r0, r1, r4, r5, r6, sl, ip, sp, lr}^
     1a8:	672d746e 	strvs	r7, [sp, -lr, ror #8]!
     1ac:	682e6363 	stmdavs	lr!, {r0, r1, r5, r6, r8, r9, sp, lr}
     1b0:	00000400 	andeq	r0, r0, r0, lsl #8
     1b4:	02050000 	andeq	r0, r5, #0
     1b8:	00008010 	andeq	r8, r0, r0, lsl r0
     1bc:	0100c003 	tsteq	r0, r3
     1c0:	0402002f 	streq	r0, [r2], #-47	; 0x2f
     1c4:	064a0601 	strbeq	r0, [sl], -r1, lsl #12
     1c8:	30672fd7 	ldrdcc	r2, [r7], #-247	; 0xffffff09	; <UNPREDICTABLE>
     1cc:	020032a1 	andeq	r3, r0, #268435466	; 0x1000000a
     1d0:	2e060104 	adfcss	f0, f6, f4
     1d4:	002f6906 	eoreq	r6, pc, r6, lsl #18
     1d8:	06010402 	streq	r0, [r1], -r2, lsl #8
     1dc:	0402002e 	streq	r0, [r2], #-46	; 0x2e
     1e0:	9f840601 	svcls	0x00840601
     1e4:	040200bb 	streq	r0, [r2], #-187	; 0xbb
     1e8:	062e0601 	strteq	r0, [lr], -r1, lsl #12
     1ec:	0200d783 	andeq	sp, r0, #34340864	; 0x20c0000
     1f0:	2e060104 	adfcss	f0, f6, f4
     1f4:	00d78306 	sbcseq	r8, r7, r6, lsl #6
     1f8:	06010402 	streq	r0, [r1], -r2, lsl #8
     1fc:	d783062e 	strle	r0, [r3, lr, lsr #12]
     200:	01040200 	mrseq	r0, R12_usr
     204:	83062e06 	movwhi	r2, #28166	; 0x6e06
     208:	040200d7 	streq	r0, [r2], #-215	; 0xd7
     20c:	062e0601 	strteq	r0, [lr], -r1, lsl #12
     210:	0200d783 	andeq	sp, r0, #34340864	; 0x20c0000
     214:	2e060104 	adfcss	f0, f6, f4
     218:	00d78306 	sbcseq	r8, r7, r6, lsl #6
     21c:	06010402 	streq	r0, [r1], -r2, lsl #8
     220:	bb83062e 	bllt	fe0c1ae0 <__bss_end__+0xfe0b7348>
     224:	01040200 	mrseq	r0, R12_usr
     228:	03062e06 	movweq	r2, #28166	; 0x6e06
     22c:	9308820c 	movwls	r8, #33292	; 0x820c
     230:	02003030 	andeq	r3, r0, #48	; 0x30
     234:	2e060104 	adfcss	f0, f6, f4
     238:	7fb80306 	svcvc	0x00b80306
     23c:	00cd0366 	sbceq	r0, sp, r6, ror #6
     240:	040200ba 	streq	r0, [r2], #-186	; 0xba
     244:	062e0601 	strteq	r0, [lr], -r1, lsl #12
     248:	827fb903 	rsbshi	fp, pc, #49152	; 0xc000
     24c:	a34a7503 	movtge	r7, #42243	; 0xa503
     250:	01040200 	mrseq	r0, R12_usr
     254:	8200cf03 	andhi	ip, r0, #3, 30
     258:	9e7fb703 	cdpls	7, 7, cr11, cr15, cr3, {0}
     25c:	a34a7503 	movtge	r7, #42243	; 0xa503
     260:	01040200 	mrseq	r0, R12_usr
     264:	8200d103 	andhi	sp, r0, #-1073741824	; 0xc0000000
     268:	9e7fb503 	cdpls	5, 7, cr11, cr15, cr3, {0}
     26c:	a34a7503 	movtge	r7, #42243	; 0xa503
     270:	01040200 	mrseq	r0, R12_usr
     274:	8200d303 	andhi	sp, r0, #201326592	; 0xc000000
     278:	9e7fb303 	cdpls	3, 7, cr11, cr15, cr3, {0}
     27c:	a34a7503 	movtge	r7, #42243	; 0xa503
     280:	01040200 	mrseq	r0, R12_usr
     284:	8200d503 	andhi	sp, r0, #12582912	; 0xc00000
     288:	9e7fb103 	explse	f3, f3
     28c:	a34a7503 	movtge	r7, #42243	; 0xa503
     290:	01040200 	mrseq	r0, R12_usr
     294:	8200d703 	andhi	sp, r0, #786432	; 0xc0000
     298:	9e7faf03 	cdpls	15, 7, cr10, cr15, cr3, {0}
     29c:	a34a7503 	movtge	r7, #42243	; 0xa503
     2a0:	01040200 	mrseq	r0, R12_usr
     2a4:	8200d903 	andhi	sp, r0, #49152	; 0xc000
     2a8:	9e7fad03 	cdpls	13, 7, cr10, cr15, cr3, {0}
     2ac:	a34a7503 	movtge	r7, #42243	; 0xa503
     2b0:	01040200 	mrseq	r0, R12_usr
     2b4:	8200db03 	andhi	sp, r0, #3072	; 0xc00
     2b8:	9e7fab03 	vaddls.f64	d26, d15, d3
     2bc:	a34a7503 	movtge	r7, #42243	; 0xa503
     2c0:	01040200 	mrseq	r0, R12_usr
     2c4:	8200dd03 	andhi	sp, r0, #3, 26	; 0xc0
     2c8:	9e7f9e03 	cdpls	14, 7, cr9, cr15, cr3, {0}
     2cc:	8200e403 	andhi	lr, r0, #50331648	; 0x3000000
     2d0:	01040200 	mrseq	r0, R12_usr
     2d4:	83062e06 	movwhi	r2, #28166	; 0x6e06
     2d8:	90082403 	andls	r2, r8, r3, lsl #8
     2dc:	002f2f35 	eoreq	r2, pc, r5, lsr pc	; <UNPREDICTABLE>
     2e0:	06010402 	streq	r0, [r1], -r2, lsl #8
     2e4:	83830682 	orrhi	r0, r3, #136314880	; 0x8200000
     2e8:	83838383 	orrhi	r8, r3, #201326594	; 0xc000002
     2ec:	694b4b6c 	stmdbvs	fp, {r2, r3, r5, r6, r8, r9, fp, lr}^
     2f0:	4b302f2f 	blmi	c0bfb4 <__bss_end__+0xc0181c>
     2f4:	2f4c4b4c 	svccs	0x004c4b4c
     2f8:	0202334b 	andeq	r3, r2, #738197505	; 0x2c000001
     2fc:	02010100 	andeq	r0, r1, #0, 2
     300:	02000001 	andeq	r0, r0, #1
     304:	0000eb00 	andeq	lr, r0, r0, lsl #22
     308:	fb010200 	blx	40b12 <__bss_end__+0x3637a>
     30c:	01000d0e 	tsteq	r0, lr, lsl #26
     310:	00010101 	andeq	r0, r1, r1, lsl #2
     314:	00010000 	andeq	r0, r1, r0
     318:	696c0100 	stmdbvs	ip!, {r8}^
     31c:	2f006362 	svccs	0x00006362
     320:	2f727375 	svccs	0x00727375
     324:	61636f6c 	cmnvs	r3, ip, ror #30
     328:	65432f6c 	strbvs	r2, [r3, #-3948]	; 0xf6c
     32c:	72616c6c 	rsbvc	r6, r1, #108, 24	; 0x6c00
     330:	6d72612f 	ldfvse	f6, [r2, #-188]!	; 0xffffff44
     334:	6e6f6e2d 	cdpvs	14, 6, cr6, cr15, cr13, {1}
     338:	61652d65 	cmnvs	r5, r5, ror #26
     33c:	342f6962 	strtcc	r6, [pc], #-2402	; 344 <_start-0x7cbc>
     340:	332e382e 	teqcc	lr, #3014656	; 0x2e0000
     344:	3173632d 	cmncc	r3, sp, lsr #6
     348:	2f653037 	svccs	0x00653037
     34c:	2f62696c 	svccs	0x0062696c
     350:	2f636367 	svccs	0x00636367
     354:	2d6d7261 	sfmcs	f7, 2, [sp, #-388]!	; 0xfffffe7c
     358:	656e6f6e 	strbvs	r6, [lr, #-3950]!	; 0xf6e
     35c:	6261652d 	rsbvs	r6, r1, #188743680	; 0xb400000
     360:	2e342f69 	cdpcs	15, 3, cr2, cr4, cr9, {3}
     364:	2f332e38 	svccs	0x00332e38
     368:	6c636e69 	stclvs	14, cr6, [r3], #-420	; 0xfffffe5c
     36c:	00656475 	rsbeq	r6, r5, r5, ror r4
     370:	6573552f 	ldrbvs	r5, [r3, #-1327]!	; 0x52f
     374:	622f7372 	eorvs	r7, pc, #-939524095	; 0xc8000001
     378:	6e616972 	mcrvs	9, 3, r6, cr1, cr2, {3}
     37c:	2f6e756a 	svccs	0x006e756a
     380:	6b736544 	blvs	1cd9898 <__bss_end__+0x1ccf100>
     384:	2f706f74 	svccs	0x00706f74
     388:	6f686373 	svcvs	0x00686373
     38c:	572f6c6f 	strpl	r6, [pc, -pc, ror #24]!
     390:	65746e69 	ldrbvs	r6, [r4, #-3689]!	; 0xe69
     394:	32393172 	eorscc	r3, r9, #-2147483620	; 0x8000001c
     398:	53432f30 	movtpl	r2, #16176	; 0x3f30
     39c:	45303431 	ldrmi	r3, [r0, #-1073]!	; 0x431
     3a0:	3173632f 	cmncc	r3, pc, lsr #6
     3a4:	2d653034 	stclcs	0, cr3, [r5, #-208]!	; 0xffffff30
     3a8:	69773032 	ldmdbvs	r7!, {r1, r4, r5, ip, sp}^
     3ac:	696c2f6e 	stmdbvs	ip!, {r1, r2, r3, r5, r6, r8, r9, sl, fp, sp}^
     3b0:	00697062 	rsbeq	r7, r9, r2, rrx
     3b4:	69727000 	ldmdbvs	r2!, {ip, sp, lr}^
     3b8:	2e6b746e 	cdpcs	4, 6, cr7, cr11, cr14, {3}
     3bc:	00010063 	andeq	r0, r1, r3, rrx
     3c0:	64747300 	ldrbtvs	r7, [r4], #-768	; 0x300
     3c4:	2e677261 	cdpcs	2, 6, cr7, cr7, cr1, {3}
     3c8:	00020068 	andeq	r0, r2, r8, rrx
     3cc:	75623c00 	strbvc	r3, [r2, #-3072]!	; 0xc00
     3d0:	2d746c69 	ldclcs	12, cr6, [r4, #-420]!	; 0xfffffe5c
     3d4:	003e6e69 	eorseq	r6, lr, r9, ror #28
     3d8:	72000000 	andvc	r0, r0, #0
     3dc:	682e6970 	stmdavs	lr!, {r4, r5, r6, r8, fp, sp, lr}
     3e0:	00000300 	andeq	r0, r0, r0, lsl #6
     3e4:	702d6176 	eorvc	r6, sp, r6, ror r1
     3e8:	746e6972 	strbtvc	r6, [lr], #-2418	; 0x972
     3ec:	00682e6b 	rsbeq	r2, r8, fp, ror #28
     3f0:	00000001 	andeq	r0, r0, r1
     3f4:	cc020500 	cfstr32gt	mvfx0, [r2], {-0}
     3f8:	17000085 	strne	r0, [r0, -r5, lsl #1]
     3fc:	89bf4b6b 	ldmibhi	pc!, {r0, r1, r3, r5, r6, r8, r9, fp, lr}	; <UNPREDICTABLE>
     400:	01000e02 	tsteq	r0, r2, lsl #28
     404:	00008a01 	andeq	r8, r0, r1, lsl #20
     408:	72000200 	andvc	r0, r0, #0, 4
     40c:	02000000 	andeq	r0, r0, #0
     410:	0d0efb01 	vstreq	d15, [lr, #-4]
     414:	01010100 	mrseq	r0, (UNDEF: 17)
     418:	00000001 	andeq	r0, r0, r1
     41c:	01000001 	tsteq	r0, r1
     420:	6362696c 	cmnvs	r2, #108, 18	; 0x1b0000
     424:	73552f00 	cmpvc	r5, #0, 30
     428:	2f737265 	svccs	0x00737265
     42c:	61697262 	cmnvs	r9, r2, ror #4
     430:	6e756a6e 	vsubvs.f32	s13, s10, s29
     434:	7365442f 	cmnvc	r5, #788529152	; 0x2f000000
     438:	706f746b 	rsbvc	r7, pc, fp, ror #8
     43c:	6863732f 	stmdavs	r3!, {r0, r1, r2, r3, r5, r8, r9, ip, sp, lr}^
     440:	2f6c6f6f 	svccs	0x006c6f6f
     444:	746e6957 	strbtvc	r6, [lr], #-2391	; 0x957
     448:	39317265 	ldmdbcc	r1!, {r0, r2, r5, r6, r9, ip, sp, lr}
     44c:	432f3032 	teqmi	pc, #50	; 0x32
     450:	30343153 	eorscc	r3, r4, r3, asr r1
     454:	73632f45 	cmnvc	r3, #276	; 0x114
     458:	65303431 	ldrvs	r3, [r0, #-1073]!	; 0x431
     45c:	7730322d 	ldrvc	r3, [r0, -sp, lsr #4]!
     460:	6c2f6e69 	stcvs	14, cr6, [pc], #-420	; 2c4 <_start-0x7d3c>
     464:	69706269 	ldmdbvs	r0!, {r0, r3, r5, r6, r9, sp, lr}^
     468:	75700000 	ldrbvc	r0, [r0, #-0]!
     46c:	61686374 	smcvs	34356	; 0x8634
     470:	00632e72 	rsbeq	r2, r3, r2, ror lr
     474:	72000001 	andvc	r0, r0, #1
     478:	682e6970 	stmdavs	lr!, {r4, r5, r6, r8, fp, sp, lr}
     47c:	00000200 	andeq	r0, r0, r0, lsl #4
     480:	02050000 	andeq	r0, r5, #0
     484:	00008624 	andeq	r8, r0, r4, lsr #12
     488:	136b4a14 	cmnne	fp, #20, 20	; 0x14000
     48c:	080213bc 	stmdaeq	r2, {r2, r3, r4, r5, r7, r8, r9, ip}
     490:	96010100 	strls	r0, [r1], -r0, lsl #2
     494:	02000000 	andeq	r0, r0, #0
     498:	00006f00 	andeq	r6, r0, r0, lsl #30
     49c:	fb010200 	blx	40ca6 <__bss_end__+0x3650e>
     4a0:	01000d0e 	tsteq	r0, lr, lsl #26
     4a4:	00010101 	andeq	r0, r1, r1, lsl #2
     4a8:	00010000 	andeq	r0, r1, r0
     4ac:	696c0100 	stmdbvs	ip!, {r8}^
     4b0:	2f006362 	svccs	0x00006362
     4b4:	72657355 	rsbvc	r7, r5, #1409286145	; 0x54000001
     4b8:	72622f73 	rsbvc	r2, r2, #460	; 0x1cc
     4bc:	6a6e6169 	bvs	1b98a68 <__bss_end__+0x1b8e2d0>
     4c0:	442f6e75 	strtmi	r6, [pc], #-3701	; 4c8 <_start-0x7b38>
     4c4:	746b7365 	strbtvc	r7, [fp], #-869	; 0x365
     4c8:	732f706f 	teqvc	pc, #111	; 0x6f
     4cc:	6f6f6863 	svcvs	0x006f6863
     4d0:	69572f6c 	ldmdbvs	r7, {r2, r3, r5, r6, r8, r9, sl, fp, sp}^
     4d4:	7265746e 	rsbvc	r7, r5, #1845493760	; 0x6e000000
     4d8:	30323931 	eorscc	r3, r2, r1, lsr r9
     4dc:	3153432f 	cmpcc	r3, pc, lsr #6
     4e0:	2f453034 	svccs	0x00453034
     4e4:	34317363 	ldrtcc	r7, [r1], #-867	; 0x363
     4e8:	322d6530 	eorcc	r6, sp, #48, 10	; 0xc000000
     4ec:	6e697730 	mcrvs	7, 3, r7, cr9, cr0, {1}
     4f0:	62696c2f 	rsbvs	r6, r9, #12032	; 0x2f00
     4f4:	00006970 	andeq	r6, r0, r0, ror r9
     4f8:	6b747570 	blvs	1d1dac0 <__bss_end__+0x1d13328>
     4fc:	0100632e 	tsteq	r0, lr, lsr #6
     500:	70720000 	rsbsvc	r0, r2, r0
     504:	00682e69 	rsbeq	r2, r8, r9, ror #28
     508:	00000002 	andeq	r0, r0, r2
     50c:	60020500 	andvs	r0, r2, r0, lsl #10
     510:	15000086 	strne	r0, [r0, #-134]	; 0x86
     514:	02002d4c 	andeq	r2, r0, #76, 26	; 0x1300
     518:	002f0204 	eoreq	r0, pc, r4, lsl #4
     51c:	49020402 	stmdbmi	r2, {r1, sl}
     520:	01040200 	mrseq	r0, R12_usr
     524:	6b062e06 	blvs	18bd44 <__bss_end__+0x1815ac>
     528:	01000602 	tsteq	r0, r2, lsl #12
     52c:	0001e201 	andeq	lr, r1, r1, lsl #4
     530:	df000200 	svcle	0x00000200
     534:	02000000 	andeq	r0, r0, #0
     538:	0d0efb01 	vstreq	d15, [lr, #-4]
     53c:	01010100 	mrseq	r0, (UNDEF: 17)
     540:	00000001 	andeq	r0, r0, r1
     544:	01000001 	tsteq	r0, r1
     548:	6362696c 	cmnvs	r2, #108, 18	; 0x1b0000
     54c:	73752f00 	cmnvc	r5, #0, 30
     550:	6f6c2f72 	svcvs	0x006c2f72
     554:	2f6c6163 	svccs	0x006c6163
     558:	6c6c6543 	cfstr64vs	mvdx6, [ip], #-268	; 0xfffffef4
     55c:	612f7261 	teqvs	pc, r1, ror #4
     560:	6e2d6d72 	mcrvs	13, 1, r6, cr13, cr2, {3}
     564:	2d656e6f 	stclcs	14, cr6, [r5, #-444]!	; 0xfffffe44
     568:	69626165 	stmdbvs	r2!, {r0, r2, r5, r6, r8, sp, lr}^
     56c:	382e342f 	stmdacc	lr!, {r0, r1, r2, r3, r5, sl, ip, sp}
     570:	632d332e 	teqvs	sp, #-1207959552	; 0xb8000000
     574:	30373173 	eorscc	r3, r7, r3, ror r1
     578:	696c2f65 	stmdbvs	ip!, {r0, r2, r5, r6, r8, r9, sl, fp, sp}^
     57c:	63672f62 	cmnvs	r7, #392	; 0x188
     580:	72612f63 	rsbvc	r2, r1, #396	; 0x18c
     584:	6f6e2d6d 	svcvs	0x006e2d6d
     588:	652d656e 	strvs	r6, [sp, #-1390]!	; 0x56e
     58c:	2f696261 	svccs	0x00696261
     590:	2e382e34 	mrccs	14, 1, r2, cr8, cr4, {1}
     594:	6e692f33 	mcrvs	15, 3, r2, cr9, cr3, {1}
     598:	64756c63 	ldrbtvs	r6, [r5], #-3171	; 0xc63
     59c:	552f0065 	strpl	r0, [pc, #-101]!	; 53f <_start-0x7ac1>
     5a0:	73726573 	cmnvc	r2, #482344960	; 0x1cc00000
     5a4:	6972622f 	ldmdbvs	r2!, {r0, r1, r2, r3, r5, r9, sp, lr}^
     5a8:	756a6e61 	strbvc	r6, [sl, #-3681]!	; 0xe61
     5ac:	65442f6e 	strbvs	r2, [r4, #-3950]	; 0xf6e
     5b0:	6f746b73 	svcvs	0x00746b73
     5b4:	63732f70 	cmnvs	r3, #112, 30	; 0x1c0
     5b8:	6c6f6f68 	stclvs	15, cr6, [pc], #-416	; 420 <_start-0x7be0>
     5bc:	6e69572f 	cdpvs	7, 6, cr5, cr9, cr15, {1}
     5c0:	31726574 	cmncc	r2, r4, ror r5
     5c4:	2f303239 	svccs	0x00303239
     5c8:	34315343 	ldrtcc	r5, [r1], #-835	; 0x343
     5cc:	632f4530 	teqvs	pc, #48, 10	; 0xc000000
     5d0:	30343173 	eorscc	r3, r4, r3, ror r1
     5d4:	30322d65 	eorscc	r2, r2, r5, ror #26
     5d8:	2f6e6977 	svccs	0x006e6977
     5dc:	7062696c 	rsbvc	r6, r2, ip, ror #18
     5e0:	76000069 	strvc	r0, [r0], -r9, rrx
     5e4:	72702d61 	rsbsvc	r2, r0, #6208	; 0x1840
     5e8:	6b746e69 	blvs	1d1bf94 <__bss_end__+0x1d117fc>
     5ec:	0100632e 	tsteq	r0, lr, lsr #6
     5f0:	74730000 	ldrbtvc	r0, [r3], #-0
     5f4:	67726164 	ldrbvs	r6, [r2, -r4, ror #2]!
     5f8:	0200682e 	andeq	r6, r0, #3014656	; 0x2e0000
     5fc:	70720000 	rsbsvc	r0, r2, r0
     600:	00682e69 	rsbeq	r2, r8, r9, ror #28
     604:	3c000003 	stccc	0, cr0, [r0], {3}
     608:	6c697562 	cfstr64vs	mvdx7, [r9], #-392	; 0xfffffe78
     60c:	6e692d74 	mcrvs	13, 3, r2, cr9, cr4, {3}
     610:	0000003e 	andeq	r0, r0, lr, lsr r0
     614:	05000000 	streq	r0, [r0, #-0]
     618:	00869402 	addeq	r9, r6, r2, lsl #8
     61c:	01260300 	teqeq	r6, r0, lsl #6
     620:	3113a501 	tstcc	r3, r1, lsl #10
     624:	0402002d 	streq	r0, [r2], #-45	; 0x2d
     628:	02002f02 	andeq	r2, r0, #2, 30
     62c:	002d0204 	eoreq	r0, sp, r4, lsl #4
     630:	2f020402 	svccs	0x00020402
     634:	01040200 	mrseq	r0, R12_usr
     638:	304c4c2d 	subcc	r4, ip, sp, lsr #24
     63c:	4f2f4b14 	svcmi	0x002f4b14
     640:	02040200 	andeq	r0, r4, #0, 4
     644:	04020067 	streq	r0, [r2], #-103	; 0x67
     648:	4d4c6501 	cfstr64mi	mvdx6, [ip, #-4]
     64c:	312fa030 	teqcc	pc, r0, lsr r0	; <UNPREDICTABLE>
     650:	16260230 			; <UNDEFINED> instruction: 0x16260230
     654:	002c2d84 	eoreq	r2, ip, r4, lsl #27
     658:	30010402 	andcc	r0, r1, r2, lsl #8
     65c:	01040200 	mrseq	r0, R12_usr
     660:	00660633 	rsbeq	r0, r6, r3, lsr r6
     664:	2e010402 	cdpcs	4, 0, cr0, cr1, cr2, {0}
     668:	01040200 	mrseq	r0, R12_usr
     66c:	67210806 	strvs	r0, [r1, -r6, lsl #16]!
     670:	8273032f 	rsbshi	r0, r3, #-1140850688	; 0xbc000000
     674:	002e1303 	eoreq	r1, lr, r3, lsl #6
     678:	06010402 	streq	r0, [r1], -r2, lsl #8
     67c:	0402002e 	streq	r0, [r2], #-46	; 0x2e
     680:	6a9f0601 	bvs	fe7c1e8c <__bss_end__+0xfe7b76f4>
     684:	2e67034b 	cdpcs	3, 6, cr0, cr7, cr11, {2}
     688:	002e2103 	eoreq	r2, lr, r3, lsl #2
     68c:	06010402 	streq	r0, [r1], -r2, lsl #8
     690:	0402002e 	streq	r0, [r2], #-46	; 0x2e
     694:	009f0601 	addseq	r0, pc, r1, lsl #12
     698:	6a010402 	bvs	416a8 <__bss_end__+0x36f10>
     69c:	03f32308 	mvnseq	r2, #8, 6	; 0x20000000
     6a0:	3c087fa6 	stccc	15, cr7, [r8], {166}	; 0xa6
     6a4:	0402004b 	streq	r0, [r2], #-75	; 0x4b
     6a8:	064a0601 	strbeq	r0, [sl], -r1, lsl #12
     6ac:	2f4b2108 	svccs	0x004b2108
     6b0:	00d9034b 	sbcseq	r0, r9, fp, asr #6
     6b4:	484c83f2 	stmdami	ip, {r1, r4, r5, r6, r7, r8, r9, pc}^
     6b8:	032e0e03 	teqeq	lr, #3, 28	; 0x30
     6bc:	2f2f2e75 	svccs	0x002f2e75
     6c0:	2d2f4b84 	vstmdbcs	pc!, {d4-d5}
     6c4:	2f30314d 	svccs	0x0030314d
     6c8:	04020083 	streq	r0, [r2], #-131	; 0x83
     6cc:	00a22c01 	adceq	r2, r2, r1, lsl #24
     6d0:	06010402 	streq	r0, [r1], -r2, lsl #8
     6d4:	2208064a 	andcs	r0, r8, #77594624	; 0x4a00000
     6d8:	03163602 	tsteq	r6, #2097152	; 0x200000
     6dc:	2108d60e 	tstcs	r8, lr, lsl #12
     6e0:	f331f330 	vcge.u<illegal width 64>	d15, d1, d16
     6e4:	4b30f330 	blmi	c3d3ac <__bss_end__+0xc32c14>
     6e8:	0830f330 	ldmdaeq	r0!, {r4, r5, r8, r9, ip, sp, lr, pc}
     6ec:	002f3123 	eoreq	r3, pc, r3, lsr #2
     6f0:	65010402 	strvs	r0, [r1, #-1026]	; 0x402
     6f4:	02040200 	andeq	r0, r4, #0, 4
     6f8:	02004a06 	andeq	r4, r0, #24576	; 0x6000
     6fc:	03060104 	movweq	r0, #24836	; 0x6104
     700:	02006642 	andeq	r6, r0, #69206016	; 0x4200000
     704:	66060204 	strvs	r0, [r6], -r4, lsl #4
     708:	00c20306 	sbceq	r0, r2, r6, lsl #6
     70c:	1202684a 	andne	r6, r2, #4849664	; 0x4a0000
     710:	43010100 	movwmi	r0, #4352	; 0x1100
     714:	02000000 	andeq	r0, r0, #0
     718:	00002900 	andeq	r2, r0, r0, lsl #18
     71c:	fb010200 	blx	40f26 <__bss_end__+0x3678e>
     720:	01000d0e 	tsteq	r0, lr, lsl #26
     724:	00010101 	andeq	r0, r1, r1, lsl #2
     728:	00010000 	andeq	r0, r1, r0
     72c:	73630100 	cmnvc	r3, #0, 2
     730:	65303431 	ldrvs	r3, [r0, #-1073]!	; 0x431
     734:	6372732d 	cmnvs	r2, #-1275068416	; 0xb4000000
     738:	61630000 	cmnvs	r3, r0
     73c:	2e656863 	cdpcs	8, 6, cr6, cr5, cr3, {3}
     740:	00010063 	andeq	r0, r1, r3, rrx
     744:	05000000 	streq	r0, [r0, #-0]
     748:	008bb802 	addeq	fp, fp, r2, lsl #16
     74c:	30141400 	andscc	r1, r4, r0, lsl #8
     750:	31144e2f 	tstcc	r4, pc, lsr #28
     754:	0004022f 	andeq	r0, r4, pc, lsr #4
     758:	00930101 	addseq	r0, r3, r1, lsl #2
     75c:	00020000 	andeq	r0, r2, r0
     760:	0000007d 	andeq	r0, r0, sp, ror r0
     764:	0efb0102 	cdpeq	1, 15, cr0, cr11, cr2, {0}
     768:	0101000d 	tsteq	r1, sp
     76c:	00000101 	andeq	r0, r0, r1, lsl #2
     770:	00000100 	andeq	r0, r0, r0, lsl #2
     774:	31736301 	cmncc	r3, r1, lsl #6
     778:	2d653034 	stclcs	0, cr3, [r5, #-208]!	; 0xffffff30
     77c:	00637273 	rsbeq	r7, r3, r3, ror r2
     780:	6573552f 	ldrbvs	r5, [r3, #-1327]!	; 0x52f
     784:	622f7372 	eorvs	r7, pc, #-939524095	; 0xc8000001
     788:	6e616972 	mcrvs	9, 3, r6, cr1, cr2, {3}
     78c:	2f6e756a 	svccs	0x006e756a
     790:	6b736544 	blvs	1cd9ca8 <__bss_end__+0x1ccf510>
     794:	2f706f74 	svccs	0x00706f74
     798:	6f686373 	svcvs	0x00686373
     79c:	572f6c6f 	strpl	r6, [pc, -pc, ror #24]!
     7a0:	65746e69 	ldrbvs	r6, [r4, #-3689]!	; 0xe69
     7a4:	32393172 	eorscc	r3, r9, #-2147483620	; 0x8000001c
     7a8:	53432f30 	movtpl	r2, #16176	; 0x3f30
     7ac:	45303431 	ldrmi	r3, [r0, #-1073]!	; 0x431
     7b0:	3173632f 	cmncc	r3, pc, lsr #6
     7b4:	2d653034 	stclcs	0, cr3, [r5, #-208]!	; 0xffffff30
     7b8:	69773032 	ldmdbvs	r7!, {r1, r4, r5, ip, sp}^
     7bc:	696c2f6e 	stmdbvs	ip!, {r1, r2, r3, r5, r6, r8, r9, sl, fp, sp}^
     7c0:	00697062 	rsbeq	r7, r9, r2, rrx
     7c4:	656c6300 	strbvs	r6, [ip, #-768]!	; 0x300
     7c8:	722d6e61 	eorvc	r6, sp, #1552	; 0x610
     7cc:	6f6f6265 	svcvs	0x006f6265
     7d0:	00632e74 	rsbeq	r2, r3, r4, ror lr
     7d4:	72000001 	andvc	r0, r0, #1
     7d8:	682e6970 	stmdavs	lr!, {r4, r5, r6, r8, fp, sp, lr}
     7dc:	00000200 	andeq	r0, r0, r0, lsl #4
     7e0:	02050000 	andeq	r0, r5, #0
     7e4:	00008bd8 	ldrdeq	r8, [r0], -r8	; <UNPREDICTABLE>
     7e8:	4b832f15 	blmi	fe0cc444 <__bss_end__+0xfe0c1cac>
     7ec:	01000602 	tsteq	r0, r2, lsl #12
     7f0:	00012101 	andeq	r2, r1, r1, lsl #2
     7f4:	f8000200 			; <UNDEFINED> instruction: 0xf8000200
     7f8:	02000000 	andeq	r0, r0, #0
     7fc:	0d0efb01 	vstreq	d15, [lr, #-4]
     800:	01010100 	mrseq	r0, (UNDEF: 17)
     804:	00000001 	andeq	r0, r0, r1
     808:	01000001 	tsteq	r0, r1
     80c:	34317363 	ldrtcc	r7, [r1], #-867	; 0x363
     810:	732d6530 	teqvc	sp, #48, 10	; 0xc000000
     814:	2f006372 	svccs	0x00006372
     818:	2f727375 	svccs	0x00727375
     81c:	61636f6c 	cmnvs	r3, ip, ror #30
     820:	65432f6c 	strbvs	r2, [r3, #-3948]	; 0xf6c
     824:	72616c6c 	rsbvc	r6, r1, #108, 24	; 0x6c00
     828:	6d72612f 	ldfvse	f6, [r2, #-188]!	; 0xffffff44
     82c:	6e6f6e2d 	cdpvs	14, 6, cr6, cr15, cr13, {1}
     830:	61652d65 	cmnvs	r5, r5, ror #26
     834:	342f6962 	strtcc	r6, [pc], #-2402	; 83c <_start-0x77c4>
     838:	332e382e 	teqcc	lr, #3014656	; 0x2e0000
     83c:	3173632d 	cmncc	r3, sp, lsr #6
     840:	2f653037 	svccs	0x00653037
     844:	2f62696c 	svccs	0x0062696c
     848:	2f636367 	svccs	0x00636367
     84c:	2d6d7261 	sfmcs	f7, 2, [sp, #-388]!	; 0xfffffe7c
     850:	656e6f6e 	strbvs	r6, [lr, #-3950]!	; 0xf6e
     854:	6261652d 	rsbvs	r6, r1, #188743680	; 0xb400000
     858:	2e342f69 	cdpcs	15, 3, cr2, cr4, cr9, {3}
     85c:	2f332e38 	svccs	0x00332e38
     860:	6c636e69 	stclvs	14, cr6, [r3], #-420	; 0xfffffe5c
     864:	00656475 	rsbeq	r6, r5, r5, ror r4
     868:	6573552f 	ldrbvs	r5, [r3, #-1327]!	; 0x52f
     86c:	622f7372 	eorvs	r7, pc, #-939524095	; 0xc8000001
     870:	6e616972 	mcrvs	9, 3, r6, cr1, cr2, {3}
     874:	2f6e756a 	svccs	0x006e756a
     878:	6b736544 	blvs	1cd9d90 <__bss_end__+0x1ccf5f8>
     87c:	2f706f74 	svccs	0x00706f74
     880:	6f686373 	svcvs	0x00686373
     884:	572f6c6f 	strpl	r6, [pc, -pc, ror #24]!
     888:	65746e69 	ldrbvs	r6, [r4, #-3689]!	; 0xe69
     88c:	32393172 	eorscc	r3, r9, #-2147483620	; 0x8000001c
     890:	53432f30 	movtpl	r2, #16176	; 0x3f30
     894:	45303431 	ldrmi	r3, [r0, #-1073]!	; 0x431
     898:	3173632f 	cmncc	r3, pc, lsr #6
     89c:	2d653034 	stclcs	0, cr3, [r5, #-208]!	; 0xffffff30
     8a0:	69773032 	ldmdbvs	r7!, {r1, r4, r5, ip, sp}^
     8a4:	696c2f6e 	stmdbvs	ip!, {r1, r2, r3, r5, r6, r8, r9, sl, fp, sp}^
     8a8:	00697062 	rsbeq	r7, r9, r2, rrx
     8ac:	74736300 	ldrbtvc	r6, [r3], #-768	; 0x300
     8b0:	2e747261 	cdpcs	2, 7, cr7, cr4, cr1, {3}
     8b4:	00010063 	andeq	r0, r1, r3, rrx
     8b8:	64747300 	ldrbtvs	r7, [r4], #-768	; 0x300
     8bc:	2d746e69 	ldclcs	14, cr6, [r4, #-420]!	; 0xfffffe5c
     8c0:	2e636367 	cdpcs	3, 6, cr6, cr3, cr7, {3}
     8c4:	00020068 	andeq	r0, r2, r8, rrx
     8c8:	2d777300 	ldclcs	3, cr7, [r7, #-0]
     8cc:	74726175 	ldrbtvc	r6, [r2], #-373	; 0x175
     8d0:	0100682e 	tsteq	r0, lr, lsr #16
     8d4:	6f630000 	svcvs	0x00630000
     8d8:	6f72746e 	svcvs	0x0072746e
     8dc:	6c622d6c 	stclvs	13, cr2, [r2], #-432	; 0xfffffe50
     8e0:	2e6b636f 	cdpcs	3, 6, cr6, cr11, cr15, {3}
     8e4:	00010068 	andeq	r0, r1, r8, rrx
     8e8:	69707200 	ldmdbvs	r0!, {r9, ip, sp, lr}^
     8ec:	0300682e 	movweq	r6, #2094	; 0x82e
     8f0:	00000000 	andeq	r0, r0, r0
     8f4:	8c000205 	sfmhi	f0, 4, [r0], {5}
     8f8:	4b170000 	blmi	5c0900 <__bss_end__+0x5b6168>
     8fc:	31326868 	teqcc	r2, r8, ror #16
     900:	002f2d2f 	eoreq	r2, pc, pc, lsr #26
     904:	49010402 	stmdbmi	r1, {r1, sl}
     908:	674b2f4f 	strbvs	r2, [fp, -pc, asr #30]
     90c:	4e678367 	cdpmi	3, 6, cr8, cr7, cr7, {3}
     910:	0010022f 	andseq	r0, r0, pc, lsr #4
     914:	00990101 	addseq	r0, r9, r1, lsl #2
     918:	00020000 	andeq	r0, r2, r0
     91c:	00000077 	andeq	r0, r0, r7, ror r0
     920:	0efb0102 	cdpeq	1, 15, cr0, cr11, cr2, {0}
     924:	0101000d 	tsteq	r1, sp
     928:	00000101 	andeq	r0, r0, r1, lsl #2
     92c:	00000100 	andeq	r0, r0, r0, lsl #2
     930:	31736301 	cmncc	r3, r1, lsl #6
     934:	2d653034 	stclcs	0, cr3, [r5, #-208]!	; 0xffffff30
     938:	00637273 	rsbeq	r7, r3, r3, ror r2
     93c:	6573552f 	ldrbvs	r5, [r3, #-1327]!	; 0x52f
     940:	622f7372 	eorvs	r7, pc, #-939524095	; 0xc8000001
     944:	6e616972 	mcrvs	9, 3, r6, cr1, cr2, {3}
     948:	2f6e756a 	svccs	0x006e756a
     94c:	6b736544 	blvs	1cd9e64 <__bss_end__+0x1ccf6cc>
     950:	2f706f74 	svccs	0x00706f74
     954:	6f686373 	svcvs	0x00686373
     958:	572f6c6f 	strpl	r6, [pc, -pc, ror #24]!
     95c:	65746e69 	ldrbvs	r6, [r4, #-3689]!	; 0xe69
     960:	32393172 	eorscc	r3, r9, #-2147483620	; 0x8000001c
     964:	53432f30 	movtpl	r2, #16176	; 0x3f30
     968:	45303431 	ldrmi	r3, [r0, #-1073]!	; 0x431
     96c:	3173632f 	cmncc	r3, pc, lsr #6
     970:	2d653034 	stclcs	0, cr3, [r5, #-208]!	; 0xffffff30
     974:	69773032 	ldmdbvs	r7!, {r1, r4, r5, ip, sp}^
     978:	696c2f6e 	stmdbvs	ip!, {r1, r2, r3, r5, r6, r8, r9, sl, fp, sp}^
     97c:	00697062 	rsbeq	r7, r9, r2, rrx
     980:	62657200 	rsbvs	r7, r5, #0, 4
     984:	2e746f6f 	cdpcs	15, 7, cr6, cr4, cr15, {3}
     988:	00010063 	andeq	r0, r1, r3, rrx
     98c:	69707200 	ldmdbvs	r0!, {r9, ip, sp, lr}^
     990:	0200682e 	andeq	r6, r0, #3014656	; 0x2e0000
     994:	00000000 	andeq	r0, r0, r0
     998:	8cb00205 	lfmhi	f0, 4, [r0], #20
     99c:	0d030000 	stceq	0, cr0, [r3, #-0]
     9a0:	2f311401 	svccs	0x00311401
     9a4:	4b2f1585 	blmi	bc5fc0 <__bss_end__+0xbbb828>
     9a8:	35672f4d 	strbcc	r2, [r7, #-3917]!	; 0xf4d
     9ac:	10026752 	andne	r6, r2, r2, asr r7
     9b0:	a3010100 	movwge	r0, #4352	; 0x1100
     9b4:	02000000 	andeq	r0, r0, #0
     9b8:	00007600 	andeq	r7, r0, r0, lsl #12
     9bc:	fb010200 	blx	411c6 <__bss_end__+0x36a2e>
     9c0:	01000d0e 	tsteq	r0, lr, lsl #26
     9c4:	00010101 	andeq	r0, r1, r1, lsl #2
     9c8:	00010000 	andeq	r0, r1, r0
     9cc:	73630100 	cmnvc	r3, #0, 2
     9d0:	65303431 	ldrvs	r3, [r0, #-1073]!	; 0x431
     9d4:	6372732d 	cmnvs	r2, #-1275068416	; 0xb4000000
     9d8:	73552f00 	cmpvc	r5, #0, 30
     9dc:	2f737265 	svccs	0x00737265
     9e0:	61697262 	cmnvs	r9, r2, ror #4
     9e4:	6e756a6e 	vsubvs.f32	s13, s10, s29
     9e8:	7365442f 	cmnvc	r5, #788529152	; 0x2f000000
     9ec:	706f746b 	rsbvc	r7, pc, fp, ror #8
     9f0:	6863732f 	stmdavs	r3!, {r0, r1, r2, r3, r5, r8, r9, ip, sp, lr}^
     9f4:	2f6c6f6f 	svccs	0x006c6f6f
     9f8:	746e6957 	strbtvc	r6, [lr], #-2391	; 0x957
     9fc:	39317265 	ldmdbcc	r1!, {r0, r2, r5, r6, r9, ip, sp, lr}
     a00:	432f3032 	teqmi	pc, #50	; 0x32
     a04:	30343153 	eorscc	r3, r4, r3, asr r1
     a08:	73632f45 	cmnvc	r3, #276	; 0x114
     a0c:	65303431 	ldrvs	r3, [r0, #-1073]!	; 0x431
     a10:	7730322d 	ldrvc	r3, [r0, -sp, lsr #4]!
     a14:	6c2f6e69 	stcvs	14, cr6, [pc], #-420	; 878 <_start-0x7788>
     a18:	69706269 	ldmdbvs	r0!, {r0, r3, r5, r6, r9, sp, lr}^
     a1c:	69740000 	ldmdbvs	r4!, {}^	; <UNPREDICTABLE>
     a20:	2e72656d 	cdpcs	5, 7, cr6, cr2, cr13, {3}
     a24:	00010063 	andeq	r0, r1, r3, rrx
     a28:	69707200 	ldmdbvs	r0!, {r9, ip, sp, lr}^
     a2c:	0200682e 	andeq	r6, r0, #3014656	; 0x2e0000
     a30:	00000000 	andeq	r0, r0, r0
     a34:	8d240205 	sfmhi	f0, 4, [r4, #-20]!	; 0xffffffec
     a38:	13160000 	tstne	r6, #0
     a3c:	02002d2f 	andeq	r2, r0, #3008	; 0xbc0
     a40:	2e060104 	adfcss	f0, f6, f4
     a44:	2f316806 	svccs	0x00316806
     a48:	31324d4b 	teqcc	r2, fp, asr #26
     a4c:	2f4c4b30 	svccs	0x004c4b30
     a50:	842f2f6a 	strthi	r2, [pc], #-3946	; a58 <_start-0x75a8>
     a54:	0008022f 	andeq	r0, r8, pc, lsr #4
     a58:	017f0101 	cmneq	pc, r1, lsl #2
     a5c:	00020000 	andeq	r0, r2, r0
     a60:	000000ca 	andeq	r0, r0, sl, asr #1
     a64:	0efb0102 	cdpeq	1, 15, cr0, cr11, cr2, {0}
     a68:	0101000d 	tsteq	r1, sp
     a6c:	00000101 	andeq	r0, r0, r1, lsl #2
     a70:	00000100 	andeq	r0, r0, r0, lsl #2
     a74:	2d796d01 	ldclcs	13, cr6, [r9, #-4]!
     a78:	00637273 	rsbeq	r7, r3, r3, ror r2
     a7c:	6573552f 	ldrbvs	r5, [r3, #-1327]!	; 0x52f
     a80:	622f7372 	eorvs	r7, pc, #-939524095	; 0xc8000001
     a84:	6e616972 	mcrvs	9, 3, r6, cr1, cr2, {3}
     a88:	2f6e756a 	svccs	0x006e756a
     a8c:	6b736544 	blvs	1cd9fa4 <__bss_end__+0x1ccf80c>
     a90:	2f706f74 	svccs	0x00706f74
     a94:	6f686373 	svcvs	0x00686373
     a98:	572f6c6f 	strpl	r6, [pc, -pc, ror #24]!
     a9c:	65746e69 	ldrbvs	r6, [r4, #-3689]!	; 0xe69
     aa0:	32393172 	eorscc	r3, r9, #-2147483620	; 0x8000001c
     aa4:	53432f30 	movtpl	r2, #16176	; 0x3f30
     aa8:	45303431 	ldrmi	r3, [r0, #-1073]!	; 0x431
     aac:	3173632f 	cmncc	r3, pc, lsr #6
     ab0:	2d653034 	stclcs	0, cr3, [r5, #-208]!	; 0xffffff30
     ab4:	69773032 	ldmdbvs	r7!, {r1, r4, r5, ip, sp}^
     ab8:	696c2f6e 	stmdbvs	ip!, {r1, r2, r3, r5, r6, r8, r9, sl, fp, sp}^
     abc:	2f697062 	svccs	0x00697062
     ac0:	34317363 	ldrtcc	r7, [r1], #-867	; 0x363
     ac4:	732d6530 	teqvc	sp, #48, 10	; 0xc000000
     ac8:	2f006372 	svccs	0x00006372
     acc:	72657355 	rsbvc	r7, r5, #1409286145	; 0x54000001
     ad0:	72622f73 	rsbvc	r2, r2, #460	; 0x1cc
     ad4:	6a6e6169 	bvs	1b99080 <__bss_end__+0x1b8e8e8>
     ad8:	442f6e75 	strtmi	r6, [pc], #-3701	; ae0 <_start-0x7520>
     adc:	746b7365 	strbtvc	r7, [fp], #-869	; 0x365
     ae0:	732f706f 	teqvc	pc, #111	; 0x6f
     ae4:	6f6f6863 	svcvs	0x006f6863
     ae8:	69572f6c 	ldmdbvs	r7, {r2, r3, r5, r6, r8, r9, sl, fp, sp}^
     aec:	7265746e 	rsbvc	r7, r5, #1845493760	; 0x6e000000
     af0:	30323931 	eorscc	r3, r2, r1, lsr r9
     af4:	3153432f 	cmpcc	r3, pc, lsr #6
     af8:	2f453034 	svccs	0x00453034
     afc:	34317363 	ldrtcc	r7, [r1], #-867	; 0x363
     b00:	322d6530 	eorcc	r6, sp, #48, 10	; 0xc000000
     b04:	6e697730 	mcrvs	7, 3, r7, cr9, cr0, {1}
     b08:	62696c2f 	rsbvs	r6, r9, #12032	; 0x2f00
     b0c:	00006970 	andeq	r6, r0, r0, ror r9
     b10:	6f697067 	svcvs	0x00697067
     b14:	0100632e 	tsteq	r0, lr, lsr #6
     b18:	70670000 	rsbvc	r0, r7, r0
     b1c:	682e6f69 	stmdavs	lr!, {r0, r3, r5, r6, r8, r9, sl, fp, sp, lr}
     b20:	00000200 	andeq	r0, r0, r0, lsl #4
     b24:	2e697072 	mcrcs	0, 3, r7, cr9, cr2, {3}
     b28:	00030068 	andeq	r0, r3, r8, rrx
     b2c:	05000000 	streq	r0, [r0, #-0]
     b30:	008dac02 	addeq	sl, sp, r2, lsl #24
     b34:	013e0300 	teqeq	lr, r0, lsl #6
     b38:	0869504e 	stmdaeq	r9!, {r1, r2, r3, r6, ip, lr}^
     b3c:	67676721 	strbvs	r6, [r7, -r1, lsr #14]!
     b40:	32676767 	rsbcc	r6, r7, #27000832	; 0x19c0000
     b44:	dc22084b 	stcle	8, cr0, [r2], #-300	; 0xfffffed4
     b48:	4e135131 	mrcmi	1, 0, r5, cr3, cr1, {1}
     b4c:	31be3050 			; <UNDEFINED> instruction: 0x31be3050
     b50:	4f4d1350 	svcmi	0x004d1350
     b54:	504cc030 	subpl	ip, ip, r0, lsr r0
     b58:	67210869 	strvs	r0, [r1, -r9, ror #16]!
     b5c:	67676767 	strbvs	r6, [r7, -r7, ror #14]!
     b60:	084b3267 	stmdaeq	fp, {r0, r1, r2, r5, r6, r9, ip, sp}^
     b64:	504ca421 	subpl	sl, ip, r1, lsr #8
     b68:	0369842f 	cmneq	r9, #788529152	; 0x2f000000
     b6c:	0c038275 	sfmeq	f0, 1, [r3], {117}	; 0x75
     b70:	4e304d2e 	cdpmi	13, 3, cr4, cr0, cr14, {1}
     b74:	6a4d4c4b 	bvs	1353ca8 <__bss_end__+0x1349510>
     b78:	2108696b 	tstcs	r8, fp, ror #18
     b7c:	67676767 	strbvs	r6, [r7, -r7, ror #14]!
     b80:	4b326767 	blmi	c9a924 <__bss_end__+0xc9018c>
     b84:	30c02208 	sbccc	r2, r0, r8, lsl #4
     b88:	504e1351 	subpl	r1, lr, r1, asr r3
     b8c:	ba180330 	blt	601854 <__bss_end__+0x5f70bc>
     b90:	2f4c9f31 	svccs	0x004c9f31
     b94:	2f4e4d52 	svccs	0x004e4d52
     b98:	684b674b 	stmdavs	fp, {r0, r1, r3, r6, r8, r9, sl, sp, lr}^
     b9c:	2f4c6767 	svccs	0x004c6767
     ba0:	6e4b2f67 	cdpvs	15, 4, cr2, cr11, cr7, {3}
     ba4:	4b2f4e4c 	blmi	bd44dc <__bss_end__+0xbc9d44>
     ba8:	67684b67 	strbvs	r4, [r8, -r7, ror #22]!
     bac:	672f4c67 	strvs	r4, [pc, -r7, ror #24]!
     bb0:	4b6d4b2f 	blmi	1b53874 <__bss_end__+0x1b490dc>
     bb4:	674b2f4e 	strbvs	r2, [fp, -lr, asr #30]
     bb8:	01040200 	mrseq	r0, R12_usr
     bbc:	68066606 	stmdavs	r6, {r1, r2, r9, sl, sp, lr}
     bc0:	02002f9f 	andeq	r2, r0, #636	; 0x27c
     bc4:	4a060104 	bmi	180fdc <__bss_end__+0x176844>
     bc8:	032f6806 	teqeq	pc, #393216	; 0x60000
     bcc:	0e034a73 	mcreq	10, 0, r4, cr3, cr3, {3}
     bd0:	4e4c4d2e 	cdpmi	13, 4, cr4, cr12, cr14, {1}
     bd4:	bcbc4b2f 	fldmiaxlt	ip!, {d4-d26}	;@ Deprecated
     bd8:	01000602 	tsteq	r0, r2, lsl #12
     bdc:	00034901 	andeq	r4, r3, r1, lsl #18
     be0:	bd000200 	sfmlt	f0, 4, [r0, #-0]
     be4:	02000001 	andeq	r0, r0, #1
     be8:	0d0efb01 	vstreq	d15, [lr, #-4]
     bec:	01010100 	mrseq	r0, (UNDEF: 17)
     bf0:	00000001 	andeq	r0, r0, r1
     bf4:	01000001 	tsteq	r0, r1
     bf8:	732d796d 	teqvc	sp, #1785856	; 0x1b4000
     bfc:	2f006372 	svccs	0x00006372
     c00:	72657355 	rsbvc	r7, r5, #1409286145	; 0x54000001
     c04:	72622f73 	rsbvc	r2, r2, #460	; 0x1cc
     c08:	6a6e6169 	bvs	1b991b4 <__bss_end__+0x1b8ea1c>
     c0c:	442f6e75 	strtmi	r6, [pc], #-3701	; c14 <_start-0x73ec>
     c10:	746b7365 	strbtvc	r7, [fp], #-869	; 0x365
     c14:	732f706f 	teqvc	pc, #111	; 0x6f
     c18:	6f6f6863 	svcvs	0x006f6863
     c1c:	69572f6c 	ldmdbvs	r7, {r2, r3, r5, r6, r8, r9, sl, fp, sp}^
     c20:	7265746e 	rsbvc	r7, r5, #1845493760	; 0x6e000000
     c24:	30323931 	eorscc	r3, r2, r1, lsr r9
     c28:	3153432f 	cmpcc	r3, pc, lsr #6
     c2c:	2f453034 	svccs	0x00453034
     c30:	34317363 	ldrtcc	r7, [r1], #-867	; 0x363
     c34:	322d6530 	eorcc	r6, sp, #48, 10	; 0xc000000
     c38:	6e697730 	mcrvs	7, 3, r7, cr9, cr0, {1}
     c3c:	62696c2f 	rsbvs	r6, r9, #12032	; 0x2f00
     c40:	632f6970 	teqvs	pc, #112, 18	; 0x1c0000
     c44:	30343173 	eorscc	r3, r4, r3, ror r1
     c48:	72732d65 	rsbsvc	r2, r3, #6464	; 0x1940
     c4c:	752f0063 	strvc	r0, [pc, #-99]!	; bf1 <_start-0x740f>
     c50:	6c2f7273 	sfmvs	f7, 4, [pc], #-460	; a8c <_start-0x7574>
     c54:	6c61636f 	stclvs	3, cr6, [r1], #-444	; 0xfffffe44
     c58:	6c65432f 	stclvs	3, cr4, [r5], #-188	; 0xffffff44
     c5c:	2f72616c 	svccs	0x0072616c
     c60:	2d6d7261 	sfmcs	f7, 2, [sp, #-388]!	; 0xfffffe7c
     c64:	656e6f6e 	strbvs	r6, [lr, #-3950]!	; 0xf6e
     c68:	6261652d 	rsbvs	r6, r1, #188743680	; 0xb400000
     c6c:	2e342f69 	cdpcs	15, 3, cr2, cr4, cr9, {3}
     c70:	2d332e38 	ldccs	14, cr2, [r3, #-224]!	; 0xffffff20
     c74:	37317363 	ldrcc	r7, [r1, -r3, ror #6]!
     c78:	6c2f6530 	cfstr32vs	mvfx6, [pc], #-192	; bc0 <_start-0x7440>
     c7c:	672f6269 	strvs	r6, [pc, -r9, ror #4]!
     c80:	612f6363 	teqvs	pc, r3, ror #6
     c84:	6e2d6d72 	mcrvs	13, 1, r6, cr13, cr2, {3}
     c88:	2d656e6f 	stclcs	14, cr6, [r5, #-444]!	; 0xfffffe44
     c8c:	69626165 	stmdbvs	r2!, {r0, r2, r5, r6, r8, sp, lr}^
     c90:	382e342f 	stmdacc	lr!, {r0, r1, r2, r3, r5, sl, ip, sp}
     c94:	692f332e 	stmdbvs	pc!, {r1, r2, r3, r5, r8, r9, ip, sp}	; <UNPREDICTABLE>
     c98:	756c636e 	strbvc	r6, [ip, #-878]!	; 0x36e
     c9c:	2f006564 	svccs	0x00006564
     ca0:	72657355 	rsbvc	r7, r5, #1409286145	; 0x54000001
     ca4:	72622f73 	rsbvc	r2, r2, #460	; 0x1cc
     ca8:	6a6e6169 	bvs	1b99254 <__bss_end__+0x1b8eabc>
     cac:	442f6e75 	strtmi	r6, [pc], #-3701	; cb4 <_start-0x734c>
     cb0:	746b7365 	strbtvc	r7, [fp], #-869	; 0x365
     cb4:	732f706f 	teqvc	pc, #111	; 0x6f
     cb8:	6f6f6863 	svcvs	0x006f6863
     cbc:	69572f6c 	ldmdbvs	r7, {r2, r3, r5, r6, r8, r9, sl, fp, sp}^
     cc0:	7265746e 	rsbvc	r7, r5, #1845493760	; 0x6e000000
     cc4:	30323931 	eorscc	r3, r2, r1, lsr r9
     cc8:	3153432f 	cmpcc	r3, pc, lsr #6
     ccc:	2f453034 	svccs	0x00453034
     cd0:	34317363 	ldrtcc	r7, [r1], #-867	; 0x363
     cd4:	322d6530 	eorcc	r6, sp, #48, 10	; 0xc000000
     cd8:	6e697730 	mcrvs	7, 3, r7, cr9, cr0, {1}
     cdc:	62696c2f 	rsbvs	r6, r9, #12032	; 0x2f00
     ce0:	2f006970 	svccs	0x00006970
     ce4:	72657355 	rsbvc	r7, r5, #1409286145	; 0x54000001
     ce8:	72622f73 	rsbvc	r2, r2, #460	; 0x1cc
     cec:	6a6e6169 	bvs	1b99298 <__bss_end__+0x1b8eb00>
     cf0:	442f6e75 	strtmi	r6, [pc], #-3701	; cf8 <_start-0x7308>
     cf4:	746b7365 	strbtvc	r7, [fp], #-869	; 0x365
     cf8:	732f706f 	teqvc	pc, #111	; 0x6f
     cfc:	6f6f6863 	svcvs	0x006f6863
     d00:	69572f6c 	ldmdbvs	r7, {r2, r3, r5, r6, r8, r9, sl, fp, sp}^
     d04:	7265746e 	rsbvc	r7, r5, #1845493760	; 0x6e000000
     d08:	30323931 	eorscc	r3, r2, r1, lsr r9
     d0c:	3153432f 	cmpcc	r3, pc, lsr #6
     d10:	2f453034 	svccs	0x00453034
     d14:	34317363 	ldrtcc	r7, [r1], #-867	; 0x363
     d18:	322d6530 	eorcc	r6, sp, #48, 10	; 0xc000000
     d1c:	6e697730 	mcrvs	7, 3, r7, cr9, cr0, {1}
     d20:	62696c2f 	rsbvs	r6, r9, #12032	; 0x2f00
     d24:	6c2f6970 	stcvs	9, cr6, [pc], #-448	; b6c <_start-0x7494>
     d28:	00636269 	rsbeq	r6, r3, r9, ror #4
     d2c:	2d777300 	ldclcs	3, cr7, [r7, #-0]
     d30:	74726175 	ldrbtvc	r6, [r2], #-373	; 0x175
     d34:	0100632e 	tsteq	r0, lr, lsr #6
     d38:	79630000 	stmdbvc	r3!, {}^	; <UNPREDICTABLE>
     d3c:	2d656c63 	stclcs	12, cr6, [r5, #-396]!	; 0xfffffe74
     d40:	6c697475 	cfstrdvs	mvd7, [r9], #-468	; 0xfffffe2c
     d44:	0200682e 	andeq	r6, r0, #3014656	; 0x2e0000
     d48:	74730000 	ldrbtvc	r0, [r3], #-0
     d4c:	746e6964 	strbtvc	r6, [lr], #-2404	; 0x964
     d50:	6363672d 	cmnvs	r3, #11796480	; 0xb40000
     d54:	0300682e 	movweq	r6, #2094	; 0x82e
     d58:	77730000 	ldrbvc	r0, [r3, -r0]!
     d5c:	7261752d 	rsbvc	r7, r1, #188743680	; 0xb400000
     d60:	00682e74 	rsbeq	r2, r8, r4, ror lr
     d64:	73000002 	movwvc	r0, #2
     d68:	72616474 	rsbvc	r6, r1, #116, 8	; 0x74000000
     d6c:	00682e67 	rsbeq	r2, r8, r7, ror #28
     d70:	67000003 	strvs	r0, [r0, -r3]
     d74:	2e6f6970 	mcrcs	9, 3, r6, cr15, cr0, {3}
     d78:	00020068 	andeq	r0, r2, r8, rrx
     d7c:	69707200 	ldmdbvs	r0!, {r9, ip, sp, lr}^
     d80:	0400682e 	streq	r6, [r0], #-2094	; 0x82e
     d84:	61760000 	cmnvs	r6, r0
     d88:	6972702d 	ldmdbvs	r2!, {r0, r2, r3, r5, ip, sp, lr}^
     d8c:	2e6b746e 	cdpcs	4, 6, cr7, cr11, cr14, {3}
     d90:	00050068 	andeq	r0, r5, r8, rrx
     d94:	75623c00 	strbvc	r3, [r2, #-3072]!	; 0xc00
     d98:	2d746c69 	ldclcs	12, cr6, [r4, #-420]!	; 0xfffffe5c
     d9c:	003e6e69 	eorseq	r6, lr, r9, ror #28
     da0:	00000000 	andeq	r0, r0, r0
     da4:	4c020500 	cfstr32mi	mvfx0, [r2], {-0}
     da8:	1a000093 	bne	ffc <_start-0x7004>
     dac:	04302f4c 	ldrteq	r2, [r0], #-3916	; 0xf4c
     db0:	2e0b0302 	cdpcs	3, 0, cr0, cr11, cr2, {0}
     db4:	04667303 	strbteq	r7, [r6], #-771	; 0x303
     db8:	02048801 	andeq	r8, r4, #65536	; 0x10000
     dbc:	66730335 			; <UNDEFINED> instruction: 0x66730335
     dc0:	048a0104 	streq	r0, [sl], #260	; 0x104
     dc4:	73033302 	movwvc	r3, #13058	; 0x3302
     dc8:	03010466 	movweq	r0, #5222	; 0x1466
     dcc:	0204820a 	andeq	r8, r4, #-1610612736	; 0xa0000000
     dd0:	66730331 			; <UNDEFINED> instruction: 0x66730331
     dd4:	0c030104 	stfeqs	f0, [r3], {4}
     dd8:	2f020482 	svccs	0x00020482
     ddc:	04667303 	strbteq	r7, [r6], #-771	; 0x303
     de0:	820e0301 	andhi	r0, lr, #67108864	; 0x4000000
     de4:	032d0204 	teqeq	sp, #4, 4	; 0x40000000
     de8:	01046673 	tsteq	r4, r3, ror r6
     dec:	04821003 	streq	r1, [r2], #3
     df0:	73032b02 	movwvc	r2, #15106	; 0x3b02
     df4:	03010466 	movweq	r0, #5222	; 0x1466
     df8:	02048212 	andeq	r8, r4, #536870913	; 0x20000001
     dfc:	66730329 	ldrbtvs	r0, [r3], -r9, lsr #6
     e00:	14030104 	strne	r0, [r3], #-260	; 0x104
     e04:	03020482 	movweq	r0, #9346	; 0x2482
     e08:	73032e79 	movwvc	r2, #15993	; 0x3e79
     e0c:	03010466 	movweq	r0, #5222	; 0x1466
     e10:	02048216 	andeq	r8, r4, #1610612737	; 0x60000001
     e14:	032e7703 	teqeq	lr, #786432	; 0xc0000
     e18:	01046673 	tsteq	r4, r3, ror r6
     e1c:	03821803 	orreq	r1, r2, #196608	; 0x30000
     e20:	4d4b2e10 	stclmi	14, cr2, [fp, #-64]	; 0xffffffc0
     e24:	4c2e7003 	stcmi	0, cr7, [lr], #-12
     e28:	03488384 	movteq	r8, #33668	; 0x8384
     e2c:	314e2e0d 	cmpcc	lr, sp, lsl #28
     e30:	03020433 	movweq	r0, #9267	; 0x2433
     e34:	01042e48 	tsteq	r4, r8, asr #28
     e38:	2f823a03 	svccs	0x00823a03
     e3c:	45030204 	strmi	r0, [r3, #-516]	; 0x204
     e40:	03010466 	movweq	r0, #5222	; 0x1466
     e44:	042f823d 	strteq	r8, [pc], #-573	; e4c <_start-0x71b4>
     e48:	82420302 	subhi	r0, r2, #134217728	; 0x8000000
     e4c:	c0030104 	andgt	r0, r3, r4, lsl #2
     e50:	042f8200 	strteq	r8, [pc], #-512	; e58 <_start-0x71a8>
     e54:	7fbf0302 	svcvc	0x00bf0302
     e58:	03010482 	movweq	r0, #5250	; 0x1482
     e5c:	2f8200c3 	svccs	0x008200c3
     e60:	bc030204 	sfmlt	f0, 4, [r3], {4}
     e64:	0104827f 	tsteq	r4, pc, ror r2
     e68:	8200c603 	andhi	ip, r0, #3145728	; 0x300000
     e6c:	0302042f 	movweq	r0, #9263	; 0x242f
     e70:	04827fb9 	streq	r7, [r2], #4025	; 0xfb9
     e74:	00c90301 	sbceq	r0, r9, r1, lsl #6
     e78:	02042f82 	andeq	r2, r4, #520	; 0x208
     e7c:	827fb603 	rsbshi	fp, pc, #3145728	; 0x300000
     e80:	cc030104 	stfgts	f0, [r3], {4}
     e84:	042f8200 	strteq	r8, [pc], #-512	; e8c <_start-0x7174>
     e88:	7fb30302 	svcvc	0x00b30302
     e8c:	03010482 	movweq	r0, #5250	; 0x1482
     e90:	038200d0 	orreq	r0, r2, #208	; 0xd0
     e94:	844c824c 	strbhi	r8, [ip], #-588	; 0x24c
     e98:	36034883 	strcc	r4, [r3], -r3, lsl #17
     e9c:	54034e2e 	strpl	r4, [r3], #-3630	; 0xe2e
     ea0:	4a29034a 	bmi	a41bd0 <__bss_end__+0xa37438>
     ea4:	00bb3432 	adcseq	r3, fp, r2, lsr r4
     ea8:	06010402 	streq	r0, [r1], -r2, lsl #8
     eac:	2108064a 	tstcs	r8, sl, asr #12
     eb0:	2cbb4b4e 	vldmiacs	fp!, {d4-<overflow reg d42>}
     eb4:	01040200 	mrseq	r0, R12_usr
     eb8:	6d062e06 	stcvs	14, cr2, [r6, #-24]	; 0xffffffe8
     ebc:	00a0dc4c 	adceq	sp, r0, ip, asr #24
     ec0:	06010402 	streq	r0, [r1], -r2, lsl #8
     ec4:	2108064a 	tstcs	r8, sl, asr #12
     ec8:	0402004d 	streq	r0, [r2], #-77	; 0x4d
     ecc:	02004b02 	andeq	r4, r0, #2048	; 0x800
     ed0:	00810204 	addeq	r0, r1, r4, lsl #4
     ed4:	06010402 	streq	r0, [r1], -r2, lsl #8
     ed8:	4c4d062e 	mcrrmi	6, 2, r0, sp, cr14
     edc:	4b4bd8dd 	blmi	12f7258 <__bss_end__+0x12ecac0>
     ee0:	002f6a4b 	eoreq	r6, pc, fp, asr #20
     ee4:	06010402 	streq	r0, [r1], -r2, lsl #8
     ee8:	02008282 	andeq	r8, r0, #536870920	; 0x20000008
     eec:	009e0404 	addseq	r0, lr, r4, lsl #8
     ef0:	4a010402 	bmi	41f00 <__bss_end__+0x37768>
     ef4:	88230806 	stmdahi	r3!, {r1, r2, fp}
     ef8:	4b4b2ff5 	blmi	12cced4 <__bss_end__+0x12c273c>
     efc:	00674008 	rsbeq	r4, r7, r8
     f00:	2f020402 	svccs	0x00020402
     f04:	02040200 	andeq	r0, r4, #0, 4
     f08:	04020049 	streq	r0, [r2], #-73	; 0x49
     f0c:	062e0601 	strteq	r0, [lr], -r1, lsl #12
     f10:	4b863468 	blmi	fe18e0b8 <__bss_end__+0xfe183920>
     f14:	040200a0 	streq	r0, [r2], #-160	; 0xa0
     f18:	06660601 	strbteq	r0, [r6], -r1, lsl #12
     f1c:	08682108 	stmdaeq	r8!, {r3, r8, sp}^
     f20:	4b674b3e 	blmi	19d3c20 <__bss_end__+0x19c9488>
     f24:	000a02d8 	ldrdeq	r0, [sl], -r8
     f28:	01010101 	tsteq	r1, r1, lsl #2
     f2c:	00020000 	andeq	r0, r2, r0
     f30:	000000ca 	andeq	r0, r0, sl, asr #1
     f34:	0efb0102 	cdpeq	1, 15, cr0, cr11, cr2, {0}
     f38:	0101000d 	tsteq	r1, sp
     f3c:	00000101 	andeq	r0, r0, r1, lsl #2
     f40:	00000100 	andeq	r0, r0, r0, lsl #2
     f44:	2d796d01 	ldclcs	13, cr6, [r9, #-4]!
     f48:	00637273 	rsbeq	r7, r3, r3, ror r2
     f4c:	6573552f 	ldrbvs	r5, [r3, #-1327]!	; 0x52f
     f50:	622f7372 	eorvs	r7, pc, #-939524095	; 0xc8000001
     f54:	6e616972 	mcrvs	9, 3, r6, cr1, cr2, {3}
     f58:	2f6e756a 	svccs	0x006e756a
     f5c:	6b736544 	blvs	1cda474 <__bss_end__+0x1ccfcdc>
     f60:	2f706f74 	svccs	0x00706f74
     f64:	6f686373 	svcvs	0x00686373
     f68:	572f6c6f 	strpl	r6, [pc, -pc, ror #24]!
     f6c:	65746e69 	ldrbvs	r6, [r4, #-3689]!	; 0xe69
     f70:	32393172 	eorscc	r3, r9, #-2147483620	; 0x8000001c
     f74:	53432f30 	movtpl	r2, #16176	; 0x3f30
     f78:	45303431 	ldrmi	r3, [r0, #-1073]!	; 0x431
     f7c:	3173632f 	cmncc	r3, pc, lsr #6
     f80:	2d653034 	stclcs	0, cr3, [r5, #-208]!	; 0xffffff30
     f84:	69773032 	ldmdbvs	r7!, {r1, r4, r5, ip, sp}^
     f88:	696c2f6e 	stmdbvs	ip!, {r1, r2, r3, r5, r6, r8, r9, sl, fp, sp}^
     f8c:	2f697062 	svccs	0x00697062
     f90:	34317363 	ldrtcc	r7, [r1], #-867	; 0x363
     f94:	732d6530 	teqvc	sp, #48, 10	; 0xc000000
     f98:	2f006372 	svccs	0x00006372
     f9c:	72657355 	rsbvc	r7, r5, #1409286145	; 0x54000001
     fa0:	72622f73 	rsbvc	r2, r2, #460	; 0x1cc
     fa4:	6a6e6169 	bvs	1b99550 <__bss_end__+0x1b8edb8>
     fa8:	442f6e75 	strtmi	r6, [pc], #-3701	; fb0 <_start-0x7050>
     fac:	746b7365 	strbtvc	r7, [fp], #-869	; 0x365
     fb0:	732f706f 	teqvc	pc, #111	; 0x6f
     fb4:	6f6f6863 	svcvs	0x006f6863
     fb8:	69572f6c 	ldmdbvs	r7, {r2, r3, r5, r6, r8, r9, sl, fp, sp}^
     fbc:	7265746e 	rsbvc	r7, r5, #1845493760	; 0x6e000000
     fc0:	30323931 	eorscc	r3, r2, r1, lsr r9
     fc4:	3153432f 	cmpcc	r3, pc, lsr #6
     fc8:	2f453034 	svccs	0x00453034
     fcc:	34317363 	ldrtcc	r7, [r1], #-867	; 0x363
     fd0:	322d6530 	eorcc	r6, sp, #48, 10	; 0xc000000
     fd4:	6e697730 	mcrvs	7, 3, r7, cr9, cr0, {1}
     fd8:	62696c2f 	rsbvs	r6, r9, #12032	; 0x2f00
     fdc:	00006970 	andeq	r6, r0, r0, ror r9
     fe0:	74726175 	ldrbtvc	r6, [r2], #-373	; 0x175
     fe4:	0100632e 	tsteq	r0, lr, lsr #6
     fe8:	70670000 	rsbvc	r0, r7, r0
     fec:	682e6f69 	stmdavs	lr!, {r0, r3, r5, r6, r8, r9, sl, fp, sp, lr}
     ff0:	00000200 	andeq	r0, r0, r0, lsl #4
     ff4:	2e697072 	mcrcs	0, 3, r7, cr9, cr2, {3}
     ff8:	00030068 	andeq	r0, r3, r8, rrx
     ffc:	05000000 	streq	r0, [r0, #-0]
    1000:	0099b402 	addseq	fp, r9, r2, lsl #8
    1004:	01360300 	teqeq	r6, r0, lsl #6
    1008:	6d673330 	stclvs	3, cr3, [r7, #-192]!	; 0xffffff40
    100c:	6730d830 			; <UNDEFINED> instruction: 0x6730d830
    1010:	67676767 	strbvs	r6, [r7, -r7, ror #14]!
    1014:	672f8668 	strvs	r8, [pc, -r8, ror #12]!
    1018:	6767306a 	strbvs	r3, [r7, -sl, rrx]!
    101c:	6a672f69 	bvs	19ccdc8 <__bss_end__+0x19c2630>
    1020:	2fc1674c 	svccs	0x00c1674c
    1024:	682f302f 	stmdavs	pc!, {r0, r1, r2, r3, r5, ip, sp}	; <UNPREDICTABLE>
    1028:	02023049 	andeq	r3, r2, #73	; 0x49
    102c:	c9010100 	stmdbgt	r1, {r8}
    1030:	02000000 	andeq	r0, r0, #0
    1034:	00009700 	andeq	r9, r0, r0, lsl #14
    1038:	fb010200 	blx	41842 <__bss_end__+0x370aa>
    103c:	01000d0e 	tsteq	r0, lr, lsl #26
    1040:	00010101 	andeq	r0, r1, r1, lsl #2
    1044:	00010000 	andeq	r0, r1, r0
    1048:	73630100 	cmnvc	r3, #0, 2
    104c:	65303431 	ldrvs	r3, [r0, #-1073]!	; 0x431
    1050:	746e692d 	strbtvc	r6, [lr], #-2349	; 0x92d
    1054:	75727265 	ldrbvc	r7, [r2, #-613]!	; 0x265
    1058:	2f007470 	svccs	0x00007470
    105c:	72657355 	rsbvc	r7, r5, #1409286145	; 0x54000001
    1060:	72622f73 	rsbvc	r2, r2, #460	; 0x1cc
    1064:	6a6e6169 	bvs	1b99610 <__bss_end__+0x1b8ee78>
    1068:	442f6e75 	strtmi	r6, [pc], #-3701	; 1070 <_start-0x6f90>
    106c:	746b7365 	strbtvc	r7, [fp], #-869	; 0x365
    1070:	732f706f 	teqvc	pc, #111	; 0x6f
    1074:	6f6f6863 	svcvs	0x006f6863
    1078:	69572f6c 	ldmdbvs	r7, {r2, r3, r5, r6, r8, r9, sl, fp, sp}^
    107c:	7265746e 	rsbvc	r7, r5, #1845493760	; 0x6e000000
    1080:	30323931 	eorscc	r3, r2, r1, lsr r9
    1084:	3153432f 	cmpcc	r3, pc, lsr #6
    1088:	2f453034 	svccs	0x00453034
    108c:	34317363 	ldrtcc	r7, [r1], #-867	; 0x363
    1090:	322d6530 	eorcc	r6, sp, #48, 10	; 0xc000000
    1094:	6e697730 	mcrvs	7, 3, r7, cr9, cr0, {1}
    1098:	62696c2f 	rsbvs	r6, r9, #12032	; 0x2f00
    109c:	00006970 	andeq	r6, r0, r0, ror r9
    10a0:	65746e69 	ldrbvs	r6, [r4, #-3689]!	; 0xe69
    10a4:	70757272 	rsbsvc	r7, r5, r2, ror r2
    10a8:	632d7374 	teqvs	sp, #116, 6	; 0xd0000001
    10ac:	0100632e 	tsteq	r0, lr, lsr #6
    10b0:	70720000 	rsbsvc	r0, r2, r0
    10b4:	00682e69 	rsbeq	r2, r8, r9, ror #28
    10b8:	72000002 	andvc	r0, r0, #2
    10bc:	692d6970 	pushvs	{r4, r5, r6, r8, fp, sp, lr}
    10c0:	7265746e 	rsbvc	r7, r5, #1845493760	; 0x6e000000
    10c4:	74707572 	ldrbtvc	r7, [r0], #-1394	; 0x572
    10c8:	00682e73 	rsbeq	r2, r8, r3, ror lr
    10cc:	00000001 	andeq	r0, r0, r1
    10d0:	08020500 	stmdaeq	r2, {r8, sl}
    10d4:	0300009b 	movweq	r0, #155	; 0x9b
    10d8:	6731011a 			; <UNDEFINED> instruction: 0x6731011a
    10dc:	2e090367 	cdpcs	3, 0, cr0, cr9, cr7, {3}
    10e0:	002d2f83 	eoreq	r2, sp, r3, lsl #31
    10e4:	2f020402 	svccs	0x00020402
    10e8:	02040200 	andeq	r0, r4, #0, 4
    10ec:	04020065 	streq	r0, [r2], #-101	; 0x65
    10f0:	062e0601 	strteq	r0, [lr], -r1, lsl #12
    10f4:	0267a04c 	rsbeq	sl, r7, #76	; 0x4c
    10f8:	0101001c 	tsteq	r1, ip, lsl r0
    10fc:	00000128 	andeq	r0, r0, r8, lsr #2
    1100:	010d0002 	tsteq	sp, r2
    1104:	01020000 	mrseq	r0, (UNDEF: 2)
    1108:	000d0efb 	strdeq	r0, [sp], -fp
    110c:	01010101 	tsteq	r1, r1, lsl #2
    1110:	01000000 	mrseq	r0, (UNDEF: 0)
    1114:	63010000 	movwvs	r0, #4096	; 0x1000
    1118:	30343173 	eorscc	r3, r4, r3, ror r1
    111c:	72732d65 	rsbsvc	r2, r3, #6464	; 0x1940
    1120:	752f0063 	strvc	r0, [pc, #-99]!	; 10c5 <_start-0x6f3b>
    1124:	6c2f7273 	sfmvs	f7, 4, [pc], #-460	; f60 <_start-0x70a0>
    1128:	6c61636f 	stclvs	3, cr6, [r1], #-444	; 0xfffffe44
    112c:	6c65432f 	stclvs	3, cr4, [r5], #-188	; 0xffffff44
    1130:	2f72616c 	svccs	0x0072616c
    1134:	2d6d7261 	sfmcs	f7, 2, [sp, #-388]!	; 0xfffffe7c
    1138:	656e6f6e 	strbvs	r6, [lr, #-3950]!	; 0xf6e
    113c:	6261652d 	rsbvs	r6, r1, #188743680	; 0xb400000
    1140:	2e342f69 	cdpcs	15, 3, cr2, cr4, cr9, {3}
    1144:	2d332e38 	ldccs	14, cr2, [r3, #-224]!	; 0xffffff20
    1148:	37317363 	ldrcc	r7, [r1, -r3, ror #6]!
    114c:	6c2f6530 	cfstr32vs	mvfx6, [pc], #-192	; 1094 <_start-0x6f6c>
    1150:	672f6269 	strvs	r6, [pc, -r9, ror #4]!
    1154:	612f6363 	teqvs	pc, r3, ror #6
    1158:	6e2d6d72 	mcrvs	13, 1, r6, cr13, cr2, {3}
    115c:	2d656e6f 	stclcs	14, cr6, [r5, #-444]!	; 0xfffffe44
    1160:	69626165 	stmdbvs	r2!, {r0, r2, r5, r6, r8, sp, lr}^
    1164:	382e342f 	stmdacc	lr!, {r0, r1, r2, r3, r5, sl, ip, sp}
    1168:	692f332e 	stmdbvs	pc!, {r1, r2, r3, r5, r8, r9, ip, sp}	; <UNPREDICTABLE>
    116c:	756c636e 	strbvc	r6, [ip, #-878]!	; 0x36e
    1170:	2f006564 	svccs	0x00006564
    1174:	2f727375 	svccs	0x00727375
    1178:	61636f6c 	cmnvs	r3, ip, ror #30
    117c:	65432f6c 	strbvs	r2, [r3, #-3948]	; 0xf6c
    1180:	72616c6c 	rsbvc	r6, r1, #108, 24	; 0x6c00
    1184:	6d72612f 	ldfvse	f6, [r2, #-188]!	; 0xffffff44
    1188:	6e6f6e2d 	cdpvs	14, 6, cr6, cr15, cr13, {1}
    118c:	61652d65 	cmnvs	r5, r5, ror #26
    1190:	342f6962 	strtcc	r6, [pc], #-2402	; 1198 <_start-0x6e68>
    1194:	332e382e 	teqcc	lr, #3014656	; 0x2e0000
    1198:	3173632d 	cmncc	r3, sp, lsr #6
    119c:	2f653037 	svccs	0x00653037
    11a0:	2d6d7261 	sfmcs	f7, 2, [sp, #-388]!	; 0xfffffe7c
    11a4:	656e6f6e 	strbvs	r6, [lr, #-3950]!	; 0xf6e
    11a8:	6261652d 	rsbvs	r6, r1, #188743680	; 0xb400000
    11ac:	6e692f69 	cdpvs	15, 6, cr2, cr9, cr9, {3}
    11b0:	64756c63 	ldrbtvs	r6, [r5], #-3171	; 0xc63
    11b4:	63000065 	movwvs	r0, #101	; 0x65
    11b8:	72746e6f 	rsbsvc	r6, r4, #1776	; 0x6f0
    11bc:	622d6c6f 	eorvs	r6, sp, #28416	; 0x6f00
    11c0:	6b636f6c 	blvs	18dcf78 <__bss_end__+0x18d27e0>
    11c4:	0100632e 	tsteq	r0, lr, lsr #6
    11c8:	74730000 	ldrbtvc	r0, [r3], #-0
    11cc:	66656464 	strbtvs	r6, [r5], -r4, ror #8
    11d0:	0200682e 	andeq	r6, r0, #3014656	; 0x2e0000
    11d4:	74730000 	ldrbtvc	r0, [r3], #-0
    11d8:	746e6964 	strbtvc	r6, [lr], #-2404	; 0x964
    11dc:	6363672d 	cmnvs	r3, #11796480	; 0xb40000
    11e0:	0200682e 	andeq	r6, r0, #3014656	; 0x2e0000
    11e4:	77730000 	ldrbvc	r0, [r3, -r0]!
    11e8:	7261752d 	rsbvc	r7, r1, #188743680	; 0xb400000
    11ec:	00682e74 	rsbeq	r2, r8, r4, ror lr
    11f0:	63000001 	movwvs	r0, #1
    11f4:	72746e6f 	rsbsvc	r6, r4, #1776	; 0x6f0
    11f8:	622d6c6f 	eorvs	r6, sp, #28416	; 0x6f00
    11fc:	6b636f6c 	blvs	18dcfb4 <__bss_end__+0x18d281c>
    1200:	0100682e 	tsteq	r0, lr, lsr #16
    1204:	74730000 	ldrbtvc	r0, [r3], #-0
    1208:	676e6972 			; <UNDEFINED> instruction: 0x676e6972
    120c:	0300682e 	movweq	r6, #2094	; 0x82e
    1210:	00000000 	andeq	r0, r0, r0
    1214:	9d040205 	sfmls	f0, 4, [r4, #-20]	; 0xffffffec
    1218:	30160000 	andscc	r0, r6, r0
    121c:	144c6883 	strbne	r6, [ip], #-2179	; 0x883
    1220:	022f4b9f 	eoreq	r4, pc, #162816	; 0x27c00
    1224:	01010004 	tsteq	r1, r4
    1228:	000000a5 	andeq	r0, r0, r5, lsr #1
    122c:	00910002 	addseq	r0, r1, r2
    1230:	01020000 	mrseq	r0, (UNDEF: 2)
    1234:	000d0efb 	strdeq	r0, [sp], -fp
    1238:	01010101 	tsteq	r1, r1, lsl #2
    123c:	01000000 	mrseq	r0, (UNDEF: 0)
    1240:	63010000 	movwvs	r0, #4096	; 0x1000
    1244:	30343173 	eorscc	r3, r4, r3, ror r1
    1248:	6e692d65 	cdpvs	13, 6, cr2, cr9, cr5, {3}
    124c:	72726574 	rsbsvc	r6, r2, #116, 10	; 0x1d000000
    1250:	00747075 	rsbseq	r7, r4, r5, ror r0
    1254:	6573552f 	ldrbvs	r5, [r3, #-1327]!	; 0x52f
    1258:	622f7372 	eorvs	r7, pc, #-939524095	; 0xc8000001
    125c:	6e616972 	mcrvs	9, 3, r6, cr1, cr2, {3}
    1260:	2f6e756a 	svccs	0x006e756a
    1264:	6b736544 	blvs	1cda77c <__bss_end__+0x1ccffe4>
    1268:	2f706f74 	svccs	0x00706f74
    126c:	6f686373 	svcvs	0x00686373
    1270:	572f6c6f 	strpl	r6, [pc, -pc, ror #24]!
    1274:	65746e69 	ldrbvs	r6, [r4, #-3689]!	; 0xe69
    1278:	32393172 	eorscc	r3, r9, #-2147483620	; 0x8000001c
    127c:	53432f30 	movtpl	r2, #16176	; 0x3f30
    1280:	45303431 	ldrmi	r3, [r0, #-1073]!	; 0x431
    1284:	3173632f 	cmncc	r3, pc, lsr #6
    1288:	2d653034 	stclcs	0, cr3, [r5, #-208]!	; 0xffffff30
    128c:	69773032 	ldmdbvs	r7!, {r1, r4, r5, ip, sp}^
    1290:	696c2f6e 	stmdbvs	ip!, {r1, r2, r3, r5, r6, r8, r9, sl, fp, sp}^
    1294:	00697062 	rsbeq	r7, r9, r2, rrx
    1298:	66656400 	strbtvs	r6, [r5], -r0, lsl #8
    129c:	746c7561 	strbtvc	r7, [ip], #-1377	; 0x561
    12a0:	6e61682d 	cdpvs	8, 6, cr6, cr1, cr13, {1}
    12a4:	72656c64 	rsbvc	r6, r5, #100, 24	; 0x6400
    12a8:	7461642d 	strbtvc	r6, [r1], #-1069	; 0x42d
    12ac:	62612d61 	rsbvs	r2, r1, #6208	; 0x1840
    12b0:	2e74726f 	cdpcs	2, 7, cr7, cr4, cr15, {3}
    12b4:	00010063 	andeq	r0, r1, r3, rrx
    12b8:	69707200 	ldmdbvs	r0!, {r9, ip, sp, lr}^
    12bc:	0200682e 	andeq	r6, r0, #3014656	; 0x2e0000
    12c0:	00000000 	andeq	r0, r0, r0
    12c4:	9d540205 	lfmls	f0, 2, [r4, #-20]	; 0xffffffec
    12c8:	66130000 	ldrvs	r0, [r3], -r0
    12cc:	01001c02 	tsteq	r0, r2, lsl #24
    12d0:	0000a301 	andeq	sl, r0, r1, lsl #6
    12d4:	8f000200 	svchi	0x00000200
    12d8:	02000000 	andeq	r0, r0, #0
    12dc:	0d0efb01 	vstreq	d15, [lr, #-4]
    12e0:	01010100 	mrseq	r0, (UNDEF: 17)
    12e4:	00000001 	andeq	r0, r0, r1
    12e8:	01000001 	tsteq	r0, r1
    12ec:	34317363 	ldrtcc	r7, [r1], #-867	; 0x363
    12f0:	692d6530 	pushvs	{r4, r5, r8, sl, sp, lr}
    12f4:	7265746e 	rsbvc	r7, r5, #1845493760	; 0x6e000000
    12f8:	74707572 	ldrbtvc	r7, [r0], #-1394	; 0x572
    12fc:	73552f00 	cmpvc	r5, #0, 30
    1300:	2f737265 	svccs	0x00737265
    1304:	61697262 	cmnvs	r9, r2, ror #4
    1308:	6e756a6e 	vsubvs.f32	s13, s10, s29
    130c:	7365442f 	cmnvc	r5, #788529152	; 0x2f000000
    1310:	706f746b 	rsbvc	r7, pc, fp, ror #8
    1314:	6863732f 	stmdavs	r3!, {r0, r1, r2, r3, r5, r8, r9, ip, sp, lr}^
    1318:	2f6c6f6f 	svccs	0x006c6f6f
    131c:	746e6957 	strbtvc	r6, [lr], #-2391	; 0x957
    1320:	39317265 	ldmdbcc	r1!, {r0, r2, r5, r6, r9, ip, sp, lr}
    1324:	432f3032 	teqmi	pc, #50	; 0x32
    1328:	30343153 	eorscc	r3, r4, r3, asr r1
    132c:	73632f45 	cmnvc	r3, #276	; 0x114
    1330:	65303431 	ldrvs	r3, [r0, #-1073]!	; 0x431
    1334:	7730322d 	ldrvc	r3, [r0, -sp, lsr #4]!
    1338:	6c2f6e69 	stcvs	14, cr6, [pc], #-420	; 119c <_start-0x6e64>
    133c:	69706269 	ldmdbvs	r0!, {r0, r3, r5, r6, r9, sp, lr}^
    1340:	65640000 	strbvs	r0, [r4, #-0]!
    1344:	6c756166 	ldfvse	f6, [r5], #-408	; 0xfffffe68
    1348:	61682d74 	smcvs	33492	; 0x82d4
    134c:	656c646e 	strbvs	r6, [ip, #-1134]!	; 0x46e
    1350:	72702d72 	rsbsvc	r2, r0, #7296	; 0x1c80
    1354:	74656665 	strbtvc	r6, [r5], #-1637	; 0x665
    1358:	632e6863 	teqvs	lr, #6488064	; 0x630000
    135c:	00000100 	andeq	r0, r0, r0, lsl #2
    1360:	2e697072 	mcrcs	0, 3, r7, cr9, cr2, {3}
    1364:	00020068 	andeq	r0, r2, r8, rrx
    1368:	05000000 	streq	r0, [r0, #-0]
    136c:	009d9802 	addseq	r9, sp, r2, lsl #16
    1370:	02661300 	rsbeq	r1, r6, #0, 6
    1374:	0101001c 	tsteq	r1, ip, lsl r0
    1378:	000000a0 	andeq	r0, r0, r0, lsr #1
    137c:	008c0002 	addeq	r0, ip, r2
    1380:	01020000 	mrseq	r0, (UNDEF: 2)
    1384:	000d0efb 	strdeq	r0, [sp], -fp
    1388:	01010101 	tsteq	r1, r1, lsl #2
    138c:	01000000 	mrseq	r0, (UNDEF: 0)
    1390:	63010000 	movwvs	r0, #4096	; 0x1000
    1394:	30343173 	eorscc	r3, r4, r3, ror r1
    1398:	6e692d65 	cdpvs	13, 6, cr2, cr9, cr5, {3}
    139c:	72726574 	rsbsvc	r6, r2, #116, 10	; 0x1d000000
    13a0:	00747075 	rsbseq	r7, r4, r5, ror r0
    13a4:	6573552f 	ldrbvs	r5, [r3, #-1327]!	; 0x52f
    13a8:	622f7372 	eorvs	r7, pc, #-939524095	; 0xc8000001
    13ac:	6e616972 	mcrvs	9, 3, r6, cr1, cr2, {3}
    13b0:	2f6e756a 	svccs	0x006e756a
    13b4:	6b736544 	blvs	1cda8cc <__bss_end__+0x1cd0134>
    13b8:	2f706f74 	svccs	0x00706f74
    13bc:	6f686373 	svcvs	0x00686373
    13c0:	572f6c6f 	strpl	r6, [pc, -pc, ror #24]!
    13c4:	65746e69 	ldrbvs	r6, [r4, #-3689]!	; 0xe69
    13c8:	32393172 	eorscc	r3, r9, #-2147483620	; 0x8000001c
    13cc:	53432f30 	movtpl	r2, #16176	; 0x3f30
    13d0:	45303431 	ldrmi	r3, [r0, #-1073]!	; 0x431
    13d4:	3173632f 	cmncc	r3, pc, lsr #6
    13d8:	2d653034 	stclcs	0, cr3, [r5, #-208]!	; 0xffffff30
    13dc:	69773032 	ldmdbvs	r7!, {r1, r4, r5, ip, sp}^
    13e0:	696c2f6e 	stmdbvs	ip!, {r1, r2, r3, r5, r6, r8, r9, sl, fp, sp}^
    13e4:	00697062 	rsbeq	r7, r9, r2, rrx
    13e8:	66656400 	strbtvs	r6, [r5], -r0, lsl #8
    13ec:	746c7561 	strbtvc	r7, [ip], #-1377	; 0x561
    13f0:	6e61682d 	cdpvs	8, 6, cr6, cr1, cr13, {1}
    13f4:	72656c64 	rsbvc	r6, r5, #100, 24	; 0x6400
    13f8:	7365722d 	cmnvc	r5, #-805306366	; 0xd0000002
    13fc:	632e7465 	teqvs	lr, #1694498816	; 0x65000000
    1400:	00000100 	andeq	r0, r0, r0, lsl #2
    1404:	2e697072 	mcrcs	0, 3, r7, cr9, cr2, {3}
    1408:	00020068 	andeq	r0, r2, r8, rrx
    140c:	05000000 	streq	r0, [r0, #-0]
    1410:	009ddc02 	addseq	sp, sp, r2, lsl #24
    1414:	02661300 	rsbeq	r1, r6, #0, 6
    1418:	0101001c 	tsteq	r1, ip, lsl r0
    141c:	000000a9 	andeq	r0, r0, r9, lsr #1
    1420:	00950002 	addseq	r0, r5, r2
    1424:	01020000 	mrseq	r0, (UNDEF: 2)
    1428:	000d0efb 	strdeq	r0, [sp], -fp
    142c:	01010101 	tsteq	r1, r1, lsl #2
    1430:	01000000 	mrseq	r0, (UNDEF: 0)
    1434:	63010000 	movwvs	r0, #4096	; 0x1000
    1438:	30343173 	eorscc	r3, r4, r3, ror r1
    143c:	6e692d65 	cdpvs	13, 6, cr2, cr9, cr5, {3}
    1440:	72726574 	rsbsvc	r6, r2, #116, 10	; 0x1d000000
    1444:	00747075 	rsbseq	r7, r4, r5, ror r0
    1448:	6573552f 	ldrbvs	r5, [r3, #-1327]!	; 0x52f
    144c:	622f7372 	eorvs	r7, pc, #-939524095	; 0xc8000001
    1450:	6e616972 	mcrvs	9, 3, r6, cr1, cr2, {3}
    1454:	2f6e756a 	svccs	0x006e756a
    1458:	6b736544 	blvs	1cda970 <__bss_end__+0x1cd01d8>
    145c:	2f706f74 	svccs	0x00706f74
    1460:	6f686373 	svcvs	0x00686373
    1464:	572f6c6f 	strpl	r6, [pc, -pc, ror #24]!
    1468:	65746e69 	ldrbvs	r6, [r4, #-3689]!	; 0xe69
    146c:	32393172 	eorscc	r3, r9, #-2147483620	; 0x8000001c
    1470:	53432f30 	movtpl	r2, #16176	; 0x3f30
    1474:	45303431 	ldrmi	r3, [r0, #-1073]!	; 0x431
    1478:	3173632f 	cmncc	r3, pc, lsr #6
    147c:	2d653034 	stclcs	0, cr3, [r5, #-208]!	; 0xffffff30
    1480:	69773032 	ldmdbvs	r7!, {r1, r4, r5, ip, sp}^
    1484:	696c2f6e 	stmdbvs	ip!, {r1, r2, r3, r5, r6, r8, r9, sl, fp, sp}^
    1488:	00697062 	rsbeq	r7, r9, r2, rrx
    148c:	66656400 	strbtvs	r6, [r5], -r0, lsl #8
    1490:	746c7561 	strbtvc	r7, [ip], #-1377	; 0x561
    1494:	6e61682d 	cdpvs	8, 6, cr6, cr1, cr13, {1}
    1498:	72656c64 	rsbvc	r6, r5, #100, 24	; 0x6400
    149c:	646e752d 	strbtvs	r7, [lr], #-1325	; 0x52d
    14a0:	6e696665 	cdpvs	6, 6, cr6, cr9, cr5, {3}
    14a4:	692d6465 	pushvs	{r0, r2, r5, r6, sl, sp, lr}
    14a8:	2e74736e 	cdpcs	3, 7, cr7, cr4, cr14, {3}
    14ac:	00010063 	andeq	r0, r1, r3, rrx
    14b0:	69707200 	ldmdbvs	r0!, {r9, ip, sp, lr}^
    14b4:	0200682e 	andeq	r6, r0, #3014656	; 0x2e0000
    14b8:	00000000 	andeq	r0, r0, r0
    14bc:	9e200205 	cdpls	2, 2, cr0, cr0, cr5, {0}
    14c0:	66130000 	ldrvs	r0, [r3], -r0
    14c4:	01001c02 	tsteq	r0, r2, lsl #24
    14c8:	0000ec01 	andeq	lr, r0, r1, lsl #24
    14cc:	d0000200 	andle	r0, r0, r0, lsl #4
    14d0:	02000000 	andeq	r0, r0, #0
    14d4:	0d0efb01 	vstreq	d15, [lr, #-4]
    14d8:	01010100 	mrseq	r0, (UNDEF: 17)
    14dc:	00000001 	andeq	r0, r0, r1
    14e0:	01000001 	tsteq	r0, r1
    14e4:	6362696c 	cmnvs	r2, #108, 18	; 0x1b0000
    14e8:	73752f00 	cmnvc	r5, #0, 30
    14ec:	6f6c2f72 	svcvs	0x006c2f72
    14f0:	2f6c6163 	svccs	0x006c6163
    14f4:	6c6c6543 	cfstr64vs	mvdx6, [ip], #-268	; 0xfffffef4
    14f8:	612f7261 	teqvs	pc, r1, ror #4
    14fc:	6e2d6d72 	mcrvs	13, 1, r6, cr13, cr2, {3}
    1500:	2d656e6f 	stclcs	14, cr6, [r5, #-444]!	; 0xfffffe44
    1504:	69626165 	stmdbvs	r2!, {r0, r2, r5, r6, r8, sp, lr}^
    1508:	382e342f 	stmdacc	lr!, {r0, r1, r2, r3, r5, sl, ip, sp}
    150c:	632d332e 	teqvs	sp, #-1207959552	; 0xb8000000
    1510:	30373173 	eorscc	r3, r7, r3, ror r1
    1514:	696c2f65 	stmdbvs	ip!, {r0, r2, r5, r6, r8, r9, sl, fp, sp}^
    1518:	63672f62 	cmnvs	r7, #392	; 0x188
    151c:	72612f63 	rsbvc	r2, r1, #396	; 0x18c
    1520:	6f6e2d6d 	svcvs	0x006e2d6d
    1524:	652d656e 	strvs	r6, [sp, #-1390]!	; 0x56e
    1528:	2f696261 	svccs	0x00696261
    152c:	2e382e34 	mrccs	14, 1, r2, cr8, cr4, {1}
    1530:	6e692f33 	mcrvs	15, 3, r2, cr9, cr3, {1}
    1534:	64756c63 	ldrbtvs	r6, [r5], #-3171	; 0xc63
    1538:	752f0065 	strvc	r0, [pc, #-101]!	; 14db <_start-0x6b25>
    153c:	6c2f7273 	sfmvs	f7, 4, [pc], #-460	; 1378 <_start-0x6c88>
    1540:	6c61636f 	stclvs	3, cr6, [r1], #-444	; 0xfffffe44
    1544:	6c65432f 	stclvs	3, cr4, [r5], #-188	; 0xffffff44
    1548:	2f72616c 	svccs	0x0072616c
    154c:	2d6d7261 	sfmcs	f7, 2, [sp, #-388]!	; 0xfffffe7c
    1550:	656e6f6e 	strbvs	r6, [lr, #-3950]!	; 0xf6e
    1554:	6261652d 	rsbvs	r6, r1, #188743680	; 0xb400000
    1558:	2e342f69 	cdpcs	15, 3, cr2, cr4, cr9, {3}
    155c:	2d332e38 	ldccs	14, cr2, [r3, #-224]!	; 0xffffff20
    1560:	37317363 	ldrcc	r7, [r1, -r3, ror #6]!
    1564:	612f6530 	teqvs	pc, r0, lsr r5	; <UNPREDICTABLE>
    1568:	6e2d6d72 	mcrvs	13, 1, r6, cr13, cr2, {3}
    156c:	2d656e6f 	stclcs	14, cr6, [r5, #-444]!	; 0xfffffe44
    1570:	69626165 	stmdbvs	r2!, {r0, r2, r5, r6, r8, sp, lr}^
    1574:	636e692f 	cmnvs	lr, #770048	; 0xbc000
    1578:	6564756c 	strbvs	r7, [r4, #-1388]!	; 0x56c
    157c:	656d0000 	strbvs	r0, [sp, #-0]!
    1580:	7465736d 	strbtvc	r7, [r5], #-877	; 0x36d
    1584:	0100632e 	tsteq	r0, lr, lsr #6
    1588:	74730000 	ldrbtvc	r0, [r3], #-0
    158c:	66656464 	strbtvs	r6, [r5], -r4, ror #8
    1590:	0200682e 	andeq	r6, r0, #3014656	; 0x2e0000
    1594:	74730000 	ldrbtvc	r0, [r3], #-0
    1598:	676e6972 			; <UNDEFINED> instruction: 0x676e6972
    159c:	0300682e 	movweq	r6, #2094	; 0x82e
    15a0:	00000000 	andeq	r0, r0, r0
    15a4:	9e640205 	cdpls	2, 6, cr0, cr4, cr5, {0}
    15a8:	13140000 	tstne	r4, #0
    15ac:	02002f4c 	andeq	r2, r0, #76, 30	; 0x130
    15b0:	4d490104 	stfmie	f0, [r9, #-16]
    15b4:	01000202 	tsteq	r0, r2, lsl #4
    15b8:	Address 0x00000000000015b8 is out of bounds.


Disassembly of section .debug_str:

00000000 <.debug_str>:
   0:	4f495047 	svcmi	0x00495047
   4:	544e495f 	strbpl	r4, [lr], #-2399	; 0x95f
   8:	50470030 	subpl	r0, r7, r0, lsr r0
   c:	495f4f49 	ldmdbmi	pc, {r0, r3, r6, r8, r9, sl, fp, lr}^	; <UNPREDICTABLE>
  10:	0031544e 	eorseq	r5, r1, lr, asr #8
  14:	4f495047 	svcmi	0x00495047
  18:	544e495f 	strbpl	r4, [lr], #-2399	; 0x95f
  1c:	50470032 	subpl	r0, r7, r2, lsr r0
  20:	495f4f49 	ldmdbmi	pc, {r0, r3, r6, r8, r9, sl, fp, lr}^	; <UNPREDICTABLE>
  24:	0033544e 	eorseq	r5, r3, lr, asr #8
  28:	53465047 	movtpl	r5, #24647	; 0x6047
  2c:	00324c45 	eorseq	r4, r2, r5, asr #24
  30:	4c435047 	mcrrmi	0, 4, r5, r3, cr7
  34:	66003052 			; <UNDEFINED> instruction: 0x66003052
  38:	5f747361 	svcpl	0x00747361
  3c:	6f697067 	svcvs	0x00697067
  40:	6972775f 	ldmdbvs	r2!, {r0, r1, r2, r3, r4, r6, r8, r9, sl, ip, sp, lr}^
  44:	61006574 	tstvs	r0, r4, ror r5
  48:	745f6d72 	ldrbvc	r6, [pc], #-3442	; 50 <_start-0x7fb0>
  4c:	72656d69 	rsbvc	r6, r5, #6720	; 0x1a40
  50:	5741525f 	smlsldpl	r5, r1, pc, r2	; <UNPREDICTABLE>
  54:	00515249 	subseq	r5, r1, r9, asr #4
  58:	74726175 	ldrbtvc	r6, [r2], #-373	; 0x175
  5c:	696e695f 	stmdbvs	lr!, {r0, r1, r2, r3, r4, r6, r8, fp, sp, lr}^
  60:	6f6c0074 	svcvs	0x006c0074
  64:	6c20676e 	stcvs	7, cr6, [r0], #-440	; 0xfffffe48
  68:	20676e6f 	rsbcs	r6, r7, pc, ror #28
  6c:	69736e75 	ldmdbvs	r3!, {r0, r2, r4, r5, r6, r9, sl, fp, sp, lr}^
  70:	64656e67 	strbtvs	r6, [r5], #-3687	; 0xe67
  74:	746e6920 	strbtvc	r6, [lr], #-2336	; 0x920
  78:	73616600 	cmnvc	r1, #0, 12
  7c:	70675f74 	rsbvc	r5, r7, r4, ror pc
  80:	735f6f69 	cmpvc	pc, #420	; 0x1a4
  84:	6f5f7465 	svcvs	0x005f7465
  88:	6f6c006e 	svcvs	0x006c006e
  8c:	6c20676e 	stcvs	7, cr6, [r0], #-440	; 0xfffffe48
  90:	20676e6f 	rsbcs	r6, r7, pc, ror #28
  94:	00746e69 	rsbseq	r6, r4, r9, ror #28
  98:	6576656e 	ldrbvs	r6, [r6, #-1390]!	; 0x56e
  9c:	0073746e 	rsbseq	r7, r3, lr, ror #8
  a0:	6379636e 	cmnvs	r9, #-1207959551	; 0xb8000001
  a4:	6100656c 	tstvs	r0, ip, ror #10
  a8:	745f6d72 	ldrbvc	r6, [pc], #-3442	; b0 <_start-0x7f50>
  ac:	72656d69 	rsbvc	r6, r5, #6720	; 0x1a40
  b0:	6e6f435f 	mcrvs	3, 3, r4, cr15, cr15, {2}
  b4:	6c6f7274 	sfmvs	f7, 2, [pc], #-464	; fffffeec <__bss_end__+0xffff5754>
  b8:	53504700 	cmppl	r0, #0, 14
  bc:	00315445 	eorseq	r5, r1, r5, asr #8
  c0:	5f6d7261 	svcpl	0x006d7261
  c4:	656d6974 	strbvs	r6, [sp, #-2420]!	; 0x974
  c8:	6f4c5f72 	svcvs	0x004c5f72
  cc:	61006461 	tstvs	r0, r1, ror #8
  d0:	745f6d72 	ldrbvc	r6, [pc], #-3442	; d8 <_start-0x7f28>
  d4:	72656d69 	rsbvc	r6, r5, #6720	; 0x1a40
  d8:	7361425f 	cmnvc	r1, #-268435451	; 0xf0000005
  dc:	50470065 	subpl	r0, r7, r5, rrx
  e0:	3056454c 	subscc	r4, r6, ip, asr #10
  e4:	4c504700 	mrrcmi	7, 0, r4, r0, cr0
  e8:	00315645 	eorseq	r5, r1, r5, asr #12
  ec:	74736574 	ldrbtvc	r6, [r3], #-1396	; 0x574
  f0:	6e65675f 	mcrvs	7, 3, r6, cr5, cr15, {2}
  f4:	746f6e00 	strbtvc	r6, [pc], #-3584	; fc <_start-0x7f04>
  f8:	6e69616d 	powvsez	f6, f1, #5.0
  fc:	73616600 	cmnvc	r1, #0, 12
 100:	70675f74 	rsbvc	r5, r7, r4, ror pc
 104:	735f6f69 	cmpvc	pc, #420	; 0x1a4
 108:	6f5f7465 	svcvs	0x005f7465
 10c:	61006666 	tstvs	r0, r6, ror #12
 110:	745f6d72 	ldrbvc	r6, [pc], #-3442	; 118 <_start-0x7ee8>
 114:	72656d69 	rsbvc	r6, r5, #6720	; 0x1a40
 118:	73614d5f 	cmnvc	r1, #6080	; 0x17c0
 11c:	4964656b 	stmdbmi	r4!, {r0, r1, r3, r5, r6, r8, sl, sp, lr}^
 120:	72005152 	andvc	r5, r0, #-2147483628	; 0x80000014
 124:	725f6970 	subsvc	r6, pc, #112, 18	; 0x1c0000
 128:	74657365 	strbtvc	r7, [r5], #-869	; 0x365
 12c:	7475705f 	ldrbtvc	r7, [r5], #-95	; 0x5f
 130:	50470063 	subpl	r0, r7, r3, rrx
 134:	4c455346 	mcrrmi	3, 4, r5, r5, cr6
 138:	50470030 	subpl	r0, r7, r0, lsr r0
 13c:	4c455346 	mcrrmi	3, 4, r5, r5, cr6
 140:	50470031 	subpl	r0, r7, r1, lsr r0
 144:	4c455346 	mcrrmi	3, 4, r5, r5, cr6
 148:	50470033 	subpl	r0, r7, r3, lsr r0
 14c:	4c455346 	mcrrmi	3, 4, r5, r5, cr6
 150:	50470034 	subpl	r0, r7, r4, lsr r0
 154:	4c455346 	mcrrmi	3, 4, r5, r5, cr6
 158:	70670035 	rsbvc	r0, r7, r5, lsr r0
 15c:	655f6f69 	ldrbvs	r6, [pc, #-3945]	; fffff1fb <__bss_end__+0xffff4a63>
 160:	746e6576 	strbtvc	r6, [lr], #-1398	; 0x576
 164:	656c635f 	strbvs	r6, [ip, #-863]!	; 0x35f
 168:	5f007261 	svcpl	0x00007261
 16c:	4e55465f 	mrcmi	6, 2, r4, cr5, cr15, {2}
 170:	4f495443 	svcmi	0x00495443
 174:	005f5f4e 	subseq	r5, pc, lr, asr #30
 178:	726f6873 	rsbvc	r6, pc, #7536640	; 0x730000
 17c:	6e752074 	mrcvs	0, 3, r2, cr5, cr4, {3}
 180:	6e676973 	mcrvs	9, 3, r6, cr7, cr3, {3}
 184:	69206465 	stmdbvs	r0!, {r0, r2, r5, r6, sl, sp, lr}
 188:	6c00746e 	cfstrsvs	mvf7, [r0], {110}	; 0x6e
 18c:	00747361 	rsbseq	r7, r4, r1, ror #6
 190:	6573552f 	ldrbvs	r5, [r3, #-1327]!	; 0x52f
 194:	622f7372 	eorvs	r7, pc, #-939524095	; 0xc8000001
 198:	6e616972 	mcrvs	9, 3, r6, cr1, cr2, {3}
 19c:	2f6e756a 	svccs	0x006e756a
 1a0:	6b736544 	blvs	1cd96b8 <__bss_end__+0x1ccef20>
 1a4:	2f706f74 	svccs	0x00706f74
 1a8:	6f686373 	svcvs	0x00686373
 1ac:	532f6c6f 	teqpl	pc, #28416	; 0x6f00
 1b0:	6e697270 	mcrvs	2, 3, r7, cr9, cr0, {3}
 1b4:	32393167 	eorscc	r3, r9, #-1073741799	; 0xc0000019
 1b8:	53432f30 	movtpl	r2, #16176	; 0x3f30
 1bc:	4c303432 	cfldrsmi	mvf3, [r0], #-200	; 0xffffff38
 1c0:	73632f58 	cmnvc	r3, #88, 30	; 0x160
 1c4:	6c303432 	cfldrsvs	mvf3, [r0], #-200	; 0xffffff38
 1c8:	30322d78 	eorscc	r2, r2, r8, ror sp
 1cc:	2f727073 	svccs	0x00727073
 1d0:	7362616c 	cmnvc	r2, #108, 2
 1d4:	692d342f 	pushvs	{r0, r1, r2, r3, r5, sl, ip, sp}
 1d8:	7265746e 	rsbvc	r7, r5, #1845493760	; 0x6e000000
 1dc:	74707572 	ldrbtvc	r7, [r0], #-1394	; 0x572
 1e0:	2d77732d 	ldclcs	3, cr7, [r7, #-180]!	; 0xffffff4c
 1e4:	74726175 	ldrbtvc	r6, [r2], #-373	; 0x175
 1e8:	7265732f 	rsbvc	r7, r5, #-1140850688	; 0xbc000000
 1ec:	00726576 	rsbseq	r6, r2, r6, ror r5
 1f0:	6f697067 	svcvs	0x00697067
 1f4:	6573665f 	ldrbvs	r6, [r3, #-1631]!	; 0x65f
 1f8:	4700306c 	strmi	r3, [r0, -ip, rrx]
 1fc:	524c4350 	subpl	r4, ip, #80, 6	; 0x40000001
 200:	70670031 	rsbvc	r0, r7, r1, lsr r0
 204:	725f6f69 	subsvc	r6, pc, #420	; 0x1a4
 208:	00646165 	rsbeq	r6, r4, r5, ror #2
 20c:	61656c63 	cmnvs	r5, r3, ror #24
 210:	65725f6e 	ldrbvs	r5, [r2, #-3950]!	; 0xf6e
 214:	746f6f62 	strbtvc	r6, [pc], #-3938	; 21c <_start-0x7de4>
 218:	69706700 	ldmdbvs	r0!, {r8, r9, sl, sp, lr}^
 21c:	6e695f6f 	cdpvs	15, 6, cr5, cr9, cr15, {3}
 220:	69725f74 	ldmdbvs	r2!, {r2, r4, r5, r6, r8, r9, sl, fp, ip, lr}^
 224:	676e6973 			; <UNDEFINED> instruction: 0x676e6973
 228:	6764655f 			; <UNDEFINED> instruction: 0x6764655f
 22c:	69730065 	ldmdbvs	r3!, {r0, r2, r5, r6}^
 230:	7974657a 	ldmdbvc	r4!, {r1, r3, r4, r5, r6, r8, sl, sp, lr}^
 234:	61006570 	tstvs	r0, r0, ror r5
 238:	745f6d72 	ldrbvc	r6, [pc], #-3442	; 240 <_start-0x7dc0>
 23c:	72656d69 	rsbvc	r6, r5, #6720	; 0x1a40
 240:	6c65525f 	sfmvs	f5, 2, [r5], #-380	; 0xfffffe84
 244:	0064616f 	rsbeq	r6, r4, pc, ror #2
 248:	6c637963 	stclvs	9, cr7, [r3], #-396	; 0xfffffe74
 24c:	6f635f65 	svcvs	0x00635f65
 250:	65746e75 	ldrbvs	r6, [r4, #-3701]!	; 0xe75
 254:	6e690072 	mcrvs	0, 3, r0, cr9, cr2, {3}
 258:	6e695f74 	mcrvs	15, 3, r5, cr9, cr4, {3}
 25c:	5f007469 	svcpl	0x00007469
 260:	0074756f 	rsbseq	r7, r4, pc, ror #10
 264:	74737973 	ldrbtvc	r7, [r3], #-2419	; 0x973
 268:	655f6d65 	ldrbvs	r6, [pc, #-3429]	; fffff50b <__bss_end__+0xffff4d73>
 26c:	6c62616e 	stfvse	f6, [r2], #-440	; 0xfffffe48
 270:	6e695f65 	cdpvs	15, 6, cr5, cr9, cr5, {3}
 274:	72726574 	rsbsvc	r6, r2, #116, 10	; 0x1d000000
 278:	73747075 	cmnvc	r4, #117	; 0x75
 27c:	76656400 	strbtvc	r6, [r5], -r0, lsl #8
 280:	7261625f 	rsbvc	r6, r1, #-268435451	; 0xf0000005
 284:	72656972 	rsbvc	r6, r5, #1867776	; 0x1c8000
 288:	736e7500 	cmnvc	lr, #0, 10
 28c:	656e6769 	strbvs	r6, [lr, #-1897]!	; 0x769
 290:	68632064 	stmdavs	r3!, {r2, r5, r6, sp}^
 294:	73007261 	movwvc	r7, #609	; 0x261
 298:	65706f63 	ldrbvs	r6, [r0, #-3939]!	; 0xf63
 29c:	53504700 	cmppl	r0, #0, 14
 2a0:	00305445 	eorseq	r5, r0, r5, asr #8
 2a4:	726f6873 	rsbvc	r6, pc, #7536640	; 0x730000
 2a8:	6e692074 	mcrvs	0, 3, r2, cr9, cr4, {3}
 2ac:	65640074 	strbvs	r0, [r4, #-116]!	; 0x74
 2b0:	5f79616c 	svcpl	0x0079616c
 2b4:	6300736d 	movwvs	r7, #877	; 0x36d
 2b8:	656c6379 	strbvs	r6, [ip, #-889]!	; 0x379
 2bc:	65705f73 	ldrbvs	r5, [r0, #-3955]!	; 0xf73
 2c0:	65735f72 	ldrbvs	r5, [r3, #-3954]!	; 0xf72
 2c4:	70670063 	rsbvc	r0, r7, r3, rrx
 2c8:	735f6f69 	cmpvc	pc, #420	; 0x1a4
 2cc:	00307465 	eorseq	r7, r0, r5, ror #8
 2d0:	73726966 	cmnvc	r2, #1671168	; 0x198000
 2d4:	5f6e0074 	svcpl	0x006e0074
 2d8:	69736972 	ldmdbvs	r3!, {r1, r4, r5, r6, r8, fp, sp, lr}^
 2dc:	655f676e 	ldrbvs	r6, [pc, #-1902]	; fffffb76 <__bss_end__+0xffff53de>
 2e0:	00656764 	rsbeq	r6, r5, r4, ror #14
 2e4:	20554e47 	subscs	r4, r5, r7, asr #28
 2e8:	2e342043 	cdpcs	0, 3, cr2, cr4, cr3, {2}
 2ec:	20332e38 	eorscs	r2, r3, r8, lsr lr
 2f0:	70636d2d 	rsbvc	r6, r3, sp, lsr #26
 2f4:	72613d75 	rsbvc	r3, r1, #7488	; 0x1d40
 2f8:	3731316d 	ldrcc	r3, [r1, -sp, ror #2]!
 2fc:	667a6a36 			; <UNDEFINED> instruction: 0x667a6a36
 300:	2d20732d 	stccs	3, cr7, [r0, #-180]!	; 0xffffff4c
 304:	6e75746d 	cdpvs	4, 7, cr7, cr5, cr13, {3}
 308:	72613d65 	rsbvc	r3, r1, #6464	; 0x1940
 30c:	3731316d 	ldrcc	r3, [r1, -sp, ror #2]!
 310:	667a6a36 			; <UNDEFINED> instruction: 0x667a6a36
 314:	2d20732d 	stccs	3, cr7, [r0, #-180]!	; 0xffffff4c
 318:	62646767 	rsbvs	r6, r4, #27000832	; 0x19c0000
 31c:	674f2d20 	strbvs	r2, [pc, -r0, lsr #26]
 320:	74732d20 	ldrbtvc	r2, [r3], #-3360	; 0xd20
 324:	6e673d64 	cdpvs	13, 6, cr3, cr7, cr4, {3}
 328:	20393975 	eorscs	r3, r9, r5, ror r9
 32c:	7266662d 	rsbvc	r6, r6, #47185920	; 0x2d00000
 330:	74736565 	ldrbtvc	r6, [r3], #-1381	; 0x565
 334:	69646e61 	stmdbvs	r4!, {r0, r5, r6, r9, sl, fp, sp, lr}^
 338:	6700676e 	strvs	r6, [r0, -lr, ror #14]
 33c:	5f6f6970 	svcpl	0x006f6970
 340:	5f746573 	svcpl	0x00746573
 344:	75706e69 	ldrbvc	r6, [r0, #-3689]!	; 0xe69
 348:	5f6e0074 	svcpl	0x006e0074
 34c:	6c6c6166 	stfvse	f6, [ip], #-408	; 0xfffffe68
 350:	5f676e69 	svcpl	0x00676e69
 354:	65676465 	strbvs	r6, [r7, #-1125]!	; 0x465
 358:	6c2d3200 	sfmvs	f3, 4, [sp], #-0
 35c:	6369676f 	cmnvs	r9, #29097984	; 0x1bc0000
 360:	616e612d 	cmnvs	lr, sp, lsr #2
 364:	657a796c 	ldrbvs	r7, [sl, #-2412]!	; 0x96c
 368:	00632e72 	rsbeq	r2, r3, r2, ror lr
 36c:	5f6d7261 	svcpl	0x006d7261
 370:	656d6974 	strbvs	r6, [sp, #-2420]!	; 0x974
 374:	72505f72 	subsvc	r5, r0, #456	; 0x1c8
 378:	76694465 	strbtvc	r4, [r9], -r5, ror #8
 37c:	72656469 	rsbvc	r6, r5, #1761607680	; 0x69000000
 380:	6d726100 	ldfvse	f6, [r2, #-0]
 384:	6d69745f 	cfstrdvs	mvd7, [r9, #-380]!	; 0xfffffe84
 388:	565f7265 	ldrbpl	r7, [pc], -r5, ror #4
 38c:	65756c61 	ldrbvs	r6, [r5, #-3169]!	; 0xc61
 390:	6d726100 	ldfvse	f6, [r2, #-0]
 394:	6d69745f 	cfstrdvs	mvd7, [r9, #-380]!	; 0xfffffe84
 398:	495f7265 	ldmdbmi	pc, {r0, r2, r5, r6, r9, ip, sp, lr}^	; <UNPREDICTABLE>
 39c:	6c435152 	stfvse	f5, [r3], {82}	; 0x52
 3a0:	00726165 	rsbseq	r6, r2, r5, ror #2
 3a4:	6f697067 	svcvs	0x00697067
 3a8:	7465735f 	strbtvc	r7, [r5], #-863	; 0x35f
 3ac:	74756f5f 	ldrbtvc	r6, [r5], #-3935	; 0xf5f
 3b0:	00747570 	rsbseq	r7, r4, r0, ror r5
 3b4:	62616e65 	rsbvs	r6, r1, #1616	; 0x650
 3b8:	635f656c 	cmpvs	pc, #108, 10	; 0x1b000000
 3bc:	65686361 	strbvs	r6, [r8, #-865]!	; 0x361
 3c0:	69707200 	ldmdbvs	r0!, {r9, ip, sp, lr}^
 3c4:	6d72615f 	ldfvse	f6, [r2, #-380]!	; 0xfffffe84
 3c8:	6d69745f 	cfstrdvs	mvd7, [r9, #-380]!	; 0xfffffe84
 3cc:	745f7265 	ldrbvc	r7, [pc], #-613	; 3d4 <_start-0x7c2c>
 3d0:	6e697500 	cdpvs	5, 6, cr7, cr9, cr0, {0}
 3d4:	745f3874 	ldrbvc	r3, [pc], #-2164	; 3dc <_start-0x7c24>
 3d8:	69706700 	ldmdbvs	r0!, {r8, r9, sl, sp, lr}^
 3dc:	6e695f6f 	cdpvs	15, 6, cr5, cr9, cr15, {3}
 3e0:	61665f74 	smcvs	26100	; 0x65f4
 3e4:	6e696c6c 	cdpvs	12, 6, cr6, cr9, cr12, {3}
 3e8:	64655f67 	strbtvs	r5, [r5], #-3943	; 0xf67
 3ec:	69006567 	stmdbvs	r0, {r0, r1, r2, r5, r6, r8, sl, sp, lr}
 3f0:	70675f73 	rsbvc	r5, r7, r3, ror pc
 3f4:	695f6f69 	ldmdbvs	pc, {r0, r3, r5, r6, r8, r9, sl, fp, sp, lr}^	; <UNPREDICTABLE>
 3f8:	6700746e 	strvs	r7, [r0, -lr, ror #8]
 3fc:	5f6f6970 	svcpl	0x006f6970
 400:	30726c63 	rsbscc	r6, r2, r3, ror #24
 404:	6d726100 	ldfvse	f6, [r2, #-0]
 408:	6d69745f 	cfstrdvs	mvd7, [r9, #-380]!	; 0xfffffe84
 40c:	465f7265 	ldrbmi	r7, [pc], -r5, ror #4
 410:	52656572 	rsbpl	r6, r5, #478150656	; 0x1c800000
 414:	696e6e75 	stmdbvs	lr!, {r0, r2, r4, r5, r6, r9, sl, fp, sp, lr}^
 418:	6f43676e 	svcvs	0x0043676e
 41c:	65746e75 	ldrbvs	r6, [r4, #-3701]!	; 0xe75
 420:	5f5f0072 	svcpl	0x005f0072
 424:	63756e67 	cmnvs	r5, #1648	; 0x670
 428:	5f61765f 	svcpl	0x0061765f
 42c:	7473696c 	ldrbtvc	r6, [r3], #-2412	; 0x96c
 430:	62696c00 	rsbvs	r6, r9, #0, 24
 434:	72702f63 	rsbsvc	r2, r0, #396	; 0x18c
 438:	6b746e69 	blvs	1d1bde4 <__bss_end__+0x1d1164c>
 43c:	7600632e 	strvc	r6, [r0], -lr, lsr #6
 440:	72705f61 	rsbsvc	r5, r0, #388	; 0x184
 444:	6b746e69 	blvs	1d1bdf0 <__bss_end__+0x1d11658>
 448:	765f5f00 	ldrbvc	r5, [pc], -r0, lsl #30
 44c:	696c5f61 	stmdbvs	ip!, {r0, r5, r6, r8, r9, sl, fp, ip, lr}^
 450:	2f007473 	svccs	0x00007473
 454:	72657355 	rsbvc	r7, r5, #1409286145	; 0x54000001
 458:	72622f73 	rsbvc	r2, r2, #460	; 0x1cc
 45c:	6a6e6169 	bvs	1b98a08 <__bss_end__+0x1b8e270>
 460:	442f6e75 	strtmi	r6, [pc], #-3701	; 468 <_start-0x7b98>
 464:	746b7365 	strbtvc	r7, [fp], #-869	; 0x365
 468:	732f706f 	teqvc	pc, #111	; 0x6f
 46c:	6f6f6863 	svcvs	0x006f6863
 470:	69572f6c 	ldmdbvs	r7, {r2, r3, r5, r6, r8, r9, sl, fp, sp}^
 474:	7265746e 	rsbvc	r7, r5, #1845493760	; 0x6e000000
 478:	30323931 	eorscc	r3, r2, r1, lsr r9
 47c:	3153432f 	cmpcc	r3, pc, lsr #6
 480:	2f453034 	svccs	0x00453034
 484:	34317363 	ldrtcc	r7, [r1], #-867	; 0x363
 488:	322d6530 	eorcc	r6, sp, #48, 10	; 0xc000000
 48c:	6e697730 	mcrvs	7, 3, r7, cr9, cr0, {1}
 490:	62696c2f 	rsbvs	r6, r9, #12032	; 0x2f00
 494:	61006970 	tstvs	r0, r0, ror r9
 498:	00736772 	rsbseq	r6, r3, r2, ror r7
 49c:	70615f5f 	rsbvc	r5, r1, pc, asr pc
 4a0:	746e6900 	strbtvc	r6, [lr], #-2304	; 0x900
 4a4:	616e7265 	cmnvs	lr, r5, ror #4
 4a8:	75705f6c 	ldrbvc	r5, [r0, #-3948]!	; 0xf6c
 4ac:	61686374 	smcvs	34356	; 0x8634
 4b0:	70720072 	rsbsvc	r0, r2, r2, ror r0
 4b4:	75705f69 	ldrbvc	r5, [r0, #-3945]!	; 0xf69
 4b8:	61686374 	smcvs	34356	; 0x8634
 4bc:	696c0072 	stmdbvs	ip!, {r1, r4, r5, r6}^
 4c0:	702f6362 	eorvc	r6, pc, r2, ror #6
 4c4:	68637475 	stmdavs	r3!, {r0, r2, r4, r5, r6, sl, ip, sp, lr}^
 4c8:	632e7261 	teqvs	lr, #268435462	; 0x10000006
 4cc:	69707200 	ldmdbvs	r0!, {r9, ip, sp, lr}^
 4d0:	7465735f 	strbtvc	r7, [r5], #-863	; 0x35f
 4d4:	7475705f 	ldrbtvc	r7, [r5], #-95	; 0x5f
 4d8:	696c0063 	stmdbvs	ip!, {r0, r1, r5, r6}^
 4dc:	702f6362 	eorvc	r6, pc, r2, ror #6
 4e0:	2e6b7475 	mcrcs	4, 3, r7, cr11, cr5, {3}
 4e4:	6e690063 	cdpvs	0, 6, cr0, cr9, cr3, {3}
 4e8:	6e726574 	mrcvs	5, 3, r6, cr2, cr4, {3}
 4ec:	705f6c61 	subsvc	r6, pc, r1, ror #24
 4f0:	006b7475 	rsbeq	r7, fp, r5, ror r4
 4f4:	5f67656e 	svcpl	0x0067656e
 4f8:	65720070 	ldrbvs	r0, [r2, #-112]!	; 0x70
 4fc:	73726576 	cmnvc	r2, #494927872	; 0x1d800000
 500:	73690065 	cmnvc	r9, #101	; 0x65
 504:	69676964 	stmdbvs	r7!, {r2, r5, r6, r8, fp, sp, lr}^
 508:	75700074 	ldrbvc	r0, [r0, #-116]!	; 0x74
 50c:	665f7374 			; <UNDEFINED> instruction: 0x665f7374
 510:	61620070 	smcvs	8192	; 0x2000
 514:	73006573 	movwvc	r6, #1395	; 0x573
 518:	656e6769 	strbvs	r6, [lr, #-1897]!	; 0x769
 51c:	00705f64 	rsbseq	r5, r0, r4, ror #30
 520:	6362696c 	cmnvs	r2, #108, 18	; 0x1b0000
 524:	2d61762f 	stclcs	6, cr7, [r1, #-188]!	; 0xffffff44
 528:	6e697270 	mcrvs	2, 3, r7, cr9, cr0, {3}
 52c:	632e6b74 	teqvs	lr, #116, 22	; 0x1d000
 530:	69707200 	ldmdbvs	r0!, {r9, ip, sp, lr}^
 534:	7465735f 	strbtvc	r7, [r5], #-863	; 0x35f
 538:	74756f5f 	ldrbtvc	r6, [r5], #-3935	; 0xf5f
 53c:	00747570 	rsbseq	r7, r4, r0, ror r5
 540:	74646977 	strbtvc	r6, [r4], #-2423	; 0x977
 544:	75700068 	ldrbvc	r0, [r0, #-104]!	; 0x68
 548:	665f6374 			; <UNDEFINED> instruction: 0x665f6374
 54c:	6d650070 	stclvs	0, cr0, [r5, #-448]!	; 0xfffffe40
 550:	64007469 	strvs	r7, [r0], #-1129	; 0x469
 554:	62617369 	rsbvs	r7, r1, #-1543503871	; 0xa4000001
 558:	635f656c 	cmpvs	pc, #108, 10	; 0x1b000000
 55c:	65686361 	strbvs	r6, [r8, #-865]!	; 0x361
 560:	31736300 	cmncc	r3, r0, lsl #6
 564:	2d653034 	stclcs	0, cr3, [r5, #-208]!	; 0xffffff30
 568:	2f637273 	svccs	0x00637273
 56c:	68636163 	stmdavs	r3!, {r0, r1, r5, r6, r8, sp, lr}^
 570:	00632e65 	rsbeq	r2, r3, r5, ror #28
 574:	5f697072 	svcpl	0x00697072
 578:	6f626572 	svcvs	0x00626572
 57c:	6300746f 	movwvs	r7, #1135	; 0x46f
 580:	30343173 	eorscc	r3, r4, r3, ror r1
 584:	72732d65 	rsbsvc	r2, r3, #6464	; 0x1940
 588:	6c632f63 	stclvs	15, cr2, [r3], #-396	; 0xfffffe74
 58c:	2d6e6165 	stfcse	f6, [lr, #-404]!	; 0xfffffe6c
 590:	6f626572 	svcvs	0x00626572
 594:	632e746f 	teqvs	lr, #1862270976	; 0x6f000000
 598:	746e6900 	strbtvc	r6, [lr], #-2304	; 0x900
 59c:	616e7265 	cmnvs	lr, r5, ror #4
 5a0:	77735f6c 	ldrbvc	r5, [r3, -ip, ror #30]!
 5a4:	7475705f 	ldrbtvc	r7, [r5], #-95	; 0x5f
 5a8:	72616863 	rsbvc	r6, r1, #6488064	; 0x630000
 5ac:	625f5f00 	subsvs	r5, pc, #0, 30
 5b0:	735f7373 	cmpvc	pc, #-872415231	; 0xcc000001
 5b4:	74726174 	ldrbtvc	r6, [r2], #-372	; 0x174
 5b8:	62005f5f 	andvs	r5, r0, #380	; 0x17c
 5bc:	655f7373 	ldrbvs	r7, [pc, #-883]	; 251 <_start-0x7daf>
 5c0:	6300646e 	movwvs	r6, #1134	; 0x46e
 5c4:	656c6379 	strbvs	r6, [ip, #-889]!	; 0x379
 5c8:	7265705f 	rsbvc	r7, r5, #95	; 0x5f
 5cc:	7469625f 	strbtvc	r6, [r9], #-607	; 0x25f
 5d0:	6e6f6300 	cdpvs	3, 6, cr6, cr15, cr0, {0}
 5d4:	656c6f73 	strbvs	r6, [ip, #-3955]!	; 0xf73
 5d8:	7261755f 	rsbvc	r7, r1, #398458880	; 0x17c00000
 5dc:	77730074 			; <UNDEFINED> instruction: 0x77730074
 5e0:	7261755f 	rsbvc	r7, r1, #398458880	; 0x17c00000
 5e4:	72705f74 	rsbsvc	r5, r0, #116, 30	; 0x1d0
 5e8:	6b746e69 	blvs	1d1bf94 <__bss_end__+0x1d117fc>
 5ec:	54555000 	ldrbpl	r5, [r5], #-0
 5f0:	53455f43 	movtpl	r5, #24387	; 0x5f43
 5f4:	41555f50 	cmpmi	r5, r0, asr pc
 5f8:	73005452 	movwvc	r5, #1106	; 0x452
 5fc:	61755f77 	cmnvs	r5, r7, ror pc
 600:	745f7472 	ldrbvc	r7, [pc], #-1138	; 608 <_start-0x79f8>
 604:	54555000 	ldrbpl	r5, [r5], #-0
 608:	57535f43 	ldrbpl	r5, [r3, -r3, asr #30]
 60c:	5241555f 	subpl	r5, r1, #398458880	; 0x17c00000
 610:	61620054 	qdsubvs	r0, r4, r2
 614:	50006475 	andpl	r6, r0, r5, ror r4
 618:	5f435455 	svcpl	0x00435455
 61c:	555f5748 	ldrbpl	r5, [pc, #-1864]	; fffffedc <__bss_end__+0xffff5744>
 620:	00545241 	subseq	r5, r4, r1, asr #4
 624:	7473635f 	ldrbtvc	r6, [r3], #-863	; 0x35f
 628:	00747261 	rsbseq	r7, r4, r1, ror #4
 62c:	74726175 	ldrbtvc	r6, [r2], #-373	; 0x175
 630:	7665645f 			; <UNDEFINED> instruction: 0x7665645f
 634:	7300745f 	movwvc	r7, #1119	; 0x45f
 638:	61755f77 	cmnvs	r5, r7, ror pc
 63c:	705f7472 	subsvc	r7, pc, r2, ror r4	; <UNPREDICTABLE>
 640:	00637475 	rsbeq	r7, r3, r5, ror r4
 644:	746e6f63 	strbtvc	r6, [lr], #-3939	; 0xf63
 648:	5f6c6f72 	svcpl	0x006c6f72
 64c:	5f6b6c62 	svcpl	0x006b6c62
 650:	77730074 			; <UNDEFINED> instruction: 0x77730074
 654:	7261755f 	rsbvc	r7, r1, #398458880	; 0x17c00000
 658:	62630074 	rsbvs	r0, r3, #116	; 0x74
 65c:	7465675f 	strbtvc	r6, [r5], #-1887	; 0x75f
 660:	6f6c625f 	svcvs	0x006c625f
 664:	5f006b63 	svcpl	0x00006b63
 668:	7373625f 	cmnvc	r3, #-268435451	; 0xf0000005
 66c:	646e655f 	strbtvs	r6, [lr], #-1375	; 0x55f
 670:	63005f5f 	movwvs	r5, #3935	; 0xf5f
 674:	30343173 	eorscc	r3, r4, r3, ror r1
 678:	72732d65 	rsbsvc	r2, r3, #6464	; 0x1940
 67c:	73632f63 	cmnvc	r3, #396	; 0x18c
 680:	74726174 	ldrbtvc	r6, [r2], #-372	; 0x174
 684:	6300632e 	movwvs	r6, #814	; 0x32e
 688:	6f736e6f 	svcvs	0x00736e6f
 68c:	645f656c 	ldrbvs	r6, [pc], #-1388	; 694 <_start-0x796c>
 690:	75007665 	strvc	r7, [r0, #-1637]	; 0x665
 694:	33746e69 	cmncc	r4, #1680	; 0x690
 698:	00745f32 	rsbseq	r5, r4, r2, lsr pc
 69c:	6967616d 	stmdbvs	r7!, {r0, r2, r3, r5, r6, r8, sp, lr}^
 6a0:	74610063 	strbtvc	r0, [r1], #-99	; 0x63
 6a4:	6573755f 	ldrbvs	r7, [r3, #-1375]!	; 0x55f
 6a8:	656c5f72 	strbvs	r5, [ip, #-3954]!	; 0xf72
 6ac:	006c6576 	rsbeq	r6, ip, r6, ror r5
 6b0:	505f4d50 	subspl	r4, pc, r0, asr sp	; <UNPREDICTABLE>
 6b4:	57535341 	ldrbpl	r5, [r3, -r1, asr #6]
 6b8:	0044524f 	subeq	r5, r4, pc, asr #4
 6bc:	34317363 	ldrtcc	r7, [r1], #-867	; 0x363
 6c0:	732d6530 	teqvc	sp, #48, 10	; 0xc000000
 6c4:	722f6372 	eorvc	r6, pc, #-939524095	; 0xc8000001
 6c8:	6f6f6265 	svcvs	0x006f6265
 6cc:	00632e74 	rsbeq	r2, r3, r4, ror lr
 6d0:	525f4d50 	subspl	r4, pc, #80, 26	; 0x1400
 6d4:	5f435453 	svcpl	0x00435453
 6d8:	46435257 			; <UNDEFINED> instruction: 0x46435257
 6dc:	55465f47 	strbpl	r5, [r6, #-3911]	; 0xf47
 6e0:	525f4c4c 	subspl	r4, pc, #76, 24	; 0x4c00
 6e4:	54455345 	strbpl	r5, [r5], #-837	; 0x345
 6e8:	5f4d5000 	svcpl	0x004d5000
 6ec:	474f4457 	smlsldmi	r4, pc, r7, r4	; <UNPREDICTABLE>
 6f0:	74657300 	strbtvc	r7, [r5], #-768	; 0x300
 6f4:	6573755f 	ldrbvs	r7, [r3, #-1375]!	; 0x55f
 6f8:	656c5f72 	strbvs	r5, [ip, #-3954]!	; 0xf72
 6fc:	006c6576 	rsbeq	r6, ip, r6, ror r5
 700:	33545550 	cmpcc	r4, #80, 10	; 0x14000000
 704:	4d500032 	ldclmi	0, cr0, [r0, #-200]	; 0xffffff38
 708:	5453525f 	ldrbpl	r5, [r3], #-607	; 0x25f
 70c:	70630043 	rsbvc	r0, r3, r3, asr #32
 710:	74007273 	strvc	r7, [r0], #-627	; 0x273
 714:	72656d69 	rsbvc	r6, r5, #6720	; 0x1a40
 718:	7465675f 	strbtvc	r6, [r5], #-1887	; 0x75f
 71c:	6573755f 	ldrbvs	r7, [r3, #-1375]!	; 0x55f
 720:	61725f63 	cmnvs	r2, r3, ror #30
 724:	65640077 	strbvs	r0, [r4, #-119]!	; 0x77
 728:	5f79616c 	svcpl	0x0079616c
 72c:	00636573 	rsbeq	r6, r3, r3, ror r5
 730:	34317363 	ldrtcc	r7, [r1], #-867	; 0x363
 734:	732d6530 	teqvc	sp, #48, 10	; 0xc000000
 738:	742f6372 	strtvc	r6, [pc], #-882	; 740 <_start-0x78c0>
 73c:	72656d69 	rsbvc	r6, r5, #6720	; 0x1a40
 740:	4700632e 	strmi	r6, [r0, -lr, lsr #6]
 744:	32335445 	eorscc	r5, r3, #1157627904	; 0x45000000
 748:	63697400 	cmnvs	r9, #0, 8
 74c:	6400736b 	strvs	r7, [r0], #-875	; 0x36b
 750:	79616c65 	stmdbvc	r1!, {r0, r2, r5, r6, sl, fp, sp, lr}^
 754:	6379635f 	cmnvs	r9, #2080374785	; 0x7c000001
 758:	0073656c 	rsbseq	r6, r3, ip, ror #10
 75c:	616c6564 	cmnvs	ip, r4, ror #10
 760:	73755f79 	cmnvc	r5, #484	; 0x1e4
 764:	6d697400 	cfstrdvs	mvd7, [r9, #-0]
 768:	675f7265 	ldrbvs	r7, [pc, -r5, ror #4]
 76c:	755f7465 	ldrbvc	r7, [pc, #-1125]	; 30f <_start-0x7cf1>
 770:	00636573 	rsbeq	r6, r3, r3, ror r5
 774:	6f697067 	svcvs	0x00697067
 778:	6576655f 	ldrbvs	r6, [r6, #-1375]!	; 0x55f
 77c:	645f746e 	ldrbvs	r7, [pc], #-1134	; 784 <_start-0x787c>
 780:	63657465 	cmnvs	r5, #1694498816	; 0x65000000
 784:	00646574 	rsbeq	r6, r4, r4, ror r5
 788:	33747570 	cmncc	r4, #112, 10	; 0x1c000000
 78c:	4e450032 	mcrmi	0, 2, r0, cr5, cr2, {1}
 790:	454c4241 	strbmi	r4, [ip, #-577]	; 0x241
 794:	5152495f 	cmppl	r2, pc, asr r9
 798:	00325f53 	eorseq	r5, r2, r3, asr pc
 79c:	4f495047 	svcmi	0x00495047
 7a0:	4e55465f 	mrcmi	6, 2, r4, cr5, cr15, {2}
 7a4:	4e495f43 	cdpmi	15, 4, cr5, cr9, cr3, {2}
 7a8:	00545550 	subseq	r5, r4, r0, asr r5
 7ac:	732d796d 	teqvc	sp, #1785856	; 0x1b4000
 7b0:	672f6372 			; <UNDEFINED> instruction: 0x672f6372
 7b4:	2e6f6970 	mcrcs	9, 3, r6, cr15, cr0, {3}
 7b8:	6e690063 	cdpvs	0, 6, cr0, cr9, cr3, {3}
 7bc:	616d5f74 	smcvs	54772	; 0xd5f4
 7c0:	72006b73 	andvc	r6, r0, #117760	; 0x1cc00
 7c4:	735f6765 	cmpvc	pc, #26476544	; 0x1940000
 7c8:	00746174 	rsbseq	r6, r4, r4, ror r1
 7cc:	6f697067 	svcvs	0x00697067
 7d0:	6765725f 			; <UNDEFINED> instruction: 0x6765725f
 7d4:	69706700 	ldmdbvs	r0!, {r8, r9, sl, sp, lr}^
 7d8:	65735f6f 	ldrbvs	r5, [r3, #-3951]!	; 0xf6f
 7dc:	75665f74 	strbvc	r5, [r6, #-3956]!	; 0xf74
 7e0:	6974636e 	ldmdbvs	r4!, {r1, r2, r3, r5, r6, r8, r9, sp, lr}^
 7e4:	47006e6f 	strmi	r6, [r0, -pc, ror #28]
 7e8:	4e455250 	mcrmi	2, 2, r5, cr5, cr0, {2}
 7ec:	50470030 	subpl	r0, r7, r0, lsr r0
 7f0:	314e4552 	cmpcc	lr, r2, asr r5
 7f4:	51524900 	cmppl	r2, r0, lsl #18
 7f8:	4e45505f 	mcrmi	0, 2, r5, cr5, cr15, {2}
 7fc:	474e4944 	strbmi	r4, [lr, -r4, asr #18]
 800:	4900315f 	stmdbmi	r0, {r0, r1, r2, r3, r4, r6, r8, ip, sp}
 804:	505f5152 	subspl	r5, pc, r2, asr r1	; <UNPREDICTABLE>
 808:	49444e45 	stmdbmi	r4, {r0, r2, r6, r9, sl, fp, lr}^
 80c:	325f474e 	subscc	r4, pc, #20447232	; 0x1380000
 810:	74696200 	strbtvc	r6, [r9], #-512	; 0x200
 814:	6b73616d 	blvs	1cd8dd0 <__bss_end__+0x1cce638>
 818:	6e756600 	cdpvs	6, 7, cr6, cr5, cr0, {0}
 81c:	70670063 	rsbvc	r0, r7, r3, rrx
 820:	745f6f69 	ldrbvc	r6, [pc], #-3945	; 828 <_start-0x77d8>
 824:	6c67676f 	stclvs	7, cr6, [r7], #-444	; 0xfffffe44
 828:	50470065 	subpl	r0, r7, r5, rrx
 82c:	30534445 	subscc	r4, r3, r5, asr #8
 830:	45504700 	ldrbmi	r4, [r0, #-1792]	; 0x700
 834:	00315344 	eorseq	r5, r1, r4, asr #6
 838:	45465047 	strbmi	r5, [r6, #-71]	; 0x47
 83c:	4700304e 	strmi	r3, [r0, -lr, asr #32]
 840:	4e454650 	mcrmi	6, 2, r4, cr5, cr0, {2}
 844:	50470031 	subpl	r0, r7, r1, lsr r0
 848:	465f4f49 	ldrbmi	r4, [pc], -r9, asr #30
 84c:	5f434e55 	svcpl	0x00434e55
 850:	5054554f 	subspl	r5, r4, pc, asr #10
 854:	67005455 	smlsdvs	r0, r5, r4, r5
 858:	32337465 	eorscc	r7, r3, #1694498816	; 0x65000000
 85c:	69706700 	ldmdbvs	r0!, {r8, r9, sl, sp, lr}^
 860:	75665f6f 	strbvc	r5, [r6, #-3951]!	; 0xf6f
 864:	745f636e 	ldrbvc	r6, [pc], #-878	; 86c <_start-0x7794>
 868:	49504700 	ldmdbmi	r0, {r8, r9, sl, lr}^
 86c:	55465f4f 	strbpl	r5, [r6, #-3919]	; 0xf4f
 870:	415f434e 	cmpmi	pc, lr, asr #6
 874:	0030544c 	eorseq	r5, r0, ip, asr #8
 878:	4f495047 	svcmi	0x00495047
 87c:	4e55465f 	mrcmi	6, 2, r4, cr5, cr15, {2}
 880:	4c415f43 	mcrrmi	15, 4, r5, r1, cr3
 884:	47003154 	smlsdmi	r0, r4, r1, r3
 888:	5f4f4950 	svcpl	0x004f4950
 88c:	434e5546 	movtmi	r5, #58694	; 0xe546
 890:	544c415f 	strbpl	r4, [ip], #-351	; 0x15f
 894:	50470032 	subpl	r0, r7, r2, lsr r0
 898:	465f4f49 	ldrbmi	r4, [pc], -r9, asr #30
 89c:	5f434e55 	svcpl	0x00434e55
 8a0:	33544c41 	cmpcc	r4, #16640	; 0x4100
 8a4:	49504700 	ldmdbmi	r0, {r8, r9, sl, lr}^
 8a8:	55465f4f 	strbpl	r5, [r6, #-3919]	; 0xf4f
 8ac:	415f434e 	cmpmi	pc, lr, asr #6
 8b0:	0034544c 	eorseq	r5, r4, ip, asr #8
 8b4:	4f495047 	svcmi	0x00495047
 8b8:	4e55465f 	mrcmi	6, 2, r4, cr5, cr15, {2}
 8bc:	4c415f43 	mcrrmi	15, 4, r5, r1, cr3
 8c0:	72003554 	andvc	r3, r0, #84, 10	; 0x15000000
 8c4:	735f6765 	cmpvc	pc, #26476544	; 0x1940000
 8c8:	63656c65 	cmnvs	r5, #25856	; 0x6500
 8cc:	79630074 	stmdbvc	r3!, {r2, r4, r5, r6}^
 8d0:	65705f63 	ldrbvs	r5, [r0, #-3939]!	; 0xf63
 8d4:	69625f72 	stmdbvs	r2!, {r1, r4, r5, r6, r8, r9, sl, fp, ip, lr}^
 8d8:	72770074 	rsbsvc	r0, r7, #116	; 0x74
 8dc:	5f657469 	svcpl	0x00657469
 8e0:	5f637963 	svcpl	0x00637963
 8e4:	69746e75 	ldmdbvs	r4!, {r0, r2, r4, r5, r6, r9, sl, fp, sp, lr}^
 8e8:	7773006c 	ldrbvc	r0, [r3, -ip, rrx]!
 8ec:	7261755f 	rsbvc	r7, r1, #398458880	; 0x17c00000
 8f0:	65675f74 	strbvs	r5, [r7, #-3956]!	; 0xf74
 8f4:	745f6374 	ldrbvc	r6, [pc], #-884	; 8fc <_start-0x7704>
 8f8:	6f656d69 	svcvs	0x00656d69
 8fc:	73007475 	movwvc	r7, #1141	; 0x475
 900:	61755f77 	cmnvs	r5, r7, ror pc
 904:	675f7472 			; <UNDEFINED> instruction: 0x675f7472
 908:	5f737465 	svcpl	0x00737465
 90c:	69746e75 	ldmdbvs	r4!, {r0, r2, r4, r5, r6, r9, sl, fp, sp, lr}^
 910:	7773006c 	ldrbvc	r0, [r3, -ip, rrx]!
 914:	7261755f 	rsbvc	r7, r1, #398458880	; 0x17c00000
 918:	65675f74 	strbvs	r5, [r7, #-3956]!	; 0xf74
 91c:	64006374 	strvs	r6, [r0], #-884	; 0x374
 920:	76697265 	strbtvc	r7, [r9], -r5, ror #4
 924:	64006465 	strvs	r6, [r0], #-1125	; 0x465
 928:	79616c65 	stmdbvc	r1!, {r0, r2, r5, r6, sl, fp, sp, lr}^
 92c:	79636e5f 	stmdbvc	r3!, {r0, r1, r2, r3, r4, r6, r9, sl, fp, sp, lr}^
 930:	73656c63 	cmnvc	r5, #25344	; 0x6300
 934:	5f777300 	svcpl	0x00777300
 938:	74726175 	ldrbtvc	r6, [r2], #-373	; 0x175
 93c:	696e695f 	stmdbvs	lr!, {r0, r1, r2, r3, r4, r6, r8, fp, sp, lr}^
 940:	65685f74 	strbvs	r5, [r8, #-3956]!	; 0xf74
 944:	7265706c 	rsbvc	r7, r5, #108	; 0x6c
 948:	6d697400 	cfstrdvs	mvd7, [r9, #-0]
 94c:	74756f65 	ldrbtvc	r6, [r5], #-3941	; 0xf65
 950:	6573755f 	ldrbvs	r7, [r3, #-1375]!	; 0x55f
 954:	77730063 	ldrbvc	r0, [r3, -r3, rrx]!
 958:	7261755f 	rsbvc	r7, r1, #398458880	; 0x17c00000
 95c:	75705f74 	ldrbvc	r5, [r0, #-3956]!	; 0xf74
 960:	6d006b74 	vstrvs	d6, [r0, #-464]	; 0xfffffe30
 964:	72732d79 	rsbsvc	r2, r3, #7744	; 0x1e40
 968:	77732f63 	ldrbvc	r2, [r3, -r3, ror #30]!
 96c:	7261752d 	rsbvc	r7, r1, #188743680	; 0xb400000
 970:	00632e74 	rsbeq	r2, r3, r4, ror lr
 974:	72616863 	rsbvc	r6, r1, #6488064	; 0x630000
 978:	006e695f 	rsbeq	r6, lr, pc, asr r9
 97c:	755f7773 	ldrbvc	r7, [pc, #-1907]	; 211 <_start-0x7def>
 980:	5f747261 	svcpl	0x00747261
 984:	73746567 	cmnvc	r4, #432013312	; 0x19c00000
 988:	6d69745f 	cfstrdvs	mvd7, [r9, #-380]!	; 0xfffffe84
 98c:	74756f65 	ldrbtvc	r6, [r5], #-3941	; 0xf65
 990:	79626e00 	stmdbvc	r2!, {r9, sl, fp, sp, lr}^
 994:	00736574 	rsbseq	r6, r3, r4, ror r5
 998:	63657375 	cmnvs	r5, #-738197503	; 0xd4000001
 99c:	6d69745f 	cfstrdvs	mvd7, [r9, #-380]!	; 0xfffffe84
 9a0:	74756f65 	ldrbtvc	r6, [r5], #-3941	; 0xf65
 9a4:	5f777300 	svcpl	0x00777300
 9a8:	74726175 	ldrbtvc	r6, [r2], #-373	; 0x175
 9ac:	7465675f 	strbtvc	r6, [r5], #-1887	; 0x75f
 9b0:	6e755f73 	mrcvs	15, 3, r5, cr5, cr3, {3}
 9b4:	5f6c6974 	svcpl	0x006c6974
 9b8:	006b6c62 	rsbeq	r6, fp, r2, ror #24
 9bc:	74696177 	strbtvc	r6, [r9], #-375	; 0x177
 9c0:	746e755f 	strbtvc	r7, [lr], #-1375	; 0x55f
 9c4:	755f6c69 	ldrbvc	r6, [pc, #-3177]	; fffffd63 <__bss_end__+0xffff55cb>
 9c8:	00636573 	rsbeq	r6, r3, r3, ror r5
 9cc:	5f585541 	svcpl	0x00585541
 9d0:	4d5f554d 	cfldr64mi	mvdx5, [pc, #-308]	; 8a4 <_start-0x775c>
 9d4:	525f5243 	subspl	r5, pc, #805306372	; 0x30000004
 9d8:	41004745 	tstmi	r0, r5, asr #14
 9dc:	4d5f5855 	ldclmi	8, cr5, [pc, #-340]	; 890 <_start-0x7770>
 9e0:	4f495f55 	svcmi	0x00495f55
 9e4:	4745525f 	smlsldmi	r5, r5, pc, r2	; <UNPREDICTABLE>
 9e8:	58554100 	ldmdapl	r5, {r8, lr}^
 9ec:	5f554d5f 	svcpl	0x00554d5f
 9f0:	5f52534d 	svcpl	0x0052534d
 9f4:	00474552 	subeq	r4, r7, r2, asr r5
 9f8:	74726175 	ldrbtvc	r6, [r2], #-373	; 0x175
 9fc:	6e61635f 	mcrvs	3, 3, r6, cr1, cr15, {2}
 a00:	7465675f 	strbtvc	r6, [r5], #-1887	; 0x75f
 a04:	55410063 	strbpl	r0, [r1, #-99]	; 0x63
 a08:	554d5f58 	strbpl	r5, [sp, #-3928]	; 0xf58
 a0c:	544e435f 	strbpl	r4, [lr], #-863	; 0x35f
 a10:	45525f4c 	ldrbmi	r5, [r2, #-3916]	; 0xf4c
 a14:	61750047 	cmnvs	r5, r7, asr #32
 a18:	685f7472 	ldmdavs	pc, {r1, r4, r5, r6, sl, ip, sp, lr}^	; <UNPREDICTABLE>
 a1c:	645f7361 	ldrbvs	r7, [pc], #-865	; a24 <_start-0x75dc>
 a20:	00617461 	rsbeq	r7, r1, r1, ror #8
 a24:	5f585541 	svcpl	0x00585541
 a28:	495f554d 	ldmdbmi	pc, {r0, r2, r3, r6, r8, sl, ip, lr}^	; <UNPREDICTABLE>
 a2c:	525f5245 	subspl	r5, pc, #1342177284	; 0x50000004
 a30:	41004745 	tstmi	r0, r5, asr #14
 a34:	4d5f5855 	ldclmi	8, cr5, [pc, #-340]	; 8e8 <_start-0x7718>
 a38:	49495f55 	stmdbmi	r9, {r0, r2, r4, r6, r8, r9, sl, fp, ip, lr}^
 a3c:	45525f52 	ldrbmi	r5, [r2, #-3922]	; 0xf52
 a40:	61750047 	cmnvs	r5, r7, asr #32
 a44:	635f7472 	cmpvs	pc, #1912602624	; 0x72000000
 a48:	705f6e61 	subsvc	r6, pc, r1, ror #28
 a4c:	00637475 	rsbeq	r7, r3, r5, ror r4
 a50:	5f585541 	svcpl	0x00585541
 a54:	42414e45 	submi	r4, r1, #1104	; 0x450
 a58:	0053454c 	subseq	r4, r3, ip, asr #10
 a5c:	5f585541 	svcpl	0x00585541
 a60:	00515249 	subseq	r5, r1, r9, asr #4
 a64:	5f585541 	svcpl	0x00585541
 a68:	425f554d 	subsmi	r5, pc, #322961408	; 0x13400000
 a6c:	5f445541 	svcpl	0x00445541
 a70:	00474552 	subeq	r4, r7, r2, asr r5
 a74:	5f585541 	svcpl	0x00585541
 a78:	535f554d 	cmppl	pc, #322961408	; 0x13400000
 a7c:	5f544154 	svcpl	0x00544154
 a80:	00474552 	subeq	r4, r7, r2, asr r5
 a84:	5f585541 	svcpl	0x00585541
 a88:	535f554d 	cmppl	pc, #322961408	; 0x13400000
 a8c:	54415243 	strbpl	r5, [r1], #-579	; 0x243
 a90:	6d004843 	stcvs	8, cr4, [r0, #-268]	; 0xfffffef4
 a94:	72732d79 	rsbsvc	r2, r3, #7744	; 0x1e40
 a98:	61752f63 	cmnvs	r5, r3, ror #30
 a9c:	632e7472 	teqvs	lr, #1912602624	; 0x72000000
 aa0:	58554100 	ldmdapl	r5, {r8, lr}^
 aa4:	5f554d5f 	svcpl	0x00554d5f
 aa8:	5f52434c 	svcpl	0x0052434c
 aac:	00474552 	subeq	r4, r7, r2, asr r5
 ab0:	5f585541 	svcpl	0x00585541
 ab4:	4c5f554d 	cfldr64mi	mvdx5, [pc], {77}	; 0x4d
 ab8:	525f5253 	subspl	r5, pc, #805306373	; 0x30000005
 abc:	75004745 	strvc	r4, [r0, #-1861]	; 0x745
 ac0:	5f747261 	svcpl	0x00747261
 ac4:	63746567 	cmnvs	r4, #432013312	; 0x19c00000
 ac8:	7973615f 	ldmdbvc	r3!, {r0, r1, r2, r3, r4, r6, r8, sp, lr}^
 acc:	4900636e 	stmdbmi	r0, {r1, r2, r3, r5, r6, r8, r9, sp, lr}
 ad0:	705f5152 	subsvc	r5, pc, r2, asr r1	; <UNPREDICTABLE>
 ad4:	69646e65 	stmdbvs	r4!, {r0, r2, r5, r6, r9, sl, fp, sp, lr}^
 ad8:	325f676e 	subscc	r6, pc, #28835840	; 0x1b80000
 adc:	73694400 	cmnvc	r9, #0, 8
 ae0:	656c6261 	strbvs	r6, [ip, #-609]!	; 0x261
 ae4:	7361425f 	cmnvc	r1, #-268435451	; 0xf0000005
 ae8:	495f6369 	ldmdbmi	pc, {r0, r3, r5, r6, r8, r9, sp, lr}^	; <UNPREDICTABLE>
 aec:	00735152 	rsbseq	r5, r3, r2, asr r1
 af0:	5f514946 	svcpl	0x00514946
 af4:	746e6f63 	strbtvc	r6, [lr], #-3939	; 0xf63
 af8:	006c6f72 	rsbeq	r6, ip, r2, ror pc
 afc:	746e695f 	strbtvc	r6, [lr], #-2399	; 0x95f
 b00:	75727265 	ldrbvc	r7, [r2, #-613]!	; 0x265
 b04:	745f7470 	ldrbvc	r7, [pc], #-1136	; b0c <_start-0x74f4>
 b08:	656c6261 	strbvs	r6, [ip, #-609]!	; 0x261
 b0c:	51524900 	cmppl	r2, r0, lsl #18
 b10:	7361625f 	cmnvc	r1, #-268435451	; 0xf0000005
 b14:	705f6369 	subsvc	r6, pc, r9, ror #6
 b18:	69646e65 	stmdbvs	r4!, {r0, r2, r5, r6, r9, sl, fp, sp, lr}^
 b1c:	4500676e 	strmi	r6, [r0, #-1902]	; 0x76e
 b20:	6c62616e 	stfvse	f6, [r2], #-440	; 0xfffffe48
 b24:	61425f65 	cmpvs	r2, r5, ror #30
 b28:	5f636973 	svcpl	0x00636973
 b2c:	73515249 	cmpvc	r1, #-1879048188	; 0x90000004
 b30:	616e4500 	cmnvs	lr, r0, lsl #10
 b34:	5f656c62 	svcpl	0x00656c62
 b38:	73515249 	cmpvc	r1, #-1879048188	; 0x90000004
 b3c:	4500315f 	strmi	r3, [r0, #-351]	; 0x15f
 b40:	6c62616e 	stfvse	f6, [r2], #-440	; 0xfffffe48
 b44:	52495f65 	subpl	r5, r9, #404	; 0x194
 b48:	325f7351 	subscc	r7, pc, #1140850689	; 0x44000001
 b4c:	6e695f00 	cdpvs	15, 6, cr5, cr9, cr0, {0}
 b50:	72726574 	rsbsvc	r6, r2, #116, 10	; 0x1d000000
 b54:	5f747075 	svcpl	0x00747075
 b58:	6c626174 	stfvse	f6, [r2], #-464	; 0xfffffe30
 b5c:	6e655f65 	cdpvs	15, 6, cr5, cr5, cr5, {3}
 b60:	73630064 	cmnvc	r3, #100	; 0x64
 b64:	65303431 	ldrvs	r3, [r0, #-1073]!	; 0x431
 b68:	746e692d 	strbtvc	r6, [lr], #-2349	; 0x92d
 b6c:	75727265 	ldrbvc	r7, [r2, #-613]!	; 0x265
 b70:	692f7470 	stmdbvs	pc!, {r4, r5, r6, sl, ip, sp, lr}	; <UNPREDICTABLE>
 b74:	7265746e 	rsbvc	r7, r5, #1845493760	; 0x6e000000
 b78:	74707572 	ldrbtvc	r7, [r0], #-1394	; 0x572
 b7c:	2e632d73 	mcrcs	13, 3, r2, cr3, cr3, {3}
 b80:	52490063 	subpl	r0, r9, #99	; 0x63
 b84:	61425f51 	cmpvs	r2, r1, asr pc
 b88:	44006573 	strmi	r6, [r0], #-1395	; 0x573
 b8c:	62617369 	rsbvs	r7, r1, #-1543503871	; 0xa4000001
 b90:	495f656c 	ldmdbmi	pc, {r2, r3, r5, r6, r8, sl, sp, lr}^	; <UNPREDICTABLE>
 b94:	5f735152 	svcpl	0x00735152
 b98:	69440031 	stmdbvs	r4, {r0, r4, r5}^
 b9c:	6c626173 	stfvse	f6, [r2], #-460	; 0xfffffe34
 ba0:	52495f65 	subpl	r5, r9, #404	; 0x194
 ba4:	325f7351 	subscc	r7, pc, #1140850689	; 0x44000001
 ba8:	73616600 	cmnvc	r1, #0, 12
 bac:	6e695f74 	mcrvs	15, 3, r5, cr9, cr4, {3}
 bb0:	72726574 	rsbsvc	r6, r2, #116, 10	; 0x1d000000
 bb4:	5f747075 	svcpl	0x00747075
 bb8:	74636576 	strbtvc	r6, [r3], #-1398	; 0x576
 bbc:	4900726f 	stmdbmi	r0, {r0, r1, r2, r3, r5, r6, r9, ip, sp, lr}
 bc0:	705f5152 	subsvc	r5, pc, r2, asr r1	; <UNPREDICTABLE>
 bc4:	69646e65 	stmdbvs	r4!, {r0, r2, r5, r6, r9, sl, fp, sp, lr}^
 bc8:	315f676e 	cmpcc	pc, lr, ror #14
 bcc:	7a697300 	bvc	1a5d7d4 <__bss_end__+0x1a5303c>
 bd0:	00745f65 	rsbseq	r5, r4, r5, ror #30
 bd4:	736d656d 	cmnvc	sp, #457179136	; 0x1b400000
 bd8:	63007465 	movwvs	r7, #1125	; 0x465
 bdc:	656e5f62 	strbvs	r5, [lr, #-3938]!	; 0xf62
 be0:	73630077 	cmnvc	r3, #119	; 0x77
 be4:	65303431 	ldrvs	r3, [r0, #-1073]!	; 0x431
 be8:	6372732d 	cmnvs	r2, #-1275068416	; 0xb4000000
 bec:	6e6f632f 	cdpvs	3, 6, cr6, cr15, cr15, {1}
 bf0:	6c6f7274 	sfmvs	f7, 2, [pc], #-464	; a28 <_start-0x75d8>
 bf4:	6f6c622d 	svcvs	0x006c622d
 bf8:	632e6b63 	teqvs	lr, #101376	; 0x18c00
 bfc:	31736300 	cmncc	r3, r0, lsl #6
 c00:	2d653034 	stclcs	0, cr3, [r5, #-208]!	; 0xffffff30
 c04:	65746e69 	ldrbvs	r6, [r4, #-3689]!	; 0xe69
 c08:	70757272 	rsbsvc	r7, r5, r2, ror r2
 c0c:	65642f74 	strbvs	r2, [r4, #-3956]!	; 0xf74
 c10:	6c756166 	ldfvse	f6, [r5], #-408	; 0xfffffe68
 c14:	61682d74 	smcvs	33492	; 0x82d4
 c18:	656c646e 	strbvs	r6, [ip, #-1134]!	; 0x46e
 c1c:	61642d72 	smcvs	17106	; 0x42d2
 c20:	612d6174 	teqvs	sp, r4, ror r1
 c24:	74726f62 	ldrbtvc	r6, [r2], #-3938	; 0xf62
 c28:	6400632e 	strvs	r6, [r0], #-814	; 0x32e
 c2c:	5f617461 	svcpl	0x00617461
 c30:	726f6261 	rsbvc	r6, pc, #268435462	; 0x10000006
 c34:	65765f74 	ldrbvs	r5, [r6, #-3956]!	; 0xf74
 c38:	726f7463 	rsbvc	r7, pc, #1660944384	; 0x63000000
 c3c:	31736300 	cmncc	r3, r0, lsl #6
 c40:	2d653034 	stclcs	0, cr3, [r5, #-208]!	; 0xffffff30
 c44:	65746e69 	ldrbvs	r6, [r4, #-3689]!	; 0xe69
 c48:	70757272 	rsbsvc	r7, r5, r2, ror r2
 c4c:	65642f74 	strbvs	r2, [r4, #-3956]!	; 0xf74
 c50:	6c756166 	ldfvse	f6, [r5], #-408	; 0xfffffe68
 c54:	61682d74 	smcvs	33492	; 0x82d4
 c58:	656c646e 	strbvs	r6, [ip, #-1134]!	; 0x46e
 c5c:	72702d72 	rsbsvc	r2, r0, #7296	; 0x1c80
 c60:	74656665 	strbtvc	r6, [r5], #-1637	; 0x665
 c64:	632e6863 	teqvs	lr, #6488064	; 0x630000
 c68:	65727000 	ldrbvs	r7, [r2, #-0]!
 c6c:	63746566 	cmnvs	r4, #427819008	; 0x19800000
 c70:	62615f68 	rsbvs	r5, r1, #104, 30	; 0x1a0
 c74:	5f74726f 	svcpl	0x0074726f
 c78:	74636576 	strbtvc	r6, [r3], #-1398	; 0x576
 c7c:	7200726f 	andvc	r7, r0, #-268435450	; 0xf0000006
 c80:	74657365 	strbtvc	r7, [r5], #-869	; 0x365
 c84:	6365765f 	cmnvs	r5, #99614720	; 0x5f00000
 c88:	00726f74 	rsbseq	r6, r2, r4, ror pc
 c8c:	34317363 	ldrtcc	r7, [r1], #-867	; 0x363
 c90:	692d6530 	pushvs	{r4, r5, r8, sl, sp, lr}
 c94:	7265746e 	rsbvc	r7, r5, #1845493760	; 0x6e000000
 c98:	74707572 	ldrbtvc	r7, [r0], #-1394	; 0x572
 c9c:	6665642f 	strbtvs	r6, [r5], -pc, lsr #8
 ca0:	746c7561 	strbtvc	r7, [ip], #-1377	; 0x561
 ca4:	6e61682d 	cdpvs	8, 6, cr6, cr1, cr13, {1}
 ca8:	72656c64 	rsbvc	r6, r5, #100, 24	; 0x6400
 cac:	7365722d 	cmnvc	r5, #-805306366	; 0xd0000002
 cb0:	632e7465 	teqvs	lr, #1694498816	; 0x65000000
 cb4:	31736300 	cmncc	r3, r0, lsl #6
 cb8:	2d653034 	stclcs	0, cr3, [r5, #-208]!	; 0xffffff30
 cbc:	65746e69 	ldrbvs	r6, [r4, #-3689]!	; 0xe69
 cc0:	70757272 	rsbsvc	r7, r5, r2, ror r2
 cc4:	65642f74 	strbvs	r2, [r4, #-3956]!	; 0xf74
 cc8:	6c756166 	ldfvse	f6, [r5], #-408	; 0xfffffe68
 ccc:	61682d74 	smcvs	33492	; 0x82d4
 cd0:	656c646e 	strbvs	r6, [ip, #-1134]!	; 0x46e
 cd4:	6e752d72 	mrcvs	13, 3, r2, cr5, cr2, {3}
 cd8:	69666564 	stmdbvs	r6!, {r2, r5, r6, r8, sl, sp, lr}^
 cdc:	2d64656e 	cfstr64cs	mvdx6, [r4, #-440]!	; 0xfffffe48
 ce0:	74736e69 	ldrbtvc	r6, [r3], #-3689	; 0xe69
 ce4:	7500632e 	strvc	r6, [r0, #-814]	; 0x32e
 ce8:	6665646e 	strbtvs	r6, [r5], -lr, ror #8
 cec:	64656e69 	strbtvs	r6, [r5], #-3689	; 0xe69
 cf0:	736e695f 	cmnvc	lr, #1556480	; 0x17c000
 cf4:	63757274 	cmnvs	r5, #116, 4	; 0x40000007
 cf8:	6e6f6974 	mcrvs	9, 3, r6, cr15, cr4, {3}
 cfc:	6365765f 	cmnvs	r5, #99614720	; 0x5f00000
 d00:	00726f74 	rsbseq	r6, r2, r4, ror pc
 d04:	6362696c 	cmnvs	r2, #108, 18	; 0x1b0000
 d08:	6d656d2f 	stclvs	13, cr6, [r5, #-188]!	; 0xffffff44
 d0c:	2e746573 	mrccs	5, 3, r6, cr4, cr3, {3}
 d10:	Address 0x0000000000000d10 is out of bounds.


Disassembly of section .debug_frame:

00000000 <.debug_frame>:
   0:	0000000c 	andeq	r0, r0, ip
   4:	ffffffff 			; <UNDEFINED> instruction: 0xffffffff
   8:	7c020001 	stcvc	0, cr0, [r2], {1}
   c:	000d0c0e 	andeq	r0, sp, lr, lsl #24
  10:	00000014 	andeq	r0, r0, r4, lsl r0
  14:	00000000 	andeq	r0, r0, r0
  18:	00008010 	andeq	r8, r0, r0, lsl r0
  1c:	00000050 	andeq	r0, r0, r0, asr r0
  20:	84080e42 	strhi	r0, [r8], #-3650	; 0xe42
  24:	00018e02 	andeq	r8, r1, r2, lsl #28
  28:	00000014 	andeq	r0, r0, r4, lsl r0
  2c:	00000000 	andeq	r0, r0, r0
  30:	00008060 	andeq	r8, r0, r0, rrx
  34:	000001ec 	andeq	r0, r0, ip, ror #3
  38:	84040e42 	strhi	r0, [r4], #-3650	; 0xe42
  3c:	00000001 	andeq	r0, r0, r1
  40:	00000014 	andeq	r0, r0, r4, lsl r0
  44:	00000000 	andeq	r0, r0, r0
  48:	0000824c 	andeq	r8, r0, ip, asr #4
  4c:	0000029c 	muleq	r0, ip, r2
  50:	84040e42 	strhi	r0, [r4], #-3650	; 0xe42
  54:	00000001 	andeq	r0, r0, r1
  58:	00000014 	andeq	r0, r0, r4, lsl r0
  5c:	00000000 	andeq	r0, r0, r0
  60:	000084e8 	andeq	r8, r0, r8, ror #9
  64:	000000a4 	andeq	r0, r0, r4, lsr #1
  68:	84080e42 	strhi	r0, [r8], #-3650	; 0xe42
  6c:	00018e02 	andeq	r8, r1, r2, lsl #28
  70:	00000014 	andeq	r0, r0, r4, lsl r0
  74:	00000000 	andeq	r0, r0, r0
  78:	0000858c 	andeq	r8, r0, ip, lsl #11
  7c:	00000040 	andeq	r0, r0, r0, asr #32
  80:	83080e42 	movwhi	r0, #36418	; 0x8e42
  84:	00018e02 	andeq	r8, r1, r2, lsl #28
  88:	0000000c 	andeq	r0, r0, ip
  8c:	ffffffff 			; <UNDEFINED> instruction: 0xffffffff
  90:	7c020001 	stcvc	0, cr0, [r2], {1}
  94:	000d0c0e 	andeq	r0, sp, lr, lsl #24
  98:	00000024 	andeq	r0, r0, r4, lsr #32
  9c:	00000088 	andeq	r0, r0, r8, lsl #1
  a0:	000085cc 	andeq	r8, r0, ip, asr #11
  a4:	00000058 	andeq	r0, r0, r8, asr r0
  a8:	80100e42 	andshi	r0, r0, r2, asr #28
  ac:	82038104 	andhi	r8, r3, #4, 2
  b0:	42018302 	andmi	r8, r1, #134217728	; 0x8000000
  b4:	07841c0e 	streq	r1, [r4, lr, lsl #24]
  b8:	058e0685 	streq	r0, [lr, #1669]	; 0x685
  bc:	00280e42 	eoreq	r0, r8, r2, asr #28
  c0:	0000000c 	andeq	r0, r0, ip
  c4:	ffffffff 			; <UNDEFINED> instruction: 0xffffffff
  c8:	7c020001 	stcvc	0, cr0, [r2], {1}
  cc:	000d0c0e 	andeq	r0, sp, lr, lsl #24
  d0:	00000014 	andeq	r0, r0, r4, lsl r0
  d4:	000000c0 	andeq	r0, r0, r0, asr #1
  d8:	00008624 	andeq	r8, r0, r4, lsr #12
  dc:	00000014 	andeq	r0, r0, r4, lsl r0
  e0:	84080e42 	strhi	r0, [r8], #-3650	; 0xe42
  e4:	00018e02 	andeq	r8, r1, r2, lsl #28
  e8:	0000000c 	andeq	r0, r0, ip
  ec:	000000c0 	andeq	r0, r0, r0, asr #1
  f0:	00008638 	andeq	r8, r0, r8, lsr r6
  f4:	00000018 	andeq	r0, r0, r8, lsl r0
  f8:	0000000c 	andeq	r0, r0, ip
  fc:	000000c0 	andeq	r0, r0, r0, asr #1
 100:	00008650 	andeq	r8, r0, r0, asr r6
 104:	00000010 	andeq	r0, r0, r0, lsl r0
 108:	0000000c 	andeq	r0, r0, ip
 10c:	ffffffff 			; <UNDEFINED> instruction: 0xffffffff
 110:	7c020001 	stcvc	0, cr0, [r2], {1}
 114:	000d0c0e 	andeq	r0, sp, lr, lsl #24
 118:	00000018 	andeq	r0, r0, r8, lsl r0
 11c:	00000108 	andeq	r0, r0, r8, lsl #2
 120:	00008660 	andeq	r8, r0, r0, ror #12
 124:	00000034 	andeq	r0, r0, r4, lsr r0
 128:	83100e42 	tsthi	r0, #1056	; 0x420
 12c:	85038404 	strhi	r8, [r3, #-1028]	; 0x404
 130:	00018e02 	andeq	r8, r1, r2, lsl #28
 134:	0000000c 	andeq	r0, r0, ip
 138:	ffffffff 			; <UNDEFINED> instruction: 0xffffffff
 13c:	7c020001 	stcvc	0, cr0, [r2], {1}
 140:	000d0c0e 	andeq	r0, sp, lr, lsl #24
 144:	0000000c 	andeq	r0, r0, ip
 148:	00000134 	andeq	r0, r0, r4, lsr r1
 14c:	00008694 	muleq	r0, r4, r6
 150:	00000014 	andeq	r0, r0, r4, lsl r0
 154:	0000000c 	andeq	r0, r0, ip
 158:	00000134 	andeq	r0, r0, r4, lsr r1
 15c:	000086a8 	andeq	r8, r0, r8, lsr #13
 160:	0000002c 	andeq	r0, r0, ip, lsr #32
 164:	0000000c 	andeq	r0, r0, ip
 168:	00000134 	andeq	r0, r0, r4, lsr r1
 16c:	000086d4 	ldrdeq	r8, [r0], -r4
 170:	00000040 	andeq	r0, r0, r0, asr #32
 174:	00000020 	andeq	r0, r0, r0, lsr #32
 178:	00000134 	andeq	r0, r0, r4, lsr r1
 17c:	00008714 	andeq	r8, r0, r4, lsl r7
 180:	000001a8 	andeq	r0, r0, r8, lsr #3
 184:	84180e42 	ldrhi	r0, [r8], #-3650	; 0xe42
 188:	86058506 	strhi	r8, [r5], -r6, lsl #10
 18c:	88038704 	stmdahi	r3, {r2, r8, r9, sl, pc}
 190:	42018e02 	andmi	r8, r1, #2, 28
 194:	0000600e 	andeq	r6, r0, lr
 198:	00000014 	andeq	r0, r0, r4, lsl r0
 19c:	00000134 	andeq	r0, r0, r4, lsr r1
 1a0:	000088bc 			; <UNDEFINED> instruction: 0x000088bc
 1a4:	00000068 	andeq	r0, r0, r8, rrx
 1a8:	8e040e42 	cdphi	14, 0, cr0, cr4, cr2, {2}
 1ac:	100e4201 	andne	r4, lr, r1, lsl #4
 1b0:	00000028 	andeq	r0, r0, r8, lsr #32
 1b4:	00000134 	andeq	r0, r0, r4, lsr r1
 1b8:	00008924 	andeq	r8, r0, r4, lsr #18
 1bc:	00000294 	muleq	r0, r4, r2
 1c0:	84240e42 	strthi	r0, [r4], #-3650	; 0xe42
 1c4:	86088509 	strhi	r8, [r8], -r9, lsl #10
 1c8:	88068707 	stmdahi	r6, {r0, r1, r2, r8, r9, sl, pc}
 1cc:	8a048905 	bhi	1225e8 <__bss_end__+0x117e50>
 1d0:	8e028b03 	vmlahi.f64	d8, d2, d3
 1d4:	b00e4201 	andlt	r4, lr, r1, lsl #4
 1d8:	00000001 	andeq	r0, r0, r1
 1dc:	0000000c 	andeq	r0, r0, ip
 1e0:	ffffffff 			; <UNDEFINED> instruction: 0xffffffff
 1e4:	7c020001 	stcvc	0, cr0, [r2], {1}
 1e8:	000d0c0e 	andeq	r0, sp, lr, lsl #24
 1ec:	0000000c 	andeq	r0, r0, ip
 1f0:	000001dc 	ldrdeq	r0, [r0], -ip
 1f4:	00008bb8 			; <UNDEFINED> instruction: 0x00008bb8
 1f8:	00000010 	andeq	r0, r0, r0, lsl r0
 1fc:	0000000c 	andeq	r0, r0, ip
 200:	000001dc 	ldrdeq	r0, [r0], -ip
 204:	00008bc8 	andeq	r8, r0, r8, asr #23
 208:	00000010 	andeq	r0, r0, r0, lsl r0
 20c:	0000000c 	andeq	r0, r0, ip
 210:	ffffffff 			; <UNDEFINED> instruction: 0xffffffff
 214:	7c020001 	stcvc	0, cr0, [r2], {1}
 218:	000d0c0e 	andeq	r0, sp, lr, lsl #24
 21c:	00000014 	andeq	r0, r0, r4, lsl r0
 220:	0000020c 	andeq	r0, r0, ip, lsl #4
 224:	00008bd8 	ldrdeq	r8, [r0], -r8	; <UNPREDICTABLE>
 228:	00000028 	andeq	r0, r0, r8, lsr #32
 22c:	83080e42 	movwhi	r0, #36418	; 0x8e42
 230:	00018e02 	andeq	r8, r1, r2, lsl #28
 234:	0000000c 	andeq	r0, r0, ip
 238:	ffffffff 			; <UNDEFINED> instruction: 0xffffffff
 23c:	7c020001 	stcvc	0, cr0, [r2], {1}
 240:	000d0c0e 	andeq	r0, sp, lr, lsl #24
 244:	00000014 	andeq	r0, r0, r4, lsl r0
 248:	00000234 	andeq	r0, r0, r4, lsr r2
 24c:	00008c00 	andeq	r8, r0, r0, lsl #24
 250:	00000020 	andeq	r0, r0, r0, lsr #32
 254:	84080e42 	strhi	r0, [r8], #-3650	; 0xe42
 258:	00018e02 	andeq	r8, r1, r2, lsl #28
 25c:	00000014 	andeq	r0, r0, r4, lsl r0
 260:	00000234 	andeq	r0, r0, r4, lsr r2
 264:	00008c20 	andeq	r8, r0, r0, lsr #24
 268:	00000090 	muleq	r0, r0, r0
 26c:	83080e42 	movwhi	r0, #36418	; 0x8e42
 270:	00018e02 	andeq	r8, r1, r2, lsl #28
 274:	0000000c 	andeq	r0, r0, ip
 278:	ffffffff 			; <UNDEFINED> instruction: 0xffffffff
 27c:	7c020001 	stcvc	0, cr0, [r2], {1}
 280:	000d0c0e 	andeq	r0, sp, lr, lsl #24
 284:	0000000c 	andeq	r0, r0, ip
 288:	00000274 	andeq	r0, r0, r4, ror r2
 28c:	00008cb0 			; <UNDEFINED> instruction: 0x00008cb0
 290:	00000018 	andeq	r0, r0, r8, lsl r0
 294:	0000000c 	andeq	r0, r0, ip
 298:	00000274 	andeq	r0, r0, r4, ror r2
 29c:	00008cc8 	andeq	r8, r0, r8, asr #25
 2a0:	00000014 	andeq	r0, r0, r4, lsl r0
 2a4:	00000014 	andeq	r0, r0, r4, lsl r0
 2a8:	00000274 	andeq	r0, r0, r4, ror r2
 2ac:	00008cdc 	ldrdeq	r8, [r0], -ip
 2b0:	00000048 	andeq	r0, r0, r8, asr #32
 2b4:	83080e42 	movwhi	r0, #36418	; 0x8e42
 2b8:	00018e02 	andeq	r8, r1, r2, lsl #28
 2bc:	0000000c 	andeq	r0, r0, ip
 2c0:	ffffffff 			; <UNDEFINED> instruction: 0xffffffff
 2c4:	7c020001 	stcvc	0, cr0, [r2], {1}
 2c8:	000d0c0e 	andeq	r0, sp, lr, lsl #24
 2cc:	0000000c 	andeq	r0, r0, ip
 2d0:	000002bc 			; <UNDEFINED> instruction: 0x000002bc
 2d4:	00008d24 	andeq	r8, r0, r4, lsr #26
 2d8:	0000001c 	andeq	r0, r0, ip, lsl r0
 2dc:	00000014 	andeq	r0, r0, r4, lsl r0
 2e0:	000002bc 			; <UNDEFINED> instruction: 0x000002bc
 2e4:	00008d40 	andeq	r8, r0, r0, asr #26
 2e8:	00000014 	andeq	r0, r0, r4, lsl r0
 2ec:	83080e42 	movwhi	r0, #36418	; 0x8e42
 2f0:	00018e02 	andeq	r8, r1, r2, lsl #28
 2f4:	00000014 	andeq	r0, r0, r4, lsl r0
 2f8:	000002bc 			; <UNDEFINED> instruction: 0x000002bc
 2fc:	00008d54 	andeq	r8, r0, r4, asr sp
 300:	0000000c 	andeq	r0, r0, ip
 304:	83080e42 	movwhi	r0, #36418	; 0x8e42
 308:	00018e02 	andeq	r8, r1, r2, lsl #28
 30c:	00000018 	andeq	r0, r0, r8, lsl r0
 310:	000002bc 			; <UNDEFINED> instruction: 0x000002bc
 314:	00008d60 	andeq	r8, r0, r0, ror #26
 318:	00000024 	andeq	r0, r0, r4, lsr #32
 31c:	83100e42 	tsthi	r0, #1056	; 0x420
 320:	85038404 	strhi	r8, [r3, #-1028]	; 0x404
 324:	00018e02 	andeq	r8, r1, r2, lsl #28
 328:	00000014 	andeq	r0, r0, r4, lsl r0
 32c:	000002bc 			; <UNDEFINED> instruction: 0x000002bc
 330:	00008d84 	andeq	r8, r0, r4, lsl #27
 334:	00000014 	andeq	r0, r0, r4, lsl r0
 338:	83080e42 	movwhi	r0, #36418	; 0x8e42
 33c:	00018e02 	andeq	r8, r1, r2, lsl #28
 340:	00000014 	andeq	r0, r0, r4, lsl r0
 344:	000002bc 			; <UNDEFINED> instruction: 0x000002bc
 348:	00008d98 	muleq	r0, r8, sp
 34c:	00000014 	andeq	r0, r0, r4, lsl r0
 350:	83080e42 	movwhi	r0, #36418	; 0x8e42
 354:	00018e02 	andeq	r8, r1, r2, lsl #28
 358:	0000000c 	andeq	r0, r0, ip
 35c:	ffffffff 			; <UNDEFINED> instruction: 0xffffffff
 360:	7c020001 	stcvc	0, cr0, [r2], {1}
 364:	000d0c0e 	andeq	r0, sp, lr, lsl #24
 368:	00000018 	andeq	r0, r0, r8, lsl r0
 36c:	00000358 	andeq	r0, r0, r8, asr r3
 370:	00008dac 	andeq	r8, r0, ip, lsr #27
 374:	000000d4 	ldrdeq	r0, [r0], -r4
 378:	83100e42 	tsthi	r0, #1056	; 0x420
 37c:	85038404 	strhi	r8, [r3, #-1028]	; 0x404
 380:	00018e02 	andeq	r8, r1, r2, lsl #28
 384:	00000014 	andeq	r0, r0, r4, lsl r0
 388:	00000358 	andeq	r0, r0, r8, asr r3
 38c:	00008e80 	andeq	r8, r0, r0, lsl #29
 390:	00000038 	andeq	r0, r0, r8, lsr r0
 394:	83080e42 	movwhi	r0, #36418	; 0x8e42
 398:	00018e02 	andeq	r8, r1, r2, lsl #28
 39c:	00000014 	andeq	r0, r0, r4, lsl r0
 3a0:	00000358 	andeq	r0, r0, r8, asr r3
 3a4:	00008eb8 			; <UNDEFINED> instruction: 0x00008eb8
 3a8:	00000038 	andeq	r0, r0, r8, lsr r0
 3ac:	83080e42 	movwhi	r0, #36418	; 0x8e42
 3b0:	00018e02 	andeq	r8, r1, r2, lsl #28
 3b4:	00000018 	andeq	r0, r0, r8, lsl r0
 3b8:	00000358 	andeq	r0, r0, r8, asr r3
 3bc:	00008ef0 	strdeq	r8, [r0], -r0
 3c0:	000000cc 	andeq	r0, r0, ip, asr #1
 3c4:	83100e42 	tsthi	r0, #1056	; 0x420
 3c8:	85038404 	strhi	r8, [r3, #-1028]	; 0x404
 3cc:	00018e02 	andeq	r8, r1, r2, lsl #28
 3d0:	00000014 	andeq	r0, r0, r4, lsl r0
 3d4:	00000358 	andeq	r0, r0, r8, asr r3
 3d8:	00008fbc 			; <UNDEFINED> instruction: 0x00008fbc
 3dc:	0000004c 	andeq	r0, r0, ip, asr #32
 3e0:	84080e42 	strhi	r0, [r8], #-3650	; 0xe42
 3e4:	00018e02 	andeq	r8, r1, r2, lsl #28
 3e8:	00000014 	andeq	r0, r0, r4, lsl r0
 3ec:	00000358 	andeq	r0, r0, r8, asr r3
 3f0:	00009008 	andeq	r9, r0, r8
 3f4:	00000024 	andeq	r0, r0, r4, lsr #32
 3f8:	83080e42 	movwhi	r0, #36418	; 0x8e42
 3fc:	00018e02 	andeq	r8, r1, r2, lsl #28
 400:	00000018 	andeq	r0, r0, r8, lsl r0
 404:	00000358 	andeq	r0, r0, r8, asr r3
 408:	0000902c 	andeq	r9, r0, ip, lsr #32
 40c:	000000d8 	ldrdeq	r0, [r0], -r8
 410:	84100e42 	ldrhi	r0, [r0], #-3650	; 0xe42
 414:	86038504 	strhi	r8, [r3], -r4, lsl #10
 418:	00018e02 	andeq	r8, r1, r2, lsl #28
 41c:	00000014 	andeq	r0, r0, r4, lsl r0
 420:	00000358 	andeq	r0, r0, r8, asr r3
 424:	00009104 	andeq	r9, r0, r4, lsl #2
 428:	00000038 	andeq	r0, r0, r8, lsr r0
 42c:	83080e42 	movwhi	r0, #36418	; 0x8e42
 430:	00018e02 	andeq	r8, r1, r2, lsl #28
 434:	00000014 	andeq	r0, r0, r4, lsl r0
 438:	00000358 	andeq	r0, r0, r8, asr r3
 43c:	0000913c 	andeq	r9, r0, ip, lsr r1
 440:	0000002c 	andeq	r0, r0, ip, lsr #32
 444:	83080e42 	movwhi	r0, #36418	; 0x8e42
 448:	00018e02 	andeq	r8, r1, r2, lsl #28
 44c:	00000018 	andeq	r0, r0, r8, lsl r0
 450:	00000358 	andeq	r0, r0, r8, asr r3
 454:	00009168 	andeq	r9, r0, r8, ror #2
 458:	00000084 	andeq	r0, r0, r4, lsl #1
 45c:	83100e42 	tsthi	r0, #1056	; 0x420
 460:	85038404 	strhi	r8, [r3, #-1028]	; 0x404
 464:	00018e02 	andeq	r8, r1, r2, lsl #28
 468:	00000018 	andeq	r0, r0, r8, lsl r0
 46c:	00000358 	andeq	r0, r0, r8, asr r3
 470:	000091ec 	andeq	r9, r0, ip, ror #3
 474:	00000084 	andeq	r0, r0, r4, lsl #1
 478:	83100e42 	tsthi	r0, #1056	; 0x420
 47c:	85038404 	strhi	r8, [r3, #-1028]	; 0x404
 480:	00018e02 	andeq	r8, r1, r2, lsl #28
 484:	00000014 	andeq	r0, r0, r4, lsl r0
 488:	00000358 	andeq	r0, r0, r8, asr r3
 48c:	00009270 	andeq	r9, r0, r0, ror r2
 490:	00000084 	andeq	r0, r0, r4, lsl #1
 494:	84080e42 	strhi	r0, [r8], #-3650	; 0xe42
 498:	00018e02 	andeq	r8, r1, r2, lsl #28
 49c:	00000014 	andeq	r0, r0, r4, lsl r0
 4a0:	00000358 	andeq	r0, r0, r8, asr r3
 4a4:	000092f4 	strdeq	r9, [r0], -r4
 4a8:	00000058 	andeq	r0, r0, r8, asr r0
 4ac:	84080e42 	strhi	r0, [r8], #-3650	; 0xe42
 4b0:	00018e02 	andeq	r8, r1, r2, lsl #28
 4b4:	0000000c 	andeq	r0, r0, ip
 4b8:	ffffffff 			; <UNDEFINED> instruction: 0xffffffff
 4bc:	7c020001 	stcvc	0, cr0, [r2], {1}
 4c0:	000d0c0e 	andeq	r0, sp, lr, lsl #24
 4c4:	0000001c 	andeq	r0, r0, ip, lsl r0
 4c8:	000004b4 			; <UNDEFINED> instruction: 0x000004b4
 4cc:	0000934c 	andeq	r9, r0, ip, asr #6
 4d0:	00000154 	andeq	r0, r0, r4, asr r1
 4d4:	84180e42 	ldrhi	r0, [r8], #-3650	; 0xe42
 4d8:	86058506 	strhi	r8, [r5], -r6, lsl #10
 4dc:	88038704 	stmdahi	r3, {r2, r8, r9, sl, pc}
 4e0:	00018e02 	andeq	r8, r1, r2, lsl #28
 4e4:	00000020 	andeq	r0, r0, r0, lsr #32
 4e8:	000004b4 			; <UNDEFINED> instruction: 0x000004b4
 4ec:	000094a0 	andeq	r9, r0, r0, lsr #9
 4f0:	000001c8 	andeq	r0, r0, r8, asr #3
 4f4:	83200e42 	teqhi	r0, #1056	; 0x420
 4f8:	85078408 	strhi	r8, [r7, #-1032]	; 0x408
 4fc:	87058606 	strhi	r8, [r5, -r6, lsl #12]
 500:	89038804 	stmdbhi	r3, {r2, fp, pc}
 504:	00018e02 	andeq	r8, r1, r2, lsl #28
 508:	00000024 	andeq	r0, r0, r4, lsr #32
 50c:	000004b4 			; <UNDEFINED> instruction: 0x000004b4
 510:	00009668 	andeq	r9, r0, r8, ror #12
 514:	000000a4 	andeq	r0, r0, r4, lsr #1
 518:	84200e42 	strthi	r0, [r0], #-3650	; 0xe42
 51c:	86078508 	strhi	r8, [r7], -r8, lsl #10
 520:	88058706 	stmdahi	r5, {r1, r2, r8, r9, sl, pc}
 524:	8a038904 	bhi	e293c <__bss_end__+0xd81a4>
 528:	42018e02 	andmi	r8, r1, #2, 28
 52c:	0000280e 	andeq	r2, r0, lr, lsl #16
 530:	00000020 	andeq	r0, r0, r0, lsr #32
 534:	000004b4 			; <UNDEFINED> instruction: 0x000004b4
 538:	0000970c 	andeq	r9, r0, ip, lsl #14
 53c:	00000090 	muleq	r0, r0, r0
 540:	84180e42 	ldrhi	r0, [r8], #-3650	; 0xe42
 544:	86058506 	strhi	r8, [r5], -r6, lsl #10
 548:	88038704 	stmdahi	r3, {r2, r8, r9, sl, pc}
 54c:	42018e02 	andmi	r8, r1, #2, 28
 550:	0000200e 	andeq	r2, r0, lr
 554:	00000020 	andeq	r0, r0, r0, lsr #32
 558:	000004b4 			; <UNDEFINED> instruction: 0x000004b4
 55c:	0000979c 	muleq	r0, ip, r7
 560:	000000d4 	ldrdeq	r0, [r0], -r4
 564:	84180e42 	ldrhi	r0, [r8], #-3650	; 0xe42
 568:	86058506 	strhi	r8, [r5], -r6, lsl #10
 56c:	88038704 	stmdahi	r3, {r2, r8, r9, sl, pc}
 570:	42018e02 	andmi	r8, r1, #2, 28
 574:	0000200e 	andeq	r2, r0, lr
 578:	00000014 	andeq	r0, r0, r4, lsl r0
 57c:	000004b4 			; <UNDEFINED> instruction: 0x000004b4
 580:	00009870 	andeq	r9, r0, r0, ror r8
 584:	0000003c 	andeq	r0, r0, ip, lsr r0
 588:	83080e42 	movwhi	r0, #36418	; 0x8e42
 58c:	00018e02 	andeq	r8, r1, r2, lsl #28
 590:	00000018 	andeq	r0, r0, r8, lsl r0
 594:	000004b4 			; <UNDEFINED> instruction: 0x000004b4
 598:	000098ac 	andeq	r9, r0, ip, lsr #17
 59c:	0000002c 	andeq	r0, r0, ip, lsr #32
 5a0:	83100e42 	tsthi	r0, #1056	; 0x420
 5a4:	85038404 	strhi	r8, [r3, #-1028]	; 0x404
 5a8:	00018e02 	andeq	r8, r1, r2, lsl #28
 5ac:	00000024 	andeq	r0, r0, r4, lsr #32
 5b0:	000004b4 			; <UNDEFINED> instruction: 0x000004b4
 5b4:	000098d8 	ldrdeq	r9, [r0], -r8
 5b8:	00000090 	muleq	r0, r0, r0
 5bc:	810c0e42 	tsthi	ip, r2, asr #28
 5c0:	83028203 	movwhi	r8, #8707	; 0x2203
 5c4:	180e4201 	stmdane	lr, {r0, r9, lr}
 5c8:	05850684 	streq	r0, [r5, #1668]	; 0x684
 5cc:	0e42048e 	cdpeq	4, 4, cr0, cr2, cr14, {4}
 5d0:	000003f0 	strdeq	r0, [r0], -r0	; <UNPREDICTABLE>
 5d4:	00000014 	andeq	r0, r0, r4, lsl r0
 5d8:	000004b4 			; <UNDEFINED> instruction: 0x000004b4
 5dc:	00009968 	andeq	r9, r0, r8, ror #18
 5e0:	0000004c 	andeq	r0, r0, ip, asr #32
 5e4:	8e040e42 	cdphi	14, 0, cr0, cr4, cr2, {2}
 5e8:	100e4201 	andne	r4, lr, r1, lsl #4
 5ec:	0000000c 	andeq	r0, r0, ip
 5f0:	ffffffff 			; <UNDEFINED> instruction: 0xffffffff
 5f4:	7c020001 	stcvc	0, cr0, [r2], {1}
 5f8:	000d0c0e 	andeq	r0, sp, lr, lsl #24
 5fc:	00000018 	andeq	r0, r0, r8, lsl r0
 600:	000005ec 	andeq	r0, r0, ip, ror #11
 604:	000099b4 			; <UNDEFINED> instruction: 0x000099b4
 608:	0000009c 	muleq	r0, ip, r0
 60c:	83100e42 	tsthi	r0, #1056	; 0x420
 610:	85038404 	strhi	r8, [r3, #-1028]	; 0x404
 614:	00018e02 	andeq	r8, r1, r2, lsl #28
 618:	00000014 	andeq	r0, r0, r4, lsl r0
 61c:	000005ec 	andeq	r0, r0, ip, ror #11
 620:	00009a50 	andeq	r9, r0, r0, asr sl
 624:	0000001c 	andeq	r0, r0, ip, lsl r0
 628:	83080e42 	movwhi	r0, #36418	; 0x8e42
 62c:	00018e02 	andeq	r8, r1, r2, lsl #28
 630:	00000014 	andeq	r0, r0, r4, lsl r0
 634:	000005ec 	andeq	r0, r0, ip, ror #11
 638:	00009a6c 	andeq	r9, r0, ip, ror #20
 63c:	00000028 	andeq	r0, r0, r8, lsr #32
 640:	83080e42 	movwhi	r0, #36418	; 0x8e42
 644:	00018e02 	andeq	r8, r1, r2, lsl #28
 648:	00000014 	andeq	r0, r0, r4, lsl r0
 64c:	000005ec 	andeq	r0, r0, ip, ror #11
 650:	00009a94 	muleq	r0, r4, sl
 654:	0000001c 	andeq	r0, r0, ip, lsl r0
 658:	83080e42 	movwhi	r0, #36418	; 0x8e42
 65c:	00018e02 	andeq	r8, r1, r2, lsl #28
 660:	00000014 	andeq	r0, r0, r4, lsl r0
 664:	000005ec 	andeq	r0, r0, ip, ror #11
 668:	00009ab0 			; <UNDEFINED> instruction: 0x00009ab0
 66c:	0000002c 	andeq	r0, r0, ip, lsr #32
 670:	84080e42 	strhi	r0, [r8], #-3650	; 0xe42
 674:	00018e02 	andeq	r8, r1, r2, lsl #28
 678:	00000014 	andeq	r0, r0, r4, lsl r0
 67c:	000005ec 	andeq	r0, r0, ip, ror #11
 680:	00009adc 	ldrdeq	r9, [r0], -ip
 684:	0000000c 	andeq	r0, r0, ip
 688:	83080e42 	movwhi	r0, #36418	; 0x8e42
 68c:	00018e02 	andeq	r8, r1, r2, lsl #28
 690:	00000014 	andeq	r0, r0, r4, lsl r0
 694:	000005ec 	andeq	r0, r0, ip, ror #11
 698:	00009ae8 	andeq	r9, r0, r8, ror #21
 69c:	00000020 	andeq	r0, r0, r0, lsr #32
 6a0:	83080e42 	movwhi	r0, #36418	; 0x8e42
 6a4:	00018e02 	andeq	r8, r1, r2, lsl #28
 6a8:	0000000c 	andeq	r0, r0, ip
 6ac:	ffffffff 			; <UNDEFINED> instruction: 0xffffffff
 6b0:	7c020001 	stcvc	0, cr0, [r2], {1}
 6b4:	000d0c0e 	andeq	r0, sp, lr, lsl #24
 6b8:	00000014 	andeq	r0, r0, r4, lsl r0
 6bc:	000006a8 	andeq	r0, r0, r8, lsr #13
 6c0:	00009b08 	andeq	r9, r0, r8, lsl #22
 6c4:	00000068 	andeq	r0, r0, r8, rrx
 6c8:	83080e42 	movwhi	r0, #36418	; 0x8e42
 6cc:	00018e02 	andeq	r8, r1, r2, lsl #28
 6d0:	00000014 	andeq	r0, r0, r4, lsl r0
 6d4:	000006a8 	andeq	r0, r0, r8, lsr #13
 6d8:	00009b70 	andeq	r9, r0, r0, ror fp
 6dc:	00000044 	andeq	r0, r0, r4, asr #32
 6e0:	8e040e42 	cdphi	14, 0, cr0, cr4, cr2, {2}
 6e4:	100e4201 	andne	r4, lr, r1, lsl #4
 6e8:	0000000c 	andeq	r0, r0, ip
 6ec:	ffffffff 			; <UNDEFINED> instruction: 0xffffffff
 6f0:	7c020001 	stcvc	0, cr0, [r2], {1}
 6f4:	000d0c0e 	andeq	r0, sp, lr, lsl #24
 6f8:	00000014 	andeq	r0, r0, r4, lsl r0
 6fc:	000006e8 	andeq	r0, r0, r8, ror #13
 700:	00009d04 	andeq	r9, r0, r4, lsl #26
 704:	00000028 	andeq	r0, r0, r8, lsr #32
 708:	83080e42 	movwhi	r0, #36418	; 0x8e42
 70c:	00018e02 	andeq	r8, r1, r2, lsl #28
 710:	0000000c 	andeq	r0, r0, ip
 714:	000006e8 	andeq	r0, r0, r8, ror #13
 718:	00009d2c 	andeq	r9, r0, ip, lsr #26
 71c:	00000028 	andeq	r0, r0, r8, lsr #32
 720:	0000000c 	andeq	r0, r0, ip
 724:	ffffffff 			; <UNDEFINED> instruction: 0xffffffff
 728:	7c020001 	stcvc	0, cr0, [r2], {1}
 72c:	000d0c0e 	andeq	r0, sp, lr, lsl #24
 730:	00000014 	andeq	r0, r0, r4, lsl r0
 734:	00000720 	andeq	r0, r0, r0, lsr #14
 738:	00009d54 	andeq	r9, r0, r4, asr sp
 73c:	00000044 	andeq	r0, r0, r4, asr #32
 740:	8e040e42 	cdphi	14, 0, cr0, cr4, cr2, {2}
 744:	100e4201 	andne	r4, lr, r1, lsl #4
 748:	0000000c 	andeq	r0, r0, ip
 74c:	ffffffff 			; <UNDEFINED> instruction: 0xffffffff
 750:	7c020001 	stcvc	0, cr0, [r2], {1}
 754:	000d0c0e 	andeq	r0, sp, lr, lsl #24
 758:	00000014 	andeq	r0, r0, r4, lsl r0
 75c:	00000748 	andeq	r0, r0, r8, asr #14
 760:	00009d98 	muleq	r0, r8, sp
 764:	00000044 	andeq	r0, r0, r4, asr #32
 768:	8e040e42 	cdphi	14, 0, cr0, cr4, cr2, {2}
 76c:	100e4201 	andne	r4, lr, r1, lsl #4
 770:	0000000c 	andeq	r0, r0, ip
 774:	ffffffff 			; <UNDEFINED> instruction: 0xffffffff
 778:	7c020001 	stcvc	0, cr0, [r2], {1}
 77c:	000d0c0e 	andeq	r0, sp, lr, lsl #24
 780:	00000014 	andeq	r0, r0, r4, lsl r0
 784:	00000770 	andeq	r0, r0, r0, ror r7
 788:	00009ddc 	ldrdeq	r9, [r0], -ip
 78c:	00000044 	andeq	r0, r0, r4, asr #32
 790:	8e040e42 	cdphi	14, 0, cr0, cr4, cr2, {2}
 794:	100e4201 	andne	r4, lr, r1, lsl #4
 798:	0000000c 	andeq	r0, r0, ip
 79c:	ffffffff 			; <UNDEFINED> instruction: 0xffffffff
 7a0:	7c020001 	stcvc	0, cr0, [r2], {1}
 7a4:	000d0c0e 	andeq	r0, sp, lr, lsl #24
 7a8:	00000014 	andeq	r0, r0, r4, lsl r0
 7ac:	00000798 	muleq	r0, r8, r7
 7b0:	00009e20 	andeq	r9, r0, r0, lsr #28
 7b4:	00000044 	andeq	r0, r0, r4, asr #32
 7b8:	8e040e42 	cdphi	14, 0, cr0, cr4, cr2, {2}
 7bc:	100e4201 	andne	r4, lr, r1, lsl #4
 7c0:	0000000c 	andeq	r0, r0, ip
 7c4:	ffffffff 			; <UNDEFINED> instruction: 0xffffffff
 7c8:	7c020001 	stcvc	0, cr0, [r2], {1}
 7cc:	000d0c0e 	andeq	r0, sp, lr, lsl #24
 7d0:	0000000c 	andeq	r0, r0, ip
 7d4:	000007c0 	andeq	r0, r0, r0, asr #15
 7d8:	00009e64 	andeq	r9, r0, r4, ror #28
 7dc:	00000020 	andeq	r0, r0, r0, lsr #32

Disassembly of section .debug_ranges:

00000000 <.debug_ranges>:
   0:	000002b4 			; <UNDEFINED> instruction: 0x000002b4
   4:	000002b8 			; <UNDEFINED> instruction: 0x000002b8
   8:	000002e8 	andeq	r0, r0, r8, ror #5
   c:	000004e0 	andeq	r0, r0, r0, ror #9
	...
  18:	00008cb0 			; <UNDEFINED> instruction: 0x00008cb0
  1c:	00008d24 	andeq	r8, r0, r4, lsr #26
	...
