
tests2.0/16-part2-test6.elf:     file format elf32-littlearm


Disassembly of section .text:

00008000 <__code_start__>:
    8000:	e3a00013 	mov	r0, #19
    8004:	e129f000 	msr	CPSR_fc, r0
    8008:	e3a01000 	mov	r1, #0
    800c:	ee073f95 	mcr	15, 0, r3, cr7, cr5, {4}
    8010:	e3a0d302 	mov	sp, #134217728	; 0x8000000
    8014:	e3a0b000 	mov	fp, #0
    8018:	eb000526 	bl	94b8 <_cstart>
    801c:	eb00058e 	bl	965c <rpi_reboot>

00008020 <cnt_A>:
    8020:	e52de004 	push	{lr}		; (str lr, [sp, #-4]!)
    8024:	e24dd00c 	sub	sp, sp, #12
    8028:	e59f007c 	ldr	r0, [pc, #124]	; 80ac <cnt_A+0x8c>
    802c:	eb0001b4 	bl	8704 <sys_try_lock_asm>
    8030:	e3500000 	cmp	r0, #0
    8034:	1a000006 	bne	8054 <cnt_A+0x34>
    8038:	eb000396 	bl	8e98 <rpi_reset_putc>
    803c:	e59f006c 	ldr	r0, [pc, #108]	; 80b0 <cnt_A+0x90>
    8040:	e59f106c 	ldr	r1, [pc, #108]	; 80b4 <cnt_A+0x94>
    8044:	e59f206c 	ldr	r2, [pc, #108]	; 80b8 <cnt_A+0x98>
    8048:	e3a0300c 	mov	r3, #12
    804c:	eb000376 	bl	8e2c <printk>
    8050:	eb00050d 	bl	948c <clean_reboot>
    8054:	e59f3060 	ldr	r3, [pc, #96]	; 80bc <cnt_A+0x9c>
    8058:	e5932000 	ldr	r2, [r3]
    805c:	e2822001 	add	r2, r2, #1
    8060:	e5832000 	str	r2, [r3]
    8064:	e59f3040 	ldr	r3, [pc, #64]	; 80ac <cnt_A+0x8c>
    8068:	e5933000 	ldr	r3, [r3]
    806c:	e3530001 	cmp	r3, #1
    8070:	0a000008 	beq	8098 <cnt_A+0x78>
    8074:	eb000387 	bl	8e98 <rpi_reset_putc>
    8078:	e59f3040 	ldr	r3, [pc, #64]	; 80c0 <cnt_A+0xa0>
    807c:	e58d3000 	str	r3, [sp]
    8080:	e59f003c 	ldr	r0, [pc, #60]	; 80c4 <cnt_A+0xa4>
    8084:	e59f103c 	ldr	r1, [pc, #60]	; 80c8 <cnt_A+0xa8>
    8088:	e59f203c 	ldr	r2, [pc, #60]	; 80cc <cnt_A+0xac>
    808c:	e3a03018 	mov	r3, #24
    8090:	eb000365 	bl	8e2c <printk>
    8094:	eb0004fc 	bl	948c <clean_reboot>
    8098:	e3a02000 	mov	r2, #0
    809c:	e59f3008 	ldr	r3, [pc, #8]	; 80ac <cnt_A+0x8c>
    80a0:	e5832000 	str	r2, [r3]
    80a4:	e28dd00c 	add	sp, sp, #12
    80a8:	e49df004 	pop	{pc}		; (ldr pc, [sp], #4)
    80ac:	0000a214 	andeq	sl, r0, r4, lsl r2
    80b0:	00009a40 	andeq	r9, r0, r0, asr #20
    80b4:	00009a5c 	andeq	r9, r0, ip, asr sl
    80b8:	00009b60 	andeq	r9, r0, r0, ror #22
    80bc:	0000a210 	andeq	sl, r0, r0, lsl r2
    80c0:	00009a9c 	muleq	r0, ip, sl
    80c4:	00009a78 	andeq	r9, r0, r8, ror sl
    80c8:	00009a8c 	andeq	r9, r0, ip, lsl #21
    80cc:	00009b54 	andeq	r9, r0, r4, asr fp

000080d0 <cnt_B>:
    80d0:	e52de004 	push	{lr}		; (str lr, [sp, #-4]!)
    80d4:	e24dd00c 	sub	sp, sp, #12
    80d8:	e59f0060 	ldr	r0, [pc, #96]	; 8140 <cnt_B+0x70>
    80dc:	eb000188 	bl	8704 <sys_try_lock_asm>
    80e0:	e3500000 	cmp	r0, #0
    80e4:	0a000013 	beq	8138 <cnt_B+0x68>
    80e8:	e59f3054 	ldr	r3, [pc, #84]	; 8144 <cnt_B+0x74>
    80ec:	e5932000 	ldr	r2, [r3]
    80f0:	e2822001 	add	r2, r2, #1
    80f4:	e5832000 	str	r2, [r3]
    80f8:	e59f3040 	ldr	r3, [pc, #64]	; 8140 <cnt_B+0x70>
    80fc:	e5930000 	ldr	r0, [r3]
    8100:	e3500001 	cmp	r0, #1
    8104:	0a000008 	beq	812c <cnt_B+0x5c>
    8108:	eb000362 	bl	8e98 <rpi_reset_putc>
    810c:	e59f3034 	ldr	r3, [pc, #52]	; 8148 <cnt_B+0x78>
    8110:	e58d3000 	str	r3, [sp]
    8114:	e59f0030 	ldr	r0, [pc, #48]	; 814c <cnt_B+0x7c>
    8118:	e59f1030 	ldr	r1, [pc, #48]	; 8150 <cnt_B+0x80>
    811c:	e59f2030 	ldr	r2, [pc, #48]	; 8154 <cnt_B+0x84>
    8120:	e3a03018 	mov	r3, #24
    8124:	eb000340 	bl	8e2c <printk>
    8128:	eb0004d7 	bl	948c <clean_reboot>
    812c:	e3a02000 	mov	r2, #0
    8130:	e59f3008 	ldr	r3, [pc, #8]	; 8140 <cnt_B+0x70>
    8134:	e5832000 	str	r2, [r3]
    8138:	e28dd00c 	add	sp, sp, #12
    813c:	e49df004 	pop	{pc}		; (ldr pc, [sp], #4)
    8140:	0000a214 	andeq	sl, r0, r4, lsl r2
    8144:	0000a210 	andeq	sl, r0, r0, lsl r2
    8148:	00009a9c 	muleq	r0, ip, sl
    814c:	00009a78 	andeq	r9, r0, r8, ror sl
    8150:	00009a8c 	andeq	r9, r0, ip, lsl #21
    8154:	00009b54 	andeq	r9, r0, r4, asr fp

00008158 <cnt_init>:
    8158:	e3a03000 	mov	r3, #0
    815c:	e59f200c 	ldr	r2, [pc, #12]	; 8170 <cnt_init+0x18>
    8160:	e5823000 	str	r3, [r2]
    8164:	e59f2008 	ldr	r2, [pc, #8]	; 8174 <cnt_init+0x1c>
    8168:	e5823000 	str	r3, [r2]
    816c:	e12fff1e 	bx	lr
    8170:	0000a210 	andeq	sl, r0, r0, lsl r2
    8174:	0000a214 	andeq	sl, r0, r4, lsl r2

00008178 <cnt_check>:
    8178:	e59f3010 	ldr	r3, [pc, #16]	; 8190 <cnt_check+0x18>
    817c:	e5930000 	ldr	r0, [r3]
    8180:	e3500002 	cmp	r0, #2
    8184:	13a00000 	movne	r0, #0
    8188:	03a00001 	moveq	r0, #1
    818c:	e12fff1e 	bx	lr
    8190:	0000a210 	andeq	sl, r0, r0, lsl r2

00008194 <cnt_mk_checker>:
    8194:	e1a03000 	mov	r3, r0
    8198:	e3a02000 	mov	r2, #0
    819c:	e4832004 	str	r2, [r3], #4
    81a0:	e2833008 	add	r3, r3, #8
    81a4:	e4832004 	str	r2, [r3], #4
    81a8:	e4832004 	str	r2, [r3], #4
    81ac:	e4832004 	str	r2, [r3], #4
    81b0:	e4832004 	str	r2, [r3], #4
    81b4:	e4832004 	str	r2, [r3], #4
    81b8:	e4832004 	str	r2, [r3], #4
    81bc:	e4832004 	str	r2, [r3], #4
    81c0:	e4832004 	str	r2, [r3], #4
    81c4:	e4832004 	str	r2, [r3], #4
    81c8:	e4832004 	str	r2, [r3], #4
    81cc:	e5832000 	str	r2, [r3]
    81d0:	e59f301c 	ldr	r3, [pc, #28]	; 81f4 <cnt_mk_checker+0x60>
    81d4:	e5803004 	str	r3, [r0, #4]
    81d8:	e59f3018 	ldr	r3, [pc, #24]	; 81f8 <cnt_mk_checker+0x64>
    81dc:	e5803008 	str	r3, [r0, #8]
    81e0:	e59f3014 	ldr	r3, [pc, #20]	; 81fc <cnt_mk_checker+0x68>
    81e4:	e580300c 	str	r3, [r0, #12]
    81e8:	e59f3010 	ldr	r3, [pc, #16]	; 8200 <cnt_mk_checker+0x6c>
    81ec:	e5803010 	str	r3, [r0, #16]
    81f0:	e12fff1e 	bx	lr
    81f4:	00008020 	andeq	r8, r0, r0, lsr #32
    81f8:	000080d0 	ldrdeq	r8, [r0], -r0
    81fc:	00008158 	andeq	r8, r0, r8, asr r1
    8200:	00008178 	andeq	r8, r0, r8, ror r1

00008204 <notmain>:
    8204:	e52de004 	push	{lr}		; (str lr, [sp, #-4]!)
    8208:	e24dd03c 	sub	sp, sp, #60	; 0x3c
    820c:	eb000496 	bl	946c <enable_cache>
    8210:	e1a0000d 	mov	r0, sp
    8214:	ebffffde 	bl	8194 <cnt_mk_checker>
    8218:	e1a0000d 	mov	r0, sp
    821c:	eb0002ef 	bl	8de0 <check>
    8220:	e3500000 	cmp	r0, #0
    8224:	1a000006 	bne	8244 <notmain+0x40>
    8228:	eb00031a 	bl	8e98 <rpi_reset_putc>
    822c:	e59f002c 	ldr	r0, [pc, #44]	; 8260 <notmain+0x5c>
    8230:	e59f102c 	ldr	r1, [pc, #44]	; 8264 <notmain+0x60>
    8234:	e59f202c 	ldr	r2, [pc, #44]	; 8268 <notmain+0x64>
    8238:	e3a03031 	mov	r3, #49	; 0x31
    823c:	eb0002fa 	bl	8e2c <printk>
    8240:	eb000491 	bl	948c <clean_reboot>
    8244:	e59f0020 	ldr	r0, [pc, #32]	; 826c <notmain+0x68>
    8248:	eb0002f7 	bl	8e2c <printk>
    824c:	e59f001c 	ldr	r0, [pc, #28]	; 8270 <notmain+0x6c>
    8250:	e59d1028 	ldr	r1, [sp, #40]	; 0x28
    8254:	e59d202c 	ldr	r2, [sp, #44]	; 0x2c
    8258:	eb0002f3 	bl	8e2c <printk>
    825c:	eb00048a 	bl	948c <clean_reboot>
    8260:	00009aa4 	andeq	r9, r0, r4, lsr #21
    8264:	00009a5c 	andeq	r9, r0, ip, asr sl
    8268:	00009b68 	andeq	r9, r0, r8, ror #22
    826c:	00009ad4 	ldrdeq	r9, [r0], -r4
    8270:	00009ae0 	andeq	r9, r0, r0, ror #21

00008274 <watchpt_set0>:
    8274:	e52de004 	push	{lr}		; (str lr, [sp, #-4]!)
    8278:	e24dd00c 	sub	sp, sp, #12
    827c:	ee103ef0 	mrc	14, 0, r3, cr0, cr0, {7}
    8280:	e3c33001 	bic	r3, r3, #1
    8284:	ee003ef0 	mcr	14, 0, r3, cr0, cr0, {7}
    8288:	ee102ef0 	mrc	14, 0, r2, cr0, cr0, {7}
    828c:	e1530002 	cmp	r3, r2
    8290:	0a000008 	beq	82b8 <watchpt_set0+0x44>
    8294:	eb0002ff 	bl	8e98 <rpi_reset_putc>
    8298:	e59f306c 	ldr	r3, [pc, #108]	; 830c <watchpt_set0+0x98>
    829c:	e58d3000 	str	r3, [sp]
    82a0:	e59f0068 	ldr	r0, [pc, #104]	; 8310 <watchpt_set0+0x9c>
    82a4:	e59f1068 	ldr	r1, [pc, #104]	; 8314 <watchpt_set0+0xa0>
    82a8:	e59f2068 	ldr	r2, [pc, #104]	; 8318 <watchpt_set0+0xa4>
    82ac:	e3a03041 	mov	r3, #65	; 0x41
    82b0:	eb0002dd 	bl	8e2c <printk>
    82b4:	eb000474 	bl	948c <clean_reboot>
    82b8:	ee000ed0 	mcr	14, 0, r0, cr0, cr0, {6}
    82bc:	e59f3058 	ldr	r3, [pc, #88]	; 831c <watchpt_set0+0xa8>
    82c0:	ee003ef0 	mcr	14, 0, r3, cr0, cr0, {7}
    82c4:	ee102ef0 	mrc	14, 0, r2, cr0, cr0, {7}
    82c8:	e1520003 	cmp	r2, r3
    82cc:	0a000008 	beq	82f4 <watchpt_set0+0x80>
    82d0:	eb0002f0 	bl	8e98 <rpi_reset_putc>
    82d4:	e59f3030 	ldr	r3, [pc, #48]	; 830c <watchpt_set0+0x98>
    82d8:	e58d3000 	str	r3, [sp]
    82dc:	e59f002c 	ldr	r0, [pc, #44]	; 8310 <watchpt_set0+0x9c>
    82e0:	e59f102c 	ldr	r1, [pc, #44]	; 8314 <watchpt_set0+0xa0>
    82e4:	e59f202c 	ldr	r2, [pc, #44]	; 8318 <watchpt_set0+0xa4>
    82e8:	e3a03052 	mov	r3, #82	; 0x52
    82ec:	eb0002ce 	bl	8e2c <printk>
    82f0:	eb000465 	bl	948c <clean_reboot>
    82f4:	e3a03000 	mov	r3, #0
    82f8:	ee073f95 	mcr	15, 0, r3, cr7, cr5, {4}
    82fc:	e59f301c 	ldr	r3, [pc, #28]	; 8320 <watchpt_set0+0xac>
    8300:	e5831000 	str	r1, [r3]
    8304:	e28dd00c 	add	sp, sp, #12
    8308:	e49df004 	pop	{pc}		; (ldr pc, [sp], #4)
    830c:	00009b80 	andeq	r9, r0, r0, lsl #23
    8310:	00009a78 	andeq	r9, r0, r8, ror sl
    8314:	00009b70 	andeq	r9, r0, r0, ror fp
    8318:	00009c98 	muleq	r0, r8, ip
    831c:	000001ff 	strdeq	r0, [r0], -pc	; <UNPREDICTABLE>
    8320:	0000a218 	andeq	sl, r0, r8, lsl r2

00008324 <data_abort_vector>:
    8324:	e52de004 	push	{lr}		; (str lr, [sp, #-4]!)
    8328:	e24dd00c 	sub	sp, sp, #12
    832c:	e1a01000 	mov	r1, r0
    8330:	ee153f10 	mrc	15, 0, r3, cr5, cr0, {0}
    8334:	ee153f10 	mrc	15, 0, r3, cr5, cr0, {0}
    8338:	e203300f 	and	r3, r3, #15
    833c:	e3530002 	cmp	r3, #2
    8340:	0a000006 	beq	8360 <data_abort_vector+0x3c>
    8344:	eb0002d3 	bl	8e98 <rpi_reset_putc>
    8348:	e59f008c 	ldr	r0, [pc, #140]	; 83dc <data_abort_vector+0xb8>
    834c:	e59f108c 	ldr	r1, [pc, #140]	; 83e0 <data_abort_vector+0xbc>
    8350:	e59f208c 	ldr	r2, [pc, #140]	; 83e4 <data_abort_vector+0xc0>
    8354:	e3a03079 	mov	r3, #121	; 0x79
    8358:	eb0002b3 	bl	8e2c <printk>
    835c:	eb00044a 	bl	948c <clean_reboot>
    8360:	ee103e16 	mrc	14, 0, r3, cr0, cr6, {0}
    8364:	e2433004 	sub	r3, r3, #4
    8368:	e1530000 	cmp	r3, r0
    836c:	0a000008 	beq	8394 <data_abort_vector+0x70>
    8370:	eb0002c8 	bl	8e98 <rpi_reset_putc>
    8374:	e59f306c 	ldr	r3, [pc, #108]	; 83e8 <data_abort_vector+0xc4>
    8378:	e58d3000 	str	r3, [sp]
    837c:	e59f0068 	ldr	r0, [pc, #104]	; 83ec <data_abort_vector+0xc8>
    8380:	e59f1068 	ldr	r1, [pc, #104]	; 83f0 <data_abort_vector+0xcc>
    8384:	e59f2068 	ldr	r2, [pc, #104]	; 83f4 <data_abort_vector+0xd0>
    8388:	e3a03067 	mov	r3, #103	; 0x67
    838c:	eb0002a6 	bl	8e2c <printk>
    8390:	eb00043d 	bl	948c <clean_reboot>
    8394:	e59f305c 	ldr	r3, [pc, #92]	; 83f8 <data_abort_vector+0xd4>
    8398:	e5933000 	ldr	r3, [r3]
    839c:	e3530000 	cmp	r3, #0
    83a0:	1a000008 	bne	83c8 <data_abort_vector+0xa4>
    83a4:	eb0002bb 	bl	8e98 <rpi_reset_putc>
    83a8:	e59f304c 	ldr	r3, [pc, #76]	; 83fc <data_abort_vector+0xd8>
    83ac:	e58d3000 	str	r3, [sp]
    83b0:	e59f0034 	ldr	r0, [pc, #52]	; 83ec <data_abort_vector+0xc8>
    83b4:	e59f1034 	ldr	r1, [pc, #52]	; 83f0 <data_abort_vector+0xcc>
    83b8:	e59f2034 	ldr	r2, [pc, #52]	; 83f4 <data_abort_vector+0xd0>
    83bc:	e3a03069 	mov	r3, #105	; 0x69
    83c0:	eb000299 	bl	8e2c <printk>
    83c4:	eb000430 	bl	948c <clean_reboot>
    83c8:	ee162f10 	mrc	15, 0, r2, cr6, cr0, {0}
    83cc:	e3a00000 	mov	r0, #0
    83d0:	e12fff33 	blx	r3
    83d4:	e28dd00c 	add	sp, sp, #12
    83d8:	e49df004 	pop	{pc}		; (ldr pc, [sp], #4)
    83dc:	00009b98 	muleq	r0, r8, fp
    83e0:	00009bd0 	ldrdeq	r9, [r0], -r0
    83e4:	00009cbc 			; <UNDEFINED> instruction: 0x00009cbc
    83e8:	00009be0 	andeq	r9, r0, r0, ror #23
    83ec:	00009a78 	andeq	r9, r0, r8, ror sl
    83f0:	00009b70 	andeq	r9, r0, r0, ror fp
    83f4:	00009ca8 	andeq	r9, r0, r8, lsr #25
    83f8:	0000a218 	andeq	sl, r0, r8, lsl r2
    83fc:	00009bf4 	strdeq	r9, [r0], -r4

00008400 <cp14_enable>:
    8400:	e92d4008 	push	{r3, lr}
    8404:	e59f302c 	ldr	r3, [pc, #44]	; 8438 <cp14_enable+0x38>
    8408:	e5933000 	ldr	r3, [r3]
    840c:	e3530000 	cmp	r3, #0
    8410:	1a000003 	bne	8424 <cp14_enable+0x24>
    8414:	eb00046a 	bl	95c4 <int_init>
    8418:	e3a02001 	mov	r2, #1
    841c:	e59f3014 	ldr	r3, [pc, #20]	; 8438 <cp14_enable+0x38>
    8420:	e5832000 	str	r2, [r3]
    8424:	e3a03902 	mov	r3, #32768	; 0x8000
    8428:	ee003e11 	mcr	14, 0, r3, cr0, cr1, {0}
    842c:	e3a03000 	mov	r3, #0
    8430:	ee073f95 	mcr	15, 0, r3, cr7, cr5, {4}
    8434:	e8bd8008 	pop	{r3, pc}
    8438:	0000a228 	andeq	sl, r0, r8, lsr #4

0000843c <brkpt_set0>:
    843c:	ee103eb0 	mrc	14, 0, r3, cr0, cr0, {5}
    8440:	e3c33001 	bic	r3, r3, #1
    8444:	ee003eb0 	mcr	14, 0, r3, cr0, cr0, {5}
    8448:	ee000e90 	mcr	14, 0, r0, cr0, cr0, {4}
    844c:	e59f3014 	ldr	r3, [pc, #20]	; 8468 <brkpt_set0+0x2c>
    8450:	ee003eb0 	mcr	14, 0, r3, cr0, cr0, {5}
    8454:	e3a03000 	mov	r3, #0
    8458:	ee073f95 	mcr	15, 0, r3, cr7, cr5, {4}
    845c:	e59f3008 	ldr	r3, [pc, #8]	; 846c <brkpt_set0+0x30>
    8460:	e5831000 	str	r1, [r3]
    8464:	e12fff1e 	bx	lr
    8468:	000001e7 	andeq	r0, r0, r7, ror #3
    846c:	0000a21c 	andeq	sl, r0, ip, lsl r2

00008470 <prefetch_abort_vector>:
    8470:	e52de004 	push	{lr}		; (str lr, [sp, #-4]!)
    8474:	e24dd00c 	sub	sp, sp, #12
    8478:	e1a01000 	mov	r1, r0
    847c:	ee153f30 	mrc	15, 0, r3, cr5, cr0, {1}
    8480:	e203300f 	and	r3, r3, #15
    8484:	e3530002 	cmp	r3, #2
    8488:	0a000006 	beq	84a8 <prefetch_abort_vector+0x38>
    848c:	eb000281 	bl	8e98 <rpi_reset_putc>
    8490:	e59f0058 	ldr	r0, [pc, #88]	; 84f0 <prefetch_abort_vector+0x80>
    8494:	e59f1058 	ldr	r1, [pc, #88]	; 84f4 <prefetch_abort_vector+0x84>
    8498:	e59f2058 	ldr	r2, [pc, #88]	; 84f8 <prefetch_abort_vector+0x88>
    849c:	e3a030c7 	mov	r3, #199	; 0xc7
    84a0:	eb000261 	bl	8e2c <printk>
    84a4:	eb0003f8 	bl	948c <clean_reboot>
    84a8:	e59f304c 	ldr	r3, [pc, #76]	; 84fc <prefetch_abort_vector+0x8c>
    84ac:	e5933000 	ldr	r3, [r3]
    84b0:	e3530000 	cmp	r3, #0
    84b4:	1a000008 	bne	84dc <prefetch_abort_vector+0x6c>
    84b8:	eb000276 	bl	8e98 <rpi_reset_putc>
    84bc:	e59f303c 	ldr	r3, [pc, #60]	; 8500 <prefetch_abort_vector+0x90>
    84c0:	e58d3000 	str	r3, [sp]
    84c4:	e59f0038 	ldr	r0, [pc, #56]	; 8504 <prefetch_abort_vector+0x94>
    84c8:	e59f1024 	ldr	r1, [pc, #36]	; 84f4 <prefetch_abort_vector+0x84>
    84cc:	e59f2024 	ldr	r2, [pc, #36]	; 84f8 <prefetch_abort_vector+0x88>
    84d0:	e3a030c8 	mov	r3, #200	; 0xc8
    84d4:	eb000254 	bl	8e2c <printk>
    84d8:	eb0003eb 	bl	948c <clean_reboot>
    84dc:	ee162f10 	mrc	15, 0, r2, cr6, cr0, {0}
    84e0:	e3a00000 	mov	r0, #0
    84e4:	e12fff33 	blx	r3
    84e8:	e28dd00c 	add	sp, sp, #12
    84ec:	e49df004 	pop	{pc}		; (ldr pc, [sp], #4)
    84f0:	00009c08 	andeq	r9, r0, r8, lsl #24
    84f4:	00009b70 	andeq	r9, r0, r0, ror fp
    84f8:	00009cd0 	ldrdeq	r9, [r0], -r0
    84fc:	0000a21c 	andeq	sl, r0, ip, lsl r2
    8500:	00009c40 	andeq	r9, r0, r0, asr #24
    8504:	00009a78 	andeq	r9, r0, r8, ror sl

00008508 <interrupt_vector>:
    8508:	e12fff1e 	bx	lr

0000850c <brk_no_ret_error>:
    850c:	e92d4008 	push	{r3, lr}
    8510:	eb000260 	bl	8e98 <rpi_reset_putc>
    8514:	e59f0010 	ldr	r0, [pc, #16]	; 852c <brk_no_ret_error+0x20>
    8518:	e59f1010 	ldr	r1, [pc, #16]	; 8530 <brk_no_ret_error+0x24>
    851c:	e59f2010 	ldr	r2, [pc, #16]	; 8534 <brk_no_ret_error+0x28>
    8520:	e3a030d9 	mov	r3, #217	; 0xd9
    8524:	eb000240 	bl	8e2c <printk>
    8528:	eb0003d7 	bl	948c <clean_reboot>
    852c:	00009c50 	andeq	r9, r0, r0, asr ip
    8530:	00009b70 	andeq	r9, r0, r0, ror fp
    8534:	00009ce8 	andeq	r9, r0, r8, ror #25

00008538 <brkpt_mismatch_set0>:
    8538:	ee103eb0 	mrc	14, 0, r3, cr0, cr0, {5}
    853c:	e3c33001 	bic	r3, r3, #1
    8540:	ee003eb0 	mcr	14, 0, r3, cr0, cr0, {5}
    8544:	ee000e90 	mcr	14, 0, r0, cr0, cr0, {4}
    8548:	e59f3014 	ldr	r3, [pc, #20]	; 8564 <brkpt_mismatch_set0+0x2c>
    854c:	ee003eb0 	mcr	14, 0, r3, cr0, cr0, {5}
    8550:	e3a03000 	mov	r3, #0
    8554:	ee073f95 	mcr	15, 0, r3, cr7, cr5, {4}
    8558:	e59f3008 	ldr	r3, [pc, #8]	; 8568 <brkpt_mismatch_set0+0x30>
    855c:	e5831000 	str	r1, [r3]
    8560:	e12fff1e 	bx	lr
    8564:	004001e7 	subeq	r0, r0, r7, ror #3
    8568:	0000a21c 	andeq	sl, r0, ip, lsl r2

0000856c <brkpt_mismatch_disable0>:
    856c:	e59f3004 	ldr	r3, [pc, #4]	; 8578 <brkpt_mismatch_disable0+0xc>
    8570:	ee003eb0 	mcr	14, 0, r3, cr0, cr0, {5}
    8574:	e12fff1e 	bx	lr
    8578:	004001e6 	subeq	r0, r0, r6, ror #3

0000857c <syscall_vector>:
    857c:	e92d4008 	push	{r3, lr}
    8580:	e5903000 	ldr	r3, [r0]
    8584:	e3c334ff 	bic	r3, r3, #-16777216	; 0xff000000
    8588:	e3530001 	cmp	r3, #1
    858c:	1a000002 	bne	859c <syscall_vector+0x20>
    8590:	e169f001 	msr	SPSR_fc, r1
    8594:	e3a00000 	mov	r0, #0
    8598:	e8bd8008 	pop	{r3, pc}
    859c:	e3530002 	cmp	r3, #2
    85a0:	1a000005 	bne	85bc <syscall_vector+0x40>
    85a4:	e5913000 	ldr	r3, [r1]
    85a8:	e3530000 	cmp	r3, #0
    85ac:	1a000009 	bne	85d8 <syscall_vector+0x5c>
    85b0:	e3a00001 	mov	r0, #1
    85b4:	e5810000 	str	r0, [r1]
    85b8:	e8bd8008 	pop	{r3, pc}
    85bc:	e3530003 	cmp	r3, #3
    85c0:	0a000006 	beq	85e0 <syscall_vector+0x64>
    85c4:	e59f001c 	ldr	r0, [pc, #28]	; 85e8 <syscall_vector+0x6c>
    85c8:	e1a01003 	mov	r1, r3
    85cc:	eb000216 	bl	8e2c <printk>
    85d0:	e3a00000 	mov	r0, #0
    85d4:	e8bd8008 	pop	{r3, pc}
    85d8:	e3a00000 	mov	r0, #0
    85dc:	e8bd8008 	pop	{r3, pc}
    85e0:	e3a00003 	mov	r0, #3
    85e4:	e8bd8008 	pop	{r3, pc}
    85e8:	00009c80 	andeq	r9, r0, r0, lsl #25

000085ec <_interrupt_table>:
    85ec:	e59ff020 	ldr	pc, [pc, #32]	; 8614 <_reset_asm>
    85f0:	e59ff020 	ldr	pc, [pc, #32]	; 8618 <_undefined_instruction_asm>
    85f4:	e59ff020 	ldr	pc, [pc, #32]	; 861c <_software_interrupt_asm>
    85f8:	e59ff020 	ldr	pc, [pc, #32]	; 8620 <_prefetch_abort_asm>
    85fc:	e59ff020 	ldr	pc, [pc, #32]	; 8624 <_data_abort_asm>
    8600:	e59ff00c 	ldr	pc, [pc, #12]	; 8614 <_reset_asm>
    8604:	e59ff01c 	ldr	pc, [pc, #28]	; 8628 <_interrupt_asm>

00008608 <fast_interrupt_asm>:
    8608:	e3a0d409 	mov	sp, #150994944	; 0x9000000
    860c:	e24ee004 	sub	lr, lr, #4
    8610:	eb0003b6 	bl	94f0 <fast_interrupt_vector>

00008614 <_reset_asm>:
    8614:	00008644 	andeq	r8, r0, r4, asr #12

00008618 <_undefined_instruction_asm>:
    8618:	00008688 	andeq	r8, r0, r8, lsl #13

0000861c <_software_interrupt_asm>:
    861c:	00008694 	muleq	r0, r4, r6

00008620 <_prefetch_abort_asm>:
    8620:	0000866c 	andeq	r8, r0, ip, ror #12

00008624 <_data_abort_asm>:
    8624:	00008650 	andeq	r8, r0, r0, asr r6

00008628 <_interrupt_asm>:
    8628:	0000862c 	andeq	r8, r0, ip, lsr #12

0000862c <_interrupt_table_end>:
    862c:	e3a0d409 	mov	sp, #150994944	; 0x9000000
    8630:	e24ee004 	sub	lr, lr, #4
    8634:	e92d5fff 	push	{r0, r1, r2, r3, r4, r5, r6, r7, r8, r9, sl, fp, ip, lr}
    8638:	e1a0000e 	mov	r0, lr
    863c:	e8bd5fff 	pop	{r0, r1, r2, r3, r4, r5, r6, r7, r8, r9, sl, fp, ip, lr}
    8640:	e1b0f00e 	movs	pc, lr

00008644 <reset_asm>:
    8644:	e3a0d409 	mov	sp, #150994944	; 0x9000000
    8648:	e24ee004 	sub	lr, lr, #4
    864c:	eb0003b8 	bl	9534 <reset_vector>

00008650 <data_abort_asm>:
    8650:	e24ee008 	sub	lr, lr, #8
    8654:	e3a0d409 	mov	sp, #150994944	; 0x9000000
    8658:	e92d5fff 	push	{r0, r1, r2, r3, r4, r5, r6, r7, r8, r9, sl, fp, ip, lr}
    865c:	e1a0000e 	mov	r0, lr
    8660:	ebffff2f 	bl	8324 <data_abort_vector>
    8664:	e8bd5fff 	pop	{r0, r1, r2, r3, r4, r5, r6, r7, r8, r9, sl, fp, ip, lr}
    8668:	e1b0f00e 	movs	pc, lr

0000866c <prefetch_abort_asm>:
    866c:	e24ee004 	sub	lr, lr, #4
    8670:	e3a0d409 	mov	sp, #150994944	; 0x9000000
    8674:	e92d5fff 	push	{r0, r1, r2, r3, r4, r5, r6, r7, r8, r9, sl, fp, ip, lr}
    8678:	e1a0000e 	mov	r0, lr
    867c:	ebffff7b 	bl	8470 <prefetch_abort_vector>
    8680:	e8bd5fff 	pop	{r0, r1, r2, r3, r4, r5, r6, r7, r8, r9, sl, fp, ip, lr}
    8684:	e1b0f00e 	movs	pc, lr

00008688 <undefined_instruction_asm>:
    8688:	e3a0d409 	mov	sp, #150994944	; 0x9000000
    868c:	e24ee004 	sub	lr, lr, #4
    8690:	eb0003b8 	bl	9578 <undefined_instruction_vector>

00008694 <software_interrupt_asm>:
    8694:	e92d5ff0 	push	{r4, r5, r6, r7, r8, r9, sl, fp, ip, lr}
    8698:	e24ee004 	sub	lr, lr, #4
    869c:	e1a01000 	mov	r1, r0
    86a0:	e1a0000e 	mov	r0, lr
    86a4:	ebffffb4 	bl	857c <syscall_vector>
    86a8:	e8bd5ff0 	pop	{r4, r5, r6, r7, r8, r9, sl, fp, ip, lr}
    86ac:	e1b0f00e 	movs	pc, lr

000086b0 <user_trampoline_no_ret>:
    86b0:	e1a0200d 	mov	r2, sp
    86b4:	e129f000 	msr	CPSR_fc, r0
    86b8:	e10f5000 	mrs	r5, CPSR
    86bc:	ee070f95 	mcr	15, 0, r0, cr7, cr5, {4}
    86c0:	e1a0d002 	mov	sp, r2
    86c4:	e92d5ff0 	push	{r4, r5, r6, r7, r8, r9, sl, fp, ip, lr}
    86c8:	e12fff31 	blx	r1
    86cc:	e8bd5ff0 	pop	{r4, r5, r6, r7, r8, r9, sl, fp, ip, lr}
    86d0:	eb00036d 	bl	948c <clean_reboot>
    86d4:	ebffff8c 	bl	850c <brk_no_ret_error>

000086d8 <user_trampoline_ret>:
    86d8:	e92d5ff0 	push	{r4, r5, r6, r7, r8, r9, sl, fp, ip, lr}
    86dc:	e10f4000 	mrs	r4, CPSR
    86e0:	e129f000 	msr	CPSR_fc, r0
    86e4:	ee070f95 	mcr	15, 0, r0, cr7, cr5, {4}
    86e8:	e3a0d407 	mov	sp, #117440512	; 0x7000000
    86ec:	e1a00002 	mov	r0, r2
    86f0:	e12fff31 	blx	r1
    86f4:	e1a00004 	mov	r0, r4
    86f8:	ef000001 	svc	0x00000001
    86fc:	e8bd5ff0 	pop	{r4, r5, r6, r7, r8, r9, sl, fp, ip, lr}
    8700:	e12fff1e 	bx	lr

00008704 <sys_try_lock_asm>:
    8704:	e92d5ff0 	push	{r4, r5, r6, r7, r8, r9, sl, fp, ip, lr}
    8708:	ef000002 	svc	0x00000002
    870c:	e8bd5ff0 	pop	{r4, r5, r6, r7, r8, r9, sl, fp, ip, lr}
    8710:	e12fff1e 	bx	lr

00008714 <sys_foo_asm>:
    8714:	e92d5ff0 	push	{r4, r5, r6, r7, r8, r9, sl, fp, ip, lr}
    8718:	ef000003 	svc	0x00000003
    871c:	e8bd5ff0 	pop	{r4, r5, r6, r7, r8, r9, sl, fp, ip, lr}
    8720:	e12fff1e 	bx	lr

00008724 <single_step_handler>:
    8724:	e92d4030 	push	{r4, r5, lr}
    8728:	e24dd00c 	sub	sp, sp, #12
    872c:	e1a05001 	mov	r5, r1
    8730:	e59f3164 	ldr	r3, [pc, #356]	; 889c <single_step_handler+0x178>
    8734:	e5933000 	ldr	r3, [r3]
    8738:	e3530000 	cmp	r3, #0
    873c:	0a000005 	beq	8758 <single_step_handler+0x34>
    8740:	e58d1000 	str	r1, [sp]
    8744:	e59f0154 	ldr	r0, [pc, #340]	; 88a0 <single_step_handler+0x17c>
    8748:	e59f1154 	ldr	r1, [pc, #340]	; 88a4 <single_step_handler+0x180>
    874c:	e59f2154 	ldr	r2, [pc, #340]	; 88a8 <single_step_handler+0x184>
    8750:	e3a0300c 	mov	r3, #12
    8754:	eb0001b4 	bl	8e2c <printk>
    8758:	ee153f30 	mrc	15, 0, r3, cr5, cr0, {1}
    875c:	e203300f 	and	r3, r3, #15
    8760:	e3530002 	cmp	r3, #2
    8764:	0a000006 	beq	8784 <single_step_handler+0x60>
    8768:	eb0001ca 	bl	8e98 <rpi_reset_putc>
    876c:	e59f0138 	ldr	r0, [pc, #312]	; 88ac <single_step_handler+0x188>
    8770:	e59f112c 	ldr	r1, [pc, #300]	; 88a4 <single_step_handler+0x180>
    8774:	e59f212c 	ldr	r2, [pc, #300]	; 88a8 <single_step_handler+0x184>
    8778:	e3a0300e 	mov	r3, #14
    877c:	eb0001aa 	bl	8e2c <printk>
    8780:	eb000341 	bl	948c <clean_reboot>
    8784:	e59f3124 	ldr	r3, [pc, #292]	; 88b0 <single_step_handler+0x18c>
    8788:	e5934000 	ldr	r4, [r3]
    878c:	e594201c 	ldr	r2, [r4, #28]
    8790:	e5943018 	ldr	r3, [r4, #24]
    8794:	e1520003 	cmp	r2, r3
    8798:	1a000016 	bne	87f8 <single_step_handler+0xd4>
    879c:	e59f0110 	ldr	r0, [pc, #272]	; 88b4 <single_step_handler+0x190>
    87a0:	e1a01005 	mov	r1, r5
    87a4:	e5942008 	ldr	r2, [r4, #8]
    87a8:	eb00019f 	bl	8e2c <printk>
    87ac:	e5943008 	ldr	r3, [r4, #8]
    87b0:	e1a00004 	mov	r0, r4
    87b4:	e12fff33 	blx	r3
    87b8:	e3500000 	cmp	r0, #0
    87bc:	0a00000a 	beq	87ec <single_step_handler+0xc8>
    87c0:	e1a00005 	mov	r0, r5
    87c4:	ebffff68 	bl	856c <brkpt_mismatch_disable0>
    87c8:	e5845020 	str	r5, [r4, #32]
    87cc:	e3a03001 	mov	r3, #1
    87d0:	e5843024 	str	r3, [r4, #36]	; 0x24
    87d4:	e5943014 	ldr	r3, [r4, #20]
    87d8:	e2833001 	add	r3, r3, #1
    87dc:	e5843014 	str	r3, [r4, #20]
    87e0:	e59f00d0 	ldr	r0, [pc, #208]	; 88b8 <single_step_handler+0x194>
    87e4:	eb000190 	bl	8e2c <printk>
    87e8:	ea000029 	b	8894 <single_step_handler+0x170>
    87ec:	e5943018 	ldr	r3, [r4, #24]
    87f0:	e2833001 	add	r3, r3, #1
    87f4:	e5843018 	str	r3, [r4, #24]
    87f8:	e594201c 	ldr	r2, [r4, #28]
    87fc:	e5943018 	ldr	r3, [r4, #24]
    8800:	e1520003 	cmp	r2, r3
    8804:	3a000008 	bcc	882c <single_step_handler+0x108>
    8808:	eb0001a2 	bl	8e98 <rpi_reset_putc>
    880c:	e59f30a8 	ldr	r3, [pc, #168]	; 88bc <single_step_handler+0x198>
    8810:	e58d3000 	str	r3, [sp]
    8814:	e59f00a4 	ldr	r0, [pc, #164]	; 88c0 <single_step_handler+0x19c>
    8818:	e59f1084 	ldr	r1, [pc, #132]	; 88a4 <single_step_handler+0x180>
    881c:	e59f2084 	ldr	r2, [pc, #132]	; 88a8 <single_step_handler+0x184>
    8820:	e3a03023 	mov	r3, #35	; 0x23
    8824:	eb000180 	bl	8e2c <printk>
    8828:	eb000317 	bl	948c <clean_reboot>
    882c:	e594301c 	ldr	r3, [r4, #28]
    8830:	e2833001 	add	r3, r3, #1
    8834:	e584301c 	str	r3, [r4, #28]
    8838:	e59f305c 	ldr	r3, [pc, #92]	; 889c <single_step_handler+0x178>
    883c:	e5933000 	ldr	r3, [r3]
    8840:	e3530000 	cmp	r3, #0
    8844:	0a000005 	beq	8860 <single_step_handler+0x13c>
    8848:	e58d5000 	str	r5, [sp]
    884c:	e59f0070 	ldr	r0, [pc, #112]	; 88c4 <single_step_handler+0x1a0>
    8850:	e59f104c 	ldr	r1, [pc, #76]	; 88a4 <single_step_handler+0x180>
    8854:	e59f204c 	ldr	r2, [pc, #76]	; 88a8 <single_step_handler+0x184>
    8858:	e3a03026 	mov	r3, #38	; 0x26
    885c:	eb000172 	bl	8e2c <printk>
    8860:	e1a00005 	mov	r0, r5
    8864:	e59f105c 	ldr	r1, [pc, #92]	; 88c8 <single_step_handler+0x1a4>
    8868:	ebffff32 	bl	8538 <brkpt_mismatch_set0>
    886c:	e59f3028 	ldr	r3, [pc, #40]	; 889c <single_step_handler+0x178>
    8870:	e5933000 	ldr	r3, [r3]
    8874:	e3530000 	cmp	r3, #0
    8878:	0a000005 	beq	8894 <single_step_handler+0x170>
    887c:	e58d5000 	str	r5, [sp]
    8880:	e59f0044 	ldr	r0, [pc, #68]	; 88cc <single_step_handler+0x1a8>
    8884:	e59f1018 	ldr	r1, [pc, #24]	; 88a4 <single_step_handler+0x180>
    8888:	e59f2018 	ldr	r2, [pc, #24]	; 88a8 <single_step_handler+0x184>
    888c:	e3a03028 	mov	r3, #40	; 0x28
    8890:	eb000165 	bl	8e2c <printk>
    8894:	e28dd00c 	add	sp, sp, #12
    8898:	e8bd8030 	pop	{r4, r5, pc}
    889c:	0000a220 	andeq	sl, r0, r0, lsr #4
    88a0:	00009cfc 	strdeq	r9, [r0], -ip
    88a4:	00009d1c 	andeq	r9, r0, ip, lsl sp
    88a8:	00009fb0 			; <UNDEFINED> instruction: 0x00009fb0
    88ac:	00009c08 	andeq	r9, r0, r8, lsl #24
    88b0:	0000a22c 	andeq	sl, r0, ip, lsr #4
    88b4:	00009d30 	andeq	r9, r0, r0, lsr sp
    88b8:	00009d50 	andeq	r9, r0, r0, asr sp
    88bc:	00009d78 	andeq	r9, r0, r8, ror sp
    88c0:	00009a78 	andeq	r9, r0, r8, ror sl
    88c4:	00009d9c 	muleq	r0, ip, sp
    88c8:	00008724 	andeq	r8, r0, r4, lsr #14
    88cc:	00009dc4 	andeq	r9, r0, r4, asr #27

000088d0 <check_one_cswitch>:
    88d0:	e92d4ff0 	push	{r4, r5, r6, r7, r8, r9, sl, fp, lr}
    88d4:	e24dd00c 	sub	sp, sp, #12
    88d8:	e1a04000 	mov	r4, r0
    88dc:	e10f8000 	mrs	r8, CPSR
    88e0:	e3c8701f 	bic	r7, r8, #31
    88e4:	e3877010 	orr	r7, r7, #16
    88e8:	e59f3460 	ldr	r3, [pc, #1120]	; 8d50 <check_one_cswitch+0x480>
    88ec:	e5830000 	str	r0, [r3]
    88f0:	e3a03001 	mov	r3, #1
    88f4:	e5803030 	str	r3, [r0, #48]	; 0x30
    88f8:	e59f6454 	ldr	r6, [pc, #1108]	; 8d54 <check_one_cswitch+0x484>
    88fc:	e59fb454 	ldr	fp, [pc, #1108]	; 8d58 <check_one_cswitch+0x488>
    8900:	e59fa454 	ldr	sl, [pc, #1108]	; 8d5c <check_one_cswitch+0x48c>
    8904:	e59f9454 	ldr	r9, [pc, #1108]	; 8d60 <check_one_cswitch+0x490>
    8908:	e59f5454 	ldr	r5, [pc, #1108]	; 8d64 <check_one_cswitch+0x494>
    890c:	e594300c 	ldr	r3, [r4, #12]
    8910:	e1a00004 	mov	r0, r4
    8914:	e12fff33 	blx	r3
    8918:	e5963000 	ldr	r3, [r6]
    891c:	e3530000 	cmp	r3, #0
    8920:	0a000006 	beq	8940 <check_one_cswitch+0x70>
    8924:	e5943028 	ldr	r3, [r4, #40]	; 0x28
    8928:	e58d3000 	str	r3, [sp]
    892c:	e1a0000b 	mov	r0, fp
    8930:	e1a0100a 	mov	r1, sl
    8934:	e1a02009 	mov	r2, r9
    8938:	e3a03034 	mov	r3, #52	; 0x34
    893c:	eb00013a 	bl	8e2c <printk>
    8940:	e3a00000 	mov	r0, #0
    8944:	e1a01005 	mov	r1, r5
    8948:	ebfffefa 	bl	8538 <brkpt_mismatch_set0>
    894c:	e5943018 	ldr	r3, [r4, #24]
    8950:	e2833001 	add	r3, r3, #1
    8954:	e5843018 	str	r3, [r4, #24]
    8958:	e3a03000 	mov	r3, #0
    895c:	e584301c 	str	r3, [r4, #28]
    8960:	e5843024 	str	r3, [r4, #36]	; 0x24
    8964:	e1a00007 	mov	r0, r7
    8968:	e5941004 	ldr	r1, [r4, #4]
    896c:	e1a02004 	mov	r2, r4
    8970:	ebffff58 	bl	86d8 <user_trampoline_ret>
    8974:	e5943024 	ldr	r3, [r4, #36]	; 0x24
    8978:	e3530000 	cmp	r3, #0
    897c:	1a000002 	bne	898c <check_one_cswitch+0xbc>
    8980:	e5943008 	ldr	r3, [r4, #8]
    8984:	e1a00004 	mov	r0, r4
    8988:	e12fff33 	blx	r3
    898c:	e5943010 	ldr	r3, [r4, #16]
    8990:	e1a00004 	mov	r0, r4
    8994:	e12fff33 	blx	r3
    8998:	e3500000 	cmp	r0, #0
    899c:	1a000006 	bne	89bc <check_one_cswitch+0xec>
    89a0:	e5941020 	ldr	r1, [r4, #32]
    89a4:	e5942018 	ldr	r2, [r4, #24]
    89a8:	e59f03b8 	ldr	r0, [pc, #952]	; 8d68 <check_one_cswitch+0x498>
    89ac:	eb00011e 	bl	8e2c <printk>
    89b0:	e594302c 	ldr	r3, [r4, #44]	; 0x2c
    89b4:	e2833001 	add	r3, r3, #1
    89b8:	e584302c 	str	r3, [r4, #44]	; 0x2c
    89bc:	e5942028 	ldr	r2, [r4, #40]	; 0x28
    89c0:	e2822001 	add	r2, r2, #1
    89c4:	e5842028 	str	r2, [r4, #40]	; 0x28
    89c8:	e5943024 	ldr	r3, [r4, #36]	; 0x24
    89cc:	e3530000 	cmp	r3, #0
    89d0:	1affffcd 	bne	890c <check_one_cswitch+0x3c>
    89d4:	e5941014 	ldr	r1, [r4, #20]
    89d8:	e59f038c 	ldr	r0, [pc, #908]	; 8d6c <check_one_cswitch+0x49c>
    89dc:	e594302c 	ldr	r3, [r4, #44]	; 0x2c
    89e0:	eb000111 	bl	8e2c <printk>
    89e4:	e208301f 	and	r3, r8, #31
    89e8:	e3530012 	cmp	r3, #18
    89ec:	13530010 	cmpne	r3, #16
    89f0:	0a000006 	beq	8a10 <check_one_cswitch+0x140>
    89f4:	e3530017 	cmp	r3, #23
    89f8:	13530013 	cmpne	r3, #19
    89fc:	0a000005 	beq	8a18 <check_one_cswitch+0x148>
    8a00:	e353001f 	cmp	r3, #31
    8a04:	1a000005 	bne	8a20 <check_one_cswitch+0x150>
    8a08:	e3a02001 	mov	r2, #1
    8a0c:	ea000004 	b	8a24 <check_one_cswitch+0x154>
    8a10:	e3a02001 	mov	r2, #1
    8a14:	ea000002 	b	8a24 <check_one_cswitch+0x154>
    8a18:	e3a02001 	mov	r2, #1
    8a1c:	ea000000 	b	8a24 <check_one_cswitch+0x154>
    8a20:	e3a02000 	mov	r2, #0
    8a24:	e3520000 	cmp	r2, #0
    8a28:	1a000008 	bne	8a50 <check_one_cswitch+0x180>
    8a2c:	eb000119 	bl	8e98 <rpi_reset_putc>
    8a30:	e59f3338 	ldr	r3, [pc, #824]	; 8d70 <check_one_cswitch+0x4a0>
    8a34:	e58d3000 	str	r3, [sp]
    8a38:	e59f0334 	ldr	r0, [pc, #820]	; 8d74 <check_one_cswitch+0x4a4>
    8a3c:	e59f1334 	ldr	r1, [pc, #820]	; 8d78 <check_one_cswitch+0x4a8>
    8a40:	e59f2334 	ldr	r2, [pc, #820]	; 8d7c <check_one_cswitch+0x4ac>
    8a44:	e3a03011 	mov	r3, #17
    8a48:	eb0000f7 	bl	8e2c <printk>
    8a4c:	eb00028e 	bl	948c <clean_reboot>
    8a50:	e2433010 	sub	r3, r3, #16
    8a54:	e353000f 	cmp	r3, #15
    8a58:	979ff103 	ldrls	pc, [pc, r3, lsl #2]
    8a5c:	ea000019 	b	8ac8 <check_one_cswitch+0x1f8>
    8a60:	00008ae8 	andeq	r8, r0, r8, ror #21
    8a64:	00008af0 	strdeq	r8, [r0], -r0
    8a68:	00008aa0 	andeq	r8, r0, r0, lsr #21
    8a6c:	00008aa8 	andeq	r8, r0, r8, lsr #21
    8a70:	00008ac8 	andeq	r8, r0, r8, asr #21
    8a74:	00008ac8 	andeq	r8, r0, r8, asr #21
    8a78:	00008ac8 	andeq	r8, r0, r8, asr #21
    8a7c:	00008ab0 			; <UNDEFINED> instruction: 0x00008ab0
    8a80:	00008ac8 	andeq	r8, r0, r8, asr #21
    8a84:	00008ac8 	andeq	r8, r0, r8, asr #21
    8a88:	00008ac8 	andeq	r8, r0, r8, asr #21
    8a8c:	00008ab8 			; <UNDEFINED> instruction: 0x00008ab8
    8a90:	00008ac8 	andeq	r8, r0, r8, asr #21
    8a94:	00008ac8 	andeq	r8, r0, r8, asr #21
    8a98:	00008ac8 	andeq	r8, r0, r8, asr #21
    8a9c:	00008ac0 	andeq	r8, r0, r0, asr #21
    8aa0:	e59f12d8 	ldr	r1, [pc, #728]	; 8d80 <check_one_cswitch+0x4b0>
    8aa4:	ea000012 	b	8af4 <check_one_cswitch+0x224>
    8aa8:	e59f12d4 	ldr	r1, [pc, #724]	; 8d84 <check_one_cswitch+0x4b4>
    8aac:	ea000010 	b	8af4 <check_one_cswitch+0x224>
    8ab0:	e59f12d0 	ldr	r1, [pc, #720]	; 8d88 <check_one_cswitch+0x4b8>
    8ab4:	ea00000e 	b	8af4 <check_one_cswitch+0x224>
    8ab8:	e59f12cc 	ldr	r1, [pc, #716]	; 8d8c <check_one_cswitch+0x4bc>
    8abc:	ea00000c 	b	8af4 <check_one_cswitch+0x224>
    8ac0:	e59f12c8 	ldr	r1, [pc, #712]	; 8d90 <check_one_cswitch+0x4c0>
    8ac4:	ea00000a 	b	8af4 <check_one_cswitch+0x224>
    8ac8:	eb0000f2 	bl	8e98 <rpi_reset_putc>
    8acc:	e58d8000 	str	r8, [sp]
    8ad0:	e59f02bc 	ldr	r0, [pc, #700]	; 8d94 <check_one_cswitch+0x4c4>
    8ad4:	e59f129c 	ldr	r1, [pc, #668]	; 8d78 <check_one_cswitch+0x4a8>
    8ad8:	e59f22b8 	ldr	r2, [pc, #696]	; 8d98 <check_one_cswitch+0x4c8>
    8adc:	e3a03021 	mov	r3, #33	; 0x21
    8ae0:	eb0000d1 	bl	8e2c <printk>
    8ae4:	eb000268 	bl	948c <clean_reboot>
    8ae8:	e59f12ac 	ldr	r1, [pc, #684]	; 8d9c <check_one_cswitch+0x4cc>
    8aec:	ea000000 	b	8af4 <check_one_cswitch+0x224>
    8af0:	e59f12a8 	ldr	r1, [pc, #680]	; 8da0 <check_one_cswitch+0x4d0>
    8af4:	e59f02a8 	ldr	r0, [pc, #680]	; 8da4 <check_one_cswitch+0x4d4>
    8af8:	e1a02008 	mov	r2, r8
    8afc:	eb0000ca 	bl	8e2c <printk>
    8b00:	e10f5000 	mrs	r5, CPSR
    8b04:	e205301f 	and	r3, r5, #31
    8b08:	e3530012 	cmp	r3, #18
    8b0c:	13530010 	cmpne	r3, #16
    8b10:	0a000006 	beq	8b30 <check_one_cswitch+0x260>
    8b14:	e3530017 	cmp	r3, #23
    8b18:	13530013 	cmpne	r3, #19
    8b1c:	0a000005 	beq	8b38 <check_one_cswitch+0x268>
    8b20:	e353001f 	cmp	r3, #31
    8b24:	1a000005 	bne	8b40 <check_one_cswitch+0x270>
    8b28:	e3a02001 	mov	r2, #1
    8b2c:	ea000004 	b	8b44 <check_one_cswitch+0x274>
    8b30:	e3a02001 	mov	r2, #1
    8b34:	ea000002 	b	8b44 <check_one_cswitch+0x274>
    8b38:	e3a02001 	mov	r2, #1
    8b3c:	ea000000 	b	8b44 <check_one_cswitch+0x274>
    8b40:	e3a02000 	mov	r2, #0
    8b44:	e3520000 	cmp	r2, #0
    8b48:	1a000008 	bne	8b70 <check_one_cswitch+0x2a0>
    8b4c:	eb0000d1 	bl	8e98 <rpi_reset_putc>
    8b50:	e59f3218 	ldr	r3, [pc, #536]	; 8d70 <check_one_cswitch+0x4a0>
    8b54:	e58d3000 	str	r3, [sp]
    8b58:	e59f0214 	ldr	r0, [pc, #532]	; 8d74 <check_one_cswitch+0x4a4>
    8b5c:	e59f1214 	ldr	r1, [pc, #532]	; 8d78 <check_one_cswitch+0x4a8>
    8b60:	e59f2214 	ldr	r2, [pc, #532]	; 8d7c <check_one_cswitch+0x4ac>
    8b64:	e3a03011 	mov	r3, #17
    8b68:	eb0000af 	bl	8e2c <printk>
    8b6c:	eb000246 	bl	948c <clean_reboot>
    8b70:	e2433010 	sub	r3, r3, #16
    8b74:	e353000f 	cmp	r3, #15
    8b78:	979ff103 	ldrls	pc, [pc, r3, lsl #2]
    8b7c:	ea000019 	b	8be8 <check_one_cswitch+0x318>
    8b80:	00008c08 	andeq	r8, r0, r8, lsl #24
    8b84:	00008c10 	andeq	r8, r0, r0, lsl ip
    8b88:	00008bc0 	andeq	r8, r0, r0, asr #23
    8b8c:	00008bc8 	andeq	r8, r0, r8, asr #23
    8b90:	00008be8 	andeq	r8, r0, r8, ror #23
    8b94:	00008be8 	andeq	r8, r0, r8, ror #23
    8b98:	00008be8 	andeq	r8, r0, r8, ror #23
    8b9c:	00008bd0 	ldrdeq	r8, [r0], -r0
    8ba0:	00008be8 	andeq	r8, r0, r8, ror #23
    8ba4:	00008be8 	andeq	r8, r0, r8, ror #23
    8ba8:	00008be8 	andeq	r8, r0, r8, ror #23
    8bac:	00008bd8 	ldrdeq	r8, [r0], -r8	; <UNPREDICTABLE>
    8bb0:	00008be8 	andeq	r8, r0, r8, ror #23
    8bb4:	00008be8 	andeq	r8, r0, r8, ror #23
    8bb8:	00008be8 	andeq	r8, r0, r8, ror #23
    8bbc:	00008be0 	andeq	r8, r0, r0, ror #23
    8bc0:	e59f11b8 	ldr	r1, [pc, #440]	; 8d80 <check_one_cswitch+0x4b0>
    8bc4:	ea000012 	b	8c14 <check_one_cswitch+0x344>
    8bc8:	e59f11b4 	ldr	r1, [pc, #436]	; 8d84 <check_one_cswitch+0x4b4>
    8bcc:	ea000010 	b	8c14 <check_one_cswitch+0x344>
    8bd0:	e59f11b0 	ldr	r1, [pc, #432]	; 8d88 <check_one_cswitch+0x4b8>
    8bd4:	ea00000e 	b	8c14 <check_one_cswitch+0x344>
    8bd8:	e59f11ac 	ldr	r1, [pc, #428]	; 8d8c <check_one_cswitch+0x4bc>
    8bdc:	ea00000c 	b	8c14 <check_one_cswitch+0x344>
    8be0:	e59f11a8 	ldr	r1, [pc, #424]	; 8d90 <check_one_cswitch+0x4c0>
    8be4:	ea00000a 	b	8c14 <check_one_cswitch+0x344>
    8be8:	eb0000aa 	bl	8e98 <rpi_reset_putc>
    8bec:	e58d5000 	str	r5, [sp]
    8bf0:	e59f019c 	ldr	r0, [pc, #412]	; 8d94 <check_one_cswitch+0x4c4>
    8bf4:	e59f117c 	ldr	r1, [pc, #380]	; 8d78 <check_one_cswitch+0x4a8>
    8bf8:	e59f2198 	ldr	r2, [pc, #408]	; 8d98 <check_one_cswitch+0x4c8>
    8bfc:	e3a03021 	mov	r3, #33	; 0x21
    8c00:	eb000089 	bl	8e2c <printk>
    8c04:	eb000220 	bl	948c <clean_reboot>
    8c08:	e59f118c 	ldr	r1, [pc, #396]	; 8d9c <check_one_cswitch+0x4cc>
    8c0c:	ea000000 	b	8c14 <check_one_cswitch+0x344>
    8c10:	e59f1188 	ldr	r1, [pc, #392]	; 8da0 <check_one_cswitch+0x4d0>
    8c14:	e10f2000 	mrs	r2, CPSR
    8c18:	e59f0188 	ldr	r0, [pc, #392]	; 8da8 <check_one_cswitch+0x4d8>
    8c1c:	eb000082 	bl	8e2c <printk>
    8c20:	e3a00000 	mov	r0, #0
    8c24:	ebfffe50 	bl	856c <brkpt_mismatch_disable0>
    8c28:	e208801f 	and	r8, r8, #31
    8c2c:	e3580012 	cmp	r8, #18
    8c30:	13580010 	cmpne	r8, #16
    8c34:	0a000006 	beq	8c54 <check_one_cswitch+0x384>
    8c38:	e3580017 	cmp	r8, #23
    8c3c:	13580013 	cmpne	r8, #19
    8c40:	0a000005 	beq	8c5c <check_one_cswitch+0x38c>
    8c44:	e358001f 	cmp	r8, #31
    8c48:	1a000005 	bne	8c64 <check_one_cswitch+0x394>
    8c4c:	e3a03001 	mov	r3, #1
    8c50:	ea000004 	b	8c68 <check_one_cswitch+0x398>
    8c54:	e3a03001 	mov	r3, #1
    8c58:	ea000002 	b	8c68 <check_one_cswitch+0x398>
    8c5c:	e3a03001 	mov	r3, #1
    8c60:	ea000000 	b	8c68 <check_one_cswitch+0x398>
    8c64:	e3a03000 	mov	r3, #0
    8c68:	e3530000 	cmp	r3, #0
    8c6c:	1a000008 	bne	8c94 <check_one_cswitch+0x3c4>
    8c70:	eb000088 	bl	8e98 <rpi_reset_putc>
    8c74:	e59f30f4 	ldr	r3, [pc, #244]	; 8d70 <check_one_cswitch+0x4a0>
    8c78:	e58d3000 	str	r3, [sp]
    8c7c:	e59f00f0 	ldr	r0, [pc, #240]	; 8d74 <check_one_cswitch+0x4a4>
    8c80:	e59f10f0 	ldr	r1, [pc, #240]	; 8d78 <check_one_cswitch+0x4a8>
    8c84:	e59f20f0 	ldr	r2, [pc, #240]	; 8d7c <check_one_cswitch+0x4ac>
    8c88:	e3a03011 	mov	r3, #17
    8c8c:	eb000066 	bl	8e2c <printk>
    8c90:	eb0001fd 	bl	948c <clean_reboot>
    8c94:	e10f3000 	mrs	r3, CPSR
    8c98:	e203301f 	and	r3, r3, #31
    8c9c:	e3530012 	cmp	r3, #18
    8ca0:	13530010 	cmpne	r3, #16
    8ca4:	0a000006 	beq	8cc4 <check_one_cswitch+0x3f4>
    8ca8:	e3530017 	cmp	r3, #23
    8cac:	13530013 	cmpne	r3, #19
    8cb0:	0a000005 	beq	8ccc <check_one_cswitch+0x3fc>
    8cb4:	e353001f 	cmp	r3, #31
    8cb8:	1a000005 	bne	8cd4 <check_one_cswitch+0x404>
    8cbc:	e3a02001 	mov	r2, #1
    8cc0:	ea000004 	b	8cd8 <check_one_cswitch+0x408>
    8cc4:	e3a02001 	mov	r2, #1
    8cc8:	ea000002 	b	8cd8 <check_one_cswitch+0x408>
    8ccc:	e3a02001 	mov	r2, #1
    8cd0:	ea000000 	b	8cd8 <check_one_cswitch+0x408>
    8cd4:	e3a02000 	mov	r2, #0
    8cd8:	e3520000 	cmp	r2, #0
    8cdc:	1a000008 	bne	8d04 <check_one_cswitch+0x434>
    8ce0:	eb00006c 	bl	8e98 <rpi_reset_putc>
    8ce4:	e59f3084 	ldr	r3, [pc, #132]	; 8d70 <check_one_cswitch+0x4a0>
    8ce8:	e58d3000 	str	r3, [sp]
    8cec:	e59f0080 	ldr	r0, [pc, #128]	; 8d74 <check_one_cswitch+0x4a4>
    8cf0:	e59f1080 	ldr	r1, [pc, #128]	; 8d78 <check_one_cswitch+0x4a8>
    8cf4:	e59f2080 	ldr	r2, [pc, #128]	; 8d7c <check_one_cswitch+0x4ac>
    8cf8:	e3a03011 	mov	r3, #17
    8cfc:	eb00004a 	bl	8e2c <printk>
    8d00:	eb0001e1 	bl	948c <clean_reboot>
    8d04:	e1580003 	cmp	r8, r3
    8d08:	0a000008 	beq	8d30 <check_one_cswitch+0x460>
    8d0c:	eb000061 	bl	8e98 <rpi_reset_putc>
    8d10:	e59f3094 	ldr	r3, [pc, #148]	; 8dac <check_one_cswitch+0x4dc>
    8d14:	e58d3000 	str	r3, [sp]
    8d18:	e59f0054 	ldr	r0, [pc, #84]	; 8d74 <check_one_cswitch+0x4a4>
    8d1c:	e59f1038 	ldr	r1, [pc, #56]	; 8d5c <check_one_cswitch+0x48c>
    8d20:	e59f2038 	ldr	r2, [pc, #56]	; 8d60 <check_one_cswitch+0x490>
    8d24:	e3a03058 	mov	r3, #88	; 0x58
    8d28:	eb00003f 	bl	8e2c <printk>
    8d2c:	eb0001d6 	bl	948c <clean_reboot>
    8d30:	e3a03000 	mov	r3, #0
    8d34:	e5843030 	str	r3, [r4, #48]	; 0x30
    8d38:	e594002c 	ldr	r0, [r4, #44]	; 0x2c
    8d3c:	e1500003 	cmp	r0, r3
    8d40:	13a00000 	movne	r0, #0
    8d44:	03a00001 	moveq	r0, #1
    8d48:	e28dd00c 	add	sp, sp, #12
    8d4c:	e8bd8ff0 	pop	{r4, r5, r6, r7, r8, r9, sl, fp, pc}
    8d50:	0000a22c 	andeq	sl, r0, ip, lsr #4
    8d54:	0000a220 	andeq	sl, r0, r0, lsr #4
    8d58:	00009e44 	andeq	r9, r0, r4, asr #28
    8d5c:	00009d1c 	andeq	r9, r0, ip, lsl sp
    8d60:	00009f9c 	muleq	r0, ip, pc	; <UNPREDICTABLE>
    8d64:	00008724 	andeq	r8, r0, r4, lsr #14
    8d68:	00009e7c 	andeq	r9, r0, ip, ror lr
    8d6c:	00009ec4 	andeq	r9, r0, r4, asr #29
    8d70:	00009f04 	andeq	r9, r0, r4, lsl #30
    8d74:	00009a78 	andeq	r9, r0, r8, ror sl
    8d78:	00009ef8 	strdeq	r9, [r0], -r8
    8d7c:	00009fe8 	andeq	r9, r0, r8, ror #31
    8d80:	00009e08 	andeq	r9, r0, r8, lsl #28
    8d84:	00009e14 	andeq	r9, r0, r4, lsl lr
    8d88:	00009e20 	andeq	r9, r0, r0, lsr #28
    8d8c:	00009e2c 	andeq	r9, r0, ip, lsr #28
    8d90:	00009e38 	andeq	r9, r0, r8, lsr lr
    8d94:	00009f18 	andeq	r9, r0, r8, lsl pc
    8d98:	00009fdc 	ldrdeq	r9, [r0], -ip
    8d9c:	00009df0 	strdeq	r9, [r0], -r0
    8da0:	00009dfc 	strdeq	r9, [r0], -ip
    8da4:	00009f3c 	andeq	r9, r0, ip, lsr pc
    8da8:	00009f58 	andeq	r9, r0, r8, asr pc
    8dac:	00009f70 	andeq	r9, r0, r0, ror pc

00008db0 <check_sequential>:
    8db0:	e3a00001 	mov	r0, #1
    8db4:	e12fff1e 	bx	lr

00008db8 <check_zero>:
    8db8:	e3a03000 	mov	r3, #0
    8dbc:	e5803030 	str	r3, [r0, #48]	; 0x30
    8dc0:	e580302c 	str	r3, [r0, #44]	; 0x2c
    8dc4:	e5803028 	str	r3, [r0, #40]	; 0x28
    8dc8:	e5803024 	str	r3, [r0, #36]	; 0x24
    8dcc:	e5803020 	str	r3, [r0, #32]
    8dd0:	e580301c 	str	r3, [r0, #28]
    8dd4:	e5803018 	str	r3, [r0, #24]
    8dd8:	e5803014 	str	r3, [r0, #20]
    8ddc:	e12fff1e 	bx	lr

00008de0 <check>:
    8de0:	e92d4010 	push	{r4, lr}
    8de4:	e1a04000 	mov	r4, r0
    8de8:	ebfffd84 	bl	8400 <cp14_enable>
    8dec:	e1a00004 	mov	r0, r4
    8df0:	ebfffff0 	bl	8db8 <check_zero>
    8df4:	e1a00004 	mov	r0, r4
    8df8:	ebffffec 	bl	8db0 <check_sequential>
    8dfc:	e3500000 	cmp	r0, #0
    8e00:	0a000005 	beq	8e1c <check+0x3c>
    8e04:	e1a00004 	mov	r0, r4
    8e08:	ebfffeb0 	bl	88d0 <check_one_cswitch>
    8e0c:	e3500000 	cmp	r0, #0
    8e10:	0a000003 	beq	8e24 <check+0x44>
    8e14:	e3a00001 	mov	r0, #1
    8e18:	e8bd8010 	pop	{r4, pc}
    8e1c:	e3a00000 	mov	r0, #0
    8e20:	e8bd8010 	pop	{r4, pc}
    8e24:	e3a00000 	mov	r0, #0
    8e28:	e8bd8010 	pop	{r4, pc}

00008e2c <printk>:
    8e2c:	e92d000f 	push	{r0, r1, r2, r3}
    8e30:	e92d4030 	push	{r4, r5, lr}
    8e34:	e24dd00c 	sub	sp, sp, #12
    8e38:	e28d301c 	add	r3, sp, #28
    8e3c:	e58d3004 	str	r3, [sp, #4]
    8e40:	e59f4034 	ldr	r4, [pc, #52]	; 8e7c <printk+0x50>
    8e44:	e1a00004 	mov	r0, r4
    8e48:	e3a01b01 	mov	r1, #1024	; 0x400
    8e4c:	e59d2018 	ldr	r2, [sp, #24]
    8e50:	eb0000d0 	bl	9198 <va_printk>
    8e54:	e1a05000 	mov	r5, r0
    8e58:	e59f3020 	ldr	r3, [pc, #32]	; 8e80 <printk+0x54>
    8e5c:	e5933000 	ldr	r3, [r3]
    8e60:	e1a00004 	mov	r0, r4
    8e64:	e12fff33 	blx	r3
    8e68:	e1a00005 	mov	r0, r5
    8e6c:	e28dd00c 	add	sp, sp, #12
    8e70:	e8bd4030 	pop	{r4, r5, lr}
    8e74:	e28dd010 	add	sp, sp, #16
    8e78:	e12fff1e 	bx	lr
    8e7c:	0000a234 	andeq	sl, r0, r4, lsr r2
    8e80:	00009a3c 	andeq	r9, r0, ip, lsr sl

00008e84 <internal_putchar>:
    8e84:	e92d4010 	push	{r4, lr}
    8e88:	e1a04000 	mov	r4, r0
    8e8c:	eb000291 	bl	98d8 <uart_putc>
    8e90:	e1a00004 	mov	r0, r4
    8e94:	e8bd8010 	pop	{r4, pc}

00008e98 <rpi_reset_putc>:
    8e98:	e59f2008 	ldr	r2, [pc, #8]	; 8ea8 <rpi_reset_putc+0x10>
    8e9c:	e59f3008 	ldr	r3, [pc, #8]	; 8eac <rpi_reset_putc+0x14>
    8ea0:	e5832000 	str	r2, [r3]
    8ea4:	e12fff1e 	bx	lr
    8ea8:	00008e84 	andeq	r8, r0, r4, lsl #29
    8eac:	00009a38 	andeq	r9, r0, r8, lsr sl

00008eb0 <rpi_set_putc>:
    8eb0:	e59f3004 	ldr	r3, [pc, #4]	; 8ebc <rpi_set_putc+0xc>
    8eb4:	e5830000 	str	r0, [r3]
    8eb8:	e12fff1e 	bx	lr
    8ebc:	00009a38 	andeq	r9, r0, r8, lsr sl

00008ec0 <internal_putk>:
    8ec0:	e92d4038 	push	{r3, r4, r5, lr}
    8ec4:	e1a04000 	mov	r4, r0
    8ec8:	e59f5020 	ldr	r5, [pc, #32]	; 8ef0 <internal_putk+0x30>
    8ecc:	ea000002 	b	8edc <internal_putk+0x1c>
    8ed0:	e5953000 	ldr	r3, [r5]
    8ed4:	e12fff33 	blx	r3
    8ed8:	e2844001 	add	r4, r4, #1
    8edc:	e5d40000 	ldrb	r0, [r4]
    8ee0:	e3500000 	cmp	r0, #0
    8ee4:	1afffff9 	bne	8ed0 <internal_putk+0x10>
    8ee8:	e3a00001 	mov	r0, #1
    8eec:	e8bd8038 	pop	{r3, r4, r5, pc}
    8ef0:	00009a38 	andeq	r9, r0, r8, lsr sl

00008ef4 <isdigit>:
    8ef4:	e2400030 	sub	r0, r0, #48	; 0x30
    8ef8:	e3500009 	cmp	r0, #9
    8efc:	83a00000 	movhi	r0, #0
    8f00:	93a00001 	movls	r0, #1
    8f04:	e12fff1e 	bx	lr

00008f08 <pad>:
    8f08:	e0611000 	rsb	r1, r1, r0
    8f0c:	e3a03020 	mov	r3, #32
    8f10:	ea000002 	b	8f20 <pad+0x18>
    8f14:	e5c03000 	strb	r3, [r0]
    8f18:	e2811001 	add	r1, r1, #1
    8f1c:	e2800001 	add	r0, r0, #1
    8f20:	e1510002 	cmp	r1, r2
    8f24:	bafffffa 	blt	8f14 <pad+0xc>
    8f28:	e3a03000 	mov	r3, #0
    8f2c:	e5c03000 	strb	r3, [r0]
    8f30:	e12fff1e 	bx	lr

00008f34 <reverse>:
    8f34:	e063c002 	rsb	ip, r3, r2
    8f38:	e28cc001 	add	ip, ip, #1
    8f3c:	e15c0001 	cmp	ip, r1
    8f40:	c061100c 	rsbgt	r1, r1, ip
    8f44:	c0833001 	addgt	r3, r3, r1
    8f48:	e2422001 	sub	r2, r2, #1
    8f4c:	e1a01000 	mov	r1, r0
    8f50:	ea000002 	b	8f60 <reverse+0x2c>
    8f54:	e452c001 	ldrb	ip, [r2], #-1
    8f58:	e5c1c000 	strb	ip, [r1]
    8f5c:	e2811001 	add	r1, r1, #1
    8f60:	e1520003 	cmp	r2, r3
    8f64:	2afffffa 	bcs	8f54 <reverse+0x20>
    8f68:	e3a03000 	mov	r3, #0
    8f6c:	e5c13000 	strb	r3, [r1]
    8f70:	e12fff1e 	bx	lr

00008f74 <emit>:
    8f74:	e92d41f0 	push	{r4, r5, r6, r7, r8, lr}
    8f78:	e24dd048 	sub	sp, sp, #72	; 0x48
    8f7c:	e1a05001 	mov	r5, r1
    8f80:	e1a04002 	mov	r4, r2
    8f84:	e59d2060 	ldr	r2, [sp, #96]	; 0x60
    8f88:	e1520004 	cmp	r2, r4
    8f8c:	c2442001 	subgt	r2, r4, #1
    8f90:	e1a0c003 	mov	ip, r3
    8f94:	e2400002 	sub	r0, r0, #2
    8f98:	e350000e 	cmp	r0, #14
    8f9c:	979ff100 	ldrls	pc, [pc, r0, lsl #2]
    8fa0:	ea000048 	b	90c8 <emit+0x154>
    8fa4:	000090a0 	andeq	r9, r0, r0, lsr #1
    8fa8:	000090c8 	andeq	r9, r0, r8, asr #1
    8fac:	000090c8 	andeq	r9, r0, r8, asr #1
    8fb0:	000090c8 	andeq	r9, r0, r8, asr #1
    8fb4:	000090c8 	andeq	r9, r0, r8, asr #1
    8fb8:	000090c8 	andeq	r9, r0, r8, asr #1
    8fbc:	00009094 	muleq	r0, r4, r0
    8fc0:	000090c8 	andeq	r9, r0, r8, asr #1
    8fc4:	00008fe0 	andeq	r8, r0, r0, ror #31
    8fc8:	000090c8 	andeq	r9, r0, r8, asr #1
    8fcc:	000090c8 	andeq	r9, r0, r8, asr #1
    8fd0:	000090c8 	andeq	r9, r0, r8, asr #1
    8fd4:	000090c8 	andeq	r9, r0, r8, asr #1
    8fd8:	000090c8 	andeq	r9, r0, r8, asr #1
    8fdc:	00009054 	andeq	r9, r0, r4, asr r0
    8fe0:	e59d1064 	ldr	r1, [sp, #100]	; 0x64
    8fe4:	e2911000 	adds	r1, r1, #0
    8fe8:	13a01001 	movne	r1, #1
    8fec:	e0111fa3 	ands	r1, r1, r3, lsr #31
    8ff0:	1263c000 	rsbne	ip, r3, #0
    8ff4:	13a08001 	movne	r8, #1
    8ff8:	03a08000 	moveq	r8, #0
    8ffc:	e28d1008 	add	r1, sp, #8
    9000:	e59f7108 	ldr	r7, [pc, #264]	; 9110 <emit+0x19c>
    9004:	e59f6108 	ldr	r6, [pc, #264]	; 9114 <emit+0x1a0>
    9008:	ea000000 	b	9010 <emit+0x9c>
    900c:	e1a01000 	mov	r1, r0
    9010:	e2810001 	add	r0, r1, #1
    9014:	e083ec97 	umull	lr, r3, r7, ip
    9018:	e1a031a3 	lsr	r3, r3, #3
    901c:	e1a0e003 	mov	lr, r3
    9020:	e0833103 	add	r3, r3, r3, lsl #2
    9024:	e1a03083 	lsl	r3, r3, #1
    9028:	e063300c 	rsb	r3, r3, ip
    902c:	e7d63003 	ldrb	r3, [r6, r3]
    9030:	e5c13000 	strb	r3, [r1]
    9034:	e1a0c00e 	mov	ip, lr
    9038:	e35e0000 	cmp	lr, #0
    903c:	1afffff2 	bne	900c <emit+0x98>
    9040:	e3580000 	cmp	r8, #0
    9044:	12810002 	addne	r0, r1, #2
    9048:	13a0302d 	movne	r3, #45	; 0x2d
    904c:	15c13001 	strbne	r3, [r1, #1]
    9050:	ea000025 	b	90ec <emit+0x178>
    9054:	e28d3008 	add	r3, sp, #8
    9058:	e59fe0b8 	ldr	lr, [pc, #184]	; 9118 <emit+0x1a4>
    905c:	ea000000 	b	9064 <emit+0xf0>
    9060:	e1a03000 	mov	r3, r0
    9064:	e2830001 	add	r0, r3, #1
    9068:	e20c100f 	and	r1, ip, #15
    906c:	e7de1001 	ldrb	r1, [lr, r1]
    9070:	e5c31000 	strb	r1, [r3]
    9074:	e1b0c22c 	lsrs	ip, ip, #4
    9078:	1afffff8 	bne	9060 <emit+0xec>
    907c:	e3a01078 	mov	r1, #120	; 0x78
    9080:	e5c31001 	strb	r1, [r3, #1]
    9084:	e2830003 	add	r0, r3, #3
    9088:	e3a01030 	mov	r1, #48	; 0x30
    908c:	e5c31002 	strb	r1, [r3, #2]
    9090:	ea000015 	b	90ec <emit+0x178>
    9094:	e5cd3008 	strb	r3, [sp, #8]
    9098:	e28d0009 	add	r0, sp, #9
    909c:	ea000012 	b	90ec <emit+0x178>
    90a0:	e28d3008 	add	r3, sp, #8
    90a4:	e59fe070 	ldr	lr, [pc, #112]	; 911c <emit+0x1a8>
    90a8:	e2830001 	add	r0, r3, #1
    90ac:	e20c1001 	and	r1, ip, #1
    90b0:	e7de1001 	ldrb	r1, [lr, r1]
    90b4:	e5c31000 	strb	r1, [r3]
    90b8:	e1a03000 	mov	r3, r0
    90bc:	e1b0c0ac 	lsrs	ip, ip, #1
    90c0:	1afffff8 	bne	90a8 <emit+0x134>
    90c4:	ea000008 	b	90ec <emit+0x178>
    90c8:	ebffff72 	bl	8e98 <rpi_reset_putc>
    90cc:	e59f304c 	ldr	r3, [pc, #76]	; 9120 <emit+0x1ac>
    90d0:	e58d3000 	str	r3, [sp]
    90d4:	e59f0048 	ldr	r0, [pc, #72]	; 9124 <emit+0x1b0>
    90d8:	e59f1048 	ldr	r1, [pc, #72]	; 9128 <emit+0x1b4>
    90dc:	e59f2048 	ldr	r2, [pc, #72]	; 912c <emit+0x1b8>
    90e0:	e3a03077 	mov	r3, #119	; 0x77
    90e4:	ebffff50 	bl	8e2c <printk>
    90e8:	eb0000e7 	bl	948c <clean_reboot>
    90ec:	e28d1008 	add	r1, sp, #8
    90f0:	ebffff84 	bl	8f08 <pad>
    90f4:	e1a02000 	mov	r2, r0
    90f8:	e1a00005 	mov	r0, r5
    90fc:	e1a01004 	mov	r1, r4
    9100:	e28d3008 	add	r3, sp, #8
    9104:	ebffff8a 	bl	8f34 <reverse>
    9108:	e28dd048 	add	sp, sp, #72	; 0x48
    910c:	e8bd81f0 	pop	{r4, r5, r6, r7, r8, pc}
    9110:	cccccccd 	stclgt	12, cr12, [ip], {205}	; 0xcd
    9114:	0000a03c 	andeq	sl, r0, ip, lsr r0
    9118:	0000a048 	andeq	sl, r0, r8, asr #32
    911c:	0000a05c 	andeq	sl, r0, ip, asr r0
    9120:	0000a038 	andeq	sl, r0, r8, lsr r0
    9124:	00009a78 	andeq	r9, r0, r8, ror sl
    9128:	0000a024 	andeq	sl, r0, r4, lsr #32
    912c:	0000a000 	andeq	sl, r0, r0

00009130 <rpi_set_output>:
    9130:	e52de004 	push	{lr}		; (str lr, [sp, #-4]!)
    9134:	e24dd00c 	sub	sp, sp, #12
    9138:	e3500000 	cmp	r0, #0
    913c:	1a000008 	bne	9164 <rpi_set_output+0x34>
    9140:	ebffff54 	bl	8e98 <rpi_reset_putc>
    9144:	e59f3034 	ldr	r3, [pc, #52]	; 9180 <rpi_set_output+0x50>
    9148:	e58d3000 	str	r3, [sp]
    914c:	e59f0030 	ldr	r0, [pc, #48]	; 9184 <rpi_set_output+0x54>
    9150:	e59f1030 	ldr	r1, [pc, #48]	; 9188 <rpi_set_output+0x58>
    9154:	e59f2030 	ldr	r2, [pc, #48]	; 918c <rpi_set_output+0x5c>
    9158:	e3a03020 	mov	r3, #32
    915c:	ebffff32 	bl	8e2c <printk>
    9160:	eb0000c9 	bl	948c <clean_reboot>
    9164:	e59f3024 	ldr	r3, [pc, #36]	; 9190 <rpi_set_output+0x60>
    9168:	e5830000 	str	r0, [r3]
    916c:	e3510000 	cmp	r1, #0
    9170:	159f301c 	ldrne	r3, [pc, #28]	; 9194 <rpi_set_output+0x64>
    9174:	15831000 	strne	r1, [r3]
    9178:	e28dd00c 	add	sp, sp, #12
    917c:	e49df004 	pop	{pc}		; (ldr pc, [sp], #4)
    9180:	0000a060 	andeq	sl, r0, r0, rrx
    9184:	00009a78 	andeq	r9, r0, r8, ror sl
    9188:	0000a024 	andeq	sl, r0, r4, lsr #32
    918c:	0000a008 	andeq	sl, r0, r8
    9190:	00009a38 	andeq	r9, r0, r8, lsr sl
    9194:	00009a3c 	andeq	r9, r0, ip, lsr sl

00009198 <va_printk>:
    9198:	e92d4ff0 	push	{r4, r5, r6, r7, r8, r9, sl, fp, lr}
    919c:	e24dd094 	sub	sp, sp, #148	; 0x94
    91a0:	e1a0b000 	mov	fp, r0
    91a4:	e58d200c 	str	r2, [sp, #12]
    91a8:	e1a0a003 	mov	sl, r3
    91ac:	e2411001 	sub	r1, r1, #1
    91b0:	e0808001 	add	r8, r0, r1
    91b4:	e3a03000 	mov	r3, #0
    91b8:	e5c03000 	strb	r3, [r0]
    91bc:	e1a04000 	mov	r4, r0
    91c0:	e1a06002 	mov	r6, r2
    91c4:	ea000095 	b	9420 <va_printk+0x288>
    91c8:	e3530025 	cmp	r3, #37	; 0x25
    91cc:	12866001 	addne	r6, r6, #1
    91d0:	15c43000 	strbne	r3, [r4]
    91d4:	12844001 	addne	r4, r4, #1
    91d8:	1a000090 	bne	9420 <va_printk+0x288>
    91dc:	e5d62001 	ldrb	r2, [r6, #1]
    91e0:	e3520025 	cmp	r2, #37	; 0x25
    91e4:	05c43000 	strbeq	r3, [r4]
    91e8:	02866002 	addeq	r6, r6, #2
    91ec:	02844001 	addeq	r4, r4, #1
    91f0:	0a00008a 	beq	9420 <va_printk+0x288>
    91f4:	e2866001 	add	r6, r6, #1
    91f8:	e3a07000 	mov	r7, #0
    91fc:	ea000004 	b	9214 <va_printk+0x7c>
    9200:	e0877107 	add	r7, r7, r7, lsl #2
    9204:	e1a07087 	lsl	r7, r7, #1
    9208:	e0877005 	add	r7, r7, r5
    920c:	e2477030 	sub	r7, r7, #48	; 0x30
    9210:	e2866001 	add	r6, r6, #1
    9214:	e5d65000 	ldrb	r5, [r6]
    9218:	e1a09005 	mov	r9, r5
    921c:	e1a00005 	mov	r0, r5
    9220:	ebffff33 	bl	8ef4 <isdigit>
    9224:	e3500000 	cmp	r0, #0
    9228:	1afffff4 	bne	9200 <va_printk+0x68>
    922c:	e357001f 	cmp	r7, #31
    9230:	9a000008 	bls	9258 <va_printk+0xc0>
    9234:	ebffff17 	bl	8e98 <rpi_reset_putc>
    9238:	e59f320c 	ldr	r3, [pc, #524]	; 944c <va_printk+0x2b4>
    923c:	e58d3000 	str	r3, [sp]
    9240:	e59f0208 	ldr	r0, [pc, #520]	; 9450 <va_printk+0x2b8>
    9244:	e59f1208 	ldr	r1, [pc, #520]	; 9454 <va_printk+0x2bc>
    9248:	e59f2208 	ldr	r2, [pc, #520]	; 9458 <va_printk+0x2c0>
    924c:	e3a03095 	mov	r3, #149	; 0x95
    9250:	ebfffef5 	bl	8e2c <printk>
    9254:	eb00008c 	bl	948c <clean_reboot>
    9258:	e2455062 	sub	r5, r5, #98	; 0x62
    925c:	e3550016 	cmp	r5, #22
    9260:	979ff105 	ldrls	pc, [pc, r5, lsl #2]
    9264:	ea000052 	b	93b4 <va_printk+0x21c>
    9268:	00009358 	andeq	r9, r0, r8, asr r3
    926c:	0000938c 	andeq	r9, r0, ip, lsl #7
    9270:	000092e0 	andeq	r9, r0, r0, ror #5
    9274:	000093b4 			; <UNDEFINED> instruction: 0x000093b4
    9278:	000092c4 	andeq	r9, r0, r4, asr #5
    927c:	000093b4 			; <UNDEFINED> instruction: 0x000093b4
    9280:	000093b4 			; <UNDEFINED> instruction: 0x000093b4
    9284:	000093b4 			; <UNDEFINED> instruction: 0x000093b4
    9288:	000093b4 			; <UNDEFINED> instruction: 0x000093b4
    928c:	000093b4 			; <UNDEFINED> instruction: 0x000093b4
    9290:	000093b4 			; <UNDEFINED> instruction: 0x000093b4
    9294:	000093b4 			; <UNDEFINED> instruction: 0x000093b4
    9298:	000093b4 			; <UNDEFINED> instruction: 0x000093b4
    929c:	000093b4 			; <UNDEFINED> instruction: 0x000093b4
    92a0:	00009330 	andeq	r9, r0, r0, lsr r3
    92a4:	000093b4 			; <UNDEFINED> instruction: 0x000093b4
    92a8:	000093b4 			; <UNDEFINED> instruction: 0x000093b4
    92ac:	00009380 	andeq	r9, r0, r0, lsl #7
    92b0:	000093b4 			; <UNDEFINED> instruction: 0x000093b4
    92b4:	00009308 	andeq	r9, r0, r8, lsl #6
    92b8:	000093b4 			; <UNDEFINED> instruction: 0x000093b4
    92bc:	000093b4 			; <UNDEFINED> instruction: 0x000093b4
    92c0:	00009330 	andeq	r9, r0, r0, lsr r3
    92c4:	ebfffef3 	bl	8e98 <rpi_reset_putc>
    92c8:	e59f018c 	ldr	r0, [pc, #396]	; 945c <va_printk+0x2c4>
    92cc:	e59f1180 	ldr	r1, [pc, #384]	; 9454 <va_printk+0x2bc>
    92d0:	e59f2180 	ldr	r2, [pc, #384]	; 9458 <va_printk+0x2c0>
    92d4:	e3a0309b 	mov	r3, #155	; 0x9b
    92d8:	ebfffed3 	bl	8e2c <printk>
    92dc:	eb00006a 	bl	948c <clean_reboot>
    92e0:	e59a3000 	ldr	r3, [sl]
    92e4:	e28aa004 	add	sl, sl, #4
    92e8:	e58d7000 	str	r7, [sp]
    92ec:	e3a02001 	mov	r2, #1
    92f0:	e58d2004 	str	r2, [sp, #4]
    92f4:	e3a0000a 	mov	r0, #10
    92f8:	e28d1010 	add	r1, sp, #16
    92fc:	e3a02080 	mov	r2, #128	; 0x80
    9300:	ebffff1b 	bl	8f74 <emit>
    9304:	ea00003b 	b	93f8 <va_printk+0x260>
    9308:	e59a3000 	ldr	r3, [sl]
    930c:	e28aa004 	add	sl, sl, #4
    9310:	e58d7000 	str	r7, [sp]
    9314:	e3a02000 	mov	r2, #0
    9318:	e58d2004 	str	r2, [sp, #4]
    931c:	e3a0000a 	mov	r0, #10
    9320:	e28d1010 	add	r1, sp, #16
    9324:	e3a02080 	mov	r2, #128	; 0x80
    9328:	ebffff11 	bl	8f74 <emit>
    932c:	ea000031 	b	93f8 <va_printk+0x260>
    9330:	e59a3000 	ldr	r3, [sl]
    9334:	e28aa004 	add	sl, sl, #4
    9338:	e58d7000 	str	r7, [sp]
    933c:	e3a02000 	mov	r2, #0
    9340:	e58d2004 	str	r2, [sp, #4]
    9344:	e3a00010 	mov	r0, #16
    9348:	e08d1000 	add	r1, sp, r0
    934c:	e3a02080 	mov	r2, #128	; 0x80
    9350:	ebffff07 	bl	8f74 <emit>
    9354:	ea000027 	b	93f8 <va_printk+0x260>
    9358:	e59a3000 	ldr	r3, [sl]
    935c:	e28aa004 	add	sl, sl, #4
    9360:	e58d7000 	str	r7, [sp]
    9364:	e3a02000 	mov	r2, #0
    9368:	e58d2004 	str	r2, [sp, #4]
    936c:	e3a00002 	mov	r0, #2
    9370:	e28d1010 	add	r1, sp, #16
    9374:	e3a02080 	mov	r2, #128	; 0x80
    9378:	ebfffefd 	bl	8f74 <emit>
    937c:	ea00001d 	b	93f8 <va_printk+0x260>
    9380:	e59a0000 	ldr	r0, [sl]
    9384:	e28aa004 	add	sl, sl, #4
    9388:	ea00001a 	b	93f8 <va_printk+0x260>
    938c:	e59a3000 	ldr	r3, [sl]
    9390:	e28aa004 	add	sl, sl, #4
    9394:	e58d7000 	str	r7, [sp]
    9398:	e3a02000 	mov	r2, #0
    939c:	e58d2004 	str	r2, [sp, #4]
    93a0:	e3a00008 	mov	r0, #8
    93a4:	e28d1010 	add	r1, sp, #16
    93a8:	e3a02080 	mov	r2, #128	; 0x80
    93ac:	ebfffef0 	bl	8f74 <emit>
    93b0:	ea000010 	b	93f8 <va_printk+0x260>
    93b4:	e3a03000 	mov	r3, #0
    93b8:	e5c63001 	strb	r3, [r6, #1]
    93bc:	e59f009c 	ldr	r0, [pc, #156]	; 9460 <va_printk+0x2c8>
    93c0:	e1a01009 	mov	r1, r9
    93c4:	e1a02009 	mov	r2, r9
    93c8:	ebfffe97 	bl	8e2c <printk>
    93cc:	e59f3090 	ldr	r3, [pc, #144]	; 9464 <va_printk+0x2cc>
    93d0:	e5933000 	ldr	r3, [r3]
    93d4:	e59d000c 	ldr	r0, [sp, #12]
    93d8:	e12fff33 	blx	r3
    93dc:	ebfffead 	bl	8e98 <rpi_reset_putc>
    93e0:	e59f0080 	ldr	r0, [pc, #128]	; 9468 <va_printk+0x2d0>
    93e4:	e59f1068 	ldr	r1, [pc, #104]	; 9454 <va_printk+0x2bc>
    93e8:	e59f2068 	ldr	r2, [pc, #104]	; 9458 <va_printk+0x2c0>
    93ec:	e3a030bf 	mov	r3, #191	; 0xbf
    93f0:	ebfffe8d 	bl	8e2c <printk>
    93f4:	eb000024 	bl	948c <clean_reboot>
    93f8:	e2866001 	add	r6, r6, #1
    93fc:	ea000002 	b	940c <va_printk+0x274>
    9400:	e2800001 	add	r0, r0, #1
    9404:	e5c43000 	strb	r3, [r4]
    9408:	e2844001 	add	r4, r4, #1
    940c:	e1540008 	cmp	r4, r8
    9410:	2a000002 	bcs	9420 <va_printk+0x288>
    9414:	e5d03000 	ldrb	r3, [r0]
    9418:	e3530000 	cmp	r3, #0
    941c:	1afffff7 	bne	9400 <va_printk+0x268>
    9420:	e5d63000 	ldrb	r3, [r6]
    9424:	e3530000 	cmp	r3, #0
    9428:	0a000001 	beq	9434 <va_printk+0x29c>
    942c:	e1540008 	cmp	r4, r8
    9430:	3affff64 	bcc	91c8 <va_printk+0x30>
    9434:	e2840001 	add	r0, r4, #1
    9438:	e3a03000 	mov	r3, #0
    943c:	e5c43000 	strb	r3, [r4]
    9440:	e06b0000 	rsb	r0, fp, r0
    9444:	e28dd094 	add	sp, sp, #148	; 0x94
    9448:	e8bd8ff0 	pop	{r4, r5, r6, r7, r8, r9, sl, fp, pc}
    944c:	0000a068 	andeq	sl, r0, r8, rrx
    9450:	00009a78 	andeq	r9, r0, r8, ror sl
    9454:	0000a024 	andeq	sl, r0, r4, lsr #32
    9458:	0000a018 	andeq	sl, r0, r8, lsl r0
    945c:	0000a074 	andeq	sl, r0, r4, ror r0
    9460:	0000a09c 	muleq	r0, ip, r0
    9464:	00009a3c 	andeq	r9, r0, ip, lsr sl
    9468:	0000a0cc 	andeq	sl, r0, ip, asr #1

0000946c <enable_cache>:
    946c:	ee113f10 	mrc	15, 0, r3, cr1, cr0, {0}
    9470:	e3833b06 	orr	r3, r3, #6144	; 0x1800
    9474:	ee013f10 	mcr	15, 0, r3, cr1, cr0, {0}
    9478:	e12fff1e 	bx	lr

0000947c <disable_cache>:
    947c:	ee113f10 	mrc	15, 0, r3, cr1, cr0, {0}
    9480:	e3c33b06 	bic	r3, r3, #6144	; 0x1800
    9484:	ee013f10 	mcr	15, 0, r3, cr1, cr0, {0}
    9488:	e12fff1e 	bx	lr

0000948c <clean_reboot>:
    948c:	e92d4008 	push	{r3, lr}
    9490:	eb00004a 	bl	95c0 <reboot_handler>
    9494:	e59f3014 	ldr	r3, [pc, #20]	; 94b0 <clean_reboot+0x24>
    9498:	e5933000 	ldr	r3, [r3]
    949c:	e59f0010 	ldr	r0, [pc, #16]	; 94b4 <clean_reboot+0x28>
    94a0:	e12fff33 	blx	r3
    94a4:	e3a00064 	mov	r0, #100	; 0x64
    94a8:	eb000099 	bl	9714 <delay_ms>
    94ac:	eb00006a 	bl	965c <rpi_reboot>
    94b0:	00009a3c 	andeq	r9, r0, ip, lsr sl
    94b4:	0000a0ec 	andeq	sl, r0, ip, ror #1

000094b8 <_cstart>:
    94b8:	e92d4008 	push	{r3, lr}
    94bc:	e59f3024 	ldr	r3, [pc, #36]	; 94e8 <_cstart+0x30>
    94c0:	e59f2024 	ldr	r2, [pc, #36]	; 94ec <_cstart+0x34>
    94c4:	e3a01000 	mov	r1, #0
    94c8:	ea000001 	b	94d4 <_cstart+0x1c>
    94cc:	e5831000 	str	r1, [r3]
    94d0:	e2833004 	add	r3, r3, #4
    94d4:	e1530002 	cmp	r3, r2
    94d8:	3afffffb 	bcc	94cc <_cstart+0x14>
    94dc:	eb000036 	bl	95bc <cstart_handler>
    94e0:	ebfffb47 	bl	8204 <notmain>
    94e4:	ebffffe8 	bl	948c <clean_reboot>
    94e8:	0000a210 	andeq	sl, r0, r0, lsl r2
    94ec:	0000a638 	andeq	sl, r0, r8, lsr r6

000094f0 <fast_interrupt_vector>:
    94f0:	e52de004 	push	{lr}		; (str lr, [sp, #-4]!)
    94f4:	e24dd00c 	sub	sp, sp, #12
    94f8:	e1a04000 	mov	r4, r0
    94fc:	ebfffe65 	bl	8e98 <rpi_reset_putc>
    9500:	e59f301c 	ldr	r3, [pc, #28]	; 9524 <fast_interrupt_vector+0x34>
    9504:	e58d3000 	str	r3, [sp]
    9508:	e58d4004 	str	r4, [sp, #4]
    950c:	e59f0014 	ldr	r0, [pc, #20]	; 9528 <fast_interrupt_vector+0x38>
    9510:	e59f1014 	ldr	r1, [pc, #20]	; 952c <fast_interrupt_vector+0x3c>
    9514:	e59f2014 	ldr	r2, [pc, #20]	; 9530 <fast_interrupt_vector+0x40>
    9518:	e3a03002 	mov	r3, #2
    951c:	ebfffe42 	bl	8e2c <printk>
    9520:	ebffffd9 	bl	948c <clean_reboot>
    9524:	0000a170 	andeq	sl, r0, r0, ror r1
    9528:	0000a110 	andeq	sl, r0, r0, lsl r1
    952c:	0000a14c 	andeq	sl, r0, ip, asr #2
    9530:	0000a0f8 	strdeq	sl, [r0], -r8

00009534 <reset_vector>:
    9534:	e52de004 	push	{lr}		; (str lr, [sp, #-4]!)
    9538:	e24dd00c 	sub	sp, sp, #12
    953c:	e1a04000 	mov	r4, r0
    9540:	ebfffe54 	bl	8e98 <rpi_reset_putc>
    9544:	e59f301c 	ldr	r3, [pc, #28]	; 9568 <reset_vector+0x34>
    9548:	e58d3000 	str	r3, [sp]
    954c:	e58d4004 	str	r4, [sp, #4]
    9550:	e59f0014 	ldr	r0, [pc, #20]	; 956c <reset_vector+0x38>
    9554:	e59f1014 	ldr	r1, [pc, #20]	; 9570 <reset_vector+0x3c>
    9558:	e59f2014 	ldr	r2, [pc, #20]	; 9574 <reset_vector+0x40>
    955c:	e3a03002 	mov	r3, #2
    9560:	ebfffe31 	bl	8e2c <printk>
    9564:	ebffffc8 	bl	948c <clean_reboot>
    9568:	0000a1ac 	andeq	sl, r0, ip, lsr #3
    956c:	0000a110 	andeq	sl, r0, r0, lsl r1
    9570:	0000a188 	andeq	sl, r0, r8, lsl #3
    9574:	0000a178 	andeq	sl, r0, r8, ror r1

00009578 <undefined_instruction_vector>:
    9578:	e52de004 	push	{lr}		; (str lr, [sp, #-4]!)
    957c:	e24dd00c 	sub	sp, sp, #12
    9580:	e1a04000 	mov	r4, r0
    9584:	ebfffe43 	bl	8e98 <rpi_reset_putc>
    9588:	e59f301c 	ldr	r3, [pc, #28]	; 95ac <undefined_instruction_vector+0x34>
    958c:	e58d3000 	str	r3, [sp]
    9590:	e58d4004 	str	r4, [sp, #4]
    9594:	e59f0014 	ldr	r0, [pc, #20]	; 95b0 <undefined_instruction_vector+0x38>
    9598:	e59f1014 	ldr	r1, [pc, #20]	; 95b4 <undefined_instruction_vector+0x3c>
    959c:	e59f2014 	ldr	r2, [pc, #20]	; 95b8 <undefined_instruction_vector+0x40>
    95a0:	e3a03002 	mov	r3, #2
    95a4:	ebfffe20 	bl	8e2c <printk>
    95a8:	ebffffb7 	bl	948c <clean_reboot>
    95ac:	0000a200 	andeq	sl, r0, r0, lsl #4
    95b0:	0000a110 	andeq	sl, r0, r0, lsl r1
    95b4:	0000a1d4 	ldrdeq	sl, [r0], -r4
    95b8:	0000a1b4 			; <UNDEFINED> instruction: 0x0000a1b4

000095bc <cstart_handler>:
    95bc:	e12fff1e 	bx	lr

000095c0 <reboot_handler>:
    95c0:	e12fff1e 	bx	lr

000095c4 <int_init>:
    95c4:	e92d4008 	push	{r3, lr}
    95c8:	eb00005b 	bl	973c <dev_barrier>
    95cc:	e59f004c 	ldr	r0, [pc, #76]	; 9620 <int_init+0x5c>
    95d0:	e3e01000 	mvn	r1, #0
    95d4:	eb000060 	bl	975c <PUT32>
    95d8:	e59f0044 	ldr	r0, [pc, #68]	; 9624 <int_init+0x60>
    95dc:	e3e01000 	mvn	r1, #0
    95e0:	eb00005d 	bl	975c <PUT32>
    95e4:	eb000054 	bl	973c <dev_barrier>
    95e8:	e59f3038 	ldr	r3, [pc, #56]	; 9628 <int_init+0x64>
    95ec:	e59f0038 	ldr	r0, [pc, #56]	; 962c <int_init+0x68>
    95f0:	e0630000 	rsb	r0, r3, r0
    95f4:	e1a00140 	asr	r0, r0, #2
    95f8:	e3a03000 	mov	r3, #0
    95fc:	e59fc024 	ldr	ip, [pc, #36]	; 9628 <int_init+0x64>
    9600:	ea000003 	b	9614 <int_init+0x50>
    9604:	e1a02103 	lsl	r2, r3, #2
    9608:	e79c1103 	ldr	r1, [ip, r3, lsl #2]
    960c:	e5821000 	str	r1, [r2]
    9610:	e2833001 	add	r3, r3, #1
    9614:	e1530000 	cmp	r3, r0
    9618:	3afffff9 	bcc	9604 <int_init+0x40>
    961c:	e8bd8008 	pop	{r3, pc}
    9620:	2000b21c 	andcs	fp, r0, ip, lsl r2
    9624:	2000b220 	andcs	fp, r0, r0, lsr #4
    9628:	000085ec 	andeq	r8, r0, ip, ror #11
    962c:	0000862c 	andeq	r8, r0, ip, lsr #12

00009630 <at_user_level>:
    9630:	e10f0000 	mrs	r0, CPSR
    9634:	e200001f 	and	r0, r0, #31
    9638:	e3500010 	cmp	r0, #16
    963c:	13a00000 	movne	r0, #0
    9640:	03a00001 	moveq	r0, #1
    9644:	e12fff1e 	bx	lr

00009648 <set_user_level>:
    9648:	e10f3000 	mrs	r3, CPSR
    964c:	e3c3301f 	bic	r3, r3, #31
    9650:	e3833010 	orr	r3, r3, #16
    9654:	e129f003 	msr	CPSR_fc, r3
    9658:	e12fff1e 	bx	lr

0000965c <rpi_reboot>:
    965c:	e92d4008 	push	{r3, lr}
    9660:	ebfffff2 	bl	9630 <at_user_level>
    9664:	e3500000 	cmp	r0, #0
    9668:	0a000000 	beq	9670 <rpi_reboot+0x14>
    966c:	ebfffff5 	bl	9648 <set_user_level>
    9670:	e3a0001e 	mov	r0, #30
    9674:	eb000026 	bl	9714 <delay_ms>
    9678:	e59f0014 	ldr	r0, [pc, #20]	; 9694 <rpi_reboot+0x38>
    967c:	e59f1014 	ldr	r1, [pc, #20]	; 9698 <rpi_reboot+0x3c>
    9680:	eb000035 	bl	975c <PUT32>
    9684:	e59f0010 	ldr	r0, [pc, #16]	; 969c <rpi_reboot+0x40>
    9688:	e59f1010 	ldr	r1, [pc, #16]	; 96a0 <rpi_reboot+0x44>
    968c:	eb000032 	bl	975c <PUT32>
    9690:	eafffffe 	b	9690 <rpi_reboot+0x34>
    9694:	20100024 	andscs	r0, r0, r4, lsr #32
    9698:	5a000001 	bpl	96a4 <delay_cycles>
    969c:	2010001c 	andscs	r0, r0, ip, lsl r0
    96a0:	5a000020 	bpl	9728 <delay_sec>

000096a4 <delay_cycles>:
    96a4:	ea000001 	b	96b0 <delay_cycles+0xc>
    96a8:	e2811000 	add	r1, r1, #0
    96ac:	e1a00003 	mov	r0, r3
    96b0:	e2403001 	sub	r3, r0, #1
    96b4:	e3500000 	cmp	r0, #0
    96b8:	1afffffa 	bne	96a8 <delay_cycles+0x4>
    96bc:	e12fff1e 	bx	lr

000096c0 <timer_get_usec_raw>:
    96c0:	e92d4008 	push	{r3, lr}
    96c4:	e59f0004 	ldr	r0, [pc, #4]	; 96d0 <timer_get_usec_raw+0x10>
    96c8:	eb00002f 	bl	978c <GET32>
    96cc:	e8bd8008 	pop	{r3, pc}
    96d0:	20003004 	andcs	r3, r0, r4

000096d4 <timer_get_usec>:
    96d4:	e92d4010 	push	{r4, lr}
    96d8:	eb000017 	bl	973c <dev_barrier>
    96dc:	ebfffff7 	bl	96c0 <timer_get_usec_raw>
    96e0:	e1a04000 	mov	r4, r0
    96e4:	eb000014 	bl	973c <dev_barrier>
    96e8:	e1a00004 	mov	r0, r4
    96ec:	e8bd8010 	pop	{r4, pc}

000096f0 <delay_us>:
    96f0:	e92d4038 	push	{r3, r4, r5, lr}
    96f4:	e1a05000 	mov	r5, r0
    96f8:	ebfffff5 	bl	96d4 <timer_get_usec>
    96fc:	e1a04000 	mov	r4, r0
    9700:	ebfffff3 	bl	96d4 <timer_get_usec>
    9704:	e0640000 	rsb	r0, r4, r0
    9708:	e1500005 	cmp	r0, r5
    970c:	3afffffb 	bcc	9700 <delay_us+0x10>
    9710:	e8bd8038 	pop	{r3, r4, r5, pc}

00009714 <delay_ms>:
    9714:	e92d4008 	push	{r3, lr}
    9718:	e3a03ffa 	mov	r3, #1000	; 0x3e8
    971c:	e0000093 	mul	r0, r3, r0
    9720:	ebfffff2 	bl	96f0 <delay_us>
    9724:	e8bd8008 	pop	{r3, pc}

00009728 <delay_sec>:
    9728:	e92d4008 	push	{r3, lr}
    972c:	e3a03ffa 	mov	r3, #1000	; 0x3e8
    9730:	e0000093 	mul	r0, r3, r0
    9734:	ebfffff6 	bl	9714 <delay_ms>
    9738:	e8bd8008 	pop	{r3, pc}

0000973c <dev_barrier>:
    973c:	ea000002 	b	974c <dsb>

00009740 <dmb>:
    9740:	e3a00000 	mov	r0, #0
    9744:	ee070fba 	mcr	15, 0, r0, cr7, cr10, {5}
    9748:	e12fff1e 	bx	lr

0000974c <dsb>:
    974c:	ee070f9a 	mcr	15, 0, r0, cr7, cr10, {4}
    9750:	e12fff1e 	bx	lr

00009754 <put32>:
    9754:	e5801000 	str	r1, [r0]
    9758:	e12fff1e 	bx	lr

0000975c <PUT32>:
    975c:	e5801000 	str	r1, [r0]
    9760:	e12fff1e 	bx	lr

00009764 <put16>:
    9764:	e1c010b0 	strh	r1, [r0]
    9768:	e12fff1e 	bx	lr

0000976c <PUT16>:
    976c:	e1c010b0 	strh	r1, [r0]
    9770:	e12fff1e 	bx	lr

00009774 <put8>:
    9774:	e5c01000 	strb	r1, [r0]
    9778:	e12fff1e 	bx	lr

0000977c <PUT8>:
    977c:	e5c01000 	strb	r1, [r0]
    9780:	e12fff1e 	bx	lr

00009784 <get32>:
    9784:	e5900000 	ldr	r0, [r0]
    9788:	e12fff1e 	bx	lr

0000978c <GET32>:
    978c:	e5900000 	ldr	r0, [r0]
    9790:	e12fff1e 	bx	lr

00009794 <GETPC>:
    9794:	e1a0000e 	mov	r0, lr
    9798:	e12fff1e 	bx	lr

0000979c <dummy>:
    979c:	e12fff1e 	bx	lr

000097a0 <or_in32>:
    97a0:	e92d4070 	push	{r4, r5, r6, lr}
    97a4:	e1a04000 	mov	r4, r0
    97a8:	e1a05001 	mov	r5, r1
    97ac:	ebfffff4 	bl	9784 <get32>
    97b0:	e1801005 	orr	r1, r0, r5
    97b4:	e1a00004 	mov	r0, r4
    97b8:	ebffffe5 	bl	9754 <put32>
    97bc:	e8bd8070 	pop	{r4, r5, r6, pc}

000097c0 <uart_init>:
    97c0:	e92d4010 	push	{r4, lr}
    97c4:	e3a01002 	mov	r1, #2
    97c8:	e3a0000e 	mov	r0, #14
    97cc:	eb000051 	bl	9918 <gpio_set_function>
    97d0:	e3a01002 	mov	r1, #2
    97d4:	e3a0000f 	mov	r0, #15
    97d8:	eb00004e 	bl	9918 <gpio_set_function>
    97dc:	ebffffd6 	bl	973c <dev_barrier>
    97e0:	e3a01001 	mov	r1, #1
    97e4:	e59f0064 	ldr	r0, [pc, #100]	; 9850 <uart_init+0x90>
    97e8:	ebffffec 	bl	97a0 <or_in32>
    97ec:	ebffffd2 	bl	973c <dev_barrier>
    97f0:	e59f405c 	ldr	r4, [pc, #92]	; 9854 <uart_init+0x94>
    97f4:	e3a01000 	mov	r1, #0
    97f8:	e1a00004 	mov	r0, r4
    97fc:	ebffffd4 	bl	9754 <put32>
    9800:	e3a01000 	mov	r1, #0
    9804:	e59f004c 	ldr	r0, [pc, #76]	; 9858 <uart_init+0x98>
    9808:	ebffffd1 	bl	9754 <put32>
    980c:	e3a01003 	mov	r1, #3
    9810:	e59f0044 	ldr	r0, [pc, #68]	; 985c <uart_init+0x9c>
    9814:	ebffffce 	bl	9754 <put32>
    9818:	e3a01000 	mov	r1, #0
    981c:	e59f003c 	ldr	r0, [pc, #60]	; 9860 <uart_init+0xa0>
    9820:	ebffffcb 	bl	9754 <put32>
    9824:	e3a010c7 	mov	r1, #199	; 0xc7
    9828:	e59f0034 	ldr	r0, [pc, #52]	; 9864 <uart_init+0xa4>
    982c:	ebffffc8 	bl	9754 <put32>
    9830:	e59f1030 	ldr	r1, [pc, #48]	; 9868 <uart_init+0xa8>
    9834:	e59f0030 	ldr	r0, [pc, #48]	; 986c <uart_init+0xac>
    9838:	ebffffc5 	bl	9754 <put32>
    983c:	e3a01003 	mov	r1, #3
    9840:	e1a00004 	mov	r0, r4
    9844:	ebffffc2 	bl	9754 <put32>
    9848:	ebffffbb 	bl	973c <dev_barrier>
    984c:	e8bd8010 	pop	{r4, pc}
    9850:	20215004 	eorcs	r5, r1, r4
    9854:	20215060 	eorcs	r5, r1, r0, rrx
    9858:	20215044 	eorcs	r5, r1, r4, asr #32
    985c:	2021504c 	eorcs	r5, r1, ip, asr #32
    9860:	20215050 	eorcs	r5, r1, r0, asr r0
    9864:	20215048 	eorcs	r5, r1, r8, asr #32
    9868:	0000010e 	andeq	r0, r0, lr, lsl #2
    986c:	20215068 	eorcs	r5, r1, r8, rrx

00009870 <uart_can_getc>:
    9870:	e92d4010 	push	{r4, lr}
    9874:	e59f0008 	ldr	r0, [pc, #8]	; 9884 <uart_can_getc+0x14>
    9878:	ebffffc1 	bl	9784 <get32>
    987c:	e2000001 	and	r0, r0, #1
    9880:	e8bd8010 	pop	{r4, pc}
    9884:	20215064 	eorcs	r5, r1, r4, rrx

00009888 <uart_can_putc>:
    9888:	e92d4010 	push	{r4, lr}
    988c:	e59f0010 	ldr	r0, [pc, #16]	; 98a4 <uart_can_putc+0x1c>
    9890:	ebffffbb 	bl	9784 <get32>
    9894:	e3100002 	tst	r0, #2
    9898:	13a00001 	movne	r0, #1
    989c:	03a00000 	moveq	r0, #0
    98a0:	e8bd8010 	pop	{r4, pc}
    98a4:	20215064 	eorcs	r5, r1, r4, rrx

000098a8 <uart_getc>:
    98a8:	e92d4010 	push	{r4, lr}
    98ac:	ebffffa2 	bl	973c <dev_barrier>
    98b0:	ebffffee 	bl	9870 <uart_can_getc>
    98b4:	e3500000 	cmp	r0, #0
    98b8:	0afffffc 	beq	98b0 <uart_getc+0x8>
    98bc:	e59f0010 	ldr	r0, [pc, #16]	; 98d4 <uart_getc+0x2c>
    98c0:	ebffffaf 	bl	9784 <get32>
    98c4:	e6ef4070 	uxtb	r4, r0
    98c8:	ebffff9b 	bl	973c <dev_barrier>
    98cc:	e1a00004 	mov	r0, r4
    98d0:	e8bd8010 	pop	{r4, pc}
    98d4:	20215040 	eorcs	r5, r1, r0, asr #32

000098d8 <uart_putc>:
    98d8:	e92d4010 	push	{r4, lr}
    98dc:	e1a04000 	mov	r4, r0
    98e0:	ebffff95 	bl	973c <dev_barrier>
    98e4:	ebffffe7 	bl	9888 <uart_can_putc>
    98e8:	e3500000 	cmp	r0, #0
    98ec:	0afffffc 	beq	98e4 <uart_putc+0xc>
    98f0:	e6ef1074 	uxtb	r1, r4
    98f4:	e59f0008 	ldr	r0, [pc, #8]	; 9904 <uart_putc+0x2c>
    98f8:	ebffff95 	bl	9754 <put32>
    98fc:	ebffff8e 	bl	973c <dev_barrier>
    9900:	e8bd8010 	pop	{r4, pc}
    9904:	20215040 	eorcs	r5, r1, r0, asr #32

00009908 <uart_has_data>:
    9908:	e92d4010 	push	{r4, lr}
    990c:	ebffff8a 	bl	973c <dev_barrier>
    9910:	ebffffd6 	bl	9870 <uart_can_getc>
    9914:	e8bd8010 	pop	{r4, pc}

00009918 <gpio_set_function>:
    9918:	e350001f 	cmp	r0, #31
    991c:	812fff1e 	bxhi	lr
    9920:	e3d13007 	bics	r3, r1, #7
    9924:	112fff1e 	bxne	lr
    9928:	e92d4070 	push	{r4, r5, r6, lr}
    992c:	e1a05001 	mov	r5, r1
    9930:	e59f3044 	ldr	r3, [pc, #68]	; 997c <gpio_set_function+0x64>
    9934:	e0832093 	umull	r2, r3, r3, r0
    9938:	e1a031a3 	lsr	r3, r3, #3
    993c:	e1a06003 	mov	r6, r3
    9940:	e0833103 	add	r3, r3, r3, lsl #2
    9944:	e1a02083 	lsl	r2, r3, #1
    9948:	e0403002 	sub	r3, r0, r2
    994c:	e0834083 	add	r4, r3, r3, lsl #1
    9950:	e2866302 	add	r6, r6, #134217728	; 0x8000000
    9954:	e2866702 	add	r6, r6, #524288	; 0x80000
    9958:	e1a06106 	lsl	r6, r6, #2
    995c:	e1a00006 	mov	r0, r6
    9960:	ebffff89 	bl	978c <GET32>
    9964:	e3a01007 	mov	r1, #7
    9968:	e1c01411 	bic	r1, r0, r1, lsl r4
    996c:	e1811415 	orr	r1, r1, r5, lsl r4
    9970:	e1a00006 	mov	r0, r6
    9974:	ebffff78 	bl	975c <PUT32>
    9978:	e8bd8070 	pop	{r4, r5, r6, pc}
    997c:	cccccccd 	stclgt	12, cr12, [ip], {205}	; 0xcd

00009980 <gpio_set_output>:
    9980:	e92d4010 	push	{r4, lr}
    9984:	e3a01001 	mov	r1, #1
    9988:	ebffffe2 	bl	9918 <gpio_set_function>
    998c:	e8bd8010 	pop	{r4, pc}

00009990 <gpio_set_on>:
    9990:	e350001f 	cmp	r0, #31
    9994:	812fff1e 	bxhi	lr
    9998:	e92d4010 	push	{r4, lr}
    999c:	e3a01001 	mov	r1, #1
    99a0:	e1a01011 	lsl	r1, r1, r0
    99a4:	e59f0004 	ldr	r0, [pc, #4]	; 99b0 <gpio_set_on+0x20>
    99a8:	ebffff6b 	bl	975c <PUT32>
    99ac:	e8bd8010 	pop	{r4, pc}
    99b0:	2020001c 	eorcs	r0, r0, ip, lsl r0

000099b4 <gpio_set_off>:
    99b4:	e350001f 	cmp	r0, #31
    99b8:	812fff1e 	bxhi	lr
    99bc:	e92d4010 	push	{r4, lr}
    99c0:	e3a01001 	mov	r1, #1
    99c4:	e1a01011 	lsl	r1, r1, r0
    99c8:	e59f0004 	ldr	r0, [pc, #4]	; 99d4 <gpio_set_off+0x20>
    99cc:	ebffff62 	bl	975c <PUT32>
    99d0:	e8bd8010 	pop	{r4, pc}
    99d4:	20200028 	eorcs	r0, r0, r8, lsr #32

000099d8 <gpio_set_input>:
    99d8:	e92d4010 	push	{r4, lr}
    99dc:	e3a01000 	mov	r1, #0
    99e0:	ebffffcc 	bl	9918 <gpio_set_function>
    99e4:	e8bd8010 	pop	{r4, pc}

000099e8 <gpio_write>:
    99e8:	e92d4010 	push	{r4, lr}
    99ec:	e3510000 	cmp	r1, #0
    99f0:	1a000001 	bne	99fc <gpio_write+0x14>
    99f4:	ebffffee 	bl	99b4 <gpio_set_off>
    99f8:	e8bd8010 	pop	{r4, pc}
    99fc:	ebffffe3 	bl	9990 <gpio_set_on>
    9a00:	e8bd8010 	pop	{r4, pc}

00009a04 <gpio_read>:
    9a04:	e350001f 	cmp	r0, #31
    9a08:	8a000007 	bhi	9a2c <gpio_read+0x28>
    9a0c:	e92d4010 	push	{r4, lr}
    9a10:	e200401f 	and	r4, r0, #31
    9a14:	e59f3018 	ldr	r3, [pc, #24]	; 9a34 <gpio_read+0x30>
    9a18:	e08302a0 	add	r0, r3, r0, lsr #5
    9a1c:	ebffff5a 	bl	978c <GET32>
    9a20:	e1a00430 	lsr	r0, r0, r4
    9a24:	e2000001 	and	r0, r0, #1
    9a28:	e8bd8010 	pop	{r4, pc}
    9a2c:	e3e00000 	mvn	r0, #0
    9a30:	e12fff1e 	bx	lr
    9a34:	20200034 	eorcs	r0, r0, r4, lsr r0

Disassembly of section .data:

00009a38 <__data_start__>:
    9a38:	00008e84 	andeq	r8, r0, r4, lsl #29

00009a3c <putk>:
    9a3c:	00008ec0 	andeq	r8, r0, r0, asr #29

Disassembly of section .rodata:

00009a40 <C.0.4417-0xdc>:
    9a40:	494e4150 	stmdbmi	lr, {r4, r6, r8, lr}^
    9a44:	73253a43 	teqvc	r5, #274432	; 0x43000
    9a48:	3a73253a 	bcc	1cd2f38 <__bss_end__+0x1cc8900>
    9a4c:	693a6425 	ldmdbvs	sl!, {r0, r2, r5, sl, sp, lr}
    9a50:	736f706d 	cmnvc	pc, #109	; 0x6d
    9a54:	6c626973 	stclvs	9, cr6, [r2], #-460	; 0xfffffe34
    9a58:	000a0a65 	andeq	r0, sl, r5, ror #20
    9a5c:	74736574 	ldrbtvc	r6, [r3], #-1396	; 0x574
    9a60:	302e3273 	eorcc	r3, lr, r3, ror r2
    9a64:	2d36312f 	ldfcss	f3, [r6, #-188]!	; 0xffffff44
    9a68:	74726170 	ldrbtvc	r6, [r2], #-368	; 0x170
    9a6c:	65742d32 	ldrbvs	r2, [r4, #-3378]!	; 0xd32
    9a70:	2e367473 	mrccs	4, 1, r7, cr6, cr3, {3}
    9a74:	00000063 	andeq	r0, r0, r3, rrx
    9a78:	494e4150 	stmdbmi	lr, {r4, r6, r8, lr}^
    9a7c:	73253a43 	teqvc	r5, #274432	; 0x43000
    9a80:	3a73253a 	bcc	1cd2f70 <__bss_end__+0x1cc8938>
    9a84:	253a6425 	ldrcs	r6, [sl, #-1061]!	; 0x425
    9a88:	00000a73 	andeq	r0, r0, r3, ror sl
    9a8c:	69702f2e 	ldmdbvs	r0!, {r1, r2, r3, r5, r8, r9, sl, fp, sp}^
    9a90:	7379732d 	cmnvc	r9, #-1275068416	; 0xb4000000
    9a94:	636f6c2d 	cmnvs	pc, #11520	; 0x2d00
    9a98:	00682e6b 	rsbeq	r2, r8, fp, ror #28
    9a9c:	3d206c2a 	stccc	12, cr6, [r0, #-168]!	; 0xffffff58
    9aa0:	0031203d 	eorseq	r2, r1, sp, lsr r0
    9aa4:	494e4150 	stmdbmi	lr, {r4, r6, r8, lr}^
    9aa8:	73253a43 	teqvc	r5, #274432	; 0x43000
    9aac:	3a73253a 	bcc	1cd2f9c <__bss_end__+0x1cc8964>
    9ab0:	633a6425 	teqvs	sl, #620756992	; 0x25000000
    9ab4:	6b636568 	blvs	18e305c <__bss_end__+0x18d8a24>
    9ab8:	6f687320 	svcvs	0x00687320
    9abc:	20646c75 	rsbcs	r6, r4, r5, ror ip
    9ac0:	20746f6e 	rsbscs	r6, r4, lr, ror #30
    9ac4:	65766168 	ldrbvs	r6, [r6, #-360]!	; 0x168
    9ac8:	69616620 	stmdbvs	r1!, {r5, r9, sl, sp, lr}^
    9acc:	2164656c 	cmncs	r4, ip, ror #10
    9ad0:	00000a0a 	andeq	r0, r0, sl, lsl #20
    9ad4:	43435553 	movtmi	r5, #13651	; 0x3553
    9ad8:	3a535345 	bcc	14de7f4 <__bss_end__+0x14d41bc>
    9adc:	00000000 	andeq	r0, r0, r0
    9ae0:	63656863 	cmnvs	r5, #6488064	; 0x630000
    9ae4:	7573206b 	ldrbvc	r2, [r3, #-107]!	; 0x6b
    9ae8:	65656363 	strbvs	r6, [r5, #-867]!	; 0x363
    9aec:	20646564 	rsbcs	r6, r4, r4, ror #10
    9af0:	69207361 	stmdbvs	r0!, {r0, r5, r6, r8, r9, ip, sp, lr}
    9af4:	68732074 	ldmdavs	r3!, {r2, r4, r5, r6, sp}^
    9af8:	646c756f 	strbtvs	r7, [ip], #-1391	; 0x56f
    9afc:	76616820 	strbtvc	r6, [r1], -r0, lsr #16
    9b00:	6e202c65 	cdpvs	12, 2, cr2, cr0, cr5, {3}
    9b04:	61697274 	smcvs	38692	; 0x9724
    9b08:	253d736c 	ldrcs	r7, [sp, #-876]!	; 0x36c
    9b0c:	6e202c64 	cdpvs	12, 2, cr2, cr0, cr4, {3}
    9b10:	6f727265 	svcvs	0x00727265
    9b14:	253d7372 	ldrcs	r7, [sp, #-882]!	; 0x372
    9b18:	00000a64 	andeq	r0, r0, r4, ror #20

00009b1c <C.0.4417>:
    9b1c:	00000000 	andeq	r0, r0, r0
    9b20:	00008020 	andeq	r8, r0, r0, lsr #32
    9b24:	000080d0 	ldrdeq	r8, [r0], -r0
    9b28:	00008158 	andeq	r8, r0, r8, asr r1
    9b2c:	00008178 	andeq	r8, r0, r8, ror r1
	...

00009b54 <__FUNCTION__.4398>:
    9b54:	5f737973 	svcpl	0x00737973
    9b58:	6f6c6e75 	svcvs	0x006c6e75
    9b5c:	00006b63 	andeq	r6, r0, r3, ror #22

00009b60 <__FUNCTION__.4404>:
    9b60:	5f746e63 	svcpl	0x00746e63
    9b64:	00000041 	andeq	r0, r0, r1, asr #32

00009b68 <__FUNCTION__.4423>:
    9b68:	6d746f6e 	ldclvs	15, cr6, [r4, #-440]!	; 0xfffffe48
    9b6c:	006e6961 	rsbeq	r6, lr, r1, ror #18
    9b70:	34317063 	ldrtcc	r7, [r1], #-99	; 0x63
    9b74:	6265642d 	rsbvs	r6, r5, #754974720	; 0x2d000000
    9b78:	632e6775 	teqvs	lr, #30670848	; 0x1d40000
    9b7c:	00000000 	andeq	r0, r0, r0
    9b80:	30726377 	rsbscc	r6, r2, r7, ror r3
    9b84:	6765725f 			; <UNDEFINED> instruction: 0x6765725f
    9b88:	203d3d20 	eorscs	r3, sp, r0, lsr #26
    9b8c:	30726377 	rsbscc	r6, r2, r7, ror r3
    9b90:	7465675f 	strbtvc	r6, [r5], #-1887	; 0x75f
    9b94:	00002928 	andeq	r2, r0, r8, lsr #18
    9b98:	494e4150 	stmdbmi	lr, {r4, r6, r8, lr}^
    9b9c:	73253a43 	teqvc	r5, #274432	; 0x43000
    9ba0:	3a73253a 	bcc	1cd3090 <__bss_end__+0x1cc8a58>
    9ba4:	693a6425 	ldmdbvs	sl!, {r0, r2, r5, sl, sp, lr}
    9ba8:	736f706d 	cmnvc	pc, #109	; 0x6d
    9bac:	6c626973 	stclvs	9, cr6, [r2], #-460	; 0xfffffe34
    9bb0:	73203a65 	teqvc	r0, #413696	; 0x65000
    9bb4:	6c756f68 	ldclvs	15, cr6, [r5], #-416	; 0xfffffe60
    9bb8:	6e6f2064 	cdpvs	0, 6, cr2, cr15, cr4, {3}
    9bbc:	6720796c 	strvs	r7, [r0, -ip, ror #18]!
    9bc0:	64207465 	strtvs	r7, [r0], #-1125	; 0x465
    9bc4:	66617461 	strbtvs	r7, [r1], -r1, ror #8
    9bc8:	746c7561 	strbtvc	r7, [ip], #-1377	; 0x561
    9bcc:	000a0a73 	andeq	r0, sl, r3, ror sl
    9bd0:	34317063 	ldrtcc	r7, [r1], #-99	; 0x63
    9bd4:	6265642d 	rsbvs	r6, r5, #754974720	; 0x2d000000
    9bd8:	682e6775 	stmdavs	lr!, {r0, r2, r4, r5, r6, r8, r9, sl, sp, lr}
    9bdc:	00000000 	andeq	r0, r0, r0
    9be0:	72616677 	rsbvc	r6, r1, #124780544	; 0x7700000
    9be4:	7465675f 	strbtvc	r6, [r5], #-1887	; 0x75f
    9be8:	342d2928 	strtcc	r2, [sp], #-2344	; 0x928
    9bec:	203d3d20 	eorscs	r3, sp, r0, lsr #26
    9bf0:	00006370 	andeq	r6, r0, r0, ror r3
    9bf4:	63746177 	cmnvs	r4, #-1073741795	; 0xc000001d
    9bf8:	5f747068 	svcpl	0x00747068
    9bfc:	646e6168 	strbtvs	r6, [lr], #-360	; 0x168
    9c00:	3072656c 	rsbscc	r6, r2, ip, ror #10
    9c04:	00000000 	andeq	r0, r0, r0
    9c08:	494e4150 	stmdbmi	lr, {r4, r6, r8, lr}^
    9c0c:	73253a43 	teqvc	r5, #274432	; 0x43000
    9c10:	3a73253a 	bcc	1cd3100 <__bss_end__+0x1cc8ac8>
    9c14:	693a6425 	ldmdbvs	sl!, {r0, r2, r5, sl, sp, lr}
    9c18:	736f706d 	cmnvc	pc, #109	; 0x6d
    9c1c:	6c626973 	stclvs	9, cr6, [r2], #-460	; 0xfffffe34
    9c20:	73203a65 	teqvc	r0, #413696	; 0x65000
    9c24:	6c756f68 	ldclvs	15, cr6, [r5], #-416	; 0xfffffe60
    9c28:	65672064 	strbvs	r2, [r7, #-100]!	; 0x64
    9c2c:	6f6e2074 	svcvs	0x006e2074
    9c30:	68746f20 	ldmdavs	r4!, {r5, r8, r9, sl, fp, sp, lr}^
    9c34:	66207265 	strtvs	r7, [r0], -r5, ror #4
    9c38:	746c7561 	strbtvc	r7, [ip], #-1377	; 0x561
    9c3c:	000a0a73 	andeq	r0, sl, r3, ror sl
    9c40:	706b7262 	rsbvc	r7, fp, r2, ror #4
    9c44:	61685f74 	smcvs	34292	; 0x85f4
    9c48:	656c646e 	strbvs	r6, [ip, #-1134]!	; 0x46e
    9c4c:	00003072 	andeq	r3, r0, r2, ror r0
    9c50:	494e4150 	stmdbmi	lr, {r4, r6, r8, lr}^
    9c54:	73253a43 	teqvc	r5, #274432	; 0x43000
    9c58:	3a73253a 	bcc	1cd3148 <__bss_end__+0x1cc8b10>
    9c5c:	723a6425 	eorsvc	r6, sl, #620756992	; 0x25000000
    9c60:	72757465 	rsbsvc	r7, r5, #1694498816	; 0x65000000
    9c64:	2064656e 	rsbcs	r6, r4, lr, ror #10
    9c68:	20646e61 	rsbcs	r6, r4, r1, ror #28
    9c6c:	756f6873 	strbvc	r6, [pc, #-2163]!	; 9401 <va_printk+0x269>
    9c70:	6e20646c 	cdpvs	4, 2, cr6, cr0, cr12, {3}
    9c74:	6820746f 	stmdavs	r0!, {r0, r1, r2, r3, r5, r6, sl, ip, sp, lr}
    9c78:	21657661 	cmncs	r5, r1, ror #12
    9c7c:	00000a0a 	andeq	r0, r0, sl, lsl #20
    9c80:	656c6c69 	strbvs	r6, [ip, #-3177]!	; 0xc69
    9c84:	206c6167 	rsbcs	r6, ip, r7, ror #2
    9c88:	74737973 	ldrbtvc	r7, [r3], #-2419	; 0x973
    9c8c:	63206d65 	teqvs	r0, #6464	; 0x1940
    9c90:	206c6c61 	rsbcs	r6, ip, r1, ror #24
    9c94:	000a6425 	andeq	r6, sl, r5, lsr #8

00009c98 <__FUNCTION__.4393>:
    9c98:	63746177 	cmnvs	r4, #-1073741795	; 0xc000001d
    9c9c:	5f747068 	svcpl	0x00747068
    9ca0:	30746573 	rsbscc	r6, r4, r3, ror r5
    9ca4:	00000000 	andeq	r0, r0, r0

00009ca8 <__FUNCTION__.4399>:
    9ca8:	61746164 	cmnvs	r4, r4, ror #2
    9cac:	6f62615f 	svcvs	0x0062615f
    9cb0:	765f7472 			; <UNDEFINED> instruction: 0x765f7472
    9cb4:	6f746365 	svcvs	0x00746365
    9cb8:	00000072 	andeq	r0, r0, r2, ror r0

00009cbc <__FUNCTION__.4306>:
    9cbc:	5f736177 	svcpl	0x00736177
    9cc0:	75626564 	strbvc	r6, [r2, #-1380]!	; 0x564
    9cc4:	61645f67 	cmnvs	r4, r7, ror #30
    9cc8:	61666174 	smcvs	26132	; 0x6614
    9ccc:	00746c75 	rsbseq	r6, r4, r5, ror ip

00009cd0 <__FUNCTION__.4443>:
    9cd0:	66657270 			; <UNDEFINED> instruction: 0x66657270
    9cd4:	68637465 	stmdavs	r3!, {r0, r2, r5, r6, sl, ip, sp, lr}^
    9cd8:	6f62615f 	svcvs	0x0062615f
    9cdc:	765f7472 			; <UNDEFINED> instruction: 0x765f7472
    9ce0:	6f746365 	svcvs	0x00746365
    9ce4:	00000072 	andeq	r0, r0, r2, ror r0

00009ce8 <__FUNCTION__.4451>:
    9ce8:	5f6b7262 	svcpl	0x006b7262
    9cec:	725f6f6e 	subsvc	r6, pc, #440	; 0x1b8
    9cf0:	655f7465 	ldrbvs	r7, [pc, #-1125]	; 9893 <uart_can_putc+0xb>
    9cf4:	726f7272 	rsbvc	r7, pc, #536870919	; 0x20000007
    9cf8:	00000000 	andeq	r0, r0, r0
    9cfc:	253a7325 	ldrcs	r7, [sl, #-805]!	; 0x325
    9d00:	64253a73 	strtvs	r3, [r5], #-2675	; 0xa73
    9d04:	6572703a 	ldrbvs	r7, [r2, #-58]!	; 0x3a
    9d08:	63746566 	cmnvs	r4, #427819008	; 0x19800000
    9d0c:	62612068 	rsbvs	r2, r1, #104	; 0x68
    9d10:	2074726f 	rsbscs	r7, r4, pc, ror #4
    9d14:	25207461 	strcs	r7, [r0, #-1121]!	; 0x461
    9d18:	00000a70 	andeq	r0, r0, r0, ror sl
    9d1c:	63656863 	cmnvs	r5, #6488064	; 0x630000
    9d20:	6e692d6b 	cdpvs	13, 6, cr2, cr9, cr11, {3}
    9d24:	6c726574 	cfldr64vs	mvdx6, [r2], #-464	; 0xfffffe30
    9d28:	65766165 	ldrbvs	r6, [r6, #-357]!	; 0x165
    9d2c:	0000632e 	andeq	r6, r0, lr, lsr #6
    9d30:	756f6261 	strbvc	r6, [pc, #-609]!	; 9ad7 <__data_end__+0x97>
    9d34:	6f742074 	svcvs	0x00742074
    9d38:	69777320 	ldmdbvs	r7!, {r5, r8, r9, ip, sp, lr}^
    9d3c:	20686374 	rsbcs	r6, r8, r4, ror r3
    9d40:	6d6f7266 	sfmvs	f7, 2, [pc, #-408]!	; 9bb0 <__FUNCTION__.4423+0x48>
    9d44:	20702520 	rsbscs	r2, r0, r0, lsr #10
    9d48:	25206f74 	strcs	r6, [r0, #-3956]!	; 0xf74
    9d4c:	00000a70 	andeq	r0, r0, r0, ror sl
    9d50:	656e6f64 	strbvs	r6, [lr, #-3940]!	; 0xf64
    9d54:	6e757220 	cdpvs	2, 7, cr7, cr5, cr0, {1}
    9d58:	676e696e 	strbvs	r6, [lr, -lr, ror #18]!
    9d5c:	202c4220 	eorcs	r4, ip, r0, lsr #4
    9d60:	6e696f67 	cdpvs	15, 6, cr6, cr9, cr7, {3}
    9d64:	6f742067 	svcvs	0x00742067
    9d68:	74657220 	strbtvc	r7, [r5], #-544	; 0x220
    9d6c:	206e7275 	rsbcs	r7, lr, r5, ror r2
    9d70:	41206f74 	teqmi	r0, r4, ror pc
    9d74:	0000000a 	andeq	r0, r0, sl
    9d78:	693e2d63 	ldmdbvs	lr!, {r0, r1, r5, r6, r8, sl, fp, sp}
    9d7c:	5f74736e 	svcpl	0x0074736e
    9d80:	6e756f63 	cdpvs	15, 7, cr6, cr5, cr3, {3}
    9d84:	203c2074 	eorscs	r2, ip, r4, ror r0
    9d88:	733e2d63 	teqvc	lr, #6336	; 0x18c0
    9d8c:	63746977 	cmnvs	r4, #1949696	; 0x1dc000
    9d90:	6e6f5f68 	cdpvs	15, 6, cr5, cr15, cr8, {3}
    9d94:	736e695f 	cmnvc	lr, #1556480	; 0x17c000
    9d98:	006e5f74 	rsbeq	r5, lr, r4, ror pc
    9d9c:	253a7325 	ldrcs	r7, [sl, #-805]!	; 0x325
    9da0:	64253a73 	strtvs	r3, [r5], #-2675	; 0xa73
    9da4:	7465733a 	strbtvc	r7, [r5], #-826	; 0x33a
    9da8:	676e6974 			; <UNDEFINED> instruction: 0x676e6974
    9dac:	20707520 	rsbscs	r7, r0, r0, lsr #10
    9db0:	696d2061 	stmdbvs	sp!, {r0, r5, r6, sp}^
    9db4:	74616d73 	strbtvc	r6, [r1], #-3443	; 0xd73
    9db8:	6f206863 	svcvs	0x00206863
    9dbc:	7025206e 	eorvc	r2, r5, lr, rrx
    9dc0:	0000000a 	andeq	r0, r0, sl
    9dc4:	253a7325 	ldrcs	r7, [sl, #-805]!	; 0x325
    9dc8:	64253a73 	strtvs	r3, [r5], #-2675	; 0xa73
    9dcc:	6e6f643a 	mcrvs	4, 3, r6, cr15, cr10, {1}
    9dd0:	65732065 	ldrbvs	r2, [r3, #-101]!	; 0x65
    9dd4:	6e697474 	mcrvs	4, 3, r7, cr9, cr4, {3}
    9dd8:	70752067 	rsbsvc	r2, r5, r7, rrx
    9ddc:	6d206120 	stfvss	f6, [r0, #-128]!	; 0xffffff80
    9de0:	616d7369 	cmnvs	sp, r9, ror #6
    9de4:	20686374 	rsbcs	r6, r8, r4, ror r3
    9de8:	25206e6f 	strcs	r6, [r0, #-3695]!	; 0xe6f
    9dec:	00000a70 	andeq	r0, r0, r0, ror sl
    9df0:	52455355 	subpl	r5, r5, #1409286145	; 0x54000001
    9df4:	444f4d20 	strbmi	r4, [pc], #-3360	; 9dfc <__FUNCTION__.4451+0x114>
    9df8:	00000045 	andeq	r0, r0, r5, asr #32
    9dfc:	20514946 	subscs	r4, r1, r6, asr #18
    9e00:	45444f4d 	strbmi	r4, [r4, #-3917]	; 0xf4d
    9e04:	00000000 	andeq	r0, r0, r0
    9e08:	20515249 	subscs	r5, r1, r9, asr #4
    9e0c:	45444f4d 	strbmi	r4, [r4, #-3917]	; 0xf4d
    9e10:	00000000 	andeq	r0, r0, r0
    9e14:	45505553 	ldrbmi	r5, [r0, #-1363]	; 0x553
    9e18:	4f4d2052 	svcmi	0x004d2052
    9e1c:	00004544 	andeq	r4, r0, r4, asr #10
    9e20:	524f4241 	subpl	r4, pc, #268435460	; 0x10000004
    9e24:	4f4d2054 	svcmi	0x004d2054
    9e28:	00004544 	andeq	r4, r0, r4, asr #10
    9e2c:	45444e55 	strbmi	r4, [r4, #-3669]	; 0xe55
    9e30:	4f4d2046 	svcmi	0x004d2046
    9e34:	00004544 	andeq	r4, r0, r4, asr #10
    9e38:	20535953 	subscs	r5, r3, r3, asr r9
    9e3c:	45444f4d 	strbmi	r4, [r4, #-3917]	; 0xf4d
    9e40:	00000000 	andeq	r0, r0, r0
    9e44:	253a7325 	ldrcs	r7, [sl, #-805]!	; 0x325
    9e48:	64253a73 	strtvs	r3, [r5], #-2675	; 0xa73
    9e4c:	6972743a 	ldmdbvs	r2!, {r1, r3, r4, r5, sl, ip, sp, lr}^
    9e50:	253d6c61 	ldrcs	r6, [sp, #-3169]!	; 0xc61
    9e54:	61203a64 	teqvs	r0, r4, ror #20
    9e58:	74756f62 	ldrbtvc	r6, [r5], #-3938	; 0xf62
    9e5c:	206f7420 	rsbcs	r7, pc, r0, lsr #8
    9e60:	20746573 	rsbscs	r6, r4, r3, ror r5
    9e64:	6d73696d 	ldclvs	9, cr6, [r3, #-436]!	; 0xfffffe4c
    9e68:	68637461 	stmdavs	r3!, {r0, r5, r6, sl, ip, sp, lr}^
    9e6c:	6b726220 	blvs	1ca26f4 <__bss_end__+0x1c980bc>
    9e70:	66207470 			; <UNDEFINED> instruction: 0x66207470
    9e74:	4120726f 	teqmi	r0, pc, ror #4
    9e78:	0000000a 	andeq	r0, r0, sl
    9e7c:	4f525245 	svcmi	0x00525245
    9e80:	63203a52 	teqvs	r0, #335872	; 0x52000
    9e84:	6b636568 	blvs	18e342c <__bss_end__+0x18d8df4>
    9e88:	69616620 	stmdbvs	r1!, {r5, r9, sl, sp, lr}^
    9e8c:	2064656c 	rsbcs	r6, r4, ip, ror #10
    9e90:	6e656877 	mcrvs	8, 3, r6, cr5, cr7, {3}
    9e94:	69777320 	ldmdbvs	r7!, {r5, r8, r9, ip, sp, lr}^
    9e98:	65686374 	strbvs	r6, [r8, #-884]!	; 0x374
    9e9c:	6e6f2064 	cdpvs	0, 6, cr2, cr15, cr4, {3}
    9ea0:	64646120 	strbtvs	r6, [r4], #-288	; 0x120
    9ea4:	73736572 	cmnvc	r3, #478150656	; 0x1c800000
    9ea8:	2c702520 	cfldr64cs	mvdx2, [r0], #-128	; 0xffffff80
    9eac:	74666120 	strbtvc	r6, [r6], #-288	; 0x120
    9eb0:	25207265 	strcs	r7, [r0, #-613]!	; 0x265
    9eb4:	6e692064 	cdpvs	0, 6, cr2, cr9, cr4, {3}
    9eb8:	75727473 	ldrbvc	r7, [r2, #-1139]!	; 0x473
    9ebc:	6f697463 	svcvs	0x00697463
    9ec0:	000a736e 	andeq	r7, sl, lr, ror #6
    9ec4:	656e6f64 	strbvs	r6, [lr, #-3940]!	; 0xf64
    9ec8:	64202021 	strtvs	r2, [r0], #-33	; 0x21
    9ecc:	63206469 	teqvs	r0, #1761607680	; 0x69000000
    9ed0:	736e3e2d 	cmnvc	lr, #720	; 0x2d0
    9ed4:	63746977 	cmnvs	r4, #1949696	; 0x1dc000
    9ed8:	3d736568 	cfldr64cc	mvdx6, [r3, #-416]!	; 0xfffffe60
    9edc:	202c6425 	eorcs	r6, ip, r5, lsr #8
    9ee0:	6972746e 	ldmdbvs	r2!, {r1, r2, r3, r5, r6, sl, ip, sp, lr}^
    9ee4:	3d736c61 	ldclcc	12, cr6, [r3, #-388]!	; 0xfffffe7c
    9ee8:	202c6425 	eorcs	r6, ip, r5, lsr #8
    9eec:	7272656e 	rsbsvc	r6, r2, #461373440	; 0x1b800000
    9ef0:	3d73726f 	lfmcc	f7, 2, [r3, #-444]!	; 0xfffffe44
    9ef4:	000a6425 	andeq	r6, sl, r5, lsr #8
    9ef8:	72737063 	rsbsvc	r7, r3, #99	; 0x63
    9efc:	6974752d 	ldmdbvs	r4!, {r0, r2, r3, r5, r8, sl, ip, sp, lr}^
    9f00:	00682e6c 	rsbeq	r2, r8, ip, ror #28
    9f04:	65646f6d 	strbvs	r6, [r4, #-3949]!	; 0xf6d
    9f08:	67656c5f 			; <UNDEFINED> instruction: 0x67656c5f
    9f0c:	6d286c61 	stcvs	12, cr6, [r8, #-388]!	; 0xfffffe7c
    9f10:	2965646f 	stmdbcs	r5!, {r0, r1, r2, r3, r5, r6, sl, sp, lr}^
    9f14:	00000000 	andeq	r0, r0, r0
    9f18:	494e4150 	stmdbmi	lr, {r4, r6, r8, lr}^
    9f1c:	73253a43 	teqvc	r5, #274432	; 0x43000
    9f20:	3a73253a 	bcc	1cd3410 <__bss_end__+0x1cc8dd8>
    9f24:	753a6425 	ldrvc	r6, [sl, #-1061]!	; 0x425
    9f28:	6f6e6b6e 	svcvs	0x006e6b6e
    9f2c:	6d206e77 	stcvs	14, cr6, [r0, #-476]!	; 0xfffffe24
    9f30:	3a65646f 	bcc	19630f4 <__bss_end__+0x1958abc>
    9f34:	78253c20 	stmdavc	r5!, {r5, sl, fp, ip, sp}
    9f38:	000a0a3e 	andeq	r0, sl, lr, lsr sl
    9f3c:	65707865 	ldrbvs	r7, [r0, #-2149]!	; 0x865
    9f40:	64657463 	strbtvs	r7, [r5], #-1123	; 0x463
    9f44:	646f6d20 	strbtvs	r6, [pc], #-3360	; 9f4c <__FUNCTION__.4451+0x264>
    9f48:	203d2065 	eorscs	r2, sp, r5, rrx
    9f4c:	28207325 	stmdacs	r0!, {r0, r2, r5, r8, r9, ip, sp, lr}
    9f50:	0a297825 	beq	a67fec <__bss_end__+0xa5d9b4>
    9f54:	00000000 	andeq	r0, r0, r0
    9f58:	72727563 	rsbsvc	r7, r2, #415236096	; 0x18c00000
    9f5c:	20746e65 	rsbscs	r6, r4, r5, ror #28
    9f60:	65646f6d 	strbvs	r6, [r4, #-3949]!	; 0xf6d
    9f64:	25203d20 	strcs	r3, [r0, #-3360]!	; 0xd20
    9f68:	25282073 	strcs	r2, [r8, #-115]!	; 0x73
    9f6c:	000a2978 	andeq	r2, sl, r8, ror r9
    9f70:	65646f6d 	strbvs	r6, [r4, #-3949]!	; 0xf6d
    9f74:	7465675f 	strbtvc	r6, [r5], #-1887	; 0x75f
    9f78:	73706328 	cmnvc	r0, #40, 6	; 0xa0000000
    9f7c:	6c6f5f72 	stclvs	15, cr5, [pc], #-456	; 9dbc <__FUNCTION__.4451+0xd4>
    9f80:	3d202964 	stccc	9, cr2, [r0, #-400]!	; 0xfffffe70
    9f84:	6f6d203d 	svcvs	0x006d203d
    9f88:	675f6564 	ldrbvs	r6, [pc, -r4, ror #10]
    9f8c:	63287465 	teqvs	r8, #1694498816	; 0x65000000
    9f90:	5f727370 	svcpl	0x00727370
    9f94:	28746567 	ldmdacs	r4!, {r0, r1, r2, r5, r6, r8, sl, sp, lr}^
    9f98:	00002929 	andeq	r2, r0, r9, lsr #18

00009f9c <__FUNCTION__.4424>:
    9f9c:	63656863 	cmnvs	r5, #6488064	; 0x630000
    9fa0:	6e6f5f6b 	cdpvs	15, 6, cr5, cr15, cr11, {3}
    9fa4:	73635f65 	cmnvc	r3, #404	; 0x194
    9fa8:	63746977 	cmnvs	r4, #1949696	; 0x1dc000
    9fac:	00000068 	andeq	r0, r0, r8, rrx

00009fb0 <__FUNCTION__.4417>:
    9fb0:	676e6973 			; <UNDEFINED> instruction: 0x676e6973
    9fb4:	735f656c 	cmpvc	pc, #108, 10	; 0x1b000000
    9fb8:	5f706574 	svcpl	0x00706574
    9fbc:	646e6168 	strbtvs	r6, [lr], #-360	; 0x168
    9fc0:	0072656c 	rsbseq	r6, r2, ip, ror #10

00009fc4 <__FUNCTION__.4397>:
    9fc4:	65646f6d 	strbvs	r6, [r4, #-3949]!	; 0xf6d
    9fc8:	7465735f 	strbtvc	r7, [r5], #-863	; 0x35f
    9fcc:	00000000 	andeq	r0, r0, r0

00009fd0 <__FUNCTION__.4258>:
    9fd0:	73746962 	cmnvc	r4, #1605632	; 0x188000
    9fd4:	726c635f 	rsbvc	r6, ip, #2080374785	; 0x7c000001
    9fd8:	00000000 	andeq	r0, r0, r0

00009fdc <__FUNCTION__.4409>:
    9fdc:	65646f6d 	strbvs	r6, [r4, #-3949]!	; 0xf6d
    9fe0:	7274735f 	rsbsvc	r7, r4, #2080374785	; 0x7c000001
    9fe4:	00000000 	andeq	r0, r0, r0

00009fe8 <__FUNCTION__.4392>:
    9fe8:	65646f6d 	strbvs	r6, [r4, #-3949]!	; 0xf6d
    9fec:	7465675f 	strbtvc	r6, [r5], #-1887	; 0x75f
    9ff0:	00000000 	andeq	r0, r0, r0

00009ff4 <__FUNCTION__.4251>:
    9ff4:	73746962 	cmnvc	r4, #1605632	; 0x188000
    9ff8:	7465675f 	strbtvc	r6, [r5], #-1887	; 0x75f
    9ffc:	00000000 	andeq	r0, r0, r0

0000a000 <__FUNCTION__.4249>:
    a000:	74696d65 	strbtvc	r6, [r9], #-3429	; 0xd65
    a004:	00000000 	andeq	r0, r0, r0

0000a008 <__FUNCTION__.4197>:
    a008:	5f697072 	svcpl	0x00697072
    a00c:	5f746573 	svcpl	0x00746573
    a010:	7074756f 	rsbsvc	r7, r4, pc, ror #10
    a014:	00007475 	andeq	r7, r0, r5, ror r4

0000a018 <__FUNCTION__.4272>:
    a018:	705f6176 	subsvc	r6, pc, r6, ror r1	; <UNPREDICTABLE>
    a01c:	746e6972 	strbtvc	r6, [lr], #-2418	; 0x972
    a020:	0000006b 	andeq	r0, r0, fp, rrx
    a024:	6362696c 	cmnvs	r2, #108, 18	; 0x1b0000
    a028:	2d61762f 	stclcs	6, cr7, [r1, #-188]!	; 0xffffff44
    a02c:	6e697270 	mcrvs	2, 3, r7, cr9, cr0, {3}
    a030:	632e6b74 	teqvs	lr, #116, 22	; 0x1d000
    a034:	00000000 	andeq	r0, r0, r0
    a038:	00000030 	andeq	r0, r0, r0, lsr r0
    a03c:	33323130 	teqcc	r2, #48, 2
    a040:	37363534 			; <UNDEFINED> instruction: 0x37363534
    a044:	00003938 	andeq	r3, r0, r8, lsr r9
    a048:	33323130 	teqcc	r2, #48, 2
    a04c:	37363534 			; <UNDEFINED> instruction: 0x37363534
    a050:	62613938 	rsbvs	r3, r1, #56, 18	; 0xe0000
    a054:	66656463 	strbtvs	r6, [r5], -r3, ror #8
    a058:	00000000 	andeq	r0, r0, r0
    a05c:	00003130 	andeq	r3, r0, r0, lsr r1
    a060:	63747570 	cmnvs	r4, #112, 10	; 0x1c000000
    a064:	0070665f 	rsbseq	r6, r0, pc, asr r6
    a068:	74646977 	strbtvc	r6, [r4], #-2423	; 0x977
    a06c:	203c2068 	eorscs	r2, ip, r8, rrx
    a070:	00003233 	andeq	r3, r0, r3, lsr r2
    a074:	494e4150 	stmdbmi	lr, {r4, r6, r8, lr}^
    a078:	73253a43 	teqvc	r5, #274432	; 0x43000
    a07c:	3a73253a 	bcc	1cd356c <__bss_end__+0x1cc8f34>
    a080:	663a6425 	ldrtvs	r6, [sl], -r5, lsr #8
    a084:	74616f6c 	strbtvc	r6, [r1], #-3948	; 0xf6c
    a088:	746f6e20 	strbtvc	r6, [pc], #-3616	; a090 <__FUNCTION__.4272+0x78>
    a08c:	616e6520 	cmnvs	lr, r0, lsr #10
    a090:	64656c62 	strbtvs	r6, [r5], #-3170	; 0xc62
    a094:	0a212121 	beq	852520 <__bss_end__+0x847ee8>
    a098:	00000000 	andeq	r0, r0, r0
    a09c:	6e697270 	mcrvs	2, 3, r7, cr9, cr0, {3}
    a0a0:	203a6b74 	eorscs	r6, sl, r4, ror fp
    a0a4:	20746f6e 	rsbscs	r6, r4, lr, ror #30
    a0a8:	646e6168 	strbtvs	r6, [lr], #-360	; 0x168
    a0ac:	676e696c 	strbvs	r6, [lr, -ip, ror #18]!
    a0b0:	65707320 	ldrbvs	r7, [r0, #-800]!	; 0x320
    a0b4:	69666963 	stmdbvs	r6!, {r0, r1, r5, r6, r8, fp, sp, lr}^
    a0b8:	27207265 	strcs	r7, [r0, -r5, ror #4]!
    a0bc:	20276325 	eorcs	r6, r7, r5, lsr #6
    a0c0:	63736128 	cmnvs	r3, #40, 2
    a0c4:	253d6969 	ldrcs	r6, [sp, #-2409]!	; 0x969
    a0c8:	000a2964 	andeq	r2, sl, r4, ror #18
    a0cc:	494e4150 	stmdbmi	lr, {r4, r6, r8, lr}^
    a0d0:	73253a43 	teqvc	r5, #274432	; 0x43000
    a0d4:	3a73253a 	bcc	1cd35c4 <__bss_end__+0x1cc8f8c>
    a0d8:	703a6425 	eorsvc	r6, sl, r5, lsr #8
    a0dc:	746e6972 	strbtvc	r6, [lr], #-2418	; 0x972
    a0e0:	7265206b 	rsbvc	r2, r5, #107	; 0x6b
    a0e4:	0a726f72 	beq	1ca5eb4 <__bss_end__+0x1c9b87c>
    a0e8:	0000000a 	andeq	r0, r0, sl
    a0ec:	454e4f44 	strbmi	r4, [lr, #-3908]	; 0xf44
    a0f0:	0a212121 	beq	85257c <__bss_end__+0x847f44>
    a0f4:	00000000 	andeq	r0, r0, r0

0000a0f8 <__FUNCTION__.4220>:
    a0f8:	74736166 	ldrbtvc	r6, [r3], #-358	; 0x166
    a0fc:	746e695f 	strbtvc	r6, [lr], #-2399	; 0x95f
    a100:	75727265 	ldrbvc	r7, [r2, #-613]!	; 0x265
    a104:	765f7470 			; <UNDEFINED> instruction: 0x765f7470
    a108:	6f746365 	svcvs	0x00746365
    a10c:	00000072 	andeq	r0, r0, r2, ror r0
    a110:	494e4150 	stmdbmi	lr, {r4, r6, r8, lr}^
    a114:	73253a43 	teqvc	r5, #274432	; 0x43000
    a118:	3a73253a 	bcc	1cd3608 <__bss_end__+0x1cc8fd0>
    a11c:	453a6425 	ldrmi	r6, [sl, #-1061]!	; 0x425
    a120:	524f5252 	subpl	r5, pc, #536870917	; 0x20000005
    a124:	6e75203a 	mrcvs	0, 3, r2, cr5, cr10, {1}
    a128:	646e6168 	strbtvs	r6, [lr], #-360	; 0x168
    a12c:	2064656c 	rsbcs	r6, r4, ip, ror #10
    a130:	65637865 	strbvs	r7, [r3, #-2149]!	; 0x865
    a134:	6f697470 	svcvs	0x00697470
    a138:	253c206e 	ldrcs	r2, [ip, #-110]!	; 0x6e
    a13c:	61203e73 	teqvs	r0, r3, ror lr
    a140:	43502074 	cmpmi	r0, #116	; 0x74
    a144:	0a78253d 	beq	1e13640 <__bss_end__+0x1e09008>
    a148:	0000000a 	andeq	r0, r0, sl
    a14c:	66617473 			; <UNDEFINED> instruction: 0x66617473
    a150:	72732d66 	rsbsvc	r2, r3, #6528	; 0x1980
    a154:	65642f63 	strbvs	r2, [r4, #-3939]!	; 0xf63
    a158:	6c756166 	ldfvse	f6, [r5], #-408	; 0xfffffe68
    a15c:	61682d74 	smcvs	33492	; 0x82d4
    a160:	656c646e 	strbvs	r6, [ip, #-1134]!	; 0x46e
    a164:	61662d72 	smcvs	25298	; 0x62d2
    a168:	632e7473 	teqvs	lr, #1929379840	; 0x73000000
    a16c:	00000000 	andeq	r0, r0, r0
    a170:	74736166 	ldrbtvc	r6, [r3], #-358	; 0x166
    a174:	00000000 	andeq	r0, r0, r0

0000a178 <__FUNCTION__.4220>:
    a178:	65736572 	ldrbvs	r6, [r3, #-1394]!	; 0x572
    a17c:	65765f74 	ldrbvs	r5, [r6, #-3956]!	; 0xf74
    a180:	726f7463 	rsbvc	r7, pc, #1660944384	; 0x63000000
    a184:	00000000 	andeq	r0, r0, r0
    a188:	66617473 			; <UNDEFINED> instruction: 0x66617473
    a18c:	72732d66 	rsbsvc	r2, r3, #6528	; 0x1980
    a190:	65642f63 	strbvs	r2, [r4, #-3939]!	; 0xf63
    a194:	6c756166 	ldfvse	f6, [r5], #-408	; 0xfffffe68
    a198:	61682d74 	smcvs	33492	; 0x82d4
    a19c:	656c646e 	strbvs	r6, [ip, #-1134]!	; 0x46e
    a1a0:	65722d72 	ldrbvs	r2, [r2, #-3442]!	; 0xd72
    a1a4:	2e746573 	mrccs	5, 3, r6, cr4, cr3, {3}
    a1a8:	00000063 	andeq	r0, r0, r3, rrx
    a1ac:	65736572 	ldrbvs	r6, [r3, #-1394]!	; 0x572
    a1b0:	00000074 	andeq	r0, r0, r4, ror r0

0000a1b4 <__FUNCTION__.4220>:
    a1b4:	65646e75 	strbvs	r6, [r4, #-3701]!	; 0xe75
    a1b8:	656e6966 	strbvs	r6, [lr, #-2406]!	; 0x966
    a1bc:	6e695f64 	cdpvs	15, 6, cr5, cr9, cr4, {3}
    a1c0:	75727473 	ldrbvc	r7, [r2, #-1139]!	; 0x473
    a1c4:	6f697463 	svcvs	0x00697463
    a1c8:	65765f6e 	ldrbvs	r5, [r6, #-3950]!	; 0xf6e
    a1cc:	726f7463 	rsbvc	r7, pc, #1660944384	; 0x63000000
    a1d0:	00000000 	andeq	r0, r0, r0
    a1d4:	66617473 			; <UNDEFINED> instruction: 0x66617473
    a1d8:	72732d66 	rsbsvc	r2, r3, #6528	; 0x1980
    a1dc:	65642f63 	strbvs	r2, [r4, #-3939]!	; 0xf63
    a1e0:	6c756166 	ldfvse	f6, [r5], #-408	; 0xfffffe68
    a1e4:	61682d74 	smcvs	33492	; 0x82d4
    a1e8:	656c646e 	strbvs	r6, [ip, #-1134]!	; 0x46e
    a1ec:	6e752d72 	mrcvs	13, 3, r2, cr5, cr2, {3}
    a1f0:	69666564 	stmdbvs	r6!, {r2, r5, r6, r8, sl, sp, lr}^
    a1f4:	2d64656e 	cfstr64cs	mvdx6, [r4, #-440]!	; 0xfffffe48
    a1f8:	74736e69 	ldrbtvc	r6, [r3], #-3689	; 0xe69
    a1fc:	0000632e 	andeq	r6, r0, lr, lsr #6
    a200:	65646e75 	strbvs	r6, [r4, #-3701]!	; 0xe75
    a204:	656e6966 	strbvs	r6, [lr, #-2406]!	; 0x966
    a208:	6e692064 	cdpvs	0, 6, cr2, cr9, cr4, {3}
    a20c:	00007473 	andeq	r7, r0, r3, ror r4

Disassembly of section .bss:

0000a210 <__bss_start__>:
    a210:	00000000 	andeq	r0, r0, r0

0000a214 <l>:
    a214:	00000000 	andeq	r0, r0, r0

0000a218 <watchpt_handler0>:
    a218:	00000000 	andeq	r0, r0, r0

0000a21c <brkpt_handler0>:
    a21c:	00000000 	andeq	r0, r0, r0

0000a220 <brk_verbose_p>:
    a220:	00000000 	andeq	r0, r0, r0

0000a224 <nfaults.4398>:
    a224:	00000000 	andeq	r0, r0, r0

0000a228 <init_p.4404>:
    a228:	00000000 	andeq	r0, r0, r0

0000a22c <checker>:
    a22c:	00000000 	andeq	r0, r0, r0

0000a230 <expected_handle>:
    a230:	00000000 	andeq	r0, r0, r0

0000a234 <buf.4189>:
	...

Disassembly of section .ARM.attributes:

00000000 <.ARM.attributes>:
   0:	00002a41 	andeq	r2, r0, r1, asr #20
   4:	61656100 	cmnvs	r5, r0, lsl #2
   8:	01006962 	tsteq	r0, r2, ror #18
   c:	00000020 	andeq	r0, r0, r0, lsr #32
  10:	4b5a3605 	blmi	168d82c <__bss_end__+0x16831f4>
  14:	08070600 	stmdaeq	r7, {r9, sl}
  18:	12010901 	andne	r0, r1, #16384	; 0x4000
  1c:	15011404 	strne	r1, [r1, #-1028]	; 0x404
  20:	18031701 	stmdane	r3, {r0, r8, r9, sl, ip}
  24:	22011a01 	andcs	r1, r1, #4096	; 0x1000
  28:	Address 0x0000000000000028 is out of bounds.


Disassembly of section .comment:

00000000 <.comment>:
   0:	3a434347 	bcc	10d0d24 <__bss_end__+0x10c66ec>
   4:	4e472820 	cdpmi	8, 4, cr2, cr7, cr0, {1}
   8:	34202955 	strtcc	r2, [r0], #-2389	; 0x955
   c:	332e382e 	teqcc	lr, #3014656	; 0x2e0000
  10:	43434700 	movtmi	r4, #14080	; 0x3700
  14:	3128203a 	teqcc	r8, sl, lsr r0
  18:	2e363a35 	mrccs	10, 1, r3, cr6, cr5, {1}
  1c:	2b312e33 	blcs	c4b8f0 <__bss_end__+0xc412b8>
  20:	326e7673 	rsbcc	r7, lr, #120586240	; 0x7300000
  24:	33303335 	teqcc	r0, #-738197504	; 0xd4000000
  28:	62312d39 	eorsvs	r2, r1, #3648	; 0xe40
  2c:	646c6975 	strbtvs	r6, [ip], #-2421	; 0x975
  30:	36202931 			; <UNDEFINED> instruction: 0x36202931
  34:	312e332e 	teqcc	lr, lr, lsr #6
  38:	31303220 	teqcc	r0, r0, lsr #4
  3c:	32363037 	eorscc	r3, r6, #55	; 0x37
  40:	Address 0x0000000000000040 is out of bounds.


Disassembly of section .debug_info:

00000000 <.debug_info>:
       0:	00000621 	andeq	r0, r0, r1, lsr #12
       4:	00000004 	andeq	r0, r0, r4
       8:	01040000 	mrseq	r0, (UNDEF: 4)
       c:	0000009d 	muleq	r0, sp, r0
      10:	0001a101 	andeq	sl, r1, r1, lsl #2
      14:	00002800 	andeq	r2, r0, r0, lsl #16
      18:	00802000 	addeq	r2, r0, r0
      1c:	00025400 	andeq	r5, r2, r0, lsl #8
      20:	00000000 	andeq	r0, r0, r0
      24:	05040200 	streq	r0, [r4, #-512]	; 0x200
      28:	00746e69 	rsbseq	r6, r4, r9, ror #28
      2c:	c5070403 	strgt	r0, [r7, #-1027]	; 0x403
      30:	03000001 	movweq	r0, #1
      34:	011d0601 	tsteq	sp, r1, lsl #12
      38:	02030000 	andeq	r0, r3, #0
      3c:	00016c05 	andeq	r6, r1, r5, lsl #24
      40:	05040300 	streq	r0, [r4, #-768]	; 0x300
      44:	000001f5 	strdeq	r0, [r0], -r5
      48:	f0050803 			; <UNDEFINED> instruction: 0xf0050803
      4c:	03000001 	movweq	r0, #1
      50:	011b0801 	tsteq	fp, r1, lsl #16
      54:	02030000 	andeq	r0, r3, #0
      58:	00014107 	andeq	r4, r1, r7, lsl #2
      5c:	023a0400 	eorseq	r0, sl, #0, 8
      60:	34040000 	strcc	r0, [r4], #-0
      64:	00000068 	andeq	r0, r0, r8, rrx
      68:	c0070403 	andgt	r0, r7, r3, lsl #8
      6c:	03000001 	movweq	r0, #1
      70:	01bb0708 			; <UNDEFINED> instruction: 0x01bb0708
      74:	04030000 	streq	r0, [r3], #-0
      78:	0001e707 	andeq	lr, r1, r7, lsl #14
      7c:	08010300 	stmdaeq	r1, {r8, r9}
      80:	00000124 	andeq	r0, r0, r4, lsr #2
      84:	008a0405 	addeq	r0, sl, r5, lsl #8
      88:	7d060000 	stcvc	0, cr0, [r6, #-0]
      8c:	07000000 	streq	r0, [r0, -r0]
      90:	0000007d 	andeq	r0, r0, sp, ror r0
      94:	0000009f 	muleq	r0, pc, r0	; <UNPREDICTABLE>
      98:	00007608 	andeq	r7, r0, r8, lsl #12
      9c:	09000700 	stmdbeq	r0, {r8, r9, sl}
      a0:	00000199 	muleq	r0, r9, r1
      a4:	500a0338 	andpl	r0, sl, r8, lsr r3
      a8:	0a000001 	beq	b4 <__code_start__-0x7f4c>
      ac:	00000a74 	andeq	r0, r0, r4, ror sl
      b0:	01500f03 	cmpeq	r0, r3, lsl #30
      b4:	0b000000 	bleq	bc <__code_start__-0x7f44>
      b8:	12030041 	andne	r0, r3, #65	; 0x41
      bc:	00000168 	andeq	r0, r0, r8, ror #2
      c0:	00420b04 	subeq	r0, r2, r4, lsl #22
      c4:	017d1303 	cmneq	sp, r3, lsl #6
      c8:	0a080000 	beq	2000d0 <__bss_end__+0x1f5a98>
      cc:	0000022b 	andeq	r0, r0, fp, lsr #4
      d0:	01681603 	cmneq	r8, r3, lsl #12
      d4:	0a0c0000 	beq	3000dc <__bss_end__+0x2f5aa4>
      d8:	00000234 	andeq	r0, r0, r4, lsr r2
      dc:	017d1803 	cmneq	sp, r3, lsl #16
      e0:	0a100000 	beq	4000e8 <__bss_end__+0x3f5ab0>
      e4:	000001d2 	ldrdeq	r0, [r0], -r2
      e8:	01831f03 	orreq	r1, r3, r3, lsl #30
      ec:	0a140000 	beq	5000f4 <__bss_end__+0x4f5abc>
      f0:	0000010a 	andeq	r0, r0, sl, lsl #2
      f4:	01833103 	orreq	r3, r3, r3, lsl #2
      f8:	0a180000 	beq	600100 <__bss_end__+0x5f5ac8>
      fc:	00000136 	andeq	r0, r0, r6, lsr r1
     100:	01883603 	orreq	r3, r8, r3, lsl #12
     104:	0a1c0000 	beq	70010c <__bss_end__+0x6f5ad4>
     108:	00000209 	andeq	r0, r0, r9, lsl #4
     10c:	01883a03 	orreq	r3, r8, r3, lsl #20
     110:	0a200000 	beq	800118 <__bss_end__+0x7f5ae0>
     114:	000001fe 	strdeq	r0, [r0], -lr
     118:	01833f03 	orreq	r3, r3, r3, lsl #30
     11c:	0a240000 	beq	900124 <__bss_end__+0x8f5aec>
     120:	00000016 	andeq	r0, r0, r6, lsl r0
     124:	002c4203 	eoreq	r4, ip, r3, lsl #4
     128:	0a280000 	beq	a00130 <__bss_end__+0x9f5af8>
     12c:	00000095 	muleq	r0, r5, r0
     130:	002c4303 	eoreq	r4, ip, r3, lsl #6
     134:	0a2c0000 	beq	b0013c <__bss_end__+0xaf5b04>
     138:	00000183 	andeq	r0, r0, r3, lsl #3
     13c:	002c4603 	eoreq	r4, ip, r3, lsl #12
     140:	0a300000 	beq	c00148 <__bss_end__+0xbf5b10>
     144:	00000254 	andeq	r0, r0, r4, asr r2
     148:	01884803 	orreq	r4, r8, r3, lsl #16
     14c:	00340000 	eorseq	r0, r4, r0
     150:	01560405 	cmpeq	r6, r5, lsl #8
     154:	0d0c0000 	stceq	0, cr0, [ip, #-0]
     158:	00000162 	andeq	r0, r0, r2, ror #2
     15c:	0001620e 	andeq	r6, r1, lr, lsl #4
     160:	04050000 	streq	r0, [r5], #-0
     164:	0000009f 	muleq	r0, pc, r0	; <UNPREDICTABLE>
     168:	01570405 	cmpeq	r7, r5, lsl #8
     16c:	250f0000 	strcs	r0, [pc, #-0]	; 174 <__code_start__-0x7e8c>
     170:	7d000000 	stcvc	0, cr0, [r0, #-0]
     174:	0e000001 	cdpeq	0, 0, cr0, cr0, cr1, {0}
     178:	00000162 	andeq	r0, r0, r2, ror #2
     17c:	6e040500 	cfsh32vs	mvfx0, mvfx4, #0
     180:	10000001 	andne	r0, r0, r1
     184:	0000002c 	andeq	r0, r0, ip, lsr #32
     188:	00005d10 	andeq	r5, r0, r0, lsl sp
     18c:	001e0400 	andseq	r0, lr, r0, lsl #8
     190:	49030000 	stmdbmi	r3, {}	; <UNPREDICTABLE>
     194:	0000009f 	muleq	r0, pc, r0	; <UNPREDICTABLE>
     198:	00016204 	andeq	r6, r1, r4, lsl #4
     19c:	a3050200 	movwge	r0, #20992	; 0x5200
     1a0:	10000001 	andne	r0, r0, r1
     1a4:	00000025 	andeq	r0, r0, r5, lsr #32
     1a8:	00022211 	andeq	r2, r2, r1, lsl r2
     1ac:	03070200 	movweq	r0, #29184	; 0x7200
     1b0:	000001be 			; <UNDEFINED> instruction: 0x000001be
     1b4:	02006c12 	andeq	r6, r0, #4608	; 0x1200
     1b8:	0001be07 	andeq	fp, r1, r7, lsl #28
     1bc:	04050000 	streq	r0, [r5], #-0
     1c0:	00000198 	muleq	r0, r8, r1
     1c4:	00000913 	andeq	r0, r0, r3, lsl r9
     1c8:	250a0200 	strcs	r0, [sl, #-512]	; 0x200
     1cc:	03000000 	movweq	r0, #0
     1d0:	000001ea 	andeq	r0, r0, sl, ror #3
     1d4:	02006c12 	andeq	r6, r0, #4608	; 0x1200
     1d8:	0001be0a 	andeq	fp, r1, sl, lsl #28
     1dc:	02431400 	subeq	r1, r3, #0, 8
     1e0:	0c020000 	stceq	0, cr0, [r2], {-0}
     1e4:	00000025 	andeq	r0, r0, r5, lsr #32
     1e8:	dc110000 	ldcle	0, cr0, [r1], {-0}
     1ec:	02000001 	andeq	r0, r0, #1
     1f0:	020d0317 	andeq	r0, sp, #1543503872	; 0x5c000000
     1f4:	6c120000 	ldcvs	0, cr0, [r2], {-0}
     1f8:	be170200 	cdplt	2, 1, cr0, cr7, cr0, {0}
     1fc:	15000001 	strne	r0, [r0, #-1]
     200:	00000176 	andeq	r0, r0, r6, ror r1
     204:	0000021d 	andeq	r0, r0, sp, lsl r2
     208:	000001dc 	ldrdeq	r0, [r0], -ip
     20c:	007d0700 	rsbseq	r0, sp, r0, lsl #14
     210:	021d0000 	andseq	r0, sp, #0
     214:	76080000 	strvc	r0, [r8], -r0
     218:	0a000000 	beq	220 <__code_start__-0x7de0>
     21c:	020d0600 	andeq	r0, sp, #0, 12
     220:	89160000 	ldmdbhi	r6, {}	; <UNPREDICTABLE>
     224:	01000000 	mrseq	r0, (UNDEF: 0)
     228:	0080200a 	addeq	r2, r0, sl
     22c:	0000b000 	andeq	fp, r0, r0
     230:	509c0100 	addspl	r0, ip, r0, lsl #2
     234:	17000003 	strne	r0, [r0, -r3]
     238:	0a010063 	beq	403cc <__bss_end__+0x35d94>
     23c:	00000350 	andeq	r0, r0, r0, asr r3
     240:	00000000 	andeq	r0, r0, r0
     244:	00017618 	andeq	r7, r1, r8, lsl r6
     248:	00036600 	andeq	r6, r3, r0, lsl #12
     24c:	60030500 	andvs	r0, r3, r0, lsl #10
     250:	1900009b 	stmdbne	r0, {r0, r1, r3, r4, r7}
     254:	000001c4 	andeq	r0, r0, r4, asr #3
     258:	00008028 	andeq	r8, r0, r8, lsr #32
     25c:	00000008 	andeq	r0, r0, r8
     260:	02900b01 	addseq	r0, r0, #1024	; 0x400
     264:	d41a0000 	ldrle	r0, [sl], #-0
     268:	06000001 	streq	r0, [r0], -r1
     26c:	00a21403 	adceq	r1, r2, r3, lsl #8
     270:	281b9f00 	ldmdacs	fp, {r8, r9, sl, fp, ip, pc}
     274:	08000080 	stmdaeq	r0, {r7}
     278:	1c000000 	stcne	0, cr0, [r0], {-0}
     27c:	00008030 	andeq	r8, r0, r0, lsr r0
     280:	000005d3 	ldrdeq	r0, [r0], -r3
     284:	0550011d 	ldrbeq	r0, [r0, #-285]	; 0x11d
     288:	00a21403 	adceq	r1, r2, r3, lsl #8
     28c:	00000000 	andeq	r0, r0, r0
     290:	0001ea19 	andeq	lr, r1, r9, lsl sl
     294:	00806400 	addeq	r6, r0, r0, lsl #8
     298:	00004000 	andeq	r4, r0, r0
     29c:	0f0e0100 	svceq	0x000e0100
     2a0:	1a000003 	bne	2b4 <__code_start__-0x7d4c>
     2a4:	000001f6 	strdeq	r0, [r0], -r6
     2a8:	a2140306 	andsge	r0, r4, #402653184	; 0x18000000
     2ac:	1b9f0000 	blne	fe7c02b4 <__bss_end__+0xfe7b5c7c>
     2b0:	00008064 	andeq	r8, r0, r4, rrx
     2b4:	00000040 	andeq	r0, r0, r0, asr #32
     2b8:	0001ff1e 	andeq	pc, r1, lr, lsl pc	; <UNPREDICTABLE>
     2bc:	54030500 	strpl	r0, [r3], #-1280	; 0x500
     2c0:	1f00009b 	svcne	0x0000009b
     2c4:	00008078 	andeq	r8, r0, r8, ror r0
     2c8:	000005e8 	andeq	r0, r0, r8, ror #11
     2cc:	00809420 	addeq	r9, r0, r0, lsr #8
     2d0:	0005ef00 	andeq	lr, r5, r0, lsl #30
     2d4:	00030400 	andeq	r0, r3, r0, lsl #8
     2d8:	53011d00 	movwpl	r1, #7424	; 0x1d00
     2dc:	011d4801 	tsteq	sp, r1, lsl #16
     2e0:	54030552 	strpl	r0, [r3], #-1362	; 0x552
     2e4:	1d00009b 	stcne	0, cr0, [r0, #-620]	; 0xfffffd94
     2e8:	03055101 	movweq	r5, #20737	; 0x5101
     2ec:	00009a8c 	andeq	r9, r0, ip, lsl #21
     2f0:	0550011d 	ldrbeq	r0, [r0, #-285]	; 0x11d
     2f4:	009a7803 	addseq	r7, sl, r3, lsl #16
     2f8:	7d021d00 	stcvc	13, cr1, [r2, #-0]
     2fc:	9c030500 	cfstr32ls	mvfx0, [r3], {-0}
     300:	0000009a 	muleq	r0, sl, r0
     304:	0080981f 	addeq	r9, r0, pc, lsl r8
     308:	00060500 	andeq	r0, r6, r0, lsl #10
     30c:	1f000000 	svcne	0x00000000
     310:	0000803c 	andeq	r8, r0, ip, lsr r0
     314:	000005e8 	andeq	r0, r0, r8, ror #11
     318:	00805020 	addeq	r5, r0, r0, lsr #32
     31c:	0005ef00 	andeq	lr, r5, r0, lsl #30
     320:	00034600 	andeq	r4, r3, r0, lsl #12
     324:	53011d00 	movwpl	r1, #7424	; 0x1d00
     328:	011d3c01 	tsteq	sp, r1, lsl #24
     32c:	60030552 	andvs	r0, r3, r2, asr r5
     330:	1d00009b 	stcne	0, cr0, [r0, #-620]	; 0xfffffd94
     334:	03055101 	movweq	r5, #20737	; 0x5101
     338:	00009a5c 	andeq	r9, r0, ip, asr sl
     33c:	0550011d 	ldrbeq	r0, [r0, #-285]	; 0x11d
     340:	009a4003 	addseq	r4, sl, r3
     344:	541f0000 	ldrpl	r0, [pc], #-0	; 34c <__code_start__-0x7cb4>
     348:	05000080 	streq	r0, [r0, #-128]	; 0x80
     34c:	00000006 	andeq	r0, r0, r6
     350:	018d0405 	orreq	r0, sp, r5, lsl #8
     354:	7d070000 	stcvc	0, cr0, [r7, #-0]
     358:	66000000 	strvs	r0, [r0], -r0
     35c:	08000003 	stmdaeq	r0, {r0, r1}
     360:	00000076 	andeq	r0, r0, r6, ror r0
     364:	56060005 	strpl	r0, [r6], -r5
     368:	21000003 	tstcs	r0, r3
     36c:	0000008f 	andeq	r0, r0, pc, lsl #1
     370:	00251001 	eoreq	r1, r5, r1
     374:	80d00000 	sbcshi	r0, r0, r0
     378:	00880000 	addeq	r0, r8, r0
     37c:	9c010000 	stcls	0, cr0, [r1], {-0}
     380:	00000447 	andeq	r0, r0, r7, asr #8
     384:	01006317 	tsteq	r0, r7, lsl r3
     388:	00035010 	andeq	r5, r3, r0, lsl r0
     38c:	00002100 	andeq	r2, r0, r0, lsl #2
     390:	01c41900 	biceq	r1, r4, r0, lsl #18
     394:	80d80000 	sbcshi	r0, r8, r0
     398:	00080000 	andeq	r0, r8, r0
     39c:	11010000 	mrsne	r0, (UNDEF: 1)
     3a0:	000003ce 	andeq	r0, r0, lr, asr #7
     3a4:	0001d41a 	andeq	sp, r1, sl, lsl r4
     3a8:	14030600 	strne	r0, [r3], #-1536	; 0x600
     3ac:	9f0000a2 	svcls	0x000000a2
     3b0:	0080d81b 	addeq	sp, r0, fp, lsl r8
     3b4:	00000800 	andeq	r0, r0, r0, lsl #16
     3b8:	80e01c00 	rschi	r1, r0, r0, lsl #24
     3bc:	05d30000 	ldrbeq	r0, [r3]
     3c0:	011d0000 	tsteq	sp, r0
     3c4:	14030550 	strne	r0, [r3], #-1360	; 0x550
     3c8:	000000a2 	andeq	r0, r0, r2, lsr #1
     3cc:	ea220000 	b	8803d4 <__bss_end__+0x875d9c>
     3d0:	f8000001 			; <UNDEFINED> instruction: 0xf8000001
     3d4:	40000080 	andmi	r0, r0, r0, lsl #1
     3d8:	01000000 	mrseq	r0, (UNDEF: 0)
     3dc:	01f62314 	mvnseq	r2, r4, lsl r3
     3e0:	00420000 	subeq	r0, r2, r0
     3e4:	f81b0000 			; <UNDEFINED> instruction: 0xf81b0000
     3e8:	40000080 	andmi	r0, r0, r0, lsl #1
     3ec:	1e000000 	cdpne	0, 0, cr0, cr0, cr0, {0}
     3f0:	000001ff 	strdeq	r0, [r0], -pc	; <UNPREDICTABLE>
     3f4:	9b540305 	blls	1501010 <__bss_end__+0x14f69d8>
     3f8:	0c1f0000 	ldceq	0, cr0, [pc], {-0}
     3fc:	e8000081 	stmda	r0, {r0, r7}
     400:	20000005 	andcs	r0, r0, r5
     404:	00008128 	andeq	r8, r0, r8, lsr #2
     408:	000005ef 	andeq	r0, r0, pc, ror #11
     40c:	0000043b 	andeq	r0, r0, fp, lsr r4
     410:	0153011d 	cmpeq	r3, sp, lsl r1
     414:	52011d48 	andpl	r1, r1, #72, 26	; 0x1200
     418:	9b540305 	blls	1501034 <__bss_end__+0x14f69fc>
     41c:	011d0000 	tsteq	sp, r0
     420:	8c030551 	cfstr32hi	mvfx0, [r3], {81}	; 0x51
     424:	1d00009a 	stcne	0, cr0, [r0, #-616]	; 0xfffffd98
     428:	03055001 	movweq	r5, #20481	; 0x5001
     42c:	00009a78 	andeq	r9, r0, r8, ror sl
     430:	007d021d 	rsbseq	r0, sp, sp, lsl r2
     434:	9a9c0305 	bls	fe701050 <__bss_end__+0xfe6f6a18>
     438:	1f000000 	svcne	0x00000000
     43c:	0000812c 	andeq	r8, r0, ip, lsr #2
     440:	00000605 	andeq	r0, r0, r5, lsl #12
     444:	16000000 	strne	r0, [r0], -r0
     448:	00000000 	andeq	r0, r0, r0
     44c:	81581801 	cmphi	r8, r1, lsl #16
     450:	00200000 	eoreq	r0, r0, r0
     454:	9c010000 	stcls	0, cr0, [r1], {-0}
     458:	00000484 	andeq	r0, r0, r4, lsl #9
     45c:	01006324 	tsteq	r0, r4, lsr #6
     460:	00035018 	andeq	r5, r3, r8, lsl r0
     464:	22500100 	subscs	r0, r0, #0, 2
     468:	000001a8 	andeq	r0, r0, r8, lsr #3
     46c:	00008164 	andeq	r8, r0, r4, ror #2
     470:	00000014 	andeq	r0, r0, r4, lsl r0
     474:	b41a1a01 	ldrlt	r1, [sl], #-2561	; 0xa01
     478:	06000001 	streq	r0, [r0], -r1
     47c:	00a21403 	adceq	r1, r2, r3, lsl #8
     480:	00009f00 	andeq	r9, r0, r0, lsl #30
     484:	00023021 	andeq	r3, r2, r1, lsr #32
     488:	251c0100 	ldrcs	r0, [ip, #-256]	; 0x100
     48c:	78000000 	stmdavc	r0, {}	; <UNPREDICTABLE>
     490:	1c000081 	stcne	0, cr0, [r0], {129}	; 0x81
     494:	01000000 	mrseq	r0, (UNDEF: 0)
     498:	0004ab9c 	muleq	r4, ip, fp
     49c:	00631700 	rsbeq	r1, r3, r0, lsl #14
     4a0:	03501c01 	cmpeq	r0, #256	; 0x100
     4a4:	005a0000 	subseq	r0, sl, r0
     4a8:	25000000 	strcs	r0, [r0, #-0]
     4ac:	00000192 	muleq	r0, r2, r1
     4b0:	018d2001 	orreq	r2, sp, r1
     4b4:	81940000 	orrshi	r0, r4, r0
     4b8:	00700000 	rsbseq	r0, r0, r0
     4bc:	9c010000 	stcls	0, cr0, [r1], {-0}
     4c0:	00008126 	andeq	r8, r0, r6, lsr #2
     4c4:	042a0100 	strteq	r0, [sl], #-256	; 0x100
     4c8:	70000082 	andvc	r0, r0, r2, lsl #1
     4cc:	01000000 	mrseq	r0, (UNDEF: 0)
     4d0:	0005a39c 	muleq	r5, ip, r3
     4d4:	00632700 	rsbeq	r2, r3, r0, lsl #14
     4d8:	009f2e01 	addseq	r2, pc, r1, lsl #28
     4dc:	91020000 	mrsls	r0, (UNDEF: 2)
     4e0:	006e2840 	rsbeq	r2, lr, r0, asr #16
     4e4:	00252f01 	eoreq	r2, r5, r1, lsl #30
     4e8:	76180000 	ldrvc	r0, [r8], -r0
     4ec:	a3000001 	movwge	r0, #1
     4f0:	05000005 	streq	r0, [r0, #-5]
     4f4:	009b6803 	addseq	r6, fp, r3, lsl #16
     4f8:	82101f00 	andshi	r1, r0, #0, 30
     4fc:	060c0000 	streq	r0, [ip], -r0
     500:	18200000 	stmdane	r0!, {}	; <UNPREDICTABLE>
     504:	ab000082 	blge	714 <__code_start__-0x78ec>
     508:	16000004 	strne	r0, [r0], -r4
     50c:	1d000005 	stcne	0, cr0, [r0, #-20]	; 0xffffffec
     510:	7d025001 	stcvc	0, cr5, [r2, #-4]
     514:	20200000 	eorcs	r0, r0, r0
     518:	13000082 	movwne	r0, #130	; 0x82
     51c:	2a000006 	bcs	53c <__code_start__-0x7ac4>
     520:	1d000005 	stcne	0, cr0, [r0, #-20]	; 0xffffffec
     524:	7d025001 	stcvc	0, cr5, [r2, #-4]
     528:	2c1f0000 	ldccs	0, cr0, [pc], {-0}
     52c:	e8000082 	stmda	r0, {r1, r7}
     530:	20000005 	andcs	r0, r0, r5
     534:	00008240 	andeq	r8, r0, r0, asr #4
     538:	000005ef 	andeq	r0, r0, pc, ror #11
     53c:	00000562 	andeq	r0, r0, r2, ror #10
     540:	0253011d 	subseq	r0, r3, #1073741831	; 0x40000007
     544:	011d3108 	tsteq	sp, r8, lsl #2
     548:	68030552 	stmdavs	r3, {r1, r4, r6, r8, sl}
     54c:	1d00009b 	stcne	0, cr0, [r0, #-620]	; 0xfffffd94
     550:	03055101 	movweq	r5, #20737	; 0x5101
     554:	00009a5c 	andeq	r9, r0, ip, asr sl
     558:	0550011d 	ldrbeq	r0, [r0, #-285]	; 0x11d
     55c:	009aa403 	addseq	sl, sl, r3, lsl #8
     560:	441f0000 	ldrmi	r0, [pc], #-0	; 568 <__code_start__-0x7a98>
     564:	05000082 	streq	r0, [r0, #-130]	; 0x82
     568:	20000006 	andcs	r0, r0, r6
     56c:	0000824c 	andeq	r8, r0, ip, asr #4
     570:	000005ef 	andeq	r0, r0, pc, ror #11
     574:	00000582 	andeq	r0, r0, r2, lsl #11
     578:	0550011d 	ldrbeq	r0, [r0, #-285]	; 0x11d
     57c:	009ad403 	addseq	sp, sl, r3, lsl #8
     580:	5c200000 	stcpl	0, cr0, [r0], #-0
     584:	ef000082 	svc	0x00000082
     588:	99000005 	stmdbls	r0, {r0, r2}
     58c:	1d000005 	stcne	0, cr0, [r0, #-20]	; 0xffffffec
     590:	03055001 	movweq	r5, #20481	; 0x5001
     594:	00009ae0 	andeq	r9, r0, r0, ror #21
     598:	82601f00 	rsbhi	r1, r0, #0, 30
     59c:	06050000 	streq	r0, [r5], -r0
     5a0:	06000000 	streq	r0, [r0], -r0
     5a4:	0000008f 	andeq	r0, r0, pc, lsl #1
     5a8:	746e6327 	strbtvc	r6, [lr], #-807	; 0x327
     5ac:	a3070100 	movwge	r0, #28928	; 0x7100
     5b0:	05000001 	streq	r0, [r0, #-1]
     5b4:	00a21003 	adceq	r1, r2, r3
     5b8:	006c2700 	rsbeq	r2, ip, r0, lsl #14
     5bc:	01980801 	orrseq	r0, r8, r1, lsl #16
     5c0:	03050000 	movweq	r0, #20480	; 0x5000
     5c4:	0000a214 	andeq	sl, r0, r4, lsl r2
     5c8:	00015429 	andeq	r5, r1, r9, lsr #8
     5cc:	25c20600 	strbcs	r0, [r2, #1536]	; 0x600
     5d0:	2a000000 	bcs	5d8 <__code_start__-0x7a28>
     5d4:	00000243 	andeq	r0, r0, r3, asr #4
     5d8:	00250c02 	eoreq	r0, r5, r2, lsl #24
     5dc:	05e80000 	strbeq	r0, [r8, #0]!
     5e0:	be0e0000 	cdplt	0, 0, cr0, cr14, cr0, {0}
     5e4:	00000001 	andeq	r0, r0, r1
     5e8:	00025a2b 	andeq	r5, r2, fp, lsr #20
     5ec:	2a1e0500 	bcs	7819f4 <__bss_end__+0x7773bc>
     5f0:	000005ad 	andeq	r0, r0, sp, lsr #11
     5f4:	00252905 	eoreq	r2, r5, r5, lsl #18
     5f8:	06050000 	streq	r0, [r5], -r0
     5fc:	840e0000 	strhi	r0, [lr], #-0
     600:	2c000000 	stccs	0, cr0, [r0], {-0}
     604:	01292b00 	teqeq	r9, r0, lsl #22
     608:	65050000 	strvs	r0, [r5, #-0]
     60c:	0002152b 	andeq	r1, r2, fp, lsr #10
     610:	2d8d0500 	cfstr32cs	mvfx0, [sp]
     614:	00000234 	andeq	r0, r0, r4, lsr r2
     618:	00254e03 	eoreq	r4, r5, r3, lsl #28
     61c:	500e0000 	andpl	r0, lr, r0
     620:	00000003 	andeq	r0, r0, r3
     624:	000bd700 	andeq	sp, fp, r0, lsl #14
     628:	6d000400 	cfstrsvs	mvf0, [r0, #-0]
     62c:	04000002 	streq	r0, [r0], #-2
     630:	00009d01 	andeq	r9, r0, r1, lsl #26
     634:	02a50100 	adceq	r0, r5, #0, 2
     638:	00280000 	eoreq	r0, r8, r0
     63c:	82740000 	rsbshi	r0, r4, #0
     640:	03780000 	cmneq	r8, #0
     644:	01780000 	cmneq	r8, r0
     648:	04020000 	streq	r0, [r2], #-0
     64c:	746e6905 	strbtvc	r6, [lr], #-2309	; 0x905
     650:	07040300 	streq	r0, [r4, -r0, lsl #6]
     654:	000001c5 	andeq	r0, r0, r5, asr #3
     658:	1d060103 	stfnes	f0, [r6, #-12]
     65c:	03000001 	movweq	r0, #1
     660:	016c0502 	cmneq	ip, r2, lsl #10
     664:	04030000 	streq	r0, [r3], #-0
     668:	0001f505 	andeq	pc, r1, r5, lsl #10
     66c:	05080300 	streq	r0, [r8, #-768]	; 0x300
     670:	000001f0 	strdeq	r0, [r0], -r0	; <UNPREDICTABLE>
     674:	1b080103 	blne	200a88 <__bss_end__+0x1f6450>
     678:	03000001 	movweq	r0, #1
     67c:	01410702 	cmpeq	r1, r2, lsl #14
     680:	3a040000 	bcc	100688 <__bss_end__+0xf6050>
     684:	03000002 	movweq	r0, #2
     688:	00006834 	andeq	r6, r0, r4, lsr r8
     68c:	07040300 	streq	r0, [r4, -r0, lsl #6]
     690:	000001c0 	andeq	r0, r0, r0, asr #3
     694:	bb070803 	bllt	1c26a8 <__bss_end__+0x1b8070>
     698:	03000001 	movweq	r0, #1
     69c:	01e70704 	mvneq	r0, r4, lsl #14
     6a0:	04050000 	streq	r0, [r5], #-0
     6a4:	24080103 	strcs	r0, [r8], #-259	; 0x103
     6a8:	06000001 	streq	r0, [r0], -r1
     6ac:	00008c04 	andeq	r8, r0, r4, lsl #24
     6b0:	007f0700 	rsbseq	r0, pc, r0, lsl #14
     6b4:	1d040000 	stcne	0, cr0, [r4, #-0]
     6b8:	02000004 	andeq	r0, r0, #4
     6bc:	00009c8a 	andeq	r9, r0, sl, lsl #25
     6c0:	a2040600 	andge	r0, r4, #0, 12
     6c4:	08000000 	stmdaeq	r0, {}	; <UNPREDICTABLE>
     6c8:	000000b7 	strheq	r0, [r0], -r7
     6cc:	0000b709 	andeq	fp, r0, r9, lsl #14
     6d0:	005d0900 	subseq	r0, sp, r0, lsl #18
     6d4:	5d090000 	stcpl	0, cr0, [r9, #-0]
     6d8:	00000000 	andeq	r0, r0, r0
     6dc:	005d0406 	subseq	r0, sp, r6, lsl #8
     6e0:	e90a0000 	stmdb	sl, {}	; <UNPREDICTABLE>
     6e4:	02000003 	andeq	r0, r0, #3
     6e8:	00005d5f 	andeq	r5, r0, pc, asr sp
     6ec:	00d90300 	sbcseq	r0, r9, r0, lsl #6
     6f0:	720b0000 	andvc	r0, fp, #0
     6f4:	02007465 	andeq	r7, r0, #1694498816	; 0x65000000
     6f8:	00005d5f 	andeq	r5, r0, pc, asr sp
     6fc:	690a0000 	stmdbvs	sl, {}	; <UNPREDICTABLE>
     700:	02000003 	andeq	r0, r0, #3
     704:	00005da6 	andeq	r5, r0, r6, lsr #27
     708:	00f50300 	rscseq	r0, r5, r0, lsl #6
     70c:	720b0000 	andvc	r0, fp, #0
     710:	02007465 	andeq	r7, r0, #1694498816	; 0x65000000
     714:	00005da6 	andeq	r5, r0, r6, lsr #27
     718:	bb0a0000 	bllt	280720 <__bss_end__+0x2760e8>
     71c:	02000003 	andeq	r0, r0, #3
     720:	00002c70 	andeq	r2, r0, r0, ror ip
     724:	010f0300 	mrseq	r0, SP_hyp
     728:	720c0000 	andvc	r0, ip, #0
     72c:	5d700200 	lfmpl	f0, 2, [r0, #-0]
     730:	00000000 	andeq	r0, r0, r0
     734:	0002d80a 	andeq	sp, r2, sl, lsl #16
     738:	5d180100 	ldfpls	f0, [r8, #-0]
     73c:	03000000 	movweq	r0, #0
     740:	0000012b 	andeq	r0, r0, fp, lsr #2
     744:	7465720b 	strbtvc	r7, [r5], #-523	; 0x20b
     748:	5d180100 	ldfpls	f0, [r8, #-0]
     74c:	00000000 	andeq	r0, r0, r0
     750:	0004430d 	andeq	r4, r4, sp, lsl #6
     754:	031e0100 	tsteq	lr, #0, 2
     758:	00000141 	andeq	r0, r0, r1, asr #2
     75c:	0100760c 	tsteq	r0, ip, lsl #12
     760:	00005d1e 	andeq	r5, r0, lr, lsl sp
     764:	1b0d0000 	blne	34076c <__bss_end__+0x336134>
     768:	01000003 	tsteq	r0, r3
     76c:	01570326 	cmpeq	r7, r6, lsr #6
     770:	760c0000 	strvc	r0, [ip], -r0
     774:	5d260100 	stfpls	f0, [r6, #-0]
     778:	00000000 	andeq	r0, r0, r0
     77c:	0004010d 	andeq	r0, r4, sp, lsl #2
     780:	030d0100 	movweq	r0, #53504	; 0xd100
     784:	0000016d 	andeq	r0, r0, sp, ror #2
     788:	0100760c 	tsteq	r0, ip, lsl #12
     78c:	00005d0d 	andeq	r5, r0, sp, lsl #26
     790:	9b0a0000 	blls	280798 <__bss_end__+0x276160>
     794:	02000003 	andeq	r0, r0, #3
     798:	00002c66 	andeq	r2, r0, r6, ror #24
     79c:	01890300 	orreq	r0, r9, r0, lsl #6
     7a0:	570e0000 	strpl	r0, [lr, -r0]
     7a4:	02000003 	andeq	r0, r0, #3
     7a8:	00005d67 	andeq	r5, r0, r7, ror #26
     7ac:	270a0000 	strcs	r0, [sl, -r0]
     7b0:	02000004 	andeq	r0, r0, #4
     7b4:	00005d56 	andeq	r5, r0, r6, asr sp
     7b8:	01a50300 			; <UNDEFINED> instruction: 0x01a50300
     7bc:	720b0000 	andvc	r0, fp, #0
     7c0:	02007465 	andeq	r7, r0, #1694498816	; 0x65000000
     7c4:	00005d56 	andeq	r5, r0, r6, asr sp
     7c8:	610a0000 	mrsvs	r0, (UNDEF: 10)
     7cc:	02000003 	andeq	r0, r0, #3
     7d0:	00005d63 	andeq	r5, r0, r3, ror #26
     7d4:	01c10300 	biceq	r0, r1, r0, lsl #6
     7d8:	720b0000 	andvc	r0, fp, #0
     7dc:	02007465 	andeq	r7, r0, #1694498816	; 0x65000000
     7e0:	00005d63 	andeq	r5, r0, r3, ror #26
     7e4:	c60d0000 	strgt	r0, [sp], -r0
     7e8:	01000002 	tsteq	r0, r2
     7ec:	01d70332 	bicseq	r0, r7, r2, lsr r3
     7f0:	760c0000 	strvc	r0, [ip], -r0
     7f4:	5d320100 	ldfpls	f0, [r2, #-0]
     7f8:	00000000 	andeq	r0, r0, r0
     7fc:	0003350a 	andeq	r3, r3, sl, lsl #10
     800:	5d8d0100 	stfpls	f0, [sp]
     804:	03000000 	movweq	r0, #0
     808:	000001f3 	strdeq	r0, [r0], -r3
     80c:	7465720b 	strbtvc	r7, [r5], #-523	; 0x20b
     810:	5d8d0100 	stfpls	f0, [sp]
     814:	00000000 	andeq	r0, r0, r0
     818:	0002f70d 	andeq	pc, r2, sp, lsl #14
     81c:	038e0100 	orreq	r0, lr, #0, 2
     820:	00000209 	andeq	r0, r0, r9, lsl #4
     824:	0100760c 	tsteq	r0, ip, lsl #12
     828:	00005d8e 	andeq	r5, r0, lr, lsl #27
     82c:	ad0d0000 	stcge	0, cr0, [sp, #-0]
     830:	01000003 	tsteq	r0, r3
     834:	021f038c 	andseq	r0, pc, #140, 6	; 0x30000002
     838:	760c0000 	strvc	r0, [ip], -r0
     83c:	5d8c0100 	stfpls	f0, [ip]
     840:	00000000 	andeq	r0, r0, r0
     844:	0002b20a 	andeq	fp, r2, sl, lsl #4
     848:	2ca90200 	sfmcs	f0, 4, [r9]
     84c:	03000000 	movweq	r0, #0
     850:	00000239 	andeq	r0, r0, r9, lsr r2
     854:	0200720b 	andeq	r7, r0, #-1342177280	; 0xb0000000
     858:	00002caa 	andeq	r2, r0, sl, lsr #25
     85c:	600a0000 	andvs	r0, sl, r0
     860:	02000003 	andeq	r0, r0, #3
     864:	00005d97 	muleq	r0, r7, sp
     868:	02550300 	subseq	r0, r5, #0, 6
     86c:	720b0000 	andvc	r0, fp, #0
     870:	02007465 	andeq	r7, r0, #1694498816	; 0x65000000
     874:	00005d97 	muleq	r0, r7, sp
     878:	0e0f0000 	cdpeq	0, 0, cr0, cr15, cr0, {0}
     87c:	01000003 	tsteq	r0, r3
     880:	00827436 	addeq	r7, r2, r6, lsr r4
     884:	0000b000 	andeq	fp, r0, r0
     888:	309c0100 	addscc	r0, ip, r0, lsl #2
     88c:	10000004 	andne	r0, r0, r4
     890:	0000020f 	andeq	r0, r0, pc, lsl #4
     894:	007d3601 	rsbseq	r3, sp, r1, lsl #12
     898:	007b0000 	rsbseq	r0, fp, r0
     89c:	61100000 	tstvs	r0, r0
     8a0:	01000004 	tsteq	r0, r4
     8a4:	00009136 	andeq	r9, r0, r6, lsr r1
     8a8:	0000c000 	andeq	ip, r0, r0
     8ac:	02cf1100 	sbceq	r1, pc, #0, 2
     8b0:	39010000 	stmdbcc	r1, {}	; <UNPREDICTABLE>
     8b4:	0000005d 	andeq	r0, r0, sp, asr r0
     8b8:	00000105 	andeq	r0, r0, r5, lsl #2
     8bc:	00017612 	andeq	r7, r1, r2, lsl r6
     8c0:	00044000 	andeq	r4, r4, r0
     8c4:	98030500 	stmdals	r3, {r8, sl}
     8c8:	1100009c 	swpne	r0, ip, [r0]	; <UNPREDICTABLE>
     8cc:	00000305 	andeq	r0, r0, r5, lsl #6
     8d0:	005d4301 	subseq	r4, sp, r1, lsl #6
     8d4:	01310000 	teqeq	r1, r0
     8d8:	0f130000 	svceq	0x00130000
     8dc:	7c000001 	stcvc	0, cr0, [r0], {1}
     8e0:	04000082 	streq	r0, [r0], #-130	; 0x82
     8e4:	01000000 	mrseq	r0, (UNDEF: 0)
     8e8:	0002dc39 	andeq	sp, r2, r9, lsr ip
     8ec:	827c1400 	rsbshi	r1, ip, #0, 8
     8f0:	00040000 	andeq	r0, r4, r0
     8f4:	1f150000 	svcne	0x00150000
     8f8:	5d000001 	stcpl	0, cr0, [r0, #-4]
     8fc:	00000001 	andeq	r0, r0, r1
     900:	012b1300 	teqeq	fp, r0, lsl #6
     904:	82840000 	addhi	r0, r4, #0
     908:	00040000 	andeq	r0, r4, r0
     90c:	3f010000 	svccc	0x00010000
     910:	000002f9 	strdeq	r0, [r0], -r9
     914:	00013716 	andeq	r3, r1, r6, lsl r7
     918:	00017000 	andeq	r7, r1, r0
     91c:	0f130000 	svceq	0x00130000
     920:	88000001 	stmdahi	r0, {r0}
     924:	04000082 	streq	r0, [r0], #-130	; 0x82
     928:	01000000 	mrseq	r0, (UNDEF: 0)
     92c:	00032041 	andeq	r2, r3, r1, asr #32
     930:	82881400 	addhi	r1, r8, #0, 8
     934:	00040000 	andeq	r0, r4, r0
     938:	1f150000 	svcne	0x00150000
     93c:	8e000001 	cdphi	0, 0, cr0, cr0, cr1, {0}
     940:	00000001 	andeq	r0, r0, r1
     944:	01411300 	mrseq	r1, (UNDEF: 113)
     948:	82b80000 	adcshi	r0, r8, #0
     94c:	00040000 	andeq	r0, r4, r0
     950:	46010000 	strmi	r0, [r1], -r0
     954:	0000033d 	andeq	r0, r0, sp, lsr r3
     958:	00014d16 	andeq	r4, r1, r6, lsl sp
     95c:	00013100 	andeq	r3, r1, r0, lsl #2
     960:	2b130000 	blcs	4c0968 <__bss_end__+0x4b6330>
     964:	bc000001 	stclt	0, cr0, [r0], {1}
     968:	08000082 	stmdaeq	r0, {r1, r7}
     96c:	01000000 	mrseq	r0, (UNDEF: 0)
     970:	00035850 	andeq	r5, r3, r0, asr r8
     974:	01371700 	teqeq	r7, r0, lsl #14
     978:	01ff0000 	mvnseq	r0, r0
     97c:	010f1300 	mrseq	r1, SP_hyp
     980:	82c40000 	sbchi	r0, r4, #0
     984:	00040000 	andeq	r0, r4, r0
     988:	52010000 	andpl	r0, r1, #0
     98c:	0000037f 	andeq	r0, r0, pc, ror r3
     990:	0082c414 	addeq	ip, r2, r4, lsl r4
     994:	00000400 	andeq	r0, r0, r0, lsl #8
     998:	011f1500 	tsteq	pc, r0, lsl #10
     99c:	01ac0000 			; <UNDEFINED> instruction: 0x01ac0000
     9a0:	00000000 	andeq	r0, r0, r0
     9a4:	00015713 	andeq	r5, r1, r3, lsl r7
     9a8:	0082f400 	addeq	pc, r2, r0, lsl #8
     9ac:	00000800 	andeq	r0, r0, r0, lsl #16
     9b0:	99540100 	ldmdbls	r4, {r8}^
     9b4:	18000003 	stmdane	r0, {r0, r1}
     9b8:	00000163 	andeq	r0, r0, r3, ror #2
     9bc:	98190000 	ldmdals	r9, {}	; <UNPREDICTABLE>
     9c0:	af000082 	svcge	0x00000082
     9c4:	1a00000b 	bne	9f8 <__code_start__-0x7608>
     9c8:	000082b4 			; <UNDEFINED> instruction: 0x000082b4
     9cc:	00000bb6 			; <UNDEFINED> instruction: 0x00000bb6
     9d0:	000003db 	ldrdeq	r0, [r0], -fp
     9d4:	0253011b 	subseq	r0, r3, #-1073741818	; 0xc0000006
     9d8:	011b4108 	tsteq	fp, r8, lsl #2
     9dc:	98030552 	stmdals	r3, {r1, r4, r6, r8, sl}
     9e0:	1b00009c 	blne	c58 <__code_start__-0x73a8>
     9e4:	03055101 	movweq	r5, #20737	; 0x5101
     9e8:	00009b70 	andeq	r9, r0, r0, ror fp
     9ec:	0550011b 	ldrbeq	r0, [r0, #-283]	; 0x11b
     9f0:	009a7803 	addseq	r7, sl, r3, lsl #16
     9f4:	7d021b00 	vstrvc	d1, [r2, #-0]
     9f8:	80030500 	andhi	r0, r3, r0, lsl #10
     9fc:	0000009b 	muleq	r0, fp, r0
     a00:	0082b819 	addeq	fp, r2, r9, lsl r8
     a04:	000bcc00 	andeq	ip, fp, r0, lsl #24
     a08:	82d41900 	sbcshi	r1, r4, #0, 18
     a0c:	0baf0000 	bleq	febc0a14 <__bss_end__+0xfebb63dc>
     a10:	f01a0000 			; <UNDEFINED> instruction: 0xf01a0000
     a14:	b6000082 	strlt	r0, [r0], -r2, lsl #1
     a18:	2600000b 	strcs	r0, [r0], -fp
     a1c:	1b000004 	blne	a34 <__code_start__-0x75cc>
     a20:	08025301 	stmdaeq	r2, {r0, r8, r9, ip, lr}
     a24:	52011b52 	andpl	r1, r1, #83968	; 0x14800
     a28:	9c980305 	ldcls	3, cr0, [r8], {5}
     a2c:	011b0000 	tsteq	fp, r0
     a30:	70030551 	andvc	r0, r3, r1, asr r5
     a34:	1b00009b 	blne	ca8 <__code_start__-0x7358>
     a38:	03055001 	movweq	r5, #20481	; 0x5001
     a3c:	00009a78 	andeq	r9, r0, r8, ror sl
     a40:	007d021b 	rsbseq	r0, sp, fp, lsl r2
     a44:	9b800305 	blls	fe001660 <__bss_end__+0xfdff7028>
     a48:	19000000 	stmdbne	r0, {}	; <UNPREDICTABLE>
     a4c:	000082f4 	strdeq	r8, [r0], -r4
     a50:	00000bcc 	andeq	r0, r0, ip, asr #23
     a54:	007f1c00 	rsbseq	r1, pc, r0, lsl #24
     a58:	04400000 	strbeq	r0, [r0], #-0
     a5c:	761d0000 	ldrvc	r0, [sp], -r0
     a60:	0c000000 	stceq	0, cr0, [r0], {-0}
     a64:	04300700 	ldrteq	r0, [r0], #-1792	; 0x700
     a68:	910a0000 	mrsls	r0, (UNDEF: 10)
     a6c:	02000002 	andeq	r0, r0, #2
     a70:	00002c76 	andeq	r2, r0, r6, ror ip
     a74:	046c0300 	strbteq	r0, [ip], #-768	; 0x300
     a78:	720b0000 	andvc	r0, fp, #0
     a7c:	2c770200 	lfmcs	f0, 2, [r7], #-0
     a80:	1e000000 	cdpne	0, 0, cr0, cr0, cr0, {0}
     a84:	00000176 	andeq	r0, r0, r6, ror r1
     a88:	0000047c 	andeq	r0, r0, ip, ror r4
     a8c:	00000291 	muleq	r0, r1, r2
     a90:	007f1c00 	rsbseq	r1, pc, r0, lsl #24
     a94:	047c0000 	ldrbteq	r0, [ip], #-0
     a98:	761d0000 	ldrvc	r0, [sp], -r0
     a9c:	13000000 	movwne	r0, #0
     aa0:	046c0700 	strbteq	r0, [ip], #-1792	; 0x700
     aa4:	690f0000 	stmdbvs	pc, {}	; <UNPREDICTABLE>
     aa8:	01000002 	tsteq	r0, r2
     aac:	00832459 	addeq	r2, r3, r9, asr r4
     ab0:	0000dc00 	andeq	sp, r0, r0, lsl #24
     ab4:	b09c0100 	addslt	r0, ip, r0, lsl #2
     ab8:	1f000006 	svcne	0x00000006
     abc:	01006370 	tsteq	r0, r0, ror r3
     ac0:	00002c59 	andeq	r2, r0, r9, asr ip
     ac4:	0001ca00 	andeq	ip, r1, r0, lsl #20
     ac8:	03d82000 	bicseq	r2, r8, #0
     acc:	5a010000 	bpl	40ad4 <__bss_end__+0x3649c>
     ad0:	00000025 	andeq	r0, r0, r5, lsr #32
     ad4:	a2240305 	eorge	r0, r4, #335544320	; 0x14000000
     ad8:	76120000 	ldrvc	r0, [r2], -r0
     adc:	c0000001 	andgt	r0, r0, r1
     ae0:	05000006 	streq	r0, [r0, #-6]
     ae4:	009ca803 	addseq	sl, ip, r3, lsl #16
     ae8:	02100e00 	andseq	r0, r0, #0, 28
     aec:	6b010000 	blvs	40af4 <__bss_end__+0x364bc>
     af0:	0000005d 	andeq	r0, r0, sp, asr r0
     af4:	00016d13 	andeq	r6, r1, r3, lsl sp
     af8:	00833000 	addeq	r3, r3, r0
     afc:	00000400 	andeq	r0, r0, r0, lsl #8
     b00:	115c0100 	cmpne	ip, r0, lsl #2
     b04:	14000005 	strne	r0, [r0], #-5
     b08:	00008330 	andeq	r8, r0, r0, lsr r3
     b0c:	00000004 	andeq	r0, r0, r4
     b10:	00017d21 	andeq	r7, r1, r1, lsr #26
     b14:	00bd2200 	adcseq	r2, sp, r0, lsl #4
     b18:	83300000 	teqhi	r0, #0
     b1c:	00040000 	andeq	r0, r4, r0
     b20:	67020000 	strvs	r0, [r2, -r0]
     b24:	00833014 	addeq	r3, r3, r4, lsl r0
     b28:	00000400 	andeq	r0, r0, r0, lsl #8
     b2c:	00cd2100 	sbceq	r2, sp, r0, lsl #2
     b30:	00000000 	andeq	r0, r0, r0
     b34:	45130000 	ldrmi	r0, [r3, #-0]
     b38:	34000004 	strcc	r0, [r0], #-4
     b3c:	2c000083 	stccs	0, cr0, [r0], {131}	; 0x83
     b40:	01000000 	mrseq	r0, (UNDEF: 0)
     b44:	0005c462 	andeq	ip, r5, r2, ror #8
     b48:	83341400 	teqhi	r4, #0, 8
     b4c:	002c0000 	eoreq	r0, ip, r0
     b50:	55210000 	strpl	r0, [r1, #-0]!
     b54:	23000004 	movwcs	r0, #4
     b58:	0000045e 	andeq	r0, r0, lr, asr r4
     b5c:	9cbc0305 	ldcls	3, cr0, [ip], #20
     b60:	bd130000 	ldclt	0, cr0, [r3, #-0]
     b64:	34000000 	strcc	r0, [r0], #-0
     b68:	04000083 	streq	r0, [r0], #-131	; 0x83
     b6c:	02000000 	andeq	r0, r0, #0
     b70:	00056477 	andeq	r6, r5, r7, ror r4
     b74:	83341400 	teqhi	r4, #0, 8
     b78:	00040000 	andeq	r0, r4, r0
     b7c:	cd150000 	ldcgt	0, cr0, [r5, #-0]
     b80:	41000000 	mrsmi	r0, (UNDEF: 0)
     b84:	00000002 	andeq	r0, r0, r2
     b88:	00f51300 	rscseq	r1, r5, r0, lsl #6
     b8c:	83380000 	teqhi	r8, #0
     b90:	00040000 	andeq	r0, r4, r0
     b94:	78020000 	stmdavc	r2, {}	; <UNPREDICTABLE>
     b98:	00000581 	andeq	r0, r0, r1, lsl #11
     b9c:	00010516 	andeq	r0, r1, r6, lsl r5
     ba0:	00024100 	andeq	r4, r2, r0, lsl #2
     ba4:	48190000 	ldmdami	r9, {}	; <UNPREDICTABLE>
     ba8:	af000083 	svcge	0x00000083
     bac:	1a00000b 	bne	be0 <__code_start__-0x7420>
     bb0:	0000835c 	andeq	r8, r0, ip, asr r3
     bb4:	00000bb6 			; <UNDEFINED> instruction: 0x00000bb6
     bb8:	000005b9 			; <UNDEFINED> instruction: 0x000005b9
     bbc:	0253011b 	subseq	r0, r3, #-1073741818	; 0xc0000006
     bc0:	011b7908 	tsteq	fp, r8, lsl #18
     bc4:	bc030552 	cfstr32lt	mvfx0, [r3], {82}	; 0x52
     bc8:	1b00009c 	blne	e40 <__code_start__-0x71c0>
     bcc:	03055101 	movweq	r5, #20737	; 0x5101
     bd0:	00009bd0 	ldrdeq	r9, [r0], -r0
     bd4:	0550011b 	ldrbeq	r0, [r0, #-283]	; 0x11b
     bd8:	009b9803 	addseq	r9, fp, r3, lsl #16
     bdc:	60190000 	andsvs	r0, r9, r0
     be0:	cc000083 	stcgt	0, cr0, [r0], {131}	; 0x83
     be4:	0000000b 	andeq	r0, r0, fp
     be8:	01891300 	orreq	r1, r9, r0, lsl #6
     bec:	83600000 	cmnhi	r0, #0
     bf0:	00040000 	andeq	r0, r4, r0
     bf4:	67010000 	strvs	r0, [r1, -r0]
     bf8:	000005eb 	andeq	r0, r0, fp, ror #11
     bfc:	00836014 	addeq	r6, r3, r4, lsl r0
     c00:	00000400 	andeq	r0, r0, r0, lsl #8
     c04:	01991500 	orrseq	r1, r9, r0, lsl #10
     c08:	02540000 	subseq	r0, r4, #0
     c0c:	00000000 	andeq	r0, r0, r0
     c10:	0001a513 	andeq	sl, r1, r3, lsl r5
     c14:	0083c800 	addeq	ip, r3, r0, lsl #16
     c18:	00000400 	andeq	r0, r0, r0, lsl #8
     c1c:	0e6b0100 	poweqe	f0, f3, f0
     c20:	14000006 	strne	r0, [r0], #-6
     c24:	000083c8 	andeq	r8, r0, r8, asr #7
     c28:	00000004 	andeq	r0, r0, r4
     c2c:	0001b521 	andeq	fp, r1, r1, lsr #10
     c30:	19000000 	stmdbne	r0, {}	; <UNPREDICTABLE>
     c34:	00008374 	andeq	r8, r0, r4, ror r3
     c38:	00000baf 	andeq	r0, r0, pc, lsr #23
     c3c:	0083901a 	addeq	r9, r3, sl, lsl r0
     c40:	000bb600 	andeq	fp, fp, r0, lsl #12
     c44:	00065000 	andeq	r5, r6, r0
     c48:	53011b00 	movwpl	r1, #6912	; 0x1b00
     c4c:	1b670802 	blne	19c2c5c <__bss_end__+0x19b8624>
     c50:	03055201 	movweq	r5, #20993	; 0x5201
     c54:	00009ca8 	andeq	r9, r0, r8, lsr #25
     c58:	0551011b 	ldrbeq	r0, [r1, #-283]	; 0x11b
     c5c:	009b7003 	addseq	r7, fp, r3
     c60:	50011b00 	andpl	r1, r1, r0, lsl #22
     c64:	9a780305 	bls	1e01880 <__bss_end__+0x1df7248>
     c68:	021b0000 	andseq	r0, fp, #0
     c6c:	0305007d 	movweq	r0, #20605	; 0x507d
     c70:	00009be0 	andeq	r9, r0, r0, ror #23
     c74:	83941900 	orrshi	r1, r4, #0, 18
     c78:	0bcc0000 	bleq	ff300c80 <__bss_end__+0xff2f6648>
     c7c:	a8190000 	ldmdage	r9, {}	; <UNPREDICTABLE>
     c80:	af000083 	svcge	0x00000083
     c84:	1a00000b 	bne	cb8 <__code_start__-0x7348>
     c88:	000083c4 	andeq	r8, r0, r4, asr #7
     c8c:	00000bb6 			; <UNDEFINED> instruction: 0x00000bb6
     c90:	0000069b 	muleq	r0, fp, r6
     c94:	0253011b 	subseq	r0, r3, #-1073741818	; 0xc0000006
     c98:	011b6908 	tsteq	fp, r8, lsl #18
     c9c:	a8030552 	stmdage	r3, {r1, r4, r6, r8, sl}
     ca0:	1b00009c 	blne	f18 <__code_start__-0x70e8>
     ca4:	03055101 	movweq	r5, #20737	; 0x5101
     ca8:	00009b70 	andeq	r9, r0, r0, ror fp
     cac:	0550011b 	ldrbeq	r0, [r0, #-283]	; 0x11b
     cb0:	009a7803 	addseq	r7, sl, r3, lsl #16
     cb4:	7d021b00 	vstrvc	d1, [r2, #-0]
     cb8:	f4030500 	vst3.8	{d0,d2,d4}, [r3], r0
     cbc:	0000009b 	muleq	r0, fp, r0
     cc0:	0083c819 	addeq	ip, r3, r9, lsl r8
     cc4:	000bcc00 	andeq	ip, fp, r0, lsl #24
     cc8:	83d42400 	bicshi	r2, r4, #0, 8
     ccc:	011b0000 	tsteq	fp, r0
     cd0:	00300150 	eorseq	r0, r0, r0, asr r1
     cd4:	007f1c00 	rsbseq	r1, pc, r0, lsl #24
     cd8:	06c00000 	strbeq	r0, [r0], r0
     cdc:	761d0000 	ldrvc	r0, [sp], -r0
     ce0:	11000000 	mrsne	r0, (UNDEF: 0)
     ce4:	06b00700 	ldrteq	r0, [r0], r0, lsl #14
     ce8:	cc0f0000 	stcgt	0, cr0, [pc], {-0}
     cec:	01000003 	tsteq	r0, r3
     cf0:	00840072 	addeq	r0, r4, r2, ror r0
     cf4:	00003c00 	andeq	r3, r0, r0, lsl #24
     cf8:	359c0100 	ldrcc	r0, [ip, #256]	; 0x100
     cfc:	20000007 	andcs	r0, r0, r7
     d00:	000002e1 	andeq	r0, r0, r1, ror #5
     d04:	00257301 	eoreq	r7, r5, r1, lsl #6
     d08:	03050000 	movweq	r0, #20480	; 0x5000
     d0c:	0000a228 	andeq	sl, r0, r8, lsr #4
     d10:	01007625 	tsteq	r0, r5, lsr #12
     d14:	00005d7c 	andeq	r5, r0, ip, ror sp
     d18:	13800000 	orrne	r0, r0, #0
     d1c:	000001c1 	andeq	r0, r0, r1, asr #3
     d20:	00008424 	andeq	r8, r0, r4, lsr #8
     d24:	00000008 	andeq	r0, r0, r8
     d28:	07117e01 	ldreq	r7, [r1, -r1, lsl #28]
     d2c:	cd170000 	ldcgt	0, cr0, [r7, #-0]
     d30:	00000001 	andeq	r0, r0, r1
     d34:	57130080 	ldrpl	r0, [r3, -r0, lsl #1]
     d38:	2c000001 	stccs	0, cr0, [r0], {1}
     d3c:	10000084 	andne	r0, r0, r4, lsl #1
     d40:	01000000 	mrseq	r0, (UNDEF: 0)
     d44:	00072b80 	andeq	r2, r7, r0, lsl #23
     d48:	01631800 	cmneq	r3, r0, lsl #16
     d4c:	00000000 	andeq	r0, r0, r0
     d50:	00841819 	addeq	r1, r4, r9, lsl r8
     d54:	000bd300 	andeq	sp, fp, r0, lsl #6
     d58:	380f0000 	stmdacc	pc, {}	; <UNPREDICTABLE>
     d5c:	01000004 	tsteq	r0, r4
     d60:	00843ca8 	addeq	r3, r4, r8, lsr #25
     d64:	00003400 	andeq	r3, r0, r0, lsl #8
     d68:	119c0100 	orrsne	r0, ip, r0, lsl #2
     d6c:	26000008 	strcs	r0, [r0], -r8
     d70:	00000210 	andeq	r0, r0, r0, lsl r2
     d74:	005da801 	subseq	sl, sp, r1, lsl #16
     d78:	50010000 	andpl	r0, r1, r0
     d7c:	00046126 	andeq	r6, r4, r6, lsr #2
     d80:	91a80100 			; <UNDEFINED> instruction: 0x91a80100
     d84:	01000000 	mrseq	r0, (UNDEF: 0)
     d88:	04141151 	ldreq	r1, [r4], #-337	; 0x151
     d8c:	a9010000 	stmdbge	r1, {}	; <UNPREDICTABLE>
     d90:	0000005d 	andeq	r0, r0, sp, asr r0
     d94:	00000281 	andeq	r0, r0, r1, lsl #5
     d98:	0003e020 	andeq	lr, r3, r0, lsr #32
     d9c:	5db10100 	ldfpls	f0, [r1]
     da0:	01000000 	mrseq	r0, (UNDEF: 0)
     da4:	01d71350 	bicseq	r1, r7, r0, asr r3
     da8:	843c0000 	ldrthi	r0, [ip], #-0
     dac:	00040000 	andeq	r0, r4, r0
     db0:	a9010000 	stmdbge	r1, {}	; <UNPREDICTABLE>
     db4:	000007a7 	andeq	r0, r0, r7, lsr #15
     db8:	00843c14 	addeq	r3, r4, r4, lsl ip
     dbc:	00000400 	andeq	r0, r0, r0, lsl #8
     dc0:	01e71500 	mvneq	r1, r0, lsl #10
     dc4:	02a20000 	adceq	r0, r2, #0
     dc8:	00000000 	andeq	r0, r0, r0
     dcc:	0001f313 	andeq	pc, r1, r3, lsl r3	; <UNPREDICTABLE>
     dd0:	00844400 	addeq	r4, r4, r0, lsl #8
     dd4:	00000400 	andeq	r0, r0, r0, lsl #8
     dd8:	c4af0100 	strtgt	r0, [pc], #256	; de0 <__code_start__-0x7220>
     ddc:	16000007 	strne	r0, [r0], -r7
     de0:	000001ff 	strdeq	r0, [r0], -pc	; <UNPREDICTABLE>
     de4:	000002b5 			; <UNDEFINED> instruction: 0x000002b5
     de8:	02091300 	andeq	r1, r9, #0, 6
     dec:	84480000 	strbhi	r0, [r8], #-0
     df0:	00040000 	andeq	r0, r4, r0
     df4:	b4010000 	strlt	r0, [r1], #-0
     df8:	000007df 	ldrdeq	r0, [r0], -pc	; <UNPREDICTABLE>
     dfc:	00021527 	andeq	r1, r2, r7, lsr #10
     e00:	00500100 	subseq	r0, r0, r0, lsl #2
     e04:	0001f313 	andeq	pc, r1, r3, lsl r3	; <UNPREDICTABLE>
     e08:	00844c00 	addeq	r4, r4, r0, lsl #24
     e0c:	00000800 	andeq	r0, r0, r0, lsl #16
     e10:	fabe0100 	blx	fef81218 <__bss_end__+0xfef76be0>
     e14:	17000007 	strne	r0, [r0, -r7]
     e18:	000001ff 	strdeq	r0, [r0], -pc	; <UNPREDICTABLE>
     e1c:	220001e7 	andcs	r0, r0, #-1073741767	; 0xc0000039
     e20:	00000157 	andeq	r0, r0, r7, asr r1
     e24:	00008454 	andeq	r8, r0, r4, asr r4
     e28:	00000008 	andeq	r0, r0, r8
     e2c:	6318bf01 	tstvs	r8, #1, 30
     e30:	00000001 	andeq	r0, r0, r1
     e34:	7b0f0000 	blvc	3c0e3c <__bss_end__+0x3b6804>
     e38:	01000002 	tsteq	r0, r2
     e3c:	008470c4 	addeq	r7, r4, r4, asr #1
     e40:	00009800 	andeq	r9, r0, r0, lsl #16
     e44:	449c0100 	ldrmi	r0, [ip], #256	; 0x100
     e48:	1f000009 	svcne	0x00000009
     e4c:	01006370 	tsteq	r0, r0, ror r3
     e50:	00002cc4 	andeq	r2, r0, r4, asr #25
     e54:	0002c800 	andeq	ip, r2, r0, lsl #16
     e58:	01761200 	cmneq	r6, r0, lsl #4
     e5c:	09540000 	ldmdbeq	r4, {}^	; <UNPREDICTABLE>
     e60:	03050000 	movweq	r0, #20480	; 0x5000
     e64:	00009cd0 	ldrdeq	r9, [r0], -r0
     e68:	00021f13 	andeq	r1, r2, r3, lsl pc
     e6c:	00847c00 	addeq	r7, r4, r0, lsl #24
     e70:	00000800 	andeq	r0, r0, r0, lsl #16
     e74:	89c60100 	stmibhi	r6, {r8}^
     e78:	14000008 	strne	r0, [r0], #-8
     e7c:	0000847c 	andeq	r8, r0, ip, ror r4
     e80:	00000008 	andeq	r0, r0, r8
     e84:	00022f21 	andeq	r2, r2, r1, lsr #30
     e88:	00d92200 	sbcseq	r2, r9, r0, lsl #4
     e8c:	847c0000 	ldrbthi	r0, [ip], #-0
     e90:	00040000 	andeq	r0, r4, r0
     e94:	aa020000 	bge	80e9c <__bss_end__+0x76864>
     e98:	00847c14 	addeq	r7, r4, r4, lsl ip
     e9c:	00000400 	andeq	r0, r0, r0, lsl #8
     ea0:	00e91500 	rsceq	r1, r9, r0, lsl #10
     ea4:	03260000 	teqeq	r6, #0
     ea8:	00000000 	andeq	r0, r0, r0
     eac:	39130000 	ldmdbcc	r3, {}	; <UNPREDICTABLE>
     eb0:	dc000002 	stcle	0, cr0, [r0], {2}
     eb4:	04000084 	streq	r0, [r0], #-132	; 0x84
     eb8:	01000000 	mrseq	r0, (UNDEF: 0)
     ebc:	0008acca 	andeq	sl, r8, sl, asr #25
     ec0:	84dc1400 	ldrbhi	r1, [ip], #1024	; 0x400
     ec4:	00040000 	andeq	r0, r4, r0
     ec8:	49210000 	stmdbmi	r1!, {}	; <UNPREDICTABLE>
     ecc:	00000002 	andeq	r0, r0, r2
     ed0:	84901900 	ldrhi	r1, [r0], #2304	; 0x900
     ed4:	0baf0000 	bleq	febc0edc <__bss_end__+0xfebb68a4>
     ed8:	a41a0000 	ldrge	r0, [sl], #-0
     edc:	b6000084 	strlt	r0, [r0], -r4, lsl #1
     ee0:	e400000b 	str	r0, [r0], #-11
     ee4:	1b000008 	blne	f0c <__code_start__-0x70f4>
     ee8:	08025301 	stmdaeq	r2, {r0, r8, r9, ip, lr}
     eec:	52011bc7 	andpl	r1, r1, #203776	; 0x31c00
     ef0:	9cd00305 	ldclls	3, cr0, [r0], {5}
     ef4:	011b0000 	tsteq	fp, r0
     ef8:	70030551 	andvc	r0, r3, r1, asr r5
     efc:	1b00009b 	blne	1170 <__code_start__-0x6e90>
     f00:	03055001 	movweq	r5, #20481	; 0x5001
     f04:	00009c08 	andeq	r9, r0, r8, lsl #24
     f08:	84a81900 	strthi	r1, [r8], #2304	; 0x900
     f0c:	0bcc0000 	bleq	ff300f14 <__bss_end__+0xff2f68dc>
     f10:	bc190000 	ldclt	0, cr0, [r9], {-0}
     f14:	af000084 	svcge	0x00000084
     f18:	1a00000b 	bne	f4c <__code_start__-0x70b4>
     f1c:	000084d8 	ldrdeq	r8, [r0], -r8	; <UNPREDICTABLE>
     f20:	00000bb6 			; <UNDEFINED> instruction: 0x00000bb6
     f24:	0000092f 	andeq	r0, r0, pc, lsr #18
     f28:	0253011b 	subseq	r0, r3, #-1073741818	; 0xc0000006
     f2c:	011bc808 	tsteq	fp, r8, lsl #16
     f30:	d0030552 	andle	r0, r3, r2, asr r5
     f34:	1b00009c 	blne	11ac <__code_start__-0x6e54>
     f38:	03055101 	movweq	r5, #20737	; 0x5101
     f3c:	00009b70 	andeq	r9, r0, r0, ror fp
     f40:	0550011b 	ldrbeq	r0, [r0, #-283]	; 0x11b
     f44:	009a7803 	addseq	r7, sl, r3, lsl #16
     f48:	7d021b00 	vstrvc	d1, [r2, #-0]
     f4c:	40030500 	andmi	r0, r3, r0, lsl #10
     f50:	0000009c 	muleq	r0, ip, r0
     f54:	0084dc19 	addeq	sp, r4, r9, lsl ip
     f58:	000bcc00 	andeq	ip, fp, r0, lsl #24
     f5c:	84e82400 	strbthi	r2, [r8], #1024	; 0x400
     f60:	011b0000 	tsteq	fp, r0
     f64:	00300150 	eorseq	r0, r0, r0, asr r1
     f68:	007f1c00 	rsbseq	r1, pc, r0, lsl #24
     f6c:	09540000 	ldmdbeq	r4, {}^	; <UNPREDICTABLE>
     f70:	761d0000 	ldrvc	r0, [sp], -r0
     f74:	15000000 	strne	r0, [r0, #-0]
     f78:	09440700 	stmdbeq	r4, {r8, r9, sl}^
     f7c:	980f0000 	stmdals	pc, {}	; <UNPREDICTABLE>
     f80:	01000007 	tsteq	r0, r7
     f84:	008508cd 	addeq	r0, r5, sp, asr #17
     f88:	00000400 	andeq	r0, r0, r0, lsl #8
     f8c:	7b9c0100 	blvc	fe701394 <__bss_end__+0xfe6f6d5c>
     f90:	28000009 	stmdacs	r0, {r0, r3}
     f94:	01006370 	tsteq	r0, r0, ror r3
     f98:	00002ccd 	andeq	r2, r0, sp, asr #25
     f9c:	00500100 	subseq	r0, r0, r0, lsl #2
     fa0:	0003240f 	andeq	r2, r3, pc, lsl #8
     fa4:	0cd80100 	ldfeqe	f0, [r8], {0}
     fa8:	2c000085 	stccs	0, cr0, [r0], {133}	; 0x85
     fac:	01000000 	mrseq	r0, (UNDEF: 0)
     fb0:	0009e19c 	muleq	r9, ip, r1
     fb4:	01761200 	cmneq	r6, r0, lsl #4
     fb8:	09f10000 	ldmibeq	r1!, {}^	; <UNPREDICTABLE>
     fbc:	03050000 	movweq	r0, #20480	; 0x5000
     fc0:	00009ce8 	andeq	r9, r0, r8, ror #25
     fc4:	00851419 	addeq	r1, r5, r9, lsl r4
     fc8:	000baf00 	andeq	sl, fp, r0, lsl #30
     fcc:	85281a00 	strhi	r1, [r8, #-2560]!	; 0xa00
     fd0:	0bb60000 	bleq	fed80fd8 <__bss_end__+0xfed769a0>
     fd4:	09d70000 	ldmibeq	r7, {}^	; <UNPREDICTABLE>
     fd8:	011b0000 	tsteq	fp, r0
     fdc:	d9080253 	stmdble	r8, {r0, r1, r4, r6, r9}
     fe0:	0552011b 	ldrbeq	r0, [r2, #-283]	; 0x11b
     fe4:	009ce803 	addseq	lr, ip, r3, lsl #16
     fe8:	51011b00 	tstpl	r1, r0, lsl #22
     fec:	9b700305 	blls	1c01c08 <__bss_end__+0x1bf75d0>
     ff0:	011b0000 	tsteq	fp, r0
     ff4:	50030550 	andpl	r0, r3, r0, asr r5
     ff8:	0000009c 	muleq	r0, ip, r0
     ffc:	00852c19 	addeq	r2, r5, r9, lsl ip
    1000:	000bcc00 	andeq	ip, fp, r0, lsl #24
    1004:	7f1c0000 	svcvc	0x001c0000
    1008:	f1000000 	cps	#0
    100c:	1d000009 	stcne	0, cr0, [r0, #-36]	; 0xffffffdc
    1010:	00000076 	andeq	r0, r0, r6, ror r0
    1014:	e1070010 	tst	r7, r0, lsl r0
    1018:	0f000009 	svceq	0x00000009
    101c:	00000343 	andeq	r0, r0, r3, asr #6
    1020:	8538dc01 	ldrhi	sp, [r8, #-3073]!	; 0xc01
    1024:	00340000 	eorseq	r0, r4, r0
    1028:	9c010000 	stcls	0, cr0, [r1], {-0}
    102c:	00000ad4 	ldrdeq	r0, [r0], -r4
    1030:	00021026 	andeq	r1, r2, r6, lsr #32
    1034:	5ddc0100 	ldfple	f0, [ip]
    1038:	01000000 	mrseq	r0, (UNDEF: 0)
    103c:	04612650 	strbteq	r2, [r1], #-1616	; 0x650
    1040:	dc010000 	stcle	0, cr0, [r1], {-0}
    1044:	00000091 	muleq	r0, r1, r0
    1048:	14115101 	ldrne	r5, [r1], #-257	; 0x101
    104c:	01000004 	tsteq	r0, r4
    1050:	00005ddd 	ldrdeq	r5, [r0], -sp
    1054:	00033900 	andeq	r3, r3, r0, lsl #18
    1058:	03e02000 	mvneq	r2, #0
    105c:	e5010000 	str	r0, [r1, #-0]
    1060:	0000005d 	andeq	r0, r0, sp, asr r0
    1064:	d7135001 	ldrle	r5, [r3, -r1]
    1068:	38000001 	stmdacc	r0, {r0}
    106c:	04000085 	streq	r0, [r0], #-133	; 0x85
    1070:	01000000 	mrseq	r0, (UNDEF: 0)
    1074:	000a68dd 	ldrdeq	r6, [sl], -sp
    1078:	85381400 	ldrhi	r1, [r8, #-1024]!	; 0x400
    107c:	00040000 	andeq	r0, r4, r0
    1080:	e7150000 	ldr	r0, [r5, -r0]
    1084:	5c000001 	stcpl	0, cr0, [r0], {1}
    1088:	00000003 	andeq	r0, r0, r3
    108c:	01f31300 	mvnseq	r1, r0, lsl #6
    1090:	85400000 	strbhi	r0, [r0, #-0]
    1094:	00040000 	andeq	r0, r4, r0
    1098:	e3010000 	movw	r0, #4096	; 0x1000
    109c:	00000a85 	andeq	r0, r0, r5, lsl #21
    10a0:	0001ff16 	andeq	pc, r1, r6, lsl pc	; <UNPREDICTABLE>
    10a4:	00036f00 	andeq	r6, r3, r0, lsl #30
    10a8:	09130000 	ldmdbeq	r3, {}	; <UNPREDICTABLE>
    10ac:	44000002 	strmi	r0, [r0], #-2
    10b0:	04000085 	streq	r0, [r0], #-133	; 0x85
    10b4:	01000000 	mrseq	r0, (UNDEF: 0)
    10b8:	000aa0e8 	andeq	sl, sl, r8, ror #1
    10bc:	02152700 	andseq	r2, r5, #0, 14
    10c0:	50010000 	andpl	r0, r1, r0
    10c4:	01f31300 	mvnseq	r1, r0, lsl #6
    10c8:	85480000 	strbhi	r0, [r8, #-0]
    10cc:	00080000 	andeq	r0, r8, r0
    10d0:	f2010000 	vhadd.s8	d0, d1, d0
    10d4:	00000abd 			; <UNDEFINED> instruction: 0x00000abd
    10d8:	0001ff29 	andeq	pc, r1, r9, lsr #30
    10dc:	4001e700 	andmi	lr, r1, r0, lsl #14
    10e0:	57220000 	strpl	r0, [r2, -r0]!
    10e4:	50000001 	andpl	r0, r0, r1
    10e8:	08000085 	stmdaeq	r0, {r0, r2, r7}
    10ec:	01000000 	mrseq	r0, (UNDEF: 0)
    10f0:	016318f3 	strdeq	r1, [r3, #-131]!	; 0xffffff7d
    10f4:	00000000 	andeq	r0, r0, r0
    10f8:	03830f00 	orreq	r0, r3, #0, 30
    10fc:	f8010000 			; <UNDEFINED> instruction: 0xf8010000
    1100:	0000856c 	andeq	r8, r0, ip, ror #10
    1104:	00000010 	andeq	r0, r0, r0, lsl r0
    1108:	0b209c01 	bleq	828114 <__bss_end__+0x81dadc>
    110c:	10260000 	eorne	r0, r6, r0
    1110:	01000002 	tsteq	r0, r2
    1114:	00005df8 	strdeq	r5, [r0], -r8
    1118:	2a500100 	bcs	1401520 <__bss_end__+0x13f6ee8>
    111c:	00000414 	andeq	r0, r0, r4, lsl r4
    1120:	005df901 	subseq	pc, sp, r1, lsl #18
    1124:	01e60000 	mvneq	r0, r0
    1128:	f32b0040 	vhadd.u32	q0, <illegal reg q5.5>, q0
    112c:	6c000001 	stcvs	0, cr0, [r0], {1}
    1130:	10000085 	andne	r0, r0, r5, lsl #1
    1134:	01000000 	mrseq	r0, (UNDEF: 0)
    1138:	ff290100 			; <UNDEFINED> instruction: 0xff290100
    113c:	e6000001 	str	r0, [r0], -r1
    1140:	00004001 	andeq	r4, r0, r1
    1144:	03f22c00 	mvnseq	r2, #0, 24
    1148:	09010000 	stmdbeq	r1, {}	; <UNPREDICTABLE>
    114c:	00002501 	andeq	r2, r0, r1, lsl #10
    1150:	00857c00 	addeq	r7, r5, r0, lsl #24
    1154:	00007000 	andeq	r7, r0, r0
    1158:	7c9c0100 	ldfvcs	f0, [ip], {0}
    115c:	2d00000b 	stccs	0, cr0, [r0, #-44]	; 0xffffffd4
    1160:	01006370 	tsteq	r0, r0, ror r3
    1164:	002c0109 	eoreq	r0, ip, r9, lsl #2
    1168:	03820000 	orreq	r0, r2, #0
    116c:	722d0000 	eorvc	r0, sp, #0
    1170:	09010030 	stmdbeq	r1, {r4, r5}
    1174:	00005d01 	andeq	r5, r0, r1, lsl #26
    1178:	00040700 	andeq	r0, r4, r0, lsl #14
    117c:	04302e00 	ldrteq	r2, [r0], #-3584	; 0xe00
    1180:	0a010000 	beq	41188 <__bss_end__+0x36b50>
    1184:	00005d01 	andeq	r5, r0, r1, lsl #26
    1188:	00043300 	andeq	r3, r4, r0, lsl #6
    118c:	85d02f00 	ldrbhi	r2, [r0, #3840]	; 0xf00
    1190:	0bb60000 	bleq	fed81198 <__bss_end__+0xfed76b60>
    1194:	011b0000 	tsteq	fp, r0
    1198:	80030550 	andhi	r0, r3, r0, asr r5
    119c:	0000009c 	muleq	r0, ip, r0
    11a0:	03722000 	cmneq	r2, #0
    11a4:	0b010000 	bleq	411ac <__bss_end__+0x36b74>
    11a8:	00000091 	muleq	r0, r1, r0
    11ac:	a2180305 	andsge	r0, r8, #335544320	; 0x14000000
    11b0:	e8200000 	stmda	r0!, {}	; <UNPREDICTABLE>
    11b4:	01000002 	tsteq	r0, r2
    11b8:	00009189 	andeq	r9, r0, r9, lsl #3
    11bc:	1c030500 	cfstr32ne	mvfx0, [r3], {-0}
    11c0:	300000a2 	andcc	r0, r0, r2, lsr #1
    11c4:	00000154 	andeq	r0, r0, r4, asr r1
    11c8:	0025d501 	eoreq	sp, r5, r1, lsl #10
    11cc:	03050000 	movweq	r0, #20480	; 0x5000
    11d0:	0000a220 	andeq	sl, r0, r0, lsr #4
    11d4:	00025a31 	andeq	r5, r2, r1, lsr sl
    11d8:	321e0400 	andscc	r0, lr, #0, 8
    11dc:	000005ad 	andeq	r0, r0, sp, lsr #11
    11e0:	00252904 	eoreq	r2, r5, r4, lsl #18
    11e4:	0bcc0000 	bleq	ff3011ec <__bss_end__+0xff2f6bb4>
    11e8:	86090000 	strhi	r0, [r9], -r0
    11ec:	33000000 	movwcc	r0, #0
    11f0:	01293100 	teqeq	r9, r0, lsl #2
    11f4:	65040000 	strvs	r0, [r4, #-0]
    11f8:	00044c31 	andeq	r4, r4, r1, lsr ip
    11fc:	00360500 	eorseq	r0, r6, r0, lsl #10
    1200:	00000e74 	andeq	r0, r0, r4, ror lr
    1204:	05000004 	streq	r0, [r0, #-4]
    1208:	01040000 	mrseq	r0, (UNDEF: 4)
    120c:	0000009d 	muleq	r0, sp, r0
    1210:	00047401 	andeq	r7, r4, r1, lsl #8
    1214:	00002800 	andeq	r2, r0, r0, lsl #16
    1218:	00872400 	addeq	r2, r7, r0, lsl #8
    121c:	00070800 	andeq	r0, r7, r0, lsl #16
    1220:	00037000 	andeq	r7, r3, r0
    1224:	05040200 	streq	r0, [r4, #-512]	; 0x200
    1228:	00746e69 	rsbseq	r6, r4, r9, ror #28
    122c:	c5070403 	strgt	r0, [r7, #-1027]	; 0x403
    1230:	03000001 	movweq	r0, #1
    1234:	011d0601 	tsteq	sp, r1, lsl #12
    1238:	02030000 	andeq	r0, r3, #0
    123c:	00016c05 	andeq	r6, r1, r5, lsl #24
    1240:	05040300 	streq	r0, [r4, #-768]	; 0x300
    1244:	000001f5 	strdeq	r0, [r0], -r5
    1248:	f0050803 			; <UNDEFINED> instruction: 0xf0050803
    124c:	03000001 	movweq	r0, #1
    1250:	011b0801 	tsteq	fp, r1, lsl #16
    1254:	02030000 	andeq	r0, r3, #0
    1258:	00014107 	andeq	r4, r1, r7, lsl #2
    125c:	023a0400 	eorseq	r0, sl, #0, 8
    1260:	34060000 	strcc	r0, [r6], #-0
    1264:	00000068 	andeq	r0, r0, r8, rrx
    1268:	c0070403 	andgt	r0, r7, r3, lsl #8
    126c:	03000001 	movweq	r0, #1
    1270:	01bb0708 			; <UNDEFINED> instruction: 0x01bb0708
    1274:	04030000 	streq	r0, [r3], #-0
    1278:	0001e707 	andeq	lr, r1, r7, lsl #14
    127c:	03040500 	movweq	r0, #17664	; 0x4500
    1280:	01240801 	teqeq	r4, r1, lsl #16
    1284:	04060000 	streq	r0, [r6], #-0
    1288:	0000008c 	andeq	r0, r0, ip, lsl #1
    128c:	00007f07 	andeq	r7, r0, r7, lsl #30
    1290:	041d0400 	ldreq	r0, [sp], #-1024	; 0x400
    1294:	8a020000 	bhi	8129c <__bss_end__+0x76c64>
    1298:	0000009c 	muleq	r0, ip, r0
    129c:	00a20406 	adceq	r0, r2, r6, lsl #8
    12a0:	b7080000 	strlt	r0, [r8, -r0]
    12a4:	09000000 	stmdbeq	r0, {}	; <UNPREDICTABLE>
    12a8:	000000b7 	strheq	r0, [r0], -r7
    12ac:	00005d09 	andeq	r5, r0, r9, lsl #26
    12b0:	005d0900 	subseq	r0, sp, r0, lsl #18
    12b4:	06000000 	streq	r0, [r0], -r0
    12b8:	00005d04 	andeq	r5, r0, r4, lsl #26
    12bc:	01990a00 	orrseq	r0, r9, r0, lsl #20
    12c0:	07380000 	ldreq	r0, [r8, -r0]!
    12c4:	00016e0a 	andeq	r6, r1, sl, lsl #28
    12c8:	0a740b00 	beq	1d03ed0 <__bss_end__+0x1cf9898>
    12cc:	0f070000 	svceq	0x00070000
    12d0:	0000016e 	andeq	r0, r0, lr, ror #2
    12d4:	00410c00 	subeq	r0, r1, r0, lsl #24
    12d8:	01861207 	orreq	r1, r6, r7, lsl #4
    12dc:	0c040000 	stceq	0, cr0, [r4], {-0}
    12e0:	13070042 	movwne	r0, #28738	; 0x7042
    12e4:	0000019b 	muleq	r0, fp, r1
    12e8:	022b0b08 	eoreq	r0, fp, #8, 22	; 0x2000
    12ec:	16070000 	strne	r0, [r7], -r0
    12f0:	00000186 	andeq	r0, r0, r6, lsl #3
    12f4:	02340b0c 	eorseq	r0, r4, #12, 22	; 0x3000
    12f8:	18070000 	stmdane	r7, {}	; <UNPREDICTABLE>
    12fc:	0000019b 	muleq	r0, fp, r1
    1300:	01d20b10 	bicseq	r0, r2, r0, lsl fp
    1304:	1f070000 	svcne	0x00070000
    1308:	000001a1 	andeq	r0, r0, r1, lsr #3
    130c:	010a0b14 	tsteq	sl, r4, lsl fp
    1310:	31070000 	mrscc	r0, (UNDEF: 7)
    1314:	000001a1 	andeq	r0, r0, r1, lsr #3
    1318:	01360b18 	teqeq	r6, r8, lsl fp
    131c:	36070000 	strcc	r0, [r7], -r0
    1320:	000001a6 	andeq	r0, r0, r6, lsr #3
    1324:	02090b1c 	andeq	r0, r9, #28, 22	; 0x7000
    1328:	3a070000 	bcc	1c1330 <__bss_end__+0x1b6cf8>
    132c:	000001a6 	andeq	r0, r0, r6, lsr #3
    1330:	01fe0b20 	mvnseq	r0, r0, lsr #22
    1334:	3f070000 	svccc	0x00070000
    1338:	000001a1 	andeq	r0, r0, r1, lsr #3
    133c:	00160b24 	andseq	r0, r6, r4, lsr #22
    1340:	42070000 	andmi	r0, r7, #0
    1344:	0000002c 	andeq	r0, r0, ip, lsr #32
    1348:	00950b28 	addseq	r0, r5, r8, lsr #22
    134c:	43070000 	movwmi	r0, #28672	; 0x7000
    1350:	0000002c 	andeq	r0, r0, ip, lsr #32
    1354:	01830b2c 	orreq	r0, r3, ip, lsr #22
    1358:	46070000 	strmi	r0, [r7], -r0
    135c:	0000002c 	andeq	r0, r0, ip, lsr #32
    1360:	02540b30 	subseq	r0, r4, #48, 22	; 0xc000
    1364:	48070000 	stmdami	r7, {}	; <UNPREDICTABLE>
    1368:	000001a6 	andeq	r0, r0, r6, lsr #3
    136c:	04060034 	streq	r0, [r6], #-52	; 0x34
    1370:	00000174 	andeq	r0, r0, r4, ror r1
    1374:	0180080d 	orreq	r0, r0, sp, lsl #16
    1378:	80090000 	andhi	r0, r9, r0
    137c:	00000001 	andeq	r0, r0, r1
    1380:	00bd0406 	adcseq	r0, sp, r6, lsl #8
    1384:	04060000 	streq	r0, [r6], #-0
    1388:	00000175 	andeq	r0, r0, r5, ror r1
    138c:	0000250e 	andeq	r2, r0, lr, lsl #10
    1390:	00019b00 	andeq	r9, r1, r0, lsl #22
    1394:	01800900 	orreq	r0, r0, r0, lsl #18
    1398:	06000000 	streq	r0, [r0], -r0
    139c:	00018c04 	andeq	r8, r1, r4, lsl #24
    13a0:	002c0f00 	eoreq	r0, ip, r0, lsl #30
    13a4:	5d0f0000 	stcpl	0, cr0, [pc, #-0]	; 13ac <__code_start__-0x6c54>
    13a8:	04000000 	streq	r0, [r0], #-0
    13ac:	0000001e 	andeq	r0, r0, lr, lsl r0
    13b0:	00bd4907 	adcseq	r4, sp, r7, lsl #18
    13b4:	69100000 	ldmdbvs	r0, {}	; <UNPREDICTABLE>
    13b8:	02000003 	andeq	r0, r0, #3
    13bc:	00005da6 	andeq	r5, r0, r6, lsr #27
    13c0:	01d20300 	bicseq	r0, r2, r0, lsl #6
    13c4:	72110000 	andsvc	r0, r1, #0
    13c8:	02007465 	andeq	r7, r0, #1694498816	; 0x65000000
    13cc:	00005da6 	andeq	r5, r0, r6, lsr #27
    13d0:	b2100000 	andslt	r0, r0, #0
    13d4:	02000002 	andeq	r0, r0, #2
    13d8:	00002ca9 	andeq	r2, r0, r9, lsr #25
    13dc:	01ec0300 	mvneq	r0, r0, lsl #6
    13e0:	72110000 	andsvc	r0, r1, #0
    13e4:	2caa0200 	sfmcs	f0, 4, [sl]
    13e8:	00000000 	andeq	r0, r0, r0
    13ec:	00051810 	andeq	r1, r5, r0, lsl r8
    13f0:	25070500 	strcs	r0, [r7, #-1280]	; 0x500
    13f4:	03000000 	movweq	r0, #0
    13f8:	00000208 	andeq	r0, r0, r8, lsl #4
    13fc:	00053112 	andeq	r3, r5, r2, lsl r1
    1400:	2c070500 	cfstr32cs	mvfx0, [r7], {-0}
    1404:	00000000 	andeq	r0, r0, r0
    1408:	00049b10 	andeq	r9, r4, r0, lsl fp
    140c:	5d260300 	stcpl	3, cr0, [r6, #-0]
    1410:	03000000 	movweq	r0, #0
    1414:	00000224 	andeq	r0, r0, r4, lsr #4
    1418:	00051313 	andeq	r1, r5, r3, lsl r3
    141c:	5d270300 	stcpl	3, cr0, [r7, #-0]
    1420:	00000000 	andeq	r0, r0, r0
    1424:	00045514 	andeq	r5, r4, r4, lsl r5
    1428:	240b0100 	strcs	r0, [fp], #-256	; 0x100
    142c:	ac000087 	stcge	0, cr0, [r0], {135}	; 0x87
    1430:	01000001 	tsteq	r0, r1
    1434:	0004659c 	muleq	r4, ip, r5
    1438:	052c1500 	streq	r1, [ip, #-1280]!	; 0x500
    143c:	0b010000 	bleq	41444 <__bss_end__+0x36e0c>
    1440:	000000b7 	strheq	r0, [r0], -r7
    1444:	000004ae 	andeq	r0, r0, lr, lsr #9
    1448:	00637016 	rsbeq	r7, r3, r6, lsl r0
    144c:	005d0b01 	subseq	r0, sp, r1, lsl #22
    1450:	04cf0000 	strbeq	r0, [pc], #0	; 1458 <__code_start__-0x6ba8>
    1454:	10150000 	andsne	r0, r5, r0
    1458:	01000002 	tsteq	r0, r2
    145c:	00005d0b 	andeq	r5, r0, fp, lsl #26
    1460:	0004fb00 	andeq	pc, r4, r0, lsl #22
    1464:	01761700 	cmneq	r6, r0, lsl #14
    1468:	04750000 	ldrbteq	r0, [r5], #-0
    146c:	03050000 	movweq	r0, #20480	; 0x5000
    1470:	00009fb0 			; <UNDEFINED> instruction: 0x00009fb0
    1474:	01006318 	tsteq	r0, r8, lsl r3
    1478:	00047a10 	andeq	r7, r4, r0, lsl sl
    147c:	00051c00 	andeq	r1, r5, r0, lsl #24
    1480:	01d21900 	bicseq	r1, r2, r0, lsl #18
    1484:	87580000 	ldrbhi	r0, [r8, -r0]
    1488:	00080000 	andeq	r0, r8, r0
    148c:	0d010000 	stceq	0, cr0, [r1, #-0]
    1490:	000002c7 	andeq	r0, r0, r7, asr #5
    1494:	0087581a 	addeq	r5, r7, sl, lsl r8
    1498:	00000800 	andeq	r0, r0, r0, lsl #16
    149c:	01e21b00 	mvneq	r1, r0, lsl #22
    14a0:	b61c0000 	ldrlt	r0, [ip], -r0
    14a4:	58000001 	stmdapl	r0, {r0}
    14a8:	04000087 	streq	r0, [r0], #-135	; 0x87
    14ac:	02000000 	andeq	r0, r0, #0
    14b0:	87581aaa 	ldrbhi	r1, [r8, -sl, lsr #21]
    14b4:	00040000 	andeq	r0, r4, r0
    14b8:	c61d0000 	ldrgt	r0, [sp], -r0
    14bc:	2f000001 	svccs	0x00000001
    14c0:	00000005 	andeq	r0, r0, r5
    14c4:	1e000000 	cdpne	0, 0, cr0, cr0, cr0, {0}
    14c8:	00008758 	andeq	r8, r0, r8, asr r7
    14cc:	00000df9 	strdeq	r0, [r0], -r9
    14d0:	000002fc 	strdeq	r0, [r0], -ip
    14d4:	0153011f 	cmpeq	r3, pc, lsl r1
    14d8:	52011f3c 	andpl	r1, r1, #60, 30	; 0xf0
    14dc:	9fb00305 	svcls	0x00b00305
    14e0:	011f0000 	tsteq	pc, r0
    14e4:	1c030551 	cfstr32ne	mvfx0, [r3], {81}	; 0x51
    14e8:	1f00009d 	svcne	0x0000009d
    14ec:	03055001 	movweq	r5, #20481	; 0x5001
    14f0:	00009cfc 	strdeq	r9, [r0], -ip
    14f4:	007d021f 	rsbseq	r0, sp, pc, lsl r2
    14f8:	00007502 	andeq	r7, r0, r2, lsl #10
    14fc:	00876c20 	addeq	r6, r7, r0, lsr #24
    1500:	000e0f00 	andeq	r0, lr, r0, lsl #30
    1504:	87801e00 	strhi	r1, [r0, r0, lsl #28]
    1508:	0df90000 	ldcleq	0, cr0, [r9]
    150c:	03330000 	teqeq	r3, #0
    1510:	011f0000 	tsteq	pc, r0
    1514:	1f3e0153 	svcne	0x003e0153
    1518:	03055201 	movweq	r5, #20993	; 0x5201
    151c:	00009fb0 			; <UNDEFINED> instruction: 0x00009fb0
    1520:	0551011f 	ldrbeq	r0, [r1, #-287]	; 0x11f
    1524:	009d1c03 	addseq	r1, sp, r3, lsl #24
    1528:	50011f00 	andpl	r1, r1, r0, lsl #30
    152c:	9c080305 	stcls	3, cr0, [r8], {5}
    1530:	20000000 	andcs	r0, r0, r0
    1534:	00008784 	andeq	r8, r0, r4, lsl #15
    1538:	00000e16 	andeq	r0, r0, r6, lsl lr
    153c:	0087ac1e 	addeq	sl, r7, lr, lsl ip
    1540:	000df900 	andeq	pc, sp, r0, lsl #18
    1544:	00035900 	andeq	r5, r3, r0, lsl #18
    1548:	51011f00 	tstpl	r1, r0, lsl #30
    154c:	1f007502 	svcne	0x00007502
    1550:	03055001 	movweq	r5, #20481	; 0x5001
    1554:	00009d30 	andeq	r9, r0, r0, lsr sp
    1558:	87b82100 	ldrhi	r2, [r8, r0, lsl #2]!
    155c:	03690000 	cmneq	r9, #0
    1560:	011f0000 	tsteq	pc, r0
    1564:	00740250 	rsbseq	r0, r4, r0, asr r2
    1568:	87c81e00 	strbhi	r1, [r8, r0, lsl #28]
    156c:	0e1d0000 	cdpeq	0, 1, cr0, cr13, cr0, {0}
    1570:	037d0000 	cmneq	sp, #0
    1574:	011f0000 	tsteq	pc, r0
    1578:	00750250 	rsbseq	r0, r5, r0, asr r2
    157c:	87e81e00 	strbhi	r1, [r8, r0, lsl #28]!
    1580:	0df90000 	ldcleq	0, cr0, [r9]
    1584:	03940000 	orrseq	r0, r4, #0
    1588:	011f0000 	tsteq	pc, r0
    158c:	50030550 	andpl	r0, r3, r0, asr r5
    1590:	0000009d 	muleq	r0, sp, r0
    1594:	00880c20 	addeq	r0, r8, r0, lsr #24
    1598:	000e0f00 	andeq	r0, lr, r0, lsl #30
    159c:	88281e00 	stmdahi	r8!, {r9, sl, fp, ip}
    15a0:	0df90000 	ldcleq	0, cr0, [r9]
    15a4:	03d60000 	bicseq	r0, r6, #0
    15a8:	011f0000 	tsteq	pc, r0
    15ac:	23080253 	movwcs	r0, #33363	; 0x8253
    15b0:	0552011f 	ldrbeq	r0, [r2, #-287]	; 0x11f
    15b4:	009fb003 	addseq	fp, pc, r3
    15b8:	51011f00 	tstpl	r1, r0, lsl #30
    15bc:	9d1c0305 	ldcls	3, cr0, [ip, #-20]	; 0xffffffec
    15c0:	011f0000 	tsteq	pc, r0
    15c4:	78030550 	stmdavc	r3, {r4, r6, r8, sl}
    15c8:	1f00009a 	svcne	0x0000009a
    15cc:	05007d02 	streq	r7, [r0, #-3330]	; 0xd02
    15d0:	009d7803 	addseq	r7, sp, r3, lsl #16
    15d4:	2c200000 	stccs	0, cr0, [r0], #-0
    15d8:	16000088 	strne	r0, [r0], -r8, lsl #1
    15dc:	1e00000e 	cdpne	0, 0, cr0, cr0, cr14, {0}
    15e0:	00008860 	andeq	r8, r0, r0, ror #16
    15e4:	00000df9 	strdeq	r0, [r0], -r9
    15e8:	00000415 	andeq	r0, r0, r5, lsl r4
    15ec:	0253011f 	subseq	r0, r3, #-1073741817	; 0xc0000007
    15f0:	011f2608 	tsteq	pc, r8, lsl #12
    15f4:	b0030552 	andlt	r0, r3, r2, asr r5
    15f8:	1f00009f 	svcne	0x0000009f
    15fc:	03055101 	movweq	r5, #20737	; 0x5101
    1600:	00009d1c 	andeq	r9, r0, ip, lsl sp
    1604:	0550011f 	ldrbeq	r0, [r0, #-287]	; 0x11f
    1608:	009d9c03 	addseq	r9, sp, r3, lsl #24
    160c:	7d021f00 	stcvc	15, cr1, [r2, #-0]
    1610:	00750200 	rsbseq	r0, r5, r0, lsl #4
    1614:	886c1e00 	stmdahi	ip!, {r9, sl, fp, ip}^
    1618:	0e2e0000 	cdpeq	0, 2, cr0, cr14, cr0, {0}
    161c:	04320000 	ldrteq	r0, [r2], #-0
    1620:	011f0000 	tsteq	pc, r0
    1624:	24030551 	strcs	r0, [r3], #-1361	; 0x551
    1628:	1f000087 	svcne	0x00000087
    162c:	75025001 	strvc	r5, [r2, #-1]
    1630:	94220000 	strtls	r0, [r2], #-0
    1634:	f9000088 			; <UNDEFINED> instruction: 0xf9000088
    1638:	1f00000d 	svcne	0x0000000d
    163c:	08025301 	stmdaeq	r2, {r0, r8, r9, ip, lr}
    1640:	52011f28 	andpl	r1, r1, #40, 30	; 0xa0
    1644:	9fb00305 	svcls	0x00b00305
    1648:	011f0000 	tsteq	pc, r0
    164c:	1c030551 	cfstr32ne	mvfx0, [r3], {81}	; 0x51
    1650:	1f00009d 	svcne	0x0000009d
    1654:	03055001 	movweq	r5, #20481	; 0x5001
    1658:	00009dc4 	andeq	r9, r0, r4, asr #27
    165c:	007d021f 	rsbseq	r0, sp, pc, lsl r2
    1660:	00007502 	andeq	r7, r0, r2, lsl #10
    1664:	007f2300 	rsbseq	r2, pc, r0, lsl #6
    1668:	04750000 	ldrbteq	r0, [r5], #-0
    166c:	76240000 	strtvc	r0, [r4], -r0
    1670:	13000000 	movwne	r0, #0
    1674:	04650700 	strbteq	r0, [r5], #-1792	; 0x700
    1678:	04060000 	streq	r0, [r6], #-0
    167c:	000001ab 	andeq	r0, r0, fp, lsr #3
    1680:	0004dd10 	andeq	sp, r4, r0, lsl sp
    1684:	5d140500 	cfldr32pl	mvfx0, [r4, #-0]
    1688:	03000000 	movweq	r0, #0
    168c:	000004b4 			; <UNDEFINED> instruction: 0x000004b4
    1690:	00051312 	andeq	r1, r5, r2, lsl r3
    1694:	5d140500 	cfldr32pl	mvfx0, [r4, #-0]
    1698:	12000000 	andne	r0, r0, #0
    169c:	00000531 	andeq	r0, r0, r1, lsr r5
    16a0:	002c1405 	eoreq	r1, ip, r5, lsl #8
    16a4:	76250000 	strtvc	r0, [r5], -r0
    16a8:	c4000001 	strgt	r0, [r0], #-1
    16ac:	dd000004 	stcle	0, cr0, [r0, #-16]
    16b0:	00000004 	andeq	r0, r0, r4
    16b4:	00007f23 	andeq	r7, r0, r3, lsr #30
    16b8:	0004c400 	andeq	ip, r4, r0, lsl #8
    16bc:	00762400 	rsbseq	r2, r6, r0, lsl #8
    16c0:	00080000 	andeq	r0, r8, r0
    16c4:	0004b407 	andeq	fp, r4, r7, lsl #8
    16c8:	04b91000 	ldrteq	r1, [r9], #0
    16cc:	25040000 	strcs	r0, [r4, #-0]
    16d0:	0000005d 	andeq	r0, r0, sp, asr r0
    16d4:	00051803 	andeq	r1, r5, r3, lsl #16
    16d8:	00782600 	rsbseq	r2, r8, r0, lsl #12
    16dc:	005d2504 	subseq	r2, sp, r4, lsl #10
    16e0:	6c260000 	stcvs	0, cr0, [r6], #-0
    16e4:	25040062 	strcs	r0, [r4, #-98]	; 0x62
    16e8:	0000002c 	andeq	r0, r0, ip, lsr #32
    16ec:	00627526 	rsbeq	r7, r2, r6, lsr #10
    16f0:	002c2504 	eoreq	r2, ip, r4, lsl #10
    16f4:	76250000 	strtvc	r0, [r5], -r0
    16f8:	18000001 	stmdane	r0, {r0}
    16fc:	b9000005 	stmdblt	r0, {r0, r2}
    1700:	11000004 	tstne	r0, r4
    1704:	2804006e 	stmdacs	r4, {r1, r2, r3, r5, r6}
    1708:	0000002c 	andeq	r0, r0, ip, lsr #32
    170c:	0004b413 	andeq	fp, r4, r3, lsl r4
    1710:	2c2a0400 	cfstrscs	mvf0, [sl], #-0
    1714:	00000000 	andeq	r0, r0, r0
    1718:	0004b407 	andeq	fp, r4, r7, lsl #8
    171c:	04d41000 	ldrbeq	r1, [r4], #0
    1720:	18050000 	stmdane	r5, {}	; <UNPREDICTABLE>
    1724:	00000086 	andeq	r0, r0, r6, lsl #1
    1728:	00054603 	andeq	r4, r5, r3, lsl #12
    172c:	05131200 	ldreq	r1, [r3, #-512]	; 0x200
    1730:	18050000 	stmdane	r5, {}	; <UNPREDICTABLE>
    1734:	0000005d 	andeq	r0, r0, sp, asr r0
    1738:	00017625 	andeq	r7, r1, r5, lsr #12
    173c:	00054600 	andeq	r4, r5, r0, lsl #12
    1740:	0004d400 	andeq	sp, r4, r0, lsl #8
    1744:	b4070000 	strlt	r0, [r7], #-0
    1748:	10000004 	andne	r0, r0, r4
    174c:	00000523 	andeq	r0, r0, r3, lsr #10
    1750:	005d0f05 	subseq	r0, sp, r5, lsl #30
    1754:	7f030000 	svcvc	0x00030000
    1758:	12000005 	andne	r0, r0, #5
    175c:	00000513 	andeq	r0, r0, r3, lsl r5
    1760:	005d0f05 	subseq	r0, sp, r5, lsl #30
    1764:	31130000 	tstcc	r3, r0
    1768:	05000005 	streq	r0, [r0, #-5]
    176c:	00002c10 	andeq	r2, r0, r0, lsl ip
    1770:	01762500 	cmneq	r6, r0, lsl #10
    1774:	057f0000 	ldrbeq	r0, [pc, #-0]!	; 177c <__code_start__-0x6884>
    1778:	05230000 	streq	r0, [r3, #-0]!
    177c:	07000000 	streq	r0, [r0, -r0]
    1780:	000004b4 			; <UNDEFINED> instruction: 0x000004b4
    1784:	00050010 	andeq	r0, r5, r0, lsl r0
    1788:	5d1c0400 	cfldrspl	mvf0, [ip, #-0]
    178c:	03000000 	movweq	r0, #0
    1790:	000005c8 	andeq	r0, r0, r8, asr #11
    1794:	04007826 	streq	r7, [r0], #-2086	; 0x826
    1798:	00005d1c 	andeq	r5, r0, ip, lsl sp
    179c:	626c2600 	rsbvs	r2, ip, #0, 12
    17a0:	2c1c0400 	cfldrscs	mvf0, [ip], {-0}
    17a4:	26000000 	strcs	r0, [r0], -r0
    17a8:	04006275 	streq	r6, [r0], #-629	; 0x275
    17ac:	00002c1c 	andeq	r2, r0, ip, lsl ip
    17b0:	01762500 	cmneq	r6, r0, lsl #10
    17b4:	05c80000 	strbeq	r0, [r8]
    17b8:	05000000 	streq	r0, [r0, #-0]
    17bc:	6e110000 	cdpvs	0, 1, cr0, cr1, cr0, {0}
    17c0:	2c1f0400 	cfldrscs	mvf0, [pc], {-0}
    17c4:	00000000 	andeq	r0, r0, r0
    17c8:	0004b407 	andeq	fp, r4, r7, lsl #8
    17cc:	04c22700 	strbeq	r2, [r2], #1792	; 0x700
    17d0:	2b010000 	blcs	417d8 <__bss_end__+0x371a0>
    17d4:	0000002c 	andeq	r0, r0, ip, lsr #32
    17d8:	000088d0 	ldrdeq	r8, [r0], -r0
    17dc:	000004e0 	andeq	r0, r0, r0, ror #9
    17e0:	0ce09c01 	stcleq	12, cr9, [r0], #4
    17e4:	63160000 	tstvs	r6, #0
    17e8:	7a2b0100 	bvc	ac1bf0 <__bss_end__+0xab75b8>
    17ec:	42000004 	andmi	r0, r0, #4
    17f0:	28000005 	stmdacs	r0, {r0, r2}
    17f4:	000004f7 	strdeq	r0, [r0], -r7
    17f8:	005d2c01 	subseq	r2, sp, r1, lsl #24
    17fc:	58010000 	stmdapl	r1, {}	; <UNPREDICTABLE>
    1800:	00050913 	andeq	r0, r5, r3, lsl r9
    1804:	5d2d0100 	stfpls	f0, [sp, #-0]
    1808:	17000000 	strne	r0, [r0, -r0]
    180c:	00000176 	andeq	r0, r0, r6, ror r1
    1810:	00000cf0 	strdeq	r0, [r0], -r0	; <UNPREDICTABLE>
    1814:	9f9c0305 	svcls	0x009c0305
    1818:	08190000 	ldmdaeq	r9, {}	; <UNPREDICTABLE>
    181c:	dc000002 	stcle	0, cr0, [r0], {2}
    1820:	04000088 	streq	r0, [r0], #-136	; 0x88
    1824:	01000000 	mrseq	r0, (UNDEF: 0)
    1828:	0006412c 	andeq	r4, r6, ip, lsr #2
    182c:	88dc1a00 	ldmhi	ip, {r9, fp, ip}^
    1830:	00040000 	andeq	r0, r4, r0
    1834:	181d0000 	ldmdane	sp, {}	; <UNPREDICTABLE>
    1838:	6e000002 	cdpvs	0, 0, cr0, cr0, cr2, {0}
    183c:	00000005 	andeq	r0, r0, r5
    1840:	04801900 	streq	r1, [r0], #2304	; 0x900
    1844:	88e00000 	stmiahi	r0!, {}^	; <UNPREDICTABLE>
    1848:	00080000 	andeq	r0, r8, r0
    184c:	2d010000 	stccs	0, cr0, [r1, #-0]
    1850:	000006bf 			; <UNDEFINED> instruction: 0x000006bf
    1854:	00049b29 	andeq	r9, r4, r9, lsr #22
    1858:	902a1000 	eorls	r1, sl, r0
    185c:	6e000004 	cdpvs	0, 0, cr0, cr0, cr4, {0}
    1860:	1a000005 	bne	187c <__code_start__-0x6784>
    1864:	000088e0 	andeq	r8, r0, r0, ror #17
    1868:	00000008 	andeq	r0, r0, r8
    186c:	0004a62b 	andeq	sl, r4, fp, lsr #12
    1870:	c4030500 	strgt	r0, [r3], #-1280	; 0x500
    1874:	1c00009f 	stcne	0, cr0, [r0], {159}	; 0x9f
    1878:	000004c9 	andeq	r0, r0, r9, asr #9
    187c:	000088e0 	andeq	r8, r0, r0, ror #17
    1880:	00000004 	andeq	r0, r0, r4
    1884:	ec291605 	stc	6, cr1, [r9], #-20	; 0xffffffec
    1888:	04000004 	streq	r0, [r0], #-4
    188c:	0004e229 	andeq	lr, r4, r9, lsr #4
    1890:	d92a0000 	stmdble	sl!, {}	; <UNPREDICTABLE>
    1894:	6e000004 	cdpvs	0, 0, cr0, cr0, cr4, {0}
    1898:	1a000005 	bne	18b4 <__code_start__-0x674c>
    189c:	000088e0 	andeq	r8, r0, r0, ror #17
    18a0:	00000004 	andeq	r0, r0, r4
    18a4:	0005032c 	andeq	r0, r5, ip, lsr #6
    18a8:	0c2c0500 	cfstr32eq	mvfx0, [ip], #-0
    18ac:	1f000005 	svcne	0x00000005
    18b0:	0004f62b 	andeq	pc, r4, fp, lsr #12
    18b4:	d0030500 	andle	r0, r3, r0, lsl #10
    18b8:	0000009f 	muleq	r0, pc, r0	; <UNPREDICTABLE>
    18bc:	19000000 	stmdbne	r0, {}	; <UNPREDICTABLE>
    18c0:	0000051d 	andeq	r0, r0, sp, lsl r5
    18c4:	000089e4 	andeq	r8, r0, r4, ror #19
    18c8:	00000110 	andeq	r0, r0, r0, lsl r1
    18cc:	08175301 	ldmdaeq	r7, {r0, r8, r9, ip, lr}
    18d0:	2d2a0000 	stccs	0, cr0, [sl, #-0]
    18d4:	81000005 	tsthi	r0, r5
    18d8:	1a000005 	bne	18f4 <__code_start__-0x670c>
    18dc:	000089e4 	andeq	r8, r0, r4, ror #19
    18e0:	00000110 	andeq	r0, r0, r0, lsl r1
    18e4:	0005382b 	andeq	r3, r5, fp, lsr #16
    18e8:	dc030500 	cfstr32le	mvfx0, [r3], {-0}
    18ec:	1900009f 	stmdbne	r0, {r0, r1, r2, r3, r4, r7}
    18f0:	0000054b 	andeq	r0, r0, fp, asr #10
    18f4:	000089e4 	andeq	r8, r0, r4, ror #19
    18f8:	0000006c 	andeq	r0, r0, ip, rrx
    18fc:	07cd1905 	strbeq	r1, [sp, r5, lsl #18]
    1900:	5b2a0000 	blpl	a81908 <__bss_end__+0xa772d0>
    1904:	81000005 	tsthi	r0, r5
    1908:	1a000005 	bne	1924 <__code_start__-0x66dc>
    190c:	000089e4 	andeq	r8, r0, r4, ror #19
    1910:	0000006c 	andeq	r0, r0, ip, rrx
    1914:	0005661b 	andeq	r6, r5, fp, lsl r6
    1918:	05712b00 	ldrbeq	r2, [r1, #-2816]!	; 0xb00
    191c:	03050000 	movweq	r0, #20480	; 0x5000
    1920:	00009fe8 	andeq	r9, r0, r8, ror #31
    1924:	00058419 	andeq	r8, r5, r9, lsl r4
    1928:	0089e400 	addeq	lr, r9, r0, lsl #8
    192c:	00000400 	andeq	r0, r0, r0, lsl #8
    1930:	68100500 	ldmdavs	r0, {r8, sl}
    1934:	29000007 	stmdbcs	r0, {r0, r1, r2}
    1938:	000005a7 	andeq	r0, r0, r7, lsr #11
    193c:	059d2904 	ldreq	r2, [sp, #2308]	; 0x904
    1940:	2a000000 	bcs	1948 <__code_start__-0x66b8>
    1944:	00000594 	muleq	r0, r4, r5
    1948:	00000581 	andeq	r0, r0, r1, lsl #11
    194c:	0089e41a 	addeq	lr, r9, sl, lsl r4
    1950:	00000400 	andeq	r0, r0, r0, lsl #8
    1954:	05be2c00 	ldreq	r2, [lr, #3072]!	; 0xc00
    1958:	2b050000 	blcs	141960 <__bss_end__+0x137328>
    195c:	000005b1 			; <UNDEFINED> instruction: 0x000005b1
    1960:	9ff40305 	svcls	0x00f40305
    1964:	00000000 	andeq	r0, r0, r0
    1968:	0001ec19 	andeq	lr, r1, r9, lsl ip
    196c:	0089e800 	addeq	lr, r9, r0, lsl #16
    1970:	00003c00 	andeq	r3, r0, r0, lsl #24
    1974:	81110500 	tsthi	r1, r0, lsl #10
    1978:	2d000007 	stccs	0, cr0, [r0, #-28]	; 0xffffffe4
    197c:	000001fc 	strdeq	r0, [r0], -ip
    1980:	8a302000 	bhi	c09988 <__bss_end__+0xbff350>
    1984:	0e0f0000 	cdpeq	0, 0, cr0, cr15, cr0, {0}
    1988:	4c1e0000 	ldcmi	0, cr0, [lr], {-0}
    198c:	f900008a 			; <UNDEFINED> instruction: 0xf900008a
    1990:	c200000d 	andgt	r0, r0, #13
    1994:	1f000007 	svcne	0x00000007
    1998:	41015301 	tstmi	r1, r1, lsl #6
    199c:	0552011f 	ldrbeq	r0, [r2, #-287]	; 0x11f
    19a0:	009fe803 	addseq	lr, pc, r3, lsl #16
    19a4:	51011f00 	tstpl	r1, r0, lsl #30
    19a8:	9ef80305 	cdpls	3, 15, cr0, cr8, cr5, {0}
    19ac:	011f0000 	tsteq	pc, r0
    19b0:	78030550 	stmdavc	r3, {r4, r6, r8, sl}
    19b4:	1f00009a 	svcne	0x0000009a
    19b8:	05007d02 	streq	r7, [r0, #-3330]	; 0xd02
    19bc:	009f0403 	addseq	r0, pc, r3, lsl #8
    19c0:	50200000 	eorpl	r0, r0, r0
    19c4:	1600008a 	strne	r0, [r0], -sl, lsl #1
    19c8:	0000000e 	andeq	r0, r0, lr
    19cc:	8acc2000 	bhi	ff3099d4 <__bss_end__+0xff2ff39c>
    19d0:	0e0f0000 	cdpeq	0, 0, cr0, cr15, cr0, {0}
    19d4:	e41e0000 	ldr	r0, [lr], #-0
    19d8:	f900008a 			; <UNDEFINED> instruction: 0xf900008a
    19dc:	0c00000d 	stceq	0, cr0, [r0], {13}
    19e0:	1f000008 	svcne	0x00000008
    19e4:	08025301 	stmdaeq	r2, {r0, r8, r9, ip, lr}
    19e8:	52011f21 	andpl	r1, r1, #33, 30	; 0x84
    19ec:	9fdc0305 	svcls	0x00dc0305
    19f0:	011f0000 	tsteq	pc, r0
    19f4:	f8030551 			; <UNDEFINED> instruction: 0xf8030551
    19f8:	1f00009e 	svcne	0x0000009e
    19fc:	03055001 	movweq	r5, #20481	; 0x5001
    1a00:	00009f18 	andeq	r9, r0, r8, lsl pc
    1a04:	007d021f 	rsbseq	r0, sp, pc, lsl r2
    1a08:	00007802 	andeq	r7, r0, r2, lsl #16
    1a0c:	008ae820 	addeq	lr, sl, r0, lsr #16
    1a10:	000e1600 	andeq	r1, lr, r0, lsl #12
    1a14:	19000000 	stmdbne	r0, {}	; <UNPREDICTABLE>
    1a18:	00000208 	andeq	r0, r0, r8, lsl #4
    1a1c:	00008b00 	andeq	r8, r0, r0, lsl #22
    1a20:	00000004 	andeq	r0, r0, r4
    1a24:	083e5401 	ldmdaeq	lr!, {r0, sl, ip, lr}
    1a28:	001a0000 	andseq	r0, sl, r0
    1a2c:	0400008b 	streq	r0, [r0], #-139	; 0x8b
    1a30:	1d000000 	stcne	0, cr0, [r0, #-0]
    1a34:	00000218 	andeq	r0, r0, r8, lsl r2
    1a38:	00000594 	muleq	r0, r4, r5
    1a3c:	1d190000 	ldcne	0, cr0, [r9, #-0]
    1a40:	04000005 	streq	r0, [r0], #-5
    1a44:	1000008b 	andne	r0, r0, fp, lsl #1
    1a48:	01000001 	tsteq	r0, r1
    1a4c:	00099654 	andeq	r9, r9, r4, asr r6
    1a50:	052d2a00 	streq	r2, [sp, #-2560]!	; 0xa00
    1a54:	05940000 	ldreq	r0, [r4]
    1a58:	041a0000 	ldreq	r0, [sl], #-0
    1a5c:	1000008b 	andne	r0, r0, fp, lsl #1
    1a60:	2b000001 	blcs	1a6c <__code_start__-0x6594>
    1a64:	00000538 	andeq	r0, r0, r8, lsr r5
    1a68:	9fdc0305 	svcls	0x00dc0305
    1a6c:	4b190000 	blmi	641a74 <__bss_end__+0x63743c>
    1a70:	04000005 	streq	r0, [r0], #-5
    1a74:	6c00008b 	stcvs	0, cr0, [r0], {139}	; 0x8b
    1a78:	05000000 	streq	r0, [r0, #-0]
    1a7c:	00094c19 	andeq	r4, r9, r9, lsl ip
    1a80:	055b2a00 	ldrbeq	r2, [fp, #-2560]	; 0xa00
    1a84:	05940000 	ldreq	r0, [r4]
    1a88:	041a0000 	ldreq	r0, [sl], #-0
    1a8c:	6c00008b 	stcvs	0, cr0, [r0], {139}	; 0x8b
    1a90:	1b000000 	blne	1a98 <__code_start__-0x6568>
    1a94:	00000566 	andeq	r0, r0, r6, ror #10
    1a98:	0005712b 	andeq	r7, r5, fp, lsr #2
    1a9c:	e8030500 	stmda	r3, {r8, sl}
    1aa0:	1900009f 	stmdbne	r0, {r0, r1, r2, r3, r4, r7}
    1aa4:	00000584 	andeq	r0, r0, r4, lsl #11
    1aa8:	00008b04 	andeq	r8, r0, r4, lsl #22
    1aac:	00000004 	andeq	r0, r0, r4
    1ab0:	08e71005 	stmiaeq	r7!, {r0, r2, ip}^
    1ab4:	a7290000 	strge	r0, [r9, -r0]!
    1ab8:	04000005 	streq	r0, [r0], #-5
    1abc:	00059d29 	andeq	r9, r5, r9, lsr #26
    1ac0:	942a0000 	strtls	r0, [sl], #-0
    1ac4:	94000005 	strls	r0, [r0], #-5
    1ac8:	1a000005 	bne	1ae4 <__code_start__-0x651c>
    1acc:	00008b04 	andeq	r8, r0, r4, lsl #22
    1ad0:	00000004 	andeq	r0, r0, r4
    1ad4:	0005be2c 	andeq	fp, r5, ip, lsr #28
    1ad8:	b12b0500 	teqlt	fp, r0, lsl #10
    1adc:	05000005 	streq	r0, [r0, #-5]
    1ae0:	009ff403 	addseq	pc, pc, r3, lsl #8
    1ae4:	19000000 	stmdbne	r0, {}	; <UNPREDICTABLE>
    1ae8:	000001ec 	andeq	r0, r0, ip, ror #3
    1aec:	00008b08 	andeq	r8, r0, r8, lsl #22
    1af0:	0000003c 	andeq	r0, r0, ip, lsr r0
    1af4:	09001105 	stmdbeq	r0, {r0, r2, r8, ip}
    1af8:	fc2d0000 	stc2	0, cr0, [sp], #-0
    1afc:	00000001 	andeq	r0, r0, r1
    1b00:	008b5020 	addeq	r5, fp, r0, lsr #32
    1b04:	000e0f00 	andeq	r0, lr, r0, lsl #30
    1b08:	8b6c1e00 	blhi	1b09310 <__bss_end__+0x1afecd8>
    1b0c:	0df90000 	ldcleq	0, cr0, [r9]
    1b10:	09410000 	stmdbeq	r1, {}^	; <UNPREDICTABLE>
    1b14:	011f0000 	tsteq	pc, r0
    1b18:	1f410153 	svcne	0x00410153
    1b1c:	03055201 	movweq	r5, #20993	; 0x5201
    1b20:	00009fe8 	andeq	r9, r0, r8, ror #31
    1b24:	0551011f 	ldrbeq	r0, [r1, #-287]	; 0x11f
    1b28:	009ef803 	addseq	pc, lr, r3, lsl #16
    1b2c:	50011f00 	andpl	r1, r1, r0, lsl #30
    1b30:	9a780305 	bls	1e0274c <__bss_end__+0x1df8114>
    1b34:	021f0000 	andseq	r0, pc, #0
    1b38:	0305007d 	movweq	r0, #20605	; 0x507d
    1b3c:	00009f04 	andeq	r9, r0, r4, lsl #30
    1b40:	8b702000 	blhi	1c09b48 <__bss_end__+0x1bff510>
    1b44:	0e160000 	cdpeq	0, 1, cr0, cr6, cr0, {0}
    1b48:	00000000 	andeq	r0, r0, r0
    1b4c:	008bec20 	addeq	lr, fp, r0, lsr #24
    1b50:	000e0f00 	andeq	r0, lr, r0, lsl #30
    1b54:	8c041e00 	stchi	14, cr1, [r4], {-0}
    1b58:	0df90000 	ldcleq	0, cr0, [r9]
    1b5c:	098b0000 	stmibeq	fp, {}	; <UNPREDICTABLE>
    1b60:	011f0000 	tsteq	pc, r0
    1b64:	21080253 	tstcs	r8, r3, asr r2
    1b68:	0552011f 	ldrbeq	r0, [r2, #-287]	; 0x11f
    1b6c:	009fdc03 	addseq	sp, pc, r3, lsl #24
    1b70:	51011f00 	tstpl	r1, r0, lsl #30
    1b74:	9ef80305 	cdpls	3, 15, cr0, cr8, cr5, {0}
    1b78:	011f0000 	tsteq	pc, r0
    1b7c:	18030550 	stmdane	r3, {r4, r6, r8, sl}
    1b80:	1f00009f 	svcne	0x0000009f
    1b84:	02007d02 	andeq	r7, r0, #2, 26	; 0x80
    1b88:	20000075 	andcs	r0, r0, r5, ror r0
    1b8c:	00008c08 	andeq	r8, r0, r8, lsl #24
    1b90:	00000e16 	andeq	r0, r0, r6, lsl lr
    1b94:	08190000 	ldmdaeq	r9, {}	; <UNPREDICTABLE>
    1b98:	14000002 	strne	r0, [r0], #-2
    1b9c:	0400008c 	streq	r0, [r0], #-140	; 0x8c
    1ba0:	01000000 	mrseq	r0, (UNDEF: 0)
    1ba4:	0009b954 	andeq	fp, r9, r4, asr r9
    1ba8:	8c141a00 	ldchi	10, cr1, [r4], {-0}
    1bac:	00040000 	andeq	r0, r4, r0
    1bb0:	181b0000 	ldmdane	fp, {}	; <UNPREDICTABLE>
    1bb4:	00000002 	andeq	r0, r0, r2
    1bb8:	054b1900 	strbeq	r1, [fp, #-2304]	; 0x900
    1bbc:	8c280000 	stchi	0, cr0, [r8], #-0
    1bc0:	006c0000 	rsbeq	r0, ip, r0
    1bc4:	58010000 	stmdapl	r1, {}	; <UNPREDICTABLE>
    1bc8:	00000a97 	muleq	r0, r7, sl
    1bcc:	00055b2a 	andeq	r5, r5, sl, lsr #22
    1bd0:	0005a700 	andeq	sl, r5, r0, lsl #14
    1bd4:	8c281a00 	stchi	10, cr1, [r8], #-0
    1bd8:	006c0000 	rsbeq	r0, ip, r0
    1bdc:	661b0000 	ldrvs	r0, [fp], -r0
    1be0:	2b000005 	blcs	1bfc <__code_start__-0x6404>
    1be4:	00000571 	andeq	r0, r0, r1, ror r5
    1be8:	9fe80305 	svcls	0x00e80305
    1bec:	84190000 	ldrhi	r0, [r9], #-0
    1bf0:	28000005 	stmdacs	r0, {r0, r2}
    1bf4:	0400008c 	streq	r0, [r0], #-140	; 0x8c
    1bf8:	05000000 	streq	r0, [r0, #-0]
    1bfc:	000a3210 	andeq	r3, sl, r0, lsl r2
    1c00:	05a72900 	streq	r2, [r7, #2304]!	; 0x900
    1c04:	29040000 	stmdbcs	r4, {}	; <UNPREDICTABLE>
    1c08:	0000059d 	muleq	r0, sp, r5
    1c0c:	05942a00 	ldreq	r2, [r4, #2560]	; 0xa00
    1c10:	05a70000 	streq	r0, [r7, #0]!
    1c14:	281a0000 	ldmdacs	sl, {}	; <UNPREDICTABLE>
    1c18:	0400008c 	streq	r0, [r0], #-140	; 0x8c
    1c1c:	2c000000 	stccs	0, cr0, [r0], {-0}
    1c20:	000005be 			; <UNDEFINED> instruction: 0x000005be
    1c24:	05b12b05 	ldreq	r2, [r1, #2821]!	; 0xb05
    1c28:	03050000 	movweq	r0, #20480	; 0x5000
    1c2c:	00009ff4 	strdeq	r9, [r0], -r4
    1c30:	ec190000 	ldc	0, cr0, [r9], {-0}
    1c34:	2c000001 	stccs	0, cr0, [r0], {1}
    1c38:	3c00008c 	stccc	0, cr0, [r0], {140}	; 0x8c
    1c3c:	05000000 	streq	r0, [r0, #-0]
    1c40:	000a4b11 	andeq	r4, sl, r1, lsl fp
    1c44:	01fc2d00 	mvnseq	r2, r0, lsl #26
    1c48:	20000000 	andcs	r0, r0, r0
    1c4c:	00008c74 	andeq	r8, r0, r4, ror ip
    1c50:	00000e0f 	andeq	r0, r0, pc, lsl #28
    1c54:	008c901e 	addeq	r9, ip, lr, lsl r0
    1c58:	000df900 	andeq	pc, sp, r0, lsl #18
    1c5c:	000a8c00 	andeq	r8, sl, r0, lsl #24
    1c60:	53011f00 	movwpl	r1, #7936	; 0x1f00
    1c64:	011f4101 	tsteq	pc, r1, lsl #2
    1c68:	e8030552 	stmda	r3, {r1, r4, r6, r8, sl}
    1c6c:	1f00009f 	svcne	0x0000009f
    1c70:	03055101 	movweq	r5, #20737	; 0x5101
    1c74:	00009ef8 	strdeq	r9, [r0], -r8
    1c78:	0550011f 	ldrbeq	r0, [r0, #-287]	; 0x11f
    1c7c:	009a7803 	addseq	r7, sl, r3, lsl #16
    1c80:	7d021f00 	stcvc	15, cr1, [r2, #-0]
    1c84:	04030500 	streq	r0, [r3], #-1280	; 0x500
    1c88:	0000009f 	muleq	r0, pc, r0	; <UNPREDICTABLE>
    1c8c:	008c9420 	addeq	r9, ip, r0, lsr #8
    1c90:	000e1600 	andeq	r1, lr, r0, lsl #12
    1c94:	19000000 	stmdbne	r0, {}	; <UNPREDICTABLE>
    1c98:	00000208 	andeq	r0, r0, r8, lsl #4
    1c9c:	00008c94 	muleq	r0, r4, ip
    1ca0:	00000004 	andeq	r0, r0, r4
    1ca4:	0abe5801 	beq	fef97cb0 <__bss_end__+0xfef8d678>
    1ca8:	941a0000 	ldrls	r0, [sl], #-0
    1cac:	0400008c 	streq	r0, [r0], #-140	; 0x8c
    1cb0:	1d000000 	stcne	0, cr0, [r0, #-0]
    1cb4:	00000218 	andeq	r0, r0, r8, lsl r2
    1cb8:	000005ba 			; <UNDEFINED> instruction: 0x000005ba
    1cbc:	4b190000 	blmi	641cc4 <__bss_end__+0x63768c>
    1cc0:	98000005 	stmdals	r0, {r0, r2}
    1cc4:	6c00008c 	stcvs	0, cr0, [r0], {140}	; 0x8c
    1cc8:	01000000 	mrseq	r0, (UNDEF: 0)
    1ccc:	000b9c58 	andeq	r9, fp, r8, asr ip
    1cd0:	055b2a00 	ldrbeq	r2, [fp, #-2560]	; 0xa00
    1cd4:	05ba0000 	ldreq	r0, [sl, #0]!
    1cd8:	981a0000 	ldmdals	sl, {}	; <UNPREDICTABLE>
    1cdc:	6c00008c 	stcvs	0, cr0, [r0], {140}	; 0x8c
    1ce0:	1b000000 	blne	1ce8 <__code_start__-0x6318>
    1ce4:	00000566 	andeq	r0, r0, r6, ror #10
    1ce8:	0005712b 	andeq	r7, r5, fp, lsr #2
    1cec:	e8030500 	stmda	r3, {r8, sl}
    1cf0:	1900009f 	stmdbne	r0, {r0, r1, r2, r3, r4, r7}
    1cf4:	00000584 	andeq	r0, r0, r4, lsl #11
    1cf8:	00008c98 	muleq	r0, r8, ip
    1cfc:	00000004 	andeq	r0, r0, r4
    1d00:	0b371005 	bleq	dc5d1c <__bss_end__+0xdbb6e4>
    1d04:	a7290000 	strge	r0, [r9, -r0]!
    1d08:	04000005 	streq	r0, [r0], #-5
    1d0c:	00059d29 	andeq	r9, r5, r9, lsr #26
    1d10:	942a0000 	strtls	r0, [sl], #-0
    1d14:	ba000005 	blt	1d30 <__code_start__-0x62d0>
    1d18:	1a000005 	bne	1d34 <__code_start__-0x62cc>
    1d1c:	00008c98 	muleq	r0, r8, ip
    1d20:	00000004 	andeq	r0, r0, r4
    1d24:	0005be2c 	andeq	fp, r5, ip, lsr #28
    1d28:	b12b0500 	teqlt	fp, r0, lsl #10
    1d2c:	05000005 	streq	r0, [r0, #-5]
    1d30:	009ff403 	addseq	pc, pc, r3, lsl #8
    1d34:	19000000 	stmdbne	r0, {}	; <UNPREDICTABLE>
    1d38:	000001ec 	andeq	r0, r0, ip, ror #3
    1d3c:	00008c9c 	muleq	r0, ip, ip
    1d40:	0000003c 	andeq	r0, r0, ip, lsr r0
    1d44:	0b501105 	bleq	1406160 <__bss_end__+0x13fbb28>
    1d48:	fc2d0000 	stc2	0, cr0, [sp], #-0
    1d4c:	00000001 	andeq	r0, r0, r1
    1d50:	008ce420 	addeq	lr, ip, r0, lsr #8
    1d54:	000e0f00 	andeq	r0, lr, r0, lsl #30
    1d58:	8d001e00 	stchi	14, cr1, [r0, #-0]
    1d5c:	0df90000 	ldcleq	0, cr0, [r9]
    1d60:	0b910000 	bleq	fe441d68 <__bss_end__+0xfe437730>
    1d64:	011f0000 	tsteq	pc, r0
    1d68:	1f410153 	svcne	0x00410153
    1d6c:	03055201 	movweq	r5, #20993	; 0x5201
    1d70:	00009fe8 	andeq	r9, r0, r8, ror #31
    1d74:	0551011f 	ldrbeq	r0, [r1, #-287]	; 0x11f
    1d78:	009ef803 	addseq	pc, lr, r3, lsl #16
    1d7c:	50011f00 	andpl	r1, r1, r0, lsl #30
    1d80:	9a780305 	bls	1e0299c <__bss_end__+0x1df8364>
    1d84:	021f0000 	andseq	r0, pc, #0
    1d88:	0305007d 	movweq	r0, #20605	; 0x507d
    1d8c:	00009f04 	andeq	r9, r0, r4, lsl #30
    1d90:	8d042000 	stchi	0, cr2, [r4, #-0]
    1d94:	0e160000 	cdpeq	0, 1, cr0, cr6, cr0, {0}
    1d98:	00000000 	andeq	r0, r0, r0
    1d9c:	00891821 	addeq	r1, r9, r1, lsr #16
    1da0:	000bac00 	andeq	sl, fp, r0, lsl #24
    1da4:	50011f00 	andpl	r1, r1, r0, lsl #30
    1da8:	00007402 	andeq	r7, r0, r2, lsl #8
    1dac:	0089401e 	addeq	r4, r9, lr, lsl r0
    1db0:	000df900 	andeq	pc, sp, r0, lsl #18
    1db4:	000bd200 	andeq	sp, fp, r0, lsl #4
    1db8:	53011f00 	movwpl	r1, #7936	; 0x1f00
    1dbc:	1f340802 	svcne	0x00340802
    1dc0:	79025201 	stmdbvc	r2, {r0, r9, ip, lr}
    1dc4:	51011f00 	tstpl	r1, r0, lsl #30
    1dc8:	1f007a02 	svcne	0x00007a02
    1dcc:	7b025001 	blvc	95dd8 <__bss_end__+0x8b7a0>
    1dd0:	4c1e0000 	ldcmi	0, cr0, [lr], {-0}
    1dd4:	2e000089 	cdpcs	0, 0, cr0, cr0, cr9, {4}
    1dd8:	eb00000e 	bl	1e18 <__code_start__-0x61e8>
    1ddc:	1f00000b 	svcne	0x0000000b
    1de0:	75025101 	strvc	r5, [r2, #-257]	; 0x101
    1de4:	50011f00 	andpl	r1, r1, r0, lsl #30
    1de8:	1e003001 	cdpne	0, 0, cr3, cr0, cr1, {0}
    1dec:	00008974 	andeq	r8, r0, r4, ror r9
    1df0:	00000e44 	andeq	r0, r0, r4, asr #28
    1df4:	00000c05 	andeq	r0, r0, r5, lsl #24
    1df8:	0252011f 	subseq	r0, r2, #-1073741817	; 0xc0000007
    1dfc:	011f0074 	tsteq	pc, r4, ror r0	; <UNPREDICTABLE>
    1e00:	00770250 	rsbseq	r0, r7, r0, asr r2
    1e04:	898c2100 	stmibhi	ip, {r8, sp}
    1e08:	0c150000 	ldceq	0, cr0, [r5], {-0}
    1e0c:	011f0000 	tsteq	pc, r0
    1e10:	00740250 	rsbseq	r0, r4, r0, asr r2
    1e14:	89982100 	ldmibhi	r8, {r8, sp}
    1e18:	0c250000 	stceq	0, cr0, [r5], #-0
    1e1c:	011f0000 	tsteq	pc, r0
    1e20:	00740250 	rsbseq	r0, r4, r0, asr r2
    1e24:	89b01e00 	ldmibhi	r0!, {r9, sl, fp, ip}
    1e28:	0df90000 	ldcleq	0, cr0, [r9]
    1e2c:	0c3c0000 	ldceq	0, cr0, [ip], #-0
    1e30:	011f0000 	tsteq	pc, r0
    1e34:	7c030550 	cfstr32vc	mvfx0, [r3], {80}	; 0x50
    1e38:	0000009e 	muleq	r0, lr, r0
    1e3c:	0089e41e 	addeq	lr, r9, lr, lsl r4
    1e40:	000df900 	andeq	pc, sp, r0, lsl #18
    1e44:	000c5300 	andeq	r5, ip, r0, lsl #6
    1e48:	50011f00 	andpl	r1, r1, r0, lsl #30
    1e4c:	9ec40305 	cdpls	3, 12, cr0, cr4, cr5, {0}
    1e50:	1e000000 	cdpne	0, 0, cr0, cr0, cr0, {0}
    1e54:	00008b00 	andeq	r8, r0, r0, lsl #22
    1e58:	00000df9 	strdeq	r0, [r0], -r9
    1e5c:	00000c70 	andeq	r0, r0, r0, ror ip
    1e60:	0252011f 	subseq	r0, r2, #-1073741817	; 0xc0000007
    1e64:	011f0078 	tsteq	pc, r8, ror r0	; <UNPREDICTABLE>
    1e68:	3c030550 	cfstr32cc	mvfx0, [r3], {80}	; 0x50
    1e6c:	0000009f 	muleq	r0, pc, r0	; <UNPREDICTABLE>
    1e70:	008c201e 	addeq	r2, ip, lr, lsl r0
    1e74:	000df900 	andeq	pc, sp, r0, lsl #18
    1e78:	000c8700 	andeq	r8, ip, r0, lsl #14
    1e7c:	50011f00 	andpl	r1, r1, r0, lsl #30
    1e80:	9f580305 	svcls	0x00580305
    1e84:	1e000000 	cdpne	0, 0, cr0, cr0, cr0, {0}
    1e88:	00008c28 	andeq	r8, r0, r8, lsr #24
    1e8c:	00000e1d 	andeq	r0, r0, sp, lsl lr
    1e90:	00000c9a 	muleq	r0, sl, ip
    1e94:	0150011f 	cmpeq	r0, pc, lsl r1
    1e98:	10200030 	eorne	r0, r0, r0, lsr r0
    1e9c:	0f00008d 	svceq	0x0000008d
    1ea0:	1e00000e 	cdpne	0, 0, cr0, cr0, cr14, {0}
    1ea4:	00008d2c 	andeq	r8, r0, ip, lsr #26
    1ea8:	00000df9 	strdeq	r0, [r0], -r9
    1eac:	00000cd6 	ldrdeq	r0, [r0], -r6
    1eb0:	0253011f 	subseq	r0, r3, #-1073741817	; 0xc0000007
    1eb4:	011f5808 	tsteq	pc, r8, lsl #16
    1eb8:	00790252 	rsbseq	r0, r9, r2, asr r2
    1ebc:	0251011f 	subseq	r0, r1, #-1073741817	; 0xc0000007
    1ec0:	011f007a 	tsteq	pc, sl, ror r0	; <UNPREDICTABLE>
    1ec4:	78030550 	stmdavc	r3, {r4, r6, r8, sl}
    1ec8:	1f00009a 	svcne	0x0000009a
    1ecc:	05007d02 	streq	r7, [r0, #-3330]	; 0xd02
    1ed0:	009f7003 	addseq	r7, pc, r3
    1ed4:	30200000 	eorcc	r0, r0, r0
    1ed8:	1600008d 	strne	r0, [r0], -sp, lsl #1
    1edc:	0000000e 	andeq	r0, r0, lr
    1ee0:	00007f23 	andeq	r7, r0, r3, lsr #30
    1ee4:	000cf000 	andeq	pc, ip, r0
    1ee8:	00762400 	rsbseq	r2, r6, r0, lsl #8
    1eec:	00110000 	andseq	r0, r1, r0
    1ef0:	000ce007 	andeq	lr, ip, r7
    1ef4:	04e62700 	strbteq	r2, [r6], #1792	; 0x700
    1ef8:	64010000 	strvs	r0, [r1], #-0
    1efc:	0000002c 	andeq	r0, r0, ip, lsr #32
    1f00:	00008db0 			; <UNDEFINED> instruction: 0x00008db0
    1f04:	00000008 	andeq	r0, r0, r8
    1f08:	0d2e9c01 	stceq	12, cr9, [lr, #-4]!
    1f0c:	63160000 	tstvs	r6, #0
    1f10:	7a640100 	bvc	1902318 <__bss_end__+0x18f7ce0>
    1f14:	cd000004 	stcgt	0, cr0, [r0, #-16]
    1f18:	11000005 	tstne	r0, r5
    1f1c:	68010069 	stmdavs	r1, {r0, r3, r5, r6}
    1f20:	0000002c 	andeq	r0, r0, ip, lsr #32
    1f24:	0001762e 	andeq	r7, r1, lr, lsr #12
    1f28:	000d3e00 	andeq	r3, sp, r0, lsl #28
    1f2c:	7f230000 	svcvc	0x00230000
    1f30:	3e000000 	cdpcc	0, 0, cr0, cr0, cr0, {0}
    1f34:	2400000d 	strcs	r0, [r0], #-13
    1f38:	00000076 	andeq	r0, r0, r6, ror r0
    1f3c:	2e070010 	mcrcs	0, 0, r0, cr7, cr0, {0}
    1f40:	1400000d 	strne	r0, [r0], #-13
    1f44:	00000469 	andeq	r0, r0, r9, ror #8
    1f48:	8db87e01 	ldchi	14, cr7, [r8, #4]!
    1f4c:	00280000 	eoreq	r0, r8, r0
    1f50:	9c010000 	stcls	0, cr0, [r1], {-0}
    1f54:	00000d64 	andeq	r0, r0, r4, ror #26
    1f58:	0100632f 	tsteq	r0, pc, lsr #6
    1f5c:	00047a7e 	andeq	r7, r4, lr, ror sl
    1f60:	00500100 	subseq	r0, r0, r0, lsl #2
    1f64:	00023430 	andeq	r3, r2, r0, lsr r4
    1f68:	25890100 	strcs	r0, [r9, #256]	; 0x100
    1f6c:	e0000000 	and	r0, r0, r0
    1f70:	4c00008d 	stcmi	0, cr0, [r0], {141}	; 0x8d
    1f74:	01000000 	mrseq	r0, (UNDEF: 0)
    1f78:	000dcc9c 	muleq	sp, ip, ip
    1f7c:	00631600 	rsbeq	r1, r3, r0, lsl #12
    1f80:	047a8901 	ldrbteq	r8, [sl], #-2305	; 0x901
    1f84:	05ee0000 	strbeq	r0, [lr, #0]!
    1f88:	ec200000 	stc	0, cr0, [r0], #-0
    1f8c:	7000008d 	andvc	r0, r0, sp, lsl #1
    1f90:	1e00000e 	cdpne	0, 0, cr0, cr0, cr14, {0}
    1f94:	00008df4 	strdeq	r8, [r0], -r4
    1f98:	00000d43 	andeq	r0, r0, r3, asr #26
    1f9c:	00000da7 	andeq	r0, r0, r7, lsr #27
    1fa0:	0250011f 	subseq	r0, r0, #-1073741817	; 0xc0000007
    1fa4:	1e000074 	mcrne	0, 0, r0, cr0, cr4, {3}
    1fa8:	00008dfc 	strdeq	r8, [r0], -ip
    1fac:	00000cf5 	strdeq	r0, [r0], -r5
    1fb0:	00000dbb 			; <UNDEFINED> instruction: 0x00000dbb
    1fb4:	0250011f 	subseq	r0, r0, #-1073741817	; 0xc0000007
    1fb8:	22000074 	andcs	r0, r0, #116	; 0x74
    1fbc:	00008e0c 	andeq	r8, r0, ip, lsl #28
    1fc0:	000005cd 	andeq	r0, r0, sp, asr #11
    1fc4:	0250011f 	subseq	r0, r0, #-1073741817	; 0xc0000007
    1fc8:	00000074 	andeq	r0, r0, r4, ror r0
    1fcc:	00019928 	andeq	r9, r1, r8, lsr #18
    1fd0:	7a060100 	bvc	1823d8 <__bss_end__+0x177da0>
    1fd4:	05000004 	streq	r0, [r0, #-4]
    1fd8:	00a22c03 	adceq	r2, r2, r3, lsl #24
    1fdc:	04a42800 	strteq	r2, [r4], #2048	; 0x800
    1fe0:	08010000 	stmdaeq	r1, {}	; <UNPREDICTABLE>
    1fe4:	0000007d 	andeq	r0, r0, sp, ror r0
    1fe8:	a2300305 	eorsge	r0, r0, #335544320	; 0x14000000
    1fec:	54310000 	ldrtpl	r0, [r1], #-0
    1ff0:	02000001 	andeq	r0, r0, #1
    1ff4:	000025c2 	andeq	r2, r0, r2, asr #11
    1ff8:	05ad3200 	streq	r3, [sp, #512]!	; 0x200
    1ffc:	29080000 	stmdbcs	r8, {}	; <UNPREDICTABLE>
    2000:	00000025 	andeq	r0, r0, r5, lsr #32
    2004:	00000e0f 	andeq	r0, r0, pc, lsl #28
    2008:	00008609 	andeq	r8, r0, r9, lsl #12
    200c:	34003300 	strcc	r3, [r0], #-768	; 0x300
    2010:	0000025a 	andeq	r0, r0, sl, asr r2
    2014:	29341e08 	ldmdbcs	r4!, {r3, r9, sl, fp, ip}
    2018:	08000001 	stmdaeq	r0, {r0}
    201c:	03833565 	orreq	r3, r3, #423624704	; 0x19400000
    2020:	e3020000 	movw	r0, #8192	; 0x2000
    2024:	00000e2e 	andeq	r0, r0, lr, lsr #28
    2028:	00005d09 	andeq	r5, r0, r9, lsl #26
    202c:	43350000 	teqmi	r5, #0
    2030:	02000003 	andeq	r0, r0, #3
    2034:	000e44d9 	ldrdeq	r4, [lr], -r9
    2038:	005d0900 	subseq	r0, sp, r0, lsl #18
    203c:	91090000 	mrsls	r0, (UNDEF: 9)
    2040:	00000000 	andeq	r0, r0, r0
    2044:	00048735 	andeq	r8, r4, r5, lsr r7
    2048:	5ff30200 	svcpl	0x00f30200
    204c:	0900000e 	stmdbeq	r0, {r1, r2, r3}
    2050:	0000005d 	andeq	r0, r0, sp, asr r0
    2054:	000e5f09 	andeq	r5, lr, r9, lsl #30
    2058:	007d0900 	rsbseq	r0, sp, r0, lsl #18
    205c:	06000000 	streq	r0, [r0], -r0
    2060:	000e6504 	andeq	r6, lr, r4, lsl #10
    2064:	0e700800 	cdpeq	8, 7, cr0, cr0, cr0, {0}
    2068:	7d090000 	stcvc	0, cr0, [r9, #-0]
    206c:	00000000 	andeq	r0, r0, r0
    2070:	0003cc34 	andeq	ip, r3, r4, lsr ip
    2074:	00900200 	addseq	r0, r0, r0, lsl #4
    2078:	00000191 	muleq	r0, r1, r1
    207c:	07a60004 	streq	r0, [r6, r4]!
    2080:	01040000 	mrseq	r0, (UNDEF: 4)
    2084:	00000553 	andeq	r0, r0, r3, asr r5
    2088:	00054501 	andeq	r4, r5, r1, lsl #10
    208c:	0005be00 	andeq	fp, r5, r0, lsl #28
    2090:	008e2c00 	addeq	r2, lr, r0, lsl #24
    2094:	00005800 	andeq	r5, r0, r0, lsl #16
    2098:	0005cb00 	andeq	ip, r5, r0, lsl #22
    209c:	05360200 	ldreq	r0, [r6, #-512]!	; 0x200
    20a0:	28020000 	stmdacs	r2, {}	; <UNPREDICTABLE>
    20a4:	00000030 	andeq	r0, r0, r0, lsr r0
    20a8:	0005b403 	andeq	fp, r5, r3, lsl #8
    20ac:	00030400 	andeq	r0, r3, r0, lsl #8
    20b0:	00000047 	andeq	r0, r0, r7, asr #32
    20b4:	00060404 	andeq	r0, r6, r4, lsl #8
    20b8:	00004700 	andeq	r4, r0, r0, lsl #14
    20bc:	05000000 	streq	r0, [r0, #-0]
    20c0:	05b60204 	ldreq	r0, [r6, #516]!	; 0x204
    20c4:	62020000 	andvs	r0, r2, #0
    20c8:	00000025 	andeq	r0, r0, r5, lsr #32
    20cc:	69050406 	stmdbvs	r5, {r1, r2, sl}
    20d0:	0700746e 	streq	r7, [r0, -lr, ror #8]
    20d4:	01c50704 	biceq	r0, r5, r4, lsl #14
    20d8:	01070000 	mrseq	r0, (UNDEF: 7)
    20dc:	00011d06 	andeq	r1, r1, r6, lsl #26
    20e0:	05020700 	streq	r0, [r2, #-1792]	; 0x700
    20e4:	0000016c 	andeq	r0, r0, ip, ror #2
    20e8:	f5050407 			; <UNDEFINED> instruction: 0xf5050407
    20ec:	07000001 	streq	r0, [r0, -r1]
    20f0:	01f00508 	mvnseq	r0, r8, lsl #10
    20f4:	01070000 	mrseq	r0, (UNDEF: 7)
    20f8:	00011b08 	andeq	r1, r1, r8, lsl #22
    20fc:	07020700 	streq	r0, [r2, -r0, lsl #14]
    2100:	00000141 	andeq	r0, r0, r1, asr #2
    2104:	c0070407 	andgt	r0, r7, r7, lsl #8
    2108:	07000001 	streq	r0, [r0, -r1]
    210c:	01bb0708 			; <UNDEFINED> instruction: 0x01bb0708
    2110:	04070000 	streq	r0, [r7], #-0
    2114:	0001e707 	andeq	lr, r1, r7, lsl #14
    2118:	a7040800 	strge	r0, [r4, -r0, lsl #16]
    211c:	07000000 	streq	r0, [r0, -r0]
    2120:	01240801 	teqeq	r4, r1, lsl #16
    2124:	04080000 	streq	r0, [r8], #-0
    2128:	000000b4 	strheq	r0, [r0], -r4
    212c:	0000a709 	andeq	sl, r0, r9, lsl #14
    2130:	05ad0a00 	streq	r0, [sp, #2560]!	; 0xa00
    2134:	06010000 	streq	r0, [r1], -r0
    2138:	00000054 	andeq	r0, r0, r4, asr r0
    213c:	00008e2c 	andeq	r8, r0, ip, lsr #28
    2140:	00000058 	andeq	r0, r0, r8, asr r0
    2144:	01439c01 	cmpeq	r3, r1, lsl #24
    2148:	660b0000 	strvs	r0, [fp], -r0
    214c:	0100746d 	tsteq	r0, sp, ror #8
    2150:	0000ae06 	andeq	sl, r0, r6, lsl #28
    2154:	70910200 	addsvc	r0, r1, r0, lsl #4
    2158:	75620d0c 	strbvc	r0, [r2, #-3340]!	; 0xd0c
    215c:	08010066 	stmdaeq	r1, {r1, r2, r5, r6}
    2160:	00000143 	andeq	r0, r0, r3, asr #2
    2164:	a2340305 	eorsge	r0, r4, #335544320	; 0x14000000
    2168:	c00e0000 	andgt	r0, lr, r0
    216c:	0100000a 	tsteq	r0, sl
    2170:	00004909 	andeq	r4, r0, r9, lsl #18
    2174:	5c910200 	lfmpl	f0, 4, [r1], {0}
    2178:	007a730f 	rsbseq	r7, sl, pc, lsl #6
    217c:	00540c01 	subseq	r0, r4, r1, lsl #24
    2180:	060c0000 	streq	r0, [ip], -r0
    2184:	54100000 	ldrpl	r0, [r0], #-0
    2188:	7400008e 	strvc	r0, [r0], #-142	; 0x8e
    218c:	36000001 	strcc	r0, [r0], -r1
    2190:	11000001 	tstne	r0, r1
    2194:	91025301 	tstls	r2, r1, lsl #6
    2198:	5201114c 	andpl	r1, r1, #76, 2
    219c:	06489103 	strbeq	r9, [r8], -r3, lsl #2
    21a0:	03510111 	cmpeq	r1, #1073741828	; 0x40000004
    21a4:	1104000a 	tstne	r4, sl
    21a8:	74025001 	strvc	r5, [r2], #-1
    21ac:	68120000 	ldmdavs	r2, {}	; <UNPREDICTABLE>
    21b0:	1100008e 	smlabbne	r0, lr, r0, r0
    21b4:	74025001 	strvc	r5, [r2], #-1
    21b8:	13000000 	movwne	r0, #0
    21bc:	000000a7 	andeq	r0, r0, r7, lsr #1
    21c0:	00000154 	andeq	r0, r0, r4, asr r1
    21c4:	00009a14 	andeq	r9, r0, r4, lsl sl
    21c8:	0003ff00 	andeq	pc, r3, r0, lsl #30
    21cc:	00005415 	andeq	r5, r0, r5, lsl r4
    21d0:	00016300 	andeq	r6, r1, r0, lsl #6
    21d4:	00ae1600 	adceq	r1, lr, r0, lsl #12
    21d8:	17000000 	strne	r0, [r0, -r0]
    21dc:	00000661 	andeq	r0, r0, r1, ror #12
    21e0:	016e2204 	cmneq	lr, r4, lsl #4
    21e4:	04080000 	streq	r0, [r8], #-0
    21e8:	00000154 	andeq	r0, r0, r4, asr r1
    21ec:	0005aa18 	andeq	sl, r5, r8, lsl sl
    21f0:	54020500 	strpl	r0, [r2], #-1280	; 0x500
    21f4:	16000000 	strne	r0, [r0], -r0
    21f8:	000000a1 	andeq	r0, r0, r1, lsr #1
    21fc:	00005416 	andeq	r5, r0, r6, lsl r4
    2200:	00ae1600 	adceq	r1, lr, r0, lsl #12
    2204:	49160000 	ldmdbmi	r6, {}	; <UNPREDICTABLE>
    2208:	00000000 	andeq	r0, r0, r0
    220c:	00011300 	andeq	r1, r1, r0, lsl #6
    2210:	d7000400 	strle	r0, [r0, -r0, lsl #8]
    2214:	04000008 	streq	r0, [r0], #-8
    2218:	00055301 	andeq	r5, r5, r1, lsl #6
    221c:	06300100 	ldrteq	r0, [r0], -r0, lsl #2
    2220:	05be0000 	ldreq	r0, [lr, #0]!
    2224:	8e840000 	cdphi	0, 8, cr0, cr4, cr0, {0}
    2228:	003c0000 	eorseq	r0, ip, r0
    222c:	06db0000 	ldrbeq	r0, [fp], r0
    2230:	04020000 	streq	r0, [r2], #-0
    2234:	746e6905 	strbtvc	r6, [lr], #-2309	; 0x905
    2238:	07040300 	streq	r0, [r4, -r0, lsl #6]
    223c:	000001c5 	andeq	r0, r0, r5, asr #3
    2240:	1d060103 	stfnes	f0, [r6, #-12]
    2244:	03000001 	movweq	r0, #1
    2248:	016c0502 	cmneq	ip, r2, lsl #10
    224c:	04030000 	streq	r0, [r3], #-0
    2250:	0001f505 	andeq	pc, r1, r5, lsl #10
    2254:	05080300 	streq	r0, [r8, #-768]	; 0x300
    2258:	000001f0 	strdeq	r0, [r0], -r0	; <UNPREDICTABLE>
    225c:	1b080103 	blne	202670 <__bss_end__+0x1f8038>
    2260:	03000001 	movweq	r0, #1
    2264:	01410702 	cmpeq	r1, r2, lsl #14
    2268:	04030000 	streq	r0, [r3], #-0
    226c:	0001c007 	andeq	ip, r1, r7
    2270:	07080300 	streq	r0, [r8, -r0, lsl #6]
    2274:	000001bb 			; <UNDEFINED> instruction: 0x000001bb
    2278:	e7070403 	str	r0, [r7, -r3, lsl #8]
    227c:	03000001 	movweq	r0, #1
    2280:	01240801 	teqeq	r4, r1, lsl #16
    2284:	13040000 	movwne	r0, #16384	; 0x4000
    2288:	01000006 	tsteq	r0, r6
    228c:	00002503 	andeq	r2, r0, r3, lsl #10
    2290:	008e8400 	addeq	r8, lr, r0, lsl #8
    2294:	00001400 	andeq	r1, r0, r0, lsl #8
    2298:	b09c0100 	addslt	r0, ip, r0, lsl #2
    229c:	05000000 	streq	r0, [r0, #-0]
    22a0:	03010063 	movweq	r0, #4195	; 0x1063
    22a4:	00000025 	andeq	r0, r0, r5, lsr #32
    22a8:	00000635 	andeq	r0, r0, r5, lsr r6
    22ac:	008e9006 	addeq	r9, lr, r6
    22b0:	00010900 	andeq	r0, r1, r0, lsl #18
    22b4:	50010700 	andpl	r0, r1, r0, lsl #14
    22b8:	00007402 	andeq	r7, r0, r2, lsl #8
    22bc:	025a0800 	subseq	r0, sl, #0, 16
    22c0:	08010000 	stmdaeq	r1, {}	; <UNPREDICTABLE>
    22c4:	00008e98 	muleq	r0, r8, lr
    22c8:	00000018 	andeq	r0, r0, r8, lsl r0
    22cc:	3f099c01 	svccc	0x00099c01
    22d0:	01000006 	tsteq	r0, r6
    22d4:	008eb00b 	addeq	fp, lr, fp
    22d8:	00001000 	andeq	r1, r0, r0
    22dc:	e39c0100 	orrs	r0, ip, #0, 2
    22e0:	0a000000 	beq	22e8 <__code_start__-0x5d18>
    22e4:	01007066 	tsteq	r0, r6, rrx
    22e8:	0000f20b 	andeq	pc, r0, fp, lsl #4
    22ec:	00500100 	subseq	r0, r0, r0, lsl #2
    22f0:	0000250b 	andeq	r2, r0, fp, lsl #10
    22f4:	0000f200 	andeq	pc, r0, r0, lsl #4
    22f8:	00250c00 	eoreq	r0, r5, r0, lsl #24
    22fc:	0d000000 	stceq	0, cr0, [r0, #-0]
    2300:	0000e304 	andeq	lr, r0, r4, lsl #6
    2304:	06240e00 	strteq	r0, [r4], -r0, lsl #28
    2308:	06010000 	streq	r0, [r1], -r0
    230c:	000000f2 	strdeq	r0, [r0], -r2
    2310:	9a380305 	bls	e02f2c <__bss_end__+0xdf88f4>
    2314:	090f0000 	stmdbeq	pc, {}	; <UNPREDICTABLE>
    2318:	02000006 	andeq	r0, r0, #6
    231c:	002c0c3c 	eoreq	r0, ip, ip, lsr ip
    2320:	00000000 	andeq	r0, r0, r0
    2324:	000000ee 	andeq	r0, r0, lr, ror #1
    2328:	09bf0004 	ldmibeq	pc!, {r2}	; <UNPREDICTABLE>
    232c:	01040000 	mrseq	r0, (UNDEF: 4)
    2330:	00000553 	andeq	r0, r0, r3, asr r5
    2334:	00064c01 	andeq	r4, r6, r1, lsl #24
    2338:	0005be00 	andeq	fp, r5, r0, lsl #28
    233c:	008ec000 	addeq	ip, lr, r0
    2340:	00003400 	andeq	r3, r0, r0, lsl #8
    2344:	00077300 	andeq	r7, r7, r0, lsl #6
    2348:	05040200 	streq	r0, [r4, #-512]	; 0x200
    234c:	00746e69 	rsbseq	r6, r4, r9, ror #28
    2350:	c5070403 	strgt	r0, [r7, #-1027]	; 0x403
    2354:	03000001 	movweq	r0, #1
    2358:	011d0601 	tsteq	sp, r1, lsl #12
    235c:	02030000 	andeq	r0, r3, #0
    2360:	00016c05 	andeq	r6, r1, r5, lsl #24
    2364:	05040300 	streq	r0, [r4, #-768]	; 0x300
    2368:	000001f5 	strdeq	r0, [r0], -r5
    236c:	f0050803 			; <UNDEFINED> instruction: 0xf0050803
    2370:	03000001 	movweq	r0, #1
    2374:	011b0801 	tsteq	fp, r1, lsl #16
    2378:	02030000 	andeq	r0, r3, #0
    237c:	00014107 	andeq	r4, r1, r7, lsl #2
    2380:	07040300 	streq	r0, [r4, -r0, lsl #6]
    2384:	000001c0 	andeq	r0, r0, r0, asr #3
    2388:	bb070803 	bllt	1c439c <__bss_end__+0x1b9d64>
    238c:	03000001 	movweq	r0, #1
    2390:	01e70704 	mvneq	r0, r4, lsl #14
    2394:	01030000 	mrseq	r0, (UNDEF: 3)
    2398:	00012408 	andeq	r2, r1, r8, lsl #8
    239c:	7f040400 	svcvc	0x00040400
    23a0:	05000000 	streq	r0, [r0, #-0]
    23a4:	00000072 	andeq	r0, r0, r2, ror r0
    23a8:	00065806 	andeq	r5, r6, r6, lsl #16
    23ac:	25040100 	strcs	r0, [r4, #-256]	; 0x100
    23b0:	c0000000 	andgt	r0, r0, r0
    23b4:	3400008e 	strcc	r0, [r0], #-142	; 0x8e
    23b8:	01000000 	mrseq	r0, (UNDEF: 0)
    23bc:	0000ab9c 	muleq	r0, ip, fp
    23c0:	00700700 	rsbseq	r0, r0, r0, lsl #14
    23c4:	00790401 	rsbseq	r0, r9, r1, lsl #8
    23c8:	06530000 	ldrbeq	r0, [r3], -r0
    23cc:	08000000 	stmdaeq	r0, {}	; <UNPREDICTABLE>
    23d0:	00000025 	andeq	r0, r0, r5, lsr #32
    23d4:	000000ba 	strheq	r0, [r0], -sl
    23d8:	00002509 	andeq	r2, r0, r9, lsl #10
    23dc:	240a0000 	strcs	r0, [sl], #-0
    23e0:	02000006 	andeq	r0, r0, #6
    23e4:	0000c51d 	andeq	ip, r0, sp, lsl r5
    23e8:	ab040400 	blge	1033f0 <__bss_end__+0xf8db8>
    23ec:	08000000 	stmdaeq	r0, {}	; <UNPREDICTABLE>
    23f0:	00000025 	andeq	r0, r0, r5, lsr #32
    23f4:	000000da 	ldrdeq	r0, [r0], -sl
    23f8:	00007909 	andeq	r7, r0, r9, lsl #18
    23fc:	610b0000 	mrsvs	r0, (UNDEF: 11)
    2400:	01000006 	tsteq	r0, r6
    2404:	0000eb0c 	andeq	lr, r0, ip, lsl #22
    2408:	3c030500 	cfstr32cc	mvfx0, [r3], {-0}
    240c:	0400009a 	streq	r0, [r0], #-154	; 0x9a
    2410:	0000cb04 	andeq	ip, r0, r4, lsl #22
    2414:	06e50000 	strbteq	r0, [r5], r0
    2418:	00040000 	andeq	r0, r4, r0
    241c:	00000a58 	andeq	r0, r0, r8, asr sl
    2420:	05530104 	ldrbeq	r0, [r3, #-260]	; 0x104
    2424:	97010000 	strls	r0, [r1, -r0]
    2428:	be000006 	cdplt	0, 0, cr0, cr0, cr6, {0}
    242c:	f4000005 	vst4.8	{d0-d3}, [r0], r5
    2430:	7800008e 	stmdavc	r0, {r1, r2, r3, r7}
    2434:	17000005 	strne	r0, [r0, -r5]
    2438:	02000008 	andeq	r0, r0, #8
    243c:	6e690504 	cdpvs	5, 6, cr0, cr9, cr4, {0}
    2440:	04030074 	streq	r0, [r3], #-116	; 0x74
    2444:	0001c507 	andeq	ip, r1, r7, lsl #10
    2448:	06010300 	streq	r0, [r1], -r0, lsl #6
    244c:	0000011d 	andeq	r0, r0, sp, lsl r1
    2450:	6c050203 	sfmvs	f0, 4, [r5], {3}
    2454:	03000001 	movweq	r0, #1
    2458:	01f50504 	mvnseq	r0, r4, lsl #10
    245c:	08030000 	stmdaeq	r3, {}	; <UNPREDICTABLE>
    2460:	0001f005 	andeq	pc, r1, r5
    2464:	08010300 	stmdaeq	r1, {r8, r9}
    2468:	0000011b 	andeq	r0, r0, fp, lsl r1
    246c:	41070203 	tstmi	r7, r3, lsl #4
    2470:	03000001 	movweq	r0, #1
    2474:	01c00704 	biceq	r0, r0, r4, lsl #14
    2478:	08030000 	stmdaeq	r3, {}	; <UNPREDICTABLE>
    247c:	0001bb07 	andeq	fp, r1, r7, lsl #22
    2480:	07040300 	streq	r0, [r4, -r0, lsl #6]
    2484:	000001e7 	andeq	r0, r0, r7, ror #3
    2488:	04050404 	streq	r0, [r5], #-1028	; 0x404
    248c:	0000007a 	andeq	r0, r0, sl, ror r0
    2490:	24080103 	strcs	r0, [r8], #-259	; 0x103
    2494:	05000001 	streq	r0, [r0, #-1]
    2498:	00008704 	andeq	r8, r0, r4, lsl #14
    249c:	007a0600 	rsbseq	r0, sl, r0, lsl #12
    24a0:	36070000 	strcc	r0, [r7], -r0
    24a4:	02000005 	andeq	r0, r0, #5
    24a8:	00009728 	andeq	r9, r0, r8, lsr #14
    24ac:	05b40800 	ldreq	r0, [r4, #2048]!	; 0x800
    24b0:	04040000 	streq	r0, [r4], #-0
    24b4:	0000ae00 	andeq	sl, r0, r0, lsl #28
    24b8:	06040900 	streq	r0, [r4], -r0, lsl #18
    24bc:	00720000 	rsbseq	r0, r2, r0
    24c0:	00000000 	andeq	r0, r0, r0
    24c4:	0005b607 	andeq	fp, r5, r7, lsl #12
    24c8:	8c620200 	sfmhi	f0, 2, [r2], #-0
    24cc:	0a000000 	beq	24d4 <__code_start__-0x5b2c>
    24d0:	0000067e 	andeq	r0, r0, lr, ror r6
    24d4:	00252701 	eoreq	r2, r5, r1, lsl #14
    24d8:	8ef40000 	cdphi	0, 15, cr0, cr4, cr0, {0}
    24dc:	00140000 	andseq	r0, r4, r0
    24e0:	9c010000 	stcls	0, cr0, [r1], {-0}
    24e4:	000000e0 	andeq	r0, r0, r0, ror #1
    24e8:	0100630b 	tsteq	r0, fp, lsl #6
    24ec:	00002527 	andeq	r2, r0, r7, lsr #10
    24f0:	00067100 	andeq	r7, r6, r0, lsl #2
    24f4:	700c0000 	andvc	r0, ip, r0
    24f8:	01006461 	tsteq	r0, r1, ror #8
    24fc:	0000742e 	andeq	r7, r0, lr, lsr #8
    2500:	008f0800 	addeq	r0, pc, r0, lsl #16
    2504:	00002c00 	andeq	r2, r0, r0, lsl #24
    2508:	309c0100 	addscc	r0, ip, r0, lsl #2
    250c:	0b000001 	bleq	2518 <__code_start__-0x5ae8>
    2510:	2e010070 	mcrcs	0, 0, r0, cr1, cr0, {3}
    2514:	00000074 	andeq	r0, r0, r4, ror r0
    2518:	0000069f 	muleq	r0, pc, r6	; <UNPREDICTABLE>
    251c:	000a9e0d 	andeq	r9, sl, sp, lsl #28
    2520:	742e0100 	strtvc	r0, [lr], #-256	; 0x100
    2524:	ca000000 	bgt	252c <__code_start__-0x5ad4>
    2528:	0e000006 	cdpeq	0, 0, cr0, cr0, cr6, {0}
    252c:	000006b7 			; <UNDEFINED> instruction: 0x000006b7
    2530:	00252e01 	eoreq	r2, r5, r1, lsl #28
    2534:	52010000 	andpl	r0, r1, #0
    2538:	6e656c0f 	cdpvs	12, 6, cr6, cr5, cr15, {0}
    253c:	252f0100 	strcs	r0, [pc, #-256]!	; 2444 <__code_start__-0x5bbc>
    2540:	01000000 	mrseq	r0, (UNDEF: 0)
    2544:	760a0051 			; <UNDEFINED> instruction: 0x760a0051
    2548:	01000006 	tsteq	r0, r6
    254c:	00007437 	andeq	r7, r0, r7, lsr r4
    2550:	008f3400 	addeq	r3, pc, r0, lsl #8
    2554:	00004000 	andeq	r4, r0, r0
    2558:	9c9c0100 	ldflss	f0, [ip], {0}
    255c:	0b000001 	bleq	2568 <__code_start__-0x5a98>
    2560:	00747364 	rsbseq	r7, r4, r4, ror #6
    2564:	00743701 	rsbseq	r3, r4, r1, lsl #14
    2568:	06eb0000 	strbteq	r0, [fp], r0
    256c:	6e0b0000 	cdpvs	0, 0, cr0, cr11, cr0, {0}
    2570:	25370100 	ldrcs	r0, [r7, #-256]!	; 0x100
    2574:	23000000 	movwcs	r0, #0
    2578:	0b000007 	bleq	259c <__code_start__-0x5a64>
    257c:	37010070 	smlsdxcc	r1, r0, r0, r0
    2580:	00000074 	andeq	r0, r0, r4, ror r0
    2584:	00000744 	andeq	r0, r0, r4, asr #14
    2588:	00066a0d 	andeq	r6, r6, sp, lsl #20
    258c:	74370100 	ldrtvc	r0, [r7], #-256	; 0x100
    2590:	7a000000 	bvc	2598 <__code_start__-0x5a68>
    2594:	10000007 	andne	r0, r0, r7
    2598:	006e656c 	rsbeq	r6, lr, ip, ror #10
    259c:	00253901 	eoreq	r3, r5, r1, lsl #18
    25a0:	07980000 	ldreq	r0, [r8, r0]
    25a4:	730f0000 	movwvc	r0, #61440	; 0xf000
    25a8:	743d0100 	ldrtvc	r0, [sp], #-256	; 0x100
    25ac:	01000000 	mrseq	r0, (UNDEF: 0)
    25b0:	c50a0050 	strgt	r0, [sl, #-80]	; 0x50
    25b4:	01000006 	tsteq	r0, r6
    25b8:	00007447 	andeq	r7, r0, r7, asr #8
    25bc:	008f7400 	addeq	r7, pc, r0, lsl #8
    25c0:	0001bc00 	andeq	fp, r1, r0, lsl #24
    25c4:	df9c0100 	svcle	0x009c0100
    25c8:	0d000002 	stceq	0, cr0, [r0, #-8]
    25cc:	00000a9e 	muleq	r0, lr, sl
    25d0:	002c4701 	eoreq	r4, ip, r1, lsl #14
    25d4:	07bf0000 	ldreq	r0, [pc, r0]!
    25d8:	640b0000 	strvs	r0, [fp], #-0
    25dc:	01007473 	tsteq	r0, r3, ror r4
    25e0:	00007447 	andeq	r7, r0, r7, asr #8
    25e4:	0007ed00 	andeq	lr, r7, r0, lsl #26
    25e8:	006e0b00 	rsbeq	r0, lr, r0, lsl #22
    25ec:	00254701 	eoreq	r4, r5, r1, lsl #14
    25f0:	085b0000 	ldmdaeq	fp, {}^	; <UNPREDICTABLE>
    25f4:	760b0000 	strvc	r0, [fp], -r0
    25f8:	01006c61 	tsteq	r0, r1, ror #24
    25fc:	00002547 	andeq	r2, r0, r7, asr #10
    2600:	00088700 	andeq	r8, r8, r0, lsl #14
    2604:	06b70d00 	ldrteq	r0, [r7], r0, lsl #26
    2608:	47010000 	strmi	r0, [r1, -r0]
    260c:	00000025 	andeq	r0, r0, r5, lsr #32
    2610:	00000906 	andeq	r0, r0, r6, lsl #18
    2614:	00068e0e 	andeq	r8, r6, lr, lsl #28
    2618:	25470100 	strbcs	r0, [r7, #-256]	; 0x100
    261c:	02000000 	andeq	r0, r0, #0
    2620:	620f0491 	andvs	r0, pc, #-1862270976	; 0x91000000
    2624:	01006675 	tsteq	r0, r5, ror r6
    2628:	0002df4c 	andeq	sp, r2, ip, asr #30
    262c:	a8910300 	ldmge	r1, {r8, r9}
    2630:	0070107f 	rsbseq	r1, r0, pc, ror r0
    2634:	00744c01 	rsbseq	r4, r4, r1, lsl #24
    2638:	09300000 	ldmdbeq	r0!, {}	; <UNPREDICTABLE>
    263c:	75100000 	ldrvc	r0, [r0, #-0]
    2640:	2c4d0100 	stfcse	f0, [sp], {-0}
    2644:	1a000000 	bne	264c <__code_start__-0x59b4>
    2648:	1100000a 	tstne	r0, sl
    264c:	00000176 	andeq	r0, r0, r6, ror r1
    2650:	000002ff 	strdeq	r0, [r0], -pc	; <UNPREDICTABLE>
    2654:	a0000305 	andge	r0, r0, r5, lsl #6
    2658:	e0120000 	ands	r0, r2, r0
    265c:	7400008f 	strvc	r0, [r0], #-143	; 0x8f
    2660:	61000000 	mrsvs	r0, (UNDEF: 0)
    2664:	13000002 	movwne	r0, #2
    2668:	00000670 	andeq	r0, r0, r0, ror r6
    266c:	002c5201 	eoreq	r5, ip, r1, lsl #4
    2670:	0add0000 	beq	ff742678 <__bss_end__+0xff738040>
    2674:	14000000 	strne	r0, [r0], #-0
    2678:	000090cc 	andeq	r9, r0, ip, asr #1
    267c:	000006c4 	andeq	r0, r0, r4, asr #13
    2680:	0090e815 	addseq	lr, r0, r5, lsl r8
    2684:	0006cb00 	andeq	ip, r6, r0, lsl #22
    2688:	0002a300 	andeq	sl, r2, r0, lsl #6
    268c:	53011600 	movwpl	r1, #5632	; 0x1600
    2690:	16770802 	ldrbtne	r0, [r7], -r2, lsl #16
    2694:	03055201 	movweq	r5, #20993	; 0x5201
    2698:	0000a000 	andeq	sl, r0, r0
    269c:	05510116 	ldrbeq	r0, [r1, #-278]	; 0x116
    26a0:	00a02403 	adceq	r2, r0, r3, lsl #8
    26a4:	50011600 	andpl	r1, r1, r0, lsl #12
    26a8:	9a780305 	bls	1e032c4 <__bss_end__+0x1df8c8c>
    26ac:	02160000 	andseq	r0, r6, #0
    26b0:	0305007d 	movweq	r0, #20605	; 0x507d
    26b4:	0000a038 	andeq	sl, r0, r8, lsr r0
    26b8:	90ec1400 	rscls	r1, ip, r0, lsl #8
    26bc:	06e10000 	strbteq	r0, [r1], r0
    26c0:	f4150000 			; <UNDEFINED> instruction: 0xf4150000
    26c4:	e0000090 	mul	r0, r0, r0
    26c8:	c1000000 	mrsgt	r0, (UNDEF: 0)
    26cc:	16000002 	strne	r0, [r0], -r2
    26d0:	91035101 	tstls	r3, r1, lsl #2
    26d4:	17007fa0 	strne	r7, [r0, -r0, lsr #31]
    26d8:	00009108 	andeq	r9, r0, r8, lsl #2
    26dc:	00000130 	andeq	r0, r0, r0, lsr r1
    26e0:	03530116 	cmpeq	r3, #-2147483643	; 0x80000005
    26e4:	167fa091 			; <UNDEFINED> instruction: 0x167fa091
    26e8:	74025101 	strvc	r5, [r2], #-257	; 0x101
    26ec:	50011600 	andpl	r1, r1, r0, lsl #12
    26f0:	00007502 	andeq	r7, r0, r2, lsl #10
    26f4:	007a1800 	rsbseq	r1, sl, r0, lsl #16
    26f8:	02ef0000 	rsceq	r0, pc, #0
    26fc:	6b190000 	blvs	642704 <__bss_end__+0x6380cc>
    2700:	3f000000 	svccc	0x00000000
    2704:	007a1800 	rsbseq	r1, sl, r0, lsl #16
    2708:	02ff0000 	rscseq	r0, pc, #0
    270c:	6b190000 	blvs	642714 <__bss_end__+0x6380dc>
    2710:	04000000 	streq	r0, [r0], #-0
    2714:	02ef0600 	rsceq	r0, pc, #0, 12
    2718:	a81a0000 	ldmdage	sl, {}	; <UNPREDICTABLE>
    271c:	01000006 	tsteq	r0, r6
    2720:	0091301f 	addseq	r3, r1, pc, lsl r0
    2724:	00006800 	andeq	r6, r0, r0, lsl #16
    2728:	929c0100 	addsls	r0, ip, #0, 2
    272c:	0d000003 	stceq	0, cr0, [r0, #-12]
    2730:	000006bd 			; <UNDEFINED> instruction: 0x000006bd
    2734:	03a11f01 			; <UNDEFINED> instruction: 0x03a11f01
    2738:	0b090000 	bleq	242740 <__bss_end__+0x238108>
    273c:	860d0000 	strhi	r0, [sp], -r0
    2740:	01000006 	tsteq	r0, r6
    2744:	0003b61f 	andeq	fp, r3, pc, lsl r6
    2748:	000b3500 	andeq	r3, fp, r0, lsl #10
    274c:	01761100 	cmneq	r6, r0, lsl #2
    2750:	03cc0000 	biceq	r0, ip, #0
    2754:	03050000 	movweq	r0, #20480	; 0x5000
    2758:	0000a008 	andeq	sl, r0, r8
    275c:	00914414 	addseq	r4, r1, r4, lsl r4
    2760:	0006c400 	andeq	ip, r6, r0, lsl #8
    2764:	91601500 	cmnls	r0, r0, lsl #10
    2768:	06cb0000 	strbeq	r0, [fp], r0
    276c:	03880000 	orreq	r0, r8, #0
    2770:	01160000 	tsteq	r6, r0
    2774:	20080253 	andcs	r0, r8, r3, asr r2
    2778:	05520116 	ldrbeq	r0, [r2, #-278]	; 0x116
    277c:	00a00803 	adceq	r0, r0, r3, lsl #16
    2780:	51011600 	tstpl	r1, r0, lsl #12
    2784:	a0240305 	eorge	r0, r4, r5, lsl #6
    2788:	01160000 	tsteq	r6, r0
    278c:	78030550 	stmdavc	r3, {r4, r6, r8, sl}
    2790:	1600009a 			; <UNDEFINED> instruction: 0x1600009a
    2794:	05007d02 	streq	r7, [r0, #-3330]	; 0xd02
    2798:	00a06003 	adceq	r6, r0, r3
    279c:	64140000 	ldrvs	r0, [r4], #-0
    27a0:	e1000091 	swp	r0, r1, [r0]	; <UNPREDICTABLE>
    27a4:	00000006 	andeq	r0, r0, r6
    27a8:	0000251b 	andeq	r2, r0, fp, lsl r5
    27ac:	0003a100 	andeq	sl, r3, r0, lsl #2
    27b0:	00251c00 	eoreq	r1, r5, r0, lsl #24
    27b4:	05000000 	streq	r0, [r0, #-0]
    27b8:	00039204 	andeq	r9, r3, r4, lsl #4
    27bc:	00251b00 	eoreq	r1, r5, r0, lsl #22
    27c0:	03b60000 			; <UNDEFINED> instruction: 0x03b60000
    27c4:	811c0000 	tsthi	ip, r0
    27c8:	00000000 	andeq	r0, r0, r0
    27cc:	03a70405 			; <UNDEFINED> instruction: 0x03a70405
    27d0:	7a180000 	bvc	6027d8 <__bss_end__+0x5f81a0>
    27d4:	cc000000 	stcgt	0, cr0, [r0], {-0}
    27d8:	19000003 	stmdbne	r0, {r0, r1}
    27dc:	0000006b 	andeq	r0, r0, fp, rrx
    27e0:	bc06000e 	stclt	0, cr0, [r6], {14}
    27e4:	1d000003 	stcne	0, cr0, [r0, #-12]
    27e8:	000005aa 	andeq	r0, r0, sl, lsr #11
    27ec:	00257f01 	eoreq	r7, r5, r1, lsl #30
    27f0:	91980000 	orrsls	r0, r8, r0
    27f4:	02d40000 	sbcseq	r0, r4, #0
    27f8:	9c010000 	stcls	0, cr0, [r1], {-0}
    27fc:	00000689 	andeq	r0, r0, r9, lsl #13
    2800:	6675620b 	ldrbtvs	r6, [r5], -fp, lsl #4
    2804:	747f0100 	ldrbtvc	r0, [pc], #-256	; 280c <__code_start__-0x57f4>
    2808:	61000000 	mrsvs	r0, (UNDEF: 0)
    280c:	0b00000b 	bleq	2840 <__code_start__-0x57c0>
    2810:	7f01006e 	svcvc	0x0001006e
    2814:	00000025 	andeq	r0, r0, r5, lsr #32
    2818:	00000b8d 	andeq	r0, r0, sp, lsl #23
    281c:	746d660b 	strbtvc	r6, [sp], #-1547	; 0x60b
    2820:	817f0100 	cmnhi	pc, r0, lsl #2
    2824:	bb000000 	bllt	282c <__code_start__-0x57d4>
    2828:	0d00000b 	stceq	0, cr0, [r0, #-44]	; 0xffffffd4
    282c:	00000ac0 	andeq	r0, r0, r0, asr #21
    2830:	00ae7f01 	adceq	r7, lr, r1, lsl #30
    2834:	0bd90000 	bleq	ff64283c <__bss_end__+0xff638204>
    2838:	70100000 	andsvc	r0, r0, r0
    283c:	74800100 	strvc	r0, [r0], #256	; 0x100
    2840:	ec000000 	stc	0, cr0, [r0], {-0}
    2844:	1000000b 	andne	r0, r0, fp
    2848:	80010065 	andhi	r0, r1, r5, rrx
    284c:	00000074 	andeq	r0, r0, r4, ror r0
    2850:	00000c6a 	andeq	r0, r0, sl, ror #24
    2854:	00066613 	andeq	r6, r6, r3, lsl r6
    2858:	81830100 	orrhi	r0, r3, r0, lsl #2
    285c:	91000000 	mrsls	r0, (UNDEF: 0)
    2860:	1100000c 	tstne	r0, ip
    2864:	00000176 	andeq	r0, r0, r6, ror r1
    2868:	00000699 	muleq	r0, r9, r6
    286c:	a0180305 	andsge	r0, r8, r5, lsl #6
    2870:	f41e0000 			; <UNDEFINED> instruction: 0xf41e0000
    2874:	2c000091 	stccs	0, cr0, [r0], {145}	; 0x91
    2878:	10000002 	andne	r0, r0, r2
    287c:	8e010073 	mcrhi	0, 0, r0, cr1, cr3, {3}
    2880:	00000074 	andeq	r0, r0, r4, ror r0
    2884:	00000cb1 			; <UNDEFINED> instruction: 0x00000cb1
    2888:	6d756e0f 	ldclvs	14, cr6, [r5, #-60]!	; 0xffffffc4
    288c:	9e8e0100 	rmflse	f0, f6, f0
    2890:	03000006 	movweq	r0, #6
    2894:	137ed891 	cmnne	lr, #9502720	; 0x910000
    2898:	000006b7 			; <UNDEFINED> instruction: 0x000006b7
    289c:	002c8f01 	eoreq	r8, ip, r1, lsl #30
    28a0:	0d060000 	stceq	0, cr0, [r6, #-0]
    28a4:	24150000 	ldrcs	r0, [r5], #-0
    28a8:	b9000092 	stmdblt	r0, {r1, r4, r7}
    28ac:	a4000000 	strge	r0, [r0], #-0
    28b0:	16000004 	strne	r0, [r0], -r4
    28b4:	75025001 	strvc	r5, [r2, #-1]
    28b8:	38140000 	ldmdacc	r4, {}	; <UNPREDICTABLE>
    28bc:	c4000092 	strgt	r0, [r0], #-146	; 0x92
    28c0:	15000006 	strne	r0, [r0, #-6]
    28c4:	00009254 	andeq	r9, r0, r4, asr r2
    28c8:	000006cb 	andeq	r0, r0, fp, asr #13
    28cc:	000004e6 	andeq	r0, r0, r6, ror #9
    28d0:	02530116 	subseq	r0, r3, #-2147483643	; 0x80000005
    28d4:	01169508 	tsteq	r6, r8, lsl #10
    28d8:	18030552 	stmdane	r3, {r1, r4, r6, r8, sl}
    28dc:	160000a0 	strne	r0, [r0], -r0, lsr #1
    28e0:	03055101 	movweq	r5, #20737	; 0x5101
    28e4:	0000a024 	andeq	sl, r0, r4, lsr #32
    28e8:	05500116 	ldrbeq	r0, [r0, #-278]	; 0x116
    28ec:	009a7803 	addseq	r7, sl, r3, lsl #16
    28f0:	7d021600 	stcvc	6, cr1, [r2, #-0]
    28f4:	68030500 	stmdavs	r3, {r8, sl}
    28f8:	000000a0 	andeq	r0, r0, r0, lsr #1
    28fc:	00925814 	addseq	r5, r2, r4, lsl r8
    2900:	0006e100 	andeq	lr, r6, r0, lsl #2
    2904:	92c81400 	sbcls	r1, r8, #0, 8
    2908:	06c40000 	strbeq	r0, [r4], r0
    290c:	dc150000 	ldcle	0, cr0, [r5], {-0}
    2910:	cb000092 	blgt	2b60 <__code_start__-0x54a0>
    2914:	27000006 	strcs	r0, [r0, -r6]
    2918:	16000005 	strne	r0, [r0], -r5
    291c:	08025301 	stmdaeq	r2, {r0, r8, r9, ip, lr}
    2920:	5201169b 	andpl	r1, r1, #162529280	; 0x9b00000
    2924:	a0180305 	andsge	r0, r8, r5, lsl #6
    2928:	01160000 	tsteq	r6, r0
    292c:	24030551 	strcs	r0, [r3], #-1361	; 0x551
    2930:	160000a0 	strne	r0, [r0], -r0, lsr #1
    2934:	03055001 	movweq	r5, #20481	; 0x5001
    2938:	0000a074 	andeq	sl, r0, r4, ror r0
    293c:	92e01400 	rscls	r1, r0, #0, 8
    2940:	06e10000 	strbteq	r0, [r1], r0
    2944:	04150000 	ldreq	r0, [r5], #-0
    2948:	9c000093 	stcls	0, cr0, [r0], {147}	; 0x93
    294c:	5d000001 	stcpl	0, cr0, [r0, #-4]
    2950:	16000005 	strne	r0, [r0], -r5
    2954:	08025201 	stmdaeq	r2, {r0, r9, ip, lr}
    2958:	51011680 	smlabbpl	r1, r0, r6, r1
    295c:	7ed09103 	atnvcs	f1, f3
    2960:	01500116 	cmpeq	r0, r6, lsl r1
    2964:	7d02163a 	stcvc	6, cr1, [r2, #-232]	; 0xffffff18
    2968:	16310104 	ldrtne	r0, [r1], -r4, lsl #2
    296c:	02007d02 	andeq	r7, r0, #2, 26	; 0x80
    2970:	15000077 	strne	r0, [r0, #-119]	; 0x77
    2974:	0000932c 	andeq	r9, r0, ip, lsr #6
    2978:	0000019c 	muleq	r0, ip, r1
    297c:	0000058a 	andeq	r0, r0, sl, lsl #11
    2980:	02520116 	subseq	r0, r2, #-2147483643	; 0x80000005
    2984:	01168008 	tsteq	r6, r8
    2988:	d0910351 	addsle	r0, r1, r1, asr r3
    298c:	5001167e 	andpl	r1, r1, lr, ror r6
    2990:	02163a01 	andseq	r3, r6, #4096	; 0x1000
    2994:	3001047d 	andcc	r0, r1, sp, ror r4
    2998:	007d0216 	rsbseq	r0, sp, r6, lsl r2
    299c:	00007702 	andeq	r7, r0, r2, lsl #14
    29a0:	00935415 	addseq	r5, r3, r5, lsl r4
    29a4:	00019c00 	andeq	r9, r1, r0, lsl #24
    29a8:	0005b700 	andeq	fp, r5, r0, lsl #14
    29ac:	52011600 	andpl	r1, r1, #0, 12
    29b0:	16800802 	strne	r0, [r0], r2, lsl #16
    29b4:	91035101 	tstls	r3, r1, lsl #2
    29b8:	01167ed0 			; <UNDEFINED> instruction: 0x01167ed0
    29bc:	16400150 			; <UNDEFINED> instruction: 0x16400150
    29c0:	01047d02 	tsteq	r4, r2, lsl #26
    29c4:	7d021630 	stcvc	6, cr1, [r2, #-192]	; 0xffffff40
    29c8:	00770200 	rsbseq	r0, r7, r0, lsl #4
    29cc:	937c1500 	cmnls	ip, #0, 10
    29d0:	019c0000 	orrseq	r0, ip, r0
    29d4:	05e40000 	strbeq	r0, [r4, #0]!
    29d8:	01160000 	tsteq	r6, r0
    29dc:	80080252 	andhi	r0, r8, r2, asr r2
    29e0:	03510116 	cmpeq	r1, #-2147483643	; 0x80000005
    29e4:	167ed091 			; <UNDEFINED> instruction: 0x167ed091
    29e8:	32015001 	andcc	r5, r1, #1
    29ec:	047d0216 	ldrbteq	r0, [sp], #-534	; 0x216
    29f0:	02163001 	andseq	r3, r6, #1
    29f4:	7702007d 	smlsdxvc	r2, sp, r0, r0
    29f8:	b0150000 	andslt	r0, r5, r0
    29fc:	9c000093 	stcls	0, cr0, [r0], {147}	; 0x93
    2a00:	11000001 	tstne	r0, r1
    2a04:	16000006 	strne	r0, [r0], -r6
    2a08:	08025201 	stmdaeq	r2, {r0, r9, ip, lr}
    2a0c:	51011680 	smlabbpl	r1, r0, r6, r1
    2a10:	7ed09103 	atnvcs	f1, f3
    2a14:	01500116 	cmpeq	r0, r6, lsl r1
    2a18:	7d021638 	stcvc	6, cr1, [r2, #-224]	; 0xffffff20
    2a1c:	16300104 	ldrtne	r0, [r0], -r4, lsl #2
    2a20:	02007d02 	andeq	r7, r0, #2, 26	; 0x80
    2a24:	15000077 	strne	r0, [r0, #-119]	; 0x77
    2a28:	000093cc 	andeq	r9, r0, ip, asr #7
    2a2c:	000006cb 	andeq	r0, r0, fp, asr #13
    2a30:	00000634 	andeq	r0, r0, r4, lsr r6
    2a34:	02520116 	subseq	r0, r2, #-2147483643	; 0x80000005
    2a38:	01160079 	tsteq	r6, r9, ror r0
    2a3c:	00790251 	rsbseq	r0, r9, r1, asr r2
    2a40:	05500116 	ldrbeq	r0, [r0, #-278]	; 0x116
    2a44:	00a09c03 	adceq	r9, r0, r3, lsl #24
    2a48:	dc1f0000 	ldcle	0, cr0, [pc], {-0}
    2a4c:	46000093 			; <UNDEFINED> instruction: 0x46000093
    2a50:	16000006 	strne	r0, [r0], -r6
    2a54:	91045001 	tstls	r4, r1
    2a58:	00067ecc 	andeq	r7, r6, ip, asr #29
    2a5c:	0093e014 	addseq	lr, r3, r4, lsl r0
    2a60:	0006c400 	andeq	ip, r6, r0, lsl #8
    2a64:	93f41500 	mvnsls	r1, #0, 10
    2a68:	06cb0000 	strbeq	r0, [fp], r0
    2a6c:	067e0000 	ldrbteq	r0, [lr], -r0
    2a70:	01160000 	tsteq	r6, r0
    2a74:	bf080253 	svclt	0x00080253
    2a78:	05520116 	ldrbeq	r0, [r2, #-278]	; 0x116
    2a7c:	00a01803 	adceq	r1, r0, r3, lsl #16
    2a80:	51011600 	tstpl	r1, r0, lsl #12
    2a84:	a0240305 	eorge	r0, r4, r5, lsl #6
    2a88:	01160000 	tsteq	r6, r0
    2a8c:	cc030550 	cfstr32gt	mvfx0, [r3], {80}	; 0x50
    2a90:	000000a0 	andeq	r0, r0, r0, lsr #1
    2a94:	0093f814 	addseq	pc, r3, r4, lsl r8	; <UNPREDICTABLE>
    2a98:	0006e100 	andeq	lr, r6, r0, lsl #2
    2a9c:	18000000 	stmdane	r0, {}	; <UNPREDICTABLE>
    2aa0:	0000007a 	andeq	r0, r0, sl, ror r0
    2aa4:	00000699 	muleq	r0, r9, r6
    2aa8:	00006b19 	andeq	r6, r0, r9, lsl fp
    2aac:	06000900 	streq	r0, [r0], -r0, lsl #18
    2ab0:	00000689 	andeq	r0, r0, r9, lsl #13
    2ab4:	00007a18 	andeq	r7, r0, r8, lsl sl
    2ab8:	0006ae00 	andeq	sl, r6, r0, lsl #28
    2abc:	006b1900 	rsbeq	r1, fp, r0, lsl #18
    2ac0:	007f0000 	rsbseq	r0, pc, r0
    2ac4:	00062420 	andeq	r2, r6, r0, lsr #8
    2ac8:	a11d0300 	tstge	sp, r0, lsl #6
    2acc:	20000003 	andcs	r0, r0, r3
    2ad0:	00000661 	andeq	r0, r0, r1, ror #12
    2ad4:	03b62203 			; <UNDEFINED> instruction: 0x03b62203
    2ad8:	5a210000 	bpl	842ae0 <__bss_end__+0x8384a8>
    2adc:	03000002 	movweq	r0, #2
    2ae0:	05ad221e 	streq	r2, [sp, #542]!	; 0x21e
    2ae4:	29030000 	stmdbcs	r3, {}	; <UNPREDICTABLE>
    2ae8:	00000025 	andeq	r0, r0, r5, lsr #32
    2aec:	000006e1 	andeq	r0, r0, r1, ror #13
    2af0:	0000811c 	andeq	r8, r0, ip, lsl r1
    2af4:	21002300 	mrscs	r2, LR_irq
    2af8:	00000129 	andeq	r0, r0, r9, lsr #2
    2afc:	b8006503 	stmdalt	r0, {r0, r1, r8, sl, sp, lr}
    2b00:	04000000 	streq	r0, [r0], #-0
    2b04:	000c4100 	andeq	r4, ip, r0, lsl #2
    2b08:	53010400 	movwpl	r0, #5120	; 0x1400
    2b0c:	01000005 	tsteq	r0, r5
    2b10:	000006d8 	ldrdeq	r0, [r0], -r8
    2b14:	000005be 			; <UNDEFINED> instruction: 0x000005be
    2b18:	0000946c 	andeq	r9, r0, ip, ror #8
    2b1c:	00000020 	andeq	r0, r0, r0, lsr #32
    2b20:	00000a0c 	andeq	r0, r0, ip, lsl #20
    2b24:	69050402 	stmdbvs	r5, {r1, sl}
    2b28:	0300746e 	movweq	r7, #1134	; 0x46e
    2b2c:	01c50704 	biceq	r0, r5, r4, lsl #14
    2b30:	01030000 	mrseq	r0, (UNDEF: 3)
    2b34:	00011d06 	andeq	r1, r1, r6, lsl #26
    2b38:	05020300 	streq	r0, [r2, #-768]	; 0x300
    2b3c:	0000016c 	andeq	r0, r0, ip, ror #2
    2b40:	f5050403 			; <UNDEFINED> instruction: 0xf5050403
    2b44:	03000001 	movweq	r0, #1
    2b48:	01f00508 	mvnseq	r0, r8, lsl #10
    2b4c:	01030000 	mrseq	r0, (UNDEF: 3)
    2b50:	00011b08 	andeq	r1, r1, r8, lsl #22
    2b54:	07020300 	streq	r0, [r2, -r0, lsl #6]
    2b58:	00000141 	andeq	r0, r0, r1, asr #2
    2b5c:	c0070403 	andgt	r0, r7, r3, lsl #8
    2b60:	03000001 	movweq	r0, #1
    2b64:	01bb0708 			; <UNDEFINED> instruction: 0x01bb0708
    2b68:	04030000 	streq	r0, [r3], #-0
    2b6c:	0001e707 	andeq	lr, r1, r7, lsl #14
    2b70:	08010300 	stmdaeq	r1, {r8, r9}
    2b74:	00000124 	andeq	r0, r0, r4, lsr #2
    2b78:	00021504 	andeq	r1, r2, r4, lsl #10
    2b7c:	6c030100 	stfvss	f0, [r3], {-0}
    2b80:	10000094 	mulne	r0, r4, r0
    2b84:	01000000 	mrseq	r0, (UNDEF: 0)
    2b88:	00009c9c 	muleq	r0, ip, ip
    2b8c:	00720500 	rsbseq	r0, r2, r0, lsl #10
    2b90:	002c0401 	eoreq	r0, ip, r1, lsl #8
    2b94:	0d300000 	ldceq	0, cr0, [r0, #-0]
    2b98:	06000000 	streq	r0, [r0], -r0
    2b9c:	000006ca 	andeq	r0, r0, sl, asr #13
    2ba0:	947c0c01 	ldrbtls	r0, [ip], #-3073	; 0xc01
    2ba4:	00100000 	andseq	r0, r0, r0
    2ba8:	9c010000 	stcls	0, cr0, [r1], {-0}
    2bac:	01007205 	tsteq	r0, r5, lsl #4
    2bb0:	00002c0d 	andeq	r2, r0, sp, lsl #24
    2bb4:	000d5400 	andeq	r5, sp, r0, lsl #8
    2bb8:	0f000000 	svceq	0x00000000
    2bbc:	04000001 	streq	r0, [r0], #-1
    2bc0:	000cac00 	andeq	sl, ip, r0, lsl #24
    2bc4:	53010400 	movwpl	r0, #5120	; 0x1400
    2bc8:	01000005 	tsteq	r0, r5
    2bcc:	000006f9 	strdeq	r0, [r0], -r9
    2bd0:	000005be 			; <UNDEFINED> instruction: 0x000005be
    2bd4:	0000948c 	andeq	r9, r0, ip, lsl #9
    2bd8:	0000002c 	andeq	r0, r0, ip, lsr #32
    2bdc:	00000a52 	andeq	r0, r0, r2, asr sl
    2be0:	69050402 	stmdbvs	r5, {r1, sl}
    2be4:	0300746e 	movweq	r7, #1134	; 0x46e
    2be8:	01c50704 	biceq	r0, r5, r4, lsl #14
    2bec:	01030000 	mrseq	r0, (UNDEF: 3)
    2bf0:	00011d06 	andeq	r1, r1, r6, lsl #26
    2bf4:	05020300 	streq	r0, [r2, #-768]	; 0x300
    2bf8:	0000016c 	andeq	r0, r0, ip, ror #2
    2bfc:	f5050403 			; <UNDEFINED> instruction: 0xf5050403
    2c00:	03000001 	movweq	r0, #1
    2c04:	01f00508 	mvnseq	r0, r8, lsl #10
    2c08:	01030000 	mrseq	r0, (UNDEF: 3)
    2c0c:	00011b08 	andeq	r1, r1, r8, lsl #22
    2c10:	07020300 	streq	r0, [r2, -r0, lsl #6]
    2c14:	00000141 	andeq	r0, r0, r1, asr #2
    2c18:	c0070403 	andgt	r0, r7, r3, lsl #8
    2c1c:	03000001 	movweq	r0, #1
    2c20:	01bb0708 			; <UNDEFINED> instruction: 0x01bb0708
    2c24:	04030000 	streq	r0, [r3], #-0
    2c28:	0001e707 	andeq	lr, r1, r7, lsl #14
    2c2c:	08010300 	stmdaeq	r1, {r8, r9}
    2c30:	00000124 	andeq	r0, r0, r4, lsr #2
    2c34:	007f0404 	rsbseq	r0, pc, r4, lsl #8
    2c38:	72050000 	andvc	r0, r5, #0
    2c3c:	06000000 	streq	r0, [r0], -r0
    2c40:	00000129 	andeq	r0, r0, r9, lsr #2
    2c44:	948c0401 	strls	r0, [ip], #1025	; 0x401
    2c48:	002c0000 	eoreq	r0, ip, r0
    2c4c:	9c010000 	stcls	0, cr0, [r1], {-0}
    2c50:	000000d3 	ldrdeq	r0, [r0], -r3
    2c54:	00949407 	addseq	r9, r4, r7, lsl #8
    2c58:	0000f300 	andeq	pc, r0, r0, lsl #6
    2c5c:	94a40800 	strtls	r0, [r4], #2048	; 0x800
    2c60:	00b50000 	adcseq	r0, r5, r0
    2c64:	01090000 	mrseq	r0, (UNDEF: 9)
    2c68:	ec030550 	cfstr32	mvfx0, [r3], {80}	; 0x50
    2c6c:	000000a0 	andeq	r0, r0, r0, lsr #1
    2c70:	0094ac0a 	addseq	sl, r4, sl, lsl #24
    2c74:	0000fa00 	andeq	pc, r0, r0, lsl #20
    2c78:	0000c900 	andeq	ip, r0, r0, lsl #18
    2c7c:	50010900 	andpl	r0, r1, r0, lsl #18
    2c80:	00640802 	rsbeq	r0, r4, r2, lsl #16
    2c84:	0094b007 	addseq	fp, r4, r7
    2c88:	00010b00 	andeq	r0, r1, r0, lsl #22
    2c8c:	250b0000 	strcs	r0, [fp, #-0]
    2c90:	e2000000 	and	r0, r0, #0
    2c94:	0c000000 	stceq	0, cr0, [r0], {-0}
    2c98:	00000079 	andeq	r0, r0, r9, ror r0
    2c9c:	06610d00 	strbteq	r0, [r1], -r0, lsl #26
    2ca0:	22020000 	andcs	r0, r2, #0
    2ca4:	000000ed 	andeq	r0, r0, sp, ror #1
    2ca8:	00d30404 	sbcseq	r0, r3, r4, lsl #8
    2cac:	ea0e0000 	b	382cb4 <__bss_end__+0x37867c>
    2cb0:	02000006 	andeq	r0, r0, #6
    2cb4:	071d0fdc 			; <UNDEFINED> instruction: 0x071d0fdc
    2cb8:	4f020000 	svcmi	0x00020000
    2cbc:	0000010b 	andeq	r0, r0, fp, lsl #2
    2cc0:	00002c0c 	andeq	r2, r0, ip, lsl #24
    2cc4:	120e0000 	andne	r0, lr, #0
    2cc8:	02000007 	andeq	r0, r0, #7
    2ccc:	010f0062 	tsteq	pc, r2, rrx
    2cd0:	00040000 	andeq	r0, r4, r0
    2cd4:	00000d76 	andeq	r0, r0, r6, ror sp
    2cd8:	05530104 	ldrbeq	r0, [r3, #-260]	; 0x104
    2cdc:	5f010000 	svcpl	0x00010000
    2ce0:	be000007 	cdplt	0, 0, cr0, cr0, cr7, {0}
    2ce4:	b8000005 	stmdalt	r0, {r0, r2}
    2ce8:	38000094 	stmdacc	r0, {r2, r4, r7}
    2cec:	f3000000 	vhadd.u8	d0, d0, d0
    2cf0:	0200000a 	andeq	r0, r0, #10
    2cf4:	6e690504 	cdpvs	5, 6, cr0, cr9, cr4, {0}
    2cf8:	04030074 	streq	r0, [r3], #-116	; 0x74
    2cfc:	0001c507 	andeq	ip, r1, r7, lsl #10
    2d00:	06010300 	streq	r0, [r1], -r0, lsl #6
    2d04:	0000011d 	andeq	r0, r0, sp, lsl r1
    2d08:	6c050203 	sfmvs	f0, 4, [r5], {3}
    2d0c:	03000001 	movweq	r0, #1
    2d10:	01f50504 	mvnseq	r0, r4, lsl #10
    2d14:	08030000 	stmdaeq	r3, {}	; <UNPREDICTABLE>
    2d18:	0001f005 	andeq	pc, r1, r5
    2d1c:	08010300 	stmdaeq	r1, {r8, r9}
    2d20:	0000011b 	andeq	r0, r0, fp, lsl r1
    2d24:	41070203 	tstmi	r7, r3, lsl #4
    2d28:	03000001 	movweq	r0, #1
    2d2c:	01c00704 	biceq	r0, r0, r4, lsl #14
    2d30:	08030000 	stmdaeq	r3, {}	; <UNPREDICTABLE>
    2d34:	0001bb07 	andeq	fp, r1, r7, lsl #22
    2d38:	07040300 	streq	r0, [r4, -r0, lsl #6]
    2d3c:	000001e7 	andeq	r0, r0, r7, ror #3
    2d40:	24080103 	strcs	r0, [r8], #-259	; 0x103
    2d44:	04000001 	streq	r0, [r0], #-1
    2d48:	00000757 	andeq	r0, r0, r7, asr r7
    2d4c:	94b80d01 	ldrtls	r0, [r8], #3329	; 0xd01
    2d50:	00380000 	eorseq	r0, r8, r0
    2d54:	9c010000 	stcls	0, cr0, [r1], {-0}
    2d58:	000000e1 	andeq	r0, r0, r1, ror #1
    2d5c:	00072605 	andeq	r2, r7, r5, lsl #12
    2d60:	250e0100 	strcs	r0, [lr, #-256]	; 0x100
    2d64:	05000000 	streq	r0, [r0, #-0]
    2d68:	00000734 	andeq	r0, r0, r4, lsr r7
    2d6c:	00250e01 	eoreq	r0, r5, r1, lsl #28
    2d70:	81060000 	mrshi	r0, (UNDEF: 6)
    2d74:	01000000 	mrseq	r0, (UNDEF: 0)
    2d78:	7362070f 	cmnvc	r2, #3932160	; 0x3c0000
    2d7c:	11010073 	tstne	r1, r3, ror r0
    2d80:	000000e1 	andeq	r0, r0, r1, ror #1
    2d84:	00000d78 	andeq	r0, r0, r8, ror sp
    2d88:	00074f08 	andeq	r4, r7, r8, lsl #30
    2d8c:	e1120100 	tst	r2, r0, lsl #2
    2d90:	09000000 	stmdbeq	r0, {}	; <UNPREDICTABLE>
    2d94:	000094e0 	andeq	r9, r0, r0, ror #9
    2d98:	000000fd 	strdeq	r0, [r0], -sp
    2d9c:	0094e409 	addseq	lr, r4, r9, lsl #8
    2da0:	00010400 	andeq	r0, r1, r0, lsl #8
    2da4:	94e80900 	strbtls	r0, [r8], #2304	; 0x900
    2da8:	010b0000 	mrseq	r0, (UNDEF: 11)
    2dac:	0a000000 	beq	2db4 <__code_start__-0x524c>
    2db0:	00002504 	andeq	r2, r0, r4, lsl #10
    2db4:	07260500 	streq	r0, [r6, -r0, lsl #10]!
    2db8:	0e010000 	cdpeq	0, 0, cr0, cr1, cr0, {0}
    2dbc:	00000025 	andeq	r0, r0, r5, lsr #32
    2dc0:	00073405 	andeq	r3, r7, r5, lsl #8
    2dc4:	250e0100 	strcs	r0, [lr, #-256]	; 0x100
    2dc8:	06000000 	streq	r0, [r0], -r0
    2dcc:	00000740 	andeq	r0, r0, r0, asr #14
    2dd0:	8106da02 	tsthi	r6, r2, lsl #20
    2dd4:	02000000 	andeq	r0, r0, #0
    2dd8:	012906d7 	ldrdeq	r0, [r9, -r7]!
    2ddc:	65020000 	strvs	r0, [r2, #-0]
    2de0:	00013e00 	andeq	r3, r1, r0, lsl #28
    2de4:	0a000400 	beq	3dec <__code_start__-0x4214>
    2de8:	0400000e 	streq	r0, [r0], #-14
    2dec:	00055301 	andeq	r5, r5, r1, lsl #6
    2df0:	07720100 	ldrbeq	r0, [r2, -r0, lsl #2]!
    2df4:	05be0000 	ldreq	r0, [lr, #0]!
    2df8:	94f00000 	ldrbtls	r0, [r0], #0
    2dfc:	00440000 	subeq	r0, r4, r0
    2e00:	0b9d0000 	bleq	fe742e08 <__bss_end__+0xfe7387d0>
    2e04:	04020000 	streq	r0, [r2], #-0
    2e08:	746e6905 	strbtvc	r6, [lr], #-2309	; 0x905
    2e0c:	07040300 	streq	r0, [r4, -r0, lsl #6]
    2e10:	000001c5 	andeq	r0, r0, r5, asr #3
    2e14:	1d060103 	stfnes	f0, [r6, #-12]
    2e18:	03000001 	movweq	r0, #1
    2e1c:	016c0502 	cmneq	ip, r2, lsl #10
    2e20:	04030000 	streq	r0, [r3], #-0
    2e24:	0001f505 	andeq	pc, r1, r5, lsl #10
    2e28:	05080300 	streq	r0, [r8, #-768]	; 0x300
    2e2c:	000001f0 	strdeq	r0, [r0], -r0	; <UNPREDICTABLE>
    2e30:	1b080103 	blne	203244 <__bss_end__+0x1f8c0c>
    2e34:	03000001 	movweq	r0, #1
    2e38:	01410702 	cmpeq	r1, r2, lsl #14
    2e3c:	04030000 	streq	r0, [r3], #-0
    2e40:	0001c007 	andeq	ip, r1, r7
    2e44:	07080300 	streq	r0, [r8, -r0, lsl #6]
    2e48:	000001bb 			; <UNDEFINED> instruction: 0x000001bb
    2e4c:	e7070403 	str	r0, [r7, -r3, lsl #8]
    2e50:	03000001 	movweq	r0, #1
    2e54:	01240801 	teqeq	r4, r1, lsl #16
    2e58:	04040000 	streq	r0, [r4], #-0
    2e5c:	0000007f 	andeq	r0, r0, pc, ror r0
    2e60:	00007205 	andeq	r7, r0, r5, lsl #4
    2e64:	07930600 	ldreq	r0, [r3, r0, lsl #12]
    2e68:	02010000 	andeq	r0, r1, #0
    2e6c:	000094f0 	strdeq	r9, [r0], -r0
    2e70:	00000044 	andeq	r0, r0, r4, asr #32
    2e74:	01089c01 	tsteq	r8, r1, lsl #24
    2e78:	70070000 	andvc	r0, r7, r0
    2e7c:	02010063 	andeq	r0, r1, #99	; 0x63
    2e80:	0000002c 	andeq	r0, r0, ip, lsr #32
    2e84:	00000d98 	muleq	r0, r8, sp
    2e88:	00017608 	andeq	r7, r1, r8, lsl #12
    2e8c:	00011800 	andeq	r1, r1, r0, lsl #16
    2e90:	f8030500 			; <UNDEFINED> instruction: 0xf8030500
    2e94:	090000a0 	stmdbeq	r0, {r5, r7}
    2e98:	00009500 	andeq	r9, r0, r0, lsl #10
    2e9c:	0000011d 	andeq	r0, r0, sp, lsl r1
    2ea0:	0095200a 	addseq	r2, r5, sl
    2ea4:	00012400 	andeq	r2, r1, r0, lsl #8
    2ea8:	0000fe00 	andeq	pc, r0, r0, lsl #28
    2eac:	53010b00 	movwpl	r0, #6912	; 0x1b00
    2eb0:	010b3201 	tsteq	fp, r1, lsl #4
    2eb4:	f8030552 			; <UNDEFINED> instruction: 0xf8030552
    2eb8:	0b0000a0 	bleq	3140 <__code_start__-0x4ec0>
    2ebc:	03055101 	movweq	r5, #20737	; 0x5101
    2ec0:	0000a14c 	andeq	sl, r0, ip, asr #2
    2ec4:	0550010b 	ldrbeq	r0, [r0, #-267]	; 0x10b
    2ec8:	00a11003 	adceq	r1, r1, r3
    2ecc:	7d020b00 	vstrvc	d0, [r2, #-0]
    2ed0:	00740204 	rsbseq	r0, r4, r4, lsl #4
    2ed4:	007d020b 	rsbseq	r0, sp, fp, lsl #4
    2ed8:	a1700305 	cmnge	r0, r5, lsl #6
    2edc:	09000000 	stmdbeq	r0, {}	; <UNPREDICTABLE>
    2ee0:	00009524 	andeq	r9, r0, r4, lsr #10
    2ee4:	0000013a 	andeq	r0, r0, sl, lsr r1
    2ee8:	00720c00 	rsbseq	r0, r2, r0, lsl #24
    2eec:	01180000 	tsteq	r8, r0
    2ef0:	6b0d0000 	blvs	342ef8 <__bss_end__+0x3388c0>
    2ef4:	15000000 	strne	r0, [r0, #-0]
    2ef8:	01080500 	tsteq	r8, r0, lsl #10
    2efc:	5a0e0000 	bpl	382f04 <__bss_end__+0x3788cc>
    2f00:	02000002 	andeq	r0, r0, #2
    2f04:	05ad0f1e 	streq	r0, [sp, #3870]!	; 0xf1e
    2f08:	29020000 	stmdbcs	r2, {}	; <UNPREDICTABLE>
    2f0c:	00000025 	andeq	r0, r0, r5, lsr #32
    2f10:	0000013a 	andeq	r0, r0, sl, lsr r1
    2f14:	00007910 	andeq	r7, r0, r0, lsl r9
    2f18:	0e001100 	adfeqs	f1, f0, f0
    2f1c:	00000129 	andeq	r0, r0, r9, lsr #2
    2f20:	3e006502 	cfsh32cc	mvfx6, mvfx0, #2
    2f24:	04000001 	streq	r0, [r0], #-1
    2f28:	000ee200 	andeq	lr, lr, r0, lsl #4
    2f2c:	53010400 	movwpl	r0, #5120	; 0x1400
    2f30:	01000005 	tsteq	r0, r5
    2f34:	000007b6 			; <UNDEFINED> instruction: 0x000007b6
    2f38:	000005be 			; <UNDEFINED> instruction: 0x000005be
    2f3c:	00009534 	andeq	r9, r0, r4, lsr r5
    2f40:	00000044 	andeq	r0, r0, r4, asr #32
    2f44:	00000c43 	andeq	r0, r0, r3, asr #24
    2f48:	69050402 	stmdbvs	r5, {r1, sl}
    2f4c:	0300746e 	movweq	r7, #1134	; 0x46e
    2f50:	01c50704 	biceq	r0, r5, r4, lsl #14
    2f54:	01030000 	mrseq	r0, (UNDEF: 3)
    2f58:	00011d06 	andeq	r1, r1, r6, lsl #26
    2f5c:	05020300 	streq	r0, [r2, #-768]	; 0x300
    2f60:	0000016c 	andeq	r0, r0, ip, ror #2
    2f64:	f5050403 			; <UNDEFINED> instruction: 0xf5050403
    2f68:	03000001 	movweq	r0, #1
    2f6c:	01f00508 	mvnseq	r0, r8, lsl #10
    2f70:	01030000 	mrseq	r0, (UNDEF: 3)
    2f74:	00011b08 	andeq	r1, r1, r8, lsl #22
    2f78:	07020300 	streq	r0, [r2, -r0, lsl #6]
    2f7c:	00000141 	andeq	r0, r0, r1, asr #2
    2f80:	c0070403 	andgt	r0, r7, r3, lsl #8
    2f84:	03000001 	movweq	r0, #1
    2f88:	01bb0708 			; <UNDEFINED> instruction: 0x01bb0708
    2f8c:	04030000 	streq	r0, [r3], #-0
    2f90:	0001e707 	andeq	lr, r1, r7, lsl #14
    2f94:	08010300 	stmdaeq	r1, {r8, r9}
    2f98:	00000124 	andeq	r0, r0, r4, lsr #2
    2f9c:	007f0404 	rsbseq	r0, pc, r4, lsl #8
    2fa0:	72050000 	andvc	r0, r5, #0
    2fa4:	06000000 	streq	r0, [r0], -r0
    2fa8:	000007a9 	andeq	r0, r0, r9, lsr #15
    2fac:	95340201 	ldrls	r0, [r4, #-513]!	; 0x201
    2fb0:	00440000 	subeq	r0, r4, r0
    2fb4:	9c010000 	stcls	0, cr0, [r1], {-0}
    2fb8:	00000108 	andeq	r0, r0, r8, lsl #2
    2fbc:	00637007 	rsbeq	r7, r3, r7
    2fc0:	002c0201 	eoreq	r0, ip, r1, lsl #4
    2fc4:	0db60000 	ldceq	0, cr0, [r6]
    2fc8:	76080000 	strvc	r0, [r8], -r0
    2fcc:	18000001 	stmdane	r0, {r0}
    2fd0:	05000001 	streq	r0, [r0, #-1]
    2fd4:	00a17803 	adceq	r7, r1, r3, lsl #16
    2fd8:	95440900 	strbls	r0, [r4, #-2304]	; 0x900
    2fdc:	011d0000 	tsteq	sp, r0
    2fe0:	640a0000 	strvs	r0, [sl], #-0
    2fe4:	24000095 	strcs	r0, [r0], #-149	; 0x95
    2fe8:	fe000001 	cdp2	0, 0, cr0, cr0, cr1, {0}
    2fec:	0b000000 	bleq	2ff4 <__code_start__-0x500c>
    2ff0:	32015301 	andcc	r5, r1, #67108864	; 0x4000000
    2ff4:	0552010b 	ldrbeq	r0, [r2, #-267]	; 0x10b
    2ff8:	00a17803 	adceq	r7, r1, r3, lsl #16
    2ffc:	51010b00 	tstpl	r1, r0, lsl #22
    3000:	a1880305 	orrge	r0, r8, r5, lsl #6
    3004:	010b0000 	mrseq	r0, (UNDEF: 11)
    3008:	10030550 	andne	r0, r3, r0, asr r5
    300c:	0b0000a1 	bleq	3298 <__code_start__-0x4d68>
    3010:	02047d02 	andeq	r7, r4, #2, 26	; 0x80
    3014:	020b0074 	andeq	r0, fp, #116	; 0x74
    3018:	0305007d 	movweq	r0, #20605	; 0x507d
    301c:	0000a1ac 	andeq	sl, r0, ip, lsr #3
    3020:	95680900 	strbls	r0, [r8, #-2304]!	; 0x900
    3024:	013a0000 	teqeq	sl, r0
    3028:	0c000000 	stceq	0, cr0, [r0], {-0}
    302c:	00000072 	andeq	r0, r0, r2, ror r0
    3030:	00000118 	andeq	r0, r0, r8, lsl r1
    3034:	00006b0d 	andeq	r6, r0, sp, lsl #22
    3038:	05000c00 	streq	r0, [r0, #-3072]	; 0xc00
    303c:	00000108 	andeq	r0, r0, r8, lsl #2
    3040:	00025a0e 	andeq	r5, r2, lr, lsl #20
    3044:	0f1e0200 	svceq	0x001e0200
    3048:	000005ad 	andeq	r0, r0, sp, lsr #11
    304c:	00252902 	eoreq	r2, r5, r2, lsl #18
    3050:	013a0000 	teqeq	sl, r0
    3054:	79100000 	ldmdbvc	r0, {}	; <UNPREDICTABLE>
    3058:	11000000 	mrsne	r0, (UNDEF: 0)
    305c:	01290e00 	teqeq	r9, r0, lsl #28
    3060:	65020000 	strvs	r0, [r2, #-0]
    3064:	00013e00 	andeq	r3, r1, r0, lsl #28
    3068:	ba000400 	blt	4070 <__code_start__-0x3f90>
    306c:	0400000f 	streq	r0, [r0], #-15
    3070:	00055301 	andeq	r5, r5, r1, lsl #6
    3074:	07d80100 	ldrbeq	r0, [r8, r0, lsl #2]
    3078:	05be0000 	ldreq	r0, [lr, #0]!
    307c:	95780000 	ldrbls	r0, [r8, #-0]!
    3080:	00440000 	subeq	r0, r4, r0
    3084:	0cea0000 	stcleq	0, cr0, [sl]
    3088:	04020000 	streq	r0, [r2], #-0
    308c:	746e6905 	strbtvc	r6, [lr], #-2309	; 0x905
    3090:	07040300 	streq	r0, [r4, -r0, lsl #6]
    3094:	000001c5 	andeq	r0, r0, r5, asr #3
    3098:	1d060103 	stfnes	f0, [r6, #-12]
    309c:	03000001 	movweq	r0, #1
    30a0:	016c0502 	cmneq	ip, r2, lsl #10
    30a4:	04030000 	streq	r0, [r3], #-0
    30a8:	0001f505 	andeq	pc, r1, r5, lsl #10
    30ac:	05080300 	streq	r0, [r8, #-768]	; 0x300
    30b0:	000001f0 	strdeq	r0, [r0], -r0	; <UNPREDICTABLE>
    30b4:	1b080103 	blne	2034c8 <__bss_end__+0x1f8e90>
    30b8:	03000001 	movweq	r0, #1
    30bc:	01410702 	cmpeq	r1, r2, lsl #14
    30c0:	04030000 	streq	r0, [r3], #-0
    30c4:	0001c007 	andeq	ip, r1, r7
    30c8:	07080300 	streq	r0, [r8, -r0, lsl #6]
    30cc:	000001bb 			; <UNDEFINED> instruction: 0x000001bb
    30d0:	e7070403 	str	r0, [r7, -r3, lsl #8]
    30d4:	03000001 	movweq	r0, #1
    30d8:	01240801 	teqeq	r4, r1, lsl #16
    30dc:	04040000 	streq	r0, [r4], #-0
    30e0:	0000007f 	andeq	r0, r0, pc, ror r0
    30e4:	00007205 	andeq	r7, r0, r5, lsl #4
    30e8:	08030600 	stmdaeq	r3, {r9, sl}
    30ec:	02010000 	andeq	r0, r1, #0
    30f0:	00009578 	andeq	r9, r0, r8, ror r5
    30f4:	00000044 	andeq	r0, r0, r4, asr #32
    30f8:	01089c01 	tsteq	r8, r1, lsl #24
    30fc:	70070000 	andvc	r0, r7, r0
    3100:	02010063 	andeq	r0, r1, #99	; 0x63
    3104:	0000002c 	andeq	r0, r0, ip, lsr #32
    3108:	00000dd4 	ldrdeq	r0, [r0], -r4
    310c:	00017608 	andeq	r7, r1, r8, lsl #12
    3110:	00011800 	andeq	r1, r1, r0, lsl #16
    3114:	b4030500 	strlt	r0, [r3], #-1280	; 0x500
    3118:	090000a1 	stmdbeq	r0, {r0, r5, r7}
    311c:	00009588 	andeq	r9, r0, r8, lsl #11
    3120:	0000011d 	andeq	r0, r0, sp, lsl r1
    3124:	0095a80a 	addseq	sl, r5, sl, lsl #16
    3128:	00012400 	andeq	r2, r1, r0, lsl #8
    312c:	0000fe00 	andeq	pc, r0, r0, lsl #28
    3130:	53010b00 	movwpl	r0, #6912	; 0x1b00
    3134:	010b3201 	tsteq	fp, r1, lsl #4
    3138:	b4030552 	strlt	r0, [r3], #-1362	; 0x552
    313c:	0b0000a1 	bleq	33c8 <__code_start__-0x4c38>
    3140:	03055101 	movweq	r5, #20737	; 0x5101
    3144:	0000a1d4 	ldrdeq	sl, [r0], -r4
    3148:	0550010b 	ldrbeq	r0, [r0, #-267]	; 0x10b
    314c:	00a11003 	adceq	r1, r1, r3
    3150:	7d020b00 	vstrvc	d0, [r2, #-0]
    3154:	00740204 	rsbseq	r0, r4, r4, lsl #4
    3158:	007d020b 	rsbseq	r0, sp, fp, lsl #4
    315c:	a2000305 	andge	r0, r0, #335544320	; 0x14000000
    3160:	09000000 	stmdbeq	r0, {}	; <UNPREDICTABLE>
    3164:	000095ac 	andeq	r9, r0, ip, lsr #11
    3168:	0000013a 	andeq	r0, r0, sl, lsr r1
    316c:	00720c00 	rsbseq	r0, r2, r0, lsl #24
    3170:	01180000 	tsteq	r8, r0
    3174:	6b0d0000 	blvs	34317c <__bss_end__+0x338b44>
    3178:	1c000000 	stcne	0, cr0, [r0], {-0}
    317c:	01080500 	tsteq	r8, r0, lsl #10
    3180:	5a0e0000 	bpl	383188 <__bss_end__+0x378b50>
    3184:	02000002 	andeq	r0, r0, #2
    3188:	05ad0f1e 	streq	r0, [sp, #3870]!	; 0xf1e
    318c:	29020000 	stmdbcs	r2, {}	; <UNPREDICTABLE>
    3190:	00000025 	andeq	r0, r0, r5, lsr #32
    3194:	0000013a 	andeq	r0, r0, sl, lsr r1
    3198:	00007910 	andeq	r7, r0, r0, lsl r9
    319c:	0e001100 	adfeqs	f1, f0, f0
    31a0:	00000129 	andeq	r0, r0, r9, lsr #2
    31a4:	98006502 	stmdals	r0, {r1, r8, sl, sp, lr}
    31a8:	04000000 	streq	r0, [r0], #-0
    31ac:	00109200 	andseq	r9, r0, r0, lsl #4
    31b0:	53010400 	movwpl	r0, #5120	; 0x1400
    31b4:	01000005 	tsteq	r0, r5
    31b8:	00000820 	andeq	r0, r0, r0, lsr #16
    31bc:	000005be 			; <UNDEFINED> instruction: 0x000005be
    31c0:	000095bc 			; <UNDEFINED> instruction: 0x000095bc
    31c4:	00000008 	andeq	r0, r0, r8
    31c8:	00000d9a 	muleq	r0, sl, sp
    31cc:	69050402 	stmdbvs	r5, {r1, sl}
    31d0:	0300746e 	movweq	r7, #1134	; 0x46e
    31d4:	01c50704 	biceq	r0, r5, r4, lsl #14
    31d8:	01030000 	mrseq	r0, (UNDEF: 3)
    31dc:	00011d06 	andeq	r1, r1, r6, lsl #26
    31e0:	05020300 	streq	r0, [r2, #-768]	; 0x300
    31e4:	0000016c 	andeq	r0, r0, ip, ror #2
    31e8:	f5050403 			; <UNDEFINED> instruction: 0xf5050403
    31ec:	03000001 	movweq	r0, #1
    31f0:	01f00508 	mvnseq	r0, r8, lsl #10
    31f4:	01030000 	mrseq	r0, (UNDEF: 3)
    31f8:	00011b08 	andeq	r1, r1, r8, lsl #22
    31fc:	07020300 	streq	r0, [r2, -r0, lsl #6]
    3200:	00000141 	andeq	r0, r0, r1, asr #2
    3204:	c0070403 	andgt	r0, r7, r3, lsl #8
    3208:	03000001 	movweq	r0, #1
    320c:	01bb0708 			; <UNDEFINED> instruction: 0x01bb0708
    3210:	04030000 	streq	r0, [r3], #-0
    3214:	0001e707 	andeq	lr, r1, r7, lsl #14
    3218:	08010300 	stmdaeq	r1, {r8, r9}
    321c:	00000124 	andeq	r0, r0, r4, lsr #2
    3220:	00074004 	andeq	r4, r7, r4
    3224:	bc040100 	stflts	f0, [r4], {-0}
    3228:	04000095 	streq	r0, [r0], #-149	; 0x95
    322c:	01000000 	mrseq	r0, (UNDEF: 0)
    3230:	06ea049c 	usateq	r0, #10, ip, lsl #9
    3234:	05010000 	streq	r0, [r1, #-0]
    3238:	000095c0 	andeq	r9, r0, r0, asr #11
    323c:	00000004 	andeq	r0, r0, r4
    3240:	d7009c01 	strle	r9, [r0, -r1, lsl #24]
    3244:	04000001 	streq	r0, [r0], #-1
    3248:	0010d400 	andseq	sp, r0, r0, lsl #8
    324c:	53010400 	movwpl	r0, #5120	; 0x1400
    3250:	01000005 	tsteq	r0, r5
    3254:	000008dc 	ldrdeq	r0, [r0], -ip
    3258:	000005be 			; <UNDEFINED> instruction: 0x000005be
    325c:	000095c4 	andeq	r9, r0, r4, asr #11
    3260:	0000006c 	andeq	r0, r0, ip, rrx
    3264:	00000de5 	andeq	r0, r0, r5, ror #27
    3268:	69050402 	stmdbvs	r5, {r1, sl}
    326c:	0300746e 	movweq	r7, #1134	; 0x46e
    3270:	01c50704 	biceq	r0, r5, r4, lsl #14
    3274:	01030000 	mrseq	r0, (UNDEF: 3)
    3278:	00011d06 	andeq	r1, r1, r6, lsl #26
    327c:	05020300 	streq	r0, [r2, #-768]	; 0x300
    3280:	0000016c 	andeq	r0, r0, ip, ror #2
    3284:	f5050403 			; <UNDEFINED> instruction: 0xf5050403
    3288:	03000001 	movweq	r0, #1
    328c:	01f00508 	mvnseq	r0, r8, lsl #10
    3290:	01030000 	mrseq	r0, (UNDEF: 3)
    3294:	00011b08 	andeq	r1, r1, r8, lsl #22
    3298:	07020300 	streq	r0, [r2, -r0, lsl #6]
    329c:	00000141 	andeq	r0, r0, r1, asr #2
    32a0:	c0070403 	andgt	r0, r7, r3, lsl #8
    32a4:	03000001 	movweq	r0, #1
    32a8:	01bb0708 			; <UNDEFINED> instruction: 0x01bb0708
    32ac:	04030000 	streq	r0, [r3], #-0
    32b0:	0001e707 	andeq	lr, r1, r7, lsl #14
    32b4:	08010300 	stmdaeq	r1, {r8, r9}
    32b8:	00000124 	andeq	r0, r0, r4, lsr #2
    32bc:	14020404 	strne	r0, [r2], #-1028	; 0x404
    32c0:	000000f0 	strdeq	r0, [r0], -r0	; <UNPREDICTABLE>
    32c4:	0008f505 	andeq	pc, r8, r5, lsl #10
    32c8:	82e48000 	rschi	r8, r4, #0
    32cc:	7b050280 	blvc	143cd4 <__bss_end__+0x13969c>
    32d0:	80000008 	andhi	r0, r0, r8
    32d4:	028082e4 	addeq	r8, r0, #228, 4	; 0x4000000e
    32d8:	00092205 	andeq	r2, r9, r5, lsl #4
    32dc:	82e48400 	rschi	r8, r4, #0, 8
    32e0:	3d050280 	sfmcc	f0, 4, [r5, #-512]	; 0xfffffe00
    32e4:	88000008 	stmdahi	r0, {r3}
    32e8:	028082e4 	addeq	r8, r0, #228, 4	; 0x4000000e
    32ec:	00085e05 	andeq	r5, r8, r5, lsl #28
    32f0:	82e48c00 	rschi	r8, r4, #0, 24
    32f4:	9f050280 	svcls	0x00050280
    32f8:	90000008 	andls	r0, r0, r8
    32fc:	028082e4 	addeq	r8, r0, #228, 4	; 0x4000000e
    3300:	0008ad05 	andeq	sl, r8, r5, lsl #26
    3304:	82e49400 	rschi	r9, r4, #0, 8
    3308:	8d050280 	sfmhi	f0, 4, [r5, #-512]	; 0xfffffe00
    330c:	98000008 	stmdals	r0, {r3}
    3310:	028082e4 	addeq	r8, r0, #228, 4	; 0x4000000e
    3314:	00090405 	andeq	r0, r9, r5, lsl #8
    3318:	82e49c00 	rschi	r9, r4, #0, 24
    331c:	13050280 	movwne	r0, #21120	; 0x5280
    3320:	a0000009 	andge	r0, r0, r9
    3324:	028082e4 	addeq	r8, r0, #228, 4	; 0x4000000e
    3328:	00084b05 	andeq	r4, r8, r5, lsl #22
    332c:	82e4a400 	rschi	sl, r4, #0, 8
    3330:	06000280 	streq	r0, [r0], -r0, lsl #5
    3334:	0000044c 	andeq	r0, r0, ip, asr #8
    3338:	95c41b01 	strbls	r1, [r4, #2817]	; 0xb01
    333c:	006c0000 	rsbeq	r0, ip, r0
    3340:	9c010000 	stcls	0, cr0, [r1], {-0}
    3344:	000001a5 	andeq	r0, r0, r5, lsr #3
    3348:	00086a07 	andeq	r6, r8, r7, lsl #20
    334c:	2c230100 	stfcss	f0, [r3], #-0
    3350:	07000000 	streq	r0, [r0, -r0]
    3354:	000008bb 			; <UNDEFINED> instruction: 0x000008bb
    3358:	002c2401 	eoreq	r2, ip, r1, lsl #8
    335c:	64080000 	strvs	r0, [r8], #-0
    3360:	01007473 	tsteq	r0, r3, ror r4
    3364:	0001a527 	andeq	sl, r1, r7, lsr #10
    3368:	73090000 	movwvc	r0, #36864	; 0x9000
    336c:	01006372 	tsteq	r0, r2, ror r3
    3370:	0001a528 	andeq	sl, r1, r8, lsr #10
    3374:	006e0a00 	rsbeq	r0, lr, r0, lsl #20
    3378:	002c2901 	eoreq	r2, ip, r1, lsl #18
    337c:	50010000 	andpl	r0, r1, r0
    3380:	0095f80b 	addseq	pc, r5, fp, lsl #16
    3384:	00002400 	andeq	r2, r0, r0, lsl #8
    3388:	00015800 	andeq	r5, r1, r0, lsl #16
    338c:	00690c00 	rsbeq	r0, r9, r0, lsl #24
    3390:	00252a01 	eoreq	r2, r5, r1, lsl #20
    3394:	0df20000 	ldcleq	0, cr0, [r2]
    3398:	0d000000 	stceq	0, cr0, [r0, #-0]
    339c:	000095cc 	andeq	r9, r0, ip, asr #11
    33a0:	000001c1 	andeq	r0, r0, r1, asr #3
    33a4:	0095d80e 	addseq	sp, r5, lr, lsl #16
    33a8:	0001c800 	andeq	ip, r1, r0, lsl #16
    33ac:	00017e00 	andeq	r7, r1, r0, lsl #28
    33b0:	51010f00 	tstpl	r1, r0, lsl #30
    33b4:	0fff0902 	svceq	0x00ff0902
    33b8:	0c055001 	stceq	0, cr5, [r5], {1}
    33bc:	2000b21c 	andcs	fp, r0, ip, lsl r2
    33c0:	95e40e00 	strbls	r0, [r4, #3584]!	; 0xe00
    33c4:	01c80000 	biceq	r0, r8, r0
    33c8:	019b0000 	orrseq	r0, fp, r0
    33cc:	010f0000 	mrseq	r0, CPSR
    33d0:	ff090251 			; <UNDEFINED> instruction: 0xff090251
    33d4:	0550010f 	ldrbeq	r0, [r0, #-271]	; 0x10f
    33d8:	00b2200c 	adcseq	r2, r2, ip
    33dc:	e80d0020 	stmda	sp, {r5}
    33e0:	c1000095 	swpgt	r0, r5, [r0]	; <UNPREDICTABLE>
    33e4:	00000001 	andeq	r0, r0, r1
    33e8:	002c0410 	eoreq	r0, ip, r0, lsl r4
    33ec:	6a070000 	bvs	1c33f4 <__bss_end__+0x1b8dbc>
    33f0:	01000008 	tsteq	r0, r8
    33f4:	00002c23 	andeq	r2, r0, r3, lsr #24
    33f8:	08bb0700 	ldmeq	fp!, {r8, r9, sl}
    33fc:	24010000 	strcs	r0, [r1], #-0
    3400:	0000002c 	andeq	r0, r0, ip, lsr #32
    3404:	0008d011 	andeq	sp, r8, r1, lsl r0
    3408:	12890300 	addne	r0, r9, #0, 6
    340c:	000008fe 	strdeq	r0, [r0], -lr
    3410:	2c139b03 	ldccs	11, cr9, [r3], {3}
    3414:	13000000 	movwne	r0, #0
    3418:	0000002c 	andeq	r0, r0, ip, lsr #32
    341c:	01ad0000 			; <UNDEFINED> instruction: 0x01ad0000
    3420:	00040000 	andeq	r0, r4, r0
    3424:	000011da 	ldrdeq	r1, [r0], -sl
    3428:	05530104 	ldrbeq	r0, [r3, #-260]	; 0x104
    342c:	3e010000 	cdpcc	0, 0, cr0, cr1, cr0, {0}
    3430:	be000009 	cdplt	0, 0, cr0, cr0, cr9, {0}
    3434:	00000005 	andeq	r0, r0, r5
    3438:	00000000 	andeq	r0, r0, r0
    343c:	b2000000 	andlt	r0, r0, #0
    3440:	0200000e 	andeq	r0, r0, #14
    3444:	6e690504 	cdpvs	5, 6, cr0, cr9, cr4, {0}
    3448:	04030074 	streq	r0, [r3], #-116	; 0x74
    344c:	0001c507 	andeq	ip, r1, r7, lsl #10
    3450:	06010300 	streq	r0, [r1], -r0, lsl #6
    3454:	0000011d 	andeq	r0, r0, sp, lsl r1
    3458:	6c050203 	sfmvs	f0, 4, [r5], {3}
    345c:	03000001 	movweq	r0, #1
    3460:	01f50504 	mvnseq	r0, r4, lsl #10
    3464:	08030000 	stmdaeq	r3, {}	; <UNPREDICTABLE>
    3468:	0001f005 	andeq	pc, r1, r5
    346c:	08010300 	stmdaeq	r1, {r8, r9}
    3470:	0000011b 	andeq	r0, r0, fp, lsl r1
    3474:	41070203 	tstmi	r7, r3, lsl #4
    3478:	03000001 	movweq	r0, #1
    347c:	01c00704 	biceq	r0, r0, r4, lsl #14
    3480:	08030000 	stmdaeq	r3, {}	; <UNPREDICTABLE>
    3484:	0001bb07 	andeq	fp, r1, r7, lsl #22
    3488:	07040300 	streq	r0, [r4, -r0, lsl #6]
    348c:	000001e7 	andeq	r0, r0, r7, ror #3
    3490:	24080103 	strcs	r0, [r8], #-259	; 0x103
    3494:	04000001 	streq	r0, [r0], #-1
    3498:	00000930 	andeq	r0, r0, r0, lsr r9
    349c:	00250e01 	eoreq	r0, r5, r1, lsl #28
    34a0:	96300000 	ldrtls	r0, [r0], -r0
    34a4:	00180000 	andseq	r0, r8, r0
    34a8:	9c010000 	stcls	0, cr0, [r1], {-0}
    34ac:	000000a2 	andeq	r0, r0, r2, lsr #1
    34b0:	00051305 	andeq	r1, r5, r5, lsl #6
    34b4:	2c0f0100 	stfcss	f0, [pc], {-0}
    34b8:	11000000 	mrsne	r0, (UNDEF: 0)
    34bc:	0000000e 	andeq	r0, r0, lr
    34c0:	00097206 	andeq	r7, r9, r6, lsl #4
    34c4:	48170100 	ldmdami	r7, {r8}
    34c8:	14000096 	strne	r0, [r0], #-150	; 0x96
    34cc:	01000000 	mrseq	r0, (UNDEF: 0)
    34d0:	0000c79c 	muleq	r0, ip, r7
    34d4:	05130500 	ldreq	r0, [r3, #-1280]	; 0x500
    34d8:	18010000 	stmdane	r1, {}	; <UNPREDICTABLE>
    34dc:	0000002c 	andeq	r0, r0, ip, lsr #32
    34e0:	00000e30 	andeq	r0, r0, r0, lsr lr
    34e4:	07120600 	ldreq	r0, [r2, -r0, lsl #12]
    34e8:	1f010000 	svcne	0x00010000
    34ec:	0000965c 	andeq	r9, r0, ip, asr r6
    34f0:	00000048 	andeq	r0, r0, r8, asr #32
    34f4:	01779c01 	cmneq	r7, r1, lsl #24
    34f8:	8d070000 	stchi	0, cr0, [r7, #-0]
    34fc:	01000009 	tsteq	r0, r9
    3500:	0001772a 	andeq	r7, r1, sl, lsr #14
    3504:	10001c00 	andne	r1, r0, r0, lsl #24
    3508:	096a0720 	stmdbeq	sl!, {r5, r8, r9, sl}^
    350c:	2b010000 	blcs	43514 <__bss_end__+0x38edc>
    3510:	00000177 	andeq	r0, r0, r7, ror r1
    3514:	20100024 	andscs	r0, r0, r4, lsr #32
    3518:	00098107 	andeq	r8, r9, r7, lsl #2
    351c:	772c0100 	strvc	r0, [ip, -r0, lsl #2]!
    3520:	00000001 	andeq	r0, r0, r1
    3524:	085a0000 	ldmdaeq	sl, {}^	; <UNPREDICTABLE>
    3528:	00000951 	andeq	r0, r0, r1, asr r9
    352c:	01772d01 	cmneq	r7, r1, lsl #26
    3530:	09200000 	stmdbeq	r0!, {}	; <UNPREDICTABLE>
    3534:	00009664 	andeq	r9, r0, r4, ror #12
    3538:	00000079 	andeq	r0, r0, r9, ror r0
    353c:	00967009 	addseq	r7, r6, r9
    3540:	0000a200 	andeq	sl, r0, r0, lsl #4
    3544:	96780a00 	ldrbtls	r0, [r8], -r0, lsl #20
    3548:	018d0000 	orreq	r0, sp, r0
    354c:	013a0000 	teqeq	sl, r0
    3550:	010b0000 	mrseq	r0, (UNDEF: 11)
    3554:	004e0150 	subeq	r0, lr, r0, asr r1
    3558:	0096840a 	addseq	r8, r6, sl, lsl #8
    355c:	00019e00 	andeq	r9, r1, r0, lsl #28
    3560:	00015a00 	andeq	r5, r1, r0, lsl #20
    3564:	51010b00 	tstpl	r1, r0, lsl #22
    3568:	00010c05 	andeq	r0, r1, r5, lsl #24
    356c:	010b5a00 	tsteq	fp, r0, lsl #20
    3570:	240c0550 	strcs	r0, [ip], #-1360	; 0x550
    3574:	00201000 	eoreq	r1, r0, r0
    3578:	0096900c 	addseq	r9, r6, ip
    357c:	00019e00 	andeq	r9, r1, r0, lsl #28
    3580:	51010b00 	tstpl	r1, r0, lsl #22
    3584:	00200c05 	eoreq	r0, r0, r5, lsl #24
    3588:	010b5a00 	tsteq	fp, r0, lsl #20
    358c:	1c0c0550 	cfstr32ne	mvfx0, [ip], {80}	; 0x50
    3590:	00201000 	eoreq	r1, r0, r0
    3594:	00250d00 	eoreq	r0, r5, r0, lsl #26
    3598:	33080000 	movwcc	r0, #32768	; 0x8000
    359c:	01000009 	tsteq	r0, r9
    35a0:	0001880d 	andeq	r8, r1, sp, lsl #16
    35a4:	2c0d1000 	stccs	0, cr1, [sp], {-0}
    35a8:	0e000000 	cdpeq	0, 0, cr0, cr0, cr0, {0}
    35ac:	0000071d 	andeq	r0, r0, sp, lsl r7
    35b0:	019e4f02 	orrseq	r4, lr, r2, lsl #30
    35b4:	2c0f0000 	stccs	0, cr0, [pc], {-0}
    35b8:	00000000 	andeq	r0, r0, r0
    35bc:	0008fe10 	andeq	pc, r8, r0, lsl lr	; <UNPREDICTABLE>
    35c0:	0f9b0200 	svceq	0x009b0200
    35c4:	0000002c 	andeq	r0, r0, ip, lsr #32
    35c8:	00002c0f 	andeq	r2, r0, pc, lsl #24
    35cc:	f7000000 			; <UNDEFINED> instruction: 0xf7000000
    35d0:	04000001 	streq	r0, [r0], #-1
    35d4:	0012c800 	andseq	ip, r2, r0, lsl #16
    35d8:	53010400 	movwpl	r0, #5120	; 0x1400
    35dc:	01000005 	tsteq	r0, r5
    35e0:	000009b2 			; <UNDEFINED> instruction: 0x000009b2
    35e4:	000005be 			; <UNDEFINED> instruction: 0x000005be
    35e8:	000096a4 	andeq	r9, r0, r4, lsr #13
    35ec:	00000098 	muleq	r0, r8, r0
    35f0:	00000f58 	andeq	r0, r0, r8, asr pc
    35f4:	69050402 	stmdbvs	r5, {r1, sl}
    35f8:	0300746e 	movweq	r7, #1134	; 0x46e
    35fc:	01c50704 	biceq	r0, r5, r4, lsl #14
    3600:	01030000 	mrseq	r0, (UNDEF: 3)
    3604:	00011d06 	andeq	r1, r1, r6, lsl #26
    3608:	05020300 	streq	r0, [r2, #-768]	; 0x300
    360c:	0000016c 	andeq	r0, r0, ip, ror #2
    3610:	f5050403 			; <UNDEFINED> instruction: 0xf5050403
    3614:	03000001 	movweq	r0, #1
    3618:	01f00508 	mvnseq	r0, r8, lsl #10
    361c:	01030000 	mrseq	r0, (UNDEF: 3)
    3620:	00011b08 	andeq	r1, r1, r8, lsl #22
    3624:	07020300 	streq	r0, [r2, -r0, lsl #6]
    3628:	00000141 	andeq	r0, r0, r1, asr #2
    362c:	c0070403 	andgt	r0, r7, r3, lsl #8
    3630:	03000001 	movweq	r0, #1
    3634:	01bb0708 			; <UNDEFINED> instruction: 0x01bb0708
    3638:	04030000 	streq	r0, [r3], #-0
    363c:	0001e707 	andeq	lr, r1, r7, lsl #14
    3640:	08010300 	stmdaeq	r1, {r8, r9}
    3644:	00000124 	andeq	r0, r0, r4, lsr #2
    3648:	0009d004 	andeq	sp, r9, r4
    364c:	a4050100 	strge	r0, [r5], #-256	; 0x100
    3650:	1c000096 	stcne	0, cr0, [r0], {150}	; 0x96
    3654:	01000000 	mrseq	r0, (UNDEF: 0)
    3658:	00009e9c 	muleq	r0, ip, lr
    365c:	09ca0500 	stmibeq	sl, {r8, sl}^
    3660:	05010000 	streq	r0, [r1, #-0]
    3664:	0000002c 	andeq	r0, r0, ip, lsr #32
    3668:	00000e5a 	andeq	r0, r0, sl, asr lr
    366c:	09950600 	ldmibeq	r5, {r9, sl}
    3670:	11010000 	mrsne	r0, (UNDEF: 1)
    3674:	0000002c 	andeq	r0, r0, ip, lsr #32
    3678:	000096c0 	andeq	r9, r0, r0, asr #13
    367c:	00000014 	andeq	r0, r0, r4, lsl r0
    3680:	00cb9c01 	sbceq	r9, fp, r1, lsl #24
    3684:	cc070000 	stcgt	0, cr0, [r7], {-0}
    3688:	de000096 	mcrle	0, 0, r0, cr0, cr6, {4}
    368c:	08000001 	stmdaeq	r0, {r0}
    3690:	0c055001 	stceq	0, cr5, [r5], {1}
    3694:	20003004 	andcs	r3, r0, r4
    3698:	e6060000 	str	r0, [r6], -r0
    369c:	01000009 	tsteq	r0, r9
    36a0:	00002c16 	andeq	r2, r0, r6, lsl ip
    36a4:	0096d400 	addseq	sp, r6, r0, lsl #8
    36a8:	00001c00 	andeq	r1, r0, r0, lsl #24
    36ac:	0d9c0100 	ldfeqs	f0, [ip]
    36b0:	09000001 	stmdbeq	r0, {r0}
    36b4:	1a010075 	bne	43890 <__bss_end__+0x39258>
    36b8:	0000002c 	andeq	r0, r0, ip, lsr #32
    36bc:	00000e8e 	andeq	r0, r0, lr, lsl #29
    36c0:	0096dc0a 	addseq	sp, r6, sl, lsl #24
    36c4:	0001f300 	andeq	pc, r1, r0, lsl #6
    36c8:	96e00a00 	strbtls	r0, [r0], r0, lsl #20
    36cc:	009e0000 	addseq	r0, lr, r0
    36d0:	e80a0000 	stmda	sl, {}	; <UNPREDICTABLE>
    36d4:	f3000096 	vqadd.u8	d0, d16, d6
    36d8:	00000001 	andeq	r0, r0, r1
    36dc:	0009dd04 	andeq	sp, r9, r4, lsl #26
    36e0:	f01f0100 			; <UNDEFINED> instruction: 0xf01f0100
    36e4:	24000096 	strcs	r0, [r0], #-150	; 0x96
    36e8:	01000000 	mrseq	r0, (UNDEF: 0)
    36ec:	00016b9c 	muleq	r1, ip, fp
    36f0:	73750b00 	cmnvc	r5, #0, 22
    36f4:	2c1f0100 	ldfcss	f0, [pc], {-0}
    36f8:	ac000000 	stcge	0, cr0, [r0], {-0}
    36fc:	0c00000e 	stceq	0, cr0, [r0], {14}
    3700:	01006272 	tsteq	r0, r2, ror r2
    3704:	00002c20 	andeq	r2, r0, r0, lsr #24
    3708:	0d540100 	ldfeqe	f0, [r4, #-0]
    370c:	00009700 	andeq	r9, r0, r0, lsl #14
    3710:	00000010 	andeq	r0, r0, r0, lsl r0
    3714:	00000161 	andeq	r0, r0, r1, ror #2
    3718:	00617209 	rsbeq	r7, r1, r9, lsl #4
    371c:	002c2201 	eoreq	r2, ip, r1, lsl #4
    3720:	0eca0000 	cdpeq	0, 12, cr0, cr10, cr0, {0}
    3724:	040a0000 	streq	r0, [sl], #-0
    3728:	cb000097 	blgt	398c <__code_start__-0x4674>
    372c:	00000000 	andeq	r0, r0, r0
    3730:	0096fc0a 	addseq	pc, r6, sl, lsl #24
    3734:	0000cb00 	andeq	ip, r0, r0, lsl #22
    3738:	1d040000 	stcne	0, cr0, [r4, #-0]
    373c:	01000007 	tsteq	r0, r7
    3740:	00971428 	addseq	r1, r7, r8, lsr #8
    3744:	00001400 	andeq	r1, r0, r0, lsl #8
    3748:	a49c0100 	ldrge	r0, [ip], #256	; 0x100
    374c:	0b000001 	bleq	3758 <__code_start__-0x48a8>
    3750:	0100736d 	tsteq	r0, sp, ror #6
    3754:	00002c28 	andeq	r2, r0, r8, lsr #24
    3758:	000edd00 	andeq	sp, lr, r0, lsl #26
    375c:	97240700 	strls	r0, [r4, -r0, lsl #14]!
    3760:	010d0000 	mrseq	r0, (UNDEF: 13)
    3764:	01080000 	mrseq	r0, (UNDEF: 8)
    3768:	01f30750 	mvnseq	r0, r0, asr r7
    376c:	03e80a50 	mvneq	r0, #80, 20	; 0x50000
    3770:	0400001e 	streq	r0, [r0], #-30
    3774:	000009a8 	andeq	r0, r0, r8, lsr #19
    3778:	97282b01 	strls	r2, [r8, -r1, lsl #22]!
    377c:	00140000 	andseq	r0, r4, r0
    3780:	9c010000 	stcls	0, cr0, [r1], {-0}
    3784:	000001de 	ldrdeq	r0, [r0], -lr
    3788:	6365730b 	cmnvs	r5, #738197504	; 0x2c000000
    378c:	2c2b0100 	stfcss	f0, [fp], #-0
    3790:	fe000000 	cdp2	0, 0, cr0, cr0, cr0, {0}
    3794:	0700000e 	streq	r0, [r0, -lr]
    3798:	00009738 	andeq	r9, r0, r8, lsr r7
    379c:	0000016b 	andeq	r0, r0, fp, ror #2
    37a0:	07500108 	ldrbeq	r0, [r0, -r8, lsl #2]
    37a4:	0a5001f3 	beq	1403f78 <__bss_end__+0x13f9940>
    37a8:	001e03e8 	andseq	r0, lr, r8, ror #7
    37ac:	09c40e00 	stmibeq	r4, {r9, sl, fp}^
    37b0:	a7020000 	strge	r0, [r2, -r0]
    37b4:	0000002c 	andeq	r0, r0, ip, lsr #32
    37b8:	000001f3 	strdeq	r0, [r0], -r3
    37bc:	00002c0f 	andeq	r2, r0, pc, lsl #24
    37c0:	d0100000 	andsle	r0, r0, r0
    37c4:	02000008 	andeq	r0, r0, #8
    37c8:	0cc50089 	stcleq	0, cr0, [r5], {137}	; 0x89
    37cc:	00040000 	andeq	r0, r4, r0
    37d0:	000013be 			; <UNDEFINED> instruction: 0x000013be
    37d4:	0d910104 	ldfeqs	f0, [r1, #16]
    37d8:	f40c0000 	vst4.8	{d0-d3}, [ip], r0
    37dc:	0f00000a 	svceq	0x0000000a
    37e0:	a000000b 	andge	r0, r0, fp
    37e4:	78000097 	stmdavc	r0, {r0, r1, r2, r4, r7}
    37e8:	0a000001 	beq	37f4 <__code_start__-0x480c>
    37ec:	02000010 	andeq	r0, r0, #16
    37f0:	6e690504 	cdpvs	5, 6, cr0, cr9, cr4, {0}
    37f4:	04030074 	streq	r0, [r3], #-116	; 0x74
    37f8:	0001c507 	andeq	ip, r1, r7, lsl #10
    37fc:	002c0400 	eoreq	r0, ip, r0, lsl #8
    3800:	01030000 	mrseq	r0, (UNDEF: 3)
    3804:	00011d06 	andeq	r1, r1, r6, lsl #26
    3808:	05020300 	streq	r0, [r2, #-768]	; 0x300
    380c:	0000016c 	andeq	r0, r0, ip, ror #2
    3810:	f5050403 			; <UNDEFINED> instruction: 0xf5050403
    3814:	03000001 	movweq	r0, #1
    3818:	01f00508 	mvnseq	r0, r8, lsl #10
    381c:	01030000 	mrseq	r0, (UNDEF: 3)
    3820:	00011b08 	andeq	r1, r1, r8, lsl #22
    3824:	07020300 	streq	r0, [r2, -r0, lsl #6]
    3828:	00000141 	andeq	r0, r0, r1, asr #2
    382c:	c0070403 	andgt	r0, r7, r3, lsl #8
    3830:	03000001 	movweq	r0, #1
    3834:	01bb0708 			; <UNDEFINED> instruction: 0x01bb0708
    3838:	a6050000 	strge	r0, [r5], -r0
    383c:	0200000c 	andeq	r0, r0, #12
    3840:	00002507 	andeq	r2, r0, r7, lsl #10
    3844:	0c900500 	cfldr32eq	mvfx0, [r0], {0}
    3848:	2c030000 	stccs	0, cr0, [r3], {-0}
    384c:	00000046 	andeq	r0, r0, r6, asr #32
    3850:	000d6c05 	andeq	r6, sp, r5, lsl #24
    3854:	46720300 	ldrbtmi	r0, [r2], -r0, lsl #6
    3858:	06000000 	streq	r0, [r0], -r0
    385c:	00000c34 	andeq	r0, r0, r4, lsr ip
    3860:	2c016504 	cfstr32cs	mvfx6, [r1], {4}
    3864:	07000000 	streq	r0, [r0, -r0]
    3868:	bca60304 	stclt	3, cr0, [r6], #16
    386c:	08000000 	stmdaeq	r0, {}	; <UNPREDICTABLE>
    3870:	00000c1f 	andeq	r0, r0, pc, lsl ip
    3874:	0091a803 	addseq	sl, r1, r3, lsl #16
    3878:	c7080000 	strgt	r0, [r8, -r0]
    387c:	0300000b 	movweq	r0, #11
    3880:	0000bca9 	andeq	fp, r0, r9, lsr #25
    3884:	54090000 	strpl	r0, [r9], #-0
    3888:	cc000000 	stcgt	0, cr0, [r0], {-0}
    388c:	0a000000 	beq	3894 <__code_start__-0x476c>
    3890:	000000cc 	andeq	r0, r0, ip, asr #1
    3894:	04030003 	streq	r0, [r3], #-3
    3898:	0001e707 	andeq	lr, r1, r7, lsl #14
    389c:	03080b00 	movweq	r0, #35584	; 0x8b00
    38a0:	0000f4a3 	andeq	pc, r0, r3, lsr #9
    38a4:	0d510c00 	ldcleq	12, cr0, [r1, #-0]
    38a8:	a5030000 	strge	r0, [r3, #-0]
    38ac:	00000025 	andeq	r0, r0, r5, lsr #32
    38b0:	0d590c00 	ldcleq	12, cr0, [r9, #-0]
    38b4:	aa030000 	bge	c38bc <__bss_end__+0xb9284>
    38b8:	0000009d 	muleq	r0, sp, r0
    38bc:	e4050004 	str	r0, [r5], #-4
    38c0:	0300000c 	movweq	r0, #12
    38c4:	0000d3ab 	andeq	sp, r0, fp, lsr #7
    38c8:	0b900500 	bleq	fe404cd0 <__bss_end__+0xfe3fa698>
    38cc:	af030000 	svcge	0x00030000
    38d0:	00000070 	andeq	r0, r0, r0, ror r0
    38d4:	040e040d 	streq	r0, [lr], #-1037	; 0x40d
    38d8:	00000112 	andeq	r0, r0, r2, lsl r1
    38dc:	24080103 	strcs	r0, [r8], #-259	; 0x103
    38e0:	0f000001 	svceq	0x00000001
    38e4:	00000112 	andeq	r0, r0, r2, lsl r1
    38e8:	000e0e05 	andeq	r0, lr, r5, lsl #28
    38ec:	62160500 	andsvs	r0, r6, #0, 10
    38f0:	10000000 	andne	r0, r0, r0
    38f4:	00000ba1 	andeq	r0, r0, r1, lsr #23
    38f8:	7c2d0518 	cfstr32vc	mvfx0, [sp], #-96	; 0xffffffa0
    38fc:	0c000001 	stceq	0, cr0, [r0], {1}
    3900:	00000d05 	andeq	r0, r0, r5, lsl #26
    3904:	017c2f05 	cmneq	ip, r5, lsl #30
    3908:	11000000 	mrsne	r0, (UNDEF: 0)
    390c:	05006b5f 	streq	r6, [r0, #-2911]	; 0xb5f
    3910:	00002530 	andeq	r2, r0, r0, lsr r5
    3914:	3c0c0400 	cfstrscc	mvf0, [ip], {-0}
    3918:	0500000d 	streq	r0, [r0, #-13]
    391c:	00002530 	andeq	r2, r0, r0, lsr r5
    3920:	7c0c0800 	stcvc	8, cr0, [ip], {-0}
    3924:	0500000b 	streq	r0, [r0, #-11]
    3928:	00002530 	andeq	r2, r0, r0, lsr r5
    392c:	550c0c00 	strpl	r0, [ip, #-3072]	; 0xc00
    3930:	0500000e 	streq	r0, [r0, #-14]
    3934:	00002530 	andeq	r2, r0, r0, lsr r5
    3938:	5f111000 	svcpl	0x00111000
    393c:	31050078 	tstcc	r5, r8, ror r0
    3940:	00000182 	andeq	r0, r0, r2, lsl #3
    3944:	040e0014 	streq	r0, [lr], #-20
    3948:	00000129 	andeq	r0, r0, r9, lsr #2
    394c:	00011e09 	andeq	r1, r1, r9, lsl #28
    3950:	00019200 	andeq	r9, r1, r0, lsl #4
    3954:	00cc0a00 	sbceq	r0, ip, r0, lsl #20
    3958:	00000000 	andeq	r0, r0, r0
    395c:	000bc210 	andeq	ip, fp, r0, lsl r2
    3960:	35052400 	strcc	r2, [r5, #-1024]	; 0x400
    3964:	0000020b 	andeq	r0, r0, fp, lsl #4
    3968:	000a7a0c 	andeq	r7, sl, ip, lsl #20
    396c:	25370500 	ldrcs	r0, [r7, #-1280]!	; 0x500
    3970:	00000000 	andeq	r0, r0, r0
    3974:	000d740c 	andeq	r7, sp, ip, lsl #8
    3978:	25380500 	ldrcs	r0, [r8, #-1280]!	; 0x500
    397c:	04000000 	streq	r0, [r0], #-0
    3980:	000aa80c 	andeq	sl, sl, ip, lsl #16
    3984:	25390500 	ldrcs	r0, [r9, #-1280]!	; 0x500
    3988:	08000000 	stmdaeq	r0, {}	; <UNPREDICTABLE>
    398c:	000f450c 	andeq	r4, pc, ip, lsl #10
    3990:	253a0500 	ldrcs	r0, [sl, #-1280]!	; 0x500
    3994:	0c000000 	stceq	0, cr0, [r0], {-0}
    3998:	000c740c 	andeq	r7, ip, ip, lsl #8
    399c:	253b0500 	ldrcs	r0, [fp, #-1280]!	; 0x500
    39a0:	10000000 	andne	r0, r0, r0
    39a4:	000c490c 	andeq	r4, ip, ip, lsl #18
    39a8:	253c0500 	ldrcs	r0, [ip, #-1280]!	; 0x500
    39ac:	14000000 	strne	r0, [r0], #-0
    39b0:	000e5a0c 	andeq	r5, lr, ip, lsl #20
    39b4:	253d0500 	ldrcs	r0, [sp, #-1280]!	; 0x500
    39b8:	18000000 	stmdane	r0, {}	; <UNPREDICTABLE>
    39bc:	000cc60c 	andeq	ip, ip, ip, lsl #12
    39c0:	253e0500 	ldrcs	r0, [lr, #-1280]!	; 0x500
    39c4:	1c000000 	stcne	0, cr0, [r0], {-0}
    39c8:	000f0c0c 	andeq	r0, pc, ip, lsl #24
    39cc:	253f0500 	ldrcs	r0, [pc, #-1280]!	; 34d4 <__code_start__-0x4b2c>
    39d0:	20000000 	andcs	r0, r0, r0
    39d4:	0ab71200 	beq	fedc81dc <__bss_end__+0xfedbdba4>
    39d8:	01080000 	mrseq	r0, (UNDEF: 8)
    39dc:	024b4805 	subeq	r4, fp, #327680	; 0x50000
    39e0:	630c0000 	movwvs	r0, #49152	; 0xc000
    39e4:	0500000b 	streq	r0, [r0, #-11]
    39e8:	00024b49 	andeq	r4, r2, r9, asr #22
    39ec:	f50c0000 			; <UNDEFINED> instruction: 0xf50c0000
    39f0:	05000009 	streq	r0, [r0, #-9]
    39f4:	00024b4a 	andeq	r4, r2, sl, asr #22
    39f8:	00138000 	andseq	r8, r3, r0
    39fc:	0500000e 	streq	r0, [r0, #-14]
    3a00:	00011e4c 	andeq	r1, r1, ip, asr #28
    3a04:	13010000 	movwne	r0, #4096	; 0x1000
    3a08:	00000adc 	ldrdeq	r0, [r0], -ip
    3a0c:	011e4f05 	tsteq	lr, r5, lsl #30
    3a10:	01040000 	mrseq	r0, (UNDEF: 4)
    3a14:	010a0900 	tsteq	sl, r0, lsl #18
    3a18:	025b0000 	subseq	r0, fp, #0
    3a1c:	cc0a0000 	stcgt	0, cr0, [sl], {-0}
    3a20:	1f000000 	svcne	0x00000000
    3a24:	0c7d1200 	lfmeq	f1, 2, [sp], #-0
    3a28:	01900000 	orrseq	r0, r0, r0
    3a2c:	02995b05 	addseq	r5, r9, #5120	; 0x1400
    3a30:	050c0000 	streq	r0, [ip, #-0]
    3a34:	0500000d 	streq	r0, [r0, #-13]
    3a38:	0002995c 	andeq	r9, r2, ip, asr r9
    3a3c:	1d0c0000 	stcne	0, cr0, [ip, #-0]
    3a40:	0500000d 	streq	r0, [r0, #-13]
    3a44:	0000255d 	andeq	r2, r0, sp, asr r5
    3a48:	770c0400 	strvc	r0, [ip, -r0, lsl #8]
    3a4c:	0500000b 	streq	r0, [r0, #-11]
    3a50:	00029f5f 	andeq	r9, r2, pc, asr pc
    3a54:	b70c0800 	strlt	r0, [ip, -r0, lsl #16]
    3a58:	0500000a 	streq	r0, [r0, #-10]
    3a5c:	00020b60 	andeq	r0, r2, r0, ror #22
    3a60:	0e008800 	cdpeq	8, 0, cr8, cr0, cr0, {0}
    3a64:	00025b04 	andeq	r5, r2, r4, lsl #22
    3a68:	02af0900 	adceq	r0, pc, #0, 18
    3a6c:	02af0000 	adceq	r0, pc, #0
    3a70:	cc0a0000 	stcgt	0, cr0, [sl], {-0}
    3a74:	1f000000 	svcne	0x00000000
    3a78:	b5040e00 	strlt	r0, [r4, #-3584]	; 0xe00
    3a7c:	14000002 	strne	r0, [r0], #-2
    3a80:	000cd010 	andeq	sp, ip, r0, lsl r0
    3a84:	73050800 	movwvc	r0, #22528	; 0x5800
    3a88:	000002db 	ldrdeq	r0, [r0], -fp
    3a8c:	000a9d0c 	andeq	r9, sl, ip, lsl #26
    3a90:	db740500 	blle	1d04e98 <__bss_end__+0x1cfa860>
    3a94:	00000002 	andeq	r0, r0, r2
    3a98:	000a010c 	andeq	r0, sl, ip, lsl #2
    3a9c:	25750500 	ldrbcs	r0, [r5, #-1280]!	; 0x500
    3aa0:	04000000 	streq	r0, [r0], #-0
    3aa4:	54040e00 	strpl	r0, [r4], #-3584	; 0xe00
    3aa8:	10000000 	andne	r0, r0, r0
    3aac:	00000cef 	andeq	r0, r0, pc, ror #25
    3ab0:	0bb30568 	bleq	fecc5058 <__bss_end__+0xfecbaa20>
    3ab4:	11000004 	tstne	r0, r4
    3ab8:	0500705f 	streq	r7, [r0, #-95]	; 0x5f
    3abc:	0002dbb4 			; <UNDEFINED> instruction: 0x0002dbb4
    3ac0:	5f110000 	svcpl	0x00110000
    3ac4:	b5050072 	strlt	r0, [r5, #-114]	; 0x72
    3ac8:	00000025 	andeq	r0, r0, r5, lsr #32
    3acc:	775f1104 	ldrbvc	r1, [pc, -r4, lsl #2]
    3ad0:	25b60500 	ldrcs	r0, [r6, #1280]!	; 0x500
    3ad4:	08000000 	stmdaeq	r0, {}	; <UNPREDICTABLE>
    3ad8:	000ad50c 	andeq	sp, sl, ip, lsl #10
    3adc:	3fb70500 	svccc	0x00b70500
    3ae0:	0c000000 	stceq	0, cr0, [r0], {-0}
    3ae4:	000be80c 	andeq	lr, fp, ip, lsl #16
    3ae8:	3fb80500 	svccc	0x00b80500
    3aec:	0e000000 	cdpeq	0, 0, cr0, cr0, cr0, {0}
    3af0:	66625f11 	uqadd16vs	r5, r2, r1
    3af4:	b6b90500 	ldrtlt	r0, [r9], r0, lsl #10
    3af8:	10000002 	andne	r0, r0, r2
    3afc:	000a440c 	andeq	r4, sl, ip, lsl #8
    3b00:	25ba0500 	ldrcs	r0, [sl, #1280]!	; 0x500
    3b04:	18000000 	stmdane	r0, {}	; <UNPREDICTABLE>
    3b08:	000ac50c 	andeq	ip, sl, ip, lsl #10
    3b0c:	0ac10500 	beq	ff044f14 <__bss_end__+0xff03a8dc>
    3b10:	1c000001 	stcne	0, cr0, [r0], {1}
    3b14:	000f6c0c 	andeq	r6, pc, ip, lsl #24
    3b18:	66c30500 	strbvs	r0, [r3], r0, lsl #10
    3b1c:	20000005 	andcs	r0, r0, r5
    3b20:	000f860c 	andeq	r8, pc, ip, lsl #12
    3b24:	90c50500 	sbcls	r0, r5, r0, lsl #10
    3b28:	24000005 	strcs	r0, [r0], #-5
    3b2c:	000d610c 	andeq	r6, sp, ip, lsl #2
    3b30:	b4c80500 	strblt	r0, [r8], #1280	; 0x500
    3b34:	28000005 	stmdacs	r0, {r0, r2}
    3b38:	000f260c 	andeq	r2, pc, ip, lsl #12
    3b3c:	cec90500 	cdpgt	5, 12, cr0, cr9, cr0, {0}
    3b40:	2c000005 	stccs	0, cr0, [r0], {5}
    3b44:	62755f11 	rsbsvs	r5, r5, #17, 30	; 0x44
    3b48:	b6cc0500 	strblt	r0, [ip], r0, lsl #10
    3b4c:	30000002 	andcc	r0, r0, r2
    3b50:	70755f11 	rsbsvc	r5, r5, r1, lsl pc
    3b54:	dbcd0500 	blle	ff344f5c <__bss_end__+0xff33a924>
    3b58:	38000002 	stmdacc	r0, {r1}
    3b5c:	72755f11 	rsbsvc	r5, r5, #17, 30	; 0x44
    3b60:	25ce0500 	strbcs	r0, [lr, #1280]	; 0x500
    3b64:	3c000000 	stccc	0, cr0, [r0], {-0}
    3b68:	000a880c 	andeq	r8, sl, ip, lsl #16
    3b6c:	d4d10500 	ldrble	r0, [r1], #1280	; 0x500
    3b70:	40000005 	andmi	r0, r0, r5
    3b74:	000ed10c 	andeq	sp, lr, ip, lsl #2
    3b78:	e4d20500 	ldrb	r0, [r2], #1280	; 0x500
    3b7c:	43000005 	movwmi	r0, #5
    3b80:	626c5f11 	rsbvs	r5, ip, #17, 30	; 0x44
    3b84:	b6d50500 	ldrblt	r0, [r5], r0, lsl #10
    3b88:	44000002 	strmi	r0, [r0], #-2
    3b8c:	000aeb0c 	andeq	lr, sl, ip, lsl #22
    3b90:	25d80500 	ldrbcs	r0, [r8, #1280]	; 0x500
    3b94:	4c000000 	stcmi	0, cr0, [r0], {-0}
    3b98:	000c530c 	andeq	r5, ip, ip, lsl #6
    3b9c:	7bd90500 	blvc	ff644fa4 <__bss_end__+0xff63a96c>
    3ba0:	50000000 	andpl	r0, r0, r0
    3ba4:	000ebc0c 	andeq	fp, lr, ip, lsl #24
    3ba8:	29dc0500 	ldmibcs	ip, {r8, sl}^
    3bac:	54000004 	strpl	r0, [r0], #-4
    3bb0:	000c3b0c 	andeq	r3, ip, ip, lsl #22
    3bb4:	ffe00500 			; <UNDEFINED> instruction: 0xffe00500
    3bb8:	58000000 	stmdapl	r0, {}	; <UNPREDICTABLE>
    3bbc:	000cf70c 	andeq	pc, ip, ip, lsl #14
    3bc0:	f4e20500 	vld2.16	{d16[0],d17[0]}, [r2], r0
    3bc4:	5c000000 	stcpl	0, cr0, [r0], {-0}
    3bc8:	000c410c 	andeq	r4, ip, ip, lsl #2
    3bcc:	25e30500 	strbcs	r0, [r3, #1280]!	; 0x500
    3bd0:	64000000 	strvs	r0, [r0], #-0
    3bd4:	00251500 	eoreq	r1, r5, r0, lsl #10
    3bd8:	04290000 	strteq	r0, [r9], #-0
    3bdc:	29160000 	ldmdbcs	r6, {}	; <UNPREDICTABLE>
    3be0:	16000004 	strne	r0, [r0], -r4
    3be4:	0000010a 	andeq	r0, r0, sl, lsl #2
    3be8:	00010c16 	andeq	r0, r1, r6, lsl ip
    3bec:	00251600 	eoreq	r1, r5, r0, lsl #12
    3bf0:	0e000000 	cdpeq	0, 0, cr0, cr0, cr0, {0}
    3bf4:	00043404 	andeq	r3, r4, r4, lsl #8
    3bf8:	04290f00 	strteq	r0, [r9], #-3840	; 0xf00
    3bfc:	44170000 	ldrmi	r0, [r7], #-0
    3c00:	2800000d 	stmdacs	r0, {r0, r2, r3}
    3c04:	02380504 	eorseq	r0, r8, #4, 10	; 0x1000000
    3c08:	00000566 	andeq	r0, r0, r6, ror #10
    3c0c:	000cbf18 	andeq	fp, ip, r8, lsl pc
    3c10:	023a0500 	eorseq	r0, sl, #0, 10
    3c14:	00000025 	andeq	r0, r0, r5, lsr #32
    3c18:	0ae41800 	beq	ff909c20 <__bss_end__+0xff8ff5e8>
    3c1c:	3f050000 	svccc	0x00050000
    3c20:	00063b02 	andeq	r3, r6, r2, lsl #22
    3c24:	d8180400 	ldmdale	r8, {sl}
    3c28:	0500000b 	streq	r0, [r0, #-11]
    3c2c:	063b023f 			; <UNDEFINED> instruction: 0x063b023f
    3c30:	18080000 	stmdane	r8, {}	; <UNPREDICTABLE>
    3c34:	00000b99 	muleq	r0, r9, fp
    3c38:	3b023f05 	blcc	93854 <__bss_end__+0x8921c>
    3c3c:	0c000006 	stceq	0, cr0, [r0], {6}
    3c40:	000d1818 	andeq	r1, sp, r8, lsl r8
    3c44:	02410500 	subeq	r0, r1, #0, 10
    3c48:	00000025 	andeq	r0, r0, r5, lsr #32
    3c4c:	0a0f1810 	beq	3c9c94 <__bss_end__+0x3bf65c>
    3c50:	42050000 	andmi	r0, r5, #0
    3c54:	00081d02 	andeq	r1, r8, r2, lsl #26
    3c58:	36181400 	ldrcc	r1, [r8], -r0, lsl #8
    3c5c:	0500000e 	streq	r0, [r0, #-14]
    3c60:	00250244 	eoreq	r0, r5, r4, asr #4
    3c64:	18300000 	ldmdane	r0!, {}	; <UNPREDICTABLE>
    3c68:	00000d22 	andeq	r0, r0, r2, lsr #26
    3c6c:	8a024505 	bhi	95088 <__bss_end__+0x8aa50>
    3c70:	34000005 	strcc	r0, [r0], #-5
    3c74:	000c8518 	andeq	r8, ip, r8, lsl r5
    3c78:	02470500 	subeq	r0, r7, #0, 10
    3c7c:	00000025 	andeq	r0, r0, r5, lsr #32
    3c80:	0d321838 	ldceq	8, cr1, [r2, #-224]!	; 0xffffff20
    3c84:	49050000 	stmdbmi	r5, {}	; <UNPREDICTABLE>
    3c88:	00083802 	andeq	r3, r8, r2, lsl #16
    3c8c:	17183c00 	ldrne	r3, [r8, -r0, lsl #24]
    3c90:	0500000c 	streq	r0, [r0, #-12]
    3c94:	017c024c 	cmneq	ip, ip, asr #4
    3c98:	18400000 	stmdane	r0, {}^	; <UNPREDICTABLE>
    3c9c:	00000bb8 			; <UNDEFINED> instruction: 0x00000bb8
    3ca0:	25024d05 	strcs	r4, [r2, #-3333]	; 0xd05
    3ca4:	44000000 	strmi	r0, [r0], #-0
    3ca8:	000f4018 	andeq	r4, pc, r8, lsl r0	; <UNPREDICTABLE>
    3cac:	024e0500 	subeq	r0, lr, #0, 10
    3cb0:	0000017c 	andeq	r0, r0, ip, ror r1
    3cb4:	0c9c1848 	ldceq	8, cr1, [ip], {72}	; 0x48
    3cb8:	4f050000 	svcmi	0x00050000
    3cbc:	00083e02 	andeq	r3, r8, r2, lsl #28
    3cc0:	e0184c00 	ands	r4, r8, r0, lsl #24
    3cc4:	0500000b 	streq	r0, [r0, #-11]
    3cc8:	00250252 	eoreq	r0, r5, r2, asr r2
    3ccc:	18500000 	ldmdane	r0, {}^	; <UNPREDICTABLE>
    3cd0:	00000b07 	andeq	r0, r0, r7, lsl #22
    3cd4:	0c025305 	stceq	3, cr5, [r2], {5}
    3cd8:	54000001 	strpl	r0, [r0], #-1
    3cdc:	000cb818 	andeq	fp, ip, r8, lsl r8
    3ce0:	02760500 	rsbseq	r0, r6, #0, 10
    3ce4:	000007fb 	strdeq	r0, [r0], -fp
    3ce8:	0c7d1958 	ldcleq	9, cr1, [sp], #-352	; 0xfffffea0
    3cec:	7a050000 	bvc	143cf4 <__bss_end__+0x1396bc>
    3cf0:	00029902 	andeq	r9, r2, r2, lsl #18
    3cf4:	19014800 	stmdbne	r1, {fp, lr}
    3cf8:	00000bf5 	strdeq	r0, [r0], -r5
    3cfc:	5b027b05 	blpl	a2918 <__bss_end__+0x982e0>
    3d00:	4c000002 	stcmi	0, cr0, [r0], {2}
    3d04:	0ea21901 	cdpeq	9, 10, cr1, cr2, cr1, {0}
    3d08:	7f050000 	svcvc	0x00050000
    3d0c:	00084f02 	andeq	r4, r8, r2, lsl #30
    3d10:	1902dc00 	stmdbne	r2, {sl, fp, ip, lr, pc}
    3d14:	00000acd 	andeq	r0, r0, sp, asr #21
    3d18:	00028405 	andeq	r8, r2, r5, lsl #8
    3d1c:	e0000006 	and	r0, r0, r6
    3d20:	0ab21902 	beq	fec8a130 <__bss_end__+0xfec7faf8>
    3d24:	85050000 	strhi	r0, [r5, #-0]
    3d28:	00085b02 	andeq	r5, r8, r2, lsl #22
    3d2c:	0002ec00 	andeq	lr, r2, r0, lsl #24
    3d30:	040b040e 	streq	r0, [fp], #-1038	; 0x40e
    3d34:	25150000 	ldrcs	r0, [r5, #-0]
    3d38:	8a000000 	bhi	3d40 <__code_start__-0x42c0>
    3d3c:	16000005 	strne	r0, [r0], -r5
    3d40:	00000429 	andeq	r0, r0, r9, lsr #8
    3d44:	00010a16 	andeq	r0, r1, r6, lsl sl
    3d48:	058a1600 	streq	r1, [sl, #1536]	; 0x600
    3d4c:	25160000 	ldrcs	r0, [r6, #-0]
    3d50:	00000000 	andeq	r0, r0, r0
    3d54:	0119040e 	tsteq	r9, lr, lsl #8
    3d58:	040e0000 	streq	r0, [lr], #-0
    3d5c:	0000056c 	andeq	r0, r0, ip, ror #10
    3d60:	00008615 	andeq	r8, r0, r5, lsl r6
    3d64:	0005b400 	andeq	fp, r5, r0, lsl #8
    3d68:	04291600 	strteq	r1, [r9], #-1536	; 0x600
    3d6c:	0a160000 	beq	583d74 <__bss_end__+0x57973c>
    3d70:	16000001 	strne	r0, [r0], -r1
    3d74:	00000086 	andeq	r0, r0, r6, lsl #1
    3d78:	00002516 	andeq	r2, r0, r6, lsl r5
    3d7c:	040e0000 	streq	r0, [lr], #-0
    3d80:	00000596 	muleq	r0, r6, r5
    3d84:	00002515 	andeq	r2, r0, r5, lsl r5
    3d88:	0005ce00 	andeq	ip, r5, r0, lsl #28
    3d8c:	04291600 	strteq	r1, [r9], #-1536	; 0x600
    3d90:	0a160000 	beq	583d98 <__bss_end__+0x579760>
    3d94:	00000001 	andeq	r0, r0, r1
    3d98:	05ba040e 	ldreq	r0, [sl, #1038]!	; 0x40e
    3d9c:	54090000 	strpl	r0, [r9], #-0
    3da0:	e4000000 	str	r0, [r0], #-0
    3da4:	0a000005 	beq	3dc0 <__code_start__-0x4240>
    3da8:	000000cc 	andeq	r0, r0, ip, asr #1
    3dac:	54090002 	strpl	r0, [r9], #-2
    3db0:	f4000000 	vst4.8	{d0-d3}, [r0], r0
    3db4:	0a000005 	beq	3dd0 <__code_start__-0x4230>
    3db8:	000000cc 	andeq	r0, r0, ip, asr #1
    3dbc:	dd060000 	stcle	0, cr0, [r6, #-0]
    3dc0:	0500000c 	streq	r0, [r0, #-12]
    3dc4:	02e1011d 	rsceq	r0, r1, #1073741831	; 0x40000007
    3dc8:	641a0000 	ldrvs	r0, [sl], #-0
    3dcc:	0c00000e 	stceq	0, cr0, [r0], {14}
    3dd0:	35012105 	strcc	r2, [r1, #-261]	; 0x105
    3dd4:	18000006 	stmdane	r0, {r1, r2}
    3dd8:	00000d05 	andeq	r0, r0, r5, lsl #26
    3ddc:	35012305 	strcc	r2, [r1, #-773]	; 0x305
    3de0:	00000006 	andeq	r0, r0, r6
    3de4:	000bee18 	andeq	lr, fp, r8, lsl lr
    3de8:	01240500 	teqeq	r4, r0, lsl #10
    3dec:	00000025 	andeq	r0, r0, r5, lsr #32
    3df0:	0cd71804 	ldcleq	8, cr1, [r7], {4}
    3df4:	25050000 	strcs	r0, [r5, #-0]
    3df8:	00063b01 	andeq	r3, r6, r1, lsl #22
    3dfc:	0e000800 	cdpeq	8, 0, cr0, cr0, cr0, {0}
    3e00:	00060004 	andeq	r0, r6, r4
    3e04:	f4040e00 			; <UNDEFINED> instruction: 0xf4040e00
    3e08:	1a000005 	bne	3e24 <__code_start__-0x41dc>
    3e0c:	00000a07 	andeq	r0, r0, r7, lsl #20
    3e10:	013d050e 	teqeq	sp, lr, lsl #10
    3e14:	00000676 	andeq	r0, r0, r6, ror r6
    3e18:	000d4b18 	andeq	r4, sp, r8, lsl fp
    3e1c:	013e0500 	teqeq	lr, r0, lsl #10
    3e20:	00000676 	andeq	r0, r0, r6, ror r6
    3e24:	0d851800 	stceq	8, cr1, [r5]
    3e28:	3f050000 	svccc	0x00050000
    3e2c:	00067601 	andeq	r7, r6, r1, lsl #12
    3e30:	09180600 	ldmdbeq	r8, {r9, sl}
    3e34:	0500000e 	streq	r0, [r0, #-14]
    3e38:	005b0140 	subseq	r0, fp, r0, asr #2
    3e3c:	000c0000 	andeq	r0, ip, r0
    3e40:	00005b09 	andeq	r5, r0, r9, lsl #22
    3e44:	00068600 	andeq	r8, r6, r0, lsl #12
    3e48:	00cc0a00 	sbceq	r0, ip, r0, lsl #20
    3e4c:	00020000 	andeq	r0, r2, r0
    3e50:	5705d01b 	smladpl	r5, fp, r0, sp
    3e54:	00078702 	andeq	r8, r7, r2, lsl #14
    3e58:	0e481800 	cdpeq	8, 4, cr1, cr8, cr0, {0}
    3e5c:	59050000 	stmdbpl	r5, {}	; <UNPREDICTABLE>
    3e60:	00002c02 	andeq	r2, r0, r2, lsl #24
    3e64:	f3180000 	vhadd.u16	d0, d8, d0
    3e68:	0500000d 	streq	r0, [r0, #-13]
    3e6c:	010c025a 	tsteq	ip, sl, asr r2
    3e70:	18040000 	stmdane	r4, {}	; <UNPREDICTABLE>
    3e74:	00000c0a 	andeq	r0, r0, sl, lsl #24
    3e78:	87025b05 	strhi	r5, [r2, -r5, lsl #22]
    3e7c:	08000007 	stmdaeq	r0, {r0, r1, r2}
    3e80:	000f1718 	andeq	r1, pc, r8, lsl r7	; <UNPREDICTABLE>
    3e84:	025c0500 	subseq	r0, ip, #0, 10
    3e88:	00000192 	muleq	r0, r2, r1
    3e8c:	0ba91824 	bleq	fea49f24 <__bss_end__+0xfea3f8ec>
    3e90:	5d050000 	stcpl	0, cr0, [r5, #-0]
    3e94:	00002502 	andeq	r2, r0, r2, lsl #10
    3e98:	00184800 	andseq	r4, r8, r0, lsl #16
    3e9c:	0500000d 	streq	r0, [r0, #-13]
    3ea0:	0069025e 	rsbeq	r0, r9, lr, asr r2
    3ea4:	18500000 	ldmdane	r0, {}^	; <UNPREDICTABLE>
    3ea8:	00000f2d 	andeq	r0, r0, sp, lsr #30
    3eac:	41025f05 	tstmi	r2, r5, lsl #30
    3eb0:	58000006 	stmdapl	r0, {r1, r2}
    3eb4:	000d0b18 	andeq	r0, sp, r8, lsl fp
    3eb8:	02600500 	rsbeq	r0, r0, #0, 10
    3ebc:	000000f4 	strdeq	r0, [r0], -r4
    3ec0:	0f321868 	svceq	0x00321868
    3ec4:	61050000 	mrsvs	r0, (UNDEF: 5)
    3ec8:	0000f402 	andeq	pc, r0, r2, lsl #8
    3ecc:	6c187000 	ldcvs	0, cr7, [r8], {-0}
    3ed0:	0500000a 	streq	r0, [r0, #-10]
    3ed4:	00f40262 	rscseq	r0, r4, r2, ror #4
    3ed8:	18780000 	ldmdane	r8!, {}^	; <UNPREDICTABLE>
    3edc:	00000e84 	andeq	r0, r0, r4, lsl #29
    3ee0:	97026305 	strls	r6, [r2, -r5, lsl #6]
    3ee4:	80000007 	andhi	r0, r0, r7
    3ee8:	000bfe18 	andeq	pc, fp, r8, lsl lr	; <UNPREDICTABLE>
    3eec:	02640500 	rsbeq	r0, r4, #0, 10
    3ef0:	000007a7 	andeq	r0, r0, r7, lsr #15
    3ef4:	0e161888 	cdpeq	8, 1, cr1, cr6, cr8, {4}
    3ef8:	65050000 	strvs	r0, [r5, #-0]
    3efc:	00002502 	andeq	r2, r0, r2, lsl #10
    3f00:	5518a000 	ldrpl	sl, [r8, #-0]
    3f04:	0500000b 	streq	r0, [r0, #-11]
    3f08:	00f40266 	rscseq	r0, r4, r6, ror #4
    3f0c:	18a40000 	stmiane	r4!, {}	; <UNPREDICTABLE>
    3f10:	00000a5d 	andeq	r0, r0, sp, asr sl
    3f14:	f4026705 	vst1.8	{d6}, [r2], r5
    3f18:	ac000000 	stcge	0, cr0, [r0], {-0}
    3f1c:	000b4418 	andeq	r4, fp, r8, lsl r4
    3f20:	02680500 	rsbeq	r0, r8, #0, 10
    3f24:	000000f4 	strdeq	r0, [r0], -r4
    3f28:	0a2418b4 	beq	90a200 <__bss_end__+0x8ffbc8>
    3f2c:	69050000 	stmdbvs	r5, {}	; <UNPREDICTABLE>
    3f30:	0000f402 	andeq	pc, r0, r2, lsl #8
    3f34:	3318bc00 	tstcc	r8, #0, 24
    3f38:	0500000a 	streq	r0, [r0, #-10]
    3f3c:	00f4026a 	rscseq	r0, r4, sl, ror #4
    3f40:	18c40000 	stmiane	r4, {}^	; <UNPREDICTABLE>
    3f44:	00000cbd 			; <UNDEFINED> instruction: 0x00000cbd
    3f48:	25026b05 	strcs	r6, [r2, #-2821]	; 0xb05
    3f4c:	cc000000 	stcgt	0, cr0, [r0], {-0}
    3f50:	01120900 	tsteq	r2, r0, lsl #18
    3f54:	07970000 	ldreq	r0, [r7, r0]
    3f58:	cc0a0000 	stcgt	0, cr0, [sl], {-0}
    3f5c:	19000000 	stmdbne	r0, {}	; <UNPREDICTABLE>
    3f60:	01120900 	tsteq	r2, r0, lsl #18
    3f64:	07a70000 	streq	r0, [r7, r0]!
    3f68:	cc0a0000 	stcgt	0, cr0, [sl], {-0}
    3f6c:	07000000 	streq	r0, [r0, -r0]
    3f70:	01120900 	tsteq	r2, r0, lsl #18
    3f74:	07b70000 	ldreq	r0, [r7, r0]!
    3f78:	cc0a0000 	stcgt	0, cr0, [sl], {-0}
    3f7c:	17000000 	strne	r0, [r0, -r0]
    3f80:	05f01b00 	ldrbeq	r1, [r0, #2816]!	; 0xb00
    3f84:	07db0270 			; <UNDEFINED> instruction: 0x07db0270
    3f88:	6d180000 	ldcvs	0, cr0, [r8, #-0]
    3f8c:	0500000c 	streq	r0, [r0, #-12]
    3f90:	07db0273 			; <UNDEFINED> instruction: 0x07db0273
    3f94:	18000000 	stmdane	r0, {}	; <UNPREDICTABLE>
    3f98:	00000e7b 	andeq	r0, r0, fp, ror lr
    3f9c:	eb027405 	bl	a0fb8 <__bss_end__+0x96980>
    3fa0:	78000007 	stmdavc	r0, {r0, r1, r2}
    3fa4:	02db0900 	sbcseq	r0, fp, #0, 18
    3fa8:	07eb0000 	strbeq	r0, [fp, r0]!
    3fac:	cc0a0000 	stcgt	0, cr0, [sl], {-0}
    3fb0:	1d000000 	stcne	0, cr0, [r0, #-0]
    3fb4:	002c0900 	eoreq	r0, ip, r0, lsl #18
    3fb8:	07fb0000 	ldrbeq	r0, [fp, r0]!
    3fbc:	cc0a0000 	stcgt	0, cr0, [sl], {-0}
    3fc0:	1d000000 	stcne	0, cr0, [r0, #-0]
    3fc4:	05f01c00 	ldrbeq	r1, [r0, #3072]!	; 0xc00
    3fc8:	081d0255 	ldmdaeq	sp, {r0, r2, r4, r6, r9}
    3fcc:	441d0000 	ldrmi	r0, [sp], #-0
    3fd0:	0500000d 	streq	r0, [r0, #-13]
    3fd4:	0686026c 	streq	r0, [r6], ip, ror #4
    3fd8:	d71d0000 	ldrle	r0, [sp, -r0]
    3fdc:	0500000e 	streq	r0, [r0, #-14]
    3fe0:	07b70275 			; <UNDEFINED> instruction: 0x07b70275
    3fe4:	09000000 	stmdbeq	r0, {}	; <UNPREDICTABLE>
    3fe8:	00000112 	andeq	r0, r0, r2, lsl r1
    3fec:	0000082d 	andeq	r0, r0, sp, lsr #16
    3ff0:	0000cc0a 	andeq	ip, r0, sl, lsl #24
    3ff4:	1e001800 	cdpne	8, 0, cr1, cr0, cr0, {0}
    3ff8:	00000838 	andeq	r0, r0, r8, lsr r8
    3ffc:	00042916 	andeq	r2, r4, r6, lsl r9
    4000:	040e0000 	streq	r0, [lr], #-0
    4004:	0000082d 	andeq	r0, r0, sp, lsr #16
    4008:	017c040e 	cmneq	ip, lr, lsl #8
    400c:	4f1e0000 	svcmi	0x001e0000
    4010:	16000008 	strne	r0, [r0], -r8
    4014:	00000025 	andeq	r0, r0, r5, lsr #32
    4018:	55040e00 	strpl	r0, [r4, #-3584]	; 0xe00
    401c:	0e000008 	cdpeq	0, 0, cr0, cr0, cr8, {0}
    4020:	00084404 	andeq	r4, r8, r4, lsl #8
    4024:	05f40900 	ldrbeq	r0, [r4, #2304]!	; 0x900
    4028:	086b0000 	stmdaeq	fp!, {}^	; <UNPREDICTABLE>
    402c:	cc0a0000 	stcgt	0, cr0, [sl], {-0}
    4030:	02000000 	andeq	r0, r0, #0
    4034:	0e2a1f00 	cdpeq	15, 2, cr1, cr10, cr0, {0}
    4038:	fd050000 	stc2	0, cr0, [r5, #-0]
    403c:	00042902 	andeq	r2, r4, r2, lsl #18
    4040:	0e231f00 	cdpeq	15, 2, cr1, cr3, cr0, {0}
    4044:	fe050000 	cdp2	0, 0, cr0, cr5, cr0, {0}
    4048:	00042f02 	andeq	r2, r4, r2, lsl #30
    404c:	00251500 	eoreq	r1, r5, r0, lsl #10
    4050:	08920000 	ldmeq	r2, {}	; <UNPREDICTABLE>
    4054:	25160000 	ldrcs	r0, [r6, #-0]
    4058:	00000000 	andeq	r0, r0, r0
    405c:	00062420 	andeq	r2, r6, r0, lsr #8
    4060:	9d1d0600 	ldcls	6, cr0, [sp, #-0]
    4064:	0e000008 	cdpeq	0, 0, cr0, cr0, cr8, {0}
    4068:	00088304 	andeq	r8, r8, r4, lsl #6
    406c:	00251500 	eoreq	r1, r5, r0, lsl #10
    4070:	08b20000 	ldmeq	r2!, {}	; <UNPREDICTABLE>
    4074:	8a160000 	bhi	58407c <__bss_end__+0x579a44>
    4078:	00000005 	andeq	r0, r0, r5
    407c:	00066120 	andeq	r6, r6, r0, lsr #2
    4080:	bd220600 	stclt	6, cr0, [r2, #-0]
    4084:	0e000008 	cdpeq	0, 0, cr0, cr0, cr8, {0}
    4088:	0008a304 	andeq	sl, r8, r4, lsl #6
    408c:	54012100 	strpl	r2, [r1], #-256	; 0x100
    4090:	08000000 	stmdaeq	r0, {}	; <UNPREDICTABLE>
    4094:	0009000c 	andeq	r0, r9, ip
    4098:	0a4d2200 	beq	134c8a0 <__bss_end__+0x1342268>
    409c:	22000000 	andcs	r0, r0, #0
    40a0:	00000e6a 	andeq	r0, r0, sl, ror #28
    40a4:	0ec22201 	cdpeq	2, 12, cr2, cr2, cr1, {0}
    40a8:	22040000 	andcs	r0, r4, #0
    40ac:	00000a8e 	andeq	r0, r0, lr, lsl #21
    40b0:	0c252205 	sfmeq	f2, 4, [r5], #-20	; 0xffffffec
    40b4:	22060000 	andcs	r0, r6, #0
    40b8:	00000edf 	ldrdeq	r0, [r0], -pc	; <UNPREDICTABLE>
    40bc:	0eee2207 	cdpeq	2, 14, cr2, cr14, cr7, {0}
    40c0:	22030000 	andcs	r0, r3, #0
    40c4:	00000efd 	strdeq	r0, [r0], -sp
    40c8:	fb100002 	blx	4040da <__bss_end__+0x3f9aa2>
    40cc:	2c00000a 	stccs	0, cr0, [r0], {10}
    40d0:	09900607 	ldmibeq	r0, {r0, r1, r2, r9, sl}
    40d4:	69110000 	ldmdbvs	r1, {}	; <UNPREDICTABLE>
    40d8:	0907006f 	stmdbeq	r7, {r0, r1, r2, r3, r5, r6}
    40dc:	00000033 	andeq	r0, r0, r3, lsr r0
    40e0:	65691100 	strbvs	r1, [r9, #-256]!	; 0x100
    40e4:	0a070072 	beq	1c42b4 <__bss_end__+0x1b9c7c>
    40e8:	00000033 	andeq	r0, r0, r3, lsr r0
    40ec:	69691104 	stmdbvs	r9!, {r2, r8, ip}^
    40f0:	11070072 	tstne	r7, r2, ror r0
    40f4:	00000033 	andeq	r0, r0, r3, lsr r0
    40f8:	636c1108 	cmnvs	ip, #8, 2
    40fc:	13070072 	movwne	r0, #28786	; 0x7072
    4100:	00000033 	andeq	r0, r0, r3, lsr r0
    4104:	636d110c 	cmnvs	sp, #12, 2
    4108:	14070072 	strne	r0, [r7], #-114	; 0x72
    410c:	00000033 	andeq	r0, r0, r3, lsr r0
    4110:	736c1110 	cmnvc	ip, #16, 2
    4114:	15070072 	strne	r0, [r7, #-114]	; 0x72
    4118:	00000033 	andeq	r0, r0, r3, lsr r0
    411c:	736d1114 	cmnvc	sp, #20, 2
    4120:	16070072 			; <UNDEFINED> instruction: 0x16070072
    4124:	00000033 	andeq	r0, r0, r3, lsr r0
    4128:	0d7d0c18 	ldcleq	12, cr0, [sp, #-96]!	; 0xffffffa0
    412c:	17070000 	strne	r0, [r7, -r0]
    4130:	00000033 	andeq	r0, r0, r3, lsr r0
    4134:	0aa30c1c 	beq	fe8c71ac <__bss_end__+0xfe8bcb74>
    4138:	1b070000 	blne	1c4140 <__bss_end__+0x1b9b08>
    413c:	00000033 	andeq	r0, r0, r3, lsr r0
    4140:	0a830c20 	beq	fe0c71c8 <__bss_end__+0xfe0bcb90>
    4144:	1d070000 	stcne	0, cr0, [r7, #-0]
    4148:	00000033 	andeq	r0, r0, r3, lsr r0
    414c:	0d670c24 	stcleq	12, cr0, [r7, #-144]!	; 0xffffff70
    4150:	1e070000 	cdpne	0, 0, cr0, cr7, cr0, {0}
    4154:	00000033 	andeq	r0, r0, r3, lsr r0
    4158:	6b230028 	blvs	8c4200 <__bss_end__+0x8b9bc8>
    415c:	0100000b 	tsteq	r0, fp
    4160:	0009a507 	andeq	sl, r9, r7, lsl #10
    4164:	21500400 	cmpcs	r0, r0, lsl #8
    4168:	33040e20 	movwcc	r0, #20000	; 0x4e20
    416c:	0f000000 	svceq	0x00000000
    4170:	0000099f 	muleq	r0, pc, r9	; <UNPREDICTABLE>
    4174:	000c9723 	andeq	r9, ip, r3, lsr #14
    4178:	bf280100 	svclt	0x00280100
    417c:	40000009 	andmi	r0, r0, r9
    4180:	0e202150 	mcreq	1, 1, r2, cr0, cr0, {2}
    4184:	00090004 	andeq	r0, r9, r4
    4188:	09b90f00 	ldmibeq	r9!, {r8, r9, sl, fp}
    418c:	b4240000 	strtlt	r0, [r4], #-0
    4190:	0100000e 	tsteq	r0, lr
    4194:	000025a7 	andeq	r2, r0, r7, lsr #11
    4198:	00990800 	addseq	r0, r9, r0, lsl #16
    419c:	00001000 	andeq	r1, r0, r0
    41a0:	f09c0100 			; <UNDEFINED> instruction: 0xf09c0100
    41a4:	25000009 	strcs	r0, [r0, #-9]
    41a8:	00009910 	andeq	r9, r0, r0, lsl r9
    41ac:	00000c9c 	muleq	r0, ip, ip
    41b0:	00991425 	addseq	r1, r9, r5, lsr #8
    41b4:	000ad200 	andeq	sp, sl, r0, lsl #4
    41b8:	09260000 	stmdbeq	r6!, {}	; <UNPREDICTABLE>
    41bc:	01000006 	tsteq	r0, r6
    41c0:	0098d89f 	umullseq	sp, r8, pc, r8	; <UNPREDICTABLE>
    41c4:	00003000 	andeq	r3, r0, r0
    41c8:	4e9c0100 	fmlmie	f0, f4, f0
    41cc:	2700000a 	strcs	r0, [r0, -sl]
    41d0:	9f010063 	svcls	0x00010063
    41d4:	0000002c 	andeq	r0, r0, ip, lsr #32
    41d8:	00000f1f 	andeq	r0, r0, pc, lsl pc
    41dc:	0098e425 	addseq	lr, r8, r5, lsr #8
    41e0:	000c9c00 	andeq	r9, ip, r0, lsl #24
    41e4:	98e82500 	stmials	r8!, {r8, sl, sp}^
    41e8:	0aa50000 	beq	fe9441f0 <__bss_end__+0xfe939bb8>
    41ec:	fc280000 	stc2	0, cr0, [r8], #-0
    41f0:	a7000098 			; <UNDEFINED> instruction: 0xa7000098
    41f4:	4400000c 	strmi	r0, [r0], #-12
    41f8:	2900000a 	stmdbcs	r0, {r1, r3}
    41fc:	0c055001 	stceq	0, cr5, [r5], {1}
    4200:	20215040 	eorcs	r5, r1, r0, asr #32
    4204:	05510129 	ldrbeq	r0, [r1, #-297]	; 0x129
    4208:	ff080074 			; <UNDEFINED> instruction: 0xff080074
    420c:	0025001a 	eoreq	r0, r5, sl, lsl r0
    4210:	9c000099 	stcls	0, cr0, [r0], {153}	; 0x99
    4214:	0000000c 	andeq	r0, r0, ip
    4218:	000bce24 	andeq	ip, fp, r4, lsr #28
    421c:	25970100 	ldrcs	r0, [r7, #256]	; 0x100
    4220:	a8000000 	stmdage	r0, {}	; <UNPREDICTABLE>
    4224:	30000098 	mulcc	r0, r8, r0
    4228:	01000000 	mrseq	r0, (UNDEF: 0)
    422c:	000aa59c 	muleq	sl, ip, r5
    4230:	00632a00 	rsbeq	r2, r3, r0, lsl #20
    4234:	00259b01 	eoreq	r9, r5, r1, lsl #22
    4238:	54010000 	strpl	r0, [r1], #-0
    423c:	0098b025 	addseq	fp, r8, r5, lsr #32
    4240:	000c9c00 	andeq	r9, ip, r0, lsl #24
    4244:	98b42500 	ldmls	r4!, {r8, sl, sp}
    4248:	0ad20000 	beq	ff484250 <__bss_end__+0xff479c18>
    424c:	c4280000 	strtgt	r0, [r8], #-0
    4250:	b2000098 	andlt	r0, r0, #152	; 0x98
    4254:	9b00000c 	blls	428c <__code_start__-0x3d74>
    4258:	2900000a 	stmdbcs	r0, {r1, r3}
    425c:	0c055001 	stceq	0, cr5, [r5], {1}
    4260:	20215040 	eorcs	r5, r1, r0, asr #32
    4264:	98cc2500 	stmials	ip, {r8, sl, sp}^
    4268:	0c9c0000 	ldceq	0, cr0, [ip], {0}
    426c:	24000000 	strcs	r0, [r0], #-0
    4270:	00000b82 	andeq	r0, r0, r2, lsl #23
    4274:	00258801 	eoreq	r8, r5, r1, lsl #16
    4278:	98880000 	stmls	r8, {}	; <UNPREDICTABLE>
    427c:	00200000 	eoreq	r0, r0, r0
    4280:	9c010000 	stcls	0, cr0, [r1], {-0}
    4284:	00000ad2 	ldrdeq	r0, [r0], -r2
    4288:	0098942b 	addseq	r9, r8, fp, lsr #8
    428c:	000cb200 	andeq	fp, ip, r0, lsl #4
    4290:	50012900 	andpl	r2, r1, r0, lsl #18
    4294:	50640c05 	rsbpl	r0, r4, r5, lsl #24
    4298:	00002021 	andeq	r2, r0, r1, lsr #32
    429c:	000e9424 	andeq	r9, lr, r4, lsr #8
    42a0:	257f0100 	ldrbcs	r0, [pc, #-256]!	; 41a8 <__code_start__-0x3e58>
    42a4:	70000000 	andvc	r0, r0, r0
    42a8:	18000098 	stmdane	r0, {r3, r4, r7}
    42ac:	01000000 	mrseq	r0, (UNDEF: 0)
    42b0:	000aff9c 	muleq	sl, ip, pc	; <UNPREDICTABLE>
    42b4:	987c2b00 	ldmdals	ip!, {r8, r9, fp, sp}^
    42b8:	0cb20000 	ldceq	0, cr0, [r2]
    42bc:	01290000 	teqeq	r9, r0
    42c0:	640c0550 	strvs	r0, [ip], #-1360	; 0x550
    42c4:	00202150 	eoreq	r2, r0, r0, asr r1
    42c8:	0a1a2600 	beq	68dad0 <__bss_end__+0x683498>
    42cc:	3a010000 	bcc	442d4 <__bss_end__+0x39c9c>
    42d0:	000097c0 	andeq	r9, r0, r0, asr #15
    42d4:	000000b0 	strheq	r0, [r0], -r0	; <UNPREDICTABLE>
    42d8:	0c3d9c01 	ldceq	12, cr9, [sp], #-4
    42dc:	d0280000 	eorle	r0, r8, r0
    42e0:	bd000097 	stclt	0, cr0, [r0, #-604]	; 0xfffffda4
    42e4:	2c00000c 	stccs	0, cr0, [r0], {12}
    42e8:	2900000b 	stmdbcs	r0, {r0, r1, r3}
    42ec:	3e015001 	cdpcc	0, 0, cr5, cr1, cr1, {0}
    42f0:	01510129 	cmpeq	r1, r9, lsr #2
    42f4:	dc280032 	stcle	0, cr0, [r8], #-200	; 0xffffff38
    42f8:	bd000097 	stclt	0, cr0, [r0, #-604]	; 0xfffffda4
    42fc:	4400000c 	strmi	r0, [r0], #-12
    4300:	2900000b 	stmdbcs	r0, {r0, r1, r3}
    4304:	3f015001 	svccc	0x00015001
    4308:	01510129 	cmpeq	r1, r9, lsr #2
    430c:	e0250032 	eor	r0, r5, r2, lsr r0
    4310:	9c000097 	stcls	0, cr0, [r0], {151}	; 0x97
    4314:	2800000c 	stmdacs	r0, {r2, r3}
    4318:	000097ec 	andeq	r9, r0, ip, ror #15
    431c:	00000c3d 	andeq	r0, r0, sp, lsr ip
    4320:	00000b69 	andeq	r0, r0, r9, ror #22
    4324:	05500129 	ldrbeq	r0, [r0, #-297]	; 0x129
    4328:	2150040c 	cmpcs	r0, ip, lsl #8
    432c:	51012920 	tstpl	r1, r0, lsr #18
    4330:	25003101 	strcs	r3, [r0, #-257]	; 0x101
    4334:	000097f0 	strdeq	r9, [r0], -r0
    4338:	00000c9c 	muleq	r0, ip, ip
    433c:	00980028 	addseq	r0, r8, r8, lsr #32
    4340:	000ca700 	andeq	sl, ip, r0, lsl #14
    4344:	000b8b00 	andeq	r8, fp, r0, lsl #22
    4348:	50012900 	andpl	r2, r1, r0, lsl #18
    434c:	29007402 	stmdbcs	r0, {r1, sl, ip, sp, lr}
    4350:	30015101 	andcc	r5, r1, r1, lsl #2
    4354:	980c2800 	stmdals	ip, {fp, sp}
    4358:	0ca70000 	stceq	0, cr0, [r7]
    435c:	0ba70000 	bleq	fe9c4364 <__bss_end__+0xfe9b9d2c>
    4360:	01290000 	teqeq	r9, r0
    4364:	440c0550 	strmi	r0, [ip], #-1360	; 0x550
    4368:	29202150 	stmdbcs	r0!, {r4, r6, r8, sp}
    436c:	30015101 	andcc	r5, r1, r1, lsl #2
    4370:	98182800 	ldmdals	r8, {fp, sp}
    4374:	0ca70000 	stceq	0, cr0, [r7]
    4378:	0bc30000 	bleq	ff0c4380 <__bss_end__+0xff0b9d48>
    437c:	01290000 	teqeq	r9, r0
    4380:	4c0c0550 	cfstr32mi	mvfx0, [ip], {80}	; 0x50
    4384:	29202150 	stmdbcs	r0!, {r4, r6, r8, sp}
    4388:	33015101 	movwcc	r5, #4353	; 0x1101
    438c:	98242800 	stmdals	r4!, {fp, sp}
    4390:	0ca70000 	stceq	0, cr0, [r7]
    4394:	0bdf0000 	bleq	ff7c439c <__bss_end__+0xff7b9d64>
    4398:	01290000 	teqeq	r9, r0
    439c:	500c0550 	andpl	r0, ip, r0, asr r5
    43a0:	29202150 	stmdbcs	r0!, {r4, r6, r8, sp}
    43a4:	30015101 	andcc	r5, r1, r1, lsl #2
    43a8:	98302800 	ldmdals	r0!, {fp, sp}
    43ac:	0ca70000 	stceq	0, cr0, [r7]
    43b0:	0bfc0000 	bleq	fff043b8 <__bss_end__+0xffef9d80>
    43b4:	01290000 	teqeq	r9, r0
    43b8:	480c0550 	stmdami	ip, {r4, r6, r8, sl}
    43bc:	29202150 	stmdbcs	r0!, {r4, r6, r8, sp}
    43c0:	08025101 	stmdaeq	r2, {r0, r8, ip, lr}
    43c4:	3c2800c7 	stccc	0, cr0, [r8], #-796	; 0xfffffce4
    43c8:	a7000098 			; <UNDEFINED> instruction: 0xa7000098
    43cc:	1a00000c 	bne	4404 <__code_start__-0x3bfc>
    43d0:	2900000c 	stmdbcs	r0, {r2, r3}
    43d4:	0c055001 	stceq	0, cr5, [r5], {1}
    43d8:	20215068 	eorcs	r5, r1, r8, rrx
    43dc:	03510129 	cmpeq	r1, #1073741834	; 0x4000000a
    43e0:	00010e0a 	andeq	r0, r1, sl, lsl #28
    43e4:	00984828 	addseq	r4, r8, r8, lsr #16
    43e8:	000ca700 	andeq	sl, ip, r0, lsl #14
    43ec:	000c3300 	andeq	r3, ip, r0, lsl #6
    43f0:	50012900 	andpl	r2, r1, r0, lsl #18
    43f4:	29007402 	stmdbcs	r0, {r1, sl, ip, sp, lr}
    43f8:	33015101 	movwcc	r5, #4353	; 0x1101
    43fc:	984c2500 	stmdals	ip, {r8, sl, sp}^
    4400:	0c9c0000 	ldceq	0, cr0, [ip], {0}
    4404:	2c000000 	stccs	0, cr0, [r0], {-0}
    4408:	00000eac 	andeq	r0, r0, ip, lsr #29
    440c:	97a02d01 	strls	r2, [r0, r1, lsl #26]!
    4410:	00200000 	eoreq	r0, r0, r0
    4414:	9c010000 	stcls	0, cr0, [r1], {-0}
    4418:	00000c95 	muleq	r0, r5, ip
    441c:	0002102d 	andeq	r1, r2, sp, lsr #32
    4420:	952d0100 	strls	r0, [sp, #-256]!	; 0x100
    4424:	3d00000c 	stccc	0, cr0, [r0, #-48]	; 0xffffffd0
    4428:	2700000f 	strcs	r0, [r0, -pc]
    442c:	006c6176 	rsbeq	r6, ip, r6, ror r1
    4430:	002c2d01 	eoreq	r2, ip, r1, lsl #26
    4434:	0f5b0000 	svceq	0x005b0000
    4438:	b0280000 	eorlt	r0, r8, r0
    443c:	b2000097 	andlt	r0, r0, #151	; 0x97
    4440:	8400000c 	strhi	r0, [r0], #-12
    4444:	2900000c 	stmdbcs	r0, {r2, r3}
    4448:	74025001 	strvc	r5, [r2], #-1
    444c:	bc2b0000 	stclt	0, cr0, [fp], #-0
    4450:	a7000097 			; <UNDEFINED> instruction: 0xa7000097
    4454:	2900000c 	stmdbcs	r0, {r2, r3}
    4458:	74025001 	strvc	r5, [r2], #-1
    445c:	0e000000 	cdpeq	0, 0, cr0, cr0, cr0, {0}
    4460:	000c9b04 	andeq	r9, ip, r4, lsl #22
    4464:	d02f2e00 	eorle	r2, pc, r0, lsl #28
    4468:	d0000008 	andle	r0, r0, r8
    446c:	06000008 	streq	r0, [r0], -r8
    4470:	0d8b2f89 	stceq	15, cr2, [fp, #548]	; 0x224
    4474:	0d8b0000 	stceq	0, cr0, [fp]
    4478:	9c060000 	stcls	0, cr0, [r6], {-0}
    447c:	000e8e2f 	andeq	r8, lr, pc, lsr #28
    4480:	000e8e00 	andeq	r8, lr, r0, lsl #28
    4484:	2fa80600 	svccs	0x00a80600
    4488:	00000c5b 	andeq	r0, r0, fp, asr ip
    448c:	00000c5b 	andeq	r0, r0, fp, asr ip
    4490:	70001908 	andvc	r1, r0, r8, lsl #18
    4494:	0400000b 	streq	r0, [r0], #-11
    4498:	00163200 	andseq	r3, r6, r0, lsl #4
    449c:	91010400 	tstls	r1, r0, lsl #8
    44a0:	0c00000d 	stceq	0, cr0, [r0], {13}
    44a4:	00000f61 	andeq	r0, r0, r1, ror #30
    44a8:	00000b0f 	andeq	r0, r0, pc, lsl #22
    44ac:	00009918 	andeq	r9, r0, r8, lsl r9
    44b0:	00000120 	andeq	r0, r0, r0, lsr #2
    44b4:	00001156 	andeq	r1, r0, r6, asr r1
    44b8:	69050402 	stmdbvs	r5, {r1, sl}
    44bc:	0300746e 	movweq	r7, #1134	; 0x46e
    44c0:	01c50704 	biceq	r0, r5, r4, lsl #14
    44c4:	2c040000 	stccs	0, cr0, [r4], {-0}
    44c8:	03000000 	movweq	r0, #0
    44cc:	011d0601 	tsteq	sp, r1, lsl #12
    44d0:	02030000 	andeq	r0, r3, #0
    44d4:	00016c05 	andeq	r6, r1, r5, lsl #24
    44d8:	05040300 	streq	r0, [r4, #-768]	; 0x300
    44dc:	000001f5 	strdeq	r0, [r0], -r5
    44e0:	f0050803 			; <UNDEFINED> instruction: 0xf0050803
    44e4:	03000001 	movweq	r0, #1
    44e8:	011b0801 	tsteq	fp, r1, lsl #16
    44ec:	02030000 	andeq	r0, r3, #0
    44f0:	00014107 	andeq	r4, r1, r7, lsl #2
    44f4:	07040300 	streq	r0, [r4, -r0, lsl #6]
    44f8:	000001c0 	andeq	r0, r0, r0, asr #3
    44fc:	bb070803 	bllt	1c6510 <__bss_end__+0x1bbed8>
    4500:	05000001 	streq	r0, [r0, #-1]
    4504:	00000ca6 	andeq	r0, r0, r6, lsr #25
    4508:	00250702 	eoreq	r0, r5, r2, lsl #14
    450c:	90050000 	andls	r0, r5, r0
    4510:	0300000c 	movweq	r0, #12
    4514:	0000462c 	andeq	r4, r0, ip, lsr #12
    4518:	0d6c0500 	cfstr64eq	mvdx0, [ip, #-0]
    451c:	72030000 	andvc	r0, r3, #0
    4520:	00000046 	andeq	r0, r0, r6, asr #32
    4524:	000c3406 	andeq	r3, ip, r6, lsl #8
    4528:	01650400 	cmneq	r5, r0, lsl #8
    452c:	0000002c 	andeq	r0, r0, ip, lsr #32
    4530:	a6030407 	strge	r0, [r3], -r7, lsl #8
    4534:	000000bc 	strheq	r0, [r0], -ip
    4538:	000c1f08 	andeq	r1, ip, r8, lsl #30
    453c:	91a80300 			; <UNDEFINED> instruction: 0x91a80300
    4540:	08000000 	stmdaeq	r0, {}	; <UNPREDICTABLE>
    4544:	00000bc7 	andeq	r0, r0, r7, asr #23
    4548:	00bca903 	adcseq	sl, ip, r3, lsl #18
    454c:	09000000 	stmdbeq	r0, {}	; <UNPREDICTABLE>
    4550:	00000054 	andeq	r0, r0, r4, asr r0
    4554:	000000cc 	andeq	r0, r0, ip, asr #1
    4558:	0000cc0a 	andeq	ip, r0, sl, lsl #24
    455c:	03000300 	movweq	r0, #768	; 0x300
    4560:	01e70704 	mvneq	r0, r4, lsl #14
    4564:	080b0000 	stmdaeq	fp, {}	; <UNPREDICTABLE>
    4568:	00f4a303 	rscseq	sl, r4, r3, lsl #6
    456c:	510c0000 	mrspl	r0, (UNDEF: 12)
    4570:	0300000d 	movweq	r0, #13
    4574:	000025a5 	andeq	r2, r0, r5, lsr #11
    4578:	590c0000 	stmdbpl	ip, {}	; <UNPREDICTABLE>
    457c:	0300000d 	movweq	r0, #13
    4580:	00009daa 	andeq	r9, r0, sl, lsr #27
    4584:	05000400 	streq	r0, [r0, #-1024]	; 0x400
    4588:	00000ce4 	andeq	r0, r0, r4, ror #25
    458c:	00d3ab03 	sbcseq	sl, r3, r3, lsl #22
    4590:	90050000 	andls	r0, r5, r0
    4594:	0300000b 	movweq	r0, #11
    4598:	000070af 	andeq	r7, r0, pc, lsr #1
    459c:	0e040d00 	cdpeq	13, 0, cr0, cr4, cr0, {0}
    45a0:	00011204 	andeq	r1, r1, r4, lsl #4
    45a4:	08010300 	stmdaeq	r1, {r8, r9}
    45a8:	00000124 	andeq	r0, r0, r4, lsr #2
    45ac:	00011204 	andeq	r1, r1, r4, lsl #4
    45b0:	0e0e0500 	cfsh32eq	mvfx0, mvfx14, #0
    45b4:	16050000 	strne	r0, [r5], -r0
    45b8:	00000062 	andeq	r0, r0, r2, rrx
    45bc:	000ba10f 	andeq	sl, fp, pc, lsl #2
    45c0:	2d051800 	stccs	8, cr1, [r5, #-0]
    45c4:	0000017c 	andeq	r0, r0, ip, ror r1
    45c8:	000d050c 	andeq	r0, sp, ip, lsl #10
    45cc:	7c2f0500 	cfstr32vc	mvfx0, [pc], #-0	; 45d4 <__code_start__-0x3a2c>
    45d0:	00000001 	andeq	r0, r0, r1
    45d4:	006b5f10 	rsbeq	r5, fp, r0, lsl pc
    45d8:	00253005 	eoreq	r3, r5, r5
    45dc:	0c040000 	stceq	0, cr0, [r4], {-0}
    45e0:	00000d3c 	andeq	r0, r0, ip, lsr sp
    45e4:	00253005 	eoreq	r3, r5, r5
    45e8:	0c080000 	stceq	0, cr0, [r8], {-0}
    45ec:	00000b7c 	andeq	r0, r0, ip, ror fp
    45f0:	00253005 	eoreq	r3, r5, r5
    45f4:	0c0c0000 	stceq	0, cr0, [ip], {-0}
    45f8:	00000e55 	andeq	r0, r0, r5, asr lr
    45fc:	00253005 	eoreq	r3, r5, r5
    4600:	10100000 	andsne	r0, r0, r0
    4604:	0500785f 	streq	r7, [r0, #-2143]	; 0x85f
    4608:	00018231 	andeq	r8, r1, r1, lsr r2
    460c:	0e001400 	cfcpyseq	mvf1, mvf0
    4610:	00012904 	andeq	r2, r1, r4, lsl #18
    4614:	011e0900 	tsteq	lr, r0, lsl #18
    4618:	01920000 	orrseq	r0, r2, r0
    461c:	cc0a0000 	stcgt	0, cr0, [sl], {-0}
    4620:	00000000 	andeq	r0, r0, r0
    4624:	0bc20f00 	bleq	ff08822c <__bss_end__+0xff07dbf4>
    4628:	05240000 	streq	r0, [r4, #-0]!
    462c:	00020b35 	andeq	r0, r2, r5, lsr fp
    4630:	0a7a0c00 	beq	1e87638 <__bss_end__+0x1e7d000>
    4634:	37050000 	strcc	r0, [r5, -r0]
    4638:	00000025 	andeq	r0, r0, r5, lsr #32
    463c:	0d740c00 	ldcleq	12, cr0, [r4, #-0]
    4640:	38050000 	stmdacc	r5, {}	; <UNPREDICTABLE>
    4644:	00000025 	andeq	r0, r0, r5, lsr #32
    4648:	0aa80c04 	beq	fea07660 <__bss_end__+0xfe9fd028>
    464c:	39050000 	stmdbcc	r5, {}	; <UNPREDICTABLE>
    4650:	00000025 	andeq	r0, r0, r5, lsr #32
    4654:	0f450c08 	svceq	0x00450c08
    4658:	3a050000 	bcc	144660 <__bss_end__+0x13a028>
    465c:	00000025 	andeq	r0, r0, r5, lsr #32
    4660:	0c740c0c 	ldcleq	12, cr0, [r4], #-48	; 0xffffffd0
    4664:	3b050000 	blcc	14466c <__bss_end__+0x13a034>
    4668:	00000025 	andeq	r0, r0, r5, lsr #32
    466c:	0c490c10 	mcrreq	12, 1, r0, r9, cr0
    4670:	3c050000 	stccc	0, cr0, [r5], {-0}
    4674:	00000025 	andeq	r0, r0, r5, lsr #32
    4678:	0e5a0c14 	mrceq	12, 2, r0, cr10, cr4, {0}
    467c:	3d050000 	stccc	0, cr0, [r5, #-0]
    4680:	00000025 	andeq	r0, r0, r5, lsr #32
    4684:	0cc60c18 	stcleq	12, cr0, [r6], {24}
    4688:	3e050000 	cdpcc	0, 0, cr0, cr5, cr0, {0}
    468c:	00000025 	andeq	r0, r0, r5, lsr #32
    4690:	0f0c0c1c 	svceq	0x000c0c1c
    4694:	3f050000 	svccc	0x00050000
    4698:	00000025 	andeq	r0, r0, r5, lsr #32
    469c:	b7110020 	ldrlt	r0, [r1, -r0, lsr #32]
    46a0:	0800000a 	stmdaeq	r0, {r1, r3}
    46a4:	4b480501 	blmi	1205ab0 <__bss_end__+0x11fb478>
    46a8:	0c000002 	stceq	0, cr0, [r0], {2}
    46ac:	00000b63 	andeq	r0, r0, r3, ror #22
    46b0:	024b4905 	subeq	r4, fp, #81920	; 0x14000
    46b4:	0c000000 	stceq	0, cr0, [r0], {-0}
    46b8:	000009f5 	strdeq	r0, [r0], -r5
    46bc:	024b4a05 	subeq	r4, fp, #20480	; 0x5000
    46c0:	12800000 	addne	r0, r0, #0
    46c4:	00000e00 	andeq	r0, r0, r0, lsl #28
    46c8:	011e4c05 	tsteq	lr, r5, lsl #24
    46cc:	01000000 	mrseq	r0, (UNDEF: 0)
    46d0:	000adc12 	andeq	sp, sl, r2, lsl ip
    46d4:	1e4f0500 	cdpne	5, 4, cr0, cr15, cr0, {0}
    46d8:	04000001 	streq	r0, [r0], #-1
    46dc:	0a090001 	beq	2446e8 <__bss_end__+0x23a0b0>
    46e0:	5b000001 	blpl	46ec <__code_start__-0x3914>
    46e4:	0a000002 	beq	46f4 <__code_start__-0x390c>
    46e8:	000000cc 	andeq	r0, r0, ip, asr #1
    46ec:	7d11001f 	ldcvc	0, cr0, [r1, #-124]	; 0xffffff84
    46f0:	9000000c 	andls	r0, r0, ip
    46f4:	995b0501 	ldmdbls	fp, {r0, r8, sl}^
    46f8:	0c000002 	stceq	0, cr0, [r0], {2}
    46fc:	00000d05 	andeq	r0, r0, r5, lsl #26
    4700:	02995c05 	addseq	r5, r9, #1280	; 0x500
    4704:	0c000000 	stceq	0, cr0, [r0], {-0}
    4708:	00000d1d 	andeq	r0, r0, sp, lsl sp
    470c:	00255d05 	eoreq	r5, r5, r5, lsl #26
    4710:	0c040000 	stceq	0, cr0, [r4], {-0}
    4714:	00000b77 	andeq	r0, r0, r7, ror fp
    4718:	029f5f05 	addseq	r5, pc, #5, 30
    471c:	0c080000 	stceq	0, cr0, [r8], {-0}
    4720:	00000ab7 			; <UNDEFINED> instruction: 0x00000ab7
    4724:	020b6005 	andeq	r6, fp, #5
    4728:	00880000 	addeq	r0, r8, r0
    472c:	025b040e 	subseq	r0, fp, #234881024	; 0xe000000
    4730:	af090000 	svcge	0x00090000
    4734:	af000002 	svcge	0x00000002
    4738:	0a000002 	beq	4748 <__code_start__-0x38b8>
    473c:	000000cc 	andeq	r0, r0, ip, asr #1
    4740:	040e001f 	streq	r0, [lr], #-31
    4744:	000002b5 			; <UNDEFINED> instruction: 0x000002b5
    4748:	0cd00f13 	ldcleq	15, cr0, [r0], {19}
    474c:	05080000 	streq	r0, [r8, #-0]
    4750:	0002db73 	andeq	sp, r2, r3, ror fp
    4754:	0a9d0c00 	beq	fe74775c <__bss_end__+0xfe73d124>
    4758:	74050000 	strvc	r0, [r5], #-0
    475c:	000002db 	ldrdeq	r0, [r0], -fp
    4760:	0a010c00 	beq	47768 <__bss_end__+0x3d130>
    4764:	75050000 	strvc	r0, [r5, #-0]
    4768:	00000025 	andeq	r0, r0, r5, lsr #32
    476c:	040e0004 	streq	r0, [lr], #-4
    4770:	00000054 	andeq	r0, r0, r4, asr r0
    4774:	000cef0f 	andeq	lr, ip, pc, lsl #30
    4778:	b3056800 	movwlt	r6, #22528	; 0x5800
    477c:	0000040b 	andeq	r0, r0, fp, lsl #8
    4780:	00705f10 	rsbseq	r5, r0, r0, lsl pc
    4784:	02dbb405 	sbcseq	fp, fp, #83886080	; 0x5000000
    4788:	10000000 	andne	r0, r0, r0
    478c:	0500725f 	streq	r7, [r0, #-607]	; 0x25f
    4790:	000025b5 			; <UNDEFINED> instruction: 0x000025b5
    4794:	5f100400 	svcpl	0x00100400
    4798:	b6050077 			; <UNDEFINED> instruction: 0xb6050077
    479c:	00000025 	andeq	r0, r0, r5, lsr #32
    47a0:	0ad50c08 	beq	ff5477c8 <__bss_end__+0xff53d190>
    47a4:	b7050000 	strlt	r0, [r5, -r0]
    47a8:	0000003f 	andeq	r0, r0, pc, lsr r0
    47ac:	0be80c0c 	bleq	ffa077e4 <__bss_end__+0xff9fd1ac>
    47b0:	b8050000 	stmdalt	r5, {}	; <UNPREDICTABLE>
    47b4:	0000003f 	andeq	r0, r0, pc, lsr r0
    47b8:	625f100e 	subsvs	r1, pc, #14
    47bc:	b9050066 	stmdblt	r5, {r1, r2, r5, r6}
    47c0:	000002b6 			; <UNDEFINED> instruction: 0x000002b6
    47c4:	0a440c10 	beq	110780c <__bss_end__+0x10fd1d4>
    47c8:	ba050000 	blt	1447d0 <__bss_end__+0x13a198>
    47cc:	00000025 	andeq	r0, r0, r5, lsr #32
    47d0:	0ac50c18 	beq	ff147838 <__bss_end__+0xff13d200>
    47d4:	c1050000 	mrsgt	r0, (UNDEF: 5)
    47d8:	0000010a 	andeq	r0, r0, sl, lsl #2
    47dc:	0f6c0c1c 	svceq	0x006c0c1c
    47e0:	c3050000 	movwgt	r0, #20480	; 0x5000
    47e4:	00000566 	andeq	r0, r0, r6, ror #10
    47e8:	0f860c20 	svceq	0x00860c20
    47ec:	c5050000 	strgt	r0, [r5, #-0]
    47f0:	00000590 	muleq	r0, r0, r5
    47f4:	0d610c24 	stcleq	12, cr0, [r1, #-144]!	; 0xffffff70
    47f8:	c8050000 	stmdagt	r5, {}	; <UNPREDICTABLE>
    47fc:	000005b4 			; <UNDEFINED> instruction: 0x000005b4
    4800:	0f260c28 	svceq	0x00260c28
    4804:	c9050000 	stmdbgt	r5, {}	; <UNPREDICTABLE>
    4808:	000005ce 	andeq	r0, r0, lr, asr #11
    480c:	755f102c 	ldrbvc	r1, [pc, #-44]	; 47e8 <__code_start__-0x3818>
    4810:	cc050062 	stcgt	0, cr0, [r5], {98}	; 0x62
    4814:	000002b6 			; <UNDEFINED> instruction: 0x000002b6
    4818:	755f1030 	ldrbvc	r1, [pc, #-48]	; 47f0 <__code_start__-0x3810>
    481c:	cd050070 	stcgt	0, cr0, [r5, #-448]	; 0xfffffe40
    4820:	000002db 	ldrdeq	r0, [r0], -fp
    4824:	755f1038 	ldrbvc	r1, [pc, #-56]	; 47f4 <__code_start__-0x380c>
    4828:	ce050072 	mcrgt	0, 0, r0, cr5, cr2, {3}
    482c:	00000025 	andeq	r0, r0, r5, lsr #32
    4830:	0a880c3c 	beq	fe207928 <__bss_end__+0xfe1fd2f0>
    4834:	d1050000 	mrsle	r0, (UNDEF: 5)
    4838:	000005d4 	ldrdeq	r0, [r0], -r4
    483c:	0ed10c40 	cdpeq	12, 13, cr0, cr1, cr0, {2}
    4840:	d2050000 	andle	r0, r5, #0
    4844:	000005e4 	andeq	r0, r0, r4, ror #11
    4848:	6c5f1043 	mrrcvs	0, 4, r1, pc, cr3	; <UNPREDICTABLE>
    484c:	d5050062 	strle	r0, [r5, #-98]	; 0x62
    4850:	000002b6 			; <UNDEFINED> instruction: 0x000002b6
    4854:	0aeb0c44 	beq	ffac796c <__bss_end__+0xffabd334>
    4858:	d8050000 	stmdale	r5, {}	; <UNPREDICTABLE>
    485c:	00000025 	andeq	r0, r0, r5, lsr #32
    4860:	0c530c4c 	mrrceq	12, 4, r0, r3, cr12
    4864:	d9050000 	stmdble	r5, {}	; <UNPREDICTABLE>
    4868:	0000007b 	andeq	r0, r0, fp, ror r0
    486c:	0ebc0c50 	mrceq	12, 5, r0, cr12, cr0, {2}
    4870:	dc050000 	stcle	0, cr0, [r5], {-0}
    4874:	00000429 	andeq	r0, r0, r9, lsr #8
    4878:	0c3b0c54 	ldceq	12, cr0, [fp], #-336	; 0xfffffeb0
    487c:	e0050000 	and	r0, r5, r0
    4880:	000000ff 	strdeq	r0, [r0], -pc	; <UNPREDICTABLE>
    4884:	0cf70c58 	ldcleq	12, cr0, [r7], #352	; 0x160
    4888:	e2050000 	and	r0, r5, #0
    488c:	000000f4 	strdeq	r0, [r0], -r4
    4890:	0c410c5c 	mcrreq	12, 5, r0, r1, cr12
    4894:	e3050000 	movw	r0, #20480	; 0x5000
    4898:	00000025 	andeq	r0, r0, r5, lsr #32
    489c:	25140064 	ldrcs	r0, [r4, #-100]	; 0x64
    48a0:	29000000 	stmdbcs	r0, {}	; <UNPREDICTABLE>
    48a4:	15000004 	strne	r0, [r0, #-4]
    48a8:	00000429 	andeq	r0, r0, r9, lsr #8
    48ac:	00010a15 	andeq	r0, r1, r5, lsl sl
    48b0:	010c1500 	tsteq	ip, r0, lsl #10
    48b4:	25150000 	ldrcs	r0, [r5, #-0]
    48b8:	00000000 	andeq	r0, r0, r0
    48bc:	0434040e 	ldrteq	r0, [r4], #-1038	; 0x40e
    48c0:	29040000 	stmdbcs	r4, {}	; <UNPREDICTABLE>
    48c4:	16000004 	strne	r0, [r0], -r4
    48c8:	00000d44 	andeq	r0, r0, r4, asr #26
    48cc:	38050428 	stmdacc	r5, {r3, r5, sl}
    48d0:	00056602 	andeq	r6, r5, r2, lsl #12
    48d4:	0cbf1700 	ldceq	7, cr1, [pc]	; 48dc <__code_start__-0x3724>
    48d8:	3a050000 	bcc	1448e0 <__bss_end__+0x13a2a8>
    48dc:	00002502 	andeq	r2, r0, r2, lsl #10
    48e0:	e4170000 	ldr	r0, [r7], #-0
    48e4:	0500000a 	streq	r0, [r0, #-10]
    48e8:	063b023f 			; <UNDEFINED> instruction: 0x063b023f
    48ec:	17040000 	strne	r0, [r4, -r0]
    48f0:	00000bd8 	ldrdeq	r0, [r0], -r8
    48f4:	3b023f05 	blcc	94510 <__bss_end__+0x89ed8>
    48f8:	08000006 	stmdaeq	r0, {r1, r2}
    48fc:	000b9917 	andeq	r9, fp, r7, lsl r9
    4900:	023f0500 	eorseq	r0, pc, #0, 10
    4904:	0000063b 	andeq	r0, r0, fp, lsr r6
    4908:	0d18170c 	ldceq	7, cr1, [r8, #-48]	; 0xffffffd0
    490c:	41050000 	mrsmi	r0, (UNDEF: 5)
    4910:	00002502 	andeq	r2, r0, r2, lsl #10
    4914:	0f171000 	svceq	0x00171000
    4918:	0500000a 	streq	r0, [r0, #-10]
    491c:	081d0242 	ldmdaeq	sp, {r1, r6, r9}
    4920:	17140000 	ldrne	r0, [r4, -r0]
    4924:	00000e36 	andeq	r0, r0, r6, lsr lr
    4928:	25024405 	strcs	r4, [r2, #-1029]	; 0x405
    492c:	30000000 	andcc	r0, r0, r0
    4930:	000d2217 	andeq	r2, sp, r7, lsl r2
    4934:	02450500 	subeq	r0, r5, #0, 10
    4938:	0000058a 	andeq	r0, r0, sl, lsl #11
    493c:	0c851734 	stceq	7, cr1, [r5], {52}	; 0x34
    4940:	47050000 	strmi	r0, [r5, -r0]
    4944:	00002502 	andeq	r2, r0, r2, lsl #10
    4948:	32173800 	andscc	r3, r7, #0, 16
    494c:	0500000d 	streq	r0, [r0, #-13]
    4950:	08380249 	ldmdaeq	r8!, {r0, r3, r6, r9}
    4954:	173c0000 	ldrne	r0, [ip, -r0]!
    4958:	00000c17 	andeq	r0, r0, r7, lsl ip
    495c:	7c024c05 	stcvc	12, cr4, [r2], {5}
    4960:	40000001 	andmi	r0, r0, r1
    4964:	000bb817 	andeq	fp, fp, r7, lsl r8
    4968:	024d0500 	subeq	r0, sp, #0, 10
    496c:	00000025 	andeq	r0, r0, r5, lsr #32
    4970:	0f401744 	svceq	0x00401744
    4974:	4e050000 	cdpmi	0, 0, cr0, cr5, cr0, {0}
    4978:	00017c02 	andeq	r7, r1, r2, lsl #24
    497c:	9c174800 	ldcls	8, cr4, [r7], {-0}
    4980:	0500000c 	streq	r0, [r0, #-12]
    4984:	083e024f 	ldmdaeq	lr!, {r0, r1, r2, r3, r6, r9}
    4988:	174c0000 	strbne	r0, [ip, -r0]
    498c:	00000be0 	andeq	r0, r0, r0, ror #23
    4990:	25025205 	strcs	r5, [r2, #-517]	; 0x205
    4994:	50000000 	andpl	r0, r0, r0
    4998:	000b0717 	andeq	r0, fp, r7, lsl r7
    499c:	02530500 	subseq	r0, r3, #0, 10
    49a0:	0000010c 	andeq	r0, r0, ip, lsl #2
    49a4:	0cb81754 	ldceq	7, cr1, [r8], #336	; 0x150
    49a8:	76050000 	strvc	r0, [r5], -r0
    49ac:	0007fb02 	andeq	pc, r7, r2, lsl #22
    49b0:	7d185800 	ldcvc	8, cr5, [r8, #-0]
    49b4:	0500000c 	streq	r0, [r0, #-12]
    49b8:	0299027a 	addseq	r0, r9, #-1610612729	; 0xa0000007
    49bc:	01480000 	mrseq	r0, (UNDEF: 72)
    49c0:	000bf518 	andeq	pc, fp, r8, lsl r5	; <UNPREDICTABLE>
    49c4:	027b0500 	rsbseq	r0, fp, #0, 10
    49c8:	0000025b 	andeq	r0, r0, fp, asr r2
    49cc:	a218014c 	andsge	r0, r8, #76, 2
    49d0:	0500000e 	streq	r0, [r0, #-14]
    49d4:	084f027f 	stmdaeq	pc, {r0, r1, r2, r3, r4, r5, r6, r9}^	; <UNPREDICTABLE>
    49d8:	02dc0000 	sbcseq	r0, ip, #0
    49dc:	000acd18 	andeq	ip, sl, r8, lsl sp
    49e0:	02840500 	addeq	r0, r4, #0, 10
    49e4:	00000600 	andeq	r0, r0, r0, lsl #12
    49e8:	b21802e0 	andslt	r0, r8, #224, 4
    49ec:	0500000a 	streq	r0, [r0, #-10]
    49f0:	085b0285 	ldmdaeq	fp, {r0, r2, r7, r9}^
    49f4:	02ec0000 	rsceq	r0, ip, #0
    49f8:	0b040e00 	bleq	108200 <__bss_end__+0xfdbc8>
    49fc:	14000004 	strne	r0, [r0], #-4
    4a00:	00000025 	andeq	r0, r0, r5, lsr #32
    4a04:	0000058a 	andeq	r0, r0, sl, lsl #11
    4a08:	00042915 	andeq	r2, r4, r5, lsl r9
    4a0c:	010a1500 	tsteq	sl, r0, lsl #10
    4a10:	8a150000 	bhi	544a18 <__bss_end__+0x53a3e0>
    4a14:	15000005 	strne	r0, [r0, #-5]
    4a18:	00000025 	andeq	r0, r0, r5, lsr #32
    4a1c:	19040e00 	stmdbne	r4, {r9, sl, fp}
    4a20:	0e000001 	cdpeq	0, 0, cr0, cr0, cr1, {0}
    4a24:	00056c04 	andeq	r6, r5, r4, lsl #24
    4a28:	00861400 	addeq	r1, r6, r0, lsl #8
    4a2c:	05b40000 	ldreq	r0, [r4, #0]!
    4a30:	29150000 	ldmdbcs	r5, {}	; <UNPREDICTABLE>
    4a34:	15000004 	strne	r0, [r0, #-4]
    4a38:	0000010a 	andeq	r0, r0, sl, lsl #2
    4a3c:	00008615 	andeq	r8, r0, r5, lsl r6
    4a40:	00251500 	eoreq	r1, r5, r0, lsl #10
    4a44:	0e000000 	cdpeq	0, 0, cr0, cr0, cr0, {0}
    4a48:	00059604 	andeq	r9, r5, r4, lsl #12
    4a4c:	00251400 	eoreq	r1, r5, r0, lsl #8
    4a50:	05ce0000 	strbeq	r0, [lr]
    4a54:	29150000 	ldmdbcs	r5, {}	; <UNPREDICTABLE>
    4a58:	15000004 	strne	r0, [r0, #-4]
    4a5c:	0000010a 	andeq	r0, r0, sl, lsl #2
    4a60:	ba040e00 	blt	108268 <__bss_end__+0xfdc30>
    4a64:	09000005 	stmdbeq	r0, {r0, r2}
    4a68:	00000054 	andeq	r0, r0, r4, asr r0
    4a6c:	000005e4 	andeq	r0, r0, r4, ror #11
    4a70:	0000cc0a 	andeq	ip, r0, sl, lsl #24
    4a74:	09000200 	stmdbeq	r0, {r9}
    4a78:	00000054 	andeq	r0, r0, r4, asr r0
    4a7c:	000005f4 	strdeq	r0, [r0], -r4
    4a80:	0000cc0a 	andeq	ip, r0, sl, lsl #24
    4a84:	06000000 	streq	r0, [r0], -r0
    4a88:	00000cdd 	ldrdeq	r0, [r0], -sp
    4a8c:	e1011d05 	tst	r1, r5, lsl #26
    4a90:	19000002 	stmdbne	r0, {r1}
    4a94:	00000e64 	andeq	r0, r0, r4, ror #28
    4a98:	0121050c 	teqeq	r1, ip, lsl #10
    4a9c:	00000635 	andeq	r0, r0, r5, lsr r6
    4aa0:	000d0517 	andeq	r0, sp, r7, lsl r5
    4aa4:	01230500 	teqeq	r3, r0, lsl #10
    4aa8:	00000635 	andeq	r0, r0, r5, lsr r6
    4aac:	0bee1700 	bleq	ffb8a6b4 <__bss_end__+0xffb8007c>
    4ab0:	24050000 	strcs	r0, [r5], #-0
    4ab4:	00002501 	andeq	r2, r0, r1, lsl #10
    4ab8:	d7170400 	ldrle	r0, [r7, -r0, lsl #8]
    4abc:	0500000c 	streq	r0, [r0, #-12]
    4ac0:	063b0125 	ldrteq	r0, [fp], -r5, lsr #2
    4ac4:	00080000 	andeq	r0, r8, r0
    4ac8:	0600040e 	streq	r0, [r0], -lr, lsl #8
    4acc:	040e0000 	streq	r0, [lr], #-0
    4ad0:	000005f4 	strdeq	r0, [r0], -r4
    4ad4:	000a0719 	andeq	r0, sl, r9, lsl r7
    4ad8:	3d050e00 	stccc	14, cr0, [r5, #-0]
    4adc:	00067601 	andeq	r7, r6, r1, lsl #12
    4ae0:	0d4b1700 	stcleq	7, cr1, [fp, #-0]
    4ae4:	3e050000 	cdpcc	0, 0, cr0, cr5, cr0, {0}
    4ae8:	00067601 	andeq	r7, r6, r1, lsl #12
    4aec:	85170000 	ldrhi	r0, [r7, #-0]
    4af0:	0500000d 	streq	r0, [r0, #-13]
    4af4:	0676013f 			; <UNDEFINED> instruction: 0x0676013f
    4af8:	17060000 	strne	r0, [r6, -r0]
    4afc:	00000e09 	andeq	r0, r0, r9, lsl #28
    4b00:	5b014005 	blpl	54b1c <__bss_end__+0x4a4e4>
    4b04:	0c000000 	stceq	0, cr0, [r0], {-0}
    4b08:	005b0900 	subseq	r0, fp, r0, lsl #18
    4b0c:	06860000 	streq	r0, [r6], r0
    4b10:	cc0a0000 	stcgt	0, cr0, [sl], {-0}
    4b14:	02000000 	andeq	r0, r0, #0
    4b18:	05d01a00 	ldrbeq	r1, [r0, #2560]	; 0xa00
    4b1c:	07870257 			; <UNDEFINED> instruction: 0x07870257
    4b20:	48170000 	ldmdami	r7, {}	; <UNPREDICTABLE>
    4b24:	0500000e 	streq	r0, [r0, #-14]
    4b28:	002c0259 	eoreq	r0, ip, r9, asr r2
    4b2c:	17000000 	strne	r0, [r0, -r0]
    4b30:	00000df3 	strdeq	r0, [r0], -r3
    4b34:	0c025a05 	stceq	10, cr5, [r2], {5}
    4b38:	04000001 	streq	r0, [r0], #-1
    4b3c:	000c0a17 	andeq	r0, ip, r7, lsl sl
    4b40:	025b0500 	subseq	r0, fp, #0, 10
    4b44:	00000787 	andeq	r0, r0, r7, lsl #15
    4b48:	0f171708 	svceq	0x00171708
    4b4c:	5c050000 	stcpl	0, cr0, [r5], {-0}
    4b50:	00019202 	andeq	r9, r1, r2, lsl #4
    4b54:	a9172400 	ldmdbge	r7, {sl, sp}
    4b58:	0500000b 	streq	r0, [r0, #-11]
    4b5c:	0025025d 	eoreq	r0, r5, sp, asr r2
    4b60:	17480000 	strbne	r0, [r8, -r0]
    4b64:	00000d00 	andeq	r0, r0, r0, lsl #26
    4b68:	69025e05 	stmdbvs	r2, {r0, r2, r9, sl, fp, ip, lr}
    4b6c:	50000000 	andpl	r0, r0, r0
    4b70:	000f2d17 	andeq	r2, pc, r7, lsl sp	; <UNPREDICTABLE>
    4b74:	025f0500 	subseq	r0, pc, #0, 10
    4b78:	00000641 	andeq	r0, r0, r1, asr #12
    4b7c:	0d0b1758 	stceq	7, cr1, [fp, #-352]	; 0xfffffea0
    4b80:	60050000 	andvs	r0, r5, r0
    4b84:	0000f402 	andeq	pc, r0, r2, lsl #8
    4b88:	32176800 	andscc	r6, r7, #0, 16
    4b8c:	0500000f 	streq	r0, [r0, #-15]
    4b90:	00f40261 	rscseq	r0, r4, r1, ror #4
    4b94:	17700000 	ldrbne	r0, [r0, -r0]!
    4b98:	00000a6c 	andeq	r0, r0, ip, ror #20
    4b9c:	f4026205 	vst1.8	{d6-d9}, [r2], r5
    4ba0:	78000000 	stmdavc	r0, {}	; <UNPREDICTABLE>
    4ba4:	000e8417 	andeq	r8, lr, r7, lsl r4
    4ba8:	02630500 	rsbeq	r0, r3, #0, 10
    4bac:	00000797 	muleq	r0, r7, r7
    4bb0:	0bfe1780 	bleq	fff8a9b8 <__bss_end__+0xfff80380>
    4bb4:	64050000 	strvs	r0, [r5], #-0
    4bb8:	0007a702 	andeq	sl, r7, r2, lsl #14
    4bbc:	16178800 	ldrne	r8, [r7], -r0, lsl #16
    4bc0:	0500000e 	streq	r0, [r0, #-14]
    4bc4:	00250265 	eoreq	r0, r5, r5, ror #4
    4bc8:	17a00000 	strne	r0, [r0, r0]!
    4bcc:	00000b55 	andeq	r0, r0, r5, asr fp
    4bd0:	f4026605 	vst1.8	{d6-d8}, [r2], r5
    4bd4:	a4000000 	strge	r0, [r0], #-0
    4bd8:	000a5d17 	andeq	r5, sl, r7, lsl sp
    4bdc:	02670500 	rsbeq	r0, r7, #0, 10
    4be0:	000000f4 	strdeq	r0, [r0], -r4
    4be4:	0b4417ac 	bleq	110aa9c <__bss_end__+0x1100464>
    4be8:	68050000 	stmdavs	r5, {}	; <UNPREDICTABLE>
    4bec:	0000f402 	andeq	pc, r0, r2, lsl #8
    4bf0:	2417b400 	ldrcs	fp, [r7], #-1024	; 0x400
    4bf4:	0500000a 	streq	r0, [r0, #-10]
    4bf8:	00f40269 	rscseq	r0, r4, r9, ror #4
    4bfc:	17bc0000 	ldrne	r0, [ip, r0]!
    4c00:	00000a33 	andeq	r0, r0, r3, lsr sl
    4c04:	f4026a05 	vst1.8	{d6-d7}, [r2], r5
    4c08:	c4000000 	strgt	r0, [r0], #-0
    4c0c:	000cbd17 	andeq	fp, ip, r7, lsl sp
    4c10:	026b0500 	rsbeq	r0, fp, #0, 10
    4c14:	00000025 	andeq	r0, r0, r5, lsr #32
    4c18:	120900cc 	andne	r0, r9, #204	; 0xcc
    4c1c:	97000001 	strls	r0, [r0, -r1]
    4c20:	0a000007 	beq	4c44 <__code_start__-0x33bc>
    4c24:	000000cc 	andeq	r0, r0, ip, asr #1
    4c28:	12090019 	andne	r0, r9, #25
    4c2c:	a7000001 	strge	r0, [r0, -r1]
    4c30:	0a000007 	beq	4c54 <__code_start__-0x33ac>
    4c34:	000000cc 	andeq	r0, r0, ip, asr #1
    4c38:	12090007 	andne	r0, r9, #7
    4c3c:	b7000001 	strlt	r0, [r0, -r1]
    4c40:	0a000007 	beq	4c64 <__code_start__-0x339c>
    4c44:	000000cc 	andeq	r0, r0, ip, asr #1
    4c48:	f01a0017 			; <UNDEFINED> instruction: 0xf01a0017
    4c4c:	db027005 	blle	a0c68 <__bss_end__+0x96630>
    4c50:	17000007 	strne	r0, [r0, -r7]
    4c54:	00000c6d 	andeq	r0, r0, sp, ror #24
    4c58:	db027305 	blle	a1874 <__bss_end__+0x9723c>
    4c5c:	00000007 	andeq	r0, r0, r7
    4c60:	000e7b17 	andeq	r7, lr, r7, lsl fp
    4c64:	02740500 	rsbseq	r0, r4, #0, 10
    4c68:	000007eb 	andeq	r0, r0, fp, ror #15
    4c6c:	db090078 	blle	244e54 <__bss_end__+0x23a81c>
    4c70:	eb000002 	bl	4c80 <__code_start__-0x3380>
    4c74:	0a000007 	beq	4c98 <__code_start__-0x3368>
    4c78:	000000cc 	andeq	r0, r0, ip, asr #1
    4c7c:	2c09001d 	stccs	0, cr0, [r9], {29}
    4c80:	fb000000 	blx	4c8a <__code_start__-0x3376>
    4c84:	0a000007 	beq	4ca8 <__code_start__-0x3358>
    4c88:	000000cc 	andeq	r0, r0, ip, asr #1
    4c8c:	f01b001d 			; <UNDEFINED> instruction: 0xf01b001d
    4c90:	1d025505 	cfstr32ne	mvfx5, [r2, #-20]	; 0xffffffec
    4c94:	1c000008 	stcne	0, cr0, [r0], {8}
    4c98:	00000d44 	andeq	r0, r0, r4, asr #26
    4c9c:	86026c05 	strhi	r6, [r2], -r5, lsl #24
    4ca0:	1c000006 	stcne	0, cr0, [r0], {6}
    4ca4:	00000ed7 	ldrdeq	r0, [r0], -r7
    4ca8:	b7027505 	strlt	r7, [r2, -r5, lsl #10]
    4cac:	00000007 	andeq	r0, r0, r7
    4cb0:	00011209 	andeq	r1, r1, r9, lsl #4
    4cb4:	00082d00 	andeq	r2, r8, r0, lsl #26
    4cb8:	00cc0a00 	sbceq	r0, ip, r0, lsl #20
    4cbc:	00180000 	andseq	r0, r8, r0
    4cc0:	0008381d 	andeq	r3, r8, sp, lsl r8
    4cc4:	04291500 	strteq	r1, [r9], #-1280	; 0x500
    4cc8:	0e000000 	cdpeq	0, 0, cr0, cr0, cr0, {0}
    4ccc:	00082d04 	andeq	r2, r8, r4, lsl #26
    4cd0:	7c040e00 	stcvc	14, cr0, [r4], {-0}
    4cd4:	1d000001 	stcne	0, cr0, [r0, #-4]
    4cd8:	0000084f 	andeq	r0, r0, pc, asr #16
    4cdc:	00002515 	andeq	r2, r0, r5, lsl r5
    4ce0:	040e0000 	streq	r0, [lr], #-0
    4ce4:	00000855 	andeq	r0, r0, r5, asr r8
    4ce8:	0844040e 	stmdaeq	r4, {r1, r2, r3, sl}^
    4cec:	f4090000 	vst4.8	{d0-d3}, [r9], r0
    4cf0:	6b000005 	blvs	4d0c <__code_start__-0x32f4>
    4cf4:	0a000008 	beq	4d1c <__code_start__-0x32e4>
    4cf8:	000000cc 	andeq	r0, r0, ip, asr #1
    4cfc:	2a1e0002 	bcs	784d0c <__bss_end__+0x77a6d4>
    4d00:	0500000e 	streq	r0, [r0, #-14]
    4d04:	042902fd 	strteq	r0, [r9], #-765	; 0x2fd
    4d08:	231e0000 	tstcs	lr, #0
    4d0c:	0500000e 	streq	r0, [r0, #-14]
    4d10:	042f02fe 	strteq	r0, [pc], #-766	; 4d18 <__code_start__-0x32e8>
    4d14:	25140000 	ldrcs	r0, [r4, #-0]
    4d18:	92000000 	andls	r0, r0, #0
    4d1c:	15000008 	strne	r0, [r0, #-8]
    4d20:	00000025 	andeq	r0, r0, r5, lsr #32
    4d24:	06241f00 	strteq	r1, [r4], -r0, lsl #30
    4d28:	1d060000 	stcne	0, cr0, [r6, #-0]
    4d2c:	0000089d 	muleq	r0, sp, r8
    4d30:	0883040e 	stmeq	r3, {r1, r2, r3, sl}
    4d34:	25140000 	ldrcs	r0, [r4, #-0]
    4d38:	b2000000 	andlt	r0, r0, #0
    4d3c:	15000008 	strne	r0, [r0, #-8]
    4d40:	0000058a 	andeq	r0, r0, sl, lsl #11
    4d44:	06611f00 	strbteq	r1, [r1], -r0, lsl #30
    4d48:	22060000 	andcs	r0, r6, #0
    4d4c:	000008bd 			; <UNDEFINED> instruction: 0x000008bd
    4d50:	08a3040e 	stmiaeq	r3!, {r1, r2, r3, sl}
    4d54:	01200000 	teqeq	r0, r0
    4d58:	00000054 	andeq	r0, r0, r4, asr r0
    4d5c:	09000c07 	stmdbeq	r0, {r0, r1, r2, sl, fp}
    4d60:	4d210000 	stcmi	0, cr0, [r1, #-0]
    4d64:	0000000a 	andeq	r0, r0, sl
    4d68:	000e6a21 	andeq	r6, lr, r1, lsr #20
    4d6c:	c2210100 	eorgt	r0, r1, #0, 2
    4d70:	0400000e 	streq	r0, [r0], #-14
    4d74:	000a8e21 	andeq	r8, sl, r1, lsr #28
    4d78:	25210500 	strcs	r0, [r1, #-1280]!	; 0x500
    4d7c:	0600000c 	streq	r0, [r0], -ip
    4d80:	000edf21 	andeq	sp, lr, r1, lsr #30
    4d84:	ee210700 	cdp	7, 2, cr0, cr1, cr0, {0}
    4d88:	0300000e 	movweq	r0, #14
    4d8c:	000efd21 	andeq	pc, lr, r1, lsr #26
    4d90:	05000200 	streq	r0, [r0, #-512]	; 0x200
    4d94:	00000fbc 			; <UNDEFINED> instruction: 0x00000fbc
    4d98:	08c31507 	stmiaeq	r3, {r0, r1, r2, r8, sl, ip}^
    4d9c:	8d220000 	stchi	0, cr0, [r2, #-0]
    4da0:	0100000f 	tsteq	r0, pc
    4da4:	0000331d 	andeq	r3, r0, sp, lsl r3
    4da8:	20001c00 	andcs	r1, r0, r0, lsl #24
    4dac:	0fc82220 	svceq	0x00c82220
    4db0:	1e010000 	cdpne	0, 0, cr0, cr1, cr0, {0}
    4db4:	00000033 	andeq	r0, r0, r3, lsr r0
    4db8:	20200028 	eorcs	r0, r0, r8, lsr #32
    4dbc:	000f9722 	andeq	r9, pc, r2, lsr #14
    4dc0:	331f0100 	tstcc	pc, #0, 2
    4dc4:	34000000 	strcc	r0, [r0], #-0
    4dc8:	23202000 	teqcs	r0, #0
    4dcc:	00000f68 	andeq	r0, r0, r8, ror #30
    4dd0:	00255601 	eoreq	r5, r5, r1, lsl #12
    4dd4:	9a040000 	bls	104ddc <__bss_end__+0xfa7a4>
    4dd8:	00340000 	eorseq	r0, r4, r0
    4ddc:	9c010000 	stcls	0, cr0, [r1], {-0}
    4de0:	00000998 	muleq	r0, r8, r9
    4de4:	6e697024 	cdpvs	0, 6, cr7, cr9, cr4, {1}
    4de8:	2c560100 	ldfcse	f0, [r6], {-0}
    4dec:	79000000 	stmdbvc	r0, {}	; <UNPREDICTABLE>
    4df0:	2500000f 	strcs	r0, [r0, #-15]
    4df4:	00000f5c 	andeq	r0, r0, ip, asr pc
    4df8:	002c5901 	eoreq	r5, ip, r1, lsl #18
    4dfc:	0fb30000 	svceq	0x00b30000
    4e00:	6f260000 	svcvs	0x00260000
    4e04:	01006666 	tsteq	r0, r6, ror #12
    4e08:	00002c5a 	andeq	r2, r0, sl, asr ip
    4e0c:	000ff100 	andeq	pc, pc, r0, lsl #2
    4e10:	9a202700 	bls	80ea18 <__bss_end__+0x8043e0>
    4e14:	0b5d0000 	bleq	1744e1c <__bss_end__+0x173a7e4>
    4e18:	01280000 	teqeq	r8, r0
    4e1c:	01f30b50 	mvnseq	r0, r0, asr fp
    4e20:	23253550 	teqcs	r5, #80, 10	; 0x14000000
    4e24:	818080b4 	strhhi	r8, [r0, r4]
    4e28:	29000002 	stmdbcs	r0, {r1}
    4e2c:	00000f82 	andeq	r0, r0, r2, lsl #31
    4e30:	99e84f01 	stmibls	r8!, {r0, r8, r9, sl, fp, lr}^
    4e34:	001c0000 	andseq	r0, ip, r0
    4e38:	9c010000 	stcls	0, cr0, [r1], {-0}
    4e3c:	000009e8 	andeq	r0, r0, r8, ror #19
    4e40:	6e697024 	cdpvs	0, 6, cr7, cr9, cr4, {1}
    4e44:	2c4f0100 	stfcse	f0, [pc], {-0}
    4e48:	04000000 	streq	r0, [r0], #-0
    4e4c:	24000010 	strcs	r0, [r0], #-16
    4e50:	4f010076 	svcmi	0x00010076
    4e54:	0000002c 	andeq	r0, r0, ip, lsr #32
    4e58:	0000103e 	andeq	r1, r0, lr, lsr r0
    4e5c:	0099f82a 	addseq	pc, r9, sl, lsr #16
    4e60:	000a2300 	andeq	r2, sl, r0, lsl #6
    4e64:	0009de00 	andeq	sp, r9, r0, lsl #28
    4e68:	50012800 	andpl	r2, r1, r0, lsl #16
    4e6c:	5001f303 	andpl	pc, r1, r3, lsl #6
    4e70:	9a002b00 	bls	fa78 <__bss_end__+0x5440>
    4e74:	0a640000 	beq	1904e7c <__bss_end__+0x18fa844>
    4e78:	29000000 	stmdbcs	r0, {}	; <UNPREDICTABLE>
    4e7c:	00000fa1 	andeq	r0, r0, r1, lsr #31
    4e80:	99d84a01 	ldmibls	r8, {r0, r9, fp, lr}^
    4e84:	00100000 	andseq	r0, r0, r0
    4e88:	9c010000 	stcls	0, cr0, [r1], {-0}
    4e8c:	00000a23 	andeq	r0, r0, r3, lsr #20
    4e90:	6e697024 	cdpvs	0, 6, cr7, cr9, cr4, {1}
    4e94:	2c4a0100 	stfcse	f0, [sl], {-0}
    4e98:	78000000 	stmdavc	r0, {}	; <UNPREDICTABLE>
    4e9c:	27000010 	smladcs	r0, r0, r0, r0
    4ea0:	000099e4 	andeq	r9, r0, r4, ror #19
    4ea4:	00000ae0 	andeq	r0, r0, r0, ror #21
    4ea8:	03500128 	cmpeq	r0, #40, 2
    4eac:	285001f3 	ldmdacs	r0, {r0, r1, r4, r5, r6, r7, r8}^
    4eb0:	30015101 	andcc	r5, r1, r1, lsl #2
    4eb4:	4f290000 	svcmi	0x00290000
    4eb8:	0100000f 	tsteq	r0, pc
    4ebc:	0099b443 	addseq	fp, r9, r3, asr #8
    4ec0:	00002400 	andeq	r2, r0, r0, lsl #8
    4ec4:	649c0100 	ldrvs	r0, [ip], #256	; 0x100
    4ec8:	2400000a 	strcs	r0, [r0], #-10
    4ecc:	006e6970 	rsbeq	r6, lr, r0, ror r9
    4ed0:	002c4301 	eoreq	r4, ip, r1, lsl #6
    4ed4:	10990000 	addsne	r0, r9, r0
    4ed8:	d0270000 	eorle	r0, r7, r0
    4edc:	68000099 	stmdavs	r0, {r0, r3, r4, r7}
    4ee0:	2800000b 	stmdacs	r0, {r0, r1, r3}
    4ee4:	0c055001 	stceq	0, cr5, [r5], {1}
    4ee8:	20200028 	eorcs	r0, r0, r8, lsr #32
    4eec:	05510128 	ldrbeq	r0, [r1, #-296]	; 0x128
    4ef0:	5001f331 	andpl	pc, r1, r1, lsr r3	; <UNPREDICTABLE>
    4ef4:	29000024 	stmdbcs	r0, {r2, r5}
    4ef8:	00000fb0 			; <UNDEFINED> instruction: 0x00000fb0
    4efc:	99903c01 	ldmibls	r0, {r0, sl, fp, ip, sp}
    4f00:	00240000 	eoreq	r0, r4, r0
    4f04:	9c010000 	stcls	0, cr0, [r1], {-0}
    4f08:	00000aa5 	andeq	r0, r0, r5, lsr #21
    4f0c:	6e697024 	cdpvs	0, 6, cr7, cr9, cr4, {1}
    4f10:	2c3c0100 	ldfcss	f0, [ip], #-0
    4f14:	ba000000 	blt	4f1c <__code_start__-0x30e4>
    4f18:	27000010 	smladcs	r0, r0, r0, r0
    4f1c:	000099ac 	andeq	r9, r0, ip, lsr #19
    4f20:	00000b68 	andeq	r0, r0, r8, ror #22
    4f24:	05500128 	ldrbeq	r0, [r0, #-296]	; 0x128
    4f28:	20001c0c 	andcs	r1, r0, ip, lsl #24
    4f2c:	51012820 	tstpl	r1, r0, lsr #16
    4f30:	01f33105 	mvnseq	r3, r5, lsl #2
    4f34:	00002450 	andeq	r2, r0, r0, asr r4
    4f38:	000f7229 	andeq	r7, pc, r9, lsr #4
    4f3c:	80370100 	eorshi	r0, r7, r0, lsl #2
    4f40:	10000099 	mulne	r0, r9, r0
    4f44:	01000000 	mrseq	r0, (UNDEF: 0)
    4f48:	000ae09c 	muleq	sl, ip, r0
    4f4c:	69702400 	ldmdbvs	r0!, {sl, sp}^
    4f50:	3701006e 	strcc	r0, [r1, -lr, rrx]
    4f54:	0000002c 	andeq	r0, r0, ip, lsr #32
    4f58:	000010db 	ldrdeq	r1, [r0], -fp
    4f5c:	00998c27 	addseq	r8, r9, r7, lsr #24
    4f60:	000ae000 	andeq	lr, sl, r0
    4f64:	50012800 	andpl	r2, r1, r0, lsl #16
    4f68:	5001f303 	andpl	pc, r1, r3, lsl #6
    4f6c:	01510128 	cmpeq	r1, r8, lsr #2
    4f70:	29000031 	stmdbcs	r0, {r0, r4, r5}
    4f74:	00000c5b 	andeq	r0, r0, fp, asr ip
    4f78:	99182801 	ldmdbls	r8, {r0, fp, sp}
    4f7c:	00680000 	rsbeq	r0, r8, r0
    4f80:	9c010000 	stcls	0, cr0, [r1], {-0}
    4f84:	00000b5d 	andeq	r0, r0, sp, asr fp
    4f88:	6e697024 	cdpvs	0, 6, cr7, cr9, cr4, {1}
    4f8c:	2c280100 	stfcss	f0, [r8], #-0
    4f90:	fc000000 	stc2	0, cr0, [r0], {-0}
    4f94:	2c000010 	stccs	0, cr0, [r0], {16}
    4f98:	00000ea7 	andeq	r0, r0, r7, lsr #29
    4f9c:	09002801 	stmdbeq	r0, {r0, fp, sp}
    4fa0:	111d0000 	tstne	sp, r0
    4fa4:	6f2d0000 	svcvs	0x002d0000
    4fa8:	01006666 	tsteq	r0, r6, ror #12
    4fac:	00002c2d 	andeq	r2, r0, sp, lsr #24
    4fb0:	2d540100 	ldfcse	f0, [r4, #-0]
    4fb4:	2f010067 	svccs	0x00010067
    4fb8:	0000002c 	andeq	r0, r0, ip, lsr #32
    4fbc:	76265601 	strtvc	r5, [r6], -r1, lsl #12
    4fc0:	2c310100 	ldfcss	f0, [r1], #-0
    4fc4:	3e000000 	cdpcc	0, 0, cr0, cr0, cr0, {0}
    4fc8:	2a000011 	bcs	5014 <__code_start__-0x2fec>
    4fcc:	00009964 	andeq	r9, r0, r4, ror #18
    4fd0:	00000b5d 	andeq	r0, r0, sp, asr fp
    4fd4:	00000b4c 	andeq	r0, r0, ip, asr #22
    4fd8:	02500128 	subseq	r0, r0, #40, 2
    4fdc:	27000076 	smlsdxcs	r0, r6, r0, r0
    4fe0:	00009978 	andeq	r9, r0, r8, ror r9
    4fe4:	00000b68 	andeq	r0, r0, r8, ror #22
    4fe8:	02500128 	subseq	r0, r0, #40, 2
    4fec:	00000076 	andeq	r0, r0, r6, ror r0
    4ff0:	0009c42e 	andeq	ip, r9, lr, lsr #8
    4ff4:	0009c400 	andeq	ip, r9, r0, lsl #8
    4ff8:	2ea70600 	cdpcs	6, 10, cr0, cr7, cr0, {0}
    4ffc:	000008fe 	strdeq	r0, [r0], -lr
    5000:	000008fe 	strdeq	r0, [r0], -lr
    5004:	Address 0x0000000000005004 is out of bounds.


Disassembly of section .debug_abbrev:

00000000 <.debug_abbrev>:
       0:	25011101 	strcs	r1, [r1, #-257]	; 0x101
       4:	030b130e 	movweq	r1, #45838	; 0xb30e
       8:	110e1b0e 	tstne	lr, lr, lsl #22
       c:	10061201 	andne	r1, r6, r1, lsl #4
      10:	02000017 	andeq	r0, r0, #23
      14:	0b0b0024 	bleq	2c00ac <__bss_end__+0x2b5a74>
      18:	08030b3e 	stmdaeq	r3, {r1, r2, r3, r4, r5, r8, r9, fp}
      1c:	24030000 	strcs	r0, [r3], #-0
      20:	3e0b0b00 	vmlacc.f64	d0, d11, d0
      24:	000e030b 	andeq	r0, lr, fp, lsl #6
      28:	00160400 	andseq	r0, r6, r0, lsl #8
      2c:	0b3a0e03 	bleq	e83840 <__bss_end__+0xe79208>
      30:	13490b3b 	movtne	r0, #39739	; 0x9b3b
      34:	0f050000 	svceq	0x00050000
      38:	490b0b00 	stmdbmi	fp, {r8, r9, fp}
      3c:	06000013 			; <UNDEFINED> instruction: 0x06000013
      40:	13490026 	movtne	r0, #36902	; 0x9026
      44:	01070000 	mrseq	r0, (UNDEF: 7)
      48:	01134901 	tsteq	r3, r1, lsl #18
      4c:	08000013 	stmdaeq	r0, {r0, r1, r4}
      50:	13490021 	movtne	r0, #36897	; 0x9021
      54:	00000b2f 	andeq	r0, r0, pc, lsr #22
      58:	03011309 	movweq	r1, #4873	; 0x1309
      5c:	3a0b0b0e 	bcc	2c2c9c <__bss_end__+0x2b8664>
      60:	010b3b0b 	tsteq	fp, fp, lsl #22
      64:	0a000013 	beq	b8 <__code_start__-0x7f48>
      68:	0e03000d 	cdpeq	0, 0, cr0, cr3, cr13, {0}
      6c:	0b3b0b3a 	bleq	ec2d5c <__bss_end__+0xeb8724>
      70:	0b381349 	bleq	e04d9c <__bss_end__+0xdfa764>
      74:	0d0b0000 	stceq	0, cr0, [fp, #-0]
      78:	3a080300 	bcc	200c80 <__bss_end__+0x1f6648>
      7c:	490b3b0b 	stmdbmi	fp, {r0, r1, r3, r8, r9, fp, ip, sp}
      80:	000b3813 	andeq	r3, fp, r3, lsl r8
      84:	00350c00 	eorseq	r0, r5, r0, lsl #24
      88:	150d0000 	strne	r0, [sp, #-0]
      8c:	01192701 	tsteq	r9, r1, lsl #14
      90:	0e000013 	mcreq	0, 0, r0, cr0, cr3, {0}
      94:	13490005 	movtne	r0, #36869	; 0x9005
      98:	150f0000 	strne	r0, [pc, #-0]	; a0 <__code_start__-0x7f60>
      9c:	49192701 	ldmdbmi	r9, {r0, r8, r9, sl, sp}
      a0:	00130113 	andseq	r0, r3, r3, lsl r1
      a4:	00351000 	eorseq	r1, r5, r0
      a8:	00001349 	andeq	r1, r0, r9, asr #6
      ac:	03012e11 	movweq	r2, #7697	; 0x1e11
      b0:	3b0b3a0e 	blcc	2ce8f0 <__bss_end__+0x2c42b8>
      b4:	2019270b 	andscs	r2, r9, fp, lsl #14
      b8:	0013010b 	andseq	r0, r3, fp, lsl #2
      bc:	00051200 	andeq	r1, r5, r0, lsl #4
      c0:	0b3a0803 	bleq	e820d4 <__bss_end__+0xe77a9c>
      c4:	13490b3b 	movtne	r0, #39739	; 0x9b3b
      c8:	2e130000 	cdpcs	0, 1, cr0, cr3, cr0, {0}
      cc:	3a0e0301 	bcc	380cd8 <__bss_end__+0x3766a0>
      d0:	270b3b0b 	strcs	r3, [fp, -fp, lsl #22]
      d4:	20134919 	andscs	r4, r3, r9, lsl r9
      d8:	0013010b 	andseq	r0, r3, fp, lsl #2
      dc:	002e1400 	eoreq	r1, lr, r0, lsl #8
      e0:	0e03193f 	mcreq	9, 0, r1, cr3, cr15, {1}
      e4:	0b3b0b3a 	bleq	ec2dd4 <__bss_end__+0xeb879c>
      e8:	13491927 	movtne	r1, #39207	; 0x9927
      ec:	00000b20 	andeq	r0, r0, r0, lsr #22
      f0:	03003415 	movweq	r3, #1045	; 0x415
      f4:	3413490e 	ldrcc	r4, [r3], #-2318	; 0x90e
      f8:	000e1c19 	andeq	r1, lr, r9, lsl ip
      fc:	012e1600 	teqeq	lr, r0, lsl #12
     100:	0b3a0e03 	bleq	e83914 <__bss_end__+0xe792dc>
     104:	19270b3b 	stmdbne	r7!, {r0, r1, r3, r4, r5, r8, r9, fp}
     108:	06120111 			; <UNDEFINED> instruction: 0x06120111
     10c:	42971840 	addsmi	r1, r7, #64, 16	; 0x400000
     110:	00130119 	andseq	r0, r3, r9, lsl r1
     114:	00051700 	andeq	r1, r5, r0, lsl #14
     118:	0b3a0803 	bleq	e8212c <__bss_end__+0xe77af4>
     11c:	13490b3b 	movtne	r0, #39739	; 0x9b3b
     120:	00001702 	andeq	r1, r0, r2, lsl #14
     124:	03003418 	movweq	r3, #1048	; 0x418
     128:	3413490e 	ldrcc	r4, [r3], #-2318	; 0x90e
     12c:	00180219 	andseq	r0, r8, r9, lsl r2
     130:	011d1900 	tsteq	sp, r0, lsl #18
     134:	01111331 	tsteq	r1, r1, lsr r3
     138:	0b580612 	bleq	1601988 <__bss_end__+0x15f7350>
     13c:	13010b59 	movwne	r0, #7001	; 0x1b59
     140:	051a0000 	ldreq	r0, [sl, #-0]
     144:	02133100 	andseq	r3, r3, #0, 2
     148:	1b000018 	blne	1b0 <__code_start__-0x7e50>
     14c:	0111010b 	tsteq	r1, fp, lsl #2
     150:	00000612 	andeq	r0, r0, r2, lsl r6
     154:	0182891c 	orreq	r8, r2, ip, lsl r9
     158:	31011101 	tstcc	r1, r1, lsl #2
     15c:	1d000013 	stcne	0, cr0, [r0, #-76]	; 0xffffffb4
     160:	0001828a 	andeq	r8, r1, sl, lsl #5
     164:	42911802 	addsmi	r1, r1, #131072	; 0x20000
     168:	1e000018 	mcrne	0, 0, r0, cr0, cr8, {0}
     16c:	13310034 	teqne	r1, #52	; 0x34
     170:	00001802 	andeq	r1, r0, r2, lsl #16
     174:	0182891f 	orreq	r8, r2, pc, lsl r9
     178:	31011100 	mrscc	r1, (UNDEF: 17)
     17c:	20000013 	andcs	r0, r0, r3, lsl r0
     180:	01018289 	smlabbeq	r1, r9, r2, r8
     184:	13310111 	teqne	r1, #1073741828	; 0x40000004
     188:	00001301 	andeq	r1, r0, r1, lsl #6
     18c:	03012e21 	movweq	r2, #7713	; 0x1e21
     190:	3b0b3a0e 	blcc	2ce9d0 <__bss_end__+0x2c4398>
     194:	4919270b 	ldmdbmi	r9, {r0, r1, r3, r8, r9, sl, sp}
     198:	12011113 	andne	r1, r1, #-1073741820	; 0xc0000004
     19c:	97184006 	ldrls	r4, [r8, -r6]
     1a0:	13011942 	movwne	r1, #6466	; 0x1942
     1a4:	1d220000 	stcne	0, cr0, [r2, #-0]
     1a8:	11133101 	tstne	r3, r1, lsl #2
     1ac:	58061201 	stmdapl	r6, {r0, r9, ip}
     1b0:	000b590b 	andeq	r5, fp, fp, lsl #18
     1b4:	00052300 	andeq	r2, r5, r0, lsl #6
     1b8:	17021331 	smladxne	r2, r1, r3, r1
     1bc:	05240000 	streq	r0, [r4, #-0]!
     1c0:	3a080300 	bcc	200dc8 <__bss_end__+0x1f6790>
     1c4:	490b3b0b 	stmdbmi	fp, {r0, r1, r3, r8, r9, fp, ip, sp}
     1c8:	00180213 	andseq	r0, r8, r3, lsl r2
     1cc:	002e2500 	eoreq	r2, lr, r0, lsl #10
     1d0:	0e03193f 	mcreq	9, 0, r1, cr3, cr15, {1}
     1d4:	0b3b0b3a 	bleq	ec2ec4 <__bss_end__+0xeb888c>
     1d8:	13491927 	movtne	r1, #39207	; 0x9927
     1dc:	06120111 			; <UNDEFINED> instruction: 0x06120111
     1e0:	42971840 	addsmi	r1, r7, #64, 16	; 0x400000
     1e4:	26000019 			; <UNDEFINED> instruction: 0x26000019
     1e8:	193f012e 	ldmdbne	pc!, {r1, r2, r3, r5, r8}	; <UNPREDICTABLE>
     1ec:	0b3a0e03 	bleq	e83a00 <__bss_end__+0xe793c8>
     1f0:	19270b3b 	stmdbne	r7!, {r0, r1, r3, r4, r5, r8, r9, fp}
     1f4:	06120111 			; <UNDEFINED> instruction: 0x06120111
     1f8:	42971840 	addsmi	r1, r7, #64, 16	; 0x400000
     1fc:	00130119 	andseq	r0, r3, r9, lsl r1
     200:	00342700 	eorseq	r2, r4, r0, lsl #14
     204:	0b3a0803 	bleq	e82218 <__bss_end__+0xe77be0>
     208:	13490b3b 	movtne	r0, #39739	; 0x9b3b
     20c:	00001802 	andeq	r1, r0, r2, lsl #16
     210:	03003428 	movweq	r3, #1064	; 0x428
     214:	3b0b3a08 	blcc	2cea3c <__bss_end__+0x2c4404>
     218:	0013490b 	andseq	r4, r3, fp, lsl #18
     21c:	00342900 	eorseq	r2, r4, r0, lsl #18
     220:	0b3a0e03 	bleq	e83a34 <__bss_end__+0xe793fc>
     224:	13490b3b 	movtne	r0, #39739	; 0x9b3b
     228:	193c193f 	ldmdbne	ip!, {r0, r1, r2, r3, r4, r5, r8, fp, ip}
     22c:	2e2a0000 	cdpcs	0, 2, cr0, cr10, cr0, {0}
     230:	03193f01 	tsteq	r9, #1, 30
     234:	3b0b3a0e 	blcc	2cea74 <__bss_end__+0x2c443c>
     238:	4919270b 	ldmdbmi	r9, {r0, r1, r3, r8, r9, sl, sp}
     23c:	01193c13 	tsteq	r9, r3, lsl ip
     240:	2b000013 	blcs	294 <__code_start__-0x7d6c>
     244:	193f002e 	ldmdbne	pc!, {r1, r2, r3, r5}	; <UNPREDICTABLE>
     248:	0b3a0e03 	bleq	e83a5c <__bss_end__+0xe79424>
     24c:	19270b3b 	stmdbne	r7!, {r0, r1, r3, r4, r5, r8, r9, fp}
     250:	0000193c 	andeq	r1, r0, ip, lsr r9
     254:	0000182c 	andeq	r1, r0, ip, lsr #16
     258:	012e2d00 	teqeq	lr, r0, lsl #26
     25c:	0e03193f 	mcreq	9, 0, r1, cr3, cr15, {1}
     260:	0b3b0b3a 	bleq	ec2f50 <__bss_end__+0xeb8918>
     264:	13491927 	movtne	r1, #39207	; 0x9927
     268:	0000193c 	andeq	r1, r0, ip, lsr r9
     26c:	01110100 	tsteq	r1, r0, lsl #2
     270:	0b130e25 	bleq	4c3b0c <__bss_end__+0x4b94d4>
     274:	0e1b0e03 	cdpeq	14, 1, cr0, cr11, cr3, {0}
     278:	06120111 			; <UNDEFINED> instruction: 0x06120111
     27c:	00001710 	andeq	r1, r0, r0, lsl r7
     280:	0b002402 	bleq	9290 <va_printk+0xf8>
     284:	030b3e0b 	movweq	r3, #48651	; 0xbe0b
     288:	03000008 	movweq	r0, #8
     28c:	0b0b0024 	bleq	2c0324 <__bss_end__+0x2b5cec>
     290:	0e030b3e 	vmoveq.16	d3[0], r0
     294:	16040000 	strne	r0, [r4], -r0
     298:	3a0e0300 	bcc	380ea0 <__bss_end__+0x376868>
     29c:	490b3b0b 	stmdbmi	fp, {r0, r1, r3, r8, r9, fp, ip, sp}
     2a0:	05000013 	streq	r0, [r0, #-19]
     2a4:	0b0b000f 	bleq	2c02e8 <__bss_end__+0x2b5cb0>
     2a8:	0f060000 	svceq	0x00060000
     2ac:	490b0b00 	stmdbmi	fp, {r8, r9, fp}
     2b0:	07000013 	smladeq	r0, r3, r0, r0
     2b4:	13490026 	movtne	r0, #36902	; 0x9026
     2b8:	15080000 	strne	r0, [r8, #-0]
     2bc:	01192701 	tsteq	r9, r1, lsl #14
     2c0:	09000013 	stmdbeq	r0, {r0, r1, r4}
     2c4:	13490005 	movtne	r0, #36869	; 0x9005
     2c8:	2e0a0000 	cdpcs	0, 0, cr0, cr10, cr0, {0}
     2cc:	3a0e0301 	bcc	380ed8 <__bss_end__+0x3768a0>
     2d0:	270b3b0b 	strcs	r3, [fp, -fp, lsl #22]
     2d4:	20134919 	andscs	r4, r3, r9, lsl r9
     2d8:	0013010b 	andseq	r0, r3, fp, lsl #2
     2dc:	00340b00 	eorseq	r0, r4, r0, lsl #22
     2e0:	0b3a0803 	bleq	e822f4 <__bss_end__+0xe77cbc>
     2e4:	13490b3b 	movtne	r0, #39739	; 0x9b3b
     2e8:	050c0000 	streq	r0, [ip, #-0]
     2ec:	3a080300 	bcc	200ef4 <__bss_end__+0x1f68bc>
     2f0:	490b3b0b 	stmdbmi	fp, {r0, r1, r3, r8, r9, fp, ip, sp}
     2f4:	0d000013 	stceq	0, cr0, [r0, #-76]	; 0xffffffb4
     2f8:	0e03012e 	adfeqsp	f0, f3, #0.5
     2fc:	0b3b0b3a 	bleq	ec2fec <__bss_end__+0xeb89b4>
     300:	0b201927 	bleq	8067a4 <__bss_end__+0x7fc16c>
     304:	00001301 	andeq	r1, r0, r1, lsl #6
     308:	0300340e 	movweq	r3, #1038	; 0x40e
     30c:	3b0b3a0e 	blcc	2ceb4c <__bss_end__+0x2c4514>
     310:	0013490b 	andseq	r4, r3, fp, lsl #18
     314:	012e0f00 	teqeq	lr, r0, lsl #30
     318:	0e03193f 	mcreq	9, 0, r1, cr3, cr15, {1}
     31c:	0b3b0b3a 	bleq	ec300c <__bss_end__+0xeb89d4>
     320:	01111927 	tsteq	r1, r7, lsr #18
     324:	18400612 	stmdane	r0, {r1, r4, r9, sl}^
     328:	01194297 			; <UNDEFINED> instruction: 0x01194297
     32c:	10000013 	andne	r0, r0, r3, lsl r0
     330:	0e030005 	cdpeq	0, 0, cr0, cr3, cr5, {0}
     334:	0b3b0b3a 	bleq	ec3024 <__bss_end__+0xeb89ec>
     338:	17021349 	strne	r1, [r2, -r9, asr #6]
     33c:	34110000 	ldrcc	r0, [r1], #-0
     340:	3a0e0300 	bcc	380f48 <__bss_end__+0x376910>
     344:	490b3b0b 	stmdbmi	fp, {r0, r1, r3, r8, r9, fp, ip, sp}
     348:	00170213 	andseq	r0, r7, r3, lsl r2
     34c:	00341200 	eorseq	r1, r4, r0, lsl #4
     350:	13490e03 	movtne	r0, #40451	; 0x9e03
     354:	18021934 	stmdane	r2, {r2, r4, r5, r8, fp, ip}
     358:	1d130000 	ldcne	0, cr0, [r3, #-0]
     35c:	11133101 	tstne	r3, r1, lsl #2
     360:	58061201 	stmdapl	r6, {r0, r9, ip}
     364:	010b590b 	tsteq	fp, fp, lsl #18
     368:	14000013 	strne	r0, [r0], #-19
     36c:	0111010b 	tsteq	r1, fp, lsl #2
     370:	00000612 	andeq	r0, r0, r2, lsl r6
     374:	31003415 	tstcc	r0, r5, lsl r4
     378:	00170213 	andseq	r0, r7, r3, lsl r2
     37c:	00051600 	andeq	r1, r5, r0, lsl #12
     380:	17021331 	smladxne	r2, r1, r3, r1
     384:	05170000 	ldreq	r0, [r7, #-0]
     388:	1c133100 	ldfnes	f3, [r3], {-0}
     38c:	18000005 	stmdane	r0, {r0, r2}
     390:	13310005 	teqne	r1, #5
     394:	00000b1c 	andeq	r0, r0, ip, lsl fp
     398:	01828919 	orreq	r8, r2, r9, lsl r9
     39c:	31011100 	mrscc	r1, (UNDEF: 17)
     3a0:	1a000013 	bne	3f4 <__code_start__-0x7c0c>
     3a4:	01018289 	smlabbeq	r1, r9, r2, r8
     3a8:	13310111 	teqne	r1, #1073741828	; 0x40000004
     3ac:	00001301 	andeq	r1, r0, r1, lsl #6
     3b0:	01828a1b 	orreq	r8, r2, fp, lsl sl
     3b4:	91180200 	tstls	r8, r0, lsl #4
     3b8:	00001842 	andeq	r1, r0, r2, asr #16
     3bc:	4901011c 	stmdbmi	r1, {r2, r3, r4, r8}
     3c0:	00130113 	andseq	r0, r3, r3, lsl r1
     3c4:	00211d00 	eoreq	r1, r1, r0, lsl #26
     3c8:	0b2f1349 	bleq	bc50f4 <__bss_end__+0xbbaabc>
     3cc:	341e0000 	ldrcc	r0, [lr], #-0
     3d0:	490e0300 	stmdbmi	lr, {r8, r9}
     3d4:	1c193413 	cfldrsne	mvf3, [r9], {19}
     3d8:	1f00000e 	svcne	0x0000000e
     3dc:	08030005 	stmdaeq	r3, {r0, r2}
     3e0:	0b3b0b3a 	bleq	ec30d0 <__bss_end__+0xeb8a98>
     3e4:	17021349 	strne	r1, [r2, -r9, asr #6]
     3e8:	34200000 	strtcc	r0, [r0], #-0
     3ec:	3a0e0300 	bcc	380ff4 <__bss_end__+0x3769bc>
     3f0:	490b3b0b 	stmdbmi	fp, {r0, r1, r3, r8, r9, fp, ip, sp}
     3f4:	00180213 	andseq	r0, r8, r3, lsl r2
     3f8:	00342100 	eorseq	r2, r4, r0, lsl #2
     3fc:	00001331 	andeq	r1, r0, r1, lsr r3
     400:	31011d22 	tstcc	r1, r2, lsr #26
     404:	12011113 	andne	r1, r1, #-1073741820	; 0xc0000004
     408:	590b5806 	stmdbpl	fp, {r1, r2, fp, ip, lr}
     40c:	2300000b 	movwcs	r0, #11
     410:	13310034 	teqne	r1, #52	; 0x34
     414:	00001802 	andeq	r1, r0, r2, lsl #16
     418:	01828924 	orreq	r8, r2, r4, lsr #18
     41c:	00011101 	andeq	r1, r1, r1, lsl #2
     420:	00342500 	eorseq	r2, r4, r0, lsl #10
     424:	0b3a0803 	bleq	e82438 <__bss_end__+0xe77e00>
     428:	13490b3b 	movtne	r0, #39739	; 0x9b3b
     42c:	0000051c 	andeq	r0, r0, ip, lsl r5
     430:	03000526 	movweq	r0, #1318	; 0x526
     434:	3b0b3a0e 	blcc	2cec74 <__bss_end__+0x2c463c>
     438:	0213490b 	andseq	r4, r3, #180224	; 0x2c000
     43c:	27000018 	smladcs	r0, r8, r0, r0
     440:	13310005 	teqne	r1, #5
     444:	00001802 	andeq	r1, r0, r2, lsl #16
     448:	03000528 	movweq	r0, #1320	; 0x528
     44c:	3b0b3a08 	blcc	2cec74 <__bss_end__+0x2c463c>
     450:	0213490b 	andseq	r4, r3, #180224	; 0x2c000
     454:	29000018 	stmdbcs	r0, {r3, r4}
     458:	13310005 	teqne	r1, #5
     45c:	0000061c 	andeq	r0, r0, ip, lsl r6
     460:	0300342a 	movweq	r3, #1066	; 0x42a
     464:	3b0b3a0e 	blcc	2ceca4 <__bss_end__+0x2c466c>
     468:	1c13490b 	ldcne	9, cr4, [r3], {11}
     46c:	2b000006 	blcs	48c <__code_start__-0x7b74>
     470:	1331011d 	teqne	r1, #1073741831	; 0x40000007
     474:	06120111 			; <UNDEFINED> instruction: 0x06120111
     478:	05590b58 	ldrbeq	r0, [r9, #-2904]	; 0xb58
     47c:	2e2c0000 	cdpcs	0, 2, cr0, cr12, cr0, {0}
     480:	03193f01 	tsteq	r9, #1, 30
     484:	3b0b3a0e 	blcc	2cecc4 <__bss_end__+0x2c468c>
     488:	49192705 	ldmdbmi	r9, {r0, r2, r8, r9, sl, sp}
     48c:	12011113 	andne	r1, r1, #-1073741820	; 0xc0000004
     490:	97184006 	ldrls	r4, [r8, -r6]
     494:	13011942 	movwne	r1, #6466	; 0x1942
     498:	052d0000 	streq	r0, [sp, #-0]!
     49c:	3a080300 	bcc	2010a4 <__bss_end__+0x1f6a6c>
     4a0:	49053b0b 	stmdbmi	r5, {r0, r1, r3, r8, r9, fp, ip, sp}
     4a4:	00170213 	andseq	r0, r7, r3, lsl r2
     4a8:	00342e00 	eorseq	r2, r4, r0, lsl #28
     4ac:	0b3a0e03 	bleq	e83cc0 <__bss_end__+0xe79688>
     4b0:	1349053b 	movtne	r0, #38203	; 0x953b
     4b4:	00001702 	andeq	r1, r0, r2, lsl #14
     4b8:	0182892f 	orreq	r8, r2, pc, lsr #18
     4bc:	31011101 	tstcc	r1, r1, lsl #2
     4c0:	30000013 	andcc	r0, r0, r3, lsl r0
     4c4:	0e030034 	mcreq	0, 0, r0, cr3, cr4, {1}
     4c8:	0b3b0b3a 	bleq	ec31b8 <__bss_end__+0xeb8b80>
     4cc:	193f1349 	ldmdbne	pc!, {r0, r3, r6, r8, r9, ip}	; <UNPREDICTABLE>
     4d0:	00001802 	andeq	r1, r0, r2, lsl #16
     4d4:	3f002e31 	svccc	0x00002e31
     4d8:	3a0e0319 	bcc	381144 <__bss_end__+0x376b0c>
     4dc:	270b3b0b 	strcs	r3, [fp, -fp, lsl #22]
     4e0:	00193c19 	andseq	r3, r9, r9, lsl ip
     4e4:	012e3200 	teqeq	lr, r0, lsl #4
     4e8:	0e03193f 	mcreq	9, 0, r1, cr3, cr15, {1}
     4ec:	0b3b0b3a 	bleq	ec31dc <__bss_end__+0xeb8ba4>
     4f0:	13491927 	movtne	r1, #39207	; 0x9927
     4f4:	1301193c 	movwne	r1, #6460	; 0x193c
     4f8:	18330000 	ldmdane	r3!, {}	; <UNPREDICTABLE>
     4fc:	00000000 	andeq	r0, r0, r0
     500:	25011101 	strcs	r1, [r1, #-257]	; 0x101
     504:	030b130e 	movweq	r1, #45838	; 0xb30e
     508:	110e1b0e 	tstne	lr, lr, lsl #22
     50c:	10061201 	andne	r1, r6, r1, lsl #4
     510:	02000017 	andeq	r0, r0, #23
     514:	0b0b0024 	bleq	2c05ac <__bss_end__+0x2b5f74>
     518:	08030b3e 	stmdaeq	r3, {r1, r2, r3, r4, r5, r8, r9, fp}
     51c:	24030000 	strcs	r0, [r3], #-0
     520:	3e0b0b00 	vmlacc.f64	d0, d11, d0
     524:	000e030b 	andeq	r0, lr, fp, lsl #6
     528:	00160400 	andseq	r0, r6, r0, lsl #8
     52c:	0b3a0e03 	bleq	e83d40 <__bss_end__+0xe79708>
     530:	13490b3b 	movtne	r0, #39739	; 0x9b3b
     534:	0f050000 	svceq	0x00050000
     538:	000b0b00 	andeq	r0, fp, r0, lsl #22
     53c:	000f0600 	andeq	r0, pc, r0, lsl #12
     540:	13490b0b 	movtne	r0, #39691	; 0x9b0b
     544:	26070000 	strcs	r0, [r7], -r0
     548:	00134900 	andseq	r4, r3, r0, lsl #18
     54c:	01150800 	tsteq	r5, r0, lsl #16
     550:	13011927 	movwne	r1, #6439	; 0x1927
     554:	05090000 	streq	r0, [r9, #-0]
     558:	00134900 	andseq	r4, r3, r0, lsl #18
     55c:	01130a00 	tsteq	r3, r0, lsl #20
     560:	0b0b0e03 	bleq	2c3d74 <__bss_end__+0x2b973c>
     564:	0b3b0b3a 	bleq	ec3254 <__bss_end__+0xeb8c1c>
     568:	00001301 	andeq	r1, r0, r1, lsl #6
     56c:	03000d0b 	movweq	r0, #3339	; 0xd0b
     570:	3b0b3a0e 	blcc	2cedb0 <__bss_end__+0x2c4778>
     574:	3813490b 	ldmdacc	r3, {r0, r1, r3, r8, fp, lr}
     578:	0c00000b 	stceq	0, cr0, [r0], {11}
     57c:	0803000d 	stmdaeq	r3, {r0, r2, r3}
     580:	0b3b0b3a 	bleq	ec3270 <__bss_end__+0xeb8c38>
     584:	0b381349 	bleq	e052b0 <__bss_end__+0xdfac78>
     588:	350d0000 	strcc	r0, [sp, #-0]
     58c:	0e000000 	cdpeq	0, 0, cr0, cr0, cr0, {0}
     590:	19270115 	stmdbne	r7!, {r0, r2, r4, r8}
     594:	13011349 	movwne	r1, #4937	; 0x1349
     598:	350f0000 	strcc	r0, [pc, #-0]	; 5a0 <__code_start__-0x7a60>
     59c:	00134900 	andseq	r4, r3, r0, lsl #18
     5a0:	012e1000 	teqeq	lr, r0
     5a4:	0b3a0e03 	bleq	e83db8 <__bss_end__+0xe79780>
     5a8:	19270b3b 	stmdbne	r7!, {r0, r1, r3, r4, r5, r8, r9, fp}
     5ac:	0b201349 	bleq	8052d8 <__bss_end__+0x7faca0>
     5b0:	00001301 	andeq	r1, r0, r1, lsl #6
     5b4:	03003411 	movweq	r3, #1041	; 0x411
     5b8:	3b0b3a08 	blcc	2cede0 <__bss_end__+0x2c47a8>
     5bc:	0013490b 	andseq	r4, r3, fp, lsl #18
     5c0:	00051200 	andeq	r1, r5, r0, lsl #4
     5c4:	0b3a0e03 	bleq	e83dd8 <__bss_end__+0xe797a0>
     5c8:	13490b3b 	movtne	r0, #39739	; 0x9b3b
     5cc:	34130000 	ldrcc	r0, [r3], #-0
     5d0:	3a0e0300 	bcc	3811d8 <__bss_end__+0x376ba0>
     5d4:	490b3b0b 	stmdbmi	fp, {r0, r1, r3, r8, r9, fp, ip, sp}
     5d8:	14000013 	strne	r0, [r0], #-19
     5dc:	0e03012e 	adfeqsp	f0, f3, #0.5
     5e0:	0b3b0b3a 	bleq	ec32d0 <__bss_end__+0xeb8c98>
     5e4:	01111927 	tsteq	r1, r7, lsr #18
     5e8:	18400612 	stmdane	r0, {r1, r4, r9, sl}^
     5ec:	01194297 			; <UNDEFINED> instruction: 0x01194297
     5f0:	15000013 	strne	r0, [r0, #-19]
     5f4:	0e030005 	cdpeq	0, 0, cr0, cr3, cr5, {0}
     5f8:	0b3b0b3a 	bleq	ec32e8 <__bss_end__+0xeb8cb0>
     5fc:	17021349 	strne	r1, [r2, -r9, asr #6]
     600:	05160000 	ldreq	r0, [r6, #-0]
     604:	3a080300 	bcc	20120c <__bss_end__+0x1f6bd4>
     608:	490b3b0b 	stmdbmi	fp, {r0, r1, r3, r8, r9, fp, ip, sp}
     60c:	00170213 	andseq	r0, r7, r3, lsl r2
     610:	00341700 	eorseq	r1, r4, r0, lsl #14
     614:	13490e03 	movtne	r0, #40451	; 0x9e03
     618:	18021934 	stmdane	r2, {r2, r4, r5, r8, fp, ip}
     61c:	34180000 	ldrcc	r0, [r8], #-0
     620:	3a080300 	bcc	201228 <__bss_end__+0x1f6bf0>
     624:	490b3b0b 	stmdbmi	fp, {r0, r1, r3, r8, r9, fp, ip, sp}
     628:	00170213 	andseq	r0, r7, r3, lsl r2
     62c:	011d1900 	tsteq	sp, r0, lsl #18
     630:	01111331 	tsteq	r1, r1, lsr r3
     634:	0b580612 	bleq	1601e84 <__bss_end__+0x15f784c>
     638:	13010b59 	movwne	r0, #7001	; 0x1b59
     63c:	0b1a0000 	bleq	680644 <__bss_end__+0x67600c>
     640:	12011101 	andne	r1, r1, #1073741824	; 0x40000000
     644:	1b000006 	blne	664 <__code_start__-0x799c>
     648:	13310034 	teqne	r1, #52	; 0x34
     64c:	1d1c0000 	ldcne	0, cr0, [ip, #-0]
     650:	11133101 	tstne	r3, r1, lsl #2
     654:	58061201 	stmdapl	r6, {r0, r9, ip}
     658:	000b590b 	andeq	r5, fp, fp, lsl #18
     65c:	00341d00 	eorseq	r1, r4, r0, lsl #26
     660:	17021331 	smladxne	r2, r1, r3, r1
     664:	891e0000 	ldmdbhi	lr, {}	; <UNPREDICTABLE>
     668:	11010182 	smlabbne	r1, r2, r1, r0
     66c:	01133101 	tsteq	r3, r1, lsl #2
     670:	1f000013 	svcne	0x00000013
     674:	0001828a 	andeq	r8, r1, sl, lsl #5
     678:	42911802 	addsmi	r1, r1, #131072	; 0x20000
     67c:	20000018 	andcs	r0, r0, r8, lsl r0
     680:	00018289 	andeq	r8, r1, r9, lsl #5
     684:	13310111 	teqne	r1, #1073741828	; 0x40000004
     688:	89210000 	stmdbhi	r1!, {}	; <UNPREDICTABLE>
     68c:	11010182 	smlabbne	r1, r2, r1, r0
     690:	00130101 	andseq	r0, r3, r1, lsl #2
     694:	82892200 	addhi	r2, r9, #0, 4
     698:	01110101 	tsteq	r1, r1, lsl #2
     69c:	00001331 	andeq	r1, r0, r1, lsr r3
     6a0:	49010123 	stmdbmi	r1, {r0, r1, r5, r8}
     6a4:	00130113 	andseq	r0, r3, r3, lsl r1
     6a8:	00212400 	eoreq	r2, r1, r0, lsl #8
     6ac:	0b2f1349 	bleq	bc53d8 <__bss_end__+0xbbada0>
     6b0:	34250000 	strtcc	r0, [r5], #-0
     6b4:	490e0300 	stmdbmi	lr, {r8, r9}
     6b8:	1c193413 	cfldrsne	mvf3, [r9], {19}
     6bc:	2600000e 	strcs	r0, [r0], -lr
     6c0:	08030005 	stmdaeq	r3, {r0, r2}
     6c4:	0b3b0b3a 	bleq	ec33b4 <__bss_end__+0xeb8d7c>
     6c8:	00001349 	andeq	r1, r0, r9, asr #6
     6cc:	03012e27 	movweq	r2, #7719	; 0x1e27
     6d0:	3b0b3a0e 	blcc	2cef10 <__bss_end__+0x2c48d8>
     6d4:	4919270b 	ldmdbmi	r9, {r0, r1, r3, r8, r9, sl, sp}
     6d8:	12011113 	andne	r1, r1, #-1073741820	; 0xc0000004
     6dc:	97184006 	ldrls	r4, [r8, -r6]
     6e0:	13011942 	movwne	r1, #6466	; 0x1942
     6e4:	34280000 	strtcc	r0, [r8], #-0
     6e8:	3a0e0300 	bcc	3812f0 <__bss_end__+0x376cb8>
     6ec:	490b3b0b 	stmdbmi	fp, {r0, r1, r3, r8, r9, fp, ip, sp}
     6f0:	00180213 	andseq	r0, r8, r3, lsl r2
     6f4:	00052900 	andeq	r2, r5, r0, lsl #18
     6f8:	0b1c1331 	bleq	7053c4 <__bss_end__+0x6fad8c>
     6fc:	052a0000 	streq	r0, [sl, #-0]!
     700:	02133100 	andseq	r3, r3, #0, 2
     704:	2b000017 	blcs	768 <__code_start__-0x7898>
     708:	13310034 	teqne	r1, #52	; 0x34
     70c:	00001802 	andeq	r1, r0, r2, lsl #16
     710:	3100342c 	tstcc	r0, ip, lsr #8
     714:	000b1c13 	andeq	r1, fp, r3, lsl ip
     718:	00052d00 	andeq	r2, r5, r0, lsl #26
     71c:	00001331 	andeq	r1, r0, r1, lsr r3
     720:	0300342e 	movweq	r3, #1070	; 0x42e
     724:	3413490e 	ldrcc	r4, [r3], #-2318	; 0x90e
     728:	2f000019 	svccs	0x00000019
     72c:	08030005 	stmdaeq	r3, {r0, r2}
     730:	0b3b0b3a 	bleq	ec3420 <__bss_end__+0xeb8de8>
     734:	18021349 	stmdane	r2, {r0, r3, r6, r8, r9, ip}
     738:	2e300000 	cdpcs	0, 3, cr0, cr0, cr0, {0}
     73c:	03193f01 	tsteq	r9, #1, 30
     740:	3b0b3a0e 	blcc	2cef80 <__bss_end__+0x2c4948>
     744:	4919270b 	ldmdbmi	r9, {r0, r1, r3, r8, r9, sl, sp}
     748:	12011113 	andne	r1, r1, #-1073741820	; 0xc0000004
     74c:	97184006 	ldrls	r4, [r8, -r6]
     750:	13011942 	movwne	r1, #6466	; 0x1942
     754:	34310000 	ldrtcc	r0, [r1], #-0
     758:	3a0e0300 	bcc	381360 <__bss_end__+0x376d28>
     75c:	490b3b0b 	stmdbmi	fp, {r0, r1, r3, r8, r9, fp, ip, sp}
     760:	3c193f13 	ldccc	15, cr3, [r9], {19}
     764:	32000019 	andcc	r0, r0, #25
     768:	193f012e 	ldmdbne	pc!, {r1, r2, r3, r5, r8}	; <UNPREDICTABLE>
     76c:	0b3a0e03 	bleq	e83f80 <__bss_end__+0xe79948>
     770:	19270b3b 	stmdbne	r7!, {r0, r1, r3, r4, r5, r8, r9, fp}
     774:	193c1349 	ldmdbne	ip!, {r0, r3, r6, r8, r9, ip}
     778:	00001301 	andeq	r1, r0, r1, lsl #6
     77c:	00001833 	andeq	r1, r0, r3, lsr r8
     780:	002e3400 	eoreq	r3, lr, r0, lsl #8
     784:	0e03193f 	mcreq	9, 0, r1, cr3, cr15, {1}
     788:	0b3b0b3a 	bleq	ec3478 <__bss_end__+0xeb8e40>
     78c:	193c1927 	ldmdbne	ip!, {r0, r1, r2, r5, r8, fp, ip}
     790:	2e350000 	cdpcs	0, 3, cr0, cr5, cr0, {0}
     794:	03193f01 	tsteq	r9, #1, 30
     798:	3b0b3a0e 	blcc	2cefd8 <__bss_end__+0x2c49a0>
     79c:	3c19270b 	ldccc	7, cr2, [r9], {11}
     7a0:	00130119 	andseq	r0, r3, r9, lsl r1
     7a4:	11010000 	mrsne	r0, (UNDEF: 1)
     7a8:	130e2501 	movwne	r2, #58625	; 0xe501
     7ac:	1b0e030b 	blne	3813e0 <__bss_end__+0x376da8>
     7b0:	1201110e 	andne	r1, r1, #-2147483645	; 0x80000003
     7b4:	00171006 	andseq	r1, r7, r6
     7b8:	00160200 	andseq	r0, r6, r0, lsl #4
     7bc:	0b3a0e03 	bleq	e83fd0 <__bss_end__+0xe79998>
     7c0:	13490b3b 	movtne	r0, #39739	; 0x9b3b
     7c4:	13030000 	movwne	r0, #12288	; 0x3000
     7c8:	0b0e0301 	bleq	3813d4 <__bss_end__+0x376d9c>
     7cc:	3b0b3a0b 	blcc	2cf000 <__bss_end__+0x2c49c8>
     7d0:	0013010b 	andseq	r0, r3, fp, lsl #2
     7d4:	000d0400 	andeq	r0, sp, r0, lsl #8
     7d8:	13490e03 	movtne	r0, #40451	; 0x9e03
     7dc:	19340b38 	ldmdbne	r4!, {r3, r4, r5, r8, r9, fp}
     7e0:	0f050000 	svceq	0x00050000
     7e4:	000b0b00 	andeq	r0, fp, r0, lsl #22
     7e8:	00240600 	eoreq	r0, r4, r0, lsl #12
     7ec:	0b3e0b0b 	bleq	f83420 <__bss_end__+0xf78de8>
     7f0:	00000803 	andeq	r0, r0, r3, lsl #16
     7f4:	0b002407 	bleq	9818 <uart_init+0x58>
     7f8:	030b3e0b 	movweq	r3, #48651	; 0xbe0b
     7fc:	0800000e 	stmdaeq	r0, {r1, r2, r3}
     800:	0b0b000f 	bleq	2c0844 <__bss_end__+0x2b620c>
     804:	00001349 	andeq	r1, r0, r9, asr #6
     808:	49002609 	stmdbmi	r0, {r0, r3, r9, sl, sp}
     80c:	0a000013 	beq	860 <__code_start__-0x77a0>
     810:	193f012e 	ldmdbne	pc!, {r1, r2, r3, r5, r8}	; <UNPREDICTABLE>
     814:	0b3a0e03 	bleq	e84028 <__bss_end__+0xe799f0>
     818:	19270b3b 	stmdbne	r7!, {r0, r1, r3, r4, r5, r8, r9, fp}
     81c:	01111349 	tsteq	r1, r9, asr #6
     820:	18400612 	stmdane	r0, {r1, r4, r9, sl}^
     824:	01194297 			; <UNDEFINED> instruction: 0x01194297
     828:	0b000013 	bleq	87c <__code_start__-0x7784>
     82c:	08030005 	stmdaeq	r3, {r0, r2}
     830:	0b3b0b3a 	bleq	ec3520 <__bss_end__+0xeb8ee8>
     834:	18021349 	stmdane	r2, {r0, r3, r6, r8, r9, ip}
     838:	180c0000 	stmdane	ip, {}	; <UNPREDICTABLE>
     83c:	0d000000 	stceq	0, cr0, [r0, #-0]
     840:	08030034 	stmdaeq	r3, {r2, r4, r5}
     844:	0b3b0b3a 	bleq	ec3534 <__bss_end__+0xeb8efc>
     848:	18021349 	stmdane	r2, {r0, r3, r6, r8, r9, ip}
     84c:	340e0000 	strcc	r0, [lr], #-0
     850:	3a0e0300 	bcc	381458 <__bss_end__+0x376e20>
     854:	490b3b0b 	stmdbmi	fp, {r0, r1, r3, r8, r9, fp, ip, sp}
     858:	00180213 	andseq	r0, r8, r3, lsl r2
     85c:	00340f00 	eorseq	r0, r4, r0, lsl #30
     860:	0b3a0803 	bleq	e82874 <__bss_end__+0xe7823c>
     864:	13490b3b 	movtne	r0, #39739	; 0x9b3b
     868:	00001702 	andeq	r1, r0, r2, lsl #14
     86c:	01828910 	orreq	r8, r2, r0, lsl r9
     870:	31011101 	tstcc	r1, r1, lsl #2
     874:	00130113 	andseq	r0, r3, r3, lsl r1
     878:	828a1100 	addhi	r1, sl, #0, 2
     87c:	18020001 	stmdane	r2, {r0}
     880:	00184291 	mulseq	r8, r1, r2
     884:	82891200 	addhi	r1, r9, #0, 4
     888:	01110101 	tsteq	r1, r1, lsl #2
     88c:	01130000 	tsteq	r3, r0
     890:	01134901 	tsteq	r3, r1, lsl #18
     894:	14000013 	strne	r0, [r0], #-19
     898:	13490021 	movtne	r0, #36897	; 0x9021
     89c:	0000052f 	andeq	r0, r0, pc, lsr #10
     8a0:	27011515 	smladcs	r1, r5, r5, r1
     8a4:	01134919 	tsteq	r3, r9, lsl r9
     8a8:	16000013 			; <UNDEFINED> instruction: 0x16000013
     8ac:	13490005 	movtne	r0, #36869	; 0x9005
     8b0:	34170000 	ldrcc	r0, [r7], #-0
     8b4:	3a0e0300 	bcc	3814bc <__bss_end__+0x376e84>
     8b8:	490b3b0b 	stmdbmi	fp, {r0, r1, r3, r8, r9, fp, ip, sp}
     8bc:	3c193f13 	ldccc	15, cr3, [r9], {19}
     8c0:	18000019 	stmdane	r0, {r0, r3, r4}
     8c4:	193f012e 	ldmdbne	pc!, {r1, r2, r3, r5, r8}	; <UNPREDICTABLE>
     8c8:	0b3a0e03 	bleq	e840dc <__bss_end__+0xe79aa4>
     8cc:	19270b3b 	stmdbne	r7!, {r0, r1, r3, r4, r5, r8, r9, fp}
     8d0:	193c1349 	ldmdbne	ip!, {r0, r3, r6, r8, r9, ip}
     8d4:	01000000 	mrseq	r0, (UNDEF: 0)
     8d8:	0e250111 	mcreq	1, 1, r0, cr5, cr1, {0}
     8dc:	0e030b13 	vmoveq.32	d3[0], r0
     8e0:	01110e1b 	tsteq	r1, fp, lsl lr
     8e4:	17100612 			; <UNDEFINED> instruction: 0x17100612
     8e8:	24020000 	strcs	r0, [r2], #-0
     8ec:	3e0b0b00 	vmlacc.f64	d0, d11, d0
     8f0:	0008030b 	andeq	r0, r8, fp, lsl #6
     8f4:	00240300 	eoreq	r0, r4, r0, lsl #6
     8f8:	0b3e0b0b 	bleq	f8352c <__bss_end__+0xf78ef4>
     8fc:	00000e03 	andeq	r0, r0, r3, lsl #28
     900:	03012e04 	movweq	r2, #7684	; 0x1e04
     904:	3b0b3a0e 	blcc	2cf144 <__bss_end__+0x2c4b0c>
     908:	4919270b 	ldmdbmi	r9, {r0, r1, r3, r8, r9, sl, sp}
     90c:	12011113 	andne	r1, r1, #-1073741820	; 0xc0000004
     910:	97184006 	ldrls	r4, [r8, -r6]
     914:	13011942 	movwne	r1, #6466	; 0x1942
     918:	05050000 	streq	r0, [r5, #-0]
     91c:	3a080300 	bcc	201524 <__bss_end__+0x1f6eec>
     920:	490b3b0b 	stmdbmi	fp, {r0, r1, r3, r8, r9, fp, ip, sp}
     924:	00170213 	andseq	r0, r7, r3, lsl r2
     928:	82890600 	addhi	r0, r9, #0, 12
     92c:	01110101 	tsteq	r1, r1, lsl #2
     930:	00001331 	andeq	r1, r0, r1, lsr r3
     934:	01828a07 	orreq	r8, r2, r7, lsl #20
     938:	91180200 	tstls	r8, r0, lsl #4
     93c:	00001842 	andeq	r1, r0, r2, asr #16
     940:	3f002e08 	svccc	0x00002e08
     944:	3a0e0319 	bcc	3815b0 <__bss_end__+0x376f78>
     948:	270b3b0b 	strcs	r3, [fp, -fp, lsl #22]
     94c:	12011119 	andne	r1, r1, #1073741830	; 0x40000006
     950:	97184006 	ldrls	r4, [r8, -r6]
     954:	00001942 	andeq	r1, r0, r2, asr #18
     958:	3f012e09 	svccc	0x00012e09
     95c:	3a0e0319 	bcc	3815c8 <__bss_end__+0x376f90>
     960:	270b3b0b 	strcs	r3, [fp, -fp, lsl #22]
     964:	12011119 	andne	r1, r1, #1073741830	; 0x40000006
     968:	97184006 	ldrls	r4, [r8, -r6]
     96c:	13011942 	movwne	r1, #6466	; 0x1942
     970:	050a0000 	streq	r0, [sl, #-0]
     974:	3a080300 	bcc	20157c <__bss_end__+0x1f6f44>
     978:	490b3b0b 	stmdbmi	fp, {r0, r1, r3, r8, r9, fp, ip, sp}
     97c:	00180213 	andseq	r0, r8, r3, lsl r2
     980:	01150b00 	tsteq	r5, r0, lsl #22
     984:	13491927 	movtne	r1, #39207	; 0x9927
     988:	00001301 	andeq	r1, r0, r1, lsl #6
     98c:	4900050c 	stmdbmi	r0, {r2, r3, r8, sl}
     990:	0d000013 	stceq	0, cr0, [r0, #-76]	; 0xffffffb4
     994:	0b0b000f 	bleq	2c09d8 <__bss_end__+0x2b63a0>
     998:	00001349 	andeq	r1, r0, r9, asr #6
     99c:	0300340e 	movweq	r3, #1038	; 0x40e
     9a0:	3b0b3a0e 	blcc	2cf1e0 <__bss_end__+0x2c4ba8>
     9a4:	3f13490b 	svccc	0x0013490b
     9a8:	00180219 	andseq	r0, r8, r9, lsl r2
     9ac:	012e0f00 	teqeq	lr, r0, lsl #30
     9b0:	0e03193f 	mcreq	9, 0, r1, cr3, cr15, {1}
     9b4:	0b3b0b3a 	bleq	ec36a4 <__bss_end__+0xeb906c>
     9b8:	193c1927 	ldmdbne	ip!, {r0, r1, r2, r5, r8, fp, ip}
     9bc:	01000000 	mrseq	r0, (UNDEF: 0)
     9c0:	0e250111 	mcreq	1, 1, r0, cr5, cr1, {0}
     9c4:	0e030b13 	vmoveq.32	d3[0], r0
     9c8:	01110e1b 	tsteq	r1, fp, lsl lr
     9cc:	17100612 			; <UNDEFINED> instruction: 0x17100612
     9d0:	24020000 	strcs	r0, [r2], #-0
     9d4:	3e0b0b00 	vmlacc.f64	d0, d11, d0
     9d8:	0008030b 	andeq	r0, r8, fp, lsl #6
     9dc:	00240300 	eoreq	r0, r4, r0, lsl #6
     9e0:	0b3e0b0b 	bleq	f83614 <__bss_end__+0xf78fdc>
     9e4:	00000e03 	andeq	r0, r0, r3, lsl #28
     9e8:	0b000f04 	bleq	4600 <__code_start__-0x3a00>
     9ec:	0013490b 	andseq	r4, r3, fp, lsl #18
     9f0:	00260500 	eoreq	r0, r6, r0, lsl #10
     9f4:	00001349 	andeq	r1, r0, r9, asr #6
     9f8:	3f012e06 	svccc	0x00012e06
     9fc:	3a0e0319 	bcc	381668 <__bss_end__+0x377030>
     a00:	270b3b0b 	strcs	r3, [fp, -fp, lsl #22]
     a04:	11134919 	tstne	r3, r9, lsl r9
     a08:	40061201 	andmi	r1, r6, r1, lsl #4
     a0c:	19429618 	stmdbne	r2, {r3, r4, r9, sl, ip, pc}^
     a10:	00001301 	andeq	r1, r0, r1, lsl #6
     a14:	03000507 	movweq	r0, #1287	; 0x507
     a18:	3b0b3a08 	blcc	2cf240 <__bss_end__+0x2c4c08>
     a1c:	0213490b 	andseq	r4, r3, #180224	; 0x2c000
     a20:	08000017 	stmdaeq	r0, {r0, r1, r2, r4}
     a24:	19270115 	stmdbne	r7!, {r0, r2, r4, r8}
     a28:	13011349 	movwne	r1, #4937	; 0x1349
     a2c:	05090000 	streq	r0, [r9, #-0]
     a30:	00134900 	andseq	r4, r3, r0, lsl #18
     a34:	00340a00 	eorseq	r0, r4, r0, lsl #20
     a38:	0b3a0e03 	bleq	e8424c <__bss_end__+0xe79c14>
     a3c:	13490b3b 	movtne	r0, #39739	; 0x9b3b
     a40:	193c193f 	ldmdbne	ip!, {r0, r1, r2, r3, r4, r5, r8, fp, ip}
     a44:	340b0000 	strcc	r0, [fp], #-0
     a48:	3a0e0300 	bcc	381650 <__bss_end__+0x377018>
     a4c:	490b3b0b 	stmdbmi	fp, {r0, r1, r3, r8, r9, fp, ip, sp}
     a50:	02193f13 	andseq	r3, r9, #19, 30	; 0x4c
     a54:	00000018 	andeq	r0, r0, r8, lsl r0
     a58:	25011101 	strcs	r1, [r1, #-257]	; 0x101
     a5c:	030b130e 	movweq	r1, #45838	; 0xb30e
     a60:	110e1b0e 	tstne	lr, lr, lsl #22
     a64:	10061201 	andne	r1, r6, r1, lsl #4
     a68:	02000017 	andeq	r0, r0, #23
     a6c:	0b0b0024 	bleq	2c0b04 <__bss_end__+0x2b64cc>
     a70:	08030b3e 	stmdaeq	r3, {r1, r2, r3, r4, r5, r8, r9, fp}
     a74:	24030000 	strcs	r0, [r3], #-0
     a78:	3e0b0b00 	vmlacc.f64	d0, d11, d0
     a7c:	000e030b 	andeq	r0, lr, fp, lsl #6
     a80:	000f0400 	andeq	r0, pc, r0, lsl #8
     a84:	00000b0b 	andeq	r0, r0, fp, lsl #22
     a88:	0b000f05 	bleq	46a4 <__code_start__-0x395c>
     a8c:	0013490b 	andseq	r4, r3, fp, lsl #18
     a90:	00260600 	eoreq	r0, r6, r0, lsl #12
     a94:	00001349 	andeq	r1, r0, r9, asr #6
     a98:	03001607 	movweq	r1, #1543	; 0x607
     a9c:	3b0b3a0e 	blcc	2cf2dc <__bss_end__+0x2c4ca4>
     aa0:	0013490b 	andseq	r4, r3, fp, lsl #18
     aa4:	01130800 	tsteq	r3, r0, lsl #16
     aa8:	0b0b0e03 	bleq	2c42bc <__bss_end__+0x2b9c84>
     aac:	0b3b0b3a 	bleq	ec379c <__bss_end__+0xeb9164>
     ab0:	00001301 	andeq	r1, r0, r1, lsl #6
     ab4:	03000d09 	movweq	r0, #3337	; 0xd09
     ab8:	3813490e 	ldmdacc	r3, {r1, r2, r3, r8, fp, lr}
     abc:	0019340b 	andseq	r3, r9, fp, lsl #8
     ac0:	012e0a00 	teqeq	lr, r0, lsl #20
     ac4:	0b3a0e03 	bleq	e842d8 <__bss_end__+0xe79ca0>
     ac8:	19270b3b 	stmdbne	r7!, {r0, r1, r3, r4, r5, r8, r9, fp}
     acc:	01111349 	tsteq	r1, r9, asr #6
     ad0:	18400612 	stmdane	r0, {r1, r4, r9, sl}^
     ad4:	01194297 			; <UNDEFINED> instruction: 0x01194297
     ad8:	0b000013 	bleq	b2c <__code_start__-0x74d4>
     adc:	08030005 	stmdaeq	r3, {r0, r2}
     ae0:	0b3b0b3a 	bleq	ec37d0 <__bss_end__+0xeb9198>
     ae4:	17021349 	strne	r1, [r2, -r9, asr #6]
     ae8:	2e0c0000 	cdpcs	0, 0, cr0, cr12, cr0, {0}
     aec:	3a080301 	bcc	2016f8 <__bss_end__+0x1f70c0>
     af0:	270b3b0b 	strcs	r3, [fp, -fp, lsl #22]
     af4:	11134919 	tstne	r3, r9, lsl r9
     af8:	40061201 	andmi	r1, r6, r1, lsl #4
     afc:	19429718 	stmdbne	r2, {r3, r4, r8, r9, sl, ip, pc}^
     b00:	00001301 	andeq	r1, r0, r1, lsl #6
     b04:	0300050d 	movweq	r0, #1293	; 0x50d
     b08:	3b0b3a0e 	blcc	2cf348 <__bss_end__+0x2c4d10>
     b0c:	0213490b 	andseq	r4, r3, #180224	; 0x2c000
     b10:	0e000017 	mcreq	0, 0, r0, cr0, cr7, {0}
     b14:	0e030005 	cdpeq	0, 0, cr0, cr3, cr5, {0}
     b18:	0b3b0b3a 	bleq	ec3808 <__bss_end__+0xeb91d0>
     b1c:	18021349 	stmdane	r2, {r0, r3, r6, r8, r9, ip}
     b20:	340f0000 	strcc	r0, [pc], #-0	; b28 <__code_start__-0x74d8>
     b24:	3a080300 	bcc	20172c <__bss_end__+0x1f70f4>
     b28:	490b3b0b 	stmdbmi	fp, {r0, r1, r3, r8, r9, fp, ip, sp}
     b2c:	00180213 	andseq	r0, r8, r3, lsl r2
     b30:	00341000 	eorseq	r1, r4, r0
     b34:	0b3a0803 	bleq	e82b48 <__bss_end__+0xe78510>
     b38:	13490b3b 	movtne	r0, #39739	; 0x9b3b
     b3c:	00001702 	andeq	r1, r0, r2, lsl #14
     b40:	03003411 	movweq	r3, #1041	; 0x411
     b44:	3413490e 	ldrcc	r4, [r3], #-2318	; 0x90e
     b48:	00180219 	andseq	r0, r8, r9, lsl r2
     b4c:	010b1200 	mrseq	r1, R11_fiq
     b50:	06120111 			; <UNDEFINED> instruction: 0x06120111
     b54:	00001301 	andeq	r1, r0, r1, lsl #6
     b58:	03003413 	movweq	r3, #1043	; 0x413
     b5c:	3b0b3a0e 	blcc	2cf39c <__bss_end__+0x2c4d64>
     b60:	0213490b 	andseq	r4, r3, #180224	; 0x2c000
     b64:	14000017 	strne	r0, [r0], #-23
     b68:	00018289 	andeq	r8, r1, r9, lsl #5
     b6c:	13310111 	teqne	r1, #1073741828	; 0x40000004
     b70:	89150000 	ldmdbhi	r5, {}	; <UNPREDICTABLE>
     b74:	11010182 	smlabbne	r1, r2, r1, r0
     b78:	01133101 	tsteq	r3, r1, lsl #2
     b7c:	16000013 			; <UNDEFINED> instruction: 0x16000013
     b80:	0001828a 	andeq	r8, r1, sl, lsl #5
     b84:	42911802 	addsmi	r1, r1, #131072	; 0x20000
     b88:	17000018 	smladne	r0, r8, r0, r0
     b8c:	01018289 	smlabbeq	r1, r9, r2, r8
     b90:	13310111 	teqne	r1, #1073741828	; 0x40000004
     b94:	01180000 	tsteq	r8, r0
     b98:	01134901 	tsteq	r3, r1, lsl #18
     b9c:	19000013 	stmdbne	r0, {r0, r1, r4}
     ba0:	13490021 	movtne	r0, #36897	; 0x9021
     ba4:	00000b2f 	andeq	r0, r0, pc, lsr #22
     ba8:	3f012e1a 	svccc	0x00012e1a
     bac:	3a0e0319 	bcc	381818 <__bss_end__+0x3771e0>
     bb0:	270b3b0b 	strcs	r3, [fp, -fp, lsl #22]
     bb4:	12011119 	andne	r1, r1, #1073741830	; 0x40000006
     bb8:	97184006 	ldrls	r4, [r8, -r6]
     bbc:	13011942 	movwne	r1, #6466	; 0x1942
     bc0:	151b0000 	ldrne	r0, [fp, #-0]
     bc4:	49192701 	ldmdbmi	r9, {r0, r8, r9, sl, sp}
     bc8:	00130113 	andseq	r0, r3, r3, lsl r1
     bcc:	00051c00 	andeq	r1, r5, r0, lsl #24
     bd0:	00001349 	andeq	r1, r0, r9, asr #6
     bd4:	3f012e1d 	svccc	0x00012e1d
     bd8:	3a0e0319 	bcc	381844 <__bss_end__+0x37720c>
     bdc:	270b3b0b 	strcs	r3, [fp, -fp, lsl #22]
     be0:	11134919 	tstne	r3, r9, lsl r9
     be4:	40061201 	andmi	r1, r6, r1, lsl #4
     be8:	19429718 	stmdbne	r2, {r3, r4, r8, r9, sl, ip, pc}^
     bec:	00001301 	andeq	r1, r0, r1, lsl #6
     bf0:	11010b1e 	tstne	r1, lr, lsl fp
     bf4:	00061201 	andeq	r1, r6, r1, lsl #4
     bf8:	82891f00 	addhi	r1, r9, #0, 30
     bfc:	01110101 	tsteq	r1, r1, lsl #2
     c00:	00001301 	andeq	r1, r0, r1, lsl #6
     c04:	03003420 	movweq	r3, #1056	; 0x420
     c08:	3b0b3a0e 	blcc	2cf448 <__bss_end__+0x2c4e10>
     c0c:	3f13490b 	svccc	0x0013490b
     c10:	00193c19 	andseq	r3, r9, r9, lsl ip
     c14:	002e2100 	eoreq	r2, lr, r0, lsl #2
     c18:	0e03193f 	mcreq	9, 0, r1, cr3, cr15, {1}
     c1c:	0b3b0b3a 	bleq	ec390c <__bss_end__+0xeb92d4>
     c20:	193c1927 	ldmdbne	ip!, {r0, r1, r2, r5, r8, fp, ip}
     c24:	2e220000 	cdpcs	0, 2, cr0, cr2, cr0, {0}
     c28:	03193f01 	tsteq	r9, #1, 30
     c2c:	3b0b3a0e 	blcc	2cf46c <__bss_end__+0x2c4e34>
     c30:	4919270b 	ldmdbmi	r9, {r0, r1, r3, r8, r9, sl, sp}
     c34:	01193c13 	tsteq	r9, r3, lsl ip
     c38:	23000013 	movwcs	r0, #19
     c3c:	00000018 	andeq	r0, r0, r8, lsl r0
     c40:	01110100 	tsteq	r1, r0, lsl #2
     c44:	0b130e25 	bleq	4c44e0 <__bss_end__+0x4b9ea8>
     c48:	0e1b0e03 	cdpeq	14, 1, cr0, cr11, cr3, {0}
     c4c:	06120111 			; <UNDEFINED> instruction: 0x06120111
     c50:	00001710 	andeq	r1, r0, r0, lsl r7
     c54:	0b002402 	bleq	9c64 <__FUNCTION__.4423+0xfc>
     c58:	030b3e0b 	movweq	r3, #48651	; 0xbe0b
     c5c:	03000008 	movweq	r0, #8
     c60:	0b0b0024 	bleq	2c0cf8 <__bss_end__+0x2b66c0>
     c64:	0e030b3e 	vmoveq.16	d3[0], r0
     c68:	2e040000 	cdpcs	0, 0, cr0, cr4, cr0, {0}
     c6c:	03193f01 	tsteq	r9, #1, 30
     c70:	3b0b3a0e 	blcc	2cf4b0 <__bss_end__+0x2c4e78>
     c74:	1119270b 	tstne	r9, fp, lsl #14
     c78:	40061201 	andmi	r1, r6, r1, lsl #4
     c7c:	19429718 	stmdbne	r2, {r3, r4, r8, r9, sl, ip, pc}^
     c80:	00001301 	andeq	r1, r0, r1, lsl #6
     c84:	03003405 	movweq	r3, #1029	; 0x405
     c88:	3b0b3a08 	blcc	2cf4b0 <__bss_end__+0x2c4e78>
     c8c:	0213490b 	andseq	r4, r3, #180224	; 0x2c000
     c90:	06000017 			; <UNDEFINED> instruction: 0x06000017
     c94:	193f012e 	ldmdbne	pc!, {r1, r2, r3, r5, r8}	; <UNPREDICTABLE>
     c98:	0b3a0e03 	bleq	e844ac <__bss_end__+0xe79e74>
     c9c:	19270b3b 	stmdbne	r7!, {r0, r1, r3, r4, r5, r8, r9, fp}
     ca0:	06120111 			; <UNDEFINED> instruction: 0x06120111
     ca4:	42971840 	addsmi	r1, r7, #64, 16	; 0x400000
     ca8:	00000019 	andeq	r0, r0, r9, lsl r0
     cac:	25011101 	strcs	r1, [r1, #-257]	; 0x101
     cb0:	030b130e 	movweq	r1, #45838	; 0xb30e
     cb4:	110e1b0e 	tstne	lr, lr, lsl #22
     cb8:	10061201 	andne	r1, r6, r1, lsl #4
     cbc:	02000017 	andeq	r0, r0, #23
     cc0:	0b0b0024 	bleq	2c0d58 <__bss_end__+0x2b6720>
     cc4:	08030b3e 	stmdaeq	r3, {r1, r2, r3, r4, r5, r8, r9, fp}
     cc8:	24030000 	strcs	r0, [r3], #-0
     ccc:	3e0b0b00 	vmlacc.f64	d0, d11, d0
     cd0:	000e030b 	andeq	r0, lr, fp, lsl #6
     cd4:	000f0400 	andeq	r0, pc, r0, lsl #8
     cd8:	13490b0b 	movtne	r0, #39691	; 0x9b0b
     cdc:	26050000 	strcs	r0, [r5], -r0
     ce0:	00134900 	andseq	r4, r3, r0, lsl #18
     ce4:	012e0600 	teqeq	lr, r0, lsl #12
     ce8:	0e03193f 	mcreq	9, 0, r1, cr3, cr15, {1}
     cec:	0b3b0b3a 	bleq	ec39dc <__bss_end__+0xeb93a4>
     cf0:	01111927 	tsteq	r1, r7, lsr #18
     cf4:	18400612 	stmdane	r0, {r1, r4, r9, sl}^
     cf8:	01194297 			; <UNDEFINED> instruction: 0x01194297
     cfc:	07000013 	smladeq	r0, r3, r0, r0
     d00:	00018289 	andeq	r8, r1, r9, lsl #5
     d04:	13310111 	teqne	r1, #1073741828	; 0x40000004
     d08:	89080000 	stmdbhi	r8, {}	; <UNPREDICTABLE>
     d0c:	11010182 	smlabbne	r1, r2, r1, r0
     d10:	00130101 	andseq	r0, r3, r1, lsl #2
     d14:	828a0900 	addhi	r0, sl, #0, 18
     d18:	18020001 	stmdane	r2, {r0}
     d1c:	00184291 	mulseq	r8, r1, r2
     d20:	82890a00 	addhi	r0, r9, #0, 20
     d24:	01110101 	tsteq	r1, r1, lsl #2
     d28:	13011331 	movwne	r1, #4913	; 0x1331
     d2c:	150b0000 	strne	r0, [fp, #-0]
     d30:	49192701 	ldmdbmi	r9, {r0, r8, r9, sl, sp}
     d34:	00130113 	andseq	r0, r3, r3, lsl r1
     d38:	00050c00 	andeq	r0, r5, r0, lsl #24
     d3c:	00001349 	andeq	r1, r0, r9, asr #6
     d40:	0300340d 	movweq	r3, #1037	; 0x40d
     d44:	3b0b3a0e 	blcc	2cf584 <__bss_end__+0x2c4f4c>
     d48:	3f13490b 	svccc	0x0013490b
     d4c:	00193c19 	andseq	r3, r9, r9, lsl ip
     d50:	002e0e00 	eoreq	r0, lr, r0, lsl #28
     d54:	0e03193f 	mcreq	9, 0, r1, cr3, cr15, {1}
     d58:	0b3b0b3a 	bleq	ec3a48 <__bss_end__+0xeb9410>
     d5c:	193c1927 	ldmdbne	ip!, {r0, r1, r2, r5, r8, fp, ip}
     d60:	2e0f0000 	cdpcs	0, 0, cr0, cr15, cr0, {0}
     d64:	03193f01 	tsteq	r9, #1, 30
     d68:	3b0b3a0e 	blcc	2cf5a8 <__bss_end__+0x2c4f70>
     d6c:	3c19270b 	ldccc	7, cr2, [r9], {11}
     d70:	00130119 	andseq	r0, r3, r9, lsl r1
     d74:	11010000 	mrsne	r0, (UNDEF: 1)
     d78:	130e2501 	movwne	r2, #58625	; 0xe501
     d7c:	1b0e030b 	blne	3819b0 <__bss_end__+0x377378>
     d80:	1201110e 	andne	r1, r1, #-2147483645	; 0x80000003
     d84:	00171006 	andseq	r1, r7, r6
     d88:	00240200 	eoreq	r0, r4, r0, lsl #4
     d8c:	0b3e0b0b 	bleq	f839c0 <__bss_end__+0xf79388>
     d90:	00000803 	andeq	r0, r0, r3, lsl #16
     d94:	0b002403 	bleq	9da8 <__FUNCTION__.4451+0xc0>
     d98:	030b3e0b 	movweq	r3, #48651	; 0xbe0b
     d9c:	0400000e 	streq	r0, [r0], #-14
     da0:	193f012e 	ldmdbne	pc!, {r1, r2, r3, r5, r8}	; <UNPREDICTABLE>
     da4:	0b3a0e03 	bleq	e845b8 <__bss_end__+0xe79f80>
     da8:	01110b3b 	tsteq	r1, fp, lsr fp
     dac:	18400612 	stmdane	r0, {r1, r4, r9, sl}^
     db0:	01194297 			; <UNDEFINED> instruction: 0x01194297
     db4:	05000013 	streq	r0, [r0, #-19]
     db8:	0e030034 	mcreq	0, 0, r0, cr3, cr4, {1}
     dbc:	0b3b0b3a 	bleq	ec3aac <__bss_end__+0xeb9474>
     dc0:	193f1349 	ldmdbne	pc!, {r0, r3, r6, r8, r9, ip}	; <UNPREDICTABLE>
     dc4:	0000193c 	andeq	r1, r0, ip, lsr r9
     dc8:	3f002e06 	svccc	0x00002e06
     dcc:	3a0e0319 	bcc	381a38 <__bss_end__+0x377400>
     dd0:	270b3b0b 	strcs	r3, [fp, -fp, lsl #22]
     dd4:	00193c19 	andseq	r3, r9, r9, lsl ip
     dd8:	00340700 	eorseq	r0, r4, r0, lsl #14
     ddc:	0b3a0803 	bleq	e82df0 <__bss_end__+0xe787b8>
     de0:	13490b3b 	movtne	r0, #39739	; 0x9b3b
     de4:	00001702 	andeq	r1, r0, r2, lsl #14
     de8:	03003408 	movweq	r3, #1032	; 0x408
     dec:	3b0b3a0e 	blcc	2cf62c <__bss_end__+0x2c4ff4>
     df0:	0013490b 	andseq	r4, r3, fp, lsl #18
     df4:	82890900 	addhi	r0, r9, #0, 18
     df8:	01110001 	tsteq	r1, r1
     dfc:	00001331 	andeq	r1, r0, r1, lsr r3
     e00:	0b000f0a 	bleq	4a30 <__code_start__-0x35d0>
     e04:	0013490b 	andseq	r4, r3, fp, lsl #18
     e08:	11010000 	mrsne	r0, (UNDEF: 1)
     e0c:	130e2501 	movwne	r2, #58625	; 0xe501
     e10:	1b0e030b 	blne	381a44 <__bss_end__+0x37740c>
     e14:	1201110e 	andne	r1, r1, #-2147483645	; 0x80000003
     e18:	00171006 	andseq	r1, r7, r6
     e1c:	00240200 	eoreq	r0, r4, r0, lsl #4
     e20:	0b3e0b0b 	bleq	f83a54 <__bss_end__+0xf7941c>
     e24:	00000803 	andeq	r0, r0, r3, lsl #16
     e28:	0b002403 	bleq	9e3c <__FUNCTION__.4451+0x154>
     e2c:	030b3e0b 	movweq	r3, #48651	; 0xbe0b
     e30:	0400000e 	streq	r0, [r0], #-14
     e34:	0b0b000f 	bleq	2c0e78 <__bss_end__+0x2b6840>
     e38:	00001349 	andeq	r1, r0, r9, asr #6
     e3c:	49002605 	stmdbmi	r0, {r0, r2, r9, sl, sp}
     e40:	06000013 			; <UNDEFINED> instruction: 0x06000013
     e44:	193f012e 	ldmdbne	pc!, {r1, r2, r3, r5, r8}	; <UNPREDICTABLE>
     e48:	0b3a0e03 	bleq	e8465c <__bss_end__+0xe7a024>
     e4c:	19270b3b 	stmdbne	r7!, {r0, r1, r3, r4, r5, r8, r9, fp}
     e50:	06120111 			; <UNDEFINED> instruction: 0x06120111
     e54:	42971840 	addsmi	r1, r7, #64, 16	; 0x400000
     e58:	00130119 	andseq	r0, r3, r9, lsl r1
     e5c:	00050700 	andeq	r0, r5, r0, lsl #14
     e60:	0b3a0803 	bleq	e82e74 <__bss_end__+0xe7883c>
     e64:	13490b3b 	movtne	r0, #39739	; 0x9b3b
     e68:	00001702 	andeq	r1, r0, r2, lsl #14
     e6c:	03003408 	movweq	r3, #1032	; 0x408
     e70:	3413490e 	ldrcc	r4, [r3], #-2318	; 0x90e
     e74:	00180219 	andseq	r0, r8, r9, lsl r2
     e78:	82890900 	addhi	r0, r9, #0, 18
     e7c:	01110001 	tsteq	r1, r1
     e80:	00001331 	andeq	r1, r0, r1, lsr r3
     e84:	0182890a 	orreq	r8, r2, sl, lsl #18
     e88:	31011101 	tstcc	r1, r1, lsl #2
     e8c:	00130113 	andseq	r0, r3, r3, lsl r1
     e90:	828a0b00 	addhi	r0, sl, #0, 22
     e94:	18020001 	stmdane	r2, {r0}
     e98:	00184291 	mulseq	r8, r1, r2
     e9c:	01010c00 	tsteq	r1, r0, lsl #24
     ea0:	13011349 	movwne	r1, #4937	; 0x1349
     ea4:	210d0000 	mrscs	r0, (UNDEF: 13)
     ea8:	2f134900 	svccs	0x00134900
     eac:	0e00000b 	cdpeq	0, 0, cr0, cr0, cr11, {0}
     eb0:	193f002e 	ldmdbne	pc!, {r1, r2, r3, r5}	; <UNPREDICTABLE>
     eb4:	0b3a0e03 	bleq	e846c8 <__bss_end__+0xe7a090>
     eb8:	19270b3b 	stmdbne	r7!, {r0, r1, r3, r4, r5, r8, r9, fp}
     ebc:	0000193c 	andeq	r1, r0, ip, lsr r9
     ec0:	3f012e0f 	svccc	0x00012e0f
     ec4:	3a0e0319 	bcc	381b30 <__bss_end__+0x3774f8>
     ec8:	270b3b0b 	strcs	r3, [fp, -fp, lsl #22]
     ecc:	3c134919 	ldccc	9, cr4, [r3], {25}
     ed0:	00130119 	andseq	r0, r3, r9, lsl r1
     ed4:	00051000 	andeq	r1, r5, r0
     ed8:	00001349 	andeq	r1, r0, r9, asr #6
     edc:	00001811 	andeq	r1, r0, r1, lsl r8
     ee0:	11010000 	mrsne	r0, (UNDEF: 1)
     ee4:	130e2501 	movwne	r2, #58625	; 0xe501
     ee8:	1b0e030b 	blne	381b1c <__bss_end__+0x3774e4>
     eec:	1201110e 	andne	r1, r1, #-2147483645	; 0x80000003
     ef0:	00171006 	andseq	r1, r7, r6
     ef4:	00240200 	eoreq	r0, r4, r0, lsl #4
     ef8:	0b3e0b0b 	bleq	f83b2c <__bss_end__+0xf794f4>
     efc:	00000803 	andeq	r0, r0, r3, lsl #16
     f00:	0b002403 	bleq	9f14 <__FUNCTION__.4451+0x22c>
     f04:	030b3e0b 	movweq	r3, #48651	; 0xbe0b
     f08:	0400000e 	streq	r0, [r0], #-14
     f0c:	0b0b000f 	bleq	2c0f50 <__bss_end__+0x2b6918>
     f10:	00001349 	andeq	r1, r0, r9, asr #6
     f14:	49002605 	stmdbmi	r0, {r0, r2, r9, sl, sp}
     f18:	06000013 			; <UNDEFINED> instruction: 0x06000013
     f1c:	193f012e 	ldmdbne	pc!, {r1, r2, r3, r5, r8}	; <UNPREDICTABLE>
     f20:	0b3a0e03 	bleq	e84734 <__bss_end__+0xe7a0fc>
     f24:	19270b3b 	stmdbne	r7!, {r0, r1, r3, r4, r5, r8, r9, fp}
     f28:	06120111 			; <UNDEFINED> instruction: 0x06120111
     f2c:	42971840 	addsmi	r1, r7, #64, 16	; 0x400000
     f30:	00130119 	andseq	r0, r3, r9, lsl r1
     f34:	00050700 	andeq	r0, r5, r0, lsl #14
     f38:	0b3a0803 	bleq	e82f4c <__bss_end__+0xe78914>
     f3c:	13490b3b 	movtne	r0, #39739	; 0x9b3b
     f40:	00001702 	andeq	r1, r0, r2, lsl #14
     f44:	03003408 	movweq	r3, #1032	; 0x408
     f48:	3413490e 	ldrcc	r4, [r3], #-2318	; 0x90e
     f4c:	00180219 	andseq	r0, r8, r9, lsl r2
     f50:	82890900 	addhi	r0, r9, #0, 18
     f54:	01110001 	tsteq	r1, r1
     f58:	00001331 	andeq	r1, r0, r1, lsr r3
     f5c:	0182890a 	orreq	r8, r2, sl, lsl #18
     f60:	31011101 	tstcc	r1, r1, lsl #2
     f64:	00130113 	andseq	r0, r3, r3, lsl r1
     f68:	828a0b00 	addhi	r0, sl, #0, 22
     f6c:	18020001 	stmdane	r2, {r0}
     f70:	00184291 	mulseq	r8, r1, r2
     f74:	01010c00 	tsteq	r1, r0, lsl #24
     f78:	13011349 	movwne	r1, #4937	; 0x1349
     f7c:	210d0000 	mrscs	r0, (UNDEF: 13)
     f80:	2f134900 	svccs	0x00134900
     f84:	0e00000b 	cdpeq	0, 0, cr0, cr0, cr11, {0}
     f88:	193f002e 	ldmdbne	pc!, {r1, r2, r3, r5}	; <UNPREDICTABLE>
     f8c:	0b3a0e03 	bleq	e847a0 <__bss_end__+0xe7a168>
     f90:	19270b3b 	stmdbne	r7!, {r0, r1, r3, r4, r5, r8, r9, fp}
     f94:	0000193c 	andeq	r1, r0, ip, lsr r9
     f98:	3f012e0f 	svccc	0x00012e0f
     f9c:	3a0e0319 	bcc	381c08 <__bss_end__+0x3775d0>
     fa0:	270b3b0b 	strcs	r3, [fp, -fp, lsl #22]
     fa4:	3c134919 	ldccc	9, cr4, [r3], {25}
     fa8:	00130119 	andseq	r0, r3, r9, lsl r1
     fac:	00051000 	andeq	r1, r5, r0
     fb0:	00001349 	andeq	r1, r0, r9, asr #6
     fb4:	00001811 	andeq	r1, r0, r1, lsl r8
     fb8:	11010000 	mrsne	r0, (UNDEF: 1)
     fbc:	130e2501 	movwne	r2, #58625	; 0xe501
     fc0:	1b0e030b 	blne	381bf4 <__bss_end__+0x3775bc>
     fc4:	1201110e 	andne	r1, r1, #-2147483645	; 0x80000003
     fc8:	00171006 	andseq	r1, r7, r6
     fcc:	00240200 	eoreq	r0, r4, r0, lsl #4
     fd0:	0b3e0b0b 	bleq	f83c04 <__bss_end__+0xf795cc>
     fd4:	00000803 	andeq	r0, r0, r3, lsl #16
     fd8:	0b002403 	bleq	9fec <__FUNCTION__.4392+0x4>
     fdc:	030b3e0b 	movweq	r3, #48651	; 0xbe0b
     fe0:	0400000e 	streq	r0, [r0], #-14
     fe4:	0b0b000f 	bleq	2c1028 <__bss_end__+0x2b69f0>
     fe8:	00001349 	andeq	r1, r0, r9, asr #6
     fec:	49002605 	stmdbmi	r0, {r0, r2, r9, sl, sp}
     ff0:	06000013 			; <UNDEFINED> instruction: 0x06000013
     ff4:	193f012e 	ldmdbne	pc!, {r1, r2, r3, r5, r8}	; <UNPREDICTABLE>
     ff8:	0b3a0e03 	bleq	e8480c <__bss_end__+0xe7a1d4>
     ffc:	19270b3b 	stmdbne	r7!, {r0, r1, r3, r4, r5, r8, r9, fp}
    1000:	06120111 			; <UNDEFINED> instruction: 0x06120111
    1004:	42971840 	addsmi	r1, r7, #64, 16	; 0x400000
    1008:	00130119 	andseq	r0, r3, r9, lsl r1
    100c:	00050700 	andeq	r0, r5, r0, lsl #14
    1010:	0b3a0803 	bleq	e83024 <__bss_end__+0xe789ec>
    1014:	13490b3b 	movtne	r0, #39739	; 0x9b3b
    1018:	00001702 	andeq	r1, r0, r2, lsl #14
    101c:	03003408 	movweq	r3, #1032	; 0x408
    1020:	3413490e 	ldrcc	r4, [r3], #-2318	; 0x90e
    1024:	00180219 	andseq	r0, r8, r9, lsl r2
    1028:	82890900 	addhi	r0, r9, #0, 18
    102c:	01110001 	tsteq	r1, r1
    1030:	00001331 	andeq	r1, r0, r1, lsr r3
    1034:	0182890a 	orreq	r8, r2, sl, lsl #18
    1038:	31011101 	tstcc	r1, r1, lsl #2
    103c:	00130113 	andseq	r0, r3, r3, lsl r1
    1040:	828a0b00 	addhi	r0, sl, #0, 22
    1044:	18020001 	stmdane	r2, {r0}
    1048:	00184291 	mulseq	r8, r1, r2
    104c:	01010c00 	tsteq	r1, r0, lsl #24
    1050:	13011349 	movwne	r1, #4937	; 0x1349
    1054:	210d0000 	mrscs	r0, (UNDEF: 13)
    1058:	2f134900 	svccs	0x00134900
    105c:	0e00000b 	cdpeq	0, 0, cr0, cr0, cr11, {0}
    1060:	193f002e 	ldmdbne	pc!, {r1, r2, r3, r5}	; <UNPREDICTABLE>
    1064:	0b3a0e03 	bleq	e84878 <__bss_end__+0xe7a240>
    1068:	19270b3b 	stmdbne	r7!, {r0, r1, r3, r4, r5, r8, r9, fp}
    106c:	0000193c 	andeq	r1, r0, ip, lsr r9
    1070:	3f012e0f 	svccc	0x00012e0f
    1074:	3a0e0319 	bcc	381ce0 <__bss_end__+0x3776a8>
    1078:	270b3b0b 	strcs	r3, [fp, -fp, lsl #22]
    107c:	3c134919 	ldccc	9, cr4, [r3], {25}
    1080:	00130119 	andseq	r0, r3, r9, lsl r1
    1084:	00051000 	andeq	r1, r5, r0
    1088:	00001349 	andeq	r1, r0, r9, asr #6
    108c:	00001811 	andeq	r1, r0, r1, lsl r8
    1090:	11010000 	mrsne	r0, (UNDEF: 1)
    1094:	130e2501 	movwne	r2, #58625	; 0xe501
    1098:	1b0e030b 	blne	381ccc <__bss_end__+0x377694>
    109c:	1201110e 	andne	r1, r1, #-2147483645	; 0x80000003
    10a0:	00171006 	andseq	r1, r7, r6
    10a4:	00240200 	eoreq	r0, r4, r0, lsl #4
    10a8:	0b3e0b0b 	bleq	f83cdc <__bss_end__+0xf796a4>
    10ac:	00000803 	andeq	r0, r0, r3, lsl #16
    10b0:	0b002403 	bleq	a0c4 <__FUNCTION__.4272+0xac>
    10b4:	030b3e0b 	movweq	r3, #48651	; 0xbe0b
    10b8:	0400000e 	streq	r0, [r0], #-14
    10bc:	193f002e 	ldmdbne	pc!, {r1, r2, r3, r5}	; <UNPREDICTABLE>
    10c0:	0b3a0e03 	bleq	e848d4 <__bss_end__+0xe7a29c>
    10c4:	19270b3b 	stmdbne	r7!, {r0, r1, r3, r4, r5, r8, r9, fp}
    10c8:	06120111 			; <UNDEFINED> instruction: 0x06120111
    10cc:	42971840 	addsmi	r1, r7, #64, 16	; 0x400000
    10d0:	00000019 	andeq	r0, r0, r9, lsl r0
    10d4:	25011101 	strcs	r1, [r1, #-257]	; 0x101
    10d8:	030b130e 	movweq	r1, #45838	; 0xb30e
    10dc:	110e1b0e 	tstne	lr, lr, lsl #22
    10e0:	10061201 	andne	r1, r6, r1, lsl #4
    10e4:	02000017 	andeq	r0, r0, #23
    10e8:	0b0b0024 	bleq	2c1180 <__bss_end__+0x2b6b48>
    10ec:	08030b3e 	stmdaeq	r3, {r1, r2, r3, r4, r5, r8, r9, fp}
    10f0:	24030000 	strcs	r0, [r3], #-0
    10f4:	3e0b0b00 	vmlacc.f64	d0, d11, d0
    10f8:	000e030b 	andeq	r0, lr, fp, lsl #6
    10fc:	01040400 	tsteq	r4, r0, lsl #8
    1100:	0b3a0b0b 	bleq	e83d34 <__bss_end__+0xe796fc>
    1104:	13010b3b 	movwne	r0, #6971	; 0x1b3b
    1108:	28050000 	stmdacs	r5, {}	; <UNPREDICTABLE>
    110c:	1c0e0300 	stcne	3, cr0, [lr], {-0}
    1110:	0600000d 	streq	r0, [r0], -sp
    1114:	193f012e 	ldmdbne	pc!, {r1, r2, r3, r5, r8}	; <UNPREDICTABLE>
    1118:	0b3a0e03 	bleq	e8492c <__bss_end__+0xe7a2f4>
    111c:	19270b3b 	stmdbne	r7!, {r0, r1, r3, r4, r5, r8, r9, fp}
    1120:	06120111 			; <UNDEFINED> instruction: 0x06120111
    1124:	42971840 	addsmi	r1, r7, #64, 16	; 0x400000
    1128:	00130119 	andseq	r0, r3, r9, lsl r1
    112c:	00340700 	eorseq	r0, r4, r0, lsl #14
    1130:	0b3a0e03 	bleq	e84944 <__bss_end__+0xe7a30c>
    1134:	13490b3b 	movtne	r0, #39739	; 0x9b3b
    1138:	193c193f 	ldmdbne	ip!, {r0, r1, r2, r3, r4, r5, r8, fp, ip}
    113c:	34080000 	strcc	r0, [r8], #-0
    1140:	3a080300 	bcc	201d48 <__bss_end__+0x1f7710>
    1144:	490b3b0b 	stmdbmi	fp, {r0, r1, r3, r8, r9, fp, ip, sp}
    1148:	000b1c13 	andeq	r1, fp, r3, lsl ip
    114c:	00340900 	eorseq	r0, r4, r0, lsl #18
    1150:	0b3a0803 	bleq	e83164 <__bss_end__+0xe78b2c>
    1154:	13490b3b 	movtne	r0, #39739	; 0x9b3b
    1158:	340a0000 	strcc	r0, [sl], #-0
    115c:	3a080300 	bcc	201d64 <__bss_end__+0x1f772c>
    1160:	490b3b0b 	stmdbmi	fp, {r0, r1, r3, r8, r9, fp, ip, sp}
    1164:	00180213 	andseq	r0, r8, r3, lsl r2
    1168:	010b0b00 	tsteq	fp, r0, lsl #22
    116c:	06120111 			; <UNDEFINED> instruction: 0x06120111
    1170:	00001301 	andeq	r1, r0, r1, lsl #6
    1174:	0300340c 	movweq	r3, #1036	; 0x40c
    1178:	3b0b3a08 	blcc	2cf9a0 <__bss_end__+0x2c5368>
    117c:	0213490b 	andseq	r4, r3, #180224	; 0x2c000
    1180:	0d000017 	stceq	0, cr0, [r0, #-92]	; 0xffffffa4
    1184:	00018289 	andeq	r8, r1, r9, lsl #5
    1188:	13310111 	teqne	r1, #1073741828	; 0x40000004
    118c:	890e0000 	stmdbhi	lr, {}	; <UNPREDICTABLE>
    1190:	11010182 	smlabbne	r1, r2, r1, r0
    1194:	01133101 	tsteq	r3, r1, lsl #2
    1198:	0f000013 	svceq	0x00000013
    119c:	0001828a 	andeq	r8, r1, sl, lsl #5
    11a0:	42911802 	addsmi	r1, r1, #131072	; 0x20000
    11a4:	10000018 	andne	r0, r0, r8, lsl r0
    11a8:	0b0b000f 	bleq	2c11ec <__bss_end__+0x2b6bb4>
    11ac:	00001349 	andeq	r1, r0, r9, asr #6
    11b0:	3f002e11 	svccc	0x00002e11
    11b4:	3a0e0319 	bcc	381e20 <__bss_end__+0x3777e8>
    11b8:	270b3b0b 	strcs	r3, [fp, -fp, lsl #22]
    11bc:	00193c19 	andseq	r3, r9, r9, lsl ip
    11c0:	012e1200 	teqeq	lr, r0, lsl #4
    11c4:	0e03193f 	mcreq	9, 0, r1, cr3, cr15, {1}
    11c8:	0b3b0b3a 	bleq	ec3eb8 <__bss_end__+0xeb9880>
    11cc:	193c1927 	ldmdbne	ip!, {r0, r1, r2, r5, r8, fp, ip}
    11d0:	05130000 	ldreq	r0, [r3, #-0]
    11d4:	00134900 	andseq	r4, r3, r0, lsl #18
    11d8:	11010000 	mrsne	r0, (UNDEF: 1)
    11dc:	130e2501 	movwne	r2, #58625	; 0xe501
    11e0:	1b0e030b 	blne	381e14 <__bss_end__+0x3777dc>
    11e4:	1117550e 	tstne	r7, lr, lsl #10
    11e8:	00171001 	andseq	r1, r7, r1
    11ec:	00240200 	eoreq	r0, r4, r0, lsl #4
    11f0:	0b3e0b0b 	bleq	f83e24 <__bss_end__+0xf797ec>
    11f4:	00000803 	andeq	r0, r0, r3, lsl #16
    11f8:	0b002403 	bleq	a20c <__FUNCTION__.4220+0x58>
    11fc:	030b3e0b 	movweq	r3, #48651	; 0xbe0b
    1200:	0400000e 	streq	r0, [r0], #-14
    1204:	193f012e 	ldmdbne	pc!, {r1, r2, r3, r5, r8}	; <UNPREDICTABLE>
    1208:	0b3a0e03 	bleq	e84a1c <__bss_end__+0xe7a3e4>
    120c:	19270b3b 	stmdbne	r7!, {r0, r1, r3, r4, r5, r8, r9, fp}
    1210:	01111349 	tsteq	r1, r9, asr #6
    1214:	18400612 	stmdane	r0, {r1, r4, r9, sl}^
    1218:	01194297 			; <UNDEFINED> instruction: 0x01194297
    121c:	05000013 	streq	r0, [r0, #-19]
    1220:	0e030034 	mcreq	0, 0, r0, cr3, cr4, {1}
    1224:	0b3b0b3a 	bleq	ec3f14 <__bss_end__+0xeb98dc>
    1228:	17021349 	strne	r1, [r2, -r9, asr #6]
    122c:	2e060000 	cdpcs	0, 0, cr0, cr6, cr0, {0}
    1230:	03193f01 	tsteq	r9, #1, 30
    1234:	3b0b3a0e 	blcc	2cfa74 <__bss_end__+0x2c543c>
    1238:	1119270b 	tstne	r9, fp, lsl #14
    123c:	40061201 	andmi	r1, r6, r1, lsl #4
    1240:	19429718 	stmdbne	r2, {r3, r4, r8, r9, sl, ip, pc}^
    1244:	00001301 	andeq	r1, r0, r1, lsl #6
    1248:	03003407 	movweq	r3, #1031	; 0x407
    124c:	3b0b3a0e 	blcc	2cfa8c <__bss_end__+0x2c5454>
    1250:	1c13490b 	ldcne	9, cr4, [r3], {11}
    1254:	08000006 	stmdaeq	r0, {r1, r2}
    1258:	0e030034 	mcreq	0, 0, r0, cr3, cr4, {1}
    125c:	0b3b0b3a 	bleq	ec3f4c <__bss_end__+0xeb9914>
    1260:	0b1c1349 	bleq	705f8c <__bss_end__+0x6fb954>
    1264:	89090000 	stmdbhi	r9, {}	; <UNPREDICTABLE>
    1268:	11000182 	smlabbne	r0, r2, r1, r0
    126c:	00133101 	andseq	r3, r3, r1, lsl #2
    1270:	82890a00 	addhi	r0, r9, #0, 20
    1274:	01110101 	tsteq	r1, r1, lsl #2
    1278:	13011331 	movwne	r1, #4913	; 0x1331
    127c:	8a0b0000 	bhi	2c1284 <__bss_end__+0x2b6c4c>
    1280:	02000182 	andeq	r0, r0, #-2147483616	; 0x80000020
    1284:	18429118 	stmdane	r2, {r3, r4, r8, ip, pc}^
    1288:	890c0000 	stmdbhi	ip, {}	; <UNPREDICTABLE>
    128c:	11010182 	smlabbne	r1, r2, r1, r0
    1290:	00133101 	andseq	r3, r3, r1, lsl #2
    1294:	00260d00 	eoreq	r0, r6, r0, lsl #26
    1298:	00001349 	andeq	r1, r0, r9, asr #6
    129c:	3f012e0e 	svccc	0x00012e0e
    12a0:	3a0e0319 	bcc	381f0c <__bss_end__+0x3778d4>
    12a4:	270b3b0b 	strcs	r3, [fp, -fp, lsl #22]
    12a8:	01193c19 	tsteq	r9, r9, lsl ip
    12ac:	0f000013 	svceq	0x00000013
    12b0:	13490005 	movtne	r0, #36869	; 0x9005
    12b4:	2e100000 	cdpcs	0, 1, cr0, cr0, cr0, {0}
    12b8:	03193f01 	tsteq	r9, #1, 30
    12bc:	3b0b3a0e 	blcc	2cfafc <__bss_end__+0x2c54c4>
    12c0:	3c19270b 	ldccc	7, cr2, [r9], {11}
    12c4:	00000019 	andeq	r0, r0, r9, lsl r0
    12c8:	25011101 	strcs	r1, [r1, #-257]	; 0x101
    12cc:	030b130e 	movweq	r1, #45838	; 0xb30e
    12d0:	110e1b0e 	tstne	lr, lr, lsl #22
    12d4:	10061201 	andne	r1, r6, r1, lsl #4
    12d8:	02000017 	andeq	r0, r0, #23
    12dc:	0b0b0024 	bleq	2c1374 <__bss_end__+0x2b6d3c>
    12e0:	08030b3e 	stmdaeq	r3, {r1, r2, r3, r4, r5, r8, r9, fp}
    12e4:	24030000 	strcs	r0, [r3], #-0
    12e8:	3e0b0b00 	vmlacc.f64	d0, d11, d0
    12ec:	000e030b 	andeq	r0, lr, fp, lsl #6
    12f0:	012e0400 	teqeq	lr, r0, lsl #8
    12f4:	0e03193f 	mcreq	9, 0, r1, cr3, cr15, {1}
    12f8:	0b3b0b3a 	bleq	ec3fe8 <__bss_end__+0xeb99b0>
    12fc:	01111927 	tsteq	r1, r7, lsr #18
    1300:	18400612 	stmdane	r0, {r1, r4, r9, sl}^
    1304:	01194297 			; <UNDEFINED> instruction: 0x01194297
    1308:	05000013 	streq	r0, [r0, #-19]
    130c:	0e030005 	cdpeq	0, 0, cr0, cr3, cr5, {0}
    1310:	0b3b0b3a 	bleq	ec4000 <__bss_end__+0xeb99c8>
    1314:	17021349 	strne	r1, [r2, -r9, asr #6]
    1318:	2e060000 	cdpcs	0, 0, cr0, cr6, cr0, {0}
    131c:	03193f01 	tsteq	r9, #1, 30
    1320:	3b0b3a0e 	blcc	2cfb60 <__bss_end__+0x2c5528>
    1324:	4919270b 	ldmdbmi	r9, {r0, r1, r3, r8, r9, sl, sp}
    1328:	12011113 	andne	r1, r1, #-1073741820	; 0xc0000004
    132c:	97184006 	ldrls	r4, [r8, -r6]
    1330:	13011942 	movwne	r1, #6466	; 0x1942
    1334:	89070000 	stmdbhi	r7, {}	; <UNPREDICTABLE>
    1338:	11010182 	smlabbne	r1, r2, r1, r0
    133c:	00133101 	andseq	r3, r3, r1, lsl #2
    1340:	828a0800 	addhi	r0, sl, #0, 16
    1344:	18020001 	stmdane	r2, {r0}
    1348:	00184291 	mulseq	r8, r1, r2
    134c:	00340900 	eorseq	r0, r4, r0, lsl #18
    1350:	0b3a0803 	bleq	e83364 <__bss_end__+0xe78d2c>
    1354:	13490b3b 	movtne	r0, #39739	; 0x9b3b
    1358:	00001702 	andeq	r1, r0, r2, lsl #14
    135c:	0182890a 	orreq	r8, r2, sl, lsl #18
    1360:	31011100 	mrscc	r1, (UNDEF: 17)
    1364:	0b000013 	bleq	13b8 <__code_start__-0x6c48>
    1368:	08030005 	stmdaeq	r3, {r0, r2}
    136c:	0b3b0b3a 	bleq	ec405c <__bss_end__+0xeb9a24>
    1370:	17021349 	strne	r1, [r2, -r9, asr #6]
    1374:	340c0000 	strcc	r0, [ip], #-0
    1378:	3a080300 	bcc	201f80 <__bss_end__+0x1f7948>
    137c:	490b3b0b 	stmdbmi	fp, {r0, r1, r3, r8, r9, fp, ip, sp}
    1380:	00180213 	andseq	r0, r8, r3, lsl r2
    1384:	010b0d00 	tsteq	fp, r0, lsl #26
    1388:	06120111 			; <UNDEFINED> instruction: 0x06120111
    138c:	00001301 	andeq	r1, r0, r1, lsl #6
    1390:	3f012e0e 	svccc	0x00012e0e
    1394:	3a0e0319 	bcc	382000 <__bss_end__+0x3779c8>
    1398:	270b3b0b 	strcs	r3, [fp, -fp, lsl #22]
    139c:	3c134919 	ldccc	9, cr4, [r3], {25}
    13a0:	00130119 	andseq	r0, r3, r9, lsl r1
    13a4:	00050f00 	andeq	r0, r5, r0, lsl #30
    13a8:	00001349 	andeq	r1, r0, r9, asr #6
    13ac:	3f002e10 	svccc	0x00002e10
    13b0:	3a0e0319 	bcc	38201c <__bss_end__+0x3779e4>
    13b4:	270b3b0b 	strcs	r3, [fp, -fp, lsl #22]
    13b8:	00193c19 	andseq	r3, r9, r9, lsl ip
    13bc:	11010000 	mrsne	r0, (UNDEF: 1)
    13c0:	130e2501 	movwne	r2, #58625	; 0xe501
    13c4:	1b0e030b 	blne	381ff8 <__bss_end__+0x3779c0>
    13c8:	1201110e 	andne	r1, r1, #-2147483645	; 0x80000003
    13cc:	00171006 	andseq	r1, r7, r6
    13d0:	00240200 	eoreq	r0, r4, r0, lsl #4
    13d4:	0b3e0b0b 	bleq	f84008 <__bss_end__+0xf799d0>
    13d8:	00000803 	andeq	r0, r0, r3, lsl #16
    13dc:	0b002403 	bleq	a3f0 <buf.4189+0x1bc>
    13e0:	030b3e0b 	movweq	r3, #48651	; 0xbe0b
    13e4:	0400000e 	streq	r0, [r0], #-14
    13e8:	13490035 	movtne	r0, #36917	; 0x9035
    13ec:	16050000 	strne	r0, [r5], -r0
    13f0:	3a0e0300 	bcc	381ff8 <__bss_end__+0x3779c0>
    13f4:	490b3b0b 	stmdbmi	fp, {r0, r1, r3, r8, r9, fp, ip, sp}
    13f8:	06000013 			; <UNDEFINED> instruction: 0x06000013
    13fc:	0e030016 	mcreq	0, 0, r0, cr3, cr6, {0}
    1400:	053b0b3a 	ldreq	r0, [fp, #-2874]!	; 0xb3a
    1404:	00001349 	andeq	r1, r0, r9, asr #6
    1408:	0b011707 	bleq	4702c <__bss_end__+0x3c9f4>
    140c:	3b0b3a0b 	blcc	2cfc40 <__bss_end__+0x2c5608>
    1410:	0013010b 	andseq	r0, r3, fp, lsl #2
    1414:	000d0800 	andeq	r0, sp, r0, lsl #16
    1418:	0b3a0e03 	bleq	e84c2c <__bss_end__+0xe7a5f4>
    141c:	13490b3b 	movtne	r0, #39739	; 0x9b3b
    1420:	01090000 	mrseq	r0, (UNDEF: 9)
    1424:	01134901 	tsteq	r3, r1, lsl #18
    1428:	0a000013 	beq	147c <__code_start__-0x6b84>
    142c:	13490021 	movtne	r0, #36897	; 0x9021
    1430:	00000b2f 	andeq	r0, r0, pc, lsr #22
    1434:	0b01130b 	bleq	46068 <__bss_end__+0x3ba30>
    1438:	3b0b3a0b 	blcc	2cfc6c <__bss_end__+0x2c5634>
    143c:	0013010b 	andseq	r0, r3, fp, lsl #2
    1440:	000d0c00 	andeq	r0, sp, r0, lsl #24
    1444:	0b3a0e03 	bleq	e84c58 <__bss_end__+0xe7a620>
    1448:	13490b3b 	movtne	r0, #39739	; 0x9b3b
    144c:	00000b38 	andeq	r0, r0, r8, lsr fp
    1450:	0b000f0d 	bleq	508c <__code_start__-0x2f74>
    1454:	0e00000b 	cdpeq	0, 0, cr0, cr0, cr11, {0}
    1458:	0b0b000f 	bleq	2c149c <__bss_end__+0x2b6e64>
    145c:	00001349 	andeq	r1, r0, r9, asr #6
    1460:	4900260f 	stmdbmi	r0, {r0, r1, r2, r3, r9, sl, sp}
    1464:	10000013 	andne	r0, r0, r3, lsl r0
    1468:	0e030113 	mcreq	1, 0, r0, cr3, cr3, {0}
    146c:	0b3a0b0b 	bleq	e840a0 <__bss_end__+0xe79a68>
    1470:	13010b3b 	movwne	r0, #6971	; 0x1b3b
    1474:	0d110000 	ldceq	0, cr0, [r1, #-0]
    1478:	3a080300 	bcc	202080 <__bss_end__+0x1f7a48>
    147c:	490b3b0b 	stmdbmi	fp, {r0, r1, r3, r8, r9, fp, ip, sp}
    1480:	000b3813 	andeq	r3, fp, r3, lsl r8
    1484:	01131200 	tsteq	r3, r0, lsl #4
    1488:	050b0e03 	streq	r0, [fp, #-3587]	; 0xe03
    148c:	0b3b0b3a 	bleq	ec417c <__bss_end__+0xeb9b44>
    1490:	00001301 	andeq	r1, r0, r1, lsl #6
    1494:	03000d13 	movweq	r0, #3347	; 0xd13
    1498:	3b0b3a0e 	blcc	2cfcd8 <__bss_end__+0x2c56a0>
    149c:	3813490b 	ldmdacc	r3, {r0, r1, r3, r8, fp, lr}
    14a0:	14000005 	strne	r0, [r0], #-5
    14a4:	19270015 	stmdbne	r7!, {r0, r2, r4}
    14a8:	15150000 	ldrne	r0, [r5, #-0]
    14ac:	49192701 	ldmdbmi	r9, {r0, r8, r9, sl, sp}
    14b0:	00130113 	andseq	r0, r3, r3, lsl r1
    14b4:	00051600 	andeq	r1, r5, r0, lsl #12
    14b8:	00001349 	andeq	r1, r0, r9, asr #6
    14bc:	03011317 	movweq	r1, #4887	; 0x1317
    14c0:	3a050b0e 	bcc	144100 <__bss_end__+0x139ac8>
    14c4:	01053b0b 	tsteq	r5, fp, lsl #22
    14c8:	18000013 	stmdane	r0, {r0, r1, r4}
    14cc:	0e03000d 	cdpeq	0, 0, cr0, cr3, cr13, {0}
    14d0:	053b0b3a 	ldreq	r0, [fp, #-2874]!	; 0xb3a
    14d4:	0b381349 	bleq	e06200 <__bss_end__+0xdfbbc8>
    14d8:	0d190000 	ldceq	0, cr0, [r9, #-0]
    14dc:	3a0e0300 	bcc	3820e4 <__bss_end__+0x377aac>
    14e0:	49053b0b 	stmdbmi	r5, {r0, r1, r3, r8, r9, fp, ip, sp}
    14e4:	00053813 	andeq	r3, r5, r3, lsl r8
    14e8:	01131a00 	tsteq	r3, r0, lsl #20
    14ec:	0b0b0e03 	bleq	2c4d00 <__bss_end__+0x2ba6c8>
    14f0:	053b0b3a 	ldreq	r0, [fp, #-2874]!	; 0xb3a
    14f4:	00001301 	andeq	r1, r0, r1, lsl #6
    14f8:	0b01131b 	bleq	4616c <__bss_end__+0x3bb34>
    14fc:	3b0b3a0b 	blcc	2cfd30 <__bss_end__+0x2c56f8>
    1500:	00130105 	andseq	r0, r3, r5, lsl #2
    1504:	01171c00 	tsteq	r7, r0, lsl #24
    1508:	0b3a0b0b 	bleq	e8413c <__bss_end__+0xe79b04>
    150c:	1301053b 	movwne	r0, #5435	; 0x153b
    1510:	0d1d0000 	ldceq	0, cr0, [sp, #-0]
    1514:	3a0e0300 	bcc	38211c <__bss_end__+0x377ae4>
    1518:	49053b0b 	stmdbmi	r5, {r0, r1, r3, r8, r9, fp, ip, sp}
    151c:	1e000013 	mcrne	0, 0, r0, cr0, cr3, {0}
    1520:	19270115 	stmdbne	r7!, {r0, r2, r4, r8}
    1524:	00001301 	andeq	r1, r0, r1, lsl #6
    1528:	0300341f 	movweq	r3, #1055	; 0x41f
    152c:	3b0b3a0e 	blcc	2cfd6c <__bss_end__+0x2c5734>
    1530:	3f134905 	svccc	0x00134905
    1534:	00193c19 	andseq	r3, r9, r9, lsl ip
    1538:	00342000 	eorseq	r2, r4, r0
    153c:	0b3a0e03 	bleq	e84d50 <__bss_end__+0xe7a718>
    1540:	13490b3b 	movtne	r0, #39739	; 0x9b3b
    1544:	193c193f 	ldmdbne	ip!, {r0, r1, r2, r3, r4, r5, r8, fp, ip}
    1548:	04210000 	strteq	r0, [r1], #-0
    154c:	490b0b01 	stmdbmi	fp, {r0, r8, r9, fp}
    1550:	3b0b3a13 	blcc	2cfda4 <__bss_end__+0x2c576c>
    1554:	0013010b 	andseq	r0, r3, fp, lsl #2
    1558:	00282200 	eoreq	r2, r8, r0, lsl #4
    155c:	0b1c0e03 	bleq	704d70 <__bss_end__+0x6fa738>
    1560:	34230000 	strtcc	r0, [r3], #-0
    1564:	3a0e0300 	bcc	38216c <__bss_end__+0x377b34>
    1568:	490b3b0b 	stmdbmi	fp, {r0, r1, r3, r8, r9, fp, ip, sp}
    156c:	00061c13 	andeq	r1, r6, r3, lsl ip
    1570:	012e2400 	teqeq	lr, r0, lsl #8
    1574:	0e03193f 	mcreq	9, 0, r1, cr3, cr15, {1}
    1578:	0b3b0b3a 	bleq	ec4268 <__bss_end__+0xeb9c30>
    157c:	13491927 	movtne	r1, #39207	; 0x9927
    1580:	06120111 			; <UNDEFINED> instruction: 0x06120111
    1584:	42971840 	addsmi	r1, r7, #64, 16	; 0x400000
    1588:	00130119 	andseq	r0, r3, r9, lsl r1
    158c:	82892500 	addhi	r2, r9, #0, 10
    1590:	01110001 	tsteq	r1, r1
    1594:	00001331 	andeq	r1, r0, r1, lsr r3
    1598:	3f012e26 	svccc	0x00012e26
    159c:	3a0e0319 	bcc	382208 <__bss_end__+0x377bd0>
    15a0:	270b3b0b 	strcs	r3, [fp, -fp, lsl #22]
    15a4:	12011119 	andne	r1, r1, #1073741830	; 0x40000006
    15a8:	97184006 	ldrls	r4, [r8, -r6]
    15ac:	13011942 	movwne	r1, #6466	; 0x1942
    15b0:	05270000 	streq	r0, [r7, #-0]!
    15b4:	3a080300 	bcc	2021bc <__bss_end__+0x1f7b84>
    15b8:	490b3b0b 	stmdbmi	fp, {r0, r1, r3, r8, r9, fp, ip, sp}
    15bc:	00170213 	andseq	r0, r7, r3, lsl r2
    15c0:	82892800 	addhi	r2, r9, #0, 16
    15c4:	01110101 	tsteq	r1, r1, lsl #2
    15c8:	13011331 	movwne	r1, #4913	; 0x1331
    15cc:	8a290000 	bhi	a415d4 <__bss_end__+0xa36f9c>
    15d0:	02000182 	andeq	r0, r0, #-2147483616	; 0x80000020
    15d4:	18429118 	stmdane	r2, {r3, r4, r8, ip, pc}^
    15d8:	342a0000 	strtcc	r0, [sl], #-0
    15dc:	3a080300 	bcc	2021e4 <__bss_end__+0x1f7bac>
    15e0:	490b3b0b 	stmdbmi	fp, {r0, r1, r3, r8, r9, fp, ip, sp}
    15e4:	00180213 	andseq	r0, r8, r3, lsl r2
    15e8:	82892b00 	addhi	r2, r9, #0, 22
    15ec:	01110101 	tsteq	r1, r1, lsl #2
    15f0:	00001331 	andeq	r1, r0, r1, lsr r3
    15f4:	03012e2c 	movweq	r2, #7724	; 0x1e2c
    15f8:	3b0b3a0e 	blcc	2cfe38 <__bss_end__+0x2c5800>
    15fc:	1119270b 	tstne	r9, fp, lsl #14
    1600:	40061201 	andmi	r1, r6, r1, lsl #4
    1604:	19429718 	stmdbne	r2, {r3, r4, r8, r9, sl, ip, pc}^
    1608:	00001301 	andeq	r1, r0, r1, lsl #6
    160c:	0300052d 	movweq	r0, #1325	; 0x52d
    1610:	3b0b3a0e 	blcc	2cfe50 <__bss_end__+0x2c5818>
    1614:	0213490b 	andseq	r4, r3, #180224	; 0x2c000
    1618:	2e000017 	mcrcs	0, 0, r0, cr0, cr7, {0}
    161c:	00000035 	andeq	r0, r0, r5, lsr r0
    1620:	3f002e2f 	svccc	0x00002e2f
    1624:	6e193c19 	mrcvs	12, 0, r3, cr9, cr9, {0}
    1628:	3a0e030e 	bcc	382268 <__bss_end__+0x377c30>
    162c:	000b3b0b 	andeq	r3, fp, fp, lsl #22
    1630:	11010000 	mrsne	r0, (UNDEF: 1)
    1634:	130e2501 	movwne	r2, #58625	; 0xe501
    1638:	1b0e030b 	blne	38226c <__bss_end__+0x377c34>
    163c:	1201110e 	andne	r1, r1, #-2147483645	; 0x80000003
    1640:	00171006 	andseq	r1, r7, r6
    1644:	00240200 	eoreq	r0, r4, r0, lsl #4
    1648:	0b3e0b0b 	bleq	f8427c <__bss_end__+0xf79c44>
    164c:	00000803 	andeq	r0, r0, r3, lsl #16
    1650:	0b002403 	bleq	a664 <__bss_end__+0x2c>
    1654:	030b3e0b 	movweq	r3, #48651	; 0xbe0b
    1658:	0400000e 	streq	r0, [r0], #-14
    165c:	13490026 	movtne	r0, #36902	; 0x9026
    1660:	16050000 	strne	r0, [r5], -r0
    1664:	3a0e0300 	bcc	38226c <__bss_end__+0x377c34>
    1668:	490b3b0b 	stmdbmi	fp, {r0, r1, r3, r8, r9, fp, ip, sp}
    166c:	06000013 			; <UNDEFINED> instruction: 0x06000013
    1670:	0e030016 	mcreq	0, 0, r0, cr3, cr6, {0}
    1674:	053b0b3a 	ldreq	r0, [fp, #-2874]!	; 0xb3a
    1678:	00001349 	andeq	r1, r0, r9, asr #6
    167c:	0b011707 	bleq	472a0 <__bss_end__+0x3cc68>
    1680:	3b0b3a0b 	blcc	2cfeb4 <__bss_end__+0x2c587c>
    1684:	0013010b 	andseq	r0, r3, fp, lsl #2
    1688:	000d0800 	andeq	r0, sp, r0, lsl #16
    168c:	0b3a0e03 	bleq	e84ea0 <__bss_end__+0xe7a868>
    1690:	13490b3b 	movtne	r0, #39739	; 0x9b3b
    1694:	01090000 	mrseq	r0, (UNDEF: 9)
    1698:	01134901 	tsteq	r3, r1, lsl #18
    169c:	0a000013 	beq	16f0 <__code_start__-0x6910>
    16a0:	13490021 	movtne	r0, #36897	; 0x9021
    16a4:	00000b2f 	andeq	r0, r0, pc, lsr #22
    16a8:	0b01130b 	bleq	462dc <__bss_end__+0x3bca4>
    16ac:	3b0b3a0b 	blcc	2cfee0 <__bss_end__+0x2c58a8>
    16b0:	0013010b 	andseq	r0, r3, fp, lsl #2
    16b4:	000d0c00 	andeq	r0, sp, r0, lsl #24
    16b8:	0b3a0e03 	bleq	e84ecc <__bss_end__+0xe7a894>
    16bc:	13490b3b 	movtne	r0, #39739	; 0x9b3b
    16c0:	00000b38 	andeq	r0, r0, r8, lsr fp
    16c4:	0b000f0d 	bleq	5300 <__code_start__-0x2d00>
    16c8:	0e00000b 	cdpeq	0, 0, cr0, cr0, cr11, {0}
    16cc:	0b0b000f 	bleq	2c1710 <__bss_end__+0x2b70d8>
    16d0:	00001349 	andeq	r1, r0, r9, asr #6
    16d4:	0301130f 	movweq	r1, #4879	; 0x130f
    16d8:	3a0b0b0e 	bcc	2c4318 <__bss_end__+0x2b9ce0>
    16dc:	010b3b0b 	tsteq	fp, fp, lsl #22
    16e0:	10000013 	andne	r0, r0, r3, lsl r0
    16e4:	0803000d 	stmdaeq	r3, {r0, r2, r3}
    16e8:	0b3b0b3a 	bleq	ec43d8 <__bss_end__+0xeb9da0>
    16ec:	0b381349 	bleq	e06418 <__bss_end__+0xdfbde0>
    16f0:	13110000 	tstne	r1, #0
    16f4:	0b0e0301 	bleq	382300 <__bss_end__+0x377cc8>
    16f8:	3b0b3a05 	blcc	2cff14 <__bss_end__+0x2c58dc>
    16fc:	0013010b 	andseq	r0, r3, fp, lsl #2
    1700:	000d1200 	andeq	r1, sp, r0, lsl #4
    1704:	0b3a0e03 	bleq	e84f18 <__bss_end__+0xe7a8e0>
    1708:	13490b3b 	movtne	r0, #39739	; 0x9b3b
    170c:	00000538 	andeq	r0, r0, r8, lsr r5
    1710:	27001513 	smladcs	r0, r3, r5, r1
    1714:	14000019 	strne	r0, [r0], #-25
    1718:	19270115 	stmdbne	r7!, {r0, r2, r4, r8}
    171c:	13011349 	movwne	r1, #4937	; 0x1349
    1720:	05150000 	ldreq	r0, [r5, #-0]
    1724:	00134900 	andseq	r4, r3, r0, lsl #18
    1728:	01131600 	tsteq	r3, r0, lsl #12
    172c:	050b0e03 	streq	r0, [fp, #-3587]	; 0xe03
    1730:	053b0b3a 	ldreq	r0, [fp, #-2874]!	; 0xb3a
    1734:	00001301 	andeq	r1, r0, r1, lsl #6
    1738:	03000d17 	movweq	r0, #3351	; 0xd17
    173c:	3b0b3a0e 	blcc	2cff7c <__bss_end__+0x2c5944>
    1740:	38134905 	ldmdacc	r3, {r0, r2, r8, fp, lr}
    1744:	1800000b 	stmdane	r0, {r0, r1, r3}
    1748:	0e03000d 	cdpeq	0, 0, cr0, cr3, cr13, {0}
    174c:	053b0b3a 	ldreq	r0, [fp, #-2874]!	; 0xb3a
    1750:	05381349 	ldreq	r1, [r8, #-841]!	; 0x349
    1754:	13190000 	tstne	r9, #0
    1758:	0b0e0301 	bleq	382364 <__bss_end__+0x377d2c>
    175c:	3b0b3a0b 	blcc	2cff90 <__bss_end__+0x2c5958>
    1760:	00130105 	andseq	r0, r3, r5, lsl #2
    1764:	01131a00 	tsteq	r3, r0, lsl #20
    1768:	0b3a0b0b 	bleq	e8439c <__bss_end__+0xe79d64>
    176c:	1301053b 	movwne	r0, #5435	; 0x153b
    1770:	171b0000 	ldrne	r0, [fp, -r0]
    1774:	3a0b0b01 	bcc	2c4380 <__bss_end__+0x2b9d48>
    1778:	01053b0b 	tsteq	r5, fp, lsl #22
    177c:	1c000013 	stcne	0, cr0, [r0], {19}
    1780:	0e03000d 	cdpeq	0, 0, cr0, cr3, cr13, {0}
    1784:	053b0b3a 	ldreq	r0, [fp, #-2874]!	; 0xb3a
    1788:	00001349 	andeq	r1, r0, r9, asr #6
    178c:	2701151d 	smladcs	r1, sp, r5, r1
    1790:	00130119 	andseq	r0, r3, r9, lsl r1
    1794:	00341e00 	eorseq	r1, r4, r0, lsl #28
    1798:	0b3a0e03 	bleq	e84fac <__bss_end__+0xe7a974>
    179c:	1349053b 	movtne	r0, #38203	; 0x953b
    17a0:	193c193f 	ldmdbne	ip!, {r0, r1, r2, r3, r4, r5, r8, fp, ip}
    17a4:	341f0000 	ldrcc	r0, [pc], #-0	; 17ac <__code_start__-0x6854>
    17a8:	3a0e0300 	bcc	3823b0 <__bss_end__+0x377d78>
    17ac:	490b3b0b 	stmdbmi	fp, {r0, r1, r3, r8, r9, fp, ip, sp}
    17b0:	3c193f13 	ldccc	15, cr3, [r9], {19}
    17b4:	20000019 	andcs	r0, r0, r9, lsl r0
    17b8:	0b0b0104 	bleq	2c1bd0 <__bss_end__+0x2b7598>
    17bc:	0b3a1349 	bleq	e864e8 <__bss_end__+0xe7beb0>
    17c0:	13010b3b 	movwne	r0, #6971	; 0x1b3b
    17c4:	28210000 	stmdacs	r1!, {}	; <UNPREDICTABLE>
    17c8:	1c0e0300 	stcne	3, cr0, [lr], {-0}
    17cc:	2200000b 	andcs	r0, r0, #11
    17d0:	0e030034 	mcreq	0, 0, r0, cr3, cr4, {1}
    17d4:	0b3b0b3a 	bleq	ec44c4 <__bss_end__+0xeb9e8c>
    17d8:	061c1349 	ldreq	r1, [ip], -r9, asr #6
    17dc:	2e230000 	cdpcs	0, 2, cr0, cr3, cr0, {0}
    17e0:	03193f01 	tsteq	r9, #1, 30
    17e4:	3b0b3a0e 	blcc	2d0024 <__bss_end__+0x2c59ec>
    17e8:	4919270b 	ldmdbmi	r9, {r0, r1, r3, r8, r9, sl, sp}
    17ec:	12011113 	andne	r1, r1, #-1073741820	; 0xc0000004
    17f0:	97184006 	ldrls	r4, [r8, -r6]
    17f4:	13011942 	movwne	r1, #6466	; 0x1942
    17f8:	05240000 	streq	r0, [r4, #-0]!
    17fc:	3a080300 	bcc	202404 <__bss_end__+0x1f7dcc>
    1800:	490b3b0b 	stmdbmi	fp, {r0, r1, r3, r8, r9, fp, ip, sp}
    1804:	00170213 	andseq	r0, r7, r3, lsl r2
    1808:	00342500 	eorseq	r2, r4, r0, lsl #10
    180c:	0b3a0e03 	bleq	e85020 <__bss_end__+0xe7a9e8>
    1810:	13490b3b 	movtne	r0, #39739	; 0x9b3b
    1814:	00001702 	andeq	r1, r0, r2, lsl #14
    1818:	03003426 	movweq	r3, #1062	; 0x426
    181c:	3b0b3a08 	blcc	2d0044 <__bss_end__+0x2c5a0c>
    1820:	0213490b 	andseq	r4, r3, #180224	; 0x2c000
    1824:	27000017 	smladcs	r0, r7, r0, r0
    1828:	01018289 	smlabbeq	r1, r9, r2, r8
    182c:	13310111 	teqne	r1, #1073741828	; 0x40000004
    1830:	8a280000 	bhi	a01838 <__bss_end__+0x9f7200>
    1834:	02000182 	andeq	r0, r0, #-2147483616	; 0x80000020
    1838:	18429118 	stmdane	r2, {r3, r4, r8, ip, pc}^
    183c:	2e290000 	cdpcs	0, 2, cr0, cr9, cr0, {0}
    1840:	03193f01 	tsteq	r9, #1, 30
    1844:	3b0b3a0e 	blcc	2d0084 <__bss_end__+0x2c5a4c>
    1848:	1119270b 	tstne	r9, fp, lsl #14
    184c:	40061201 	andmi	r1, r6, r1, lsl #4
    1850:	19429718 	stmdbne	r2, {r3, r4, r8, r9, sl, ip, pc}^
    1854:	00001301 	andeq	r1, r0, r1, lsl #6
    1858:	0182892a 	orreq	r8, r2, sl, lsr #18
    185c:	31011101 	tstcc	r1, r1, lsl #2
    1860:	00130113 	andseq	r0, r3, r3, lsl r1
    1864:	82892b00 	addhi	r2, r9, #0, 22
    1868:	01110001 	tsteq	r1, r1
    186c:	00001331 	andeq	r1, r0, r1, lsr r3
    1870:	0300052c 	movweq	r0, #1324	; 0x52c
    1874:	3b0b3a0e 	blcc	2d00b4 <__bss_end__+0x2c5a7c>
    1878:	0213490b 	andseq	r4, r3, #180224	; 0x2c000
    187c:	2d000017 	stccs	0, cr0, [r0, #-92]	; 0xffffffa4
    1880:	08030034 	stmdaeq	r3, {r2, r4, r5}
    1884:	0b3b0b3a 	bleq	ec4574 <__bss_end__+0xeb9f3c>
    1888:	18021349 	stmdane	r2, {r0, r3, r6, r8, r9, ip}
    188c:	2e2e0000 	cdpcs	0, 2, cr0, cr14, cr0, {0}
    1890:	3c193f00 	ldccc	15, cr3, [r9], {-0}
    1894:	030e6e19 	movweq	r6, #60953	; 0xee19
    1898:	3b0b3a0e 	blcc	2d00d8 <__bss_end__+0x2c5aa0>
    189c:	0000000b 	andeq	r0, r0, fp

Disassembly of section .debug_loc:

00000000 <.debug_loc>:
       0:	00000000 	andeq	r0, r0, r0
       4:	0000000c 	andeq	r0, r0, ip
       8:	0c500001 	mrrceq	0, 0, r0, r0, cr1	; <UNPREDICTABLE>
       c:	b0000000 	andlt	r0, r0, r0
      10:	04000000 	streq	r0, [r0], #-0
      14:	5001f300 	andpl	pc, r1, r0, lsl #6
      18:	0000009f 	muleq	r0, pc, r0	; <UNPREDICTABLE>
      1c:	00000000 	andeq	r0, r0, r0
      20:	0000b000 	andeq	fp, r0, r0
      24:	0000bc00 	andeq	fp, r0, r0, lsl #24
      28:	50000100 	andpl	r0, r0, r0, lsl #2
      2c:	000000bc 	strheq	r0, [r0], -ip
      30:	00000138 	andeq	r0, r0, r8, lsr r1
      34:	01f30004 	mvnseq	r0, r4
      38:	00009f50 	andeq	r9, r0, r0, asr pc
      3c:	00000000 	andeq	r0, r0, r0
      40:	00d80000 	sbcseq	r0, r8, r0
      44:	01180000 	tsteq	r8, r0
      48:	00060000 	andeq	r0, r6, r0
      4c:	00a21403 	adceq	r1, r2, r3, lsl #8
      50:	00009f00 	andeq	r9, r0, r0, lsl #30
      54:	00000000 	andeq	r0, r0, r0
      58:	01580000 	cmpeq	r8, r0
      5c:	01600000 	cmneq	r0, r0
      60:	00010000 	andeq	r0, r1, r0
      64:	00016050 	andeq	r6, r1, r0, asr r0
      68:	00017400 	andeq	r7, r1, r0, lsl #8
      6c:	f3000400 	vshl.u8	d0, d0, d0
      70:	009f5001 	addseq	r5, pc, r1
	...
      7c:	23000000 	movwcs	r0, #0
      80:	01000000 	mrseq	r0, (UNDEF: 0)
      84:	00235000 	eoreq	r5, r3, r0
      88:	00440000 	subeq	r0, r4, r0
      8c:	00040000 	andeq	r0, r4, r0
      90:	9f5001f3 	svcls	0x005001f3
      94:	00000044 	andeq	r0, r0, r4, asr #32
      98:	0000005f 	andeq	r0, r0, pc, asr r0
      9c:	5f500001 	svcpl	0x00500001
      a0:	80000000 	andhi	r0, r0, r0
      a4:	04000000 	streq	r0, [r0], #-0
      a8:	5001f300 	andpl	pc, r1, r0, lsl #6
      ac:	0000809f 	muleq	r0, pc, r0	; <UNPREDICTABLE>
      b0:	0000b000 	andeq	fp, r0, r0
      b4:	50000100 	andpl	r0, r0, r0, lsl #2
	...
      c4:	00000023 	andeq	r0, r0, r3, lsr #32
      c8:	23510001 	cmpcs	r1, #1
      cc:	44000000 	strmi	r0, [r0], #-0
      d0:	04000000 	streq	r0, [r0], #-0
      d4:	5101f300 	mrspl	pc, SP_irq	; <UNPREDICTABLE>
      d8:	0000449f 	muleq	r0, pc, r4	; <UNPREDICTABLE>
      dc:	00005f00 	andeq	r5, r0, r0, lsl #30
      e0:	51000100 	mrspl	r0, (UNDEF: 16)
      e4:	0000005f 	andeq	r0, r0, pc, asr r0
      e8:	00000080 	andeq	r0, r0, r0, lsl #1
      ec:	01f30004 	mvnseq	r0, r4
      f0:	00809f51 	addeq	r9, r0, r1, asr pc
      f4:	00b00000 	adcseq	r0, r0, r0
      f8:	00010000 	andeq	r0, r1, r0
      fc:	00000051 	andeq	r0, r0, r1, asr r0
     100:	00000000 	andeq	r0, r0, r0
     104:	00001000 	andeq	r1, r0, r0
     108:	00002300 	andeq	r2, r0, r0, lsl #6
     10c:	53000100 	movwpl	r0, #256	; 0x100
     110:	00000044 	andeq	r0, r0, r4, asr #32
     114:	00000048 	andeq	r0, r0, r8, asr #32
     118:	48530001 	ldmdami	r3, {r0}^
     11c:	b0000000 	andlt	r0, r0, r0
     120:	04000000 	streq	r0, [r0], #-0
     124:	01ff0a00 	mvnseq	r0, r0, lsl #20
     128:	0000009f 	muleq	r0, pc, r0	; <UNPREDICTABLE>
     12c:	00000000 	andeq	r0, r0, r0
     130:	00004400 	andeq	r4, r0, r0, lsl #8
     134:	00005f00 	andeq	r5, r0, r0, lsl #30
     138:	50000100 	andpl	r0, r0, r0, lsl #2
     13c:	0000005f 	andeq	r0, r0, pc, asr r0
     140:	00000080 	andeq	r0, r0, r0, lsl #1
     144:	01f30004 	mvnseq	r0, r4
     148:	00809f50 	addeq	r9, r0, r0, asr pc
     14c:	00b00000 	adcseq	r0, r0, r0
     150:	00010000 	andeq	r0, r1, r0
     154:	00000050 	andeq	r0, r0, r0, asr r0
     158:	00000000 	andeq	r0, r0, r0
     15c:	00000c00 	andeq	r0, r0, r0, lsl #24
     160:	00001000 	andeq	r1, r0, r0
     164:	53000100 	movwpl	r0, #256	; 0x100
	...
     170:	00000010 	andeq	r0, r0, r0, lsl r0
     174:	00000023 	andeq	r0, r0, r3, lsr #32
     178:	44530001 	ldrbmi	r0, [r3], #-1
     17c:	4c000000 	stcmi	0, cr0, [r0], {-0}
     180:	01000000 	mrseq	r0, (UNDEF: 0)
     184:	00005300 	andeq	r5, r0, r0, lsl #6
     188:	00000000 	andeq	r0, r0, r0
     18c:	00180000 	andseq	r0, r8, r0
     190:	00230000 	eoreq	r0, r3, r0
     194:	00010000 	andeq	r0, r1, r0
     198:	00004452 	andeq	r4, r0, r2, asr r4
     19c:	00005400 	andeq	r5, r0, r0, lsl #8
     1a0:	52000100 	andpl	r0, r0, #0, 2
	...
     1ac:	00000054 	andeq	r0, r0, r4, asr r0
     1b0:	0000005f 	andeq	r0, r0, pc, asr r0
     1b4:	80520001 	subshi	r0, r2, r1
     1b8:	b0000000 	andlt	r0, r0, r0
     1bc:	01000000 	mrseq	r0, (UNDEF: 0)
     1c0:	00005200 	andeq	r5, r0, r0, lsl #4
     1c4:	00000000 	andeq	r0, r0, r0
     1c8:	00b00000 	adcseq	r0, r0, r0
     1cc:	00d30000 	sbcseq	r0, r3, r0
     1d0:	00010000 	andeq	r0, r1, r0
     1d4:	0000d350 	andeq	sp, r0, r0, asr r3
     1d8:	0000ec00 	andeq	lr, r0, r0, lsl #24
     1dc:	f3000400 	vshl.u8	d0, d0, d0
     1e0:	ec9f5001 	ldc	0, cr5, [pc], {1}
     1e4:	ff000000 			; <UNDEFINED> instruction: 0xff000000
     1e8:	01000000 	mrseq	r0, (UNDEF: 0)
     1ec:	00ff5000 	rscseq	r5, pc, r0
     1f0:	01200000 	teqeq	r0, r0
     1f4:	00040000 	andeq	r0, r4, r0
     1f8:	9f5001f3 	svcls	0x005001f3
     1fc:	00000120 	andeq	r0, r0, r0, lsr #2
     200:	00000133 	andeq	r0, r0, r3, lsr r1
     204:	33500001 	cmpcc	r0, #1
     208:	54000001 	strpl	r0, [r0], #-1
     20c:	04000001 	streq	r0, [r0], #-1
     210:	5001f300 	andpl	pc, r1, r0, lsl #6
     214:	0001549f 	muleq	r1, pc, r4	; <UNPREDICTABLE>
     218:	00015c00 	andeq	r5, r1, r0, lsl #24
     21c:	50000100 	andpl	r0, r0, r0, lsl #2
     220:	0000015c 	andeq	r0, r0, ip, asr r1
     224:	0000015f 	andeq	r0, r0, pc, asr r1
     228:	5f510001 	svcpl	0x00510001
     22c:	8c000001 	stchi	0, cr0, [r0], {1}
     230:	04000001 	streq	r0, [r0], #-1
     234:	5001f300 	andpl	pc, r1, r0, lsl #6
     238:	0000009f 	muleq	r0, pc, r0	; <UNPREDICTABLE>
     23c:	00000000 	andeq	r0, r0, r0
     240:	0000c400 	andeq	ip, r0, r0, lsl #8
     244:	0000c800 	andeq	ip, r0, r0, lsl #16
     248:	53000100 	movwpl	r0, #256	; 0x100
	...
     254:	000000f0 	strdeq	r0, [r0], -r0	; <UNPREDICTABLE>
     258:	000000f4 	strdeq	r0, [r0], -r4
     25c:	f4530001 			; <UNDEFINED> instruction: 0xf4530001
     260:	ff000000 			; <UNDEFINED> instruction: 0xff000000
     264:	03000000 	movweq	r0, #0
     268:	9f047300 	svcls	0x00047300
     26c:	00000120 	andeq	r0, r0, r0, lsr #2
     270:	00000124 	andeq	r0, r0, r4, lsr #2
     274:	04730003 	ldrbteq	r0, [r3], #-3
     278:	0000009f 	muleq	r0, pc, r0	; <UNPREDICTABLE>
     27c:	00000000 	andeq	r0, r0, r0
     280:	0001d000 	andeq	sp, r1, r0
     284:	0001d800 	andeq	sp, r1, r0, lsl #16
     288:	53000100 	movwpl	r0, #256	; 0x100
     28c:	000001d8 	ldrdeq	r0, [r0], -r8
     290:	000001fc 	strdeq	r0, [r0], -ip
     294:	e70a0004 	str	r0, [sl, -r4]
     298:	00009f01 	andeq	r9, r0, r1, lsl #30
     29c:	00000000 	andeq	r0, r0, r0
     2a0:	01cc0000 	biceq	r0, ip, r0
     2a4:	01d00000 	bicseq	r0, r0, r0
     2a8:	00010000 	andeq	r0, r1, r0
     2ac:	00000053 	andeq	r0, r0, r3, asr r0
     2b0:	00000000 	andeq	r0, r0, r0
     2b4:	0001d000 	andeq	sp, r1, r0
     2b8:	0001dc00 	andeq	sp, r1, r0, lsl #24
     2bc:	53000100 	movwpl	r0, #256	; 0x100
	...
     2c8:	000001fc 	strdeq	r0, [r0], -ip
     2cc:	0000021b 	andeq	r0, r0, fp, lsl r2
     2d0:	1b500001 	blne	14002dc <__bss_end__+0x13f5ca4>
     2d4:	34000002 	strcc	r0, [r0], #-2
     2d8:	04000002 	streq	r0, [r0], #-2
     2dc:	5001f300 	andpl	pc, r1, r0, lsl #6
     2e0:	0002349f 	muleq	r2, pc, r4	; <UNPREDICTABLE>
     2e4:	00024700 	andeq	r4, r2, r0, lsl #14
     2e8:	50000100 	andpl	r0, r0, r0, lsl #2
     2ec:	00000247 	andeq	r0, r0, r7, asr #4
     2f0:	00000268 	andeq	r0, r0, r8, ror #4
     2f4:	01f30004 	mvnseq	r0, r4
     2f8:	02689f50 	rsbeq	r9, r8, #80, 30	; 0x140
     2fc:	02700000 	rsbseq	r0, r0, #0
     300:	00010000 	andeq	r0, r1, r0
     304:	00027050 	andeq	r7, r2, r0, asr r0
     308:	00027300 	andeq	r7, r2, r0, lsl #6
     30c:	51000100 	mrspl	r0, (UNDEF: 16)
     310:	00000273 	andeq	r0, r0, r3, ror r2
     314:	00000294 	muleq	r0, r4, r2
     318:	01f30004 	mvnseq	r0, r4
     31c:	00009f50 	andeq	r9, r0, r0, asr pc
     320:	00000000 	andeq	r0, r0, r0
     324:	020c0000 	andeq	r0, ip, #0
     328:	02100000 	andseq	r0, r0, #0
     32c:	00010000 	andeq	r0, r1, r0
     330:	00000053 	andeq	r0, r0, r3, asr r0
     334:	00000000 	andeq	r0, r0, r0
     338:	0002cc00 	andeq	ip, r2, r0, lsl #24
     33c:	0002d400 	andeq	sp, r2, r0, lsl #8
     340:	53000100 	movwpl	r0, #256	; 0x100
     344:	000002d4 	ldrdeq	r0, [r0], -r4
     348:	000002f8 	strdeq	r0, [r0], -r8
     34c:	e70c0006 	str	r0, [ip, -r6]
     350:	9f004001 	svcls	0x00004001
	...
     35c:	000002c8 	andeq	r0, r0, r8, asr #5
     360:	000002cc 	andeq	r0, r0, ip, asr #5
     364:	00530001 	subseq	r0, r3, r1
     368:	00000000 	andeq	r0, r0, r0
     36c:	cc000000 	stcgt	0, cr0, [r0], {-0}
     370:	d8000002 	stmdale	r0, {r1}
     374:	01000002 	tsteq	r0, r2
     378:	00005300 	andeq	r5, r0, r0, lsl #6
     37c:	00000000 	andeq	r0, r0, r0
     380:	03080000 	movweq	r0, #32768	; 0x8000
     384:	03240000 	teqeq	r4, #0
     388:	00010000 	andeq	r0, r1, r0
     38c:	00032450 	andeq	r2, r3, r0, asr r4
     390:	00032800 	andeq	r2, r3, r0, lsl #16
     394:	f3000400 	vshl.u8	d0, d0, d0
     398:	289f5001 	ldmcs	pc, {r0, ip, lr}	; <UNPREDICTABLE>
     39c:	40000003 	andmi	r0, r0, r3
     3a0:	01000003 	tsteq	r0, r3
     3a4:	03405000 	movteq	r5, #0
     3a8:	03480000 	movteq	r0, #32768	; 0x8000
     3ac:	00040000 	andeq	r0, r4, r0
     3b0:	9f5001f3 	svcls	0x005001f3
     3b4:	00000348 	andeq	r0, r0, r8, asr #6
     3b8:	00000354 	andeq	r0, r0, r4, asr r3
     3bc:	54500001 	ldrbpl	r0, [r0], #-1
     3c0:	64000003 	strvs	r0, [r0], #-3
     3c4:	04000003 	streq	r0, [r0], #-3
     3c8:	5001f300 	andpl	pc, r1, r0, lsl #6
     3cc:	0003649f 	muleq	r3, pc, r4	; <UNPREDICTABLE>
     3d0:	00036800 	andeq	r6, r3, r0, lsl #16
     3d4:	50000100 	andpl	r0, r0, r0, lsl #2
     3d8:	00000368 	andeq	r0, r0, r8, ror #6
     3dc:	0000036c 	andeq	r0, r0, ip, ror #6
     3e0:	01f30004 	mvnseq	r0, r4
     3e4:	036c9f50 	cmneq	ip, #80, 30	; 0x140
     3e8:	03700000 	cmneq	r0, #0
     3ec:	00010000 	andeq	r0, r1, r0
     3f0:	00037050 	andeq	r7, r3, r0, asr r0
     3f4:	00037800 	andeq	r7, r3, r0, lsl #16
     3f8:	f3000400 	vshl.u8	d0, d0, d0
     3fc:	009f5001 	addseq	r5, pc, r1
     400:	00000000 	andeq	r0, r0, r0
     404:	08000000 	stmdaeq	r0, {}	; <UNPREDICTABLE>
     408:	58000003 	stmdapl	r0, {r0, r1}
     40c:	01000003 	tsteq	r0, r3
     410:	03585100 	cmpeq	r8, #0, 2
     414:	03640000 	cmneq	r4, #0
     418:	00040000 	andeq	r0, r4, r0
     41c:	9f5101f3 	svcls	0x005101f3
     420:	00000364 	andeq	r0, r0, r4, ror #6
     424:	00000378 	andeq	r0, r0, r8, ror r3
     428:	00510001 	subseq	r0, r1, r1
     42c:	00000000 	andeq	r0, r0, r0
     430:	14000000 	strne	r0, [r0], #-0
     434:	34000003 	strcc	r0, [r0], #-3
     438:	01000003 	tsteq	r0, r3
     43c:	03345300 	teqeq	r4, #0, 6
     440:	03400000 	movteq	r0, #0
     444:	000a0000 	andeq	r0, sl, r0
     448:	0c060070 	stceq	0, cr0, [r6], {112}	; 0x70
     44c:	00ffffff 	ldrshteq	pc, [pc], #255	; <UNPREDICTABLE>
     450:	03409f1a 	movteq	r9, #3866	; 0xf1a
     454:	03440000 	movteq	r0, #16384	; 0x4000
     458:	000b0000 	andeq	r0, fp, r0
     45c:	065001f3 			; <UNDEFINED> instruction: 0x065001f3
     460:	ffffff0c 			; <UNDEFINED> instruction: 0xffffff0c
     464:	489f1a00 	ldmmi	pc, {r9, fp, ip}	; <UNPREDICTABLE>
     468:	5b000003 	blpl	47c <__code_start__-0x7b84>
     46c:	01000003 	tsteq	r0, r3
     470:	03645300 	cmneq	r4, #0, 6
     474:	03680000 	cmneq	r8, #0
     478:	000a0000 	andeq	r0, sl, r0
     47c:	0c060070 	stceq	0, cr0, [r6], {112}	; 0x70
     480:	00ffffff 	ldrshteq	pc, [pc], #255	; <UNPREDICTABLE>
     484:	03689f1a 	cmneq	r8, #26, 30	; 0x68
     488:	036c0000 	cmneq	ip, #0
     48c:	000b0000 	andeq	r0, fp, r0
     490:	065001f3 			; <UNDEFINED> instruction: 0x065001f3
     494:	ffffff0c 			; <UNDEFINED> instruction: 0xffffff0c
     498:	6c9f1a00 	vldmiavs	pc, {s2-s1}
     49c:	78000003 	stmdavc	r0, {r0, r1}
     4a0:	01000003 	tsteq	r0, r3
     4a4:	00005300 	andeq	r5, r0, r0, lsl #6
	...
     4b0:	00240000 	eoreq	r0, r4, r0
     4b4:	00010000 	andeq	r0, r1, r0
     4b8:	00002450 	andeq	r2, r0, r0, asr r4
     4bc:	0001ac00 	andeq	sl, r1, r0, lsl #24
     4c0:	f3000400 	vshl.u8	d0, d0, d0
     4c4:	009f5001 	addseq	r5, pc, r1
	...
     4d0:	28000000 	stmdacs	r0, {}	; <UNPREDICTABLE>
     4d4:	01000000 	mrseq	r0, (UNDEF: 0)
     4d8:	00285100 	eoreq	r5, r8, r0, lsl #2
     4dc:	01780000 	cmneq	r8, r0
     4e0:	00010000 	andeq	r0, r1, r0
     4e4:	00017855 	andeq	r7, r1, r5, asr r8
     4e8:	0001ac00 	andeq	sl, r1, r0, lsl #24
     4ec:	f3000400 	vshl.u8	d0, d0, d0
     4f0:	009f5101 	addseq	r5, pc, r1, lsl #2
	...
     4fc:	2c000000 	stccs	0, cr0, [r0], {-0}
     500:	01000000 	mrseq	r0, (UNDEF: 0)
     504:	002c5200 	eoreq	r5, ip, r0, lsl #4
     508:	01ac0000 			; <UNDEFINED> instruction: 0x01ac0000
     50c:	00040000 	andeq	r0, r4, r0
     510:	9f5201f3 	svcls	0x005201f3
	...
     51c:	00000068 	andeq	r0, r0, r8, rrx
     520:	00000178 	andeq	r0, r0, r8, ror r1
     524:	00540001 	subseq	r0, r4, r1
     528:	00000000 	andeq	r0, r0, r0
     52c:	38000000 	stmdacc	r0, {}	; <UNPREDICTABLE>
     530:	3c000000 	stccc	0, cr0, [r0], {-0}
     534:	01000000 	mrseq	r0, (UNDEF: 0)
     538:	00005300 	andeq	r5, r0, r0, lsl #6
     53c:	00000000 	andeq	r0, r0, r0
     540:	01ac0000 			; <UNDEFINED> instruction: 0x01ac0000
     544:	01e80000 	mvneq	r0, r0
     548:	00010000 	andeq	r0, r1, r0
     54c:	0001e850 	andeq	lr, r1, r0, asr r8
     550:	00062c00 	andeq	r2, r6, r0, lsl #24
     554:	54000100 	strpl	r0, [r0], #-256	; 0x100
     558:	0000062c 	andeq	r0, r0, ip, lsr #12
     55c:	0000068c 	andeq	r0, r0, ip, lsl #13
     560:	01f30004 	mvnseq	r0, r4
     564:	00009f50 	andeq	r9, r0, r0, asr pc
     568:	00000000 	andeq	r0, r0, r0
     56c:	01bc0000 			; <UNDEFINED> instruction: 0x01bc0000
     570:	05080000 	streq	r0, [r8, #-0]
     574:	00010000 	andeq	r0, r1, r0
     578:	00000058 	andeq	r0, r0, r8, asr r0
     57c:	00000000 	andeq	r0, r0, r0
     580:	0002c000 	andeq	ip, r2, r0
     584:	00050800 	andeq	r0, r5, r0, lsl #16
     588:	58000100 	stmdapl	r0, {r8}
	...
     594:	000003e0 	andeq	r0, r0, r0, ror #7
     598:	0000062c 	andeq	r0, r0, ip, lsr #12
     59c:	00550001 	subseq	r0, r5, r1
     5a0:	00000000 	andeq	r0, r0, r0
     5a4:	04000000 	streq	r0, [r0], #-0
     5a8:	08000005 	stmdaeq	r0, {r0, r2}
     5ac:	01000005 	tsteq	r0, r5
     5b0:	00005800 	andeq	r5, r0, r0, lsl #16
     5b4:	00000000 	andeq	r0, r0, r0
     5b8:	05740000 	ldrbeq	r0, [r4, #-0]!
     5bc:	05780000 	ldrbeq	r0, [r8, #-0]!
     5c0:	00010000 	andeq	r0, r1, r0
     5c4:	00000053 	andeq	r0, r0, r3, asr r0
     5c8:	00000000 	andeq	r0, r0, r0
     5cc:	00068c00 	andeq	r8, r6, r0, lsl #24
     5d0:	00069000 	andeq	r9, r6, r0
     5d4:	50000100 	andpl	r0, r0, r0, lsl #2
     5d8:	00000690 	muleq	r0, r0, r6
     5dc:	00000694 	muleq	r0, r4, r6
     5e0:	01f30004 	mvnseq	r0, r4
     5e4:	00009f50 	andeq	r9, r0, r0, asr pc
     5e8:	00000000 	andeq	r0, r0, r0
     5ec:	06bc0000 	ldrteq	r0, [ip], r0
     5f0:	06c70000 	strbeq	r0, [r7], r0
     5f4:	00010000 	andeq	r0, r1, r0
     5f8:	0006c750 	andeq	ip, r6, r0, asr r7
     5fc:	00070800 	andeq	r0, r7, r0, lsl #16
     600:	54000100 	strpl	r0, [r0], #-256	; 0x100
	...
     60c:	0000002c 	andeq	r0, r0, ip, lsr #32
     610:	00000038 	andeq	r0, r0, r8, lsr r0
     614:	38500001 	ldmdacc	r0, {r0}^
     618:	48000000 	stmdami	r0, {}	; <UNPREDICTABLE>
     61c:	01000000 	mrseq	r0, (UNDEF: 0)
     620:	00485500 	subeq	r5, r8, r0, lsl #10
     624:	00580000 	subseq	r0, r8, r0
     628:	00010000 	andeq	r0, r1, r0
     62c:	00000050 	andeq	r0, r0, r0, asr r0
	...
     638:	00000b00 	andeq	r0, r0, r0, lsl #22
     63c:	50000100 	andpl	r0, r0, r0, lsl #2
     640:	0000000b 	andeq	r0, r0, fp
     644:	00000014 	andeq	r0, r0, r4, lsl r0
     648:	00540001 	subseq	r0, r4, r1
	...
     654:	10000000 	andne	r0, r0, r0
     658:	01000000 	mrseq	r0, (UNDEF: 0)
     65c:	00105000 	andseq	r5, r0, r0
     660:	00340000 	eorseq	r0, r4, r0
     664:	00010000 	andeq	r0, r1, r0
     668:	00000054 	andeq	r0, r0, r4, asr r0
	...
     674:	00000400 	andeq	r0, r0, r0, lsl #8
     678:	50000100 	andpl	r0, r0, r0, lsl #2
     67c:	00000004 	andeq	r0, r0, r4
     680:	0000000c 	andeq	r0, r0, ip
     684:	30700003 	rsbscc	r0, r0, r3
     688:	00000c9f 	muleq	r0, pc, ip	; <UNPREDICTABLE>
     68c:	00001400 	andeq	r1, r0, r0, lsl #8
     690:	f3000400 	vshl.u8	d0, d0, d0
     694:	009f5001 	addseq	r5, pc, r1
     698:	00000000 	andeq	r0, r0, r0
     69c:	14000000 	strne	r0, [r0], #-0
     6a0:	20000000 	andcs	r0, r0, r0
     6a4:	01000000 	mrseq	r0, (UNDEF: 0)
     6a8:	00205000 	eoreq	r5, r0, r0
     6ac:	002c0000 	eoreq	r0, ip, r0
     6b0:	00030000 	andeq	r0, r3, r0
     6b4:	2c9f0170 	ldfcss	f0, [pc], {112}	; 0x70
     6b8:	40000000 	andmi	r0, r0, r0
     6bc:	01000000 	mrseq	r0, (UNDEF: 0)
     6c0:	00005000 	andeq	r5, r0, r0
     6c4:	00000000 	andeq	r0, r0, r0
     6c8:	00140000 	andseq	r0, r4, r0
     6cc:	00180000 	andseq	r0, r8, r0
     6d0:	00010000 	andeq	r0, r1, r0
     6d4:	00001851 	andeq	r1, r0, r1, asr r8
     6d8:	00004000 	andeq	r4, r0, r0
     6dc:	f3000400 	vshl.u8	d0, d0, d0
     6e0:	009f5101 	addseq	r5, pc, r1, lsl #2
     6e4:	00000000 	andeq	r0, r0, r0
     6e8:	40000000 	andmi	r0, r0, r0
     6ec:	60000000 	andvs	r0, r0, r0
     6f0:	01000000 	mrseq	r0, (UNDEF: 0)
     6f4:	00605000 	rsbeq	r5, r0, r0
     6f8:	006c0000 	rsbeq	r0, ip, r0
     6fc:	00030000 	andeq	r0, r3, r0
     700:	6c9f0171 	ldfvss	f0, [pc], {113}	; 0x71
     704:	74000000 	strvc	r0, [r0], #-0
     708:	01000000 	mrseq	r0, (UNDEF: 0)
     70c:	00745100 	rsbseq	r5, r4, r0, lsl #2
     710:	00800000 	addeq	r0, r0, r0
     714:	00030000 	andeq	r0, r3, r0
     718:	009f0171 	addseq	r0, pc, r1, ror r1	; <UNPREDICTABLE>
     71c:	00000000 	andeq	r0, r0, r0
     720:	40000000 	andmi	r0, r0, r0
     724:	50000000 	andpl	r0, r0, r0
     728:	01000000 	mrseq	r0, (UNDEF: 0)
     72c:	00505100 	subseq	r5, r0, r0, lsl #2
     730:	00800000 	addeq	r0, r0, r0
     734:	00040000 	andeq	r0, r4, r0
     738:	9f5101f3 	svcls	0x005101f3
	...
     744:	00000040 	andeq	r0, r0, r0, asr #32
     748:	00000058 	andeq	r0, r0, r8, asr r0
     74c:	58520001 	ldmdapl	r2, {r0}^
     750:	64000000 	strvs	r0, [r0], #-0
     754:	01000000 	mrseq	r0, (UNDEF: 0)
     758:	00645200 	rsbeq	r5, r4, r0, lsl #4
     75c:	00680000 	rsbeq	r0, r8, r0
     760:	00030000 	andeq	r0, r3, r0
     764:	689f0172 	ldmvs	pc, {r1, r4, r5, r6, r8}	; <UNPREDICTABLE>
     768:	80000000 	andhi	r0, r0, r0
     76c:	01000000 	mrseq	r0, (UNDEF: 0)
     770:	00005200 	andeq	r5, r0, r0, lsl #4
     774:	00000000 	andeq	r0, r0, r0
     778:	00400000 	subeq	r0, r0, r0
     77c:	00540000 	subseq	r0, r4, r0
     780:	00010000 	andeq	r0, r1, r0
     784:	00005453 	andeq	r5, r0, r3, asr r4
     788:	00007800 	andeq	r7, r0, r0, lsl #16
     78c:	53000100 	movwpl	r0, #256	; 0x100
	...
     798:	00000048 	andeq	r0, r0, r8, asr #32
     79c:	00000060 	andeq	r0, r0, r0, rrx
     7a0:	605c0001 	subsvs	r0, ip, r1
     7a4:	80000000 	andhi	r0, r0, r0
     7a8:	0a000000 	beq	7b0 <__code_start__-0x7850>
     7ac:	5201f300 	andpl	pc, r1, #0, 6
     7b0:	1c5301f3 	ldfnee	f0, [r3], {243}	; 0xf3
     7b4:	009f0123 	addseq	r0, pc, r3, lsr #2
     7b8:	00000000 	andeq	r0, r0, r0
     7bc:	80000000 	andhi	r0, r0, r0
     7c0:	a4000000 	strge	r0, [r0], #-0
     7c4:	01000000 	mrseq	r0, (UNDEF: 0)
     7c8:	00a45000 	adceq	r5, r4, r0
     7cc:	01180000 	tsteq	r8, r0
     7d0:	00030000 	andeq	r0, r3, r0
     7d4:	189f0270 	ldmne	pc, {r4, r5, r6, r9}	; <UNPREDICTABLE>
     7d8:	3c000001 	stccc	0, cr0, [r0], {1}
     7dc:	04000002 	streq	r0, [r0], #-2
     7e0:	5001f300 	andpl	pc, r1, r0, lsl #6
     7e4:	0000009f 	muleq	r0, pc, r0	; <UNPREDICTABLE>
     7e8:	00000000 	andeq	r0, r0, r0
     7ec:	00008000 	andeq	r8, r0, r0
     7f0:	0000f000 	andeq	pc, r0, r0
     7f4:	51000100 	mrspl	r0, (UNDEF: 16)
     7f8:	000000f0 	strdeq	r0, [r0], -r0	; <UNPREDICTABLE>
     7fc:	00000160 	andeq	r0, r0, r0, ror #2
     800:	60550001 	subsvs	r0, r5, r1
     804:	6c000001 	stcvs	0, cr0, [r0], {1}
     808:	01000001 	tsteq	r0, r1
     80c:	016c5100 	cmneq	ip, r0, lsl #2
     810:	01a00000 	moveq	r0, r0
     814:	00010000 	andeq	r0, r1, r0
     818:	0001a055 	andeq	sl, r1, r5, asr r0
     81c:	0001b400 	andeq	fp, r1, r0, lsl #8
     820:	51000100 	mrspl	r0, (UNDEF: 16)
     824:	000001b4 			; <UNDEFINED> instruction: 0x000001b4
     828:	000001d4 	ldrdeq	r0, [r0], -r4
     82c:	d4550001 	ldrble	r0, [r5], #-1
     830:	d7000001 	strle	r0, [r0, -r1]
     834:	01000001 	tsteq	r0, r1
     838:	01d75100 	bicseq	r5, r7, r0, lsl #2
     83c:	021c0000 	andseq	r0, ip, #0
     840:	00010000 	andeq	r0, r1, r0
     844:	00021c55 	andeq	r1, r2, r5, asr ip
     848:	00023c00 	andeq	r3, r2, r0, lsl #24
     84c:	f3000400 	vshl.u8	d0, d0, d0
     850:	009f5101 	addseq	r5, pc, r1, lsl #2
     854:	00000000 	andeq	r0, r0, r0
     858:	80000000 	andhi	r0, r0, r0
     85c:	94000000 	strls	r0, [r0], #-0
     860:	01000000 	mrseq	r0, (UNDEF: 0)
     864:	00945200 	addseq	r5, r4, r0, lsl #4
     868:	021c0000 	andseq	r0, ip, #0
     86c:	00010000 	andeq	r0, r1, r0
     870:	00021c54 	andeq	r1, r2, r4, asr ip
     874:	00023c00 	andeq	r3, r2, r0, lsl #24
     878:	f3000400 	vshl.u8	d0, d0, d0
     87c:	009f5201 	addseq	r5, pc, r1, lsl #4
     880:	00000000 	andeq	r0, r0, r0
     884:	80000000 	andhi	r0, r0, r0
     888:	00000000 	andeq	r0, r0, r0
     88c:	01000001 	tsteq	r0, r1
     890:	01045300 	mrseq	r5, LR_abt
     894:	01080000 	mrseq	r0, (UNDEF: 8)
     898:	00010000 	andeq	r0, r1, r0
     89c:	00016053 	andeq	r6, r1, r3, asr r0
     8a0:	00016400 	andeq	r6, r1, r0, lsl #8
     8a4:	53000100 	movwpl	r0, #256	; 0x100
     8a8:	00000164 	andeq	r0, r0, r4, ror #2
     8ac:	0000016c 	andeq	r0, r0, ip, ror #2
     8b0:	6c5c0001 	mrrcvs	0, 0, r0, ip, cr1
     8b4:	a0000001 	andge	r0, r0, r1
     8b8:	04000001 	streq	r0, [r0], #-1
     8bc:	5301f300 	movwpl	pc, #4864	; 0x1300	; <UNPREDICTABLE>
     8c0:	0001a09f 	muleq	r1, pc, r0	; <UNPREDICTABLE>
     8c4:	0001b000 	andeq	fp, r1, r0
     8c8:	53000100 	movwpl	r0, #256	; 0x100
     8cc:	000001b0 			; <UNDEFINED> instruction: 0x000001b0
     8d0:	000001b4 			; <UNDEFINED> instruction: 0x000001b4
     8d4:	b45c0001 	ldrblt	r0, [ip], #-1
     8d8:	d4000001 	strle	r0, [r0], #-1
     8dc:	04000001 	streq	r0, [r0], #-1
     8e0:	5301f300 	movwpl	pc, #4864	; 0x1300	; <UNPREDICTABLE>
     8e4:	0001d49f 	muleq	r1, pc, r4	; <UNPREDICTABLE>
     8e8:	0001d700 	andeq	sp, r1, r0, lsl #14
     8ec:	53000100 	movwpl	r0, #256	; 0x100
     8f0:	000001d7 	ldrdeq	r0, [r0], -r7
     8f4:	000001f8 	strdeq	r0, [r0], -r8
     8f8:	01f30004 	mvnseq	r0, r4
     8fc:	00009f53 	andeq	r9, r0, r3, asr pc
     900:	00000000 	andeq	r0, r0, r0
     904:	00800000 	addeq	r0, r0, r0
     908:	009c0000 	addseq	r0, ip, r0
     90c:	00020000 	andeq	r0, r2, r0
     910:	009c0091 	umullseq	r0, ip, r1, r0
     914:	01d70000 	bicseq	r0, r7, r0
     918:	00010000 	andeq	r0, r1, r0
     91c:	0001f852 	andeq	pc, r1, r2, asr r8	; <UNPREDICTABLE>
     920:	0001ff00 	andeq	pc, r1, r0, lsl #30
     924:	52000100 	andpl	r0, r0, #0, 2
	...
     930:	0000009c 	muleq	r0, ip, r0
     934:	0000010c 	andeq	r0, r0, ip, lsl #2
     938:	a0910004 	addsge	r0, r1, r4
     93c:	010c9f7f 	tsteq	ip, pc, ror pc
     940:	01180000 	tsteq	r8, r0
     944:	00010000 	andeq	r0, r1, r0
     948:	00011851 	andeq	r1, r1, r1, asr r8
     94c:	00011c00 	andeq	r1, r1, r0, lsl #24
     950:	50000100 	andpl	r0, r0, r0, lsl #2
     954:	0000011c 	andeq	r0, r0, ip, lsl r1
     958:	00000120 	andeq	r0, r0, r0, lsr #2
     95c:	20510001 	subscs	r0, r1, r1
     960:	60000001 	andvs	r0, r0, r1
     964:	01000001 	tsteq	r0, r1
     968:	01605000 	cmneq	r0, r0
     96c:	01640000 	cmneq	r4, r0
     970:	00040000 	andeq	r0, r4, r0
     974:	9f7fa091 	svcls	0x007fa091
     978:	00000164 	andeq	r0, r0, r4, ror #2
     97c:	0000016c 	andeq	r0, r0, ip, ror #2
     980:	6c530001 	mrrcvs	0, 0, r0, r3, cr1
     984:	70000001 	andvc	r0, r0, r1
     988:	01000001 	tsteq	r0, r1
     98c:	01705000 	cmneq	r0, r0
     990:	01740000 	cmneq	r4, r0
     994:	00010000 	andeq	r0, r1, r0
     998:	00017453 	andeq	r7, r1, r3, asr r4
     99c:	00018800 	andeq	r8, r1, r0, lsl #16
     9a0:	50000100 	andpl	r0, r0, r0, lsl #2
     9a4:	00000188 	andeq	r0, r0, r8, lsl #3
     9a8:	00000194 	muleq	r0, r4, r1
     9ac:	01700003 	cmneq	r0, r3
     9b0:	0001949f 	muleq	r1, pc, r4	; <UNPREDICTABLE>
     9b4:	0001a000 	andeq	sl, r1, r0
     9b8:	50000100 	andpl	r0, r0, r0, lsl #2
     9bc:	000001a0 	andeq	r0, r0, r0, lsr #3
     9c0:	000001a8 	andeq	r0, r0, r8, lsr #3
     9c4:	a1910004 	orrsge	r0, r1, r4
     9c8:	01a89f7f 			; <UNDEFINED> instruction: 0x01a89f7f
     9cc:	01ac0000 			; <UNDEFINED> instruction: 0x01ac0000
     9d0:	00010000 	andeq	r0, r1, r0
     9d4:	0001ac50 	andeq	sl, r1, r0, asr ip
     9d8:	0001b000 	andeq	fp, r1, r0
     9dc:	91000400 	tstls	r0, r0, lsl #8
     9e0:	b09f7fa0 	addslt	r7, pc, r0, lsr #31
     9e4:	b8000001 	stmdalt	r0, {r0}
     9e8:	01000001 	tsteq	r0, r1
     9ec:	01b85300 			; <UNDEFINED> instruction: 0x01b85300
     9f0:	01d40000 	bicseq	r0, r4, r0
     9f4:	00010000 	andeq	r0, r1, r0
     9f8:	0001d450 	andeq	sp, r1, r0, asr r4
     9fc:	0001f800 	andeq	pc, r1, r0, lsl #16
     a00:	91000400 	tstls	r0, r0, lsl #8
     a04:	f89f7fa0 			; <UNDEFINED> instruction: 0xf89f7fa0
     a08:	ff000001 			; <UNDEFINED> instruction: 0xff000001
     a0c:	01000001 	tsteq	r0, r1
     a10:	00005000 	andeq	r5, r0, r0
     a14:	00000000 	andeq	r0, r0, r0
     a18:	00a00000 	adceq	r0, r0, r0
     a1c:	00ec0000 	rsceq	r0, ip, r0
     a20:	00010000 	andeq	r0, r1, r0
     a24:	0000ec5c 	andeq	lr, r0, ip, asr ip
     a28:	00010000 	andeq	r0, r1, r0
     a2c:	53000100 	movwpl	r0, #256	; 0x100
     a30:	00000100 	andeq	r0, r0, r0, lsl #2
     a34:	00000104 	andeq	r0, r0, r4, lsl #2
     a38:	045c0001 	ldrbeq	r0, [ip], #-1
     a3c:	08000001 	stmdaeq	r0, {r0}
     a40:	01000001 	tsteq	r0, r1
     a44:	01085300 	mrseq	r5, (UNDEF: 56)
     a48:	01600000 	cmneq	r0, r0
     a4c:	00010000 	andeq	r0, r1, r0
     a50:	0001605c 	andeq	r6, r1, ip, asr r0
     a54:	00016400 	andeq	r6, r1, r0, lsl #8
     a58:	53000100 	movwpl	r0, #256	; 0x100
     a5c:	00000164 	andeq	r0, r0, r4, ror #2
     a60:	00000180 	andeq	r0, r0, r0, lsl #3
     a64:	805c0001 	subshi	r0, ip, r1
     a68:	84000001 	strhi	r0, [r0], #-1
     a6c:	05000001 	streq	r0, [r0, #-1]
     a70:	34007c00 	strcc	r7, [r0], #-3072	; 0xc00
     a74:	01849f25 	orreq	r9, r4, r5, lsr #30
     a78:	01a00000 	moveq	r0, r0
     a7c:	00010000 	andeq	r0, r1, r0
     a80:	0001a05c 	andeq	sl, r1, ip, asr r0
     a84:	0001b000 	andeq	fp, r1, r0
     a88:	53000100 	movwpl	r0, #256	; 0x100
     a8c:	000001b0 			; <UNDEFINED> instruction: 0x000001b0
     a90:	000001c4 	andeq	r0, r0, r4, asr #3
     a94:	c45c0001 	ldrbgt	r0, [ip], #-1
     a98:	cc000001 	stcgt	0, cr0, [r0], {1}
     a9c:	05000001 	streq	r0, [r0, #-1]
     aa0:	31007c00 	tstcc	r0, r0, lsl #24
     aa4:	01cc9f25 	biceq	r9, ip, r5, lsr #30
     aa8:	01d40000 	bicseq	r0, r4, r0
     aac:	00010000 	andeq	r0, r1, r0
     ab0:	0001d45c 	andeq	sp, r1, ip, asr r4
     ab4:	0001d700 	andeq	sp, r1, r0, lsl #14
     ab8:	53000100 	movwpl	r0, #256	; 0x100
     abc:	000001d7 	ldrdeq	r0, [r0], -r7
     ac0:	000001f8 	strdeq	r0, [r0], -r8
     ac4:	01f30004 	mvnseq	r0, r4
     ac8:	01f89f53 	mvnseq	r9, r3, asr pc
     acc:	01ff0000 	mvnseq	r0, r0
     ad0:	00010000 	andeq	r0, r1, r0
     ad4:	0000005c 	andeq	r0, r0, ip, asr r0
     ad8:	00000000 	andeq	r0, r0, r0
     adc:	0000ec00 	andeq	lr, r0, r0, lsl #24
     ae0:	0000fc00 	andeq	pc, r0, r0, lsl #24
     ae4:	30000200 	andcc	r0, r0, r0, lsl #4
     ae8:	0000fc9f 	muleq	r0, pc, ip	; <UNPREDICTABLE>
     aec:	00010400 	andeq	r0, r1, r0, lsl #8
     af0:	31000200 	mrscc	r0, R8_usr
     af4:	0001049f 	muleq	r1, pc, r4	; <UNPREDICTABLE>
     af8:	00010800 	andeq	r0, r1, r0, lsl #16
     afc:	30000200 	andcc	r0, r0, r0, lsl #4
     b00:	0000009f 	muleq	r0, pc, r0	; <UNPREDICTABLE>
     b04:	00000000 	andeq	r0, r0, r0
     b08:	00023c00 	andeq	r3, r2, r0, lsl #24
     b0c:	00024f00 	andeq	r4, r2, r0, lsl #30
     b10:	50000100 	andpl	r0, r0, r0, lsl #2
     b14:	0000024f 	andeq	r0, r0, pc, asr #4
     b18:	00000270 	andeq	r0, r0, r0, ror r2
     b1c:	01f30004 	mvnseq	r0, r4
     b20:	02709f50 	rsbseq	r9, r0, #80, 30	; 0x140
     b24:	02a40000 	adceq	r0, r4, #0
     b28:	00010000 	andeq	r0, r1, r0
     b2c:	00000050 	andeq	r0, r0, r0, asr r0
     b30:	00000000 	andeq	r0, r0, r0
     b34:	00023c00 	andeq	r3, r2, r0, lsl #24
     b38:	00024f00 	andeq	r4, r2, r0, lsl #30
     b3c:	51000100 	mrspl	r0, (UNDEF: 16)
     b40:	0000024f 	andeq	r0, r0, pc, asr #4
     b44:	00000270 	andeq	r0, r0, r0, ror r2
     b48:	01f30004 	mvnseq	r0, r4
     b4c:	02709f51 	rsbseq	r9, r0, #324	; 0x144
     b50:	02a40000 	adceq	r0, r4, #0
     b54:	00010000 	andeq	r0, r1, r0
     b58:	00000051 	andeq	r0, r0, r1, asr r0
     b5c:	00000000 	andeq	r0, r0, r0
     b60:	0002a400 	andeq	sl, r2, r0, lsl #8
     b64:	0002d400 	andeq	sp, r2, r0, lsl #8
     b68:	50000100 	andpl	r0, r0, r0, lsl #2
     b6c:	000002d4 	ldrdeq	r0, [r0], -r4
     b70:	00000558 	andeq	r0, r0, r8, asr r5
     b74:	585b0001 	ldmdapl	fp, {r0}^
     b78:	78000005 	stmdavc	r0, {r0, r2}
     b7c:	04000005 	streq	r0, [r0], #-5
     b80:	5001f300 	andpl	pc, r1, r0, lsl #6
     b84:	0000009f 	muleq	r0, pc, r0	; <UNPREDICTABLE>
     b88:	00000000 	andeq	r0, r0, r0
     b8c:	0002a400 	andeq	sl, r2, r0, lsl #8
     b90:	0002bc00 	andeq	fp, r2, r0, lsl #24
     b94:	51000100 	mrspl	r0, (UNDEF: 16)
     b98:	000002bc 			; <UNDEFINED> instruction: 0x000002bc
     b9c:	000002d4 	ldrdeq	r0, [r0], -r4
     ba0:	01710003 	cmneq	r1, r3
     ba4:	0002d49f 	muleq	r2, pc, r4	; <UNPREDICTABLE>
     ba8:	00057800 	andeq	r7, r5, r0, lsl #16
     bac:	f3000400 	vshl.u8	d0, d0, d0
     bb0:	009f5101 	addseq	r5, pc, r1, lsl #2
     bb4:	00000000 	andeq	r0, r0, r0
     bb8:	a4000000 	strge	r0, [r0], #-0
     bbc:	d4000002 	strle	r0, [r0], #-2
     bc0:	01000002 	tsteq	r0, r2
     bc4:	02d45200 	sbcseq	r5, r4, #0, 4
     bc8:	05580000 	ldrbeq	r0, [r8, #-0]
     bcc:	00010000 	andeq	r0, r1, r0
     bd0:	00000056 	andeq	r0, r0, r6, asr r0
     bd4:	00000000 	andeq	r0, r0, r0
     bd8:	0002a400 	andeq	sl, r2, r0, lsl #8
     bdc:	0002c400 	andeq	ip, r2, r0, lsl #8
     be0:	53000100 	movwpl	r0, #256	; 0x100
	...
     bec:	000002b8 			; <UNDEFINED> instruction: 0x000002b8
     bf0:	000002d4 	ldrdeq	r0, [r0], -r4
     bf4:	d4500001 	ldrble	r0, [r0], #-1
     bf8:	d8000002 	stmdale	r0, {r1}
     bfc:	01000002 	tsteq	r0, r2
     c00:	02d85400 	sbcseq	r5, r8, #0, 8
     c04:	02e40000 	rsceq	r0, r4, #0
     c08:	00030000 	andeq	r0, r3, r0
     c0c:	e49f0174 	ldr	r0, [pc], #372	; c14 <__code_start__-0x73ec>
     c10:	f0000002 			; <UNDEFINED> instruction: 0xf0000002
     c14:	01000002 	tsteq	r0, r2
     c18:	02f05400 	rscseq	r5, r0, #0, 8
     c1c:	02fc0000 	rscseq	r0, ip, #0
     c20:	00030000 	andeq	r0, r3, r0
     c24:	fc9f0174 	ldc2	1, cr0, [pc], {116}	; 0x74
     c28:	0c000002 	stceq	0, cr0, [r0], {2}
     c2c:	01000005 	tsteq	r0, r5
     c30:	050c5400 	streq	r5, [ip, #-1024]	; 0x400
     c34:	05180000 	ldreq	r0, [r8, #-0]
     c38:	00030000 	andeq	r0, r3, r0
     c3c:	189f0174 	ldmne	pc, {r2, r4, r5, r6, r8}	; <UNPREDICTABLE>
     c40:	44000005 	strmi	r0, [r0], #-5
     c44:	01000005 	tsteq	r0, r5
     c48:	05445400 	strbeq	r5, [r4, #-1024]	; 0x400
     c4c:	05500000 	ldrbeq	r0, [r0, #-0]
     c50:	00010000 	andeq	r0, r1, r0
     c54:	00055050 	andeq	r5, r5, r0, asr r0
     c58:	00055800 	andeq	r5, r5, r0, lsl #16
     c5c:	74000300 	strvc	r0, [r0], #-768	; 0x300
     c60:	00009f01 	andeq	r9, r0, r1, lsl #30
     c64:	00000000 	andeq	r0, r0, r0
     c68:	02c00000 	sbceq	r0, r0, #0
     c6c:	05580000 	ldrbeq	r0, [r8, #-0]
     c70:	00010000 	andeq	r0, r1, r0
     c74:	00055858 	andeq	r5, r5, r8, asr r8
     c78:	00057800 	andeq	r7, r5, r0, lsl #16
     c7c:	f3000a00 	vpmax.u8	d0, d0, d0
     c80:	01f35101 	mvnseq	r5, r1, lsl #2
     c84:	1c312250 	lfmne	f2, 4, [r1], #-320	; 0xfffffec0
     c88:	0000009f 	muleq	r0, pc, r0	; <UNPREDICTABLE>
     c8c:	00000000 	andeq	r0, r0, r0
     c90:	0002c800 	andeq	ip, r2, r0, lsl #16
     c94:	0002d400 	andeq	sp, r2, r0, lsl #8
     c98:	52000100 	andpl	r0, r0, #0, 2
     c9c:	000002d4 	ldrdeq	r0, [r0], -r4
     ca0:	00000578 	andeq	r0, r0, r8, ror r5
     ca4:	cc910003 	ldcgt	0, cr0, [r1], {3}
     ca8:	0000007e 	andeq	r0, r0, lr, ror r0
     cac:	00000000 	andeq	r0, r0, r0
     cb0:	00041000 	andeq	r1, r4, r0
     cb4:	00041400 	andeq	r1, r4, r0, lsl #8
     cb8:	50000100 	andpl	r0, r0, r0, lsl #2
     cbc:	00000438 	andeq	r0, r0, r8, lsr r4
     cc0:	0000043c 	andeq	r0, r0, ip, lsr r4
     cc4:	60500001 	subsvs	r0, r0, r1
     cc8:	64000004 	strvs	r0, [r0], #-4
     ccc:	01000004 	tsteq	r0, r4
     cd0:	04885000 	streq	r5, [r8], #0
     cd4:	048c0000 	streq	r0, [ip], #0
     cd8:	00010000 	andeq	r0, r1, r0
     cdc:	00049450 	andeq	r9, r4, r0, asr r4
     ce0:	00049800 	andeq	r9, r4, r0, lsl #16
     ce4:	50000100 	andpl	r0, r0, r0, lsl #2
     ce8:	000004bc 			; <UNDEFINED> instruction: 0x000004bc
     cec:	000004c0 	andeq	r0, r0, r0, asr #9
     cf0:	04500001 	ldrbeq	r0, [r0], #-1
     cf4:	2c000005 	stccs	0, cr0, [r0], {5}
     cf8:	01000005 	tsteq	r0, r5
     cfc:	00005000 	andeq	r5, r0, r0
     d00:	00000000 	andeq	r0, r0, r0
     d04:	03040000 	movweq	r0, #16384	; 0x4000
     d08:	030c0000 	movweq	r0, #49152	; 0xc000
     d0c:	00020000 	andeq	r0, r2, r0
     d10:	030c9f30 	movweq	r9, #53040	; 0xcf30
     d14:	03100000 	tsteq	r0, #0
     d18:	00010000 	andeq	r0, r1, r0
     d1c:	00031c57 	andeq	r1, r3, r7, asr ip
     d20:	00052c00 	andeq	r2, r5, r0, lsl #24
     d24:	57000100 	strpl	r0, [r0, -r0, lsl #2]
	...
     d30:	00000004 	andeq	r0, r0, r4
     d34:	00000008 	andeq	r0, r0, r8
     d38:	00730007 	rsbseq	r0, r3, r7
     d3c:	2110000a 	tstcs	r0, sl
     d40:	0000089f 	muleq	r0, pc, r8	; <UNPREDICTABLE>
     d44:	00001000 	andeq	r1, r0, r0
     d48:	53000100 	movwpl	r0, #256	; 0x100
	...
     d54:	00000014 	andeq	r0, r0, r4, lsl r0
     d58:	00000018 	andeq	r0, r0, r8, lsl r0
     d5c:	00730007 	rsbseq	r0, r3, r7
     d60:	1aefff0b 	bne	ffc00994 <__bss_end__+0xffbf635c>
     d64:	0000189f 	muleq	r0, pc, r8	; <UNPREDICTABLE>
     d68:	00002000 	andeq	r2, r0, r0
     d6c:	53000100 	movwpl	r0, #256	; 0x100
	...
     d78:	00000014 	andeq	r0, r0, r4, lsl r0
     d7c:	0000001c 	andeq	r0, r0, ip, lsl r0
     d80:	04730003 	ldrbteq	r0, [r3], #-3
     d84:	00001c9f 	muleq	r0, pc, ip	; <UNPREDICTABLE>
     d88:	00002700 	andeq	r2, r0, r0, lsl #14
     d8c:	53000100 	movwpl	r0, #256	; 0x100
	...
     d9c:	0000000f 	andeq	r0, r0, pc
     da0:	0f500001 	svceq	0x00500001
     da4:	44000000 	strmi	r0, [r0], #-0
     da8:	01000000 	mrseq	r0, (UNDEF: 0)
     dac:	00005400 	andeq	r5, r0, r0, lsl #8
	...
     db8:	000f0000 	andeq	r0, pc, r0
     dbc:	00010000 	andeq	r0, r1, r0
     dc0:	00000f50 	andeq	r0, r0, r0, asr pc
     dc4:	00004400 	andeq	r4, r0, r0, lsl #8
     dc8:	54000100 	strpl	r0, [r0], #-256	; 0x100
	...
     dd8:	0000000f 	andeq	r0, r0, pc
     ddc:	0f500001 	svceq	0x00500001
     de0:	44000000 	strmi	r0, [r0], #-0
     de4:	01000000 	mrseq	r0, (UNDEF: 0)
     de8:	00005400 	andeq	r5, r0, r0, lsl #8
     dec:	00000000 	andeq	r0, r0, r0
     df0:	00340000 	eorseq	r0, r4, r0
     df4:	00400000 	subeq	r0, r0, r0
     df8:	00020000 	andeq	r0, r2, r0
     dfc:	00409f30 	subeq	r9, r0, r0, lsr pc
     e00:	006c0000 	rsbeq	r0, ip, r0
     e04:	00010000 	andeq	r0, r1, r0
     e08:	00000053 	andeq	r0, r0, r3, asr r0
     e0c:	00000000 	andeq	r0, r0, r0
     e10:	00963000 	addseq	r3, r6, r0
     e14:	00963400 	addseq	r3, r6, r0, lsl #8
     e18:	30000200 	andcc	r0, r0, r0, lsl #4
     e1c:	0096349f 	umullseq	r3, r6, pc, r4	; <UNPREDICTABLE>
     e20:	00963800 	addseq	r3, r6, r0, lsl #16
     e24:	50000100 	andpl	r0, r0, r0, lsl #2
	...
     e30:	00009648 	andeq	r9, r0, r8, asr #12
     e34:	0000964c 	andeq	r9, r0, ip, asr #12
     e38:	9f300002 	svcls	0x00300002
     e3c:	0000964c 	andeq	r9, r0, ip, asr #12
     e40:	00009650 	andeq	r9, r0, r0, asr r6
     e44:	54530001 	ldrbpl	r0, [r3], #-1
     e48:	5c000096 	stcpl	0, cr0, [r0], {150}	; 0x96
     e4c:	01000096 	swpeq	r0, r6, [r0]	; <UNPREDICTABLE>
     e50:	00005300 	andeq	r5, r0, r0, lsl #6
	...
     e5c:	00040000 	andeq	r0, r4, r0
     e60:	00010000 	andeq	r0, r1, r0
     e64:	00000450 	andeq	r0, r0, r0, asr r4
     e68:	00000c00 	andeq	r0, r0, r0, lsl #24
     e6c:	53000100 	movwpl	r0, #256	; 0x100
     e70:	0000000c 	andeq	r0, r0, ip
     e74:	00000010 	andeq	r0, r0, r0, lsl r0
     e78:	10500001 	subsne	r0, r0, r1
     e7c:	1c000000 	stcne	0, cr0, [r0], {-0}
     e80:	01000000 	mrseq	r0, (UNDEF: 0)
     e84:	00005300 	andeq	r5, r0, r0, lsl #6
     e88:	00000000 	andeq	r0, r0, r0
     e8c:	00400000 	subeq	r0, r0, r0
     e90:	00430000 	subeq	r0, r3, r0
     e94:	00010000 	andeq	r0, r1, r0
     e98:	00004350 	andeq	r4, r0, r0, asr r3
     e9c:	00004c00 	andeq	r4, r0, r0, lsl #24
     ea0:	54000100 	strpl	r0, [r0], #-256	; 0x100
	...
     eac:	0000004c 	andeq	r0, r0, ip, asr #32
     eb0:	00000057 	andeq	r0, r0, r7, asr r0
     eb4:	57500001 	ldrbpl	r0, [r0, -r1]
     eb8:	70000000 	andvc	r0, r0, r0
     ebc:	01000000 	mrseq	r0, (UNDEF: 0)
     ec0:	00005500 	andeq	r5, r0, r0, lsl #10
     ec4:	00000000 	andeq	r0, r0, r0
     ec8:	00600000 	rsbeq	r0, r0, r0
     ecc:	00640000 	rsbeq	r0, r4, r0
     ed0:	00010000 	andeq	r0, r1, r0
     ed4:	00000050 	andeq	r0, r0, r0, asr r0
     ed8:	00000000 	andeq	r0, r0, r0
     edc:	00007000 	andeq	r7, r0, r0
     ee0:	00007c00 	andeq	r7, r0, r0, lsl #24
     ee4:	50000100 	andpl	r0, r0, r0, lsl #2
     ee8:	0000007c 	andeq	r0, r0, ip, ror r0
     eec:	00000084 	andeq	r0, r0, r4, lsl #1
     ef0:	01f30004 	mvnseq	r0, r4
     ef4:	00009f50 	andeq	r9, r0, r0, asr pc
     ef8:	00000000 	andeq	r0, r0, r0
     efc:	00840000 	addeq	r0, r4, r0
     f00:	00900000 	addseq	r0, r0, r0
     f04:	00010000 	andeq	r0, r1, r0
     f08:	00009050 	andeq	r9, r0, r0, asr r0
     f0c:	00009800 	andeq	r9, r0, r0, lsl #16
     f10:	f3000400 	vshl.u8	d0, d0, d0
     f14:	009f5001 	addseq	r5, pc, r1
     f18:	00000000 	andeq	r0, r0, r0
     f1c:	38000000 	stmdacc	r0, {}	; <UNPREDICTABLE>
     f20:	43000001 	movwmi	r0, #1
     f24:	01000001 	tsteq	r0, r1
     f28:	01435000 	mrseq	r5, (UNDEF: 67)
     f2c:	01680000 	cmneq	r8, r0
     f30:	00010000 	andeq	r0, r1, r0
     f34:	00000054 	andeq	r0, r0, r4, asr r0
	...
     f40:	00000f00 	andeq	r0, r0, r0, lsl #30
     f44:	50000100 	andpl	r0, r0, r0, lsl #2
     f48:	0000000f 	andeq	r0, r0, pc
     f4c:	00000020 	andeq	r0, r0, r0, lsr #32
     f50:	00540001 	subseq	r0, r4, r1
	...
     f5c:	0f000000 	svceq	0x00000000
     f60:	01000000 	mrseq	r0, (UNDEF: 0)
     f64:	000f5100 	andeq	r5, pc, r0, lsl #2
     f68:	00200000 	eoreq	r0, r0, r0
     f6c:	00010000 	andeq	r0, r1, r0
     f70:	00000055 	andeq	r0, r0, r5, asr r0
     f74:	00000000 	andeq	r0, r0, r0
     f78:	0000ec00 	andeq	lr, r0, r0, lsl #24
     f7c:	00010400 	andeq	r0, r1, r0, lsl #8
     f80:	50000100 	andpl	r0, r0, r0, lsl #2
     f84:	00000104 	andeq	r0, r0, r4, lsl #2
     f88:	00000114 	andeq	r0, r0, r4, lsl r1
     f8c:	01f30004 	mvnseq	r0, r4
     f90:	01149f50 	tsteq	r4, r0, asr pc
     f94:	01180000 	tsteq	r8, r0
     f98:	00010000 	andeq	r0, r1, r0
     f9c:	00011850 	andeq	r1, r1, r0, asr r8
     fa0:	00012000 	andeq	r2, r1, r0
     fa4:	f3000400 	vshl.u8	d0, d0, d0
     fa8:	009f5001 	addseq	r5, pc, r1
     fac:	00000000 	andeq	r0, r0, r0
     fb0:	f8000000 			; <UNDEFINED> instruction: 0xf8000000
     fb4:	04000000 	streq	r0, [r0], #-0
     fb8:	0b000001 	bleq	fc4 <__code_start__-0x703c>
     fbc:	35007000 	strcc	r7, [r0, #-0]
     fc0:	80b42325 	adcshi	r2, r4, r5, lsr #6
     fc4:	9f028180 	svcls	0x00028180
     fc8:	00000104 	andeq	r0, r0, r4, lsl #2
     fcc:	00000107 	andeq	r0, r0, r7, lsl #2
     fd0:	07500001 	ldrbeq	r0, [r0, -r1]
     fd4:	14000001 	strne	r0, [r0], #-1
     fd8:	0c000001 	stceq	0, cr0, [r0], {1}
     fdc:	5001f300 	andpl	pc, r1, r0, lsl #6
     fe0:	b4232535 	strtlt	r2, [r3], #-1333	; 0x535
     fe4:	02818080 	addeq	r8, r1, #128	; 0x80
     fe8:	0000009f 	muleq	r0, pc, r0	; <UNPREDICTABLE>
     fec:	00000000 	andeq	r0, r0, r0
     ff0:	0000fc00 	andeq	pc, r0, r0, lsl #24
     ff4:	00011400 	andeq	r1, r1, r0, lsl #8
     ff8:	54000100 	strpl	r0, [r0], #-256	; 0x100
	...
    1004:	000000d0 	ldrdeq	r0, [r0], -r0	; <UNPREDICTABLE>
    1008:	000000df 	ldrdeq	r0, [r0], -pc	; <UNPREDICTABLE>
    100c:	df500001 	svcle	0x00500001
    1010:	e4000000 	str	r0, [r0], #-0
    1014:	04000000 	streq	r0, [r0], #-0
    1018:	5001f300 	andpl	pc, r1, r0, lsl #6
    101c:	0000e49f 	muleq	r0, pc, r4	; <UNPREDICTABLE>
    1020:	0000e700 	andeq	lr, r0, r0, lsl #14
    1024:	50000100 	andpl	r0, r0, r0, lsl #2
    1028:	000000e7 	andeq	r0, r0, r7, ror #1
    102c:	000000ec 	andeq	r0, r0, ip, ror #1
    1030:	01f30004 	mvnseq	r0, r4
    1034:	00009f50 	andeq	r9, r0, r0, asr pc
    1038:	00000000 	andeq	r0, r0, r0
    103c:	00d00000 	sbcseq	r0, r0, r0
    1040:	00df0000 	sbcseq	r0, pc, r0
    1044:	00010000 	andeq	r0, r1, r0
    1048:	0000df51 	andeq	sp, r0, r1, asr pc
    104c:	0000e400 	andeq	lr, r0, r0, lsl #8
    1050:	f3000400 	vshl.u8	d0, d0, d0
    1054:	e49f5101 	ldr	r5, [pc], #257	; 105c <__code_start__-0x6fa4>
    1058:	e7000000 	str	r0, [r0, -r0]
    105c:	01000000 	mrseq	r0, (UNDEF: 0)
    1060:	00e75100 	rsceq	r5, r7, r0, lsl #2
    1064:	00ec0000 	rsceq	r0, ip, r0
    1068:	00040000 	andeq	r0, r4, r0
    106c:	9f5101f3 	svcls	0x005101f3
	...
    1078:	000000c0 	andeq	r0, r0, r0, asr #1
    107c:	000000cb 	andeq	r0, r0, fp, asr #1
    1080:	cb500001 	blgt	140108c <__bss_end__+0x13f6a54>
    1084:	d0000000 	andle	r0, r0, r0
    1088:	04000000 	streq	r0, [r0], #-0
    108c:	5001f300 	andpl	pc, r1, r0, lsl #6
    1090:	0000009f 	muleq	r0, pc, r0	; <UNPREDICTABLE>
    1094:	00000000 	andeq	r0, r0, r0
    1098:	00009c00 	andeq	r9, r0, r0, lsl #24
    109c:	0000b400 	andeq	fp, r0, r0, lsl #8
    10a0:	50000100 	andpl	r0, r0, r0, lsl #2
    10a4:	000000b4 	strheq	r0, [r0], -r4
    10a8:	000000c0 	andeq	r0, r0, r0, asr #1
    10ac:	01f30004 	mvnseq	r0, r4
    10b0:	00009f50 	andeq	r9, r0, r0, asr pc
    10b4:	00000000 	andeq	r0, r0, r0
    10b8:	00780000 	rsbseq	r0, r8, r0
    10bc:	00900000 	addseq	r0, r0, r0
    10c0:	00010000 	andeq	r0, r1, r0
    10c4:	00009050 	andeq	r9, r0, r0, asr r0
    10c8:	00009c00 	andeq	r9, r0, r0, lsl #24
    10cc:	f3000400 	vshl.u8	d0, d0, d0
    10d0:	009f5001 	addseq	r5, pc, r1
    10d4:	00000000 	andeq	r0, r0, r0
    10d8:	68000000 	stmdavs	r0, {}	; <UNPREDICTABLE>
    10dc:	73000000 	movwvc	r0, #0
    10e0:	01000000 	mrseq	r0, (UNDEF: 0)
    10e4:	00735000 	rsbseq	r5, r3, r0
    10e8:	00780000 	rsbseq	r0, r8, r0
    10ec:	00040000 	andeq	r0, r4, r0
    10f0:	9f5001f3 	svcls	0x005001f3
	...
    1100:	00000048 	andeq	r0, r0, r8, asr #32
    1104:	48500001 	ldmdami	r0, {r0}^
    1108:	68000000 	stmdavs	r0, {}	; <UNPREDICTABLE>
    110c:	04000000 	streq	r0, [r0], #-0
    1110:	5001f300 	andpl	pc, r1, r0, lsl #6
    1114:	0000009f 	muleq	r0, pc, r0	; <UNPREDICTABLE>
	...
    1120:	00004b00 	andeq	r4, r0, r0, lsl #22
    1124:	51000100 	mrspl	r0, (UNDEF: 16)
    1128:	0000004b 	andeq	r0, r0, fp, asr #32
    112c:	00000068 	andeq	r0, r0, r8, rrx
    1130:	01f30004 	mvnseq	r0, r4
    1134:	00009f51 	andeq	r9, r0, r1, asr pc
    1138:	00000000 	andeq	r0, r0, r0
    113c:	004c0000 	subeq	r0, ip, r0
    1140:	00540000 	subseq	r0, r4, r0
    1144:	00010000 	andeq	r0, r1, r0
    1148:	00005450 	andeq	r5, r0, r0, asr r4
    114c:	00005800 	andeq	r5, r0, r0, lsl #16
    1150:	75000900 	strvc	r0, [r0, #-2304]	; 0x900
    1154:	24007400 	strcs	r7, [r0], #-1024	; 0x400
    1158:	9f210071 	svcls	0x00210071
    115c:	00000058 	andeq	r0, r0, r8, asr r0
    1160:	0000005f 	andeq	r0, r0, pc, asr r0
    1164:	00510001 	subseq	r0, r1, r1
    1168:	00000000 	andeq	r0, r0, r0
    116c:	Address 0x000000000000116c is out of bounds.


Disassembly of section .debug_aranges:

00000000 <.debug_aranges>:
   0:	0000001c 	andeq	r0, r0, ip, lsl r0
   4:	00000002 	andeq	r0, r0, r2
   8:	00040000 	andeq	r0, r4, r0
   c:	00000000 	andeq	r0, r0, r0
  10:	00008020 	andeq	r8, r0, r0, lsr #32
  14:	00000254 	andeq	r0, r0, r4, asr r2
	...
  20:	0000001c 	andeq	r0, r0, ip, lsl r0
  24:	06250002 	strteq	r0, [r5], -r2
  28:	00040000 	andeq	r0, r4, r0
  2c:	00000000 	andeq	r0, r0, r0
  30:	00008274 	andeq	r8, r0, r4, ror r2
  34:	00000378 	andeq	r0, r0, r8, ror r3
	...
  40:	0000001c 	andeq	r0, r0, ip, lsl r0
  44:	12000002 	andne	r0, r0, #2
  48:	00040000 	andeq	r0, r4, r0
  4c:	00000000 	andeq	r0, r0, r0
  50:	00008724 	andeq	r8, r0, r4, lsr #14
  54:	00000708 	andeq	r0, r0, r8, lsl #14
	...
  60:	0000001c 	andeq	r0, r0, ip, lsl r0
  64:	20780002 	rsbscs	r0, r8, r2
  68:	00040000 	andeq	r0, r4, r0
  6c:	00000000 	andeq	r0, r0, r0
  70:	00008e2c 	andeq	r8, r0, ip, lsr #28
  74:	00000058 	andeq	r0, r0, r8, asr r0
	...
  80:	0000001c 	andeq	r0, r0, ip, lsl r0
  84:	220d0002 	andcs	r0, sp, #2
  88:	00040000 	andeq	r0, r4, r0
  8c:	00000000 	andeq	r0, r0, r0
  90:	00008e84 	andeq	r8, r0, r4, lsl #29
  94:	0000003c 	andeq	r0, r0, ip, lsr r0
	...
  a0:	0000001c 	andeq	r0, r0, ip, lsl r0
  a4:	23240002 	teqcs	r4, #2
  a8:	00040000 	andeq	r0, r4, r0
  ac:	00000000 	andeq	r0, r0, r0
  b0:	00008ec0 	andeq	r8, r0, r0, asr #29
  b4:	00000034 	andeq	r0, r0, r4, lsr r0
	...
  c0:	0000001c 	andeq	r0, r0, ip, lsl r0
  c4:	24160002 	ldrcs	r0, [r6], #-2
  c8:	00040000 	andeq	r0, r4, r0
  cc:	00000000 	andeq	r0, r0, r0
  d0:	00008ef4 	strdeq	r8, [r0], -r4
  d4:	00000578 	andeq	r0, r0, r8, ror r5
	...
  e0:	0000001c 	andeq	r0, r0, ip, lsl r0
  e4:	2aff0002 	bcs	fffc00f4 <__bss_end__+0xfffb5abc>
  e8:	00040000 	andeq	r0, r4, r0
  ec:	00000000 	andeq	r0, r0, r0
  f0:	0000946c 	andeq	r9, r0, ip, ror #8
  f4:	00000020 	andeq	r0, r0, r0, lsr #32
	...
 100:	0000001c 	andeq	r0, r0, ip, lsl r0
 104:	2bbb0002 	blcs	feec0114 <__bss_end__+0xfeeb5adc>
 108:	00040000 	andeq	r0, r4, r0
 10c:	00000000 	andeq	r0, r0, r0
 110:	0000948c 	andeq	r9, r0, ip, lsl #9
 114:	0000002c 	andeq	r0, r0, ip, lsr #32
	...
 120:	0000001c 	andeq	r0, r0, ip, lsl r0
 124:	2cce0002 	stclcs	0, cr0, [lr], {2}
 128:	00040000 	andeq	r0, r4, r0
 12c:	00000000 	andeq	r0, r0, r0
 130:	000094b8 			; <UNDEFINED> instruction: 0x000094b8
 134:	00000038 	andeq	r0, r0, r8, lsr r0
	...
 140:	0000001c 	andeq	r0, r0, ip, lsl r0
 144:	2de10002 	stclcs	0, cr0, [r1, #8]!
 148:	00040000 	andeq	r0, r4, r0
 14c:	00000000 	andeq	r0, r0, r0
 150:	000094f0 	strdeq	r9, [r0], -r0
 154:	00000044 	andeq	r0, r0, r4, asr #32
	...
 160:	0000001c 	andeq	r0, r0, ip, lsl r0
 164:	2f230002 	svccs	0x00230002
 168:	00040000 	andeq	r0, r4, r0
 16c:	00000000 	andeq	r0, r0, r0
 170:	00009534 	andeq	r9, r0, r4, lsr r5
 174:	00000044 	andeq	r0, r0, r4, asr #32
	...
 180:	0000001c 	andeq	r0, r0, ip, lsl r0
 184:	30650002 	rsbcc	r0, r5, r2
 188:	00040000 	andeq	r0, r4, r0
 18c:	00000000 	andeq	r0, r0, r0
 190:	00009578 	andeq	r9, r0, r8, ror r5
 194:	00000044 	andeq	r0, r0, r4, asr #32
	...
 1a0:	0000001c 	andeq	r0, r0, ip, lsl r0
 1a4:	31a70002 			; <UNDEFINED> instruction: 0x31a70002
 1a8:	00040000 	andeq	r0, r4, r0
 1ac:	00000000 	andeq	r0, r0, r0
 1b0:	000095bc 			; <UNDEFINED> instruction: 0x000095bc
 1b4:	00000008 	andeq	r0, r0, r8
	...
 1c0:	0000001c 	andeq	r0, r0, ip, lsl r0
 1c4:	32430002 	subcc	r0, r3, #2
 1c8:	00040000 	andeq	r0, r4, r0
 1cc:	00000000 	andeq	r0, r0, r0
 1d0:	000095c4 	andeq	r9, r0, r4, asr #11
 1d4:	0000006c 	andeq	r0, r0, ip, rrx
	...
 1e0:	0000001c 	andeq	r0, r0, ip, lsl r0
 1e4:	341e0002 	ldrcc	r0, [lr], #-2
 1e8:	00040000 	andeq	r0, r4, r0
 1ec:	00000000 	andeq	r0, r0, r0
 1f0:	00009630 	andeq	r9, r0, r0, lsr r6
 1f4:	00000074 	andeq	r0, r0, r4, ror r0
	...
 200:	0000001c 	andeq	r0, r0, ip, lsl r0
 204:	35cf0002 	strbcc	r0, [pc, #2]	; 20e <__code_start__-0x7df2>
 208:	00040000 	andeq	r0, r4, r0
 20c:	00000000 	andeq	r0, r0, r0
 210:	000096a4 	andeq	r9, r0, r4, lsr #13
 214:	00000098 	muleq	r0, r8, r0
	...
 220:	0000001c 	andeq	r0, r0, ip, lsl r0
 224:	37ca0002 	strbcc	r0, [sl, r2]
 228:	00040000 	andeq	r0, r4, r0
 22c:	00000000 	andeq	r0, r0, r0
 230:	000097a0 	andeq	r9, r0, r0, lsr #15
 234:	00000178 	andeq	r0, r0, r8, ror r1
	...
 240:	0000001c 	andeq	r0, r0, ip, lsl r0
 244:	44930002 	ldrmi	r0, [r3], #2
 248:	00040000 	andeq	r0, r4, r0
 24c:	00000000 	andeq	r0, r0, r0
 250:	00009918 	andeq	r9, r0, r8, lsl r9
 254:	00000120 	andeq	r0, r0, r0, lsr #2
	...

Disassembly of section .debug_line:

00000000 <.debug_line>:
       0:	00000174 	andeq	r0, r0, r4, ror r1
       4:	01210002 	teqeq	r1, r2
       8:	01020000 	mrseq	r0, (UNDEF: 2)
       c:	000d0efb 	strdeq	r0, [sp], -fp
      10:	01010101 	tsteq	r1, r1, lsl #2
      14:	01000000 	mrseq	r0, (UNDEF: 0)
      18:	74010000 	strvc	r0, [r1], #-0
      1c:	73747365 	cmnvc	r4, #-1811939327	; 0x94000001
      20:	00302e32 	eorseq	r2, r0, r2, lsr lr
      24:	752f002e 	strvc	r0, [pc, #-46]!	; fffffffe <__bss_end__+0xffff59c6>
      28:	6c2f7273 	sfmvs	f7, 4, [pc], #-460	; fffffe64 <__bss_end__+0xffff582c>
      2c:	6c61636f 	stclvs	3, cr6, [r1], #-444	; 0xfffffe44
      30:	6c65432f 	stclvs	3, cr4, [r5], #-188	; 0xffffff44
      34:	2f72616c 	svccs	0x0072616c
      38:	2d6d7261 	sfmcs	f7, 2, [sp, #-388]!	; 0xfffffe7c
      3c:	656e6f6e 	strbvs	r6, [lr, #-3950]!	; 0xf6e
      40:	6261652d 	rsbvs	r6, r1, #188743680	; 0xb400000
      44:	2e342f69 	cdpcs	15, 3, cr2, cr4, cr9, {3}
      48:	2d332e38 	ldccs	14, cr2, [r3, #-224]!	; 0xffffff20
      4c:	37317363 	ldrcc	r7, [r1, -r3, ror #6]!
      50:	6c2f6530 	cfstr32vs	mvfx6, [pc], #-192	; ffffff98 <__bss_end__+0xffff5960>
      54:	672f6269 	strvs	r6, [pc, -r9, ror #4]!
      58:	612f6363 	teqvs	pc, r3, ror #6
      5c:	6e2d6d72 	mcrvs	13, 1, r6, cr13, cr2, {3}
      60:	2d656e6f 	stclcs	14, cr6, [r5, #-444]!	; 0xfffffe44
      64:	69626165 	stmdbvs	r2!, {r0, r2, r5, r6, r8, sp, lr}^
      68:	382e342f 	stmdacc	lr!, {r0, r1, r2, r3, r5, sl, ip, sp}
      6c:	692f332e 	stmdbvs	pc!, {r1, r2, r3, r5, r8, r9, ip, sp}	; <UNPREDICTABLE>
      70:	756c636e 	strbvc	r6, [ip, #-878]!	; 0x36e
      74:	2f006564 	svccs	0x00006564
      78:	72657355 	rsbvc	r7, r5, #1409286145	; 0x54000001
      7c:	72622f73 	rsbvc	r2, r2, #460	; 0x1cc
      80:	6a6e6169 	bvs	1b9862c <__bss_end__+0x1b8dff4>
      84:	442f6e75 	strtmi	r6, [pc], #-3701	; 8c <__code_start__-0x7f74>
      88:	746b7365 	strbtvc	r7, [fp], #-869	; 0x365
      8c:	732f706f 	teqvc	pc, #111	; 0x6f
      90:	6f6f6863 	svcvs	0x006f6863
      94:	70532f6c 	subsvc	r2, r3, ip, ror #30
      98:	676e6972 			; <UNDEFINED> instruction: 0x676e6972
      9c:	30323931 	eorscc	r3, r2, r1, lsr r9
      a0:	3253432f 	subscc	r4, r3, #-1140850688	; 0xbc000000
      a4:	584c3034 	stmdapl	ip, {r2, r4, r5, ip, sp}^
      a8:	3273632f 	rsbscc	r6, r3, #-1140850688	; 0xbc000000
      ac:	786c3034 	stmdavc	ip!, {r2, r4, r5, ip, sp}^
      b0:	7330322d 	teqvc	r0, #-805306366	; 0xd0000002
      b4:	6c2f7270 	sfmvs	f7, 4, [pc], #-448	; fffffefc <__bss_end__+0xffff58c4>
      b8:	69706269 	ldmdbvs	r0!, {r0, r3, r5, r6, r9, sp, lr}^
      bc:	636e692f 	cmnvs	lr, #770048	; 0xbc000
      c0:	6564756c 	strbvs	r7, [r4, #-1388]!	; 0x56c
      c4:	36310000 	ldrtcc	r0, [r1], -r0
      c8:	7261702d 	rsbvc	r7, r1, #45	; 0x2d
      cc:	742d3274 	strtvc	r3, [sp], #-628	; 0x274
      d0:	36747365 	ldrbtcc	r7, [r4], -r5, ror #6
      d4:	0100632e 	tsteq	r0, lr, lsr #6
      d8:	69700000 	ldmdbvs	r0!, {}^	; <UNPREDICTABLE>
      dc:	7379732d 	cmnvc	r9, #-1275068416	; 0xb4000000
      e0:	636f6c2d 	cmnvs	pc, #11520	; 0x2d00
      e4:	00682e6b 	rsbeq	r2, r8, fp, ror #28
      e8:	63000002 	movwvs	r0, #2
      ec:	6b636568 	blvs	18d9694 <__bss_end__+0x18cf05c>
      f0:	746e692d 	strbtvc	r6, [lr], #-2349	; 0x92d
      f4:	656c7265 	strbvs	r7, [ip, #-613]!	; 0x265
      f8:	2e657661 	cdpcs	6, 6, cr7, cr5, cr1, {3}
      fc:	00020068 	andeq	r0, r2, r8, rrx
     100:	64747300 	ldrbtvs	r7, [r4], #-768	; 0x300
     104:	2d746e69 	ldclcs	14, cr6, [r4, #-420]!	; 0xfffffe5c
     108:	2e636367 	cdpcs	3, 6, cr6, cr3, cr7, {3}
     10c:	00030068 	andeq	r0, r3, r8, rrx
     110:	69707200 	ldmdbvs	r0!, {r9, ip, sp, lr}^
     114:	0400682e 	streq	r6, [r0], #-2094	; 0x82e
     118:	70630000 	rsbvc	r0, r3, r0
     11c:	642d3431 	strtvs	r3, [sp], #-1073	; 0x431
     120:	67756265 	ldrbvs	r6, [r5, -r5, ror #4]!
     124:	0200682e 	andeq	r6, r0, #3014656	; 0x2e0000
     128:	00000000 	andeq	r0, r0, r0
     12c:	80200205 	eorhi	r0, r0, r5, lsl #4
     130:	09030000 	stmdbeq	r3, {}	; <UNPREDICTABLE>
     134:	4d020401 	cfstrsmi	mvf0, [r2, #-4]
     138:	4b480104 	blmi	1200550 <__bss_end__+0x11f5f18>
     13c:	030204d7 	movweq	r0, #9431	; 0x24d7
     140:	9108820b 	tstls	r8, fp, lsl #4
     144:	76030104 	strvc	r0, [r3], -r4, lsl #2
     148:	04590866 	ldrbeq	r0, [r9], #-2150	; 0x866
     14c:	01044702 	tsteq	r4, r2, lsl #14
     150:	02044c4e 	andeq	r4, r4, #19968	; 0x4e00
     154:	04910887 	ldreq	r0, [r1], #2183	; 0x887
     158:	13f46301 	mvnsne	r6, #67108864	; 0x4000000
     15c:	6e030204 	cdpvs	2, 0, cr0, cr3, cr4, {0}
     160:	03010466 	movweq	r0, #5222	; 0x1466
     164:	4b139e15 	blmi	4e79c0 <__bss_end__+0x4dd388>
     168:	2e0213a0 	cdpcs	3, 0, cr1, cr2, cr0, {5}
     16c:	304ca019 	subcc	sl, ip, r9, lsl r0
     170:	02d8834c 	sbcseq	r8, r8, #76, 6	; 0x30000001
     174:	01010018 	tsteq	r1, r8, lsl r0
     178:	000001f4 	strdeq	r0, [r0], -r4
     17c:	00ff0002 	rscseq	r0, pc, r2
     180:	01020000 	mrseq	r0, (UNDEF: 2)
     184:	000d0efb 	strdeq	r0, [sp], -fp
     188:	01010101 	tsteq	r1, r1, lsl #2
     18c:	01000000 	mrseq	r0, (UNDEF: 0)
     190:	2f010000 	svccs	0x00010000
     194:	2f727375 	svccs	0x00727375
     198:	61636f6c 	cmnvs	r3, ip, ror #30
     19c:	65432f6c 	strbvs	r2, [r3, #-3948]	; 0xf6c
     1a0:	72616c6c 	rsbvc	r6, r1, #108, 24	; 0x6c00
     1a4:	6d72612f 	ldfvse	f6, [r2, #-188]!	; 0xffffff44
     1a8:	6e6f6e2d 	cdpvs	14, 6, cr6, cr15, cr13, {1}
     1ac:	61652d65 	cmnvs	r5, r5, ror #26
     1b0:	342f6962 	strtcc	r6, [pc], #-2402	; 1b8 <__code_start__-0x7e48>
     1b4:	332e382e 	teqcc	lr, #3014656	; 0x2e0000
     1b8:	3173632d 	cmncc	r3, sp, lsr #6
     1bc:	2f653037 	svccs	0x00653037
     1c0:	2f62696c 	svccs	0x0062696c
     1c4:	2f636367 	svccs	0x00636367
     1c8:	2d6d7261 	sfmcs	f7, 2, [sp, #-388]!	; 0xfffffe7c
     1cc:	656e6f6e 	strbvs	r6, [lr, #-3950]!	; 0xf6e
     1d0:	6261652d 	rsbvs	r6, r1, #188743680	; 0xb400000
     1d4:	2e342f69 	cdpcs	15, 3, cr2, cr4, cr9, {3}
     1d8:	2f332e38 	svccs	0x00332e38
     1dc:	6c636e69 	stclvs	14, cr6, [r3], #-420	; 0xfffffe5c
     1e0:	00656475 	rsbeq	r6, r5, r5, ror r4
     1e4:	6573552f 	ldrbvs	r5, [r3, #-1327]!	; 0x52f
     1e8:	622f7372 	eorvs	r7, pc, #-939524095	; 0xc8000001
     1ec:	6e616972 	mcrvs	9, 3, r6, cr1, cr2, {3}
     1f0:	2f6e756a 	svccs	0x006e756a
     1f4:	6b736544 	blvs	1cd970c <__bss_end__+0x1ccf0d4>
     1f8:	2f706f74 	svccs	0x00706f74
     1fc:	6f686373 	svcvs	0x00686373
     200:	532f6c6f 	teqpl	pc, #28416	; 0x6f00
     204:	6e697270 	mcrvs	2, 3, r7, cr9, cr0, {3}
     208:	32393167 	eorscc	r3, r9, #-1073741799	; 0xc0000019
     20c:	53432f30 	movtpl	r2, #16176	; 0x3f30
     210:	4c303432 	cfldrsmi	mvf3, [r0], #-200	; 0xffffff38
     214:	73632f58 	cmnvc	r3, #88, 30	; 0x160
     218:	6c303432 	cfldrsvs	mvf3, [r0], #-200	; 0xffffff38
     21c:	30322d78 	eorscc	r2, r2, r8, ror sp
     220:	2f727073 	svccs	0x00727073
     224:	7062696c 	rsbvc	r6, r2, ip, ror #18
     228:	6e692f69 	cdpvs	15, 6, cr2, cr9, cr9, {3}
     22c:	64756c63 	ldrbtvs	r6, [r5], #-3171	; 0xc63
     230:	63000065 	movwvs	r0, #101	; 0x65
     234:	2d343170 	ldfcss	f3, [r4, #-448]!	; 0xfffffe40
     238:	75626564 	strbvc	r6, [r2, #-1380]!	; 0x564
     23c:	00632e67 	rsbeq	r2, r3, r7, ror #28
     240:	63000000 	movwvs	r0, #0
     244:	2d343170 	ldfcss	f3, [r4, #-448]!	; 0xfffffe40
     248:	75626564 	strbvc	r6, [r2, #-1380]!	; 0x564
     24c:	00682e67 	rsbeq	r2, r8, r7, ror #28
     250:	73000000 	movwvc	r0, #0
     254:	6e696474 	mcrvs	4, 3, r6, cr9, cr4, {3}
     258:	63672d74 	cmnvs	r7, #116, 26	; 0x1d00
     25c:	00682e63 	rsbeq	r2, r8, r3, ror #28
     260:	72000001 	andvc	r0, r0, #1
     264:	682e6970 	stmdavs	lr!, {r4, r5, r6, r8, fp, sp, lr}
     268:	00000200 	andeq	r0, r0, r0, lsl #4
     26c:	2d697072 	stclcs	0, cr7, [r9, #-456]!	; 0xfffffe38
     270:	65746e69 	ldrbvs	r6, [r4, #-3689]!	; 0xe69
     274:	70757272 	rsbsvc	r7, r5, r2, ror r2
     278:	682e7374 	stmdavs	lr!, {r2, r4, r5, r6, r8, r9, ip, sp, lr}
     27c:	00000200 	andeq	r0, r0, r0, lsl #4
     280:	02050000 	andeq	r0, r5, #0
     284:	00008274 	andeq	r8, r0, r4, ror r2
     288:	03013503 	movweq	r3, #5379	; 0x1503
     28c:	24034a62 	strcs	r4, [r3], #-2658	; 0xa62
     290:	2e62032e 	cdpcs	3, 6, cr0, cr2, cr14, {1}
     294:	032e7a03 	teqeq	lr, #12288	; 0x3000
     298:	02002e29 	andeq	r2, r0, #656	; 0x290
     29c:	4a060104 	bmi	1806b4 <__bss_end__+0x17607c>
     2a0:	08650306 	stmdaeq	r5!, {r1, r2, r8, r9}^
     2a4:	2e780320 	cdpcs	3, 7, cr0, cr8, cr0, {1}
     2a8:	034a7a03 	movteq	r7, #43523	; 0xaa03
     2ac:	02002e3a 	andeq	r2, r0, #928	; 0x3a0
     2b0:	4a060104 	bmi	1806c8 <__bss_end__+0x176090>
     2b4:	7fbb0306 	svcvc	0x00bb0306
     2b8:	c8032008 	stmdagt	r3, {r3, sp}
     2bc:	f54b4a00 			; <UNDEFINED> instruction: 0xf54b4a00
     2c0:	036c0204 	cmneq	ip, #4, 4	; 0x40000000
     2c4:	4b344a13 	blmi	d12b18 <__bss_end__+0xd084e0>
     2c8:	04d65d03 	ldrbeq	r5, [r6], #3331	; 0xd03
     2cc:	2e110301 	cdpcs	3, 1, cr0, cr1, cr1, {0}
     2d0:	01040200 	mrseq	r0, R12_usr
     2d4:	08066606 	stmdaeq	r6, {r1, r2, r9, sl, sp, lr}
     2d8:	04020022 	streq	r0, [r2], #-34	; 0x22
     2dc:	04820601 	streq	r0, [r2], #1537	; 0x601
     2e0:	7a030602 	bvc	c1af0 <__bss_end__+0xb74b8>
     2e4:	01042008 	tsteq	r4, r8
     2e8:	4b2e0c03 	blmi	b832fc <__bss_end__+0xb78cc4>
     2ec:	83315a08 	teqhi	r1, #8, 20	; 0x8000
     2f0:	7fbb032f 	svcvc	0x00bb032f
     2f4:	4a5b0366 	bmi	16c1094 <__bss_end__+0x16b6a5c>
     2f8:	82019b03 	andhi	r9, r1, #3072	; 0xc00
     2fc:	03016503 	movweq	r6, #5379	; 0x1503
     300:	62032e1f 	andvs	r2, r3, #496	; 0x1f0
     304:	03302c2e 	teqeq	r0, #11776	; 0x2e00
     308:	034a7eff 	movteq	r7, #44799	; 0xaeff
     30c:	a24a01b3 	subge	r0, sl, #-1073741780	; 0xc000002c
     310:	62030204 	andvs	r0, r3, #4, 4	; 0x40000000
     314:	01043366 	tsteq	r4, r6, ror #6
     318:	4b2e1b03 	blmi	b86f2c <__bss_end__+0xb7c8f4>
     31c:	040200d7 	streq	r0, [r2], #-215	; 0xd7
     320:	04820601 	streq	r0, [r2], #1537	; 0x601
     324:	4f030602 	svcmi	0x00030602
     328:	01042008 	tsteq	r4, r8
     32c:	4b2e3303 	blmi	b8cf40 <__bss_end__+0xb82908>
     330:	2e0b03f4 	mcrcs	3, 0, r0, cr11, cr4, {7}
     334:	3f082f01 	svccc	0x00082f01
     338:	017fb103 	cmneq	pc, r3, lsl #2
     33c:	2e00d303 	cdpcs	3, 0, cr13, cr0, cr3, {0}
     340:	2e7fae03 	cdpcs	14, 7, cr10, cr15, cr3, {0}
     344:	ff03302c 			; <UNDEFINED> instruction: 0xff03302c
     348:	e7034a7e 	smlsdx	r3, lr, sl, r4
     34c:	03a24a01 			; <UNDEFINED> instruction: 0x03a24a01
     350:	03017f96 	movweq	r7, #8086	; 0x1f96
     354:	318200fb 	strdcc	r0, [r2, fp]
     358:	10034b4b 	andne	r4, r3, fp, asr #22
     35c:	4a71032e 	bmi	1c4101c <__bss_end__+0x1c369e4>
     360:	324b674c 	subcc	r6, fp, #76, 14	; 0x1300000
     364:	7703694e 	strvc	r6, [r3, -lr, asr #18]
     368:	02354d4a 	eorseq	r4, r5, #4736	; 0x1280
     36c:	01010004 	tsteq	r1, r4
     370:	00000257 	andeq	r0, r0, r7, asr r2
     374:	013b0002 	teqeq	fp, r2
     378:	01020000 	mrseq	r0, (UNDEF: 2)
     37c:	000d0efb 	strdeq	r0, [sp], -fp
     380:	01010101 	tsteq	r1, r1, lsl #2
     384:	01000000 	mrseq	r0, (UNDEF: 0)
     388:	2f010000 	svccs	0x00010000
     38c:	72657355 	rsbvc	r7, r5, #1409286145	; 0x54000001
     390:	72622f73 	rsbvc	r2, r2, #460	; 0x1cc
     394:	6a6e6169 	bvs	1b98940 <__bss_end__+0x1b8e308>
     398:	442f6e75 	strtmi	r6, [pc], #-3701	; 3a0 <__code_start__-0x7c60>
     39c:	746b7365 	strbtvc	r7, [fp], #-869	; 0x365
     3a0:	732f706f 	teqvc	pc, #111	; 0x6f
     3a4:	6f6f6863 	svcvs	0x006f6863
     3a8:	70532f6c 	subsvc	r2, r3, ip, ror #30
     3ac:	676e6972 			; <UNDEFINED> instruction: 0x676e6972
     3b0:	30323931 	eorscc	r3, r2, r1, lsr r9
     3b4:	3253432f 	subscc	r4, r3, #-1140850688	; 0xbc000000
     3b8:	584c3034 	stmdapl	ip, {r2, r4, r5, ip, sp}^
     3bc:	3273632f 	rsbscc	r6, r3, #-1140850688	; 0xbc000000
     3c0:	786c3034 	stmdavc	ip!, {r2, r4, r5, ip, sp}^
     3c4:	7330322d 	teqvc	r0, #-805306366	; 0xd0000002
     3c8:	6c2f7270 	sfmvs	f7, 4, [pc], #-448	; 210 <__code_start__-0x7df0>
     3cc:	69706269 	ldmdbvs	r0!, {r0, r3, r5, r6, r9, sp, lr}^
     3d0:	636e692f 	cmnvs	lr, #770048	; 0xbc000
     3d4:	6564756c 	strbvs	r7, [r4, #-1388]!	; 0x56c
     3d8:	73752f00 	cmnvc	r5, #0, 30
     3dc:	6f6c2f72 	svcvs	0x006c2f72
     3e0:	2f6c6163 	svccs	0x006c6163
     3e4:	6c6c6543 	cfstr64vs	mvdx6, [ip], #-268	; 0xfffffef4
     3e8:	612f7261 	teqvs	pc, r1, ror #4
     3ec:	6e2d6d72 	mcrvs	13, 1, r6, cr13, cr2, {3}
     3f0:	2d656e6f 	stclcs	14, cr6, [r5, #-444]!	; 0xfffffe44
     3f4:	69626165 	stmdbvs	r2!, {r0, r2, r5, r6, r8, sp, lr}^
     3f8:	382e342f 	stmdacc	lr!, {r0, r1, r2, r3, r5, sl, ip, sp}
     3fc:	632d332e 	teqvs	sp, #-1207959552	; 0xb8000000
     400:	30373173 	eorscc	r3, r7, r3, ror r1
     404:	696c2f65 	stmdbvs	ip!, {r0, r2, r5, r6, r8, r9, sl, fp, sp}^
     408:	63672f62 	cmnvs	r7, #392	; 0x188
     40c:	72612f63 	rsbvc	r2, r1, #396	; 0x18c
     410:	6f6e2d6d 	svcvs	0x006e2d6d
     414:	652d656e 	strvs	r6, [sp, #-1390]!	; 0x56e
     418:	2f696261 	svccs	0x00696261
     41c:	2e382e34 	mrccs	14, 1, r2, cr8, cr4, {1}
     420:	6e692f33 	mcrvs	15, 3, r2, cr9, cr3, {1}
     424:	64756c63 	ldrbtvs	r6, [r5], #-3171	; 0xc63
     428:	63000065 	movwvs	r0, #101	; 0x65
     42c:	6b636568 	blvs	18d99d4 <__bss_end__+0x18cf39c>
     430:	746e692d 	strbtvc	r6, [lr], #-2349	; 0x92d
     434:	656c7265 	strbvs	r7, [ip, #-613]!	; 0x265
     438:	2e657661 	cdpcs	6, 6, cr7, cr5, cr1, {3}
     43c:	00000063 	andeq	r0, r0, r3, rrx
     440:	31706300 	cmncc	r0, r0, lsl #6
     444:	65642d34 	strbvs	r2, [r4, #-3380]!	; 0xd34
     448:	2e677562 	cdpcs	5, 6, cr7, cr7, cr2, {3}
     44c:	00000068 	andeq	r0, r0, r8, rrx
     450:	69707200 	ldmdbvs	r0!, {r9, ip, sp, lr}^
     454:	746e692d 	strbtvc	r6, [lr], #-2349	; 0x92d
     458:	75727265 	ldrbvc	r7, [r2, #-613]!	; 0x265
     45c:	2e737470 	mrccs	4, 3, r7, cr3, cr0, {3}
     460:	00010068 	andeq	r0, r1, r8, rrx
     464:	74696200 	strbtvc	r6, [r9], #-512	; 0x200
     468:	7075732d 	rsbsvc	r7, r5, sp, lsr #6
     46c:	74726f70 	ldrbtvc	r6, [r2], #-3952	; 0xf70
     470:	0000682e 	andeq	r6, r0, lr, lsr #16
     474:	70630000 	rsbvc	r0, r3, r0
     478:	752d7273 	strvc	r7, [sp, #-627]!	; 0x273
     47c:	2e6c6974 	mcrcs	9, 3, r6, cr12, cr4, {3}
     480:	00000068 	andeq	r0, r0, r8, rrx
     484:	64747300 	ldrbtvs	r7, [r4], #-768	; 0x300
     488:	2d746e69 	ldclcs	14, cr6, [r4, #-420]!	; 0xfffffe5c
     48c:	2e636367 	cdpcs	3, 6, cr6, cr3, cr7, {3}
     490:	00020068 	andeq	r0, r2, r8, rrx
     494:	65686300 	strbvs	r6, [r8, #-768]!	; 0x300
     498:	692d6b63 	pushvs	{r0, r1, r5, r6, r8, r9, fp, sp, lr}
     49c:	7265746e 	rsbvc	r7, r5, #1845493760	; 0x6e000000
     4a0:	7661656c 	strbtvc	r6, [r1], -ip, ror #10
     4a4:	00682e65 	rsbeq	r2, r8, r5, ror #28
     4a8:	72000000 	andvc	r0, r0, #0
     4ac:	682e6970 	stmdavs	lr!, {r4, r5, r6, r8, fp, sp, lr}
     4b0:	00000100 	andeq	r0, r0, r0, lsl #2
     4b4:	02050000 	andeq	r0, r5, #0
     4b8:	00008724 	andeq	r8, r0, r4, lsr #14
     4bc:	67010a03 	strvs	r0, [r1, -r3, lsl #20]
     4c0:	01040200 	mrseq	r0, R12_usr
     4c4:	02048206 	andeq	r8, r4, #1610612736	; 0x60000000
     4c8:	019a0306 	orrseq	r0, sl, r6, lsl #6
     4cc:	010433ba 			; <UNDEFINED> instruction: 0x010433ba
     4d0:	2e7ee203 	cdpcs	2, 7, cr14, cr14, cr3, {0}
     4d4:	834dd84b 	movthi	sp, #55371	; 0xd84b
     4d8:	2f4ba383 	svccs	0x004ba383
     4dc:	304b674b 	subcc	r6, fp, fp, asr #14
     4e0:	04020068 	streq	r0, [r2], #-104	; 0x68
     4e4:	06820601 	streq	r0, [r2], r1, lsl #12
     4e8:	00682108 	rsbeq	r2, r8, r8, lsl #2
     4ec:	06010402 	streq	r0, [r1], -r2, lsl #8
     4f0:	67bb0682 	ldrvs	r0, [fp, r2, lsl #13]!
     4f4:	01040200 	mrseq	r0, R12_usr
     4f8:	bb068206 	bllt	1a0d18 <__bss_end__+0x1966e0>
     4fc:	0304ca08 	movweq	ip, #18952	; 0x4a08
     500:	31040463 	tstcc	r4, r3, ror #8
     504:	6b030504 	blvs	c191c <__bss_end__+0xb72e4>
     508:	0301042e 	movweq	r0, #5166	; 0x142e
     50c:	4e4b2e19 	mcrmi	14, 2, r2, cr11, cr9, {0}
     510:	00682a84 	rsbeq	r2, r8, r4, lsl #21
     514:	06010402 	streq	r0, [r1], -r2, lsl #8
     518:	6ad80666 	bvs	ff601eb8 <__bss_end__+0xff5f7880>
     51c:	84314b67 	ldrthi	r4, [r1], #-2919	; 0xb67
     520:	849f6967 	ldrhi	r6, [pc], #2407	; 528 <__code_start__-0x7ad8>
     524:	04686869 	strbteq	r6, [r8], #-2153	; 0x869
     528:	82510304 	subshi	r0, r1, #4, 6	; 0x10000000
     52c:	6c030504 	cfstr32vs	mvfx0, [r3], {4}
     530:	0867652e 	stmdaeq	r7!, {r1, r2, r3, r5, r8, sl, sp, lr}^
     534:	02600825 	rsbeq	r0, r0, #2424832	; 0x250000
     538:	4b4b1528 	blmi	12c59e0 <__bss_end__+0x12bb3a8>
     53c:	034b4b4b 	movteq	r4, #47947	; 0xbb4b
     540:	044bf279 	strbeq	pc, [fp], #-633	; 0x279	; <UNPREDICTABLE>
     544:	2e380301 	cdpcs	3, 3, cr0, cr8, cr1, {0}
     548:	55030304 	strpl	r0, [r3, #-772]	; 0x304
     54c:	03040466 	movweq	r0, #17510	; 0x4466
     550:	05042e78 	streq	r2, [r4, #-3704]	; 0xe78
     554:	652e6c03 	strvs	r6, [lr, #-3075]!	; 0xc03
     558:	08250867 	stmdaeq	r5!, {r0, r1, r2, r5, r6, fp}
     55c:	15280260 	strne	r0, [r8, #-608]!	; 0x260
     560:	4b4b4b4b 	blmi	12d3294 <__bss_end__+0x12c8c5c>
     564:	f279034b 	vcgt.s<illegal width 64>	q8, <illegal reg q4.5>, <illegal reg q5.5>
     568:	0303044b 	movweq	r0, #13387	; 0x344b
     56c:	01042e0d 	tsteq	r4, sp, lsl #28
     570:	4c2e2c03 	stcmi	12, cr2, [lr], #-12
     574:	4a030404 	bmi	c158c <__bss_end__+0xb6f54>
     578:	0305044a 	movweq	r0, #21578	; 0x544a
     57c:	67652e6c 	strbvs	r2, [r5, -ip, ror #28]!
     580:	03042508 	movweq	r2, #17672	; 0x4508
     584:	58081703 	stmdapl	r8, {r0, r1, r8, r9, sl, ip}
     588:	78030404 	stmdavc	r3, {r2, sl}
     58c:	0305042e 	movweq	r0, #21550	; 0x542e
     590:	67652e6c 	strbvs	r2, [r5, -ip, ror #28]!
     594:	01042508 	tsteq	r4, r8, lsl #10
     598:	0800c703 	stmdaeq	r0, {r0, r1, r8, r9, sl, lr, pc}
     59c:	04020058 	streq	r0, [r2], #-88	; 0x58
     5a0:	064a0601 	strbeq	r0, [sl], -r1, lsl #12
     5a4:	2f4c2408 	svccs	0x004c2408
     5a8:	03173a02 	tsteq	r7, #8192	; 0x2000
     5ac:	1a4d0117 	bne	1340a10 <__bss_end__+0x13363d8>
     5b0:	2d2d2d49 	stccs	13, cr2, [sp, #-292]!	; 0xfffffedc
     5b4:	032d2d2d 	teqeq	sp, #2880	; 0xb40
     5b8:	2f4b4a0a 	svccs	0x004b4a0a
     5bc:	0402004b 	streq	r0, [r2], #-75	; 0x4b
     5c0:	82820601 	addhi	r0, r2, #1048576	; 0x100000
     5c4:	02029f06 	andeq	r9, r2, #6, 30
     5c8:	0c010100 	stfeqs	f0, [r1], {-0}
     5cc:	02000001 	andeq	r0, r0, #1
     5d0:	0000f500 	andeq	pc, r0, r0, lsl #10
     5d4:	fb010200 	blx	40dde <__bss_end__+0x367a6>
     5d8:	01000d0e 	tsteq	r0, lr, lsl #26
     5dc:	00010101 	andeq	r0, r1, r1, lsl #2
     5e0:	00010000 	andeq	r0, r1, r0
     5e4:	696c0100 	stmdbvs	ip!, {r8}^
     5e8:	2f006362 	svccs	0x00006362
     5ec:	2f727375 	svccs	0x00727375
     5f0:	61636f6c 	cmnvs	r3, ip, ror #30
     5f4:	65432f6c 	strbvs	r2, [r3, #-3948]	; 0xf6c
     5f8:	72616c6c 	rsbvc	r6, r1, #108, 24	; 0x6c00
     5fc:	6d72612f 	ldfvse	f6, [r2, #-188]!	; 0xffffff44
     600:	6e6f6e2d 	cdpvs	14, 6, cr6, cr15, cr13, {1}
     604:	61652d65 	cmnvs	r5, r5, ror #26
     608:	342f6962 	strtcc	r6, [pc], #-2402	; 610 <__code_start__-0x79f0>
     60c:	332e382e 	teqcc	lr, #3014656	; 0x2e0000
     610:	3173632d 	cmncc	r3, sp, lsr #6
     614:	2f653037 	svccs	0x00653037
     618:	2f62696c 	svccs	0x0062696c
     61c:	2f636367 	svccs	0x00636367
     620:	2d6d7261 	sfmcs	f7, 2, [sp, #-388]!	; 0xfffffe7c
     624:	656e6f6e 	strbvs	r6, [lr, #-3950]!	; 0xf6e
     628:	6261652d 	rsbvs	r6, r1, #188743680	; 0xb400000
     62c:	2e342f69 	cdpcs	15, 3, cr2, cr4, cr9, {3}
     630:	2f332e38 	svccs	0x00332e38
     634:	6c636e69 	stclvs	14, cr6, [r3], #-420	; 0xfffffe5c
     638:	00656475 	rsbeq	r6, r5, r5, ror r4
     63c:	6573552f 	ldrbvs	r5, [r3, #-1327]!	; 0x52f
     640:	622f7372 	eorvs	r7, pc, #-939524095	; 0xc8000001
     644:	6e616972 	mcrvs	9, 3, r6, cr1, cr2, {3}
     648:	2f6e756a 	svccs	0x006e756a
     64c:	6b736544 	blvs	1cd9b64 <__bss_end__+0x1ccf52c>
     650:	2f706f74 	svccs	0x00706f74
     654:	6f686373 	svcvs	0x00686373
     658:	532f6c6f 	teqpl	pc, #28416	; 0x6f00
     65c:	6e697270 	mcrvs	2, 3, r7, cr9, cr0, {3}
     660:	32393167 	eorscc	r3, r9, #-1073741799	; 0xc0000019
     664:	53432f30 	movtpl	r2, #16176	; 0x3f30
     668:	4c303432 	cfldrsmi	mvf3, [r0], #-200	; 0xffffff38
     66c:	73632f58 	cmnvc	r3, #88, 30	; 0x160
     670:	6c303432 	cfldrsvs	mvf3, [r0], #-200	; 0xffffff38
     674:	30322d78 	eorscc	r2, r2, r8, ror sp
     678:	2f727073 	svccs	0x00727073
     67c:	7062696c 	rsbvc	r6, r2, ip, ror #18
     680:	6e692f69 	cdpvs	15, 6, cr2, cr9, cr9, {3}
     684:	64756c63 	ldrbtvs	r6, [r5], #-3171	; 0xc63
     688:	70000065 	andvc	r0, r0, r5, rrx
     68c:	746e6972 	strbtvc	r6, [lr], #-2418	; 0x972
     690:	00632e6b 	rsbeq	r2, r3, fp, ror #28
     694:	73000001 	movwvc	r0, #1
     698:	72616474 	rsbvc	r6, r1, #116, 8	; 0x74000000
     69c:	00682e67 	rsbeq	r2, r8, r7, ror #28
     6a0:	3c000002 	stccc	0, cr0, [r0], {2}
     6a4:	6c697562 	cfstr64vs	mvdx7, [r9], #-392	; 0xfffffe78
     6a8:	6e692d74 	mcrvs	13, 3, r2, cr9, cr4, {3}
     6ac:	0000003e 	andeq	r0, r0, lr, lsr r0
     6b0:	69707200 	ldmdbvs	r0!, {r9, ip, sp, lr}^
     6b4:	0300682e 	movweq	r6, #2094	; 0x82e
     6b8:	61760000 	cmnvs	r6, r0
     6bc:	6972702d 	ldmdbvs	r2!, {r0, r2, r3, r5, ip, sp, lr}^
     6c0:	2e6b746e 	cdpcs	4, 6, cr7, cr11, cr14, {3}
     6c4:	00010068 	andeq	r0, r1, r8, rrx
     6c8:	05000000 	streq	r0, [r0, #-0]
     6cc:	008e2c02 	addeq	r2, lr, r2, lsl #24
     6d0:	4b6b1700 	blmi	1ac62d8 <__bss_end__+0x1abbca0>
     6d4:	0e0289bf 	mcreq	9, 0, r8, cr2, cr15, {5}
     6d8:	94010100 	strls	r0, [r1], #-256	; 0x100
     6dc:	02000000 	andeq	r0, r0, #0
     6e0:	00007c00 	andeq	r7, r0, r0, lsl #24
     6e4:	fb010200 	blx	40eee <__bss_end__+0x368b6>
     6e8:	01000d0e 	tsteq	r0, lr, lsl #26
     6ec:	00010101 	andeq	r0, r1, r1, lsl #2
     6f0:	00010000 	andeq	r0, r1, r0
     6f4:	696c0100 	stmdbvs	ip!, {r8}^
     6f8:	2f006362 	svccs	0x00006362
     6fc:	72657355 	rsbvc	r7, r5, #1409286145	; 0x54000001
     700:	72622f73 	rsbvc	r2, r2, #460	; 0x1cc
     704:	6a6e6169 	bvs	1b98cb0 <__bss_end__+0x1b8e678>
     708:	442f6e75 	strtmi	r6, [pc], #-3701	; 710 <__code_start__-0x78f0>
     70c:	746b7365 	strbtvc	r7, [fp], #-869	; 0x365
     710:	732f706f 	teqvc	pc, #111	; 0x6f
     714:	6f6f6863 	svcvs	0x006f6863
     718:	70532f6c 	subsvc	r2, r3, ip, ror #30
     71c:	676e6972 			; <UNDEFINED> instruction: 0x676e6972
     720:	30323931 	eorscc	r3, r2, r1, lsr r9
     724:	3253432f 	subscc	r4, r3, #-1140850688	; 0xbc000000
     728:	584c3034 	stmdapl	ip, {r2, r4, r5, ip, sp}^
     72c:	3273632f 	rsbscc	r6, r3, #-1140850688	; 0xbc000000
     730:	786c3034 	stmdavc	ip!, {r2, r4, r5, ip, sp}^
     734:	7330322d 	teqvc	r0, #-805306366	; 0xd0000002
     738:	6c2f7270 	sfmvs	f7, 4, [pc], #-448	; 580 <__code_start__-0x7a80>
     73c:	69706269 	ldmdbvs	r0!, {r0, r3, r5, r6, r9, sp, lr}^
     740:	636e692f 	cmnvs	lr, #770048	; 0xbc000
     744:	6564756c 	strbvs	r7, [r4, #-1388]!	; 0x56c
     748:	75700000 	ldrbvc	r0, [r0, #-0]!
     74c:	61686374 	smcvs	34356	; 0x8634
     750:	00632e72 	rsbeq	r2, r3, r2, ror lr
     754:	72000001 	andvc	r0, r0, #1
     758:	682e6970 	stmdavs	lr!, {r4, r5, r6, r8, fp, sp, lr}
     75c:	00000200 	andeq	r0, r0, r0, lsl #4
     760:	02050000 	andeq	r0, r5, #0
     764:	00008e84 	andeq	r8, r0, r4, lsl #29
     768:	136b4a14 	cmnne	fp, #20, 20	; 0x14000
     76c:	080213bc 	stmdaeq	r2, {r2, r3, r4, r5, r7, r8, r9, ip}
     770:	a0010100 	andge	r0, r1, r0, lsl #2
     774:	02000000 	andeq	r0, r0, #0
     778:	00007900 	andeq	r7, r0, r0, lsl #18
     77c:	fb010200 	blx	40f86 <__bss_end__+0x3694e>
     780:	01000d0e 	tsteq	r0, lr, lsl #26
     784:	00010101 	andeq	r0, r1, r1, lsl #2
     788:	00010000 	andeq	r0, r1, r0
     78c:	696c0100 	stmdbvs	ip!, {r8}^
     790:	2f006362 	svccs	0x00006362
     794:	72657355 	rsbvc	r7, r5, #1409286145	; 0x54000001
     798:	72622f73 	rsbvc	r2, r2, #460	; 0x1cc
     79c:	6a6e6169 	bvs	1b98d48 <__bss_end__+0x1b8e710>
     7a0:	442f6e75 	strtmi	r6, [pc], #-3701	; 7a8 <__code_start__-0x7858>
     7a4:	746b7365 	strbtvc	r7, [fp], #-869	; 0x365
     7a8:	732f706f 	teqvc	pc, #111	; 0x6f
     7ac:	6f6f6863 	svcvs	0x006f6863
     7b0:	70532f6c 	subsvc	r2, r3, ip, ror #30
     7b4:	676e6972 			; <UNDEFINED> instruction: 0x676e6972
     7b8:	30323931 	eorscc	r3, r2, r1, lsr r9
     7bc:	3253432f 	subscc	r4, r3, #-1140850688	; 0xbc000000
     7c0:	584c3034 	stmdapl	ip, {r2, r4, r5, ip, sp}^
     7c4:	3273632f 	rsbscc	r6, r3, #-1140850688	; 0xbc000000
     7c8:	786c3034 	stmdavc	ip!, {r2, r4, r5, ip, sp}^
     7cc:	7330322d 	teqvc	r0, #-805306366	; 0xd0000002
     7d0:	6c2f7270 	sfmvs	f7, 4, [pc], #-448	; 618 <__code_start__-0x79e8>
     7d4:	69706269 	ldmdbvs	r0!, {r0, r3, r5, r6, r9, sp, lr}^
     7d8:	636e692f 	cmnvs	lr, #770048	; 0xbc000
     7dc:	6564756c 	strbvs	r7, [r4, #-1388]!	; 0x56c
     7e0:	75700000 	ldrbvc	r0, [r0, #-0]!
     7e4:	632e6b74 	teqvs	lr, #116, 22	; 0x1d000
     7e8:	00000100 	andeq	r0, r0, r0, lsl #2
     7ec:	2e697072 	mcrcs	0, 3, r7, cr9, cr2, {3}
     7f0:	00020068 	andeq	r0, r2, r8, rrx
     7f4:	05000000 	streq	r0, [r0, #-0]
     7f8:	008ec002 	addeq	ip, lr, r2
     7fc:	2d4c1500 	cfstr64cs	mvdx1, [ip, #-0]
     800:	02040200 	andeq	r0, r4, #0, 4
     804:	0402002f 	streq	r0, [r2], #-47	; 0x2f
     808:	02004902 	andeq	r4, r0, #32768	; 0x8000
     80c:	2e060104 	adfcss	f0, f6, f4
     810:	06026b06 	streq	r6, [r2], -r6, lsl #22
     814:	f1010100 	setend	le
     818:	02000001 	andeq	r0, r0, #1
     81c:	0000e900 	andeq	lr, r0, r0, lsl #18
     820:	fb010200 	blx	4102a <__bss_end__+0x369f2>
     824:	01000d0e 	tsteq	r0, lr, lsl #26
     828:	00010101 	andeq	r0, r1, r1, lsl #2
     82c:	00010000 	andeq	r0, r1, r0
     830:	696c0100 	stmdbvs	ip!, {r8}^
     834:	2f006362 	svccs	0x00006362
     838:	2f727375 	svccs	0x00727375
     83c:	61636f6c 	cmnvs	r3, ip, ror #30
     840:	65432f6c 	strbvs	r2, [r3, #-3948]	; 0xf6c
     844:	72616c6c 	rsbvc	r6, r1, #108, 24	; 0x6c00
     848:	6d72612f 	ldfvse	f6, [r2, #-188]!	; 0xffffff44
     84c:	6e6f6e2d 	cdpvs	14, 6, cr6, cr15, cr13, {1}
     850:	61652d65 	cmnvs	r5, r5, ror #26
     854:	342f6962 	strtcc	r6, [pc], #-2402	; 85c <__code_start__-0x77a4>
     858:	332e382e 	teqcc	lr, #3014656	; 0x2e0000
     85c:	3173632d 	cmncc	r3, sp, lsr #6
     860:	2f653037 	svccs	0x00653037
     864:	2f62696c 	svccs	0x0062696c
     868:	2f636367 	svccs	0x00636367
     86c:	2d6d7261 	sfmcs	f7, 2, [sp, #-388]!	; 0xfffffe7c
     870:	656e6f6e 	strbvs	r6, [lr, #-3950]!	; 0xf6e
     874:	6261652d 	rsbvs	r6, r1, #188743680	; 0xb400000
     878:	2e342f69 	cdpcs	15, 3, cr2, cr4, cr9, {3}
     87c:	2f332e38 	svccs	0x00332e38
     880:	6c636e69 	stclvs	14, cr6, [r3], #-420	; 0xfffffe5c
     884:	00656475 	rsbeq	r6, r5, r5, ror r4
     888:	6573552f 	ldrbvs	r5, [r3, #-1327]!	; 0x52f
     88c:	622f7372 	eorvs	r7, pc, #-939524095	; 0xc8000001
     890:	6e616972 	mcrvs	9, 3, r6, cr1, cr2, {3}
     894:	2f6e756a 	svccs	0x006e756a
     898:	6b736544 	blvs	1cd9db0 <__bss_end__+0x1ccf778>
     89c:	2f706f74 	svccs	0x00706f74
     8a0:	6f686373 	svcvs	0x00686373
     8a4:	532f6c6f 	teqpl	pc, #28416	; 0x6f00
     8a8:	6e697270 	mcrvs	2, 3, r7, cr9, cr0, {3}
     8ac:	32393167 	eorscc	r3, r9, #-1073741799	; 0xc0000019
     8b0:	53432f30 	movtpl	r2, #16176	; 0x3f30
     8b4:	4c303432 	cfldrsmi	mvf3, [r0], #-200	; 0xffffff38
     8b8:	73632f58 	cmnvc	r3, #88, 30	; 0x160
     8bc:	6c303432 	cfldrsvs	mvf3, [r0], #-200	; 0xffffff38
     8c0:	30322d78 	eorscc	r2, r2, r8, ror sp
     8c4:	2f727073 	svccs	0x00727073
     8c8:	7062696c 	rsbvc	r6, r2, ip, ror #18
     8cc:	6e692f69 	cdpvs	15, 6, cr2, cr9, cr9, {3}
     8d0:	64756c63 	ldrbtvs	r6, [r5], #-3171	; 0xc63
     8d4:	76000065 	strvc	r0, [r0], -r5, rrx
     8d8:	72702d61 	rsbsvc	r2, r0, #6208	; 0x1840
     8dc:	6b746e69 	blvs	1d1c288 <__bss_end__+0x1d11c50>
     8e0:	0100632e 	tsteq	r0, lr, lsr #6
     8e4:	74730000 	ldrbtvc	r0, [r3], #-0
     8e8:	67726164 	ldrbvs	r6, [r2, -r4, ror #2]!
     8ec:	0200682e 	andeq	r6, r0, #3014656	; 0x2e0000
     8f0:	70720000 	rsbsvc	r0, r2, r0
     8f4:	00682e69 	rsbeq	r2, r8, r9, ror #28
     8f8:	3c000003 	stccc	0, cr0, [r0], {3}
     8fc:	6c697562 	cfstr64vs	mvdx7, [r9], #-392	; 0xfffffe78
     900:	6e692d74 	mcrvs	13, 3, r2, cr9, cr4, {3}
     904:	0000003e 	andeq	r0, r0, lr, lsr r0
     908:	05000000 	streq	r0, [r0, #-0]
     90c:	008ef402 	addeq	pc, lr, r2, lsl #8
     910:	01260300 	teqeq	r6, r0, lsl #6
     914:	3113a501 	tstcc	r3, r1, lsl #10
     918:	0402002d 	streq	r0, [r2], #-45	; 0x2d
     91c:	02002f02 	andeq	r2, r0, #2, 30
     920:	002d0204 	eoreq	r0, sp, r4, lsl #4
     924:	2f020402 	svccs	0x00020402
     928:	01040200 	mrseq	r0, R12_usr
     92c:	304c4c2d 	subcc	r4, ip, sp, lsr #24
     930:	4f2f4b14 	svcmi	0x002f4b14
     934:	02040200 	andeq	r0, r4, #0, 4
     938:	04020067 	streq	r0, [r2], #-103	; 0x67
     93c:	4d4c6501 	cfstr64mi	mvdx6, [ip, #-4]
     940:	312fa030 	teqcc	pc, r0, lsr r0	; <UNPREDICTABLE>
     944:	16260230 			; <UNDEFINED> instruction: 0x16260230
     948:	002c2d84 	eoreq	r2, ip, r4, lsl #27
     94c:	30010402 	andcc	r0, r1, r2, lsl #8
     950:	01040200 	mrseq	r0, R12_usr
     954:	00660633 	rsbeq	r0, r6, r3, lsr r6
     958:	2e010402 	cdpcs	4, 0, cr0, cr1, cr2, {0}
     95c:	01040200 	mrseq	r0, R12_usr
     960:	67210806 	strvs	r0, [r1, -r6, lsl #16]!
     964:	8273032f 	rsbshi	r0, r3, #-1140850688	; 0xbc000000
     968:	002e1303 	eoreq	r1, lr, r3, lsl #6
     96c:	06010402 	streq	r0, [r1], -r2, lsl #8
     970:	04020066 	streq	r0, [r2], #-102	; 0x66
     974:	4b830601 	blmi	fe0c2180 <__bss_end__+0xfe0b7b48>
     978:	4b31674b 	blmi	c5a6ac <__bss_end__+0xc50074>
     97c:	032e6503 	teqeq	lr, #12582912	; 0xc00000
     980:	02002e23 	andeq	r2, r0, #560	; 0x230
     984:	2e060104 	adfcss	f0, f6, f4
     988:	01040200 	mrseq	r0, R12_usr
     98c:	02009f06 	andeq	r9, r0, #6, 30
     990:	086a0104 	stmdaeq	sl!, {r2, r8}^
     994:	a403d723 	strge	sp, [r3], #-1827	; 0x723
     998:	4b3c087f 	blmi	f02b9c <__bss_end__+0xef8564>
     99c:	01040200 	mrseq	r0, R12_usr
     9a0:	08064a06 	stmdaeq	r6, {r1, r2, r9, fp, lr}
     9a4:	4b2f4b21 	blmi	bd3630 <__bss_end__+0xbc8ff8>
     9a8:	f200db03 	vqdmulh.s<illegal width 8>	d13, d0, d3
     9ac:	32484c9f 	subcc	r4, r8, #40704	; 0x9f00
     9b0:	4b842f4b 	blmi	fe10c6e4 <__bss_end__+0xfe1020ac>
     9b4:	314d2d2f 	cmpcc	sp, pc, lsr #26
     9b8:	00832f30 	addeq	r2, r3, r0, lsr pc
     9bc:	2c010402 	cfstrscs	mvf0, [r1], {2}
     9c0:	040200be 	streq	r0, [r2], #-190	; 0xbe
     9c4:	064a0601 	strbeq	r0, [sl], -r1, lsl #12
     9c8:	36022208 	strcc	r2, [r2], -r8, lsl #4
     9cc:	d60e0316 			; <UNDEFINED> instruction: 0xd60e0316
     9d0:	08302108 	ldmdaeq	r0!, {r3, r8, sp}
     9d4:	21083121 	tstcs	r8, r1, lsr #2
     9d8:	30210830 	eorcc	r0, r1, r0, lsr r8
     9dc:	2108304b 	tstcs	r8, fp, asr #32
     9e0:	83834b30 	orrhi	r4, r3, #48, 22	; 0xc000
     9e4:	002f31d9 	ldrdeq	r3, [pc], -r9	; <UNPREDICTABLE>
     9e8:	65010402 	strvs	r0, [r1, #-1026]	; 0x402
     9ec:	02040200 	andeq	r0, r4, #0, 4
     9f0:	02004a06 	andeq	r4, r0, #24576	; 0x6000
     9f4:	03060104 	movweq	r0, #24836	; 0x6104
     9f8:	00667fbf 	strhteq	r7, [r6], #-255	; 0xffffff01
     9fc:	06020402 	streq	r0, [r2], -r2, lsl #8
     a00:	c5030666 	strgt	r0, [r3, #-1638]	; 0x666
     a04:	02684a00 	rsbeq	r4, r8, #0, 20
     a08:	01010016 	tsteq	r1, r6, lsl r0
     a0c:	00000042 	andeq	r0, r0, r2, asr #32
     a10:	00280002 	eoreq	r0, r8, r2
     a14:	01020000 	mrseq	r0, (UNDEF: 2)
     a18:	000d0efb 	strdeq	r0, [sp], -fp
     a1c:	01010101 	tsteq	r1, r1, lsl #2
     a20:	01000000 	mrseq	r0, (UNDEF: 0)
     a24:	73010000 	movwvc	r0, #4096	; 0x1000
     a28:	66666174 			; <UNDEFINED> instruction: 0x66666174
     a2c:	6372732d 	cmnvs	r2, #-1275068416	; 0xb4000000
     a30:	61630000 	cmnvs	r3, r0
     a34:	2e656863 	cdpcs	8, 6, cr6, cr5, cr3, {3}
     a38:	00010063 	andeq	r0, r1, r3, rrx
     a3c:	05000000 	streq	r0, [r0, #-0]
     a40:	00946c02 	addseq	r6, r4, r2, lsl #24
     a44:	30141400 	andscc	r1, r4, r0, lsl #8
     a48:	31144e2f 	tstcc	r4, pc, lsr #28
     a4c:	0004022f 	andeq	r0, r4, pc, lsr #4
     a50:	009d0101 	addseq	r0, sp, r1, lsl #2
     a54:	00020000 	andeq	r0, r2, r0
     a58:	00000086 	andeq	r0, r0, r6, lsl #1
     a5c:	0efb0102 	cdpeq	1, 15, cr0, cr11, cr2, {0}
     a60:	0101000d 	tsteq	r1, sp
     a64:	00000101 	andeq	r0, r0, r1, lsl #2
     a68:	00000100 	andeq	r0, r0, r0, lsl #2
     a6c:	61747301 	cmnvs	r4, r1, lsl #6
     a70:	732d6666 	teqvc	sp, #106954752	; 0x6600000
     a74:	2f006372 	svccs	0x00006372
     a78:	72657355 	rsbvc	r7, r5, #1409286145	; 0x54000001
     a7c:	72622f73 	rsbvc	r2, r2, #460	; 0x1cc
     a80:	6a6e6169 	bvs	1b9902c <__bss_end__+0x1b8e9f4>
     a84:	442f6e75 	strtmi	r6, [pc], #-3701	; a8c <__code_start__-0x7574>
     a88:	746b7365 	strbtvc	r7, [fp], #-869	; 0x365
     a8c:	732f706f 	teqvc	pc, #111	; 0x6f
     a90:	6f6f6863 	svcvs	0x006f6863
     a94:	70532f6c 	subsvc	r2, r3, ip, ror #30
     a98:	676e6972 			; <UNDEFINED> instruction: 0x676e6972
     a9c:	30323931 	eorscc	r3, r2, r1, lsr r9
     aa0:	3253432f 	subscc	r4, r3, #-1140850688	; 0xbc000000
     aa4:	584c3034 	stmdapl	ip, {r2, r4, r5, ip, sp}^
     aa8:	3273632f 	rsbscc	r6, r3, #-1140850688	; 0xbc000000
     aac:	786c3034 	stmdavc	ip!, {r2, r4, r5, ip, sp}^
     ab0:	7330322d 	teqvc	r0, #-805306366	; 0xd0000002
     ab4:	6c2f7270 	sfmvs	f7, 4, [pc], #-448	; 8fc <__code_start__-0x7704>
     ab8:	69706269 	ldmdbvs	r0!, {r0, r3, r5, r6, r9, sp, lr}^
     abc:	636e692f 	cmnvs	lr, #770048	; 0xbc000
     ac0:	6564756c 	strbvs	r7, [r4, #-1388]!	; 0x56c
     ac4:	6c630000 	stclvs	0, cr0, [r3], #-0
     ac8:	2d6e6165 	stfcse	f6, [lr, #-404]!	; 0xfffffe6c
     acc:	6f626572 	svcvs	0x00626572
     ad0:	632e746f 	teqvs	lr, #1862270976	; 0x6f000000
     ad4:	00000100 	andeq	r0, r0, r0, lsl #2
     ad8:	2e697072 	mcrcs	0, 3, r7, cr9, cr2, {3}
     adc:	00020068 	andeq	r0, r2, r8, rrx
     ae0:	05000000 	streq	r0, [r0, #-0]
     ae4:	00948c02 	addseq	r8, r4, r2, lsl #24
     ae8:	2f2f1500 	svccs	0x002f1500
     aec:	06024b83 	streq	r4, [r2], -r3, lsl #23
     af0:	a6010100 	strge	r0, [r1], -r0, lsl #2
     af4:	02000000 	andeq	r0, r0, #0
     af8:	00008000 	andeq	r8, r0, r0
     afc:	fb010200 	blx	41306 <__bss_end__+0x36cce>
     b00:	01000d0e 	tsteq	r0, lr, lsl #26
     b04:	00010101 	andeq	r0, r1, r1, lsl #2
     b08:	00010000 	andeq	r0, r1, r0
     b0c:	74730100 	ldrbtvc	r0, [r3], #-256	; 0x100
     b10:	2d666661 	stclcs	6, cr6, [r6, #-388]!	; 0xfffffe7c
     b14:	00637273 	rsbeq	r7, r3, r3, ror r2
     b18:	6573552f 	ldrbvs	r5, [r3, #-1327]!	; 0x52f
     b1c:	622f7372 	eorvs	r7, pc, #-939524095	; 0xc8000001
     b20:	6e616972 	mcrvs	9, 3, r6, cr1, cr2, {3}
     b24:	2f6e756a 	svccs	0x006e756a
     b28:	6b736544 	blvs	1cda040 <__bss_end__+0x1ccfa08>
     b2c:	2f706f74 	svccs	0x00706f74
     b30:	6f686373 	svcvs	0x00686373
     b34:	532f6c6f 	teqpl	pc, #28416	; 0x6f00
     b38:	6e697270 	mcrvs	2, 3, r7, cr9, cr0, {3}
     b3c:	32393167 	eorscc	r3, r9, #-1073741799	; 0xc0000019
     b40:	53432f30 	movtpl	r2, #16176	; 0x3f30
     b44:	4c303432 	cfldrsmi	mvf3, [r0], #-200	; 0xffffff38
     b48:	73632f58 	cmnvc	r3, #88, 30	; 0x160
     b4c:	6c303432 	cfldrsvs	mvf3, [r0], #-200	; 0xffffff38
     b50:	30322d78 	eorscc	r2, r2, r8, ror sp
     b54:	2f727073 	svccs	0x00727073
     b58:	7062696c 	rsbvc	r6, r2, ip, ror #18
     b5c:	6e692f69 	cdpvs	15, 6, cr2, cr9, cr9, {3}
     b60:	64756c63 	ldrbtvs	r6, [r5], #-3171	; 0xc63
     b64:	63000065 	movwvs	r0, #101	; 0x65
     b68:	72617473 	rsbvc	r7, r1, #1929379840	; 0x73000000
     b6c:	00632e74 	rsbeq	r2, r3, r4, ror lr
     b70:	72000001 	andvc	r0, r0, #1
     b74:	682e6970 	stmdavs	lr!, {r4, r5, r6, r8, fp, sp, lr}
     b78:	00000200 	andeq	r0, r0, r0, lsl #4
     b7c:	02050000 	andeq	r0, r5, #0
     b80:	000094b8 			; <UNDEFINED> instruction: 0x000094b8
     b84:	32010c03 	andcc	r0, r1, #768	; 0x300
     b88:	2f2d2f31 	svccs	0x002d2f31
     b8c:	01040200 	mrseq	r0, R12_usr
     b90:	4a090349 	bmi	2418bc <__bss_end__+0x237284>
     b94:	2f2e0d03 	svccs	0x002e0d03
     b98:	01000602 	tsteq	r0, r2, lsl #12
     b9c:	0000a201 	andeq	sl, r0, r1, lsl #4
     ba0:	8e000200 	cdphi	2, 0, cr0, cr0, cr0, {0}
     ba4:	02000000 	andeq	r0, r0, #0
     ba8:	0d0efb01 	vstreq	d15, [lr, #-4]
     bac:	01010100 	mrseq	r0, (UNDEF: 17)
     bb0:	00000001 	andeq	r0, r0, r1
     bb4:	01000001 	tsteq	r0, r1
     bb8:	66617473 			; <UNDEFINED> instruction: 0x66617473
     bbc:	72732d66 	rsbsvc	r2, r3, #6528	; 0x1980
     bc0:	552f0063 	strpl	r0, [pc, #-99]!	; b65 <__code_start__-0x749b>
     bc4:	73726573 	cmnvc	r2, #482344960	; 0x1cc00000
     bc8:	6972622f 	ldmdbvs	r2!, {r0, r1, r2, r3, r5, r9, sp, lr}^
     bcc:	756a6e61 	strbvc	r6, [sl, #-3681]!	; 0xe61
     bd0:	65442f6e 	strbvs	r2, [r4, #-3950]	; 0xf6e
     bd4:	6f746b73 	svcvs	0x00746b73
     bd8:	63732f70 	cmnvs	r3, #112, 30	; 0x1c0
     bdc:	6c6f6f68 	stclvs	15, cr6, [pc], #-416	; a44 <__code_start__-0x75bc>
     be0:	7270532f 	rsbsvc	r5, r0, #-1140850688	; 0xbc000000
     be4:	31676e69 	cmncc	r7, r9, ror #28
     be8:	2f303239 	svccs	0x00303239
     bec:	34325343 	ldrtcc	r5, [r2], #-835	; 0x343
     bf0:	2f584c30 	svccs	0x00584c30
     bf4:	34327363 	ldrtcc	r7, [r2], #-867	; 0x363
     bf8:	2d786c30 	ldclcs	12, cr6, [r8, #-192]!	; 0xffffff40
     bfc:	70733032 	rsbsvc	r3, r3, r2, lsr r0
     c00:	696c2f72 	stmdbvs	ip!, {r1, r4, r5, r6, r8, r9, sl, fp, sp}^
     c04:	2f697062 	svccs	0x00697062
     c08:	6c636e69 	stclvs	14, cr6, [r3], #-420	; 0xfffffe5c
     c0c:	00656475 	rsbeq	r6, r5, r5, ror r4
     c10:	66656400 	strbtvs	r6, [r5], -r0, lsl #8
     c14:	746c7561 	strbtvc	r7, [ip], #-1377	; 0x561
     c18:	6e61682d 	cdpvs	8, 6, cr6, cr1, cr13, {1}
     c1c:	72656c64 	rsbvc	r6, r5, #100, 24	; 0x6400
     c20:	7361662d 	cmnvc	r1, #47185920	; 0x2d00000
     c24:	00632e74 	rsbeq	r2, r3, r4, ror lr
     c28:	72000001 	andvc	r0, r0, #1
     c2c:	682e6970 	stmdavs	lr!, {r4, r5, r6, r8, fp, sp, lr}
     c30:	00000200 	andeq	r0, r0, r0, lsl #4
     c34:	02050000 	andeq	r0, r5, #0
     c38:	000094f0 	strdeq	r9, [r0], -r0
     c3c:	1c026613 	stcne	6, cr6, [r2], {19}
     c40:	a3010100 	movwge	r0, #4352	; 0x1100
     c44:	02000000 	andeq	r0, r0, #0
     c48:	00008f00 	andeq	r8, r0, r0, lsl #30
     c4c:	fb010200 	blx	41456 <__bss_end__+0x36e1e>
     c50:	01000d0e 	tsteq	r0, lr, lsl #26
     c54:	00010101 	andeq	r0, r1, r1, lsl #2
     c58:	00010000 	andeq	r0, r1, r0
     c5c:	74730100 	ldrbtvc	r0, [r3], #-256	; 0x100
     c60:	2d666661 	stclcs	6, cr6, [r6, #-388]!	; 0xfffffe7c
     c64:	00637273 	rsbeq	r7, r3, r3, ror r2
     c68:	6573552f 	ldrbvs	r5, [r3, #-1327]!	; 0x52f
     c6c:	622f7372 	eorvs	r7, pc, #-939524095	; 0xc8000001
     c70:	6e616972 	mcrvs	9, 3, r6, cr1, cr2, {3}
     c74:	2f6e756a 	svccs	0x006e756a
     c78:	6b736544 	blvs	1cda190 <__bss_end__+0x1ccfb58>
     c7c:	2f706f74 	svccs	0x00706f74
     c80:	6f686373 	svcvs	0x00686373
     c84:	532f6c6f 	teqpl	pc, #28416	; 0x6f00
     c88:	6e697270 	mcrvs	2, 3, r7, cr9, cr0, {3}
     c8c:	32393167 	eorscc	r3, r9, #-1073741799	; 0xc0000019
     c90:	53432f30 	movtpl	r2, #16176	; 0x3f30
     c94:	4c303432 	cfldrsmi	mvf3, [r0], #-200	; 0xffffff38
     c98:	73632f58 	cmnvc	r3, #88, 30	; 0x160
     c9c:	6c303432 	cfldrsvs	mvf3, [r0], #-200	; 0xffffff38
     ca0:	30322d78 	eorscc	r2, r2, r8, ror sp
     ca4:	2f727073 	svccs	0x00727073
     ca8:	7062696c 	rsbvc	r6, r2, ip, ror #18
     cac:	6e692f69 	cdpvs	15, 6, cr2, cr9, cr9, {3}
     cb0:	64756c63 	ldrbtvs	r6, [r5], #-3171	; 0xc63
     cb4:	64000065 	strvs	r0, [r0], #-101	; 0x65
     cb8:	75616665 	strbvc	r6, [r1, #-1637]!	; 0x665
     cbc:	682d746c 	stmdavs	sp!, {r2, r3, r5, r6, sl, ip, sp, lr}
     cc0:	6c646e61 	stclvs	14, cr6, [r4], #-388	; 0xfffffe7c
     cc4:	722d7265 	eorvc	r7, sp, #1342177286	; 0x50000006
     cc8:	74657365 	strbtvc	r7, [r5], #-869	; 0x365
     ccc:	0100632e 	tsteq	r0, lr, lsr #6
     cd0:	70720000 	rsbsvc	r0, r2, r0
     cd4:	00682e69 	rsbeq	r2, r8, r9, ror #28
     cd8:	00000002 	andeq	r0, r0, r2
     cdc:	34020500 	strcc	r0, [r2], #-1280	; 0x500
     ce0:	13000095 	movwne	r0, #149	; 0x95
     ce4:	001c0266 	andseq	r0, ip, r6, ror #4
     ce8:	00ac0101 	adceq	r0, ip, r1, lsl #2
     cec:	00020000 	andeq	r0, r2, r0
     cf0:	00000098 	muleq	r0, r8, r0
     cf4:	0efb0102 	cdpeq	1, 15, cr0, cr11, cr2, {0}
     cf8:	0101000d 	tsteq	r1, sp
     cfc:	00000101 	andeq	r0, r0, r1, lsl #2
     d00:	00000100 	andeq	r0, r0, r0, lsl #2
     d04:	61747301 	cmnvs	r4, r1, lsl #6
     d08:	732d6666 	teqvc	sp, #106954752	; 0x6600000
     d0c:	2f006372 	svccs	0x00006372
     d10:	72657355 	rsbvc	r7, r5, #1409286145	; 0x54000001
     d14:	72622f73 	rsbvc	r2, r2, #460	; 0x1cc
     d18:	6a6e6169 	bvs	1b992c4 <__bss_end__+0x1b8ec8c>
     d1c:	442f6e75 	strtmi	r6, [pc], #-3701	; d24 <__code_start__-0x72dc>
     d20:	746b7365 	strbtvc	r7, [fp], #-869	; 0x365
     d24:	732f706f 	teqvc	pc, #111	; 0x6f
     d28:	6f6f6863 	svcvs	0x006f6863
     d2c:	70532f6c 	subsvc	r2, r3, ip, ror #30
     d30:	676e6972 			; <UNDEFINED> instruction: 0x676e6972
     d34:	30323931 	eorscc	r3, r2, r1, lsr r9
     d38:	3253432f 	subscc	r4, r3, #-1140850688	; 0xbc000000
     d3c:	584c3034 	stmdapl	ip, {r2, r4, r5, ip, sp}^
     d40:	3273632f 	rsbscc	r6, r3, #-1140850688	; 0xbc000000
     d44:	786c3034 	stmdavc	ip!, {r2, r4, r5, ip, sp}^
     d48:	7330322d 	teqvc	r0, #-805306366	; 0xd0000002
     d4c:	6c2f7270 	sfmvs	f7, 4, [pc], #-448	; b94 <__code_start__-0x746c>
     d50:	69706269 	ldmdbvs	r0!, {r0, r3, r5, r6, r9, sp, lr}^
     d54:	636e692f 	cmnvs	lr, #770048	; 0xbc000
     d58:	6564756c 	strbvs	r7, [r4, #-1388]!	; 0x56c
     d5c:	65640000 	strbvs	r0, [r4, #-0]!
     d60:	6c756166 	ldfvse	f6, [r5], #-408	; 0xfffffe68
     d64:	61682d74 	smcvs	33492	; 0x82d4
     d68:	656c646e 	strbvs	r6, [ip, #-1134]!	; 0x46e
     d6c:	6e752d72 	mrcvs	13, 3, r2, cr5, cr2, {3}
     d70:	69666564 	stmdbvs	r6!, {r2, r5, r6, r8, sl, sp, lr}^
     d74:	2d64656e 	cfstr64cs	mvdx6, [r4, #-440]!	; 0xfffffe48
     d78:	74736e69 	ldrbtvc	r6, [r3], #-3689	; 0xe69
     d7c:	0100632e 	tsteq	r0, lr, lsr #6
     d80:	70720000 	rsbsvc	r0, r2, r0
     d84:	00682e69 	rsbeq	r2, r8, r9, ror #28
     d88:	00000002 	andeq	r0, r0, r2
     d8c:	78020500 	stmdavc	r2, {r8, sl}
     d90:	13000095 	movwne	r0, #149	; 0x95
     d94:	001c0266 	andseq	r0, ip, r6, ror #4
     d98:	00470101 	subeq	r0, r7, r1, lsl #2
     d9c:	00020000 	andeq	r0, r2, r0
     da0:	00000033 	andeq	r0, r0, r3, lsr r0
     da4:	0efb0102 	cdpeq	1, 15, cr0, cr11, cr2, {0}
     da8:	0101000d 	tsteq	r1, sp
     dac:	00000101 	andeq	r0, r0, r1, lsl #2
     db0:	00000100 	andeq	r0, r0, r0, lsl #2
     db4:	61747301 	cmnvs	r4, r1, lsl #6
     db8:	732d6666 	teqvc	sp, #106954752	; 0x6600000
     dbc:	00006372 	andeq	r6, r0, r2, ror r3
     dc0:	61666564 	cmnvs	r6, r4, ror #10
     dc4:	2d746c75 	ldclcs	12, cr6, [r4, #-468]!	; 0xfffffe2c
     dc8:	646e6168 	strbtvs	r6, [lr], #-360	; 0x168
     dcc:	7372656c 	cmnvc	r2, #108, 10	; 0x1b000000
     dd0:	0100632e 	tsteq	r0, lr, lsr #6
     dd4:	00000000 	andeq	r0, r0, r0
     dd8:	95bc0205 	ldrls	r0, [ip, #517]!	; 0x205
     ddc:	2f150000 	svccs	0x00150000
     de0:	01000202 	tsteq	r0, r2, lsl #4
     de4:	0000c901 	andeq	ip, r0, r1, lsl #18
     de8:	9a000200 	bls	15f0 <__code_start__-0x6a10>
     dec:	02000000 	andeq	r0, r0, #0
     df0:	0d0efb01 	vstreq	d15, [lr, #-4]
     df4:	01010100 	mrseq	r0, (UNDEF: 17)
     df8:	00000001 	andeq	r0, r0, r1
     dfc:	01000001 	tsteq	r0, r1
     e00:	66617473 			; <UNDEFINED> instruction: 0x66617473
     e04:	72732d66 	rsbsvc	r2, r3, #6528	; 0x1980
     e08:	552f0063 	strpl	r0, [pc, #-99]!	; dad <__code_start__-0x7253>
     e0c:	73726573 	cmnvc	r2, #482344960	; 0x1cc00000
     e10:	6972622f 	ldmdbvs	r2!, {r0, r1, r2, r3, r5, r9, sp, lr}^
     e14:	756a6e61 	strbvc	r6, [sl, #-3681]!	; 0xe61
     e18:	65442f6e 	strbvs	r2, [r4, #-3950]	; 0xf6e
     e1c:	6f746b73 	svcvs	0x00746b73
     e20:	63732f70 	cmnvs	r3, #112, 30	; 0x1c0
     e24:	6c6f6f68 	stclvs	15, cr6, [pc], #-416	; c8c <__code_start__-0x7374>
     e28:	7270532f 	rsbsvc	r5, r0, #-1140850688	; 0xbc000000
     e2c:	31676e69 	cmncc	r7, r9, ror #28
     e30:	2f303239 	svccs	0x00303239
     e34:	34325343 	ldrtcc	r5, [r2], #-835	; 0x343
     e38:	2f584c30 	svccs	0x00584c30
     e3c:	34327363 	ldrtcc	r7, [r2], #-867	; 0x363
     e40:	2d786c30 	ldclcs	12, cr6, [r8, #-192]!	; 0xffffff40
     e44:	70733032 	rsbsvc	r3, r3, r2, lsr r0
     e48:	696c2f72 	stmdbvs	ip!, {r1, r4, r5, r6, r8, r9, sl, fp, sp}^
     e4c:	2f697062 	svccs	0x00697062
     e50:	6c636e69 	stclvs	14, cr6, [r3], #-420	; 0xfffffe5c
     e54:	00656475 	rsbeq	r6, r5, r5, ror r4
     e58:	746e6900 	strbtvc	r6, [lr], #-2304	; 0x900
     e5c:	75727265 	ldrbvc	r7, [r2, #-613]!	; 0x265
     e60:	2d737470 	cfldrdcs	mvd7, [r3, #-448]!	; 0xfffffe40
     e64:	00632e63 	rsbeq	r2, r3, r3, ror #28
     e68:	72000001 	andvc	r0, r0, #1
     e6c:	692d6970 	pushvs	{r4, r5, r6, r8, fp, sp, lr}
     e70:	7265746e 	rsbvc	r7, r5, #1845493760	; 0x6e000000
     e74:	74707572 	ldrbtvc	r7, [r0], #-1394	; 0x572
     e78:	00682e73 	rsbeq	r2, r8, r3, ror lr
     e7c:	72000002 	andvc	r0, r0, #2
     e80:	682e6970 	stmdavs	lr!, {r4, r5, r6, r8, fp, sp, lr}
     e84:	00000200 	andeq	r0, r0, r0, lsl #4
     e88:	02050000 	andeq	r0, r5, #0
     e8c:	000095c4 	andeq	r9, r0, r4, asr #11
     e90:	31011a03 	tstcc	r1, r3, lsl #20
     e94:	3667672f 	strbtcc	r6, [r7], -pc, lsr #14
     e98:	002d2f83 	eoreq	r2, sp, r3, lsl #31
     e9c:	2f020402 	svccs	0x00020402
     ea0:	02040200 	andeq	r0, r4, #0, 4
     ea4:	04020065 	streq	r0, [r2], #-101	; 0x65
     ea8:	062e0601 	strteq	r0, [lr], -r1, lsl #12
     eac:	000a024c 	andeq	r0, sl, ip, asr #4
     eb0:	00a20101 	adceq	r0, r2, r1, lsl #2
     eb4:	00020000 	andeq	r0, r2, r0
     eb8:	00000080 	andeq	r0, r0, r0, lsl #1
     ebc:	0efb0102 	cdpeq	1, 15, cr0, cr11, cr2, {0}
     ec0:	0101000d 	tsteq	r1, sp
     ec4:	00000101 	andeq	r0, r0, r1, lsl #2
     ec8:	00000100 	andeq	r0, r0, r0, lsl #2
     ecc:	61747301 	cmnvs	r4, r1, lsl #6
     ed0:	732d6666 	teqvc	sp, #106954752	; 0x6600000
     ed4:	2f006372 	svccs	0x00006372
     ed8:	72657355 	rsbvc	r7, r5, #1409286145	; 0x54000001
     edc:	72622f73 	rsbvc	r2, r2, #460	; 0x1cc
     ee0:	6a6e6169 	bvs	1b9948c <__bss_end__+0x1b8ee54>
     ee4:	442f6e75 	strtmi	r6, [pc], #-3701	; eec <__code_start__-0x7114>
     ee8:	746b7365 	strbtvc	r7, [fp], #-869	; 0x365
     eec:	732f706f 	teqvc	pc, #111	; 0x6f
     ef0:	6f6f6863 	svcvs	0x006f6863
     ef4:	70532f6c 	subsvc	r2, r3, ip, ror #30
     ef8:	676e6972 			; <UNDEFINED> instruction: 0x676e6972
     efc:	30323931 	eorscc	r3, r2, r1, lsr r9
     f00:	3253432f 	subscc	r4, r3, #-1140850688	; 0xbc000000
     f04:	584c3034 	stmdapl	ip, {r2, r4, r5, ip, sp}^
     f08:	3273632f 	rsbscc	r6, r3, #-1140850688	; 0xbc000000
     f0c:	786c3034 	stmdavc	ip!, {r2, r4, r5, ip, sp}^
     f10:	7330322d 	teqvc	r0, #-805306366	; 0xd0000002
     f14:	6c2f7270 	sfmvs	f7, 4, [pc], #-448	; d5c <__code_start__-0x72a4>
     f18:	69706269 	ldmdbvs	r0!, {r0, r3, r5, r6, r9, sp, lr}^
     f1c:	636e692f 	cmnvs	lr, #770048	; 0xbc000
     f20:	6564756c 	strbvs	r7, [r4, #-1388]!	; 0x56c
     f24:	65720000 	ldrbvs	r0, [r2, #-0]!
     f28:	746f6f62 	strbtvc	r6, [pc], #-3938	; f30 <__code_start__-0x70d0>
     f2c:	0100632e 	tsteq	r0, lr, lsr #6
     f30:	70720000 	rsbsvc	r0, r2, r0
     f34:	00682e69 	rsbeq	r2, r8, r9, ror #28
     f38:	00000002 	andeq	r0, r0, r2
     f3c:	30020500 	andcc	r0, r2, r0, lsl #10
     f40:	03000096 	movweq	r0, #150	; 0x96
     f44:	3114010d 	tstcc	r4, sp, lsl #2
     f48:	2f15852f 	svccs	0x0015852f
     f4c:	672f4d4b 	strvs	r4, [pc, -fp, asr #26]!
     f50:	02675235 	rsbeq	r5, r7, #1342177283	; 0x50000003
     f54:	01010010 	tsteq	r1, r0, lsl r0
     f58:	000000ae 	andeq	r0, r0, lr, lsr #1
     f5c:	007f0002 	rsbseq	r0, pc, r2
     f60:	01020000 	mrseq	r0, (UNDEF: 2)
     f64:	000d0efb 	strdeq	r0, [sp], -fp
     f68:	01010101 	tsteq	r1, r1, lsl #2
     f6c:	01000000 	mrseq	r0, (UNDEF: 0)
     f70:	73010000 	movwvc	r0, #4096	; 0x1000
     f74:	66666174 			; <UNDEFINED> instruction: 0x66666174
     f78:	6372732d 	cmnvs	r2, #-1275068416	; 0xb4000000
     f7c:	73552f00 	cmpvc	r5, #0, 30
     f80:	2f737265 	svccs	0x00737265
     f84:	61697262 	cmnvs	r9, r2, ror #4
     f88:	6e756a6e 	vsubvs.f32	s13, s10, s29
     f8c:	7365442f 	cmnvc	r5, #788529152	; 0x2f000000
     f90:	706f746b 	rsbvc	r7, pc, fp, ror #8
     f94:	6863732f 	stmdavs	r3!, {r0, r1, r2, r3, r5, r8, r9, ip, sp, lr}^
     f98:	2f6c6f6f 	svccs	0x006c6f6f
     f9c:	69727053 	ldmdbvs	r2!, {r0, r1, r4, r6, ip, sp, lr}^
     fa0:	3931676e 	ldmdbcc	r1!, {r1, r2, r3, r5, r6, r8, r9, sl, sp, lr}
     fa4:	432f3032 	teqmi	pc, #50	; 0x32
     fa8:	30343253 	eorscc	r3, r4, r3, asr r2
     fac:	632f584c 	teqvs	pc, #76, 16	; 0x4c0000
     fb0:	30343273 	eorscc	r3, r4, r3, ror r2
     fb4:	322d786c 	eorcc	r7, sp, #108, 16	; 0x6c0000
     fb8:	72707330 	rsbsvc	r7, r0, #48, 6	; 0xc0000000
     fbc:	62696c2f 	rsbvs	r6, r9, #12032	; 0x2f00
     fc0:	692f6970 	stmdbvs	pc!, {r4, r5, r6, r8, fp, sp, lr}	; <UNPREDICTABLE>
     fc4:	756c636e 	strbvc	r6, [ip, #-878]!	; 0x36e
     fc8:	00006564 	andeq	r6, r0, r4, ror #10
     fcc:	656d6974 	strbvs	r6, [sp, #-2420]!	; 0x974
     fd0:	00632e72 	rsbeq	r2, r3, r2, ror lr
     fd4:	72000001 	andvc	r0, r0, #1
     fd8:	682e6970 	stmdavs	lr!, {r4, r5, r6, r8, fp, sp, lr}
     fdc:	00000200 	andeq	r0, r0, r0, lsl #4
     fe0:	02050000 	andeq	r0, r5, #0
     fe4:	000096a4 	andeq	r9, r0, r4, lsr #13
     fe8:	2d2f1416 	cfstrscs	mvf1, [pc, #-88]!	; f98 <__code_start__-0x7068>
     fec:	01040200 	mrseq	r0, R12_usr
     ff0:	6d062e06 	stcvs	14, cr2, [r6, #-24]	; 0xffffffe8
     ff4:	4d4b2f31 	stclmi	15, cr2, [fp, #-196]	; 0xffffff3c
     ff8:	304b2f31 	subcc	r2, fp, r1, lsr pc
     ffc:	2f4c4b4c 	svccs	0x004c4b4c
    1000:	842f2f6a 	strthi	r2, [pc], #-3946	; 1008 <__code_start__-0x6ff8>
    1004:	0008022f 	andeq	r0, r8, pc, lsr #4
    1008:	01480101 	cmpeq	r8, r1, lsl #2
    100c:	00020000 	andeq	r0, r2, r0
    1010:	00000102 	andeq	r0, r0, r2, lsl #2
    1014:	0efb0102 	cdpeq	1, 15, cr0, cr11, cr2, {0}
    1018:	0101000d 	tsteq	r1, sp
    101c:	00000101 	andeq	r0, r0, r1, lsl #2
    1020:	00000100 	andeq	r0, r0, r0, lsl #2
    1024:	73752f01 	cmnvc	r5, #1, 30
    1028:	6e692f72 	mcrvs	15, 3, r2, cr9, cr2, {3}
    102c:	64756c63 	ldrbtvs	r6, [r5], #-3171	; 0xc63
    1030:	656e2f65 	strbvs	r2, [lr, #-3941]!	; 0xf65
    1034:	62696c77 	rsbvs	r6, r9, #30464	; 0x7700
    1038:	7379732f 	cmnvc	r9, #-1140850688	; 0xbc000000
    103c:	73752f00 	cmnvc	r5, #0, 30
    1040:	696c2f72 	stmdbvs	ip!, {r1, r4, r5, r6, r8, r9, sl, fp, sp}^
    1044:	63672f62 	cmnvs	r7, #392	; 0x188
    1048:	72612f63 	rsbvc	r2, r1, #396	; 0x18c
    104c:	6f6e2d6d 	svcvs	0x006e2d6d
    1050:	652d656e 	strvs	r6, [sp, #-1390]!	; 0x56e
    1054:	2f696261 	svccs	0x00696261
    1058:	2e332e36 	mrccs	14, 1, r2, cr3, cr6, {1}
    105c:	6e692f31 	mcrvs	15, 3, r2, cr9, cr1, {1}
    1060:	64756c63 	ldrbtvs	r6, [r5], #-3171	; 0xc63
    1064:	682f0065 	stmdavs	pc!, {r0, r2, r5, r6}	; <UNPREDICTABLE>
    1068:	2f656d6f 	svccs	0x00656d6f
    106c:	6c676e65 	stclvs	14, cr6, [r7], #-404	; 0xfffffe6c
    1070:	632f7265 	teqvs	pc, #1342177286	; 0x50000006
    1074:	7373616c 	cmnvc	r3, #108, 2
    1078:	3273632f 	rsbscc	r6, r3, #-1140850688	; 0xbc000000
    107c:	786c3034 	stmdavc	ip!, {r2, r4, r5, ip, sp}^
    1080:	7330322d 	teqvc	r0, #-805306366	; 0xd0000002
    1084:	2f2f7270 	svccs	0x002f7270
    1088:	7062696c 	rsbvc	r6, r2, ip, ror #18
    108c:	682f0069 	stmdavs	pc!, {r0, r3, r5, r6}	; <UNPREDICTABLE>
    1090:	2f656d6f 	svccs	0x00656d6f
    1094:	6c676e65 	stclvs	14, cr6, [r7], #-404	; 0xfffffe6c
    1098:	632f7265 	teqvs	pc, #1342177286	; 0x50000006
    109c:	7373616c 	cmnvc	r3, #108, 2
    10a0:	3273632f 	rsbscc	r6, r3, #-1140850688	; 0xbc000000
    10a4:	786c3034 	stmdavc	ip!, {r2, r4, r5, ip, sp}^
    10a8:	7330322d 	teqvc	r0, #-805306366	; 0xd0000002
    10ac:	2f2f7270 	svccs	0x002f7270
    10b0:	7062696c 	rsbvc	r6, r2, ip, ror #18
    10b4:	74732f69 	ldrbtvc	r2, [r3], #-3945	; 0xf69
    10b8:	2d666661 	stclcs	6, cr6, [r6, #-388]!	; 0xfffffe7c
    10bc:	00637273 	rsbeq	r7, r3, r3, ror r2
    10c0:	72617500 	rsbvc	r7, r1, #0, 10
    10c4:	00632e74 	rsbeq	r2, r3, r4, ror lr
    10c8:	6c000000 	stcvs	0, cr0, [r0], {-0}
    10cc:	2e6b636f 	cdpcs	3, 6, cr6, cr11, cr15, {3}
    10d0:	00010068 	andeq	r0, r1, r8, rrx
    10d4:	79745f00 	ldmdbvc	r4!, {r8, r9, sl, fp, ip, lr}^
    10d8:	2e736570 	mrccs	5, 3, r6, cr3, cr0, {3}
    10dc:	00010068 	andeq	r0, r1, r8, rrx
    10e0:	64747300 	ldrbtvs	r7, [r4], #-768	; 0x300
    10e4:	2e666564 	cdpcs	5, 6, cr6, cr6, cr4, {3}
    10e8:	00020068 	andeq	r0, r2, r8, rrx
    10ec:	65657200 	strbvs	r7, [r5, #-512]!	; 0x200
    10f0:	682e746e 	stmdavs	lr!, {r1, r2, r3, r5, r6, sl, ip, sp, lr}
    10f4:	00000100 	andeq	r0, r0, r0, lsl #2
    10f8:	2e697072 	mcrcs	0, 3, r7, cr9, cr2, {3}
    10fc:	00030068 	andeq	r0, r3, r8, rrx
    1100:	72617500 	rsbvc	r7, r1, #0, 10
    1104:	00682e74 	rsbeq	r2, r8, r4, ror lr
    1108:	67000004 	strvs	r0, [r0, -r4]
    110c:	2e6f6970 	mcrcs	9, 3, r6, cr15, cr0, {3}
    1110:	00040068 	andeq	r0, r4, r8, rrx
    1114:	05000000 	streq	r0, [r0, #-0]
    1118:	0097a002 	addseq	sl, r7, r2
    111c:	012c0300 	teqeq	ip, r0, lsl #6
    1120:	9e0c0367 	cdpls	3, 0, cr0, cr12, cr7, {3}
    1124:	35686735 	strbcc	r6, [r8, #-1845]!	; 0x735
    1128:	2e0c0368 	cdpcs	3, 0, cr0, cr12, cr8, {3}
    112c:	69696b85 	stmdbvs	r9!, {r0, r2, r7, r8, r9, fp, sp, lr}^
    1130:	6b660c03 	blvs	1984144 <__bss_end__+0x1979b0c>
    1134:	34420867 	strbcc	r0, [r2], #-2151	; 0x867
    1138:	68364b68 	ldmdavs	r6!, {r3, r5, r6, r8, r9, fp, lr}
    113c:	02002f87 	andeq	r2, r0, #540	; 0x21c
    1140:	682f0104 	stmdavs	pc!, {r2, r8}	; <UNPREDICTABLE>
    1144:	4b673067 	blmi	19cd2e8 <__bss_end__+0x19c2cb0>
    1148:	01040200 	mrseq	r0, R12_usr
    114c:	6967682f 	stmdbvs	r7!, {r0, r1, r2, r3, r5, fp, sp, lr}^
    1150:	0006022e 	andeq	r0, r6, lr, lsr #4
    1154:	012b0101 	teqeq	fp, r1, lsl #2
    1158:	00020000 	andeq	r0, r2, r0
    115c:	000000f8 	strdeq	r0, [r0], -r8
    1160:	0efb0102 	cdpeq	1, 15, cr0, cr11, cr2, {0}
    1164:	0101000d 	tsteq	r1, sp
    1168:	00000101 	andeq	r0, r0, r1, lsl #2
    116c:	00000100 	andeq	r0, r0, r0, lsl #2
    1170:	73752f01 	cmnvc	r5, #1, 30
    1174:	6e692f72 	mcrvs	15, 3, r2, cr9, cr2, {3}
    1178:	64756c63 	ldrbtvs	r6, [r5], #-3171	; 0xc63
    117c:	656e2f65 	strbvs	r2, [lr, #-3941]!	; 0xf65
    1180:	62696c77 	rsbvs	r6, r9, #30464	; 0x7700
    1184:	7379732f 	cmnvc	r9, #-1140850688	; 0xbc000000
    1188:	73752f00 	cmnvc	r5, #0, 30
    118c:	696c2f72 	stmdbvs	ip!, {r1, r4, r5, r6, r8, r9, sl, fp, sp}^
    1190:	63672f62 	cmnvs	r7, #392	; 0x188
    1194:	72612f63 	rsbvc	r2, r1, #396	; 0x18c
    1198:	6f6e2d6d 	svcvs	0x006e2d6d
    119c:	652d656e 	strvs	r6, [sp, #-1390]!	; 0x56e
    11a0:	2f696261 	svccs	0x00696261
    11a4:	2e332e36 	mrccs	14, 1, r2, cr3, cr6, {1}
    11a8:	6e692f31 	mcrvs	15, 3, r2, cr9, cr1, {1}
    11ac:	64756c63 	ldrbtvs	r6, [r5], #-3171	; 0xc63
    11b0:	682f0065 	stmdavs	pc!, {r0, r2, r5, r6}	; <UNPREDICTABLE>
    11b4:	2f656d6f 	svccs	0x00656d6f
    11b8:	6c676e65 	stclvs	14, cr6, [r7], #-404	; 0xfffffe6c
    11bc:	632f7265 	teqvs	pc, #1342177286	; 0x50000006
    11c0:	7373616c 	cmnvc	r3, #108, 2
    11c4:	3273632f 	rsbscc	r6, r3, #-1140850688	; 0xbc000000
    11c8:	786c3034 	stmdavc	ip!, {r2, r4, r5, ip, sp}^
    11cc:	7330322d 	teqvc	r0, #-805306366	; 0xd0000002
    11d0:	2f2f7270 	svccs	0x002f7270
    11d4:	7062696c 	rsbvc	r6, r2, ip, ror #18
    11d8:	682f0069 	stmdavs	pc!, {r0, r3, r5, r6}	; <UNPREDICTABLE>
    11dc:	2f656d6f 	svccs	0x00656d6f
    11e0:	6c676e65 	stclvs	14, cr6, [r7], #-404	; 0xfffffe6c
    11e4:	632f7265 	teqvs	pc, #1342177286	; 0x50000006
    11e8:	7373616c 	cmnvc	r3, #108, 2
    11ec:	3273632f 	rsbscc	r6, r3, #-1140850688	; 0xbc000000
    11f0:	786c3034 	stmdavc	ip!, {r2, r4, r5, ip, sp}^
    11f4:	7330322d 	teqvc	r0, #-805306366	; 0xd0000002
    11f8:	2f2f7270 	svccs	0x002f7270
    11fc:	7062696c 	rsbvc	r6, r2, ip, ror #18
    1200:	74732f69 	ldrbtvc	r2, [r3], #-3945	; 0xf69
    1204:	2d666661 	stclcs	6, cr6, [r6, #-388]!	; 0xfffffe7c
    1208:	00637273 	rsbeq	r7, r3, r3, ror r2
    120c:	69706700 	ldmdbvs	r0!, {r8, r9, sl, sp, lr}^
    1210:	00632e6f 	rsbeq	r2, r3, pc, ror #28
    1214:	6c000000 	stcvs	0, cr0, [r0], {-0}
    1218:	2e6b636f 	cdpcs	3, 6, cr6, cr11, cr15, {3}
    121c:	00010068 	andeq	r0, r1, r8, rrx
    1220:	79745f00 	ldmdbvc	r4!, {r8, r9, sl, fp, ip, lr}^
    1224:	2e736570 	mrccs	5, 3, r6, cr3, cr0, {3}
    1228:	00010068 	andeq	r0, r1, r8, rrx
    122c:	64747300 	ldrbtvs	r7, [r4], #-768	; 0x300
    1230:	2e666564 	cdpcs	5, 6, cr6, cr6, cr4, {3}
    1234:	00020068 	andeq	r0, r2, r8, rrx
    1238:	65657200 	strbvs	r7, [r5, #-512]!	; 0x200
    123c:	682e746e 	stmdavs	lr!, {r1, r2, r3, r5, r6, sl, ip, sp, lr}
    1240:	00000100 	andeq	r0, r0, r0, lsl #2
    1244:	2e697072 	mcrcs	0, 3, r7, cr9, cr2, {3}
    1248:	00030068 	andeq	r0, r3, r8, rrx
    124c:	69706700 	ldmdbvs	r0!, {r8, r9, sl, sp, lr}^
    1250:	00682e6f 	rsbeq	r2, r8, pc, ror #28
    1254:	00000004 	andeq	r0, r0, r4
    1258:	18020500 	stmdane	r2, {r8, sl}
    125c:	03000099 	movweq	r0, #153	; 0x99
    1260:	4c130127 	ldfmis	f0, [r3], {39}	; 0x27
    1264:	68f44f47 	ldmvs	r4!, {r0, r1, r2, r6, r8, r9, sl, fp, lr}^
    1268:	2fa14c4b 	svccs	0x00a14c4b
    126c:	3149136a 	cmpcc	r9, sl, ror #6
    1270:	314913be 	strhcc	r1, [r9, #-62]	; 0xffffffc2
    1274:	2f6a2fbe 	svccs	0x006a2fbe
    1278:	134f484d 	movtne	r4, #63565	; 0xf84d
    127c:	b72f3249 	strlt	r3, [pc, -r9, asr #4]!
    1280:	01000602 	tsteq	r0, r2, lsl #12
    1284:	Address 0x0000000000001284 is out of bounds.


Disassembly of section .debug_str:

00000000 <.debug_str>:
   0:	5f746e63 	svcpl	0x00746e63
   4:	74696e69 	strbtvc	r6, [r9], #-3689	; 0xe69
   8:	73797300 	cmnvc	r9, #0, 6
   c:	636f6c5f 	cmnvs	pc, #24320	; 0x5f00
  10:	72745f6b 	rsbsvc	r5, r4, #428	; 0x1ac
  14:	746e0079 	strbtvc	r0, [lr], #-121	; 0x79
  18:	6c616972 	stclvs	9, cr6, [r1], #-456	; 0xfffffe38
  1c:	68630073 	stmdavs	r3!, {r0, r1, r4, r5, r6}^
  20:	656b6365 	strbvs	r6, [fp, #-869]!	; 0x365
  24:	00745f72 	rsbseq	r5, r4, r2, ror pc
  28:	6573552f 	ldrbvs	r5, [r3, #-1327]!	; 0x52f
  2c:	622f7372 	eorvs	r7, pc, #-939524095	; 0xc8000001
  30:	6e616972 	mcrvs	9, 3, r6, cr1, cr2, {3}
  34:	2f6e756a 	svccs	0x006e756a
  38:	6b736544 	blvs	1cd9550 <__bss_end__+0x1ccef18>
  3c:	2f706f74 	svccs	0x00706f74
  40:	6f686373 	svcvs	0x00686373
  44:	532f6c6f 	teqpl	pc, #28416	; 0x6f00
  48:	6e697270 	mcrvs	2, 3, r7, cr9, cr0, {3}
  4c:	32393167 	eorscc	r3, r9, #-1073741799	; 0xc0000019
  50:	53432f30 	movtpl	r2, #16176	; 0x3f30
  54:	4c303432 	cfldrsmi	mvf3, [r0], #-200	; 0xffffff38
  58:	73632f58 	cmnvc	r3, #88, 30	; 0x160
  5c:	6c303432 	cfldrsvs	mvf3, [r0], #-200	; 0xffffff38
  60:	30322d78 	eorscc	r2, r2, r8, ror sp
  64:	2f727073 	svccs	0x00727073
  68:	7362616c 	cmnvc	r2, #108, 2
  6c:	2d36312f 	ldfcss	f3, [r6, #-188]!	; 0xffffff44
  70:	676e6973 			; <UNDEFINED> instruction: 0x676e6973
  74:	732d656c 	teqvc	sp, #108, 10	; 0x1b000000
  78:	2f706574 	svccs	0x00706574
  7c:	65646f63 	strbvs	r6, [r4, #-3939]!	; 0xf63
  80:	746f6e00 	strbtvc	r6, [pc], #-3584	; 88 <__code_start__-0x7f78>
  84:	6e69616d 	powvsez	f6, f1, #5.0
  88:	746e6300 	strbtvc	r6, [lr], #-768	; 0x300
  8c:	6300415f 	movwvs	r4, #351	; 0x15f
  90:	425f746e 	subsmi	r7, pc, #1845493760	; 0x6e000000
  94:	72656e00 	rsbvc	r6, r5, #0, 28
  98:	73726f72 	cmnvc	r2, #456	; 0x1c8
  9c:	554e4700 	strbpl	r4, [lr, #-1792]	; 0x700
  a0:	34204320 	strtcc	r4, [r0], #-800	; 0x320
  a4:	332e382e 	teqcc	lr, #3014656	; 0x2e0000
  a8:	636d2d20 	cmnvs	sp, #32, 26	; 0x800
  ac:	613d7570 	teqvs	sp, r0, ror r5
  b0:	31316d72 	teqcc	r1, r2, ror sp
  b4:	7a6a3637 	bvc	1a8d998 <__bss_end__+0x1a83360>
  b8:	20732d66 	rsbscs	r2, r3, r6, ror #26
  bc:	75746d2d 	ldrbvc	r6, [r4, #-3373]!	; 0xd2d
  c0:	613d656e 	teqvs	sp, lr, ror #10
  c4:	31316d72 	teqcc	r1, r2, ror sp
  c8:	7a6a3637 	bvc	1a8d9ac <__bss_end__+0x1a83374>
  cc:	20732d66 	rsbscs	r2, r3, r6, ror #26
  d0:	6467672d 	strbtvs	r6, [r7], #-1837	; 0x72d
  d4:	4f2d2062 	svcmi	0x002d2062
  d8:	732d2067 	teqvc	sp, #103	; 0x67
  dc:	673d6474 			; <UNDEFINED> instruction: 0x673d6474
  e0:	3939756e 	ldmdbcc	r9!, {r1, r2, r3, r5, r6, r8, sl, ip, sp, lr}
  e4:	66662d20 	strbtvs	r2, [r6], -r0, lsr #26
  e8:	73656572 	cmnvc	r5, #478150656	; 0x1c800000
  ec:	646e6174 	strbtvs	r6, [lr], #-372	; 0x174
  f0:	20676e69 	rsbcs	r6, r7, r9, ror #28
  f4:	6f6e662d 	svcvs	0x006e662d
  f8:	706f742d 	rsbvc	r7, pc, sp, lsr #8
  fc:	6576656c 	ldrbvs	r6, [r6, #-1388]!	; 0x56c
 100:	65722d6c 	ldrbvs	r2, [r2, #-3436]!	; 0xd6c
 104:	6564726f 	strbvs	r7, [r4, #-623]!	; 0x26f
 108:	77730072 			; <UNDEFINED> instruction: 0x77730072
 10c:	68637469 	stmdavs	r3!, {r0, r3, r5, r6, sl, ip, sp, lr}^
 110:	5f6e6f5f 	svcpl	0x006e6f5f
 114:	74736e69 	ldrbtvc	r6, [r3], #-3689	; 0xe69
 118:	75006e5f 	strvc	r6, [r0, #-3679]	; 0xe5f
 11c:	6769736e 	strbvs	r7, [r9, -lr, ror #6]!
 120:	2064656e 	rsbcs	r6, r4, lr, ror #10
 124:	72616863 	rsbvc	r6, r1, #6488064	; 0x630000
 128:	656c6300 	strbvs	r6, [ip, #-768]!	; 0x300
 12c:	725f6e61 	subsvc	r6, pc, #1552	; 0x610
 130:	6f6f6265 	svcvs	0x006f6265
 134:	6e690074 	mcrvs	0, 3, r0, cr9, cr4, {3}
 138:	635f7473 	cmpvs	pc, #1929379840	; 0x73000000
 13c:	746e756f 	strbtvc	r7, [lr], #-1391	; 0x56f
 140:	6f687300 	svcvs	0x00687300
 144:	75207472 	strvc	r7, [r0, #-1138]!	; 0x472
 148:	6769736e 	strbvs	r7, [r9, -lr, ror #6]!
 14c:	2064656e 	rsbcs	r6, r4, lr, ror #10
 150:	00746e69 	rsbseq	r6, r4, r9, ror #28
 154:	5f6b7262 	svcpl	0x006b7262
 158:	62726576 	rsbsvs	r6, r2, #494927872	; 0x1d800000
 15c:	5f65736f 	svcpl	0x0065736f
 160:	69700070 	ldmdbvs	r0!, {r4, r5, r6}^
 164:	636f6c5f 	cmnvs	pc, #24320	; 0x5f00
 168:	00745f6b 	rsbseq	r5, r4, fp, ror #30
 16c:	726f6873 	rsbvc	r6, pc, #7536640	; 0x730000
 170:	6e692074 	mcrvs	0, 3, r2, cr9, cr4, {3}
 174:	5f5f0074 	svcpl	0x005f0074
 178:	434e5546 	movtmi	r5, #58694	; 0xe546
 17c:	4e4f4954 	mcrmi	9, 2, r4, cr15, cr4, {2}
 180:	69005f5f 	stmdbvs	r0, {r0, r1, r2, r3, r4, r6, r8, r9, sl, fp, ip, lr}
 184:	7265746e 	rsbvc	r7, r5, #1845493760	; 0x6e000000
 188:	7661656c 	strbtvc	r6, [r1], -ip, ror #10
 18c:	5f676e69 	svcpl	0x00676e69
 190:	6e630070 	mcrvs	0, 3, r0, cr3, cr0, {3}
 194:	6b6d5f74 	blvs	1b57f6c <__bss_end__+0x1b4d934>
 198:	6568635f 	strbvs	r6, [r8, #-863]!	; 0x35f
 19c:	72656b63 	rsbvc	r6, r5, #101376	; 0x18c00
 1a0:	73657400 	cmnvc	r5, #0, 8
 1a4:	2e327374 	mrccs	3, 1, r7, cr2, cr4, {3}
 1a8:	36312f30 	shasxcc	r2, r1, r0
 1ac:	7261702d 	rsbvc	r7, r1, #45	; 0x2d
 1b0:	742d3274 	strtvc	r3, [sp], #-628	; 0x274
 1b4:	36747365 	ldrbtcc	r7, [r4], -r5, ror #6
 1b8:	6c00632e 	stcvs	3, cr6, [r0], {46}	; 0x2e
 1bc:	20676e6f 	rsbcs	r6, r7, pc, ror #28
 1c0:	676e6f6c 	strbvs	r6, [lr, -ip, ror #30]!
 1c4:	736e7520 	cmnvc	lr, #32, 10	; 0x8000000
 1c8:	656e6769 	strbvs	r6, [lr, #-1897]!	; 0x769
 1cc:	6e692064 	cdpvs	0, 6, cr2, cr9, cr4, {3}
 1d0:	736e0074 	cmnvc	lr, #116	; 0x74
 1d4:	63746977 	cmnvs	r4, #1949696	; 0x1dc000
 1d8:	00736568 	rsbseq	r6, r3, r8, ror #10
 1dc:	5f737973 	svcpl	0x00737973
 1e0:	6f6c6e75 	svcvs	0x006c6e75
 1e4:	73006b63 	movwvc	r6, #2915	; 0xb63
 1e8:	74657a69 	strbtvc	r7, [r5], #-2665	; 0xa69
 1ec:	00657079 	rsbeq	r7, r5, r9, ror r0
 1f0:	676e6f6c 	strbvs	r6, [lr, -ip, ror #30]!
 1f4:	6e6f6c20 	cdpvs	12, 6, cr6, cr15, cr0, {1}
 1f8:	6e692067 	cdpvs	0, 6, cr2, cr9, cr7, {3}
 1fc:	77730074 			; <UNDEFINED> instruction: 0x77730074
 200:	68637469 	stmdavs	r3!, {r0, r3, r5, r6, sl, ip, sp, lr}^
 204:	705f6465 	subsvc	r6, pc, r5, ror #8
 208:	69777300 	ldmdbvs	r7!, {r8, r9, ip, sp, lr}^
 20c:	5f686374 	svcpl	0x00686374
 210:	72646461 	rsbvc	r6, r4, #1627389952	; 0x61000000
 214:	616e6500 	cmnvs	lr, r0, lsl #10
 218:	5f656c62 	svcpl	0x00656c62
 21c:	68636163 	stmdavs	r3!, {r0, r1, r5, r6, r8, sp, lr}^
 220:	79730065 	ldmdbvc	r3!, {r0, r2, r5, r6}^
 224:	6f6c5f73 	svcvs	0x006c5f73
 228:	695f6b63 	ldmdbvs	pc, {r0, r1, r5, r6, r8, r9, fp, sp, lr}^	; <UNPREDICTABLE>
 22c:	0074696e 	rsbseq	r6, r4, lr, ror #18
 230:	5f746e63 	svcpl	0x00746e63
 234:	63656863 	cmnvs	r5, #6488064	; 0x630000
 238:	6975006b 	ldmdbvs	r5!, {r0, r1, r3, r5, r6}^
 23c:	3233746e 	eorscc	r7, r3, #1845493760	; 0x6e000000
 240:	7300745f 	movwvc	r7, #1119	; 0x45f
 244:	745f7379 	ldrbvc	r7, [pc], #-889	; 24c <__code_start__-0x7db4>
 248:	6c5f7972 	mrrcvs	9, 7, r7, pc, cr2	; <UNPREDICTABLE>
 24c:	5f6b636f 	svcpl	0x006b636f
 250:	006d7361 	rsbeq	r7, sp, r1, ror #6
 254:	70696b73 	rsbvc	r6, r9, r3, ror fp
 258:	70720073 	rsbsvc	r0, r2, r3, ror r0
 25c:	65725f69 	ldrbvs	r5, [r2, #-3945]!	; 0xf69
 260:	5f746573 	svcpl	0x00746573
 264:	63747570 	cmnvs	r4, #112, 10	; 0x1c000000
 268:	74616400 	strbtvc	r6, [r1], #-1024	; 0x400
 26c:	62615f61 	rsbvs	r5, r1, #388	; 0x184
 270:	5f74726f 	svcpl	0x0074726f
 274:	74636576 	strbtvc	r6, [r3], #-1398	; 0x576
 278:	7000726f 	andvc	r7, r0, pc, ror #4
 27c:	65666572 	strbvs	r6, [r6, #-1394]!	; 0x572
 280:	5f686374 	svcpl	0x00686374
 284:	726f6261 	rsbvc	r6, pc, #268435462	; 0x10000006
 288:	65765f74 	ldrbvs	r5, [r6, #-3956]!	; 0xf74
 28c:	726f7463 	rsbvc	r7, pc, #1660944384	; 0x63000000
 290:	73617700 	cmnvc	r1, #0, 14
 294:	6265645f 	rsbvs	r6, r5, #1593835520	; 0x5f000000
 298:	645f6775 	ldrbvs	r6, [pc], #-1909	; 2a0 <__code_start__-0x7d60>
 29c:	66617461 	strbtvs	r7, [r1], -r1, ror #8
 2a0:	746c7561 	strbtvc	r7, [ip], #-1377	; 0x561
 2a4:	31706300 	cmncc	r0, r0, lsl #6
 2a8:	65642d34 	strbvs	r2, [r4, #-3380]!	; 0xd34
 2ac:	2e677562 	cdpcs	5, 6, cr7, cr7, cr2, {3}
 2b0:	61770063 	cmnvs	r7, r3, rrx
 2b4:	65645f73 	strbvs	r5, [r4, #-3955]!	; 0xf73
 2b8:	5f677562 	svcpl	0x00677562
 2bc:	74736e69 	ldrbtvc	r6, [r3], #-3689	; 0xe69
 2c0:	6c756166 	ldfvse	f6, [r5], #-408	; 0xfffffe68
 2c4:	73640074 	cmnvc	r4, #116	; 0x74
 2c8:	735f7263 	cmpvc	pc, #805306374	; 0x30000006
 2cc:	77007465 	strvc	r7, [r0, -r5, ror #8]
 2d0:	5f307263 	svcpl	0x00307263
 2d4:	00676572 	rsbeq	r6, r7, r2, ror r5
 2d8:	30726377 	rsbscc	r6, r2, r7, ror r3
 2dc:	7465675f 	strbtvc	r6, [r5], #-1887	; 0x75f
 2e0:	696e6900 	stmdbvs	lr!, {r8, fp, sp, lr}^
 2e4:	00705f74 	rsbseq	r5, r0, r4, ror pc
 2e8:	706b7262 	rsbvc	r7, fp, r2, ror #4
 2ec:	61685f74 	smcvs	34292	; 0x85f4
 2f0:	656c646e 	strbvs	r6, [ip, #-1134]!	; 0x46e
 2f4:	63003072 	movwvs	r3, #114	; 0x72
 2f8:	5f343170 	svcpl	0x00343170
 2fc:	30726362 	rsbscc	r6, r2, r2, ror #6
 300:	7465735f 	strbtvc	r7, [r5], #-863	; 0x35f
 304:	72767700 	rsbsvc	r7, r6, #0, 14
 308:	61765f30 	cmnvs	r6, r0, lsr pc
 30c:	6177006c 	cmnvs	r7, ip, rrx
 310:	70686374 	rsbvc	r6, r8, r4, ror r3
 314:	65735f74 	ldrbvs	r5, [r3, #-3956]!	; 0xf74
 318:	77003074 	smlsdxvc	r0, r4, r0, r3
 31c:	5f307276 	svcpl	0x00307276
 320:	00746573 	rsbseq	r6, r4, r3, ror r5
 324:	5f6b7262 	svcpl	0x006b7262
 328:	725f6f6e 	subsvc	r6, pc, #440	; 0x1b8
 32c:	655f7465 	ldrbvs	r7, [pc, #-1125]	; fffffecf <__bss_end__+0xffff5897>
 330:	726f7272 	rsbvc	r7, pc, #536870919	; 0x20000007
 334:	31706300 	cmncc	r0, r0, lsl #6
 338:	63625f34 	cmnvs	r2, #52, 30	; 0xd0
 33c:	675f3072 			; <UNDEFINED> instruction: 0x675f3072
 340:	62007465 	andvs	r7, r0, #1694498816	; 0x65000000
 344:	74706b72 	ldrbtvc	r6, [r0], #-2930	; 0xb72
 348:	73696d5f 	cmnvc	r9, #6080	; 0x17c0
 34c:	6374616d 	cmnvs	r4, #1073741851	; 0x4000001b
 350:	65735f68 	ldrbvs	r5, [r3, #-3944]!	; 0xf68
 354:	64003074 	strvs	r3, [r0], #-116	; 0x74
 358:	5f727366 	svcpl	0x00727366
 35c:	006c6176 	rsbeq	r6, ip, r6, ror r1
 360:	72616669 	rsbvc	r6, r1, #110100480	; 0x6900000
 364:	7465675f 	strbtvc	r6, [r5], #-1887	; 0x75f
 368:	73666900 	cmnvc	r6, #0, 18
 36c:	65675f72 	strbvs	r5, [r7, #-3954]!	; 0xf72
 370:	61770074 	cmnvs	r7, r4, ror r0
 374:	70686374 	rsbvc	r6, r8, r4, ror r3
 378:	61685f74 	smcvs	34292	; 0x85f4
 37c:	656c646e 	strbvs	r6, [ip, #-1134]!	; 0x46e
 380:	62003072 	andvs	r3, r0, #114	; 0x72
 384:	74706b72 	ldrbtvc	r6, [r0], #-2930	; 0xb72
 388:	73696d5f 	cmnvc	r9, #6080	; 0x17c0
 38c:	6374616d 	cmnvs	r4, #1073741851	; 0x4000001b
 390:	69645f68 	stmdbvs	r4!, {r3, r5, r6, r8, r9, sl, fp, ip, lr}^
 394:	6c626173 	stfvse	f6, [r2], #-460	; 0xfffffe34
 398:	64003065 	strvs	r3, [r0], #-101	; 0x65
 39c:	66617461 	strbtvs	r7, [r1], -r1, ror #8
 3a0:	746c7561 	strbtvc	r7, [ip], #-1377	; 0x561
 3a4:	6f72665f 	svcvs	0x0072665f
 3a8:	646c5f6d 	strbtvs	r5, [ip], #-3949	; 0xf6d
 3ac:	31706300 	cmncc	r0, r0, lsl #6
 3b0:	76625f34 	uqasxvc	r5, r2, r4
 3b4:	735f3072 	cmpvc	pc, #114	; 0x72
 3b8:	77007465 	strvc	r7, [r0, -r5, ror #8]
 3bc:	645f7361 	ldrbvs	r7, [pc], #-865	; 3c4 <__code_start__-0x7c3c>
 3c0:	67756265 	ldrbvs	r6, [r5, -r5, ror #4]!
 3c4:	6c756166 	ldfvse	f6, [r5], #-408	; 0xfffffe68
 3c8:	00725f74 	rsbseq	r5, r2, r4, ror pc
 3cc:	34317063 	ldrtcc	r7, [r1], #-99	; 0x63
 3d0:	616e655f 	cmnvs	lr, pc, asr r5
 3d4:	00656c62 	rsbeq	r6, r5, r2, ror #24
 3d8:	7561666e 	strbvc	r6, [r1, #-1646]!	; 0x66e
 3dc:	0073746c 	rsbseq	r7, r3, ip, ror #8
 3e0:	30727662 	rsbscc	r7, r2, r2, ror #12
 3e4:	6c61765f 	stclvs	6, cr7, [r1], #-380	; 0xfffffe84
 3e8:	73666400 	cmnvc	r6, #0, 8
 3ec:	65675f72 	strbvs	r5, [r7, #-3954]!	; 0xf72
 3f0:	79730074 	ldmdbvc	r3!, {r2, r4, r5, r6}^
 3f4:	6c616373 	stclvs	3, cr6, [r1], #-460	; 0xfffffe34
 3f8:	65765f6c 	ldrbvs	r5, [r6, #-3948]!	; 0xf6c
 3fc:	726f7463 	rsbvc	r7, pc, #1660944384	; 0x63000000
 400:	65727000 	ldrbvs	r7, [r2, #-0]!
 404:	63746566 	cmnvs	r4, #427819008	; 0x19800000
 408:	6c665f68 	stclvs	15, cr5, [r6], #-416	; 0xfffffe60
 40c:	5f687375 	svcpl	0x00687375
 410:	00746573 	rsbseq	r6, r4, r3, ror r5
 414:	30726362 	rsbscc	r6, r2, r2, ror #6
 418:	6765725f 			; <UNDEFINED> instruction: 0x6765725f
 41c:	6e616800 	cdpvs	8, 6, cr6, cr1, cr0, {0}
 420:	72656c64 	rsbvc	r6, r5, #100, 24	; 0x6400
 424:	7700745f 	smlsdvc	r0, pc, r4, r7	; <UNPREDICTABLE>
 428:	5f726166 	svcpl	0x00726166
 42c:	00746567 	rsbseq	r6, r4, r7, ror #10
 430:	5f737973 	svcpl	0x00737973
 434:	006d756e 	rsbeq	r7, sp, lr, ror #10
 438:	706b7262 	rsbvc	r7, fp, r2, ror #4
 43c:	65735f74 	ldrbvs	r5, [r3, #-3956]!	; 0xf74
 440:	77003074 	smlsdxvc	r0, r4, r0, r3
 444:	5f307263 	svcpl	0x00307263
 448:	00746573 	rsbseq	r6, r4, r3, ror r5
 44c:	5f746e69 	svcpl	0x00746e69
 450:	74696e69 	strbtvc	r6, [r9], #-3689	; 0xe69
 454:	6e697300 	cdpvs	3, 6, cr7, cr9, cr0, {0}
 458:	5f656c67 	svcpl	0x00656c67
 45c:	70657473 	rsbvc	r7, r5, r3, ror r4
 460:	6e61685f 	mcrvs	8, 3, r6, cr1, cr15, {2}
 464:	72656c64 	rsbvc	r6, r5, #100, 24	; 0x6400
 468:	65686300 	strbvs	r6, [r8, #-768]!	; 0x300
 46c:	7a5f6b63 	bvc	17db200 <__bss_end__+0x17d0bc8>
 470:	006f7265 	rsbeq	r7, pc, r5, ror #4
 474:	63656863 	cmnvs	r5, #6488064	; 0x630000
 478:	6e692d6b 	cdpvs	13, 6, cr2, cr9, cr11, {3}
 47c:	6c726574 	cfldr64vs	mvdx6, [r2], #-464	; 0xfffffe30
 480:	65766165 	ldrbvs	r6, [r6, #-357]!	; 0x165
 484:	7500632e 	strvc	r6, [r0, #-814]	; 0x32e
 488:	5f726573 	svcpl	0x00726573
 48c:	6d617274 	sfmvs	f7, 2, [r1, #-464]!	; 0xfffffe30
 490:	696c6f70 	stmdbvs	ip!, {r4, r5, r6, r8, r9, sl, fp, sp, lr}^
 494:	725f656e 	subsvc	r6, pc, #461373440	; 0x1b800000
 498:	63007465 	movwvs	r7, #1125	; 0x465
 49c:	5f727370 	svcpl	0x00727370
 4a0:	00746567 	rsbseq	r6, r4, r7, ror #10
 4a4:	65707865 	ldrbvs	r7, [r0, #-2149]!	; 0x865
 4a8:	64657463 	strbtvs	r7, [r5], #-1123	; 0x463
 4ac:	6e61685f 	mcrvs	8, 3, r6, cr1, cr15, {2}
 4b0:	00656c64 	rsbeq	r6, r5, r4, ror #24
 4b4:	6b73616d 	blvs	1cd8a70 <__bss_end__+0x1cce438>
 4b8:	74696200 	strbtvc	r6, [r9], #-512	; 0x200
 4bc:	6c635f73 	stclvs	15, cr5, [r3], #-460	; 0xfffffe34
 4c0:	68630072 	stmdavs	r3!, {r1, r4, r5, r6}^
 4c4:	5f6b6365 	svcpl	0x006b6365
 4c8:	5f656e6f 	svcpl	0x00656e6f
 4cc:	69777363 	ldmdbvs	r7!, {r0, r1, r5, r6, r8, r9, ip, sp, lr}^
 4d0:	00686374 	rsbeq	r6, r8, r4, ror r3
 4d4:	65646f6d 	strbvs	r6, [r4, #-3949]!	; 0xf6d
 4d8:	7274735f 	rsbsvc	r7, r4, #2080374785	; 0x7c000001
 4dc:	646f6d00 	strbtvs	r6, [pc], #-3328	; 4e4 <__code_start__-0x7b1c>
 4e0:	65735f65 	ldrbvs	r5, [r3, #-3941]!	; 0xf65
 4e4:	68630074 	stmdavs	r3!, {r2, r4, r5, r6}^
 4e8:	5f6b6365 	svcpl	0x006b6365
 4ec:	75716573 	ldrbvc	r6, [r1, #-1395]!	; 0x573
 4f0:	69746e65 	ldmdbvs	r4!, {r0, r2, r5, r6, r9, sl, fp, sp, lr}^
 4f4:	63006c61 	movwvs	r6, #3169	; 0xc61
 4f8:	5f727370 	svcpl	0x00727370
 4fc:	00646c6f 	rsbeq	r6, r4, pc, ror #24
 500:	73746962 	cmnvc	r4, #1605632	; 0x188000
 504:	7465675f 	strbtvc	r6, [r5], #-1887	; 0x75f
 508:	73706300 	cmnvc	r0, #0, 6
 50c:	73755f72 	cmnvc	r5, #456	; 0x1c8
 510:	63007265 	movwvs	r7, #613	; 0x265
 514:	00727370 	rsbseq	r7, r2, r0, ror r3
 518:	65646f6d 	strbvs	r6, [r4, #-3949]!	; 0xf6d
 51c:	67656c5f 			; <UNDEFINED> instruction: 0x67656c5f
 520:	6d006c61 	stcvs	12, cr6, [r0, #-388]	; 0xfffffe7c
 524:	5f65646f 	svcpl	0x0065646f
 528:	00746567 	rsbseq	r6, r4, r7, ror #10
 52c:	73676572 	cmnvc	r7, #478150656	; 0x1c800000
 530:	646f6d00 	strbtvs	r6, [pc], #-3328	; 538 <__code_start__-0x7ac8>
 534:	5f5f0065 	svcpl	0x005f0065
 538:	63756e67 	cmnvs	r5, #1648	; 0x670
 53c:	5f61765f 	svcpl	0x0061765f
 540:	7473696c 	ldrbtvc	r6, [r3], #-2412	; 0x96c
 544:	62696c00 	rsbvs	r6, r9, #0, 24
 548:	72702f63 	rsbsvc	r2, r0, #396	; 0x18c
 54c:	6b746e69 	blvs	1d1bef8 <__bss_end__+0x1d118c0>
 550:	4700632e 	strmi	r6, [r0, -lr, lsr #6]
 554:	4320554e 	teqmi	r0, #327155712	; 0x13800000
 558:	382e3420 	stmdacc	lr!, {r5, sl, ip, sp}
 55c:	2d20332e 	stccs	3, cr3, [r0, #-184]!	; 0xffffff48
 560:	7570636d 	ldrbvc	r6, [r0, #-877]!	; 0x36d
 564:	6d72613d 	ldfvse	f6, [r2, #-244]!	; 0xffffff0c
 568:	36373131 			; <UNDEFINED> instruction: 0x36373131
 56c:	2d667a6a 	vstmdbcs	r6!, {s15-s120}
 570:	6d2d2073 	stcvs	0, cr2, [sp, #-460]!	; 0xfffffe34
 574:	656e7574 	strbvs	r7, [lr, #-1396]!	; 0x574
 578:	6d72613d 	ldfvse	f6, [r2, #-244]!	; 0xffffff0c
 57c:	36373131 			; <UNDEFINED> instruction: 0x36373131
 580:	2d667a6a 	vstmdbcs	r6!, {s15-s120}
 584:	672d2073 			; <UNDEFINED> instruction: 0x672d2073
 588:	20626467 	rsbcs	r6, r2, r7, ror #8
 58c:	20674f2d 	rsbcs	r4, r7, sp, lsr #30
 590:	6474732d 	ldrbtvs	r7, [r4], #-813	; 0x32d
 594:	756e673d 	strbvc	r6, [lr, #-1853]!	; 0x73d
 598:	2d203939 	stccs	9, cr3, [r0, #-228]!	; 0xffffff1c
 59c:	65726666 	ldrbvs	r6, [r2, #-1638]!	; 0x666
 5a0:	61747365 	cmnvs	r4, r5, ror #6
 5a4:	6e69646e 	cdpvs	4, 6, cr6, cr9, cr14, {3}
 5a8:	61760067 	cmnvs	r6, r7, rrx
 5ac:	6972705f 	ldmdbvs	r2!, {r0, r1, r2, r3, r4, r6, ip, sp, lr}^
 5b0:	006b746e 	rsbeq	r7, fp, lr, ror #8
 5b4:	61765f5f 	cmnvs	r6, pc, asr pc
 5b8:	73696c5f 	cmnvc	r9, #24320	; 0x5f00
 5bc:	552f0074 	strpl	r0, [pc, #-116]!	; 550 <__code_start__-0x7ab0>
 5c0:	73726573 	cmnvc	r2, #482344960	; 0x1cc00000
 5c4:	6972622f 	ldmdbvs	r2!, {r0, r1, r2, r3, r5, r9, sp, lr}^
 5c8:	756a6e61 	strbvc	r6, [sl, #-3681]!	; 0xe61
 5cc:	65442f6e 	strbvs	r2, [r4, #-3950]	; 0xf6e
 5d0:	6f746b73 	svcvs	0x00746b73
 5d4:	63732f70 	cmnvs	r3, #112, 30	; 0x1c0
 5d8:	6c6f6f68 	stclvs	15, cr6, [pc], #-416	; 440 <__code_start__-0x7bc0>
 5dc:	7270532f 	rsbsvc	r5, r0, #-1140850688	; 0xbc000000
 5e0:	31676e69 	cmncc	r7, r9, ror #28
 5e4:	2f303239 	svccs	0x00303239
 5e8:	34325343 	ldrtcc	r5, [r2], #-835	; 0x343
 5ec:	2f584c30 	svccs	0x00584c30
 5f0:	34327363 	ldrtcc	r7, [r2], #-867	; 0x363
 5f4:	2d786c30 	ldclcs	12, cr6, [r8, #-192]!	; 0xffffff40
 5f8:	70733032 	rsbsvc	r3, r3, r2, lsr r0
 5fc:	696c2f72 	stmdbvs	ip!, {r1, r4, r5, r6, r8, r9, sl, fp, sp}^
 600:	00697062 	rsbeq	r7, r9, r2, rrx
 604:	70615f5f 	rsbvc	r5, r1, pc, asr pc
 608:	72617500 	rsbvc	r7, r1, #0, 10
 60c:	75705f74 	ldrbvc	r5, [r0, #-3956]!	; 0xf74
 610:	69006374 	stmdbvs	r0, {r2, r4, r5, r6, r8, r9, sp, lr}
 614:	7265746e 	rsbvc	r7, r5, #1845493760	; 0x6e000000
 618:	5f6c616e 	svcpl	0x006c616e
 61c:	63747570 	cmnvs	r4, #112, 10	; 0x1c000000
 620:	00726168 	rsbseq	r6, r2, r8, ror #2
 624:	5f697072 	svcpl	0x00697072
 628:	63747570 	cmnvs	r4, #112, 10	; 0x1c000000
 62c:	00726168 	rsbseq	r6, r2, r8, ror #2
 630:	6362696c 	cmnvs	r2, #108, 18	; 0x1b0000
 634:	7475702f 	ldrbtvc	r7, [r5], #-47	; 0x2f
 638:	72616863 	rsbvc	r6, r1, #6488064	; 0x630000
 63c:	7200632e 	andvc	r6, r0, #-1207959552	; 0xb8000000
 640:	735f6970 	cmpvc	pc, #112, 18	; 0x1c0000
 644:	705f7465 	subsvc	r7, pc, r5, ror #8
 648:	00637475 	rsbeq	r7, r3, r5, ror r4
 64c:	6362696c 	cmnvs	r2, #108, 18	; 0x1b0000
 650:	7475702f 	ldrbtvc	r7, [r5], #-47	; 0x2f
 654:	00632e6b 	rsbeq	r2, r3, fp, ror #28
 658:	65746e69 	ldrbvs	r6, [r4, #-3689]!	; 0xe69
 65c:	6c616e72 	stclvs	14, cr6, [r1], #-456	; 0xfffffe38
 660:	7475705f 	ldrbtvc	r7, [r5], #-95	; 0x5f
 664:	6d66006b 	stclvs	0, cr0, [r6, #-428]!	; 0xfffffe54
 668:	74735f74 	ldrbtvc	r5, [r3], #-3956	; 0xf74
 66c:	00747261 	rsbseq	r7, r4, r1, ror #4
 670:	5f67656e 	svcpl	0x0067656e
 674:	65720070 	ldrbvs	r0, [r2, #-112]!	; 0x70
 678:	73726576 	cmnvc	r2, #494927872	; 0x1d800000
 67c:	73690065 	cmnvc	r9, #101	; 0x65
 680:	69676964 	stmdbvs	r7!, {r2, r5, r6, r8, fp, sp, lr}^
 684:	75700074 	ldrbvc	r0, [r0, #-116]!	; 0x74
 688:	665f7374 			; <UNDEFINED> instruction: 0x665f7374
 68c:	69730070 	ldmdbvs	r3!, {r4, r5, r6}^
 690:	64656e67 	strbtvs	r6, [r5], #-3687	; 0xe67
 694:	6c00705f 	stcvs	0, cr7, [r0], {95}	; 0x5f
 698:	2f636269 	svccs	0x00636269
 69c:	702d6176 	eorvc	r6, sp, r6, ror r1
 6a0:	746e6972 	strbtvc	r6, [lr], #-2418	; 0x972
 6a4:	00632e6b 	rsbeq	r2, r3, fp, ror #28
 6a8:	5f697072 	svcpl	0x00697072
 6ac:	5f746573 	svcpl	0x00746573
 6b0:	7074756f 	rsbsvc	r7, r4, pc, ror #10
 6b4:	77007475 	smlsdxvc	r0, r5, r4, r7
 6b8:	68746469 	ldmdavs	r4!, {r0, r3, r5, r6, sl, sp, lr}^
 6bc:	74757000 	ldrbtvc	r7, [r5], #-0
 6c0:	70665f63 	rsbvc	r5, r6, r3, ror #30
 6c4:	696d6500 	stmdbvs	sp!, {r8, sl, sp, lr}^
 6c8:	69640074 	stmdbvs	r4!, {r2, r4, r5, r6}^
 6cc:	6c626173 	stfvse	f6, [r2], #-460	; 0xfffffe34
 6d0:	61635f65 	cmnvs	r3, r5, ror #30
 6d4:	00656863 	rsbeq	r6, r5, r3, ror #16
 6d8:	66617473 			; <UNDEFINED> instruction: 0x66617473
 6dc:	72732d66 	rsbsvc	r2, r3, #6528	; 0x1980
 6e0:	61632f63 	cmnvs	r3, r3, ror #30
 6e4:	2e656863 	cdpcs	8, 6, cr6, cr5, cr3, {3}
 6e8:	65720063 	ldrbvs	r0, [r2, #-99]!	; 0x63
 6ec:	746f6f62 	strbtvc	r6, [pc], #-3938	; 6f4 <__code_start__-0x790c>
 6f0:	6e61685f 	mcrvs	8, 3, r6, cr1, cr15, {2}
 6f4:	72656c64 	rsbvc	r6, r5, #100, 24	; 0x6400
 6f8:	61747300 	cmnvs	r4, r0, lsl #6
 6fc:	732d6666 	teqvc	sp, #106954752	; 0x6600000
 700:	632f6372 	teqvs	pc, #-939524095	; 0xc8000001
 704:	6e61656c 	cdpvs	5, 6, cr6, cr1, cr12, {3}
 708:	6265722d 	rsbvs	r7, r5, #-805306366	; 0xd0000002
 70c:	2e746f6f 	cdpcs	15, 7, cr6, cr4, cr15, {3}
 710:	70720063 	rsbsvc	r0, r2, r3, rrx
 714:	65725f69 	ldrbvs	r5, [r2, #-3945]!	; 0xf69
 718:	746f6f62 	strbtvc	r6, [pc], #-3938	; 720 <__code_start__-0x78e0>
 71c:	6c656400 	cfstrdvs	mvd6, [r5], #-0
 720:	6d5f7961 	ldclvs	9, cr7, [pc, #-388]	; 5a4 <__code_start__-0x7a5c>
 724:	5f5f0073 	svcpl	0x005f0073
 728:	5f737362 	svcpl	0x00737362
 72c:	72617473 	rsbvc	r7, r1, #1929379840	; 0x73000000
 730:	005f5f74 	subseq	r5, pc, r4, ror pc	; <UNPREDICTABLE>
 734:	73625f5f 	cmnvc	r2, #380	; 0x17c
 738:	6e655f73 	mcrvs	15, 3, r5, cr5, cr3, {3}
 73c:	005f5f64 	subseq	r5, pc, r4, ror #30
 740:	61747363 	cmnvs	r4, r3, ror #6
 744:	685f7472 	ldmdavs	pc, {r1, r4, r5, r6, sl, ip, sp, lr}^	; <UNPREDICTABLE>
 748:	6c646e61 	stclvs	14, cr6, [r4], #-388	; 0xfffffe7c
 74c:	62007265 	andvs	r7, r0, #1342177286	; 0x50000006
 750:	655f7373 	ldrbvs	r7, [pc, #-883]	; 3e5 <__code_start__-0x7c1b>
 754:	5f00646e 	svcpl	0x0000646e
 758:	61747363 	cmnvs	r4, r3, ror #6
 75c:	73007472 	movwvc	r7, #1138	; 0x472
 760:	66666174 			; <UNDEFINED> instruction: 0x66666174
 764:	6372732d 	cmnvs	r2, #-1275068416	; 0xb4000000
 768:	7473632f 	ldrbtvc	r6, [r3], #-815	; 0x32f
 76c:	2e747261 	cdpcs	2, 7, cr7, cr4, cr1, {3}
 770:	74730063 	ldrbtvc	r0, [r3], #-99	; 0x63
 774:	2d666661 	stclcs	6, cr6, [r6, #-388]!	; 0xfffffe7c
 778:	2f637273 	svccs	0x00637273
 77c:	61666564 	cmnvs	r6, r4, ror #10
 780:	2d746c75 	ldclcs	12, cr6, [r4, #-468]!	; 0xfffffe2c
 784:	646e6168 	strbtvs	r6, [lr], #-360	; 0x168
 788:	2d72656c 	cfldr64cs	mvdx6, [r2, #-432]!	; 0xfffffe50
 78c:	74736166 	ldrbtvc	r6, [r3], #-358	; 0x166
 790:	6600632e 	strvs	r6, [r0], -lr, lsr #6
 794:	5f747361 	svcpl	0x00747361
 798:	65746e69 	ldrbvs	r6, [r4, #-3689]!	; 0xe69
 79c:	70757272 	rsbsvc	r7, r5, r2, ror r2
 7a0:	65765f74 	ldrbvs	r5, [r6, #-3956]!	; 0xf74
 7a4:	726f7463 	rsbvc	r7, pc, #1660944384	; 0x63000000
 7a8:	73657200 	cmnvc	r5, #0, 4
 7ac:	765f7465 	ldrbvc	r7, [pc], -r5, ror #8
 7b0:	6f746365 	svcvs	0x00746365
 7b4:	74730072 	ldrbtvc	r0, [r3], #-114	; 0x72
 7b8:	2d666661 	stclcs	6, cr6, [r6, #-388]!	; 0xfffffe7c
 7bc:	2f637273 	svccs	0x00637273
 7c0:	61666564 	cmnvs	r6, r4, ror #10
 7c4:	2d746c75 	ldclcs	12, cr6, [r4, #-468]!	; 0xfffffe2c
 7c8:	646e6168 	strbtvs	r6, [lr], #-360	; 0x168
 7cc:	2d72656c 	cfldr64cs	mvdx6, [r2, #-432]!	; 0xfffffe50
 7d0:	65736572 	ldrbvs	r6, [r3, #-1394]!	; 0x572
 7d4:	00632e74 	rsbeq	r2, r3, r4, ror lr
 7d8:	66617473 			; <UNDEFINED> instruction: 0x66617473
 7dc:	72732d66 	rsbsvc	r2, r3, #6528	; 0x1980
 7e0:	65642f63 	strbvs	r2, [r4, #-3939]!	; 0xf63
 7e4:	6c756166 	ldfvse	f6, [r5], #-408	; 0xfffffe68
 7e8:	61682d74 	smcvs	33492	; 0x82d4
 7ec:	656c646e 	strbvs	r6, [ip, #-1134]!	; 0x46e
 7f0:	6e752d72 	mrcvs	13, 3, r2, cr5, cr2, {3}
 7f4:	69666564 	stmdbvs	r6!, {r2, r5, r6, r8, sl, sp, lr}^
 7f8:	2d64656e 	cfstr64cs	mvdx6, [r4, #-440]!	; 0xfffffe48
 7fc:	74736e69 	ldrbtvc	r6, [r3], #-3689	; 0xe69
 800:	7500632e 	strvc	r6, [r0, #-814]	; 0x32e
 804:	6665646e 	strbtvs	r6, [r5], -lr, ror #8
 808:	64656e69 	strbtvs	r6, [r5], #-3689	; 0xe69
 80c:	736e695f 	cmnvc	lr, #1556480	; 0x17c000
 810:	63757274 	cmnvs	r5, #116, 4	; 0x40000007
 814:	6e6f6974 	mcrvs	9, 3, r6, cr15, cr4, {3}
 818:	6365765f 	cmnvs	r5, #99614720	; 0x5f00000
 81c:	00726f74 	rsbseq	r6, r2, r4, ror pc
 820:	66617473 			; <UNDEFINED> instruction: 0x66617473
 824:	72732d66 	rsbsvc	r2, r3, #6528	; 0x1980
 828:	65642f63 	strbvs	r2, [r4, #-3939]!	; 0xf63
 82c:	6c756166 	ldfvse	f6, [r5], #-408	; 0xfffffe68
 830:	61682d74 	smcvs	33492	; 0x82d4
 834:	656c646e 	strbvs	r6, [ip, #-1134]!	; 0x46e
 838:	632e7372 	teqvs	lr, #-939524095	; 0xc8000001
 83c:	51524900 	cmppl	r2, r0, lsl #18
 840:	6e65705f 	mcrvs	0, 3, r7, cr5, cr15, {2}
 844:	676e6964 	strbvs	r6, [lr, -r4, ror #18]!
 848:	4400325f 	strmi	r3, [r0], #-607	; 0x25f
 84c:	62617369 	rsbvs	r7, r1, #-1543503871	; 0xa4000001
 850:	425f656c 	subsmi	r6, pc, #108, 10	; 0x1b000000
 854:	63697361 	cmnvs	r9, #-2080374783	; 0x84000001
 858:	5152495f 	cmppl	r2, pc, asr r9
 85c:	49460073 	stmdbmi	r6, {r0, r1, r4, r5, r6}^
 860:	6f635f51 	svcvs	0x00635f51
 864:	6f72746e 	svcvs	0x0072746e
 868:	695f006c 	ldmdbvs	pc, {r2, r3, r5, r6}^	; <UNPREDICTABLE>
 86c:	7265746e 	rsbvc	r7, r5, #1845493760	; 0x6e000000
 870:	74707572 	ldrbtvc	r7, [r0], #-1394	; 0x572
 874:	6261745f 	rsbvs	r7, r1, #1593835520	; 0x5f000000
 878:	4900656c 	stmdbmi	r0, {r2, r3, r5, r6, r8, sl, sp, lr}
 87c:	625f5152 	subsvs	r5, pc, #-2147483628	; 0x80000014
 880:	63697361 	cmnvs	r9, #-2080374783	; 0x84000001
 884:	6e65705f 	mcrvs	0, 3, r7, cr5, cr15, {2}
 888:	676e6964 	strbvs	r6, [lr, -r4, ror #18]!
 88c:	616e4500 	cmnvs	lr, r0, lsl #10
 890:	5f656c62 	svcpl	0x00656c62
 894:	69736142 	ldmdbvs	r3!, {r1, r6, r8, sp, lr}^
 898:	52495f63 	subpl	r5, r9, #396	; 0x18c
 89c:	45007351 	strmi	r7, [r0, #-849]	; 0x351
 8a0:	6c62616e 	stfvse	f6, [r2], #-440	; 0xfffffe48
 8a4:	52495f65 	subpl	r5, r9, #404	; 0x194
 8a8:	315f7351 	cmpcc	pc, r1, asr r3	; <UNPREDICTABLE>
 8ac:	616e4500 	cmnvs	lr, r0, lsl #10
 8b0:	5f656c62 	svcpl	0x00656c62
 8b4:	73515249 	cmpvc	r1, #-1879048188	; 0x90000004
 8b8:	5f00325f 	svcpl	0x0000325f
 8bc:	65746e69 	ldrbvs	r6, [r4, #-3689]!	; 0xe69
 8c0:	70757272 	rsbsvc	r7, r5, r2, ror r2
 8c4:	61745f74 	cmnvs	r4, r4, ror pc
 8c8:	5f656c62 	svcpl	0x00656c62
 8cc:	00646e65 	rsbeq	r6, r4, r5, ror #28
 8d0:	5f766564 	svcpl	0x00766564
 8d4:	72726162 	rsbsvc	r6, r2, #-2147483624	; 0x80000018
 8d8:	00726569 	rsbseq	r6, r2, r9, ror #10
 8dc:	66617473 			; <UNDEFINED> instruction: 0x66617473
 8e0:	72732d66 	rsbsvc	r2, r3, #6528	; 0x1980
 8e4:	6e692f63 	cdpvs	15, 6, cr2, cr9, cr3, {3}
 8e8:	72726574 	rsbsvc	r6, r2, #116, 10	; 0x1d000000
 8ec:	73747075 	cmnvc	r4, #117	; 0x75
 8f0:	632e632d 	teqvs	lr, #-1275068416	; 0xb4000000
 8f4:	51524900 	cmppl	r2, r0, lsl #18
 8f8:	7361425f 	cmnvc	r1, #-268435451	; 0xf0000005
 8fc:	55500065 	ldrbpl	r0, [r0, #-101]	; 0x65
 900:	00323354 	eorseq	r3, r2, r4, asr r3
 904:	61736944 	cmnvs	r3, r4, asr #18
 908:	5f656c62 	svcpl	0x00656c62
 90c:	73515249 	cmpvc	r1, #-1879048188	; 0x90000004
 910:	4400315f 	strmi	r3, [r0], #-351	; 0x15f
 914:	62617369 	rsbvs	r7, r1, #-1543503871	; 0xa4000001
 918:	495f656c 	ldmdbmi	pc, {r2, r3, r5, r6, r8, sl, sp, lr}^	; <UNPREDICTABLE>
 91c:	5f735152 	svcpl	0x00735152
 920:	52490032 	subpl	r0, r9, #50	; 0x32
 924:	65705f51 	ldrbvs	r5, [r0, #-3921]!	; 0xf51
 928:	6e69646e 	cdpvs	4, 6, cr6, cr9, cr14, {3}
 92c:	00315f67 	eorseq	r5, r1, r7, ror #30
 930:	755f7461 	ldrbvc	r7, [pc, #-1121]	; 4d7 <__code_start__-0x7b29>
 934:	5f726573 	svcpl	0x00726573
 938:	6576656c 	ldrbvs	r6, [r6, #-1388]!	; 0x56c
 93c:	7473006c 	ldrbtvc	r0, [r3], #-108	; 0x6c
 940:	2d666661 	stclcs	6, cr6, [r6, #-388]!	; 0xfffffe7c
 944:	2f637273 	svccs	0x00637273
 948:	6f626572 	svcvs	0x00626572
 94c:	632e746f 	teqvs	lr, #1862270976	; 0x6f000000
 950:	5f4d5000 	svcpl	0x004d5000
 954:	43545352 	cmpmi	r4, #1207959553	; 0x48000001
 958:	4352575f 	cmpmi	r2, #24903680	; 0x17c0000
 95c:	465f4746 	ldrbmi	r4, [pc], -r6, asr #14
 960:	5f4c4c55 	svcpl	0x004c4c55
 964:	45534552 	ldrbmi	r4, [r3, #-1362]	; 0x552
 968:	4d500054 	ldclmi	0, cr0, [r0, #-336]	; 0xfffffeb0
 96c:	4f44575f 	svcmi	0x0044575f
 970:	65730047 	ldrbvs	r0, [r3, #-71]!	; 0x47
 974:	73755f74 	cmnvc	r5, #116, 30	; 0x1d0
 978:	6c5f7265 	lfmvs	f7, 2, [pc], {101}	; 0x65
 97c:	6c657665 	stclvs	6, cr7, [r5], #-404	; 0xfffffe6c
 980:	5f4d5000 	svcpl	0x004d5000
 984:	53534150 	cmppl	r3, #80, 2
 988:	44524f57 	ldrbmi	r4, [r2], #-3927	; 0xf57
 98c:	5f4d5000 	svcpl	0x004d5000
 990:	43545352 	cmpmi	r4, #1207959553	; 0x48000001
 994:	6d697400 	cfstrdvs	mvd7, [r9, #-0]
 998:	675f7265 	ldrbvs	r7, [pc, -r5, ror #4]
 99c:	755f7465 	ldrbvc	r7, [pc, #-1125]	; 53f <__code_start__-0x7ac1>
 9a0:	5f636573 	svcpl	0x00636573
 9a4:	00776172 	rsbseq	r6, r7, r2, ror r1
 9a8:	616c6564 	cmnvs	ip, r4, ror #10
 9ac:	65735f79 	ldrbvs	r5, [r3, #-3961]!	; 0xf79
 9b0:	74730063 	ldrbtvc	r0, [r3], #-99	; 0x63
 9b4:	2d666661 	stclcs	6, cr6, [r6, #-388]!	; 0xfffffe7c
 9b8:	2f637273 	svccs	0x00637273
 9bc:	656d6974 	strbvs	r6, [sp, #-2420]!	; 0x974
 9c0:	00632e72 	rsbeq	r2, r3, r2, ror lr
 9c4:	33544547 	cmpcc	r4, #297795584	; 0x11c00000
 9c8:	69740032 	ldmdbvs	r4!, {r1, r4, r5}^
 9cc:	00736b63 	rsbseq	r6, r3, r3, ror #22
 9d0:	616c6564 	cmnvs	ip, r4, ror #10
 9d4:	79635f79 	stmdbvc	r3!, {r0, r3, r4, r5, r6, r8, r9, sl, fp, ip, lr}^
 9d8:	73656c63 	cmnvc	r5, #25344	; 0x6300
 9dc:	6c656400 	cfstrdvs	mvd6, [r5], #-0
 9e0:	755f7961 	ldrbvc	r7, [pc, #-2401]	; 87 <__code_start__-0x7f79>
 9e4:	69740073 	ldmdbvs	r4!, {r0, r1, r4, r5, r6}^
 9e8:	5f72656d 	svcpl	0x0072656d
 9ec:	5f746567 	svcpl	0x00746567
 9f0:	63657375 	cmnvs	r5, #-738197503	; 0xd4000001
 9f4:	73645f00 	cmnvc	r4, #0, 30
 9f8:	61685f6f 	cmnvs	r8, pc, ror #30
 9fc:	656c646e 	strbvs	r6, [ip, #-1134]!	; 0x46e
 a00:	69735f00 	ldmdbvs	r3!, {r8, r9, sl, fp, ip, lr}^
 a04:	5f00657a 	svcpl	0x0000657a
 a08:	646e6172 	strbtvs	r6, [lr], #-370	; 0x172
 a0c:	5f003834 	svcpl	0x00003834
 a10:	72656d65 	rsbvc	r6, r5, #6464	; 0x1940
 a14:	636e6567 	cmnvs	lr, #432013312	; 0x19c00000
 a18:	61750079 	cmnvs	r5, r9, ror r0
 a1c:	695f7472 	ldmdbvs	pc, {r1, r4, r5, r6, sl, ip, sp, lr}^	; <UNPREDICTABLE>
 a20:	0074696e 	rsbseq	r6, r4, lr, ror #18
 a24:	7263775f 	rsbvc	r7, r3, #24903680	; 0x17c0000
 a28:	626d6f74 	rsbvs	r6, sp, #116, 30	; 0x1d0
 a2c:	6174735f 	cmnvs	r4, pc, asr r3
 a30:	5f006574 	svcpl	0x00006574
 a34:	72736377 	rsbsvc	r6, r3, #-603979775	; 0xdc000001
 a38:	626d6f74 	rsbvs	r6, sp, #116, 30	; 0x1d0
 a3c:	74735f73 	ldrbtvc	r5, [r3], #-3955	; 0xf73
 a40:	00657461 	rsbeq	r7, r5, r1, ror #8
 a44:	66626c5f 			; <UNDEFINED> instruction: 0x66626c5f
 a48:	657a6973 	ldrbvs	r6, [sl, #-2419]!	; 0x973
 a4c:	49504700 	ldmdbmi	r0, {r8, r9, sl, lr}^
 a50:	55465f4f 	strbpl	r5, [r6, #-3919]	; 0xf4f
 a54:	495f434e 	ldmdbmi	pc, {r1, r2, r3, r6, r8, r9, lr}^	; <UNPREDICTABLE>
 a58:	5455504e 	ldrbpl	r5, [r5], #-78	; 0x4e
 a5c:	626d5f00 	rsbvs	r5, sp, #0, 30
 a60:	776f7472 			; <UNDEFINED> instruction: 0x776f7472
 a64:	74735f63 	ldrbtvc	r5, [r3], #-3939	; 0xf63
 a68:	00657461 	rsbeq	r7, r5, r1, ror #8
 a6c:	7463775f 	strbtvc	r7, [r3], #-1887	; 0x75f
 a70:	5f626d6f 	svcpl	0x00626d6f
 a74:	74617473 	strbtvc	r7, [r1], #-1139	; 0x473
 a78:	5f5f0065 	svcpl	0x005f0065
 a7c:	735f6d74 	cmpvc	pc, #116, 26	; 0x1d00
 a80:	73006365 	movwvc	r6, #869	; 0x365
 a84:	00746174 	rsbseq	r6, r4, r4, ror r1
 a88:	7562755f 	strbvc	r7, [r2, #-1375]!	; 0x55f
 a8c:	50470066 	subpl	r0, r7, r6, rrx
 a90:	465f4f49 	ldrbmi	r4, [pc], -r9, asr #30
 a94:	5f434e55 	svcpl	0x00434e55
 a98:	31544c41 	cmpcc	r4, r1, asr #24
 a9c:	61625f00 	cmnvs	r2, r0, lsl #30
 aa0:	63006573 	movwvs	r6, #1395	; 0x573
 aa4:	006c746e 	rsbeq	r7, ip, lr, ror #8
 aa8:	6d745f5f 	ldclvs	15, cr5, [r4, #-380]!	; 0xfffffe84
 aac:	756f685f 	strbvc	r6, [pc, #-2143]!	; 255 <__code_start__-0x7dab>
 ab0:	5f5f0072 	svcpl	0x005f0072
 ab4:	5f006673 	svcpl	0x00006673
 ab8:	655f6e6f 	ldrbvs	r6, [pc, #-3695]	; fffffc51 <__bss_end__+0xffff5619>
 abc:	5f746978 	svcpl	0x00746978
 ac0:	73677261 	cmnvc	r7, #268435462	; 0x10000006
 ac4:	6f635f00 	svcvs	0x00635f00
 ac8:	65696b6f 	strbvs	r6, [r9, #-2927]!	; 0xb6f
 acc:	735f5f00 	cmpvc	pc, #0, 30
 ad0:	65756c67 	ldrbvs	r6, [r5, #-3175]!	; 0xc67
 ad4:	6c665f00 	stclvs	15, cr5, [r6], #-0
 ad8:	00736761 	rsbseq	r6, r3, r1, ror #14
 adc:	5f73695f 	svcpl	0x0073695f
 ae0:	00617863 	rsbeq	r7, r1, r3, ror #16
 ae4:	6474735f 	ldrbtvs	r7, [r4], #-863	; 0x35f
 ae8:	5f006e69 	svcpl	0x00006e69
 aec:	736b6c62 	cmnvc	fp, #25088	; 0x6200
 af0:	00657a69 	rsbeq	r7, r5, r9, ror #20
 af4:	74726175 	ldrbtvc	r6, [r2], #-373	; 0x175
 af8:	6100632e 	tstvs	r0, lr, lsr #6
 afc:	705f7875 	subsvc	r7, pc, r5, ror r8	; <UNPREDICTABLE>
 b00:	70697265 	rsbvc	r7, r9, r5, ror #4
 b04:	5f007368 	svcpl	0x00007368
 b08:	62747663 	rsbsvs	r7, r4, #103809024	; 0x6300000
 b0c:	2f006675 	svccs	0x00006675
 b10:	656d6f68 	strbvs	r6, [sp, #-3944]!	; 0xf68
 b14:	676e652f 	strbvs	r6, [lr, -pc, lsr #10]!
 b18:	2f72656c 	svccs	0x0072656c
 b1c:	73616c63 	cmnvc	r1, #25344	; 0x6300
 b20:	73632f73 	cmnvc	r3, #460	; 0x1cc
 b24:	6c303432 	cfldrsvs	mvf3, [r0], #-200	; 0xffffff38
 b28:	30322d78 	eorscc	r2, r2, r8, ror sp
 b2c:	2f727073 	svccs	0x00727073
 b30:	7062696c 	rsbvc	r6, r2, ip, ror #18
 b34:	74732f69 	ldrbtvc	r2, [r3], #-3945	; 0xf69
 b38:	2d666661 	stclcs	6, cr6, [r6, #-388]!	; 0xfffffe7c
 b3c:	76697270 			; <UNDEFINED> instruction: 0x76697270
 b40:	00657461 	rsbeq	r7, r5, r1, ror #8
 b44:	73626d5f 	cmnvc	r2, #6080	; 0x17c0
 b48:	776f7472 			; <UNDEFINED> instruction: 0x776f7472
 b4c:	735f7363 	cmpvc	pc, #-1946157055	; 0x8c000001
 b50:	65746174 	ldrbvs	r6, [r4, #-372]!	; 0x174
 b54:	626d5f00 	rsbvs	r5, sp, #0, 30
 b58:	6e656c72 	mcrvs	12, 3, r6, cr5, cr2, {3}
 b5c:	6174735f 	cmnvs	r4, pc, asr r3
 b60:	5f006574 	svcpl	0x00006574
 b64:	72616e66 	rsbvc	r6, r1, #1632	; 0x660
 b68:	61007367 	tstvs	r0, r7, ror #6
 b6c:	655f7875 	ldrbvs	r7, [pc, #-2165]	; 2ff <__code_start__-0x7d01>
 b70:	6c62616e 	stfvse	f6, [r2], #-440	; 0xfffffe48
 b74:	5f007365 	svcpl	0x00007365
 b78:	00736e66 	rsbseq	r6, r3, r6, ror #28
 b7c:	6769735f 			; <UNDEFINED> instruction: 0x6769735f
 b80:	6175006e 	cmnvs	r5, lr, rrx
 b84:	635f7472 	cmpvs	pc, #1912602624	; 0x72000000
 b88:	705f6e61 	subsvc	r6, pc, r1, ror #28
 b8c:	00637475 	rsbeq	r7, r3, r5, ror r4
 b90:	6f6c665f 	svcvs	0x006c665f
 b94:	745f6b63 	ldrbvc	r6, [pc], #-2915	; b9c <__code_start__-0x7464>
 b98:	74735f00 	ldrbtvc	r5, [r3], #-3840	; 0xf00
 b9c:	72726564 	rsbsvc	r6, r2, #100, 10	; 0x19000000
 ba0:	69425f00 	stmdbvs	r2, {r8, r9, sl, fp, ip, lr}^
 ba4:	746e6967 	strbtvc	r6, [lr], #-2407	; 0x967
 ba8:	61675f00 	cmnvs	r7, r0, lsl #30
 bac:	5f616d6d 	svcpl	0x00616d6d
 bb0:	6e676973 	mcrvs	9, 3, r6, cr7, cr3, {3}
 bb4:	006d6167 	rsbeq	r6, sp, r7, ror #2
 bb8:	7365725f 	cmnvc	r5, #-268435451	; 0xf0000005
 bbc:	5f746c75 	svcpl	0x00746c75
 bc0:	5f5f006b 	svcpl	0x005f006b
 bc4:	5f006d74 	svcpl	0x00006d74
 bc8:	6863775f 	stmdavs	r3!, {r0, r1, r2, r3, r4, r6, r8, r9, sl, ip, sp, lr}^
 bcc:	61750062 	cmnvs	r5, r2, rrx
 bd0:	675f7472 			; <UNDEFINED> instruction: 0x675f7472
 bd4:	00637465 	rsbeq	r7, r3, r5, ror #8
 bd8:	6474735f 	ldrbtvs	r7, [r4], #-863	; 0x35f
 bdc:	0074756f 	rsbseq	r7, r4, pc, ror #10
 be0:	7476635f 	ldrbtvc	r6, [r6], #-863	; 0x35f
 be4:	006e656c 	rsbeq	r6, lr, ip, ror #10
 be8:	6c69665f 	stclvs	6, cr6, [r9], #-380	; 0xfffffe84
 bec:	6e5f0065 	cdpvs	0, 5, cr0, cr15, cr5, {3}
 bf0:	73626f69 	cmnvc	r2, #420	; 0x1a4
 bf4:	74615f00 	strbtvc	r5, [r1], #-3840	; 0xf00
 bf8:	74697865 	strbtvc	r7, [r9], #-2149	; 0x865
 bfc:	735f0030 	cmpvc	pc, #48	; 0x30
 c00:	616e6769 	cmnvs	lr, r9, ror #14
 c04:	75625f6c 	strbvc	r5, [r2, #-3948]!	; 0xf6c
 c08:	615f0066 	cmpvs	pc, r6, rrx
 c0c:	69746373 	ldmdbvs	r4!, {r0, r1, r4, r5, r6, r8, r9, sp, lr}^
 c10:	625f656d 	subsvs	r6, pc, #457179136	; 0x1b400000
 c14:	5f006675 	svcpl	0x00006675
 c18:	75736572 	ldrbvc	r6, [r3, #-1394]!	; 0x572
 c1c:	5f00746c 	svcpl	0x0000746c
 c20:	6863775f 	stmdavs	r3!, {r0, r1, r2, r3, r4, r6, r8, r9, sl, ip, sp, lr}^
 c24:	49504700 	ldmdbmi	r0, {r8, r9, sl, lr}^
 c28:	55465f4f 	strbpl	r5, [r6, #-3919]	; 0xf4f
 c2c:	415f434e 	cmpmi	pc, lr, asr #6
 c30:	0032544c 	eorseq	r5, r2, ip, asr #8
 c34:	746e6977 	strbtvc	r6, [lr], #-2423	; 0x977
 c38:	5f00745f 	svcpl	0x0000745f
 c3c:	6b636f6c 	blvs	18dc9f4 <__bss_end__+0x18d23bc>
 c40:	6c665f00 	stclvs	15, cr5, [r6], #-0
 c44:	32736761 	rsbscc	r6, r3, #25427968	; 0x1840000
 c48:	745f5f00 	ldrbvc	r5, [pc], #-3840	; c50 <__code_start__-0x73b0>
 c4c:	65795f6d 	ldrbvs	r5, [r9, #-3949]!	; 0xf6d
 c50:	5f007261 	svcpl	0x00007261
 c54:	7366666f 	cmnvc	r6, #116391936	; 0x6f00000
 c58:	67007465 	strvs	r7, [r0, -r5, ror #8]
 c5c:	5f6f6970 	svcpl	0x006f6970
 c60:	5f746573 	svcpl	0x00746573
 c64:	636e7566 	cmnvs	lr, #427819008	; 0x19800000
 c68:	6e6f6974 	mcrvs	9, 3, r6, cr15, cr4, {3}
 c6c:	656e5f00 	strbvs	r5, [lr, #-3840]!	; 0xf00
 c70:	00667478 	rsbeq	r7, r6, r8, ror r4
 c74:	6d745f5f 	ldclvs	15, cr5, [r4, #-380]!	; 0xfffffe84
 c78:	6e6f6d5f 	mcrvs	13, 3, r6, cr15, cr15, {2}
 c7c:	74615f00 	strbtvc	r5, [r1], #-3840	; 0xf00
 c80:	74697865 	strbtvc	r7, [r9], #-2149	; 0x865
 c84:	735f5f00 	cmpvc	pc, #0, 30
 c88:	69646964 	stmdbvs	r4!, {r2, r5, r6, r8, fp, sp, lr}^
 c8c:	0074696e 	rsbseq	r6, r4, lr, ror #18
 c90:	66666f5f 	uqsaxvs	r6, r6, pc	; <UNPREDICTABLE>
 c94:	7500745f 	strvc	r7, [r0, #-1119]	; 0x45f
 c98:	00747261 	rsbseq	r7, r4, r1, ror #4
 c9c:	6572665f 	ldrbvs	r6, [r2, #-1631]!	; 0x65f
 ca0:	73696c65 	cmnvc	r9, #25856	; 0x6500
 ca4:	4c5f0074 	mrrcmi	0, 7, r0, pc, cr4	; <UNPREDICTABLE>
 ca8:	5f4b434f 	svcpl	0x004b434f
 cac:	55434552 	strbpl	r4, [r3, #-1362]	; 0x552
 cb0:	56495352 			; <UNDEFINED> instruction: 0x56495352
 cb4:	00545f45 	subseq	r5, r4, r5, asr #30
 cb8:	77656e5f 			; <UNDEFINED> instruction: 0x77656e5f
 cbc:	5f685f00 	svcpl	0x00685f00
 cc0:	6e727265 	cdpvs	2, 7, cr7, cr2, cr5, {3}
 cc4:	5f5f006f 	svcpl	0x005f006f
 cc8:	795f6d74 	ldmdbvc	pc, {r2, r4, r5, r6, r8, sl, fp, sp, lr}^	; <UNPREDICTABLE>
 ccc:	00796164 	rsbseq	r6, r9, r4, ror #2
 cd0:	62735f5f 	rsbsvs	r5, r3, #380	; 0x17c
 cd4:	5f006675 	svcpl	0x00006675
 cd8:	73626f69 	cmnvc	r2, #420	; 0x1a4
 cdc:	465f5f00 	ldrbmi	r5, [pc], -r0, lsl #30
 ce0:	00454c49 	subeq	r4, r5, r9, asr #24
 ce4:	73626d5f 	cmnvc	r2, #6080	; 0x17c0
 ce8:	65746174 	ldrbvs	r6, [r4, #-372]!	; 0x174
 cec:	5f00745f 	svcpl	0x0000745f
 cf0:	4946735f 	stmdbmi	r6, {r0, r1, r2, r3, r4, r6, r8, r9, ip, sp, lr}^
 cf4:	5f00454c 	svcpl	0x0000454c
 cf8:	7473626d 	ldrbtvc	r6, [r3], #-621	; 0x26d
 cfc:	00657461 	rsbeq	r7, r5, r1, ror #8
 d00:	6e61725f 	mcrvs	2, 3, r7, cr1, cr15, {2}
 d04:	656e5f64 	strbvs	r5, [lr, #-3940]!	; 0xf64
 d08:	5f007478 	svcpl	0x00007478
 d0c:	656c626d 	strbvs	r6, [ip, #-621]!	; 0x26d
 d10:	74735f6e 	ldrbtvc	r5, [r3], #-3950	; 0xf6e
 d14:	00657461 	rsbeq	r7, r5, r1, ror #8
 d18:	636e695f 	cmnvs	lr, #1556480	; 0x17c000
 d1c:	6e695f00 	cdpvs	15, 6, cr5, cr9, cr0, {0}
 d20:	635f0064 	cmpvs	pc, #100	; 0x64
 d24:	65727275 	ldrbvs	r7, [r2, #-629]!	; 0x275
 d28:	6c5f746e 	cfldrdvs	mvd7, [pc], {110}	; 0x6e
 d2c:	6c61636f 	stclvs	3, cr6, [r1], #-444	; 0xfffffe44
 d30:	5f5f0065 	svcpl	0x005f0065
 d34:	61656c63 	cmnvs	r5, r3, ror #24
 d38:	0070756e 	rsbseq	r7, r0, lr, ror #10
 d3c:	78616d5f 	stmdavc	r1!, {r0, r1, r2, r3, r4, r6, r8, sl, fp, sp, lr}^
 d40:	00736477 	rsbseq	r6, r3, r7, ror r4
 d44:	6565725f 	strbvs	r7, [r5, #-607]!	; 0x25f
 d48:	5f00746e 	svcpl	0x0000746e
 d4c:	64656573 	strbtvs	r6, [r5], #-1395	; 0x573
 d50:	635f5f00 	cmpvs	pc, #0, 30
 d54:	746e756f 	strbtvc	r7, [lr], #-1391	; 0x56f
 d58:	765f5f00 	ldrbvc	r5, [pc], -r0, lsl #30
 d5c:	65756c61 	ldrbvs	r6, [r5, #-3169]!	; 0xc61
 d60:	65735f00 	ldrbvs	r5, [r3, #-3840]!	; 0xf00
 d64:	62006b65 	andvs	r6, r0, #103424	; 0x19400
 d68:	00647561 	rsbeq	r7, r4, r1, ror #10
 d6c:	6f70665f 	svcvs	0x0070665f
 d70:	00745f73 	rsbseq	r5, r4, r3, ror pc
 d74:	6d745f5f 	ldclvs	15, cr5, [r4, #-380]!	; 0xfffffe84
 d78:	6e696d5f 	mcrvs	13, 3, r6, cr9, cr15, {2}
 d7c:	72637300 	rsbvc	r7, r3, #0, 6
 d80:	68637461 	stmdavs	r3!, {r0, r5, r6, sl, ip, sp, lr}^
 d84:	756d5f00 	strbvc	r5, [sp, #-3840]!	; 0xf00
 d88:	7000746c 	andvc	r7, r0, ip, ror #8
 d8c:	32337475 	eorscc	r7, r3, #1962934272	; 0x75000000
 d90:	554e4700 	strbpl	r4, [lr, #-1792]	; 0x700
 d94:	39394320 	ldmdbcc	r9!, {r5, r8, r9, lr}
 d98:	332e3620 	teqcc	lr, #32, 12	; 0x2000000
 d9c:	3220312e 	eorcc	r3, r0, #-2147483637	; 0x8000000b
 da0:	30373130 	eorscc	r3, r7, r0, lsr r1
 da4:	20303236 	eorscs	r3, r0, r6, lsr r2
 da8:	70636d2d 	rsbvc	r6, r3, sp, lsr #26
 dac:	72613d75 	rsbvc	r3, r1, #7488	; 0x1d40
 db0:	3731316d 	ldrcc	r3, [r1, -sp, ror #2]!
 db4:	667a6a36 			; <UNDEFINED> instruction: 0x667a6a36
 db8:	2d20732d 	stccs	3, cr7, [r0, #-180]!	; 0xffffff4c
 dbc:	6e75746d 	cdpvs	4, 7, cr7, cr5, cr13, {3}
 dc0:	72613d65 	rsbvc	r3, r1, #6464	; 0x1940
 dc4:	3731316d 	ldrcc	r3, [r1, -sp, ror #2]!
 dc8:	667a6a36 			; <UNDEFINED> instruction: 0x667a6a36
 dcc:	2d20732d 	stccs	3, cr7, [r0, #-180]!	; 0xffffff4c
 dd0:	62646767 	rsbvs	r6, r4, #27000832	; 0x19c0000
 dd4:	674f2d20 	strbvs	r2, [pc, -r0, lsr #26]
 dd8:	74732d20 	ldrbtvc	r2, [r3], #-3360	; 0xd20
 ddc:	6e673d64 	cdpvs	13, 6, cr3, cr7, cr4, {3}
 de0:	20393975 	eorscs	r3, r9, r5, ror r9
 de4:	7266662d 	rsbvc	r6, r6, #47185920	; 0x2d00000
 de8:	74736565 	ldrbtvc	r6, [r3], #-1381	; 0x565
 dec:	69646e61 	stmdbvs	r4!, {r0, r5, r6, r9, sl, fp, sp, lr}^
 df0:	5f00676e 	svcpl	0x0000676e
 df4:	74727473 	ldrbtvc	r7, [r2], #-1139	; 0x473
 df8:	6c5f6b6f 	mrrcvs	11, 6, r6, pc, cr15	; <UNPREDICTABLE>
 dfc:	00747361 	rsbseq	r7, r4, r1, ror #6
 e00:	746e665f 	strbtvc	r6, [lr], #-1631	; 0x65f
 e04:	73657079 	cmnvc	r5, #121	; 0x79
 e08:	64615f00 	strbtvs	r5, [r1], #-3840	; 0xf00
 e0c:	5f5f0064 	svcpl	0x005f0064
 e10:	6e6f4c55 	mcrvs	12, 3, r4, cr15, cr5, {2}
 e14:	675f0067 	ldrbvs	r0, [pc, -r7, rrx]
 e18:	61647465 	cmnvs	r4, r5, ror #8
 e1c:	655f6574 	ldrbvs	r6, [pc, #-1396]	; 8b0 <__code_start__-0x7750>
 e20:	5f007272 	svcpl	0x00007272
 e24:	626f6c67 	rsbvs	r6, pc, #26368	; 0x6700
 e28:	695f6c61 	ldmdbvs	pc, {r0, r5, r6, sl, fp, sp, lr}^	; <UNPREDICTABLE>
 e2c:	7275706d 	rsbsvc	r7, r5, #109	; 0x6d
 e30:	74705f65 	ldrbtvc	r5, [r0], #-3941	; 0xf65
 e34:	635f0072 	cmpvs	pc, #114	; 0x72
 e38:	65727275 	ldrbvs	r7, [r2, #-629]!	; 0x275
 e3c:	635f746e 	cmpvs	pc, #1845493760	; 0x6e000000
 e40:	67657461 	strbvs	r7, [r5, -r1, ror #8]!
 e44:	0079726f 	rsbseq	r7, r9, pc, ror #4
 e48:	756e755f 	strbvc	r7, [lr, #-1375]!	; 0x55f
 e4c:	5f646573 	svcpl	0x00646573
 e50:	646e6172 	strbtvs	r6, [lr], #-370	; 0x172
 e54:	64775f00 	ldrbtvs	r5, [r7], #-3840	; 0xf00
 e58:	5f5f0073 	svcpl	0x005f0073
 e5c:	775f6d74 			; <UNDEFINED> instruction: 0x775f6d74
 e60:	00796164 	rsbseq	r6, r9, r4, ror #2
 e64:	756c675f 	strbvc	r6, [ip, #-1887]!	; 0x75f
 e68:	50470065 	subpl	r0, r7, r5, rrx
 e6c:	465f4f49 	ldrbmi	r4, [pc], -r9, asr #30
 e70:	5f434e55 	svcpl	0x00434e55
 e74:	5054554f 	subspl	r5, r4, pc, asr #10
 e78:	5f005455 	svcpl	0x00005455
 e7c:	6c616d6e 	stclvs	13, cr6, [r1], #-440	; 0xfffffe48
 e80:	00636f6c 	rsbeq	r6, r3, ip, ror #30
 e84:	34366c5f 	ldrtcc	r6, [r6], #-3167	; 0xc5f
 e88:	75625f61 	strbvc	r5, [r2, #-3937]!	; 0xf61
 e8c:	65670066 	strbvs	r0, [r7, #-102]!	; 0x66
 e90:	00323374 	eorseq	r3, r2, r4, ror r3
 e94:	74726175 	ldrbtvc	r6, [r2], #-373	; 0x175
 e98:	6e61635f 	mcrvs	3, 3, r6, cr1, cr15, {2}
 e9c:	7465675f 	strbtvc	r6, [r5], #-1887	; 0x75f
 ea0:	735f0063 	cmpvc	pc, #99	; 0x63
 ea4:	665f6769 	ldrbvs	r6, [pc], -r9, ror #14
 ea8:	00636e75 	rsbeq	r6, r3, r5, ror lr
 eac:	695f726f 	ldmdbvs	pc, {r0, r1, r2, r3, r5, r6, r9, ip, sp, lr}^	; <UNPREDICTABLE>
 eb0:	0032336e 	eorseq	r3, r2, lr, ror #6
 eb4:	74726175 	ldrbtvc	r6, [r2], #-373	; 0x175
 eb8:	7361685f 	cmnvc	r1, #6225920	; 0x5f0000
 ebc:	7461645f 	strbtvc	r6, [r1], #-1119	; 0x45f
 ec0:	50470061 	subpl	r0, r7, r1, rrx
 ec4:	465f4f49 	ldrbmi	r4, [pc], -r9, asr #30
 ec8:	5f434e55 	svcpl	0x00434e55
 ecc:	30544c41 	subscc	r4, r4, r1, asr #24
 ed0:	626e5f00 	rsbvs	r5, lr, #0, 30
 ed4:	5f006675 	svcpl	0x00006675
 ed8:	73756e75 	cmnvc	r5, #1872	; 0x750
 edc:	47006465 	strmi	r6, [r0, -r5, ror #8]
 ee0:	5f4f4950 	svcpl	0x004f4950
 ee4:	434e5546 	movtmi	r5, #58694	; 0xe546
 ee8:	544c415f 	strbpl	r4, [ip], #-351	; 0x15f
 eec:	50470033 	subpl	r0, r7, r3, lsr r0
 ef0:	465f4f49 	ldrbmi	r4, [pc], -r9, asr #30
 ef4:	5f434e55 	svcpl	0x00434e55
 ef8:	34544c41 	ldrbcc	r4, [r4], #-3137	; 0xc41
 efc:	49504700 	ldmdbmi	r0, {r8, r9, sl, lr}^
 f00:	55465f4f 	strbpl	r5, [r6, #-3919]	; 0xf4f
 f04:	415f434e 	cmpmi	pc, lr, asr #6
 f08:	0035544c 	eorseq	r5, r5, ip, asr #8
 f0c:	6d745f5f 	ldclvs	15, cr5, [r4, #-380]!	; 0xfffffe84
 f10:	6473695f 	ldrbtvs	r6, [r3], #-2399	; 0x95f
 f14:	5f007473 	svcpl	0x00007473
 f18:	61636f6c 	cmnvs	r3, ip, ror #30
 f1c:	6d69746c 	cfstrdvs	mvd7, [r9, #-432]!	; 0xfffffe50
 f20:	75625f65 	strbvc	r5, [r2, #-3941]!	; 0xf65
 f24:	635f0066 	cmpvs	pc, #102	; 0x66
 f28:	65736f6c 	ldrbvs	r6, [r3, #-3948]!	; 0xf6c
 f2c:	34725f00 	ldrbtcc	r5, [r2], #-3840	; 0xf00
 f30:	6d5f0038 	ldclvs	0, cr0, [pc, #-224]	; e58 <__code_start__-0x71a8>
 f34:	776f7462 	strbvc	r7, [pc, -r2, ror #8]!
 f38:	74735f63 	ldrbtvc	r5, [r3], #-3939	; 0xf63
 f3c:	00657461 	rsbeq	r7, r5, r1, ror #8
 f40:	7335705f 	teqvc	r5, #95	; 0x5f
 f44:	745f5f00 	ldrbvc	r5, [pc], #-3840	; f4c <__code_start__-0x70b4>
 f48:	646d5f6d 	strbtvs	r5, [sp], #-3949	; 0xf6d
 f4c:	67007961 	strvs	r7, [r0, -r1, ror #18]
 f50:	5f6f6970 	svcpl	0x006f6970
 f54:	5f746573 	svcpl	0x00746573
 f58:	0066666f 	rsbeq	r6, r6, pc, ror #12
 f5c:	6b6e6162 	blvs	1b994ec <__bss_end__+0x1b8eeb4>
 f60:	69706700 	ldmdbvs	r0!, {r8, r9, sl, sp, lr}^
 f64:	00632e6f 	rsbeq	r2, r3, pc, ror #28
 f68:	6f697067 	svcvs	0x00697067
 f6c:	6165725f 	cmnvs	r5, pc, asr r2
 f70:	70670064 	rsbvc	r0, r7, r4, rrx
 f74:	735f6f69 	cmpvc	pc, #420	; 0x1a4
 f78:	6f5f7465 	svcvs	0x005f7465
 f7c:	75707475 	ldrbvc	r7, [r0, #-1141]!	; 0x475
 f80:	70670074 	rsbvc	r0, r7, r4, ror r0
 f84:	775f6f69 	ldrbvc	r6, [pc, -r9, ror #30]
 f88:	65746972 	ldrbvs	r6, [r4, #-2418]!	; 0x972
 f8c:	69706700 	ldmdbvs	r0!, {r8, r9, sl, sp, lr}^
 f90:	65735f6f 	ldrbvs	r5, [r3, #-3951]!	; 0xf6f
 f94:	67003074 	smlsdxvs	r0, r4, r0, r3
 f98:	5f6f6970 	svcpl	0x006f6970
 f9c:	3076656c 	rsbscc	r6, r6, ip, ror #10
 fa0:	69706700 	ldmdbvs	r0!, {r8, r9, sl, sp, lr}^
 fa4:	65735f6f 	ldrbvs	r5, [r3, #-3951]!	; 0xf6f
 fa8:	6e695f74 	mcrvs	15, 3, r5, cr9, cr4, {3}
 fac:	00747570 	rsbseq	r7, r4, r0, ror r5
 fb0:	6f697067 	svcvs	0x00697067
 fb4:	7465735f 	strbtvc	r7, [r5], #-863	; 0x35f
 fb8:	006e6f5f 	rsbeq	r6, lr, pc, asr pc
 fbc:	6f697067 	svcvs	0x00697067
 fc0:	6e75665f 	mrcvs	6, 3, r6, cr5, cr15, {2}
 fc4:	00745f63 	rsbseq	r5, r4, r3, ror #30
 fc8:	6f697067 	svcvs	0x00697067
 fcc:	726c635f 	rsbvc	r6, ip, #2080374785	; 0x7c000001
 fd0:	Address 0x0000000000000fd0 is out of bounds.


Disassembly of section .debug_frame:

00000000 <.debug_frame>:
   0:	0000000c 	andeq	r0, r0, ip
   4:	ffffffff 			; <UNDEFINED> instruction: 0xffffffff
   8:	7c020001 	stcvc	0, cr0, [r2], {1}
   c:	000d0c0e 	andeq	r0, sp, lr, lsl #24
  10:	00000014 	andeq	r0, r0, r4, lsl r0
  14:	00000000 	andeq	r0, r0, r0
  18:	00008020 	andeq	r8, r0, r0, lsr #32
  1c:	000000b0 	strheq	r0, [r0], -r0	; <UNPREDICTABLE>
  20:	8e040e42 	cdphi	14, 0, cr0, cr4, cr2, {2}
  24:	100e4201 	andne	r4, lr, r1, lsl #4
  28:	00000014 	andeq	r0, r0, r4, lsl r0
  2c:	00000000 	andeq	r0, r0, r0
  30:	000080d0 	ldrdeq	r8, [r0], -r0
  34:	00000088 	andeq	r0, r0, r8, lsl #1
  38:	8e040e42 	cdphi	14, 0, cr0, cr4, cr2, {2}
  3c:	100e4201 	andne	r4, lr, r1, lsl #4
  40:	0000000c 	andeq	r0, r0, ip
  44:	00000000 	andeq	r0, r0, r0
  48:	00008158 	andeq	r8, r0, r8, asr r1
  4c:	00000020 	andeq	r0, r0, r0, lsr #32
  50:	0000000c 	andeq	r0, r0, ip
  54:	00000000 	andeq	r0, r0, r0
  58:	00008178 	andeq	r8, r0, r8, ror r1
  5c:	0000001c 	andeq	r0, r0, ip, lsl r0
  60:	0000000c 	andeq	r0, r0, ip
  64:	00000000 	andeq	r0, r0, r0
  68:	00008194 	muleq	r0, r4, r1
  6c:	00000070 	andeq	r0, r0, r0, ror r0
  70:	00000014 	andeq	r0, r0, r4, lsl r0
  74:	00000000 	andeq	r0, r0, r0
  78:	00008204 	andeq	r8, r0, r4, lsl #4
  7c:	00000070 	andeq	r0, r0, r0, ror r0
  80:	8e040e42 	cdphi	14, 0, cr0, cr4, cr2, {2}
  84:	400e4201 	andmi	r4, lr, r1, lsl #4
  88:	0000000c 	andeq	r0, r0, ip
  8c:	ffffffff 			; <UNDEFINED> instruction: 0xffffffff
  90:	7c020001 	stcvc	0, cr0, [r2], {1}
  94:	000d0c0e 	andeq	r0, sp, lr, lsl #24
  98:	00000014 	andeq	r0, r0, r4, lsl r0
  9c:	00000088 	andeq	r0, r0, r8, lsl #1
  a0:	00008274 	andeq	r8, r0, r4, ror r2
  a4:	000000b0 	strheq	r0, [r0], -r0	; <UNPREDICTABLE>
  a8:	8e040e42 	cdphi	14, 0, cr0, cr4, cr2, {2}
  ac:	100e4201 	andne	r4, lr, r1, lsl #4
  b0:	00000014 	andeq	r0, r0, r4, lsl r0
  b4:	00000088 	andeq	r0, r0, r8, lsl #1
  b8:	00008324 	andeq	r8, r0, r4, lsr #6
  bc:	000000dc 	ldrdeq	r0, [r0], -ip
  c0:	8e040e42 	cdphi	14, 0, cr0, cr4, cr2, {2}
  c4:	100e4201 	andne	r4, lr, r1, lsl #4
  c8:	00000014 	andeq	r0, r0, r4, lsl r0
  cc:	00000088 	andeq	r0, r0, r8, lsl #1
  d0:	00008400 	andeq	r8, r0, r0, lsl #8
  d4:	0000003c 	andeq	r0, r0, ip, lsr r0
  d8:	83080e42 	movwhi	r0, #36418	; 0x8e42
  dc:	00018e02 	andeq	r8, r1, r2, lsl #28
  e0:	0000000c 	andeq	r0, r0, ip
  e4:	00000088 	andeq	r0, r0, r8, lsl #1
  e8:	0000843c 	andeq	r8, r0, ip, lsr r4
  ec:	00000034 	andeq	r0, r0, r4, lsr r0
  f0:	00000014 	andeq	r0, r0, r4, lsl r0
  f4:	00000088 	andeq	r0, r0, r8, lsl #1
  f8:	00008470 	andeq	r8, r0, r0, ror r4
  fc:	00000098 	muleq	r0, r8, r0
 100:	8e040e42 	cdphi	14, 0, cr0, cr4, cr2, {2}
 104:	100e4201 	andne	r4, lr, r1, lsl #4
 108:	0000000c 	andeq	r0, r0, ip
 10c:	00000088 	andeq	r0, r0, r8, lsl #1
 110:	00008508 	andeq	r8, r0, r8, lsl #10
 114:	00000004 	andeq	r0, r0, r4
 118:	00000014 	andeq	r0, r0, r4, lsl r0
 11c:	00000088 	andeq	r0, r0, r8, lsl #1
 120:	0000850c 	andeq	r8, r0, ip, lsl #10
 124:	0000002c 	andeq	r0, r0, ip, lsr #32
 128:	83080e42 	movwhi	r0, #36418	; 0x8e42
 12c:	00018e02 	andeq	r8, r1, r2, lsl #28
 130:	0000000c 	andeq	r0, r0, ip
 134:	00000088 	andeq	r0, r0, r8, lsl #1
 138:	00008538 	andeq	r8, r0, r8, lsr r5
 13c:	00000034 	andeq	r0, r0, r4, lsr r0
 140:	0000000c 	andeq	r0, r0, ip
 144:	00000088 	andeq	r0, r0, r8, lsl #1
 148:	0000856c 	andeq	r8, r0, ip, ror #10
 14c:	00000010 	andeq	r0, r0, r0, lsl r0
 150:	00000014 	andeq	r0, r0, r4, lsl r0
 154:	00000088 	andeq	r0, r0, r8, lsl #1
 158:	0000857c 	andeq	r8, r0, ip, ror r5
 15c:	00000070 	andeq	r0, r0, r0, ror r0
 160:	83080e42 	movwhi	r0, #36418	; 0x8e42
 164:	00018e02 	andeq	r8, r1, r2, lsl #28
 168:	0000000c 	andeq	r0, r0, ip
 16c:	ffffffff 			; <UNDEFINED> instruction: 0xffffffff
 170:	7c020001 	stcvc	0, cr0, [r2], {1}
 174:	000d0c0e 	andeq	r0, sp, lr, lsl #24
 178:	00000018 	andeq	r0, r0, r8, lsl r0
 17c:	00000168 	andeq	r0, r0, r8, ror #2
 180:	00008724 	andeq	r8, r0, r4, lsr #14
 184:	000001ac 	andeq	r0, r0, ip, lsr #3
 188:	840c0e42 	strhi	r0, [ip], #-3650	; 0xe42
 18c:	8e028503 	cfsh32hi	mvfx8, mvfx2, #3
 190:	180e4201 	stmdane	lr, {r0, r9, lr}
 194:	00000024 	andeq	r0, r0, r4, lsr #32
 198:	00000168 	andeq	r0, r0, r8, ror #2
 19c:	000088d0 	ldrdeq	r8, [r0], -r0
 1a0:	000004e0 	andeq	r0, r0, r0, ror #9
 1a4:	84240e42 	strthi	r0, [r4], #-3650	; 0xe42
 1a8:	86088509 	strhi	r8, [r8], -r9, lsl #10
 1ac:	88068707 	stmdahi	r6, {r0, r1, r2, r8, r9, sl, pc}
 1b0:	8a048905 	bhi	1225cc <__bss_end__+0x117f94>
 1b4:	8e028b03 	vmlahi.f64	d8, d2, d3
 1b8:	300e4201 	andcc	r4, lr, r1, lsl #4
 1bc:	0000000c 	andeq	r0, r0, ip
 1c0:	00000168 	andeq	r0, r0, r8, ror #2
 1c4:	00008db0 			; <UNDEFINED> instruction: 0x00008db0
 1c8:	00000008 	andeq	r0, r0, r8
 1cc:	0000000c 	andeq	r0, r0, ip
 1d0:	00000168 	andeq	r0, r0, r8, ror #2
 1d4:	00008db8 			; <UNDEFINED> instruction: 0x00008db8
 1d8:	00000028 	andeq	r0, r0, r8, lsr #32
 1dc:	00000014 	andeq	r0, r0, r4, lsl r0
 1e0:	00000168 	andeq	r0, r0, r8, ror #2
 1e4:	00008de0 	andeq	r8, r0, r0, ror #27
 1e8:	0000004c 	andeq	r0, r0, ip, asr #32
 1ec:	84080e42 	strhi	r0, [r8], #-3650	; 0xe42
 1f0:	00018e02 	andeq	r8, r1, r2, lsl #28
 1f4:	0000000c 	andeq	r0, r0, ip
 1f8:	ffffffff 			; <UNDEFINED> instruction: 0xffffffff
 1fc:	7c020001 	stcvc	0, cr0, [r2], {1}
 200:	000d0c0e 	andeq	r0, sp, lr, lsl #24
 204:	00000024 	andeq	r0, r0, r4, lsr #32
 208:	000001f4 	strdeq	r0, [r0], -r4
 20c:	00008e2c 	andeq	r8, r0, ip, lsr #28
 210:	00000058 	andeq	r0, r0, r8, asr r0
 214:	80100e42 	andshi	r0, r0, r2, asr #28
 218:	82038104 	andhi	r8, r3, #4, 2
 21c:	42018302 	andmi	r8, r1, #134217728	; 0x8000000
 220:	07841c0e 	streq	r1, [r4, lr, lsl #24]
 224:	058e0685 	streq	r0, [lr, #1669]	; 0x685
 228:	00280e42 	eoreq	r0, r8, r2, asr #28
 22c:	0000000c 	andeq	r0, r0, ip
 230:	ffffffff 			; <UNDEFINED> instruction: 0xffffffff
 234:	7c020001 	stcvc	0, cr0, [r2], {1}
 238:	000d0c0e 	andeq	r0, sp, lr, lsl #24
 23c:	00000014 	andeq	r0, r0, r4, lsl r0
 240:	0000022c 	andeq	r0, r0, ip, lsr #4
 244:	00008e84 	andeq	r8, r0, r4, lsl #29
 248:	00000014 	andeq	r0, r0, r4, lsl r0
 24c:	84080e42 	strhi	r0, [r8], #-3650	; 0xe42
 250:	00018e02 	andeq	r8, r1, r2, lsl #28
 254:	0000000c 	andeq	r0, r0, ip
 258:	0000022c 	andeq	r0, r0, ip, lsr #4
 25c:	00008e98 	muleq	r0, r8, lr
 260:	00000018 	andeq	r0, r0, r8, lsl r0
 264:	0000000c 	andeq	r0, r0, ip
 268:	0000022c 	andeq	r0, r0, ip, lsr #4
 26c:	00008eb0 			; <UNDEFINED> instruction: 0x00008eb0
 270:	00000010 	andeq	r0, r0, r0, lsl r0
 274:	0000000c 	andeq	r0, r0, ip
 278:	ffffffff 			; <UNDEFINED> instruction: 0xffffffff
 27c:	7c020001 	stcvc	0, cr0, [r2], {1}
 280:	000d0c0e 	andeq	r0, sp, lr, lsl #24
 284:	00000018 	andeq	r0, r0, r8, lsl r0
 288:	00000274 	andeq	r0, r0, r4, ror r2
 28c:	00008ec0 	andeq	r8, r0, r0, asr #29
 290:	00000034 	andeq	r0, r0, r4, lsr r0
 294:	83100e42 	tsthi	r0, #1056	; 0x420
 298:	85038404 	strhi	r8, [r3, #-1028]	; 0x404
 29c:	00018e02 	andeq	r8, r1, r2, lsl #28
 2a0:	0000000c 	andeq	r0, r0, ip
 2a4:	ffffffff 			; <UNDEFINED> instruction: 0xffffffff
 2a8:	7c020001 	stcvc	0, cr0, [r2], {1}
 2ac:	000d0c0e 	andeq	r0, sp, lr, lsl #24
 2b0:	0000000c 	andeq	r0, r0, ip
 2b4:	000002a0 	andeq	r0, r0, r0, lsr #5
 2b8:	00008ef4 	strdeq	r8, [r0], -r4
 2bc:	00000014 	andeq	r0, r0, r4, lsl r0
 2c0:	0000000c 	andeq	r0, r0, ip
 2c4:	000002a0 	andeq	r0, r0, r0, lsr #5
 2c8:	00008f08 	andeq	r8, r0, r8, lsl #30
 2cc:	0000002c 	andeq	r0, r0, ip, lsr #32
 2d0:	0000000c 	andeq	r0, r0, ip
 2d4:	000002a0 	andeq	r0, r0, r0, lsr #5
 2d8:	00008f34 	andeq	r8, r0, r4, lsr pc
 2dc:	00000040 	andeq	r0, r0, r0, asr #32
 2e0:	00000020 	andeq	r0, r0, r0, lsr #32
 2e4:	000002a0 	andeq	r0, r0, r0, lsr #5
 2e8:	00008f74 	andeq	r8, r0, r4, ror pc
 2ec:	000001bc 			; <UNDEFINED> instruction: 0x000001bc
 2f0:	84180e42 	ldrhi	r0, [r8], #-3650	; 0xe42
 2f4:	86058506 	strhi	r8, [r5], -r6, lsl #10
 2f8:	88038704 	stmdahi	r3, {r2, r8, r9, sl, pc}
 2fc:	42018e02 	andmi	r8, r1, #2, 28
 300:	0000600e 	andeq	r6, r0, lr
 304:	00000014 	andeq	r0, r0, r4, lsl r0
 308:	000002a0 	andeq	r0, r0, r0, lsr #5
 30c:	00009130 	andeq	r9, r0, r0, lsr r1
 310:	00000068 	andeq	r0, r0, r8, rrx
 314:	8e040e42 	cdphi	14, 0, cr0, cr4, cr2, {2}
 318:	100e4201 	andne	r4, lr, r1, lsl #4
 31c:	00000028 	andeq	r0, r0, r8, lsr #32
 320:	000002a0 	andeq	r0, r0, r0, lsr #5
 324:	00009198 	muleq	r0, r8, r1
 328:	000002d4 	ldrdeq	r0, [r0], -r4
 32c:	84240e42 	strthi	r0, [r4], #-3650	; 0xe42
 330:	86088509 	strhi	r8, [r8], -r9, lsl #10
 334:	88068707 	stmdahi	r6, {r0, r1, r2, r8, r9, sl, pc}
 338:	8a048905 	bhi	122754 <__bss_end__+0x11811c>
 33c:	8e028b03 	vmlahi.f64	d8, d2, d3
 340:	b80e4201 	stmdalt	lr, {r0, r9, lr}
 344:	00000001 	andeq	r0, r0, r1
 348:	0000000c 	andeq	r0, r0, ip
 34c:	ffffffff 			; <UNDEFINED> instruction: 0xffffffff
 350:	7c020001 	stcvc	0, cr0, [r2], {1}
 354:	000d0c0e 	andeq	r0, sp, lr, lsl #24
 358:	0000000c 	andeq	r0, r0, ip
 35c:	00000348 	andeq	r0, r0, r8, asr #6
 360:	0000946c 	andeq	r9, r0, ip, ror #8
 364:	00000010 	andeq	r0, r0, r0, lsl r0
 368:	0000000c 	andeq	r0, r0, ip
 36c:	00000348 	andeq	r0, r0, r8, asr #6
 370:	0000947c 	andeq	r9, r0, ip, ror r4
 374:	00000010 	andeq	r0, r0, r0, lsl r0
 378:	0000000c 	andeq	r0, r0, ip
 37c:	ffffffff 			; <UNDEFINED> instruction: 0xffffffff
 380:	7c020001 	stcvc	0, cr0, [r2], {1}
 384:	000d0c0e 	andeq	r0, sp, lr, lsl #24
 388:	00000014 	andeq	r0, r0, r4, lsl r0
 38c:	00000378 	andeq	r0, r0, r8, ror r3
 390:	0000948c 	andeq	r9, r0, ip, lsl #9
 394:	0000002c 	andeq	r0, r0, ip, lsr #32
 398:	83080e42 	movwhi	r0, #36418	; 0x8e42
 39c:	00018e02 	andeq	r8, r1, r2, lsl #28
 3a0:	0000000c 	andeq	r0, r0, ip
 3a4:	ffffffff 			; <UNDEFINED> instruction: 0xffffffff
 3a8:	7c020001 	stcvc	0, cr0, [r2], {1}
 3ac:	000d0c0e 	andeq	r0, sp, lr, lsl #24
 3b0:	00000014 	andeq	r0, r0, r4, lsl r0
 3b4:	000003a0 	andeq	r0, r0, r0, lsr #7
 3b8:	000094b8 			; <UNDEFINED> instruction: 0x000094b8
 3bc:	00000038 	andeq	r0, r0, r8, lsr r0
 3c0:	83080e42 	movwhi	r0, #36418	; 0x8e42
 3c4:	00018e02 	andeq	r8, r1, r2, lsl #28
 3c8:	0000000c 	andeq	r0, r0, ip
 3cc:	ffffffff 			; <UNDEFINED> instruction: 0xffffffff
 3d0:	7c020001 	stcvc	0, cr0, [r2], {1}
 3d4:	000d0c0e 	andeq	r0, sp, lr, lsl #24
 3d8:	00000014 	andeq	r0, r0, r4, lsl r0
 3dc:	000003c8 	andeq	r0, r0, r8, asr #7
 3e0:	000094f0 	strdeq	r9, [r0], -r0
 3e4:	00000044 	andeq	r0, r0, r4, asr #32
 3e8:	8e040e42 	cdphi	14, 0, cr0, cr4, cr2, {2}
 3ec:	100e4201 	andne	r4, lr, r1, lsl #4
 3f0:	0000000c 	andeq	r0, r0, ip
 3f4:	ffffffff 			; <UNDEFINED> instruction: 0xffffffff
 3f8:	7c020001 	stcvc	0, cr0, [r2], {1}
 3fc:	000d0c0e 	andeq	r0, sp, lr, lsl #24
 400:	00000014 	andeq	r0, r0, r4, lsl r0
 404:	000003f0 	strdeq	r0, [r0], -r0	; <UNPREDICTABLE>
 408:	00009534 	andeq	r9, r0, r4, lsr r5
 40c:	00000044 	andeq	r0, r0, r4, asr #32
 410:	8e040e42 	cdphi	14, 0, cr0, cr4, cr2, {2}
 414:	100e4201 	andne	r4, lr, r1, lsl #4
 418:	0000000c 	andeq	r0, r0, ip
 41c:	ffffffff 			; <UNDEFINED> instruction: 0xffffffff
 420:	7c020001 	stcvc	0, cr0, [r2], {1}
 424:	000d0c0e 	andeq	r0, sp, lr, lsl #24
 428:	00000014 	andeq	r0, r0, r4, lsl r0
 42c:	00000418 	andeq	r0, r0, r8, lsl r4
 430:	00009578 	andeq	r9, r0, r8, ror r5
 434:	00000044 	andeq	r0, r0, r4, asr #32
 438:	8e040e42 	cdphi	14, 0, cr0, cr4, cr2, {2}
 43c:	100e4201 	andne	r4, lr, r1, lsl #4
 440:	0000000c 	andeq	r0, r0, ip
 444:	ffffffff 			; <UNDEFINED> instruction: 0xffffffff
 448:	7c020001 	stcvc	0, cr0, [r2], {1}
 44c:	000d0c0e 	andeq	r0, sp, lr, lsl #24
 450:	0000000c 	andeq	r0, r0, ip
 454:	00000440 	andeq	r0, r0, r0, asr #8
 458:	000095bc 			; <UNDEFINED> instruction: 0x000095bc
 45c:	00000004 	andeq	r0, r0, r4
 460:	0000000c 	andeq	r0, r0, ip
 464:	00000440 	andeq	r0, r0, r0, asr #8
 468:	000095c0 	andeq	r9, r0, r0, asr #11
 46c:	00000004 	andeq	r0, r0, r4
 470:	0000000c 	andeq	r0, r0, ip
 474:	ffffffff 			; <UNDEFINED> instruction: 0xffffffff
 478:	7c020001 	stcvc	0, cr0, [r2], {1}
 47c:	000d0c0e 	andeq	r0, sp, lr, lsl #24
 480:	00000014 	andeq	r0, r0, r4, lsl r0
 484:	00000470 	andeq	r0, r0, r0, ror r4
 488:	000095c4 	andeq	r9, r0, r4, asr #11
 48c:	0000006c 	andeq	r0, r0, ip, rrx
 490:	83080e42 	movwhi	r0, #36418	; 0x8e42
 494:	00018e02 	andeq	r8, r1, r2, lsl #28
 498:	0000000c 	andeq	r0, r0, ip
 49c:	ffffffff 			; <UNDEFINED> instruction: 0xffffffff
 4a0:	7c020001 	stcvc	0, cr0, [r2], {1}
 4a4:	000d0c0e 	andeq	r0, sp, lr, lsl #24
 4a8:	0000000c 	andeq	r0, r0, ip
 4ac:	00000498 	muleq	r0, r8, r4
 4b0:	00009630 	andeq	r9, r0, r0, lsr r6
 4b4:	00000018 	andeq	r0, r0, r8, lsl r0
 4b8:	0000000c 	andeq	r0, r0, ip
 4bc:	00000498 	muleq	r0, r8, r4
 4c0:	00009648 	andeq	r9, r0, r8, asr #12
 4c4:	00000014 	andeq	r0, r0, r4, lsl r0
 4c8:	00000014 	andeq	r0, r0, r4, lsl r0
 4cc:	00000498 	muleq	r0, r8, r4
 4d0:	0000965c 	andeq	r9, r0, ip, asr r6
 4d4:	00000048 	andeq	r0, r0, r8, asr #32
 4d8:	83080e42 	movwhi	r0, #36418	; 0x8e42
 4dc:	00018e02 	andeq	r8, r1, r2, lsl #28
 4e0:	0000000c 	andeq	r0, r0, ip
 4e4:	ffffffff 			; <UNDEFINED> instruction: 0xffffffff
 4e8:	7c020001 	stcvc	0, cr0, [r2], {1}
 4ec:	000d0c0e 	andeq	r0, sp, lr, lsl #24
 4f0:	0000000c 	andeq	r0, r0, ip
 4f4:	000004e0 	andeq	r0, r0, r0, ror #9
 4f8:	000096a4 	andeq	r9, r0, r4, lsr #13
 4fc:	0000001c 	andeq	r0, r0, ip, lsl r0
 500:	00000014 	andeq	r0, r0, r4, lsl r0
 504:	000004e0 	andeq	r0, r0, r0, ror #9
 508:	000096c0 	andeq	r9, r0, r0, asr #13
 50c:	00000014 	andeq	r0, r0, r4, lsl r0
 510:	83080e42 	movwhi	r0, #36418	; 0x8e42
 514:	00018e02 	andeq	r8, r1, r2, lsl #28
 518:	00000014 	andeq	r0, r0, r4, lsl r0
 51c:	000004e0 	andeq	r0, r0, r0, ror #9
 520:	000096d4 	ldrdeq	r9, [r0], -r4
 524:	0000001c 	andeq	r0, r0, ip, lsl r0
 528:	84080e42 	strhi	r0, [r8], #-3650	; 0xe42
 52c:	00018e02 	andeq	r8, r1, r2, lsl #28
 530:	00000018 	andeq	r0, r0, r8, lsl r0
 534:	000004e0 	andeq	r0, r0, r0, ror #9
 538:	000096f0 	strdeq	r9, [r0], -r0
 53c:	00000024 	andeq	r0, r0, r4, lsr #32
 540:	83100e42 	tsthi	r0, #1056	; 0x420
 544:	85038404 	strhi	r8, [r3, #-1028]	; 0x404
 548:	00018e02 	andeq	r8, r1, r2, lsl #28
 54c:	00000014 	andeq	r0, r0, r4, lsl r0
 550:	000004e0 	andeq	r0, r0, r0, ror #9
 554:	00009714 	andeq	r9, r0, r4, lsl r7
 558:	00000014 	andeq	r0, r0, r4, lsl r0
 55c:	83080e42 	movwhi	r0, #36418	; 0x8e42
 560:	00018e02 	andeq	r8, r1, r2, lsl #28
 564:	00000014 	andeq	r0, r0, r4, lsl r0
 568:	000004e0 	andeq	r0, r0, r0, ror #9
 56c:	00009728 	andeq	r9, r0, r8, lsr #14
 570:	00000014 	andeq	r0, r0, r4, lsl r0
 574:	83080e42 	movwhi	r0, #36418	; 0x8e42
 578:	00018e02 	andeq	r8, r1, r2, lsl #28
 57c:	0000000c 	andeq	r0, r0, ip
 580:	ffffffff 			; <UNDEFINED> instruction: 0xffffffff
 584:	7c020001 	stcvc	0, cr0, [r2], {1}
 588:	000d0c0e 	andeq	r0, sp, lr, lsl #24
 58c:	00000018 	andeq	r0, r0, r8, lsl r0
 590:	0000057c 	andeq	r0, r0, ip, ror r5
 594:	000097a0 	andeq	r9, r0, r0, lsr #15
 598:	00000020 	andeq	r0, r0, r0, lsr #32
 59c:	84100e42 	ldrhi	r0, [r0], #-3650	; 0xe42
 5a0:	86038504 	strhi	r8, [r3], -r4, lsl #10
 5a4:	00018e02 	andeq	r8, r1, r2, lsl #28
 5a8:	00000014 	andeq	r0, r0, r4, lsl r0
 5ac:	0000057c 	andeq	r0, r0, ip, ror r5
 5b0:	000097c0 	andeq	r9, r0, r0, asr #15
 5b4:	000000b0 	strheq	r0, [r0], -r0	; <UNPREDICTABLE>
 5b8:	84080e42 	strhi	r0, [r8], #-3650	; 0xe42
 5bc:	00018e02 	andeq	r8, r1, r2, lsl #28
 5c0:	00000014 	andeq	r0, r0, r4, lsl r0
 5c4:	0000057c 	andeq	r0, r0, ip, ror r5
 5c8:	00009870 	andeq	r9, r0, r0, ror r8
 5cc:	00000018 	andeq	r0, r0, r8, lsl r0
 5d0:	84080e42 	strhi	r0, [r8], #-3650	; 0xe42
 5d4:	00018e02 	andeq	r8, r1, r2, lsl #28
 5d8:	00000014 	andeq	r0, r0, r4, lsl r0
 5dc:	0000057c 	andeq	r0, r0, ip, ror r5
 5e0:	00009888 	andeq	r9, r0, r8, lsl #17
 5e4:	00000020 	andeq	r0, r0, r0, lsr #32
 5e8:	84080e42 	strhi	r0, [r8], #-3650	; 0xe42
 5ec:	00018e02 	andeq	r8, r1, r2, lsl #28
 5f0:	00000014 	andeq	r0, r0, r4, lsl r0
 5f4:	0000057c 	andeq	r0, r0, ip, ror r5
 5f8:	000098a8 	andeq	r9, r0, r8, lsr #17
 5fc:	00000030 	andeq	r0, r0, r0, lsr r0
 600:	84080e42 	strhi	r0, [r8], #-3650	; 0xe42
 604:	00018e02 	andeq	r8, r1, r2, lsl #28
 608:	00000014 	andeq	r0, r0, r4, lsl r0
 60c:	0000057c 	andeq	r0, r0, ip, ror r5
 610:	000098d8 	ldrdeq	r9, [r0], -r8
 614:	00000030 	andeq	r0, r0, r0, lsr r0
 618:	84080e42 	strhi	r0, [r8], #-3650	; 0xe42
 61c:	00018e02 	andeq	r8, r1, r2, lsl #28
 620:	00000014 	andeq	r0, r0, r4, lsl r0
 624:	0000057c 	andeq	r0, r0, ip, ror r5
 628:	00009908 	andeq	r9, r0, r8, lsl #18
 62c:	00000010 	andeq	r0, r0, r0, lsl r0
 630:	84080e42 	strhi	r0, [r8], #-3650	; 0xe42
 634:	00018e02 	andeq	r8, r1, r2, lsl #28
 638:	0000000c 	andeq	r0, r0, ip
 63c:	ffffffff 			; <UNDEFINED> instruction: 0xffffffff
 640:	7c020001 	stcvc	0, cr0, [r2], {1}
 644:	000d0c0e 	andeq	r0, sp, lr, lsl #24
 648:	00000018 	andeq	r0, r0, r8, lsl r0
 64c:	00000638 	andeq	r0, r0, r8, lsr r6
 650:	00009918 	andeq	r9, r0, r8, lsl r9
 654:	00000068 	andeq	r0, r0, r8, rrx
 658:	84100e4a 	ldrhi	r0, [r0], #-3658	; 0xe4a
 65c:	86038504 	strhi	r8, [r3], -r4, lsl #10
 660:	00018e02 	andeq	r8, r1, r2, lsl #28
 664:	00000014 	andeq	r0, r0, r4, lsl r0
 668:	00000638 	andeq	r0, r0, r8, lsr r6
 66c:	00009980 	andeq	r9, r0, r0, lsl #19
 670:	00000010 	andeq	r0, r0, r0, lsl r0
 674:	84080e42 	strhi	r0, [r8], #-3650	; 0xe42
 678:	00018e02 	andeq	r8, r1, r2, lsl #28
 67c:	00000014 	andeq	r0, r0, r4, lsl r0
 680:	00000638 	andeq	r0, r0, r8, lsr r6
 684:	00009990 	muleq	r0, r0, r9
 688:	00000024 	andeq	r0, r0, r4, lsr #32
 68c:	84080e46 	strhi	r0, [r8], #-3654	; 0xe46
 690:	00018e02 	andeq	r8, r1, r2, lsl #28
 694:	00000014 	andeq	r0, r0, r4, lsl r0
 698:	00000638 	andeq	r0, r0, r8, lsr r6
 69c:	000099b4 			; <UNDEFINED> instruction: 0x000099b4
 6a0:	00000024 	andeq	r0, r0, r4, lsr #32
 6a4:	84080e46 	strhi	r0, [r8], #-3654	; 0xe46
 6a8:	00018e02 	andeq	r8, r1, r2, lsl #28
 6ac:	00000014 	andeq	r0, r0, r4, lsl r0
 6b0:	00000638 	andeq	r0, r0, r8, lsr r6
 6b4:	000099d8 	ldrdeq	r9, [r0], -r8
 6b8:	00000010 	andeq	r0, r0, r0, lsl r0
 6bc:	84080e42 	strhi	r0, [r8], #-3650	; 0xe42
 6c0:	00018e02 	andeq	r8, r1, r2, lsl #28
 6c4:	00000014 	andeq	r0, r0, r4, lsl r0
 6c8:	00000638 	andeq	r0, r0, r8, lsr r6
 6cc:	000099e8 	andeq	r9, r0, r8, ror #19
 6d0:	0000001c 	andeq	r0, r0, ip, lsl r0
 6d4:	84080e42 	strhi	r0, [r8], #-3650	; 0xe42
 6d8:	00018e02 	andeq	r8, r1, r2, lsl #28
 6dc:	00000018 	andeq	r0, r0, r8, lsl r0
 6e0:	00000638 	andeq	r0, r0, r8, lsr r6
 6e4:	00009a04 	andeq	r9, r0, r4, lsl #20
 6e8:	00000034 	andeq	r0, r0, r4, lsr r0
 6ec:	84080e46 	strhi	r0, [r8], #-3654	; 0xe46
 6f0:	4e018e02 	cdpmi	14, 0, cr8, cr1, cr2, {0}
 6f4:	cec4000e 	cdpgt	0, 12, cr0, cr4, cr14, {0}

Disassembly of section .debug_ranges:

00000000 <.debug_ranges>:
   0:	00009630 	andeq	r9, r0, r0, lsr r6
   4:	000096a4 	andeq	r9, r0, r4, lsr #13
	...
