
tests2.0/16-part2-test9.elf:     file format elf32-littlearm


Disassembly of section .text:

00008000 <__code_start__>:
    8000:	e3a00013 	mov	r0, #19
    8004:	e129f000 	msr	CPSR_fc, r0
    8008:	e3a01000 	mov	r1, #0
    800c:	ee073f95 	mcr	15, 0, r3, cr7, cr5, {4}
    8010:	e3a0d302 	mov	sp, #134217728	; 0x8000000
    8014:	e3a0b000 	mov	fp, #0
    8018:	eb000633 	bl	98ec <_cstart>
    801c:	eb00069b 	bl	9a90 <rpi_reboot>

00008020 <mode_get>:
    8020:	e52de004 	push	{lr}		; (str lr, [sp, #-4]!)
    8024:	e24dd00c 	sub	sp, sp, #12
    8028:	e200001f 	and	r0, r0, #31
    802c:	e3500012 	cmp	r0, #18
    8030:	13500010 	cmpne	r0, #16
    8034:	0a000006 	beq	8054 <mode_get+0x34>
    8038:	e3500017 	cmp	r0, #23
    803c:	13500013 	cmpne	r0, #19
    8040:	0a000005 	beq	805c <mode_get+0x3c>
    8044:	e350001f 	cmp	r0, #31
    8048:	1a000005 	bne	8064 <mode_get+0x44>
    804c:	e3a03001 	mov	r3, #1
    8050:	ea000004 	b	8068 <mode_get+0x48>
    8054:	e3a03001 	mov	r3, #1
    8058:	ea000002 	b	8068 <mode_get+0x48>
    805c:	e3a03001 	mov	r3, #1
    8060:	ea000000 	b	8068 <mode_get+0x48>
    8064:	e3a03000 	mov	r3, #0
    8068:	e3530000 	cmp	r3, #0
    806c:	1a000008 	bne	8094 <mode_get+0x74>
    8070:	eb000495 	bl	92cc <rpi_reset_putc>
    8074:	e59f3020 	ldr	r3, [pc, #32]	; 809c <mode_get+0x7c>
    8078:	e58d3000 	str	r3, [sp]
    807c:	e59f001c 	ldr	r0, [pc, #28]	; 80a0 <mode_get+0x80>
    8080:	e59f101c 	ldr	r1, [pc, #28]	; 80a4 <mode_get+0x84>
    8084:	e59f201c 	ldr	r2, [pc, #28]	; 80a8 <mode_get+0x88>
    8088:	e3a03011 	mov	r3, #17
    808c:	eb000473 	bl	9260 <printk>
    8090:	eb00060a 	bl	98c0 <clean_reboot>
    8094:	e28dd00c 	add	sp, sp, #12
    8098:	e49df004 	pop	{pc}		; (ldr pc, [sp], #4)
    809c:	00009e9c 	muleq	r0, ip, lr
    80a0:	00009e78 	andeq	r9, r0, r8, ror lr
    80a4:	00009e8c 	andeq	r9, r0, ip, lsl #29
    80a8:	0000a0ac 	andeq	sl, r0, ip, lsr #1

000080ac <cnt_A>:
    80ac:	e52de004 	push	{lr}		; (str lr, [sp, #-4]!)
    80b0:	e24dd00c 	sub	sp, sp, #12
    80b4:	e59f0190 	ldr	r0, [pc, #400]	; 824c <cnt_A+0x1a0>
    80b8:	eb00029e 	bl	8b38 <sys_try_lock_asm>
    80bc:	e3500000 	cmp	r0, #0
    80c0:	1a000006 	bne	80e0 <cnt_A+0x34>
    80c4:	eb000480 	bl	92cc <rpi_reset_putc>
    80c8:	e59f0180 	ldr	r0, [pc, #384]	; 8250 <cnt_A+0x1a4>
    80cc:	e59f1180 	ldr	r1, [pc, #384]	; 8254 <cnt_A+0x1a8>
    80d0:	e59f2180 	ldr	r2, [pc, #384]	; 8258 <cnt_A+0x1ac>
    80d4:	e3a0300d 	mov	r3, #13
    80d8:	eb000460 	bl	9260 <printk>
    80dc:	eb0005f7 	bl	98c0 <clean_reboot>
    80e0:	e59f3174 	ldr	r3, [pc, #372]	; 825c <cnt_A+0x1b0>
    80e4:	e5932000 	ldr	r2, [r3]
    80e8:	e2822001 	add	r2, r2, #1
    80ec:	e5832000 	str	r2, [r3]
    80f0:	e59f3154 	ldr	r3, [pc, #340]	; 824c <cnt_A+0x1a0>
    80f4:	e5933000 	ldr	r3, [r3]
    80f8:	e3530001 	cmp	r3, #1
    80fc:	0a000008 	beq	8124 <cnt_A+0x78>
    8100:	eb000471 	bl	92cc <rpi_reset_putc>
    8104:	e59f3154 	ldr	r3, [pc, #340]	; 8260 <cnt_A+0x1b4>
    8108:	e58d3000 	str	r3, [sp]
    810c:	e59f0150 	ldr	r0, [pc, #336]	; 8264 <cnt_A+0x1b8>
    8110:	e59f1150 	ldr	r1, [pc, #336]	; 8268 <cnt_A+0x1bc>
    8114:	e59f2150 	ldr	r2, [pc, #336]	; 826c <cnt_A+0x1c0>
    8118:	e3a03018 	mov	r3, #24
    811c:	eb00044f 	bl	9260 <printk>
    8120:	eb0005e6 	bl	98c0 <clean_reboot>
    8124:	e3a02000 	mov	r2, #0
    8128:	e59f311c 	ldr	r3, [pc, #284]	; 824c <cnt_A+0x1a0>
    812c:	e5832000 	str	r2, [r3]
    8130:	e10f1000 	mrs	r1, CPSR
    8134:	e201101f 	and	r1, r1, #31
    8138:	e3510012 	cmp	r1, #18
    813c:	13510010 	cmpne	r1, #16
    8140:	0a000006 	beq	8160 <cnt_A+0xb4>
    8144:	e3510017 	cmp	r1, #23
    8148:	13510013 	cmpne	r1, #19
    814c:	0a000005 	beq	8168 <cnt_A+0xbc>
    8150:	e351001f 	cmp	r1, #31
    8154:	1a000005 	bne	8170 <cnt_A+0xc4>
    8158:	e3a03001 	mov	r3, #1
    815c:	ea000004 	b	8174 <cnt_A+0xc8>
    8160:	e3a03001 	mov	r3, #1
    8164:	ea000002 	b	8174 <cnt_A+0xc8>
    8168:	e3a03001 	mov	r3, #1
    816c:	ea000000 	b	8174 <cnt_A+0xc8>
    8170:	e3a03000 	mov	r3, #0
    8174:	e3530000 	cmp	r3, #0
    8178:	1a000008 	bne	81a0 <cnt_A+0xf4>
    817c:	eb000452 	bl	92cc <rpi_reset_putc>
    8180:	e59f30e8 	ldr	r3, [pc, #232]	; 8270 <cnt_A+0x1c4>
    8184:	e58d3000 	str	r3, [sp]
    8188:	e59f00d4 	ldr	r0, [pc, #212]	; 8264 <cnt_A+0x1b8>
    818c:	e59f10e0 	ldr	r1, [pc, #224]	; 8274 <cnt_A+0x1c8>
    8190:	e59f20e0 	ldr	r2, [pc, #224]	; 8278 <cnt_A+0x1cc>
    8194:	e3a03011 	mov	r3, #17
    8198:	eb000430 	bl	9260 <printk>
    819c:	eb0005c7 	bl	98c0 <clean_reboot>
    81a0:	e59f00d4 	ldr	r0, [pc, #212]	; 827c <cnt_A+0x1d0>
    81a4:	eb00042d 	bl	9260 <printk>
    81a8:	e10f3000 	mrs	r3, CPSR
    81ac:	e203301f 	and	r3, r3, #31
    81b0:	e3530012 	cmp	r3, #18
    81b4:	13530010 	cmpne	r3, #16
    81b8:	0a000006 	beq	81d8 <cnt_A+0x12c>
    81bc:	e3530017 	cmp	r3, #23
    81c0:	13530013 	cmpne	r3, #19
    81c4:	0a000005 	beq	81e0 <cnt_A+0x134>
    81c8:	e353001f 	cmp	r3, #31
    81cc:	1a000005 	bne	81e8 <cnt_A+0x13c>
    81d0:	e3a02001 	mov	r2, #1
    81d4:	ea000004 	b	81ec <cnt_A+0x140>
    81d8:	e3a02001 	mov	r2, #1
    81dc:	ea000002 	b	81ec <cnt_A+0x140>
    81e0:	e3a02001 	mov	r2, #1
    81e4:	ea000000 	b	81ec <cnt_A+0x140>
    81e8:	e3a02000 	mov	r2, #0
    81ec:	e3520000 	cmp	r2, #0
    81f0:	1a000008 	bne	8218 <cnt_A+0x16c>
    81f4:	eb000434 	bl	92cc <rpi_reset_putc>
    81f8:	e59f3070 	ldr	r3, [pc, #112]	; 8270 <cnt_A+0x1c4>
    81fc:	e58d3000 	str	r3, [sp]
    8200:	e59f005c 	ldr	r0, [pc, #92]	; 8264 <cnt_A+0x1b8>
    8204:	e59f1068 	ldr	r1, [pc, #104]	; 8274 <cnt_A+0x1c8>
    8208:	e59f2068 	ldr	r2, [pc, #104]	; 8278 <cnt_A+0x1cc>
    820c:	e3a03011 	mov	r3, #17
    8210:	eb000412 	bl	9260 <printk>
    8214:	eb0005a9 	bl	98c0 <clean_reboot>
    8218:	e3530010 	cmp	r3, #16
    821c:	0a000008 	beq	8244 <cnt_A+0x198>
    8220:	eb000429 	bl	92cc <rpi_reset_putc>
    8224:	e59f3054 	ldr	r3, [pc, #84]	; 8280 <cnt_A+0x1d4>
    8228:	e58d3000 	str	r3, [sp]
    822c:	e59f0030 	ldr	r0, [pc, #48]	; 8264 <cnt_A+0x1b8>
    8230:	e59f101c 	ldr	r1, [pc, #28]	; 8254 <cnt_A+0x1a8>
    8234:	e59f201c 	ldr	r2, [pc, #28]	; 8258 <cnt_A+0x1ac>
    8238:	e3a03012 	mov	r3, #18
    823c:	eb000407 	bl	9260 <printk>
    8240:	eb00059e 	bl	98c0 <clean_reboot>
    8244:	e28dd00c 	add	sp, sp, #12
    8248:	e49df004 	pop	{pc}		; (ldr pc, [sp], #4)
    824c:	0000a6f0 	strdeq	sl, [r0], -r0
    8250:	00009eb0 			; <UNDEFINED> instruction: 0x00009eb0
    8254:	00009ecc 	andeq	r9, r0, ip, asr #29
    8258:	0000a0a4 	andeq	sl, r0, r4, lsr #1
    825c:	0000a6ec 	andeq	sl, r0, ip, ror #13
    8260:	00009ef8 	strdeq	r9, [r0], -r8
    8264:	00009e78 	andeq	r9, r0, r8, ror lr
    8268:	00009ee8 	andeq	r9, r0, r8, ror #29
    826c:	0000a098 	muleq	r0, r8, r0
    8270:	00009e9c 	muleq	r0, ip, lr
    8274:	00009e8c 	andeq	r9, r0, ip, lsl #29
    8278:	0000a0ac 	andeq	sl, r0, ip, lsr #1
    827c:	00009f00 	andeq	r9, r0, r0, lsl #30
    8280:	00009f04 	andeq	r9, r0, r4, lsl #30

00008284 <cnt_B>:
    8284:	e52de004 	push	{lr}		; (str lr, [sp, #-4]!)
    8288:	e24dd00c 	sub	sp, sp, #12
    828c:	e59f0060 	ldr	r0, [pc, #96]	; 82f4 <cnt_B+0x70>
    8290:	eb000228 	bl	8b38 <sys_try_lock_asm>
    8294:	e3500000 	cmp	r0, #0
    8298:	0a000013 	beq	82ec <cnt_B+0x68>
    829c:	e59f3054 	ldr	r3, [pc, #84]	; 82f8 <cnt_B+0x74>
    82a0:	e5932000 	ldr	r2, [r3]
    82a4:	e2822001 	add	r2, r2, #1
    82a8:	e5832000 	str	r2, [r3]
    82ac:	e59f3040 	ldr	r3, [pc, #64]	; 82f4 <cnt_B+0x70>
    82b0:	e5930000 	ldr	r0, [r3]
    82b4:	e3500001 	cmp	r0, #1
    82b8:	0a000008 	beq	82e0 <cnt_B+0x5c>
    82bc:	eb000402 	bl	92cc <rpi_reset_putc>
    82c0:	e59f3034 	ldr	r3, [pc, #52]	; 82fc <cnt_B+0x78>
    82c4:	e58d3000 	str	r3, [sp]
    82c8:	e59f0030 	ldr	r0, [pc, #48]	; 8300 <cnt_B+0x7c>
    82cc:	e59f1030 	ldr	r1, [pc, #48]	; 8304 <cnt_B+0x80>
    82d0:	e59f2030 	ldr	r2, [pc, #48]	; 8308 <cnt_B+0x84>
    82d4:	e3a03018 	mov	r3, #24
    82d8:	eb0003e0 	bl	9260 <printk>
    82dc:	eb000577 	bl	98c0 <clean_reboot>
    82e0:	e3a02000 	mov	r2, #0
    82e4:	e59f3008 	ldr	r3, [pc, #8]	; 82f4 <cnt_B+0x70>
    82e8:	e5832000 	str	r2, [r3]
    82ec:	e28dd00c 	add	sp, sp, #12
    82f0:	e49df004 	pop	{pc}		; (ldr pc, [sp], #4)
    82f4:	0000a6f0 	strdeq	sl, [r0], -r0
    82f8:	0000a6ec 	andeq	sl, r0, ip, ror #13
    82fc:	00009ef8 	strdeq	r9, [r0], -r8
    8300:	00009e78 	andeq	r9, r0, r8, ror lr
    8304:	00009ee8 	andeq	r9, r0, r8, ror #29
    8308:	0000a098 	muleq	r0, r8, r0

0000830c <cnt_init>:
    830c:	e3a03000 	mov	r3, #0
    8310:	e59f200c 	ldr	r2, [pc, #12]	; 8324 <cnt_init+0x18>
    8314:	e5823000 	str	r3, [r2]
    8318:	e59f2008 	ldr	r2, [pc, #8]	; 8328 <cnt_init+0x1c>
    831c:	e5823000 	str	r3, [r2]
    8320:	e12fff1e 	bx	lr
    8324:	0000a6ec 	andeq	sl, r0, ip, ror #13
    8328:	0000a6f0 	strdeq	sl, [r0], -r0

0000832c <cnt_check>:
    832c:	e52de004 	push	{lr}		; (str lr, [sp, #-4]!)
    8330:	e24dd00c 	sub	sp, sp, #12
    8334:	e59f3048 	ldr	r3, [pc, #72]	; 8384 <cnt_check+0x58>
    8338:	e5933000 	ldr	r3, [r3]
    833c:	e3530002 	cmp	r3, #2
    8340:	0a000008 	beq	8368 <cnt_check+0x3c>
    8344:	eb0003e0 	bl	92cc <rpi_reset_putc>
    8348:	e59f3038 	ldr	r3, [pc, #56]	; 8388 <cnt_check+0x5c>
    834c:	e58d3000 	str	r3, [sp]
    8350:	e59f0034 	ldr	r0, [pc, #52]	; 838c <cnt_check+0x60>
    8354:	e59f1034 	ldr	r1, [pc, #52]	; 8390 <cnt_check+0x64>
    8358:	e59f2034 	ldr	r2, [pc, #52]	; 8394 <cnt_check+0x68>
    835c:	e3a03023 	mov	r3, #35	; 0x23
    8360:	eb0003be 	bl	9260 <printk>
    8364:	eb000555 	bl	98c0 <clean_reboot>
    8368:	e59f3014 	ldr	r3, [pc, #20]	; 8384 <cnt_check+0x58>
    836c:	e5930000 	ldr	r0, [r3]
    8370:	e3500002 	cmp	r0, #2
    8374:	13a00000 	movne	r0, #0
    8378:	03a00001 	moveq	r0, #1
    837c:	e28dd00c 	add	sp, sp, #12
    8380:	e49df004 	pop	{pc}		; (ldr pc, [sp], #4)
    8384:	0000a6ec 	andeq	sl, r0, ip, ror #13
    8388:	00009f28 	andeq	r9, r0, r8, lsr #30
    838c:	00009e78 	andeq	r9, r0, r8, ror lr
    8390:	00009ecc 	andeq	r9, r0, ip, asr #29
    8394:	0000a08c 	andeq	sl, r0, ip, lsl #1

00008398 <cnt_mk_checker>:
    8398:	e1a03000 	mov	r3, r0
    839c:	e3a02000 	mov	r2, #0
    83a0:	e4832004 	str	r2, [r3], #4
    83a4:	e2833008 	add	r3, r3, #8
    83a8:	e4832004 	str	r2, [r3], #4
    83ac:	e4832004 	str	r2, [r3], #4
    83b0:	e4832004 	str	r2, [r3], #4
    83b4:	e4832004 	str	r2, [r3], #4
    83b8:	e4832004 	str	r2, [r3], #4
    83bc:	e4832004 	str	r2, [r3], #4
    83c0:	e4832004 	str	r2, [r3], #4
    83c4:	e4832004 	str	r2, [r3], #4
    83c8:	e4832004 	str	r2, [r3], #4
    83cc:	e4832004 	str	r2, [r3], #4
    83d0:	e5832000 	str	r2, [r3]
    83d4:	e59f301c 	ldr	r3, [pc, #28]	; 83f8 <cnt_mk_checker+0x60>
    83d8:	e5803004 	str	r3, [r0, #4]
    83dc:	e59f3018 	ldr	r3, [pc, #24]	; 83fc <cnt_mk_checker+0x64>
    83e0:	e5803008 	str	r3, [r0, #8]
    83e4:	e59f3014 	ldr	r3, [pc, #20]	; 8400 <cnt_mk_checker+0x68>
    83e8:	e580300c 	str	r3, [r0, #12]
    83ec:	e59f3010 	ldr	r3, [pc, #16]	; 8404 <cnt_mk_checker+0x6c>
    83f0:	e5803010 	str	r3, [r0, #16]
    83f4:	e12fff1e 	bx	lr
    83f8:	000080ac 	andeq	r8, r0, ip, lsr #1
    83fc:	00008284 	andeq	r8, r0, r4, lsl #5
    8400:	0000830c 	andeq	r8, r0, ip, lsl #6
    8404:	0000832c 	andeq	r8, r0, ip, lsr #6

00008408 <notmain>:
    8408:	e92d4070 	push	{r4, r5, r6, lr}
    840c:	e24dd040 	sub	sp, sp, #64	; 0x40
    8410:	eb000522 	bl	98a0 <enable_cache>
    8414:	eb000577 	bl	99f8 <int_init>
    8418:	e10f4000 	mrs	r4, CPSR
    841c:	e1a00004 	mov	r0, r4
    8420:	ebfffefe 	bl	8020 <mode_get>
    8424:	e2400010 	sub	r0, r0, #16
    8428:	e350000f 	cmp	r0, #15
    842c:	979ff100 	ldrls	pc, [pc, r0, lsl #2]
    8430:	ea000019 	b	849c <notmain+0x94>
    8434:	000084bc 			; <UNDEFINED> instruction: 0x000084bc
    8438:	000084c4 	andeq	r8, r0, r4, asr #9
    843c:	00008474 	andeq	r8, r0, r4, ror r4
    8440:	0000847c 	andeq	r8, r0, ip, ror r4
    8444:	0000849c 	muleq	r0, ip, r4
    8448:	0000849c 	muleq	r0, ip, r4
    844c:	0000849c 	muleq	r0, ip, r4
    8450:	00008484 	andeq	r8, r0, r4, lsl #9
    8454:	0000849c 	muleq	r0, ip, r4
    8458:	0000849c 	muleq	r0, ip, r4
    845c:	0000849c 	muleq	r0, ip, r4
    8460:	0000848c 	andeq	r8, r0, ip, lsl #9
    8464:	0000849c 	muleq	r0, ip, r4
    8468:	0000849c 	muleq	r0, ip, r4
    846c:	0000849c 	muleq	r0, ip, r4
    8470:	00008494 	muleq	r0, r4, r4
    8474:	e59f11d0 	ldr	r1, [pc, #464]	; 864c <notmain+0x244>
    8478:	ea000012 	b	84c8 <notmain+0xc0>
    847c:	e59f11cc 	ldr	r1, [pc, #460]	; 8650 <notmain+0x248>
    8480:	ea000010 	b	84c8 <notmain+0xc0>
    8484:	e59f11c8 	ldr	r1, [pc, #456]	; 8654 <notmain+0x24c>
    8488:	ea00000e 	b	84c8 <notmain+0xc0>
    848c:	e59f11c4 	ldr	r1, [pc, #452]	; 8658 <notmain+0x250>
    8490:	ea00000c 	b	84c8 <notmain+0xc0>
    8494:	e59f11c0 	ldr	r1, [pc, #448]	; 865c <notmain+0x254>
    8498:	ea00000a 	b	84c8 <notmain+0xc0>
    849c:	eb00038a 	bl	92cc <rpi_reset_putc>
    84a0:	e58d4000 	str	r4, [sp]
    84a4:	e59f01b4 	ldr	r0, [pc, #436]	; 8660 <notmain+0x258>
    84a8:	e59f11b4 	ldr	r1, [pc, #436]	; 8664 <notmain+0x25c>
    84ac:	e59f21b4 	ldr	r2, [pc, #436]	; 8668 <notmain+0x260>
    84b0:	e3a03021 	mov	r3, #33	; 0x21
    84b4:	eb000369 	bl	9260 <printk>
    84b8:	eb000500 	bl	98c0 <clean_reboot>
    84bc:	e59f11a8 	ldr	r1, [pc, #424]	; 866c <notmain+0x264>
    84c0:	ea000000 	b	84c8 <notmain+0xc0>
    84c4:	e59f11a4 	ldr	r1, [pc, #420]	; 8670 <notmain+0x268>
    84c8:	e59f01a4 	ldr	r0, [pc, #420]	; 8674 <notmain+0x26c>
    84cc:	eb000363 	bl	9260 <printk>
    84d0:	e59f01a0 	ldr	r0, [pc, #416]	; 8678 <notmain+0x270>
    84d4:	e3a03000 	mov	r3, #0
    84d8:	e5803000 	str	r3, [r0]
    84dc:	eb000195 	bl	8b38 <sys_try_lock_asm>
    84e0:	e3500000 	cmp	r0, #0
    84e4:	1a00003f 	bne	85e8 <notmain+0x1e0>
    84e8:	eb000377 	bl	92cc <rpi_reset_putc>
    84ec:	e59f3188 	ldr	r3, [pc, #392]	; 867c <notmain+0x274>
    84f0:	e58d3000 	str	r3, [sp]
    84f4:	e59f0184 	ldr	r0, [pc, #388]	; 8680 <notmain+0x278>
    84f8:	e59f1184 	ldr	r1, [pc, #388]	; 8684 <notmain+0x27c>
    84fc:	e59f2184 	ldr	r2, [pc, #388]	; 8688 <notmain+0x280>
    8500:	e3a0303a 	mov	r3, #58	; 0x3a
    8504:	eb000355 	bl	9260 <printk>
    8508:	eb0004ec 	bl	98c0 <clean_reboot>
    850c:	e5846000 	str	r6, [r4]
    8510:	e1a00004 	mov	r0, r4
    8514:	eb000187 	bl	8b38 <sys_try_lock_asm>
    8518:	e3500000 	cmp	r0, #0
    851c:	1a000008 	bne	8544 <notmain+0x13c>
    8520:	eb000369 	bl	92cc <rpi_reset_putc>
    8524:	e59f3150 	ldr	r3, [pc, #336]	; 867c <notmain+0x274>
    8528:	e58d3000 	str	r3, [sp]
    852c:	e59f014c 	ldr	r0, [pc, #332]	; 8680 <notmain+0x278>
    8530:	e59f114c 	ldr	r1, [pc, #332]	; 8684 <notmain+0x27c>
    8534:	e59f214c 	ldr	r2, [pc, #332]	; 8688 <notmain+0x280>
    8538:	e3a0303d 	mov	r3, #61	; 0x3d
    853c:	eb000347 	bl	9260 <printk>
    8540:	eb0004de 	bl	98c0 <clean_reboot>
    8544:	e1a00004 	mov	r0, r4
    8548:	eb00017a 	bl	8b38 <sys_try_lock_asm>
    854c:	e3500000 	cmp	r0, #0
    8550:	0a000008 	beq	8578 <notmain+0x170>
    8554:	eb00035c 	bl	92cc <rpi_reset_putc>
    8558:	e59f312c 	ldr	r3, [pc, #300]	; 868c <notmain+0x284>
    855c:	e58d3000 	str	r3, [sp]
    8560:	e59f0118 	ldr	r0, [pc, #280]	; 8680 <notmain+0x278>
    8564:	e59f1118 	ldr	r1, [pc, #280]	; 8684 <notmain+0x27c>
    8568:	e59f2118 	ldr	r2, [pc, #280]	; 8688 <notmain+0x280>
    856c:	e3a0303e 	mov	r3, #62	; 0x3e
    8570:	eb00033a 	bl	9260 <printk>
    8574:	eb0004d1 	bl	98c0 <clean_reboot>
    8578:	e5943000 	ldr	r3, [r4]
    857c:	e3530001 	cmp	r3, #1
    8580:	0a000008 	beq	85a8 <notmain+0x1a0>
    8584:	eb000350 	bl	92cc <rpi_reset_putc>
    8588:	e59f3100 	ldr	r3, [pc, #256]	; 8690 <notmain+0x288>
    858c:	e58d3000 	str	r3, [sp]
    8590:	e59f00e8 	ldr	r0, [pc, #232]	; 8680 <notmain+0x278>
    8594:	e59f10f8 	ldr	r1, [pc, #248]	; 8694 <notmain+0x28c>
    8598:	e59f20f8 	ldr	r2, [pc, #248]	; 8698 <notmain+0x290>
    859c:	e3a03018 	mov	r3, #24
    85a0:	eb00032e 	bl	9260 <printk>
    85a4:	eb0004c5 	bl	98c0 <clean_reboot>
    85a8:	e5846000 	str	r6, [r4]
    85ac:	e1a00004 	mov	r0, r4
    85b0:	eb000160 	bl	8b38 <sys_try_lock_asm>
    85b4:	e3500000 	cmp	r0, #0
    85b8:	1a000008 	bne	85e0 <notmain+0x1d8>
    85bc:	eb000342 	bl	92cc <rpi_reset_putc>
    85c0:	e59f30b4 	ldr	r3, [pc, #180]	; 867c <notmain+0x274>
    85c4:	e58d3000 	str	r3, [sp]
    85c8:	e59f00b0 	ldr	r0, [pc, #176]	; 8680 <notmain+0x278>
    85cc:	e59f10b0 	ldr	r1, [pc, #176]	; 8684 <notmain+0x27c>
    85d0:	e59f20b0 	ldr	r2, [pc, #176]	; 8688 <notmain+0x280>
    85d4:	e3a03040 	mov	r3, #64	; 0x40
    85d8:	eb000320 	bl	9260 <printk>
    85dc:	eb0004b7 	bl	98c0 <clean_reboot>
    85e0:	e2855001 	add	r5, r5, #1
    85e4:	ea000002 	b	85f4 <notmain+0x1ec>
    85e8:	e3a05000 	mov	r5, #0
    85ec:	e59f4084 	ldr	r4, [pc, #132]	; 8678 <notmain+0x270>
    85f0:	e1a06005 	mov	r6, r5
    85f4:	e3550063 	cmp	r5, #99	; 0x63
    85f8:	daffffc3 	ble	850c <notmain+0x104>
    85fc:	e28d0008 	add	r0, sp, #8
    8600:	ebffff64 	bl	8398 <cnt_mk_checker>
    8604:	e28d0008 	add	r0, sp, #8
    8608:	eb000301 	bl	9214 <check>
    860c:	e3500000 	cmp	r0, #0
    8610:	1a000006 	bne	8630 <notmain+0x228>
    8614:	eb00032c 	bl	92cc <rpi_reset_putc>
    8618:	e59f007c 	ldr	r0, [pc, #124]	; 869c <notmain+0x294>
    861c:	e59f1060 	ldr	r1, [pc, #96]	; 8684 <notmain+0x27c>
    8620:	e59f2060 	ldr	r2, [pc, #96]	; 8688 <notmain+0x280>
    8624:	e3a03046 	mov	r3, #70	; 0x46
    8628:	eb00030c 	bl	9260 <printk>
    862c:	eb0004a3 	bl	98c0 <clean_reboot>
    8630:	e59f0068 	ldr	r0, [pc, #104]	; 86a0 <notmain+0x298>
    8634:	eb000309 	bl	9260 <printk>
    8638:	e59f0064 	ldr	r0, [pc, #100]	; 86a4 <notmain+0x29c>
    863c:	e59d1030 	ldr	r1, [sp, #48]	; 0x30
    8640:	e59d2034 	ldr	r2, [sp, #52]	; 0x34
    8644:	eb000305 	bl	9260 <printk>
    8648:	eb00049c 	bl	98c0 <clean_reboot>
    864c:	00009f48 	andeq	r9, r0, r8, asr #30
    8650:	00009f54 	andeq	r9, r0, r4, asr pc
    8654:	00009f60 	andeq	r9, r0, r0, ror #30
    8658:	00009f6c 	andeq	r9, r0, ip, ror #30
    865c:	00009f78 	andeq	r9, r0, r8, ror pc
    8660:	00009f84 	andeq	r9, r0, r4, lsl #31
    8664:	00009e8c 	andeq	r9, r0, ip, lsl #29
    8668:	0000a0cc 	andeq	sl, r0, ip, asr #1
    866c:	00009f30 	andeq	r9, r0, r0, lsr pc
    8670:	00009f3c 	andeq	r9, r0, ip, lsr pc
    8674:	00009fa8 	andeq	r9, r0, r8, lsr #31
    8678:	0000a6f0 	strdeq	sl, [r0], -r0
    867c:	00009fb4 			; <UNDEFINED> instruction: 0x00009fb4
    8680:	00009e78 	andeq	r9, r0, r8, ror lr
    8684:	00009ecc 	andeq	r9, r0, ip, asr #29
    8688:	0000a0c4 	andeq	sl, r0, r4, asr #1
    868c:	00009fc8 	andeq	r9, r0, r8, asr #31
    8690:	00009ef8 	strdeq	r9, [r0], -r8
    8694:	00009ee8 	andeq	r9, r0, r8, ror #29
    8698:	0000a098 	muleq	r0, r8, r0
    869c:	00009fdc 	ldrdeq	r9, [r0], -ip
    86a0:	0000a00c 	andeq	sl, r0, ip
    86a4:	0000a018 	andeq	sl, r0, r8, lsl r0

000086a8 <watchpt_set0>:
    86a8:	e52de004 	push	{lr}		; (str lr, [sp, #-4]!)
    86ac:	e24dd00c 	sub	sp, sp, #12
    86b0:	ee103ef0 	mrc	14, 0, r3, cr0, cr0, {7}
    86b4:	e3c33001 	bic	r3, r3, #1
    86b8:	ee003ef0 	mcr	14, 0, r3, cr0, cr0, {7}
    86bc:	ee102ef0 	mrc	14, 0, r2, cr0, cr0, {7}
    86c0:	e1530002 	cmp	r3, r2
    86c4:	0a000008 	beq	86ec <watchpt_set0+0x44>
    86c8:	eb0002ff 	bl	92cc <rpi_reset_putc>
    86cc:	e59f306c 	ldr	r3, [pc, #108]	; 8740 <watchpt_set0+0x98>
    86d0:	e58d3000 	str	r3, [sp]
    86d4:	e59f0068 	ldr	r0, [pc, #104]	; 8744 <watchpt_set0+0x9c>
    86d8:	e59f1068 	ldr	r1, [pc, #104]	; 8748 <watchpt_set0+0xa0>
    86dc:	e59f2068 	ldr	r2, [pc, #104]	; 874c <watchpt_set0+0xa4>
    86e0:	e3a03041 	mov	r3, #65	; 0x41
    86e4:	eb0002dd 	bl	9260 <printk>
    86e8:	eb000474 	bl	98c0 <clean_reboot>
    86ec:	ee000ed0 	mcr	14, 0, r0, cr0, cr0, {6}
    86f0:	e59f3058 	ldr	r3, [pc, #88]	; 8750 <watchpt_set0+0xa8>
    86f4:	ee003ef0 	mcr	14, 0, r3, cr0, cr0, {7}
    86f8:	ee102ef0 	mrc	14, 0, r2, cr0, cr0, {7}
    86fc:	e1520003 	cmp	r2, r3
    8700:	0a000008 	beq	8728 <watchpt_set0+0x80>
    8704:	eb0002f0 	bl	92cc <rpi_reset_putc>
    8708:	e59f3030 	ldr	r3, [pc, #48]	; 8740 <watchpt_set0+0x98>
    870c:	e58d3000 	str	r3, [sp]
    8710:	e59f002c 	ldr	r0, [pc, #44]	; 8744 <watchpt_set0+0x9c>
    8714:	e59f102c 	ldr	r1, [pc, #44]	; 8748 <watchpt_set0+0xa0>
    8718:	e59f202c 	ldr	r2, [pc, #44]	; 874c <watchpt_set0+0xa4>
    871c:	e3a03052 	mov	r3, #82	; 0x52
    8720:	eb0002ce 	bl	9260 <printk>
    8724:	eb000465 	bl	98c0 <clean_reboot>
    8728:	e3a03000 	mov	r3, #0
    872c:	ee073f95 	mcr	15, 0, r3, cr7, cr5, {4}
    8730:	e59f301c 	ldr	r3, [pc, #28]	; 8754 <watchpt_set0+0xac>
    8734:	e5831000 	str	r1, [r3]
    8738:	e28dd00c 	add	sp, sp, #12
    873c:	e49df004 	pop	{pc}		; (ldr pc, [sp], #4)
    8740:	0000a0e8 	andeq	sl, r0, r8, ror #1
    8744:	00009e78 	andeq	r9, r0, r8, ror lr
    8748:	0000a0d8 	ldrdeq	sl, [r0], -r8
    874c:	0000a200 	andeq	sl, r0, r0, lsl #4
    8750:	000001ff 	strdeq	r0, [r0], -pc	; <UNPREDICTABLE>
    8754:	0000a6f4 	strdeq	sl, [r0], -r4

00008758 <data_abort_vector>:
    8758:	e52de004 	push	{lr}		; (str lr, [sp, #-4]!)
    875c:	e24dd00c 	sub	sp, sp, #12
    8760:	e1a01000 	mov	r1, r0
    8764:	ee153f10 	mrc	15, 0, r3, cr5, cr0, {0}
    8768:	ee153f10 	mrc	15, 0, r3, cr5, cr0, {0}
    876c:	e203300f 	and	r3, r3, #15
    8770:	e3530002 	cmp	r3, #2
    8774:	0a000006 	beq	8794 <data_abort_vector+0x3c>
    8778:	eb0002d3 	bl	92cc <rpi_reset_putc>
    877c:	e59f008c 	ldr	r0, [pc, #140]	; 8810 <data_abort_vector+0xb8>
    8780:	e59f108c 	ldr	r1, [pc, #140]	; 8814 <data_abort_vector+0xbc>
    8784:	e59f208c 	ldr	r2, [pc, #140]	; 8818 <data_abort_vector+0xc0>
    8788:	e3a03079 	mov	r3, #121	; 0x79
    878c:	eb0002b3 	bl	9260 <printk>
    8790:	eb00044a 	bl	98c0 <clean_reboot>
    8794:	ee103e16 	mrc	14, 0, r3, cr0, cr6, {0}
    8798:	e2433004 	sub	r3, r3, #4
    879c:	e1530000 	cmp	r3, r0
    87a0:	0a000008 	beq	87c8 <data_abort_vector+0x70>
    87a4:	eb0002c8 	bl	92cc <rpi_reset_putc>
    87a8:	e59f306c 	ldr	r3, [pc, #108]	; 881c <data_abort_vector+0xc4>
    87ac:	e58d3000 	str	r3, [sp]
    87b0:	e59f0068 	ldr	r0, [pc, #104]	; 8820 <data_abort_vector+0xc8>
    87b4:	e59f1068 	ldr	r1, [pc, #104]	; 8824 <data_abort_vector+0xcc>
    87b8:	e59f2068 	ldr	r2, [pc, #104]	; 8828 <data_abort_vector+0xd0>
    87bc:	e3a03067 	mov	r3, #103	; 0x67
    87c0:	eb0002a6 	bl	9260 <printk>
    87c4:	eb00043d 	bl	98c0 <clean_reboot>
    87c8:	e59f305c 	ldr	r3, [pc, #92]	; 882c <data_abort_vector+0xd4>
    87cc:	e5933000 	ldr	r3, [r3]
    87d0:	e3530000 	cmp	r3, #0
    87d4:	1a000008 	bne	87fc <data_abort_vector+0xa4>
    87d8:	eb0002bb 	bl	92cc <rpi_reset_putc>
    87dc:	e59f304c 	ldr	r3, [pc, #76]	; 8830 <data_abort_vector+0xd8>
    87e0:	e58d3000 	str	r3, [sp]
    87e4:	e59f0034 	ldr	r0, [pc, #52]	; 8820 <data_abort_vector+0xc8>
    87e8:	e59f1034 	ldr	r1, [pc, #52]	; 8824 <data_abort_vector+0xcc>
    87ec:	e59f2034 	ldr	r2, [pc, #52]	; 8828 <data_abort_vector+0xd0>
    87f0:	e3a03069 	mov	r3, #105	; 0x69
    87f4:	eb000299 	bl	9260 <printk>
    87f8:	eb000430 	bl	98c0 <clean_reboot>
    87fc:	ee162f10 	mrc	15, 0, r2, cr6, cr0, {0}
    8800:	e3a00000 	mov	r0, #0
    8804:	e12fff33 	blx	r3
    8808:	e28dd00c 	add	sp, sp, #12
    880c:	e49df004 	pop	{pc}		; (ldr pc, [sp], #4)
    8810:	0000a100 	andeq	sl, r0, r0, lsl #2
    8814:	0000a138 	andeq	sl, r0, r8, lsr r1
    8818:	0000a224 	andeq	sl, r0, r4, lsr #4
    881c:	0000a148 	andeq	sl, r0, r8, asr #2
    8820:	00009e78 	andeq	r9, r0, r8, ror lr
    8824:	0000a0d8 	ldrdeq	sl, [r0], -r8
    8828:	0000a210 	andeq	sl, r0, r0, lsl r2
    882c:	0000a6f4 	strdeq	sl, [r0], -r4
    8830:	0000a15c 	andeq	sl, r0, ip, asr r1

00008834 <cp14_enable>:
    8834:	e92d4008 	push	{r3, lr}
    8838:	e59f302c 	ldr	r3, [pc, #44]	; 886c <cp14_enable+0x38>
    883c:	e5933000 	ldr	r3, [r3]
    8840:	e3530000 	cmp	r3, #0
    8844:	1a000003 	bne	8858 <cp14_enable+0x24>
    8848:	eb00046a 	bl	99f8 <int_init>
    884c:	e3a02001 	mov	r2, #1
    8850:	e59f3014 	ldr	r3, [pc, #20]	; 886c <cp14_enable+0x38>
    8854:	e5832000 	str	r2, [r3]
    8858:	e3a03902 	mov	r3, #32768	; 0x8000
    885c:	ee003e11 	mcr	14, 0, r3, cr0, cr1, {0}
    8860:	e3a03000 	mov	r3, #0
    8864:	ee073f95 	mcr	15, 0, r3, cr7, cr5, {4}
    8868:	e8bd8008 	pop	{r3, pc}
    886c:	0000a704 	andeq	sl, r0, r4, lsl #14

00008870 <brkpt_set0>:
    8870:	ee103eb0 	mrc	14, 0, r3, cr0, cr0, {5}
    8874:	e3c33001 	bic	r3, r3, #1
    8878:	ee003eb0 	mcr	14, 0, r3, cr0, cr0, {5}
    887c:	ee000e90 	mcr	14, 0, r0, cr0, cr0, {4}
    8880:	e59f3014 	ldr	r3, [pc, #20]	; 889c <brkpt_set0+0x2c>
    8884:	ee003eb0 	mcr	14, 0, r3, cr0, cr0, {5}
    8888:	e3a03000 	mov	r3, #0
    888c:	ee073f95 	mcr	15, 0, r3, cr7, cr5, {4}
    8890:	e59f3008 	ldr	r3, [pc, #8]	; 88a0 <brkpt_set0+0x30>
    8894:	e5831000 	str	r1, [r3]
    8898:	e12fff1e 	bx	lr
    889c:	000001e7 	andeq	r0, r0, r7, ror #3
    88a0:	0000a6f8 	strdeq	sl, [r0], -r8

000088a4 <prefetch_abort_vector>:
    88a4:	e52de004 	push	{lr}		; (str lr, [sp, #-4]!)
    88a8:	e24dd00c 	sub	sp, sp, #12
    88ac:	e1a01000 	mov	r1, r0
    88b0:	ee153f30 	mrc	15, 0, r3, cr5, cr0, {1}
    88b4:	e203300f 	and	r3, r3, #15
    88b8:	e3530002 	cmp	r3, #2
    88bc:	0a000006 	beq	88dc <prefetch_abort_vector+0x38>
    88c0:	eb000281 	bl	92cc <rpi_reset_putc>
    88c4:	e59f0058 	ldr	r0, [pc, #88]	; 8924 <prefetch_abort_vector+0x80>
    88c8:	e59f1058 	ldr	r1, [pc, #88]	; 8928 <prefetch_abort_vector+0x84>
    88cc:	e59f2058 	ldr	r2, [pc, #88]	; 892c <prefetch_abort_vector+0x88>
    88d0:	e3a030c7 	mov	r3, #199	; 0xc7
    88d4:	eb000261 	bl	9260 <printk>
    88d8:	eb0003f8 	bl	98c0 <clean_reboot>
    88dc:	e59f304c 	ldr	r3, [pc, #76]	; 8930 <prefetch_abort_vector+0x8c>
    88e0:	e5933000 	ldr	r3, [r3]
    88e4:	e3530000 	cmp	r3, #0
    88e8:	1a000008 	bne	8910 <prefetch_abort_vector+0x6c>
    88ec:	eb000276 	bl	92cc <rpi_reset_putc>
    88f0:	e59f303c 	ldr	r3, [pc, #60]	; 8934 <prefetch_abort_vector+0x90>
    88f4:	e58d3000 	str	r3, [sp]
    88f8:	e59f0038 	ldr	r0, [pc, #56]	; 8938 <prefetch_abort_vector+0x94>
    88fc:	e59f1024 	ldr	r1, [pc, #36]	; 8928 <prefetch_abort_vector+0x84>
    8900:	e59f2024 	ldr	r2, [pc, #36]	; 892c <prefetch_abort_vector+0x88>
    8904:	e3a030c8 	mov	r3, #200	; 0xc8
    8908:	eb000254 	bl	9260 <printk>
    890c:	eb0003eb 	bl	98c0 <clean_reboot>
    8910:	ee162f10 	mrc	15, 0, r2, cr6, cr0, {0}
    8914:	e3a00000 	mov	r0, #0
    8918:	e12fff33 	blx	r3
    891c:	e28dd00c 	add	sp, sp, #12
    8920:	e49df004 	pop	{pc}		; (ldr pc, [sp], #4)
    8924:	0000a170 	andeq	sl, r0, r0, ror r1
    8928:	0000a0d8 	ldrdeq	sl, [r0], -r8
    892c:	0000a238 	andeq	sl, r0, r8, lsr r2
    8930:	0000a6f8 	strdeq	sl, [r0], -r8
    8934:	0000a1a8 	andeq	sl, r0, r8, lsr #3
    8938:	00009e78 	andeq	r9, r0, r8, ror lr

0000893c <interrupt_vector>:
    893c:	e12fff1e 	bx	lr

00008940 <brk_no_ret_error>:
    8940:	e92d4008 	push	{r3, lr}
    8944:	eb000260 	bl	92cc <rpi_reset_putc>
    8948:	e59f0010 	ldr	r0, [pc, #16]	; 8960 <brk_no_ret_error+0x20>
    894c:	e59f1010 	ldr	r1, [pc, #16]	; 8964 <brk_no_ret_error+0x24>
    8950:	e59f2010 	ldr	r2, [pc, #16]	; 8968 <brk_no_ret_error+0x28>
    8954:	e3a030d9 	mov	r3, #217	; 0xd9
    8958:	eb000240 	bl	9260 <printk>
    895c:	eb0003d7 	bl	98c0 <clean_reboot>
    8960:	0000a1b8 			; <UNDEFINED> instruction: 0x0000a1b8
    8964:	0000a0d8 	ldrdeq	sl, [r0], -r8
    8968:	0000a250 	andeq	sl, r0, r0, asr r2

0000896c <brkpt_mismatch_set0>:
    896c:	ee103eb0 	mrc	14, 0, r3, cr0, cr0, {5}
    8970:	e3c33001 	bic	r3, r3, #1
    8974:	ee003eb0 	mcr	14, 0, r3, cr0, cr0, {5}
    8978:	ee000e90 	mcr	14, 0, r0, cr0, cr0, {4}
    897c:	e59f3014 	ldr	r3, [pc, #20]	; 8998 <brkpt_mismatch_set0+0x2c>
    8980:	ee003eb0 	mcr	14, 0, r3, cr0, cr0, {5}
    8984:	e3a03000 	mov	r3, #0
    8988:	ee073f95 	mcr	15, 0, r3, cr7, cr5, {4}
    898c:	e59f3008 	ldr	r3, [pc, #8]	; 899c <brkpt_mismatch_set0+0x30>
    8990:	e5831000 	str	r1, [r3]
    8994:	e12fff1e 	bx	lr
    8998:	004001e7 	subeq	r0, r0, r7, ror #3
    899c:	0000a6f8 	strdeq	sl, [r0], -r8

000089a0 <brkpt_mismatch_disable0>:
    89a0:	e59f3004 	ldr	r3, [pc, #4]	; 89ac <brkpt_mismatch_disable0+0xc>
    89a4:	ee003eb0 	mcr	14, 0, r3, cr0, cr0, {5}
    89a8:	e12fff1e 	bx	lr
    89ac:	004001e6 	subeq	r0, r0, r6, ror #3

000089b0 <syscall_vector>:
    89b0:	e92d4008 	push	{r3, lr}
    89b4:	e5903000 	ldr	r3, [r0]
    89b8:	e3c334ff 	bic	r3, r3, #-16777216	; 0xff000000
    89bc:	e3530001 	cmp	r3, #1
    89c0:	1a000002 	bne	89d0 <syscall_vector+0x20>
    89c4:	e169f001 	msr	SPSR_fc, r1
    89c8:	e3a00000 	mov	r0, #0
    89cc:	e8bd8008 	pop	{r3, pc}
    89d0:	e3530002 	cmp	r3, #2
    89d4:	1a000005 	bne	89f0 <syscall_vector+0x40>
    89d8:	e5913000 	ldr	r3, [r1]
    89dc:	e3530000 	cmp	r3, #0
    89e0:	1a000009 	bne	8a0c <syscall_vector+0x5c>
    89e4:	e3a00001 	mov	r0, #1
    89e8:	e5810000 	str	r0, [r1]
    89ec:	e8bd8008 	pop	{r3, pc}
    89f0:	e3530003 	cmp	r3, #3
    89f4:	0a000006 	beq	8a14 <syscall_vector+0x64>
    89f8:	e59f001c 	ldr	r0, [pc, #28]	; 8a1c <syscall_vector+0x6c>
    89fc:	e1a01003 	mov	r1, r3
    8a00:	eb000216 	bl	9260 <printk>
    8a04:	e3a00000 	mov	r0, #0
    8a08:	e8bd8008 	pop	{r3, pc}
    8a0c:	e3a00000 	mov	r0, #0
    8a10:	e8bd8008 	pop	{r3, pc}
    8a14:	e3a00003 	mov	r0, #3
    8a18:	e8bd8008 	pop	{r3, pc}
    8a1c:	0000a1e8 	andeq	sl, r0, r8, ror #3

00008a20 <_interrupt_table>:
    8a20:	e59ff020 	ldr	pc, [pc, #32]	; 8a48 <_reset_asm>
    8a24:	e59ff020 	ldr	pc, [pc, #32]	; 8a4c <_undefined_instruction_asm>
    8a28:	e59ff020 	ldr	pc, [pc, #32]	; 8a50 <_software_interrupt_asm>
    8a2c:	e59ff020 	ldr	pc, [pc, #32]	; 8a54 <_prefetch_abort_asm>
    8a30:	e59ff020 	ldr	pc, [pc, #32]	; 8a58 <_data_abort_asm>
    8a34:	e59ff00c 	ldr	pc, [pc, #12]	; 8a48 <_reset_asm>
    8a38:	e59ff01c 	ldr	pc, [pc, #28]	; 8a5c <_interrupt_asm>

00008a3c <fast_interrupt_asm>:
    8a3c:	e3a0d409 	mov	sp, #150994944	; 0x9000000
    8a40:	e24ee004 	sub	lr, lr, #4
    8a44:	eb0003b6 	bl	9924 <fast_interrupt_vector>

00008a48 <_reset_asm>:
    8a48:	00008a78 	andeq	r8, r0, r8, ror sl

00008a4c <_undefined_instruction_asm>:
    8a4c:	00008abc 			; <UNDEFINED> instruction: 0x00008abc

00008a50 <_software_interrupt_asm>:
    8a50:	00008ac8 	andeq	r8, r0, r8, asr #21

00008a54 <_prefetch_abort_asm>:
    8a54:	00008aa0 	andeq	r8, r0, r0, lsr #21

00008a58 <_data_abort_asm>:
    8a58:	00008a84 	andeq	r8, r0, r4, lsl #21

00008a5c <_interrupt_asm>:
    8a5c:	00008a60 	andeq	r8, r0, r0, ror #20

00008a60 <_interrupt_table_end>:
    8a60:	e3a0d409 	mov	sp, #150994944	; 0x9000000
    8a64:	e24ee004 	sub	lr, lr, #4
    8a68:	e92d5fff 	push	{r0, r1, r2, r3, r4, r5, r6, r7, r8, r9, sl, fp, ip, lr}
    8a6c:	e1a0000e 	mov	r0, lr
    8a70:	e8bd5fff 	pop	{r0, r1, r2, r3, r4, r5, r6, r7, r8, r9, sl, fp, ip, lr}
    8a74:	e1b0f00e 	movs	pc, lr

00008a78 <reset_asm>:
    8a78:	e3a0d409 	mov	sp, #150994944	; 0x9000000
    8a7c:	e24ee004 	sub	lr, lr, #4
    8a80:	eb0003b8 	bl	9968 <reset_vector>

00008a84 <data_abort_asm>:
    8a84:	e24ee008 	sub	lr, lr, #8
    8a88:	e3a0d409 	mov	sp, #150994944	; 0x9000000
    8a8c:	e92d5fff 	push	{r0, r1, r2, r3, r4, r5, r6, r7, r8, r9, sl, fp, ip, lr}
    8a90:	e1a0000e 	mov	r0, lr
    8a94:	ebffff2f 	bl	8758 <data_abort_vector>
    8a98:	e8bd5fff 	pop	{r0, r1, r2, r3, r4, r5, r6, r7, r8, r9, sl, fp, ip, lr}
    8a9c:	e1b0f00e 	movs	pc, lr

00008aa0 <prefetch_abort_asm>:
    8aa0:	e24ee004 	sub	lr, lr, #4
    8aa4:	e3a0d409 	mov	sp, #150994944	; 0x9000000
    8aa8:	e92d5fff 	push	{r0, r1, r2, r3, r4, r5, r6, r7, r8, r9, sl, fp, ip, lr}
    8aac:	e1a0000e 	mov	r0, lr
    8ab0:	ebffff7b 	bl	88a4 <prefetch_abort_vector>
    8ab4:	e8bd5fff 	pop	{r0, r1, r2, r3, r4, r5, r6, r7, r8, r9, sl, fp, ip, lr}
    8ab8:	e1b0f00e 	movs	pc, lr

00008abc <undefined_instruction_asm>:
    8abc:	e3a0d409 	mov	sp, #150994944	; 0x9000000
    8ac0:	e24ee004 	sub	lr, lr, #4
    8ac4:	eb0003b8 	bl	99ac <undefined_instruction_vector>

00008ac8 <software_interrupt_asm>:
    8ac8:	e92d5ff0 	push	{r4, r5, r6, r7, r8, r9, sl, fp, ip, lr}
    8acc:	e24ee004 	sub	lr, lr, #4
    8ad0:	e1a01000 	mov	r1, r0
    8ad4:	e1a0000e 	mov	r0, lr
    8ad8:	ebffffb4 	bl	89b0 <syscall_vector>
    8adc:	e8bd5ff0 	pop	{r4, r5, r6, r7, r8, r9, sl, fp, ip, lr}
    8ae0:	e1b0f00e 	movs	pc, lr

00008ae4 <user_trampoline_no_ret>:
    8ae4:	e1a0200d 	mov	r2, sp
    8ae8:	e129f000 	msr	CPSR_fc, r0
    8aec:	e10f5000 	mrs	r5, CPSR
    8af0:	ee070f95 	mcr	15, 0, r0, cr7, cr5, {4}
    8af4:	e1a0d002 	mov	sp, r2
    8af8:	e92d5ff0 	push	{r4, r5, r6, r7, r8, r9, sl, fp, ip, lr}
    8afc:	e12fff31 	blx	r1
    8b00:	e8bd5ff0 	pop	{r4, r5, r6, r7, r8, r9, sl, fp, ip, lr}
    8b04:	eb00036d 	bl	98c0 <clean_reboot>
    8b08:	ebffff8c 	bl	8940 <brk_no_ret_error>

00008b0c <user_trampoline_ret>:
    8b0c:	e92d5ff0 	push	{r4, r5, r6, r7, r8, r9, sl, fp, ip, lr}
    8b10:	e10f4000 	mrs	r4, CPSR
    8b14:	e129f000 	msr	CPSR_fc, r0
    8b18:	ee070f95 	mcr	15, 0, r0, cr7, cr5, {4}
    8b1c:	e3a0d407 	mov	sp, #117440512	; 0x7000000
    8b20:	e1a00002 	mov	r0, r2
    8b24:	e12fff31 	blx	r1
    8b28:	e1a00004 	mov	r0, r4
    8b2c:	ef000001 	svc	0x00000001
    8b30:	e8bd5ff0 	pop	{r4, r5, r6, r7, r8, r9, sl, fp, ip, lr}
    8b34:	e12fff1e 	bx	lr

00008b38 <sys_try_lock_asm>:
    8b38:	e92d5ff0 	push	{r4, r5, r6, r7, r8, r9, sl, fp, ip, lr}
    8b3c:	ef000002 	svc	0x00000002
    8b40:	e8bd5ff0 	pop	{r4, r5, r6, r7, r8, r9, sl, fp, ip, lr}
    8b44:	e12fff1e 	bx	lr

00008b48 <sys_foo_asm>:
    8b48:	e92d5ff0 	push	{r4, r5, r6, r7, r8, r9, sl, fp, ip, lr}
    8b4c:	ef000003 	svc	0x00000003
    8b50:	e8bd5ff0 	pop	{r4, r5, r6, r7, r8, r9, sl, fp, ip, lr}
    8b54:	e12fff1e 	bx	lr

00008b58 <single_step_handler>:
    8b58:	e92d4030 	push	{r4, r5, lr}
    8b5c:	e24dd00c 	sub	sp, sp, #12
    8b60:	e1a05001 	mov	r5, r1
    8b64:	e59f3164 	ldr	r3, [pc, #356]	; 8cd0 <single_step_handler+0x178>
    8b68:	e5933000 	ldr	r3, [r3]
    8b6c:	e3530000 	cmp	r3, #0
    8b70:	0a000005 	beq	8b8c <single_step_handler+0x34>
    8b74:	e58d1000 	str	r1, [sp]
    8b78:	e59f0154 	ldr	r0, [pc, #340]	; 8cd4 <single_step_handler+0x17c>
    8b7c:	e59f1154 	ldr	r1, [pc, #340]	; 8cd8 <single_step_handler+0x180>
    8b80:	e59f2154 	ldr	r2, [pc, #340]	; 8cdc <single_step_handler+0x184>
    8b84:	e3a0300c 	mov	r3, #12
    8b88:	eb0001b4 	bl	9260 <printk>
    8b8c:	ee153f30 	mrc	15, 0, r3, cr5, cr0, {1}
    8b90:	e203300f 	and	r3, r3, #15
    8b94:	e3530002 	cmp	r3, #2
    8b98:	0a000006 	beq	8bb8 <single_step_handler+0x60>
    8b9c:	eb0001ca 	bl	92cc <rpi_reset_putc>
    8ba0:	e59f0138 	ldr	r0, [pc, #312]	; 8ce0 <single_step_handler+0x188>
    8ba4:	e59f112c 	ldr	r1, [pc, #300]	; 8cd8 <single_step_handler+0x180>
    8ba8:	e59f212c 	ldr	r2, [pc, #300]	; 8cdc <single_step_handler+0x184>
    8bac:	e3a0300e 	mov	r3, #14
    8bb0:	eb0001aa 	bl	9260 <printk>
    8bb4:	eb000341 	bl	98c0 <clean_reboot>
    8bb8:	e59f3124 	ldr	r3, [pc, #292]	; 8ce4 <single_step_handler+0x18c>
    8bbc:	e5934000 	ldr	r4, [r3]
    8bc0:	e594201c 	ldr	r2, [r4, #28]
    8bc4:	e5943018 	ldr	r3, [r4, #24]
    8bc8:	e1520003 	cmp	r2, r3
    8bcc:	1a000016 	bne	8c2c <single_step_handler+0xd4>
    8bd0:	e59f0110 	ldr	r0, [pc, #272]	; 8ce8 <single_step_handler+0x190>
    8bd4:	e1a01005 	mov	r1, r5
    8bd8:	e5942008 	ldr	r2, [r4, #8]
    8bdc:	eb00019f 	bl	9260 <printk>
    8be0:	e5943008 	ldr	r3, [r4, #8]
    8be4:	e1a00004 	mov	r0, r4
    8be8:	e12fff33 	blx	r3
    8bec:	e3500000 	cmp	r0, #0
    8bf0:	0a00000a 	beq	8c20 <single_step_handler+0xc8>
    8bf4:	e1a00005 	mov	r0, r5
    8bf8:	ebffff68 	bl	89a0 <brkpt_mismatch_disable0>
    8bfc:	e5845020 	str	r5, [r4, #32]
    8c00:	e3a03001 	mov	r3, #1
    8c04:	e5843024 	str	r3, [r4, #36]	; 0x24
    8c08:	e5943014 	ldr	r3, [r4, #20]
    8c0c:	e2833001 	add	r3, r3, #1
    8c10:	e5843014 	str	r3, [r4, #20]
    8c14:	e59f00d0 	ldr	r0, [pc, #208]	; 8cec <single_step_handler+0x194>
    8c18:	eb000190 	bl	9260 <printk>
    8c1c:	ea000029 	b	8cc8 <single_step_handler+0x170>
    8c20:	e5943018 	ldr	r3, [r4, #24]
    8c24:	e2833001 	add	r3, r3, #1
    8c28:	e5843018 	str	r3, [r4, #24]
    8c2c:	e594201c 	ldr	r2, [r4, #28]
    8c30:	e5943018 	ldr	r3, [r4, #24]
    8c34:	e1520003 	cmp	r2, r3
    8c38:	3a000008 	bcc	8c60 <single_step_handler+0x108>
    8c3c:	eb0001a2 	bl	92cc <rpi_reset_putc>
    8c40:	e59f30a8 	ldr	r3, [pc, #168]	; 8cf0 <single_step_handler+0x198>
    8c44:	e58d3000 	str	r3, [sp]
    8c48:	e59f00a4 	ldr	r0, [pc, #164]	; 8cf4 <single_step_handler+0x19c>
    8c4c:	e59f1084 	ldr	r1, [pc, #132]	; 8cd8 <single_step_handler+0x180>
    8c50:	e59f2084 	ldr	r2, [pc, #132]	; 8cdc <single_step_handler+0x184>
    8c54:	e3a03023 	mov	r3, #35	; 0x23
    8c58:	eb000180 	bl	9260 <printk>
    8c5c:	eb000317 	bl	98c0 <clean_reboot>
    8c60:	e594301c 	ldr	r3, [r4, #28]
    8c64:	e2833001 	add	r3, r3, #1
    8c68:	e584301c 	str	r3, [r4, #28]
    8c6c:	e59f305c 	ldr	r3, [pc, #92]	; 8cd0 <single_step_handler+0x178>
    8c70:	e5933000 	ldr	r3, [r3]
    8c74:	e3530000 	cmp	r3, #0
    8c78:	0a000005 	beq	8c94 <single_step_handler+0x13c>
    8c7c:	e58d5000 	str	r5, [sp]
    8c80:	e59f0070 	ldr	r0, [pc, #112]	; 8cf8 <single_step_handler+0x1a0>
    8c84:	e59f104c 	ldr	r1, [pc, #76]	; 8cd8 <single_step_handler+0x180>
    8c88:	e59f204c 	ldr	r2, [pc, #76]	; 8cdc <single_step_handler+0x184>
    8c8c:	e3a03026 	mov	r3, #38	; 0x26
    8c90:	eb000172 	bl	9260 <printk>
    8c94:	e1a00005 	mov	r0, r5
    8c98:	e59f105c 	ldr	r1, [pc, #92]	; 8cfc <single_step_handler+0x1a4>
    8c9c:	ebffff32 	bl	896c <brkpt_mismatch_set0>
    8ca0:	e59f3028 	ldr	r3, [pc, #40]	; 8cd0 <single_step_handler+0x178>
    8ca4:	e5933000 	ldr	r3, [r3]
    8ca8:	e3530000 	cmp	r3, #0
    8cac:	0a000005 	beq	8cc8 <single_step_handler+0x170>
    8cb0:	e58d5000 	str	r5, [sp]
    8cb4:	e59f0044 	ldr	r0, [pc, #68]	; 8d00 <single_step_handler+0x1a8>
    8cb8:	e59f1018 	ldr	r1, [pc, #24]	; 8cd8 <single_step_handler+0x180>
    8cbc:	e59f2018 	ldr	r2, [pc, #24]	; 8cdc <single_step_handler+0x184>
    8cc0:	e3a03028 	mov	r3, #40	; 0x28
    8cc4:	eb000165 	bl	9260 <printk>
    8cc8:	e28dd00c 	add	sp, sp, #12
    8ccc:	e8bd8030 	pop	{r4, r5, pc}
    8cd0:	0000a6fc 	strdeq	sl, [r0], -ip
    8cd4:	0000a264 	andeq	sl, r0, r4, ror #4
    8cd8:	0000a284 	andeq	sl, r0, r4, lsl #5
    8cdc:	0000a48c 	andeq	sl, r0, ip, lsl #9
    8ce0:	0000a170 	andeq	sl, r0, r0, ror r1
    8ce4:	0000a708 	andeq	sl, r0, r8, lsl #14
    8ce8:	0000a298 	muleq	r0, r8, r2
    8cec:	0000a2b8 			; <UNDEFINED> instruction: 0x0000a2b8
    8cf0:	0000a2e0 	andeq	sl, r0, r0, ror #5
    8cf4:	00009e78 	andeq	r9, r0, r8, ror lr
    8cf8:	0000a304 	andeq	sl, r0, r4, lsl #6
    8cfc:	00008b58 	andeq	r8, r0, r8, asr fp
    8d00:	0000a32c 	andeq	sl, r0, ip, lsr #6

00008d04 <check_one_cswitch>:
    8d04:	e92d4ff0 	push	{r4, r5, r6, r7, r8, r9, sl, fp, lr}
    8d08:	e24dd00c 	sub	sp, sp, #12
    8d0c:	e1a04000 	mov	r4, r0
    8d10:	e10f8000 	mrs	r8, CPSR
    8d14:	e3c8701f 	bic	r7, r8, #31
    8d18:	e3877010 	orr	r7, r7, #16
    8d1c:	e59f3460 	ldr	r3, [pc, #1120]	; 9184 <check_one_cswitch+0x480>
    8d20:	e5830000 	str	r0, [r3]
    8d24:	e3a03001 	mov	r3, #1
    8d28:	e5803030 	str	r3, [r0, #48]	; 0x30
    8d2c:	e59f6454 	ldr	r6, [pc, #1108]	; 9188 <check_one_cswitch+0x484>
    8d30:	e59fb454 	ldr	fp, [pc, #1108]	; 918c <check_one_cswitch+0x488>
    8d34:	e59fa454 	ldr	sl, [pc, #1108]	; 9190 <check_one_cswitch+0x48c>
    8d38:	e59f9454 	ldr	r9, [pc, #1108]	; 9194 <check_one_cswitch+0x490>
    8d3c:	e59f5454 	ldr	r5, [pc, #1108]	; 9198 <check_one_cswitch+0x494>
    8d40:	e594300c 	ldr	r3, [r4, #12]
    8d44:	e1a00004 	mov	r0, r4
    8d48:	e12fff33 	blx	r3
    8d4c:	e5963000 	ldr	r3, [r6]
    8d50:	e3530000 	cmp	r3, #0
    8d54:	0a000006 	beq	8d74 <check_one_cswitch+0x70>
    8d58:	e5943028 	ldr	r3, [r4, #40]	; 0x28
    8d5c:	e58d3000 	str	r3, [sp]
    8d60:	e1a0000b 	mov	r0, fp
    8d64:	e1a0100a 	mov	r1, sl
    8d68:	e1a02009 	mov	r2, r9
    8d6c:	e3a03034 	mov	r3, #52	; 0x34
    8d70:	eb00013a 	bl	9260 <printk>
    8d74:	e3a00000 	mov	r0, #0
    8d78:	e1a01005 	mov	r1, r5
    8d7c:	ebfffefa 	bl	896c <brkpt_mismatch_set0>
    8d80:	e5943018 	ldr	r3, [r4, #24]
    8d84:	e2833001 	add	r3, r3, #1
    8d88:	e5843018 	str	r3, [r4, #24]
    8d8c:	e3a03000 	mov	r3, #0
    8d90:	e584301c 	str	r3, [r4, #28]
    8d94:	e5843024 	str	r3, [r4, #36]	; 0x24
    8d98:	e1a00007 	mov	r0, r7
    8d9c:	e5941004 	ldr	r1, [r4, #4]
    8da0:	e1a02004 	mov	r2, r4
    8da4:	ebffff58 	bl	8b0c <user_trampoline_ret>
    8da8:	e5943024 	ldr	r3, [r4, #36]	; 0x24
    8dac:	e3530000 	cmp	r3, #0
    8db0:	1a000002 	bne	8dc0 <check_one_cswitch+0xbc>
    8db4:	e5943008 	ldr	r3, [r4, #8]
    8db8:	e1a00004 	mov	r0, r4
    8dbc:	e12fff33 	blx	r3
    8dc0:	e5943010 	ldr	r3, [r4, #16]
    8dc4:	e1a00004 	mov	r0, r4
    8dc8:	e12fff33 	blx	r3
    8dcc:	e3500000 	cmp	r0, #0
    8dd0:	1a000006 	bne	8df0 <check_one_cswitch+0xec>
    8dd4:	e5941020 	ldr	r1, [r4, #32]
    8dd8:	e5942018 	ldr	r2, [r4, #24]
    8ddc:	e59f03b8 	ldr	r0, [pc, #952]	; 919c <check_one_cswitch+0x498>
    8de0:	eb00011e 	bl	9260 <printk>
    8de4:	e594302c 	ldr	r3, [r4, #44]	; 0x2c
    8de8:	e2833001 	add	r3, r3, #1
    8dec:	e584302c 	str	r3, [r4, #44]	; 0x2c
    8df0:	e5942028 	ldr	r2, [r4, #40]	; 0x28
    8df4:	e2822001 	add	r2, r2, #1
    8df8:	e5842028 	str	r2, [r4, #40]	; 0x28
    8dfc:	e5943024 	ldr	r3, [r4, #36]	; 0x24
    8e00:	e3530000 	cmp	r3, #0
    8e04:	1affffcd 	bne	8d40 <check_one_cswitch+0x3c>
    8e08:	e5941014 	ldr	r1, [r4, #20]
    8e0c:	e59f038c 	ldr	r0, [pc, #908]	; 91a0 <check_one_cswitch+0x49c>
    8e10:	e594302c 	ldr	r3, [r4, #44]	; 0x2c
    8e14:	eb000111 	bl	9260 <printk>
    8e18:	e208301f 	and	r3, r8, #31
    8e1c:	e3530012 	cmp	r3, #18
    8e20:	13530010 	cmpne	r3, #16
    8e24:	0a000006 	beq	8e44 <check_one_cswitch+0x140>
    8e28:	e3530017 	cmp	r3, #23
    8e2c:	13530013 	cmpne	r3, #19
    8e30:	0a000005 	beq	8e4c <check_one_cswitch+0x148>
    8e34:	e353001f 	cmp	r3, #31
    8e38:	1a000005 	bne	8e54 <check_one_cswitch+0x150>
    8e3c:	e3a02001 	mov	r2, #1
    8e40:	ea000004 	b	8e58 <check_one_cswitch+0x154>
    8e44:	e3a02001 	mov	r2, #1
    8e48:	ea000002 	b	8e58 <check_one_cswitch+0x154>
    8e4c:	e3a02001 	mov	r2, #1
    8e50:	ea000000 	b	8e58 <check_one_cswitch+0x154>
    8e54:	e3a02000 	mov	r2, #0
    8e58:	e3520000 	cmp	r2, #0
    8e5c:	1a000008 	bne	8e84 <check_one_cswitch+0x180>
    8e60:	eb000119 	bl	92cc <rpi_reset_putc>
    8e64:	e59f3338 	ldr	r3, [pc, #824]	; 91a4 <check_one_cswitch+0x4a0>
    8e68:	e58d3000 	str	r3, [sp]
    8e6c:	e59f0334 	ldr	r0, [pc, #820]	; 91a8 <check_one_cswitch+0x4a4>
    8e70:	e59f1334 	ldr	r1, [pc, #820]	; 91ac <check_one_cswitch+0x4a8>
    8e74:	e59f2334 	ldr	r2, [pc, #820]	; 91b0 <check_one_cswitch+0x4ac>
    8e78:	e3a03011 	mov	r3, #17
    8e7c:	eb0000f7 	bl	9260 <printk>
    8e80:	eb00028e 	bl	98c0 <clean_reboot>
    8e84:	e2433010 	sub	r3, r3, #16
    8e88:	e353000f 	cmp	r3, #15
    8e8c:	979ff103 	ldrls	pc, [pc, r3, lsl #2]
    8e90:	ea000019 	b	8efc <check_one_cswitch+0x1f8>
    8e94:	00008f1c 	andeq	r8, r0, ip, lsl pc
    8e98:	00008f24 	andeq	r8, r0, r4, lsr #30
    8e9c:	00008ed4 	ldrdeq	r8, [r0], -r4
    8ea0:	00008edc 	ldrdeq	r8, [r0], -ip
    8ea4:	00008efc 	strdeq	r8, [r0], -ip
    8ea8:	00008efc 	strdeq	r8, [r0], -ip
    8eac:	00008efc 	strdeq	r8, [r0], -ip
    8eb0:	00008ee4 	andeq	r8, r0, r4, ror #29
    8eb4:	00008efc 	strdeq	r8, [r0], -ip
    8eb8:	00008efc 	strdeq	r8, [r0], -ip
    8ebc:	00008efc 	strdeq	r8, [r0], -ip
    8ec0:	00008eec 	andeq	r8, r0, ip, ror #29
    8ec4:	00008efc 	strdeq	r8, [r0], -ip
    8ec8:	00008efc 	strdeq	r8, [r0], -ip
    8ecc:	00008efc 	strdeq	r8, [r0], -ip
    8ed0:	00008ef4 	strdeq	r8, [r0], -r4
    8ed4:	e59f12d8 	ldr	r1, [pc, #728]	; 91b4 <check_one_cswitch+0x4b0>
    8ed8:	ea000012 	b	8f28 <check_one_cswitch+0x224>
    8edc:	e59f12d4 	ldr	r1, [pc, #724]	; 91b8 <check_one_cswitch+0x4b4>
    8ee0:	ea000010 	b	8f28 <check_one_cswitch+0x224>
    8ee4:	e59f12d0 	ldr	r1, [pc, #720]	; 91bc <check_one_cswitch+0x4b8>
    8ee8:	ea00000e 	b	8f28 <check_one_cswitch+0x224>
    8eec:	e59f12cc 	ldr	r1, [pc, #716]	; 91c0 <check_one_cswitch+0x4bc>
    8ef0:	ea00000c 	b	8f28 <check_one_cswitch+0x224>
    8ef4:	e59f12c8 	ldr	r1, [pc, #712]	; 91c4 <check_one_cswitch+0x4c0>
    8ef8:	ea00000a 	b	8f28 <check_one_cswitch+0x224>
    8efc:	eb0000f2 	bl	92cc <rpi_reset_putc>
    8f00:	e58d8000 	str	r8, [sp]
    8f04:	e59f02bc 	ldr	r0, [pc, #700]	; 91c8 <check_one_cswitch+0x4c4>
    8f08:	e59f129c 	ldr	r1, [pc, #668]	; 91ac <check_one_cswitch+0x4a8>
    8f0c:	e59f22b8 	ldr	r2, [pc, #696]	; 91cc <check_one_cswitch+0x4c8>
    8f10:	e3a03021 	mov	r3, #33	; 0x21
    8f14:	eb0000d1 	bl	9260 <printk>
    8f18:	eb000268 	bl	98c0 <clean_reboot>
    8f1c:	e59f12ac 	ldr	r1, [pc, #684]	; 91d0 <check_one_cswitch+0x4cc>
    8f20:	ea000000 	b	8f28 <check_one_cswitch+0x224>
    8f24:	e59f12a8 	ldr	r1, [pc, #680]	; 91d4 <check_one_cswitch+0x4d0>
    8f28:	e59f02a8 	ldr	r0, [pc, #680]	; 91d8 <check_one_cswitch+0x4d4>
    8f2c:	e1a02008 	mov	r2, r8
    8f30:	eb0000ca 	bl	9260 <printk>
    8f34:	e10f5000 	mrs	r5, CPSR
    8f38:	e205301f 	and	r3, r5, #31
    8f3c:	e3530012 	cmp	r3, #18
    8f40:	13530010 	cmpne	r3, #16
    8f44:	0a000006 	beq	8f64 <check_one_cswitch+0x260>
    8f48:	e3530017 	cmp	r3, #23
    8f4c:	13530013 	cmpne	r3, #19
    8f50:	0a000005 	beq	8f6c <check_one_cswitch+0x268>
    8f54:	e353001f 	cmp	r3, #31
    8f58:	1a000005 	bne	8f74 <check_one_cswitch+0x270>
    8f5c:	e3a02001 	mov	r2, #1
    8f60:	ea000004 	b	8f78 <check_one_cswitch+0x274>
    8f64:	e3a02001 	mov	r2, #1
    8f68:	ea000002 	b	8f78 <check_one_cswitch+0x274>
    8f6c:	e3a02001 	mov	r2, #1
    8f70:	ea000000 	b	8f78 <check_one_cswitch+0x274>
    8f74:	e3a02000 	mov	r2, #0
    8f78:	e3520000 	cmp	r2, #0
    8f7c:	1a000008 	bne	8fa4 <check_one_cswitch+0x2a0>
    8f80:	eb0000d1 	bl	92cc <rpi_reset_putc>
    8f84:	e59f3218 	ldr	r3, [pc, #536]	; 91a4 <check_one_cswitch+0x4a0>
    8f88:	e58d3000 	str	r3, [sp]
    8f8c:	e59f0214 	ldr	r0, [pc, #532]	; 91a8 <check_one_cswitch+0x4a4>
    8f90:	e59f1214 	ldr	r1, [pc, #532]	; 91ac <check_one_cswitch+0x4a8>
    8f94:	e59f2214 	ldr	r2, [pc, #532]	; 91b0 <check_one_cswitch+0x4ac>
    8f98:	e3a03011 	mov	r3, #17
    8f9c:	eb0000af 	bl	9260 <printk>
    8fa0:	eb000246 	bl	98c0 <clean_reboot>
    8fa4:	e2433010 	sub	r3, r3, #16
    8fa8:	e353000f 	cmp	r3, #15
    8fac:	979ff103 	ldrls	pc, [pc, r3, lsl #2]
    8fb0:	ea000019 	b	901c <check_one_cswitch+0x318>
    8fb4:	0000903c 	andeq	r9, r0, ip, lsr r0
    8fb8:	00009044 	andeq	r9, r0, r4, asr #32
    8fbc:	00008ff4 	strdeq	r8, [r0], -r4
    8fc0:	00008ffc 	strdeq	r8, [r0], -ip
    8fc4:	0000901c 	andeq	r9, r0, ip, lsl r0
    8fc8:	0000901c 	andeq	r9, r0, ip, lsl r0
    8fcc:	0000901c 	andeq	r9, r0, ip, lsl r0
    8fd0:	00009004 	andeq	r9, r0, r4
    8fd4:	0000901c 	andeq	r9, r0, ip, lsl r0
    8fd8:	0000901c 	andeq	r9, r0, ip, lsl r0
    8fdc:	0000901c 	andeq	r9, r0, ip, lsl r0
    8fe0:	0000900c 	andeq	r9, r0, ip
    8fe4:	0000901c 	andeq	r9, r0, ip, lsl r0
    8fe8:	0000901c 	andeq	r9, r0, ip, lsl r0
    8fec:	0000901c 	andeq	r9, r0, ip, lsl r0
    8ff0:	00009014 	andeq	r9, r0, r4, lsl r0
    8ff4:	e59f11b8 	ldr	r1, [pc, #440]	; 91b4 <check_one_cswitch+0x4b0>
    8ff8:	ea000012 	b	9048 <check_one_cswitch+0x344>
    8ffc:	e59f11b4 	ldr	r1, [pc, #436]	; 91b8 <check_one_cswitch+0x4b4>
    9000:	ea000010 	b	9048 <check_one_cswitch+0x344>
    9004:	e59f11b0 	ldr	r1, [pc, #432]	; 91bc <check_one_cswitch+0x4b8>
    9008:	ea00000e 	b	9048 <check_one_cswitch+0x344>
    900c:	e59f11ac 	ldr	r1, [pc, #428]	; 91c0 <check_one_cswitch+0x4bc>
    9010:	ea00000c 	b	9048 <check_one_cswitch+0x344>
    9014:	e59f11a8 	ldr	r1, [pc, #424]	; 91c4 <check_one_cswitch+0x4c0>
    9018:	ea00000a 	b	9048 <check_one_cswitch+0x344>
    901c:	eb0000aa 	bl	92cc <rpi_reset_putc>
    9020:	e58d5000 	str	r5, [sp]
    9024:	e59f019c 	ldr	r0, [pc, #412]	; 91c8 <check_one_cswitch+0x4c4>
    9028:	e59f117c 	ldr	r1, [pc, #380]	; 91ac <check_one_cswitch+0x4a8>
    902c:	e59f2198 	ldr	r2, [pc, #408]	; 91cc <check_one_cswitch+0x4c8>
    9030:	e3a03021 	mov	r3, #33	; 0x21
    9034:	eb000089 	bl	9260 <printk>
    9038:	eb000220 	bl	98c0 <clean_reboot>
    903c:	e59f118c 	ldr	r1, [pc, #396]	; 91d0 <check_one_cswitch+0x4cc>
    9040:	ea000000 	b	9048 <check_one_cswitch+0x344>
    9044:	e59f1188 	ldr	r1, [pc, #392]	; 91d4 <check_one_cswitch+0x4d0>
    9048:	e10f2000 	mrs	r2, CPSR
    904c:	e59f0188 	ldr	r0, [pc, #392]	; 91dc <check_one_cswitch+0x4d8>
    9050:	eb000082 	bl	9260 <printk>
    9054:	e3a00000 	mov	r0, #0
    9058:	ebfffe50 	bl	89a0 <brkpt_mismatch_disable0>
    905c:	e208801f 	and	r8, r8, #31
    9060:	e3580012 	cmp	r8, #18
    9064:	13580010 	cmpne	r8, #16
    9068:	0a000006 	beq	9088 <check_one_cswitch+0x384>
    906c:	e3580017 	cmp	r8, #23
    9070:	13580013 	cmpne	r8, #19
    9074:	0a000005 	beq	9090 <check_one_cswitch+0x38c>
    9078:	e358001f 	cmp	r8, #31
    907c:	1a000005 	bne	9098 <check_one_cswitch+0x394>
    9080:	e3a03001 	mov	r3, #1
    9084:	ea000004 	b	909c <check_one_cswitch+0x398>
    9088:	e3a03001 	mov	r3, #1
    908c:	ea000002 	b	909c <check_one_cswitch+0x398>
    9090:	e3a03001 	mov	r3, #1
    9094:	ea000000 	b	909c <check_one_cswitch+0x398>
    9098:	e3a03000 	mov	r3, #0
    909c:	e3530000 	cmp	r3, #0
    90a0:	1a000008 	bne	90c8 <check_one_cswitch+0x3c4>
    90a4:	eb000088 	bl	92cc <rpi_reset_putc>
    90a8:	e59f30f4 	ldr	r3, [pc, #244]	; 91a4 <check_one_cswitch+0x4a0>
    90ac:	e58d3000 	str	r3, [sp]
    90b0:	e59f00f0 	ldr	r0, [pc, #240]	; 91a8 <check_one_cswitch+0x4a4>
    90b4:	e59f10f0 	ldr	r1, [pc, #240]	; 91ac <check_one_cswitch+0x4a8>
    90b8:	e59f20f0 	ldr	r2, [pc, #240]	; 91b0 <check_one_cswitch+0x4ac>
    90bc:	e3a03011 	mov	r3, #17
    90c0:	eb000066 	bl	9260 <printk>
    90c4:	eb0001fd 	bl	98c0 <clean_reboot>
    90c8:	e10f3000 	mrs	r3, CPSR
    90cc:	e203301f 	and	r3, r3, #31
    90d0:	e3530012 	cmp	r3, #18
    90d4:	13530010 	cmpne	r3, #16
    90d8:	0a000006 	beq	90f8 <check_one_cswitch+0x3f4>
    90dc:	e3530017 	cmp	r3, #23
    90e0:	13530013 	cmpne	r3, #19
    90e4:	0a000005 	beq	9100 <check_one_cswitch+0x3fc>
    90e8:	e353001f 	cmp	r3, #31
    90ec:	1a000005 	bne	9108 <check_one_cswitch+0x404>
    90f0:	e3a02001 	mov	r2, #1
    90f4:	ea000004 	b	910c <check_one_cswitch+0x408>
    90f8:	e3a02001 	mov	r2, #1
    90fc:	ea000002 	b	910c <check_one_cswitch+0x408>
    9100:	e3a02001 	mov	r2, #1
    9104:	ea000000 	b	910c <check_one_cswitch+0x408>
    9108:	e3a02000 	mov	r2, #0
    910c:	e3520000 	cmp	r2, #0
    9110:	1a000008 	bne	9138 <check_one_cswitch+0x434>
    9114:	eb00006c 	bl	92cc <rpi_reset_putc>
    9118:	e59f3084 	ldr	r3, [pc, #132]	; 91a4 <check_one_cswitch+0x4a0>
    911c:	e58d3000 	str	r3, [sp]
    9120:	e59f0080 	ldr	r0, [pc, #128]	; 91a8 <check_one_cswitch+0x4a4>
    9124:	e59f1080 	ldr	r1, [pc, #128]	; 91ac <check_one_cswitch+0x4a8>
    9128:	e59f2080 	ldr	r2, [pc, #128]	; 91b0 <check_one_cswitch+0x4ac>
    912c:	e3a03011 	mov	r3, #17
    9130:	eb00004a 	bl	9260 <printk>
    9134:	eb0001e1 	bl	98c0 <clean_reboot>
    9138:	e1580003 	cmp	r8, r3
    913c:	0a000008 	beq	9164 <check_one_cswitch+0x460>
    9140:	eb000061 	bl	92cc <rpi_reset_putc>
    9144:	e59f3094 	ldr	r3, [pc, #148]	; 91e0 <check_one_cswitch+0x4dc>
    9148:	e58d3000 	str	r3, [sp]
    914c:	e59f0054 	ldr	r0, [pc, #84]	; 91a8 <check_one_cswitch+0x4a4>
    9150:	e59f1038 	ldr	r1, [pc, #56]	; 9190 <check_one_cswitch+0x48c>
    9154:	e59f2038 	ldr	r2, [pc, #56]	; 9194 <check_one_cswitch+0x490>
    9158:	e3a03058 	mov	r3, #88	; 0x58
    915c:	eb00003f 	bl	9260 <printk>
    9160:	eb0001d6 	bl	98c0 <clean_reboot>
    9164:	e3a03000 	mov	r3, #0
    9168:	e5843030 	str	r3, [r4, #48]	; 0x30
    916c:	e594002c 	ldr	r0, [r4, #44]	; 0x2c
    9170:	e1500003 	cmp	r0, r3
    9174:	13a00000 	movne	r0, #0
    9178:	03a00001 	moveq	r0, #1
    917c:	e28dd00c 	add	sp, sp, #12
    9180:	e8bd8ff0 	pop	{r4, r5, r6, r7, r8, r9, sl, fp, pc}
    9184:	0000a708 	andeq	sl, r0, r8, lsl #14
    9188:	0000a6fc 	strdeq	sl, [r0], -ip
    918c:	0000a358 	andeq	sl, r0, r8, asr r3
    9190:	0000a284 	andeq	sl, r0, r4, lsl #5
    9194:	0000a478 	andeq	sl, r0, r8, ror r4
    9198:	00008b58 	andeq	r8, r0, r8, asr fp
    919c:	0000a390 	muleq	r0, r0, r3
    91a0:	0000a3d8 	ldrdeq	sl, [r0], -r8
    91a4:	00009e9c 	muleq	r0, ip, lr
    91a8:	00009e78 	andeq	r9, r0, r8, ror lr
    91ac:	0000a40c 	andeq	sl, r0, ip, lsl #8
    91b0:	0000a4c4 	andeq	sl, r0, r4, asr #9
    91b4:	00009f48 	andeq	r9, r0, r8, asr #30
    91b8:	00009f54 	andeq	r9, r0, r4, asr pc
    91bc:	00009f60 	andeq	r9, r0, r0, ror #30
    91c0:	00009f6c 	andeq	r9, r0, ip, ror #30
    91c4:	00009f78 	andeq	r9, r0, r8, ror pc
    91c8:	00009f84 	andeq	r9, r0, r4, lsl #31
    91cc:	0000a4b8 			; <UNDEFINED> instruction: 0x0000a4b8
    91d0:	00009f30 	andeq	r9, r0, r0, lsr pc
    91d4:	00009f3c 	andeq	r9, r0, ip, lsr pc
    91d8:	0000a418 	andeq	sl, r0, r8, lsl r4
    91dc:	0000a434 	andeq	sl, r0, r4, lsr r4
    91e0:	0000a44c 	andeq	sl, r0, ip, asr #8

000091e4 <check_sequential>:
    91e4:	e3a00001 	mov	r0, #1
    91e8:	e12fff1e 	bx	lr

000091ec <check_zero>:
    91ec:	e3a03000 	mov	r3, #0
    91f0:	e5803030 	str	r3, [r0, #48]	; 0x30
    91f4:	e580302c 	str	r3, [r0, #44]	; 0x2c
    91f8:	e5803028 	str	r3, [r0, #40]	; 0x28
    91fc:	e5803024 	str	r3, [r0, #36]	; 0x24
    9200:	e5803020 	str	r3, [r0, #32]
    9204:	e580301c 	str	r3, [r0, #28]
    9208:	e5803018 	str	r3, [r0, #24]
    920c:	e5803014 	str	r3, [r0, #20]
    9210:	e12fff1e 	bx	lr

00009214 <check>:
    9214:	e92d4010 	push	{r4, lr}
    9218:	e1a04000 	mov	r4, r0
    921c:	ebfffd84 	bl	8834 <cp14_enable>
    9220:	e1a00004 	mov	r0, r4
    9224:	ebfffff0 	bl	91ec <check_zero>
    9228:	e1a00004 	mov	r0, r4
    922c:	ebffffec 	bl	91e4 <check_sequential>
    9230:	e3500000 	cmp	r0, #0
    9234:	0a000005 	beq	9250 <check+0x3c>
    9238:	e1a00004 	mov	r0, r4
    923c:	ebfffeb0 	bl	8d04 <check_one_cswitch>
    9240:	e3500000 	cmp	r0, #0
    9244:	0a000003 	beq	9258 <check+0x44>
    9248:	e3a00001 	mov	r0, #1
    924c:	e8bd8010 	pop	{r4, pc}
    9250:	e3a00000 	mov	r0, #0
    9254:	e8bd8010 	pop	{r4, pc}
    9258:	e3a00000 	mov	r0, #0
    925c:	e8bd8010 	pop	{r4, pc}

00009260 <printk>:
    9260:	e92d000f 	push	{r0, r1, r2, r3}
    9264:	e92d4030 	push	{r4, r5, lr}
    9268:	e24dd00c 	sub	sp, sp, #12
    926c:	e28d301c 	add	r3, sp, #28
    9270:	e58d3004 	str	r3, [sp, #4]
    9274:	e59f4034 	ldr	r4, [pc, #52]	; 92b0 <printk+0x50>
    9278:	e1a00004 	mov	r0, r4
    927c:	e3a01b01 	mov	r1, #1024	; 0x400
    9280:	e59d2018 	ldr	r2, [sp, #24]
    9284:	eb0000d0 	bl	95cc <va_printk>
    9288:	e1a05000 	mov	r5, r0
    928c:	e59f3020 	ldr	r3, [pc, #32]	; 92b4 <printk+0x54>
    9290:	e5933000 	ldr	r3, [r3]
    9294:	e1a00004 	mov	r0, r4
    9298:	e12fff33 	blx	r3
    929c:	e1a00005 	mov	r0, r5
    92a0:	e28dd00c 	add	sp, sp, #12
    92a4:	e8bd4030 	pop	{r4, r5, lr}
    92a8:	e28dd010 	add	sp, sp, #16
    92ac:	e12fff1e 	bx	lr
    92b0:	0000a710 	andeq	sl, r0, r0, lsl r7
    92b4:	00009e74 	andeq	r9, r0, r4, ror lr

000092b8 <internal_putchar>:
    92b8:	e92d4010 	push	{r4, lr}
    92bc:	e1a04000 	mov	r4, r0
    92c0:	eb000291 	bl	9d0c <uart_putc>
    92c4:	e1a00004 	mov	r0, r4
    92c8:	e8bd8010 	pop	{r4, pc}

000092cc <rpi_reset_putc>:
    92cc:	e59f2008 	ldr	r2, [pc, #8]	; 92dc <rpi_reset_putc+0x10>
    92d0:	e59f3008 	ldr	r3, [pc, #8]	; 92e0 <rpi_reset_putc+0x14>
    92d4:	e5832000 	str	r2, [r3]
    92d8:	e12fff1e 	bx	lr
    92dc:	000092b8 			; <UNDEFINED> instruction: 0x000092b8
    92e0:	00009e70 	andeq	r9, r0, r0, ror lr

000092e4 <rpi_set_putc>:
    92e4:	e59f3004 	ldr	r3, [pc, #4]	; 92f0 <rpi_set_putc+0xc>
    92e8:	e5830000 	str	r0, [r3]
    92ec:	e12fff1e 	bx	lr
    92f0:	00009e70 	andeq	r9, r0, r0, ror lr

000092f4 <internal_putk>:
    92f4:	e92d4038 	push	{r3, r4, r5, lr}
    92f8:	e1a04000 	mov	r4, r0
    92fc:	e59f5020 	ldr	r5, [pc, #32]	; 9324 <internal_putk+0x30>
    9300:	ea000002 	b	9310 <internal_putk+0x1c>
    9304:	e5953000 	ldr	r3, [r5]
    9308:	e12fff33 	blx	r3
    930c:	e2844001 	add	r4, r4, #1
    9310:	e5d40000 	ldrb	r0, [r4]
    9314:	e3500000 	cmp	r0, #0
    9318:	1afffff9 	bne	9304 <internal_putk+0x10>
    931c:	e3a00001 	mov	r0, #1
    9320:	e8bd8038 	pop	{r3, r4, r5, pc}
    9324:	00009e70 	andeq	r9, r0, r0, ror lr

00009328 <isdigit>:
    9328:	e2400030 	sub	r0, r0, #48	; 0x30
    932c:	e3500009 	cmp	r0, #9
    9330:	83a00000 	movhi	r0, #0
    9334:	93a00001 	movls	r0, #1
    9338:	e12fff1e 	bx	lr

0000933c <pad>:
    933c:	e0611000 	rsb	r1, r1, r0
    9340:	e3a03020 	mov	r3, #32
    9344:	ea000002 	b	9354 <pad+0x18>
    9348:	e5c03000 	strb	r3, [r0]
    934c:	e2811001 	add	r1, r1, #1
    9350:	e2800001 	add	r0, r0, #1
    9354:	e1510002 	cmp	r1, r2
    9358:	bafffffa 	blt	9348 <pad+0xc>
    935c:	e3a03000 	mov	r3, #0
    9360:	e5c03000 	strb	r3, [r0]
    9364:	e12fff1e 	bx	lr

00009368 <reverse>:
    9368:	e063c002 	rsb	ip, r3, r2
    936c:	e28cc001 	add	ip, ip, #1
    9370:	e15c0001 	cmp	ip, r1
    9374:	c061100c 	rsbgt	r1, r1, ip
    9378:	c0833001 	addgt	r3, r3, r1
    937c:	e2422001 	sub	r2, r2, #1
    9380:	e1a01000 	mov	r1, r0
    9384:	ea000002 	b	9394 <reverse+0x2c>
    9388:	e452c001 	ldrb	ip, [r2], #-1
    938c:	e5c1c000 	strb	ip, [r1]
    9390:	e2811001 	add	r1, r1, #1
    9394:	e1520003 	cmp	r2, r3
    9398:	2afffffa 	bcs	9388 <reverse+0x20>
    939c:	e3a03000 	mov	r3, #0
    93a0:	e5c13000 	strb	r3, [r1]
    93a4:	e12fff1e 	bx	lr

000093a8 <emit>:
    93a8:	e92d41f0 	push	{r4, r5, r6, r7, r8, lr}
    93ac:	e24dd048 	sub	sp, sp, #72	; 0x48
    93b0:	e1a05001 	mov	r5, r1
    93b4:	e1a04002 	mov	r4, r2
    93b8:	e59d2060 	ldr	r2, [sp, #96]	; 0x60
    93bc:	e1520004 	cmp	r2, r4
    93c0:	c2442001 	subgt	r2, r4, #1
    93c4:	e1a0c003 	mov	ip, r3
    93c8:	e2400002 	sub	r0, r0, #2
    93cc:	e350000e 	cmp	r0, #14
    93d0:	979ff100 	ldrls	pc, [pc, r0, lsl #2]
    93d4:	ea000048 	b	94fc <emit+0x154>
    93d8:	000094d4 	ldrdeq	r9, [r0], -r4
    93dc:	000094fc 	strdeq	r9, [r0], -ip
    93e0:	000094fc 	strdeq	r9, [r0], -ip
    93e4:	000094fc 	strdeq	r9, [r0], -ip
    93e8:	000094fc 	strdeq	r9, [r0], -ip
    93ec:	000094fc 	strdeq	r9, [r0], -ip
    93f0:	000094c8 	andeq	r9, r0, r8, asr #9
    93f4:	000094fc 	strdeq	r9, [r0], -ip
    93f8:	00009414 	andeq	r9, r0, r4, lsl r4
    93fc:	000094fc 	strdeq	r9, [r0], -ip
    9400:	000094fc 	strdeq	r9, [r0], -ip
    9404:	000094fc 	strdeq	r9, [r0], -ip
    9408:	000094fc 	strdeq	r9, [r0], -ip
    940c:	000094fc 	strdeq	r9, [r0], -ip
    9410:	00009488 	andeq	r9, r0, r8, lsl #9
    9414:	e59d1064 	ldr	r1, [sp, #100]	; 0x64
    9418:	e2911000 	adds	r1, r1, #0
    941c:	13a01001 	movne	r1, #1
    9420:	e0111fa3 	ands	r1, r1, r3, lsr #31
    9424:	1263c000 	rsbne	ip, r3, #0
    9428:	13a08001 	movne	r8, #1
    942c:	03a08000 	moveq	r8, #0
    9430:	e28d1008 	add	r1, sp, #8
    9434:	e59f7108 	ldr	r7, [pc, #264]	; 9544 <emit+0x19c>
    9438:	e59f6108 	ldr	r6, [pc, #264]	; 9548 <emit+0x1a0>
    943c:	ea000000 	b	9444 <emit+0x9c>
    9440:	e1a01000 	mov	r1, r0
    9444:	e2810001 	add	r0, r1, #1
    9448:	e083ec97 	umull	lr, r3, r7, ip
    944c:	e1a031a3 	lsr	r3, r3, #3
    9450:	e1a0e003 	mov	lr, r3
    9454:	e0833103 	add	r3, r3, r3, lsl #2
    9458:	e1a03083 	lsl	r3, r3, #1
    945c:	e063300c 	rsb	r3, r3, ip
    9460:	e7d63003 	ldrb	r3, [r6, r3]
    9464:	e5c13000 	strb	r3, [r1]
    9468:	e1a0c00e 	mov	ip, lr
    946c:	e35e0000 	cmp	lr, #0
    9470:	1afffff2 	bne	9440 <emit+0x98>
    9474:	e3580000 	cmp	r8, #0
    9478:	12810002 	addne	r0, r1, #2
    947c:	13a0302d 	movne	r3, #45	; 0x2d
    9480:	15c13001 	strbne	r3, [r1, #1]
    9484:	ea000025 	b	9520 <emit+0x178>
    9488:	e28d3008 	add	r3, sp, #8
    948c:	e59fe0b8 	ldr	lr, [pc, #184]	; 954c <emit+0x1a4>
    9490:	ea000000 	b	9498 <emit+0xf0>
    9494:	e1a03000 	mov	r3, r0
    9498:	e2830001 	add	r0, r3, #1
    949c:	e20c100f 	and	r1, ip, #15
    94a0:	e7de1001 	ldrb	r1, [lr, r1]
    94a4:	e5c31000 	strb	r1, [r3]
    94a8:	e1b0c22c 	lsrs	ip, ip, #4
    94ac:	1afffff8 	bne	9494 <emit+0xec>
    94b0:	e3a01078 	mov	r1, #120	; 0x78
    94b4:	e5c31001 	strb	r1, [r3, #1]
    94b8:	e2830003 	add	r0, r3, #3
    94bc:	e3a01030 	mov	r1, #48	; 0x30
    94c0:	e5c31002 	strb	r1, [r3, #2]
    94c4:	ea000015 	b	9520 <emit+0x178>
    94c8:	e5cd3008 	strb	r3, [sp, #8]
    94cc:	e28d0009 	add	r0, sp, #9
    94d0:	ea000012 	b	9520 <emit+0x178>
    94d4:	e28d3008 	add	r3, sp, #8
    94d8:	e59fe070 	ldr	lr, [pc, #112]	; 9550 <emit+0x1a8>
    94dc:	e2830001 	add	r0, r3, #1
    94e0:	e20c1001 	and	r1, ip, #1
    94e4:	e7de1001 	ldrb	r1, [lr, r1]
    94e8:	e5c31000 	strb	r1, [r3]
    94ec:	e1a03000 	mov	r3, r0
    94f0:	e1b0c0ac 	lsrs	ip, ip, #1
    94f4:	1afffff8 	bne	94dc <emit+0x134>
    94f8:	ea000008 	b	9520 <emit+0x178>
    94fc:	ebffff72 	bl	92cc <rpi_reset_putc>
    9500:	e59f304c 	ldr	r3, [pc, #76]	; 9554 <emit+0x1ac>
    9504:	e58d3000 	str	r3, [sp]
    9508:	e59f0048 	ldr	r0, [pc, #72]	; 9558 <emit+0x1b0>
    950c:	e59f1048 	ldr	r1, [pc, #72]	; 955c <emit+0x1b4>
    9510:	e59f2048 	ldr	r2, [pc, #72]	; 9560 <emit+0x1b8>
    9514:	e3a03077 	mov	r3, #119	; 0x77
    9518:	ebffff50 	bl	9260 <printk>
    951c:	eb0000e7 	bl	98c0 <clean_reboot>
    9520:	e28d1008 	add	r1, sp, #8
    9524:	ebffff84 	bl	933c <pad>
    9528:	e1a02000 	mov	r2, r0
    952c:	e1a00005 	mov	r0, r5
    9530:	e1a01004 	mov	r1, r4
    9534:	e28d3008 	add	r3, sp, #8
    9538:	ebffff8a 	bl	9368 <reverse>
    953c:	e28dd048 	add	sp, sp, #72	; 0x48
    9540:	e8bd81f0 	pop	{r4, r5, r6, r7, r8, pc}
    9544:	cccccccd 	stclgt	12, cr12, [ip], {205}	; 0xcd
    9548:	0000a518 	andeq	sl, r0, r8, lsl r5
    954c:	0000a524 	andeq	sl, r0, r4, lsr #10
    9550:	0000a538 	andeq	sl, r0, r8, lsr r5
    9554:	0000a514 	andeq	sl, r0, r4, lsl r5
    9558:	00009e78 	andeq	r9, r0, r8, ror lr
    955c:	0000a500 	andeq	sl, r0, r0, lsl #10
    9560:	0000a4dc 	ldrdeq	sl, [r0], -ip

00009564 <rpi_set_output>:
    9564:	e52de004 	push	{lr}		; (str lr, [sp, #-4]!)
    9568:	e24dd00c 	sub	sp, sp, #12
    956c:	e3500000 	cmp	r0, #0
    9570:	1a000008 	bne	9598 <rpi_set_output+0x34>
    9574:	ebffff54 	bl	92cc <rpi_reset_putc>
    9578:	e59f3034 	ldr	r3, [pc, #52]	; 95b4 <rpi_set_output+0x50>
    957c:	e58d3000 	str	r3, [sp]
    9580:	e59f0030 	ldr	r0, [pc, #48]	; 95b8 <rpi_set_output+0x54>
    9584:	e59f1030 	ldr	r1, [pc, #48]	; 95bc <rpi_set_output+0x58>
    9588:	e59f2030 	ldr	r2, [pc, #48]	; 95c0 <rpi_set_output+0x5c>
    958c:	e3a03020 	mov	r3, #32
    9590:	ebffff32 	bl	9260 <printk>
    9594:	eb0000c9 	bl	98c0 <clean_reboot>
    9598:	e59f3024 	ldr	r3, [pc, #36]	; 95c4 <rpi_set_output+0x60>
    959c:	e5830000 	str	r0, [r3]
    95a0:	e3510000 	cmp	r1, #0
    95a4:	159f301c 	ldrne	r3, [pc, #28]	; 95c8 <rpi_set_output+0x64>
    95a8:	15831000 	strne	r1, [r3]
    95ac:	e28dd00c 	add	sp, sp, #12
    95b0:	e49df004 	pop	{pc}		; (ldr pc, [sp], #4)
    95b4:	0000a53c 	andeq	sl, r0, ip, lsr r5
    95b8:	00009e78 	andeq	r9, r0, r8, ror lr
    95bc:	0000a500 	andeq	sl, r0, r0, lsl #10
    95c0:	0000a4e4 	andeq	sl, r0, r4, ror #9
    95c4:	00009e70 	andeq	r9, r0, r0, ror lr
    95c8:	00009e74 	andeq	r9, r0, r4, ror lr

000095cc <va_printk>:
    95cc:	e92d4ff0 	push	{r4, r5, r6, r7, r8, r9, sl, fp, lr}
    95d0:	e24dd094 	sub	sp, sp, #148	; 0x94
    95d4:	e1a0b000 	mov	fp, r0
    95d8:	e58d200c 	str	r2, [sp, #12]
    95dc:	e1a0a003 	mov	sl, r3
    95e0:	e2411001 	sub	r1, r1, #1
    95e4:	e0808001 	add	r8, r0, r1
    95e8:	e3a03000 	mov	r3, #0
    95ec:	e5c03000 	strb	r3, [r0]
    95f0:	e1a04000 	mov	r4, r0
    95f4:	e1a06002 	mov	r6, r2
    95f8:	ea000095 	b	9854 <va_printk+0x288>
    95fc:	e3530025 	cmp	r3, #37	; 0x25
    9600:	12866001 	addne	r6, r6, #1
    9604:	15c43000 	strbne	r3, [r4]
    9608:	12844001 	addne	r4, r4, #1
    960c:	1a000090 	bne	9854 <va_printk+0x288>
    9610:	e5d62001 	ldrb	r2, [r6, #1]
    9614:	e3520025 	cmp	r2, #37	; 0x25
    9618:	05c43000 	strbeq	r3, [r4]
    961c:	02866002 	addeq	r6, r6, #2
    9620:	02844001 	addeq	r4, r4, #1
    9624:	0a00008a 	beq	9854 <va_printk+0x288>
    9628:	e2866001 	add	r6, r6, #1
    962c:	e3a07000 	mov	r7, #0
    9630:	ea000004 	b	9648 <va_printk+0x7c>
    9634:	e0877107 	add	r7, r7, r7, lsl #2
    9638:	e1a07087 	lsl	r7, r7, #1
    963c:	e0877005 	add	r7, r7, r5
    9640:	e2477030 	sub	r7, r7, #48	; 0x30
    9644:	e2866001 	add	r6, r6, #1
    9648:	e5d65000 	ldrb	r5, [r6]
    964c:	e1a09005 	mov	r9, r5
    9650:	e1a00005 	mov	r0, r5
    9654:	ebffff33 	bl	9328 <isdigit>
    9658:	e3500000 	cmp	r0, #0
    965c:	1afffff4 	bne	9634 <va_printk+0x68>
    9660:	e357001f 	cmp	r7, #31
    9664:	9a000008 	bls	968c <va_printk+0xc0>
    9668:	ebffff17 	bl	92cc <rpi_reset_putc>
    966c:	e59f320c 	ldr	r3, [pc, #524]	; 9880 <va_printk+0x2b4>
    9670:	e58d3000 	str	r3, [sp]
    9674:	e59f0208 	ldr	r0, [pc, #520]	; 9884 <va_printk+0x2b8>
    9678:	e59f1208 	ldr	r1, [pc, #520]	; 9888 <va_printk+0x2bc>
    967c:	e59f2208 	ldr	r2, [pc, #520]	; 988c <va_printk+0x2c0>
    9680:	e3a03095 	mov	r3, #149	; 0x95
    9684:	ebfffef5 	bl	9260 <printk>
    9688:	eb00008c 	bl	98c0 <clean_reboot>
    968c:	e2455062 	sub	r5, r5, #98	; 0x62
    9690:	e3550016 	cmp	r5, #22
    9694:	979ff105 	ldrls	pc, [pc, r5, lsl #2]
    9698:	ea000052 	b	97e8 <va_printk+0x21c>
    969c:	0000978c 	andeq	r9, r0, ip, lsl #15
    96a0:	000097c0 	andeq	r9, r0, r0, asr #15
    96a4:	00009714 	andeq	r9, r0, r4, lsl r7
    96a8:	000097e8 	andeq	r9, r0, r8, ror #15
    96ac:	000096f8 	strdeq	r9, [r0], -r8
    96b0:	000097e8 	andeq	r9, r0, r8, ror #15
    96b4:	000097e8 	andeq	r9, r0, r8, ror #15
    96b8:	000097e8 	andeq	r9, r0, r8, ror #15
    96bc:	000097e8 	andeq	r9, r0, r8, ror #15
    96c0:	000097e8 	andeq	r9, r0, r8, ror #15
    96c4:	000097e8 	andeq	r9, r0, r8, ror #15
    96c8:	000097e8 	andeq	r9, r0, r8, ror #15
    96cc:	000097e8 	andeq	r9, r0, r8, ror #15
    96d0:	000097e8 	andeq	r9, r0, r8, ror #15
    96d4:	00009764 	andeq	r9, r0, r4, ror #14
    96d8:	000097e8 	andeq	r9, r0, r8, ror #15
    96dc:	000097e8 	andeq	r9, r0, r8, ror #15
    96e0:	000097b4 			; <UNDEFINED> instruction: 0x000097b4
    96e4:	000097e8 	andeq	r9, r0, r8, ror #15
    96e8:	0000973c 	andeq	r9, r0, ip, lsr r7
    96ec:	000097e8 	andeq	r9, r0, r8, ror #15
    96f0:	000097e8 	andeq	r9, r0, r8, ror #15
    96f4:	00009764 	andeq	r9, r0, r4, ror #14
    96f8:	ebfffef3 	bl	92cc <rpi_reset_putc>
    96fc:	e59f018c 	ldr	r0, [pc, #396]	; 9890 <va_printk+0x2c4>
    9700:	e59f1180 	ldr	r1, [pc, #384]	; 9888 <va_printk+0x2bc>
    9704:	e59f2180 	ldr	r2, [pc, #384]	; 988c <va_printk+0x2c0>
    9708:	e3a0309b 	mov	r3, #155	; 0x9b
    970c:	ebfffed3 	bl	9260 <printk>
    9710:	eb00006a 	bl	98c0 <clean_reboot>
    9714:	e59a3000 	ldr	r3, [sl]
    9718:	e28aa004 	add	sl, sl, #4
    971c:	e58d7000 	str	r7, [sp]
    9720:	e3a02001 	mov	r2, #1
    9724:	e58d2004 	str	r2, [sp, #4]
    9728:	e3a0000a 	mov	r0, #10
    972c:	e28d1010 	add	r1, sp, #16
    9730:	e3a02080 	mov	r2, #128	; 0x80
    9734:	ebffff1b 	bl	93a8 <emit>
    9738:	ea00003b 	b	982c <va_printk+0x260>
    973c:	e59a3000 	ldr	r3, [sl]
    9740:	e28aa004 	add	sl, sl, #4
    9744:	e58d7000 	str	r7, [sp]
    9748:	e3a02000 	mov	r2, #0
    974c:	e58d2004 	str	r2, [sp, #4]
    9750:	e3a0000a 	mov	r0, #10
    9754:	e28d1010 	add	r1, sp, #16
    9758:	e3a02080 	mov	r2, #128	; 0x80
    975c:	ebffff11 	bl	93a8 <emit>
    9760:	ea000031 	b	982c <va_printk+0x260>
    9764:	e59a3000 	ldr	r3, [sl]
    9768:	e28aa004 	add	sl, sl, #4
    976c:	e58d7000 	str	r7, [sp]
    9770:	e3a02000 	mov	r2, #0
    9774:	e58d2004 	str	r2, [sp, #4]
    9778:	e3a00010 	mov	r0, #16
    977c:	e08d1000 	add	r1, sp, r0
    9780:	e3a02080 	mov	r2, #128	; 0x80
    9784:	ebffff07 	bl	93a8 <emit>
    9788:	ea000027 	b	982c <va_printk+0x260>
    978c:	e59a3000 	ldr	r3, [sl]
    9790:	e28aa004 	add	sl, sl, #4
    9794:	e58d7000 	str	r7, [sp]
    9798:	e3a02000 	mov	r2, #0
    979c:	e58d2004 	str	r2, [sp, #4]
    97a0:	e3a00002 	mov	r0, #2
    97a4:	e28d1010 	add	r1, sp, #16
    97a8:	e3a02080 	mov	r2, #128	; 0x80
    97ac:	ebfffefd 	bl	93a8 <emit>
    97b0:	ea00001d 	b	982c <va_printk+0x260>
    97b4:	e59a0000 	ldr	r0, [sl]
    97b8:	e28aa004 	add	sl, sl, #4
    97bc:	ea00001a 	b	982c <va_printk+0x260>
    97c0:	e59a3000 	ldr	r3, [sl]
    97c4:	e28aa004 	add	sl, sl, #4
    97c8:	e58d7000 	str	r7, [sp]
    97cc:	e3a02000 	mov	r2, #0
    97d0:	e58d2004 	str	r2, [sp, #4]
    97d4:	e3a00008 	mov	r0, #8
    97d8:	e28d1010 	add	r1, sp, #16
    97dc:	e3a02080 	mov	r2, #128	; 0x80
    97e0:	ebfffef0 	bl	93a8 <emit>
    97e4:	ea000010 	b	982c <va_printk+0x260>
    97e8:	e3a03000 	mov	r3, #0
    97ec:	e5c63001 	strb	r3, [r6, #1]
    97f0:	e59f009c 	ldr	r0, [pc, #156]	; 9894 <va_printk+0x2c8>
    97f4:	e1a01009 	mov	r1, r9
    97f8:	e1a02009 	mov	r2, r9
    97fc:	ebfffe97 	bl	9260 <printk>
    9800:	e59f3090 	ldr	r3, [pc, #144]	; 9898 <va_printk+0x2cc>
    9804:	e5933000 	ldr	r3, [r3]
    9808:	e59d000c 	ldr	r0, [sp, #12]
    980c:	e12fff33 	blx	r3
    9810:	ebfffead 	bl	92cc <rpi_reset_putc>
    9814:	e59f0080 	ldr	r0, [pc, #128]	; 989c <va_printk+0x2d0>
    9818:	e59f1068 	ldr	r1, [pc, #104]	; 9888 <va_printk+0x2bc>
    981c:	e59f2068 	ldr	r2, [pc, #104]	; 988c <va_printk+0x2c0>
    9820:	e3a030bf 	mov	r3, #191	; 0xbf
    9824:	ebfffe8d 	bl	9260 <printk>
    9828:	eb000024 	bl	98c0 <clean_reboot>
    982c:	e2866001 	add	r6, r6, #1
    9830:	ea000002 	b	9840 <va_printk+0x274>
    9834:	e2800001 	add	r0, r0, #1
    9838:	e5c43000 	strb	r3, [r4]
    983c:	e2844001 	add	r4, r4, #1
    9840:	e1540008 	cmp	r4, r8
    9844:	2a000002 	bcs	9854 <va_printk+0x288>
    9848:	e5d03000 	ldrb	r3, [r0]
    984c:	e3530000 	cmp	r3, #0
    9850:	1afffff7 	bne	9834 <va_printk+0x268>
    9854:	e5d63000 	ldrb	r3, [r6]
    9858:	e3530000 	cmp	r3, #0
    985c:	0a000001 	beq	9868 <va_printk+0x29c>
    9860:	e1540008 	cmp	r4, r8
    9864:	3affff64 	bcc	95fc <va_printk+0x30>
    9868:	e2840001 	add	r0, r4, #1
    986c:	e3a03000 	mov	r3, #0
    9870:	e5c43000 	strb	r3, [r4]
    9874:	e06b0000 	rsb	r0, fp, r0
    9878:	e28dd094 	add	sp, sp, #148	; 0x94
    987c:	e8bd8ff0 	pop	{r4, r5, r6, r7, r8, r9, sl, fp, pc}
    9880:	0000a544 	andeq	sl, r0, r4, asr #10
    9884:	00009e78 	andeq	r9, r0, r8, ror lr
    9888:	0000a500 	andeq	sl, r0, r0, lsl #10
    988c:	0000a4f4 	strdeq	sl, [r0], -r4
    9890:	0000a550 	andeq	sl, r0, r0, asr r5
    9894:	0000a578 	andeq	sl, r0, r8, ror r5
    9898:	00009e74 	andeq	r9, r0, r4, ror lr
    989c:	0000a5a8 	andeq	sl, r0, r8, lsr #11

000098a0 <enable_cache>:
    98a0:	ee113f10 	mrc	15, 0, r3, cr1, cr0, {0}
    98a4:	e3833b06 	orr	r3, r3, #6144	; 0x1800
    98a8:	ee013f10 	mcr	15, 0, r3, cr1, cr0, {0}
    98ac:	e12fff1e 	bx	lr

000098b0 <disable_cache>:
    98b0:	ee113f10 	mrc	15, 0, r3, cr1, cr0, {0}
    98b4:	e3c33b06 	bic	r3, r3, #6144	; 0x1800
    98b8:	ee013f10 	mcr	15, 0, r3, cr1, cr0, {0}
    98bc:	e12fff1e 	bx	lr

000098c0 <clean_reboot>:
    98c0:	e92d4008 	push	{r3, lr}
    98c4:	eb00004a 	bl	99f4 <reboot_handler>
    98c8:	e59f3014 	ldr	r3, [pc, #20]	; 98e4 <clean_reboot+0x24>
    98cc:	e5933000 	ldr	r3, [r3]
    98d0:	e59f0010 	ldr	r0, [pc, #16]	; 98e8 <clean_reboot+0x28>
    98d4:	e12fff33 	blx	r3
    98d8:	e3a00064 	mov	r0, #100	; 0x64
    98dc:	eb000099 	bl	9b48 <delay_ms>
    98e0:	eb00006a 	bl	9a90 <rpi_reboot>
    98e4:	00009e74 	andeq	r9, r0, r4, ror lr
    98e8:	0000a5c8 	andeq	sl, r0, r8, asr #11

000098ec <_cstart>:
    98ec:	e92d4008 	push	{r3, lr}
    98f0:	e59f3024 	ldr	r3, [pc, #36]	; 991c <_cstart+0x30>
    98f4:	e59f2024 	ldr	r2, [pc, #36]	; 9920 <_cstart+0x34>
    98f8:	e3a01000 	mov	r1, #0
    98fc:	ea000001 	b	9908 <_cstart+0x1c>
    9900:	e5831000 	str	r1, [r3]
    9904:	e2833004 	add	r3, r3, #4
    9908:	e1530002 	cmp	r3, r2
    990c:	3afffffb 	bcc	9900 <_cstart+0x14>
    9910:	eb000036 	bl	99f0 <cstart_handler>
    9914:	ebfffabb 	bl	8408 <notmain>
    9918:	ebffffe8 	bl	98c0 <clean_reboot>
    991c:	0000a6ec 	andeq	sl, r0, ip, ror #13
    9920:	0000ab10 	andeq	sl, r0, r0, lsl fp

00009924 <fast_interrupt_vector>:
    9924:	e52de004 	push	{lr}		; (str lr, [sp, #-4]!)
    9928:	e24dd00c 	sub	sp, sp, #12
    992c:	e1a04000 	mov	r4, r0
    9930:	ebfffe65 	bl	92cc <rpi_reset_putc>
    9934:	e59f301c 	ldr	r3, [pc, #28]	; 9958 <fast_interrupt_vector+0x34>
    9938:	e58d3000 	str	r3, [sp]
    993c:	e58d4004 	str	r4, [sp, #4]
    9940:	e59f0014 	ldr	r0, [pc, #20]	; 995c <fast_interrupt_vector+0x38>
    9944:	e59f1014 	ldr	r1, [pc, #20]	; 9960 <fast_interrupt_vector+0x3c>
    9948:	e59f2014 	ldr	r2, [pc, #20]	; 9964 <fast_interrupt_vector+0x40>
    994c:	e3a03002 	mov	r3, #2
    9950:	ebfffe42 	bl	9260 <printk>
    9954:	ebffffd9 	bl	98c0 <clean_reboot>
    9958:	0000a64c 	andeq	sl, r0, ip, asr #12
    995c:	0000a5ec 	andeq	sl, r0, ip, ror #11
    9960:	0000a628 	andeq	sl, r0, r8, lsr #12
    9964:	0000a5d4 	ldrdeq	sl, [r0], -r4

00009968 <reset_vector>:
    9968:	e52de004 	push	{lr}		; (str lr, [sp, #-4]!)
    996c:	e24dd00c 	sub	sp, sp, #12
    9970:	e1a04000 	mov	r4, r0
    9974:	ebfffe54 	bl	92cc <rpi_reset_putc>
    9978:	e59f301c 	ldr	r3, [pc, #28]	; 999c <reset_vector+0x34>
    997c:	e58d3000 	str	r3, [sp]
    9980:	e58d4004 	str	r4, [sp, #4]
    9984:	e59f0014 	ldr	r0, [pc, #20]	; 99a0 <reset_vector+0x38>
    9988:	e59f1014 	ldr	r1, [pc, #20]	; 99a4 <reset_vector+0x3c>
    998c:	e59f2014 	ldr	r2, [pc, #20]	; 99a8 <reset_vector+0x40>
    9990:	e3a03002 	mov	r3, #2
    9994:	ebfffe31 	bl	9260 <printk>
    9998:	ebffffc8 	bl	98c0 <clean_reboot>
    999c:	0000a688 	andeq	sl, r0, r8, lsl #13
    99a0:	0000a5ec 	andeq	sl, r0, ip, ror #11
    99a4:	0000a664 	andeq	sl, r0, r4, ror #12
    99a8:	0000a654 	andeq	sl, r0, r4, asr r6

000099ac <undefined_instruction_vector>:
    99ac:	e52de004 	push	{lr}		; (str lr, [sp, #-4]!)
    99b0:	e24dd00c 	sub	sp, sp, #12
    99b4:	e1a04000 	mov	r4, r0
    99b8:	ebfffe43 	bl	92cc <rpi_reset_putc>
    99bc:	e59f301c 	ldr	r3, [pc, #28]	; 99e0 <undefined_instruction_vector+0x34>
    99c0:	e58d3000 	str	r3, [sp]
    99c4:	e58d4004 	str	r4, [sp, #4]
    99c8:	e59f0014 	ldr	r0, [pc, #20]	; 99e4 <undefined_instruction_vector+0x38>
    99cc:	e59f1014 	ldr	r1, [pc, #20]	; 99e8 <undefined_instruction_vector+0x3c>
    99d0:	e59f2014 	ldr	r2, [pc, #20]	; 99ec <undefined_instruction_vector+0x40>
    99d4:	e3a03002 	mov	r3, #2
    99d8:	ebfffe20 	bl	9260 <printk>
    99dc:	ebffffb7 	bl	98c0 <clean_reboot>
    99e0:	0000a6dc 	ldrdeq	sl, [r0], -ip
    99e4:	0000a5ec 	andeq	sl, r0, ip, ror #11
    99e8:	0000a6b0 			; <UNDEFINED> instruction: 0x0000a6b0
    99ec:	0000a690 	muleq	r0, r0, r6

000099f0 <cstart_handler>:
    99f0:	e12fff1e 	bx	lr

000099f4 <reboot_handler>:
    99f4:	e12fff1e 	bx	lr

000099f8 <int_init>:
    99f8:	e92d4008 	push	{r3, lr}
    99fc:	eb00005b 	bl	9b70 <dev_barrier>
    9a00:	e59f004c 	ldr	r0, [pc, #76]	; 9a54 <int_init+0x5c>
    9a04:	e3e01000 	mvn	r1, #0
    9a08:	eb000060 	bl	9b90 <PUT32>
    9a0c:	e59f0044 	ldr	r0, [pc, #68]	; 9a58 <int_init+0x60>
    9a10:	e3e01000 	mvn	r1, #0
    9a14:	eb00005d 	bl	9b90 <PUT32>
    9a18:	eb000054 	bl	9b70 <dev_barrier>
    9a1c:	e59f3038 	ldr	r3, [pc, #56]	; 9a5c <int_init+0x64>
    9a20:	e59f0038 	ldr	r0, [pc, #56]	; 9a60 <int_init+0x68>
    9a24:	e0630000 	rsb	r0, r3, r0
    9a28:	e1a00140 	asr	r0, r0, #2
    9a2c:	e3a03000 	mov	r3, #0
    9a30:	e59fc024 	ldr	ip, [pc, #36]	; 9a5c <int_init+0x64>
    9a34:	ea000003 	b	9a48 <int_init+0x50>
    9a38:	e1a02103 	lsl	r2, r3, #2
    9a3c:	e79c1103 	ldr	r1, [ip, r3, lsl #2]
    9a40:	e5821000 	str	r1, [r2]
    9a44:	e2833001 	add	r3, r3, #1
    9a48:	e1530000 	cmp	r3, r0
    9a4c:	3afffff9 	bcc	9a38 <int_init+0x40>
    9a50:	e8bd8008 	pop	{r3, pc}
    9a54:	2000b21c 	andcs	fp, r0, ip, lsl r2
    9a58:	2000b220 	andcs	fp, r0, r0, lsr #4
    9a5c:	00008a20 	andeq	r8, r0, r0, lsr #20
    9a60:	00008a60 	andeq	r8, r0, r0, ror #20

00009a64 <at_user_level>:
    9a64:	e10f0000 	mrs	r0, CPSR
    9a68:	e200001f 	and	r0, r0, #31
    9a6c:	e3500010 	cmp	r0, #16
    9a70:	13a00000 	movne	r0, #0
    9a74:	03a00001 	moveq	r0, #1
    9a78:	e12fff1e 	bx	lr

00009a7c <set_user_level>:
    9a7c:	e10f3000 	mrs	r3, CPSR
    9a80:	e3c3301f 	bic	r3, r3, #31
    9a84:	e3833010 	orr	r3, r3, #16
    9a88:	e129f003 	msr	CPSR_fc, r3
    9a8c:	e12fff1e 	bx	lr

00009a90 <rpi_reboot>:
    9a90:	e92d4008 	push	{r3, lr}
    9a94:	ebfffff2 	bl	9a64 <at_user_level>
    9a98:	e3500000 	cmp	r0, #0
    9a9c:	0a000000 	beq	9aa4 <rpi_reboot+0x14>
    9aa0:	ebfffff5 	bl	9a7c <set_user_level>
    9aa4:	e3a0001e 	mov	r0, #30
    9aa8:	eb000026 	bl	9b48 <delay_ms>
    9aac:	e59f0014 	ldr	r0, [pc, #20]	; 9ac8 <rpi_reboot+0x38>
    9ab0:	e59f1014 	ldr	r1, [pc, #20]	; 9acc <rpi_reboot+0x3c>
    9ab4:	eb000035 	bl	9b90 <PUT32>
    9ab8:	e59f0010 	ldr	r0, [pc, #16]	; 9ad0 <rpi_reboot+0x40>
    9abc:	e59f1010 	ldr	r1, [pc, #16]	; 9ad4 <rpi_reboot+0x44>
    9ac0:	eb000032 	bl	9b90 <PUT32>
    9ac4:	eafffffe 	b	9ac4 <rpi_reboot+0x34>
    9ac8:	20100024 	andscs	r0, r0, r4, lsr #32
    9acc:	5a000001 	bpl	9ad8 <delay_cycles>
    9ad0:	2010001c 	andscs	r0, r0, ip, lsl r0
    9ad4:	5a000020 	bpl	9b5c <delay_sec>

00009ad8 <delay_cycles>:
    9ad8:	ea000001 	b	9ae4 <delay_cycles+0xc>
    9adc:	e2811000 	add	r1, r1, #0
    9ae0:	e1a00003 	mov	r0, r3
    9ae4:	e2403001 	sub	r3, r0, #1
    9ae8:	e3500000 	cmp	r0, #0
    9aec:	1afffffa 	bne	9adc <delay_cycles+0x4>
    9af0:	e12fff1e 	bx	lr

00009af4 <timer_get_usec_raw>:
    9af4:	e92d4008 	push	{r3, lr}
    9af8:	e59f0004 	ldr	r0, [pc, #4]	; 9b04 <timer_get_usec_raw+0x10>
    9afc:	eb00002f 	bl	9bc0 <GET32>
    9b00:	e8bd8008 	pop	{r3, pc}
    9b04:	20003004 	andcs	r3, r0, r4

00009b08 <timer_get_usec>:
    9b08:	e92d4010 	push	{r4, lr}
    9b0c:	eb000017 	bl	9b70 <dev_barrier>
    9b10:	ebfffff7 	bl	9af4 <timer_get_usec_raw>
    9b14:	e1a04000 	mov	r4, r0
    9b18:	eb000014 	bl	9b70 <dev_barrier>
    9b1c:	e1a00004 	mov	r0, r4
    9b20:	e8bd8010 	pop	{r4, pc}

00009b24 <delay_us>:
    9b24:	e92d4038 	push	{r3, r4, r5, lr}
    9b28:	e1a05000 	mov	r5, r0
    9b2c:	ebfffff5 	bl	9b08 <timer_get_usec>
    9b30:	e1a04000 	mov	r4, r0
    9b34:	ebfffff3 	bl	9b08 <timer_get_usec>
    9b38:	e0640000 	rsb	r0, r4, r0
    9b3c:	e1500005 	cmp	r0, r5
    9b40:	3afffffb 	bcc	9b34 <delay_us+0x10>
    9b44:	e8bd8038 	pop	{r3, r4, r5, pc}

00009b48 <delay_ms>:
    9b48:	e92d4008 	push	{r3, lr}
    9b4c:	e3a03ffa 	mov	r3, #1000	; 0x3e8
    9b50:	e0000093 	mul	r0, r3, r0
    9b54:	ebfffff2 	bl	9b24 <delay_us>
    9b58:	e8bd8008 	pop	{r3, pc}

00009b5c <delay_sec>:
    9b5c:	e92d4008 	push	{r3, lr}
    9b60:	e3a03ffa 	mov	r3, #1000	; 0x3e8
    9b64:	e0000093 	mul	r0, r3, r0
    9b68:	ebfffff6 	bl	9b48 <delay_ms>
    9b6c:	e8bd8008 	pop	{r3, pc}

00009b70 <dev_barrier>:
    9b70:	ea000002 	b	9b80 <dsb>

00009b74 <dmb>:
    9b74:	e3a00000 	mov	r0, #0
    9b78:	ee070fba 	mcr	15, 0, r0, cr7, cr10, {5}
    9b7c:	e12fff1e 	bx	lr

00009b80 <dsb>:
    9b80:	ee070f9a 	mcr	15, 0, r0, cr7, cr10, {4}
    9b84:	e12fff1e 	bx	lr

00009b88 <put32>:
    9b88:	e5801000 	str	r1, [r0]
    9b8c:	e12fff1e 	bx	lr

00009b90 <PUT32>:
    9b90:	e5801000 	str	r1, [r0]
    9b94:	e12fff1e 	bx	lr

00009b98 <put16>:
    9b98:	e1c010b0 	strh	r1, [r0]
    9b9c:	e12fff1e 	bx	lr

00009ba0 <PUT16>:
    9ba0:	e1c010b0 	strh	r1, [r0]
    9ba4:	e12fff1e 	bx	lr

00009ba8 <put8>:
    9ba8:	e5c01000 	strb	r1, [r0]
    9bac:	e12fff1e 	bx	lr

00009bb0 <PUT8>:
    9bb0:	e5c01000 	strb	r1, [r0]
    9bb4:	e12fff1e 	bx	lr

00009bb8 <get32>:
    9bb8:	e5900000 	ldr	r0, [r0]
    9bbc:	e12fff1e 	bx	lr

00009bc0 <GET32>:
    9bc0:	e5900000 	ldr	r0, [r0]
    9bc4:	e12fff1e 	bx	lr

00009bc8 <GETPC>:
    9bc8:	e1a0000e 	mov	r0, lr
    9bcc:	e12fff1e 	bx	lr

00009bd0 <dummy>:
    9bd0:	e12fff1e 	bx	lr

00009bd4 <or_in32>:
    9bd4:	e92d4070 	push	{r4, r5, r6, lr}
    9bd8:	e1a04000 	mov	r4, r0
    9bdc:	e1a05001 	mov	r5, r1
    9be0:	ebfffff4 	bl	9bb8 <get32>
    9be4:	e1801005 	orr	r1, r0, r5
    9be8:	e1a00004 	mov	r0, r4
    9bec:	ebffffe5 	bl	9b88 <put32>
    9bf0:	e8bd8070 	pop	{r4, r5, r6, pc}

00009bf4 <uart_init>:
    9bf4:	e92d4010 	push	{r4, lr}
    9bf8:	e3a01002 	mov	r1, #2
    9bfc:	e3a0000e 	mov	r0, #14
    9c00:	eb000051 	bl	9d4c <gpio_set_function>
    9c04:	e3a01002 	mov	r1, #2
    9c08:	e3a0000f 	mov	r0, #15
    9c0c:	eb00004e 	bl	9d4c <gpio_set_function>
    9c10:	ebffffd6 	bl	9b70 <dev_barrier>
    9c14:	e3a01001 	mov	r1, #1
    9c18:	e59f0064 	ldr	r0, [pc, #100]	; 9c84 <uart_init+0x90>
    9c1c:	ebffffec 	bl	9bd4 <or_in32>
    9c20:	ebffffd2 	bl	9b70 <dev_barrier>
    9c24:	e59f405c 	ldr	r4, [pc, #92]	; 9c88 <uart_init+0x94>
    9c28:	e3a01000 	mov	r1, #0
    9c2c:	e1a00004 	mov	r0, r4
    9c30:	ebffffd4 	bl	9b88 <put32>
    9c34:	e3a01000 	mov	r1, #0
    9c38:	e59f004c 	ldr	r0, [pc, #76]	; 9c8c <uart_init+0x98>
    9c3c:	ebffffd1 	bl	9b88 <put32>
    9c40:	e3a01003 	mov	r1, #3
    9c44:	e59f0044 	ldr	r0, [pc, #68]	; 9c90 <uart_init+0x9c>
    9c48:	ebffffce 	bl	9b88 <put32>
    9c4c:	e3a01000 	mov	r1, #0
    9c50:	e59f003c 	ldr	r0, [pc, #60]	; 9c94 <uart_init+0xa0>
    9c54:	ebffffcb 	bl	9b88 <put32>
    9c58:	e3a010c7 	mov	r1, #199	; 0xc7
    9c5c:	e59f0034 	ldr	r0, [pc, #52]	; 9c98 <uart_init+0xa4>
    9c60:	ebffffc8 	bl	9b88 <put32>
    9c64:	e59f1030 	ldr	r1, [pc, #48]	; 9c9c <uart_init+0xa8>
    9c68:	e59f0030 	ldr	r0, [pc, #48]	; 9ca0 <uart_init+0xac>
    9c6c:	ebffffc5 	bl	9b88 <put32>
    9c70:	e3a01003 	mov	r1, #3
    9c74:	e1a00004 	mov	r0, r4
    9c78:	ebffffc2 	bl	9b88 <put32>
    9c7c:	ebffffbb 	bl	9b70 <dev_barrier>
    9c80:	e8bd8010 	pop	{r4, pc}
    9c84:	20215004 	eorcs	r5, r1, r4
    9c88:	20215060 	eorcs	r5, r1, r0, rrx
    9c8c:	20215044 	eorcs	r5, r1, r4, asr #32
    9c90:	2021504c 	eorcs	r5, r1, ip, asr #32
    9c94:	20215050 	eorcs	r5, r1, r0, asr r0
    9c98:	20215048 	eorcs	r5, r1, r8, asr #32
    9c9c:	0000010e 	andeq	r0, r0, lr, lsl #2
    9ca0:	20215068 	eorcs	r5, r1, r8, rrx

00009ca4 <uart_can_getc>:
    9ca4:	e92d4010 	push	{r4, lr}
    9ca8:	e59f0008 	ldr	r0, [pc, #8]	; 9cb8 <uart_can_getc+0x14>
    9cac:	ebffffc1 	bl	9bb8 <get32>
    9cb0:	e2000001 	and	r0, r0, #1
    9cb4:	e8bd8010 	pop	{r4, pc}
    9cb8:	20215064 	eorcs	r5, r1, r4, rrx

00009cbc <uart_can_putc>:
    9cbc:	e92d4010 	push	{r4, lr}
    9cc0:	e59f0010 	ldr	r0, [pc, #16]	; 9cd8 <uart_can_putc+0x1c>
    9cc4:	ebffffbb 	bl	9bb8 <get32>
    9cc8:	e3100002 	tst	r0, #2
    9ccc:	13a00001 	movne	r0, #1
    9cd0:	03a00000 	moveq	r0, #0
    9cd4:	e8bd8010 	pop	{r4, pc}
    9cd8:	20215064 	eorcs	r5, r1, r4, rrx

00009cdc <uart_getc>:
    9cdc:	e92d4010 	push	{r4, lr}
    9ce0:	ebffffa2 	bl	9b70 <dev_barrier>
    9ce4:	ebffffee 	bl	9ca4 <uart_can_getc>
    9ce8:	e3500000 	cmp	r0, #0
    9cec:	0afffffc 	beq	9ce4 <uart_getc+0x8>
    9cf0:	e59f0010 	ldr	r0, [pc, #16]	; 9d08 <uart_getc+0x2c>
    9cf4:	ebffffaf 	bl	9bb8 <get32>
    9cf8:	e6ef4070 	uxtb	r4, r0
    9cfc:	ebffff9b 	bl	9b70 <dev_barrier>
    9d00:	e1a00004 	mov	r0, r4
    9d04:	e8bd8010 	pop	{r4, pc}
    9d08:	20215040 	eorcs	r5, r1, r0, asr #32

00009d0c <uart_putc>:
    9d0c:	e92d4010 	push	{r4, lr}
    9d10:	e1a04000 	mov	r4, r0
    9d14:	ebffff95 	bl	9b70 <dev_barrier>
    9d18:	ebffffe7 	bl	9cbc <uart_can_putc>
    9d1c:	e3500000 	cmp	r0, #0
    9d20:	0afffffc 	beq	9d18 <uart_putc+0xc>
    9d24:	e6ef1074 	uxtb	r1, r4
    9d28:	e59f0008 	ldr	r0, [pc, #8]	; 9d38 <uart_putc+0x2c>
    9d2c:	ebffff95 	bl	9b88 <put32>
    9d30:	ebffff8e 	bl	9b70 <dev_barrier>
    9d34:	e8bd8010 	pop	{r4, pc}
    9d38:	20215040 	eorcs	r5, r1, r0, asr #32

00009d3c <uart_has_data>:
    9d3c:	e92d4010 	push	{r4, lr}
    9d40:	ebffff8a 	bl	9b70 <dev_barrier>
    9d44:	ebffffd6 	bl	9ca4 <uart_can_getc>
    9d48:	e8bd8010 	pop	{r4, pc}

00009d4c <gpio_set_function>:
    9d4c:	e350001f 	cmp	r0, #31
    9d50:	812fff1e 	bxhi	lr
    9d54:	e3d13007 	bics	r3, r1, #7
    9d58:	112fff1e 	bxne	lr
    9d5c:	e92d4070 	push	{r4, r5, r6, lr}
    9d60:	e1a05001 	mov	r5, r1
    9d64:	e59f3044 	ldr	r3, [pc, #68]	; 9db0 <gpio_set_function+0x64>
    9d68:	e0832093 	umull	r2, r3, r3, r0
    9d6c:	e1a031a3 	lsr	r3, r3, #3
    9d70:	e1a06003 	mov	r6, r3
    9d74:	e0833103 	add	r3, r3, r3, lsl #2
    9d78:	e1a02083 	lsl	r2, r3, #1
    9d7c:	e0403002 	sub	r3, r0, r2
    9d80:	e0834083 	add	r4, r3, r3, lsl #1
    9d84:	e2866302 	add	r6, r6, #134217728	; 0x8000000
    9d88:	e2866702 	add	r6, r6, #524288	; 0x80000
    9d8c:	e1a06106 	lsl	r6, r6, #2
    9d90:	e1a00006 	mov	r0, r6
    9d94:	ebffff89 	bl	9bc0 <GET32>
    9d98:	e3a01007 	mov	r1, #7
    9d9c:	e1c01411 	bic	r1, r0, r1, lsl r4
    9da0:	e1811415 	orr	r1, r1, r5, lsl r4
    9da4:	e1a00006 	mov	r0, r6
    9da8:	ebffff78 	bl	9b90 <PUT32>
    9dac:	e8bd8070 	pop	{r4, r5, r6, pc}
    9db0:	cccccccd 	stclgt	12, cr12, [ip], {205}	; 0xcd

00009db4 <gpio_set_output>:
    9db4:	e92d4010 	push	{r4, lr}
    9db8:	e3a01001 	mov	r1, #1
    9dbc:	ebffffe2 	bl	9d4c <gpio_set_function>
    9dc0:	e8bd8010 	pop	{r4, pc}

00009dc4 <gpio_set_on>:
    9dc4:	e350001f 	cmp	r0, #31
    9dc8:	812fff1e 	bxhi	lr
    9dcc:	e92d4010 	push	{r4, lr}
    9dd0:	e3a01001 	mov	r1, #1
    9dd4:	e1a01011 	lsl	r1, r1, r0
    9dd8:	e59f0004 	ldr	r0, [pc, #4]	; 9de4 <gpio_set_on+0x20>
    9ddc:	ebffff6b 	bl	9b90 <PUT32>
    9de0:	e8bd8010 	pop	{r4, pc}
    9de4:	2020001c 	eorcs	r0, r0, ip, lsl r0

00009de8 <gpio_set_off>:
    9de8:	e350001f 	cmp	r0, #31
    9dec:	812fff1e 	bxhi	lr
    9df0:	e92d4010 	push	{r4, lr}
    9df4:	e3a01001 	mov	r1, #1
    9df8:	e1a01011 	lsl	r1, r1, r0
    9dfc:	e59f0004 	ldr	r0, [pc, #4]	; 9e08 <gpio_set_off+0x20>
    9e00:	ebffff62 	bl	9b90 <PUT32>
    9e04:	e8bd8010 	pop	{r4, pc}
    9e08:	20200028 	eorcs	r0, r0, r8, lsr #32

00009e0c <gpio_set_input>:
    9e0c:	e92d4010 	push	{r4, lr}
    9e10:	e3a01000 	mov	r1, #0
    9e14:	ebffffcc 	bl	9d4c <gpio_set_function>
    9e18:	e8bd8010 	pop	{r4, pc}

00009e1c <gpio_write>:
    9e1c:	e92d4010 	push	{r4, lr}
    9e20:	e3510000 	cmp	r1, #0
    9e24:	1a000001 	bne	9e30 <gpio_write+0x14>
    9e28:	ebffffee 	bl	9de8 <gpio_set_off>
    9e2c:	e8bd8010 	pop	{r4, pc}
    9e30:	ebffffe3 	bl	9dc4 <gpio_set_on>
    9e34:	e8bd8010 	pop	{r4, pc}

00009e38 <gpio_read>:
    9e38:	e350001f 	cmp	r0, #31
    9e3c:	8a000007 	bhi	9e60 <gpio_read+0x28>
    9e40:	e92d4010 	push	{r4, lr}
    9e44:	e200401f 	and	r4, r0, #31
    9e48:	e59f3018 	ldr	r3, [pc, #24]	; 9e68 <gpio_read+0x30>
    9e4c:	e08302a0 	add	r0, r3, r0, lsr #5
    9e50:	ebffff5a 	bl	9bc0 <GET32>
    9e54:	e1a00430 	lsr	r0, r0, r4
    9e58:	e2000001 	and	r0, r0, #1
    9e5c:	e8bd8010 	pop	{r4, pc}
    9e60:	e3e00000 	mvn	r0, #0
    9e64:	e12fff1e 	bx	lr
    9e68:	20200034 	eorcs	r0, r0, r4, lsr r0

00009e6c <__code_end__>:
    9e6c:	00000000 	andeq	r0, r0, r0

Disassembly of section .data:

00009e70 <__data_start__>:
    9e70:	000092b8 			; <UNDEFINED> instruction: 0x000092b8

00009e74 <putk>:
    9e74:	000092f4 	strdeq	r9, [r0], -r4

Disassembly of section .rodata:

00009e78 <C.0.4443-0x1dc>:
    9e78:	494e4150 	stmdbmi	lr, {r4, r6, r8, lr}^
    9e7c:	73253a43 	teqvc	r5, #274432	; 0x43000
    9e80:	3a73253a 	bcc	1cd3370 <__bss_end__+0x1cc8860>
    9e84:	253a6425 	ldrcs	r6, [sl, #-1061]!	; 0x425
    9e88:	00000a73 	andeq	r0, r0, r3, ror sl
    9e8c:	70632f2e 	rsbvc	r2, r3, lr, lsr #30
    9e90:	752d7273 	strvc	r7, [sp, #-627]!	; 0x273
    9e94:	2e6c6974 	mcrcs	9, 3, r6, cr12, cr4, {3}
    9e98:	00000068 	andeq	r0, r0, r8, rrx
    9e9c:	65646f6d 	strbvs	r6, [r4, #-3949]!	; 0xf6d
    9ea0:	67656c5f 			; <UNDEFINED> instruction: 0x67656c5f
    9ea4:	6d286c61 	stcvs	12, cr6, [r8, #-388]!	; 0xfffffe7c
    9ea8:	2965646f 	stmdbcs	r5!, {r0, r1, r2, r3, r5, r6, sl, sp, lr}^
    9eac:	00000000 	andeq	r0, r0, r0
    9eb0:	494e4150 	stmdbmi	lr, {r4, r6, r8, lr}^
    9eb4:	73253a43 	teqvc	r5, #274432	; 0x43000
    9eb8:	3a73253a 	bcc	1cd33a8 <__bss_end__+0x1cc8898>
    9ebc:	693a6425 	ldmdbvs	sl!, {r0, r2, r5, sl, sp, lr}
    9ec0:	736f706d 	cmnvc	pc, #109	; 0x6d
    9ec4:	6c626973 	stclvs	9, cr6, [r2], #-460	; 0xfffffe34
    9ec8:	000a0a65 	andeq	r0, sl, r5, ror #20
    9ecc:	74736574 	ldrbtvc	r6, [r3], #-1396	; 0x574
    9ed0:	302e3273 	eorcc	r3, lr, r3, ror r2
    9ed4:	2d36312f 	ldfcss	f3, [r6, #-188]!	; 0xffffff44
    9ed8:	74726170 	ldrbtvc	r6, [r2], #-368	; 0x170
    9edc:	65742d32 	ldrbvs	r2, [r4, #-3378]!	; 0xd32
    9ee0:	2e397473 	mrccs	4, 1, r7, cr9, cr3, {3}
    9ee4:	00000063 	andeq	r0, r0, r3, rrx
    9ee8:	69702f2e 	ldmdbvs	r0!, {r1, r2, r3, r5, r8, r9, sl, fp, sp}^
    9eec:	7379732d 	cmnvc	r9, #-1275068416	; 0xb4000000
    9ef0:	636f6c2d 	cmnvs	pc, #11520	; 0x2d00
    9ef4:	00682e6b 	rsbeq	r2, r8, fp, ror #28
    9ef8:	3d206c2a 	stccc	12, cr6, [r0, #-168]!	; 0xffffff58
    9efc:	0031203d 	eorseq	r2, r1, sp, lsr r0
    9f00:	000a7325 	andeq	r7, sl, r5, lsr #6
    9f04:	65646f6d 	strbvs	r6, [r4, #-3949]!	; 0xf6d
    9f08:	7465675f 	strbtvc	r6, [r5], #-1887	; 0x75f
    9f0c:	73706328 	cmnvc	r0, #40, 6	; 0xa0000000
    9f10:	65675f72 	strbvs	r5, [r7, #-3954]!	; 0xf72
    9f14:	29292874 	stmdbcs	r9!, {r2, r4, r5, r6, fp, sp}
    9f18:	203d3d20 	eorscs	r3, sp, r0, lsr #26
    9f1c:	52455355 	subpl	r5, r5, #1409286145	; 0x54000001
    9f20:	444f4d5f 	strbmi	r4, [pc], #-3423	; 9f28 <__data_end__+0xb0>
    9f24:	00000045 	andeq	r0, r0, r5, asr #32
    9f28:	3d746e63 	ldclcc	14, cr6, [r4, #-396]!	; 0xfffffe74
    9f2c:	0000323d 	andeq	r3, r0, sp, lsr r2
    9f30:	52455355 	subpl	r5, r5, #1409286145	; 0x54000001
    9f34:	444f4d20 	strbmi	r4, [pc], #-3360	; 9f3c <__data_end__+0xc4>
    9f38:	00000045 	andeq	r0, r0, r5, asr #32
    9f3c:	20514946 	subscs	r4, r1, r6, asr #18
    9f40:	45444f4d 	strbmi	r4, [r4, #-3917]	; 0xf4d
    9f44:	00000000 	andeq	r0, r0, r0
    9f48:	20515249 	subscs	r5, r1, r9, asr #4
    9f4c:	45444f4d 	strbmi	r4, [r4, #-3917]	; 0xf4d
    9f50:	00000000 	andeq	r0, r0, r0
    9f54:	45505553 	ldrbmi	r5, [r0, #-1363]	; 0x553
    9f58:	4f4d2052 	svcmi	0x004d2052
    9f5c:	00004544 	andeq	r4, r0, r4, asr #10
    9f60:	524f4241 	subpl	r4, pc, #268435460	; 0x10000004
    9f64:	4f4d2054 	svcmi	0x004d2054
    9f68:	00004544 	andeq	r4, r0, r4, asr #10
    9f6c:	45444e55 	strbmi	r4, [r4, #-3669]	; 0xe55
    9f70:	4f4d2046 	svcmi	0x004d2046
    9f74:	00004544 	andeq	r4, r0, r4, asr #10
    9f78:	20535953 	subscs	r5, r3, r3, asr r9
    9f7c:	45444f4d 	strbmi	r4, [r4, #-3917]	; 0xf4d
    9f80:	00000000 	andeq	r0, r0, r0
    9f84:	494e4150 	stmdbmi	lr, {r4, r6, r8, lr}^
    9f88:	73253a43 	teqvc	r5, #274432	; 0x43000
    9f8c:	3a73253a 	bcc	1cd347c <__bss_end__+0x1cc896c>
    9f90:	753a6425 	ldrvc	r6, [sl, #-1061]!	; 0x425
    9f94:	6f6e6b6e 	svcvs	0x006e6b6e
    9f98:	6d206e77 	stcvs	14, cr6, [r0, #-476]!	; 0xfffffe24
    9f9c:	3a65646f 	bcc	1963160 <__bss_end__+0x1958650>
    9fa0:	78253c20 	stmdavc	r5!, {r5, sl, fp, ip, sp}
    9fa4:	000a0a3e 	andeq	r0, sl, lr, lsr sl
    9fa8:	65646f6d 	strbvs	r6, [r4, #-3949]!	; 0xf6d
    9fac:	25203d20 	strcs	r3, [r0, #-3360]!	; 0xd20
    9fb0:	00000a73 	andeq	r0, r0, r3, ror sl
    9fb4:	5f737973 	svcpl	0x00737973
    9fb8:	6b636f6c 	blvs	18e5d70 <__bss_end__+0x18db260>
    9fbc:	7972745f 	ldmdbvc	r2!, {r0, r1, r2, r3, r4, r6, sl, ip, sp, lr}^
    9fc0:	296c2628 	stmdbcs	ip!, {r3, r5, r9, sl, sp}^
    9fc4:	00000000 	andeq	r0, r0, r0
    9fc8:	73797321 	cmnvc	r9, #-2080374784	; 0x84000000
    9fcc:	636f6c5f 	cmnvs	pc, #24320	; 0x5f00
    9fd0:	72745f6b 	rsbsvc	r5, r4, #428	; 0x1ac
    9fd4:	6c262879 	stcvs	8, cr2, [r6], #-484	; 0xfffffe1c
    9fd8:	00000029 	andeq	r0, r0, r9, lsr #32
    9fdc:	494e4150 	stmdbmi	lr, {r4, r6, r8, lr}^
    9fe0:	73253a43 	teqvc	r5, #274432	; 0x43000
    9fe4:	3a73253a 	bcc	1cd34d4 <__bss_end__+0x1cc89c4>
    9fe8:	633a6425 	teqvs	sl, #620756992	; 0x25000000
    9fec:	6b636568 	blvs	18e3594 <__bss_end__+0x18d8a84>
    9ff0:	6f687320 	svcvs	0x00687320
    9ff4:	20646c75 	rsbcs	r6, r4, r5, ror ip
    9ff8:	20746f6e 	rsbscs	r6, r4, lr, ror #30
    9ffc:	65766168 	ldrbvs	r6, [r6, #-360]!	; 0x168
    a000:	69616620 	stmdbvs	r1!, {r5, r9, sl, sp, lr}^
    a004:	2164656c 	cmncs	r4, ip, ror #10
    a008:	00000a0a 	andeq	r0, r0, sl, lsl #20
    a00c:	43435553 	movtmi	r5, #13651	; 0x3553
    a010:	3a535345 	bcc	14ded2c <__bss_end__+0x14d421c>
    a014:	00000000 	andeq	r0, r0, r0
    a018:	63656863 	cmnvs	r5, #6488064	; 0x630000
    a01c:	7573206b 	ldrbvc	r2, [r3, #-107]!	; 0x6b
    a020:	65656363 	strbvs	r6, [r5, #-867]!	; 0x363
    a024:	20646564 	rsbcs	r6, r4, r4, ror #10
    a028:	69207361 	stmdbvs	r0!, {r0, r5, r6, r8, r9, ip, sp, lr}
    a02c:	68732074 	ldmdavs	r3!, {r2, r4, r5, r6, sp}^
    a030:	646c756f 	strbtvs	r7, [ip], #-1391	; 0x56f
    a034:	76616820 	strbtvc	r6, [r1], -r0, lsr #16
    a038:	6e202c65 	cdpvs	12, 2, cr2, cr0, cr5, {3}
    a03c:	61697274 	smcvs	38692	; 0x9724
    a040:	253d736c 	ldrcs	r7, [sp, #-876]!	; 0x36c
    a044:	6e202c64 	cdpvs	12, 2, cr2, cr0, cr4, {3}
    a048:	6f727265 	svcvs	0x00727265
    a04c:	253d7372 	ldrcs	r7, [sp, #-882]!	; 0x372
    a050:	00000a64 	andeq	r0, r0, r4, ror #20

0000a054 <C.0.4443>:
    a054:	00000000 	andeq	r0, r0, r0
    a058:	000080ac 	andeq	r8, r0, ip, lsr #1
    a05c:	00008284 	andeq	r8, r0, r4, lsl #5
    a060:	0000830c 	andeq	r8, r0, ip, lsl #6
    a064:	0000832c 	andeq	r8, r0, ip, lsr #6
	...

0000a08c <__FUNCTION__.4439>:
    a08c:	5f746e63 	svcpl	0x00746e63
    a090:	63656863 	cmnvs	r5, #6488064	; 0x630000
    a094:	0000006b 	andeq	r0, r0, fp, rrx

0000a098 <__FUNCTION__.4398>:
    a098:	5f737973 	svcpl	0x00737973
    a09c:	6f6c6e75 	svcvs	0x006c6e75
    a0a0:	00006b63 	andeq	r6, r0, r3, ror #22

0000a0a4 <__FUNCTION__.4429>:
    a0a4:	5f746e63 	svcpl	0x00746e63
    a0a8:	00000041 	andeq	r0, r0, r1, asr #32

0000a0ac <__FUNCTION__.4406>:
    a0ac:	65646f6d 	strbvs	r6, [r4, #-3949]!	; 0xf6d
    a0b0:	7465675f 	strbtvc	r6, [r5], #-1887	; 0x75f
    a0b4:	00000000 	andeq	r0, r0, r0

0000a0b8 <__FUNCTION__.4251>:
    a0b8:	73746962 	cmnvc	r4, #1605632	; 0x188000
    a0bc:	7465675f 	strbtvc	r6, [r5], #-1887	; 0x75f
    a0c0:	00000000 	andeq	r0, r0, r0

0000a0c4 <__FUNCTION__.4447>:
    a0c4:	6d746f6e 	ldclvs	15, cr6, [r4, #-440]!	; 0xfffffe48
    a0c8:	006e6961 	rsbeq	r6, lr, r1, ror #18

0000a0cc <__FUNCTION__.4423>:
    a0cc:	65646f6d 	strbvs	r6, [r4, #-3949]!	; 0xf6d
    a0d0:	7274735f 	rsbsvc	r7, r4, #2080374785	; 0x7c000001
    a0d4:	00000000 	andeq	r0, r0, r0
    a0d8:	34317063 	ldrtcc	r7, [r1], #-99	; 0x63
    a0dc:	6265642d 	rsbvs	r6, r5, #754974720	; 0x2d000000
    a0e0:	632e6775 	teqvs	lr, #30670848	; 0x1d40000
    a0e4:	00000000 	andeq	r0, r0, r0
    a0e8:	30726377 	rsbscc	r6, r2, r7, ror r3
    a0ec:	6765725f 			; <UNDEFINED> instruction: 0x6765725f
    a0f0:	203d3d20 	eorscs	r3, sp, r0, lsr #26
    a0f4:	30726377 	rsbscc	r6, r2, r7, ror r3
    a0f8:	7465675f 	strbtvc	r6, [r5], #-1887	; 0x75f
    a0fc:	00002928 	andeq	r2, r0, r8, lsr #18
    a100:	494e4150 	stmdbmi	lr, {r4, r6, r8, lr}^
    a104:	73253a43 	teqvc	r5, #274432	; 0x43000
    a108:	3a73253a 	bcc	1cd35f8 <__bss_end__+0x1cc8ae8>
    a10c:	693a6425 	ldmdbvs	sl!, {r0, r2, r5, sl, sp, lr}
    a110:	736f706d 	cmnvc	pc, #109	; 0x6d
    a114:	6c626973 	stclvs	9, cr6, [r2], #-460	; 0xfffffe34
    a118:	73203a65 	teqvc	r0, #413696	; 0x65000
    a11c:	6c756f68 	ldclvs	15, cr6, [r5], #-416	; 0xfffffe60
    a120:	6e6f2064 	cdpvs	0, 6, cr2, cr15, cr4, {3}
    a124:	6720796c 	strvs	r7, [r0, -ip, ror #18]!
    a128:	64207465 	strtvs	r7, [r0], #-1125	; 0x465
    a12c:	66617461 	strbtvs	r7, [r1], -r1, ror #8
    a130:	746c7561 	strbtvc	r7, [ip], #-1377	; 0x561
    a134:	000a0a73 	andeq	r0, sl, r3, ror sl
    a138:	34317063 	ldrtcc	r7, [r1], #-99	; 0x63
    a13c:	6265642d 	rsbvs	r6, r5, #754974720	; 0x2d000000
    a140:	682e6775 	stmdavs	lr!, {r0, r2, r4, r5, r6, r8, r9, sl, sp, lr}
    a144:	00000000 	andeq	r0, r0, r0
    a148:	72616677 	rsbvc	r6, r1, #124780544	; 0x7700000
    a14c:	7465675f 	strbtvc	r6, [r5], #-1887	; 0x75f
    a150:	342d2928 	strtcc	r2, [sp], #-2344	; 0x928
    a154:	203d3d20 	eorscs	r3, sp, r0, lsr #26
    a158:	00006370 	andeq	r6, r0, r0, ror r3
    a15c:	63746177 	cmnvs	r4, #-1073741795	; 0xc000001d
    a160:	5f747068 	svcpl	0x00747068
    a164:	646e6168 	strbtvs	r6, [lr], #-360	; 0x168
    a168:	3072656c 	rsbscc	r6, r2, ip, ror #10
    a16c:	00000000 	andeq	r0, r0, r0
    a170:	494e4150 	stmdbmi	lr, {r4, r6, r8, lr}^
    a174:	73253a43 	teqvc	r5, #274432	; 0x43000
    a178:	3a73253a 	bcc	1cd3668 <__bss_end__+0x1cc8b58>
    a17c:	693a6425 	ldmdbvs	sl!, {r0, r2, r5, sl, sp, lr}
    a180:	736f706d 	cmnvc	pc, #109	; 0x6d
    a184:	6c626973 	stclvs	9, cr6, [r2], #-460	; 0xfffffe34
    a188:	73203a65 	teqvc	r0, #413696	; 0x65000
    a18c:	6c756f68 	ldclvs	15, cr6, [r5], #-416	; 0xfffffe60
    a190:	65672064 	strbvs	r2, [r7, #-100]!	; 0x64
    a194:	6f6e2074 	svcvs	0x006e2074
    a198:	68746f20 	ldmdavs	r4!, {r5, r8, r9, sl, fp, sp, lr}^
    a19c:	66207265 	strtvs	r7, [r0], -r5, ror #4
    a1a0:	746c7561 	strbtvc	r7, [ip], #-1377	; 0x561
    a1a4:	000a0a73 	andeq	r0, sl, r3, ror sl
    a1a8:	706b7262 	rsbvc	r7, fp, r2, ror #4
    a1ac:	61685f74 	smcvs	34292	; 0x85f4
    a1b0:	656c646e 	strbvs	r6, [ip, #-1134]!	; 0x46e
    a1b4:	00003072 	andeq	r3, r0, r2, ror r0
    a1b8:	494e4150 	stmdbmi	lr, {r4, r6, r8, lr}^
    a1bc:	73253a43 	teqvc	r5, #274432	; 0x43000
    a1c0:	3a73253a 	bcc	1cd36b0 <__bss_end__+0x1cc8ba0>
    a1c4:	723a6425 	eorsvc	r6, sl, #620756992	; 0x25000000
    a1c8:	72757465 	rsbsvc	r7, r5, #1694498816	; 0x65000000
    a1cc:	2064656e 	rsbcs	r6, r4, lr, ror #10
    a1d0:	20646e61 	rsbcs	r6, r4, r1, ror #28
    a1d4:	756f6873 	strbvc	r6, [pc, #-2163]!	; 9969 <reset_vector+0x1>
    a1d8:	6e20646c 	cdpvs	4, 2, cr6, cr0, cr12, {3}
    a1dc:	6820746f 	stmdavs	r0!, {r0, r1, r2, r3, r5, r6, sl, ip, sp, lr}
    a1e0:	21657661 	cmncs	r5, r1, ror #12
    a1e4:	00000a0a 	andeq	r0, r0, sl, lsl #20
    a1e8:	656c6c69 	strbvs	r6, [ip, #-3177]!	; 0xc69
    a1ec:	206c6167 	rsbcs	r6, ip, r7, ror #2
    a1f0:	74737973 	ldrbtvc	r7, [r3], #-2419	; 0x973
    a1f4:	63206d65 	teqvs	r0, #6464	; 0x1940
    a1f8:	206c6c61 	rsbcs	r6, ip, r1, ror #24
    a1fc:	000a6425 	andeq	r6, sl, r5, lsr #8

0000a200 <__FUNCTION__.4393>:
    a200:	63746177 	cmnvs	r4, #-1073741795	; 0xc000001d
    a204:	5f747068 	svcpl	0x00747068
    a208:	30746573 	rsbscc	r6, r4, r3, ror r5
    a20c:	00000000 	andeq	r0, r0, r0

0000a210 <__FUNCTION__.4399>:
    a210:	61746164 	cmnvs	r4, r4, ror #2
    a214:	6f62615f 	svcvs	0x0062615f
    a218:	765f7472 			; <UNDEFINED> instruction: 0x765f7472
    a21c:	6f746365 	svcvs	0x00746365
    a220:	00000072 	andeq	r0, r0, r2, ror r0

0000a224 <__FUNCTION__.4306>:
    a224:	5f736177 	svcpl	0x00736177
    a228:	75626564 	strbvc	r6, [r2, #-1380]!	; 0x564
    a22c:	61645f67 	cmnvs	r4, r7, ror #30
    a230:	61666174 	smcvs	26132	; 0x6614
    a234:	00746c75 	rsbseq	r6, r4, r5, ror ip

0000a238 <__FUNCTION__.4443>:
    a238:	66657270 			; <UNDEFINED> instruction: 0x66657270
    a23c:	68637465 	stmdavs	r3!, {r0, r2, r5, r6, sl, ip, sp, lr}^
    a240:	6f62615f 	svcvs	0x0062615f
    a244:	765f7472 			; <UNDEFINED> instruction: 0x765f7472
    a248:	6f746365 	svcvs	0x00746365
    a24c:	00000072 	andeq	r0, r0, r2, ror r0

0000a250 <__FUNCTION__.4451>:
    a250:	5f6b7262 	svcpl	0x006b7262
    a254:	725f6f6e 	subsvc	r6, pc, #440	; 0x1b8
    a258:	655f7465 	ldrbvs	r7, [pc, #-1125]	; 9dfb <gpio_set_off+0x13>
    a25c:	726f7272 	rsbvc	r7, pc, #536870919	; 0x20000007
    a260:	00000000 	andeq	r0, r0, r0
    a264:	253a7325 	ldrcs	r7, [sl, #-805]!	; 0x325
    a268:	64253a73 	strtvs	r3, [r5], #-2675	; 0xa73
    a26c:	6572703a 	ldrbvs	r7, [r2, #-58]!	; 0x3a
    a270:	63746566 	cmnvs	r4, #427819008	; 0x19800000
    a274:	62612068 	rsbvs	r2, r1, #104	; 0x68
    a278:	2074726f 	rsbscs	r7, r4, pc, ror #4
    a27c:	25207461 	strcs	r7, [r0, #-1121]!	; 0x461
    a280:	00000a70 	andeq	r0, r0, r0, ror sl
    a284:	63656863 	cmnvs	r5, #6488064	; 0x630000
    a288:	6e692d6b 	cdpvs	13, 6, cr2, cr9, cr11, {3}
    a28c:	6c726574 	cfldr64vs	mvdx6, [r2], #-464	; 0xfffffe30
    a290:	65766165 	ldrbvs	r6, [r6, #-357]!	; 0x165
    a294:	0000632e 	andeq	r6, r0, lr, lsr #6
    a298:	756f6261 	strbvc	r6, [pc, #-609]!	; a03f <__data_end__+0x1c7>
    a29c:	6f742074 	svcvs	0x00742074
    a2a0:	69777320 	ldmdbvs	r7!, {r5, r8, r9, ip, sp, lr}^
    a2a4:	20686374 	rsbcs	r6, r8, r4, ror r3
    a2a8:	6d6f7266 	sfmvs	f7, 2, [pc, #-408]!	; a118 <__FUNCTION__.4423+0x4c>
    a2ac:	20702520 	rsbscs	r2, r0, r0, lsr #10
    a2b0:	25206f74 	strcs	r6, [r0, #-3956]!	; 0xf74
    a2b4:	00000a70 	andeq	r0, r0, r0, ror sl
    a2b8:	656e6f64 	strbvs	r6, [lr, #-3940]!	; 0xf64
    a2bc:	6e757220 	cdpvs	2, 7, cr7, cr5, cr0, {1}
    a2c0:	676e696e 	strbvs	r6, [lr, -lr, ror #18]!
    a2c4:	202c4220 	eorcs	r4, ip, r0, lsr #4
    a2c8:	6e696f67 	cdpvs	15, 6, cr6, cr9, cr7, {3}
    a2cc:	6f742067 	svcvs	0x00742067
    a2d0:	74657220 	strbtvc	r7, [r5], #-544	; 0x220
    a2d4:	206e7275 	rsbcs	r7, lr, r5, ror r2
    a2d8:	41206f74 	teqmi	r0, r4, ror pc
    a2dc:	0000000a 	andeq	r0, r0, sl
    a2e0:	693e2d63 	ldmdbvs	lr!, {r0, r1, r5, r6, r8, sl, fp, sp}
    a2e4:	5f74736e 	svcpl	0x0074736e
    a2e8:	6e756f63 	cdpvs	15, 7, cr6, cr5, cr3, {3}
    a2ec:	203c2074 	eorscs	r2, ip, r4, ror r0
    a2f0:	733e2d63 	teqvc	lr, #6336	; 0x18c0
    a2f4:	63746977 	cmnvs	r4, #1949696	; 0x1dc000
    a2f8:	6e6f5f68 	cdpvs	15, 6, cr5, cr15, cr8, {3}
    a2fc:	736e695f 	cmnvc	lr, #1556480	; 0x17c000
    a300:	006e5f74 	rsbeq	r5, lr, r4, ror pc
    a304:	253a7325 	ldrcs	r7, [sl, #-805]!	; 0x325
    a308:	64253a73 	strtvs	r3, [r5], #-2675	; 0xa73
    a30c:	7465733a 	strbtvc	r7, [r5], #-826	; 0x33a
    a310:	676e6974 			; <UNDEFINED> instruction: 0x676e6974
    a314:	20707520 	rsbscs	r7, r0, r0, lsr #10
    a318:	696d2061 	stmdbvs	sp!, {r0, r5, r6, sp}^
    a31c:	74616d73 	strbtvc	r6, [r1], #-3443	; 0xd73
    a320:	6f206863 	svcvs	0x00206863
    a324:	7025206e 	eorvc	r2, r5, lr, rrx
    a328:	0000000a 	andeq	r0, r0, sl
    a32c:	253a7325 	ldrcs	r7, [sl, #-805]!	; 0x325
    a330:	64253a73 	strtvs	r3, [r5], #-2675	; 0xa73
    a334:	6e6f643a 	mcrvs	4, 3, r6, cr15, cr10, {1}
    a338:	65732065 	ldrbvs	r2, [r3, #-101]!	; 0x65
    a33c:	6e697474 	mcrvs	4, 3, r7, cr9, cr4, {3}
    a340:	70752067 	rsbsvc	r2, r5, r7, rrx
    a344:	6d206120 	stfvss	f6, [r0, #-128]!	; 0xffffff80
    a348:	616d7369 	cmnvs	sp, r9, ror #6
    a34c:	20686374 	rsbcs	r6, r8, r4, ror r3
    a350:	25206e6f 	strcs	r6, [r0, #-3695]!	; 0xe6f
    a354:	00000a70 	andeq	r0, r0, r0, ror sl
    a358:	253a7325 	ldrcs	r7, [sl, #-805]!	; 0x325
    a35c:	64253a73 	strtvs	r3, [r5], #-2675	; 0xa73
    a360:	6972743a 	ldmdbvs	r2!, {r1, r3, r4, r5, sl, ip, sp, lr}^
    a364:	253d6c61 	ldrcs	r6, [sp, #-3169]!	; 0xc61
    a368:	61203a64 	teqvs	r0, r4, ror #20
    a36c:	74756f62 	ldrbtvc	r6, [r5], #-3938	; 0xf62
    a370:	206f7420 	rsbcs	r7, pc, r0, lsr #8
    a374:	20746573 	rsbscs	r6, r4, r3, ror r5
    a378:	6d73696d 	ldclvs	9, cr6, [r3, #-436]!	; 0xfffffe4c
    a37c:	68637461 	stmdavs	r3!, {r0, r5, r6, sl, ip, sp, lr}^
    a380:	6b726220 	blvs	1ca2c08 <__bss_end__+0x1c980f8>
    a384:	66207470 			; <UNDEFINED> instruction: 0x66207470
    a388:	4120726f 	teqmi	r0, pc, ror #4
    a38c:	0000000a 	andeq	r0, r0, sl
    a390:	4f525245 	svcmi	0x00525245
    a394:	63203a52 	teqvs	r0, #335872	; 0x52000
    a398:	6b636568 	blvs	18e3940 <__bss_end__+0x18d8e30>
    a39c:	69616620 	stmdbvs	r1!, {r5, r9, sl, sp, lr}^
    a3a0:	2064656c 	rsbcs	r6, r4, ip, ror #10
    a3a4:	6e656877 	mcrvs	8, 3, r6, cr5, cr7, {3}
    a3a8:	69777320 	ldmdbvs	r7!, {r5, r8, r9, ip, sp, lr}^
    a3ac:	65686374 	strbvs	r6, [r8, #-884]!	; 0x374
    a3b0:	6e6f2064 	cdpvs	0, 6, cr2, cr15, cr4, {3}
    a3b4:	64646120 	strbtvs	r6, [r4], #-288	; 0x120
    a3b8:	73736572 	cmnvc	r3, #478150656	; 0x1c800000
    a3bc:	2c702520 	cfldr64cs	mvdx2, [r0], #-128	; 0xffffff80
    a3c0:	74666120 	strbtvc	r6, [r6], #-288	; 0x120
    a3c4:	25207265 	strcs	r7, [r0, #-613]!	; 0x265
    a3c8:	6e692064 	cdpvs	0, 6, cr2, cr9, cr4, {3}
    a3cc:	75727473 	ldrbvc	r7, [r2, #-1139]!	; 0x473
    a3d0:	6f697463 	svcvs	0x00697463
    a3d4:	000a736e 	andeq	r7, sl, lr, ror #6
    a3d8:	656e6f64 	strbvs	r6, [lr, #-3940]!	; 0xf64
    a3dc:	64202021 	strtvs	r2, [r0], #-33	; 0x21
    a3e0:	63206469 	teqvs	r0, #1761607680	; 0x69000000
    a3e4:	736e3e2d 	cmnvc	lr, #720	; 0x2d0
    a3e8:	63746977 	cmnvs	r4, #1949696	; 0x1dc000
    a3ec:	3d736568 	cfldr64cc	mvdx6, [r3, #-416]!	; 0xfffffe60
    a3f0:	202c6425 	eorcs	r6, ip, r5, lsr #8
    a3f4:	6972746e 	ldmdbvs	r2!, {r1, r2, r3, r5, r6, sl, ip, sp, lr}^
    a3f8:	3d736c61 	ldclcc	12, cr6, [r3, #-388]!	; 0xfffffe7c
    a3fc:	202c6425 	eorcs	r6, ip, r5, lsr #8
    a400:	7272656e 	rsbsvc	r6, r2, #461373440	; 0x1b800000
    a404:	3d73726f 	lfmcc	f7, 2, [r3, #-444]!	; 0xfffffe44
    a408:	000a6425 	andeq	r6, sl, r5, lsr #8
    a40c:	72737063 	rsbsvc	r7, r3, #99	; 0x63
    a410:	6974752d 	ldmdbvs	r4!, {r0, r2, r3, r5, r8, sl, ip, sp, lr}^
    a414:	00682e6c 	rsbeq	r2, r8, ip, ror #28
    a418:	65707865 	ldrbvs	r7, [r0, #-2149]!	; 0x865
    a41c:	64657463 	strbtvs	r7, [r5], #-1123	; 0x463
    a420:	646f6d20 	strbtvs	r6, [pc], #-3360	; a428 <__FUNCTION__.4451+0x1d8>
    a424:	203d2065 	eorscs	r2, sp, r5, rrx
    a428:	28207325 	stmdacs	r0!, {r0, r2, r5, r8, r9, ip, sp, lr}
    a42c:	0a297825 	beq	a684c8 <__bss_end__+0xa5d9b8>
    a430:	00000000 	andeq	r0, r0, r0
    a434:	72727563 	rsbsvc	r7, r2, #415236096	; 0x18c00000
    a438:	20746e65 	rsbscs	r6, r4, r5, ror #28
    a43c:	65646f6d 	strbvs	r6, [r4, #-3949]!	; 0xf6d
    a440:	25203d20 	strcs	r3, [r0, #-3360]!	; 0xd20
    a444:	25282073 	strcs	r2, [r8, #-115]!	; 0x73
    a448:	000a2978 	andeq	r2, sl, r8, ror r9
    a44c:	65646f6d 	strbvs	r6, [r4, #-3949]!	; 0xf6d
    a450:	7465675f 	strbtvc	r6, [r5], #-1887	; 0x75f
    a454:	73706328 	cmnvc	r0, #40, 6	; 0xa0000000
    a458:	6c6f5f72 	stclvs	15, cr5, [pc], #-456	; a298 <__FUNCTION__.4451+0x48>
    a45c:	3d202964 	stccc	9, cr2, [r0, #-400]!	; 0xfffffe70
    a460:	6f6d203d 	svcvs	0x006d203d
    a464:	675f6564 	ldrbvs	r6, [pc, -r4, ror #10]
    a468:	63287465 	teqvs	r8, #1694498816	; 0x65000000
    a46c:	5f727370 	svcpl	0x00727370
    a470:	28746567 	ldmdacs	r4!, {r0, r1, r2, r5, r6, r8, sl, sp, lr}^
    a474:	00002929 	andeq	r2, r0, r9, lsr #18

0000a478 <__FUNCTION__.4424>:
    a478:	63656863 	cmnvs	r5, #6488064	; 0x630000
    a47c:	6e6f5f6b 	cdpvs	15, 6, cr5, cr15, cr11, {3}
    a480:	73635f65 	cmnvc	r3, #404	; 0x194
    a484:	63746977 	cmnvs	r4, #1949696	; 0x1dc000
    a488:	00000068 	andeq	r0, r0, r8, rrx

0000a48c <__FUNCTION__.4417>:
    a48c:	676e6973 			; <UNDEFINED> instruction: 0x676e6973
    a490:	735f656c 	cmpvc	pc, #108, 10	; 0x1b000000
    a494:	5f706574 	svcpl	0x00706574
    a498:	646e6168 	strbtvs	r6, [lr], #-360	; 0x168
    a49c:	0072656c 	rsbseq	r6, r2, ip, ror #10

0000a4a0 <__FUNCTION__.4397>:
    a4a0:	65646f6d 	strbvs	r6, [r4, #-3949]!	; 0xf6d
    a4a4:	7465735f 	strbtvc	r7, [r5], #-863	; 0x35f
    a4a8:	00000000 	andeq	r0, r0, r0

0000a4ac <__FUNCTION__.4258>:
    a4ac:	73746962 	cmnvc	r4, #1605632	; 0x188000
    a4b0:	726c635f 	rsbvc	r6, ip, #2080374785	; 0x7c000001
    a4b4:	00000000 	andeq	r0, r0, r0

0000a4b8 <__FUNCTION__.4409>:
    a4b8:	65646f6d 	strbvs	r6, [r4, #-3949]!	; 0xf6d
    a4bc:	7274735f 	rsbsvc	r7, r4, #2080374785	; 0x7c000001
    a4c0:	00000000 	andeq	r0, r0, r0

0000a4c4 <__FUNCTION__.4392>:
    a4c4:	65646f6d 	strbvs	r6, [r4, #-3949]!	; 0xf6d
    a4c8:	7465675f 	strbtvc	r6, [r5], #-1887	; 0x75f
    a4cc:	00000000 	andeq	r0, r0, r0

0000a4d0 <__FUNCTION__.4251>:
    a4d0:	73746962 	cmnvc	r4, #1605632	; 0x188000
    a4d4:	7465675f 	strbtvc	r6, [r5], #-1887	; 0x75f
    a4d8:	00000000 	andeq	r0, r0, r0

0000a4dc <__FUNCTION__.4249>:
    a4dc:	74696d65 	strbtvc	r6, [r9], #-3429	; 0xd65
    a4e0:	00000000 	andeq	r0, r0, r0

0000a4e4 <__FUNCTION__.4197>:
    a4e4:	5f697072 	svcpl	0x00697072
    a4e8:	5f746573 	svcpl	0x00746573
    a4ec:	7074756f 	rsbsvc	r7, r4, pc, ror #10
    a4f0:	00007475 	andeq	r7, r0, r5, ror r4

0000a4f4 <__FUNCTION__.4272>:
    a4f4:	705f6176 	subsvc	r6, pc, r6, ror r1	; <UNPREDICTABLE>
    a4f8:	746e6972 	strbtvc	r6, [lr], #-2418	; 0x972
    a4fc:	0000006b 	andeq	r0, r0, fp, rrx
    a500:	6362696c 	cmnvs	r2, #108, 18	; 0x1b0000
    a504:	2d61762f 	stclcs	6, cr7, [r1, #-188]!	; 0xffffff44
    a508:	6e697270 	mcrvs	2, 3, r7, cr9, cr0, {3}
    a50c:	632e6b74 	teqvs	lr, #116, 22	; 0x1d000
    a510:	00000000 	andeq	r0, r0, r0
    a514:	00000030 	andeq	r0, r0, r0, lsr r0
    a518:	33323130 	teqcc	r2, #48, 2
    a51c:	37363534 			; <UNDEFINED> instruction: 0x37363534
    a520:	00003938 	andeq	r3, r0, r8, lsr r9
    a524:	33323130 	teqcc	r2, #48, 2
    a528:	37363534 			; <UNDEFINED> instruction: 0x37363534
    a52c:	62613938 	rsbvs	r3, r1, #56, 18	; 0xe0000
    a530:	66656463 	strbtvs	r6, [r5], -r3, ror #8
    a534:	00000000 	andeq	r0, r0, r0
    a538:	00003130 	andeq	r3, r0, r0, lsr r1
    a53c:	63747570 	cmnvs	r4, #112, 10	; 0x1c000000
    a540:	0070665f 	rsbseq	r6, r0, pc, asr r6
    a544:	74646977 	strbtvc	r6, [r4], #-2423	; 0x977
    a548:	203c2068 	eorscs	r2, ip, r8, rrx
    a54c:	00003233 	andeq	r3, r0, r3, lsr r2
    a550:	494e4150 	stmdbmi	lr, {r4, r6, r8, lr}^
    a554:	73253a43 	teqvc	r5, #274432	; 0x43000
    a558:	3a73253a 	bcc	1cd3a48 <__bss_end__+0x1cc8f38>
    a55c:	663a6425 	ldrtvs	r6, [sl], -r5, lsr #8
    a560:	74616f6c 	strbtvc	r6, [r1], #-3948	; 0xf6c
    a564:	746f6e20 	strbtvc	r6, [pc], #-3616	; a56c <__FUNCTION__.4272+0x78>
    a568:	616e6520 	cmnvs	lr, r0, lsr #10
    a56c:	64656c62 	strbtvs	r6, [r5], #-3170	; 0xc62
    a570:	0a212121 	beq	8529fc <__bss_end__+0x847eec>
    a574:	00000000 	andeq	r0, r0, r0
    a578:	6e697270 	mcrvs	2, 3, r7, cr9, cr0, {3}
    a57c:	203a6b74 	eorscs	r6, sl, r4, ror fp
    a580:	20746f6e 	rsbscs	r6, r4, lr, ror #30
    a584:	646e6168 	strbtvs	r6, [lr], #-360	; 0x168
    a588:	676e696c 	strbvs	r6, [lr, -ip, ror #18]!
    a58c:	65707320 	ldrbvs	r7, [r0, #-800]!	; 0x320
    a590:	69666963 	stmdbvs	r6!, {r0, r1, r5, r6, r8, fp, sp, lr}^
    a594:	27207265 	strcs	r7, [r0, -r5, ror #4]!
    a598:	20276325 	eorcs	r6, r7, r5, lsr #6
    a59c:	63736128 	cmnvs	r3, #40, 2
    a5a0:	253d6969 	ldrcs	r6, [sp, #-2409]!	; 0x969
    a5a4:	000a2964 	andeq	r2, sl, r4, ror #18
    a5a8:	494e4150 	stmdbmi	lr, {r4, r6, r8, lr}^
    a5ac:	73253a43 	teqvc	r5, #274432	; 0x43000
    a5b0:	3a73253a 	bcc	1cd3aa0 <__bss_end__+0x1cc8f90>
    a5b4:	703a6425 	eorsvc	r6, sl, r5, lsr #8
    a5b8:	746e6972 	strbtvc	r6, [lr], #-2418	; 0x972
    a5bc:	7265206b 	rsbvc	r2, r5, #107	; 0x6b
    a5c0:	0a726f72 	beq	1ca6390 <__bss_end__+0x1c9b880>
    a5c4:	0000000a 	andeq	r0, r0, sl
    a5c8:	454e4f44 	strbmi	r4, [lr, #-3908]	; 0xf44
    a5cc:	0a212121 	beq	852a58 <__bss_end__+0x847f48>
    a5d0:	00000000 	andeq	r0, r0, r0

0000a5d4 <__FUNCTION__.4220>:
    a5d4:	74736166 	ldrbtvc	r6, [r3], #-358	; 0x166
    a5d8:	746e695f 	strbtvc	r6, [lr], #-2399	; 0x95f
    a5dc:	75727265 	ldrbvc	r7, [r2, #-613]!	; 0x265
    a5e0:	765f7470 			; <UNDEFINED> instruction: 0x765f7470
    a5e4:	6f746365 	svcvs	0x00746365
    a5e8:	00000072 	andeq	r0, r0, r2, ror r0
    a5ec:	494e4150 	stmdbmi	lr, {r4, r6, r8, lr}^
    a5f0:	73253a43 	teqvc	r5, #274432	; 0x43000
    a5f4:	3a73253a 	bcc	1cd3ae4 <__bss_end__+0x1cc8fd4>
    a5f8:	453a6425 	ldrmi	r6, [sl, #-1061]!	; 0x425
    a5fc:	524f5252 	subpl	r5, pc, #536870917	; 0x20000005
    a600:	6e75203a 	mrcvs	0, 3, r2, cr5, cr10, {1}
    a604:	646e6168 	strbtvs	r6, [lr], #-360	; 0x168
    a608:	2064656c 	rsbcs	r6, r4, ip, ror #10
    a60c:	65637865 	strbvs	r7, [r3, #-2149]!	; 0x865
    a610:	6f697470 	svcvs	0x00697470
    a614:	253c206e 	ldrcs	r2, [ip, #-110]!	; 0x6e
    a618:	61203e73 	teqvs	r0, r3, ror lr
    a61c:	43502074 	cmpmi	r0, #116	; 0x74
    a620:	0a78253d 	beq	1e13b1c <__bss_end__+0x1e0900c>
    a624:	0000000a 	andeq	r0, r0, sl
    a628:	66617473 			; <UNDEFINED> instruction: 0x66617473
    a62c:	72732d66 	rsbsvc	r2, r3, #6528	; 0x1980
    a630:	65642f63 	strbvs	r2, [r4, #-3939]!	; 0xf63
    a634:	6c756166 	ldfvse	f6, [r5], #-408	; 0xfffffe68
    a638:	61682d74 	smcvs	33492	; 0x82d4
    a63c:	656c646e 	strbvs	r6, [ip, #-1134]!	; 0x46e
    a640:	61662d72 	smcvs	25298	; 0x62d2
    a644:	632e7473 	teqvs	lr, #1929379840	; 0x73000000
    a648:	00000000 	andeq	r0, r0, r0
    a64c:	74736166 	ldrbtvc	r6, [r3], #-358	; 0x166
    a650:	00000000 	andeq	r0, r0, r0

0000a654 <__FUNCTION__.4220>:
    a654:	65736572 	ldrbvs	r6, [r3, #-1394]!	; 0x572
    a658:	65765f74 	ldrbvs	r5, [r6, #-3956]!	; 0xf74
    a65c:	726f7463 	rsbvc	r7, pc, #1660944384	; 0x63000000
    a660:	00000000 	andeq	r0, r0, r0
    a664:	66617473 			; <UNDEFINED> instruction: 0x66617473
    a668:	72732d66 	rsbsvc	r2, r3, #6528	; 0x1980
    a66c:	65642f63 	strbvs	r2, [r4, #-3939]!	; 0xf63
    a670:	6c756166 	ldfvse	f6, [r5], #-408	; 0xfffffe68
    a674:	61682d74 	smcvs	33492	; 0x82d4
    a678:	656c646e 	strbvs	r6, [ip, #-1134]!	; 0x46e
    a67c:	65722d72 	ldrbvs	r2, [r2, #-3442]!	; 0xd72
    a680:	2e746573 	mrccs	5, 3, r6, cr4, cr3, {3}
    a684:	00000063 	andeq	r0, r0, r3, rrx
    a688:	65736572 	ldrbvs	r6, [r3, #-1394]!	; 0x572
    a68c:	00000074 	andeq	r0, r0, r4, ror r0

0000a690 <__FUNCTION__.4220>:
    a690:	65646e75 	strbvs	r6, [r4, #-3701]!	; 0xe75
    a694:	656e6966 	strbvs	r6, [lr, #-2406]!	; 0x966
    a698:	6e695f64 	cdpvs	15, 6, cr5, cr9, cr4, {3}
    a69c:	75727473 	ldrbvc	r7, [r2, #-1139]!	; 0x473
    a6a0:	6f697463 	svcvs	0x00697463
    a6a4:	65765f6e 	ldrbvs	r5, [r6, #-3950]!	; 0xf6e
    a6a8:	726f7463 	rsbvc	r7, pc, #1660944384	; 0x63000000
    a6ac:	00000000 	andeq	r0, r0, r0
    a6b0:	66617473 			; <UNDEFINED> instruction: 0x66617473
    a6b4:	72732d66 	rsbsvc	r2, r3, #6528	; 0x1980
    a6b8:	65642f63 	strbvs	r2, [r4, #-3939]!	; 0xf63
    a6bc:	6c756166 	ldfvse	f6, [r5], #-408	; 0xfffffe68
    a6c0:	61682d74 	smcvs	33492	; 0x82d4
    a6c4:	656c646e 	strbvs	r6, [ip, #-1134]!	; 0x46e
    a6c8:	6e752d72 	mrcvs	13, 3, r2, cr5, cr2, {3}
    a6cc:	69666564 	stmdbvs	r6!, {r2, r5, r6, r8, sl, sp, lr}^
    a6d0:	2d64656e 	cfstr64cs	mvdx6, [r4, #-440]!	; 0xfffffe48
    a6d4:	74736e69 	ldrbtvc	r6, [r3], #-3689	; 0xe69
    a6d8:	0000632e 	andeq	r6, r0, lr, lsr #6
    a6dc:	65646e75 	strbvs	r6, [r4, #-3701]!	; 0xe75
    a6e0:	656e6966 	strbvs	r6, [lr, #-2406]!	; 0x966
    a6e4:	6e692064 	cdpvs	0, 6, cr2, cr9, cr4, {3}
    a6e8:	00007473 	andeq	r7, r0, r3, ror r4

Disassembly of section .bss:

0000a6ec <__bss_start__>:
    a6ec:	00000000 	andeq	r0, r0, r0

0000a6f0 <l>:
    a6f0:	00000000 	andeq	r0, r0, r0

0000a6f4 <watchpt_handler0>:
    a6f4:	00000000 	andeq	r0, r0, r0

0000a6f8 <brkpt_handler0>:
    a6f8:	00000000 	andeq	r0, r0, r0

0000a6fc <brk_verbose_p>:
    a6fc:	00000000 	andeq	r0, r0, r0

0000a700 <nfaults.4398>:
    a700:	00000000 	andeq	r0, r0, r0

0000a704 <init_p.4404>:
    a704:	00000000 	andeq	r0, r0, r0

0000a708 <checker>:
    a708:	00000000 	andeq	r0, r0, r0

0000a70c <expected_handle>:
    a70c:	00000000 	andeq	r0, r0, r0

0000a710 <buf.4189>:
	...

Disassembly of section .ARM.attributes:

00000000 <.ARM.attributes>:
   0:	00002a41 	andeq	r2, r0, r1, asr #20
   4:	61656100 	cmnvs	r5, r0, lsl #2
   8:	01006962 	tsteq	r0, r2, ror #18
   c:	00000020 	andeq	r0, r0, r0, lsr #32
  10:	4b5a3605 	blmi	168d82c <__bss_end__+0x1682d1c>
  14:	08070600 	stmdaeq	r7, {r9, sl}
  18:	12010901 	andne	r0, r1, #16384	; 0x4000
  1c:	15011404 	strne	r1, [r1, #-1028]	; 0x404
  20:	18031701 	stmdane	r3, {r0, r8, r9, sl, ip}
  24:	22011a01 	andcs	r1, r1, #4096	; 0x1000
  28:	Address 0x0000000000000028 is out of bounds.


Disassembly of section .comment:

00000000 <.comment>:
   0:	3a434347 	bcc	10d0d24 <__bss_end__+0x10c6214>
   4:	4e472820 	cdpmi	8, 4, cr2, cr7, cr0, {1}
   8:	34202955 	strtcc	r2, [r0], #-2389	; 0x955
   c:	332e382e 	teqcc	lr, #3014656	; 0x2e0000
  10:	43434700 	movtmi	r4, #14080	; 0x3700
  14:	3128203a 	teqcc	r8, sl, lsr r0
  18:	2e363a35 	mrccs	10, 1, r3, cr6, cr5, {1}
  1c:	2b312e33 	blcs	c4b8f0 <__bss_end__+0xc40de0>
  20:	326e7673 	rsbcc	r7, lr, #120586240	; 0x7300000
  24:	33303335 	teqcc	r0, #-738197504	; 0xd4000000
  28:	62312d39 	eorsvs	r2, r1, #3648	; 0xe40
  2c:	646c6975 	strbtvs	r6, [ip], #-2421	; 0x975
  30:	36202931 			; <UNDEFINED> instruction: 0x36202931
  34:	312e332e 	teqcc	lr, lr, lsr #6
  38:	31303220 	teqcc	r0, r0, lsr #4
  3c:	32363037 	eorscc	r3, r6, #55	; 0x37
  40:	Address 0x0000000000000040 is out of bounds.


Disassembly of section .debug_info:

00000000 <.debug_info>:
       0:	00000e84 	andeq	r0, r0, r4, lsl #29
       4:	00000004 	andeq	r0, r0, r4
       8:	01040000 	mrseq	r0, (UNDEF: 4)
       c:	000001fa 	strdeq	r0, [r0], -sl
      10:	00013b01 	andeq	r3, r1, r1, lsl #22
      14:	00000000 	andeq	r0, r0, r0
      18:	00802000 	addeq	r2, r0, r0
      1c:	00068800 	andeq	r8, r6, r0, lsl #16
      20:	00000000 	andeq	r0, r0, r0
      24:	05040200 	streq	r0, [r4, #-512]	; 0x200
      28:	00746e69 	rsbseq	r6, r4, r9, ror #28
      2c:	8f070403 	svchi	0x00070403
      30:	03000000 	movweq	r0, #0
      34:	016f0601 	cmneq	pc, r1, lsl #12
      38:	02030000 	andeq	r0, r3, #0
      3c:	00019205 	andeq	r9, r1, r5, lsl #4
      40:	05040300 	streq	r0, [r4, #-768]	; 0x300
      44:	000000a1 	andeq	r0, r0, r1, lsr #1
      48:	9c050803 	stcls	8, cr0, [r5], {3}
      4c:	03000000 	movweq	r0, #0
      50:	016d0801 	cmneq	sp, r1, lsl #16
      54:	02030000 	andeq	r0, r3, #0
      58:	0000e107 	andeq	lr, r0, r7, lsl #2
      5c:	01c40400 	biceq	r0, r4, r0, lsl #8
      60:	34070000 	strcc	r0, [r7], #-0
      64:	00000068 	andeq	r0, r0, r8, rrx
      68:	8a070403 	bhi	1c107c <__bss_end__+0x1b656c>
      6c:	03000000 	movweq	r0, #0
      70:	00850708 	addeq	r0, r5, r8, lsl #14
      74:	04030000 	streq	r0, [r3], #-0
      78:	00011207 	andeq	r1, r1, r7, lsl #4
      7c:	08010300 	stmdaeq	r1, {r8, r9}
      80:	00000176 	andeq	r0, r0, r6, ror r1
      84:	008a0405 	addeq	r0, sl, r5, lsl #8
      88:	7d060000 	stcvc	0, cr0, [r6, #-0]
      8c:	07000000 	streq	r0, [r0, -r0]
      90:	0000007d 	andeq	r0, r0, sp, ror r0
      94:	0000009f 	muleq	r0, pc, r0	; <UNPREDICTABLE>
      98:	00007608 	andeq	r7, r0, r8, lsl #12
      9c:	09000700 	stmdbeq	r0, {r8, r9, sl}
      a0:	00000133 	andeq	r0, r0, r3, lsr r1
      a4:	500a0638 	andpl	r0, sl, r8, lsr r6
      a8:	0a000001 	beq	b4 <__code_start__-0x7f4c>
      ac:	00000a74 	andeq	r0, r0, r4, ror sl
      b0:	01500f06 	cmpeq	r0, r6, lsl #30
      b4:	0b000000 	bleq	bc <__code_start__-0x7f44>
      b8:	12060041 	andne	r0, r6, #65	; 0x41
      bc:	00000168 	andeq	r0, r0, r8, ror #2
      c0:	00420b04 	subeq	r0, r2, r4, lsl #22
      c4:	017d1306 	cmneq	sp, r6, lsl #6
      c8:	0a080000 	beq	2000d0 <__bss_end__+0x1f55c0>
      cc:	0000015e 	andeq	r0, r0, lr, asr r1
      d0:	01681606 	cmneq	r8, r6, lsl #12
      d4:	0a0c0000 	beq	3000dc <__bss_end__+0x2f55cc>
      d8:	000001e7 	andeq	r0, r0, r7, ror #3
      dc:	017d1806 	cmneq	sp, r6, lsl #16
      e0:	0a100000 	beq	4000e8 <__bss_end__+0x3f55d8>
      e4:	0000028d 	andeq	r0, r0, sp, lsl #5
      e8:	01831f06 	orreq	r1, r3, r6, lsl #30
      ec:	0a140000 	beq	5000f4 <__bss_end__+0x4f55e4>
      f0:	0000027c 	andeq	r0, r0, ip, ror r2
      f4:	01833106 	orreq	r3, r3, r6, lsl #2
      f8:	0a180000 	beq	600100 <__bss_end__+0x5f55f0>
      fc:	00000072 	andeq	r0, r0, r2, ror r0
     100:	01883606 	orreq	r3, r8, r6, lsl #12
     104:	0a1c0000 	beq	70010c <__bss_end__+0x6f55fc>
     108:	00000066 	andeq	r0, r0, r6, rrx
     10c:	01883a06 	orreq	r3, r8, r6, lsl #20
     110:	0a200000 	beq	800118 <__bss_end__+0x7f5608>
     114:	00000297 	muleq	r0, r7, r2
     118:	01833f06 	orreq	r3, r3, r6, lsl #30
     11c:	0a240000 	beq	900124 <__bss_end__+0x8f5614>
     120:	00000124 	andeq	r0, r0, r4, lsr #2
     124:	002c4206 	eoreq	r4, ip, r6, lsl #4
     128:	0a280000 	beq	a00130 <__bss_end__+0x9f5620>
     12c:	000001d2 	ldrdeq	r0, [r0], -r2
     130:	002c4306 	eoreq	r4, ip, r6, lsl #6
     134:	0a2c0000 	beq	b0013c <__bss_end__+0xaf562c>
     138:	000001a1 	andeq	r0, r0, r1, lsr #3
     13c:	002c4606 	eoreq	r4, ip, r6, lsl #12
     140:	0a300000 	beq	c00148 <__bss_end__+0xbf5638>
     144:	000000bf 	strheq	r0, [r0], -pc	; <UNPREDICTABLE>
     148:	01884806 	orreq	r4, r8, r6, lsl #16
     14c:	00340000 	eorseq	r0, r4, r0
     150:	01560405 	cmpeq	r6, r5, lsl #8
     154:	0d0c0000 	stceq	0, cr0, [ip, #-0]
     158:	00000162 	andeq	r0, r0, r2, ror #2
     15c:	0001620e 	andeq	r6, r1, lr, lsl #4
     160:	04050000 	streq	r0, [r5], #-0
     164:	0000009f 	muleq	r0, pc, r0	; <UNPREDICTABLE>
     168:	01570405 	cmpeq	r7, r5, lsl #8
     16c:	250f0000 	strcs	r0, [pc, #-0]	; 174 <__code_start__-0x7e8c>
     170:	7d000000 	stcvc	0, cr0, [r0, #-0]
     174:	0e000001 	cdpeq	0, 0, cr0, cr0, cr1, {0}
     178:	00000162 	andeq	r0, r0, r2, ror #2
     17c:	6e040500 	cfsh32vs	mvfx0, mvfx4, #0
     180:	10000001 	andne	r0, r0, r1
     184:	0000002c 	andeq	r0, r0, ip, lsr #32
     188:	00005d10 	andeq	r5, r0, r0, lsl sp
     18c:	01630400 	cmneq	r3, r0, lsl #8
     190:	49060000 	stmdbmi	r6, {}	; <UNPREDICTABLE>
     194:	0000009f 	muleq	r0, pc, r0	; <UNPREDICTABLE>
     198:	00027204 	andeq	r7, r2, r4, lsl #4
     19c:	a3050400 	movwge	r0, #21504	; 0x5400
     1a0:	10000001 	andne	r0, r0, r1
     1a4:	00000025 	andeq	r0, r0, r5, lsr #32
     1a8:	00015511 	andeq	r5, r1, r1, lsl r5
     1ac:	03070400 	movweq	r0, #29696	; 0x7400
     1b0:	000001be 			; <UNDEFINED> instruction: 0x000001be
     1b4:	04006c12 	streq	r6, [r0], #-3090	; 0xc12
     1b8:	0001be07 	andeq	fp, r1, r7, lsl #28
     1bc:	04050000 	streq	r0, [r5], #-0
     1c0:	00000198 	muleq	r0, r8, r1
     1c4:	0001b013 	andeq	fp, r1, r3, lsl r0
     1c8:	25070100 	strcs	r0, [r7, #-256]	; 0x100
     1cc:	03000000 	movweq	r0, #0
     1d0:	000001e0 	andeq	r0, r0, r0, ror #3
     1d4:	0001cd14 	andeq	ip, r1, r4, lsl sp
     1d8:	2c070100 	stfcss	f0, [r7], {-0}
     1dc:	00000000 	andeq	r0, r0, r0
     1e0:	00005913 	andeq	r5, r0, r3, lsl r9
     1e4:	250a0400 	strcs	r0, [sl, #-1024]	; 0x400
     1e8:	03000000 	movweq	r0, #0
     1ec:	00000206 	andeq	r0, r0, r6, lsl #4
     1f0:	04006c12 	streq	r6, [r0], #-3090	; 0xc12
     1f4:	0001be0a 	andeq	fp, r1, sl, lsl #28
     1f8:	00f41500 	rscseq	r1, r4, r0, lsl #10
     1fc:	0c040000 	stceq	0, cr0, [r4], {-0}
     200:	00000025 	andeq	r0, r0, r5, lsr #32
     204:	aa130000 	bge	4c020c <__bss_end__+0x4b56fc>
     208:	05000000 	streq	r0, [r0, #-0]
     20c:	00005d26 	andeq	r5, r0, r6, lsr #26
     210:	02220300 	eoreq	r0, r2, #0, 6
     214:	9c160000 	ldcls	0, cr0, [r6], {-0}
     218:	05000001 	streq	r0, [r0, #-1]
     21c:	00005d27 	andeq	r5, r0, r7, lsr #26
     220:	bb130000 	bllt	4c0228 <__bss_end__+0x4b5718>
     224:	01000001 	tsteq	r0, r1
     228:	00005d0f 	andeq	r5, r0, pc, lsl #26
     22c:	02560300 	subseq	r0, r6, #0, 6
     230:	9c140000 	ldcls	0, cr0, [r4], {-0}
     234:	01000001 	tsteq	r0, r1
     238:	00005d0f 	andeq	r5, r0, pc, lsl #26
     23c:	01cd1600 	biceq	r1, sp, r0, lsl #12
     240:	10010000 	andne	r0, r1, r0
     244:	0000002c 	andeq	r0, r0, ip, lsr #32
     248:	0000d417 	andeq	sp, r0, r7, lsl r4
     24c:	00026600 	andeq	r6, r2, r0, lsl #12
     250:	0001bb00 	andeq	fp, r1, r0, lsl #22
     254:	7d070000 	stcvc	0, cr0, [r7, #-0]
     258:	66000000 	strvs	r0, [r0], -r0
     25c:	08000002 	stmdaeq	r0, {r1}
     260:	00000076 	andeq	r0, r0, r6, ror r0
     264:	56060008 	strpl	r0, [r6], -r8
     268:	13000002 	movwne	r0, #2
     26c:	00000189 	andeq	r0, r0, r9, lsl #3
     270:	005d1c02 	subseq	r1, sp, r2, lsl #24
     274:	af030000 	svcge	0x00030000
     278:	12000002 	andne	r0, r0, #2
     27c:	1c020078 	stcne	0, cr0, [r2], {120}	; 0x78
     280:	0000005d 	andeq	r0, r0, sp, asr r0
     284:	00626c12 	rsbeq	r6, r2, r2, lsl ip
     288:	002c1c02 	eoreq	r1, ip, r2, lsl #24
     28c:	75120000 	ldrvc	r0, [r2, #-0]
     290:	1c020062 	stcne	0, cr0, [r2], {98}	; 0x62
     294:	0000002c 	andeq	r0, r0, ip, lsr #32
     298:	0000d417 	andeq	sp, r0, r7, lsl r4
     29c:	0002af00 	andeq	sl, r2, r0, lsl #30
     2a0:	00018900 	andeq	r8, r1, r0, lsl #18
     2a4:	006e1800 	rsbeq	r1, lr, r0, lsl #16
     2a8:	002c1f02 	eoreq	r1, ip, r2, lsl #30
     2ac:	06000000 	streq	r0, [r0], -r0
     2b0:	00000256 	andeq	r0, r0, r6, asr r2
     2b4:	00022219 	andeq	r2, r2, r9, lsl r2
     2b8:	00802000 	addeq	r2, r0, r0
     2bc:	00008c00 	andeq	r8, r0, r0, lsl #24
     2c0:	889c0100 	ldmhi	ip, {r8}
     2c4:	1a000003 	bne	2d8 <__code_start__-0x7d28>
     2c8:	00000232 	andeq	r0, r0, r2, lsr r2
     2cc:	00000000 	andeq	r0, r0, r0
     2d0:	00023d1b 	andeq	r3, r2, fp, lsl sp
     2d4:	02481c00 	subeq	r1, r8, #0, 24
     2d8:	03050000 	movweq	r0, #20480	; 0x5000
     2dc:	0000a0ac 	andeq	sl, r0, ip, lsr #1
     2e0:	00026b1d 	andeq	r6, r2, sp, lsl fp
     2e4:	00802800 	addeq	r2, r0, r0, lsl #16
     2e8:	00000400 	andeq	r0, r0, r0, lsl #8
     2ec:	24100100 	ldrcs	r0, [r0], #-256	; 0x100
     2f0:	1e000003 	cdpne	0, 0, cr0, cr0, cr3, {0}
     2f4:	0000028e 	andeq	r0, r0, lr, lsl #5
     2f8:	02841e04 	addeq	r1, r4, #4, 28	; 0x40
     2fc:	1a000000 	bne	304 <__code_start__-0x7cfc>
     300:	0000027b 	andeq	r0, r0, fp, ror r2
     304:	00000021 	andeq	r0, r0, r1, lsr #32
     308:	0080281f 	addeq	r2, r0, pc, lsl r8
     30c:	00000400 	andeq	r0, r0, r0, lsl #8
     310:	02a52000 	adceq	r2, r5, #0
     314:	1c050000 	stcne	0, cr0, [r5], {-0}
     318:	00000298 	muleq	r0, r8, r2
     31c:	a0b80305 	adcsge	r0, r8, r5, lsl #6
     320:	00000000 	andeq	r0, r0, r0
     324:	0001c41d 	andeq	ip, r1, sp, lsl r4
     328:	00802c00 	addeq	r2, r0, r0, lsl #24
     32c:	00003c00 	andeq	r3, r0, r0, lsl #24
     330:	3d110100 	ldfccs	f0, [r1, #-0]
     334:	21000003 	tstcs	r0, r3
     338:	000001d4 	ldrdeq	r0, [r0], -r4
     33c:	80742200 	rsbshi	r2, r4, r0, lsl #4
     340:	0e2f0000 	cdpeq	0, 2, cr0, cr15, cr0, {0}
     344:	90230000 	eorls	r0, r3, r0
     348:	36000080 	strcc	r0, [r0], -r0, lsl #1
     34c:	7e00000e 	cdpvc	0, 0, cr0, cr0, cr14, {0}
     350:	24000003 	strcs	r0, [r0], #-3
     354:	41015301 	tstmi	r1, r1, lsl #6
     358:	05520124 	ldrbeq	r0, [r2, #-292]	; 0x124
     35c:	00a0ac03 	adceq	sl, r0, r3, lsl #24
     360:	51012400 	tstpl	r1, r0, lsl #8
     364:	9e8c0305 	cdpls	3, 8, cr0, cr12, cr5, {0}
     368:	01240000 	teqeq	r4, r0
     36c:	78030550 	stmdavc	r3, {r4, r6, r8, sl}
     370:	2400009e 	strcs	r0, [r0], #-158	; 0x9e
     374:	05007d02 	streq	r7, [r0, #-3330]	; 0xd02
     378:	009e9c03 	addseq	r9, lr, r3, lsl #24
     37c:	94220000 	strtls	r0, [r2], #-0
     380:	4c000080 	stcmi	0, cr0, [r0], {128}	; 0x80
     384:	0000000e 	andeq	r0, r0, lr
     388:	00026711 	andeq	r6, r2, r1, lsl r7
     38c:	03170400 	tsteq	r7, #0, 8
     390:	000003ab 	andeq	r0, r0, fp, lsr #7
     394:	04006c12 	streq	r6, [r0], #-3090	; 0xc12
     398:	0001be17 	andeq	fp, r1, r7, lsl lr
     39c:	00d41700 	sbcseq	r1, r4, r0, lsl #14
     3a0:	03bb0000 			; <UNDEFINED> instruction: 0x03bb0000
     3a4:	02670000 	rsbeq	r0, r7, #0
     3a8:	07000000 	streq	r0, [r0, -r0]
     3ac:	0000007d 	andeq	r0, r0, sp, ror r0
     3b0:	000003bb 			; <UNDEFINED> instruction: 0x000003bb
     3b4:	00007608 	andeq	r7, r0, r8, lsl #12
     3b8:	06000a00 	streq	r0, [r0], -r0, lsl #20
     3bc:	000003ab 	andeq	r0, r0, fp, lsr #7
     3c0:	0000b325 	andeq	fp, r0, r5, lsr #6
     3c4:	ac0b0300 	stcge	3, cr0, [fp], {-0}
     3c8:	d8000080 	stmdale	r0, {r7}
     3cc:	01000001 	tsteq	r0, r1
     3d0:	0007599c 	muleq	r7, ip, r9
     3d4:	00632600 	rsbeq	r2, r3, r0, lsl #12
     3d8:	07590b03 	ldrbeq	r0, [r9, -r3, lsl #22]
     3dc:	00420000 	subeq	r0, r2, r0
     3e0:	d4270000 	strtle	r0, [r7], #-0
     3e4:	6f000000 	svcvs	0x00000000
     3e8:	05000007 	streq	r0, [r0, #-7]
     3ec:	00a0a403 	adceq	sl, r0, r3, lsl #8
     3f0:	01e01d00 	mvneq	r1, r0, lsl #26
     3f4:	80b40000 	adcshi	r0, r4, r0
     3f8:	00080000 	andeq	r0, r8, r0
     3fc:	0c030000 	stceq	0, cr0, [r3], {-0}
     400:	0000042e 	andeq	r0, r0, lr, lsr #8
     404:	0001f028 	andeq	pc, r1, r8, lsr #32
     408:	f0030600 			; <UNDEFINED> instruction: 0xf0030600
     40c:	9f0000a6 	svcls	0x000000a6
     410:	0080b41f 	addeq	fp, r0, pc, lsl r4
     414:	00000800 	andeq	r0, r0, r0, lsl #16
     418:	80bc2900 	adcshi	r2, ip, r0, lsl #18
     41c:	0e530000 	cdpeq	0, 5, cr0, cr3, cr0, {0}
     420:	01240000 	teqeq	r4, r0
     424:	f0030550 			; <UNDEFINED> instruction: 0xf0030550
     428:	000000a6 	andeq	r0, r0, r6, lsr #1
     42c:	881d0000 	ldmdahi	sp, {}	; <UNPREDICTABLE>
     430:	f0000003 			; <UNDEFINED> instruction: 0xf0000003
     434:	40000080 	andmi	r0, r0, r0, lsl #1
     438:	03000000 	movweq	r0, #0
     43c:	0004ad0f 	andeq	sl, r4, pc, lsl #26
     440:	03942800 	orrseq	r2, r4, #0, 16
     444:	03060000 	movweq	r0, #24576	; 0x6000
     448:	0000a6f0 	strdeq	sl, [r0], -r0
     44c:	80f01f9f 	smlalshi	r1, r0, pc, pc	; <UNPREDICTABLE>
     450:	00400000 	subeq	r0, r0, r0
     454:	9d1c0000 	ldcls	0, cr0, [ip, #-0]
     458:	05000003 	streq	r0, [r0, #-3]
     45c:	00a09803 	adceq	r9, r0, r3, lsl #16
     460:	81042200 	mrshi	r2, R12_usr
     464:	0e2f0000 	cdpeq	0, 2, cr0, cr15, cr0, {0}
     468:	20230000 	eorcs	r0, r3, r0
     46c:	36000081 	strcc	r0, [r0], -r1, lsl #1
     470:	a200000e 	andge	r0, r0, #14
     474:	24000004 	strcs	r0, [r0], #-4
     478:	48015301 	stmdami	r1, {r0, r8, r9, ip, lr}
     47c:	05520124 	ldrbeq	r0, [r2, #-292]	; 0x124
     480:	00a09803 	adceq	r9, r0, r3, lsl #16
     484:	51012400 	tstpl	r1, r0, lsl #8
     488:	9ee80305 	cdpls	3, 14, cr0, cr8, cr5, {0}
     48c:	01240000 	teqeq	r4, r0
     490:	78030550 	stmdavc	r3, {r4, r6, r8, sl}
     494:	2400009e 	strcs	r0, [r0], #-158	; 0x9e
     498:	05007d02 	streq	r7, [r0, #-3330]	; 0xd02
     49c:	009ef803 	addseq	pc, lr, r3, lsl #16
     4a0:	24220000 	strtcs	r0, [r2], #-0
     4a4:	4c000081 	stcmi	0, cr0, [r0], {129}	; 0x81
     4a8:	0000000e 	andeq	r0, r0, lr
     4ac:	02061d00 	andeq	r1, r6, #0, 26
     4b0:	81300000 	teqhi	r0, r0
     4b4:	00040000 	andeq	r0, r4, r0
     4b8:	11030000 	mrsne	r0, (UNDEF: 3)
     4bc:	000004d4 	ldrdeq	r0, [r0], -r4
     4c0:	0081301f 	addeq	r3, r1, pc, lsl r0
     4c4:	00000400 	andeq	r0, r0, r0, lsl #8
     4c8:	02162a00 	andseq	r2, r6, #0, 20
     4cc:	00630000 	rsbeq	r0, r3, r0
     4d0:	00000000 	andeq	r0, r0, r0
     4d4:	0002221d 	andeq	r2, r2, sp, lsl r2
     4d8:	00813400 	addeq	r3, r1, r0, lsl #8
     4dc:	00006c00 	andeq	r6, r0, r0, lsl #24
     4e0:	b2110300 	andslt	r0, r1, #0, 6
     4e4:	1a000005 	bne	500 <__code_start__-0x7b00>
     4e8:	00000232 	andeq	r0, r0, r2, lsr r2
     4ec:	00000063 	andeq	r0, r0, r3, rrx
     4f0:	0081341f 	addeq	r3, r1, pc, lsl r4
     4f4:	00006c00 	andeq	r6, r0, r0, lsl #24
     4f8:	023d1b00 	eorseq	r1, sp, #0, 22
     4fc:	481c0000 	ldmdami	ip, {}	; <UNPREDICTABLE>
     500:	05000002 	streq	r0, [r0, #-2]
     504:	00a0ac03 	adceq	sl, r0, r3, lsl #24
     508:	026b1d00 	rsbeq	r1, fp, #0, 26
     50c:	81340000 	teqhi	r4, r0
     510:	00040000 	andeq	r0, r4, r0
     514:	10010000 	andne	r0, r1, r0
     518:	0000054d 	andeq	r0, r0, sp, asr #10
     51c:	00028e1e 	andeq	r8, r2, lr, lsl lr
     520:	841e0400 	ldrhi	r0, [lr], #-1024	; 0x400
     524:	00000002 	andeq	r0, r0, r2
     528:	00027b1a 	andeq	r7, r2, sl, lsl fp
     52c:	00006300 	andeq	r6, r0, r0, lsl #6
     530:	81341f00 	teqhi	r4, r0, lsl #30
     534:	00040000 	andeq	r0, r4, r0
     538:	a5200000 	strge	r0, [r0, #-0]!
     53c:	05000002 	streq	r0, [r0, #-2]
     540:	0002981c 	andeq	r9, r2, ip, lsl r8
     544:	b8030500 	stmdalt	r3, {r8, sl}
     548:	000000a0 	andeq	r0, r0, r0, lsr #1
     54c:	01c41d00 	biceq	r1, r4, r0, lsl #26
     550:	81380000 	teqhi	r8, r0
     554:	003c0000 	eorseq	r0, ip, r0
     558:	11010000 	mrsne	r0, (UNDEF: 1)
     55c:	00000566 	andeq	r0, r0, r6, ror #10
     560:	0001d421 	andeq	sp, r1, r1, lsr #8
     564:	80220000 	eorhi	r0, r2, r0
     568:	2f000081 	svccs	0x00000081
     56c:	2300000e 	movwcs	r0, #14
     570:	0000819c 	muleq	r0, ip, r1
     574:	00000e36 	andeq	r0, r0, r6, lsr lr
     578:	000005a7 	andeq	r0, r0, r7, lsr #11
     57c:	01530124 	cmpeq	r3, r4, lsr #2
     580:	52012441 	andpl	r2, r1, #1090519040	; 0x41000000
     584:	a0ac0305 	adcge	r0, ip, r5, lsl #6
     588:	01240000 	teqeq	r4, r0
     58c:	8c030551 	cfstr32hi	mvfx0, [r3], {81}	; 0x51
     590:	2400009e 	strcs	r0, [r0], #-158	; 0x9e
     594:	03055001 	movweq	r5, #20481	; 0x5001
     598:	00009e78 	andeq	r9, r0, r8, ror lr
     59c:	007d0224 	rsbseq	r0, sp, r4, lsr #4
     5a0:	9e9c0305 	cdpls	3, 9, cr0, cr12, cr5, {0}
     5a4:	22000000 	andcs	r0, r0, #0
     5a8:	000081a0 	andeq	r8, r0, r0, lsr #3
     5ac:	00000e4c 	andeq	r0, r0, ip, asr #28
     5b0:	061d0000 	ldreq	r0, [sp], -r0
     5b4:	a8000002 	stmdage	r0, {r1}
     5b8:	04000081 	streq	r0, [r0], #-129	; 0x81
     5bc:	03000000 	movweq	r0, #0
     5c0:	0005d912 	andeq	sp, r5, r2, lsl r9
     5c4:	81a81f00 			; <UNDEFINED> instruction: 0x81a81f00
     5c8:	00040000 	andeq	r0, r4, r0
     5cc:	162a0000 	strtne	r0, [sl], -r0
     5d0:	76000002 	strvc	r0, [r0], -r2
     5d4:	00000000 	andeq	r0, r0, r0
     5d8:	02221d00 	eoreq	r1, r2, #0, 26
     5dc:	81ac0000 			; <UNDEFINED> instruction: 0x81ac0000
     5e0:	006c0000 	rsbeq	r0, ip, r0
     5e4:	12030000 	andne	r0, r3, #0
     5e8:	000006b7 			; <UNDEFINED> instruction: 0x000006b7
     5ec:	0002321a 	andeq	r3, r2, sl, lsl r2
     5f0:	00007600 	andeq	r7, r0, r0, lsl #12
     5f4:	81ac1f00 			; <UNDEFINED> instruction: 0x81ac1f00
     5f8:	006c0000 	rsbeq	r0, ip, r0
     5fc:	3d1b0000 	ldccc	0, cr0, [fp, #-0]
     600:	1c000002 	stcne	0, cr0, [r0], {2}
     604:	00000248 	andeq	r0, r0, r8, asr #4
     608:	a0ac0305 	adcge	r0, ip, r5, lsl #6
     60c:	6b1d0000 	blvs	740614 <__bss_end__+0x735b04>
     610:	ac000002 	stcge	0, cr0, [r0], {2}
     614:	04000081 	streq	r0, [r0], #-129	; 0x81
     618:	01000000 	mrseq	r0, (UNDEF: 0)
     61c:	00065210 	andeq	r5, r6, r0, lsl r2
     620:	028e1e00 	addeq	r1, lr, #0, 28
     624:	1e040000 	cdpne	0, 0, cr0, cr4, cr0, {0}
     628:	00000284 	andeq	r0, r0, r4, lsl #5
     62c:	027b1a00 	rsbseq	r1, fp, #0, 20
     630:	00760000 	rsbseq	r0, r6, r0
     634:	ac1f0000 	ldcge	0, cr0, [pc], {-0}
     638:	04000081 	streq	r0, [r0], #-129	; 0x81
     63c:	20000000 	andcs	r0, r0, r0
     640:	000002a5 	andeq	r0, r0, r5, lsr #5
     644:	02981c05 	addseq	r1, r8, #1280	; 0x500
     648:	03050000 	movweq	r0, #20480	; 0x5000
     64c:	0000a0b8 	strheq	sl, [r0], -r8
     650:	c41d0000 	ldrgt	r0, [sp], #-0
     654:	b0000001 	andlt	r0, r0, r1
     658:	3c000081 	stccc	0, cr0, [r0], {129}	; 0x81
     65c:	01000000 	mrseq	r0, (UNDEF: 0)
     660:	00066b11 	andeq	r6, r6, r1, lsl fp
     664:	01d42100 	bicseq	r2, r4, r0, lsl #2
     668:	22000000 	andcs	r0, r0, #0
     66c:	000081f8 	strdeq	r8, [r0], -r8	; <UNPREDICTABLE>
     670:	00000e2f 	andeq	r0, r0, pc, lsr #28
     674:	00821423 	addeq	r1, r2, r3, lsr #8
     678:	000e3600 	andeq	r3, lr, r0, lsl #12
     67c:	0006ac00 	andeq	sl, r6, r0, lsl #24
     680:	53012400 	movwpl	r2, #5120	; 0x1400
     684:	01244101 	teqeq	r4, r1, lsl #2
     688:	ac030552 	cfstr32ge	mvfx0, [r3], {82}	; 0x52
     68c:	240000a0 	strcs	r0, [r0], #-160	; 0xa0
     690:	03055101 	movweq	r5, #20737	; 0x5101
     694:	00009e8c 	andeq	r9, r0, ip, lsl #29
     698:	05500124 	ldrbeq	r0, [r0, #-292]	; 0x124
     69c:	009e7803 	addseq	r7, lr, r3, lsl #16
     6a0:	7d022400 	cfstrsvc	mvf2, [r2, #-0]
     6a4:	9c030500 	cfstr32ls	mvfx0, [r3], {-0}
     6a8:	0000009e 	muleq	r0, lr, r0
     6ac:	00821822 	addeq	r1, r2, r2, lsr #16
     6b0:	000e4c00 	andeq	r4, lr, r0, lsl #24
     6b4:	22000000 	andcs	r0, r0, #0
     6b8:	000080c8 	andeq	r8, r0, r8, asr #1
     6bc:	00000e2f 	andeq	r0, r0, pc, lsr #28
     6c0:	0080dc23 	addeq	sp, r0, r3, lsr #24
     6c4:	000e3600 	andeq	r3, lr, r0, lsl #12
     6c8:	0006ee00 	andeq	lr, r6, r0, lsl #28
     6cc:	53012400 	movwpl	r2, #5120	; 0x1400
     6d0:	01243d01 	teqeq	r4, r1, lsl #26
     6d4:	a4030552 	strge	r0, [r3], #-1362	; 0x552
     6d8:	240000a0 	strcs	r0, [r0], #-160	; 0xa0
     6dc:	03055101 	movweq	r5, #20737	; 0x5101
     6e0:	00009ecc 	andeq	r9, r0, ip, asr #29
     6e4:	05500124 	ldrbeq	r0, [r0, #-292]	; 0x124
     6e8:	009eb003 	addseq	fp, lr, r3
     6ec:	e0220000 	eor	r0, r2, r0
     6f0:	4c000080 	stcmi	0, cr0, [r0], {128}	; 0x80
     6f4:	2300000e 	movwcs	r0, #14
     6f8:	000081a8 	andeq	r8, r0, r8, lsr #3
     6fc:	00000e36 	andeq	r0, r0, r6, lsr lr
     700:	0000070e 	andeq	r0, r0, lr, lsl #14
     704:	05500124 	ldrbeq	r0, [r0, #-292]	; 0x124
     708:	009f0003 	addseq	r0, pc, r3
     70c:	24220000 	strtcs	r0, [r2], #-0
     710:	2f000082 	svccs	0x00000082
     714:	2300000e 	movwcs	r0, #14
     718:	00008240 	andeq	r8, r0, r0, asr #4
     71c:	00000e36 	andeq	r0, r0, r6, lsr lr
     720:	0000074f 	andeq	r0, r0, pc, asr #14
     724:	01530124 	cmpeq	r3, r4, lsr #2
     728:	52012442 	andpl	r2, r1, #1107296256	; 0x42000000
     72c:	a0a40305 	adcge	r0, r4, r5, lsl #6
     730:	01240000 	teqeq	r4, r0
     734:	cc030551 	cfstr32gt	mvfx0, [r3], {81}	; 0x51
     738:	2400009e 	strcs	r0, [r0], #-158	; 0x9e
     73c:	03055001 	movweq	r5, #20481	; 0x5001
     740:	00009e78 	andeq	r9, r0, r8, ror lr
     744:	007d0224 	rsbseq	r0, sp, r4, lsr #4
     748:	9f040305 	svcls	0x00040305
     74c:	22000000 	andcs	r0, r0, #0
     750:	00008244 	andeq	r8, r0, r4, asr #4
     754:	00000e4c 	andeq	r0, r0, ip, asr #28
     758:	8d040500 	cfstr32hi	mvfx0, [r4, #-0]
     75c:	07000001 	streq	r0, [r0, -r1]
     760:	0000007d 	andeq	r0, r0, sp, ror r0
     764:	0000076f 	andeq	r0, r0, pc, ror #14
     768:	00007608 	andeq	r7, r0, r8, lsl #12
     76c:	06000500 	streq	r0, [r0], -r0, lsl #10
     770:	0000075f 	andeq	r0, r0, pc, asr r7
     774:	0000b92b 	andeq	fp, r0, fp, lsr #18
     778:	25160300 	ldrcs	r0, [r6, #-768]	; 0x300
     77c:	84000000 	strhi	r0, [r0], #-0
     780:	88000082 	stmdahi	r0, {r1, r7}
     784:	01000000 	mrseq	r0, (UNDEF: 0)
     788:	0008509c 	muleq	r8, ip, r0
     78c:	00632600 	rsbeq	r2, r3, r0, lsl #12
     790:	07591603 	ldrbeq	r1, [r9, -r3, lsl #12]
     794:	00890000 	addeq	r0, r9, r0
     798:	e01d0000 	ands	r0, sp, r0
     79c:	8c000001 	stchi	0, cr0, [r0], {1}
     7a0:	08000082 	stmdaeq	r0, {r1, r7}
     7a4:	03000000 	movweq	r0, #0
     7a8:	0007d717 	andeq	sp, r7, r7, lsl r7
     7ac:	01f02800 	mvnseq	r2, r0, lsl #16
     7b0:	03060000 	movweq	r0, #24576	; 0x6000
     7b4:	0000a6f0 	strdeq	sl, [r0], -r0
     7b8:	828c1f9f 	addhi	r1, ip, #636	; 0x27c
     7bc:	00080000 	andeq	r0, r8, r0
     7c0:	94290000 	strtls	r0, [r9], #-0
     7c4:	53000082 	movwpl	r0, #130	; 0x82
     7c8:	2400000e 	strcs	r0, [r0], #-14
     7cc:	03055001 	movweq	r5, #20481	; 0x5001
     7d0:	0000a6f0 	strdeq	sl, [r0], -r0
     7d4:	2c000000 	stccs	0, cr0, [r0], {-0}
     7d8:	00000388 	andeq	r0, r0, r8, lsl #7
     7dc:	000082ac 	andeq	r8, r0, ip, lsr #5
     7e0:	00000040 	andeq	r0, r0, r0, asr #32
     7e4:	941a1a03 	ldrls	r1, [sl], #-2563	; 0xa03
     7e8:	aa000003 	bge	7fc <__code_start__-0x7804>
     7ec:	1f000000 	svcne	0x00000000
     7f0:	000082ac 	andeq	r8, r0, ip, lsr #5
     7f4:	00000040 	andeq	r0, r0, r0, asr #32
     7f8:	00039d1c 	andeq	r9, r3, ip, lsl sp
     7fc:	98030500 	stmdals	r3, {r8, sl}
     800:	220000a0 	andcs	r0, r0, #160	; 0xa0
     804:	000082c0 	andeq	r8, r0, r0, asr #5
     808:	00000e2f 	andeq	r0, r0, pc, lsr #28
     80c:	0082dc23 	addeq	sp, r2, r3, lsr #24
     810:	000e3600 	andeq	r3, lr, r0, lsl #12
     814:	00084400 	andeq	r4, r8, r0, lsl #8
     818:	53012400 	movwpl	r2, #5120	; 0x1400
     81c:	01244801 	teqeq	r4, r1, lsl #16
     820:	98030552 	stmdals	r3, {r1, r4, r6, r8, sl}
     824:	240000a0 	strcs	r0, [r0], #-160	; 0xa0
     828:	03055101 	movweq	r5, #20737	; 0x5101
     82c:	00009ee8 	andeq	r9, r0, r8, ror #29
     830:	05500124 	ldrbeq	r0, [r0, #-292]	; 0x124
     834:	009e7803 	addseq	r7, lr, r3, lsl #16
     838:	7d022400 	cfstrsvc	mvf2, [r2, #-0]
     83c:	f8030500 			; <UNDEFINED> instruction: 0xf8030500
     840:	0000009e 	muleq	r0, lr, r0
     844:	0082e022 	addeq	lr, r2, r2, lsr #32
     848:	000e4c00 	andeq	r4, lr, r0, lsl #24
     84c:	00000000 	andeq	r0, r0, r0
     850:	0001da25 	andeq	sp, r1, r5, lsr #20
     854:	0c1e0300 	ldceq	3, cr0, [lr], {-0}
     858:	20000083 	andcs	r0, r0, r3, lsl #1
     85c:	01000000 	mrseq	r0, (UNDEF: 0)
     860:	00088d9c 	muleq	r8, ip, sp
     864:	00632d00 	rsbeq	r2, r3, r0, lsl #26
     868:	07591e03 	ldrbeq	r1, [r9, -r3, lsl #28]
     86c:	50010000 	andpl	r0, r1, r0
     870:	0001a82c 	andeq	sl, r1, ip, lsr #16
     874:	00831800 	addeq	r1, r3, r0, lsl #16
     878:	00001400 	andeq	r1, r0, r0, lsl #8
     87c:	28200300 	stmdacs	r0!, {r8, r9}
     880:	000001b4 			; <UNDEFINED> instruction: 0x000001b4
     884:	a6f00306 	ldrbtge	r0, [r0], r6, lsl #6
     888:	009f0000 	addseq	r0, pc, r0
     88c:	01e32b00 	mvneq	r2, r0, lsl #22
     890:	22030000 	andcs	r0, r3, #0
     894:	00000025 	andeq	r0, r0, r5, lsr #32
     898:	0000832c 	andeq	r8, r0, ip, lsr #6
     89c:	0000006c 	andeq	r0, r0, ip, rrx
     8a0:	090e9c01 	stmdbeq	lr, {r0, sl, fp, ip, pc}
     8a4:	63260000 	teqvs	r6, #0
     8a8:	59220300 	stmdbpl	r2!, {r8, r9}
     8ac:	c2000007 	andgt	r0, r0, #7
     8b0:	27000000 	strcs	r0, [r0, -r0]
     8b4:	000000d4 	ldrdeq	r0, [r0], -r4
     8b8:	0000091e 	andeq	r0, r0, lr, lsl r9
     8bc:	a08c0305 	addge	r0, ip, r5, lsl #6
     8c0:	48220000 	stmdami	r2!, {}	; <UNPREDICTABLE>
     8c4:	2f000083 	svccs	0x00000083
     8c8:	2300000e 	movwcs	r0, #14
     8cc:	00008364 	andeq	r8, r0, r4, ror #6
     8d0:	00000e36 	andeq	r0, r0, r6, lsr lr
     8d4:	00000904 	andeq	r0, r0, r4, lsl #18
     8d8:	02530124 	subseq	r0, r3, #36, 2
     8dc:	01242308 	teqeq	r4, r8, lsl #6
     8e0:	8c030552 	cfstr32hi	mvfx0, [r3], {82}	; 0x52
     8e4:	240000a0 	strcs	r0, [r0], #-160	; 0xa0
     8e8:	03055101 	movweq	r5, #20737	; 0x5101
     8ec:	00009ecc 	andeq	r9, r0, ip, asr #29
     8f0:	05500124 	ldrbeq	r0, [r0, #-292]	; 0x124
     8f4:	009e7803 	addseq	r7, lr, r3, lsl #16
     8f8:	7d022400 	cfstrsvc	mvf2, [r2, #-0]
     8fc:	28030500 	stmdacs	r3, {r8, sl}
     900:	0000009f 	muleq	r0, pc, r0	; <UNPREDICTABLE>
     904:	00836822 	addeq	r6, r3, r2, lsr #16
     908:	000e4c00 	andeq	r4, lr, r0, lsl #24
     90c:	7d070000 	stcvc	0, cr0, [r7, #-0]
     910:	1e000000 	cdpne	0, 0, cr0, cr0, cr0, {0}
     914:	08000009 	stmdaeq	r0, {r0, r3}
     918:	00000076 	andeq	r0, r0, r6, ror r0
     91c:	0e060009 	cdpeq	0, 0, cr0, cr6, cr9, {0}
     920:	2e000009 	cdpcs	0, 0, cr0, cr0, cr9, {0}
     924:	0000012c 	andeq	r0, r0, ip, lsr #2
     928:	018d2703 	orreq	r2, sp, r3, lsl #14
     92c:	83980000 	orrshi	r0, r8, #0
     930:	00700000 	rsbseq	r0, r0, r0
     934:	9c010000 	stcls	0, cr0, [r1], {-0}
     938:	00011b13 	andeq	r1, r1, r3, lsl fp
     93c:	84180100 	ldrhi	r0, [r8], #-256	; 0x100
     940:	03000000 	movweq	r0, #0
     944:	00000961 	andeq	r0, r0, r1, ror #18
     948:	00019c14 	andeq	r9, r1, r4, lsl ip
     94c:	5d180100 	ldfpls	f0, [r8, #-0]
     950:	17000000 	strne	r0, [r0, -r0]
     954:	000000d4 	ldrdeq	r0, [r0], -r4
     958:	00000961 	andeq	r0, r0, r1, ror #18
     95c:	0000011b 	andeq	r0, r0, fp, lsl r1
     960:	02560600 	subseq	r0, r6, #0, 12
     964:	7d2f0000 	stcvc	0, cr0, [pc, #-0]	; 96c <__code_start__-0x7694>
     968:	03000000 	movweq	r0, #0
     96c:	00840831 	addeq	r0, r4, r1, lsr r8
     970:	0002a000 	andeq	sl, r2, r0
     974:	ff9c0100 			; <UNDEFINED> instruction: 0xff9c0100
     978:	2700000d 	strcs	r0, [r0, -sp]
     97c:	000000d4 	ldrdeq	r0, [r0], -r4
     980:	00000dff 	strdeq	r0, [r0], -pc	; <UNPREDICTABLE>
     984:	a0c40305 	sbcge	r0, r4, r5, lsl #6
     988:	63300000 	teqvs	r0, #0
     98c:	9f430300 	svcls	0x00430300
     990:	03000000 	movweq	r0, #0
     994:	187fb891 	ldmdane	pc!, {r0, r4, r7, fp, ip, sp, pc}^	; <UNPREDICTABLE>
     998:	4403006e 	strmi	r0, [r3], #-110	; 0x6e
     99c:	00000025 	andeq	r0, r0, r5, lsr #32
     9a0:	0002061d 	andeq	r0, r2, sp, lsl r6
     9a4:	00841800 	addeq	r1, r4, r0, lsl #16
     9a8:	00000400 	andeq	r0, r0, r0, lsl #8
     9ac:	c7370300 	ldrgt	r0, [r7, -r0, lsl #6]!
     9b0:	1f000009 	svcne	0x00000009
     9b4:	00008418 	andeq	r8, r0, r8, lsl r4
     9b8:	00000004 	andeq	r0, r0, r4
     9bc:	0002162a 	andeq	r1, r2, sl, lsr #12
     9c0:	0000fc00 	andeq	pc, r0, r0, lsl #24
     9c4:	1d000000 	stcne	0, cr0, [r0, #-0]
     9c8:	00000938 	andeq	r0, r0, r8, lsr r9
     9cc:	0000841c 	andeq	r8, r0, ip, lsl r4
     9d0:	000000ac 	andeq	r0, r0, ip, lsr #1
     9d4:	0a553703 	beq	154e5e8 <__bss_end__+0x1543ad8>
     9d8:	481a0000 	ldmdami	sl, {}	; <UNPREDICTABLE>
     9dc:	fc000009 	stc2	0, cr0, [r0], {9}
     9e0:	1f000000 	svcne	0x00000000
     9e4:	0000841c 	andeq	r8, r0, ip, lsl r4
     9e8:	000000ac 	andeq	r0, r0, ip, lsr #1
     9ec:	0009531c 	andeq	r5, r9, ip, lsl r3
     9f0:	cc030500 	cfstr32gt	mvfx0, [r3], {-0}
     9f4:	230000a0 	movwcs	r0, #160	; 0xa0
     9f8:	00008424 	andeq	r8, r0, r4, lsr #8
     9fc:	00000222 	andeq	r0, r0, r2, lsr #4
     a00:	00000a0b 	andeq	r0, r0, fp, lsl #20
     a04:	02500124 	subseq	r0, r0, #36, 2
     a08:	22000074 	andcs	r0, r0, #116	; 0x74
     a0c:	000084a0 	andeq	r8, r0, r0, lsr #9
     a10:	00000e2f 	andeq	r0, r0, pc, lsr #28
     a14:	0084b823 	addeq	fp, r4, r3, lsr #16
     a18:	000e3600 	andeq	r3, lr, r0, lsl #12
     a1c:	000a4a00 	andeq	r4, sl, r0, lsl #20
     a20:	53012400 	movwpl	r2, #5120	; 0x1400
     a24:	24210802 	strtcs	r0, [r1], #-2050	; 0x802
     a28:	03055201 	movweq	r5, #20993	; 0x5201
     a2c:	0000a0cc 	andeq	sl, r0, ip, asr #1
     a30:	05510124 	ldrbeq	r0, [r1, #-292]	; 0x124
     a34:	009e8c03 	addseq	r8, lr, r3, lsl #24
     a38:	50012400 	andpl	r2, r1, r0, lsl #8
     a3c:	9f840305 	svcls	0x00840305
     a40:	02240000 	eoreq	r0, r4, #0
     a44:	7402007d 	strvc	r0, [r2], #-125	; 0x7d
     a48:	bc220000 	stclt	0, cr0, [r2], #-0
     a4c:	4c000084 	stcmi	0, cr0, [r0], {132}	; 0x84
     a50:	0000000e 	andeq	r0, r0, lr
     a54:	01a81d00 			; <UNDEFINED> instruction: 0x01a81d00
     a58:	84d00000 	ldrbhi	r0, [r0], #0
     a5c:	000c0000 	andeq	r0, ip, r0
     a60:	39030000 	stmdbcc	r3, {}	; <UNPREDICTABLE>
     a64:	00000a75 	andeq	r0, r0, r5, ror sl
     a68:	0001b428 	andeq	fp, r1, r8, lsr #8
     a6c:	f0030600 			; <UNDEFINED> instruction: 0xf0030600
     a70:	9f0000a6 	svcls	0x000000a6
     a74:	01e01d00 	mvneq	r1, r0, lsl #26
     a78:	84dc0000 	ldrbhi	r0, [ip], #0
     a7c:	00040000 	andeq	r0, r4, r0
     a80:	3a030000 	bcc	c0a88 <__bss_end__+0xb5f78>
     a84:	00000ab2 			; <UNDEFINED> instruction: 0x00000ab2
     a88:	0001f028 	andeq	pc, r1, r8, lsr #32
     a8c:	f0030600 			; <UNDEFINED> instruction: 0xf0030600
     a90:	9f0000a6 	svcls	0x000000a6
     a94:	0084dc1f 	addeq	sp, r4, pc, lsl ip
     a98:	00000400 	andeq	r0, r0, r0, lsl #8
     a9c:	84e02900 	strbthi	r2, [r0], #2304	; 0x900
     aa0:	0e530000 	cdpeq	0, 5, cr0, cr3, cr0, {0}
     aa4:	01240000 	teqeq	r4, r0
     aa8:	f0030550 			; <UNDEFINED> instruction: 0xf0030550
     aac:	000000a6 	andeq	r0, r0, r6, lsr #1
     ab0:	00310000 	eorseq	r0, r1, r0
     ab4:	e8000000 	stmda	r0, {}	; <UNPREDICTABLE>
     ab8:	3200000c 	andcc	r0, r0, #12
     abc:	3b030069 	blcc	c0c68 <__bss_end__+0xb6158>
     ac0:	00000025 	andeq	r0, r0, r5, lsr #32
     ac4:	0000011a 	andeq	r0, r0, sl, lsl r1
     ac8:	0001a833 	andeq	sl, r1, r3, lsr r8
     acc:	00850c00 	addeq	r0, r5, r0, lsl #24
     ad0:	00001800 	andeq	r1, r0, r0, lsl #16
     ad4:	e53c0300 	ldr	r0, [ip, #-768]!	; 0x300
     ad8:	1a00000a 	bne	b08 <__code_start__-0x74f8>
     adc:	000001b4 			; <UNDEFINED> instruction: 0x000001b4
     ae0:	00000138 	andeq	r0, r0, r8, lsr r1
     ae4:	01e01d00 	mvneq	r1, r0, lsl #26
     ae8:	85100000 	ldrhi	r0, [r0, #-0]
     aec:	00080000 	andeq	r0, r8, r0
     af0:	3d030000 	stccc	0, cr0, [r3, #-0]
     af4:	00000b1c 	andeq	r0, r0, ip, lsl fp
     af8:	0001f01a 	andeq	pc, r1, sl, lsl r0	; <UNPREDICTABLE>
     afc:	00015000 	andeq	r5, r1, r0
     b00:	85101f00 	ldrhi	r1, [r0, #-3840]	; 0xf00
     b04:	00080000 	andeq	r0, r8, r0
     b08:	18290000 	stmdane	r9!, {}	; <UNPREDICTABLE>
     b0c:	53000085 	movwpl	r0, #133	; 0x85
     b10:	2400000e 	strcs	r0, [r0], #-14
     b14:	74025001 	strvc	r5, [r2], #-1
     b18:	00000000 	andeq	r0, r0, r0
     b1c:	0001e01d 	andeq	lr, r1, sp, lsl r0
     b20:	00854400 	addeq	r4, r5, r0, lsl #8
     b24:	00000800 	andeq	r0, r0, r0, lsl #16
     b28:	533e0300 	teqpl	lr, #0, 6
     b2c:	1a00000b 	bne	b60 <__code_start__-0x74a0>
     b30:	000001f0 	strdeq	r0, [r0], -r0	; <UNPREDICTABLE>
     b34:	00000168 	andeq	r0, r0, r8, ror #2
     b38:	0085441f 	addeq	r4, r5, pc, lsl r4
     b3c:	00000800 	andeq	r0, r0, r0, lsl #16
     b40:	854c2900 	strbhi	r2, [ip, #-2304]	; 0x900
     b44:	0e530000 	cdpeq	0, 5, cr0, cr3, cr0, {0}
     b48:	01240000 	teqeq	r4, r0
     b4c:	00740250 	rsbseq	r0, r4, r0, asr r2
     b50:	1d000000 	stcne	0, cr0, [r0, #-0]
     b54:	00000388 	andeq	r0, r0, r8, lsl #7
     b58:	00008578 	andeq	r8, r0, r8, ror r5
     b5c:	00000034 	andeq	r0, r0, r4, lsr r0
     b60:	0bcf3f03 	bleq	ff3d0774 <__bss_end__+0xff3c5c64>
     b64:	941a0000 	ldrls	r0, [sl], #-0
     b68:	80000003 	andhi	r0, r0, r3
     b6c:	1f000001 	svcne	0x00000001
     b70:	00008578 	andeq	r8, r0, r8, ror r5
     b74:	00000034 	andeq	r0, r0, r4, lsr r0
     b78:	00039d1c 	andeq	r9, r3, ip, lsl sp
     b7c:	98030500 	stmdals	r3, {r8, sl}
     b80:	220000a0 	andcs	r0, r0, #160	; 0xa0
     b84:	00008588 	andeq	r8, r0, r8, lsl #11
     b88:	00000e2f 	andeq	r0, r0, pc, lsr #28
     b8c:	0085a423 	addeq	sl, r5, r3, lsr #8
     b90:	000e3600 	andeq	r3, lr, r0, lsl #12
     b94:	000bc400 	andeq	ip, fp, r0, lsl #8
     b98:	53012400 	movwpl	r2, #5120	; 0x1400
     b9c:	01244801 	teqeq	r4, r1, lsl #16
     ba0:	98030552 	stmdals	r3, {r1, r4, r6, r8, sl}
     ba4:	240000a0 	strcs	r0, [r0], #-160	; 0xa0
     ba8:	03055101 	movweq	r5, #20737	; 0x5101
     bac:	00009ee8 	andeq	r9, r0, r8, ror #29
     bb0:	05500124 	ldrbeq	r0, [r0, #-292]	; 0x124
     bb4:	009e7803 	addseq	r7, lr, r3, lsl #16
     bb8:	7d022400 	cfstrsvc	mvf2, [r2, #-0]
     bbc:	f8030500 			; <UNDEFINED> instruction: 0xf8030500
     bc0:	0000009e 	muleq	r0, lr, r0
     bc4:	0085a822 	addeq	sl, r5, r2, lsr #16
     bc8:	000e4c00 	andeq	r4, lr, r0, lsl #24
     bcc:	1d000000 	stcne	0, cr0, [r0, #-0]
     bd0:	000001e0 	andeq	r0, r0, r0, ror #3
     bd4:	000085ac 	andeq	r8, r0, ip, lsr #11
     bd8:	00000008 	andeq	r0, r0, r8
     bdc:	0c064003 	stceq	0, cr4, [r6], {3}
     be0:	f01a0000 			; <UNDEFINED> instruction: 0xf01a0000
     be4:	98000001 	stmdals	r0, {r0}
     be8:	1f000001 	svcne	0x00000001
     bec:	000085ac 	andeq	r8, r0, ip, lsr #11
     bf0:	00000008 	andeq	r0, r0, r8
     bf4:	0085b429 	addeq	fp, r5, r9, lsr #8
     bf8:	000e5300 	andeq	r5, lr, r0, lsl #6
     bfc:	50012400 	andpl	r2, r1, r0, lsl #8
     c00:	00007402 	andeq	r7, r0, r2, lsl #8
     c04:	24220000 	strtcs	r0, [r2], #-0
     c08:	2f000085 	svccs	0x00000085
     c0c:	2300000e 	movwcs	r0, #14
     c10:	00008540 	andeq	r8, r0, r0, asr #10
     c14:	00000e36 	andeq	r0, r0, r6, lsr lr
     c18:	00000c48 	andeq	r0, r0, r8, asr #24
     c1c:	02530124 	subseq	r0, r3, #36, 2
     c20:	01243d08 	teqeq	r4, r8, lsl #26
     c24:	c4030552 	strgt	r0, [r3], #-1362	; 0x552
     c28:	240000a0 	strcs	r0, [r0], #-160	; 0xa0
     c2c:	03055101 	movweq	r5, #20737	; 0x5101
     c30:	00009ecc 	andeq	r9, r0, ip, asr #29
     c34:	05500124 	ldrbeq	r0, [r0, #-292]	; 0x124
     c38:	009e7803 	addseq	r7, lr, r3, lsl #16
     c3c:	7d022400 	cfstrsvc	mvf2, [r2, #-0]
     c40:	b4030500 	strlt	r0, [r3], #-1280	; 0x500
     c44:	0000009f 	muleq	r0, pc, r0	; <UNPREDICTABLE>
     c48:	00854422 	addeq	r4, r5, r2, lsr #8
     c4c:	000e4c00 	andeq	r4, lr, r0, lsl #24
     c50:	85582200 	ldrbhi	r2, [r8, #-512]	; 0x200
     c54:	0e2f0000 	cdpeq	0, 2, cr0, cr15, cr0, {0}
     c58:	74230000 	strtvc	r0, [r3], #-0
     c5c:	36000085 	strcc	r0, [r0], -r5, lsl #1
     c60:	9300000e 	movwls	r0, #14
     c64:	2400000c 	strcs	r0, [r0], #-12
     c68:	08025301 	stmdaeq	r2, {r0, r8, r9, ip, lr}
     c6c:	5201243e 	andpl	r2, r1, #1040187392	; 0x3e000000
     c70:	a0c40305 	sbcge	r0, r4, r5, lsl #6
     c74:	01240000 	teqeq	r4, r0
     c78:	cc030551 	cfstr32gt	mvfx0, [r3], {81}	; 0x51
     c7c:	2400009e 	strcs	r0, [r0], #-158	; 0x9e
     c80:	03055001 	movweq	r5, #20481	; 0x5001
     c84:	00009e78 	andeq	r9, r0, r8, ror lr
     c88:	007d0224 	rsbseq	r0, sp, r4, lsr #4
     c8c:	9fc80305 	svcls	0x00c80305
     c90:	22000000 	andcs	r0, r0, #0
     c94:	00008578 	andeq	r8, r0, r8, ror r5
     c98:	00000e4c 	andeq	r0, r0, ip, asr #28
     c9c:	0085c022 	addeq	ip, r5, r2, lsr #32
     ca0:	000e2f00 	andeq	r2, lr, r0, lsl #30
     ca4:	85dc2300 	ldrbhi	r2, [ip, #768]	; 0x300
     ca8:	0e360000 	cdpeq	0, 3, cr0, cr6, cr0, {0}
     cac:	0cde0000 	ldcleq	0, cr0, [lr], {0}
     cb0:	01240000 	teqeq	r4, r0
     cb4:	40080253 	andmi	r0, r8, r3, asr r2
     cb8:	05520124 	ldrbeq	r0, [r2, #-292]	; 0x124
     cbc:	00a0c403 	adceq	ip, r0, r3, lsl #8
     cc0:	51012400 	tstpl	r1, r0, lsl #8
     cc4:	9ecc0305 	cdpls	3, 12, cr0, cr12, cr5, {0}
     cc8:	01240000 	teqeq	r4, r0
     ccc:	78030550 	stmdavc	r3, {r4, r6, r8, sl}
     cd0:	2400009e 	strcs	r0, [r0], #-158	; 0x9e
     cd4:	05007d02 	streq	r7, [r0, #-3330]	; 0xd02
     cd8:	009fb403 	addseq	fp, pc, r3, lsl #8
     cdc:	e0220000 	eor	r0, r2, r0
     ce0:	4c000085 	stcmi	0, cr0, [r0], {133}	; 0x85
     ce4:	0000000e 	andeq	r0, r0, lr
     ce8:	00841422 	addeq	r1, r4, r2, lsr #8
     cec:	000e6800 	andeq	r6, lr, r0, lsl #16
     cf0:	84182200 	ldrhi	r2, [r8], #-512	; 0x200
     cf4:	0e6f0000 	cdpeq	0, 6, cr0, cr15, cr0, {0}
     cf8:	d0230000 	eorle	r0, r3, r0
     cfc:	36000084 	strcc	r0, [r0], -r4, lsl #1
     d00:	1100000e 	tstne	r0, lr
     d04:	2400000d 	strcs	r0, [r0], #-13
     d08:	03055001 	movweq	r5, #20481	; 0x5001
     d0c:	00009fa8 	andeq	r9, r0, r8, lsr #31
     d10:	84ec2200 	strbthi	r2, [ip], #512	; 0x200
     d14:	0e2f0000 	cdpeq	0, 2, cr0, cr15, cr0, {0}
     d18:	08230000 	stmdaeq	r3!, {}	; <UNPREDICTABLE>
     d1c:	36000085 	strcc	r0, [r0], -r5, lsl #1
     d20:	5300000e 	movwpl	r0, #14
     d24:	2400000d 	strcs	r0, [r0], #-13
     d28:	08025301 	stmdaeq	r2, {r0, r8, r9, ip, lr}
     d2c:	5201243a 	andpl	r2, r1, #973078528	; 0x3a000000
     d30:	a0c40305 	sbcge	r0, r4, r5, lsl #6
     d34:	01240000 	teqeq	r4, r0
     d38:	cc030551 	cfstr32gt	mvfx0, [r3], {81}	; 0x51
     d3c:	2400009e 	strcs	r0, [r0], #-158	; 0x9e
     d40:	03055001 	movweq	r5, #20481	; 0x5001
     d44:	00009e78 	andeq	r9, r0, r8, ror lr
     d48:	007d0224 	rsbseq	r0, sp, r4, lsr #4
     d4c:	9fb40305 	svcls	0x00b40305
     d50:	22000000 	andcs	r0, r0, #0
     d54:	0000850c 	andeq	r8, r0, ip, lsl #10
     d58:	00000e4c 	andeq	r0, r0, ip, asr #28
     d5c:	00860423 	addeq	r0, r6, r3, lsr #8
     d60:	00092300 	andeq	r2, r9, r0, lsl #6
     d64:	000d7100 	andeq	r7, sp, r0, lsl #2
     d68:	50012400 	andpl	r2, r1, r0, lsl #8
     d6c:	7fb09103 	svcvc	0x00b09103
     d70:	860c2300 	strhi	r2, [ip], -r0, lsl #6
     d74:	0e760000 	cdpeq	0, 7, cr0, cr6, cr0, {0}
     d78:	0d860000 	stceq	0, cr0, [r6]
     d7c:	01240000 	teqeq	r4, r0
     d80:	b0910350 	addslt	r0, r1, r0, asr r3
     d84:	1822007f 	stmdane	r2!, {r0, r1, r2, r3, r4, r5, r6}
     d88:	2f000086 	svccs	0x00000086
     d8c:	2300000e 	movwcs	r0, #14
     d90:	0000862c 	andeq	r8, r0, ip, lsr #12
     d94:	00000e36 	andeq	r0, r0, r6, lsr lr
     d98:	00000dbe 			; <UNDEFINED> instruction: 0x00000dbe
     d9c:	02530124 	subseq	r0, r3, #36, 2
     da0:	01244608 	teqeq	r4, r8, lsl #12
     da4:	c4030552 	strgt	r0, [r3], #-1362	; 0x552
     da8:	240000a0 	strcs	r0, [r0], #-160	; 0xa0
     dac:	03055101 	movweq	r5, #20737	; 0x5101
     db0:	00009ecc 	andeq	r9, r0, ip, asr #29
     db4:	05500124 	ldrbeq	r0, [r0, #-292]	; 0x124
     db8:	009fdc03 	addseq	sp, pc, r3, lsl #24
     dbc:	30220000 	eorcc	r0, r2, r0
     dc0:	4c000086 	stcmi	0, cr0, [r0], {134}	; 0x86
     dc4:	2300000e 	movwcs	r0, #14
     dc8:	00008638 	andeq	r8, r0, r8, lsr r6
     dcc:	00000e36 	andeq	r0, r0, r6, lsr lr
     dd0:	00000dde 	ldrdeq	r0, [r0], -lr
     dd4:	05500124 	ldrbeq	r0, [r0, #-292]	; 0x124
     dd8:	00a00c03 	adceq	r0, r0, r3, lsl #24
     ddc:	48230000 	stmdami	r3!, {}	; <UNPREDICTABLE>
     de0:	36000086 	strcc	r0, [r0], -r6, lsl #1
     de4:	f500000e 			; <UNDEFINED> instruction: 0xf500000e
     de8:	2400000d 	strcs	r0, [r0], #-13
     dec:	03055001 	movweq	r5, #20481	; 0x5001
     df0:	0000a018 	andeq	sl, r0, r8, lsl r0
     df4:	864c2200 	strbhi	r2, [ip], -r0, lsl #4
     df8:	0e4c0000 	cdpeq	0, 4, cr0, cr12, cr0, {0}
     dfc:	06000000 	streq	r0, [r0], -r0
     e00:	0000008f 	andeq	r0, r0, pc, lsl #1
     e04:	746e6330 	strbtvc	r6, [lr], #-816	; 0x330
     e08:	a3080300 	movwge	r0, #33536	; 0x8300
     e0c:	05000001 	streq	r0, [r0, #-1]
     e10:	00a6ec03 	adceq	lr, r6, r3, lsl #24
     e14:	006c3000 	rsbeq	r3, ip, r0
     e18:	01980903 	orrseq	r0, r8, r3, lsl #18
     e1c:	03050000 	movweq	r0, #20480	; 0x5000
     e20:	0000a6f0 	strdeq	sl, [r0], -r0
     e24:	00017b34 	andeq	r7, r1, r4, lsr fp
     e28:	25c20900 	strbcs	r0, [r2, #2304]	; 0x900
     e2c:	35000000 	strcc	r0, [r0, #-0]
     e30:	000000c5 	andeq	r0, r0, r5, asr #1
     e34:	ad361e08 	ldcge	14, cr1, [r6, #-32]!	; 0xffffffe0
     e38:	08000005 	stmdaeq	r0, {r0, r2}
     e3c:	00002529 	andeq	r2, r0, r9, lsr #10
     e40:	000e4c00 	andeq	r4, lr, r0, lsl #24
     e44:	00840e00 	addeq	r0, r4, r0, lsl #28
     e48:	00370000 	eorseq	r0, r7, r0
     e4c:	00010535 	andeq	r0, r1, r5, lsr r5
     e50:	36650800 	strbtcc	r0, [r5], -r0, lsl #16
     e54:	000000f4 	strdeq	r0, [r0], -r4
     e58:	00250c04 	eoreq	r0, r5, r4, lsl #24
     e5c:	0e680000 	cdpeq	0, 6, cr0, cr8, cr0, {0}
     e60:	be0e0000 	cdplt	0, 0, cr0, cr14, cr0, {0}
     e64:	00000001 	andeq	r0, r0, r1
     e68:	0001ed35 	andeq	lr, r1, r5, lsr sp
     e6c:	358d0800 	strcc	r0, [sp, #2048]	; 0x800
     e70:	000002a2 	andeq	r0, r0, r2, lsr #5
     e74:	e7383605 	ldr	r3, [r8, -r5, lsl #12]!
     e78:	06000001 	streq	r0, [r0], -r1
     e7c:	0000254e 	andeq	r2, r0, lr, asr #10
     e80:	07590e00 	ldrbeq	r0, [r9, -r0, lsl #28]
     e84:	00000000 	andeq	r0, r0, r0
     e88:	00000bd7 	ldrdeq	r0, [r0], -r7
     e8c:	02eb0004 	rsceq	r0, fp, #4
     e90:	01040000 	mrseq	r0, (UNDEF: 4)
     e94:	000001fa 	strdeq	r0, [r0], -sl
     e98:	0002e701 	andeq	lr, r2, r1, lsl #14
     e9c:	00000000 	andeq	r0, r0, r0
     ea0:	0086a800 	addeq	sl, r6, r0, lsl #16
     ea4:	00037800 	andeq	r7, r3, r0, lsl #16
     ea8:	00028200 	andeq	r8, r2, r0, lsl #4
     eac:	05040200 	streq	r0, [r4, #-512]	; 0x200
     eb0:	00746e69 	rsbseq	r6, r4, r9, ror #28
     eb4:	8f070403 	svchi	0x00070403
     eb8:	03000000 	movweq	r0, #0
     ebc:	016f0601 	cmneq	pc, r1, lsl #12
     ec0:	02030000 	andeq	r0, r3, #0
     ec4:	00019205 	andeq	r9, r1, r5, lsl #4
     ec8:	05040300 	streq	r0, [r4, #-768]	; 0x300
     ecc:	000000a1 	andeq	r0, r0, r1, lsr #1
     ed0:	9c050803 	stcls	8, cr0, [r5], {3}
     ed4:	03000000 	movweq	r0, #0
     ed8:	016d0801 	cmneq	sp, r1, lsl #16
     edc:	02030000 	andeq	r0, r3, #0
     ee0:	0000e107 	andeq	lr, r0, r7, lsl #2
     ee4:	01c40400 	biceq	r0, r4, r0, lsl #8
     ee8:	34030000 	strcc	r0, [r3], #-0
     eec:	00000068 	andeq	r0, r0, r8, rrx
     ef0:	8a070403 	bhi	1c1f04 <__bss_end__+0x1b73f4>
     ef4:	03000000 	movweq	r0, #0
     ef8:	00850708 	addeq	r0, r5, r8, lsl #14
     efc:	04030000 	streq	r0, [r3], #-0
     f00:	00011207 	andeq	r1, r1, r7, lsl #4
     f04:	03040500 	movweq	r0, #17664	; 0x4500
     f08:	01760801 	cmneq	r6, r1, lsl #16
     f0c:	04060000 	streq	r0, [r6], #-0
     f10:	0000008c 	andeq	r0, r0, ip, lsl #1
     f14:	00007f07 	andeq	r7, r0, r7, lsl #30
     f18:	045f0400 	ldrbeq	r0, [pc], #-1024	; f20 <__code_start__-0x70e0>
     f1c:	8a020000 	bhi	80f24 <__bss_end__+0x76414>
     f20:	0000009c 	muleq	r0, ip, r0
     f24:	00a20406 	adceq	r0, r2, r6, lsl #8
     f28:	b7080000 	strlt	r0, [r8, -r0]
     f2c:	09000000 	stmdbeq	r0, {}	; <UNPREDICTABLE>
     f30:	000000b7 	strheq	r0, [r0], -r7
     f34:	00005d09 	andeq	r5, r0, r9, lsl #26
     f38:	005d0900 	subseq	r0, sp, r0, lsl #18
     f3c:	06000000 	streq	r0, [r0], -r0
     f40:	00005d04 	andeq	r5, r0, r4, lsl #26
     f44:	042b0a00 	strteq	r0, [fp], #-2560	; 0xa00
     f48:	5f020000 	svcpl	0x00020000
     f4c:	0000005d 	andeq	r0, r0, sp, asr r0
     f50:	0000d903 	andeq	sp, r0, r3, lsl #18
     f54:	65720b00 	ldrbvs	r0, [r2, #-2816]!	; 0xb00
     f58:	5f020074 	svcpl	0x00020074
     f5c:	0000005d 	andeq	r0, r0, sp, asr r0
     f60:	03ab0a00 			; <UNDEFINED> instruction: 0x03ab0a00
     f64:	a6020000 	strge	r0, [r2], -r0
     f68:	0000005d 	andeq	r0, r0, sp, asr r0
     f6c:	0000f503 	andeq	pc, r0, r3, lsl #10
     f70:	65720b00 	ldrbvs	r0, [r2, #-2816]!	; 0xb00
     f74:	a6020074 			; <UNDEFINED> instruction: 0xa6020074
     f78:	0000005d 	andeq	r0, r0, sp, asr r0
     f7c:	03fd0a00 	mvnseq	r0, #0, 20
     f80:	70020000 	andvc	r0, r2, r0
     f84:	0000002c 	andeq	r0, r0, ip, lsr #32
     f88:	00010f03 	andeq	r0, r1, r3, lsl #30
     f8c:	00720c00 	rsbseq	r0, r2, r0, lsl #24
     f90:	005d7002 	subseq	r7, sp, r2
     f94:	0a000000 	beq	f9c <__code_start__-0x7064>
     f98:	0000031a 	andeq	r0, r0, sl, lsl r3
     f9c:	005d1801 	subseq	r1, sp, r1, lsl #16
     fa0:	2b030000 	blcs	c0fa8 <__bss_end__+0xb6498>
     fa4:	0b000001 	bleq	fb0 <__code_start__-0x7050>
     fa8:	00746572 	rsbseq	r6, r4, r2, ror r5
     fac:	005d1801 	subseq	r1, sp, r1, lsl #16
     fb0:	0d000000 	stceq	0, cr0, [r0, #-0]
     fb4:	00000485 	andeq	r0, r0, r5, lsl #9
     fb8:	41031e01 	tstmi	r3, r1, lsl #28
     fbc:	0c000001 	stceq	0, cr0, [r0], {1}
     fc0:	1e010076 	mcrne	0, 0, r0, cr1, cr6, {3}
     fc4:	0000005d 	andeq	r0, r0, sp, asr r0
     fc8:	035d0d00 	cmpeq	sp, #0, 26
     fcc:	26010000 	strcs	r0, [r1], -r0
     fd0:	00015703 	andeq	r5, r1, r3, lsl #14
     fd4:	00760c00 	rsbseq	r0, r6, r0, lsl #24
     fd8:	005d2601 	subseq	r2, sp, r1, lsl #12
     fdc:	0d000000 	stceq	0, cr0, [r0, #-0]
     fe0:	00000443 	andeq	r0, r0, r3, asr #8
     fe4:	6d030d01 	stcvs	13, cr0, [r3, #-4]
     fe8:	0c000001 	stceq	0, cr0, [r0], {1}
     fec:	0d010076 	stceq	0, cr0, [r1, #-472]	; 0xfffffe28
     ff0:	0000005d 	andeq	r0, r0, sp, asr r0
     ff4:	03dd0a00 	bicseq	r0, sp, #0, 20
     ff8:	66020000 	strvs	r0, [r2], -r0
     ffc:	0000002c 	andeq	r0, r0, ip, lsr #32
    1000:	00018903 	andeq	r8, r1, r3, lsl #18
    1004:	03990e00 	orrseq	r0, r9, #0, 28
    1008:	67020000 	strvs	r0, [r2, -r0]
    100c:	0000005d 	andeq	r0, r0, sp, asr r0
    1010:	04690a00 	strbteq	r0, [r9], #-2560	; 0xa00
    1014:	56020000 	strpl	r0, [r2], -r0
    1018:	0000005d 	andeq	r0, r0, sp, asr r0
    101c:	0001a503 	andeq	sl, r1, r3, lsl #10
    1020:	65720b00 	ldrbvs	r0, [r2, #-2816]!	; 0xb00
    1024:	56020074 			; <UNDEFINED> instruction: 0x56020074
    1028:	0000005d 	andeq	r0, r0, sp, asr r0
    102c:	03a30a00 			; <UNDEFINED> instruction: 0x03a30a00
    1030:	63020000 	movwvs	r0, #8192	; 0x2000
    1034:	0000005d 	andeq	r0, r0, sp, asr r0
    1038:	0001c103 	andeq	ip, r1, r3, lsl #2
    103c:	65720b00 	ldrbvs	r0, [r2, #-2816]!	; 0xb00
    1040:	63020074 	movwvs	r0, #8308	; 0x2074
    1044:	0000005d 	andeq	r0, r0, sp, asr r0
    1048:	03080d00 	movweq	r0, #36096	; 0x8d00
    104c:	32010000 	andcc	r0, r1, #0
    1050:	0001d703 	andeq	sp, r1, r3, lsl #14
    1054:	00760c00 	rsbseq	r0, r6, r0, lsl #24
    1058:	005d3201 	subseq	r3, sp, r1, lsl #4
    105c:	0a000000 	beq	1064 <__code_start__-0x6f9c>
    1060:	00000377 	andeq	r0, r0, r7, ror r3
    1064:	005d8d01 	subseq	r8, sp, r1, lsl #26
    1068:	f3030000 	vhadd.u8	d0, d3, d0
    106c:	0b000001 	bleq	1078 <__code_start__-0x6f88>
    1070:	00746572 	rsbseq	r6, r4, r2, ror r5
    1074:	005d8d01 	subseq	r8, sp, r1, lsl #26
    1078:	0d000000 	stceq	0, cr0, [r0, #-0]
    107c:	00000339 	andeq	r0, r0, r9, lsr r3
    1080:	09038e01 	stmdbeq	r3, {r0, r9, sl, fp, pc}
    1084:	0c000002 	stceq	0, cr0, [r0], {2}
    1088:	8e010076 	mcrhi	0, 0, r0, cr1, cr6, {3}
    108c:	0000005d 	andeq	r0, r0, sp, asr r0
    1090:	03ef0d00 	mvneq	r0, #0, 26
    1094:	8c010000 	stchi	0, cr0, [r1], {-0}
    1098:	00021f03 	andeq	r1, r2, r3, lsl #30
    109c:	00760c00 	rsbseq	r0, r6, r0, lsl #24
    10a0:	005d8c01 	subseq	r8, sp, r1, lsl #24
    10a4:	0a000000 	beq	10ac <__code_start__-0x6f54>
    10a8:	000002f4 	strdeq	r0, [r0], -r4
    10ac:	002ca902 	eoreq	sl, ip, r2, lsl #18
    10b0:	39030000 	stmdbcc	r3, {}	; <UNPREDICTABLE>
    10b4:	0b000002 	bleq	10c4 <__code_start__-0x6f3c>
    10b8:	aa020072 	bge	81288 <__bss_end__+0x76778>
    10bc:	0000002c 	andeq	r0, r0, ip, lsr #32
    10c0:	03a20a00 			; <UNDEFINED> instruction: 0x03a20a00
    10c4:	97020000 	strls	r0, [r2, -r0]
    10c8:	0000005d 	andeq	r0, r0, sp, asr r0
    10cc:	00025503 	andeq	r5, r2, r3, lsl #10
    10d0:	65720b00 	ldrbvs	r0, [r2, #-2816]!	; 0xb00
    10d4:	97020074 	smlsdxls	r2, r4, r0, r0
    10d8:	0000005d 	andeq	r0, r0, sp, asr r0
    10dc:	03500f00 	cmpeq	r0, #0, 30
    10e0:	36010000 	strcc	r0, [r1], -r0
    10e4:	000086a8 	andeq	r8, r0, r8, lsr #13
    10e8:	000000b0 	strheq	r0, [r0], -r0	; <UNPREDICTABLE>
    10ec:	04309c01 	ldrteq	r9, [r0], #-3073	; 0xc01
    10f0:	6c100000 	ldcvs	0, cr0, [r0], {-0}
    10f4:	01000000 	mrseq	r0, (UNDEF: 0)
    10f8:	00007d36 	andeq	r7, r0, r6, lsr sp
    10fc:	0001b000 	andeq	fp, r1, r0
    1100:	049a1000 	ldreq	r1, [sl], #0
    1104:	36010000 	strcc	r0, [r1], -r0
    1108:	00000091 	muleq	r0, r1, r0
    110c:	000001f5 	strdeq	r0, [r0], -r5
    1110:	00031111 	andeq	r1, r3, r1, lsl r1
    1114:	5d390100 	ldfpls	f0, [r9, #-0]
    1118:	3a000000 	bcc	1120 <__code_start__-0x6ee0>
    111c:	12000002 	andne	r0, r0, #2
    1120:	000000d4 	ldrdeq	r0, [r0], -r4
    1124:	00000440 	andeq	r0, r0, r0, asr #8
    1128:	a2000305 	andge	r0, r0, #335544320	; 0x14000000
    112c:	47110000 	ldrmi	r0, [r1, -r0]
    1130:	01000003 	tsteq	r0, r3
    1134:	00005d43 	andeq	r5, r0, r3, asr #26
    1138:	00026600 	andeq	r6, r2, r0, lsl #12
    113c:	010f1300 	mrseq	r1, SP_hyp
    1140:	86b00000 	ldrthi	r0, [r0], r0
    1144:	00040000 	andeq	r0, r4, r0
    1148:	39010000 	stmdbcc	r1, {}	; <UNPREDICTABLE>
    114c:	000002dc 	ldrdeq	r0, [r0], -ip
    1150:	0086b014 	addeq	fp, r6, r4, lsl r0
    1154:	00000400 	andeq	r0, r0, r0, lsl #8
    1158:	011f1500 	tsteq	pc, r0, lsl #10
    115c:	02920000 	addseq	r0, r2, #0
    1160:	00000000 	andeq	r0, r0, r0
    1164:	00012b13 	andeq	r2, r1, r3, lsl fp
    1168:	0086b800 	addeq	fp, r6, r0, lsl #16
    116c:	00000400 	andeq	r0, r0, r0, lsl #8
    1170:	f93f0100 			; <UNDEFINED> instruction: 0xf93f0100
    1174:	16000002 	strne	r0, [r0], -r2
    1178:	00000137 	andeq	r0, r0, r7, lsr r1
    117c:	000002a5 	andeq	r0, r0, r5, lsr #5
    1180:	010f1300 	mrseq	r1, SP_hyp
    1184:	86bc0000 	ldrthi	r0, [ip], r0
    1188:	00040000 	andeq	r0, r4, r0
    118c:	41010000 	mrsmi	r0, (UNDEF: 1)
    1190:	00000320 	andeq	r0, r0, r0, lsr #6
    1194:	0086bc14 	addeq	fp, r6, r4, lsl ip
    1198:	00000400 	andeq	r0, r0, r0, lsl #8
    119c:	011f1500 	tsteq	pc, r0, lsl #10
    11a0:	02c30000 	sbceq	r0, r3, #0
    11a4:	00000000 	andeq	r0, r0, r0
    11a8:	00014113 	andeq	r4, r1, r3, lsl r1
    11ac:	0086ec00 	addeq	lr, r6, r0, lsl #24
    11b0:	00000400 	andeq	r0, r0, r0, lsl #8
    11b4:	3d460100 	stfcce	f0, [r6, #-0]
    11b8:	16000003 	strne	r0, [r0], -r3
    11bc:	0000014d 	andeq	r0, r0, sp, asr #2
    11c0:	00000266 	andeq	r0, r0, r6, ror #4
    11c4:	012b1300 	teqeq	fp, r0, lsl #6
    11c8:	86f00000 	ldrbthi	r0, [r0], r0
    11cc:	00080000 	andeq	r0, r8, r0
    11d0:	50010000 	andpl	r0, r1, r0
    11d4:	00000358 	andeq	r0, r0, r8, asr r3
    11d8:	00013717 	andeq	r3, r1, r7, lsl r7
    11dc:	0001ff00 	andeq	pc, r1, r0, lsl #30
    11e0:	00010f13 	andeq	r0, r1, r3, lsl pc
    11e4:	0086f800 	addeq	pc, r6, r0, lsl #16
    11e8:	00000400 	andeq	r0, r0, r0, lsl #8
    11ec:	7f520100 	svcvc	0x00520100
    11f0:	14000003 	strne	r0, [r0], #-3
    11f4:	000086f8 	strdeq	r8, [r0], -r8	; <UNPREDICTABLE>
    11f8:	00000004 	andeq	r0, r0, r4
    11fc:	00011f15 	andeq	r1, r1, r5, lsl pc
    1200:	0002e100 	andeq	lr, r2, r0, lsl #2
    1204:	13000000 	movwne	r0, #0
    1208:	00000157 	andeq	r0, r0, r7, asr r1
    120c:	00008728 	andeq	r8, r0, r8, lsr #14
    1210:	00000008 	andeq	r0, r0, r8
    1214:	03995401 	orrseq	r5, r9, #16777216	; 0x1000000
    1218:	63180000 	tstvs	r8, #0
    121c:	00000001 	andeq	r0, r0, r1
    1220:	86cc1900 	strbhi	r1, [ip], r0, lsl #18
    1224:	0baf0000 	bleq	febc122c <__bss_end__+0xfebb671c>
    1228:	e81a0000 	ldmda	sl, {}	; <UNPREDICTABLE>
    122c:	b6000086 	strlt	r0, [r0], -r6, lsl #1
    1230:	db00000b 	blle	1264 <__code_start__-0x6d9c>
    1234:	1b000003 	blne	1248 <__code_start__-0x6db8>
    1238:	08025301 	stmdaeq	r2, {r0, r8, r9, ip, lr}
    123c:	52011b41 	andpl	r1, r1, #66560	; 0x10400
    1240:	a2000305 	andge	r0, r0, #335544320	; 0x14000000
    1244:	011b0000 	tsteq	fp, r0
    1248:	d8030551 	stmdale	r3, {r0, r4, r6, r8, sl}
    124c:	1b0000a0 	blne	14d4 <__code_start__-0x6b2c>
    1250:	03055001 	movweq	r5, #20481	; 0x5001
    1254:	00009e78 	andeq	r9, r0, r8, ror lr
    1258:	007d021b 	rsbseq	r0, sp, fp, lsl r2
    125c:	a0e80305 	rscge	r0, r8, r5, lsl #6
    1260:	19000000 	stmdbne	r0, {}	; <UNPREDICTABLE>
    1264:	000086ec 	andeq	r8, r0, ip, ror #13
    1268:	00000bcc 	andeq	r0, r0, ip, asr #23
    126c:	00870819 	addeq	r0, r7, r9, lsl r8
    1270:	000baf00 	andeq	sl, fp, r0, lsl #30
    1274:	87241a00 	strhi	r1, [r4, -r0, lsl #20]!
    1278:	0bb60000 	bleq	fed81280 <__bss_end__+0xfed76770>
    127c:	04260000 	strteq	r0, [r6], #-0
    1280:	011b0000 	tsteq	fp, r0
    1284:	52080253 	andpl	r0, r8, #805306373	; 0x30000005
    1288:	0552011b 	ldrbeq	r0, [r2, #-283]	; 0x11b
    128c:	00a20003 	adceq	r0, r2, r3
    1290:	51011b00 	tstpl	r1, r0, lsl #22
    1294:	a0d80305 	sbcsge	r0, r8, r5, lsl #6
    1298:	011b0000 	tsteq	fp, r0
    129c:	78030550 	stmdavc	r3, {r4, r6, r8, sl}
    12a0:	1b00009e 	blne	1520 <__code_start__-0x6ae0>
    12a4:	05007d02 	streq	r7, [r0, #-3330]	; 0xd02
    12a8:	00a0e803 	adceq	lr, r0, r3, lsl #16
    12ac:	28190000 	ldmdacs	r9, {}	; <UNPREDICTABLE>
    12b0:	cc000087 	stcgt	0, cr0, [r0], {135}	; 0x87
    12b4:	0000000b 	andeq	r0, r0, fp
    12b8:	00007f1c 	andeq	r7, r0, ip, lsl pc
    12bc:	00044000 	andeq	r4, r4, r0
    12c0:	00761d00 	rsbseq	r1, r6, r0, lsl #26
    12c4:	000c0000 	andeq	r0, ip, r0
    12c8:	00043007 	andeq	r3, r4, r7
    12cc:	02d30a00 	sbcseq	r0, r3, #0, 20
    12d0:	76020000 	strvc	r0, [r2], -r0
    12d4:	0000002c 	andeq	r0, r0, ip, lsr #32
    12d8:	00046c03 	andeq	r6, r4, r3, lsl #24
    12dc:	00720b00 	rsbseq	r0, r2, r0, lsl #22
    12e0:	002c7702 	eoreq	r7, ip, r2, lsl #14
    12e4:	d41e0000 	ldrle	r0, [lr], #-0
    12e8:	7c000000 	stcvc	0, cr0, [r0], {-0}
    12ec:	d3000004 	movwle	r0, #4
    12f0:	00000002 	andeq	r0, r0, r2
    12f4:	00007f1c 	andeq	r7, r0, ip, lsl pc
    12f8:	00047c00 	andeq	r7, r4, r0, lsl #24
    12fc:	00761d00 	rsbseq	r1, r6, r0, lsl #26
    1300:	00130000 	andseq	r0, r3, r0
    1304:	00046c07 	andeq	r6, r4, r7, lsl #24
    1308:	02ab0f00 	adceq	r0, fp, #0, 30
    130c:	59010000 	stmdbpl	r1, {}	; <UNPREDICTABLE>
    1310:	00008758 	andeq	r8, r0, r8, asr r7
    1314:	000000dc 	ldrdeq	r0, [r0], -ip
    1318:	06b09c01 	ldrteq	r9, [r0], r1, lsl #24
    131c:	701f0000 	andsvc	r0, pc, r0
    1320:	59010063 	stmdbpl	r1, {r0, r1, r5, r6}
    1324:	0000002c 	andeq	r0, r0, ip, lsr #32
    1328:	000002ff 	strdeq	r0, [r0], -pc	; <UNPREDICTABLE>
    132c:	00041a20 	andeq	r1, r4, r0, lsr #20
    1330:	255a0100 	ldrbcs	r0, [sl, #-256]	; 0x100
    1334:	05000000 	streq	r0, [r0, #-0]
    1338:	00a70003 	adceq	r0, r7, r3
    133c:	00d41200 	sbcseq	r1, r4, r0, lsl #4
    1340:	06c00000 	strbeq	r0, [r0], r0
    1344:	03050000 	movweq	r0, #20480	; 0x5000
    1348:	0000a210 	andeq	sl, r0, r0, lsl r2
    134c:	00006d0e 	andeq	r6, r0, lr, lsl #26
    1350:	5d6b0100 	stfple	f0, [fp, #-0]
    1354:	13000000 	movwne	r0, #0
    1358:	0000016d 	andeq	r0, r0, sp, ror #2
    135c:	00008764 	andeq	r8, r0, r4, ror #14
    1360:	00000004 	andeq	r0, r0, r4
    1364:	05115c01 	ldreq	r5, [r1, #-3073]	; 0xc01
    1368:	64140000 	ldrvs	r0, [r4], #-0
    136c:	04000087 	streq	r0, [r0], #-135	; 0x87
    1370:	21000000 	mrscs	r0, (UNDEF: 0)
    1374:	0000017d 	andeq	r0, r0, sp, ror r1
    1378:	0000bd22 	andeq	fp, r0, r2, lsr #26
    137c:	00876400 	addeq	r6, r7, r0, lsl #8
    1380:	00000400 	andeq	r0, r0, r0, lsl #8
    1384:	14670200 	strbtne	r0, [r7], #-512	; 0x200
    1388:	00008764 	andeq	r8, r0, r4, ror #14
    138c:	00000004 	andeq	r0, r0, r4
    1390:	0000cd21 	andeq	ip, r0, r1, lsr #26
    1394:	00000000 	andeq	r0, r0, r0
    1398:	04451300 	strbeq	r1, [r5], #-768	; 0x300
    139c:	87680000 	strbhi	r0, [r8, -r0]!
    13a0:	002c0000 	eoreq	r0, ip, r0
    13a4:	62010000 	andvs	r0, r1, #0
    13a8:	000005c4 	andeq	r0, r0, r4, asr #11
    13ac:	00876814 	addeq	r6, r7, r4, lsl r8
    13b0:	00002c00 	andeq	r2, r0, r0, lsl #24
    13b4:	04552100 	ldrbeq	r2, [r5], #-256	; 0x100
    13b8:	5e230000 	cdppl	0, 2, cr0, cr3, cr0, {0}
    13bc:	05000004 	streq	r0, [r0, #-4]
    13c0:	00a22403 	adceq	r2, r2, r3, lsl #8
    13c4:	00bd1300 	adcseq	r1, sp, r0, lsl #6
    13c8:	87680000 	strbhi	r0, [r8, -r0]!
    13cc:	00040000 	andeq	r0, r4, r0
    13d0:	77020000 	strvc	r0, [r2, -r0]
    13d4:	00000564 	andeq	r0, r0, r4, ror #10
    13d8:	00876814 	addeq	r6, r7, r4, lsl r8
    13dc:	00000400 	andeq	r0, r0, r0, lsl #8
    13e0:	00cd1500 	sbceq	r1, sp, r0, lsl #10
    13e4:	03760000 	cmneq	r6, #0
    13e8:	00000000 	andeq	r0, r0, r0
    13ec:	0000f513 	andeq	pc, r0, r3, lsl r5	; <UNPREDICTABLE>
    13f0:	00876c00 	addeq	r6, r7, r0, lsl #24
    13f4:	00000400 	andeq	r0, r0, r0, lsl #8
    13f8:	81780200 	cmnhi	r8, r0, lsl #4
    13fc:	16000005 	strne	r0, [r0], -r5
    1400:	00000105 	andeq	r0, r0, r5, lsl #2
    1404:	00000376 	andeq	r0, r0, r6, ror r3
    1408:	877c1900 	ldrbhi	r1, [ip, -r0, lsl #18]!
    140c:	0baf0000 	bleq	febc1414 <__bss_end__+0xfebb6904>
    1410:	901a0000 	andsls	r0, sl, r0
    1414:	b6000087 	strlt	r0, [r0], -r7, lsl #1
    1418:	b900000b 	stmdblt	r0, {r0, r1, r3}
    141c:	1b000005 	blne	1438 <__code_start__-0x6bc8>
    1420:	08025301 	stmdaeq	r2, {r0, r8, r9, ip, lr}
    1424:	52011b79 	andpl	r1, r1, #123904	; 0x1e400
    1428:	a2240305 	eorge	r0, r4, #335544320	; 0x14000000
    142c:	011b0000 	tsteq	fp, r0
    1430:	38030551 	stmdacc	r3, {r0, r4, r6, r8, sl}
    1434:	1b0000a1 	blne	16c0 <__code_start__-0x6940>
    1438:	03055001 	movweq	r5, #20481	; 0x5001
    143c:	0000a100 	andeq	sl, r0, r0, lsl #2
    1440:	87941900 	ldrhi	r1, [r4, r0, lsl #18]
    1444:	0bcc0000 	bleq	ff30144c <__bss_end__+0xff2f693c>
    1448:	00000000 	andeq	r0, r0, r0
    144c:	00018913 	andeq	r8, r1, r3, lsl r9
    1450:	00879400 	addeq	r9, r7, r0, lsl #8
    1454:	00000400 	andeq	r0, r0, r0, lsl #8
    1458:	eb670100 	bl	19c1860 <__bss_end__+0x19b6d50>
    145c:	14000005 	strne	r0, [r0], #-5
    1460:	00008794 	muleq	r0, r4, r7
    1464:	00000004 	andeq	r0, r0, r4
    1468:	00019915 	andeq	r9, r1, r5, lsl r9
    146c:	00038900 	andeq	r8, r3, r0, lsl #18
    1470:	13000000 	movwne	r0, #0
    1474:	000001a5 	andeq	r0, r0, r5, lsr #3
    1478:	000087fc 	strdeq	r8, [r0], -ip
    147c:	00000004 	andeq	r0, r0, r4
    1480:	060e6b01 	streq	r6, [lr], -r1, lsl #22
    1484:	fc140000 	ldc2	0, cr0, [r4], {-0}
    1488:	04000087 	streq	r0, [r0], #-135	; 0x87
    148c:	21000000 	mrscs	r0, (UNDEF: 0)
    1490:	000001b5 			; <UNDEFINED> instruction: 0x000001b5
    1494:	a8190000 	ldmdage	r9, {}	; <UNPREDICTABLE>
    1498:	af000087 	svcge	0x00000087
    149c:	1a00000b 	bne	14d0 <__code_start__-0x6b30>
    14a0:	000087c4 	andeq	r8, r0, r4, asr #15
    14a4:	00000bb6 			; <UNDEFINED> instruction: 0x00000bb6
    14a8:	00000650 	andeq	r0, r0, r0, asr r6
    14ac:	0253011b 	subseq	r0, r3, #-1073741818	; 0xc0000006
    14b0:	011b6708 	tsteq	fp, r8, lsl #14
    14b4:	10030552 	andne	r0, r3, r2, asr r5
    14b8:	1b0000a2 	blne	1748 <__code_start__-0x68b8>
    14bc:	03055101 	movweq	r5, #20737	; 0x5101
    14c0:	0000a0d8 	ldrdeq	sl, [r0], -r8
    14c4:	0550011b 	ldrbeq	r0, [r0, #-283]	; 0x11b
    14c8:	009e7803 	addseq	r7, lr, r3, lsl #16
    14cc:	7d021b00 	vstrvc	d1, [r2, #-0]
    14d0:	48030500 	stmdami	r3, {r8, sl}
    14d4:	000000a1 	andeq	r0, r0, r1, lsr #1
    14d8:	0087c819 	addeq	ip, r7, r9, lsl r8
    14dc:	000bcc00 	andeq	ip, fp, r0, lsl #24
    14e0:	87dc1900 	ldrbhi	r1, [ip, r0, lsl #18]
    14e4:	0baf0000 	bleq	febc14ec <__bss_end__+0xfebb69dc>
    14e8:	f81a0000 			; <UNDEFINED> instruction: 0xf81a0000
    14ec:	b6000087 	strlt	r0, [r0], -r7, lsl #1
    14f0:	9b00000b 	blls	1524 <__code_start__-0x6adc>
    14f4:	1b000006 	blne	1514 <__code_start__-0x6aec>
    14f8:	08025301 	stmdaeq	r2, {r0, r8, r9, ip, lr}
    14fc:	52011b69 	andpl	r1, r1, #107520	; 0x1a400
    1500:	a2100305 	andsge	r0, r0, #335544320	; 0x14000000
    1504:	011b0000 	tsteq	fp, r0
    1508:	d8030551 	stmdale	r3, {r0, r4, r6, r8, sl}
    150c:	1b0000a0 	blne	1794 <__code_start__-0x686c>
    1510:	03055001 	movweq	r5, #20481	; 0x5001
    1514:	00009e78 	andeq	r9, r0, r8, ror lr
    1518:	007d021b 	rsbseq	r0, sp, fp, lsl r2
    151c:	a15c0305 	cmpge	ip, r5, lsl #6
    1520:	19000000 	stmdbne	r0, {}	; <UNPREDICTABLE>
    1524:	000087fc 	strdeq	r8, [r0], -ip
    1528:	00000bcc 	andeq	r0, r0, ip, asr #23
    152c:	00880824 	addeq	r0, r8, r4, lsr #16
    1530:	50011b00 	andpl	r1, r1, r0, lsl #22
    1534:	00003001 	andeq	r3, r0, r1
    1538:	00007f1c 	andeq	r7, r0, ip, lsl pc
    153c:	0006c000 	andeq	ip, r6, r0
    1540:	00761d00 	rsbseq	r1, r6, r0, lsl #26
    1544:	00110000 	andseq	r0, r1, r0
    1548:	0006b007 	andeq	fp, r6, r7
    154c:	040e0f00 	streq	r0, [lr], #-3840	; 0xf00
    1550:	72010000 	andvc	r0, r1, #0
    1554:	00008834 	andeq	r8, r0, r4, lsr r8
    1558:	0000003c 	andeq	r0, r0, ip, lsr r0
    155c:	07359c01 	ldreq	r9, [r5, -r1, lsl #24]!
    1560:	23200000 	teqcs	r0, #0
    1564:	01000003 	tsteq	r0, r3
    1568:	00002573 	andeq	r2, r0, r3, ror r5
    156c:	04030500 	streq	r0, [r3], #-1280	; 0x500
    1570:	250000a7 	strcs	r0, [r0, #-167]	; 0xa7
    1574:	7c010076 	stcvc	0, cr0, [r1], {118}	; 0x76
    1578:	0000005d 	andeq	r0, r0, sp, asr r0
    157c:	c1138000 	tstgt	r3, r0
    1580:	58000001 	stmdapl	r0, {r0}
    1584:	08000088 	stmdaeq	r0, {r3, r7}
    1588:	01000000 	mrseq	r0, (UNDEF: 0)
    158c:	0007117e 	andeq	r1, r7, lr, ror r1
    1590:	01cd1700 	biceq	r1, sp, r0, lsl #14
    1594:	80000000 	andhi	r0, r0, r0
    1598:	01571300 	cmpeq	r7, r0, lsl #6
    159c:	88600000 	stmdahi	r0!, {}^	; <UNPREDICTABLE>
    15a0:	00100000 	andseq	r0, r0, r0
    15a4:	80010000 	andhi	r0, r1, r0
    15a8:	0000072b 	andeq	r0, r0, fp, lsr #14
    15ac:	00016318 	andeq	r6, r1, r8, lsl r3
    15b0:	19000000 	stmdbne	r0, {}	; <UNPREDICTABLE>
    15b4:	0000884c 	andeq	r8, r0, ip, asr #16
    15b8:	00000bd3 	ldrdeq	r0, [r0], -r3
    15bc:	047a0f00 	ldrbteq	r0, [sl], #-3840	; 0xf00
    15c0:	a8010000 	stmdage	r1, {}	; <UNPREDICTABLE>
    15c4:	00008870 	andeq	r8, r0, r0, ror r8
    15c8:	00000034 	andeq	r0, r0, r4, lsr r0
    15cc:	08119c01 	ldmdaeq	r1, {r0, sl, fp, ip, pc}
    15d0:	6d260000 	stcvs	0, cr0, [r6, #-0]
    15d4:	01000000 	mrseq	r0, (UNDEF: 0)
    15d8:	00005da8 	andeq	r5, r0, r8, lsr #27
    15dc:	26500100 	ldrbcs	r0, [r0], -r0, lsl #2
    15e0:	0000049a 	muleq	r0, sl, r4
    15e4:	0091a801 	addseq	sl, r1, r1, lsl #16
    15e8:	51010000 	mrspl	r0, (UNDEF: 1)
    15ec:	00045611 	andeq	r5, r4, r1, lsl r6
    15f0:	5da90100 	stfpls	f0, [r9]
    15f4:	b6000000 	strlt	r0, [r0], -r0
    15f8:	20000003 	andcs	r0, r0, r3
    15fc:	00000422 	andeq	r0, r0, r2, lsr #8
    1600:	005db101 	subseq	fp, sp, r1, lsl #2
    1604:	50010000 	andpl	r0, r1, r0
    1608:	0001d713 	andeq	sp, r1, r3, lsl r7
    160c:	00887000 	addeq	r7, r8, r0
    1610:	00000400 	andeq	r0, r0, r0, lsl #8
    1614:	a7a90100 	strge	r0, [r9, r0, lsl #2]!
    1618:	14000007 	strne	r0, [r0], #-7
    161c:	00008870 	andeq	r8, r0, r0, ror r8
    1620:	00000004 	andeq	r0, r0, r4
    1624:	0001e715 	andeq	lr, r1, r5, lsl r7
    1628:	0003d700 	andeq	sp, r3, r0, lsl #14
    162c:	13000000 	movwne	r0, #0
    1630:	000001f3 	strdeq	r0, [r0], -r3
    1634:	00008878 	andeq	r8, r0, r8, ror r8
    1638:	00000004 	andeq	r0, r0, r4
    163c:	07c4af01 	strbeq	sl, [r4, r1, lsl #30]
    1640:	ff160000 			; <UNDEFINED> instruction: 0xff160000
    1644:	ea000001 	b	1650 <__code_start__-0x69b0>
    1648:	00000003 	andeq	r0, r0, r3
    164c:	00020913 	andeq	r0, r2, r3, lsl r9
    1650:	00887c00 	addeq	r7, r8, r0, lsl #24
    1654:	00000400 	andeq	r0, r0, r0, lsl #8
    1658:	dfb40100 	svcle	0x00b40100
    165c:	27000007 	strcs	r0, [r0, -r7]
    1660:	00000215 	andeq	r0, r0, r5, lsl r2
    1664:	13005001 	movwne	r5, #1
    1668:	000001f3 	strdeq	r0, [r0], -r3
    166c:	00008880 	andeq	r8, r0, r0, lsl #17
    1670:	00000008 	andeq	r0, r0, r8
    1674:	07fabe01 	ldrbeq	fp, [sl, r1, lsl #28]!
    1678:	ff170000 			; <UNDEFINED> instruction: 0xff170000
    167c:	e7000001 	str	r0, [r0, -r1]
    1680:	57220001 	strpl	r0, [r2, -r1]!
    1684:	88000001 	stmdahi	r0, {r0}
    1688:	08000088 	stmdaeq	r0, {r3, r7}
    168c:	01000000 	mrseq	r0, (UNDEF: 0)
    1690:	016318bf 	strheq	r1, [r3, #-143]!	; 0xffffff71
    1694:	00000000 	andeq	r0, r0, r0
    1698:	02bd0f00 	adcseq	r0, sp, #0, 30
    169c:	c4010000 	strgt	r0, [r1], #-0
    16a0:	000088a4 	andeq	r8, r0, r4, lsr #17
    16a4:	00000098 	muleq	r0, r8, r0
    16a8:	09449c01 	stmdbeq	r4, {r0, sl, fp, ip, pc}^
    16ac:	701f0000 	andsvc	r0, pc, r0
    16b0:	c4010063 	strgt	r0, [r1], #-99	; 0x63
    16b4:	0000002c 	andeq	r0, r0, ip, lsr #32
    16b8:	000003fd 	strdeq	r0, [r0], -sp
    16bc:	0000d412 	andeq	sp, r0, r2, lsl r4
    16c0:	00095400 	andeq	r5, r9, r0, lsl #8
    16c4:	38030500 	stmdacc	r3, {r8, sl}
    16c8:	130000a2 	movwne	r0, #162	; 0xa2
    16cc:	0000021f 	andeq	r0, r0, pc, lsl r2
    16d0:	000088b0 			; <UNDEFINED> instruction: 0x000088b0
    16d4:	00000008 	andeq	r0, r0, r8
    16d8:	0889c601 	stmeq	r9, {r0, r9, sl, lr, pc}
    16dc:	b0140000 	andslt	r0, r4, r0
    16e0:	08000088 	stmdaeq	r0, {r3, r7}
    16e4:	21000000 	mrscs	r0, (UNDEF: 0)
    16e8:	0000022f 	andeq	r0, r0, pc, lsr #4
    16ec:	0000d922 	andeq	sp, r0, r2, lsr #18
    16f0:	0088b000 	addeq	fp, r8, r0
    16f4:	00000400 	andeq	r0, r0, r0, lsl #8
    16f8:	14aa0200 	strtne	r0, [sl], #512	; 0x200
    16fc:	000088b0 			; <UNDEFINED> instruction: 0x000088b0
    1700:	00000004 	andeq	r0, r0, r4
    1704:	0000e915 	andeq	lr, r0, r5, lsl r9
    1708:	00045b00 	andeq	r5, r4, r0, lsl #22
    170c:	00000000 	andeq	r0, r0, r0
    1710:	02391300 	eorseq	r1, r9, #0, 6
    1714:	89100000 	ldmdbhi	r0, {}	; <UNPREDICTABLE>
    1718:	00040000 	andeq	r0, r4, r0
    171c:	ca010000 	bgt	41724 <__bss_end__+0x36c14>
    1720:	000008ac 	andeq	r0, r0, ip, lsr #17
    1724:	00891014 	addeq	r1, r9, r4, lsl r0
    1728:	00000400 	andeq	r0, r0, r0, lsl #8
    172c:	02492100 	subeq	r2, r9, #0, 2
    1730:	00000000 	andeq	r0, r0, r0
    1734:	0088c419 	addeq	ip, r8, r9, lsl r4
    1738:	000baf00 	andeq	sl, fp, r0, lsl #30
    173c:	88d81a00 	ldmhi	r8, {r9, fp, ip}^
    1740:	0bb60000 	bleq	fed81748 <__bss_end__+0xfed76c38>
    1744:	08e40000 	stmiaeq	r4!, {}^	; <UNPREDICTABLE>
    1748:	011b0000 	tsteq	fp, r0
    174c:	c7080253 	smlsdgt	r8, r3, r2, r0
    1750:	0552011b 	ldrbeq	r0, [r2, #-283]	; 0x11b
    1754:	00a23803 	adceq	r3, r2, r3, lsl #16
    1758:	51011b00 	tstpl	r1, r0, lsl #22
    175c:	a0d80305 	sbcsge	r0, r8, r5, lsl #6
    1760:	011b0000 	tsteq	fp, r0
    1764:	70030550 	andvc	r0, r3, r0, asr r5
    1768:	000000a1 	andeq	r0, r0, r1, lsr #1
    176c:	0088dc19 	addeq	sp, r8, r9, lsl ip
    1770:	000bcc00 	andeq	ip, fp, r0, lsl #24
    1774:	88f01900 	ldmhi	r0!, {r8, fp, ip}^
    1778:	0baf0000 	bleq	febc1780 <__bss_end__+0xfebb6c70>
    177c:	0c1a0000 	ldceq	0, cr0, [sl], {-0}
    1780:	b6000089 	strlt	r0, [r0], -r9, lsl #1
    1784:	2f00000b 	svccs	0x0000000b
    1788:	1b000009 	blne	17b4 <__code_start__-0x684c>
    178c:	08025301 	stmdaeq	r2, {r0, r8, r9, ip, lr}
    1790:	52011bc8 	andpl	r1, r1, #200, 22	; 0x32000
    1794:	a2380305 	eorsge	r0, r8, #335544320	; 0x14000000
    1798:	011b0000 	tsteq	fp, r0
    179c:	d8030551 	stmdale	r3, {r0, r4, r6, r8, sl}
    17a0:	1b0000a0 	blne	1a28 <__code_start__-0x65d8>
    17a4:	03055001 	movweq	r5, #20481	; 0x5001
    17a8:	00009e78 	andeq	r9, r0, r8, ror lr
    17ac:	007d021b 	rsbseq	r0, sp, fp, lsl r2
    17b0:	a1a80305 			; <UNDEFINED> instruction: 0xa1a80305
    17b4:	19000000 	stmdbne	r0, {}	; <UNPREDICTABLE>
    17b8:	00008910 	andeq	r8, r0, r0, lsl r9
    17bc:	00000bcc 	andeq	r0, r0, ip, asr #23
    17c0:	00891c24 	addeq	r1, r9, r4, lsr #24
    17c4:	50011b00 	andpl	r1, r1, r0, lsl #22
    17c8:	00003001 	andeq	r3, r0, r1
    17cc:	00007f1c 	andeq	r7, r0, ip, lsl pc
    17d0:	00095400 	andeq	r5, r9, r0, lsl #8
    17d4:	00761d00 	rsbseq	r1, r6, r0, lsl #26
    17d8:	00150000 	andseq	r0, r5, r0
    17dc:	00094407 	andeq	r4, r9, r7, lsl #8
    17e0:	07980f00 	ldreq	r0, [r8, r0, lsl #30]
    17e4:	cd010000 	stcgt	0, cr0, [r1, #-0]
    17e8:	0000893c 	andeq	r8, r0, ip, lsr r9
    17ec:	00000004 	andeq	r0, r0, r4
    17f0:	097b9c01 	ldmdbeq	fp!, {r0, sl, fp, ip, pc}^
    17f4:	70280000 	eorvc	r0, r8, r0
    17f8:	cd010063 	stcgt	0, cr0, [r1, #-396]	; 0xfffffe74
    17fc:	0000002c 	andeq	r0, r0, ip, lsr #32
    1800:	0f005001 	svceq	0x00005001
    1804:	00000366 	andeq	r0, r0, r6, ror #6
    1808:	8940d801 	stmdbhi	r0, {r0, fp, ip, lr, pc}^
    180c:	002c0000 	eoreq	r0, ip, r0
    1810:	9c010000 	stcls	0, cr0, [r1], {-0}
    1814:	000009e1 	andeq	r0, r0, r1, ror #19
    1818:	0000d412 	andeq	sp, r0, r2, lsl r4
    181c:	0009f100 	andeq	pc, r9, r0, lsl #2
    1820:	50030500 	andpl	r0, r3, r0, lsl #10
    1824:	190000a2 	stmdbne	r0, {r1, r5, r7}
    1828:	00008948 	andeq	r8, r0, r8, asr #18
    182c:	00000baf 	andeq	r0, r0, pc, lsr #23
    1830:	00895c1a 	addeq	r5, r9, sl, lsl ip
    1834:	000bb600 	andeq	fp, fp, r0, lsl #12
    1838:	0009d700 	andeq	sp, r9, r0, lsl #14
    183c:	53011b00 	movwpl	r1, #6912	; 0x1b00
    1840:	1bd90802 	blne	ff643850 <__bss_end__+0xff638d40>
    1844:	03055201 	movweq	r5, #20993	; 0x5201
    1848:	0000a250 	andeq	sl, r0, r0, asr r2
    184c:	0551011b 	ldrbeq	r0, [r1, #-283]	; 0x11b
    1850:	00a0d803 	adceq	sp, r0, r3, lsl #16
    1854:	50011b00 	andpl	r1, r1, r0, lsl #22
    1858:	a1b80305 			; <UNDEFINED> instruction: 0xa1b80305
    185c:	19000000 	stmdbne	r0, {}	; <UNPREDICTABLE>
    1860:	00008960 	andeq	r8, r0, r0, ror #18
    1864:	00000bcc 	andeq	r0, r0, ip, asr #23
    1868:	007f1c00 	rsbseq	r1, pc, r0, lsl #24
    186c:	09f10000 	ldmibeq	r1!, {}^	; <UNPREDICTABLE>
    1870:	761d0000 	ldrvc	r0, [sp], -r0
    1874:	10000000 	andne	r0, r0, r0
    1878:	09e10700 	stmibeq	r1!, {r8, r9, sl}^
    187c:	850f0000 	strhi	r0, [pc, #-0]	; 1884 <__code_start__-0x677c>
    1880:	01000003 	tsteq	r0, r3
    1884:	00896cdc 	ldrdeq	r6, [r9], ip
    1888:	00003400 	andeq	r3, r0, r0, lsl #8
    188c:	d49c0100 	ldrle	r0, [ip], #256	; 0x100
    1890:	2600000a 	strcs	r0, [r0], -sl
    1894:	0000006d 	andeq	r0, r0, sp, rrx
    1898:	005ddc01 	subseq	sp, sp, r1, lsl #24
    189c:	50010000 	andpl	r0, r1, r0
    18a0:	00049a26 	andeq	r9, r4, r6, lsr #20
    18a4:	91dc0100 	bicsls	r0, ip, r0, lsl #2
    18a8:	01000000 	mrseq	r0, (UNDEF: 0)
    18ac:	04561151 	ldrbeq	r1, [r6], #-337	; 0x151
    18b0:	dd010000 	stcle	0, cr0, [r1, #-0]
    18b4:	0000005d 	andeq	r0, r0, sp, asr r0
    18b8:	0000046e 	andeq	r0, r0, lr, ror #8
    18bc:	00042220 	andeq	r2, r4, r0, lsr #4
    18c0:	5de50100 	stfple	f0, [r5]
    18c4:	01000000 	mrseq	r0, (UNDEF: 0)
    18c8:	01d71350 	bicseq	r1, r7, r0, asr r3
    18cc:	896c0000 	stmdbhi	ip!, {}^	; <UNPREDICTABLE>
    18d0:	00040000 	andeq	r0, r4, r0
    18d4:	dd010000 	stcle	0, cr0, [r1, #-0]
    18d8:	00000a68 	andeq	r0, r0, r8, ror #20
    18dc:	00896c14 	addeq	r6, r9, r4, lsl ip
    18e0:	00000400 	andeq	r0, r0, r0, lsl #8
    18e4:	01e71500 	mvneq	r1, r0, lsl #10
    18e8:	04910000 	ldreq	r0, [r1], #0
    18ec:	00000000 	andeq	r0, r0, r0
    18f0:	0001f313 	andeq	pc, r1, r3, lsl r3	; <UNPREDICTABLE>
    18f4:	00897400 	addeq	r7, r9, r0, lsl #8
    18f8:	00000400 	andeq	r0, r0, r0, lsl #8
    18fc:	85e30100 	strbhi	r0, [r3, #256]!	; 0x100
    1900:	1600000a 	strne	r0, [r0], -sl
    1904:	000001ff 	strdeq	r0, [r0], -pc	; <UNPREDICTABLE>
    1908:	000004a4 	andeq	r0, r0, r4, lsr #9
    190c:	02091300 	andeq	r1, r9, #0, 6
    1910:	89780000 	ldmdbhi	r8!, {}^	; <UNPREDICTABLE>
    1914:	00040000 	andeq	r0, r4, r0
    1918:	e8010000 	stmda	r1, {}	; <UNPREDICTABLE>
    191c:	00000aa0 	andeq	r0, r0, r0, lsr #21
    1920:	00021527 	andeq	r1, r2, r7, lsr #10
    1924:	00500100 	subseq	r0, r0, r0, lsl #2
    1928:	0001f313 	andeq	pc, r1, r3, lsl r3	; <UNPREDICTABLE>
    192c:	00897c00 	addeq	r7, r9, r0, lsl #24
    1930:	00000800 	andeq	r0, r0, r0, lsl #16
    1934:	bdf20100 	ldflte	f0, [r2]
    1938:	2900000a 	stmdbcs	r0, {r1, r3}
    193c:	000001ff 	strdeq	r0, [r0], -pc	; <UNPREDICTABLE>
    1940:	004001e7 	subeq	r0, r0, r7, ror #3
    1944:	01572200 	cmpeq	r7, r0, lsl #4
    1948:	89840000 	stmibhi	r4, {}	; <UNPREDICTABLE>
    194c:	00080000 	andeq	r0, r8, r0
    1950:	f3010000 	vhadd.u8	d0, d1, d0
    1954:	00016318 	andeq	r6, r1, r8, lsl r3
    1958:	00000000 	andeq	r0, r0, r0
    195c:	0003c50f 	andeq	ip, r3, pc, lsl #10
    1960:	a0f80100 	rscsge	r0, r8, r0, lsl #2
    1964:	10000089 	andne	r0, r0, r9, lsl #1
    1968:	01000000 	mrseq	r0, (UNDEF: 0)
    196c:	000b209c 	muleq	fp, ip, r0
    1970:	006d2600 	rsbeq	r2, sp, r0, lsl #12
    1974:	f8010000 			; <UNDEFINED> instruction: 0xf8010000
    1978:	0000005d 	andeq	r0, r0, sp, asr r0
    197c:	562a5001 	strtpl	r5, [sl], -r1
    1980:	01000004 	tsteq	r0, r4
    1984:	00005df9 	strdeq	r5, [r0], -r9
    1988:	4001e600 	andmi	lr, r1, r0, lsl #12
    198c:	01f32b00 	mvnseq	r2, r0, lsl #22
    1990:	89a00000 	stmibhi	r0!, {}	; <UNPREDICTABLE>
    1994:	00100000 	andseq	r0, r0, r0
    1998:	00010000 	andeq	r0, r1, r0
    199c:	01ff2901 	mvnseq	r2, r1, lsl #18
    19a0:	01e60000 	mvneq	r0, r0
    19a4:	00000040 	andeq	r0, r0, r0, asr #32
    19a8:	0004342c 	andeq	r3, r4, ip, lsr #8
    19ac:	01090100 	mrseq	r0, (UNDEF: 25)
    19b0:	00000025 	andeq	r0, r0, r5, lsr #32
    19b4:	000089b0 			; <UNDEFINED> instruction: 0x000089b0
    19b8:	00000070 	andeq	r0, r0, r0, ror r0
    19bc:	0b7c9c01 	bleq	1f289c8 <__bss_end__+0x1f1deb8>
    19c0:	702d0000 	eorvc	r0, sp, r0
    19c4:	09010063 	stmdbeq	r1, {r0, r1, r5, r6}
    19c8:	00002c01 	andeq	r2, r0, r1, lsl #24
    19cc:	0004b700 	andeq	fp, r4, r0, lsl #14
    19d0:	30722d00 	rsbscc	r2, r2, r0, lsl #26
    19d4:	01090100 	mrseq	r0, (UNDEF: 25)
    19d8:	0000005d 	andeq	r0, r0, sp, asr r0
    19dc:	0000053c 	andeq	r0, r0, ip, lsr r5
    19e0:	0004722e 	andeq	r7, r4, lr, lsr #4
    19e4:	010a0100 	mrseq	r0, (UNDEF: 26)
    19e8:	0000005d 	andeq	r0, r0, sp, asr r0
    19ec:	00000568 	andeq	r0, r0, r8, ror #10
    19f0:	008a042f 	addeq	r0, sl, pc, lsr #8
    19f4:	000bb600 	andeq	fp, fp, r0, lsl #12
    19f8:	50011b00 	andpl	r1, r1, r0, lsl #22
    19fc:	a1e80305 	mvnge	r0, r5, lsl #6
    1a00:	00000000 	andeq	r0, r0, r0
    1a04:	0003b420 	andeq	fp, r3, r0, lsr #8
    1a08:	910b0100 	mrsls	r0, (UNDEF: 27)
    1a0c:	05000000 	streq	r0, [r0, #-0]
    1a10:	00a6f403 	adceq	pc, r6, r3, lsl #8
    1a14:	032a2000 	teqeq	sl, #0
    1a18:	89010000 	stmdbhi	r1, {}	; <UNPREDICTABLE>
    1a1c:	00000091 	muleq	r0, r1, r0
    1a20:	a6f80305 	ldrbtge	r0, [r8], r5, lsl #6
    1a24:	7b300000 	blvc	c01a2c <__bss_end__+0xbf6f1c>
    1a28:	01000001 	tsteq	r0, r1
    1a2c:	000025d5 	ldrdeq	r2, [r0], -r5
    1a30:	fc030500 	stc2	5, cr0, [r3], {-0}
    1a34:	310000a6 	smlatbcc	r0, r6, r0, r0
    1a38:	000000c5 	andeq	r0, r0, r5, asr #1
    1a3c:	ad321e04 	ldcge	14, cr1, [r2, #-16]!
    1a40:	04000005 	streq	r0, [r0], #-5
    1a44:	00002529 	andeq	r2, r0, r9, lsr #10
    1a48:	000bcc00 	andeq	ip, fp, r0, lsl #24
    1a4c:	00860900 	addeq	r0, r6, r0, lsl #18
    1a50:	00330000 	eorseq	r0, r3, r0
    1a54:	00010531 	andeq	r0, r1, r1, lsr r5
    1a58:	31650400 	cmncc	r5, r0, lsl #8
    1a5c:	000002a2 	andeq	r0, r0, r2, lsr #5
    1a60:	74003605 	strvc	r3, [r0], #-1541	; 0x605
    1a64:	0400000e 	streq	r0, [r0], #-14
    1a68:	00057e00 	andeq	r7, r5, r0, lsl #28
    1a6c:	fa010400 	blx	42a74 <__bss_end__+0x37f64>
    1a70:	01000001 	tsteq	r0, r1
    1a74:	000004ad 	andeq	r0, r0, sp, lsr #9
    1a78:	00000000 	andeq	r0, r0, r0
    1a7c:	00008b58 	andeq	r8, r0, r8, asr fp
    1a80:	00000708 	andeq	r0, r0, r8, lsl #14
    1a84:	0000047a 	andeq	r0, r0, sl, ror r4
    1a88:	69050402 	stmdbvs	r5, {r1, sl}
    1a8c:	0300746e 	movweq	r7, #1134	; 0x46e
    1a90:	008f0704 	addeq	r0, pc, r4, lsl #14
    1a94:	01030000 	mrseq	r0, (UNDEF: 3)
    1a98:	00016f06 	andeq	r6, r1, r6, lsl #30
    1a9c:	05020300 	streq	r0, [r2, #-768]	; 0x300
    1aa0:	00000192 	muleq	r0, r2, r1
    1aa4:	a1050403 	tstge	r5, r3, lsl #8
    1aa8:	03000000 	movweq	r0, #0
    1aac:	009c0508 	addseq	r0, ip, r8, lsl #10
    1ab0:	01030000 	mrseq	r0, (UNDEF: 3)
    1ab4:	00016d08 	andeq	r6, r1, r8, lsl #26
    1ab8:	07020300 	streq	r0, [r2, -r0, lsl #6]
    1abc:	000000e1 	andeq	r0, r0, r1, ror #1
    1ac0:	0001c404 	andeq	ip, r1, r4, lsl #8
    1ac4:	68340600 	ldmdavs	r4!, {r9, sl}
    1ac8:	03000000 	movweq	r0, #0
    1acc:	008a0704 	addeq	r0, sl, r4, lsl #14
    1ad0:	08030000 	stmdaeq	r3, {}	; <UNPREDICTABLE>
    1ad4:	00008507 	andeq	r8, r0, r7, lsl #10
    1ad8:	07040300 	streq	r0, [r4, -r0, lsl #6]
    1adc:	00000112 	andeq	r0, r0, r2, lsl r1
    1ae0:	01030405 	tsteq	r3, r5, lsl #8
    1ae4:	00017608 	andeq	r7, r1, r8, lsl #12
    1ae8:	8c040600 	stchi	6, cr0, [r4], {-0}
    1aec:	07000000 	streq	r0, [r0, -r0]
    1af0:	0000007f 	andeq	r0, r0, pc, ror r0
    1af4:	00045f04 	andeq	r5, r4, r4, lsl #30
    1af8:	9c8a0200 	sfmls	f0, 4, [sl], {0}
    1afc:	06000000 	streq	r0, [r0], -r0
    1b00:	0000a204 	andeq	sl, r0, r4, lsl #4
    1b04:	00b70800 	adcseq	r0, r7, r0, lsl #16
    1b08:	b7090000 	strlt	r0, [r9, -r0]
    1b0c:	09000000 	stmdbeq	r0, {}	; <UNPREDICTABLE>
    1b10:	0000005d 	andeq	r0, r0, sp, asr r0
    1b14:	00005d09 	andeq	r5, r0, r9, lsl #26
    1b18:	04060000 	streq	r0, [r6], #-0
    1b1c:	0000005d 	andeq	r0, r0, sp, asr r0
    1b20:	0001330a 	andeq	r3, r1, sl, lsl #6
    1b24:	0a073800 	beq	1cfb2c <__bss_end__+0x1c501c>
    1b28:	0000016e 	andeq	r0, r0, lr, ror #2
    1b2c:	000a740b 	andeq	r7, sl, fp, lsl #8
    1b30:	6e0f0700 	cdpvs	7, 0, cr0, cr15, cr0, {0}
    1b34:	00000001 	andeq	r0, r0, r1
    1b38:	0700410c 	streq	r4, [r0, -ip, lsl #2]
    1b3c:	00018612 	andeq	r8, r1, r2, lsl r6
    1b40:	420c0400 	andmi	r0, ip, #0, 8
    1b44:	9b130700 	blls	4c374c <__bss_end__+0x4b8c3c>
    1b48:	08000001 	stmdaeq	r0, {r0}
    1b4c:	00015e0b 	andeq	r5, r1, fp, lsl #28
    1b50:	86160700 	ldrhi	r0, [r6], -r0, lsl #14
    1b54:	0c000001 	stceq	0, cr0, [r0], {1}
    1b58:	0001e70b 	andeq	lr, r1, fp, lsl #14
    1b5c:	9b180700 	blls	603764 <__bss_end__+0x5f8c54>
    1b60:	10000001 	andne	r0, r0, r1
    1b64:	00028d0b 	andeq	r8, r2, fp, lsl #26
    1b68:	a11f0700 	tstge	pc, r0, lsl #14
    1b6c:	14000001 	strne	r0, [r0], #-1
    1b70:	00027c0b 	andeq	r7, r2, fp, lsl #24
    1b74:	a1310700 	teqge	r1, r0, lsl #14
    1b78:	18000001 	stmdane	r0, {r0}
    1b7c:	0000720b 	andeq	r7, r0, fp, lsl #4
    1b80:	a6360700 	ldrtge	r0, [r6], -r0, lsl #14
    1b84:	1c000001 	stcne	0, cr0, [r0], {1}
    1b88:	0000660b 	andeq	r6, r0, fp, lsl #12
    1b8c:	a63a0700 	ldrtge	r0, [sl], -r0, lsl #14
    1b90:	20000001 	andcs	r0, r0, r1
    1b94:	0002970b 	andeq	r9, r2, fp, lsl #14
    1b98:	a13f0700 	teqge	pc, r0, lsl #14
    1b9c:	24000001 	strcs	r0, [r0], #-1
    1ba0:	0001240b 	andeq	r2, r1, fp, lsl #8
    1ba4:	2c420700 	mcrrcs	7, 0, r0, r2, cr0
    1ba8:	28000000 	stmdacs	r0, {}	; <UNPREDICTABLE>
    1bac:	0001d20b 	andeq	sp, r1, fp, lsl #4
    1bb0:	2c430700 	mcrrcs	7, 0, r0, r3, cr0
    1bb4:	2c000000 	stccs	0, cr0, [r0], {-0}
    1bb8:	0001a10b 	andeq	sl, r1, fp, lsl #2
    1bbc:	2c460700 	mcrrcs	7, 0, r0, r6, cr0
    1bc0:	30000000 	andcc	r0, r0, r0
    1bc4:	0000bf0b 	andeq	fp, r0, fp, lsl #30
    1bc8:	a6480700 	strbge	r0, [r8], -r0, lsl #14
    1bcc:	34000001 	strcc	r0, [r0], #-1
    1bd0:	74040600 	strvc	r0, [r4], #-1536	; 0x600
    1bd4:	0d000001 	stceq	0, cr0, [r0, #-4]
    1bd8:	00018008 	andeq	r8, r1, r8
    1bdc:	01800900 	orreq	r0, r0, r0, lsl #18
    1be0:	06000000 	streq	r0, [r0], -r0
    1be4:	0000bd04 	andeq	fp, r0, r4, lsl #26
    1be8:	75040600 	strvc	r0, [r4, #-1536]	; 0x600
    1bec:	0e000001 	cdpeq	0, 0, cr0, cr0, cr1, {0}
    1bf0:	00000025 	andeq	r0, r0, r5, lsr #32
    1bf4:	0000019b 	muleq	r0, fp, r1
    1bf8:	00018009 	andeq	r8, r1, r9
    1bfc:	04060000 	streq	r0, [r6], #-0
    1c00:	0000018c 	andeq	r0, r0, ip, lsl #3
    1c04:	00002c0f 	andeq	r2, r0, pc, lsl #24
    1c08:	005d0f00 	subseq	r0, sp, r0, lsl #30
    1c0c:	63040000 	movwvs	r0, #16384	; 0x4000
    1c10:	07000001 	streq	r0, [r0, -r1]
    1c14:	0000bd49 	andeq	fp, r0, r9, asr #26
    1c18:	03ab1000 			; <UNDEFINED> instruction: 0x03ab1000
    1c1c:	a6020000 	strge	r0, [r2], -r0
    1c20:	0000005d 	andeq	r0, r0, sp, asr r0
    1c24:	0001d203 	andeq	sp, r1, r3, lsl #4
    1c28:	65721100 	ldrbvs	r1, [r2, #-256]!	; 0x100
    1c2c:	a6020074 			; <UNDEFINED> instruction: 0xa6020074
    1c30:	0000005d 	andeq	r0, r0, sp, asr r0
    1c34:	02f41000 	rscseq	r1, r4, #0
    1c38:	a9020000 	stmdbge	r2, {}	; <UNPREDICTABLE>
    1c3c:	0000002c 	andeq	r0, r0, ip, lsr #32
    1c40:	0001ec03 	andeq	lr, r1, r3, lsl #24
    1c44:	00721100 	rsbseq	r1, r2, r0, lsl #2
    1c48:	002caa02 	eoreq	sl, ip, r2, lsl #20
    1c4c:	10000000 	andne	r0, r0, r0
    1c50:	000001b0 			; <UNDEFINED> instruction: 0x000001b0
    1c54:	00250705 	eoreq	r0, r5, r5, lsl #14
    1c58:	08030000 	stmdaeq	r3, {}	; <UNPREDICTABLE>
    1c5c:	12000002 	andne	r0, r0, #2
    1c60:	000001cd 	andeq	r0, r0, sp, asr #3
    1c64:	002c0705 	eoreq	r0, ip, r5, lsl #14
    1c68:	10000000 	andne	r0, r0, r0
    1c6c:	000000aa 	andeq	r0, r0, sl, lsr #1
    1c70:	005d2603 	subseq	r2, sp, r3, lsl #12
    1c74:	24030000 	strcs	r0, [r3], #-0
    1c78:	13000002 	movwne	r0, #2
    1c7c:	0000019c 	muleq	r0, ip, r1
    1c80:	005d2703 	subseq	r2, sp, r3, lsl #14
    1c84:	14000000 	strne	r0, [r0], #-0
    1c88:	0000048e 	andeq	r0, r0, lr, lsl #9
    1c8c:	8b580b01 	blhi	1604898 <__bss_end__+0x15f9d88>
    1c90:	01ac0000 			; <UNDEFINED> instruction: 0x01ac0000
    1c94:	9c010000 	stcls	0, cr0, [r1], {-0}
    1c98:	00000465 	andeq	r0, r0, r5, ror #8
    1c9c:	00053115 	andeq	r3, r5, r5, lsl r1
    1ca0:	b70b0100 	strlt	r0, [fp, -r0, lsl #2]
    1ca4:	e3000000 	movw	r0, #0
    1ca8:	16000005 	strne	r0, [r0], -r5
    1cac:	01006370 	tsteq	r0, r0, ror r3
    1cb0:	00005d0b 	andeq	r5, r0, fp, lsl #26
    1cb4:	00060400 	andeq	r0, r6, r0, lsl #8
    1cb8:	006d1500 	rsbeq	r1, sp, r0, lsl #10
    1cbc:	0b010000 	bleq	41cc4 <__bss_end__+0x371b4>
    1cc0:	0000005d 	andeq	r0, r0, sp, asr r0
    1cc4:	00000630 	andeq	r0, r0, r0, lsr r6
    1cc8:	0000d417 	andeq	sp, r0, r7, lsl r4
    1ccc:	00047500 	andeq	r7, r4, r0, lsl #10
    1cd0:	8c030500 	cfstr32hi	mvfx0, [r3], {-0}
    1cd4:	180000a4 	stmdane	r0, {r2, r5, r7}
    1cd8:	10010063 	andne	r0, r1, r3, rrx
    1cdc:	0000047a 	andeq	r0, r0, sl, ror r4
    1ce0:	00000651 	andeq	r0, r0, r1, asr r6
    1ce4:	0001d219 	andeq	sp, r1, r9, lsl r2
    1ce8:	008b8c00 	addeq	r8, fp, r0, lsl #24
    1cec:	00000800 	andeq	r0, r0, r0, lsl #16
    1cf0:	c70d0100 	strgt	r0, [sp, -r0, lsl #2]
    1cf4:	1a000002 	bne	1d04 <__code_start__-0x62fc>
    1cf8:	00008b8c 	andeq	r8, r0, ip, lsl #23
    1cfc:	00000008 	andeq	r0, r0, r8
    1d00:	0001e21b 	andeq	lr, r1, fp, lsl r2
    1d04:	01b61c00 			; <UNDEFINED> instruction: 0x01b61c00
    1d08:	8b8c0000 	blhi	fe301d10 <__bss_end__+0xfe2f7200>
    1d0c:	00040000 	andeq	r0, r4, r0
    1d10:	aa020000 	bge	81d18 <__bss_end__+0x77208>
    1d14:	008b8c1a 	addeq	r8, fp, sl, lsl ip
    1d18:	00000400 	andeq	r0, r0, r0, lsl #8
    1d1c:	01c61d00 	biceq	r1, r6, r0, lsl #26
    1d20:	06640000 	strbteq	r0, [r4], -r0
    1d24:	00000000 	andeq	r0, r0, r0
    1d28:	8c1e0000 	ldchi	0, cr0, [lr], {-0}
    1d2c:	f900008b 			; <UNDEFINED> instruction: 0xf900008b
    1d30:	fc00000d 	stc2	0, cr0, [r0], {13}
    1d34:	1f000002 	svcne	0x00000002
    1d38:	3c015301 	stccc	3, cr5, [r1], {1}
    1d3c:	0552011f 	ldrbeq	r0, [r2, #-287]	; 0x11f
    1d40:	00a48c03 	adceq	r8, r4, r3, lsl #24
    1d44:	51011f00 	tstpl	r1, r0, lsl #30
    1d48:	a2840305 	addge	r0, r4, #335544320	; 0x14000000
    1d4c:	011f0000 	tsteq	pc, r0
    1d50:	64030550 	strvs	r0, [r3], #-1360	; 0x550
    1d54:	1f0000a2 	svcne	0x000000a2
    1d58:	02007d02 	andeq	r7, r0, #2, 26	; 0x80
    1d5c:	20000075 	andcs	r0, r0, r5, ror r0
    1d60:	00008ba0 	andeq	r8, r0, r0, lsr #23
    1d64:	00000e0f 	andeq	r0, r0, pc, lsl #28
    1d68:	008bb41e 	addeq	fp, fp, lr, lsl r4
    1d6c:	000df900 	andeq	pc, sp, r0, lsl #18
    1d70:	00033300 	andeq	r3, r3, r0, lsl #6
    1d74:	53011f00 	movwpl	r1, #7936	; 0x1f00
    1d78:	011f3e01 	tsteq	pc, r1, lsl #28
    1d7c:	8c030552 	cfstr32hi	mvfx0, [r3], {82}	; 0x52
    1d80:	1f0000a4 	svcne	0x000000a4
    1d84:	03055101 	movweq	r5, #20737	; 0x5101
    1d88:	0000a284 	andeq	sl, r0, r4, lsl #5
    1d8c:	0550011f 	ldrbeq	r0, [r0, #-287]	; 0x11f
    1d90:	00a17003 	adceq	r7, r1, r3
    1d94:	b8200000 	stmdalt	r0!, {}	; <UNPREDICTABLE>
    1d98:	1600008b 	strne	r0, [r0], -fp, lsl #1
    1d9c:	1e00000e 	cdpne	0, 0, cr0, cr0, cr14, {0}
    1da0:	00008be0 	andeq	r8, r0, r0, ror #23
    1da4:	00000df9 	strdeq	r0, [r0], -r9
    1da8:	00000359 	andeq	r0, r0, r9, asr r3
    1dac:	0251011f 	subseq	r0, r1, #-1073741817	; 0xc0000007
    1db0:	011f0075 	tsteq	pc, r5, ror r0	; <UNPREDICTABLE>
    1db4:	98030550 	stmdals	r3, {r4, r6, r8, sl}
    1db8:	000000a2 	andeq	r0, r0, r2, lsr #1
    1dbc:	008bec21 	addeq	lr, fp, r1, lsr #24
    1dc0:	00036900 	andeq	r6, r3, r0, lsl #18
    1dc4:	50011f00 	andpl	r1, r1, r0, lsl #30
    1dc8:	00007402 	andeq	r7, r0, r2, lsl #8
    1dcc:	008bfc1e 	addeq	pc, fp, lr, lsl ip	; <UNPREDICTABLE>
    1dd0:	000e1d00 	andeq	r1, lr, r0, lsl #26
    1dd4:	00037d00 	andeq	r7, r3, r0, lsl #26
    1dd8:	50011f00 	andpl	r1, r1, r0, lsl #30
    1ddc:	00007502 	andeq	r7, r0, r2, lsl #10
    1de0:	008c1c1e 	addeq	r1, ip, lr, lsl ip
    1de4:	000df900 	andeq	pc, sp, r0, lsl #18
    1de8:	00039400 	andeq	r9, r3, r0, lsl #8
    1dec:	50011f00 	andpl	r1, r1, r0, lsl #30
    1df0:	a2b80305 	adcsge	r0, r8, #335544320	; 0x14000000
    1df4:	20000000 	andcs	r0, r0, r0
    1df8:	00008c40 	andeq	r8, r0, r0, asr #24
    1dfc:	00000e0f 	andeq	r0, r0, pc, lsl #28
    1e00:	008c5c1e 	addeq	r5, ip, lr, lsl ip
    1e04:	000df900 	andeq	pc, sp, r0, lsl #18
    1e08:	0003d600 	andeq	sp, r3, r0, lsl #12
    1e0c:	53011f00 	movwpl	r1, #7936	; 0x1f00
    1e10:	1f230802 	svcne	0x00230802
    1e14:	03055201 	movweq	r5, #20993	; 0x5201
    1e18:	0000a48c 	andeq	sl, r0, ip, lsl #9
    1e1c:	0551011f 	ldrbeq	r0, [r1, #-287]	; 0x11f
    1e20:	00a28403 	adceq	r8, r2, r3, lsl #8
    1e24:	50011f00 	andpl	r1, r1, r0, lsl #30
    1e28:	9e780305 	cdpls	3, 7, cr0, cr8, cr5, {0}
    1e2c:	021f0000 	andseq	r0, pc, #0
    1e30:	0305007d 	movweq	r0, #20605	; 0x507d
    1e34:	0000a2e0 	andeq	sl, r0, r0, ror #5
    1e38:	8c602000 	stclhi	0, cr2, [r0], #-0
    1e3c:	0e160000 	cdpeq	0, 1, cr0, cr6, cr0, {0}
    1e40:	941e0000 	ldrls	r0, [lr], #-0
    1e44:	f900008c 			; <UNDEFINED> instruction: 0xf900008c
    1e48:	1500000d 	strne	r0, [r0, #-13]
    1e4c:	1f000004 	svcne	0x00000004
    1e50:	08025301 	stmdaeq	r2, {r0, r8, r9, ip, lr}
    1e54:	52011f26 	andpl	r1, r1, #38, 30	; 0x98
    1e58:	a48c0305 	strge	r0, [ip], #773	; 0x305
    1e5c:	011f0000 	tsteq	pc, r0
    1e60:	84030551 	strhi	r0, [r3], #-1361	; 0x551
    1e64:	1f0000a2 	svcne	0x000000a2
    1e68:	03055001 	movweq	r5, #20481	; 0x5001
    1e6c:	0000a304 	andeq	sl, r0, r4, lsl #6
    1e70:	007d021f 	rsbseq	r0, sp, pc, lsl r2
    1e74:	00007502 	andeq	r7, r0, r2, lsl #10
    1e78:	008ca01e 	addeq	sl, ip, lr, lsl r0
    1e7c:	000e2e00 	andeq	r2, lr, r0, lsl #28
    1e80:	00043200 	andeq	r3, r4, r0, lsl #4
    1e84:	51011f00 	tstpl	r1, r0, lsl #30
    1e88:	8b580305 	blhi	1602aa4 <__bss_end__+0x15f7f94>
    1e8c:	011f0000 	tsteq	pc, r0
    1e90:	00750250 	rsbseq	r0, r5, r0, asr r2
    1e94:	8cc82200 	sfmhi	f2, 2, [r8], {0}
    1e98:	0df90000 	ldcleq	0, cr0, [r9]
    1e9c:	011f0000 	tsteq	pc, r0
    1ea0:	28080253 	stmdacs	r8, {r0, r1, r4, r6, r9}
    1ea4:	0552011f 	ldrbeq	r0, [r2, #-287]	; 0x11f
    1ea8:	00a48c03 	adceq	r8, r4, r3, lsl #24
    1eac:	51011f00 	tstpl	r1, r0, lsl #30
    1eb0:	a2840305 	addge	r0, r4, #335544320	; 0x14000000
    1eb4:	011f0000 	tsteq	pc, r0
    1eb8:	2c030550 	cfstr32cs	mvfx0, [r3], {80}	; 0x50
    1ebc:	1f0000a3 	svcne	0x000000a3
    1ec0:	02007d02 	andeq	r7, r0, #2, 26	; 0x80
    1ec4:	00000075 	andeq	r0, r0, r5, ror r0
    1ec8:	00007f23 	andeq	r7, r0, r3, lsr #30
    1ecc:	00047500 	andeq	r7, r4, r0, lsl #10
    1ed0:	00762400 	rsbseq	r2, r6, r0, lsl #8
    1ed4:	00130000 	andseq	r0, r3, r0
    1ed8:	00046507 	andeq	r6, r4, r7, lsl #10
    1edc:	ab040600 	blge	1036e4 <__bss_end__+0xf8bd4>
    1ee0:	10000001 	andne	r0, r0, r1
    1ee4:	00000504 	andeq	r0, r0, r4, lsl #10
    1ee8:	005d1405 	subseq	r1, sp, r5, lsl #8
    1eec:	b4030000 	strlt	r0, [r3], #-0
    1ef0:	12000004 	andne	r0, r0, #4
    1ef4:	0000019c 	muleq	r0, ip, r1
    1ef8:	005d1405 	subseq	r1, sp, r5, lsl #8
    1efc:	cd120000 	ldcgt	0, cr0, [r2, #-0]
    1f00:	05000001 	streq	r0, [r0, #-1]
    1f04:	00002c14 	andeq	r2, r0, r4, lsl ip
    1f08:	00d42500 	sbcseq	r2, r4, r0, lsl #10
    1f0c:	04c40000 	strbeq	r0, [r4], #0
    1f10:	05040000 	streq	r0, [r4, #-0]
    1f14:	23000000 	movwcs	r0, #0
    1f18:	0000007f 	andeq	r0, r0, pc, ror r0
    1f1c:	000004c4 	andeq	r0, r0, r4, asr #9
    1f20:	00007624 	andeq	r7, r0, r4, lsr #12
    1f24:	07000800 	streq	r0, [r0, -r0, lsl #16]
    1f28:	000004b4 			; <UNDEFINED> instruction: 0x000004b4
    1f2c:	0004e910 	andeq	lr, r4, r0, lsl r9
    1f30:	5d250400 	cfstrspl	mvf0, [r5, #-0]
    1f34:	03000000 	movweq	r0, #0
    1f38:	00000518 	andeq	r0, r0, r8, lsl r5
    1f3c:	04007826 	streq	r7, [r0], #-2086	; 0x826
    1f40:	00005d25 	andeq	r5, r0, r5, lsr #26
    1f44:	626c2600 	rsbvs	r2, ip, #0, 12
    1f48:	2c250400 	cfstrscs	mvf0, [r5], #-0
    1f4c:	26000000 	strcs	r0, [r0], -r0
    1f50:	04006275 	streq	r6, [r0], #-629	; 0x275
    1f54:	00002c25 	andeq	r2, r0, r5, lsr #24
    1f58:	00d42500 	sbcseq	r2, r4, r0, lsl #10
    1f5c:	05180000 	ldreq	r0, [r8, #-0]
    1f60:	04e90000 	strbteq	r0, [r9], #0
    1f64:	6e110000 	cdpvs	0, 1, cr0, cr1, cr0, {0}
    1f68:	2c280400 	cfstrscs	mvf0, [r8], #-0
    1f6c:	13000000 	movwne	r0, #0
    1f70:	000004e4 	andeq	r0, r0, r4, ror #9
    1f74:	002c2a04 	eoreq	r2, ip, r4, lsl #20
    1f78:	07000000 	streq	r0, [r0, -r0]
    1f7c:	000004b4 			; <UNDEFINED> instruction: 0x000004b4
    1f80:	00011b10 	andeq	r1, r1, r0, lsl fp
    1f84:	86180500 	ldrhi	r0, [r8], -r0, lsl #10
    1f88:	03000000 	movweq	r0, #0
    1f8c:	00000546 	andeq	r0, r0, r6, asr #10
    1f90:	00019c12 	andeq	r9, r1, r2, lsl ip
    1f94:	5d180500 	cfldr32pl	mvfx0, [r8, #-0]
    1f98:	25000000 	strcs	r0, [r0, #-0]
    1f9c:	000000d4 	ldrdeq	r0, [r0], -r4
    1fa0:	00000546 	andeq	r0, r0, r6, asr #10
    1fa4:	0000011b 	andeq	r0, r0, fp, lsl r1
    1fa8:	04b40700 	ldrteq	r0, [r4], #1792	; 0x700
    1fac:	bb100000 	bllt	401fb4 <__bss_end__+0x3f74a4>
    1fb0:	05000001 	streq	r0, [r0, #-1]
    1fb4:	00005d0f 	andeq	r5, r0, pc, lsl #26
    1fb8:	057f0300 	ldrbeq	r0, [pc, #-768]!	; 1cc0 <__code_start__-0x6340>
    1fbc:	9c120000 	ldcls	0, cr0, [r2], {-0}
    1fc0:	05000001 	streq	r0, [r0, #-1]
    1fc4:	00005d0f 	andeq	r5, r0, pc, lsl #26
    1fc8:	01cd1300 	biceq	r1, sp, r0, lsl #6
    1fcc:	10050000 	andne	r0, r5, r0
    1fd0:	0000002c 	andeq	r0, r0, ip, lsr #32
    1fd4:	0000d425 	andeq	sp, r0, r5, lsr #8
    1fd8:	00057f00 	andeq	r7, r5, r0, lsl #30
    1fdc:	0001bb00 	andeq	fp, r1, r0, lsl #22
    1fe0:	b4070000 	strlt	r0, [r7], #-0
    1fe4:	10000004 	andne	r0, r0, r4
    1fe8:	00000189 	andeq	r0, r0, r9, lsl #3
    1fec:	005d1c04 	subseq	r1, sp, r4, lsl #24
    1ff0:	c8030000 	stmdagt	r3, {}	; <UNPREDICTABLE>
    1ff4:	26000005 	strcs	r0, [r0], -r5
    1ff8:	1c040078 	stcne	0, cr0, [r4], {120}	; 0x78
    1ffc:	0000005d 	andeq	r0, r0, sp, asr r0
    2000:	00626c26 	rsbeq	r6, r2, r6, lsr #24
    2004:	002c1c04 	eoreq	r1, ip, r4, lsl #24
    2008:	75260000 	strvc	r0, [r6, #-0]!
    200c:	1c040062 	stcne	0, cr0, [r4], {98}	; 0x62
    2010:	0000002c 	andeq	r0, r0, ip, lsr #32
    2014:	0000d425 	andeq	sp, r0, r5, lsr #8
    2018:	0005c800 	andeq	ip, r5, r0, lsl #16
    201c:	00018900 	andeq	r8, r1, r0, lsl #18
    2020:	006e1100 	rsbeq	r1, lr, r0, lsl #2
    2024:	002c1f04 	eoreq	r1, ip, r4, lsl #30
    2028:	07000000 	streq	r0, [r0, -r0]
    202c:	000004b4 			; <UNDEFINED> instruction: 0x000004b4
    2030:	0004f227 	andeq	pc, r4, r7, lsr #4
    2034:	2c2b0100 	stfcss	f0, [fp], #-0
    2038:	04000000 	streq	r0, [r0], #-0
    203c:	e000008d 	and	r0, r0, sp, lsl #1
    2040:	01000004 	tsteq	r0, r4
    2044:	000ce09c 	muleq	ip, ip, r0
    2048:	00631600 	rsbeq	r1, r3, r0, lsl #12
    204c:	047a2b01 	ldrbteq	r2, [sl], #-2817	; 0xb01
    2050:	06770000 	ldrbteq	r0, [r7], -r0
    2054:	1e280000 	cdpne	0, 2, cr0, cr8, cr0, {0}
    2058:	01000005 	tsteq	r0, r5
    205c:	00005d2c 	andeq	r5, r0, ip, lsr #26
    2060:	13580100 	cmpne	r8, #0, 2
    2064:	00000527 	andeq	r0, r0, r7, lsr #10
    2068:	005d2d01 	subseq	r2, sp, r1, lsl #26
    206c:	d4170000 	ldrle	r0, [r7], #-0
    2070:	f0000000 			; <UNDEFINED> instruction: 0xf0000000
    2074:	0500000c 	streq	r0, [r0, #-12]
    2078:	00a47803 	adceq	r7, r4, r3, lsl #16
    207c:	02081900 	andeq	r1, r8, #0, 18
    2080:	8d100000 	ldchi	0, cr0, [r0, #-0]
    2084:	00040000 	andeq	r0, r4, r0
    2088:	2c010000 	stccs	0, cr0, [r1], {-0}
    208c:	00000641 	andeq	r0, r0, r1, asr #12
    2090:	008d101a 	addeq	r1, sp, sl, lsl r0
    2094:	00000400 	andeq	r0, r0, r0, lsl #8
    2098:	02181d00 	andseq	r1, r8, #0, 26
    209c:	06a30000 	strteq	r0, [r3], r0
    20a0:	00000000 	andeq	r0, r0, r0
    20a4:	00048019 	andeq	r8, r4, r9, lsl r0
    20a8:	008d1400 	addeq	r1, sp, r0, lsl #8
    20ac:	00000800 	andeq	r0, r0, r0, lsl #16
    20b0:	bf2d0100 	svclt	0x002d0100
    20b4:	29000006 	stmdbcs	r0, {r1, r2}
    20b8:	0000049b 	muleq	r0, fp, r4
    20bc:	04902a10 	ldreq	r2, [r0], #2576	; 0xa10
    20c0:	06a30000 	strteq	r0, [r3], r0
    20c4:	141a0000 	ldrne	r0, [sl], #-0
    20c8:	0800008d 	stmdaeq	r0, {r0, r2, r3, r7}
    20cc:	2b000000 	blcs	20d4 <__code_start__-0x5f2c>
    20d0:	000004a6 	andeq	r0, r0, r6, lsr #9
    20d4:	a4a00305 	strtge	r0, [r0], #773	; 0x305
    20d8:	c91c0000 	ldmdbgt	ip, {}	; <UNPREDICTABLE>
    20dc:	14000004 	strne	r0, [r0], #-4
    20e0:	0400008d 	streq	r0, [r0], #-141	; 0x8d
    20e4:	05000000 	streq	r0, [r0, #-0]
    20e8:	04ec2916 	strbteq	r2, [ip], #2326	; 0x916
    20ec:	29040000 	stmdbcs	r4, {}	; <UNPREDICTABLE>
    20f0:	000004e2 	andeq	r0, r0, r2, ror #9
    20f4:	04d92a00 	ldrbeq	r2, [r9], #2560	; 0xa00
    20f8:	06a30000 	strteq	r0, [r3], r0
    20fc:	141a0000 	ldrne	r0, [sl], #-0
    2100:	0400008d 	streq	r0, [r0], #-141	; 0x8d
    2104:	2c000000 	stccs	0, cr0, [r0], {-0}
    2108:	00000503 	andeq	r0, r0, r3, lsl #10
    210c:	050c2c05 	streq	r2, [ip, #-3077]	; 0xc05
    2110:	2b1f0000 	blcs	7c2118 <__bss_end__+0x7b7608>
    2114:	000004f6 	strdeq	r0, [r0], -r6
    2118:	a4ac0305 	strtge	r0, [ip], #773	; 0x305
    211c:	00000000 	andeq	r0, r0, r0
    2120:	1d190000 	ldcne	0, cr0, [r9, #-0]
    2124:	18000005 	stmdane	r0, {r0, r2}
    2128:	1000008e 	andne	r0, r0, lr, lsl #1
    212c:	01000001 	tsteq	r0, r1
    2130:	00081753 	andeq	r1, r8, r3, asr r7
    2134:	052d2a00 	streq	r2, [sp, #-2560]!	; 0xa00
    2138:	06b60000 	ldrteq	r0, [r6], r0
    213c:	181a0000 	ldmdane	sl, {}	; <UNPREDICTABLE>
    2140:	1000008e 	andne	r0, r0, lr, lsl #1
    2144:	2b000001 	blcs	2150 <__code_start__-0x5eb0>
    2148:	00000538 	andeq	r0, r0, r8, lsr r5
    214c:	a4b80305 	ldrtge	r0, [r8], #773	; 0x305
    2150:	4b190000 	blmi	642158 <__bss_end__+0x637648>
    2154:	18000005 	stmdane	r0, {r0, r2}
    2158:	6c00008e 	stcvs	0, cr0, [r0], {142}	; 0x8e
    215c:	05000000 	streq	r0, [r0, #-0]
    2160:	0007cd19 	andeq	ip, r7, r9, lsl sp
    2164:	055b2a00 	ldrbeq	r2, [fp, #-2560]	; 0xa00
    2168:	06b60000 	ldrteq	r0, [r6], r0
    216c:	181a0000 	ldmdane	sl, {}	; <UNPREDICTABLE>
    2170:	6c00008e 	stcvs	0, cr0, [r0], {142}	; 0x8e
    2174:	1b000000 	blne	217c <__code_start__-0x5e84>
    2178:	00000566 	andeq	r0, r0, r6, ror #10
    217c:	0005712b 	andeq	r7, r5, fp, lsr #2
    2180:	c4030500 	strgt	r0, [r3], #-1280	; 0x500
    2184:	190000a4 	stmdbne	r0, {r2, r5, r7}
    2188:	00000584 	andeq	r0, r0, r4, lsl #11
    218c:	00008e18 	andeq	r8, r0, r8, lsl lr
    2190:	00000004 	andeq	r0, r0, r4
    2194:	07681005 	strbeq	r1, [r8, -r5]!
    2198:	a7290000 	strge	r0, [r9, -r0]!
    219c:	04000005 	streq	r0, [r0], #-5
    21a0:	00059d29 	andeq	r9, r5, r9, lsr #26
    21a4:	942a0000 	strtls	r0, [sl], #-0
    21a8:	b6000005 	strlt	r0, [r0], -r5
    21ac:	1a000006 	bne	21cc <__code_start__-0x5e34>
    21b0:	00008e18 	andeq	r8, r0, r8, lsl lr
    21b4:	00000004 	andeq	r0, r0, r4
    21b8:	0005be2c 	andeq	fp, r5, ip, lsr #28
    21bc:	b12b0500 	teqlt	fp, r0, lsl #10
    21c0:	05000005 	streq	r0, [r0, #-5]
    21c4:	00a4d003 	adceq	sp, r4, r3
    21c8:	19000000 	stmdbne	r0, {}	; <UNPREDICTABLE>
    21cc:	000001ec 	andeq	r0, r0, ip, ror #3
    21d0:	00008e1c 	andeq	r8, r0, ip, lsl lr
    21d4:	0000003c 	andeq	r0, r0, ip, lsr r0
    21d8:	07811105 	streq	r1, [r1, r5, lsl #2]
    21dc:	fc2d0000 	stc2	0, cr0, [sp], #-0
    21e0:	00000001 	andeq	r0, r0, r1
    21e4:	008e6420 	addeq	r6, lr, r0, lsr #8
    21e8:	000e0f00 	andeq	r0, lr, r0, lsl #30
    21ec:	8e801e00 	cdphi	14, 8, cr1, cr0, cr0, {0}
    21f0:	0df90000 	ldcleq	0, cr0, [r9]
    21f4:	07c20000 	strbeq	r0, [r2, r0]
    21f8:	011f0000 	tsteq	pc, r0
    21fc:	1f410153 	svcne	0x00410153
    2200:	03055201 	movweq	r5, #20993	; 0x5201
    2204:	0000a4c4 	andeq	sl, r0, r4, asr #9
    2208:	0551011f 	ldrbeq	r0, [r1, #-287]	; 0x11f
    220c:	00a40c03 	adceq	r0, r4, r3, lsl #24
    2210:	50011f00 	andpl	r1, r1, r0, lsl #30
    2214:	9e780305 	cdpls	3, 7, cr0, cr8, cr5, {0}
    2218:	021f0000 	andseq	r0, pc, #0
    221c:	0305007d 	movweq	r0, #20605	; 0x507d
    2220:	00009e9c 	muleq	r0, ip, lr
    2224:	8e842000 	cdphi	0, 8, cr2, cr4, cr0, {0}
    2228:	0e160000 	cdpeq	0, 1, cr0, cr6, cr0, {0}
    222c:	00000000 	andeq	r0, r0, r0
    2230:	008f0020 	addeq	r0, pc, r0, lsr #32
    2234:	000e0f00 	andeq	r0, lr, r0, lsl #30
    2238:	8f181e00 	svchi	0x00181e00
    223c:	0df90000 	ldcleq	0, cr0, [r9]
    2240:	080c0000 	stmdaeq	ip, {}	; <UNPREDICTABLE>
    2244:	011f0000 	tsteq	pc, r0
    2248:	21080253 	tstcs	r8, r3, asr r2
    224c:	0552011f 	ldrbeq	r0, [r2, #-287]	; 0x11f
    2250:	00a4b803 	adceq	fp, r4, r3, lsl #16
    2254:	51011f00 	tstpl	r1, r0, lsl #30
    2258:	a40c0305 	strge	r0, [ip], #-773	; 0x305
    225c:	011f0000 	tsteq	pc, r0
    2260:	84030550 	strhi	r0, [r3], #-1360	; 0x550
    2264:	1f00009f 	svcne	0x0000009f
    2268:	02007d02 	andeq	r7, r0, #2, 26	; 0x80
    226c:	20000078 	andcs	r0, r0, r8, ror r0
    2270:	00008f1c 	andeq	r8, r0, ip, lsl pc
    2274:	00000e16 	andeq	r0, r0, r6, lsl lr
    2278:	08190000 	ldmdaeq	r9, {}	; <UNPREDICTABLE>
    227c:	34000002 	strcc	r0, [r0], #-2
    2280:	0400008f 	streq	r0, [r0], #-143	; 0x8f
    2284:	01000000 	mrseq	r0, (UNDEF: 0)
    2288:	00083e54 	andeq	r3, r8, r4, asr lr
    228c:	8f341a00 	svchi	0x00341a00
    2290:	00040000 	andeq	r0, r4, r0
    2294:	181d0000 	ldmdane	sp, {}	; <UNPREDICTABLE>
    2298:	c9000002 	stmdbgt	r0, {r1}
    229c:	00000006 	andeq	r0, r0, r6
    22a0:	051d1900 	ldreq	r1, [sp, #-2304]	; 0x900
    22a4:	8f380000 	svchi	0x00380000
    22a8:	01100000 	tsteq	r0, r0
    22ac:	54010000 	strpl	r0, [r1], #-0
    22b0:	00000996 	muleq	r0, r6, r9
    22b4:	00052d2a 	andeq	r2, r5, sl, lsr #26
    22b8:	0006c900 	andeq	ip, r6, r0, lsl #18
    22bc:	8f381a00 	svchi	0x00381a00
    22c0:	01100000 	tsteq	r0, r0
    22c4:	382b0000 	stmdacc	fp!, {}	; <UNPREDICTABLE>
    22c8:	05000005 	streq	r0, [r0, #-5]
    22cc:	00a4b803 	adceq	fp, r4, r3, lsl #16
    22d0:	054b1900 	strbeq	r1, [fp, #-2304]	; 0x900
    22d4:	8f380000 	svchi	0x00380000
    22d8:	006c0000 	rsbeq	r0, ip, r0
    22dc:	19050000 	stmdbne	r5, {}	; <UNPREDICTABLE>
    22e0:	0000094c 	andeq	r0, r0, ip, asr #18
    22e4:	00055b2a 	andeq	r5, r5, sl, lsr #22
    22e8:	0006c900 	andeq	ip, r6, r0, lsl #18
    22ec:	8f381a00 	svchi	0x00381a00
    22f0:	006c0000 	rsbeq	r0, ip, r0
    22f4:	661b0000 	ldrvs	r0, [fp], -r0
    22f8:	2b000005 	blcs	2314 <__code_start__-0x5cec>
    22fc:	00000571 	andeq	r0, r0, r1, ror r5
    2300:	a4c40305 	strbge	r0, [r4], #773	; 0x305
    2304:	84190000 	ldrhi	r0, [r9], #-0
    2308:	38000005 	stmdacc	r0, {r0, r2}
    230c:	0400008f 	streq	r0, [r0], #-143	; 0x8f
    2310:	05000000 	streq	r0, [r0, #-0]
    2314:	0008e710 	andeq	lr, r8, r0, lsl r7
    2318:	05a72900 	streq	r2, [r7, #2304]!	; 0x900
    231c:	29040000 	stmdbcs	r4, {}	; <UNPREDICTABLE>
    2320:	0000059d 	muleq	r0, sp, r5
    2324:	05942a00 	ldreq	r2, [r4, #2560]	; 0xa00
    2328:	06c90000 	strbeq	r0, [r9], r0
    232c:	381a0000 	ldmdacc	sl, {}	; <UNPREDICTABLE>
    2330:	0400008f 	streq	r0, [r0], #-143	; 0x8f
    2334:	2c000000 	stccs	0, cr0, [r0], {-0}
    2338:	000005be 			; <UNDEFINED> instruction: 0x000005be
    233c:	05b12b05 	ldreq	r2, [r1, #2821]!	; 0xb05
    2340:	03050000 	movweq	r0, #20480	; 0x5000
    2344:	0000a4d0 	ldrdeq	sl, [r0], -r0
    2348:	ec190000 	ldc	0, cr0, [r9], {-0}
    234c:	3c000001 	stccc	0, cr0, [r0], {1}
    2350:	3c00008f 	stccc	0, cr0, [r0], {143}	; 0x8f
    2354:	05000000 	streq	r0, [r0, #-0]
    2358:	00090011 	andeq	r0, r9, r1, lsl r0
    235c:	01fc2d00 	mvnseq	r2, r0, lsl #26
    2360:	20000000 	andcs	r0, r0, r0
    2364:	00008f84 	andeq	r8, r0, r4, lsl #31
    2368:	00000e0f 	andeq	r0, r0, pc, lsl #28
    236c:	008fa01e 	addeq	sl, pc, lr, lsl r0	; <UNPREDICTABLE>
    2370:	000df900 	andeq	pc, sp, r0, lsl #18
    2374:	00094100 	andeq	r4, r9, r0, lsl #2
    2378:	53011f00 	movwpl	r1, #7936	; 0x1f00
    237c:	011f4101 	tsteq	pc, r1, lsl #2
    2380:	c4030552 	strgt	r0, [r3], #-1362	; 0x552
    2384:	1f0000a4 	svcne	0x000000a4
    2388:	03055101 	movweq	r5, #20737	; 0x5101
    238c:	0000a40c 	andeq	sl, r0, ip, lsl #8
    2390:	0550011f 	ldrbeq	r0, [r0, #-287]	; 0x11f
    2394:	009e7803 	addseq	r7, lr, r3, lsl #16
    2398:	7d021f00 	stcvc	15, cr1, [r2, #-0]
    239c:	9c030500 	cfstr32ls	mvfx0, [r3], {-0}
    23a0:	0000009e 	muleq	r0, lr, r0
    23a4:	008fa420 	addeq	sl, pc, r0, lsr #8
    23a8:	000e1600 	andeq	r1, lr, r0, lsl #12
    23ac:	20000000 	andcs	r0, r0, r0
    23b0:	00009020 	andeq	r9, r0, r0, lsr #32
    23b4:	00000e0f 	andeq	r0, r0, pc, lsl #28
    23b8:	0090381e 	addseq	r3, r0, lr, lsl r8
    23bc:	000df900 	andeq	pc, sp, r0, lsl #18
    23c0:	00098b00 	andeq	r8, r9, r0, lsl #22
    23c4:	53011f00 	movwpl	r1, #7936	; 0x1f00
    23c8:	1f210802 	svcne	0x00210802
    23cc:	03055201 	movweq	r5, #20993	; 0x5201
    23d0:	0000a4b8 			; <UNDEFINED> instruction: 0x0000a4b8
    23d4:	0551011f 	ldrbeq	r0, [r1, #-287]	; 0x11f
    23d8:	00a40c03 	adceq	r0, r4, r3, lsl #24
    23dc:	50011f00 	andpl	r1, r1, r0, lsl #30
    23e0:	9f840305 	svcls	0x00840305
    23e4:	021f0000 	andseq	r0, pc, #0
    23e8:	7502007d 	strvc	r0, [r2, #-125]	; 0x7d
    23ec:	3c200000 	stccc	0, cr0, [r0], #-0
    23f0:	16000090 			; <UNDEFINED> instruction: 0x16000090
    23f4:	0000000e 	andeq	r0, r0, lr
    23f8:	02081900 	andeq	r1, r8, #0, 18
    23fc:	90480000 	subls	r0, r8, r0
    2400:	00040000 	andeq	r0, r4, r0
    2404:	54010000 	strpl	r0, [r1], #-0
    2408:	000009b9 			; <UNDEFINED> instruction: 0x000009b9
    240c:	0090481a 	addseq	r4, r0, sl, lsl r8
    2410:	00000400 	andeq	r0, r0, r0, lsl #8
    2414:	02181b00 	andseq	r1, r8, #0, 22
    2418:	00000000 	andeq	r0, r0, r0
    241c:	00054b19 	andeq	r4, r5, r9, lsl fp
    2420:	00905c00 	addseq	r5, r0, r0, lsl #24
    2424:	00006c00 	andeq	r6, r0, r0, lsl #24
    2428:	97580100 	ldrbls	r0, [r8, -r0, lsl #2]
    242c:	2a00000a 	bcs	245c <__code_start__-0x5ba4>
    2430:	0000055b 	andeq	r0, r0, fp, asr r5
    2434:	000006dc 	ldrdeq	r0, [r0], -ip
    2438:	00905c1a 	addseq	r5, r0, sl, lsl ip
    243c:	00006c00 	andeq	r6, r0, r0, lsl #24
    2440:	05661b00 	strbeq	r1, [r6, #-2816]!	; 0xb00
    2444:	712b0000 	teqvc	fp, r0
    2448:	05000005 	streq	r0, [r0, #-5]
    244c:	00a4c403 	adceq	ip, r4, r3, lsl #8
    2450:	05841900 	streq	r1, [r4, #2304]	; 0x900
    2454:	905c0000 	subsls	r0, ip, r0
    2458:	00040000 	andeq	r0, r4, r0
    245c:	10050000 	andne	r0, r5, r0
    2460:	00000a32 	andeq	r0, r0, r2, lsr sl
    2464:	0005a729 	andeq	sl, r5, r9, lsr #14
    2468:	9d290400 	cfstrsls	mvf0, [r9, #-0]
    246c:	00000005 	andeq	r0, r0, r5
    2470:	0005942a 	andeq	r9, r5, sl, lsr #8
    2474:	0006dc00 	andeq	sp, r6, r0, lsl #24
    2478:	905c1a00 	subsls	r1, ip, r0, lsl #20
    247c:	00040000 	andeq	r0, r4, r0
    2480:	be2c0000 	cdplt	0, 2, cr0, cr12, cr0, {0}
    2484:	05000005 	streq	r0, [r0, #-5]
    2488:	0005b12b 	andeq	fp, r5, fp, lsr #2
    248c:	d0030500 	andle	r0, r3, r0, lsl #10
    2490:	000000a4 	andeq	r0, r0, r4, lsr #1
    2494:	01ec1900 	mvneq	r1, r0, lsl #18
    2498:	90600000 	rsbls	r0, r0, r0
    249c:	003c0000 	eorseq	r0, ip, r0
    24a0:	11050000 	mrsne	r0, (UNDEF: 5)
    24a4:	00000a4b 	andeq	r0, r0, fp, asr #20
    24a8:	0001fc2d 	andeq	pc, r1, sp, lsr #24
    24ac:	a8200000 	stmdage	r0!, {}	; <UNPREDICTABLE>
    24b0:	0f000090 	svceq	0x00000090
    24b4:	1e00000e 	cdpne	0, 0, cr0, cr0, cr14, {0}
    24b8:	000090c4 	andeq	r9, r0, r4, asr #1
    24bc:	00000df9 	strdeq	r0, [r0], -r9
    24c0:	00000a8c 	andeq	r0, r0, ip, lsl #21
    24c4:	0153011f 	cmpeq	r3, pc, lsl r1
    24c8:	52011f41 	andpl	r1, r1, #260	; 0x104
    24cc:	a4c40305 	strbge	r0, [r4], #773	; 0x305
    24d0:	011f0000 	tsteq	pc, r0
    24d4:	0c030551 	cfstr32eq	mvfx0, [r3], {81}	; 0x51
    24d8:	1f0000a4 	svcne	0x000000a4
    24dc:	03055001 	movweq	r5, #20481	; 0x5001
    24e0:	00009e78 	andeq	r9, r0, r8, ror lr
    24e4:	007d021f 	rsbseq	r0, sp, pc, lsl r2
    24e8:	9e9c0305 	cdpls	3, 9, cr0, cr12, cr5, {0}
    24ec:	20000000 	andcs	r0, r0, r0
    24f0:	000090c8 	andeq	r9, r0, r8, asr #1
    24f4:	00000e16 	andeq	r0, r0, r6, lsl lr
    24f8:	08190000 	ldmdaeq	r9, {}	; <UNPREDICTABLE>
    24fc:	c8000002 	stmdagt	r0, {r1}
    2500:	04000090 	streq	r0, [r0], #-144	; 0x90
    2504:	01000000 	mrseq	r0, (UNDEF: 0)
    2508:	000abe58 	andeq	fp, sl, r8, asr lr
    250c:	90c81a00 	sbcls	r1, r8, r0, lsl #20
    2510:	00040000 	andeq	r0, r4, r0
    2514:	181d0000 	ldmdane	sp, {}	; <UNPREDICTABLE>
    2518:	ef000002 	svc	0x00000002
    251c:	00000006 	andeq	r0, r0, r6
    2520:	054b1900 	strbeq	r1, [fp, #-2304]	; 0x900
    2524:	90cc0000 	sbcls	r0, ip, r0
    2528:	006c0000 	rsbeq	r0, ip, r0
    252c:	58010000 	stmdapl	r1, {}	; <UNPREDICTABLE>
    2530:	00000b9c 	muleq	r0, ip, fp
    2534:	00055b2a 	andeq	r5, r5, sl, lsr #22
    2538:	0006ef00 	andeq	lr, r6, r0, lsl #30
    253c:	90cc1a00 	sbcls	r1, ip, r0, lsl #20
    2540:	006c0000 	rsbeq	r0, ip, r0
    2544:	661b0000 	ldrvs	r0, [fp], -r0
    2548:	2b000005 	blcs	2564 <__code_start__-0x5a9c>
    254c:	00000571 	andeq	r0, r0, r1, ror r5
    2550:	a4c40305 	strbge	r0, [r4], #773	; 0x305
    2554:	84190000 	ldrhi	r0, [r9], #-0
    2558:	cc000005 	stcgt	0, cr0, [r0], {5}
    255c:	04000090 	streq	r0, [r0], #-144	; 0x90
    2560:	05000000 	streq	r0, [r0, #-0]
    2564:	000b3710 	andeq	r3, fp, r0, lsl r7
    2568:	05a72900 	streq	r2, [r7, #2304]!	; 0x900
    256c:	29040000 	stmdbcs	r4, {}	; <UNPREDICTABLE>
    2570:	0000059d 	muleq	r0, sp, r5
    2574:	05942a00 	ldreq	r2, [r4, #2560]	; 0xa00
    2578:	06ef0000 	strbteq	r0, [pc], r0
    257c:	cc1a0000 	ldcgt	0, cr0, [sl], {-0}
    2580:	04000090 	streq	r0, [r0], #-144	; 0x90
    2584:	2c000000 	stccs	0, cr0, [r0], {-0}
    2588:	000005be 			; <UNDEFINED> instruction: 0x000005be
    258c:	05b12b05 	ldreq	r2, [r1, #2821]!	; 0xb05
    2590:	03050000 	movweq	r0, #20480	; 0x5000
    2594:	0000a4d0 	ldrdeq	sl, [r0], -r0
    2598:	ec190000 	ldc	0, cr0, [r9], {-0}
    259c:	d0000001 	andle	r0, r0, r1
    25a0:	3c000090 	stccc	0, cr0, [r0], {144}	; 0x90
    25a4:	05000000 	streq	r0, [r0, #-0]
    25a8:	000b5011 	andeq	r5, fp, r1, lsl r0
    25ac:	01fc2d00 	mvnseq	r2, r0, lsl #26
    25b0:	20000000 	andcs	r0, r0, r0
    25b4:	00009118 	andeq	r9, r0, r8, lsl r1
    25b8:	00000e0f 	andeq	r0, r0, pc, lsl #28
    25bc:	0091341e 	addseq	r3, r1, lr, lsl r4
    25c0:	000df900 	andeq	pc, sp, r0, lsl #18
    25c4:	000b9100 	andeq	r9, fp, r0, lsl #2
    25c8:	53011f00 	movwpl	r1, #7936	; 0x1f00
    25cc:	011f4101 	tsteq	pc, r1, lsl #2
    25d0:	c4030552 	strgt	r0, [r3], #-1362	; 0x552
    25d4:	1f0000a4 	svcne	0x000000a4
    25d8:	03055101 	movweq	r5, #20737	; 0x5101
    25dc:	0000a40c 	andeq	sl, r0, ip, lsl #8
    25e0:	0550011f 	ldrbeq	r0, [r0, #-287]	; 0x11f
    25e4:	009e7803 	addseq	r7, lr, r3, lsl #16
    25e8:	7d021f00 	stcvc	15, cr1, [r2, #-0]
    25ec:	9c030500 	cfstr32ls	mvfx0, [r3], {-0}
    25f0:	0000009e 	muleq	r0, lr, r0
    25f4:	00913820 	addseq	r3, r1, r0, lsr #16
    25f8:	000e1600 	andeq	r1, lr, r0, lsl #12
    25fc:	21000000 	mrscs	r0, (UNDEF: 0)
    2600:	00008d4c 	andeq	r8, r0, ip, asr #26
    2604:	00000bac 	andeq	r0, r0, ip, lsr #23
    2608:	0250011f 	subseq	r0, r0, #-1073741817	; 0xc0000007
    260c:	1e000074 	mcrne	0, 0, r0, cr0, cr4, {3}
    2610:	00008d74 	andeq	r8, r0, r4, ror sp
    2614:	00000df9 	strdeq	r0, [r0], -r9
    2618:	00000bd2 	ldrdeq	r0, [r0], -r2
    261c:	0253011f 	subseq	r0, r3, #-1073741817	; 0xc0000007
    2620:	011f3408 	tsteq	pc, r8, lsl #8
    2624:	00790252 	rsbseq	r0, r9, r2, asr r2
    2628:	0251011f 	subseq	r0, r1, #-1073741817	; 0xc0000007
    262c:	011f007a 	tsteq	pc, sl, ror r0	; <UNPREDICTABLE>
    2630:	007b0250 	rsbseq	r0, fp, r0, asr r2
    2634:	8d801e00 	stchi	14, cr1, [r0]
    2638:	0e2e0000 	cdpeq	0, 2, cr0, cr14, cr0, {0}
    263c:	0beb0000 	bleq	ffac2644 <__bss_end__+0xffab7b34>
    2640:	011f0000 	tsteq	pc, r0
    2644:	00750251 	rsbseq	r0, r5, r1, asr r2
    2648:	0150011f 	cmpeq	r0, pc, lsl r1
    264c:	a81e0030 	ldmdage	lr, {r4, r5}
    2650:	4400008d 	strmi	r0, [r0], #-141	; 0x8d
    2654:	0500000e 	streq	r0, [r0, #-14]
    2658:	1f00000c 	svcne	0x0000000c
    265c:	74025201 	strvc	r5, [r2], #-513	; 0x201
    2660:	50011f00 	andpl	r1, r1, r0, lsl #30
    2664:	00007702 	andeq	r7, r0, r2, lsl #14
    2668:	008dc021 	addeq	ip, sp, r1, lsr #32
    266c:	000c1500 	andeq	r1, ip, r0, lsl #10
    2670:	50011f00 	andpl	r1, r1, r0, lsl #30
    2674:	00007402 	andeq	r7, r0, r2, lsl #8
    2678:	008dcc21 	addeq	ip, sp, r1, lsr #24
    267c:	000c2500 	andeq	r2, ip, r0, lsl #10
    2680:	50011f00 	andpl	r1, r1, r0, lsl #30
    2684:	00007402 	andeq	r7, r0, r2, lsl #8
    2688:	008de41e 	addeq	lr, sp, lr, lsl r4
    268c:	000df900 	andeq	pc, sp, r0, lsl #18
    2690:	000c3c00 	andeq	r3, ip, r0, lsl #24
    2694:	50011f00 	andpl	r1, r1, r0, lsl #30
    2698:	a3900305 	orrsge	r0, r0, #335544320	; 0x14000000
    269c:	1e000000 	cdpne	0, 0, cr0, cr0, cr0, {0}
    26a0:	00008e18 	andeq	r8, r0, r8, lsl lr
    26a4:	00000df9 	strdeq	r0, [r0], -r9
    26a8:	00000c53 	andeq	r0, r0, r3, asr ip
    26ac:	0550011f 	ldrbeq	r0, [r0, #-287]	; 0x11f
    26b0:	00a3d803 	adceq	sp, r3, r3, lsl #16
    26b4:	341e0000 	ldrcc	r0, [lr], #-0
    26b8:	f900008f 			; <UNDEFINED> instruction: 0xf900008f
    26bc:	7000000d 	andvc	r0, r0, sp
    26c0:	1f00000c 	svcne	0x0000000c
    26c4:	78025201 	stmdavc	r2, {r0, r9, ip, lr}
    26c8:	50011f00 	andpl	r1, r1, r0, lsl #30
    26cc:	a4180305 	ldrge	r0, [r8], #-773	; 0x305
    26d0:	1e000000 	cdpne	0, 0, cr0, cr0, cr0, {0}
    26d4:	00009054 	andeq	r9, r0, r4, asr r0
    26d8:	00000df9 	strdeq	r0, [r0], -r9
    26dc:	00000c87 	andeq	r0, r0, r7, lsl #25
    26e0:	0550011f 	ldrbeq	r0, [r0, #-287]	; 0x11f
    26e4:	00a43403 	adceq	r3, r4, r3, lsl #8
    26e8:	5c1e0000 	ldcpl	0, cr0, [lr], {-0}
    26ec:	1d000090 	stcne	0, cr0, [r0, #-576]	; 0xfffffdc0
    26f0:	9a00000e 	bls	2730 <__code_start__-0x58d0>
    26f4:	1f00000c 	svcne	0x0000000c
    26f8:	30015001 	andcc	r5, r1, r1
    26fc:	91442000 	mrsls	r2, (UNDEF: 68)
    2700:	0e0f0000 	cdpeq	0, 0, cr0, cr15, cr0, {0}
    2704:	601e0000 	andsvs	r0, lr, r0
    2708:	f9000091 			; <UNDEFINED> instruction: 0xf9000091
    270c:	d600000d 	strle	r0, [r0], -sp
    2710:	1f00000c 	svcne	0x0000000c
    2714:	08025301 	stmdaeq	r2, {r0, r8, r9, ip, lr}
    2718:	52011f58 	andpl	r1, r1, #88, 30	; 0x160
    271c:	1f007902 	svcne	0x00007902
    2720:	7a025101 	bvc	96b2c <__bss_end__+0x8c01c>
    2724:	50011f00 	andpl	r1, r1, r0, lsl #30
    2728:	9e780305 	cdpls	3, 7, cr0, cr8, cr5, {0}
    272c:	021f0000 	andseq	r0, pc, #0
    2730:	0305007d 	movweq	r0, #20605	; 0x507d
    2734:	0000a44c 	andeq	sl, r0, ip, asr #8
    2738:	91642000 	cmnls	r4, r0
    273c:	0e160000 	cdpeq	0, 1, cr0, cr6, cr0, {0}
    2740:	23000000 	movwcs	r0, #0
    2744:	0000007f 	andeq	r0, r0, pc, ror r0
    2748:	00000cf0 	strdeq	r0, [r0], -r0	; <UNPREDICTABLE>
    274c:	00007624 	andeq	r7, r0, r4, lsr #12
    2750:	07001100 	streq	r1, [r0, -r0, lsl #2]
    2754:	00000ce0 	andeq	r0, r0, r0, ror #25
    2758:	00050d27 	andeq	r0, r5, r7, lsr #26
    275c:	2c640100 	stfcse	f0, [r4], #-0
    2760:	e4000000 	str	r0, [r0], #-0
    2764:	08000091 	stmdaeq	r0, {r0, r4, r7}
    2768:	01000000 	mrseq	r0, (UNDEF: 0)
    276c:	000d2e9c 	muleq	sp, ip, lr
    2770:	00631600 	rsbeq	r1, r3, r0, lsl #12
    2774:	047a6401 	ldrbteq	r6, [sl], #-1025	; 0x401
    2778:	07020000 	streq	r0, [r2, -r0]
    277c:	69110000 	ldmdbvs	r1, {}	; <UNPREDICTABLE>
    2780:	2c680100 	stfcse	f0, [r8], #-0
    2784:	2e000000 	cdpcs	0, 0, cr0, cr0, cr0, {0}
    2788:	000000d4 	ldrdeq	r0, [r0], -r4
    278c:	00000d3e 	andeq	r0, r0, lr, lsr sp
    2790:	007f2300 	rsbseq	r2, pc, r0, lsl #6
    2794:	0d3e0000 	ldceq	0, cr0, [lr, #-0]
    2798:	76240000 	strtvc	r0, [r4], -r0
    279c:	10000000 	andne	r0, r0, r0
    27a0:	0d2e0700 	stceq	7, cr0, [lr, #-0]
    27a4:	a2140000 	andsge	r0, r4, #0
    27a8:	01000004 	tsteq	r0, r4
    27ac:	0091ec7e 	addseq	lr, r1, lr, ror ip
    27b0:	00002800 	andeq	r2, r0, r0, lsl #16
    27b4:	649c0100 	ldrvs	r0, [ip], #256	; 0x100
    27b8:	2f00000d 	svccs	0x0000000d
    27bc:	7e010063 	cdpvc	0, 0, cr0, cr1, cr3, {3}
    27c0:	0000047a 	andeq	r0, r0, sl, ror r4
    27c4:	30005001 	andcc	r5, r0, r1
    27c8:	000001e7 	andeq	r0, r0, r7, ror #3
    27cc:	00258901 	eoreq	r8, r5, r1, lsl #18
    27d0:	92140000 	andsls	r0, r4, #0
    27d4:	004c0000 	subeq	r0, ip, r0
    27d8:	9c010000 	stcls	0, cr0, [r1], {-0}
    27dc:	00000dcc 	andeq	r0, r0, ip, asr #27
    27e0:	01006316 	tsteq	r0, r6, lsl r3
    27e4:	00047a89 	andeq	r7, r4, r9, lsl #21
    27e8:	00072300 	andeq	r2, r7, r0, lsl #6
    27ec:	92202000 	eorls	r2, r0, #0
    27f0:	0e700000 	cdpeq	0, 7, cr0, cr0, cr0, {0}
    27f4:	281e0000 	ldmdacs	lr, {}	; <UNPREDICTABLE>
    27f8:	43000092 	movwmi	r0, #146	; 0x92
    27fc:	a700000d 	strge	r0, [r0, -sp]
    2800:	1f00000d 	svcne	0x0000000d
    2804:	74025001 	strvc	r5, [r2], #-1
    2808:	301e0000 	andscc	r0, lr, r0
    280c:	f5000092 			; <UNDEFINED> instruction: 0xf5000092
    2810:	bb00000c 	bllt	2848 <__code_start__-0x57b8>
    2814:	1f00000d 	svcne	0x0000000d
    2818:	74025001 	strvc	r5, [r2], #-1
    281c:	40220000 	eormi	r0, r2, r0
    2820:	cd000092 	stcgt	0, cr0, [r0, #-584]	; 0xfffffdb8
    2824:	1f000005 	svcne	0x00000005
    2828:	74025001 	strvc	r5, [r2], #-1
    282c:	28000000 	stmdacs	r0, {}	; <UNPREDICTABLE>
    2830:	00000133 	andeq	r0, r0, r3, lsr r1
    2834:	047a0601 	ldrbteq	r0, [sl], #-1537	; 0x601
    2838:	03050000 	movweq	r0, #20480	; 0x5000
    283c:	0000a708 	andeq	sl, r0, r8, lsl #14
    2840:	0004d428 	andeq	sp, r4, r8, lsr #8
    2844:	7d080100 	stfvcs	f0, [r8, #-0]
    2848:	05000000 	streq	r0, [r0, #-0]
    284c:	00a70c03 	adceq	r0, r7, r3, lsl #24
    2850:	017b3100 	cmneq	fp, r0, lsl #2
    2854:	c2020000 	andgt	r0, r2, #0
    2858:	00000025 	andeq	r0, r0, r5, lsr #32
    285c:	0005ad32 	andeq	sl, r5, r2, lsr sp
    2860:	25290800 	strcs	r0, [r9, #-2048]!	; 0x800
    2864:	0f000000 	svceq	0x00000000
    2868:	0900000e 	stmdbeq	r0, {r1, r2, r3}
    286c:	00000086 	andeq	r0, r0, r6, lsl #1
    2870:	c5340033 	ldrgt	r0, [r4, #-51]!	; 0x33
    2874:	08000000 	stmdaeq	r0, {}	; <UNPREDICTABLE>
    2878:	0105341e 	tsteq	r5, lr, lsl r4
    287c:	65080000 	strvs	r0, [r8, #-0]
    2880:	0003c535 	andeq	ip, r3, r5, lsr r5
    2884:	2ee30200 	cdpcs	2, 14, cr0, cr3, cr0, {0}
    2888:	0900000e 	stmdbeq	r0, {r1, r2, r3}
    288c:	0000005d 	andeq	r0, r0, sp, asr r0
    2890:	03853500 	orreq	r3, r5, #0, 10
    2894:	d9020000 	stmdble	r2, {}	; <UNPREDICTABLE>
    2898:	00000e44 	andeq	r0, r0, r4, asr #28
    289c:	00005d09 	andeq	r5, r0, r9, lsl #26
    28a0:	00910900 	addseq	r0, r1, r0, lsl #18
    28a4:	35000000 	strcc	r0, [r0, #-0]
    28a8:	000004c0 	andeq	r0, r0, r0, asr #9
    28ac:	0e5ff302 	cdpeq	3, 5, cr15, cr15, cr2, {0}
    28b0:	5d090000 	stcpl	0, cr0, [r9, #-0]
    28b4:	09000000 	stmdbeq	r0, {}	; <UNPREDICTABLE>
    28b8:	00000e5f 	andeq	r0, r0, pc, asr lr
    28bc:	00007d09 	andeq	r7, r0, r9, lsl #26
    28c0:	04060000 	streq	r0, [r6], #-0
    28c4:	00000e65 	andeq	r0, r0, r5, ror #28
    28c8:	000e7008 	andeq	r7, lr, r8
    28cc:	007d0900 	rsbseq	r0, sp, r0, lsl #18
    28d0:	34000000 	strcc	r0, [r0], #-0
    28d4:	0000040e 	andeq	r0, r0, lr, lsl #8
    28d8:	91009002 	tstls	r0, r2
    28dc:	04000001 	streq	r0, [r0], #-1
    28e0:	00082400 	andeq	r2, r8, r0, lsl #8
    28e4:	53010400 	movwpl	r0, #5120	; 0x1400
    28e8:	01000005 	tsteq	r0, r5
    28ec:	00000545 	andeq	r0, r0, r5, asr #10
    28f0:	000005be 			; <UNDEFINED> instruction: 0x000005be
    28f4:	00009260 	andeq	r9, r0, r0, ror #4
    28f8:	00000058 	andeq	r0, r0, r8, asr r0
    28fc:	000006d5 	ldrdeq	r0, [r0], -r5
    2900:	00053602 	andeq	r3, r5, r2, lsl #12
    2904:	30280200 	eorcc	r0, r8, r0, lsl #4
    2908:	03000000 	movweq	r0, #0
    290c:	000005b4 			; <UNDEFINED> instruction: 0x000005b4
    2910:	47000304 	strmi	r0, [r0, -r4, lsl #6]
    2914:	04000000 	streq	r0, [r0], #-0
    2918:	00000604 	andeq	r0, r0, r4, lsl #12
    291c:	00000047 	andeq	r0, r0, r7, asr #32
    2920:	04050000 	streq	r0, [r5], #-0
    2924:	0005b602 	andeq	fp, r5, r2, lsl #12
    2928:	25620200 	strbcs	r0, [r2, #-512]!	; 0x200
    292c:	06000000 	streq	r0, [r0], -r0
    2930:	6e690504 	cdpvs	5, 6, cr0, cr9, cr4, {0}
    2934:	04070074 	streq	r0, [r7], #-116	; 0x74
    2938:	00008f07 	andeq	r8, r0, r7, lsl #30
    293c:	06010700 	streq	r0, [r1], -r0, lsl #14
    2940:	0000016f 	andeq	r0, r0, pc, ror #2
    2944:	92050207 	andls	r0, r5, #1879048192	; 0x70000000
    2948:	07000001 	streq	r0, [r0, -r1]
    294c:	00a10504 	adceq	r0, r1, r4, lsl #10
    2950:	08070000 	stmdaeq	r7, {}	; <UNPREDICTABLE>
    2954:	00009c05 	andeq	r9, r0, r5, lsl #24
    2958:	08010700 	stmdaeq	r1, {r8, r9, sl}
    295c:	0000016d 	andeq	r0, r0, sp, ror #2
    2960:	e1070207 	tst	r7, r7, lsl #4
    2964:	07000000 	streq	r0, [r0, -r0]
    2968:	008a0704 	addeq	r0, sl, r4, lsl #14
    296c:	08070000 	stmdaeq	r7, {}	; <UNPREDICTABLE>
    2970:	00008507 	andeq	r8, r0, r7, lsl #10
    2974:	07040700 	streq	r0, [r4, -r0, lsl #14]
    2978:	00000112 	andeq	r0, r0, r2, lsl r1
    297c:	00a70408 	adceq	r0, r7, r8, lsl #8
    2980:	01070000 	mrseq	r0, (UNDEF: 7)
    2984:	00017608 	andeq	r7, r1, r8, lsl #12
    2988:	b4040800 	strlt	r0, [r4], #-2048	; 0x800
    298c:	09000000 	stmdbeq	r0, {}	; <UNPREDICTABLE>
    2990:	000000a7 	andeq	r0, r0, r7, lsr #1
    2994:	0005ad0a 	andeq	sl, r5, sl, lsl #26
    2998:	54060100 	strpl	r0, [r6], #-256	; 0x100
    299c:	60000000 	andvs	r0, r0, r0
    29a0:	58000092 	stmdapl	r0, {r1, r4, r7}
    29a4:	01000000 	mrseq	r0, (UNDEF: 0)
    29a8:	0001439c 	muleq	r1, ip, r3
    29ac:	6d660b00 	vstmdbvs	r6!, {d16-d15}
    29b0:	06010074 			; <UNDEFINED> instruction: 0x06010074
    29b4:	000000ae 	andeq	r0, r0, lr, lsr #1
    29b8:	0c709102 	ldfeqp	f1, [r0], #-8
    29bc:	6675620d 	ldrbtvs	r6, [r5], -sp, lsl #4
    29c0:	43080100 	movwmi	r0, #33024	; 0x8100
    29c4:	05000001 	streq	r0, [r0, #-1]
    29c8:	00a71003 	adceq	r1, r7, r3
    29cc:	0ac00e00 	beq	ff0061d4 <__bss_end__+0xfeffb6c4>
    29d0:	09010000 	stmdbeq	r1, {}	; <UNPREDICTABLE>
    29d4:	00000049 	andeq	r0, r0, r9, asr #32
    29d8:	0f5c9102 	svceq	0x005c9102
    29dc:	01007a73 	tsteq	r0, r3, ror sl
    29e0:	0000540c 	andeq	r5, r0, ip, lsl #8
    29e4:	00074100 	andeq	r4, r7, r0, lsl #2
    29e8:	92881000 	addls	r1, r8, #0
    29ec:	01740000 	cmneq	r4, r0
    29f0:	01360000 	teqeq	r6, r0
    29f4:	01110000 	tsteq	r1, r0
    29f8:	4c910253 	lfmmi	f0, 4, [r1], {83}	; 0x53
    29fc:	03520111 	cmpeq	r2, #1073741828	; 0x40000004
    2a00:	11064891 			; <UNDEFINED> instruction: 0x11064891
    2a04:	0a035101 	beq	d6e10 <__bss_end__+0xcc300>
    2a08:	01110400 	tsteq	r1, r0, lsl #8
    2a0c:	00740250 	rsbseq	r0, r4, r0, asr r2
    2a10:	929c1200 	addsls	r1, ip, #0, 4
    2a14:	01110000 	tsteq	r1, r0
    2a18:	00740250 	rsbseq	r0, r4, r0, asr r2
    2a1c:	a7130000 	ldrge	r0, [r3, -r0]
    2a20:	54000000 	strpl	r0, [r0], #-0
    2a24:	14000001 	strne	r0, [r0], #-1
    2a28:	0000009a 	muleq	r0, sl, r0
    2a2c:	150003ff 	strne	r0, [r0, #-1023]	; 0x3ff
    2a30:	00000054 	andeq	r0, r0, r4, asr r0
    2a34:	00000163 	andeq	r0, r0, r3, ror #2
    2a38:	0000ae16 	andeq	sl, r0, r6, lsl lr
    2a3c:	61170000 	tstvs	r7, r0
    2a40:	04000006 	streq	r0, [r0], #-6
    2a44:	00016e22 	andeq	r6, r1, r2, lsr #28
    2a48:	54040800 	strpl	r0, [r4], #-2048	; 0x800
    2a4c:	18000001 	stmdane	r0, {r0}
    2a50:	000005aa 	andeq	r0, r0, sl, lsr #11
    2a54:	00540205 	subseq	r0, r4, r5, lsl #4
    2a58:	a1160000 	tstge	r6, r0
    2a5c:	16000000 	strne	r0, [r0], -r0
    2a60:	00000054 	andeq	r0, r0, r4, asr r0
    2a64:	0000ae16 	andeq	sl, r0, r6, lsl lr
    2a68:	00491600 	subeq	r1, r9, r0, lsl #12
    2a6c:	00000000 	andeq	r0, r0, r0
    2a70:	00000113 	andeq	r0, r0, r3, lsl r1
    2a74:	09550004 	ldmdbeq	r5, {r2}^
    2a78:	01040000 	mrseq	r0, (UNDEF: 4)
    2a7c:	00000553 	andeq	r0, r0, r3, asr r5
    2a80:	00063001 	andeq	r3, r6, r1
    2a84:	0005be00 	andeq	fp, r5, r0, lsl #28
    2a88:	0092b800 	addseq	fp, r2, r0, lsl #16
    2a8c:	00003c00 	andeq	r3, r0, r0, lsl #24
    2a90:	0007e500 	andeq	lr, r7, r0, lsl #10
    2a94:	05040200 	streq	r0, [r4, #-512]	; 0x200
    2a98:	00746e69 	rsbseq	r6, r4, r9, ror #28
    2a9c:	8f070403 	svchi	0x00070403
    2aa0:	03000000 	movweq	r0, #0
    2aa4:	016f0601 	cmneq	pc, r1, lsl #12
    2aa8:	02030000 	andeq	r0, r3, #0
    2aac:	00019205 	andeq	r9, r1, r5, lsl #4
    2ab0:	05040300 	streq	r0, [r4, #-768]	; 0x300
    2ab4:	000000a1 	andeq	r0, r0, r1, lsr #1
    2ab8:	9c050803 	stcls	8, cr0, [r5], {3}
    2abc:	03000000 	movweq	r0, #0
    2ac0:	016d0801 	cmneq	sp, r1, lsl #16
    2ac4:	02030000 	andeq	r0, r3, #0
    2ac8:	0000e107 	andeq	lr, r0, r7, lsl #2
    2acc:	07040300 	streq	r0, [r4, -r0, lsl #6]
    2ad0:	0000008a 	andeq	r0, r0, sl, lsl #1
    2ad4:	85070803 	strhi	r0, [r7, #-2051]	; 0x803
    2ad8:	03000000 	movweq	r0, #0
    2adc:	01120704 	tsteq	r2, r4, lsl #14
    2ae0:	01030000 	mrseq	r0, (UNDEF: 3)
    2ae4:	00017608 	andeq	r7, r1, r8, lsl #12
    2ae8:	06130400 	ldreq	r0, [r3], -r0, lsl #8
    2aec:	03010000 	movweq	r0, #4096	; 0x1000
    2af0:	00000025 	andeq	r0, r0, r5, lsr #32
    2af4:	000092b8 			; <UNDEFINED> instruction: 0x000092b8
    2af8:	00000014 	andeq	r0, r0, r4, lsl r0
    2afc:	00b09c01 	adcseq	r9, r0, r1, lsl #24
    2b00:	63050000 	movwvs	r0, #20480	; 0x5000
    2b04:	25030100 	strcs	r0, [r3, #-256]	; 0x100
    2b08:	6a000000 	bvs	2b10 <__code_start__-0x54f0>
    2b0c:	06000007 	streq	r0, [r0], -r7
    2b10:	000092c4 	andeq	r9, r0, r4, asr #5
    2b14:	00000109 	andeq	r0, r0, r9, lsl #2
    2b18:	02500107 	subseq	r0, r0, #-1073741823	; 0xc0000001
    2b1c:	00000074 	andeq	r0, r0, r4, ror r0
    2b20:	0000c508 	andeq	ip, r0, r8, lsl #10
    2b24:	cc080100 	stfgts	f0, [r8], {-0}
    2b28:	18000092 	stmdane	r0, {r1, r4, r7}
    2b2c:	01000000 	mrseq	r0, (UNDEF: 0)
    2b30:	063f099c 			; <UNDEFINED> instruction: 0x063f099c
    2b34:	0b010000 	bleq	42b3c <__bss_end__+0x3802c>
    2b38:	000092e4 	andeq	r9, r0, r4, ror #5
    2b3c:	00000010 	andeq	r0, r0, r0, lsl r0
    2b40:	00e39c01 	rsceq	r9, r3, r1, lsl #24
    2b44:	660a0000 	strvs	r0, [sl], -r0
    2b48:	0b010070 	bleq	42d10 <__bss_end__+0x38200>
    2b4c:	000000f2 	strdeq	r0, [r0], -r2
    2b50:	0b005001 	bleq	16b5c <__bss_end__+0xc04c>
    2b54:	00000025 	andeq	r0, r0, r5, lsr #32
    2b58:	000000f2 	strdeq	r0, [r0], -r2
    2b5c:	0000250c 	andeq	r2, r0, ip, lsl #10
    2b60:	040d0000 	streq	r0, [sp], #-0
    2b64:	000000e3 	andeq	r0, r0, r3, ror #1
    2b68:	0006240e 	andeq	r2, r6, lr, lsl #8
    2b6c:	f2060100 	vrhadd.s8	d0, d6, d0
    2b70:	05000000 	streq	r0, [r0, #-0]
    2b74:	009e7003 	addseq	r7, lr, r3
    2b78:	06090f00 	streq	r0, [r9], -r0, lsl #30
    2b7c:	3c020000 	stccc	0, cr0, [r2], {-0}
    2b80:	00002c0c 	andeq	r2, r0, ip, lsl #24
    2b84:	ee000000 	cdp	0, 0, cr0, cr0, cr0, {0}
    2b88:	04000000 	streq	r0, [r0], #-0
    2b8c:	000a3d00 	andeq	r3, sl, r0, lsl #26
    2b90:	53010400 	movwpl	r0, #5120	; 0x1400
    2b94:	01000005 	tsteq	r0, r5
    2b98:	0000064c 	andeq	r0, r0, ip, asr #12
    2b9c:	000005be 			; <UNDEFINED> instruction: 0x000005be
    2ba0:	000092f4 	strdeq	r9, [r0], -r4
    2ba4:	00000034 	andeq	r0, r0, r4, lsr r0
    2ba8:	0000087d 	andeq	r0, r0, sp, ror r8
    2bac:	69050402 	stmdbvs	r5, {r1, sl}
    2bb0:	0300746e 	movweq	r7, #1134	; 0x46e
    2bb4:	008f0704 	addeq	r0, pc, r4, lsl #14
    2bb8:	01030000 	mrseq	r0, (UNDEF: 3)
    2bbc:	00016f06 	andeq	r6, r1, r6, lsl #30
    2bc0:	05020300 	streq	r0, [r2, #-768]	; 0x300
    2bc4:	00000192 	muleq	r0, r2, r1
    2bc8:	a1050403 	tstge	r5, r3, lsl #8
    2bcc:	03000000 	movweq	r0, #0
    2bd0:	009c0508 	addseq	r0, ip, r8, lsl #10
    2bd4:	01030000 	mrseq	r0, (UNDEF: 3)
    2bd8:	00016d08 	andeq	r6, r1, r8, lsl #26
    2bdc:	07020300 	streq	r0, [r2, -r0, lsl #6]
    2be0:	000000e1 	andeq	r0, r0, r1, ror #1
    2be4:	8a070403 	bhi	1c3bf8 <__bss_end__+0x1b90e8>
    2be8:	03000000 	movweq	r0, #0
    2bec:	00850708 	addeq	r0, r5, r8, lsl #14
    2bf0:	04030000 	streq	r0, [r3], #-0
    2bf4:	00011207 	andeq	r1, r1, r7, lsl #4
    2bf8:	08010300 	stmdaeq	r1, {r8, r9}
    2bfc:	00000176 	andeq	r0, r0, r6, ror r1
    2c00:	007f0404 	rsbseq	r0, pc, r4, lsl #8
    2c04:	72050000 	andvc	r0, r5, #0
    2c08:	06000000 	streq	r0, [r0], -r0
    2c0c:	00000658 	andeq	r0, r0, r8, asr r6
    2c10:	00250401 	eoreq	r0, r5, r1, lsl #8
    2c14:	92f40000 	rscsls	r0, r4, #0
    2c18:	00340000 	eorseq	r0, r4, r0
    2c1c:	9c010000 	stcls	0, cr0, [r1], {-0}
    2c20:	000000ab 	andeq	r0, r0, fp, lsr #1
    2c24:	01007007 	tsteq	r0, r7
    2c28:	00007904 	andeq	r7, r0, r4, lsl #18
    2c2c:	00078800 	andeq	r8, r7, r0, lsl #16
    2c30:	25080000 	strcs	r0, [r8, #-0]
    2c34:	ba000000 	blt	2c3c <__code_start__-0x53c4>
    2c38:	09000000 	stmdbeq	r0, {}	; <UNPREDICTABLE>
    2c3c:	00000025 	andeq	r0, r0, r5, lsr #32
    2c40:	06240a00 	strteq	r0, [r4], -r0, lsl #20
    2c44:	1d020000 	stcne	0, cr0, [r2, #-0]
    2c48:	000000c5 	andeq	r0, r0, r5, asr #1
    2c4c:	00ab0404 	adceq	r0, fp, r4, lsl #8
    2c50:	25080000 	strcs	r0, [r8, #-0]
    2c54:	da000000 	ble	2c5c <__code_start__-0x53a4>
    2c58:	09000000 	stmdbeq	r0, {}	; <UNPREDICTABLE>
    2c5c:	00000079 	andeq	r0, r0, r9, ror r0
    2c60:	06610b00 	strbteq	r0, [r1], -r0, lsl #22
    2c64:	0c010000 	stceq	0, cr0, [r1], {-0}
    2c68:	000000eb 	andeq	r0, r0, fp, ror #1
    2c6c:	9e740305 	cdpls	3, 7, cr0, cr4, cr5, {0}
    2c70:	04040000 	streq	r0, [r4], #-0
    2c74:	000000cb 	andeq	r0, r0, fp, asr #1
    2c78:	0006e500 	andeq	lr, r6, r0, lsl #10
    2c7c:	d6000400 	strle	r0, [r0], -r0, lsl #8
    2c80:	0400000a 	streq	r0, [r0], #-10
    2c84:	00055301 	andeq	r5, r5, r1, lsl #6
    2c88:	06970100 	ldreq	r0, [r7], r0, lsl #2
    2c8c:	05be0000 	ldreq	r0, [lr, #0]!
    2c90:	93280000 	teqls	r8, #0
    2c94:	05780000 	ldrbeq	r0, [r8, #-0]!
    2c98:	09210000 	stmdbeq	r1!, {}	; <UNPREDICTABLE>
    2c9c:	04020000 	streq	r0, [r2], #-0
    2ca0:	746e6905 	strbtvc	r6, [lr], #-2309	; 0x905
    2ca4:	07040300 	streq	r0, [r4, -r0, lsl #6]
    2ca8:	0000008f 	andeq	r0, r0, pc, lsl #1
    2cac:	6f060103 	svcvs	0x00060103
    2cb0:	03000001 	movweq	r0, #1
    2cb4:	01920502 	orrseq	r0, r2, r2, lsl #10
    2cb8:	04030000 	streq	r0, [r3], #-0
    2cbc:	0000a105 	andeq	sl, r0, r5, lsl #2
    2cc0:	05080300 	streq	r0, [r8, #-768]	; 0x300
    2cc4:	0000009c 	muleq	r0, ip, r0
    2cc8:	6d080103 	stfvss	f0, [r8, #-12]
    2ccc:	03000001 	movweq	r0, #1
    2cd0:	00e10702 	rsceq	r0, r1, r2, lsl #14
    2cd4:	04030000 	streq	r0, [r3], #-0
    2cd8:	00008a07 	andeq	r8, r0, r7, lsl #20
    2cdc:	07080300 	streq	r0, [r8, -r0, lsl #6]
    2ce0:	00000085 	andeq	r0, r0, r5, lsl #1
    2ce4:	12070403 	andne	r0, r7, #50331648	; 0x3000000
    2ce8:	04000001 	streq	r0, [r0], #-1
    2cec:	7a040504 	bvc	104104 <__bss_end__+0xf95f4>
    2cf0:	03000000 	movweq	r0, #0
    2cf4:	01760801 	cmneq	r6, r1, lsl #16
    2cf8:	04050000 	streq	r0, [r5], #-0
    2cfc:	00000087 	andeq	r0, r0, r7, lsl #1
    2d00:	00007a06 	andeq	r7, r0, r6, lsl #20
    2d04:	05360700 	ldreq	r0, [r6, #-1792]!	; 0x700
    2d08:	28020000 	stmdacs	r2, {}	; <UNPREDICTABLE>
    2d0c:	00000097 	muleq	r0, r7, r0
    2d10:	0005b408 	andeq	fp, r5, r8, lsl #8
    2d14:	00040400 	andeq	r0, r4, r0, lsl #8
    2d18:	000000ae 	andeq	r0, r0, lr, lsr #1
    2d1c:	00060409 	andeq	r0, r6, r9, lsl #8
    2d20:	00007200 	andeq	r7, r0, r0, lsl #4
    2d24:	07000000 	streq	r0, [r0, -r0]
    2d28:	000005b6 			; <UNDEFINED> instruction: 0x000005b6
    2d2c:	008c6202 	addeq	r6, ip, r2, lsl #4
    2d30:	7e0a0000 	cdpvc	0, 0, cr0, cr10, cr0, {0}
    2d34:	01000006 	tsteq	r0, r6
    2d38:	00002527 	andeq	r2, r0, r7, lsr #10
    2d3c:	00932800 	addseq	r2, r3, r0, lsl #16
    2d40:	00001400 	andeq	r1, r0, r0, lsl #8
    2d44:	e09c0100 	adds	r0, ip, r0, lsl #2
    2d48:	0b000000 	bleq	2d50 <__code_start__-0x52b0>
    2d4c:	27010063 	strcs	r0, [r1, -r3, rrx]
    2d50:	00000025 	andeq	r0, r0, r5, lsr #32
    2d54:	000007a6 	andeq	r0, r0, r6, lsr #15
    2d58:	61700c00 	cmnvs	r0, r0, lsl #24
    2d5c:	2e010064 	cdpcs	0, 0, cr0, cr1, cr4, {3}
    2d60:	00000074 	andeq	r0, r0, r4, ror r0
    2d64:	0000933c 	andeq	r9, r0, ip, lsr r3
    2d68:	0000002c 	andeq	r0, r0, ip, lsr #32
    2d6c:	01309c01 	teqeq	r0, r1, lsl #24
    2d70:	700b0000 	andvc	r0, fp, r0
    2d74:	742e0100 	strtvc	r0, [lr], #-256	; 0x100
    2d78:	d4000000 	strle	r0, [r0], #-0
    2d7c:	0d000007 	stceq	0, cr0, [r0, #-28]	; 0xffffffe4
    2d80:	00000a9e 	muleq	r0, lr, sl
    2d84:	00742e01 	rsbseq	r2, r4, r1, lsl #28
    2d88:	07ff0000 	ldrbeq	r0, [pc, r0]!
    2d8c:	b70e0000 	strlt	r0, [lr, -r0]
    2d90:	01000006 	tsteq	r0, r6
    2d94:	0000252e 	andeq	r2, r0, lr, lsr #10
    2d98:	0f520100 	svceq	0x00520100
    2d9c:	006e656c 	rsbeq	r6, lr, ip, ror #10
    2da0:	00252f01 	eoreq	r2, r5, r1, lsl #30
    2da4:	51010000 	mrspl	r0, (UNDEF: 1)
    2da8:	06760a00 	ldrbteq	r0, [r6], -r0, lsl #20
    2dac:	37010000 	strcc	r0, [r1, -r0]
    2db0:	00000074 	andeq	r0, r0, r4, ror r0
    2db4:	00009368 	andeq	r9, r0, r8, ror #6
    2db8:	00000040 	andeq	r0, r0, r0, asr #32
    2dbc:	019c9c01 	orrseq	r9, ip, r1, lsl #24
    2dc0:	640b0000 	strvs	r0, [fp], #-0
    2dc4:	01007473 	tsteq	r0, r3, ror r4
    2dc8:	00007437 	andeq	r7, r0, r7, lsr r4
    2dcc:	00082000 	andeq	r2, r8, r0
    2dd0:	006e0b00 	rsbeq	r0, lr, r0, lsl #22
    2dd4:	00253701 	eoreq	r3, r5, r1, lsl #14
    2dd8:	08580000 	ldmdaeq	r8, {}^	; <UNPREDICTABLE>
    2ddc:	700b0000 	andvc	r0, fp, r0
    2de0:	74370100 	ldrtvc	r0, [r7], #-256	; 0x100
    2de4:	79000000 	stmdbvc	r0, {}	; <UNPREDICTABLE>
    2de8:	0d000008 	stceq	0, cr0, [r0, #-32]	; 0xffffffe0
    2dec:	0000066a 	andeq	r0, r0, sl, ror #12
    2df0:	00743701 	rsbseq	r3, r4, r1, lsl #14
    2df4:	08af0000 	stmiaeq	pc!, {}	; <UNPREDICTABLE>
    2df8:	6c100000 	ldcvs	0, cr0, [r0], {-0}
    2dfc:	01006e65 	tsteq	r0, r5, ror #28
    2e00:	00002539 	andeq	r2, r0, r9, lsr r5
    2e04:	0008cd00 	andeq	ip, r8, r0, lsl #26
    2e08:	00730f00 	rsbseq	r0, r3, r0, lsl #30
    2e0c:	00743d01 	rsbseq	r3, r4, r1, lsl #26
    2e10:	50010000 	andpl	r0, r1, r0
    2e14:	06c50a00 	strbeq	r0, [r5], r0, lsl #20
    2e18:	47010000 	strmi	r0, [r1, -r0]
    2e1c:	00000074 	andeq	r0, r0, r4, ror r0
    2e20:	000093a8 	andeq	r9, r0, r8, lsr #7
    2e24:	000001bc 			; <UNDEFINED> instruction: 0x000001bc
    2e28:	02df9c01 	sbcseq	r9, pc, #256	; 0x100
    2e2c:	9e0d0000 	cdpls	0, 0, cr0, cr13, cr0, {0}
    2e30:	0100000a 	tsteq	r0, sl
    2e34:	00002c47 	andeq	r2, r0, r7, asr #24
    2e38:	0008f400 	andeq	pc, r8, r0, lsl #8
    2e3c:	73640b00 	cmnvc	r4, #0, 22
    2e40:	47010074 	smlsdxmi	r1, r4, r0, r0
    2e44:	00000074 	andeq	r0, r0, r4, ror r0
    2e48:	00000922 	andeq	r0, r0, r2, lsr #18
    2e4c:	01006e0b 	tsteq	r0, fp, lsl #28
    2e50:	00002547 	andeq	r2, r0, r7, asr #10
    2e54:	00099000 	andeq	r9, r9, r0
    2e58:	61760b00 	cmnvs	r6, r0, lsl #22
    2e5c:	4701006c 	strmi	r0, [r1, -ip, rrx]
    2e60:	00000025 	andeq	r0, r0, r5, lsr #32
    2e64:	000009bc 			; <UNDEFINED> instruction: 0x000009bc
    2e68:	0006b70d 	andeq	fp, r6, sp, lsl #14
    2e6c:	25470100 	strbcs	r0, [r7, #-256]	; 0x100
    2e70:	3b000000 	blcc	2e78 <__code_start__-0x5188>
    2e74:	0e00000a 	cdpeq	0, 0, cr0, cr0, cr10, {0}
    2e78:	0000068e 	andeq	r0, r0, lr, lsl #13
    2e7c:	00254701 	eoreq	r4, r5, r1, lsl #14
    2e80:	91020000 	mrsls	r0, (UNDEF: 2)
    2e84:	75620f04 	strbvc	r0, [r2, #-3844]!	; 0xf04
    2e88:	4c010066 	stcmi	0, cr0, [r1], {102}	; 0x66
    2e8c:	000002df 	ldrdeq	r0, [r0], -pc	; <UNPREDICTABLE>
    2e90:	7fa89103 	svcvc	0x00a89103
    2e94:	01007010 	tsteq	r0, r0, lsl r0
    2e98:	0000744c 	andeq	r7, r0, ip, asr #8
    2e9c:	000a6500 	andeq	r6, sl, r0, lsl #10
    2ea0:	00751000 	rsbseq	r1, r5, r0
    2ea4:	002c4d01 	eoreq	r4, ip, r1, lsl #26
    2ea8:	0b4f0000 	bleq	13c2eb0 <__bss_end__+0x13b83a0>
    2eac:	d4110000 	ldrle	r0, [r1], #-0
    2eb0:	ff000000 			; <UNDEFINED> instruction: 0xff000000
    2eb4:	05000002 	streq	r0, [r0, #-2]
    2eb8:	00a4dc03 	adceq	sp, r4, r3, lsl #24
    2ebc:	94141200 	ldrls	r1, [r4], #-512	; 0x200
    2ec0:	00740000 	rsbseq	r0, r4, r0
    2ec4:	02610000 	rsbeq	r0, r1, #0
    2ec8:	70130000 	andsvc	r0, r3, r0
    2ecc:	01000006 	tsteq	r0, r6
    2ed0:	00002c52 	andeq	r2, r0, r2, asr ip
    2ed4:	000c1200 	andeq	r1, ip, r0, lsl #4
    2ed8:	00140000 	andseq	r0, r4, r0
    2edc:	c4000095 	strgt	r0, [r0], #-149	; 0x95
    2ee0:	15000006 	strne	r0, [r0, #-6]
    2ee4:	0000951c 	andeq	r9, r0, ip, lsl r5
    2ee8:	000006cb 	andeq	r0, r0, fp, asr #13
    2eec:	000002a3 	andeq	r0, r0, r3, lsr #5
    2ef0:	02530116 	subseq	r0, r3, #-2147483643	; 0x80000005
    2ef4:	01167708 	tsteq	r6, r8, lsl #14
    2ef8:	dc030552 	cfstr32le	mvfx0, [r3], {82}	; 0x52
    2efc:	160000a4 	strne	r0, [r0], -r4, lsr #1
    2f00:	03055101 	movweq	r5, #20737	; 0x5101
    2f04:	0000a500 	andeq	sl, r0, r0, lsl #10
    2f08:	05500116 	ldrbeq	r0, [r0, #-278]	; 0x116
    2f0c:	009e7803 	addseq	r7, lr, r3, lsl #16
    2f10:	7d021600 	stcvc	6, cr1, [r2, #-0]
    2f14:	14030500 	strne	r0, [r3], #-1280	; 0x500
    2f18:	000000a5 	andeq	r0, r0, r5, lsr #1
    2f1c:	00952014 	addseq	r2, r5, r4, lsl r0
    2f20:	0006e100 	andeq	lr, r6, r0, lsl #2
    2f24:	95281500 	strls	r1, [r8, #-1280]!	; 0x500
    2f28:	00e00000 	rsceq	r0, r0, r0
    2f2c:	02c10000 	sbceq	r0, r1, #0
    2f30:	01160000 	tsteq	r6, r0
    2f34:	a0910351 	addsge	r0, r1, r1, asr r3
    2f38:	3c17007f 	ldccc	0, cr0, [r7], {127}	; 0x7f
    2f3c:	30000095 	mulcc	r0, r5, r0
    2f40:	16000001 	strne	r0, [r0], -r1
    2f44:	91035301 	tstls	r3, r1, lsl #6
    2f48:	01167fa0 	tsteq	r6, r0, lsr #31
    2f4c:	00740251 	rsbseq	r0, r4, r1, asr r2
    2f50:	02500116 	subseq	r0, r0, #-2147483643	; 0x80000005
    2f54:	00000075 	andeq	r0, r0, r5, ror r0
    2f58:	00007a18 	andeq	r7, r0, r8, lsl sl
    2f5c:	0002ef00 	andeq	lr, r2, r0, lsl #30
    2f60:	006b1900 	rsbeq	r1, fp, r0, lsl #18
    2f64:	003f0000 	eorseq	r0, pc, r0
    2f68:	00007a18 	andeq	r7, r0, r8, lsl sl
    2f6c:	0002ff00 	andeq	pc, r2, r0, lsl #30
    2f70:	006b1900 	rsbeq	r1, fp, r0, lsl #18
    2f74:	00040000 	andeq	r0, r4, r0
    2f78:	0002ef06 	andeq	lr, r2, r6, lsl #30
    2f7c:	06a81a00 	strteq	r1, [r8], r0, lsl #20
    2f80:	1f010000 	svcne	0x00010000
    2f84:	00009564 	andeq	r9, r0, r4, ror #10
    2f88:	00000068 	andeq	r0, r0, r8, rrx
    2f8c:	03929c01 	orrseq	r9, r2, #256	; 0x100
    2f90:	bd0d0000 	stclt	0, cr0, [sp, #-0]
    2f94:	01000006 	tsteq	r0, r6
    2f98:	0003a11f 	andeq	sl, r3, pc, lsl r1
    2f9c:	000c3e00 	andeq	r3, ip, r0, lsl #28
    2fa0:	06860d00 	streq	r0, [r6], r0, lsl #26
    2fa4:	1f010000 	svcne	0x00010000
    2fa8:	000003b6 			; <UNDEFINED> instruction: 0x000003b6
    2fac:	00000c6a 	andeq	r0, r0, sl, ror #24
    2fb0:	0000d411 	andeq	sp, r0, r1, lsl r4
    2fb4:	0003cc00 	andeq	ip, r3, r0, lsl #24
    2fb8:	e4030500 	str	r0, [r3], #-1280	; 0x500
    2fbc:	140000a4 	strne	r0, [r0], #-164	; 0xa4
    2fc0:	00009578 	andeq	r9, r0, r8, ror r5
    2fc4:	000006c4 	andeq	r0, r0, r4, asr #13
    2fc8:	00959415 	addseq	r9, r5, r5, lsl r4
    2fcc:	0006cb00 	andeq	ip, r6, r0, lsl #22
    2fd0:	00038800 	andeq	r8, r3, r0, lsl #16
    2fd4:	53011600 	movwpl	r1, #5632	; 0x1600
    2fd8:	16200802 	strtne	r0, [r0], -r2, lsl #16
    2fdc:	03055201 	movweq	r5, #20993	; 0x5201
    2fe0:	0000a4e4 	andeq	sl, r0, r4, ror #9
    2fe4:	05510116 	ldrbeq	r0, [r1, #-278]	; 0x116
    2fe8:	00a50003 	adceq	r0, r5, r3
    2fec:	50011600 	andpl	r1, r1, r0, lsl #12
    2ff0:	9e780305 	cdpls	3, 7, cr0, cr8, cr5, {0}
    2ff4:	02160000 	andseq	r0, r6, #0
    2ff8:	0305007d 	movweq	r0, #20605	; 0x507d
    2ffc:	0000a53c 	andeq	sl, r0, ip, lsr r5
    3000:	95981400 	ldrls	r1, [r8, #1024]	; 0x400
    3004:	06e10000 	strbteq	r0, [r1], r0
    3008:	1b000000 	blne	3010 <__code_start__-0x4ff0>
    300c:	00000025 	andeq	r0, r0, r5, lsr #32
    3010:	000003a1 	andeq	r0, r0, r1, lsr #7
    3014:	0000251c 	andeq	r2, r0, ip, lsl r5
    3018:	04050000 	streq	r0, [r5], #-0
    301c:	00000392 	muleq	r0, r2, r3
    3020:	0000251b 	andeq	r2, r0, fp, lsl r5
    3024:	0003b600 	andeq	fp, r3, r0, lsl #12
    3028:	00811c00 	addeq	r1, r1, r0, lsl #24
    302c:	05000000 	streq	r0, [r0, #-0]
    3030:	0003a704 	andeq	sl, r3, r4, lsl #14
    3034:	007a1800 	rsbseq	r1, sl, r0, lsl #16
    3038:	03cc0000 	biceq	r0, ip, #0
    303c:	6b190000 	blvs	643044 <__bss_end__+0x638534>
    3040:	0e000000 	cdpeq	0, 0, cr0, cr0, cr0, {0}
    3044:	03bc0600 			; <UNDEFINED> instruction: 0x03bc0600
    3048:	aa1d0000 	bge	743050 <__bss_end__+0x738540>
    304c:	01000005 	tsteq	r0, r5
    3050:	0000257f 	andeq	r2, r0, pc, ror r5
    3054:	0095cc00 	addseq	ip, r5, r0, lsl #24
    3058:	0002d400 	andeq	sp, r2, r0, lsl #8
    305c:	899c0100 	ldmibhi	ip, {r8}
    3060:	0b000006 	bleq	3080 <__code_start__-0x4f80>
    3064:	00667562 	rsbeq	r7, r6, r2, ror #10
    3068:	00747f01 	rsbseq	r7, r4, r1, lsl #30
    306c:	0c960000 	ldceq	0, cr0, [r6], {0}
    3070:	6e0b0000 	cdpvs	0, 0, cr0, cr11, cr0, {0}
    3074:	257f0100 	ldrbcs	r0, [pc, #-256]!	; 2f7c <__code_start__-0x5084>
    3078:	c2000000 	andgt	r0, r0, #0
    307c:	0b00000c 	bleq	30b4 <__code_start__-0x4f4c>
    3080:	00746d66 	rsbseq	r6, r4, r6, ror #26
    3084:	00817f01 	addeq	r7, r1, r1, lsl #30
    3088:	0cf00000 	ldcleq	0, cr0, [r0]
    308c:	c00d0000 	andgt	r0, sp, r0
    3090:	0100000a 	tsteq	r0, sl
    3094:	0000ae7f 	andeq	sl, r0, pc, ror lr
    3098:	000d0e00 	andeq	r0, sp, r0, lsl #28
    309c:	00701000 	rsbseq	r1, r0, r0
    30a0:	00748001 	rsbseq	r8, r4, r1
    30a4:	0d210000 	stceq	0, cr0, [r1, #-0]
    30a8:	65100000 	ldrvs	r0, [r0, #-0]
    30ac:	74800100 	strvc	r0, [r0], #256	; 0x100
    30b0:	9f000000 	svcls	0x00000000
    30b4:	1300000d 	movwne	r0, #13
    30b8:	00000666 	andeq	r0, r0, r6, ror #12
    30bc:	00818301 	addeq	r8, r1, r1, lsl #6
    30c0:	0dc60000 	stcleq	0, cr0, [r6]
    30c4:	d4110000 	ldrle	r0, [r1], #-0
    30c8:	99000000 	stmdbls	r0, {}	; <UNPREDICTABLE>
    30cc:	05000006 	streq	r0, [r0, #-6]
    30d0:	00a4f403 	adceq	pc, r4, r3, lsl #8
    30d4:	96281e00 	strtls	r1, [r8], -r0, lsl #28
    30d8:	022c0000 	eoreq	r0, ip, #0
    30dc:	73100000 	tstvc	r0, #0
    30e0:	748e0100 	strvc	r0, [lr], #256	; 0x100
    30e4:	e6000000 	str	r0, [r0], -r0
    30e8:	0f00000d 	svceq	0x0000000d
    30ec:	006d756e 	rsbeq	r7, sp, lr, ror #10
    30f0:	069e8e01 	ldreq	r8, [lr], r1, lsl #28
    30f4:	91030000 	mrsls	r0, (UNDEF: 3)
    30f8:	b7137ed8 			; <UNDEFINED> instruction: 0xb7137ed8
    30fc:	01000006 	tsteq	r0, r6
    3100:	00002c8f 	andeq	r2, r0, pc, lsl #25
    3104:	000e3b00 	andeq	r3, lr, r0, lsl #22
    3108:	96581500 	ldrbls	r1, [r8], -r0, lsl #10
    310c:	00b90000 	adcseq	r0, r9, r0
    3110:	04a40000 	strteq	r0, [r4], #0
    3114:	01160000 	tsteq	r6, r0
    3118:	00750250 	rsbseq	r0, r5, r0, asr r2
    311c:	966c1400 	strbtls	r1, [ip], -r0, lsl #8
    3120:	06c40000 	strbeq	r0, [r4], r0
    3124:	88150000 	ldmdahi	r5, {}	; <UNPREDICTABLE>
    3128:	cb000096 	blgt	3388 <__code_start__-0x4c78>
    312c:	e6000006 	str	r0, [r0], -r6
    3130:	16000004 	strne	r0, [r0], -r4
    3134:	08025301 	stmdaeq	r2, {r0, r8, r9, ip, lr}
    3138:	52011695 	andpl	r1, r1, #156237824	; 0x9500000
    313c:	a4f40305 	ldrbtge	r0, [r4], #773	; 0x305
    3140:	01160000 	tsteq	r6, r0
    3144:	00030551 	andeq	r0, r3, r1, asr r5
    3148:	160000a5 	strne	r0, [r0], -r5, lsr #1
    314c:	03055001 	movweq	r5, #20481	; 0x5001
    3150:	00009e78 	andeq	r9, r0, r8, ror lr
    3154:	007d0216 	rsbseq	r0, sp, r6, lsl r2
    3158:	a5440305 	strbge	r0, [r4, #-773]	; 0x305
    315c:	14000000 	strne	r0, [r0], #-0
    3160:	0000968c 	andeq	r9, r0, ip, lsl #13
    3164:	000006e1 	andeq	r0, r0, r1, ror #13
    3168:	0096fc14 	addseq	pc, r6, r4, lsl ip	; <UNPREDICTABLE>
    316c:	0006c400 	andeq	ip, r6, r0, lsl #8
    3170:	97101500 	ldrls	r1, [r0, -r0, lsl #10]
    3174:	06cb0000 	strbeq	r0, [fp], r0
    3178:	05270000 	streq	r0, [r7, #-0]!
    317c:	01160000 	tsteq	r6, r0
    3180:	9b080253 	blls	203ad4 <__bss_end__+0x1f8fc4>
    3184:	05520116 	ldrbeq	r0, [r2, #-278]	; 0x116
    3188:	00a4f403 	adceq	pc, r4, r3, lsl #8
    318c:	51011600 	tstpl	r1, r0, lsl #12
    3190:	a5000305 	strge	r0, [r0, #-773]	; 0x305
    3194:	01160000 	tsteq	r6, r0
    3198:	50030550 	andpl	r0, r3, r0, asr r5
    319c:	000000a5 	andeq	r0, r0, r5, lsr #1
    31a0:	00971414 	addseq	r1, r7, r4, lsl r4
    31a4:	0006e100 	andeq	lr, r6, r0, lsl #2
    31a8:	97381500 	ldrls	r1, [r8, -r0, lsl #10]!
    31ac:	019c0000 	orrseq	r0, ip, r0
    31b0:	055d0000 	ldrbeq	r0, [sp, #-0]
    31b4:	01160000 	tsteq	r6, r0
    31b8:	80080252 	andhi	r0, r8, r2, asr r2
    31bc:	03510116 	cmpeq	r1, #-2147483643	; 0x80000005
    31c0:	167ed091 			; <UNDEFINED> instruction: 0x167ed091
    31c4:	3a015001 	bcc	571d0 <__bss_end__+0x4c6c0>
    31c8:	047d0216 	ldrbteq	r0, [sp], #-534	; 0x216
    31cc:	02163101 	andseq	r3, r6, #1073741824	; 0x40000000
    31d0:	7702007d 	smlsdxvc	r2, sp, r0, r0
    31d4:	60150000 	andsvs	r0, r5, r0
    31d8:	9c000097 	stcls	0, cr0, [r0], {151}	; 0x97
    31dc:	8a000001 	bhi	31e8 <__code_start__-0x4e18>
    31e0:	16000005 	strne	r0, [r0], -r5
    31e4:	08025201 	stmdaeq	r2, {r0, r9, ip, lr}
    31e8:	51011680 	smlabbpl	r1, r0, r6, r1
    31ec:	7ed09103 	atnvcs	f1, f3
    31f0:	01500116 	cmpeq	r0, r6, lsl r1
    31f4:	7d02163a 	stcvc	6, cr1, [r2, #-232]	; 0xffffff18
    31f8:	16300104 	ldrtne	r0, [r0], -r4, lsl #2
    31fc:	02007d02 	andeq	r7, r0, #2, 26	; 0x80
    3200:	15000077 	strne	r0, [r0, #-119]	; 0x77
    3204:	00009788 	andeq	r9, r0, r8, lsl #15
    3208:	0000019c 	muleq	r0, ip, r1
    320c:	000005b7 			; <UNDEFINED> instruction: 0x000005b7
    3210:	02520116 	subseq	r0, r2, #-2147483643	; 0x80000005
    3214:	01168008 	tsteq	r6, r8
    3218:	d0910351 	addsle	r0, r1, r1, asr r3
    321c:	5001167e 	andpl	r1, r1, lr, ror r6
    3220:	02164001 	andseq	r4, r6, #1
    3224:	3001047d 	andcc	r0, r1, sp, ror r4
    3228:	007d0216 	rsbseq	r0, sp, r6, lsl r2
    322c:	00007702 	andeq	r7, r0, r2, lsl #14
    3230:	0097b015 	addseq	fp, r7, r5, lsl r0
    3234:	00019c00 	andeq	r9, r1, r0, lsl #24
    3238:	0005e400 	andeq	lr, r5, r0, lsl #8
    323c:	52011600 	andpl	r1, r1, #0, 12
    3240:	16800802 	strne	r0, [r0], r2, lsl #16
    3244:	91035101 	tstls	r3, r1, lsl #2
    3248:	01167ed0 			; <UNDEFINED> instruction: 0x01167ed0
    324c:	16320150 			; <UNDEFINED> instruction: 0x16320150
    3250:	01047d02 	tsteq	r4, r2, lsl #26
    3254:	7d021630 	stcvc	6, cr1, [r2, #-192]	; 0xffffff40
    3258:	00770200 	rsbseq	r0, r7, r0, lsl #4
    325c:	97e41500 	strbls	r1, [r4, r0, lsl #10]!
    3260:	019c0000 	orrseq	r0, ip, r0
    3264:	06110000 	ldreq	r0, [r1], -r0
    3268:	01160000 	tsteq	r6, r0
    326c:	80080252 	andhi	r0, r8, r2, asr r2
    3270:	03510116 	cmpeq	r1, #-2147483643	; 0x80000005
    3274:	167ed091 			; <UNDEFINED> instruction: 0x167ed091
    3278:	38015001 	stmdacc	r1, {r0, ip, lr}
    327c:	047d0216 	ldrbteq	r0, [sp], #-534	; 0x216
    3280:	02163001 	andseq	r3, r6, #1
    3284:	7702007d 	smlsdxvc	r2, sp, r0, r0
    3288:	00150000 	andseq	r0, r5, r0
    328c:	cb000098 	blgt	34f4 <__code_start__-0x4b0c>
    3290:	34000006 	strcc	r0, [r0], #-6
    3294:	16000006 	strne	r0, [r0], -r6
    3298:	79025201 	stmdbvc	r2, {r0, r9, ip, lr}
    329c:	51011600 	tstpl	r1, r0, lsl #12
    32a0:	16007902 	strne	r7, [r0], -r2, lsl #18
    32a4:	03055001 	movweq	r5, #20481	; 0x5001
    32a8:	0000a578 	andeq	sl, r0, r8, ror r5
    32ac:	98101f00 	ldmdals	r0, {r8, r9, sl, fp, ip}
    32b0:	06460000 	strbeq	r0, [r6], -r0
    32b4:	01160000 	tsteq	r6, r0
    32b8:	cc910450 	cfldrsgt	mvf0, [r1], {80}	; 0x50
    32bc:	1400067e 	strne	r0, [r0], #-1662	; 0x67e
    32c0:	00009814 	andeq	r9, r0, r4, lsl r8
    32c4:	000006c4 	andeq	r0, r0, r4, asr #13
    32c8:	00982815 	addseq	r2, r8, r5, lsl r8
    32cc:	0006cb00 	andeq	ip, r6, r0, lsl #22
    32d0:	00067e00 	andeq	r7, r6, r0, lsl #28
    32d4:	53011600 	movwpl	r1, #5632	; 0x1600
    32d8:	16bf0802 	ldrtne	r0, [pc], r2, lsl #16
    32dc:	03055201 	movweq	r5, #20993	; 0x5201
    32e0:	0000a4f4 	strdeq	sl, [r0], -r4
    32e4:	05510116 	ldrbeq	r0, [r1, #-278]	; 0x116
    32e8:	00a50003 	adceq	r0, r5, r3
    32ec:	50011600 	andpl	r1, r1, r0, lsl #12
    32f0:	a5a80305 	strge	r0, [r8, #773]!	; 0x305
    32f4:	14000000 	strne	r0, [r0], #-0
    32f8:	0000982c 	andeq	r9, r0, ip, lsr #16
    32fc:	000006e1 	andeq	r0, r0, r1, ror #13
    3300:	7a180000 	bvc	603308 <__bss_end__+0x5f87f8>
    3304:	99000000 	stmdbls	r0, {}	; <UNPREDICTABLE>
    3308:	19000006 	stmdbne	r0, {r1, r2}
    330c:	0000006b 	andeq	r0, r0, fp, rrx
    3310:	89060009 	stmdbhi	r6, {r0, r3}
    3314:	18000006 	stmdane	r0, {r1, r2}
    3318:	0000007a 	andeq	r0, r0, sl, ror r0
    331c:	000006ae 	andeq	r0, r0, lr, lsr #13
    3320:	00006b19 	andeq	r6, r0, r9, lsl fp
    3324:	20007f00 	andcs	r7, r0, r0, lsl #30
    3328:	00000624 	andeq	r0, r0, r4, lsr #12
    332c:	03a11d03 			; <UNDEFINED> instruction: 0x03a11d03
    3330:	61200000 	teqvs	r0, r0
    3334:	03000006 	movweq	r0, #6
    3338:	0003b622 	andeq	fp, r3, r2, lsr #12
    333c:	00c52100 	sbceq	r2, r5, r0, lsl #2
    3340:	1e030000 	cdpne	0, 0, cr0, cr3, cr0, {0}
    3344:	0005ad22 	andeq	sl, r5, r2, lsr #26
    3348:	25290300 	strcs	r0, [r9, #-768]!	; 0x300
    334c:	e1000000 	mrs	r0, (UNDEF: 0)
    3350:	1c000006 	stcne	0, cr0, [r0], {6}
    3354:	00000081 	andeq	r0, r0, r1, lsl #1
    3358:	05210023 	streq	r0, [r1, #-35]!	; 0x23
    335c:	03000001 	movweq	r0, #1
    3360:	00b80065 	adcseq	r0, r8, r5, rrx
    3364:	00040000 	andeq	r0, r4, r0
    3368:	00000cbf 			; <UNDEFINED> instruction: 0x00000cbf
    336c:	05530104 	ldrbeq	r0, [r3, #-260]	; 0x104
    3370:	d8010000 	stmdale	r1, {}	; <UNPREDICTABLE>
    3374:	be000006 	cdplt	0, 0, cr0, cr0, cr6, {0}
    3378:	a0000005 	andge	r0, r0, r5
    337c:	20000098 	mulcs	r0, r8, r0
    3380:	16000000 	strne	r0, [r0], -r0
    3384:	0200000b 	andeq	r0, r0, #11
    3388:	6e690504 	cdpvs	5, 6, cr0, cr9, cr4, {0}
    338c:	04030074 	streq	r0, [r3], #-116	; 0x74
    3390:	00008f07 	andeq	r8, r0, r7, lsl #30
    3394:	06010300 	streq	r0, [r1], -r0, lsl #6
    3398:	0000016f 	andeq	r0, r0, pc, ror #2
    339c:	92050203 	andls	r0, r5, #805306368	; 0x30000000
    33a0:	03000001 	movweq	r0, #1
    33a4:	00a10504 	adceq	r0, r1, r4, lsl #10
    33a8:	08030000 	stmdaeq	r3, {}	; <UNPREDICTABLE>
    33ac:	00009c05 	andeq	r9, r0, r5, lsl #24
    33b0:	08010300 	stmdaeq	r1, {r8, r9}
    33b4:	0000016d 	andeq	r0, r0, sp, ror #2
    33b8:	e1070203 	tst	r7, r3, lsl #4
    33bc:	03000000 	movweq	r0, #0
    33c0:	008a0704 	addeq	r0, sl, r4, lsl #14
    33c4:	08030000 	stmdaeq	r3, {}	; <UNPREDICTABLE>
    33c8:	00008507 	andeq	r8, r0, r7, lsl #10
    33cc:	07040300 	streq	r0, [r4, -r0, lsl #6]
    33d0:	00000112 	andeq	r0, r0, r2, lsl r1
    33d4:	76080103 	strvc	r0, [r8], -r3, lsl #2
    33d8:	04000001 	streq	r0, [r0], #-1
    33dc:	000001ed 	andeq	r0, r0, sp, ror #3
    33e0:	98a00301 	stmials	r0!, {r0, r8, r9}
    33e4:	00100000 	andseq	r0, r0, r0
    33e8:	9c010000 	stcls	0, cr0, [r1], {-0}
    33ec:	0000009c 	muleq	r0, ip, r0
    33f0:	01007205 	tsteq	r0, r5, lsl #4
    33f4:	00002c04 	andeq	r2, r0, r4, lsl #24
    33f8:	000e6500 	andeq	r6, lr, r0, lsl #10
    33fc:	ca060000 	bgt	183404 <__bss_end__+0x1788f4>
    3400:	01000006 	tsteq	r0, r6
    3404:	0098b00c 	addseq	fp, r8, ip
    3408:	00001000 	andeq	r1, r0, r0
    340c:	059c0100 	ldreq	r0, [ip, #256]	; 0x100
    3410:	0d010072 	stceq	0, cr0, [r1, #-456]	; 0xfffffe38
    3414:	0000002c 	andeq	r0, r0, ip, lsr #32
    3418:	00000e89 	andeq	r0, r0, r9, lsl #29
    341c:	010f0000 	mrseq	r0, CPSR
    3420:	00040000 	andeq	r0, r4, r0
    3424:	00000d2a 	andeq	r0, r0, sl, lsr #26
    3428:	05530104 	ldrbeq	r0, [r3, #-260]	; 0x104
    342c:	f9010000 			; <UNDEFINED> instruction: 0xf9010000
    3430:	be000006 	cdplt	0, 0, cr0, cr0, cr6, {0}
    3434:	c0000005 	andgt	r0, r0, r5
    3438:	2c000098 	stccs	0, cr0, [r0], {152}	; 0x98
    343c:	5c000000 	stcpl	0, cr0, [r0], {-0}
    3440:	0200000b 	andeq	r0, r0, #11
    3444:	6e690504 	cdpvs	5, 6, cr0, cr9, cr4, {0}
    3448:	04030074 	streq	r0, [r3], #-116	; 0x74
    344c:	00008f07 	andeq	r8, r0, r7, lsl #30
    3450:	06010300 	streq	r0, [r1], -r0, lsl #6
    3454:	0000016f 	andeq	r0, r0, pc, ror #2
    3458:	92050203 	andls	r0, r5, #805306368	; 0x30000000
    345c:	03000001 	movweq	r0, #1
    3460:	00a10504 	adceq	r0, r1, r4, lsl #10
    3464:	08030000 	stmdaeq	r3, {}	; <UNPREDICTABLE>
    3468:	00009c05 	andeq	r9, r0, r5, lsl #24
    346c:	08010300 	stmdaeq	r1, {r8, r9}
    3470:	0000016d 	andeq	r0, r0, sp, ror #2
    3474:	e1070203 	tst	r7, r3, lsl #4
    3478:	03000000 	movweq	r0, #0
    347c:	008a0704 	addeq	r0, sl, r4, lsl #14
    3480:	08030000 	stmdaeq	r3, {}	; <UNPREDICTABLE>
    3484:	00008507 	andeq	r8, r0, r7, lsl #10
    3488:	07040300 	streq	r0, [r4, -r0, lsl #6]
    348c:	00000112 	andeq	r0, r0, r2, lsl r1
    3490:	76080103 	strvc	r0, [r8], -r3, lsl #2
    3494:	04000001 	streq	r0, [r0], #-1
    3498:	00007f04 	andeq	r7, r0, r4, lsl #30
    349c:	00720500 	rsbseq	r0, r2, r0, lsl #10
    34a0:	05060000 	streq	r0, [r6, #-0]
    34a4:	01000001 	tsteq	r0, r1
    34a8:	0098c004 	addseq	ip, r8, r4
    34ac:	00002c00 	andeq	r2, r0, r0, lsl #24
    34b0:	d39c0100 	orrsle	r0, ip, #0, 2
    34b4:	07000000 	streq	r0, [r0, -r0]
    34b8:	000098c8 	andeq	r9, r0, r8, asr #17
    34bc:	000000f3 	strdeq	r0, [r0], -r3
    34c0:	0098d808 	addseq	sp, r8, r8, lsl #16
    34c4:	0000b500 	andeq	fp, r0, r0, lsl #10
    34c8:	50010900 	andpl	r0, r1, r0, lsl #18
    34cc:	a5c80305 	strbge	r0, [r8, #773]	; 0x305
    34d0:	0a000000 	beq	34d8 <__code_start__-0x4b28>
    34d4:	000098e0 	andeq	r9, r0, r0, ror #17
    34d8:	000000fa 	strdeq	r0, [r0], -sl
    34dc:	000000c9 	andeq	r0, r0, r9, asr #1
    34e0:	02500109 	subseq	r0, r0, #1073741826	; 0x40000002
    34e4:	07006408 	streq	r6, [r0, -r8, lsl #8]
    34e8:	000098e4 	andeq	r9, r0, r4, ror #17
    34ec:	0000010b 	andeq	r0, r0, fp, lsl #2
    34f0:	00250b00 	eoreq	r0, r5, r0, lsl #22
    34f4:	00e20000 	rsceq	r0, r2, r0
    34f8:	790c0000 	stmdbvc	ip, {}	; <UNPREDICTABLE>
    34fc:	00000000 	andeq	r0, r0, r0
    3500:	0006610d 	andeq	r6, r6, sp, lsl #2
    3504:	ed220200 	sfm	f0, 4, [r2, #-0]
    3508:	04000000 	streq	r0, [r0], #-0
    350c:	0000d304 	andeq	sp, r0, r4, lsl #6
    3510:	06ea0e00 	strbteq	r0, [sl], r0, lsl #28
    3514:	dc020000 	stcle	0, cr0, [r2], {-0}
    3518:	00071d0f 	andeq	r1, r7, pc, lsl #26
    351c:	0b4f0200 	bleq	13c3d24 <__bss_end__+0x13b9214>
    3520:	0c000001 	stceq	0, cr0, [r0], {1}
    3524:	0000002c 	andeq	r0, r0, ip, lsr #32
    3528:	07120e00 	ldreq	r0, [r2, -r0, lsl #28]
    352c:	62020000 	andvs	r0, r2, #0
    3530:	00010f00 	andeq	r0, r1, r0, lsl #30
    3534:	f4000400 	vst3.8	{d0-d2}, [r0], r0
    3538:	0400000d 	streq	r0, [r0], #-13
    353c:	00055301 	andeq	r5, r5, r1, lsl #6
    3540:	075f0100 	ldrbeq	r0, [pc, -r0, lsl #2]
    3544:	05be0000 	ldreq	r0, [lr, #0]!
    3548:	98ec0000 	stmials	ip!, {}^	; <UNPREDICTABLE>
    354c:	00380000 	eorseq	r0, r8, r0
    3550:	0bfd0000 	bleq	fff43558 <__bss_end__+0xfff38a48>
    3554:	04020000 	streq	r0, [r2], #-0
    3558:	746e6905 	strbtvc	r6, [lr], #-2309	; 0x905
    355c:	07040300 	streq	r0, [r4, -r0, lsl #6]
    3560:	0000008f 	andeq	r0, r0, pc, lsl #1
    3564:	6f060103 	svcvs	0x00060103
    3568:	03000001 	movweq	r0, #1
    356c:	01920502 	orrseq	r0, r2, r2, lsl #10
    3570:	04030000 	streq	r0, [r3], #-0
    3574:	0000a105 	andeq	sl, r0, r5, lsl #2
    3578:	05080300 	streq	r0, [r8, #-768]	; 0x300
    357c:	0000009c 	muleq	r0, ip, r0
    3580:	6d080103 	stfvss	f0, [r8, #-12]
    3584:	03000001 	movweq	r0, #1
    3588:	00e10702 	rsceq	r0, r1, r2, lsl #14
    358c:	04030000 	streq	r0, [r3], #-0
    3590:	00008a07 	andeq	r8, r0, r7, lsl #20
    3594:	07080300 	streq	r0, [r8, -r0, lsl #6]
    3598:	00000085 	andeq	r0, r0, r5, lsl #1
    359c:	12070403 	andne	r0, r7, #50331648	; 0x3000000
    35a0:	03000001 	movweq	r0, #1
    35a4:	01760801 	cmneq	r6, r1, lsl #16
    35a8:	57040000 	strpl	r0, [r4, -r0]
    35ac:	01000007 	tsteq	r0, r7
    35b0:	0098ec0d 	addseq	lr, r8, sp, lsl #24
    35b4:	00003800 	andeq	r3, r0, r0, lsl #16
    35b8:	e19c0100 	orrs	r0, ip, r0, lsl #2
    35bc:	05000000 	streq	r0, [r0, #-0]
    35c0:	00000726 	andeq	r0, r0, r6, lsr #14
    35c4:	00250e01 	eoreq	r0, r5, r1, lsl #28
    35c8:	34050000 	strcc	r0, [r5], #-0
    35cc:	01000007 	tsteq	r0, r7
    35d0:	0000250e 	andeq	r2, r0, lr, lsl #10
    35d4:	007d0600 	rsbseq	r0, sp, r0, lsl #12
    35d8:	0f010000 	svceq	0x00010000
    35dc:	73736207 	cmnvc	r3, #1879048192	; 0x70000000
    35e0:	e1110100 	tst	r1, r0, lsl #2
    35e4:	ad000000 	stcge	0, cr0, [r0, #-0]
    35e8:	0800000e 	stmdaeq	r0, {r1, r2, r3}
    35ec:	0000074f 	andeq	r0, r0, pc, asr #14
    35f0:	00e11201 	rsceq	r1, r1, r1, lsl #4
    35f4:	14090000 	strne	r0, [r9], #-0
    35f8:	fd000099 	stc2	0, cr0, [r0, #-612]	; 0xfffffd9c
    35fc:	09000000 	stmdbeq	r0, {}	; <UNPREDICTABLE>
    3600:	00009918 	andeq	r9, r0, r8, lsl r9
    3604:	00000104 	andeq	r0, r0, r4, lsl #2
    3608:	00991c09 	addseq	r1, r9, r9, lsl #24
    360c:	00010b00 	andeq	r0, r1, r0, lsl #22
    3610:	040a0000 	streq	r0, [sl], #-0
    3614:	00000025 	andeq	r0, r0, r5, lsr #32
    3618:	00072605 	andeq	r2, r7, r5, lsl #12
    361c:	250e0100 	strcs	r0, [lr, #-256]	; 0x100
    3620:	05000000 	streq	r0, [r0, #-0]
    3624:	00000734 	andeq	r0, r0, r4, lsr r7
    3628:	00250e01 	eoreq	r0, r5, r1, lsl #28
    362c:	40060000 	andmi	r0, r6, r0
    3630:	02000007 	andeq	r0, r0, #7
    3634:	007d06da 	ldrsbteq	r0, [sp], #-106	; 0xffffff96
    3638:	d7020000 	strle	r0, [r2, -r0]
    363c:	00010506 	andeq	r0, r1, r6, lsl #10
    3640:	00650200 	rsbeq	r0, r5, r0, lsl #4
    3644:	0000013e 	andeq	r0, r0, lr, lsr r1
    3648:	0e880004 	cdpeq	0, 8, cr0, cr8, cr4, {0}
    364c:	01040000 	mrseq	r0, (UNDEF: 4)
    3650:	00000553 	andeq	r0, r0, r3, asr r5
    3654:	00077201 	andeq	r7, r7, r1, lsl #4
    3658:	0005be00 	andeq	fp, r5, r0, lsl #28
    365c:	00992400 	addseq	r2, r9, r0, lsl #8
    3660:	00004400 	andeq	r4, r0, r0, lsl #8
    3664:	000ca700 	andeq	sl, ip, r0, lsl #14
    3668:	05040200 	streq	r0, [r4, #-512]	; 0x200
    366c:	00746e69 	rsbseq	r6, r4, r9, ror #28
    3670:	8f070403 	svchi	0x00070403
    3674:	03000000 	movweq	r0, #0
    3678:	016f0601 	cmneq	pc, r1, lsl #12
    367c:	02030000 	andeq	r0, r3, #0
    3680:	00019205 	andeq	r9, r1, r5, lsl #4
    3684:	05040300 	streq	r0, [r4, #-768]	; 0x300
    3688:	000000a1 	andeq	r0, r0, r1, lsr #1
    368c:	9c050803 	stcls	8, cr0, [r5], {3}
    3690:	03000000 	movweq	r0, #0
    3694:	016d0801 	cmneq	sp, r1, lsl #16
    3698:	02030000 	andeq	r0, r3, #0
    369c:	0000e107 	andeq	lr, r0, r7, lsl #2
    36a0:	07040300 	streq	r0, [r4, -r0, lsl #6]
    36a4:	0000008a 	andeq	r0, r0, sl, lsl #1
    36a8:	85070803 	strhi	r0, [r7, #-2051]	; 0x803
    36ac:	03000000 	movweq	r0, #0
    36b0:	01120704 	tsteq	r2, r4, lsl #14
    36b4:	01030000 	mrseq	r0, (UNDEF: 3)
    36b8:	00017608 	andeq	r7, r1, r8, lsl #12
    36bc:	7f040400 	svcvc	0x00040400
    36c0:	05000000 	streq	r0, [r0, #-0]
    36c4:	00000072 	andeq	r0, r0, r2, ror r0
    36c8:	00079306 	andeq	r9, r7, r6, lsl #6
    36cc:	24020100 	strcs	r0, [r2], #-256	; 0x100
    36d0:	44000099 	strmi	r0, [r0], #-153	; 0x99
    36d4:	01000000 	mrseq	r0, (UNDEF: 0)
    36d8:	0001089c 	muleq	r1, ip, r8
    36dc:	63700700 	cmnvs	r0, #0, 14
    36e0:	2c020100 	stfcss	f0, [r2], {-0}
    36e4:	cd000000 	stcgt	0, cr0, [r0, #-0]
    36e8:	0800000e 	stmdaeq	r0, {r1, r2, r3}
    36ec:	000000d4 	ldrdeq	r0, [r0], -r4
    36f0:	00000118 	andeq	r0, r0, r8, lsl r1
    36f4:	a5d40305 	ldrbge	r0, [r4, #773]	; 0x305
    36f8:	34090000 	strcc	r0, [r9], #-0
    36fc:	1d000099 	stcne	0, cr0, [r0, #-612]	; 0xfffffd9c
    3700:	0a000001 	beq	370c <__code_start__-0x48f4>
    3704:	00009954 	andeq	r9, r0, r4, asr r9
    3708:	00000124 	andeq	r0, r0, r4, lsr #2
    370c:	000000fe 	strdeq	r0, [r0], -lr
    3710:	0153010b 	cmpeq	r3, fp, lsl #2
    3714:	52010b32 	andpl	r0, r1, #51200	; 0xc800
    3718:	a5d40305 	ldrbge	r0, [r4, #773]	; 0x305
    371c:	010b0000 	mrseq	r0, (UNDEF: 11)
    3720:	28030551 	stmdacs	r3, {r0, r4, r6, r8, sl}
    3724:	0b0000a6 	bleq	39c4 <__code_start__-0x463c>
    3728:	03055001 	movweq	r5, #20481	; 0x5001
    372c:	0000a5ec 	andeq	sl, r0, ip, ror #11
    3730:	047d020b 	ldrbteq	r0, [sp], #-523	; 0x20b
    3734:	0b007402 	bleq	20744 <__bss_end__+0x15c34>
    3738:	05007d02 	streq	r7, [r0, #-3330]	; 0xd02
    373c:	00a64c03 	adceq	r4, r6, r3, lsl #24
    3740:	58090000 	stmdapl	r9, {}	; <UNPREDICTABLE>
    3744:	3a000099 	bcc	39b0 <__code_start__-0x4650>
    3748:	00000001 	andeq	r0, r0, r1
    374c:	0000720c 	andeq	r7, r0, ip, lsl #4
    3750:	00011800 	andeq	r1, r1, r0, lsl #16
    3754:	006b0d00 	rsbeq	r0, fp, r0, lsl #26
    3758:	00150000 	andseq	r0, r5, r0
    375c:	00010805 	andeq	r0, r1, r5, lsl #16
    3760:	00c50e00 	sbceq	r0, r5, r0, lsl #28
    3764:	1e020000 	cdpne	0, 0, cr0, cr2, cr0, {0}
    3768:	0005ad0f 	andeq	sl, r5, pc, lsl #26
    376c:	25290200 	strcs	r0, [r9, #-512]!	; 0x200
    3770:	3a000000 	bcc	3778 <__code_start__-0x4888>
    3774:	10000001 	andne	r0, r0, r1
    3778:	00000079 	andeq	r0, r0, r9, ror r0
    377c:	050e0011 	streq	r0, [lr, #-17]
    3780:	02000001 	andeq	r0, r0, #1
    3784:	013e0065 	teqeq	lr, r5, rrx
    3788:	00040000 	andeq	r0, r4, r0
    378c:	00000f60 	andeq	r0, r0, r0, ror #30
    3790:	05530104 	ldrbeq	r0, [r3, #-260]	; 0x104
    3794:	b6010000 	strlt	r0, [r1], -r0
    3798:	be000007 	cdplt	0, 0, cr0, cr0, cr7, {0}
    379c:	68000005 	stmdavs	r0, {r0, r2}
    37a0:	44000099 	strmi	r0, [r0], #-153	; 0x99
    37a4:	4d000000 	stcmi	0, cr0, [r0, #-0]
    37a8:	0200000d 	andeq	r0, r0, #13
    37ac:	6e690504 	cdpvs	5, 6, cr0, cr9, cr4, {0}
    37b0:	04030074 	streq	r0, [r3], #-116	; 0x74
    37b4:	00008f07 	andeq	r8, r0, r7, lsl #30
    37b8:	06010300 	streq	r0, [r1], -r0, lsl #6
    37bc:	0000016f 	andeq	r0, r0, pc, ror #2
    37c0:	92050203 	andls	r0, r5, #805306368	; 0x30000000
    37c4:	03000001 	movweq	r0, #1
    37c8:	00a10504 	adceq	r0, r1, r4, lsl #10
    37cc:	08030000 	stmdaeq	r3, {}	; <UNPREDICTABLE>
    37d0:	00009c05 	andeq	r9, r0, r5, lsl #24
    37d4:	08010300 	stmdaeq	r1, {r8, r9}
    37d8:	0000016d 	andeq	r0, r0, sp, ror #2
    37dc:	e1070203 	tst	r7, r3, lsl #4
    37e0:	03000000 	movweq	r0, #0
    37e4:	008a0704 	addeq	r0, sl, r4, lsl #14
    37e8:	08030000 	stmdaeq	r3, {}	; <UNPREDICTABLE>
    37ec:	00008507 	andeq	r8, r0, r7, lsl #10
    37f0:	07040300 	streq	r0, [r4, -r0, lsl #6]
    37f4:	00000112 	andeq	r0, r0, r2, lsl r1
    37f8:	76080103 	strvc	r0, [r8], -r3, lsl #2
    37fc:	04000001 	streq	r0, [r0], #-1
    3800:	00007f04 	andeq	r7, r0, r4, lsl #30
    3804:	00720500 	rsbseq	r0, r2, r0, lsl #10
    3808:	a9060000 	stmdbge	r6, {}	; <UNPREDICTABLE>
    380c:	01000007 	tsteq	r0, r7
    3810:	00996802 	addseq	r6, r9, r2, lsl #16
    3814:	00004400 	andeq	r4, r0, r0, lsl #8
    3818:	089c0100 	ldmeq	ip, {r8}
    381c:	07000001 	streq	r0, [r0, -r1]
    3820:	01006370 	tsteq	r0, r0, ror r3
    3824:	00002c02 	andeq	r2, r0, r2, lsl #24
    3828:	000eeb00 	andeq	lr, lr, r0, lsl #22
    382c:	00d40800 	sbcseq	r0, r4, r0, lsl #16
    3830:	01180000 	tsteq	r8, r0
    3834:	03050000 	movweq	r0, #20480	; 0x5000
    3838:	0000a654 	andeq	sl, r0, r4, asr r6
    383c:	00997809 	addseq	r7, r9, r9, lsl #16
    3840:	00011d00 	andeq	r1, r1, r0, lsl #26
    3844:	99980a00 	ldmibls	r8, {r9, fp}
    3848:	01240000 	teqeq	r4, r0
    384c:	00fe0000 	rscseq	r0, lr, r0
    3850:	010b0000 	mrseq	r0, (UNDEF: 11)
    3854:	0b320153 	bleq	c83da8 <__bss_end__+0xc79298>
    3858:	03055201 	movweq	r5, #20993	; 0x5201
    385c:	0000a654 	andeq	sl, r0, r4, asr r6
    3860:	0551010b 	ldrbeq	r0, [r1, #-267]	; 0x10b
    3864:	00a66403 	adceq	r6, r6, r3, lsl #8
    3868:	50010b00 	andpl	r0, r1, r0, lsl #22
    386c:	a5ec0305 	strbge	r0, [ip, #773]!	; 0x305
    3870:	020b0000 	andeq	r0, fp, #0
    3874:	7402047d 	strvc	r0, [r2], #-1149	; 0x47d
    3878:	7d020b00 	vstrvc	d0, [r2, #-0]
    387c:	88030500 	stmdahi	r3, {r8, sl}
    3880:	000000a6 	andeq	r0, r0, r6, lsr #1
    3884:	00999c09 	addseq	r9, r9, r9, lsl #24
    3888:	00013a00 	andeq	r3, r1, r0, lsl #20
    388c:	720c0000 	andvc	r0, ip, #0
    3890:	18000000 	stmdane	r0, {}	; <UNPREDICTABLE>
    3894:	0d000001 	stceq	0, cr0, [r0, #-4]
    3898:	0000006b 	andeq	r0, r0, fp, rrx
    389c:	0805000c 	stmdaeq	r5, {r2, r3}
    38a0:	0e000001 	cdpeq	0, 0, cr0, cr0, cr1, {0}
    38a4:	000000c5 	andeq	r0, r0, r5, asr #1
    38a8:	ad0f1e02 	stcge	14, cr1, [pc, #-8]	; 38a8 <__code_start__-0x4758>
    38ac:	02000005 	andeq	r0, r0, #5
    38b0:	00002529 	andeq	r2, r0, r9, lsr #10
    38b4:	00013a00 	andeq	r3, r1, r0, lsl #20
    38b8:	00791000 	rsbseq	r1, r9, r0
    38bc:	00110000 	andseq	r0, r1, r0
    38c0:	0001050e 	andeq	r0, r1, lr, lsl #10
    38c4:	00650200 	rsbeq	r0, r5, r0, lsl #4
    38c8:	0000013e 	andeq	r0, r0, lr, lsr r1
    38cc:	10380004 	eorsne	r0, r8, r4
    38d0:	01040000 	mrseq	r0, (UNDEF: 4)
    38d4:	00000553 	andeq	r0, r0, r3, asr r5
    38d8:	0007d801 	andeq	sp, r7, r1, lsl #16
    38dc:	0005be00 	andeq	fp, r5, r0, lsl #28
    38e0:	0099ac00 	addseq	sl, r9, r0, lsl #24
    38e4:	00004400 	andeq	r4, r0, r0, lsl #8
    38e8:	000df400 	andeq	pc, sp, r0, lsl #8
    38ec:	05040200 	streq	r0, [r4, #-512]	; 0x200
    38f0:	00746e69 	rsbseq	r6, r4, r9, ror #28
    38f4:	8f070403 	svchi	0x00070403
    38f8:	03000000 	movweq	r0, #0
    38fc:	016f0601 	cmneq	pc, r1, lsl #12
    3900:	02030000 	andeq	r0, r3, #0
    3904:	00019205 	andeq	r9, r1, r5, lsl #4
    3908:	05040300 	streq	r0, [r4, #-768]	; 0x300
    390c:	000000a1 	andeq	r0, r0, r1, lsr #1
    3910:	9c050803 	stcls	8, cr0, [r5], {3}
    3914:	03000000 	movweq	r0, #0
    3918:	016d0801 	cmneq	sp, r1, lsl #16
    391c:	02030000 	andeq	r0, r3, #0
    3920:	0000e107 	andeq	lr, r0, r7, lsl #2
    3924:	07040300 	streq	r0, [r4, -r0, lsl #6]
    3928:	0000008a 	andeq	r0, r0, sl, lsl #1
    392c:	85070803 	strhi	r0, [r7, #-2051]	; 0x803
    3930:	03000000 	movweq	r0, #0
    3934:	01120704 	tsteq	r2, r4, lsl #14
    3938:	01030000 	mrseq	r0, (UNDEF: 3)
    393c:	00017608 	andeq	r7, r1, r8, lsl #12
    3940:	7f040400 	svcvc	0x00040400
    3944:	05000000 	streq	r0, [r0, #-0]
    3948:	00000072 	andeq	r0, r0, r2, ror r0
    394c:	00080306 	andeq	r0, r8, r6, lsl #6
    3950:	ac020100 	stfges	f0, [r2], {-0}
    3954:	44000099 	strmi	r0, [r0], #-153	; 0x99
    3958:	01000000 	mrseq	r0, (UNDEF: 0)
    395c:	0001089c 	muleq	r1, ip, r8
    3960:	63700700 	cmnvs	r0, #0, 14
    3964:	2c020100 	stfcss	f0, [r2], {-0}
    3968:	09000000 	stmdbeq	r0, {}	; <UNPREDICTABLE>
    396c:	0800000f 	stmdaeq	r0, {r0, r1, r2, r3}
    3970:	000000d4 	ldrdeq	r0, [r0], -r4
    3974:	00000118 	andeq	r0, r0, r8, lsl r1
    3978:	a6900305 	ldrge	r0, [r0], r5, lsl #6
    397c:	bc090000 	stclt	0, cr0, [r9], {-0}
    3980:	1d000099 	stcne	0, cr0, [r0, #-612]	; 0xfffffd9c
    3984:	0a000001 	beq	3990 <__code_start__-0x4670>
    3988:	000099dc 	ldrdeq	r9, [r0], -ip
    398c:	00000124 	andeq	r0, r0, r4, lsr #2
    3990:	000000fe 	strdeq	r0, [r0], -lr
    3994:	0153010b 	cmpeq	r3, fp, lsl #2
    3998:	52010b32 	andpl	r0, r1, #51200	; 0xc800
    399c:	a6900305 	ldrge	r0, [r0], r5, lsl #6
    39a0:	010b0000 	mrseq	r0, (UNDEF: 11)
    39a4:	b0030551 	andlt	r0, r3, r1, asr r5
    39a8:	0b0000a6 	bleq	3c48 <__code_start__-0x43b8>
    39ac:	03055001 	movweq	r5, #20481	; 0x5001
    39b0:	0000a5ec 	andeq	sl, r0, ip, ror #11
    39b4:	047d020b 	ldrbteq	r0, [sp], #-523	; 0x20b
    39b8:	0b007402 	bleq	209c8 <__bss_end__+0x15eb8>
    39bc:	05007d02 	streq	r7, [r0, #-3330]	; 0xd02
    39c0:	00a6dc03 	adceq	sp, r6, r3, lsl #24
    39c4:	e0090000 	and	r0, r9, r0
    39c8:	3a000099 	bcc	3c34 <__code_start__-0x43cc>
    39cc:	00000001 	andeq	r0, r0, r1
    39d0:	0000720c 	andeq	r7, r0, ip, lsl #4
    39d4:	00011800 	andeq	r1, r1, r0, lsl #16
    39d8:	006b0d00 	rsbeq	r0, fp, r0, lsl #26
    39dc:	001c0000 	andseq	r0, ip, r0
    39e0:	00010805 	andeq	r0, r1, r5, lsl #16
    39e4:	00c50e00 	sbceq	r0, r5, r0, lsl #28
    39e8:	1e020000 	cdpne	0, 0, cr0, cr2, cr0, {0}
    39ec:	0005ad0f 	andeq	sl, r5, pc, lsl #26
    39f0:	25290200 	strcs	r0, [r9, #-512]!	; 0x200
    39f4:	3a000000 	bcc	39fc <__code_start__-0x4604>
    39f8:	10000001 	andne	r0, r0, r1
    39fc:	00000079 	andeq	r0, r0, r9, ror r0
    3a00:	050e0011 	streq	r0, [lr, #-17]
    3a04:	02000001 	andeq	r0, r0, #1
    3a08:	00980065 	addseq	r0, r8, r5, rrx
    3a0c:	00040000 	andeq	r0, r4, r0
    3a10:	00001110 	andeq	r1, r0, r0, lsl r1
    3a14:	05530104 	ldrbeq	r0, [r3, #-260]	; 0x104
    3a18:	20010000 	andcs	r0, r1, r0
    3a1c:	be000008 	cdplt	0, 0, cr0, cr0, cr8, {0}
    3a20:	f0000005 			; <UNDEFINED> instruction: 0xf0000005
    3a24:	08000099 	stmdaeq	r0, {r0, r3, r4, r7}
    3a28:	a4000000 	strge	r0, [r0], #-0
    3a2c:	0200000e 	andeq	r0, r0, #14
    3a30:	6e690504 	cdpvs	5, 6, cr0, cr9, cr4, {0}
    3a34:	04030074 	streq	r0, [r3], #-116	; 0x74
    3a38:	00008f07 	andeq	r8, r0, r7, lsl #30
    3a3c:	06010300 	streq	r0, [r1], -r0, lsl #6
    3a40:	0000016f 	andeq	r0, r0, pc, ror #2
    3a44:	92050203 	andls	r0, r5, #805306368	; 0x30000000
    3a48:	03000001 	movweq	r0, #1
    3a4c:	00a10504 	adceq	r0, r1, r4, lsl #10
    3a50:	08030000 	stmdaeq	r3, {}	; <UNPREDICTABLE>
    3a54:	00009c05 	andeq	r9, r0, r5, lsl #24
    3a58:	08010300 	stmdaeq	r1, {r8, r9}
    3a5c:	0000016d 	andeq	r0, r0, sp, ror #2
    3a60:	e1070203 	tst	r7, r3, lsl #4
    3a64:	03000000 	movweq	r0, #0
    3a68:	008a0704 	addeq	r0, sl, r4, lsl #14
    3a6c:	08030000 	stmdaeq	r3, {}	; <UNPREDICTABLE>
    3a70:	00008507 	andeq	r8, r0, r7, lsl #10
    3a74:	07040300 	streq	r0, [r4, -r0, lsl #6]
    3a78:	00000112 	andeq	r0, r0, r2, lsl r1
    3a7c:	76080103 	strvc	r0, [r8], -r3, lsl #2
    3a80:	04000001 	streq	r0, [r0], #-1
    3a84:	00000740 	andeq	r0, r0, r0, asr #14
    3a88:	99f00401 	ldmibls	r0!, {r0, sl}^
    3a8c:	00040000 	andeq	r0, r4, r0
    3a90:	9c010000 	stcls	0, cr0, [r1], {-0}
    3a94:	0006ea04 	andeq	lr, r6, r4, lsl #20
    3a98:	f4050100 	vst4.8	{d0,d2,d4,d6}, [r5], r0
    3a9c:	04000099 	streq	r0, [r0], #-153	; 0x99
    3aa0:	01000000 	mrseq	r0, (UNDEF: 0)
    3aa4:	01d7009c 			; <UNDEFINED> instruction: 0x01d7009c
    3aa8:	00040000 	andeq	r0, r4, r0
    3aac:	00001152 	andeq	r1, r0, r2, asr r1
    3ab0:	05530104 	ldrbeq	r0, [r3, #-260]	; 0x104
    3ab4:	dc010000 	stcle	0, cr0, [r1], {-0}
    3ab8:	be000008 	cdplt	0, 0, cr0, cr0, cr8, {0}
    3abc:	f8000005 			; <UNDEFINED> instruction: 0xf8000005
    3ac0:	6c000099 	stcvs	0, cr0, [r0], {153}	; 0x99
    3ac4:	ef000000 	svc	0x00000000
    3ac8:	0200000e 	andeq	r0, r0, #14
    3acc:	6e690504 	cdpvs	5, 6, cr0, cr9, cr4, {0}
    3ad0:	04030074 	streq	r0, [r3], #-116	; 0x74
    3ad4:	00008f07 	andeq	r8, r0, r7, lsl #30
    3ad8:	06010300 	streq	r0, [r1], -r0, lsl #6
    3adc:	0000016f 	andeq	r0, r0, pc, ror #2
    3ae0:	92050203 	andls	r0, r5, #805306368	; 0x30000000
    3ae4:	03000001 	movweq	r0, #1
    3ae8:	00a10504 	adceq	r0, r1, r4, lsl #10
    3aec:	08030000 	stmdaeq	r3, {}	; <UNPREDICTABLE>
    3af0:	00009c05 	andeq	r9, r0, r5, lsl #24
    3af4:	08010300 	stmdaeq	r1, {r8, r9}
    3af8:	0000016d 	andeq	r0, r0, sp, ror #2
    3afc:	e1070203 	tst	r7, r3, lsl #4
    3b00:	03000000 	movweq	r0, #0
    3b04:	008a0704 	addeq	r0, sl, r4, lsl #14
    3b08:	08030000 	stmdaeq	r3, {}	; <UNPREDICTABLE>
    3b0c:	00008507 	andeq	r8, r0, r7, lsl #10
    3b10:	07040300 	streq	r0, [r4, -r0, lsl #6]
    3b14:	00000112 	andeq	r0, r0, r2, lsl r1
    3b18:	76080103 	strvc	r0, [r8], -r3, lsl #2
    3b1c:	04000001 	streq	r0, [r0], #-1
    3b20:	f0140204 			; <UNDEFINED> instruction: 0xf0140204
    3b24:	05000000 	streq	r0, [r0, #-0]
    3b28:	000008f5 	strdeq	r0, [r0], -r5
    3b2c:	8082e480 	addhi	lr, r2, r0, lsl #9
    3b30:	087b0502 	ldmdaeq	fp!, {r1, r8, sl}^
    3b34:	e4800000 	str	r0, [r0], #0
    3b38:	05028082 	streq	r8, [r2, #-130]	; 0x82
    3b3c:	00000922 	andeq	r0, r0, r2, lsr #18
    3b40:	8082e484 	addhi	lr, r2, r4, lsl #9
    3b44:	083d0502 	ldmdaeq	sp!, {r1, r8, sl}
    3b48:	e4880000 	str	r0, [r8], #0
    3b4c:	05028082 	streq	r8, [r2, #-130]	; 0x82
    3b50:	0000085e 	andeq	r0, r0, lr, asr r8
    3b54:	8082e48c 	addhi	lr, r2, ip, lsl #9
    3b58:	089f0502 	ldmeq	pc, {r1, r8, sl}	; <UNPREDICTABLE>
    3b5c:	e4900000 	ldr	r0, [r0], #0
    3b60:	05028082 	streq	r8, [r2, #-130]	; 0x82
    3b64:	000008ad 	andeq	r0, r0, sp, lsr #17
    3b68:	8082e494 	umullhi	lr, r2, r4, r4
    3b6c:	088d0502 	stmeq	sp, {r1, r8, sl}
    3b70:	e4980000 	ldr	r0, [r8], #0
    3b74:	05028082 	streq	r8, [r2, #-130]	; 0x82
    3b78:	00000904 	andeq	r0, r0, r4, lsl #18
    3b7c:	8082e49c 	umullhi	lr, r2, ip, r4
    3b80:	09130502 	ldmdbeq	r3, {r1, r8, sl}
    3b84:	e4a00000 	strt	r0, [r0], #0
    3b88:	05028082 	streq	r8, [r2, #-130]	; 0x82
    3b8c:	0000084b 	andeq	r0, r0, fp, asr #16
    3b90:	8082e4a4 	addhi	lr, r2, r4, lsr #9
    3b94:	a2060002 	andge	r0, r6, #2
    3b98:	01000002 	tsteq	r0, r2
    3b9c:	0099f81b 	addseq	pc, r9, fp, lsl r8	; <UNPREDICTABLE>
    3ba0:	00006c00 	andeq	r6, r0, r0, lsl #24
    3ba4:	a59c0100 	ldrge	r0, [ip, #256]	; 0x100
    3ba8:	07000001 	streq	r0, [r0, -r1]
    3bac:	0000086a 	andeq	r0, r0, sl, ror #16
    3bb0:	002c2301 	eoreq	r2, ip, r1, lsl #6
    3bb4:	bb070000 	bllt	1c3bbc <__bss_end__+0x1b90ac>
    3bb8:	01000008 	tsteq	r0, r8
    3bbc:	00002c24 	andeq	r2, r0, r4, lsr #24
    3bc0:	73640800 	cmnvc	r4, #0, 16
    3bc4:	27010074 	smlsdxcs	r1, r4, r0, r0
    3bc8:	000001a5 	andeq	r0, r0, r5, lsr #3
    3bcc:	72730900 	rsbsvc	r0, r3, #0, 18
    3bd0:	28010063 	stmdacs	r1, {r0, r1, r5, r6}
    3bd4:	000001a5 	andeq	r0, r0, r5, lsr #3
    3bd8:	01006e0a 	tsteq	r0, sl, lsl #28
    3bdc:	00002c29 	andeq	r2, r0, r9, lsr #24
    3be0:	0b500100 	bleq	1403fe8 <__bss_end__+0x13f94d8>
    3be4:	00009a2c 	andeq	r9, r0, ip, lsr #20
    3be8:	00000024 	andeq	r0, r0, r4, lsr #32
    3bec:	00000158 	andeq	r0, r0, r8, asr r1
    3bf0:	0100690c 	tsteq	r0, ip, lsl #18
    3bf4:	0000252a 	andeq	r2, r0, sl, lsr #10
    3bf8:	000f2700 	andeq	r2, pc, r0, lsl #14
    3bfc:	000d0000 	andeq	r0, sp, r0
    3c00:	c100009a 	swpgt	r0, sl, [r0]	; <UNPREDICTABLE>
    3c04:	0e000001 	cdpeq	0, 0, cr0, cr0, cr1, {0}
    3c08:	00009a0c 	andeq	r9, r0, ip, lsl #20
    3c0c:	000001c8 	andeq	r0, r0, r8, asr #3
    3c10:	0000017e 	andeq	r0, r0, lr, ror r1
    3c14:	0251010f 	subseq	r0, r1, #-1073741821	; 0xc0000003
    3c18:	010fff09 	tsteq	pc, r9, lsl #30
    3c1c:	1c0c0550 	cfstr32ne	mvfx0, [ip], {80}	; 0x50
    3c20:	002000b2 	strhteq	r0, [r0], -r2
    3c24:	009a180e 	addseq	r1, sl, lr, lsl #16
    3c28:	0001c800 	andeq	ip, r1, r0, lsl #16
    3c2c:	00019b00 	andeq	r9, r1, r0, lsl #22
    3c30:	51010f00 	tstpl	r1, r0, lsl #30
    3c34:	0fff0902 	svceq	0x00ff0902
    3c38:	0c055001 	stceq	0, cr5, [r5], {1}
    3c3c:	2000b220 	andcs	fp, r0, r0, lsr #4
    3c40:	9a1c0d00 	bls	707048 <__bss_end__+0x6fc538>
    3c44:	01c10000 	biceq	r0, r1, r0
    3c48:	10000000 	andne	r0, r0, r0
    3c4c:	00002c04 	andeq	r2, r0, r4, lsl #24
    3c50:	086a0700 	stmdaeq	sl!, {r8, r9, sl}^
    3c54:	23010000 	movwcs	r0, #4096	; 0x1000
    3c58:	0000002c 	andeq	r0, r0, ip, lsr #32
    3c5c:	0008bb07 	andeq	fp, r8, r7, lsl #22
    3c60:	2c240100 	stfcss	f0, [r4], #-0
    3c64:	11000000 	mrsne	r0, (UNDEF: 0)
    3c68:	000008d0 	ldrdeq	r0, [r0], -r0	; <UNPREDICTABLE>
    3c6c:	fe128903 	cdp2	9, 1, cr8, cr2, cr3, {0}
    3c70:	03000008 	movweq	r0, #8
    3c74:	002c139b 	mlaeq	ip, fp, r3, r1
    3c78:	2c130000 	ldccs	0, cr0, [r3], {-0}
    3c7c:	00000000 	andeq	r0, r0, r0
    3c80:	0001ad00 	andeq	sl, r1, r0, lsl #26
    3c84:	58000400 	stmdapl	r0, {sl}
    3c88:	04000012 	streq	r0, [r0], #-18
    3c8c:	00055301 	andeq	r5, r5, r1, lsl #6
    3c90:	093e0100 	ldmdbeq	lr!, {r8}
    3c94:	05be0000 	ldreq	r0, [lr, #0]!
    3c98:	00300000 	eorseq	r0, r0, r0
    3c9c:	00000000 	andeq	r0, r0, r0
    3ca0:	0fbc0000 	svceq	0x00bc0000
    3ca4:	04020000 	streq	r0, [r2], #-0
    3ca8:	746e6905 	strbtvc	r6, [lr], #-2309	; 0x905
    3cac:	07040300 	streq	r0, [r4, -r0, lsl #6]
    3cb0:	0000008f 	andeq	r0, r0, pc, lsl #1
    3cb4:	6f060103 	svcvs	0x00060103
    3cb8:	03000001 	movweq	r0, #1
    3cbc:	01920502 	orrseq	r0, r2, r2, lsl #10
    3cc0:	04030000 	streq	r0, [r3], #-0
    3cc4:	0000a105 	andeq	sl, r0, r5, lsl #2
    3cc8:	05080300 	streq	r0, [r8, #-768]	; 0x300
    3ccc:	0000009c 	muleq	r0, ip, r0
    3cd0:	6d080103 	stfvss	f0, [r8, #-12]
    3cd4:	03000001 	movweq	r0, #1
    3cd8:	00e10702 	rsceq	r0, r1, r2, lsl #14
    3cdc:	04030000 	streq	r0, [r3], #-0
    3ce0:	00008a07 	andeq	r8, r0, r7, lsl #20
    3ce4:	07080300 	streq	r0, [r8, -r0, lsl #6]
    3ce8:	00000085 	andeq	r0, r0, r5, lsl #1
    3cec:	12070403 	andne	r0, r7, #50331648	; 0x3000000
    3cf0:	03000001 	movweq	r0, #1
    3cf4:	01760801 	cmneq	r6, r1, lsl #16
    3cf8:	30040000 	andcc	r0, r4, r0
    3cfc:	01000009 	tsteq	r0, r9
    3d00:	0000250e 	andeq	r2, r0, lr, lsl #10
    3d04:	009a6400 	addseq	r6, sl, r0, lsl #8
    3d08:	00001800 	andeq	r1, r0, r0, lsl #16
    3d0c:	a29c0100 	addsge	r0, ip, #0, 2
    3d10:	05000000 	streq	r0, [r0, #-0]
    3d14:	0000019c 	muleq	r0, ip, r1
    3d18:	002c0f01 	eoreq	r0, ip, r1, lsl #30
    3d1c:	0f460000 	svceq	0x00460000
    3d20:	06000000 	streq	r0, [r0], -r0
    3d24:	00000972 	andeq	r0, r0, r2, ror r9
    3d28:	9a7c1701 	bls	1f09934 <__bss_end__+0x1efee24>
    3d2c:	00140000 	andseq	r0, r4, r0
    3d30:	9c010000 	stcls	0, cr0, [r1], {-0}
    3d34:	000000c7 	andeq	r0, r0, r7, asr #1
    3d38:	00019c05 	andeq	r9, r1, r5, lsl #24
    3d3c:	2c180100 	ldfcss	f0, [r8], {-0}
    3d40:	65000000 	strvs	r0, [r0, #-0]
    3d44:	0000000f 	andeq	r0, r0, pc
    3d48:	00071206 	andeq	r1, r7, r6, lsl #4
    3d4c:	901f0100 	andsls	r0, pc, r0, lsl #2
    3d50:	4800009a 	stmdami	r0, {r1, r3, r4, r7}
    3d54:	01000000 	mrseq	r0, (UNDEF: 0)
    3d58:	0001779c 	muleq	r1, ip, r7
    3d5c:	098d0700 	stmibeq	sp, {r8, r9, sl}
    3d60:	2a010000 	bcs	43d68 <__bss_end__+0x39258>
    3d64:	00000177 	andeq	r0, r0, r7, ror r1
    3d68:	2010001c 	andscs	r0, r0, ip, lsl r0
    3d6c:	00096a07 	andeq	r6, r9, r7, lsl #20
    3d70:	772b0100 	strvc	r0, [fp, -r0, lsl #2]!
    3d74:	24000001 	strcs	r0, [r0], #-1
    3d78:	07201000 	streq	r1, [r0, -r0]!
    3d7c:	00000981 	andeq	r0, r0, r1, lsl #19
    3d80:	01772c01 	cmneq	r7, r1, lsl #24
    3d84:	00000000 	andeq	r0, r0, r0
    3d88:	51085a00 	tstpl	r8, r0, lsl #20
    3d8c:	01000009 	tsteq	r0, r9
    3d90:	0001772d 	andeq	r7, r1, sp, lsr #14
    3d94:	98092000 	stmdals	r9, {sp}
    3d98:	7900009a 	stmdbvc	r0, {r1, r3, r4, r7}
    3d9c:	09000000 	stmdbeq	r0, {}	; <UNPREDICTABLE>
    3da0:	00009aa4 	andeq	r9, r0, r4, lsr #21
    3da4:	000000a2 	andeq	r0, r0, r2, lsr #1
    3da8:	009aac0a 	addseq	sl, sl, sl, lsl #24
    3dac:	00018d00 	andeq	r8, r1, r0, lsl #26
    3db0:	00013a00 	andeq	r3, r1, r0, lsl #20
    3db4:	50010b00 	andpl	r0, r1, r0, lsl #22
    3db8:	0a004e01 	beq	175c4 <__bss_end__+0xcab4>
    3dbc:	00009ab8 			; <UNDEFINED> instruction: 0x00009ab8
    3dc0:	0000019e 	muleq	r0, lr, r1
    3dc4:	0000015a 	andeq	r0, r0, sl, asr r1
    3dc8:	0551010b 	ldrbeq	r0, [r1, #-267]	; 0x10b
    3dcc:	0000010c 	andeq	r0, r0, ip, lsl #2
    3dd0:	50010b5a 	andpl	r0, r1, sl, asr fp
    3dd4:	00240c05 	eoreq	r0, r4, r5, lsl #24
    3dd8:	0c002010 	stceq	0, cr2, [r0], {16}
    3ddc:	00009ac4 	andeq	r9, r0, r4, asr #21
    3de0:	0000019e 	muleq	r0, lr, r1
    3de4:	0551010b 	ldrbeq	r0, [r1, #-267]	; 0x10b
    3de8:	0000200c 	andeq	r2, r0, ip
    3dec:	50010b5a 	andpl	r0, r1, sl, asr fp
    3df0:	001c0c05 	andseq	r0, ip, r5, lsl #24
    3df4:	00002010 	andeq	r2, r0, r0, lsl r0
    3df8:	0000250d 	andeq	r2, r0, sp, lsl #10
    3dfc:	09330800 	ldmdbeq	r3!, {fp}
    3e00:	0d010000 	stceq	0, cr0, [r1, #-0]
    3e04:	00000188 	andeq	r0, r0, r8, lsl #3
    3e08:	002c0d10 	eoreq	r0, ip, r0, lsl sp
    3e0c:	1d0e0000 	stcne	0, cr0, [lr, #-0]
    3e10:	02000007 	andeq	r0, r0, #7
    3e14:	00019e4f 	andeq	r9, r1, pc, asr #28
    3e18:	002c0f00 	eoreq	r0, ip, r0, lsl #30
    3e1c:	10000000 	andne	r0, r0, r0
    3e20:	000008fe 	strdeq	r0, [r0], -lr
    3e24:	2c0f9b02 	stccs	11, cr9, [pc], {2}
    3e28:	0f000000 	svceq	0x00000000
    3e2c:	0000002c 	andeq	r0, r0, ip, lsr #32
    3e30:	01f70000 	mvnseq	r0, r0
    3e34:	00040000 	andeq	r0, r4, r0
    3e38:	00001346 	andeq	r1, r0, r6, asr #6
    3e3c:	05530104 	ldrbeq	r0, [r3, #-260]	; 0x104
    3e40:	b2010000 	andlt	r0, r1, #0
    3e44:	be000009 	cdplt	0, 0, cr0, cr0, cr9, {0}
    3e48:	d8000005 	stmdale	r0, {r0, r2}
    3e4c:	9800009a 	stmdals	r0, {r1, r3, r4, r7}
    3e50:	62000000 	andvs	r0, r0, #0
    3e54:	02000010 	andeq	r0, r0, #16
    3e58:	6e690504 	cdpvs	5, 6, cr0, cr9, cr4, {0}
    3e5c:	04030074 	streq	r0, [r3], #-116	; 0x74
    3e60:	00008f07 	andeq	r8, r0, r7, lsl #30
    3e64:	06010300 	streq	r0, [r1], -r0, lsl #6
    3e68:	0000016f 	andeq	r0, r0, pc, ror #2
    3e6c:	92050203 	andls	r0, r5, #805306368	; 0x30000000
    3e70:	03000001 	movweq	r0, #1
    3e74:	00a10504 	adceq	r0, r1, r4, lsl #10
    3e78:	08030000 	stmdaeq	r3, {}	; <UNPREDICTABLE>
    3e7c:	00009c05 	andeq	r9, r0, r5, lsl #24
    3e80:	08010300 	stmdaeq	r1, {r8, r9}
    3e84:	0000016d 	andeq	r0, r0, sp, ror #2
    3e88:	e1070203 	tst	r7, r3, lsl #4
    3e8c:	03000000 	movweq	r0, #0
    3e90:	008a0704 	addeq	r0, sl, r4, lsl #14
    3e94:	08030000 	stmdaeq	r3, {}	; <UNPREDICTABLE>
    3e98:	00008507 	andeq	r8, r0, r7, lsl #10
    3e9c:	07040300 	streq	r0, [r4, -r0, lsl #6]
    3ea0:	00000112 	andeq	r0, r0, r2, lsl r1
    3ea4:	76080103 	strvc	r0, [r8], -r3, lsl #2
    3ea8:	04000001 	streq	r0, [r0], #-1
    3eac:	000009d0 	ldrdeq	r0, [r0], -r0	; <UNPREDICTABLE>
    3eb0:	9ad80501 	bls	ff6052bc <__bss_end__+0xff5fa7ac>
    3eb4:	001c0000 	andseq	r0, ip, r0
    3eb8:	9c010000 	stcls	0, cr0, [r1], {-0}
    3ebc:	0000009e 	muleq	r0, lr, r0
    3ec0:	0009ca05 	andeq	ip, r9, r5, lsl #20
    3ec4:	2c050100 	stfcss	f0, [r5], {-0}
    3ec8:	8f000000 	svchi	0x00000000
    3ecc:	0000000f 	andeq	r0, r0, pc
    3ed0:	00099506 	andeq	r9, r9, r6, lsl #10
    3ed4:	2c110100 	ldfcss	f0, [r1], {-0}
    3ed8:	f4000000 	vst4.8	{d0-d3}, [r0], r0
    3edc:	1400009a 	strne	r0, [r0], #-154	; 0x9a
    3ee0:	01000000 	mrseq	r0, (UNDEF: 0)
    3ee4:	0000cb9c 	muleq	r0, ip, fp
    3ee8:	9b000700 	blls	5af0 <__code_start__-0x2510>
    3eec:	01de0000 	bicseq	r0, lr, r0
    3ef0:	01080000 	mrseq	r0, (UNDEF: 8)
    3ef4:	040c0550 	streq	r0, [ip], #-1360	; 0x550
    3ef8:	00200030 	eoreq	r0, r0, r0, lsr r0
    3efc:	09e60600 	stmibeq	r6!, {r9, sl}^
    3f00:	16010000 	strne	r0, [r1], -r0
    3f04:	0000002c 	andeq	r0, r0, ip, lsr #32
    3f08:	00009b08 	andeq	r9, r0, r8, lsl #22
    3f0c:	0000001c 	andeq	r0, r0, ip, lsl r0
    3f10:	010d9c01 	tsteq	sp, r1, lsl #24
    3f14:	75090000 	strvc	r0, [r9, #-0]
    3f18:	2c1a0100 	ldfcss	f0, [sl], {-0}
    3f1c:	c3000000 	movwgt	r0, #0
    3f20:	0a00000f 	beq	3f64 <__code_start__-0x409c>
    3f24:	00009b10 	andeq	r9, r0, r0, lsl fp
    3f28:	000001f3 	strdeq	r0, [r0], -r3
    3f2c:	009b140a 	addseq	r1, fp, sl, lsl #8
    3f30:	00009e00 	andeq	r9, r0, r0, lsl #28
    3f34:	9b1c0a00 	blls	70673c <__bss_end__+0x6fbc2c>
    3f38:	01f30000 	mvnseq	r0, r0
    3f3c:	04000000 	streq	r0, [r0], #-0
    3f40:	000009dd 	ldrdeq	r0, [r0], -sp
    3f44:	9b241f01 	blls	90bb50 <__bss_end__+0x901040>
    3f48:	00240000 	eoreq	r0, r4, r0
    3f4c:	9c010000 	stcls	0, cr0, [r1], {-0}
    3f50:	0000016b 	andeq	r0, r0, fp, ror #2
    3f54:	0073750b 	rsbseq	r7, r3, fp, lsl #10
    3f58:	002c1f01 	eoreq	r1, ip, r1, lsl #30
    3f5c:	0fe10000 	svceq	0x00e10000
    3f60:	720c0000 	andvc	r0, ip, #0
    3f64:	20010062 	andcs	r0, r1, r2, rrx
    3f68:	0000002c 	andeq	r0, r0, ip, lsr #32
    3f6c:	340d5401 	strcc	r5, [sp], #-1025	; 0x401
    3f70:	1000009b 	mulne	r0, fp, r0
    3f74:	61000000 	mrsvs	r0, (UNDEF: 0)
    3f78:	09000001 	stmdbeq	r0, {r0}
    3f7c:	01006172 	tsteq	r0, r2, ror r1
    3f80:	00002c22 	andeq	r2, r0, r2, lsr #24
    3f84:	000fff00 	andeq	pc, pc, r0, lsl #30
    3f88:	9b380a00 	blls	e06790 <__bss_end__+0xdfbc80>
    3f8c:	00cb0000 	sbceq	r0, fp, r0
    3f90:	0a000000 	beq	3f98 <__code_start__-0x4068>
    3f94:	00009b30 	andeq	r9, r0, r0, lsr fp
    3f98:	000000cb 	andeq	r0, r0, fp, asr #1
    3f9c:	071d0400 	ldreq	r0, [sp, -r0, lsl #8]
    3fa0:	28010000 	stmdacs	r1, {}	; <UNPREDICTABLE>
    3fa4:	00009b48 	andeq	r9, r0, r8, asr #22
    3fa8:	00000014 	andeq	r0, r0, r4, lsl r0
    3fac:	01a49c01 			; <UNDEFINED> instruction: 0x01a49c01
    3fb0:	6d0b0000 	stcvs	0, cr0, [fp, #-0]
    3fb4:	28010073 	stmdacs	r1, {r0, r1, r4, r5, r6}
    3fb8:	0000002c 	andeq	r0, r0, ip, lsr #32
    3fbc:	00001012 	andeq	r1, r0, r2, lsl r0
    3fc0:	009b5807 	addseq	r5, fp, r7, lsl #16
    3fc4:	00010d00 	andeq	r0, r1, r0, lsl #26
    3fc8:	50010800 	andpl	r0, r1, r0, lsl #16
    3fcc:	5001f307 	andpl	pc, r1, r7, lsl #6
    3fd0:	1e03e80a 	cdpne	8, 0, cr14, cr3, cr10, {0}
    3fd4:	a8040000 	stmdage	r4, {}	; <UNPREDICTABLE>
    3fd8:	01000009 	tsteq	r0, r9
    3fdc:	009b5c2b 	addseq	r5, fp, fp, lsr #24
    3fe0:	00001400 	andeq	r1, r0, r0, lsl #8
    3fe4:	de9c0100 	fmllee	f0, f4, f0
    3fe8:	0b000001 	bleq	3ff4 <__code_start__-0x400c>
    3fec:	00636573 	rsbeq	r6, r3, r3, ror r5
    3ff0:	002c2b01 	eoreq	r2, ip, r1, lsl #22
    3ff4:	10330000 	eorsne	r0, r3, r0
    3ff8:	6c070000 	stcvs	0, cr0, [r7], {-0}
    3ffc:	6b00009b 	blvs	4270 <__code_start__-0x3d90>
    4000:	08000001 	stmdaeq	r0, {r0}
    4004:	f3075001 	vhadd.u8	d5, d7, d1
    4008:	e80a5001 	stmda	sl, {r0, ip, lr}
    400c:	00001e03 	andeq	r1, r0, r3, lsl #28
    4010:	0009c40e 	andeq	ip, r9, lr, lsl #8
    4014:	2ca70200 	sfmcs	f0, 4, [r7]
    4018:	f3000000 	vhadd.u8	d0, d0, d0
    401c:	0f000001 	svceq	0x00000001
    4020:	0000002c 	andeq	r0, r0, ip, lsr #32
    4024:	08d01000 	ldmeq	r0, {ip}^
    4028:	89020000 	stmdbhi	r2, {}	; <UNPREDICTABLE>
    402c:	000cc500 	andeq	ip, ip, r0, lsl #10
    4030:	3c000400 	cfstrscc	mvf0, [r0], {-0}
    4034:	04000014 	streq	r0, [r0], #-20
    4038:	000d9101 	andeq	r9, sp, r1, lsl #2
    403c:	0af40c00 	beq	ffd07044 <__bss_end__+0xffcfc534>
    4040:	0b0f0000 	bleq	3c4048 <__bss_end__+0x3b9538>
    4044:	9bd40000 	blls	ff50404c <__bss_end__+0xff4f953c>
    4048:	01780000 	cmneq	r8, r0
    404c:	11140000 	tstne	r4, r0
    4050:	04020000 	streq	r0, [r2], #-0
    4054:	746e6905 	strbtvc	r6, [lr], #-2309	; 0x905
    4058:	07040300 	streq	r0, [r4, -r0, lsl #6]
    405c:	0000008f 	andeq	r0, r0, pc, lsl #1
    4060:	00002c04 	andeq	r2, r0, r4, lsl #24
    4064:	06010300 	streq	r0, [r1], -r0, lsl #6
    4068:	0000016f 	andeq	r0, r0, pc, ror #2
    406c:	92050203 	andls	r0, r5, #805306368	; 0x30000000
    4070:	03000001 	movweq	r0, #1
    4074:	00a10504 	adceq	r0, r1, r4, lsl #10
    4078:	08030000 	stmdaeq	r3, {}	; <UNPREDICTABLE>
    407c:	00009c05 	andeq	r9, r0, r5, lsl #24
    4080:	08010300 	stmdaeq	r1, {r8, r9}
    4084:	0000016d 	andeq	r0, r0, sp, ror #2
    4088:	e1070203 	tst	r7, r3, lsl #4
    408c:	03000000 	movweq	r0, #0
    4090:	008a0704 	addeq	r0, sl, r4, lsl #14
    4094:	08030000 	stmdaeq	r3, {}	; <UNPREDICTABLE>
    4098:	00008507 	andeq	r8, r0, r7, lsl #10
    409c:	0ca60500 	cfstr32eq	mvfx0, [r6]
    40a0:	07020000 	streq	r0, [r2, -r0]
    40a4:	00000025 	andeq	r0, r0, r5, lsr #32
    40a8:	000c9005 	andeq	r9, ip, r5
    40ac:	462c0300 	strtmi	r0, [ip], -r0, lsl #6
    40b0:	05000000 	streq	r0, [r0, #-0]
    40b4:	00000d6c 	andeq	r0, r0, ip, ror #26
    40b8:	00467203 	subeq	r7, r6, r3, lsl #4
    40bc:	34060000 	strcc	r0, [r6], #-0
    40c0:	0400000c 	streq	r0, [r0], #-12
    40c4:	002c0165 	eoreq	r0, ip, r5, ror #2
    40c8:	04070000 	streq	r0, [r7], #-0
    40cc:	00bca603 	adcseq	sl, ip, r3, lsl #12
    40d0:	1f080000 	svcne	0x00080000
    40d4:	0300000c 	movweq	r0, #12
    40d8:	000091a8 	andeq	r9, r0, r8, lsr #3
    40dc:	0bc70800 	bleq	ff1c60e4 <__bss_end__+0xff1bb5d4>
    40e0:	a9030000 	stmdbge	r3, {}	; <UNPREDICTABLE>
    40e4:	000000bc 	strheq	r0, [r0], -ip
    40e8:	00540900 	subseq	r0, r4, r0, lsl #18
    40ec:	00cc0000 	sbceq	r0, ip, r0
    40f0:	cc0a0000 	stcgt	0, cr0, [sl], {-0}
    40f4:	03000000 	movweq	r0, #0
    40f8:	07040300 	streq	r0, [r4, -r0, lsl #6]
    40fc:	00000112 	andeq	r0, r0, r2, lsl r1
    4100:	a303080b 	movwge	r0, #14347	; 0x380b
    4104:	000000f4 	strdeq	r0, [r0], -r4
    4108:	000d510c 	andeq	r5, sp, ip, lsl #2
    410c:	25a50300 	strcs	r0, [r5, #768]!	; 0x300
    4110:	00000000 	andeq	r0, r0, r0
    4114:	000d590c 	andeq	r5, sp, ip, lsl #18
    4118:	9daa0300 	stcls	3, cr0, [sl]
    411c:	04000000 	streq	r0, [r0], #-0
    4120:	0ce40500 	cfstr64eq	mvdx0, [r4]
    4124:	ab030000 	blge	c412c <__bss_end__+0xb961c>
    4128:	000000d3 	ldrdeq	r0, [r0], -r3
    412c:	000b9005 	andeq	r9, fp, r5
    4130:	70af0300 	adcvc	r0, pc, r0, lsl #6
    4134:	0d000000 	stceq	0, cr0, [r0, #-0]
    4138:	12040e04 	andne	r0, r4, #4, 28	; 0x40
    413c:	03000001 	movweq	r0, #1
    4140:	01760801 	cmneq	r6, r1, lsl #16
    4144:	120f0000 	andne	r0, pc, #0
    4148:	05000001 	streq	r0, [r0, #-1]
    414c:	00000e0e 	andeq	r0, r0, lr, lsl #28
    4150:	00621605 	rsbeq	r1, r2, r5, lsl #12
    4154:	a1100000 	tstge	r0, r0
    4158:	1800000b 	stmdane	r0, {r0, r1, r3}
    415c:	017c2d05 	cmneq	ip, r5, lsl #26
    4160:	050c0000 	streq	r0, [ip, #-0]
    4164:	0500000d 	streq	r0, [r0, #-13]
    4168:	00017c2f 	andeq	r7, r1, pc, lsr #24
    416c:	5f110000 	svcpl	0x00110000
    4170:	3005006b 	andcc	r0, r5, fp, rrx
    4174:	00000025 	andeq	r0, r0, r5, lsr #32
    4178:	0d3c0c04 	ldceq	12, cr0, [ip, #-16]!
    417c:	30050000 	andcc	r0, r5, r0
    4180:	00000025 	andeq	r0, r0, r5, lsr #32
    4184:	0b7c0c08 	bleq	1f071ac <__bss_end__+0x1efc69c>
    4188:	30050000 	andcc	r0, r5, r0
    418c:	00000025 	andeq	r0, r0, r5, lsr #32
    4190:	0e550c0c 	cdpeq	12, 5, cr0, cr5, cr12, {0}
    4194:	30050000 	andcc	r0, r5, r0
    4198:	00000025 	andeq	r0, r0, r5, lsr #32
    419c:	785f1110 	ldmdavc	pc, {r4, r8, ip}^	; <UNPREDICTABLE>
    41a0:	82310500 	eorshi	r0, r1, #0, 10
    41a4:	14000001 	strne	r0, [r0], #-1
    41a8:	29040e00 	stmdbcs	r4, {r9, sl, fp}
    41ac:	09000001 	stmdbeq	r0, {r0}
    41b0:	0000011e 	andeq	r0, r0, lr, lsl r1
    41b4:	00000192 	muleq	r0, r2, r1
    41b8:	0000cc0a 	andeq	ip, r0, sl, lsl #24
    41bc:	10000000 	andne	r0, r0, r0
    41c0:	00000bc2 	andeq	r0, r0, r2, asr #23
    41c4:	0b350524 	bleq	d4565c <__bss_end__+0xd3ab4c>
    41c8:	0c000002 	stceq	0, cr0, [r0], {2}
    41cc:	00000a7a 	andeq	r0, r0, sl, ror sl
    41d0:	00253705 	eoreq	r3, r5, r5, lsl #14
    41d4:	0c000000 	stceq	0, cr0, [r0], {-0}
    41d8:	00000d74 	andeq	r0, r0, r4, ror sp
    41dc:	00253805 	eoreq	r3, r5, r5, lsl #16
    41e0:	0c040000 	stceq	0, cr0, [r4], {-0}
    41e4:	00000aa8 	andeq	r0, r0, r8, lsr #21
    41e8:	00253905 	eoreq	r3, r5, r5, lsl #18
    41ec:	0c080000 	stceq	0, cr0, [r8], {-0}
    41f0:	00000f45 	andeq	r0, r0, r5, asr #30
    41f4:	00253a05 	eoreq	r3, r5, r5, lsl #20
    41f8:	0c0c0000 	stceq	0, cr0, [ip], {-0}
    41fc:	00000c74 	andeq	r0, r0, r4, ror ip
    4200:	00253b05 	eoreq	r3, r5, r5, lsl #22
    4204:	0c100000 	ldceq	0, cr0, [r0], {-0}
    4208:	00000c49 	andeq	r0, r0, r9, asr #24
    420c:	00253c05 	eoreq	r3, r5, r5, lsl #24
    4210:	0c140000 	ldceq	0, cr0, [r4], {-0}
    4214:	00000e5a 	andeq	r0, r0, sl, asr lr
    4218:	00253d05 	eoreq	r3, r5, r5, lsl #26
    421c:	0c180000 	ldceq	0, cr0, [r8], {-0}
    4220:	00000cc6 	andeq	r0, r0, r6, asr #25
    4224:	00253e05 	eoreq	r3, r5, r5, lsl #28
    4228:	0c1c0000 	ldceq	0, cr0, [ip], {-0}
    422c:	00000f0c 	andeq	r0, r0, ip, lsl #30
    4230:	00253f05 	eoreq	r3, r5, r5, lsl #30
    4234:	00200000 	eoreq	r0, r0, r0
    4238:	000ab712 	andeq	fp, sl, r2, lsl r7
    423c:	05010800 	streq	r0, [r1, #-2048]	; 0x800
    4240:	00024b48 	andeq	r4, r2, r8, asr #22
    4244:	0b630c00 	bleq	18c724c <__bss_end__+0x18bc73c>
    4248:	49050000 	stmdbmi	r5, {}	; <UNPREDICTABLE>
    424c:	0000024b 	andeq	r0, r0, fp, asr #4
    4250:	09f50c00 	ldmibeq	r5!, {sl, fp}^
    4254:	4a050000 	bmi	14425c <__bss_end__+0x13974c>
    4258:	0000024b 	andeq	r0, r0, fp, asr #4
    425c:	0e001380 	cdpeq	3, 0, cr1, cr0, cr0, {4}
    4260:	4c050000 	stcmi	0, cr0, [r5], {-0}
    4264:	0000011e 	andeq	r0, r0, lr, lsl r1
    4268:	dc130100 	ldfles	f0, [r3], {-0}
    426c:	0500000a 	streq	r0, [r0, #-10]
    4270:	00011e4f 	andeq	r1, r1, pc, asr #28
    4274:	00010400 	andeq	r0, r1, r0, lsl #8
    4278:	00010a09 	andeq	r0, r1, r9, lsl #20
    427c:	00025b00 	andeq	r5, r2, r0, lsl #22
    4280:	00cc0a00 	sbceq	r0, ip, r0, lsl #20
    4284:	001f0000 	andseq	r0, pc, r0
    4288:	000c7d12 	andeq	r7, ip, r2, lsl sp
    428c:	05019000 	streq	r9, [r1, #-0]
    4290:	0002995b 	andeq	r9, r2, fp, asr r9
    4294:	0d050c00 	stceq	12, cr0, [r5, #-0]
    4298:	5c050000 	stcpl	0, cr0, [r5], {-0}
    429c:	00000299 	muleq	r0, r9, r2
    42a0:	0d1d0c00 	ldceq	12, cr0, [sp, #-0]
    42a4:	5d050000 	stcpl	0, cr0, [r5, #-0]
    42a8:	00000025 	andeq	r0, r0, r5, lsr #32
    42ac:	0b770c04 	bleq	1dc72c4 <__bss_end__+0x1dbc7b4>
    42b0:	5f050000 	svcpl	0x00050000
    42b4:	0000029f 	muleq	r0, pc, r2	; <UNPREDICTABLE>
    42b8:	0ab70c08 	beq	fedc72e0 <__bss_end__+0xfedbc7d0>
    42bc:	60050000 	andvs	r0, r5, r0
    42c0:	0000020b 	andeq	r0, r0, fp, lsl #4
    42c4:	040e0088 	streq	r0, [lr], #-136	; 0x88
    42c8:	0000025b 	andeq	r0, r0, fp, asr r2
    42cc:	0002af09 	andeq	sl, r2, r9, lsl #30
    42d0:	0002af00 	andeq	sl, r2, r0, lsl #30
    42d4:	00cc0a00 	sbceq	r0, ip, r0, lsl #20
    42d8:	001f0000 	andseq	r0, pc, r0
    42dc:	02b5040e 	adcseq	r0, r5, #234881024	; 0xe000000
    42e0:	10140000 	andsne	r0, r4, r0
    42e4:	00000cd0 	ldrdeq	r0, [r0], -r0	; <UNPREDICTABLE>
    42e8:	db730508 	blle	1cc5710 <__bss_end__+0x1cbac00>
    42ec:	0c000002 	stceq	0, cr0, [r0], {2}
    42f0:	00000a9d 	muleq	r0, sp, sl
    42f4:	02db7405 	sbcseq	r7, fp, #83886080	; 0x5000000
    42f8:	0c000000 	stceq	0, cr0, [r0], {-0}
    42fc:	00000a01 	andeq	r0, r0, r1, lsl #20
    4300:	00257505 	eoreq	r7, r5, r5, lsl #10
    4304:	00040000 	andeq	r0, r4, r0
    4308:	0054040e 	subseq	r0, r4, lr, lsl #8
    430c:	ef100000 	svc	0x00100000
    4310:	6800000c 	stmdavs	r0, {r2, r3}
    4314:	040bb305 	streq	fp, [fp], #-773	; 0x305
    4318:	5f110000 	svcpl	0x00110000
    431c:	b4050070 	strlt	r0, [r5], #-112	; 0x70
    4320:	000002db 	ldrdeq	r0, [r0], -fp
    4324:	725f1100 	subsvc	r1, pc, #0, 2
    4328:	25b50500 	ldrcs	r0, [r5, #1280]!	; 0x500
    432c:	04000000 	streq	r0, [r0], #-0
    4330:	00775f11 	rsbseq	r5, r7, r1, lsl pc
    4334:	0025b605 	eoreq	fp, r5, r5, lsl #12
    4338:	0c080000 	stceq	0, cr0, [r8], {-0}
    433c:	00000ad5 	ldrdeq	r0, [r0], -r5
    4340:	003fb705 	eorseq	fp, pc, r5, lsl #14
    4344:	0c0c0000 	stceq	0, cr0, [ip], {-0}
    4348:	00000be8 	andeq	r0, r0, r8, ror #23
    434c:	003fb805 	eorseq	fp, pc, r5, lsl #16
    4350:	110e0000 	mrsne	r0, (UNDEF: 14)
    4354:	0066625f 	rsbeq	r6, r6, pc, asr r2
    4358:	02b6b905 	adcseq	fp, r6, #81920	; 0x14000
    435c:	0c100000 	ldceq	0, cr0, [r0], {-0}
    4360:	00000a44 	andeq	r0, r0, r4, asr #20
    4364:	0025ba05 	eoreq	fp, r5, r5, lsl #20
    4368:	0c180000 	ldceq	0, cr0, [r8], {-0}
    436c:	00000ac5 	andeq	r0, r0, r5, asr #21
    4370:	010ac105 	tsteq	sl, r5, lsl #2
    4374:	0c1c0000 	ldceq	0, cr0, [ip], {-0}
    4378:	00000f6c 	andeq	r0, r0, ip, ror #30
    437c:	0566c305 	strbeq	ip, [r6, #-773]!	; 0x305
    4380:	0c200000 	stceq	0, cr0, [r0], #-0
    4384:	00000f86 	andeq	r0, r0, r6, lsl #31
    4388:	0590c505 	ldreq	ip, [r0, #1285]	; 0x505
    438c:	0c240000 	stceq	0, cr0, [r4], #-0
    4390:	00000d61 	andeq	r0, r0, r1, ror #26
    4394:	05b4c805 	ldreq	ip, [r4, #2053]!	; 0x805
    4398:	0c280000 	stceq	0, cr0, [r8], #-0
    439c:	00000f26 	andeq	r0, r0, r6, lsr #30
    43a0:	05cec905 	strbeq	ip, [lr, #2309]	; 0x905
    43a4:	112c0000 	teqne	ip, r0
    43a8:	0062755f 	rsbeq	r7, r2, pc, asr r5
    43ac:	02b6cc05 	adcseq	ip, r6, #1280	; 0x500
    43b0:	11300000 	teqne	r0, r0
    43b4:	0070755f 	rsbseq	r7, r0, pc, asr r5
    43b8:	02dbcd05 	sbcseq	ip, fp, #320	; 0x140
    43bc:	11380000 	teqne	r8, r0
    43c0:	0072755f 	rsbseq	r7, r2, pc, asr r5
    43c4:	0025ce05 	eoreq	ip, r5, r5, lsl #28
    43c8:	0c3c0000 	ldceq	0, cr0, [ip], #-0
    43cc:	00000a88 	andeq	r0, r0, r8, lsl #21
    43d0:	05d4d105 	ldrbeq	sp, [r4, #261]	; 0x105
    43d4:	0c400000 	mareq	acc0, r0, r0
    43d8:	00000ed1 	ldrdeq	r0, [r0], -r1
    43dc:	05e4d205 	strbeq	sp, [r4, #517]!	; 0x205
    43e0:	11430000 	mrsne	r0, (UNDEF: 67)
    43e4:	00626c5f 	rsbeq	r6, r2, pc, asr ip
    43e8:	02b6d505 	adcseq	sp, r6, #20971520	; 0x1400000
    43ec:	0c440000 	mareq	acc0, r0, r4
    43f0:	00000aeb 	andeq	r0, r0, fp, ror #21
    43f4:	0025d805 	eoreq	sp, r5, r5, lsl #16
    43f8:	0c4c0000 	mareq	acc0, r0, ip
    43fc:	00000c53 	andeq	r0, r0, r3, asr ip
    4400:	007bd905 	rsbseq	sp, fp, r5, lsl #18
    4404:	0c500000 	mraeq	r0, r0, acc0
    4408:	00000ebc 			; <UNDEFINED> instruction: 0x00000ebc
    440c:	0429dc05 	strteq	sp, [r9], #-3077	; 0xc05
    4410:	0c540000 	mraeq	r0, r4, acc0
    4414:	00000c3b 	andeq	r0, r0, fp, lsr ip
    4418:	00ffe005 	rscseq	lr, pc, r5
    441c:	0c580000 	mraeq	r0, r8, acc0
    4420:	00000cf7 	strdeq	r0, [r0], -r7
    4424:	00f4e205 	rscseq	lr, r4, r5, lsl #4
    4428:	0c5c0000 	mraeq	r0, ip, acc0
    442c:	00000c41 	andeq	r0, r0, r1, asr #24
    4430:	0025e305 	eoreq	lr, r5, r5, lsl #6
    4434:	00640000 	rsbeq	r0, r4, r0
    4438:	00002515 	andeq	r2, r0, r5, lsl r5
    443c:	00042900 	andeq	r2, r4, r0, lsl #18
    4440:	04291600 	strteq	r1, [r9], #-1536	; 0x600
    4444:	0a160000 	beq	58444c <__bss_end__+0x57993c>
    4448:	16000001 	strne	r0, [r0], -r1
    444c:	0000010c 	andeq	r0, r0, ip, lsl #2
    4450:	00002516 	andeq	r2, r0, r6, lsl r5
    4454:	040e0000 	streq	r0, [lr], #-0
    4458:	00000434 	andeq	r0, r0, r4, lsr r4
    445c:	0004290f 	andeq	r2, r4, pc, lsl #18
    4460:	0d441700 	stcleq	7, cr1, [r4, #-0]
    4464:	04280000 	strteq	r0, [r8], #-0
    4468:	66023805 	strvs	r3, [r2], -r5, lsl #16
    446c:	18000005 	stmdane	r0, {r0, r2}
    4470:	00000cbf 			; <UNDEFINED> instruction: 0x00000cbf
    4474:	25023a05 	strcs	r3, [r2, #-2565]	; 0xa05
    4478:	00000000 	andeq	r0, r0, r0
    447c:	000ae418 	andeq	lr, sl, r8, lsl r4
    4480:	023f0500 	eorseq	r0, pc, #0, 10
    4484:	0000063b 	andeq	r0, r0, fp, lsr r6
    4488:	0bd81804 	bleq	ff60a4a0 <__bss_end__+0xff5ff990>
    448c:	3f050000 	svccc	0x00050000
    4490:	00063b02 	andeq	r3, r6, r2, lsl #22
    4494:	99180800 	ldmdbls	r8, {fp}
    4498:	0500000b 	streq	r0, [r0, #-11]
    449c:	063b023f 			; <UNDEFINED> instruction: 0x063b023f
    44a0:	180c0000 	stmdane	ip, {}	; <UNPREDICTABLE>
    44a4:	00000d18 	andeq	r0, r0, r8, lsl sp
    44a8:	25024105 	strcs	r4, [r2, #-261]	; 0x105
    44ac:	10000000 	andne	r0, r0, r0
    44b0:	000a0f18 	andeq	r0, sl, r8, lsl pc
    44b4:	02420500 	subeq	r0, r2, #0, 10
    44b8:	0000081d 	andeq	r0, r0, sp, lsl r8
    44bc:	0e361814 	mrceq	8, 1, r1, cr6, cr4, {0}
    44c0:	44050000 	strmi	r0, [r5], #-0
    44c4:	00002502 	andeq	r2, r0, r2, lsl #10
    44c8:	22183000 	andscs	r3, r8, #0
    44cc:	0500000d 	streq	r0, [r0, #-13]
    44d0:	058a0245 	streq	r0, [sl, #581]	; 0x245
    44d4:	18340000 	ldmdane	r4!, {}	; <UNPREDICTABLE>
    44d8:	00000c85 	andeq	r0, r0, r5, lsl #25
    44dc:	25024705 	strcs	r4, [r2, #-1797]	; 0x705
    44e0:	38000000 	stmdacc	r0, {}	; <UNPREDICTABLE>
    44e4:	000d3218 	andeq	r3, sp, r8, lsl r2
    44e8:	02490500 	subeq	r0, r9, #0, 10
    44ec:	00000838 	andeq	r0, r0, r8, lsr r8
    44f0:	0c17183c 	ldceq	8, cr1, [r7], {60}	; 0x3c
    44f4:	4c050000 	stcmi	0, cr0, [r5], {-0}
    44f8:	00017c02 	andeq	r7, r1, r2, lsl #24
    44fc:	b8184000 	ldmdalt	r8, {lr}
    4500:	0500000b 	streq	r0, [r0, #-11]
    4504:	0025024d 	eoreq	r0, r5, sp, asr #4
    4508:	18440000 	stmdane	r4, {}^	; <UNPREDICTABLE>
    450c:	00000f40 	andeq	r0, r0, r0, asr #30
    4510:	7c024e05 	stcvc	14, cr4, [r2], {5}
    4514:	48000001 	stmdami	r0, {r0}
    4518:	000c9c18 	andeq	r9, ip, r8, lsl ip
    451c:	024f0500 	subeq	r0, pc, #0, 10
    4520:	0000083e 	andeq	r0, r0, lr, lsr r8
    4524:	0be0184c 	bleq	ff80a65c <__bss_end__+0xff7ffb4c>
    4528:	52050000 	andpl	r0, r5, #0
    452c:	00002502 	andeq	r2, r0, r2, lsl #10
    4530:	07185000 	ldreq	r5, [r8, -r0]
    4534:	0500000b 	streq	r0, [r0, #-11]
    4538:	010c0253 	tsteq	ip, r3, asr r2
    453c:	18540000 	ldmdane	r4, {}^	; <UNPREDICTABLE>
    4540:	00000cb8 			; <UNDEFINED> instruction: 0x00000cb8
    4544:	fb027605 	blx	a1d62 <__bss_end__+0x97252>
    4548:	58000007 	stmdapl	r0, {r0, r1, r2}
    454c:	000c7d19 	andeq	r7, ip, r9, lsl sp
    4550:	027a0500 	rsbseq	r0, sl, #0, 10
    4554:	00000299 	muleq	r0, r9, r2
    4558:	f5190148 			; <UNDEFINED> instruction: 0xf5190148
    455c:	0500000b 	streq	r0, [r0, #-11]
    4560:	025b027b 	subseq	r0, fp, #-1342177273	; 0xb0000007
    4564:	014c0000 	mrseq	r0, (UNDEF: 76)
    4568:	000ea219 	andeq	sl, lr, r9, lsl r2
    456c:	027f0500 	rsbseq	r0, pc, #0, 10
    4570:	0000084f 	andeq	r0, r0, pc, asr #16
    4574:	cd1902dc 	lfmgt	f0, 4, [r9, #-880]	; 0xfffffc90
    4578:	0500000a 	streq	r0, [r0, #-10]
    457c:	06000284 	streq	r0, [r0], -r4, lsl #5
    4580:	02e00000 	rsceq	r0, r0, #0
    4584:	000ab219 	andeq	fp, sl, r9, lsl r2
    4588:	02850500 	addeq	r0, r5, #0, 10
    458c:	0000085b 	andeq	r0, r0, fp, asr r8
    4590:	0e0002ec 	cdpeq	2, 0, cr0, cr0, cr12, {7}
    4594:	00040b04 	andeq	r0, r4, r4, lsl #22
    4598:	00251500 	eoreq	r1, r5, r0, lsl #10
    459c:	058a0000 	streq	r0, [sl]
    45a0:	29160000 	ldmdbcs	r6, {}	; <UNPREDICTABLE>
    45a4:	16000004 	strne	r0, [r0], -r4
    45a8:	0000010a 	andeq	r0, r0, sl, lsl #2
    45ac:	00058a16 	andeq	r8, r5, r6, lsl sl
    45b0:	00251600 	eoreq	r1, r5, r0, lsl #12
    45b4:	0e000000 	cdpeq	0, 0, cr0, cr0, cr0, {0}
    45b8:	00011904 	andeq	r1, r1, r4, lsl #18
    45bc:	6c040e00 	stcvs	14, cr0, [r4], {-0}
    45c0:	15000005 	strne	r0, [r0, #-5]
    45c4:	00000086 	andeq	r0, r0, r6, lsl #1
    45c8:	000005b4 			; <UNDEFINED> instruction: 0x000005b4
    45cc:	00042916 	andeq	r2, r4, r6, lsl r9
    45d0:	010a1600 	tsteq	sl, r0, lsl #12
    45d4:	86160000 	ldrhi	r0, [r6], -r0
    45d8:	16000000 	strne	r0, [r0], -r0
    45dc:	00000025 	andeq	r0, r0, r5, lsr #32
    45e0:	96040e00 	strls	r0, [r4], -r0, lsl #28
    45e4:	15000005 	strne	r0, [r0, #-5]
    45e8:	00000025 	andeq	r0, r0, r5, lsr #32
    45ec:	000005ce 	andeq	r0, r0, lr, asr #11
    45f0:	00042916 	andeq	r2, r4, r6, lsl r9
    45f4:	010a1600 	tsteq	sl, r0, lsl #12
    45f8:	0e000000 	cdpeq	0, 0, cr0, cr0, cr0, {0}
    45fc:	0005ba04 	andeq	fp, r5, r4, lsl #20
    4600:	00540900 	subseq	r0, r4, r0, lsl #18
    4604:	05e40000 	strbeq	r0, [r4, #0]!
    4608:	cc0a0000 	stcgt	0, cr0, [sl], {-0}
    460c:	02000000 	andeq	r0, r0, #0
    4610:	00540900 	subseq	r0, r4, r0, lsl #18
    4614:	05f40000 	ldrbeq	r0, [r4, #0]!
    4618:	cc0a0000 	stcgt	0, cr0, [sl], {-0}
    461c:	00000000 	andeq	r0, r0, r0
    4620:	0cdd0600 	ldcleq	6, cr0, [sp], {0}
    4624:	1d050000 	stcne	0, cr0, [r5, #-0]
    4628:	0002e101 	andeq	lr, r2, r1, lsl #2
    462c:	0e641a00 	vmuleq.f32	s3, s8, s0
    4630:	050c0000 	streq	r0, [ip, #-0]
    4634:	06350121 	ldrteq	r0, [r5], -r1, lsr #2
    4638:	05180000 	ldreq	r0, [r8, #-0]
    463c:	0500000d 	streq	r0, [r0, #-13]
    4640:	06350123 	ldrteq	r0, [r5], -r3, lsr #2
    4644:	18000000 	stmdane	r0, {}	; <UNPREDICTABLE>
    4648:	00000bee 	andeq	r0, r0, lr, ror #23
    464c:	25012405 	strcs	r2, [r1, #-1029]	; 0x405
    4650:	04000000 	streq	r0, [r0], #-0
    4654:	000cd718 	andeq	sp, ip, r8, lsl r7
    4658:	01250500 	teqeq	r5, r0, lsl #10
    465c:	0000063b 	andeq	r0, r0, fp, lsr r6
    4660:	040e0008 	streq	r0, [lr], #-8
    4664:	00000600 	andeq	r0, r0, r0, lsl #12
    4668:	05f4040e 	ldrbeq	r0, [r4, #1038]!	; 0x40e
    466c:	071a0000 	ldreq	r0, [sl, -r0]
    4670:	0e00000a 	cdpeq	0, 0, cr0, cr0, cr10, {0}
    4674:	76013d05 	strvc	r3, [r1], -r5, lsl #26
    4678:	18000006 	stmdane	r0, {r1, r2}
    467c:	00000d4b 	andeq	r0, r0, fp, asr #26
    4680:	76013e05 	strvc	r3, [r1], -r5, lsl #28
    4684:	00000006 	andeq	r0, r0, r6
    4688:	000d8518 	andeq	r8, sp, r8, lsl r5
    468c:	013f0500 	teqeq	pc, r0, lsl #10
    4690:	00000676 	andeq	r0, r0, r6, ror r6
    4694:	0e091806 	cdpeq	8, 0, cr1, cr9, cr6, {0}
    4698:	40050000 	andmi	r0, r5, r0
    469c:	00005b01 	andeq	r5, r0, r1, lsl #22
    46a0:	09000c00 	stmdbeq	r0, {sl, fp}
    46a4:	0000005b 	andeq	r0, r0, fp, asr r0
    46a8:	00000686 	andeq	r0, r0, r6, lsl #13
    46ac:	0000cc0a 	andeq	ip, r0, sl, lsl #24
    46b0:	1b000200 	blne	4eb8 <__code_start__-0x3148>
    46b4:	025705d0 	subseq	r0, r7, #208, 10	; 0x34000000
    46b8:	00000787 	andeq	r0, r0, r7, lsl #15
    46bc:	000e4818 	andeq	r4, lr, r8, lsl r8
    46c0:	02590500 	subseq	r0, r9, #0, 10
    46c4:	0000002c 	andeq	r0, r0, ip, lsr #32
    46c8:	0df31800 	ldcleq	8, cr1, [r3]
    46cc:	5a050000 	bpl	1446d4 <__bss_end__+0x139bc4>
    46d0:	00010c02 	andeq	r0, r1, r2, lsl #24
    46d4:	0a180400 	beq	6056dc <__bss_end__+0x5fabcc>
    46d8:	0500000c 	streq	r0, [r0, #-12]
    46dc:	0787025b 			; <UNDEFINED> instruction: 0x0787025b
    46e0:	18080000 	stmdane	r8, {}	; <UNPREDICTABLE>
    46e4:	00000f17 	andeq	r0, r0, r7, lsl pc
    46e8:	92025c05 	andls	r5, r2, #1280	; 0x500
    46ec:	24000001 	strcs	r0, [r0], #-1
    46f0:	000ba918 	andeq	sl, fp, r8, lsl r9
    46f4:	025d0500 	subseq	r0, sp, #0, 10
    46f8:	00000025 	andeq	r0, r0, r5, lsr #32
    46fc:	0d001848 	stceq	8, cr1, [r0, #-288]	; 0xfffffee0
    4700:	5e050000 	cdppl	0, 0, cr0, cr5, cr0, {0}
    4704:	00006902 	andeq	r6, r0, r2, lsl #18
    4708:	2d185000 	ldccs	0, cr5, [r8, #-0]
    470c:	0500000f 	streq	r0, [r0, #-15]
    4710:	0641025f 			; <UNDEFINED> instruction: 0x0641025f
    4714:	18580000 	ldmdane	r8, {}^	; <UNPREDICTABLE>
    4718:	00000d0b 	andeq	r0, r0, fp, lsl #26
    471c:	f4026005 	vst4.8	{d6-d9}, [r2], r5
    4720:	68000000 	stmdavs	r0, {}	; <UNPREDICTABLE>
    4724:	000f3218 	andeq	r3, pc, r8, lsl r2	; <UNPREDICTABLE>
    4728:	02610500 	rsbeq	r0, r1, #0, 10
    472c:	000000f4 	strdeq	r0, [r0], -r4
    4730:	0a6c1870 	beq	1b0a8f8 <__bss_end__+0x1affde8>
    4734:	62050000 	andvs	r0, r5, #0
    4738:	0000f402 	andeq	pc, r0, r2, lsl #8
    473c:	84187800 	ldrhi	r7, [r8], #-2048	; 0x800
    4740:	0500000e 	streq	r0, [r0, #-14]
    4744:	07970263 	ldreq	r0, [r7, r3, ror #4]
    4748:	18800000 	stmne	r0, {}	; <UNPREDICTABLE>
    474c:	00000bfe 	strdeq	r0, [r0], -lr
    4750:	a7026405 	strge	r6, [r2, -r5, lsl #8]
    4754:	88000007 	stmdahi	r0, {r0, r1, r2}
    4758:	000e1618 	andeq	r1, lr, r8, lsl r6
    475c:	02650500 	rsbeq	r0, r5, #0, 10
    4760:	00000025 	andeq	r0, r0, r5, lsr #32
    4764:	0b5518a0 	bleq	154a9ec <__bss_end__+0x153fedc>
    4768:	66050000 	strvs	r0, [r5], -r0
    476c:	0000f402 	andeq	pc, r0, r2, lsl #8
    4770:	5d18a400 	cfldrspl	mvf10, [r8, #-0]
    4774:	0500000a 	streq	r0, [r0, #-10]
    4778:	00f40267 	rscseq	r0, r4, r7, ror #4
    477c:	18ac0000 	stmiane	ip!, {}	; <UNPREDICTABLE>
    4780:	00000b44 	andeq	r0, r0, r4, asr #22
    4784:	f4026805 	vst2.8	{d6-d7}, [r2], r5
    4788:	b4000000 	strlt	r0, [r0], #-0
    478c:	000a2418 	andeq	r2, sl, r8, lsl r4
    4790:	02690500 	rsbeq	r0, r9, #0, 10
    4794:	000000f4 	strdeq	r0, [r0], -r4
    4798:	0a3318bc 	beq	ccaa90 <__bss_end__+0xcbff80>
    479c:	6a050000 	bvs	1447a4 <__bss_end__+0x139c94>
    47a0:	0000f402 	andeq	pc, r0, r2, lsl #8
    47a4:	bd18c400 	cfldrslt	mvf12, [r8, #-0]
    47a8:	0500000c 	streq	r0, [r0, #-12]
    47ac:	0025026b 	eoreq	r0, r5, fp, ror #4
    47b0:	00cc0000 	sbceq	r0, ip, r0
    47b4:	00011209 	andeq	r1, r1, r9, lsl #4
    47b8:	00079700 	andeq	r9, r7, r0, lsl #14
    47bc:	00cc0a00 	sbceq	r0, ip, r0, lsl #20
    47c0:	00190000 	andseq	r0, r9, r0
    47c4:	00011209 	andeq	r1, r1, r9, lsl #4
    47c8:	0007a700 	andeq	sl, r7, r0, lsl #14
    47cc:	00cc0a00 	sbceq	r0, ip, r0, lsl #20
    47d0:	00070000 	andeq	r0, r7, r0
    47d4:	00011209 	andeq	r1, r1, r9, lsl #4
    47d8:	0007b700 	andeq	fp, r7, r0, lsl #14
    47dc:	00cc0a00 	sbceq	r0, ip, r0, lsl #20
    47e0:	00170000 	andseq	r0, r7, r0
    47e4:	7005f01b 	andvc	pc, r5, fp, lsl r0	; <UNPREDICTABLE>
    47e8:	0007db02 	andeq	sp, r7, r2, lsl #22
    47ec:	0c6d1800 	stcleq	8, cr1, [sp], #-0
    47f0:	73050000 	movwvc	r0, #20480	; 0x5000
    47f4:	0007db02 	andeq	sp, r7, r2, lsl #22
    47f8:	7b180000 	blvc	604800 <__bss_end__+0x5f9cf0>
    47fc:	0500000e 	streq	r0, [r0, #-14]
    4800:	07eb0274 			; <UNDEFINED> instruction: 0x07eb0274
    4804:	00780000 	rsbseq	r0, r8, r0
    4808:	0002db09 	andeq	sp, r2, r9, lsl #22
    480c:	0007eb00 	andeq	lr, r7, r0, lsl #22
    4810:	00cc0a00 	sbceq	r0, ip, r0, lsl #20
    4814:	001d0000 	andseq	r0, sp, r0
    4818:	00002c09 	andeq	r2, r0, r9, lsl #24
    481c:	0007fb00 	andeq	pc, r7, r0, lsl #22
    4820:	00cc0a00 	sbceq	r0, ip, r0, lsl #20
    4824:	001d0000 	andseq	r0, sp, r0
    4828:	5505f01c 	strpl	pc, [r5, #-28]
    482c:	00081d02 	andeq	r1, r8, r2, lsl #26
    4830:	0d441d00 	stcleq	13, cr1, [r4, #-0]
    4834:	6c050000 	stcvs	0, cr0, [r5], {-0}
    4838:	00068602 	andeq	r8, r6, r2, lsl #12
    483c:	0ed71d00 	cdpeq	13, 13, cr1, cr7, cr0, {0}
    4840:	75050000 	strvc	r0, [r5, #-0]
    4844:	0007b702 	andeq	fp, r7, r2, lsl #14
    4848:	12090000 	andne	r0, r9, #0
    484c:	2d000001 	stccs	0, cr0, [r0, #-4]
    4850:	0a000008 	beq	4878 <__code_start__-0x3788>
    4854:	000000cc 	andeq	r0, r0, ip, asr #1
    4858:	381e0018 	ldmdacc	lr, {r3, r4}
    485c:	16000008 	strne	r0, [r0], -r8
    4860:	00000429 	andeq	r0, r0, r9, lsr #8
    4864:	2d040e00 	stccs	14, cr0, [r4, #-0]
    4868:	0e000008 	cdpeq	0, 0, cr0, cr0, cr8, {0}
    486c:	00017c04 	andeq	r7, r1, r4, lsl #24
    4870:	084f1e00 	stmdaeq	pc, {r9, sl, fp, ip}^	; <UNPREDICTABLE>
    4874:	25160000 	ldrcs	r0, [r6, #-0]
    4878:	00000000 	andeq	r0, r0, r0
    487c:	0855040e 	ldmdaeq	r5, {r1, r2, r3, sl}^
    4880:	040e0000 	streq	r0, [lr], #-0
    4884:	00000844 	andeq	r0, r0, r4, asr #16
    4888:	0005f409 	andeq	pc, r5, r9, lsl #8
    488c:	00086b00 	andeq	r6, r8, r0, lsl #22
    4890:	00cc0a00 	sbceq	r0, ip, r0, lsl #20
    4894:	00020000 	andeq	r0, r2, r0
    4898:	000e2a1f 	andeq	r2, lr, pc, lsl sl
    489c:	02fd0500 	rscseq	r0, sp, #0, 10
    48a0:	00000429 	andeq	r0, r0, r9, lsr #8
    48a4:	000e231f 	andeq	r2, lr, pc, lsl r3
    48a8:	02fe0500 	rscseq	r0, lr, #0, 10
    48ac:	0000042f 	andeq	r0, r0, pc, lsr #8
    48b0:	00002515 	andeq	r2, r0, r5, lsl r5
    48b4:	00089200 	andeq	r9, r8, r0, lsl #4
    48b8:	00251600 	eoreq	r1, r5, r0, lsl #12
    48bc:	20000000 	andcs	r0, r0, r0
    48c0:	00000624 	andeq	r0, r0, r4, lsr #12
    48c4:	089d1d06 	ldmeq	sp, {r1, r2, r8, sl, fp, ip}
    48c8:	040e0000 	streq	r0, [lr], #-0
    48cc:	00000883 	andeq	r0, r0, r3, lsl #17
    48d0:	00002515 	andeq	r2, r0, r5, lsl r5
    48d4:	0008b200 	andeq	fp, r8, r0, lsl #4
    48d8:	058a1600 	streq	r1, [sl, #1536]	; 0x600
    48dc:	20000000 	andcs	r0, r0, r0
    48e0:	00000661 	andeq	r0, r0, r1, ror #12
    48e4:	08bd2206 	popeq	{r1, r2, r9, sp}
    48e8:	040e0000 	streq	r0, [lr], #-0
    48ec:	000008a3 	andeq	r0, r0, r3, lsr #17
    48f0:	00540121 	subseq	r0, r4, r1, lsr #2
    48f4:	0c080000 	stceq	0, cr0, [r8], {-0}
    48f8:	00000900 	andeq	r0, r0, r0, lsl #18
    48fc:	000a4d22 	andeq	r4, sl, r2, lsr #26
    4900:	6a220000 	bvs	884908 <__bss_end__+0x879df8>
    4904:	0100000e 	tsteq	r0, lr
    4908:	000ec222 	andeq	ip, lr, r2, lsr #4
    490c:	8e220400 	cdphi	4, 2, cr0, cr2, cr0, {0}
    4910:	0500000a 	streq	r0, [r0, #-10]
    4914:	000c2522 	andeq	r2, ip, r2, lsr #10
    4918:	df220600 	svcle	0x00220600
    491c:	0700000e 	streq	r0, [r0, -lr]
    4920:	000eee22 	andeq	lr, lr, r2, lsr #28
    4924:	fd220300 	stc2	3, cr0, [r2, #-0]
    4928:	0200000e 	andeq	r0, r0, #14
    492c:	0afb1000 	beq	ffec8934 <__bss_end__+0xffebde24>
    4930:	072c0000 	streq	r0, [ip, -r0]!
    4934:	00099006 	andeq	r9, r9, r6
    4938:	6f691100 	svcvs	0x00691100
    493c:	33090700 	movwcc	r0, #38656	; 0x9700
    4940:	00000000 	andeq	r0, r0, r0
    4944:	72656911 	rsbvc	r6, r5, #278528	; 0x44000
    4948:	330a0700 	movwcc	r0, #42752	; 0xa700
    494c:	04000000 	streq	r0, [r0], #-0
    4950:	72696911 	rsbvc	r6, r9, #278528	; 0x44000
    4954:	33110700 	tstcc	r1, #0, 14
    4958:	08000000 	stmdaeq	r0, {}	; <UNPREDICTABLE>
    495c:	72636c11 	rsbvc	r6, r3, #4352	; 0x1100
    4960:	33130700 	tstcc	r3, #0, 14
    4964:	0c000000 	stceq	0, cr0, [r0], {-0}
    4968:	72636d11 	rsbvc	r6, r3, #1088	; 0x440
    496c:	33140700 	tstcc	r4, #0, 14
    4970:	10000000 	andne	r0, r0, r0
    4974:	72736c11 	rsbsvc	r6, r3, #4352	; 0x1100
    4978:	33150700 	tstcc	r5, #0, 14
    497c:	14000000 	strne	r0, [r0], #-0
    4980:	72736d11 	rsbsvc	r6, r3, #1088	; 0x440
    4984:	33160700 	tstcc	r6, #0, 14
    4988:	18000000 	stmdane	r0, {}	; <UNPREDICTABLE>
    498c:	000d7d0c 	andeq	r7, sp, ip, lsl #26
    4990:	33170700 	tstcc	r7, #0, 14
    4994:	1c000000 	stcne	0, cr0, [r0], {-0}
    4998:	000aa30c 	andeq	sl, sl, ip, lsl #6
    499c:	331b0700 	tstcc	fp, #0, 14
    49a0:	20000000 	andcs	r0, r0, r0
    49a4:	000a830c 	andeq	r8, sl, ip, lsl #6
    49a8:	331d0700 	tstcc	sp, #0, 14
    49ac:	24000000 	strcs	r0, [r0], #-0
    49b0:	000d670c 	andeq	r6, sp, ip, lsl #14
    49b4:	331e0700 	tstcc	lr, #0, 14
    49b8:	28000000 	stmdacs	r0, {}	; <UNPREDICTABLE>
    49bc:	0b6b2300 	bleq	1acd5c4 <__bss_end__+0x1ac2ab4>
    49c0:	07010000 	streq	r0, [r1, -r0]
    49c4:	000009a5 	andeq	r0, r0, r5, lsr #19
    49c8:	20215004 	eorcs	r5, r1, r4
    49cc:	0033040e 	eorseq	r0, r3, lr, lsl #8
    49d0:	9f0f0000 	svcls	0x000f0000
    49d4:	23000009 	movwcs	r0, #9
    49d8:	00000c97 	muleq	r0, r7, ip
    49dc:	09bf2801 	ldmibeq	pc!, {r0, fp, sp}	; <UNPREDICTABLE>
    49e0:	50400000 	subpl	r0, r0, r0
    49e4:	040e2021 	streq	r2, [lr], #-33	; 0x21
    49e8:	00000900 	andeq	r0, r0, r0, lsl #18
    49ec:	0009b90f 	andeq	fp, r9, pc, lsl #18
    49f0:	0eb42400 	cdpeq	4, 11, cr2, cr4, cr0, {0}
    49f4:	a7010000 	strge	r0, [r1, -r0]
    49f8:	00000025 	andeq	r0, r0, r5, lsr #32
    49fc:	00009d3c 	andeq	r9, r0, ip, lsr sp
    4a00:	00000010 	andeq	r0, r0, r0, lsl r0
    4a04:	09f09c01 	ldmibeq	r0!, {r0, sl, fp, ip, pc}^
    4a08:	44250000 	strtmi	r0, [r5], #-0
    4a0c:	9c00009d 	stcls	0, cr0, [r0], {157}	; 0x9d
    4a10:	2500000c 	strcs	r0, [r0, #-12]
    4a14:	00009d48 	andeq	r9, r0, r8, asr #26
    4a18:	00000ad2 	ldrdeq	r0, [r0], -r2
    4a1c:	06092600 	streq	r2, [r9], -r0, lsl #12
    4a20:	9f010000 	svcls	0x00010000
    4a24:	00009d0c 	andeq	r9, r0, ip, lsl #26
    4a28:	00000030 	andeq	r0, r0, r0, lsr r0
    4a2c:	0a4e9c01 	beq	13aba38 <__bss_end__+0x13a0f28>
    4a30:	63270000 	teqvs	r7, #0
    4a34:	2c9f0100 	ldfcss	f0, [pc], {0}
    4a38:	54000000 	strpl	r0, [r0], #-0
    4a3c:	25000010 	strcs	r0, [r0, #-16]
    4a40:	00009d18 	andeq	r9, r0, r8, lsl sp
    4a44:	00000c9c 	muleq	r0, ip, ip
    4a48:	009d1c25 	addseq	r1, sp, r5, lsr #24
    4a4c:	000aa500 	andeq	sl, sl, r0, lsl #10
    4a50:	9d302800 	ldcls	8, cr2, [r0, #-0]
    4a54:	0ca70000 	stceq	0, cr0, [r7]
    4a58:	0a440000 	beq	1104a60 <__bss_end__+0x10f9f50>
    4a5c:	01290000 	teqeq	r9, r0
    4a60:	400c0550 	andmi	r0, ip, r0, asr r5
    4a64:	29202150 	stmdbcs	r0!, {r4, r6, r8, sp}
    4a68:	74055101 	strvc	r5, [r5], #-257	; 0x101
    4a6c:	1aff0800 	bne	fffc6a74 <__bss_end__+0xfffbbf64>
    4a70:	9d342500 	cfldr32ls	mvfx2, [r4, #-0]
    4a74:	0c9c0000 	ldceq	0, cr0, [ip], {0}
    4a78:	24000000 	strcs	r0, [r0], #-0
    4a7c:	00000bce 	andeq	r0, r0, lr, asr #23
    4a80:	00259701 	eoreq	r9, r5, r1, lsl #14
    4a84:	9cdc0000 	ldclls	0, cr0, [ip], {0}
    4a88:	00300000 	eorseq	r0, r0, r0
    4a8c:	9c010000 	stcls	0, cr0, [r1], {-0}
    4a90:	00000aa5 	andeq	r0, r0, r5, lsr #21
    4a94:	0100632a 	tsteq	r0, sl, lsr #6
    4a98:	0000259b 	muleq	r0, fp, r5
    4a9c:	25540100 	ldrbcs	r0, [r4, #-256]	; 0x100
    4aa0:	00009ce4 	andeq	r9, r0, r4, ror #25
    4aa4:	00000c9c 	muleq	r0, ip, ip
    4aa8:	009ce825 	addseq	lr, ip, r5, lsr #16
    4aac:	000ad200 	andeq	sp, sl, r0, lsl #4
    4ab0:	9cf82800 	ldclls	8, cr2, [r8]
    4ab4:	0cb20000 	ldceq	0, cr0, [r2]
    4ab8:	0a9b0000 	beq	fe6c4ac0 <__bss_end__+0xfe6b9fb0>
    4abc:	01290000 	teqeq	r9, r0
    4ac0:	400c0550 	andmi	r0, ip, r0, asr r5
    4ac4:	00202150 	eoreq	r2, r0, r0, asr r1
    4ac8:	009d0025 	addseq	r0, sp, r5, lsr #32
    4acc:	000c9c00 	andeq	r9, ip, r0, lsl #24
    4ad0:	82240000 	eorhi	r0, r4, #0
    4ad4:	0100000b 	tsteq	r0, fp
    4ad8:	00002588 	andeq	r2, r0, r8, lsl #11
    4adc:	009cbc00 	addseq	fp, ip, r0, lsl #24
    4ae0:	00002000 	andeq	r2, r0, r0
    4ae4:	d29c0100 	addsle	r0, ip, #0, 2
    4ae8:	2b00000a 	blcs	4b18 <__code_start__-0x34e8>
    4aec:	00009cc8 	andeq	r9, r0, r8, asr #25
    4af0:	00000cb2 			; <UNDEFINED> instruction: 0x00000cb2
    4af4:	05500129 	ldrbeq	r0, [r0, #-297]	; 0x129
    4af8:	2150640c 	cmpcs	r0, ip, lsl #8
    4afc:	24000020 	strcs	r0, [r0], #-32
    4b00:	00000e94 	muleq	r0, r4, lr
    4b04:	00257f01 	eoreq	r7, r5, r1, lsl #30
    4b08:	9ca40000 	stcls	0, cr0, [r4]
    4b0c:	00180000 	andseq	r0, r8, r0
    4b10:	9c010000 	stcls	0, cr0, [r1], {-0}
    4b14:	00000aff 	strdeq	r0, [r0], -pc	; <UNPREDICTABLE>
    4b18:	009cb02b 	addseq	fp, ip, fp, lsr #32
    4b1c:	000cb200 	andeq	fp, ip, r0, lsl #4
    4b20:	50012900 	andpl	r2, r1, r0, lsl #18
    4b24:	50640c05 	rsbpl	r0, r4, r5, lsl #24
    4b28:	00002021 	andeq	r2, r0, r1, lsr #32
    4b2c:	000a1a26 	andeq	r1, sl, r6, lsr #20
    4b30:	f43a0100 			; <UNDEFINED> instruction: 0xf43a0100
    4b34:	b000009b 	mullt	r0, fp, r0
    4b38:	01000000 	mrseq	r0, (UNDEF: 0)
    4b3c:	000c3d9c 	muleq	ip, ip, sp
    4b40:	9c042800 	stcls	8, cr2, [r4], {-0}
    4b44:	0cbd0000 	ldceq	0, cr0, [sp]
    4b48:	0b2c0000 	bleq	b04b50 <__bss_end__+0xafa040>
    4b4c:	01290000 	teqeq	r9, r0
    4b50:	293e0150 	ldmdbcs	lr!, {r4, r6, r8}
    4b54:	32015101 	andcc	r5, r1, #1073741824	; 0x40000000
    4b58:	9c102800 	ldcls	8, cr2, [r0], {-0}
    4b5c:	0cbd0000 	ldceq	0, cr0, [sp]
    4b60:	0b440000 	bleq	1104b68 <__bss_end__+0x10fa058>
    4b64:	01290000 	teqeq	r9, r0
    4b68:	293f0150 	ldmdbcs	pc!, {r4, r6, r8}	; <UNPREDICTABLE>
    4b6c:	32015101 	andcc	r5, r1, #1073741824	; 0x40000000
    4b70:	9c142500 	cfldr32ls	mvfx2, [r4], {-0}
    4b74:	0c9c0000 	ldceq	0, cr0, [ip], {0}
    4b78:	20280000 	eorcs	r0, r8, r0
    4b7c:	3d00009c 	stccc	0, cr0, [r0, #-624]	; 0xfffffd90
    4b80:	6900000c 	stmdbvs	r0, {r2, r3}
    4b84:	2900000b 	stmdbcs	r0, {r0, r1, r3}
    4b88:	0c055001 	stceq	0, cr5, [r5], {1}
    4b8c:	20215004 	eorcs	r5, r1, r4
    4b90:	01510129 	cmpeq	r1, r9, lsr #2
    4b94:	24250031 	strtcs	r0, [r5], #-49	; 0x31
    4b98:	9c00009c 	stcls	0, cr0, [r0], {156}	; 0x9c
    4b9c:	2800000c 	stmdacs	r0, {r2, r3}
    4ba0:	00009c34 	andeq	r9, r0, r4, lsr ip
    4ba4:	00000ca7 	andeq	r0, r0, r7, lsr #25
    4ba8:	00000b8b 	andeq	r0, r0, fp, lsl #23
    4bac:	02500129 	subseq	r0, r0, #1073741834	; 0x4000000a
    4bb0:	01290074 	teqeq	r9, r4, ror r0
    4bb4:	00300151 	eorseq	r0, r0, r1, asr r1
    4bb8:	009c4028 	addseq	r4, ip, r8, lsr #32
    4bbc:	000ca700 	andeq	sl, ip, r0, lsl #14
    4bc0:	000ba700 	andeq	sl, fp, r0, lsl #14
    4bc4:	50012900 	andpl	r2, r1, r0, lsl #18
    4bc8:	50440c05 	subpl	r0, r4, r5, lsl #24
    4bcc:	01292021 	teqeq	r9, r1, lsr #32
    4bd0:	00300151 	eorseq	r0, r0, r1, asr r1
    4bd4:	009c4c28 	addseq	r4, ip, r8, lsr #24
    4bd8:	000ca700 	andeq	sl, ip, r0, lsl #14
    4bdc:	000bc300 	andeq	ip, fp, r0, lsl #6
    4be0:	50012900 	andpl	r2, r1, r0, lsl #18
    4be4:	504c0c05 	subpl	r0, ip, r5, lsl #24
    4be8:	01292021 	teqeq	r9, r1, lsr #32
    4bec:	00330151 	eorseq	r0, r3, r1, asr r1
    4bf0:	009c5828 	addseq	r5, ip, r8, lsr #16
    4bf4:	000ca700 	andeq	sl, ip, r0, lsl #14
    4bf8:	000bdf00 	andeq	sp, fp, r0, lsl #30
    4bfc:	50012900 	andpl	r2, r1, r0, lsl #18
    4c00:	50500c05 	subspl	r0, r0, r5, lsl #24
    4c04:	01292021 	teqeq	r9, r1, lsr #32
    4c08:	00300151 	eorseq	r0, r0, r1, asr r1
    4c0c:	009c6428 	addseq	r6, ip, r8, lsr #8
    4c10:	000ca700 	andeq	sl, ip, r0, lsl #14
    4c14:	000bfc00 	andeq	pc, fp, r0, lsl #24
    4c18:	50012900 	andpl	r2, r1, r0, lsl #18
    4c1c:	50480c05 	subpl	r0, r8, r5, lsl #24
    4c20:	01292021 	teqeq	r9, r1, lsr #32
    4c24:	c7080251 	smlsdgt	r8, r1, r2, r0
    4c28:	9c702800 	ldclls	8, cr2, [r0], #-0
    4c2c:	0ca70000 	stceq	0, cr0, [r7]
    4c30:	0c1a0000 	ldceq	0, cr0, [sl], {-0}
    4c34:	01290000 	teqeq	r9, r0
    4c38:	680c0550 	stmdavs	ip, {r4, r6, r8, sl}
    4c3c:	29202150 	stmdbcs	r0!, {r4, r6, r8, sp}
    4c40:	0a035101 	beq	d904c <__bss_end__+0xce53c>
    4c44:	2800010e 	stmdacs	r0, {r1, r2, r3, r8}
    4c48:	00009c7c 	andeq	r9, r0, ip, ror ip
    4c4c:	00000ca7 	andeq	r0, r0, r7, lsr #25
    4c50:	00000c33 	andeq	r0, r0, r3, lsr ip
    4c54:	02500129 	subseq	r0, r0, #1073741834	; 0x4000000a
    4c58:	01290074 	teqeq	r9, r4, ror r0
    4c5c:	00330151 	eorseq	r0, r3, r1, asr r1
    4c60:	009c8025 	addseq	r8, ip, r5, lsr #32
    4c64:	000c9c00 	andeq	r9, ip, r0, lsl #24
    4c68:	ac2c0000 	stcge	0, cr0, [ip], #-0
    4c6c:	0100000e 	tsteq	r0, lr
    4c70:	009bd42d 	addseq	sp, fp, sp, lsr #8
    4c74:	00002000 	andeq	r2, r0, r0
    4c78:	959c0100 	ldrls	r0, [ip, #256]	; 0x100
    4c7c:	2d00000c 	stccs	0, cr0, [r0, #-48]	; 0xffffffd0
    4c80:	0000006d 	andeq	r0, r0, sp, rrx
    4c84:	0c952d01 	ldceq	13, cr2, [r5], {1}
    4c88:	10720000 	rsbsne	r0, r2, r0
    4c8c:	76270000 	strtvc	r0, [r7], -r0
    4c90:	01006c61 	tsteq	r0, r1, ror #24
    4c94:	00002c2d 	andeq	r2, r0, sp, lsr #24
    4c98:	00109000 	andseq	r9, r0, r0
    4c9c:	9be42800 	blls	ff90eca4 <__bss_end__+0xff904194>
    4ca0:	0cb20000 	ldceq	0, cr0, [r2]
    4ca4:	0c840000 	stceq	0, cr0, [r4], {0}
    4ca8:	01290000 	teqeq	r9, r0
    4cac:	00740250 	rsbseq	r0, r4, r0, asr r2
    4cb0:	9bf02b00 	blls	ffc0f8b8 <__bss_end__+0xffc04da8>
    4cb4:	0ca70000 	stceq	0, cr0, [r7]
    4cb8:	01290000 	teqeq	r9, r0
    4cbc:	00740250 	rsbseq	r0, r4, r0, asr r2
    4cc0:	040e0000 	streq	r0, [lr], #-0
    4cc4:	00000c9b 	muleq	r0, fp, ip
    4cc8:	08d02f2e 	ldmeq	r0, {r1, r2, r3, r5, r8, r9, sl, fp, sp}^
    4ccc:	08d00000 	ldmeq	r0, {}^	; <UNPREDICTABLE>
    4cd0:	89060000 	stmdbhi	r6, {}	; <UNPREDICTABLE>
    4cd4:	000d8b2f 	andeq	r8, sp, pc, lsr #22
    4cd8:	000d8b00 	andeq	r8, sp, r0, lsl #22
    4cdc:	2f9c0600 	svccs	0x009c0600
    4ce0:	00000e8e 	andeq	r0, r0, lr, lsl #29
    4ce4:	00000e8e 	andeq	r0, r0, lr, lsl #29
    4ce8:	5b2fa806 	blpl	beed08 <__bss_end__+0xbe41f8>
    4cec:	5b00000c 	blpl	4d24 <__code_start__-0x32dc>
    4cf0:	0800000c 	stmdaeq	r0, {r2, r3}
    4cf4:	0b700019 	bleq	1c04d60 <__bss_end__+0x1bfa250>
    4cf8:	00040000 	andeq	r0, r4, r0
    4cfc:	000016b0 			; <UNDEFINED> instruction: 0x000016b0
    4d00:	0d910104 	ldfeqs	f0, [r1, #16]
    4d04:	610c0000 	mrsvs	r0, (UNDEF: 12)
    4d08:	0f00000f 	svceq	0x0000000f
    4d0c:	4c00000b 	stcmi	0, cr0, [r0], {11}
    4d10:	2000009d 	mulcs	r0, sp, r0
    4d14:	60000001 	andvs	r0, r0, r1
    4d18:	02000012 	andeq	r0, r0, #18
    4d1c:	6e690504 	cdpvs	5, 6, cr0, cr9, cr4, {0}
    4d20:	04030074 	streq	r0, [r3], #-116	; 0x74
    4d24:	00008f07 	andeq	r8, r0, r7, lsl #30
    4d28:	002c0400 	eoreq	r0, ip, r0, lsl #8
    4d2c:	01030000 	mrseq	r0, (UNDEF: 3)
    4d30:	00016f06 	andeq	r6, r1, r6, lsl #30
    4d34:	05020300 	streq	r0, [r2, #-768]	; 0x300
    4d38:	00000192 	muleq	r0, r2, r1
    4d3c:	a1050403 	tstge	r5, r3, lsl #8
    4d40:	03000000 	movweq	r0, #0
    4d44:	009c0508 	addseq	r0, ip, r8, lsl #10
    4d48:	01030000 	mrseq	r0, (UNDEF: 3)
    4d4c:	00016d08 	andeq	r6, r1, r8, lsl #26
    4d50:	07020300 	streq	r0, [r2, -r0, lsl #6]
    4d54:	000000e1 	andeq	r0, r0, r1, ror #1
    4d58:	8a070403 	bhi	1c5d6c <__bss_end__+0x1bb25c>
    4d5c:	03000000 	movweq	r0, #0
    4d60:	00850708 	addeq	r0, r5, r8, lsl #14
    4d64:	a6050000 	strge	r0, [r5], -r0
    4d68:	0200000c 	andeq	r0, r0, #12
    4d6c:	00002507 	andeq	r2, r0, r7, lsl #10
    4d70:	0c900500 	cfldr32eq	mvfx0, [r0], {0}
    4d74:	2c030000 	stccs	0, cr0, [r3], {-0}
    4d78:	00000046 	andeq	r0, r0, r6, asr #32
    4d7c:	000d6c05 	andeq	r6, sp, r5, lsl #24
    4d80:	46720300 	ldrbtmi	r0, [r2], -r0, lsl #6
    4d84:	06000000 	streq	r0, [r0], -r0
    4d88:	00000c34 	andeq	r0, r0, r4, lsr ip
    4d8c:	2c016504 	cfstr32cs	mvfx6, [r1], {4}
    4d90:	07000000 	streq	r0, [r0, -r0]
    4d94:	bca60304 	stclt	3, cr0, [r6], #16
    4d98:	08000000 	stmdaeq	r0, {}	; <UNPREDICTABLE>
    4d9c:	00000c1f 	andeq	r0, r0, pc, lsl ip
    4da0:	0091a803 	addseq	sl, r1, r3, lsl #16
    4da4:	c7080000 	strgt	r0, [r8, -r0]
    4da8:	0300000b 	movweq	r0, #11
    4dac:	0000bca9 	andeq	fp, r0, r9, lsr #25
    4db0:	54090000 	strpl	r0, [r9], #-0
    4db4:	cc000000 	stcgt	0, cr0, [r0], {-0}
    4db8:	0a000000 	beq	4dc0 <__code_start__-0x3240>
    4dbc:	000000cc 	andeq	r0, r0, ip, asr #1
    4dc0:	04030003 	streq	r0, [r3], #-3
    4dc4:	00011207 	andeq	r1, r1, r7, lsl #4
    4dc8:	03080b00 	movweq	r0, #35584	; 0x8b00
    4dcc:	0000f4a3 	andeq	pc, r0, r3, lsr #9
    4dd0:	0d510c00 	ldcleq	12, cr0, [r1, #-0]
    4dd4:	a5030000 	strge	r0, [r3, #-0]
    4dd8:	00000025 	andeq	r0, r0, r5, lsr #32
    4ddc:	0d590c00 	ldcleq	12, cr0, [r9, #-0]
    4de0:	aa030000 	bge	c4de8 <__bss_end__+0xba2d8>
    4de4:	0000009d 	muleq	r0, sp, r0
    4de8:	e4050004 	str	r0, [r5], #-4
    4dec:	0300000c 	movweq	r0, #12
    4df0:	0000d3ab 	andeq	sp, r0, fp, lsr #7
    4df4:	0b900500 	bleq	fe4061fc <__bss_end__+0xfe3fb6ec>
    4df8:	af030000 	svcge	0x00030000
    4dfc:	00000070 	andeq	r0, r0, r0, ror r0
    4e00:	040e040d 	streq	r0, [lr], #-1037	; 0x40d
    4e04:	00000112 	andeq	r0, r0, r2, lsl r1
    4e08:	76080103 	strvc	r0, [r8], -r3, lsl #2
    4e0c:	04000001 	streq	r0, [r0], #-1
    4e10:	00000112 	andeq	r0, r0, r2, lsl r1
    4e14:	000e0e05 	andeq	r0, lr, r5, lsl #28
    4e18:	62160500 	andsvs	r0, r6, #0, 10
    4e1c:	0f000000 	svceq	0x00000000
    4e20:	00000ba1 	andeq	r0, r0, r1, lsr #23
    4e24:	7c2d0518 	cfstr32vc	mvfx0, [sp], #-96	; 0xffffffa0
    4e28:	0c000001 	stceq	0, cr0, [r0], {1}
    4e2c:	00000d05 	andeq	r0, r0, r5, lsl #26
    4e30:	017c2f05 	cmneq	ip, r5, lsl #30
    4e34:	10000000 	andne	r0, r0, r0
    4e38:	05006b5f 	streq	r6, [r0, #-2911]	; 0xb5f
    4e3c:	00002530 	andeq	r2, r0, r0, lsr r5
    4e40:	3c0c0400 	cfstrscc	mvf0, [ip], {-0}
    4e44:	0500000d 	streq	r0, [r0, #-13]
    4e48:	00002530 	andeq	r2, r0, r0, lsr r5
    4e4c:	7c0c0800 	stcvc	8, cr0, [ip], {-0}
    4e50:	0500000b 	streq	r0, [r0, #-11]
    4e54:	00002530 	andeq	r2, r0, r0, lsr r5
    4e58:	550c0c00 	strpl	r0, [ip, #-3072]	; 0xc00
    4e5c:	0500000e 	streq	r0, [r0, #-14]
    4e60:	00002530 	andeq	r2, r0, r0, lsr r5
    4e64:	5f101000 	svcpl	0x00101000
    4e68:	31050078 	tstcc	r5, r8, ror r0
    4e6c:	00000182 	andeq	r0, r0, r2, lsl #3
    4e70:	040e0014 	streq	r0, [lr], #-20
    4e74:	00000129 	andeq	r0, r0, r9, lsr #2
    4e78:	00011e09 	andeq	r1, r1, r9, lsl #28
    4e7c:	00019200 	andeq	r9, r1, r0, lsl #4
    4e80:	00cc0a00 	sbceq	r0, ip, r0, lsl #20
    4e84:	00000000 	andeq	r0, r0, r0
    4e88:	000bc20f 	andeq	ip, fp, pc, lsl #4
    4e8c:	35052400 	strcc	r2, [r5, #-1024]	; 0x400
    4e90:	0000020b 	andeq	r0, r0, fp, lsl #4
    4e94:	000a7a0c 	andeq	r7, sl, ip, lsl #20
    4e98:	25370500 	ldrcs	r0, [r7, #-1280]!	; 0x500
    4e9c:	00000000 	andeq	r0, r0, r0
    4ea0:	000d740c 	andeq	r7, sp, ip, lsl #8
    4ea4:	25380500 	ldrcs	r0, [r8, #-1280]!	; 0x500
    4ea8:	04000000 	streq	r0, [r0], #-0
    4eac:	000aa80c 	andeq	sl, sl, ip, lsl #16
    4eb0:	25390500 	ldrcs	r0, [r9, #-1280]!	; 0x500
    4eb4:	08000000 	stmdaeq	r0, {}	; <UNPREDICTABLE>
    4eb8:	000f450c 	andeq	r4, pc, ip, lsl #10
    4ebc:	253a0500 	ldrcs	r0, [sl, #-1280]!	; 0x500
    4ec0:	0c000000 	stceq	0, cr0, [r0], {-0}
    4ec4:	000c740c 	andeq	r7, ip, ip, lsl #8
    4ec8:	253b0500 	ldrcs	r0, [fp, #-1280]!	; 0x500
    4ecc:	10000000 	andne	r0, r0, r0
    4ed0:	000c490c 	andeq	r4, ip, ip, lsl #18
    4ed4:	253c0500 	ldrcs	r0, [ip, #-1280]!	; 0x500
    4ed8:	14000000 	strne	r0, [r0], #-0
    4edc:	000e5a0c 	andeq	r5, lr, ip, lsl #20
    4ee0:	253d0500 	ldrcs	r0, [sp, #-1280]!	; 0x500
    4ee4:	18000000 	stmdane	r0, {}	; <UNPREDICTABLE>
    4ee8:	000cc60c 	andeq	ip, ip, ip, lsl #12
    4eec:	253e0500 	ldrcs	r0, [lr, #-1280]!	; 0x500
    4ef0:	1c000000 	stcne	0, cr0, [r0], {-0}
    4ef4:	000f0c0c 	andeq	r0, pc, ip, lsl #24
    4ef8:	253f0500 	ldrcs	r0, [pc, #-1280]!	; 4a00 <__code_start__-0x3600>
    4efc:	20000000 	andcs	r0, r0, r0
    4f00:	0ab71100 	beq	fedc9308 <__bss_end__+0xfedbe7f8>
    4f04:	01080000 	mrseq	r0, (UNDEF: 8)
    4f08:	024b4805 	subeq	r4, fp, #327680	; 0x50000
    4f0c:	630c0000 	movwvs	r0, #49152	; 0xc000
    4f10:	0500000b 	streq	r0, [r0, #-11]
    4f14:	00024b49 	andeq	r4, r2, r9, asr #22
    4f18:	f50c0000 			; <UNDEFINED> instruction: 0xf50c0000
    4f1c:	05000009 	streq	r0, [r0, #-9]
    4f20:	00024b4a 	andeq	r4, r2, sl, asr #22
    4f24:	00128000 	andseq	r8, r2, r0
    4f28:	0500000e 	streq	r0, [r0, #-14]
    4f2c:	00011e4c 	andeq	r1, r1, ip, asr #28
    4f30:	12010000 	andne	r0, r1, #0
    4f34:	00000adc 	ldrdeq	r0, [r0], -ip
    4f38:	011e4f05 	tsteq	lr, r5, lsl #30
    4f3c:	01040000 	mrseq	r0, (UNDEF: 4)
    4f40:	010a0900 	tsteq	sl, r0, lsl #18
    4f44:	025b0000 	subseq	r0, fp, #0
    4f48:	cc0a0000 	stcgt	0, cr0, [sl], {-0}
    4f4c:	1f000000 	svcne	0x00000000
    4f50:	0c7d1100 	ldfeqe	f1, [sp], #-0
    4f54:	01900000 	orrseq	r0, r0, r0
    4f58:	02995b05 	addseq	r5, r9, #5120	; 0x1400
    4f5c:	050c0000 	streq	r0, [ip, #-0]
    4f60:	0500000d 	streq	r0, [r0, #-13]
    4f64:	0002995c 	andeq	r9, r2, ip, asr r9
    4f68:	1d0c0000 	stcne	0, cr0, [ip, #-0]
    4f6c:	0500000d 	streq	r0, [r0, #-13]
    4f70:	0000255d 	andeq	r2, r0, sp, asr r5
    4f74:	770c0400 	strvc	r0, [ip, -r0, lsl #8]
    4f78:	0500000b 	streq	r0, [r0, #-11]
    4f7c:	00029f5f 	andeq	r9, r2, pc, asr pc
    4f80:	b70c0800 	strlt	r0, [ip, -r0, lsl #16]
    4f84:	0500000a 	streq	r0, [r0, #-10]
    4f88:	00020b60 	andeq	r0, r2, r0, ror #22
    4f8c:	0e008800 	cdpeq	8, 0, cr8, cr0, cr0, {0}
    4f90:	00025b04 	andeq	r5, r2, r4, lsl #22
    4f94:	02af0900 	adceq	r0, pc, #0, 18
    4f98:	02af0000 	adceq	r0, pc, #0
    4f9c:	cc0a0000 	stcgt	0, cr0, [sl], {-0}
    4fa0:	1f000000 	svcne	0x00000000
    4fa4:	b5040e00 	strlt	r0, [r4, #-3584]	; 0xe00
    4fa8:	13000002 	movwne	r0, #2
    4fac:	000cd00f 	andeq	sp, ip, pc
    4fb0:	73050800 	movwvc	r0, #22528	; 0x5800
    4fb4:	000002db 	ldrdeq	r0, [r0], -fp
    4fb8:	000a9d0c 	andeq	r9, sl, ip, lsl #26
    4fbc:	db740500 	blle	1d063c4 <__bss_end__+0x1cfb8b4>
    4fc0:	00000002 	andeq	r0, r0, r2
    4fc4:	000a010c 	andeq	r0, sl, ip, lsl #2
    4fc8:	25750500 	ldrbcs	r0, [r5, #-1280]!	; 0x500
    4fcc:	04000000 	streq	r0, [r0], #-0
    4fd0:	54040e00 	strpl	r0, [r4], #-3584	; 0xe00
    4fd4:	0f000000 	svceq	0x00000000
    4fd8:	00000cef 	andeq	r0, r0, pc, ror #25
    4fdc:	0bb30568 	bleq	fecc6584 <__bss_end__+0xfecbba74>
    4fe0:	10000004 	andne	r0, r0, r4
    4fe4:	0500705f 	streq	r7, [r0, #-95]	; 0x5f
    4fe8:	0002dbb4 			; <UNDEFINED> instruction: 0x0002dbb4
    4fec:	5f100000 	svcpl	0x00100000
    4ff0:	b5050072 	strlt	r0, [r5, #-114]	; 0x72
    4ff4:	00000025 	andeq	r0, r0, r5, lsr #32
    4ff8:	775f1004 	ldrbvc	r1, [pc, -r4]
    4ffc:	25b60500 	ldrcs	r0, [r6, #1280]!	; 0x500
    5000:	08000000 	stmdaeq	r0, {}	; <UNPREDICTABLE>
    5004:	000ad50c 	andeq	sp, sl, ip, lsl #10
    5008:	3fb70500 	svccc	0x00b70500
    500c:	0c000000 	stceq	0, cr0, [r0], {-0}
    5010:	000be80c 	andeq	lr, fp, ip, lsl #16
    5014:	3fb80500 	svccc	0x00b80500
    5018:	0e000000 	cdpeq	0, 0, cr0, cr0, cr0, {0}
    501c:	66625f10 	uqadd16vs	r5, r2, r0
    5020:	b6b90500 	ldrtlt	r0, [r9], r0, lsl #10
    5024:	10000002 	andne	r0, r0, r2
    5028:	000a440c 	andeq	r4, sl, ip, lsl #8
    502c:	25ba0500 	ldrcs	r0, [sl, #1280]!	; 0x500
    5030:	18000000 	stmdane	r0, {}	; <UNPREDICTABLE>
    5034:	000ac50c 	andeq	ip, sl, ip, lsl #10
    5038:	0ac10500 	beq	ff046440 <__bss_end__+0xff03b930>
    503c:	1c000001 	stcne	0, cr0, [r0], {1}
    5040:	000f6c0c 	andeq	r6, pc, ip, lsl #24
    5044:	66c30500 	strbvs	r0, [r3], r0, lsl #10
    5048:	20000005 	andcs	r0, r0, r5
    504c:	000f860c 	andeq	r8, pc, ip, lsl #12
    5050:	90c50500 	sbcls	r0, r5, r0, lsl #10
    5054:	24000005 	strcs	r0, [r0], #-5
    5058:	000d610c 	andeq	r6, sp, ip, lsl #2
    505c:	b4c80500 	strblt	r0, [r8], #1280	; 0x500
    5060:	28000005 	stmdacs	r0, {r0, r2}
    5064:	000f260c 	andeq	r2, pc, ip, lsl #12
    5068:	cec90500 	cdpgt	5, 12, cr0, cr9, cr0, {0}
    506c:	2c000005 	stccs	0, cr0, [r0], {5}
    5070:	62755f10 	rsbsvs	r5, r5, #16, 30	; 0x40
    5074:	b6cc0500 	strblt	r0, [ip], r0, lsl #10
    5078:	30000002 	andcc	r0, r0, r2
    507c:	70755f10 	rsbsvc	r5, r5, r0, lsl pc
    5080:	dbcd0500 	blle	ff346488 <__bss_end__+0xff33b978>
    5084:	38000002 	stmdacc	r0, {r1}
    5088:	72755f10 	rsbsvc	r5, r5, #16, 30	; 0x40
    508c:	25ce0500 	strbcs	r0, [lr, #1280]	; 0x500
    5090:	3c000000 	stccc	0, cr0, [r0], {-0}
    5094:	000a880c 	andeq	r8, sl, ip, lsl #16
    5098:	d4d10500 	ldrble	r0, [r1], #1280	; 0x500
    509c:	40000005 	andmi	r0, r0, r5
    50a0:	000ed10c 	andeq	sp, lr, ip, lsl #2
    50a4:	e4d20500 	ldrb	r0, [r2], #1280	; 0x500
    50a8:	43000005 	movwmi	r0, #5
    50ac:	626c5f10 	rsbvs	r5, ip, #16, 30	; 0x40
    50b0:	b6d50500 	ldrblt	r0, [r5], r0, lsl #10
    50b4:	44000002 	strmi	r0, [r0], #-2
    50b8:	000aeb0c 	andeq	lr, sl, ip, lsl #22
    50bc:	25d80500 	ldrbcs	r0, [r8, #1280]	; 0x500
    50c0:	4c000000 	stcmi	0, cr0, [r0], {-0}
    50c4:	000c530c 	andeq	r5, ip, ip, lsl #6
    50c8:	7bd90500 	blvc	ff6464d0 <__bss_end__+0xff63b9c0>
    50cc:	50000000 	andpl	r0, r0, r0
    50d0:	000ebc0c 	andeq	fp, lr, ip, lsl #24
    50d4:	29dc0500 	ldmibcs	ip, {r8, sl}^
    50d8:	54000004 	strpl	r0, [r0], #-4
    50dc:	000c3b0c 	andeq	r3, ip, ip, lsl #22
    50e0:	ffe00500 			; <UNDEFINED> instruction: 0xffe00500
    50e4:	58000000 	stmdapl	r0, {}	; <UNPREDICTABLE>
    50e8:	000cf70c 	andeq	pc, ip, ip, lsl #14
    50ec:	f4e20500 	vld2.16	{d16[0],d17[0]}, [r2], r0
    50f0:	5c000000 	stcpl	0, cr0, [r0], {-0}
    50f4:	000c410c 	andeq	r4, ip, ip, lsl #2
    50f8:	25e30500 	strbcs	r0, [r3, #1280]!	; 0x500
    50fc:	64000000 	strvs	r0, [r0], #-0
    5100:	00251400 	eoreq	r1, r5, r0, lsl #8
    5104:	04290000 	strteq	r0, [r9], #-0
    5108:	29150000 	ldmdbcs	r5, {}	; <UNPREDICTABLE>
    510c:	15000004 	strne	r0, [r0, #-4]
    5110:	0000010a 	andeq	r0, r0, sl, lsl #2
    5114:	00010c15 	andeq	r0, r1, r5, lsl ip
    5118:	00251500 	eoreq	r1, r5, r0, lsl #10
    511c:	0e000000 	cdpeq	0, 0, cr0, cr0, cr0, {0}
    5120:	00043404 	andeq	r3, r4, r4, lsl #8
    5124:	04290400 	strteq	r0, [r9], #-1024	; 0x400
    5128:	44160000 	ldrmi	r0, [r6], #-0
    512c:	2800000d 	stmdacs	r0, {r0, r2, r3}
    5130:	02380504 	eorseq	r0, r8, #4, 10	; 0x1000000
    5134:	00000566 	andeq	r0, r0, r6, ror #10
    5138:	000cbf17 	andeq	fp, ip, r7, lsl pc
    513c:	023a0500 	eorseq	r0, sl, #0, 10
    5140:	00000025 	andeq	r0, r0, r5, lsr #32
    5144:	0ae41700 	beq	ff90ad4c <__bss_end__+0xff90023c>
    5148:	3f050000 	svccc	0x00050000
    514c:	00063b02 	andeq	r3, r6, r2, lsl #22
    5150:	d8170400 	ldmdale	r7, {sl}
    5154:	0500000b 	streq	r0, [r0, #-11]
    5158:	063b023f 			; <UNDEFINED> instruction: 0x063b023f
    515c:	17080000 	strne	r0, [r8, -r0]
    5160:	00000b99 	muleq	r0, r9, fp
    5164:	3b023f05 	blcc	94d80 <__bss_end__+0x8a270>
    5168:	0c000006 	stceq	0, cr0, [r0], {6}
    516c:	000d1817 	andeq	r1, sp, r7, lsl r8
    5170:	02410500 	subeq	r0, r1, #0, 10
    5174:	00000025 	andeq	r0, r0, r5, lsr #32
    5178:	0a0f1710 	beq	3cadc0 <__bss_end__+0x3c02b0>
    517c:	42050000 	andmi	r0, r5, #0
    5180:	00081d02 	andeq	r1, r8, r2, lsl #26
    5184:	36171400 	ldrcc	r1, [r7], -r0, lsl #8
    5188:	0500000e 	streq	r0, [r0, #-14]
    518c:	00250244 	eoreq	r0, r5, r4, asr #4
    5190:	17300000 	ldrne	r0, [r0, -r0]!
    5194:	00000d22 	andeq	r0, r0, r2, lsr #26
    5198:	8a024505 	bhi	965b4 <__bss_end__+0x8baa4>
    519c:	34000005 	strcc	r0, [r0], #-5
    51a0:	000c8517 	andeq	r8, ip, r7, lsl r5
    51a4:	02470500 	subeq	r0, r7, #0, 10
    51a8:	00000025 	andeq	r0, r0, r5, lsr #32
    51ac:	0d321738 	ldceq	7, cr1, [r2, #-224]!	; 0xffffff20
    51b0:	49050000 	stmdbmi	r5, {}	; <UNPREDICTABLE>
    51b4:	00083802 	andeq	r3, r8, r2, lsl #16
    51b8:	17173c00 	ldrne	r3, [r7, -r0, lsl #24]
    51bc:	0500000c 	streq	r0, [r0, #-12]
    51c0:	017c024c 	cmneq	ip, ip, asr #4
    51c4:	17400000 	strbne	r0, [r0, -r0]
    51c8:	00000bb8 			; <UNDEFINED> instruction: 0x00000bb8
    51cc:	25024d05 	strcs	r4, [r2, #-3333]	; 0xd05
    51d0:	44000000 	strmi	r0, [r0], #-0
    51d4:	000f4017 	andeq	r4, pc, r7, lsl r0	; <UNPREDICTABLE>
    51d8:	024e0500 	subeq	r0, lr, #0, 10
    51dc:	0000017c 	andeq	r0, r0, ip, ror r1
    51e0:	0c9c1748 	ldceq	7, cr1, [ip], {72}	; 0x48
    51e4:	4f050000 	svcmi	0x00050000
    51e8:	00083e02 	andeq	r3, r8, r2, lsl #28
    51ec:	e0174c00 	ands	r4, r7, r0, lsl #24
    51f0:	0500000b 	streq	r0, [r0, #-11]
    51f4:	00250252 	eoreq	r0, r5, r2, asr r2
    51f8:	17500000 	ldrbne	r0, [r0, -r0]
    51fc:	00000b07 	andeq	r0, r0, r7, lsl #22
    5200:	0c025305 	stceq	3, cr5, [r2], {5}
    5204:	54000001 	strpl	r0, [r0], #-1
    5208:	000cb817 	andeq	fp, ip, r7, lsl r8
    520c:	02760500 	rsbseq	r0, r6, #0, 10
    5210:	000007fb 	strdeq	r0, [r0], -fp
    5214:	0c7d1858 	ldcleq	8, cr1, [sp], #-352	; 0xfffffea0
    5218:	7a050000 	bvc	145220 <__bss_end__+0x13a710>
    521c:	00029902 	andeq	r9, r2, r2, lsl #18
    5220:	18014800 	stmdane	r1, {fp, lr}
    5224:	00000bf5 	strdeq	r0, [r0], -r5
    5228:	5b027b05 	blpl	a3e44 <__bss_end__+0x99334>
    522c:	4c000002 	stcmi	0, cr0, [r0], {2}
    5230:	0ea21801 	cdpeq	8, 10, cr1, cr2, cr1, {0}
    5234:	7f050000 	svcvc	0x00050000
    5238:	00084f02 	andeq	r4, r8, r2, lsl #30
    523c:	1802dc00 	stmdane	r2, {sl, fp, ip, lr, pc}
    5240:	00000acd 	andeq	r0, r0, sp, asr #21
    5244:	00028405 	andeq	r8, r2, r5, lsl #8
    5248:	e0000006 	and	r0, r0, r6
    524c:	0ab21802 	beq	fec8b25c <__bss_end__+0xfec8074c>
    5250:	85050000 	strhi	r0, [r5, #-0]
    5254:	00085b02 	andeq	r5, r8, r2, lsl #22
    5258:	0002ec00 	andeq	lr, r2, r0, lsl #24
    525c:	040b040e 	streq	r0, [fp], #-1038	; 0x40e
    5260:	25140000 	ldrcs	r0, [r4, #-0]
    5264:	8a000000 	bhi	526c <__code_start__-0x2d94>
    5268:	15000005 	strne	r0, [r0, #-5]
    526c:	00000429 	andeq	r0, r0, r9, lsr #8
    5270:	00010a15 	andeq	r0, r1, r5, lsl sl
    5274:	058a1500 	streq	r1, [sl, #1280]	; 0x500
    5278:	25150000 	ldrcs	r0, [r5, #-0]
    527c:	00000000 	andeq	r0, r0, r0
    5280:	0119040e 	tsteq	r9, lr, lsl #8
    5284:	040e0000 	streq	r0, [lr], #-0
    5288:	0000056c 	andeq	r0, r0, ip, ror #10
    528c:	00008614 	andeq	r8, r0, r4, lsl r6
    5290:	0005b400 	andeq	fp, r5, r0, lsl #8
    5294:	04291500 	strteq	r1, [r9], #-1280	; 0x500
    5298:	0a150000 	beq	5452a0 <__bss_end__+0x53a790>
    529c:	15000001 	strne	r0, [r0, #-1]
    52a0:	00000086 	andeq	r0, r0, r6, lsl #1
    52a4:	00002515 	andeq	r2, r0, r5, lsl r5
    52a8:	040e0000 	streq	r0, [lr], #-0
    52ac:	00000596 	muleq	r0, r6, r5
    52b0:	00002514 	andeq	r2, r0, r4, lsl r5
    52b4:	0005ce00 	andeq	ip, r5, r0, lsl #28
    52b8:	04291500 	strteq	r1, [r9], #-1280	; 0x500
    52bc:	0a150000 	beq	5452c4 <__bss_end__+0x53a7b4>
    52c0:	00000001 	andeq	r0, r0, r1
    52c4:	05ba040e 	ldreq	r0, [sl, #1038]!	; 0x40e
    52c8:	54090000 	strpl	r0, [r9], #-0
    52cc:	e4000000 	str	r0, [r0], #-0
    52d0:	0a000005 	beq	52ec <__code_start__-0x2d14>
    52d4:	000000cc 	andeq	r0, r0, ip, asr #1
    52d8:	54090002 	strpl	r0, [r9], #-2
    52dc:	f4000000 	vst4.8	{d0-d3}, [r0], r0
    52e0:	0a000005 	beq	52fc <__code_start__-0x2d04>
    52e4:	000000cc 	andeq	r0, r0, ip, asr #1
    52e8:	dd060000 	stcle	0, cr0, [r6, #-0]
    52ec:	0500000c 	streq	r0, [r0, #-12]
    52f0:	02e1011d 	rsceq	r0, r1, #1073741831	; 0x40000007
    52f4:	64190000 	ldrvs	r0, [r9], #-0
    52f8:	0c00000e 	stceq	0, cr0, [r0], {14}
    52fc:	35012105 	strcc	r2, [r1, #-261]	; 0x105
    5300:	17000006 	strne	r0, [r0, -r6]
    5304:	00000d05 	andeq	r0, r0, r5, lsl #26
    5308:	35012305 	strcc	r2, [r1, #-773]	; 0x305
    530c:	00000006 	andeq	r0, r0, r6
    5310:	000bee17 	andeq	lr, fp, r7, lsl lr
    5314:	01240500 	teqeq	r4, r0, lsl #10
    5318:	00000025 	andeq	r0, r0, r5, lsr #32
    531c:	0cd71704 	ldcleq	7, cr1, [r7], {4}
    5320:	25050000 	strcs	r0, [r5, #-0]
    5324:	00063b01 	andeq	r3, r6, r1, lsl #22
    5328:	0e000800 	cdpeq	8, 0, cr0, cr0, cr0, {0}
    532c:	00060004 	andeq	r0, r6, r4
    5330:	f4040e00 			; <UNDEFINED> instruction: 0xf4040e00
    5334:	19000005 	stmdbne	r0, {r0, r2}
    5338:	00000a07 	andeq	r0, r0, r7, lsl #20
    533c:	013d050e 	teqeq	sp, lr, lsl #10
    5340:	00000676 	andeq	r0, r0, r6, ror r6
    5344:	000d4b17 	andeq	r4, sp, r7, lsl fp
    5348:	013e0500 	teqeq	lr, r0, lsl #10
    534c:	00000676 	andeq	r0, r0, r6, ror r6
    5350:	0d851700 	stceq	7, cr1, [r5]
    5354:	3f050000 	svccc	0x00050000
    5358:	00067601 	andeq	r7, r6, r1, lsl #12
    535c:	09170600 	ldmdbeq	r7, {r9, sl}
    5360:	0500000e 	streq	r0, [r0, #-14]
    5364:	005b0140 	subseq	r0, fp, r0, asr #2
    5368:	000c0000 	andeq	r0, ip, r0
    536c:	00005b09 	andeq	r5, r0, r9, lsl #22
    5370:	00068600 	andeq	r8, r6, r0, lsl #12
    5374:	00cc0a00 	sbceq	r0, ip, r0, lsl #20
    5378:	00020000 	andeq	r0, r2, r0
    537c:	5705d01a 	smladpl	r5, sl, r0, sp
    5380:	00078702 	andeq	r8, r7, r2, lsl #14
    5384:	0e481700 	cdpeq	7, 4, cr1, cr8, cr0, {0}
    5388:	59050000 	stmdbpl	r5, {}	; <UNPREDICTABLE>
    538c:	00002c02 	andeq	r2, r0, r2, lsl #24
    5390:	f3170000 	vhadd.u16	d0, d7, d0
    5394:	0500000d 	streq	r0, [r0, #-13]
    5398:	010c025a 	tsteq	ip, sl, asr r2
    539c:	17040000 	strne	r0, [r4, -r0]
    53a0:	00000c0a 	andeq	r0, r0, sl, lsl #24
    53a4:	87025b05 	strhi	r5, [r2, -r5, lsl #22]
    53a8:	08000007 	stmdaeq	r0, {r0, r1, r2}
    53ac:	000f1717 	andeq	r1, pc, r7, lsl r7	; <UNPREDICTABLE>
    53b0:	025c0500 	subseq	r0, ip, #0, 10
    53b4:	00000192 	muleq	r0, r2, r1
    53b8:	0ba91724 	bleq	fea4b050 <__bss_end__+0xfea40540>
    53bc:	5d050000 	stcpl	0, cr0, [r5, #-0]
    53c0:	00002502 	andeq	r2, r0, r2, lsl #10
    53c4:	00174800 	andseq	r4, r7, r0, lsl #16
    53c8:	0500000d 	streq	r0, [r0, #-13]
    53cc:	0069025e 	rsbeq	r0, r9, lr, asr r2
    53d0:	17500000 	ldrbne	r0, [r0, -r0]
    53d4:	00000f2d 	andeq	r0, r0, sp, lsr #30
    53d8:	41025f05 	tstmi	r2, r5, lsl #30
    53dc:	58000006 	stmdapl	r0, {r1, r2}
    53e0:	000d0b17 	andeq	r0, sp, r7, lsl fp
    53e4:	02600500 	rsbeq	r0, r0, #0, 10
    53e8:	000000f4 	strdeq	r0, [r0], -r4
    53ec:	0f321768 	svceq	0x00321768
    53f0:	61050000 	mrsvs	r0, (UNDEF: 5)
    53f4:	0000f402 	andeq	pc, r0, r2, lsl #8
    53f8:	6c177000 	ldcvs	0, cr7, [r7], {-0}
    53fc:	0500000a 	streq	r0, [r0, #-10]
    5400:	00f40262 	rscseq	r0, r4, r2, ror #4
    5404:	17780000 	ldrbne	r0, [r8, -r0]!
    5408:	00000e84 	andeq	r0, r0, r4, lsl #29
    540c:	97026305 	strls	r6, [r2, -r5, lsl #6]
    5410:	80000007 	andhi	r0, r0, r7
    5414:	000bfe17 	andeq	pc, fp, r7, lsl lr	; <UNPREDICTABLE>
    5418:	02640500 	rsbeq	r0, r4, #0, 10
    541c:	000007a7 	andeq	r0, r0, r7, lsr #15
    5420:	0e161788 	cdpeq	7, 1, cr1, cr6, cr8, {4}
    5424:	65050000 	strvs	r0, [r5, #-0]
    5428:	00002502 	andeq	r2, r0, r2, lsl #10
    542c:	5517a000 	ldrpl	sl, [r7, #-0]
    5430:	0500000b 	streq	r0, [r0, #-11]
    5434:	00f40266 	rscseq	r0, r4, r6, ror #4
    5438:	17a40000 	strne	r0, [r4, r0]!
    543c:	00000a5d 	andeq	r0, r0, sp, asr sl
    5440:	f4026705 	vst1.8	{d6}, [r2], r5
    5444:	ac000000 	stcge	0, cr0, [r0], {-0}
    5448:	000b4417 	andeq	r4, fp, r7, lsl r4
    544c:	02680500 	rsbeq	r0, r8, #0, 10
    5450:	000000f4 	strdeq	r0, [r0], -r4
    5454:	0a2417b4 	beq	90b32c <__bss_end__+0x90081c>
    5458:	69050000 	stmdbvs	r5, {}	; <UNPREDICTABLE>
    545c:	0000f402 	andeq	pc, r0, r2, lsl #8
    5460:	3317bc00 	tstcc	r7, #0, 24
    5464:	0500000a 	streq	r0, [r0, #-10]
    5468:	00f4026a 	rscseq	r0, r4, sl, ror #4
    546c:	17c40000 	strbne	r0, [r4, r0]
    5470:	00000cbd 			; <UNDEFINED> instruction: 0x00000cbd
    5474:	25026b05 	strcs	r6, [r2, #-2821]	; 0xb05
    5478:	cc000000 	stcgt	0, cr0, [r0], {-0}
    547c:	01120900 	tsteq	r2, r0, lsl #18
    5480:	07970000 	ldreq	r0, [r7, r0]
    5484:	cc0a0000 	stcgt	0, cr0, [sl], {-0}
    5488:	19000000 	stmdbne	r0, {}	; <UNPREDICTABLE>
    548c:	01120900 	tsteq	r2, r0, lsl #18
    5490:	07a70000 	streq	r0, [r7, r0]!
    5494:	cc0a0000 	stcgt	0, cr0, [sl], {-0}
    5498:	07000000 	streq	r0, [r0, -r0]
    549c:	01120900 	tsteq	r2, r0, lsl #18
    54a0:	07b70000 	ldreq	r0, [r7, r0]!
    54a4:	cc0a0000 	stcgt	0, cr0, [sl], {-0}
    54a8:	17000000 	strne	r0, [r0, -r0]
    54ac:	05f01a00 	ldrbeq	r1, [r0, #2560]!	; 0xa00
    54b0:	07db0270 			; <UNDEFINED> instruction: 0x07db0270
    54b4:	6d170000 	ldcvs	0, cr0, [r7, #-0]
    54b8:	0500000c 	streq	r0, [r0, #-12]
    54bc:	07db0273 			; <UNDEFINED> instruction: 0x07db0273
    54c0:	17000000 	strne	r0, [r0, -r0]
    54c4:	00000e7b 	andeq	r0, r0, fp, ror lr
    54c8:	eb027405 	bl	a24e4 <__bss_end__+0x979d4>
    54cc:	78000007 	stmdavc	r0, {r0, r1, r2}
    54d0:	02db0900 	sbcseq	r0, fp, #0, 18
    54d4:	07eb0000 	strbeq	r0, [fp, r0]!
    54d8:	cc0a0000 	stcgt	0, cr0, [sl], {-0}
    54dc:	1d000000 	stcne	0, cr0, [r0, #-0]
    54e0:	002c0900 	eoreq	r0, ip, r0, lsl #18
    54e4:	07fb0000 	ldrbeq	r0, [fp, r0]!
    54e8:	cc0a0000 	stcgt	0, cr0, [sl], {-0}
    54ec:	1d000000 	stcne	0, cr0, [r0, #-0]
    54f0:	05f01b00 	ldrbeq	r1, [r0, #2816]!	; 0xb00
    54f4:	081d0255 	ldmdaeq	sp, {r0, r2, r4, r6, r9}
    54f8:	441c0000 	ldrmi	r0, [ip], #-0
    54fc:	0500000d 	streq	r0, [r0, #-13]
    5500:	0686026c 	streq	r0, [r6], ip, ror #4
    5504:	d71c0000 	ldrle	r0, [ip, -r0]
    5508:	0500000e 	streq	r0, [r0, #-14]
    550c:	07b70275 			; <UNDEFINED> instruction: 0x07b70275
    5510:	09000000 	stmdbeq	r0, {}	; <UNPREDICTABLE>
    5514:	00000112 	andeq	r0, r0, r2, lsl r1
    5518:	0000082d 	andeq	r0, r0, sp, lsr #16
    551c:	0000cc0a 	andeq	ip, r0, sl, lsl #24
    5520:	1d001800 	stcne	8, cr1, [r0, #-0]
    5524:	00000838 	andeq	r0, r0, r8, lsr r8
    5528:	00042915 	andeq	r2, r4, r5, lsl r9
    552c:	040e0000 	streq	r0, [lr], #-0
    5530:	0000082d 	andeq	r0, r0, sp, lsr #16
    5534:	017c040e 	cmneq	ip, lr, lsl #8
    5538:	4f1d0000 	svcmi	0x001d0000
    553c:	15000008 	strne	r0, [r0, #-8]
    5540:	00000025 	andeq	r0, r0, r5, lsr #32
    5544:	55040e00 	strpl	r0, [r4, #-3584]	; 0xe00
    5548:	0e000008 	cdpeq	0, 0, cr0, cr0, cr8, {0}
    554c:	00084404 	andeq	r4, r8, r4, lsl #8
    5550:	05f40900 	ldrbeq	r0, [r4, #2304]!	; 0x900
    5554:	086b0000 	stmdaeq	fp!, {}^	; <UNPREDICTABLE>
    5558:	cc0a0000 	stcgt	0, cr0, [sl], {-0}
    555c:	02000000 	andeq	r0, r0, #0
    5560:	0e2a1e00 	cdpeq	14, 2, cr1, cr10, cr0, {0}
    5564:	fd050000 	stc2	0, cr0, [r5, #-0]
    5568:	00042902 	andeq	r2, r4, r2, lsl #18
    556c:	0e231e00 	cdpeq	14, 2, cr1, cr3, cr0, {0}
    5570:	fe050000 	cdp2	0, 0, cr0, cr5, cr0, {0}
    5574:	00042f02 	andeq	r2, r4, r2, lsl #30
    5578:	00251400 	eoreq	r1, r5, r0, lsl #8
    557c:	08920000 	ldmeq	r2, {}	; <UNPREDICTABLE>
    5580:	25150000 	ldrcs	r0, [r5, #-0]
    5584:	00000000 	andeq	r0, r0, r0
    5588:	0006241f 	andeq	r2, r6, pc, lsl r4
    558c:	9d1d0600 	ldcls	6, cr0, [sp, #-0]
    5590:	0e000008 	cdpeq	0, 0, cr0, cr0, cr8, {0}
    5594:	00088304 	andeq	r8, r8, r4, lsl #6
    5598:	00251400 	eoreq	r1, r5, r0, lsl #8
    559c:	08b20000 	ldmeq	r2!, {}	; <UNPREDICTABLE>
    55a0:	8a150000 	bhi	5455a8 <__bss_end__+0x53aa98>
    55a4:	00000005 	andeq	r0, r0, r5
    55a8:	0006611f 	andeq	r6, r6, pc, lsl r1
    55ac:	bd220600 	stclt	6, cr0, [r2, #-0]
    55b0:	0e000008 	cdpeq	0, 0, cr0, cr0, cr8, {0}
    55b4:	0008a304 	andeq	sl, r8, r4, lsl #6
    55b8:	54012000 	strpl	r2, [r1], #-0
    55bc:	07000000 	streq	r0, [r0, -r0]
    55c0:	0009000c 	andeq	r0, r9, ip
    55c4:	0a4d2100 	beq	134d9cc <__bss_end__+0x1342ebc>
    55c8:	21000000 	mrscs	r0, (UNDEF: 0)
    55cc:	00000e6a 	andeq	r0, r0, sl, ror #28
    55d0:	0ec22101 	poleqs	f2, f2, f1
    55d4:	21040000 	mrscs	r0, (UNDEF: 4)
    55d8:	00000a8e 	andeq	r0, r0, lr, lsl #21
    55dc:	0c252105 	stfeqs	f2, [r5], #-20	; 0xffffffec
    55e0:	21060000 	mrscs	r0, (UNDEF: 6)
    55e4:	00000edf 	ldrdeq	r0, [r0], -pc	; <UNPREDICTABLE>
    55e8:	0eee2107 	cdpeq	1, 14, cr2, cr14, cr7, {0}
    55ec:	21030000 	mrscs	r0, (UNDEF: 3)
    55f0:	00000efd 	strdeq	r0, [r0], -sp
    55f4:	bc050002 	stclt	0, cr0, [r5], {2}
    55f8:	0700000f 	streq	r0, [r0, -pc]
    55fc:	0008c315 	andeq	ip, r8, r5, lsl r3
    5600:	0f8d2200 	svceq	0x008d2200
    5604:	1d010000 	stcne	0, cr0, [r1, #-0]
    5608:	00000033 	andeq	r0, r0, r3, lsr r0
    560c:	2020001c 	eorcs	r0, r0, ip, lsl r0
    5610:	000fc822 	andeq	ip, pc, r2, lsr #16
    5614:	331e0100 	tstcc	lr, #0, 2
    5618:	28000000 	stmdacs	r0, {}	; <UNPREDICTABLE>
    561c:	22202000 	eorcs	r2, r0, #0
    5620:	00000f97 	muleq	r0, r7, pc	; <UNPREDICTABLE>
    5624:	00331f01 	eorseq	r1, r3, r1, lsl #30
    5628:	00340000 	eorseq	r0, r4, r0
    562c:	68232020 	stmdavs	r3!, {r5, sp}
    5630:	0100000f 	tsteq	r0, pc
    5634:	00002556 	andeq	r2, r0, r6, asr r5
    5638:	009e3800 	addseq	r3, lr, r0, lsl #16
    563c:	00003400 	andeq	r3, r0, r0, lsl #8
    5640:	989c0100 	ldmls	ip, {r8}
    5644:	24000009 	strcs	r0, [r0], #-9
    5648:	006e6970 	rsbeq	r6, lr, r0, ror r9
    564c:	002c5601 	eoreq	r5, ip, r1, lsl #12
    5650:	10ae0000 	adcne	r0, lr, r0
    5654:	5c250000 	stcpl	0, cr0, [r5], #-0
    5658:	0100000f 	tsteq	r0, pc
    565c:	00002c59 	andeq	r2, r0, r9, asr ip
    5660:	0010e800 	andseq	lr, r0, r0, lsl #16
    5664:	666f2600 	strbtvs	r2, [pc], -r0, lsl #12
    5668:	5a010066 	bpl	45808 <__bss_end__+0x3acf8>
    566c:	0000002c 	andeq	r0, r0, ip, lsr #32
    5670:	00001126 	andeq	r1, r0, r6, lsr #2
    5674:	009e5427 	addseq	r5, lr, r7, lsr #8
    5678:	000b5d00 	andeq	r5, fp, r0, lsl #26
    567c:	50012800 	andpl	r2, r1, r0, lsl #16
    5680:	5001f30b 	andpl	pc, r1, fp, lsl #6
    5684:	b4232535 	strtlt	r2, [r3], #-1333	; 0x535
    5688:	02818080 	addeq	r8, r1, #128	; 0x80
    568c:	82290000 	eorhi	r0, r9, #0
    5690:	0100000f 	tsteq	r0, pc
    5694:	009e1c4f 	addseq	r1, lr, pc, asr #24
    5698:	00001c00 	andeq	r1, r0, r0, lsl #24
    569c:	e89c0100 	ldm	ip, {r8}
    56a0:	24000009 	strcs	r0, [r0], #-9
    56a4:	006e6970 	rsbeq	r6, lr, r0, ror r9
    56a8:	002c4f01 	eoreq	r4, ip, r1, lsl #30
    56ac:	11390000 	teqne	r9, r0
    56b0:	76240000 	strtvc	r0, [r4], -r0
    56b4:	2c4f0100 	stfcse	f0, [pc], {-0}
    56b8:	73000000 	movwvc	r0, #0
    56bc:	2a000011 	bcs	5708 <__code_start__-0x28f8>
    56c0:	00009e2c 	andeq	r9, r0, ip, lsr #28
    56c4:	00000a23 	andeq	r0, r0, r3, lsr #20
    56c8:	000009de 	ldrdeq	r0, [r0], -lr
    56cc:	03500128 	cmpeq	r0, #40, 2
    56d0:	005001f3 	ldrsheq	r0, [r0], #-19	; 0xffffffed
    56d4:	009e342b 	addseq	r3, lr, fp, lsr #8
    56d8:	000a6400 	andeq	r6, sl, r0, lsl #8
    56dc:	a1290000 	teqge	r9, r0
    56e0:	0100000f 	tsteq	r0, pc
    56e4:	009e0c4a 	addseq	r0, lr, sl, asr #24
    56e8:	00001000 	andeq	r1, r0, r0
    56ec:	239c0100 	orrscs	r0, ip, #0, 2
    56f0:	2400000a 	strcs	r0, [r0], #-10
    56f4:	006e6970 	rsbeq	r6, lr, r0, ror r9
    56f8:	002c4a01 	eoreq	r4, ip, r1, lsl #20
    56fc:	11ad0000 			; <UNDEFINED> instruction: 0x11ad0000
    5700:	18270000 	stmdane	r7!, {}	; <UNPREDICTABLE>
    5704:	e000009e 	mul	r0, lr, r0
    5708:	2800000a 	stmdacs	r0, {r1, r3}
    570c:	f3035001 	vhadd.u8	d5, d3, d1
    5710:	01285001 	teqeq	r8, r1
    5714:	00300151 	eorseq	r0, r0, r1, asr r1
    5718:	0f4f2900 	svceq	0x004f2900
    571c:	43010000 	movwmi	r0, #4096	; 0x1000
    5720:	00009de8 	andeq	r9, r0, r8, ror #27
    5724:	00000024 	andeq	r0, r0, r4, lsr #32
    5728:	0a649c01 	beq	192c734 <__bss_end__+0x1921c24>
    572c:	70240000 	eorvc	r0, r4, r0
    5730:	01006e69 	tsteq	r0, r9, ror #28
    5734:	00002c43 	andeq	r2, r0, r3, asr #24
    5738:	0011ce00 	andseq	ip, r1, r0, lsl #28
    573c:	9e042700 	cdpls	7, 0, cr2, cr4, cr0, {0}
    5740:	0b680000 	bleq	1a05748 <__bss_end__+0x19fac38>
    5744:	01280000 	teqeq	r8, r0
    5748:	280c0550 	stmdacs	ip, {r4, r6, r8, sl}
    574c:	28202000 	stmdacs	r0!, {sp}
    5750:	31055101 	tstcc	r5, r1, lsl #2
    5754:	245001f3 	ldrbcs	r0, [r0], #-499	; 0x1f3
    5758:	b0290000 	eorlt	r0, r9, r0
    575c:	0100000f 	tsteq	r0, pc
    5760:	009dc43c 	addseq	ip, sp, ip, lsr r4
    5764:	00002400 	andeq	r2, r0, r0, lsl #8
    5768:	a59c0100 	ldrge	r0, [ip, #256]	; 0x100
    576c:	2400000a 	strcs	r0, [r0], #-10
    5770:	006e6970 	rsbeq	r6, lr, r0, ror r9
    5774:	002c3c01 	eoreq	r3, ip, r1, lsl #24
    5778:	11ef0000 	mvnne	r0, r0
    577c:	e0270000 	eor	r0, r7, r0
    5780:	6800009d 	stmdavs	r0, {r0, r2, r3, r4, r7}
    5784:	2800000b 	stmdacs	r0, {r0, r1, r3}
    5788:	0c055001 	stceq	0, cr5, [r5], {1}
    578c:	2020001c 	eorcs	r0, r0, ip, lsl r0
    5790:	05510128 	ldrbeq	r0, [r1, #-296]	; 0x128
    5794:	5001f331 	andpl	pc, r1, r1, lsr r3	; <UNPREDICTABLE>
    5798:	29000024 	stmdbcs	r0, {r2, r5}
    579c:	00000f72 	andeq	r0, r0, r2, ror pc
    57a0:	9db43701 	ldcls	7, cr3, [r4, #4]!
    57a4:	00100000 	andseq	r0, r0, r0
    57a8:	9c010000 	stcls	0, cr0, [r1], {-0}
    57ac:	00000ae0 	andeq	r0, r0, r0, ror #21
    57b0:	6e697024 	cdpvs	0, 6, cr7, cr9, cr4, {1}
    57b4:	2c370100 	ldfcss	f0, [r7], #-0
    57b8:	10000000 	andne	r0, r0, r0
    57bc:	27000012 	smladcs	r0, r2, r0, r0
    57c0:	00009dc0 	andeq	r9, r0, r0, asr #27
    57c4:	00000ae0 	andeq	r0, r0, r0, ror #21
    57c8:	03500128 	cmpeq	r0, #40, 2
    57cc:	285001f3 	ldmdacs	r0, {r0, r1, r4, r5, r6, r7, r8}^
    57d0:	31015101 	tstcc	r1, r1, lsl #2
    57d4:	5b290000 	blpl	a457dc <__bss_end__+0xa3accc>
    57d8:	0100000c 	tsteq	r0, ip
    57dc:	009d4c28 	addseq	r4, sp, r8, lsr #24
    57e0:	00006800 	andeq	r6, r0, r0, lsl #16
    57e4:	5d9c0100 	ldfpls	f0, [ip]
    57e8:	2400000b 	strcs	r0, [r0], #-11
    57ec:	006e6970 	rsbeq	r6, lr, r0, ror r9
    57f0:	002c2801 	eoreq	r2, ip, r1, lsl #16
    57f4:	12310000 	eorsne	r0, r1, #0
    57f8:	a72c0000 	strge	r0, [ip, -r0]!
    57fc:	0100000e 	tsteq	r0, lr
    5800:	00090028 	andeq	r0, r9, r8, lsr #32
    5804:	00125200 	andseq	r5, r2, r0, lsl #4
    5808:	666f2d00 	strbtvs	r2, [pc], -r0, lsl #26
    580c:	2d010066 	stccs	0, cr0, [r1, #-408]	; 0xfffffe68
    5810:	0000002c 	andeq	r0, r0, ip, lsr #32
    5814:	672d5401 	strvs	r5, [sp, -r1, lsl #8]!
    5818:	2c2f0100 	stfcss	f0, [pc], #-0	; 5820 <__code_start__-0x27e0>
    581c:	01000000 	mrseq	r0, (UNDEF: 0)
    5820:	00762656 	rsbseq	r2, r6, r6, asr r6
    5824:	002c3101 	eoreq	r3, ip, r1, lsl #2
    5828:	12730000 	rsbsne	r0, r3, #0
    582c:	982a0000 	stmdals	sl!, {}	; <UNPREDICTABLE>
    5830:	5d00009d 	stcpl	0, cr0, [r0, #-628]	; 0xfffffd8c
    5834:	4c00000b 	stcmi	0, cr0, [r0], {11}
    5838:	2800000b 	stmdacs	r0, {r0, r1, r3}
    583c:	76025001 	strvc	r5, [r2], -r1
    5840:	ac270000 	stcge	0, cr0, [r7], #-0
    5844:	6800009d 	stmdavs	r0, {r0, r2, r3, r4, r7}
    5848:	2800000b 	stmdacs	r0, {r0, r1, r3}
    584c:	76025001 	strvc	r5, [r2], -r1
    5850:	2e000000 	cdpcs	0, 0, cr0, cr0, cr0, {0}
    5854:	000009c4 	andeq	r0, r0, r4, asr #19
    5858:	000009c4 	andeq	r0, r0, r4, asr #19
    585c:	fe2ea706 	cdp2	7, 2, cr10, cr14, cr6, {0}
    5860:	fe000008 	cdp2	0, 0, cr0, cr0, cr8, {0}
    5864:	06000008 	streq	r0, [r0], -r8
    5868:	Address 0x0000000000005868 is out of bounds.


Disassembly of section .debug_abbrev:

00000000 <.debug_abbrev>:
       0:	25011101 	strcs	r1, [r1, #-257]	; 0x101
       4:	030b130e 	movweq	r1, #45838	; 0xb30e
       8:	110e1b0e 	tstne	lr, lr, lsl #22
       c:	10061201 	andne	r1, r6, r1, lsl #4
      10:	02000017 	andeq	r0, r0, #23
      14:	0b0b0024 	bleq	2c00ac <__bss_end__+0x2b559c>
      18:	08030b3e 	stmdaeq	r3, {r1, r2, r3, r4, r5, r8, r9, fp}
      1c:	24030000 	strcs	r0, [r3], #-0
      20:	3e0b0b00 	vmlacc.f64	d0, d11, d0
      24:	000e030b 	andeq	r0, lr, fp, lsl #6
      28:	00160400 	andseq	r0, r6, r0, lsl #8
      2c:	0b3a0e03 	bleq	e83840 <__bss_end__+0xe78d30>
      30:	13490b3b 	movtne	r0, #39739	; 0x9b3b
      34:	0f050000 	svceq	0x00050000
      38:	490b0b00 	stmdbmi	fp, {r8, r9, fp}
      3c:	06000013 			; <UNDEFINED> instruction: 0x06000013
      40:	13490026 	movtne	r0, #36902	; 0x9026
      44:	01070000 	mrseq	r0, (UNDEF: 7)
      48:	01134901 	tsteq	r3, r1, lsl #18
      4c:	08000013 	stmdaeq	r0, {r0, r1, r4}
      50:	13490021 	movtne	r0, #36897	; 0x9021
      54:	00000b2f 	andeq	r0, r0, pc, lsr #22
      58:	03011309 	movweq	r1, #4873	; 0x1309
      5c:	3a0b0b0e 	bcc	2c2c9c <__bss_end__+0x2b818c>
      60:	010b3b0b 	tsteq	fp, fp, lsl #22
      64:	0a000013 	beq	b8 <__code_start__-0x7f48>
      68:	0e03000d 	cdpeq	0, 0, cr0, cr3, cr13, {0}
      6c:	0b3b0b3a 	bleq	ec2d5c <__bss_end__+0xeb824c>
      70:	0b381349 	bleq	e04d9c <__bss_end__+0xdfa28c>
      74:	0d0b0000 	stceq	0, cr0, [fp, #-0]
      78:	3a080300 	bcc	200c80 <__bss_end__+0x1f6170>
      7c:	490b3b0b 	stmdbmi	fp, {r0, r1, r3, r8, r9, fp, ip, sp}
      80:	000b3813 	andeq	r3, fp, r3, lsl r8
      84:	00350c00 	eorseq	r0, r5, r0, lsl #24
      88:	150d0000 	strne	r0, [sp, #-0]
      8c:	01192701 	tsteq	r9, r1, lsl #14
      90:	0e000013 	mcreq	0, 0, r0, cr0, cr3, {0}
      94:	13490005 	movtne	r0, #36869	; 0x9005
      98:	150f0000 	strne	r0, [pc, #-0]	; a0 <__code_start__-0x7f60>
      9c:	49192701 	ldmdbmi	r9, {r0, r8, r9, sl, sp}
      a0:	00130113 	andseq	r0, r3, r3, lsl r1
      a4:	00351000 	eorseq	r1, r5, r0
      a8:	00001349 	andeq	r1, r0, r9, asr #6
      ac:	03012e11 	movweq	r2, #7697	; 0x1e11
      b0:	3b0b3a0e 	blcc	2ce8f0 <__bss_end__+0x2c3de0>
      b4:	2019270b 	andscs	r2, r9, fp, lsl #14
      b8:	0013010b 	andseq	r0, r3, fp, lsl #2
      bc:	00051200 	andeq	r1, r5, r0, lsl #4
      c0:	0b3a0803 	bleq	e820d4 <__bss_end__+0xe775c4>
      c4:	13490b3b 	movtne	r0, #39739	; 0x9b3b
      c8:	2e130000 	cdpcs	0, 1, cr0, cr3, cr0, {0}
      cc:	3a0e0301 	bcc	380cd8 <__bss_end__+0x3761c8>
      d0:	270b3b0b 	strcs	r3, [fp, -fp, lsl #22]
      d4:	20134919 	andscs	r4, r3, r9, lsl r9
      d8:	0013010b 	andseq	r0, r3, fp, lsl #2
      dc:	00051400 	andeq	r1, r5, r0, lsl #8
      e0:	0b3a0e03 	bleq	e838f4 <__bss_end__+0xe78de4>
      e4:	13490b3b 	movtne	r0, #39739	; 0x9b3b
      e8:	2e150000 	cdpcs	0, 1, cr0, cr5, cr0, {0}
      ec:	03193f00 	tsteq	r9, #0, 30
      f0:	3b0b3a0e 	blcc	2ce930 <__bss_end__+0x2c3e20>
      f4:	4919270b 	ldmdbmi	r9, {r0, r1, r3, r8, r9, sl, sp}
      f8:	000b2013 	andeq	r2, fp, r3, lsl r0
      fc:	00341600 	eorseq	r1, r4, r0, lsl #12
     100:	0b3a0e03 	bleq	e83914 <__bss_end__+0xe78e04>
     104:	13490b3b 	movtne	r0, #39739	; 0x9b3b
     108:	34170000 	ldrcc	r0, [r7], #-0
     10c:	490e0300 	stmdbmi	lr, {r8, r9}
     110:	1c193413 	cfldrsne	mvf3, [r9], {19}
     114:	1800000e 	stmdane	r0, {r1, r2, r3}
     118:	08030034 	stmdaeq	r3, {r2, r4, r5}
     11c:	0b3b0b3a 	bleq	ec2e0c <__bss_end__+0xeb82fc>
     120:	00001349 	andeq	r1, r0, r9, asr #6
     124:	31012e19 	tstcc	r1, r9, lsl lr
     128:	12011113 	andne	r1, r1, #-1073741820	; 0xc0000004
     12c:	97184006 	ldrls	r4, [r8, -r6]
     130:	13011942 	movwne	r1, #6466	; 0x1942
     134:	051a0000 	ldreq	r0, [sl, #-0]
     138:	02133100 	andseq	r3, r3, #0, 2
     13c:	1b000017 	blne	1a0 <__code_start__-0x7e60>
     140:	13310034 	teqne	r1, #52	; 0x34
     144:	341c0000 	ldrcc	r0, [ip], #-0
     148:	02133100 	andseq	r3, r3, #0, 2
     14c:	1d000018 	stcne	0, cr0, [r0, #-96]	; 0xffffffa0
     150:	1331011d 	teqne	r1, #1073741831	; 0x40000007
     154:	06120111 			; <UNDEFINED> instruction: 0x06120111
     158:	0b590b58 	bleq	1642ec0 <__bss_end__+0x16383b0>
     15c:	00001301 	andeq	r1, r0, r1, lsl #6
     160:	3100051e 	tstcc	r0, lr, lsl r5
     164:	000b1c13 	andeq	r1, fp, r3, lsl ip
     168:	010b1f00 	tsteq	fp, r0, lsl #30
     16c:	06120111 			; <UNDEFINED> instruction: 0x06120111
     170:	34200000 	strtcc	r0, [r0], #-0
     174:	1c133100 	ldfnes	f3, [r3], {-0}
     178:	2100000b 	tstcs	r0, fp
     17c:	13310005 	teqne	r1, #5
     180:	89220000 	stmdbhi	r2!, {}	; <UNPREDICTABLE>
     184:	11000182 	smlabbne	r0, r2, r1, r0
     188:	00133101 	andseq	r3, r3, r1, lsl #2
     18c:	82892300 	addhi	r2, r9, #0, 6
     190:	01110101 	tsteq	r1, r1, lsl #2
     194:	13011331 	movwne	r1, #4913	; 0x1331
     198:	8a240000 	bhi	9001a0 <__bss_end__+0x8f5690>
     19c:	02000182 	andeq	r0, r0, #-2147483616	; 0x80000020
     1a0:	18429118 	stmdane	r2, {r3, r4, r8, ip, pc}^
     1a4:	2e250000 	cdpcs	0, 2, cr0, cr5, cr0, {0}
     1a8:	3a0e0301 	bcc	380db4 <__bss_end__+0x3762a4>
     1ac:	270b3b0b 	strcs	r3, [fp, -fp, lsl #22]
     1b0:	12011119 	andne	r1, r1, #1073741830	; 0x40000006
     1b4:	97184006 	ldrls	r4, [r8, -r6]
     1b8:	13011942 	movwne	r1, #6466	; 0x1942
     1bc:	05260000 	streq	r0, [r6, #-0]!
     1c0:	3a080300 	bcc	200dc8 <__bss_end__+0x1f62b8>
     1c4:	490b3b0b 	stmdbmi	fp, {r0, r1, r3, r8, r9, fp, ip, sp}
     1c8:	00170213 	andseq	r0, r7, r3, lsl r2
     1cc:	00342700 	eorseq	r2, r4, r0, lsl #14
     1d0:	13490e03 	movtne	r0, #40451	; 0x9e03
     1d4:	18021934 	stmdane	r2, {r2, r4, r5, r8, fp, ip}
     1d8:	05280000 	streq	r0, [r8, #-0]!
     1dc:	02133100 	andseq	r3, r3, #0, 2
     1e0:	29000018 	stmdbcs	r0, {r3, r4}
     1e4:	01018289 	smlabbeq	r1, r9, r2, r8
     1e8:	13310111 	teqne	r1, #1073741828	; 0x40000004
     1ec:	342a0000 	strtcc	r0, [sl], #-0
     1f0:	02133100 	andseq	r3, r3, #0, 2
     1f4:	2b000017 	blcs	258 <__code_start__-0x7da8>
     1f8:	0e03012e 	adfeqsp	f0, f3, #0.5
     1fc:	0b3b0b3a 	bleq	ec2eec <__bss_end__+0xeb83dc>
     200:	13491927 	movtne	r1, #39207	; 0x9927
     204:	06120111 			; <UNDEFINED> instruction: 0x06120111
     208:	42971840 	addsmi	r1, r7, #64, 16	; 0x400000
     20c:	00130119 	andseq	r0, r3, r9, lsl r1
     210:	011d2c00 	tsteq	sp, r0, lsl #24
     214:	01111331 	tsteq	r1, r1, lsr r3
     218:	0b580612 	bleq	1601a68 <__bss_end__+0x15f6f58>
     21c:	00000b59 	andeq	r0, r0, r9, asr fp
     220:	0300052d 	movweq	r0, #1325	; 0x52d
     224:	3b0b3a08 	blcc	2cea4c <__bss_end__+0x2c3f3c>
     228:	0213490b 	andseq	r4, r3, #180224	; 0x2c000
     22c:	2e000018 	mcrcs	0, 0, r0, cr0, cr8, {0}
     230:	193f002e 	ldmdbne	pc!, {r1, r2, r3, r5}	; <UNPREDICTABLE>
     234:	0b3a0e03 	bleq	e83a48 <__bss_end__+0xe78f38>
     238:	19270b3b 	stmdbne	r7!, {r0, r1, r3, r4, r5, r8, r9, fp}
     23c:	01111349 	tsteq	r1, r9, asr #6
     240:	18400612 	stmdane	r0, {r1, r4, r9, sl}^
     244:	00194297 	mulseq	r9, r7, r2
     248:	012e2f00 	teqeq	lr, r0, lsl #30
     24c:	0e03193f 	mcreq	9, 0, r1, cr3, cr15, {1}
     250:	0b3b0b3a 	bleq	ec2f40 <__bss_end__+0xeb8430>
     254:	01111927 	tsteq	r1, r7, lsr #18
     258:	18400612 	stmdane	r0, {r1, r4, r9, sl}^
     25c:	01194297 			; <UNDEFINED> instruction: 0x01194297
     260:	30000013 	andcc	r0, r0, r3, lsl r0
     264:	08030034 	stmdaeq	r3, {r2, r4, r5}
     268:	0b3b0b3a 	bleq	ec2f58 <__bss_end__+0xeb8448>
     26c:	18021349 	stmdane	r2, {r0, r3, r6, r8, r9, ip}
     270:	0b310000 	bleq	c40278 <__bss_end__+0xc35768>
     274:	01175501 	tsteq	r7, r1, lsl #10
     278:	32000013 	andcc	r0, r0, #19
     27c:	08030034 	stmdaeq	r3, {r2, r4, r5}
     280:	0b3b0b3a 	bleq	ec2f70 <__bss_end__+0xeb8460>
     284:	17021349 	strne	r1, [r2, -r9, asr #6]
     288:	1d330000 	ldcne	0, cr0, [r3, #-0]
     28c:	52133101 	andspl	r3, r3, #1073741824	; 0x40000000
     290:	58175501 	ldmdapl	r7, {r0, r8, sl, ip, lr}
     294:	010b590b 	tsteq	fp, fp, lsl #18
     298:	34000013 	strcc	r0, [r0], #-19
     29c:	0e030034 	mcreq	0, 0, r0, cr3, cr4, {1}
     2a0:	0b3b0b3a 	bleq	ec2f90 <__bss_end__+0xeb8480>
     2a4:	193f1349 	ldmdbne	pc!, {r0, r3, r6, r8, r9, ip}	; <UNPREDICTABLE>
     2a8:	0000193c 	andeq	r1, r0, ip, lsr r9
     2ac:	3f002e35 	svccc	0x00002e35
     2b0:	3a0e0319 	bcc	380f1c <__bss_end__+0x37640c>
     2b4:	270b3b0b 	strcs	r3, [fp, -fp, lsl #22]
     2b8:	00193c19 	andseq	r3, r9, r9, lsl ip
     2bc:	012e3600 	teqeq	lr, r0, lsl #12
     2c0:	0e03193f 	mcreq	9, 0, r1, cr3, cr15, {1}
     2c4:	0b3b0b3a 	bleq	ec2fb4 <__bss_end__+0xeb84a4>
     2c8:	13491927 	movtne	r1, #39207	; 0x9927
     2cc:	1301193c 	movwne	r1, #6460	; 0x193c
     2d0:	18370000 	ldmdane	r7!, {}	; <UNPREDICTABLE>
     2d4:	38000000 	stmdacc	r0, {}	; <UNPREDICTABLE>
     2d8:	193f012e 	ldmdbne	pc!, {r1, r2, r3, r5, r8}	; <UNPREDICTABLE>
     2dc:	0b3a0e03 	bleq	e83af0 <__bss_end__+0xe78fe0>
     2e0:	19270b3b 	stmdbne	r7!, {r0, r1, r3, r4, r5, r8, r9, fp}
     2e4:	193c1349 	ldmdbne	ip!, {r0, r3, r6, r8, r9, ip}
     2e8:	01000000 	mrseq	r0, (UNDEF: 0)
     2ec:	0e250111 	mcreq	1, 1, r0, cr5, cr1, {0}
     2f0:	0e030b13 	vmoveq.32	d3[0], r0
     2f4:	01110e1b 	tsteq	r1, fp, lsl lr
     2f8:	17100612 			; <UNDEFINED> instruction: 0x17100612
     2fc:	24020000 	strcs	r0, [r2], #-0
     300:	3e0b0b00 	vmlacc.f64	d0, d11, d0
     304:	0008030b 	andeq	r0, r8, fp, lsl #6
     308:	00240300 	eoreq	r0, r4, r0, lsl #6
     30c:	0b3e0b0b 	bleq	f82f40 <__bss_end__+0xf78430>
     310:	00000e03 	andeq	r0, r0, r3, lsl #28
     314:	03001604 	movweq	r1, #1540	; 0x604
     318:	3b0b3a0e 	blcc	2ceb58 <__bss_end__+0x2c4048>
     31c:	0013490b 	andseq	r4, r3, fp, lsl #18
     320:	000f0500 	andeq	r0, pc, r0, lsl #10
     324:	00000b0b 	andeq	r0, r0, fp, lsl #22
     328:	0b000f06 	bleq	3f48 <__code_start__-0x40b8>
     32c:	0013490b 	andseq	r4, r3, fp, lsl #18
     330:	00260700 	eoreq	r0, r6, r0, lsl #14
     334:	00001349 	andeq	r1, r0, r9, asr #6
     338:	27011508 	strcs	r1, [r1, -r8, lsl #10]
     33c:	00130119 	andseq	r0, r3, r9, lsl r1
     340:	00050900 	andeq	r0, r5, r0, lsl #18
     344:	00001349 	andeq	r1, r0, r9, asr #6
     348:	03012e0a 	movweq	r2, #7690	; 0x1e0a
     34c:	3b0b3a0e 	blcc	2ceb8c <__bss_end__+0x2c407c>
     350:	4919270b 	ldmdbmi	r9, {r0, r1, r3, r8, r9, sl, sp}
     354:	010b2013 	tsteq	fp, r3, lsl r0
     358:	0b000013 	bleq	3ac <__code_start__-0x7c54>
     35c:	08030034 	stmdaeq	r3, {r2, r4, r5}
     360:	0b3b0b3a 	bleq	ec3050 <__bss_end__+0xeb8540>
     364:	00001349 	andeq	r1, r0, r9, asr #6
     368:	0300050c 	movweq	r0, #1292	; 0x50c
     36c:	3b0b3a08 	blcc	2ceb94 <__bss_end__+0x2c4084>
     370:	0013490b 	andseq	r4, r3, fp, lsl #18
     374:	012e0d00 	teqeq	lr, r0, lsl #26
     378:	0b3a0e03 	bleq	e83b8c <__bss_end__+0xe7907c>
     37c:	19270b3b 	stmdbne	r7!, {r0, r1, r3, r4, r5, r8, r9, fp}
     380:	13010b20 	movwne	r0, #6944	; 0x1b20
     384:	340e0000 	strcc	r0, [lr], #-0
     388:	3a0e0300 	bcc	380f90 <__bss_end__+0x376480>
     38c:	490b3b0b 	stmdbmi	fp, {r0, r1, r3, r8, r9, fp, ip, sp}
     390:	0f000013 	svceq	0x00000013
     394:	193f012e 	ldmdbne	pc!, {r1, r2, r3, r5, r8}	; <UNPREDICTABLE>
     398:	0b3a0e03 	bleq	e83bac <__bss_end__+0xe7909c>
     39c:	19270b3b 	stmdbne	r7!, {r0, r1, r3, r4, r5, r8, r9, fp}
     3a0:	06120111 			; <UNDEFINED> instruction: 0x06120111
     3a4:	42971840 	addsmi	r1, r7, #64, 16	; 0x400000
     3a8:	00130119 	andseq	r0, r3, r9, lsl r1
     3ac:	00051000 	andeq	r1, r5, r0
     3b0:	0b3a0e03 	bleq	e83bc4 <__bss_end__+0xe790b4>
     3b4:	13490b3b 	movtne	r0, #39739	; 0x9b3b
     3b8:	00001702 	andeq	r1, r0, r2, lsl #14
     3bc:	03003411 	movweq	r3, #1041	; 0x411
     3c0:	3b0b3a0e 	blcc	2cec00 <__bss_end__+0x2c40f0>
     3c4:	0213490b 	andseq	r4, r3, #180224	; 0x2c000
     3c8:	12000017 	andne	r0, r0, #23
     3cc:	0e030034 	mcreq	0, 0, r0, cr3, cr4, {1}
     3d0:	19341349 	ldmdbne	r4!, {r0, r3, r6, r8, r9, ip}
     3d4:	00001802 	andeq	r1, r0, r2, lsl #16
     3d8:	31011d13 	tstcc	r1, r3, lsl sp
     3dc:	12011113 	andne	r1, r1, #-1073741820	; 0xc0000004
     3e0:	590b5806 	stmdbpl	fp, {r1, r2, fp, ip, lr}
     3e4:	0013010b 	andseq	r0, r3, fp, lsl #2
     3e8:	010b1400 	tsteq	fp, r0, lsl #8
     3ec:	06120111 			; <UNDEFINED> instruction: 0x06120111
     3f0:	34150000 	ldrcc	r0, [r5], #-0
     3f4:	02133100 	andseq	r3, r3, #0, 2
     3f8:	16000017 			; <UNDEFINED> instruction: 0x16000017
     3fc:	13310005 	teqne	r1, #5
     400:	00001702 	andeq	r1, r0, r2, lsl #14
     404:	31000517 	tstcc	r0, r7, lsl r5
     408:	00051c13 	andeq	r1, r5, r3, lsl ip
     40c:	00051800 	andeq	r1, r5, r0, lsl #16
     410:	0b1c1331 	bleq	7050dc <__bss_end__+0x6fa5cc>
     414:	89190000 	ldmdbhi	r9, {}	; <UNPREDICTABLE>
     418:	11000182 	smlabbne	r0, r2, r1, r0
     41c:	00133101 	andseq	r3, r3, r1, lsl #2
     420:	82891a00 	addhi	r1, r9, #0, 20
     424:	01110101 	tsteq	r1, r1, lsl #2
     428:	13011331 	movwne	r1, #4913	; 0x1331
     42c:	8a1b0000 	bhi	6c0434 <__bss_end__+0x6b5924>
     430:	02000182 	andeq	r0, r0, #-2147483616	; 0x80000020
     434:	18429118 	stmdane	r2, {r3, r4, r8, ip, pc}^
     438:	011c0000 	tsteq	ip, r0
     43c:	01134901 	tsteq	r3, r1, lsl #18
     440:	1d000013 	stcne	0, cr0, [r0, #-76]	; 0xffffffb4
     444:	13490021 	movtne	r0, #36897	; 0x9021
     448:	00000b2f 	andeq	r0, r0, pc, lsr #22
     44c:	0300341e 	movweq	r3, #1054	; 0x41e
     450:	3413490e 	ldrcc	r4, [r3], #-2318	; 0x90e
     454:	000e1c19 	andeq	r1, lr, r9, lsl ip
     458:	00051f00 	andeq	r1, r5, r0, lsl #30
     45c:	0b3a0803 	bleq	e82470 <__bss_end__+0xe77960>
     460:	13490b3b 	movtne	r0, #39739	; 0x9b3b
     464:	00001702 	andeq	r1, r0, r2, lsl #14
     468:	03003420 	movweq	r3, #1056	; 0x420
     46c:	3b0b3a0e 	blcc	2cecac <__bss_end__+0x2c419c>
     470:	0213490b 	andseq	r4, r3, #180224	; 0x2c000
     474:	21000018 	tstcs	r0, r8, lsl r0
     478:	13310034 	teqne	r1, #52	; 0x34
     47c:	1d220000 	stcne	0, cr0, [r2, #-0]
     480:	11133101 	tstne	r3, r1, lsl #2
     484:	58061201 	stmdapl	r6, {r0, r9, ip}
     488:	000b590b 	andeq	r5, fp, fp, lsl #18
     48c:	00342300 	eorseq	r2, r4, r0, lsl #6
     490:	18021331 	stmdane	r2, {r0, r4, r5, r8, r9, ip}
     494:	89240000 	stmdbhi	r4!, {}	; <UNPREDICTABLE>
     498:	11010182 	smlabbne	r1, r2, r1, r0
     49c:	25000001 	strcs	r0, [r0, #-1]
     4a0:	08030034 	stmdaeq	r3, {r2, r4, r5}
     4a4:	0b3b0b3a 	bleq	ec3194 <__bss_end__+0xeb8684>
     4a8:	051c1349 	ldreq	r1, [ip, #-841]	; 0x349
     4ac:	05260000 	streq	r0, [r6, #-0]!
     4b0:	3a0e0300 	bcc	3810b8 <__bss_end__+0x3765a8>
     4b4:	490b3b0b 	stmdbmi	fp, {r0, r1, r3, r8, r9, fp, ip, sp}
     4b8:	00180213 	andseq	r0, r8, r3, lsl r2
     4bc:	00052700 	andeq	r2, r5, r0, lsl #14
     4c0:	18021331 	stmdane	r2, {r0, r4, r5, r8, r9, ip}
     4c4:	05280000 	streq	r0, [r8, #-0]!
     4c8:	3a080300 	bcc	2010d0 <__bss_end__+0x1f65c0>
     4cc:	490b3b0b 	stmdbmi	fp, {r0, r1, r3, r8, r9, fp, ip, sp}
     4d0:	00180213 	andseq	r0, r8, r3, lsl r2
     4d4:	00052900 	andeq	r2, r5, r0, lsl #18
     4d8:	061c1331 			; <UNDEFINED> instruction: 0x061c1331
     4dc:	342a0000 	strtcc	r0, [sl], #-0
     4e0:	3a0e0300 	bcc	3810e8 <__bss_end__+0x3765d8>
     4e4:	490b3b0b 	stmdbmi	fp, {r0, r1, r3, r8, r9, fp, ip, sp}
     4e8:	00061c13 	andeq	r1, r6, r3, lsl ip
     4ec:	011d2b00 	tsteq	sp, r0, lsl #22
     4f0:	01111331 	tsteq	r1, r1, lsr r3
     4f4:	0b580612 	bleq	1601d44 <__bss_end__+0x15f7234>
     4f8:	00000559 	andeq	r0, r0, r9, asr r5
     4fc:	3f012e2c 	svccc	0x00012e2c
     500:	3a0e0319 	bcc	38116c <__bss_end__+0x37665c>
     504:	27053b0b 	strcs	r3, [r5, -fp, lsl #22]
     508:	11134919 	tstne	r3, r9, lsl r9
     50c:	40061201 	andmi	r1, r6, r1, lsl #4
     510:	19429718 	stmdbne	r2, {r3, r4, r8, r9, sl, ip, pc}^
     514:	00001301 	andeq	r1, r0, r1, lsl #6
     518:	0300052d 	movweq	r0, #1325	; 0x52d
     51c:	3b0b3a08 	blcc	2ced44 <__bss_end__+0x2c4234>
     520:	02134905 	andseq	r4, r3, #81920	; 0x14000
     524:	2e000017 	mcrcs	0, 0, r0, cr0, cr7, {0}
     528:	0e030034 	mcreq	0, 0, r0, cr3, cr4, {1}
     52c:	053b0b3a 	ldreq	r0, [fp, #-2874]!	; 0xb3a
     530:	17021349 	strne	r1, [r2, -r9, asr #6]
     534:	892f0000 	stmdbhi	pc!, {}	; <UNPREDICTABLE>
     538:	11010182 	smlabbne	r1, r2, r1, r0
     53c:	00133101 	andseq	r3, r3, r1, lsl #2
     540:	00343000 	eorseq	r3, r4, r0
     544:	0b3a0e03 	bleq	e83d58 <__bss_end__+0xe79248>
     548:	13490b3b 	movtne	r0, #39739	; 0x9b3b
     54c:	1802193f 	stmdane	r2, {r0, r1, r2, r3, r4, r5, r8, fp, ip}
     550:	2e310000 	cdpcs	0, 3, cr0, cr1, cr0, {0}
     554:	03193f00 	tsteq	r9, #0, 30
     558:	3b0b3a0e 	blcc	2ced98 <__bss_end__+0x2c4288>
     55c:	3c19270b 	ldccc	7, cr2, [r9], {11}
     560:	32000019 	andcc	r0, r0, #25
     564:	193f012e 	ldmdbne	pc!, {r1, r2, r3, r5, r8}	; <UNPREDICTABLE>
     568:	0b3a0e03 	bleq	e83d7c <__bss_end__+0xe7926c>
     56c:	19270b3b 	stmdbne	r7!, {r0, r1, r3, r4, r5, r8, r9, fp}
     570:	193c1349 	ldmdbne	ip!, {r0, r3, r6, r8, r9, ip}
     574:	00001301 	andeq	r1, r0, r1, lsl #6
     578:	00001833 	andeq	r1, r0, r3, lsr r8
     57c:	11010000 	mrsne	r0, (UNDEF: 1)
     580:	130e2501 	movwne	r2, #58625	; 0xe501
     584:	1b0e030b 	blne	3811b8 <__bss_end__+0x3766a8>
     588:	1201110e 	andne	r1, r1, #-2147483645	; 0x80000003
     58c:	00171006 	andseq	r1, r7, r6
     590:	00240200 	eoreq	r0, r4, r0, lsl #4
     594:	0b3e0b0b 	bleq	f831c8 <__bss_end__+0xf786b8>
     598:	00000803 	andeq	r0, r0, r3, lsl #16
     59c:	0b002403 	bleq	95b0 <rpi_set_output+0x4c>
     5a0:	030b3e0b 	movweq	r3, #48651	; 0xbe0b
     5a4:	0400000e 	streq	r0, [r0], #-14
     5a8:	0e030016 	mcreq	0, 0, r0, cr3, cr6, {0}
     5ac:	0b3b0b3a 	bleq	ec329c <__bss_end__+0xeb878c>
     5b0:	00001349 	andeq	r1, r0, r9, asr #6
     5b4:	0b000f05 	bleq	41d0 <__code_start__-0x3e30>
     5b8:	0600000b 	streq	r0, [r0], -fp
     5bc:	0b0b000f 	bleq	2c0600 <__bss_end__+0x2b5af0>
     5c0:	00001349 	andeq	r1, r0, r9, asr #6
     5c4:	49002607 	stmdbmi	r0, {r0, r1, r2, r9, sl, sp}
     5c8:	08000013 	stmdaeq	r0, {r0, r1, r4}
     5cc:	19270115 	stmdbne	r7!, {r0, r2, r4, r8}
     5d0:	00001301 	andeq	r1, r0, r1, lsl #6
     5d4:	49000509 	stmdbmi	r0, {r0, r3, r8, sl}
     5d8:	0a000013 	beq	62c <__code_start__-0x79d4>
     5dc:	0e030113 	mcreq	1, 0, r0, cr3, cr3, {0}
     5e0:	0b3a0b0b 	bleq	e83214 <__bss_end__+0xe78704>
     5e4:	13010b3b 	movwne	r0, #6971	; 0x1b3b
     5e8:	0d0b0000 	stceq	0, cr0, [fp, #-0]
     5ec:	3a0e0300 	bcc	3811f4 <__bss_end__+0x3766e4>
     5f0:	490b3b0b 	stmdbmi	fp, {r0, r1, r3, r8, r9, fp, ip, sp}
     5f4:	000b3813 	andeq	r3, fp, r3, lsl r8
     5f8:	000d0c00 	andeq	r0, sp, r0, lsl #24
     5fc:	0b3a0803 	bleq	e82610 <__bss_end__+0xe77b00>
     600:	13490b3b 	movtne	r0, #39739	; 0x9b3b
     604:	00000b38 	andeq	r0, r0, r8, lsr fp
     608:	0000350d 	andeq	r3, r0, sp, lsl #10
     60c:	01150e00 	tsteq	r5, r0, lsl #28
     610:	13491927 	movtne	r1, #39207	; 0x9927
     614:	00001301 	andeq	r1, r0, r1, lsl #6
     618:	4900350f 	stmdbmi	r0, {r0, r1, r2, r3, r8, sl, ip, sp}
     61c:	10000013 	andne	r0, r0, r3, lsl r0
     620:	0e03012e 	adfeqsp	f0, f3, #0.5
     624:	0b3b0b3a 	bleq	ec3314 <__bss_end__+0xeb8804>
     628:	13491927 	movtne	r1, #39207	; 0x9927
     62c:	13010b20 	movwne	r0, #6944	; 0x1b20
     630:	34110000 	ldrcc	r0, [r1], #-0
     634:	3a080300 	bcc	20123c <__bss_end__+0x1f672c>
     638:	490b3b0b 	stmdbmi	fp, {r0, r1, r3, r8, r9, fp, ip, sp}
     63c:	12000013 	andne	r0, r0, #19
     640:	0e030005 	cdpeq	0, 0, cr0, cr3, cr5, {0}
     644:	0b3b0b3a 	bleq	ec3334 <__bss_end__+0xeb8824>
     648:	00001349 	andeq	r1, r0, r9, asr #6
     64c:	03003413 	movweq	r3, #1043	; 0x413
     650:	3b0b3a0e 	blcc	2cee90 <__bss_end__+0x2c4380>
     654:	0013490b 	andseq	r4, r3, fp, lsl #18
     658:	012e1400 	teqeq	lr, r0, lsl #8
     65c:	0b3a0e03 	bleq	e83e70 <__bss_end__+0xe79360>
     660:	19270b3b 	stmdbne	r7!, {r0, r1, r3, r4, r5, r8, r9, fp}
     664:	06120111 			; <UNDEFINED> instruction: 0x06120111
     668:	42971840 	addsmi	r1, r7, #64, 16	; 0x400000
     66c:	00130119 	andseq	r0, r3, r9, lsl r1
     670:	00051500 	andeq	r1, r5, r0, lsl #10
     674:	0b3a0e03 	bleq	e83e88 <__bss_end__+0xe79378>
     678:	13490b3b 	movtne	r0, #39739	; 0x9b3b
     67c:	00001702 	andeq	r1, r0, r2, lsl #14
     680:	03000516 	movweq	r0, #1302	; 0x516
     684:	3b0b3a08 	blcc	2ceeac <__bss_end__+0x2c439c>
     688:	0213490b 	andseq	r4, r3, #180224	; 0x2c000
     68c:	17000017 	smladne	r0, r7, r0, r0
     690:	0e030034 	mcreq	0, 0, r0, cr3, cr4, {1}
     694:	19341349 	ldmdbne	r4!, {r0, r3, r6, r8, r9, ip}
     698:	00001802 	andeq	r1, r0, r2, lsl #16
     69c:	03003418 	movweq	r3, #1048	; 0x418
     6a0:	3b0b3a08 	blcc	2ceec8 <__bss_end__+0x2c43b8>
     6a4:	0213490b 	andseq	r4, r3, #180224	; 0x2c000
     6a8:	19000017 	stmdbne	r0, {r0, r1, r2, r4}
     6ac:	1331011d 	teqne	r1, #1073741831	; 0x40000007
     6b0:	06120111 			; <UNDEFINED> instruction: 0x06120111
     6b4:	0b590b58 	bleq	164341c <__bss_end__+0x163890c>
     6b8:	00001301 	andeq	r1, r0, r1, lsl #6
     6bc:	11010b1a 	tstne	r1, sl, lsl fp
     6c0:	00061201 	andeq	r1, r6, r1, lsl #4
     6c4:	00341b00 	eorseq	r1, r4, r0, lsl #22
     6c8:	00001331 	andeq	r1, r0, r1, lsr r3
     6cc:	31011d1c 	tstcc	r1, ip, lsl sp
     6d0:	12011113 	andne	r1, r1, #-1073741820	; 0xc0000004
     6d4:	590b5806 	stmdbpl	fp, {r1, r2, fp, ip, lr}
     6d8:	1d00000b 	stcne	0, cr0, [r0, #-44]	; 0xffffffd4
     6dc:	13310034 	teqne	r1, #52	; 0x34
     6e0:	00001702 	andeq	r1, r0, r2, lsl #14
     6e4:	0182891e 	orreq	r8, r2, lr, lsl r9
     6e8:	31011101 	tstcc	r1, r1, lsl #2
     6ec:	00130113 	andseq	r0, r3, r3, lsl r1
     6f0:	828a1f00 	addhi	r1, sl, #0, 30
     6f4:	18020001 	stmdane	r2, {r0}
     6f8:	00184291 	mulseq	r8, r1, r2
     6fc:	82892000 	addhi	r2, r9, #0
     700:	01110001 	tsteq	r1, r1
     704:	00001331 	andeq	r1, r0, r1, lsr r3
     708:	01828921 	orreq	r8, r2, r1, lsr #18
     70c:	01011101 	tsteq	r1, r1, lsl #2
     710:	22000013 	andcs	r0, r0, #19
     714:	01018289 	smlabbeq	r1, r9, r2, r8
     718:	13310111 	teqne	r1, #1073741828	; 0x40000004
     71c:	01230000 	teqeq	r3, r0
     720:	01134901 	tsteq	r3, r1, lsl #18
     724:	24000013 	strcs	r0, [r0], #-19
     728:	13490021 	movtne	r0, #36897	; 0x9021
     72c:	00000b2f 	andeq	r0, r0, pc, lsr #22
     730:	03003425 	movweq	r3, #1061	; 0x425
     734:	3413490e 	ldrcc	r4, [r3], #-2318	; 0x90e
     738:	000e1c19 	andeq	r1, lr, r9, lsl ip
     73c:	00052600 	andeq	r2, r5, r0, lsl #12
     740:	0b3a0803 	bleq	e82754 <__bss_end__+0xe77c44>
     744:	13490b3b 	movtne	r0, #39739	; 0x9b3b
     748:	2e270000 	cdpcs	0, 2, cr0, cr7, cr0, {0}
     74c:	3a0e0301 	bcc	381358 <__bss_end__+0x376848>
     750:	270b3b0b 	strcs	r3, [fp, -fp, lsl #22]
     754:	11134919 	tstne	r3, r9, lsl r9
     758:	40061201 	andmi	r1, r6, r1, lsl #4
     75c:	19429718 	stmdbne	r2, {r3, r4, r8, r9, sl, ip, pc}^
     760:	00001301 	andeq	r1, r0, r1, lsl #6
     764:	03003428 	movweq	r3, #1064	; 0x428
     768:	3b0b3a0e 	blcc	2cefa8 <__bss_end__+0x2c4498>
     76c:	0213490b 	andseq	r4, r3, #180224	; 0x2c000
     770:	29000018 	stmdbcs	r0, {r3, r4}
     774:	13310005 	teqne	r1, #5
     778:	00000b1c 	andeq	r0, r0, ip, lsl fp
     77c:	3100052a 	tstcc	r0, sl, lsr #10
     780:	00170213 	andseq	r0, r7, r3, lsl r2
     784:	00342b00 	eorseq	r2, r4, r0, lsl #22
     788:	18021331 	stmdane	r2, {r0, r4, r5, r8, r9, ip}
     78c:	342c0000 	strtcc	r0, [ip], #-0
     790:	1c133100 	ldfnes	f3, [r3], {-0}
     794:	2d00000b 	stccs	0, cr0, [r0, #-44]	; 0xffffffd4
     798:	13310005 	teqne	r1, #5
     79c:	342e0000 	strtcc	r0, [lr], #-0
     7a0:	490e0300 	stmdbmi	lr, {r8, r9}
     7a4:	00193413 	andseq	r3, r9, r3, lsl r4
     7a8:	00052f00 	andeq	r2, r5, r0, lsl #30
     7ac:	0b3a0803 	bleq	e827c0 <__bss_end__+0xe77cb0>
     7b0:	13490b3b 	movtne	r0, #39739	; 0x9b3b
     7b4:	00001802 	andeq	r1, r0, r2, lsl #16
     7b8:	3f012e30 	svccc	0x00012e30
     7bc:	3a0e0319 	bcc	381428 <__bss_end__+0x376918>
     7c0:	270b3b0b 	strcs	r3, [fp, -fp, lsl #22]
     7c4:	11134919 	tstne	r3, r9, lsl r9
     7c8:	40061201 	andmi	r1, r6, r1, lsl #4
     7cc:	19429718 	stmdbne	r2, {r3, r4, r8, r9, sl, ip, pc}^
     7d0:	00001301 	andeq	r1, r0, r1, lsl #6
     7d4:	03003431 	movweq	r3, #1073	; 0x431
     7d8:	3b0b3a0e 	blcc	2cf018 <__bss_end__+0x2c4508>
     7dc:	3f13490b 	svccc	0x0013490b
     7e0:	00193c19 	andseq	r3, r9, r9, lsl ip
     7e4:	012e3200 	teqeq	lr, r0, lsl #4
     7e8:	0e03193f 	mcreq	9, 0, r1, cr3, cr15, {1}
     7ec:	0b3b0b3a 	bleq	ec34dc <__bss_end__+0xeb89cc>
     7f0:	13491927 	movtne	r1, #39207	; 0x9927
     7f4:	1301193c 	movwne	r1, #6460	; 0x193c
     7f8:	18330000 	ldmdane	r3!, {}	; <UNPREDICTABLE>
     7fc:	34000000 	strcc	r0, [r0], #-0
     800:	193f002e 	ldmdbne	pc!, {r1, r2, r3, r5}	; <UNPREDICTABLE>
     804:	0b3a0e03 	bleq	e84018 <__bss_end__+0xe79508>
     808:	19270b3b 	stmdbne	r7!, {r0, r1, r3, r4, r5, r8, r9, fp}
     80c:	0000193c 	andeq	r1, r0, ip, lsr r9
     810:	3f012e35 	svccc	0x00012e35
     814:	3a0e0319 	bcc	381480 <__bss_end__+0x376970>
     818:	270b3b0b 	strcs	r3, [fp, -fp, lsl #22]
     81c:	01193c19 	tsteq	r9, r9, lsl ip
     820:	00000013 	andeq	r0, r0, r3, lsl r0
     824:	25011101 	strcs	r1, [r1, #-257]	; 0x101
     828:	030b130e 	movweq	r1, #45838	; 0xb30e
     82c:	110e1b0e 	tstne	lr, lr, lsl #22
     830:	10061201 	andne	r1, r6, r1, lsl #4
     834:	02000017 	andeq	r0, r0, #23
     838:	0e030016 	mcreq	0, 0, r0, cr3, cr6, {0}
     83c:	0b3b0b3a 	bleq	ec352c <__bss_end__+0xeb8a1c>
     840:	00001349 	andeq	r1, r0, r9, asr #6
     844:	03011303 	movweq	r1, #4867	; 0x1303
     848:	3a0b0b0e 	bcc	2c3488 <__bss_end__+0x2b8978>
     84c:	010b3b0b 	tsteq	fp, fp, lsl #22
     850:	04000013 	streq	r0, [r0], #-19
     854:	0e03000d 	cdpeq	0, 0, cr0, cr3, cr13, {0}
     858:	0b381349 	bleq	e05584 <__bss_end__+0xdfaa74>
     85c:	00001934 	andeq	r1, r0, r4, lsr r9
     860:	0b000f05 	bleq	447c <__code_start__-0x3b84>
     864:	0600000b 	streq	r0, [r0], -fp
     868:	0b0b0024 	bleq	2c0900 <__bss_end__+0x2b5df0>
     86c:	08030b3e 	stmdaeq	r3, {r1, r2, r3, r4, r5, r8, r9, fp}
     870:	24070000 	strcs	r0, [r7], #-0
     874:	3e0b0b00 	vmlacc.f64	d0, d11, d0
     878:	000e030b 	andeq	r0, lr, fp, lsl #6
     87c:	000f0800 	andeq	r0, pc, r0, lsl #16
     880:	13490b0b 	movtne	r0, #39691	; 0x9b0b
     884:	26090000 	strcs	r0, [r9], -r0
     888:	00134900 	andseq	r4, r3, r0, lsl #18
     88c:	012e0a00 	teqeq	lr, r0, lsl #20
     890:	0e03193f 	mcreq	9, 0, r1, cr3, cr15, {1}
     894:	0b3b0b3a 	bleq	ec3584 <__bss_end__+0xeb8a74>
     898:	13491927 	movtne	r1, #39207	; 0x9927
     89c:	06120111 			; <UNDEFINED> instruction: 0x06120111
     8a0:	42971840 	addsmi	r1, r7, #64, 16	; 0x400000
     8a4:	00130119 	andseq	r0, r3, r9, lsl r1
     8a8:	00050b00 	andeq	r0, r5, r0, lsl #22
     8ac:	0b3a0803 	bleq	e828c0 <__bss_end__+0xe77db0>
     8b0:	13490b3b 	movtne	r0, #39739	; 0x9b3b
     8b4:	00001802 	andeq	r1, r0, r2, lsl #16
     8b8:	0000180c 	andeq	r1, r0, ip, lsl #16
     8bc:	00340d00 	eorseq	r0, r4, r0, lsl #26
     8c0:	0b3a0803 	bleq	e828d4 <__bss_end__+0xe77dc4>
     8c4:	13490b3b 	movtne	r0, #39739	; 0x9b3b
     8c8:	00001802 	andeq	r1, r0, r2, lsl #16
     8cc:	0300340e 	movweq	r3, #1038	; 0x40e
     8d0:	3b0b3a0e 	blcc	2cf110 <__bss_end__+0x2c4600>
     8d4:	0213490b 	andseq	r4, r3, #180224	; 0x2c000
     8d8:	0f000018 	svceq	0x00000018
     8dc:	08030034 	stmdaeq	r3, {r2, r4, r5}
     8e0:	0b3b0b3a 	bleq	ec35d0 <__bss_end__+0xeb8ac0>
     8e4:	17021349 	strne	r1, [r2, -r9, asr #6]
     8e8:	89100000 	ldmdbhi	r0, {}	; <UNPREDICTABLE>
     8ec:	11010182 	smlabbne	r1, r2, r1, r0
     8f0:	01133101 	tsteq	r3, r1, lsl #2
     8f4:	11000013 	tstne	r0, r3, lsl r0
     8f8:	0001828a 	andeq	r8, r1, sl, lsl #5
     8fc:	42911802 	addsmi	r1, r1, #131072	; 0x20000
     900:	12000018 	andne	r0, r0, #24
     904:	01018289 	smlabbeq	r1, r9, r2, r8
     908:	00000111 	andeq	r0, r0, r1, lsl r1
     90c:	49010113 	stmdbmi	r1, {r0, r1, r4, r8}
     910:	00130113 	andseq	r0, r3, r3, lsl r1
     914:	00211400 	eoreq	r1, r1, r0, lsl #8
     918:	052f1349 	streq	r1, [pc, #-841]!	; 5d7 <__code_start__-0x7a29>
     91c:	15150000 	ldrne	r0, [r5, #-0]
     920:	49192701 	ldmdbmi	r9, {r0, r8, r9, sl, sp}
     924:	00130113 	andseq	r0, r3, r3, lsl r1
     928:	00051600 	andeq	r1, r5, r0, lsl #12
     92c:	00001349 	andeq	r1, r0, r9, asr #6
     930:	03003417 	movweq	r3, #1047	; 0x417
     934:	3b0b3a0e 	blcc	2cf174 <__bss_end__+0x2c4664>
     938:	3f13490b 	svccc	0x0013490b
     93c:	00193c19 	andseq	r3, r9, r9, lsl ip
     940:	012e1800 	teqeq	lr, r0, lsl #16
     944:	0e03193f 	mcreq	9, 0, r1, cr3, cr15, {1}
     948:	0b3b0b3a 	bleq	ec3638 <__bss_end__+0xeb8b28>
     94c:	13491927 	movtne	r1, #39207	; 0x9927
     950:	0000193c 	andeq	r1, r0, ip, lsr r9
     954:	01110100 	tsteq	r1, r0, lsl #2
     958:	0b130e25 	bleq	4c41f4 <__bss_end__+0x4b96e4>
     95c:	0e1b0e03 	cdpeq	14, 1, cr0, cr11, cr3, {0}
     960:	06120111 			; <UNDEFINED> instruction: 0x06120111
     964:	00001710 	andeq	r1, r0, r0, lsl r7
     968:	0b002402 	bleq	9978 <reset_vector+0x10>
     96c:	030b3e0b 	movweq	r3, #48651	; 0xbe0b
     970:	03000008 	movweq	r0, #8
     974:	0b0b0024 	bleq	2c0a0c <__bss_end__+0x2b5efc>
     978:	0e030b3e 	vmoveq.16	d3[0], r0
     97c:	2e040000 	cdpcs	0, 0, cr0, cr4, cr0, {0}
     980:	3a0e0301 	bcc	38158c <__bss_end__+0x376a7c>
     984:	270b3b0b 	strcs	r3, [fp, -fp, lsl #22]
     988:	11134919 	tstne	r3, r9, lsl r9
     98c:	40061201 	andmi	r1, r6, r1, lsl #4
     990:	19429718 	stmdbne	r2, {r3, r4, r8, r9, sl, ip, pc}^
     994:	00001301 	andeq	r1, r0, r1, lsl #6
     998:	03000505 	movweq	r0, #1285	; 0x505
     99c:	3b0b3a08 	blcc	2cf1c4 <__bss_end__+0x2c46b4>
     9a0:	0213490b 	andseq	r4, r3, #180224	; 0x2c000
     9a4:	06000017 			; <UNDEFINED> instruction: 0x06000017
     9a8:	01018289 	smlabbeq	r1, r9, r2, r8
     9ac:	13310111 	teqne	r1, #1073741828	; 0x40000004
     9b0:	8a070000 	bhi	1c09b8 <__bss_end__+0x1b5ea8>
     9b4:	02000182 	andeq	r0, r0, #-2147483616	; 0x80000020
     9b8:	18429118 	stmdane	r2, {r3, r4, r8, ip, pc}^
     9bc:	2e080000 	cdpcs	0, 0, cr0, cr8, cr0, {0}
     9c0:	03193f00 	tsteq	r9, #0, 30
     9c4:	3b0b3a0e 	blcc	2cf204 <__bss_end__+0x2c46f4>
     9c8:	1119270b 	tstne	r9, fp, lsl #14
     9cc:	40061201 	andmi	r1, r6, r1, lsl #4
     9d0:	19429718 	stmdbne	r2, {r3, r4, r8, r9, sl, ip, pc}^
     9d4:	2e090000 	cdpcs	0, 0, cr0, cr9, cr0, {0}
     9d8:	03193f01 	tsteq	r9, #1, 30
     9dc:	3b0b3a0e 	blcc	2cf21c <__bss_end__+0x2c470c>
     9e0:	1119270b 	tstne	r9, fp, lsl #14
     9e4:	40061201 	andmi	r1, r6, r1, lsl #4
     9e8:	19429718 	stmdbne	r2, {r3, r4, r8, r9, sl, ip, pc}^
     9ec:	00001301 	andeq	r1, r0, r1, lsl #6
     9f0:	0300050a 	movweq	r0, #1290	; 0x50a
     9f4:	3b0b3a08 	blcc	2cf21c <__bss_end__+0x2c470c>
     9f8:	0213490b 	andseq	r4, r3, #180224	; 0x2c000
     9fc:	0b000018 	bleq	a64 <__code_start__-0x759c>
     a00:	19270115 	stmdbne	r7!, {r0, r2, r4, r8}
     a04:	13011349 	movwne	r1, #4937	; 0x1349
     a08:	050c0000 	streq	r0, [ip, #-0]
     a0c:	00134900 	andseq	r4, r3, r0, lsl #18
     a10:	000f0d00 	andeq	r0, pc, r0, lsl #26
     a14:	13490b0b 	movtne	r0, #39691	; 0x9b0b
     a18:	340e0000 	strcc	r0, [lr], #-0
     a1c:	3a0e0300 	bcc	381624 <__bss_end__+0x376b14>
     a20:	490b3b0b 	stmdbmi	fp, {r0, r1, r3, r8, r9, fp, ip, sp}
     a24:	02193f13 	andseq	r3, r9, #19, 30	; 0x4c
     a28:	0f000018 	svceq	0x00000018
     a2c:	193f012e 	ldmdbne	pc!, {r1, r2, r3, r5, r8}	; <UNPREDICTABLE>
     a30:	0b3a0e03 	bleq	e84244 <__bss_end__+0xe79734>
     a34:	19270b3b 	stmdbne	r7!, {r0, r1, r3, r4, r5, r8, r9, fp}
     a38:	0000193c 	andeq	r1, r0, ip, lsr r9
     a3c:	01110100 	tsteq	r1, r0, lsl #2
     a40:	0b130e25 	bleq	4c42dc <__bss_end__+0x4b97cc>
     a44:	0e1b0e03 	cdpeq	14, 1, cr0, cr11, cr3, {0}
     a48:	06120111 			; <UNDEFINED> instruction: 0x06120111
     a4c:	00001710 	andeq	r1, r0, r0, lsl r7
     a50:	0b002402 	bleq	9a60 <int_init+0x68>
     a54:	030b3e0b 	movweq	r3, #48651	; 0xbe0b
     a58:	03000008 	movweq	r0, #8
     a5c:	0b0b0024 	bleq	2c0af4 <__bss_end__+0x2b5fe4>
     a60:	0e030b3e 	vmoveq.16	d3[0], r0
     a64:	0f040000 	svceq	0x00040000
     a68:	490b0b00 	stmdbmi	fp, {r8, r9, fp}
     a6c:	05000013 	streq	r0, [r0, #-19]
     a70:	13490026 	movtne	r0, #36902	; 0x9026
     a74:	2e060000 	cdpcs	0, 0, cr0, cr6, cr0, {0}
     a78:	03193f01 	tsteq	r9, #1, 30
     a7c:	3b0b3a0e 	blcc	2cf2bc <__bss_end__+0x2c47ac>
     a80:	4919270b 	ldmdbmi	r9, {r0, r1, r3, r8, r9, sl, sp}
     a84:	12011113 	andne	r1, r1, #-1073741820	; 0xc0000004
     a88:	96184006 	ldrls	r4, [r8], -r6
     a8c:	13011942 	movwne	r1, #6466	; 0x1942
     a90:	05070000 	streq	r0, [r7, #-0]
     a94:	3a080300 	bcc	20169c <__bss_end__+0x1f6b8c>
     a98:	490b3b0b 	stmdbmi	fp, {r0, r1, r3, r8, r9, fp, ip, sp}
     a9c:	00170213 	andseq	r0, r7, r3, lsl r2
     aa0:	01150800 	tsteq	r5, r0, lsl #16
     aa4:	13491927 	movtne	r1, #39207	; 0x9927
     aa8:	00001301 	andeq	r1, r0, r1, lsl #6
     aac:	49000509 	stmdbmi	r0, {r0, r3, r8, sl}
     ab0:	0a000013 	beq	b04 <__code_start__-0x74fc>
     ab4:	0e030034 	mcreq	0, 0, r0, cr3, cr4, {1}
     ab8:	0b3b0b3a 	bleq	ec37a8 <__bss_end__+0xeb8c98>
     abc:	193f1349 	ldmdbne	pc!, {r0, r3, r6, r8, r9, ip}	; <UNPREDICTABLE>
     ac0:	0000193c 	andeq	r1, r0, ip, lsr r9
     ac4:	0300340b 	movweq	r3, #1035	; 0x40b
     ac8:	3b0b3a0e 	blcc	2cf308 <__bss_end__+0x2c47f8>
     acc:	3f13490b 	svccc	0x0013490b
     ad0:	00180219 	andseq	r0, r8, r9, lsl r2
     ad4:	11010000 	mrsne	r0, (UNDEF: 1)
     ad8:	130e2501 	movwne	r2, #58625	; 0xe501
     adc:	1b0e030b 	blne	381710 <__bss_end__+0x376c00>
     ae0:	1201110e 	andne	r1, r1, #-2147483645	; 0x80000003
     ae4:	00171006 	andseq	r1, r7, r6
     ae8:	00240200 	eoreq	r0, r4, r0, lsl #4
     aec:	0b3e0b0b 	bleq	f83720 <__bss_end__+0xf78c10>
     af0:	00000803 	andeq	r0, r0, r3, lsl #16
     af4:	0b002403 	bleq	9b08 <timer_get_usec>
     af8:	030b3e0b 	movweq	r3, #48651	; 0xbe0b
     afc:	0400000e 	streq	r0, [r0], #-14
     b00:	0b0b000f 	bleq	2c0b44 <__bss_end__+0x2b6034>
     b04:	0f050000 	svceq	0x00050000
     b08:	490b0b00 	stmdbmi	fp, {r8, r9, fp}
     b0c:	06000013 			; <UNDEFINED> instruction: 0x06000013
     b10:	13490026 	movtne	r0, #36902	; 0x9026
     b14:	16070000 	strne	r0, [r7], -r0
     b18:	3a0e0300 	bcc	381720 <__bss_end__+0x376c10>
     b1c:	490b3b0b 	stmdbmi	fp, {r0, r1, r3, r8, r9, fp, ip, sp}
     b20:	08000013 	stmdaeq	r0, {r0, r1, r4}
     b24:	0e030113 	mcreq	1, 0, r0, cr3, cr3, {0}
     b28:	0b3a0b0b 	bleq	e8375c <__bss_end__+0xe78c4c>
     b2c:	13010b3b 	movwne	r0, #6971	; 0x1b3b
     b30:	0d090000 	stceq	0, cr0, [r9, #-0]
     b34:	490e0300 	stmdbmi	lr, {r8, r9}
     b38:	340b3813 	strcc	r3, [fp], #-2067	; 0x813
     b3c:	0a000019 	beq	ba8 <__code_start__-0x7458>
     b40:	0e03012e 	adfeqsp	f0, f3, #0.5
     b44:	0b3b0b3a 	bleq	ec3834 <__bss_end__+0xeb8d24>
     b48:	13491927 	movtne	r1, #39207	; 0x9927
     b4c:	06120111 			; <UNDEFINED> instruction: 0x06120111
     b50:	42971840 	addsmi	r1, r7, #64, 16	; 0x400000
     b54:	00130119 	andseq	r0, r3, r9, lsl r1
     b58:	00050b00 	andeq	r0, r5, r0, lsl #22
     b5c:	0b3a0803 	bleq	e82b70 <__bss_end__+0xe78060>
     b60:	13490b3b 	movtne	r0, #39739	; 0x9b3b
     b64:	00001702 	andeq	r1, r0, r2, lsl #14
     b68:	03012e0c 	movweq	r2, #7692	; 0x1e0c
     b6c:	3b0b3a08 	blcc	2cf394 <__bss_end__+0x2c4884>
     b70:	4919270b 	ldmdbmi	r9, {r0, r1, r3, r8, r9, sl, sp}
     b74:	12011113 	andne	r1, r1, #-1073741820	; 0xc0000004
     b78:	97184006 	ldrls	r4, [r8, -r6]
     b7c:	13011942 	movwne	r1, #6466	; 0x1942
     b80:	050d0000 	streq	r0, [sp, #-0]
     b84:	3a0e0300 	bcc	38178c <__bss_end__+0x376c7c>
     b88:	490b3b0b 	stmdbmi	fp, {r0, r1, r3, r8, r9, fp, ip, sp}
     b8c:	00170213 	andseq	r0, r7, r3, lsl r2
     b90:	00050e00 	andeq	r0, r5, r0, lsl #28
     b94:	0b3a0e03 	bleq	e843a8 <__bss_end__+0xe79898>
     b98:	13490b3b 	movtne	r0, #39739	; 0x9b3b
     b9c:	00001802 	andeq	r1, r0, r2, lsl #16
     ba0:	0300340f 	movweq	r3, #1039	; 0x40f
     ba4:	3b0b3a08 	blcc	2cf3cc <__bss_end__+0x2c48bc>
     ba8:	0213490b 	andseq	r4, r3, #180224	; 0x2c000
     bac:	10000018 	andne	r0, r0, r8, lsl r0
     bb0:	08030034 	stmdaeq	r3, {r2, r4, r5}
     bb4:	0b3b0b3a 	bleq	ec38a4 <__bss_end__+0xeb8d94>
     bb8:	17021349 	strne	r1, [r2, -r9, asr #6]
     bbc:	34110000 	ldrcc	r0, [r1], #-0
     bc0:	490e0300 	stmdbmi	lr, {r8, r9}
     bc4:	02193413 	andseq	r3, r9, #318767104	; 0x13000000
     bc8:	12000018 	andne	r0, r0, #24
     bcc:	0111010b 	tsteq	r1, fp, lsl #2
     bd0:	13010612 	movwne	r0, #5650	; 0x1612
     bd4:	34130000 	ldrcc	r0, [r3], #-0
     bd8:	3a0e0300 	bcc	3817e0 <__bss_end__+0x376cd0>
     bdc:	490b3b0b 	stmdbmi	fp, {r0, r1, r3, r8, r9, fp, ip, sp}
     be0:	00170213 	andseq	r0, r7, r3, lsl r2
     be4:	82891400 	addhi	r1, r9, #0, 8
     be8:	01110001 	tsteq	r1, r1
     bec:	00001331 	andeq	r1, r0, r1, lsr r3
     bf0:	01828915 	orreq	r8, r2, r5, lsl r9
     bf4:	31011101 	tstcc	r1, r1, lsl #2
     bf8:	00130113 	andseq	r0, r3, r3, lsl r1
     bfc:	828a1600 	addhi	r1, sl, #0, 12
     c00:	18020001 	stmdane	r2, {r0}
     c04:	00184291 	mulseq	r8, r1, r2
     c08:	82891700 	addhi	r1, r9, #0, 14
     c0c:	01110101 	tsteq	r1, r1, lsl #2
     c10:	00001331 	andeq	r1, r0, r1, lsr r3
     c14:	49010118 	stmdbmi	r1, {r3, r4, r8}
     c18:	00130113 	andseq	r0, r3, r3, lsl r1
     c1c:	00211900 	eoreq	r1, r1, r0, lsl #18
     c20:	0b2f1349 	bleq	bc594c <__bss_end__+0xbbae3c>
     c24:	2e1a0000 	cdpcs	0, 1, cr0, cr10, cr0, {0}
     c28:	03193f01 	tsteq	r9, #1, 30
     c2c:	3b0b3a0e 	blcc	2cf46c <__bss_end__+0x2c495c>
     c30:	1119270b 	tstne	r9, fp, lsl #14
     c34:	40061201 	andmi	r1, r6, r1, lsl #4
     c38:	19429718 	stmdbne	r2, {r3, r4, r8, r9, sl, ip, pc}^
     c3c:	00001301 	andeq	r1, r0, r1, lsl #6
     c40:	2701151b 	smladcs	r1, fp, r5, r1
     c44:	01134919 	tsteq	r3, r9, lsl r9
     c48:	1c000013 	stcne	0, cr0, [r0], {19}
     c4c:	13490005 	movtne	r0, #36869	; 0x9005
     c50:	2e1d0000 	cdpcs	0, 1, cr0, cr13, cr0, {0}
     c54:	03193f01 	tsteq	r9, #1, 30
     c58:	3b0b3a0e 	blcc	2cf498 <__bss_end__+0x2c4988>
     c5c:	4919270b 	ldmdbmi	r9, {r0, r1, r3, r8, r9, sl, sp}
     c60:	12011113 	andne	r1, r1, #-1073741820	; 0xc0000004
     c64:	97184006 	ldrls	r4, [r8, -r6]
     c68:	13011942 	movwne	r1, #6466	; 0x1942
     c6c:	0b1e0000 	bleq	780c74 <__bss_end__+0x776164>
     c70:	12011101 	andne	r1, r1, #1073741824	; 0x40000000
     c74:	1f000006 	svcne	0x00000006
     c78:	01018289 	smlabbeq	r1, r9, r2, r8
     c7c:	13010111 	movwne	r0, #4369	; 0x1111
     c80:	34200000 	strtcc	r0, [r0], #-0
     c84:	3a0e0300 	bcc	38188c <__bss_end__+0x376d7c>
     c88:	490b3b0b 	stmdbmi	fp, {r0, r1, r3, r8, r9, fp, ip, sp}
     c8c:	3c193f13 	ldccc	15, cr3, [r9], {19}
     c90:	21000019 	tstcs	r0, r9, lsl r0
     c94:	193f002e 	ldmdbne	pc!, {r1, r2, r3, r5}	; <UNPREDICTABLE>
     c98:	0b3a0e03 	bleq	e844ac <__bss_end__+0xe7999c>
     c9c:	19270b3b 	stmdbne	r7!, {r0, r1, r3, r4, r5, r8, r9, fp}
     ca0:	0000193c 	andeq	r1, r0, ip, lsr r9
     ca4:	3f012e22 	svccc	0x00012e22
     ca8:	3a0e0319 	bcc	381914 <__bss_end__+0x376e04>
     cac:	270b3b0b 	strcs	r3, [fp, -fp, lsl #22]
     cb0:	3c134919 	ldccc	9, cr4, [r3], {25}
     cb4:	00130119 	andseq	r0, r3, r9, lsl r1
     cb8:	00182300 	andseq	r2, r8, r0, lsl #6
     cbc:	01000000 	mrseq	r0, (UNDEF: 0)
     cc0:	0e250111 	mcreq	1, 1, r0, cr5, cr1, {0}
     cc4:	0e030b13 	vmoveq.32	d3[0], r0
     cc8:	01110e1b 	tsteq	r1, fp, lsl lr
     ccc:	17100612 			; <UNDEFINED> instruction: 0x17100612
     cd0:	24020000 	strcs	r0, [r2], #-0
     cd4:	3e0b0b00 	vmlacc.f64	d0, d11, d0
     cd8:	0008030b 	andeq	r0, r8, fp, lsl #6
     cdc:	00240300 	eoreq	r0, r4, r0, lsl #6
     ce0:	0b3e0b0b 	bleq	f83914 <__bss_end__+0xf78e04>
     ce4:	00000e03 	andeq	r0, r0, r3, lsl #28
     ce8:	3f012e04 	svccc	0x00012e04
     cec:	3a0e0319 	bcc	381958 <__bss_end__+0x376e48>
     cf0:	270b3b0b 	strcs	r3, [fp, -fp, lsl #22]
     cf4:	12011119 	andne	r1, r1, #1073741830	; 0x40000006
     cf8:	97184006 	ldrls	r4, [r8, -r6]
     cfc:	13011942 	movwne	r1, #6466	; 0x1942
     d00:	34050000 	strcc	r0, [r5], #-0
     d04:	3a080300 	bcc	20190c <__bss_end__+0x1f6dfc>
     d08:	490b3b0b 	stmdbmi	fp, {r0, r1, r3, r8, r9, fp, ip, sp}
     d0c:	00170213 	andseq	r0, r7, r3, lsl r2
     d10:	012e0600 	teqeq	lr, r0, lsl #12
     d14:	0e03193f 	mcreq	9, 0, r1, cr3, cr15, {1}
     d18:	0b3b0b3a 	bleq	ec3a08 <__bss_end__+0xeb8ef8>
     d1c:	01111927 	tsteq	r1, r7, lsr #18
     d20:	18400612 	stmdane	r0, {r1, r4, r9, sl}^
     d24:	00194297 	mulseq	r9, r7, r2
     d28:	11010000 	mrsne	r0, (UNDEF: 1)
     d2c:	130e2501 	movwne	r2, #58625	; 0xe501
     d30:	1b0e030b 	blne	381964 <__bss_end__+0x376e54>
     d34:	1201110e 	andne	r1, r1, #-2147483645	; 0x80000003
     d38:	00171006 	andseq	r1, r7, r6
     d3c:	00240200 	eoreq	r0, r4, r0, lsl #4
     d40:	0b3e0b0b 	bleq	f83974 <__bss_end__+0xf78e64>
     d44:	00000803 	andeq	r0, r0, r3, lsl #16
     d48:	0b002403 	bleq	9d5c <gpio_set_function+0x10>
     d4c:	030b3e0b 	movweq	r3, #48651	; 0xbe0b
     d50:	0400000e 	streq	r0, [r0], #-14
     d54:	0b0b000f 	bleq	2c0d98 <__bss_end__+0x2b6288>
     d58:	00001349 	andeq	r1, r0, r9, asr #6
     d5c:	49002605 	stmdbmi	r0, {r0, r2, r9, sl, sp}
     d60:	06000013 			; <UNDEFINED> instruction: 0x06000013
     d64:	193f012e 	ldmdbne	pc!, {r1, r2, r3, r5, r8}	; <UNPREDICTABLE>
     d68:	0b3a0e03 	bleq	e8457c <__bss_end__+0xe79a6c>
     d6c:	19270b3b 	stmdbne	r7!, {r0, r1, r3, r4, r5, r8, r9, fp}
     d70:	06120111 			; <UNDEFINED> instruction: 0x06120111
     d74:	42971840 	addsmi	r1, r7, #64, 16	; 0x400000
     d78:	00130119 	andseq	r0, r3, r9, lsl r1
     d7c:	82890700 	addhi	r0, r9, #0, 14
     d80:	01110001 	tsteq	r1, r1
     d84:	00001331 	andeq	r1, r0, r1, lsr r3
     d88:	01828908 	orreq	r8, r2, r8, lsl #18
     d8c:	01011101 	tsteq	r1, r1, lsl #2
     d90:	09000013 	stmdbeq	r0, {r0, r1, r4}
     d94:	0001828a 	andeq	r8, r1, sl, lsl #5
     d98:	42911802 	addsmi	r1, r1, #131072	; 0x20000
     d9c:	0a000018 	beq	e04 <__code_start__-0x71fc>
     da0:	01018289 	smlabbeq	r1, r9, r2, r8
     da4:	13310111 	teqne	r1, #1073741828	; 0x40000004
     da8:	00001301 	andeq	r1, r0, r1, lsl #6
     dac:	2701150b 	strcs	r1, [r1, -fp, lsl #10]
     db0:	01134919 	tsteq	r3, r9, lsl r9
     db4:	0c000013 	stceq	0, cr0, [r0], {19}
     db8:	13490005 	movtne	r0, #36869	; 0x9005
     dbc:	340d0000 	strcc	r0, [sp], #-0
     dc0:	3a0e0300 	bcc	3819c8 <__bss_end__+0x376eb8>
     dc4:	490b3b0b 	stmdbmi	fp, {r0, r1, r3, r8, r9, fp, ip, sp}
     dc8:	3c193f13 	ldccc	15, cr3, [r9], {19}
     dcc:	0e000019 	mcreq	0, 0, r0, cr0, cr9, {0}
     dd0:	193f002e 	ldmdbne	pc!, {r1, r2, r3, r5}	; <UNPREDICTABLE>
     dd4:	0b3a0e03 	bleq	e845e8 <__bss_end__+0xe79ad8>
     dd8:	19270b3b 	stmdbne	r7!, {r0, r1, r3, r4, r5, r8, r9, fp}
     ddc:	0000193c 	andeq	r1, r0, ip, lsr r9
     de0:	3f012e0f 	svccc	0x00012e0f
     de4:	3a0e0319 	bcc	381a50 <__bss_end__+0x376f40>
     de8:	270b3b0b 	strcs	r3, [fp, -fp, lsl #22]
     dec:	01193c19 	tsteq	r9, r9, lsl ip
     df0:	00000013 	andeq	r0, r0, r3, lsl r0
     df4:	25011101 	strcs	r1, [r1, #-257]	; 0x101
     df8:	030b130e 	movweq	r1, #45838	; 0xb30e
     dfc:	110e1b0e 	tstne	lr, lr, lsl #22
     e00:	10061201 	andne	r1, r6, r1, lsl #4
     e04:	02000017 	andeq	r0, r0, #23
     e08:	0b0b0024 	bleq	2c0ea0 <__bss_end__+0x2b6390>
     e0c:	08030b3e 	stmdaeq	r3, {r1, r2, r3, r4, r5, r8, r9, fp}
     e10:	24030000 	strcs	r0, [r3], #-0
     e14:	3e0b0b00 	vmlacc.f64	d0, d11, d0
     e18:	000e030b 	andeq	r0, lr, fp, lsl #6
     e1c:	012e0400 	teqeq	lr, r0, lsl #8
     e20:	0e03193f 	mcreq	9, 0, r1, cr3, cr15, {1}
     e24:	0b3b0b3a 	bleq	ec3b14 <__bss_end__+0xeb9004>
     e28:	06120111 			; <UNDEFINED> instruction: 0x06120111
     e2c:	42971840 	addsmi	r1, r7, #64, 16	; 0x400000
     e30:	00130119 	andseq	r0, r3, r9, lsl r1
     e34:	00340500 	eorseq	r0, r4, r0, lsl #10
     e38:	0b3a0e03 	bleq	e8464c <__bss_end__+0xe79b3c>
     e3c:	13490b3b 	movtne	r0, #39739	; 0x9b3b
     e40:	193c193f 	ldmdbne	ip!, {r0, r1, r2, r3, r4, r5, r8, fp, ip}
     e44:	2e060000 	cdpcs	0, 0, cr0, cr6, cr0, {0}
     e48:	03193f00 	tsteq	r9, #0, 30
     e4c:	3b0b3a0e 	blcc	2cf68c <__bss_end__+0x2c4b7c>
     e50:	3c19270b 	ldccc	7, cr2, [r9], {11}
     e54:	07000019 	smladeq	r0, r9, r0, r0
     e58:	08030034 	stmdaeq	r3, {r2, r4, r5}
     e5c:	0b3b0b3a 	bleq	ec3b4c <__bss_end__+0xeb903c>
     e60:	17021349 	strne	r1, [r2, -r9, asr #6]
     e64:	34080000 	strcc	r0, [r8], #-0
     e68:	3a0e0300 	bcc	381a70 <__bss_end__+0x376f60>
     e6c:	490b3b0b 	stmdbmi	fp, {r0, r1, r3, r8, r9, fp, ip, sp}
     e70:	09000013 	stmdbeq	r0, {r0, r1, r4}
     e74:	00018289 	andeq	r8, r1, r9, lsl #5
     e78:	13310111 	teqne	r1, #1073741828	; 0x40000004
     e7c:	0f0a0000 	svceq	0x000a0000
     e80:	490b0b00 	stmdbmi	fp, {r8, r9, fp}
     e84:	00000013 	andeq	r0, r0, r3, lsl r0
     e88:	25011101 	strcs	r1, [r1, #-257]	; 0x101
     e8c:	030b130e 	movweq	r1, #45838	; 0xb30e
     e90:	110e1b0e 	tstne	lr, lr, lsl #22
     e94:	10061201 	andne	r1, r6, r1, lsl #4
     e98:	02000017 	andeq	r0, r0, #23
     e9c:	0b0b0024 	bleq	2c0f34 <__bss_end__+0x2b6424>
     ea0:	08030b3e 	stmdaeq	r3, {r1, r2, r3, r4, r5, r8, r9, fp}
     ea4:	24030000 	strcs	r0, [r3], #-0
     ea8:	3e0b0b00 	vmlacc.f64	d0, d11, d0
     eac:	000e030b 	andeq	r0, lr, fp, lsl #6
     eb0:	000f0400 	andeq	r0, pc, r0, lsl #8
     eb4:	13490b0b 	movtne	r0, #39691	; 0x9b0b
     eb8:	26050000 	strcs	r0, [r5], -r0
     ebc:	00134900 	andseq	r4, r3, r0, lsl #18
     ec0:	012e0600 	teqeq	lr, r0, lsl #12
     ec4:	0e03193f 	mcreq	9, 0, r1, cr3, cr15, {1}
     ec8:	0b3b0b3a 	bleq	ec3bb8 <__bss_end__+0xeb90a8>
     ecc:	01111927 	tsteq	r1, r7, lsr #18
     ed0:	18400612 	stmdane	r0, {r1, r4, r9, sl}^
     ed4:	01194297 			; <UNDEFINED> instruction: 0x01194297
     ed8:	07000013 	smladeq	r0, r3, r0, r0
     edc:	08030005 	stmdaeq	r3, {r0, r2}
     ee0:	0b3b0b3a 	bleq	ec3bd0 <__bss_end__+0xeb90c0>
     ee4:	17021349 	strne	r1, [r2, -r9, asr #6]
     ee8:	34080000 	strcc	r0, [r8], #-0
     eec:	490e0300 	stmdbmi	lr, {r8, r9}
     ef0:	02193413 	andseq	r3, r9, #318767104	; 0x13000000
     ef4:	09000018 	stmdbeq	r0, {r3, r4}
     ef8:	00018289 	andeq	r8, r1, r9, lsl #5
     efc:	13310111 	teqne	r1, #1073741828	; 0x40000004
     f00:	890a0000 	stmdbhi	sl, {}	; <UNPREDICTABLE>
     f04:	11010182 	smlabbne	r1, r2, r1, r0
     f08:	01133101 	tsteq	r3, r1, lsl #2
     f0c:	0b000013 	bleq	f60 <__code_start__-0x70a0>
     f10:	0001828a 	andeq	r8, r1, sl, lsl #5
     f14:	42911802 	addsmi	r1, r1, #131072	; 0x20000
     f18:	0c000018 	stceq	0, cr0, [r0], {24}
     f1c:	13490101 	movtne	r0, #37121	; 0x9101
     f20:	00001301 	andeq	r1, r0, r1, lsl #6
     f24:	4900210d 	stmdbmi	r0, {r0, r2, r3, r8, sp}
     f28:	000b2f13 	andeq	r2, fp, r3, lsl pc
     f2c:	002e0e00 	eoreq	r0, lr, r0, lsl #28
     f30:	0e03193f 	mcreq	9, 0, r1, cr3, cr15, {1}
     f34:	0b3b0b3a 	bleq	ec3c24 <__bss_end__+0xeb9114>
     f38:	193c1927 	ldmdbne	ip!, {r0, r1, r2, r5, r8, fp, ip}
     f3c:	2e0f0000 	cdpcs	0, 0, cr0, cr15, cr0, {0}
     f40:	03193f01 	tsteq	r9, #1, 30
     f44:	3b0b3a0e 	blcc	2cf784 <__bss_end__+0x2c4c74>
     f48:	4919270b 	ldmdbmi	r9, {r0, r1, r3, r8, r9, sl, sp}
     f4c:	01193c13 	tsteq	r9, r3, lsl ip
     f50:	10000013 	andne	r0, r0, r3, lsl r0
     f54:	13490005 	movtne	r0, #36869	; 0x9005
     f58:	18110000 	ldmdane	r1, {}	; <UNPREDICTABLE>
     f5c:	00000000 	andeq	r0, r0, r0
     f60:	25011101 	strcs	r1, [r1, #-257]	; 0x101
     f64:	030b130e 	movweq	r1, #45838	; 0xb30e
     f68:	110e1b0e 	tstne	lr, lr, lsl #22
     f6c:	10061201 	andne	r1, r6, r1, lsl #4
     f70:	02000017 	andeq	r0, r0, #23
     f74:	0b0b0024 	bleq	2c100c <__bss_end__+0x2b64fc>
     f78:	08030b3e 	stmdaeq	r3, {r1, r2, r3, r4, r5, r8, r9, fp}
     f7c:	24030000 	strcs	r0, [r3], #-0
     f80:	3e0b0b00 	vmlacc.f64	d0, d11, d0
     f84:	000e030b 	andeq	r0, lr, fp, lsl #6
     f88:	000f0400 	andeq	r0, pc, r0, lsl #8
     f8c:	13490b0b 	movtne	r0, #39691	; 0x9b0b
     f90:	26050000 	strcs	r0, [r5], -r0
     f94:	00134900 	andseq	r4, r3, r0, lsl #18
     f98:	012e0600 	teqeq	lr, r0, lsl #12
     f9c:	0e03193f 	mcreq	9, 0, r1, cr3, cr15, {1}
     fa0:	0b3b0b3a 	bleq	ec3c90 <__bss_end__+0xeb9180>
     fa4:	01111927 	tsteq	r1, r7, lsr #18
     fa8:	18400612 	stmdane	r0, {r1, r4, r9, sl}^
     fac:	01194297 			; <UNDEFINED> instruction: 0x01194297
     fb0:	07000013 	smladeq	r0, r3, r0, r0
     fb4:	08030005 	stmdaeq	r3, {r0, r2}
     fb8:	0b3b0b3a 	bleq	ec3ca8 <__bss_end__+0xeb9198>
     fbc:	17021349 	strne	r1, [r2, -r9, asr #6]
     fc0:	34080000 	strcc	r0, [r8], #-0
     fc4:	490e0300 	stmdbmi	lr, {r8, r9}
     fc8:	02193413 	andseq	r3, r9, #318767104	; 0x13000000
     fcc:	09000018 	stmdbeq	r0, {r3, r4}
     fd0:	00018289 	andeq	r8, r1, r9, lsl #5
     fd4:	13310111 	teqne	r1, #1073741828	; 0x40000004
     fd8:	890a0000 	stmdbhi	sl, {}	; <UNPREDICTABLE>
     fdc:	11010182 	smlabbne	r1, r2, r1, r0
     fe0:	01133101 	tsteq	r3, r1, lsl #2
     fe4:	0b000013 	bleq	1038 <__code_start__-0x6fc8>
     fe8:	0001828a 	andeq	r8, r1, sl, lsl #5
     fec:	42911802 	addsmi	r1, r1, #131072	; 0x20000
     ff0:	0c000018 	stceq	0, cr0, [r0], {24}
     ff4:	13490101 	movtne	r0, #37121	; 0x9101
     ff8:	00001301 	andeq	r1, r0, r1, lsl #6
     ffc:	4900210d 	stmdbmi	r0, {r0, r2, r3, r8, sp}
    1000:	000b2f13 	andeq	r2, fp, r3, lsl pc
    1004:	002e0e00 	eoreq	r0, lr, r0, lsl #28
    1008:	0e03193f 	mcreq	9, 0, r1, cr3, cr15, {1}
    100c:	0b3b0b3a 	bleq	ec3cfc <__bss_end__+0xeb91ec>
    1010:	193c1927 	ldmdbne	ip!, {r0, r1, r2, r5, r8, fp, ip}
    1014:	2e0f0000 	cdpcs	0, 0, cr0, cr15, cr0, {0}
    1018:	03193f01 	tsteq	r9, #1, 30
    101c:	3b0b3a0e 	blcc	2cf85c <__bss_end__+0x2c4d4c>
    1020:	4919270b 	ldmdbmi	r9, {r0, r1, r3, r8, r9, sl, sp}
    1024:	01193c13 	tsteq	r9, r3, lsl ip
    1028:	10000013 	andne	r0, r0, r3, lsl r0
    102c:	13490005 	movtne	r0, #36869	; 0x9005
    1030:	18110000 	ldmdane	r1, {}	; <UNPREDICTABLE>
    1034:	00000000 	andeq	r0, r0, r0
    1038:	25011101 	strcs	r1, [r1, #-257]	; 0x101
    103c:	030b130e 	movweq	r1, #45838	; 0xb30e
    1040:	110e1b0e 	tstne	lr, lr, lsl #22
    1044:	10061201 	andne	r1, r6, r1, lsl #4
    1048:	02000017 	andeq	r0, r0, #23
    104c:	0b0b0024 	bleq	2c10e4 <__bss_end__+0x2b65d4>
    1050:	08030b3e 	stmdaeq	r3, {r1, r2, r3, r4, r5, r8, r9, fp}
    1054:	24030000 	strcs	r0, [r3], #-0
    1058:	3e0b0b00 	vmlacc.f64	d0, d11, d0
    105c:	000e030b 	andeq	r0, lr, fp, lsl #6
    1060:	000f0400 	andeq	r0, pc, r0, lsl #8
    1064:	13490b0b 	movtne	r0, #39691	; 0x9b0b
    1068:	26050000 	strcs	r0, [r5], -r0
    106c:	00134900 	andseq	r4, r3, r0, lsl #18
    1070:	012e0600 	teqeq	lr, r0, lsl #12
    1074:	0e03193f 	mcreq	9, 0, r1, cr3, cr15, {1}
    1078:	0b3b0b3a 	bleq	ec3d68 <__bss_end__+0xeb9258>
    107c:	01111927 	tsteq	r1, r7, lsr #18
    1080:	18400612 	stmdane	r0, {r1, r4, r9, sl}^
    1084:	01194297 			; <UNDEFINED> instruction: 0x01194297
    1088:	07000013 	smladeq	r0, r3, r0, r0
    108c:	08030005 	stmdaeq	r3, {r0, r2}
    1090:	0b3b0b3a 	bleq	ec3d80 <__bss_end__+0xeb9270>
    1094:	17021349 	strne	r1, [r2, -r9, asr #6]
    1098:	34080000 	strcc	r0, [r8], #-0
    109c:	490e0300 	stmdbmi	lr, {r8, r9}
    10a0:	02193413 	andseq	r3, r9, #318767104	; 0x13000000
    10a4:	09000018 	stmdbeq	r0, {r3, r4}
    10a8:	00018289 	andeq	r8, r1, r9, lsl #5
    10ac:	13310111 	teqne	r1, #1073741828	; 0x40000004
    10b0:	890a0000 	stmdbhi	sl, {}	; <UNPREDICTABLE>
    10b4:	11010182 	smlabbne	r1, r2, r1, r0
    10b8:	01133101 	tsteq	r3, r1, lsl #2
    10bc:	0b000013 	bleq	1110 <__code_start__-0x6ef0>
    10c0:	0001828a 	andeq	r8, r1, sl, lsl #5
    10c4:	42911802 	addsmi	r1, r1, #131072	; 0x20000
    10c8:	0c000018 	stceq	0, cr0, [r0], {24}
    10cc:	13490101 	movtne	r0, #37121	; 0x9101
    10d0:	00001301 	andeq	r1, r0, r1, lsl #6
    10d4:	4900210d 	stmdbmi	r0, {r0, r2, r3, r8, sp}
    10d8:	000b2f13 	andeq	r2, fp, r3, lsl pc
    10dc:	002e0e00 	eoreq	r0, lr, r0, lsl #28
    10e0:	0e03193f 	mcreq	9, 0, r1, cr3, cr15, {1}
    10e4:	0b3b0b3a 	bleq	ec3dd4 <__bss_end__+0xeb92c4>
    10e8:	193c1927 	ldmdbne	ip!, {r0, r1, r2, r5, r8, fp, ip}
    10ec:	2e0f0000 	cdpcs	0, 0, cr0, cr15, cr0, {0}
    10f0:	03193f01 	tsteq	r9, #1, 30
    10f4:	3b0b3a0e 	blcc	2cf934 <__bss_end__+0x2c4e24>
    10f8:	4919270b 	ldmdbmi	r9, {r0, r1, r3, r8, r9, sl, sp}
    10fc:	01193c13 	tsteq	r9, r3, lsl ip
    1100:	10000013 	andne	r0, r0, r3, lsl r0
    1104:	13490005 	movtne	r0, #36869	; 0x9005
    1108:	18110000 	ldmdane	r1, {}	; <UNPREDICTABLE>
    110c:	00000000 	andeq	r0, r0, r0
    1110:	25011101 	strcs	r1, [r1, #-257]	; 0x101
    1114:	030b130e 	movweq	r1, #45838	; 0xb30e
    1118:	110e1b0e 	tstne	lr, lr, lsl #22
    111c:	10061201 	andne	r1, r6, r1, lsl #4
    1120:	02000017 	andeq	r0, r0, #23
    1124:	0b0b0024 	bleq	2c11bc <__bss_end__+0x2b66ac>
    1128:	08030b3e 	stmdaeq	r3, {r1, r2, r3, r4, r5, r8, r9, fp}
    112c:	24030000 	strcs	r0, [r3], #-0
    1130:	3e0b0b00 	vmlacc.f64	d0, d11, d0
    1134:	000e030b 	andeq	r0, lr, fp, lsl #6
    1138:	002e0400 	eoreq	r0, lr, r0, lsl #8
    113c:	0e03193f 	mcreq	9, 0, r1, cr3, cr15, {1}
    1140:	0b3b0b3a 	bleq	ec3e30 <__bss_end__+0xeb9320>
    1144:	01111927 	tsteq	r1, r7, lsr #18
    1148:	18400612 	stmdane	r0, {r1, r4, r9, sl}^
    114c:	00194297 	mulseq	r9, r7, r2
    1150:	11010000 	mrsne	r0, (UNDEF: 1)
    1154:	130e2501 	movwne	r2, #58625	; 0xe501
    1158:	1b0e030b 	blne	381d8c <__bss_end__+0x37727c>
    115c:	1201110e 	andne	r1, r1, #-2147483645	; 0x80000003
    1160:	00171006 	andseq	r1, r7, r6
    1164:	00240200 	eoreq	r0, r4, r0, lsl #4
    1168:	0b3e0b0b 	bleq	f83d9c <__bss_end__+0xf7928c>
    116c:	00000803 	andeq	r0, r0, r3, lsl #16
    1170:	0b002403 	bleq	a184 <__FUNCTION__.4423+0xb8>
    1174:	030b3e0b 	movweq	r3, #48651	; 0xbe0b
    1178:	0400000e 	streq	r0, [r0], #-14
    117c:	0b0b0104 	bleq	2c1594 <__bss_end__+0x2b6a84>
    1180:	0b3b0b3a 	bleq	ec3e70 <__bss_end__+0xeb9360>
    1184:	00001301 	andeq	r1, r0, r1, lsl #6
    1188:	03002805 	movweq	r2, #2053	; 0x805
    118c:	000d1c0e 	andeq	r1, sp, lr, lsl #24
    1190:	012e0600 	teqeq	lr, r0, lsl #12
    1194:	0e03193f 	mcreq	9, 0, r1, cr3, cr15, {1}
    1198:	0b3b0b3a 	bleq	ec3e88 <__bss_end__+0xeb9378>
    119c:	01111927 	tsteq	r1, r7, lsr #18
    11a0:	18400612 	stmdane	r0, {r1, r4, r9, sl}^
    11a4:	01194297 			; <UNDEFINED> instruction: 0x01194297
    11a8:	07000013 	smladeq	r0, r3, r0, r0
    11ac:	0e030034 	mcreq	0, 0, r0, cr3, cr4, {1}
    11b0:	0b3b0b3a 	bleq	ec3ea0 <__bss_end__+0xeb9390>
    11b4:	193f1349 	ldmdbne	pc!, {r0, r3, r6, r8, r9, ip}	; <UNPREDICTABLE>
    11b8:	0000193c 	andeq	r1, r0, ip, lsr r9
    11bc:	03003408 	movweq	r3, #1032	; 0x408
    11c0:	3b0b3a08 	blcc	2cf9e8 <__bss_end__+0x2c4ed8>
    11c4:	1c13490b 	ldcne	9, cr4, [r3], {11}
    11c8:	0900000b 	stmdbeq	r0, {r0, r1, r3}
    11cc:	08030034 	stmdaeq	r3, {r2, r4, r5}
    11d0:	0b3b0b3a 	bleq	ec3ec0 <__bss_end__+0xeb93b0>
    11d4:	00001349 	andeq	r1, r0, r9, asr #6
    11d8:	0300340a 	movweq	r3, #1034	; 0x40a
    11dc:	3b0b3a08 	blcc	2cfa04 <__bss_end__+0x2c4ef4>
    11e0:	0213490b 	andseq	r4, r3, #180224	; 0x2c000
    11e4:	0b000018 	bleq	124c <__code_start__-0x6db4>
    11e8:	0111010b 	tsteq	r1, fp, lsl #2
    11ec:	13010612 	movwne	r0, #5650	; 0x1612
    11f0:	340c0000 	strcc	r0, [ip], #-0
    11f4:	3a080300 	bcc	201dfc <__bss_end__+0x1f72ec>
    11f8:	490b3b0b 	stmdbmi	fp, {r0, r1, r3, r8, r9, fp, ip, sp}
    11fc:	00170213 	andseq	r0, r7, r3, lsl r2
    1200:	82890d00 	addhi	r0, r9, #0, 26
    1204:	01110001 	tsteq	r1, r1
    1208:	00001331 	andeq	r1, r0, r1, lsr r3
    120c:	0182890e 	orreq	r8, r2, lr, lsl #18
    1210:	31011101 	tstcc	r1, r1, lsl #2
    1214:	00130113 	andseq	r0, r3, r3, lsl r1
    1218:	828a0f00 	addhi	r0, sl, #0, 30
    121c:	18020001 	stmdane	r2, {r0}
    1220:	00184291 	mulseq	r8, r1, r2
    1224:	000f1000 	andeq	r1, pc, r0
    1228:	13490b0b 	movtne	r0, #39691	; 0x9b0b
    122c:	2e110000 	cdpcs	0, 1, cr0, cr1, cr0, {0}
    1230:	03193f00 	tsteq	r9, #0, 30
    1234:	3b0b3a0e 	blcc	2cfa74 <__bss_end__+0x2c4f64>
    1238:	3c19270b 	ldccc	7, cr2, [r9], {11}
    123c:	12000019 	andne	r0, r0, #25
    1240:	193f012e 	ldmdbne	pc!, {r1, r2, r3, r5, r8}	; <UNPREDICTABLE>
    1244:	0b3a0e03 	bleq	e84a58 <__bss_end__+0xe79f48>
    1248:	19270b3b 	stmdbne	r7!, {r0, r1, r3, r4, r5, r8, r9, fp}
    124c:	0000193c 	andeq	r1, r0, ip, lsr r9
    1250:	49000513 	stmdbmi	r0, {r0, r1, r4, r8, sl}
    1254:	00000013 	andeq	r0, r0, r3, lsl r0
    1258:	25011101 	strcs	r1, [r1, #-257]	; 0x101
    125c:	030b130e 	movweq	r1, #45838	; 0xb30e
    1260:	550e1b0e 	strpl	r1, [lr, #-2830]	; 0xb0e
    1264:	10011117 	andne	r1, r1, r7, lsl r1
    1268:	02000017 	andeq	r0, r0, #23
    126c:	0b0b0024 	bleq	2c1304 <__bss_end__+0x2b67f4>
    1270:	08030b3e 	stmdaeq	r3, {r1, r2, r3, r4, r5, r8, r9, fp}
    1274:	24030000 	strcs	r0, [r3], #-0
    1278:	3e0b0b00 	vmlacc.f64	d0, d11, d0
    127c:	000e030b 	andeq	r0, lr, fp, lsl #6
    1280:	012e0400 	teqeq	lr, r0, lsl #8
    1284:	0e03193f 	mcreq	9, 0, r1, cr3, cr15, {1}
    1288:	0b3b0b3a 	bleq	ec3f78 <__bss_end__+0xeb9468>
    128c:	13491927 	movtne	r1, #39207	; 0x9927
    1290:	06120111 			; <UNDEFINED> instruction: 0x06120111
    1294:	42971840 	addsmi	r1, r7, #64, 16	; 0x400000
    1298:	00130119 	andseq	r0, r3, r9, lsl r1
    129c:	00340500 	eorseq	r0, r4, r0, lsl #10
    12a0:	0b3a0e03 	bleq	e84ab4 <__bss_end__+0xe79fa4>
    12a4:	13490b3b 	movtne	r0, #39739	; 0x9b3b
    12a8:	00001702 	andeq	r1, r0, r2, lsl #14
    12ac:	3f012e06 	svccc	0x00012e06
    12b0:	3a0e0319 	bcc	381f1c <__bss_end__+0x37740c>
    12b4:	270b3b0b 	strcs	r3, [fp, -fp, lsl #22]
    12b8:	12011119 	andne	r1, r1, #1073741830	; 0x40000006
    12bc:	97184006 	ldrls	r4, [r8, -r6]
    12c0:	13011942 	movwne	r1, #6466	; 0x1942
    12c4:	34070000 	strcc	r0, [r7], #-0
    12c8:	3a0e0300 	bcc	381ed0 <__bss_end__+0x3773c0>
    12cc:	490b3b0b 	stmdbmi	fp, {r0, r1, r3, r8, r9, fp, ip, sp}
    12d0:	00061c13 	andeq	r1, r6, r3, lsl ip
    12d4:	00340800 	eorseq	r0, r4, r0, lsl #16
    12d8:	0b3a0e03 	bleq	e84aec <__bss_end__+0xe79fdc>
    12dc:	13490b3b 	movtne	r0, #39739	; 0x9b3b
    12e0:	00000b1c 	andeq	r0, r0, ip, lsl fp
    12e4:	01828909 	orreq	r8, r2, r9, lsl #18
    12e8:	31011100 	mrscc	r1, (UNDEF: 17)
    12ec:	0a000013 	beq	1340 <__code_start__-0x6cc0>
    12f0:	01018289 	smlabbeq	r1, r9, r2, r8
    12f4:	13310111 	teqne	r1, #1073741828	; 0x40000004
    12f8:	00001301 	andeq	r1, r0, r1, lsl #6
    12fc:	01828a0b 	orreq	r8, r2, fp, lsl #20
    1300:	91180200 	tstls	r8, r0, lsl #4
    1304:	00001842 	andeq	r1, r0, r2, asr #16
    1308:	0182890c 	orreq	r8, r2, ip, lsl #18
    130c:	31011101 	tstcc	r1, r1, lsl #2
    1310:	0d000013 	stceq	0, cr0, [r0, #-76]	; 0xffffffb4
    1314:	13490026 	movtne	r0, #36902	; 0x9026
    1318:	2e0e0000 	cdpcs	0, 0, cr0, cr14, cr0, {0}
    131c:	03193f01 	tsteq	r9, #1, 30
    1320:	3b0b3a0e 	blcc	2cfb60 <__bss_end__+0x2c5050>
    1324:	3c19270b 	ldccc	7, cr2, [r9], {11}
    1328:	00130119 	andseq	r0, r3, r9, lsl r1
    132c:	00050f00 	andeq	r0, r5, r0, lsl #30
    1330:	00001349 	andeq	r1, r0, r9, asr #6
    1334:	3f012e10 	svccc	0x00012e10
    1338:	3a0e0319 	bcc	381fa4 <__bss_end__+0x377494>
    133c:	270b3b0b 	strcs	r3, [fp, -fp, lsl #22]
    1340:	00193c19 	andseq	r3, r9, r9, lsl ip
    1344:	11010000 	mrsne	r0, (UNDEF: 1)
    1348:	130e2501 	movwne	r2, #58625	; 0xe501
    134c:	1b0e030b 	blne	381f80 <__bss_end__+0x377470>
    1350:	1201110e 	andne	r1, r1, #-2147483645	; 0x80000003
    1354:	00171006 	andseq	r1, r7, r6
    1358:	00240200 	eoreq	r0, r4, r0, lsl #4
    135c:	0b3e0b0b 	bleq	f83f90 <__bss_end__+0xf79480>
    1360:	00000803 	andeq	r0, r0, r3, lsl #16
    1364:	0b002403 	bleq	a378 <__FUNCTION__.4451+0x128>
    1368:	030b3e0b 	movweq	r3, #48651	; 0xbe0b
    136c:	0400000e 	streq	r0, [r0], #-14
    1370:	193f012e 	ldmdbne	pc!, {r1, r2, r3, r5, r8}	; <UNPREDICTABLE>
    1374:	0b3a0e03 	bleq	e84b88 <__bss_end__+0xe7a078>
    1378:	19270b3b 	stmdbne	r7!, {r0, r1, r3, r4, r5, r8, r9, fp}
    137c:	06120111 			; <UNDEFINED> instruction: 0x06120111
    1380:	42971840 	addsmi	r1, r7, #64, 16	; 0x400000
    1384:	00130119 	andseq	r0, r3, r9, lsl r1
    1388:	00050500 	andeq	r0, r5, r0, lsl #10
    138c:	0b3a0e03 	bleq	e84ba0 <__bss_end__+0xe7a090>
    1390:	13490b3b 	movtne	r0, #39739	; 0x9b3b
    1394:	00001702 	andeq	r1, r0, r2, lsl #14
    1398:	3f012e06 	svccc	0x00012e06
    139c:	3a0e0319 	bcc	382008 <__bss_end__+0x3774f8>
    13a0:	270b3b0b 	strcs	r3, [fp, -fp, lsl #22]
    13a4:	11134919 	tstne	r3, r9, lsl r9
    13a8:	40061201 	andmi	r1, r6, r1, lsl #4
    13ac:	19429718 	stmdbne	r2, {r3, r4, r8, r9, sl, ip, pc}^
    13b0:	00001301 	andeq	r1, r0, r1, lsl #6
    13b4:	01828907 	orreq	r8, r2, r7, lsl #18
    13b8:	31011101 	tstcc	r1, r1, lsl #2
    13bc:	08000013 	stmdaeq	r0, {r0, r1, r4}
    13c0:	0001828a 	andeq	r8, r1, sl, lsl #5
    13c4:	42911802 	addsmi	r1, r1, #131072	; 0x20000
    13c8:	09000018 	stmdbeq	r0, {r3, r4}
    13cc:	08030034 	stmdaeq	r3, {r2, r4, r5}
    13d0:	0b3b0b3a 	bleq	ec40c0 <__bss_end__+0xeb95b0>
    13d4:	17021349 	strne	r1, [r2, -r9, asr #6]
    13d8:	890a0000 	stmdbhi	sl, {}	; <UNPREDICTABLE>
    13dc:	11000182 	smlabbne	r0, r2, r1, r0
    13e0:	00133101 	andseq	r3, r3, r1, lsl #2
    13e4:	00050b00 	andeq	r0, r5, r0, lsl #22
    13e8:	0b3a0803 	bleq	e833fc <__bss_end__+0xe788ec>
    13ec:	13490b3b 	movtne	r0, #39739	; 0x9b3b
    13f0:	00001702 	andeq	r1, r0, r2, lsl #14
    13f4:	0300340c 	movweq	r3, #1036	; 0x40c
    13f8:	3b0b3a08 	blcc	2cfc20 <__bss_end__+0x2c5110>
    13fc:	0213490b 	andseq	r4, r3, #180224	; 0x2c000
    1400:	0d000018 	stceq	0, cr0, [r0, #-96]	; 0xffffffa0
    1404:	0111010b 	tsteq	r1, fp, lsl #2
    1408:	13010612 	movwne	r0, #5650	; 0x1612
    140c:	2e0e0000 	cdpcs	0, 0, cr0, cr14, cr0, {0}
    1410:	03193f01 	tsteq	r9, #1, 30
    1414:	3b0b3a0e 	blcc	2cfc54 <__bss_end__+0x2c5144>
    1418:	4919270b 	ldmdbmi	r9, {r0, r1, r3, r8, r9, sl, sp}
    141c:	01193c13 	tsteq	r9, r3, lsl ip
    1420:	0f000013 	svceq	0x00000013
    1424:	13490005 	movtne	r0, #36869	; 0x9005
    1428:	2e100000 	cdpcs	0, 1, cr0, cr0, cr0, {0}
    142c:	03193f00 	tsteq	r9, #0, 30
    1430:	3b0b3a0e 	blcc	2cfc70 <__bss_end__+0x2c5160>
    1434:	3c19270b 	ldccc	7, cr2, [r9], {11}
    1438:	00000019 	andeq	r0, r0, r9, lsl r0
    143c:	25011101 	strcs	r1, [r1, #-257]	; 0x101
    1440:	030b130e 	movweq	r1, #45838	; 0xb30e
    1444:	110e1b0e 	tstne	lr, lr, lsl #22
    1448:	10061201 	andne	r1, r6, r1, lsl #4
    144c:	02000017 	andeq	r0, r0, #23
    1450:	0b0b0024 	bleq	2c14e8 <__bss_end__+0x2b69d8>
    1454:	08030b3e 	stmdaeq	r3, {r1, r2, r3, r4, r5, r8, r9, fp}
    1458:	24030000 	strcs	r0, [r3], #-0
    145c:	3e0b0b00 	vmlacc.f64	d0, d11, d0
    1460:	000e030b 	andeq	r0, lr, fp, lsl #6
    1464:	00350400 	eorseq	r0, r5, r0, lsl #8
    1468:	00001349 	andeq	r1, r0, r9, asr #6
    146c:	03001605 	movweq	r1, #1541	; 0x605
    1470:	3b0b3a0e 	blcc	2cfcb0 <__bss_end__+0x2c51a0>
    1474:	0013490b 	andseq	r4, r3, fp, lsl #18
    1478:	00160600 	andseq	r0, r6, r0, lsl #12
    147c:	0b3a0e03 	bleq	e84c90 <__bss_end__+0xe7a180>
    1480:	1349053b 	movtne	r0, #38203	; 0x953b
    1484:	17070000 	strne	r0, [r7, -r0]
    1488:	3a0b0b01 	bcc	2c4094 <__bss_end__+0x2b9584>
    148c:	010b3b0b 	tsteq	fp, fp, lsl #22
    1490:	08000013 	stmdaeq	r0, {r0, r1, r4}
    1494:	0e03000d 	cdpeq	0, 0, cr0, cr3, cr13, {0}
    1498:	0b3b0b3a 	bleq	ec4188 <__bss_end__+0xeb9678>
    149c:	00001349 	andeq	r1, r0, r9, asr #6
    14a0:	49010109 	stmdbmi	r1, {r0, r3, r8}
    14a4:	00130113 	andseq	r0, r3, r3, lsl r1
    14a8:	00210a00 	eoreq	r0, r1, r0, lsl #20
    14ac:	0b2f1349 	bleq	bc61d8 <__bss_end__+0xbbb6c8>
    14b0:	130b0000 	movwne	r0, #45056	; 0xb000
    14b4:	3a0b0b01 	bcc	2c40c0 <__bss_end__+0x2b95b0>
    14b8:	010b3b0b 	tsteq	fp, fp, lsl #22
    14bc:	0c000013 	stceq	0, cr0, [r0], {19}
    14c0:	0e03000d 	cdpeq	0, 0, cr0, cr3, cr13, {0}
    14c4:	0b3b0b3a 	bleq	ec41b4 <__bss_end__+0xeb96a4>
    14c8:	0b381349 	bleq	e061f4 <__bss_end__+0xdfb6e4>
    14cc:	0f0d0000 	svceq	0x000d0000
    14d0:	000b0b00 	andeq	r0, fp, r0, lsl #22
    14d4:	000f0e00 	andeq	r0, pc, r0, lsl #28
    14d8:	13490b0b 	movtne	r0, #39691	; 0x9b0b
    14dc:	260f0000 	strcs	r0, [pc], -r0
    14e0:	00134900 	andseq	r4, r3, r0, lsl #18
    14e4:	01131000 	tsteq	r3, r0
    14e8:	0b0b0e03 	bleq	2c4cfc <__bss_end__+0x2ba1ec>
    14ec:	0b3b0b3a 	bleq	ec41dc <__bss_end__+0xeb96cc>
    14f0:	00001301 	andeq	r1, r0, r1, lsl #6
    14f4:	03000d11 	movweq	r0, #3345	; 0xd11
    14f8:	3b0b3a08 	blcc	2cfd20 <__bss_end__+0x2c5210>
    14fc:	3813490b 	ldmdacc	r3, {r0, r1, r3, r8, fp, lr}
    1500:	1200000b 	andne	r0, r0, #11
    1504:	0e030113 	mcreq	1, 0, r0, cr3, cr3, {0}
    1508:	0b3a050b 	bleq	e8293c <__bss_end__+0xe77e2c>
    150c:	13010b3b 	movwne	r0, #6971	; 0x1b3b
    1510:	0d130000 	ldceq	0, cr0, [r3, #-0]
    1514:	3a0e0300 	bcc	38211c <__bss_end__+0x37760c>
    1518:	490b3b0b 	stmdbmi	fp, {r0, r1, r3, r8, r9, fp, ip, sp}
    151c:	00053813 	andeq	r3, r5, r3, lsl r8
    1520:	00151400 	andseq	r1, r5, r0, lsl #8
    1524:	00001927 	andeq	r1, r0, r7, lsr #18
    1528:	27011515 	smladcs	r1, r5, r5, r1
    152c:	01134919 	tsteq	r3, r9, lsl r9
    1530:	16000013 			; <UNDEFINED> instruction: 0x16000013
    1534:	13490005 	movtne	r0, #36869	; 0x9005
    1538:	13170000 	tstne	r7, #0
    153c:	0b0e0301 	bleq	382148 <__bss_end__+0x377638>
    1540:	3b0b3a05 	blcc	2cfd5c <__bss_end__+0x2c524c>
    1544:	00130105 	andseq	r0, r3, r5, lsl #2
    1548:	000d1800 	andeq	r1, sp, r0, lsl #16
    154c:	0b3a0e03 	bleq	e84d60 <__bss_end__+0xe7a250>
    1550:	1349053b 	movtne	r0, #38203	; 0x953b
    1554:	00000b38 	andeq	r0, r0, r8, lsr fp
    1558:	03000d19 	movweq	r0, #3353	; 0xd19
    155c:	3b0b3a0e 	blcc	2cfd9c <__bss_end__+0x2c528c>
    1560:	38134905 	ldmdacc	r3, {r0, r2, r8, fp, lr}
    1564:	1a000005 	bne	1580 <__code_start__-0x6a80>
    1568:	0e030113 	mcreq	1, 0, r0, cr3, cr3, {0}
    156c:	0b3a0b0b 	bleq	e841a0 <__bss_end__+0xe79690>
    1570:	1301053b 	movwne	r0, #5435	; 0x153b
    1574:	131b0000 	tstne	fp, #0
    1578:	3a0b0b01 	bcc	2c4184 <__bss_end__+0x2b9674>
    157c:	01053b0b 	tsteq	r5, fp, lsl #22
    1580:	1c000013 	stcne	0, cr0, [r0], {19}
    1584:	0b0b0117 	bleq	2c19e8 <__bss_end__+0x2b6ed8>
    1588:	053b0b3a 	ldreq	r0, [fp, #-2874]!	; 0xb3a
    158c:	00001301 	andeq	r1, r0, r1, lsl #6
    1590:	03000d1d 	movweq	r0, #3357	; 0xd1d
    1594:	3b0b3a0e 	blcc	2cfdd4 <__bss_end__+0x2c52c4>
    1598:	00134905 	andseq	r4, r3, r5, lsl #18
    159c:	01151e00 	tsteq	r5, r0, lsl #28
    15a0:	13011927 	movwne	r1, #6439	; 0x1927
    15a4:	341f0000 	ldrcc	r0, [pc], #-0	; 15ac <__code_start__-0x6a54>
    15a8:	3a0e0300 	bcc	3821b0 <__bss_end__+0x3776a0>
    15ac:	49053b0b 	stmdbmi	r5, {r0, r1, r3, r8, r9, fp, ip, sp}
    15b0:	3c193f13 	ldccc	15, cr3, [r9], {19}
    15b4:	20000019 	andcs	r0, r0, r9, lsl r0
    15b8:	0e030034 	mcreq	0, 0, r0, cr3, cr4, {1}
    15bc:	0b3b0b3a 	bleq	ec42ac <__bss_end__+0xeb979c>
    15c0:	193f1349 	ldmdbne	pc!, {r0, r3, r6, r8, r9, ip}	; <UNPREDICTABLE>
    15c4:	0000193c 	andeq	r1, r0, ip, lsr r9
    15c8:	0b010421 	bleq	42654 <__bss_end__+0x37b44>
    15cc:	3a13490b 	bcc	4d3a00 <__bss_end__+0x4c8ef0>
    15d0:	010b3b0b 	tsteq	fp, fp, lsl #22
    15d4:	22000013 	andcs	r0, r0, #19
    15d8:	0e030028 	cdpeq	0, 0, cr0, cr3, cr8, {1}
    15dc:	00000b1c 	andeq	r0, r0, ip, lsl fp
    15e0:	03003423 	movweq	r3, #1059	; 0x423
    15e4:	3b0b3a0e 	blcc	2cfe24 <__bss_end__+0x2c5314>
    15e8:	1c13490b 	ldcne	9, cr4, [r3], {11}
    15ec:	24000006 	strcs	r0, [r0], #-6
    15f0:	193f012e 	ldmdbne	pc!, {r1, r2, r3, r5, r8}	; <UNPREDICTABLE>
    15f4:	0b3a0e03 	bleq	e84e08 <__bss_end__+0xe7a2f8>
    15f8:	19270b3b 	stmdbne	r7!, {r0, r1, r3, r4, r5, r8, r9, fp}
    15fc:	01111349 	tsteq	r1, r9, asr #6
    1600:	18400612 	stmdane	r0, {r1, r4, r9, sl}^
    1604:	01194297 			; <UNDEFINED> instruction: 0x01194297
    1608:	25000013 	strcs	r0, [r0, #-19]
    160c:	00018289 	andeq	r8, r1, r9, lsl #5
    1610:	13310111 	teqne	r1, #1073741828	; 0x40000004
    1614:	2e260000 	cdpcs	0, 2, cr0, cr6, cr0, {0}
    1618:	03193f01 	tsteq	r9, #1, 30
    161c:	3b0b3a0e 	blcc	2cfe5c <__bss_end__+0x2c534c>
    1620:	1119270b 	tstne	r9, fp, lsl #14
    1624:	40061201 	andmi	r1, r6, r1, lsl #4
    1628:	19429718 	stmdbne	r2, {r3, r4, r8, r9, sl, ip, pc}^
    162c:	00001301 	andeq	r1, r0, r1, lsl #6
    1630:	03000527 	movweq	r0, #1319	; 0x527
    1634:	3b0b3a08 	blcc	2cfe5c <__bss_end__+0x2c534c>
    1638:	0213490b 	andseq	r4, r3, #180224	; 0x2c000
    163c:	28000017 	stmdacs	r0, {r0, r1, r2, r4}
    1640:	01018289 	smlabbeq	r1, r9, r2, r8
    1644:	13310111 	teqne	r1, #1073741828	; 0x40000004
    1648:	00001301 	andeq	r1, r0, r1, lsl #6
    164c:	01828a29 	orreq	r8, r2, r9, lsr #20
    1650:	91180200 	tstls	r8, r0, lsl #4
    1654:	00001842 	andeq	r1, r0, r2, asr #16
    1658:	0300342a 	movweq	r3, #1066	; 0x42a
    165c:	3b0b3a08 	blcc	2cfe84 <__bss_end__+0x2c5374>
    1660:	0213490b 	andseq	r4, r3, #180224	; 0x2c000
    1664:	2b000018 	blcs	16cc <__code_start__-0x6934>
    1668:	01018289 	smlabbeq	r1, r9, r2, r8
    166c:	13310111 	teqne	r1, #1073741828	; 0x40000004
    1670:	2e2c0000 	cdpcs	0, 2, cr0, cr12, cr0, {0}
    1674:	3a0e0301 	bcc	382280 <__bss_end__+0x377770>
    1678:	270b3b0b 	strcs	r3, [fp, -fp, lsl #22]
    167c:	12011119 	andne	r1, r1, #1073741830	; 0x40000006
    1680:	97184006 	ldrls	r4, [r8, -r6]
    1684:	13011942 	movwne	r1, #6466	; 0x1942
    1688:	052d0000 	streq	r0, [sp, #-0]!
    168c:	3a0e0300 	bcc	382294 <__bss_end__+0x377784>
    1690:	490b3b0b 	stmdbmi	fp, {r0, r1, r3, r8, r9, fp, ip, sp}
    1694:	00170213 	andseq	r0, r7, r3, lsl r2
    1698:	00352e00 	eorseq	r2, r5, r0, lsl #28
    169c:	2e2f0000 	cdpcs	0, 2, cr0, cr15, cr0, {0}
    16a0:	3c193f00 	ldccc	15, cr3, [r9], {-0}
    16a4:	030e6e19 	movweq	r6, #60953	; 0xee19
    16a8:	3b0b3a0e 	blcc	2cfee8 <__bss_end__+0x2c53d8>
    16ac:	0000000b 	andeq	r0, r0, fp
    16b0:	25011101 	strcs	r1, [r1, #-257]	; 0x101
    16b4:	030b130e 	movweq	r1, #45838	; 0xb30e
    16b8:	110e1b0e 	tstne	lr, lr, lsl #22
    16bc:	10061201 	andne	r1, r6, r1, lsl #4
    16c0:	02000017 	andeq	r0, r0, #23
    16c4:	0b0b0024 	bleq	2c175c <__bss_end__+0x2b6c4c>
    16c8:	08030b3e 	stmdaeq	r3, {r1, r2, r3, r4, r5, r8, r9, fp}
    16cc:	24030000 	strcs	r0, [r3], #-0
    16d0:	3e0b0b00 	vmlacc.f64	d0, d11, d0
    16d4:	000e030b 	andeq	r0, lr, fp, lsl #6
    16d8:	00260400 	eoreq	r0, r6, r0, lsl #8
    16dc:	00001349 	andeq	r1, r0, r9, asr #6
    16e0:	03001605 	movweq	r1, #1541	; 0x605
    16e4:	3b0b3a0e 	blcc	2cff24 <__bss_end__+0x2c5414>
    16e8:	0013490b 	andseq	r4, r3, fp, lsl #18
    16ec:	00160600 	andseq	r0, r6, r0, lsl #12
    16f0:	0b3a0e03 	bleq	e84f04 <__bss_end__+0xe7a3f4>
    16f4:	1349053b 	movtne	r0, #38203	; 0x953b
    16f8:	17070000 	strne	r0, [r7, -r0]
    16fc:	3a0b0b01 	bcc	2c4308 <__bss_end__+0x2b97f8>
    1700:	010b3b0b 	tsteq	fp, fp, lsl #22
    1704:	08000013 	stmdaeq	r0, {r0, r1, r4}
    1708:	0e03000d 	cdpeq	0, 0, cr0, cr3, cr13, {0}
    170c:	0b3b0b3a 	bleq	ec43fc <__bss_end__+0xeb98ec>
    1710:	00001349 	andeq	r1, r0, r9, asr #6
    1714:	49010109 	stmdbmi	r1, {r0, r3, r8}
    1718:	00130113 	andseq	r0, r3, r3, lsl r1
    171c:	00210a00 	eoreq	r0, r1, r0, lsl #20
    1720:	0b2f1349 	bleq	bc644c <__bss_end__+0xbbb93c>
    1724:	130b0000 	movwne	r0, #45056	; 0xb000
    1728:	3a0b0b01 	bcc	2c4334 <__bss_end__+0x2b9824>
    172c:	010b3b0b 	tsteq	fp, fp, lsl #22
    1730:	0c000013 	stceq	0, cr0, [r0], {19}
    1734:	0e03000d 	cdpeq	0, 0, cr0, cr3, cr13, {0}
    1738:	0b3b0b3a 	bleq	ec4428 <__bss_end__+0xeb9918>
    173c:	0b381349 	bleq	e06468 <__bss_end__+0xdfb958>
    1740:	0f0d0000 	svceq	0x000d0000
    1744:	000b0b00 	andeq	r0, fp, r0, lsl #22
    1748:	000f0e00 	andeq	r0, pc, r0, lsl #28
    174c:	13490b0b 	movtne	r0, #39691	; 0x9b0b
    1750:	130f0000 	movwne	r0, #61440	; 0xf000
    1754:	0b0e0301 	bleq	382360 <__bss_end__+0x377850>
    1758:	3b0b3a0b 	blcc	2cff8c <__bss_end__+0x2c547c>
    175c:	0013010b 	andseq	r0, r3, fp, lsl #2
    1760:	000d1000 	andeq	r1, sp, r0
    1764:	0b3a0803 	bleq	e83778 <__bss_end__+0xe78c68>
    1768:	13490b3b 	movtne	r0, #39739	; 0x9b3b
    176c:	00000b38 	andeq	r0, r0, r8, lsr fp
    1770:	03011311 	movweq	r1, #4881	; 0x1311
    1774:	3a050b0e 	bcc	1443b4 <__bss_end__+0x1398a4>
    1778:	010b3b0b 	tsteq	fp, fp, lsl #22
    177c:	12000013 	andne	r0, r0, #19
    1780:	0e03000d 	cdpeq	0, 0, cr0, cr3, cr13, {0}
    1784:	0b3b0b3a 	bleq	ec4474 <__bss_end__+0xeb9964>
    1788:	05381349 	ldreq	r1, [r8, #-841]!	; 0x349
    178c:	15130000 	ldrne	r0, [r3, #-0]
    1790:	00192700 	andseq	r2, r9, r0, lsl #14
    1794:	01151400 	tsteq	r5, r0, lsl #8
    1798:	13491927 	movtne	r1, #39207	; 0x9927
    179c:	00001301 	andeq	r1, r0, r1, lsl #6
    17a0:	49000515 	stmdbmi	r0, {r0, r2, r4, r8, sl}
    17a4:	16000013 			; <UNDEFINED> instruction: 0x16000013
    17a8:	0e030113 	mcreq	1, 0, r0, cr3, cr3, {0}
    17ac:	0b3a050b 	bleq	e82be0 <__bss_end__+0xe780d0>
    17b0:	1301053b 	movwne	r0, #5435	; 0x153b
    17b4:	0d170000 	ldceq	0, cr0, [r7, #-0]
    17b8:	3a0e0300 	bcc	3823c0 <__bss_end__+0x3778b0>
    17bc:	49053b0b 	stmdbmi	r5, {r0, r1, r3, r8, r9, fp, ip, sp}
    17c0:	000b3813 	andeq	r3, fp, r3, lsl r8
    17c4:	000d1800 	andeq	r1, sp, r0, lsl #16
    17c8:	0b3a0e03 	bleq	e84fdc <__bss_end__+0xe7a4cc>
    17cc:	1349053b 	movtne	r0, #38203	; 0x953b
    17d0:	00000538 	andeq	r0, r0, r8, lsr r5
    17d4:	03011319 	movweq	r1, #4889	; 0x1319
    17d8:	3a0b0b0e 	bcc	2c4418 <__bss_end__+0x2b9908>
    17dc:	01053b0b 	tsteq	r5, fp, lsl #22
    17e0:	1a000013 	bne	1834 <__code_start__-0x67cc>
    17e4:	0b0b0113 	bleq	2c1c38 <__bss_end__+0x2b7128>
    17e8:	053b0b3a 	ldreq	r0, [fp, #-2874]!	; 0xb3a
    17ec:	00001301 	andeq	r1, r0, r1, lsl #6
    17f0:	0b01171b 	bleq	47464 <__bss_end__+0x3c954>
    17f4:	3b0b3a0b 	blcc	2d0028 <__bss_end__+0x2c5518>
    17f8:	00130105 	andseq	r0, r3, r5, lsl #2
    17fc:	000d1c00 	andeq	r1, sp, r0, lsl #24
    1800:	0b3a0e03 	bleq	e85014 <__bss_end__+0xe7a504>
    1804:	1349053b 	movtne	r0, #38203	; 0x953b
    1808:	151d0000 	ldrne	r0, [sp, #-0]
    180c:	01192701 	tsteq	r9, r1, lsl #14
    1810:	1e000013 	mcrne	0, 0, r0, cr0, cr3, {0}
    1814:	0e030034 	mcreq	0, 0, r0, cr3, cr4, {1}
    1818:	053b0b3a 	ldreq	r0, [fp, #-2874]!	; 0xb3a
    181c:	193f1349 	ldmdbne	pc!, {r0, r3, r6, r8, r9, ip}	; <UNPREDICTABLE>
    1820:	0000193c 	andeq	r1, r0, ip, lsr r9
    1824:	0300341f 	movweq	r3, #1055	; 0x41f
    1828:	3b0b3a0e 	blcc	2d0068 <__bss_end__+0x2c5558>
    182c:	3f13490b 	svccc	0x0013490b
    1830:	00193c19 	andseq	r3, r9, r9, lsl ip
    1834:	01042000 	mrseq	r2, (UNDEF: 4)
    1838:	13490b0b 	movtne	r0, #39691	; 0x9b0b
    183c:	0b3b0b3a 	bleq	ec452c <__bss_end__+0xeb9a1c>
    1840:	00001301 	andeq	r1, r0, r1, lsl #6
    1844:	03002821 	movweq	r2, #2081	; 0x821
    1848:	000b1c0e 	andeq	r1, fp, lr, lsl #24
    184c:	00342200 	eorseq	r2, r4, r0, lsl #4
    1850:	0b3a0e03 	bleq	e85064 <__bss_end__+0xe7a554>
    1854:	13490b3b 	movtne	r0, #39739	; 0x9b3b
    1858:	0000061c 	andeq	r0, r0, ip, lsl r6
    185c:	3f012e23 	svccc	0x00012e23
    1860:	3a0e0319 	bcc	3824cc <__bss_end__+0x3779bc>
    1864:	270b3b0b 	strcs	r3, [fp, -fp, lsl #22]
    1868:	11134919 	tstne	r3, r9, lsl r9
    186c:	40061201 	andmi	r1, r6, r1, lsl #4
    1870:	19429718 	stmdbne	r2, {r3, r4, r8, r9, sl, ip, pc}^
    1874:	00001301 	andeq	r1, r0, r1, lsl #6
    1878:	03000524 	movweq	r0, #1316	; 0x524
    187c:	3b0b3a08 	blcc	2d00a4 <__bss_end__+0x2c5594>
    1880:	0213490b 	andseq	r4, r3, #180224	; 0x2c000
    1884:	25000017 	strcs	r0, [r0, #-23]
    1888:	0e030034 	mcreq	0, 0, r0, cr3, cr4, {1}
    188c:	0b3b0b3a 	bleq	ec457c <__bss_end__+0xeb9a6c>
    1890:	17021349 	strne	r1, [r2, -r9, asr #6]
    1894:	34260000 	strtcc	r0, [r6], #-0
    1898:	3a080300 	bcc	2024a0 <__bss_end__+0x1f7990>
    189c:	490b3b0b 	stmdbmi	fp, {r0, r1, r3, r8, r9, fp, ip, sp}
    18a0:	00170213 	andseq	r0, r7, r3, lsl r2
    18a4:	82892700 	addhi	r2, r9, #0, 14
    18a8:	01110101 	tsteq	r1, r1, lsl #2
    18ac:	00001331 	andeq	r1, r0, r1, lsr r3
    18b0:	01828a28 	orreq	r8, r2, r8, lsr #20
    18b4:	91180200 	tstls	r8, r0, lsl #4
    18b8:	00001842 	andeq	r1, r0, r2, asr #16
    18bc:	3f012e29 	svccc	0x00012e29
    18c0:	3a0e0319 	bcc	38252c <__bss_end__+0x377a1c>
    18c4:	270b3b0b 	strcs	r3, [fp, -fp, lsl #22]
    18c8:	12011119 	andne	r1, r1, #1073741830	; 0x40000006
    18cc:	97184006 	ldrls	r4, [r8, -r6]
    18d0:	13011942 	movwne	r1, #6466	; 0x1942
    18d4:	892a0000 	stmdbhi	sl!, {}	; <UNPREDICTABLE>
    18d8:	11010182 	smlabbne	r1, r2, r1, r0
    18dc:	01133101 	tsteq	r3, r1, lsl #2
    18e0:	2b000013 	blcs	1934 <__code_start__-0x66cc>
    18e4:	00018289 	andeq	r8, r1, r9, lsl #5
    18e8:	13310111 	teqne	r1, #1073741828	; 0x40000004
    18ec:	052c0000 	streq	r0, [ip, #-0]!
    18f0:	3a0e0300 	bcc	3824f8 <__bss_end__+0x3779e8>
    18f4:	490b3b0b 	stmdbmi	fp, {r0, r1, r3, r8, r9, fp, ip, sp}
    18f8:	00170213 	andseq	r0, r7, r3, lsl r2
    18fc:	00342d00 	eorseq	r2, r4, r0, lsl #26
    1900:	0b3a0803 	bleq	e83914 <__bss_end__+0xe78e04>
    1904:	13490b3b 	movtne	r0, #39739	; 0x9b3b
    1908:	00001802 	andeq	r1, r0, r2, lsl #16
    190c:	3f002e2e 	svccc	0x00002e2e
    1910:	6e193c19 	mrcvs	12, 0, r3, cr9, cr9, {0}
    1914:	3a0e030e 	bcc	382554 <__bss_end__+0x377a44>
    1918:	000b3b0b 	andeq	r3, fp, fp, lsl #22
	...

Disassembly of section .debug_loc:

00000000 <.debug_loc>:
       0:	00000000 	andeq	r0, r0, r0
       4:	0000000c 	andeq	r0, r0, ip
       8:	0c500001 	mrrceq	0, 0, r0, r0, cr1	; <UNPREDICTABLE>
       c:	8c000000 	stchi	0, cr0, [r0], {-0}
      10:	04000000 	streq	r0, [r0], #-0
      14:	5001f300 	andpl	pc, r1, r0, lsl #6
      18:	0000009f 	muleq	r0, pc, r0	; <UNPREDICTABLE>
      1c:	00000000 	andeq	r0, r0, r0
      20:	00000800 	andeq	r0, r0, r0, lsl #16
      24:	00000c00 	andeq	r0, r0, r0, lsl #24
      28:	50000100 	andpl	r0, r0, r0, lsl #2
      2c:	0000000c 	andeq	r0, r0, ip
      30:	0000008c 	andeq	r0, r0, ip, lsl #1
      34:	01f30004 	mvnseq	r0, r4
      38:	00009f50 	andeq	r9, r0, r0, asr pc
      3c:	00000000 	andeq	r0, r0, r0
      40:	008c0000 	addeq	r0, ip, r0
      44:	00980000 	addseq	r0, r8, r0
      48:	00010000 	andeq	r0, r1, r0
      4c:	00009850 	andeq	r9, r0, r0, asr r8
      50:	00026400 	andeq	r6, r2, r0, lsl #8
      54:	f3000400 	vshl.u8	d0, d0, d0
      58:	009f5001 	addseq	r5, pc, r1
      5c:	00000000 	andeq	r0, r0, r0
      60:	14000000 	strne	r0, [r0], #-0
      64:	18000001 	stmdane	r0, {r0}
      68:	01000001 	tsteq	r0, r1
      6c:	00005100 	andeq	r5, r0, r0, lsl #2
      70:	00000000 	andeq	r0, r0, r0
      74:	018c0000 	orreq	r0, ip, r0
      78:	01900000 	orrseq	r0, r0, r0
      7c:	00010000 	andeq	r0, r1, r0
      80:	00000053 	andeq	r0, r0, r3, asr r0
      84:	00000000 	andeq	r0, r0, r0
      88:	00026400 	andeq	r6, r2, r0, lsl #8
      8c:	00027000 	andeq	r7, r2, r0
      90:	50000100 	andpl	r0, r0, r0, lsl #2
      94:	00000270 	andeq	r0, r0, r0, ror r2
      98:	000002ec 	andeq	r0, r0, ip, ror #5
      9c:	01f30004 	mvnseq	r0, r4
      a0:	00009f50 	andeq	r9, r0, r0, asr pc
      a4:	00000000 	andeq	r0, r0, r0
      a8:	028c0000 	addeq	r0, ip, #0
      ac:	02cc0000 	sbceq	r0, ip, #0
      b0:	00060000 	andeq	r0, r6, r0
      b4:	00a6f003 	adceq	pc, r6, r3
      b8:	00009f00 	andeq	r9, r0, r0, lsl #30
      bc:	00000000 	andeq	r0, r0, r0
      c0:	030c0000 	movweq	r0, #49152	; 0xc000
      c4:	03270000 	teqeq	r7, #0
      c8:	00010000 	andeq	r0, r1, r0
      cc:	00032750 	andeq	r2, r3, r0, asr r7
      d0:	00034800 	andeq	r4, r3, r0, lsl #16
      d4:	f3000400 	vshl.u8	d0, d0, d0
      d8:	489f5001 	ldmmi	pc, {r0, ip, lr}	; <UNPREDICTABLE>
      dc:	50000003 	andpl	r0, r0, r3
      e0:	01000003 	tsteq	r0, r3
      e4:	03505000 	cmpeq	r0, #0
      e8:	03780000 	cmneq	r8, #0
      ec:	00040000 	andeq	r0, r4, r0
      f0:	9f5001f3 	svcls	0x005001f3
	...
      fc:	000003fc 	strdeq	r0, [r0], -ip
     100:	000004ec 	andeq	r0, r0, ip, ror #9
     104:	c8540001 	ldmdagt	r4, {r0}^
     108:	d0000005 	andle	r0, r0, r5
     10c:	01000005 	tsteq	r0, r5
     110:	00005400 	andeq	r5, r0, r0, lsl #8
     114:	00000000 	andeq	r0, r0, r0
     118:	04ec0000 	strbteq	r0, [ip], #0
     11c:	05c80000 	strbeq	r0, [r8]
     120:	00010000 	andeq	r0, r1, r0
     124:	0005d455 	andeq	sp, r5, r5, asr r4
     128:	00068800 	andeq	r8, r6, r0, lsl #16
     12c:	55000100 	strpl	r0, [r0, #-256]	; 0x100
	...
     138:	000004ec 	andeq	r0, r0, ip, ror #9
     13c:	000005c8 	andeq	r0, r0, r8, asr #11
     140:	f0030006 			; <UNDEFINED> instruction: 0xf0030006
     144:	9f0000a6 	svcls	0x000000a6
	...
     150:	000004f0 	strdeq	r0, [r0], -r0	; <UNPREDICTABLE>
     154:	000005c8 	andeq	r0, r0, r8, asr #11
     158:	f0030006 			; <UNDEFINED> instruction: 0xf0030006
     15c:	9f0000a6 	svcls	0x000000a6
	...
     168:	00000524 	andeq	r0, r0, r4, lsr #10
     16c:	000005c8 	andeq	r0, r0, r8, asr #11
     170:	f0030006 			; <UNDEFINED> instruction: 0xf0030006
     174:	9f0000a6 	svcls	0x000000a6
	...
     180:	00000558 	andeq	r0, r0, r8, asr r5
     184:	000005c8 	andeq	r0, r0, r8, asr #11
     188:	f0030006 			; <UNDEFINED> instruction: 0xf0030006
     18c:	9f0000a6 	svcls	0x000000a6
	...
     198:	0000058c 	andeq	r0, r0, ip, lsl #11
     19c:	000005c8 	andeq	r0, r0, r8, asr #11
     1a0:	f0030006 			; <UNDEFINED> instruction: 0xf0030006
     1a4:	9f0000a6 	svcls	0x000000a6
	...
     1b4:	00000023 	andeq	r0, r0, r3, lsr #32
     1b8:	23500001 	cmpcs	r0, #1
     1bc:	44000000 	strmi	r0, [r0], #-0
     1c0:	04000000 	streq	r0, [r0], #-0
     1c4:	5001f300 	andpl	pc, r1, r0, lsl #6
     1c8:	0000449f 	muleq	r0, pc, r4	; <UNPREDICTABLE>
     1cc:	00005f00 	andeq	r5, r0, r0, lsl #30
     1d0:	50000100 	andpl	r0, r0, r0, lsl #2
     1d4:	0000005f 	andeq	r0, r0, pc, asr r0
     1d8:	00000080 	andeq	r0, r0, r0, lsl #1
     1dc:	01f30004 	mvnseq	r0, r4
     1e0:	00809f50 	addeq	r9, r0, r0, asr pc
     1e4:	00b00000 	adcseq	r0, r0, r0
     1e8:	00010000 	andeq	r0, r1, r0
     1ec:	00000050 	andeq	r0, r0, r0, asr r0
	...
     1f8:	00002300 	andeq	r2, r0, r0, lsl #6
     1fc:	51000100 	mrspl	r0, (UNDEF: 16)
     200:	00000023 	andeq	r0, r0, r3, lsr #32
     204:	00000044 	andeq	r0, r0, r4, asr #32
     208:	01f30004 	mvnseq	r0, r4
     20c:	00449f51 	subeq	r9, r4, r1, asr pc
     210:	005f0000 	subseq	r0, pc, r0
     214:	00010000 	andeq	r0, r1, r0
     218:	00005f51 	andeq	r5, r0, r1, asr pc
     21c:	00008000 	andeq	r8, r0, r0
     220:	f3000400 	vshl.u8	d0, d0, d0
     224:	809f5101 	addshi	r5, pc, r1, lsl #2
     228:	b0000000 	andlt	r0, r0, r0
     22c:	01000000 	mrseq	r0, (UNDEF: 0)
     230:	00005100 	andeq	r5, r0, r0, lsl #2
     234:	00000000 	andeq	r0, r0, r0
     238:	00100000 	andseq	r0, r0, r0
     23c:	00230000 	eoreq	r0, r3, r0
     240:	00010000 	andeq	r0, r1, r0
     244:	00004453 	andeq	r4, r0, r3, asr r4
     248:	00004800 	andeq	r4, r0, r0, lsl #16
     24c:	53000100 	movwpl	r0, #256	; 0x100
     250:	00000048 	andeq	r0, r0, r8, asr #32
     254:	000000b0 	strheq	r0, [r0], -r0	; <UNPREDICTABLE>
     258:	ff0a0004 			; <UNDEFINED> instruction: 0xff0a0004
     25c:	00009f01 	andeq	r9, r0, r1, lsl #30
     260:	00000000 	andeq	r0, r0, r0
     264:	00440000 	subeq	r0, r4, r0
     268:	005f0000 	subseq	r0, pc, r0
     26c:	00010000 	andeq	r0, r1, r0
     270:	00005f50 	andeq	r5, r0, r0, asr pc
     274:	00008000 	andeq	r8, r0, r0
     278:	f3000400 	vshl.u8	d0, d0, d0
     27c:	809f5001 	addshi	r5, pc, r1
     280:	b0000000 	andlt	r0, r0, r0
     284:	01000000 	mrseq	r0, (UNDEF: 0)
     288:	00005000 	andeq	r5, r0, r0
     28c:	00000000 	andeq	r0, r0, r0
     290:	000c0000 	andeq	r0, ip, r0
     294:	00100000 	andseq	r0, r0, r0
     298:	00010000 	andeq	r0, r1, r0
     29c:	00000053 	andeq	r0, r0, r3, asr r0
     2a0:	00000000 	andeq	r0, r0, r0
     2a4:	00001000 	andeq	r1, r0, r0
     2a8:	00002300 	andeq	r2, r0, r0, lsl #6
     2ac:	53000100 	movwpl	r0, #256	; 0x100
     2b0:	00000044 	andeq	r0, r0, r4, asr #32
     2b4:	0000004c 	andeq	r0, r0, ip, asr #32
     2b8:	00530001 	subseq	r0, r3, r1
     2bc:	00000000 	andeq	r0, r0, r0
     2c0:	18000000 	stmdane	r0, {}	; <UNPREDICTABLE>
     2c4:	23000000 	movwcs	r0, #0
     2c8:	01000000 	mrseq	r0, (UNDEF: 0)
     2cc:	00445200 	subeq	r5, r4, r0, lsl #4
     2d0:	00540000 	subseq	r0, r4, r0
     2d4:	00010000 	andeq	r0, r1, r0
     2d8:	00000052 	andeq	r0, r0, r2, asr r0
     2dc:	00000000 	andeq	r0, r0, r0
     2e0:	00005400 	andeq	r5, r0, r0, lsl #8
     2e4:	00005f00 	andeq	r5, r0, r0, lsl #30
     2e8:	52000100 	andpl	r0, r0, #0, 2
     2ec:	00000080 	andeq	r0, r0, r0, lsl #1
     2f0:	000000b0 	strheq	r0, [r0], -r0	; <UNPREDICTABLE>
     2f4:	00520001 	subseq	r0, r2, r1
     2f8:	00000000 	andeq	r0, r0, r0
     2fc:	b0000000 	andlt	r0, r0, r0
     300:	d3000000 	movwle	r0, #0
     304:	01000000 	mrseq	r0, (UNDEF: 0)
     308:	00d35000 	sbcseq	r5, r3, r0
     30c:	00ec0000 	rsceq	r0, ip, r0
     310:	00040000 	andeq	r0, r4, r0
     314:	9f5001f3 	svcls	0x005001f3
     318:	000000ec 	andeq	r0, r0, ip, ror #1
     31c:	000000ff 	strdeq	r0, [r0], -pc	; <UNPREDICTABLE>
     320:	ff500001 			; <UNDEFINED> instruction: 0xff500001
     324:	20000000 	andcs	r0, r0, r0
     328:	04000001 	streq	r0, [r0], #-1
     32c:	5001f300 	andpl	pc, r1, r0, lsl #6
     330:	0001209f 	muleq	r1, pc, r0	; <UNPREDICTABLE>
     334:	00013300 	andeq	r3, r1, r0, lsl #6
     338:	50000100 	andpl	r0, r0, r0, lsl #2
     33c:	00000133 	andeq	r0, r0, r3, lsr r1
     340:	00000154 	andeq	r0, r0, r4, asr r1
     344:	01f30004 	mvnseq	r0, r4
     348:	01549f50 	cmpeq	r4, r0, asr pc
     34c:	015c0000 	cmpeq	ip, r0
     350:	00010000 	andeq	r0, r1, r0
     354:	00015c50 	andeq	r5, r1, r0, asr ip
     358:	00015f00 	andeq	r5, r1, r0, lsl #30
     35c:	51000100 	mrspl	r0, (UNDEF: 16)
     360:	0000015f 	andeq	r0, r0, pc, asr r1
     364:	0000018c 	andeq	r0, r0, ip, lsl #3
     368:	01f30004 	mvnseq	r0, r4
     36c:	00009f50 	andeq	r9, r0, r0, asr pc
     370:	00000000 	andeq	r0, r0, r0
     374:	00c40000 	sbceq	r0, r4, r0
     378:	00c80000 	sbceq	r0, r8, r0
     37c:	00010000 	andeq	r0, r1, r0
     380:	00000053 	andeq	r0, r0, r3, asr r0
     384:	00000000 	andeq	r0, r0, r0
     388:	0000f000 	andeq	pc, r0, r0
     38c:	0000f400 	andeq	pc, r0, r0, lsl #8
     390:	53000100 	movwpl	r0, #256	; 0x100
     394:	000000f4 	strdeq	r0, [r0], -r4
     398:	000000ff 	strdeq	r0, [r0], -pc	; <UNPREDICTABLE>
     39c:	04730003 	ldrbteq	r0, [r3], #-3
     3a0:	0001209f 	muleq	r1, pc, r0	; <UNPREDICTABLE>
     3a4:	00012400 	andeq	r2, r1, r0, lsl #8
     3a8:	73000300 	movwvc	r0, #768	; 0x300
     3ac:	00009f04 	andeq	r9, r0, r4, lsl #30
     3b0:	00000000 	andeq	r0, r0, r0
     3b4:	01d00000 	bicseq	r0, r0, r0
     3b8:	01d80000 	bicseq	r0, r8, r0
     3bc:	00010000 	andeq	r0, r1, r0
     3c0:	0001d853 	andeq	sp, r1, r3, asr r8
     3c4:	0001fc00 	andeq	pc, r1, r0, lsl #24
     3c8:	0a000400 	beq	13d0 <__code_start__-0x6c30>
     3cc:	009f01e7 	addseq	r0, pc, r7, ror #3
     3d0:	00000000 	andeq	r0, r0, r0
     3d4:	cc000000 	stcgt	0, cr0, [r0], {-0}
     3d8:	d0000001 	andle	r0, r0, r1
     3dc:	01000001 	tsteq	r0, r1
     3e0:	00005300 	andeq	r5, r0, r0, lsl #6
     3e4:	00000000 	andeq	r0, r0, r0
     3e8:	01d00000 	bicseq	r0, r0, r0
     3ec:	01dc0000 	bicseq	r0, ip, r0
     3f0:	00010000 	andeq	r0, r1, r0
     3f4:	00000053 	andeq	r0, r0, r3, asr r0
     3f8:	00000000 	andeq	r0, r0, r0
     3fc:	0001fc00 	andeq	pc, r1, r0, lsl #24
     400:	00021b00 	andeq	r1, r2, r0, lsl #22
     404:	50000100 	andpl	r0, r0, r0, lsl #2
     408:	0000021b 	andeq	r0, r0, fp, lsl r2
     40c:	00000234 	andeq	r0, r0, r4, lsr r2
     410:	01f30004 	mvnseq	r0, r4
     414:	02349f50 	eorseq	r9, r4, #80, 30	; 0x140
     418:	02470000 	subeq	r0, r7, #0
     41c:	00010000 	andeq	r0, r1, r0
     420:	00024750 	andeq	r4, r2, r0, asr r7
     424:	00026800 	andeq	r6, r2, r0, lsl #16
     428:	f3000400 	vshl.u8	d0, d0, d0
     42c:	689f5001 	ldmvs	pc, {r0, ip, lr}	; <UNPREDICTABLE>
     430:	70000002 	andvc	r0, r0, r2
     434:	01000002 	tsteq	r0, r2
     438:	02705000 	rsbseq	r5, r0, #0
     43c:	02730000 	rsbseq	r0, r3, #0
     440:	00010000 	andeq	r0, r1, r0
     444:	00027351 	andeq	r7, r2, r1, asr r3
     448:	00029400 	andeq	r9, r2, r0, lsl #8
     44c:	f3000400 	vshl.u8	d0, d0, d0
     450:	009f5001 	addseq	r5, pc, r1
     454:	00000000 	andeq	r0, r0, r0
     458:	0c000000 	stceq	0, cr0, [r0], {-0}
     45c:	10000002 	andne	r0, r0, r2
     460:	01000002 	tsteq	r0, r2
     464:	00005300 	andeq	r5, r0, r0, lsl #6
     468:	00000000 	andeq	r0, r0, r0
     46c:	02cc0000 	sbceq	r0, ip, #0
     470:	02d40000 	sbcseq	r0, r4, #0
     474:	00010000 	andeq	r0, r1, r0
     478:	0002d453 	andeq	sp, r2, r3, asr r4
     47c:	0002f800 	andeq	pc, r2, r0, lsl #16
     480:	0c000600 	stceq	6, cr0, [r0], {-0}
     484:	004001e7 	subeq	r0, r0, r7, ror #3
     488:	0000009f 	muleq	r0, pc, r0	; <UNPREDICTABLE>
     48c:	00000000 	andeq	r0, r0, r0
     490:	0002c800 	andeq	ip, r2, r0, lsl #16
     494:	0002cc00 	andeq	ip, r2, r0, lsl #24
     498:	53000100 	movwpl	r0, #256	; 0x100
	...
     4a4:	000002cc 	andeq	r0, r0, ip, asr #5
     4a8:	000002d8 	ldrdeq	r0, [r0], -r8
     4ac:	00530001 	subseq	r0, r3, r1
     4b0:	00000000 	andeq	r0, r0, r0
     4b4:	08000000 	stmdaeq	r0, {}	; <UNPREDICTABLE>
     4b8:	24000003 	strcs	r0, [r0], #-3
     4bc:	01000003 	tsteq	r0, r3
     4c0:	03245000 	teqeq	r4, #0
     4c4:	03280000 	teqeq	r8, #0
     4c8:	00040000 	andeq	r0, r4, r0
     4cc:	9f5001f3 	svcls	0x005001f3
     4d0:	00000328 	andeq	r0, r0, r8, lsr #6
     4d4:	00000340 	andeq	r0, r0, r0, asr #6
     4d8:	40500001 	subsmi	r0, r0, r1
     4dc:	48000003 	stmdami	r0, {r0, r1}
     4e0:	04000003 	streq	r0, [r0], #-3
     4e4:	5001f300 	andpl	pc, r1, r0, lsl #6
     4e8:	0003489f 	muleq	r3, pc, r8	; <UNPREDICTABLE>
     4ec:	00035400 	andeq	r5, r3, r0, lsl #8
     4f0:	50000100 	andpl	r0, r0, r0, lsl #2
     4f4:	00000354 	andeq	r0, r0, r4, asr r3
     4f8:	00000364 	andeq	r0, r0, r4, ror #6
     4fc:	01f30004 	mvnseq	r0, r4
     500:	03649f50 	cmneq	r4, #80, 30	; 0x140
     504:	03680000 	cmneq	r8, #0
     508:	00010000 	andeq	r0, r1, r0
     50c:	00036850 	andeq	r6, r3, r0, asr r8
     510:	00036c00 	andeq	r6, r3, r0, lsl #24
     514:	f3000400 	vshl.u8	d0, d0, d0
     518:	6c9f5001 	ldcvs	0, cr5, [pc], {1}
     51c:	70000003 	andvc	r0, r0, r3
     520:	01000003 	tsteq	r0, r3
     524:	03705000 	cmneq	r0, #0
     528:	03780000 	cmneq	r8, #0
     52c:	00040000 	andeq	r0, r4, r0
     530:	9f5001f3 	svcls	0x005001f3
	...
     53c:	00000308 	andeq	r0, r0, r8, lsl #6
     540:	00000358 	andeq	r0, r0, r8, asr r3
     544:	58510001 	ldmdapl	r1, {r0}^
     548:	64000003 	strvs	r0, [r0], #-3
     54c:	04000003 	streq	r0, [r0], #-3
     550:	5101f300 	mrspl	pc, SP_irq	; <UNPREDICTABLE>
     554:	0003649f 	muleq	r3, pc, r4	; <UNPREDICTABLE>
     558:	00037800 	andeq	r7, r3, r0, lsl #16
     55c:	51000100 	mrspl	r0, (UNDEF: 16)
	...
     568:	00000314 	andeq	r0, r0, r4, lsl r3
     56c:	00000334 	andeq	r0, r0, r4, lsr r3
     570:	34530001 	ldrbcc	r0, [r3], #-1
     574:	40000003 	andmi	r0, r0, r3
     578:	0a000003 	beq	58c <__code_start__-0x7a74>
     57c:	06007000 	streq	r7, [r0], -r0
     580:	ffffff0c 			; <UNDEFINED> instruction: 0xffffff0c
     584:	409f1a00 	addsmi	r1, pc, r0, lsl #20
     588:	44000003 	strmi	r0, [r0], #-3
     58c:	0b000003 	bleq	5a0 <__code_start__-0x7a60>
     590:	5001f300 	andpl	pc, r1, r0, lsl #6
     594:	ffff0c06 			; <UNDEFINED> instruction: 0xffff0c06
     598:	9f1a00ff 	svcls	0x001a00ff
     59c:	00000348 	andeq	r0, r0, r8, asr #6
     5a0:	0000035b 	andeq	r0, r0, fp, asr r3
     5a4:	64530001 	ldrbvs	r0, [r3], #-1
     5a8:	68000003 	stmdavs	r0, {r0, r1}
     5ac:	0a000003 	beq	5c0 <__code_start__-0x7a40>
     5b0:	06007000 	streq	r7, [r0], -r0
     5b4:	ffffff0c 			; <UNDEFINED> instruction: 0xffffff0c
     5b8:	689f1a00 	ldmvs	pc, {r9, fp, ip}	; <UNPREDICTABLE>
     5bc:	6c000003 	stcvs	0, cr0, [r0], {3}
     5c0:	0b000003 	bleq	5d4 <__code_start__-0x7a2c>
     5c4:	5001f300 	andpl	pc, r1, r0, lsl #6
     5c8:	ffff0c06 			; <UNDEFINED> instruction: 0xffff0c06
     5cc:	9f1a00ff 	svcls	0x001a00ff
     5d0:	0000036c 	andeq	r0, r0, ip, ror #6
     5d4:	00000378 	andeq	r0, r0, r8, ror r3
     5d8:	00530001 	subseq	r0, r3, r1
	...
     5e4:	24000000 	strcs	r0, [r0], #-0
     5e8:	01000000 	mrseq	r0, (UNDEF: 0)
     5ec:	00245000 	eoreq	r5, r4, r0
     5f0:	01ac0000 			; <UNDEFINED> instruction: 0x01ac0000
     5f4:	00040000 	andeq	r0, r4, r0
     5f8:	9f5001f3 	svcls	0x005001f3
	...
     608:	00000028 	andeq	r0, r0, r8, lsr #32
     60c:	28510001 	ldmdacs	r1, {r0}^
     610:	78000000 	stmdavc	r0, {}	; <UNPREDICTABLE>
     614:	01000001 	tsteq	r0, r1
     618:	01785500 	cmneq	r8, r0, lsl #10
     61c:	01ac0000 			; <UNDEFINED> instruction: 0x01ac0000
     620:	00040000 	andeq	r0, r4, r0
     624:	9f5101f3 	svcls	0x005101f3
	...
     634:	0000002c 	andeq	r0, r0, ip, lsr #32
     638:	2c520001 	mrrccs	0, 0, r0, r2, cr1
     63c:	ac000000 	stcge	0, cr0, [r0], {-0}
     640:	04000001 	streq	r0, [r0], #-1
     644:	5201f300 	andpl	pc, r1, #0, 6
     648:	0000009f 	muleq	r0, pc, r0	; <UNPREDICTABLE>
     64c:	00000000 	andeq	r0, r0, r0
     650:	00006800 	andeq	r6, r0, r0, lsl #16
     654:	00017800 	andeq	r7, r1, r0, lsl #16
     658:	54000100 	strpl	r0, [r0], #-256	; 0x100
	...
     664:	00000038 	andeq	r0, r0, r8, lsr r0
     668:	0000003c 	andeq	r0, r0, ip, lsr r0
     66c:	00530001 	subseq	r0, r3, r1
     670:	00000000 	andeq	r0, r0, r0
     674:	ac000000 	stcge	0, cr0, [r0], {-0}
     678:	e8000001 	stmda	r0, {r0}
     67c:	01000001 	tsteq	r0, r1
     680:	01e85000 	mvneq	r5, r0
     684:	062c0000 	strteq	r0, [ip], -r0
     688:	00010000 	andeq	r0, r1, r0
     68c:	00062c54 	andeq	r2, r6, r4, asr ip
     690:	00068c00 	andeq	r8, r6, r0, lsl #24
     694:	f3000400 	vshl.u8	d0, d0, d0
     698:	009f5001 	addseq	r5, pc, r1
     69c:	00000000 	andeq	r0, r0, r0
     6a0:	bc000000 	stclt	0, cr0, [r0], {-0}
     6a4:	08000001 	stmdaeq	r0, {r0}
     6a8:	01000005 	tsteq	r0, r5
     6ac:	00005800 	andeq	r5, r0, r0, lsl #16
     6b0:	00000000 	andeq	r0, r0, r0
     6b4:	02c00000 	sbceq	r0, r0, #0
     6b8:	05080000 	streq	r0, [r8, #-0]
     6bc:	00010000 	andeq	r0, r1, r0
     6c0:	00000058 	andeq	r0, r0, r8, asr r0
     6c4:	00000000 	andeq	r0, r0, r0
     6c8:	0003e000 	andeq	lr, r3, r0
     6cc:	00062c00 	andeq	r2, r6, r0, lsl #24
     6d0:	55000100 	strpl	r0, [r0, #-256]	; 0x100
	...
     6dc:	00000504 	andeq	r0, r0, r4, lsl #10
     6e0:	00000508 	andeq	r0, r0, r8, lsl #10
     6e4:	00580001 	subseq	r0, r8, r1
     6e8:	00000000 	andeq	r0, r0, r0
     6ec:	74000000 	strvc	r0, [r0], #-0
     6f0:	78000005 	stmdavc	r0, {r0, r2}
     6f4:	01000005 	tsteq	r0, r5
     6f8:	00005300 	andeq	r5, r0, r0, lsl #6
     6fc:	00000000 	andeq	r0, r0, r0
     700:	068c0000 	streq	r0, [ip], r0
     704:	06900000 	ldreq	r0, [r0], r0
     708:	00010000 	andeq	r0, r1, r0
     70c:	00069050 	andeq	r9, r6, r0, asr r0
     710:	00069400 	andeq	r9, r6, r0, lsl #8
     714:	f3000400 	vshl.u8	d0, d0, d0
     718:	009f5001 	addseq	r5, pc, r1
     71c:	00000000 	andeq	r0, r0, r0
     720:	bc000000 	stclt	0, cr0, [r0], {-0}
     724:	c7000006 	strgt	r0, [r0, -r6]
     728:	01000006 	tsteq	r0, r6
     72c:	06c75000 	strbeq	r5, [r7], r0
     730:	07080000 	streq	r0, [r8, -r0]
     734:	00010000 	andeq	r0, r1, r0
     738:	00000054 	andeq	r0, r0, r4, asr r0
     73c:	00000000 	andeq	r0, r0, r0
     740:	00002c00 	andeq	r2, r0, r0, lsl #24
     744:	00003800 	andeq	r3, r0, r0, lsl #16
     748:	50000100 	andpl	r0, r0, r0, lsl #2
     74c:	00000038 	andeq	r0, r0, r8, lsr r0
     750:	00000048 	andeq	r0, r0, r8, asr #32
     754:	48550001 	ldmdami	r5, {r0}^
     758:	58000000 	stmdapl	r0, {}	; <UNPREDICTABLE>
     75c:	01000000 	mrseq	r0, (UNDEF: 0)
     760:	00005000 	andeq	r5, r0, r0
	...
     76c:	000b0000 	andeq	r0, fp, r0
     770:	00010000 	andeq	r0, r1, r0
     774:	00000b50 	andeq	r0, r0, r0, asr fp
     778:	00001400 	andeq	r1, r0, r0, lsl #8
     77c:	54000100 	strpl	r0, [r0], #-256	; 0x100
	...
     78c:	00000010 	andeq	r0, r0, r0, lsl r0
     790:	10500001 	subsne	r0, r0, r1
     794:	34000000 	strcc	r0, [r0], #-0
     798:	01000000 	mrseq	r0, (UNDEF: 0)
     79c:	00005400 	andeq	r5, r0, r0, lsl #8
	...
     7a8:	00040000 	andeq	r0, r4, r0
     7ac:	00010000 	andeq	r0, r1, r0
     7b0:	00000450 	andeq	r0, r0, r0, asr r4
     7b4:	00000c00 	andeq	r0, r0, r0, lsl #24
     7b8:	70000300 	andvc	r0, r0, r0, lsl #6
     7bc:	000c9f30 	andeq	r9, ip, r0, lsr pc
     7c0:	00140000 	andseq	r0, r4, r0
     7c4:	00040000 	andeq	r0, r4, r0
     7c8:	9f5001f3 	svcls	0x005001f3
	...
     7d4:	00000014 	andeq	r0, r0, r4, lsl r0
     7d8:	00000020 	andeq	r0, r0, r0, lsr #32
     7dc:	20500001 	subscs	r0, r0, r1
     7e0:	2c000000 	stccs	0, cr0, [r0], {-0}
     7e4:	03000000 	movweq	r0, #0
     7e8:	9f017000 	svcls	0x00017000
     7ec:	0000002c 	andeq	r0, r0, ip, lsr #32
     7f0:	00000040 	andeq	r0, r0, r0, asr #32
     7f4:	00500001 	subseq	r0, r0, r1
     7f8:	00000000 	andeq	r0, r0, r0
     7fc:	14000000 	strne	r0, [r0], #-0
     800:	18000000 	stmdane	r0, {}	; <UNPREDICTABLE>
     804:	01000000 	mrseq	r0, (UNDEF: 0)
     808:	00185100 	andseq	r5, r8, r0, lsl #2
     80c:	00400000 	subeq	r0, r0, r0
     810:	00040000 	andeq	r0, r4, r0
     814:	9f5101f3 	svcls	0x005101f3
	...
     820:	00000040 	andeq	r0, r0, r0, asr #32
     824:	00000060 	andeq	r0, r0, r0, rrx
     828:	60500001 	subsvs	r0, r0, r1
     82c:	6c000000 	stcvs	0, cr0, [r0], {-0}
     830:	03000000 	movweq	r0, #0
     834:	9f017100 	svcls	0x00017100
     838:	0000006c 	andeq	r0, r0, ip, rrx
     83c:	00000074 	andeq	r0, r0, r4, ror r0
     840:	74510001 	ldrbvc	r0, [r1], #-1
     844:	80000000 	andhi	r0, r0, r0
     848:	03000000 	movweq	r0, #0
     84c:	9f017100 	svcls	0x00017100
	...
     858:	00000040 	andeq	r0, r0, r0, asr #32
     85c:	00000050 	andeq	r0, r0, r0, asr r0
     860:	50510001 	subspl	r0, r1, r1
     864:	80000000 	andhi	r0, r0, r0
     868:	04000000 	streq	r0, [r0], #-0
     86c:	5101f300 	mrspl	pc, SP_irq	; <UNPREDICTABLE>
     870:	0000009f 	muleq	r0, pc, r0	; <UNPREDICTABLE>
     874:	00000000 	andeq	r0, r0, r0
     878:	00004000 	andeq	r4, r0, r0
     87c:	00005800 	andeq	r5, r0, r0, lsl #16
     880:	52000100 	andpl	r0, r0, #0, 2
     884:	00000058 	andeq	r0, r0, r8, asr r0
     888:	00000064 	andeq	r0, r0, r4, rrx
     88c:	64520001 	ldrbvs	r0, [r2], #-1
     890:	68000000 	stmdavs	r0, {}	; <UNPREDICTABLE>
     894:	03000000 	movweq	r0, #0
     898:	9f017200 	svcls	0x00017200
     89c:	00000068 	andeq	r0, r0, r8, rrx
     8a0:	00000080 	andeq	r0, r0, r0, lsl #1
     8a4:	00520001 	subseq	r0, r2, r1
     8a8:	00000000 	andeq	r0, r0, r0
     8ac:	40000000 	andmi	r0, r0, r0
     8b0:	54000000 	strpl	r0, [r0], #-0
     8b4:	01000000 	mrseq	r0, (UNDEF: 0)
     8b8:	00545300 	subseq	r5, r4, r0, lsl #6
     8bc:	00780000 	rsbseq	r0, r8, r0
     8c0:	00010000 	andeq	r0, r1, r0
     8c4:	00000053 	andeq	r0, r0, r3, asr r0
     8c8:	00000000 	andeq	r0, r0, r0
     8cc:	00004800 	andeq	r4, r0, r0, lsl #16
     8d0:	00006000 	andeq	r6, r0, r0
     8d4:	5c000100 	stfpls	f0, [r0], {-0}
     8d8:	00000060 	andeq	r0, r0, r0, rrx
     8dc:	00000080 	andeq	r0, r0, r0, lsl #1
     8e0:	01f3000a 	mvnseq	r0, sl
     8e4:	5301f352 	movwpl	pc, #4946	; 0x1352	; <UNPREDICTABLE>
     8e8:	9f01231c 	svcls	0x0001231c
	...
     8f4:	00000080 	andeq	r0, r0, r0, lsl #1
     8f8:	000000a4 	andeq	r0, r0, r4, lsr #1
     8fc:	a4500001 	ldrbge	r0, [r0], #-1
     900:	18000000 	stmdane	r0, {}	; <UNPREDICTABLE>
     904:	03000001 	movweq	r0, #1
     908:	9f027000 	svcls	0x00027000
     90c:	00000118 	andeq	r0, r0, r8, lsl r1
     910:	0000023c 	andeq	r0, r0, ip, lsr r2
     914:	01f30004 	mvnseq	r0, r4
     918:	00009f50 	andeq	r9, r0, r0, asr pc
     91c:	00000000 	andeq	r0, r0, r0
     920:	00800000 	addeq	r0, r0, r0
     924:	00f00000 	rscseq	r0, r0, r0
     928:	00010000 	andeq	r0, r1, r0
     92c:	0000f051 	andeq	pc, r0, r1, asr r0	; <UNPREDICTABLE>
     930:	00016000 	andeq	r6, r1, r0
     934:	55000100 	strpl	r0, [r0, #-256]	; 0x100
     938:	00000160 	andeq	r0, r0, r0, ror #2
     93c:	0000016c 	andeq	r0, r0, ip, ror #2
     940:	6c510001 	mrrcvs	0, 0, r0, r1, cr1
     944:	a0000001 	andge	r0, r0, r1
     948:	01000001 	tsteq	r0, r1
     94c:	01a05500 	lsleq	r5, r0, #10
     950:	01b40000 			; <UNDEFINED> instruction: 0x01b40000
     954:	00010000 	andeq	r0, r1, r0
     958:	0001b451 	andeq	fp, r1, r1, asr r4
     95c:	0001d400 	andeq	sp, r1, r0, lsl #8
     960:	55000100 	strpl	r0, [r0, #-256]	; 0x100
     964:	000001d4 	ldrdeq	r0, [r0], -r4
     968:	000001d7 	ldrdeq	r0, [r0], -r7
     96c:	d7510001 	ldrble	r0, [r1, -r1]
     970:	1c000001 	stcne	0, cr0, [r0], {1}
     974:	01000002 	tsteq	r0, r2
     978:	021c5500 	andseq	r5, ip, #0, 10
     97c:	023c0000 	eorseq	r0, ip, #0
     980:	00040000 	andeq	r0, r4, r0
     984:	9f5101f3 	svcls	0x005101f3
	...
     990:	00000080 	andeq	r0, r0, r0, lsl #1
     994:	00000094 	muleq	r0, r4, r0
     998:	94520001 	ldrbls	r0, [r2], #-1
     99c:	1c000000 	stcne	0, cr0, [r0], {-0}
     9a0:	01000002 	tsteq	r0, r2
     9a4:	021c5400 	andseq	r5, ip, #0, 8
     9a8:	023c0000 	eorseq	r0, ip, #0
     9ac:	00040000 	andeq	r0, r4, r0
     9b0:	9f5201f3 	svcls	0x005201f3
	...
     9bc:	00000080 	andeq	r0, r0, r0, lsl #1
     9c0:	00000100 	andeq	r0, r0, r0, lsl #2
     9c4:	04530001 	ldrbeq	r0, [r3], #-1
     9c8:	08000001 	stmdaeq	r0, {r0}
     9cc:	01000001 	tsteq	r0, r1
     9d0:	01605300 	cmneq	r0, r0, lsl #6
     9d4:	01640000 	cmneq	r4, r0
     9d8:	00010000 	andeq	r0, r1, r0
     9dc:	00016453 	andeq	r6, r1, r3, asr r4
     9e0:	00016c00 	andeq	r6, r1, r0, lsl #24
     9e4:	5c000100 	stfpls	f0, [r0], {-0}
     9e8:	0000016c 	andeq	r0, r0, ip, ror #2
     9ec:	000001a0 	andeq	r0, r0, r0, lsr #3
     9f0:	01f30004 	mvnseq	r0, r4
     9f4:	01a09f53 	asreq	r9, r3, pc
     9f8:	01b00000 	movseq	r0, r0
     9fc:	00010000 	andeq	r0, r1, r0
     a00:	0001b053 	andeq	fp, r1, r3, asr r0
     a04:	0001b400 	andeq	fp, r1, r0, lsl #8
     a08:	5c000100 	stfpls	f0, [r0], {-0}
     a0c:	000001b4 			; <UNDEFINED> instruction: 0x000001b4
     a10:	000001d4 	ldrdeq	r0, [r0], -r4
     a14:	01f30004 	mvnseq	r0, r4
     a18:	01d49f53 	bicseq	r9, r4, r3, asr pc
     a1c:	01d70000 	bicseq	r0, r7, r0
     a20:	00010000 	andeq	r0, r1, r0
     a24:	0001d753 	andeq	sp, r1, r3, asr r7
     a28:	0001f800 	andeq	pc, r1, r0, lsl #16
     a2c:	f3000400 	vshl.u8	d0, d0, d0
     a30:	009f5301 	addseq	r5, pc, r1, lsl #6
     a34:	00000000 	andeq	r0, r0, r0
     a38:	80000000 	andhi	r0, r0, r0
     a3c:	9c000000 	stcls	0, cr0, [r0], {-0}
     a40:	02000000 	andeq	r0, r0, #0
     a44:	9c009100 	stflsd	f1, [r0], {-0}
     a48:	d7000000 	strle	r0, [r0, -r0]
     a4c:	01000001 	tsteq	r0, r1
     a50:	01f85200 	mvnseq	r5, r0, lsl #4
     a54:	01ff0000 	mvnseq	r0, r0
     a58:	00010000 	andeq	r0, r1, r0
     a5c:	00000052 	andeq	r0, r0, r2, asr r0
     a60:	00000000 	andeq	r0, r0, r0
     a64:	00009c00 	andeq	r9, r0, r0, lsl #24
     a68:	00010c00 	andeq	r0, r1, r0, lsl #24
     a6c:	91000400 	tstls	r0, r0, lsl #8
     a70:	0c9f7fa0 	ldceq	15, cr7, [pc], {160}	; 0xa0
     a74:	18000001 	stmdane	r0, {r0}
     a78:	01000001 	tsteq	r0, r1
     a7c:	01185100 	tsteq	r8, r0, lsl #2
     a80:	011c0000 	tsteq	ip, r0
     a84:	00010000 	andeq	r0, r1, r0
     a88:	00011c50 	andeq	r1, r1, r0, asr ip
     a8c:	00012000 	andeq	r2, r1, r0
     a90:	51000100 	mrspl	r0, (UNDEF: 16)
     a94:	00000120 	andeq	r0, r0, r0, lsr #2
     a98:	00000160 	andeq	r0, r0, r0, ror #2
     a9c:	60500001 	subsvs	r0, r0, r1
     aa0:	64000001 	strvs	r0, [r0], #-1
     aa4:	04000001 	streq	r0, [r0], #-1
     aa8:	7fa09100 	svcvc	0x00a09100
     aac:	0001649f 	muleq	r1, pc, r4	; <UNPREDICTABLE>
     ab0:	00016c00 	andeq	r6, r1, r0, lsl #24
     ab4:	53000100 	movwpl	r0, #256	; 0x100
     ab8:	0000016c 	andeq	r0, r0, ip, ror #2
     abc:	00000170 	andeq	r0, r0, r0, ror r1
     ac0:	70500001 	subsvc	r0, r0, r1
     ac4:	74000001 	strvc	r0, [r0], #-1
     ac8:	01000001 	tsteq	r0, r1
     acc:	01745300 	cmneq	r4, r0, lsl #6
     ad0:	01880000 	orreq	r0, r8, r0
     ad4:	00010000 	andeq	r0, r1, r0
     ad8:	00018850 	andeq	r8, r1, r0, asr r8
     adc:	00019400 	andeq	r9, r1, r0, lsl #8
     ae0:	70000300 	andvc	r0, r0, r0, lsl #6
     ae4:	01949f01 	orrseq	r9, r4, r1, lsl #30
     ae8:	01a00000 	moveq	r0, r0
     aec:	00010000 	andeq	r0, r1, r0
     af0:	0001a050 	andeq	sl, r1, r0, asr r0
     af4:	0001a800 	andeq	sl, r1, r0, lsl #16
     af8:	91000400 	tstls	r0, r0, lsl #8
     afc:	a89f7fa1 	ldmge	pc, {r0, r5, r7, r8, r9, sl, fp, ip, sp, lr}	; <UNPREDICTABLE>
     b00:	ac000001 	stcge	0, cr0, [r0], {1}
     b04:	01000001 	tsteq	r0, r1
     b08:	01ac5000 			; <UNDEFINED> instruction: 0x01ac5000
     b0c:	01b00000 	movseq	r0, r0
     b10:	00040000 	andeq	r0, r4, r0
     b14:	9f7fa091 	svcls	0x007fa091
     b18:	000001b0 			; <UNDEFINED> instruction: 0x000001b0
     b1c:	000001b8 			; <UNDEFINED> instruction: 0x000001b8
     b20:	b8530001 	ldmdalt	r3, {r0}^
     b24:	d4000001 	strle	r0, [r0], #-1
     b28:	01000001 	tsteq	r0, r1
     b2c:	01d45000 	bicseq	r5, r4, r0
     b30:	01f80000 	mvnseq	r0, r0
     b34:	00040000 	andeq	r0, r4, r0
     b38:	9f7fa091 	svcls	0x007fa091
     b3c:	000001f8 	strdeq	r0, [r0], -r8
     b40:	000001ff 	strdeq	r0, [r0], -pc	; <UNPREDICTABLE>
     b44:	00500001 	subseq	r0, r0, r1
     b48:	00000000 	andeq	r0, r0, r0
     b4c:	a0000000 	andge	r0, r0, r0
     b50:	ec000000 	stc	0, cr0, [r0], {-0}
     b54:	01000000 	mrseq	r0, (UNDEF: 0)
     b58:	00ec5c00 	rsceq	r5, ip, r0, lsl #24
     b5c:	01000000 	mrseq	r0, (UNDEF: 0)
     b60:	00010000 	andeq	r0, r1, r0
     b64:	00010053 	andeq	r0, r1, r3, asr r0
     b68:	00010400 	andeq	r0, r1, r0, lsl #8
     b6c:	5c000100 	stfpls	f0, [r0], {-0}
     b70:	00000104 	andeq	r0, r0, r4, lsl #2
     b74:	00000108 	andeq	r0, r0, r8, lsl #2
     b78:	08530001 	ldmdaeq	r3, {r0}^
     b7c:	60000001 	andvs	r0, r0, r1
     b80:	01000001 	tsteq	r0, r1
     b84:	01605c00 	cmneq	r0, r0, lsl #24
     b88:	01640000 	cmneq	r4, r0
     b8c:	00010000 	andeq	r0, r1, r0
     b90:	00016453 	andeq	r6, r1, r3, asr r4
     b94:	00018000 	andeq	r8, r1, r0
     b98:	5c000100 	stfpls	f0, [r0], {-0}
     b9c:	00000180 	andeq	r0, r0, r0, lsl #3
     ba0:	00000184 	andeq	r0, r0, r4, lsl #3
     ba4:	007c0005 	rsbseq	r0, ip, r5
     ba8:	849f2534 	ldrhi	r2, [pc], #1332	; bb0 <__code_start__-0x7450>
     bac:	a0000001 	andge	r0, r0, r1
     bb0:	01000001 	tsteq	r0, r1
     bb4:	01a05c00 	lsleq	r5, r0, #24
     bb8:	01b00000 	movseq	r0, r0
     bbc:	00010000 	andeq	r0, r1, r0
     bc0:	0001b053 	andeq	fp, r1, r3, asr r0
     bc4:	0001c400 	andeq	ip, r1, r0, lsl #8
     bc8:	5c000100 	stfpls	f0, [r0], {-0}
     bcc:	000001c4 	andeq	r0, r0, r4, asr #3
     bd0:	000001cc 	andeq	r0, r0, ip, asr #3
     bd4:	007c0005 	rsbseq	r0, ip, r5
     bd8:	cc9f2531 	cfldr32gt	mvfx2, [pc], {49}	; 0x31
     bdc:	d4000001 	strle	r0, [r0], #-1
     be0:	01000001 	tsteq	r0, r1
     be4:	01d45c00 	bicseq	r5, r4, r0, lsl #24
     be8:	01d70000 	bicseq	r0, r7, r0
     bec:	00010000 	andeq	r0, r1, r0
     bf0:	0001d753 	andeq	sp, r1, r3, asr r7
     bf4:	0001f800 	andeq	pc, r1, r0, lsl #16
     bf8:	f3000400 	vshl.u8	d0, d0, d0
     bfc:	f89f5301 			; <UNDEFINED> instruction: 0xf89f5301
     c00:	ff000001 			; <UNDEFINED> instruction: 0xff000001
     c04:	01000001 	tsteq	r0, r1
     c08:	00005c00 	andeq	r5, r0, r0, lsl #24
     c0c:	00000000 	andeq	r0, r0, r0
     c10:	00ec0000 	rsceq	r0, ip, r0
     c14:	00fc0000 	rscseq	r0, ip, r0
     c18:	00020000 	andeq	r0, r2, r0
     c1c:	00fc9f30 	rscseq	r9, ip, r0, lsr pc
     c20:	01040000 	mrseq	r0, (UNDEF: 4)
     c24:	00020000 	andeq	r0, r2, r0
     c28:	01049f31 	tsteq	r4, r1, lsr pc
     c2c:	01080000 	mrseq	r0, (UNDEF: 8)
     c30:	00020000 	andeq	r0, r2, r0
     c34:	00009f30 	andeq	r9, r0, r0, lsr pc
     c38:	00000000 	andeq	r0, r0, r0
     c3c:	023c0000 	eorseq	r0, ip, #0
     c40:	024f0000 	subeq	r0, pc, #0
     c44:	00010000 	andeq	r0, r1, r0
     c48:	00024f50 	andeq	r4, r2, r0, asr pc
     c4c:	00027000 	andeq	r7, r2, r0
     c50:	f3000400 	vshl.u8	d0, d0, d0
     c54:	709f5001 	addsvc	r5, pc, r1
     c58:	a4000002 	strge	r0, [r0], #-2
     c5c:	01000002 	tsteq	r0, r2
     c60:	00005000 	andeq	r5, r0, r0
     c64:	00000000 	andeq	r0, r0, r0
     c68:	023c0000 	eorseq	r0, ip, #0
     c6c:	024f0000 	subeq	r0, pc, #0
     c70:	00010000 	andeq	r0, r1, r0
     c74:	00024f51 	andeq	r4, r2, r1, asr pc
     c78:	00027000 	andeq	r7, r2, r0
     c7c:	f3000400 	vshl.u8	d0, d0, d0
     c80:	709f5101 	addsvc	r5, pc, r1, lsl #2
     c84:	a4000002 	strge	r0, [r0], #-2
     c88:	01000002 	tsteq	r0, r2
     c8c:	00005100 	andeq	r5, r0, r0, lsl #2
     c90:	00000000 	andeq	r0, r0, r0
     c94:	02a40000 	adceq	r0, r4, #0
     c98:	02d40000 	sbcseq	r0, r4, #0
     c9c:	00010000 	andeq	r0, r1, r0
     ca0:	0002d450 	andeq	sp, r2, r0, asr r4
     ca4:	00055800 	andeq	r5, r5, r0, lsl #16
     ca8:	5b000100 	blpl	10b0 <__code_start__-0x6f50>
     cac:	00000558 	andeq	r0, r0, r8, asr r5
     cb0:	00000578 	andeq	r0, r0, r8, ror r5
     cb4:	01f30004 	mvnseq	r0, r4
     cb8:	00009f50 	andeq	r9, r0, r0, asr pc
     cbc:	00000000 	andeq	r0, r0, r0
     cc0:	02a40000 	adceq	r0, r4, #0
     cc4:	02bc0000 	adcseq	r0, ip, #0
     cc8:	00010000 	andeq	r0, r1, r0
     ccc:	0002bc51 	andeq	fp, r2, r1, asr ip
     cd0:	0002d400 	andeq	sp, r2, r0, lsl #8
     cd4:	71000300 	mrsvc	r0, LR_irq
     cd8:	02d49f01 	sbcseq	r9, r4, #1, 30
     cdc:	05780000 	ldrbeq	r0, [r8, #-0]!
     ce0:	00040000 	andeq	r0, r4, r0
     ce4:	9f5101f3 	svcls	0x005101f3
	...
     cf0:	000002a4 	andeq	r0, r0, r4, lsr #5
     cf4:	000002d4 	ldrdeq	r0, [r0], -r4
     cf8:	d4520001 	ldrble	r0, [r2], #-1
     cfc:	58000002 	stmdapl	r0, {r1}
     d00:	01000005 	tsteq	r0, r5
     d04:	00005600 	andeq	r5, r0, r0, lsl #12
     d08:	00000000 	andeq	r0, r0, r0
     d0c:	02a40000 	adceq	r0, r4, #0
     d10:	02c40000 	sbceq	r0, r4, #0
     d14:	00010000 	andeq	r0, r1, r0
     d18:	00000053 	andeq	r0, r0, r3, asr r0
     d1c:	00000000 	andeq	r0, r0, r0
     d20:	0002b800 	andeq	fp, r2, r0, lsl #16
     d24:	0002d400 	andeq	sp, r2, r0, lsl #8
     d28:	50000100 	andpl	r0, r0, r0, lsl #2
     d2c:	000002d4 	ldrdeq	r0, [r0], -r4
     d30:	000002d8 	ldrdeq	r0, [r0], -r8
     d34:	d8540001 	ldmdale	r4, {r0}^
     d38:	e4000002 	str	r0, [r0], #-2
     d3c:	03000002 	movweq	r0, #2
     d40:	9f017400 	svcls	0x00017400
     d44:	000002e4 	andeq	r0, r0, r4, ror #5
     d48:	000002f0 	strdeq	r0, [r0], -r0	; <UNPREDICTABLE>
     d4c:	f0540001 			; <UNDEFINED> instruction: 0xf0540001
     d50:	fc000002 	stc2	0, cr0, [r0], {2}
     d54:	03000002 	movweq	r0, #2
     d58:	9f017400 	svcls	0x00017400
     d5c:	000002fc 	strdeq	r0, [r0], -ip
     d60:	0000050c 	andeq	r0, r0, ip, lsl #10
     d64:	0c540001 	mrrceq	0, 0, r0, r4, cr1
     d68:	18000005 	stmdane	r0, {r0, r2}
     d6c:	03000005 	movweq	r0, #5
     d70:	9f017400 	svcls	0x00017400
     d74:	00000518 	andeq	r0, r0, r8, lsl r5
     d78:	00000544 	andeq	r0, r0, r4, asr #10
     d7c:	44540001 	ldrbmi	r0, [r4], #-1
     d80:	50000005 	andpl	r0, r0, r5
     d84:	01000005 	tsteq	r0, r5
     d88:	05505000 	ldrbeq	r5, [r0, #-0]
     d8c:	05580000 	ldrbeq	r0, [r8, #-0]
     d90:	00030000 	andeq	r0, r3, r0
     d94:	009f0174 	addseq	r0, pc, r4, ror r1	; <UNPREDICTABLE>
     d98:	00000000 	andeq	r0, r0, r0
     d9c:	c0000000 	andgt	r0, r0, r0
     da0:	58000002 	stmdapl	r0, {r1}
     da4:	01000005 	tsteq	r0, r5
     da8:	05585800 	ldrbeq	r5, [r8, #-2048]	; 0x800
     dac:	05780000 	ldrbeq	r0, [r8, #-0]!
     db0:	000a0000 	andeq	r0, sl, r0
     db4:	f35101f3 	vbsl	q8, <illegal reg q8.5>, <illegal reg q9.5>
     db8:	31225001 	teqcc	r2, r1
     dbc:	00009f1c 	andeq	r9, r0, ip, lsl pc
     dc0:	00000000 	andeq	r0, r0, r0
     dc4:	02c80000 	sbceq	r0, r8, #0
     dc8:	02d40000 	sbcseq	r0, r4, #0
     dcc:	00010000 	andeq	r0, r1, r0
     dd0:	0002d452 	andeq	sp, r2, r2, asr r4
     dd4:	00057800 	andeq	r7, r5, r0, lsl #16
     dd8:	91000300 	mrsls	r0, LR_irq
     ddc:	00007ecc 	andeq	r7, r0, ip, asr #29
     de0:	00000000 	andeq	r0, r0, r0
     de4:	04100000 	ldreq	r0, [r0], #-0
     de8:	04140000 	ldreq	r0, [r4], #-0
     dec:	00010000 	andeq	r0, r1, r0
     df0:	00043850 	andeq	r3, r4, r0, asr r8
     df4:	00043c00 	andeq	r3, r4, r0, lsl #24
     df8:	50000100 	andpl	r0, r0, r0, lsl #2
     dfc:	00000460 	andeq	r0, r0, r0, ror #8
     e00:	00000464 	andeq	r0, r0, r4, ror #8
     e04:	88500001 	ldmdahi	r0, {r0}^
     e08:	8c000004 	stchi	0, cr0, [r0], {4}
     e0c:	01000004 	tsteq	r0, r4
     e10:	04945000 	ldreq	r5, [r4], #0
     e14:	04980000 	ldreq	r0, [r8], #0
     e18:	00010000 	andeq	r0, r1, r0
     e1c:	0004bc50 	andeq	fp, r4, r0, asr ip
     e20:	0004c000 	andeq	ip, r4, r0
     e24:	50000100 	andpl	r0, r0, r0, lsl #2
     e28:	00000504 	andeq	r0, r0, r4, lsl #10
     e2c:	0000052c 	andeq	r0, r0, ip, lsr #10
     e30:	00500001 	subseq	r0, r0, r1
     e34:	00000000 	andeq	r0, r0, r0
     e38:	04000000 	streq	r0, [r0], #-0
     e3c:	0c000003 	stceq	0, cr0, [r0], {3}
     e40:	02000003 	andeq	r0, r0, #3
     e44:	0c9f3000 	ldceq	0, cr3, [pc], {0}
     e48:	10000003 	andne	r0, r0, r3
     e4c:	01000003 	tsteq	r0, r3
     e50:	031c5700 	tsteq	ip, #0, 14
     e54:	052c0000 	streq	r0, [ip, #-0]!
     e58:	00010000 	andeq	r0, r1, r0
     e5c:	00000057 	andeq	r0, r0, r7, asr r0
     e60:	00000000 	andeq	r0, r0, r0
     e64:	00000400 	andeq	r0, r0, r0, lsl #8
     e68:	00000800 	andeq	r0, r0, r0, lsl #16
     e6c:	73000700 	movwvc	r0, #1792	; 0x700
     e70:	10000a00 	andne	r0, r0, r0, lsl #20
     e74:	00089f21 	andeq	r9, r8, r1, lsr #30
     e78:	00100000 	andseq	r0, r0, r0
     e7c:	00010000 	andeq	r0, r1, r0
     e80:	00000053 	andeq	r0, r0, r3, asr r0
     e84:	00000000 	andeq	r0, r0, r0
     e88:	00001400 	andeq	r1, r0, r0, lsl #8
     e8c:	00001800 	andeq	r1, r0, r0, lsl #16
     e90:	73000700 	movwvc	r0, #1792	; 0x700
     e94:	efff0b00 	svc	0x00ff0b00
     e98:	00189f1a 	andseq	r9, r8, sl, lsl pc
     e9c:	00200000 	eoreq	r0, r0, r0
     ea0:	00010000 	andeq	r0, r1, r0
     ea4:	00000053 	andeq	r0, r0, r3, asr r0
     ea8:	00000000 	andeq	r0, r0, r0
     eac:	00001400 	andeq	r1, r0, r0, lsl #8
     eb0:	00001c00 	andeq	r1, r0, r0, lsl #24
     eb4:	73000300 	movwvc	r0, #768	; 0x300
     eb8:	001c9f04 	andseq	r9, ip, r4, lsl #30
     ebc:	00270000 	eoreq	r0, r7, r0
     ec0:	00010000 	andeq	r0, r1, r0
     ec4:	00000053 	andeq	r0, r0, r3, asr r0
	...
     ed0:	00000f00 	andeq	r0, r0, r0, lsl #30
     ed4:	50000100 	andpl	r0, r0, r0, lsl #2
     ed8:	0000000f 	andeq	r0, r0, pc
     edc:	00000044 	andeq	r0, r0, r4, asr #32
     ee0:	00540001 	subseq	r0, r4, r1
	...
     eec:	0f000000 	svceq	0x00000000
     ef0:	01000000 	mrseq	r0, (UNDEF: 0)
     ef4:	000f5000 	andeq	r5, pc, r0
     ef8:	00440000 	subeq	r0, r4, r0
     efc:	00010000 	andeq	r0, r1, r0
     f00:	00000054 	andeq	r0, r0, r4, asr r0
	...
     f0c:	00000f00 	andeq	r0, r0, r0, lsl #30
     f10:	50000100 	andpl	r0, r0, r0, lsl #2
     f14:	0000000f 	andeq	r0, r0, pc
     f18:	00000044 	andeq	r0, r0, r4, asr #32
     f1c:	00540001 	subseq	r0, r4, r1
     f20:	00000000 	andeq	r0, r0, r0
     f24:	34000000 	strcc	r0, [r0], #-0
     f28:	40000000 	andmi	r0, r0, r0
     f2c:	02000000 	andeq	r0, r0, #0
     f30:	409f3000 	addsmi	r3, pc, r0
     f34:	6c000000 	stcvs	0, cr0, [r0], {-0}
     f38:	01000000 	mrseq	r0, (UNDEF: 0)
     f3c:	00005300 	andeq	r5, r0, r0, lsl #6
     f40:	00000000 	andeq	r0, r0, r0
     f44:	9a640000 	bls	1900f4c <__bss_end__+0x18f643c>
     f48:	9a680000 	bls	1a00f50 <__bss_end__+0x19f6440>
     f4c:	00020000 	andeq	r0, r2, r0
     f50:	9a689f30 	bls	1a28c18 <__bss_end__+0x1a1e108>
     f54:	9a6c0000 	bls	1b00f5c <__bss_end__+0x1af644c>
     f58:	00010000 	andeq	r0, r1, r0
     f5c:	00000050 	andeq	r0, r0, r0, asr r0
     f60:	00000000 	andeq	r0, r0, r0
     f64:	009a7c00 	addseq	r7, sl, r0, lsl #24
     f68:	009a8000 	addseq	r8, sl, r0
     f6c:	30000200 	andcc	r0, r0, r0, lsl #4
     f70:	009a809f 	umullseq	r8, sl, pc, r0	; <UNPREDICTABLE>
     f74:	009a8400 	addseq	r8, sl, r0, lsl #8
     f78:	53000100 	movwpl	r0, #256	; 0x100
     f7c:	00009a88 	andeq	r9, r0, r8, lsl #21
     f80:	00009a90 	muleq	r0, r0, sl
     f84:	00530001 	subseq	r0, r3, r1
	...
     f90:	04000000 	streq	r0, [r0], #-0
     f94:	01000000 	mrseq	r0, (UNDEF: 0)
     f98:	00045000 	andeq	r5, r4, r0
     f9c:	000c0000 	andeq	r0, ip, r0
     fa0:	00010000 	andeq	r0, r1, r0
     fa4:	00000c53 	andeq	r0, r0, r3, asr ip
     fa8:	00001000 	andeq	r1, r0, r0
     fac:	50000100 	andpl	r0, r0, r0, lsl #2
     fb0:	00000010 	andeq	r0, r0, r0, lsl r0
     fb4:	0000001c 	andeq	r0, r0, ip, lsl r0
     fb8:	00530001 	subseq	r0, r3, r1
     fbc:	00000000 	andeq	r0, r0, r0
     fc0:	40000000 	andmi	r0, r0, r0
     fc4:	43000000 	movwmi	r0, #0
     fc8:	01000000 	mrseq	r0, (UNDEF: 0)
     fcc:	00435000 	subeq	r5, r3, r0
     fd0:	004c0000 	subeq	r0, ip, r0
     fd4:	00010000 	andeq	r0, r1, r0
     fd8:	00000054 	andeq	r0, r0, r4, asr r0
     fdc:	00000000 	andeq	r0, r0, r0
     fe0:	00004c00 	andeq	r4, r0, r0, lsl #24
     fe4:	00005700 	andeq	r5, r0, r0, lsl #14
     fe8:	50000100 	andpl	r0, r0, r0, lsl #2
     fec:	00000057 	andeq	r0, r0, r7, asr r0
     ff0:	00000070 	andeq	r0, r0, r0, ror r0
     ff4:	00550001 	subseq	r0, r5, r1
     ff8:	00000000 	andeq	r0, r0, r0
     ffc:	60000000 	andvs	r0, r0, r0
    1000:	64000000 	strvs	r0, [r0], #-0
    1004:	01000000 	mrseq	r0, (UNDEF: 0)
    1008:	00005000 	andeq	r5, r0, r0
    100c:	00000000 	andeq	r0, r0, r0
    1010:	00700000 	rsbseq	r0, r0, r0
    1014:	007c0000 	rsbseq	r0, ip, r0
    1018:	00010000 	andeq	r0, r1, r0
    101c:	00007c50 	andeq	r7, r0, r0, asr ip
    1020:	00008400 	andeq	r8, r0, r0, lsl #8
    1024:	f3000400 	vshl.u8	d0, d0, d0
    1028:	009f5001 	addseq	r5, pc, r1
    102c:	00000000 	andeq	r0, r0, r0
    1030:	84000000 	strhi	r0, [r0], #-0
    1034:	90000000 	andls	r0, r0, r0
    1038:	01000000 	mrseq	r0, (UNDEF: 0)
    103c:	00905000 	addseq	r5, r0, r0
    1040:	00980000 	addseq	r0, r8, r0
    1044:	00040000 	andeq	r0, r4, r0
    1048:	9f5001f3 	svcls	0x005001f3
	...
    1054:	00000138 	andeq	r0, r0, r8, lsr r1
    1058:	00000143 	andeq	r0, r0, r3, asr #2
    105c:	43500001 	cmpmi	r0, #1
    1060:	68000001 	stmdavs	r0, {r0}
    1064:	01000001 	tsteq	r0, r1
    1068:	00005400 	andeq	r5, r0, r0, lsl #8
	...
    1074:	000f0000 	andeq	r0, pc, r0
    1078:	00010000 	andeq	r0, r1, r0
    107c:	00000f50 	andeq	r0, r0, r0, asr pc
    1080:	00002000 	andeq	r2, r0, r0
    1084:	54000100 	strpl	r0, [r0], #-256	; 0x100
	...
    1094:	0000000f 	andeq	r0, r0, pc
    1098:	0f510001 	svceq	0x00510001
    109c:	20000000 	andcs	r0, r0, r0
    10a0:	01000000 	mrseq	r0, (UNDEF: 0)
    10a4:	00005500 	andeq	r5, r0, r0, lsl #10
    10a8:	00000000 	andeq	r0, r0, r0
    10ac:	00ec0000 	rsceq	r0, ip, r0
    10b0:	01040000 	mrseq	r0, (UNDEF: 4)
    10b4:	00010000 	andeq	r0, r1, r0
    10b8:	00010450 	andeq	r0, r1, r0, asr r4
    10bc:	00011400 	andeq	r1, r1, r0, lsl #8
    10c0:	f3000400 	vshl.u8	d0, d0, d0
    10c4:	149f5001 	ldrne	r5, [pc], #1	; 10cc <__code_start__-0x6f34>
    10c8:	18000001 	stmdane	r0, {r0}
    10cc:	01000001 	tsteq	r0, r1
    10d0:	01185000 	tsteq	r8, r0
    10d4:	01200000 	teqeq	r0, r0
    10d8:	00040000 	andeq	r0, r4, r0
    10dc:	9f5001f3 	svcls	0x005001f3
	...
    10e8:	000000f8 	strdeq	r0, [r0], -r8
    10ec:	00000104 	andeq	r0, r0, r4, lsl #2
    10f0:	0070000b 	rsbseq	r0, r0, fp
    10f4:	b4232535 	strtlt	r2, [r3], #-1333	; 0x535
    10f8:	02818080 	addeq	r8, r1, #128	; 0x80
    10fc:	0001049f 	muleq	r1, pc, r4	; <UNPREDICTABLE>
    1100:	00010700 	andeq	r0, r1, r0, lsl #14
    1104:	50000100 	andpl	r0, r0, r0, lsl #2
    1108:	00000107 	andeq	r0, r0, r7, lsl #2
    110c:	00000114 	andeq	r0, r0, r4, lsl r1
    1110:	01f3000c 	mvnseq	r0, ip
    1114:	23253550 	teqcs	r5, #80, 10	; 0x14000000
    1118:	818080b4 	strhhi	r8, [r0, r4]
    111c:	00009f02 	andeq	r9, r0, r2, lsl #30
    1120:	00000000 	andeq	r0, r0, r0
    1124:	00fc0000 	rscseq	r0, ip, r0
    1128:	01140000 	tsteq	r4, r0
    112c:	00010000 	andeq	r0, r1, r0
    1130:	00000054 	andeq	r0, r0, r4, asr r0
    1134:	00000000 	andeq	r0, r0, r0
    1138:	0000d000 	andeq	sp, r0, r0
    113c:	0000df00 	andeq	sp, r0, r0, lsl #30
    1140:	50000100 	andpl	r0, r0, r0, lsl #2
    1144:	000000df 	ldrdeq	r0, [r0], -pc	; <UNPREDICTABLE>
    1148:	000000e4 	andeq	r0, r0, r4, ror #1
    114c:	01f30004 	mvnseq	r0, r4
    1150:	00e49f50 	rsceq	r9, r4, r0, asr pc
    1154:	00e70000 	rsceq	r0, r7, r0
    1158:	00010000 	andeq	r0, r1, r0
    115c:	0000e750 	andeq	lr, r0, r0, asr r7
    1160:	0000ec00 	andeq	lr, r0, r0, lsl #24
    1164:	f3000400 	vshl.u8	d0, d0, d0
    1168:	009f5001 	addseq	r5, pc, r1
    116c:	00000000 	andeq	r0, r0, r0
    1170:	d0000000 	andle	r0, r0, r0
    1174:	df000000 	svcle	0x00000000
    1178:	01000000 	mrseq	r0, (UNDEF: 0)
    117c:	00df5100 	sbcseq	r5, pc, r0, lsl #2
    1180:	00e40000 	rsceq	r0, r4, r0
    1184:	00040000 	andeq	r0, r4, r0
    1188:	9f5101f3 	svcls	0x005101f3
    118c:	000000e4 	andeq	r0, r0, r4, ror #1
    1190:	000000e7 	andeq	r0, r0, r7, ror #1
    1194:	e7510001 	ldrb	r0, [r1, -r1]
    1198:	ec000000 	stc	0, cr0, [r0], {-0}
    119c:	04000000 	streq	r0, [r0], #-0
    11a0:	5101f300 	mrspl	pc, SP_irq	; <UNPREDICTABLE>
    11a4:	0000009f 	muleq	r0, pc, r0	; <UNPREDICTABLE>
    11a8:	00000000 	andeq	r0, r0, r0
    11ac:	0000c000 	andeq	ip, r0, r0
    11b0:	0000cb00 	andeq	ip, r0, r0, lsl #22
    11b4:	50000100 	andpl	r0, r0, r0, lsl #2
    11b8:	000000cb 	andeq	r0, r0, fp, asr #1
    11bc:	000000d0 	ldrdeq	r0, [r0], -r0	; <UNPREDICTABLE>
    11c0:	01f30004 	mvnseq	r0, r4
    11c4:	00009f50 	andeq	r9, r0, r0, asr pc
    11c8:	00000000 	andeq	r0, r0, r0
    11cc:	009c0000 	addseq	r0, ip, r0
    11d0:	00b40000 	adcseq	r0, r4, r0
    11d4:	00010000 	andeq	r0, r1, r0
    11d8:	0000b450 	andeq	fp, r0, r0, asr r4
    11dc:	0000c000 	andeq	ip, r0, r0
    11e0:	f3000400 	vshl.u8	d0, d0, d0
    11e4:	009f5001 	addseq	r5, pc, r1
    11e8:	00000000 	andeq	r0, r0, r0
    11ec:	78000000 	stmdavc	r0, {}	; <UNPREDICTABLE>
    11f0:	90000000 	andls	r0, r0, r0
    11f4:	01000000 	mrseq	r0, (UNDEF: 0)
    11f8:	00905000 	addseq	r5, r0, r0
    11fc:	009c0000 	addseq	r0, ip, r0
    1200:	00040000 	andeq	r0, r4, r0
    1204:	9f5001f3 	svcls	0x005001f3
	...
    1210:	00000068 	andeq	r0, r0, r8, rrx
    1214:	00000073 	andeq	r0, r0, r3, ror r0
    1218:	73500001 	cmpvc	r0, #1
    121c:	78000000 	stmdavc	r0, {}	; <UNPREDICTABLE>
    1220:	04000000 	streq	r0, [r0], #-0
    1224:	5001f300 	andpl	pc, r1, r0, lsl #6
    1228:	0000009f 	muleq	r0, pc, r0	; <UNPREDICTABLE>
	...
    1234:	00004800 	andeq	r4, r0, r0, lsl #16
    1238:	50000100 	andpl	r0, r0, r0, lsl #2
    123c:	00000048 	andeq	r0, r0, r8, asr #32
    1240:	00000068 	andeq	r0, r0, r8, rrx
    1244:	01f30004 	mvnseq	r0, r4
    1248:	00009f50 	andeq	r9, r0, r0, asr pc
	...
    1254:	004b0000 	subeq	r0, fp, r0
    1258:	00010000 	andeq	r0, r1, r0
    125c:	00004b51 	andeq	r4, r0, r1, asr fp
    1260:	00006800 	andeq	r6, r0, r0, lsl #16
    1264:	f3000400 	vshl.u8	d0, d0, d0
    1268:	009f5101 	addseq	r5, pc, r1, lsl #2
    126c:	00000000 	andeq	r0, r0, r0
    1270:	4c000000 	stcmi	0, cr0, [r0], {-0}
    1274:	54000000 	strpl	r0, [r0], #-0
    1278:	01000000 	mrseq	r0, (UNDEF: 0)
    127c:	00545000 	subseq	r5, r4, r0
    1280:	00580000 	subseq	r0, r8, r0
    1284:	00090000 	andeq	r0, r9, r0
    1288:	00740075 	rsbseq	r0, r4, r5, ror r0
    128c:	21007124 	tstcs	r0, r4, lsr #2
    1290:	0000589f 	muleq	r0, pc, r8	; <UNPREDICTABLE>
    1294:	00005f00 	andeq	r5, r0, r0, lsl #30
    1298:	51000100 	mrspl	r0, (UNDEF: 16)
	...

Disassembly of section .debug_aranges:

00000000 <.debug_aranges>:
   0:	0000001c 	andeq	r0, r0, ip, lsl r0
   4:	00000002 	andeq	r0, r0, r2
   8:	00040000 	andeq	r0, r4, r0
   c:	00000000 	andeq	r0, r0, r0
  10:	00008020 	andeq	r8, r0, r0, lsr #32
  14:	00000688 	andeq	r0, r0, r8, lsl #13
	...
  20:	0000001c 	andeq	r0, r0, ip, lsl r0
  24:	0e880002 	cdpeq	0, 8, cr0, cr8, cr2, {0}
  28:	00040000 	andeq	r0, r4, r0
  2c:	00000000 	andeq	r0, r0, r0
  30:	000086a8 	andeq	r8, r0, r8, lsr #13
  34:	00000378 	andeq	r0, r0, r8, ror r3
	...
  40:	0000001c 	andeq	r0, r0, ip, lsl r0
  44:	1a630002 	bne	18c0054 <__bss_end__+0x18b5544>
  48:	00040000 	andeq	r0, r4, r0
  4c:	00000000 	andeq	r0, r0, r0
  50:	00008b58 	andeq	r8, r0, r8, asr fp
  54:	00000708 	andeq	r0, r0, r8, lsl #14
	...
  60:	0000001c 	andeq	r0, r0, ip, lsl r0
  64:	28db0002 	ldmcs	fp, {r1}^
  68:	00040000 	andeq	r0, r4, r0
  6c:	00000000 	andeq	r0, r0, r0
  70:	00009260 	andeq	r9, r0, r0, ror #4
  74:	00000058 	andeq	r0, r0, r8, asr r0
	...
  80:	0000001c 	andeq	r0, r0, ip, lsl r0
  84:	2a700002 	bcs	1c00094 <__bss_end__+0x1bf5584>
  88:	00040000 	andeq	r0, r4, r0
  8c:	00000000 	andeq	r0, r0, r0
  90:	000092b8 			; <UNDEFINED> instruction: 0x000092b8
  94:	0000003c 	andeq	r0, r0, ip, lsr r0
	...
  a0:	0000001c 	andeq	r0, r0, ip, lsl r0
  a4:	2b870002 	blcs	fe1c00b4 <__bss_end__+0xfe1b55a4>
  a8:	00040000 	andeq	r0, r4, r0
  ac:	00000000 	andeq	r0, r0, r0
  b0:	000092f4 	strdeq	r9, [r0], -r4
  b4:	00000034 	andeq	r0, r0, r4, lsr r0
	...
  c0:	0000001c 	andeq	r0, r0, ip, lsl r0
  c4:	2c790002 	ldclcs	0, cr0, [r9], #-8
  c8:	00040000 	andeq	r0, r4, r0
  cc:	00000000 	andeq	r0, r0, r0
  d0:	00009328 	andeq	r9, r0, r8, lsr #6
  d4:	00000578 	andeq	r0, r0, r8, ror r5
	...
  e0:	0000001c 	andeq	r0, r0, ip, lsl r0
  e4:	33620002 	cmncc	r2, #2
  e8:	00040000 	andeq	r0, r4, r0
  ec:	00000000 	andeq	r0, r0, r0
  f0:	000098a0 	andeq	r9, r0, r0, lsr #17
  f4:	00000020 	andeq	r0, r0, r0, lsr #32
	...
 100:	0000001c 	andeq	r0, r0, ip, lsl r0
 104:	341e0002 	ldrcc	r0, [lr], #-2
 108:	00040000 	andeq	r0, r4, r0
 10c:	00000000 	andeq	r0, r0, r0
 110:	000098c0 	andeq	r9, r0, r0, asr #17
 114:	0000002c 	andeq	r0, r0, ip, lsr #32
	...
 120:	0000001c 	andeq	r0, r0, ip, lsl r0
 124:	35310002 	ldrcc	r0, [r1, #-2]!
 128:	00040000 	andeq	r0, r4, r0
 12c:	00000000 	andeq	r0, r0, r0
 130:	000098ec 	andeq	r9, r0, ip, ror #17
 134:	00000038 	andeq	r0, r0, r8, lsr r0
	...
 140:	0000001c 	andeq	r0, r0, ip, lsl r0
 144:	36440002 	strbcc	r0, [r4], -r2
 148:	00040000 	andeq	r0, r4, r0
 14c:	00000000 	andeq	r0, r0, r0
 150:	00009924 	andeq	r9, r0, r4, lsr #18
 154:	00000044 	andeq	r0, r0, r4, asr #32
	...
 160:	0000001c 	andeq	r0, r0, ip, lsl r0
 164:	37860002 	strcc	r0, [r6, r2]
 168:	00040000 	andeq	r0, r4, r0
 16c:	00000000 	andeq	r0, r0, r0
 170:	00009968 	andeq	r9, r0, r8, ror #18
 174:	00000044 	andeq	r0, r0, r4, asr #32
	...
 180:	0000001c 	andeq	r0, r0, ip, lsl r0
 184:	38c80002 	stmiacc	r8, {r1}^
 188:	00040000 	andeq	r0, r4, r0
 18c:	00000000 	andeq	r0, r0, r0
 190:	000099ac 	andeq	r9, r0, ip, lsr #19
 194:	00000044 	andeq	r0, r0, r4, asr #32
	...
 1a0:	0000001c 	andeq	r0, r0, ip, lsl r0
 1a4:	3a0a0002 	bcc	2801b4 <__bss_end__+0x2756a4>
 1a8:	00040000 	andeq	r0, r4, r0
 1ac:	00000000 	andeq	r0, r0, r0
 1b0:	000099f0 	strdeq	r9, [r0], -r0
 1b4:	00000008 	andeq	r0, r0, r8
	...
 1c0:	0000001c 	andeq	r0, r0, ip, lsl r0
 1c4:	3aa60002 	bcc	fe9801d4 <__bss_end__+0xfe9756c4>
 1c8:	00040000 	andeq	r0, r4, r0
 1cc:	00000000 	andeq	r0, r0, r0
 1d0:	000099f8 	strdeq	r9, [r0], -r8
 1d4:	0000006c 	andeq	r0, r0, ip, rrx
	...
 1e0:	0000001c 	andeq	r0, r0, ip, lsl r0
 1e4:	3c810002 	stccc	0, cr0, [r1], {2}
 1e8:	00040000 	andeq	r0, r4, r0
 1ec:	00000000 	andeq	r0, r0, r0
 1f0:	00009a64 	andeq	r9, r0, r4, ror #20
 1f4:	00000074 	andeq	r0, r0, r4, ror r0
	...
 200:	0000001c 	andeq	r0, r0, ip, lsl r0
 204:	3e320002 	cdpcc	0, 3, cr0, cr2, cr2, {0}
 208:	00040000 	andeq	r0, r4, r0
 20c:	00000000 	andeq	r0, r0, r0
 210:	00009ad8 	ldrdeq	r9, [r0], -r8
 214:	00000098 	muleq	r0, r8, r0
	...
 220:	0000001c 	andeq	r0, r0, ip, lsl r0
 224:	402d0002 	eormi	r0, sp, r2
 228:	00040000 	andeq	r0, r4, r0
 22c:	00000000 	andeq	r0, r0, r0
 230:	00009bd4 	ldrdeq	r9, [r0], -r4
 234:	00000178 	andeq	r0, r0, r8, ror r1
	...
 240:	0000001c 	andeq	r0, r0, ip, lsl r0
 244:	4cf60002 	ldclmi	0, cr0, [r6], #8
 248:	00040000 	andeq	r0, r4, r0
 24c:	00000000 	andeq	r0, r0, r0
 250:	00009d4c 	andeq	r9, r0, ip, asr #26
 254:	00000120 	andeq	r0, r0, r0, lsr #2
	...

Disassembly of section .debug_ranges:

00000000 <.debug_ranges>:
   0:	000004ec 	andeq	r0, r0, ip, ror #9
   4:	000005c8 	andeq	r0, r0, r8, asr #11
   8:	000005cc 	andeq	r0, r0, ip, asr #11
   c:	000005dc 	ldrdeq	r0, [r0], -ip
	...
  18:	000004ec 	andeq	r0, r0, ip, ror #9
  1c:	000004f0 	strdeq	r0, [r0], -r0	; <UNPREDICTABLE>
  20:	000005cc 	andeq	r0, r0, ip, asr #11
  24:	000005d4 	ldrdeq	r0, [r0], -r4
	...
  30:	00009a64 	andeq	r9, r0, r4, ror #20
  34:	00009ad8 	ldrdeq	r9, [r0], -r8
	...

Disassembly of section .debug_line:

00000000 <.debug_line>:
       0:	0000027e 	andeq	r0, r0, lr, ror r2
       4:	01550002 	cmpeq	r5, r2
       8:	01020000 	mrseq	r0, (UNDEF: 2)
       c:	000d0efb 	strdeq	r0, [sp], -fp
      10:	01010101 	tsteq	r1, r1, lsl #2
      14:	01000000 	mrseq	r0, (UNDEF: 0)
      18:	2e010000 	cdpcs	0, 0, cr0, cr1, cr0, {0}
      1c:	73657400 	cmnvc	r5, #0, 8
      20:	2e327374 	mrccs	3, 1, r7, cr2, cr4, {3}
      24:	552f0030 	strpl	r0, [pc, #-48]!	; fffffffc <__bss_end__+0xffff54ec>
      28:	73726573 	cmnvc	r2, #482344960	; 0x1cc00000
      2c:	6972622f 	ldmdbvs	r2!, {r0, r1, r2, r3, r5, r9, sp, lr}^
      30:	756a6e61 	strbvc	r6, [sl, #-3681]!	; 0xe61
      34:	65442f6e 	strbvs	r2, [r4, #-3950]	; 0xf6e
      38:	6f746b73 	svcvs	0x00746b73
      3c:	63732f70 	cmnvs	r3, #112, 30	; 0x1c0
      40:	6c6f6f68 	stclvs	15, cr6, [pc], #-416	; fffffea8 <__bss_end__+0xffff5398>
      44:	7270532f 	rsbsvc	r5, r0, #-1140850688	; 0xbc000000
      48:	31676e69 	cmncc	r7, r9, ror #28
      4c:	2f303239 	svccs	0x00303239
      50:	34325343 	ldrtcc	r5, [r2], #-835	; 0x343
      54:	2f584c30 	svccs	0x00584c30
      58:	34327363 	ldrtcc	r7, [r2], #-867	; 0x363
      5c:	2d786c30 	ldclcs	12, cr6, [r8, #-192]!	; 0xffffff40
      60:	70733032 	rsbsvc	r3, r3, r2, lsr r0
      64:	696c2f72 	stmdbvs	ip!, {r1, r4, r5, r6, r8, r9, sl, fp, sp}^
      68:	2f697062 	svccs	0x00697062
      6c:	6c636e69 	stclvs	14, cr6, [r3], #-420	; 0xfffffe5c
      70:	00656475 	rsbeq	r6, r5, r5, ror r4
      74:	7273752f 	rsbsvc	r7, r3, #197132288	; 0xbc00000
      78:	636f6c2f 	cmnvs	pc, #12032	; 0x2f00
      7c:	432f6c61 	teqmi	pc, #24832	; 0x6100
      80:	616c6c65 	cmnvs	ip, r5, ror #24
      84:	72612f72 	rsbvc	r2, r1, #456	; 0x1c8
      88:	6f6e2d6d 	svcvs	0x006e2d6d
      8c:	652d656e 	strvs	r6, [sp, #-1390]!	; 0x56e
      90:	2f696261 	svccs	0x00696261
      94:	2e382e34 	mrccs	14, 1, r2, cr8, cr4, {1}
      98:	73632d33 	cmnvc	r3, #3264	; 0xcc0
      9c:	65303731 	ldrvs	r3, [r0, #-1841]!	; 0x731
      a0:	62696c2f 	rsbvs	r6, r9, #12032	; 0x2f00
      a4:	6363672f 	cmnvs	r3, #12320768	; 0xbc0000
      a8:	6d72612f 	ldfvse	f6, [r2, #-188]!	; 0xffffff44
      ac:	6e6f6e2d 	cdpvs	14, 6, cr6, cr15, cr13, {1}
      b0:	61652d65 	cmnvs	r5, r5, ror #26
      b4:	342f6962 	strtcc	r6, [pc], #-2402	; bc <__code_start__-0x7f44>
      b8:	332e382e 	teqcc	lr, #3014656	; 0x2e0000
      bc:	636e692f 	cmnvs	lr, #770048	; 0xbc000
      c0:	6564756c 	strbvs	r7, [r4, #-1388]!	; 0x56c
      c4:	70630000 	rsbvc	r0, r3, r0
      c8:	752d7273 	strvc	r7, [sp, #-627]!	; 0x273
      cc:	2e6c6974 	mcrcs	9, 3, r6, cr12, cr4, {3}
      d0:	00010068 	andeq	r0, r1, r8, rrx
      d4:	74696200 	strbtvc	r6, [r9], #-512	; 0x200
      d8:	7075732d 	rsbsvc	r7, r5, sp, lsr #6
      dc:	74726f70 	ldrbtvc	r6, [r2], #-3952	; 0xf70
      e0:	0100682e 	tsteq	r0, lr, lsr #16
      e4:	36310000 	ldrtcc	r0, [r1], -r0
      e8:	7261702d 	rsbvc	r7, r1, #45	; 0x2d
      ec:	742d3274 	strtvc	r3, [sp], #-628	; 0x274
      f0:	39747365 	ldmdbcc	r4!, {r0, r2, r5, r6, r8, r9, ip, sp, lr}^
      f4:	0200632e 	andeq	r6, r0, #-1207959552	; 0xb8000000
      f8:	69700000 	ldmdbvs	r0!, {}^	; <UNPREDICTABLE>
      fc:	7379732d 	cmnvc	r9, #-1275068416	; 0xb4000000
     100:	636f6c2d 	cmnvs	pc, #11520	; 0x2d00
     104:	00682e6b 	rsbeq	r2, r8, fp, ror #28
     108:	72000001 	andvc	r0, r0, #1
     10c:	692d6970 	pushvs	{r4, r5, r6, r8, fp, sp, lr}
     110:	7265746e 	rsbvc	r7, r5, #1845493760	; 0x6e000000
     114:	74707572 	ldrbtvc	r7, [r0], #-1394	; 0x572
     118:	00682e73 	rsbeq	r2, r8, r3, ror lr
     11c:	63000003 	movwvs	r0, #3
     120:	6b636568 	blvs	18d96c8 <__bss_end__+0x18cebb8>
     124:	746e692d 	strbtvc	r6, [lr], #-2349	; 0x92d
     128:	656c7265 	strbvs	r7, [ip, #-613]!	; 0x265
     12c:	2e657661 	cdpcs	6, 6, cr7, cr5, cr1, {3}
     130:	00010068 	andeq	r0, r1, r8, rrx
     134:	64747300 	ldrbtvs	r7, [r4], #-768	; 0x300
     138:	2d746e69 	ldclcs	14, cr6, [r4, #-420]!	; 0xfffffe5c
     13c:	2e636367 	cdpcs	3, 6, cr6, cr3, cr7, {3}
     140:	00040068 	andeq	r0, r4, r8, rrx
     144:	69707200 	ldmdbvs	r0!, {r9, ip, sp, lr}^
     148:	0300682e 	movweq	r6, #2094	; 0x82e
     14c:	70630000 	rsbvc	r0, r3, r0
     150:	642d3431 	strtvs	r3, [sp], #-1073	; 0x431
     154:	67756265 	ldrbvs	r6, [r5, -r5, ror #4]!
     158:	0100682e 	tsteq	r0, lr, lsr #16
     15c:	00000000 	andeq	r0, r0, r0
     160:	80200205 	eorhi	r0, r0, r5, lsl #4
     164:	0e030000 	cdpeq	0, 0, cr0, cr3, cr0, {0}
     168:	03020401 	movweq	r0, #9217	; 0x2401
     16c:	01044a11 	tsteq	r4, r1, lsl sl
     170:	652e6c03 	strvs	r6, [lr, #-3075]!	; 0xc03
     174:	00250867 	eoreq	r0, r5, r7, ror #16
     178:	06010402 	streq	r0, [r1], -r2, lsl #8
     17c:	2208064a 	andcs	r0, r8, #77594624	; 0x4a00000
     180:	78030304 	stmdavc	r3, {r2, r8, r9}
     184:	4c0404ba 	cfstrsmi	mvf0, [r4], {186}	; 0xba
     188:	4b490304 	blmi	1240da0 <__bss_end__+0x1236290>
     18c:	030404d7 	movweq	r0, #17623	; 0x44d7
     190:	9108820a 	tstls	r8, sl, lsl #4
     194:	0f030504 	svceq	0x00030504
     198:	03020466 	movweq	r0, #9318	; 0x2466
     19c:	01042e78 	tsteq	r4, r8, ror lr
     1a0:	652e6c03 	strvs	r6, [lr, #-3075]!	; 0xc03
     1a4:	04250867 	strteq	r0, [r5], #-2151	; 0x867
     1a8:	04580803 	ldrbeq	r0, [r8], #-2051	; 0x803
     1ac:	4a170305 	bmi	5c0dc8 <__bss_end__+0x5b62b8>
     1b0:	78030204 	stmdavc	r3, {r2, r9}
     1b4:	0301042e 	movweq	r0, #5166	; 0x142e
     1b8:	67652e6c 	strbvs	r2, [r5, -ip, ror #28]!
     1bc:	03042508 	movweq	r2, #17672	; 0x4508
     1c0:	02005908 	andeq	r5, r0, #8, 18	; 0x20000
     1c4:	4a060104 	bmi	1805dc <__bss_end__+0x175acc>
     1c8:	08210806 	stmdaeq	r1!, {r1, r2, fp}
     1cc:	030404e7 	movweq	r0, #17639	; 0x44e7
     1d0:	03044a77 	movweq	r4, #19063	; 0x4a77
     1d4:	4c4a0a03 	mcrrmi	10, 0, r0, sl, cr3
     1d8:	08810404 	stmeq	r1, {r2, sl}
     1dc:	69030491 	stmdbvs	r3, {r0, r4, r7, sl}
     1e0:	040413f4 	streq	r1, [r4], #-1012	; 0x3f4
     1e4:	04666803 	strbteq	r6, [r6], #-2051	; 0x803
     1e8:	9e1b0303 	cdpls	3, 1, cr0, cr11, cr3, {0}
     1ec:	0402004b 	streq	r0, [r2], #-75	; 0x4b
     1f0:	06820601 	streq	r0, [r2], r1, lsl #12
     1f4:	084b2108 	stmdaeq	fp, {r3, r8, sp}^
     1f8:	2e02133e 	mcrcs	3, 0, r1, cr2, cr14, {1}
     1fc:	314ca019 	cmpcc	ip, r9, lsl r0
     200:	72030504 	andvc	r0, r3, #4, 10	; 0x1000000
     204:	0301042e 	movweq	r0, #5166	; 0x142e
     208:	2c022e71 	stccs	14, cr2, [r2], {113}	; 0x71
     20c:	4b4b4b15 	blmi	12d2e68 <__bss_end__+0x12c8358>
     210:	79034b4b 	stmdbvc	r3, {r0, r1, r3, r6, r8, r9, fp, lr}
     214:	03044bf2 	movweq	r4, #19442	; 0x4bf2
     218:	042e1c03 	strteq	r1, [lr], #-3075	; 0xc03
     21c:	4a500304 	bmi	1400e34 <__bss_end__+0x13f6324>
     220:	0303046c 	movweq	r0, #13420	; 0x346c
     224:	02002e2d 	andeq	r2, r0, #720	; 0x2d0
     228:	4a060104 	bmi	180640 <__bss_end__+0x175b30>
     22c:	03060404 	movweq	r0, #25604	; 0x6404
     230:	3420084d 	strtcc	r0, [r0], #-2125	; 0x84d
     234:	30030304 	andcc	r0, r3, r4, lsl #6
     238:	0402004a 	streq	r0, [r2], #-74	; 0x4a
     23c:	044a0601 	strbeq	r0, [sl], #-1537	; 0x601
     240:	50030604 	andpl	r0, r3, r4, lsl #12
     244:	03042008 	movweq	r2, #16392	; 0x4008
     248:	004a3103 	subeq	r3, sl, r3, lsl #2
     24c:	06010402 	streq	r0, [r1], -r2, lsl #8
     250:	0604044a 	streq	r0, [r4], -sl, asr #8
     254:	20085a03 	andcs	r5, r8, r3, lsl #20
     258:	74037508 	strvc	r7, [r3], #-1288	; 0x508
     25c:	0303042e 	movweq	r0, #13358	; 0x342e
     260:	02004a33 	andeq	r4, r0, #208896	; 0x33000
     264:	4a060104 	bmi	18067c <__bss_end__+0x175b6c>
     268:	041b0806 	ldreq	r0, [fp], #-2054	; 0x806
     26c:	664c0304 	strbvs	r0, [ip], -r4, lsl #6
     270:	02000304 	andeq	r0, r0, #4, 6	; 0x10000000
     274:	34030104 	strcc	r0, [r3], #-260	; 0x104
     278:	834c524a 	movthi	r5, #49738	; 0xc24a
     27c:	003c02d8 	ldrsbteq	r0, [ip], -r8
     280:	01f40101 	mvnseq	r0, r1, lsl #2
     284:	00020000 	andeq	r0, r2, r0
     288:	000000ff 	strdeq	r0, [r0], -pc	; <UNPREDICTABLE>
     28c:	0efb0102 	cdpeq	1, 15, cr0, cr11, cr2, {0}
     290:	0101000d 	tsteq	r1, sp
     294:	00000101 	andeq	r0, r0, r1, lsl #2
     298:	00000100 	andeq	r0, r0, r0, lsl #2
     29c:	73752f01 	cmnvc	r5, #1, 30
     2a0:	6f6c2f72 	svcvs	0x006c2f72
     2a4:	2f6c6163 	svccs	0x006c6163
     2a8:	6c6c6543 	cfstr64vs	mvdx6, [ip], #-268	; 0xfffffef4
     2ac:	612f7261 	teqvs	pc, r1, ror #4
     2b0:	6e2d6d72 	mcrvs	13, 1, r6, cr13, cr2, {3}
     2b4:	2d656e6f 	stclcs	14, cr6, [r5, #-444]!	; 0xfffffe44
     2b8:	69626165 	stmdbvs	r2!, {r0, r2, r5, r6, r8, sp, lr}^
     2bc:	382e342f 	stmdacc	lr!, {r0, r1, r2, r3, r5, sl, ip, sp}
     2c0:	632d332e 	teqvs	sp, #-1207959552	; 0xb8000000
     2c4:	30373173 	eorscc	r3, r7, r3, ror r1
     2c8:	696c2f65 	stmdbvs	ip!, {r0, r2, r5, r6, r8, r9, sl, fp, sp}^
     2cc:	63672f62 	cmnvs	r7, #392	; 0x188
     2d0:	72612f63 	rsbvc	r2, r1, #396	; 0x18c
     2d4:	6f6e2d6d 	svcvs	0x006e2d6d
     2d8:	652d656e 	strvs	r6, [sp, #-1390]!	; 0x56e
     2dc:	2f696261 	svccs	0x00696261
     2e0:	2e382e34 	mrccs	14, 1, r2, cr8, cr4, {1}
     2e4:	6e692f33 	mcrvs	15, 3, r2, cr9, cr3, {1}
     2e8:	64756c63 	ldrbtvs	r6, [r5], #-3171	; 0xc63
     2ec:	552f0065 	strpl	r0, [pc, #-101]!	; 28f <__code_start__-0x7d71>
     2f0:	73726573 	cmnvc	r2, #482344960	; 0x1cc00000
     2f4:	6972622f 	ldmdbvs	r2!, {r0, r1, r2, r3, r5, r9, sp, lr}^
     2f8:	756a6e61 	strbvc	r6, [sl, #-3681]!	; 0xe61
     2fc:	65442f6e 	strbvs	r2, [r4, #-3950]	; 0xf6e
     300:	6f746b73 	svcvs	0x00746b73
     304:	63732f70 	cmnvs	r3, #112, 30	; 0x1c0
     308:	6c6f6f68 	stclvs	15, cr6, [pc], #-416	; 170 <__code_start__-0x7e90>
     30c:	7270532f 	rsbsvc	r5, r0, #-1140850688	; 0xbc000000
     310:	31676e69 	cmncc	r7, r9, ror #28
     314:	2f303239 	svccs	0x00303239
     318:	34325343 	ldrtcc	r5, [r2], #-835	; 0x343
     31c:	2f584c30 	svccs	0x00584c30
     320:	34327363 	ldrtcc	r7, [r2], #-867	; 0x363
     324:	2d786c30 	ldclcs	12, cr6, [r8, #-192]!	; 0xffffff40
     328:	70733032 	rsbsvc	r3, r3, r2, lsr r0
     32c:	696c2f72 	stmdbvs	ip!, {r1, r4, r5, r6, r8, r9, sl, fp, sp}^
     330:	2f697062 	svccs	0x00697062
     334:	6c636e69 	stclvs	14, cr6, [r3], #-420	; 0xfffffe5c
     338:	00656475 	rsbeq	r6, r5, r5, ror r4
     33c:	31706300 	cmncc	r0, r0, lsl #6
     340:	65642d34 	strbvs	r2, [r4, #-3380]!	; 0xd34
     344:	2e677562 	cdpcs	5, 6, cr7, cr7, cr2, {3}
     348:	00000063 	andeq	r0, r0, r3, rrx
     34c:	31706300 	cmncc	r0, r0, lsl #6
     350:	65642d34 	strbvs	r2, [r4, #-3380]!	; 0xd34
     354:	2e677562 	cdpcs	5, 6, cr7, cr7, cr2, {3}
     358:	00000068 	andeq	r0, r0, r8, rrx
     35c:	64747300 	ldrbtvs	r7, [r4], #-768	; 0x300
     360:	2d746e69 	ldclcs	14, cr6, [r4, #-420]!	; 0xfffffe5c
     364:	2e636367 	cdpcs	3, 6, cr6, cr3, cr7, {3}
     368:	00010068 	andeq	r0, r1, r8, rrx
     36c:	69707200 	ldmdbvs	r0!, {r9, ip, sp, lr}^
     370:	0200682e 	andeq	r6, r0, #3014656	; 0x2e0000
     374:	70720000 	rsbsvc	r0, r2, r0
     378:	6e692d69 	cdpvs	13, 6, cr2, cr9, cr9, {3}
     37c:	72726574 	rsbsvc	r6, r2, #116, 10	; 0x1d000000
     380:	73747075 	cmnvc	r4, #117	; 0x75
     384:	0200682e 	andeq	r6, r0, #3014656	; 0x2e0000
     388:	00000000 	andeq	r0, r0, r0
     38c:	86a80205 	strthi	r0, [r8], r5, lsl #4
     390:	35030000 	strcc	r0, [r3, #-0]
     394:	4a620301 	bmi	1880fa0 <__bss_end__+0x1876490>
     398:	032e2403 	teqeq	lr, #50331648	; 0x3000000
     39c:	7a032e62 	bvc	cbd2c <__bss_end__+0xc121c>
     3a0:	2e29032e 	cdpcs	3, 2, cr0, cr9, cr14, {1}
     3a4:	01040200 	mrseq	r0, R12_usr
     3a8:	03064a06 	movweq	r4, #27142	; 0x6a06
     3ac:	03200865 	teqeq	r0, #6619136	; 0x650000
     3b0:	7a032e78 	bvc	cbd98 <__bss_end__+0xc1288>
     3b4:	2e3a034a 	cdpcs	3, 3, cr0, cr10, cr10, {2}
     3b8:	01040200 	mrseq	r0, R12_usr
     3bc:	03064a06 	movweq	r4, #27142	; 0x6a06
     3c0:	20087fbb 			; <UNDEFINED> instruction: 0x20087fbb
     3c4:	4a00c803 	bmi	323d8 <__bss_end__+0x278c8>
     3c8:	0204f54b 	andeq	pc, r4, #314572800	; 0x12c00000
     3cc:	4a13036c 	bmi	4c1184 <__bss_end__+0x4b6674>
     3d0:	5d034b34 	vstrpl	d4, [r3, #-208]	; 0xffffff30
     3d4:	030104d6 	movweq	r0, #5334	; 0x14d6
     3d8:	02002e11 	andeq	r2, r0, #272	; 0x110
     3dc:	66060104 	strvs	r0, [r6], -r4, lsl #2
     3e0:	00220806 	eoreq	r0, r2, r6, lsl #16
     3e4:	06010402 	streq	r0, [r1], -r2, lsl #8
     3e8:	06020482 	streq	r0, [r2], -r2, lsl #9
     3ec:	20087a03 	andcs	r7, r8, r3, lsl #20
     3f0:	0c030104 	stfeqs	f0, [r3], {4}
     3f4:	5a084b2e 	bpl	2130b4 <__bss_end__+0x2085a4>
     3f8:	032f8331 	teqeq	pc, #-1006632960	; 0xc4000000
     3fc:	03667fbb 	cmneq	r6, #748	; 0x2ec
     400:	9b034a5b 	blls	d2d74 <__bss_end__+0xc8264>
     404:	65038201 	strvs	r8, [r3, #-513]	; 0x201
     408:	2e1f0301 	cdpcs	3, 1, cr0, cr15, cr1, {0}
     40c:	2c2e6203 	sfmcs	f6, 4, [lr], #-12
     410:	7eff0330 	mrcvc	3, 7, r0, cr15, cr0, {1}
     414:	01b3034a 			; <UNDEFINED> instruction: 0x01b3034a
     418:	0204a24a 	andeq	sl, r4, #-1610612732	; 0xa0000004
     41c:	33666203 	cmncc	r6, #805306368	; 0x30000000
     420:	1b030104 	blne	c0838 <__bss_end__+0xb5d28>
     424:	00d74b2e 	sbcseq	r4, r7, lr, lsr #22
     428:	06010402 	streq	r0, [r1], -r2, lsl #8
     42c:	06020482 	streq	r0, [r2], -r2, lsl #9
     430:	20084f03 	andcs	r4, r8, r3, lsl #30
     434:	33030104 	movwcc	r0, #12548	; 0x3104
     438:	03f44b2e 	mvnseq	r4, #47104	; 0xb800
     43c:	2f012e0b 	svccs	0x00012e0b
     440:	b1033f08 	tstlt	r3, r8, lsl #30
     444:	d303017f 	movwle	r0, #12671	; 0x317f
     448:	ae032e00 	cdpge	14, 0, cr2, cr3, cr0, {0}
     44c:	302c2e7f 	eorcc	r2, ip, pc, ror lr
     450:	4a7eff03 	bmi	1fc0064 <__bss_end__+0x1fb5554>
     454:	4a01e703 	bmi	7a068 <__bss_end__+0x6f558>
     458:	7f9603a2 	svcvc	0x009603a2
     45c:	00fb0301 	rscseq	r0, fp, r1, lsl #6
     460:	4b4b3182 	blmi	12cca70 <__bss_end__+0x12c1f60>
     464:	032e1003 	teqeq	lr, #3
     468:	674c4a71 	smlsldxvs	r4, ip, r1, sl
     46c:	694e324b 	stmdbvs	lr, {r0, r1, r3, r6, r9, ip, sp}^
     470:	4d4a7703 	stclmi	7, cr7, [sl, #-12]
     474:	00040235 	andeq	r0, r4, r5, lsr r2
     478:	02570101 	subseq	r0, r7, #1073741824	; 0x40000000
     47c:	00020000 	andeq	r0, r2, r0
     480:	0000013b 	andeq	r0, r0, fp, lsr r1
     484:	0efb0102 	cdpeq	1, 15, cr0, cr11, cr2, {0}
     488:	0101000d 	tsteq	r1, sp
     48c:	00000101 	andeq	r0, r0, r1, lsl #2
     490:	00000100 	andeq	r0, r0, r0, lsl #2
     494:	73552f01 	cmpvc	r5, #1, 30
     498:	2f737265 	svccs	0x00737265
     49c:	61697262 	cmnvs	r9, r2, ror #4
     4a0:	6e756a6e 	vsubvs.f32	s13, s10, s29
     4a4:	7365442f 	cmnvc	r5, #788529152	; 0x2f000000
     4a8:	706f746b 	rsbvc	r7, pc, fp, ror #8
     4ac:	6863732f 	stmdavs	r3!, {r0, r1, r2, r3, r5, r8, r9, ip, sp, lr}^
     4b0:	2f6c6f6f 	svccs	0x006c6f6f
     4b4:	69727053 	ldmdbvs	r2!, {r0, r1, r4, r6, ip, sp, lr}^
     4b8:	3931676e 	ldmdbcc	r1!, {r1, r2, r3, r5, r6, r8, r9, sl, sp, lr}
     4bc:	432f3032 	teqmi	pc, #50	; 0x32
     4c0:	30343253 	eorscc	r3, r4, r3, asr r2
     4c4:	632f584c 	teqvs	pc, #76, 16	; 0x4c0000
     4c8:	30343273 	eorscc	r3, r4, r3, ror r2
     4cc:	322d786c 	eorcc	r7, sp, #108, 16	; 0x6c0000
     4d0:	72707330 	rsbsvc	r7, r0, #48, 6	; 0xc0000000
     4d4:	62696c2f 	rsbvs	r6, r9, #12032	; 0x2f00
     4d8:	692f6970 	stmdbvs	pc!, {r4, r5, r6, r8, fp, sp, lr}	; <UNPREDICTABLE>
     4dc:	756c636e 	strbvc	r6, [ip, #-878]!	; 0x36e
     4e0:	2f006564 	svccs	0x00006564
     4e4:	2f727375 	svccs	0x00727375
     4e8:	61636f6c 	cmnvs	r3, ip, ror #30
     4ec:	65432f6c 	strbvs	r2, [r3, #-3948]	; 0xf6c
     4f0:	72616c6c 	rsbvc	r6, r1, #108, 24	; 0x6c00
     4f4:	6d72612f 	ldfvse	f6, [r2, #-188]!	; 0xffffff44
     4f8:	6e6f6e2d 	cdpvs	14, 6, cr6, cr15, cr13, {1}
     4fc:	61652d65 	cmnvs	r5, r5, ror #26
     500:	342f6962 	strtcc	r6, [pc], #-2402	; 508 <__code_start__-0x7af8>
     504:	332e382e 	teqcc	lr, #3014656	; 0x2e0000
     508:	3173632d 	cmncc	r3, sp, lsr #6
     50c:	2f653037 	svccs	0x00653037
     510:	2f62696c 	svccs	0x0062696c
     514:	2f636367 	svccs	0x00636367
     518:	2d6d7261 	sfmcs	f7, 2, [sp, #-388]!	; 0xfffffe7c
     51c:	656e6f6e 	strbvs	r6, [lr, #-3950]!	; 0xf6e
     520:	6261652d 	rsbvs	r6, r1, #188743680	; 0xb400000
     524:	2e342f69 	cdpcs	15, 3, cr2, cr4, cr9, {3}
     528:	2f332e38 	svccs	0x00332e38
     52c:	6c636e69 	stclvs	14, cr6, [r3], #-420	; 0xfffffe5c
     530:	00656475 	rsbeq	r6, r5, r5, ror r4
     534:	65686300 	strbvs	r6, [r8, #-768]!	; 0x300
     538:	692d6b63 	pushvs	{r0, r1, r5, r6, r8, r9, fp, sp, lr}
     53c:	7265746e 	rsbvc	r7, r5, #1845493760	; 0x6e000000
     540:	7661656c 	strbtvc	r6, [r1], -ip, ror #10
     544:	00632e65 	rsbeq	r2, r3, r5, ror #28
     548:	63000000 	movwvs	r0, #0
     54c:	2d343170 	ldfcss	f3, [r4, #-448]!	; 0xfffffe40
     550:	75626564 	strbvc	r6, [r2, #-1380]!	; 0x564
     554:	00682e67 	rsbeq	r2, r8, r7, ror #28
     558:	72000000 	andvc	r0, r0, #0
     55c:	692d6970 	pushvs	{r4, r5, r6, r8, fp, sp, lr}
     560:	7265746e 	rsbvc	r7, r5, #1845493760	; 0x6e000000
     564:	74707572 	ldrbtvc	r7, [r0], #-1394	; 0x572
     568:	00682e73 	rsbeq	r2, r8, r3, ror lr
     56c:	62000001 	andvs	r0, r0, #1
     570:	732d7469 	teqvc	sp, #1761607680	; 0x69000000
     574:	6f707075 	svcvs	0x00707075
     578:	682e7472 	stmdavs	lr!, {r1, r4, r5, r6, sl, ip, sp, lr}
     57c:	00000000 	andeq	r0, r0, r0
     580:	72737063 	rsbsvc	r7, r3, #99	; 0x63
     584:	6974752d 	ldmdbvs	r4!, {r0, r2, r3, r5, r8, sl, ip, sp, lr}^
     588:	00682e6c 	rsbeq	r2, r8, ip, ror #28
     58c:	73000000 	movwvc	r0, #0
     590:	6e696474 	mcrvs	4, 3, r6, cr9, cr4, {3}
     594:	63672d74 	cmnvs	r7, #116, 26	; 0x1d00
     598:	00682e63 	rsbeq	r2, r8, r3, ror #28
     59c:	63000002 	movwvs	r0, #2
     5a0:	6b636568 	blvs	18d9b48 <__bss_end__+0x18cf038>
     5a4:	746e692d 	strbtvc	r6, [lr], #-2349	; 0x92d
     5a8:	656c7265 	strbvs	r7, [ip, #-613]!	; 0x265
     5ac:	2e657661 	cdpcs	6, 6, cr7, cr5, cr1, {3}
     5b0:	00000068 	andeq	r0, r0, r8, rrx
     5b4:	69707200 	ldmdbvs	r0!, {r9, ip, sp, lr}^
     5b8:	0100682e 	tsteq	r0, lr, lsr #16
     5bc:	00000000 	andeq	r0, r0, r0
     5c0:	8b580205 	blhi	1600ddc <__bss_end__+0x15f62cc>
     5c4:	0a030000 	beq	c05cc <__bss_end__+0xb5abc>
     5c8:	02006701 	andeq	r6, r0, #262144	; 0x40000
     5cc:	82060104 	andhi	r0, r6, #4, 2
     5d0:	03060204 	movweq	r0, #25092	; 0x6204
     5d4:	33ba019a 			; <UNDEFINED> instruction: 0x33ba019a
     5d8:	e2030104 	and	r0, r3, #4, 2
     5dc:	d84b2e7e 	stmdale	fp, {r1, r2, r3, r4, r5, r6, r9, sl, fp, sp}^
     5e0:	a383834d 	orrge	r8, r3, #872415233	; 0x34000001
     5e4:	674b2f4b 	strbvs	r2, [fp, -fp, asr #30]
     5e8:	0068304b 	rsbeq	r3, r8, fp, asr #32
     5ec:	06010402 	streq	r0, [r1], -r2, lsl #8
     5f0:	21080682 	smlabbcs	r8, r2, r6, r0
     5f4:	04020068 	streq	r0, [r2], #-104	; 0x68
     5f8:	06820601 	streq	r0, [r2], r1, lsl #12
     5fc:	020067bb 	andeq	r6, r0, #49020928	; 0x2ec0000
     600:	82060104 	andhi	r0, r6, #4, 2
     604:	ca08bb06 	bgt	22f224 <__bss_end__+0x224714>
     608:	04630304 	strbteq	r0, [r3], #-772	; 0x304
     60c:	05043104 	streq	r3, [r4, #-260]	; 0x104
     610:	042e6b03 	strteq	r6, [lr], #-2819	; 0xb03
     614:	2e190301 	cdpcs	3, 1, cr0, cr9, cr1, {0}
     618:	2a844e4b 	bcs	fe113f4c <__bss_end__+0xfe10943c>
     61c:	04020068 	streq	r0, [r2], #-104	; 0x68
     620:	06660601 	strbteq	r0, [r6], -r1, lsl #12
     624:	4b676ad8 	blmi	19db18c <__bss_end__+0x19d067c>
     628:	69678431 	stmdbvs	r7!, {r0, r4, r5, sl, pc}^
     62c:	6869849f 	stmdavs	r9!, {r0, r1, r2, r3, r4, r7, sl, pc}^
     630:	03040468 	movweq	r0, #17512	; 0x4468
     634:	05048251 	streq	r8, [r4, #-593]	; 0x251
     638:	652e6c03 	strvs	r6, [lr, #-3075]!	; 0xc03
     63c:	08250867 	stmdaeq	r5!, {r0, r1, r2, r5, r6, fp}
     640:	15280260 	strne	r0, [r8, #-608]!	; 0x260
     644:	4b4b4b4b 	blmi	12d3378 <__bss_end__+0x12c8868>
     648:	f279034b 	vcgt.s<illegal width 64>	q8, <illegal reg q4.5>, <illegal reg q5.5>
     64c:	0301044b 	movweq	r0, #5195	; 0x144b
     650:	03042e38 	movweq	r2, #20024	; 0x4e38
     654:	04665503 	strbteq	r5, [r6], #-1283	; 0x503
     658:	2e780304 	cdpcs	3, 7, cr0, cr8, cr4, {0}
     65c:	6c030504 	cfstr32vs	mvfx0, [r3], {4}
     660:	0867652e 	stmdaeq	r7!, {r1, r2, r3, r5, r8, sl, sp, lr}^
     664:	02600825 	rsbeq	r0, r0, #2424832	; 0x250000
     668:	4b4b1528 	blmi	12c5b10 <__bss_end__+0x12bb000>
     66c:	034b4b4b 	movteq	r4, #47947	; 0xbb4b
     670:	044bf279 	strbeq	pc, [fp], #-633	; 0x279	; <UNPREDICTABLE>
     674:	2e0d0303 	cdpcs	3, 0, cr0, cr13, cr3, {0}
     678:	2c030104 	stfcss	f0, [r3], {4}
     67c:	04044c2e 	streq	r4, [r4], #-3118	; 0xc2e
     680:	044a4a03 	strbeq	r4, [sl], #-2563	; 0xa03
     684:	2e6c0305 	cdpcs	3, 6, cr0, cr12, cr5, {0}
     688:	25086765 	strcs	r6, [r8, #-1893]	; 0x765
     68c:	17030304 	strne	r0, [r3, -r4, lsl #6]
     690:	04045808 	streq	r5, [r4], #-2056	; 0x808
     694:	042e7803 	strteq	r7, [lr], #-2051	; 0x803
     698:	2e6c0305 	cdpcs	3, 6, cr0, cr12, cr5, {0}
     69c:	25086765 	strcs	r6, [r8, #-1893]	; 0x765
     6a0:	c7030104 	strgt	r0, [r3, -r4, lsl #2]
     6a4:	00580800 	subseq	r0, r8, r0, lsl #16
     6a8:	06010402 	streq	r0, [r1], -r2, lsl #8
     6ac:	2408064a 	strcs	r0, [r8], #-1610	; 0x64a
     6b0:	3a022f4c 	bcc	8c3e8 <__bss_end__+0x818d8>
     6b4:	01170317 	tsteq	r7, r7, lsl r3
     6b8:	2d491a4d 	vstrcs	s3, [r9, #-308]	; 0xfffffecc
     6bc:	2d2d2d2d 	stccs	13, cr2, [sp, #-180]!	; 0xffffff4c
     6c0:	4a0a032d 	bmi	28137c <__bss_end__+0x27686c>
     6c4:	004b2f4b 	subeq	r2, fp, fp, asr #30
     6c8:	06010402 	streq	r0, [r1], -r2, lsl #8
     6cc:	9f068282 	svcls	0x00068282
     6d0:	01000202 	tsteq	r0, r2, lsl #4
     6d4:	00010c01 	andeq	r0, r1, r1, lsl #24
     6d8:	f5000200 			; <UNDEFINED> instruction: 0xf5000200
     6dc:	02000000 	andeq	r0, r0, #0
     6e0:	0d0efb01 	vstreq	d15, [lr, #-4]
     6e4:	01010100 	mrseq	r0, (UNDEF: 17)
     6e8:	00000001 	andeq	r0, r0, r1
     6ec:	01000001 	tsteq	r0, r1
     6f0:	6362696c 	cmnvs	r2, #108, 18	; 0x1b0000
     6f4:	73752f00 	cmnvc	r5, #0, 30
     6f8:	6f6c2f72 	svcvs	0x006c2f72
     6fc:	2f6c6163 	svccs	0x006c6163
     700:	6c6c6543 	cfstr64vs	mvdx6, [ip], #-268	; 0xfffffef4
     704:	612f7261 	teqvs	pc, r1, ror #4
     708:	6e2d6d72 	mcrvs	13, 1, r6, cr13, cr2, {3}
     70c:	2d656e6f 	stclcs	14, cr6, [r5, #-444]!	; 0xfffffe44
     710:	69626165 	stmdbvs	r2!, {r0, r2, r5, r6, r8, sp, lr}^
     714:	382e342f 	stmdacc	lr!, {r0, r1, r2, r3, r5, sl, ip, sp}
     718:	632d332e 	teqvs	sp, #-1207959552	; 0xb8000000
     71c:	30373173 	eorscc	r3, r7, r3, ror r1
     720:	696c2f65 	stmdbvs	ip!, {r0, r2, r5, r6, r8, r9, sl, fp, sp}^
     724:	63672f62 	cmnvs	r7, #392	; 0x188
     728:	72612f63 	rsbvc	r2, r1, #396	; 0x18c
     72c:	6f6e2d6d 	svcvs	0x006e2d6d
     730:	652d656e 	strvs	r6, [sp, #-1390]!	; 0x56e
     734:	2f696261 	svccs	0x00696261
     738:	2e382e34 	mrccs	14, 1, r2, cr8, cr4, {1}
     73c:	6e692f33 	mcrvs	15, 3, r2, cr9, cr3, {1}
     740:	64756c63 	ldrbtvs	r6, [r5], #-3171	; 0xc63
     744:	552f0065 	strpl	r0, [pc, #-101]!	; 6e7 <__code_start__-0x7919>
     748:	73726573 	cmnvc	r2, #482344960	; 0x1cc00000
     74c:	6972622f 	ldmdbvs	r2!, {r0, r1, r2, r3, r5, r9, sp, lr}^
     750:	756a6e61 	strbvc	r6, [sl, #-3681]!	; 0xe61
     754:	65442f6e 	strbvs	r2, [r4, #-3950]	; 0xf6e
     758:	6f746b73 	svcvs	0x00746b73
     75c:	63732f70 	cmnvs	r3, #112, 30	; 0x1c0
     760:	6c6f6f68 	stclvs	15, cr6, [pc], #-416	; 5c8 <__code_start__-0x7a38>
     764:	7270532f 	rsbsvc	r5, r0, #-1140850688	; 0xbc000000
     768:	31676e69 	cmncc	r7, r9, ror #28
     76c:	2f303239 	svccs	0x00303239
     770:	34325343 	ldrtcc	r5, [r2], #-835	; 0x343
     774:	2f584c30 	svccs	0x00584c30
     778:	34327363 	ldrtcc	r7, [r2], #-867	; 0x363
     77c:	2d786c30 	ldclcs	12, cr6, [r8, #-192]!	; 0xffffff40
     780:	70733032 	rsbsvc	r3, r3, r2, lsr r0
     784:	696c2f72 	stmdbvs	ip!, {r1, r4, r5, r6, r8, r9, sl, fp, sp}^
     788:	2f697062 	svccs	0x00697062
     78c:	6c636e69 	stclvs	14, cr6, [r3], #-420	; 0xfffffe5c
     790:	00656475 	rsbeq	r6, r5, r5, ror r4
     794:	69727000 	ldmdbvs	r2!, {ip, sp, lr}^
     798:	2e6b746e 	cdpcs	4, 6, cr7, cr11, cr14, {3}
     79c:	00010063 	andeq	r0, r1, r3, rrx
     7a0:	64747300 	ldrbtvs	r7, [r4], #-768	; 0x300
     7a4:	2e677261 	cdpcs	2, 6, cr7, cr7, cr1, {3}
     7a8:	00020068 	andeq	r0, r2, r8, rrx
     7ac:	75623c00 	strbvc	r3, [r2, #-3072]!	; 0xc00
     7b0:	2d746c69 	ldclcs	12, cr6, [r4, #-420]!	; 0xfffffe5c
     7b4:	003e6e69 	eorseq	r6, lr, r9, ror #28
     7b8:	72000000 	andvc	r0, r0, #0
     7bc:	682e6970 	stmdavs	lr!, {r4, r5, r6, r8, fp, sp, lr}
     7c0:	00000300 	andeq	r0, r0, r0, lsl #6
     7c4:	702d6176 	eorvc	r6, sp, r6, ror r1
     7c8:	746e6972 	strbtvc	r6, [lr], #-2418	; 0x972
     7cc:	00682e6b 	rsbeq	r2, r8, fp, ror #28
     7d0:	00000001 	andeq	r0, r0, r1
     7d4:	60020500 	andvs	r0, r2, r0, lsl #10
     7d8:	17000092 			; <UNDEFINED> instruction: 0x17000092
     7dc:	89bf4b6b 	ldmibhi	pc!, {r0, r1, r3, r5, r6, r8, r9, fp, lr}	; <UNPREDICTABLE>
     7e0:	01000e02 	tsteq	r0, r2, lsl #28
     7e4:	00009401 	andeq	r9, r0, r1, lsl #8
     7e8:	7c000200 	sfmvc	f0, 4, [r0], {-0}
     7ec:	02000000 	andeq	r0, r0, #0
     7f0:	0d0efb01 	vstreq	d15, [lr, #-4]
     7f4:	01010100 	mrseq	r0, (UNDEF: 17)
     7f8:	00000001 	andeq	r0, r0, r1
     7fc:	01000001 	tsteq	r0, r1
     800:	6362696c 	cmnvs	r2, #108, 18	; 0x1b0000
     804:	73552f00 	cmpvc	r5, #0, 30
     808:	2f737265 	svccs	0x00737265
     80c:	61697262 	cmnvs	r9, r2, ror #4
     810:	6e756a6e 	vsubvs.f32	s13, s10, s29
     814:	7365442f 	cmnvc	r5, #788529152	; 0x2f000000
     818:	706f746b 	rsbvc	r7, pc, fp, ror #8
     81c:	6863732f 	stmdavs	r3!, {r0, r1, r2, r3, r5, r8, r9, ip, sp, lr}^
     820:	2f6c6f6f 	svccs	0x006c6f6f
     824:	69727053 	ldmdbvs	r2!, {r0, r1, r4, r6, ip, sp, lr}^
     828:	3931676e 	ldmdbcc	r1!, {r1, r2, r3, r5, r6, r8, r9, sl, sp, lr}
     82c:	432f3032 	teqmi	pc, #50	; 0x32
     830:	30343253 	eorscc	r3, r4, r3, asr r2
     834:	632f584c 	teqvs	pc, #76, 16	; 0x4c0000
     838:	30343273 	eorscc	r3, r4, r3, ror r2
     83c:	322d786c 	eorcc	r7, sp, #108, 16	; 0x6c0000
     840:	72707330 	rsbsvc	r7, r0, #48, 6	; 0xc0000000
     844:	62696c2f 	rsbvs	r6, r9, #12032	; 0x2f00
     848:	692f6970 	stmdbvs	pc!, {r4, r5, r6, r8, fp, sp, lr}	; <UNPREDICTABLE>
     84c:	756c636e 	strbvc	r6, [ip, #-878]!	; 0x36e
     850:	00006564 	andeq	r6, r0, r4, ror #10
     854:	63747570 	cmnvs	r4, #112, 10	; 0x1c000000
     858:	2e726168 	rpwcssz	f6, f2, #0.0
     85c:	00010063 	andeq	r0, r1, r3, rrx
     860:	69707200 	ldmdbvs	r0!, {r9, ip, sp, lr}^
     864:	0200682e 	andeq	r6, r0, #3014656	; 0x2e0000
     868:	00000000 	andeq	r0, r0, r0
     86c:	92b80205 	adcsls	r0, r8, #1342177280	; 0x50000000
     870:	4a140000 	bmi	500878 <__bss_end__+0x4f5d68>
     874:	13bc136b 			; <UNDEFINED> instruction: 0x13bc136b
     878:	01000802 	tsteq	r0, r2, lsl #16
     87c:	0000a001 	andeq	sl, r0, r1
     880:	79000200 	stmdbvc	r0, {r9}
     884:	02000000 	andeq	r0, r0, #0
     888:	0d0efb01 	vstreq	d15, [lr, #-4]
     88c:	01010100 	mrseq	r0, (UNDEF: 17)
     890:	00000001 	andeq	r0, r0, r1
     894:	01000001 	tsteq	r0, r1
     898:	6362696c 	cmnvs	r2, #108, 18	; 0x1b0000
     89c:	73552f00 	cmpvc	r5, #0, 30
     8a0:	2f737265 	svccs	0x00737265
     8a4:	61697262 	cmnvs	r9, r2, ror #4
     8a8:	6e756a6e 	vsubvs.f32	s13, s10, s29
     8ac:	7365442f 	cmnvc	r5, #788529152	; 0x2f000000
     8b0:	706f746b 	rsbvc	r7, pc, fp, ror #8
     8b4:	6863732f 	stmdavs	r3!, {r0, r1, r2, r3, r5, r8, r9, ip, sp, lr}^
     8b8:	2f6c6f6f 	svccs	0x006c6f6f
     8bc:	69727053 	ldmdbvs	r2!, {r0, r1, r4, r6, ip, sp, lr}^
     8c0:	3931676e 	ldmdbcc	r1!, {r1, r2, r3, r5, r6, r8, r9, sl, sp, lr}
     8c4:	432f3032 	teqmi	pc, #50	; 0x32
     8c8:	30343253 	eorscc	r3, r4, r3, asr r2
     8cc:	632f584c 	teqvs	pc, #76, 16	; 0x4c0000
     8d0:	30343273 	eorscc	r3, r4, r3, ror r2
     8d4:	322d786c 	eorcc	r7, sp, #108, 16	; 0x6c0000
     8d8:	72707330 	rsbsvc	r7, r0, #48, 6	; 0xc0000000
     8dc:	62696c2f 	rsbvs	r6, r9, #12032	; 0x2f00
     8e0:	692f6970 	stmdbvs	pc!, {r4, r5, r6, r8, fp, sp, lr}	; <UNPREDICTABLE>
     8e4:	756c636e 	strbvc	r6, [ip, #-878]!	; 0x36e
     8e8:	00006564 	andeq	r6, r0, r4, ror #10
     8ec:	6b747570 	blvs	1d1deb4 <__bss_end__+0x1d133a4>
     8f0:	0100632e 	tsteq	r0, lr, lsr #6
     8f4:	70720000 	rsbsvc	r0, r2, r0
     8f8:	00682e69 	rsbeq	r2, r8, r9, ror #28
     8fc:	00000002 	andeq	r0, r0, r2
     900:	f4020500 	vst3.8	{d0,d2,d4}, [r2], r0
     904:	15000092 	strne	r0, [r0, #-146]	; 0x92
     908:	02002d4c 	andeq	r2, r0, #76, 26	; 0x1300
     90c:	002f0204 	eoreq	r0, pc, r4, lsl #4
     910:	49020402 	stmdbmi	r2, {r1, sl}
     914:	01040200 	mrseq	r0, R12_usr
     918:	6b062e06 	blvs	18c138 <__bss_end__+0x181628>
     91c:	01000602 	tsteq	r0, r2, lsl #12
     920:	0001f101 	andeq	pc, r1, r1, lsl #2
     924:	e9000200 	stmdb	r0, {r9}
     928:	02000000 	andeq	r0, r0, #0
     92c:	0d0efb01 	vstreq	d15, [lr, #-4]
     930:	01010100 	mrseq	r0, (UNDEF: 17)
     934:	00000001 	andeq	r0, r0, r1
     938:	01000001 	tsteq	r0, r1
     93c:	6362696c 	cmnvs	r2, #108, 18	; 0x1b0000
     940:	73752f00 	cmnvc	r5, #0, 30
     944:	6f6c2f72 	svcvs	0x006c2f72
     948:	2f6c6163 	svccs	0x006c6163
     94c:	6c6c6543 	cfstr64vs	mvdx6, [ip], #-268	; 0xfffffef4
     950:	612f7261 	teqvs	pc, r1, ror #4
     954:	6e2d6d72 	mcrvs	13, 1, r6, cr13, cr2, {3}
     958:	2d656e6f 	stclcs	14, cr6, [r5, #-444]!	; 0xfffffe44
     95c:	69626165 	stmdbvs	r2!, {r0, r2, r5, r6, r8, sp, lr}^
     960:	382e342f 	stmdacc	lr!, {r0, r1, r2, r3, r5, sl, ip, sp}
     964:	632d332e 	teqvs	sp, #-1207959552	; 0xb8000000
     968:	30373173 	eorscc	r3, r7, r3, ror r1
     96c:	696c2f65 	stmdbvs	ip!, {r0, r2, r5, r6, r8, r9, sl, fp, sp}^
     970:	63672f62 	cmnvs	r7, #392	; 0x188
     974:	72612f63 	rsbvc	r2, r1, #396	; 0x18c
     978:	6f6e2d6d 	svcvs	0x006e2d6d
     97c:	652d656e 	strvs	r6, [sp, #-1390]!	; 0x56e
     980:	2f696261 	svccs	0x00696261
     984:	2e382e34 	mrccs	14, 1, r2, cr8, cr4, {1}
     988:	6e692f33 	mcrvs	15, 3, r2, cr9, cr3, {1}
     98c:	64756c63 	ldrbtvs	r6, [r5], #-3171	; 0xc63
     990:	552f0065 	strpl	r0, [pc, #-101]!	; 933 <__code_start__-0x76cd>
     994:	73726573 	cmnvc	r2, #482344960	; 0x1cc00000
     998:	6972622f 	ldmdbvs	r2!, {r0, r1, r2, r3, r5, r9, sp, lr}^
     99c:	756a6e61 	strbvc	r6, [sl, #-3681]!	; 0xe61
     9a0:	65442f6e 	strbvs	r2, [r4, #-3950]	; 0xf6e
     9a4:	6f746b73 	svcvs	0x00746b73
     9a8:	63732f70 	cmnvs	r3, #112, 30	; 0x1c0
     9ac:	6c6f6f68 	stclvs	15, cr6, [pc], #-416	; 814 <__code_start__-0x77ec>
     9b0:	7270532f 	rsbsvc	r5, r0, #-1140850688	; 0xbc000000
     9b4:	31676e69 	cmncc	r7, r9, ror #28
     9b8:	2f303239 	svccs	0x00303239
     9bc:	34325343 	ldrtcc	r5, [r2], #-835	; 0x343
     9c0:	2f584c30 	svccs	0x00584c30
     9c4:	34327363 	ldrtcc	r7, [r2], #-867	; 0x363
     9c8:	2d786c30 	ldclcs	12, cr6, [r8, #-192]!	; 0xffffff40
     9cc:	70733032 	rsbsvc	r3, r3, r2, lsr r0
     9d0:	696c2f72 	stmdbvs	ip!, {r1, r4, r5, r6, r8, r9, sl, fp, sp}^
     9d4:	2f697062 	svccs	0x00697062
     9d8:	6c636e69 	stclvs	14, cr6, [r3], #-420	; 0xfffffe5c
     9dc:	00656475 	rsbeq	r6, r5, r5, ror r4
     9e0:	2d617600 	stclcs	6, cr7, [r1, #-0]
     9e4:	6e697270 	mcrvs	2, 3, r7, cr9, cr0, {3}
     9e8:	632e6b74 	teqvs	lr, #116, 22	; 0x1d000
     9ec:	00000100 	andeq	r0, r0, r0, lsl #2
     9f0:	61647473 	smcvs	18243	; 0x4743
     9f4:	682e6772 	stmdavs	lr!, {r1, r4, r5, r6, r8, r9, sl, sp, lr}
     9f8:	00000200 	andeq	r0, r0, r0, lsl #4
     9fc:	2e697072 	mcrcs	0, 3, r7, cr9, cr2, {3}
     a00:	00030068 	andeq	r0, r3, r8, rrx
     a04:	75623c00 	strbvc	r3, [r2, #-3072]!	; 0xc00
     a08:	2d746c69 	ldclcs	12, cr6, [r4, #-420]!	; 0xfffffe5c
     a0c:	003e6e69 	eorseq	r6, lr, r9, ror #28
     a10:	00000000 	andeq	r0, r0, r0
     a14:	28020500 	stmdacs	r2, {r8, sl}
     a18:	03000093 	movweq	r0, #147	; 0x93
     a1c:	a5010126 	strge	r0, [r1, #-294]	; 0x126
     a20:	002d3113 	eoreq	r3, sp, r3, lsl r1
     a24:	2f020402 	svccs	0x00020402
     a28:	02040200 	andeq	r0, r4, #0, 4
     a2c:	0402002d 	streq	r0, [r2], #-45	; 0x2d
     a30:	02002f02 	andeq	r2, r0, #2, 30
     a34:	4c2d0104 	stfmis	f0, [sp], #-16
     a38:	4b14304c 	blmi	50cb70 <__bss_end__+0x502060>
     a3c:	02004f2f 	andeq	r4, r0, #47, 30	; 0xbc
     a40:	00670204 	rsbeq	r0, r7, r4, lsl #4
     a44:	65010402 	strvs	r0, [r1, #-1026]	; 0x402
     a48:	a0304d4c 	eorsge	r4, r0, ip, asr #26
     a4c:	0230312f 	eorseq	r3, r0, #-1073741813	; 0xc000000b
     a50:	2d841626 	stccs	6, cr1, [r4, #152]	; 0x98
     a54:	0402002c 	streq	r0, [r2], #-44	; 0x2c
     a58:	02003001 	andeq	r3, r0, #1
     a5c:	06330104 	ldrteq	r0, [r3], -r4, lsl #2
     a60:	04020066 	streq	r0, [r2], #-102	; 0x66
     a64:	02002e01 	andeq	r2, r0, #1, 28
     a68:	08060104 	stmdaeq	r6, {r2, r8}
     a6c:	032f6721 	teqeq	pc, #8650752	; 0x840000
     a70:	13038273 	movwne	r8, #12915	; 0x3273
     a74:	0402002e 	streq	r0, [r2], #-46	; 0x2e
     a78:	00660601 	rsbeq	r0, r6, r1, lsl #12
     a7c:	06010402 	streq	r0, [r1], -r2, lsl #8
     a80:	674b4b83 	strbvs	r4, [fp, -r3, lsl #23]
     a84:	65034b31 	strvs	r4, [r3, #-2865]	; 0xb31
     a88:	2e23032e 	cdpcs	3, 2, cr0, cr3, cr14, {1}
     a8c:	01040200 	mrseq	r0, R12_usr
     a90:	02002e06 	andeq	r2, r0, #6, 28	; 0x60
     a94:	9f060104 	svcls	0x00060104
     a98:	01040200 	mrseq	r0, R12_usr
     a9c:	d723086a 	strle	r0, [r3, -sl, ror #16]!
     aa0:	087fa403 	ldmdaeq	pc!, {r0, r1, sl, sp, pc}^	; <UNPREDICTABLE>
     aa4:	02004b3c 	andeq	r4, r0, #60, 22	; 0xf000
     aa8:	4a060104 	bmi	180ec0 <__bss_end__+0x1763b0>
     aac:	4b210806 	blmi	842acc <__bss_end__+0x837fbc>
     ab0:	db034b2f 	blle	d3774 <__bss_end__+0xc8c64>
     ab4:	4c9ff200 	lfmmi	f7, 1, [pc], {0}
     ab8:	2f4b3248 	svccs	0x004b3248
     abc:	2d2f4b84 	vstmdbcs	pc!, {d4-d5}
     ac0:	2f30314d 	svccs	0x0030314d
     ac4:	04020083 	streq	r0, [r2], #-131	; 0x83
     ac8:	00be2c01 	adcseq	r2, lr, r1, lsl #24
     acc:	06010402 	streq	r0, [r1], -r2, lsl #8
     ad0:	2208064a 	andcs	r0, r8, #77594624	; 0x4a00000
     ad4:	03163602 	tsteq	r6, #2097152	; 0x200000
     ad8:	2108d60e 	tstcs	r8, lr, lsl #12
     adc:	31210830 	teqcc	r1, r0, lsr r8
     ae0:	08302108 	ldmdaeq	r0!, {r3, r8, sp}
     ae4:	304b3021 	subcc	r3, fp, r1, lsr #32
     ae8:	4b302108 	blmi	c08f10 <__bss_end__+0xbfe400>
     aec:	31d98383 	bicscc	r8, r9, r3, lsl #7
     af0:	0402002f 	streq	r0, [r2], #-47	; 0x2f
     af4:	02006501 	andeq	r6, r0, #4194304	; 0x400000
     af8:	4a060204 	bmi	181310 <__bss_end__+0x176800>
     afc:	01040200 	mrseq	r0, R12_usr
     b00:	7fbf0306 	svcvc	0x00bf0306
     b04:	04020066 	streq	r0, [r2], #-102	; 0x66
     b08:	06660602 	strbteq	r0, [r6], -r2, lsl #12
     b0c:	4a00c503 	bmi	31f20 <__bss_end__+0x27410>
     b10:	00160268 	andseq	r0, r6, r8, ror #4
     b14:	00420101 	subeq	r0, r2, r1, lsl #2
     b18:	00020000 	andeq	r0, r2, r0
     b1c:	00000028 	andeq	r0, r0, r8, lsr #32
     b20:	0efb0102 	cdpeq	1, 15, cr0, cr11, cr2, {0}
     b24:	0101000d 	tsteq	r1, sp
     b28:	00000101 	andeq	r0, r0, r1, lsl #2
     b2c:	00000100 	andeq	r0, r0, r0, lsl #2
     b30:	61747301 	cmnvs	r4, r1, lsl #6
     b34:	732d6666 	teqvc	sp, #106954752	; 0x6600000
     b38:	00006372 	andeq	r6, r0, r2, ror r3
     b3c:	68636163 	stmdavs	r3!, {r0, r1, r5, r6, r8, sp, lr}^
     b40:	00632e65 	rsbeq	r2, r3, r5, ror #28
     b44:	00000001 	andeq	r0, r0, r1
     b48:	a0020500 	andge	r0, r2, r0, lsl #10
     b4c:	14000098 	strne	r0, [r0], #-152	; 0x98
     b50:	4e2f3014 	miaTTmi	acc0, r4, r3
     b54:	022f3114 	eoreq	r3, pc, #20, 2
     b58:	01010004 	tsteq	r1, r4
     b5c:	0000009d 	muleq	r0, sp, r0
     b60:	00860002 	addeq	r0, r6, r2
     b64:	01020000 	mrseq	r0, (UNDEF: 2)
     b68:	000d0efb 	strdeq	r0, [sp], -fp
     b6c:	01010101 	tsteq	r1, r1, lsl #2
     b70:	01000000 	mrseq	r0, (UNDEF: 0)
     b74:	73010000 	movwvc	r0, #4096	; 0x1000
     b78:	66666174 			; <UNDEFINED> instruction: 0x66666174
     b7c:	6372732d 	cmnvs	r2, #-1275068416	; 0xb4000000
     b80:	73552f00 	cmpvc	r5, #0, 30
     b84:	2f737265 	svccs	0x00737265
     b88:	61697262 	cmnvs	r9, r2, ror #4
     b8c:	6e756a6e 	vsubvs.f32	s13, s10, s29
     b90:	7365442f 	cmnvc	r5, #788529152	; 0x2f000000
     b94:	706f746b 	rsbvc	r7, pc, fp, ror #8
     b98:	6863732f 	stmdavs	r3!, {r0, r1, r2, r3, r5, r8, r9, ip, sp, lr}^
     b9c:	2f6c6f6f 	svccs	0x006c6f6f
     ba0:	69727053 	ldmdbvs	r2!, {r0, r1, r4, r6, ip, sp, lr}^
     ba4:	3931676e 	ldmdbcc	r1!, {r1, r2, r3, r5, r6, r8, r9, sl, sp, lr}
     ba8:	432f3032 	teqmi	pc, #50	; 0x32
     bac:	30343253 	eorscc	r3, r4, r3, asr r2
     bb0:	632f584c 	teqvs	pc, #76, 16	; 0x4c0000
     bb4:	30343273 	eorscc	r3, r4, r3, ror r2
     bb8:	322d786c 	eorcc	r7, sp, #108, 16	; 0x6c0000
     bbc:	72707330 	rsbsvc	r7, r0, #48, 6	; 0xc0000000
     bc0:	62696c2f 	rsbvs	r6, r9, #12032	; 0x2f00
     bc4:	692f6970 	stmdbvs	pc!, {r4, r5, r6, r8, fp, sp, lr}	; <UNPREDICTABLE>
     bc8:	756c636e 	strbvc	r6, [ip, #-878]!	; 0x36e
     bcc:	00006564 	andeq	r6, r0, r4, ror #10
     bd0:	61656c63 	cmnvs	r5, r3, ror #24
     bd4:	65722d6e 	ldrbvs	r2, [r2, #-3438]!	; 0xd6e
     bd8:	746f6f62 	strbtvc	r6, [pc], #-3938	; be0 <__code_start__-0x7420>
     bdc:	0100632e 	tsteq	r0, lr, lsr #6
     be0:	70720000 	rsbsvc	r0, r2, r0
     be4:	00682e69 	rsbeq	r2, r8, r9, ror #28
     be8:	00000002 	andeq	r0, r0, r2
     bec:	c0020500 	andgt	r0, r2, r0, lsl #10
     bf0:	15000098 	strne	r0, [r0, #-152]	; 0x98
     bf4:	4b832f2f 	blmi	fe0cc8b8 <__bss_end__+0xfe0c1da8>
     bf8:	01000602 	tsteq	r0, r2, lsl #12
     bfc:	0000a601 	andeq	sl, r0, r1, lsl #12
     c00:	80000200 	andhi	r0, r0, r0, lsl #4
     c04:	02000000 	andeq	r0, r0, #0
     c08:	0d0efb01 	vstreq	d15, [lr, #-4]
     c0c:	01010100 	mrseq	r0, (UNDEF: 17)
     c10:	00000001 	andeq	r0, r0, r1
     c14:	01000001 	tsteq	r0, r1
     c18:	66617473 			; <UNDEFINED> instruction: 0x66617473
     c1c:	72732d66 	rsbsvc	r2, r3, #6528	; 0x1980
     c20:	552f0063 	strpl	r0, [pc, #-99]!	; bc5 <__code_start__-0x743b>
     c24:	73726573 	cmnvc	r2, #482344960	; 0x1cc00000
     c28:	6972622f 	ldmdbvs	r2!, {r0, r1, r2, r3, r5, r9, sp, lr}^
     c2c:	756a6e61 	strbvc	r6, [sl, #-3681]!	; 0xe61
     c30:	65442f6e 	strbvs	r2, [r4, #-3950]	; 0xf6e
     c34:	6f746b73 	svcvs	0x00746b73
     c38:	63732f70 	cmnvs	r3, #112, 30	; 0x1c0
     c3c:	6c6f6f68 	stclvs	15, cr6, [pc], #-416	; aa4 <__code_start__-0x755c>
     c40:	7270532f 	rsbsvc	r5, r0, #-1140850688	; 0xbc000000
     c44:	31676e69 	cmncc	r7, r9, ror #28
     c48:	2f303239 	svccs	0x00303239
     c4c:	34325343 	ldrtcc	r5, [r2], #-835	; 0x343
     c50:	2f584c30 	svccs	0x00584c30
     c54:	34327363 	ldrtcc	r7, [r2], #-867	; 0x363
     c58:	2d786c30 	ldclcs	12, cr6, [r8, #-192]!	; 0xffffff40
     c5c:	70733032 	rsbsvc	r3, r3, r2, lsr r0
     c60:	696c2f72 	stmdbvs	ip!, {r1, r4, r5, r6, r8, r9, sl, fp, sp}^
     c64:	2f697062 	svccs	0x00697062
     c68:	6c636e69 	stclvs	14, cr6, [r3], #-420	; 0xfffffe5c
     c6c:	00656475 	rsbeq	r6, r5, r5, ror r4
     c70:	74736300 	ldrbtvc	r6, [r3], #-768	; 0x300
     c74:	2e747261 	cdpcs	2, 7, cr7, cr4, cr1, {3}
     c78:	00010063 	andeq	r0, r1, r3, rrx
     c7c:	69707200 	ldmdbvs	r0!, {r9, ip, sp, lr}^
     c80:	0200682e 	andeq	r6, r0, #3014656	; 0x2e0000
     c84:	00000000 	andeq	r0, r0, r0
     c88:	98ec0205 	stmials	ip!, {r0, r2, r9}^
     c8c:	0c030000 	stceq	0, cr0, [r3], {-0}
     c90:	2f313201 	svccs	0x00313201
     c94:	02002f2d 	andeq	r2, r0, #45, 30	; 0xb4
     c98:	03490104 	movteq	r0, #37124	; 0x9104
     c9c:	0d034a09 	vstreq	s8, [r3, #-36]	; 0xffffffdc
     ca0:	06022f2e 	streq	r2, [r2], -lr, lsr #30
     ca4:	a2010100 	andge	r0, r1, #0, 2
     ca8:	02000000 	andeq	r0, r0, #0
     cac:	00008e00 	andeq	r8, r0, r0, lsl #28
     cb0:	fb010200 	blx	414ba <__bss_end__+0x369aa>
     cb4:	01000d0e 	tsteq	r0, lr, lsl #26
     cb8:	00010101 	andeq	r0, r1, r1, lsl #2
     cbc:	00010000 	andeq	r0, r1, r0
     cc0:	74730100 	ldrbtvc	r0, [r3], #-256	; 0x100
     cc4:	2d666661 	stclcs	6, cr6, [r6, #-388]!	; 0xfffffe7c
     cc8:	00637273 	rsbeq	r7, r3, r3, ror r2
     ccc:	6573552f 	ldrbvs	r5, [r3, #-1327]!	; 0x52f
     cd0:	622f7372 	eorvs	r7, pc, #-939524095	; 0xc8000001
     cd4:	6e616972 	mcrvs	9, 3, r6, cr1, cr2, {3}
     cd8:	2f6e756a 	svccs	0x006e756a
     cdc:	6b736544 	blvs	1cda1f4 <__bss_end__+0x1ccf6e4>
     ce0:	2f706f74 	svccs	0x00706f74
     ce4:	6f686373 	svcvs	0x00686373
     ce8:	532f6c6f 	teqpl	pc, #28416	; 0x6f00
     cec:	6e697270 	mcrvs	2, 3, r7, cr9, cr0, {3}
     cf0:	32393167 	eorscc	r3, r9, #-1073741799	; 0xc0000019
     cf4:	53432f30 	movtpl	r2, #16176	; 0x3f30
     cf8:	4c303432 	cfldrsmi	mvf3, [r0], #-200	; 0xffffff38
     cfc:	73632f58 	cmnvc	r3, #88, 30	; 0x160
     d00:	6c303432 	cfldrsvs	mvf3, [r0], #-200	; 0xffffff38
     d04:	30322d78 	eorscc	r2, r2, r8, ror sp
     d08:	2f727073 	svccs	0x00727073
     d0c:	7062696c 	rsbvc	r6, r2, ip, ror #18
     d10:	6e692f69 	cdpvs	15, 6, cr2, cr9, cr9, {3}
     d14:	64756c63 	ldrbtvs	r6, [r5], #-3171	; 0xc63
     d18:	64000065 	strvs	r0, [r0], #-101	; 0x65
     d1c:	75616665 	strbvc	r6, [r1, #-1637]!	; 0x665
     d20:	682d746c 	stmdavs	sp!, {r2, r3, r5, r6, sl, ip, sp, lr}
     d24:	6c646e61 	stclvs	14, cr6, [r4], #-388	; 0xfffffe7c
     d28:	662d7265 	strtvs	r7, [sp], -r5, ror #4
     d2c:	2e747361 	cdpcs	3, 7, cr7, cr4, cr1, {3}
     d30:	00010063 	andeq	r0, r1, r3, rrx
     d34:	69707200 	ldmdbvs	r0!, {r9, ip, sp, lr}^
     d38:	0200682e 	andeq	r6, r0, #3014656	; 0x2e0000
     d3c:	00000000 	andeq	r0, r0, r0
     d40:	99240205 	stmdbls	r4!, {r0, r2, r9}
     d44:	66130000 	ldrvs	r0, [r3], -r0
     d48:	01001c02 	tsteq	r0, r2, lsl #24
     d4c:	0000a301 	andeq	sl, r0, r1, lsl #6
     d50:	8f000200 	svchi	0x00000200
     d54:	02000000 	andeq	r0, r0, #0
     d58:	0d0efb01 	vstreq	d15, [lr, #-4]
     d5c:	01010100 	mrseq	r0, (UNDEF: 17)
     d60:	00000001 	andeq	r0, r0, r1
     d64:	01000001 	tsteq	r0, r1
     d68:	66617473 			; <UNDEFINED> instruction: 0x66617473
     d6c:	72732d66 	rsbsvc	r2, r3, #6528	; 0x1980
     d70:	552f0063 	strpl	r0, [pc, #-99]!	; d15 <__code_start__-0x72eb>
     d74:	73726573 	cmnvc	r2, #482344960	; 0x1cc00000
     d78:	6972622f 	ldmdbvs	r2!, {r0, r1, r2, r3, r5, r9, sp, lr}^
     d7c:	756a6e61 	strbvc	r6, [sl, #-3681]!	; 0xe61
     d80:	65442f6e 	strbvs	r2, [r4, #-3950]	; 0xf6e
     d84:	6f746b73 	svcvs	0x00746b73
     d88:	63732f70 	cmnvs	r3, #112, 30	; 0x1c0
     d8c:	6c6f6f68 	stclvs	15, cr6, [pc], #-416	; bf4 <__code_start__-0x740c>
     d90:	7270532f 	rsbsvc	r5, r0, #-1140850688	; 0xbc000000
     d94:	31676e69 	cmncc	r7, r9, ror #28
     d98:	2f303239 	svccs	0x00303239
     d9c:	34325343 	ldrtcc	r5, [r2], #-835	; 0x343
     da0:	2f584c30 	svccs	0x00584c30
     da4:	34327363 	ldrtcc	r7, [r2], #-867	; 0x363
     da8:	2d786c30 	ldclcs	12, cr6, [r8, #-192]!	; 0xffffff40
     dac:	70733032 	rsbsvc	r3, r3, r2, lsr r0
     db0:	696c2f72 	stmdbvs	ip!, {r1, r4, r5, r6, r8, r9, sl, fp, sp}^
     db4:	2f697062 	svccs	0x00697062
     db8:	6c636e69 	stclvs	14, cr6, [r3], #-420	; 0xfffffe5c
     dbc:	00656475 	rsbeq	r6, r5, r5, ror r4
     dc0:	66656400 	strbtvs	r6, [r5], -r0, lsl #8
     dc4:	746c7561 	strbtvc	r7, [ip], #-1377	; 0x561
     dc8:	6e61682d 	cdpvs	8, 6, cr6, cr1, cr13, {1}
     dcc:	72656c64 	rsbvc	r6, r5, #100, 24	; 0x6400
     dd0:	7365722d 	cmnvc	r5, #-805306366	; 0xd0000002
     dd4:	632e7465 	teqvs	lr, #1694498816	; 0x65000000
     dd8:	00000100 	andeq	r0, r0, r0, lsl #2
     ddc:	2e697072 	mcrcs	0, 3, r7, cr9, cr2, {3}
     de0:	00020068 	andeq	r0, r2, r8, rrx
     de4:	05000000 	streq	r0, [r0, #-0]
     de8:	00996802 	addseq	r6, r9, r2, lsl #16
     dec:	02661300 	rsbeq	r1, r6, #0, 6
     df0:	0101001c 	tsteq	r1, ip, lsl r0
     df4:	000000ac 	andeq	r0, r0, ip, lsr #1
     df8:	00980002 	addseq	r0, r8, r2
     dfc:	01020000 	mrseq	r0, (UNDEF: 2)
     e00:	000d0efb 	strdeq	r0, [sp], -fp
     e04:	01010101 	tsteq	r1, r1, lsl #2
     e08:	01000000 	mrseq	r0, (UNDEF: 0)
     e0c:	73010000 	movwvc	r0, #4096	; 0x1000
     e10:	66666174 			; <UNDEFINED> instruction: 0x66666174
     e14:	6372732d 	cmnvs	r2, #-1275068416	; 0xb4000000
     e18:	73552f00 	cmpvc	r5, #0, 30
     e1c:	2f737265 	svccs	0x00737265
     e20:	61697262 	cmnvs	r9, r2, ror #4
     e24:	6e756a6e 	vsubvs.f32	s13, s10, s29
     e28:	7365442f 	cmnvc	r5, #788529152	; 0x2f000000
     e2c:	706f746b 	rsbvc	r7, pc, fp, ror #8
     e30:	6863732f 	stmdavs	r3!, {r0, r1, r2, r3, r5, r8, r9, ip, sp, lr}^
     e34:	2f6c6f6f 	svccs	0x006c6f6f
     e38:	69727053 	ldmdbvs	r2!, {r0, r1, r4, r6, ip, sp, lr}^
     e3c:	3931676e 	ldmdbcc	r1!, {r1, r2, r3, r5, r6, r8, r9, sl, sp, lr}
     e40:	432f3032 	teqmi	pc, #50	; 0x32
     e44:	30343253 	eorscc	r3, r4, r3, asr r2
     e48:	632f584c 	teqvs	pc, #76, 16	; 0x4c0000
     e4c:	30343273 	eorscc	r3, r4, r3, ror r2
     e50:	322d786c 	eorcc	r7, sp, #108, 16	; 0x6c0000
     e54:	72707330 	rsbsvc	r7, r0, #48, 6	; 0xc0000000
     e58:	62696c2f 	rsbvs	r6, r9, #12032	; 0x2f00
     e5c:	692f6970 	stmdbvs	pc!, {r4, r5, r6, r8, fp, sp, lr}	; <UNPREDICTABLE>
     e60:	756c636e 	strbvc	r6, [ip, #-878]!	; 0x36e
     e64:	00006564 	andeq	r6, r0, r4, ror #10
     e68:	61666564 	cmnvs	r6, r4, ror #10
     e6c:	2d746c75 	ldclcs	12, cr6, [r4, #-468]!	; 0xfffffe2c
     e70:	646e6168 	strbtvs	r6, [lr], #-360	; 0x168
     e74:	2d72656c 	cfldr64cs	mvdx6, [r2, #-432]!	; 0xfffffe50
     e78:	65646e75 	strbvs	r6, [r4, #-3701]!	; 0xe75
     e7c:	656e6966 	strbvs	r6, [lr, #-2406]!	; 0x966
     e80:	6e692d64 	cdpvs	13, 6, cr2, cr9, cr4, {3}
     e84:	632e7473 	teqvs	lr, #1929379840	; 0x73000000
     e88:	00000100 	andeq	r0, r0, r0, lsl #2
     e8c:	2e697072 	mcrcs	0, 3, r7, cr9, cr2, {3}
     e90:	00020068 	andeq	r0, r2, r8, rrx
     e94:	05000000 	streq	r0, [r0, #-0]
     e98:	0099ac02 	addseq	sl, r9, r2, lsl #24
     e9c:	02661300 	rsbeq	r1, r6, #0, 6
     ea0:	0101001c 	tsteq	r1, ip, lsl r0
     ea4:	00000047 	andeq	r0, r0, r7, asr #32
     ea8:	00330002 	eorseq	r0, r3, r2
     eac:	01020000 	mrseq	r0, (UNDEF: 2)
     eb0:	000d0efb 	strdeq	r0, [sp], -fp
     eb4:	01010101 	tsteq	r1, r1, lsl #2
     eb8:	01000000 	mrseq	r0, (UNDEF: 0)
     ebc:	73010000 	movwvc	r0, #4096	; 0x1000
     ec0:	66666174 			; <UNDEFINED> instruction: 0x66666174
     ec4:	6372732d 	cmnvs	r2, #-1275068416	; 0xb4000000
     ec8:	65640000 	strbvs	r0, [r4, #-0]!
     ecc:	6c756166 	ldfvse	f6, [r5], #-408	; 0xfffffe68
     ed0:	61682d74 	smcvs	33492	; 0x82d4
     ed4:	656c646e 	strbvs	r6, [ip, #-1134]!	; 0x46e
     ed8:	632e7372 	teqvs	lr, #-939524095	; 0xc8000001
     edc:	00000100 	andeq	r0, r0, r0, lsl #2
     ee0:	02050000 	andeq	r0, r5, #0
     ee4:	000099f0 	strdeq	r9, [r0], -r0
     ee8:	02022f15 	andeq	r2, r2, #21, 30	; 0x54
     eec:	c9010100 	stmdbgt	r1, {r8}
     ef0:	02000000 	andeq	r0, r0, #0
     ef4:	00009a00 	andeq	r9, r0, r0, lsl #20
     ef8:	fb010200 	blx	41702 <__bss_end__+0x36bf2>
     efc:	01000d0e 	tsteq	r0, lr, lsl #26
     f00:	00010101 	andeq	r0, r1, r1, lsl #2
     f04:	00010000 	andeq	r0, r1, r0
     f08:	74730100 	ldrbtvc	r0, [r3], #-256	; 0x100
     f0c:	2d666661 	stclcs	6, cr6, [r6, #-388]!	; 0xfffffe7c
     f10:	00637273 	rsbeq	r7, r3, r3, ror r2
     f14:	6573552f 	ldrbvs	r5, [r3, #-1327]!	; 0x52f
     f18:	622f7372 	eorvs	r7, pc, #-939524095	; 0xc8000001
     f1c:	6e616972 	mcrvs	9, 3, r6, cr1, cr2, {3}
     f20:	2f6e756a 	svccs	0x006e756a
     f24:	6b736544 	blvs	1cda43c <__bss_end__+0x1ccf92c>
     f28:	2f706f74 	svccs	0x00706f74
     f2c:	6f686373 	svcvs	0x00686373
     f30:	532f6c6f 	teqpl	pc, #28416	; 0x6f00
     f34:	6e697270 	mcrvs	2, 3, r7, cr9, cr0, {3}
     f38:	32393167 	eorscc	r3, r9, #-1073741799	; 0xc0000019
     f3c:	53432f30 	movtpl	r2, #16176	; 0x3f30
     f40:	4c303432 	cfldrsmi	mvf3, [r0], #-200	; 0xffffff38
     f44:	73632f58 	cmnvc	r3, #88, 30	; 0x160
     f48:	6c303432 	cfldrsvs	mvf3, [r0], #-200	; 0xffffff38
     f4c:	30322d78 	eorscc	r2, r2, r8, ror sp
     f50:	2f727073 	svccs	0x00727073
     f54:	7062696c 	rsbvc	r6, r2, ip, ror #18
     f58:	6e692f69 	cdpvs	15, 6, cr2, cr9, cr9, {3}
     f5c:	64756c63 	ldrbtvs	r6, [r5], #-3171	; 0xc63
     f60:	69000065 	stmdbvs	r0, {r0, r2, r5, r6}
     f64:	7265746e 	rsbvc	r7, r5, #1845493760	; 0x6e000000
     f68:	74707572 	ldrbtvc	r7, [r0], #-1394	; 0x572
     f6c:	2e632d73 	mcrcs	13, 3, r2, cr3, cr3, {3}
     f70:	00010063 	andeq	r0, r1, r3, rrx
     f74:	69707200 	ldmdbvs	r0!, {r9, ip, sp, lr}^
     f78:	746e692d 	strbtvc	r6, [lr], #-2349	; 0x92d
     f7c:	75727265 	ldrbvc	r7, [r2, #-613]!	; 0x265
     f80:	2e737470 	mrccs	4, 3, r7, cr3, cr0, {3}
     f84:	00020068 	andeq	r0, r2, r8, rrx
     f88:	69707200 	ldmdbvs	r0!, {r9, ip, sp, lr}^
     f8c:	0200682e 	andeq	r6, r0, #3014656	; 0x2e0000
     f90:	00000000 	andeq	r0, r0, r0
     f94:	99f80205 	ldmibls	r8!, {r0, r2, r9}^
     f98:	1a030000 	bne	c0fa0 <__bss_end__+0xb6490>
     f9c:	672f3101 	strvs	r3, [pc, -r1, lsl #2]!
     fa0:	2f833667 	svccs	0x00833667
     fa4:	0402002d 	streq	r0, [r2], #-45	; 0x2d
     fa8:	02002f02 	andeq	r2, r0, #2, 30
     fac:	00650204 	rsbeq	r0, r5, r4, lsl #4
     fb0:	06010402 	streq	r0, [r1], -r2, lsl #8
     fb4:	024c062e 	subeq	r0, ip, #48234496	; 0x2e00000
     fb8:	0101000a 	tsteq	r1, sl
     fbc:	000000a2 	andeq	r0, r0, r2, lsr #1
     fc0:	00800002 	addeq	r0, r0, r2
     fc4:	01020000 	mrseq	r0, (UNDEF: 2)
     fc8:	000d0efb 	strdeq	r0, [sp], -fp
     fcc:	01010101 	tsteq	r1, r1, lsl #2
     fd0:	01000000 	mrseq	r0, (UNDEF: 0)
     fd4:	73010000 	movwvc	r0, #4096	; 0x1000
     fd8:	66666174 			; <UNDEFINED> instruction: 0x66666174
     fdc:	6372732d 	cmnvs	r2, #-1275068416	; 0xb4000000
     fe0:	73552f00 	cmpvc	r5, #0, 30
     fe4:	2f737265 	svccs	0x00737265
     fe8:	61697262 	cmnvs	r9, r2, ror #4
     fec:	6e756a6e 	vsubvs.f32	s13, s10, s29
     ff0:	7365442f 	cmnvc	r5, #788529152	; 0x2f000000
     ff4:	706f746b 	rsbvc	r7, pc, fp, ror #8
     ff8:	6863732f 	stmdavs	r3!, {r0, r1, r2, r3, r5, r8, r9, ip, sp, lr}^
     ffc:	2f6c6f6f 	svccs	0x006c6f6f
    1000:	69727053 	ldmdbvs	r2!, {r0, r1, r4, r6, ip, sp, lr}^
    1004:	3931676e 	ldmdbcc	r1!, {r1, r2, r3, r5, r6, r8, r9, sl, sp, lr}
    1008:	432f3032 	teqmi	pc, #50	; 0x32
    100c:	30343253 	eorscc	r3, r4, r3, asr r2
    1010:	632f584c 	teqvs	pc, #76, 16	; 0x4c0000
    1014:	30343273 	eorscc	r3, r4, r3, ror r2
    1018:	322d786c 	eorcc	r7, sp, #108, 16	; 0x6c0000
    101c:	72707330 	rsbsvc	r7, r0, #48, 6	; 0xc0000000
    1020:	62696c2f 	rsbvs	r6, r9, #12032	; 0x2f00
    1024:	692f6970 	stmdbvs	pc!, {r4, r5, r6, r8, fp, sp, lr}	; <UNPREDICTABLE>
    1028:	756c636e 	strbvc	r6, [ip, #-878]!	; 0x36e
    102c:	00006564 	andeq	r6, r0, r4, ror #10
    1030:	6f626572 	svcvs	0x00626572
    1034:	632e746f 	teqvs	lr, #1862270976	; 0x6f000000
    1038:	00000100 	andeq	r0, r0, r0, lsl #2
    103c:	2e697072 	mcrcs	0, 3, r7, cr9, cr2, {3}
    1040:	00020068 	andeq	r0, r2, r8, rrx
    1044:	05000000 	streq	r0, [r0, #-0]
    1048:	009a6402 	addseq	r6, sl, r2, lsl #8
    104c:	010d0300 	mrseq	r0, SP_mon
    1050:	852f3114 	strhi	r3, [pc, #-276]!	; f44 <__code_start__-0x70bc>
    1054:	4d4b2f15 	stclmi	15, cr2, [fp, #-84]	; 0xffffffac
    1058:	5235672f 	eorspl	r6, r5, #12320768	; 0xbc0000
    105c:	00100267 	andseq	r0, r0, r7, ror #4
    1060:	00ae0101 	adceq	r0, lr, r1, lsl #2
    1064:	00020000 	andeq	r0, r2, r0
    1068:	0000007f 	andeq	r0, r0, pc, ror r0
    106c:	0efb0102 	cdpeq	1, 15, cr0, cr11, cr2, {0}
    1070:	0101000d 	tsteq	r1, sp
    1074:	00000101 	andeq	r0, r0, r1, lsl #2
    1078:	00000100 	andeq	r0, r0, r0, lsl #2
    107c:	61747301 	cmnvs	r4, r1, lsl #6
    1080:	732d6666 	teqvc	sp, #106954752	; 0x6600000
    1084:	2f006372 	svccs	0x00006372
    1088:	72657355 	rsbvc	r7, r5, #1409286145	; 0x54000001
    108c:	72622f73 	rsbvc	r2, r2, #460	; 0x1cc
    1090:	6a6e6169 	bvs	1b9963c <__bss_end__+0x1b8eb2c>
    1094:	442f6e75 	strtmi	r6, [pc], #-3701	; 109c <__code_start__-0x6f64>
    1098:	746b7365 	strbtvc	r7, [fp], #-869	; 0x365
    109c:	732f706f 	teqvc	pc, #111	; 0x6f
    10a0:	6f6f6863 	svcvs	0x006f6863
    10a4:	70532f6c 	subsvc	r2, r3, ip, ror #30
    10a8:	676e6972 			; <UNDEFINED> instruction: 0x676e6972
    10ac:	30323931 	eorscc	r3, r2, r1, lsr r9
    10b0:	3253432f 	subscc	r4, r3, #-1140850688	; 0xbc000000
    10b4:	584c3034 	stmdapl	ip, {r2, r4, r5, ip, sp}^
    10b8:	3273632f 	rsbscc	r6, r3, #-1140850688	; 0xbc000000
    10bc:	786c3034 	stmdavc	ip!, {r2, r4, r5, ip, sp}^
    10c0:	7330322d 	teqvc	r0, #-805306366	; 0xd0000002
    10c4:	6c2f7270 	sfmvs	f7, 4, [pc], #-448	; f0c <__code_start__-0x70f4>
    10c8:	69706269 	ldmdbvs	r0!, {r0, r3, r5, r6, r9, sp, lr}^
    10cc:	636e692f 	cmnvs	lr, #770048	; 0xbc000
    10d0:	6564756c 	strbvs	r7, [r4, #-1388]!	; 0x56c
    10d4:	69740000 	ldmdbvs	r4!, {}^	; <UNPREDICTABLE>
    10d8:	2e72656d 	cdpcs	5, 7, cr6, cr2, cr13, {3}
    10dc:	00010063 	andeq	r0, r1, r3, rrx
    10e0:	69707200 	ldmdbvs	r0!, {r9, ip, sp, lr}^
    10e4:	0200682e 	andeq	r6, r0, #3014656	; 0x2e0000
    10e8:	00000000 	andeq	r0, r0, r0
    10ec:	9ad80205 	bls	ff601908 <__bss_end__+0xff5f6df8>
    10f0:	14160000 	ldrne	r0, [r6], #-0
    10f4:	02002d2f 	andeq	r2, r0, #3008	; 0xbc0
    10f8:	2e060104 	adfcss	f0, f6, f4
    10fc:	2f316d06 	svccs	0x00316d06
    1100:	2f314d4b 	svccs	0x00314d4b
    1104:	4b4c304b 	blmi	130d238 <__bss_end__+0x1302728>
    1108:	2f6a2f4c 	svccs	0x006a2f4c
    110c:	022f842f 	eoreq	r8, pc, #788529152	; 0x2f000000
    1110:	01010008 	tsteq	r1, r8
    1114:	00000148 	andeq	r0, r0, r8, asr #2
    1118:	01020002 	tsteq	r2, r2
    111c:	01020000 	mrseq	r0, (UNDEF: 2)
    1120:	000d0efb 	strdeq	r0, [sp], -fp
    1124:	01010101 	tsteq	r1, r1, lsl #2
    1128:	01000000 	mrseq	r0, (UNDEF: 0)
    112c:	2f010000 	svccs	0x00010000
    1130:	2f727375 	svccs	0x00727375
    1134:	6c636e69 	stclvs	14, cr6, [r3], #-420	; 0xfffffe5c
    1138:	2f656475 	svccs	0x00656475
    113c:	6c77656e 	cfldr64vs	mvdx6, [r7], #-440	; 0xfffffe48
    1140:	732f6269 	teqvc	pc, #-1879048186	; 0x90000006
    1144:	2f007379 	svccs	0x00007379
    1148:	2f727375 	svccs	0x00727375
    114c:	2f62696c 	svccs	0x0062696c
    1150:	2f636367 	svccs	0x00636367
    1154:	2d6d7261 	sfmcs	f7, 2, [sp, #-388]!	; 0xfffffe7c
    1158:	656e6f6e 	strbvs	r6, [lr, #-3950]!	; 0xf6e
    115c:	6261652d 	rsbvs	r6, r1, #188743680	; 0xb400000
    1160:	2e362f69 	cdpcs	15, 3, cr2, cr6, cr9, {3}
    1164:	2f312e33 	svccs	0x00312e33
    1168:	6c636e69 	stclvs	14, cr6, [r3], #-420	; 0xfffffe5c
    116c:	00656475 	rsbeq	r6, r5, r5, ror r4
    1170:	6d6f682f 	stclvs	8, cr6, [pc, #-188]!	; 10bc <__code_start__-0x6f44>
    1174:	6e652f65 	cdpvs	15, 6, cr2, cr5, cr5, {3}
    1178:	72656c67 	rsbvc	r6, r5, #26368	; 0x6700
    117c:	616c632f 	cmnvs	ip, pc, lsr #6
    1180:	632f7373 	teqvs	pc, #-872415231	; 0xcc000001
    1184:	30343273 	eorscc	r3, r4, r3, ror r2
    1188:	322d786c 	eorcc	r7, sp, #108, 16	; 0x6c0000
    118c:	72707330 	rsbsvc	r7, r0, #48, 6	; 0xc0000000
    1190:	696c2f2f 	stmdbvs	ip!, {r0, r1, r2, r3, r5, r8, r9, sl, fp, sp}^
    1194:	00697062 	rsbeq	r7, r9, r2, rrx
    1198:	6d6f682f 	stclvs	8, cr6, [pc, #-188]!	; 10e4 <__code_start__-0x6f1c>
    119c:	6e652f65 	cdpvs	15, 6, cr2, cr5, cr5, {3}
    11a0:	72656c67 	rsbvc	r6, r5, #26368	; 0x6700
    11a4:	616c632f 	cmnvs	ip, pc, lsr #6
    11a8:	632f7373 	teqvs	pc, #-872415231	; 0xcc000001
    11ac:	30343273 	eorscc	r3, r4, r3, ror r2
    11b0:	322d786c 	eorcc	r7, sp, #108, 16	; 0x6c0000
    11b4:	72707330 	rsbsvc	r7, r0, #48, 6	; 0xc0000000
    11b8:	696c2f2f 	stmdbvs	ip!, {r0, r1, r2, r3, r5, r8, r9, sl, fp, sp}^
    11bc:	2f697062 	svccs	0x00697062
    11c0:	66617473 			; <UNDEFINED> instruction: 0x66617473
    11c4:	72732d66 	rsbsvc	r2, r3, #6528	; 0x1980
    11c8:	75000063 	strvc	r0, [r0, #-99]	; 0x63
    11cc:	2e747261 	cdpcs	2, 7, cr7, cr4, cr1, {3}
    11d0:	00000063 	andeq	r0, r0, r3, rrx
    11d4:	636f6c00 	cmnvs	pc, #0, 24
    11d8:	00682e6b 	rsbeq	r2, r8, fp, ror #28
    11dc:	5f000001 	svcpl	0x00000001
    11e0:	65707974 	ldrbvs	r7, [r0, #-2420]!	; 0x974
    11e4:	00682e73 	rsbeq	r2, r8, r3, ror lr
    11e8:	73000001 	movwvc	r0, #1
    11ec:	65646474 	strbvs	r6, [r4, #-1140]!	; 0x474
    11f0:	00682e66 	rsbeq	r2, r8, r6, ror #28
    11f4:	72000002 	andvc	r0, r0, #2
    11f8:	746e6565 	strbtvc	r6, [lr], #-1381	; 0x565
    11fc:	0100682e 	tsteq	r0, lr, lsr #16
    1200:	70720000 	rsbsvc	r0, r2, r0
    1204:	00682e69 	rsbeq	r2, r8, r9, ror #28
    1208:	75000003 	strvc	r0, [r0, #-3]
    120c:	2e747261 	cdpcs	2, 7, cr7, cr4, cr1, {3}
    1210:	00040068 	andeq	r0, r4, r8, rrx
    1214:	69706700 	ldmdbvs	r0!, {r8, r9, sl, sp, lr}^
    1218:	00682e6f 	rsbeq	r2, r8, pc, ror #28
    121c:	00000004 	andeq	r0, r0, r4
    1220:	d4020500 	strle	r0, [r2], #-1280	; 0x500
    1224:	0300009b 	movweq	r0, #155	; 0x9b
    1228:	0367012c 	cmneq	r7, #44, 2
    122c:	67359e0c 	ldrvs	r9, [r5, -ip, lsl #28]!
    1230:	03683568 	cmneq	r8, #104, 10	; 0x1a000000
    1234:	6b852e0c 	blvs	fe14ca6c <__bss_end__+0xfe141f5c>
    1238:	0c036969 	stceq	9, cr6, [r3], {105}	; 0x69
    123c:	08676b66 	stmdaeq	r7!, {r1, r2, r5, r6, r8, r9, fp, sp, lr}^
    1240:	4b683442 	blmi	1a0e350 <__bss_end__+0x1a03840>
    1244:	2f876836 	svccs	0x00876836
    1248:	01040200 	mrseq	r0, R12_usr
    124c:	3067682f 	rsbcc	r6, r7, pc, lsr #16
    1250:	02004b67 	andeq	r4, r0, #105472	; 0x19c00
    1254:	682f0104 	stmdavs	pc!, {r2, r8}	; <UNPREDICTABLE>
    1258:	022e6967 	eoreq	r6, lr, #1687552	; 0x19c000
    125c:	01010006 	tsteq	r1, r6
    1260:	0000012b 	andeq	r0, r0, fp, lsr #2
    1264:	00f80002 	rscseq	r0, r8, r2
    1268:	01020000 	mrseq	r0, (UNDEF: 2)
    126c:	000d0efb 	strdeq	r0, [sp], -fp
    1270:	01010101 	tsteq	r1, r1, lsl #2
    1274:	01000000 	mrseq	r0, (UNDEF: 0)
    1278:	2f010000 	svccs	0x00010000
    127c:	2f727375 	svccs	0x00727375
    1280:	6c636e69 	stclvs	14, cr6, [r3], #-420	; 0xfffffe5c
    1284:	2f656475 	svccs	0x00656475
    1288:	6c77656e 	cfldr64vs	mvdx6, [r7], #-440	; 0xfffffe48
    128c:	732f6269 	teqvc	pc, #-1879048186	; 0x90000006
    1290:	2f007379 	svccs	0x00007379
    1294:	2f727375 	svccs	0x00727375
    1298:	2f62696c 	svccs	0x0062696c
    129c:	2f636367 	svccs	0x00636367
    12a0:	2d6d7261 	sfmcs	f7, 2, [sp, #-388]!	; 0xfffffe7c
    12a4:	656e6f6e 	strbvs	r6, [lr, #-3950]!	; 0xf6e
    12a8:	6261652d 	rsbvs	r6, r1, #188743680	; 0xb400000
    12ac:	2e362f69 	cdpcs	15, 3, cr2, cr6, cr9, {3}
    12b0:	2f312e33 	svccs	0x00312e33
    12b4:	6c636e69 	stclvs	14, cr6, [r3], #-420	; 0xfffffe5c
    12b8:	00656475 	rsbeq	r6, r5, r5, ror r4
    12bc:	6d6f682f 	stclvs	8, cr6, [pc, #-188]!	; 1208 <__code_start__-0x6df8>
    12c0:	6e652f65 	cdpvs	15, 6, cr2, cr5, cr5, {3}
    12c4:	72656c67 	rsbvc	r6, r5, #26368	; 0x6700
    12c8:	616c632f 	cmnvs	ip, pc, lsr #6
    12cc:	632f7373 	teqvs	pc, #-872415231	; 0xcc000001
    12d0:	30343273 	eorscc	r3, r4, r3, ror r2
    12d4:	322d786c 	eorcc	r7, sp, #108, 16	; 0x6c0000
    12d8:	72707330 	rsbsvc	r7, r0, #48, 6	; 0xc0000000
    12dc:	696c2f2f 	stmdbvs	ip!, {r0, r1, r2, r3, r5, r8, r9, sl, fp, sp}^
    12e0:	00697062 	rsbeq	r7, r9, r2, rrx
    12e4:	6d6f682f 	stclvs	8, cr6, [pc, #-188]!	; 1230 <__code_start__-0x6dd0>
    12e8:	6e652f65 	cdpvs	15, 6, cr2, cr5, cr5, {3}
    12ec:	72656c67 	rsbvc	r6, r5, #26368	; 0x6700
    12f0:	616c632f 	cmnvs	ip, pc, lsr #6
    12f4:	632f7373 	teqvs	pc, #-872415231	; 0xcc000001
    12f8:	30343273 	eorscc	r3, r4, r3, ror r2
    12fc:	322d786c 	eorcc	r7, sp, #108, 16	; 0x6c0000
    1300:	72707330 	rsbsvc	r7, r0, #48, 6	; 0xc0000000
    1304:	696c2f2f 	stmdbvs	ip!, {r0, r1, r2, r3, r5, r8, r9, sl, fp, sp}^
    1308:	2f697062 	svccs	0x00697062
    130c:	66617473 			; <UNDEFINED> instruction: 0x66617473
    1310:	72732d66 	rsbsvc	r2, r3, #6528	; 0x1980
    1314:	67000063 	strvs	r0, [r0, -r3, rrx]
    1318:	2e6f6970 	mcrcs	9, 3, r6, cr15, cr0, {3}
    131c:	00000063 	andeq	r0, r0, r3, rrx
    1320:	636f6c00 	cmnvs	pc, #0, 24
    1324:	00682e6b 	rsbeq	r2, r8, fp, ror #28
    1328:	5f000001 	svcpl	0x00000001
    132c:	65707974 	ldrbvs	r7, [r0, #-2420]!	; 0x974
    1330:	00682e73 	rsbeq	r2, r8, r3, ror lr
    1334:	73000001 	movwvc	r0, #1
    1338:	65646474 	strbvs	r6, [r4, #-1140]!	; 0x474
    133c:	00682e66 	rsbeq	r2, r8, r6, ror #28
    1340:	72000002 	andvc	r0, r0, #2
    1344:	746e6565 	strbtvc	r6, [lr], #-1381	; 0x565
    1348:	0100682e 	tsteq	r0, lr, lsr #16
    134c:	70720000 	rsbsvc	r0, r2, r0
    1350:	00682e69 	rsbeq	r2, r8, r9, ror #28
    1354:	67000003 	strvs	r0, [r0, -r3]
    1358:	2e6f6970 	mcrcs	9, 3, r6, cr15, cr0, {3}
    135c:	00040068 	andeq	r0, r4, r8, rrx
    1360:	05000000 	streq	r0, [r0, #-0]
    1364:	009d4c02 	addseq	r4, sp, r2, lsl #24
    1368:	01270300 	teqeq	r7, r0, lsl #6
    136c:	4f474c13 	svcmi	0x00474c13
    1370:	4c4b68f4 	mcrrmi	8, 15, r6, fp, cr4
    1374:	136a2fa1 	cmnne	sl, #644	; 0x284
    1378:	13be3149 			; <UNDEFINED> instruction: 0x13be3149
    137c:	2fbe3149 	svccs	0x00be3149
    1380:	484d2f6a 	stmdami	sp, {r1, r3, r5, r6, r8, r9, sl, fp, sp}^
    1384:	3249134f 	subcc	r1, r9, #1006632961	; 0x3c000001
    1388:	0602b72f 	streq	fp, [r2], -pc, lsr #14
    138c:	Address 0x000000000000138c is out of bounds.


Disassembly of section .debug_str:

00000000 <.debug_str>:
   0:	6573552f 	ldrbvs	r5, [r3, #-1327]!	; 0x52f
   4:	622f7372 	eorvs	r7, pc, #-939524095	; 0xc8000001
   8:	6e616972 	mcrvs	9, 3, r6, cr1, cr2, {3}
   c:	2f6e756a 	svccs	0x006e756a
  10:	6b736544 	blvs	1cd9528 <__bss_end__+0x1ccea18>
  14:	2f706f74 	svccs	0x00706f74
  18:	6f686373 	svcvs	0x00686373
  1c:	532f6c6f 	teqpl	pc, #28416	; 0x6f00
  20:	6e697270 	mcrvs	2, 3, r7, cr9, cr0, {3}
  24:	32393167 	eorscc	r3, r9, #-1073741799	; 0xc0000019
  28:	53432f30 	movtpl	r2, #16176	; 0x3f30
  2c:	4c303432 	cfldrsmi	mvf3, [r0], #-200	; 0xffffff38
  30:	73632f58 	cmnvc	r3, #88, 30	; 0x160
  34:	6c303432 	cfldrsvs	mvf3, [r0], #-200	; 0xffffff38
  38:	30322d78 	eorscc	r2, r2, r8, ror sp
  3c:	2f727073 	svccs	0x00727073
  40:	7362616c 	cmnvc	r2, #108, 2
  44:	2d36312f 	ldfcss	f3, [r6, #-188]!	; 0xffffff44
  48:	676e6973 			; <UNDEFINED> instruction: 0x676e6973
  4c:	732d656c 	teqvc	sp, #108, 10	; 0x1b000000
  50:	2f706574 	svccs	0x00706574
  54:	65646f63 	strbvs	r6, [r4, #-3939]!	; 0xf63
  58:	73797300 	cmnvc	r9, #0, 6
  5c:	636f6c5f 	cmnvs	pc, #24320	; 0x5f00
  60:	72745f6b 	rsbsvc	r5, r4, #428	; 0x1ac
  64:	77730079 			; <UNDEFINED> instruction: 0x77730079
  68:	68637469 	stmdavs	r3!, {r0, r3, r5, r6, sl, ip, sp, lr}^
  6c:	6464615f 	strbtvs	r6, [r4], #-351	; 0x15f
  70:	6e690072 	mcrvs	0, 3, r0, cr9, cr2, {3}
  74:	635f7473 	cmpvs	pc, #1929379840	; 0x73000000
  78:	746e756f 	strbtvc	r7, [lr], #-1391	; 0x56f
  7c:	746f6e00 	strbtvc	r6, [pc], #-3584	; 84 <__code_start__-0x7f7c>
  80:	6e69616d 	powvsez	f6, f1, #5.0
  84:	6e6f6c00 	cdpvs	12, 6, cr6, cr15, cr0, {0}
  88:	6f6c2067 	svcvs	0x006c2067
  8c:	7520676e 	strvc	r6, [r0, #-1902]!	; 0x76e
  90:	6769736e 	strbvs	r7, [r9, -lr, ror #6]!
  94:	2064656e 	rsbcs	r6, r4, lr, ror #10
  98:	00746e69 	rsbseq	r6, r4, r9, ror #28
  9c:	676e6f6c 	strbvs	r6, [lr, -ip, ror #30]!
  a0:	6e6f6c20 	cdpvs	12, 6, cr6, cr15, cr0, {1}
  a4:	6e692067 	cdpvs	0, 6, cr2, cr9, cr7, {3}
  a8:	70630074 	rsbvc	r0, r3, r4, ror r0
  ac:	675f7273 			; <UNDEFINED> instruction: 0x675f7273
  b0:	63007465 	movwvs	r7, #1125	; 0x465
  b4:	415f746e 	cmpmi	pc, lr, ror #8
  b8:	746e6300 	strbtvc	r6, [lr], #-768	; 0x300
  bc:	7300425f 	movwvc	r4, #607	; 0x25f
  c0:	7370696b 	cmnvc	r0, #1753088	; 0x1ac000
  c4:	69707200 	ldmdbvs	r0!, {r9, ip, sp, lr}^
  c8:	7365725f 	cmnvc	r5, #-268435451	; 0xf0000005
  cc:	705f7465 	subsvc	r7, pc, r5, ror #8
  d0:	00637475 	rsbeq	r7, r3, r5, ror r4
  d4:	55465f5f 	strbpl	r5, [r6, #-3935]	; 0xf5f
  d8:	4954434e 	ldmdbmi	r4, {r1, r2, r3, r6, r8, r9, lr}^
  dc:	5f5f4e4f 	svcpl	0x005f4e4f
  e0:	6f687300 	svcvs	0x00687300
  e4:	75207472 	strvc	r7, [r0, #-1138]!	; 0x472
  e8:	6769736e 	strbvs	r7, [r9, -lr, ror #6]!
  ec:	2064656e 	rsbcs	r6, r4, lr, ror #10
  f0:	00746e69 	rsbseq	r6, r4, r9, ror #28
  f4:	5f737973 	svcpl	0x00737973
  f8:	5f797274 	svcpl	0x00797274
  fc:	6b636f6c 	blvs	18dbeb4 <__bss_end__+0x18d13a4>
 100:	6d73615f 	ldfvse	f6, [r3, #-380]!	; 0xfffffe84
 104:	656c6300 	strbvs	r6, [ip, #-768]!	; 0x300
 108:	725f6e61 	subsvc	r6, pc, #1552	; 0x610
 10c:	6f6f6265 	svcvs	0x006f6265
 110:	69730074 	ldmdbvs	r3!, {r2, r4, r5, r6}^
 114:	7974657a 	ldmdbvc	r4!, {r1, r3, r4, r5, r6, r8, sl, sp, lr}^
 118:	6d006570 	cfstr32vs	mvfx6, [r0, #-448]	; 0xfffffe40
 11c:	5f65646f 	svcpl	0x0065646f
 120:	00727473 	rsbseq	r7, r2, r3, ror r4
 124:	6972746e 	ldmdbvs	r2!, {r1, r2, r3, r5, r6, sl, ip, sp, lr}^
 128:	00736c61 	rsbseq	r6, r3, r1, ror #24
 12c:	5f746e63 	svcpl	0x00746e63
 130:	635f6b6d 	cmpvs	pc, #111616	; 0x1b400
 134:	6b636568 	blvs	18d96dc <__bss_end__+0x18cebcc>
 138:	74007265 	strvc	r7, [r0], #-613	; 0x265
 13c:	73747365 	cmnvc	r4, #-1811939327	; 0x94000001
 140:	2f302e32 	svccs	0x00302e32
 144:	702d3631 	eorvc	r3, sp, r1, lsr r6
 148:	32747261 	rsbscc	r7, r4, #268435462	; 0x10000006
 14c:	7365742d 	cmnvc	r5, #754974720	; 0x2d000000
 150:	632e3974 	teqvs	lr, #116, 18	; 0x1d0000
 154:	73797300 	cmnvc	r9, #0, 6
 158:	636f6c5f 	cmnvs	pc, #24320	; 0x5f00
 15c:	6e695f6b 	cdpvs	15, 6, cr5, cr9, cr11, {3}
 160:	63007469 	movwvs	r7, #1129	; 0x469
 164:	6b636568 	blvs	18d970c <__bss_end__+0x18cebfc>
 168:	745f7265 	ldrbvc	r7, [pc], #-613	; 170 <__code_start__-0x7e90>
 16c:	736e7500 	cmnvc	lr, #0, 10
 170:	656e6769 	strbvs	r6, [lr, #-1897]!	; 0x769
 174:	68632064 	stmdavs	r3!, {r2, r5, r6, sp}^
 178:	62007261 	andvs	r7, r0, #268435462	; 0x10000006
 17c:	765f6b72 			; <UNDEFINED> instruction: 0x765f6b72
 180:	6f627265 	svcvs	0x00627265
 184:	705f6573 	subsvc	r6, pc, r3, ror r5	; <UNPREDICTABLE>
 188:	74696200 	strbtvc	r6, [r9], #-512	; 0x200
 18c:	65675f73 	strbvs	r5, [r7, #-3955]!	; 0xf73
 190:	68730074 	ldmdavs	r3!, {r2, r4, r5, r6}^
 194:	2074726f 	rsbscs	r7, r4, pc, ror #4
 198:	00746e69 	rsbseq	r6, r4, r9, ror #28
 19c:	72737063 	rsbsvc	r7, r3, #99	; 0x63
 1a0:	746e6900 	strbtvc	r6, [lr], #-2304	; 0x900
 1a4:	656c7265 	strbvs	r7, [ip, #-613]!	; 0x265
 1a8:	6e697661 	cdpvs	6, 6, cr7, cr9, cr1, {3}
 1ac:	00705f67 	rsbseq	r5, r0, r7, ror #30
 1b0:	65646f6d 	strbvs	r6, [r4, #-3949]!	; 0xf6d
 1b4:	67656c5f 			; <UNDEFINED> instruction: 0x67656c5f
 1b8:	6d006c61 	stcvs	12, cr6, [r0, #-388]	; 0xfffffe7c
 1bc:	5f65646f 	svcpl	0x0065646f
 1c0:	00746567 	rsbseq	r6, r4, r7, ror #10
 1c4:	746e6975 	strbtvc	r6, [lr], #-2421	; 0x975
 1c8:	745f3233 	ldrbvc	r3, [pc], #-563	; 1d0 <__code_start__-0x7e30>
 1cc:	646f6d00 	strbtvs	r6, [pc], #-3328	; 1d4 <__code_start__-0x7e2c>
 1d0:	656e0065 	strbvs	r0, [lr, #-101]!	; 0x65
 1d4:	726f7272 	rsbvc	r7, pc, #536870919	; 0x20000007
 1d8:	6e630073 	mcrvs	0, 3, r0, cr3, cr3, {3}
 1dc:	6e695f74 	mcrvs	15, 3, r5, cr9, cr4, {3}
 1e0:	63007469 	movwvs	r7, #1129	; 0x469
 1e4:	635f746e 	cmpvs	pc, #1845493760	; 0x6e000000
 1e8:	6b636568 	blvs	18d9790 <__bss_end__+0x18cec80>
 1ec:	616e6500 	cmnvs	lr, r0, lsl #10
 1f0:	5f656c62 	svcpl	0x00656c62
 1f4:	68636163 	stmdavs	r3!, {r0, r1, r5, r6, r8, sp, lr}^
 1f8:	4e470065 	cdpmi	0, 4, cr0, cr7, cr5, {3}
 1fc:	20432055 	subcs	r2, r3, r5, asr r0
 200:	2e382e34 	mrccs	14, 1, r2, cr8, cr4, {1}
 204:	6d2d2033 	stcvs	0, cr2, [sp, #-204]!	; 0xffffff34
 208:	3d757063 	ldclcc	0, cr7, [r5, #-396]!	; 0xfffffe74
 20c:	316d7261 	cmncc	sp, r1, ror #4
 210:	6a363731 	bvs	d8dedc <__bss_end__+0xd833cc>
 214:	732d667a 	teqvc	sp, #127926272	; 0x7a00000
 218:	746d2d20 	strbtvc	r2, [sp], #-3360	; 0xd20
 21c:	3d656e75 	stclcc	14, cr6, [r5, #-468]!	; 0xfffffe2c
 220:	316d7261 	cmncc	sp, r1, ror #4
 224:	6a363731 	bvs	d8def0 <__bss_end__+0xd833e0>
 228:	732d667a 	teqvc	sp, #127926272	; 0x7a00000
 22c:	67672d20 	strbvs	r2, [r7, -r0, lsr #26]!
 230:	2d206264 	sfmcs	f6, 4, [r0, #-400]!	; 0xfffffe70
 234:	2d20674f 	stccs	7, cr6, [r0, #-316]!	; 0xfffffec4
 238:	3d647473 	cfstrdcc	mvd7, [r4, #-460]!	; 0xfffffe34
 23c:	39756e67 	ldmdbcc	r5!, {r0, r1, r2, r5, r6, r9, sl, fp, sp, lr}^
 240:	662d2039 			; <UNDEFINED> instruction: 0x662d2039
 244:	65657266 	strbvs	r7, [r5, #-614]!	; 0x266
 248:	6e617473 	mcrvs	4, 3, r7, cr1, cr3, {3}
 24c:	676e6964 	strbvs	r6, [lr, -r4, ror #18]!
 250:	6e662d20 	cdpvs	13, 6, cr2, cr6, cr0, {1}
 254:	6f742d6f 	svcvs	0x00742d6f
 258:	76656c70 			; <UNDEFINED> instruction: 0x76656c70
 25c:	722d6c65 	eorvc	r6, sp, #25856	; 0x6500
 260:	64726f65 	ldrbtvs	r6, [r2], #-3941	; 0xf65
 264:	73007265 	movwvc	r7, #613	; 0x265
 268:	755f7379 	ldrbvc	r7, [pc, #-889]	; fffffef7 <__bss_end__+0xffff53e7>
 26c:	636f6c6e 	cmnvs	pc, #28160	; 0x6e00
 270:	6970006b 	ldmdbvs	r0!, {r0, r1, r3, r5, r6}^
 274:	636f6c5f 	cmnvs	pc, #24320	; 0x5f00
 278:	00745f6b 	rsbseq	r5, r4, fp, ror #30
 27c:	74697773 	strbtvc	r7, [r9], #-1907	; 0x773
 280:	6f5f6863 	svcvs	0x005f6863
 284:	6e695f6e 	cdpvs	15, 6, cr5, cr9, cr14, {3}
 288:	6e5f7473 	mrcvs	4, 2, r7, cr15, cr3, {3}
 28c:	77736e00 	ldrbvc	r6, [r3, -r0, lsl #28]!
 290:	68637469 	stmdavs	r3!, {r0, r3, r5, r6, sl, ip, sp, lr}^
 294:	73007365 	movwvc	r7, #869	; 0x365
 298:	63746977 	cmnvs	r4, #1949696	; 0x1dc000
 29c:	5f646568 	svcpl	0x00646568
 2a0:	6e690070 	mcrvs	0, 3, r0, cr9, cr0, {3}
 2a4:	6e695f74 	mcrvs	15, 3, r5, cr9, cr4, {3}
 2a8:	64007469 	strvs	r7, [r0], #-1129	; 0x469
 2ac:	5f617461 	svcpl	0x00617461
 2b0:	726f6261 	rsbvc	r6, pc, #268435462	; 0x10000006
 2b4:	65765f74 	ldrbvs	r5, [r6, #-3956]!	; 0xf74
 2b8:	726f7463 	rsbvc	r7, pc, #1660944384	; 0x63000000
 2bc:	65727000 	ldrbvs	r7, [r2, #-0]!
 2c0:	63746566 	cmnvs	r4, #427819008	; 0x19800000
 2c4:	62615f68 	rsbvs	r5, r1, #104, 30	; 0x1a0
 2c8:	5f74726f 	svcpl	0x0074726f
 2cc:	74636576 	strbtvc	r6, [r3], #-1398	; 0x576
 2d0:	7700726f 	strvc	r7, [r0, -pc, ror #4]
 2d4:	645f7361 	ldrbvs	r7, [pc], #-865	; 2dc <__code_start__-0x7d24>
 2d8:	67756265 	ldrbvs	r6, [r5, -r5, ror #4]!
 2dc:	7461645f 	strbtvc	r6, [r1], #-1119	; 0x45f
 2e0:	75616661 	strbvc	r6, [r1, #-1633]!	; 0x661
 2e4:	6300746c 	movwvs	r7, #1132	; 0x46c
 2e8:	2d343170 	ldfcss	f3, [r4, #-448]!	; 0xfffffe40
 2ec:	75626564 	strbvc	r6, [r2, #-1380]!	; 0x564
 2f0:	00632e67 	rsbeq	r2, r3, r7, ror #28
 2f4:	5f736177 	svcpl	0x00736177
 2f8:	75626564 	strbvc	r6, [r2, #-1380]!	; 0x564
 2fc:	6e695f67 	cdpvs	15, 6, cr5, cr9, cr7, {3}
 300:	61667473 	smcvs	26435	; 0x6743
 304:	00746c75 	rsbseq	r6, r4, r5, ror ip
 308:	72637364 	rsbvc	r7, r3, #100, 6	; 0x90000001
 30c:	7465735f 	strbtvc	r7, [r5], #-863	; 0x35f
 310:	72637700 	rsbvc	r7, r3, #0, 14
 314:	65725f30 	ldrbvs	r5, [r2, #-3888]!	; 0xf30
 318:	63770067 	cmnvs	r7, #103	; 0x67
 31c:	675f3072 			; <UNDEFINED> instruction: 0x675f3072
 320:	69007465 	stmdbvs	r0, {r0, r2, r5, r6, sl, ip, sp, lr}
 324:	5f74696e 	svcpl	0x0074696e
 328:	72620070 	rsbvc	r0, r2, #112	; 0x70
 32c:	5f74706b 	svcpl	0x0074706b
 330:	646e6168 	strbtvs	r6, [lr], #-360	; 0x168
 334:	3072656c 	rsbscc	r6, r2, ip, ror #10
 338:	31706300 	cmncc	r0, r0, lsl #6
 33c:	63625f34 	cmnvs	r2, #52, 30	; 0xd0
 340:	735f3072 	cmpvc	pc, #114	; 0x72
 344:	77007465 	strvc	r7, [r0, -r5, ror #8]
 348:	5f307276 	svcpl	0x00307276
 34c:	006c6176 	rsbeq	r6, ip, r6, ror r1
 350:	63746177 	cmnvs	r4, #-1073741795	; 0xc000001d
 354:	5f747068 	svcpl	0x00747068
 358:	30746573 	rsbscc	r6, r4, r3, ror r5
 35c:	72767700 	rsbsvc	r7, r6, #0, 14
 360:	65735f30 	ldrbvs	r5, [r3, #-3888]!	; 0xf30
 364:	72620074 	rsbvc	r0, r2, #116	; 0x74
 368:	6f6e5f6b 	svcvs	0x006e5f6b
 36c:	7465725f 	strbtvc	r7, [r5], #-607	; 0x25f
 370:	7272655f 	rsbsvc	r6, r2, #398458880	; 0x17c00000
 374:	6300726f 	movwvs	r7, #623	; 0x26f
 378:	5f343170 	svcpl	0x00343170
 37c:	30726362 	rsbscc	r6, r2, r2, ror #6
 380:	7465675f 	strbtvc	r6, [r5], #-1887	; 0x75f
 384:	6b726200 	blvs	1c98b8c <__bss_end__+0x1c8e07c>
 388:	6d5f7470 	cfldrdvs	mvd7, [pc, #-448]	; 1d0 <__code_start__-0x7e30>
 38c:	616d7369 	cmnvs	sp, r9, ror #6
 390:	5f686374 	svcpl	0x00686374
 394:	30746573 	rsbscc	r6, r4, r3, ror r5
 398:	73666400 	cmnvc	r6, #0, 8
 39c:	61765f72 	cmnvs	r6, r2, ror pc
 3a0:	6669006c 	strbtvs	r0, [r9], -ip, rrx
 3a4:	675f7261 	ldrbvs	r7, [pc, -r1, ror #4]
 3a8:	69007465 	stmdbvs	r0, {r0, r2, r5, r6, sl, ip, sp, lr}
 3ac:	5f727366 	svcpl	0x00727366
 3b0:	00746567 	rsbseq	r6, r4, r7, ror #10
 3b4:	63746177 	cmnvs	r4, #-1073741795	; 0xc000001d
 3b8:	5f747068 	svcpl	0x00747068
 3bc:	646e6168 	strbtvs	r6, [lr], #-360	; 0x168
 3c0:	3072656c 	rsbscc	r6, r2, ip, ror #10
 3c4:	6b726200 	blvs	1c98bcc <__bss_end__+0x1c8e0bc>
 3c8:	6d5f7470 	cfldrdvs	mvd7, [pc, #-448]	; 210 <__code_start__-0x7df0>
 3cc:	616d7369 	cmnvs	sp, r9, ror #6
 3d0:	5f686374 	svcpl	0x00686374
 3d4:	61736964 	cmnvs	r3, r4, ror #18
 3d8:	30656c62 	rsbcc	r6, r5, r2, ror #24
 3dc:	74616400 	strbtvc	r6, [r1], #-1024	; 0x400
 3e0:	75616661 	strbvc	r6, [r1, #-1633]!	; 0x661
 3e4:	665f746c 	ldrbvs	r7, [pc], -ip, ror #8
 3e8:	5f6d6f72 	svcpl	0x006d6f72
 3ec:	6300646c 	movwvs	r6, #1132	; 0x46c
 3f0:	5f343170 	svcpl	0x00343170
 3f4:	30727662 	rsbscc	r7, r2, r2, ror #12
 3f8:	7465735f 	strbtvc	r7, [r5], #-863	; 0x35f
 3fc:	73617700 	cmnvc	r1, #0, 14
 400:	6265645f 	rsbvs	r6, r5, #1593835520	; 0x5f000000
 404:	61666775 	smcvs	26229	; 0x6675
 408:	5f746c75 	svcpl	0x00746c75
 40c:	70630072 	rsbvc	r0, r3, r2, ror r0
 410:	655f3431 	ldrbvs	r3, [pc, #-1073]	; ffffffe7 <__bss_end__+0xffff54d7>
 414:	6c62616e 	stfvse	f6, [r2], #-440	; 0xfffffe48
 418:	666e0065 	strbtvs	r0, [lr], -r5, rrx
 41c:	746c7561 	strbtvc	r7, [ip], #-1377	; 0x561
 420:	76620073 			; <UNDEFINED> instruction: 0x76620073
 424:	765f3072 			; <UNDEFINED> instruction: 0x765f3072
 428:	64006c61 	strvs	r6, [r0], #-3169	; 0xc61
 42c:	5f727366 	svcpl	0x00727366
 430:	00746567 	rsbseq	r6, r4, r7, ror #10
 434:	63737973 	cmnvs	r3, #1884160	; 0x1cc000
 438:	5f6c6c61 	svcpl	0x006c6c61
 43c:	74636576 	strbtvc	r6, [r3], #-1398	; 0x576
 440:	7000726f 	andvc	r7, r0, pc, ror #4
 444:	65666572 	strbvs	r6, [r6, #-1394]!	; 0x572
 448:	5f686374 	svcpl	0x00686374
 44c:	73756c66 	cmnvc	r5, #26112	; 0x6600
 450:	65735f68 	ldrbvs	r5, [r3, #-3944]!	; 0xf68
 454:	63620074 	cmnvs	r2, #116	; 0x74
 458:	725f3072 	subsvc	r3, pc, #114	; 0x72
 45c:	68006765 	stmdavs	r0, {r0, r2, r5, r6, r8, r9, sl, sp, lr}
 460:	6c646e61 	stclvs	14, cr6, [r4], #-388	; 0xfffffe7c
 464:	745f7265 	ldrbvc	r7, [pc], #-613	; 46c <__code_start__-0x7b94>
 468:	61667700 	cmnvs	r6, r0, lsl #14
 46c:	65675f72 	strbvs	r5, [r7, #-3954]!	; 0xf72
 470:	79730074 	ldmdbvc	r3!, {r2, r4, r5, r6}^
 474:	756e5f73 	strbvc	r5, [lr, #-3955]!	; 0xf73
 478:	7262006d 	rsbvc	r0, r2, #109	; 0x6d
 47c:	5f74706b 	svcpl	0x0074706b
 480:	30746573 	rsbscc	r6, r4, r3, ror r5
 484:	72637700 	rsbvc	r7, r3, #0, 14
 488:	65735f30 	ldrbvs	r5, [r3, #-3888]!	; 0xf30
 48c:	69730074 	ldmdbvs	r3!, {r2, r4, r5, r6}^
 490:	656c676e 	strbvs	r6, [ip, #-1902]!	; 0x76e
 494:	6574735f 	ldrbvs	r7, [r4, #-863]!	; 0x35f
 498:	61685f70 	smcvs	34288	; 0x85f0
 49c:	656c646e 	strbvs	r6, [ip, #-1134]!	; 0x46e
 4a0:	68630072 	stmdavs	r3!, {r1, r4, r5, r6}^
 4a4:	5f6b6365 	svcpl	0x006b6365
 4a8:	6f72657a 	svcvs	0x0072657a
 4ac:	65686300 	strbvs	r6, [r8, #-768]!	; 0x300
 4b0:	692d6b63 	pushvs	{r0, r1, r5, r6, r8, r9, fp, sp, lr}
 4b4:	7265746e 	rsbvc	r7, r5, #1845493760	; 0x6e000000
 4b8:	7661656c 	strbtvc	r6, [r1], -ip, ror #10
 4bc:	00632e65 	rsbeq	r2, r3, r5, ror #28
 4c0:	72657375 	rsbvc	r7, r5, #-738197503	; 0xd4000001
 4c4:	6172745f 	cmnvs	r2, pc, asr r4
 4c8:	6c6f706d 	stclvs	0, cr7, [pc], #-436	; 31c <__code_start__-0x7ce4>
 4cc:	5f656e69 	svcpl	0x00656e69
 4d0:	00746572 	rsbseq	r6, r4, r2, ror r5
 4d4:	65707865 	ldrbvs	r7, [r0, #-2149]!	; 0x865
 4d8:	64657463 	strbtvs	r7, [r5], #-1123	; 0x463
 4dc:	6e61685f 	mcrvs	8, 3, r6, cr1, cr15, {2}
 4e0:	00656c64 	rsbeq	r6, r5, r4, ror #24
 4e4:	6b73616d 	blvs	1cd8aa0 <__bss_end__+0x1ccdf90>
 4e8:	74696200 	strbtvc	r6, [r9], #-512	; 0x200
 4ec:	6c635f73 	stclvs	15, cr5, [r3], #-460	; 0xfffffe34
 4f0:	68630072 	stmdavs	r3!, {r1, r4, r5, r6}^
 4f4:	5f6b6365 	svcpl	0x006b6365
 4f8:	5f656e6f 	svcpl	0x00656e6f
 4fc:	69777363 	ldmdbvs	r7!, {r0, r1, r5, r6, r8, r9, ip, sp, lr}^
 500:	00686374 	rsbeq	r6, r8, r4, ror r3
 504:	65646f6d 	strbvs	r6, [r4, #-3949]!	; 0xf6d
 508:	7465735f 	strbtvc	r7, [r5], #-863	; 0x35f
 50c:	65686300 	strbvs	r6, [r8, #-768]!	; 0x300
 510:	735f6b63 	cmpvc	pc, #101376	; 0x18c00
 514:	65757165 	ldrbvs	r7, [r5, #-357]!	; 0x165
 518:	6169746e 	cmnvs	r9, lr, ror #8
 51c:	7063006c 	rsbvc	r0, r3, ip, rrx
 520:	6f5f7273 	svcvs	0x005f7273
 524:	6300646c 	movwvs	r6, #1132	; 0x46c
 528:	5f727370 	svcpl	0x00727370
 52c:	72657375 	rsbvc	r7, r5, #-738197503	; 0xd4000001
 530:	67657200 	strbvs	r7, [r5, -r0, lsl #4]!
 534:	5f5f0073 	svcpl	0x005f0073
 538:	63756e67 	cmnvs	r5, #1648	; 0x670
 53c:	5f61765f 	svcpl	0x0061765f
 540:	7473696c 	ldrbtvc	r6, [r3], #-2412	; 0x96c
 544:	62696c00 	rsbvs	r6, r9, #0, 24
 548:	72702f63 	rsbsvc	r2, r0, #396	; 0x18c
 54c:	6b746e69 	blvs	1d1bef8 <__bss_end__+0x1d113e8>
 550:	4700632e 	strmi	r6, [r0, -lr, lsr #6]
 554:	4320554e 	teqmi	r0, #327155712	; 0x13800000
 558:	382e3420 	stmdacc	lr!, {r5, sl, ip, sp}
 55c:	2d20332e 	stccs	3, cr3, [r0, #-184]!	; 0xffffff48
 560:	7570636d 	ldrbvc	r6, [r0, #-877]!	; 0x36d
 564:	6d72613d 	ldfvse	f6, [r2, #-244]!	; 0xffffff0c
 568:	36373131 			; <UNDEFINED> instruction: 0x36373131
 56c:	2d667a6a 	vstmdbcs	r6!, {s15-s120}
 570:	6d2d2073 	stcvs	0, cr2, [sp, #-460]!	; 0xfffffe34
 574:	656e7574 	strbvs	r7, [lr, #-1396]!	; 0x574
 578:	6d72613d 	ldfvse	f6, [r2, #-244]!	; 0xffffff0c
 57c:	36373131 			; <UNDEFINED> instruction: 0x36373131
 580:	2d667a6a 	vstmdbcs	r6!, {s15-s120}
 584:	672d2073 			; <UNDEFINED> instruction: 0x672d2073
 588:	20626467 	rsbcs	r6, r2, r7, ror #8
 58c:	20674f2d 	rsbcs	r4, r7, sp, lsr #30
 590:	6474732d 	ldrbtvs	r7, [r4], #-813	; 0x32d
 594:	756e673d 	strbvc	r6, [lr, #-1853]!	; 0x73d
 598:	2d203939 	stccs	9, cr3, [r0, #-228]!	; 0xffffff1c
 59c:	65726666 	ldrbvs	r6, [r2, #-1638]!	; 0x666
 5a0:	61747365 	cmnvs	r4, r5, ror #6
 5a4:	6e69646e 	cdpvs	4, 6, cr6, cr9, cr14, {3}
 5a8:	61760067 	cmnvs	r6, r7, rrx
 5ac:	6972705f 	ldmdbvs	r2!, {r0, r1, r2, r3, r4, r6, ip, sp, lr}^
 5b0:	006b746e 	rsbeq	r7, fp, lr, ror #8
 5b4:	61765f5f 	cmnvs	r6, pc, asr pc
 5b8:	73696c5f 	cmnvc	r9, #24320	; 0x5f00
 5bc:	552f0074 	strpl	r0, [pc, #-116]!	; 550 <__code_start__-0x7ab0>
 5c0:	73726573 	cmnvc	r2, #482344960	; 0x1cc00000
 5c4:	6972622f 	ldmdbvs	r2!, {r0, r1, r2, r3, r5, r9, sp, lr}^
 5c8:	756a6e61 	strbvc	r6, [sl, #-3681]!	; 0xe61
 5cc:	65442f6e 	strbvs	r2, [r4, #-3950]	; 0xf6e
 5d0:	6f746b73 	svcvs	0x00746b73
 5d4:	63732f70 	cmnvs	r3, #112, 30	; 0x1c0
 5d8:	6c6f6f68 	stclvs	15, cr6, [pc], #-416	; 440 <__code_start__-0x7bc0>
 5dc:	7270532f 	rsbsvc	r5, r0, #-1140850688	; 0xbc000000
 5e0:	31676e69 	cmncc	r7, r9, ror #28
 5e4:	2f303239 	svccs	0x00303239
 5e8:	34325343 	ldrtcc	r5, [r2], #-835	; 0x343
 5ec:	2f584c30 	svccs	0x00584c30
 5f0:	34327363 	ldrtcc	r7, [r2], #-867	; 0x363
 5f4:	2d786c30 	ldclcs	12, cr6, [r8, #-192]!	; 0xffffff40
 5f8:	70733032 	rsbsvc	r3, r3, r2, lsr r0
 5fc:	696c2f72 	stmdbvs	ip!, {r1, r4, r5, r6, r8, r9, sl, fp, sp}^
 600:	00697062 	rsbeq	r7, r9, r2, rrx
 604:	70615f5f 	rsbvc	r5, r1, pc, asr pc
 608:	72617500 	rsbvc	r7, r1, #0, 10
 60c:	75705f74 	ldrbvc	r5, [r0, #-3956]!	; 0xf74
 610:	69006374 	stmdbvs	r0, {r2, r4, r5, r6, r8, r9, sp, lr}
 614:	7265746e 	rsbvc	r7, r5, #1845493760	; 0x6e000000
 618:	5f6c616e 	svcpl	0x006c616e
 61c:	63747570 	cmnvs	r4, #112, 10	; 0x1c000000
 620:	00726168 	rsbseq	r6, r2, r8, ror #2
 624:	5f697072 	svcpl	0x00697072
 628:	63747570 	cmnvs	r4, #112, 10	; 0x1c000000
 62c:	00726168 	rsbseq	r6, r2, r8, ror #2
 630:	6362696c 	cmnvs	r2, #108, 18	; 0x1b0000
 634:	7475702f 	ldrbtvc	r7, [r5], #-47	; 0x2f
 638:	72616863 	rsbvc	r6, r1, #6488064	; 0x630000
 63c:	7200632e 	andvc	r6, r0, #-1207959552	; 0xb8000000
 640:	735f6970 	cmpvc	pc, #112, 18	; 0x1c0000
 644:	705f7465 	subsvc	r7, pc, r5, ror #8
 648:	00637475 	rsbeq	r7, r3, r5, ror r4
 64c:	6362696c 	cmnvs	r2, #108, 18	; 0x1b0000
 650:	7475702f 	ldrbtvc	r7, [r5], #-47	; 0x2f
 654:	00632e6b 	rsbeq	r2, r3, fp, ror #28
 658:	65746e69 	ldrbvs	r6, [r4, #-3689]!	; 0xe69
 65c:	6c616e72 	stclvs	14, cr6, [r1], #-456	; 0xfffffe38
 660:	7475705f 	ldrbtvc	r7, [r5], #-95	; 0x5f
 664:	6d66006b 	stclvs	0, cr0, [r6, #-428]!	; 0xfffffe54
 668:	74735f74 	ldrbtvc	r5, [r3], #-3956	; 0xf74
 66c:	00747261 	rsbseq	r7, r4, r1, ror #4
 670:	5f67656e 	svcpl	0x0067656e
 674:	65720070 	ldrbvs	r0, [r2, #-112]!	; 0x70
 678:	73726576 	cmnvc	r2, #494927872	; 0x1d800000
 67c:	73690065 	cmnvc	r9, #101	; 0x65
 680:	69676964 	stmdbvs	r7!, {r2, r5, r6, r8, fp, sp, lr}^
 684:	75700074 	ldrbvc	r0, [r0, #-116]!	; 0x74
 688:	665f7374 			; <UNDEFINED> instruction: 0x665f7374
 68c:	69730070 	ldmdbvs	r3!, {r4, r5, r6}^
 690:	64656e67 	strbtvs	r6, [r5], #-3687	; 0xe67
 694:	6c00705f 	stcvs	0, cr7, [r0], {95}	; 0x5f
 698:	2f636269 	svccs	0x00636269
 69c:	702d6176 	eorvc	r6, sp, r6, ror r1
 6a0:	746e6972 	strbtvc	r6, [lr], #-2418	; 0x972
 6a4:	00632e6b 	rsbeq	r2, r3, fp, ror #28
 6a8:	5f697072 	svcpl	0x00697072
 6ac:	5f746573 	svcpl	0x00746573
 6b0:	7074756f 	rsbsvc	r7, r4, pc, ror #10
 6b4:	77007475 	smlsdxvc	r0, r5, r4, r7
 6b8:	68746469 	ldmdavs	r4!, {r0, r3, r5, r6, sl, sp, lr}^
 6bc:	74757000 	ldrbtvc	r7, [r5], #-0
 6c0:	70665f63 	rsbvc	r5, r6, r3, ror #30
 6c4:	696d6500 	stmdbvs	sp!, {r8, sl, sp, lr}^
 6c8:	69640074 	stmdbvs	r4!, {r2, r4, r5, r6}^
 6cc:	6c626173 	stfvse	f6, [r2], #-460	; 0xfffffe34
 6d0:	61635f65 	cmnvs	r3, r5, ror #30
 6d4:	00656863 	rsbeq	r6, r5, r3, ror #16
 6d8:	66617473 			; <UNDEFINED> instruction: 0x66617473
 6dc:	72732d66 	rsbsvc	r2, r3, #6528	; 0x1980
 6e0:	61632f63 	cmnvs	r3, r3, ror #30
 6e4:	2e656863 	cdpcs	8, 6, cr6, cr5, cr3, {3}
 6e8:	65720063 	ldrbvs	r0, [r2, #-99]!	; 0x63
 6ec:	746f6f62 	strbtvc	r6, [pc], #-3938	; 6f4 <__code_start__-0x790c>
 6f0:	6e61685f 	mcrvs	8, 3, r6, cr1, cr15, {2}
 6f4:	72656c64 	rsbvc	r6, r5, #100, 24	; 0x6400
 6f8:	61747300 	cmnvs	r4, r0, lsl #6
 6fc:	732d6666 	teqvc	sp, #106954752	; 0x6600000
 700:	632f6372 	teqvs	pc, #-939524095	; 0xc8000001
 704:	6e61656c 	cdpvs	5, 6, cr6, cr1, cr12, {3}
 708:	6265722d 	rsbvs	r7, r5, #-805306366	; 0xd0000002
 70c:	2e746f6f 	cdpcs	15, 7, cr6, cr4, cr15, {3}
 710:	70720063 	rsbsvc	r0, r2, r3, rrx
 714:	65725f69 	ldrbvs	r5, [r2, #-3945]!	; 0xf69
 718:	746f6f62 	strbtvc	r6, [pc], #-3938	; 720 <__code_start__-0x78e0>
 71c:	6c656400 	cfstrdvs	mvd6, [r5], #-0
 720:	6d5f7961 	ldclvs	9, cr7, [pc, #-388]	; 5a4 <__code_start__-0x7a5c>
 724:	5f5f0073 	svcpl	0x005f0073
 728:	5f737362 	svcpl	0x00737362
 72c:	72617473 	rsbvc	r7, r1, #1929379840	; 0x73000000
 730:	005f5f74 	subseq	r5, pc, r4, ror pc	; <UNPREDICTABLE>
 734:	73625f5f 	cmnvc	r2, #380	; 0x17c
 738:	6e655f73 	mcrvs	15, 3, r5, cr5, cr3, {3}
 73c:	005f5f64 	subseq	r5, pc, r4, ror #30
 740:	61747363 	cmnvs	r4, r3, ror #6
 744:	685f7472 	ldmdavs	pc, {r1, r4, r5, r6, sl, ip, sp, lr}^	; <UNPREDICTABLE>
 748:	6c646e61 	stclvs	14, cr6, [r4], #-388	; 0xfffffe7c
 74c:	62007265 	andvs	r7, r0, #1342177286	; 0x50000006
 750:	655f7373 	ldrbvs	r7, [pc, #-883]	; 3e5 <__code_start__-0x7c1b>
 754:	5f00646e 	svcpl	0x0000646e
 758:	61747363 	cmnvs	r4, r3, ror #6
 75c:	73007472 	movwvc	r7, #1138	; 0x472
 760:	66666174 			; <UNDEFINED> instruction: 0x66666174
 764:	6372732d 	cmnvs	r2, #-1275068416	; 0xb4000000
 768:	7473632f 	ldrbtvc	r6, [r3], #-815	; 0x32f
 76c:	2e747261 	cdpcs	2, 7, cr7, cr4, cr1, {3}
 770:	74730063 	ldrbtvc	r0, [r3], #-99	; 0x63
 774:	2d666661 	stclcs	6, cr6, [r6, #-388]!	; 0xfffffe7c
 778:	2f637273 	svccs	0x00637273
 77c:	61666564 	cmnvs	r6, r4, ror #10
 780:	2d746c75 	ldclcs	12, cr6, [r4, #-468]!	; 0xfffffe2c
 784:	646e6168 	strbtvs	r6, [lr], #-360	; 0x168
 788:	2d72656c 	cfldr64cs	mvdx6, [r2, #-432]!	; 0xfffffe50
 78c:	74736166 	ldrbtvc	r6, [r3], #-358	; 0x166
 790:	6600632e 	strvs	r6, [r0], -lr, lsr #6
 794:	5f747361 	svcpl	0x00747361
 798:	65746e69 	ldrbvs	r6, [r4, #-3689]!	; 0xe69
 79c:	70757272 	rsbsvc	r7, r5, r2, ror r2
 7a0:	65765f74 	ldrbvs	r5, [r6, #-3956]!	; 0xf74
 7a4:	726f7463 	rsbvc	r7, pc, #1660944384	; 0x63000000
 7a8:	73657200 	cmnvc	r5, #0, 4
 7ac:	765f7465 	ldrbvc	r7, [pc], -r5, ror #8
 7b0:	6f746365 	svcvs	0x00746365
 7b4:	74730072 	ldrbtvc	r0, [r3], #-114	; 0x72
 7b8:	2d666661 	stclcs	6, cr6, [r6, #-388]!	; 0xfffffe7c
 7bc:	2f637273 	svccs	0x00637273
 7c0:	61666564 	cmnvs	r6, r4, ror #10
 7c4:	2d746c75 	ldclcs	12, cr6, [r4, #-468]!	; 0xfffffe2c
 7c8:	646e6168 	strbtvs	r6, [lr], #-360	; 0x168
 7cc:	2d72656c 	cfldr64cs	mvdx6, [r2, #-432]!	; 0xfffffe50
 7d0:	65736572 	ldrbvs	r6, [r3, #-1394]!	; 0x572
 7d4:	00632e74 	rsbeq	r2, r3, r4, ror lr
 7d8:	66617473 			; <UNDEFINED> instruction: 0x66617473
 7dc:	72732d66 	rsbsvc	r2, r3, #6528	; 0x1980
 7e0:	65642f63 	strbvs	r2, [r4, #-3939]!	; 0xf63
 7e4:	6c756166 	ldfvse	f6, [r5], #-408	; 0xfffffe68
 7e8:	61682d74 	smcvs	33492	; 0x82d4
 7ec:	656c646e 	strbvs	r6, [ip, #-1134]!	; 0x46e
 7f0:	6e752d72 	mrcvs	13, 3, r2, cr5, cr2, {3}
 7f4:	69666564 	stmdbvs	r6!, {r2, r5, r6, r8, sl, sp, lr}^
 7f8:	2d64656e 	cfstr64cs	mvdx6, [r4, #-440]!	; 0xfffffe48
 7fc:	74736e69 	ldrbtvc	r6, [r3], #-3689	; 0xe69
 800:	7500632e 	strvc	r6, [r0, #-814]	; 0x32e
 804:	6665646e 	strbtvs	r6, [r5], -lr, ror #8
 808:	64656e69 	strbtvs	r6, [r5], #-3689	; 0xe69
 80c:	736e695f 	cmnvc	lr, #1556480	; 0x17c000
 810:	63757274 	cmnvs	r5, #116, 4	; 0x40000007
 814:	6e6f6974 	mcrvs	9, 3, r6, cr15, cr4, {3}
 818:	6365765f 	cmnvs	r5, #99614720	; 0x5f00000
 81c:	00726f74 	rsbseq	r6, r2, r4, ror pc
 820:	66617473 			; <UNDEFINED> instruction: 0x66617473
 824:	72732d66 	rsbsvc	r2, r3, #6528	; 0x1980
 828:	65642f63 	strbvs	r2, [r4, #-3939]!	; 0xf63
 82c:	6c756166 	ldfvse	f6, [r5], #-408	; 0xfffffe68
 830:	61682d74 	smcvs	33492	; 0x82d4
 834:	656c646e 	strbvs	r6, [ip, #-1134]!	; 0x46e
 838:	632e7372 	teqvs	lr, #-939524095	; 0xc8000001
 83c:	51524900 	cmppl	r2, r0, lsl #18
 840:	6e65705f 	mcrvs	0, 3, r7, cr5, cr15, {2}
 844:	676e6964 	strbvs	r6, [lr, -r4, ror #18]!
 848:	4400325f 	strmi	r3, [r0], #-607	; 0x25f
 84c:	62617369 	rsbvs	r7, r1, #-1543503871	; 0xa4000001
 850:	425f656c 	subsmi	r6, pc, #108, 10	; 0x1b000000
 854:	63697361 	cmnvs	r9, #-2080374783	; 0x84000001
 858:	5152495f 	cmppl	r2, pc, asr r9
 85c:	49460073 	stmdbmi	r6, {r0, r1, r4, r5, r6}^
 860:	6f635f51 	svcvs	0x00635f51
 864:	6f72746e 	svcvs	0x0072746e
 868:	695f006c 	ldmdbvs	pc, {r2, r3, r5, r6}^	; <UNPREDICTABLE>
 86c:	7265746e 	rsbvc	r7, r5, #1845493760	; 0x6e000000
 870:	74707572 	ldrbtvc	r7, [r0], #-1394	; 0x572
 874:	6261745f 	rsbvs	r7, r1, #1593835520	; 0x5f000000
 878:	4900656c 	stmdbmi	r0, {r2, r3, r5, r6, r8, sl, sp, lr}
 87c:	625f5152 	subsvs	r5, pc, #-2147483628	; 0x80000014
 880:	63697361 	cmnvs	r9, #-2080374783	; 0x84000001
 884:	6e65705f 	mcrvs	0, 3, r7, cr5, cr15, {2}
 888:	676e6964 	strbvs	r6, [lr, -r4, ror #18]!
 88c:	616e4500 	cmnvs	lr, r0, lsl #10
 890:	5f656c62 	svcpl	0x00656c62
 894:	69736142 	ldmdbvs	r3!, {r1, r6, r8, sp, lr}^
 898:	52495f63 	subpl	r5, r9, #396	; 0x18c
 89c:	45007351 	strmi	r7, [r0, #-849]	; 0x351
 8a0:	6c62616e 	stfvse	f6, [r2], #-440	; 0xfffffe48
 8a4:	52495f65 	subpl	r5, r9, #404	; 0x194
 8a8:	315f7351 	cmpcc	pc, r1, asr r3	; <UNPREDICTABLE>
 8ac:	616e4500 	cmnvs	lr, r0, lsl #10
 8b0:	5f656c62 	svcpl	0x00656c62
 8b4:	73515249 	cmpvc	r1, #-1879048188	; 0x90000004
 8b8:	5f00325f 	svcpl	0x0000325f
 8bc:	65746e69 	ldrbvs	r6, [r4, #-3689]!	; 0xe69
 8c0:	70757272 	rsbsvc	r7, r5, r2, ror r2
 8c4:	61745f74 	cmnvs	r4, r4, ror pc
 8c8:	5f656c62 	svcpl	0x00656c62
 8cc:	00646e65 	rsbeq	r6, r4, r5, ror #28
 8d0:	5f766564 	svcpl	0x00766564
 8d4:	72726162 	rsbsvc	r6, r2, #-2147483624	; 0x80000018
 8d8:	00726569 	rsbseq	r6, r2, r9, ror #10
 8dc:	66617473 			; <UNDEFINED> instruction: 0x66617473
 8e0:	72732d66 	rsbsvc	r2, r3, #6528	; 0x1980
 8e4:	6e692f63 	cdpvs	15, 6, cr2, cr9, cr3, {3}
 8e8:	72726574 	rsbsvc	r6, r2, #116, 10	; 0x1d000000
 8ec:	73747075 	cmnvc	r4, #117	; 0x75
 8f0:	632e632d 	teqvs	lr, #-1275068416	; 0xb4000000
 8f4:	51524900 	cmppl	r2, r0, lsl #18
 8f8:	7361425f 	cmnvc	r1, #-268435451	; 0xf0000005
 8fc:	55500065 	ldrbpl	r0, [r0, #-101]	; 0x65
 900:	00323354 	eorseq	r3, r2, r4, asr r3
 904:	61736944 	cmnvs	r3, r4, asr #18
 908:	5f656c62 	svcpl	0x00656c62
 90c:	73515249 	cmpvc	r1, #-1879048188	; 0x90000004
 910:	4400315f 	strmi	r3, [r0], #-351	; 0x15f
 914:	62617369 	rsbvs	r7, r1, #-1543503871	; 0xa4000001
 918:	495f656c 	ldmdbmi	pc, {r2, r3, r5, r6, r8, sl, sp, lr}^	; <UNPREDICTABLE>
 91c:	5f735152 	svcpl	0x00735152
 920:	52490032 	subpl	r0, r9, #50	; 0x32
 924:	65705f51 	ldrbvs	r5, [r0, #-3921]!	; 0xf51
 928:	6e69646e 	cdpvs	4, 6, cr6, cr9, cr14, {3}
 92c:	00315f67 	eorseq	r5, r1, r7, ror #30
 930:	755f7461 	ldrbvc	r7, [pc, #-1121]	; 4d7 <__code_start__-0x7b29>
 934:	5f726573 	svcpl	0x00726573
 938:	6576656c 	ldrbvs	r6, [r6, #-1388]!	; 0x56c
 93c:	7473006c 	ldrbtvc	r0, [r3], #-108	; 0x6c
 940:	2d666661 	stclcs	6, cr6, [r6, #-388]!	; 0xfffffe7c
 944:	2f637273 	svccs	0x00637273
 948:	6f626572 	svcvs	0x00626572
 94c:	632e746f 	teqvs	lr, #1862270976	; 0x6f000000
 950:	5f4d5000 	svcpl	0x004d5000
 954:	43545352 	cmpmi	r4, #1207959553	; 0x48000001
 958:	4352575f 	cmpmi	r2, #24903680	; 0x17c0000
 95c:	465f4746 	ldrbmi	r4, [pc], -r6, asr #14
 960:	5f4c4c55 	svcpl	0x004c4c55
 964:	45534552 	ldrbmi	r4, [r3, #-1362]	; 0x552
 968:	4d500054 	ldclmi	0, cr0, [r0, #-336]	; 0xfffffeb0
 96c:	4f44575f 	svcmi	0x0044575f
 970:	65730047 	ldrbvs	r0, [r3, #-71]!	; 0x47
 974:	73755f74 	cmnvc	r5, #116, 30	; 0x1d0
 978:	6c5f7265 	lfmvs	f7, 2, [pc], {101}	; 0x65
 97c:	6c657665 	stclvs	6, cr7, [r5], #-404	; 0xfffffe6c
 980:	5f4d5000 	svcpl	0x004d5000
 984:	53534150 	cmppl	r3, #80, 2
 988:	44524f57 	ldrbmi	r4, [r2], #-3927	; 0xf57
 98c:	5f4d5000 	svcpl	0x004d5000
 990:	43545352 	cmpmi	r4, #1207959553	; 0x48000001
 994:	6d697400 	cfstrdvs	mvd7, [r9, #-0]
 998:	675f7265 	ldrbvs	r7, [pc, -r5, ror #4]
 99c:	755f7465 	ldrbvc	r7, [pc, #-1125]	; 53f <__code_start__-0x7ac1>
 9a0:	5f636573 	svcpl	0x00636573
 9a4:	00776172 	rsbseq	r6, r7, r2, ror r1
 9a8:	616c6564 	cmnvs	ip, r4, ror #10
 9ac:	65735f79 	ldrbvs	r5, [r3, #-3961]!	; 0xf79
 9b0:	74730063 	ldrbtvc	r0, [r3], #-99	; 0x63
 9b4:	2d666661 	stclcs	6, cr6, [r6, #-388]!	; 0xfffffe7c
 9b8:	2f637273 	svccs	0x00637273
 9bc:	656d6974 	strbvs	r6, [sp, #-2420]!	; 0x974
 9c0:	00632e72 	rsbeq	r2, r3, r2, ror lr
 9c4:	33544547 	cmpcc	r4, #297795584	; 0x11c00000
 9c8:	69740032 	ldmdbvs	r4!, {r1, r4, r5}^
 9cc:	00736b63 	rsbseq	r6, r3, r3, ror #22
 9d0:	616c6564 	cmnvs	ip, r4, ror #10
 9d4:	79635f79 	stmdbvc	r3!, {r0, r3, r4, r5, r6, r8, r9, sl, fp, ip, lr}^
 9d8:	73656c63 	cmnvc	r5, #25344	; 0x6300
 9dc:	6c656400 	cfstrdvs	mvd6, [r5], #-0
 9e0:	755f7961 	ldrbvc	r7, [pc, #-2401]	; 87 <__code_start__-0x7f79>
 9e4:	69740073 	ldmdbvs	r4!, {r0, r1, r4, r5, r6}^
 9e8:	5f72656d 	svcpl	0x0072656d
 9ec:	5f746567 	svcpl	0x00746567
 9f0:	63657375 	cmnvs	r5, #-738197503	; 0xd4000001
 9f4:	73645f00 	cmnvc	r4, #0, 30
 9f8:	61685f6f 	cmnvs	r8, pc, ror #30
 9fc:	656c646e 	strbvs	r6, [ip, #-1134]!	; 0x46e
 a00:	69735f00 	ldmdbvs	r3!, {r8, r9, sl, fp, ip, lr}^
 a04:	5f00657a 	svcpl	0x0000657a
 a08:	646e6172 	strbtvs	r6, [lr], #-370	; 0x172
 a0c:	5f003834 	svcpl	0x00003834
 a10:	72656d65 	rsbvc	r6, r5, #6464	; 0x1940
 a14:	636e6567 	cmnvs	lr, #432013312	; 0x19c00000
 a18:	61750079 	cmnvs	r5, r9, ror r0
 a1c:	695f7472 	ldmdbvs	pc, {r1, r4, r5, r6, sl, ip, sp, lr}^	; <UNPREDICTABLE>
 a20:	0074696e 	rsbseq	r6, r4, lr, ror #18
 a24:	7263775f 	rsbvc	r7, r3, #24903680	; 0x17c0000
 a28:	626d6f74 	rsbvs	r6, sp, #116, 30	; 0x1d0
 a2c:	6174735f 	cmnvs	r4, pc, asr r3
 a30:	5f006574 	svcpl	0x00006574
 a34:	72736377 	rsbsvc	r6, r3, #-603979775	; 0xdc000001
 a38:	626d6f74 	rsbvs	r6, sp, #116, 30	; 0x1d0
 a3c:	74735f73 	ldrbtvc	r5, [r3], #-3955	; 0xf73
 a40:	00657461 	rsbeq	r7, r5, r1, ror #8
 a44:	66626c5f 			; <UNDEFINED> instruction: 0x66626c5f
 a48:	657a6973 	ldrbvs	r6, [sl, #-2419]!	; 0x973
 a4c:	49504700 	ldmdbmi	r0, {r8, r9, sl, lr}^
 a50:	55465f4f 	strbpl	r5, [r6, #-3919]	; 0xf4f
 a54:	495f434e 	ldmdbmi	pc, {r1, r2, r3, r6, r8, r9, lr}^	; <UNPREDICTABLE>
 a58:	5455504e 	ldrbpl	r5, [r5], #-78	; 0x4e
 a5c:	626d5f00 	rsbvs	r5, sp, #0, 30
 a60:	776f7472 			; <UNDEFINED> instruction: 0x776f7472
 a64:	74735f63 	ldrbtvc	r5, [r3], #-3939	; 0xf63
 a68:	00657461 	rsbeq	r7, r5, r1, ror #8
 a6c:	7463775f 	strbtvc	r7, [r3], #-1887	; 0x75f
 a70:	5f626d6f 	svcpl	0x00626d6f
 a74:	74617473 	strbtvc	r7, [r1], #-1139	; 0x473
 a78:	5f5f0065 	svcpl	0x005f0065
 a7c:	735f6d74 	cmpvc	pc, #116, 26	; 0x1d00
 a80:	73006365 	movwvc	r6, #869	; 0x365
 a84:	00746174 	rsbseq	r6, r4, r4, ror r1
 a88:	7562755f 	strbvc	r7, [r2, #-1375]!	; 0x55f
 a8c:	50470066 	subpl	r0, r7, r6, rrx
 a90:	465f4f49 	ldrbmi	r4, [pc], -r9, asr #30
 a94:	5f434e55 	svcpl	0x00434e55
 a98:	31544c41 	cmpcc	r4, r1, asr #24
 a9c:	61625f00 	cmnvs	r2, r0, lsl #30
 aa0:	63006573 	movwvs	r6, #1395	; 0x573
 aa4:	006c746e 	rsbeq	r7, ip, lr, ror #8
 aa8:	6d745f5f 	ldclvs	15, cr5, [r4, #-380]!	; 0xfffffe84
 aac:	756f685f 	strbvc	r6, [pc, #-2143]!	; 255 <__code_start__-0x7dab>
 ab0:	5f5f0072 	svcpl	0x005f0072
 ab4:	5f006673 	svcpl	0x00006673
 ab8:	655f6e6f 	ldrbvs	r6, [pc, #-3695]	; fffffc51 <__bss_end__+0xffff5141>
 abc:	5f746978 	svcpl	0x00746978
 ac0:	73677261 	cmnvc	r7, #268435462	; 0x10000006
 ac4:	6f635f00 	svcvs	0x00635f00
 ac8:	65696b6f 	strbvs	r6, [r9, #-2927]!	; 0xb6f
 acc:	735f5f00 	cmpvc	pc, #0, 30
 ad0:	65756c67 	ldrbvs	r6, [r5, #-3175]!	; 0xc67
 ad4:	6c665f00 	stclvs	15, cr5, [r6], #-0
 ad8:	00736761 	rsbseq	r6, r3, r1, ror #14
 adc:	5f73695f 	svcpl	0x0073695f
 ae0:	00617863 	rsbeq	r7, r1, r3, ror #16
 ae4:	6474735f 	ldrbtvs	r7, [r4], #-863	; 0x35f
 ae8:	5f006e69 	svcpl	0x00006e69
 aec:	736b6c62 	cmnvc	fp, #25088	; 0x6200
 af0:	00657a69 	rsbeq	r7, r5, r9, ror #20
 af4:	74726175 	ldrbtvc	r6, [r2], #-373	; 0x175
 af8:	6100632e 	tstvs	r0, lr, lsr #6
 afc:	705f7875 	subsvc	r7, pc, r5, ror r8	; <UNPREDICTABLE>
 b00:	70697265 	rsbvc	r7, r9, r5, ror #4
 b04:	5f007368 	svcpl	0x00007368
 b08:	62747663 	rsbsvs	r7, r4, #103809024	; 0x6300000
 b0c:	2f006675 	svccs	0x00006675
 b10:	656d6f68 	strbvs	r6, [sp, #-3944]!	; 0xf68
 b14:	676e652f 	strbvs	r6, [lr, -pc, lsr #10]!
 b18:	2f72656c 	svccs	0x0072656c
 b1c:	73616c63 	cmnvc	r1, #25344	; 0x6300
 b20:	73632f73 	cmnvc	r3, #460	; 0x1cc
 b24:	6c303432 	cfldrsvs	mvf3, [r0], #-200	; 0xffffff38
 b28:	30322d78 	eorscc	r2, r2, r8, ror sp
 b2c:	2f727073 	svccs	0x00727073
 b30:	7062696c 	rsbvc	r6, r2, ip, ror #18
 b34:	74732f69 	ldrbtvc	r2, [r3], #-3945	; 0xf69
 b38:	2d666661 	stclcs	6, cr6, [r6, #-388]!	; 0xfffffe7c
 b3c:	76697270 			; <UNDEFINED> instruction: 0x76697270
 b40:	00657461 	rsbeq	r7, r5, r1, ror #8
 b44:	73626d5f 	cmnvc	r2, #6080	; 0x17c0
 b48:	776f7472 			; <UNDEFINED> instruction: 0x776f7472
 b4c:	735f7363 	cmpvc	pc, #-1946157055	; 0x8c000001
 b50:	65746174 	ldrbvs	r6, [r4, #-372]!	; 0x174
 b54:	626d5f00 	rsbvs	r5, sp, #0, 30
 b58:	6e656c72 	mcrvs	12, 3, r6, cr5, cr2, {3}
 b5c:	6174735f 	cmnvs	r4, pc, asr r3
 b60:	5f006574 	svcpl	0x00006574
 b64:	72616e66 	rsbvc	r6, r1, #1632	; 0x660
 b68:	61007367 	tstvs	r0, r7, ror #6
 b6c:	655f7875 	ldrbvs	r7, [pc, #-2165]	; 2ff <__code_start__-0x7d01>
 b70:	6c62616e 	stfvse	f6, [r2], #-440	; 0xfffffe48
 b74:	5f007365 	svcpl	0x00007365
 b78:	00736e66 	rsbseq	r6, r3, r6, ror #28
 b7c:	6769735f 			; <UNDEFINED> instruction: 0x6769735f
 b80:	6175006e 	cmnvs	r5, lr, rrx
 b84:	635f7472 	cmpvs	pc, #1912602624	; 0x72000000
 b88:	705f6e61 	subsvc	r6, pc, r1, ror #28
 b8c:	00637475 	rsbeq	r7, r3, r5, ror r4
 b90:	6f6c665f 	svcvs	0x006c665f
 b94:	745f6b63 	ldrbvc	r6, [pc], #-2915	; b9c <__code_start__-0x7464>
 b98:	74735f00 	ldrbtvc	r5, [r3], #-3840	; 0xf00
 b9c:	72726564 	rsbsvc	r6, r2, #100, 10	; 0x19000000
 ba0:	69425f00 	stmdbvs	r2, {r8, r9, sl, fp, ip, lr}^
 ba4:	746e6967 	strbtvc	r6, [lr], #-2407	; 0x967
 ba8:	61675f00 	cmnvs	r7, r0, lsl #30
 bac:	5f616d6d 	svcpl	0x00616d6d
 bb0:	6e676973 	mcrvs	9, 3, r6, cr7, cr3, {3}
 bb4:	006d6167 	rsbeq	r6, sp, r7, ror #2
 bb8:	7365725f 	cmnvc	r5, #-268435451	; 0xf0000005
 bbc:	5f746c75 	svcpl	0x00746c75
 bc0:	5f5f006b 	svcpl	0x005f006b
 bc4:	5f006d74 	svcpl	0x00006d74
 bc8:	6863775f 	stmdavs	r3!, {r0, r1, r2, r3, r4, r6, r8, r9, sl, ip, sp, lr}^
 bcc:	61750062 	cmnvs	r5, r2, rrx
 bd0:	675f7472 			; <UNDEFINED> instruction: 0x675f7472
 bd4:	00637465 	rsbeq	r7, r3, r5, ror #8
 bd8:	6474735f 	ldrbtvs	r7, [r4], #-863	; 0x35f
 bdc:	0074756f 	rsbseq	r7, r4, pc, ror #10
 be0:	7476635f 	ldrbtvc	r6, [r6], #-863	; 0x35f
 be4:	006e656c 	rsbeq	r6, lr, ip, ror #10
 be8:	6c69665f 	stclvs	6, cr6, [r9], #-380	; 0xfffffe84
 bec:	6e5f0065 	cdpvs	0, 5, cr0, cr15, cr5, {3}
 bf0:	73626f69 	cmnvc	r2, #420	; 0x1a4
 bf4:	74615f00 	strbtvc	r5, [r1], #-3840	; 0xf00
 bf8:	74697865 	strbtvc	r7, [r9], #-2149	; 0x865
 bfc:	735f0030 	cmpvc	pc, #48	; 0x30
 c00:	616e6769 	cmnvs	lr, r9, ror #14
 c04:	75625f6c 	strbvc	r5, [r2, #-3948]!	; 0xf6c
 c08:	615f0066 	cmpvs	pc, r6, rrx
 c0c:	69746373 	ldmdbvs	r4!, {r0, r1, r4, r5, r6, r8, r9, sp, lr}^
 c10:	625f656d 	subsvs	r6, pc, #457179136	; 0x1b400000
 c14:	5f006675 	svcpl	0x00006675
 c18:	75736572 	ldrbvc	r6, [r3, #-1394]!	; 0x572
 c1c:	5f00746c 	svcpl	0x0000746c
 c20:	6863775f 	stmdavs	r3!, {r0, r1, r2, r3, r4, r6, r8, r9, sl, ip, sp, lr}^
 c24:	49504700 	ldmdbmi	r0, {r8, r9, sl, lr}^
 c28:	55465f4f 	strbpl	r5, [r6, #-3919]	; 0xf4f
 c2c:	415f434e 	cmpmi	pc, lr, asr #6
 c30:	0032544c 	eorseq	r5, r2, ip, asr #8
 c34:	746e6977 	strbtvc	r6, [lr], #-2423	; 0x977
 c38:	5f00745f 	svcpl	0x0000745f
 c3c:	6b636f6c 	blvs	18dc9f4 <__bss_end__+0x18d1ee4>
 c40:	6c665f00 	stclvs	15, cr5, [r6], #-0
 c44:	32736761 	rsbscc	r6, r3, #25427968	; 0x1840000
 c48:	745f5f00 	ldrbvc	r5, [pc], #-3840	; c50 <__code_start__-0x73b0>
 c4c:	65795f6d 	ldrbvs	r5, [r9, #-3949]!	; 0xf6d
 c50:	5f007261 	svcpl	0x00007261
 c54:	7366666f 	cmnvc	r6, #116391936	; 0x6f00000
 c58:	67007465 	strvs	r7, [r0, -r5, ror #8]
 c5c:	5f6f6970 	svcpl	0x006f6970
 c60:	5f746573 	svcpl	0x00746573
 c64:	636e7566 	cmnvs	lr, #427819008	; 0x19800000
 c68:	6e6f6974 	mcrvs	9, 3, r6, cr15, cr4, {3}
 c6c:	656e5f00 	strbvs	r5, [lr, #-3840]!	; 0xf00
 c70:	00667478 	rsbeq	r7, r6, r8, ror r4
 c74:	6d745f5f 	ldclvs	15, cr5, [r4, #-380]!	; 0xfffffe84
 c78:	6e6f6d5f 	mcrvs	13, 3, r6, cr15, cr15, {2}
 c7c:	74615f00 	strbtvc	r5, [r1], #-3840	; 0xf00
 c80:	74697865 	strbtvc	r7, [r9], #-2149	; 0x865
 c84:	735f5f00 	cmpvc	pc, #0, 30
 c88:	69646964 	stmdbvs	r4!, {r2, r5, r6, r8, fp, sp, lr}^
 c8c:	0074696e 	rsbseq	r6, r4, lr, ror #18
 c90:	66666f5f 	uqsaxvs	r6, r6, pc	; <UNPREDICTABLE>
 c94:	7500745f 	strvc	r7, [r0, #-1119]	; 0x45f
 c98:	00747261 	rsbseq	r7, r4, r1, ror #4
 c9c:	6572665f 	ldrbvs	r6, [r2, #-1631]!	; 0x65f
 ca0:	73696c65 	cmnvc	r9, #25856	; 0x6500
 ca4:	4c5f0074 	mrrcmi	0, 7, r0, pc, cr4	; <UNPREDICTABLE>
 ca8:	5f4b434f 	svcpl	0x004b434f
 cac:	55434552 	strbpl	r4, [r3, #-1362]	; 0x552
 cb0:	56495352 			; <UNDEFINED> instruction: 0x56495352
 cb4:	00545f45 	subseq	r5, r4, r5, asr #30
 cb8:	77656e5f 			; <UNDEFINED> instruction: 0x77656e5f
 cbc:	5f685f00 	svcpl	0x00685f00
 cc0:	6e727265 	cdpvs	2, 7, cr7, cr2, cr5, {3}
 cc4:	5f5f006f 	svcpl	0x005f006f
 cc8:	795f6d74 	ldmdbvc	pc, {r2, r4, r5, r6, r8, sl, fp, sp, lr}^	; <UNPREDICTABLE>
 ccc:	00796164 	rsbseq	r6, r9, r4, ror #2
 cd0:	62735f5f 	rsbsvs	r5, r3, #380	; 0x17c
 cd4:	5f006675 	svcpl	0x00006675
 cd8:	73626f69 	cmnvc	r2, #420	; 0x1a4
 cdc:	465f5f00 	ldrbmi	r5, [pc], -r0, lsl #30
 ce0:	00454c49 	subeq	r4, r5, r9, asr #24
 ce4:	73626d5f 	cmnvc	r2, #6080	; 0x17c0
 ce8:	65746174 	ldrbvs	r6, [r4, #-372]!	; 0x174
 cec:	5f00745f 	svcpl	0x0000745f
 cf0:	4946735f 	stmdbmi	r6, {r0, r1, r2, r3, r4, r6, r8, r9, ip, sp, lr}^
 cf4:	5f00454c 	svcpl	0x0000454c
 cf8:	7473626d 	ldrbtvc	r6, [r3], #-621	; 0x26d
 cfc:	00657461 	rsbeq	r7, r5, r1, ror #8
 d00:	6e61725f 	mcrvs	2, 3, r7, cr1, cr15, {2}
 d04:	656e5f64 	strbvs	r5, [lr, #-3940]!	; 0xf64
 d08:	5f007478 	svcpl	0x00007478
 d0c:	656c626d 	strbvs	r6, [ip, #-621]!	; 0x26d
 d10:	74735f6e 	ldrbtvc	r5, [r3], #-3950	; 0xf6e
 d14:	00657461 	rsbeq	r7, r5, r1, ror #8
 d18:	636e695f 	cmnvs	lr, #1556480	; 0x17c000
 d1c:	6e695f00 	cdpvs	15, 6, cr5, cr9, cr0, {0}
 d20:	635f0064 	cmpvs	pc, #100	; 0x64
 d24:	65727275 	ldrbvs	r7, [r2, #-629]!	; 0x275
 d28:	6c5f746e 	cfldrdvs	mvd7, [pc], {110}	; 0x6e
 d2c:	6c61636f 	stclvs	3, cr6, [r1], #-444	; 0xfffffe44
 d30:	5f5f0065 	svcpl	0x005f0065
 d34:	61656c63 	cmnvs	r5, r3, ror #24
 d38:	0070756e 	rsbseq	r7, r0, lr, ror #10
 d3c:	78616d5f 	stmdavc	r1!, {r0, r1, r2, r3, r4, r6, r8, sl, fp, sp, lr}^
 d40:	00736477 	rsbseq	r6, r3, r7, ror r4
 d44:	6565725f 	strbvs	r7, [r5, #-607]!	; 0x25f
 d48:	5f00746e 	svcpl	0x0000746e
 d4c:	64656573 	strbtvs	r6, [r5], #-1395	; 0x573
 d50:	635f5f00 	cmpvs	pc, #0, 30
 d54:	746e756f 	strbtvc	r7, [lr], #-1391	; 0x56f
 d58:	765f5f00 	ldrbvc	r5, [pc], -r0, lsl #30
 d5c:	65756c61 	ldrbvs	r6, [r5, #-3169]!	; 0xc61
 d60:	65735f00 	ldrbvs	r5, [r3, #-3840]!	; 0xf00
 d64:	62006b65 	andvs	r6, r0, #103424	; 0x19400
 d68:	00647561 	rsbeq	r7, r4, r1, ror #10
 d6c:	6f70665f 	svcvs	0x0070665f
 d70:	00745f73 	rsbseq	r5, r4, r3, ror pc
 d74:	6d745f5f 	ldclvs	15, cr5, [r4, #-380]!	; 0xfffffe84
 d78:	6e696d5f 	mcrvs	13, 3, r6, cr9, cr15, {2}
 d7c:	72637300 	rsbvc	r7, r3, #0, 6
 d80:	68637461 	stmdavs	r3!, {r0, r5, r6, sl, ip, sp, lr}^
 d84:	756d5f00 	strbvc	r5, [sp, #-3840]!	; 0xf00
 d88:	7000746c 	andvc	r7, r0, ip, ror #8
 d8c:	32337475 	eorscc	r7, r3, #1962934272	; 0x75000000
 d90:	554e4700 	strbpl	r4, [lr, #-1792]	; 0x700
 d94:	39394320 	ldmdbcc	r9!, {r5, r8, r9, lr}
 d98:	332e3620 	teqcc	lr, #32, 12	; 0x2000000
 d9c:	3220312e 	eorcc	r3, r0, #-2147483637	; 0x8000000b
 da0:	30373130 	eorscc	r3, r7, r0, lsr r1
 da4:	20303236 	eorscs	r3, r0, r6, lsr r2
 da8:	70636d2d 	rsbvc	r6, r3, sp, lsr #26
 dac:	72613d75 	rsbvc	r3, r1, #7488	; 0x1d40
 db0:	3731316d 	ldrcc	r3, [r1, -sp, ror #2]!
 db4:	667a6a36 			; <UNDEFINED> instruction: 0x667a6a36
 db8:	2d20732d 	stccs	3, cr7, [r0, #-180]!	; 0xffffff4c
 dbc:	6e75746d 	cdpvs	4, 7, cr7, cr5, cr13, {3}
 dc0:	72613d65 	rsbvc	r3, r1, #6464	; 0x1940
 dc4:	3731316d 	ldrcc	r3, [r1, -sp, ror #2]!
 dc8:	667a6a36 			; <UNDEFINED> instruction: 0x667a6a36
 dcc:	2d20732d 	stccs	3, cr7, [r0, #-180]!	; 0xffffff4c
 dd0:	62646767 	rsbvs	r6, r4, #27000832	; 0x19c0000
 dd4:	674f2d20 	strbvs	r2, [pc, -r0, lsr #26]
 dd8:	74732d20 	ldrbtvc	r2, [r3], #-3360	; 0xd20
 ddc:	6e673d64 	cdpvs	13, 6, cr3, cr7, cr4, {3}
 de0:	20393975 	eorscs	r3, r9, r5, ror r9
 de4:	7266662d 	rsbvc	r6, r6, #47185920	; 0x2d00000
 de8:	74736565 	ldrbtvc	r6, [r3], #-1381	; 0x565
 dec:	69646e61 	stmdbvs	r4!, {r0, r5, r6, r9, sl, fp, sp, lr}^
 df0:	5f00676e 	svcpl	0x0000676e
 df4:	74727473 	ldrbtvc	r7, [r2], #-1139	; 0x473
 df8:	6c5f6b6f 	mrrcvs	11, 6, r6, pc, cr15	; <UNPREDICTABLE>
 dfc:	00747361 	rsbseq	r7, r4, r1, ror #6
 e00:	746e665f 	strbtvc	r6, [lr], #-1631	; 0x65f
 e04:	73657079 	cmnvc	r5, #121	; 0x79
 e08:	64615f00 	strbtvs	r5, [r1], #-3840	; 0xf00
 e0c:	5f5f0064 	svcpl	0x005f0064
 e10:	6e6f4c55 	mcrvs	12, 3, r4, cr15, cr5, {2}
 e14:	675f0067 	ldrbvs	r0, [pc, -r7, rrx]
 e18:	61647465 	cmnvs	r4, r5, ror #8
 e1c:	655f6574 	ldrbvs	r6, [pc, #-1396]	; 8b0 <__code_start__-0x7750>
 e20:	5f007272 	svcpl	0x00007272
 e24:	626f6c67 	rsbvs	r6, pc, #26368	; 0x6700
 e28:	695f6c61 	ldmdbvs	pc, {r0, r5, r6, sl, fp, sp, lr}^	; <UNPREDICTABLE>
 e2c:	7275706d 	rsbsvc	r7, r5, #109	; 0x6d
 e30:	74705f65 	ldrbtvc	r5, [r0], #-3941	; 0xf65
 e34:	635f0072 	cmpvs	pc, #114	; 0x72
 e38:	65727275 	ldrbvs	r7, [r2, #-629]!	; 0x275
 e3c:	635f746e 	cmpvs	pc, #1845493760	; 0x6e000000
 e40:	67657461 	strbvs	r7, [r5, -r1, ror #8]!
 e44:	0079726f 	rsbseq	r7, r9, pc, ror #4
 e48:	756e755f 	strbvc	r7, [lr, #-1375]!	; 0x55f
 e4c:	5f646573 	svcpl	0x00646573
 e50:	646e6172 	strbtvs	r6, [lr], #-370	; 0x172
 e54:	64775f00 	ldrbtvs	r5, [r7], #-3840	; 0xf00
 e58:	5f5f0073 	svcpl	0x005f0073
 e5c:	775f6d74 			; <UNDEFINED> instruction: 0x775f6d74
 e60:	00796164 	rsbseq	r6, r9, r4, ror #2
 e64:	756c675f 	strbvc	r6, [ip, #-1887]!	; 0x75f
 e68:	50470065 	subpl	r0, r7, r5, rrx
 e6c:	465f4f49 	ldrbmi	r4, [pc], -r9, asr #30
 e70:	5f434e55 	svcpl	0x00434e55
 e74:	5054554f 	subspl	r5, r4, pc, asr #10
 e78:	5f005455 	svcpl	0x00005455
 e7c:	6c616d6e 	stclvs	13, cr6, [r1], #-440	; 0xfffffe48
 e80:	00636f6c 	rsbeq	r6, r3, ip, ror #30
 e84:	34366c5f 	ldrtcc	r6, [r6], #-3167	; 0xc5f
 e88:	75625f61 	strbvc	r5, [r2, #-3937]!	; 0xf61
 e8c:	65670066 	strbvs	r0, [r7, #-102]!	; 0x66
 e90:	00323374 	eorseq	r3, r2, r4, ror r3
 e94:	74726175 	ldrbtvc	r6, [r2], #-373	; 0x175
 e98:	6e61635f 	mcrvs	3, 3, r6, cr1, cr15, {2}
 e9c:	7465675f 	strbtvc	r6, [r5], #-1887	; 0x75f
 ea0:	735f0063 	cmpvc	pc, #99	; 0x63
 ea4:	665f6769 	ldrbvs	r6, [pc], -r9, ror #14
 ea8:	00636e75 	rsbeq	r6, r3, r5, ror lr
 eac:	695f726f 	ldmdbvs	pc, {r0, r1, r2, r3, r5, r6, r9, ip, sp, lr}^	; <UNPREDICTABLE>
 eb0:	0032336e 	eorseq	r3, r2, lr, ror #6
 eb4:	74726175 	ldrbtvc	r6, [r2], #-373	; 0x175
 eb8:	7361685f 	cmnvc	r1, #6225920	; 0x5f0000
 ebc:	7461645f 	strbtvc	r6, [r1], #-1119	; 0x45f
 ec0:	50470061 	subpl	r0, r7, r1, rrx
 ec4:	465f4f49 	ldrbmi	r4, [pc], -r9, asr #30
 ec8:	5f434e55 	svcpl	0x00434e55
 ecc:	30544c41 	subscc	r4, r4, r1, asr #24
 ed0:	626e5f00 	rsbvs	r5, lr, #0, 30
 ed4:	5f006675 	svcpl	0x00006675
 ed8:	73756e75 	cmnvc	r5, #1872	; 0x750
 edc:	47006465 	strmi	r6, [r0, -r5, ror #8]
 ee0:	5f4f4950 	svcpl	0x004f4950
 ee4:	434e5546 	movtmi	r5, #58694	; 0xe546
 ee8:	544c415f 	strbpl	r4, [ip], #-351	; 0x15f
 eec:	50470033 	subpl	r0, r7, r3, lsr r0
 ef0:	465f4f49 	ldrbmi	r4, [pc], -r9, asr #30
 ef4:	5f434e55 	svcpl	0x00434e55
 ef8:	34544c41 	ldrbcc	r4, [r4], #-3137	; 0xc41
 efc:	49504700 	ldmdbmi	r0, {r8, r9, sl, lr}^
 f00:	55465f4f 	strbpl	r5, [r6, #-3919]	; 0xf4f
 f04:	415f434e 	cmpmi	pc, lr, asr #6
 f08:	0035544c 	eorseq	r5, r5, ip, asr #8
 f0c:	6d745f5f 	ldclvs	15, cr5, [r4, #-380]!	; 0xfffffe84
 f10:	6473695f 	ldrbtvs	r6, [r3], #-2399	; 0x95f
 f14:	5f007473 	svcpl	0x00007473
 f18:	61636f6c 	cmnvs	r3, ip, ror #30
 f1c:	6d69746c 	cfstrdvs	mvd7, [r9, #-432]!	; 0xfffffe50
 f20:	75625f65 	strbvc	r5, [r2, #-3941]!	; 0xf65
 f24:	635f0066 	cmpvs	pc, #102	; 0x66
 f28:	65736f6c 	ldrbvs	r6, [r3, #-3948]!	; 0xf6c
 f2c:	34725f00 	ldrbtcc	r5, [r2], #-3840	; 0xf00
 f30:	6d5f0038 	ldclvs	0, cr0, [pc, #-224]	; e58 <__code_start__-0x71a8>
 f34:	776f7462 	strbvc	r7, [pc, -r2, ror #8]!
 f38:	74735f63 	ldrbtvc	r5, [r3], #-3939	; 0xf63
 f3c:	00657461 	rsbeq	r7, r5, r1, ror #8
 f40:	7335705f 	teqvc	r5, #95	; 0x5f
 f44:	745f5f00 	ldrbvc	r5, [pc], #-3840	; f4c <__code_start__-0x70b4>
 f48:	646d5f6d 	strbtvs	r5, [sp], #-3949	; 0xf6d
 f4c:	67007961 	strvs	r7, [r0, -r1, ror #18]
 f50:	5f6f6970 	svcpl	0x006f6970
 f54:	5f746573 	svcpl	0x00746573
 f58:	0066666f 	rsbeq	r6, r6, pc, ror #12
 f5c:	6b6e6162 	blvs	1b994ec <__bss_end__+0x1b8e9dc>
 f60:	69706700 	ldmdbvs	r0!, {r8, r9, sl, sp, lr}^
 f64:	00632e6f 	rsbeq	r2, r3, pc, ror #28
 f68:	6f697067 	svcvs	0x00697067
 f6c:	6165725f 	cmnvs	r5, pc, asr r2
 f70:	70670064 	rsbvc	r0, r7, r4, rrx
 f74:	735f6f69 	cmpvc	pc, #420	; 0x1a4
 f78:	6f5f7465 	svcvs	0x005f7465
 f7c:	75707475 	ldrbvc	r7, [r0, #-1141]!	; 0x475
 f80:	70670074 	rsbvc	r0, r7, r4, ror r0
 f84:	775f6f69 	ldrbvc	r6, [pc, -r9, ror #30]
 f88:	65746972 	ldrbvs	r6, [r4, #-2418]!	; 0x972
 f8c:	69706700 	ldmdbvs	r0!, {r8, r9, sl, sp, lr}^
 f90:	65735f6f 	ldrbvs	r5, [r3, #-3951]!	; 0xf6f
 f94:	67003074 	smlsdxvs	r0, r4, r0, r3
 f98:	5f6f6970 	svcpl	0x006f6970
 f9c:	3076656c 	rsbscc	r6, r6, ip, ror #10
 fa0:	69706700 	ldmdbvs	r0!, {r8, r9, sl, sp, lr}^
 fa4:	65735f6f 	ldrbvs	r5, [r3, #-3951]!	; 0xf6f
 fa8:	6e695f74 	mcrvs	15, 3, r5, cr9, cr4, {3}
 fac:	00747570 	rsbseq	r7, r4, r0, ror r5
 fb0:	6f697067 	svcvs	0x00697067
 fb4:	7465735f 	strbtvc	r7, [r5], #-863	; 0x35f
 fb8:	006e6f5f 	rsbeq	r6, lr, pc, asr pc
 fbc:	6f697067 	svcvs	0x00697067
 fc0:	6e75665f 	mrcvs	6, 3, r6, cr5, cr15, {2}
 fc4:	00745f63 	rsbseq	r5, r4, r3, ror #30
 fc8:	6f697067 	svcvs	0x00697067
 fcc:	726c635f 	rsbvc	r6, ip, #2080374785	; 0x7c000001
 fd0:	Address 0x0000000000000fd0 is out of bounds.


Disassembly of section .debug_frame:

00000000 <.debug_frame>:
   0:	0000000c 	andeq	r0, r0, ip
   4:	ffffffff 			; <UNDEFINED> instruction: 0xffffffff
   8:	7c020001 	stcvc	0, cr0, [r2], {1}
   c:	000d0c0e 	andeq	r0, sp, lr, lsl #24
  10:	00000014 	andeq	r0, r0, r4, lsl r0
  14:	00000000 	andeq	r0, r0, r0
  18:	00008020 	andeq	r8, r0, r0, lsr #32
  1c:	0000008c 	andeq	r0, r0, ip, lsl #1
  20:	8e040e42 	cdphi	14, 0, cr0, cr4, cr2, {2}
  24:	100e4201 	andne	r4, lr, r1, lsl #4
  28:	00000014 	andeq	r0, r0, r4, lsl r0
  2c:	00000000 	andeq	r0, r0, r0
  30:	000080ac 	andeq	r8, r0, ip, lsr #1
  34:	000001d8 	ldrdeq	r0, [r0], -r8
  38:	8e040e42 	cdphi	14, 0, cr0, cr4, cr2, {2}
  3c:	100e4201 	andne	r4, lr, r1, lsl #4
  40:	00000014 	andeq	r0, r0, r4, lsl r0
  44:	00000000 	andeq	r0, r0, r0
  48:	00008284 	andeq	r8, r0, r4, lsl #5
  4c:	00000088 	andeq	r0, r0, r8, lsl #1
  50:	8e040e42 	cdphi	14, 0, cr0, cr4, cr2, {2}
  54:	100e4201 	andne	r4, lr, r1, lsl #4
  58:	0000000c 	andeq	r0, r0, ip
  5c:	00000000 	andeq	r0, r0, r0
  60:	0000830c 	andeq	r8, r0, ip, lsl #6
  64:	00000020 	andeq	r0, r0, r0, lsr #32
  68:	00000014 	andeq	r0, r0, r4, lsl r0
  6c:	00000000 	andeq	r0, r0, r0
  70:	0000832c 	andeq	r8, r0, ip, lsr #6
  74:	0000006c 	andeq	r0, r0, ip, rrx
  78:	8e040e42 	cdphi	14, 0, cr0, cr4, cr2, {2}
  7c:	100e4201 	andne	r4, lr, r1, lsl #4
  80:	0000000c 	andeq	r0, r0, ip
  84:	00000000 	andeq	r0, r0, r0
  88:	00008398 	muleq	r0, r8, r3
  8c:	00000070 	andeq	r0, r0, r0, ror r0
  90:	0000001c 	andeq	r0, r0, ip, lsl r0
  94:	00000000 	andeq	r0, r0, r0
  98:	00008408 	andeq	r8, r0, r8, lsl #8
  9c:	000002a0 	andeq	r0, r0, r0, lsr #5
  a0:	84100e42 	ldrhi	r0, [r0], #-3650	; 0xe42
  a4:	86038504 	strhi	r8, [r3], -r4, lsl #10
  a8:	42018e02 	andmi	r8, r1, #2, 28
  ac:	0000500e 	andeq	r5, r0, lr
  b0:	0000000c 	andeq	r0, r0, ip
  b4:	ffffffff 			; <UNDEFINED> instruction: 0xffffffff
  b8:	7c020001 	stcvc	0, cr0, [r2], {1}
  bc:	000d0c0e 	andeq	r0, sp, lr, lsl #24
  c0:	00000014 	andeq	r0, r0, r4, lsl r0
  c4:	000000b0 	strheq	r0, [r0], -r0	; <UNPREDICTABLE>
  c8:	000086a8 	andeq	r8, r0, r8, lsr #13
  cc:	000000b0 	strheq	r0, [r0], -r0	; <UNPREDICTABLE>
  d0:	8e040e42 	cdphi	14, 0, cr0, cr4, cr2, {2}
  d4:	100e4201 	andne	r4, lr, r1, lsl #4
  d8:	00000014 	andeq	r0, r0, r4, lsl r0
  dc:	000000b0 	strheq	r0, [r0], -r0	; <UNPREDICTABLE>
  e0:	00008758 	andeq	r8, r0, r8, asr r7
  e4:	000000dc 	ldrdeq	r0, [r0], -ip
  e8:	8e040e42 	cdphi	14, 0, cr0, cr4, cr2, {2}
  ec:	100e4201 	andne	r4, lr, r1, lsl #4
  f0:	00000014 	andeq	r0, r0, r4, lsl r0
  f4:	000000b0 	strheq	r0, [r0], -r0	; <UNPREDICTABLE>
  f8:	00008834 	andeq	r8, r0, r4, lsr r8
  fc:	0000003c 	andeq	r0, r0, ip, lsr r0
 100:	83080e42 	movwhi	r0, #36418	; 0x8e42
 104:	00018e02 	andeq	r8, r1, r2, lsl #28
 108:	0000000c 	andeq	r0, r0, ip
 10c:	000000b0 	strheq	r0, [r0], -r0	; <UNPREDICTABLE>
 110:	00008870 	andeq	r8, r0, r0, ror r8
 114:	00000034 	andeq	r0, r0, r4, lsr r0
 118:	00000014 	andeq	r0, r0, r4, lsl r0
 11c:	000000b0 	strheq	r0, [r0], -r0	; <UNPREDICTABLE>
 120:	000088a4 	andeq	r8, r0, r4, lsr #17
 124:	00000098 	muleq	r0, r8, r0
 128:	8e040e42 	cdphi	14, 0, cr0, cr4, cr2, {2}
 12c:	100e4201 	andne	r4, lr, r1, lsl #4
 130:	0000000c 	andeq	r0, r0, ip
 134:	000000b0 	strheq	r0, [r0], -r0	; <UNPREDICTABLE>
 138:	0000893c 	andeq	r8, r0, ip, lsr r9
 13c:	00000004 	andeq	r0, r0, r4
 140:	00000014 	andeq	r0, r0, r4, lsl r0
 144:	000000b0 	strheq	r0, [r0], -r0	; <UNPREDICTABLE>
 148:	00008940 	andeq	r8, r0, r0, asr #18
 14c:	0000002c 	andeq	r0, r0, ip, lsr #32
 150:	83080e42 	movwhi	r0, #36418	; 0x8e42
 154:	00018e02 	andeq	r8, r1, r2, lsl #28
 158:	0000000c 	andeq	r0, r0, ip
 15c:	000000b0 	strheq	r0, [r0], -r0	; <UNPREDICTABLE>
 160:	0000896c 	andeq	r8, r0, ip, ror #18
 164:	00000034 	andeq	r0, r0, r4, lsr r0
 168:	0000000c 	andeq	r0, r0, ip
 16c:	000000b0 	strheq	r0, [r0], -r0	; <UNPREDICTABLE>
 170:	000089a0 	andeq	r8, r0, r0, lsr #19
 174:	00000010 	andeq	r0, r0, r0, lsl r0
 178:	00000014 	andeq	r0, r0, r4, lsl r0
 17c:	000000b0 	strheq	r0, [r0], -r0	; <UNPREDICTABLE>
 180:	000089b0 			; <UNDEFINED> instruction: 0x000089b0
 184:	00000070 	andeq	r0, r0, r0, ror r0
 188:	83080e42 	movwhi	r0, #36418	; 0x8e42
 18c:	00018e02 	andeq	r8, r1, r2, lsl #28
 190:	0000000c 	andeq	r0, r0, ip
 194:	ffffffff 			; <UNDEFINED> instruction: 0xffffffff
 198:	7c020001 	stcvc	0, cr0, [r2], {1}
 19c:	000d0c0e 	andeq	r0, sp, lr, lsl #24
 1a0:	00000018 	andeq	r0, r0, r8, lsl r0
 1a4:	00000190 	muleq	r0, r0, r1
 1a8:	00008b58 	andeq	r8, r0, r8, asr fp
 1ac:	000001ac 	andeq	r0, r0, ip, lsr #3
 1b0:	840c0e42 	strhi	r0, [ip], #-3650	; 0xe42
 1b4:	8e028503 	cfsh32hi	mvfx8, mvfx2, #3
 1b8:	180e4201 	stmdane	lr, {r0, r9, lr}
 1bc:	00000024 	andeq	r0, r0, r4, lsr #32
 1c0:	00000190 	muleq	r0, r0, r1
 1c4:	00008d04 	andeq	r8, r0, r4, lsl #26
 1c8:	000004e0 	andeq	r0, r0, r0, ror #9
 1cc:	84240e42 	strthi	r0, [r4], #-3650	; 0xe42
 1d0:	86088509 	strhi	r8, [r8], -r9, lsl #10
 1d4:	88068707 	stmdahi	r6, {r0, r1, r2, r8, r9, sl, pc}
 1d8:	8a048905 	bhi	1225f4 <__bss_end__+0x117ae4>
 1dc:	8e028b03 	vmlahi.f64	d8, d2, d3
 1e0:	300e4201 	andcc	r4, lr, r1, lsl #4
 1e4:	0000000c 	andeq	r0, r0, ip
 1e8:	00000190 	muleq	r0, r0, r1
 1ec:	000091e4 	andeq	r9, r0, r4, ror #3
 1f0:	00000008 	andeq	r0, r0, r8
 1f4:	0000000c 	andeq	r0, r0, ip
 1f8:	00000190 	muleq	r0, r0, r1
 1fc:	000091ec 	andeq	r9, r0, ip, ror #3
 200:	00000028 	andeq	r0, r0, r8, lsr #32
 204:	00000014 	andeq	r0, r0, r4, lsl r0
 208:	00000190 	muleq	r0, r0, r1
 20c:	00009214 	andeq	r9, r0, r4, lsl r2
 210:	0000004c 	andeq	r0, r0, ip, asr #32
 214:	84080e42 	strhi	r0, [r8], #-3650	; 0xe42
 218:	00018e02 	andeq	r8, r1, r2, lsl #28
 21c:	0000000c 	andeq	r0, r0, ip
 220:	ffffffff 			; <UNDEFINED> instruction: 0xffffffff
 224:	7c020001 	stcvc	0, cr0, [r2], {1}
 228:	000d0c0e 	andeq	r0, sp, lr, lsl #24
 22c:	00000024 	andeq	r0, r0, r4, lsr #32
 230:	0000021c 	andeq	r0, r0, ip, lsl r2
 234:	00009260 	andeq	r9, r0, r0, ror #4
 238:	00000058 	andeq	r0, r0, r8, asr r0
 23c:	80100e42 	andshi	r0, r0, r2, asr #28
 240:	82038104 	andhi	r8, r3, #4, 2
 244:	42018302 	andmi	r8, r1, #134217728	; 0x8000000
 248:	07841c0e 	streq	r1, [r4, lr, lsl #24]
 24c:	058e0685 	streq	r0, [lr, #1669]	; 0x685
 250:	00280e42 	eoreq	r0, r8, r2, asr #28
 254:	0000000c 	andeq	r0, r0, ip
 258:	ffffffff 			; <UNDEFINED> instruction: 0xffffffff
 25c:	7c020001 	stcvc	0, cr0, [r2], {1}
 260:	000d0c0e 	andeq	r0, sp, lr, lsl #24
 264:	00000014 	andeq	r0, r0, r4, lsl r0
 268:	00000254 	andeq	r0, r0, r4, asr r2
 26c:	000092b8 			; <UNDEFINED> instruction: 0x000092b8
 270:	00000014 	andeq	r0, r0, r4, lsl r0
 274:	84080e42 	strhi	r0, [r8], #-3650	; 0xe42
 278:	00018e02 	andeq	r8, r1, r2, lsl #28
 27c:	0000000c 	andeq	r0, r0, ip
 280:	00000254 	andeq	r0, r0, r4, asr r2
 284:	000092cc 	andeq	r9, r0, ip, asr #5
 288:	00000018 	andeq	r0, r0, r8, lsl r0
 28c:	0000000c 	andeq	r0, r0, ip
 290:	00000254 	andeq	r0, r0, r4, asr r2
 294:	000092e4 	andeq	r9, r0, r4, ror #5
 298:	00000010 	andeq	r0, r0, r0, lsl r0
 29c:	0000000c 	andeq	r0, r0, ip
 2a0:	ffffffff 			; <UNDEFINED> instruction: 0xffffffff
 2a4:	7c020001 	stcvc	0, cr0, [r2], {1}
 2a8:	000d0c0e 	andeq	r0, sp, lr, lsl #24
 2ac:	00000018 	andeq	r0, r0, r8, lsl r0
 2b0:	0000029c 	muleq	r0, ip, r2
 2b4:	000092f4 	strdeq	r9, [r0], -r4
 2b8:	00000034 	andeq	r0, r0, r4, lsr r0
 2bc:	83100e42 	tsthi	r0, #1056	; 0x420
 2c0:	85038404 	strhi	r8, [r3, #-1028]	; 0x404
 2c4:	00018e02 	andeq	r8, r1, r2, lsl #28
 2c8:	0000000c 	andeq	r0, r0, ip
 2cc:	ffffffff 			; <UNDEFINED> instruction: 0xffffffff
 2d0:	7c020001 	stcvc	0, cr0, [r2], {1}
 2d4:	000d0c0e 	andeq	r0, sp, lr, lsl #24
 2d8:	0000000c 	andeq	r0, r0, ip
 2dc:	000002c8 	andeq	r0, r0, r8, asr #5
 2e0:	00009328 	andeq	r9, r0, r8, lsr #6
 2e4:	00000014 	andeq	r0, r0, r4, lsl r0
 2e8:	0000000c 	andeq	r0, r0, ip
 2ec:	000002c8 	andeq	r0, r0, r8, asr #5
 2f0:	0000933c 	andeq	r9, r0, ip, lsr r3
 2f4:	0000002c 	andeq	r0, r0, ip, lsr #32
 2f8:	0000000c 	andeq	r0, r0, ip
 2fc:	000002c8 	andeq	r0, r0, r8, asr #5
 300:	00009368 	andeq	r9, r0, r8, ror #6
 304:	00000040 	andeq	r0, r0, r0, asr #32
 308:	00000020 	andeq	r0, r0, r0, lsr #32
 30c:	000002c8 	andeq	r0, r0, r8, asr #5
 310:	000093a8 	andeq	r9, r0, r8, lsr #7
 314:	000001bc 			; <UNDEFINED> instruction: 0x000001bc
 318:	84180e42 	ldrhi	r0, [r8], #-3650	; 0xe42
 31c:	86058506 	strhi	r8, [r5], -r6, lsl #10
 320:	88038704 	stmdahi	r3, {r2, r8, r9, sl, pc}
 324:	42018e02 	andmi	r8, r1, #2, 28
 328:	0000600e 	andeq	r6, r0, lr
 32c:	00000014 	andeq	r0, r0, r4, lsl r0
 330:	000002c8 	andeq	r0, r0, r8, asr #5
 334:	00009564 	andeq	r9, r0, r4, ror #10
 338:	00000068 	andeq	r0, r0, r8, rrx
 33c:	8e040e42 	cdphi	14, 0, cr0, cr4, cr2, {2}
 340:	100e4201 	andne	r4, lr, r1, lsl #4
 344:	00000028 	andeq	r0, r0, r8, lsr #32
 348:	000002c8 	andeq	r0, r0, r8, asr #5
 34c:	000095cc 	andeq	r9, r0, ip, asr #11
 350:	000002d4 	ldrdeq	r0, [r0], -r4
 354:	84240e42 	strthi	r0, [r4], #-3650	; 0xe42
 358:	86088509 	strhi	r8, [r8], -r9, lsl #10
 35c:	88068707 	stmdahi	r6, {r0, r1, r2, r8, r9, sl, pc}
 360:	8a048905 	bhi	12277c <__bss_end__+0x117c6c>
 364:	8e028b03 	vmlahi.f64	d8, d2, d3
 368:	b80e4201 	stmdalt	lr, {r0, r9, lr}
 36c:	00000001 	andeq	r0, r0, r1
 370:	0000000c 	andeq	r0, r0, ip
 374:	ffffffff 			; <UNDEFINED> instruction: 0xffffffff
 378:	7c020001 	stcvc	0, cr0, [r2], {1}
 37c:	000d0c0e 	andeq	r0, sp, lr, lsl #24
 380:	0000000c 	andeq	r0, r0, ip
 384:	00000370 	andeq	r0, r0, r0, ror r3
 388:	000098a0 	andeq	r9, r0, r0, lsr #17
 38c:	00000010 	andeq	r0, r0, r0, lsl r0
 390:	0000000c 	andeq	r0, r0, ip
 394:	00000370 	andeq	r0, r0, r0, ror r3
 398:	000098b0 			; <UNDEFINED> instruction: 0x000098b0
 39c:	00000010 	andeq	r0, r0, r0, lsl r0
 3a0:	0000000c 	andeq	r0, r0, ip
 3a4:	ffffffff 			; <UNDEFINED> instruction: 0xffffffff
 3a8:	7c020001 	stcvc	0, cr0, [r2], {1}
 3ac:	000d0c0e 	andeq	r0, sp, lr, lsl #24
 3b0:	00000014 	andeq	r0, r0, r4, lsl r0
 3b4:	000003a0 	andeq	r0, r0, r0, lsr #7
 3b8:	000098c0 	andeq	r9, r0, r0, asr #17
 3bc:	0000002c 	andeq	r0, r0, ip, lsr #32
 3c0:	83080e42 	movwhi	r0, #36418	; 0x8e42
 3c4:	00018e02 	andeq	r8, r1, r2, lsl #28
 3c8:	0000000c 	andeq	r0, r0, ip
 3cc:	ffffffff 			; <UNDEFINED> instruction: 0xffffffff
 3d0:	7c020001 	stcvc	0, cr0, [r2], {1}
 3d4:	000d0c0e 	andeq	r0, sp, lr, lsl #24
 3d8:	00000014 	andeq	r0, r0, r4, lsl r0
 3dc:	000003c8 	andeq	r0, r0, r8, asr #7
 3e0:	000098ec 	andeq	r9, r0, ip, ror #17
 3e4:	00000038 	andeq	r0, r0, r8, lsr r0
 3e8:	83080e42 	movwhi	r0, #36418	; 0x8e42
 3ec:	00018e02 	andeq	r8, r1, r2, lsl #28
 3f0:	0000000c 	andeq	r0, r0, ip
 3f4:	ffffffff 			; <UNDEFINED> instruction: 0xffffffff
 3f8:	7c020001 	stcvc	0, cr0, [r2], {1}
 3fc:	000d0c0e 	andeq	r0, sp, lr, lsl #24
 400:	00000014 	andeq	r0, r0, r4, lsl r0
 404:	000003f0 	strdeq	r0, [r0], -r0	; <UNPREDICTABLE>
 408:	00009924 	andeq	r9, r0, r4, lsr #18
 40c:	00000044 	andeq	r0, r0, r4, asr #32
 410:	8e040e42 	cdphi	14, 0, cr0, cr4, cr2, {2}
 414:	100e4201 	andne	r4, lr, r1, lsl #4
 418:	0000000c 	andeq	r0, r0, ip
 41c:	ffffffff 			; <UNDEFINED> instruction: 0xffffffff
 420:	7c020001 	stcvc	0, cr0, [r2], {1}
 424:	000d0c0e 	andeq	r0, sp, lr, lsl #24
 428:	00000014 	andeq	r0, r0, r4, lsl r0
 42c:	00000418 	andeq	r0, r0, r8, lsl r4
 430:	00009968 	andeq	r9, r0, r8, ror #18
 434:	00000044 	andeq	r0, r0, r4, asr #32
 438:	8e040e42 	cdphi	14, 0, cr0, cr4, cr2, {2}
 43c:	100e4201 	andne	r4, lr, r1, lsl #4
 440:	0000000c 	andeq	r0, r0, ip
 444:	ffffffff 			; <UNDEFINED> instruction: 0xffffffff
 448:	7c020001 	stcvc	0, cr0, [r2], {1}
 44c:	000d0c0e 	andeq	r0, sp, lr, lsl #24
 450:	00000014 	andeq	r0, r0, r4, lsl r0
 454:	00000440 	andeq	r0, r0, r0, asr #8
 458:	000099ac 	andeq	r9, r0, ip, lsr #19
 45c:	00000044 	andeq	r0, r0, r4, asr #32
 460:	8e040e42 	cdphi	14, 0, cr0, cr4, cr2, {2}
 464:	100e4201 	andne	r4, lr, r1, lsl #4
 468:	0000000c 	andeq	r0, r0, ip
 46c:	ffffffff 			; <UNDEFINED> instruction: 0xffffffff
 470:	7c020001 	stcvc	0, cr0, [r2], {1}
 474:	000d0c0e 	andeq	r0, sp, lr, lsl #24
 478:	0000000c 	andeq	r0, r0, ip
 47c:	00000468 	andeq	r0, r0, r8, ror #8
 480:	000099f0 	strdeq	r9, [r0], -r0
 484:	00000004 	andeq	r0, r0, r4
 488:	0000000c 	andeq	r0, r0, ip
 48c:	00000468 	andeq	r0, r0, r8, ror #8
 490:	000099f4 	strdeq	r9, [r0], -r4
 494:	00000004 	andeq	r0, r0, r4
 498:	0000000c 	andeq	r0, r0, ip
 49c:	ffffffff 			; <UNDEFINED> instruction: 0xffffffff
 4a0:	7c020001 	stcvc	0, cr0, [r2], {1}
 4a4:	000d0c0e 	andeq	r0, sp, lr, lsl #24
 4a8:	00000014 	andeq	r0, r0, r4, lsl r0
 4ac:	00000498 	muleq	r0, r8, r4
 4b0:	000099f8 	strdeq	r9, [r0], -r8
 4b4:	0000006c 	andeq	r0, r0, ip, rrx
 4b8:	83080e42 	movwhi	r0, #36418	; 0x8e42
 4bc:	00018e02 	andeq	r8, r1, r2, lsl #28
 4c0:	0000000c 	andeq	r0, r0, ip
 4c4:	ffffffff 			; <UNDEFINED> instruction: 0xffffffff
 4c8:	7c020001 	stcvc	0, cr0, [r2], {1}
 4cc:	000d0c0e 	andeq	r0, sp, lr, lsl #24
 4d0:	0000000c 	andeq	r0, r0, ip
 4d4:	000004c0 	andeq	r0, r0, r0, asr #9
 4d8:	00009a64 	andeq	r9, r0, r4, ror #20
 4dc:	00000018 	andeq	r0, r0, r8, lsl r0
 4e0:	0000000c 	andeq	r0, r0, ip
 4e4:	000004c0 	andeq	r0, r0, r0, asr #9
 4e8:	00009a7c 	andeq	r9, r0, ip, ror sl
 4ec:	00000014 	andeq	r0, r0, r4, lsl r0
 4f0:	00000014 	andeq	r0, r0, r4, lsl r0
 4f4:	000004c0 	andeq	r0, r0, r0, asr #9
 4f8:	00009a90 	muleq	r0, r0, sl
 4fc:	00000048 	andeq	r0, r0, r8, asr #32
 500:	83080e42 	movwhi	r0, #36418	; 0x8e42
 504:	00018e02 	andeq	r8, r1, r2, lsl #28
 508:	0000000c 	andeq	r0, r0, ip
 50c:	ffffffff 			; <UNDEFINED> instruction: 0xffffffff
 510:	7c020001 	stcvc	0, cr0, [r2], {1}
 514:	000d0c0e 	andeq	r0, sp, lr, lsl #24
 518:	0000000c 	andeq	r0, r0, ip
 51c:	00000508 	andeq	r0, r0, r8, lsl #10
 520:	00009ad8 	ldrdeq	r9, [r0], -r8
 524:	0000001c 	andeq	r0, r0, ip, lsl r0
 528:	00000014 	andeq	r0, r0, r4, lsl r0
 52c:	00000508 	andeq	r0, r0, r8, lsl #10
 530:	00009af4 	strdeq	r9, [r0], -r4
 534:	00000014 	andeq	r0, r0, r4, lsl r0
 538:	83080e42 	movwhi	r0, #36418	; 0x8e42
 53c:	00018e02 	andeq	r8, r1, r2, lsl #28
 540:	00000014 	andeq	r0, r0, r4, lsl r0
 544:	00000508 	andeq	r0, r0, r8, lsl #10
 548:	00009b08 	andeq	r9, r0, r8, lsl #22
 54c:	0000001c 	andeq	r0, r0, ip, lsl r0
 550:	84080e42 	strhi	r0, [r8], #-3650	; 0xe42
 554:	00018e02 	andeq	r8, r1, r2, lsl #28
 558:	00000018 	andeq	r0, r0, r8, lsl r0
 55c:	00000508 	andeq	r0, r0, r8, lsl #10
 560:	00009b24 	andeq	r9, r0, r4, lsr #22
 564:	00000024 	andeq	r0, r0, r4, lsr #32
 568:	83100e42 	tsthi	r0, #1056	; 0x420
 56c:	85038404 	strhi	r8, [r3, #-1028]	; 0x404
 570:	00018e02 	andeq	r8, r1, r2, lsl #28
 574:	00000014 	andeq	r0, r0, r4, lsl r0
 578:	00000508 	andeq	r0, r0, r8, lsl #10
 57c:	00009b48 	andeq	r9, r0, r8, asr #22
 580:	00000014 	andeq	r0, r0, r4, lsl r0
 584:	83080e42 	movwhi	r0, #36418	; 0x8e42
 588:	00018e02 	andeq	r8, r1, r2, lsl #28
 58c:	00000014 	andeq	r0, r0, r4, lsl r0
 590:	00000508 	andeq	r0, r0, r8, lsl #10
 594:	00009b5c 	andeq	r9, r0, ip, asr fp
 598:	00000014 	andeq	r0, r0, r4, lsl r0
 59c:	83080e42 	movwhi	r0, #36418	; 0x8e42
 5a0:	00018e02 	andeq	r8, r1, r2, lsl #28
 5a4:	0000000c 	andeq	r0, r0, ip
 5a8:	ffffffff 			; <UNDEFINED> instruction: 0xffffffff
 5ac:	7c020001 	stcvc	0, cr0, [r2], {1}
 5b0:	000d0c0e 	andeq	r0, sp, lr, lsl #24
 5b4:	00000018 	andeq	r0, r0, r8, lsl r0
 5b8:	000005a4 	andeq	r0, r0, r4, lsr #11
 5bc:	00009bd4 	ldrdeq	r9, [r0], -r4
 5c0:	00000020 	andeq	r0, r0, r0, lsr #32
 5c4:	84100e42 	ldrhi	r0, [r0], #-3650	; 0xe42
 5c8:	86038504 	strhi	r8, [r3], -r4, lsl #10
 5cc:	00018e02 	andeq	r8, r1, r2, lsl #28
 5d0:	00000014 	andeq	r0, r0, r4, lsl r0
 5d4:	000005a4 	andeq	r0, r0, r4, lsr #11
 5d8:	00009bf4 	strdeq	r9, [r0], -r4
 5dc:	000000b0 	strheq	r0, [r0], -r0	; <UNPREDICTABLE>
 5e0:	84080e42 	strhi	r0, [r8], #-3650	; 0xe42
 5e4:	00018e02 	andeq	r8, r1, r2, lsl #28
 5e8:	00000014 	andeq	r0, r0, r4, lsl r0
 5ec:	000005a4 	andeq	r0, r0, r4, lsr #11
 5f0:	00009ca4 	andeq	r9, r0, r4, lsr #25
 5f4:	00000018 	andeq	r0, r0, r8, lsl r0
 5f8:	84080e42 	strhi	r0, [r8], #-3650	; 0xe42
 5fc:	00018e02 	andeq	r8, r1, r2, lsl #28
 600:	00000014 	andeq	r0, r0, r4, lsl r0
 604:	000005a4 	andeq	r0, r0, r4, lsr #11
 608:	00009cbc 			; <UNDEFINED> instruction: 0x00009cbc
 60c:	00000020 	andeq	r0, r0, r0, lsr #32
 610:	84080e42 	strhi	r0, [r8], #-3650	; 0xe42
 614:	00018e02 	andeq	r8, r1, r2, lsl #28
 618:	00000014 	andeq	r0, r0, r4, lsl r0
 61c:	000005a4 	andeq	r0, r0, r4, lsr #11
 620:	00009cdc 	ldrdeq	r9, [r0], -ip
 624:	00000030 	andeq	r0, r0, r0, lsr r0
 628:	84080e42 	strhi	r0, [r8], #-3650	; 0xe42
 62c:	00018e02 	andeq	r8, r1, r2, lsl #28
 630:	00000014 	andeq	r0, r0, r4, lsl r0
 634:	000005a4 	andeq	r0, r0, r4, lsr #11
 638:	00009d0c 	andeq	r9, r0, ip, lsl #26
 63c:	00000030 	andeq	r0, r0, r0, lsr r0
 640:	84080e42 	strhi	r0, [r8], #-3650	; 0xe42
 644:	00018e02 	andeq	r8, r1, r2, lsl #28
 648:	00000014 	andeq	r0, r0, r4, lsl r0
 64c:	000005a4 	andeq	r0, r0, r4, lsr #11
 650:	00009d3c 	andeq	r9, r0, ip, lsr sp
 654:	00000010 	andeq	r0, r0, r0, lsl r0
 658:	84080e42 	strhi	r0, [r8], #-3650	; 0xe42
 65c:	00018e02 	andeq	r8, r1, r2, lsl #28
 660:	0000000c 	andeq	r0, r0, ip
 664:	ffffffff 			; <UNDEFINED> instruction: 0xffffffff
 668:	7c020001 	stcvc	0, cr0, [r2], {1}
 66c:	000d0c0e 	andeq	r0, sp, lr, lsl #24
 670:	00000018 	andeq	r0, r0, r8, lsl r0
 674:	00000660 	andeq	r0, r0, r0, ror #12
 678:	00009d4c 	andeq	r9, r0, ip, asr #26
 67c:	00000068 	andeq	r0, r0, r8, rrx
 680:	84100e4a 	ldrhi	r0, [r0], #-3658	; 0xe4a
 684:	86038504 	strhi	r8, [r3], -r4, lsl #10
 688:	00018e02 	andeq	r8, r1, r2, lsl #28
 68c:	00000014 	andeq	r0, r0, r4, lsl r0
 690:	00000660 	andeq	r0, r0, r0, ror #12
 694:	00009db4 			; <UNDEFINED> instruction: 0x00009db4
 698:	00000010 	andeq	r0, r0, r0, lsl r0
 69c:	84080e42 	strhi	r0, [r8], #-3650	; 0xe42
 6a0:	00018e02 	andeq	r8, r1, r2, lsl #28
 6a4:	00000014 	andeq	r0, r0, r4, lsl r0
 6a8:	00000660 	andeq	r0, r0, r0, ror #12
 6ac:	00009dc4 	andeq	r9, r0, r4, asr #27
 6b0:	00000024 	andeq	r0, r0, r4, lsr #32
 6b4:	84080e46 	strhi	r0, [r8], #-3654	; 0xe46
 6b8:	00018e02 	andeq	r8, r1, r2, lsl #28
 6bc:	00000014 	andeq	r0, r0, r4, lsl r0
 6c0:	00000660 	andeq	r0, r0, r0, ror #12
 6c4:	00009de8 	andeq	r9, r0, r8, ror #27
 6c8:	00000024 	andeq	r0, r0, r4, lsr #32
 6cc:	84080e46 	strhi	r0, [r8], #-3654	; 0xe46
 6d0:	00018e02 	andeq	r8, r1, r2, lsl #28
 6d4:	00000014 	andeq	r0, r0, r4, lsl r0
 6d8:	00000660 	andeq	r0, r0, r0, ror #12
 6dc:	00009e0c 	andeq	r9, r0, ip, lsl #28
 6e0:	00000010 	andeq	r0, r0, r0, lsl r0
 6e4:	84080e42 	strhi	r0, [r8], #-3650	; 0xe42
 6e8:	00018e02 	andeq	r8, r1, r2, lsl #28
 6ec:	00000014 	andeq	r0, r0, r4, lsl r0
 6f0:	00000660 	andeq	r0, r0, r0, ror #12
 6f4:	00009e1c 	andeq	r9, r0, ip, lsl lr
 6f8:	0000001c 	andeq	r0, r0, ip, lsl r0
 6fc:	84080e42 	strhi	r0, [r8], #-3650	; 0xe42
 700:	00018e02 	andeq	r8, r1, r2, lsl #28
 704:	00000018 	andeq	r0, r0, r8, lsl r0
 708:	00000660 	andeq	r0, r0, r0, ror #12
 70c:	00009e38 	andeq	r9, r0, r8, lsr lr
 710:	00000034 	andeq	r0, r0, r4, lsr r0
 714:	84080e46 	strhi	r0, [r8], #-3654	; 0xe46
 718:	4e018e02 	cdpmi	14, 0, cr8, cr1, cr2, {0}
 71c:	cec4000e 	cdpgt	0, 12, cr0, cr4, cr14, {0}
