
tests2.0/16-part2-test3.elf:     file format elf32-littlearm


Disassembly of section .text:

00008000 <__code_start__>:
    8000:	e3a00013 	mov	r0, #19
    8004:	e129f000 	msr	CPSR_fc, r0
    8008:	e3a01000 	mov	r1, #0
    800c:	ee073f95 	mcr	15, 0, r3, cr7, cr5, {4}
    8010:	e3a0d302 	mov	sp, #134217728	; 0x8000000
    8014:	e3a0b000 	mov	fp, #0
    8018:	eb0004f9 	bl	9404 <_cstart>
    801c:	eb000561 	bl	95a8 <rpi_reboot>

00008020 <eps_A>:
    8020:	e12fff1e 	bx	lr

00008024 <eps_B>:
    8024:	e3a00001 	mov	r0, #1
    8028:	e12fff1e 	bx	lr

0000802c <eps_init>:
    802c:	e12fff1e 	bx	lr

00008030 <eps_check>:
    8030:	e5903030 	ldr	r3, [r0, #48]	; 0x30
    8034:	e3530000 	cmp	r3, #0
    8038:	0a000001 	beq	8044 <eps_check+0x14>
    803c:	e3a00000 	mov	r0, #0
    8040:	e12fff1e 	bx	lr
    8044:	e3a00001 	mov	r0, #1
    8048:	e12fff1e 	bx	lr

0000804c <eps_mk_checker>:
    804c:	e1a03000 	mov	r3, r0
    8050:	e3a02000 	mov	r2, #0
    8054:	e4832004 	str	r2, [r3], #4
    8058:	e2833008 	add	r3, r3, #8
    805c:	e4832004 	str	r2, [r3], #4
    8060:	e4832004 	str	r2, [r3], #4
    8064:	e4832004 	str	r2, [r3], #4
    8068:	e4832004 	str	r2, [r3], #4
    806c:	e4832004 	str	r2, [r3], #4
    8070:	e4832004 	str	r2, [r3], #4
    8074:	e4832004 	str	r2, [r3], #4
    8078:	e4832004 	str	r2, [r3], #4
    807c:	e4832004 	str	r2, [r3], #4
    8080:	e4832004 	str	r2, [r3], #4
    8084:	e5832000 	str	r2, [r3]
    8088:	e59f301c 	ldr	r3, [pc, #28]	; 80ac <eps_mk_checker+0x60>
    808c:	e5803004 	str	r3, [r0, #4]
    8090:	e59f3018 	ldr	r3, [pc, #24]	; 80b0 <eps_mk_checker+0x64>
    8094:	e5803008 	str	r3, [r0, #8]
    8098:	e59f3014 	ldr	r3, [pc, #20]	; 80b4 <eps_mk_checker+0x68>
    809c:	e580300c 	str	r3, [r0, #12]
    80a0:	e59f3010 	ldr	r3, [pc, #16]	; 80b8 <eps_mk_checker+0x6c>
    80a4:	e5803010 	str	r3, [r0, #16]
    80a8:	e12fff1e 	bx	lr
    80ac:	00008020 	andeq	r8, r0, r0, lsr #32
    80b0:	00008024 	andeq	r8, r0, r4, lsr #32
    80b4:	0000802c 	andeq	r8, r0, ip, lsr #32
    80b8:	00008030 	andeq	r8, r0, r0, lsr r0

000080bc <notmain>:
    80bc:	e52de004 	push	{lr}		; (str lr, [sp, #-4]!)
    80c0:	e24dd044 	sub	sp, sp, #68	; 0x44
    80c4:	eb0004bb 	bl	93b8 <enable_cache>
    80c8:	e3a02000 	mov	r2, #0
    80cc:	e59f30c4 	ldr	r3, [pc, #196]	; 8198 <notmain+0xdc>
    80d0:	e5832000 	str	r2, [r3]
    80d4:	e28d0008 	add	r0, sp, #8
    80d8:	ebffffdb 	bl	804c <eps_mk_checker>
    80dc:	e28d0008 	add	r0, sp, #8
    80e0:	eb000311 	bl	8d2c <check>
    80e4:	e3500000 	cmp	r0, #0
    80e8:	0a000014 	beq	8140 <notmain+0x84>
    80ec:	e59d3034 	ldr	r3, [sp, #52]	; 0x34
    80f0:	e3530000 	cmp	r3, #0
    80f4:	0a000008 	beq	811c <notmain+0x60>
    80f8:	eb000339 	bl	8de4 <rpi_reset_putc>
    80fc:	e59f3098 	ldr	r3, [pc, #152]	; 819c <notmain+0xe0>
    8100:	e58d3000 	str	r3, [sp]
    8104:	e59f0094 	ldr	r0, [pc, #148]	; 81a0 <notmain+0xe4>
    8108:	e59f1094 	ldr	r1, [pc, #148]	; 81a4 <notmain+0xe8>
    810c:	e59f2094 	ldr	r2, [pc, #148]	; 81a8 <notmain+0xec>
    8110:	e3a03021 	mov	r3, #33	; 0x21
    8114:	eb000317 	bl	8d78 <printk>
    8118:	eb0004ae 	bl	93d8 <clean_reboot>
    811c:	eb000330 	bl	8de4 <rpi_reset_putc>
    8120:	e59d3030 	ldr	r3, [sp, #48]	; 0x30
    8124:	e58d3000 	str	r3, [sp]
    8128:	e59f007c 	ldr	r0, [pc, #124]	; 81ac <notmain+0xf0>
    812c:	e59f1070 	ldr	r1, [pc, #112]	; 81a4 <notmain+0xe8>
    8130:	e59f2070 	ldr	r2, [pc, #112]	; 81a8 <notmain+0xec>
    8134:	e3a03023 	mov	r3, #35	; 0x23
    8138:	eb00030e 	bl	8d78 <printk>
    813c:	eb0004a5 	bl	93d8 <clean_reboot>
    8140:	e59f0068 	ldr	r0, [pc, #104]	; 81b0 <notmain+0xf4>
    8144:	e59d1030 	ldr	r1, [sp, #48]	; 0x30
    8148:	e59d2034 	ldr	r2, [sp, #52]	; 0x34
    814c:	eb000309 	bl	8d78 <printk>
    8150:	e59d3030 	ldr	r3, [sp, #48]	; 0x30
    8154:	e59d2034 	ldr	r2, [sp, #52]	; 0x34
    8158:	e1520003 	cmp	r2, r3
    815c:	0a000008 	beq	8184 <notmain+0xc8>
    8160:	eb00031f 	bl	8de4 <rpi_reset_putc>
    8164:	e59f3048 	ldr	r3, [pc, #72]	; 81b4 <notmain+0xf8>
    8168:	e58d3000 	str	r3, [sp]
    816c:	e59f002c 	ldr	r0, [pc, #44]	; 81a0 <notmain+0xe4>
    8170:	e59f102c 	ldr	r1, [pc, #44]	; 81a4 <notmain+0xe8>
    8174:	e59f202c 	ldr	r2, [pc, #44]	; 81a8 <notmain+0xec>
    8178:	e3a03027 	mov	r3, #39	; 0x27
    817c:	eb0002fd 	bl	8d78 <printk>
    8180:	eb000494 	bl	93d8 <clean_reboot>
    8184:	e59f002c 	ldr	r0, [pc, #44]	; 81b8 <notmain+0xfc>
    8188:	eb0002fa 	bl	8d78 <printk>
    818c:	e59f0028 	ldr	r0, [pc, #40]	; 81bc <notmain+0x100>
    8190:	eb0002f8 	bl	8d78 <printk>
    8194:	eb00048f 	bl	93d8 <clean_reboot>
    8198:	0000a150 	andeq	sl, r0, r0, asr r1
    819c:	000099c0 	andeq	r9, r0, r0, asr #19
    81a0:	00009990 	muleq	r0, r0, r9
    81a4:	000099a4 	andeq	r9, r0, r4, lsr #19
    81a8:	00009aa0 	andeq	r9, r0, r0, lsr #21
    81ac:	000099cc 	andeq	r9, r0, ip, asr #19
    81b0:	00009a04 	andeq	r9, r0, r4, lsl #20
    81b4:	00009a2c 	andeq	r9, r0, ip, lsr #20
    81b8:	00009a44 	andeq	r9, r0, r4, asr #20
    81bc:	00009a50 	andeq	r9, r0, r0, asr sl

000081c0 <watchpt_set0>:
    81c0:	e52de004 	push	{lr}		; (str lr, [sp, #-4]!)
    81c4:	e24dd00c 	sub	sp, sp, #12
    81c8:	ee103ef0 	mrc	14, 0, r3, cr0, cr0, {7}
    81cc:	e3c33001 	bic	r3, r3, #1
    81d0:	ee003ef0 	mcr	14, 0, r3, cr0, cr0, {7}
    81d4:	ee102ef0 	mrc	14, 0, r2, cr0, cr0, {7}
    81d8:	e1530002 	cmp	r3, r2
    81dc:	0a000008 	beq	8204 <watchpt_set0+0x44>
    81e0:	eb0002ff 	bl	8de4 <rpi_reset_putc>
    81e4:	e59f306c 	ldr	r3, [pc, #108]	; 8258 <watchpt_set0+0x98>
    81e8:	e58d3000 	str	r3, [sp]
    81ec:	e59f0068 	ldr	r0, [pc, #104]	; 825c <watchpt_set0+0x9c>
    81f0:	e59f1068 	ldr	r1, [pc, #104]	; 8260 <watchpt_set0+0xa0>
    81f4:	e59f2068 	ldr	r2, [pc, #104]	; 8264 <watchpt_set0+0xa4>
    81f8:	e3a03041 	mov	r3, #65	; 0x41
    81fc:	eb0002dd 	bl	8d78 <printk>
    8200:	eb000474 	bl	93d8 <clean_reboot>
    8204:	ee000ed0 	mcr	14, 0, r0, cr0, cr0, {6}
    8208:	e59f3058 	ldr	r3, [pc, #88]	; 8268 <watchpt_set0+0xa8>
    820c:	ee003ef0 	mcr	14, 0, r3, cr0, cr0, {7}
    8210:	ee102ef0 	mrc	14, 0, r2, cr0, cr0, {7}
    8214:	e1520003 	cmp	r2, r3
    8218:	0a000008 	beq	8240 <watchpt_set0+0x80>
    821c:	eb0002f0 	bl	8de4 <rpi_reset_putc>
    8220:	e59f3030 	ldr	r3, [pc, #48]	; 8258 <watchpt_set0+0x98>
    8224:	e58d3000 	str	r3, [sp]
    8228:	e59f002c 	ldr	r0, [pc, #44]	; 825c <watchpt_set0+0x9c>
    822c:	e59f102c 	ldr	r1, [pc, #44]	; 8260 <watchpt_set0+0xa0>
    8230:	e59f202c 	ldr	r2, [pc, #44]	; 8264 <watchpt_set0+0xa4>
    8234:	e3a03052 	mov	r3, #82	; 0x52
    8238:	eb0002ce 	bl	8d78 <printk>
    823c:	eb000465 	bl	93d8 <clean_reboot>
    8240:	e3a03000 	mov	r3, #0
    8244:	ee073f95 	mcr	15, 0, r3, cr7, cr5, {4}
    8248:	e59f301c 	ldr	r3, [pc, #28]	; 826c <watchpt_set0+0xac>
    824c:	e5831000 	str	r1, [r3]
    8250:	e28dd00c 	add	sp, sp, #12
    8254:	e49df004 	pop	{pc}		; (ldr pc, [sp], #4)
    8258:	00009ab8 			; <UNDEFINED> instruction: 0x00009ab8
    825c:	00009990 	muleq	r0, r0, r9
    8260:	00009aa8 	andeq	r9, r0, r8, lsr #21
    8264:	00009bd0 	ldrdeq	r9, [r0], -r0
    8268:	000001ff 	strdeq	r0, [r0], -pc	; <UNPREDICTABLE>
    826c:	0000a148 	andeq	sl, r0, r8, asr #2

00008270 <data_abort_vector>:
    8270:	e52de004 	push	{lr}		; (str lr, [sp, #-4]!)
    8274:	e24dd00c 	sub	sp, sp, #12
    8278:	e1a01000 	mov	r1, r0
    827c:	ee153f10 	mrc	15, 0, r3, cr5, cr0, {0}
    8280:	ee153f10 	mrc	15, 0, r3, cr5, cr0, {0}
    8284:	e203300f 	and	r3, r3, #15
    8288:	e3530002 	cmp	r3, #2
    828c:	0a000006 	beq	82ac <data_abort_vector+0x3c>
    8290:	eb0002d3 	bl	8de4 <rpi_reset_putc>
    8294:	e59f008c 	ldr	r0, [pc, #140]	; 8328 <data_abort_vector+0xb8>
    8298:	e59f108c 	ldr	r1, [pc, #140]	; 832c <data_abort_vector+0xbc>
    829c:	e59f208c 	ldr	r2, [pc, #140]	; 8330 <data_abort_vector+0xc0>
    82a0:	e3a03079 	mov	r3, #121	; 0x79
    82a4:	eb0002b3 	bl	8d78 <printk>
    82a8:	eb00044a 	bl	93d8 <clean_reboot>
    82ac:	ee103e16 	mrc	14, 0, r3, cr0, cr6, {0}
    82b0:	e2433004 	sub	r3, r3, #4
    82b4:	e1530000 	cmp	r3, r0
    82b8:	0a000008 	beq	82e0 <data_abort_vector+0x70>
    82bc:	eb0002c8 	bl	8de4 <rpi_reset_putc>
    82c0:	e59f306c 	ldr	r3, [pc, #108]	; 8334 <data_abort_vector+0xc4>
    82c4:	e58d3000 	str	r3, [sp]
    82c8:	e59f0068 	ldr	r0, [pc, #104]	; 8338 <data_abort_vector+0xc8>
    82cc:	e59f1068 	ldr	r1, [pc, #104]	; 833c <data_abort_vector+0xcc>
    82d0:	e59f2068 	ldr	r2, [pc, #104]	; 8340 <data_abort_vector+0xd0>
    82d4:	e3a03067 	mov	r3, #103	; 0x67
    82d8:	eb0002a6 	bl	8d78 <printk>
    82dc:	eb00043d 	bl	93d8 <clean_reboot>
    82e0:	e59f305c 	ldr	r3, [pc, #92]	; 8344 <data_abort_vector+0xd4>
    82e4:	e5933000 	ldr	r3, [r3]
    82e8:	e3530000 	cmp	r3, #0
    82ec:	1a000008 	bne	8314 <data_abort_vector+0xa4>
    82f0:	eb0002bb 	bl	8de4 <rpi_reset_putc>
    82f4:	e59f304c 	ldr	r3, [pc, #76]	; 8348 <data_abort_vector+0xd8>
    82f8:	e58d3000 	str	r3, [sp]
    82fc:	e59f0034 	ldr	r0, [pc, #52]	; 8338 <data_abort_vector+0xc8>
    8300:	e59f1034 	ldr	r1, [pc, #52]	; 833c <data_abort_vector+0xcc>
    8304:	e59f2034 	ldr	r2, [pc, #52]	; 8340 <data_abort_vector+0xd0>
    8308:	e3a03069 	mov	r3, #105	; 0x69
    830c:	eb000299 	bl	8d78 <printk>
    8310:	eb000430 	bl	93d8 <clean_reboot>
    8314:	ee162f10 	mrc	15, 0, r2, cr6, cr0, {0}
    8318:	e3a00000 	mov	r0, #0
    831c:	e12fff33 	blx	r3
    8320:	e28dd00c 	add	sp, sp, #12
    8324:	e49df004 	pop	{pc}		; (ldr pc, [sp], #4)
    8328:	00009ad0 	ldrdeq	r9, [r0], -r0
    832c:	00009b08 	andeq	r9, r0, r8, lsl #22
    8330:	00009bf4 	strdeq	r9, [r0], -r4
    8334:	00009b18 	andeq	r9, r0, r8, lsl fp
    8338:	00009990 	muleq	r0, r0, r9
    833c:	00009aa8 	andeq	r9, r0, r8, lsr #21
    8340:	00009be0 	andeq	r9, r0, r0, ror #23
    8344:	0000a148 	andeq	sl, r0, r8, asr #2
    8348:	00009b2c 	andeq	r9, r0, ip, lsr #22

0000834c <cp14_enable>:
    834c:	e92d4008 	push	{r3, lr}
    8350:	e59f302c 	ldr	r3, [pc, #44]	; 8384 <cp14_enable+0x38>
    8354:	e5933000 	ldr	r3, [r3]
    8358:	e3530000 	cmp	r3, #0
    835c:	1a000003 	bne	8370 <cp14_enable+0x24>
    8360:	eb00046a 	bl	9510 <int_init>
    8364:	e3a02001 	mov	r2, #1
    8368:	e59f3014 	ldr	r3, [pc, #20]	; 8384 <cp14_enable+0x38>
    836c:	e5832000 	str	r2, [r3]
    8370:	e3a03902 	mov	r3, #32768	; 0x8000
    8374:	ee003e11 	mcr	14, 0, r3, cr0, cr1, {0}
    8378:	e3a03000 	mov	r3, #0
    837c:	ee073f95 	mcr	15, 0, r3, cr7, cr5, {4}
    8380:	e8bd8008 	pop	{r3, pc}
    8384:	0000a158 	andeq	sl, r0, r8, asr r1

00008388 <brkpt_set0>:
    8388:	ee103eb0 	mrc	14, 0, r3, cr0, cr0, {5}
    838c:	e3c33001 	bic	r3, r3, #1
    8390:	ee003eb0 	mcr	14, 0, r3, cr0, cr0, {5}
    8394:	ee000e90 	mcr	14, 0, r0, cr0, cr0, {4}
    8398:	e59f3014 	ldr	r3, [pc, #20]	; 83b4 <brkpt_set0+0x2c>
    839c:	ee003eb0 	mcr	14, 0, r3, cr0, cr0, {5}
    83a0:	e3a03000 	mov	r3, #0
    83a4:	ee073f95 	mcr	15, 0, r3, cr7, cr5, {4}
    83a8:	e59f3008 	ldr	r3, [pc, #8]	; 83b8 <brkpt_set0+0x30>
    83ac:	e5831000 	str	r1, [r3]
    83b0:	e12fff1e 	bx	lr
    83b4:	000001e7 	andeq	r0, r0, r7, ror #3
    83b8:	0000a14c 	andeq	sl, r0, ip, asr #2

000083bc <prefetch_abort_vector>:
    83bc:	e52de004 	push	{lr}		; (str lr, [sp, #-4]!)
    83c0:	e24dd00c 	sub	sp, sp, #12
    83c4:	e1a01000 	mov	r1, r0
    83c8:	ee153f30 	mrc	15, 0, r3, cr5, cr0, {1}
    83cc:	e203300f 	and	r3, r3, #15
    83d0:	e3530002 	cmp	r3, #2
    83d4:	0a000006 	beq	83f4 <prefetch_abort_vector+0x38>
    83d8:	eb000281 	bl	8de4 <rpi_reset_putc>
    83dc:	e59f0058 	ldr	r0, [pc, #88]	; 843c <prefetch_abort_vector+0x80>
    83e0:	e59f1058 	ldr	r1, [pc, #88]	; 8440 <prefetch_abort_vector+0x84>
    83e4:	e59f2058 	ldr	r2, [pc, #88]	; 8444 <prefetch_abort_vector+0x88>
    83e8:	e3a030c7 	mov	r3, #199	; 0xc7
    83ec:	eb000261 	bl	8d78 <printk>
    83f0:	eb0003f8 	bl	93d8 <clean_reboot>
    83f4:	e59f304c 	ldr	r3, [pc, #76]	; 8448 <prefetch_abort_vector+0x8c>
    83f8:	e5933000 	ldr	r3, [r3]
    83fc:	e3530000 	cmp	r3, #0
    8400:	1a000008 	bne	8428 <prefetch_abort_vector+0x6c>
    8404:	eb000276 	bl	8de4 <rpi_reset_putc>
    8408:	e59f303c 	ldr	r3, [pc, #60]	; 844c <prefetch_abort_vector+0x90>
    840c:	e58d3000 	str	r3, [sp]
    8410:	e59f0038 	ldr	r0, [pc, #56]	; 8450 <prefetch_abort_vector+0x94>
    8414:	e59f1024 	ldr	r1, [pc, #36]	; 8440 <prefetch_abort_vector+0x84>
    8418:	e59f2024 	ldr	r2, [pc, #36]	; 8444 <prefetch_abort_vector+0x88>
    841c:	e3a030c8 	mov	r3, #200	; 0xc8
    8420:	eb000254 	bl	8d78 <printk>
    8424:	eb0003eb 	bl	93d8 <clean_reboot>
    8428:	ee162f10 	mrc	15, 0, r2, cr6, cr0, {0}
    842c:	e3a00000 	mov	r0, #0
    8430:	e12fff33 	blx	r3
    8434:	e28dd00c 	add	sp, sp, #12
    8438:	e49df004 	pop	{pc}		; (ldr pc, [sp], #4)
    843c:	00009b40 	andeq	r9, r0, r0, asr #22
    8440:	00009aa8 	andeq	r9, r0, r8, lsr #21
    8444:	00009c08 	andeq	r9, r0, r8, lsl #24
    8448:	0000a14c 	andeq	sl, r0, ip, asr #2
    844c:	00009b78 	andeq	r9, r0, r8, ror fp
    8450:	00009990 	muleq	r0, r0, r9

00008454 <interrupt_vector>:
    8454:	e12fff1e 	bx	lr

00008458 <brk_no_ret_error>:
    8458:	e92d4008 	push	{r3, lr}
    845c:	eb000260 	bl	8de4 <rpi_reset_putc>
    8460:	e59f0010 	ldr	r0, [pc, #16]	; 8478 <brk_no_ret_error+0x20>
    8464:	e59f1010 	ldr	r1, [pc, #16]	; 847c <brk_no_ret_error+0x24>
    8468:	e59f2010 	ldr	r2, [pc, #16]	; 8480 <brk_no_ret_error+0x28>
    846c:	e3a030d9 	mov	r3, #217	; 0xd9
    8470:	eb000240 	bl	8d78 <printk>
    8474:	eb0003d7 	bl	93d8 <clean_reboot>
    8478:	00009b88 	andeq	r9, r0, r8, lsl #23
    847c:	00009aa8 	andeq	r9, r0, r8, lsr #21
    8480:	00009c20 	andeq	r9, r0, r0, lsr #24

00008484 <brkpt_mismatch_set0>:
    8484:	ee103eb0 	mrc	14, 0, r3, cr0, cr0, {5}
    8488:	e3c33001 	bic	r3, r3, #1
    848c:	ee003eb0 	mcr	14, 0, r3, cr0, cr0, {5}
    8490:	ee000e90 	mcr	14, 0, r0, cr0, cr0, {4}
    8494:	e59f3014 	ldr	r3, [pc, #20]	; 84b0 <brkpt_mismatch_set0+0x2c>
    8498:	ee003eb0 	mcr	14, 0, r3, cr0, cr0, {5}
    849c:	e3a03000 	mov	r3, #0
    84a0:	ee073f95 	mcr	15, 0, r3, cr7, cr5, {4}
    84a4:	e59f3008 	ldr	r3, [pc, #8]	; 84b4 <brkpt_mismatch_set0+0x30>
    84a8:	e5831000 	str	r1, [r3]
    84ac:	e12fff1e 	bx	lr
    84b0:	004001e7 	subeq	r0, r0, r7, ror #3
    84b4:	0000a14c 	andeq	sl, r0, ip, asr #2

000084b8 <brkpt_mismatch_disable0>:
    84b8:	e59f3004 	ldr	r3, [pc, #4]	; 84c4 <brkpt_mismatch_disable0+0xc>
    84bc:	ee003eb0 	mcr	14, 0, r3, cr0, cr0, {5}
    84c0:	e12fff1e 	bx	lr
    84c4:	004001e6 	subeq	r0, r0, r6, ror #3

000084c8 <syscall_vector>:
    84c8:	e92d4008 	push	{r3, lr}
    84cc:	e5903000 	ldr	r3, [r0]
    84d0:	e3c334ff 	bic	r3, r3, #-16777216	; 0xff000000
    84d4:	e3530001 	cmp	r3, #1
    84d8:	1a000002 	bne	84e8 <syscall_vector+0x20>
    84dc:	e169f001 	msr	SPSR_fc, r1
    84e0:	e3a00000 	mov	r0, #0
    84e4:	e8bd8008 	pop	{r3, pc}
    84e8:	e3530002 	cmp	r3, #2
    84ec:	1a000005 	bne	8508 <syscall_vector+0x40>
    84f0:	e5913000 	ldr	r3, [r1]
    84f4:	e3530000 	cmp	r3, #0
    84f8:	1a000009 	bne	8524 <syscall_vector+0x5c>
    84fc:	e3a00001 	mov	r0, #1
    8500:	e5810000 	str	r0, [r1]
    8504:	e8bd8008 	pop	{r3, pc}
    8508:	e3530003 	cmp	r3, #3
    850c:	0a000006 	beq	852c <syscall_vector+0x64>
    8510:	e59f001c 	ldr	r0, [pc, #28]	; 8534 <syscall_vector+0x6c>
    8514:	e1a01003 	mov	r1, r3
    8518:	eb000216 	bl	8d78 <printk>
    851c:	e3a00000 	mov	r0, #0
    8520:	e8bd8008 	pop	{r3, pc}
    8524:	e3a00000 	mov	r0, #0
    8528:	e8bd8008 	pop	{r3, pc}
    852c:	e3a00003 	mov	r0, #3
    8530:	e8bd8008 	pop	{r3, pc}
    8534:	00009bb8 			; <UNDEFINED> instruction: 0x00009bb8

00008538 <_interrupt_table>:
    8538:	e59ff020 	ldr	pc, [pc, #32]	; 8560 <_reset_asm>
    853c:	e59ff020 	ldr	pc, [pc, #32]	; 8564 <_undefined_instruction_asm>
    8540:	e59ff020 	ldr	pc, [pc, #32]	; 8568 <_software_interrupt_asm>
    8544:	e59ff020 	ldr	pc, [pc, #32]	; 856c <_prefetch_abort_asm>
    8548:	e59ff020 	ldr	pc, [pc, #32]	; 8570 <_data_abort_asm>
    854c:	e59ff00c 	ldr	pc, [pc, #12]	; 8560 <_reset_asm>
    8550:	e59ff01c 	ldr	pc, [pc, #28]	; 8574 <_interrupt_asm>

00008554 <fast_interrupt_asm>:
    8554:	e3a0d409 	mov	sp, #150994944	; 0x9000000
    8558:	e24ee004 	sub	lr, lr, #4
    855c:	eb0003b6 	bl	943c <fast_interrupt_vector>

00008560 <_reset_asm>:
    8560:	00008590 	muleq	r0, r0, r5

00008564 <_undefined_instruction_asm>:
    8564:	000085d4 	ldrdeq	r8, [r0], -r4

00008568 <_software_interrupt_asm>:
    8568:	000085e0 	andeq	r8, r0, r0, ror #11

0000856c <_prefetch_abort_asm>:
    856c:	000085b8 			; <UNDEFINED> instruction: 0x000085b8

00008570 <_data_abort_asm>:
    8570:	0000859c 	muleq	r0, ip, r5

00008574 <_interrupt_asm>:
    8574:	00008578 	andeq	r8, r0, r8, ror r5

00008578 <_interrupt_table_end>:
    8578:	e3a0d409 	mov	sp, #150994944	; 0x9000000
    857c:	e24ee004 	sub	lr, lr, #4
    8580:	e92d5fff 	push	{r0, r1, r2, r3, r4, r5, r6, r7, r8, r9, sl, fp, ip, lr}
    8584:	e1a0000e 	mov	r0, lr
    8588:	e8bd5fff 	pop	{r0, r1, r2, r3, r4, r5, r6, r7, r8, r9, sl, fp, ip, lr}
    858c:	e1b0f00e 	movs	pc, lr

00008590 <reset_asm>:
    8590:	e3a0d409 	mov	sp, #150994944	; 0x9000000
    8594:	e24ee004 	sub	lr, lr, #4
    8598:	eb0003b8 	bl	9480 <reset_vector>

0000859c <data_abort_asm>:
    859c:	e24ee008 	sub	lr, lr, #8
    85a0:	e3a0d409 	mov	sp, #150994944	; 0x9000000
    85a4:	e92d5fff 	push	{r0, r1, r2, r3, r4, r5, r6, r7, r8, r9, sl, fp, ip, lr}
    85a8:	e1a0000e 	mov	r0, lr
    85ac:	ebffff2f 	bl	8270 <data_abort_vector>
    85b0:	e8bd5fff 	pop	{r0, r1, r2, r3, r4, r5, r6, r7, r8, r9, sl, fp, ip, lr}
    85b4:	e1b0f00e 	movs	pc, lr

000085b8 <prefetch_abort_asm>:
    85b8:	e24ee004 	sub	lr, lr, #4
    85bc:	e3a0d409 	mov	sp, #150994944	; 0x9000000
    85c0:	e92d5fff 	push	{r0, r1, r2, r3, r4, r5, r6, r7, r8, r9, sl, fp, ip, lr}
    85c4:	e1a0000e 	mov	r0, lr
    85c8:	ebffff7b 	bl	83bc <prefetch_abort_vector>
    85cc:	e8bd5fff 	pop	{r0, r1, r2, r3, r4, r5, r6, r7, r8, r9, sl, fp, ip, lr}
    85d0:	e1b0f00e 	movs	pc, lr

000085d4 <undefined_instruction_asm>:
    85d4:	e3a0d409 	mov	sp, #150994944	; 0x9000000
    85d8:	e24ee004 	sub	lr, lr, #4
    85dc:	eb0003b8 	bl	94c4 <undefined_instruction_vector>

000085e0 <software_interrupt_asm>:
    85e0:	e92d5ff0 	push	{r4, r5, r6, r7, r8, r9, sl, fp, ip, lr}
    85e4:	e24ee004 	sub	lr, lr, #4
    85e8:	e1a01000 	mov	r1, r0
    85ec:	e1a0000e 	mov	r0, lr
    85f0:	ebffffb4 	bl	84c8 <syscall_vector>
    85f4:	e8bd5ff0 	pop	{r4, r5, r6, r7, r8, r9, sl, fp, ip, lr}
    85f8:	e1b0f00e 	movs	pc, lr

000085fc <user_trampoline_no_ret>:
    85fc:	e1a0200d 	mov	r2, sp
    8600:	e129f000 	msr	CPSR_fc, r0
    8604:	e10f5000 	mrs	r5, CPSR
    8608:	ee070f95 	mcr	15, 0, r0, cr7, cr5, {4}
    860c:	e1a0d002 	mov	sp, r2
    8610:	e92d5ff0 	push	{r4, r5, r6, r7, r8, r9, sl, fp, ip, lr}
    8614:	e12fff31 	blx	r1
    8618:	e8bd5ff0 	pop	{r4, r5, r6, r7, r8, r9, sl, fp, ip, lr}
    861c:	eb00036d 	bl	93d8 <clean_reboot>
    8620:	ebffff8c 	bl	8458 <brk_no_ret_error>

00008624 <user_trampoline_ret>:
    8624:	e92d5ff0 	push	{r4, r5, r6, r7, r8, r9, sl, fp, ip, lr}
    8628:	e10f4000 	mrs	r4, CPSR
    862c:	e129f000 	msr	CPSR_fc, r0
    8630:	ee070f95 	mcr	15, 0, r0, cr7, cr5, {4}
    8634:	e3a0d407 	mov	sp, #117440512	; 0x7000000
    8638:	e1a00002 	mov	r0, r2
    863c:	e12fff31 	blx	r1
    8640:	e1a00004 	mov	r0, r4
    8644:	ef000001 	svc	0x00000001
    8648:	e8bd5ff0 	pop	{r4, r5, r6, r7, r8, r9, sl, fp, ip, lr}
    864c:	e12fff1e 	bx	lr

00008650 <sys_try_lock_asm>:
    8650:	e92d5ff0 	push	{r4, r5, r6, r7, r8, r9, sl, fp, ip, lr}
    8654:	ef000002 	svc	0x00000002
    8658:	e8bd5ff0 	pop	{r4, r5, r6, r7, r8, r9, sl, fp, ip, lr}
    865c:	e12fff1e 	bx	lr

00008660 <sys_foo_asm>:
    8660:	e92d5ff0 	push	{r4, r5, r6, r7, r8, r9, sl, fp, ip, lr}
    8664:	ef000003 	svc	0x00000003
    8668:	e8bd5ff0 	pop	{r4, r5, r6, r7, r8, r9, sl, fp, ip, lr}
    866c:	e12fff1e 	bx	lr

00008670 <single_step_handler>:
    8670:	e92d4030 	push	{r4, r5, lr}
    8674:	e24dd00c 	sub	sp, sp, #12
    8678:	e1a05001 	mov	r5, r1
    867c:	e59f3164 	ldr	r3, [pc, #356]	; 87e8 <single_step_handler+0x178>
    8680:	e5933000 	ldr	r3, [r3]
    8684:	e3530000 	cmp	r3, #0
    8688:	0a000005 	beq	86a4 <single_step_handler+0x34>
    868c:	e58d1000 	str	r1, [sp]
    8690:	e59f0154 	ldr	r0, [pc, #340]	; 87ec <single_step_handler+0x17c>
    8694:	e59f1154 	ldr	r1, [pc, #340]	; 87f0 <single_step_handler+0x180>
    8698:	e59f2154 	ldr	r2, [pc, #340]	; 87f4 <single_step_handler+0x184>
    869c:	e3a0300c 	mov	r3, #12
    86a0:	eb0001b4 	bl	8d78 <printk>
    86a4:	ee153f30 	mrc	15, 0, r3, cr5, cr0, {1}
    86a8:	e203300f 	and	r3, r3, #15
    86ac:	e3530002 	cmp	r3, #2
    86b0:	0a000006 	beq	86d0 <single_step_handler+0x60>
    86b4:	eb0001ca 	bl	8de4 <rpi_reset_putc>
    86b8:	e59f0138 	ldr	r0, [pc, #312]	; 87f8 <single_step_handler+0x188>
    86bc:	e59f112c 	ldr	r1, [pc, #300]	; 87f0 <single_step_handler+0x180>
    86c0:	e59f212c 	ldr	r2, [pc, #300]	; 87f4 <single_step_handler+0x184>
    86c4:	e3a0300e 	mov	r3, #14
    86c8:	eb0001aa 	bl	8d78 <printk>
    86cc:	eb000341 	bl	93d8 <clean_reboot>
    86d0:	e59f3124 	ldr	r3, [pc, #292]	; 87fc <single_step_handler+0x18c>
    86d4:	e5934000 	ldr	r4, [r3]
    86d8:	e594201c 	ldr	r2, [r4, #28]
    86dc:	e5943018 	ldr	r3, [r4, #24]
    86e0:	e1520003 	cmp	r2, r3
    86e4:	1a000016 	bne	8744 <single_step_handler+0xd4>
    86e8:	e59f0110 	ldr	r0, [pc, #272]	; 8800 <single_step_handler+0x190>
    86ec:	e1a01005 	mov	r1, r5
    86f0:	e5942008 	ldr	r2, [r4, #8]
    86f4:	eb00019f 	bl	8d78 <printk>
    86f8:	e5943008 	ldr	r3, [r4, #8]
    86fc:	e1a00004 	mov	r0, r4
    8700:	e12fff33 	blx	r3
    8704:	e3500000 	cmp	r0, #0
    8708:	0a00000a 	beq	8738 <single_step_handler+0xc8>
    870c:	e1a00005 	mov	r0, r5
    8710:	ebffff68 	bl	84b8 <brkpt_mismatch_disable0>
    8714:	e5845020 	str	r5, [r4, #32]
    8718:	e3a03001 	mov	r3, #1
    871c:	e5843024 	str	r3, [r4, #36]	; 0x24
    8720:	e5943014 	ldr	r3, [r4, #20]
    8724:	e2833001 	add	r3, r3, #1
    8728:	e5843014 	str	r3, [r4, #20]
    872c:	e59f00d0 	ldr	r0, [pc, #208]	; 8804 <single_step_handler+0x194>
    8730:	eb000190 	bl	8d78 <printk>
    8734:	ea000029 	b	87e0 <single_step_handler+0x170>
    8738:	e5943018 	ldr	r3, [r4, #24]
    873c:	e2833001 	add	r3, r3, #1
    8740:	e5843018 	str	r3, [r4, #24]
    8744:	e594201c 	ldr	r2, [r4, #28]
    8748:	e5943018 	ldr	r3, [r4, #24]
    874c:	e1520003 	cmp	r2, r3
    8750:	3a000008 	bcc	8778 <single_step_handler+0x108>
    8754:	eb0001a2 	bl	8de4 <rpi_reset_putc>
    8758:	e59f30a8 	ldr	r3, [pc, #168]	; 8808 <single_step_handler+0x198>
    875c:	e58d3000 	str	r3, [sp]
    8760:	e59f00a4 	ldr	r0, [pc, #164]	; 880c <single_step_handler+0x19c>
    8764:	e59f1084 	ldr	r1, [pc, #132]	; 87f0 <single_step_handler+0x180>
    8768:	e59f2084 	ldr	r2, [pc, #132]	; 87f4 <single_step_handler+0x184>
    876c:	e3a03023 	mov	r3, #35	; 0x23
    8770:	eb000180 	bl	8d78 <printk>
    8774:	eb000317 	bl	93d8 <clean_reboot>
    8778:	e594301c 	ldr	r3, [r4, #28]
    877c:	e2833001 	add	r3, r3, #1
    8780:	e584301c 	str	r3, [r4, #28]
    8784:	e59f305c 	ldr	r3, [pc, #92]	; 87e8 <single_step_handler+0x178>
    8788:	e5933000 	ldr	r3, [r3]
    878c:	e3530000 	cmp	r3, #0
    8790:	0a000005 	beq	87ac <single_step_handler+0x13c>
    8794:	e58d5000 	str	r5, [sp]
    8798:	e59f0070 	ldr	r0, [pc, #112]	; 8810 <single_step_handler+0x1a0>
    879c:	e59f104c 	ldr	r1, [pc, #76]	; 87f0 <single_step_handler+0x180>
    87a0:	e59f204c 	ldr	r2, [pc, #76]	; 87f4 <single_step_handler+0x184>
    87a4:	e3a03026 	mov	r3, #38	; 0x26
    87a8:	eb000172 	bl	8d78 <printk>
    87ac:	e1a00005 	mov	r0, r5
    87b0:	e59f105c 	ldr	r1, [pc, #92]	; 8814 <single_step_handler+0x1a4>
    87b4:	ebffff32 	bl	8484 <brkpt_mismatch_set0>
    87b8:	e59f3028 	ldr	r3, [pc, #40]	; 87e8 <single_step_handler+0x178>
    87bc:	e5933000 	ldr	r3, [r3]
    87c0:	e3530000 	cmp	r3, #0
    87c4:	0a000005 	beq	87e0 <single_step_handler+0x170>
    87c8:	e58d5000 	str	r5, [sp]
    87cc:	e59f0044 	ldr	r0, [pc, #68]	; 8818 <single_step_handler+0x1a8>
    87d0:	e59f1018 	ldr	r1, [pc, #24]	; 87f0 <single_step_handler+0x180>
    87d4:	e59f2018 	ldr	r2, [pc, #24]	; 87f4 <single_step_handler+0x184>
    87d8:	e3a03028 	mov	r3, #40	; 0x28
    87dc:	eb000165 	bl	8d78 <printk>
    87e0:	e28dd00c 	add	sp, sp, #12
    87e4:	e8bd8030 	pop	{r4, r5, pc}
    87e8:	0000a150 	andeq	sl, r0, r0, asr r1
    87ec:	00009c34 	andeq	r9, r0, r4, lsr ip
    87f0:	00009c54 	andeq	r9, r0, r4, asr ip
    87f4:	00009ee8 	andeq	r9, r0, r8, ror #29
    87f8:	00009b40 	andeq	r9, r0, r0, asr #22
    87fc:	0000a15c 	andeq	sl, r0, ip, asr r1
    8800:	00009c68 	andeq	r9, r0, r8, ror #24
    8804:	00009c88 	andeq	r9, r0, r8, lsl #25
    8808:	00009cb0 			; <UNDEFINED> instruction: 0x00009cb0
    880c:	00009990 	muleq	r0, r0, r9
    8810:	00009cd4 	ldrdeq	r9, [r0], -r4
    8814:	00008670 	andeq	r8, r0, r0, ror r6
    8818:	00009cfc 	strdeq	r9, [r0], -ip

0000881c <check_one_cswitch>:
    881c:	e92d4ff0 	push	{r4, r5, r6, r7, r8, r9, sl, fp, lr}
    8820:	e24dd00c 	sub	sp, sp, #12
    8824:	e1a04000 	mov	r4, r0
    8828:	e10f8000 	mrs	r8, CPSR
    882c:	e3c8701f 	bic	r7, r8, #31
    8830:	e3877010 	orr	r7, r7, #16
    8834:	e59f3460 	ldr	r3, [pc, #1120]	; 8c9c <check_one_cswitch+0x480>
    8838:	e5830000 	str	r0, [r3]
    883c:	e3a03001 	mov	r3, #1
    8840:	e5803030 	str	r3, [r0, #48]	; 0x30
    8844:	e59f6454 	ldr	r6, [pc, #1108]	; 8ca0 <check_one_cswitch+0x484>
    8848:	e59fb454 	ldr	fp, [pc, #1108]	; 8ca4 <check_one_cswitch+0x488>
    884c:	e59fa454 	ldr	sl, [pc, #1108]	; 8ca8 <check_one_cswitch+0x48c>
    8850:	e59f9454 	ldr	r9, [pc, #1108]	; 8cac <check_one_cswitch+0x490>
    8854:	e59f5454 	ldr	r5, [pc, #1108]	; 8cb0 <check_one_cswitch+0x494>
    8858:	e594300c 	ldr	r3, [r4, #12]
    885c:	e1a00004 	mov	r0, r4
    8860:	e12fff33 	blx	r3
    8864:	e5963000 	ldr	r3, [r6]
    8868:	e3530000 	cmp	r3, #0
    886c:	0a000006 	beq	888c <check_one_cswitch+0x70>
    8870:	e5943028 	ldr	r3, [r4, #40]	; 0x28
    8874:	e58d3000 	str	r3, [sp]
    8878:	e1a0000b 	mov	r0, fp
    887c:	e1a0100a 	mov	r1, sl
    8880:	e1a02009 	mov	r2, r9
    8884:	e3a03034 	mov	r3, #52	; 0x34
    8888:	eb00013a 	bl	8d78 <printk>
    888c:	e3a00000 	mov	r0, #0
    8890:	e1a01005 	mov	r1, r5
    8894:	ebfffefa 	bl	8484 <brkpt_mismatch_set0>
    8898:	e5943018 	ldr	r3, [r4, #24]
    889c:	e2833001 	add	r3, r3, #1
    88a0:	e5843018 	str	r3, [r4, #24]
    88a4:	e3a03000 	mov	r3, #0
    88a8:	e584301c 	str	r3, [r4, #28]
    88ac:	e5843024 	str	r3, [r4, #36]	; 0x24
    88b0:	e1a00007 	mov	r0, r7
    88b4:	e5941004 	ldr	r1, [r4, #4]
    88b8:	e1a02004 	mov	r2, r4
    88bc:	ebffff58 	bl	8624 <user_trampoline_ret>
    88c0:	e5943024 	ldr	r3, [r4, #36]	; 0x24
    88c4:	e3530000 	cmp	r3, #0
    88c8:	1a000002 	bne	88d8 <check_one_cswitch+0xbc>
    88cc:	e5943008 	ldr	r3, [r4, #8]
    88d0:	e1a00004 	mov	r0, r4
    88d4:	e12fff33 	blx	r3
    88d8:	e5943010 	ldr	r3, [r4, #16]
    88dc:	e1a00004 	mov	r0, r4
    88e0:	e12fff33 	blx	r3
    88e4:	e3500000 	cmp	r0, #0
    88e8:	1a000006 	bne	8908 <check_one_cswitch+0xec>
    88ec:	e5941020 	ldr	r1, [r4, #32]
    88f0:	e5942018 	ldr	r2, [r4, #24]
    88f4:	e59f03b8 	ldr	r0, [pc, #952]	; 8cb4 <check_one_cswitch+0x498>
    88f8:	eb00011e 	bl	8d78 <printk>
    88fc:	e594302c 	ldr	r3, [r4, #44]	; 0x2c
    8900:	e2833001 	add	r3, r3, #1
    8904:	e584302c 	str	r3, [r4, #44]	; 0x2c
    8908:	e5942028 	ldr	r2, [r4, #40]	; 0x28
    890c:	e2822001 	add	r2, r2, #1
    8910:	e5842028 	str	r2, [r4, #40]	; 0x28
    8914:	e5943024 	ldr	r3, [r4, #36]	; 0x24
    8918:	e3530000 	cmp	r3, #0
    891c:	1affffcd 	bne	8858 <check_one_cswitch+0x3c>
    8920:	e5941014 	ldr	r1, [r4, #20]
    8924:	e59f038c 	ldr	r0, [pc, #908]	; 8cb8 <check_one_cswitch+0x49c>
    8928:	e594302c 	ldr	r3, [r4, #44]	; 0x2c
    892c:	eb000111 	bl	8d78 <printk>
    8930:	e208301f 	and	r3, r8, #31
    8934:	e3530012 	cmp	r3, #18
    8938:	13530010 	cmpne	r3, #16
    893c:	0a000006 	beq	895c <check_one_cswitch+0x140>
    8940:	e3530017 	cmp	r3, #23
    8944:	13530013 	cmpne	r3, #19
    8948:	0a000005 	beq	8964 <check_one_cswitch+0x148>
    894c:	e353001f 	cmp	r3, #31
    8950:	1a000005 	bne	896c <check_one_cswitch+0x150>
    8954:	e3a02001 	mov	r2, #1
    8958:	ea000004 	b	8970 <check_one_cswitch+0x154>
    895c:	e3a02001 	mov	r2, #1
    8960:	ea000002 	b	8970 <check_one_cswitch+0x154>
    8964:	e3a02001 	mov	r2, #1
    8968:	ea000000 	b	8970 <check_one_cswitch+0x154>
    896c:	e3a02000 	mov	r2, #0
    8970:	e3520000 	cmp	r2, #0
    8974:	1a000008 	bne	899c <check_one_cswitch+0x180>
    8978:	eb000119 	bl	8de4 <rpi_reset_putc>
    897c:	e59f3338 	ldr	r3, [pc, #824]	; 8cbc <check_one_cswitch+0x4a0>
    8980:	e58d3000 	str	r3, [sp]
    8984:	e59f0334 	ldr	r0, [pc, #820]	; 8cc0 <check_one_cswitch+0x4a4>
    8988:	e59f1334 	ldr	r1, [pc, #820]	; 8cc4 <check_one_cswitch+0x4a8>
    898c:	e59f2334 	ldr	r2, [pc, #820]	; 8cc8 <check_one_cswitch+0x4ac>
    8990:	e3a03011 	mov	r3, #17
    8994:	eb0000f7 	bl	8d78 <printk>
    8998:	eb00028e 	bl	93d8 <clean_reboot>
    899c:	e2433010 	sub	r3, r3, #16
    89a0:	e353000f 	cmp	r3, #15
    89a4:	979ff103 	ldrls	pc, [pc, r3, lsl #2]
    89a8:	ea000019 	b	8a14 <check_one_cswitch+0x1f8>
    89ac:	00008a34 	andeq	r8, r0, r4, lsr sl
    89b0:	00008a3c 	andeq	r8, r0, ip, lsr sl
    89b4:	000089ec 	andeq	r8, r0, ip, ror #19
    89b8:	000089f4 	strdeq	r8, [r0], -r4
    89bc:	00008a14 	andeq	r8, r0, r4, lsl sl
    89c0:	00008a14 	andeq	r8, r0, r4, lsl sl
    89c4:	00008a14 	andeq	r8, r0, r4, lsl sl
    89c8:	000089fc 	strdeq	r8, [r0], -ip
    89cc:	00008a14 	andeq	r8, r0, r4, lsl sl
    89d0:	00008a14 	andeq	r8, r0, r4, lsl sl
    89d4:	00008a14 	andeq	r8, r0, r4, lsl sl
    89d8:	00008a04 	andeq	r8, r0, r4, lsl #20
    89dc:	00008a14 	andeq	r8, r0, r4, lsl sl
    89e0:	00008a14 	andeq	r8, r0, r4, lsl sl
    89e4:	00008a14 	andeq	r8, r0, r4, lsl sl
    89e8:	00008a0c 	andeq	r8, r0, ip, lsl #20
    89ec:	e59f12d8 	ldr	r1, [pc, #728]	; 8ccc <check_one_cswitch+0x4b0>
    89f0:	ea000012 	b	8a40 <check_one_cswitch+0x224>
    89f4:	e59f12d4 	ldr	r1, [pc, #724]	; 8cd0 <check_one_cswitch+0x4b4>
    89f8:	ea000010 	b	8a40 <check_one_cswitch+0x224>
    89fc:	e59f12d0 	ldr	r1, [pc, #720]	; 8cd4 <check_one_cswitch+0x4b8>
    8a00:	ea00000e 	b	8a40 <check_one_cswitch+0x224>
    8a04:	e59f12cc 	ldr	r1, [pc, #716]	; 8cd8 <check_one_cswitch+0x4bc>
    8a08:	ea00000c 	b	8a40 <check_one_cswitch+0x224>
    8a0c:	e59f12c8 	ldr	r1, [pc, #712]	; 8cdc <check_one_cswitch+0x4c0>
    8a10:	ea00000a 	b	8a40 <check_one_cswitch+0x224>
    8a14:	eb0000f2 	bl	8de4 <rpi_reset_putc>
    8a18:	e58d8000 	str	r8, [sp]
    8a1c:	e59f02bc 	ldr	r0, [pc, #700]	; 8ce0 <check_one_cswitch+0x4c4>
    8a20:	e59f129c 	ldr	r1, [pc, #668]	; 8cc4 <check_one_cswitch+0x4a8>
    8a24:	e59f22b8 	ldr	r2, [pc, #696]	; 8ce4 <check_one_cswitch+0x4c8>
    8a28:	e3a03021 	mov	r3, #33	; 0x21
    8a2c:	eb0000d1 	bl	8d78 <printk>
    8a30:	eb000268 	bl	93d8 <clean_reboot>
    8a34:	e59f12ac 	ldr	r1, [pc, #684]	; 8ce8 <check_one_cswitch+0x4cc>
    8a38:	ea000000 	b	8a40 <check_one_cswitch+0x224>
    8a3c:	e59f12a8 	ldr	r1, [pc, #680]	; 8cec <check_one_cswitch+0x4d0>
    8a40:	e59f02a8 	ldr	r0, [pc, #680]	; 8cf0 <check_one_cswitch+0x4d4>
    8a44:	e1a02008 	mov	r2, r8
    8a48:	eb0000ca 	bl	8d78 <printk>
    8a4c:	e10f5000 	mrs	r5, CPSR
    8a50:	e205301f 	and	r3, r5, #31
    8a54:	e3530012 	cmp	r3, #18
    8a58:	13530010 	cmpne	r3, #16
    8a5c:	0a000006 	beq	8a7c <check_one_cswitch+0x260>
    8a60:	e3530017 	cmp	r3, #23
    8a64:	13530013 	cmpne	r3, #19
    8a68:	0a000005 	beq	8a84 <check_one_cswitch+0x268>
    8a6c:	e353001f 	cmp	r3, #31
    8a70:	1a000005 	bne	8a8c <check_one_cswitch+0x270>
    8a74:	e3a02001 	mov	r2, #1
    8a78:	ea000004 	b	8a90 <check_one_cswitch+0x274>
    8a7c:	e3a02001 	mov	r2, #1
    8a80:	ea000002 	b	8a90 <check_one_cswitch+0x274>
    8a84:	e3a02001 	mov	r2, #1
    8a88:	ea000000 	b	8a90 <check_one_cswitch+0x274>
    8a8c:	e3a02000 	mov	r2, #0
    8a90:	e3520000 	cmp	r2, #0
    8a94:	1a000008 	bne	8abc <check_one_cswitch+0x2a0>
    8a98:	eb0000d1 	bl	8de4 <rpi_reset_putc>
    8a9c:	e59f3218 	ldr	r3, [pc, #536]	; 8cbc <check_one_cswitch+0x4a0>
    8aa0:	e58d3000 	str	r3, [sp]
    8aa4:	e59f0214 	ldr	r0, [pc, #532]	; 8cc0 <check_one_cswitch+0x4a4>
    8aa8:	e59f1214 	ldr	r1, [pc, #532]	; 8cc4 <check_one_cswitch+0x4a8>
    8aac:	e59f2214 	ldr	r2, [pc, #532]	; 8cc8 <check_one_cswitch+0x4ac>
    8ab0:	e3a03011 	mov	r3, #17
    8ab4:	eb0000af 	bl	8d78 <printk>
    8ab8:	eb000246 	bl	93d8 <clean_reboot>
    8abc:	e2433010 	sub	r3, r3, #16
    8ac0:	e353000f 	cmp	r3, #15
    8ac4:	979ff103 	ldrls	pc, [pc, r3, lsl #2]
    8ac8:	ea000019 	b	8b34 <check_one_cswitch+0x318>
    8acc:	00008b54 	andeq	r8, r0, r4, asr fp
    8ad0:	00008b5c 	andeq	r8, r0, ip, asr fp
    8ad4:	00008b0c 	andeq	r8, r0, ip, lsl #22
    8ad8:	00008b14 	andeq	r8, r0, r4, lsl fp
    8adc:	00008b34 	andeq	r8, r0, r4, lsr fp
    8ae0:	00008b34 	andeq	r8, r0, r4, lsr fp
    8ae4:	00008b34 	andeq	r8, r0, r4, lsr fp
    8ae8:	00008b1c 	andeq	r8, r0, ip, lsl fp
    8aec:	00008b34 	andeq	r8, r0, r4, lsr fp
    8af0:	00008b34 	andeq	r8, r0, r4, lsr fp
    8af4:	00008b34 	andeq	r8, r0, r4, lsr fp
    8af8:	00008b24 	andeq	r8, r0, r4, lsr #22
    8afc:	00008b34 	andeq	r8, r0, r4, lsr fp
    8b00:	00008b34 	andeq	r8, r0, r4, lsr fp
    8b04:	00008b34 	andeq	r8, r0, r4, lsr fp
    8b08:	00008b2c 	andeq	r8, r0, ip, lsr #22
    8b0c:	e59f11b8 	ldr	r1, [pc, #440]	; 8ccc <check_one_cswitch+0x4b0>
    8b10:	ea000012 	b	8b60 <check_one_cswitch+0x344>
    8b14:	e59f11b4 	ldr	r1, [pc, #436]	; 8cd0 <check_one_cswitch+0x4b4>
    8b18:	ea000010 	b	8b60 <check_one_cswitch+0x344>
    8b1c:	e59f11b0 	ldr	r1, [pc, #432]	; 8cd4 <check_one_cswitch+0x4b8>
    8b20:	ea00000e 	b	8b60 <check_one_cswitch+0x344>
    8b24:	e59f11ac 	ldr	r1, [pc, #428]	; 8cd8 <check_one_cswitch+0x4bc>
    8b28:	ea00000c 	b	8b60 <check_one_cswitch+0x344>
    8b2c:	e59f11a8 	ldr	r1, [pc, #424]	; 8cdc <check_one_cswitch+0x4c0>
    8b30:	ea00000a 	b	8b60 <check_one_cswitch+0x344>
    8b34:	eb0000aa 	bl	8de4 <rpi_reset_putc>
    8b38:	e58d5000 	str	r5, [sp]
    8b3c:	e59f019c 	ldr	r0, [pc, #412]	; 8ce0 <check_one_cswitch+0x4c4>
    8b40:	e59f117c 	ldr	r1, [pc, #380]	; 8cc4 <check_one_cswitch+0x4a8>
    8b44:	e59f2198 	ldr	r2, [pc, #408]	; 8ce4 <check_one_cswitch+0x4c8>
    8b48:	e3a03021 	mov	r3, #33	; 0x21
    8b4c:	eb000089 	bl	8d78 <printk>
    8b50:	eb000220 	bl	93d8 <clean_reboot>
    8b54:	e59f118c 	ldr	r1, [pc, #396]	; 8ce8 <check_one_cswitch+0x4cc>
    8b58:	ea000000 	b	8b60 <check_one_cswitch+0x344>
    8b5c:	e59f1188 	ldr	r1, [pc, #392]	; 8cec <check_one_cswitch+0x4d0>
    8b60:	e10f2000 	mrs	r2, CPSR
    8b64:	e59f0188 	ldr	r0, [pc, #392]	; 8cf4 <check_one_cswitch+0x4d8>
    8b68:	eb000082 	bl	8d78 <printk>
    8b6c:	e3a00000 	mov	r0, #0
    8b70:	ebfffe50 	bl	84b8 <brkpt_mismatch_disable0>
    8b74:	e208801f 	and	r8, r8, #31
    8b78:	e3580012 	cmp	r8, #18
    8b7c:	13580010 	cmpne	r8, #16
    8b80:	0a000006 	beq	8ba0 <check_one_cswitch+0x384>
    8b84:	e3580017 	cmp	r8, #23
    8b88:	13580013 	cmpne	r8, #19
    8b8c:	0a000005 	beq	8ba8 <check_one_cswitch+0x38c>
    8b90:	e358001f 	cmp	r8, #31
    8b94:	1a000005 	bne	8bb0 <check_one_cswitch+0x394>
    8b98:	e3a03001 	mov	r3, #1
    8b9c:	ea000004 	b	8bb4 <check_one_cswitch+0x398>
    8ba0:	e3a03001 	mov	r3, #1
    8ba4:	ea000002 	b	8bb4 <check_one_cswitch+0x398>
    8ba8:	e3a03001 	mov	r3, #1
    8bac:	ea000000 	b	8bb4 <check_one_cswitch+0x398>
    8bb0:	e3a03000 	mov	r3, #0
    8bb4:	e3530000 	cmp	r3, #0
    8bb8:	1a000008 	bne	8be0 <check_one_cswitch+0x3c4>
    8bbc:	eb000088 	bl	8de4 <rpi_reset_putc>
    8bc0:	e59f30f4 	ldr	r3, [pc, #244]	; 8cbc <check_one_cswitch+0x4a0>
    8bc4:	e58d3000 	str	r3, [sp]
    8bc8:	e59f00f0 	ldr	r0, [pc, #240]	; 8cc0 <check_one_cswitch+0x4a4>
    8bcc:	e59f10f0 	ldr	r1, [pc, #240]	; 8cc4 <check_one_cswitch+0x4a8>
    8bd0:	e59f20f0 	ldr	r2, [pc, #240]	; 8cc8 <check_one_cswitch+0x4ac>
    8bd4:	e3a03011 	mov	r3, #17
    8bd8:	eb000066 	bl	8d78 <printk>
    8bdc:	eb0001fd 	bl	93d8 <clean_reboot>
    8be0:	e10f3000 	mrs	r3, CPSR
    8be4:	e203301f 	and	r3, r3, #31
    8be8:	e3530012 	cmp	r3, #18
    8bec:	13530010 	cmpne	r3, #16
    8bf0:	0a000006 	beq	8c10 <check_one_cswitch+0x3f4>
    8bf4:	e3530017 	cmp	r3, #23
    8bf8:	13530013 	cmpne	r3, #19
    8bfc:	0a000005 	beq	8c18 <check_one_cswitch+0x3fc>
    8c00:	e353001f 	cmp	r3, #31
    8c04:	1a000005 	bne	8c20 <check_one_cswitch+0x404>
    8c08:	e3a02001 	mov	r2, #1
    8c0c:	ea000004 	b	8c24 <check_one_cswitch+0x408>
    8c10:	e3a02001 	mov	r2, #1
    8c14:	ea000002 	b	8c24 <check_one_cswitch+0x408>
    8c18:	e3a02001 	mov	r2, #1
    8c1c:	ea000000 	b	8c24 <check_one_cswitch+0x408>
    8c20:	e3a02000 	mov	r2, #0
    8c24:	e3520000 	cmp	r2, #0
    8c28:	1a000008 	bne	8c50 <check_one_cswitch+0x434>
    8c2c:	eb00006c 	bl	8de4 <rpi_reset_putc>
    8c30:	e59f3084 	ldr	r3, [pc, #132]	; 8cbc <check_one_cswitch+0x4a0>
    8c34:	e58d3000 	str	r3, [sp]
    8c38:	e59f0080 	ldr	r0, [pc, #128]	; 8cc0 <check_one_cswitch+0x4a4>
    8c3c:	e59f1080 	ldr	r1, [pc, #128]	; 8cc4 <check_one_cswitch+0x4a8>
    8c40:	e59f2080 	ldr	r2, [pc, #128]	; 8cc8 <check_one_cswitch+0x4ac>
    8c44:	e3a03011 	mov	r3, #17
    8c48:	eb00004a 	bl	8d78 <printk>
    8c4c:	eb0001e1 	bl	93d8 <clean_reboot>
    8c50:	e1580003 	cmp	r8, r3
    8c54:	0a000008 	beq	8c7c <check_one_cswitch+0x460>
    8c58:	eb000061 	bl	8de4 <rpi_reset_putc>
    8c5c:	e59f3094 	ldr	r3, [pc, #148]	; 8cf8 <check_one_cswitch+0x4dc>
    8c60:	e58d3000 	str	r3, [sp]
    8c64:	e59f0054 	ldr	r0, [pc, #84]	; 8cc0 <check_one_cswitch+0x4a4>
    8c68:	e59f1038 	ldr	r1, [pc, #56]	; 8ca8 <check_one_cswitch+0x48c>
    8c6c:	e59f2038 	ldr	r2, [pc, #56]	; 8cac <check_one_cswitch+0x490>
    8c70:	e3a03058 	mov	r3, #88	; 0x58
    8c74:	eb00003f 	bl	8d78 <printk>
    8c78:	eb0001d6 	bl	93d8 <clean_reboot>
    8c7c:	e3a03000 	mov	r3, #0
    8c80:	e5843030 	str	r3, [r4, #48]	; 0x30
    8c84:	e594002c 	ldr	r0, [r4, #44]	; 0x2c
    8c88:	e1500003 	cmp	r0, r3
    8c8c:	13a00000 	movne	r0, #0
    8c90:	03a00001 	moveq	r0, #1
    8c94:	e28dd00c 	add	sp, sp, #12
    8c98:	e8bd8ff0 	pop	{r4, r5, r6, r7, r8, r9, sl, fp, pc}
    8c9c:	0000a15c 	andeq	sl, r0, ip, asr r1
    8ca0:	0000a150 	andeq	sl, r0, r0, asr r1
    8ca4:	00009d7c 	andeq	r9, r0, ip, ror sp
    8ca8:	00009c54 	andeq	r9, r0, r4, asr ip
    8cac:	00009ed4 	ldrdeq	r9, [r0], -r4
    8cb0:	00008670 	andeq	r8, r0, r0, ror r6
    8cb4:	00009db4 			; <UNDEFINED> instruction: 0x00009db4
    8cb8:	00009dfc 	strdeq	r9, [r0], -ip
    8cbc:	00009e3c 	andeq	r9, r0, ip, lsr lr
    8cc0:	00009990 	muleq	r0, r0, r9
    8cc4:	00009e30 	andeq	r9, r0, r0, lsr lr
    8cc8:	00009f20 	andeq	r9, r0, r0, lsr #30
    8ccc:	00009d40 	andeq	r9, r0, r0, asr #26
    8cd0:	00009d4c 	andeq	r9, r0, ip, asr #26
    8cd4:	00009d58 	andeq	r9, r0, r8, asr sp
    8cd8:	00009d64 	andeq	r9, r0, r4, ror #26
    8cdc:	00009d70 	andeq	r9, r0, r0, ror sp
    8ce0:	00009e50 	andeq	r9, r0, r0, asr lr
    8ce4:	00009f14 	andeq	r9, r0, r4, lsl pc
    8ce8:	00009d28 	andeq	r9, r0, r8, lsr #26
    8cec:	00009d34 	andeq	r9, r0, r4, lsr sp
    8cf0:	00009e74 	andeq	r9, r0, r4, ror lr
    8cf4:	00009e90 	muleq	r0, r0, lr
    8cf8:	00009ea8 	andeq	r9, r0, r8, lsr #29

00008cfc <check_sequential>:
    8cfc:	e3a00001 	mov	r0, #1
    8d00:	e12fff1e 	bx	lr

00008d04 <check_zero>:
    8d04:	e3a03000 	mov	r3, #0
    8d08:	e5803030 	str	r3, [r0, #48]	; 0x30
    8d0c:	e580302c 	str	r3, [r0, #44]	; 0x2c
    8d10:	e5803028 	str	r3, [r0, #40]	; 0x28
    8d14:	e5803024 	str	r3, [r0, #36]	; 0x24
    8d18:	e5803020 	str	r3, [r0, #32]
    8d1c:	e580301c 	str	r3, [r0, #28]
    8d20:	e5803018 	str	r3, [r0, #24]
    8d24:	e5803014 	str	r3, [r0, #20]
    8d28:	e12fff1e 	bx	lr

00008d2c <check>:
    8d2c:	e92d4010 	push	{r4, lr}
    8d30:	e1a04000 	mov	r4, r0
    8d34:	ebfffd84 	bl	834c <cp14_enable>
    8d38:	e1a00004 	mov	r0, r4
    8d3c:	ebfffff0 	bl	8d04 <check_zero>
    8d40:	e1a00004 	mov	r0, r4
    8d44:	ebffffec 	bl	8cfc <check_sequential>
    8d48:	e3500000 	cmp	r0, #0
    8d4c:	0a000005 	beq	8d68 <check+0x3c>
    8d50:	e1a00004 	mov	r0, r4
    8d54:	ebfffeb0 	bl	881c <check_one_cswitch>
    8d58:	e3500000 	cmp	r0, #0
    8d5c:	0a000003 	beq	8d70 <check+0x44>
    8d60:	e3a00001 	mov	r0, #1
    8d64:	e8bd8010 	pop	{r4, pc}
    8d68:	e3a00000 	mov	r0, #0
    8d6c:	e8bd8010 	pop	{r4, pc}
    8d70:	e3a00000 	mov	r0, #0
    8d74:	e8bd8010 	pop	{r4, pc}

00008d78 <printk>:
    8d78:	e92d000f 	push	{r0, r1, r2, r3}
    8d7c:	e92d4030 	push	{r4, r5, lr}
    8d80:	e24dd00c 	sub	sp, sp, #12
    8d84:	e28d301c 	add	r3, sp, #28
    8d88:	e58d3004 	str	r3, [sp, #4]
    8d8c:	e59f4034 	ldr	r4, [pc, #52]	; 8dc8 <printk+0x50>
    8d90:	e1a00004 	mov	r0, r4
    8d94:	e3a01b01 	mov	r1, #1024	; 0x400
    8d98:	e59d2018 	ldr	r2, [sp, #24]
    8d9c:	eb0000d0 	bl	90e4 <va_printk>
    8da0:	e1a05000 	mov	r5, r0
    8da4:	e59f3020 	ldr	r3, [pc, #32]	; 8dcc <printk+0x54>
    8da8:	e5933000 	ldr	r3, [r3]
    8dac:	e1a00004 	mov	r0, r4
    8db0:	e12fff33 	blx	r3
    8db4:	e1a00005 	mov	r0, r5
    8db8:	e28dd00c 	add	sp, sp, #12
    8dbc:	e8bd4030 	pop	{r4, r5, lr}
    8dc0:	e28dd010 	add	sp, sp, #16
    8dc4:	e12fff1e 	bx	lr
    8dc8:	0000a164 	andeq	sl, r0, r4, ror #2
    8dcc:	0000998c 	andeq	r9, r0, ip, lsl #19

00008dd0 <internal_putchar>:
    8dd0:	e92d4010 	push	{r4, lr}
    8dd4:	e1a04000 	mov	r4, r0
    8dd8:	eb000291 	bl	9824 <uart_putc>
    8ddc:	e1a00004 	mov	r0, r4
    8de0:	e8bd8010 	pop	{r4, pc}

00008de4 <rpi_reset_putc>:
    8de4:	e59f2008 	ldr	r2, [pc, #8]	; 8df4 <rpi_reset_putc+0x10>
    8de8:	e59f3008 	ldr	r3, [pc, #8]	; 8df8 <rpi_reset_putc+0x14>
    8dec:	e5832000 	str	r2, [r3]
    8df0:	e12fff1e 	bx	lr
    8df4:	00008dd0 	ldrdeq	r8, [r0], -r0
    8df8:	00009988 	andeq	r9, r0, r8, lsl #19

00008dfc <rpi_set_putc>:
    8dfc:	e59f3004 	ldr	r3, [pc, #4]	; 8e08 <rpi_set_putc+0xc>
    8e00:	e5830000 	str	r0, [r3]
    8e04:	e12fff1e 	bx	lr
    8e08:	00009988 	andeq	r9, r0, r8, lsl #19

00008e0c <internal_putk>:
    8e0c:	e92d4038 	push	{r3, r4, r5, lr}
    8e10:	e1a04000 	mov	r4, r0
    8e14:	e59f5020 	ldr	r5, [pc, #32]	; 8e3c <internal_putk+0x30>
    8e18:	ea000002 	b	8e28 <internal_putk+0x1c>
    8e1c:	e5953000 	ldr	r3, [r5]
    8e20:	e12fff33 	blx	r3
    8e24:	e2844001 	add	r4, r4, #1
    8e28:	e5d40000 	ldrb	r0, [r4]
    8e2c:	e3500000 	cmp	r0, #0
    8e30:	1afffff9 	bne	8e1c <internal_putk+0x10>
    8e34:	e3a00001 	mov	r0, #1
    8e38:	e8bd8038 	pop	{r3, r4, r5, pc}
    8e3c:	00009988 	andeq	r9, r0, r8, lsl #19

00008e40 <isdigit>:
    8e40:	e2400030 	sub	r0, r0, #48	; 0x30
    8e44:	e3500009 	cmp	r0, #9
    8e48:	83a00000 	movhi	r0, #0
    8e4c:	93a00001 	movls	r0, #1
    8e50:	e12fff1e 	bx	lr

00008e54 <pad>:
    8e54:	e0611000 	rsb	r1, r1, r0
    8e58:	e3a03020 	mov	r3, #32
    8e5c:	ea000002 	b	8e6c <pad+0x18>
    8e60:	e5c03000 	strb	r3, [r0]
    8e64:	e2811001 	add	r1, r1, #1
    8e68:	e2800001 	add	r0, r0, #1
    8e6c:	e1510002 	cmp	r1, r2
    8e70:	bafffffa 	blt	8e60 <pad+0xc>
    8e74:	e3a03000 	mov	r3, #0
    8e78:	e5c03000 	strb	r3, [r0]
    8e7c:	e12fff1e 	bx	lr

00008e80 <reverse>:
    8e80:	e063c002 	rsb	ip, r3, r2
    8e84:	e28cc001 	add	ip, ip, #1
    8e88:	e15c0001 	cmp	ip, r1
    8e8c:	c061100c 	rsbgt	r1, r1, ip
    8e90:	c0833001 	addgt	r3, r3, r1
    8e94:	e2422001 	sub	r2, r2, #1
    8e98:	e1a01000 	mov	r1, r0
    8e9c:	ea000002 	b	8eac <reverse+0x2c>
    8ea0:	e452c001 	ldrb	ip, [r2], #-1
    8ea4:	e5c1c000 	strb	ip, [r1]
    8ea8:	e2811001 	add	r1, r1, #1
    8eac:	e1520003 	cmp	r2, r3
    8eb0:	2afffffa 	bcs	8ea0 <reverse+0x20>
    8eb4:	e3a03000 	mov	r3, #0
    8eb8:	e5c13000 	strb	r3, [r1]
    8ebc:	e12fff1e 	bx	lr

00008ec0 <emit>:
    8ec0:	e92d41f0 	push	{r4, r5, r6, r7, r8, lr}
    8ec4:	e24dd048 	sub	sp, sp, #72	; 0x48
    8ec8:	e1a05001 	mov	r5, r1
    8ecc:	e1a04002 	mov	r4, r2
    8ed0:	e59d2060 	ldr	r2, [sp, #96]	; 0x60
    8ed4:	e1520004 	cmp	r2, r4
    8ed8:	c2442001 	subgt	r2, r4, #1
    8edc:	e1a0c003 	mov	ip, r3
    8ee0:	e2400002 	sub	r0, r0, #2
    8ee4:	e350000e 	cmp	r0, #14
    8ee8:	979ff100 	ldrls	pc, [pc, r0, lsl #2]
    8eec:	ea000048 	b	9014 <emit+0x154>
    8ef0:	00008fec 	andeq	r8, r0, ip, ror #31
    8ef4:	00009014 	andeq	r9, r0, r4, lsl r0
    8ef8:	00009014 	andeq	r9, r0, r4, lsl r0
    8efc:	00009014 	andeq	r9, r0, r4, lsl r0
    8f00:	00009014 	andeq	r9, r0, r4, lsl r0
    8f04:	00009014 	andeq	r9, r0, r4, lsl r0
    8f08:	00008fe0 	andeq	r8, r0, r0, ror #31
    8f0c:	00009014 	andeq	r9, r0, r4, lsl r0
    8f10:	00008f2c 	andeq	r8, r0, ip, lsr #30
    8f14:	00009014 	andeq	r9, r0, r4, lsl r0
    8f18:	00009014 	andeq	r9, r0, r4, lsl r0
    8f1c:	00009014 	andeq	r9, r0, r4, lsl r0
    8f20:	00009014 	andeq	r9, r0, r4, lsl r0
    8f24:	00009014 	andeq	r9, r0, r4, lsl r0
    8f28:	00008fa0 	andeq	r8, r0, r0, lsr #31
    8f2c:	e59d1064 	ldr	r1, [sp, #100]	; 0x64
    8f30:	e2911000 	adds	r1, r1, #0
    8f34:	13a01001 	movne	r1, #1
    8f38:	e0111fa3 	ands	r1, r1, r3, lsr #31
    8f3c:	1263c000 	rsbne	ip, r3, #0
    8f40:	13a08001 	movne	r8, #1
    8f44:	03a08000 	moveq	r8, #0
    8f48:	e28d1008 	add	r1, sp, #8
    8f4c:	e59f7108 	ldr	r7, [pc, #264]	; 905c <emit+0x19c>
    8f50:	e59f6108 	ldr	r6, [pc, #264]	; 9060 <emit+0x1a0>
    8f54:	ea000000 	b	8f5c <emit+0x9c>
    8f58:	e1a01000 	mov	r1, r0
    8f5c:	e2810001 	add	r0, r1, #1
    8f60:	e083ec97 	umull	lr, r3, r7, ip
    8f64:	e1a031a3 	lsr	r3, r3, #3
    8f68:	e1a0e003 	mov	lr, r3
    8f6c:	e0833103 	add	r3, r3, r3, lsl #2
    8f70:	e1a03083 	lsl	r3, r3, #1
    8f74:	e063300c 	rsb	r3, r3, ip
    8f78:	e7d63003 	ldrb	r3, [r6, r3]
    8f7c:	e5c13000 	strb	r3, [r1]
    8f80:	e1a0c00e 	mov	ip, lr
    8f84:	e35e0000 	cmp	lr, #0
    8f88:	1afffff2 	bne	8f58 <emit+0x98>
    8f8c:	e3580000 	cmp	r8, #0
    8f90:	12810002 	addne	r0, r1, #2
    8f94:	13a0302d 	movne	r3, #45	; 0x2d
    8f98:	15c13001 	strbne	r3, [r1, #1]
    8f9c:	ea000025 	b	9038 <emit+0x178>
    8fa0:	e28d3008 	add	r3, sp, #8
    8fa4:	e59fe0b8 	ldr	lr, [pc, #184]	; 9064 <emit+0x1a4>
    8fa8:	ea000000 	b	8fb0 <emit+0xf0>
    8fac:	e1a03000 	mov	r3, r0
    8fb0:	e2830001 	add	r0, r3, #1
    8fb4:	e20c100f 	and	r1, ip, #15
    8fb8:	e7de1001 	ldrb	r1, [lr, r1]
    8fbc:	e5c31000 	strb	r1, [r3]
    8fc0:	e1b0c22c 	lsrs	ip, ip, #4
    8fc4:	1afffff8 	bne	8fac <emit+0xec>
    8fc8:	e3a01078 	mov	r1, #120	; 0x78
    8fcc:	e5c31001 	strb	r1, [r3, #1]
    8fd0:	e2830003 	add	r0, r3, #3
    8fd4:	e3a01030 	mov	r1, #48	; 0x30
    8fd8:	e5c31002 	strb	r1, [r3, #2]
    8fdc:	ea000015 	b	9038 <emit+0x178>
    8fe0:	e5cd3008 	strb	r3, [sp, #8]
    8fe4:	e28d0009 	add	r0, sp, #9
    8fe8:	ea000012 	b	9038 <emit+0x178>
    8fec:	e28d3008 	add	r3, sp, #8
    8ff0:	e59fe070 	ldr	lr, [pc, #112]	; 9068 <emit+0x1a8>
    8ff4:	e2830001 	add	r0, r3, #1
    8ff8:	e20c1001 	and	r1, ip, #1
    8ffc:	e7de1001 	ldrb	r1, [lr, r1]
    9000:	e5c31000 	strb	r1, [r3]
    9004:	e1a03000 	mov	r3, r0
    9008:	e1b0c0ac 	lsrs	ip, ip, #1
    900c:	1afffff8 	bne	8ff4 <emit+0x134>
    9010:	ea000008 	b	9038 <emit+0x178>
    9014:	ebffff72 	bl	8de4 <rpi_reset_putc>
    9018:	e59f304c 	ldr	r3, [pc, #76]	; 906c <emit+0x1ac>
    901c:	e58d3000 	str	r3, [sp]
    9020:	e59f0048 	ldr	r0, [pc, #72]	; 9070 <emit+0x1b0>
    9024:	e59f1048 	ldr	r1, [pc, #72]	; 9074 <emit+0x1b4>
    9028:	e59f2048 	ldr	r2, [pc, #72]	; 9078 <emit+0x1b8>
    902c:	e3a03077 	mov	r3, #119	; 0x77
    9030:	ebffff50 	bl	8d78 <printk>
    9034:	eb0000e7 	bl	93d8 <clean_reboot>
    9038:	e28d1008 	add	r1, sp, #8
    903c:	ebffff84 	bl	8e54 <pad>
    9040:	e1a02000 	mov	r2, r0
    9044:	e1a00005 	mov	r0, r5
    9048:	e1a01004 	mov	r1, r4
    904c:	e28d3008 	add	r3, sp, #8
    9050:	ebffff8a 	bl	8e80 <reverse>
    9054:	e28dd048 	add	sp, sp, #72	; 0x48
    9058:	e8bd81f0 	pop	{r4, r5, r6, r7, r8, pc}
    905c:	cccccccd 	stclgt	12, cr12, [ip], {205}	; 0xcd
    9060:	00009f74 	andeq	r9, r0, r4, ror pc
    9064:	00009f80 	andeq	r9, r0, r0, lsl #31
    9068:	00009f94 	muleq	r0, r4, pc	; <UNPREDICTABLE>
    906c:	00009f70 	andeq	r9, r0, r0, ror pc
    9070:	00009990 	muleq	r0, r0, r9
    9074:	00009f5c 	andeq	r9, r0, ip, asr pc
    9078:	00009f38 	andeq	r9, r0, r8, lsr pc

0000907c <rpi_set_output>:
    907c:	e52de004 	push	{lr}		; (str lr, [sp, #-4]!)
    9080:	e24dd00c 	sub	sp, sp, #12
    9084:	e3500000 	cmp	r0, #0
    9088:	1a000008 	bne	90b0 <rpi_set_output+0x34>
    908c:	ebffff54 	bl	8de4 <rpi_reset_putc>
    9090:	e59f3034 	ldr	r3, [pc, #52]	; 90cc <rpi_set_output+0x50>
    9094:	e58d3000 	str	r3, [sp]
    9098:	e59f0030 	ldr	r0, [pc, #48]	; 90d0 <rpi_set_output+0x54>
    909c:	e59f1030 	ldr	r1, [pc, #48]	; 90d4 <rpi_set_output+0x58>
    90a0:	e59f2030 	ldr	r2, [pc, #48]	; 90d8 <rpi_set_output+0x5c>
    90a4:	e3a03020 	mov	r3, #32
    90a8:	ebffff32 	bl	8d78 <printk>
    90ac:	eb0000c9 	bl	93d8 <clean_reboot>
    90b0:	e59f3024 	ldr	r3, [pc, #36]	; 90dc <rpi_set_output+0x60>
    90b4:	e5830000 	str	r0, [r3]
    90b8:	e3510000 	cmp	r1, #0
    90bc:	159f301c 	ldrne	r3, [pc, #28]	; 90e0 <rpi_set_output+0x64>
    90c0:	15831000 	strne	r1, [r3]
    90c4:	e28dd00c 	add	sp, sp, #12
    90c8:	e49df004 	pop	{pc}		; (ldr pc, [sp], #4)
    90cc:	00009f98 	muleq	r0, r8, pc	; <UNPREDICTABLE>
    90d0:	00009990 	muleq	r0, r0, r9
    90d4:	00009f5c 	andeq	r9, r0, ip, asr pc
    90d8:	00009f40 	andeq	r9, r0, r0, asr #30
    90dc:	00009988 	andeq	r9, r0, r8, lsl #19
    90e0:	0000998c 	andeq	r9, r0, ip, lsl #19

000090e4 <va_printk>:
    90e4:	e92d4ff0 	push	{r4, r5, r6, r7, r8, r9, sl, fp, lr}
    90e8:	e24dd094 	sub	sp, sp, #148	; 0x94
    90ec:	e1a0b000 	mov	fp, r0
    90f0:	e58d200c 	str	r2, [sp, #12]
    90f4:	e1a0a003 	mov	sl, r3
    90f8:	e2411001 	sub	r1, r1, #1
    90fc:	e0808001 	add	r8, r0, r1
    9100:	e3a03000 	mov	r3, #0
    9104:	e5c03000 	strb	r3, [r0]
    9108:	e1a04000 	mov	r4, r0
    910c:	e1a06002 	mov	r6, r2
    9110:	ea000095 	b	936c <va_printk+0x288>
    9114:	e3530025 	cmp	r3, #37	; 0x25
    9118:	12866001 	addne	r6, r6, #1
    911c:	15c43000 	strbne	r3, [r4]
    9120:	12844001 	addne	r4, r4, #1
    9124:	1a000090 	bne	936c <va_printk+0x288>
    9128:	e5d62001 	ldrb	r2, [r6, #1]
    912c:	e3520025 	cmp	r2, #37	; 0x25
    9130:	05c43000 	strbeq	r3, [r4]
    9134:	02866002 	addeq	r6, r6, #2
    9138:	02844001 	addeq	r4, r4, #1
    913c:	0a00008a 	beq	936c <va_printk+0x288>
    9140:	e2866001 	add	r6, r6, #1
    9144:	e3a07000 	mov	r7, #0
    9148:	ea000004 	b	9160 <va_printk+0x7c>
    914c:	e0877107 	add	r7, r7, r7, lsl #2
    9150:	e1a07087 	lsl	r7, r7, #1
    9154:	e0877005 	add	r7, r7, r5
    9158:	e2477030 	sub	r7, r7, #48	; 0x30
    915c:	e2866001 	add	r6, r6, #1
    9160:	e5d65000 	ldrb	r5, [r6]
    9164:	e1a09005 	mov	r9, r5
    9168:	e1a00005 	mov	r0, r5
    916c:	ebffff33 	bl	8e40 <isdigit>
    9170:	e3500000 	cmp	r0, #0
    9174:	1afffff4 	bne	914c <va_printk+0x68>
    9178:	e357001f 	cmp	r7, #31
    917c:	9a000008 	bls	91a4 <va_printk+0xc0>
    9180:	ebffff17 	bl	8de4 <rpi_reset_putc>
    9184:	e59f320c 	ldr	r3, [pc, #524]	; 9398 <va_printk+0x2b4>
    9188:	e58d3000 	str	r3, [sp]
    918c:	e59f0208 	ldr	r0, [pc, #520]	; 939c <va_printk+0x2b8>
    9190:	e59f1208 	ldr	r1, [pc, #520]	; 93a0 <va_printk+0x2bc>
    9194:	e59f2208 	ldr	r2, [pc, #520]	; 93a4 <va_printk+0x2c0>
    9198:	e3a03095 	mov	r3, #149	; 0x95
    919c:	ebfffef5 	bl	8d78 <printk>
    91a0:	eb00008c 	bl	93d8 <clean_reboot>
    91a4:	e2455062 	sub	r5, r5, #98	; 0x62
    91a8:	e3550016 	cmp	r5, #22
    91ac:	979ff105 	ldrls	pc, [pc, r5, lsl #2]
    91b0:	ea000052 	b	9300 <va_printk+0x21c>
    91b4:	000092a4 	andeq	r9, r0, r4, lsr #5
    91b8:	000092d8 	ldrdeq	r9, [r0], -r8
    91bc:	0000922c 	andeq	r9, r0, ip, lsr #4
    91c0:	00009300 	andeq	r9, r0, r0, lsl #6
    91c4:	00009210 	andeq	r9, r0, r0, lsl r2
    91c8:	00009300 	andeq	r9, r0, r0, lsl #6
    91cc:	00009300 	andeq	r9, r0, r0, lsl #6
    91d0:	00009300 	andeq	r9, r0, r0, lsl #6
    91d4:	00009300 	andeq	r9, r0, r0, lsl #6
    91d8:	00009300 	andeq	r9, r0, r0, lsl #6
    91dc:	00009300 	andeq	r9, r0, r0, lsl #6
    91e0:	00009300 	andeq	r9, r0, r0, lsl #6
    91e4:	00009300 	andeq	r9, r0, r0, lsl #6
    91e8:	00009300 	andeq	r9, r0, r0, lsl #6
    91ec:	0000927c 	andeq	r9, r0, ip, ror r2
    91f0:	00009300 	andeq	r9, r0, r0, lsl #6
    91f4:	00009300 	andeq	r9, r0, r0, lsl #6
    91f8:	000092cc 	andeq	r9, r0, ip, asr #5
    91fc:	00009300 	andeq	r9, r0, r0, lsl #6
    9200:	00009254 	andeq	r9, r0, r4, asr r2
    9204:	00009300 	andeq	r9, r0, r0, lsl #6
    9208:	00009300 	andeq	r9, r0, r0, lsl #6
    920c:	0000927c 	andeq	r9, r0, ip, ror r2
    9210:	ebfffef3 	bl	8de4 <rpi_reset_putc>
    9214:	e59f018c 	ldr	r0, [pc, #396]	; 93a8 <va_printk+0x2c4>
    9218:	e59f1180 	ldr	r1, [pc, #384]	; 93a0 <va_printk+0x2bc>
    921c:	e59f2180 	ldr	r2, [pc, #384]	; 93a4 <va_printk+0x2c0>
    9220:	e3a0309b 	mov	r3, #155	; 0x9b
    9224:	ebfffed3 	bl	8d78 <printk>
    9228:	eb00006a 	bl	93d8 <clean_reboot>
    922c:	e59a3000 	ldr	r3, [sl]
    9230:	e28aa004 	add	sl, sl, #4
    9234:	e58d7000 	str	r7, [sp]
    9238:	e3a02001 	mov	r2, #1
    923c:	e58d2004 	str	r2, [sp, #4]
    9240:	e3a0000a 	mov	r0, #10
    9244:	e28d1010 	add	r1, sp, #16
    9248:	e3a02080 	mov	r2, #128	; 0x80
    924c:	ebffff1b 	bl	8ec0 <emit>
    9250:	ea00003b 	b	9344 <va_printk+0x260>
    9254:	e59a3000 	ldr	r3, [sl]
    9258:	e28aa004 	add	sl, sl, #4
    925c:	e58d7000 	str	r7, [sp]
    9260:	e3a02000 	mov	r2, #0
    9264:	e58d2004 	str	r2, [sp, #4]
    9268:	e3a0000a 	mov	r0, #10
    926c:	e28d1010 	add	r1, sp, #16
    9270:	e3a02080 	mov	r2, #128	; 0x80
    9274:	ebffff11 	bl	8ec0 <emit>
    9278:	ea000031 	b	9344 <va_printk+0x260>
    927c:	e59a3000 	ldr	r3, [sl]
    9280:	e28aa004 	add	sl, sl, #4
    9284:	e58d7000 	str	r7, [sp]
    9288:	e3a02000 	mov	r2, #0
    928c:	e58d2004 	str	r2, [sp, #4]
    9290:	e3a00010 	mov	r0, #16
    9294:	e08d1000 	add	r1, sp, r0
    9298:	e3a02080 	mov	r2, #128	; 0x80
    929c:	ebffff07 	bl	8ec0 <emit>
    92a0:	ea000027 	b	9344 <va_printk+0x260>
    92a4:	e59a3000 	ldr	r3, [sl]
    92a8:	e28aa004 	add	sl, sl, #4
    92ac:	e58d7000 	str	r7, [sp]
    92b0:	e3a02000 	mov	r2, #0
    92b4:	e58d2004 	str	r2, [sp, #4]
    92b8:	e3a00002 	mov	r0, #2
    92bc:	e28d1010 	add	r1, sp, #16
    92c0:	e3a02080 	mov	r2, #128	; 0x80
    92c4:	ebfffefd 	bl	8ec0 <emit>
    92c8:	ea00001d 	b	9344 <va_printk+0x260>
    92cc:	e59a0000 	ldr	r0, [sl]
    92d0:	e28aa004 	add	sl, sl, #4
    92d4:	ea00001a 	b	9344 <va_printk+0x260>
    92d8:	e59a3000 	ldr	r3, [sl]
    92dc:	e28aa004 	add	sl, sl, #4
    92e0:	e58d7000 	str	r7, [sp]
    92e4:	e3a02000 	mov	r2, #0
    92e8:	e58d2004 	str	r2, [sp, #4]
    92ec:	e3a00008 	mov	r0, #8
    92f0:	e28d1010 	add	r1, sp, #16
    92f4:	e3a02080 	mov	r2, #128	; 0x80
    92f8:	ebfffef0 	bl	8ec0 <emit>
    92fc:	ea000010 	b	9344 <va_printk+0x260>
    9300:	e3a03000 	mov	r3, #0
    9304:	e5c63001 	strb	r3, [r6, #1]
    9308:	e59f009c 	ldr	r0, [pc, #156]	; 93ac <va_printk+0x2c8>
    930c:	e1a01009 	mov	r1, r9
    9310:	e1a02009 	mov	r2, r9
    9314:	ebfffe97 	bl	8d78 <printk>
    9318:	e59f3090 	ldr	r3, [pc, #144]	; 93b0 <va_printk+0x2cc>
    931c:	e5933000 	ldr	r3, [r3]
    9320:	e59d000c 	ldr	r0, [sp, #12]
    9324:	e12fff33 	blx	r3
    9328:	ebfffead 	bl	8de4 <rpi_reset_putc>
    932c:	e59f0080 	ldr	r0, [pc, #128]	; 93b4 <va_printk+0x2d0>
    9330:	e59f1068 	ldr	r1, [pc, #104]	; 93a0 <va_printk+0x2bc>
    9334:	e59f2068 	ldr	r2, [pc, #104]	; 93a4 <va_printk+0x2c0>
    9338:	e3a030bf 	mov	r3, #191	; 0xbf
    933c:	ebfffe8d 	bl	8d78 <printk>
    9340:	eb000024 	bl	93d8 <clean_reboot>
    9344:	e2866001 	add	r6, r6, #1
    9348:	ea000002 	b	9358 <va_printk+0x274>
    934c:	e2800001 	add	r0, r0, #1
    9350:	e5c43000 	strb	r3, [r4]
    9354:	e2844001 	add	r4, r4, #1
    9358:	e1540008 	cmp	r4, r8
    935c:	2a000002 	bcs	936c <va_printk+0x288>
    9360:	e5d03000 	ldrb	r3, [r0]
    9364:	e3530000 	cmp	r3, #0
    9368:	1afffff7 	bne	934c <va_printk+0x268>
    936c:	e5d63000 	ldrb	r3, [r6]
    9370:	e3530000 	cmp	r3, #0
    9374:	0a000001 	beq	9380 <va_printk+0x29c>
    9378:	e1540008 	cmp	r4, r8
    937c:	3affff64 	bcc	9114 <va_printk+0x30>
    9380:	e2840001 	add	r0, r4, #1
    9384:	e3a03000 	mov	r3, #0
    9388:	e5c43000 	strb	r3, [r4]
    938c:	e06b0000 	rsb	r0, fp, r0
    9390:	e28dd094 	add	sp, sp, #148	; 0x94
    9394:	e8bd8ff0 	pop	{r4, r5, r6, r7, r8, r9, sl, fp, pc}
    9398:	00009fa0 	andeq	r9, r0, r0, lsr #31
    939c:	00009990 	muleq	r0, r0, r9
    93a0:	00009f5c 	andeq	r9, r0, ip, asr pc
    93a4:	00009f50 	andeq	r9, r0, r0, asr pc
    93a8:	00009fac 	andeq	r9, r0, ip, lsr #31
    93ac:	00009fd4 	ldrdeq	r9, [r0], -r4
    93b0:	0000998c 	andeq	r9, r0, ip, lsl #19
    93b4:	0000a004 	andeq	sl, r0, r4

000093b8 <enable_cache>:
    93b8:	ee113f10 	mrc	15, 0, r3, cr1, cr0, {0}
    93bc:	e3833b06 	orr	r3, r3, #6144	; 0x1800
    93c0:	ee013f10 	mcr	15, 0, r3, cr1, cr0, {0}
    93c4:	e12fff1e 	bx	lr

000093c8 <disable_cache>:
    93c8:	ee113f10 	mrc	15, 0, r3, cr1, cr0, {0}
    93cc:	e3c33b06 	bic	r3, r3, #6144	; 0x1800
    93d0:	ee013f10 	mcr	15, 0, r3, cr1, cr0, {0}
    93d4:	e12fff1e 	bx	lr

000093d8 <clean_reboot>:
    93d8:	e92d4008 	push	{r3, lr}
    93dc:	eb00004a 	bl	950c <reboot_handler>
    93e0:	e59f3014 	ldr	r3, [pc, #20]	; 93fc <clean_reboot+0x24>
    93e4:	e5933000 	ldr	r3, [r3]
    93e8:	e59f0010 	ldr	r0, [pc, #16]	; 9400 <clean_reboot+0x28>
    93ec:	e12fff33 	blx	r3
    93f0:	e3a00064 	mov	r0, #100	; 0x64
    93f4:	eb000099 	bl	9660 <delay_ms>
    93f8:	eb00006a 	bl	95a8 <rpi_reboot>
    93fc:	0000998c 	andeq	r9, r0, ip, lsl #19
    9400:	0000a024 	andeq	sl, r0, r4, lsr #32

00009404 <_cstart>:
    9404:	e92d4008 	push	{r3, lr}
    9408:	e59f3024 	ldr	r3, [pc, #36]	; 9434 <_cstart+0x30>
    940c:	e59f2024 	ldr	r2, [pc, #36]	; 9438 <_cstart+0x34>
    9410:	e3a01000 	mov	r1, #0
    9414:	ea000001 	b	9420 <_cstart+0x1c>
    9418:	e5831000 	str	r1, [r3]
    941c:	e2833004 	add	r3, r3, #4
    9420:	e1530002 	cmp	r3, r2
    9424:	3afffffb 	bcc	9418 <_cstart+0x14>
    9428:	eb000036 	bl	9508 <cstart_handler>
    942c:	ebfffb22 	bl	80bc <notmain>
    9430:	ebffffe8 	bl	93d8 <clean_reboot>
    9434:	0000a148 	andeq	sl, r0, r8, asr #2
    9438:	0000a568 	andeq	sl, r0, r8, ror #10

0000943c <fast_interrupt_vector>:
    943c:	e52de004 	push	{lr}		; (str lr, [sp, #-4]!)
    9440:	e24dd00c 	sub	sp, sp, #12
    9444:	e1a04000 	mov	r4, r0
    9448:	ebfffe65 	bl	8de4 <rpi_reset_putc>
    944c:	e59f301c 	ldr	r3, [pc, #28]	; 9470 <fast_interrupt_vector+0x34>
    9450:	e58d3000 	str	r3, [sp]
    9454:	e58d4004 	str	r4, [sp, #4]
    9458:	e59f0014 	ldr	r0, [pc, #20]	; 9474 <fast_interrupt_vector+0x38>
    945c:	e59f1014 	ldr	r1, [pc, #20]	; 9478 <fast_interrupt_vector+0x3c>
    9460:	e59f2014 	ldr	r2, [pc, #20]	; 947c <fast_interrupt_vector+0x40>
    9464:	e3a03002 	mov	r3, #2
    9468:	ebfffe42 	bl	8d78 <printk>
    946c:	ebffffd9 	bl	93d8 <clean_reboot>
    9470:	0000a0a8 	andeq	sl, r0, r8, lsr #1
    9474:	0000a048 	andeq	sl, r0, r8, asr #32
    9478:	0000a084 	andeq	sl, r0, r4, lsl #1
    947c:	0000a030 	andeq	sl, r0, r0, lsr r0

00009480 <reset_vector>:
    9480:	e52de004 	push	{lr}		; (str lr, [sp, #-4]!)
    9484:	e24dd00c 	sub	sp, sp, #12
    9488:	e1a04000 	mov	r4, r0
    948c:	ebfffe54 	bl	8de4 <rpi_reset_putc>
    9490:	e59f301c 	ldr	r3, [pc, #28]	; 94b4 <reset_vector+0x34>
    9494:	e58d3000 	str	r3, [sp]
    9498:	e58d4004 	str	r4, [sp, #4]
    949c:	e59f0014 	ldr	r0, [pc, #20]	; 94b8 <reset_vector+0x38>
    94a0:	e59f1014 	ldr	r1, [pc, #20]	; 94bc <reset_vector+0x3c>
    94a4:	e59f2014 	ldr	r2, [pc, #20]	; 94c0 <reset_vector+0x40>
    94a8:	e3a03002 	mov	r3, #2
    94ac:	ebfffe31 	bl	8d78 <printk>
    94b0:	ebffffc8 	bl	93d8 <clean_reboot>
    94b4:	0000a0e4 	andeq	sl, r0, r4, ror #1
    94b8:	0000a048 	andeq	sl, r0, r8, asr #32
    94bc:	0000a0c0 	andeq	sl, r0, r0, asr #1
    94c0:	0000a0b0 	strheq	sl, [r0], -r0

000094c4 <undefined_instruction_vector>:
    94c4:	e52de004 	push	{lr}		; (str lr, [sp, #-4]!)
    94c8:	e24dd00c 	sub	sp, sp, #12
    94cc:	e1a04000 	mov	r4, r0
    94d0:	ebfffe43 	bl	8de4 <rpi_reset_putc>
    94d4:	e59f301c 	ldr	r3, [pc, #28]	; 94f8 <undefined_instruction_vector+0x34>
    94d8:	e58d3000 	str	r3, [sp]
    94dc:	e58d4004 	str	r4, [sp, #4]
    94e0:	e59f0014 	ldr	r0, [pc, #20]	; 94fc <undefined_instruction_vector+0x38>
    94e4:	e59f1014 	ldr	r1, [pc, #20]	; 9500 <undefined_instruction_vector+0x3c>
    94e8:	e59f2014 	ldr	r2, [pc, #20]	; 9504 <undefined_instruction_vector+0x40>
    94ec:	e3a03002 	mov	r3, #2
    94f0:	ebfffe20 	bl	8d78 <printk>
    94f4:	ebffffb7 	bl	93d8 <clean_reboot>
    94f8:	0000a138 	andeq	sl, r0, r8, lsr r1
    94fc:	0000a048 	andeq	sl, r0, r8, asr #32
    9500:	0000a10c 	andeq	sl, r0, ip, lsl #2
    9504:	0000a0ec 	andeq	sl, r0, ip, ror #1

00009508 <cstart_handler>:
    9508:	e12fff1e 	bx	lr

0000950c <reboot_handler>:
    950c:	e12fff1e 	bx	lr

00009510 <int_init>:
    9510:	e92d4008 	push	{r3, lr}
    9514:	eb00005b 	bl	9688 <dev_barrier>
    9518:	e59f004c 	ldr	r0, [pc, #76]	; 956c <int_init+0x5c>
    951c:	e3e01000 	mvn	r1, #0
    9520:	eb000060 	bl	96a8 <PUT32>
    9524:	e59f0044 	ldr	r0, [pc, #68]	; 9570 <int_init+0x60>
    9528:	e3e01000 	mvn	r1, #0
    952c:	eb00005d 	bl	96a8 <PUT32>
    9530:	eb000054 	bl	9688 <dev_barrier>
    9534:	e59f3038 	ldr	r3, [pc, #56]	; 9574 <int_init+0x64>
    9538:	e59f0038 	ldr	r0, [pc, #56]	; 9578 <int_init+0x68>
    953c:	e0630000 	rsb	r0, r3, r0
    9540:	e1a00140 	asr	r0, r0, #2
    9544:	e3a03000 	mov	r3, #0
    9548:	e59fc024 	ldr	ip, [pc, #36]	; 9574 <int_init+0x64>
    954c:	ea000003 	b	9560 <int_init+0x50>
    9550:	e1a02103 	lsl	r2, r3, #2
    9554:	e79c1103 	ldr	r1, [ip, r3, lsl #2]
    9558:	e5821000 	str	r1, [r2]
    955c:	e2833001 	add	r3, r3, #1
    9560:	e1530000 	cmp	r3, r0
    9564:	3afffff9 	bcc	9550 <int_init+0x40>
    9568:	e8bd8008 	pop	{r3, pc}
    956c:	2000b21c 	andcs	fp, r0, ip, lsl r2
    9570:	2000b220 	andcs	fp, r0, r0, lsr #4
    9574:	00008538 	andeq	r8, r0, r8, lsr r5
    9578:	00008578 	andeq	r8, r0, r8, ror r5

0000957c <at_user_level>:
    957c:	e10f0000 	mrs	r0, CPSR
    9580:	e200001f 	and	r0, r0, #31
    9584:	e3500010 	cmp	r0, #16
    9588:	13a00000 	movne	r0, #0
    958c:	03a00001 	moveq	r0, #1
    9590:	e12fff1e 	bx	lr

00009594 <set_user_level>:
    9594:	e10f3000 	mrs	r3, CPSR
    9598:	e3c3301f 	bic	r3, r3, #31
    959c:	e3833010 	orr	r3, r3, #16
    95a0:	e129f003 	msr	CPSR_fc, r3
    95a4:	e12fff1e 	bx	lr

000095a8 <rpi_reboot>:
    95a8:	e92d4008 	push	{r3, lr}
    95ac:	ebfffff2 	bl	957c <at_user_level>
    95b0:	e3500000 	cmp	r0, #0
    95b4:	0a000000 	beq	95bc <rpi_reboot+0x14>
    95b8:	ebfffff5 	bl	9594 <set_user_level>
    95bc:	e3a0001e 	mov	r0, #30
    95c0:	eb000026 	bl	9660 <delay_ms>
    95c4:	e59f0014 	ldr	r0, [pc, #20]	; 95e0 <rpi_reboot+0x38>
    95c8:	e59f1014 	ldr	r1, [pc, #20]	; 95e4 <rpi_reboot+0x3c>
    95cc:	eb000035 	bl	96a8 <PUT32>
    95d0:	e59f0010 	ldr	r0, [pc, #16]	; 95e8 <rpi_reboot+0x40>
    95d4:	e59f1010 	ldr	r1, [pc, #16]	; 95ec <rpi_reboot+0x44>
    95d8:	eb000032 	bl	96a8 <PUT32>
    95dc:	eafffffe 	b	95dc <rpi_reboot+0x34>
    95e0:	20100024 	andscs	r0, r0, r4, lsr #32
    95e4:	5a000001 	bpl	95f0 <delay_cycles>
    95e8:	2010001c 	andscs	r0, r0, ip, lsl r0
    95ec:	5a000020 	bpl	9674 <delay_sec>

000095f0 <delay_cycles>:
    95f0:	ea000001 	b	95fc <delay_cycles+0xc>
    95f4:	e2811000 	add	r1, r1, #0
    95f8:	e1a00003 	mov	r0, r3
    95fc:	e2403001 	sub	r3, r0, #1
    9600:	e3500000 	cmp	r0, #0
    9604:	1afffffa 	bne	95f4 <delay_cycles+0x4>
    9608:	e12fff1e 	bx	lr

0000960c <timer_get_usec_raw>:
    960c:	e92d4008 	push	{r3, lr}
    9610:	e59f0004 	ldr	r0, [pc, #4]	; 961c <timer_get_usec_raw+0x10>
    9614:	eb00002f 	bl	96d8 <GET32>
    9618:	e8bd8008 	pop	{r3, pc}
    961c:	20003004 	andcs	r3, r0, r4

00009620 <timer_get_usec>:
    9620:	e92d4010 	push	{r4, lr}
    9624:	eb000017 	bl	9688 <dev_barrier>
    9628:	ebfffff7 	bl	960c <timer_get_usec_raw>
    962c:	e1a04000 	mov	r4, r0
    9630:	eb000014 	bl	9688 <dev_barrier>
    9634:	e1a00004 	mov	r0, r4
    9638:	e8bd8010 	pop	{r4, pc}

0000963c <delay_us>:
    963c:	e92d4038 	push	{r3, r4, r5, lr}
    9640:	e1a05000 	mov	r5, r0
    9644:	ebfffff5 	bl	9620 <timer_get_usec>
    9648:	e1a04000 	mov	r4, r0
    964c:	ebfffff3 	bl	9620 <timer_get_usec>
    9650:	e0640000 	rsb	r0, r4, r0
    9654:	e1500005 	cmp	r0, r5
    9658:	3afffffb 	bcc	964c <delay_us+0x10>
    965c:	e8bd8038 	pop	{r3, r4, r5, pc}

00009660 <delay_ms>:
    9660:	e92d4008 	push	{r3, lr}
    9664:	e3a03ffa 	mov	r3, #1000	; 0x3e8
    9668:	e0000093 	mul	r0, r3, r0
    966c:	ebfffff2 	bl	963c <delay_us>
    9670:	e8bd8008 	pop	{r3, pc}

00009674 <delay_sec>:
    9674:	e92d4008 	push	{r3, lr}
    9678:	e3a03ffa 	mov	r3, #1000	; 0x3e8
    967c:	e0000093 	mul	r0, r3, r0
    9680:	ebfffff6 	bl	9660 <delay_ms>
    9684:	e8bd8008 	pop	{r3, pc}

00009688 <dev_barrier>:
    9688:	ea000002 	b	9698 <dsb>

0000968c <dmb>:
    968c:	e3a00000 	mov	r0, #0
    9690:	ee070fba 	mcr	15, 0, r0, cr7, cr10, {5}
    9694:	e12fff1e 	bx	lr

00009698 <dsb>:
    9698:	ee070f9a 	mcr	15, 0, r0, cr7, cr10, {4}
    969c:	e12fff1e 	bx	lr

000096a0 <put32>:
    96a0:	e5801000 	str	r1, [r0]
    96a4:	e12fff1e 	bx	lr

000096a8 <PUT32>:
    96a8:	e5801000 	str	r1, [r0]
    96ac:	e12fff1e 	bx	lr

000096b0 <put16>:
    96b0:	e1c010b0 	strh	r1, [r0]
    96b4:	e12fff1e 	bx	lr

000096b8 <PUT16>:
    96b8:	e1c010b0 	strh	r1, [r0]
    96bc:	e12fff1e 	bx	lr

000096c0 <put8>:
    96c0:	e5c01000 	strb	r1, [r0]
    96c4:	e12fff1e 	bx	lr

000096c8 <PUT8>:
    96c8:	e5c01000 	strb	r1, [r0]
    96cc:	e12fff1e 	bx	lr

000096d0 <get32>:
    96d0:	e5900000 	ldr	r0, [r0]
    96d4:	e12fff1e 	bx	lr

000096d8 <GET32>:
    96d8:	e5900000 	ldr	r0, [r0]
    96dc:	e12fff1e 	bx	lr

000096e0 <GETPC>:
    96e0:	e1a0000e 	mov	r0, lr
    96e4:	e12fff1e 	bx	lr

000096e8 <dummy>:
    96e8:	e12fff1e 	bx	lr

000096ec <or_in32>:
    96ec:	e92d4070 	push	{r4, r5, r6, lr}
    96f0:	e1a04000 	mov	r4, r0
    96f4:	e1a05001 	mov	r5, r1
    96f8:	ebfffff4 	bl	96d0 <get32>
    96fc:	e1801005 	orr	r1, r0, r5
    9700:	e1a00004 	mov	r0, r4
    9704:	ebffffe5 	bl	96a0 <put32>
    9708:	e8bd8070 	pop	{r4, r5, r6, pc}

0000970c <uart_init>:
    970c:	e92d4010 	push	{r4, lr}
    9710:	e3a01002 	mov	r1, #2
    9714:	e3a0000e 	mov	r0, #14
    9718:	eb000051 	bl	9864 <gpio_set_function>
    971c:	e3a01002 	mov	r1, #2
    9720:	e3a0000f 	mov	r0, #15
    9724:	eb00004e 	bl	9864 <gpio_set_function>
    9728:	ebffffd6 	bl	9688 <dev_barrier>
    972c:	e3a01001 	mov	r1, #1
    9730:	e59f0064 	ldr	r0, [pc, #100]	; 979c <uart_init+0x90>
    9734:	ebffffec 	bl	96ec <or_in32>
    9738:	ebffffd2 	bl	9688 <dev_barrier>
    973c:	e59f405c 	ldr	r4, [pc, #92]	; 97a0 <uart_init+0x94>
    9740:	e3a01000 	mov	r1, #0
    9744:	e1a00004 	mov	r0, r4
    9748:	ebffffd4 	bl	96a0 <put32>
    974c:	e3a01000 	mov	r1, #0
    9750:	e59f004c 	ldr	r0, [pc, #76]	; 97a4 <uart_init+0x98>
    9754:	ebffffd1 	bl	96a0 <put32>
    9758:	e3a01003 	mov	r1, #3
    975c:	e59f0044 	ldr	r0, [pc, #68]	; 97a8 <uart_init+0x9c>
    9760:	ebffffce 	bl	96a0 <put32>
    9764:	e3a01000 	mov	r1, #0
    9768:	e59f003c 	ldr	r0, [pc, #60]	; 97ac <uart_init+0xa0>
    976c:	ebffffcb 	bl	96a0 <put32>
    9770:	e3a010c7 	mov	r1, #199	; 0xc7
    9774:	e59f0034 	ldr	r0, [pc, #52]	; 97b0 <uart_init+0xa4>
    9778:	ebffffc8 	bl	96a0 <put32>
    977c:	e59f1030 	ldr	r1, [pc, #48]	; 97b4 <uart_init+0xa8>
    9780:	e59f0030 	ldr	r0, [pc, #48]	; 97b8 <uart_init+0xac>
    9784:	ebffffc5 	bl	96a0 <put32>
    9788:	e3a01003 	mov	r1, #3
    978c:	e1a00004 	mov	r0, r4
    9790:	ebffffc2 	bl	96a0 <put32>
    9794:	ebffffbb 	bl	9688 <dev_barrier>
    9798:	e8bd8010 	pop	{r4, pc}
    979c:	20215004 	eorcs	r5, r1, r4
    97a0:	20215060 	eorcs	r5, r1, r0, rrx
    97a4:	20215044 	eorcs	r5, r1, r4, asr #32
    97a8:	2021504c 	eorcs	r5, r1, ip, asr #32
    97ac:	20215050 	eorcs	r5, r1, r0, asr r0
    97b0:	20215048 	eorcs	r5, r1, r8, asr #32
    97b4:	0000010e 	andeq	r0, r0, lr, lsl #2
    97b8:	20215068 	eorcs	r5, r1, r8, rrx

000097bc <uart_can_getc>:
    97bc:	e92d4010 	push	{r4, lr}
    97c0:	e59f0008 	ldr	r0, [pc, #8]	; 97d0 <uart_can_getc+0x14>
    97c4:	ebffffc1 	bl	96d0 <get32>
    97c8:	e2000001 	and	r0, r0, #1
    97cc:	e8bd8010 	pop	{r4, pc}
    97d0:	20215064 	eorcs	r5, r1, r4, rrx

000097d4 <uart_can_putc>:
    97d4:	e92d4010 	push	{r4, lr}
    97d8:	e59f0010 	ldr	r0, [pc, #16]	; 97f0 <uart_can_putc+0x1c>
    97dc:	ebffffbb 	bl	96d0 <get32>
    97e0:	e3100002 	tst	r0, #2
    97e4:	13a00001 	movne	r0, #1
    97e8:	03a00000 	moveq	r0, #0
    97ec:	e8bd8010 	pop	{r4, pc}
    97f0:	20215064 	eorcs	r5, r1, r4, rrx

000097f4 <uart_getc>:
    97f4:	e92d4010 	push	{r4, lr}
    97f8:	ebffffa2 	bl	9688 <dev_barrier>
    97fc:	ebffffee 	bl	97bc <uart_can_getc>
    9800:	e3500000 	cmp	r0, #0
    9804:	0afffffc 	beq	97fc <uart_getc+0x8>
    9808:	e59f0010 	ldr	r0, [pc, #16]	; 9820 <uart_getc+0x2c>
    980c:	ebffffaf 	bl	96d0 <get32>
    9810:	e6ef4070 	uxtb	r4, r0
    9814:	ebffff9b 	bl	9688 <dev_barrier>
    9818:	e1a00004 	mov	r0, r4
    981c:	e8bd8010 	pop	{r4, pc}
    9820:	20215040 	eorcs	r5, r1, r0, asr #32

00009824 <uart_putc>:
    9824:	e92d4010 	push	{r4, lr}
    9828:	e1a04000 	mov	r4, r0
    982c:	ebffff95 	bl	9688 <dev_barrier>
    9830:	ebffffe7 	bl	97d4 <uart_can_putc>
    9834:	e3500000 	cmp	r0, #0
    9838:	0afffffc 	beq	9830 <uart_putc+0xc>
    983c:	e6ef1074 	uxtb	r1, r4
    9840:	e59f0008 	ldr	r0, [pc, #8]	; 9850 <uart_putc+0x2c>
    9844:	ebffff95 	bl	96a0 <put32>
    9848:	ebffff8e 	bl	9688 <dev_barrier>
    984c:	e8bd8010 	pop	{r4, pc}
    9850:	20215040 	eorcs	r5, r1, r0, asr #32

00009854 <uart_has_data>:
    9854:	e92d4010 	push	{r4, lr}
    9858:	ebffff8a 	bl	9688 <dev_barrier>
    985c:	ebffffd6 	bl	97bc <uart_can_getc>
    9860:	e8bd8010 	pop	{r4, pc}

00009864 <gpio_set_function>:
    9864:	e350001f 	cmp	r0, #31
    9868:	812fff1e 	bxhi	lr
    986c:	e3d13007 	bics	r3, r1, #7
    9870:	112fff1e 	bxne	lr
    9874:	e92d4070 	push	{r4, r5, r6, lr}
    9878:	e1a05001 	mov	r5, r1
    987c:	e59f3044 	ldr	r3, [pc, #68]	; 98c8 <gpio_set_function+0x64>
    9880:	e0832093 	umull	r2, r3, r3, r0
    9884:	e1a031a3 	lsr	r3, r3, #3
    9888:	e1a06003 	mov	r6, r3
    988c:	e0833103 	add	r3, r3, r3, lsl #2
    9890:	e1a02083 	lsl	r2, r3, #1
    9894:	e0403002 	sub	r3, r0, r2
    9898:	e0834083 	add	r4, r3, r3, lsl #1
    989c:	e2866302 	add	r6, r6, #134217728	; 0x8000000
    98a0:	e2866702 	add	r6, r6, #524288	; 0x80000
    98a4:	e1a06106 	lsl	r6, r6, #2
    98a8:	e1a00006 	mov	r0, r6
    98ac:	ebffff89 	bl	96d8 <GET32>
    98b0:	e3a01007 	mov	r1, #7
    98b4:	e1c01411 	bic	r1, r0, r1, lsl r4
    98b8:	e1811415 	orr	r1, r1, r5, lsl r4
    98bc:	e1a00006 	mov	r0, r6
    98c0:	ebffff78 	bl	96a8 <PUT32>
    98c4:	e8bd8070 	pop	{r4, r5, r6, pc}
    98c8:	cccccccd 	stclgt	12, cr12, [ip], {205}	; 0xcd

000098cc <gpio_set_output>:
    98cc:	e92d4010 	push	{r4, lr}
    98d0:	e3a01001 	mov	r1, #1
    98d4:	ebffffe2 	bl	9864 <gpio_set_function>
    98d8:	e8bd8010 	pop	{r4, pc}

000098dc <gpio_set_on>:
    98dc:	e350001f 	cmp	r0, #31
    98e0:	812fff1e 	bxhi	lr
    98e4:	e92d4010 	push	{r4, lr}
    98e8:	e3a01001 	mov	r1, #1
    98ec:	e1a01011 	lsl	r1, r1, r0
    98f0:	e59f0004 	ldr	r0, [pc, #4]	; 98fc <gpio_set_on+0x20>
    98f4:	ebffff6b 	bl	96a8 <PUT32>
    98f8:	e8bd8010 	pop	{r4, pc}
    98fc:	2020001c 	eorcs	r0, r0, ip, lsl r0

00009900 <gpio_set_off>:
    9900:	e350001f 	cmp	r0, #31
    9904:	812fff1e 	bxhi	lr
    9908:	e92d4010 	push	{r4, lr}
    990c:	e3a01001 	mov	r1, #1
    9910:	e1a01011 	lsl	r1, r1, r0
    9914:	e59f0004 	ldr	r0, [pc, #4]	; 9920 <gpio_set_off+0x20>
    9918:	ebffff62 	bl	96a8 <PUT32>
    991c:	e8bd8010 	pop	{r4, pc}
    9920:	20200028 	eorcs	r0, r0, r8, lsr #32

00009924 <gpio_set_input>:
    9924:	e92d4010 	push	{r4, lr}
    9928:	e3a01000 	mov	r1, #0
    992c:	ebffffcc 	bl	9864 <gpio_set_function>
    9930:	e8bd8010 	pop	{r4, pc}

00009934 <gpio_write>:
    9934:	e92d4010 	push	{r4, lr}
    9938:	e3510000 	cmp	r1, #0
    993c:	1a000001 	bne	9948 <gpio_write+0x14>
    9940:	ebffffee 	bl	9900 <gpio_set_off>
    9944:	e8bd8010 	pop	{r4, pc}
    9948:	ebffffe3 	bl	98dc <gpio_set_on>
    994c:	e8bd8010 	pop	{r4, pc}

00009950 <gpio_read>:
    9950:	e350001f 	cmp	r0, #31
    9954:	8a000007 	bhi	9978 <gpio_read+0x28>
    9958:	e92d4010 	push	{r4, lr}
    995c:	e200401f 	and	r4, r0, #31
    9960:	e59f3018 	ldr	r3, [pc, #24]	; 9980 <gpio_read+0x30>
    9964:	e08302a0 	add	r0, r3, r0, lsr #5
    9968:	ebffff5a 	bl	96d8 <GET32>
    996c:	e1a00430 	lsr	r0, r0, r4
    9970:	e2000001 	and	r0, r0, #1
    9974:	e8bd8010 	pop	{r4, pc}
    9978:	e3e00000 	mvn	r0, #0
    997c:	e12fff1e 	bx	lr
    9980:	20200034 	eorcs	r0, r0, r4, lsr r0

00009984 <__code_end__>:
    9984:	00000000 	andeq	r0, r0, r0

Disassembly of section .data:

00009988 <__data_start__>:
    9988:	00008dd0 	ldrdeq	r8, [r0], -r0

0000998c <putk>:
    998c:	00008e0c 	andeq	r8, r0, ip, lsl #28

Disassembly of section .rodata:

00009990 <C.0.4400-0xd8>:
    9990:	494e4150 	stmdbmi	lr, {r4, r6, r8, lr}^
    9994:	73253a43 	teqvc	r5, #274432	; 0x43000
    9998:	3a73253a 	bcc	1cd2e88 <__bss_end__+0x1cc8920>
    999c:	253a6425 	ldrcs	r6, [sl, #-1061]!	; 0x425
    99a0:	00000a73 	andeq	r0, r0, r3, ror sl
    99a4:	74736574 	ldrbtvc	r6, [r3], #-1396	; 0x574
    99a8:	302e3273 	eorcc	r3, lr, r3, ror r2
    99ac:	2d36312f 	ldfcss	f3, [r6, #-188]!	; 0xffffff44
    99b0:	74726170 	ldrbtvc	r6, [r2], #-368	; 0x170
    99b4:	65742d32 	ldrbvs	r2, [r4, #-3378]!	; 0xd32
    99b8:	2e337473 	mrccs	4, 1, r7, cr3, cr3, {3}
    99bc:	00000063 	andeq	r0, r0, r3, rrx
    99c0:	6e2e6321 	cdpvs	3, 2, cr6, cr14, cr1, {1}
    99c4:	6f727265 	svcvs	0x00727265
    99c8:	00007372 	andeq	r7, r0, r2, ror r3
    99cc:	494e4150 	stmdbmi	lr, {r4, r6, r8, lr}^
    99d0:	73253a43 	teqvc	r5, #274432	; 0x43000
    99d4:	3a73253a 	bcc	1cd2ec4 <__bss_end__+0x1cc895c>
    99d8:	633a6425 	teqvs	sl, #620756992	; 0x25000000
    99dc:	6b636568 	blvs	18e2f84 <__bss_end__+0x18d8a1c>
    99e0:	6f687320 	svcvs	0x00687320
    99e4:	20646c75 	rsbcs	r6, r4, r5, ror ip
    99e8:	65766168 	ldrbvs	r6, [r6, #-360]!	; 0x168
    99ec:	69616620 	stmdbvs	r1!, {r5, r9, sl, sp, lr}^
    99f0:	2c64656c 	cfstr64cs	mvdx6, [r4], #-432	; 0xfffffe50
    99f4:	69727420 	ldmdbvs	r2!, {r5, sl, ip, sp, lr}^
    99f8:	3d736c61 	ldclcc	12, cr6, [r3, #-388]!	; 0xfffffe7c
    99fc:	21216425 	teqcs	r1, r5, lsr #8
    9a00:	00000a0a 	andeq	r0, r0, sl, lsl #20
    9a04:	656e6f64 	strbvs	r6, [lr, #-3940]!	; 0xf64
    9a08:	65686320 	strbvs	r6, [r8, #-800]!	; 0x320
    9a0c:	6e696b63 	vnmulvs.f64	d22, d9, d19
    9a10:	74203a67 	strtvc	r3, [r0], #-2663	; 0xa67
    9a14:	6c616972 	stclvs	9, cr6, [r1], #-456	; 0xfffffe38
    9a18:	64253d73 	strtvs	r3, [r5], #-3443	; 0xd73
    9a1c:	72726520 	rsbsvc	r6, r2, #32, 10	; 0x8000000
    9a20:	3d73726f 	lfmcc	f7, 2, [r3, #-444]!	; 0xfffffe44
    9a24:	21216425 	teqcs	r1, r5, lsr #8
    9a28:	0000000a 	andeq	r0, r0, sl
    9a2c:	656e2e63 	strbvs	r2, [lr, #-3683]!	; 0xe63
    9a30:	726f7272 	rsbvc	r7, pc, #536870919	; 0x20000007
    9a34:	3d3d2073 	ldccc	0, cr2, [sp, #-460]!	; 0xfffffe34
    9a38:	6e2e6320 	cdpvs	3, 2, cr6, cr14, cr0, {1}
    9a3c:	61697274 	smcvs	38692	; 0x9724
    9a40:	0000736c 	andeq	r7, r0, ip, ror #6
    9a44:	43435553 	movtmi	r5, #13651	; 0x3553
    9a48:	3a535345 	bcc	14de764 <__bss_end__+0x14d41fc>
    9a4c:	00000000 	andeq	r0, r0, r0
    9a50:	6c696166 	stfvse	f6, [r9], #-408	; 0xfffffe68
    9a54:	61206465 	teqvs	r0, r5, ror #8
    9a58:	78652073 	stmdavc	r5!, {r0, r1, r4, r5, r6, sp}^
    9a5c:	74636570 	strbtvc	r6, [r3], #-1392	; 0x570
    9a60:	0a216465 	beq	862bfc <__bss_end__+0x858694>
    9a64:	00000000 	andeq	r0, r0, r0

00009a68 <C.0.4400>:
    9a68:	00000000 	andeq	r0, r0, r0
    9a6c:	00008020 	andeq	r8, r0, r0, lsr #32
    9a70:	00008024 	andeq	r8, r0, r4, lsr #32
    9a74:	0000802c 	andeq	r8, r0, ip, lsr #32
    9a78:	00008030 	andeq	r8, r0, r0, lsr r0
	...

00009aa0 <__FUNCTION__.4406>:
    9aa0:	6d746f6e 	ldclvs	15, cr6, [r4, #-440]!	; 0xfffffe48
    9aa4:	006e6961 	rsbeq	r6, lr, r1, ror #18
    9aa8:	34317063 	ldrtcc	r7, [r1], #-99	; 0x63
    9aac:	6265642d 	rsbvs	r6, r5, #754974720	; 0x2d000000
    9ab0:	632e6775 	teqvs	lr, #30670848	; 0x1d40000
    9ab4:	00000000 	andeq	r0, r0, r0
    9ab8:	30726377 	rsbscc	r6, r2, r7, ror r3
    9abc:	6765725f 			; <UNDEFINED> instruction: 0x6765725f
    9ac0:	203d3d20 	eorscs	r3, sp, r0, lsr #26
    9ac4:	30726377 	rsbscc	r6, r2, r7, ror r3
    9ac8:	7465675f 	strbtvc	r6, [r5], #-1887	; 0x75f
    9acc:	00002928 	andeq	r2, r0, r8, lsr #18
    9ad0:	494e4150 	stmdbmi	lr, {r4, r6, r8, lr}^
    9ad4:	73253a43 	teqvc	r5, #274432	; 0x43000
    9ad8:	3a73253a 	bcc	1cd2fc8 <__bss_end__+0x1cc8a60>
    9adc:	693a6425 	ldmdbvs	sl!, {r0, r2, r5, sl, sp, lr}
    9ae0:	736f706d 	cmnvc	pc, #109	; 0x6d
    9ae4:	6c626973 	stclvs	9, cr6, [r2], #-460	; 0xfffffe34
    9ae8:	73203a65 	teqvc	r0, #413696	; 0x65000
    9aec:	6c756f68 	ldclvs	15, cr6, [r5], #-416	; 0xfffffe60
    9af0:	6e6f2064 	cdpvs	0, 6, cr2, cr15, cr4, {3}
    9af4:	6720796c 	strvs	r7, [r0, -ip, ror #18]!
    9af8:	64207465 	strtvs	r7, [r0], #-1125	; 0x465
    9afc:	66617461 	strbtvs	r7, [r1], -r1, ror #8
    9b00:	746c7561 	strbtvc	r7, [ip], #-1377	; 0x561
    9b04:	000a0a73 	andeq	r0, sl, r3, ror sl
    9b08:	34317063 	ldrtcc	r7, [r1], #-99	; 0x63
    9b0c:	6265642d 	rsbvs	r6, r5, #754974720	; 0x2d000000
    9b10:	682e6775 	stmdavs	lr!, {r0, r2, r4, r5, r6, r8, r9, sl, sp, lr}
    9b14:	00000000 	andeq	r0, r0, r0
    9b18:	72616677 	rsbvc	r6, r1, #124780544	; 0x7700000
    9b1c:	7465675f 	strbtvc	r6, [r5], #-1887	; 0x75f
    9b20:	342d2928 	strtcc	r2, [sp], #-2344	; 0x928
    9b24:	203d3d20 	eorscs	r3, sp, r0, lsr #26
    9b28:	00006370 	andeq	r6, r0, r0, ror r3
    9b2c:	63746177 	cmnvs	r4, #-1073741795	; 0xc000001d
    9b30:	5f747068 	svcpl	0x00747068
    9b34:	646e6168 	strbtvs	r6, [lr], #-360	; 0x168
    9b38:	3072656c 	rsbscc	r6, r2, ip, ror #10
    9b3c:	00000000 	andeq	r0, r0, r0
    9b40:	494e4150 	stmdbmi	lr, {r4, r6, r8, lr}^
    9b44:	73253a43 	teqvc	r5, #274432	; 0x43000
    9b48:	3a73253a 	bcc	1cd3038 <__bss_end__+0x1cc8ad0>
    9b4c:	693a6425 	ldmdbvs	sl!, {r0, r2, r5, sl, sp, lr}
    9b50:	736f706d 	cmnvc	pc, #109	; 0x6d
    9b54:	6c626973 	stclvs	9, cr6, [r2], #-460	; 0xfffffe34
    9b58:	73203a65 	teqvc	r0, #413696	; 0x65000
    9b5c:	6c756f68 	ldclvs	15, cr6, [r5], #-416	; 0xfffffe60
    9b60:	65672064 	strbvs	r2, [r7, #-100]!	; 0x64
    9b64:	6f6e2074 	svcvs	0x006e2074
    9b68:	68746f20 	ldmdavs	r4!, {r5, r8, r9, sl, fp, sp, lr}^
    9b6c:	66207265 	strtvs	r7, [r0], -r5, ror #4
    9b70:	746c7561 	strbtvc	r7, [ip], #-1377	; 0x561
    9b74:	000a0a73 	andeq	r0, sl, r3, ror sl
    9b78:	706b7262 	rsbvc	r7, fp, r2, ror #4
    9b7c:	61685f74 	smcvs	34292	; 0x85f4
    9b80:	656c646e 	strbvs	r6, [ip, #-1134]!	; 0x46e
    9b84:	00003072 	andeq	r3, r0, r2, ror r0
    9b88:	494e4150 	stmdbmi	lr, {r4, r6, r8, lr}^
    9b8c:	73253a43 	teqvc	r5, #274432	; 0x43000
    9b90:	3a73253a 	bcc	1cd3080 <__bss_end__+0x1cc8b18>
    9b94:	723a6425 	eorsvc	r6, sl, #620756992	; 0x25000000
    9b98:	72757465 	rsbsvc	r7, r5, #1694498816	; 0x65000000
    9b9c:	2064656e 	rsbcs	r6, r4, lr, ror #10
    9ba0:	20646e61 	rsbcs	r6, r4, r1, ror #28
    9ba4:	756f6873 	strbvc	r6, [pc, #-2163]!	; 9339 <va_printk+0x255>
    9ba8:	6e20646c 	cdpvs	4, 2, cr6, cr0, cr12, {3}
    9bac:	6820746f 	stmdavs	r0!, {r0, r1, r2, r3, r5, r6, sl, ip, sp, lr}
    9bb0:	21657661 	cmncs	r5, r1, ror #12
    9bb4:	00000a0a 	andeq	r0, r0, sl, lsl #20
    9bb8:	656c6c69 	strbvs	r6, [ip, #-3177]!	; 0xc69
    9bbc:	206c6167 	rsbcs	r6, ip, r7, ror #2
    9bc0:	74737973 	ldrbtvc	r7, [r3], #-2419	; 0x973
    9bc4:	63206d65 	teqvs	r0, #6464	; 0x1940
    9bc8:	206c6c61 	rsbcs	r6, ip, r1, ror #24
    9bcc:	000a6425 	andeq	r6, sl, r5, lsr #8

00009bd0 <__FUNCTION__.4393>:
    9bd0:	63746177 	cmnvs	r4, #-1073741795	; 0xc000001d
    9bd4:	5f747068 	svcpl	0x00747068
    9bd8:	30746573 	rsbscc	r6, r4, r3, ror r5
    9bdc:	00000000 	andeq	r0, r0, r0

00009be0 <__FUNCTION__.4399>:
    9be0:	61746164 	cmnvs	r4, r4, ror #2
    9be4:	6f62615f 	svcvs	0x0062615f
    9be8:	765f7472 			; <UNDEFINED> instruction: 0x765f7472
    9bec:	6f746365 	svcvs	0x00746365
    9bf0:	00000072 	andeq	r0, r0, r2, ror r0

00009bf4 <__FUNCTION__.4306>:
    9bf4:	5f736177 	svcpl	0x00736177
    9bf8:	75626564 	strbvc	r6, [r2, #-1380]!	; 0x564
    9bfc:	61645f67 	cmnvs	r4, r7, ror #30
    9c00:	61666174 	smcvs	26132	; 0x6614
    9c04:	00746c75 	rsbseq	r6, r4, r5, ror ip

00009c08 <__FUNCTION__.4443>:
    9c08:	66657270 			; <UNDEFINED> instruction: 0x66657270
    9c0c:	68637465 	stmdavs	r3!, {r0, r2, r5, r6, sl, ip, sp, lr}^
    9c10:	6f62615f 	svcvs	0x0062615f
    9c14:	765f7472 			; <UNDEFINED> instruction: 0x765f7472
    9c18:	6f746365 	svcvs	0x00746365
    9c1c:	00000072 	andeq	r0, r0, r2, ror r0

00009c20 <__FUNCTION__.4451>:
    9c20:	5f6b7262 	svcpl	0x006b7262
    9c24:	725f6f6e 	subsvc	r6, pc, #440	; 0x1b8
    9c28:	655f7465 	ldrbvs	r7, [pc, #-1125]	; 97cb <uart_can_getc+0xf>
    9c2c:	726f7272 	rsbvc	r7, pc, #536870919	; 0x20000007
    9c30:	00000000 	andeq	r0, r0, r0
    9c34:	253a7325 	ldrcs	r7, [sl, #-805]!	; 0x325
    9c38:	64253a73 	strtvs	r3, [r5], #-2675	; 0xa73
    9c3c:	6572703a 	ldrbvs	r7, [r2, #-58]!	; 0x3a
    9c40:	63746566 	cmnvs	r4, #427819008	; 0x19800000
    9c44:	62612068 	rsbvs	r2, r1, #104	; 0x68
    9c48:	2074726f 	rsbscs	r7, r4, pc, ror #4
    9c4c:	25207461 	strcs	r7, [r0, #-1121]!	; 0x461
    9c50:	00000a70 	andeq	r0, r0, r0, ror sl
    9c54:	63656863 	cmnvs	r5, #6488064	; 0x630000
    9c58:	6e692d6b 	cdpvs	13, 6, cr2, cr9, cr11, {3}
    9c5c:	6c726574 	cfldr64vs	mvdx6, [r2], #-464	; 0xfffffe30
    9c60:	65766165 	ldrbvs	r6, [r6, #-357]!	; 0x165
    9c64:	0000632e 	andeq	r6, r0, lr, lsr #6
    9c68:	756f6261 	strbvc	r6, [pc, #-609]!	; 9a0f <__data_end__+0x7f>
    9c6c:	6f742074 	svcvs	0x00742074
    9c70:	69777320 	ldmdbvs	r7!, {r5, r8, r9, ip, sp, lr}^
    9c74:	20686374 	rsbcs	r6, r8, r4, ror r3
    9c78:	6d6f7266 	sfmvs	f7, 2, [pc, #-408]!	; 9ae8 <__FUNCTION__.4406+0x48>
    9c7c:	20702520 	rsbscs	r2, r0, r0, lsr #10
    9c80:	25206f74 	strcs	r6, [r0, #-3956]!	; 0xf74
    9c84:	00000a70 	andeq	r0, r0, r0, ror sl
    9c88:	656e6f64 	strbvs	r6, [lr, #-3940]!	; 0xf64
    9c8c:	6e757220 	cdpvs	2, 7, cr7, cr5, cr0, {1}
    9c90:	676e696e 	strbvs	r6, [lr, -lr, ror #18]!
    9c94:	202c4220 	eorcs	r4, ip, r0, lsr #4
    9c98:	6e696f67 	cdpvs	15, 6, cr6, cr9, cr7, {3}
    9c9c:	6f742067 	svcvs	0x00742067
    9ca0:	74657220 	strbtvc	r7, [r5], #-544	; 0x220
    9ca4:	206e7275 	rsbcs	r7, lr, r5, ror r2
    9ca8:	41206f74 	teqmi	r0, r4, ror pc
    9cac:	0000000a 	andeq	r0, r0, sl
    9cb0:	693e2d63 	ldmdbvs	lr!, {r0, r1, r5, r6, r8, sl, fp, sp}
    9cb4:	5f74736e 	svcpl	0x0074736e
    9cb8:	6e756f63 	cdpvs	15, 7, cr6, cr5, cr3, {3}
    9cbc:	203c2074 	eorscs	r2, ip, r4, ror r0
    9cc0:	733e2d63 	teqvc	lr, #6336	; 0x18c0
    9cc4:	63746977 	cmnvs	r4, #1949696	; 0x1dc000
    9cc8:	6e6f5f68 	cdpvs	15, 6, cr5, cr15, cr8, {3}
    9ccc:	736e695f 	cmnvc	lr, #1556480	; 0x17c000
    9cd0:	006e5f74 	rsbeq	r5, lr, r4, ror pc
    9cd4:	253a7325 	ldrcs	r7, [sl, #-805]!	; 0x325
    9cd8:	64253a73 	strtvs	r3, [r5], #-2675	; 0xa73
    9cdc:	7465733a 	strbtvc	r7, [r5], #-826	; 0x33a
    9ce0:	676e6974 			; <UNDEFINED> instruction: 0x676e6974
    9ce4:	20707520 	rsbscs	r7, r0, r0, lsr #10
    9ce8:	696d2061 	stmdbvs	sp!, {r0, r5, r6, sp}^
    9cec:	74616d73 	strbtvc	r6, [r1], #-3443	; 0xd73
    9cf0:	6f206863 	svcvs	0x00206863
    9cf4:	7025206e 	eorvc	r2, r5, lr, rrx
    9cf8:	0000000a 	andeq	r0, r0, sl
    9cfc:	253a7325 	ldrcs	r7, [sl, #-805]!	; 0x325
    9d00:	64253a73 	strtvs	r3, [r5], #-2675	; 0xa73
    9d04:	6e6f643a 	mcrvs	4, 3, r6, cr15, cr10, {1}
    9d08:	65732065 	ldrbvs	r2, [r3, #-101]!	; 0x65
    9d0c:	6e697474 	mcrvs	4, 3, r7, cr9, cr4, {3}
    9d10:	70752067 	rsbsvc	r2, r5, r7, rrx
    9d14:	6d206120 	stfvss	f6, [r0, #-128]!	; 0xffffff80
    9d18:	616d7369 	cmnvs	sp, r9, ror #6
    9d1c:	20686374 	rsbcs	r6, r8, r4, ror r3
    9d20:	25206e6f 	strcs	r6, [r0, #-3695]!	; 0xe6f
    9d24:	00000a70 	andeq	r0, r0, r0, ror sl
    9d28:	52455355 	subpl	r5, r5, #1409286145	; 0x54000001
    9d2c:	444f4d20 	strbmi	r4, [pc], #-3360	; 9d34 <__FUNCTION__.4451+0x114>
    9d30:	00000045 	andeq	r0, r0, r5, asr #32
    9d34:	20514946 	subscs	r4, r1, r6, asr #18
    9d38:	45444f4d 	strbmi	r4, [r4, #-3917]	; 0xf4d
    9d3c:	00000000 	andeq	r0, r0, r0
    9d40:	20515249 	subscs	r5, r1, r9, asr #4
    9d44:	45444f4d 	strbmi	r4, [r4, #-3917]	; 0xf4d
    9d48:	00000000 	andeq	r0, r0, r0
    9d4c:	45505553 	ldrbmi	r5, [r0, #-1363]	; 0x553
    9d50:	4f4d2052 	svcmi	0x004d2052
    9d54:	00004544 	andeq	r4, r0, r4, asr #10
    9d58:	524f4241 	subpl	r4, pc, #268435460	; 0x10000004
    9d5c:	4f4d2054 	svcmi	0x004d2054
    9d60:	00004544 	andeq	r4, r0, r4, asr #10
    9d64:	45444e55 	strbmi	r4, [r4, #-3669]	; 0xe55
    9d68:	4f4d2046 	svcmi	0x004d2046
    9d6c:	00004544 	andeq	r4, r0, r4, asr #10
    9d70:	20535953 	subscs	r5, r3, r3, asr r9
    9d74:	45444f4d 	strbmi	r4, [r4, #-3917]	; 0xf4d
    9d78:	00000000 	andeq	r0, r0, r0
    9d7c:	253a7325 	ldrcs	r7, [sl, #-805]!	; 0x325
    9d80:	64253a73 	strtvs	r3, [r5], #-2675	; 0xa73
    9d84:	6972743a 	ldmdbvs	r2!, {r1, r3, r4, r5, sl, ip, sp, lr}^
    9d88:	253d6c61 	ldrcs	r6, [sp, #-3169]!	; 0xc61
    9d8c:	61203a64 	teqvs	r0, r4, ror #20
    9d90:	74756f62 	ldrbtvc	r6, [r5], #-3938	; 0xf62
    9d94:	206f7420 	rsbcs	r7, pc, r0, lsr #8
    9d98:	20746573 	rsbscs	r6, r4, r3, ror r5
    9d9c:	6d73696d 	ldclvs	9, cr6, [r3, #-436]!	; 0xfffffe4c
    9da0:	68637461 	stmdavs	r3!, {r0, r5, r6, sl, ip, sp, lr}^
    9da4:	6b726220 	blvs	1ca262c <__bss_end__+0x1c980c4>
    9da8:	66207470 			; <UNDEFINED> instruction: 0x66207470
    9dac:	4120726f 	teqmi	r0, pc, ror #4
    9db0:	0000000a 	andeq	r0, r0, sl
    9db4:	4f525245 	svcmi	0x00525245
    9db8:	63203a52 	teqvs	r0, #335872	; 0x52000
    9dbc:	6b636568 	blvs	18e3364 <__bss_end__+0x18d8dfc>
    9dc0:	69616620 	stmdbvs	r1!, {r5, r9, sl, sp, lr}^
    9dc4:	2064656c 	rsbcs	r6, r4, ip, ror #10
    9dc8:	6e656877 	mcrvs	8, 3, r6, cr5, cr7, {3}
    9dcc:	69777320 	ldmdbvs	r7!, {r5, r8, r9, ip, sp, lr}^
    9dd0:	65686374 	strbvs	r6, [r8, #-884]!	; 0x374
    9dd4:	6e6f2064 	cdpvs	0, 6, cr2, cr15, cr4, {3}
    9dd8:	64646120 	strbtvs	r6, [r4], #-288	; 0x120
    9ddc:	73736572 	cmnvc	r3, #478150656	; 0x1c800000
    9de0:	2c702520 	cfldr64cs	mvdx2, [r0], #-128	; 0xffffff80
    9de4:	74666120 	strbtvc	r6, [r6], #-288	; 0x120
    9de8:	25207265 	strcs	r7, [r0, #-613]!	; 0x265
    9dec:	6e692064 	cdpvs	0, 6, cr2, cr9, cr4, {3}
    9df0:	75727473 	ldrbvc	r7, [r2, #-1139]!	; 0x473
    9df4:	6f697463 	svcvs	0x00697463
    9df8:	000a736e 	andeq	r7, sl, lr, ror #6
    9dfc:	656e6f64 	strbvs	r6, [lr, #-3940]!	; 0xf64
    9e00:	64202021 	strtvs	r2, [r0], #-33	; 0x21
    9e04:	63206469 	teqvs	r0, #1761607680	; 0x69000000
    9e08:	736e3e2d 	cmnvc	lr, #720	; 0x2d0
    9e0c:	63746977 	cmnvs	r4, #1949696	; 0x1dc000
    9e10:	3d736568 	cfldr64cc	mvdx6, [r3, #-416]!	; 0xfffffe60
    9e14:	202c6425 	eorcs	r6, ip, r5, lsr #8
    9e18:	6972746e 	ldmdbvs	r2!, {r1, r2, r3, r5, r6, sl, ip, sp, lr}^
    9e1c:	3d736c61 	ldclcc	12, cr6, [r3, #-388]!	; 0xfffffe7c
    9e20:	202c6425 	eorcs	r6, ip, r5, lsr #8
    9e24:	7272656e 	rsbsvc	r6, r2, #461373440	; 0x1b800000
    9e28:	3d73726f 	lfmcc	f7, 2, [r3, #-444]!	; 0xfffffe44
    9e2c:	000a6425 	andeq	r6, sl, r5, lsr #8
    9e30:	72737063 	rsbsvc	r7, r3, #99	; 0x63
    9e34:	6974752d 	ldmdbvs	r4!, {r0, r2, r3, r5, r8, sl, ip, sp, lr}^
    9e38:	00682e6c 	rsbeq	r2, r8, ip, ror #28
    9e3c:	65646f6d 	strbvs	r6, [r4, #-3949]!	; 0xf6d
    9e40:	67656c5f 			; <UNDEFINED> instruction: 0x67656c5f
    9e44:	6d286c61 	stcvs	12, cr6, [r8, #-388]!	; 0xfffffe7c
    9e48:	2965646f 	stmdbcs	r5!, {r0, r1, r2, r3, r5, r6, sl, sp, lr}^
    9e4c:	00000000 	andeq	r0, r0, r0
    9e50:	494e4150 	stmdbmi	lr, {r4, r6, r8, lr}^
    9e54:	73253a43 	teqvc	r5, #274432	; 0x43000
    9e58:	3a73253a 	bcc	1cd3348 <__bss_end__+0x1cc8de0>
    9e5c:	753a6425 	ldrvc	r6, [sl, #-1061]!	; 0x425
    9e60:	6f6e6b6e 	svcvs	0x006e6b6e
    9e64:	6d206e77 	stcvs	14, cr6, [r0, #-476]!	; 0xfffffe24
    9e68:	3a65646f 	bcc	196302c <__bss_end__+0x1958ac4>
    9e6c:	78253c20 	stmdavc	r5!, {r5, sl, fp, ip, sp}
    9e70:	000a0a3e 	andeq	r0, sl, lr, lsr sl
    9e74:	65707865 	ldrbvs	r7, [r0, #-2149]!	; 0x865
    9e78:	64657463 	strbtvs	r7, [r5], #-1123	; 0x463
    9e7c:	646f6d20 	strbtvs	r6, [pc], #-3360	; 9e84 <__FUNCTION__.4451+0x264>
    9e80:	203d2065 	eorscs	r2, sp, r5, rrx
    9e84:	28207325 	stmdacs	r0!, {r0, r2, r5, r8, r9, ip, sp, lr}
    9e88:	0a297825 	beq	a67f24 <__bss_end__+0xa5d9bc>
    9e8c:	00000000 	andeq	r0, r0, r0
    9e90:	72727563 	rsbsvc	r7, r2, #415236096	; 0x18c00000
    9e94:	20746e65 	rsbscs	r6, r4, r5, ror #28
    9e98:	65646f6d 	strbvs	r6, [r4, #-3949]!	; 0xf6d
    9e9c:	25203d20 	strcs	r3, [r0, #-3360]!	; 0xd20
    9ea0:	25282073 	strcs	r2, [r8, #-115]!	; 0x73
    9ea4:	000a2978 	andeq	r2, sl, r8, ror r9
    9ea8:	65646f6d 	strbvs	r6, [r4, #-3949]!	; 0xf6d
    9eac:	7465675f 	strbtvc	r6, [r5], #-1887	; 0x75f
    9eb0:	73706328 	cmnvc	r0, #40, 6	; 0xa0000000
    9eb4:	6c6f5f72 	stclvs	15, cr5, [pc], #-456	; 9cf4 <__FUNCTION__.4451+0xd4>
    9eb8:	3d202964 	stccc	9, cr2, [r0, #-400]!	; 0xfffffe70
    9ebc:	6f6d203d 	svcvs	0x006d203d
    9ec0:	675f6564 	ldrbvs	r6, [pc, -r4, ror #10]
    9ec4:	63287465 	teqvs	r8, #1694498816	; 0x65000000
    9ec8:	5f727370 	svcpl	0x00727370
    9ecc:	28746567 	ldmdacs	r4!, {r0, r1, r2, r5, r6, r8, sl, sp, lr}^
    9ed0:	00002929 	andeq	r2, r0, r9, lsr #18

00009ed4 <__FUNCTION__.4424>:
    9ed4:	63656863 	cmnvs	r5, #6488064	; 0x630000
    9ed8:	6e6f5f6b 	cdpvs	15, 6, cr5, cr15, cr11, {3}
    9edc:	73635f65 	cmnvc	r3, #404	; 0x194
    9ee0:	63746977 	cmnvs	r4, #1949696	; 0x1dc000
    9ee4:	00000068 	andeq	r0, r0, r8, rrx

00009ee8 <__FUNCTION__.4417>:
    9ee8:	676e6973 			; <UNDEFINED> instruction: 0x676e6973
    9eec:	735f656c 	cmpvc	pc, #108, 10	; 0x1b000000
    9ef0:	5f706574 	svcpl	0x00706574
    9ef4:	646e6168 	strbtvs	r6, [lr], #-360	; 0x168
    9ef8:	0072656c 	rsbseq	r6, r2, ip, ror #10

00009efc <__FUNCTION__.4397>:
    9efc:	65646f6d 	strbvs	r6, [r4, #-3949]!	; 0xf6d
    9f00:	7465735f 	strbtvc	r7, [r5], #-863	; 0x35f
    9f04:	00000000 	andeq	r0, r0, r0

00009f08 <__FUNCTION__.4258>:
    9f08:	73746962 	cmnvc	r4, #1605632	; 0x188000
    9f0c:	726c635f 	rsbvc	r6, ip, #2080374785	; 0x7c000001
    9f10:	00000000 	andeq	r0, r0, r0

00009f14 <__FUNCTION__.4409>:
    9f14:	65646f6d 	strbvs	r6, [r4, #-3949]!	; 0xf6d
    9f18:	7274735f 	rsbsvc	r7, r4, #2080374785	; 0x7c000001
    9f1c:	00000000 	andeq	r0, r0, r0

00009f20 <__FUNCTION__.4392>:
    9f20:	65646f6d 	strbvs	r6, [r4, #-3949]!	; 0xf6d
    9f24:	7465675f 	strbtvc	r6, [r5], #-1887	; 0x75f
    9f28:	00000000 	andeq	r0, r0, r0

00009f2c <__FUNCTION__.4251>:
    9f2c:	73746962 	cmnvc	r4, #1605632	; 0x188000
    9f30:	7465675f 	strbtvc	r6, [r5], #-1887	; 0x75f
    9f34:	00000000 	andeq	r0, r0, r0

00009f38 <__FUNCTION__.4249>:
    9f38:	74696d65 	strbtvc	r6, [r9], #-3429	; 0xd65
    9f3c:	00000000 	andeq	r0, r0, r0

00009f40 <__FUNCTION__.4197>:
    9f40:	5f697072 	svcpl	0x00697072
    9f44:	5f746573 	svcpl	0x00746573
    9f48:	7074756f 	rsbsvc	r7, r4, pc, ror #10
    9f4c:	00007475 	andeq	r7, r0, r5, ror r4

00009f50 <__FUNCTION__.4272>:
    9f50:	705f6176 	subsvc	r6, pc, r6, ror r1	; <UNPREDICTABLE>
    9f54:	746e6972 	strbtvc	r6, [lr], #-2418	; 0x972
    9f58:	0000006b 	andeq	r0, r0, fp, rrx
    9f5c:	6362696c 	cmnvs	r2, #108, 18	; 0x1b0000
    9f60:	2d61762f 	stclcs	6, cr7, [r1, #-188]!	; 0xffffff44
    9f64:	6e697270 	mcrvs	2, 3, r7, cr9, cr0, {3}
    9f68:	632e6b74 	teqvs	lr, #116, 22	; 0x1d000
    9f6c:	00000000 	andeq	r0, r0, r0
    9f70:	00000030 	andeq	r0, r0, r0, lsr r0
    9f74:	33323130 	teqcc	r2, #48, 2
    9f78:	37363534 			; <UNDEFINED> instruction: 0x37363534
    9f7c:	00003938 	andeq	r3, r0, r8, lsr r9
    9f80:	33323130 	teqcc	r2, #48, 2
    9f84:	37363534 			; <UNDEFINED> instruction: 0x37363534
    9f88:	62613938 	rsbvs	r3, r1, #56, 18	; 0xe0000
    9f8c:	66656463 	strbtvs	r6, [r5], -r3, ror #8
    9f90:	00000000 	andeq	r0, r0, r0
    9f94:	00003130 	andeq	r3, r0, r0, lsr r1
    9f98:	63747570 	cmnvs	r4, #112, 10	; 0x1c000000
    9f9c:	0070665f 	rsbseq	r6, r0, pc, asr r6
    9fa0:	74646977 	strbtvc	r6, [r4], #-2423	; 0x977
    9fa4:	203c2068 	eorscs	r2, ip, r8, rrx
    9fa8:	00003233 	andeq	r3, r0, r3, lsr r2
    9fac:	494e4150 	stmdbmi	lr, {r4, r6, r8, lr}^
    9fb0:	73253a43 	teqvc	r5, #274432	; 0x43000
    9fb4:	3a73253a 	bcc	1cd34a4 <__bss_end__+0x1cc8f3c>
    9fb8:	663a6425 	ldrtvs	r6, [sl], -r5, lsr #8
    9fbc:	74616f6c 	strbtvc	r6, [r1], #-3948	; 0xf6c
    9fc0:	746f6e20 	strbtvc	r6, [pc], #-3616	; 9fc8 <__FUNCTION__.4272+0x78>
    9fc4:	616e6520 	cmnvs	lr, r0, lsr #10
    9fc8:	64656c62 	strbtvs	r6, [r5], #-3170	; 0xc62
    9fcc:	0a212121 	beq	852458 <__bss_end__+0x847ef0>
    9fd0:	00000000 	andeq	r0, r0, r0
    9fd4:	6e697270 	mcrvs	2, 3, r7, cr9, cr0, {3}
    9fd8:	203a6b74 	eorscs	r6, sl, r4, ror fp
    9fdc:	20746f6e 	rsbscs	r6, r4, lr, ror #30
    9fe0:	646e6168 	strbtvs	r6, [lr], #-360	; 0x168
    9fe4:	676e696c 	strbvs	r6, [lr, -ip, ror #18]!
    9fe8:	65707320 	ldrbvs	r7, [r0, #-800]!	; 0x320
    9fec:	69666963 	stmdbvs	r6!, {r0, r1, r5, r6, r8, fp, sp, lr}^
    9ff0:	27207265 	strcs	r7, [r0, -r5, ror #4]!
    9ff4:	20276325 	eorcs	r6, r7, r5, lsr #6
    9ff8:	63736128 	cmnvs	r3, #40, 2
    9ffc:	253d6969 	ldrcs	r6, [sp, #-2409]!	; 0x969
    a000:	000a2964 	andeq	r2, sl, r4, ror #18
    a004:	494e4150 	stmdbmi	lr, {r4, r6, r8, lr}^
    a008:	73253a43 	teqvc	r5, #274432	; 0x43000
    a00c:	3a73253a 	bcc	1cd34fc <__bss_end__+0x1cc8f94>
    a010:	703a6425 	eorsvc	r6, sl, r5, lsr #8
    a014:	746e6972 	strbtvc	r6, [lr], #-2418	; 0x972
    a018:	7265206b 	rsbvc	r2, r5, #107	; 0x6b
    a01c:	0a726f72 	beq	1ca5dec <__bss_end__+0x1c9b884>
    a020:	0000000a 	andeq	r0, r0, sl
    a024:	454e4f44 	strbmi	r4, [lr, #-3908]	; 0xf44
    a028:	0a212121 	beq	8524b4 <__bss_end__+0x847f4c>
    a02c:	00000000 	andeq	r0, r0, r0

0000a030 <__FUNCTION__.4220>:
    a030:	74736166 	ldrbtvc	r6, [r3], #-358	; 0x166
    a034:	746e695f 	strbtvc	r6, [lr], #-2399	; 0x95f
    a038:	75727265 	ldrbvc	r7, [r2, #-613]!	; 0x265
    a03c:	765f7470 			; <UNDEFINED> instruction: 0x765f7470
    a040:	6f746365 	svcvs	0x00746365
    a044:	00000072 	andeq	r0, r0, r2, ror r0
    a048:	494e4150 	stmdbmi	lr, {r4, r6, r8, lr}^
    a04c:	73253a43 	teqvc	r5, #274432	; 0x43000
    a050:	3a73253a 	bcc	1cd3540 <__bss_end__+0x1cc8fd8>
    a054:	453a6425 	ldrmi	r6, [sl, #-1061]!	; 0x425
    a058:	524f5252 	subpl	r5, pc, #536870917	; 0x20000005
    a05c:	6e75203a 	mrcvs	0, 3, r2, cr5, cr10, {1}
    a060:	646e6168 	strbtvs	r6, [lr], #-360	; 0x168
    a064:	2064656c 	rsbcs	r6, r4, ip, ror #10
    a068:	65637865 	strbvs	r7, [r3, #-2149]!	; 0x865
    a06c:	6f697470 	svcvs	0x00697470
    a070:	253c206e 	ldrcs	r2, [ip, #-110]!	; 0x6e
    a074:	61203e73 	teqvs	r0, r3, ror lr
    a078:	43502074 	cmpmi	r0, #116	; 0x74
    a07c:	0a78253d 	beq	1e13578 <__bss_end__+0x1e09010>
    a080:	0000000a 	andeq	r0, r0, sl
    a084:	66617473 			; <UNDEFINED> instruction: 0x66617473
    a088:	72732d66 	rsbsvc	r2, r3, #6528	; 0x1980
    a08c:	65642f63 	strbvs	r2, [r4, #-3939]!	; 0xf63
    a090:	6c756166 	ldfvse	f6, [r5], #-408	; 0xfffffe68
    a094:	61682d74 	smcvs	33492	; 0x82d4
    a098:	656c646e 	strbvs	r6, [ip, #-1134]!	; 0x46e
    a09c:	61662d72 	smcvs	25298	; 0x62d2
    a0a0:	632e7473 	teqvs	lr, #1929379840	; 0x73000000
    a0a4:	00000000 	andeq	r0, r0, r0
    a0a8:	74736166 	ldrbtvc	r6, [r3], #-358	; 0x166
    a0ac:	00000000 	andeq	r0, r0, r0

0000a0b0 <__FUNCTION__.4220>:
    a0b0:	65736572 	ldrbvs	r6, [r3, #-1394]!	; 0x572
    a0b4:	65765f74 	ldrbvs	r5, [r6, #-3956]!	; 0xf74
    a0b8:	726f7463 	rsbvc	r7, pc, #1660944384	; 0x63000000
    a0bc:	00000000 	andeq	r0, r0, r0
    a0c0:	66617473 			; <UNDEFINED> instruction: 0x66617473
    a0c4:	72732d66 	rsbsvc	r2, r3, #6528	; 0x1980
    a0c8:	65642f63 	strbvs	r2, [r4, #-3939]!	; 0xf63
    a0cc:	6c756166 	ldfvse	f6, [r5], #-408	; 0xfffffe68
    a0d0:	61682d74 	smcvs	33492	; 0x82d4
    a0d4:	656c646e 	strbvs	r6, [ip, #-1134]!	; 0x46e
    a0d8:	65722d72 	ldrbvs	r2, [r2, #-3442]!	; 0xd72
    a0dc:	2e746573 	mrccs	5, 3, r6, cr4, cr3, {3}
    a0e0:	00000063 	andeq	r0, r0, r3, rrx
    a0e4:	65736572 	ldrbvs	r6, [r3, #-1394]!	; 0x572
    a0e8:	00000074 	andeq	r0, r0, r4, ror r0

0000a0ec <__FUNCTION__.4220>:
    a0ec:	65646e75 	strbvs	r6, [r4, #-3701]!	; 0xe75
    a0f0:	656e6966 	strbvs	r6, [lr, #-2406]!	; 0x966
    a0f4:	6e695f64 	cdpvs	15, 6, cr5, cr9, cr4, {3}
    a0f8:	75727473 	ldrbvc	r7, [r2, #-1139]!	; 0x473
    a0fc:	6f697463 	svcvs	0x00697463
    a100:	65765f6e 	ldrbvs	r5, [r6, #-3950]!	; 0xf6e
    a104:	726f7463 	rsbvc	r7, pc, #1660944384	; 0x63000000
    a108:	00000000 	andeq	r0, r0, r0
    a10c:	66617473 			; <UNDEFINED> instruction: 0x66617473
    a110:	72732d66 	rsbsvc	r2, r3, #6528	; 0x1980
    a114:	65642f63 	strbvs	r2, [r4, #-3939]!	; 0xf63
    a118:	6c756166 	ldfvse	f6, [r5], #-408	; 0xfffffe68
    a11c:	61682d74 	smcvs	33492	; 0x82d4
    a120:	656c646e 	strbvs	r6, [ip, #-1134]!	; 0x46e
    a124:	6e752d72 	mrcvs	13, 3, r2, cr5, cr2, {3}
    a128:	69666564 	stmdbvs	r6!, {r2, r5, r6, r8, sl, sp, lr}^
    a12c:	2d64656e 	cfstr64cs	mvdx6, [r4, #-440]!	; 0xfffffe48
    a130:	74736e69 	ldrbtvc	r6, [r3], #-3689	; 0xe69
    a134:	0000632e 	andeq	r6, r0, lr, lsr #6
    a138:	65646e75 	strbvs	r6, [r4, #-3701]!	; 0xe75
    a13c:	656e6966 	strbvs	r6, [lr, #-2406]!	; 0x966
    a140:	6e692064 	cdpvs	0, 6, cr2, cr9, cr4, {3}
    a144:	00007473 	andeq	r7, r0, r3, ror r4

Disassembly of section .bss:

0000a148 <__bss_start__>:
    a148:	00000000 	andeq	r0, r0, r0

0000a14c <brkpt_handler0>:
    a14c:	00000000 	andeq	r0, r0, r0

0000a150 <brk_verbose_p>:
    a150:	00000000 	andeq	r0, r0, r0

0000a154 <nfaults.4398>:
    a154:	00000000 	andeq	r0, r0, r0

0000a158 <init_p.4404>:
    a158:	00000000 	andeq	r0, r0, r0

0000a15c <checker>:
    a15c:	00000000 	andeq	r0, r0, r0

0000a160 <expected_handle>:
    a160:	00000000 	andeq	r0, r0, r0

0000a164 <buf.4189>:
	...

Disassembly of section .ARM.attributes:

00000000 <.ARM.attributes>:
   0:	00002a41 	andeq	r2, r0, r1, asr #20
   4:	61656100 	cmnvs	r5, r0, lsl #2
   8:	01006962 	tsteq	r0, r2, ror #18
   c:	00000020 	andeq	r0, r0, r0, lsr #32
  10:	4b5a3605 	blmi	168d82c <__bss_end__+0x16832c4>
  14:	08070600 	stmdaeq	r7, {r9, sl}
  18:	12010901 	andne	r0, r1, #16384	; 0x4000
  1c:	15011404 	strne	r1, [r1, #-1028]	; 0x404
  20:	18031701 	stmdane	r3, {r0, r8, r9, sl, ip}
  24:	22011a01 	andcs	r1, r1, #4096	; 0x1000
  28:	Address 0x0000000000000028 is out of bounds.


Disassembly of section .comment:

00000000 <.comment>:
   0:	3a434347 	bcc	10d0d24 <__bss_end__+0x10c67bc>
   4:	4e472820 	cdpmi	8, 4, cr2, cr7, cr0, {1}
   8:	34202955 	strtcc	r2, [r0], #-2389	; 0x955
   c:	332e382e 	teqcc	lr, #3014656	; 0x2e0000
  10:	43434700 	movtmi	r4, #14080	; 0x3700
  14:	3128203a 	teqcc	r8, sl, lsr r0
  18:	2e363a35 	mrccs	10, 1, r3, cr6, cr5, {1}
  1c:	2b312e33 	blcs	c4b8f0 <__bss_end__+0xc41388>
  20:	326e7673 	rsbcc	r7, lr, #120586240	; 0x7300000
  24:	33303335 	teqcc	r0, #-738197504	; 0xd4000000
  28:	62312d39 	eorsvs	r2, r1, #3648	; 0xe40
  2c:	646c6975 	strbtvs	r6, [ip], #-2421	; 0x975
  30:	36202931 			; <UNDEFINED> instruction: 0x36202931
  34:	312e332e 	teqcc	lr, lr, lsr #6
  38:	31303220 	teqcc	r0, r0, lsr #4
  3c:	32363037 	eorscc	r3, r6, #55	; 0x37
  40:	Address 0x0000000000000040 is out of bounds.


Disassembly of section .debug_info:

00000000 <.debug_info>:
       0:	00000454 	andeq	r0, r0, r4, asr r4
       4:	00000004 	andeq	r0, r0, r4
       8:	01040000 	mrseq	r0, (UNDEF: 4)
       c:	00000146 	andeq	r0, r0, r6, asr #2
      10:	00012c01 	andeq	r2, r1, r1, lsl #24
      14:	00002e00 	andeq	r2, r0, r0, lsl #28
      18:	00802000 	addeq	r2, r0, r0
      1c:	0001a000 	andeq	sl, r1, r0
      20:	00000000 	andeq	r0, r0, r0
      24:	05040200 	streq	r0, [r4, #-512]	; 0x200
      28:	00746e69 	rsbseq	r6, r4, r9, ror #28
      2c:	bd070403 	cfstrslt	mvf0, [r7, #-12]
      30:	03000001 	movweq	r0, #1
      34:	00c20601 	sbceq	r0, r2, r1, lsl #12
      38:	02030000 	andeq	r0, r3, #0
      3c:	00000f05 	andeq	r0, r0, r5, lsl #30
      40:	05040300 	streq	r0, [r4, #-768]	; 0x300
      44:	000001f1 	strdeq	r0, [r0], -r1
      48:	ec050803 	stc	8, cr0, [r5], {3}
      4c:	03000001 	movweq	r0, #1
      50:	00c00801 	sbceq	r0, r0, r1, lsl #16
      54:	02030000 	andeq	r0, r3, #0
      58:	0000e607 	andeq	lr, r0, r7, lsl #12
      5c:	021b0400 	andseq	r0, fp, #0, 8
      60:	34040000 	strcc	r0, [r4], #-0
      64:	00000068 	andeq	r0, r0, r8, rrx
      68:	b8070403 	stmdalt	r7, {r0, r1, sl}
      6c:	03000001 	movweq	r0, #1
      70:	01b30708 			; <UNDEFINED> instruction: 0x01b30708
      74:	04030000 	streq	r0, [r3], #-0
      78:	0001e307 	andeq	lr, r1, r7, lsl #6
      7c:	08010300 	stmdaeq	r1, {r8, r9}
      80:	000000c9 	andeq	r0, r0, r9, asr #1
      84:	008a0405 	addeq	r0, sl, r5, lsl #8
      88:	7d060000 	stcvc	0, cr0, [r6, #-0]
      8c:	07000000 	streq	r0, [r0, -r0]
      90:	0000007d 	andeq	r0, r0, sp, ror r0
      94:	0000009f 	muleq	r0, pc, r0	; <UNPREDICTABLE>
      98:	00007608 	andeq	r7, r0, r8, lsl #12
      9c:	09000700 	stmdbeq	r0, {r8, r9, sl}
      a0:	000001d1 	ldrdeq	r0, [r0], -r1
      a4:	500a0338 	andpl	r0, sl, r8, lsr r3
      a8:	0a000001 	beq	b4 <__code_start__-0x7f4c>
      ac:	00000a44 	andeq	r0, r0, r4, asr #20
      b0:	01500f03 	cmpeq	r0, r3, lsl #30
      b4:	0b000000 	bleq	bc <__code_start__-0x7f44>
      b8:	12030041 	andne	r0, r3, #65	; 0x41
      bc:	00000168 	andeq	r0, r0, r8, ror #2
      c0:	00420b04 	subeq	r0, r2, r4, lsl #22
      c4:	017d1303 	cmneq	sp, r3, lsl #6
      c8:	0a080000 	beq	2000d0 <__bss_end__+0x1f5b68>
      cc:	0000010b 	andeq	r0, r0, fp, lsl #2
      d0:	01681603 	cmneq	r8, r3, lsl #12
      d4:	0a0c0000 	beq	3000dc <__bss_end__+0x2f5b74>
      d8:	00000028 	andeq	r0, r0, r8, lsr #32
      dc:	017d1803 	cmneq	sp, r3, lsl #16
      e0:	0a100000 	beq	4000e8 <__bss_end__+0x3f5b80>
      e4:	000001d9 	ldrdeq	r0, [r0], -r9
      e8:	01831f03 	orreq	r1, r3, r3, lsl #30
      ec:	0a140000 	beq	5000f4 <__bss_end__+0x4f5b8c>
      f0:	000000af 	andeq	r0, r0, pc, lsr #1
      f4:	01833103 	orreq	r3, r3, r3, lsl #2
      f8:	0a180000 	beq	600100 <__bss_end__+0x5f5b98>
      fc:	000000db 	ldrdeq	r0, [r0], -fp
     100:	01883603 	orreq	r3, r8, r3, lsl #12
     104:	0a1c0000 	beq	70010c <__bss_end__+0x6f5ba4>
     108:	00000202 	andeq	r0, r0, r2, lsl #4
     10c:	01883a03 	orreq	r3, r8, r3, lsl #20
     110:	0a200000 	beq	800118 <__bss_end__+0x7f5bb0>
     114:	00000019 	andeq	r0, r0, r9, lsl r0
     118:	01833f03 	orreq	r3, r3, r3, lsl #30
     11c:	0a240000 	beq	900124 <__bss_end__+0x8f5bbc>
     120:	000001fa 	strdeq	r0, [r0], -sl
     124:	002c4203 	eoreq	r4, ip, r3, lsl #4
     128:	0a280000 	beq	a00130 <__bss_end__+0x9f5bc8>
     12c:	000000a7 	andeq	r0, r0, r7, lsr #1
     130:	002c4303 	eoreq	r4, ip, r3, lsl #6
     134:	0a2c0000 	beq	b0013c <__bss_end__+0xaf5bd4>
     138:	0000011d 	andeq	r0, r0, sp, lsl r1
     13c:	002c4603 	eoreq	r4, ip, r3, lsl #12
     140:	0a300000 	beq	c00148 <__bss_end__+0xbf5be0>
     144:	00000224 	andeq	r0, r0, r4, lsr #4
     148:	01884803 	orreq	r4, r8, r3, lsl #16
     14c:	00340000 	eorseq	r0, r4, r0
     150:	01560405 	cmpeq	r6, r5, lsl #8
     154:	0d0c0000 	stceq	0, cr0, [ip, #-0]
     158:	00000162 	andeq	r0, r0, r2, ror #2
     15c:	0001620e 	andeq	r6, r1, lr, lsl #4
     160:	04050000 	streq	r0, [r5], #-0
     164:	0000009f 	muleq	r0, pc, r0	; <UNPREDICTABLE>
     168:	01570405 	cmpeq	r7, r5, lsl #8
     16c:	250f0000 	strcs	r0, [pc, #-0]	; 174 <__code_start__-0x7e8c>
     170:	7d000000 	stcvc	0, cr0, [r0, #-0]
     174:	0e000001 	cdpeq	0, 0, cr0, cr0, cr1, {0}
     178:	00000162 	andeq	r0, r0, r2, ror #2
     17c:	6e040500 	cfsh32vs	mvfx0, mvfx4, #0
     180:	10000001 	andne	r0, r0, r1
     184:	0000002c 	andeq	r0, r0, ip, lsr #32
     188:	00005d10 	andeq	r5, r0, r0, lsl sp
     18c:	00050400 	andeq	r0, r5, r0, lsl #8
     190:	49030000 	stmdbmi	r3, {}	; <UNPREDICTABLE>
     194:	0000009f 	muleq	r0, pc, r0	; <UNPREDICTABLE>
     198:	00009511 	andeq	r9, r0, r1, lsl r5
     19c:	03c30200 	biceq	r0, r3, #0, 4
     1a0:	000001b0 			; <UNDEFINED> instruction: 0x000001b0
     1a4:	00000012 	andeq	r0, r0, r2, lsl r0
     1a8:	25c30200 	strbcs	r0, [r3, #512]	; 0x200
     1ac:	00000000 	andeq	r0, r0, r0
     1b0:	00008f13 	andeq	r8, r0, r3, lsl pc
     1b4:	20050100 	andcs	r0, r5, r0, lsl #2
     1b8:	04000080 	streq	r0, [r0], #-128	; 0x80
     1bc:	01000000 	mrseq	r0, (UNDEF: 0)
     1c0:	0001d19c 	muleq	r1, ip, r1
     1c4:	00631400 	rsbeq	r1, r3, r0, lsl #8
     1c8:	01d10501 	bicseq	r0, r1, r1, lsl #10
     1cc:	50010000 	andpl	r0, r1, r0
     1d0:	8d040500 	cfstr32hi	mvfx0, [r4, #-0]
     1d4:	15000001 	strne	r0, [r0, #-1]
     1d8:	000000a1 	andeq	r0, r0, r1, lsr #1
     1dc:	00250601 	eoreq	r0, r5, r1, lsl #12
     1e0:	80240000 	eorhi	r0, r4, r0
     1e4:	00080000 	andeq	r0, r8, r0
     1e8:	9c010000 	stcls	0, cr0, [r1], {-0}
     1ec:	000001fe 	strdeq	r0, [r0], -lr
     1f0:	01006316 	tsteq	r0, r6, lsl r3
     1f4:	0001d106 	andeq	sp, r1, r6, lsl #2
     1f8:	00000000 	andeq	r0, r0, r0
     1fc:	07130000 	ldreq	r0, [r3, -r0]
     200:	01000001 	tsteq	r0, r1
     204:	00802c07 	addeq	r2, r0, r7, lsl #24
     208:	00000400 	andeq	r0, r0, r0, lsl #8
     20c:	1f9c0100 	svcne	0x009c0100
     210:	14000002 	strne	r0, [r0], #-2
     214:	07010063 	streq	r0, [r1, -r3, rrx]
     218:	000001d1 	ldrdeq	r0, [r0], -r1
     21c:	15005001 	strne	r5, [r0, #-1]
     220:	00000024 	andeq	r0, r0, r4, lsr #32
     224:	00250901 	eoreq	r0, r5, r1, lsl #18
     228:	80300000 	eorshi	r0, r0, r0
     22c:	001c0000 	andseq	r0, ip, r0
     230:	9c010000 	stcls	0, cr0, [r1], {-0}
     234:	00000246 	andeq	r0, r0, r6, asr #4
     238:	01006316 	tsteq	r0, r6, lsl r3
     23c:	0001d109 	andeq	sp, r1, r9, lsl #2
     240:	00002100 	andeq	r2, r0, r0, lsl #2
     244:	ca170000 	bgt	5c024c <__bss_end__+0x5b5ce4>
     248:	01000001 	tsteq	r0, r1
     24c:	00018d0f 	andeq	r8, r1, pc, lsl #26
     250:	00804c00 	addeq	r4, r0, r0, lsl #24
     254:	00007000 	andeq	r7, r0, r0
     258:	189c0100 	ldmne	ip, {r8}
     25c:	00000087 	andeq	r0, r0, r7, lsl #1
     260:	80bc1901 	adcshi	r1, ip, r1, lsl #18
     264:	01040000 	mrseq	r0, (UNDEF: 4)
     268:	9c010000 	stcls	0, cr0, [r1], {-0}
     26c:	00000407 	andeq	r0, r0, r7, lsl #8
     270:	01006319 	tsteq	r0, r9, lsl r3
     274:	00009f1e 	andeq	r9, r0, lr, lsl pc
     278:	40910200 	addsmi	r0, r1, r0, lsl #4
     27c:	01006e1a 	tsteq	r0, sl, lsl lr
     280:	0000251f 	andeq	r2, r0, pc, lsl r5
     284:	01101b00 	tsteq	r0, r0, lsl #22
     288:	04070000 	streq	r0, [r7], #-0
     28c:	03050000 	movweq	r0, #20480	; 0x5000
     290:	00009aa0 	andeq	r9, r0, r0, lsr #21
     294:	0001981c 	andeq	r9, r1, ip, lsl r8
     298:	0080c800 	addeq	ip, r0, r0, lsl #16
     29c:	00000c00 	andeq	r0, r0, r0, lsl #24
     2a0:	ae1d0100 	mufgee	f0, f5, f0
     2a4:	1d000002 	stcne	0, cr0, [r0, #-8]
     2a8:	000001a4 	andeq	r0, r0, r4, lsr #3
     2ac:	c81e0000 	ldmdagt	lr, {}	; <UNPREDICTABLE>
     2b0:	17000080 	strne	r0, [r0, -r0, lsl #1]
     2b4:	1f000004 	svcne	0x00000004
     2b8:	000080dc 	ldrdeq	r8, [r0], -ip
     2bc:	00000246 	andeq	r0, r0, r6, asr #4
     2c0:	000002cc 	andeq	r0, r0, ip, asr #5
     2c4:	03500120 	cmpeq	r0, #32, 2
     2c8:	007fb891 			; <UNDEFINED> instruction: 0x007fb891
     2cc:	0080e41f 	addeq	lr, r0, pc, lsl r4
     2d0:	00041e00 	andeq	r1, r4, r0, lsl #28
     2d4:	0002e100 	andeq	lr, r2, r0, lsl #2
     2d8:	50012000 	andpl	r2, r1, r0
     2dc:	7fb89103 	svcvc	0x00b89103
     2e0:	80fc1e00 	rscshi	r1, ip, r0, lsl #28
     2e4:	04330000 	ldrteq	r0, [r3], #-0
     2e8:	181f0000 	ldmdane	pc, {}	; <UNPREDICTABLE>
     2ec:	3a000081 	bcc	4f8 <__code_start__-0x7b08>
     2f0:	23000004 	movwcs	r0, #4
     2f4:	20000003 	andcs	r0, r0, r3
     2f8:	08025301 	stmdaeq	r2, {r0, r8, r9, ip, lr}
     2fc:	52012021 	andpl	r2, r1, #33	; 0x21
     300:	9aa00305 	bls	fe800f1c <__bss_end__+0xfe7f69b4>
     304:	01200000 	teqeq	r0, r0
     308:	a4030551 	strge	r0, [r3], #-1361	; 0x551
     30c:	20000099 	mulcs	r0, r9, r0
     310:	03055001 	movweq	r5, #20481	; 0x5001
     314:	00009990 	muleq	r0, r0, r9
     318:	007d0220 	rsbseq	r0, sp, r0, lsr #4
     31c:	99c00305 	stmibls	r0, {r0, r2, r8, r9}^
     320:	1e000000 	cdpne	0, 0, cr0, cr0, cr0, {0}
     324:	0000811c 	andeq	r8, r0, ip, lsl r1
     328:	00000450 	andeq	r0, r0, r0, asr r4
     32c:	0081201e 	addeq	r2, r1, lr, lsl r0
     330:	00043300 	andeq	r3, r4, r0, lsl #6
     334:	813c1f00 	teqhi	ip, r0, lsl #30
     338:	043a0000 	ldrteq	r0, [sl], #-0
     33c:	03640000 	cmneq	r4, #0
     340:	01200000 	teqeq	r0, r0
     344:	23080253 	movwcs	r0, #33363	; 0x8253
     348:	05520120 	ldrbeq	r0, [r2, #-288]	; 0x120
     34c:	009aa003 	addseq	sl, sl, r3
     350:	51012000 	mrspl	r2, (UNDEF: 1)
     354:	99a40305 	stmibls	r4!, {r0, r2, r8, r9}
     358:	01200000 	teqeq	r0, r0
     35c:	cc030550 	cfstr32gt	mvfx0, [r3], {80}	; 0x50
     360:	00000099 	muleq	r0, r9, r0
     364:	0081401e 	addeq	r4, r1, lr, lsl r0
     368:	00045000 	andeq	r5, r4, r0
     36c:	81501f00 	cmphi	r0, r0, lsl #30
     370:	043a0000 	ldrteq	r0, [sl], #-0
     374:	03840000 	orreq	r0, r4, #0
     378:	01200000 	teqeq	r0, r0
     37c:	04030550 	streq	r0, [r3], #-1360	; 0x550
     380:	0000009a 	muleq	r0, sl, r0
     384:	0081641e 	addeq	r6, r1, lr, lsl r4
     388:	00043300 	andeq	r3, r4, r0, lsl #6
     38c:	81801f00 	orrhi	r1, r0, r0, lsl #30
     390:	043a0000 	ldrteq	r0, [sl], #-0
     394:	03c60000 	biceq	r0, r6, #0
     398:	01200000 	teqeq	r0, r0
     39c:	27080253 	smlsdcs	r8, r3, r2, r0
     3a0:	05520120 	ldrbeq	r0, [r2, #-288]	; 0x120
     3a4:	009aa003 	addseq	sl, sl, r3
     3a8:	51012000 	mrspl	r2, (UNDEF: 1)
     3ac:	99a40305 	stmibls	r4!, {r0, r2, r8, r9}
     3b0:	01200000 	teqeq	r0, r0
     3b4:	90030550 	andls	r0, r3, r0, asr r5
     3b8:	20000099 	mulcs	r0, r9, r0
     3bc:	05007d02 	streq	r7, [r0, #-3330]	; 0xd02
     3c0:	009a2c03 	addseq	r2, sl, r3, lsl #24
     3c4:	841e0000 	ldrhi	r0, [lr], #-0
     3c8:	50000081 	andpl	r0, r0, r1, lsl #1
     3cc:	1f000004 	svcne	0x00000004
     3d0:	0000818c 	andeq	r8, r0, ip, lsl #3
     3d4:	0000043a 	andeq	r0, r0, sl, lsr r4
     3d8:	000003e6 	andeq	r0, r0, r6, ror #7
     3dc:	05500120 	ldrbeq	r0, [r0, #-288]	; 0x120
     3e0:	009a4403 	addseq	r4, sl, r3, lsl #8
     3e4:	941f0000 	ldrls	r0, [pc], #-0	; 3ec <__code_start__-0x7c14>
     3e8:	3a000081 	bcc	5f4 <__code_start__-0x7a0c>
     3ec:	fd000004 	stc2	0, cr0, [r0, #-16]
     3f0:	20000003 	andcs	r0, r0, r3
     3f4:	03055001 	movweq	r5, #20481	; 0x5001
     3f8:	00009a50 	andeq	r9, r0, r0, asr sl
     3fc:	81981e00 	orrshi	r1, r8, r0, lsl #28
     400:	04500000 	ldrbeq	r0, [r0], #-0
     404:	06000000 	streq	r0, [r0], -r0
     408:	0000008f 	andeq	r0, r0, pc, lsl #1
     40c:	0000f921 	andeq	pc, r0, r1, lsr #18
     410:	25c20200 	strbcs	r0, [r2, #512]	; 0x200
     414:	22000000 	andcs	r0, r0, #0
     418:	0000020e 	andeq	r0, r0, lr, lsl #4
     41c:	28238d05 	stmdacs	r3!, {r0, r2, r8, sl, fp, pc}
     420:	03000000 	movweq	r0, #0
     424:	0000254e 	andeq	r2, r0, lr, asr #10
     428:	00043300 	andeq	r3, r4, r0, lsl #6
     42c:	01d10e00 	bicseq	r0, r1, r0, lsl #28
     430:	22000000 	andcs	r0, r0, #0
     434:	0000022a 	andeq	r0, r0, sl, lsr #4
     438:	7d231e05 	stcvc	14, cr1, [r3, #-20]!	; 0xffffffec
     43c:	05000005 	streq	r0, [r0, #-5]
     440:	00002529 	andeq	r2, r0, r9, lsr #10
     444:	00045000 	andeq	r5, r4, r0
     448:	00840e00 	addeq	r0, r4, r0, lsl #28
     44c:	00240000 	eoreq	r0, r4, r0
     450:	0000ce22 	andeq	ip, r0, r2, lsr #28
     454:	00650500 	rsbeq	r0, r5, r0, lsl #10
     458:	00000bd7 	ldrdeq	r0, [r0], -r7
     45c:	01f20004 	mvnseq	r0, r4
     460:	01040000 	mrseq	r0, (UNDEF: 4)
     464:	00000146 	andeq	r0, r0, r6, asr #2
     468:	00027501 	andeq	r7, r2, r1, lsl #10
     46c:	00002e00 	andeq	r2, r0, r0, lsl #28
     470:	0081c000 	addeq	ip, r1, r0
     474:	00037800 	andeq	r7, r3, r0, lsl #16
     478:	00015900 	andeq	r5, r1, r0, lsl #18
     47c:	05040200 	streq	r0, [r4, #-512]	; 0x200
     480:	00746e69 	rsbseq	r6, r4, r9, ror #28
     484:	bd070403 	cfstrslt	mvf0, [r7, #-12]
     488:	03000001 	movweq	r0, #1
     48c:	00c20601 	sbceq	r0, r2, r1, lsl #12
     490:	02030000 	andeq	r0, r3, #0
     494:	00000f05 	andeq	r0, r0, r5, lsl #30
     498:	05040300 	streq	r0, [r4, #-768]	; 0x300
     49c:	000001f1 	strdeq	r0, [r0], -r1
     4a0:	ec050803 	stc	8, cr0, [r5], {3}
     4a4:	03000001 	movweq	r0, #1
     4a8:	00c00801 	sbceq	r0, r0, r1, lsl #16
     4ac:	02030000 	andeq	r0, r3, #0
     4b0:	0000e607 	andeq	lr, r0, r7, lsl #12
     4b4:	021b0400 	andseq	r0, fp, #0, 8
     4b8:	34030000 	strcc	r0, [r3], #-0
     4bc:	00000068 	andeq	r0, r0, r8, rrx
     4c0:	b8070403 	stmdalt	r7, {r0, r1, sl}
     4c4:	03000001 	movweq	r0, #1
     4c8:	01b30708 			; <UNDEFINED> instruction: 0x01b30708
     4cc:	04030000 	streq	r0, [r3], #-0
     4d0:	0001e307 	andeq	lr, r1, r7, lsl #6
     4d4:	03040500 	movweq	r0, #17664	; 0x4500
     4d8:	00c90801 	sbceq	r0, r9, r1, lsl #16
     4dc:	04060000 	streq	r0, [r6], #-0
     4e0:	0000008c 	andeq	r0, r0, ip, lsl #1
     4e4:	00007f07 	andeq	r7, r0, r7, lsl #30
     4e8:	03ed0400 	mvneq	r0, #0, 8
     4ec:	8a020000 	bhi	804f4 <__bss_end__+0x75f8c>
     4f0:	0000009c 	muleq	r0, ip, r0
     4f4:	00a20406 	adceq	r0, r2, r6, lsl #8
     4f8:	b7080000 	strlt	r0, [r8, -r0]
     4fc:	09000000 	stmdbeq	r0, {}	; <UNPREDICTABLE>
     500:	000000b7 	strheq	r0, [r0], -r7
     504:	00005d09 	andeq	r5, r0, r9, lsl #26
     508:	005d0900 	subseq	r0, sp, r0, lsl #18
     50c:	06000000 	streq	r0, [r0], -r0
     510:	00005d04 	andeq	r5, r0, r4, lsl #26
     514:	03b90a00 			; <UNDEFINED> instruction: 0x03b90a00
     518:	5f020000 	svcpl	0x00020000
     51c:	0000005d 	andeq	r0, r0, sp, asr r0
     520:	0000d903 	andeq	sp, r0, r3, lsl #18
     524:	65720b00 	ldrbvs	r0, [r2, #-2816]!	; 0xb00
     528:	5f020074 	svcpl	0x00020074
     52c:	0000005d 	andeq	r0, r0, sp, asr r0
     530:	03390a00 	teqeq	r9, #0, 20
     534:	a6020000 	strge	r0, [r2], -r0
     538:	0000005d 	andeq	r0, r0, sp, asr r0
     53c:	0000f503 	andeq	pc, r0, r3, lsl #10
     540:	65720b00 	ldrbvs	r0, [r2, #-2816]!	; 0xb00
     544:	a6020074 			; <UNDEFINED> instruction: 0xa6020074
     548:	0000005d 	andeq	r0, r0, sp, asr r0
     54c:	038b0a00 	orreq	r0, fp, #0, 20
     550:	70020000 	andvc	r0, r2, r0
     554:	0000002c 	andeq	r0, r0, ip, lsr #32
     558:	00010f03 	andeq	r0, r1, r3, lsl #30
     55c:	00720c00 	rsbseq	r0, r2, r0, lsl #24
     560:	005d7002 	subseq	r7, sp, r2
     564:	0a000000 	beq	56c <__code_start__-0x7a94>
     568:	000002a8 	andeq	r0, r0, r8, lsr #5
     56c:	005d1801 	subseq	r1, sp, r1, lsl #16
     570:	2b030000 	blcs	c0578 <__bss_end__+0xb6010>
     574:	0b000001 	bleq	580 <__code_start__-0x7a80>
     578:	00746572 	rsbseq	r6, r4, r2, ror r5
     57c:	005d1801 	subseq	r1, sp, r1, lsl #16
     580:	0d000000 	stceq	0, cr0, [r0, #-0]
     584:	00000413 	andeq	r0, r0, r3, lsl r4
     588:	41031e01 	tstmi	r3, r1, lsl #28
     58c:	0c000001 	stceq	0, cr0, [r0], {1}
     590:	1e010076 	mcrne	0, 0, r0, cr1, cr6, {3}
     594:	0000005d 	andeq	r0, r0, sp, asr r0
     598:	02eb0d00 	rsceq	r0, fp, #0, 26
     59c:	26010000 	strcs	r0, [r1], -r0
     5a0:	00015703 	andeq	r5, r1, r3, lsl #14
     5a4:	00760c00 	rsbseq	r0, r6, r0, lsl #24
     5a8:	005d2601 	subseq	r2, sp, r1, lsl #12
     5ac:	0d000000 	stceq	0, cr0, [r0, #-0]
     5b0:	000003d1 	ldrdeq	r0, [r0], -r1
     5b4:	6d030d01 	stcvs	13, cr0, [r3, #-4]
     5b8:	0c000001 	stceq	0, cr0, [r0], {1}
     5bc:	0d010076 	stceq	0, cr0, [r1, #-472]	; 0xfffffe28
     5c0:	0000005d 	andeq	r0, r0, sp, asr r0
     5c4:	036b0a00 	cmneq	fp, #0, 20
     5c8:	66020000 	strvs	r0, [r2], -r0
     5cc:	0000002c 	andeq	r0, r0, ip, lsr #32
     5d0:	00018903 	andeq	r8, r1, r3, lsl #18
     5d4:	03270e00 	teqeq	r7, #0, 28
     5d8:	67020000 	strvs	r0, [r2, -r0]
     5dc:	0000005d 	andeq	r0, r0, sp, asr r0
     5e0:	03f70a00 	mvnseq	r0, #0, 20
     5e4:	56020000 	strpl	r0, [r2], -r0
     5e8:	0000005d 	andeq	r0, r0, sp, asr r0
     5ec:	0001a503 	andeq	sl, r1, r3, lsl #10
     5f0:	65720b00 	ldrbvs	r0, [r2, #-2816]!	; 0xb00
     5f4:	56020074 			; <UNDEFINED> instruction: 0x56020074
     5f8:	0000005d 	andeq	r0, r0, sp, asr r0
     5fc:	03310a00 	teqeq	r1, #0, 20
     600:	63020000 	movwvs	r0, #8192	; 0x2000
     604:	0000005d 	andeq	r0, r0, sp, asr r0
     608:	0001c103 	andeq	ip, r1, r3, lsl #2
     60c:	65720b00 	ldrbvs	r0, [r2, #-2816]!	; 0xb00
     610:	63020074 	movwvs	r0, #8308	; 0x2074
     614:	0000005d 	andeq	r0, r0, sp, asr r0
     618:	02960d00 	addseq	r0, r6, #0, 26
     61c:	32010000 	andcc	r0, r1, #0
     620:	0001d703 	andeq	sp, r1, r3, lsl #14
     624:	00760c00 	rsbseq	r0, r6, r0, lsl #24
     628:	005d3201 	subseq	r3, sp, r1, lsl #4
     62c:	0a000000 	beq	634 <__code_start__-0x79cc>
     630:	00000305 	andeq	r0, r0, r5, lsl #6
     634:	005d8d01 	subseq	r8, sp, r1, lsl #26
     638:	f3030000 	vhadd.u8	d0, d3, d0
     63c:	0b000001 	bleq	648 <__code_start__-0x79b8>
     640:	00746572 	rsbseq	r6, r4, r2, ror r5
     644:	005d8d01 	subseq	r8, sp, r1, lsl #26
     648:	0d000000 	stceq	0, cr0, [r0, #-0]
     64c:	000002c7 	andeq	r0, r0, r7, asr #5
     650:	09038e01 	stmdbeq	r3, {r0, r9, sl, fp, pc}
     654:	0c000002 	stceq	0, cr0, [r0], {2}
     658:	8e010076 	mcrhi	0, 0, r0, cr1, cr6, {3}
     65c:	0000005d 	andeq	r0, r0, sp, asr r0
     660:	037d0d00 	cmneq	sp, #0, 26
     664:	8c010000 	stchi	0, cr0, [r1], {-0}
     668:	00021f03 	andeq	r1, r2, r3, lsl #30
     66c:	00760c00 	rsbseq	r0, r6, r0, lsl #24
     670:	005d8c01 	subseq	r8, sp, r1, lsl #24
     674:	0a000000 	beq	67c <__code_start__-0x7984>
     678:	00000282 	andeq	r0, r0, r2, lsl #5
     67c:	002ca902 	eoreq	sl, ip, r2, lsl #18
     680:	39030000 	stmdbcc	r3, {}	; <UNPREDICTABLE>
     684:	0b000002 	bleq	694 <__code_start__-0x796c>
     688:	aa020072 	bge	80858 <__bss_end__+0x762f0>
     68c:	0000002c 	andeq	r0, r0, ip, lsr #32
     690:	03300a00 	teqeq	r0, #0, 20
     694:	97020000 	strls	r0, [r2, -r0]
     698:	0000005d 	andeq	r0, r0, sp, asr r0
     69c:	00025503 	andeq	r5, r2, r3, lsl #10
     6a0:	65720b00 	ldrbvs	r0, [r2, #-2816]!	; 0xb00
     6a4:	97020074 	smlsdxls	r2, r4, r0, r0
     6a8:	0000005d 	andeq	r0, r0, sp, asr r0
     6ac:	02de0f00 	sbcseq	r0, lr, #0, 30
     6b0:	36010000 	strcc	r0, [r1], -r0
     6b4:	000081c0 	andeq	r8, r0, r0, asr #3
     6b8:	000000b0 	strheq	r0, [r0], -r0	; <UNPREDICTABLE>
     6bc:	04309c01 	ldrteq	r9, [r0], #-3073	; 0xc01
     6c0:	08100000 	ldmdaeq	r0, {}	; <UNPREDICTABLE>
     6c4:	01000002 	tsteq	r0, r2
     6c8:	00007d36 	andeq	r7, r0, r6, lsr sp
     6cc:	00005b00 	andeq	r5, r0, r0, lsl #22
     6d0:	04311000 	ldrteq	r1, [r1], #-0
     6d4:	36010000 	strcc	r0, [r1], -r0
     6d8:	00000091 	muleq	r0, r1, r0
     6dc:	000000a0 	andeq	r0, r0, r0, lsr #1
     6e0:	00029f11 	andeq	r9, r2, r1, lsl pc
     6e4:	5d390100 	ldfpls	f0, [r9, #-0]
     6e8:	e5000000 	str	r0, [r0, #-0]
     6ec:	12000000 	andne	r0, r0, #0
     6f0:	00000110 	andeq	r0, r0, r0, lsl r1
     6f4:	00000440 	andeq	r0, r0, r0, asr #8
     6f8:	9bd00305 	blls	ff401314 <__bss_end__+0xff3f6dac>
     6fc:	d5110000 	ldrle	r0, [r1, #-0]
     700:	01000002 	tsteq	r0, r2
     704:	00005d43 	andeq	r5, r0, r3, asr #26
     708:	00011100 	andeq	r1, r1, r0, lsl #2
     70c:	010f1300 	mrseq	r1, SP_hyp
     710:	81c80000 	bichi	r0, r8, r0
     714:	00040000 	andeq	r0, r4, r0
     718:	39010000 	stmdbcc	r1, {}	; <UNPREDICTABLE>
     71c:	000002dc 	ldrdeq	r0, [r0], -ip
     720:	0081c814 	addeq	ip, r1, r4, lsl r8
     724:	00000400 	andeq	r0, r0, r0, lsl #8
     728:	011f1500 	tsteq	pc, r0, lsl #10
     72c:	013d0000 	teqeq	sp, r0
     730:	00000000 	andeq	r0, r0, r0
     734:	00012b13 	andeq	r2, r1, r3, lsl fp
     738:	0081d000 	addeq	sp, r1, r0
     73c:	00000400 	andeq	r0, r0, r0, lsl #8
     740:	f93f0100 			; <UNDEFINED> instruction: 0xf93f0100
     744:	16000002 	strne	r0, [r0], -r2
     748:	00000137 	andeq	r0, r0, r7, lsr r1
     74c:	00000150 	andeq	r0, r0, r0, asr r1
     750:	010f1300 	mrseq	r1, SP_hyp
     754:	81d40000 	bicshi	r0, r4, r0
     758:	00040000 	andeq	r0, r4, r0
     75c:	41010000 	mrsmi	r0, (UNDEF: 1)
     760:	00000320 	andeq	r0, r0, r0, lsr #6
     764:	0081d414 	addeq	sp, r1, r4, lsl r4
     768:	00000400 	andeq	r0, r0, r0, lsl #8
     76c:	011f1500 	tsteq	pc, r0, lsl #10
     770:	016e0000 	cmneq	lr, r0
     774:	00000000 	andeq	r0, r0, r0
     778:	00014113 	andeq	r4, r1, r3, lsl r1
     77c:	00820400 	addeq	r0, r2, r0, lsl #8
     780:	00000400 	andeq	r0, r0, r0, lsl #8
     784:	3d460100 	stfcce	f0, [r6, #-0]
     788:	16000003 	strne	r0, [r0], -r3
     78c:	0000014d 	andeq	r0, r0, sp, asr #2
     790:	00000111 	andeq	r0, r0, r1, lsl r1
     794:	012b1300 	teqeq	fp, r0, lsl #6
     798:	82080000 	andhi	r0, r8, #0
     79c:	00080000 	andeq	r0, r8, r0
     7a0:	50010000 	andpl	r0, r1, r0
     7a4:	00000358 	andeq	r0, r0, r8, asr r3
     7a8:	00013717 	andeq	r3, r1, r7, lsl r7
     7ac:	0001ff00 	andeq	pc, r1, r0, lsl #30
     7b0:	00010f13 	andeq	r0, r1, r3, lsl pc
     7b4:	00821000 	addeq	r1, r2, r0
     7b8:	00000400 	andeq	r0, r0, r0, lsl #8
     7bc:	7f520100 	svcvc	0x00520100
     7c0:	14000003 	strne	r0, [r0], #-3
     7c4:	00008210 	andeq	r8, r0, r0, lsl r2
     7c8:	00000004 	andeq	r0, r0, r4
     7cc:	00011f15 	andeq	r1, r1, r5, lsl pc
     7d0:	00018c00 	andeq	r8, r1, r0, lsl #24
     7d4:	13000000 	movwne	r0, #0
     7d8:	00000157 	andeq	r0, r0, r7, asr r1
     7dc:	00008240 	andeq	r8, r0, r0, asr #4
     7e0:	00000008 	andeq	r0, r0, r8
     7e4:	03995401 	orrseq	r5, r9, #16777216	; 0x1000000
     7e8:	63180000 	tstvs	r8, #0
     7ec:	00000001 	andeq	r0, r0, r1
     7f0:	81e41900 	mvnhi	r1, r0, lsl #18
     7f4:	0baf0000 	bleq	febc07fc <__bss_end__+0xfebb6294>
     7f8:	001a0000 	andseq	r0, sl, r0
     7fc:	b6000082 	strlt	r0, [r0], -r2, lsl #1
     800:	db00000b 	blle	834 <__code_start__-0x77cc>
     804:	1b000003 	blne	818 <__code_start__-0x77e8>
     808:	08025301 	stmdaeq	r2, {r0, r8, r9, ip, lr}
     80c:	52011b41 	andpl	r1, r1, #66560	; 0x10400
     810:	9bd00305 	blls	ff40142c <__bss_end__+0xff3f6ec4>
     814:	011b0000 	tsteq	fp, r0
     818:	a8030551 	stmdage	r3, {r0, r4, r6, r8, sl}
     81c:	1b00009a 	blne	a8c <__code_start__-0x7574>
     820:	03055001 	movweq	r5, #20481	; 0x5001
     824:	00009990 	muleq	r0, r0, r9
     828:	007d021b 	rsbseq	r0, sp, fp, lsl r2
     82c:	9ab80305 	bls	fee01448 <__bss_end__+0xfedf6ee0>
     830:	19000000 	stmdbne	r0, {}	; <UNPREDICTABLE>
     834:	00008204 	andeq	r8, r0, r4, lsl #4
     838:	00000bcc 	andeq	r0, r0, ip, asr #23
     83c:	00822019 	addeq	r2, r2, r9, lsl r0
     840:	000baf00 	andeq	sl, fp, r0, lsl #30
     844:	823c1a00 	eorshi	r1, ip, #0, 20
     848:	0bb60000 	bleq	fed80850 <__bss_end__+0xfed762e8>
     84c:	04260000 	strteq	r0, [r6], #-0
     850:	011b0000 	tsteq	fp, r0
     854:	52080253 	andpl	r0, r8, #805306373	; 0x30000005
     858:	0552011b 	ldrbeq	r0, [r2, #-283]	; 0x11b
     85c:	009bd003 	addseq	sp, fp, r3
     860:	51011b00 	tstpl	r1, r0, lsl #22
     864:	9aa80305 	bls	fea01480 <__bss_end__+0xfe9f6f18>
     868:	011b0000 	tsteq	fp, r0
     86c:	90030550 	andls	r0, r3, r0, asr r5
     870:	1b000099 	blne	adc <__code_start__-0x7524>
     874:	05007d02 	streq	r7, [r0, #-3330]	; 0xd02
     878:	009ab803 	addseq	fp, sl, r3, lsl #16
     87c:	40190000 	andsmi	r0, r9, r0
     880:	cc000082 	stcgt	0, cr0, [r0], {130}	; 0x82
     884:	0000000b 	andeq	r0, r0, fp
     888:	00007f1c 	andeq	r7, r0, ip, lsl pc
     88c:	00044000 	andeq	r4, r4, r0
     890:	00761d00 	rsbseq	r1, r6, r0, lsl #26
     894:	000c0000 	andeq	r0, ip, r0
     898:	00043007 	andeq	r3, r4, r7
     89c:	02610a00 	rsbeq	r0, r1, #0, 20
     8a0:	76020000 	strvc	r0, [r2], -r0
     8a4:	0000002c 	andeq	r0, r0, ip, lsr #32
     8a8:	00046c03 	andeq	r6, r4, r3, lsl #24
     8ac:	00720b00 	rsbseq	r0, r2, r0, lsl #22
     8b0:	002c7702 	eoreq	r7, ip, r2, lsl #14
     8b4:	101e0000 	andsne	r0, lr, r0
     8b8:	7c000001 	stcvc	0, cr0, [r0], {1}
     8bc:	61000004 	tstvs	r0, r4
     8c0:	00000002 	andeq	r0, r0, r2
     8c4:	00007f1c 	andeq	r7, r0, ip, lsl pc
     8c8:	00047c00 	andeq	r7, r4, r0, lsl #24
     8cc:	00761d00 	rsbseq	r1, r6, r0, lsl #26
     8d0:	00130000 	andseq	r0, r3, r0
     8d4:	00046c07 	andeq	r6, r4, r7, lsl #24
     8d8:	02390f00 	eorseq	r0, r9, #0, 30
     8dc:	59010000 	stmdbpl	r1, {}	; <UNPREDICTABLE>
     8e0:	00008270 	andeq	r8, r0, r0, ror r2
     8e4:	000000dc 	ldrdeq	r0, [r0], -ip
     8e8:	06b09c01 	ldrteq	r9, [r0], r1, lsl #24
     8ec:	701f0000 	andsvc	r0, pc, r0
     8f0:	59010063 	stmdbpl	r1, {r0, r1, r5, r6}
     8f4:	0000002c 	andeq	r0, r0, ip, lsr #32
     8f8:	000001aa 	andeq	r0, r0, sl, lsr #3
     8fc:	0003a820 	andeq	sl, r3, r0, lsr #16
     900:	255a0100 	ldrbcs	r0, [sl, #-256]	; 0x100
     904:	05000000 	streq	r0, [r0, #-0]
     908:	00a15403 	adceq	r5, r1, r3, lsl #8
     90c:	01101200 	tsteq	r0, r0, lsl #4
     910:	06c00000 	strbeq	r0, [r0], r0
     914:	03050000 	movweq	r0, #20480	; 0x5000
     918:	00009be0 	andeq	r9, r0, r0, ror #23
     91c:	0002090e 	andeq	r0, r2, lr, lsl #18
     920:	5d6b0100 	stfple	f0, [fp, #-0]
     924:	13000000 	movwne	r0, #0
     928:	0000016d 	andeq	r0, r0, sp, ror #2
     92c:	0000827c 	andeq	r8, r0, ip, ror r2
     930:	00000004 	andeq	r0, r0, r4
     934:	05115c01 	ldreq	r5, [r1, #-3073]	; 0xc01
     938:	7c140000 	ldcvc	0, cr0, [r4], {-0}
     93c:	04000082 	streq	r0, [r0], #-130	; 0x82
     940:	21000000 	mrscs	r0, (UNDEF: 0)
     944:	0000017d 	andeq	r0, r0, sp, ror r1
     948:	0000bd22 	andeq	fp, r0, r2, lsr #26
     94c:	00827c00 	addeq	r7, r2, r0, lsl #24
     950:	00000400 	andeq	r0, r0, r0, lsl #8
     954:	14670200 	strbtne	r0, [r7], #-512	; 0x200
     958:	0000827c 	andeq	r8, r0, ip, ror r2
     95c:	00000004 	andeq	r0, r0, r4
     960:	0000cd21 	andeq	ip, r0, r1, lsr #26
     964:	00000000 	andeq	r0, r0, r0
     968:	04451300 	strbeq	r1, [r5], #-768	; 0x300
     96c:	82800000 	addhi	r0, r0, #0
     970:	002c0000 	eoreq	r0, ip, r0
     974:	62010000 	andvs	r0, r1, #0
     978:	000005c4 	andeq	r0, r0, r4, asr #11
     97c:	00828014 	addeq	r8, r2, r4, lsl r0
     980:	00002c00 	andeq	r2, r0, r0, lsl #24
     984:	04552100 	ldrbeq	r2, [r5], #-256	; 0x100
     988:	5e230000 	cdppl	0, 2, cr0, cr3, cr0, {0}
     98c:	05000004 	streq	r0, [r0, #-4]
     990:	009bf403 	addseq	pc, fp, r3, lsl #8
     994:	00bd1300 	adcseq	r1, sp, r0, lsl #6
     998:	82800000 	addhi	r0, r0, #0
     99c:	00040000 	andeq	r0, r4, r0
     9a0:	77020000 	strvc	r0, [r2, -r0]
     9a4:	00000564 	andeq	r0, r0, r4, ror #10
     9a8:	00828014 	addeq	r8, r2, r4, lsl r0
     9ac:	00000400 	andeq	r0, r0, r0, lsl #8
     9b0:	00cd1500 	sbceq	r1, sp, r0, lsl #10
     9b4:	02210000 	eoreq	r0, r1, #0
     9b8:	00000000 	andeq	r0, r0, r0
     9bc:	0000f513 	andeq	pc, r0, r3, lsl r5	; <UNPREDICTABLE>
     9c0:	00828400 	addeq	r8, r2, r0, lsl #8
     9c4:	00000400 	andeq	r0, r0, r0, lsl #8
     9c8:	81780200 	cmnhi	r8, r0, lsl #4
     9cc:	16000005 	strne	r0, [r0], -r5
     9d0:	00000105 	andeq	r0, r0, r5, lsl #2
     9d4:	00000221 	andeq	r0, r0, r1, lsr #4
     9d8:	82941900 	addshi	r1, r4, #0, 18
     9dc:	0baf0000 	bleq	febc09e4 <__bss_end__+0xfebb647c>
     9e0:	a81a0000 	ldmdage	sl, {}	; <UNPREDICTABLE>
     9e4:	b6000082 	strlt	r0, [r0], -r2, lsl #1
     9e8:	b900000b 	stmdblt	r0, {r0, r1, r3}
     9ec:	1b000005 	blne	a08 <__code_start__-0x75f8>
     9f0:	08025301 	stmdaeq	r2, {r0, r8, r9, ip, lr}
     9f4:	52011b79 	andpl	r1, r1, #123904	; 0x1e400
     9f8:	9bf40305 	blls	ffd01614 <__bss_end__+0xffcf70ac>
     9fc:	011b0000 	tsteq	fp, r0
     a00:	08030551 	stmdaeq	r3, {r0, r4, r6, r8, sl}
     a04:	1b00009b 	blne	c78 <__code_start__-0x7388>
     a08:	03055001 	movweq	r5, #20481	; 0x5001
     a0c:	00009ad0 	ldrdeq	r9, [r0], -r0
     a10:	82ac1900 	adchi	r1, ip, #0, 18
     a14:	0bcc0000 	bleq	ff300a1c <__bss_end__+0xff2f64b4>
     a18:	00000000 	andeq	r0, r0, r0
     a1c:	00018913 	andeq	r8, r1, r3, lsl r9
     a20:	0082ac00 	addeq	sl, r2, r0, lsl #24
     a24:	00000400 	andeq	r0, r0, r0, lsl #8
     a28:	eb670100 	bl	19c0e30 <__bss_end__+0x19b68c8>
     a2c:	14000005 	strne	r0, [r0], #-5
     a30:	000082ac 	andeq	r8, r0, ip, lsr #5
     a34:	00000004 	andeq	r0, r0, r4
     a38:	00019915 	andeq	r9, r1, r5, lsl r9
     a3c:	00023400 	andeq	r3, r2, r0, lsl #8
     a40:	13000000 	movwne	r0, #0
     a44:	000001a5 	andeq	r0, r0, r5, lsr #3
     a48:	00008314 	andeq	r8, r0, r4, lsl r3
     a4c:	00000004 	andeq	r0, r0, r4
     a50:	060e6b01 	streq	r6, [lr], -r1, lsl #22
     a54:	14140000 	ldrne	r0, [r4], #-0
     a58:	04000083 	streq	r0, [r0], #-131	; 0x83
     a5c:	21000000 	mrscs	r0, (UNDEF: 0)
     a60:	000001b5 			; <UNDEFINED> instruction: 0x000001b5
     a64:	c0190000 	andsgt	r0, r9, r0
     a68:	af000082 	svcge	0x00000082
     a6c:	1a00000b 	bne	aa0 <__code_start__-0x7560>
     a70:	000082dc 	ldrdeq	r8, [r0], -ip
     a74:	00000bb6 			; <UNDEFINED> instruction: 0x00000bb6
     a78:	00000650 	andeq	r0, r0, r0, asr r6
     a7c:	0253011b 	subseq	r0, r3, #-1073741818	; 0xc0000006
     a80:	011b6708 	tsteq	fp, r8, lsl #14
     a84:	e0030552 	and	r0, r3, r2, asr r5
     a88:	1b00009b 	blne	cfc <__code_start__-0x7304>
     a8c:	03055101 	movweq	r5, #20737	; 0x5101
     a90:	00009aa8 	andeq	r9, r0, r8, lsr #21
     a94:	0550011b 	ldrbeq	r0, [r0, #-283]	; 0x11b
     a98:	00999003 	addseq	r9, r9, r3
     a9c:	7d021b00 	vstrvc	d1, [r2, #-0]
     aa0:	18030500 	stmdane	r3, {r8, sl}
     aa4:	0000009b 	muleq	r0, fp, r0
     aa8:	0082e019 	addeq	lr, r2, r9, lsl r0
     aac:	000bcc00 	andeq	ip, fp, r0, lsl #24
     ab0:	82f41900 	rscshi	r1, r4, #0, 18
     ab4:	0baf0000 	bleq	febc0abc <__bss_end__+0xfebb6554>
     ab8:	101a0000 	andsne	r0, sl, r0
     abc:	b6000083 	strlt	r0, [r0], -r3, lsl #1
     ac0:	9b00000b 	blls	af4 <__code_start__-0x750c>
     ac4:	1b000006 	blne	ae4 <__code_start__-0x751c>
     ac8:	08025301 	stmdaeq	r2, {r0, r8, r9, ip, lr}
     acc:	52011b69 	andpl	r1, r1, #107520	; 0x1a400
     ad0:	9be00305 	blls	ff8016ec <__bss_end__+0xff7f7184>
     ad4:	011b0000 	tsteq	fp, r0
     ad8:	a8030551 	stmdage	r3, {r0, r4, r6, r8, sl}
     adc:	1b00009a 	blne	d4c <__code_start__-0x72b4>
     ae0:	03055001 	movweq	r5, #20481	; 0x5001
     ae4:	00009990 	muleq	r0, r0, r9
     ae8:	007d021b 	rsbseq	r0, sp, fp, lsl r2
     aec:	9b2c0305 	blls	b01708 <__bss_end__+0xaf71a0>
     af0:	19000000 	stmdbne	r0, {}	; <UNPREDICTABLE>
     af4:	00008314 	andeq	r8, r0, r4, lsl r3
     af8:	00000bcc 	andeq	r0, r0, ip, asr #23
     afc:	00832024 	addeq	r2, r3, r4, lsr #32
     b00:	50011b00 	andpl	r1, r1, r0, lsl #22
     b04:	00003001 	andeq	r3, r0, r1
     b08:	00007f1c 	andeq	r7, r0, ip, lsl pc
     b0c:	0006c000 	andeq	ip, r6, r0
     b10:	00761d00 	rsbseq	r1, r6, r0, lsl #26
     b14:	00110000 	andseq	r0, r1, r0
     b18:	0006b007 	andeq	fp, r6, r7
     b1c:	039c0f00 	orrseq	r0, ip, #0, 30
     b20:	72010000 	andvc	r0, r1, #0
     b24:	0000834c 	andeq	r8, r0, ip, asr #6
     b28:	0000003c 	andeq	r0, r0, ip, lsr r0
     b2c:	07359c01 	ldreq	r9, [r5, -r1, lsl #24]!
     b30:	b1200000 	teqlt	r0, r0
     b34:	01000002 	tsteq	r0, r2
     b38:	00002573 	andeq	r2, r0, r3, ror r5
     b3c:	58030500 	stmdapl	r3, {r8, sl}
     b40:	250000a1 	strcs	r0, [r0, #-161]	; 0xa1
     b44:	7c010076 	stcvc	0, cr0, [r1], {118}	; 0x76
     b48:	0000005d 	andeq	r0, r0, sp, asr r0
     b4c:	c1138000 	tstgt	r3, r0
     b50:	70000001 	andvc	r0, r0, r1
     b54:	08000083 	stmdaeq	r0, {r0, r1, r7}
     b58:	01000000 	mrseq	r0, (UNDEF: 0)
     b5c:	0007117e 	andeq	r1, r7, lr, ror r1
     b60:	01cd1700 	biceq	r1, sp, r0, lsl #14
     b64:	80000000 	andhi	r0, r0, r0
     b68:	01571300 	cmpeq	r7, r0, lsl #6
     b6c:	83780000 	cmnhi	r8, #0
     b70:	00100000 	andseq	r0, r0, r0
     b74:	80010000 	andhi	r0, r1, r0
     b78:	0000072b 	andeq	r0, r0, fp, lsr #14
     b7c:	00016318 	andeq	r6, r1, r8, lsl r3
     b80:	19000000 	stmdbne	r0, {}	; <UNPREDICTABLE>
     b84:	00008364 	andeq	r8, r0, r4, ror #6
     b88:	00000bd3 	ldrdeq	r0, [r0], -r3
     b8c:	04080f00 	streq	r0, [r8], #-3840	; 0xf00
     b90:	a8010000 	stmdage	r1, {}	; <UNPREDICTABLE>
     b94:	00008388 	andeq	r8, r0, r8, lsl #7
     b98:	00000034 	andeq	r0, r0, r4, lsr r0
     b9c:	08119c01 	ldmdaeq	r1, {r0, sl, fp, ip, pc}
     ba0:	09260000 	stmdbeq	r6!, {}	; <UNPREDICTABLE>
     ba4:	01000002 	tsteq	r0, r2
     ba8:	00005da8 	andeq	r5, r0, r8, lsr #27
     bac:	26500100 	ldrbcs	r0, [r0], -r0, lsl #2
     bb0:	00000431 	andeq	r0, r0, r1, lsr r4
     bb4:	0091a801 	addseq	sl, r1, r1, lsl #16
     bb8:	51010000 	mrspl	r0, (UNDEF: 1)
     bbc:	0003e411 	andeq	lr, r3, r1, lsl r4
     bc0:	5da90100 	stfpls	f0, [r9]
     bc4:	61000000 	mrsvs	r0, (UNDEF: 0)
     bc8:	20000002 	andcs	r0, r0, r2
     bcc:	000003b0 			; <UNDEFINED> instruction: 0x000003b0
     bd0:	005db101 	subseq	fp, sp, r1, lsl #2
     bd4:	50010000 	andpl	r0, r1, r0
     bd8:	0001d713 	andeq	sp, r1, r3, lsl r7
     bdc:	00838800 	addeq	r8, r3, r0, lsl #16
     be0:	00000400 	andeq	r0, r0, r0, lsl #8
     be4:	a7a90100 	strge	r0, [r9, r0, lsl #2]!
     be8:	14000007 	strne	r0, [r0], #-7
     bec:	00008388 	andeq	r8, r0, r8, lsl #7
     bf0:	00000004 	andeq	r0, r0, r4
     bf4:	0001e715 	andeq	lr, r1, r5, lsl r7
     bf8:	00028200 	andeq	r8, r2, r0, lsl #4
     bfc:	13000000 	movwne	r0, #0
     c00:	000001f3 	strdeq	r0, [r0], -r3
     c04:	00008390 	muleq	r0, r0, r3
     c08:	00000004 	andeq	r0, r0, r4
     c0c:	07c4af01 	strbeq	sl, [r4, r1, lsl #30]
     c10:	ff160000 			; <UNDEFINED> instruction: 0xff160000
     c14:	95000001 	strls	r0, [r0, #-1]
     c18:	00000002 	andeq	r0, r0, r2
     c1c:	00020913 	andeq	r0, r2, r3, lsl r9
     c20:	00839400 	addeq	r9, r3, r0, lsl #8
     c24:	00000400 	andeq	r0, r0, r0, lsl #8
     c28:	dfb40100 	svcle	0x00b40100
     c2c:	27000007 	strcs	r0, [r0, -r7]
     c30:	00000215 	andeq	r0, r0, r5, lsl r2
     c34:	13005001 	movwne	r5, #1
     c38:	000001f3 	strdeq	r0, [r0], -r3
     c3c:	00008398 	muleq	r0, r8, r3
     c40:	00000008 	andeq	r0, r0, r8
     c44:	07fabe01 	ldrbeq	fp, [sl, r1, lsl #28]!
     c48:	ff170000 			; <UNDEFINED> instruction: 0xff170000
     c4c:	e7000001 	str	r0, [r0, -r1]
     c50:	57220001 	strpl	r0, [r2, -r1]!
     c54:	a0000001 	andge	r0, r0, r1
     c58:	08000083 	stmdaeq	r0, {r0, r1, r7}
     c5c:	01000000 	mrseq	r0, (UNDEF: 0)
     c60:	016318bf 	strheq	r1, [r3, #-143]!	; 0xffffff71
     c64:	00000000 	andeq	r0, r0, r0
     c68:	024b0f00 	subeq	r0, fp, #0, 30
     c6c:	c4010000 	strgt	r0, [r1], #-0
     c70:	000083bc 			; <UNDEFINED> instruction: 0x000083bc
     c74:	00000098 	muleq	r0, r8, r0
     c78:	09449c01 	stmdbeq	r4, {r0, sl, fp, ip, pc}^
     c7c:	701f0000 	andsvc	r0, pc, r0
     c80:	c4010063 	strgt	r0, [r1], #-99	; 0x63
     c84:	0000002c 	andeq	r0, r0, ip, lsr #32
     c88:	000002a8 	andeq	r0, r0, r8, lsr #5
     c8c:	00011012 	andeq	r1, r1, r2, lsl r0
     c90:	00095400 	andeq	r5, r9, r0, lsl #8
     c94:	08030500 	stmdaeq	r3, {r8, sl}
     c98:	1300009c 	movwne	r0, #156	; 0x9c
     c9c:	0000021f 	andeq	r0, r0, pc, lsl r2
     ca0:	000083c8 	andeq	r8, r0, r8, asr #7
     ca4:	00000008 	andeq	r0, r0, r8
     ca8:	0889c601 	stmeq	r9, {r0, r9, sl, lr, pc}
     cac:	c8140000 	ldmdagt	r4, {}	; <UNPREDICTABLE>
     cb0:	08000083 	stmdaeq	r0, {r0, r1, r7}
     cb4:	21000000 	mrscs	r0, (UNDEF: 0)
     cb8:	0000022f 	andeq	r0, r0, pc, lsr #4
     cbc:	0000d922 	andeq	sp, r0, r2, lsr #18
     cc0:	0083c800 	addeq	ip, r3, r0, lsl #16
     cc4:	00000400 	andeq	r0, r0, r0, lsl #8
     cc8:	14aa0200 	strtne	r0, [sl], #512	; 0x200
     ccc:	000083c8 	andeq	r8, r0, r8, asr #7
     cd0:	00000004 	andeq	r0, r0, r4
     cd4:	0000e915 	andeq	lr, r0, r5, lsl r9
     cd8:	00030600 	andeq	r0, r3, r0, lsl #12
     cdc:	00000000 	andeq	r0, r0, r0
     ce0:	02391300 	eorseq	r1, r9, #0, 6
     ce4:	84280000 	strthi	r0, [r8], #-0
     ce8:	00040000 	andeq	r0, r4, r0
     cec:	ca010000 	bgt	40cf4 <__bss_end__+0x3678c>
     cf0:	000008ac 	andeq	r0, r0, ip, lsr #17
     cf4:	00842814 	addeq	r2, r4, r4, lsl r8
     cf8:	00000400 	andeq	r0, r0, r0, lsl #8
     cfc:	02492100 	subeq	r2, r9, #0, 2
     d00:	00000000 	andeq	r0, r0, r0
     d04:	0083dc19 	addeq	sp, r3, r9, lsl ip
     d08:	000baf00 	andeq	sl, fp, r0, lsl #30
     d0c:	83f01a00 	mvnshi	r1, #0, 20
     d10:	0bb60000 	bleq	fed80d18 <__bss_end__+0xfed767b0>
     d14:	08e40000 	stmiaeq	r4!, {}^	; <UNPREDICTABLE>
     d18:	011b0000 	tsteq	fp, r0
     d1c:	c7080253 	smlsdgt	r8, r3, r2, r0
     d20:	0552011b 	ldrbeq	r0, [r2, #-283]	; 0x11b
     d24:	009c0803 	addseq	r0, ip, r3, lsl #16
     d28:	51011b00 	tstpl	r1, r0, lsl #22
     d2c:	9aa80305 	bls	fea01948 <__bss_end__+0xfe9f73e0>
     d30:	011b0000 	tsteq	fp, r0
     d34:	40030550 	andmi	r0, r3, r0, asr r5
     d38:	0000009b 	muleq	r0, fp, r0
     d3c:	0083f419 	addeq	pc, r3, r9, lsl r4	; <UNPREDICTABLE>
     d40:	000bcc00 	andeq	ip, fp, r0, lsl #24
     d44:	84081900 	strhi	r1, [r8], #-2304	; 0x900
     d48:	0baf0000 	bleq	febc0d50 <__bss_end__+0xfebb67e8>
     d4c:	241a0000 	ldrcs	r0, [sl], #-0
     d50:	b6000084 	strlt	r0, [r0], -r4, lsl #1
     d54:	2f00000b 	svccs	0x0000000b
     d58:	1b000009 	blne	d84 <__code_start__-0x727c>
     d5c:	08025301 	stmdaeq	r2, {r0, r8, r9, ip, lr}
     d60:	52011bc8 	andpl	r1, r1, #200, 22	; 0x32000
     d64:	9c080305 	stcls	3, cr0, [r8], {5}
     d68:	011b0000 	tsteq	fp, r0
     d6c:	a8030551 	stmdage	r3, {r0, r4, r6, r8, sl}
     d70:	1b00009a 	blne	fe0 <__code_start__-0x7020>
     d74:	03055001 	movweq	r5, #20481	; 0x5001
     d78:	00009990 	muleq	r0, r0, r9
     d7c:	007d021b 	rsbseq	r0, sp, fp, lsl r2
     d80:	9b780305 	blls	1e0199c <__bss_end__+0x1df7434>
     d84:	19000000 	stmdbne	r0, {}	; <UNPREDICTABLE>
     d88:	00008428 	andeq	r8, r0, r8, lsr #8
     d8c:	00000bcc 	andeq	r0, r0, ip, asr #23
     d90:	00843424 	addeq	r3, r4, r4, lsr #8
     d94:	50011b00 	andpl	r1, r1, r0, lsl #22
     d98:	00003001 	andeq	r3, r0, r1
     d9c:	00007f1c 	andeq	r7, r0, ip, lsl pc
     da0:	00095400 	andeq	r5, r9, r0, lsl #8
     da4:	00761d00 	rsbseq	r1, r6, r0, lsl #26
     da8:	00150000 	andseq	r0, r5, r0
     dac:	00094407 	andeq	r4, r9, r7, lsl #8
     db0:	07680f00 	strbeq	r0, [r8, -r0, lsl #30]!
     db4:	cd010000 	stcgt	0, cr0, [r1, #-0]
     db8:	00008454 	andeq	r8, r0, r4, asr r4
     dbc:	00000004 	andeq	r0, r0, r4
     dc0:	097b9c01 	ldmdbeq	fp!, {r0, sl, fp, ip, pc}^
     dc4:	70280000 	eorvc	r0, r8, r0
     dc8:	cd010063 	stcgt	0, cr0, [r1, #-396]	; 0xfffffe74
     dcc:	0000002c 	andeq	r0, r0, ip, lsr #32
     dd0:	0f005001 	svceq	0x00005001
     dd4:	000002f4 	strdeq	r0, [r0], -r4
     dd8:	8458d801 	ldrbhi	sp, [r8], #-2049	; 0x801
     ddc:	002c0000 	eoreq	r0, ip, r0
     de0:	9c010000 	stcls	0, cr0, [r1], {-0}
     de4:	000009e1 	andeq	r0, r0, r1, ror #19
     de8:	00011012 	andeq	r1, r1, r2, lsl r0
     dec:	0009f100 	andeq	pc, r9, r0, lsl #2
     df0:	20030500 	andcs	r0, r3, r0, lsl #10
     df4:	1900009c 	stmdbne	r0, {r2, r3, r4, r7}
     df8:	00008460 	andeq	r8, r0, r0, ror #8
     dfc:	00000baf 	andeq	r0, r0, pc, lsr #23
     e00:	0084741a 	addeq	r7, r4, sl, lsl r4
     e04:	000bb600 	andeq	fp, fp, r0, lsl #12
     e08:	0009d700 	andeq	sp, r9, r0, lsl #14
     e0c:	53011b00 	movwpl	r1, #6912	; 0x1b00
     e10:	1bd90802 	blne	ff642e20 <__bss_end__+0xff6388b8>
     e14:	03055201 	movweq	r5, #20993	; 0x5201
     e18:	00009c20 	andeq	r9, r0, r0, lsr #24
     e1c:	0551011b 	ldrbeq	r0, [r1, #-283]	; 0x11b
     e20:	009aa803 	addseq	sl, sl, r3, lsl #16
     e24:	50011b00 	andpl	r1, r1, r0, lsl #22
     e28:	9b880305 	blls	fe201a44 <__bss_end__+0xfe1f74dc>
     e2c:	19000000 	stmdbne	r0, {}	; <UNPREDICTABLE>
     e30:	00008478 	andeq	r8, r0, r8, ror r4
     e34:	00000bcc 	andeq	r0, r0, ip, asr #23
     e38:	007f1c00 	rsbseq	r1, pc, r0, lsl #24
     e3c:	09f10000 	ldmibeq	r1!, {}^	; <UNPREDICTABLE>
     e40:	761d0000 	ldrvc	r0, [sp], -r0
     e44:	10000000 	andne	r0, r0, r0
     e48:	09e10700 	stmibeq	r1!, {r8, r9, sl}^
     e4c:	130f0000 	movwne	r0, #61440	; 0xf000
     e50:	01000003 	tsteq	r0, r3
     e54:	008484dc 	ldrdeq	r8, [r4], ip
     e58:	00003400 	andeq	r3, r0, r0, lsl #8
     e5c:	d49c0100 	ldrle	r0, [ip], #256	; 0x100
     e60:	2600000a 	strcs	r0, [r0], -sl
     e64:	00000209 	andeq	r0, r0, r9, lsl #4
     e68:	005ddc01 	subseq	sp, sp, r1, lsl #24
     e6c:	50010000 	andpl	r0, r1, r0
     e70:	00043126 	andeq	r3, r4, r6, lsr #2
     e74:	91dc0100 	bicsls	r0, ip, r0, lsl #2
     e78:	01000000 	mrseq	r0, (UNDEF: 0)
     e7c:	03e41151 	mvneq	r1, #1073741844	; 0x40000014
     e80:	dd010000 	stcle	0, cr0, [r1, #-0]
     e84:	0000005d 	andeq	r0, r0, sp, asr r0
     e88:	00000319 	andeq	r0, r0, r9, lsl r3
     e8c:	0003b020 	andeq	fp, r3, r0, lsr #32
     e90:	5de50100 	stfple	f0, [r5]
     e94:	01000000 	mrseq	r0, (UNDEF: 0)
     e98:	01d71350 	bicseq	r1, r7, r0, asr r3
     e9c:	84840000 	strhi	r0, [r4], #0
     ea0:	00040000 	andeq	r0, r4, r0
     ea4:	dd010000 	stcle	0, cr0, [r1, #-0]
     ea8:	00000a68 	andeq	r0, r0, r8, ror #20
     eac:	00848414 	addeq	r8, r4, r4, lsl r4
     eb0:	00000400 	andeq	r0, r0, r0, lsl #8
     eb4:	01e71500 	mvneq	r1, r0, lsl #10
     eb8:	033c0000 	teqeq	ip, #0
     ebc:	00000000 	andeq	r0, r0, r0
     ec0:	0001f313 	andeq	pc, r1, r3, lsl r3	; <UNPREDICTABLE>
     ec4:	00848c00 	addeq	r8, r4, r0, lsl #24
     ec8:	00000400 	andeq	r0, r0, r0, lsl #8
     ecc:	85e30100 	strbhi	r0, [r3, #256]!	; 0x100
     ed0:	1600000a 	strne	r0, [r0], -sl
     ed4:	000001ff 	strdeq	r0, [r0], -pc	; <UNPREDICTABLE>
     ed8:	0000034f 	andeq	r0, r0, pc, asr #6
     edc:	02091300 	andeq	r1, r9, #0, 6
     ee0:	84900000 	ldrhi	r0, [r0], #0
     ee4:	00040000 	andeq	r0, r4, r0
     ee8:	e8010000 	stmda	r1, {}	; <UNPREDICTABLE>
     eec:	00000aa0 	andeq	r0, r0, r0, lsr #21
     ef0:	00021527 	andeq	r1, r2, r7, lsr #10
     ef4:	00500100 	subseq	r0, r0, r0, lsl #2
     ef8:	0001f313 	andeq	pc, r1, r3, lsl r3	; <UNPREDICTABLE>
     efc:	00849400 	addeq	r9, r4, r0, lsl #8
     f00:	00000800 	andeq	r0, r0, r0, lsl #16
     f04:	bdf20100 	ldflte	f0, [r2]
     f08:	2900000a 	stmdbcs	r0, {r1, r3}
     f0c:	000001ff 	strdeq	r0, [r0], -pc	; <UNPREDICTABLE>
     f10:	004001e7 	subeq	r0, r0, r7, ror #3
     f14:	01572200 	cmpeq	r7, r0, lsl #4
     f18:	849c0000 	ldrhi	r0, [ip], #0
     f1c:	00080000 	andeq	r0, r8, r0
     f20:	f3010000 	vhadd.u8	d0, d1, d0
     f24:	00016318 	andeq	r6, r1, r8, lsl r3
     f28:	00000000 	andeq	r0, r0, r0
     f2c:	0003530f 	andeq	r5, r3, pc, lsl #6
     f30:	b8f80100 	ldmlt	r8!, {r8}^
     f34:	10000084 	andne	r0, r0, r4, lsl #1
     f38:	01000000 	mrseq	r0, (UNDEF: 0)
     f3c:	000b209c 	muleq	fp, ip, r0
     f40:	02092600 	andeq	r2, r9, #0, 12
     f44:	f8010000 			; <UNDEFINED> instruction: 0xf8010000
     f48:	0000005d 	andeq	r0, r0, sp, asr r0
     f4c:	e42a5001 	strt	r5, [sl], #-1
     f50:	01000003 	tsteq	r0, r3
     f54:	00005df9 	strdeq	r5, [r0], -r9
     f58:	4001e600 	andmi	lr, r1, r0, lsl #12
     f5c:	01f32b00 	mvnseq	r2, r0, lsl #22
     f60:	84b80000 	ldrthi	r0, [r8], #0
     f64:	00100000 	andseq	r0, r0, r0
     f68:	00010000 	andeq	r0, r1, r0
     f6c:	01ff2901 	mvnseq	r2, r1, lsl #18
     f70:	01e60000 	mvneq	r0, r0
     f74:	00000040 	andeq	r0, r0, r0, asr #32
     f78:	0003c22c 	andeq	ip, r3, ip, lsr #4
     f7c:	01090100 	mrseq	r0, (UNDEF: 25)
     f80:	00000025 	andeq	r0, r0, r5, lsr #32
     f84:	000084c8 	andeq	r8, r0, r8, asr #9
     f88:	00000070 	andeq	r0, r0, r0, ror r0
     f8c:	0b7c9c01 	bleq	1f27f98 <__bss_end__+0x1f1da30>
     f90:	702d0000 	eorvc	r0, sp, r0
     f94:	09010063 	stmdbeq	r1, {r0, r1, r5, r6}
     f98:	00002c01 	andeq	r2, r0, r1, lsl #24
     f9c:	00036200 	andeq	r6, r3, r0, lsl #4
     fa0:	30722d00 	rsbscc	r2, r2, r0, lsl #26
     fa4:	01090100 	mrseq	r0, (UNDEF: 25)
     fa8:	0000005d 	andeq	r0, r0, sp, asr r0
     fac:	000003e7 	andeq	r0, r0, r7, ror #7
     fb0:	0004002e 	andeq	r0, r4, lr, lsr #32
     fb4:	010a0100 	mrseq	r0, (UNDEF: 26)
     fb8:	0000005d 	andeq	r0, r0, sp, asr r0
     fbc:	00000413 	andeq	r0, r0, r3, lsl r4
     fc0:	00851c2f 	addeq	r1, r5, pc, lsr #24
     fc4:	000bb600 	andeq	fp, fp, r0, lsl #12
     fc8:	50011b00 	andpl	r1, r1, r0, lsl #22
     fcc:	9bb80305 	blls	fee01be8 <__bss_end__+0xfedf7680>
     fd0:	00000000 	andeq	r0, r0, r0
     fd4:	00034220 	andeq	r4, r3, r0, lsr #4
     fd8:	910b0100 	mrsls	r0, (UNDEF: 27)
     fdc:	05000000 	streq	r0, [r0, #-0]
     fe0:	00a14803 	adceq	r4, r1, r3, lsl #16
     fe4:	02b82000 	adcseq	r2, r8, #0
     fe8:	89010000 	stmdbhi	r1, {}	; <UNPREDICTABLE>
     fec:	00000091 	muleq	r0, r1, r0
     ff0:	a14c0305 	cmpge	ip, r5, lsl #6
     ff4:	f9300000 			; <UNDEFINED> instruction: 0xf9300000
     ff8:	01000000 	mrseq	r0, (UNDEF: 0)
     ffc:	000025d5 	ldrdeq	r2, [r0], -r5
    1000:	50030500 	andpl	r0, r3, r0, lsl #10
    1004:	310000a1 	smlatbcc	r0, r1, r0, r0
    1008:	0000022a 	andeq	r0, r0, sl, lsr #4
    100c:	7d321e04 	ldcvc	14, cr1, [r2, #-16]!
    1010:	04000005 	streq	r0, [r0], #-5
    1014:	00002529 	andeq	r2, r0, r9, lsr #10
    1018:	000bcc00 	andeq	ip, fp, r0, lsl #24
    101c:	00860900 	addeq	r0, r6, r0, lsl #18
    1020:	00330000 	eorseq	r0, r3, r0
    1024:	0000ce31 	andeq	ip, r0, r1, lsr lr
    1028:	31650400 	cmncc	r5, r0, lsl #8
    102c:	0000041c 	andeq	r0, r0, ip, lsl r4
    1030:	74003605 	strvc	r3, [r0], #-1541	; 0x605
    1034:	0400000e 	streq	r0, [r0], #-14
    1038:	00048500 	andeq	r8, r4, r0, lsl #10
    103c:	46010400 	strmi	r0, [r1], -r0, lsl #8
    1040:	01000001 	tsteq	r0, r1
    1044:	00000444 	andeq	r0, r0, r4, asr #8
    1048:	0000002e 	andeq	r0, r0, lr, lsr #32
    104c:	00008670 	andeq	r8, r0, r0, ror r6
    1050:	00000708 	andeq	r0, r0, r8, lsl #14
    1054:	00000351 	andeq	r0, r0, r1, asr r3
    1058:	69050402 	stmdbvs	r5, {r1, sl}
    105c:	0300746e 	movweq	r7, #1134	; 0x46e
    1060:	01bd0704 			; <UNDEFINED> instruction: 0x01bd0704
    1064:	01030000 	mrseq	r0, (UNDEF: 3)
    1068:	0000c206 	andeq	ip, r0, r6, lsl #4
    106c:	05020300 	streq	r0, [r2, #-768]	; 0x300
    1070:	0000000f 	andeq	r0, r0, pc
    1074:	f1050403 			; <UNDEFINED> instruction: 0xf1050403
    1078:	03000001 	movweq	r0, #1
    107c:	01ec0508 	mvneq	r0, r8, lsl #10
    1080:	01030000 	mrseq	r0, (UNDEF: 3)
    1084:	0000c008 	andeq	ip, r0, r8
    1088:	07020300 	streq	r0, [r2, -r0, lsl #6]
    108c:	000000e6 	andeq	r0, r0, r6, ror #1
    1090:	00021b04 	andeq	r1, r2, r4, lsl #22
    1094:	68340600 	ldmdavs	r4!, {r9, sl}
    1098:	03000000 	movweq	r0, #0
    109c:	01b80704 			; <UNDEFINED> instruction: 0x01b80704
    10a0:	08030000 	stmdaeq	r3, {}	; <UNPREDICTABLE>
    10a4:	0001b307 	andeq	fp, r1, r7, lsl #6
    10a8:	07040300 	streq	r0, [r4, -r0, lsl #6]
    10ac:	000001e3 	andeq	r0, r0, r3, ror #3
    10b0:	01030405 	tsteq	r3, r5, lsl #8
    10b4:	0000c908 	andeq	ip, r0, r8, lsl #18
    10b8:	8c040600 	stchi	6, cr0, [r4], {-0}
    10bc:	07000000 	streq	r0, [r0, -r0]
    10c0:	0000007f 	andeq	r0, r0, pc, ror r0
    10c4:	0003ed04 	andeq	lr, r3, r4, lsl #26
    10c8:	9c8a0200 	sfmls	f0, 4, [sl], {0}
    10cc:	06000000 	streq	r0, [r0], -r0
    10d0:	0000a204 	andeq	sl, r0, r4, lsl #4
    10d4:	00b70800 	adcseq	r0, r7, r0, lsl #16
    10d8:	b7090000 	strlt	r0, [r9, -r0]
    10dc:	09000000 	stmdbeq	r0, {}	; <UNPREDICTABLE>
    10e0:	0000005d 	andeq	r0, r0, sp, asr r0
    10e4:	00005d09 	andeq	r5, r0, r9, lsl #26
    10e8:	04060000 	streq	r0, [r6], #-0
    10ec:	0000005d 	andeq	r0, r0, sp, asr r0
    10f0:	0001d10a 	andeq	sp, r1, sl, lsl #2
    10f4:	0a073800 	beq	1cf0fc <__bss_end__+0x1c4b94>
    10f8:	0000016e 	andeq	r0, r0, lr, ror #2
    10fc:	000a440b 	andeq	r4, sl, fp, lsl #8
    1100:	6e0f0700 	cdpvs	7, 0, cr0, cr15, cr0, {0}
    1104:	00000001 	andeq	r0, r0, r1
    1108:	0700410c 	streq	r4, [r0, -ip, lsl #2]
    110c:	00018612 	andeq	r8, r1, r2, lsl r6
    1110:	420c0400 	andmi	r0, ip, #0, 8
    1114:	9b130700 	blls	4c2d1c <__bss_end__+0x4b87b4>
    1118:	08000001 	stmdaeq	r0, {r0}
    111c:	00010b0b 	andeq	r0, r1, fp, lsl #22
    1120:	86160700 	ldrhi	r0, [r6], -r0, lsl #14
    1124:	0c000001 	stceq	0, cr0, [r0], {1}
    1128:	0000280b 	andeq	r2, r0, fp, lsl #16
    112c:	9b180700 	blls	602d34 <__bss_end__+0x5f87cc>
    1130:	10000001 	andne	r0, r0, r1
    1134:	0001d90b 	andeq	sp, r1, fp, lsl #18
    1138:	a11f0700 	tstge	pc, r0, lsl #14
    113c:	14000001 	strne	r0, [r0], #-1
    1140:	0000af0b 	andeq	sl, r0, fp, lsl #30
    1144:	a1310700 	teqge	r1, r0, lsl #14
    1148:	18000001 	stmdane	r0, {r0}
    114c:	0000db0b 	andeq	sp, r0, fp, lsl #22
    1150:	a6360700 	ldrtge	r0, [r6], -r0, lsl #14
    1154:	1c000001 	stcne	0, cr0, [r0], {1}
    1158:	0002020b 	andeq	r0, r2, fp, lsl #4
    115c:	a63a0700 	ldrtge	r0, [sl], -r0, lsl #14
    1160:	20000001 	andcs	r0, r0, r1
    1164:	0000190b 	andeq	r1, r0, fp, lsl #18
    1168:	a13f0700 	teqge	pc, r0, lsl #14
    116c:	24000001 	strcs	r0, [r0], #-1
    1170:	0001fa0b 	andeq	pc, r1, fp, lsl #20
    1174:	2c420700 	mcrrcs	7, 0, r0, r2, cr0
    1178:	28000000 	stmdacs	r0, {}	; <UNPREDICTABLE>
    117c:	0000a70b 	andeq	sl, r0, fp, lsl #14
    1180:	2c430700 	mcrrcs	7, 0, r0, r3, cr0
    1184:	2c000000 	stccs	0, cr0, [r0], {-0}
    1188:	00011d0b 	andeq	r1, r1, fp, lsl #26
    118c:	2c460700 	mcrrcs	7, 0, r0, r6, cr0
    1190:	30000000 	andcc	r0, r0, r0
    1194:	0002240b 	andeq	r2, r2, fp, lsl #8
    1198:	a6480700 	strbge	r0, [r8], -r0, lsl #14
    119c:	34000001 	strcc	r0, [r0], #-1
    11a0:	74040600 	strvc	r0, [r4], #-1536	; 0x600
    11a4:	0d000001 	stceq	0, cr0, [r0, #-4]
    11a8:	00018008 	andeq	r8, r1, r8
    11ac:	01800900 	orreq	r0, r0, r0, lsl #18
    11b0:	06000000 	streq	r0, [r0], -r0
    11b4:	0000bd04 	andeq	fp, r0, r4, lsl #26
    11b8:	75040600 	strvc	r0, [r4, #-1536]	; 0x600
    11bc:	0e000001 	cdpeq	0, 0, cr0, cr0, cr1, {0}
    11c0:	00000025 	andeq	r0, r0, r5, lsr #32
    11c4:	0000019b 	muleq	r0, fp, r1
    11c8:	00018009 	andeq	r8, r1, r9
    11cc:	04060000 	streq	r0, [r6], #-0
    11d0:	0000018c 	andeq	r0, r0, ip, lsl #3
    11d4:	00002c0f 	andeq	r2, r0, pc, lsl #24
    11d8:	005d0f00 	subseq	r0, sp, r0, lsl #30
    11dc:	05040000 	streq	r0, [r4, #-0]
    11e0:	07000000 	streq	r0, [r0, -r0]
    11e4:	0000bd49 	andeq	fp, r0, r9, asr #26
    11e8:	03391000 	teqeq	r9, #0
    11ec:	a6020000 	strge	r0, [r2], -r0
    11f0:	0000005d 	andeq	r0, r0, sp, asr r0
    11f4:	0001d203 	andeq	sp, r1, r3, lsl #4
    11f8:	65721100 	ldrbvs	r1, [r2, #-256]!	; 0x100
    11fc:	a6020074 			; <UNDEFINED> instruction: 0xa6020074
    1200:	0000005d 	andeq	r0, r0, sp, asr r0
    1204:	02821000 	addeq	r1, r2, #0
    1208:	a9020000 	stmdbge	r2, {}	; <UNPREDICTABLE>
    120c:	0000002c 	andeq	r0, r0, ip, lsr #32
    1210:	0001ec03 	andeq	lr, r1, r3, lsl #24
    1214:	00721100 	rsbseq	r1, r2, r0, lsl #2
    1218:	002caa02 	eoreq	sl, ip, r2, lsl #20
    121c:	10000000 	andne	r0, r0, r0
    1220:	000004e8 	andeq	r0, r0, r8, ror #9
    1224:	00250705 	eoreq	r0, r5, r5, lsl #14
    1228:	08030000 	stmdaeq	r3, {}	; <UNPREDICTABLE>
    122c:	12000002 	andne	r0, r0, #2
    1230:	00000501 	andeq	r0, r0, r1, lsl #10
    1234:	002c0705 	eoreq	r0, ip, r5, lsl #14
    1238:	10000000 	andne	r0, r0, r0
    123c:	0000046b 	andeq	r0, r0, fp, ror #8
    1240:	005d2603 	subseq	r2, sp, r3, lsl #12
    1244:	24030000 	strcs	r0, [r3], #-0
    1248:	13000002 	movwne	r0, #2
    124c:	000004e3 	andeq	r0, r0, r3, ror #9
    1250:	005d2703 	subseq	r2, sp, r3, lsl #14
    1254:	14000000 	strne	r0, [r0], #-0
    1258:	00000425 	andeq	r0, r0, r5, lsr #8
    125c:	86700b01 	ldrbthi	r0, [r0], -r1, lsl #22
    1260:	01ac0000 			; <UNDEFINED> instruction: 0x01ac0000
    1264:	9c010000 	stcls	0, cr0, [r1], {-0}
    1268:	00000465 	andeq	r0, r0, r5, ror #8
    126c:	0004fc15 	andeq	pc, r4, r5, lsl ip	; <UNPREDICTABLE>
    1270:	b70b0100 	strlt	r0, [fp, -r0, lsl #2]
    1274:	8e000000 	cdphi	0, 0, cr0, cr0, cr0, {0}
    1278:	16000004 	strne	r0, [r0], -r4
    127c:	01006370 	tsteq	r0, r0, ror r3
    1280:	00005d0b 	andeq	r5, r0, fp, lsl #26
    1284:	0004af00 	andeq	sl, r4, r0, lsl #30
    1288:	02091500 	andeq	r1, r9, #0, 10
    128c:	0b010000 	bleq	41294 <__bss_end__+0x36d2c>
    1290:	0000005d 	andeq	r0, r0, sp, asr r0
    1294:	000004db 	ldrdeq	r0, [r0], -fp
    1298:	00011017 	andeq	r1, r1, r7, lsl r0
    129c:	00047500 	andeq	r7, r4, r0, lsl #10
    12a0:	e8030500 	stmda	r3, {r8, sl}
    12a4:	1800009e 	stmdane	r0, {r1, r2, r3, r4, r7}
    12a8:	10010063 	andne	r0, r1, r3, rrx
    12ac:	0000047a 	andeq	r0, r0, sl, ror r4
    12b0:	000004fc 	strdeq	r0, [r0], -ip
    12b4:	0001d219 	andeq	sp, r1, r9, lsl r2
    12b8:	0086a400 	addeq	sl, r6, r0, lsl #8
    12bc:	00000800 	andeq	r0, r0, r0, lsl #16
    12c0:	c70d0100 	strgt	r0, [sp, -r0, lsl #2]
    12c4:	1a000002 	bne	12d4 <__code_start__-0x6d2c>
    12c8:	000086a4 	andeq	r8, r0, r4, lsr #13
    12cc:	00000008 	andeq	r0, r0, r8
    12d0:	0001e21b 	andeq	lr, r1, fp, lsl r2
    12d4:	01b61c00 			; <UNDEFINED> instruction: 0x01b61c00
    12d8:	86a40000 	strthi	r0, [r4], r0
    12dc:	00040000 	andeq	r0, r4, r0
    12e0:	aa020000 	bge	812e8 <__bss_end__+0x76d80>
    12e4:	0086a41a 	addeq	sl, r6, sl, lsl r4
    12e8:	00000400 	andeq	r0, r0, r0, lsl #8
    12ec:	01c61d00 	biceq	r1, r6, r0, lsl #26
    12f0:	050f0000 	streq	r0, [pc, #-0]	; 12f8 <__code_start__-0x6d08>
    12f4:	00000000 	andeq	r0, r0, r0
    12f8:	a41e0000 	ldrge	r0, [lr], #-0
    12fc:	f9000086 			; <UNDEFINED> instruction: 0xf9000086
    1300:	fc00000d 	stc2	0, cr0, [r0], {13}
    1304:	1f000002 	svcne	0x00000002
    1308:	3c015301 	stccc	3, cr5, [r1], {1}
    130c:	0552011f 	ldrbeq	r0, [r2, #-287]	; 0x11f
    1310:	009ee803 	addseq	lr, lr, r3, lsl #16
    1314:	51011f00 	tstpl	r1, r0, lsl #30
    1318:	9c540305 	mrrcls	3, 0, r0, r4, cr5
    131c:	011f0000 	tsteq	pc, r0
    1320:	34030550 	strcc	r0, [r3], #-1360	; 0x550
    1324:	1f00009c 	svcne	0x0000009c
    1328:	02007d02 	andeq	r7, r0, #2, 26	; 0x80
    132c:	20000075 	andcs	r0, r0, r5, ror r0
    1330:	000086b8 			; <UNDEFINED> instruction: 0x000086b8
    1334:	00000e0f 	andeq	r0, r0, pc, lsl #28
    1338:	0086cc1e 	addeq	ip, r6, lr, lsl ip
    133c:	000df900 	andeq	pc, sp, r0, lsl #18
    1340:	00033300 	andeq	r3, r3, r0, lsl #6
    1344:	53011f00 	movwpl	r1, #7936	; 0x1f00
    1348:	011f3e01 	tsteq	pc, r1, lsl #28
    134c:	e8030552 	stmda	r3, {r1, r4, r6, r8, sl}
    1350:	1f00009e 	svcne	0x0000009e
    1354:	03055101 	movweq	r5, #20737	; 0x5101
    1358:	00009c54 	andeq	r9, r0, r4, asr ip
    135c:	0550011f 	ldrbeq	r0, [r0, #-287]	; 0x11f
    1360:	009b4003 	addseq	r4, fp, r3
    1364:	d0200000 	eorle	r0, r0, r0
    1368:	16000086 	strne	r0, [r0], -r6, lsl #1
    136c:	1e00000e 	cdpne	0, 0, cr0, cr0, cr14, {0}
    1370:	000086f8 	strdeq	r8, [r0], -r8	; <UNPREDICTABLE>
    1374:	00000df9 	strdeq	r0, [r0], -r9
    1378:	00000359 	andeq	r0, r0, r9, asr r3
    137c:	0251011f 	subseq	r0, r1, #-1073741817	; 0xc0000007
    1380:	011f0075 	tsteq	pc, r5, ror r0	; <UNPREDICTABLE>
    1384:	68030550 	stmdavs	r3, {r4, r6, r8, sl}
    1388:	0000009c 	muleq	r0, ip, r0
    138c:	00870421 	addeq	r0, r7, r1, lsr #8
    1390:	00036900 	andeq	r6, r3, r0, lsl #18
    1394:	50011f00 	andpl	r1, r1, r0, lsl #30
    1398:	00007402 	andeq	r7, r0, r2, lsl #8
    139c:	0087141e 	addeq	r1, r7, lr, lsl r4
    13a0:	000e1d00 	andeq	r1, lr, r0, lsl #26
    13a4:	00037d00 	andeq	r7, r3, r0, lsl #26
    13a8:	50011f00 	andpl	r1, r1, r0, lsl #30
    13ac:	00007502 	andeq	r7, r0, r2, lsl #10
    13b0:	0087341e 	addeq	r3, r7, lr, lsl r4
    13b4:	000df900 	andeq	pc, sp, r0, lsl #18
    13b8:	00039400 	andeq	r9, r3, r0, lsl #8
    13bc:	50011f00 	andpl	r1, r1, r0, lsl #30
    13c0:	9c880305 	stcls	3, cr0, [r8], {5}
    13c4:	20000000 	andcs	r0, r0, r0
    13c8:	00008758 	andeq	r8, r0, r8, asr r7
    13cc:	00000e0f 	andeq	r0, r0, pc, lsl #28
    13d0:	0087741e 	addeq	r7, r7, lr, lsl r4
    13d4:	000df900 	andeq	pc, sp, r0, lsl #18
    13d8:	0003d600 	andeq	sp, r3, r0, lsl #12
    13dc:	53011f00 	movwpl	r1, #7936	; 0x1f00
    13e0:	1f230802 	svcne	0x00230802
    13e4:	03055201 	movweq	r5, #20993	; 0x5201
    13e8:	00009ee8 	andeq	r9, r0, r8, ror #29
    13ec:	0551011f 	ldrbeq	r0, [r1, #-287]	; 0x11f
    13f0:	009c5403 	addseq	r5, ip, r3, lsl #8
    13f4:	50011f00 	andpl	r1, r1, r0, lsl #30
    13f8:	99900305 	ldmibls	r0, {r0, r2, r8, r9}
    13fc:	021f0000 	andseq	r0, pc, #0
    1400:	0305007d 	movweq	r0, #20605	; 0x507d
    1404:	00009cb0 			; <UNDEFINED> instruction: 0x00009cb0
    1408:	87782000 	ldrbhi	r2, [r8, -r0]!
    140c:	0e160000 	cdpeq	0, 1, cr0, cr6, cr0, {0}
    1410:	ac1e0000 	ldcge	0, cr0, [lr], {-0}
    1414:	f9000087 			; <UNDEFINED> instruction: 0xf9000087
    1418:	1500000d 	strne	r0, [r0, #-13]
    141c:	1f000004 	svcne	0x00000004
    1420:	08025301 	stmdaeq	r2, {r0, r8, r9, ip, lr}
    1424:	52011f26 	andpl	r1, r1, #38, 30	; 0x98
    1428:	9ee80305 	cdpls	3, 14, cr0, cr8, cr5, {0}
    142c:	011f0000 	tsteq	pc, r0
    1430:	54030551 	strpl	r0, [r3], #-1361	; 0x551
    1434:	1f00009c 	svcne	0x0000009c
    1438:	03055001 	movweq	r5, #20481	; 0x5001
    143c:	00009cd4 	ldrdeq	r9, [r0], -r4
    1440:	007d021f 	rsbseq	r0, sp, pc, lsl r2
    1444:	00007502 	andeq	r7, r0, r2, lsl #10
    1448:	0087b81e 	addeq	fp, r7, lr, lsl r8
    144c:	000e2e00 	andeq	r2, lr, r0, lsl #28
    1450:	00043200 	andeq	r3, r4, r0, lsl #4
    1454:	51011f00 	tstpl	r1, r0, lsl #30
    1458:	86700305 	ldrbthi	r0, [r0], -r5, lsl #6
    145c:	011f0000 	tsteq	pc, r0
    1460:	00750250 	rsbseq	r0, r5, r0, asr r2
    1464:	87e02200 	strbhi	r2, [r0, r0, lsl #4]!
    1468:	0df90000 	ldcleq	0, cr0, [r9]
    146c:	011f0000 	tsteq	pc, r0
    1470:	28080253 	stmdacs	r8, {r0, r1, r4, r6, r9}
    1474:	0552011f 	ldrbeq	r0, [r2, #-287]	; 0x11f
    1478:	009ee803 	addseq	lr, lr, r3, lsl #16
    147c:	51011f00 	tstpl	r1, r0, lsl #30
    1480:	9c540305 	mrrcls	3, 0, r0, r4, cr5
    1484:	011f0000 	tsteq	pc, r0
    1488:	fc030550 	stc2	5, cr0, [r3], {80}	; 0x50
    148c:	1f00009c 	svcne	0x0000009c
    1490:	02007d02 	andeq	r7, r0, #2, 26	; 0x80
    1494:	00000075 	andeq	r0, r0, r5, ror r0
    1498:	00007f23 	andeq	r7, r0, r3, lsr #30
    149c:	00047500 	andeq	r7, r4, r0, lsl #10
    14a0:	00762400 	rsbseq	r2, r6, r0, lsl #8
    14a4:	00130000 	andseq	r0, r3, r0
    14a8:	00046507 	andeq	r6, r4, r7, lsl #10
    14ac:	ab040600 	blge	102cb4 <__bss_end__+0xf874c>
    14b0:	10000001 	andne	r0, r0, r1
    14b4:	000004ad 	andeq	r0, r0, sp, lsr #9
    14b8:	005d1405 	subseq	r1, sp, r5, lsl #8
    14bc:	b4030000 	strlt	r0, [r3], #-0
    14c0:	12000004 	andne	r0, r0, #4
    14c4:	000004e3 	andeq	r0, r0, r3, ror #9
    14c8:	005d1405 	subseq	r1, sp, r5, lsl #8
    14cc:	01120000 	tsteq	r2, r0
    14d0:	05000005 	streq	r0, [r0, #-5]
    14d4:	00002c14 	andeq	r2, r0, r4, lsl ip
    14d8:	01102500 	tsteq	r0, r0, lsl #10
    14dc:	04c40000 	strbeq	r0, [r4], #0
    14e0:	04ad0000 	strteq	r0, [sp], #0
    14e4:	23000000 	movwcs	r0, #0
    14e8:	0000007f 	andeq	r0, r0, pc, ror r0
    14ec:	000004c4 	andeq	r0, r0, r4, asr #9
    14f0:	00007624 	andeq	r7, r0, r4, lsr #12
    14f4:	07000800 	streq	r0, [r0, -r0, lsl #16]
    14f8:	000004b4 			; <UNDEFINED> instruction: 0x000004b4
    14fc:	00048910 	andeq	r8, r4, r0, lsl r9
    1500:	5d250400 	cfstrspl	mvf0, [r5, #-0]
    1504:	03000000 	movweq	r0, #0
    1508:	00000518 	andeq	r0, r0, r8, lsl r5
    150c:	04007826 	streq	r7, [r0], #-2086	; 0x826
    1510:	00005d25 	andeq	r5, r0, r5, lsr #26
    1514:	626c2600 	rsbvs	r2, ip, #0, 12
    1518:	2c250400 	cfstrscs	mvf0, [r5], #-0
    151c:	26000000 	strcs	r0, [r0], -r0
    1520:	04006275 	streq	r6, [r0], #-629	; 0x275
    1524:	00002c25 	andeq	r2, r0, r5, lsr #24
    1528:	01102500 	tsteq	r0, r0, lsl #10
    152c:	05180000 	ldreq	r0, [r8, #-0]
    1530:	04890000 	streq	r0, [r9], #0
    1534:	6e110000 	cdpvs	0, 1, cr0, cr1, cr0, {0}
    1538:	2c280400 	cfstrscs	mvf0, [r8], #-0
    153c:	13000000 	movwne	r0, #0
    1540:	00000484 	andeq	r0, r0, r4, lsl #9
    1544:	002c2a04 	eoreq	r2, ip, r4, lsl #20
    1548:	07000000 	streq	r0, [r0, -r0]
    154c:	000004b4 			; <UNDEFINED> instruction: 0x000004b4
    1550:	0004a410 	andeq	sl, r4, r0, lsl r4
    1554:	86180500 	ldrhi	r0, [r8], -r0, lsl #10
    1558:	03000000 	movweq	r0, #0
    155c:	00000546 	andeq	r0, r0, r6, asr #10
    1560:	0004e312 	andeq	lr, r4, r2, lsl r3
    1564:	5d180500 	cfldr32pl	mvfx0, [r8, #-0]
    1568:	25000000 	strcs	r0, [r0, #-0]
    156c:	00000110 	andeq	r0, r0, r0, lsl r1
    1570:	00000546 	andeq	r0, r0, r6, asr #10
    1574:	000004a4 	andeq	r0, r0, r4, lsr #9
    1578:	04b40700 	ldrteq	r0, [r4], #1792	; 0x700
    157c:	f3100000 	vhadd.u16	d0, d0, d0
    1580:	05000004 	streq	r0, [r0, #-4]
    1584:	00005d0f 	andeq	r5, r0, pc, lsl #26
    1588:	057f0300 	ldrbeq	r0, [pc, #-768]!	; 1290 <__code_start__-0x6d70>
    158c:	e3120000 	tst	r2, #0
    1590:	05000004 	streq	r0, [r0, #-4]
    1594:	00005d0f 	andeq	r5, r0, pc, lsl #26
    1598:	05011300 	streq	r1, [r1, #-768]	; 0x300
    159c:	10050000 	andne	r0, r5, r0
    15a0:	0000002c 	andeq	r0, r0, ip, lsr #32
    15a4:	00011025 	andeq	r1, r1, r5, lsr #32
    15a8:	00057f00 	andeq	r7, r5, r0, lsl #30
    15ac:	0004f300 	andeq	pc, r4, r0, lsl #6
    15b0:	b4070000 	strlt	r0, [r7], #-0
    15b4:	10000004 	andne	r0, r0, r4
    15b8:	000004d0 	ldrdeq	r0, [r0], -r0	; <UNPREDICTABLE>
    15bc:	005d1c04 	subseq	r1, sp, r4, lsl #24
    15c0:	c8030000 	stmdagt	r3, {}	; <UNPREDICTABLE>
    15c4:	26000005 	strcs	r0, [r0], -r5
    15c8:	1c040078 	stcne	0, cr0, [r4], {120}	; 0x78
    15cc:	0000005d 	andeq	r0, r0, sp, asr r0
    15d0:	00626c26 	rsbeq	r6, r2, r6, lsr #24
    15d4:	002c1c04 	eoreq	r1, ip, r4, lsl #24
    15d8:	75260000 	strvc	r0, [r6, #-0]!
    15dc:	1c040062 	stcne	0, cr0, [r4], {98}	; 0x62
    15e0:	0000002c 	andeq	r0, r0, ip, lsr #32
    15e4:	00011025 	andeq	r1, r1, r5, lsr #32
    15e8:	0005c800 	andeq	ip, r5, r0, lsl #16
    15ec:	0004d000 	andeq	sp, r4, r0
    15f0:	006e1100 	rsbeq	r1, lr, r0, lsl #2
    15f4:	002c1f04 	eoreq	r1, ip, r4, lsl #30
    15f8:	07000000 	streq	r0, [r0, -r0]
    15fc:	000004b4 			; <UNDEFINED> instruction: 0x000004b4
    1600:	00049227 	andeq	r9, r4, r7, lsr #4
    1604:	2c2b0100 	stfcss	f0, [fp], #-0
    1608:	1c000000 	stcne	0, cr0, [r0], {-0}
    160c:	e0000088 	and	r0, r0, r8, lsl #1
    1610:	01000004 	tsteq	r0, r4
    1614:	000ce09c 	muleq	ip, ip, r0
    1618:	00631600 	rsbeq	r1, r3, r0, lsl #12
    161c:	047a2b01 	ldrbteq	r2, [sl], #-2817	; 0xb01
    1620:	05220000 	streq	r0, [r2, #-0]!
    1624:	c7280000 	strgt	r0, [r8, -r0]!
    1628:	01000004 	tsteq	r0, r4
    162c:	00005d2c 	andeq	r5, r0, ip, lsr #26
    1630:	13580100 	cmpne	r8, #0, 2
    1634:	000004d9 	ldrdeq	r0, [r0], -r9
    1638:	005d2d01 	subseq	r2, sp, r1, lsl #26
    163c:	10170000 	andsne	r0, r7, r0
    1640:	f0000001 			; <UNDEFINED> instruction: 0xf0000001
    1644:	0500000c 	streq	r0, [r0, #-12]
    1648:	009ed403 	addseq	sp, lr, r3, lsl #8
    164c:	02081900 	andeq	r1, r8, #0, 18
    1650:	88280000 	stmdahi	r8!, {}	; <UNPREDICTABLE>
    1654:	00040000 	andeq	r0, r4, r0
    1658:	2c010000 	stccs	0, cr0, [r1], {-0}
    165c:	00000641 	andeq	r0, r0, r1, asr #12
    1660:	0088281a 	addeq	r2, r8, sl, lsl r8
    1664:	00000400 	andeq	r0, r0, r0, lsl #8
    1668:	02181d00 	andseq	r1, r8, #0, 26
    166c:	054e0000 	strbeq	r0, [lr, #-0]
    1670:	00000000 	andeq	r0, r0, r0
    1674:	00048019 	andeq	r8, r4, r9, lsl r0
    1678:	00882c00 	addeq	r2, r8, r0, lsl #24
    167c:	00000800 	andeq	r0, r0, r0, lsl #16
    1680:	bf2d0100 	svclt	0x002d0100
    1684:	29000006 	stmdbcs	r0, {r1, r2}
    1688:	0000049b 	muleq	r0, fp, r4
    168c:	04902a10 	ldreq	r2, [r0], #2576	; 0xa10
    1690:	054e0000 	strbeq	r0, [lr, #-0]
    1694:	2c1a0000 	ldccs	0, cr0, [sl], {-0}
    1698:	08000088 	stmdaeq	r0, {r3, r7}
    169c:	2b000000 	blcs	16a4 <__code_start__-0x695c>
    16a0:	000004a6 	andeq	r0, r0, r6, lsr #9
    16a4:	9efc0305 	cdpls	3, 15, cr0, cr12, cr5, {0}
    16a8:	c91c0000 	ldmdbgt	ip, {}	; <UNPREDICTABLE>
    16ac:	2c000004 	stccs	0, cr0, [r0], {4}
    16b0:	04000088 	streq	r0, [r0], #-136	; 0x88
    16b4:	05000000 	streq	r0, [r0, #-0]
    16b8:	04ec2916 	strbteq	r2, [ip], #2326	; 0x916
    16bc:	29040000 	stmdbcs	r4, {}	; <UNPREDICTABLE>
    16c0:	000004e2 	andeq	r0, r0, r2, ror #9
    16c4:	04d92a00 	ldrbeq	r2, [r9], #2560	; 0xa00
    16c8:	054e0000 	strbeq	r0, [lr, #-0]
    16cc:	2c1a0000 	ldccs	0, cr0, [sl], {-0}
    16d0:	04000088 	streq	r0, [r0], #-136	; 0x88
    16d4:	2c000000 	stccs	0, cr0, [r0], {-0}
    16d8:	00000503 	andeq	r0, r0, r3, lsl #10
    16dc:	050c2c05 	streq	r2, [ip, #-3077]	; 0xc05
    16e0:	2b1f0000 	blcs	7c16e8 <__bss_end__+0x7b7180>
    16e4:	000004f6 	strdeq	r0, [r0], -r6
    16e8:	9f080305 	svcls	0x00080305
    16ec:	00000000 	andeq	r0, r0, r0
    16f0:	1d190000 	ldcne	0, cr0, [r9, #-0]
    16f4:	30000005 	andcc	r0, r0, r5
    16f8:	10000089 	andne	r0, r0, r9, lsl #1
    16fc:	01000001 	tsteq	r0, r1
    1700:	00081753 	andeq	r1, r8, r3, asr r7
    1704:	052d2a00 	streq	r2, [sp, #-2560]!	; 0xa00
    1708:	05610000 	strbeq	r0, [r1, #-0]!
    170c:	301a0000 	andscc	r0, sl, r0
    1710:	10000089 	andne	r0, r0, r9, lsl #1
    1714:	2b000001 	blcs	1720 <__code_start__-0x68e0>
    1718:	00000538 	andeq	r0, r0, r8, lsr r5
    171c:	9f140305 	svcls	0x00140305
    1720:	4b190000 	blmi	641728 <__bss_end__+0x6371c0>
    1724:	30000005 	andcc	r0, r0, r5
    1728:	6c000089 	stcvs	0, cr0, [r0], {137}	; 0x89
    172c:	05000000 	streq	r0, [r0, #-0]
    1730:	0007cd19 	andeq	ip, r7, r9, lsl sp
    1734:	055b2a00 	ldrbeq	r2, [fp, #-2560]	; 0xa00
    1738:	05610000 	strbeq	r0, [r1, #-0]!
    173c:	301a0000 	andscc	r0, sl, r0
    1740:	6c000089 	stcvs	0, cr0, [r0], {137}	; 0x89
    1744:	1b000000 	blne	174c <__code_start__-0x68b4>
    1748:	00000566 	andeq	r0, r0, r6, ror #10
    174c:	0005712b 	andeq	r7, r5, fp, lsr #2
    1750:	20030500 	andcs	r0, r3, r0, lsl #10
    1754:	1900009f 	stmdbne	r0, {r0, r1, r2, r3, r4, r7}
    1758:	00000584 	andeq	r0, r0, r4, lsl #11
    175c:	00008930 	andeq	r8, r0, r0, lsr r9
    1760:	00000004 	andeq	r0, r0, r4
    1764:	07681005 	strbeq	r1, [r8, -r5]!
    1768:	a7290000 	strge	r0, [r9, -r0]!
    176c:	04000005 	streq	r0, [r0], #-5
    1770:	00059d29 	andeq	r9, r5, r9, lsr #26
    1774:	942a0000 	strtls	r0, [sl], #-0
    1778:	61000005 	tstvs	r0, r5
    177c:	1a000005 	bne	1798 <__code_start__-0x6868>
    1780:	00008930 	andeq	r8, r0, r0, lsr r9
    1784:	00000004 	andeq	r0, r0, r4
    1788:	0005be2c 	andeq	fp, r5, ip, lsr #28
    178c:	b12b0500 	teqlt	fp, r0, lsl #10
    1790:	05000005 	streq	r0, [r0, #-5]
    1794:	009f2c03 	addseq	r2, pc, r3, lsl #24
    1798:	19000000 	stmdbne	r0, {}	; <UNPREDICTABLE>
    179c:	000001ec 	andeq	r0, r0, ip, ror #3
    17a0:	00008934 	andeq	r8, r0, r4, lsr r9
    17a4:	0000003c 	andeq	r0, r0, ip, lsr r0
    17a8:	07811105 	streq	r1, [r1, r5, lsl #2]
    17ac:	fc2d0000 	stc2	0, cr0, [sp], #-0
    17b0:	00000001 	andeq	r0, r0, r1
    17b4:	00897c20 	addeq	r7, r9, r0, lsr #24
    17b8:	000e0f00 	andeq	r0, lr, r0, lsl #30
    17bc:	89981e00 	ldmibhi	r8, {r9, sl, fp, ip}
    17c0:	0df90000 	ldcleq	0, cr0, [r9]
    17c4:	07c20000 	strbeq	r0, [r2, r0]
    17c8:	011f0000 	tsteq	pc, r0
    17cc:	1f410153 	svcne	0x00410153
    17d0:	03055201 	movweq	r5, #20993	; 0x5201
    17d4:	00009f20 	andeq	r9, r0, r0, lsr #30
    17d8:	0551011f 	ldrbeq	r0, [r1, #-287]	; 0x11f
    17dc:	009e3003 	addseq	r3, lr, r3
    17e0:	50011f00 	andpl	r1, r1, r0, lsl #30
    17e4:	99900305 	ldmibls	r0, {r0, r2, r8, r9}
    17e8:	021f0000 	andseq	r0, pc, #0
    17ec:	0305007d 	movweq	r0, #20605	; 0x507d
    17f0:	00009e3c 	andeq	r9, r0, ip, lsr lr
    17f4:	899c2000 	ldmibhi	ip, {sp}
    17f8:	0e160000 	cdpeq	0, 1, cr0, cr6, cr0, {0}
    17fc:	00000000 	andeq	r0, r0, r0
    1800:	008a1820 	addeq	r1, sl, r0, lsr #16
    1804:	000e0f00 	andeq	r0, lr, r0, lsl #30
    1808:	8a301e00 	bhi	c09010 <__bss_end__+0xbfeaa8>
    180c:	0df90000 	ldcleq	0, cr0, [r9]
    1810:	080c0000 	stmdaeq	ip, {}	; <UNPREDICTABLE>
    1814:	011f0000 	tsteq	pc, r0
    1818:	21080253 	tstcs	r8, r3, asr r2
    181c:	0552011f 	ldrbeq	r0, [r2, #-287]	; 0x11f
    1820:	009f1403 	addseq	r1, pc, r3, lsl #8
    1824:	51011f00 	tstpl	r1, r0, lsl #30
    1828:	9e300305 	cdpls	3, 3, cr0, cr0, cr5, {0}
    182c:	011f0000 	tsteq	pc, r0
    1830:	50030550 	andpl	r0, r3, r0, asr r5
    1834:	1f00009e 	svcne	0x0000009e
    1838:	02007d02 	andeq	r7, r0, #2, 26	; 0x80
    183c:	20000078 	andcs	r0, r0, r8, ror r0
    1840:	00008a34 	andeq	r8, r0, r4, lsr sl
    1844:	00000e16 	andeq	r0, r0, r6, lsl lr
    1848:	08190000 	ldmdaeq	r9, {}	; <UNPREDICTABLE>
    184c:	4c000002 	stcmi	0, cr0, [r0], {2}
    1850:	0400008a 	streq	r0, [r0], #-138	; 0x8a
    1854:	01000000 	mrseq	r0, (UNDEF: 0)
    1858:	00083e54 	andeq	r3, r8, r4, asr lr
    185c:	8a4c1a00 	bhi	1308064 <__bss_end__+0x12fdafc>
    1860:	00040000 	andeq	r0, r4, r0
    1864:	181d0000 	ldmdane	sp, {}	; <UNPREDICTABLE>
    1868:	74000002 	strvc	r0, [r0], #-2
    186c:	00000005 	andeq	r0, r0, r5
    1870:	051d1900 	ldreq	r1, [sp, #-2304]	; 0x900
    1874:	8a500000 	bhi	140187c <__bss_end__+0x13f7314>
    1878:	01100000 	tsteq	r0, r0
    187c:	54010000 	strpl	r0, [r1], #-0
    1880:	00000996 	muleq	r0, r6, r9
    1884:	00052d2a 	andeq	r2, r5, sl, lsr #26
    1888:	00057400 	andeq	r7, r5, r0, lsl #8
    188c:	8a501a00 	bhi	1408094 <__bss_end__+0x13fdb2c>
    1890:	01100000 	tsteq	r0, r0
    1894:	382b0000 	stmdacc	fp!, {}	; <UNPREDICTABLE>
    1898:	05000005 	streq	r0, [r0, #-5]
    189c:	009f1403 	addseq	r1, pc, r3, lsl #8
    18a0:	054b1900 	strbeq	r1, [fp, #-2304]	; 0x900
    18a4:	8a500000 	bhi	14018ac <__bss_end__+0x13f7344>
    18a8:	006c0000 	rsbeq	r0, ip, r0
    18ac:	19050000 	stmdbne	r5, {}	; <UNPREDICTABLE>
    18b0:	0000094c 	andeq	r0, r0, ip, asr #18
    18b4:	00055b2a 	andeq	r5, r5, sl, lsr #22
    18b8:	00057400 	andeq	r7, r5, r0, lsl #8
    18bc:	8a501a00 	bhi	14080c4 <__bss_end__+0x13fdb5c>
    18c0:	006c0000 	rsbeq	r0, ip, r0
    18c4:	661b0000 	ldrvs	r0, [fp], -r0
    18c8:	2b000005 	blcs	18e4 <__code_start__-0x671c>
    18cc:	00000571 	andeq	r0, r0, r1, ror r5
    18d0:	9f200305 	svcls	0x00200305
    18d4:	84190000 	ldrhi	r0, [r9], #-0
    18d8:	50000005 	andpl	r0, r0, r5
    18dc:	0400008a 	streq	r0, [r0], #-138	; 0x8a
    18e0:	05000000 	streq	r0, [r0, #-0]
    18e4:	0008e710 	andeq	lr, r8, r0, lsl r7
    18e8:	05a72900 	streq	r2, [r7, #2304]!	; 0x900
    18ec:	29040000 	stmdbcs	r4, {}	; <UNPREDICTABLE>
    18f0:	0000059d 	muleq	r0, sp, r5
    18f4:	05942a00 	ldreq	r2, [r4, #2560]	; 0xa00
    18f8:	05740000 	ldrbeq	r0, [r4, #-0]!
    18fc:	501a0000 	andspl	r0, sl, r0
    1900:	0400008a 	streq	r0, [r0], #-138	; 0x8a
    1904:	2c000000 	stccs	0, cr0, [r0], {-0}
    1908:	000005be 			; <UNDEFINED> instruction: 0x000005be
    190c:	05b12b05 	ldreq	r2, [r1, #2821]!	; 0xb05
    1910:	03050000 	movweq	r0, #20480	; 0x5000
    1914:	00009f2c 	andeq	r9, r0, ip, lsr #30
    1918:	ec190000 	ldc	0, cr0, [r9], {-0}
    191c:	54000001 	strpl	r0, [r0], #-1
    1920:	3c00008a 	stccc	0, cr0, [r0], {138}	; 0x8a
    1924:	05000000 	streq	r0, [r0, #-0]
    1928:	00090011 	andeq	r0, r9, r1, lsl r0
    192c:	01fc2d00 	mvnseq	r2, r0, lsl #26
    1930:	20000000 	andcs	r0, r0, r0
    1934:	00008a9c 	muleq	r0, ip, sl
    1938:	00000e0f 	andeq	r0, r0, pc, lsl #28
    193c:	008ab81e 	addeq	fp, sl, lr, lsl r8
    1940:	000df900 	andeq	pc, sp, r0, lsl #18
    1944:	00094100 	andeq	r4, r9, r0, lsl #2
    1948:	53011f00 	movwpl	r1, #7936	; 0x1f00
    194c:	011f4101 	tsteq	pc, r1, lsl #2
    1950:	20030552 	andcs	r0, r3, r2, asr r5
    1954:	1f00009f 	svcne	0x0000009f
    1958:	03055101 	movweq	r5, #20737	; 0x5101
    195c:	00009e30 	andeq	r9, r0, r0, lsr lr
    1960:	0550011f 	ldrbeq	r0, [r0, #-287]	; 0x11f
    1964:	00999003 	addseq	r9, r9, r3
    1968:	7d021f00 	stcvc	15, cr1, [r2, #-0]
    196c:	3c030500 	cfstr32cc	mvfx0, [r3], {-0}
    1970:	0000009e 	muleq	r0, lr, r0
    1974:	008abc20 	addeq	fp, sl, r0, lsr #24
    1978:	000e1600 	andeq	r1, lr, r0, lsl #12
    197c:	20000000 	andcs	r0, r0, r0
    1980:	00008b38 	andeq	r8, r0, r8, lsr fp
    1984:	00000e0f 	andeq	r0, r0, pc, lsl #28
    1988:	008b501e 	addeq	r5, fp, lr, lsl r0
    198c:	000df900 	andeq	pc, sp, r0, lsl #18
    1990:	00098b00 	andeq	r8, r9, r0, lsl #22
    1994:	53011f00 	movwpl	r1, #7936	; 0x1f00
    1998:	1f210802 	svcne	0x00210802
    199c:	03055201 	movweq	r5, #20993	; 0x5201
    19a0:	00009f14 	andeq	r9, r0, r4, lsl pc
    19a4:	0551011f 	ldrbeq	r0, [r1, #-287]	; 0x11f
    19a8:	009e3003 	addseq	r3, lr, r3
    19ac:	50011f00 	andpl	r1, r1, r0, lsl #30
    19b0:	9e500305 	cdpls	3, 5, cr0, cr0, cr5, {0}
    19b4:	021f0000 	andseq	r0, pc, #0
    19b8:	7502007d 	strvc	r0, [r2, #-125]	; 0x7d
    19bc:	54200000 	strtpl	r0, [r0], #-0
    19c0:	1600008b 	strne	r0, [r0], -fp, lsl #1
    19c4:	0000000e 	andeq	r0, r0, lr
    19c8:	02081900 	andeq	r1, r8, #0, 18
    19cc:	8b600000 	blhi	18019d4 <__bss_end__+0x17f746c>
    19d0:	00040000 	andeq	r0, r4, r0
    19d4:	54010000 	strpl	r0, [r1], #-0
    19d8:	000009b9 			; <UNDEFINED> instruction: 0x000009b9
    19dc:	008b601a 	addeq	r6, fp, sl, lsl r0
    19e0:	00000400 	andeq	r0, r0, r0, lsl #8
    19e4:	02181b00 	andseq	r1, r8, #0, 22
    19e8:	00000000 	andeq	r0, r0, r0
    19ec:	00054b19 	andeq	r4, r5, r9, lsl fp
    19f0:	008b7400 	addeq	r7, fp, r0, lsl #8
    19f4:	00006c00 	andeq	r6, r0, r0, lsl #24
    19f8:	97580100 	ldrbls	r0, [r8, -r0, lsl #2]
    19fc:	2a00000a 	bcs	1a2c <__code_start__-0x65d4>
    1a00:	0000055b 	andeq	r0, r0, fp, asr r5
    1a04:	00000587 	andeq	r0, r0, r7, lsl #11
    1a08:	008b741a 	addeq	r7, fp, sl, lsl r4
    1a0c:	00006c00 	andeq	r6, r0, r0, lsl #24
    1a10:	05661b00 	strbeq	r1, [r6, #-2816]!	; 0xb00
    1a14:	712b0000 	teqvc	fp, r0
    1a18:	05000005 	streq	r0, [r0, #-5]
    1a1c:	009f2003 	addseq	r2, pc, r3
    1a20:	05841900 	streq	r1, [r4, #2304]	; 0x900
    1a24:	8b740000 	blhi	1d01a2c <__bss_end__+0x1cf74c4>
    1a28:	00040000 	andeq	r0, r4, r0
    1a2c:	10050000 	andne	r0, r5, r0
    1a30:	00000a32 	andeq	r0, r0, r2, lsr sl
    1a34:	0005a729 	andeq	sl, r5, r9, lsr #14
    1a38:	9d290400 	cfstrsls	mvf0, [r9, #-0]
    1a3c:	00000005 	andeq	r0, r0, r5
    1a40:	0005942a 	andeq	r9, r5, sl, lsr #8
    1a44:	00058700 	andeq	r8, r5, r0, lsl #14
    1a48:	8b741a00 	blhi	1d08250 <__bss_end__+0x1cfdce8>
    1a4c:	00040000 	andeq	r0, r4, r0
    1a50:	be2c0000 	cdplt	0, 2, cr0, cr12, cr0, {0}
    1a54:	05000005 	streq	r0, [r0, #-5]
    1a58:	0005b12b 	andeq	fp, r5, fp, lsr #2
    1a5c:	2c030500 	cfstr32cs	mvfx0, [r3], {-0}
    1a60:	0000009f 	muleq	r0, pc, r0	; <UNPREDICTABLE>
    1a64:	01ec1900 	mvneq	r1, r0, lsl #18
    1a68:	8b780000 	blhi	1e01a70 <__bss_end__+0x1df7508>
    1a6c:	003c0000 	eorseq	r0, ip, r0
    1a70:	11050000 	mrsne	r0, (UNDEF: 5)
    1a74:	00000a4b 	andeq	r0, r0, fp, asr #20
    1a78:	0001fc2d 	andeq	pc, r1, sp, lsr #24
    1a7c:	c0200000 	eorgt	r0, r0, r0
    1a80:	0f00008b 	svceq	0x0000008b
    1a84:	1e00000e 	cdpne	0, 0, cr0, cr0, cr14, {0}
    1a88:	00008bdc 	ldrdeq	r8, [r0], -ip
    1a8c:	00000df9 	strdeq	r0, [r0], -r9
    1a90:	00000a8c 	andeq	r0, r0, ip, lsl #21
    1a94:	0153011f 	cmpeq	r3, pc, lsl r1
    1a98:	52011f41 	andpl	r1, r1, #260	; 0x104
    1a9c:	9f200305 	svcls	0x00200305
    1aa0:	011f0000 	tsteq	pc, r0
    1aa4:	30030551 	andcc	r0, r3, r1, asr r5
    1aa8:	1f00009e 	svcne	0x0000009e
    1aac:	03055001 	movweq	r5, #20481	; 0x5001
    1ab0:	00009990 	muleq	r0, r0, r9
    1ab4:	007d021f 	rsbseq	r0, sp, pc, lsl r2
    1ab8:	9e3c0305 	cdpls	3, 3, cr0, cr12, cr5, {0}
    1abc:	20000000 	andcs	r0, r0, r0
    1ac0:	00008be0 	andeq	r8, r0, r0, ror #23
    1ac4:	00000e16 	andeq	r0, r0, r6, lsl lr
    1ac8:	08190000 	ldmdaeq	r9, {}	; <UNPREDICTABLE>
    1acc:	e0000002 	and	r0, r0, r2
    1ad0:	0400008b 	streq	r0, [r0], #-139	; 0x8b
    1ad4:	01000000 	mrseq	r0, (UNDEF: 0)
    1ad8:	000abe58 	andeq	fp, sl, r8, asr lr
    1adc:	8be01a00 	blhi	ff8082e4 <__bss_end__+0xff7fdd7c>
    1ae0:	00040000 	andeq	r0, r4, r0
    1ae4:	181d0000 	ldmdane	sp, {}	; <UNPREDICTABLE>
    1ae8:	9a000002 	bls	1af8 <__code_start__-0x6508>
    1aec:	00000005 	andeq	r0, r0, r5
    1af0:	054b1900 	strbeq	r1, [fp, #-2304]	; 0x900
    1af4:	8be40000 	blhi	ff901afc <__bss_end__+0xff8f7594>
    1af8:	006c0000 	rsbeq	r0, ip, r0
    1afc:	58010000 	stmdapl	r1, {}	; <UNPREDICTABLE>
    1b00:	00000b9c 	muleq	r0, ip, fp
    1b04:	00055b2a 	andeq	r5, r5, sl, lsr #22
    1b08:	00059a00 	andeq	r9, r5, r0, lsl #20
    1b0c:	8be41a00 	blhi	ff908314 <__bss_end__+0xff8fddac>
    1b10:	006c0000 	rsbeq	r0, ip, r0
    1b14:	661b0000 	ldrvs	r0, [fp], -r0
    1b18:	2b000005 	blcs	1b34 <__code_start__-0x64cc>
    1b1c:	00000571 	andeq	r0, r0, r1, ror r5
    1b20:	9f200305 	svcls	0x00200305
    1b24:	84190000 	ldrhi	r0, [r9], #-0
    1b28:	e4000005 	str	r0, [r0], #-5
    1b2c:	0400008b 	streq	r0, [r0], #-139	; 0x8b
    1b30:	05000000 	streq	r0, [r0, #-0]
    1b34:	000b3710 	andeq	r3, fp, r0, lsl r7
    1b38:	05a72900 	streq	r2, [r7, #2304]!	; 0x900
    1b3c:	29040000 	stmdbcs	r4, {}	; <UNPREDICTABLE>
    1b40:	0000059d 	muleq	r0, sp, r5
    1b44:	05942a00 	ldreq	r2, [r4, #2560]	; 0xa00
    1b48:	059a0000 	ldreq	r0, [sl]
    1b4c:	e41a0000 	ldr	r0, [sl], #-0
    1b50:	0400008b 	streq	r0, [r0], #-139	; 0x8b
    1b54:	2c000000 	stccs	0, cr0, [r0], {-0}
    1b58:	000005be 			; <UNDEFINED> instruction: 0x000005be
    1b5c:	05b12b05 	ldreq	r2, [r1, #2821]!	; 0xb05
    1b60:	03050000 	movweq	r0, #20480	; 0x5000
    1b64:	00009f2c 	andeq	r9, r0, ip, lsr #30
    1b68:	ec190000 	ldc	0, cr0, [r9], {-0}
    1b6c:	e8000001 	stmda	r0, {r0}
    1b70:	3c00008b 	stccc	0, cr0, [r0], {139}	; 0x8b
    1b74:	05000000 	streq	r0, [r0, #-0]
    1b78:	000b5011 	andeq	r5, fp, r1, lsl r0
    1b7c:	01fc2d00 	mvnseq	r2, r0, lsl #26
    1b80:	20000000 	andcs	r0, r0, r0
    1b84:	00008c30 	andeq	r8, r0, r0, lsr ip
    1b88:	00000e0f 	andeq	r0, r0, pc, lsl #28
    1b8c:	008c4c1e 	addeq	r4, ip, lr, lsl ip
    1b90:	000df900 	andeq	pc, sp, r0, lsl #18
    1b94:	000b9100 	andeq	r9, fp, r0, lsl #2
    1b98:	53011f00 	movwpl	r1, #7936	; 0x1f00
    1b9c:	011f4101 	tsteq	pc, r1, lsl #2
    1ba0:	20030552 	andcs	r0, r3, r2, asr r5
    1ba4:	1f00009f 	svcne	0x0000009f
    1ba8:	03055101 	movweq	r5, #20737	; 0x5101
    1bac:	00009e30 	andeq	r9, r0, r0, lsr lr
    1bb0:	0550011f 	ldrbeq	r0, [r0, #-287]	; 0x11f
    1bb4:	00999003 	addseq	r9, r9, r3
    1bb8:	7d021f00 	stcvc	15, cr1, [r2, #-0]
    1bbc:	3c030500 	cfstr32cc	mvfx0, [r3], {-0}
    1bc0:	0000009e 	muleq	r0, lr, r0
    1bc4:	008c5020 	addeq	r5, ip, r0, lsr #32
    1bc8:	000e1600 	andeq	r1, lr, r0, lsl #12
    1bcc:	21000000 	mrscs	r0, (UNDEF: 0)
    1bd0:	00008864 	andeq	r8, r0, r4, ror #16
    1bd4:	00000bac 	andeq	r0, r0, ip, lsr #23
    1bd8:	0250011f 	subseq	r0, r0, #-1073741817	; 0xc0000007
    1bdc:	1e000074 	mcrne	0, 0, r0, cr0, cr4, {3}
    1be0:	0000888c 	andeq	r8, r0, ip, lsl #17
    1be4:	00000df9 	strdeq	r0, [r0], -r9
    1be8:	00000bd2 	ldrdeq	r0, [r0], -r2
    1bec:	0253011f 	subseq	r0, r3, #-1073741817	; 0xc0000007
    1bf0:	011f3408 	tsteq	pc, r8, lsl #8
    1bf4:	00790252 	rsbseq	r0, r9, r2, asr r2
    1bf8:	0251011f 	subseq	r0, r1, #-1073741817	; 0xc0000007
    1bfc:	011f007a 	tsteq	pc, sl, ror r0	; <UNPREDICTABLE>
    1c00:	007b0250 	rsbseq	r0, fp, r0, asr r2
    1c04:	88981e00 	ldmhi	r8, {r9, sl, fp, ip}
    1c08:	0e2e0000 	cdpeq	0, 2, cr0, cr14, cr0, {0}
    1c0c:	0beb0000 	bleq	ffac1c14 <__bss_end__+0xffab76ac>
    1c10:	011f0000 	tsteq	pc, r0
    1c14:	00750251 	rsbseq	r0, r5, r1, asr r2
    1c18:	0150011f 	cmpeq	r0, pc, lsl r1
    1c1c:	c01e0030 	andsgt	r0, lr, r0, lsr r0
    1c20:	44000088 	strmi	r0, [r0], #-136	; 0x88
    1c24:	0500000e 	streq	r0, [r0, #-14]
    1c28:	1f00000c 	svcne	0x0000000c
    1c2c:	74025201 	strvc	r5, [r2], #-513	; 0x201
    1c30:	50011f00 	andpl	r1, r1, r0, lsl #30
    1c34:	00007702 	andeq	r7, r0, r2, lsl #14
    1c38:	0088d821 	addeq	sp, r8, r1, lsr #16
    1c3c:	000c1500 	andeq	r1, ip, r0, lsl #10
    1c40:	50011f00 	andpl	r1, r1, r0, lsl #30
    1c44:	00007402 	andeq	r7, r0, r2, lsl #8
    1c48:	0088e421 	addeq	lr, r8, r1, lsr #8
    1c4c:	000c2500 	andeq	r2, ip, r0, lsl #10
    1c50:	50011f00 	andpl	r1, r1, r0, lsl #30
    1c54:	00007402 	andeq	r7, r0, r2, lsl #8
    1c58:	0088fc1e 	addeq	pc, r8, lr, lsl ip	; <UNPREDICTABLE>
    1c5c:	000df900 	andeq	pc, sp, r0, lsl #18
    1c60:	000c3c00 	andeq	r3, ip, r0, lsl #24
    1c64:	50011f00 	andpl	r1, r1, r0, lsl #30
    1c68:	9db40305 	ldcls	3, cr0, [r4, #20]!
    1c6c:	1e000000 	cdpne	0, 0, cr0, cr0, cr0, {0}
    1c70:	00008930 	andeq	r8, r0, r0, lsr r9
    1c74:	00000df9 	strdeq	r0, [r0], -r9
    1c78:	00000c53 	andeq	r0, r0, r3, asr ip
    1c7c:	0550011f 	ldrbeq	r0, [r0, #-287]	; 0x11f
    1c80:	009dfc03 	addseq	pc, sp, r3, lsl #24
    1c84:	4c1e0000 	ldcmi	0, cr0, [lr], {-0}
    1c88:	f900008a 			; <UNDEFINED> instruction: 0xf900008a
    1c8c:	7000000d 	andvc	r0, r0, sp
    1c90:	1f00000c 	svcne	0x0000000c
    1c94:	78025201 	stmdavc	r2, {r0, r9, ip, lr}
    1c98:	50011f00 	andpl	r1, r1, r0, lsl #30
    1c9c:	9e740305 	cdpls	3, 7, cr0, cr4, cr5, {0}
    1ca0:	1e000000 	cdpne	0, 0, cr0, cr0, cr0, {0}
    1ca4:	00008b6c 	andeq	r8, r0, ip, ror #22
    1ca8:	00000df9 	strdeq	r0, [r0], -r9
    1cac:	00000c87 	andeq	r0, r0, r7, lsl #25
    1cb0:	0550011f 	ldrbeq	r0, [r0, #-287]	; 0x11f
    1cb4:	009e9003 	addseq	r9, lr, r3
    1cb8:	741e0000 	ldrvc	r0, [lr], #-0
    1cbc:	1d00008b 	stcne	0, cr0, [r0, #-556]	; 0xfffffdd4
    1cc0:	9a00000e 	bls	1d00 <__code_start__-0x6300>
    1cc4:	1f00000c 	svcne	0x0000000c
    1cc8:	30015001 	andcc	r5, r1, r1
    1ccc:	8c5c2000 	mrahi	r2, ip, acc0
    1cd0:	0e0f0000 	cdpeq	0, 0, cr0, cr15, cr0, {0}
    1cd4:	781e0000 	ldmdavc	lr, {}	; <UNPREDICTABLE>
    1cd8:	f900008c 			; <UNDEFINED> instruction: 0xf900008c
    1cdc:	d600000d 	strle	r0, [r0], -sp
    1ce0:	1f00000c 	svcne	0x0000000c
    1ce4:	08025301 	stmdaeq	r2, {r0, r8, r9, ip, lr}
    1ce8:	52011f58 	andpl	r1, r1, #88, 30	; 0x160
    1cec:	1f007902 	svcne	0x00007902
    1cf0:	7a025101 	bvc	960fc <__bss_end__+0x8bb94>
    1cf4:	50011f00 	andpl	r1, r1, r0, lsl #30
    1cf8:	99900305 	ldmibls	r0, {r0, r2, r8, r9}
    1cfc:	021f0000 	andseq	r0, pc, #0
    1d00:	0305007d 	movweq	r0, #20605	; 0x507d
    1d04:	00009ea8 	andeq	r9, r0, r8, lsr #29
    1d08:	8c7c2000 	ldclhi	0, cr2, [ip], #-0
    1d0c:	0e160000 	cdpeq	0, 1, cr0, cr6, cr0, {0}
    1d10:	23000000 	movwcs	r0, #0
    1d14:	0000007f 	andeq	r0, r0, pc, ror r0
    1d18:	00000cf0 	strdeq	r0, [r0], -r0	; <UNPREDICTABLE>
    1d1c:	00007624 	andeq	r7, r0, r4, lsr #12
    1d20:	07001100 	streq	r1, [r0, -r0, lsl #2]
    1d24:	00000ce0 	andeq	r0, r0, r0, ror #25
    1d28:	0004b627 	andeq	fp, r4, r7, lsr #12
    1d2c:	2c640100 	stfcse	f0, [r4], #-0
    1d30:	fc000000 	stc2	0, cr0, [r0], {-0}
    1d34:	0800008c 	stmdaeq	r0, {r2, r3, r7}
    1d38:	01000000 	mrseq	r0, (UNDEF: 0)
    1d3c:	000d2e9c 	muleq	sp, ip, lr
    1d40:	00631600 	rsbeq	r1, r3, r0, lsl #12
    1d44:	047a6401 	ldrbteq	r6, [sl], #-1025	; 0x401
    1d48:	05ad0000 	streq	r0, [sp, #0]!
    1d4c:	69110000 	ldmdbvs	r1, {}	; <UNPREDICTABLE>
    1d50:	2c680100 	stfcse	f0, [r8], #-0
    1d54:	2e000000 	cdpcs	0, 0, cr0, cr0, cr0, {0}
    1d58:	00000110 	andeq	r0, r0, r0, lsl r1
    1d5c:	00000d3e 	andeq	r0, r0, lr, lsr sp
    1d60:	007f2300 	rsbseq	r2, pc, r0, lsl #6
    1d64:	0d3e0000 	ldceq	0, cr0, [lr, #-0]
    1d68:	76240000 	strtvc	r0, [r4], -r0
    1d6c:	10000000 	andne	r0, r0, r0
    1d70:	0d2e0700 	stceq	7, cr0, [lr, #-0]
    1d74:	39140000 	ldmdbcc	r4, {}	; <UNPREDICTABLE>
    1d78:	01000004 	tsteq	r0, r4
    1d7c:	008d047e 	addeq	r0, sp, lr, ror r4
    1d80:	00002800 	andeq	r2, r0, r0, lsl #16
    1d84:	649c0100 	ldrvs	r0, [ip], #256	; 0x100
    1d88:	2f00000d 	svccs	0x0000000d
    1d8c:	7e010063 	cdpvc	0, 0, cr0, cr1, cr3, {3}
    1d90:	0000047a 	andeq	r0, r0, sl, ror r4
    1d94:	30005001 	andcc	r5, r0, r1
    1d98:	00000028 	andeq	r0, r0, r8, lsr #32
    1d9c:	00258901 	eoreq	r8, r5, r1, lsl #18
    1da0:	8d2c0000 	stchi	0, cr0, [ip, #-0]
    1da4:	004c0000 	subeq	r0, ip, r0
    1da8:	9c010000 	stcls	0, cr0, [r1], {-0}
    1dac:	00000dcc 	andeq	r0, r0, ip, asr #27
    1db0:	01006316 	tsteq	r0, r6, lsl r3
    1db4:	00047a89 	andeq	r7, r4, r9, lsl #21
    1db8:	0005ce00 	andeq	ip, r5, r0, lsl #28
    1dbc:	8d382000 	ldchi	0, cr2, [r8, #-0]
    1dc0:	0e700000 	cdpeq	0, 7, cr0, cr0, cr0, {0}
    1dc4:	401e0000 	andsmi	r0, lr, r0
    1dc8:	4300008d 	movwmi	r0, #141	; 0x8d
    1dcc:	a700000d 	strge	r0, [r0, -sp]
    1dd0:	1f00000d 	svcne	0x0000000d
    1dd4:	74025001 	strvc	r5, [r2], #-1
    1dd8:	481e0000 	ldmdami	lr, {}	; <UNPREDICTABLE>
    1ddc:	f500008d 			; <UNDEFINED> instruction: 0xf500008d
    1de0:	bb00000c 	bllt	1e18 <__code_start__-0x61e8>
    1de4:	1f00000d 	svcne	0x0000000d
    1de8:	74025001 	strvc	r5, [r2], #-1
    1dec:	58220000 	stmdapl	r2!, {}	; <UNPREDICTABLE>
    1df0:	cd00008d 	stcgt	0, cr0, [r0, #-564]	; 0xfffffdcc
    1df4:	1f000005 	svcne	0x00000005
    1df8:	74025001 	strvc	r5, [r2], #-1
    1dfc:	28000000 	stmdacs	r0, {}	; <UNPREDICTABLE>
    1e00:	000001d1 	ldrdeq	r0, [r0], -r1
    1e04:	047a0601 	ldrbteq	r0, [sl], #-1537	; 0x601
    1e08:	03050000 	movweq	r0, #20480	; 0x5000
    1e0c:	0000a15c 	andeq	sl, r0, ip, asr r1
    1e10:	00047428 	andeq	r7, r4, r8, lsr #8
    1e14:	7d080100 	stfvcs	f0, [r8, #-0]
    1e18:	05000000 	streq	r0, [r0, #-0]
    1e1c:	00a16003 	adceq	r6, r1, r3
    1e20:	00f93100 	rscseq	r3, r9, r0, lsl #2
    1e24:	c2020000 	andgt	r0, r2, #0
    1e28:	00000025 	andeq	r0, r0, r5, lsr #32
    1e2c:	00057d32 	andeq	r7, r5, r2, lsr sp
    1e30:	25290800 	strcs	r0, [r9, #-2048]!	; 0x800
    1e34:	0f000000 	svceq	0x00000000
    1e38:	0900000e 	stmdbeq	r0, {r1, r2, r3}
    1e3c:	00000086 	andeq	r0, r0, r6, lsl #1
    1e40:	2a340033 	bcs	d01f14 <__bss_end__+0xcf79ac>
    1e44:	08000002 	stmdaeq	r0, {r1}
    1e48:	00ce341e 	sbceq	r3, lr, lr, lsl r4
    1e4c:	65080000 	strvs	r0, [r8, #-0]
    1e50:	00035335 	andeq	r5, r3, r5, lsr r3
    1e54:	2ee30200 	cdpcs	2, 14, cr0, cr3, cr0, {0}
    1e58:	0900000e 	stmdbeq	r0, {r1, r2, r3}
    1e5c:	0000005d 	andeq	r0, r0, sp, asr r0
    1e60:	03133500 	tsteq	r3, #0, 10
    1e64:	d9020000 	stmdble	r2, {}	; <UNPREDICTABLE>
    1e68:	00000e44 	andeq	r0, r0, r4, asr #28
    1e6c:	00005d09 	andeq	r5, r0, r9, lsl #26
    1e70:	00910900 	addseq	r0, r1, r0, lsl #18
    1e74:	35000000 	strcc	r0, [r0, #-0]
    1e78:	00000457 	andeq	r0, r0, r7, asr r4
    1e7c:	0e5ff302 	cdpeq	3, 5, cr15, cr15, cr2, {0}
    1e80:	5d090000 	stcpl	0, cr0, [r9, #-0]
    1e84:	09000000 	stmdbeq	r0, {}	; <UNPREDICTABLE>
    1e88:	00000e5f 	andeq	r0, r0, pc, asr lr
    1e8c:	00007d09 	andeq	r7, r0, r9, lsl #26
    1e90:	04060000 	streq	r0, [r6], #-0
    1e94:	00000e65 	andeq	r0, r0, r5, ror #28
    1e98:	000e7008 	andeq	r7, lr, r8
    1e9c:	007d0900 	rsbseq	r0, sp, r0, lsl #18
    1ea0:	34000000 	strcc	r0, [r0], #-0
    1ea4:	0000039c 	muleq	r0, ip, r3
    1ea8:	91009002 	tstls	r0, r2
    1eac:	04000001 	streq	r0, [r0], #-1
    1eb0:	00072b00 	andeq	r2, r7, r0, lsl #22
    1eb4:	23010400 	movwcs	r0, #5120	; 0x1400
    1eb8:	01000005 	tsteq	r0, r5
    1ebc:	00000515 	andeq	r0, r0, r5, lsl r5
    1ec0:	0000058e 	andeq	r0, r0, lr, lsl #11
    1ec4:	00008d78 	andeq	r8, r0, r8, ror sp
    1ec8:	00000058 	andeq	r0, r0, r8, asr r0
    1ecc:	000005ac 	andeq	r0, r0, ip, lsr #11
    1ed0:	00050602 	andeq	r0, r5, r2, lsl #12
    1ed4:	30280200 	eorcc	r0, r8, r0, lsl #4
    1ed8:	03000000 	movweq	r0, #0
    1edc:	00000584 	andeq	r0, r0, r4, lsl #11
    1ee0:	47000304 	strmi	r0, [r0, -r4, lsl #6]
    1ee4:	04000000 	streq	r0, [r0], #-0
    1ee8:	000005d4 	ldrdeq	r0, [r0], -r4
    1eec:	00000047 	andeq	r0, r0, r7, asr #32
    1ef0:	04050000 	streq	r0, [r5], #-0
    1ef4:	00058602 	andeq	r8, r5, r2, lsl #12
    1ef8:	25620200 	strbcs	r0, [r2, #-512]!	; 0x200
    1efc:	06000000 	streq	r0, [r0], -r0
    1f00:	6e690504 	cdpvs	5, 6, cr0, cr9, cr4, {0}
    1f04:	04070074 	streq	r0, [r7], #-116	; 0x74
    1f08:	0001bd07 	andeq	fp, r1, r7, lsl #26
    1f0c:	06010700 	streq	r0, [r1], -r0, lsl #14
    1f10:	000000c2 	andeq	r0, r0, r2, asr #1
    1f14:	0f050207 	svceq	0x00050207
    1f18:	07000000 	streq	r0, [r0, -r0]
    1f1c:	01f10504 	mvnseq	r0, r4, lsl #10
    1f20:	08070000 	stmdaeq	r7, {}	; <UNPREDICTABLE>
    1f24:	0001ec05 	andeq	lr, r1, r5, lsl #24
    1f28:	08010700 	stmdaeq	r1, {r8, r9, sl}
    1f2c:	000000c0 	andeq	r0, r0, r0, asr #1
    1f30:	e6070207 	str	r0, [r7], -r7, lsl #4
    1f34:	07000000 	streq	r0, [r0, -r0]
    1f38:	01b80704 			; <UNDEFINED> instruction: 0x01b80704
    1f3c:	08070000 	stmdaeq	r7, {}	; <UNPREDICTABLE>
    1f40:	0001b307 	andeq	fp, r1, r7, lsl #6
    1f44:	07040700 	streq	r0, [r4, -r0, lsl #14]
    1f48:	000001e3 	andeq	r0, r0, r3, ror #3
    1f4c:	00a70408 	adceq	r0, r7, r8, lsl #8
    1f50:	01070000 	mrseq	r0, (UNDEF: 7)
    1f54:	0000c908 	andeq	ip, r0, r8, lsl #18
    1f58:	b4040800 	strlt	r0, [r4], #-2048	; 0x800
    1f5c:	09000000 	stmdbeq	r0, {}	; <UNPREDICTABLE>
    1f60:	000000a7 	andeq	r0, r0, r7, lsr #1
    1f64:	00057d0a 	andeq	r7, r5, sl, lsl #26
    1f68:	54060100 	strpl	r0, [r6], #-256	; 0x100
    1f6c:	78000000 	stmdavc	r0, {}	; <UNPREDICTABLE>
    1f70:	5800008d 	stmdapl	r0, {r0, r2, r3, r7}
    1f74:	01000000 	mrseq	r0, (UNDEF: 0)
    1f78:	0001439c 	muleq	r1, ip, r3
    1f7c:	6d660b00 	vstmdbvs	r6!, {d16-d15}
    1f80:	06010074 			; <UNDEFINED> instruction: 0x06010074
    1f84:	000000ae 	andeq	r0, r0, lr, lsr #1
    1f88:	0c709102 	ldfeqp	f1, [r0], #-8
    1f8c:	6675620d 	ldrbtvs	r6, [r5], -sp, lsl #4
    1f90:	43080100 	movwmi	r0, #33024	; 0x8100
    1f94:	05000001 	streq	r0, [r0, #-1]
    1f98:	00a16403 	adceq	r6, r1, r3, lsl #8
    1f9c:	0a900e00 	beq	fe4057a4 <__bss_end__+0xfe3fb23c>
    1fa0:	09010000 	stmdbeq	r1, {}	; <UNPREDICTABLE>
    1fa4:	00000049 	andeq	r0, r0, r9, asr #32
    1fa8:	0f5c9102 	svceq	0x005c9102
    1fac:	01007a73 	tsteq	r0, r3, ror sl
    1fb0:	0000540c 	andeq	r5, r0, ip, lsl #8
    1fb4:	0005ec00 	andeq	lr, r5, r0, lsl #24
    1fb8:	8da01000 	stchi	0, cr1, [r0]
    1fbc:	01740000 	cmneq	r4, r0
    1fc0:	01360000 	teqeq	r6, r0
    1fc4:	01110000 	tsteq	r1, r0
    1fc8:	4c910253 	lfmmi	f0, 4, [r1], {83}	; 0x53
    1fcc:	03520111 	cmpeq	r2, #1073741828	; 0x40000004
    1fd0:	11064891 			; <UNDEFINED> instruction: 0x11064891
    1fd4:	0a035101 	beq	d63e0 <__bss_end__+0xcbe78>
    1fd8:	01110400 	tsteq	r1, r0, lsl #8
    1fdc:	00740250 	rsbseq	r0, r4, r0, asr r2
    1fe0:	8db41200 	lfmhi	f1, 4, [r4]
    1fe4:	01110000 	tsteq	r1, r0
    1fe8:	00740250 	rsbseq	r0, r4, r0, asr r2
    1fec:	a7130000 	ldrge	r0, [r3, -r0]
    1ff0:	54000000 	strpl	r0, [r0], #-0
    1ff4:	14000001 	strne	r0, [r0], #-1
    1ff8:	0000009a 	muleq	r0, sl, r0
    1ffc:	150003ff 	strne	r0, [r0, #-1023]	; 0x3ff
    2000:	00000054 	andeq	r0, r0, r4, asr r0
    2004:	00000163 	andeq	r0, r0, r3, ror #2
    2008:	0000ae16 	andeq	sl, r0, r6, lsl lr
    200c:	31170000 	tstcc	r7, r0
    2010:	04000006 	streq	r0, [r0], #-6
    2014:	00016e22 	andeq	r6, r1, r2, lsr #28
    2018:	54040800 	strpl	r0, [r4], #-2048	; 0x800
    201c:	18000001 	stmdane	r0, {r0}
    2020:	0000057a 	andeq	r0, r0, sl, ror r5
    2024:	00540205 	subseq	r0, r4, r5, lsl #4
    2028:	a1160000 	tstge	r6, r0
    202c:	16000000 	strne	r0, [r0], -r0
    2030:	00000054 	andeq	r0, r0, r4, asr r0
    2034:	0000ae16 	andeq	sl, r0, r6, lsl lr
    2038:	00491600 	subeq	r1, r9, r0, lsl #12
    203c:	00000000 	andeq	r0, r0, r0
    2040:	00000113 	andeq	r0, r0, r3, lsl r1
    2044:	085c0004 	ldmdaeq	ip, {r2}^
    2048:	01040000 	mrseq	r0, (UNDEF: 4)
    204c:	00000523 	andeq	r0, r0, r3, lsr #10
    2050:	00060001 	andeq	r0, r6, r1
    2054:	00058e00 	andeq	r8, r5, r0, lsl #28
    2058:	008dd000 	addeq	sp, sp, r0
    205c:	00003c00 	andeq	r3, r0, r0, lsl #24
    2060:	0006bc00 	andeq	fp, r6, r0, lsl #24
    2064:	05040200 	streq	r0, [r4, #-512]	; 0x200
    2068:	00746e69 	rsbseq	r6, r4, r9, ror #28
    206c:	bd070403 	cfstrslt	mvf0, [r7, #-12]
    2070:	03000001 	movweq	r0, #1
    2074:	00c20601 	sbceq	r0, r2, r1, lsl #12
    2078:	02030000 	andeq	r0, r3, #0
    207c:	00000f05 	andeq	r0, r0, r5, lsl #30
    2080:	05040300 	streq	r0, [r4, #-768]	; 0x300
    2084:	000001f1 	strdeq	r0, [r0], -r1
    2088:	ec050803 	stc	8, cr0, [r5], {3}
    208c:	03000001 	movweq	r0, #1
    2090:	00c00801 	sbceq	r0, r0, r1, lsl #16
    2094:	02030000 	andeq	r0, r3, #0
    2098:	0000e607 	andeq	lr, r0, r7, lsl #12
    209c:	07040300 	streq	r0, [r4, -r0, lsl #6]
    20a0:	000001b8 			; <UNDEFINED> instruction: 0x000001b8
    20a4:	b3070803 	movwlt	r0, #30723	; 0x7803
    20a8:	03000001 	movweq	r0, #1
    20ac:	01e30704 	mvneq	r0, r4, lsl #14
    20b0:	01030000 	mrseq	r0, (UNDEF: 3)
    20b4:	0000c908 	andeq	ip, r0, r8, lsl #18
    20b8:	05e30400 	strbeq	r0, [r3, #1024]!	; 0x400
    20bc:	03010000 	movweq	r0, #4096	; 0x1000
    20c0:	00000025 	andeq	r0, r0, r5, lsr #32
    20c4:	00008dd0 	ldrdeq	r8, [r0], -r0
    20c8:	00000014 	andeq	r0, r0, r4, lsl r0
    20cc:	00b09c01 	adcseq	r9, r0, r1, lsl #24
    20d0:	63050000 	movwvs	r0, #20480	; 0x5000
    20d4:	25030100 	strcs	r0, [r3, #-256]	; 0x100
    20d8:	15000000 	strne	r0, [r0, #-0]
    20dc:	06000006 	streq	r0, [r0], -r6
    20e0:	00008ddc 	ldrdeq	r8, [r0], -ip
    20e4:	00000109 	andeq	r0, r0, r9, lsl #2
    20e8:	02500107 	subseq	r0, r0, #-1073741823	; 0xc0000001
    20ec:	00000074 	andeq	r0, r0, r4, ror r0
    20f0:	00022a08 	andeq	r2, r2, r8, lsl #20
    20f4:	e4080100 	str	r0, [r8], #-256	; 0x100
    20f8:	1800008d 	stmdane	r0, {r0, r2, r3, r7}
    20fc:	01000000 	mrseq	r0, (UNDEF: 0)
    2100:	060f099c 			; <UNDEFINED> instruction: 0x060f099c
    2104:	0b010000 	bleq	4210c <__bss_end__+0x37ba4>
    2108:	00008dfc 	strdeq	r8, [r0], -ip
    210c:	00000010 	andeq	r0, r0, r0, lsl r0
    2110:	00e39c01 	rsceq	r9, r3, r1, lsl #24
    2114:	660a0000 	strvs	r0, [sl], -r0
    2118:	0b010070 	bleq	422e0 <__bss_end__+0x37d78>
    211c:	000000f2 	strdeq	r0, [r0], -r2
    2120:	0b005001 	bleq	1612c <__bss_end__+0xbbc4>
    2124:	00000025 	andeq	r0, r0, r5, lsr #32
    2128:	000000f2 	strdeq	r0, [r0], -r2
    212c:	0000250c 	andeq	r2, r0, ip, lsl #10
    2130:	040d0000 	streq	r0, [sp], #-0
    2134:	000000e3 	andeq	r0, r0, r3, ror #1
    2138:	0005f40e 	andeq	pc, r5, lr, lsl #8
    213c:	f2060100 	vrhadd.s8	d0, d6, d0
    2140:	05000000 	streq	r0, [r0, #-0]
    2144:	00998803 	addseq	r8, r9, r3, lsl #16
    2148:	05d90f00 	ldrbeq	r0, [r9, #3840]	; 0xf00
    214c:	3c020000 	stccc	0, cr0, [r2], {-0}
    2150:	00002c0c 	andeq	r2, r0, ip, lsl #24
    2154:	ee000000 	cdp	0, 0, cr0, cr0, cr0, {0}
    2158:	04000000 	streq	r0, [r0], #-0
    215c:	00094400 	andeq	r4, r9, r0, lsl #8
    2160:	23010400 	movwcs	r0, #5120	; 0x1400
    2164:	01000005 	tsteq	r0, r5
    2168:	0000061c 	andeq	r0, r0, ip, lsl r6
    216c:	0000058e 	andeq	r0, r0, lr, lsl #11
    2170:	00008e0c 	andeq	r8, r0, ip, lsl #28
    2174:	00000034 	andeq	r0, r0, r4, lsr r0
    2178:	00000754 	andeq	r0, r0, r4, asr r7
    217c:	69050402 	stmdbvs	r5, {r1, sl}
    2180:	0300746e 	movweq	r7, #1134	; 0x46e
    2184:	01bd0704 			; <UNDEFINED> instruction: 0x01bd0704
    2188:	01030000 	mrseq	r0, (UNDEF: 3)
    218c:	0000c206 	andeq	ip, r0, r6, lsl #4
    2190:	05020300 	streq	r0, [r2, #-768]	; 0x300
    2194:	0000000f 	andeq	r0, r0, pc
    2198:	f1050403 			; <UNDEFINED> instruction: 0xf1050403
    219c:	03000001 	movweq	r0, #1
    21a0:	01ec0508 	mvneq	r0, r8, lsl #10
    21a4:	01030000 	mrseq	r0, (UNDEF: 3)
    21a8:	0000c008 	andeq	ip, r0, r8
    21ac:	07020300 	streq	r0, [r2, -r0, lsl #6]
    21b0:	000000e6 	andeq	r0, r0, r6, ror #1
    21b4:	b8070403 	stmdalt	r7, {r0, r1, sl}
    21b8:	03000001 	movweq	r0, #1
    21bc:	01b30708 			; <UNDEFINED> instruction: 0x01b30708
    21c0:	04030000 	streq	r0, [r3], #-0
    21c4:	0001e307 	andeq	lr, r1, r7, lsl #6
    21c8:	08010300 	stmdaeq	r1, {r8, r9}
    21cc:	000000c9 	andeq	r0, r0, r9, asr #1
    21d0:	007f0404 	rsbseq	r0, pc, r4, lsl #8
    21d4:	72050000 	andvc	r0, r5, #0
    21d8:	06000000 	streq	r0, [r0], -r0
    21dc:	00000628 	andeq	r0, r0, r8, lsr #12
    21e0:	00250401 	eoreq	r0, r5, r1, lsl #8
    21e4:	8e0c0000 	cdphi	0, 0, cr0, cr12, cr0, {0}
    21e8:	00340000 	eorseq	r0, r4, r0
    21ec:	9c010000 	stcls	0, cr0, [r1], {-0}
    21f0:	000000ab 	andeq	r0, r0, fp, lsr #1
    21f4:	01007007 	tsteq	r0, r7
    21f8:	00007904 	andeq	r7, r0, r4, lsl #18
    21fc:	00063300 	andeq	r3, r6, r0, lsl #6
    2200:	25080000 	strcs	r0, [r8, #-0]
    2204:	ba000000 	blt	220c <__code_start__-0x5df4>
    2208:	09000000 	stmdbeq	r0, {}	; <UNPREDICTABLE>
    220c:	00000025 	andeq	r0, r0, r5, lsr #32
    2210:	05f40a00 	ldrbeq	r0, [r4, #2560]!	; 0xa00
    2214:	1d020000 	stcne	0, cr0, [r2, #-0]
    2218:	000000c5 	andeq	r0, r0, r5, asr #1
    221c:	00ab0404 	adceq	r0, fp, r4, lsl #8
    2220:	25080000 	strcs	r0, [r8, #-0]
    2224:	da000000 	ble	222c <__code_start__-0x5dd4>
    2228:	09000000 	stmdbeq	r0, {}	; <UNPREDICTABLE>
    222c:	00000079 	andeq	r0, r0, r9, ror r0
    2230:	06310b00 	ldrteq	r0, [r1], -r0, lsl #22
    2234:	0c010000 	stceq	0, cr0, [r1], {-0}
    2238:	000000eb 	andeq	r0, r0, fp, ror #1
    223c:	998c0305 	stmibls	ip, {r0, r2, r8, r9}
    2240:	04040000 	streq	r0, [r4], #-0
    2244:	000000cb 	andeq	r0, r0, fp, asr #1
    2248:	0006e500 	andeq	lr, r6, r0, lsl #10
    224c:	dd000400 	cfstrsle	mvf0, [r0, #-0]
    2250:	04000009 	streq	r0, [r0], #-9
    2254:	00052301 	andeq	r2, r5, r1, lsl #6
    2258:	06670100 	strbteq	r0, [r7], -r0, lsl #2
    225c:	058e0000 	streq	r0, [lr]
    2260:	8e400000 	cdphi	0, 4, cr0, cr0, cr0, {0}
    2264:	05780000 	ldrbeq	r0, [r8, #-0]!
    2268:	07f80000 	ldrbeq	r0, [r8, r0]!
    226c:	04020000 	streq	r0, [r2], #-0
    2270:	746e6905 	strbtvc	r6, [lr], #-2309	; 0x905
    2274:	07040300 	streq	r0, [r4, -r0, lsl #6]
    2278:	000001bd 			; <UNDEFINED> instruction: 0x000001bd
    227c:	c2060103 	andgt	r0, r6, #-1073741824	; 0xc0000000
    2280:	03000000 	movweq	r0, #0
    2284:	000f0502 	andeq	r0, pc, r2, lsl #10
    2288:	04030000 	streq	r0, [r3], #-0
    228c:	0001f105 	andeq	pc, r1, r5, lsl #2
    2290:	05080300 	streq	r0, [r8, #-768]	; 0x300
    2294:	000001ec 	andeq	r0, r0, ip, ror #3
    2298:	c0080103 	andgt	r0, r8, r3, lsl #2
    229c:	03000000 	movweq	r0, #0
    22a0:	00e60702 	rsceq	r0, r6, r2, lsl #14
    22a4:	04030000 	streq	r0, [r3], #-0
    22a8:	0001b807 	andeq	fp, r1, r7, lsl #16
    22ac:	07080300 	streq	r0, [r8, -r0, lsl #6]
    22b0:	000001b3 			; <UNDEFINED> instruction: 0x000001b3
    22b4:	e3070403 	movw	r0, #29699	; 0x7403
    22b8:	04000001 	streq	r0, [r0], #-1
    22bc:	7a040504 	bvc	1036d4 <__bss_end__+0xf916c>
    22c0:	03000000 	movweq	r0, #0
    22c4:	00c90801 	sbceq	r0, r9, r1, lsl #16
    22c8:	04050000 	streq	r0, [r5], #-0
    22cc:	00000087 	andeq	r0, r0, r7, lsl #1
    22d0:	00007a06 	andeq	r7, r0, r6, lsl #20
    22d4:	05060700 	streq	r0, [r6, #-1792]	; 0x700
    22d8:	28020000 	stmdacs	r2, {}	; <UNPREDICTABLE>
    22dc:	00000097 	muleq	r0, r7, r0
    22e0:	00058408 	andeq	r8, r5, r8, lsl #8
    22e4:	00040400 	andeq	r0, r4, r0, lsl #8
    22e8:	000000ae 	andeq	r0, r0, lr, lsr #1
    22ec:	0005d409 	andeq	sp, r5, r9, lsl #8
    22f0:	00007200 	andeq	r7, r0, r0, lsl #4
    22f4:	07000000 	streq	r0, [r0, -r0]
    22f8:	00000586 	andeq	r0, r0, r6, lsl #11
    22fc:	008c6202 	addeq	r6, ip, r2, lsl #4
    2300:	4e0a0000 	cdpmi	0, 0, cr0, cr10, cr0, {0}
    2304:	01000006 	tsteq	r0, r6
    2308:	00002527 	andeq	r2, r0, r7, lsr #10
    230c:	008e4000 	addeq	r4, lr, r0
    2310:	00001400 	andeq	r1, r0, r0, lsl #8
    2314:	e09c0100 	adds	r0, ip, r0, lsl #2
    2318:	0b000000 	bleq	2320 <__code_start__-0x5ce0>
    231c:	27010063 	strcs	r0, [r1, -r3, rrx]
    2320:	00000025 	andeq	r0, r0, r5, lsr #32
    2324:	00000651 	andeq	r0, r0, r1, asr r6
    2328:	61700c00 	cmnvs	r0, r0, lsl #24
    232c:	2e010064 	cdpcs	0, 0, cr0, cr1, cr4, {3}
    2330:	00000074 	andeq	r0, r0, r4, ror r0
    2334:	00008e54 	andeq	r8, r0, r4, asr lr
    2338:	0000002c 	andeq	r0, r0, ip, lsr #32
    233c:	01309c01 	teqeq	r0, r1, lsl #24
    2340:	700b0000 	andvc	r0, fp, r0
    2344:	742e0100 	strtvc	r0, [lr], #-256	; 0x100
    2348:	7f000000 	svcvc	0x00000000
    234c:	0d000006 	stceq	0, cr0, [r0, #-24]	; 0xffffffe8
    2350:	00000a6e 	andeq	r0, r0, lr, ror #20
    2354:	00742e01 	rsbseq	r2, r4, r1, lsl #28
    2358:	06aa0000 	strteq	r0, [sl], r0
    235c:	870e0000 	strhi	r0, [lr, -r0]
    2360:	01000006 	tsteq	r0, r6
    2364:	0000252e 	andeq	r2, r0, lr, lsr #10
    2368:	0f520100 	svceq	0x00520100
    236c:	006e656c 	rsbeq	r6, lr, ip, ror #10
    2370:	00252f01 	eoreq	r2, r5, r1, lsl #30
    2374:	51010000 	mrspl	r0, (UNDEF: 1)
    2378:	06460a00 	strbeq	r0, [r6], -r0, lsl #20
    237c:	37010000 	strcc	r0, [r1, -r0]
    2380:	00000074 	andeq	r0, r0, r4, ror r0
    2384:	00008e80 	andeq	r8, r0, r0, lsl #29
    2388:	00000040 	andeq	r0, r0, r0, asr #32
    238c:	019c9c01 	orrseq	r9, ip, r1, lsl #24
    2390:	640b0000 	strvs	r0, [fp], #-0
    2394:	01007473 	tsteq	r0, r3, ror r4
    2398:	00007437 	andeq	r7, r0, r7, lsr r4
    239c:	0006cb00 	andeq	ip, r6, r0, lsl #22
    23a0:	006e0b00 	rsbeq	r0, lr, r0, lsl #22
    23a4:	00253701 	eoreq	r3, r5, r1, lsl #14
    23a8:	07030000 	streq	r0, [r3, -r0]
    23ac:	700b0000 	andvc	r0, fp, r0
    23b0:	74370100 	ldrtvc	r0, [r7], #-256	; 0x100
    23b4:	24000000 	strcs	r0, [r0], #-0
    23b8:	0d000007 	stceq	0, cr0, [r0, #-28]	; 0xffffffe4
    23bc:	0000063a 	andeq	r0, r0, sl, lsr r6
    23c0:	00743701 	rsbseq	r3, r4, r1, lsl #14
    23c4:	075a0000 	ldrbeq	r0, [sl, -r0]
    23c8:	6c100000 	ldcvs	0, cr0, [r0], {-0}
    23cc:	01006e65 	tsteq	r0, r5, ror #28
    23d0:	00002539 	andeq	r2, r0, r9, lsr r5
    23d4:	00077800 	andeq	r7, r7, r0, lsl #16
    23d8:	00730f00 	rsbseq	r0, r3, r0, lsl #30
    23dc:	00743d01 	rsbseq	r3, r4, r1, lsl #26
    23e0:	50010000 	andpl	r0, r1, r0
    23e4:	06950a00 	ldreq	r0, [r5], r0, lsl #20
    23e8:	47010000 	strmi	r0, [r1, -r0]
    23ec:	00000074 	andeq	r0, r0, r4, ror r0
    23f0:	00008ec0 	andeq	r8, r0, r0, asr #29
    23f4:	000001bc 			; <UNDEFINED> instruction: 0x000001bc
    23f8:	02df9c01 	sbcseq	r9, pc, #256	; 0x100
    23fc:	6e0d0000 	cdpvs	0, 0, cr0, cr13, cr0, {0}
    2400:	0100000a 	tsteq	r0, sl
    2404:	00002c47 	andeq	r2, r0, r7, asr #24
    2408:	00079f00 	andeq	r9, r7, r0, lsl #30
    240c:	73640b00 	cmnvc	r4, #0, 22
    2410:	47010074 	smlsdxmi	r1, r4, r0, r0
    2414:	00000074 	andeq	r0, r0, r4, ror r0
    2418:	000007cd 	andeq	r0, r0, sp, asr #15
    241c:	01006e0b 	tsteq	r0, fp, lsl #28
    2420:	00002547 	andeq	r2, r0, r7, asr #10
    2424:	00083b00 	andeq	r3, r8, r0, lsl #22
    2428:	61760b00 	cmnvs	r6, r0, lsl #22
    242c:	4701006c 	strmi	r0, [r1, -ip, rrx]
    2430:	00000025 	andeq	r0, r0, r5, lsr #32
    2434:	00000867 	andeq	r0, r0, r7, ror #16
    2438:	0006870d 	andeq	r8, r6, sp, lsl #14
    243c:	25470100 	strbcs	r0, [r7, #-256]	; 0x100
    2440:	e6000000 	str	r0, [r0], -r0
    2444:	0e000008 	cdpeq	0, 0, cr0, cr0, cr8, {0}
    2448:	0000065e 	andeq	r0, r0, lr, asr r6
    244c:	00254701 	eoreq	r4, r5, r1, lsl #14
    2450:	91020000 	mrsls	r0, (UNDEF: 2)
    2454:	75620f04 	strbvc	r0, [r2, #-3844]!	; 0xf04
    2458:	4c010066 	stcmi	0, cr0, [r1], {102}	; 0x66
    245c:	000002df 	ldrdeq	r0, [r0], -pc	; <UNPREDICTABLE>
    2460:	7fa89103 	svcvc	0x00a89103
    2464:	01007010 	tsteq	r0, r0, lsl r0
    2468:	0000744c 	andeq	r7, r0, ip, asr #8
    246c:	00091000 	andeq	r1, r9, r0
    2470:	00751000 	rsbseq	r1, r5, r0
    2474:	002c4d01 	eoreq	r4, ip, r1, lsl #26
    2478:	09fa0000 	ldmibeq	sl!, {}^	; <UNPREDICTABLE>
    247c:	10110000 	andsne	r0, r1, r0
    2480:	ff000001 			; <UNDEFINED> instruction: 0xff000001
    2484:	05000002 	streq	r0, [r0, #-2]
    2488:	009f3803 	addseq	r3, pc, r3, lsl #16
    248c:	8f2c1200 	svchi	0x002c1200
    2490:	00740000 	rsbseq	r0, r4, r0
    2494:	02610000 	rsbeq	r0, r1, #0
    2498:	40130000 	andsmi	r0, r3, r0
    249c:	01000006 	tsteq	r0, r6
    24a0:	00002c52 	andeq	r2, r0, r2, asr ip
    24a4:	000abd00 	andeq	fp, sl, r0, lsl #26
    24a8:	18140000 	ldmdane	r4, {}	; <UNPREDICTABLE>
    24ac:	c4000090 	strgt	r0, [r0], #-144	; 0x90
    24b0:	15000006 	strne	r0, [r0, #-6]
    24b4:	00009034 	andeq	r9, r0, r4, lsr r0
    24b8:	000006cb 	andeq	r0, r0, fp, asr #13
    24bc:	000002a3 	andeq	r0, r0, r3, lsr #5
    24c0:	02530116 	subseq	r0, r3, #-2147483643	; 0x80000005
    24c4:	01167708 	tsteq	r6, r8, lsl #14
    24c8:	38030552 	stmdacc	r3, {r1, r4, r6, r8, sl}
    24cc:	1600009f 			; <UNDEFINED> instruction: 0x1600009f
    24d0:	03055101 	movweq	r5, #20737	; 0x5101
    24d4:	00009f5c 	andeq	r9, r0, ip, asr pc
    24d8:	05500116 	ldrbeq	r0, [r0, #-278]	; 0x116
    24dc:	00999003 	addseq	r9, r9, r3
    24e0:	7d021600 	stcvc	6, cr1, [r2, #-0]
    24e4:	70030500 	andvc	r0, r3, r0, lsl #10
    24e8:	0000009f 	muleq	r0, pc, r0	; <UNPREDICTABLE>
    24ec:	00903814 	addseq	r3, r0, r4, lsl r8
    24f0:	0006e100 	andeq	lr, r6, r0, lsl #2
    24f4:	90401500 	subls	r1, r0, r0, lsl #10
    24f8:	00e00000 	rsceq	r0, r0, r0
    24fc:	02c10000 	sbceq	r0, r1, #0
    2500:	01160000 	tsteq	r6, r0
    2504:	a0910351 	addsge	r0, r1, r1, asr r3
    2508:	5417007f 	ldrpl	r0, [r7], #-127	; 0x7f
    250c:	30000090 	mulcc	r0, r0, r0
    2510:	16000001 	strne	r0, [r0], -r1
    2514:	91035301 	tstls	r3, r1, lsl #6
    2518:	01167fa0 	tsteq	r6, r0, lsr #31
    251c:	00740251 	rsbseq	r0, r4, r1, asr r2
    2520:	02500116 	subseq	r0, r0, #-2147483643	; 0x80000005
    2524:	00000075 	andeq	r0, r0, r5, ror r0
    2528:	00007a18 	andeq	r7, r0, r8, lsl sl
    252c:	0002ef00 	andeq	lr, r2, r0, lsl #30
    2530:	006b1900 	rsbeq	r1, fp, r0, lsl #18
    2534:	003f0000 	eorseq	r0, pc, r0
    2538:	00007a18 	andeq	r7, r0, r8, lsl sl
    253c:	0002ff00 	andeq	pc, r2, r0, lsl #30
    2540:	006b1900 	rsbeq	r1, fp, r0, lsl #18
    2544:	00040000 	andeq	r0, r4, r0
    2548:	0002ef06 	andeq	lr, r2, r6, lsl #30
    254c:	06781a00 	ldrbteq	r1, [r8], -r0, lsl #20
    2550:	1f010000 	svcne	0x00010000
    2554:	0000907c 	andeq	r9, r0, ip, ror r0
    2558:	00000068 	andeq	r0, r0, r8, rrx
    255c:	03929c01 	orrseq	r9, r2, #256	; 0x100
    2560:	8d0d0000 	stchi	0, cr0, [sp, #-0]
    2564:	01000006 	tsteq	r0, r6
    2568:	0003a11f 	andeq	sl, r3, pc, lsl r1
    256c:	000ae900 	andeq	lr, sl, r0, lsl #18
    2570:	06560d00 	ldrbeq	r0, [r6], -r0, lsl #26
    2574:	1f010000 	svcne	0x00010000
    2578:	000003b6 			; <UNDEFINED> instruction: 0x000003b6
    257c:	00000b15 	andeq	r0, r0, r5, lsl fp
    2580:	00011011 	andeq	r1, r1, r1, lsl r0
    2584:	0003cc00 	andeq	ip, r3, r0, lsl #24
    2588:	40030500 	andmi	r0, r3, r0, lsl #10
    258c:	1400009f 	strne	r0, [r0], #-159	; 0x9f
    2590:	00009090 	muleq	r0, r0, r0
    2594:	000006c4 	andeq	r0, r0, r4, asr #13
    2598:	0090ac15 	addseq	sl, r0, r5, lsl ip
    259c:	0006cb00 	andeq	ip, r6, r0, lsl #22
    25a0:	00038800 	andeq	r8, r3, r0, lsl #16
    25a4:	53011600 	movwpl	r1, #5632	; 0x1600
    25a8:	16200802 	strtne	r0, [r0], -r2, lsl #16
    25ac:	03055201 	movweq	r5, #20993	; 0x5201
    25b0:	00009f40 	andeq	r9, r0, r0, asr #30
    25b4:	05510116 	ldrbeq	r0, [r1, #-278]	; 0x116
    25b8:	009f5c03 	addseq	r5, pc, r3, lsl #24
    25bc:	50011600 	andpl	r1, r1, r0, lsl #12
    25c0:	99900305 	ldmibls	r0, {r0, r2, r8, r9}
    25c4:	02160000 	andseq	r0, r6, #0
    25c8:	0305007d 	movweq	r0, #20605	; 0x507d
    25cc:	00009f98 	muleq	r0, r8, pc	; <UNPREDICTABLE>
    25d0:	90b01400 	adcsls	r1, r0, r0, lsl #8
    25d4:	06e10000 	strbteq	r0, [r1], r0
    25d8:	1b000000 	blne	25e0 <__code_start__-0x5a20>
    25dc:	00000025 	andeq	r0, r0, r5, lsr #32
    25e0:	000003a1 	andeq	r0, r0, r1, lsr #7
    25e4:	0000251c 	andeq	r2, r0, ip, lsl r5
    25e8:	04050000 	streq	r0, [r5], #-0
    25ec:	00000392 	muleq	r0, r2, r3
    25f0:	0000251b 	andeq	r2, r0, fp, lsl r5
    25f4:	0003b600 	andeq	fp, r3, r0, lsl #12
    25f8:	00811c00 	addeq	r1, r1, r0, lsl #24
    25fc:	05000000 	streq	r0, [r0, #-0]
    2600:	0003a704 	andeq	sl, r3, r4, lsl #14
    2604:	007a1800 	rsbseq	r1, sl, r0, lsl #16
    2608:	03cc0000 	biceq	r0, ip, #0
    260c:	6b190000 	blvs	642614 <__bss_end__+0x6380ac>
    2610:	0e000000 	cdpeq	0, 0, cr0, cr0, cr0, {0}
    2614:	03bc0600 			; <UNDEFINED> instruction: 0x03bc0600
    2618:	7a1d0000 	bvc	742620 <__bss_end__+0x7380b8>
    261c:	01000005 	tsteq	r0, r5
    2620:	0000257f 	andeq	r2, r0, pc, ror r5
    2624:	0090e400 	addseq	lr, r0, r0, lsl #8
    2628:	0002d400 	andeq	sp, r2, r0, lsl #8
    262c:	899c0100 	ldmibhi	ip, {r8}
    2630:	0b000006 	bleq	2650 <__code_start__-0x59b0>
    2634:	00667562 	rsbeq	r7, r6, r2, ror #10
    2638:	00747f01 	rsbseq	r7, r4, r1, lsl #30
    263c:	0b410000 	bleq	1042644 <__bss_end__+0x10380dc>
    2640:	6e0b0000 	cdpvs	0, 0, cr0, cr11, cr0, {0}
    2644:	257f0100 	ldrbcs	r0, [pc, #-256]!	; 254c <__code_start__-0x5ab4>
    2648:	6d000000 	stcvs	0, cr0, [r0, #-0]
    264c:	0b00000b 	bleq	2680 <__code_start__-0x5980>
    2650:	00746d66 	rsbseq	r6, r4, r6, ror #26
    2654:	00817f01 	addeq	r7, r1, r1, lsl #30
    2658:	0b9b0000 	bleq	fe6c2660 <__bss_end__+0xfe6b80f8>
    265c:	900d0000 	andls	r0, sp, r0
    2660:	0100000a 	tsteq	r0, sl
    2664:	0000ae7f 	andeq	sl, r0, pc, ror lr
    2668:	000bb900 	andeq	fp, fp, r0, lsl #18
    266c:	00701000 	rsbseq	r1, r0, r0
    2670:	00748001 	rsbseq	r8, r4, r1
    2674:	0bcc0000 	bleq	ff30267c <__bss_end__+0xff2f8114>
    2678:	65100000 	ldrvs	r0, [r0, #-0]
    267c:	74800100 	strvc	r0, [r0], #256	; 0x100
    2680:	4a000000 	bmi	2688 <__code_start__-0x5978>
    2684:	1300000c 	movwne	r0, #12
    2688:	00000636 	andeq	r0, r0, r6, lsr r6
    268c:	00818301 	addeq	r8, r1, r1, lsl #6
    2690:	0c710000 	ldcleq	0, cr0, [r1], #-0
    2694:	10110000 	andsne	r0, r1, r0
    2698:	99000001 	stmdbls	r0, {r0}
    269c:	05000006 	streq	r0, [r0, #-6]
    26a0:	009f5003 	addseq	r5, pc, r3
    26a4:	91401e00 	cmpls	r0, r0, lsl #28
    26a8:	022c0000 	eoreq	r0, ip, #0
    26ac:	73100000 	tstvc	r0, #0
    26b0:	748e0100 	strvc	r0, [lr], #256	; 0x100
    26b4:	91000000 	mrsls	r0, (UNDEF: 0)
    26b8:	0f00000c 	svceq	0x0000000c
    26bc:	006d756e 	rsbeq	r7, sp, lr, ror #10
    26c0:	069e8e01 	ldreq	r8, [lr], r1, lsl #28
    26c4:	91030000 	mrsls	r0, (UNDEF: 3)
    26c8:	87137ed8 			; <UNDEFINED> instruction: 0x87137ed8
    26cc:	01000006 	tsteq	r0, r6
    26d0:	00002c8f 	andeq	r2, r0, pc, lsl #25
    26d4:	000ce600 	andeq	lr, ip, r0, lsl #12
    26d8:	91701500 	cmnls	r0, r0, lsl #10
    26dc:	00b90000 	adcseq	r0, r9, r0
    26e0:	04a40000 	strteq	r0, [r4], #0
    26e4:	01160000 	tsteq	r6, r0
    26e8:	00750250 	rsbseq	r0, r5, r0, asr r2
    26ec:	91841400 	orrls	r1, r4, r0, lsl #8
    26f0:	06c40000 	strbeq	r0, [r4], r0
    26f4:	a0150000 	andsge	r0, r5, r0
    26f8:	cb000091 	blgt	2944 <__code_start__-0x56bc>
    26fc:	e6000006 	str	r0, [r0], -r6
    2700:	16000004 	strne	r0, [r0], -r4
    2704:	08025301 	stmdaeq	r2, {r0, r8, r9, ip, lr}
    2708:	52011695 	andpl	r1, r1, #156237824	; 0x9500000
    270c:	9f500305 	svcls	0x00500305
    2710:	01160000 	tsteq	r6, r0
    2714:	5c030551 	cfstr32pl	mvfx0, [r3], {81}	; 0x51
    2718:	1600009f 			; <UNDEFINED> instruction: 0x1600009f
    271c:	03055001 	movweq	r5, #20481	; 0x5001
    2720:	00009990 	muleq	r0, r0, r9
    2724:	007d0216 	rsbseq	r0, sp, r6, lsl r2
    2728:	9fa00305 	svcls	0x00a00305
    272c:	14000000 	strne	r0, [r0], #-0
    2730:	000091a4 	andeq	r9, r0, r4, lsr #3
    2734:	000006e1 	andeq	r0, r0, r1, ror #13
    2738:	00921414 	addseq	r1, r2, r4, lsl r4
    273c:	0006c400 	andeq	ip, r6, r0, lsl #8
    2740:	92281500 	eorls	r1, r8, #0, 10
    2744:	06cb0000 	strbeq	r0, [fp], r0
    2748:	05270000 	streq	r0, [r7, #-0]!
    274c:	01160000 	tsteq	r6, r0
    2750:	9b080253 	blls	2030a4 <__bss_end__+0x1f8b3c>
    2754:	05520116 	ldrbeq	r0, [r2, #-278]	; 0x116
    2758:	009f5003 	addseq	r5, pc, r3
    275c:	51011600 	tstpl	r1, r0, lsl #12
    2760:	9f5c0305 	svcls	0x005c0305
    2764:	01160000 	tsteq	r6, r0
    2768:	ac030550 	cfstr32ge	mvfx0, [r3], {80}	; 0x50
    276c:	0000009f 	muleq	r0, pc, r0	; <UNPREDICTABLE>
    2770:	00922c14 	addseq	r2, r2, r4, lsl ip
    2774:	0006e100 	andeq	lr, r6, r0, lsl #2
    2778:	92501500 	subsls	r1, r0, #0, 10
    277c:	019c0000 	orrseq	r0, ip, r0
    2780:	055d0000 	ldrbeq	r0, [sp, #-0]
    2784:	01160000 	tsteq	r6, r0
    2788:	80080252 	andhi	r0, r8, r2, asr r2
    278c:	03510116 	cmpeq	r1, #-2147483643	; 0x80000005
    2790:	167ed091 			; <UNDEFINED> instruction: 0x167ed091
    2794:	3a015001 	bcc	567a0 <__bss_end__+0x4c238>
    2798:	047d0216 	ldrbteq	r0, [sp], #-534	; 0x216
    279c:	02163101 	andseq	r3, r6, #1073741824	; 0x40000000
    27a0:	7702007d 	smlsdxvc	r2, sp, r0, r0
    27a4:	78150000 	ldmdavc	r5, {}	; <UNPREDICTABLE>
    27a8:	9c000092 	stcls	0, cr0, [r0], {146}	; 0x92
    27ac:	8a000001 	bhi	27b8 <__code_start__-0x5848>
    27b0:	16000005 	strne	r0, [r0], -r5
    27b4:	08025201 	stmdaeq	r2, {r0, r9, ip, lr}
    27b8:	51011680 	smlabbpl	r1, r0, r6, r1
    27bc:	7ed09103 	atnvcs	f1, f3
    27c0:	01500116 	cmpeq	r0, r6, lsl r1
    27c4:	7d02163a 	stcvc	6, cr1, [r2, #-232]	; 0xffffff18
    27c8:	16300104 	ldrtne	r0, [r0], -r4, lsl #2
    27cc:	02007d02 	andeq	r7, r0, #2, 26	; 0x80
    27d0:	15000077 	strne	r0, [r0, #-119]	; 0x77
    27d4:	000092a0 	andeq	r9, r0, r0, lsr #5
    27d8:	0000019c 	muleq	r0, ip, r1
    27dc:	000005b7 			; <UNDEFINED> instruction: 0x000005b7
    27e0:	02520116 	subseq	r0, r2, #-2147483643	; 0x80000005
    27e4:	01168008 	tsteq	r6, r8
    27e8:	d0910351 	addsle	r0, r1, r1, asr r3
    27ec:	5001167e 	andpl	r1, r1, lr, ror r6
    27f0:	02164001 	andseq	r4, r6, #1
    27f4:	3001047d 	andcc	r0, r1, sp, ror r4
    27f8:	007d0216 	rsbseq	r0, sp, r6, lsl r2
    27fc:	00007702 	andeq	r7, r0, r2, lsl #14
    2800:	0092c815 	addseq	ip, r2, r5, lsl r8
    2804:	00019c00 	andeq	r9, r1, r0, lsl #24
    2808:	0005e400 	andeq	lr, r5, r0, lsl #8
    280c:	52011600 	andpl	r1, r1, #0, 12
    2810:	16800802 	strne	r0, [r0], r2, lsl #16
    2814:	91035101 	tstls	r3, r1, lsl #2
    2818:	01167ed0 			; <UNDEFINED> instruction: 0x01167ed0
    281c:	16320150 			; <UNDEFINED> instruction: 0x16320150
    2820:	01047d02 	tsteq	r4, r2, lsl #26
    2824:	7d021630 	stcvc	6, cr1, [r2, #-192]	; 0xffffff40
    2828:	00770200 	rsbseq	r0, r7, r0, lsl #4
    282c:	92fc1500 	rscsls	r1, ip, #0, 10
    2830:	019c0000 	orrseq	r0, ip, r0
    2834:	06110000 	ldreq	r0, [r1], -r0
    2838:	01160000 	tsteq	r6, r0
    283c:	80080252 	andhi	r0, r8, r2, asr r2
    2840:	03510116 	cmpeq	r1, #-2147483643	; 0x80000005
    2844:	167ed091 			; <UNDEFINED> instruction: 0x167ed091
    2848:	38015001 	stmdacc	r1, {r0, ip, lr}
    284c:	047d0216 	ldrbteq	r0, [sp], #-534	; 0x216
    2850:	02163001 	andseq	r3, r6, #1
    2854:	7702007d 	smlsdxvc	r2, sp, r0, r0
    2858:	18150000 	ldmdane	r5, {}	; <UNPREDICTABLE>
    285c:	cb000093 	blgt	2ab0 <__code_start__-0x5550>
    2860:	34000006 	strcc	r0, [r0], #-6
    2864:	16000006 	strne	r0, [r0], -r6
    2868:	79025201 	stmdbvc	r2, {r0, r9, ip, lr}
    286c:	51011600 	tstpl	r1, r0, lsl #12
    2870:	16007902 	strne	r7, [r0], -r2, lsl #18
    2874:	03055001 	movweq	r5, #20481	; 0x5001
    2878:	00009fd4 	ldrdeq	r9, [r0], -r4
    287c:	93281f00 	teqls	r8, #0, 30
    2880:	06460000 	strbeq	r0, [r6], -r0
    2884:	01160000 	tsteq	r6, r0
    2888:	cc910450 	cfldrsgt	mvf0, [r1], {80}	; 0x50
    288c:	1400067e 	strne	r0, [r0], #-1662	; 0x67e
    2890:	0000932c 	andeq	r9, r0, ip, lsr #6
    2894:	000006c4 	andeq	r0, r0, r4, asr #13
    2898:	00934015 	addseq	r4, r3, r5, lsl r0
    289c:	0006cb00 	andeq	ip, r6, r0, lsl #22
    28a0:	00067e00 	andeq	r7, r6, r0, lsl #28
    28a4:	53011600 	movwpl	r1, #5632	; 0x1600
    28a8:	16bf0802 	ldrtne	r0, [pc], r2, lsl #16
    28ac:	03055201 	movweq	r5, #20993	; 0x5201
    28b0:	00009f50 	andeq	r9, r0, r0, asr pc
    28b4:	05510116 	ldrbeq	r0, [r1, #-278]	; 0x116
    28b8:	009f5c03 	addseq	r5, pc, r3, lsl #24
    28bc:	50011600 	andpl	r1, r1, r0, lsl #12
    28c0:	a0040305 	andge	r0, r4, r5, lsl #6
    28c4:	14000000 	strne	r0, [r0], #-0
    28c8:	00009344 	andeq	r9, r0, r4, asr #6
    28cc:	000006e1 	andeq	r0, r0, r1, ror #13
    28d0:	7a180000 	bvc	6028d8 <__bss_end__+0x5f8370>
    28d4:	99000000 	stmdbls	r0, {}	; <UNPREDICTABLE>
    28d8:	19000006 	stmdbne	r0, {r1, r2}
    28dc:	0000006b 	andeq	r0, r0, fp, rrx
    28e0:	89060009 	stmdbhi	r6, {r0, r3}
    28e4:	18000006 	stmdane	r0, {r1, r2}
    28e8:	0000007a 	andeq	r0, r0, sl, ror r0
    28ec:	000006ae 	andeq	r0, r0, lr, lsr #13
    28f0:	00006b19 	andeq	r6, r0, r9, lsl fp
    28f4:	20007f00 	andcs	r7, r0, r0, lsl #30
    28f8:	000005f4 	strdeq	r0, [r0], -r4
    28fc:	03a11d03 			; <UNDEFINED> instruction: 0x03a11d03
    2900:	31200000 	teqcc	r0, r0
    2904:	03000006 	movweq	r0, #6
    2908:	0003b622 	andeq	fp, r3, r2, lsr #12
    290c:	022a2100 	eoreq	r2, sl, #0, 2
    2910:	1e030000 	cdpne	0, 0, cr0, cr3, cr0, {0}
    2914:	00057d22 	andeq	r7, r5, r2, lsr #26
    2918:	25290300 	strcs	r0, [r9, #-768]!	; 0x300
    291c:	e1000000 	mrs	r0, (UNDEF: 0)
    2920:	1c000006 	stcne	0, cr0, [r0], {6}
    2924:	00000081 	andeq	r0, r0, r1, lsl #1
    2928:	ce210023 	cdpgt	0, 2, cr0, cr1, cr3, {1}
    292c:	03000000 	movweq	r0, #0
    2930:	00b80065 	adcseq	r0, r8, r5, rrx
    2934:	00040000 	andeq	r0, r4, r0
    2938:	00000bc6 	andeq	r0, r0, r6, asr #23
    293c:	05230104 	streq	r0, [r3, #-260]!	; 0x104
    2940:	a8010000 	stmdage	r1, {}	; <UNPREDICTABLE>
    2944:	8e000006 	cdphi	0, 0, cr0, cr0, cr6, {0}
    2948:	b8000005 	stmdalt	r0, {r0, r2}
    294c:	20000093 	mulcs	r0, r3, r0
    2950:	ed000000 	stc	0, cr0, [r0, #-0]
    2954:	02000009 	andeq	r0, r0, #9
    2958:	6e690504 	cdpvs	5, 6, cr0, cr9, cr4, {0}
    295c:	04030074 	streq	r0, [r3], #-116	; 0x74
    2960:	0001bd07 	andeq	fp, r1, r7, lsl #26
    2964:	06010300 	streq	r0, [r1], -r0, lsl #6
    2968:	000000c2 	andeq	r0, r0, r2, asr #1
    296c:	0f050203 	svceq	0x00050203
    2970:	03000000 	movweq	r0, #0
    2974:	01f10504 	mvnseq	r0, r4, lsl #10
    2978:	08030000 	stmdaeq	r3, {}	; <UNPREDICTABLE>
    297c:	0001ec05 	andeq	lr, r1, r5, lsl #24
    2980:	08010300 	stmdaeq	r1, {r8, r9}
    2984:	000000c0 	andeq	r0, r0, r0, asr #1
    2988:	e6070203 	str	r0, [r7], -r3, lsl #4
    298c:	03000000 	movweq	r0, #0
    2990:	01b80704 			; <UNDEFINED> instruction: 0x01b80704
    2994:	08030000 	stmdaeq	r3, {}	; <UNPREDICTABLE>
    2998:	0001b307 	andeq	fp, r1, r7, lsl #6
    299c:	07040300 	streq	r0, [r4, -r0, lsl #6]
    29a0:	000001e3 	andeq	r0, r0, r3, ror #3
    29a4:	c9080103 	stmdbgt	r8, {r0, r1, r8}
    29a8:	04000000 	streq	r0, [r0], #-0
    29ac:	0000020e 	andeq	r0, r0, lr, lsl #4
    29b0:	93b80301 			; <UNDEFINED> instruction: 0x93b80301
    29b4:	00100000 	andseq	r0, r0, r0
    29b8:	9c010000 	stcls	0, cr0, [r1], {-0}
    29bc:	0000009c 	muleq	r0, ip, r0
    29c0:	01007205 	tsteq	r0, r5, lsl #4
    29c4:	00002c04 	andeq	r2, r0, r4, lsl #24
    29c8:	000d1000 	andeq	r1, sp, r0
    29cc:	9a060000 	bls	1829d4 <__bss_end__+0x17846c>
    29d0:	01000006 	tsteq	r0, r6
    29d4:	0093c80c 	addseq	ip, r3, ip, lsl #16
    29d8:	00001000 	andeq	r1, r0, r0
    29dc:	059c0100 	ldreq	r0, [ip, #256]	; 0x100
    29e0:	0d010072 	stceq	0, cr0, [r1, #-456]	; 0xfffffe38
    29e4:	0000002c 	andeq	r0, r0, ip, lsr #32
    29e8:	00000d34 	andeq	r0, r0, r4, lsr sp
    29ec:	010f0000 	mrseq	r0, CPSR
    29f0:	00040000 	andeq	r0, r4, r0
    29f4:	00000c31 	andeq	r0, r0, r1, lsr ip
    29f8:	05230104 	streq	r0, [r3, #-260]!	; 0x104
    29fc:	c9010000 	stmdbgt	r1, {}	; <UNPREDICTABLE>
    2a00:	8e000006 	cdphi	0, 0, cr0, cr0, cr6, {0}
    2a04:	d8000005 	stmdale	r0, {r0, r2}
    2a08:	2c000093 	stccs	0, cr0, [r0], {147}	; 0x93
    2a0c:	33000000 	movwcc	r0, #0
    2a10:	0200000a 	andeq	r0, r0, #10
    2a14:	6e690504 	cdpvs	5, 6, cr0, cr9, cr4, {0}
    2a18:	04030074 	streq	r0, [r3], #-116	; 0x74
    2a1c:	0001bd07 	andeq	fp, r1, r7, lsl #26
    2a20:	06010300 	streq	r0, [r1], -r0, lsl #6
    2a24:	000000c2 	andeq	r0, r0, r2, asr #1
    2a28:	0f050203 	svceq	0x00050203
    2a2c:	03000000 	movweq	r0, #0
    2a30:	01f10504 	mvnseq	r0, r4, lsl #10
    2a34:	08030000 	stmdaeq	r3, {}	; <UNPREDICTABLE>
    2a38:	0001ec05 	andeq	lr, r1, r5, lsl #24
    2a3c:	08010300 	stmdaeq	r1, {r8, r9}
    2a40:	000000c0 	andeq	r0, r0, r0, asr #1
    2a44:	e6070203 	str	r0, [r7], -r3, lsl #4
    2a48:	03000000 	movweq	r0, #0
    2a4c:	01b80704 			; <UNDEFINED> instruction: 0x01b80704
    2a50:	08030000 	stmdaeq	r3, {}	; <UNPREDICTABLE>
    2a54:	0001b307 	andeq	fp, r1, r7, lsl #6
    2a58:	07040300 	streq	r0, [r4, -r0, lsl #6]
    2a5c:	000001e3 	andeq	r0, r0, r3, ror #3
    2a60:	c9080103 	stmdbgt	r8, {r0, r1, r8}
    2a64:	04000000 	streq	r0, [r0], #-0
    2a68:	00007f04 	andeq	r7, r0, r4, lsl #30
    2a6c:	00720500 	rsbseq	r0, r2, r0, lsl #10
    2a70:	ce060000 	cdpgt	0, 0, cr0, cr6, cr0, {0}
    2a74:	01000000 	mrseq	r0, (UNDEF: 0)
    2a78:	0093d804 	addseq	sp, r3, r4, lsl #16
    2a7c:	00002c00 	andeq	r2, r0, r0, lsl #24
    2a80:	d39c0100 	orrsle	r0, ip, #0, 2
    2a84:	07000000 	streq	r0, [r0, -r0]
    2a88:	000093e0 	andeq	r9, r0, r0, ror #7
    2a8c:	000000f3 	strdeq	r0, [r0], -r3
    2a90:	0093f008 	addseq	pc, r3, r8
    2a94:	0000b500 	andeq	fp, r0, r0, lsl #10
    2a98:	50010900 	andpl	r0, r1, r0, lsl #18
    2a9c:	a0240305 	eorge	r0, r4, r5, lsl #6
    2aa0:	0a000000 	beq	2aa8 <__code_start__-0x5558>
    2aa4:	000093f8 	strdeq	r9, [r0], -r8
    2aa8:	000000fa 	strdeq	r0, [r0], -sl
    2aac:	000000c9 	andeq	r0, r0, r9, asr #1
    2ab0:	02500109 	subseq	r0, r0, #1073741826	; 0x40000002
    2ab4:	07006408 	streq	r6, [r0, -r8, lsl #8]
    2ab8:	000093fc 	strdeq	r9, [r0], -ip
    2abc:	0000010b 	andeq	r0, r0, fp, lsl #2
    2ac0:	00250b00 	eoreq	r0, r5, r0, lsl #22
    2ac4:	00e20000 	rsceq	r0, r2, r0
    2ac8:	790c0000 	stmdbvc	ip, {}	; <UNPREDICTABLE>
    2acc:	00000000 	andeq	r0, r0, r0
    2ad0:	0006310d 	andeq	r3, r6, sp, lsl #2
    2ad4:	ed220200 	sfm	f0, 4, [r2, #-0]
    2ad8:	04000000 	streq	r0, [r0], #-0
    2adc:	0000d304 	andeq	sp, r0, r4, lsl #6
    2ae0:	06ba0e00 	ldrteq	r0, [sl], r0, lsl #28
    2ae4:	dc020000 	stcle	0, cr0, [r2], {-0}
    2ae8:	0006ed0f 	andeq	lr, r6, pc, lsl #26
    2aec:	0b4f0200 	bleq	13c32f4 <__bss_end__+0x13b8d8c>
    2af0:	0c000001 	stceq	0, cr0, [r0], {1}
    2af4:	0000002c 	andeq	r0, r0, ip, lsr #32
    2af8:	06e20e00 	strbteq	r0, [r2], r0, lsl #28
    2afc:	62020000 	andvs	r0, r2, #0
    2b00:	00010f00 	andeq	r0, r1, r0, lsl #30
    2b04:	fb000400 	blx	3b0e <__code_start__-0x44f2>
    2b08:	0400000c 	streq	r0, [r0], #-12
    2b0c:	00052301 	andeq	r2, r5, r1, lsl #6
    2b10:	072f0100 	streq	r0, [pc, -r0, lsl #2]!
    2b14:	058e0000 	streq	r0, [lr]
    2b18:	94040000 	strls	r0, [r4], #-0
    2b1c:	00380000 	eorseq	r0, r8, r0
    2b20:	0ad40000 	beq	ff502b28 <__bss_end__+0xff4f85c0>
    2b24:	04020000 	streq	r0, [r2], #-0
    2b28:	746e6905 	strbtvc	r6, [lr], #-2309	; 0x905
    2b2c:	07040300 	streq	r0, [r4, -r0, lsl #6]
    2b30:	000001bd 			; <UNDEFINED> instruction: 0x000001bd
    2b34:	c2060103 	andgt	r0, r6, #-1073741824	; 0xc0000000
    2b38:	03000000 	movweq	r0, #0
    2b3c:	000f0502 	andeq	r0, pc, r2, lsl #10
    2b40:	04030000 	streq	r0, [r3], #-0
    2b44:	0001f105 	andeq	pc, r1, r5, lsl #2
    2b48:	05080300 	streq	r0, [r8, #-768]	; 0x300
    2b4c:	000001ec 	andeq	r0, r0, ip, ror #3
    2b50:	c0080103 	andgt	r0, r8, r3, lsl #2
    2b54:	03000000 	movweq	r0, #0
    2b58:	00e60702 	rsceq	r0, r6, r2, lsl #14
    2b5c:	04030000 	streq	r0, [r3], #-0
    2b60:	0001b807 	andeq	fp, r1, r7, lsl #16
    2b64:	07080300 	streq	r0, [r8, -r0, lsl #6]
    2b68:	000001b3 			; <UNDEFINED> instruction: 0x000001b3
    2b6c:	e3070403 	movw	r0, #29699	; 0x7403
    2b70:	03000001 	movweq	r0, #1
    2b74:	00c90801 	sbceq	r0, r9, r1, lsl #16
    2b78:	27040000 	strcs	r0, [r4, -r0]
    2b7c:	01000007 	tsteq	r0, r7
    2b80:	0094040d 	addseq	r0, r4, sp, lsl #8
    2b84:	00003800 	andeq	r3, r0, r0, lsl #16
    2b88:	e19c0100 	orrs	r0, ip, r0, lsl #2
    2b8c:	05000000 	streq	r0, [r0, #-0]
    2b90:	000006f6 	strdeq	r0, [r0], -r6
    2b94:	00250e01 	eoreq	r0, r5, r1, lsl #28
    2b98:	04050000 	streq	r0, [r5], #-0
    2b9c:	01000007 	tsteq	r0, r7
    2ba0:	0000250e 	andeq	r2, r0, lr, lsl #10
    2ba4:	00870600 	addeq	r0, r7, r0, lsl #12
    2ba8:	0f010000 	svceq	0x00010000
    2bac:	73736207 	cmnvc	r3, #1879048192	; 0x70000000
    2bb0:	e1110100 	tst	r1, r0, lsl #2
    2bb4:	58000000 	stmdapl	r0, {}	; <UNPREDICTABLE>
    2bb8:	0800000d 	stmdaeq	r0, {r0, r2, r3}
    2bbc:	0000071f 	andeq	r0, r0, pc, lsl r7
    2bc0:	00e11201 	rsceq	r1, r1, r1, lsl #4
    2bc4:	2c090000 	stccs	0, cr0, [r9], {-0}
    2bc8:	fd000094 	stc2	0, cr0, [r0, #-592]	; 0xfffffdb0
    2bcc:	09000000 	stmdbeq	r0, {}	; <UNPREDICTABLE>
    2bd0:	00009430 	andeq	r9, r0, r0, lsr r4
    2bd4:	00000104 	andeq	r0, r0, r4, lsl #2
    2bd8:	00943409 	addseq	r3, r4, r9, lsl #8
    2bdc:	00010b00 	andeq	r0, r1, r0, lsl #22
    2be0:	040a0000 	streq	r0, [sl], #-0
    2be4:	00000025 	andeq	r0, r0, r5, lsr #32
    2be8:	0006f605 	andeq	pc, r6, r5, lsl #12
    2bec:	250e0100 	strcs	r0, [lr, #-256]	; 0x100
    2bf0:	05000000 	streq	r0, [r0, #-0]
    2bf4:	00000704 	andeq	r0, r0, r4, lsl #14
    2bf8:	00250e01 	eoreq	r0, r5, r1, lsl #28
    2bfc:	10060000 	andne	r0, r6, r0
    2c00:	02000007 	andeq	r0, r0, #7
    2c04:	008706da 	ldrdeq	r0, [r7], sl
    2c08:	d7020000 	strle	r0, [r2, -r0]
    2c0c:	0000ce06 	andeq	ip, r0, r6, lsl #28
    2c10:	00650200 	rsbeq	r0, r5, r0, lsl #4
    2c14:	0000013e 	andeq	r0, r0, lr, lsr r1
    2c18:	0d8f0004 	stceq	0, cr0, [pc, #16]	; 2c30 <__code_start__-0x53d0>
    2c1c:	01040000 	mrseq	r0, (UNDEF: 4)
    2c20:	00000523 	andeq	r0, r0, r3, lsr #10
    2c24:	00074201 	andeq	r4, r7, r1, lsl #4
    2c28:	00058e00 	andeq	r8, r5, r0, lsl #28
    2c2c:	00943c00 	addseq	r3, r4, r0, lsl #24
    2c30:	00004400 	andeq	r4, r0, r0, lsl #8
    2c34:	000b7e00 	andeq	r7, fp, r0, lsl #28
    2c38:	05040200 	streq	r0, [r4, #-512]	; 0x200
    2c3c:	00746e69 	rsbseq	r6, r4, r9, ror #28
    2c40:	bd070403 	cfstrslt	mvf0, [r7, #-12]
    2c44:	03000001 	movweq	r0, #1
    2c48:	00c20601 	sbceq	r0, r2, r1, lsl #12
    2c4c:	02030000 	andeq	r0, r3, #0
    2c50:	00000f05 	andeq	r0, r0, r5, lsl #30
    2c54:	05040300 	streq	r0, [r4, #-768]	; 0x300
    2c58:	000001f1 	strdeq	r0, [r0], -r1
    2c5c:	ec050803 	stc	8, cr0, [r5], {3}
    2c60:	03000001 	movweq	r0, #1
    2c64:	00c00801 	sbceq	r0, r0, r1, lsl #16
    2c68:	02030000 	andeq	r0, r3, #0
    2c6c:	0000e607 	andeq	lr, r0, r7, lsl #12
    2c70:	07040300 	streq	r0, [r4, -r0, lsl #6]
    2c74:	000001b8 			; <UNDEFINED> instruction: 0x000001b8
    2c78:	b3070803 	movwlt	r0, #30723	; 0x7803
    2c7c:	03000001 	movweq	r0, #1
    2c80:	01e30704 	mvneq	r0, r4, lsl #14
    2c84:	01030000 	mrseq	r0, (UNDEF: 3)
    2c88:	0000c908 	andeq	ip, r0, r8, lsl #18
    2c8c:	7f040400 	svcvc	0x00040400
    2c90:	05000000 	streq	r0, [r0, #-0]
    2c94:	00000072 	andeq	r0, r0, r2, ror r0
    2c98:	00076306 	andeq	r6, r7, r6, lsl #6
    2c9c:	3c020100 	stfccs	f0, [r2], {-0}
    2ca0:	44000094 	strmi	r0, [r0], #-148	; 0x94
    2ca4:	01000000 	mrseq	r0, (UNDEF: 0)
    2ca8:	0001089c 	muleq	r1, ip, r8
    2cac:	63700700 	cmnvs	r0, #0, 14
    2cb0:	2c020100 	stfcss	f0, [r2], {-0}
    2cb4:	78000000 	stmdavc	r0, {}	; <UNPREDICTABLE>
    2cb8:	0800000d 	stmdaeq	r0, {r0, r2, r3}
    2cbc:	00000110 	andeq	r0, r0, r0, lsl r1
    2cc0:	00000118 	andeq	r0, r0, r8, lsl r1
    2cc4:	a0300305 	eorsge	r0, r0, r5, lsl #6
    2cc8:	4c090000 	stcmi	0, cr0, [r9], {-0}
    2ccc:	1d000094 	stcne	0, cr0, [r0, #-592]	; 0xfffffdb0
    2cd0:	0a000001 	beq	2cdc <__code_start__-0x5324>
    2cd4:	0000946c 	andeq	r9, r0, ip, ror #8
    2cd8:	00000124 	andeq	r0, r0, r4, lsr #2
    2cdc:	000000fe 	strdeq	r0, [r0], -lr
    2ce0:	0153010b 	cmpeq	r3, fp, lsl #2
    2ce4:	52010b32 	andpl	r0, r1, #51200	; 0xc800
    2ce8:	a0300305 	eorsge	r0, r0, r5, lsl #6
    2cec:	010b0000 	mrseq	r0, (UNDEF: 11)
    2cf0:	84030551 	strhi	r0, [r3], #-1361	; 0x551
    2cf4:	0b0000a0 	bleq	2f7c <__code_start__-0x5084>
    2cf8:	03055001 	movweq	r5, #20481	; 0x5001
    2cfc:	0000a048 	andeq	sl, r0, r8, asr #32
    2d00:	047d020b 	ldrbteq	r0, [sp], #-523	; 0x20b
    2d04:	0b007402 	bleq	1fd14 <__bss_end__+0x157ac>
    2d08:	05007d02 	streq	r7, [r0, #-3330]	; 0xd02
    2d0c:	00a0a803 	adceq	sl, r0, r3, lsl #16
    2d10:	70090000 	andvc	r0, r9, r0
    2d14:	3a000094 	bcc	2f6c <__code_start__-0x5094>
    2d18:	00000001 	andeq	r0, r0, r1
    2d1c:	0000720c 	andeq	r7, r0, ip, lsl #4
    2d20:	00011800 	andeq	r1, r1, r0, lsl #16
    2d24:	006b0d00 	rsbeq	r0, fp, r0, lsl #26
    2d28:	00150000 	andseq	r0, r5, r0
    2d2c:	00010805 	andeq	r0, r1, r5, lsl #16
    2d30:	022a0e00 	eoreq	r0, sl, #0, 28
    2d34:	1e020000 	cdpne	0, 0, cr0, cr2, cr0, {0}
    2d38:	00057d0f 	andeq	r7, r5, pc, lsl #26
    2d3c:	25290200 	strcs	r0, [r9, #-512]!	; 0x200
    2d40:	3a000000 	bcc	2d48 <__code_start__-0x52b8>
    2d44:	10000001 	andne	r0, r0, r1
    2d48:	00000079 	andeq	r0, r0, r9, ror r0
    2d4c:	ce0e0011 	mcrgt	0, 0, r0, cr14, cr1, {0}
    2d50:	02000000 	andeq	r0, r0, #0
    2d54:	013e0065 	teqeq	lr, r5, rrx
    2d58:	00040000 	andeq	r0, r4, r0
    2d5c:	00000e67 	andeq	r0, r0, r7, ror #28
    2d60:	05230104 	streq	r0, [r3, #-260]!	; 0x104
    2d64:	86010000 	strhi	r0, [r1], -r0
    2d68:	8e000007 	cdphi	0, 0, cr0, cr0, cr7, {0}
    2d6c:	80000005 	andhi	r0, r0, r5
    2d70:	44000094 	strmi	r0, [r0], #-148	; 0x94
    2d74:	24000000 	strcs	r0, [r0], #-0
    2d78:	0200000c 	andeq	r0, r0, #12
    2d7c:	6e690504 	cdpvs	5, 6, cr0, cr9, cr4, {0}
    2d80:	04030074 	streq	r0, [r3], #-116	; 0x74
    2d84:	0001bd07 	andeq	fp, r1, r7, lsl #26
    2d88:	06010300 	streq	r0, [r1], -r0, lsl #6
    2d8c:	000000c2 	andeq	r0, r0, r2, asr #1
    2d90:	0f050203 	svceq	0x00050203
    2d94:	03000000 	movweq	r0, #0
    2d98:	01f10504 	mvnseq	r0, r4, lsl #10
    2d9c:	08030000 	stmdaeq	r3, {}	; <UNPREDICTABLE>
    2da0:	0001ec05 	andeq	lr, r1, r5, lsl #24
    2da4:	08010300 	stmdaeq	r1, {r8, r9}
    2da8:	000000c0 	andeq	r0, r0, r0, asr #1
    2dac:	e6070203 	str	r0, [r7], -r3, lsl #4
    2db0:	03000000 	movweq	r0, #0
    2db4:	01b80704 			; <UNDEFINED> instruction: 0x01b80704
    2db8:	08030000 	stmdaeq	r3, {}	; <UNPREDICTABLE>
    2dbc:	0001b307 	andeq	fp, r1, r7, lsl #6
    2dc0:	07040300 	streq	r0, [r4, -r0, lsl #6]
    2dc4:	000001e3 	andeq	r0, r0, r3, ror #3
    2dc8:	c9080103 	stmdbgt	r8, {r0, r1, r8}
    2dcc:	04000000 	streq	r0, [r0], #-0
    2dd0:	00007f04 	andeq	r7, r0, r4, lsl #30
    2dd4:	00720500 	rsbseq	r0, r2, r0, lsl #10
    2dd8:	79060000 	stmdbvc	r6, {}	; <UNPREDICTABLE>
    2ddc:	01000007 	tsteq	r0, r7
    2de0:	00948002 	addseq	r8, r4, r2
    2de4:	00004400 	andeq	r4, r0, r0, lsl #8
    2de8:	089c0100 	ldmeq	ip, {r8}
    2dec:	07000001 	streq	r0, [r0, -r1]
    2df0:	01006370 	tsteq	r0, r0, ror r3
    2df4:	00002c02 	andeq	r2, r0, r2, lsl #24
    2df8:	000d9600 	andeq	r9, sp, r0, lsl #12
    2dfc:	01100800 	tsteq	r0, r0, lsl #16
    2e00:	01180000 	tsteq	r8, r0
    2e04:	03050000 	movweq	r0, #20480	; 0x5000
    2e08:	0000a0b0 	strheq	sl, [r0], -r0
    2e0c:	00949009 	addseq	r9, r4, r9
    2e10:	00011d00 	andeq	r1, r1, r0, lsl #26
    2e14:	94b00a00 	ldrtls	r0, [r0], #2560	; 0xa00
    2e18:	01240000 	teqeq	r4, r0
    2e1c:	00fe0000 	rscseq	r0, lr, r0
    2e20:	010b0000 	mrseq	r0, (UNDEF: 11)
    2e24:	0b320153 	bleq	c83378 <__bss_end__+0xc78e10>
    2e28:	03055201 	movweq	r5, #20993	; 0x5201
    2e2c:	0000a0b0 	strheq	sl, [r0], -r0
    2e30:	0551010b 	ldrbeq	r0, [r1, #-267]	; 0x10b
    2e34:	00a0c003 	adceq	ip, r0, r3
    2e38:	50010b00 	andpl	r0, r1, r0, lsl #22
    2e3c:	a0480305 	subge	r0, r8, r5, lsl #6
    2e40:	020b0000 	andeq	r0, fp, #0
    2e44:	7402047d 	strvc	r0, [r2], #-1149	; 0x47d
    2e48:	7d020b00 	vstrvc	d0, [r2, #-0]
    2e4c:	e4030500 	str	r0, [r3], #-1280	; 0x500
    2e50:	000000a0 	andeq	r0, r0, r0, lsr #1
    2e54:	0094b409 	addseq	fp, r4, r9, lsl #8
    2e58:	00013a00 	andeq	r3, r1, r0, lsl #20
    2e5c:	720c0000 	andvc	r0, ip, #0
    2e60:	18000000 	stmdane	r0, {}	; <UNPREDICTABLE>
    2e64:	0d000001 	stceq	0, cr0, [r0, #-4]
    2e68:	0000006b 	andeq	r0, r0, fp, rrx
    2e6c:	0805000c 	stmdaeq	r5, {r2, r3}
    2e70:	0e000001 	cdpeq	0, 0, cr0, cr0, cr1, {0}
    2e74:	0000022a 	andeq	r0, r0, sl, lsr #4
    2e78:	7d0f1e02 	stcvc	14, cr1, [pc, #-8]	; 2e78 <__code_start__-0x5188>
    2e7c:	02000005 	andeq	r0, r0, #5
    2e80:	00002529 	andeq	r2, r0, r9, lsr #10
    2e84:	00013a00 	andeq	r3, r1, r0, lsl #20
    2e88:	00791000 	rsbseq	r1, r9, r0
    2e8c:	00110000 	andseq	r0, r1, r0
    2e90:	0000ce0e 	andeq	ip, r0, lr, lsl #28
    2e94:	00650200 	rsbeq	r0, r5, r0, lsl #4
    2e98:	0000013e 	andeq	r0, r0, lr, lsr r1
    2e9c:	0f3f0004 	svceq	0x003f0004
    2ea0:	01040000 	mrseq	r0, (UNDEF: 4)
    2ea4:	00000523 	andeq	r0, r0, r3, lsr #10
    2ea8:	0007a801 	andeq	sl, r7, r1, lsl #16
    2eac:	00058e00 	andeq	r8, r5, r0, lsl #28
    2eb0:	0094c400 	addseq	ip, r4, r0, lsl #8
    2eb4:	00004400 	andeq	r4, r0, r0, lsl #8
    2eb8:	000ccb00 	andeq	ip, ip, r0, lsl #22
    2ebc:	05040200 	streq	r0, [r4, #-512]	; 0x200
    2ec0:	00746e69 	rsbseq	r6, r4, r9, ror #28
    2ec4:	bd070403 	cfstrslt	mvf0, [r7, #-12]
    2ec8:	03000001 	movweq	r0, #1
    2ecc:	00c20601 	sbceq	r0, r2, r1, lsl #12
    2ed0:	02030000 	andeq	r0, r3, #0
    2ed4:	00000f05 	andeq	r0, r0, r5, lsl #30
    2ed8:	05040300 	streq	r0, [r4, #-768]	; 0x300
    2edc:	000001f1 	strdeq	r0, [r0], -r1
    2ee0:	ec050803 	stc	8, cr0, [r5], {3}
    2ee4:	03000001 	movweq	r0, #1
    2ee8:	00c00801 	sbceq	r0, r0, r1, lsl #16
    2eec:	02030000 	andeq	r0, r3, #0
    2ef0:	0000e607 	andeq	lr, r0, r7, lsl #12
    2ef4:	07040300 	streq	r0, [r4, -r0, lsl #6]
    2ef8:	000001b8 			; <UNDEFINED> instruction: 0x000001b8
    2efc:	b3070803 	movwlt	r0, #30723	; 0x7803
    2f00:	03000001 	movweq	r0, #1
    2f04:	01e30704 	mvneq	r0, r4, lsl #14
    2f08:	01030000 	mrseq	r0, (UNDEF: 3)
    2f0c:	0000c908 	andeq	ip, r0, r8, lsl #18
    2f10:	7f040400 	svcvc	0x00040400
    2f14:	05000000 	streq	r0, [r0, #-0]
    2f18:	00000072 	andeq	r0, r0, r2, ror r0
    2f1c:	0007d306 	andeq	sp, r7, r6, lsl #6
    2f20:	c4020100 	strgt	r0, [r2], #-256	; 0x100
    2f24:	44000094 	strmi	r0, [r0], #-148	; 0x94
    2f28:	01000000 	mrseq	r0, (UNDEF: 0)
    2f2c:	0001089c 	muleq	r1, ip, r8
    2f30:	63700700 	cmnvs	r0, #0, 14
    2f34:	2c020100 	stfcss	f0, [r2], {-0}
    2f38:	b4000000 	strlt	r0, [r0], #-0
    2f3c:	0800000d 	stmdaeq	r0, {r0, r2, r3}
    2f40:	00000110 	andeq	r0, r0, r0, lsl r1
    2f44:	00000118 	andeq	r0, r0, r8, lsl r1
    2f48:	a0ec0305 	rscge	r0, ip, r5, lsl #6
    2f4c:	d4090000 	strle	r0, [r9], #-0
    2f50:	1d000094 	stcne	0, cr0, [r0, #-592]	; 0xfffffdb0
    2f54:	0a000001 	beq	2f60 <__code_start__-0x50a0>
    2f58:	000094f4 	strdeq	r9, [r0], -r4
    2f5c:	00000124 	andeq	r0, r0, r4, lsr #2
    2f60:	000000fe 	strdeq	r0, [r0], -lr
    2f64:	0153010b 	cmpeq	r3, fp, lsl #2
    2f68:	52010b32 	andpl	r0, r1, #51200	; 0xc800
    2f6c:	a0ec0305 	rscge	r0, ip, r5, lsl #6
    2f70:	010b0000 	mrseq	r0, (UNDEF: 11)
    2f74:	0c030551 	cfstr32eq	mvfx0, [r3], {81}	; 0x51
    2f78:	0b0000a1 	bleq	3204 <__code_start__-0x4dfc>
    2f7c:	03055001 	movweq	r5, #20481	; 0x5001
    2f80:	0000a048 	andeq	sl, r0, r8, asr #32
    2f84:	047d020b 	ldrbteq	r0, [sp], #-523	; 0x20b
    2f88:	0b007402 	bleq	1ff98 <__bss_end__+0x15a30>
    2f8c:	05007d02 	streq	r7, [r0, #-3330]	; 0xd02
    2f90:	00a13803 	adceq	r3, r1, r3, lsl #16
    2f94:	f8090000 			; <UNDEFINED> instruction: 0xf8090000
    2f98:	3a000094 	bcc	31f0 <__code_start__-0x4e10>
    2f9c:	00000001 	andeq	r0, r0, r1
    2fa0:	0000720c 	andeq	r7, r0, ip, lsl #4
    2fa4:	00011800 	andeq	r1, r1, r0, lsl #16
    2fa8:	006b0d00 	rsbeq	r0, fp, r0, lsl #26
    2fac:	001c0000 	andseq	r0, ip, r0
    2fb0:	00010805 	andeq	r0, r1, r5, lsl #16
    2fb4:	022a0e00 	eoreq	r0, sl, #0, 28
    2fb8:	1e020000 	cdpne	0, 0, cr0, cr2, cr0, {0}
    2fbc:	00057d0f 	andeq	r7, r5, pc, lsl #26
    2fc0:	25290200 	strcs	r0, [r9, #-512]!	; 0x200
    2fc4:	3a000000 	bcc	2fcc <__code_start__-0x5034>
    2fc8:	10000001 	andne	r0, r0, r1
    2fcc:	00000079 	andeq	r0, r0, r9, ror r0
    2fd0:	ce0e0011 	mcrgt	0, 0, r0, cr14, cr1, {0}
    2fd4:	02000000 	andeq	r0, r0, #0
    2fd8:	00980065 	addseq	r0, r8, r5, rrx
    2fdc:	00040000 	andeq	r0, r4, r0
    2fe0:	00001017 	andeq	r1, r0, r7, lsl r0
    2fe4:	05230104 	streq	r0, [r3, #-260]!	; 0x104
    2fe8:	f0010000 			; <UNDEFINED> instruction: 0xf0010000
    2fec:	8e000007 	cdphi	0, 0, cr0, cr0, cr7, {0}
    2ff0:	08000005 	stmdaeq	r0, {r0, r2}
    2ff4:	08000095 	stmdaeq	r0, {r0, r2, r4, r7}
    2ff8:	7b000000 	blvc	3000 <__code_start__-0x5000>
    2ffc:	0200000d 	andeq	r0, r0, #13
    3000:	6e690504 	cdpvs	5, 6, cr0, cr9, cr4, {0}
    3004:	04030074 	streq	r0, [r3], #-116	; 0x74
    3008:	0001bd07 	andeq	fp, r1, r7, lsl #26
    300c:	06010300 	streq	r0, [r1], -r0, lsl #6
    3010:	000000c2 	andeq	r0, r0, r2, asr #1
    3014:	0f050203 	svceq	0x00050203
    3018:	03000000 	movweq	r0, #0
    301c:	01f10504 	mvnseq	r0, r4, lsl #10
    3020:	08030000 	stmdaeq	r3, {}	; <UNPREDICTABLE>
    3024:	0001ec05 	andeq	lr, r1, r5, lsl #24
    3028:	08010300 	stmdaeq	r1, {r8, r9}
    302c:	000000c0 	andeq	r0, r0, r0, asr #1
    3030:	e6070203 	str	r0, [r7], -r3, lsl #4
    3034:	03000000 	movweq	r0, #0
    3038:	01b80704 			; <UNDEFINED> instruction: 0x01b80704
    303c:	08030000 	stmdaeq	r3, {}	; <UNPREDICTABLE>
    3040:	0001b307 	andeq	fp, r1, r7, lsl #6
    3044:	07040300 	streq	r0, [r4, -r0, lsl #6]
    3048:	000001e3 	andeq	r0, r0, r3, ror #3
    304c:	c9080103 	stmdbgt	r8, {r0, r1, r8}
    3050:	04000000 	streq	r0, [r0], #-0
    3054:	00000710 	andeq	r0, r0, r0, lsl r7
    3058:	95080401 	strls	r0, [r8, #-1025]	; 0x401
    305c:	00040000 	andeq	r0, r4, r0
    3060:	9c010000 	stcls	0, cr0, [r1], {-0}
    3064:	0006ba04 	andeq	fp, r6, r4, lsl #20
    3068:	0c050100 	stfeqs	f0, [r5], {-0}
    306c:	04000095 	streq	r0, [r0], #-149	; 0x95
    3070:	01000000 	mrseq	r0, (UNDEF: 0)
    3074:	01d7009c 			; <UNDEFINED> instruction: 0x01d7009c
    3078:	00040000 	andeq	r0, r4, r0
    307c:	00001059 	andeq	r1, r0, r9, asr r0
    3080:	05230104 	streq	r0, [r3, #-260]!	; 0x104
    3084:	ac010000 	stcge	0, cr0, [r1], {-0}
    3088:	8e000008 	cdphi	0, 0, cr0, cr0, cr8, {0}
    308c:	10000005 	andne	r0, r0, r5
    3090:	6c000095 	stcvs	0, cr0, [r0], {149}	; 0x95
    3094:	c6000000 	strgt	r0, [r0], -r0
    3098:	0200000d 	andeq	r0, r0, #13
    309c:	6e690504 	cdpvs	5, 6, cr0, cr9, cr4, {0}
    30a0:	04030074 	streq	r0, [r3], #-116	; 0x74
    30a4:	0001bd07 	andeq	fp, r1, r7, lsl #26
    30a8:	06010300 	streq	r0, [r1], -r0, lsl #6
    30ac:	000000c2 	andeq	r0, r0, r2, asr #1
    30b0:	0f050203 	svceq	0x00050203
    30b4:	03000000 	movweq	r0, #0
    30b8:	01f10504 	mvnseq	r0, r4, lsl #10
    30bc:	08030000 	stmdaeq	r3, {}	; <UNPREDICTABLE>
    30c0:	0001ec05 	andeq	lr, r1, r5, lsl #24
    30c4:	08010300 	stmdaeq	r1, {r8, r9}
    30c8:	000000c0 	andeq	r0, r0, r0, asr #1
    30cc:	e6070203 	str	r0, [r7], -r3, lsl #4
    30d0:	03000000 	movweq	r0, #0
    30d4:	01b80704 			; <UNDEFINED> instruction: 0x01b80704
    30d8:	08030000 	stmdaeq	r3, {}	; <UNPREDICTABLE>
    30dc:	0001b307 	andeq	fp, r1, r7, lsl #6
    30e0:	07040300 	streq	r0, [r4, -r0, lsl #6]
    30e4:	000001e3 	andeq	r0, r0, r3, ror #3
    30e8:	c9080103 	stmdbgt	r8, {r0, r1, r8}
    30ec:	04000000 	streq	r0, [r0], #-0
    30f0:	f0140204 			; <UNDEFINED> instruction: 0xf0140204
    30f4:	05000000 	streq	r0, [r0, #-0]
    30f8:	000008c5 	andeq	r0, r0, r5, asr #17
    30fc:	8082e480 	addhi	lr, r2, r0, lsl #9
    3100:	084b0502 	stmdaeq	fp, {r1, r8, sl}^
    3104:	e4800000 	str	r0, [r0], #0
    3108:	05028082 	streq	r8, [r2, #-130]	; 0x82
    310c:	000008f2 	strdeq	r0, [r0], -r2
    3110:	8082e484 	addhi	lr, r2, r4, lsl #9
    3114:	080d0502 	stmdaeq	sp, {r1, r8, sl}
    3118:	e4880000 	str	r0, [r8], #0
    311c:	05028082 	streq	r8, [r2, #-130]	; 0x82
    3120:	0000082e 	andeq	r0, r0, lr, lsr #16
    3124:	8082e48c 	addhi	lr, r2, ip, lsl #9
    3128:	086f0502 	stmdaeq	pc!, {r1, r8, sl}^	; <UNPREDICTABLE>
    312c:	e4900000 	ldr	r0, [r0], #0
    3130:	05028082 	streq	r8, [r2, #-130]	; 0x82
    3134:	0000087d 	andeq	r0, r0, sp, ror r8
    3138:	8082e494 	umullhi	lr, r2, r4, r4
    313c:	085d0502 	ldmdaeq	sp, {r1, r8, sl}^
    3140:	e4980000 	ldr	r0, [r8], #0
    3144:	05028082 	streq	r8, [r2, #-130]	; 0x82
    3148:	000008d4 	ldrdeq	r0, [r0], -r4
    314c:	8082e49c 	umullhi	lr, r2, ip, r4
    3150:	08e30502 	stmiaeq	r3!, {r1, r8, sl}^
    3154:	e4a00000 	strt	r0, [r0], #0
    3158:	05028082 	streq	r8, [r2, #-130]	; 0x82
    315c:	0000081b 	andeq	r0, r0, fp, lsl r8
    3160:	8082e4a4 	addhi	lr, r2, r4, lsr #9
    3164:	1c060002 	stcne	0, cr0, [r6], {2}
    3168:	01000004 	tsteq	r0, r4
    316c:	0095101b 	addseq	r1, r5, fp, lsl r0
    3170:	00006c00 	andeq	r6, r0, r0, lsl #24
    3174:	a59c0100 	ldrge	r0, [ip, #256]	; 0x100
    3178:	07000001 	streq	r0, [r0, -r1]
    317c:	0000083a 	andeq	r0, r0, sl, lsr r8
    3180:	002c2301 	eoreq	r2, ip, r1, lsl #6
    3184:	8b070000 	blhi	1c318c <__bss_end__+0x1b8c24>
    3188:	01000008 	tsteq	r0, r8
    318c:	00002c24 	andeq	r2, r0, r4, lsr #24
    3190:	73640800 	cmnvc	r4, #0, 16
    3194:	27010074 	smlsdxcs	r1, r4, r0, r0
    3198:	000001a5 	andeq	r0, r0, r5, lsr #3
    319c:	72730900 	rsbsvc	r0, r3, #0, 18
    31a0:	28010063 	stmdacs	r1, {r0, r1, r5, r6}
    31a4:	000001a5 	andeq	r0, r0, r5, lsr #3
    31a8:	01006e0a 	tsteq	r0, sl, lsl #28
    31ac:	00002c29 	andeq	r2, r0, r9, lsr #24
    31b0:	0b500100 	bleq	14035b8 <__bss_end__+0x13f9050>
    31b4:	00009544 	andeq	r9, r0, r4, asr #10
    31b8:	00000024 	andeq	r0, r0, r4, lsr #32
    31bc:	00000158 	andeq	r0, r0, r8, asr r1
    31c0:	0100690c 	tsteq	r0, ip, lsl #18
    31c4:	0000252a 	andeq	r2, r0, sl, lsr #10
    31c8:	000dd200 	andeq	sp, sp, r0, lsl #4
    31cc:	180d0000 	stmdane	sp, {}	; <UNPREDICTABLE>
    31d0:	c1000095 	swpgt	r0, r5, [r0]	; <UNPREDICTABLE>
    31d4:	0e000001 	cdpeq	0, 0, cr0, cr0, cr1, {0}
    31d8:	00009524 	andeq	r9, r0, r4, lsr #10
    31dc:	000001c8 	andeq	r0, r0, r8, asr #3
    31e0:	0000017e 	andeq	r0, r0, lr, ror r1
    31e4:	0251010f 	subseq	r0, r1, #-1073741821	; 0xc0000003
    31e8:	010fff09 	tsteq	pc, r9, lsl #30
    31ec:	1c0c0550 	cfstr32ne	mvfx0, [ip], {80}	; 0x50
    31f0:	002000b2 	strhteq	r0, [r0], -r2
    31f4:	0095300e 	addseq	r3, r5, lr
    31f8:	0001c800 	andeq	ip, r1, r0, lsl #16
    31fc:	00019b00 	andeq	r9, r1, r0, lsl #22
    3200:	51010f00 	tstpl	r1, r0, lsl #30
    3204:	0fff0902 	svceq	0x00ff0902
    3208:	0c055001 	stceq	0, cr5, [r5], {1}
    320c:	2000b220 	andcs	fp, r0, r0, lsr #4
    3210:	95340d00 	ldrls	r0, [r4, #-3328]!	; 0xd00
    3214:	01c10000 	biceq	r0, r1, r0
    3218:	10000000 	andne	r0, r0, r0
    321c:	00002c04 	andeq	r2, r0, r4, lsl #24
    3220:	083a0700 	ldmdaeq	sl!, {r8, r9, sl}
    3224:	23010000 	movwcs	r0, #4096	; 0x1000
    3228:	0000002c 	andeq	r0, r0, ip, lsr #32
    322c:	00088b07 	andeq	r8, r8, r7, lsl #22
    3230:	2c240100 	stfcss	f0, [r4], #-0
    3234:	11000000 	mrsne	r0, (UNDEF: 0)
    3238:	000008a0 	andeq	r0, r0, r0, lsr #17
    323c:	ce128903 	cdpgt	9, 1, cr8, cr2, cr3, {0}
    3240:	03000008 	movweq	r0, #8
    3244:	002c139b 	mlaeq	ip, fp, r3, r1
    3248:	2c130000 	ldccs	0, cr0, [r3], {-0}
    324c:	00000000 	andeq	r0, r0, r0
    3250:	0001ad00 	andeq	sl, r1, r0, lsl #26
    3254:	5f000400 	svcpl	0x00000400
    3258:	04000011 	streq	r0, [r0], #-17
    325c:	00052301 	andeq	r2, r5, r1, lsl #6
    3260:	090e0100 	stmdbeq	lr, {r8}
    3264:	058e0000 	streq	r0, [lr]
	...
    3270:	0e930000 	cdpeq	0, 9, cr0, cr3, cr0, {0}
    3274:	04020000 	streq	r0, [r2], #-0
    3278:	746e6905 	strbtvc	r6, [lr], #-2309	; 0x905
    327c:	07040300 	streq	r0, [r4, -r0, lsl #6]
    3280:	000001bd 			; <UNDEFINED> instruction: 0x000001bd
    3284:	c2060103 	andgt	r0, r6, #-1073741824	; 0xc0000000
    3288:	03000000 	movweq	r0, #0
    328c:	000f0502 	andeq	r0, pc, r2, lsl #10
    3290:	04030000 	streq	r0, [r3], #-0
    3294:	0001f105 	andeq	pc, r1, r5, lsl #2
    3298:	05080300 	streq	r0, [r8, #-768]	; 0x300
    329c:	000001ec 	andeq	r0, r0, ip, ror #3
    32a0:	c0080103 	andgt	r0, r8, r3, lsl #2
    32a4:	03000000 	movweq	r0, #0
    32a8:	00e60702 	rsceq	r0, r6, r2, lsl #14
    32ac:	04030000 	streq	r0, [r3], #-0
    32b0:	0001b807 	andeq	fp, r1, r7, lsl #16
    32b4:	07080300 	streq	r0, [r8, -r0, lsl #6]
    32b8:	000001b3 			; <UNDEFINED> instruction: 0x000001b3
    32bc:	e3070403 	movw	r0, #29699	; 0x7403
    32c0:	03000001 	movweq	r0, #1
    32c4:	00c90801 	sbceq	r0, r9, r1, lsl #16
    32c8:	00040000 	andeq	r0, r4, r0
    32cc:	01000009 	tsteq	r0, r9
    32d0:	0000250e 	andeq	r2, r0, lr, lsl #10
    32d4:	00957c00 	addseq	r7, r5, r0, lsl #24
    32d8:	00001800 	andeq	r1, r0, r0, lsl #16
    32dc:	a29c0100 	addsge	r0, ip, #0, 2
    32e0:	05000000 	streq	r0, [r0, #-0]
    32e4:	000004e3 	andeq	r0, r0, r3, ror #9
    32e8:	002c0f01 	eoreq	r0, ip, r1, lsl #30
    32ec:	0df10000 	ldcleq	0, cr0, [r1]
    32f0:	06000000 	streq	r0, [r0], -r0
    32f4:	00000942 	andeq	r0, r0, r2, asr #18
    32f8:	95941701 	ldrls	r1, [r4, #1793]	; 0x701
    32fc:	00140000 	andseq	r0, r4, r0
    3300:	9c010000 	stcls	0, cr0, [r1], {-0}
    3304:	000000c7 	andeq	r0, r0, r7, asr #1
    3308:	0004e305 	andeq	lr, r4, r5, lsl #6
    330c:	2c180100 	ldfcss	f0, [r8], {-0}
    3310:	10000000 	andne	r0, r0, r0
    3314:	0000000e 	andeq	r0, r0, lr
    3318:	0006e206 	andeq	lr, r6, r6, lsl #4
    331c:	a81f0100 	ldmdage	pc, {r8}	; <UNPREDICTABLE>
    3320:	48000095 	stmdami	r0, {r0, r2, r4, r7}
    3324:	01000000 	mrseq	r0, (UNDEF: 0)
    3328:	0001779c 	muleq	r1, ip, r7
    332c:	095d0700 	ldmdbeq	sp, {r8, r9, sl}^
    3330:	2a010000 	bcs	43338 <__bss_end__+0x38dd0>
    3334:	00000177 	andeq	r0, r0, r7, ror r1
    3338:	2010001c 	andscs	r0, r0, ip, lsl r0
    333c:	00093a07 	andeq	r3, r9, r7, lsl #20
    3340:	772b0100 	strvc	r0, [fp, -r0, lsl #2]!
    3344:	24000001 	strcs	r0, [r0], #-1
    3348:	07201000 	streq	r1, [r0, -r0]!
    334c:	00000951 	andeq	r0, r0, r1, asr r9
    3350:	01772c01 	cmneq	r7, r1, lsl #24
    3354:	00000000 	andeq	r0, r0, r0
    3358:	21085a00 	tstcs	r8, r0, lsl #20
    335c:	01000009 	tsteq	r0, r9
    3360:	0001772d 	andeq	r7, r1, sp, lsr #14
    3364:	b0092000 	andlt	r2, r9, r0
    3368:	79000095 	stmdbvc	r0, {r0, r2, r4, r7}
    336c:	09000000 	stmdbeq	r0, {}	; <UNPREDICTABLE>
    3370:	000095bc 			; <UNDEFINED> instruction: 0x000095bc
    3374:	000000a2 	andeq	r0, r0, r2, lsr #1
    3378:	0095c40a 	addseq	ip, r5, sl, lsl #8
    337c:	00018d00 	andeq	r8, r1, r0, lsl #26
    3380:	00013a00 	andeq	r3, r1, r0, lsl #20
    3384:	50010b00 	andpl	r0, r1, r0, lsl #22
    3388:	0a004e01 	beq	16b94 <__bss_end__+0xc62c>
    338c:	000095d0 	ldrdeq	r9, [r0], -r0
    3390:	0000019e 	muleq	r0, lr, r1
    3394:	0000015a 	andeq	r0, r0, sl, asr r1
    3398:	0551010b 	ldrbeq	r0, [r1, #-267]	; 0x10b
    339c:	0000010c 	andeq	r0, r0, ip, lsl #2
    33a0:	50010b5a 	andpl	r0, r1, sl, asr fp
    33a4:	00240c05 	eoreq	r0, r4, r5, lsl #24
    33a8:	0c002010 	stceq	0, cr2, [r0], {16}
    33ac:	000095dc 	ldrdeq	r9, [r0], -ip
    33b0:	0000019e 	muleq	r0, lr, r1
    33b4:	0551010b 	ldrbeq	r0, [r1, #-267]	; 0x10b
    33b8:	0000200c 	andeq	r2, r0, ip
    33bc:	50010b5a 	andpl	r0, r1, sl, asr fp
    33c0:	001c0c05 	andseq	r0, ip, r5, lsl #24
    33c4:	00002010 	andeq	r2, r0, r0, lsl r0
    33c8:	0000250d 	andeq	r2, r0, sp, lsl #10
    33cc:	09030800 	stmdbeq	r3, {fp}
    33d0:	0d010000 	stceq	0, cr0, [r1, #-0]
    33d4:	00000188 	andeq	r0, r0, r8, lsl #3
    33d8:	002c0d10 	eoreq	r0, ip, r0, lsl sp
    33dc:	ed0e0000 	stc	0, cr0, [lr, #-0]
    33e0:	02000006 	andeq	r0, r0, #6
    33e4:	00019e4f 	andeq	r9, r1, pc, asr #28
    33e8:	002c0f00 	eoreq	r0, ip, r0, lsl #30
    33ec:	10000000 	andne	r0, r0, r0
    33f0:	000008ce 	andeq	r0, r0, lr, asr #17
    33f4:	2c0f9b02 	stccs	11, cr9, [pc], {2}
    33f8:	0f000000 	svceq	0x00000000
    33fc:	0000002c 	andeq	r0, r0, ip, lsr #32
    3400:	01f70000 	mvnseq	r0, r0
    3404:	00040000 	andeq	r0, r4, r0
    3408:	0000124d 	andeq	r1, r0, sp, asr #4
    340c:	05230104 	streq	r0, [r3, #-260]!	; 0x104
    3410:	82010000 	andhi	r0, r1, #0
    3414:	8e000009 	cdphi	0, 0, cr0, cr0, cr9, {0}
    3418:	f0000005 			; <UNDEFINED> instruction: 0xf0000005
    341c:	98000095 	stmdals	r0, {r0, r2, r4, r7}
    3420:	39000000 	stmdbcc	r0, {}	; <UNPREDICTABLE>
    3424:	0200000f 	andeq	r0, r0, #15
    3428:	6e690504 	cdpvs	5, 6, cr0, cr9, cr4, {0}
    342c:	04030074 	streq	r0, [r3], #-116	; 0x74
    3430:	0001bd07 	andeq	fp, r1, r7, lsl #26
    3434:	06010300 	streq	r0, [r1], -r0, lsl #6
    3438:	000000c2 	andeq	r0, r0, r2, asr #1
    343c:	0f050203 	svceq	0x00050203
    3440:	03000000 	movweq	r0, #0
    3444:	01f10504 	mvnseq	r0, r4, lsl #10
    3448:	08030000 	stmdaeq	r3, {}	; <UNPREDICTABLE>
    344c:	0001ec05 	andeq	lr, r1, r5, lsl #24
    3450:	08010300 	stmdaeq	r1, {r8, r9}
    3454:	000000c0 	andeq	r0, r0, r0, asr #1
    3458:	e6070203 	str	r0, [r7], -r3, lsl #4
    345c:	03000000 	movweq	r0, #0
    3460:	01b80704 			; <UNDEFINED> instruction: 0x01b80704
    3464:	08030000 	stmdaeq	r3, {}	; <UNPREDICTABLE>
    3468:	0001b307 	andeq	fp, r1, r7, lsl #6
    346c:	07040300 	streq	r0, [r4, -r0, lsl #6]
    3470:	000001e3 	andeq	r0, r0, r3, ror #3
    3474:	c9080103 	stmdbgt	r8, {r0, r1, r8}
    3478:	04000000 	streq	r0, [r0], #-0
    347c:	000009a0 	andeq	r0, r0, r0, lsr #19
    3480:	95f00501 	ldrbls	r0, [r0, #1281]!	; 0x501
    3484:	001c0000 	andseq	r0, ip, r0
    3488:	9c010000 	stcls	0, cr0, [r1], {-0}
    348c:	0000009e 	muleq	r0, lr, r0
    3490:	00099a05 	andeq	r9, r9, r5, lsl #20
    3494:	2c050100 	stfcss	f0, [r5], {-0}
    3498:	3a000000 	bcc	34a0 <__code_start__-0x4b60>
    349c:	0000000e 	andeq	r0, r0, lr
    34a0:	00096506 	andeq	r6, r9, r6, lsl #10
    34a4:	2c110100 	ldfcss	f0, [r1], {-0}
    34a8:	0c000000 	stceq	0, cr0, [r0], {-0}
    34ac:	14000096 	strne	r0, [r0], #-150	; 0x96
    34b0:	01000000 	mrseq	r0, (UNDEF: 0)
    34b4:	0000cb9c 	muleq	r0, ip, fp
    34b8:	96180700 	ldrls	r0, [r8], -r0, lsl #14
    34bc:	01de0000 	bicseq	r0, lr, r0
    34c0:	01080000 	mrseq	r0, (UNDEF: 8)
    34c4:	040c0550 	streq	r0, [ip], #-1360	; 0x550
    34c8:	00200030 	eoreq	r0, r0, r0, lsr r0
    34cc:	09b60600 	ldmibeq	r6!, {r9, sl}
    34d0:	16010000 	strne	r0, [r1], -r0
    34d4:	0000002c 	andeq	r0, r0, ip, lsr #32
    34d8:	00009620 	andeq	r9, r0, r0, lsr #12
    34dc:	0000001c 	andeq	r0, r0, ip, lsl r0
    34e0:	010d9c01 	tsteq	sp, r1, lsl #24
    34e4:	75090000 	strvc	r0, [r9, #-0]
    34e8:	2c1a0100 	ldfcss	f0, [sl], {-0}
    34ec:	6e000000 	cdpvs	0, 0, cr0, cr0, cr0, {0}
    34f0:	0a00000e 	beq	3530 <__code_start__-0x4ad0>
    34f4:	00009628 	andeq	r9, r0, r8, lsr #12
    34f8:	000001f3 	strdeq	r0, [r0], -r3
    34fc:	00962c0a 	addseq	r2, r6, sl, lsl #24
    3500:	00009e00 	andeq	r9, r0, r0, lsl #28
    3504:	96340a00 	ldrtls	r0, [r4], -r0, lsl #20
    3508:	01f30000 	mvnseq	r0, r0
    350c:	04000000 	streq	r0, [r0], #-0
    3510:	000009ad 	andeq	r0, r0, sp, lsr #19
    3514:	963c1f01 	ldrtls	r1, [ip], -r1, lsl #30
    3518:	00240000 	eoreq	r0, r4, r0
    351c:	9c010000 	stcls	0, cr0, [r1], {-0}
    3520:	0000016b 	andeq	r0, r0, fp, ror #2
    3524:	0073750b 	rsbseq	r7, r3, fp, lsl #10
    3528:	002c1f01 	eoreq	r1, ip, r1, lsl #30
    352c:	0e8c0000 	cdpeq	0, 8, cr0, cr12, cr0, {0}
    3530:	720c0000 	andvc	r0, ip, #0
    3534:	20010062 	andcs	r0, r1, r2, rrx
    3538:	0000002c 	andeq	r0, r0, ip, lsr #32
    353c:	4c0d5401 	cfstrsmi	mvf5, [sp], {1}
    3540:	10000096 	mulne	r0, r6, r0
    3544:	61000000 	mrsvs	r0, (UNDEF: 0)
    3548:	09000001 	stmdbeq	r0, {r0}
    354c:	01006172 	tsteq	r0, r2, ror r1
    3550:	00002c22 	andeq	r2, r0, r2, lsr #24
    3554:	000eaa00 	andeq	sl, lr, r0, lsl #20
    3558:	96500a00 	ldrbls	r0, [r0], -r0, lsl #20
    355c:	00cb0000 	sbceq	r0, fp, r0
    3560:	0a000000 	beq	3568 <__code_start__-0x4a98>
    3564:	00009648 	andeq	r9, r0, r8, asr #12
    3568:	000000cb 	andeq	r0, r0, fp, asr #1
    356c:	06ed0400 	strbteq	r0, [sp], r0, lsl #8
    3570:	28010000 	stmdacs	r1, {}	; <UNPREDICTABLE>
    3574:	00009660 	andeq	r9, r0, r0, ror #12
    3578:	00000014 	andeq	r0, r0, r4, lsl r0
    357c:	01a49c01 			; <UNDEFINED> instruction: 0x01a49c01
    3580:	6d0b0000 	stcvs	0, cr0, [fp, #-0]
    3584:	28010073 	stmdacs	r1, {r0, r1, r4, r5, r6}
    3588:	0000002c 	andeq	r0, r0, ip, lsr #32
    358c:	00000ebd 			; <UNDEFINED> instruction: 0x00000ebd
    3590:	00967007 	addseq	r7, r6, r7
    3594:	00010d00 	andeq	r0, r1, r0, lsl #26
    3598:	50010800 	andpl	r0, r1, r0, lsl #16
    359c:	5001f307 	andpl	pc, r1, r7, lsl #6
    35a0:	1e03e80a 	cdpne	8, 0, cr14, cr3, cr10, {0}
    35a4:	78040000 	stmdavc	r4, {}	; <UNPREDICTABLE>
    35a8:	01000009 	tsteq	r0, r9
    35ac:	0096742b 	addseq	r7, r6, fp, lsr #8
    35b0:	00001400 	andeq	r1, r0, r0, lsl #8
    35b4:	de9c0100 	fmllee	f0, f4, f0
    35b8:	0b000001 	bleq	35c4 <__code_start__-0x4a3c>
    35bc:	00636573 	rsbeq	r6, r3, r3, ror r5
    35c0:	002c2b01 	eoreq	r2, ip, r1, lsl #22
    35c4:	0ede0000 	cdpeq	0, 13, cr0, cr14, cr0, {0}
    35c8:	84070000 	strhi	r0, [r7], #-0
    35cc:	6b000096 	blvs	382c <__code_start__-0x47d4>
    35d0:	08000001 	stmdaeq	r0, {r0}
    35d4:	f3075001 	vhadd.u8	d5, d7, d1
    35d8:	e80a5001 	stmda	sl, {r0, ip, lr}
    35dc:	00001e03 	andeq	r1, r0, r3, lsl #28
    35e0:	0009940e 	andeq	r9, r9, lr, lsl #8
    35e4:	2ca70200 	sfmcs	f0, 4, [r7]
    35e8:	f3000000 	vhadd.u8	d0, d0, d0
    35ec:	0f000001 	svceq	0x00000001
    35f0:	0000002c 	andeq	r0, r0, ip, lsr #32
    35f4:	08a01000 	stmiaeq	r0!, {ip}
    35f8:	89020000 	stmdbhi	r2, {}	; <UNPREDICTABLE>
    35fc:	000cc500 	andeq	ip, ip, r0, lsl #10
    3600:	43000400 	movwmi	r0, #1024	; 0x400
    3604:	04000013 	streq	r0, [r0], #-19
    3608:	000d6101 	andeq	r6, sp, r1, lsl #2
    360c:	0ac40c00 	beq	ff106614 <__bss_end__+0xff0fc0ac>
    3610:	0adf0000 	beq	ff7c3618 <__bss_end__+0xff7b90b0>
    3614:	96ec0000 	strbtls	r0, [ip], r0
    3618:	01780000 	cmneq	r8, r0
    361c:	0feb0000 	svceq	0x00eb0000
    3620:	04020000 	streq	r0, [r2], #-0
    3624:	746e6905 	strbtvc	r6, [lr], #-2309	; 0x905
    3628:	07040300 	streq	r0, [r4, -r0, lsl #6]
    362c:	000001bd 			; <UNDEFINED> instruction: 0x000001bd
    3630:	00002c04 	andeq	r2, r0, r4, lsl #24
    3634:	06010300 	streq	r0, [r1], -r0, lsl #6
    3638:	000000c2 	andeq	r0, r0, r2, asr #1
    363c:	0f050203 	svceq	0x00050203
    3640:	03000000 	movweq	r0, #0
    3644:	01f10504 	mvnseq	r0, r4, lsl #10
    3648:	08030000 	stmdaeq	r3, {}	; <UNPREDICTABLE>
    364c:	0001ec05 	andeq	lr, r1, r5, lsl #24
    3650:	08010300 	stmdaeq	r1, {r8, r9}
    3654:	000000c0 	andeq	r0, r0, r0, asr #1
    3658:	e6070203 	str	r0, [r7], -r3, lsl #4
    365c:	03000000 	movweq	r0, #0
    3660:	01b80704 			; <UNDEFINED> instruction: 0x01b80704
    3664:	08030000 	stmdaeq	r3, {}	; <UNPREDICTABLE>
    3668:	0001b307 	andeq	fp, r1, r7, lsl #6
    366c:	0c760500 	cfldr64eq	mvdx0, [r6], #-0
    3670:	07020000 	streq	r0, [r2, -r0]
    3674:	00000025 	andeq	r0, r0, r5, lsr #32
    3678:	000c6005 	andeq	r6, ip, r5
    367c:	462c0300 	strtmi	r0, [ip], -r0, lsl #6
    3680:	05000000 	streq	r0, [r0, #-0]
    3684:	00000d3c 	andeq	r0, r0, ip, lsr sp
    3688:	00467203 	subeq	r7, r6, r3, lsl #4
    368c:	04060000 	streq	r0, [r6], #-0
    3690:	0400000c 	streq	r0, [r0], #-12
    3694:	002c0165 	eoreq	r0, ip, r5, ror #2
    3698:	04070000 	streq	r0, [r7], #-0
    369c:	00bca603 	adcseq	sl, ip, r3, lsl #12
    36a0:	ef080000 	svc	0x00080000
    36a4:	0300000b 	movweq	r0, #11
    36a8:	000091a8 	andeq	r9, r0, r8, lsr #3
    36ac:	0b970800 	bleq	fe5c56b4 <__bss_end__+0xfe5bb14c>
    36b0:	a9030000 	stmdbge	r3, {}	; <UNPREDICTABLE>
    36b4:	000000bc 	strheq	r0, [r0], -ip
    36b8:	00540900 	subseq	r0, r4, r0, lsl #18
    36bc:	00cc0000 	sbceq	r0, ip, r0
    36c0:	cc0a0000 	stcgt	0, cr0, [sl], {-0}
    36c4:	03000000 	movweq	r0, #0
    36c8:	07040300 	streq	r0, [r4, -r0, lsl #6]
    36cc:	000001e3 	andeq	r0, r0, r3, ror #3
    36d0:	a303080b 	movwge	r0, #14347	; 0x380b
    36d4:	000000f4 	strdeq	r0, [r0], -r4
    36d8:	000d210c 	andeq	r2, sp, ip, lsl #2
    36dc:	25a50300 	strcs	r0, [r5, #768]!	; 0x300
    36e0:	00000000 	andeq	r0, r0, r0
    36e4:	000d290c 	andeq	r2, sp, ip, lsl #18
    36e8:	9daa0300 	stcls	3, cr0, [sl]
    36ec:	04000000 	streq	r0, [r0], #-0
    36f0:	0cb40500 	cfldr32eq	mvfx0, [r4]
    36f4:	ab030000 	blge	c36fc <__bss_end__+0xb9194>
    36f8:	000000d3 	ldrdeq	r0, [r0], -r3
    36fc:	000b6005 	andeq	r6, fp, r5
    3700:	70af0300 	adcvc	r0, pc, r0, lsl #6
    3704:	0d000000 	stceq	0, cr0, [r0, #-0]
    3708:	12040e04 	andne	r0, r4, #4, 28	; 0x40
    370c:	03000001 	movweq	r0, #1
    3710:	00c90801 	sbceq	r0, r9, r1, lsl #16
    3714:	120f0000 	andne	r0, pc, #0
    3718:	05000001 	streq	r0, [r0, #-1]
    371c:	00000dde 	ldrdeq	r0, [r0], -lr
    3720:	00621605 	rsbeq	r1, r2, r5, lsl #12
    3724:	71100000 	tstvc	r0, r0
    3728:	1800000b 	stmdane	r0, {r0, r1, r3}
    372c:	017c2d05 	cmneq	ip, r5, lsl #26
    3730:	d50c0000 	strle	r0, [ip, #-0]
    3734:	0500000c 	streq	r0, [r0, #-12]
    3738:	00017c2f 	andeq	r7, r1, pc, lsr #24
    373c:	5f110000 	svcpl	0x00110000
    3740:	3005006b 	andcc	r0, r5, fp, rrx
    3744:	00000025 	andeq	r0, r0, r5, lsr #32
    3748:	0d0c0c04 	stceq	12, cr0, [ip, #-16]
    374c:	30050000 	andcc	r0, r5, r0
    3750:	00000025 	andeq	r0, r0, r5, lsr #32
    3754:	0b4c0c08 	bleq	130677c <__bss_end__+0x12fc214>
    3758:	30050000 	andcc	r0, r5, r0
    375c:	00000025 	andeq	r0, r0, r5, lsr #32
    3760:	0e250c0c 	cdpeq	12, 2, cr0, cr5, cr12, {0}
    3764:	30050000 	andcc	r0, r5, r0
    3768:	00000025 	andeq	r0, r0, r5, lsr #32
    376c:	785f1110 	ldmdavc	pc, {r4, r8, ip}^	; <UNPREDICTABLE>
    3770:	82310500 	eorshi	r0, r1, #0, 10
    3774:	14000001 	strne	r0, [r0], #-1
    3778:	29040e00 	stmdbcs	r4, {r9, sl, fp}
    377c:	09000001 	stmdbeq	r0, {r0}
    3780:	0000011e 	andeq	r0, r0, lr, lsl r1
    3784:	00000192 	muleq	r0, r2, r1
    3788:	0000cc0a 	andeq	ip, r0, sl, lsl #24
    378c:	10000000 	andne	r0, r0, r0
    3790:	00000b92 	muleq	r0, r2, fp
    3794:	0b350524 	bleq	d44c2c <__bss_end__+0xd3a6c4>
    3798:	0c000002 	stceq	0, cr0, [r0], {2}
    379c:	00000a4a 	andeq	r0, r0, sl, asr #20
    37a0:	00253705 	eoreq	r3, r5, r5, lsl #14
    37a4:	0c000000 	stceq	0, cr0, [r0], {-0}
    37a8:	00000d44 	andeq	r0, r0, r4, asr #26
    37ac:	00253805 	eoreq	r3, r5, r5, lsl #16
    37b0:	0c040000 	stceq	0, cr0, [r4], {-0}
    37b4:	00000a78 	andeq	r0, r0, r8, ror sl
    37b8:	00253905 	eoreq	r3, r5, r5, lsl #18
    37bc:	0c080000 	stceq	0, cr0, [r8], {-0}
    37c0:	00000f15 	andeq	r0, r0, r5, lsl pc
    37c4:	00253a05 	eoreq	r3, r5, r5, lsl #20
    37c8:	0c0c0000 	stceq	0, cr0, [ip], {-0}
    37cc:	00000c44 	andeq	r0, r0, r4, asr #24
    37d0:	00253b05 	eoreq	r3, r5, r5, lsl #22
    37d4:	0c100000 	ldceq	0, cr0, [r0], {-0}
    37d8:	00000c19 	andeq	r0, r0, r9, lsl ip
    37dc:	00253c05 	eoreq	r3, r5, r5, lsl #24
    37e0:	0c140000 	ldceq	0, cr0, [r4], {-0}
    37e4:	00000e2a 	andeq	r0, r0, sl, lsr #28
    37e8:	00253d05 	eoreq	r3, r5, r5, lsl #26
    37ec:	0c180000 	ldceq	0, cr0, [r8], {-0}
    37f0:	00000c96 	muleq	r0, r6, ip
    37f4:	00253e05 	eoreq	r3, r5, r5, lsl #28
    37f8:	0c1c0000 	ldceq	0, cr0, [ip], {-0}
    37fc:	00000edc 	ldrdeq	r0, [r0], -ip
    3800:	00253f05 	eoreq	r3, r5, r5, lsl #30
    3804:	00200000 	eoreq	r0, r0, r0
    3808:	000a8712 	andeq	r8, sl, r2, lsl r7
    380c:	05010800 	streq	r0, [r1, #-2048]	; 0x800
    3810:	00024b48 	andeq	r4, r2, r8, asr #22
    3814:	0b330c00 	bleq	cc681c <__bss_end__+0xcbc2b4>
    3818:	49050000 	stmdbmi	r5, {}	; <UNPREDICTABLE>
    381c:	0000024b 	andeq	r0, r0, fp, asr #4
    3820:	09c50c00 	stmibeq	r5, {sl, fp}^
    3824:	4a050000 	bmi	14382c <__bss_end__+0x1392c4>
    3828:	0000024b 	andeq	r0, r0, fp, asr #4
    382c:	0dd01380 	ldcleq	3, cr1, [r0, #512]	; 0x200
    3830:	4c050000 	stcmi	0, cr0, [r5], {-0}
    3834:	0000011e 	andeq	r0, r0, lr, lsl r1
    3838:	ac130100 	ldfges	f0, [r3], {-0}
    383c:	0500000a 	streq	r0, [r0, #-10]
    3840:	00011e4f 	andeq	r1, r1, pc, asr #28
    3844:	00010400 	andeq	r0, r1, r0, lsl #8
    3848:	00010a09 	andeq	r0, r1, r9, lsl #20
    384c:	00025b00 	andeq	r5, r2, r0, lsl #22
    3850:	00cc0a00 	sbceq	r0, ip, r0, lsl #20
    3854:	001f0000 	andseq	r0, pc, r0
    3858:	000c4d12 	andeq	r4, ip, r2, lsl sp
    385c:	05019000 	streq	r9, [r1, #-0]
    3860:	0002995b 	andeq	r9, r2, fp, asr r9
    3864:	0cd50c00 	ldcleq	12, cr0, [r5], {0}
    3868:	5c050000 	stcpl	0, cr0, [r5], {-0}
    386c:	00000299 	muleq	r0, r9, r2
    3870:	0ced0c00 	stcleq	12, cr0, [sp]
    3874:	5d050000 	stcpl	0, cr0, [r5, #-0]
    3878:	00000025 	andeq	r0, r0, r5, lsr #32
    387c:	0b470c04 	bleq	11c6894 <__bss_end__+0x11bc32c>
    3880:	5f050000 	svcpl	0x00050000
    3884:	0000029f 	muleq	r0, pc, r2	; <UNPREDICTABLE>
    3888:	0a870c08 	beq	fe1c68b0 <__bss_end__+0xfe1bc348>
    388c:	60050000 	andvs	r0, r5, r0
    3890:	0000020b 	andeq	r0, r0, fp, lsl #4
    3894:	040e0088 	streq	r0, [lr], #-136	; 0x88
    3898:	0000025b 	andeq	r0, r0, fp, asr r2
    389c:	0002af09 	andeq	sl, r2, r9, lsl #30
    38a0:	0002af00 	andeq	sl, r2, r0, lsl #30
    38a4:	00cc0a00 	sbceq	r0, ip, r0, lsl #20
    38a8:	001f0000 	andseq	r0, pc, r0
    38ac:	02b5040e 	adcseq	r0, r5, #234881024	; 0xe000000
    38b0:	10140000 	andsne	r0, r4, r0
    38b4:	00000ca0 	andeq	r0, r0, r0, lsr #25
    38b8:	db730508 	blle	1cc4ce0 <__bss_end__+0x1cba778>
    38bc:	0c000002 	stceq	0, cr0, [r0], {2}
    38c0:	00000a6d 	andeq	r0, r0, sp, ror #20
    38c4:	02db7405 	sbcseq	r7, fp, #83886080	; 0x5000000
    38c8:	0c000000 	stceq	0, cr0, [r0], {-0}
    38cc:	000009d1 	ldrdeq	r0, [r0], -r1
    38d0:	00257505 	eoreq	r7, r5, r5, lsl #10
    38d4:	00040000 	andeq	r0, r4, r0
    38d8:	0054040e 	subseq	r0, r4, lr, lsl #8
    38dc:	bf100000 	svclt	0x00100000
    38e0:	6800000c 	stmdavs	r0, {r2, r3}
    38e4:	040bb305 	streq	fp, [fp], #-773	; 0x305
    38e8:	5f110000 	svcpl	0x00110000
    38ec:	b4050070 	strlt	r0, [r5], #-112	; 0x70
    38f0:	000002db 	ldrdeq	r0, [r0], -fp
    38f4:	725f1100 	subsvc	r1, pc, #0, 2
    38f8:	25b50500 	ldrcs	r0, [r5, #1280]!	; 0x500
    38fc:	04000000 	streq	r0, [r0], #-0
    3900:	00775f11 	rsbseq	r5, r7, r1, lsl pc
    3904:	0025b605 	eoreq	fp, r5, r5, lsl #12
    3908:	0c080000 	stceq	0, cr0, [r8], {-0}
    390c:	00000aa5 	andeq	r0, r0, r5, lsr #21
    3910:	003fb705 	eorseq	fp, pc, r5, lsl #14
    3914:	0c0c0000 	stceq	0, cr0, [ip], {-0}
    3918:	00000bb8 			; <UNDEFINED> instruction: 0x00000bb8
    391c:	003fb805 	eorseq	fp, pc, r5, lsl #16
    3920:	110e0000 	mrsne	r0, (UNDEF: 14)
    3924:	0066625f 	rsbeq	r6, r6, pc, asr r2
    3928:	02b6b905 	adcseq	fp, r6, #81920	; 0x14000
    392c:	0c100000 	ldceq	0, cr0, [r0], {-0}
    3930:	00000a14 	andeq	r0, r0, r4, lsl sl
    3934:	0025ba05 	eoreq	fp, r5, r5, lsl #20
    3938:	0c180000 	ldceq	0, cr0, [r8], {-0}
    393c:	00000a95 	muleq	r0, r5, sl
    3940:	010ac105 	tsteq	sl, r5, lsl #2
    3944:	0c1c0000 	ldceq	0, cr0, [ip], {-0}
    3948:	00000f3c 	andeq	r0, r0, ip, lsr pc
    394c:	0566c305 	strbeq	ip, [r6, #-773]!	; 0x305
    3950:	0c200000 	stceq	0, cr0, [r0], #-0
    3954:	00000f56 	andeq	r0, r0, r6, asr pc
    3958:	0590c505 	ldreq	ip, [r0, #1285]	; 0x505
    395c:	0c240000 	stceq	0, cr0, [r4], #-0
    3960:	00000d31 	andeq	r0, r0, r1, lsr sp
    3964:	05b4c805 	ldreq	ip, [r4, #2053]!	; 0x805
    3968:	0c280000 	stceq	0, cr0, [r8], #-0
    396c:	00000ef6 	strdeq	r0, [r0], -r6
    3970:	05cec905 	strbeq	ip, [lr, #2309]	; 0x905
    3974:	112c0000 	teqne	ip, r0
    3978:	0062755f 	rsbeq	r7, r2, pc, asr r5
    397c:	02b6cc05 	adcseq	ip, r6, #1280	; 0x500
    3980:	11300000 	teqne	r0, r0
    3984:	0070755f 	rsbseq	r7, r0, pc, asr r5
    3988:	02dbcd05 	sbcseq	ip, fp, #320	; 0x140
    398c:	11380000 	teqne	r8, r0
    3990:	0072755f 	rsbseq	r7, r2, pc, asr r5
    3994:	0025ce05 	eoreq	ip, r5, r5, lsl #28
    3998:	0c3c0000 	ldceq	0, cr0, [ip], #-0
    399c:	00000a58 	andeq	r0, r0, r8, asr sl
    39a0:	05d4d105 	ldrbeq	sp, [r4, #261]	; 0x105
    39a4:	0c400000 	mareq	acc0, r0, r0
    39a8:	00000ea1 	andeq	r0, r0, r1, lsr #29
    39ac:	05e4d205 	strbeq	sp, [r4, #517]!	; 0x205
    39b0:	11430000 	mrsne	r0, (UNDEF: 67)
    39b4:	00626c5f 	rsbeq	r6, r2, pc, asr ip
    39b8:	02b6d505 	adcseq	sp, r6, #20971520	; 0x1400000
    39bc:	0c440000 	mareq	acc0, r0, r4
    39c0:	00000abb 			; <UNDEFINED> instruction: 0x00000abb
    39c4:	0025d805 	eoreq	sp, r5, r5, lsl #16
    39c8:	0c4c0000 	mareq	acc0, r0, ip
    39cc:	00000c23 	andeq	r0, r0, r3, lsr #24
    39d0:	007bd905 	rsbseq	sp, fp, r5, lsl #18
    39d4:	0c500000 	mraeq	r0, r0, acc0
    39d8:	00000e8c 	andeq	r0, r0, ip, lsl #29
    39dc:	0429dc05 	strteq	sp, [r9], #-3077	; 0xc05
    39e0:	0c540000 	mraeq	r0, r4, acc0
    39e4:	00000c0b 	andeq	r0, r0, fp, lsl #24
    39e8:	00ffe005 	rscseq	lr, pc, r5
    39ec:	0c580000 	mraeq	r0, r8, acc0
    39f0:	00000cc7 	andeq	r0, r0, r7, asr #25
    39f4:	00f4e205 	rscseq	lr, r4, r5, lsl #4
    39f8:	0c5c0000 	mraeq	r0, ip, acc0
    39fc:	00000c11 	andeq	r0, r0, r1, lsl ip
    3a00:	0025e305 	eoreq	lr, r5, r5, lsl #6
    3a04:	00640000 	rsbeq	r0, r4, r0
    3a08:	00002515 	andeq	r2, r0, r5, lsl r5
    3a0c:	00042900 	andeq	r2, r4, r0, lsl #18
    3a10:	04291600 	strteq	r1, [r9], #-1536	; 0x600
    3a14:	0a160000 	beq	583a1c <__bss_end__+0x5794b4>
    3a18:	16000001 	strne	r0, [r0], -r1
    3a1c:	0000010c 	andeq	r0, r0, ip, lsl #2
    3a20:	00002516 	andeq	r2, r0, r6, lsl r5
    3a24:	040e0000 	streq	r0, [lr], #-0
    3a28:	00000434 	andeq	r0, r0, r4, lsr r4
    3a2c:	0004290f 	andeq	r2, r4, pc, lsl #18
    3a30:	0d141700 	ldceq	7, cr1, [r4, #-0]
    3a34:	04280000 	strteq	r0, [r8], #-0
    3a38:	66023805 	strvs	r3, [r2], -r5, lsl #16
    3a3c:	18000005 	stmdane	r0, {r0, r2}
    3a40:	00000c8f 	andeq	r0, r0, pc, lsl #25
    3a44:	25023a05 	strcs	r3, [r2, #-2565]	; 0xa05
    3a48:	00000000 	andeq	r0, r0, r0
    3a4c:	000ab418 	andeq	fp, sl, r8, lsl r4
    3a50:	023f0500 	eorseq	r0, pc, #0, 10
    3a54:	0000063b 	andeq	r0, r0, fp, lsr r6
    3a58:	0ba81804 	bleq	fea09a70 <__bss_end__+0xfe9ff508>
    3a5c:	3f050000 	svccc	0x00050000
    3a60:	00063b02 	andeq	r3, r6, r2, lsl #22
    3a64:	69180800 	ldmdbvs	r8, {fp}
    3a68:	0500000b 	streq	r0, [r0, #-11]
    3a6c:	063b023f 			; <UNDEFINED> instruction: 0x063b023f
    3a70:	180c0000 	stmdane	ip, {}	; <UNPREDICTABLE>
    3a74:	00000ce8 	andeq	r0, r0, r8, ror #25
    3a78:	25024105 	strcs	r4, [r2, #-261]	; 0x105
    3a7c:	10000000 	andne	r0, r0, r0
    3a80:	0009df18 	andeq	sp, r9, r8, lsl pc
    3a84:	02420500 	subeq	r0, r2, #0, 10
    3a88:	0000081d 	andeq	r0, r0, sp, lsl r8
    3a8c:	0e061814 	mcreq	8, 0, r1, cr6, cr4, {0}
    3a90:	44050000 	strmi	r0, [r5], #-0
    3a94:	00002502 	andeq	r2, r0, r2, lsl #10
    3a98:	f2183000 	vhadd.s16	d3, d8, d0
    3a9c:	0500000c 	streq	r0, [r0, #-12]
    3aa0:	058a0245 	streq	r0, [sl, #581]	; 0x245
    3aa4:	18340000 	ldmdane	r4!, {}	; <UNPREDICTABLE>
    3aa8:	00000c55 	andeq	r0, r0, r5, asr ip
    3aac:	25024705 	strcs	r4, [r2, #-1797]	; 0x705
    3ab0:	38000000 	stmdacc	r0, {}	; <UNPREDICTABLE>
    3ab4:	000d0218 	andeq	r0, sp, r8, lsl r2
    3ab8:	02490500 	subeq	r0, r9, #0, 10
    3abc:	00000838 	andeq	r0, r0, r8, lsr r8
    3ac0:	0be7183c 	bleq	ff9c9bb8 <__bss_end__+0xff9bf650>
    3ac4:	4c050000 	stcmi	0, cr0, [r5], {-0}
    3ac8:	00017c02 	andeq	r7, r1, r2, lsl #24
    3acc:	88184000 	ldmdahi	r8, {lr}
    3ad0:	0500000b 	streq	r0, [r0, #-11]
    3ad4:	0025024d 	eoreq	r0, r5, sp, asr #4
    3ad8:	18440000 	stmdane	r4, {}^	; <UNPREDICTABLE>
    3adc:	00000f10 	andeq	r0, r0, r0, lsl pc
    3ae0:	7c024e05 	stcvc	14, cr4, [r2], {5}
    3ae4:	48000001 	stmdami	r0, {r0}
    3ae8:	000c6c18 	andeq	r6, ip, r8, lsl ip
    3aec:	024f0500 	subeq	r0, pc, #0, 10
    3af0:	0000083e 	andeq	r0, r0, lr, lsr r8
    3af4:	0bb0184c 	bleq	fec09c2c <__bss_end__+0xfebff6c4>
    3af8:	52050000 	andpl	r0, r5, #0
    3afc:	00002502 	andeq	r2, r0, r2, lsl #10
    3b00:	d7185000 	ldrle	r5, [r8, -r0]
    3b04:	0500000a 	streq	r0, [r0, #-10]
    3b08:	010c0253 	tsteq	ip, r3, asr r2
    3b0c:	18540000 	ldmdane	r4, {}^	; <UNPREDICTABLE>
    3b10:	00000c88 	andeq	r0, r0, r8, lsl #25
    3b14:	fb027605 	blx	a1332 <__bss_end__+0x96dca>
    3b18:	58000007 	stmdapl	r0, {r0, r1, r2}
    3b1c:	000c4d19 	andeq	r4, ip, r9, lsl sp
    3b20:	027a0500 	rsbseq	r0, sl, #0, 10
    3b24:	00000299 	muleq	r0, r9, r2
    3b28:	c5190148 	ldrgt	r0, [r9, #-328]	; 0x148
    3b2c:	0500000b 	streq	r0, [r0, #-11]
    3b30:	025b027b 	subseq	r0, fp, #-1342177273	; 0xb0000007
    3b34:	014c0000 	mrseq	r0, (UNDEF: 76)
    3b38:	000e7219 	andeq	r7, lr, r9, lsl r2
    3b3c:	027f0500 	rsbseq	r0, pc, #0, 10
    3b40:	0000084f 	andeq	r0, r0, pc, asr #16
    3b44:	9d1902dc 	lfmls	f0, 4, [r9, #-880]	; 0xfffffc90
    3b48:	0500000a 	streq	r0, [r0, #-10]
    3b4c:	06000284 	streq	r0, [r0], -r4, lsl #5
    3b50:	02e00000 	rsceq	r0, r0, #0
    3b54:	000a8219 	andeq	r8, sl, r9, lsl r2
    3b58:	02850500 	addeq	r0, r5, #0, 10
    3b5c:	0000085b 	andeq	r0, r0, fp, asr r8
    3b60:	0e0002ec 	cdpeq	2, 0, cr0, cr0, cr12, {7}
    3b64:	00040b04 	andeq	r0, r4, r4, lsl #22
    3b68:	00251500 	eoreq	r1, r5, r0, lsl #10
    3b6c:	058a0000 	streq	r0, [sl]
    3b70:	29160000 	ldmdbcs	r6, {}	; <UNPREDICTABLE>
    3b74:	16000004 	strne	r0, [r0], -r4
    3b78:	0000010a 	andeq	r0, r0, sl, lsl #2
    3b7c:	00058a16 	andeq	r8, r5, r6, lsl sl
    3b80:	00251600 	eoreq	r1, r5, r0, lsl #12
    3b84:	0e000000 	cdpeq	0, 0, cr0, cr0, cr0, {0}
    3b88:	00011904 	andeq	r1, r1, r4, lsl #18
    3b8c:	6c040e00 	stcvs	14, cr0, [r4], {-0}
    3b90:	15000005 	strne	r0, [r0, #-5]
    3b94:	00000086 	andeq	r0, r0, r6, lsl #1
    3b98:	000005b4 			; <UNDEFINED> instruction: 0x000005b4
    3b9c:	00042916 	andeq	r2, r4, r6, lsl r9
    3ba0:	010a1600 	tsteq	sl, r0, lsl #12
    3ba4:	86160000 	ldrhi	r0, [r6], -r0
    3ba8:	16000000 	strne	r0, [r0], -r0
    3bac:	00000025 	andeq	r0, r0, r5, lsr #32
    3bb0:	96040e00 	strls	r0, [r4], -r0, lsl #28
    3bb4:	15000005 	strne	r0, [r0, #-5]
    3bb8:	00000025 	andeq	r0, r0, r5, lsr #32
    3bbc:	000005ce 	andeq	r0, r0, lr, asr #11
    3bc0:	00042916 	andeq	r2, r4, r6, lsl r9
    3bc4:	010a1600 	tsteq	sl, r0, lsl #12
    3bc8:	0e000000 	cdpeq	0, 0, cr0, cr0, cr0, {0}
    3bcc:	0005ba04 	andeq	fp, r5, r4, lsl #20
    3bd0:	00540900 	subseq	r0, r4, r0, lsl #18
    3bd4:	05e40000 	strbeq	r0, [r4, #0]!
    3bd8:	cc0a0000 	stcgt	0, cr0, [sl], {-0}
    3bdc:	02000000 	andeq	r0, r0, #0
    3be0:	00540900 	subseq	r0, r4, r0, lsl #18
    3be4:	05f40000 	ldrbeq	r0, [r4, #0]!
    3be8:	cc0a0000 	stcgt	0, cr0, [sl], {-0}
    3bec:	00000000 	andeq	r0, r0, r0
    3bf0:	0cad0600 	stceq	6, cr0, [sp]
    3bf4:	1d050000 	stcne	0, cr0, [r5, #-0]
    3bf8:	0002e101 	andeq	lr, r2, r1, lsl #2
    3bfc:	0e341a00 	vaddeq.f32	s2, s8, s0
    3c00:	050c0000 	streq	r0, [ip, #-0]
    3c04:	06350121 	ldrteq	r0, [r5], -r1, lsr #2
    3c08:	d5180000 	ldrle	r0, [r8, #-0]
    3c0c:	0500000c 	streq	r0, [r0, #-12]
    3c10:	06350123 	ldrteq	r0, [r5], -r3, lsr #2
    3c14:	18000000 	stmdane	r0, {}	; <UNPREDICTABLE>
    3c18:	00000bbe 			; <UNDEFINED> instruction: 0x00000bbe
    3c1c:	25012405 	strcs	r2, [r1, #-1029]	; 0x405
    3c20:	04000000 	streq	r0, [r0], #-0
    3c24:	000ca718 	andeq	sl, ip, r8, lsl r7
    3c28:	01250500 	teqeq	r5, r0, lsl #10
    3c2c:	0000063b 	andeq	r0, r0, fp, lsr r6
    3c30:	040e0008 	streq	r0, [lr], #-8
    3c34:	00000600 	andeq	r0, r0, r0, lsl #12
    3c38:	05f4040e 	ldrbeq	r0, [r4, #1038]!	; 0x40e
    3c3c:	d71a0000 	ldrle	r0, [sl, -r0]
    3c40:	0e000009 	cdpeq	0, 0, cr0, cr0, cr9, {0}
    3c44:	76013d05 	strvc	r3, [r1], -r5, lsl #26
    3c48:	18000006 	stmdane	r0, {r1, r2}
    3c4c:	00000d1b 	andeq	r0, r0, fp, lsl sp
    3c50:	76013e05 	strvc	r3, [r1], -r5, lsl #28
    3c54:	00000006 	andeq	r0, r0, r6
    3c58:	000d5518 	andeq	r5, sp, r8, lsl r5
    3c5c:	013f0500 	teqeq	pc, r0, lsl #10
    3c60:	00000676 	andeq	r0, r0, r6, ror r6
    3c64:	0dd91806 	ldcleq	8, cr1, [r9, #24]
    3c68:	40050000 	andmi	r0, r5, r0
    3c6c:	00005b01 	andeq	r5, r0, r1, lsl #22
    3c70:	09000c00 	stmdbeq	r0, {sl, fp}
    3c74:	0000005b 	andeq	r0, r0, fp, asr r0
    3c78:	00000686 	andeq	r0, r0, r6, lsl #13
    3c7c:	0000cc0a 	andeq	ip, r0, sl, lsl #24
    3c80:	1b000200 	blne	4488 <__code_start__-0x3b78>
    3c84:	025705d0 	subseq	r0, r7, #208, 10	; 0x34000000
    3c88:	00000787 	andeq	r0, r0, r7, lsl #15
    3c8c:	000e1818 	andeq	r1, lr, r8, lsl r8
    3c90:	02590500 	subseq	r0, r9, #0, 10
    3c94:	0000002c 	andeq	r0, r0, ip, lsr #32
    3c98:	0dc31800 	stcleq	8, cr1, [r3]
    3c9c:	5a050000 	bpl	143ca4 <__bss_end__+0x13973c>
    3ca0:	00010c02 	andeq	r0, r1, r2, lsl #24
    3ca4:	da180400 	ble	604cac <__bss_end__+0x5fa744>
    3ca8:	0500000b 	streq	r0, [r0, #-11]
    3cac:	0787025b 			; <UNDEFINED> instruction: 0x0787025b
    3cb0:	18080000 	stmdane	r8, {}	; <UNPREDICTABLE>
    3cb4:	00000ee7 	andeq	r0, r0, r7, ror #29
    3cb8:	92025c05 	andls	r5, r2, #1280	; 0x500
    3cbc:	24000001 	strcs	r0, [r0], #-1
    3cc0:	000b7918 	andeq	r7, fp, r8, lsl r9
    3cc4:	025d0500 	subseq	r0, sp, #0, 10
    3cc8:	00000025 	andeq	r0, r0, r5, lsr #32
    3ccc:	0cd01848 	ldcleq	8, cr1, [r0], {72}	; 0x48
    3cd0:	5e050000 	cdppl	0, 0, cr0, cr5, cr0, {0}
    3cd4:	00006902 	andeq	r6, r0, r2, lsl #18
    3cd8:	fd185000 	ldc2	0, cr5, [r8, #-0]
    3cdc:	0500000e 	streq	r0, [r0, #-14]
    3ce0:	0641025f 			; <UNDEFINED> instruction: 0x0641025f
    3ce4:	18580000 	ldmdane	r8, {}^	; <UNPREDICTABLE>
    3ce8:	00000cdb 	ldrdeq	r0, [r0], -fp
    3cec:	f4026005 	vst4.8	{d6-d9}, [r2], r5
    3cf0:	68000000 	stmdavs	r0, {}	; <UNPREDICTABLE>
    3cf4:	000f0218 	andeq	r0, pc, r8, lsl r2	; <UNPREDICTABLE>
    3cf8:	02610500 	rsbeq	r0, r1, #0, 10
    3cfc:	000000f4 	strdeq	r0, [r0], -r4
    3d00:	0a3c1870 	beq	f09ec8 <__bss_end__+0xeff960>
    3d04:	62050000 	andvs	r0, r5, #0
    3d08:	0000f402 	andeq	pc, r0, r2, lsl #8
    3d0c:	54187800 	ldrpl	r7, [r8], #-2048	; 0x800
    3d10:	0500000e 	streq	r0, [r0, #-14]
    3d14:	07970263 	ldreq	r0, [r7, r3, ror #4]
    3d18:	18800000 	stmne	r0, {}	; <UNPREDICTABLE>
    3d1c:	00000bce 	andeq	r0, r0, lr, asr #23
    3d20:	a7026405 	strge	r6, [r2, -r5, lsl #8]
    3d24:	88000007 	stmdahi	r0, {r0, r1, r2}
    3d28:	000de618 	andeq	lr, sp, r8, lsl r6
    3d2c:	02650500 	rsbeq	r0, r5, #0, 10
    3d30:	00000025 	andeq	r0, r0, r5, lsr #32
    3d34:	0b2518a0 	bleq	949fbc <__bss_end__+0x93fa54>
    3d38:	66050000 	strvs	r0, [r5], -r0
    3d3c:	0000f402 	andeq	pc, r0, r2, lsl #8
    3d40:	2d18a400 	cfldrscs	mvf10, [r8, #-0]
    3d44:	0500000a 	streq	r0, [r0, #-10]
    3d48:	00f40267 	rscseq	r0, r4, r7, ror #4
    3d4c:	18ac0000 	stmiane	ip!, {}	; <UNPREDICTABLE>
    3d50:	00000b14 	andeq	r0, r0, r4, lsl fp
    3d54:	f4026805 	vst2.8	{d6-d7}, [r2], r5
    3d58:	b4000000 	strlt	r0, [r0], #-0
    3d5c:	0009f418 	andeq	pc, r9, r8, lsl r4	; <UNPREDICTABLE>
    3d60:	02690500 	rsbeq	r0, r9, #0, 10
    3d64:	000000f4 	strdeq	r0, [r0], -r4
    3d68:	0a0318bc 	beq	ca060 <__bss_end__+0xbfaf8>
    3d6c:	6a050000 	bvs	143d74 <__bss_end__+0x13980c>
    3d70:	0000f402 	andeq	pc, r0, r2, lsl #8
    3d74:	8d18c400 	cfldrshi	mvf12, [r8, #-0]
    3d78:	0500000c 	streq	r0, [r0, #-12]
    3d7c:	0025026b 	eoreq	r0, r5, fp, ror #4
    3d80:	00cc0000 	sbceq	r0, ip, r0
    3d84:	00011209 	andeq	r1, r1, r9, lsl #4
    3d88:	00079700 	andeq	r9, r7, r0, lsl #14
    3d8c:	00cc0a00 	sbceq	r0, ip, r0, lsl #20
    3d90:	00190000 	andseq	r0, r9, r0
    3d94:	00011209 	andeq	r1, r1, r9, lsl #4
    3d98:	0007a700 	andeq	sl, r7, r0, lsl #14
    3d9c:	00cc0a00 	sbceq	r0, ip, r0, lsl #20
    3da0:	00070000 	andeq	r0, r7, r0
    3da4:	00011209 	andeq	r1, r1, r9, lsl #4
    3da8:	0007b700 	andeq	fp, r7, r0, lsl #14
    3dac:	00cc0a00 	sbceq	r0, ip, r0, lsl #20
    3db0:	00170000 	andseq	r0, r7, r0
    3db4:	7005f01b 	andvc	pc, r5, fp, lsl r0	; <UNPREDICTABLE>
    3db8:	0007db02 	andeq	sp, r7, r2, lsl #22
    3dbc:	0c3d1800 	ldceq	8, cr1, [sp], #-0
    3dc0:	73050000 	movwvc	r0, #20480	; 0x5000
    3dc4:	0007db02 	andeq	sp, r7, r2, lsl #22
    3dc8:	4b180000 	blmi	603dd0 <__bss_end__+0x5f9868>
    3dcc:	0500000e 	streq	r0, [r0, #-14]
    3dd0:	07eb0274 			; <UNDEFINED> instruction: 0x07eb0274
    3dd4:	00780000 	rsbseq	r0, r8, r0
    3dd8:	0002db09 	andeq	sp, r2, r9, lsl #22
    3ddc:	0007eb00 	andeq	lr, r7, r0, lsl #22
    3de0:	00cc0a00 	sbceq	r0, ip, r0, lsl #20
    3de4:	001d0000 	andseq	r0, sp, r0
    3de8:	00002c09 	andeq	r2, r0, r9, lsl #24
    3dec:	0007fb00 	andeq	pc, r7, r0, lsl #22
    3df0:	00cc0a00 	sbceq	r0, ip, r0, lsl #20
    3df4:	001d0000 	andseq	r0, sp, r0
    3df8:	5505f01c 	strpl	pc, [r5, #-28]
    3dfc:	00081d02 	andeq	r1, r8, r2, lsl #26
    3e00:	0d141d00 	ldceq	13, cr1, [r4, #-0]
    3e04:	6c050000 	stcvs	0, cr0, [r5], {-0}
    3e08:	00068602 	andeq	r8, r6, r2, lsl #12
    3e0c:	0ea71d00 	cdpeq	13, 10, cr1, cr7, cr0, {0}
    3e10:	75050000 	strvc	r0, [r5, #-0]
    3e14:	0007b702 	andeq	fp, r7, r2, lsl #14
    3e18:	12090000 	andne	r0, r9, #0
    3e1c:	2d000001 	stccs	0, cr0, [r0, #-4]
    3e20:	0a000008 	beq	3e48 <__code_start__-0x41b8>
    3e24:	000000cc 	andeq	r0, r0, ip, asr #1
    3e28:	381e0018 	ldmdacc	lr, {r3, r4}
    3e2c:	16000008 	strne	r0, [r0], -r8
    3e30:	00000429 	andeq	r0, r0, r9, lsr #8
    3e34:	2d040e00 	stccs	14, cr0, [r4, #-0]
    3e38:	0e000008 	cdpeq	0, 0, cr0, cr0, cr8, {0}
    3e3c:	00017c04 	andeq	r7, r1, r4, lsl #24
    3e40:	084f1e00 	stmdaeq	pc, {r9, sl, fp, ip}^	; <UNPREDICTABLE>
    3e44:	25160000 	ldrcs	r0, [r6, #-0]
    3e48:	00000000 	andeq	r0, r0, r0
    3e4c:	0855040e 	ldmdaeq	r5, {r1, r2, r3, sl}^
    3e50:	040e0000 	streq	r0, [lr], #-0
    3e54:	00000844 	andeq	r0, r0, r4, asr #16
    3e58:	0005f409 	andeq	pc, r5, r9, lsl #8
    3e5c:	00086b00 	andeq	r6, r8, r0, lsl #22
    3e60:	00cc0a00 	sbceq	r0, ip, r0, lsl #20
    3e64:	00020000 	andeq	r0, r2, r0
    3e68:	000dfa1f 	andeq	pc, sp, pc, lsl sl	; <UNPREDICTABLE>
    3e6c:	02fd0500 	rscseq	r0, sp, #0, 10
    3e70:	00000429 	andeq	r0, r0, r9, lsr #8
    3e74:	000df31f 	andeq	pc, sp, pc, lsl r3	; <UNPREDICTABLE>
    3e78:	02fe0500 	rscseq	r0, lr, #0, 10
    3e7c:	0000042f 	andeq	r0, r0, pc, lsr #8
    3e80:	00002515 	andeq	r2, r0, r5, lsl r5
    3e84:	00089200 	andeq	r9, r8, r0, lsl #4
    3e88:	00251600 	eoreq	r1, r5, r0, lsl #12
    3e8c:	20000000 	andcs	r0, r0, r0
    3e90:	000005f4 	strdeq	r0, [r0], -r4
    3e94:	089d1d06 	ldmeq	sp, {r1, r2, r8, sl, fp, ip}
    3e98:	040e0000 	streq	r0, [lr], #-0
    3e9c:	00000883 	andeq	r0, r0, r3, lsl #17
    3ea0:	00002515 	andeq	r2, r0, r5, lsl r5
    3ea4:	0008b200 	andeq	fp, r8, r0, lsl #4
    3ea8:	058a1600 	streq	r1, [sl, #1536]	; 0x600
    3eac:	20000000 	andcs	r0, r0, r0
    3eb0:	00000631 	andeq	r0, r0, r1, lsr r6
    3eb4:	08bd2206 	popeq	{r1, r2, r9, sp}
    3eb8:	040e0000 	streq	r0, [lr], #-0
    3ebc:	000008a3 	andeq	r0, r0, r3, lsr #17
    3ec0:	00540121 	subseq	r0, r4, r1, lsr #2
    3ec4:	0c080000 	stceq	0, cr0, [r8], {-0}
    3ec8:	00000900 	andeq	r0, r0, r0, lsl #18
    3ecc:	000a1d22 	andeq	r1, sl, r2, lsr #26
    3ed0:	3a220000 	bcc	883ed8 <__bss_end__+0x879970>
    3ed4:	0100000e 	tsteq	r0, lr
    3ed8:	000e9222 	andeq	r9, lr, r2, lsr #4
    3edc:	5e220400 	cdppl	4, 2, cr0, cr2, cr0, {0}
    3ee0:	0500000a 	streq	r0, [r0, #-10]
    3ee4:	000bf522 	andeq	pc, fp, r2, lsr #10
    3ee8:	af220600 	svcge	0x00220600
    3eec:	0700000e 	streq	r0, [r0, -lr]
    3ef0:	000ebe22 	andeq	fp, lr, r2, lsr #28
    3ef4:	cd220300 	stcgt	3, cr0, [r2, #-0]
    3ef8:	0200000e 	andeq	r0, r0, #14
    3efc:	0acb1000 	beq	ff2c7f04 <__bss_end__+0xff2bd99c>
    3f00:	072c0000 	streq	r0, [ip, -r0]!
    3f04:	00099006 	andeq	r9, r9, r6
    3f08:	6f691100 	svcvs	0x00691100
    3f0c:	33090700 	movwcc	r0, #38656	; 0x9700
    3f10:	00000000 	andeq	r0, r0, r0
    3f14:	72656911 	rsbvc	r6, r5, #278528	; 0x44000
    3f18:	330a0700 	movwcc	r0, #42752	; 0xa700
    3f1c:	04000000 	streq	r0, [r0], #-0
    3f20:	72696911 	rsbvc	r6, r9, #278528	; 0x44000
    3f24:	33110700 	tstcc	r1, #0, 14
    3f28:	08000000 	stmdaeq	r0, {}	; <UNPREDICTABLE>
    3f2c:	72636c11 	rsbvc	r6, r3, #4352	; 0x1100
    3f30:	33130700 	tstcc	r3, #0, 14
    3f34:	0c000000 	stceq	0, cr0, [r0], {-0}
    3f38:	72636d11 	rsbvc	r6, r3, #1088	; 0x440
    3f3c:	33140700 	tstcc	r4, #0, 14
    3f40:	10000000 	andne	r0, r0, r0
    3f44:	72736c11 	rsbsvc	r6, r3, #4352	; 0x1100
    3f48:	33150700 	tstcc	r5, #0, 14
    3f4c:	14000000 	strne	r0, [r0], #-0
    3f50:	72736d11 	rsbsvc	r6, r3, #1088	; 0x440
    3f54:	33160700 	tstcc	r6, #0, 14
    3f58:	18000000 	stmdane	r0, {}	; <UNPREDICTABLE>
    3f5c:	000d4d0c 	andeq	r4, sp, ip, lsl #26
    3f60:	33170700 	tstcc	r7, #0, 14
    3f64:	1c000000 	stcne	0, cr0, [r0], {-0}
    3f68:	000a730c 	andeq	r7, sl, ip, lsl #6
    3f6c:	331b0700 	tstcc	fp, #0, 14
    3f70:	20000000 	andcs	r0, r0, r0
    3f74:	000a530c 	andeq	r5, sl, ip, lsl #6
    3f78:	331d0700 	tstcc	sp, #0, 14
    3f7c:	24000000 	strcs	r0, [r0], #-0
    3f80:	000d370c 	andeq	r3, sp, ip, lsl #14
    3f84:	331e0700 	tstcc	lr, #0, 14
    3f88:	28000000 	stmdacs	r0, {}	; <UNPREDICTABLE>
    3f8c:	0b3b2300 	bleq	eccb94 <__bss_end__+0xec262c>
    3f90:	07010000 	streq	r0, [r1, -r0]
    3f94:	000009a5 	andeq	r0, r0, r5, lsr #19
    3f98:	20215004 	eorcs	r5, r1, r4
    3f9c:	0033040e 	eorseq	r0, r3, lr, lsl #8
    3fa0:	9f0f0000 	svcls	0x000f0000
    3fa4:	23000009 	movwcs	r0, #9
    3fa8:	00000c67 	andeq	r0, r0, r7, ror #24
    3fac:	09bf2801 	ldmibeq	pc!, {r0, fp, sp}	; <UNPREDICTABLE>
    3fb0:	50400000 	subpl	r0, r0, r0
    3fb4:	040e2021 	streq	r2, [lr], #-33	; 0x21
    3fb8:	00000900 	andeq	r0, r0, r0, lsl #18
    3fbc:	0009b90f 	andeq	fp, r9, pc, lsl #18
    3fc0:	0e842400 	cdpeq	4, 8, cr2, cr4, cr0, {0}
    3fc4:	a7010000 	strge	r0, [r1, -r0]
    3fc8:	00000025 	andeq	r0, r0, r5, lsr #32
    3fcc:	00009854 	andeq	r9, r0, r4, asr r8
    3fd0:	00000010 	andeq	r0, r0, r0, lsl r0
    3fd4:	09f09c01 	ldmibeq	r0!, {r0, sl, fp, ip, pc}^
    3fd8:	5c250000 	stcpl	0, cr0, [r5], #-0
    3fdc:	9c000098 	stcls	0, cr0, [r0], {152}	; 0x98
    3fe0:	2500000c 	strcs	r0, [r0, #-12]
    3fe4:	00009860 	andeq	r9, r0, r0, ror #16
    3fe8:	00000ad2 	ldrdeq	r0, [r0], -r2
    3fec:	05d92600 	ldrbeq	r2, [r9, #1536]	; 0x600
    3ff0:	9f010000 	svcls	0x00010000
    3ff4:	00009824 	andeq	r9, r0, r4, lsr #16
    3ff8:	00000030 	andeq	r0, r0, r0, lsr r0
    3ffc:	0a4e9c01 	beq	13ab008 <__bss_end__+0x13a0aa0>
    4000:	63270000 	teqvs	r7, #0
    4004:	2c9f0100 	ldfcss	f0, [pc], {0}
    4008:	ff000000 			; <UNDEFINED> instruction: 0xff000000
    400c:	2500000e 	strcs	r0, [r0, #-14]
    4010:	00009830 	andeq	r9, r0, r0, lsr r8
    4014:	00000c9c 	muleq	r0, ip, ip
    4018:	00983425 	addseq	r3, r8, r5, lsr #8
    401c:	000aa500 	andeq	sl, sl, r0, lsl #10
    4020:	98482800 	stmdals	r8, {fp, sp}^
    4024:	0ca70000 	stceq	0, cr0, [r7]
    4028:	0a440000 	beq	1104030 <__bss_end__+0x10f9ac8>
    402c:	01290000 	teqeq	r9, r0
    4030:	400c0550 	andmi	r0, ip, r0, asr r5
    4034:	29202150 	stmdbcs	r0!, {r4, r6, r8, sp}
    4038:	74055101 	strvc	r5, [r5], #-257	; 0x101
    403c:	1aff0800 	bne	fffc6044 <__bss_end__+0xfffbbadc>
    4040:	984c2500 	stmdals	ip, {r8, sl, sp}^
    4044:	0c9c0000 	ldceq	0, cr0, [ip], {0}
    4048:	24000000 	strcs	r0, [r0], #-0
    404c:	00000b9e 	muleq	r0, lr, fp
    4050:	00259701 	eoreq	r9, r5, r1, lsl #14
    4054:	97f40000 	ldrbls	r0, [r4, r0]!
    4058:	00300000 	eorseq	r0, r0, r0
    405c:	9c010000 	stcls	0, cr0, [r1], {-0}
    4060:	00000aa5 	andeq	r0, r0, r5, lsr #21
    4064:	0100632a 	tsteq	r0, sl, lsr #6
    4068:	0000259b 	muleq	r0, fp, r5
    406c:	25540100 	ldrbcs	r0, [r4, #-256]	; 0x100
    4070:	000097fc 	strdeq	r9, [r0], -ip
    4074:	00000c9c 	muleq	r0, ip, ip
    4078:	00980025 	addseq	r0, r8, r5, lsr #32
    407c:	000ad200 	andeq	sp, sl, r0, lsl #4
    4080:	98102800 	ldmdals	r0, {fp, sp}
    4084:	0cb20000 	ldceq	0, cr0, [r2]
    4088:	0a9b0000 	beq	fe6c4090 <__bss_end__+0xfe6b9b28>
    408c:	01290000 	teqeq	r9, r0
    4090:	400c0550 	andmi	r0, ip, r0, asr r5
    4094:	00202150 	eoreq	r2, r0, r0, asr r1
    4098:	00981825 	addseq	r1, r8, r5, lsr #16
    409c:	000c9c00 	andeq	r9, ip, r0, lsl #24
    40a0:	52240000 	eorpl	r0, r4, #0
    40a4:	0100000b 	tsteq	r0, fp
    40a8:	00002588 	andeq	r2, r0, r8, lsl #11
    40ac:	0097d400 	addseq	sp, r7, r0, lsl #8
    40b0:	00002000 	andeq	r2, r0, r0
    40b4:	d29c0100 	addsle	r0, ip, #0, 2
    40b8:	2b00000a 	blcs	40e8 <__code_start__-0x3f18>
    40bc:	000097e0 	andeq	r9, r0, r0, ror #15
    40c0:	00000cb2 			; <UNDEFINED> instruction: 0x00000cb2
    40c4:	05500129 	ldrbeq	r0, [r0, #-297]	; 0x129
    40c8:	2150640c 	cmpcs	r0, ip, lsl #8
    40cc:	24000020 	strcs	r0, [r0], #-32
    40d0:	00000e64 	andeq	r0, r0, r4, ror #28
    40d4:	00257f01 	eoreq	r7, r5, r1, lsl #30
    40d8:	97bc0000 	ldrls	r0, [ip, r0]!
    40dc:	00180000 	andseq	r0, r8, r0
    40e0:	9c010000 	stcls	0, cr0, [r1], {-0}
    40e4:	00000aff 	strdeq	r0, [r0], -pc	; <UNPREDICTABLE>
    40e8:	0097c82b 	addseq	ip, r7, fp, lsr #16
    40ec:	000cb200 	andeq	fp, ip, r0, lsl #4
    40f0:	50012900 	andpl	r2, r1, r0, lsl #18
    40f4:	50640c05 	rsbpl	r0, r4, r5, lsl #24
    40f8:	00002021 	andeq	r2, r0, r1, lsr #32
    40fc:	0009ea26 	andeq	lr, r9, r6, lsr #20
    4100:	0c3a0100 	ldfeqs	f0, [sl], #-0
    4104:	b0000097 	mullt	r0, r7, r0
    4108:	01000000 	mrseq	r0, (UNDEF: 0)
    410c:	000c3d9c 	muleq	ip, ip, sp
    4110:	971c2800 	ldrls	r2, [ip, -r0, lsl #16]
    4114:	0cbd0000 	ldceq	0, cr0, [sp]
    4118:	0b2c0000 	bleq	b04120 <__bss_end__+0xaf9bb8>
    411c:	01290000 	teqeq	r9, r0
    4120:	293e0150 	ldmdbcs	lr!, {r4, r6, r8}
    4124:	32015101 	andcc	r5, r1, #1073741824	; 0x40000000
    4128:	97282800 	strls	r2, [r8, -r0, lsl #16]!
    412c:	0cbd0000 	ldceq	0, cr0, [sp]
    4130:	0b440000 	bleq	1104138 <__bss_end__+0x10f9bd0>
    4134:	01290000 	teqeq	r9, r0
    4138:	293f0150 	ldmdbcs	pc!, {r4, r6, r8}	; <UNPREDICTABLE>
    413c:	32015101 	andcc	r5, r1, #1073741824	; 0x40000000
    4140:	972c2500 	strls	r2, [ip, -r0, lsl #10]!
    4144:	0c9c0000 	ldceq	0, cr0, [ip], {0}
    4148:	38280000 	stmdacc	r8!, {}	; <UNPREDICTABLE>
    414c:	3d000097 	stccc	0, cr0, [r0, #-604]	; 0xfffffda4
    4150:	6900000c 	stmdbvs	r0, {r2, r3}
    4154:	2900000b 	stmdbcs	r0, {r0, r1, r3}
    4158:	0c055001 	stceq	0, cr5, [r5], {1}
    415c:	20215004 	eorcs	r5, r1, r4
    4160:	01510129 	cmpeq	r1, r9, lsr #2
    4164:	3c250031 	stccc	0, cr0, [r5], #-196	; 0xffffff3c
    4168:	9c000097 	stcls	0, cr0, [r0], {151}	; 0x97
    416c:	2800000c 	stmdacs	r0, {r2, r3}
    4170:	0000974c 	andeq	r9, r0, ip, asr #14
    4174:	00000ca7 	andeq	r0, r0, r7, lsr #25
    4178:	00000b8b 	andeq	r0, r0, fp, lsl #23
    417c:	02500129 	subseq	r0, r0, #1073741834	; 0x4000000a
    4180:	01290074 	teqeq	r9, r4, ror r0
    4184:	00300151 	eorseq	r0, r0, r1, asr r1
    4188:	00975828 	addseq	r5, r7, r8, lsr #16
    418c:	000ca700 	andeq	sl, ip, r0, lsl #14
    4190:	000ba700 	andeq	sl, fp, r0, lsl #14
    4194:	50012900 	andpl	r2, r1, r0, lsl #18
    4198:	50440c05 	subpl	r0, r4, r5, lsl #24
    419c:	01292021 	teqeq	r9, r1, lsr #32
    41a0:	00300151 	eorseq	r0, r0, r1, asr r1
    41a4:	00976428 	addseq	r6, r7, r8, lsr #8
    41a8:	000ca700 	andeq	sl, ip, r0, lsl #14
    41ac:	000bc300 	andeq	ip, fp, r0, lsl #6
    41b0:	50012900 	andpl	r2, r1, r0, lsl #18
    41b4:	504c0c05 	subpl	r0, ip, r5, lsl #24
    41b8:	01292021 	teqeq	r9, r1, lsr #32
    41bc:	00330151 	eorseq	r0, r3, r1, asr r1
    41c0:	00977028 	addseq	r7, r7, r8, lsr #32
    41c4:	000ca700 	andeq	sl, ip, r0, lsl #14
    41c8:	000bdf00 	andeq	sp, fp, r0, lsl #30
    41cc:	50012900 	andpl	r2, r1, r0, lsl #18
    41d0:	50500c05 	subspl	r0, r0, r5, lsl #24
    41d4:	01292021 	teqeq	r9, r1, lsr #32
    41d8:	00300151 	eorseq	r0, r0, r1, asr r1
    41dc:	00977c28 	addseq	r7, r7, r8, lsr #24
    41e0:	000ca700 	andeq	sl, ip, r0, lsl #14
    41e4:	000bfc00 	andeq	pc, fp, r0, lsl #24
    41e8:	50012900 	andpl	r2, r1, r0, lsl #18
    41ec:	50480c05 	subpl	r0, r8, r5, lsl #24
    41f0:	01292021 	teqeq	r9, r1, lsr #32
    41f4:	c7080251 	smlsdgt	r8, r1, r2, r0
    41f8:	97882800 	strls	r2, [r8, r0, lsl #16]
    41fc:	0ca70000 	stceq	0, cr0, [r7]
    4200:	0c1a0000 	ldceq	0, cr0, [sl], {-0}
    4204:	01290000 	teqeq	r9, r0
    4208:	680c0550 	stmdavs	ip, {r4, r6, r8, sl}
    420c:	29202150 	stmdbcs	r0!, {r4, r6, r8, sp}
    4210:	0a035101 	beq	d861c <__bss_end__+0xce0b4>
    4214:	2800010e 	stmdacs	r0, {r1, r2, r3, r8}
    4218:	00009794 	muleq	r0, r4, r7
    421c:	00000ca7 	andeq	r0, r0, r7, lsr #25
    4220:	00000c33 	andeq	r0, r0, r3, lsr ip
    4224:	02500129 	subseq	r0, r0, #1073741834	; 0x4000000a
    4228:	01290074 	teqeq	r9, r4, ror r0
    422c:	00330151 	eorseq	r0, r3, r1, asr r1
    4230:	00979825 	addseq	r9, r7, r5, lsr #16
    4234:	000c9c00 	andeq	r9, ip, r0, lsl #24
    4238:	7c2c0000 	stcvc	0, cr0, [ip], #-0
    423c:	0100000e 	tsteq	r0, lr
    4240:	0096ec2d 	addseq	lr, r6, sp, lsr #24
    4244:	00002000 	andeq	r2, r0, r0
    4248:	959c0100 	ldrls	r0, [ip, #256]	; 0x100
    424c:	2d00000c 	stccs	0, cr0, [r0, #-48]	; 0xffffffd0
    4250:	00000209 	andeq	r0, r0, r9, lsl #4
    4254:	0c952d01 	ldceq	13, cr2, [r5], {1}
    4258:	0f1d0000 	svceq	0x001d0000
    425c:	76270000 	strtvc	r0, [r7], -r0
    4260:	01006c61 	tsteq	r0, r1, ror #24
    4264:	00002c2d 	andeq	r2, r0, sp, lsr #24
    4268:	000f3b00 	andeq	r3, pc, r0, lsl #22
    426c:	96fc2800 	ldrbtls	r2, [ip], r0, lsl #16
    4270:	0cb20000 	ldceq	0, cr0, [r2]
    4274:	0c840000 	stceq	0, cr0, [r4], {0}
    4278:	01290000 	teqeq	r9, r0
    427c:	00740250 	rsbseq	r0, r4, r0, asr r2
    4280:	97082b00 	strls	r2, [r8, -r0, lsl #22]
    4284:	0ca70000 	stceq	0, cr0, [r7]
    4288:	01290000 	teqeq	r9, r0
    428c:	00740250 	rsbseq	r0, r4, r0, asr r2
    4290:	040e0000 	streq	r0, [lr], #-0
    4294:	00000c9b 	muleq	r0, fp, ip
    4298:	08a02f2e 	stmiaeq	r0!, {r1, r2, r3, r5, r8, r9, sl, fp, sp}
    429c:	08a00000 	stmiaeq	r0!, {}	; <UNPREDICTABLE>
    42a0:	89060000 	stmdbhi	r6, {}	; <UNPREDICTABLE>
    42a4:	000d5b2f 	andeq	r5, sp, pc, lsr #22
    42a8:	000d5b00 	andeq	r5, sp, r0, lsl #22
    42ac:	2f9c0600 	svccs	0x009c0600
    42b0:	00000e5e 	andeq	r0, r0, lr, asr lr
    42b4:	00000e5e 	andeq	r0, r0, lr, asr lr
    42b8:	2b2fa806 	blcs	bee2d8 <__bss_end__+0xbe3d70>
    42bc:	2b00000c 	blcs	42f4 <__code_start__-0x3d0c>
    42c0:	0800000c 	stmdaeq	r0, {r2, r3}
    42c4:	0b700019 	bleq	1c04330 <__bss_end__+0x1bf9dc8>
    42c8:	00040000 	andeq	r0, r4, r0
    42cc:	000015b7 			; <UNDEFINED> instruction: 0x000015b7
    42d0:	0d610104 	stfeqe	f0, [r1, #-16]!
    42d4:	310c0000 	mrscc	r0, (UNDEF: 12)
    42d8:	df00000f 	svcle	0x0000000f
    42dc:	6400000a 	strvs	r0, [r0], #-10
    42e0:	20000098 	mulcs	r0, r8, r0
    42e4:	37000001 	strcc	r0, [r0, -r1]
    42e8:	02000011 	andeq	r0, r0, #17
    42ec:	6e690504 	cdpvs	5, 6, cr0, cr9, cr4, {0}
    42f0:	04030074 	streq	r0, [r3], #-116	; 0x74
    42f4:	0001bd07 	andeq	fp, r1, r7, lsl #26
    42f8:	002c0400 	eoreq	r0, ip, r0, lsl #8
    42fc:	01030000 	mrseq	r0, (UNDEF: 3)
    4300:	0000c206 	andeq	ip, r0, r6, lsl #4
    4304:	05020300 	streq	r0, [r2, #-768]	; 0x300
    4308:	0000000f 	andeq	r0, r0, pc
    430c:	f1050403 			; <UNDEFINED> instruction: 0xf1050403
    4310:	03000001 	movweq	r0, #1
    4314:	01ec0508 	mvneq	r0, r8, lsl #10
    4318:	01030000 	mrseq	r0, (UNDEF: 3)
    431c:	0000c008 	andeq	ip, r0, r8
    4320:	07020300 	streq	r0, [r2, -r0, lsl #6]
    4324:	000000e6 	andeq	r0, r0, r6, ror #1
    4328:	b8070403 	stmdalt	r7, {r0, r1, sl}
    432c:	03000001 	movweq	r0, #1
    4330:	01b30708 			; <UNDEFINED> instruction: 0x01b30708
    4334:	76050000 	strvc	r0, [r5], -r0
    4338:	0200000c 	andeq	r0, r0, #12
    433c:	00002507 	andeq	r2, r0, r7, lsl #10
    4340:	0c600500 	cfstr64eq	mvdx0, [r0], #-0
    4344:	2c030000 	stccs	0, cr0, [r3], {-0}
    4348:	00000046 	andeq	r0, r0, r6, asr #32
    434c:	000d3c05 	andeq	r3, sp, r5, lsl #24
    4350:	46720300 	ldrbtmi	r0, [r2], -r0, lsl #6
    4354:	06000000 	streq	r0, [r0], -r0
    4358:	00000c04 	andeq	r0, r0, r4, lsl #24
    435c:	2c016504 	cfstr32cs	mvfx6, [r1], {4}
    4360:	07000000 	streq	r0, [r0, -r0]
    4364:	bca60304 	stclt	3, cr0, [r6], #16
    4368:	08000000 	stmdaeq	r0, {}	; <UNPREDICTABLE>
    436c:	00000bef 	andeq	r0, r0, pc, ror #23
    4370:	0091a803 	addseq	sl, r1, r3, lsl #16
    4374:	97080000 	strls	r0, [r8, -r0]
    4378:	0300000b 	movweq	r0, #11
    437c:	0000bca9 	andeq	fp, r0, r9, lsr #25
    4380:	54090000 	strpl	r0, [r9], #-0
    4384:	cc000000 	stcgt	0, cr0, [r0], {-0}
    4388:	0a000000 	beq	4390 <__code_start__-0x3c70>
    438c:	000000cc 	andeq	r0, r0, ip, asr #1
    4390:	04030003 	streq	r0, [r3], #-3
    4394:	0001e307 	andeq	lr, r1, r7, lsl #6
    4398:	03080b00 	movweq	r0, #35584	; 0x8b00
    439c:	0000f4a3 	andeq	pc, r0, r3, lsr #9
    43a0:	0d210c00 	stceq	12, cr0, [r1, #-0]
    43a4:	a5030000 	strge	r0, [r3, #-0]
    43a8:	00000025 	andeq	r0, r0, r5, lsr #32
    43ac:	0d290c00 	stceq	12, cr0, [r9, #-0]
    43b0:	aa030000 	bge	c43b8 <__bss_end__+0xb9e50>
    43b4:	0000009d 	muleq	r0, sp, r0
    43b8:	b4050004 	strlt	r0, [r5], #-4
    43bc:	0300000c 	movweq	r0, #12
    43c0:	0000d3ab 	andeq	sp, r0, fp, lsr #7
    43c4:	0b600500 	bleq	18057cc <__bss_end__+0x17fb264>
    43c8:	af030000 	svcge	0x00030000
    43cc:	00000070 	andeq	r0, r0, r0, ror r0
    43d0:	040e040d 	streq	r0, [lr], #-1037	; 0x40d
    43d4:	00000112 	andeq	r0, r0, r2, lsl r1
    43d8:	c9080103 	stmdbgt	r8, {r0, r1, r8}
    43dc:	04000000 	streq	r0, [r0], #-0
    43e0:	00000112 	andeq	r0, r0, r2, lsl r1
    43e4:	000dde05 	andeq	sp, sp, r5, lsl #28
    43e8:	62160500 	andsvs	r0, r6, #0, 10
    43ec:	0f000000 	svceq	0x00000000
    43f0:	00000b71 	andeq	r0, r0, r1, ror fp
    43f4:	7c2d0518 	cfstr32vc	mvfx0, [sp], #-96	; 0xffffffa0
    43f8:	0c000001 	stceq	0, cr0, [r0], {1}
    43fc:	00000cd5 	ldrdeq	r0, [r0], -r5
    4400:	017c2f05 	cmneq	ip, r5, lsl #30
    4404:	10000000 	andne	r0, r0, r0
    4408:	05006b5f 	streq	r6, [r0, #-2911]	; 0xb5f
    440c:	00002530 	andeq	r2, r0, r0, lsr r5
    4410:	0c0c0400 	cfstrseq	mvf0, [ip], {-0}
    4414:	0500000d 	streq	r0, [r0, #-13]
    4418:	00002530 	andeq	r2, r0, r0, lsr r5
    441c:	4c0c0800 	stcmi	8, cr0, [ip], {-0}
    4420:	0500000b 	streq	r0, [r0, #-11]
    4424:	00002530 	andeq	r2, r0, r0, lsr r5
    4428:	250c0c00 	strcs	r0, [ip, #-3072]	; 0xc00
    442c:	0500000e 	streq	r0, [r0, #-14]
    4430:	00002530 	andeq	r2, r0, r0, lsr r5
    4434:	5f101000 	svcpl	0x00101000
    4438:	31050078 	tstcc	r5, r8, ror r0
    443c:	00000182 	andeq	r0, r0, r2, lsl #3
    4440:	040e0014 	streq	r0, [lr], #-20
    4444:	00000129 	andeq	r0, r0, r9, lsr #2
    4448:	00011e09 	andeq	r1, r1, r9, lsl #28
    444c:	00019200 	andeq	r9, r1, r0, lsl #4
    4450:	00cc0a00 	sbceq	r0, ip, r0, lsl #20
    4454:	00000000 	andeq	r0, r0, r0
    4458:	000b920f 	andeq	r9, fp, pc, lsl #4
    445c:	35052400 	strcc	r2, [r5, #-1024]	; 0x400
    4460:	0000020b 	andeq	r0, r0, fp, lsl #4
    4464:	000a4a0c 	andeq	r4, sl, ip, lsl #20
    4468:	25370500 	ldrcs	r0, [r7, #-1280]!	; 0x500
    446c:	00000000 	andeq	r0, r0, r0
    4470:	000d440c 	andeq	r4, sp, ip, lsl #8
    4474:	25380500 	ldrcs	r0, [r8, #-1280]!	; 0x500
    4478:	04000000 	streq	r0, [r0], #-0
    447c:	000a780c 	andeq	r7, sl, ip, lsl #16
    4480:	25390500 	ldrcs	r0, [r9, #-1280]!	; 0x500
    4484:	08000000 	stmdaeq	r0, {}	; <UNPREDICTABLE>
    4488:	000f150c 	andeq	r1, pc, ip, lsl #10
    448c:	253a0500 	ldrcs	r0, [sl, #-1280]!	; 0x500
    4490:	0c000000 	stceq	0, cr0, [r0], {-0}
    4494:	000c440c 	andeq	r4, ip, ip, lsl #8
    4498:	253b0500 	ldrcs	r0, [fp, #-1280]!	; 0x500
    449c:	10000000 	andne	r0, r0, r0
    44a0:	000c190c 	andeq	r1, ip, ip, lsl #18
    44a4:	253c0500 	ldrcs	r0, [ip, #-1280]!	; 0x500
    44a8:	14000000 	strne	r0, [r0], #-0
    44ac:	000e2a0c 	andeq	r2, lr, ip, lsl #20
    44b0:	253d0500 	ldrcs	r0, [sp, #-1280]!	; 0x500
    44b4:	18000000 	stmdane	r0, {}	; <UNPREDICTABLE>
    44b8:	000c960c 	andeq	r9, ip, ip, lsl #12
    44bc:	253e0500 	ldrcs	r0, [lr, #-1280]!	; 0x500
    44c0:	1c000000 	stcne	0, cr0, [r0], {-0}
    44c4:	000edc0c 	andeq	sp, lr, ip, lsl #24
    44c8:	253f0500 	ldrcs	r0, [pc, #-1280]!	; 3fd0 <__code_start__-0x4030>
    44cc:	20000000 	andcs	r0, r0, r0
    44d0:	0a871100 	beq	fe1c88d8 <__bss_end__+0xfe1be370>
    44d4:	01080000 	mrseq	r0, (UNDEF: 8)
    44d8:	024b4805 	subeq	r4, fp, #327680	; 0x50000
    44dc:	330c0000 	movwcc	r0, #49152	; 0xc000
    44e0:	0500000b 	streq	r0, [r0, #-11]
    44e4:	00024b49 	andeq	r4, r2, r9, asr #22
    44e8:	c50c0000 	strgt	r0, [ip, #-0]
    44ec:	05000009 	streq	r0, [r0, #-9]
    44f0:	00024b4a 	andeq	r4, r2, sl, asr #22
    44f4:	d0128000 	andsle	r8, r2, r0
    44f8:	0500000d 	streq	r0, [r0, #-13]
    44fc:	00011e4c 	andeq	r1, r1, ip, asr #28
    4500:	12010000 	andne	r0, r1, #0
    4504:	00000aac 	andeq	r0, r0, ip, lsr #21
    4508:	011e4f05 	tsteq	lr, r5, lsl #30
    450c:	01040000 	mrseq	r0, (UNDEF: 4)
    4510:	010a0900 	tsteq	sl, r0, lsl #18
    4514:	025b0000 	subseq	r0, fp, #0
    4518:	cc0a0000 	stcgt	0, cr0, [sl], {-0}
    451c:	1f000000 	svcne	0x00000000
    4520:	0c4d1100 	stfeqe	f1, [sp], {-0}
    4524:	01900000 	orrseq	r0, r0, r0
    4528:	02995b05 	addseq	r5, r9, #5120	; 0x1400
    452c:	d50c0000 	strle	r0, [ip, #-0]
    4530:	0500000c 	streq	r0, [r0, #-12]
    4534:	0002995c 	andeq	r9, r2, ip, asr r9
    4538:	ed0c0000 	stc	0, cr0, [ip, #-0]
    453c:	0500000c 	streq	r0, [r0, #-12]
    4540:	0000255d 	andeq	r2, r0, sp, asr r5
    4544:	470c0400 	strmi	r0, [ip, -r0, lsl #8]
    4548:	0500000b 	streq	r0, [r0, #-11]
    454c:	00029f5f 	andeq	r9, r2, pc, asr pc
    4550:	870c0800 	strhi	r0, [ip, -r0, lsl #16]
    4554:	0500000a 	streq	r0, [r0, #-10]
    4558:	00020b60 	andeq	r0, r2, r0, ror #22
    455c:	0e008800 	cdpeq	8, 0, cr8, cr0, cr0, {0}
    4560:	00025b04 	andeq	r5, r2, r4, lsl #22
    4564:	02af0900 	adceq	r0, pc, #0, 18
    4568:	02af0000 	adceq	r0, pc, #0
    456c:	cc0a0000 	stcgt	0, cr0, [sl], {-0}
    4570:	1f000000 	svcne	0x00000000
    4574:	b5040e00 	strlt	r0, [r4, #-3584]	; 0xe00
    4578:	13000002 	movwne	r0, #2
    457c:	000ca00f 	andeq	sl, ip, pc
    4580:	73050800 	movwvc	r0, #22528	; 0x5800
    4584:	000002db 	ldrdeq	r0, [r0], -fp
    4588:	000a6d0c 	andeq	r6, sl, ip, lsl #26
    458c:	db740500 	blle	1d05994 <__bss_end__+0x1cfb42c>
    4590:	00000002 	andeq	r0, r0, r2
    4594:	0009d10c 	andeq	sp, r9, ip, lsl #2
    4598:	25750500 	ldrbcs	r0, [r5, #-1280]!	; 0x500
    459c:	04000000 	streq	r0, [r0], #-0
    45a0:	54040e00 	strpl	r0, [r4], #-3584	; 0xe00
    45a4:	0f000000 	svceq	0x00000000
    45a8:	00000cbf 			; <UNDEFINED> instruction: 0x00000cbf
    45ac:	0bb30568 	bleq	fecc5b54 <__bss_end__+0xfecbb5ec>
    45b0:	10000004 	andne	r0, r0, r4
    45b4:	0500705f 	streq	r7, [r0, #-95]	; 0x5f
    45b8:	0002dbb4 			; <UNDEFINED> instruction: 0x0002dbb4
    45bc:	5f100000 	svcpl	0x00100000
    45c0:	b5050072 	strlt	r0, [r5, #-114]	; 0x72
    45c4:	00000025 	andeq	r0, r0, r5, lsr #32
    45c8:	775f1004 	ldrbvc	r1, [pc, -r4]
    45cc:	25b60500 	ldrcs	r0, [r6, #1280]!	; 0x500
    45d0:	08000000 	stmdaeq	r0, {}	; <UNPREDICTABLE>
    45d4:	000aa50c 	andeq	sl, sl, ip, lsl #10
    45d8:	3fb70500 	svccc	0x00b70500
    45dc:	0c000000 	stceq	0, cr0, [r0], {-0}
    45e0:	000bb80c 	andeq	fp, fp, ip, lsl #16
    45e4:	3fb80500 	svccc	0x00b80500
    45e8:	0e000000 	cdpeq	0, 0, cr0, cr0, cr0, {0}
    45ec:	66625f10 	uqadd16vs	r5, r2, r0
    45f0:	b6b90500 	ldrtlt	r0, [r9], r0, lsl #10
    45f4:	10000002 	andne	r0, r0, r2
    45f8:	000a140c 	andeq	r1, sl, ip, lsl #8
    45fc:	25ba0500 	ldrcs	r0, [sl, #1280]!	; 0x500
    4600:	18000000 	stmdane	r0, {}	; <UNPREDICTABLE>
    4604:	000a950c 	andeq	r9, sl, ip, lsl #10
    4608:	0ac10500 	beq	ff045a10 <__bss_end__+0xff03b4a8>
    460c:	1c000001 	stcne	0, cr0, [r0], {1}
    4610:	000f3c0c 	andeq	r3, pc, ip, lsl #24
    4614:	66c30500 	strbvs	r0, [r3], r0, lsl #10
    4618:	20000005 	andcs	r0, r0, r5
    461c:	000f560c 	andeq	r5, pc, ip, lsl #12
    4620:	90c50500 	sbcls	r0, r5, r0, lsl #10
    4624:	24000005 	strcs	r0, [r0], #-5
    4628:	000d310c 	andeq	r3, sp, ip, lsl #2
    462c:	b4c80500 	strblt	r0, [r8], #1280	; 0x500
    4630:	28000005 	stmdacs	r0, {r0, r2}
    4634:	000ef60c 	andeq	pc, lr, ip, lsl #12
    4638:	cec90500 	cdpgt	5, 12, cr0, cr9, cr0, {0}
    463c:	2c000005 	stccs	0, cr0, [r0], {5}
    4640:	62755f10 	rsbsvs	r5, r5, #16, 30	; 0x40
    4644:	b6cc0500 	strblt	r0, [ip], r0, lsl #10
    4648:	30000002 	andcc	r0, r0, r2
    464c:	70755f10 	rsbsvc	r5, r5, r0, lsl pc
    4650:	dbcd0500 	blle	ff345a58 <__bss_end__+0xff33b4f0>
    4654:	38000002 	stmdacc	r0, {r1}
    4658:	72755f10 	rsbsvc	r5, r5, #16, 30	; 0x40
    465c:	25ce0500 	strbcs	r0, [lr, #1280]	; 0x500
    4660:	3c000000 	stccc	0, cr0, [r0], {-0}
    4664:	000a580c 	andeq	r5, sl, ip, lsl #16
    4668:	d4d10500 	ldrble	r0, [r1], #1280	; 0x500
    466c:	40000005 	andmi	r0, r0, r5
    4670:	000ea10c 	andeq	sl, lr, ip, lsl #2
    4674:	e4d20500 	ldrb	r0, [r2], #1280	; 0x500
    4678:	43000005 	movwmi	r0, #5
    467c:	626c5f10 	rsbvs	r5, ip, #16, 30	; 0x40
    4680:	b6d50500 	ldrblt	r0, [r5], r0, lsl #10
    4684:	44000002 	strmi	r0, [r0], #-2
    4688:	000abb0c 	andeq	fp, sl, ip, lsl #22
    468c:	25d80500 	ldrbcs	r0, [r8, #1280]	; 0x500
    4690:	4c000000 	stcmi	0, cr0, [r0], {-0}
    4694:	000c230c 	andeq	r2, ip, ip, lsl #6
    4698:	7bd90500 	blvc	ff645aa0 <__bss_end__+0xff63b538>
    469c:	50000000 	andpl	r0, r0, r0
    46a0:	000e8c0c 	andeq	r8, lr, ip, lsl #24
    46a4:	29dc0500 	ldmibcs	ip, {r8, sl}^
    46a8:	54000004 	strpl	r0, [r0], #-4
    46ac:	000c0b0c 	andeq	r0, ip, ip, lsl #22
    46b0:	ffe00500 			; <UNDEFINED> instruction: 0xffe00500
    46b4:	58000000 	stmdapl	r0, {}	; <UNPREDICTABLE>
    46b8:	000cc70c 	andeq	ip, ip, ip, lsl #14
    46bc:	f4e20500 	vld2.16	{d16[0],d17[0]}, [r2], r0
    46c0:	5c000000 	stcpl	0, cr0, [r0], {-0}
    46c4:	000c110c 	andeq	r1, ip, ip, lsl #2
    46c8:	25e30500 	strbcs	r0, [r3, #1280]!	; 0x500
    46cc:	64000000 	strvs	r0, [r0], #-0
    46d0:	00251400 	eoreq	r1, r5, r0, lsl #8
    46d4:	04290000 	strteq	r0, [r9], #-0
    46d8:	29150000 	ldmdbcs	r5, {}	; <UNPREDICTABLE>
    46dc:	15000004 	strne	r0, [r0, #-4]
    46e0:	0000010a 	andeq	r0, r0, sl, lsl #2
    46e4:	00010c15 	andeq	r0, r1, r5, lsl ip
    46e8:	00251500 	eoreq	r1, r5, r0, lsl #10
    46ec:	0e000000 	cdpeq	0, 0, cr0, cr0, cr0, {0}
    46f0:	00043404 	andeq	r3, r4, r4, lsl #8
    46f4:	04290400 	strteq	r0, [r9], #-1024	; 0x400
    46f8:	14160000 	ldrne	r0, [r6], #-0
    46fc:	2800000d 	stmdacs	r0, {r0, r2, r3}
    4700:	02380504 	eorseq	r0, r8, #4, 10	; 0x1000000
    4704:	00000566 	andeq	r0, r0, r6, ror #10
    4708:	000c8f17 	andeq	r8, ip, r7, lsl pc
    470c:	023a0500 	eorseq	r0, sl, #0, 10
    4710:	00000025 	andeq	r0, r0, r5, lsr #32
    4714:	0ab41700 	beq	fed0a31c <__bss_end__+0xfecffdb4>
    4718:	3f050000 	svccc	0x00050000
    471c:	00063b02 	andeq	r3, r6, r2, lsl #22
    4720:	a8170400 	ldmdage	r7, {sl}
    4724:	0500000b 	streq	r0, [r0, #-11]
    4728:	063b023f 			; <UNDEFINED> instruction: 0x063b023f
    472c:	17080000 	strne	r0, [r8, -r0]
    4730:	00000b69 	andeq	r0, r0, r9, ror #22
    4734:	3b023f05 	blcc	94350 <__bss_end__+0x89de8>
    4738:	0c000006 	stceq	0, cr0, [r0], {6}
    473c:	000ce817 	andeq	lr, ip, r7, lsl r8
    4740:	02410500 	subeq	r0, r1, #0, 10
    4744:	00000025 	andeq	r0, r0, r5, lsr #32
    4748:	09df1710 	ldmibeq	pc, {r4, r8, r9, sl, ip}^	; <UNPREDICTABLE>
    474c:	42050000 	andmi	r0, r5, #0
    4750:	00081d02 	andeq	r1, r8, r2, lsl #26
    4754:	06171400 	ldreq	r1, [r7], -r0, lsl #8
    4758:	0500000e 	streq	r0, [r0, #-14]
    475c:	00250244 	eoreq	r0, r5, r4, asr #4
    4760:	17300000 	ldrne	r0, [r0, -r0]!
    4764:	00000cf2 	strdeq	r0, [r0], -r2
    4768:	8a024505 	bhi	95b84 <__bss_end__+0x8b61c>
    476c:	34000005 	strcc	r0, [r0], #-5
    4770:	000c5517 	andeq	r5, ip, r7, lsl r5
    4774:	02470500 	subeq	r0, r7, #0, 10
    4778:	00000025 	andeq	r0, r0, r5, lsr #32
    477c:	0d021738 	stceq	7, cr1, [r2, #-224]	; 0xffffff20
    4780:	49050000 	stmdbmi	r5, {}	; <UNPREDICTABLE>
    4784:	00083802 	andeq	r3, r8, r2, lsl #16
    4788:	e7173c00 	ldr	r3, [r7, -r0, lsl #24]
    478c:	0500000b 	streq	r0, [r0, #-11]
    4790:	017c024c 	cmneq	ip, ip, asr #4
    4794:	17400000 	strbne	r0, [r0, -r0]
    4798:	00000b88 	andeq	r0, r0, r8, lsl #23
    479c:	25024d05 	strcs	r4, [r2, #-3333]	; 0xd05
    47a0:	44000000 	strmi	r0, [r0], #-0
    47a4:	000f1017 	andeq	r1, pc, r7, lsl r0	; <UNPREDICTABLE>
    47a8:	024e0500 	subeq	r0, lr, #0, 10
    47ac:	0000017c 	andeq	r0, r0, ip, ror r1
    47b0:	0c6c1748 	stcleq	7, cr1, [ip], #-288	; 0xfffffee0
    47b4:	4f050000 	svcmi	0x00050000
    47b8:	00083e02 	andeq	r3, r8, r2, lsl #28
    47bc:	b0174c00 	andslt	r4, r7, r0, lsl #24
    47c0:	0500000b 	streq	r0, [r0, #-11]
    47c4:	00250252 	eoreq	r0, r5, r2, asr r2
    47c8:	17500000 	ldrbne	r0, [r0, -r0]
    47cc:	00000ad7 	ldrdeq	r0, [r0], -r7
    47d0:	0c025305 	stceq	3, cr5, [r2], {5}
    47d4:	54000001 	strpl	r0, [r0], #-1
    47d8:	000c8817 	andeq	r8, ip, r7, lsl r8
    47dc:	02760500 	rsbseq	r0, r6, #0, 10
    47e0:	000007fb 	strdeq	r0, [r0], -fp
    47e4:	0c4d1858 	mcrreq	8, 5, r1, sp, cr8
    47e8:	7a050000 	bvc	1447f0 <__bss_end__+0x13a288>
    47ec:	00029902 	andeq	r9, r2, r2, lsl #18
    47f0:	18014800 	stmdane	r1, {fp, lr}
    47f4:	00000bc5 	andeq	r0, r0, r5, asr #23
    47f8:	5b027b05 	blpl	a3414 <__bss_end__+0x98eac>
    47fc:	4c000002 	stcmi	0, cr0, [r0], {2}
    4800:	0e721801 	cdpeq	8, 7, cr1, cr2, cr1, {0}
    4804:	7f050000 	svcvc	0x00050000
    4808:	00084f02 	andeq	r4, r8, r2, lsl #30
    480c:	1802dc00 	stmdane	r2, {sl, fp, ip, lr, pc}
    4810:	00000a9d 	muleq	r0, sp, sl
    4814:	00028405 	andeq	r8, r2, r5, lsl #8
    4818:	e0000006 	and	r0, r0, r6
    481c:	0a821802 	beq	fe08a82c <__bss_end__+0xfe0802c4>
    4820:	85050000 	strhi	r0, [r5, #-0]
    4824:	00085b02 	andeq	r5, r8, r2, lsl #22
    4828:	0002ec00 	andeq	lr, r2, r0, lsl #24
    482c:	040b040e 	streq	r0, [fp], #-1038	; 0x40e
    4830:	25140000 	ldrcs	r0, [r4, #-0]
    4834:	8a000000 	bhi	483c <__code_start__-0x37c4>
    4838:	15000005 	strne	r0, [r0, #-5]
    483c:	00000429 	andeq	r0, r0, r9, lsr #8
    4840:	00010a15 	andeq	r0, r1, r5, lsl sl
    4844:	058a1500 	streq	r1, [sl, #1280]	; 0x500
    4848:	25150000 	ldrcs	r0, [r5, #-0]
    484c:	00000000 	andeq	r0, r0, r0
    4850:	0119040e 	tsteq	r9, lr, lsl #8
    4854:	040e0000 	streq	r0, [lr], #-0
    4858:	0000056c 	andeq	r0, r0, ip, ror #10
    485c:	00008614 	andeq	r8, r0, r4, lsl r6
    4860:	0005b400 	andeq	fp, r5, r0, lsl #8
    4864:	04291500 	strteq	r1, [r9], #-1280	; 0x500
    4868:	0a150000 	beq	544870 <__bss_end__+0x53a308>
    486c:	15000001 	strne	r0, [r0, #-1]
    4870:	00000086 	andeq	r0, r0, r6, lsl #1
    4874:	00002515 	andeq	r2, r0, r5, lsl r5
    4878:	040e0000 	streq	r0, [lr], #-0
    487c:	00000596 	muleq	r0, r6, r5
    4880:	00002514 	andeq	r2, r0, r4, lsl r5
    4884:	0005ce00 	andeq	ip, r5, r0, lsl #28
    4888:	04291500 	strteq	r1, [r9], #-1280	; 0x500
    488c:	0a150000 	beq	544894 <__bss_end__+0x53a32c>
    4890:	00000001 	andeq	r0, r0, r1
    4894:	05ba040e 	ldreq	r0, [sl, #1038]!	; 0x40e
    4898:	54090000 	strpl	r0, [r9], #-0
    489c:	e4000000 	str	r0, [r0], #-0
    48a0:	0a000005 	beq	48bc <__code_start__-0x3744>
    48a4:	000000cc 	andeq	r0, r0, ip, asr #1
    48a8:	54090002 	strpl	r0, [r9], #-2
    48ac:	f4000000 	vst4.8	{d0-d3}, [r0], r0
    48b0:	0a000005 	beq	48cc <__code_start__-0x3734>
    48b4:	000000cc 	andeq	r0, r0, ip, asr #1
    48b8:	ad060000 	stcge	0, cr0, [r6, #-0]
    48bc:	0500000c 	streq	r0, [r0, #-12]
    48c0:	02e1011d 	rsceq	r0, r1, #1073741831	; 0x40000007
    48c4:	34190000 	ldrcc	r0, [r9], #-0
    48c8:	0c00000e 	stceq	0, cr0, [r0], {14}
    48cc:	35012105 	strcc	r2, [r1, #-261]	; 0x105
    48d0:	17000006 	strne	r0, [r0, -r6]
    48d4:	00000cd5 	ldrdeq	r0, [r0], -r5
    48d8:	35012305 	strcc	r2, [r1, #-773]	; 0x305
    48dc:	00000006 	andeq	r0, r0, r6
    48e0:	000bbe17 	andeq	fp, fp, r7, lsl lr
    48e4:	01240500 	teqeq	r4, r0, lsl #10
    48e8:	00000025 	andeq	r0, r0, r5, lsr #32
    48ec:	0ca71704 	stceq	7, cr1, [r7], #16
    48f0:	25050000 	strcs	r0, [r5, #-0]
    48f4:	00063b01 	andeq	r3, r6, r1, lsl #22
    48f8:	0e000800 	cdpeq	8, 0, cr0, cr0, cr0, {0}
    48fc:	00060004 	andeq	r0, r6, r4
    4900:	f4040e00 			; <UNDEFINED> instruction: 0xf4040e00
    4904:	19000005 	stmdbne	r0, {r0, r2}
    4908:	000009d7 	ldrdeq	r0, [r0], -r7
    490c:	013d050e 	teqeq	sp, lr, lsl #10
    4910:	00000676 	andeq	r0, r0, r6, ror r6
    4914:	000d1b17 	andeq	r1, sp, r7, lsl fp
    4918:	013e0500 	teqeq	lr, r0, lsl #10
    491c:	00000676 	andeq	r0, r0, r6, ror r6
    4920:	0d551700 	ldcleq	7, cr1, [r5, #-0]
    4924:	3f050000 	svccc	0x00050000
    4928:	00067601 	andeq	r7, r6, r1, lsl #12
    492c:	d9170600 	ldmdble	r7, {r9, sl}
    4930:	0500000d 	streq	r0, [r0, #-13]
    4934:	005b0140 	subseq	r0, fp, r0, asr #2
    4938:	000c0000 	andeq	r0, ip, r0
    493c:	00005b09 	andeq	r5, r0, r9, lsl #22
    4940:	00068600 	andeq	r8, r6, r0, lsl #12
    4944:	00cc0a00 	sbceq	r0, ip, r0, lsl #20
    4948:	00020000 	andeq	r0, r2, r0
    494c:	5705d01a 	smladpl	r5, sl, r0, sp
    4950:	00078702 	andeq	r8, r7, r2, lsl #14
    4954:	0e181700 	cdpeq	7, 1, cr1, cr8, cr0, {0}
    4958:	59050000 	stmdbpl	r5, {}	; <UNPREDICTABLE>
    495c:	00002c02 	andeq	r2, r0, r2, lsl #24
    4960:	c3170000 	tstgt	r7, #0
    4964:	0500000d 	streq	r0, [r0, #-13]
    4968:	010c025a 	tsteq	ip, sl, asr r2
    496c:	17040000 	strne	r0, [r4, -r0]
    4970:	00000bda 	ldrdeq	r0, [r0], -sl
    4974:	87025b05 	strhi	r5, [r2, -r5, lsl #22]
    4978:	08000007 	stmdaeq	r0, {r0, r1, r2}
    497c:	000ee717 	andeq	lr, lr, r7, lsl r7
    4980:	025c0500 	subseq	r0, ip, #0, 10
    4984:	00000192 	muleq	r0, r2, r1
    4988:	0b791724 	bleq	1e4a620 <__bss_end__+0x1e400b8>
    498c:	5d050000 	stcpl	0, cr0, [r5, #-0]
    4990:	00002502 	andeq	r2, r0, r2, lsl #10
    4994:	d0174800 	andsle	r4, r7, r0, lsl #16
    4998:	0500000c 	streq	r0, [r0, #-12]
    499c:	0069025e 	rsbeq	r0, r9, lr, asr r2
    49a0:	17500000 	ldrbne	r0, [r0, -r0]
    49a4:	00000efd 	strdeq	r0, [r0], -sp
    49a8:	41025f05 	tstmi	r2, r5, lsl #30
    49ac:	58000006 	stmdapl	r0, {r1, r2}
    49b0:	000cdb17 	andeq	sp, ip, r7, lsl fp
    49b4:	02600500 	rsbeq	r0, r0, #0, 10
    49b8:	000000f4 	strdeq	r0, [r0], -r4
    49bc:	0f021768 	svceq	0x00021768
    49c0:	61050000 	mrsvs	r0, (UNDEF: 5)
    49c4:	0000f402 	andeq	pc, r0, r2, lsl #8
    49c8:	3c177000 	ldccc	0, cr7, [r7], {-0}
    49cc:	0500000a 	streq	r0, [r0, #-10]
    49d0:	00f40262 	rscseq	r0, r4, r2, ror #4
    49d4:	17780000 	ldrbne	r0, [r8, -r0]!
    49d8:	00000e54 	andeq	r0, r0, r4, asr lr
    49dc:	97026305 	strls	r6, [r2, -r5, lsl #6]
    49e0:	80000007 	andhi	r0, r0, r7
    49e4:	000bce17 	andeq	ip, fp, r7, lsl lr
    49e8:	02640500 	rsbeq	r0, r4, #0, 10
    49ec:	000007a7 	andeq	r0, r0, r7, lsr #15
    49f0:	0de61788 	stcleq	7, cr1, [r6, #544]!	; 0x220
    49f4:	65050000 	strvs	r0, [r5, #-0]
    49f8:	00002502 	andeq	r2, r0, r2, lsl #10
    49fc:	2517a000 	ldrcs	sl, [r7, #-0]
    4a00:	0500000b 	streq	r0, [r0, #-11]
    4a04:	00f40266 	rscseq	r0, r4, r6, ror #4
    4a08:	17a40000 	strne	r0, [r4, r0]!
    4a0c:	00000a2d 	andeq	r0, r0, sp, lsr #20
    4a10:	f4026705 	vst1.8	{d6}, [r2], r5
    4a14:	ac000000 	stcge	0, cr0, [r0], {-0}
    4a18:	000b1417 	andeq	r1, fp, r7, lsl r4
    4a1c:	02680500 	rsbeq	r0, r8, #0, 10
    4a20:	000000f4 	strdeq	r0, [r0], -r4
    4a24:	09f417b4 	ldmibeq	r4!, {r2, r4, r5, r7, r8, r9, sl, ip}^
    4a28:	69050000 	stmdbvs	r5, {}	; <UNPREDICTABLE>
    4a2c:	0000f402 	andeq	pc, r0, r2, lsl #8
    4a30:	0317bc00 	tsteq	r7, #0, 24
    4a34:	0500000a 	streq	r0, [r0, #-10]
    4a38:	00f4026a 	rscseq	r0, r4, sl, ror #4
    4a3c:	17c40000 	strbne	r0, [r4, r0]
    4a40:	00000c8d 	andeq	r0, r0, sp, lsl #25
    4a44:	25026b05 	strcs	r6, [r2, #-2821]	; 0xb05
    4a48:	cc000000 	stcgt	0, cr0, [r0], {-0}
    4a4c:	01120900 	tsteq	r2, r0, lsl #18
    4a50:	07970000 	ldreq	r0, [r7, r0]
    4a54:	cc0a0000 	stcgt	0, cr0, [sl], {-0}
    4a58:	19000000 	stmdbne	r0, {}	; <UNPREDICTABLE>
    4a5c:	01120900 	tsteq	r2, r0, lsl #18
    4a60:	07a70000 	streq	r0, [r7, r0]!
    4a64:	cc0a0000 	stcgt	0, cr0, [sl], {-0}
    4a68:	07000000 	streq	r0, [r0, -r0]
    4a6c:	01120900 	tsteq	r2, r0, lsl #18
    4a70:	07b70000 	ldreq	r0, [r7, r0]!
    4a74:	cc0a0000 	stcgt	0, cr0, [sl], {-0}
    4a78:	17000000 	strne	r0, [r0, -r0]
    4a7c:	05f01a00 	ldrbeq	r1, [r0, #2560]!	; 0xa00
    4a80:	07db0270 			; <UNDEFINED> instruction: 0x07db0270
    4a84:	3d170000 	ldccc	0, cr0, [r7, #-0]
    4a88:	0500000c 	streq	r0, [r0, #-12]
    4a8c:	07db0273 			; <UNDEFINED> instruction: 0x07db0273
    4a90:	17000000 	strne	r0, [r0, -r0]
    4a94:	00000e4b 	andeq	r0, r0, fp, asr #28
    4a98:	eb027405 	bl	a1ab4 <__bss_end__+0x9754c>
    4a9c:	78000007 	stmdavc	r0, {r0, r1, r2}
    4aa0:	02db0900 	sbcseq	r0, fp, #0, 18
    4aa4:	07eb0000 	strbeq	r0, [fp, r0]!
    4aa8:	cc0a0000 	stcgt	0, cr0, [sl], {-0}
    4aac:	1d000000 	stcne	0, cr0, [r0, #-0]
    4ab0:	002c0900 	eoreq	r0, ip, r0, lsl #18
    4ab4:	07fb0000 	ldrbeq	r0, [fp, r0]!
    4ab8:	cc0a0000 	stcgt	0, cr0, [sl], {-0}
    4abc:	1d000000 	stcne	0, cr0, [r0, #-0]
    4ac0:	05f01b00 	ldrbeq	r1, [r0, #2816]!	; 0xb00
    4ac4:	081d0255 	ldmdaeq	sp, {r0, r2, r4, r6, r9}
    4ac8:	141c0000 	ldrne	r0, [ip], #-0
    4acc:	0500000d 	streq	r0, [r0, #-13]
    4ad0:	0686026c 	streq	r0, [r6], ip, ror #4
    4ad4:	a71c0000 	ldrge	r0, [ip, -r0]
    4ad8:	0500000e 	streq	r0, [r0, #-14]
    4adc:	07b70275 			; <UNDEFINED> instruction: 0x07b70275
    4ae0:	09000000 	stmdbeq	r0, {}	; <UNPREDICTABLE>
    4ae4:	00000112 	andeq	r0, r0, r2, lsl r1
    4ae8:	0000082d 	andeq	r0, r0, sp, lsr #16
    4aec:	0000cc0a 	andeq	ip, r0, sl, lsl #24
    4af0:	1d001800 	stcne	8, cr1, [r0, #-0]
    4af4:	00000838 	andeq	r0, r0, r8, lsr r8
    4af8:	00042915 	andeq	r2, r4, r5, lsl r9
    4afc:	040e0000 	streq	r0, [lr], #-0
    4b00:	0000082d 	andeq	r0, r0, sp, lsr #16
    4b04:	017c040e 	cmneq	ip, lr, lsl #8
    4b08:	4f1d0000 	svcmi	0x001d0000
    4b0c:	15000008 	strne	r0, [r0, #-8]
    4b10:	00000025 	andeq	r0, r0, r5, lsr #32
    4b14:	55040e00 	strpl	r0, [r4, #-3584]	; 0xe00
    4b18:	0e000008 	cdpeq	0, 0, cr0, cr0, cr8, {0}
    4b1c:	00084404 	andeq	r4, r8, r4, lsl #8
    4b20:	05f40900 	ldrbeq	r0, [r4, #2304]!	; 0x900
    4b24:	086b0000 	stmdaeq	fp!, {}^	; <UNPREDICTABLE>
    4b28:	cc0a0000 	stcgt	0, cr0, [sl], {-0}
    4b2c:	02000000 	andeq	r0, r0, #0
    4b30:	0dfa1e00 	ldcleq	14, cr1, [sl]
    4b34:	fd050000 	stc2	0, cr0, [r5, #-0]
    4b38:	00042902 	andeq	r2, r4, r2, lsl #18
    4b3c:	0df31e00 	ldcleq	14, cr1, [r3]
    4b40:	fe050000 	cdp2	0, 0, cr0, cr5, cr0, {0}
    4b44:	00042f02 	andeq	r2, r4, r2, lsl #30
    4b48:	00251400 	eoreq	r1, r5, r0, lsl #8
    4b4c:	08920000 	ldmeq	r2, {}	; <UNPREDICTABLE>
    4b50:	25150000 	ldrcs	r0, [r5, #-0]
    4b54:	00000000 	andeq	r0, r0, r0
    4b58:	0005f41f 	andeq	pc, r5, pc, lsl r4	; <UNPREDICTABLE>
    4b5c:	9d1d0600 	ldcls	6, cr0, [sp, #-0]
    4b60:	0e000008 	cdpeq	0, 0, cr0, cr0, cr8, {0}
    4b64:	00088304 	andeq	r8, r8, r4, lsl #6
    4b68:	00251400 	eoreq	r1, r5, r0, lsl #8
    4b6c:	08b20000 	ldmeq	r2!, {}	; <UNPREDICTABLE>
    4b70:	8a150000 	bhi	544b78 <__bss_end__+0x53a610>
    4b74:	00000005 	andeq	r0, r0, r5
    4b78:	0006311f 	andeq	r3, r6, pc, lsl r1
    4b7c:	bd220600 	stclt	6, cr0, [r2, #-0]
    4b80:	0e000008 	cdpeq	0, 0, cr0, cr0, cr8, {0}
    4b84:	0008a304 	andeq	sl, r8, r4, lsl #6
    4b88:	54012000 	strpl	r2, [r1], #-0
    4b8c:	07000000 	streq	r0, [r0, -r0]
    4b90:	0009000c 	andeq	r0, r9, ip
    4b94:	0a1d2100 	beq	74cf9c <__bss_end__+0x742a34>
    4b98:	21000000 	mrscs	r0, (UNDEF: 0)
    4b9c:	00000e3a 	andeq	r0, r0, sl, lsr lr
    4ba0:	0e922101 	fmleqs	f2, f2, f1
    4ba4:	21040000 	mrscs	r0, (UNDEF: 4)
    4ba8:	00000a5e 	andeq	r0, r0, lr, asr sl
    4bac:	0bf52105 	bleq	ffd4cfc8 <__bss_end__+0xffd42a60>
    4bb0:	21060000 	mrscs	r0, (UNDEF: 6)
    4bb4:	00000eaf 	andeq	r0, r0, pc, lsr #29
    4bb8:	0ebe2107 	frdeqe	f2, f6, f7
    4bbc:	21030000 	mrscs	r0, (UNDEF: 3)
    4bc0:	00000ecd 	andeq	r0, r0, sp, asr #29
    4bc4:	8c050002 	stchi	0, cr0, [r5], {2}
    4bc8:	0700000f 	streq	r0, [r0, -pc]
    4bcc:	0008c315 	andeq	ip, r8, r5, lsl r3
    4bd0:	0f5d2200 	svceq	0x005d2200
    4bd4:	1d010000 	stcne	0, cr0, [r1, #-0]
    4bd8:	00000033 	andeq	r0, r0, r3, lsr r0
    4bdc:	2020001c 	eorcs	r0, r0, ip, lsl r0
    4be0:	000f9822 	andeq	r9, pc, r2, lsr #16
    4be4:	331e0100 	tstcc	lr, #0, 2
    4be8:	28000000 	stmdacs	r0, {}	; <UNPREDICTABLE>
    4bec:	22202000 	eorcs	r2, r0, #0
    4bf0:	00000f67 	andeq	r0, r0, r7, ror #30
    4bf4:	00331f01 	eorseq	r1, r3, r1, lsl #30
    4bf8:	00340000 	eorseq	r0, r4, r0
    4bfc:	38232020 	stmdacc	r3!, {r5, sp}
    4c00:	0100000f 	tsteq	r0, pc
    4c04:	00002556 	andeq	r2, r0, r6, asr r5
    4c08:	00995000 	addseq	r5, r9, r0
    4c0c:	00003400 	andeq	r3, r0, r0, lsl #8
    4c10:	989c0100 	ldmls	ip, {r8}
    4c14:	24000009 	strcs	r0, [r0], #-9
    4c18:	006e6970 	rsbeq	r6, lr, r0, ror r9
    4c1c:	002c5601 	eoreq	r5, ip, r1, lsl #12
    4c20:	0f590000 	svceq	0x00590000
    4c24:	2c250000 	stccs	0, cr0, [r5], #-0
    4c28:	0100000f 	tsteq	r0, pc
    4c2c:	00002c59 	andeq	r2, r0, r9, asr ip
    4c30:	000f9300 	andeq	r9, pc, r0, lsl #6
    4c34:	666f2600 	strbtvs	r2, [pc], -r0, lsl #12
    4c38:	5a010066 	bpl	44dd8 <__bss_end__+0x3a870>
    4c3c:	0000002c 	andeq	r0, r0, ip, lsr #32
    4c40:	00000fd1 	ldrdeq	r0, [r0], -r1
    4c44:	00996c27 	addseq	r6, r9, r7, lsr #24
    4c48:	000b5d00 	andeq	r5, fp, r0, lsl #26
    4c4c:	50012800 	andpl	r2, r1, r0, lsl #16
    4c50:	5001f30b 	andpl	pc, r1, fp, lsl #6
    4c54:	b4232535 	strtlt	r2, [r3], #-1333	; 0x535
    4c58:	02818080 	addeq	r8, r1, #128	; 0x80
    4c5c:	52290000 	eorpl	r0, r9, #0
    4c60:	0100000f 	tsteq	r0, pc
    4c64:	0099344f 	addseq	r3, r9, pc, asr #8
    4c68:	00001c00 	andeq	r1, r0, r0, lsl #24
    4c6c:	e89c0100 	ldm	ip, {r8}
    4c70:	24000009 	strcs	r0, [r0], #-9
    4c74:	006e6970 	rsbeq	r6, lr, r0, ror r9
    4c78:	002c4f01 	eoreq	r4, ip, r1, lsl #30
    4c7c:	0fe40000 	svceq	0x00e40000
    4c80:	76240000 	strtvc	r0, [r4], -r0
    4c84:	2c4f0100 	stfcse	f0, [pc], {-0}
    4c88:	1e000000 	cdpne	0, 0, cr0, cr0, cr0, {0}
    4c8c:	2a000010 	bcs	4cd4 <__code_start__-0x332c>
    4c90:	00009944 	andeq	r9, r0, r4, asr #18
    4c94:	00000a23 	andeq	r0, r0, r3, lsr #20
    4c98:	000009de 	ldrdeq	r0, [r0], -lr
    4c9c:	03500128 	cmpeq	r0, #40, 2
    4ca0:	005001f3 	ldrsheq	r0, [r0], #-19	; 0xffffffed
    4ca4:	00994c2b 	addseq	r4, r9, fp, lsr #24
    4ca8:	000a6400 	andeq	r6, sl, r0, lsl #8
    4cac:	71290000 	teqvc	r9, r0
    4cb0:	0100000f 	tsteq	r0, pc
    4cb4:	0099244a 	addseq	r2, r9, sl, asr #8
    4cb8:	00001000 	andeq	r1, r0, r0
    4cbc:	239c0100 	orrscs	r0, ip, #0, 2
    4cc0:	2400000a 	strcs	r0, [r0], #-10
    4cc4:	006e6970 	rsbeq	r6, lr, r0, ror r9
    4cc8:	002c4a01 	eoreq	r4, ip, r1, lsl #20
    4ccc:	10580000 	subsne	r0, r8, r0
    4cd0:	30270000 	eorcc	r0, r7, r0
    4cd4:	e0000099 	mul	r0, r9, r0
    4cd8:	2800000a 	stmdacs	r0, {r1, r3}
    4cdc:	f3035001 	vhadd.u8	d5, d3, d1
    4ce0:	01285001 	teqeq	r8, r1
    4ce4:	00300151 	eorseq	r0, r0, r1, asr r1
    4ce8:	0f1f2900 	svceq	0x001f2900
    4cec:	43010000 	movwmi	r0, #4096	; 0x1000
    4cf0:	00009900 	andeq	r9, r0, r0, lsl #18
    4cf4:	00000024 	andeq	r0, r0, r4, lsr #32
    4cf8:	0a649c01 	beq	192bd04 <__bss_end__+0x192179c>
    4cfc:	70240000 	eorvc	r0, r4, r0
    4d00:	01006e69 	tsteq	r0, r9, ror #28
    4d04:	00002c43 	andeq	r2, r0, r3, asr #24
    4d08:	00107900 	andseq	r7, r0, r0, lsl #18
    4d0c:	991c2700 	ldmdbls	ip, {r8, r9, sl, sp}
    4d10:	0b680000 	bleq	1a04d18 <__bss_end__+0x19fa7b0>
    4d14:	01280000 	teqeq	r8, r0
    4d18:	280c0550 	stmdacs	ip, {r4, r6, r8, sl}
    4d1c:	28202000 	stmdacs	r0!, {sp}
    4d20:	31055101 	tstcc	r5, r1, lsl #2
    4d24:	245001f3 	ldrbcs	r0, [r0], #-499	; 0x1f3
    4d28:	80290000 	eorhi	r0, r9, r0
    4d2c:	0100000f 	tsteq	r0, pc
    4d30:	0098dc3c 	addseq	sp, r8, ip, lsr ip
    4d34:	00002400 	andeq	r2, r0, r0, lsl #8
    4d38:	a59c0100 	ldrge	r0, [ip, #256]	; 0x100
    4d3c:	2400000a 	strcs	r0, [r0], #-10
    4d40:	006e6970 	rsbeq	r6, lr, r0, ror r9
    4d44:	002c3c01 	eoreq	r3, ip, r1, lsl #24
    4d48:	109a0000 	addsne	r0, sl, r0
    4d4c:	f8270000 			; <UNDEFINED> instruction: 0xf8270000
    4d50:	68000098 	stmdavs	r0, {r3, r4, r7}
    4d54:	2800000b 	stmdacs	r0, {r0, r1, r3}
    4d58:	0c055001 	stceq	0, cr5, [r5], {1}
    4d5c:	2020001c 	eorcs	r0, r0, ip, lsl r0
    4d60:	05510128 	ldrbeq	r0, [r1, #-296]	; 0x128
    4d64:	5001f331 	andpl	pc, r1, r1, lsr r3	; <UNPREDICTABLE>
    4d68:	29000024 	stmdbcs	r0, {r2, r5}
    4d6c:	00000f42 	andeq	r0, r0, r2, asr #30
    4d70:	98cc3701 	stmials	ip, {r0, r8, r9, sl, ip, sp}^
    4d74:	00100000 	andseq	r0, r0, r0
    4d78:	9c010000 	stcls	0, cr0, [r1], {-0}
    4d7c:	00000ae0 	andeq	r0, r0, r0, ror #21
    4d80:	6e697024 	cdpvs	0, 6, cr7, cr9, cr4, {1}
    4d84:	2c370100 	ldfcss	f0, [r7], #-0
    4d88:	bb000000 	bllt	4d90 <__code_start__-0x3270>
    4d8c:	27000010 	smladcs	r0, r0, r0, r0
    4d90:	000098d8 	ldrdeq	r9, [r0], -r8
    4d94:	00000ae0 	andeq	r0, r0, r0, ror #21
    4d98:	03500128 	cmpeq	r0, #40, 2
    4d9c:	285001f3 	ldmdacs	r0, {r0, r1, r4, r5, r6, r7, r8}^
    4da0:	31015101 	tstcc	r1, r1, lsl #2
    4da4:	2b290000 	blcs	a44dac <__bss_end__+0xa3a844>
    4da8:	0100000c 	tsteq	r0, ip
    4dac:	00986428 	addseq	r6, r8, r8, lsr #8
    4db0:	00006800 	andeq	r6, r0, r0, lsl #16
    4db4:	5d9c0100 	ldfpls	f0, [ip]
    4db8:	2400000b 	strcs	r0, [r0], #-11
    4dbc:	006e6970 	rsbeq	r6, lr, r0, ror r9
    4dc0:	002c2801 	eoreq	r2, ip, r1, lsl #16
    4dc4:	10dc0000 	sbcsne	r0, ip, r0
    4dc8:	772c0000 	strvc	r0, [ip, -r0]!
    4dcc:	0100000e 	tsteq	r0, lr
    4dd0:	00090028 	andeq	r0, r9, r8, lsr #32
    4dd4:	0010fd00 	andseq	pc, r0, r0, lsl #26
    4dd8:	666f2d00 	strbtvs	r2, [pc], -r0, lsl #26
    4ddc:	2d010066 	stccs	0, cr0, [r1, #-408]	; 0xfffffe68
    4de0:	0000002c 	andeq	r0, r0, ip, lsr #32
    4de4:	672d5401 	strvs	r5, [sp, -r1, lsl #8]!
    4de8:	2c2f0100 	stfcss	f0, [pc], #-0	; 4df0 <__code_start__-0x3210>
    4dec:	01000000 	mrseq	r0, (UNDEF: 0)
    4df0:	00762656 	rsbseq	r2, r6, r6, asr r6
    4df4:	002c3101 	eoreq	r3, ip, r1, lsl #2
    4df8:	111e0000 	tstne	lr, r0
    4dfc:	b02a0000 	eorlt	r0, sl, r0
    4e00:	5d000098 	stcpl	0, cr0, [r0, #-608]	; 0xfffffda0
    4e04:	4c00000b 	stcmi	0, cr0, [r0], {11}
    4e08:	2800000b 	stmdacs	r0, {r0, r1, r3}
    4e0c:	76025001 	strvc	r5, [r2], -r1
    4e10:	c4270000 	strtgt	r0, [r7], #-0
    4e14:	68000098 	stmdavs	r0, {r3, r4, r7}
    4e18:	2800000b 	stmdacs	r0, {r0, r1, r3}
    4e1c:	76025001 	strvc	r5, [r2], -r1
    4e20:	2e000000 	cdpcs	0, 0, cr0, cr0, cr0, {0}
    4e24:	00000994 	muleq	r0, r4, r9
    4e28:	00000994 	muleq	r0, r4, r9
    4e2c:	ce2ea706 	cdpgt	7, 2, cr10, cr14, cr6, {0}
    4e30:	ce000008 	cdpgt	0, 0, cr0, cr0, cr8, {0}
    4e34:	06000008 	streq	r0, [r0], -r8
    4e38:	Address 0x0000000000004e38 is out of bounds.


Disassembly of section .debug_abbrev:

00000000 <.debug_abbrev>:
       0:	25011101 	strcs	r1, [r1, #-257]	; 0x101
       4:	030b130e 	movweq	r1, #45838	; 0xb30e
       8:	110e1b0e 	tstne	lr, lr, lsl #22
       c:	10061201 	andne	r1, r6, r1, lsl #4
      10:	02000017 	andeq	r0, r0, #23
      14:	0b0b0024 	bleq	2c00ac <__bss_end__+0x2b5b44>
      18:	08030b3e 	stmdaeq	r3, {r1, r2, r3, r4, r5, r8, r9, fp}
      1c:	24030000 	strcs	r0, [r3], #-0
      20:	3e0b0b00 	vmlacc.f64	d0, d11, d0
      24:	000e030b 	andeq	r0, lr, fp, lsl #6
      28:	00160400 	andseq	r0, r6, r0, lsl #8
      2c:	0b3a0e03 	bleq	e83840 <__bss_end__+0xe792d8>
      30:	13490b3b 	movtne	r0, #39739	; 0x9b3b
      34:	0f050000 	svceq	0x00050000
      38:	490b0b00 	stmdbmi	fp, {r8, r9, fp}
      3c:	06000013 			; <UNDEFINED> instruction: 0x06000013
      40:	13490026 	movtne	r0, #36902	; 0x9026
      44:	01070000 	mrseq	r0, (UNDEF: 7)
      48:	01134901 	tsteq	r3, r1, lsl #18
      4c:	08000013 	stmdaeq	r0, {r0, r1, r4}
      50:	13490021 	movtne	r0, #36897	; 0x9021
      54:	00000b2f 	andeq	r0, r0, pc, lsr #22
      58:	03011309 	movweq	r1, #4873	; 0x1309
      5c:	3a0b0b0e 	bcc	2c2c9c <__bss_end__+0x2b8734>
      60:	010b3b0b 	tsteq	fp, fp, lsl #22
      64:	0a000013 	beq	b8 <__code_start__-0x7f48>
      68:	0e03000d 	cdpeq	0, 0, cr0, cr3, cr13, {0}
      6c:	0b3b0b3a 	bleq	ec2d5c <__bss_end__+0xeb87f4>
      70:	0b381349 	bleq	e04d9c <__bss_end__+0xdfa834>
      74:	0d0b0000 	stceq	0, cr0, [fp, #-0]
      78:	3a080300 	bcc	200c80 <__bss_end__+0x1f6718>
      7c:	490b3b0b 	stmdbmi	fp, {r0, r1, r3, r8, r9, fp, ip, sp}
      80:	000b3813 	andeq	r3, fp, r3, lsl r8
      84:	00350c00 	eorseq	r0, r5, r0, lsl #24
      88:	150d0000 	strne	r0, [sp, #-0]
      8c:	01192701 	tsteq	r9, r1, lsl #14
      90:	0e000013 	mcreq	0, 0, r0, cr0, cr3, {0}
      94:	13490005 	movtne	r0, #36869	; 0x9005
      98:	150f0000 	strne	r0, [pc, #-0]	; a0 <__code_start__-0x7f60>
      9c:	49192701 	ldmdbmi	r9, {r0, r8, r9, sl, sp}
      a0:	00130113 	andseq	r0, r3, r3, lsl r1
      a4:	00351000 	eorseq	r1, r5, r0
      a8:	00001349 	andeq	r1, r0, r9, asr #6
      ac:	03012e11 	movweq	r2, #7697	; 0x1e11
      b0:	3b0b3a0e 	blcc	2ce8f0 <__bss_end__+0x2c4388>
      b4:	2019270b 	andscs	r2, r9, fp, lsl #14
      b8:	0013010b 	andseq	r0, r3, fp, lsl #2
      bc:	00051200 	andeq	r1, r5, r0, lsl #4
      c0:	0b3a0e03 	bleq	e838d4 <__bss_end__+0xe7936c>
      c4:	13490b3b 	movtne	r0, #39739	; 0x9b3b
      c8:	2e130000 	cdpcs	0, 1, cr0, cr3, cr0, {0}
      cc:	3a0e0301 	bcc	380cd8 <__bss_end__+0x376770>
      d0:	270b3b0b 	strcs	r3, [fp, -fp, lsl #22]
      d4:	12011119 	andne	r1, r1, #1073741830	; 0x40000006
      d8:	97184006 	ldrls	r4, [r8, -r6]
      dc:	13011942 	movwne	r1, #6466	; 0x1942
      e0:	05140000 	ldreq	r0, [r4, #-0]
      e4:	3a080300 	bcc	200cec <__bss_end__+0x1f6784>
      e8:	490b3b0b 	stmdbmi	fp, {r0, r1, r3, r8, r9, fp, ip, sp}
      ec:	00180213 	andseq	r0, r8, r3, lsl r2
      f0:	012e1500 	teqeq	lr, r0, lsl #10
      f4:	0b3a0e03 	bleq	e83908 <__bss_end__+0xe793a0>
      f8:	19270b3b 	stmdbne	r7!, {r0, r1, r3, r4, r5, r8, r9, fp}
      fc:	01111349 	tsteq	r1, r9, asr #6
     100:	18400612 	stmdane	r0, {r1, r4, r9, sl}^
     104:	01194297 			; <UNDEFINED> instruction: 0x01194297
     108:	16000013 			; <UNDEFINED> instruction: 0x16000013
     10c:	08030005 	stmdaeq	r3, {r0, r2}
     110:	0b3b0b3a 	bleq	ec2e00 <__bss_end__+0xeb8898>
     114:	17021349 	strne	r1, [r2, -r9, asr #6]
     118:	2e170000 	cdpcs	0, 1, cr0, cr7, cr0, {0}
     11c:	03193f00 	tsteq	r9, #0, 30
     120:	3b0b3a0e 	blcc	2ce960 <__bss_end__+0x2c43f8>
     124:	4919270b 	ldmdbmi	r9, {r0, r1, r3, r8, r9, sl, sp}
     128:	12011113 	andne	r1, r1, #-1073741820	; 0xc0000004
     12c:	97184006 	ldrls	r4, [r8, -r6]
     130:	00001942 	andeq	r1, r0, r2, asr #18
     134:	3f012e18 	svccc	0x00012e18
     138:	3a0e0319 	bcc	380da4 <__bss_end__+0x37683c>
     13c:	270b3b0b 	strcs	r3, [fp, -fp, lsl #22]
     140:	12011119 	andne	r1, r1, #1073741830	; 0x40000006
     144:	97184006 	ldrls	r4, [r8, -r6]
     148:	13011942 	movwne	r1, #6466	; 0x1942
     14c:	34190000 	ldrcc	r0, [r9], #-0
     150:	3a080300 	bcc	200d58 <__bss_end__+0x1f67f0>
     154:	490b3b0b 	stmdbmi	fp, {r0, r1, r3, r8, r9, fp, ip, sp}
     158:	00180213 	andseq	r0, r8, r3, lsl r2
     15c:	00341a00 	eorseq	r1, r4, r0, lsl #20
     160:	0b3a0803 	bleq	e82174 <__bss_end__+0xe77c0c>
     164:	13490b3b 	movtne	r0, #39739	; 0x9b3b
     168:	341b0000 	ldrcc	r0, [fp], #-0
     16c:	490e0300 	stmdbmi	lr, {r8, r9}
     170:	02193413 	andseq	r3, r9, #318767104	; 0x13000000
     174:	1c000018 	stcne	0, cr0, [r0], {24}
     178:	1331011d 	teqne	r1, #1073741831	; 0x40000007
     17c:	06120111 			; <UNDEFINED> instruction: 0x06120111
     180:	0b590b58 	bleq	1642ee8 <__bss_end__+0x1638980>
     184:	00001301 	andeq	r1, r0, r1, lsl #6
     188:	3100051d 	tstcc	r0, sp, lsl r5
     18c:	000b1c13 	andeq	r1, fp, r3, lsl ip
     190:	82891e00 	addhi	r1, r9, #0, 28
     194:	01110001 	tsteq	r1, r1
     198:	00001331 	andeq	r1, r0, r1, lsr r3
     19c:	0182891f 	orreq	r8, r2, pc, lsl r9
     1a0:	31011101 	tstcc	r1, r1, lsl #2
     1a4:	00130113 	andseq	r0, r3, r3, lsl r1
     1a8:	828a2000 	addhi	r2, sl, #0
     1ac:	18020001 	stmdane	r2, {r0}
     1b0:	00184291 	mulseq	r8, r1, r2
     1b4:	00342100 	eorseq	r2, r4, r0, lsl #2
     1b8:	0b3a0e03 	bleq	e839cc <__bss_end__+0xe79464>
     1bc:	13490b3b 	movtne	r0, #39739	; 0x9b3b
     1c0:	193c193f 	ldmdbne	ip!, {r0, r1, r2, r3, r4, r5, r8, fp, ip}
     1c4:	2e220000 	cdpcs	0, 2, cr0, cr2, cr0, {0}
     1c8:	03193f00 	tsteq	r9, #0, 30
     1cc:	3b0b3a0e 	blcc	2cea0c <__bss_end__+0x2c44a4>
     1d0:	3c19270b 	ldccc	7, cr2, [r9], {11}
     1d4:	23000019 	movwcs	r0, #25
     1d8:	193f012e 	ldmdbne	pc!, {r1, r2, r3, r5, r8}	; <UNPREDICTABLE>
     1dc:	0b3a0e03 	bleq	e839f0 <__bss_end__+0xe79488>
     1e0:	19270b3b 	stmdbne	r7!, {r0, r1, r3, r4, r5, r8, r9, fp}
     1e4:	193c1349 	ldmdbne	ip!, {r0, r3, r6, r8, r9, ip}
     1e8:	00001301 	andeq	r1, r0, r1, lsl #6
     1ec:	00001824 	andeq	r1, r0, r4, lsr #16
     1f0:	11010000 	mrsne	r0, (UNDEF: 1)
     1f4:	130e2501 	movwne	r2, #58625	; 0xe501
     1f8:	1b0e030b 	blne	380e2c <__bss_end__+0x3768c4>
     1fc:	1201110e 	andne	r1, r1, #-2147483645	; 0x80000003
     200:	00171006 	andseq	r1, r7, r6
     204:	00240200 	eoreq	r0, r4, r0, lsl #4
     208:	0b3e0b0b 	bleq	f82e3c <__bss_end__+0xf788d4>
     20c:	00000803 	andeq	r0, r0, r3, lsl #16
     210:	0b002403 	bleq	9224 <va_printk+0x140>
     214:	030b3e0b 	movweq	r3, #48651	; 0xbe0b
     218:	0400000e 	streq	r0, [r0], #-14
     21c:	0e030016 	mcreq	0, 0, r0, cr3, cr6, {0}
     220:	0b3b0b3a 	bleq	ec2f10 <__bss_end__+0xeb89a8>
     224:	00001349 	andeq	r1, r0, r9, asr #6
     228:	0b000f05 	bleq	3e44 <__code_start__-0x41bc>
     22c:	0600000b 	streq	r0, [r0], -fp
     230:	0b0b000f 	bleq	2c0274 <__bss_end__+0x2b5d0c>
     234:	00001349 	andeq	r1, r0, r9, asr #6
     238:	49002607 	stmdbmi	r0, {r0, r1, r2, r9, sl, sp}
     23c:	08000013 	stmdaeq	r0, {r0, r1, r4}
     240:	19270115 	stmdbne	r7!, {r0, r2, r4, r8}
     244:	00001301 	andeq	r1, r0, r1, lsl #6
     248:	49000509 	stmdbmi	r0, {r0, r3, r8, sl}
     24c:	0a000013 	beq	2a0 <__code_start__-0x7d60>
     250:	0e03012e 	adfeqsp	f0, f3, #0.5
     254:	0b3b0b3a 	bleq	ec2f44 <__bss_end__+0xeb89dc>
     258:	13491927 	movtne	r1, #39207	; 0x9927
     25c:	13010b20 	movwne	r0, #6944	; 0x1b20
     260:	340b0000 	strcc	r0, [fp], #-0
     264:	3a080300 	bcc	200e6c <__bss_end__+0x1f6904>
     268:	490b3b0b 	stmdbmi	fp, {r0, r1, r3, r8, r9, fp, ip, sp}
     26c:	0c000013 	stceq	0, cr0, [r0], {19}
     270:	08030005 	stmdaeq	r3, {r0, r2}
     274:	0b3b0b3a 	bleq	ec2f64 <__bss_end__+0xeb89fc>
     278:	00001349 	andeq	r1, r0, r9, asr #6
     27c:	03012e0d 	movweq	r2, #7693	; 0x1e0d
     280:	3b0b3a0e 	blcc	2ceac0 <__bss_end__+0x2c4558>
     284:	2019270b 	andscs	r2, r9, fp, lsl #14
     288:	0013010b 	andseq	r0, r3, fp, lsl #2
     28c:	00340e00 	eorseq	r0, r4, r0, lsl #28
     290:	0b3a0e03 	bleq	e83aa4 <__bss_end__+0xe7953c>
     294:	13490b3b 	movtne	r0, #39739	; 0x9b3b
     298:	2e0f0000 	cdpcs	0, 0, cr0, cr15, cr0, {0}
     29c:	03193f01 	tsteq	r9, #1, 30
     2a0:	3b0b3a0e 	blcc	2ceae0 <__bss_end__+0x2c4578>
     2a4:	1119270b 	tstne	r9, fp, lsl #14
     2a8:	40061201 	andmi	r1, r6, r1, lsl #4
     2ac:	19429718 	stmdbne	r2, {r3, r4, r8, r9, sl, ip, pc}^
     2b0:	00001301 	andeq	r1, r0, r1, lsl #6
     2b4:	03000510 	movweq	r0, #1296	; 0x510
     2b8:	3b0b3a0e 	blcc	2ceaf8 <__bss_end__+0x2c4590>
     2bc:	0213490b 	andseq	r4, r3, #180224	; 0x2c000
     2c0:	11000017 	tstne	r0, r7, lsl r0
     2c4:	0e030034 	mcreq	0, 0, r0, cr3, cr4, {1}
     2c8:	0b3b0b3a 	bleq	ec2fb8 <__bss_end__+0xeb8a50>
     2cc:	17021349 	strne	r1, [r2, -r9, asr #6]
     2d0:	34120000 	ldrcc	r0, [r2], #-0
     2d4:	490e0300 	stmdbmi	lr, {r8, r9}
     2d8:	02193413 	andseq	r3, r9, #318767104	; 0x13000000
     2dc:	13000018 	movwne	r0, #24
     2e0:	1331011d 	teqne	r1, #1073741831	; 0x40000007
     2e4:	06120111 			; <UNDEFINED> instruction: 0x06120111
     2e8:	0b590b58 	bleq	1643050 <__bss_end__+0x1638ae8>
     2ec:	00001301 	andeq	r1, r0, r1, lsl #6
     2f0:	11010b14 	tstne	r1, r4, lsl fp
     2f4:	00061201 	andeq	r1, r6, r1, lsl #4
     2f8:	00341500 	eorseq	r1, r4, r0, lsl #10
     2fc:	17021331 	smladxne	r2, r1, r3, r1
     300:	05160000 	ldreq	r0, [r6, #-0]
     304:	02133100 	andseq	r3, r3, #0, 2
     308:	17000017 	smladne	r0, r7, r0, r0
     30c:	13310005 	teqne	r1, #5
     310:	0000051c 	andeq	r0, r0, ip, lsl r5
     314:	31000518 	tstcc	r0, r8, lsl r5
     318:	000b1c13 	andeq	r1, fp, r3, lsl ip
     31c:	82891900 	addhi	r1, r9, #0, 18
     320:	01110001 	tsteq	r1, r1
     324:	00001331 	andeq	r1, r0, r1, lsr r3
     328:	0182891a 	orreq	r8, r2, sl, lsl r9
     32c:	31011101 	tstcc	r1, r1, lsl #2
     330:	00130113 	andseq	r0, r3, r3, lsl r1
     334:	828a1b00 	addhi	r1, sl, #0, 22
     338:	18020001 	stmdane	r2, {r0}
     33c:	00184291 	mulseq	r8, r1, r2
     340:	01011c00 	tsteq	r1, r0, lsl #24
     344:	13011349 	movwne	r1, #4937	; 0x1349
     348:	211d0000 	tstcs	sp, r0
     34c:	2f134900 	svccs	0x00134900
     350:	1e00000b 	cdpne	0, 0, cr0, cr0, cr11, {0}
     354:	0e030034 	mcreq	0, 0, r0, cr3, cr4, {1}
     358:	19341349 	ldmdbne	r4!, {r0, r3, r6, r8, r9, ip}
     35c:	00000e1c 	andeq	r0, r0, ip, lsl lr
     360:	0300051f 	movweq	r0, #1311	; 0x51f
     364:	3b0b3a08 	blcc	2ceb8c <__bss_end__+0x2c4624>
     368:	0213490b 	andseq	r4, r3, #180224	; 0x2c000
     36c:	20000017 	andcs	r0, r0, r7, lsl r0
     370:	0e030034 	mcreq	0, 0, r0, cr3, cr4, {1}
     374:	0b3b0b3a 	bleq	ec3064 <__bss_end__+0xeb8afc>
     378:	18021349 	stmdane	r2, {r0, r3, r6, r8, r9, ip}
     37c:	34210000 	strtcc	r0, [r1], #-0
     380:	00133100 	andseq	r3, r3, r0, lsl #2
     384:	011d2200 	tsteq	sp, r0, lsl #4
     388:	01111331 	tsteq	r1, r1, lsr r3
     38c:	0b580612 	bleq	1601bdc <__bss_end__+0x15f7674>
     390:	00000b59 	andeq	r0, r0, r9, asr fp
     394:	31003423 	tstcc	r0, r3, lsr #8
     398:	00180213 	andseq	r0, r8, r3, lsl r2
     39c:	82892400 	addhi	r2, r9, #0, 8
     3a0:	01110101 	tsteq	r1, r1, lsl #2
     3a4:	34250000 	strtcc	r0, [r5], #-0
     3a8:	3a080300 	bcc	200fb0 <__bss_end__+0x1f6a48>
     3ac:	490b3b0b 	stmdbmi	fp, {r0, r1, r3, r8, r9, fp, ip, sp}
     3b0:	00051c13 	andeq	r1, r5, r3, lsl ip
     3b4:	00052600 	andeq	r2, r5, r0, lsl #12
     3b8:	0b3a0e03 	bleq	e83bcc <__bss_end__+0xe79664>
     3bc:	13490b3b 	movtne	r0, #39739	; 0x9b3b
     3c0:	00001802 	andeq	r1, r0, r2, lsl #16
     3c4:	31000527 	tstcc	r0, r7, lsr #10
     3c8:	00180213 	andseq	r0, r8, r3, lsl r2
     3cc:	00052800 	andeq	r2, r5, r0, lsl #16
     3d0:	0b3a0803 	bleq	e823e4 <__bss_end__+0xe77e7c>
     3d4:	13490b3b 	movtne	r0, #39739	; 0x9b3b
     3d8:	00001802 	andeq	r1, r0, r2, lsl #16
     3dc:	31000529 	tstcc	r0, r9, lsr #10
     3e0:	00061c13 	andeq	r1, r6, r3, lsl ip
     3e4:	00342a00 	eorseq	r2, r4, r0, lsl #20
     3e8:	0b3a0e03 	bleq	e83bfc <__bss_end__+0xe79694>
     3ec:	13490b3b 	movtne	r0, #39739	; 0x9b3b
     3f0:	0000061c 	andeq	r0, r0, ip, lsl r6
     3f4:	31011d2b 	tstcc	r1, fp, lsr #26
     3f8:	12011113 	andne	r1, r1, #-1073741820	; 0xc0000004
     3fc:	590b5806 	stmdbpl	fp, {r1, r2, fp, ip, lr}
     400:	2c000005 	stccs	0, cr0, [r0], {5}
     404:	193f012e 	ldmdbne	pc!, {r1, r2, r3, r5, r8}	; <UNPREDICTABLE>
     408:	0b3a0e03 	bleq	e83c1c <__bss_end__+0xe796b4>
     40c:	1927053b 	stmdbne	r7!, {r0, r1, r3, r4, r5, r8, sl}
     410:	01111349 	tsteq	r1, r9, asr #6
     414:	18400612 	stmdane	r0, {r1, r4, r9, sl}^
     418:	01194297 			; <UNDEFINED> instruction: 0x01194297
     41c:	2d000013 	stccs	0, cr0, [r0, #-76]	; 0xffffffb4
     420:	08030005 	stmdaeq	r3, {r0, r2}
     424:	053b0b3a 	ldreq	r0, [fp, #-2874]!	; 0xb3a
     428:	17021349 	strne	r1, [r2, -r9, asr #6]
     42c:	342e0000 	strtcc	r0, [lr], #-0
     430:	3a0e0300 	bcc	381038 <__bss_end__+0x376ad0>
     434:	49053b0b 	stmdbmi	r5, {r0, r1, r3, r8, r9, fp, ip, sp}
     438:	00170213 	andseq	r0, r7, r3, lsl r2
     43c:	82892f00 	addhi	r2, r9, #0, 30
     440:	01110101 	tsteq	r1, r1, lsl #2
     444:	00001331 	andeq	r1, r0, r1, lsr r3
     448:	03003430 	movweq	r3, #1072	; 0x430
     44c:	3b0b3a0e 	blcc	2cec8c <__bss_end__+0x2c4724>
     450:	3f13490b 	svccc	0x0013490b
     454:	00180219 	andseq	r0, r8, r9, lsl r2
     458:	002e3100 	eoreq	r3, lr, r0, lsl #2
     45c:	0e03193f 	mcreq	9, 0, r1, cr3, cr15, {1}
     460:	0b3b0b3a 	bleq	ec3150 <__bss_end__+0xeb8be8>
     464:	193c1927 	ldmdbne	ip!, {r0, r1, r2, r5, r8, fp, ip}
     468:	2e320000 	cdpcs	0, 3, cr0, cr2, cr0, {0}
     46c:	03193f01 	tsteq	r9, #1, 30
     470:	3b0b3a0e 	blcc	2cecb0 <__bss_end__+0x2c4748>
     474:	4919270b 	ldmdbmi	r9, {r0, r1, r3, r8, r9, sl, sp}
     478:	01193c13 	tsteq	r9, r3, lsl ip
     47c:	33000013 	movwcc	r0, #19
     480:	00000018 	andeq	r0, r0, r8, lsl r0
     484:	01110100 	tsteq	r1, r0, lsl #2
     488:	0b130e25 	bleq	4c3d24 <__bss_end__+0x4b97bc>
     48c:	0e1b0e03 	cdpeq	14, 1, cr0, cr11, cr3, {0}
     490:	06120111 			; <UNDEFINED> instruction: 0x06120111
     494:	00001710 	andeq	r1, r0, r0, lsl r7
     498:	0b002402 	bleq	94a8 <reset_vector+0x28>
     49c:	030b3e0b 	movweq	r3, #48651	; 0xbe0b
     4a0:	03000008 	movweq	r0, #8
     4a4:	0b0b0024 	bleq	2c053c <__bss_end__+0x2b5fd4>
     4a8:	0e030b3e 	vmoveq.16	d3[0], r0
     4ac:	16040000 	strne	r0, [r4], -r0
     4b0:	3a0e0300 	bcc	3810b8 <__bss_end__+0x376b50>
     4b4:	490b3b0b 	stmdbmi	fp, {r0, r1, r3, r8, r9, fp, ip, sp}
     4b8:	05000013 	streq	r0, [r0, #-19]
     4bc:	0b0b000f 	bleq	2c0500 <__bss_end__+0x2b5f98>
     4c0:	0f060000 	svceq	0x00060000
     4c4:	490b0b00 	stmdbmi	fp, {r8, r9, fp}
     4c8:	07000013 	smladeq	r0, r3, r0, r0
     4cc:	13490026 	movtne	r0, #36902	; 0x9026
     4d0:	15080000 	strne	r0, [r8, #-0]
     4d4:	01192701 	tsteq	r9, r1, lsl #14
     4d8:	09000013 	stmdbeq	r0, {r0, r1, r4}
     4dc:	13490005 	movtne	r0, #36869	; 0x9005
     4e0:	130a0000 	movwne	r0, #40960	; 0xa000
     4e4:	0b0e0301 	bleq	3810f0 <__bss_end__+0x376b88>
     4e8:	3b0b3a0b 	blcc	2ced1c <__bss_end__+0x2c47b4>
     4ec:	0013010b 	andseq	r0, r3, fp, lsl #2
     4f0:	000d0b00 	andeq	r0, sp, r0, lsl #22
     4f4:	0b3a0e03 	bleq	e83d08 <__bss_end__+0xe797a0>
     4f8:	13490b3b 	movtne	r0, #39739	; 0x9b3b
     4fc:	00000b38 	andeq	r0, r0, r8, lsr fp
     500:	03000d0c 	movweq	r0, #3340	; 0xd0c
     504:	3b0b3a08 	blcc	2ced2c <__bss_end__+0x2c47c4>
     508:	3813490b 	ldmdacc	r3, {r0, r1, r3, r8, fp, lr}
     50c:	0d00000b 	stceq	0, cr0, [r0, #-44]	; 0xffffffd4
     510:	00000035 	andeq	r0, r0, r5, lsr r0
     514:	2701150e 	strcs	r1, [r1, -lr, lsl #10]
     518:	01134919 	tsteq	r3, r9, lsl r9
     51c:	0f000013 	svceq	0x00000013
     520:	13490035 	movtne	r0, #36917	; 0x9035
     524:	2e100000 	cdpcs	0, 1, cr0, cr0, cr0, {0}
     528:	3a0e0301 	bcc	381134 <__bss_end__+0x376bcc>
     52c:	270b3b0b 	strcs	r3, [fp, -fp, lsl #22]
     530:	20134919 	andscs	r4, r3, r9, lsl r9
     534:	0013010b 	andseq	r0, r3, fp, lsl #2
     538:	00341100 	eorseq	r1, r4, r0, lsl #2
     53c:	0b3a0803 	bleq	e82550 <__bss_end__+0xe77fe8>
     540:	13490b3b 	movtne	r0, #39739	; 0x9b3b
     544:	05120000 	ldreq	r0, [r2, #-0]
     548:	3a0e0300 	bcc	381150 <__bss_end__+0x376be8>
     54c:	490b3b0b 	stmdbmi	fp, {r0, r1, r3, r8, r9, fp, ip, sp}
     550:	13000013 	movwne	r0, #19
     554:	0e030034 	mcreq	0, 0, r0, cr3, cr4, {1}
     558:	0b3b0b3a 	bleq	ec3248 <__bss_end__+0xeb8ce0>
     55c:	00001349 	andeq	r1, r0, r9, asr #6
     560:	03012e14 	movweq	r2, #7700	; 0x1e14
     564:	3b0b3a0e 	blcc	2ceda4 <__bss_end__+0x2c483c>
     568:	1119270b 	tstne	r9, fp, lsl #14
     56c:	40061201 	andmi	r1, r6, r1, lsl #4
     570:	19429718 	stmdbne	r2, {r3, r4, r8, r9, sl, ip, pc}^
     574:	00001301 	andeq	r1, r0, r1, lsl #6
     578:	03000515 	movweq	r0, #1301	; 0x515
     57c:	3b0b3a0e 	blcc	2cedbc <__bss_end__+0x2c4854>
     580:	0213490b 	andseq	r4, r3, #180224	; 0x2c000
     584:	16000017 			; <UNDEFINED> instruction: 0x16000017
     588:	08030005 	stmdaeq	r3, {r0, r2}
     58c:	0b3b0b3a 	bleq	ec327c <__bss_end__+0xeb8d14>
     590:	17021349 	strne	r1, [r2, -r9, asr #6]
     594:	34170000 	ldrcc	r0, [r7], #-0
     598:	490e0300 	stmdbmi	lr, {r8, r9}
     59c:	02193413 	andseq	r3, r9, #318767104	; 0x13000000
     5a0:	18000018 	stmdane	r0, {r3, r4}
     5a4:	08030034 	stmdaeq	r3, {r2, r4, r5}
     5a8:	0b3b0b3a 	bleq	ec3298 <__bss_end__+0xeb8d30>
     5ac:	17021349 	strne	r1, [r2, -r9, asr #6]
     5b0:	1d190000 	ldcne	0, cr0, [r9, #-0]
     5b4:	11133101 	tstne	r3, r1, lsl #2
     5b8:	58061201 	stmdapl	r6, {r0, r9, ip}
     5bc:	010b590b 	tsteq	fp, fp, lsl #18
     5c0:	1a000013 	bne	614 <__code_start__-0x79ec>
     5c4:	0111010b 	tsteq	r1, fp, lsl #2
     5c8:	00000612 	andeq	r0, r0, r2, lsl r6
     5cc:	3100341b 	tstcc	r0, fp, lsl r4
     5d0:	1c000013 	stcne	0, cr0, [r0], {19}
     5d4:	1331011d 	teqne	r1, #1073741831	; 0x40000007
     5d8:	06120111 			; <UNDEFINED> instruction: 0x06120111
     5dc:	0b590b58 	bleq	1643344 <__bss_end__+0x1638ddc>
     5e0:	341d0000 	ldrcc	r0, [sp], #-0
     5e4:	02133100 	andseq	r3, r3, #0, 2
     5e8:	1e000017 	mcrne	0, 0, r0, cr0, cr7, {0}
     5ec:	01018289 	smlabbeq	r1, r9, r2, r8
     5f0:	13310111 	teqne	r1, #1073741828	; 0x40000004
     5f4:	00001301 	andeq	r1, r0, r1, lsl #6
     5f8:	01828a1f 	orreq	r8, r2, pc, lsl sl
     5fc:	91180200 	tstls	r8, r0, lsl #4
     600:	00001842 	andeq	r1, r0, r2, asr #16
     604:	01828920 	orreq	r8, r2, r0, lsr #18
     608:	31011100 	mrscc	r1, (UNDEF: 17)
     60c:	21000013 	tstcs	r0, r3, lsl r0
     610:	01018289 	smlabbeq	r1, r9, r2, r8
     614:	13010111 	movwne	r0, #4369	; 0x1111
     618:	89220000 	stmdbhi	r2!, {}	; <UNPREDICTABLE>
     61c:	11010182 	smlabbne	r1, r2, r1, r0
     620:	00133101 	andseq	r3, r3, r1, lsl #2
     624:	01012300 	mrseq	r2, SP_irq
     628:	13011349 	movwne	r1, #4937	; 0x1349
     62c:	21240000 	teqcs	r4, r0
     630:	2f134900 	svccs	0x00134900
     634:	2500000b 	strcs	r0, [r0, #-11]
     638:	0e030034 	mcreq	0, 0, r0, cr3, cr4, {1}
     63c:	19341349 	ldmdbne	r4!, {r0, r3, r6, r8, r9, ip}
     640:	00000e1c 	andeq	r0, r0, ip, lsl lr
     644:	03000526 	movweq	r0, #1318	; 0x526
     648:	3b0b3a08 	blcc	2cee70 <__bss_end__+0x2c4908>
     64c:	0013490b 	andseq	r4, r3, fp, lsl #18
     650:	012e2700 	teqeq	lr, r0, lsl #14
     654:	0b3a0e03 	bleq	e83e68 <__bss_end__+0xe79900>
     658:	19270b3b 	stmdbne	r7!, {r0, r1, r3, r4, r5, r8, r9, fp}
     65c:	01111349 	tsteq	r1, r9, asr #6
     660:	18400612 	stmdane	r0, {r1, r4, r9, sl}^
     664:	01194297 			; <UNDEFINED> instruction: 0x01194297
     668:	28000013 	stmdacs	r0, {r0, r1, r4}
     66c:	0e030034 	mcreq	0, 0, r0, cr3, cr4, {1}
     670:	0b3b0b3a 	bleq	ec3360 <__bss_end__+0xeb8df8>
     674:	18021349 	stmdane	r2, {r0, r3, r6, r8, r9, ip}
     678:	05290000 	streq	r0, [r9, #-0]!
     67c:	1c133100 	ldfnes	f3, [r3], {-0}
     680:	2a00000b 	bcs	6b4 <__code_start__-0x794c>
     684:	13310005 	teqne	r1, #5
     688:	00001702 	andeq	r1, r0, r2, lsl #14
     68c:	3100342b 	tstcc	r0, fp, lsr #8
     690:	00180213 	andseq	r0, r8, r3, lsl r2
     694:	00342c00 	eorseq	r2, r4, r0, lsl #24
     698:	0b1c1331 	bleq	705364 <__bss_end__+0x6fadfc>
     69c:	052d0000 	streq	r0, [sp, #-0]!
     6a0:	00133100 	andseq	r3, r3, r0, lsl #2
     6a4:	00342e00 	eorseq	r2, r4, r0, lsl #28
     6a8:	13490e03 	movtne	r0, #40451	; 0x9e03
     6ac:	00001934 	andeq	r1, r0, r4, lsr r9
     6b0:	0300052f 	movweq	r0, #1327	; 0x52f
     6b4:	3b0b3a08 	blcc	2ceedc <__bss_end__+0x2c4974>
     6b8:	0213490b 	andseq	r4, r3, #180224	; 0x2c000
     6bc:	30000018 	andcc	r0, r0, r8, lsl r0
     6c0:	193f012e 	ldmdbne	pc!, {r1, r2, r3, r5, r8}	; <UNPREDICTABLE>
     6c4:	0b3a0e03 	bleq	e83ed8 <__bss_end__+0xe79970>
     6c8:	19270b3b 	stmdbne	r7!, {r0, r1, r3, r4, r5, r8, r9, fp}
     6cc:	01111349 	tsteq	r1, r9, asr #6
     6d0:	18400612 	stmdane	r0, {r1, r4, r9, sl}^
     6d4:	01194297 			; <UNDEFINED> instruction: 0x01194297
     6d8:	31000013 	tstcc	r0, r3, lsl r0
     6dc:	0e030034 	mcreq	0, 0, r0, cr3, cr4, {1}
     6e0:	0b3b0b3a 	bleq	ec33d0 <__bss_end__+0xeb8e68>
     6e4:	193f1349 	ldmdbne	pc!, {r0, r3, r6, r8, r9, ip}	; <UNPREDICTABLE>
     6e8:	0000193c 	andeq	r1, r0, ip, lsr r9
     6ec:	3f012e32 	svccc	0x00012e32
     6f0:	3a0e0319 	bcc	38135c <__bss_end__+0x376df4>
     6f4:	270b3b0b 	strcs	r3, [fp, -fp, lsl #22]
     6f8:	3c134919 	ldccc	9, cr4, [r3], {25}
     6fc:	00130119 	andseq	r0, r3, r9, lsl r1
     700:	00183300 	andseq	r3, r8, r0, lsl #6
     704:	2e340000 	cdpcs	0, 3, cr0, cr4, cr0, {0}
     708:	03193f00 	tsteq	r9, #0, 30
     70c:	3b0b3a0e 	blcc	2cef4c <__bss_end__+0x2c49e4>
     710:	3c19270b 	ldccc	7, cr2, [r9], {11}
     714:	35000019 	strcc	r0, [r0, #-25]
     718:	193f012e 	ldmdbne	pc!, {r1, r2, r3, r5, r8}	; <UNPREDICTABLE>
     71c:	0b3a0e03 	bleq	e83f30 <__bss_end__+0xe799c8>
     720:	19270b3b 	stmdbne	r7!, {r0, r1, r3, r4, r5, r8, r9, fp}
     724:	1301193c 	movwne	r1, #6460	; 0x193c
     728:	01000000 	mrseq	r0, (UNDEF: 0)
     72c:	0e250111 	mcreq	1, 1, r0, cr5, cr1, {0}
     730:	0e030b13 	vmoveq.32	d3[0], r0
     734:	01110e1b 	tsteq	r1, fp, lsl lr
     738:	17100612 			; <UNDEFINED> instruction: 0x17100612
     73c:	16020000 	strne	r0, [r2], -r0
     740:	3a0e0300 	bcc	381348 <__bss_end__+0x376de0>
     744:	490b3b0b 	stmdbmi	fp, {r0, r1, r3, r8, r9, fp, ip, sp}
     748:	03000013 	movweq	r0, #19
     74c:	0e030113 	mcreq	1, 0, r0, cr3, cr3, {0}
     750:	0b3a0b0b 	bleq	e83384 <__bss_end__+0xe78e1c>
     754:	13010b3b 	movwne	r0, #6971	; 0x1b3b
     758:	0d040000 	stceq	0, cr0, [r4, #-0]
     75c:	490e0300 	stmdbmi	lr, {r8, r9}
     760:	340b3813 	strcc	r3, [fp], #-2067	; 0x813
     764:	05000019 	streq	r0, [r0, #-25]
     768:	0b0b000f 	bleq	2c07ac <__bss_end__+0x2b6244>
     76c:	24060000 	strcs	r0, [r6], #-0
     770:	3e0b0b00 	vmlacc.f64	d0, d11, d0
     774:	0008030b 	andeq	r0, r8, fp, lsl #6
     778:	00240700 	eoreq	r0, r4, r0, lsl #14
     77c:	0b3e0b0b 	bleq	f833b0 <__bss_end__+0xf78e48>
     780:	00000e03 	andeq	r0, r0, r3, lsl #28
     784:	0b000f08 	bleq	43ac <__code_start__-0x3c54>
     788:	0013490b 	andseq	r4, r3, fp, lsl #18
     78c:	00260900 	eoreq	r0, r6, r0, lsl #18
     790:	00001349 	andeq	r1, r0, r9, asr #6
     794:	3f012e0a 	svccc	0x00012e0a
     798:	3a0e0319 	bcc	381404 <__bss_end__+0x376e9c>
     79c:	270b3b0b 	strcs	r3, [fp, -fp, lsl #22]
     7a0:	11134919 	tstne	r3, r9, lsl r9
     7a4:	40061201 	andmi	r1, r6, r1, lsl #4
     7a8:	19429718 	stmdbne	r2, {r3, r4, r8, r9, sl, ip, pc}^
     7ac:	00001301 	andeq	r1, r0, r1, lsl #6
     7b0:	0300050b 	movweq	r0, #1291	; 0x50b
     7b4:	3b0b3a08 	blcc	2cefdc <__bss_end__+0x2c4a74>
     7b8:	0213490b 	andseq	r4, r3, #180224	; 0x2c000
     7bc:	0c000018 	stceq	0, cr0, [r0], {24}
     7c0:	00000018 	andeq	r0, r0, r8, lsl r0
     7c4:	0300340d 	movweq	r3, #1037	; 0x40d
     7c8:	3b0b3a08 	blcc	2ceff0 <__bss_end__+0x2c4a88>
     7cc:	0213490b 	andseq	r4, r3, #180224	; 0x2c000
     7d0:	0e000018 	mcreq	0, 0, r0, cr0, cr8, {0}
     7d4:	0e030034 	mcreq	0, 0, r0, cr3, cr4, {1}
     7d8:	0b3b0b3a 	bleq	ec34c8 <__bss_end__+0xeb8f60>
     7dc:	18021349 	stmdane	r2, {r0, r3, r6, r8, r9, ip}
     7e0:	340f0000 	strcc	r0, [pc], #-0	; 7e8 <__code_start__-0x7818>
     7e4:	3a080300 	bcc	2013ec <__bss_end__+0x1f6e84>
     7e8:	490b3b0b 	stmdbmi	fp, {r0, r1, r3, r8, r9, fp, ip, sp}
     7ec:	00170213 	andseq	r0, r7, r3, lsl r2
     7f0:	82891000 	addhi	r1, r9, #0
     7f4:	01110101 	tsteq	r1, r1, lsl #2
     7f8:	13011331 	movwne	r1, #4913	; 0x1331
     7fc:	8a110000 	bhi	440804 <__bss_end__+0x43629c>
     800:	02000182 	andeq	r0, r0, #-2147483616	; 0x80000020
     804:	18429118 	stmdane	r2, {r3, r4, r8, ip, pc}^
     808:	89120000 	ldmdbhi	r2, {}	; <UNPREDICTABLE>
     80c:	11010182 	smlabbne	r1, r2, r1, r0
     810:	13000001 	movwne	r0, #1
     814:	13490101 	movtne	r0, #37121	; 0x9101
     818:	00001301 	andeq	r1, r0, r1, lsl #6
     81c:	49002114 	stmdbmi	r0, {r2, r4, r8, sp}
     820:	00052f13 	andeq	r2, r5, r3, lsl pc
     824:	01151500 	tsteq	r5, r0, lsl #10
     828:	13491927 	movtne	r1, #39207	; 0x9927
     82c:	00001301 	andeq	r1, r0, r1, lsl #6
     830:	49000516 	stmdbmi	r0, {r1, r2, r4, r8, sl}
     834:	17000013 	smladne	r0, r3, r0, r0
     838:	0e030034 	mcreq	0, 0, r0, cr3, cr4, {1}
     83c:	0b3b0b3a 	bleq	ec352c <__bss_end__+0xeb8fc4>
     840:	193f1349 	ldmdbne	pc!, {r0, r3, r6, r8, r9, ip}	; <UNPREDICTABLE>
     844:	0000193c 	andeq	r1, r0, ip, lsr r9
     848:	3f012e18 	svccc	0x00012e18
     84c:	3a0e0319 	bcc	3814b8 <__bss_end__+0x376f50>
     850:	270b3b0b 	strcs	r3, [fp, -fp, lsl #22]
     854:	3c134919 	ldccc	9, cr4, [r3], {25}
     858:	00000019 	andeq	r0, r0, r9, lsl r0
     85c:	25011101 	strcs	r1, [r1, #-257]	; 0x101
     860:	030b130e 	movweq	r1, #45838	; 0xb30e
     864:	110e1b0e 	tstne	lr, lr, lsl #22
     868:	10061201 	andne	r1, r6, r1, lsl #4
     86c:	02000017 	andeq	r0, r0, #23
     870:	0b0b0024 	bleq	2c0908 <__bss_end__+0x2b63a0>
     874:	08030b3e 	stmdaeq	r3, {r1, r2, r3, r4, r5, r8, r9, fp}
     878:	24030000 	strcs	r0, [r3], #-0
     87c:	3e0b0b00 	vmlacc.f64	d0, d11, d0
     880:	000e030b 	andeq	r0, lr, fp, lsl #6
     884:	012e0400 	teqeq	lr, r0, lsl #8
     888:	0b3a0e03 	bleq	e8409c <__bss_end__+0xe79b34>
     88c:	19270b3b 	stmdbne	r7!, {r0, r1, r3, r4, r5, r8, r9, fp}
     890:	01111349 	tsteq	r1, r9, asr #6
     894:	18400612 	stmdane	r0, {r1, r4, r9, sl}^
     898:	01194297 			; <UNDEFINED> instruction: 0x01194297
     89c:	05000013 	streq	r0, [r0, #-19]
     8a0:	08030005 	stmdaeq	r3, {r0, r2}
     8a4:	0b3b0b3a 	bleq	ec3594 <__bss_end__+0xeb902c>
     8a8:	17021349 	strne	r1, [r2, -r9, asr #6]
     8ac:	89060000 	stmdbhi	r6, {}	; <UNPREDICTABLE>
     8b0:	11010182 	smlabbne	r1, r2, r1, r0
     8b4:	00133101 	andseq	r3, r3, r1, lsl #2
     8b8:	828a0700 	addhi	r0, sl, #0, 14
     8bc:	18020001 	stmdane	r2, {r0}
     8c0:	00184291 	mulseq	r8, r1, r2
     8c4:	002e0800 	eoreq	r0, lr, r0, lsl #16
     8c8:	0e03193f 	mcreq	9, 0, r1, cr3, cr15, {1}
     8cc:	0b3b0b3a 	bleq	ec35bc <__bss_end__+0xeb9054>
     8d0:	01111927 	tsteq	r1, r7, lsr #18
     8d4:	18400612 	stmdane	r0, {r1, r4, r9, sl}^
     8d8:	00194297 	mulseq	r9, r7, r2
     8dc:	012e0900 	teqeq	lr, r0, lsl #18
     8e0:	0e03193f 	mcreq	9, 0, r1, cr3, cr15, {1}
     8e4:	0b3b0b3a 	bleq	ec35d4 <__bss_end__+0xeb906c>
     8e8:	01111927 	tsteq	r1, r7, lsr #18
     8ec:	18400612 	stmdane	r0, {r1, r4, r9, sl}^
     8f0:	01194297 			; <UNDEFINED> instruction: 0x01194297
     8f4:	0a000013 	beq	948 <__code_start__-0x76b8>
     8f8:	08030005 	stmdaeq	r3, {r0, r2}
     8fc:	0b3b0b3a 	bleq	ec35ec <__bss_end__+0xeb9084>
     900:	18021349 	stmdane	r2, {r0, r3, r6, r8, r9, ip}
     904:	150b0000 	strne	r0, [fp, #-0]
     908:	49192701 	ldmdbmi	r9, {r0, r8, r9, sl, sp}
     90c:	00130113 	andseq	r0, r3, r3, lsl r1
     910:	00050c00 	andeq	r0, r5, r0, lsl #24
     914:	00001349 	andeq	r1, r0, r9, asr #6
     918:	0b000f0d 	bleq	4554 <__code_start__-0x3aac>
     91c:	0013490b 	andseq	r4, r3, fp, lsl #18
     920:	00340e00 	eorseq	r0, r4, r0, lsl #28
     924:	0b3a0e03 	bleq	e84138 <__bss_end__+0xe79bd0>
     928:	13490b3b 	movtne	r0, #39739	; 0x9b3b
     92c:	1802193f 	stmdane	r2, {r0, r1, r2, r3, r4, r5, r8, fp, ip}
     930:	2e0f0000 	cdpcs	0, 0, cr0, cr15, cr0, {0}
     934:	03193f01 	tsteq	r9, #1, 30
     938:	3b0b3a0e 	blcc	2cf178 <__bss_end__+0x2c4c10>
     93c:	3c19270b 	ldccc	7, cr2, [r9], {11}
     940:	00000019 	andeq	r0, r0, r9, lsl r0
     944:	25011101 	strcs	r1, [r1, #-257]	; 0x101
     948:	030b130e 	movweq	r1, #45838	; 0xb30e
     94c:	110e1b0e 	tstne	lr, lr, lsl #22
     950:	10061201 	andne	r1, r6, r1, lsl #4
     954:	02000017 	andeq	r0, r0, #23
     958:	0b0b0024 	bleq	2c09f0 <__bss_end__+0x2b6488>
     95c:	08030b3e 	stmdaeq	r3, {r1, r2, r3, r4, r5, r8, r9, fp}
     960:	24030000 	strcs	r0, [r3], #-0
     964:	3e0b0b00 	vmlacc.f64	d0, d11, d0
     968:	000e030b 	andeq	r0, lr, fp, lsl #6
     96c:	000f0400 	andeq	r0, pc, r0, lsl #8
     970:	13490b0b 	movtne	r0, #39691	; 0x9b0b
     974:	26050000 	strcs	r0, [r5], -r0
     978:	00134900 	andseq	r4, r3, r0, lsl #18
     97c:	012e0600 	teqeq	lr, r0, lsl #12
     980:	0e03193f 	mcreq	9, 0, r1, cr3, cr15, {1}
     984:	0b3b0b3a 	bleq	ec3674 <__bss_end__+0xeb910c>
     988:	13491927 	movtne	r1, #39207	; 0x9927
     98c:	06120111 			; <UNDEFINED> instruction: 0x06120111
     990:	42961840 	addsmi	r1, r6, #64, 16	; 0x400000
     994:	00130119 	andseq	r0, r3, r9, lsl r1
     998:	00050700 	andeq	r0, r5, r0, lsl #14
     99c:	0b3a0803 	bleq	e829b0 <__bss_end__+0xe78448>
     9a0:	13490b3b 	movtne	r0, #39739	; 0x9b3b
     9a4:	00001702 	andeq	r1, r0, r2, lsl #14
     9a8:	27011508 	strcs	r1, [r1, -r8, lsl #10]
     9ac:	01134919 	tsteq	r3, r9, lsl r9
     9b0:	09000013 	stmdbeq	r0, {r0, r1, r4}
     9b4:	13490005 	movtne	r0, #36869	; 0x9005
     9b8:	340a0000 	strcc	r0, [sl], #-0
     9bc:	3a0e0300 	bcc	3815c4 <__bss_end__+0x37705c>
     9c0:	490b3b0b 	stmdbmi	fp, {r0, r1, r3, r8, r9, fp, ip, sp}
     9c4:	3c193f13 	ldccc	15, cr3, [r9], {19}
     9c8:	0b000019 	bleq	a34 <__code_start__-0x75cc>
     9cc:	0e030034 	mcreq	0, 0, r0, cr3, cr4, {1}
     9d0:	0b3b0b3a 	bleq	ec36c0 <__bss_end__+0xeb9158>
     9d4:	193f1349 	ldmdbne	pc!, {r0, r3, r6, r8, r9, ip}	; <UNPREDICTABLE>
     9d8:	00001802 	andeq	r1, r0, r2, lsl #16
     9dc:	01110100 	tsteq	r1, r0, lsl #2
     9e0:	0b130e25 	bleq	4c427c <__bss_end__+0x4b9d14>
     9e4:	0e1b0e03 	cdpeq	14, 1, cr0, cr11, cr3, {0}
     9e8:	06120111 			; <UNDEFINED> instruction: 0x06120111
     9ec:	00001710 	andeq	r1, r0, r0, lsl r7
     9f0:	0b002402 	bleq	9a00 <__data_end__+0x70>
     9f4:	030b3e0b 	movweq	r3, #48651	; 0xbe0b
     9f8:	03000008 	movweq	r0, #8
     9fc:	0b0b0024 	bleq	2c0a94 <__bss_end__+0x2b652c>
     a00:	0e030b3e 	vmoveq.16	d3[0], r0
     a04:	0f040000 	svceq	0x00040000
     a08:	000b0b00 	andeq	r0, fp, r0, lsl #22
     a0c:	000f0500 	andeq	r0, pc, r0, lsl #10
     a10:	13490b0b 	movtne	r0, #39691	; 0x9b0b
     a14:	26060000 	strcs	r0, [r6], -r0
     a18:	00134900 	andseq	r4, r3, r0, lsl #18
     a1c:	00160700 	andseq	r0, r6, r0, lsl #14
     a20:	0b3a0e03 	bleq	e84234 <__bss_end__+0xe79ccc>
     a24:	13490b3b 	movtne	r0, #39739	; 0x9b3b
     a28:	13080000 	movwne	r0, #32768	; 0x8000
     a2c:	0b0e0301 	bleq	381638 <__bss_end__+0x3770d0>
     a30:	3b0b3a0b 	blcc	2cf264 <__bss_end__+0x2c4cfc>
     a34:	0013010b 	andseq	r0, r3, fp, lsl #2
     a38:	000d0900 	andeq	r0, sp, r0, lsl #18
     a3c:	13490e03 	movtne	r0, #40451	; 0x9e03
     a40:	19340b38 	ldmdbne	r4!, {r3, r4, r5, r8, r9, fp}
     a44:	2e0a0000 	cdpcs	0, 0, cr0, cr10, cr0, {0}
     a48:	3a0e0301 	bcc	381654 <__bss_end__+0x3770ec>
     a4c:	270b3b0b 	strcs	r3, [fp, -fp, lsl #22]
     a50:	11134919 	tstne	r3, r9, lsl r9
     a54:	40061201 	andmi	r1, r6, r1, lsl #4
     a58:	19429718 	stmdbne	r2, {r3, r4, r8, r9, sl, ip, pc}^
     a5c:	00001301 	andeq	r1, r0, r1, lsl #6
     a60:	0300050b 	movweq	r0, #1291	; 0x50b
     a64:	3b0b3a08 	blcc	2cf28c <__bss_end__+0x2c4d24>
     a68:	0213490b 	andseq	r4, r3, #180224	; 0x2c000
     a6c:	0c000017 	stceq	0, cr0, [r0], {23}
     a70:	0803012e 	stmdaeq	r3, {r1, r2, r3, r5, r8}
     a74:	0b3b0b3a 	bleq	ec3764 <__bss_end__+0xeb91fc>
     a78:	13491927 	movtne	r1, #39207	; 0x9927
     a7c:	06120111 			; <UNDEFINED> instruction: 0x06120111
     a80:	42971840 	addsmi	r1, r7, #64, 16	; 0x400000
     a84:	00130119 	andseq	r0, r3, r9, lsl r1
     a88:	00050d00 	andeq	r0, r5, r0, lsl #26
     a8c:	0b3a0e03 	bleq	e842a0 <__bss_end__+0xe79d38>
     a90:	13490b3b 	movtne	r0, #39739	; 0x9b3b
     a94:	00001702 	andeq	r1, r0, r2, lsl #14
     a98:	0300050e 	movweq	r0, #1294	; 0x50e
     a9c:	3b0b3a0e 	blcc	2cf2dc <__bss_end__+0x2c4d74>
     aa0:	0213490b 	andseq	r4, r3, #180224	; 0x2c000
     aa4:	0f000018 	svceq	0x00000018
     aa8:	08030034 	stmdaeq	r3, {r2, r4, r5}
     aac:	0b3b0b3a 	bleq	ec379c <__bss_end__+0xeb9234>
     ab0:	18021349 	stmdane	r2, {r0, r3, r6, r8, r9, ip}
     ab4:	34100000 	ldrcc	r0, [r0], #-0
     ab8:	3a080300 	bcc	2016c0 <__bss_end__+0x1f7158>
     abc:	490b3b0b 	stmdbmi	fp, {r0, r1, r3, r8, r9, fp, ip, sp}
     ac0:	00170213 	andseq	r0, r7, r3, lsl r2
     ac4:	00341100 	eorseq	r1, r4, r0, lsl #2
     ac8:	13490e03 	movtne	r0, #40451	; 0x9e03
     acc:	18021934 	stmdane	r2, {r2, r4, r5, r8, fp, ip}
     ad0:	0b120000 	bleq	480ad8 <__bss_end__+0x476570>
     ad4:	12011101 	andne	r1, r1, #1073741824	; 0x40000000
     ad8:	00130106 	andseq	r0, r3, r6, lsl #2
     adc:	00341300 	eorseq	r1, r4, r0, lsl #6
     ae0:	0b3a0e03 	bleq	e842f4 <__bss_end__+0xe79d8c>
     ae4:	13490b3b 	movtne	r0, #39739	; 0x9b3b
     ae8:	00001702 	andeq	r1, r0, r2, lsl #14
     aec:	01828914 	orreq	r8, r2, r4, lsl r9
     af0:	31011100 	mrscc	r1, (UNDEF: 17)
     af4:	15000013 	strne	r0, [r0, #-19]
     af8:	01018289 	smlabbeq	r1, r9, r2, r8
     afc:	13310111 	teqne	r1, #1073741828	; 0x40000004
     b00:	00001301 	andeq	r1, r0, r1, lsl #6
     b04:	01828a16 	orreq	r8, r2, r6, lsl sl
     b08:	91180200 	tstls	r8, r0, lsl #4
     b0c:	00001842 	andeq	r1, r0, r2, asr #16
     b10:	01828917 	orreq	r8, r2, r7, lsl r9
     b14:	31011101 	tstcc	r1, r1, lsl #2
     b18:	18000013 	stmdane	r0, {r0, r1, r4}
     b1c:	13490101 	movtne	r0, #37121	; 0x9101
     b20:	00001301 	andeq	r1, r0, r1, lsl #6
     b24:	49002119 	stmdbmi	r0, {r0, r3, r4, r8, sp}
     b28:	000b2f13 	andeq	r2, fp, r3, lsl pc
     b2c:	012e1a00 	teqeq	lr, r0, lsl #20
     b30:	0e03193f 	mcreq	9, 0, r1, cr3, cr15, {1}
     b34:	0b3b0b3a 	bleq	ec3824 <__bss_end__+0xeb92bc>
     b38:	01111927 	tsteq	r1, r7, lsr #18
     b3c:	18400612 	stmdane	r0, {r1, r4, r9, sl}^
     b40:	01194297 			; <UNDEFINED> instruction: 0x01194297
     b44:	1b000013 	blne	b98 <__code_start__-0x7468>
     b48:	19270115 	stmdbne	r7!, {r0, r2, r4, r8}
     b4c:	13011349 	movwne	r1, #4937	; 0x1349
     b50:	051c0000 	ldreq	r0, [ip, #-0]
     b54:	00134900 	andseq	r4, r3, r0, lsl #18
     b58:	012e1d00 	teqeq	lr, r0, lsl #26
     b5c:	0e03193f 	mcreq	9, 0, r1, cr3, cr15, {1}
     b60:	0b3b0b3a 	bleq	ec3850 <__bss_end__+0xeb92e8>
     b64:	13491927 	movtne	r1, #39207	; 0x9927
     b68:	06120111 			; <UNDEFINED> instruction: 0x06120111
     b6c:	42971840 	addsmi	r1, r7, #64, 16	; 0x400000
     b70:	00130119 	andseq	r0, r3, r9, lsl r1
     b74:	010b1e00 	tsteq	fp, r0, lsl #28
     b78:	06120111 			; <UNDEFINED> instruction: 0x06120111
     b7c:	891f0000 	ldmdbhi	pc, {}	; <UNPREDICTABLE>
     b80:	11010182 	smlabbne	r1, r2, r1, r0
     b84:	00130101 	andseq	r0, r3, r1, lsl #2
     b88:	00342000 	eorseq	r2, r4, r0
     b8c:	0b3a0e03 	bleq	e843a0 <__bss_end__+0xe79e38>
     b90:	13490b3b 	movtne	r0, #39739	; 0x9b3b
     b94:	193c193f 	ldmdbne	ip!, {r0, r1, r2, r3, r4, r5, r8, fp, ip}
     b98:	2e210000 	cdpcs	0, 2, cr0, cr1, cr0, {0}
     b9c:	03193f00 	tsteq	r9, #0, 30
     ba0:	3b0b3a0e 	blcc	2cf3e0 <__bss_end__+0x2c4e78>
     ba4:	3c19270b 	ldccc	7, cr2, [r9], {11}
     ba8:	22000019 	andcs	r0, r0, #25
     bac:	193f012e 	ldmdbne	pc!, {r1, r2, r3, r5, r8}	; <UNPREDICTABLE>
     bb0:	0b3a0e03 	bleq	e843c4 <__bss_end__+0xe79e5c>
     bb4:	19270b3b 	stmdbne	r7!, {r0, r1, r3, r4, r5, r8, r9, fp}
     bb8:	193c1349 	ldmdbne	ip!, {r0, r3, r6, r8, r9, ip}
     bbc:	00001301 	andeq	r1, r0, r1, lsl #6
     bc0:	00001823 	andeq	r1, r0, r3, lsr #16
     bc4:	11010000 	mrsne	r0, (UNDEF: 1)
     bc8:	130e2501 	movwne	r2, #58625	; 0xe501
     bcc:	1b0e030b 	blne	381800 <__bss_end__+0x377298>
     bd0:	1201110e 	andne	r1, r1, #-2147483645	; 0x80000003
     bd4:	00171006 	andseq	r1, r7, r6
     bd8:	00240200 	eoreq	r0, r4, r0, lsl #4
     bdc:	0b3e0b0b 	bleq	f83810 <__bss_end__+0xf792a8>
     be0:	00000803 	andeq	r0, r0, r3, lsl #16
     be4:	0b002403 	bleq	9bf8 <__FUNCTION__.4306+0x4>
     be8:	030b3e0b 	movweq	r3, #48651	; 0xbe0b
     bec:	0400000e 	streq	r0, [r0], #-14
     bf0:	193f012e 	ldmdbne	pc!, {r1, r2, r3, r5, r8}	; <UNPREDICTABLE>
     bf4:	0b3a0e03 	bleq	e84408 <__bss_end__+0xe79ea0>
     bf8:	19270b3b 	stmdbne	r7!, {r0, r1, r3, r4, r5, r8, r9, fp}
     bfc:	06120111 			; <UNDEFINED> instruction: 0x06120111
     c00:	42971840 	addsmi	r1, r7, #64, 16	; 0x400000
     c04:	00130119 	andseq	r0, r3, r9, lsl r1
     c08:	00340500 	eorseq	r0, r4, r0, lsl #10
     c0c:	0b3a0803 	bleq	e82c20 <__bss_end__+0xe786b8>
     c10:	13490b3b 	movtne	r0, #39739	; 0x9b3b
     c14:	00001702 	andeq	r1, r0, r2, lsl #14
     c18:	3f012e06 	svccc	0x00012e06
     c1c:	3a0e0319 	bcc	381888 <__bss_end__+0x377320>
     c20:	270b3b0b 	strcs	r3, [fp, -fp, lsl #22]
     c24:	12011119 	andne	r1, r1, #1073741830	; 0x40000006
     c28:	97184006 	ldrls	r4, [r8, -r6]
     c2c:	00001942 	andeq	r1, r0, r2, asr #18
     c30:	01110100 	tsteq	r1, r0, lsl #2
     c34:	0b130e25 	bleq	4c44d0 <__bss_end__+0x4b9f68>
     c38:	0e1b0e03 	cdpeq	14, 1, cr0, cr11, cr3, {0}
     c3c:	06120111 			; <UNDEFINED> instruction: 0x06120111
     c40:	00001710 	andeq	r1, r0, r0, lsl r7
     c44:	0b002402 	bleq	9c54 <__FUNCTION__.4451+0x34>
     c48:	030b3e0b 	movweq	r3, #48651	; 0xbe0b
     c4c:	03000008 	movweq	r0, #8
     c50:	0b0b0024 	bleq	2c0ce8 <__bss_end__+0x2b6780>
     c54:	0e030b3e 	vmoveq.16	d3[0], r0
     c58:	0f040000 	svceq	0x00040000
     c5c:	490b0b00 	stmdbmi	fp, {r8, r9, fp}
     c60:	05000013 	streq	r0, [r0, #-19]
     c64:	13490026 	movtne	r0, #36902	; 0x9026
     c68:	2e060000 	cdpcs	0, 0, cr0, cr6, cr0, {0}
     c6c:	03193f01 	tsteq	r9, #1, 30
     c70:	3b0b3a0e 	blcc	2cf4b0 <__bss_end__+0x2c4f48>
     c74:	1119270b 	tstne	r9, fp, lsl #14
     c78:	40061201 	andmi	r1, r6, r1, lsl #4
     c7c:	19429718 	stmdbne	r2, {r3, r4, r8, r9, sl, ip, pc}^
     c80:	00001301 	andeq	r1, r0, r1, lsl #6
     c84:	01828907 	orreq	r8, r2, r7, lsl #18
     c88:	31011100 	mrscc	r1, (UNDEF: 17)
     c8c:	08000013 	stmdaeq	r0, {r0, r1, r4}
     c90:	01018289 	smlabbeq	r1, r9, r2, r8
     c94:	13010111 	movwne	r0, #4369	; 0x1111
     c98:	8a090000 	bhi	240ca0 <__bss_end__+0x236738>
     c9c:	02000182 	andeq	r0, r0, #-2147483616	; 0x80000020
     ca0:	18429118 	stmdane	r2, {r3, r4, r8, ip, pc}^
     ca4:	890a0000 	stmdbhi	sl, {}	; <UNPREDICTABLE>
     ca8:	11010182 	smlabbne	r1, r2, r1, r0
     cac:	01133101 	tsteq	r3, r1, lsl #2
     cb0:	0b000013 	bleq	d04 <__code_start__-0x72fc>
     cb4:	19270115 	stmdbne	r7!, {r0, r2, r4, r8}
     cb8:	13011349 	movwne	r1, #4937	; 0x1349
     cbc:	050c0000 	streq	r0, [ip, #-0]
     cc0:	00134900 	andseq	r4, r3, r0, lsl #18
     cc4:	00340d00 	eorseq	r0, r4, r0, lsl #26
     cc8:	0b3a0e03 	bleq	e844dc <__bss_end__+0xe79f74>
     ccc:	13490b3b 	movtne	r0, #39739	; 0x9b3b
     cd0:	193c193f 	ldmdbne	ip!, {r0, r1, r2, r3, r4, r5, r8, fp, ip}
     cd4:	2e0e0000 	cdpcs	0, 0, cr0, cr14, cr0, {0}
     cd8:	03193f00 	tsteq	r9, #0, 30
     cdc:	3b0b3a0e 	blcc	2cf51c <__bss_end__+0x2c4fb4>
     ce0:	3c19270b 	ldccc	7, cr2, [r9], {11}
     ce4:	0f000019 	svceq	0x00000019
     ce8:	193f012e 	ldmdbne	pc!, {r1, r2, r3, r5, r8}	; <UNPREDICTABLE>
     cec:	0b3a0e03 	bleq	e84500 <__bss_end__+0xe79f98>
     cf0:	19270b3b 	stmdbne	r7!, {r0, r1, r3, r4, r5, r8, r9, fp}
     cf4:	1301193c 	movwne	r1, #6460	; 0x193c
     cf8:	01000000 	mrseq	r0, (UNDEF: 0)
     cfc:	0e250111 	mcreq	1, 1, r0, cr5, cr1, {0}
     d00:	0e030b13 	vmoveq.32	d3[0], r0
     d04:	01110e1b 	tsteq	r1, fp, lsl lr
     d08:	17100612 			; <UNDEFINED> instruction: 0x17100612
     d0c:	24020000 	strcs	r0, [r2], #-0
     d10:	3e0b0b00 	vmlacc.f64	d0, d11, d0
     d14:	0008030b 	andeq	r0, r8, fp, lsl #6
     d18:	00240300 	eoreq	r0, r4, r0, lsl #6
     d1c:	0b3e0b0b 	bleq	f83950 <__bss_end__+0xf793e8>
     d20:	00000e03 	andeq	r0, r0, r3, lsl #28
     d24:	3f012e04 	svccc	0x00012e04
     d28:	3a0e0319 	bcc	381994 <__bss_end__+0x37742c>
     d2c:	110b3b0b 	tstne	fp, fp, lsl #22
     d30:	40061201 	andmi	r1, r6, r1, lsl #4
     d34:	19429718 	stmdbne	r2, {r3, r4, r8, r9, sl, ip, pc}^
     d38:	00001301 	andeq	r1, r0, r1, lsl #6
     d3c:	03003405 	movweq	r3, #1029	; 0x405
     d40:	3b0b3a0e 	blcc	2cf580 <__bss_end__+0x2c5018>
     d44:	3f13490b 	svccc	0x0013490b
     d48:	00193c19 	andseq	r3, r9, r9, lsl ip
     d4c:	002e0600 	eoreq	r0, lr, r0, lsl #12
     d50:	0e03193f 	mcreq	9, 0, r1, cr3, cr15, {1}
     d54:	0b3b0b3a 	bleq	ec3a44 <__bss_end__+0xeb94dc>
     d58:	193c1927 	ldmdbne	ip!, {r0, r1, r2, r5, r8, fp, ip}
     d5c:	34070000 	strcc	r0, [r7], #-0
     d60:	3a080300 	bcc	201968 <__bss_end__+0x1f7400>
     d64:	490b3b0b 	stmdbmi	fp, {r0, r1, r3, r8, r9, fp, ip, sp}
     d68:	00170213 	andseq	r0, r7, r3, lsl r2
     d6c:	00340800 	eorseq	r0, r4, r0, lsl #16
     d70:	0b3a0e03 	bleq	e84584 <__bss_end__+0xe7a01c>
     d74:	13490b3b 	movtne	r0, #39739	; 0x9b3b
     d78:	89090000 	stmdbhi	r9, {}	; <UNPREDICTABLE>
     d7c:	11000182 	smlabbne	r0, r2, r1, r0
     d80:	00133101 	andseq	r3, r3, r1, lsl #2
     d84:	000f0a00 	andeq	r0, pc, r0, lsl #20
     d88:	13490b0b 	movtne	r0, #39691	; 0x9b0b
     d8c:	01000000 	mrseq	r0, (UNDEF: 0)
     d90:	0e250111 	mcreq	1, 1, r0, cr5, cr1, {0}
     d94:	0e030b13 	vmoveq.32	d3[0], r0
     d98:	01110e1b 	tsteq	r1, fp, lsl lr
     d9c:	17100612 			; <UNDEFINED> instruction: 0x17100612
     da0:	24020000 	strcs	r0, [r2], #-0
     da4:	3e0b0b00 	vmlacc.f64	d0, d11, d0
     da8:	0008030b 	andeq	r0, r8, fp, lsl #6
     dac:	00240300 	eoreq	r0, r4, r0, lsl #6
     db0:	0b3e0b0b 	bleq	f839e4 <__bss_end__+0xf7947c>
     db4:	00000e03 	andeq	r0, r0, r3, lsl #28
     db8:	0b000f04 	bleq	49d0 <__code_start__-0x3630>
     dbc:	0013490b 	andseq	r4, r3, fp, lsl #18
     dc0:	00260500 	eoreq	r0, r6, r0, lsl #10
     dc4:	00001349 	andeq	r1, r0, r9, asr #6
     dc8:	3f012e06 	svccc	0x00012e06
     dcc:	3a0e0319 	bcc	381a38 <__bss_end__+0x3774d0>
     dd0:	270b3b0b 	strcs	r3, [fp, -fp, lsl #22]
     dd4:	12011119 	andne	r1, r1, #1073741830	; 0x40000006
     dd8:	97184006 	ldrls	r4, [r8, -r6]
     ddc:	13011942 	movwne	r1, #6466	; 0x1942
     de0:	05070000 	streq	r0, [r7, #-0]
     de4:	3a080300 	bcc	2019ec <__bss_end__+0x1f7484>
     de8:	490b3b0b 	stmdbmi	fp, {r0, r1, r3, r8, r9, fp, ip, sp}
     dec:	00170213 	andseq	r0, r7, r3, lsl r2
     df0:	00340800 	eorseq	r0, r4, r0, lsl #16
     df4:	13490e03 	movtne	r0, #40451	; 0x9e03
     df8:	18021934 	stmdane	r2, {r2, r4, r5, r8, fp, ip}
     dfc:	89090000 	stmdbhi	r9, {}	; <UNPREDICTABLE>
     e00:	11000182 	smlabbne	r0, r2, r1, r0
     e04:	00133101 	andseq	r3, r3, r1, lsl #2
     e08:	82890a00 	addhi	r0, r9, #0, 20
     e0c:	01110101 	tsteq	r1, r1, lsl #2
     e10:	13011331 	movwne	r1, #4913	; 0x1331
     e14:	8a0b0000 	bhi	2c0e1c <__bss_end__+0x2b68b4>
     e18:	02000182 	andeq	r0, r0, #-2147483616	; 0x80000020
     e1c:	18429118 	stmdane	r2, {r3, r4, r8, ip, pc}^
     e20:	010c0000 	mrseq	r0, (UNDEF: 12)
     e24:	01134901 	tsteq	r3, r1, lsl #18
     e28:	0d000013 	stceq	0, cr0, [r0, #-76]	; 0xffffffb4
     e2c:	13490021 	movtne	r0, #36897	; 0x9021
     e30:	00000b2f 	andeq	r0, r0, pc, lsr #22
     e34:	3f002e0e 	svccc	0x00002e0e
     e38:	3a0e0319 	bcc	381aa4 <__bss_end__+0x37753c>
     e3c:	270b3b0b 	strcs	r3, [fp, -fp, lsl #22]
     e40:	00193c19 	andseq	r3, r9, r9, lsl ip
     e44:	012e0f00 	teqeq	lr, r0, lsl #30
     e48:	0e03193f 	mcreq	9, 0, r1, cr3, cr15, {1}
     e4c:	0b3b0b3a 	bleq	ec3b3c <__bss_end__+0xeb95d4>
     e50:	13491927 	movtne	r1, #39207	; 0x9927
     e54:	1301193c 	movwne	r1, #6460	; 0x193c
     e58:	05100000 	ldreq	r0, [r0, #-0]
     e5c:	00134900 	andseq	r4, r3, r0, lsl #18
     e60:	00181100 	andseq	r1, r8, r0, lsl #2
     e64:	01000000 	mrseq	r0, (UNDEF: 0)
     e68:	0e250111 	mcreq	1, 1, r0, cr5, cr1, {0}
     e6c:	0e030b13 	vmoveq.32	d3[0], r0
     e70:	01110e1b 	tsteq	r1, fp, lsl lr
     e74:	17100612 			; <UNDEFINED> instruction: 0x17100612
     e78:	24020000 	strcs	r0, [r2], #-0
     e7c:	3e0b0b00 	vmlacc.f64	d0, d11, d0
     e80:	0008030b 	andeq	r0, r8, fp, lsl #6
     e84:	00240300 	eoreq	r0, r4, r0, lsl #6
     e88:	0b3e0b0b 	bleq	f83abc <__bss_end__+0xf79554>
     e8c:	00000e03 	andeq	r0, r0, r3, lsl #28
     e90:	0b000f04 	bleq	4aa8 <__code_start__-0x3558>
     e94:	0013490b 	andseq	r4, r3, fp, lsl #18
     e98:	00260500 	eoreq	r0, r6, r0, lsl #10
     e9c:	00001349 	andeq	r1, r0, r9, asr #6
     ea0:	3f012e06 	svccc	0x00012e06
     ea4:	3a0e0319 	bcc	381b10 <__bss_end__+0x3775a8>
     ea8:	270b3b0b 	strcs	r3, [fp, -fp, lsl #22]
     eac:	12011119 	andne	r1, r1, #1073741830	; 0x40000006
     eb0:	97184006 	ldrls	r4, [r8, -r6]
     eb4:	13011942 	movwne	r1, #6466	; 0x1942
     eb8:	05070000 	streq	r0, [r7, #-0]
     ebc:	3a080300 	bcc	201ac4 <__bss_end__+0x1f755c>
     ec0:	490b3b0b 	stmdbmi	fp, {r0, r1, r3, r8, r9, fp, ip, sp}
     ec4:	00170213 	andseq	r0, r7, r3, lsl r2
     ec8:	00340800 	eorseq	r0, r4, r0, lsl #16
     ecc:	13490e03 	movtne	r0, #40451	; 0x9e03
     ed0:	18021934 	stmdane	r2, {r2, r4, r5, r8, fp, ip}
     ed4:	89090000 	stmdbhi	r9, {}	; <UNPREDICTABLE>
     ed8:	11000182 	smlabbne	r0, r2, r1, r0
     edc:	00133101 	andseq	r3, r3, r1, lsl #2
     ee0:	82890a00 	addhi	r0, r9, #0, 20
     ee4:	01110101 	tsteq	r1, r1, lsl #2
     ee8:	13011331 	movwne	r1, #4913	; 0x1331
     eec:	8a0b0000 	bhi	2c0ef4 <__bss_end__+0x2b698c>
     ef0:	02000182 	andeq	r0, r0, #-2147483616	; 0x80000020
     ef4:	18429118 	stmdane	r2, {r3, r4, r8, ip, pc}^
     ef8:	010c0000 	mrseq	r0, (UNDEF: 12)
     efc:	01134901 	tsteq	r3, r1, lsl #18
     f00:	0d000013 	stceq	0, cr0, [r0, #-76]	; 0xffffffb4
     f04:	13490021 	movtne	r0, #36897	; 0x9021
     f08:	00000b2f 	andeq	r0, r0, pc, lsr #22
     f0c:	3f002e0e 	svccc	0x00002e0e
     f10:	3a0e0319 	bcc	381b7c <__bss_end__+0x377614>
     f14:	270b3b0b 	strcs	r3, [fp, -fp, lsl #22]
     f18:	00193c19 	andseq	r3, r9, r9, lsl ip
     f1c:	012e0f00 	teqeq	lr, r0, lsl #30
     f20:	0e03193f 	mcreq	9, 0, r1, cr3, cr15, {1}
     f24:	0b3b0b3a 	bleq	ec3c14 <__bss_end__+0xeb96ac>
     f28:	13491927 	movtne	r1, #39207	; 0x9927
     f2c:	1301193c 	movwne	r1, #6460	; 0x193c
     f30:	05100000 	ldreq	r0, [r0, #-0]
     f34:	00134900 	andseq	r4, r3, r0, lsl #18
     f38:	00181100 	andseq	r1, r8, r0, lsl #2
     f3c:	01000000 	mrseq	r0, (UNDEF: 0)
     f40:	0e250111 	mcreq	1, 1, r0, cr5, cr1, {0}
     f44:	0e030b13 	vmoveq.32	d3[0], r0
     f48:	01110e1b 	tsteq	r1, fp, lsl lr
     f4c:	17100612 			; <UNDEFINED> instruction: 0x17100612
     f50:	24020000 	strcs	r0, [r2], #-0
     f54:	3e0b0b00 	vmlacc.f64	d0, d11, d0
     f58:	0008030b 	andeq	r0, r8, fp, lsl #6
     f5c:	00240300 	eoreq	r0, r4, r0, lsl #6
     f60:	0b3e0b0b 	bleq	f83b94 <__bss_end__+0xf7962c>
     f64:	00000e03 	andeq	r0, r0, r3, lsl #28
     f68:	0b000f04 	bleq	4b80 <__code_start__-0x3480>
     f6c:	0013490b 	andseq	r4, r3, fp, lsl #18
     f70:	00260500 	eoreq	r0, r6, r0, lsl #10
     f74:	00001349 	andeq	r1, r0, r9, asr #6
     f78:	3f012e06 	svccc	0x00012e06
     f7c:	3a0e0319 	bcc	381be8 <__bss_end__+0x377680>
     f80:	270b3b0b 	strcs	r3, [fp, -fp, lsl #22]
     f84:	12011119 	andne	r1, r1, #1073741830	; 0x40000006
     f88:	97184006 	ldrls	r4, [r8, -r6]
     f8c:	13011942 	movwne	r1, #6466	; 0x1942
     f90:	05070000 	streq	r0, [r7, #-0]
     f94:	3a080300 	bcc	201b9c <__bss_end__+0x1f7634>
     f98:	490b3b0b 	stmdbmi	fp, {r0, r1, r3, r8, r9, fp, ip, sp}
     f9c:	00170213 	andseq	r0, r7, r3, lsl r2
     fa0:	00340800 	eorseq	r0, r4, r0, lsl #16
     fa4:	13490e03 	movtne	r0, #40451	; 0x9e03
     fa8:	18021934 	stmdane	r2, {r2, r4, r5, r8, fp, ip}
     fac:	89090000 	stmdbhi	r9, {}	; <UNPREDICTABLE>
     fb0:	11000182 	smlabbne	r0, r2, r1, r0
     fb4:	00133101 	andseq	r3, r3, r1, lsl #2
     fb8:	82890a00 	addhi	r0, r9, #0, 20
     fbc:	01110101 	tsteq	r1, r1, lsl #2
     fc0:	13011331 	movwne	r1, #4913	; 0x1331
     fc4:	8a0b0000 	bhi	2c0fcc <__bss_end__+0x2b6a64>
     fc8:	02000182 	andeq	r0, r0, #-2147483616	; 0x80000020
     fcc:	18429118 	stmdane	r2, {r3, r4, r8, ip, pc}^
     fd0:	010c0000 	mrseq	r0, (UNDEF: 12)
     fd4:	01134901 	tsteq	r3, r1, lsl #18
     fd8:	0d000013 	stceq	0, cr0, [r0, #-76]	; 0xffffffb4
     fdc:	13490021 	movtne	r0, #36897	; 0x9021
     fe0:	00000b2f 	andeq	r0, r0, pc, lsr #22
     fe4:	3f002e0e 	svccc	0x00002e0e
     fe8:	3a0e0319 	bcc	381c54 <__bss_end__+0x3776ec>
     fec:	270b3b0b 	strcs	r3, [fp, -fp, lsl #22]
     ff0:	00193c19 	andseq	r3, r9, r9, lsl ip
     ff4:	012e0f00 	teqeq	lr, r0, lsl #30
     ff8:	0e03193f 	mcreq	9, 0, r1, cr3, cr15, {1}
     ffc:	0b3b0b3a 	bleq	ec3cec <__bss_end__+0xeb9784>
    1000:	13491927 	movtne	r1, #39207	; 0x9927
    1004:	1301193c 	movwne	r1, #6460	; 0x193c
    1008:	05100000 	ldreq	r0, [r0, #-0]
    100c:	00134900 	andseq	r4, r3, r0, lsl #18
    1010:	00181100 	andseq	r1, r8, r0, lsl #2
    1014:	01000000 	mrseq	r0, (UNDEF: 0)
    1018:	0e250111 	mcreq	1, 1, r0, cr5, cr1, {0}
    101c:	0e030b13 	vmoveq.32	d3[0], r0
    1020:	01110e1b 	tsteq	r1, fp, lsl lr
    1024:	17100612 			; <UNDEFINED> instruction: 0x17100612
    1028:	24020000 	strcs	r0, [r2], #-0
    102c:	3e0b0b00 	vmlacc.f64	d0, d11, d0
    1030:	0008030b 	andeq	r0, r8, fp, lsl #6
    1034:	00240300 	eoreq	r0, r4, r0, lsl #6
    1038:	0b3e0b0b 	bleq	f83c6c <__bss_end__+0xf79704>
    103c:	00000e03 	andeq	r0, r0, r3, lsl #28
    1040:	3f002e04 	svccc	0x00002e04
    1044:	3a0e0319 	bcc	381cb0 <__bss_end__+0x377748>
    1048:	270b3b0b 	strcs	r3, [fp, -fp, lsl #22]
    104c:	12011119 	andne	r1, r1, #1073741830	; 0x40000006
    1050:	97184006 	ldrls	r4, [r8, -r6]
    1054:	00001942 	andeq	r1, r0, r2, asr #18
    1058:	01110100 	tsteq	r1, r0, lsl #2
    105c:	0b130e25 	bleq	4c48f8 <__bss_end__+0x4ba390>
    1060:	0e1b0e03 	cdpeq	14, 1, cr0, cr11, cr3, {0}
    1064:	06120111 			; <UNDEFINED> instruction: 0x06120111
    1068:	00001710 	andeq	r1, r0, r0, lsl r7
    106c:	0b002402 	bleq	a07c <__FUNCTION__.4220+0x4c>
    1070:	030b3e0b 	movweq	r3, #48651	; 0xbe0b
    1074:	03000008 	movweq	r0, #8
    1078:	0b0b0024 	bleq	2c1110 <__bss_end__+0x2b6ba8>
    107c:	0e030b3e 	vmoveq.16	d3[0], r0
    1080:	04040000 	streq	r0, [r4], #-0
    1084:	3a0b0b01 	bcc	2c3c90 <__bss_end__+0x2b9728>
    1088:	010b3b0b 	tsteq	fp, fp, lsl #22
    108c:	05000013 	streq	r0, [r0, #-19]
    1090:	0e030028 	cdpeq	0, 0, cr0, cr3, cr8, {1}
    1094:	00000d1c 	andeq	r0, r0, ip, lsl sp
    1098:	3f012e06 	svccc	0x00012e06
    109c:	3a0e0319 	bcc	381d08 <__bss_end__+0x3777a0>
    10a0:	270b3b0b 	strcs	r3, [fp, -fp, lsl #22]
    10a4:	12011119 	andne	r1, r1, #1073741830	; 0x40000006
    10a8:	97184006 	ldrls	r4, [r8, -r6]
    10ac:	13011942 	movwne	r1, #6466	; 0x1942
    10b0:	34070000 	strcc	r0, [r7], #-0
    10b4:	3a0e0300 	bcc	381cbc <__bss_end__+0x377754>
    10b8:	490b3b0b 	stmdbmi	fp, {r0, r1, r3, r8, r9, fp, ip, sp}
    10bc:	3c193f13 	ldccc	15, cr3, [r9], {19}
    10c0:	08000019 	stmdaeq	r0, {r0, r3, r4}
    10c4:	08030034 	stmdaeq	r3, {r2, r4, r5}
    10c8:	0b3b0b3a 	bleq	ec3db8 <__bss_end__+0xeb9850>
    10cc:	0b1c1349 	bleq	705df8 <__bss_end__+0x6fb890>
    10d0:	34090000 	strcc	r0, [r9], #-0
    10d4:	3a080300 	bcc	201cdc <__bss_end__+0x1f7774>
    10d8:	490b3b0b 	stmdbmi	fp, {r0, r1, r3, r8, r9, fp, ip, sp}
    10dc:	0a000013 	beq	1130 <__code_start__-0x6ed0>
    10e0:	08030034 	stmdaeq	r3, {r2, r4, r5}
    10e4:	0b3b0b3a 	bleq	ec3dd4 <__bss_end__+0xeb986c>
    10e8:	18021349 	stmdane	r2, {r0, r3, r6, r8, r9, ip}
    10ec:	0b0b0000 	bleq	2c10f4 <__bss_end__+0x2b6b8c>
    10f0:	12011101 	andne	r1, r1, #1073741824	; 0x40000000
    10f4:	00130106 	andseq	r0, r3, r6, lsl #2
    10f8:	00340c00 	eorseq	r0, r4, r0, lsl #24
    10fc:	0b3a0803 	bleq	e83110 <__bss_end__+0xe78ba8>
    1100:	13490b3b 	movtne	r0, #39739	; 0x9b3b
    1104:	00001702 	andeq	r1, r0, r2, lsl #14
    1108:	0182890d 	orreq	r8, r2, sp, lsl #18
    110c:	31011100 	mrscc	r1, (UNDEF: 17)
    1110:	0e000013 	mcreq	0, 0, r0, cr0, cr3, {0}
    1114:	01018289 	smlabbeq	r1, r9, r2, r8
    1118:	13310111 	teqne	r1, #1073741828	; 0x40000004
    111c:	00001301 	andeq	r1, r0, r1, lsl #6
    1120:	01828a0f 	orreq	r8, r2, pc, lsl #20
    1124:	91180200 	tstls	r8, r0, lsl #4
    1128:	00001842 	andeq	r1, r0, r2, asr #16
    112c:	0b000f10 	bleq	4d74 <__code_start__-0x328c>
    1130:	0013490b 	andseq	r4, r3, fp, lsl #18
    1134:	002e1100 	eoreq	r1, lr, r0, lsl #2
    1138:	0e03193f 	mcreq	9, 0, r1, cr3, cr15, {1}
    113c:	0b3b0b3a 	bleq	ec3e2c <__bss_end__+0xeb98c4>
    1140:	193c1927 	ldmdbne	ip!, {r0, r1, r2, r5, r8, fp, ip}
    1144:	2e120000 	cdpcs	0, 1, cr0, cr2, cr0, {0}
    1148:	03193f01 	tsteq	r9, #1, 30
    114c:	3b0b3a0e 	blcc	2cf98c <__bss_end__+0x2c5424>
    1150:	3c19270b 	ldccc	7, cr2, [r9], {11}
    1154:	13000019 	movwne	r0, #25
    1158:	13490005 	movtne	r0, #36869	; 0x9005
    115c:	01000000 	mrseq	r0, (UNDEF: 0)
    1160:	0e250111 	mcreq	1, 1, r0, cr5, cr1, {0}
    1164:	0e030b13 	vmoveq.32	d3[0], r0
    1168:	17550e1b 	smmlane	r5, fp, lr, r0
    116c:	17100111 			; <UNDEFINED> instruction: 0x17100111
    1170:	24020000 	strcs	r0, [r2], #-0
    1174:	3e0b0b00 	vmlacc.f64	d0, d11, d0
    1178:	0008030b 	andeq	r0, r8, fp, lsl #6
    117c:	00240300 	eoreq	r0, r4, r0, lsl #6
    1180:	0b3e0b0b 	bleq	f83db4 <__bss_end__+0xf7984c>
    1184:	00000e03 	andeq	r0, r0, r3, lsl #28
    1188:	3f012e04 	svccc	0x00012e04
    118c:	3a0e0319 	bcc	381df8 <__bss_end__+0x377890>
    1190:	270b3b0b 	strcs	r3, [fp, -fp, lsl #22]
    1194:	11134919 	tstne	r3, r9, lsl r9
    1198:	40061201 	andmi	r1, r6, r1, lsl #4
    119c:	19429718 	stmdbne	r2, {r3, r4, r8, r9, sl, ip, pc}^
    11a0:	00001301 	andeq	r1, r0, r1, lsl #6
    11a4:	03003405 	movweq	r3, #1029	; 0x405
    11a8:	3b0b3a0e 	blcc	2cf9e8 <__bss_end__+0x2c5480>
    11ac:	0213490b 	andseq	r4, r3, #180224	; 0x2c000
    11b0:	06000017 			; <UNDEFINED> instruction: 0x06000017
    11b4:	193f012e 	ldmdbne	pc!, {r1, r2, r3, r5, r8}	; <UNPREDICTABLE>
    11b8:	0b3a0e03 	bleq	e849cc <__bss_end__+0xe7a464>
    11bc:	19270b3b 	stmdbne	r7!, {r0, r1, r3, r4, r5, r8, r9, fp}
    11c0:	06120111 			; <UNDEFINED> instruction: 0x06120111
    11c4:	42971840 	addsmi	r1, r7, #64, 16	; 0x400000
    11c8:	00130119 	andseq	r0, r3, r9, lsl r1
    11cc:	00340700 	eorseq	r0, r4, r0, lsl #14
    11d0:	0b3a0e03 	bleq	e849e4 <__bss_end__+0xe7a47c>
    11d4:	13490b3b 	movtne	r0, #39739	; 0x9b3b
    11d8:	0000061c 	andeq	r0, r0, ip, lsl r6
    11dc:	03003408 	movweq	r3, #1032	; 0x408
    11e0:	3b0b3a0e 	blcc	2cfa20 <__bss_end__+0x2c54b8>
    11e4:	1c13490b 	ldcne	9, cr4, [r3], {11}
    11e8:	0900000b 	stmdbeq	r0, {r0, r1, r3}
    11ec:	00018289 	andeq	r8, r1, r9, lsl #5
    11f0:	13310111 	teqne	r1, #1073741828	; 0x40000004
    11f4:	890a0000 	stmdbhi	sl, {}	; <UNPREDICTABLE>
    11f8:	11010182 	smlabbne	r1, r2, r1, r0
    11fc:	01133101 	tsteq	r3, r1, lsl #2
    1200:	0b000013 	bleq	1254 <__code_start__-0x6dac>
    1204:	0001828a 	andeq	r8, r1, sl, lsl #5
    1208:	42911802 	addsmi	r1, r1, #131072	; 0x20000
    120c:	0c000018 	stceq	0, cr0, [r0], {24}
    1210:	01018289 	smlabbeq	r1, r9, r2, r8
    1214:	13310111 	teqne	r1, #1073741828	; 0x40000004
    1218:	260d0000 	strcs	r0, [sp], -r0
    121c:	00134900 	andseq	r4, r3, r0, lsl #18
    1220:	012e0e00 	teqeq	lr, r0, lsl #28
    1224:	0e03193f 	mcreq	9, 0, r1, cr3, cr15, {1}
    1228:	0b3b0b3a 	bleq	ec3f18 <__bss_end__+0xeb99b0>
    122c:	193c1927 	ldmdbne	ip!, {r0, r1, r2, r5, r8, fp, ip}
    1230:	00001301 	andeq	r1, r0, r1, lsl #6
    1234:	4900050f 	stmdbmi	r0, {r0, r1, r2, r3, r8, sl}
    1238:	10000013 	andne	r0, r0, r3, lsl r0
    123c:	193f012e 	ldmdbne	pc!, {r1, r2, r3, r5, r8}	; <UNPREDICTABLE>
    1240:	0b3a0e03 	bleq	e84a54 <__bss_end__+0xe7a4ec>
    1244:	19270b3b 	stmdbne	r7!, {r0, r1, r3, r4, r5, r8, r9, fp}
    1248:	0000193c 	andeq	r1, r0, ip, lsr r9
    124c:	01110100 	tsteq	r1, r0, lsl #2
    1250:	0b130e25 	bleq	4c4aec <__bss_end__+0x4ba584>
    1254:	0e1b0e03 	cdpeq	14, 1, cr0, cr11, cr3, {0}
    1258:	06120111 			; <UNDEFINED> instruction: 0x06120111
    125c:	00001710 	andeq	r1, r0, r0, lsl r7
    1260:	0b002402 	bleq	a270 <buf.4189+0x10c>
    1264:	030b3e0b 	movweq	r3, #48651	; 0xbe0b
    1268:	03000008 	movweq	r0, #8
    126c:	0b0b0024 	bleq	2c1304 <__bss_end__+0x2b6d9c>
    1270:	0e030b3e 	vmoveq.16	d3[0], r0
    1274:	2e040000 	cdpcs	0, 0, cr0, cr4, cr0, {0}
    1278:	03193f01 	tsteq	r9, #1, 30
    127c:	3b0b3a0e 	blcc	2cfabc <__bss_end__+0x2c5554>
    1280:	1119270b 	tstne	r9, fp, lsl #14
    1284:	40061201 	andmi	r1, r6, r1, lsl #4
    1288:	19429718 	stmdbne	r2, {r3, r4, r8, r9, sl, ip, pc}^
    128c:	00001301 	andeq	r1, r0, r1, lsl #6
    1290:	03000505 	movweq	r0, #1285	; 0x505
    1294:	3b0b3a0e 	blcc	2cfad4 <__bss_end__+0x2c556c>
    1298:	0213490b 	andseq	r4, r3, #180224	; 0x2c000
    129c:	06000017 			; <UNDEFINED> instruction: 0x06000017
    12a0:	193f012e 	ldmdbne	pc!, {r1, r2, r3, r5, r8}	; <UNPREDICTABLE>
    12a4:	0b3a0e03 	bleq	e84ab8 <__bss_end__+0xe7a550>
    12a8:	19270b3b 	stmdbne	r7!, {r0, r1, r3, r4, r5, r8, r9, fp}
    12ac:	01111349 	tsteq	r1, r9, asr #6
    12b0:	18400612 	stmdane	r0, {r1, r4, r9, sl}^
    12b4:	01194297 			; <UNDEFINED> instruction: 0x01194297
    12b8:	07000013 	smladeq	r0, r3, r0, r0
    12bc:	01018289 	smlabbeq	r1, r9, r2, r8
    12c0:	13310111 	teqne	r1, #1073741828	; 0x40000004
    12c4:	8a080000 	bhi	2012cc <__bss_end__+0x1f6d64>
    12c8:	02000182 	andeq	r0, r0, #-2147483616	; 0x80000020
    12cc:	18429118 	stmdane	r2, {r3, r4, r8, ip, pc}^
    12d0:	34090000 	strcc	r0, [r9], #-0
    12d4:	3a080300 	bcc	201edc <__bss_end__+0x1f7974>
    12d8:	490b3b0b 	stmdbmi	fp, {r0, r1, r3, r8, r9, fp, ip, sp}
    12dc:	00170213 	andseq	r0, r7, r3, lsl r2
    12e0:	82890a00 	addhi	r0, r9, #0, 20
    12e4:	01110001 	tsteq	r1, r1
    12e8:	00001331 	andeq	r1, r0, r1, lsr r3
    12ec:	0300050b 	movweq	r0, #1291	; 0x50b
    12f0:	3b0b3a08 	blcc	2cfb18 <__bss_end__+0x2c55b0>
    12f4:	0213490b 	andseq	r4, r3, #180224	; 0x2c000
    12f8:	0c000017 	stceq	0, cr0, [r0], {23}
    12fc:	08030034 	stmdaeq	r3, {r2, r4, r5}
    1300:	0b3b0b3a 	bleq	ec3ff0 <__bss_end__+0xeb9a88>
    1304:	18021349 	stmdane	r2, {r0, r3, r6, r8, r9, ip}
    1308:	0b0d0000 	bleq	341310 <__bss_end__+0x336da8>
    130c:	12011101 	andne	r1, r1, #1073741824	; 0x40000000
    1310:	00130106 	andseq	r0, r3, r6, lsl #2
    1314:	012e0e00 	teqeq	lr, r0, lsl #28
    1318:	0e03193f 	mcreq	9, 0, r1, cr3, cr15, {1}
    131c:	0b3b0b3a 	bleq	ec400c <__bss_end__+0xeb9aa4>
    1320:	13491927 	movtne	r1, #39207	; 0x9927
    1324:	1301193c 	movwne	r1, #6460	; 0x193c
    1328:	050f0000 	streq	r0, [pc, #-0]	; 1330 <__code_start__-0x6cd0>
    132c:	00134900 	andseq	r4, r3, r0, lsl #18
    1330:	002e1000 	eoreq	r1, lr, r0
    1334:	0e03193f 	mcreq	9, 0, r1, cr3, cr15, {1}
    1338:	0b3b0b3a 	bleq	ec4028 <__bss_end__+0xeb9ac0>
    133c:	193c1927 	ldmdbne	ip!, {r0, r1, r2, r5, r8, fp, ip}
    1340:	01000000 	mrseq	r0, (UNDEF: 0)
    1344:	0e250111 	mcreq	1, 1, r0, cr5, cr1, {0}
    1348:	0e030b13 	vmoveq.32	d3[0], r0
    134c:	01110e1b 	tsteq	r1, fp, lsl lr
    1350:	17100612 			; <UNDEFINED> instruction: 0x17100612
    1354:	24020000 	strcs	r0, [r2], #-0
    1358:	3e0b0b00 	vmlacc.f64	d0, d11, d0
    135c:	0008030b 	andeq	r0, r8, fp, lsl #6
    1360:	00240300 	eoreq	r0, r4, r0, lsl #6
    1364:	0b3e0b0b 	bleq	f83f98 <__bss_end__+0xf79a30>
    1368:	00000e03 	andeq	r0, r0, r3, lsl #28
    136c:	49003504 	stmdbmi	r0, {r2, r8, sl, ip, sp}
    1370:	05000013 	streq	r0, [r0, #-19]
    1374:	0e030016 	mcreq	0, 0, r0, cr3, cr6, {0}
    1378:	0b3b0b3a 	bleq	ec4068 <__bss_end__+0xeb9b00>
    137c:	00001349 	andeq	r1, r0, r9, asr #6
    1380:	03001606 	movweq	r1, #1542	; 0x606
    1384:	3b0b3a0e 	blcc	2cfbc4 <__bss_end__+0x2c565c>
    1388:	00134905 	andseq	r4, r3, r5, lsl #18
    138c:	01170700 	tsteq	r7, r0, lsl #14
    1390:	0b3a0b0b 	bleq	e83fc4 <__bss_end__+0xe79a5c>
    1394:	13010b3b 	movwne	r0, #6971	; 0x1b3b
    1398:	0d080000 	stceq	0, cr0, [r8, #-0]
    139c:	3a0e0300 	bcc	381fa4 <__bss_end__+0x377a3c>
    13a0:	490b3b0b 	stmdbmi	fp, {r0, r1, r3, r8, r9, fp, ip, sp}
    13a4:	09000013 	stmdbeq	r0, {r0, r1, r4}
    13a8:	13490101 	movtne	r0, #37121	; 0x9101
    13ac:	00001301 	andeq	r1, r0, r1, lsl #6
    13b0:	4900210a 	stmdbmi	r0, {r1, r3, r8, sp}
    13b4:	000b2f13 	andeq	r2, fp, r3, lsl pc
    13b8:	01130b00 	tsteq	r3, r0, lsl #22
    13bc:	0b3a0b0b 	bleq	e83ff0 <__bss_end__+0xe79a88>
    13c0:	13010b3b 	movwne	r0, #6971	; 0x1b3b
    13c4:	0d0c0000 	stceq	0, cr0, [ip, #-0]
    13c8:	3a0e0300 	bcc	381fd0 <__bss_end__+0x377a68>
    13cc:	490b3b0b 	stmdbmi	fp, {r0, r1, r3, r8, r9, fp, ip, sp}
    13d0:	000b3813 	andeq	r3, fp, r3, lsl r8
    13d4:	000f0d00 	andeq	r0, pc, r0, lsl #26
    13d8:	00000b0b 	andeq	r0, r0, fp, lsl #22
    13dc:	0b000f0e 	bleq	501c <__code_start__-0x2fe4>
    13e0:	0013490b 	andseq	r4, r3, fp, lsl #18
    13e4:	00260f00 	eoreq	r0, r6, r0, lsl #30
    13e8:	00001349 	andeq	r1, r0, r9, asr #6
    13ec:	03011310 	movweq	r1, #4880	; 0x1310
    13f0:	3a0b0b0e 	bcc	2c4030 <__bss_end__+0x2b9ac8>
    13f4:	010b3b0b 	tsteq	fp, fp, lsl #22
    13f8:	11000013 	tstne	r0, r3, lsl r0
    13fc:	0803000d 	stmdaeq	r3, {r0, r2, r3}
    1400:	0b3b0b3a 	bleq	ec40f0 <__bss_end__+0xeb9b88>
    1404:	0b381349 	bleq	e06130 <__bss_end__+0xdfbbc8>
    1408:	13120000 	tstne	r2, #0
    140c:	0b0e0301 	bleq	382018 <__bss_end__+0x377ab0>
    1410:	3b0b3a05 	blcc	2cfc2c <__bss_end__+0x2c56c4>
    1414:	0013010b 	andseq	r0, r3, fp, lsl #2
    1418:	000d1300 	andeq	r1, sp, r0, lsl #6
    141c:	0b3a0e03 	bleq	e84c30 <__bss_end__+0xe7a6c8>
    1420:	13490b3b 	movtne	r0, #39739	; 0x9b3b
    1424:	00000538 	andeq	r0, r0, r8, lsr r5
    1428:	27001514 	smladcs	r0, r4, r5, r1
    142c:	15000019 	strne	r0, [r0, #-25]
    1430:	19270115 	stmdbne	r7!, {r0, r2, r4, r8}
    1434:	13011349 	movwne	r1, #4937	; 0x1349
    1438:	05160000 	ldreq	r0, [r6, #-0]
    143c:	00134900 	andseq	r4, r3, r0, lsl #18
    1440:	01131700 	tsteq	r3, r0, lsl #14
    1444:	050b0e03 	streq	r0, [fp, #-3587]	; 0xe03
    1448:	053b0b3a 	ldreq	r0, [fp, #-2874]!	; 0xb3a
    144c:	00001301 	andeq	r1, r0, r1, lsl #6
    1450:	03000d18 	movweq	r0, #3352	; 0xd18
    1454:	3b0b3a0e 	blcc	2cfc94 <__bss_end__+0x2c572c>
    1458:	38134905 	ldmdacc	r3, {r0, r2, r8, fp, lr}
    145c:	1900000b 	stmdbne	r0, {r0, r1, r3}
    1460:	0e03000d 	cdpeq	0, 0, cr0, cr3, cr13, {0}
    1464:	053b0b3a 	ldreq	r0, [fp, #-2874]!	; 0xb3a
    1468:	05381349 	ldreq	r1, [r8, #-841]!	; 0x349
    146c:	131a0000 	tstne	sl, #0
    1470:	0b0e0301 	bleq	38207c <__bss_end__+0x377b14>
    1474:	3b0b3a0b 	blcc	2cfca8 <__bss_end__+0x2c5740>
    1478:	00130105 	andseq	r0, r3, r5, lsl #2
    147c:	01131b00 	tsteq	r3, r0, lsl #22
    1480:	0b3a0b0b 	bleq	e840b4 <__bss_end__+0xe79b4c>
    1484:	1301053b 	movwne	r0, #5435	; 0x153b
    1488:	171c0000 	ldrne	r0, [ip, -r0]
    148c:	3a0b0b01 	bcc	2c4098 <__bss_end__+0x2b9b30>
    1490:	01053b0b 	tsteq	r5, fp, lsl #22
    1494:	1d000013 	stcne	0, cr0, [r0, #-76]	; 0xffffffb4
    1498:	0e03000d 	cdpeq	0, 0, cr0, cr3, cr13, {0}
    149c:	053b0b3a 	ldreq	r0, [fp, #-2874]!	; 0xb3a
    14a0:	00001349 	andeq	r1, r0, r9, asr #6
    14a4:	2701151e 	smladcs	r1, lr, r5, r1
    14a8:	00130119 	andseq	r0, r3, r9, lsl r1
    14ac:	00341f00 	eorseq	r1, r4, r0, lsl #30
    14b0:	0b3a0e03 	bleq	e84cc4 <__bss_end__+0xe7a75c>
    14b4:	1349053b 	movtne	r0, #38203	; 0x953b
    14b8:	193c193f 	ldmdbne	ip!, {r0, r1, r2, r3, r4, r5, r8, fp, ip}
    14bc:	34200000 	strtcc	r0, [r0], #-0
    14c0:	3a0e0300 	bcc	3820c8 <__bss_end__+0x377b60>
    14c4:	490b3b0b 	stmdbmi	fp, {r0, r1, r3, r8, r9, fp, ip, sp}
    14c8:	3c193f13 	ldccc	15, cr3, [r9], {19}
    14cc:	21000019 	tstcs	r0, r9, lsl r0
    14d0:	0b0b0104 	bleq	2c18e8 <__bss_end__+0x2b7380>
    14d4:	0b3a1349 	bleq	e86200 <__bss_end__+0xe7bc98>
    14d8:	13010b3b 	movwne	r0, #6971	; 0x1b3b
    14dc:	28220000 	stmdacs	r2!, {}	; <UNPREDICTABLE>
    14e0:	1c0e0300 	stcne	3, cr0, [lr], {-0}
    14e4:	2300000b 	movwcs	r0, #11
    14e8:	0e030034 	mcreq	0, 0, r0, cr3, cr4, {1}
    14ec:	0b3b0b3a 	bleq	ec41dc <__bss_end__+0xeb9c74>
    14f0:	061c1349 	ldreq	r1, [ip], -r9, asr #6
    14f4:	2e240000 	cdpcs	0, 2, cr0, cr4, cr0, {0}
    14f8:	03193f01 	tsteq	r9, #1, 30
    14fc:	3b0b3a0e 	blcc	2cfd3c <__bss_end__+0x2c57d4>
    1500:	4919270b 	ldmdbmi	r9, {r0, r1, r3, r8, r9, sl, sp}
    1504:	12011113 	andne	r1, r1, #-1073741820	; 0xc0000004
    1508:	97184006 	ldrls	r4, [r8, -r6]
    150c:	13011942 	movwne	r1, #6466	; 0x1942
    1510:	89250000 	stmdbhi	r5!, {}	; <UNPREDICTABLE>
    1514:	11000182 	smlabbne	r0, r2, r1, r0
    1518:	00133101 	andseq	r3, r3, r1, lsl #2
    151c:	012e2600 	teqeq	lr, r0, lsl #12
    1520:	0e03193f 	mcreq	9, 0, r1, cr3, cr15, {1}
    1524:	0b3b0b3a 	bleq	ec4214 <__bss_end__+0xeb9cac>
    1528:	01111927 	tsteq	r1, r7, lsr #18
    152c:	18400612 	stmdane	r0, {r1, r4, r9, sl}^
    1530:	01194297 			; <UNDEFINED> instruction: 0x01194297
    1534:	27000013 	smladcs	r0, r3, r0, r0
    1538:	08030005 	stmdaeq	r3, {r0, r2}
    153c:	0b3b0b3a 	bleq	ec422c <__bss_end__+0xeb9cc4>
    1540:	17021349 	strne	r1, [r2, -r9, asr #6]
    1544:	89280000 	stmdbhi	r8!, {}	; <UNPREDICTABLE>
    1548:	11010182 	smlabbne	r1, r2, r1, r0
    154c:	01133101 	tsteq	r3, r1, lsl #2
    1550:	29000013 	stmdbcs	r0, {r0, r1, r4}
    1554:	0001828a 	andeq	r8, r1, sl, lsl #5
    1558:	42911802 	addsmi	r1, r1, #131072	; 0x20000
    155c:	2a000018 	bcs	15c4 <__code_start__-0x6a3c>
    1560:	08030034 	stmdaeq	r3, {r2, r4, r5}
    1564:	0b3b0b3a 	bleq	ec4254 <__bss_end__+0xeb9cec>
    1568:	18021349 	stmdane	r2, {r0, r3, r6, r8, r9, ip}
    156c:	892b0000 	stmdbhi	fp!, {}	; <UNPREDICTABLE>
    1570:	11010182 	smlabbne	r1, r2, r1, r0
    1574:	00133101 	andseq	r3, r3, r1, lsl #2
    1578:	012e2c00 	teqeq	lr, r0, lsl #24
    157c:	0b3a0e03 	bleq	e84d90 <__bss_end__+0xe7a828>
    1580:	19270b3b 	stmdbne	r7!, {r0, r1, r3, r4, r5, r8, r9, fp}
    1584:	06120111 			; <UNDEFINED> instruction: 0x06120111
    1588:	42971840 	addsmi	r1, r7, #64, 16	; 0x400000
    158c:	00130119 	andseq	r0, r3, r9, lsl r1
    1590:	00052d00 	andeq	r2, r5, r0, lsl #26
    1594:	0b3a0e03 	bleq	e84da8 <__bss_end__+0xe7a840>
    1598:	13490b3b 	movtne	r0, #39739	; 0x9b3b
    159c:	00001702 	andeq	r1, r0, r2, lsl #14
    15a0:	0000352e 	andeq	r3, r0, lr, lsr #10
    15a4:	002e2f00 	eoreq	r2, lr, r0, lsl #30
    15a8:	193c193f 	ldmdbne	ip!, {r0, r1, r2, r3, r4, r5, r8, fp, ip}
    15ac:	0e030e6e 	cdpeq	14, 0, cr0, cr3, cr14, {3}
    15b0:	0b3b0b3a 	bleq	ec42a0 <__bss_end__+0xeb9d38>
    15b4:	01000000 	mrseq	r0, (UNDEF: 0)
    15b8:	0e250111 	mcreq	1, 1, r0, cr5, cr1, {0}
    15bc:	0e030b13 	vmoveq.32	d3[0], r0
    15c0:	01110e1b 	tsteq	r1, fp, lsl lr
    15c4:	17100612 			; <UNDEFINED> instruction: 0x17100612
    15c8:	24020000 	strcs	r0, [r2], #-0
    15cc:	3e0b0b00 	vmlacc.f64	d0, d11, d0
    15d0:	0008030b 	andeq	r0, r8, fp, lsl #6
    15d4:	00240300 	eoreq	r0, r4, r0, lsl #6
    15d8:	0b3e0b0b 	bleq	f8420c <__bss_end__+0xf79ca4>
    15dc:	00000e03 	andeq	r0, r0, r3, lsl #28
    15e0:	49002604 	stmdbmi	r0, {r2, r9, sl, sp}
    15e4:	05000013 	streq	r0, [r0, #-19]
    15e8:	0e030016 	mcreq	0, 0, r0, cr3, cr6, {0}
    15ec:	0b3b0b3a 	bleq	ec42dc <__bss_end__+0xeb9d74>
    15f0:	00001349 	andeq	r1, r0, r9, asr #6
    15f4:	03001606 	movweq	r1, #1542	; 0x606
    15f8:	3b0b3a0e 	blcc	2cfe38 <__bss_end__+0x2c58d0>
    15fc:	00134905 	andseq	r4, r3, r5, lsl #18
    1600:	01170700 	tsteq	r7, r0, lsl #14
    1604:	0b3a0b0b 	bleq	e84238 <__bss_end__+0xe79cd0>
    1608:	13010b3b 	movwne	r0, #6971	; 0x1b3b
    160c:	0d080000 	stceq	0, cr0, [r8, #-0]
    1610:	3a0e0300 	bcc	382218 <__bss_end__+0x377cb0>
    1614:	490b3b0b 	stmdbmi	fp, {r0, r1, r3, r8, r9, fp, ip, sp}
    1618:	09000013 	stmdbeq	r0, {r0, r1, r4}
    161c:	13490101 	movtne	r0, #37121	; 0x9101
    1620:	00001301 	andeq	r1, r0, r1, lsl #6
    1624:	4900210a 	stmdbmi	r0, {r1, r3, r8, sp}
    1628:	000b2f13 	andeq	r2, fp, r3, lsl pc
    162c:	01130b00 	tsteq	r3, r0, lsl #22
    1630:	0b3a0b0b 	bleq	e84264 <__bss_end__+0xe79cfc>
    1634:	13010b3b 	movwne	r0, #6971	; 0x1b3b
    1638:	0d0c0000 	stceq	0, cr0, [ip, #-0]
    163c:	3a0e0300 	bcc	382244 <__bss_end__+0x377cdc>
    1640:	490b3b0b 	stmdbmi	fp, {r0, r1, r3, r8, r9, fp, ip, sp}
    1644:	000b3813 	andeq	r3, fp, r3, lsl r8
    1648:	000f0d00 	andeq	r0, pc, r0, lsl #26
    164c:	00000b0b 	andeq	r0, r0, fp, lsl #22
    1650:	0b000f0e 	bleq	5290 <__code_start__-0x2d70>
    1654:	0013490b 	andseq	r4, r3, fp, lsl #18
    1658:	01130f00 	tsteq	r3, r0, lsl #30
    165c:	0b0b0e03 	bleq	2c4e70 <__bss_end__+0x2ba908>
    1660:	0b3b0b3a 	bleq	ec4350 <__bss_end__+0xeb9de8>
    1664:	00001301 	andeq	r1, r0, r1, lsl #6
    1668:	03000d10 	movweq	r0, #3344	; 0xd10
    166c:	3b0b3a08 	blcc	2cfe94 <__bss_end__+0x2c592c>
    1670:	3813490b 	ldmdacc	r3, {r0, r1, r3, r8, fp, lr}
    1674:	1100000b 	tstne	r0, fp
    1678:	0e030113 	mcreq	1, 0, r0, cr3, cr3, {0}
    167c:	0b3a050b 	bleq	e82ab0 <__bss_end__+0xe78548>
    1680:	13010b3b 	movwne	r0, #6971	; 0x1b3b
    1684:	0d120000 	ldceq	0, cr0, [r2, #-0]
    1688:	3a0e0300 	bcc	382290 <__bss_end__+0x377d28>
    168c:	490b3b0b 	stmdbmi	fp, {r0, r1, r3, r8, r9, fp, ip, sp}
    1690:	00053813 	andeq	r3, r5, r3, lsl r8
    1694:	00151300 	andseq	r1, r5, r0, lsl #6
    1698:	00001927 	andeq	r1, r0, r7, lsr #18
    169c:	27011514 	smladcs	r1, r4, r5, r1
    16a0:	01134919 	tsteq	r3, r9, lsl r9
    16a4:	15000013 	strne	r0, [r0, #-19]
    16a8:	13490005 	movtne	r0, #36869	; 0x9005
    16ac:	13160000 	tstne	r6, #0
    16b0:	0b0e0301 	bleq	3822bc <__bss_end__+0x377d54>
    16b4:	3b0b3a05 	blcc	2cfed0 <__bss_end__+0x2c5968>
    16b8:	00130105 	andseq	r0, r3, r5, lsl #2
    16bc:	000d1700 	andeq	r1, sp, r0, lsl #14
    16c0:	0b3a0e03 	bleq	e84ed4 <__bss_end__+0xe7a96c>
    16c4:	1349053b 	movtne	r0, #38203	; 0x953b
    16c8:	00000b38 	andeq	r0, r0, r8, lsr fp
    16cc:	03000d18 	movweq	r0, #3352	; 0xd18
    16d0:	3b0b3a0e 	blcc	2cff10 <__bss_end__+0x2c59a8>
    16d4:	38134905 	ldmdacc	r3, {r0, r2, r8, fp, lr}
    16d8:	19000005 	stmdbne	r0, {r0, r2}
    16dc:	0e030113 	mcreq	1, 0, r0, cr3, cr3, {0}
    16e0:	0b3a0b0b 	bleq	e84314 <__bss_end__+0xe79dac>
    16e4:	1301053b 	movwne	r0, #5435	; 0x153b
    16e8:	131a0000 	tstne	sl, #0
    16ec:	3a0b0b01 	bcc	2c42f8 <__bss_end__+0x2b9d90>
    16f0:	01053b0b 	tsteq	r5, fp, lsl #22
    16f4:	1b000013 	blne	1748 <__code_start__-0x68b8>
    16f8:	0b0b0117 	bleq	2c1b5c <__bss_end__+0x2b75f4>
    16fc:	053b0b3a 	ldreq	r0, [fp, #-2874]!	; 0xb3a
    1700:	00001301 	andeq	r1, r0, r1, lsl #6
    1704:	03000d1c 	movweq	r0, #3356	; 0xd1c
    1708:	3b0b3a0e 	blcc	2cff48 <__bss_end__+0x2c59e0>
    170c:	00134905 	andseq	r4, r3, r5, lsl #18
    1710:	01151d00 	tsteq	r5, r0, lsl #26
    1714:	13011927 	movwne	r1, #6439	; 0x1927
    1718:	341e0000 	ldrcc	r0, [lr], #-0
    171c:	3a0e0300 	bcc	382324 <__bss_end__+0x377dbc>
    1720:	49053b0b 	stmdbmi	r5, {r0, r1, r3, r8, r9, fp, ip, sp}
    1724:	3c193f13 	ldccc	15, cr3, [r9], {19}
    1728:	1f000019 	svcne	0x00000019
    172c:	0e030034 	mcreq	0, 0, r0, cr3, cr4, {1}
    1730:	0b3b0b3a 	bleq	ec4420 <__bss_end__+0xeb9eb8>
    1734:	193f1349 	ldmdbne	pc!, {r0, r3, r6, r8, r9, ip}	; <UNPREDICTABLE>
    1738:	0000193c 	andeq	r1, r0, ip, lsr r9
    173c:	0b010420 	bleq	427c4 <__bss_end__+0x3825c>
    1740:	3a13490b 	bcc	4d3b74 <__bss_end__+0x4c960c>
    1744:	010b3b0b 	tsteq	fp, fp, lsl #22
    1748:	21000013 	tstcs	r0, r3, lsl r0
    174c:	0e030028 	cdpeq	0, 0, cr0, cr3, cr8, {1}
    1750:	00000b1c 	andeq	r0, r0, ip, lsl fp
    1754:	03003422 	movweq	r3, #1058	; 0x422
    1758:	3b0b3a0e 	blcc	2cff98 <__bss_end__+0x2c5a30>
    175c:	1c13490b 	ldcne	9, cr4, [r3], {11}
    1760:	23000006 	movwcs	r0, #6
    1764:	193f012e 	ldmdbne	pc!, {r1, r2, r3, r5, r8}	; <UNPREDICTABLE>
    1768:	0b3a0e03 	bleq	e84f7c <__bss_end__+0xe7aa14>
    176c:	19270b3b 	stmdbne	r7!, {r0, r1, r3, r4, r5, r8, r9, fp}
    1770:	01111349 	tsteq	r1, r9, asr #6
    1774:	18400612 	stmdane	r0, {r1, r4, r9, sl}^
    1778:	01194297 			; <UNDEFINED> instruction: 0x01194297
    177c:	24000013 	strcs	r0, [r0], #-19
    1780:	08030005 	stmdaeq	r3, {r0, r2}
    1784:	0b3b0b3a 	bleq	ec4474 <__bss_end__+0xeb9f0c>
    1788:	17021349 	strne	r1, [r2, -r9, asr #6]
    178c:	34250000 	strtcc	r0, [r5], #-0
    1790:	3a0e0300 	bcc	382398 <__bss_end__+0x377e30>
    1794:	490b3b0b 	stmdbmi	fp, {r0, r1, r3, r8, r9, fp, ip, sp}
    1798:	00170213 	andseq	r0, r7, r3, lsl r2
    179c:	00342600 	eorseq	r2, r4, r0, lsl #12
    17a0:	0b3a0803 	bleq	e837b4 <__bss_end__+0xe7924c>
    17a4:	13490b3b 	movtne	r0, #39739	; 0x9b3b
    17a8:	00001702 	andeq	r1, r0, r2, lsl #14
    17ac:	01828927 	orreq	r8, r2, r7, lsr #18
    17b0:	31011101 	tstcc	r1, r1, lsl #2
    17b4:	28000013 	stmdacs	r0, {r0, r1, r4}
    17b8:	0001828a 	andeq	r8, r1, sl, lsl #5
    17bc:	42911802 	addsmi	r1, r1, #131072	; 0x20000
    17c0:	29000018 	stmdbcs	r0, {r3, r4}
    17c4:	193f012e 	ldmdbne	pc!, {r1, r2, r3, r5, r8}	; <UNPREDICTABLE>
    17c8:	0b3a0e03 	bleq	e84fdc <__bss_end__+0xe7aa74>
    17cc:	19270b3b 	stmdbne	r7!, {r0, r1, r3, r4, r5, r8, r9, fp}
    17d0:	06120111 			; <UNDEFINED> instruction: 0x06120111
    17d4:	42971840 	addsmi	r1, r7, #64, 16	; 0x400000
    17d8:	00130119 	andseq	r0, r3, r9, lsl r1
    17dc:	82892a00 	addhi	r2, r9, #0, 20
    17e0:	01110101 	tsteq	r1, r1, lsl #2
    17e4:	13011331 	movwne	r1, #4913	; 0x1331
    17e8:	892b0000 	stmdbhi	fp!, {}	; <UNPREDICTABLE>
    17ec:	11000182 	smlabbne	r0, r2, r1, r0
    17f0:	00133101 	andseq	r3, r3, r1, lsl #2
    17f4:	00052c00 	andeq	r2, r5, r0, lsl #24
    17f8:	0b3a0e03 	bleq	e8500c <__bss_end__+0xe7aaa4>
    17fc:	13490b3b 	movtne	r0, #39739	; 0x9b3b
    1800:	00001702 	andeq	r1, r0, r2, lsl #14
    1804:	0300342d 	movweq	r3, #1069	; 0x42d
    1808:	3b0b3a08 	blcc	2d0030 <__bss_end__+0x2c5ac8>
    180c:	0213490b 	andseq	r4, r3, #180224	; 0x2c000
    1810:	2e000018 	mcrcs	0, 0, r0, cr0, cr8, {0}
    1814:	193f002e 	ldmdbne	pc!, {r1, r2, r3, r5}	; <UNPREDICTABLE>
    1818:	0e6e193c 	mcreq	9, 3, r1, cr14, cr12, {1}
    181c:	0b3a0e03 	bleq	e85030 <__bss_end__+0xe7aac8>
    1820:	00000b3b 	andeq	r0, r0, fp, lsr fp
	...

Disassembly of section .debug_loc:

00000000 <.debug_loc>:
       0:	00000004 	andeq	r0, r0, r4
       4:	00000008 	andeq	r0, r0, r8
       8:	08500001 	ldmdaeq	r0, {r0}^
       c:	0c000000 	stceq	0, cr0, [r0], {-0}
      10:	04000000 	streq	r0, [r0], #-0
      14:	5001f300 	andpl	pc, r1, r0, lsl #6
      18:	0000009f 	muleq	r0, pc, r0	; <UNPREDICTABLE>
      1c:	00000000 	andeq	r0, r0, r0
      20:	00001000 	andeq	r1, r0, r0
      24:	00002000 	andeq	r2, r0, r0
      28:	50000100 	andpl	r0, r0, r0, lsl #2
      2c:	00000020 	andeq	r0, r0, r0, lsr #32
      30:	00000024 	andeq	r0, r0, r4, lsr #32
      34:	01f30004 	mvnseq	r0, r4
      38:	00249f50 	eoreq	r9, r4, r0, asr pc
      3c:	00280000 	eoreq	r0, r8, r0
      40:	00010000 	andeq	r0, r1, r0
      44:	00002850 	andeq	r2, r0, r0, asr r8
      48:	00002c00 	andeq	r2, r0, r0, lsl #24
      4c:	f3000400 	vshl.u8	d0, d0, d0
      50:	009f5001 	addseq	r5, pc, r1
	...
      5c:	23000000 	movwcs	r0, #0
      60:	01000000 	mrseq	r0, (UNDEF: 0)
      64:	00235000 	eoreq	r5, r3, r0
      68:	00440000 	subeq	r0, r4, r0
      6c:	00040000 	andeq	r0, r4, r0
      70:	9f5001f3 	svcls	0x005001f3
      74:	00000044 	andeq	r0, r0, r4, asr #32
      78:	0000005f 	andeq	r0, r0, pc, asr r0
      7c:	5f500001 	svcpl	0x00500001
      80:	80000000 	andhi	r0, r0, r0
      84:	04000000 	streq	r0, [r0], #-0
      88:	5001f300 	andpl	pc, r1, r0, lsl #6
      8c:	0000809f 	muleq	r0, pc, r0	; <UNPREDICTABLE>
      90:	0000b000 	andeq	fp, r0, r0
      94:	50000100 	andpl	r0, r0, r0, lsl #2
	...
      a4:	00000023 	andeq	r0, r0, r3, lsr #32
      a8:	23510001 	cmpcs	r1, #1
      ac:	44000000 	strmi	r0, [r0], #-0
      b0:	04000000 	streq	r0, [r0], #-0
      b4:	5101f300 	mrspl	pc, SP_irq	; <UNPREDICTABLE>
      b8:	0000449f 	muleq	r0, pc, r4	; <UNPREDICTABLE>
      bc:	00005f00 	andeq	r5, r0, r0, lsl #30
      c0:	51000100 	mrspl	r0, (UNDEF: 16)
      c4:	0000005f 	andeq	r0, r0, pc, asr r0
      c8:	00000080 	andeq	r0, r0, r0, lsl #1
      cc:	01f30004 	mvnseq	r0, r4
      d0:	00809f51 	addeq	r9, r0, r1, asr pc
      d4:	00b00000 	adcseq	r0, r0, r0
      d8:	00010000 	andeq	r0, r1, r0
      dc:	00000051 	andeq	r0, r0, r1, asr r0
      e0:	00000000 	andeq	r0, r0, r0
      e4:	00001000 	andeq	r1, r0, r0
      e8:	00002300 	andeq	r2, r0, r0, lsl #6
      ec:	53000100 	movwpl	r0, #256	; 0x100
      f0:	00000044 	andeq	r0, r0, r4, asr #32
      f4:	00000048 	andeq	r0, r0, r8, asr #32
      f8:	48530001 	ldmdami	r3, {r0}^
      fc:	b0000000 	andlt	r0, r0, r0
     100:	04000000 	streq	r0, [r0], #-0
     104:	01ff0a00 	mvnseq	r0, r0, lsl #20
     108:	0000009f 	muleq	r0, pc, r0	; <UNPREDICTABLE>
     10c:	00000000 	andeq	r0, r0, r0
     110:	00004400 	andeq	r4, r0, r0, lsl #8
     114:	00005f00 	andeq	r5, r0, r0, lsl #30
     118:	50000100 	andpl	r0, r0, r0, lsl #2
     11c:	0000005f 	andeq	r0, r0, pc, asr r0
     120:	00000080 	andeq	r0, r0, r0, lsl #1
     124:	01f30004 	mvnseq	r0, r4
     128:	00809f50 	addeq	r9, r0, r0, asr pc
     12c:	00b00000 	adcseq	r0, r0, r0
     130:	00010000 	andeq	r0, r1, r0
     134:	00000050 	andeq	r0, r0, r0, asr r0
     138:	00000000 	andeq	r0, r0, r0
     13c:	00000c00 	andeq	r0, r0, r0, lsl #24
     140:	00001000 	andeq	r1, r0, r0
     144:	53000100 	movwpl	r0, #256	; 0x100
	...
     150:	00000010 	andeq	r0, r0, r0, lsl r0
     154:	00000023 	andeq	r0, r0, r3, lsr #32
     158:	44530001 	ldrbmi	r0, [r3], #-1
     15c:	4c000000 	stcmi	0, cr0, [r0], {-0}
     160:	01000000 	mrseq	r0, (UNDEF: 0)
     164:	00005300 	andeq	r5, r0, r0, lsl #6
     168:	00000000 	andeq	r0, r0, r0
     16c:	00180000 	andseq	r0, r8, r0
     170:	00230000 	eoreq	r0, r3, r0
     174:	00010000 	andeq	r0, r1, r0
     178:	00004452 	andeq	r4, r0, r2, asr r4
     17c:	00005400 	andeq	r5, r0, r0, lsl #8
     180:	52000100 	andpl	r0, r0, #0, 2
	...
     18c:	00000054 	andeq	r0, r0, r4, asr r0
     190:	0000005f 	andeq	r0, r0, pc, asr r0
     194:	80520001 	subshi	r0, r2, r1
     198:	b0000000 	andlt	r0, r0, r0
     19c:	01000000 	mrseq	r0, (UNDEF: 0)
     1a0:	00005200 	andeq	r5, r0, r0, lsl #4
     1a4:	00000000 	andeq	r0, r0, r0
     1a8:	00b00000 	adcseq	r0, r0, r0
     1ac:	00d30000 	sbcseq	r0, r3, r0
     1b0:	00010000 	andeq	r0, r1, r0
     1b4:	0000d350 	andeq	sp, r0, r0, asr r3
     1b8:	0000ec00 	andeq	lr, r0, r0, lsl #24
     1bc:	f3000400 	vshl.u8	d0, d0, d0
     1c0:	ec9f5001 	ldc	0, cr5, [pc], {1}
     1c4:	ff000000 			; <UNDEFINED> instruction: 0xff000000
     1c8:	01000000 	mrseq	r0, (UNDEF: 0)
     1cc:	00ff5000 	rscseq	r5, pc, r0
     1d0:	01200000 	teqeq	r0, r0
     1d4:	00040000 	andeq	r0, r4, r0
     1d8:	9f5001f3 	svcls	0x005001f3
     1dc:	00000120 	andeq	r0, r0, r0, lsr #2
     1e0:	00000133 	andeq	r0, r0, r3, lsr r1
     1e4:	33500001 	cmpcc	r0, #1
     1e8:	54000001 	strpl	r0, [r0], #-1
     1ec:	04000001 	streq	r0, [r0], #-1
     1f0:	5001f300 	andpl	pc, r1, r0, lsl #6
     1f4:	0001549f 	muleq	r1, pc, r4	; <UNPREDICTABLE>
     1f8:	00015c00 	andeq	r5, r1, r0, lsl #24
     1fc:	50000100 	andpl	r0, r0, r0, lsl #2
     200:	0000015c 	andeq	r0, r0, ip, asr r1
     204:	0000015f 	andeq	r0, r0, pc, asr r1
     208:	5f510001 	svcpl	0x00510001
     20c:	8c000001 	stchi	0, cr0, [r0], {1}
     210:	04000001 	streq	r0, [r0], #-1
     214:	5001f300 	andpl	pc, r1, r0, lsl #6
     218:	0000009f 	muleq	r0, pc, r0	; <UNPREDICTABLE>
     21c:	00000000 	andeq	r0, r0, r0
     220:	0000c400 	andeq	ip, r0, r0, lsl #8
     224:	0000c800 	andeq	ip, r0, r0, lsl #16
     228:	53000100 	movwpl	r0, #256	; 0x100
	...
     234:	000000f0 	strdeq	r0, [r0], -r0	; <UNPREDICTABLE>
     238:	000000f4 	strdeq	r0, [r0], -r4
     23c:	f4530001 			; <UNDEFINED> instruction: 0xf4530001
     240:	ff000000 			; <UNDEFINED> instruction: 0xff000000
     244:	03000000 	movweq	r0, #0
     248:	9f047300 	svcls	0x00047300
     24c:	00000120 	andeq	r0, r0, r0, lsr #2
     250:	00000124 	andeq	r0, r0, r4, lsr #2
     254:	04730003 	ldrbteq	r0, [r3], #-3
     258:	0000009f 	muleq	r0, pc, r0	; <UNPREDICTABLE>
     25c:	00000000 	andeq	r0, r0, r0
     260:	0001d000 	andeq	sp, r1, r0
     264:	0001d800 	andeq	sp, r1, r0, lsl #16
     268:	53000100 	movwpl	r0, #256	; 0x100
     26c:	000001d8 	ldrdeq	r0, [r0], -r8
     270:	000001fc 	strdeq	r0, [r0], -ip
     274:	e70a0004 	str	r0, [sl, -r4]
     278:	00009f01 	andeq	r9, r0, r1, lsl #30
     27c:	00000000 	andeq	r0, r0, r0
     280:	01cc0000 	biceq	r0, ip, r0
     284:	01d00000 	bicseq	r0, r0, r0
     288:	00010000 	andeq	r0, r1, r0
     28c:	00000053 	andeq	r0, r0, r3, asr r0
     290:	00000000 	andeq	r0, r0, r0
     294:	0001d000 	andeq	sp, r1, r0
     298:	0001dc00 	andeq	sp, r1, r0, lsl #24
     29c:	53000100 	movwpl	r0, #256	; 0x100
	...
     2a8:	000001fc 	strdeq	r0, [r0], -ip
     2ac:	0000021b 	andeq	r0, r0, fp, lsl r2
     2b0:	1b500001 	blne	14002bc <__bss_end__+0x13f5d54>
     2b4:	34000002 	strcc	r0, [r0], #-2
     2b8:	04000002 	streq	r0, [r0], #-2
     2bc:	5001f300 	andpl	pc, r1, r0, lsl #6
     2c0:	0002349f 	muleq	r2, pc, r4	; <UNPREDICTABLE>
     2c4:	00024700 	andeq	r4, r2, r0, lsl #14
     2c8:	50000100 	andpl	r0, r0, r0, lsl #2
     2cc:	00000247 	andeq	r0, r0, r7, asr #4
     2d0:	00000268 	andeq	r0, r0, r8, ror #4
     2d4:	01f30004 	mvnseq	r0, r4
     2d8:	02689f50 	rsbeq	r9, r8, #80, 30	; 0x140
     2dc:	02700000 	rsbseq	r0, r0, #0
     2e0:	00010000 	andeq	r0, r1, r0
     2e4:	00027050 	andeq	r7, r2, r0, asr r0
     2e8:	00027300 	andeq	r7, r2, r0, lsl #6
     2ec:	51000100 	mrspl	r0, (UNDEF: 16)
     2f0:	00000273 	andeq	r0, r0, r3, ror r2
     2f4:	00000294 	muleq	r0, r4, r2
     2f8:	01f30004 	mvnseq	r0, r4
     2fc:	00009f50 	andeq	r9, r0, r0, asr pc
     300:	00000000 	andeq	r0, r0, r0
     304:	020c0000 	andeq	r0, ip, #0
     308:	02100000 	andseq	r0, r0, #0
     30c:	00010000 	andeq	r0, r1, r0
     310:	00000053 	andeq	r0, r0, r3, asr r0
     314:	00000000 	andeq	r0, r0, r0
     318:	0002cc00 	andeq	ip, r2, r0, lsl #24
     31c:	0002d400 	andeq	sp, r2, r0, lsl #8
     320:	53000100 	movwpl	r0, #256	; 0x100
     324:	000002d4 	ldrdeq	r0, [r0], -r4
     328:	000002f8 	strdeq	r0, [r0], -r8
     32c:	e70c0006 	str	r0, [ip, -r6]
     330:	9f004001 	svcls	0x00004001
	...
     33c:	000002c8 	andeq	r0, r0, r8, asr #5
     340:	000002cc 	andeq	r0, r0, ip, asr #5
     344:	00530001 	subseq	r0, r3, r1
     348:	00000000 	andeq	r0, r0, r0
     34c:	cc000000 	stcgt	0, cr0, [r0], {-0}
     350:	d8000002 	stmdale	r0, {r1}
     354:	01000002 	tsteq	r0, r2
     358:	00005300 	andeq	r5, r0, r0, lsl #6
     35c:	00000000 	andeq	r0, r0, r0
     360:	03080000 	movweq	r0, #32768	; 0x8000
     364:	03240000 	teqeq	r4, #0
     368:	00010000 	andeq	r0, r1, r0
     36c:	00032450 	andeq	r2, r3, r0, asr r4
     370:	00032800 	andeq	r2, r3, r0, lsl #16
     374:	f3000400 	vshl.u8	d0, d0, d0
     378:	289f5001 	ldmcs	pc, {r0, ip, lr}	; <UNPREDICTABLE>
     37c:	40000003 	andmi	r0, r0, r3
     380:	01000003 	tsteq	r0, r3
     384:	03405000 	movteq	r5, #0
     388:	03480000 	movteq	r0, #32768	; 0x8000
     38c:	00040000 	andeq	r0, r4, r0
     390:	9f5001f3 	svcls	0x005001f3
     394:	00000348 	andeq	r0, r0, r8, asr #6
     398:	00000354 	andeq	r0, r0, r4, asr r3
     39c:	54500001 	ldrbpl	r0, [r0], #-1
     3a0:	64000003 	strvs	r0, [r0], #-3
     3a4:	04000003 	streq	r0, [r0], #-3
     3a8:	5001f300 	andpl	pc, r1, r0, lsl #6
     3ac:	0003649f 	muleq	r3, pc, r4	; <UNPREDICTABLE>
     3b0:	00036800 	andeq	r6, r3, r0, lsl #16
     3b4:	50000100 	andpl	r0, r0, r0, lsl #2
     3b8:	00000368 	andeq	r0, r0, r8, ror #6
     3bc:	0000036c 	andeq	r0, r0, ip, ror #6
     3c0:	01f30004 	mvnseq	r0, r4
     3c4:	036c9f50 	cmneq	ip, #80, 30	; 0x140
     3c8:	03700000 	cmneq	r0, #0
     3cc:	00010000 	andeq	r0, r1, r0
     3d0:	00037050 	andeq	r7, r3, r0, asr r0
     3d4:	00037800 	andeq	r7, r3, r0, lsl #16
     3d8:	f3000400 	vshl.u8	d0, d0, d0
     3dc:	009f5001 	addseq	r5, pc, r1
     3e0:	00000000 	andeq	r0, r0, r0
     3e4:	08000000 	stmdaeq	r0, {}	; <UNPREDICTABLE>
     3e8:	58000003 	stmdapl	r0, {r0, r1}
     3ec:	01000003 	tsteq	r0, r3
     3f0:	03585100 	cmpeq	r8, #0, 2
     3f4:	03640000 	cmneq	r4, #0
     3f8:	00040000 	andeq	r0, r4, r0
     3fc:	9f5101f3 	svcls	0x005101f3
     400:	00000364 	andeq	r0, r0, r4, ror #6
     404:	00000378 	andeq	r0, r0, r8, ror r3
     408:	00510001 	subseq	r0, r1, r1
     40c:	00000000 	andeq	r0, r0, r0
     410:	14000000 	strne	r0, [r0], #-0
     414:	34000003 	strcc	r0, [r0], #-3
     418:	01000003 	tsteq	r0, r3
     41c:	03345300 	teqeq	r4, #0, 6
     420:	03400000 	movteq	r0, #0
     424:	000a0000 	andeq	r0, sl, r0
     428:	0c060070 	stceq	0, cr0, [r6], {112}	; 0x70
     42c:	00ffffff 	ldrshteq	pc, [pc], #255	; <UNPREDICTABLE>
     430:	03409f1a 	movteq	r9, #3866	; 0xf1a
     434:	03440000 	movteq	r0, #16384	; 0x4000
     438:	000b0000 	andeq	r0, fp, r0
     43c:	065001f3 			; <UNDEFINED> instruction: 0x065001f3
     440:	ffffff0c 			; <UNDEFINED> instruction: 0xffffff0c
     444:	489f1a00 	ldmmi	pc, {r9, fp, ip}	; <UNPREDICTABLE>
     448:	5b000003 	blpl	45c <__code_start__-0x7ba4>
     44c:	01000003 	tsteq	r0, r3
     450:	03645300 	cmneq	r4, #0, 6
     454:	03680000 	cmneq	r8, #0
     458:	000a0000 	andeq	r0, sl, r0
     45c:	0c060070 	stceq	0, cr0, [r6], {112}	; 0x70
     460:	00ffffff 	ldrshteq	pc, [pc], #255	; <UNPREDICTABLE>
     464:	03689f1a 	cmneq	r8, #26, 30	; 0x68
     468:	036c0000 	cmneq	ip, #0
     46c:	000b0000 	andeq	r0, fp, r0
     470:	065001f3 			; <UNDEFINED> instruction: 0x065001f3
     474:	ffffff0c 			; <UNDEFINED> instruction: 0xffffff0c
     478:	6c9f1a00 	vldmiavs	pc, {s2-s1}
     47c:	78000003 	stmdavc	r0, {r0, r1}
     480:	01000003 	tsteq	r0, r3
     484:	00005300 	andeq	r5, r0, r0, lsl #6
	...
     490:	00240000 	eoreq	r0, r4, r0
     494:	00010000 	andeq	r0, r1, r0
     498:	00002450 	andeq	r2, r0, r0, asr r4
     49c:	0001ac00 	andeq	sl, r1, r0, lsl #24
     4a0:	f3000400 	vshl.u8	d0, d0, d0
     4a4:	009f5001 	addseq	r5, pc, r1
	...
     4b0:	28000000 	stmdacs	r0, {}	; <UNPREDICTABLE>
     4b4:	01000000 	mrseq	r0, (UNDEF: 0)
     4b8:	00285100 	eoreq	r5, r8, r0, lsl #2
     4bc:	01780000 	cmneq	r8, r0
     4c0:	00010000 	andeq	r0, r1, r0
     4c4:	00017855 	andeq	r7, r1, r5, asr r8
     4c8:	0001ac00 	andeq	sl, r1, r0, lsl #24
     4cc:	f3000400 	vshl.u8	d0, d0, d0
     4d0:	009f5101 	addseq	r5, pc, r1, lsl #2
	...
     4dc:	2c000000 	stccs	0, cr0, [r0], {-0}
     4e0:	01000000 	mrseq	r0, (UNDEF: 0)
     4e4:	002c5200 	eoreq	r5, ip, r0, lsl #4
     4e8:	01ac0000 			; <UNDEFINED> instruction: 0x01ac0000
     4ec:	00040000 	andeq	r0, r4, r0
     4f0:	9f5201f3 	svcls	0x005201f3
	...
     4fc:	00000068 	andeq	r0, r0, r8, rrx
     500:	00000178 	andeq	r0, r0, r8, ror r1
     504:	00540001 	subseq	r0, r4, r1
     508:	00000000 	andeq	r0, r0, r0
     50c:	38000000 	stmdacc	r0, {}	; <UNPREDICTABLE>
     510:	3c000000 	stccc	0, cr0, [r0], {-0}
     514:	01000000 	mrseq	r0, (UNDEF: 0)
     518:	00005300 	andeq	r5, r0, r0, lsl #6
     51c:	00000000 	andeq	r0, r0, r0
     520:	01ac0000 			; <UNDEFINED> instruction: 0x01ac0000
     524:	01e80000 	mvneq	r0, r0
     528:	00010000 	andeq	r0, r1, r0
     52c:	0001e850 	andeq	lr, r1, r0, asr r8
     530:	00062c00 	andeq	r2, r6, r0, lsl #24
     534:	54000100 	strpl	r0, [r0], #-256	; 0x100
     538:	0000062c 	andeq	r0, r0, ip, lsr #12
     53c:	0000068c 	andeq	r0, r0, ip, lsl #13
     540:	01f30004 	mvnseq	r0, r4
     544:	00009f50 	andeq	r9, r0, r0, asr pc
     548:	00000000 	andeq	r0, r0, r0
     54c:	01bc0000 			; <UNDEFINED> instruction: 0x01bc0000
     550:	05080000 	streq	r0, [r8, #-0]
     554:	00010000 	andeq	r0, r1, r0
     558:	00000058 	andeq	r0, r0, r8, asr r0
     55c:	00000000 	andeq	r0, r0, r0
     560:	0002c000 	andeq	ip, r2, r0
     564:	00050800 	andeq	r0, r5, r0, lsl #16
     568:	58000100 	stmdapl	r0, {r8}
	...
     574:	000003e0 	andeq	r0, r0, r0, ror #7
     578:	0000062c 	andeq	r0, r0, ip, lsr #12
     57c:	00550001 	subseq	r0, r5, r1
     580:	00000000 	andeq	r0, r0, r0
     584:	04000000 	streq	r0, [r0], #-0
     588:	08000005 	stmdaeq	r0, {r0, r2}
     58c:	01000005 	tsteq	r0, r5
     590:	00005800 	andeq	r5, r0, r0, lsl #16
     594:	00000000 	andeq	r0, r0, r0
     598:	05740000 	ldrbeq	r0, [r4, #-0]!
     59c:	05780000 	ldrbeq	r0, [r8, #-0]!
     5a0:	00010000 	andeq	r0, r1, r0
     5a4:	00000053 	andeq	r0, r0, r3, asr r0
     5a8:	00000000 	andeq	r0, r0, r0
     5ac:	00068c00 	andeq	r8, r6, r0, lsl #24
     5b0:	00069000 	andeq	r9, r6, r0
     5b4:	50000100 	andpl	r0, r0, r0, lsl #2
     5b8:	00000690 	muleq	r0, r0, r6
     5bc:	00000694 	muleq	r0, r4, r6
     5c0:	01f30004 	mvnseq	r0, r4
     5c4:	00009f50 	andeq	r9, r0, r0, asr pc
     5c8:	00000000 	andeq	r0, r0, r0
     5cc:	06bc0000 	ldrteq	r0, [ip], r0
     5d0:	06c70000 	strbeq	r0, [r7], r0
     5d4:	00010000 	andeq	r0, r1, r0
     5d8:	0006c750 	andeq	ip, r6, r0, asr r7
     5dc:	00070800 	andeq	r0, r7, r0, lsl #16
     5e0:	54000100 	strpl	r0, [r0], #-256	; 0x100
	...
     5ec:	0000002c 	andeq	r0, r0, ip, lsr #32
     5f0:	00000038 	andeq	r0, r0, r8, lsr r0
     5f4:	38500001 	ldmdacc	r0, {r0}^
     5f8:	48000000 	stmdami	r0, {}	; <UNPREDICTABLE>
     5fc:	01000000 	mrseq	r0, (UNDEF: 0)
     600:	00485500 	subeq	r5, r8, r0, lsl #10
     604:	00580000 	subseq	r0, r8, r0
     608:	00010000 	andeq	r0, r1, r0
     60c:	00000050 	andeq	r0, r0, r0, asr r0
	...
     618:	00000b00 	andeq	r0, r0, r0, lsl #22
     61c:	50000100 	andpl	r0, r0, r0, lsl #2
     620:	0000000b 	andeq	r0, r0, fp
     624:	00000014 	andeq	r0, r0, r4, lsl r0
     628:	00540001 	subseq	r0, r4, r1
	...
     634:	10000000 	andne	r0, r0, r0
     638:	01000000 	mrseq	r0, (UNDEF: 0)
     63c:	00105000 	andseq	r5, r0, r0
     640:	00340000 	eorseq	r0, r4, r0
     644:	00010000 	andeq	r0, r1, r0
     648:	00000054 	andeq	r0, r0, r4, asr r0
	...
     654:	00000400 	andeq	r0, r0, r0, lsl #8
     658:	50000100 	andpl	r0, r0, r0, lsl #2
     65c:	00000004 	andeq	r0, r0, r4
     660:	0000000c 	andeq	r0, r0, ip
     664:	30700003 	rsbscc	r0, r0, r3
     668:	00000c9f 	muleq	r0, pc, ip	; <UNPREDICTABLE>
     66c:	00001400 	andeq	r1, r0, r0, lsl #8
     670:	f3000400 	vshl.u8	d0, d0, d0
     674:	009f5001 	addseq	r5, pc, r1
     678:	00000000 	andeq	r0, r0, r0
     67c:	14000000 	strne	r0, [r0], #-0
     680:	20000000 	andcs	r0, r0, r0
     684:	01000000 	mrseq	r0, (UNDEF: 0)
     688:	00205000 	eoreq	r5, r0, r0
     68c:	002c0000 	eoreq	r0, ip, r0
     690:	00030000 	andeq	r0, r3, r0
     694:	2c9f0170 	ldfcss	f0, [pc], {112}	; 0x70
     698:	40000000 	andmi	r0, r0, r0
     69c:	01000000 	mrseq	r0, (UNDEF: 0)
     6a0:	00005000 	andeq	r5, r0, r0
     6a4:	00000000 	andeq	r0, r0, r0
     6a8:	00140000 	andseq	r0, r4, r0
     6ac:	00180000 	andseq	r0, r8, r0
     6b0:	00010000 	andeq	r0, r1, r0
     6b4:	00001851 	andeq	r1, r0, r1, asr r8
     6b8:	00004000 	andeq	r4, r0, r0
     6bc:	f3000400 	vshl.u8	d0, d0, d0
     6c0:	009f5101 	addseq	r5, pc, r1, lsl #2
     6c4:	00000000 	andeq	r0, r0, r0
     6c8:	40000000 	andmi	r0, r0, r0
     6cc:	60000000 	andvs	r0, r0, r0
     6d0:	01000000 	mrseq	r0, (UNDEF: 0)
     6d4:	00605000 	rsbeq	r5, r0, r0
     6d8:	006c0000 	rsbeq	r0, ip, r0
     6dc:	00030000 	andeq	r0, r3, r0
     6e0:	6c9f0171 	ldfvss	f0, [pc], {113}	; 0x71
     6e4:	74000000 	strvc	r0, [r0], #-0
     6e8:	01000000 	mrseq	r0, (UNDEF: 0)
     6ec:	00745100 	rsbseq	r5, r4, r0, lsl #2
     6f0:	00800000 	addeq	r0, r0, r0
     6f4:	00030000 	andeq	r0, r3, r0
     6f8:	009f0171 	addseq	r0, pc, r1, ror r1	; <UNPREDICTABLE>
     6fc:	00000000 	andeq	r0, r0, r0
     700:	40000000 	andmi	r0, r0, r0
     704:	50000000 	andpl	r0, r0, r0
     708:	01000000 	mrseq	r0, (UNDEF: 0)
     70c:	00505100 	subseq	r5, r0, r0, lsl #2
     710:	00800000 	addeq	r0, r0, r0
     714:	00040000 	andeq	r0, r4, r0
     718:	9f5101f3 	svcls	0x005101f3
	...
     724:	00000040 	andeq	r0, r0, r0, asr #32
     728:	00000058 	andeq	r0, r0, r8, asr r0
     72c:	58520001 	ldmdapl	r2, {r0}^
     730:	64000000 	strvs	r0, [r0], #-0
     734:	01000000 	mrseq	r0, (UNDEF: 0)
     738:	00645200 	rsbeq	r5, r4, r0, lsl #4
     73c:	00680000 	rsbeq	r0, r8, r0
     740:	00030000 	andeq	r0, r3, r0
     744:	689f0172 	ldmvs	pc, {r1, r4, r5, r6, r8}	; <UNPREDICTABLE>
     748:	80000000 	andhi	r0, r0, r0
     74c:	01000000 	mrseq	r0, (UNDEF: 0)
     750:	00005200 	andeq	r5, r0, r0, lsl #4
     754:	00000000 	andeq	r0, r0, r0
     758:	00400000 	subeq	r0, r0, r0
     75c:	00540000 	subseq	r0, r4, r0
     760:	00010000 	andeq	r0, r1, r0
     764:	00005453 	andeq	r5, r0, r3, asr r4
     768:	00007800 	andeq	r7, r0, r0, lsl #16
     76c:	53000100 	movwpl	r0, #256	; 0x100
	...
     778:	00000048 	andeq	r0, r0, r8, asr #32
     77c:	00000060 	andeq	r0, r0, r0, rrx
     780:	605c0001 	subsvs	r0, ip, r1
     784:	80000000 	andhi	r0, r0, r0
     788:	0a000000 	beq	790 <__code_start__-0x7870>
     78c:	5201f300 	andpl	pc, r1, #0, 6
     790:	1c5301f3 	ldfnee	f0, [r3], {243}	; 0xf3
     794:	009f0123 	addseq	r0, pc, r3, lsr #2
     798:	00000000 	andeq	r0, r0, r0
     79c:	80000000 	andhi	r0, r0, r0
     7a0:	a4000000 	strge	r0, [r0], #-0
     7a4:	01000000 	mrseq	r0, (UNDEF: 0)
     7a8:	00a45000 	adceq	r5, r4, r0
     7ac:	01180000 	tsteq	r8, r0
     7b0:	00030000 	andeq	r0, r3, r0
     7b4:	189f0270 	ldmne	pc, {r4, r5, r6, r9}	; <UNPREDICTABLE>
     7b8:	3c000001 	stccc	0, cr0, [r0], {1}
     7bc:	04000002 	streq	r0, [r0], #-2
     7c0:	5001f300 	andpl	pc, r1, r0, lsl #6
     7c4:	0000009f 	muleq	r0, pc, r0	; <UNPREDICTABLE>
     7c8:	00000000 	andeq	r0, r0, r0
     7cc:	00008000 	andeq	r8, r0, r0
     7d0:	0000f000 	andeq	pc, r0, r0
     7d4:	51000100 	mrspl	r0, (UNDEF: 16)
     7d8:	000000f0 	strdeq	r0, [r0], -r0	; <UNPREDICTABLE>
     7dc:	00000160 	andeq	r0, r0, r0, ror #2
     7e0:	60550001 	subsvs	r0, r5, r1
     7e4:	6c000001 	stcvs	0, cr0, [r0], {1}
     7e8:	01000001 	tsteq	r0, r1
     7ec:	016c5100 	cmneq	ip, r0, lsl #2
     7f0:	01a00000 	moveq	r0, r0
     7f4:	00010000 	andeq	r0, r1, r0
     7f8:	0001a055 	andeq	sl, r1, r5, asr r0
     7fc:	0001b400 	andeq	fp, r1, r0, lsl #8
     800:	51000100 	mrspl	r0, (UNDEF: 16)
     804:	000001b4 			; <UNDEFINED> instruction: 0x000001b4
     808:	000001d4 	ldrdeq	r0, [r0], -r4
     80c:	d4550001 	ldrble	r0, [r5], #-1
     810:	d7000001 	strle	r0, [r0, -r1]
     814:	01000001 	tsteq	r0, r1
     818:	01d75100 	bicseq	r5, r7, r0, lsl #2
     81c:	021c0000 	andseq	r0, ip, #0
     820:	00010000 	andeq	r0, r1, r0
     824:	00021c55 	andeq	r1, r2, r5, asr ip
     828:	00023c00 	andeq	r3, r2, r0, lsl #24
     82c:	f3000400 	vshl.u8	d0, d0, d0
     830:	009f5101 	addseq	r5, pc, r1, lsl #2
     834:	00000000 	andeq	r0, r0, r0
     838:	80000000 	andhi	r0, r0, r0
     83c:	94000000 	strls	r0, [r0], #-0
     840:	01000000 	mrseq	r0, (UNDEF: 0)
     844:	00945200 	addseq	r5, r4, r0, lsl #4
     848:	021c0000 	andseq	r0, ip, #0
     84c:	00010000 	andeq	r0, r1, r0
     850:	00021c54 	andeq	r1, r2, r4, asr ip
     854:	00023c00 	andeq	r3, r2, r0, lsl #24
     858:	f3000400 	vshl.u8	d0, d0, d0
     85c:	009f5201 	addseq	r5, pc, r1, lsl #4
     860:	00000000 	andeq	r0, r0, r0
     864:	80000000 	andhi	r0, r0, r0
     868:	00000000 	andeq	r0, r0, r0
     86c:	01000001 	tsteq	r0, r1
     870:	01045300 	mrseq	r5, LR_abt
     874:	01080000 	mrseq	r0, (UNDEF: 8)
     878:	00010000 	andeq	r0, r1, r0
     87c:	00016053 	andeq	r6, r1, r3, asr r0
     880:	00016400 	andeq	r6, r1, r0, lsl #8
     884:	53000100 	movwpl	r0, #256	; 0x100
     888:	00000164 	andeq	r0, r0, r4, ror #2
     88c:	0000016c 	andeq	r0, r0, ip, ror #2
     890:	6c5c0001 	mrrcvs	0, 0, r0, ip, cr1
     894:	a0000001 	andge	r0, r0, r1
     898:	04000001 	streq	r0, [r0], #-1
     89c:	5301f300 	movwpl	pc, #4864	; 0x1300	; <UNPREDICTABLE>
     8a0:	0001a09f 	muleq	r1, pc, r0	; <UNPREDICTABLE>
     8a4:	0001b000 	andeq	fp, r1, r0
     8a8:	53000100 	movwpl	r0, #256	; 0x100
     8ac:	000001b0 			; <UNDEFINED> instruction: 0x000001b0
     8b0:	000001b4 			; <UNDEFINED> instruction: 0x000001b4
     8b4:	b45c0001 	ldrblt	r0, [ip], #-1
     8b8:	d4000001 	strle	r0, [r0], #-1
     8bc:	04000001 	streq	r0, [r0], #-1
     8c0:	5301f300 	movwpl	pc, #4864	; 0x1300	; <UNPREDICTABLE>
     8c4:	0001d49f 	muleq	r1, pc, r4	; <UNPREDICTABLE>
     8c8:	0001d700 	andeq	sp, r1, r0, lsl #14
     8cc:	53000100 	movwpl	r0, #256	; 0x100
     8d0:	000001d7 	ldrdeq	r0, [r0], -r7
     8d4:	000001f8 	strdeq	r0, [r0], -r8
     8d8:	01f30004 	mvnseq	r0, r4
     8dc:	00009f53 	andeq	r9, r0, r3, asr pc
     8e0:	00000000 	andeq	r0, r0, r0
     8e4:	00800000 	addeq	r0, r0, r0
     8e8:	009c0000 	addseq	r0, ip, r0
     8ec:	00020000 	andeq	r0, r2, r0
     8f0:	009c0091 	umullseq	r0, ip, r1, r0
     8f4:	01d70000 	bicseq	r0, r7, r0
     8f8:	00010000 	andeq	r0, r1, r0
     8fc:	0001f852 	andeq	pc, r1, r2, asr r8	; <UNPREDICTABLE>
     900:	0001ff00 	andeq	pc, r1, r0, lsl #30
     904:	52000100 	andpl	r0, r0, #0, 2
	...
     910:	0000009c 	muleq	r0, ip, r0
     914:	0000010c 	andeq	r0, r0, ip, lsl #2
     918:	a0910004 	addsge	r0, r1, r4
     91c:	010c9f7f 	tsteq	ip, pc, ror pc
     920:	01180000 	tsteq	r8, r0
     924:	00010000 	andeq	r0, r1, r0
     928:	00011851 	andeq	r1, r1, r1, asr r8
     92c:	00011c00 	andeq	r1, r1, r0, lsl #24
     930:	50000100 	andpl	r0, r0, r0, lsl #2
     934:	0000011c 	andeq	r0, r0, ip, lsl r1
     938:	00000120 	andeq	r0, r0, r0, lsr #2
     93c:	20510001 	subscs	r0, r1, r1
     940:	60000001 	andvs	r0, r0, r1
     944:	01000001 	tsteq	r0, r1
     948:	01605000 	cmneq	r0, r0
     94c:	01640000 	cmneq	r4, r0
     950:	00040000 	andeq	r0, r4, r0
     954:	9f7fa091 	svcls	0x007fa091
     958:	00000164 	andeq	r0, r0, r4, ror #2
     95c:	0000016c 	andeq	r0, r0, ip, ror #2
     960:	6c530001 	mrrcvs	0, 0, r0, r3, cr1
     964:	70000001 	andvc	r0, r0, r1
     968:	01000001 	tsteq	r0, r1
     96c:	01705000 	cmneq	r0, r0
     970:	01740000 	cmneq	r4, r0
     974:	00010000 	andeq	r0, r1, r0
     978:	00017453 	andeq	r7, r1, r3, asr r4
     97c:	00018800 	andeq	r8, r1, r0, lsl #16
     980:	50000100 	andpl	r0, r0, r0, lsl #2
     984:	00000188 	andeq	r0, r0, r8, lsl #3
     988:	00000194 	muleq	r0, r4, r1
     98c:	01700003 	cmneq	r0, r3
     990:	0001949f 	muleq	r1, pc, r4	; <UNPREDICTABLE>
     994:	0001a000 	andeq	sl, r1, r0
     998:	50000100 	andpl	r0, r0, r0, lsl #2
     99c:	000001a0 	andeq	r0, r0, r0, lsr #3
     9a0:	000001a8 	andeq	r0, r0, r8, lsr #3
     9a4:	a1910004 	orrsge	r0, r1, r4
     9a8:	01a89f7f 			; <UNDEFINED> instruction: 0x01a89f7f
     9ac:	01ac0000 			; <UNDEFINED> instruction: 0x01ac0000
     9b0:	00010000 	andeq	r0, r1, r0
     9b4:	0001ac50 	andeq	sl, r1, r0, asr ip
     9b8:	0001b000 	andeq	fp, r1, r0
     9bc:	91000400 	tstls	r0, r0, lsl #8
     9c0:	b09f7fa0 	addslt	r7, pc, r0, lsr #31
     9c4:	b8000001 	stmdalt	r0, {r0}
     9c8:	01000001 	tsteq	r0, r1
     9cc:	01b85300 			; <UNDEFINED> instruction: 0x01b85300
     9d0:	01d40000 	bicseq	r0, r4, r0
     9d4:	00010000 	andeq	r0, r1, r0
     9d8:	0001d450 	andeq	sp, r1, r0, asr r4
     9dc:	0001f800 	andeq	pc, r1, r0, lsl #16
     9e0:	91000400 	tstls	r0, r0, lsl #8
     9e4:	f89f7fa0 			; <UNDEFINED> instruction: 0xf89f7fa0
     9e8:	ff000001 			; <UNDEFINED> instruction: 0xff000001
     9ec:	01000001 	tsteq	r0, r1
     9f0:	00005000 	andeq	r5, r0, r0
     9f4:	00000000 	andeq	r0, r0, r0
     9f8:	00a00000 	adceq	r0, r0, r0
     9fc:	00ec0000 	rsceq	r0, ip, r0
     a00:	00010000 	andeq	r0, r1, r0
     a04:	0000ec5c 	andeq	lr, r0, ip, asr ip
     a08:	00010000 	andeq	r0, r1, r0
     a0c:	53000100 	movwpl	r0, #256	; 0x100
     a10:	00000100 	andeq	r0, r0, r0, lsl #2
     a14:	00000104 	andeq	r0, r0, r4, lsl #2
     a18:	045c0001 	ldrbeq	r0, [ip], #-1
     a1c:	08000001 	stmdaeq	r0, {r0}
     a20:	01000001 	tsteq	r0, r1
     a24:	01085300 	mrseq	r5, (UNDEF: 56)
     a28:	01600000 	cmneq	r0, r0
     a2c:	00010000 	andeq	r0, r1, r0
     a30:	0001605c 	andeq	r6, r1, ip, asr r0
     a34:	00016400 	andeq	r6, r1, r0, lsl #8
     a38:	53000100 	movwpl	r0, #256	; 0x100
     a3c:	00000164 	andeq	r0, r0, r4, ror #2
     a40:	00000180 	andeq	r0, r0, r0, lsl #3
     a44:	805c0001 	subshi	r0, ip, r1
     a48:	84000001 	strhi	r0, [r0], #-1
     a4c:	05000001 	streq	r0, [r0, #-1]
     a50:	34007c00 	strcc	r7, [r0], #-3072	; 0xc00
     a54:	01849f25 	orreq	r9, r4, r5, lsr #30
     a58:	01a00000 	moveq	r0, r0
     a5c:	00010000 	andeq	r0, r1, r0
     a60:	0001a05c 	andeq	sl, r1, ip, asr r0
     a64:	0001b000 	andeq	fp, r1, r0
     a68:	53000100 	movwpl	r0, #256	; 0x100
     a6c:	000001b0 			; <UNDEFINED> instruction: 0x000001b0
     a70:	000001c4 	andeq	r0, r0, r4, asr #3
     a74:	c45c0001 	ldrbgt	r0, [ip], #-1
     a78:	cc000001 	stcgt	0, cr0, [r0], {1}
     a7c:	05000001 	streq	r0, [r0, #-1]
     a80:	31007c00 	tstcc	r0, r0, lsl #24
     a84:	01cc9f25 	biceq	r9, ip, r5, lsr #30
     a88:	01d40000 	bicseq	r0, r4, r0
     a8c:	00010000 	andeq	r0, r1, r0
     a90:	0001d45c 	andeq	sp, r1, ip, asr r4
     a94:	0001d700 	andeq	sp, r1, r0, lsl #14
     a98:	53000100 	movwpl	r0, #256	; 0x100
     a9c:	000001d7 	ldrdeq	r0, [r0], -r7
     aa0:	000001f8 	strdeq	r0, [r0], -r8
     aa4:	01f30004 	mvnseq	r0, r4
     aa8:	01f89f53 	mvnseq	r9, r3, asr pc
     aac:	01ff0000 	mvnseq	r0, r0
     ab0:	00010000 	andeq	r0, r1, r0
     ab4:	0000005c 	andeq	r0, r0, ip, asr r0
     ab8:	00000000 	andeq	r0, r0, r0
     abc:	0000ec00 	andeq	lr, r0, r0, lsl #24
     ac0:	0000fc00 	andeq	pc, r0, r0, lsl #24
     ac4:	30000200 	andcc	r0, r0, r0, lsl #4
     ac8:	0000fc9f 	muleq	r0, pc, ip	; <UNPREDICTABLE>
     acc:	00010400 	andeq	r0, r1, r0, lsl #8
     ad0:	31000200 	mrscc	r0, R8_usr
     ad4:	0001049f 	muleq	r1, pc, r4	; <UNPREDICTABLE>
     ad8:	00010800 	andeq	r0, r1, r0, lsl #16
     adc:	30000200 	andcc	r0, r0, r0, lsl #4
     ae0:	0000009f 	muleq	r0, pc, r0	; <UNPREDICTABLE>
     ae4:	00000000 	andeq	r0, r0, r0
     ae8:	00023c00 	andeq	r3, r2, r0, lsl #24
     aec:	00024f00 	andeq	r4, r2, r0, lsl #30
     af0:	50000100 	andpl	r0, r0, r0, lsl #2
     af4:	0000024f 	andeq	r0, r0, pc, asr #4
     af8:	00000270 	andeq	r0, r0, r0, ror r2
     afc:	01f30004 	mvnseq	r0, r4
     b00:	02709f50 	rsbseq	r9, r0, #80, 30	; 0x140
     b04:	02a40000 	adceq	r0, r4, #0
     b08:	00010000 	andeq	r0, r1, r0
     b0c:	00000050 	andeq	r0, r0, r0, asr r0
     b10:	00000000 	andeq	r0, r0, r0
     b14:	00023c00 	andeq	r3, r2, r0, lsl #24
     b18:	00024f00 	andeq	r4, r2, r0, lsl #30
     b1c:	51000100 	mrspl	r0, (UNDEF: 16)
     b20:	0000024f 	andeq	r0, r0, pc, asr #4
     b24:	00000270 	andeq	r0, r0, r0, ror r2
     b28:	01f30004 	mvnseq	r0, r4
     b2c:	02709f51 	rsbseq	r9, r0, #324	; 0x144
     b30:	02a40000 	adceq	r0, r4, #0
     b34:	00010000 	andeq	r0, r1, r0
     b38:	00000051 	andeq	r0, r0, r1, asr r0
     b3c:	00000000 	andeq	r0, r0, r0
     b40:	0002a400 	andeq	sl, r2, r0, lsl #8
     b44:	0002d400 	andeq	sp, r2, r0, lsl #8
     b48:	50000100 	andpl	r0, r0, r0, lsl #2
     b4c:	000002d4 	ldrdeq	r0, [r0], -r4
     b50:	00000558 	andeq	r0, r0, r8, asr r5
     b54:	585b0001 	ldmdapl	fp, {r0}^
     b58:	78000005 	stmdavc	r0, {r0, r2}
     b5c:	04000005 	streq	r0, [r0], #-5
     b60:	5001f300 	andpl	pc, r1, r0, lsl #6
     b64:	0000009f 	muleq	r0, pc, r0	; <UNPREDICTABLE>
     b68:	00000000 	andeq	r0, r0, r0
     b6c:	0002a400 	andeq	sl, r2, r0, lsl #8
     b70:	0002bc00 	andeq	fp, r2, r0, lsl #24
     b74:	51000100 	mrspl	r0, (UNDEF: 16)
     b78:	000002bc 			; <UNDEFINED> instruction: 0x000002bc
     b7c:	000002d4 	ldrdeq	r0, [r0], -r4
     b80:	01710003 	cmneq	r1, r3
     b84:	0002d49f 	muleq	r2, pc, r4	; <UNPREDICTABLE>
     b88:	00057800 	andeq	r7, r5, r0, lsl #16
     b8c:	f3000400 	vshl.u8	d0, d0, d0
     b90:	009f5101 	addseq	r5, pc, r1, lsl #2
     b94:	00000000 	andeq	r0, r0, r0
     b98:	a4000000 	strge	r0, [r0], #-0
     b9c:	d4000002 	strle	r0, [r0], #-2
     ba0:	01000002 	tsteq	r0, r2
     ba4:	02d45200 	sbcseq	r5, r4, #0, 4
     ba8:	05580000 	ldrbeq	r0, [r8, #-0]
     bac:	00010000 	andeq	r0, r1, r0
     bb0:	00000056 	andeq	r0, r0, r6, asr r0
     bb4:	00000000 	andeq	r0, r0, r0
     bb8:	0002a400 	andeq	sl, r2, r0, lsl #8
     bbc:	0002c400 	andeq	ip, r2, r0, lsl #8
     bc0:	53000100 	movwpl	r0, #256	; 0x100
	...
     bcc:	000002b8 			; <UNDEFINED> instruction: 0x000002b8
     bd0:	000002d4 	ldrdeq	r0, [r0], -r4
     bd4:	d4500001 	ldrble	r0, [r0], #-1
     bd8:	d8000002 	stmdale	r0, {r1}
     bdc:	01000002 	tsteq	r0, r2
     be0:	02d85400 	sbcseq	r5, r8, #0, 8
     be4:	02e40000 	rsceq	r0, r4, #0
     be8:	00030000 	andeq	r0, r3, r0
     bec:	e49f0174 	ldr	r0, [pc], #372	; bf4 <__code_start__-0x740c>
     bf0:	f0000002 			; <UNDEFINED> instruction: 0xf0000002
     bf4:	01000002 	tsteq	r0, r2
     bf8:	02f05400 	rscseq	r5, r0, #0, 8
     bfc:	02fc0000 	rscseq	r0, ip, #0
     c00:	00030000 	andeq	r0, r3, r0
     c04:	fc9f0174 	ldc2	1, cr0, [pc], {116}	; 0x74
     c08:	0c000002 	stceq	0, cr0, [r0], {2}
     c0c:	01000005 	tsteq	r0, r5
     c10:	050c5400 	streq	r5, [ip, #-1024]	; 0x400
     c14:	05180000 	ldreq	r0, [r8, #-0]
     c18:	00030000 	andeq	r0, r3, r0
     c1c:	189f0174 	ldmne	pc, {r2, r4, r5, r6, r8}	; <UNPREDICTABLE>
     c20:	44000005 	strmi	r0, [r0], #-5
     c24:	01000005 	tsteq	r0, r5
     c28:	05445400 	strbeq	r5, [r4, #-1024]	; 0x400
     c2c:	05500000 	ldrbeq	r0, [r0, #-0]
     c30:	00010000 	andeq	r0, r1, r0
     c34:	00055050 	andeq	r5, r5, r0, asr r0
     c38:	00055800 	andeq	r5, r5, r0, lsl #16
     c3c:	74000300 	strvc	r0, [r0], #-768	; 0x300
     c40:	00009f01 	andeq	r9, r0, r1, lsl #30
     c44:	00000000 	andeq	r0, r0, r0
     c48:	02c00000 	sbceq	r0, r0, #0
     c4c:	05580000 	ldrbeq	r0, [r8, #-0]
     c50:	00010000 	andeq	r0, r1, r0
     c54:	00055858 	andeq	r5, r5, r8, asr r8
     c58:	00057800 	andeq	r7, r5, r0, lsl #16
     c5c:	f3000a00 	vpmax.u8	d0, d0, d0
     c60:	01f35101 	mvnseq	r5, r1, lsl #2
     c64:	1c312250 	lfmne	f2, 4, [r1], #-320	; 0xfffffec0
     c68:	0000009f 	muleq	r0, pc, r0	; <UNPREDICTABLE>
     c6c:	00000000 	andeq	r0, r0, r0
     c70:	0002c800 	andeq	ip, r2, r0, lsl #16
     c74:	0002d400 	andeq	sp, r2, r0, lsl #8
     c78:	52000100 	andpl	r0, r0, #0, 2
     c7c:	000002d4 	ldrdeq	r0, [r0], -r4
     c80:	00000578 	andeq	r0, r0, r8, ror r5
     c84:	cc910003 	ldcgt	0, cr0, [r1], {3}
     c88:	0000007e 	andeq	r0, r0, lr, ror r0
     c8c:	00000000 	andeq	r0, r0, r0
     c90:	00041000 	andeq	r1, r4, r0
     c94:	00041400 	andeq	r1, r4, r0, lsl #8
     c98:	50000100 	andpl	r0, r0, r0, lsl #2
     c9c:	00000438 	andeq	r0, r0, r8, lsr r4
     ca0:	0000043c 	andeq	r0, r0, ip, lsr r4
     ca4:	60500001 	subsvs	r0, r0, r1
     ca8:	64000004 	strvs	r0, [r0], #-4
     cac:	01000004 	tsteq	r0, r4
     cb0:	04885000 	streq	r5, [r8], #0
     cb4:	048c0000 	streq	r0, [ip], #0
     cb8:	00010000 	andeq	r0, r1, r0
     cbc:	00049450 	andeq	r9, r4, r0, asr r4
     cc0:	00049800 	andeq	r9, r4, r0, lsl #16
     cc4:	50000100 	andpl	r0, r0, r0, lsl #2
     cc8:	000004bc 			; <UNDEFINED> instruction: 0x000004bc
     ccc:	000004c0 	andeq	r0, r0, r0, asr #9
     cd0:	04500001 	ldrbeq	r0, [r0], #-1
     cd4:	2c000005 	stccs	0, cr0, [r0], {5}
     cd8:	01000005 	tsteq	r0, r5
     cdc:	00005000 	andeq	r5, r0, r0
     ce0:	00000000 	andeq	r0, r0, r0
     ce4:	03040000 	movweq	r0, #16384	; 0x4000
     ce8:	030c0000 	movweq	r0, #49152	; 0xc000
     cec:	00020000 	andeq	r0, r2, r0
     cf0:	030c9f30 	movweq	r9, #53040	; 0xcf30
     cf4:	03100000 	tsteq	r0, #0
     cf8:	00010000 	andeq	r0, r1, r0
     cfc:	00031c57 	andeq	r1, r3, r7, asr ip
     d00:	00052c00 	andeq	r2, r5, r0, lsl #24
     d04:	57000100 	strpl	r0, [r0, -r0, lsl #2]
	...
     d10:	00000004 	andeq	r0, r0, r4
     d14:	00000008 	andeq	r0, r0, r8
     d18:	00730007 	rsbseq	r0, r3, r7
     d1c:	2110000a 	tstcs	r0, sl
     d20:	0000089f 	muleq	r0, pc, r8	; <UNPREDICTABLE>
     d24:	00001000 	andeq	r1, r0, r0
     d28:	53000100 	movwpl	r0, #256	; 0x100
	...
     d34:	00000014 	andeq	r0, r0, r4, lsl r0
     d38:	00000018 	andeq	r0, r0, r8, lsl r0
     d3c:	00730007 	rsbseq	r0, r3, r7
     d40:	1aefff0b 	bne	ffc00974 <__bss_end__+0xffbf640c>
     d44:	0000189f 	muleq	r0, pc, r8	; <UNPREDICTABLE>
     d48:	00002000 	andeq	r2, r0, r0
     d4c:	53000100 	movwpl	r0, #256	; 0x100
	...
     d58:	00000014 	andeq	r0, r0, r4, lsl r0
     d5c:	0000001c 	andeq	r0, r0, ip, lsl r0
     d60:	04730003 	ldrbteq	r0, [r3], #-3
     d64:	00001c9f 	muleq	r0, pc, ip	; <UNPREDICTABLE>
     d68:	00002700 	andeq	r2, r0, r0, lsl #14
     d6c:	53000100 	movwpl	r0, #256	; 0x100
	...
     d7c:	0000000f 	andeq	r0, r0, pc
     d80:	0f500001 	svceq	0x00500001
     d84:	44000000 	strmi	r0, [r0], #-0
     d88:	01000000 	mrseq	r0, (UNDEF: 0)
     d8c:	00005400 	andeq	r5, r0, r0, lsl #8
	...
     d98:	000f0000 	andeq	r0, pc, r0
     d9c:	00010000 	andeq	r0, r1, r0
     da0:	00000f50 	andeq	r0, r0, r0, asr pc
     da4:	00004400 	andeq	r4, r0, r0, lsl #8
     da8:	54000100 	strpl	r0, [r0], #-256	; 0x100
	...
     db8:	0000000f 	andeq	r0, r0, pc
     dbc:	0f500001 	svceq	0x00500001
     dc0:	44000000 	strmi	r0, [r0], #-0
     dc4:	01000000 	mrseq	r0, (UNDEF: 0)
     dc8:	00005400 	andeq	r5, r0, r0, lsl #8
     dcc:	00000000 	andeq	r0, r0, r0
     dd0:	00340000 	eorseq	r0, r4, r0
     dd4:	00400000 	subeq	r0, r0, r0
     dd8:	00020000 	andeq	r0, r2, r0
     ddc:	00409f30 	subeq	r9, r0, r0, lsr pc
     de0:	006c0000 	rsbeq	r0, ip, r0
     de4:	00010000 	andeq	r0, r1, r0
     de8:	00000053 	andeq	r0, r0, r3, asr r0
     dec:	00000000 	andeq	r0, r0, r0
     df0:	00957c00 	addseq	r7, r5, r0, lsl #24
     df4:	00958000 	addseq	r8, r5, r0
     df8:	30000200 	andcc	r0, r0, r0, lsl #4
     dfc:	0095809f 	umullseq	r8, r5, pc, r0	; <UNPREDICTABLE>
     e00:	00958400 	addseq	r8, r5, r0, lsl #8
     e04:	50000100 	andpl	r0, r0, r0, lsl #2
	...
     e10:	00009594 	muleq	r0, r4, r5
     e14:	00009598 	muleq	r0, r8, r5
     e18:	9f300002 	svcls	0x00300002
     e1c:	00009598 	muleq	r0, r8, r5
     e20:	0000959c 	muleq	r0, ip, r5
     e24:	a0530001 	subsge	r0, r3, r1
     e28:	a8000095 	stmdage	r0, {r0, r2, r4, r7}
     e2c:	01000095 	swpeq	r0, r5, [r0]	; <UNPREDICTABLE>
     e30:	00005300 	andeq	r5, r0, r0, lsl #6
	...
     e3c:	00040000 	andeq	r0, r4, r0
     e40:	00010000 	andeq	r0, r1, r0
     e44:	00000450 	andeq	r0, r0, r0, asr r4
     e48:	00000c00 	andeq	r0, r0, r0, lsl #24
     e4c:	53000100 	movwpl	r0, #256	; 0x100
     e50:	0000000c 	andeq	r0, r0, ip
     e54:	00000010 	andeq	r0, r0, r0, lsl r0
     e58:	10500001 	subsne	r0, r0, r1
     e5c:	1c000000 	stcne	0, cr0, [r0], {-0}
     e60:	01000000 	mrseq	r0, (UNDEF: 0)
     e64:	00005300 	andeq	r5, r0, r0, lsl #6
     e68:	00000000 	andeq	r0, r0, r0
     e6c:	00400000 	subeq	r0, r0, r0
     e70:	00430000 	subeq	r0, r3, r0
     e74:	00010000 	andeq	r0, r1, r0
     e78:	00004350 	andeq	r4, r0, r0, asr r3
     e7c:	00004c00 	andeq	r4, r0, r0, lsl #24
     e80:	54000100 	strpl	r0, [r0], #-256	; 0x100
	...
     e8c:	0000004c 	andeq	r0, r0, ip, asr #32
     e90:	00000057 	andeq	r0, r0, r7, asr r0
     e94:	57500001 	ldrbpl	r0, [r0, -r1]
     e98:	70000000 	andvc	r0, r0, r0
     e9c:	01000000 	mrseq	r0, (UNDEF: 0)
     ea0:	00005500 	andeq	r5, r0, r0, lsl #10
     ea4:	00000000 	andeq	r0, r0, r0
     ea8:	00600000 	rsbeq	r0, r0, r0
     eac:	00640000 	rsbeq	r0, r4, r0
     eb0:	00010000 	andeq	r0, r1, r0
     eb4:	00000050 	andeq	r0, r0, r0, asr r0
     eb8:	00000000 	andeq	r0, r0, r0
     ebc:	00007000 	andeq	r7, r0, r0
     ec0:	00007c00 	andeq	r7, r0, r0, lsl #24
     ec4:	50000100 	andpl	r0, r0, r0, lsl #2
     ec8:	0000007c 	andeq	r0, r0, ip, ror r0
     ecc:	00000084 	andeq	r0, r0, r4, lsl #1
     ed0:	01f30004 	mvnseq	r0, r4
     ed4:	00009f50 	andeq	r9, r0, r0, asr pc
     ed8:	00000000 	andeq	r0, r0, r0
     edc:	00840000 	addeq	r0, r4, r0
     ee0:	00900000 	addseq	r0, r0, r0
     ee4:	00010000 	andeq	r0, r1, r0
     ee8:	00009050 	andeq	r9, r0, r0, asr r0
     eec:	00009800 	andeq	r9, r0, r0, lsl #16
     ef0:	f3000400 	vshl.u8	d0, d0, d0
     ef4:	009f5001 	addseq	r5, pc, r1
     ef8:	00000000 	andeq	r0, r0, r0
     efc:	38000000 	stmdacc	r0, {}	; <UNPREDICTABLE>
     f00:	43000001 	movwmi	r0, #1
     f04:	01000001 	tsteq	r0, r1
     f08:	01435000 	mrseq	r5, (UNDEF: 67)
     f0c:	01680000 	cmneq	r8, r0
     f10:	00010000 	andeq	r0, r1, r0
     f14:	00000054 	andeq	r0, r0, r4, asr r0
	...
     f20:	00000f00 	andeq	r0, r0, r0, lsl #30
     f24:	50000100 	andpl	r0, r0, r0, lsl #2
     f28:	0000000f 	andeq	r0, r0, pc
     f2c:	00000020 	andeq	r0, r0, r0, lsr #32
     f30:	00540001 	subseq	r0, r4, r1
	...
     f3c:	0f000000 	svceq	0x00000000
     f40:	01000000 	mrseq	r0, (UNDEF: 0)
     f44:	000f5100 	andeq	r5, pc, r0, lsl #2
     f48:	00200000 	eoreq	r0, r0, r0
     f4c:	00010000 	andeq	r0, r1, r0
     f50:	00000055 	andeq	r0, r0, r5, asr r0
     f54:	00000000 	andeq	r0, r0, r0
     f58:	0000ec00 	andeq	lr, r0, r0, lsl #24
     f5c:	00010400 	andeq	r0, r1, r0, lsl #8
     f60:	50000100 	andpl	r0, r0, r0, lsl #2
     f64:	00000104 	andeq	r0, r0, r4, lsl #2
     f68:	00000114 	andeq	r0, r0, r4, lsl r1
     f6c:	01f30004 	mvnseq	r0, r4
     f70:	01149f50 	tsteq	r4, r0, asr pc
     f74:	01180000 	tsteq	r8, r0
     f78:	00010000 	andeq	r0, r1, r0
     f7c:	00011850 	andeq	r1, r1, r0, asr r8
     f80:	00012000 	andeq	r2, r1, r0
     f84:	f3000400 	vshl.u8	d0, d0, d0
     f88:	009f5001 	addseq	r5, pc, r1
     f8c:	00000000 	andeq	r0, r0, r0
     f90:	f8000000 			; <UNDEFINED> instruction: 0xf8000000
     f94:	04000000 	streq	r0, [r0], #-0
     f98:	0b000001 	bleq	fa4 <__code_start__-0x705c>
     f9c:	35007000 	strcc	r7, [r0, #-0]
     fa0:	80b42325 	adcshi	r2, r4, r5, lsr #6
     fa4:	9f028180 	svcls	0x00028180
     fa8:	00000104 	andeq	r0, r0, r4, lsl #2
     fac:	00000107 	andeq	r0, r0, r7, lsl #2
     fb0:	07500001 	ldrbeq	r0, [r0, -r1]
     fb4:	14000001 	strne	r0, [r0], #-1
     fb8:	0c000001 	stceq	0, cr0, [r0], {1}
     fbc:	5001f300 	andpl	pc, r1, r0, lsl #6
     fc0:	b4232535 	strtlt	r2, [r3], #-1333	; 0x535
     fc4:	02818080 	addeq	r8, r1, #128	; 0x80
     fc8:	0000009f 	muleq	r0, pc, r0	; <UNPREDICTABLE>
     fcc:	00000000 	andeq	r0, r0, r0
     fd0:	0000fc00 	andeq	pc, r0, r0, lsl #24
     fd4:	00011400 	andeq	r1, r1, r0, lsl #8
     fd8:	54000100 	strpl	r0, [r0], #-256	; 0x100
	...
     fe4:	000000d0 	ldrdeq	r0, [r0], -r0	; <UNPREDICTABLE>
     fe8:	000000df 	ldrdeq	r0, [r0], -pc	; <UNPREDICTABLE>
     fec:	df500001 	svcle	0x00500001
     ff0:	e4000000 	str	r0, [r0], #-0
     ff4:	04000000 	streq	r0, [r0], #-0
     ff8:	5001f300 	andpl	pc, r1, r0, lsl #6
     ffc:	0000e49f 	muleq	r0, pc, r4	; <UNPREDICTABLE>
    1000:	0000e700 	andeq	lr, r0, r0, lsl #14
    1004:	50000100 	andpl	r0, r0, r0, lsl #2
    1008:	000000e7 	andeq	r0, r0, r7, ror #1
    100c:	000000ec 	andeq	r0, r0, ip, ror #1
    1010:	01f30004 	mvnseq	r0, r4
    1014:	00009f50 	andeq	r9, r0, r0, asr pc
    1018:	00000000 	andeq	r0, r0, r0
    101c:	00d00000 	sbcseq	r0, r0, r0
    1020:	00df0000 	sbcseq	r0, pc, r0
    1024:	00010000 	andeq	r0, r1, r0
    1028:	0000df51 	andeq	sp, r0, r1, asr pc
    102c:	0000e400 	andeq	lr, r0, r0, lsl #8
    1030:	f3000400 	vshl.u8	d0, d0, d0
    1034:	e49f5101 	ldr	r5, [pc], #257	; 103c <__code_start__-0x6fc4>
    1038:	e7000000 	str	r0, [r0, -r0]
    103c:	01000000 	mrseq	r0, (UNDEF: 0)
    1040:	00e75100 	rsceq	r5, r7, r0, lsl #2
    1044:	00ec0000 	rsceq	r0, ip, r0
    1048:	00040000 	andeq	r0, r4, r0
    104c:	9f5101f3 	svcls	0x005101f3
	...
    1058:	000000c0 	andeq	r0, r0, r0, asr #1
    105c:	000000cb 	andeq	r0, r0, fp, asr #1
    1060:	cb500001 	blgt	140106c <__bss_end__+0x13f6b04>
    1064:	d0000000 	andle	r0, r0, r0
    1068:	04000000 	streq	r0, [r0], #-0
    106c:	5001f300 	andpl	pc, r1, r0, lsl #6
    1070:	0000009f 	muleq	r0, pc, r0	; <UNPREDICTABLE>
    1074:	00000000 	andeq	r0, r0, r0
    1078:	00009c00 	andeq	r9, r0, r0, lsl #24
    107c:	0000b400 	andeq	fp, r0, r0, lsl #8
    1080:	50000100 	andpl	r0, r0, r0, lsl #2
    1084:	000000b4 	strheq	r0, [r0], -r4
    1088:	000000c0 	andeq	r0, r0, r0, asr #1
    108c:	01f30004 	mvnseq	r0, r4
    1090:	00009f50 	andeq	r9, r0, r0, asr pc
    1094:	00000000 	andeq	r0, r0, r0
    1098:	00780000 	rsbseq	r0, r8, r0
    109c:	00900000 	addseq	r0, r0, r0
    10a0:	00010000 	andeq	r0, r1, r0
    10a4:	00009050 	andeq	r9, r0, r0, asr r0
    10a8:	00009c00 	andeq	r9, r0, r0, lsl #24
    10ac:	f3000400 	vshl.u8	d0, d0, d0
    10b0:	009f5001 	addseq	r5, pc, r1
    10b4:	00000000 	andeq	r0, r0, r0
    10b8:	68000000 	stmdavs	r0, {}	; <UNPREDICTABLE>
    10bc:	73000000 	movwvc	r0, #0
    10c0:	01000000 	mrseq	r0, (UNDEF: 0)
    10c4:	00735000 	rsbseq	r5, r3, r0
    10c8:	00780000 	rsbseq	r0, r8, r0
    10cc:	00040000 	andeq	r0, r4, r0
    10d0:	9f5001f3 	svcls	0x005001f3
	...
    10e0:	00000048 	andeq	r0, r0, r8, asr #32
    10e4:	48500001 	ldmdami	r0, {r0}^
    10e8:	68000000 	stmdavs	r0, {}	; <UNPREDICTABLE>
    10ec:	04000000 	streq	r0, [r0], #-0
    10f0:	5001f300 	andpl	pc, r1, r0, lsl #6
    10f4:	0000009f 	muleq	r0, pc, r0	; <UNPREDICTABLE>
	...
    1100:	00004b00 	andeq	r4, r0, r0, lsl #22
    1104:	51000100 	mrspl	r0, (UNDEF: 16)
    1108:	0000004b 	andeq	r0, r0, fp, asr #32
    110c:	00000068 	andeq	r0, r0, r8, rrx
    1110:	01f30004 	mvnseq	r0, r4
    1114:	00009f51 	andeq	r9, r0, r1, asr pc
    1118:	00000000 	andeq	r0, r0, r0
    111c:	004c0000 	subeq	r0, ip, r0
    1120:	00540000 	subseq	r0, r4, r0
    1124:	00010000 	andeq	r0, r1, r0
    1128:	00005450 	andeq	r5, r0, r0, asr r4
    112c:	00005800 	andeq	r5, r0, r0, lsl #16
    1130:	75000900 	strvc	r0, [r0, #-2304]	; 0x900
    1134:	24007400 	strcs	r7, [r0], #-1024	; 0x400
    1138:	9f210071 	svcls	0x00210071
    113c:	00000058 	andeq	r0, r0, r8, asr r0
    1140:	0000005f 	andeq	r0, r0, pc, asr r0
    1144:	00510001 	subseq	r0, r1, r1
    1148:	00000000 	andeq	r0, r0, r0
    114c:	Address 0x000000000000114c is out of bounds.


Disassembly of section .debug_aranges:

00000000 <.debug_aranges>:
   0:	0000001c 	andeq	r0, r0, ip, lsl r0
   4:	00000002 	andeq	r0, r0, r2
   8:	00040000 	andeq	r0, r4, r0
   c:	00000000 	andeq	r0, r0, r0
  10:	00008020 	andeq	r8, r0, r0, lsr #32
  14:	000001a0 	andeq	r0, r0, r0, lsr #3
	...
  20:	0000001c 	andeq	r0, r0, ip, lsl r0
  24:	04580002 	ldrbeq	r0, [r8], #-2
  28:	00040000 	andeq	r0, r4, r0
  2c:	00000000 	andeq	r0, r0, r0
  30:	000081c0 	andeq	r8, r0, r0, asr #3
  34:	00000378 	andeq	r0, r0, r8, ror r3
	...
  40:	0000001c 	andeq	r0, r0, ip, lsl r0
  44:	10330002 	eorsne	r0, r3, r2
  48:	00040000 	andeq	r0, r4, r0
  4c:	00000000 	andeq	r0, r0, r0
  50:	00008670 	andeq	r8, r0, r0, ror r6
  54:	00000708 	andeq	r0, r0, r8, lsl #14
	...
  60:	0000001c 	andeq	r0, r0, ip, lsl r0
  64:	1eab0002 	cdpne	0, 10, cr0, cr11, cr2, {0}
  68:	00040000 	andeq	r0, r4, r0
  6c:	00000000 	andeq	r0, r0, r0
  70:	00008d78 	andeq	r8, r0, r8, ror sp
  74:	00000058 	andeq	r0, r0, r8, asr r0
	...
  80:	0000001c 	andeq	r0, r0, ip, lsl r0
  84:	20400002 	subcs	r0, r0, r2
  88:	00040000 	andeq	r0, r4, r0
  8c:	00000000 	andeq	r0, r0, r0
  90:	00008dd0 	ldrdeq	r8, [r0], -r0
  94:	0000003c 	andeq	r0, r0, ip, lsr r0
	...
  a0:	0000001c 	andeq	r0, r0, ip, lsl r0
  a4:	21570002 	cmpcs	r7, r2
  a8:	00040000 	andeq	r0, r4, r0
  ac:	00000000 	andeq	r0, r0, r0
  b0:	00008e0c 	andeq	r8, r0, ip, lsl #28
  b4:	00000034 	andeq	r0, r0, r4, lsr r0
	...
  c0:	0000001c 	andeq	r0, r0, ip, lsl r0
  c4:	22490002 	subcs	r0, r9, #2
  c8:	00040000 	andeq	r0, r4, r0
  cc:	00000000 	andeq	r0, r0, r0
  d0:	00008e40 	andeq	r8, r0, r0, asr #28
  d4:	00000578 	andeq	r0, r0, r8, ror r5
	...
  e0:	0000001c 	andeq	r0, r0, ip, lsl r0
  e4:	29320002 	ldmdbcs	r2!, {r1}
  e8:	00040000 	andeq	r0, r4, r0
  ec:	00000000 	andeq	r0, r0, r0
  f0:	000093b8 			; <UNDEFINED> instruction: 0x000093b8
  f4:	00000020 	andeq	r0, r0, r0, lsr #32
	...
 100:	0000001c 	andeq	r0, r0, ip, lsl r0
 104:	29ee0002 	stmibcs	lr!, {r1}^
 108:	00040000 	andeq	r0, r4, r0
 10c:	00000000 	andeq	r0, r0, r0
 110:	000093d8 	ldrdeq	r9, [r0], -r8
 114:	0000002c 	andeq	r0, r0, ip, lsr #32
	...
 120:	0000001c 	andeq	r0, r0, ip, lsl r0
 124:	2b010002 	blcs	40134 <__bss_end__+0x35bcc>
 128:	00040000 	andeq	r0, r4, r0
 12c:	00000000 	andeq	r0, r0, r0
 130:	00009404 	andeq	r9, r0, r4, lsl #8
 134:	00000038 	andeq	r0, r0, r8, lsr r0
	...
 140:	0000001c 	andeq	r0, r0, ip, lsl r0
 144:	2c140002 	ldccs	0, cr0, [r4], {2}
 148:	00040000 	andeq	r0, r4, r0
 14c:	00000000 	andeq	r0, r0, r0
 150:	0000943c 	andeq	r9, r0, ip, lsr r4
 154:	00000044 	andeq	r0, r0, r4, asr #32
	...
 160:	0000001c 	andeq	r0, r0, ip, lsl r0
 164:	2d560002 	ldclcs	0, cr0, [r6, #-8]
 168:	00040000 	andeq	r0, r4, r0
 16c:	00000000 	andeq	r0, r0, r0
 170:	00009480 	andeq	r9, r0, r0, lsl #9
 174:	00000044 	andeq	r0, r0, r4, asr #32
	...
 180:	0000001c 	andeq	r0, r0, ip, lsl r0
 184:	2e980002 	cdpcs	0, 9, cr0, cr8, cr2, {0}
 188:	00040000 	andeq	r0, r4, r0
 18c:	00000000 	andeq	r0, r0, r0
 190:	000094c4 	andeq	r9, r0, r4, asr #9
 194:	00000044 	andeq	r0, r0, r4, asr #32
	...
 1a0:	0000001c 	andeq	r0, r0, ip, lsl r0
 1a4:	2fda0002 	svccs	0x00da0002
 1a8:	00040000 	andeq	r0, r4, r0
 1ac:	00000000 	andeq	r0, r0, r0
 1b0:	00009508 	andeq	r9, r0, r8, lsl #10
 1b4:	00000008 	andeq	r0, r0, r8
	...
 1c0:	0000001c 	andeq	r0, r0, ip, lsl r0
 1c4:	30760002 	rsbscc	r0, r6, r2
 1c8:	00040000 	andeq	r0, r4, r0
 1cc:	00000000 	andeq	r0, r0, r0
 1d0:	00009510 	andeq	r9, r0, r0, lsl r5
 1d4:	0000006c 	andeq	r0, r0, ip, rrx
	...
 1e0:	0000001c 	andeq	r0, r0, ip, lsl r0
 1e4:	32510002 	subscc	r0, r1, #2
 1e8:	00040000 	andeq	r0, r4, r0
 1ec:	00000000 	andeq	r0, r0, r0
 1f0:	0000957c 	andeq	r9, r0, ip, ror r5
 1f4:	00000074 	andeq	r0, r0, r4, ror r0
	...
 200:	0000001c 	andeq	r0, r0, ip, lsl r0
 204:	34020002 	strcc	r0, [r2], #-2
 208:	00040000 	andeq	r0, r4, r0
 20c:	00000000 	andeq	r0, r0, r0
 210:	000095f0 	strdeq	r9, [r0], -r0
 214:	00000098 	muleq	r0, r8, r0
	...
 220:	0000001c 	andeq	r0, r0, ip, lsl r0
 224:	35fd0002 	ldrbcc	r0, [sp, #2]!
 228:	00040000 	andeq	r0, r4, r0
 22c:	00000000 	andeq	r0, r0, r0
 230:	000096ec 	andeq	r9, r0, ip, ror #13
 234:	00000178 	andeq	r0, r0, r8, ror r1
	...
 240:	0000001c 	andeq	r0, r0, ip, lsl r0
 244:	42c60002 	sbcmi	r0, r6, #2
 248:	00040000 	andeq	r0, r4, r0
 24c:	00000000 	andeq	r0, r0, r0
 250:	00009864 	andeq	r9, r0, r4, ror #16
 254:	00000120 	andeq	r0, r0, r0, lsr #2
	...

Disassembly of section .debug_line:

00000000 <.debug_line>:
       0:	00000155 	andeq	r0, r0, r5, asr r1
       4:	01100002 	tsteq	r0, r2
       8:	01020000 	mrseq	r0, (UNDEF: 2)
       c:	000d0efb 	strdeq	r0, [sp], -fp
      10:	01010101 	tsteq	r1, r1, lsl #2
      14:	01000000 	mrseq	r0, (UNDEF: 0)
      18:	74010000 	strvc	r0, [r1], #-0
      1c:	73747365 	cmnvc	r4, #-1811939327	; 0x94000001
      20:	00302e32 	eorseq	r2, r0, r2, lsr lr
      24:	752f002e 	strvc	r0, [pc, #-46]!	; fffffffe <__bss_end__+0xffff5a96>
      28:	6c2f7273 	sfmvs	f7, 4, [pc], #-460	; fffffe64 <__bss_end__+0xffff58fc>
      2c:	6c61636f 	stclvs	3, cr6, [r1], #-444	; 0xfffffe44
      30:	6c65432f 	stclvs	3, cr4, [r5], #-188	; 0xffffff44
      34:	2f72616c 	svccs	0x0072616c
      38:	2d6d7261 	sfmcs	f7, 2, [sp, #-388]!	; 0xfffffe7c
      3c:	656e6f6e 	strbvs	r6, [lr, #-3950]!	; 0xf6e
      40:	6261652d 	rsbvs	r6, r1, #188743680	; 0xb400000
      44:	2e342f69 	cdpcs	15, 3, cr2, cr4, cr9, {3}
      48:	2d332e38 	ldccs	14, cr2, [r3, #-224]!	; 0xffffff20
      4c:	37317363 	ldrcc	r7, [r1, -r3, ror #6]!
      50:	6c2f6530 	cfstr32vs	mvfx6, [pc], #-192	; ffffff98 <__bss_end__+0xffff5a30>
      54:	672f6269 	strvs	r6, [pc, -r9, ror #4]!
      58:	612f6363 	teqvs	pc, r3, ror #6
      5c:	6e2d6d72 	mcrvs	13, 1, r6, cr13, cr2, {3}
      60:	2d656e6f 	stclcs	14, cr6, [r5, #-444]!	; 0xfffffe44
      64:	69626165 	stmdbvs	r2!, {r0, r2, r5, r6, r8, sp, lr}^
      68:	382e342f 	stmdacc	lr!, {r0, r1, r2, r3, r5, sl, ip, sp}
      6c:	692f332e 	stmdbvs	pc!, {r1, r2, r3, r5, r8, r9, ip, sp}	; <UNPREDICTABLE>
      70:	756c636e 	strbvc	r6, [ip, #-878]!	; 0x36e
      74:	2f006564 	svccs	0x00006564
      78:	72657355 	rsbvc	r7, r5, #1409286145	; 0x54000001
      7c:	72622f73 	rsbvc	r2, r2, #460	; 0x1cc
      80:	6a6e6169 	bvs	1b9862c <__bss_end__+0x1b8e0c4>
      84:	442f6e75 	strtmi	r6, [pc], #-3701	; 8c <__code_start__-0x7f74>
      88:	746b7365 	strbtvc	r7, [fp], #-869	; 0x365
      8c:	732f706f 	teqvc	pc, #111	; 0x6f
      90:	6f6f6863 	svcvs	0x006f6863
      94:	70532f6c 	subsvc	r2, r3, ip, ror #30
      98:	676e6972 			; <UNDEFINED> instruction: 0x676e6972
      9c:	30323931 	eorscc	r3, r2, r1, lsr r9
      a0:	3253432f 	subscc	r4, r3, #-1140850688	; 0xbc000000
      a4:	584c3034 	stmdapl	ip, {r2, r4, r5, ip, sp}^
      a8:	3273632f 	rsbscc	r6, r3, #-1140850688	; 0xbc000000
      ac:	786c3034 	stmdavc	ip!, {r2, r4, r5, ip, sp}^
      b0:	7330322d 	teqvc	r0, #-805306366	; 0xd0000002
      b4:	6c2f7270 	sfmvs	f7, 4, [pc], #-448	; fffffefc <__bss_end__+0xffff5994>
      b8:	69706269 	ldmdbvs	r0!, {r0, r3, r5, r6, r9, sp, lr}^
      bc:	636e692f 	cmnvs	lr, #770048	; 0xbc000
      c0:	6564756c 	strbvs	r7, [r4, #-1388]!	; 0x56c
      c4:	36310000 	ldrtcc	r0, [r1], -r0
      c8:	7261702d 	rsbvc	r7, r1, #45	; 0x2d
      cc:	742d3274 	strtvc	r3, [sp], #-628	; 0x274
      d0:	33747365 	cmncc	r4, #-1811939327	; 0x94000001
      d4:	0100632e 	tsteq	r0, lr, lsr #6
      d8:	70630000 	rsbvc	r0, r3, r0
      dc:	642d3431 	strtvs	r3, [sp], #-1073	; 0x431
      e0:	67756265 	ldrbvs	r6, [r5, -r5, ror #4]!
      e4:	0200682e 	andeq	r6, r0, #3014656	; 0x2e0000
      e8:	68630000 	stmdavs	r3!, {}^	; <UNPREDICTABLE>
      ec:	2d6b6365 	stclcs	3, cr6, [fp, #-404]!	; 0xfffffe6c
      f0:	65746e69 	ldrbvs	r6, [r4, #-3689]!	; 0xe69
      f4:	61656c72 	smcvs	22210	; 0x56c2
      f8:	682e6576 	stmdavs	lr!, {r1, r2, r4, r5, r6, r8, sl, sp, lr}
      fc:	00000200 	andeq	r0, r0, r0, lsl #4
     100:	69647473 	stmdbvs	r4!, {r0, r1, r4, r5, r6, sl, ip, sp, lr}^
     104:	672d746e 	strvs	r7, [sp, -lr, ror #8]!
     108:	682e6363 	stmdavs	lr!, {r0, r1, r5, r6, r8, r9, sp, lr}
     10c:	00000300 	andeq	r0, r0, r0, lsl #6
     110:	2e697072 	mcrcs	0, 3, r7, cr9, cr2, {3}
     114:	00040068 	andeq	r0, r4, r8, rrx
     118:	05000000 	streq	r0, [r0, #-0]
     11c:	00802002 	addeq	r2, r0, r2
     120:	012f1600 	teqeq	pc, r0, lsl #12
     124:	6713304b 	ldrvs	r3, [r3, -fp, asr #32]
     128:	13302f4b 	teqne	r0, #300	; 0x12c
     12c:	a0192e02 	andsge	r2, r9, r2, lsl #28
     130:	0302044c 	movweq	r0, #9292	; 0x244c
     134:	042e01a8 	strteq	r0, [lr], #-424	; 0x1a8
     138:	7edb0301 	cdpvc	3, 13, cr0, cr11, cr1, {0}
     13c:	00834c66 	addeq	r4, r3, r6, ror #24
     140:	06010402 	streq	r0, [r1], -r2, lsl #8
     144:	21080666 	tstcs	r8, r6, ror #12
     148:	00842308 	addeq	r2, r4, r8, lsl #6
     14c:	06010402 	streq	r0, [r1], -r2, lsl #8
     150:	21080682 	smlabbcs	r8, r2, r6, r0
     154:	01001e02 	tsteq	r0, r2, lsl #28
     158:	0001f401 	andeq	pc, r1, r1, lsl #8
     15c:	ff000200 			; <UNDEFINED> instruction: 0xff000200
     160:	02000000 	andeq	r0, r0, #0
     164:	0d0efb01 	vstreq	d15, [lr, #-4]
     168:	01010100 	mrseq	r0, (UNDEF: 17)
     16c:	00000001 	andeq	r0, r0, r1
     170:	01000001 	tsteq	r0, r1
     174:	7273752f 	rsbsvc	r7, r3, #197132288	; 0xbc00000
     178:	636f6c2f 	cmnvs	pc, #12032	; 0x2f00
     17c:	432f6c61 	teqmi	pc, #24832	; 0x6100
     180:	616c6c65 	cmnvs	ip, r5, ror #24
     184:	72612f72 	rsbvc	r2, r1, #456	; 0x1c8
     188:	6f6e2d6d 	svcvs	0x006e2d6d
     18c:	652d656e 	strvs	r6, [sp, #-1390]!	; 0x56e
     190:	2f696261 	svccs	0x00696261
     194:	2e382e34 	mrccs	14, 1, r2, cr8, cr4, {1}
     198:	73632d33 	cmnvc	r3, #3264	; 0xcc0
     19c:	65303731 	ldrvs	r3, [r0, #-1841]!	; 0x731
     1a0:	62696c2f 	rsbvs	r6, r9, #12032	; 0x2f00
     1a4:	6363672f 	cmnvs	r3, #12320768	; 0xbc0000
     1a8:	6d72612f 	ldfvse	f6, [r2, #-188]!	; 0xffffff44
     1ac:	6e6f6e2d 	cdpvs	14, 6, cr6, cr15, cr13, {1}
     1b0:	61652d65 	cmnvs	r5, r5, ror #26
     1b4:	342f6962 	strtcc	r6, [pc], #-2402	; 1bc <__code_start__-0x7e44>
     1b8:	332e382e 	teqcc	lr, #3014656	; 0x2e0000
     1bc:	636e692f 	cmnvs	lr, #770048	; 0xbc000
     1c0:	6564756c 	strbvs	r7, [r4, #-1388]!	; 0x56c
     1c4:	73552f00 	cmpvc	r5, #0, 30
     1c8:	2f737265 	svccs	0x00737265
     1cc:	61697262 	cmnvs	r9, r2, ror #4
     1d0:	6e756a6e 	vsubvs.f32	s13, s10, s29
     1d4:	7365442f 	cmnvc	r5, #788529152	; 0x2f000000
     1d8:	706f746b 	rsbvc	r7, pc, fp, ror #8
     1dc:	6863732f 	stmdavs	r3!, {r0, r1, r2, r3, r5, r8, r9, ip, sp, lr}^
     1e0:	2f6c6f6f 	svccs	0x006c6f6f
     1e4:	69727053 	ldmdbvs	r2!, {r0, r1, r4, r6, ip, sp, lr}^
     1e8:	3931676e 	ldmdbcc	r1!, {r1, r2, r3, r5, r6, r8, r9, sl, sp, lr}
     1ec:	432f3032 	teqmi	pc, #50	; 0x32
     1f0:	30343253 	eorscc	r3, r4, r3, asr r2
     1f4:	632f584c 	teqvs	pc, #76, 16	; 0x4c0000
     1f8:	30343273 	eorscc	r3, r4, r3, ror r2
     1fc:	322d786c 	eorcc	r7, sp, #108, 16	; 0x6c0000
     200:	72707330 	rsbsvc	r7, r0, #48, 6	; 0xc0000000
     204:	62696c2f 	rsbvs	r6, r9, #12032	; 0x2f00
     208:	692f6970 	stmdbvs	pc!, {r4, r5, r6, r8, fp, sp, lr}	; <UNPREDICTABLE>
     20c:	756c636e 	strbvc	r6, [ip, #-878]!	; 0x36e
     210:	00006564 	andeq	r6, r0, r4, ror #10
     214:	34317063 	ldrtcc	r7, [r1], #-99	; 0x63
     218:	6265642d 	rsbvs	r6, r5, #754974720	; 0x2d000000
     21c:	632e6775 	teqvs	lr, #30670848	; 0x1d40000
     220:	00000000 	andeq	r0, r0, r0
     224:	34317063 	ldrtcc	r7, [r1], #-99	; 0x63
     228:	6265642d 	rsbvs	r6, r5, #754974720	; 0x2d000000
     22c:	682e6775 	stmdavs	lr!, {r0, r2, r4, r5, r6, r8, r9, sl, sp, lr}
     230:	00000000 	andeq	r0, r0, r0
     234:	69647473 	stmdbvs	r4!, {r0, r1, r4, r5, r6, sl, ip, sp, lr}^
     238:	672d746e 	strvs	r7, [sp, -lr, ror #8]!
     23c:	682e6363 	stmdavs	lr!, {r0, r1, r5, r6, r8, r9, sp, lr}
     240:	00000100 	andeq	r0, r0, r0, lsl #2
     244:	2e697072 	mcrcs	0, 3, r7, cr9, cr2, {3}
     248:	00020068 	andeq	r0, r2, r8, rrx
     24c:	69707200 	ldmdbvs	r0!, {r9, ip, sp, lr}^
     250:	746e692d 	strbtvc	r6, [lr], #-2349	; 0x92d
     254:	75727265 	ldrbvc	r7, [r2, #-613]!	; 0x265
     258:	2e737470 	mrccs	4, 3, r7, cr3, cr0, {3}
     25c:	00020068 	andeq	r0, r2, r8, rrx
     260:	05000000 	streq	r0, [r0, #-0]
     264:	0081c002 	addeq	ip, r1, r2
     268:	01350300 	teqeq	r5, r0, lsl #6
     26c:	034a6203 	movteq	r6, #41475	; 0xa203
     270:	62032e24 	andvs	r2, r3, #36, 28	; 0x240
     274:	2e7a032e 	cdpcs	3, 7, cr0, cr10, cr14, {1}
     278:	002e2903 	eoreq	r2, lr, r3, lsl #18
     27c:	06010402 	streq	r0, [r1], -r2, lsl #8
     280:	6503064a 	strvs	r0, [r3, #-1610]	; 0x64a
     284:	78032008 	stmdavc	r3, {r3, sp}
     288:	4a7a032e 	bmi	1e80f48 <__bss_end__+0x1e769e0>
     28c:	002e3a03 	eoreq	r3, lr, r3, lsl #20
     290:	06010402 	streq	r0, [r1], -r2, lsl #8
     294:	bb03064a 	bllt	c1bc4 <__bss_end__+0xb765c>
     298:	0320087f 	teqeq	r0, #8323072	; 0x7f0000
     29c:	4b4a00c8 	blmi	12805c4 <__bss_end__+0x127605c>
     2a0:	6c0204f5 	cfstrsvs	mvf0, [r2], {245}	; 0xf5
     2a4:	344a1303 	strbcc	r1, [sl], #-771	; 0x303
     2a8:	d65d034b 	ldrble	r0, [sp], -fp, asr #6
     2ac:	11030104 	tstne	r3, r4, lsl #2
     2b0:	0402002e 	streq	r0, [r2], #-46	; 0x2e
     2b4:	06660601 	strbteq	r0, [r6], -r1, lsl #12
     2b8:	02002208 	andeq	r2, r0, #8, 4	; 0x80000000
     2bc:	82060104 	andhi	r0, r6, #4, 2
     2c0:	03060204 	movweq	r0, #25092	; 0x6204
     2c4:	0420087a 	strteq	r0, [r0], #-2170	; 0x87a
     2c8:	2e0c0301 	cdpcs	3, 0, cr0, cr12, cr1, {0}
     2cc:	315a084b 	cmpcc	sl, fp, asr #16
     2d0:	bb032f83 	bllt	cc0e4 <__bss_end__+0xc1b7c>
     2d4:	5b03667f 	blpl	d9cd8 <__bss_end__+0xcf770>
     2d8:	019b034a 	orrseq	r0, fp, sl, asr #6
     2dc:	01650382 	smulbbeq	r5, r2, r3
     2e0:	032e1f03 	teqeq	lr, #3, 30
     2e4:	302c2e62 	eorcc	r2, ip, r2, ror #28
     2e8:	4a7eff03 	bmi	1fbfefc <__bss_end__+0x1fb5994>
     2ec:	4a01b303 	bmi	6cf00 <__bss_end__+0x62998>
     2f0:	030204a2 	movweq	r0, #9378	; 0x24a2
     2f4:	04336662 	ldrteq	r6, [r3], #-1634	; 0x662
     2f8:	2e1b0301 	cdpcs	3, 1, cr0, cr11, cr1, {0}
     2fc:	0200d74b 	andeq	sp, r0, #19660800	; 0x12c0000
     300:	82060104 	andhi	r0, r6, #4, 2
     304:	03060204 	movweq	r0, #25092	; 0x6204
     308:	0420084f 	strteq	r0, [r0], #-2127	; 0x84f
     30c:	2e330301 	cdpcs	3, 3, cr0, cr3, cr1, {0}
     310:	0b03f44b 	bleq	fd444 <__bss_end__+0xf2edc>
     314:	082f012e 	stmdaeq	pc!, {r1, r2, r3, r5, r8}	; <UNPREDICTABLE>
     318:	7fb1033f 	svcvc	0x00b1033f
     31c:	00d30301 	sbcseq	r0, r3, r1, lsl #6
     320:	7fae032e 	svcvc	0x00ae032e
     324:	03302c2e 	teqeq	r0, #11776	; 0x2e00
     328:	034a7eff 	movteq	r7, #44799	; 0xaeff
     32c:	a24a01e7 	subge	r0, sl, #-1073741767	; 0xc0000039
     330:	017f9603 	cmneq	pc, r3, lsl #12
     334:	8200fb03 	andhi	pc, r0, #3072	; 0xc00
     338:	034b4b31 	movteq	r4, #47921	; 0xbb31
     33c:	71032e10 	tstvc	r3, r0, lsl lr
     340:	4b674c4a 	blmi	19d3470 <__bss_end__+0x19c8f08>
     344:	03694e32 	cmneq	r9, #800	; 0x320
     348:	354d4a77 	strbcc	r4, [sp, #-2679]	; 0xa77
     34c:	01000402 	tsteq	r0, r2, lsl #8
     350:	00025701 	andeq	r5, r2, r1, lsl #14
     354:	3b000200 	blcc	b5c <__code_start__-0x74a4>
     358:	02000001 	andeq	r0, r0, #1
     35c:	0d0efb01 	vstreq	d15, [lr, #-4]
     360:	01010100 	mrseq	r0, (UNDEF: 17)
     364:	00000001 	andeq	r0, r0, r1
     368:	01000001 	tsteq	r0, r1
     36c:	6573552f 	ldrbvs	r5, [r3, #-1327]!	; 0x52f
     370:	622f7372 	eorvs	r7, pc, #-939524095	; 0xc8000001
     374:	6e616972 	mcrvs	9, 3, r6, cr1, cr2, {3}
     378:	2f6e756a 	svccs	0x006e756a
     37c:	6b736544 	blvs	1cd9894 <__bss_end__+0x1ccf32c>
     380:	2f706f74 	svccs	0x00706f74
     384:	6f686373 	svcvs	0x00686373
     388:	532f6c6f 	teqpl	pc, #28416	; 0x6f00
     38c:	6e697270 	mcrvs	2, 3, r7, cr9, cr0, {3}
     390:	32393167 	eorscc	r3, r9, #-1073741799	; 0xc0000019
     394:	53432f30 	movtpl	r2, #16176	; 0x3f30
     398:	4c303432 	cfldrsmi	mvf3, [r0], #-200	; 0xffffff38
     39c:	73632f58 	cmnvc	r3, #88, 30	; 0x160
     3a0:	6c303432 	cfldrsvs	mvf3, [r0], #-200	; 0xffffff38
     3a4:	30322d78 	eorscc	r2, r2, r8, ror sp
     3a8:	2f727073 	svccs	0x00727073
     3ac:	7062696c 	rsbvc	r6, r2, ip, ror #18
     3b0:	6e692f69 	cdpvs	15, 6, cr2, cr9, cr9, {3}
     3b4:	64756c63 	ldrbtvs	r6, [r5], #-3171	; 0xc63
     3b8:	752f0065 	strvc	r0, [pc, #-101]!	; 35b <__code_start__-0x7ca5>
     3bc:	6c2f7273 	sfmvs	f7, 4, [pc], #-460	; 1f8 <__code_start__-0x7e08>
     3c0:	6c61636f 	stclvs	3, cr6, [r1], #-444	; 0xfffffe44
     3c4:	6c65432f 	stclvs	3, cr4, [r5], #-188	; 0xffffff44
     3c8:	2f72616c 	svccs	0x0072616c
     3cc:	2d6d7261 	sfmcs	f7, 2, [sp, #-388]!	; 0xfffffe7c
     3d0:	656e6f6e 	strbvs	r6, [lr, #-3950]!	; 0xf6e
     3d4:	6261652d 	rsbvs	r6, r1, #188743680	; 0xb400000
     3d8:	2e342f69 	cdpcs	15, 3, cr2, cr4, cr9, {3}
     3dc:	2d332e38 	ldccs	14, cr2, [r3, #-224]!	; 0xffffff20
     3e0:	37317363 	ldrcc	r7, [r1, -r3, ror #6]!
     3e4:	6c2f6530 	cfstr32vs	mvfx6, [pc], #-192	; 32c <__code_start__-0x7cd4>
     3e8:	672f6269 	strvs	r6, [pc, -r9, ror #4]!
     3ec:	612f6363 	teqvs	pc, r3, ror #6
     3f0:	6e2d6d72 	mcrvs	13, 1, r6, cr13, cr2, {3}
     3f4:	2d656e6f 	stclcs	14, cr6, [r5, #-444]!	; 0xfffffe44
     3f8:	69626165 	stmdbvs	r2!, {r0, r2, r5, r6, r8, sp, lr}^
     3fc:	382e342f 	stmdacc	lr!, {r0, r1, r2, r3, r5, sl, ip, sp}
     400:	692f332e 	stmdbvs	pc!, {r1, r2, r3, r5, r8, r9, ip, sp}	; <UNPREDICTABLE>
     404:	756c636e 	strbvc	r6, [ip, #-878]!	; 0x36e
     408:	00006564 	andeq	r6, r0, r4, ror #10
     40c:	63656863 	cmnvs	r5, #6488064	; 0x630000
     410:	6e692d6b 	cdpvs	13, 6, cr2, cr9, cr11, {3}
     414:	6c726574 	cfldr64vs	mvdx6, [r2], #-464	; 0xfffffe30
     418:	65766165 	ldrbvs	r6, [r6, #-357]!	; 0x165
     41c:	0000632e 	andeq	r6, r0, lr, lsr #6
     420:	70630000 	rsbvc	r0, r3, r0
     424:	642d3431 	strtvs	r3, [sp], #-1073	; 0x431
     428:	67756265 	ldrbvs	r6, [r5, -r5, ror #4]!
     42c:	0000682e 	andeq	r6, r0, lr, lsr #16
     430:	70720000 	rsbsvc	r0, r2, r0
     434:	6e692d69 	cdpvs	13, 6, cr2, cr9, cr9, {3}
     438:	72726574 	rsbsvc	r6, r2, #116, 10	; 0x1d000000
     43c:	73747075 	cmnvc	r4, #117	; 0x75
     440:	0100682e 	tsteq	r0, lr, lsr #16
     444:	69620000 	stmdbvs	r2!, {}^	; <UNPREDICTABLE>
     448:	75732d74 	ldrbvc	r2, [r3, #-3444]!	; 0xd74
     44c:	726f7070 	rsbvc	r7, pc, #112	; 0x70
     450:	00682e74 	rsbeq	r2, r8, r4, ror lr
     454:	63000000 	movwvs	r0, #0
     458:	2d727370 	ldclcs	3, cr7, [r2, #-448]!	; 0xfffffe40
     45c:	6c697475 	cfstrdvs	mvd7, [r9], #-468	; 0xfffffe2c
     460:	0000682e 	andeq	r6, r0, lr, lsr #16
     464:	74730000 	ldrbtvc	r0, [r3], #-0
     468:	746e6964 	strbtvc	r6, [lr], #-2404	; 0x964
     46c:	6363672d 	cmnvs	r3, #11796480	; 0xb40000
     470:	0200682e 	andeq	r6, r0, #3014656	; 0x2e0000
     474:	68630000 	stmdavs	r3!, {}^	; <UNPREDICTABLE>
     478:	2d6b6365 	stclcs	3, cr6, [fp, #-404]!	; 0xfffffe6c
     47c:	65746e69 	ldrbvs	r6, [r4, #-3689]!	; 0xe69
     480:	61656c72 	smcvs	22210	; 0x56c2
     484:	682e6576 	stmdavs	lr!, {r1, r2, r4, r5, r6, r8, sl, sp, lr}
     488:	00000000 	andeq	r0, r0, r0
     48c:	2e697072 	mcrcs	0, 3, r7, cr9, cr2, {3}
     490:	00010068 	andeq	r0, r1, r8, rrx
     494:	05000000 	streq	r0, [r0, #-0]
     498:	00867002 	addeq	r7, r6, r2
     49c:	010a0300 	mrseq	r0, (UNDEF: 58)
     4a0:	04020067 	streq	r0, [r2], #-103	; 0x67
     4a4:	04820601 	streq	r0, [r2], #1537	; 0x601
     4a8:	9a030602 	bls	c1cb8 <__bss_end__+0xb7750>
     4ac:	0433ba01 	ldrteq	fp, [r3], #-2561	; 0xa01
     4b0:	7ee20301 	cdpvc	3, 14, cr0, cr2, cr1, {0}
     4b4:	4dd84b2e 	vldrmi	d20, [r8, #184]	; 0xb8
     4b8:	4ba38383 	blmi	fe8e12cc <__bss_end__+0xfe8d6d64>
     4bc:	4b674b2f 	blmi	19d3180 <__bss_end__+0x19c8c18>
     4c0:	02006830 	andeq	r6, r0, #48, 16	; 0x300000
     4c4:	82060104 	andhi	r0, r6, #4, 2
     4c8:	68210806 	stmdavs	r1!, {r1, r2, fp}
     4cc:	01040200 	mrseq	r0, R12_usr
     4d0:	bb068206 	bllt	1a0cf0 <__bss_end__+0x196788>
     4d4:	04020067 	streq	r0, [r2], #-103	; 0x67
     4d8:	06820601 	streq	r0, [r2], r1, lsl #12
     4dc:	04ca08bb 	strbeq	r0, [sl], #2235	; 0x8bb
     4e0:	04046303 	streq	r6, [r4], #-771	; 0x303
     4e4:	03050431 	movweq	r0, #21553	; 0x5431
     4e8:	01042e6b 	tsteq	r4, fp, ror #28
     4ec:	4b2e1903 	blmi	b86900 <__bss_end__+0xb7c398>
     4f0:	682a844e 	stmdavs	sl!, {r1, r2, r3, r6, sl, pc}
     4f4:	01040200 	mrseq	r0, R12_usr
     4f8:	d8066606 	stmdale	r6, {r1, r2, r9, sl, sp, lr}
     4fc:	314b676a 	cmpcc	fp, sl, ror #14
     500:	9f696784 	svcls	0x00696784
     504:	68686984 	stmdavs	r8!, {r2, r7, r8, fp, sp, lr}^
     508:	51030404 	tstpl	r3, r4, lsl #8
     50c:	03050482 	movweq	r0, #21634	; 0x5482
     510:	67652e6c 	strbvs	r2, [r5, -ip, ror #28]!
     514:	60082508 	andvs	r2, r8, r8, lsl #10
     518:	4b152802 	blmi	54a528 <__bss_end__+0x53ffc0>
     51c:	4b4b4b4b 	blmi	12d3250 <__bss_end__+0x12c8ce8>
     520:	4bf27903 	blmi	ffc9e934 <__bss_end__+0xffc943cc>
     524:	38030104 	stmdacc	r3, {r2, r8}
     528:	0303042e 	movweq	r0, #13358	; 0x342e
     52c:	04046655 	streq	r6, [r4], #-1621	; 0x655
     530:	042e7803 	strteq	r7, [lr], #-2051	; 0x803
     534:	2e6c0305 	cdpcs	3, 6, cr0, cr12, cr5, {0}
     538:	25086765 	strcs	r6, [r8, #-1893]	; 0x765
     53c:	28026008 	stmdacs	r2, {r3, sp, lr}
     540:	4b4b4b15 	blmi	12d319c <__bss_end__+0x12c8c34>
     544:	79034b4b 	stmdbvc	r3, {r0, r1, r3, r6, r8, r9, fp, lr}
     548:	03044bf2 	movweq	r4, #19442	; 0x4bf2
     54c:	042e0d03 	strteq	r0, [lr], #-3331	; 0xd03
     550:	2e2c0301 	cdpcs	3, 2, cr0, cr12, cr1, {0}
     554:	0304044c 	movweq	r0, #17484	; 0x444c
     558:	05044a4a 	streq	r4, [r4, #-2634]	; 0xa4a
     55c:	652e6c03 	strvs	r6, [lr, #-3075]!	; 0xc03
     560:	04250867 	strteq	r0, [r5], #-2151	; 0x867
     564:	08170303 	ldmdaeq	r7, {r0, r1, r8, r9}
     568:	03040458 	movweq	r0, #17496	; 0x4458
     56c:	05042e78 	streq	r2, [r4, #-3704]	; 0xe78
     570:	652e6c03 	strvs	r6, [lr, #-3075]!	; 0xc03
     574:	04250867 	strteq	r0, [r5], #-2151	; 0x867
     578:	00c70301 	sbceq	r0, r7, r1, lsl #6
     57c:	02005808 	andeq	r5, r0, #8, 16	; 0x80000
     580:	4a060104 	bmi	180998 <__bss_end__+0x176430>
     584:	4c240806 	stcmi	8, cr0, [r4], #-24	; 0xffffffe8
     588:	173a022f 	ldrne	r0, [sl, -pc, lsr #4]!
     58c:	4d011703 	stcmi	7, cr1, [r1, #-12]
     590:	2d2d491a 	stccs	9, cr4, [sp, #-104]!	; 0xffffff98
     594:	2d2d2d2d 	stccs	13, cr2, [sp, #-180]!	; 0xffffff4c
     598:	4b4a0a03 	blmi	1282dac <__bss_end__+0x1278844>
     59c:	02004b2f 	andeq	r4, r0, #48128	; 0xbc00
     5a0:	82060104 	andhi	r0, r6, #4, 2
     5a4:	029f0682 	addseq	r0, pc, #136314880	; 0x8200000
     5a8:	01010002 	tsteq	r1, r2
     5ac:	0000010c 	andeq	r0, r0, ip, lsl #2
     5b0:	00f50002 	rscseq	r0, r5, r2
     5b4:	01020000 	mrseq	r0, (UNDEF: 2)
     5b8:	000d0efb 	strdeq	r0, [sp], -fp
     5bc:	01010101 	tsteq	r1, r1, lsl #2
     5c0:	01000000 	mrseq	r0, (UNDEF: 0)
     5c4:	6c010000 	stcvs	0, cr0, [r1], {-0}
     5c8:	00636269 	rsbeq	r6, r3, r9, ror #4
     5cc:	7273752f 	rsbsvc	r7, r3, #197132288	; 0xbc00000
     5d0:	636f6c2f 	cmnvs	pc, #12032	; 0x2f00
     5d4:	432f6c61 	teqmi	pc, #24832	; 0x6100
     5d8:	616c6c65 	cmnvs	ip, r5, ror #24
     5dc:	72612f72 	rsbvc	r2, r1, #456	; 0x1c8
     5e0:	6f6e2d6d 	svcvs	0x006e2d6d
     5e4:	652d656e 	strvs	r6, [sp, #-1390]!	; 0x56e
     5e8:	2f696261 	svccs	0x00696261
     5ec:	2e382e34 	mrccs	14, 1, r2, cr8, cr4, {1}
     5f0:	73632d33 	cmnvc	r3, #3264	; 0xcc0
     5f4:	65303731 	ldrvs	r3, [r0, #-1841]!	; 0x731
     5f8:	62696c2f 	rsbvs	r6, r9, #12032	; 0x2f00
     5fc:	6363672f 	cmnvs	r3, #12320768	; 0xbc0000
     600:	6d72612f 	ldfvse	f6, [r2, #-188]!	; 0xffffff44
     604:	6e6f6e2d 	cdpvs	14, 6, cr6, cr15, cr13, {1}
     608:	61652d65 	cmnvs	r5, r5, ror #26
     60c:	342f6962 	strtcc	r6, [pc], #-2402	; 614 <__code_start__-0x79ec>
     610:	332e382e 	teqcc	lr, #3014656	; 0x2e0000
     614:	636e692f 	cmnvs	lr, #770048	; 0xbc000
     618:	6564756c 	strbvs	r7, [r4, #-1388]!	; 0x56c
     61c:	73552f00 	cmpvc	r5, #0, 30
     620:	2f737265 	svccs	0x00737265
     624:	61697262 	cmnvs	r9, r2, ror #4
     628:	6e756a6e 	vsubvs.f32	s13, s10, s29
     62c:	7365442f 	cmnvc	r5, #788529152	; 0x2f000000
     630:	706f746b 	rsbvc	r7, pc, fp, ror #8
     634:	6863732f 	stmdavs	r3!, {r0, r1, r2, r3, r5, r8, r9, ip, sp, lr}^
     638:	2f6c6f6f 	svccs	0x006c6f6f
     63c:	69727053 	ldmdbvs	r2!, {r0, r1, r4, r6, ip, sp, lr}^
     640:	3931676e 	ldmdbcc	r1!, {r1, r2, r3, r5, r6, r8, r9, sl, sp, lr}
     644:	432f3032 	teqmi	pc, #50	; 0x32
     648:	30343253 	eorscc	r3, r4, r3, asr r2
     64c:	632f584c 	teqvs	pc, #76, 16	; 0x4c0000
     650:	30343273 	eorscc	r3, r4, r3, ror r2
     654:	322d786c 	eorcc	r7, sp, #108, 16	; 0x6c0000
     658:	72707330 	rsbsvc	r7, r0, #48, 6	; 0xc0000000
     65c:	62696c2f 	rsbvs	r6, r9, #12032	; 0x2f00
     660:	692f6970 	stmdbvs	pc!, {r4, r5, r6, r8, fp, sp, lr}	; <UNPREDICTABLE>
     664:	756c636e 	strbvc	r6, [ip, #-878]!	; 0x36e
     668:	00006564 	andeq	r6, r0, r4, ror #10
     66c:	6e697270 	mcrvs	2, 3, r7, cr9, cr0, {3}
     670:	632e6b74 	teqvs	lr, #116, 22	; 0x1d000
     674:	00000100 	andeq	r0, r0, r0, lsl #2
     678:	61647473 	smcvs	18243	; 0x4743
     67c:	682e6772 	stmdavs	lr!, {r1, r4, r5, r6, r8, r9, sl, sp, lr}
     680:	00000200 	andeq	r0, r0, r0, lsl #4
     684:	6975623c 	ldmdbvs	r5!, {r2, r3, r4, r5, r9, sp, lr}^
     688:	692d746c 	pushvs	{r2, r3, r5, r6, sl, ip, sp, lr}
     68c:	00003e6e 	andeq	r3, r0, lr, ror #28
     690:	70720000 	rsbsvc	r0, r2, r0
     694:	00682e69 	rsbeq	r2, r8, r9, ror #28
     698:	76000003 	strvc	r0, [r0], -r3
     69c:	72702d61 	rsbsvc	r2, r0, #6208	; 0x1840
     6a0:	6b746e69 	blvs	1d1c04c <__bss_end__+0x1d11ae4>
     6a4:	0100682e 	tsteq	r0, lr, lsr #16
     6a8:	00000000 	andeq	r0, r0, r0
     6ac:	8d780205 	lfmhi	f0, 2, [r8, #-20]!	; 0xffffffec
     6b0:	6b170000 	blvs	5c06b8 <__bss_end__+0x5b6150>
     6b4:	0289bf4b 	addeq	fp, r9, #300	; 0x12c
     6b8:	0101000e 	tsteq	r1, lr
     6bc:	00000094 	muleq	r0, r4, r0
     6c0:	007c0002 	rsbseq	r0, ip, r2
     6c4:	01020000 	mrseq	r0, (UNDEF: 2)
     6c8:	000d0efb 	strdeq	r0, [sp], -fp
     6cc:	01010101 	tsteq	r1, r1, lsl #2
     6d0:	01000000 	mrseq	r0, (UNDEF: 0)
     6d4:	6c010000 	stcvs	0, cr0, [r1], {-0}
     6d8:	00636269 	rsbeq	r6, r3, r9, ror #4
     6dc:	6573552f 	ldrbvs	r5, [r3, #-1327]!	; 0x52f
     6e0:	622f7372 	eorvs	r7, pc, #-939524095	; 0xc8000001
     6e4:	6e616972 	mcrvs	9, 3, r6, cr1, cr2, {3}
     6e8:	2f6e756a 	svccs	0x006e756a
     6ec:	6b736544 	blvs	1cd9c04 <__bss_end__+0x1ccf69c>
     6f0:	2f706f74 	svccs	0x00706f74
     6f4:	6f686373 	svcvs	0x00686373
     6f8:	532f6c6f 	teqpl	pc, #28416	; 0x6f00
     6fc:	6e697270 	mcrvs	2, 3, r7, cr9, cr0, {3}
     700:	32393167 	eorscc	r3, r9, #-1073741799	; 0xc0000019
     704:	53432f30 	movtpl	r2, #16176	; 0x3f30
     708:	4c303432 	cfldrsmi	mvf3, [r0], #-200	; 0xffffff38
     70c:	73632f58 	cmnvc	r3, #88, 30	; 0x160
     710:	6c303432 	cfldrsvs	mvf3, [r0], #-200	; 0xffffff38
     714:	30322d78 	eorscc	r2, r2, r8, ror sp
     718:	2f727073 	svccs	0x00727073
     71c:	7062696c 	rsbvc	r6, r2, ip, ror #18
     720:	6e692f69 	cdpvs	15, 6, cr2, cr9, cr9, {3}
     724:	64756c63 	ldrbtvs	r6, [r5], #-3171	; 0xc63
     728:	70000065 	andvc	r0, r0, r5, rrx
     72c:	68637475 	stmdavs	r3!, {r0, r2, r4, r5, r6, sl, ip, sp, lr}^
     730:	632e7261 	teqvs	lr, #268435462	; 0x10000006
     734:	00000100 	andeq	r0, r0, r0, lsl #2
     738:	2e697072 	mcrcs	0, 3, r7, cr9, cr2, {3}
     73c:	00020068 	andeq	r0, r2, r8, rrx
     740:	05000000 	streq	r0, [r0, #-0]
     744:	008dd002 	addeq	sp, sp, r2
     748:	6b4a1400 	blvs	1285750 <__bss_end__+0x127b1e8>
     74c:	0213bc13 	andseq	fp, r3, #4864	; 0x1300
     750:	01010008 	tsteq	r1, r8
     754:	000000a0 	andeq	r0, r0, r0, lsr #1
     758:	00790002 	rsbseq	r0, r9, r2
     75c:	01020000 	mrseq	r0, (UNDEF: 2)
     760:	000d0efb 	strdeq	r0, [sp], -fp
     764:	01010101 	tsteq	r1, r1, lsl #2
     768:	01000000 	mrseq	r0, (UNDEF: 0)
     76c:	6c010000 	stcvs	0, cr0, [r1], {-0}
     770:	00636269 	rsbeq	r6, r3, r9, ror #4
     774:	6573552f 	ldrbvs	r5, [r3, #-1327]!	; 0x52f
     778:	622f7372 	eorvs	r7, pc, #-939524095	; 0xc8000001
     77c:	6e616972 	mcrvs	9, 3, r6, cr1, cr2, {3}
     780:	2f6e756a 	svccs	0x006e756a
     784:	6b736544 	blvs	1cd9c9c <__bss_end__+0x1ccf734>
     788:	2f706f74 	svccs	0x00706f74
     78c:	6f686373 	svcvs	0x00686373
     790:	532f6c6f 	teqpl	pc, #28416	; 0x6f00
     794:	6e697270 	mcrvs	2, 3, r7, cr9, cr0, {3}
     798:	32393167 	eorscc	r3, r9, #-1073741799	; 0xc0000019
     79c:	53432f30 	movtpl	r2, #16176	; 0x3f30
     7a0:	4c303432 	cfldrsmi	mvf3, [r0], #-200	; 0xffffff38
     7a4:	73632f58 	cmnvc	r3, #88, 30	; 0x160
     7a8:	6c303432 	cfldrsvs	mvf3, [r0], #-200	; 0xffffff38
     7ac:	30322d78 	eorscc	r2, r2, r8, ror sp
     7b0:	2f727073 	svccs	0x00727073
     7b4:	7062696c 	rsbvc	r6, r2, ip, ror #18
     7b8:	6e692f69 	cdpvs	15, 6, cr2, cr9, cr9, {3}
     7bc:	64756c63 	ldrbtvs	r6, [r5], #-3171	; 0xc63
     7c0:	70000065 	andvc	r0, r0, r5, rrx
     7c4:	2e6b7475 	mcrcs	4, 3, r7, cr11, cr5, {3}
     7c8:	00010063 	andeq	r0, r1, r3, rrx
     7cc:	69707200 	ldmdbvs	r0!, {r9, ip, sp, lr}^
     7d0:	0200682e 	andeq	r6, r0, #3014656	; 0x2e0000
     7d4:	00000000 	andeq	r0, r0, r0
     7d8:	8e0c0205 	cdphi	2, 0, cr0, cr12, cr5, {0}
     7dc:	4c150000 	ldcmi	0, cr0, [r5], {-0}
     7e0:	0402002d 	streq	r0, [r2], #-45	; 0x2d
     7e4:	02002f02 	andeq	r2, r0, #2, 30
     7e8:	00490204 	subeq	r0, r9, r4, lsl #4
     7ec:	06010402 	streq	r0, [r1], -r2, lsl #8
     7f0:	026b062e 	rsbeq	r0, fp, #48234496	; 0x2e00000
     7f4:	01010006 	tsteq	r1, r6
     7f8:	000001f1 	strdeq	r0, [r0], -r1
     7fc:	00e90002 	rsceq	r0, r9, r2
     800:	01020000 	mrseq	r0, (UNDEF: 2)
     804:	000d0efb 	strdeq	r0, [sp], -fp
     808:	01010101 	tsteq	r1, r1, lsl #2
     80c:	01000000 	mrseq	r0, (UNDEF: 0)
     810:	6c010000 	stcvs	0, cr0, [r1], {-0}
     814:	00636269 	rsbeq	r6, r3, r9, ror #4
     818:	7273752f 	rsbsvc	r7, r3, #197132288	; 0xbc00000
     81c:	636f6c2f 	cmnvs	pc, #12032	; 0x2f00
     820:	432f6c61 	teqmi	pc, #24832	; 0x6100
     824:	616c6c65 	cmnvs	ip, r5, ror #24
     828:	72612f72 	rsbvc	r2, r1, #456	; 0x1c8
     82c:	6f6e2d6d 	svcvs	0x006e2d6d
     830:	652d656e 	strvs	r6, [sp, #-1390]!	; 0x56e
     834:	2f696261 	svccs	0x00696261
     838:	2e382e34 	mrccs	14, 1, r2, cr8, cr4, {1}
     83c:	73632d33 	cmnvc	r3, #3264	; 0xcc0
     840:	65303731 	ldrvs	r3, [r0, #-1841]!	; 0x731
     844:	62696c2f 	rsbvs	r6, r9, #12032	; 0x2f00
     848:	6363672f 	cmnvs	r3, #12320768	; 0xbc0000
     84c:	6d72612f 	ldfvse	f6, [r2, #-188]!	; 0xffffff44
     850:	6e6f6e2d 	cdpvs	14, 6, cr6, cr15, cr13, {1}
     854:	61652d65 	cmnvs	r5, r5, ror #26
     858:	342f6962 	strtcc	r6, [pc], #-2402	; 860 <__code_start__-0x77a0>
     85c:	332e382e 	teqcc	lr, #3014656	; 0x2e0000
     860:	636e692f 	cmnvs	lr, #770048	; 0xbc000
     864:	6564756c 	strbvs	r7, [r4, #-1388]!	; 0x56c
     868:	73552f00 	cmpvc	r5, #0, 30
     86c:	2f737265 	svccs	0x00737265
     870:	61697262 	cmnvs	r9, r2, ror #4
     874:	6e756a6e 	vsubvs.f32	s13, s10, s29
     878:	7365442f 	cmnvc	r5, #788529152	; 0x2f000000
     87c:	706f746b 	rsbvc	r7, pc, fp, ror #8
     880:	6863732f 	stmdavs	r3!, {r0, r1, r2, r3, r5, r8, r9, ip, sp, lr}^
     884:	2f6c6f6f 	svccs	0x006c6f6f
     888:	69727053 	ldmdbvs	r2!, {r0, r1, r4, r6, ip, sp, lr}^
     88c:	3931676e 	ldmdbcc	r1!, {r1, r2, r3, r5, r6, r8, r9, sl, sp, lr}
     890:	432f3032 	teqmi	pc, #50	; 0x32
     894:	30343253 	eorscc	r3, r4, r3, asr r2
     898:	632f584c 	teqvs	pc, #76, 16	; 0x4c0000
     89c:	30343273 	eorscc	r3, r4, r3, ror r2
     8a0:	322d786c 	eorcc	r7, sp, #108, 16	; 0x6c0000
     8a4:	72707330 	rsbsvc	r7, r0, #48, 6	; 0xc0000000
     8a8:	62696c2f 	rsbvs	r6, r9, #12032	; 0x2f00
     8ac:	692f6970 	stmdbvs	pc!, {r4, r5, r6, r8, fp, sp, lr}	; <UNPREDICTABLE>
     8b0:	756c636e 	strbvc	r6, [ip, #-878]!	; 0x36e
     8b4:	00006564 	andeq	r6, r0, r4, ror #10
     8b8:	702d6176 	eorvc	r6, sp, r6, ror r1
     8bc:	746e6972 	strbtvc	r6, [lr], #-2418	; 0x972
     8c0:	00632e6b 	rsbeq	r2, r3, fp, ror #28
     8c4:	73000001 	movwvc	r0, #1
     8c8:	72616474 	rsbvc	r6, r1, #116, 8	; 0x74000000
     8cc:	00682e67 	rsbeq	r2, r8, r7, ror #28
     8d0:	72000002 	andvc	r0, r0, #2
     8d4:	682e6970 	stmdavs	lr!, {r4, r5, r6, r8, fp, sp, lr}
     8d8:	00000300 	andeq	r0, r0, r0, lsl #6
     8dc:	6975623c 	ldmdbvs	r5!, {r2, r3, r4, r5, r9, sp, lr}^
     8e0:	692d746c 	pushvs	{r2, r3, r5, r6, sl, ip, sp, lr}
     8e4:	00003e6e 	andeq	r3, r0, lr, ror #28
     8e8:	00000000 	andeq	r0, r0, r0
     8ec:	8e400205 	cdphi	2, 4, cr0, cr0, cr5, {0}
     8f0:	26030000 	strcs	r0, [r3], -r0
     8f4:	13a50101 			; <UNDEFINED> instruction: 0x13a50101
     8f8:	02002d31 	andeq	r2, r0, #3136	; 0xc40
     8fc:	002f0204 	eoreq	r0, pc, r4, lsl #4
     900:	2d020402 	cfstrscs	mvf0, [r2, #-8]
     904:	02040200 	andeq	r0, r4, #0, 4
     908:	0402002f 	streq	r0, [r2], #-47	; 0x2f
     90c:	4c4c2d01 	mcrrmi	13, 0, r2, ip, cr1
     910:	2f4b1430 	svccs	0x004b1430
     914:	0402004f 	streq	r0, [r2], #-79	; 0x4f
     918:	02006702 	andeq	r6, r0, #524288	; 0x80000
     91c:	4c650104 	stfmie	f0, [r5], #-16
     920:	2fa0304d 	svccs	0x00a0304d
     924:	26023031 			; <UNDEFINED> instruction: 0x26023031
     928:	2c2d8416 	cfstrscs	mvf8, [sp], #-88	; 0xffffffa8
     92c:	01040200 	mrseq	r0, R12_usr
     930:	04020030 	streq	r0, [r2], #-48	; 0x30
     934:	66063301 	strvs	r3, [r6], -r1, lsl #6
     938:	01040200 	mrseq	r0, R12_usr
     93c:	0402002e 	streq	r0, [r2], #-46	; 0x2e
     940:	21080601 	tstcs	r8, r1, lsl #12
     944:	73032f67 	movwvc	r2, #16231	; 0x3f67
     948:	2e130382 	cdpcs	3, 1, cr0, cr3, cr2, {4}
     94c:	01040200 	mrseq	r0, R12_usr
     950:	02006606 	andeq	r6, r0, #6291456	; 0x600000
     954:	83060104 	movwhi	r0, #24836	; 0x6104
     958:	31674b4b 	cmncc	r7, fp, asr #22
     95c:	2e65034b 	cdpcs	3, 6, cr0, cr5, cr11, {2}
     960:	002e2303 	eoreq	r2, lr, r3, lsl #6
     964:	06010402 	streq	r0, [r1], -r2, lsl #8
     968:	0402002e 	streq	r0, [r2], #-46	; 0x2e
     96c:	009f0601 	addseq	r0, pc, r1, lsl #12
     970:	6a010402 	bvs	41980 <__bss_end__+0x37418>
     974:	03d72308 	bicseq	r2, r7, #8, 6	; 0x20000000
     978:	3c087fa4 	stccc	15, cr7, [r8], {164}	; 0xa4
     97c:	0402004b 	streq	r0, [r2], #-75	; 0x4b
     980:	064a0601 	strbeq	r0, [sl], -r1, lsl #12
     984:	2f4b2108 	svccs	0x004b2108
     988:	00db034b 	sbcseq	r0, fp, fp, asr #6
     98c:	484c9ff2 	stmdami	ip, {r1, r4, r5, r6, r7, r8, r9, sl, fp, ip, pc}^
     990:	842f4b32 	strthi	r4, [pc], #-2866	; 998 <__code_start__-0x7668>
     994:	4d2d2f4b 	stcmi	15, cr2, [sp, #-300]!	; 0xfffffed4
     998:	832f3031 	teqhi	pc, #49	; 0x31
     99c:	01040200 	mrseq	r0, R12_usr
     9a0:	0200be2c 	andeq	fp, r0, #44, 28	; 0x2c0
     9a4:	4a060104 	bmi	180dbc <__bss_end__+0x176854>
     9a8:	02220806 	eoreq	r0, r2, #393216	; 0x60000
     9ac:	0e031636 	mcreq	6, 0, r1, cr3, cr6, {1}
     9b0:	302108d6 	ldrdcc	r0, [r1], -r6	; <UNPREDICTABLE>
     9b4:	08312108 	ldmdaeq	r1!, {r3, r8, sp}
     9b8:	21083021 	tstcs	r8, r1, lsr #32
     9bc:	08304b30 	ldmdaeq	r0!, {r4, r5, r8, r9, fp, lr}
     9c0:	834b3021 	movthi	r3, #45089	; 0xb021
     9c4:	2f31d983 	svccs	0x0031d983
     9c8:	01040200 	mrseq	r0, R12_usr
     9cc:	04020065 	streq	r0, [r2], #-101	; 0x65
     9d0:	004a0602 	subeq	r0, sl, r2, lsl #12
     9d4:	06010402 	streq	r0, [r1], -r2, lsl #8
     9d8:	667fbf03 	ldrbtvs	fp, [pc], -r3, lsl #30
     9dc:	02040200 	andeq	r0, r4, #0, 4
     9e0:	03066606 	movweq	r6, #26118	; 0x6606
     9e4:	684a00c5 	stmdavs	sl, {r0, r2, r6, r7}^
     9e8:	01001602 	tsteq	r0, r2, lsl #12
     9ec:	00004201 	andeq	r4, r0, r1, lsl #4
     9f0:	28000200 	stmdacs	r0, {r9}
     9f4:	02000000 	andeq	r0, r0, #0
     9f8:	0d0efb01 	vstreq	d15, [lr, #-4]
     9fc:	01010100 	mrseq	r0, (UNDEF: 17)
     a00:	00000001 	andeq	r0, r0, r1
     a04:	01000001 	tsteq	r0, r1
     a08:	66617473 			; <UNDEFINED> instruction: 0x66617473
     a0c:	72732d66 	rsbsvc	r2, r3, #6528	; 0x1980
     a10:	63000063 	movwvs	r0, #99	; 0x63
     a14:	65686361 	strbvs	r6, [r8, #-865]!	; 0x361
     a18:	0100632e 	tsteq	r0, lr, lsr #6
     a1c:	00000000 	andeq	r0, r0, r0
     a20:	93b80205 			; <UNDEFINED> instruction: 0x93b80205
     a24:	14140000 	ldrne	r0, [r4], #-0
     a28:	144e2f30 	strbne	r2, [lr], #-3888	; 0xf30
     a2c:	04022f31 	streq	r2, [r2], #-3889	; 0xf31
     a30:	9d010100 	stflss	f0, [r1, #-0]
     a34:	02000000 	andeq	r0, r0, #0
     a38:	00008600 	andeq	r8, r0, r0, lsl #12
     a3c:	fb010200 	blx	41246 <__bss_end__+0x36cde>
     a40:	01000d0e 	tsteq	r0, lr, lsl #26
     a44:	00010101 	andeq	r0, r1, r1, lsl #2
     a48:	00010000 	andeq	r0, r1, r0
     a4c:	74730100 	ldrbtvc	r0, [r3], #-256	; 0x100
     a50:	2d666661 	stclcs	6, cr6, [r6, #-388]!	; 0xfffffe7c
     a54:	00637273 	rsbeq	r7, r3, r3, ror r2
     a58:	6573552f 	ldrbvs	r5, [r3, #-1327]!	; 0x52f
     a5c:	622f7372 	eorvs	r7, pc, #-939524095	; 0xc8000001
     a60:	6e616972 	mcrvs	9, 3, r6, cr1, cr2, {3}
     a64:	2f6e756a 	svccs	0x006e756a
     a68:	6b736544 	blvs	1cd9f80 <__bss_end__+0x1ccfa18>
     a6c:	2f706f74 	svccs	0x00706f74
     a70:	6f686373 	svcvs	0x00686373
     a74:	532f6c6f 	teqpl	pc, #28416	; 0x6f00
     a78:	6e697270 	mcrvs	2, 3, r7, cr9, cr0, {3}
     a7c:	32393167 	eorscc	r3, r9, #-1073741799	; 0xc0000019
     a80:	53432f30 	movtpl	r2, #16176	; 0x3f30
     a84:	4c303432 	cfldrsmi	mvf3, [r0], #-200	; 0xffffff38
     a88:	73632f58 	cmnvc	r3, #88, 30	; 0x160
     a8c:	6c303432 	cfldrsvs	mvf3, [r0], #-200	; 0xffffff38
     a90:	30322d78 	eorscc	r2, r2, r8, ror sp
     a94:	2f727073 	svccs	0x00727073
     a98:	7062696c 	rsbvc	r6, r2, ip, ror #18
     a9c:	6e692f69 	cdpvs	15, 6, cr2, cr9, cr9, {3}
     aa0:	64756c63 	ldrbtvs	r6, [r5], #-3171	; 0xc63
     aa4:	63000065 	movwvs	r0, #101	; 0x65
     aa8:	6e61656c 	cdpvs	5, 6, cr6, cr1, cr12, {3}
     aac:	6265722d 	rsbvs	r7, r5, #-805306366	; 0xd0000002
     ab0:	2e746f6f 	cdpcs	15, 7, cr6, cr4, cr15, {3}
     ab4:	00010063 	andeq	r0, r1, r3, rrx
     ab8:	69707200 	ldmdbvs	r0!, {r9, ip, sp, lr}^
     abc:	0200682e 	andeq	r6, r0, #3014656	; 0x2e0000
     ac0:	00000000 	andeq	r0, r0, r0
     ac4:	93d80205 	bicsls	r0, r8, #1342177280	; 0x50000000
     ac8:	2f150000 	svccs	0x00150000
     acc:	024b832f 	subeq	r8, fp, #-1140850688	; 0xbc000000
     ad0:	01010006 	tsteq	r1, r6
     ad4:	000000a6 	andeq	r0, r0, r6, lsr #1
     ad8:	00800002 	addeq	r0, r0, r2
     adc:	01020000 	mrseq	r0, (UNDEF: 2)
     ae0:	000d0efb 	strdeq	r0, [sp], -fp
     ae4:	01010101 	tsteq	r1, r1, lsl #2
     ae8:	01000000 	mrseq	r0, (UNDEF: 0)
     aec:	73010000 	movwvc	r0, #4096	; 0x1000
     af0:	66666174 			; <UNDEFINED> instruction: 0x66666174
     af4:	6372732d 	cmnvs	r2, #-1275068416	; 0xb4000000
     af8:	73552f00 	cmpvc	r5, #0, 30
     afc:	2f737265 	svccs	0x00737265
     b00:	61697262 	cmnvs	r9, r2, ror #4
     b04:	6e756a6e 	vsubvs.f32	s13, s10, s29
     b08:	7365442f 	cmnvc	r5, #788529152	; 0x2f000000
     b0c:	706f746b 	rsbvc	r7, pc, fp, ror #8
     b10:	6863732f 	stmdavs	r3!, {r0, r1, r2, r3, r5, r8, r9, ip, sp, lr}^
     b14:	2f6c6f6f 	svccs	0x006c6f6f
     b18:	69727053 	ldmdbvs	r2!, {r0, r1, r4, r6, ip, sp, lr}^
     b1c:	3931676e 	ldmdbcc	r1!, {r1, r2, r3, r5, r6, r8, r9, sl, sp, lr}
     b20:	432f3032 	teqmi	pc, #50	; 0x32
     b24:	30343253 	eorscc	r3, r4, r3, asr r2
     b28:	632f584c 	teqvs	pc, #76, 16	; 0x4c0000
     b2c:	30343273 	eorscc	r3, r4, r3, ror r2
     b30:	322d786c 	eorcc	r7, sp, #108, 16	; 0x6c0000
     b34:	72707330 	rsbsvc	r7, r0, #48, 6	; 0xc0000000
     b38:	62696c2f 	rsbvs	r6, r9, #12032	; 0x2f00
     b3c:	692f6970 	stmdbvs	pc!, {r4, r5, r6, r8, fp, sp, lr}	; <UNPREDICTABLE>
     b40:	756c636e 	strbvc	r6, [ip, #-878]!	; 0x36e
     b44:	00006564 	andeq	r6, r0, r4, ror #10
     b48:	61747363 	cmnvs	r4, r3, ror #6
     b4c:	632e7472 	teqvs	lr, #1912602624	; 0x72000000
     b50:	00000100 	andeq	r0, r0, r0, lsl #2
     b54:	2e697072 	mcrcs	0, 3, r7, cr9, cr2, {3}
     b58:	00020068 	andeq	r0, r2, r8, rrx
     b5c:	05000000 	streq	r0, [r0, #-0]
     b60:	00940402 	addseq	r0, r4, r2, lsl #8
     b64:	010c0300 	mrseq	r0, LR_mon
     b68:	2d2f3132 	stfcss	f3, [pc, #-200]!	; aa8 <__code_start__-0x7558>
     b6c:	0402002f 	streq	r0, [r2], #-47	; 0x2f
     b70:	09034901 	stmdbeq	r3, {r0, r8, fp, lr}
     b74:	2e0d034a 	cdpcs	3, 0, cr0, cr13, cr10, {2}
     b78:	0006022f 	andeq	r0, r6, pc, lsr #4
     b7c:	00a20101 	adceq	r0, r2, r1, lsl #2
     b80:	00020000 	andeq	r0, r2, r0
     b84:	0000008e 	andeq	r0, r0, lr, lsl #1
     b88:	0efb0102 	cdpeq	1, 15, cr0, cr11, cr2, {0}
     b8c:	0101000d 	tsteq	r1, sp
     b90:	00000101 	andeq	r0, r0, r1, lsl #2
     b94:	00000100 	andeq	r0, r0, r0, lsl #2
     b98:	61747301 	cmnvs	r4, r1, lsl #6
     b9c:	732d6666 	teqvc	sp, #106954752	; 0x6600000
     ba0:	2f006372 	svccs	0x00006372
     ba4:	72657355 	rsbvc	r7, r5, #1409286145	; 0x54000001
     ba8:	72622f73 	rsbvc	r2, r2, #460	; 0x1cc
     bac:	6a6e6169 	bvs	1b99158 <__bss_end__+0x1b8ebf0>
     bb0:	442f6e75 	strtmi	r6, [pc], #-3701	; bb8 <__code_start__-0x7448>
     bb4:	746b7365 	strbtvc	r7, [fp], #-869	; 0x365
     bb8:	732f706f 	teqvc	pc, #111	; 0x6f
     bbc:	6f6f6863 	svcvs	0x006f6863
     bc0:	70532f6c 	subsvc	r2, r3, ip, ror #30
     bc4:	676e6972 			; <UNDEFINED> instruction: 0x676e6972
     bc8:	30323931 	eorscc	r3, r2, r1, lsr r9
     bcc:	3253432f 	subscc	r4, r3, #-1140850688	; 0xbc000000
     bd0:	584c3034 	stmdapl	ip, {r2, r4, r5, ip, sp}^
     bd4:	3273632f 	rsbscc	r6, r3, #-1140850688	; 0xbc000000
     bd8:	786c3034 	stmdavc	ip!, {r2, r4, r5, ip, sp}^
     bdc:	7330322d 	teqvc	r0, #-805306366	; 0xd0000002
     be0:	6c2f7270 	sfmvs	f7, 4, [pc], #-448	; a28 <__code_start__-0x75d8>
     be4:	69706269 	ldmdbvs	r0!, {r0, r3, r5, r6, r9, sp, lr}^
     be8:	636e692f 	cmnvs	lr, #770048	; 0xbc000
     bec:	6564756c 	strbvs	r7, [r4, #-1388]!	; 0x56c
     bf0:	65640000 	strbvs	r0, [r4, #-0]!
     bf4:	6c756166 	ldfvse	f6, [r5], #-408	; 0xfffffe68
     bf8:	61682d74 	smcvs	33492	; 0x82d4
     bfc:	656c646e 	strbvs	r6, [ip, #-1134]!	; 0x46e
     c00:	61662d72 	smcvs	25298	; 0x62d2
     c04:	632e7473 	teqvs	lr, #1929379840	; 0x73000000
     c08:	00000100 	andeq	r0, r0, r0, lsl #2
     c0c:	2e697072 	mcrcs	0, 3, r7, cr9, cr2, {3}
     c10:	00020068 	andeq	r0, r2, r8, rrx
     c14:	05000000 	streq	r0, [r0, #-0]
     c18:	00943c02 	addseq	r3, r4, r2, lsl #24
     c1c:	02661300 	rsbeq	r1, r6, #0, 6
     c20:	0101001c 	tsteq	r1, ip, lsl r0
     c24:	000000a3 	andeq	r0, r0, r3, lsr #1
     c28:	008f0002 	addeq	r0, pc, r2
     c2c:	01020000 	mrseq	r0, (UNDEF: 2)
     c30:	000d0efb 	strdeq	r0, [sp], -fp
     c34:	01010101 	tsteq	r1, r1, lsl #2
     c38:	01000000 	mrseq	r0, (UNDEF: 0)
     c3c:	73010000 	movwvc	r0, #4096	; 0x1000
     c40:	66666174 			; <UNDEFINED> instruction: 0x66666174
     c44:	6372732d 	cmnvs	r2, #-1275068416	; 0xb4000000
     c48:	73552f00 	cmpvc	r5, #0, 30
     c4c:	2f737265 	svccs	0x00737265
     c50:	61697262 	cmnvs	r9, r2, ror #4
     c54:	6e756a6e 	vsubvs.f32	s13, s10, s29
     c58:	7365442f 	cmnvc	r5, #788529152	; 0x2f000000
     c5c:	706f746b 	rsbvc	r7, pc, fp, ror #8
     c60:	6863732f 	stmdavs	r3!, {r0, r1, r2, r3, r5, r8, r9, ip, sp, lr}^
     c64:	2f6c6f6f 	svccs	0x006c6f6f
     c68:	69727053 	ldmdbvs	r2!, {r0, r1, r4, r6, ip, sp, lr}^
     c6c:	3931676e 	ldmdbcc	r1!, {r1, r2, r3, r5, r6, r8, r9, sl, sp, lr}
     c70:	432f3032 	teqmi	pc, #50	; 0x32
     c74:	30343253 	eorscc	r3, r4, r3, asr r2
     c78:	632f584c 	teqvs	pc, #76, 16	; 0x4c0000
     c7c:	30343273 	eorscc	r3, r4, r3, ror r2
     c80:	322d786c 	eorcc	r7, sp, #108, 16	; 0x6c0000
     c84:	72707330 	rsbsvc	r7, r0, #48, 6	; 0xc0000000
     c88:	62696c2f 	rsbvs	r6, r9, #12032	; 0x2f00
     c8c:	692f6970 	stmdbvs	pc!, {r4, r5, r6, r8, fp, sp, lr}	; <UNPREDICTABLE>
     c90:	756c636e 	strbvc	r6, [ip, #-878]!	; 0x36e
     c94:	00006564 	andeq	r6, r0, r4, ror #10
     c98:	61666564 	cmnvs	r6, r4, ror #10
     c9c:	2d746c75 	ldclcs	12, cr6, [r4, #-468]!	; 0xfffffe2c
     ca0:	646e6168 	strbtvs	r6, [lr], #-360	; 0x168
     ca4:	2d72656c 	cfldr64cs	mvdx6, [r2, #-432]!	; 0xfffffe50
     ca8:	65736572 	ldrbvs	r6, [r3, #-1394]!	; 0x572
     cac:	00632e74 	rsbeq	r2, r3, r4, ror lr
     cb0:	72000001 	andvc	r0, r0, #1
     cb4:	682e6970 	stmdavs	lr!, {r4, r5, r6, r8, fp, sp, lr}
     cb8:	00000200 	andeq	r0, r0, r0, lsl #4
     cbc:	02050000 	andeq	r0, r5, #0
     cc0:	00009480 	andeq	r9, r0, r0, lsl #9
     cc4:	1c026613 	stcne	6, cr6, [r2], {19}
     cc8:	ac010100 	stfges	f0, [r1], {-0}
     ccc:	02000000 	andeq	r0, r0, #0
     cd0:	00009800 	andeq	r9, r0, r0, lsl #16
     cd4:	fb010200 	blx	414de <__bss_end__+0x36f76>
     cd8:	01000d0e 	tsteq	r0, lr, lsl #26
     cdc:	00010101 	andeq	r0, r1, r1, lsl #2
     ce0:	00010000 	andeq	r0, r1, r0
     ce4:	74730100 	ldrbtvc	r0, [r3], #-256	; 0x100
     ce8:	2d666661 	stclcs	6, cr6, [r6, #-388]!	; 0xfffffe7c
     cec:	00637273 	rsbeq	r7, r3, r3, ror r2
     cf0:	6573552f 	ldrbvs	r5, [r3, #-1327]!	; 0x52f
     cf4:	622f7372 	eorvs	r7, pc, #-939524095	; 0xc8000001
     cf8:	6e616972 	mcrvs	9, 3, r6, cr1, cr2, {3}
     cfc:	2f6e756a 	svccs	0x006e756a
     d00:	6b736544 	blvs	1cda218 <__bss_end__+0x1ccfcb0>
     d04:	2f706f74 	svccs	0x00706f74
     d08:	6f686373 	svcvs	0x00686373
     d0c:	532f6c6f 	teqpl	pc, #28416	; 0x6f00
     d10:	6e697270 	mcrvs	2, 3, r7, cr9, cr0, {3}
     d14:	32393167 	eorscc	r3, r9, #-1073741799	; 0xc0000019
     d18:	53432f30 	movtpl	r2, #16176	; 0x3f30
     d1c:	4c303432 	cfldrsmi	mvf3, [r0], #-200	; 0xffffff38
     d20:	73632f58 	cmnvc	r3, #88, 30	; 0x160
     d24:	6c303432 	cfldrsvs	mvf3, [r0], #-200	; 0xffffff38
     d28:	30322d78 	eorscc	r2, r2, r8, ror sp
     d2c:	2f727073 	svccs	0x00727073
     d30:	7062696c 	rsbvc	r6, r2, ip, ror #18
     d34:	6e692f69 	cdpvs	15, 6, cr2, cr9, cr9, {3}
     d38:	64756c63 	ldrbtvs	r6, [r5], #-3171	; 0xc63
     d3c:	64000065 	strvs	r0, [r0], #-101	; 0x65
     d40:	75616665 	strbvc	r6, [r1, #-1637]!	; 0x665
     d44:	682d746c 	stmdavs	sp!, {r2, r3, r5, r6, sl, ip, sp, lr}
     d48:	6c646e61 	stclvs	14, cr6, [r4], #-388	; 0xfffffe7c
     d4c:	752d7265 	strvc	r7, [sp, #-613]!	; 0x265
     d50:	6665646e 	strbtvs	r6, [r5], -lr, ror #8
     d54:	64656e69 	strbtvs	r6, [r5], #-3689	; 0xe69
     d58:	736e692d 	cmnvc	lr, #737280	; 0xb4000
     d5c:	00632e74 	rsbeq	r2, r3, r4, ror lr
     d60:	72000001 	andvc	r0, r0, #1
     d64:	682e6970 	stmdavs	lr!, {r4, r5, r6, r8, fp, sp, lr}
     d68:	00000200 	andeq	r0, r0, r0, lsl #4
     d6c:	02050000 	andeq	r0, r5, #0
     d70:	000094c4 	andeq	r9, r0, r4, asr #9
     d74:	1c026613 	stcne	6, cr6, [r2], {19}
     d78:	47010100 	strmi	r0, [r1, -r0, lsl #2]
     d7c:	02000000 	andeq	r0, r0, #0
     d80:	00003300 	andeq	r3, r0, r0, lsl #6
     d84:	fb010200 	blx	4158e <__bss_end__+0x37026>
     d88:	01000d0e 	tsteq	r0, lr, lsl #26
     d8c:	00010101 	andeq	r0, r1, r1, lsl #2
     d90:	00010000 	andeq	r0, r1, r0
     d94:	74730100 	ldrbtvc	r0, [r3], #-256	; 0x100
     d98:	2d666661 	stclcs	6, cr6, [r6, #-388]!	; 0xfffffe7c
     d9c:	00637273 	rsbeq	r7, r3, r3, ror r2
     da0:	66656400 	strbtvs	r6, [r5], -r0, lsl #8
     da4:	746c7561 	strbtvc	r7, [ip], #-1377	; 0x561
     da8:	6e61682d 	cdpvs	8, 6, cr6, cr1, cr13, {1}
     dac:	72656c64 	rsbvc	r6, r5, #100, 24	; 0x6400
     db0:	00632e73 	rsbeq	r2, r3, r3, ror lr
     db4:	00000001 	andeq	r0, r0, r1
     db8:	08020500 	stmdaeq	r2, {r8, sl}
     dbc:	15000095 	strne	r0, [r0, #-149]	; 0x95
     dc0:	0002022f 	andeq	r0, r2, pc, lsr #4
     dc4:	00c90101 	sbceq	r0, r9, r1, lsl #2
     dc8:	00020000 	andeq	r0, r2, r0
     dcc:	0000009a 	muleq	r0, sl, r0
     dd0:	0efb0102 	cdpeq	1, 15, cr0, cr11, cr2, {0}
     dd4:	0101000d 	tsteq	r1, sp
     dd8:	00000101 	andeq	r0, r0, r1, lsl #2
     ddc:	00000100 	andeq	r0, r0, r0, lsl #2
     de0:	61747301 	cmnvs	r4, r1, lsl #6
     de4:	732d6666 	teqvc	sp, #106954752	; 0x6600000
     de8:	2f006372 	svccs	0x00006372
     dec:	72657355 	rsbvc	r7, r5, #1409286145	; 0x54000001
     df0:	72622f73 	rsbvc	r2, r2, #460	; 0x1cc
     df4:	6a6e6169 	bvs	1b993a0 <__bss_end__+0x1b8ee38>
     df8:	442f6e75 	strtmi	r6, [pc], #-3701	; e00 <__code_start__-0x7200>
     dfc:	746b7365 	strbtvc	r7, [fp], #-869	; 0x365
     e00:	732f706f 	teqvc	pc, #111	; 0x6f
     e04:	6f6f6863 	svcvs	0x006f6863
     e08:	70532f6c 	subsvc	r2, r3, ip, ror #30
     e0c:	676e6972 			; <UNDEFINED> instruction: 0x676e6972
     e10:	30323931 	eorscc	r3, r2, r1, lsr r9
     e14:	3253432f 	subscc	r4, r3, #-1140850688	; 0xbc000000
     e18:	584c3034 	stmdapl	ip, {r2, r4, r5, ip, sp}^
     e1c:	3273632f 	rsbscc	r6, r3, #-1140850688	; 0xbc000000
     e20:	786c3034 	stmdavc	ip!, {r2, r4, r5, ip, sp}^
     e24:	7330322d 	teqvc	r0, #-805306366	; 0xd0000002
     e28:	6c2f7270 	sfmvs	f7, 4, [pc], #-448	; c70 <__code_start__-0x7390>
     e2c:	69706269 	ldmdbvs	r0!, {r0, r3, r5, r6, r9, sp, lr}^
     e30:	636e692f 	cmnvs	lr, #770048	; 0xbc000
     e34:	6564756c 	strbvs	r7, [r4, #-1388]!	; 0x56c
     e38:	6e690000 	cdpvs	0, 6, cr0, cr9, cr0, {0}
     e3c:	72726574 	rsbsvc	r6, r2, #116, 10	; 0x1d000000
     e40:	73747075 	cmnvc	r4, #117	; 0x75
     e44:	632e632d 	teqvs	lr, #-1275068416	; 0xb4000000
     e48:	00000100 	andeq	r0, r0, r0, lsl #2
     e4c:	2d697072 	stclcs	0, cr7, [r9, #-456]!	; 0xfffffe38
     e50:	65746e69 	ldrbvs	r6, [r4, #-3689]!	; 0xe69
     e54:	70757272 	rsbsvc	r7, r5, r2, ror r2
     e58:	682e7374 	stmdavs	lr!, {r2, r4, r5, r6, r8, r9, ip, sp, lr}
     e5c:	00000200 	andeq	r0, r0, r0, lsl #4
     e60:	2e697072 	mcrcs	0, 3, r7, cr9, cr2, {3}
     e64:	00020068 	andeq	r0, r2, r8, rrx
     e68:	05000000 	streq	r0, [r0, #-0]
     e6c:	00951002 	addseq	r1, r5, r2
     e70:	011a0300 	tsteq	sl, r0, lsl #6
     e74:	67672f31 			; <UNDEFINED> instruction: 0x67672f31
     e78:	2d2f8336 	stccs	3, cr8, [pc, #-216]!	; da8 <__code_start__-0x7258>
     e7c:	02040200 	andeq	r0, r4, #0, 4
     e80:	0402002f 	streq	r0, [r2], #-47	; 0x2f
     e84:	02006502 	andeq	r6, r0, #8388608	; 0x800000
     e88:	2e060104 	adfcss	f0, f6, f4
     e8c:	0a024c06 	beq	93eac <__bss_end__+0x89944>
     e90:	a2010100 	andge	r0, r1, #0, 2
     e94:	02000000 	andeq	r0, r0, #0
     e98:	00008000 	andeq	r8, r0, r0
     e9c:	fb010200 	blx	416a6 <__bss_end__+0x3713e>
     ea0:	01000d0e 	tsteq	r0, lr, lsl #26
     ea4:	00010101 	andeq	r0, r1, r1, lsl #2
     ea8:	00010000 	andeq	r0, r1, r0
     eac:	74730100 	ldrbtvc	r0, [r3], #-256	; 0x100
     eb0:	2d666661 	stclcs	6, cr6, [r6, #-388]!	; 0xfffffe7c
     eb4:	00637273 	rsbeq	r7, r3, r3, ror r2
     eb8:	6573552f 	ldrbvs	r5, [r3, #-1327]!	; 0x52f
     ebc:	622f7372 	eorvs	r7, pc, #-939524095	; 0xc8000001
     ec0:	6e616972 	mcrvs	9, 3, r6, cr1, cr2, {3}
     ec4:	2f6e756a 	svccs	0x006e756a
     ec8:	6b736544 	blvs	1cda3e0 <__bss_end__+0x1ccfe78>
     ecc:	2f706f74 	svccs	0x00706f74
     ed0:	6f686373 	svcvs	0x00686373
     ed4:	532f6c6f 	teqpl	pc, #28416	; 0x6f00
     ed8:	6e697270 	mcrvs	2, 3, r7, cr9, cr0, {3}
     edc:	32393167 	eorscc	r3, r9, #-1073741799	; 0xc0000019
     ee0:	53432f30 	movtpl	r2, #16176	; 0x3f30
     ee4:	4c303432 	cfldrsmi	mvf3, [r0], #-200	; 0xffffff38
     ee8:	73632f58 	cmnvc	r3, #88, 30	; 0x160
     eec:	6c303432 	cfldrsvs	mvf3, [r0], #-200	; 0xffffff38
     ef0:	30322d78 	eorscc	r2, r2, r8, ror sp
     ef4:	2f727073 	svccs	0x00727073
     ef8:	7062696c 	rsbvc	r6, r2, ip, ror #18
     efc:	6e692f69 	cdpvs	15, 6, cr2, cr9, cr9, {3}
     f00:	64756c63 	ldrbtvs	r6, [r5], #-3171	; 0xc63
     f04:	72000065 	andvc	r0, r0, #101	; 0x65
     f08:	6f6f6265 	svcvs	0x006f6265
     f0c:	00632e74 	rsbeq	r2, r3, r4, ror lr
     f10:	72000001 	andvc	r0, r0, #1
     f14:	682e6970 	stmdavs	lr!, {r4, r5, r6, r8, fp, sp, lr}
     f18:	00000200 	andeq	r0, r0, r0, lsl #4
     f1c:	02050000 	andeq	r0, r5, #0
     f20:	0000957c 	andeq	r9, r0, ip, ror r5
     f24:	14010d03 	strne	r0, [r1], #-3331	; 0xd03
     f28:	15852f31 	strne	r2, [r5, #3889]	; 0xf31
     f2c:	2f4d4b2f 	svccs	0x004d4b2f
     f30:	67523567 	ldrbvs	r3, [r2, -r7, ror #10]
     f34:	01001002 	tsteq	r0, r2
     f38:	0000ae01 	andeq	sl, r0, r1, lsl #28
     f3c:	7f000200 	svcvc	0x00000200
     f40:	02000000 	andeq	r0, r0, #0
     f44:	0d0efb01 	vstreq	d15, [lr, #-4]
     f48:	01010100 	mrseq	r0, (UNDEF: 17)
     f4c:	00000001 	andeq	r0, r0, r1
     f50:	01000001 	tsteq	r0, r1
     f54:	66617473 			; <UNDEFINED> instruction: 0x66617473
     f58:	72732d66 	rsbsvc	r2, r3, #6528	; 0x1980
     f5c:	552f0063 	strpl	r0, [pc, #-99]!	; f01 <__code_start__-0x70ff>
     f60:	73726573 	cmnvc	r2, #482344960	; 0x1cc00000
     f64:	6972622f 	ldmdbvs	r2!, {r0, r1, r2, r3, r5, r9, sp, lr}^
     f68:	756a6e61 	strbvc	r6, [sl, #-3681]!	; 0xe61
     f6c:	65442f6e 	strbvs	r2, [r4, #-3950]	; 0xf6e
     f70:	6f746b73 	svcvs	0x00746b73
     f74:	63732f70 	cmnvs	r3, #112, 30	; 0x1c0
     f78:	6c6f6f68 	stclvs	15, cr6, [pc], #-416	; de0 <__code_start__-0x7220>
     f7c:	7270532f 	rsbsvc	r5, r0, #-1140850688	; 0xbc000000
     f80:	31676e69 	cmncc	r7, r9, ror #28
     f84:	2f303239 	svccs	0x00303239
     f88:	34325343 	ldrtcc	r5, [r2], #-835	; 0x343
     f8c:	2f584c30 	svccs	0x00584c30
     f90:	34327363 	ldrtcc	r7, [r2], #-867	; 0x363
     f94:	2d786c30 	ldclcs	12, cr6, [r8, #-192]!	; 0xffffff40
     f98:	70733032 	rsbsvc	r3, r3, r2, lsr r0
     f9c:	696c2f72 	stmdbvs	ip!, {r1, r4, r5, r6, r8, r9, sl, fp, sp}^
     fa0:	2f697062 	svccs	0x00697062
     fa4:	6c636e69 	stclvs	14, cr6, [r3], #-420	; 0xfffffe5c
     fa8:	00656475 	rsbeq	r6, r5, r5, ror r4
     fac:	6d697400 	cfstrdvs	mvd7, [r9, #-0]
     fb0:	632e7265 	teqvs	lr, #1342177286	; 0x50000006
     fb4:	00000100 	andeq	r0, r0, r0, lsl #2
     fb8:	2e697072 	mcrcs	0, 3, r7, cr9, cr2, {3}
     fbc:	00020068 	andeq	r0, r2, r8, rrx
     fc0:	05000000 	streq	r0, [r0, #-0]
     fc4:	0095f002 	addseq	pc, r5, r2
     fc8:	2f141600 	svccs	0x00141600
     fcc:	0402002d 	streq	r0, [r2], #-45	; 0x2d
     fd0:	062e0601 	strteq	r0, [lr], -r1, lsl #12
     fd4:	4b2f316d 	blmi	bcd590 <__bss_end__+0xbc3028>
     fd8:	4b2f314d 	blmi	bcd514 <__bss_end__+0xbc2fac>
     fdc:	4c4b4c30 	mcrrmi	12, 3, r4, fp, cr0
     fe0:	2f2f6a2f 	svccs	0x002f6a2f
     fe4:	08022f84 	stmdaeq	r2, {r2, r7, r8, r9, sl, fp, sp}
     fe8:	48010100 	stmdami	r1, {r8}
     fec:	02000001 	andeq	r0, r0, #1
     ff0:	00010200 	andeq	r0, r1, r0, lsl #4
     ff4:	fb010200 	blx	417fe <__bss_end__+0x37296>
     ff8:	01000d0e 	tsteq	r0, lr, lsl #26
     ffc:	00010101 	andeq	r0, r1, r1, lsl #2
    1000:	00010000 	andeq	r0, r1, r0
    1004:	752f0100 	strvc	r0, [pc, #-256]!	; f0c <__code_start__-0x70f4>
    1008:	692f7273 	stmdbvs	pc!, {r0, r1, r4, r5, r6, r9, ip, sp, lr}	; <UNPREDICTABLE>
    100c:	756c636e 	strbvc	r6, [ip, #-878]!	; 0x36e
    1010:	6e2f6564 	cfsh64vs	mvdx6, mvdx15, #52
    1014:	696c7765 	stmdbvs	ip!, {r0, r2, r5, r6, r8, r9, sl, ip, sp, lr}^
    1018:	79732f62 	ldmdbvc	r3!, {r1, r5, r6, r8, r9, sl, fp, sp}^
    101c:	752f0073 	strvc	r0, [pc, #-115]!	; fb1 <__code_start__-0x704f>
    1020:	6c2f7273 	sfmvs	f7, 4, [pc], #-460	; e5c <__code_start__-0x71a4>
    1024:	672f6269 	strvs	r6, [pc, -r9, ror #4]!
    1028:	612f6363 	teqvs	pc, r3, ror #6
    102c:	6e2d6d72 	mcrvs	13, 1, r6, cr13, cr2, {3}
    1030:	2d656e6f 	stclcs	14, cr6, [r5, #-444]!	; 0xfffffe44
    1034:	69626165 	stmdbvs	r2!, {r0, r2, r5, r6, r8, sp, lr}^
    1038:	332e362f 	teqcc	lr, #49283072	; 0x2f00000
    103c:	692f312e 	stmdbvs	pc!, {r1, r2, r3, r5, r8, ip, sp}	; <UNPREDICTABLE>
    1040:	756c636e 	strbvc	r6, [ip, #-878]!	; 0x36e
    1044:	2f006564 	svccs	0x00006564
    1048:	656d6f68 	strbvs	r6, [sp, #-3944]!	; 0xf68
    104c:	676e652f 	strbvs	r6, [lr, -pc, lsr #10]!
    1050:	2f72656c 	svccs	0x0072656c
    1054:	73616c63 	cmnvc	r1, #25344	; 0x6300
    1058:	73632f73 	cmnvc	r3, #460	; 0x1cc
    105c:	6c303432 	cfldrsvs	mvf3, [r0], #-200	; 0xffffff38
    1060:	30322d78 	eorscc	r2, r2, r8, ror sp
    1064:	2f727073 	svccs	0x00727073
    1068:	62696c2f 	rsbvs	r6, r9, #12032	; 0x2f00
    106c:	2f006970 	svccs	0x00006970
    1070:	656d6f68 	strbvs	r6, [sp, #-3944]!	; 0xf68
    1074:	676e652f 	strbvs	r6, [lr, -pc, lsr #10]!
    1078:	2f72656c 	svccs	0x0072656c
    107c:	73616c63 	cmnvc	r1, #25344	; 0x6300
    1080:	73632f73 	cmnvc	r3, #460	; 0x1cc
    1084:	6c303432 	cfldrsvs	mvf3, [r0], #-200	; 0xffffff38
    1088:	30322d78 	eorscc	r2, r2, r8, ror sp
    108c:	2f727073 	svccs	0x00727073
    1090:	62696c2f 	rsbvs	r6, r9, #12032	; 0x2f00
    1094:	732f6970 	teqvc	pc, #112, 18	; 0x1c0000
    1098:	66666174 			; <UNDEFINED> instruction: 0x66666174
    109c:	6372732d 	cmnvs	r2, #-1275068416	; 0xb4000000
    10a0:	61750000 	cmnvs	r5, r0
    10a4:	632e7472 	teqvs	lr, #1912602624	; 0x72000000
    10a8:	00000000 	andeq	r0, r0, r0
    10ac:	6b636f6c 	blvs	18dce64 <__bss_end__+0x18d28fc>
    10b0:	0100682e 	tsteq	r0, lr, lsr #16
    10b4:	745f0000 	ldrbvc	r0, [pc], #-0	; 10bc <__code_start__-0x6f44>
    10b8:	73657079 	cmnvc	r5, #121	; 0x79
    10bc:	0100682e 	tsteq	r0, lr, lsr #16
    10c0:	74730000 	ldrbtvc	r0, [r3], #-0
    10c4:	66656464 	strbtvs	r6, [r5], -r4, ror #8
    10c8:	0200682e 	andeq	r6, r0, #3014656	; 0x2e0000
    10cc:	65720000 	ldrbvs	r0, [r2, #-0]!
    10d0:	2e746e65 	cdpcs	14, 7, cr6, cr4, cr5, {3}
    10d4:	00010068 	andeq	r0, r1, r8, rrx
    10d8:	69707200 	ldmdbvs	r0!, {r9, ip, sp, lr}^
    10dc:	0300682e 	movweq	r6, #2094	; 0x82e
    10e0:	61750000 	cmnvs	r5, r0
    10e4:	682e7472 	stmdavs	lr!, {r1, r4, r5, r6, sl, ip, sp, lr}
    10e8:	00000400 	andeq	r0, r0, r0, lsl #8
    10ec:	6f697067 	svcvs	0x00697067
    10f0:	0400682e 	streq	r6, [r0], #-2094	; 0x82e
    10f4:	00000000 	andeq	r0, r0, r0
    10f8:	96ec0205 	strbtls	r0, [ip], r5, lsl #4
    10fc:	2c030000 	stccs	0, cr0, [r3], {-0}
    1100:	0c036701 	stceq	7, cr6, [r3], {1}
    1104:	6867359e 	stmdavs	r7!, {r1, r2, r3, r4, r7, r8, sl, ip, sp}^
    1108:	0c036835 	stceq	8, cr6, [r3], {53}	; 0x35
    110c:	696b852e 	stmdbvs	fp!, {r1, r2, r3, r5, r8, sl, pc}^
    1110:	660c0369 	strvs	r0, [ip], -r9, ror #6
    1114:	4208676b 	andmi	r6, r8, #28049408	; 0x1ac0000
    1118:	364b6834 			; <UNDEFINED> instruction: 0x364b6834
    111c:	002f8768 	eoreq	r8, pc, r8, ror #14
    1120:	2f010402 	svccs	0x00010402
    1124:	67306768 	ldrvs	r6, [r0, -r8, ror #14]!
    1128:	0402004b 	streq	r0, [r2], #-75	; 0x4b
    112c:	67682f01 	strbvs	r2, [r8, -r1, lsl #30]!
    1130:	06022e69 	streq	r2, [r2], -r9, ror #28
    1134:	2b010100 	blcs	4153c <__bss_end__+0x36fd4>
    1138:	02000001 	andeq	r0, r0, #1
    113c:	0000f800 	andeq	pc, r0, r0, lsl #16
    1140:	fb010200 	blx	4194a <__bss_end__+0x373e2>
    1144:	01000d0e 	tsteq	r0, lr, lsl #26
    1148:	00010101 	andeq	r0, r1, r1, lsl #2
    114c:	00010000 	andeq	r0, r1, r0
    1150:	752f0100 	strvc	r0, [pc, #-256]!	; 1058 <__code_start__-0x6fa8>
    1154:	692f7273 	stmdbvs	pc!, {r0, r1, r4, r5, r6, r9, ip, sp, lr}	; <UNPREDICTABLE>
    1158:	756c636e 	strbvc	r6, [ip, #-878]!	; 0x36e
    115c:	6e2f6564 	cfsh64vs	mvdx6, mvdx15, #52
    1160:	696c7765 	stmdbvs	ip!, {r0, r2, r5, r6, r8, r9, sl, ip, sp, lr}^
    1164:	79732f62 	ldmdbvc	r3!, {r1, r5, r6, r8, r9, sl, fp, sp}^
    1168:	752f0073 	strvc	r0, [pc, #-115]!	; 10fd <__code_start__-0x6f03>
    116c:	6c2f7273 	sfmvs	f7, 4, [pc], #-460	; fa8 <__code_start__-0x7058>
    1170:	672f6269 	strvs	r6, [pc, -r9, ror #4]!
    1174:	612f6363 	teqvs	pc, r3, ror #6
    1178:	6e2d6d72 	mcrvs	13, 1, r6, cr13, cr2, {3}
    117c:	2d656e6f 	stclcs	14, cr6, [r5, #-444]!	; 0xfffffe44
    1180:	69626165 	stmdbvs	r2!, {r0, r2, r5, r6, r8, sp, lr}^
    1184:	332e362f 	teqcc	lr, #49283072	; 0x2f00000
    1188:	692f312e 	stmdbvs	pc!, {r1, r2, r3, r5, r8, ip, sp}	; <UNPREDICTABLE>
    118c:	756c636e 	strbvc	r6, [ip, #-878]!	; 0x36e
    1190:	2f006564 	svccs	0x00006564
    1194:	656d6f68 	strbvs	r6, [sp, #-3944]!	; 0xf68
    1198:	676e652f 	strbvs	r6, [lr, -pc, lsr #10]!
    119c:	2f72656c 	svccs	0x0072656c
    11a0:	73616c63 	cmnvc	r1, #25344	; 0x6300
    11a4:	73632f73 	cmnvc	r3, #460	; 0x1cc
    11a8:	6c303432 	cfldrsvs	mvf3, [r0], #-200	; 0xffffff38
    11ac:	30322d78 	eorscc	r2, r2, r8, ror sp
    11b0:	2f727073 	svccs	0x00727073
    11b4:	62696c2f 	rsbvs	r6, r9, #12032	; 0x2f00
    11b8:	2f006970 	svccs	0x00006970
    11bc:	656d6f68 	strbvs	r6, [sp, #-3944]!	; 0xf68
    11c0:	676e652f 	strbvs	r6, [lr, -pc, lsr #10]!
    11c4:	2f72656c 	svccs	0x0072656c
    11c8:	73616c63 	cmnvc	r1, #25344	; 0x6300
    11cc:	73632f73 	cmnvc	r3, #460	; 0x1cc
    11d0:	6c303432 	cfldrsvs	mvf3, [r0], #-200	; 0xffffff38
    11d4:	30322d78 	eorscc	r2, r2, r8, ror sp
    11d8:	2f727073 	svccs	0x00727073
    11dc:	62696c2f 	rsbvs	r6, r9, #12032	; 0x2f00
    11e0:	732f6970 	teqvc	pc, #112, 18	; 0x1c0000
    11e4:	66666174 			; <UNDEFINED> instruction: 0x66666174
    11e8:	6372732d 	cmnvs	r2, #-1275068416	; 0xb4000000
    11ec:	70670000 	rsbvc	r0, r7, r0
    11f0:	632e6f69 	teqvs	lr, #420	; 0x1a4
    11f4:	00000000 	andeq	r0, r0, r0
    11f8:	6b636f6c 	blvs	18dcfb0 <__bss_end__+0x18d2a48>
    11fc:	0100682e 	tsteq	r0, lr, lsr #16
    1200:	745f0000 	ldrbvc	r0, [pc], #-0	; 1208 <__code_start__-0x6df8>
    1204:	73657079 	cmnvc	r5, #121	; 0x79
    1208:	0100682e 	tsteq	r0, lr, lsr #16
    120c:	74730000 	ldrbtvc	r0, [r3], #-0
    1210:	66656464 	strbtvs	r6, [r5], -r4, ror #8
    1214:	0200682e 	andeq	r6, r0, #3014656	; 0x2e0000
    1218:	65720000 	ldrbvs	r0, [r2, #-0]!
    121c:	2e746e65 	cdpcs	14, 7, cr6, cr4, cr5, {3}
    1220:	00010068 	andeq	r0, r1, r8, rrx
    1224:	69707200 	ldmdbvs	r0!, {r9, ip, sp, lr}^
    1228:	0300682e 	movweq	r6, #2094	; 0x82e
    122c:	70670000 	rsbvc	r0, r7, r0
    1230:	682e6f69 	stmdavs	lr!, {r0, r3, r5, r6, r8, r9, sl, fp, sp, lr}
    1234:	00000400 	andeq	r0, r0, r0, lsl #8
    1238:	02050000 	andeq	r0, r5, #0
    123c:	00009864 	andeq	r9, r0, r4, ror #16
    1240:	13012703 	movwne	r2, #5891	; 0x1703
    1244:	f44f474c 	vst1.16	{d20}, [pc], ip
    1248:	a14c4b68 	cmpge	ip, r8, ror #22
    124c:	49136a2f 	ldmdbmi	r3, {r0, r1, r2, r3, r5, r9, fp, sp, lr}
    1250:	4913be31 	ldmdbmi	r3, {r0, r4, r5, r9, sl, fp, ip, sp, pc}
    1254:	6a2fbe31 	bvs	bf0b20 <__bss_end__+0xbe65b8>
    1258:	4f484d2f 	svcmi	0x00484d2f
    125c:	2f324913 	svccs	0x00324913
    1260:	000602b7 			; <UNDEFINED> instruction: 0x000602b7
    1264:	Address 0x0000000000001264 is out of bounds.


Disassembly of section .debug_str:

00000000 <.debug_str>:
   0:	705f6e6f 	subsvc	r6, pc, pc, ror #28
   4:	65686300 	strbvs	r6, [r8, #-768]!	; 0x300
   8:	72656b63 	rsbvc	r6, r5, #101376	; 0x18c00
   c:	7300745f 	movwvc	r7, #1119	; 0x45f
  10:	74726f68 	ldrbtvc	r6, [r2], #-3944	; 0xf68
  14:	746e6920 	strbtvc	r6, [lr], #-2336	; 0x920
  18:	69777300 	ldmdbvs	r7!, {r8, r9, ip, sp, lr}^
  1c:	65686374 	strbvs	r6, [r8, #-884]!	; 0x374
  20:	00705f64 	rsbseq	r5, r0, r4, ror #30
  24:	5f737065 	svcpl	0x00737065
  28:	63656863 	cmnvs	r5, #6488064	; 0x630000
  2c:	552f006b 	strpl	r0, [pc, #-107]!	; ffffffc9 <__bss_end__+0xffff5a61>
  30:	73726573 	cmnvc	r2, #482344960	; 0x1cc00000
  34:	6972622f 	ldmdbvs	r2!, {r0, r1, r2, r3, r5, r9, sp, lr}^
  38:	756a6e61 	strbvc	r6, [sl, #-3681]!	; 0xe61
  3c:	65442f6e 	strbvs	r2, [r4, #-3950]	; 0xf6e
  40:	6f746b73 	svcvs	0x00746b73
  44:	63732f70 	cmnvs	r3, #112, 30	; 0x1c0
  48:	6c6f6f68 	stclvs	15, cr6, [pc], #-416	; fffffeb0 <__bss_end__+0xffff5948>
  4c:	7270532f 	rsbsvc	r5, r0, #-1140850688	; 0xbc000000
  50:	31676e69 	cmncc	r7, r9, ror #28
  54:	2f303239 	svccs	0x00303239
  58:	34325343 	ldrtcc	r5, [r2], #-835	; 0x343
  5c:	2f584c30 	svccs	0x00584c30
  60:	34327363 	ldrtcc	r7, [r2], #-867	; 0x363
  64:	2d786c30 	ldclcs	12, cr6, [r8, #-192]!	; 0xffffff40
  68:	70733032 	rsbsvc	r3, r3, r2, lsr r0
  6c:	616c2f72 	smcvs	49906	; 0xc2f2
  70:	312f7362 	teqcc	pc, r2, ror #6
  74:	69732d36 	ldmdbvs	r3!, {r1, r2, r4, r5, r8, sl, fp, sp}^
  78:	656c676e 	strbvs	r6, [ip, #-1902]!	; 0x76e
  7c:	6574732d 	ldrbvs	r7, [r4, #-813]!	; 0x32d
  80:	6f632f70 	svcvs	0x00632f70
  84:	6e006564 	cfsh32vs	mvfx6, mvfx0, #52
  88:	616d746f 	cmnvs	sp, pc, ror #8
  8c:	65006e69 	strvs	r6, [r0, #-3689]	; 0xe69
  90:	415f7370 	cmpmi	pc, r0, ror r3	; <UNPREDICTABLE>
  94:	6b726200 	blvs	1c9889c <__bss_end__+0x1c8e334>
  98:	7265765f 	rsbvc	r7, r5, #99614720	; 0x5f00000
  9c:	65736f62 	ldrbvs	r6, [r3, #-3938]!	; 0xf62
  a0:	73706500 	cmnvc	r0, #0, 10
  a4:	6e00425f 	mcrvs	2, 0, r4, cr0, cr15, {2}
  a8:	6f727265 	svcvs	0x00727265
  ac:	73007372 	movwvc	r7, #882	; 0x372
  b0:	63746977 	cmnvs	r4, #1949696	; 0x1dc000
  b4:	6e6f5f68 	cdpvs	15, 6, cr5, cr15, cr8, {3}
  b8:	736e695f 	cmnvc	lr, #1556480	; 0x17c000
  bc:	006e5f74 	rsbeq	r5, lr, r4, ror pc
  c0:	69736e75 	ldmdbvs	r3!, {r0, r2, r4, r5, r6, r9, sl, fp, sp, lr}^
  c4:	64656e67 	strbtvs	r6, [r5], #-3687	; 0xe67
  c8:	61686320 	cmnvs	r8, r0, lsr #6
  cc:	6c630072 	stclvs	0, cr0, [r3], #-456	; 0xfffffe38
  d0:	5f6e6165 	svcpl	0x006e6165
  d4:	6f626572 	svcvs	0x00626572
  d8:	6900746f 	stmdbvs	r0, {r0, r1, r2, r3, r5, r6, sl, ip, sp, lr}
  dc:	5f74736e 	svcpl	0x0074736e
  e0:	6e756f63 	cdpvs	15, 7, cr6, cr5, cr3, {3}
  e4:	68730074 	ldmdavs	r3!, {r2, r4, r5, r6}^
  e8:	2074726f 	rsbscs	r7, r4, pc, ror #4
  ec:	69736e75 	ldmdbvs	r3!, {r0, r2, r4, r5, r6, r9, sl, fp, sp, lr}^
  f0:	64656e67 	strbtvs	r6, [r5], #-3687	; 0xe67
  f4:	746e6920 	strbtvc	r6, [lr], #-2336	; 0x920
  f8:	6b726200 	blvs	1c98900 <__bss_end__+0x1c8e398>
  fc:	7265765f 	rsbvc	r7, r5, #99614720	; 0x5f00000
 100:	65736f62 	ldrbvs	r6, [r3, #-3938]!	; 0xf62
 104:	6500705f 	strvs	r7, [r0, #-95]	; 0x5f
 108:	695f7370 	ldmdbvs	pc, {r4, r5, r6, r8, r9, ip, sp, lr}^	; <UNPREDICTABLE>
 10c:	0074696e 	rsbseq	r6, r4, lr, ror #18
 110:	55465f5f 	strbpl	r5, [r6, #-3935]	; 0xf5f
 114:	4954434e 	ldmdbmi	r4, {r1, r2, r3, r6, r8, r9, lr}^
 118:	5f5f4e4f 	svcpl	0x005f4e4f
 11c:	746e6900 	strbtvc	r6, [lr], #-2304	; 0x900
 120:	656c7265 	strbvs	r7, [ip, #-613]!	; 0x265
 124:	6e697661 	cdpvs	6, 6, cr7, cr9, cr1, {3}
 128:	00705f67 	rsbseq	r5, r0, r7, ror #30
 12c:	74736574 	ldrbtvc	r6, [r3], #-1396	; 0x574
 130:	302e3273 	eorcc	r3, lr, r3, ror r2
 134:	2d36312f 	ldfcss	f3, [r6, #-188]!	; 0xffffff44
 138:	74726170 	ldrbtvc	r6, [r2], #-368	; 0x170
 13c:	65742d32 	ldrbvs	r2, [r4, #-3378]!	; 0xd32
 140:	2e337473 	mrccs	4, 1, r7, cr3, cr3, {3}
 144:	4e470063 	cdpmi	0, 4, cr0, cr7, cr3, {3}
 148:	20432055 	subcs	r2, r3, r5, asr r0
 14c:	2e382e34 	mrccs	14, 1, r2, cr8, cr4, {1}
 150:	6d2d2033 	stcvs	0, cr2, [sp, #-204]!	; 0xffffff34
 154:	3d757063 	ldclcc	0, cr7, [r5, #-396]!	; 0xfffffe74
 158:	316d7261 	cmncc	sp, r1, ror #4
 15c:	6a363731 	bvs	d8de28 <__bss_end__+0xd838c0>
 160:	732d667a 	teqvc	sp, #127926272	; 0x7a00000
 164:	746d2d20 	strbtvc	r2, [sp], #-3360	; 0xd20
 168:	3d656e75 	stclcc	14, cr6, [r5, #-468]!	; 0xfffffe2c
 16c:	316d7261 	cmncc	sp, r1, ror #4
 170:	6a363731 	bvs	d8de3c <__bss_end__+0xd838d4>
 174:	732d667a 	teqvc	sp, #127926272	; 0x7a00000
 178:	67672d20 	strbvs	r2, [r7, -r0, lsr #26]!
 17c:	2d206264 	sfmcs	f6, 4, [r0, #-400]!	; 0xfffffe70
 180:	2d20674f 	stccs	7, cr6, [r0, #-316]!	; 0xfffffec4
 184:	3d647473 	cfstrdcc	mvd7, [r4, #-460]!	; 0xfffffe34
 188:	39756e67 	ldmdbcc	r5!, {r0, r1, r2, r5, r6, r9, sl, fp, sp, lr}^
 18c:	662d2039 			; <UNDEFINED> instruction: 0x662d2039
 190:	65657266 	strbvs	r7, [r5, #-614]!	; 0x266
 194:	6e617473 	mcrvs	4, 3, r7, cr1, cr3, {3}
 198:	676e6964 	strbvs	r6, [lr, -r4, ror #18]!
 19c:	6e662d20 	cdpvs	13, 6, cr2, cr6, cr0, {1}
 1a0:	6f742d6f 	svcvs	0x00742d6f
 1a4:	76656c70 			; <UNDEFINED> instruction: 0x76656c70
 1a8:	722d6c65 	eorvc	r6, sp, #25856	; 0x6500
 1ac:	64726f65 	ldrbtvs	r6, [r2], #-3941	; 0xf65
 1b0:	6c007265 	sfmvs	f7, 4, [r0], {101}	; 0x65
 1b4:	20676e6f 	rsbcs	r6, r7, pc, ror #28
 1b8:	676e6f6c 	strbvs	r6, [lr, -ip, ror #30]!
 1bc:	736e7520 	cmnvc	lr, #32, 10	; 0x8000000
 1c0:	656e6769 	strbvs	r6, [lr, #-1897]!	; 0x769
 1c4:	6e692064 	cdpvs	0, 6, cr2, cr9, cr4, {3}
 1c8:	70650074 	rsbvc	r0, r5, r4, ror r0
 1cc:	6b6d5f73 	blvs	1b57fa0 <__bss_end__+0x1b4da38>
 1d0:	6568635f 	strbvs	r6, [r8, #-863]!	; 0x35f
 1d4:	72656b63 	rsbvc	r6, r5, #101376	; 0x18c00
 1d8:	77736e00 	ldrbvc	r6, [r3, -r0, lsl #28]!
 1dc:	68637469 	stmdavs	r3!, {r0, r3, r5, r6, sl, ip, sp, lr}^
 1e0:	73007365 	movwvc	r7, #869	; 0x365
 1e4:	74657a69 	strbtvc	r7, [r5], #-2665	; 0xa69
 1e8:	00657079 	rsbeq	r7, r5, r9, ror r0
 1ec:	676e6f6c 	strbvs	r6, [lr, -ip, ror #30]!
 1f0:	6e6f6c20 	cdpvs	12, 6, cr6, cr15, cr0, {1}
 1f4:	6e692067 	cdpvs	0, 6, cr2, cr9, cr7, {3}
 1f8:	746e0074 	strbtvc	r0, [lr], #-116	; 0x74
 1fc:	6c616972 	stclvs	9, cr6, [r1], #-456	; 0xfffffe38
 200:	77730073 			; <UNDEFINED> instruction: 0x77730073
 204:	68637469 	stmdavs	r3!, {r0, r3, r5, r6, sl, ip, sp, lr}^
 208:	6464615f 	strbtvs	r6, [r4], #-351	; 0x15f
 20c:	6e650072 	mcrvs	0, 3, r0, cr5, cr2, {3}
 210:	656c6261 	strbvs	r6, [ip, #-609]!	; 0x261
 214:	6361635f 	cmnvs	r1, #2080374785	; 0x7c000001
 218:	75006568 	strvc	r6, [r0, #-1384]	; 0x568
 21c:	33746e69 	cmncc	r4, #1680	; 0x690
 220:	00745f32 	rsbseq	r5, r4, r2, lsr pc
 224:	70696b73 	rsbvc	r6, r9, r3, ror fp
 228:	70720073 	rsbsvc	r0, r2, r3, ror r0
 22c:	65725f69 	ldrbvs	r5, [r2, #-3945]!	; 0xf69
 230:	5f746573 	svcpl	0x00746573
 234:	63747570 	cmnvs	r4, #112, 10	; 0x1c000000
 238:	74616400 	strbtvc	r6, [r1], #-1024	; 0x400
 23c:	62615f61 	rsbvs	r5, r1, #388	; 0x184
 240:	5f74726f 	svcpl	0x0074726f
 244:	74636576 	strbtvc	r6, [r3], #-1398	; 0x576
 248:	7000726f 	andvc	r7, r0, pc, ror #4
 24c:	65666572 	strbvs	r6, [r6, #-1394]!	; 0x572
 250:	5f686374 	svcpl	0x00686374
 254:	726f6261 	rsbvc	r6, pc, #268435462	; 0x10000006
 258:	65765f74 	ldrbvs	r5, [r6, #-3956]!	; 0xf74
 25c:	726f7463 	rsbvc	r7, pc, #1660944384	; 0x63000000
 260:	73617700 	cmnvc	r1, #0, 14
 264:	6265645f 	rsbvs	r6, r5, #1593835520	; 0x5f000000
 268:	645f6775 	ldrbvs	r6, [pc], #-1909	; 270 <__code_start__-0x7d90>
 26c:	66617461 	strbtvs	r7, [r1], -r1, ror #8
 270:	746c7561 	strbtvc	r7, [ip], #-1377	; 0x561
 274:	31706300 	cmncc	r0, r0, lsl #6
 278:	65642d34 	strbvs	r2, [r4, #-3380]!	; 0xd34
 27c:	2e677562 	cdpcs	5, 6, cr7, cr7, cr2, {3}
 280:	61770063 	cmnvs	r7, r3, rrx
 284:	65645f73 	strbvs	r5, [r4, #-3955]!	; 0xf73
 288:	5f677562 	svcpl	0x00677562
 28c:	74736e69 	ldrbtvc	r6, [r3], #-3689	; 0xe69
 290:	6c756166 	ldfvse	f6, [r5], #-408	; 0xfffffe68
 294:	73640074 	cmnvc	r4, #116	; 0x74
 298:	735f7263 	cmpvc	pc, #805306374	; 0x30000006
 29c:	77007465 	strvc	r7, [r0, -r5, ror #8]
 2a0:	5f307263 	svcpl	0x00307263
 2a4:	00676572 	rsbeq	r6, r7, r2, ror r5
 2a8:	30726377 	rsbscc	r6, r2, r7, ror r3
 2ac:	7465675f 	strbtvc	r6, [r5], #-1887	; 0x75f
 2b0:	696e6900 	stmdbvs	lr!, {r8, fp, sp, lr}^
 2b4:	00705f74 	rsbseq	r5, r0, r4, ror pc
 2b8:	706b7262 	rsbvc	r7, fp, r2, ror #4
 2bc:	61685f74 	smcvs	34292	; 0x85f4
 2c0:	656c646e 	strbvs	r6, [ip, #-1134]!	; 0x46e
 2c4:	63003072 	movwvs	r3, #114	; 0x72
 2c8:	5f343170 	svcpl	0x00343170
 2cc:	30726362 	rsbscc	r6, r2, r2, ror #6
 2d0:	7465735f 	strbtvc	r7, [r5], #-863	; 0x35f
 2d4:	72767700 	rsbsvc	r7, r6, #0, 14
 2d8:	61765f30 	cmnvs	r6, r0, lsr pc
 2dc:	6177006c 	cmnvs	r7, ip, rrx
 2e0:	70686374 	rsbvc	r6, r8, r4, ror r3
 2e4:	65735f74 	ldrbvs	r5, [r3, #-3956]!	; 0xf74
 2e8:	77003074 	smlsdxvc	r0, r4, r0, r3
 2ec:	5f307276 	svcpl	0x00307276
 2f0:	00746573 	rsbseq	r6, r4, r3, ror r5
 2f4:	5f6b7262 	svcpl	0x006b7262
 2f8:	725f6f6e 	subsvc	r6, pc, #440	; 0x1b8
 2fc:	655f7465 	ldrbvs	r7, [pc, #-1125]	; fffffe9f <__bss_end__+0xffff5937>
 300:	726f7272 	rsbvc	r7, pc, #536870919	; 0x20000007
 304:	31706300 	cmncc	r0, r0, lsl #6
 308:	63625f34 	cmnvs	r2, #52, 30	; 0xd0
 30c:	675f3072 			; <UNDEFINED> instruction: 0x675f3072
 310:	62007465 	andvs	r7, r0, #1694498816	; 0x65000000
 314:	74706b72 	ldrbtvc	r6, [r0], #-2930	; 0xb72
 318:	73696d5f 	cmnvc	r9, #6080	; 0x17c0
 31c:	6374616d 	cmnvs	r4, #1073741851	; 0x4000001b
 320:	65735f68 	ldrbvs	r5, [r3, #-3944]!	; 0xf68
 324:	64003074 	strvs	r3, [r0], #-116	; 0x74
 328:	5f727366 	svcpl	0x00727366
 32c:	006c6176 	rsbeq	r6, ip, r6, ror r1
 330:	72616669 	rsbvc	r6, r1, #110100480	; 0x6900000
 334:	7465675f 	strbtvc	r6, [r5], #-1887	; 0x75f
 338:	73666900 	cmnvc	r6, #0, 18
 33c:	65675f72 	strbvs	r5, [r7, #-3954]!	; 0xf72
 340:	61770074 	cmnvs	r7, r4, ror r0
 344:	70686374 	rsbvc	r6, r8, r4, ror r3
 348:	61685f74 	smcvs	34292	; 0x85f4
 34c:	656c646e 	strbvs	r6, [ip, #-1134]!	; 0x46e
 350:	62003072 	andvs	r3, r0, #114	; 0x72
 354:	74706b72 	ldrbtvc	r6, [r0], #-2930	; 0xb72
 358:	73696d5f 	cmnvc	r9, #6080	; 0x17c0
 35c:	6374616d 	cmnvs	r4, #1073741851	; 0x4000001b
 360:	69645f68 	stmdbvs	r4!, {r3, r5, r6, r8, r9, sl, fp, ip, lr}^
 364:	6c626173 	stfvse	f6, [r2], #-460	; 0xfffffe34
 368:	64003065 	strvs	r3, [r0], #-101	; 0x65
 36c:	66617461 	strbtvs	r7, [r1], -r1, ror #8
 370:	746c7561 	strbtvc	r7, [ip], #-1377	; 0x561
 374:	6f72665f 	svcvs	0x0072665f
 378:	646c5f6d 	strbtvs	r5, [ip], #-3949	; 0xf6d
 37c:	31706300 	cmncc	r0, r0, lsl #6
 380:	76625f34 	uqasxvc	r5, r2, r4
 384:	735f3072 	cmpvc	pc, #114	; 0x72
 388:	77007465 	strvc	r7, [r0, -r5, ror #8]
 38c:	645f7361 	ldrbvs	r7, [pc], #-865	; 394 <__code_start__-0x7c6c>
 390:	67756265 	ldrbvs	r6, [r5, -r5, ror #4]!
 394:	6c756166 	ldfvse	f6, [r5], #-408	; 0xfffffe68
 398:	00725f74 	rsbseq	r5, r2, r4, ror pc
 39c:	34317063 	ldrtcc	r7, [r1], #-99	; 0x63
 3a0:	616e655f 	cmnvs	lr, pc, asr r5
 3a4:	00656c62 	rsbeq	r6, r5, r2, ror #24
 3a8:	7561666e 	strbvc	r6, [r1, #-1646]!	; 0x66e
 3ac:	0073746c 	rsbseq	r7, r3, ip, ror #8
 3b0:	30727662 	rsbscc	r7, r2, r2, ror #12
 3b4:	6c61765f 	stclvs	6, cr7, [r1], #-380	; 0xfffffe84
 3b8:	73666400 	cmnvc	r6, #0, 8
 3bc:	65675f72 	strbvs	r5, [r7, #-3954]!	; 0xf72
 3c0:	79730074 	ldmdbvc	r3!, {r2, r4, r5, r6}^
 3c4:	6c616373 	stclvs	3, cr6, [r1], #-460	; 0xfffffe34
 3c8:	65765f6c 	ldrbvs	r5, [r6, #-3948]!	; 0xf6c
 3cc:	726f7463 	rsbvc	r7, pc, #1660944384	; 0x63000000
 3d0:	65727000 	ldrbvs	r7, [r2, #-0]!
 3d4:	63746566 	cmnvs	r4, #427819008	; 0x19800000
 3d8:	6c665f68 	stclvs	15, cr5, [r6], #-416	; 0xfffffe60
 3dc:	5f687375 	svcpl	0x00687375
 3e0:	00746573 	rsbseq	r6, r4, r3, ror r5
 3e4:	30726362 	rsbscc	r6, r2, r2, ror #6
 3e8:	6765725f 			; <UNDEFINED> instruction: 0x6765725f
 3ec:	6e616800 	cdpvs	8, 6, cr6, cr1, cr0, {0}
 3f0:	72656c64 	rsbvc	r6, r5, #100, 24	; 0x6400
 3f4:	7700745f 	smlsdvc	r0, pc, r4, r7	; <UNPREDICTABLE>
 3f8:	5f726166 	svcpl	0x00726166
 3fc:	00746567 	rsbseq	r6, r4, r7, ror #10
 400:	5f737973 	svcpl	0x00737973
 404:	006d756e 	rsbeq	r7, sp, lr, ror #10
 408:	706b7262 	rsbvc	r7, fp, r2, ror #4
 40c:	65735f74 	ldrbvs	r5, [r3, #-3956]!	; 0xf74
 410:	77003074 	smlsdxvc	r0, r4, r0, r3
 414:	5f307263 	svcpl	0x00307263
 418:	00746573 	rsbseq	r6, r4, r3, ror r5
 41c:	5f746e69 	svcpl	0x00746e69
 420:	74696e69 	strbtvc	r6, [r9], #-3689	; 0xe69
 424:	6e697300 	cdpvs	3, 6, cr7, cr9, cr0, {0}
 428:	5f656c67 	svcpl	0x00656c67
 42c:	70657473 	rsbvc	r7, r5, r3, ror r4
 430:	6e61685f 	mcrvs	8, 3, r6, cr1, cr15, {2}
 434:	72656c64 	rsbvc	r6, r5, #100, 24	; 0x6400
 438:	65686300 	strbvs	r6, [r8, #-768]!	; 0x300
 43c:	7a5f6b63 	bvc	17db1d0 <__bss_end__+0x17d0c68>
 440:	006f7265 	rsbeq	r7, pc, r5, ror #4
 444:	63656863 	cmnvs	r5, #6488064	; 0x630000
 448:	6e692d6b 	cdpvs	13, 6, cr2, cr9, cr11, {3}
 44c:	6c726574 	cfldr64vs	mvdx6, [r2], #-464	; 0xfffffe30
 450:	65766165 	ldrbvs	r6, [r6, #-357]!	; 0x165
 454:	7500632e 	strvc	r6, [r0, #-814]	; 0x32e
 458:	5f726573 	svcpl	0x00726573
 45c:	6d617274 	sfmvs	f7, 2, [r1, #-464]!	; 0xfffffe30
 460:	696c6f70 	stmdbvs	ip!, {r4, r5, r6, r8, r9, sl, fp, sp, lr}^
 464:	725f656e 	subsvc	r6, pc, #461373440	; 0x1b800000
 468:	63007465 	movwvs	r7, #1125	; 0x465
 46c:	5f727370 	svcpl	0x00727370
 470:	00746567 	rsbseq	r6, r4, r7, ror #10
 474:	65707865 	ldrbvs	r7, [r0, #-2149]!	; 0x865
 478:	64657463 	strbtvs	r7, [r5], #-1123	; 0x463
 47c:	6e61685f 	mcrvs	8, 3, r6, cr1, cr15, {2}
 480:	00656c64 	rsbeq	r6, r5, r4, ror #24
 484:	6b73616d 	blvs	1cd8a40 <__bss_end__+0x1cce4d8>
 488:	74696200 	strbtvc	r6, [r9], #-512	; 0x200
 48c:	6c635f73 	stclvs	15, cr5, [r3], #-460	; 0xfffffe34
 490:	68630072 	stmdavs	r3!, {r1, r4, r5, r6}^
 494:	5f6b6365 	svcpl	0x006b6365
 498:	5f656e6f 	svcpl	0x00656e6f
 49c:	69777363 	ldmdbvs	r7!, {r0, r1, r5, r6, r8, r9, ip, sp, lr}^
 4a0:	00686374 	rsbeq	r6, r8, r4, ror r3
 4a4:	65646f6d 	strbvs	r6, [r4, #-3949]!	; 0xf6d
 4a8:	7274735f 	rsbsvc	r7, r4, #2080374785	; 0x7c000001
 4ac:	646f6d00 	strbtvs	r6, [pc], #-3328	; 4b4 <__code_start__-0x7b4c>
 4b0:	65735f65 	ldrbvs	r5, [r3, #-3941]!	; 0xf65
 4b4:	68630074 	stmdavs	r3!, {r2, r4, r5, r6}^
 4b8:	5f6b6365 	svcpl	0x006b6365
 4bc:	75716573 	ldrbvc	r6, [r1, #-1395]!	; 0x573
 4c0:	69746e65 	ldmdbvs	r4!, {r0, r2, r5, r6, r9, sl, fp, sp, lr}^
 4c4:	63006c61 	movwvs	r6, #3169	; 0xc61
 4c8:	5f727370 	svcpl	0x00727370
 4cc:	00646c6f 	rsbeq	r6, r4, pc, ror #24
 4d0:	73746962 	cmnvc	r4, #1605632	; 0x188000
 4d4:	7465675f 	strbtvc	r6, [r5], #-1887	; 0x75f
 4d8:	73706300 	cmnvc	r0, #0, 6
 4dc:	73755f72 	cmnvc	r5, #456	; 0x1c8
 4e0:	63007265 	movwvs	r7, #613	; 0x265
 4e4:	00727370 	rsbseq	r7, r2, r0, ror r3
 4e8:	65646f6d 	strbvs	r6, [r4, #-3949]!	; 0xf6d
 4ec:	67656c5f 			; <UNDEFINED> instruction: 0x67656c5f
 4f0:	6d006c61 	stcvs	12, cr6, [r0, #-388]	; 0xfffffe7c
 4f4:	5f65646f 	svcpl	0x0065646f
 4f8:	00746567 	rsbseq	r6, r4, r7, ror #10
 4fc:	73676572 	cmnvc	r7, #478150656	; 0x1c800000
 500:	646f6d00 	strbtvs	r6, [pc], #-3328	; 508 <__code_start__-0x7af8>
 504:	5f5f0065 	svcpl	0x005f0065
 508:	63756e67 	cmnvs	r5, #1648	; 0x670
 50c:	5f61765f 	svcpl	0x0061765f
 510:	7473696c 	ldrbtvc	r6, [r3], #-2412	; 0x96c
 514:	62696c00 	rsbvs	r6, r9, #0, 24
 518:	72702f63 	rsbsvc	r2, r0, #396	; 0x18c
 51c:	6b746e69 	blvs	1d1bec8 <__bss_end__+0x1d11960>
 520:	4700632e 	strmi	r6, [r0, -lr, lsr #6]
 524:	4320554e 	teqmi	r0, #327155712	; 0x13800000
 528:	382e3420 	stmdacc	lr!, {r5, sl, ip, sp}
 52c:	2d20332e 	stccs	3, cr3, [r0, #-184]!	; 0xffffff48
 530:	7570636d 	ldrbvc	r6, [r0, #-877]!	; 0x36d
 534:	6d72613d 	ldfvse	f6, [r2, #-244]!	; 0xffffff0c
 538:	36373131 			; <UNDEFINED> instruction: 0x36373131
 53c:	2d667a6a 	vstmdbcs	r6!, {s15-s120}
 540:	6d2d2073 	stcvs	0, cr2, [sp, #-460]!	; 0xfffffe34
 544:	656e7574 	strbvs	r7, [lr, #-1396]!	; 0x574
 548:	6d72613d 	ldfvse	f6, [r2, #-244]!	; 0xffffff0c
 54c:	36373131 			; <UNDEFINED> instruction: 0x36373131
 550:	2d667a6a 	vstmdbcs	r6!, {s15-s120}
 554:	672d2073 			; <UNDEFINED> instruction: 0x672d2073
 558:	20626467 	rsbcs	r6, r2, r7, ror #8
 55c:	20674f2d 	rsbcs	r4, r7, sp, lsr #30
 560:	6474732d 	ldrbtvs	r7, [r4], #-813	; 0x32d
 564:	756e673d 	strbvc	r6, [lr, #-1853]!	; 0x73d
 568:	2d203939 	stccs	9, cr3, [r0, #-228]!	; 0xffffff1c
 56c:	65726666 	ldrbvs	r6, [r2, #-1638]!	; 0x666
 570:	61747365 	cmnvs	r4, r5, ror #6
 574:	6e69646e 	cdpvs	4, 6, cr6, cr9, cr14, {3}
 578:	61760067 	cmnvs	r6, r7, rrx
 57c:	6972705f 	ldmdbvs	r2!, {r0, r1, r2, r3, r4, r6, ip, sp, lr}^
 580:	006b746e 	rsbeq	r7, fp, lr, ror #8
 584:	61765f5f 	cmnvs	r6, pc, asr pc
 588:	73696c5f 	cmnvc	r9, #24320	; 0x5f00
 58c:	552f0074 	strpl	r0, [pc, #-116]!	; 520 <__code_start__-0x7ae0>
 590:	73726573 	cmnvc	r2, #482344960	; 0x1cc00000
 594:	6972622f 	ldmdbvs	r2!, {r0, r1, r2, r3, r5, r9, sp, lr}^
 598:	756a6e61 	strbvc	r6, [sl, #-3681]!	; 0xe61
 59c:	65442f6e 	strbvs	r2, [r4, #-3950]	; 0xf6e
 5a0:	6f746b73 	svcvs	0x00746b73
 5a4:	63732f70 	cmnvs	r3, #112, 30	; 0x1c0
 5a8:	6c6f6f68 	stclvs	15, cr6, [pc], #-416	; 410 <__code_start__-0x7bf0>
 5ac:	7270532f 	rsbsvc	r5, r0, #-1140850688	; 0xbc000000
 5b0:	31676e69 	cmncc	r7, r9, ror #28
 5b4:	2f303239 	svccs	0x00303239
 5b8:	34325343 	ldrtcc	r5, [r2], #-835	; 0x343
 5bc:	2f584c30 	svccs	0x00584c30
 5c0:	34327363 	ldrtcc	r7, [r2], #-867	; 0x363
 5c4:	2d786c30 	ldclcs	12, cr6, [r8, #-192]!	; 0xffffff40
 5c8:	70733032 	rsbsvc	r3, r3, r2, lsr r0
 5cc:	696c2f72 	stmdbvs	ip!, {r1, r4, r5, r6, r8, r9, sl, fp, sp}^
 5d0:	00697062 	rsbeq	r7, r9, r2, rrx
 5d4:	70615f5f 	rsbvc	r5, r1, pc, asr pc
 5d8:	72617500 	rsbvc	r7, r1, #0, 10
 5dc:	75705f74 	ldrbvc	r5, [r0, #-3956]!	; 0xf74
 5e0:	69006374 	stmdbvs	r0, {r2, r4, r5, r6, r8, r9, sp, lr}
 5e4:	7265746e 	rsbvc	r7, r5, #1845493760	; 0x6e000000
 5e8:	5f6c616e 	svcpl	0x006c616e
 5ec:	63747570 	cmnvs	r4, #112, 10	; 0x1c000000
 5f0:	00726168 	rsbseq	r6, r2, r8, ror #2
 5f4:	5f697072 	svcpl	0x00697072
 5f8:	63747570 	cmnvs	r4, #112, 10	; 0x1c000000
 5fc:	00726168 	rsbseq	r6, r2, r8, ror #2
 600:	6362696c 	cmnvs	r2, #108, 18	; 0x1b0000
 604:	7475702f 	ldrbtvc	r7, [r5], #-47	; 0x2f
 608:	72616863 	rsbvc	r6, r1, #6488064	; 0x630000
 60c:	7200632e 	andvc	r6, r0, #-1207959552	; 0xb8000000
 610:	735f6970 	cmpvc	pc, #112, 18	; 0x1c0000
 614:	705f7465 	subsvc	r7, pc, r5, ror #8
 618:	00637475 	rsbeq	r7, r3, r5, ror r4
 61c:	6362696c 	cmnvs	r2, #108, 18	; 0x1b0000
 620:	7475702f 	ldrbtvc	r7, [r5], #-47	; 0x2f
 624:	00632e6b 	rsbeq	r2, r3, fp, ror #28
 628:	65746e69 	ldrbvs	r6, [r4, #-3689]!	; 0xe69
 62c:	6c616e72 	stclvs	14, cr6, [r1], #-456	; 0xfffffe38
 630:	7475705f 	ldrbtvc	r7, [r5], #-95	; 0x5f
 634:	6d66006b 	stclvs	0, cr0, [r6, #-428]!	; 0xfffffe54
 638:	74735f74 	ldrbtvc	r5, [r3], #-3956	; 0xf74
 63c:	00747261 	rsbseq	r7, r4, r1, ror #4
 640:	5f67656e 	svcpl	0x0067656e
 644:	65720070 	ldrbvs	r0, [r2, #-112]!	; 0x70
 648:	73726576 	cmnvc	r2, #494927872	; 0x1d800000
 64c:	73690065 	cmnvc	r9, #101	; 0x65
 650:	69676964 	stmdbvs	r7!, {r2, r5, r6, r8, fp, sp, lr}^
 654:	75700074 	ldrbvc	r0, [r0, #-116]!	; 0x74
 658:	665f7374 			; <UNDEFINED> instruction: 0x665f7374
 65c:	69730070 	ldmdbvs	r3!, {r4, r5, r6}^
 660:	64656e67 	strbtvs	r6, [r5], #-3687	; 0xe67
 664:	6c00705f 	stcvs	0, cr7, [r0], {95}	; 0x5f
 668:	2f636269 	svccs	0x00636269
 66c:	702d6176 	eorvc	r6, sp, r6, ror r1
 670:	746e6972 	strbtvc	r6, [lr], #-2418	; 0x972
 674:	00632e6b 	rsbeq	r2, r3, fp, ror #28
 678:	5f697072 	svcpl	0x00697072
 67c:	5f746573 	svcpl	0x00746573
 680:	7074756f 	rsbsvc	r7, r4, pc, ror #10
 684:	77007475 	smlsdxvc	r0, r5, r4, r7
 688:	68746469 	ldmdavs	r4!, {r0, r3, r5, r6, sl, sp, lr}^
 68c:	74757000 	ldrbtvc	r7, [r5], #-0
 690:	70665f63 	rsbvc	r5, r6, r3, ror #30
 694:	696d6500 	stmdbvs	sp!, {r8, sl, sp, lr}^
 698:	69640074 	stmdbvs	r4!, {r2, r4, r5, r6}^
 69c:	6c626173 	stfvse	f6, [r2], #-460	; 0xfffffe34
 6a0:	61635f65 	cmnvs	r3, r5, ror #30
 6a4:	00656863 	rsbeq	r6, r5, r3, ror #16
 6a8:	66617473 			; <UNDEFINED> instruction: 0x66617473
 6ac:	72732d66 	rsbsvc	r2, r3, #6528	; 0x1980
 6b0:	61632f63 	cmnvs	r3, r3, ror #30
 6b4:	2e656863 	cdpcs	8, 6, cr6, cr5, cr3, {3}
 6b8:	65720063 	ldrbvs	r0, [r2, #-99]!	; 0x63
 6bc:	746f6f62 	strbtvc	r6, [pc], #-3938	; 6c4 <__code_start__-0x793c>
 6c0:	6e61685f 	mcrvs	8, 3, r6, cr1, cr15, {2}
 6c4:	72656c64 	rsbvc	r6, r5, #100, 24	; 0x6400
 6c8:	61747300 	cmnvs	r4, r0, lsl #6
 6cc:	732d6666 	teqvc	sp, #106954752	; 0x6600000
 6d0:	632f6372 	teqvs	pc, #-939524095	; 0xc8000001
 6d4:	6e61656c 	cdpvs	5, 6, cr6, cr1, cr12, {3}
 6d8:	6265722d 	rsbvs	r7, r5, #-805306366	; 0xd0000002
 6dc:	2e746f6f 	cdpcs	15, 7, cr6, cr4, cr15, {3}
 6e0:	70720063 	rsbsvc	r0, r2, r3, rrx
 6e4:	65725f69 	ldrbvs	r5, [r2, #-3945]!	; 0xf69
 6e8:	746f6f62 	strbtvc	r6, [pc], #-3938	; 6f0 <__code_start__-0x7910>
 6ec:	6c656400 	cfstrdvs	mvd6, [r5], #-0
 6f0:	6d5f7961 	ldclvs	9, cr7, [pc, #-388]	; 574 <__code_start__-0x7a8c>
 6f4:	5f5f0073 	svcpl	0x005f0073
 6f8:	5f737362 	svcpl	0x00737362
 6fc:	72617473 	rsbvc	r7, r1, #1929379840	; 0x73000000
 700:	005f5f74 	subseq	r5, pc, r4, ror pc	; <UNPREDICTABLE>
 704:	73625f5f 	cmnvc	r2, #380	; 0x17c
 708:	6e655f73 	mcrvs	15, 3, r5, cr5, cr3, {3}
 70c:	005f5f64 	subseq	r5, pc, r4, ror #30
 710:	61747363 	cmnvs	r4, r3, ror #6
 714:	685f7472 	ldmdavs	pc, {r1, r4, r5, r6, sl, ip, sp, lr}^	; <UNPREDICTABLE>
 718:	6c646e61 	stclvs	14, cr6, [r4], #-388	; 0xfffffe7c
 71c:	62007265 	andvs	r7, r0, #1342177286	; 0x50000006
 720:	655f7373 	ldrbvs	r7, [pc, #-883]	; 3b5 <__code_start__-0x7c4b>
 724:	5f00646e 	svcpl	0x0000646e
 728:	61747363 	cmnvs	r4, r3, ror #6
 72c:	73007472 	movwvc	r7, #1138	; 0x472
 730:	66666174 			; <UNDEFINED> instruction: 0x66666174
 734:	6372732d 	cmnvs	r2, #-1275068416	; 0xb4000000
 738:	7473632f 	ldrbtvc	r6, [r3], #-815	; 0x32f
 73c:	2e747261 	cdpcs	2, 7, cr7, cr4, cr1, {3}
 740:	74730063 	ldrbtvc	r0, [r3], #-99	; 0x63
 744:	2d666661 	stclcs	6, cr6, [r6, #-388]!	; 0xfffffe7c
 748:	2f637273 	svccs	0x00637273
 74c:	61666564 	cmnvs	r6, r4, ror #10
 750:	2d746c75 	ldclcs	12, cr6, [r4, #-468]!	; 0xfffffe2c
 754:	646e6168 	strbtvs	r6, [lr], #-360	; 0x168
 758:	2d72656c 	cfldr64cs	mvdx6, [r2, #-432]!	; 0xfffffe50
 75c:	74736166 	ldrbtvc	r6, [r3], #-358	; 0x166
 760:	6600632e 	strvs	r6, [r0], -lr, lsr #6
 764:	5f747361 	svcpl	0x00747361
 768:	65746e69 	ldrbvs	r6, [r4, #-3689]!	; 0xe69
 76c:	70757272 	rsbsvc	r7, r5, r2, ror r2
 770:	65765f74 	ldrbvs	r5, [r6, #-3956]!	; 0xf74
 774:	726f7463 	rsbvc	r7, pc, #1660944384	; 0x63000000
 778:	73657200 	cmnvc	r5, #0, 4
 77c:	765f7465 	ldrbvc	r7, [pc], -r5, ror #8
 780:	6f746365 	svcvs	0x00746365
 784:	74730072 	ldrbtvc	r0, [r3], #-114	; 0x72
 788:	2d666661 	stclcs	6, cr6, [r6, #-388]!	; 0xfffffe7c
 78c:	2f637273 	svccs	0x00637273
 790:	61666564 	cmnvs	r6, r4, ror #10
 794:	2d746c75 	ldclcs	12, cr6, [r4, #-468]!	; 0xfffffe2c
 798:	646e6168 	strbtvs	r6, [lr], #-360	; 0x168
 79c:	2d72656c 	cfldr64cs	mvdx6, [r2, #-432]!	; 0xfffffe50
 7a0:	65736572 	ldrbvs	r6, [r3, #-1394]!	; 0x572
 7a4:	00632e74 	rsbeq	r2, r3, r4, ror lr
 7a8:	66617473 			; <UNDEFINED> instruction: 0x66617473
 7ac:	72732d66 	rsbsvc	r2, r3, #6528	; 0x1980
 7b0:	65642f63 	strbvs	r2, [r4, #-3939]!	; 0xf63
 7b4:	6c756166 	ldfvse	f6, [r5], #-408	; 0xfffffe68
 7b8:	61682d74 	smcvs	33492	; 0x82d4
 7bc:	656c646e 	strbvs	r6, [ip, #-1134]!	; 0x46e
 7c0:	6e752d72 	mrcvs	13, 3, r2, cr5, cr2, {3}
 7c4:	69666564 	stmdbvs	r6!, {r2, r5, r6, r8, sl, sp, lr}^
 7c8:	2d64656e 	cfstr64cs	mvdx6, [r4, #-440]!	; 0xfffffe48
 7cc:	74736e69 	ldrbtvc	r6, [r3], #-3689	; 0xe69
 7d0:	7500632e 	strvc	r6, [r0, #-814]	; 0x32e
 7d4:	6665646e 	strbtvs	r6, [r5], -lr, ror #8
 7d8:	64656e69 	strbtvs	r6, [r5], #-3689	; 0xe69
 7dc:	736e695f 	cmnvc	lr, #1556480	; 0x17c000
 7e0:	63757274 	cmnvs	r5, #116, 4	; 0x40000007
 7e4:	6e6f6974 	mcrvs	9, 3, r6, cr15, cr4, {3}
 7e8:	6365765f 	cmnvs	r5, #99614720	; 0x5f00000
 7ec:	00726f74 	rsbseq	r6, r2, r4, ror pc
 7f0:	66617473 			; <UNDEFINED> instruction: 0x66617473
 7f4:	72732d66 	rsbsvc	r2, r3, #6528	; 0x1980
 7f8:	65642f63 	strbvs	r2, [r4, #-3939]!	; 0xf63
 7fc:	6c756166 	ldfvse	f6, [r5], #-408	; 0xfffffe68
 800:	61682d74 	smcvs	33492	; 0x82d4
 804:	656c646e 	strbvs	r6, [ip, #-1134]!	; 0x46e
 808:	632e7372 	teqvs	lr, #-939524095	; 0xc8000001
 80c:	51524900 	cmppl	r2, r0, lsl #18
 810:	6e65705f 	mcrvs	0, 3, r7, cr5, cr15, {2}
 814:	676e6964 	strbvs	r6, [lr, -r4, ror #18]!
 818:	4400325f 	strmi	r3, [r0], #-607	; 0x25f
 81c:	62617369 	rsbvs	r7, r1, #-1543503871	; 0xa4000001
 820:	425f656c 	subsmi	r6, pc, #108, 10	; 0x1b000000
 824:	63697361 	cmnvs	r9, #-2080374783	; 0x84000001
 828:	5152495f 	cmppl	r2, pc, asr r9
 82c:	49460073 	stmdbmi	r6, {r0, r1, r4, r5, r6}^
 830:	6f635f51 	svcvs	0x00635f51
 834:	6f72746e 	svcvs	0x0072746e
 838:	695f006c 	ldmdbvs	pc, {r2, r3, r5, r6}^	; <UNPREDICTABLE>
 83c:	7265746e 	rsbvc	r7, r5, #1845493760	; 0x6e000000
 840:	74707572 	ldrbtvc	r7, [r0], #-1394	; 0x572
 844:	6261745f 	rsbvs	r7, r1, #1593835520	; 0x5f000000
 848:	4900656c 	stmdbmi	r0, {r2, r3, r5, r6, r8, sl, sp, lr}
 84c:	625f5152 	subsvs	r5, pc, #-2147483628	; 0x80000014
 850:	63697361 	cmnvs	r9, #-2080374783	; 0x84000001
 854:	6e65705f 	mcrvs	0, 3, r7, cr5, cr15, {2}
 858:	676e6964 	strbvs	r6, [lr, -r4, ror #18]!
 85c:	616e4500 	cmnvs	lr, r0, lsl #10
 860:	5f656c62 	svcpl	0x00656c62
 864:	69736142 	ldmdbvs	r3!, {r1, r6, r8, sp, lr}^
 868:	52495f63 	subpl	r5, r9, #396	; 0x18c
 86c:	45007351 	strmi	r7, [r0, #-849]	; 0x351
 870:	6c62616e 	stfvse	f6, [r2], #-440	; 0xfffffe48
 874:	52495f65 	subpl	r5, r9, #404	; 0x194
 878:	315f7351 	cmpcc	pc, r1, asr r3	; <UNPREDICTABLE>
 87c:	616e4500 	cmnvs	lr, r0, lsl #10
 880:	5f656c62 	svcpl	0x00656c62
 884:	73515249 	cmpvc	r1, #-1879048188	; 0x90000004
 888:	5f00325f 	svcpl	0x0000325f
 88c:	65746e69 	ldrbvs	r6, [r4, #-3689]!	; 0xe69
 890:	70757272 	rsbsvc	r7, r5, r2, ror r2
 894:	61745f74 	cmnvs	r4, r4, ror pc
 898:	5f656c62 	svcpl	0x00656c62
 89c:	00646e65 	rsbeq	r6, r4, r5, ror #28
 8a0:	5f766564 	svcpl	0x00766564
 8a4:	72726162 	rsbsvc	r6, r2, #-2147483624	; 0x80000018
 8a8:	00726569 	rsbseq	r6, r2, r9, ror #10
 8ac:	66617473 			; <UNDEFINED> instruction: 0x66617473
 8b0:	72732d66 	rsbsvc	r2, r3, #6528	; 0x1980
 8b4:	6e692f63 	cdpvs	15, 6, cr2, cr9, cr3, {3}
 8b8:	72726574 	rsbsvc	r6, r2, #116, 10	; 0x1d000000
 8bc:	73747075 	cmnvc	r4, #117	; 0x75
 8c0:	632e632d 	teqvs	lr, #-1275068416	; 0xb4000000
 8c4:	51524900 	cmppl	r2, r0, lsl #18
 8c8:	7361425f 	cmnvc	r1, #-268435451	; 0xf0000005
 8cc:	55500065 	ldrbpl	r0, [r0, #-101]	; 0x65
 8d0:	00323354 	eorseq	r3, r2, r4, asr r3
 8d4:	61736944 	cmnvs	r3, r4, asr #18
 8d8:	5f656c62 	svcpl	0x00656c62
 8dc:	73515249 	cmpvc	r1, #-1879048188	; 0x90000004
 8e0:	4400315f 	strmi	r3, [r0], #-351	; 0x15f
 8e4:	62617369 	rsbvs	r7, r1, #-1543503871	; 0xa4000001
 8e8:	495f656c 	ldmdbmi	pc, {r2, r3, r5, r6, r8, sl, sp, lr}^	; <UNPREDICTABLE>
 8ec:	5f735152 	svcpl	0x00735152
 8f0:	52490032 	subpl	r0, r9, #50	; 0x32
 8f4:	65705f51 	ldrbvs	r5, [r0, #-3921]!	; 0xf51
 8f8:	6e69646e 	cdpvs	4, 6, cr6, cr9, cr14, {3}
 8fc:	00315f67 	eorseq	r5, r1, r7, ror #30
 900:	755f7461 	ldrbvc	r7, [pc, #-1121]	; 4a7 <__code_start__-0x7b59>
 904:	5f726573 	svcpl	0x00726573
 908:	6576656c 	ldrbvs	r6, [r6, #-1388]!	; 0x56c
 90c:	7473006c 	ldrbtvc	r0, [r3], #-108	; 0x6c
 910:	2d666661 	stclcs	6, cr6, [r6, #-388]!	; 0xfffffe7c
 914:	2f637273 	svccs	0x00637273
 918:	6f626572 	svcvs	0x00626572
 91c:	632e746f 	teqvs	lr, #1862270976	; 0x6f000000
 920:	5f4d5000 	svcpl	0x004d5000
 924:	43545352 	cmpmi	r4, #1207959553	; 0x48000001
 928:	4352575f 	cmpmi	r2, #24903680	; 0x17c0000
 92c:	465f4746 	ldrbmi	r4, [pc], -r6, asr #14
 930:	5f4c4c55 	svcpl	0x004c4c55
 934:	45534552 	ldrbmi	r4, [r3, #-1362]	; 0x552
 938:	4d500054 	ldclmi	0, cr0, [r0, #-336]	; 0xfffffeb0
 93c:	4f44575f 	svcmi	0x0044575f
 940:	65730047 	ldrbvs	r0, [r3, #-71]!	; 0x47
 944:	73755f74 	cmnvc	r5, #116, 30	; 0x1d0
 948:	6c5f7265 	lfmvs	f7, 2, [pc], {101}	; 0x65
 94c:	6c657665 	stclvs	6, cr7, [r5], #-404	; 0xfffffe6c
 950:	5f4d5000 	svcpl	0x004d5000
 954:	53534150 	cmppl	r3, #80, 2
 958:	44524f57 	ldrbmi	r4, [r2], #-3927	; 0xf57
 95c:	5f4d5000 	svcpl	0x004d5000
 960:	43545352 	cmpmi	r4, #1207959553	; 0x48000001
 964:	6d697400 	cfstrdvs	mvd7, [r9, #-0]
 968:	675f7265 	ldrbvs	r7, [pc, -r5, ror #4]
 96c:	755f7465 	ldrbvc	r7, [pc, #-1125]	; 50f <__code_start__-0x7af1>
 970:	5f636573 	svcpl	0x00636573
 974:	00776172 	rsbseq	r6, r7, r2, ror r1
 978:	616c6564 	cmnvs	ip, r4, ror #10
 97c:	65735f79 	ldrbvs	r5, [r3, #-3961]!	; 0xf79
 980:	74730063 	ldrbtvc	r0, [r3], #-99	; 0x63
 984:	2d666661 	stclcs	6, cr6, [r6, #-388]!	; 0xfffffe7c
 988:	2f637273 	svccs	0x00637273
 98c:	656d6974 	strbvs	r6, [sp, #-2420]!	; 0x974
 990:	00632e72 	rsbeq	r2, r3, r2, ror lr
 994:	33544547 	cmpcc	r4, #297795584	; 0x11c00000
 998:	69740032 	ldmdbvs	r4!, {r1, r4, r5}^
 99c:	00736b63 	rsbseq	r6, r3, r3, ror #22
 9a0:	616c6564 	cmnvs	ip, r4, ror #10
 9a4:	79635f79 	stmdbvc	r3!, {r0, r3, r4, r5, r6, r8, r9, sl, fp, ip, lr}^
 9a8:	73656c63 	cmnvc	r5, #25344	; 0x6300
 9ac:	6c656400 	cfstrdvs	mvd6, [r5], #-0
 9b0:	755f7961 	ldrbvc	r7, [pc, #-2401]	; 57 <__code_start__-0x7fa9>
 9b4:	69740073 	ldmdbvs	r4!, {r0, r1, r4, r5, r6}^
 9b8:	5f72656d 	svcpl	0x0072656d
 9bc:	5f746567 	svcpl	0x00746567
 9c0:	63657375 	cmnvs	r5, #-738197503	; 0xd4000001
 9c4:	73645f00 	cmnvc	r4, #0, 30
 9c8:	61685f6f 	cmnvs	r8, pc, ror #30
 9cc:	656c646e 	strbvs	r6, [ip, #-1134]!	; 0x46e
 9d0:	69735f00 	ldmdbvs	r3!, {r8, r9, sl, fp, ip, lr}^
 9d4:	5f00657a 	svcpl	0x0000657a
 9d8:	646e6172 	strbtvs	r6, [lr], #-370	; 0x172
 9dc:	5f003834 	svcpl	0x00003834
 9e0:	72656d65 	rsbvc	r6, r5, #6464	; 0x1940
 9e4:	636e6567 	cmnvs	lr, #432013312	; 0x19c00000
 9e8:	61750079 	cmnvs	r5, r9, ror r0
 9ec:	695f7472 	ldmdbvs	pc, {r1, r4, r5, r6, sl, ip, sp, lr}^	; <UNPREDICTABLE>
 9f0:	0074696e 	rsbseq	r6, r4, lr, ror #18
 9f4:	7263775f 	rsbvc	r7, r3, #24903680	; 0x17c0000
 9f8:	626d6f74 	rsbvs	r6, sp, #116, 30	; 0x1d0
 9fc:	6174735f 	cmnvs	r4, pc, asr r3
 a00:	5f006574 	svcpl	0x00006574
 a04:	72736377 	rsbsvc	r6, r3, #-603979775	; 0xdc000001
 a08:	626d6f74 	rsbvs	r6, sp, #116, 30	; 0x1d0
 a0c:	74735f73 	ldrbtvc	r5, [r3], #-3955	; 0xf73
 a10:	00657461 	rsbeq	r7, r5, r1, ror #8
 a14:	66626c5f 			; <UNDEFINED> instruction: 0x66626c5f
 a18:	657a6973 	ldrbvs	r6, [sl, #-2419]!	; 0x973
 a1c:	49504700 	ldmdbmi	r0, {r8, r9, sl, lr}^
 a20:	55465f4f 	strbpl	r5, [r6, #-3919]	; 0xf4f
 a24:	495f434e 	ldmdbmi	pc, {r1, r2, r3, r6, r8, r9, lr}^	; <UNPREDICTABLE>
 a28:	5455504e 	ldrbpl	r5, [r5], #-78	; 0x4e
 a2c:	626d5f00 	rsbvs	r5, sp, #0, 30
 a30:	776f7472 			; <UNDEFINED> instruction: 0x776f7472
 a34:	74735f63 	ldrbtvc	r5, [r3], #-3939	; 0xf63
 a38:	00657461 	rsbeq	r7, r5, r1, ror #8
 a3c:	7463775f 	strbtvc	r7, [r3], #-1887	; 0x75f
 a40:	5f626d6f 	svcpl	0x00626d6f
 a44:	74617473 	strbtvc	r7, [r1], #-1139	; 0x473
 a48:	5f5f0065 	svcpl	0x005f0065
 a4c:	735f6d74 	cmpvc	pc, #116, 26	; 0x1d00
 a50:	73006365 	movwvc	r6, #869	; 0x365
 a54:	00746174 	rsbseq	r6, r4, r4, ror r1
 a58:	7562755f 	strbvc	r7, [r2, #-1375]!	; 0x55f
 a5c:	50470066 	subpl	r0, r7, r6, rrx
 a60:	465f4f49 	ldrbmi	r4, [pc], -r9, asr #30
 a64:	5f434e55 	svcpl	0x00434e55
 a68:	31544c41 	cmpcc	r4, r1, asr #24
 a6c:	61625f00 	cmnvs	r2, r0, lsl #30
 a70:	63006573 	movwvs	r6, #1395	; 0x573
 a74:	006c746e 	rsbeq	r7, ip, lr, ror #8
 a78:	6d745f5f 	ldclvs	15, cr5, [r4, #-380]!	; 0xfffffe84
 a7c:	756f685f 	strbvc	r6, [pc, #-2143]!	; 225 <__code_start__-0x7ddb>
 a80:	5f5f0072 	svcpl	0x005f0072
 a84:	5f006673 	svcpl	0x00006673
 a88:	655f6e6f 	ldrbvs	r6, [pc, #-3695]	; fffffc21 <__bss_end__+0xffff56b9>
 a8c:	5f746978 	svcpl	0x00746978
 a90:	73677261 	cmnvc	r7, #268435462	; 0x10000006
 a94:	6f635f00 	svcvs	0x00635f00
 a98:	65696b6f 	strbvs	r6, [r9, #-2927]!	; 0xb6f
 a9c:	735f5f00 	cmpvc	pc, #0, 30
 aa0:	65756c67 	ldrbvs	r6, [r5, #-3175]!	; 0xc67
 aa4:	6c665f00 	stclvs	15, cr5, [r6], #-0
 aa8:	00736761 	rsbseq	r6, r3, r1, ror #14
 aac:	5f73695f 	svcpl	0x0073695f
 ab0:	00617863 	rsbeq	r7, r1, r3, ror #16
 ab4:	6474735f 	ldrbtvs	r7, [r4], #-863	; 0x35f
 ab8:	5f006e69 	svcpl	0x00006e69
 abc:	736b6c62 	cmnvc	fp, #25088	; 0x6200
 ac0:	00657a69 	rsbeq	r7, r5, r9, ror #20
 ac4:	74726175 	ldrbtvc	r6, [r2], #-373	; 0x175
 ac8:	6100632e 	tstvs	r0, lr, lsr #6
 acc:	705f7875 	subsvc	r7, pc, r5, ror r8	; <UNPREDICTABLE>
 ad0:	70697265 	rsbvc	r7, r9, r5, ror #4
 ad4:	5f007368 	svcpl	0x00007368
 ad8:	62747663 	rsbsvs	r7, r4, #103809024	; 0x6300000
 adc:	2f006675 	svccs	0x00006675
 ae0:	656d6f68 	strbvs	r6, [sp, #-3944]!	; 0xf68
 ae4:	676e652f 	strbvs	r6, [lr, -pc, lsr #10]!
 ae8:	2f72656c 	svccs	0x0072656c
 aec:	73616c63 	cmnvc	r1, #25344	; 0x6300
 af0:	73632f73 	cmnvc	r3, #460	; 0x1cc
 af4:	6c303432 	cfldrsvs	mvf3, [r0], #-200	; 0xffffff38
 af8:	30322d78 	eorscc	r2, r2, r8, ror sp
 afc:	2f727073 	svccs	0x00727073
 b00:	7062696c 	rsbvc	r6, r2, ip, ror #18
 b04:	74732f69 	ldrbtvc	r2, [r3], #-3945	; 0xf69
 b08:	2d666661 	stclcs	6, cr6, [r6, #-388]!	; 0xfffffe7c
 b0c:	76697270 			; <UNDEFINED> instruction: 0x76697270
 b10:	00657461 	rsbeq	r7, r5, r1, ror #8
 b14:	73626d5f 	cmnvc	r2, #6080	; 0x17c0
 b18:	776f7472 			; <UNDEFINED> instruction: 0x776f7472
 b1c:	735f7363 	cmpvc	pc, #-1946157055	; 0x8c000001
 b20:	65746174 	ldrbvs	r6, [r4, #-372]!	; 0x174
 b24:	626d5f00 	rsbvs	r5, sp, #0, 30
 b28:	6e656c72 	mcrvs	12, 3, r6, cr5, cr2, {3}
 b2c:	6174735f 	cmnvs	r4, pc, asr r3
 b30:	5f006574 	svcpl	0x00006574
 b34:	72616e66 	rsbvc	r6, r1, #1632	; 0x660
 b38:	61007367 	tstvs	r0, r7, ror #6
 b3c:	655f7875 	ldrbvs	r7, [pc, #-2165]	; 2cf <__code_start__-0x7d31>
 b40:	6c62616e 	stfvse	f6, [r2], #-440	; 0xfffffe48
 b44:	5f007365 	svcpl	0x00007365
 b48:	00736e66 	rsbseq	r6, r3, r6, ror #28
 b4c:	6769735f 			; <UNDEFINED> instruction: 0x6769735f
 b50:	6175006e 	cmnvs	r5, lr, rrx
 b54:	635f7472 	cmpvs	pc, #1912602624	; 0x72000000
 b58:	705f6e61 	subsvc	r6, pc, r1, ror #28
 b5c:	00637475 	rsbeq	r7, r3, r5, ror r4
 b60:	6f6c665f 	svcvs	0x006c665f
 b64:	745f6b63 	ldrbvc	r6, [pc], #-2915	; b6c <__code_start__-0x7494>
 b68:	74735f00 	ldrbtvc	r5, [r3], #-3840	; 0xf00
 b6c:	72726564 	rsbsvc	r6, r2, #100, 10	; 0x19000000
 b70:	69425f00 	stmdbvs	r2, {r8, r9, sl, fp, ip, lr}^
 b74:	746e6967 	strbtvc	r6, [lr], #-2407	; 0x967
 b78:	61675f00 	cmnvs	r7, r0, lsl #30
 b7c:	5f616d6d 	svcpl	0x00616d6d
 b80:	6e676973 	mcrvs	9, 3, r6, cr7, cr3, {3}
 b84:	006d6167 	rsbeq	r6, sp, r7, ror #2
 b88:	7365725f 	cmnvc	r5, #-268435451	; 0xf0000005
 b8c:	5f746c75 	svcpl	0x00746c75
 b90:	5f5f006b 	svcpl	0x005f006b
 b94:	5f006d74 	svcpl	0x00006d74
 b98:	6863775f 	stmdavs	r3!, {r0, r1, r2, r3, r4, r6, r8, r9, sl, ip, sp, lr}^
 b9c:	61750062 	cmnvs	r5, r2, rrx
 ba0:	675f7472 			; <UNDEFINED> instruction: 0x675f7472
 ba4:	00637465 	rsbeq	r7, r3, r5, ror #8
 ba8:	6474735f 	ldrbtvs	r7, [r4], #-863	; 0x35f
 bac:	0074756f 	rsbseq	r7, r4, pc, ror #10
 bb0:	7476635f 	ldrbtvc	r6, [r6], #-863	; 0x35f
 bb4:	006e656c 	rsbeq	r6, lr, ip, ror #10
 bb8:	6c69665f 	stclvs	6, cr6, [r9], #-380	; 0xfffffe84
 bbc:	6e5f0065 	cdpvs	0, 5, cr0, cr15, cr5, {3}
 bc0:	73626f69 	cmnvc	r2, #420	; 0x1a4
 bc4:	74615f00 	strbtvc	r5, [r1], #-3840	; 0xf00
 bc8:	74697865 	strbtvc	r7, [r9], #-2149	; 0x865
 bcc:	735f0030 	cmpvc	pc, #48	; 0x30
 bd0:	616e6769 	cmnvs	lr, r9, ror #14
 bd4:	75625f6c 	strbvc	r5, [r2, #-3948]!	; 0xf6c
 bd8:	615f0066 	cmpvs	pc, r6, rrx
 bdc:	69746373 	ldmdbvs	r4!, {r0, r1, r4, r5, r6, r8, r9, sp, lr}^
 be0:	625f656d 	subsvs	r6, pc, #457179136	; 0x1b400000
 be4:	5f006675 	svcpl	0x00006675
 be8:	75736572 	ldrbvc	r6, [r3, #-1394]!	; 0x572
 bec:	5f00746c 	svcpl	0x0000746c
 bf0:	6863775f 	stmdavs	r3!, {r0, r1, r2, r3, r4, r6, r8, r9, sl, ip, sp, lr}^
 bf4:	49504700 	ldmdbmi	r0, {r8, r9, sl, lr}^
 bf8:	55465f4f 	strbpl	r5, [r6, #-3919]	; 0xf4f
 bfc:	415f434e 	cmpmi	pc, lr, asr #6
 c00:	0032544c 	eorseq	r5, r2, ip, asr #8
 c04:	746e6977 	strbtvc	r6, [lr], #-2423	; 0x977
 c08:	5f00745f 	svcpl	0x0000745f
 c0c:	6b636f6c 	blvs	18dc9c4 <__bss_end__+0x18d245c>
 c10:	6c665f00 	stclvs	15, cr5, [r6], #-0
 c14:	32736761 	rsbscc	r6, r3, #25427968	; 0x1840000
 c18:	745f5f00 	ldrbvc	r5, [pc], #-3840	; c20 <__code_start__-0x73e0>
 c1c:	65795f6d 	ldrbvs	r5, [r9, #-3949]!	; 0xf6d
 c20:	5f007261 	svcpl	0x00007261
 c24:	7366666f 	cmnvc	r6, #116391936	; 0x6f00000
 c28:	67007465 	strvs	r7, [r0, -r5, ror #8]
 c2c:	5f6f6970 	svcpl	0x006f6970
 c30:	5f746573 	svcpl	0x00746573
 c34:	636e7566 	cmnvs	lr, #427819008	; 0x19800000
 c38:	6e6f6974 	mcrvs	9, 3, r6, cr15, cr4, {3}
 c3c:	656e5f00 	strbvs	r5, [lr, #-3840]!	; 0xf00
 c40:	00667478 	rsbeq	r7, r6, r8, ror r4
 c44:	6d745f5f 	ldclvs	15, cr5, [r4, #-380]!	; 0xfffffe84
 c48:	6e6f6d5f 	mcrvs	13, 3, r6, cr15, cr15, {2}
 c4c:	74615f00 	strbtvc	r5, [r1], #-3840	; 0xf00
 c50:	74697865 	strbtvc	r7, [r9], #-2149	; 0x865
 c54:	735f5f00 	cmpvc	pc, #0, 30
 c58:	69646964 	stmdbvs	r4!, {r2, r5, r6, r8, fp, sp, lr}^
 c5c:	0074696e 	rsbseq	r6, r4, lr, ror #18
 c60:	66666f5f 	uqsaxvs	r6, r6, pc	; <UNPREDICTABLE>
 c64:	7500745f 	strvc	r7, [r0, #-1119]	; 0x45f
 c68:	00747261 	rsbseq	r7, r4, r1, ror #4
 c6c:	6572665f 	ldrbvs	r6, [r2, #-1631]!	; 0x65f
 c70:	73696c65 	cmnvc	r9, #25856	; 0x6500
 c74:	4c5f0074 	mrrcmi	0, 7, r0, pc, cr4	; <UNPREDICTABLE>
 c78:	5f4b434f 	svcpl	0x004b434f
 c7c:	55434552 	strbpl	r4, [r3, #-1362]	; 0x552
 c80:	56495352 			; <UNDEFINED> instruction: 0x56495352
 c84:	00545f45 	subseq	r5, r4, r5, asr #30
 c88:	77656e5f 			; <UNDEFINED> instruction: 0x77656e5f
 c8c:	5f685f00 	svcpl	0x00685f00
 c90:	6e727265 	cdpvs	2, 7, cr7, cr2, cr5, {3}
 c94:	5f5f006f 	svcpl	0x005f006f
 c98:	795f6d74 	ldmdbvc	pc, {r2, r4, r5, r6, r8, sl, fp, sp, lr}^	; <UNPREDICTABLE>
 c9c:	00796164 	rsbseq	r6, r9, r4, ror #2
 ca0:	62735f5f 	rsbsvs	r5, r3, #380	; 0x17c
 ca4:	5f006675 	svcpl	0x00006675
 ca8:	73626f69 	cmnvc	r2, #420	; 0x1a4
 cac:	465f5f00 	ldrbmi	r5, [pc], -r0, lsl #30
 cb0:	00454c49 	subeq	r4, r5, r9, asr #24
 cb4:	73626d5f 	cmnvc	r2, #6080	; 0x17c0
 cb8:	65746174 	ldrbvs	r6, [r4, #-372]!	; 0x174
 cbc:	5f00745f 	svcpl	0x0000745f
 cc0:	4946735f 	stmdbmi	r6, {r0, r1, r2, r3, r4, r6, r8, r9, ip, sp, lr}^
 cc4:	5f00454c 	svcpl	0x0000454c
 cc8:	7473626d 	ldrbtvc	r6, [r3], #-621	; 0x26d
 ccc:	00657461 	rsbeq	r7, r5, r1, ror #8
 cd0:	6e61725f 	mcrvs	2, 3, r7, cr1, cr15, {2}
 cd4:	656e5f64 	strbvs	r5, [lr, #-3940]!	; 0xf64
 cd8:	5f007478 	svcpl	0x00007478
 cdc:	656c626d 	strbvs	r6, [ip, #-621]!	; 0x26d
 ce0:	74735f6e 	ldrbtvc	r5, [r3], #-3950	; 0xf6e
 ce4:	00657461 	rsbeq	r7, r5, r1, ror #8
 ce8:	636e695f 	cmnvs	lr, #1556480	; 0x17c000
 cec:	6e695f00 	cdpvs	15, 6, cr5, cr9, cr0, {0}
 cf0:	635f0064 	cmpvs	pc, #100	; 0x64
 cf4:	65727275 	ldrbvs	r7, [r2, #-629]!	; 0x275
 cf8:	6c5f746e 	cfldrdvs	mvd7, [pc], {110}	; 0x6e
 cfc:	6c61636f 	stclvs	3, cr6, [r1], #-444	; 0xfffffe44
 d00:	5f5f0065 	svcpl	0x005f0065
 d04:	61656c63 	cmnvs	r5, r3, ror #24
 d08:	0070756e 	rsbseq	r7, r0, lr, ror #10
 d0c:	78616d5f 	stmdavc	r1!, {r0, r1, r2, r3, r4, r6, r8, sl, fp, sp, lr}^
 d10:	00736477 	rsbseq	r6, r3, r7, ror r4
 d14:	6565725f 	strbvs	r7, [r5, #-607]!	; 0x25f
 d18:	5f00746e 	svcpl	0x0000746e
 d1c:	64656573 	strbtvs	r6, [r5], #-1395	; 0x573
 d20:	635f5f00 	cmpvs	pc, #0, 30
 d24:	746e756f 	strbtvc	r7, [lr], #-1391	; 0x56f
 d28:	765f5f00 	ldrbvc	r5, [pc], -r0, lsl #30
 d2c:	65756c61 	ldrbvs	r6, [r5, #-3169]!	; 0xc61
 d30:	65735f00 	ldrbvs	r5, [r3, #-3840]!	; 0xf00
 d34:	62006b65 	andvs	r6, r0, #103424	; 0x19400
 d38:	00647561 	rsbeq	r7, r4, r1, ror #10
 d3c:	6f70665f 	svcvs	0x0070665f
 d40:	00745f73 	rsbseq	r5, r4, r3, ror pc
 d44:	6d745f5f 	ldclvs	15, cr5, [r4, #-380]!	; 0xfffffe84
 d48:	6e696d5f 	mcrvs	13, 3, r6, cr9, cr15, {2}
 d4c:	72637300 	rsbvc	r7, r3, #0, 6
 d50:	68637461 	stmdavs	r3!, {r0, r5, r6, sl, ip, sp, lr}^
 d54:	756d5f00 	strbvc	r5, [sp, #-3840]!	; 0xf00
 d58:	7000746c 	andvc	r7, r0, ip, ror #8
 d5c:	32337475 	eorscc	r7, r3, #1962934272	; 0x75000000
 d60:	554e4700 	strbpl	r4, [lr, #-1792]	; 0x700
 d64:	39394320 	ldmdbcc	r9!, {r5, r8, r9, lr}
 d68:	332e3620 	teqcc	lr, #32, 12	; 0x2000000
 d6c:	3220312e 	eorcc	r3, r0, #-2147483637	; 0x8000000b
 d70:	30373130 	eorscc	r3, r7, r0, lsr r1
 d74:	20303236 	eorscs	r3, r0, r6, lsr r2
 d78:	70636d2d 	rsbvc	r6, r3, sp, lsr #26
 d7c:	72613d75 	rsbvc	r3, r1, #7488	; 0x1d40
 d80:	3731316d 	ldrcc	r3, [r1, -sp, ror #2]!
 d84:	667a6a36 			; <UNDEFINED> instruction: 0x667a6a36
 d88:	2d20732d 	stccs	3, cr7, [r0, #-180]!	; 0xffffff4c
 d8c:	6e75746d 	cdpvs	4, 7, cr7, cr5, cr13, {3}
 d90:	72613d65 	rsbvc	r3, r1, #6464	; 0x1940
 d94:	3731316d 	ldrcc	r3, [r1, -sp, ror #2]!
 d98:	667a6a36 			; <UNDEFINED> instruction: 0x667a6a36
 d9c:	2d20732d 	stccs	3, cr7, [r0, #-180]!	; 0xffffff4c
 da0:	62646767 	rsbvs	r6, r4, #27000832	; 0x19c0000
 da4:	674f2d20 	strbvs	r2, [pc, -r0, lsr #26]
 da8:	74732d20 	ldrbtvc	r2, [r3], #-3360	; 0xd20
 dac:	6e673d64 	cdpvs	13, 6, cr3, cr7, cr4, {3}
 db0:	20393975 	eorscs	r3, r9, r5, ror r9
 db4:	7266662d 	rsbvc	r6, r6, #47185920	; 0x2d00000
 db8:	74736565 	ldrbtvc	r6, [r3], #-1381	; 0x565
 dbc:	69646e61 	stmdbvs	r4!, {r0, r5, r6, r9, sl, fp, sp, lr}^
 dc0:	5f00676e 	svcpl	0x0000676e
 dc4:	74727473 	ldrbtvc	r7, [r2], #-1139	; 0x473
 dc8:	6c5f6b6f 	mrrcvs	11, 6, r6, pc, cr15	; <UNPREDICTABLE>
 dcc:	00747361 	rsbseq	r7, r4, r1, ror #6
 dd0:	746e665f 	strbtvc	r6, [lr], #-1631	; 0x65f
 dd4:	73657079 	cmnvc	r5, #121	; 0x79
 dd8:	64615f00 	strbtvs	r5, [r1], #-3840	; 0xf00
 ddc:	5f5f0064 	svcpl	0x005f0064
 de0:	6e6f4c55 	mcrvs	12, 3, r4, cr15, cr5, {2}
 de4:	675f0067 	ldrbvs	r0, [pc, -r7, rrx]
 de8:	61647465 	cmnvs	r4, r5, ror #8
 dec:	655f6574 	ldrbvs	r6, [pc, #-1396]	; 880 <__code_start__-0x7780>
 df0:	5f007272 	svcpl	0x00007272
 df4:	626f6c67 	rsbvs	r6, pc, #26368	; 0x6700
 df8:	695f6c61 	ldmdbvs	pc, {r0, r5, r6, sl, fp, sp, lr}^	; <UNPREDICTABLE>
 dfc:	7275706d 	rsbsvc	r7, r5, #109	; 0x6d
 e00:	74705f65 	ldrbtvc	r5, [r0], #-3941	; 0xf65
 e04:	635f0072 	cmpvs	pc, #114	; 0x72
 e08:	65727275 	ldrbvs	r7, [r2, #-629]!	; 0x275
 e0c:	635f746e 	cmpvs	pc, #1845493760	; 0x6e000000
 e10:	67657461 	strbvs	r7, [r5, -r1, ror #8]!
 e14:	0079726f 	rsbseq	r7, r9, pc, ror #4
 e18:	756e755f 	strbvc	r7, [lr, #-1375]!	; 0x55f
 e1c:	5f646573 	svcpl	0x00646573
 e20:	646e6172 	strbtvs	r6, [lr], #-370	; 0x172
 e24:	64775f00 	ldrbtvs	r5, [r7], #-3840	; 0xf00
 e28:	5f5f0073 	svcpl	0x005f0073
 e2c:	775f6d74 			; <UNDEFINED> instruction: 0x775f6d74
 e30:	00796164 	rsbseq	r6, r9, r4, ror #2
 e34:	756c675f 	strbvc	r6, [ip, #-1887]!	; 0x75f
 e38:	50470065 	subpl	r0, r7, r5, rrx
 e3c:	465f4f49 	ldrbmi	r4, [pc], -r9, asr #30
 e40:	5f434e55 	svcpl	0x00434e55
 e44:	5054554f 	subspl	r5, r4, pc, asr #10
 e48:	5f005455 	svcpl	0x00005455
 e4c:	6c616d6e 	stclvs	13, cr6, [r1], #-440	; 0xfffffe48
 e50:	00636f6c 	rsbeq	r6, r3, ip, ror #30
 e54:	34366c5f 	ldrtcc	r6, [r6], #-3167	; 0xc5f
 e58:	75625f61 	strbvc	r5, [r2, #-3937]!	; 0xf61
 e5c:	65670066 	strbvs	r0, [r7, #-102]!	; 0x66
 e60:	00323374 	eorseq	r3, r2, r4, ror r3
 e64:	74726175 	ldrbtvc	r6, [r2], #-373	; 0x175
 e68:	6e61635f 	mcrvs	3, 3, r6, cr1, cr15, {2}
 e6c:	7465675f 	strbtvc	r6, [r5], #-1887	; 0x75f
 e70:	735f0063 	cmpvc	pc, #99	; 0x63
 e74:	665f6769 	ldrbvs	r6, [pc], -r9, ror #14
 e78:	00636e75 	rsbeq	r6, r3, r5, ror lr
 e7c:	695f726f 	ldmdbvs	pc, {r0, r1, r2, r3, r5, r6, r9, ip, sp, lr}^	; <UNPREDICTABLE>
 e80:	0032336e 	eorseq	r3, r2, lr, ror #6
 e84:	74726175 	ldrbtvc	r6, [r2], #-373	; 0x175
 e88:	7361685f 	cmnvc	r1, #6225920	; 0x5f0000
 e8c:	7461645f 	strbtvc	r6, [r1], #-1119	; 0x45f
 e90:	50470061 	subpl	r0, r7, r1, rrx
 e94:	465f4f49 	ldrbmi	r4, [pc], -r9, asr #30
 e98:	5f434e55 	svcpl	0x00434e55
 e9c:	30544c41 	subscc	r4, r4, r1, asr #24
 ea0:	626e5f00 	rsbvs	r5, lr, #0, 30
 ea4:	5f006675 	svcpl	0x00006675
 ea8:	73756e75 	cmnvc	r5, #1872	; 0x750
 eac:	47006465 	strmi	r6, [r0, -r5, ror #8]
 eb0:	5f4f4950 	svcpl	0x004f4950
 eb4:	434e5546 	movtmi	r5, #58694	; 0xe546
 eb8:	544c415f 	strbpl	r4, [ip], #-351	; 0x15f
 ebc:	50470033 	subpl	r0, r7, r3, lsr r0
 ec0:	465f4f49 	ldrbmi	r4, [pc], -r9, asr #30
 ec4:	5f434e55 	svcpl	0x00434e55
 ec8:	34544c41 	ldrbcc	r4, [r4], #-3137	; 0xc41
 ecc:	49504700 	ldmdbmi	r0, {r8, r9, sl, lr}^
 ed0:	55465f4f 	strbpl	r5, [r6, #-3919]	; 0xf4f
 ed4:	415f434e 	cmpmi	pc, lr, asr #6
 ed8:	0035544c 	eorseq	r5, r5, ip, asr #8
 edc:	6d745f5f 	ldclvs	15, cr5, [r4, #-380]!	; 0xfffffe84
 ee0:	6473695f 	ldrbtvs	r6, [r3], #-2399	; 0x95f
 ee4:	5f007473 	svcpl	0x00007473
 ee8:	61636f6c 	cmnvs	r3, ip, ror #30
 eec:	6d69746c 	cfstrdvs	mvd7, [r9, #-432]!	; 0xfffffe50
 ef0:	75625f65 	strbvc	r5, [r2, #-3941]!	; 0xf65
 ef4:	635f0066 	cmpvs	pc, #102	; 0x66
 ef8:	65736f6c 	ldrbvs	r6, [r3, #-3948]!	; 0xf6c
 efc:	34725f00 	ldrbtcc	r5, [r2], #-3840	; 0xf00
 f00:	6d5f0038 	ldclvs	0, cr0, [pc, #-224]	; e28 <__code_start__-0x71d8>
 f04:	776f7462 	strbvc	r7, [pc, -r2, ror #8]!
 f08:	74735f63 	ldrbtvc	r5, [r3], #-3939	; 0xf63
 f0c:	00657461 	rsbeq	r7, r5, r1, ror #8
 f10:	7335705f 	teqvc	r5, #95	; 0x5f
 f14:	745f5f00 	ldrbvc	r5, [pc], #-3840	; f1c <__code_start__-0x70e4>
 f18:	646d5f6d 	strbtvs	r5, [sp], #-3949	; 0xf6d
 f1c:	67007961 	strvs	r7, [r0, -r1, ror #18]
 f20:	5f6f6970 	svcpl	0x006f6970
 f24:	5f746573 	svcpl	0x00746573
 f28:	0066666f 	rsbeq	r6, r6, pc, ror #12
 f2c:	6b6e6162 	blvs	1b994bc <__bss_end__+0x1b8ef54>
 f30:	69706700 	ldmdbvs	r0!, {r8, r9, sl, sp, lr}^
 f34:	00632e6f 	rsbeq	r2, r3, pc, ror #28
 f38:	6f697067 	svcvs	0x00697067
 f3c:	6165725f 	cmnvs	r5, pc, asr r2
 f40:	70670064 	rsbvc	r0, r7, r4, rrx
 f44:	735f6f69 	cmpvc	pc, #420	; 0x1a4
 f48:	6f5f7465 	svcvs	0x005f7465
 f4c:	75707475 	ldrbvc	r7, [r0, #-1141]!	; 0x475
 f50:	70670074 	rsbvc	r0, r7, r4, ror r0
 f54:	775f6f69 	ldrbvc	r6, [pc, -r9, ror #30]
 f58:	65746972 	ldrbvs	r6, [r4, #-2418]!	; 0x972
 f5c:	69706700 	ldmdbvs	r0!, {r8, r9, sl, sp, lr}^
 f60:	65735f6f 	ldrbvs	r5, [r3, #-3951]!	; 0xf6f
 f64:	67003074 	smlsdxvs	r0, r4, r0, r3
 f68:	5f6f6970 	svcpl	0x006f6970
 f6c:	3076656c 	rsbscc	r6, r6, ip, ror #10
 f70:	69706700 	ldmdbvs	r0!, {r8, r9, sl, sp, lr}^
 f74:	65735f6f 	ldrbvs	r5, [r3, #-3951]!	; 0xf6f
 f78:	6e695f74 	mcrvs	15, 3, r5, cr9, cr4, {3}
 f7c:	00747570 	rsbseq	r7, r4, r0, ror r5
 f80:	6f697067 	svcvs	0x00697067
 f84:	7465735f 	strbtvc	r7, [r5], #-863	; 0x35f
 f88:	006e6f5f 	rsbeq	r6, lr, pc, asr pc
 f8c:	6f697067 	svcvs	0x00697067
 f90:	6e75665f 	mrcvs	6, 3, r6, cr5, cr15, {2}
 f94:	00745f63 	rsbseq	r5, r4, r3, ror #30
 f98:	6f697067 	svcvs	0x00697067
 f9c:	726c635f 	rsbvc	r6, ip, #2080374785	; 0x7c000001
 fa0:	Address 0x0000000000000fa0 is out of bounds.


Disassembly of section .debug_frame:

00000000 <.debug_frame>:
   0:	0000000c 	andeq	r0, r0, ip
   4:	ffffffff 			; <UNDEFINED> instruction: 0xffffffff
   8:	7c020001 	stcvc	0, cr0, [r2], {1}
   c:	000d0c0e 	andeq	r0, sp, lr, lsl #24
  10:	0000000c 	andeq	r0, r0, ip
  14:	00000000 	andeq	r0, r0, r0
  18:	00008020 	andeq	r8, r0, r0, lsr #32
  1c:	00000004 	andeq	r0, r0, r4
  20:	0000000c 	andeq	r0, r0, ip
  24:	00000000 	andeq	r0, r0, r0
  28:	00008024 	andeq	r8, r0, r4, lsr #32
  2c:	00000008 	andeq	r0, r0, r8
  30:	0000000c 	andeq	r0, r0, ip
  34:	00000000 	andeq	r0, r0, r0
  38:	0000802c 	andeq	r8, r0, ip, lsr #32
  3c:	00000004 	andeq	r0, r0, r4
  40:	0000000c 	andeq	r0, r0, ip
  44:	00000000 	andeq	r0, r0, r0
  48:	00008030 	andeq	r8, r0, r0, lsr r0
  4c:	0000001c 	andeq	r0, r0, ip, lsl r0
  50:	0000000c 	andeq	r0, r0, ip
  54:	00000000 	andeq	r0, r0, r0
  58:	0000804c 	andeq	r8, r0, ip, asr #32
  5c:	00000070 	andeq	r0, r0, r0, ror r0
  60:	00000014 	andeq	r0, r0, r4, lsl r0
  64:	00000000 	andeq	r0, r0, r0
  68:	000080bc 	strheq	r8, [r0], -ip
  6c:	00000104 	andeq	r0, r0, r4, lsl #2
  70:	8e040e42 	cdphi	14, 0, cr0, cr4, cr2, {2}
  74:	480e4201 	stmdami	lr, {r0, r9, lr}
  78:	0000000c 	andeq	r0, r0, ip
  7c:	ffffffff 			; <UNDEFINED> instruction: 0xffffffff
  80:	7c020001 	stcvc	0, cr0, [r2], {1}
  84:	000d0c0e 	andeq	r0, sp, lr, lsl #24
  88:	00000014 	andeq	r0, r0, r4, lsl r0
  8c:	00000078 	andeq	r0, r0, r8, ror r0
  90:	000081c0 	andeq	r8, r0, r0, asr #3
  94:	000000b0 	strheq	r0, [r0], -r0	; <UNPREDICTABLE>
  98:	8e040e42 	cdphi	14, 0, cr0, cr4, cr2, {2}
  9c:	100e4201 	andne	r4, lr, r1, lsl #4
  a0:	00000014 	andeq	r0, r0, r4, lsl r0
  a4:	00000078 	andeq	r0, r0, r8, ror r0
  a8:	00008270 	andeq	r8, r0, r0, ror r2
  ac:	000000dc 	ldrdeq	r0, [r0], -ip
  b0:	8e040e42 	cdphi	14, 0, cr0, cr4, cr2, {2}
  b4:	100e4201 	andne	r4, lr, r1, lsl #4
  b8:	00000014 	andeq	r0, r0, r4, lsl r0
  bc:	00000078 	andeq	r0, r0, r8, ror r0
  c0:	0000834c 	andeq	r8, r0, ip, asr #6
  c4:	0000003c 	andeq	r0, r0, ip, lsr r0
  c8:	83080e42 	movwhi	r0, #36418	; 0x8e42
  cc:	00018e02 	andeq	r8, r1, r2, lsl #28
  d0:	0000000c 	andeq	r0, r0, ip
  d4:	00000078 	andeq	r0, r0, r8, ror r0
  d8:	00008388 	andeq	r8, r0, r8, lsl #7
  dc:	00000034 	andeq	r0, r0, r4, lsr r0
  e0:	00000014 	andeq	r0, r0, r4, lsl r0
  e4:	00000078 	andeq	r0, r0, r8, ror r0
  e8:	000083bc 			; <UNDEFINED> instruction: 0x000083bc
  ec:	00000098 	muleq	r0, r8, r0
  f0:	8e040e42 	cdphi	14, 0, cr0, cr4, cr2, {2}
  f4:	100e4201 	andne	r4, lr, r1, lsl #4
  f8:	0000000c 	andeq	r0, r0, ip
  fc:	00000078 	andeq	r0, r0, r8, ror r0
 100:	00008454 	andeq	r8, r0, r4, asr r4
 104:	00000004 	andeq	r0, r0, r4
 108:	00000014 	andeq	r0, r0, r4, lsl r0
 10c:	00000078 	andeq	r0, r0, r8, ror r0
 110:	00008458 	andeq	r8, r0, r8, asr r4
 114:	0000002c 	andeq	r0, r0, ip, lsr #32
 118:	83080e42 	movwhi	r0, #36418	; 0x8e42
 11c:	00018e02 	andeq	r8, r1, r2, lsl #28
 120:	0000000c 	andeq	r0, r0, ip
 124:	00000078 	andeq	r0, r0, r8, ror r0
 128:	00008484 	andeq	r8, r0, r4, lsl #9
 12c:	00000034 	andeq	r0, r0, r4, lsr r0
 130:	0000000c 	andeq	r0, r0, ip
 134:	00000078 	andeq	r0, r0, r8, ror r0
 138:	000084b8 			; <UNDEFINED> instruction: 0x000084b8
 13c:	00000010 	andeq	r0, r0, r0, lsl r0
 140:	00000014 	andeq	r0, r0, r4, lsl r0
 144:	00000078 	andeq	r0, r0, r8, ror r0
 148:	000084c8 	andeq	r8, r0, r8, asr #9
 14c:	00000070 	andeq	r0, r0, r0, ror r0
 150:	83080e42 	movwhi	r0, #36418	; 0x8e42
 154:	00018e02 	andeq	r8, r1, r2, lsl #28
 158:	0000000c 	andeq	r0, r0, ip
 15c:	ffffffff 			; <UNDEFINED> instruction: 0xffffffff
 160:	7c020001 	stcvc	0, cr0, [r2], {1}
 164:	000d0c0e 	andeq	r0, sp, lr, lsl #24
 168:	00000018 	andeq	r0, r0, r8, lsl r0
 16c:	00000158 	andeq	r0, r0, r8, asr r1
 170:	00008670 	andeq	r8, r0, r0, ror r6
 174:	000001ac 	andeq	r0, r0, ip, lsr #3
 178:	840c0e42 	strhi	r0, [ip], #-3650	; 0xe42
 17c:	8e028503 	cfsh32hi	mvfx8, mvfx2, #3
 180:	180e4201 	stmdane	lr, {r0, r9, lr}
 184:	00000024 	andeq	r0, r0, r4, lsr #32
 188:	00000158 	andeq	r0, r0, r8, asr r1
 18c:	0000881c 	andeq	r8, r0, ip, lsl r8
 190:	000004e0 	andeq	r0, r0, r0, ror #9
 194:	84240e42 	strthi	r0, [r4], #-3650	; 0xe42
 198:	86088509 	strhi	r8, [r8], -r9, lsl #10
 19c:	88068707 	stmdahi	r6, {r0, r1, r2, r8, r9, sl, pc}
 1a0:	8a048905 	bhi	1225bc <__bss_end__+0x118054>
 1a4:	8e028b03 	vmlahi.f64	d8, d2, d3
 1a8:	300e4201 	andcc	r4, lr, r1, lsl #4
 1ac:	0000000c 	andeq	r0, r0, ip
 1b0:	00000158 	andeq	r0, r0, r8, asr r1
 1b4:	00008cfc 	strdeq	r8, [r0], -ip
 1b8:	00000008 	andeq	r0, r0, r8
 1bc:	0000000c 	andeq	r0, r0, ip
 1c0:	00000158 	andeq	r0, r0, r8, asr r1
 1c4:	00008d04 	andeq	r8, r0, r4, lsl #26
 1c8:	00000028 	andeq	r0, r0, r8, lsr #32
 1cc:	00000014 	andeq	r0, r0, r4, lsl r0
 1d0:	00000158 	andeq	r0, r0, r8, asr r1
 1d4:	00008d2c 	andeq	r8, r0, ip, lsr #26
 1d8:	0000004c 	andeq	r0, r0, ip, asr #32
 1dc:	84080e42 	strhi	r0, [r8], #-3650	; 0xe42
 1e0:	00018e02 	andeq	r8, r1, r2, lsl #28
 1e4:	0000000c 	andeq	r0, r0, ip
 1e8:	ffffffff 			; <UNDEFINED> instruction: 0xffffffff
 1ec:	7c020001 	stcvc	0, cr0, [r2], {1}
 1f0:	000d0c0e 	andeq	r0, sp, lr, lsl #24
 1f4:	00000024 	andeq	r0, r0, r4, lsr #32
 1f8:	000001e4 	andeq	r0, r0, r4, ror #3
 1fc:	00008d78 	andeq	r8, r0, r8, ror sp
 200:	00000058 	andeq	r0, r0, r8, asr r0
 204:	80100e42 	andshi	r0, r0, r2, asr #28
 208:	82038104 	andhi	r8, r3, #4, 2
 20c:	42018302 	andmi	r8, r1, #134217728	; 0x8000000
 210:	07841c0e 	streq	r1, [r4, lr, lsl #24]
 214:	058e0685 	streq	r0, [lr, #1669]	; 0x685
 218:	00280e42 	eoreq	r0, r8, r2, asr #28
 21c:	0000000c 	andeq	r0, r0, ip
 220:	ffffffff 			; <UNDEFINED> instruction: 0xffffffff
 224:	7c020001 	stcvc	0, cr0, [r2], {1}
 228:	000d0c0e 	andeq	r0, sp, lr, lsl #24
 22c:	00000014 	andeq	r0, r0, r4, lsl r0
 230:	0000021c 	andeq	r0, r0, ip, lsl r2
 234:	00008dd0 	ldrdeq	r8, [r0], -r0
 238:	00000014 	andeq	r0, r0, r4, lsl r0
 23c:	84080e42 	strhi	r0, [r8], #-3650	; 0xe42
 240:	00018e02 	andeq	r8, r1, r2, lsl #28
 244:	0000000c 	andeq	r0, r0, ip
 248:	0000021c 	andeq	r0, r0, ip, lsl r2
 24c:	00008de4 	andeq	r8, r0, r4, ror #27
 250:	00000018 	andeq	r0, r0, r8, lsl r0
 254:	0000000c 	andeq	r0, r0, ip
 258:	0000021c 	andeq	r0, r0, ip, lsl r2
 25c:	00008dfc 	strdeq	r8, [r0], -ip
 260:	00000010 	andeq	r0, r0, r0, lsl r0
 264:	0000000c 	andeq	r0, r0, ip
 268:	ffffffff 			; <UNDEFINED> instruction: 0xffffffff
 26c:	7c020001 	stcvc	0, cr0, [r2], {1}
 270:	000d0c0e 	andeq	r0, sp, lr, lsl #24
 274:	00000018 	andeq	r0, r0, r8, lsl r0
 278:	00000264 	andeq	r0, r0, r4, ror #4
 27c:	00008e0c 	andeq	r8, r0, ip, lsl #28
 280:	00000034 	andeq	r0, r0, r4, lsr r0
 284:	83100e42 	tsthi	r0, #1056	; 0x420
 288:	85038404 	strhi	r8, [r3, #-1028]	; 0x404
 28c:	00018e02 	andeq	r8, r1, r2, lsl #28
 290:	0000000c 	andeq	r0, r0, ip
 294:	ffffffff 			; <UNDEFINED> instruction: 0xffffffff
 298:	7c020001 	stcvc	0, cr0, [r2], {1}
 29c:	000d0c0e 	andeq	r0, sp, lr, lsl #24
 2a0:	0000000c 	andeq	r0, r0, ip
 2a4:	00000290 	muleq	r0, r0, r2
 2a8:	00008e40 	andeq	r8, r0, r0, asr #28
 2ac:	00000014 	andeq	r0, r0, r4, lsl r0
 2b0:	0000000c 	andeq	r0, r0, ip
 2b4:	00000290 	muleq	r0, r0, r2
 2b8:	00008e54 	andeq	r8, r0, r4, asr lr
 2bc:	0000002c 	andeq	r0, r0, ip, lsr #32
 2c0:	0000000c 	andeq	r0, r0, ip
 2c4:	00000290 	muleq	r0, r0, r2
 2c8:	00008e80 	andeq	r8, r0, r0, lsl #29
 2cc:	00000040 	andeq	r0, r0, r0, asr #32
 2d0:	00000020 	andeq	r0, r0, r0, lsr #32
 2d4:	00000290 	muleq	r0, r0, r2
 2d8:	00008ec0 	andeq	r8, r0, r0, asr #29
 2dc:	000001bc 			; <UNDEFINED> instruction: 0x000001bc
 2e0:	84180e42 	ldrhi	r0, [r8], #-3650	; 0xe42
 2e4:	86058506 	strhi	r8, [r5], -r6, lsl #10
 2e8:	88038704 	stmdahi	r3, {r2, r8, r9, sl, pc}
 2ec:	42018e02 	andmi	r8, r1, #2, 28
 2f0:	0000600e 	andeq	r6, r0, lr
 2f4:	00000014 	andeq	r0, r0, r4, lsl r0
 2f8:	00000290 	muleq	r0, r0, r2
 2fc:	0000907c 	andeq	r9, r0, ip, ror r0
 300:	00000068 	andeq	r0, r0, r8, rrx
 304:	8e040e42 	cdphi	14, 0, cr0, cr4, cr2, {2}
 308:	100e4201 	andne	r4, lr, r1, lsl #4
 30c:	00000028 	andeq	r0, r0, r8, lsr #32
 310:	00000290 	muleq	r0, r0, r2
 314:	000090e4 	andeq	r9, r0, r4, ror #1
 318:	000002d4 	ldrdeq	r0, [r0], -r4
 31c:	84240e42 	strthi	r0, [r4], #-3650	; 0xe42
 320:	86088509 	strhi	r8, [r8], -r9, lsl #10
 324:	88068707 	stmdahi	r6, {r0, r1, r2, r8, r9, sl, pc}
 328:	8a048905 	bhi	122744 <__bss_end__+0x1181dc>
 32c:	8e028b03 	vmlahi.f64	d8, d2, d3
 330:	b80e4201 	stmdalt	lr, {r0, r9, lr}
 334:	00000001 	andeq	r0, r0, r1
 338:	0000000c 	andeq	r0, r0, ip
 33c:	ffffffff 			; <UNDEFINED> instruction: 0xffffffff
 340:	7c020001 	stcvc	0, cr0, [r2], {1}
 344:	000d0c0e 	andeq	r0, sp, lr, lsl #24
 348:	0000000c 	andeq	r0, r0, ip
 34c:	00000338 	andeq	r0, r0, r8, lsr r3
 350:	000093b8 			; <UNDEFINED> instruction: 0x000093b8
 354:	00000010 	andeq	r0, r0, r0, lsl r0
 358:	0000000c 	andeq	r0, r0, ip
 35c:	00000338 	andeq	r0, r0, r8, lsr r3
 360:	000093c8 	andeq	r9, r0, r8, asr #7
 364:	00000010 	andeq	r0, r0, r0, lsl r0
 368:	0000000c 	andeq	r0, r0, ip
 36c:	ffffffff 			; <UNDEFINED> instruction: 0xffffffff
 370:	7c020001 	stcvc	0, cr0, [r2], {1}
 374:	000d0c0e 	andeq	r0, sp, lr, lsl #24
 378:	00000014 	andeq	r0, r0, r4, lsl r0
 37c:	00000368 	andeq	r0, r0, r8, ror #6
 380:	000093d8 	ldrdeq	r9, [r0], -r8
 384:	0000002c 	andeq	r0, r0, ip, lsr #32
 388:	83080e42 	movwhi	r0, #36418	; 0x8e42
 38c:	00018e02 	andeq	r8, r1, r2, lsl #28
 390:	0000000c 	andeq	r0, r0, ip
 394:	ffffffff 			; <UNDEFINED> instruction: 0xffffffff
 398:	7c020001 	stcvc	0, cr0, [r2], {1}
 39c:	000d0c0e 	andeq	r0, sp, lr, lsl #24
 3a0:	00000014 	andeq	r0, r0, r4, lsl r0
 3a4:	00000390 	muleq	r0, r0, r3
 3a8:	00009404 	andeq	r9, r0, r4, lsl #8
 3ac:	00000038 	andeq	r0, r0, r8, lsr r0
 3b0:	83080e42 	movwhi	r0, #36418	; 0x8e42
 3b4:	00018e02 	andeq	r8, r1, r2, lsl #28
 3b8:	0000000c 	andeq	r0, r0, ip
 3bc:	ffffffff 			; <UNDEFINED> instruction: 0xffffffff
 3c0:	7c020001 	stcvc	0, cr0, [r2], {1}
 3c4:	000d0c0e 	andeq	r0, sp, lr, lsl #24
 3c8:	00000014 	andeq	r0, r0, r4, lsl r0
 3cc:	000003b8 			; <UNDEFINED> instruction: 0x000003b8
 3d0:	0000943c 	andeq	r9, r0, ip, lsr r4
 3d4:	00000044 	andeq	r0, r0, r4, asr #32
 3d8:	8e040e42 	cdphi	14, 0, cr0, cr4, cr2, {2}
 3dc:	100e4201 	andne	r4, lr, r1, lsl #4
 3e0:	0000000c 	andeq	r0, r0, ip
 3e4:	ffffffff 			; <UNDEFINED> instruction: 0xffffffff
 3e8:	7c020001 	stcvc	0, cr0, [r2], {1}
 3ec:	000d0c0e 	andeq	r0, sp, lr, lsl #24
 3f0:	00000014 	andeq	r0, r0, r4, lsl r0
 3f4:	000003e0 	andeq	r0, r0, r0, ror #7
 3f8:	00009480 	andeq	r9, r0, r0, lsl #9
 3fc:	00000044 	andeq	r0, r0, r4, asr #32
 400:	8e040e42 	cdphi	14, 0, cr0, cr4, cr2, {2}
 404:	100e4201 	andne	r4, lr, r1, lsl #4
 408:	0000000c 	andeq	r0, r0, ip
 40c:	ffffffff 			; <UNDEFINED> instruction: 0xffffffff
 410:	7c020001 	stcvc	0, cr0, [r2], {1}
 414:	000d0c0e 	andeq	r0, sp, lr, lsl #24
 418:	00000014 	andeq	r0, r0, r4, lsl r0
 41c:	00000408 	andeq	r0, r0, r8, lsl #8
 420:	000094c4 	andeq	r9, r0, r4, asr #9
 424:	00000044 	andeq	r0, r0, r4, asr #32
 428:	8e040e42 	cdphi	14, 0, cr0, cr4, cr2, {2}
 42c:	100e4201 	andne	r4, lr, r1, lsl #4
 430:	0000000c 	andeq	r0, r0, ip
 434:	ffffffff 			; <UNDEFINED> instruction: 0xffffffff
 438:	7c020001 	stcvc	0, cr0, [r2], {1}
 43c:	000d0c0e 	andeq	r0, sp, lr, lsl #24
 440:	0000000c 	andeq	r0, r0, ip
 444:	00000430 	andeq	r0, r0, r0, lsr r4
 448:	00009508 	andeq	r9, r0, r8, lsl #10
 44c:	00000004 	andeq	r0, r0, r4
 450:	0000000c 	andeq	r0, r0, ip
 454:	00000430 	andeq	r0, r0, r0, lsr r4
 458:	0000950c 	andeq	r9, r0, ip, lsl #10
 45c:	00000004 	andeq	r0, r0, r4
 460:	0000000c 	andeq	r0, r0, ip
 464:	ffffffff 			; <UNDEFINED> instruction: 0xffffffff
 468:	7c020001 	stcvc	0, cr0, [r2], {1}
 46c:	000d0c0e 	andeq	r0, sp, lr, lsl #24
 470:	00000014 	andeq	r0, r0, r4, lsl r0
 474:	00000460 	andeq	r0, r0, r0, ror #8
 478:	00009510 	andeq	r9, r0, r0, lsl r5
 47c:	0000006c 	andeq	r0, r0, ip, rrx
 480:	83080e42 	movwhi	r0, #36418	; 0x8e42
 484:	00018e02 	andeq	r8, r1, r2, lsl #28
 488:	0000000c 	andeq	r0, r0, ip
 48c:	ffffffff 			; <UNDEFINED> instruction: 0xffffffff
 490:	7c020001 	stcvc	0, cr0, [r2], {1}
 494:	000d0c0e 	andeq	r0, sp, lr, lsl #24
 498:	0000000c 	andeq	r0, r0, ip
 49c:	00000488 	andeq	r0, r0, r8, lsl #9
 4a0:	0000957c 	andeq	r9, r0, ip, ror r5
 4a4:	00000018 	andeq	r0, r0, r8, lsl r0
 4a8:	0000000c 	andeq	r0, r0, ip
 4ac:	00000488 	andeq	r0, r0, r8, lsl #9
 4b0:	00009594 	muleq	r0, r4, r5
 4b4:	00000014 	andeq	r0, r0, r4, lsl r0
 4b8:	00000014 	andeq	r0, r0, r4, lsl r0
 4bc:	00000488 	andeq	r0, r0, r8, lsl #9
 4c0:	000095a8 	andeq	r9, r0, r8, lsr #11
 4c4:	00000048 	andeq	r0, r0, r8, asr #32
 4c8:	83080e42 	movwhi	r0, #36418	; 0x8e42
 4cc:	00018e02 	andeq	r8, r1, r2, lsl #28
 4d0:	0000000c 	andeq	r0, r0, ip
 4d4:	ffffffff 			; <UNDEFINED> instruction: 0xffffffff
 4d8:	7c020001 	stcvc	0, cr0, [r2], {1}
 4dc:	000d0c0e 	andeq	r0, sp, lr, lsl #24
 4e0:	0000000c 	andeq	r0, r0, ip
 4e4:	000004d0 	ldrdeq	r0, [r0], -r0	; <UNPREDICTABLE>
 4e8:	000095f0 	strdeq	r9, [r0], -r0
 4ec:	0000001c 	andeq	r0, r0, ip, lsl r0
 4f0:	00000014 	andeq	r0, r0, r4, lsl r0
 4f4:	000004d0 	ldrdeq	r0, [r0], -r0	; <UNPREDICTABLE>
 4f8:	0000960c 	andeq	r9, r0, ip, lsl #12
 4fc:	00000014 	andeq	r0, r0, r4, lsl r0
 500:	83080e42 	movwhi	r0, #36418	; 0x8e42
 504:	00018e02 	andeq	r8, r1, r2, lsl #28
 508:	00000014 	andeq	r0, r0, r4, lsl r0
 50c:	000004d0 	ldrdeq	r0, [r0], -r0	; <UNPREDICTABLE>
 510:	00009620 	andeq	r9, r0, r0, lsr #12
 514:	0000001c 	andeq	r0, r0, ip, lsl r0
 518:	84080e42 	strhi	r0, [r8], #-3650	; 0xe42
 51c:	00018e02 	andeq	r8, r1, r2, lsl #28
 520:	00000018 	andeq	r0, r0, r8, lsl r0
 524:	000004d0 	ldrdeq	r0, [r0], -r0	; <UNPREDICTABLE>
 528:	0000963c 	andeq	r9, r0, ip, lsr r6
 52c:	00000024 	andeq	r0, r0, r4, lsr #32
 530:	83100e42 	tsthi	r0, #1056	; 0x420
 534:	85038404 	strhi	r8, [r3, #-1028]	; 0x404
 538:	00018e02 	andeq	r8, r1, r2, lsl #28
 53c:	00000014 	andeq	r0, r0, r4, lsl r0
 540:	000004d0 	ldrdeq	r0, [r0], -r0	; <UNPREDICTABLE>
 544:	00009660 	andeq	r9, r0, r0, ror #12
 548:	00000014 	andeq	r0, r0, r4, lsl r0
 54c:	83080e42 	movwhi	r0, #36418	; 0x8e42
 550:	00018e02 	andeq	r8, r1, r2, lsl #28
 554:	00000014 	andeq	r0, r0, r4, lsl r0
 558:	000004d0 	ldrdeq	r0, [r0], -r0	; <UNPREDICTABLE>
 55c:	00009674 	andeq	r9, r0, r4, ror r6
 560:	00000014 	andeq	r0, r0, r4, lsl r0
 564:	83080e42 	movwhi	r0, #36418	; 0x8e42
 568:	00018e02 	andeq	r8, r1, r2, lsl #28
 56c:	0000000c 	andeq	r0, r0, ip
 570:	ffffffff 			; <UNDEFINED> instruction: 0xffffffff
 574:	7c020001 	stcvc	0, cr0, [r2], {1}
 578:	000d0c0e 	andeq	r0, sp, lr, lsl #24
 57c:	00000018 	andeq	r0, r0, r8, lsl r0
 580:	0000056c 	andeq	r0, r0, ip, ror #10
 584:	000096ec 	andeq	r9, r0, ip, ror #13
 588:	00000020 	andeq	r0, r0, r0, lsr #32
 58c:	84100e42 	ldrhi	r0, [r0], #-3650	; 0xe42
 590:	86038504 	strhi	r8, [r3], -r4, lsl #10
 594:	00018e02 	andeq	r8, r1, r2, lsl #28
 598:	00000014 	andeq	r0, r0, r4, lsl r0
 59c:	0000056c 	andeq	r0, r0, ip, ror #10
 5a0:	0000970c 	andeq	r9, r0, ip, lsl #14
 5a4:	000000b0 	strheq	r0, [r0], -r0	; <UNPREDICTABLE>
 5a8:	84080e42 	strhi	r0, [r8], #-3650	; 0xe42
 5ac:	00018e02 	andeq	r8, r1, r2, lsl #28
 5b0:	00000014 	andeq	r0, r0, r4, lsl r0
 5b4:	0000056c 	andeq	r0, r0, ip, ror #10
 5b8:	000097bc 			; <UNDEFINED> instruction: 0x000097bc
 5bc:	00000018 	andeq	r0, r0, r8, lsl r0
 5c0:	84080e42 	strhi	r0, [r8], #-3650	; 0xe42
 5c4:	00018e02 	andeq	r8, r1, r2, lsl #28
 5c8:	00000014 	andeq	r0, r0, r4, lsl r0
 5cc:	0000056c 	andeq	r0, r0, ip, ror #10
 5d0:	000097d4 	ldrdeq	r9, [r0], -r4
 5d4:	00000020 	andeq	r0, r0, r0, lsr #32
 5d8:	84080e42 	strhi	r0, [r8], #-3650	; 0xe42
 5dc:	00018e02 	andeq	r8, r1, r2, lsl #28
 5e0:	00000014 	andeq	r0, r0, r4, lsl r0
 5e4:	0000056c 	andeq	r0, r0, ip, ror #10
 5e8:	000097f4 	strdeq	r9, [r0], -r4
 5ec:	00000030 	andeq	r0, r0, r0, lsr r0
 5f0:	84080e42 	strhi	r0, [r8], #-3650	; 0xe42
 5f4:	00018e02 	andeq	r8, r1, r2, lsl #28
 5f8:	00000014 	andeq	r0, r0, r4, lsl r0
 5fc:	0000056c 	andeq	r0, r0, ip, ror #10
 600:	00009824 	andeq	r9, r0, r4, lsr #16
 604:	00000030 	andeq	r0, r0, r0, lsr r0
 608:	84080e42 	strhi	r0, [r8], #-3650	; 0xe42
 60c:	00018e02 	andeq	r8, r1, r2, lsl #28
 610:	00000014 	andeq	r0, r0, r4, lsl r0
 614:	0000056c 	andeq	r0, r0, ip, ror #10
 618:	00009854 	andeq	r9, r0, r4, asr r8
 61c:	00000010 	andeq	r0, r0, r0, lsl r0
 620:	84080e42 	strhi	r0, [r8], #-3650	; 0xe42
 624:	00018e02 	andeq	r8, r1, r2, lsl #28
 628:	0000000c 	andeq	r0, r0, ip
 62c:	ffffffff 			; <UNDEFINED> instruction: 0xffffffff
 630:	7c020001 	stcvc	0, cr0, [r2], {1}
 634:	000d0c0e 	andeq	r0, sp, lr, lsl #24
 638:	00000018 	andeq	r0, r0, r8, lsl r0
 63c:	00000628 	andeq	r0, r0, r8, lsr #12
 640:	00009864 	andeq	r9, r0, r4, ror #16
 644:	00000068 	andeq	r0, r0, r8, rrx
 648:	84100e4a 	ldrhi	r0, [r0], #-3658	; 0xe4a
 64c:	86038504 	strhi	r8, [r3], -r4, lsl #10
 650:	00018e02 	andeq	r8, r1, r2, lsl #28
 654:	00000014 	andeq	r0, r0, r4, lsl r0
 658:	00000628 	andeq	r0, r0, r8, lsr #12
 65c:	000098cc 	andeq	r9, r0, ip, asr #17
 660:	00000010 	andeq	r0, r0, r0, lsl r0
 664:	84080e42 	strhi	r0, [r8], #-3650	; 0xe42
 668:	00018e02 	andeq	r8, r1, r2, lsl #28
 66c:	00000014 	andeq	r0, r0, r4, lsl r0
 670:	00000628 	andeq	r0, r0, r8, lsr #12
 674:	000098dc 	ldrdeq	r9, [r0], -ip
 678:	00000024 	andeq	r0, r0, r4, lsr #32
 67c:	84080e46 	strhi	r0, [r8], #-3654	; 0xe46
 680:	00018e02 	andeq	r8, r1, r2, lsl #28
 684:	00000014 	andeq	r0, r0, r4, lsl r0
 688:	00000628 	andeq	r0, r0, r8, lsr #12
 68c:	00009900 	andeq	r9, r0, r0, lsl #18
 690:	00000024 	andeq	r0, r0, r4, lsr #32
 694:	84080e46 	strhi	r0, [r8], #-3654	; 0xe46
 698:	00018e02 	andeq	r8, r1, r2, lsl #28
 69c:	00000014 	andeq	r0, r0, r4, lsl r0
 6a0:	00000628 	andeq	r0, r0, r8, lsr #12
 6a4:	00009924 	andeq	r9, r0, r4, lsr #18
 6a8:	00000010 	andeq	r0, r0, r0, lsl r0
 6ac:	84080e42 	strhi	r0, [r8], #-3650	; 0xe42
 6b0:	00018e02 	andeq	r8, r1, r2, lsl #28
 6b4:	00000014 	andeq	r0, r0, r4, lsl r0
 6b8:	00000628 	andeq	r0, r0, r8, lsr #12
 6bc:	00009934 	andeq	r9, r0, r4, lsr r9
 6c0:	0000001c 	andeq	r0, r0, ip, lsl r0
 6c4:	84080e42 	strhi	r0, [r8], #-3650	; 0xe42
 6c8:	00018e02 	andeq	r8, r1, r2, lsl #28
 6cc:	00000018 	andeq	r0, r0, r8, lsl r0
 6d0:	00000628 	andeq	r0, r0, r8, lsr #12
 6d4:	00009950 	andeq	r9, r0, r0, asr r9
 6d8:	00000034 	andeq	r0, r0, r4, lsr r0
 6dc:	84080e46 	strhi	r0, [r8], #-3654	; 0xe46
 6e0:	4e018e02 	cdpmi	14, 0, cr8, cr1, cr2, {0}
 6e4:	cec4000e 	cdpgt	0, 12, cr0, cr4, cr14, {0}

Disassembly of section .debug_ranges:

00000000 <.debug_ranges>:
   0:	0000957c 	andeq	r9, r0, ip, ror r5
   4:	000095f0 	strdeq	r9, [r0], -r0
	...
